; Listing generated by Microsoft (R) Optimizing Compiler Version 19.29.30145.0 

	TITLE	D:\git\src\IBK\IBK_DRFN\#DRfn-CS\_Obj\PartnerMng\ChartItemMarket.obj
	.686P
	.XMM
	include listing.inc
	.model	flat

INCLUDELIB MSVCRT
INCLUDELIB OLDNAMES

PUBLIC	?szSendTypeTitle@@3PAPADA			; szSendTypeTitle
PUBLIC	??_C@_0BL@OECHFEPE@_OrganPureBuyAccumulation_@	; `string'
PUBLIC	??_C@_0P@JAPLGBGJ@_OrganPureBuy_@		; `string'
PUBLIC	??_C@_0BD@CGLPLIKA@_SuspenseContract_@		; `string'
PUBLIC	??_C@_0O@HEEDFHAD@_TotalAmount_@		; `string'
PUBLIC	??_C@_0BB@EGKJFGNN@_ForeignHolding_@		; `string'
PUBLIC	??_C@_0BF@NDNLOCPL@_ForeignHoldingRate_@	; `string'
PUBLIC	??_C@_0BB@GHMGOPJA@_ForeignPureBuy_@		; `string'
PUBLIC	??_C@_0P@OGFDPMKF@_VolumeAmount_@		; `string'
PUBLIC	??_C@_0BE@IAPEEMEF@_KspPureBuy_Person_@		; `string'
PUBLIC	??_C@_0BF@IMKKKIML@_KdqPureBuy_Person_?$DL@	; `string'
PUBLIC	??_C@_0BF@DINOHGBB@_K200PureBuy_Person_@	; `string'
PUBLIC	??_C@_0BE@MKKLEHDA@_FutPureBuy_Person_@		; `string'
PUBLIC	??_C@_0BF@HOCDKDPB@_COptPureBuy_Person_@	; `string'
PUBLIC	??_C@_0BF@DBEMEFBO@_POptPureBuy_Person_@	; `string'
PUBLIC	??_C@_0BG@BABEMLN@_OrganFinancePureBuy_@	; `string'
PUBLIC	??_C@_0BF@JPPGAEFL@_OrganInsurePureBuy_@	; `string'
PUBLIC	??_C@_0BJ@HEFALDAD@_OrganInvestmentPureBuy_@	; `string'
PUBLIC	??_C@_0BD@FEBNECAE@_OrganBankPureBuy_@		; `string'
PUBLIC	??_C@_0BJ@KIPDOAH@_OrganEtcFinancePureBuy_@	; `string'
PUBLIC	??_C@_0BK@CKDMLBFF@_OrganPensionFundPureBuy_@	; `string'
PUBLIC	??_C@_0BG@MBCHIGCB@_OrganEtcCorpPureBuy_@	; `string'
PUBLIC	??_C@_0BM@IEILLOBM@_OrganPrivateEquityPureBuy_@	; `string'
PUBLIC	??_C@_0BG@ODJNOIBN@_OrganCountryPureBuy_@	; `string'
PUBLIC	??_C@_0BL@GHJCKOOK@_OrganFinancePureBuyAccum_@	; `string'
PUBLIC	??_C@_0BK@MBOPCOIG@_OrganInsurePureBuyAccum_@	; `string'
PUBLIC	??_C@_0BO@CJFGNHFK@_OrganInvestmentPureBuyAccum_@ ; `string'
PUBLIC	??_C@_0BI@EIGKEALJ@_OrganBankPureBuyAccum_@	; `string'
PUBLIC	??_C@_0BO@PEIMDJAJ@_OrganEtcFinancePureBuyAccum_@ ; `string'
PUBLIC	??_C@_0BP@FBPJGHCE@_OrganPensionFundPureBuyAccum_@ ; `string'
PUBLIC	??_C@_0BL@JNKOIHIF@_OrganEtcCorpPureBuyAccum_@	; `string'
PUBLIC	??_C@_0CB@KMOMDELI@_OrganPrivateEquityPureBuyAccum@ ; `string'
PUBLIC	??_C@_0BL@ENPNGPNE@_OrganCountryPureBuyAccum_@	; `string'
PUBLIC	??_C@_05IGKDGPNC@_ADL_@				; `string'
PUBLIC	??_C@_05JABLOBKI@_ADR_@				; `string'
PUBLIC	??_C@_0P@BKKCOCLK@RMSG_INTERFACE@		; `string'
PUBLIC	??_C@_0BB@GOOPDKI@RMSG_GETPCTRDATA@		; `string'
PUBLIC	??_C@_0BB@JPACFCL@RMSG_SETPCTRDATA@		; `string'
PUBLIC	??_C@_0BE@FJPKENOB@RMSG_GETSIGNAL_REAL@		; `string'
;	COMDAT ??_C@_0BE@FJPKENOB@RMSG_GETSIGNAL_REAL@
CONST	SEGMENT
??_C@_0BE@FJPKENOB@RMSG_GETSIGNAL_REAL@ DB 'RMSG_GETSIGNAL_REAL', 00H ; `string'
CONST	ENDS
;	COMDAT ??_C@_0BB@JPACFCL@RMSG_SETPCTRDATA@
CONST	SEGMENT
??_C@_0BB@JPACFCL@RMSG_SETPCTRDATA@ DB 'RMSG_SETPCTRDATA', 00H ; `string'
CONST	ENDS
;	COMDAT ??_C@_0BB@GOOPDKI@RMSG_GETPCTRDATA@
CONST	SEGMENT
??_C@_0BB@GOOPDKI@RMSG_GETPCTRDATA@ DB 'RMSG_GETPCTRDATA', 00H ; `string'
CONST	ENDS
;	COMDAT ??_C@_0P@BKKCOCLK@RMSG_INTERFACE@
CONST	SEGMENT
??_C@_0P@BKKCOCLK@RMSG_INTERFACE@ DB 'RMSG_INTERFACE', 00H ; `string'
CONST	ENDS
;	COMDAT ??_C@_05JABLOBKI@_ADR_@
CONST	SEGMENT
??_C@_05JABLOBKI@_ADR_@ DB '_ADR_', 00H			; `string'
CONST	ENDS
;	COMDAT ??_C@_05IGKDGPNC@_ADL_@
CONST	SEGMENT
??_C@_05IGKDGPNC@_ADL_@ DB '_ADL_', 00H			; `string'
CONST	ENDS
;	COMDAT ??_C@_0BL@ENPNGPNE@_OrganCountryPureBuyAccum_@
CONST	SEGMENT
??_C@_0BL@ENPNGPNE@_OrganCountryPureBuyAccum_@ DB '_OrganCountryPureBuyAc'
	DB	'cum_', 00H					; `string'
CONST	ENDS
;	COMDAT ??_C@_0CB@KMOMDELI@_OrganPrivateEquityPureBuyAccum@
CONST	SEGMENT
??_C@_0CB@KMOMDELI@_OrganPrivateEquityPureBuyAccum@ DB '_OrganPrivateEqui'
	DB	'tyPureBuyAccum_', 00H			; `string'
CONST	ENDS
;	COMDAT ??_C@_0BL@JNKOIHIF@_OrganEtcCorpPureBuyAccum_@
CONST	SEGMENT
??_C@_0BL@JNKOIHIF@_OrganEtcCorpPureBuyAccum_@ DB '_OrganEtcCorpPureBuyAc'
	DB	'cum_', 00H					; `string'
CONST	ENDS
;	COMDAT ??_C@_0BP@FBPJGHCE@_OrganPensionFundPureBuyAccum_@
CONST	SEGMENT
??_C@_0BP@FBPJGHCE@_OrganPensionFundPureBuyAccum_@ DB '_OrganPensionFundP'
	DB	'ureBuyAccum_', 00H				; `string'
CONST	ENDS
;	COMDAT ??_C@_0BO@PEIMDJAJ@_OrganEtcFinancePureBuyAccum_@
CONST	SEGMENT
??_C@_0BO@PEIMDJAJ@_OrganEtcFinancePureBuyAccum_@ DB '_OrganEtcFinancePur'
	DB	'eBuyAccum_', 00H				; `string'
CONST	ENDS
;	COMDAT ??_C@_0BI@EIGKEALJ@_OrganBankPureBuyAccum_@
CONST	SEGMENT
??_C@_0BI@EIGKEALJ@_OrganBankPureBuyAccum_@ DB '_OrganBankPureBuyAccum_', 00H ; `string'
CONST	ENDS
;	COMDAT ??_C@_0BO@CJFGNHFK@_OrganInvestmentPureBuyAccum_@
CONST	SEGMENT
??_C@_0BO@CJFGNHFK@_OrganInvestmentPureBuyAccum_@ DB '_OrganInvestmentPur'
	DB	'eBuyAccum_', 00H				; `string'
CONST	ENDS
;	COMDAT ??_C@_0BK@MBOPCOIG@_OrganInsurePureBuyAccum_@
CONST	SEGMENT
??_C@_0BK@MBOPCOIG@_OrganInsurePureBuyAccum_@ DB '_OrganInsurePureBuyAccu'
	DB	'm_', 00H					; `string'
CONST	ENDS
;	COMDAT ??_C@_0BL@GHJCKOOK@_OrganFinancePureBuyAccum_@
CONST	SEGMENT
??_C@_0BL@GHJCKOOK@_OrganFinancePureBuyAccum_@ DB '_OrganFinancePureBuyAc'
	DB	'cum_', 00H					; `string'
CONST	ENDS
;	COMDAT ??_C@_0BG@ODJNOIBN@_OrganCountryPureBuy_@
CONST	SEGMENT
??_C@_0BG@ODJNOIBN@_OrganCountryPureBuy_@ DB '_OrganCountryPureBuy_', 00H ; `string'
CONST	ENDS
;	COMDAT ??_C@_0BM@IEILLOBM@_OrganPrivateEquityPureBuy_@
CONST	SEGMENT
??_C@_0BM@IEILLOBM@_OrganPrivateEquityPureBuy_@ DB '_OrganPrivateEquityPu'
	DB	'reBuy_', 00H				; `string'
CONST	ENDS
;	COMDAT ??_C@_0BG@MBCHIGCB@_OrganEtcCorpPureBuy_@
CONST	SEGMENT
??_C@_0BG@MBCHIGCB@_OrganEtcCorpPureBuy_@ DB '_OrganEtcCorpPureBuy_', 00H ; `string'
CONST	ENDS
;	COMDAT ??_C@_0BK@CKDMLBFF@_OrganPensionFundPureBuy_@
CONST	SEGMENT
??_C@_0BK@CKDMLBFF@_OrganPensionFundPureBuy_@ DB '_OrganPensionFundPureBu'
	DB	'y_', 00H					; `string'
CONST	ENDS
;	COMDAT ??_C@_0BJ@KIPDOAH@_OrganEtcFinancePureBuy_@
CONST	SEGMENT
??_C@_0BJ@KIPDOAH@_OrganEtcFinancePureBuy_@ DB '_OrganEtcFinancePureBuy_', 00H ; `string'
CONST	ENDS
;	COMDAT ??_C@_0BD@FEBNECAE@_OrganBankPureBuy_@
CONST	SEGMENT
??_C@_0BD@FEBNECAE@_OrganBankPureBuy_@ DB '_OrganBankPureBuy_', 00H ; `string'
CONST	ENDS
;	COMDAT ??_C@_0BJ@HEFALDAD@_OrganInvestmentPureBuy_@
CONST	SEGMENT
??_C@_0BJ@HEFALDAD@_OrganInvestmentPureBuy_@ DB '_OrganInvestmentPureBuy_'
	DB	00H						; `string'
CONST	ENDS
;	COMDAT ??_C@_0BF@JPPGAEFL@_OrganInsurePureBuy_@
CONST	SEGMENT
??_C@_0BF@JPPGAEFL@_OrganInsurePureBuy_@ DB '_OrganInsurePureBuy_', 00H ; `string'
CONST	ENDS
;	COMDAT ??_C@_0BG@BABEMLN@_OrganFinancePureBuy_@
CONST	SEGMENT
??_C@_0BG@BABEMLN@_OrganFinancePureBuy_@ DB '_OrganFinancePureBuy_', 00H ; `string'
CONST	ENDS
;	COMDAT ??_C@_0BF@DBEMEFBO@_POptPureBuy_Person_@
CONST	SEGMENT
??_C@_0BF@DBEMEFBO@_POptPureBuy_Person_@ DB '_POptPureBuy_Person_', 00H ; `string'
CONST	ENDS
;	COMDAT ??_C@_0BF@HOCDKDPB@_COptPureBuy_Person_@
CONST	SEGMENT
??_C@_0BF@HOCDKDPB@_COptPureBuy_Person_@ DB '_COptPureBuy_Person_', 00H ; `string'
CONST	ENDS
;	COMDAT ??_C@_0BE@MKKLEHDA@_FutPureBuy_Person_@
CONST	SEGMENT
??_C@_0BE@MKKLEHDA@_FutPureBuy_Person_@ DB '_FutPureBuy_Person_', 00H ; `string'
CONST	ENDS
;	COMDAT ??_C@_0BF@DINOHGBB@_K200PureBuy_Person_@
CONST	SEGMENT
??_C@_0BF@DINOHGBB@_K200PureBuy_Person_@ DB '_K200PureBuy_Person_', 00H ; `string'
CONST	ENDS
;	COMDAT ??_C@_0BF@IMKKKIML@_KdqPureBuy_Person_?$DL@
CONST	SEGMENT
??_C@_0BF@IMKKKIML@_KdqPureBuy_Person_?$DL@ DB '_KdqPureBuy_Person_;', 00H ; `string'
CONST	ENDS
;	COMDAT ??_C@_0BE@IAPEEMEF@_KspPureBuy_Person_@
CONST	SEGMENT
??_C@_0BE@IAPEEMEF@_KspPureBuy_Person_@ DB '_KspPureBuy_Person_', 00H ; `string'
CONST	ENDS
;	COMDAT ??_C@_0P@OGFDPMKF@_VolumeAmount_@
CONST	SEGMENT
??_C@_0P@OGFDPMKF@_VolumeAmount_@ DB '_VolumeAmount_', 00H ; `string'
CONST	ENDS
;	COMDAT ??_C@_0BB@GHMGOPJA@_ForeignPureBuy_@
CONST	SEGMENT
??_C@_0BB@GHMGOPJA@_ForeignPureBuy_@ DB '_ForeignPureBuy_', 00H ; `string'
CONST	ENDS
;	COMDAT ??_C@_0BF@NDNLOCPL@_ForeignHoldingRate_@
CONST	SEGMENT
??_C@_0BF@NDNLOCPL@_ForeignHoldingRate_@ DB '_ForeignHoldingRate_', 00H ; `string'
CONST	ENDS
;	COMDAT ??_C@_0BB@EGKJFGNN@_ForeignHolding_@
CONST	SEGMENT
??_C@_0BB@EGKJFGNN@_ForeignHolding_@ DB '_ForeignHolding_', 00H ; `string'
CONST	ENDS
;	COMDAT ??_C@_0O@HEEDFHAD@_TotalAmount_@
CONST	SEGMENT
??_C@_0O@HEEDFHAD@_TotalAmount_@ DB '_TotalAmount_', 00H ; `string'
CONST	ENDS
;	COMDAT ??_C@_0BD@CGLPLIKA@_SuspenseContract_@
CONST	SEGMENT
??_C@_0BD@CGLPLIKA@_SuspenseContract_@ DB '_SuspenseContract_', 00H ; `string'
CONST	ENDS
;	COMDAT ??_C@_0P@JAPLGBGJ@_OrganPureBuy_@
CONST	SEGMENT
??_C@_0P@JAPLGBGJ@_OrganPureBuy_@ DB '_OrganPureBuy_', 00H ; `string'
CONST	ENDS
;	COMDAT ??_C@_0BL@OECHFEPE@_OrganPureBuyAccumulation_@
CONST	SEGMENT
??_C@_0BL@OECHFEPE@_OrganPureBuyAccumulation_@ DB '_OrganPureBuyAccumulat'
	DB	'ion_', 00H					; `string'
CONST	ENDS
_DATA	SEGMENT
?szSendTypeTitle@@3PAPADA DD FLAT:??_C@_0BL@OECHFEPE@_OrganPureBuyAccumulation_@ ; szSendTypeTitle
	DD	FLAT:??_C@_0P@JAPLGBGJ@_OrganPureBuy_@
	DD	FLAT:??_C@_0BD@CGLPLIKA@_SuspenseContract_@
	DD	FLAT:??_C@_0O@HEEDFHAD@_TotalAmount_@
	DD	FLAT:??_C@_0BB@EGKJFGNN@_ForeignHolding_@
	DD	FLAT:??_C@_0BF@NDNLOCPL@_ForeignHoldingRate_@
	DD	FLAT:??_C@_0BB@GHMGOPJA@_ForeignPureBuy_@
	DD	FLAT:??_C@_0P@OGFDPMKF@_VolumeAmount_@
	DD	FLAT:??_C@_0BE@IAPEEMEF@_KspPureBuy_Person_@
	DD	FLAT:??_C@_0BF@IMKKKIML@_KdqPureBuy_Person_?$DL@
	DD	FLAT:??_C@_0BF@DINOHGBB@_K200PureBuy_Person_@
	DD	FLAT:??_C@_0BE@MKKLEHDA@_FutPureBuy_Person_@
	DD	FLAT:??_C@_0BF@HOCDKDPB@_COptPureBuy_Person_@
	DD	FLAT:??_C@_0BF@DBEMEFBO@_POptPureBuy_Person_@
	DD	FLAT:??_C@_0BG@BABEMLN@_OrganFinancePureBuy_@
	DD	FLAT:??_C@_0BF@JPPGAEFL@_OrganInsurePureBuy_@
	DD	FLAT:??_C@_0BJ@HEFALDAD@_OrganInvestmentPureBuy_@
	DD	FLAT:??_C@_0BD@FEBNECAE@_OrganBankPureBuy_@
	DD	FLAT:??_C@_0BJ@KIPDOAH@_OrganEtcFinancePureBuy_@
	DD	FLAT:??_C@_0BK@CKDMLBFF@_OrganPensionFundPureBuy_@
	DD	FLAT:??_C@_0BG@MBCHIGCB@_OrganEtcCorpPureBuy_@
	DD	FLAT:??_C@_0BM@IEILLOBM@_OrganPrivateEquityPureBuy_@
	DD	FLAT:??_C@_0BG@ODJNOIBN@_OrganCountryPureBuy_@
	DD	FLAT:??_C@_0BL@GHJCKOOK@_OrganFinancePureBuyAccum_@
	DD	FLAT:??_C@_0BK@MBOPCOIG@_OrganInsurePureBuyAccum_@
	DD	FLAT:??_C@_0BO@CJFGNHFK@_OrganInvestmentPureBuyAccum_@
	DD	FLAT:??_C@_0BI@EIGKEALJ@_OrganBankPureBuyAccum_@
	DD	FLAT:??_C@_0BO@PEIMDJAJ@_OrganEtcFinancePureBuyAccum_@
	DD	FLAT:??_C@_0BP@FBPJGHCE@_OrganPensionFundPureBuyAccum_@
	DD	FLAT:??_C@_0BL@JNKOIHIF@_OrganEtcCorpPureBuyAccum_@
	DD	FLAT:??_C@_0CB@KMOMDELI@_OrganPrivateEquityPureBuyAccum@
	DD	FLAT:??_C@_0BL@ENPNGPNE@_OrganCountryPureBuyAccum_@
	DD	FLAT:??_C@_05IGKDGPNC@_ADL_@
	DD	FLAT:??_C@_05JABLOBKI@_ADR_@
	DD	00H
_DATA	ENDS
PUBLIC	?__empty_global_delete@@YAXPAX@Z		; __empty_global_delete
PUBLIC	?__empty_global_delete@@YAXPAXI@Z		; __empty_global_delete
PUBLIC	___local_stdio_printf_options
PUBLIC	_sprintf
PUBLIC	??1CObject@@UAE@XZ				; CObject::~CObject
PUBLIC	?Serialize@CObject@@UAEXAAVCArchive@@@Z		; CObject::Serialize
PUBLIC	?AssertValid@CObject@@UBEXXZ			; CObject::AssertValid
PUBLIC	?Dump@CObject@@UBEXAAVCDumpContext@@@Z		; CObject::Dump
PUBLIC	?Copy@CChartBozoInput@@UAEXABV1@@Z		; CChartBozoInput::Copy
PUBLIC	??4CChartBozoInput@@UAEAAV0@ABV0@@Z		; CChartBozoInput::operator=
PUBLIC	??1CChartBozoInput@@QAE@XZ			; CChartBozoInput::~CChartBozoInput
PUBLIC	??0CChartItemMarket@@QAE@XZ			; CChartItemMarket::CChartItemMarket
PUBLIC	??1CChartItemMarket@@UAE@XZ			; CChartItemMarket::~CChartItemMarket
PUBLIC	?SetInData@CChartItemMarket@@QAEXPAUKB_d1015_InRec1@@@Z ; CChartItemMarket::SetInData
PUBLIC	?Convert@CChartItemMarket@@QAE?AV?$CStringT@DV?$StrTraitMFC_DLL@DV?$ChTraitsCRT@D@ATL@@@@@ATL@@XZ ; CChartItemMarket::Convert
PUBLIC	?Convert2Struct@CChartItemMarket@@QAEPADPAEHHAAH@Z ; CChartItemMarket::Convert2Struct
PUBLIC	?GetSendDataType@CChartItemMarket@@QAEHXZ	; CChartItemMarket::GetSendDataType
PUBLIC	?GetSendDataType@CChartItemMarket@@QAE?AV?$CStringT@DV?$StrTraitMFC_DLL@DV?$ChTraitsCRT@D@ATL@@@@@ATL@@H@Z ; CChartItemMarket::GetSendDataType
PUBLIC	?fnStructType1@CChartItemMarket@@QAE?AV?$CStringT@DV?$StrTraitMFC_DLL@DV?$ChTraitsCRT@D@ATL@@@@@ATL@@V23@H@Z ; CChartItemMarket::fnStructType1
PUBLIC	?fnStructType2@CChartItemMarket@@QAE?AV?$CStringT@DV?$StrTraitMFC_DLL@DV?$ChTraitsCRT@D@ATL@@@@@ATL@@V23@H@Z ; CChartItemMarket::fnStructType2
PUBLIC	?MakeDataOfSuspensSeContract@CChartItemMarket@@IAEXAAV?$CStringT@DV?$StrTraitMFC_DLL@DV?$ChTraitsCRT@D@ATL@@@@@ATL@@PAVCStringArray@@@Z ; CChartItemMarket::MakeDataOfSuspensSeContract
PUBLIC	??_GCChartItemMarket@@UAEPAXI@Z			; CChartItemMarket::`scalar deleting destructor'
PUBLIC	??0?$CList@PAVCChartBozoItem@@PAV1@@@QAE@H@Z	; CList<CChartBozoItem *,CChartBozoItem *>::CList<CChartBozoItem *,CChartBozoItem *>
PUBLIC	?AddTail@?$CList@PAVCChartBozoItem@@PAV1@@@QAEPAU__POSITION@@PAVCChartBozoItem@@@Z ; CList<CChartBozoItem *,CChartBozoItem *>::AddTail
PUBLIC	?RemoveAll@?$CList@PAVCChartBozoItem@@PAV1@@@QAEXXZ ; CList<CChartBozoItem *,CChartBozoItem *>::RemoveAll
PUBLIC	?NewNode@?$CList@PAVCChartBozoItem@@PAV1@@@IAEPAUCNode@1@PAU21@0@Z ; CList<CChartBozoItem *,CChartBozoItem *>::NewNode
PUBLIC	??1?$CList@PAVCChartBozoItem@@PAV1@@@UAE@XZ	; CList<CChartBozoItem *,CChartBozoItem *>::~CList<CChartBozoItem *,CChartBozoItem *>
PUBLIC	?Serialize@?$CList@PAVCChartBozoItem@@PAV1@@@UAEXAAVCArchive@@@Z ; CList<CChartBozoItem *,CChartBozoItem *>::Serialize
PUBLIC	??_G?$CList@PAVCChartBozoItem@@PAV1@@@UAEPAXI@Z	; CList<CChartBozoItem *,CChartBozoItem *>::`scalar deleting destructor'
PUBLIC	??$SerializeElements@PAVCChartBozoItem@@@@YGXAAVCArchive@@PAPAVCChartBozoItem@@H@Z ; SerializeElements<CChartBozoItem *>
PUBLIC	?_OptionsStorage@?1??__local_stdio_printf_options@@9@4_KA ; `__local_stdio_printf_options'::`2'::_OptionsStorage
PUBLIC	??_C@_02DPKJAMEF@?$CFd@				; `string'
PUBLIC	??_C@_00CNPNBAHC@@				; `string'
PUBLIC	??_R0?AVCObject@@@8				; CObject `RTTI Type Descriptor'
PUBLIC	??_R3CObject@@8					; CObject::`RTTI Class Hierarchy Descriptor'
PUBLIC	??_R2CObject@@8					; CObject::`RTTI Base Class Array'
PUBLIC	??_R1A@?0A@EA@CObject@@8			; CObject::`RTTI Base Class Descriptor at (0,-1,0,64)'
PUBLIC	??_7CChartBozoInput@@6B@			; CChartBozoInput::`vftable'
PUBLIC	??_7CChartItemMarket@@6B@			; CChartItemMarket::`vftable'
PUBLIC	??_C@_0BC@FAJJAKC@_Foreign?5Holding_@		; `string'
PUBLIC	??_C@_0BH@KNFHMKMA@_Foreign?5Holding?5Rate_@	; `string'
PUBLIC	??_C@_0BD@CNJJJHHG@_Foreign?5Pure?5Buy_@	; `string'
PUBLIC	??_C@_0BN@HHAODJDD@_ForeignPureBuyAccumulation_@ ; `string'
PUBLIC	??_C@_0BO@MJBECKCF@_Person?5PureBuy?5Accumulation_@ ; `string'
PUBLIC	??_C@_0BB@LFJOBAIN@_Person?5PureBuy_@		; `string'
PUBLIC	??_C@_0BE@LNCNOHPK@_CreditBalanceRate_@		; `string'
PUBLIC	??_C@_0BD@JGMOOODK@_CreditGivingRate_@		; `string'
PUBLIC	??_C@_0BD@GGNHDKMC@_CreditBalanceQty_@		; `string'
PUBLIC	??_C@_0BJ@FMFMOPHM@_CreditBalanceVariation_@	; `string'
PUBLIC	??_C@_0BH@FJOFJJFH@_Foreign?$CLOrganPureBuy_@	; `string'
PUBLIC	??_C@_0CD@HDMDDIP@_Foreign?$CLOrganPureBuyAccumulati@ ; `string'
PUBLIC	??_C@_02DKCKIIND@?$CFs@				; `string'
PUBLIC	??_C@_04OCCELDNI@?$CF04d@			; `string'
PUBLIC	??_C@_04KFDECMLJ@1301@				; `string'
PUBLIC	??_C@_05OOAIAHCC@?$DP5500@			; `string'
PUBLIC	??_C@_0P@FLGGHACJ@99999999999999@		; `string'
PUBLIC	??_C@_04COEHKKFC@5324@				; `string'
PUBLIC	??_C@_05OGIKHPIO@?$CF8?48s@			; `string'
PUBLIC	??_C@_04OBKAGHLG@?$CF06d@			; `string'
PUBLIC	??_C@_04PEJMDNKC@?$CF0?$CKd@			; `string'
PUBLIC	??_C@_05JLGGNMKB@21301@				; `string'
PUBLIC	??_C@_06CABDLPJK@?$DP25500@			; `string'
PUBLIC	??_C@_05BABFFKEK@25324@				; `string'
PUBLIC	??_C@_04HLJJNJLK@5302@				; `string'
PUBLIC	??_C@_04FPDAOMFB@5512@				; `string'
PUBLIC	??_C@_04OHIMILDE@5412@				; `string'
PUBLIC	??_C@_05BNAGMOKB@35201@				; `string'
PUBLIC	??_C@_04GGAPJEEJ@5363@				; `string'
PUBLIC	??_C@_04GHMNPOHO@5373@				; `string'
PUBLIC	??_C@_04MMKBNIPH@5411@				; `string'
PUBLIC	??_C@_04HEBNLPJC@5511@				; `string'
PUBLIC	??_C@_04KEBNGOOM@5508@				; `string'
PUBLIC	??_C@_04BMKBAJIJ@5408@				; `string'
PUBLIC	??_C@_04MNGDLCMA@5401@				; `string'
PUBLIC	??_C@_04OGEOOBAD@5402@				; `string'
PUBLIC	??_C@_04PPFFNAEC@5403@				; `string'
PUBLIC	??_C@_04LABEEGIF@5404@				; `string'
PUBLIC	??_C@_04KJAPHHME@5405@				; `string'
PUBLIC	??_C@_04ICCCCEAH@5406@				; `string'
PUBLIC	??_C@_04JLDJBFEG@5407@				; `string'
PUBLIC	??_C@_04FLKDIMI@5409@				; `string'
PUBLIC	??_C@_04POJHLKHF@5413@				; `string'
PUBLIC	??_C@_04HFNPNFKF@5501@				; `string'
PUBLIC	??_C@_04FOPCIGGG@5502@				; `string'
PUBLIC	??_C@_04EHOJLHCH@5503@				; `string'
PUBLIC	??_C@_04IKICBOA@5504@				; `string'
PUBLIC	??_C@_04BBLDBAKB@5505@				; `string'
PUBLIC	??_C@_04DKJOEDGC@5506@				; `string'
PUBLIC	??_C@_04CDIFHCCD@5507@				; `string'
PUBLIC	??_C@_04LNAGFPKN@5509@				; `string'
PUBLIC	??_C@_04EGCLNNBA@5513@				; `string'
PUBLIC	??_C@_05EFMLCJKC@25302@				; `string'
PUBLIC	??_C@_05HCBFNJJA@25602@				; `string'
PUBLIC	??_C@_05GLAOOINB@25603@				; `string'
PUBLIC	??_C@_04GHGKHKEL@5601@				; `string'
PUBLIC	??_C@_04EMEHCJII@5602@				; `string'
PUBLIC	??_C@_04FFFMBIMJ@5603@				; `string'
PUBLIC	??_C@_04BKBNIOAO@5604@				; `string'
PUBLIC	??_C@_04LBNGCMLC@5414@				; `string'
PUBLIC	??_C@_04JGKELNH@5514@				; `string'
PUBLIC	??_C@_03MMKGDKGA@001@				; `string'
PUBLIC	??_C@_03GGKPPCOL@201@				; `string'
PUBLIC	??_C@_03HEBKFNAF@101@				; `string'
PUBLIC	??_C@_04DPENKPPD@9101@				; `string'
PUBLIC	??_C@_04CNPIAABN@9201@				; `string'
PUBLIC	??_C@_04JFEEGHHI@9301@				; `string'
PUBLIC	??_C@_06BJEALFB@105301@				; `string'
PUBLIC	??_C@_06EONFJNJG@105306@			; `string'
PUBLIC	??_C@_01BMBHCPLG@5@				; `string'
PUBLIC	??_C@_06MJENIBFJ@105309@			; `string'
PUBLIC	??_C@_07KLOBMMKO@$105610@			; `string'
PUBLIC	??_C@_06CKLJFIJC@105302@			; `string'
PUBLIC	??_C@_06NBJENKCP@105318@			; `string'
PUBLIC	??_C@_06MIIPOLGO@105319@			; `string'
PUBLIC	??_C@_06BJENFACH@105310@			; `string'
PUBLIC	??_7?$CList@PAVCChartBozoItem@@PAV1@@@6B@	; CList<CChartBozoItem *,CChartBozoItem *>::`vftable'
PUBLIC	??_C@_04EBNJJJJI@?$CF?4?$CKs@			; `string'
PUBLIC	??_C@_01ICJEACDI@?$DL@				; `string'
PUBLIC	??_C@_04ODOGNJOP@?$CF05d@			; `string'
PUBLIC	??_C@_0CC@NIHFHGCD@_Foreign?5Holding?5Rate___DateTim@ ; `string'
PUBLIC	??_C@_0BP@LBCFJFLL@_CreditBalanceRate___DateTime_@ ; `string'
PUBLIC	??_C@_0BO@ELDOFBCP@_CreditGivingRate___DateTime_@ ; `string'
PUBLIC	??_C@_02NJPGOMH@?$CFf@				; `string'
PUBLIC	??_C@_01GBGANLPD@0@				; `string'
PUBLIC	??_C@_01HIHLOKLC@1@				; `string'
PUBLIC	??_C@_01FDFGLJHB@2@				; `string'
PUBLIC	??_C@_04OHGLKFFN@?$CF03d@			; `string'
PUBLIC	??_C@_0BO@PCAEEPDH@?$CF?4?$CKs?38?3YYYYMMDD?$HM?$CF?4?$CKs?315?3x0?401@ ; `string'
PUBLIC	??_C@_0BL@OOBDJKFI@?$CF?4?$CKs?38?3YYYYMMDD?$HM?$CF?4?$CKs?315?3x1@ ; `string'
PUBLIC	??_C@_09ELPBAGKN@NEWPACKET@			; `string'
PUBLIC	??_C@_0DB@LIAKHBHP@?$CF?4?$CKs?38?3YYYYMMDD?$HM?$CF?4?$CKs?315?3x1?$HM?$CF?4?$CKs@ ; `string'
PUBLIC	??_C@_05GNFKCGLE@30301@				; `string'
PUBLIC	??_C@_06MBJFGIDG@103306@			; `string'
PUBLIC	??_C@_06FPBGEFLI@103308@			; `string'
PUBLIC	??_C@_07CEKBDJAO@$103610@			; `string'
PUBLIC	??_C@_06KFPJKNDC@103302@			; `string'
PUBLIC	??_C@_06DGGIJJJE@103201@			; `string'
PUBLIC	??_R4?$CList@PAVCChartBozoItem@@PAV1@@@6B@	; CList<CChartBozoItem *,CChartBozoItem *>::`RTTI Complete Object Locator'
PUBLIC	??_R0?AV?$CList@PAVCChartBozoItem@@PAV1@@@@8	; CList<CChartBozoItem *,CChartBozoItem *> `RTTI Type Descriptor'
PUBLIC	??_R3?$CList@PAVCChartBozoItem@@PAV1@@@8	; CList<CChartBozoItem *,CChartBozoItem *>::`RTTI Class Hierarchy Descriptor'
PUBLIC	??_R2?$CList@PAVCChartBozoItem@@PAV1@@@8	; CList<CChartBozoItem *,CChartBozoItem *>::`RTTI Base Class Array'
PUBLIC	??_R1A@?0A@EA@?$CList@PAVCChartBozoItem@@PAV1@@@8 ; CList<CChartBozoItem *,CChartBozoItem *>::`RTTI Base Class Descriptor at (0,-1,0,64)'
PUBLIC	??_R4CChartBozoInput@@6B@			; CChartBozoInput::`RTTI Complete Object Locator'
PUBLIC	??_R0?AVCChartBozoInput@@@8			; CChartBozoInput `RTTI Type Descriptor'
PUBLIC	??_R3CChartBozoInput@@8				; CChartBozoInput::`RTTI Class Hierarchy Descriptor'
PUBLIC	??_R2CChartBozoInput@@8				; CChartBozoInput::`RTTI Base Class Array'
PUBLIC	??_R1A@?0A@EA@CChartBozoInput@@8		; CChartBozoInput::`RTTI Base Class Descriptor at (0,-1,0,64)'
PUBLIC	??_R4CChartItemMarket@@6B@			; CChartItemMarket::`RTTI Complete Object Locator'
PUBLIC	??_R0?AVCChartItemMarket@@@8			; CChartItemMarket `RTTI Type Descriptor'
PUBLIC	??_R3CChartItemMarket@@8			; CChartItemMarket::`RTTI Class Hierarchy Descriptor'
PUBLIC	??_R2CChartItemMarket@@8			; CChartItemMarket::`RTTI Base Class Array'
PUBLIC	??_R1A@?0A@EA@CChartItemMarket@@8		; CChartItemMarket::`RTTI Base Class Descriptor at (0,-1,0,64)'
PUBLIC	__real@4059000000000000
PUBLIC	__xmm@20202020202020202020202020202020
EXTRN	??2@YAPAXI@Z:PROC				; operator new
EXTRN	??3@YAXPAX@Z:PROC				; operator delete
EXTRN	??3@YAXPAXI@Z:PROC				; operator delete
EXTRN	?__global_delete@@YAXPAXI@Z:PROC		; __global_delete
EXTRN	??_U@YAPAXI@Z:PROC				; operator new[]
EXTRN	___std_terminate:PROC
EXTRN	__imp__RegisterWindowMessageA@4:PROC
EXTRN	__imp____stdio_common_vsprintf:PROC
EXTRN	__imp__atoi:PROC
EXTRN	?AfxThrowInvalidArgException@@YGXXZ:PROC	; AfxThrowInvalidArgException
EXTRN	?AfxThrowArchiveException@@YGXHPBD@Z:PROC	; AfxThrowArchiveException
EXTRN	?GetRuntimeClass@CObject@@UBEPAUCRuntimeClass@@XZ:PROC ; CObject::GetRuntimeClass
EXTRN	__imp_?Concatenate@?$CSimpleStringT@D$00@ATL@@KAXAAV12@PBDH1H@Z:PROC
EXTRN	__imp_??0?$CStringT@DV?$StrTraitMFC_DLL@DV?$ChTraitsCRT@D@ATL@@@@@ATL@@QAE@XZ:PROC
EXTRN	__imp_??0?$CStringT@DV?$StrTraitMFC_DLL@DV?$ChTraitsCRT@D@ATL@@@@@ATL@@QAE@PAUIAtlStringMgr@1@@Z:PROC
EXTRN	__imp_??0?$CStringT@DV?$StrTraitMFC_DLL@DV?$ChTraitsCRT@D@ATL@@@@@ATL@@QAE@ABV01@@Z:PROC
EXTRN	__imp_??0?$CStringT@DV?$StrTraitMFC_DLL@DV?$ChTraitsCRT@D@ATL@@@@@ATL@@QAE@PBD@Z:PROC
EXTRN	__imp_??0?$CStringT@DV?$StrTraitMFC_DLL@DV?$ChTraitsCRT@D@ATL@@@@@ATL@@QAE@DH@Z:PROC
EXTRN	__imp_??0?$CStringT@DV?$StrTraitMFC_DLL@DV?$ChTraitsCRT@D@ATL@@@@@ATL@@QAE@PBDH@Z:PROC
EXTRN	__imp_??1?$CStringT@DV?$StrTraitMFC_DLL@DV?$ChTraitsCRT@D@ATL@@@@@ATL@@QAE@XZ:PROC
EXTRN	__imp_??4?$CStringT@DV?$StrTraitMFC_DLL@DV?$ChTraitsCRT@D@ATL@@@@@ATL@@QAEAAV01@ABV01@@Z:PROC
EXTRN	__imp_??4?$CStringT@DV?$StrTraitMFC_DLL@DV?$ChTraitsCRT@D@ATL@@@@@ATL@@QAEAAV01@PBD@Z:PROC
EXTRN	__imp_??4?$CStringT@DV?$StrTraitMFC_DLL@DV?$ChTraitsCRT@D@ATL@@@@@ATL@@QAEAAV01@D@Z:PROC
EXTRN	__imp_??Y?$CStringT@DV?$StrTraitMFC_DLL@DV?$ChTraitsCRT@D@ATL@@@@@ATL@@QAEAAV01@ABV?$CSimpleStringT@D$00@1@@Z:PROC
EXTRN	__imp_??Y?$CStringT@DV?$StrTraitMFC_DLL@DV?$ChTraitsCRT@D@ATL@@@@@ATL@@QAEAAV01@PBD@Z:PROC
EXTRN	__imp_??Y?$CStringT@DV?$StrTraitMFC_DLL@DV?$ChTraitsCRT@D@ATL@@@@@ATL@@QAEAAV01@D@Z:PROC
EXTRN	__imp_?GetManager@?$CStringT@DV?$StrTraitMFC_DLL@DV?$ChTraitsCRT@D@ATL@@@@@ATL@@QBEPAUIAtlStringMgr@2@XZ:PROC
EXTRN	__imp_?Compare@?$CStringT@DV?$StrTraitMFC_DLL@DV?$ChTraitsCRT@D@ATL@@@@@ATL@@QBEHPBD@Z:PROC
EXTRN	__imp_?Find@?$CStringT@DV?$StrTraitMFC_DLL@DV?$ChTraitsCRT@D@ATL@@@@@ATL@@QBEHPBDH@Z:PROC
EXTRN	__imp_?TrimRight@?$CStringT@DV?$StrTraitMFC_DLL@DV?$ChTraitsCRT@D@ATL@@@@@ATL@@QAEAAV12@XZ:PROC
EXTRN	__imp_?TrimLeft@?$CStringT@DV?$StrTraitMFC_DLL@DV?$ChTraitsCRT@D@ATL@@@@@ATL@@QAEAAV12@XZ:PROC
EXTRN	__imp_?Mid@?$CStringT@DV?$StrTraitMFC_DLL@DV?$ChTraitsCRT@D@ATL@@@@@ATL@@QBE?AV12@H@Z:PROC
EXTRN	__imp_?Left@?$CStringT@DV?$StrTraitMFC_DLL@DV?$ChTraitsCRT@D@ATL@@@@@ATL@@QBE?AV12@H@Z:PROC
EXTRN	__imp_?Format@?$CStringT@DV?$StrTraitMFC_DLL@DV?$ChTraitsCRT@D@ATL@@@@@ATL@@QAAXPBDZZ:PROC
EXTRN	?Read@CArchive@@QAEIPAXI@Z:PROC			; CArchive::Read
EXTRN	?Write@CArchive@@QAEXPBXI@Z:PROC		; CArchive::Write
EXTRN	?ReadCount@CArchive@@QAEKXZ:PROC		; CArchive::ReadCount
EXTRN	?WriteCount@CArchive@@QAEXK@Z:PROC		; CArchive::WriteCount
EXTRN	??0CStringArray@@QAE@XZ:PROC			; CStringArray::CStringArray
EXTRN	?SetAtGrow@CStringArray@@QAEXHABV?$CStringT@DV?$StrTraitMFC_DLL@DV?$ChTraitsCRT@D@ATL@@@@@ATL@@@Z:PROC ; CStringArray::SetAtGrow
EXTRN	??1CStringArray@@UAE@XZ:PROC			; CStringArray::~CStringArray
EXTRN	?Create@CPlex@@SGPAU1@AAPAU1@II@Z:PROC		; CPlex::Create
EXTRN	?FreeDataChain@CPlex@@QAEXXZ:PROC		; CPlex::FreeDataChain
EXTRN	??_ECChartItemMarket@@UAEPAXI@Z:PROC		; CChartItemMarket::`vector deleting destructor'
EXTRN	?Parser@CDataConverter@@SA?AV?$CStringT@DV?$StrTraitMFC_DLL@DV?$ChTraitsCRT@D@ATL@@@@@ATL@@AAV23@V23@@Z:PROC ; CDataConverter::Parser
EXTRN	?Char2String@CDataConverter@@SA?AV?$CStringT@DV?$StrTraitMFC_DLL@DV?$ChTraitsCRT@D@ATL@@@@@ATL@@PADH@Z:PROC ; CDataConverter::Char2String
EXTRN	?Char2Int@CDataConverter@@SAHPADH@Z:PROC	; CDataConverter::Char2Int
EXTRN	?GetChartBozoMsg@CChartBozoManager@@UAGHPBDPAVCChartBozoInput@@AAV?$CStringT@DV?$StrTraitMFC_DLL@DV?$ChTraitsCRT@D@ATL@@@@@ATL@@H@Z:PROC ; CChartBozoManager::GetChartBozoMsg
EXTRN	?ChangeChartBozoMsg@CChartBozoManager@@UAGHAAV?$CStringT@DV?$StrTraitMFC_DLL@DV?$ChTraitsCRT@D@ATL@@@@@ATL@@PAV?$CList@PAVCChartBozoItem@@PAV1@@@@Z:PROC ; CChartBozoManager::ChangeChartBozoMsg
EXTRN	??0CChartBozoManager@@QAE@XZ:PROC		; CChartBozoManager::CChartBozoManager
EXTRN	??_E?$CList@PAVCChartBozoItem@@PAV1@@@UAEPAXI@Z:PROC ; CList<CChartBozoItem *,CChartBozoItem *>::`vector deleting destructor'
EXTRN	@__security_check_cookie@4:PROC
EXTRN	___CxxFrameHandler3:PROC
EXTRN	_memcpy:PROC
EXTRN	_memset:PROC
EXTRN	??_7type_info@@6B@:QWORD			; type_info::`vftable'
EXTRN	___security_cookie:DWORD
EXTRN	__fltused:DWORD
;	COMDAT ?_OptionsStorage@?1??__local_stdio_printf_options@@9@4_KA
_BSS	SEGMENT
?_OptionsStorage@?1??__local_stdio_printf_options@@9@4_KA DQ 01H DUP (?) ; `__local_stdio_printf_options'::`2'::_OptionsStorage
_BSS	ENDS
_BSS	SEGMENT
?RMSG_INTERFACE@@3IB DD 01H DUP (?)			; RMSG_INTERFACE
?RMSG_GETPCTRDATA@@3IB DD 01H DUP (?)			; RMSG_GETPCTRDATA
?RMSG_SETPCTRDATA@@3IB DD 01H DUP (?)			; RMSG_SETPCTRDATA
?RMSG_GETSIGNAL_REAL@@3IB DD 01H DUP (?)		; RMSG_GETSIGNAL_REAL
_BSS	ENDS
CRT$XCU	SEGMENT
?RMSG_INTERFACE$initializer$@@3P6AXXZA DD FLAT:??__ERMSG_INTERFACE@@YAXXZ ; RMSG_INTERFACE$initializer$
CRT$XCU	ENDS
;	COMDAT __xmm@20202020202020202020202020202020
CONST	SEGMENT
__xmm@20202020202020202020202020202020 DB '                '
CONST	ENDS
;	COMDAT __real@4059000000000000
CONST	SEGMENT
__real@4059000000000000 DQ 04059000000000000r	; 100
CONST	ENDS
;	COMDAT ??_R1A@?0A@EA@CChartItemMarket@@8
rdata$r	SEGMENT
??_R1A@?0A@EA@CChartItemMarket@@8 DD FLAT:??_R0?AVCChartItemMarket@@@8 ; CChartItemMarket::`RTTI Base Class Descriptor at (0,-1,0,64)'
	DD	00H
	DD	00H
	DD	0ffffffffH
	DD	00H
	DD	040H
	DD	FLAT:??_R3CChartItemMarket@@8
rdata$r	ENDS
;	COMDAT ??_R2CChartItemMarket@@8
rdata$r	SEGMENT
??_R2CChartItemMarket@@8 DD FLAT:??_R1A@?0A@EA@CChartItemMarket@@8 ; CChartItemMarket::`RTTI Base Class Array'
rdata$r	ENDS
;	COMDAT ??_R3CChartItemMarket@@8
rdata$r	SEGMENT
??_R3CChartItemMarket@@8 DD 00H				; CChartItemMarket::`RTTI Class Hierarchy Descriptor'
	DD	00H
	DD	01H
	DD	FLAT:??_R2CChartItemMarket@@8
rdata$r	ENDS
;	COMDAT ??_R0?AVCChartItemMarket@@@8
data$rs	SEGMENT
??_R0?AVCChartItemMarket@@@8 DD FLAT:??_7type_info@@6B@	; CChartItemMarket `RTTI Type Descriptor'
	DD	00H
	DB	'.?AVCChartItemMarket@@', 00H
data$rs	ENDS
;	COMDAT ??_R4CChartItemMarket@@6B@
rdata$r	SEGMENT
??_R4CChartItemMarket@@6B@ DD 00H			; CChartItemMarket::`RTTI Complete Object Locator'
	DD	00H
	DD	00H
	DD	FLAT:??_R0?AVCChartItemMarket@@@8
	DD	FLAT:??_R3CChartItemMarket@@8
rdata$r	ENDS
;	COMDAT ??_R1A@?0A@EA@CChartBozoInput@@8
rdata$r	SEGMENT
??_R1A@?0A@EA@CChartBozoInput@@8 DD FLAT:??_R0?AVCChartBozoInput@@@8 ; CChartBozoInput::`RTTI Base Class Descriptor at (0,-1,0,64)'
	DD	00H
	DD	00H
	DD	0ffffffffH
	DD	00H
	DD	040H
	DD	FLAT:??_R3CChartBozoInput@@8
rdata$r	ENDS
;	COMDAT ??_R2CChartBozoInput@@8
rdata$r	SEGMENT
??_R2CChartBozoInput@@8 DD FLAT:??_R1A@?0A@EA@CChartBozoInput@@8 ; CChartBozoInput::`RTTI Base Class Array'
rdata$r	ENDS
;	COMDAT ??_R3CChartBozoInput@@8
rdata$r	SEGMENT
??_R3CChartBozoInput@@8 DD 00H				; CChartBozoInput::`RTTI Class Hierarchy Descriptor'
	DD	00H
	DD	01H
	DD	FLAT:??_R2CChartBozoInput@@8
rdata$r	ENDS
;	COMDAT ??_R0?AVCChartBozoInput@@@8
data$rs	SEGMENT
??_R0?AVCChartBozoInput@@@8 DD FLAT:??_7type_info@@6B@	; CChartBozoInput `RTTI Type Descriptor'
	DD	00H
	DB	'.?AVCChartBozoInput@@', 00H
data$rs	ENDS
;	COMDAT ??_R4CChartBozoInput@@6B@
rdata$r	SEGMENT
??_R4CChartBozoInput@@6B@ DD 00H			; CChartBozoInput::`RTTI Complete Object Locator'
	DD	00H
	DD	00H
	DD	FLAT:??_R0?AVCChartBozoInput@@@8
	DD	FLAT:??_R3CChartBozoInput@@8
rdata$r	ENDS
;	COMDAT ??_R1A@?0A@EA@?$CList@PAVCChartBozoItem@@PAV1@@@8
rdata$r	SEGMENT
??_R1A@?0A@EA@?$CList@PAVCChartBozoItem@@PAV1@@@8 DD FLAT:??_R0?AV?$CList@PAVCChartBozoItem@@PAV1@@@@8 ; CList<CChartBozoItem *,CChartBozoItem *>::`RTTI Base Class Descriptor at (0,-1,0,64)'
	DD	01H
	DD	00H
	DD	0ffffffffH
	DD	00H
	DD	040H
	DD	FLAT:??_R3?$CList@PAVCChartBozoItem@@PAV1@@@8
rdata$r	ENDS
;	COMDAT ??_R2?$CList@PAVCChartBozoItem@@PAV1@@@8
rdata$r	SEGMENT
??_R2?$CList@PAVCChartBozoItem@@PAV1@@@8 DD FLAT:??_R1A@?0A@EA@?$CList@PAVCChartBozoItem@@PAV1@@@8 ; CList<CChartBozoItem *,CChartBozoItem *>::`RTTI Base Class Array'
	DD	FLAT:??_R1A@?0A@EA@CObject@@8
rdata$r	ENDS
;	COMDAT ??_R3?$CList@PAVCChartBozoItem@@PAV1@@@8
rdata$r	SEGMENT
??_R3?$CList@PAVCChartBozoItem@@PAV1@@@8 DD 00H		; CList<CChartBozoItem *,CChartBozoItem *>::`RTTI Class Hierarchy Descriptor'
	DD	00H
	DD	02H
	DD	FLAT:??_R2?$CList@PAVCChartBozoItem@@PAV1@@@8
rdata$r	ENDS
;	COMDAT ??_R0?AV?$CList@PAVCChartBozoItem@@PAV1@@@@8
data$rs	SEGMENT
??_R0?AV?$CList@PAVCChartBozoItem@@PAV1@@@@8 DD FLAT:??_7type_info@@6B@ ; CList<CChartBozoItem *,CChartBozoItem *> `RTTI Type Descriptor'
	DD	00H
	DB	'.?AV?$CList@PAVCChartBozoItem@@PAV1@@@', 00H
data$rs	ENDS
;	COMDAT ??_R4?$CList@PAVCChartBozoItem@@PAV1@@@6B@
rdata$r	SEGMENT
??_R4?$CList@PAVCChartBozoItem@@PAV1@@@6B@ DD 00H	; CList<CChartBozoItem *,CChartBozoItem *>::`RTTI Complete Object Locator'
	DD	00H
	DD	00H
	DD	FLAT:??_R0?AV?$CList@PAVCChartBozoItem@@PAV1@@@@8
	DD	FLAT:??_R3?$CList@PAVCChartBozoItem@@PAV1@@@8
rdata$r	ENDS
;	COMDAT ??_C@_06DGGIJJJE@103201@
CONST	SEGMENT
??_C@_06DGGIJJJE@103201@ DB '103201', 00H		; `string'
CONST	ENDS
;	COMDAT ??_C@_06KFPJKNDC@103302@
CONST	SEGMENT
??_C@_06KFPJKNDC@103302@ DB '103302', 00H		; `string'
CONST	ENDS
;	COMDAT ??_C@_07CEKBDJAO@$103610@
CONST	SEGMENT
??_C@_07CEKBDJAO@$103610@ DB '$103610', 00H		; `string'
CONST	ENDS
;	COMDAT ??_C@_06FPBGEFLI@103308@
CONST	SEGMENT
??_C@_06FPBGEFLI@103308@ DB '103308', 00H		; `string'
CONST	ENDS
;	COMDAT ??_C@_06MBJFGIDG@103306@
CONST	SEGMENT
??_C@_06MBJFGIDG@103306@ DB '103306', 00H		; `string'
CONST	ENDS
;	COMDAT ??_C@_05GNFKCGLE@30301@
CONST	SEGMENT
??_C@_05GNFKCGLE@30301@ DB '30301', 00H			; `string'
CONST	ENDS
;	COMDAT ??_C@_0DB@LIAKHBHP@?$CF?4?$CKs?38?3YYYYMMDD?$HM?$CF?4?$CKs?315?3x1?$HM?$CF?4?$CKs@
CONST	SEGMENT
??_C@_0DB@LIAKHBHP@?$CF?4?$CKs?38?3YYYYMMDD?$HM?$CF?4?$CKs?315?3x1?$HM?$CF?4?$CKs@ DB '%'
	DB	'.*s:8:YYYYMMDD|%.*s:15:x1|%.*s:15:x1|%.*s:15:x1', 00H ; `string'
CONST	ENDS
;	COMDAT ??_C@_09ELPBAGKN@NEWPACKET@
CONST	SEGMENT
??_C@_09ELPBAGKN@NEWPACKET@ DB 'NEWPACKET', 00H		; `string'
CONST	ENDS
;	COMDAT ??_C@_0BL@OOBDJKFI@?$CF?4?$CKs?38?3YYYYMMDD?$HM?$CF?4?$CKs?315?3x1@
CONST	SEGMENT
??_C@_0BL@OOBDJKFI@?$CF?4?$CKs?38?3YYYYMMDD?$HM?$CF?4?$CKs?315?3x1@ DB '%'
	DB	'.*s:8:YYYYMMDD|%.*s:15:x1', 00H		; `string'
CONST	ENDS
;	COMDAT ??_C@_0BO@PCAEEPDH@?$CF?4?$CKs?38?3YYYYMMDD?$HM?$CF?4?$CKs?315?3x0?401@
CONST	SEGMENT
??_C@_0BO@PCAEEPDH@?$CF?4?$CKs?38?3YYYYMMDD?$HM?$CF?4?$CKs?315?3x0?401@ DB '%'
	DB	'.*s:8:YYYYMMDD|%.*s:15:x0.01', 00H		; `string'
CONST	ENDS
;	COMDAT ??_C@_04OHGLKFFN@?$CF03d@
CONST	SEGMENT
??_C@_04OHGLKFFN@?$CF03d@ DB '%03d', 00H		; `string'
CONST	ENDS
;	COMDAT ??_C@_01FDFGLJHB@2@
CONST	SEGMENT
??_C@_01FDFGLJHB@2@ DB '2', 00H				; `string'
CONST	ENDS
;	COMDAT ??_C@_01HIHLOKLC@1@
CONST	SEGMENT
??_C@_01HIHLOKLC@1@ DB '1', 00H				; `string'
CONST	ENDS
;	COMDAT ??_C@_01GBGANLPD@0@
CONST	SEGMENT
??_C@_01GBGANLPD@0@ DB '0', 00H				; `string'
CONST	ENDS
;	COMDAT ??_C@_02NJPGOMH@?$CFf@
CONST	SEGMENT
??_C@_02NJPGOMH@?$CFf@ DB '%f', 00H			; `string'
CONST	ENDS
;	COMDAT ??_C@_0BO@ELDOFBCP@_CreditGivingRate___DateTime_@
CONST	SEGMENT
??_C@_0BO@ELDOFBCP@_CreditGivingRate___DateTime_@ DB '_CreditGivingRate__'
	DB	'_DateTime_', 00H				; `string'
CONST	ENDS
;	COMDAT ??_C@_0BP@LBCFJFLL@_CreditBalanceRate___DateTime_@
CONST	SEGMENT
??_C@_0BP@LBCFJFLL@_CreditBalanceRate___DateTime_@ DB '_CreditBalanceRate'
	DB	'___DateTime_', 00H				; `string'
CONST	ENDS
;	COMDAT ??_C@_0CC@NIHFHGCD@_Foreign?5Holding?5Rate___DateTim@
CONST	SEGMENT
??_C@_0CC@NIHFHGCD@_Foreign?5Holding?5Rate___DateTim@ DB '_Foreign Holdin'
	DB	'g Rate___DateTime_', 00H			; `string'
CONST	ENDS
;	COMDAT ??_C@_04ODOGNJOP@?$CF05d@
CONST	SEGMENT
??_C@_04ODOGNJOP@?$CF05d@ DB '%05d', 00H		; `string'
CONST	ENDS
;	COMDAT ??_C@_01ICJEACDI@?$DL@
CONST	SEGMENT
??_C@_01ICJEACDI@?$DL@ DB ';', 00H			; `string'
CONST	ENDS
;	COMDAT ??_C@_04EBNJJJJI@?$CF?4?$CKs@
CONST	SEGMENT
??_C@_04EBNJJJJI@?$CF?4?$CKs@ DB '%.*s', 00H		; `string'
CONST	ENDS
;	COMDAT ??_7?$CList@PAVCChartBozoItem@@PAV1@@@6B@
CONST	SEGMENT
??_7?$CList@PAVCChartBozoItem@@PAV1@@@6B@ DD FLAT:??_R4?$CList@PAVCChartBozoItem@@PAV1@@@6B@ ; CList<CChartBozoItem *,CChartBozoItem *>::`vftable'
	DD	FLAT:?GetRuntimeClass@CObject@@UBEPAUCRuntimeClass@@XZ
	DD	FLAT:??_E?$CList@PAVCChartBozoItem@@PAV1@@@UAEPAXI@Z
	DD	FLAT:?Serialize@?$CList@PAVCChartBozoItem@@PAV1@@@UAEXAAVCArchive@@@Z
	DD	FLAT:?AssertValid@CObject@@UBEXXZ
	DD	FLAT:?Dump@CObject@@UBEXAAVCDumpContext@@@Z
CONST	ENDS
;	COMDAT ??_C@_06BJENFACH@105310@
CONST	SEGMENT
??_C@_06BJENFACH@105310@ DB '105310', 00H		; `string'
CONST	ENDS
;	COMDAT ??_C@_06MIIPOLGO@105319@
CONST	SEGMENT
??_C@_06MIIPOLGO@105319@ DB '105319', 00H		; `string'
CONST	ENDS
;	COMDAT ??_C@_06NBJENKCP@105318@
CONST	SEGMENT
??_C@_06NBJENKCP@105318@ DB '105318', 00H		; `string'
CONST	ENDS
;	COMDAT ??_C@_06CKLJFIJC@105302@
CONST	SEGMENT
??_C@_06CKLJFIJC@105302@ DB '105302', 00H		; `string'
CONST	ENDS
;	COMDAT ??_C@_07KLOBMMKO@$105610@
CONST	SEGMENT
??_C@_07KLOBMMKO@$105610@ DB '$105610', 00H		; `string'
CONST	ENDS
;	COMDAT ??_C@_06MJENIBFJ@105309@
CONST	SEGMENT
??_C@_06MJENIBFJ@105309@ DB '105309', 00H		; `string'
CONST	ENDS
;	COMDAT ??_C@_01BMBHCPLG@5@
CONST	SEGMENT
??_C@_01BMBHCPLG@5@ DB '5', 00H				; `string'
CONST	ENDS
;	COMDAT ??_C@_06EONFJNJG@105306@
CONST	SEGMENT
??_C@_06EONFJNJG@105306@ DB '105306', 00H		; `string'
CONST	ENDS
;	COMDAT ??_C@_06BJEALFB@105301@
CONST	SEGMENT
??_C@_06BJEALFB@105301@ DB '105301', 00H		; `string'
CONST	ENDS
;	COMDAT ??_C@_04JFEEGHHI@9301@
CONST	SEGMENT
??_C@_04JFEEGHHI@9301@ DB '9301', 00H			; `string'
CONST	ENDS
;	COMDAT ??_C@_04CNPIAABN@9201@
CONST	SEGMENT
??_C@_04CNPIAABN@9201@ DB '9201', 00H			; `string'
CONST	ENDS
;	COMDAT ??_C@_04DPENKPPD@9101@
CONST	SEGMENT
??_C@_04DPENKPPD@9101@ DB '9101', 00H			; `string'
CONST	ENDS
;	COMDAT ??_C@_03HEBKFNAF@101@
CONST	SEGMENT
??_C@_03HEBKFNAF@101@ DB '101', 00H			; `string'
CONST	ENDS
;	COMDAT ??_C@_03GGKPPCOL@201@
CONST	SEGMENT
??_C@_03GGKPPCOL@201@ DB '201', 00H			; `string'
CONST	ENDS
;	COMDAT ??_C@_03MMKGDKGA@001@
CONST	SEGMENT
??_C@_03MMKGDKGA@001@ DB '001', 00H			; `string'
CONST	ENDS
;	COMDAT ??_C@_04JGKELNH@5514@
CONST	SEGMENT
??_C@_04JGKELNH@5514@ DB '5514', 00H			; `string'
CONST	ENDS
;	COMDAT ??_C@_04LBNGCMLC@5414@
CONST	SEGMENT
??_C@_04LBNGCMLC@5414@ DB '5414', 00H			; `string'
CONST	ENDS
;	COMDAT ??_C@_04BKBNIOAO@5604@
CONST	SEGMENT
??_C@_04BKBNIOAO@5604@ DB '5604', 00H			; `string'
CONST	ENDS
;	COMDAT ??_C@_04FFFMBIMJ@5603@
CONST	SEGMENT
??_C@_04FFFMBIMJ@5603@ DB '5603', 00H			; `string'
CONST	ENDS
;	COMDAT ??_C@_04EMEHCJII@5602@
CONST	SEGMENT
??_C@_04EMEHCJII@5602@ DB '5602', 00H			; `string'
CONST	ENDS
;	COMDAT ??_C@_04GHGKHKEL@5601@
CONST	SEGMENT
??_C@_04GHGKHKEL@5601@ DB '5601', 00H			; `string'
CONST	ENDS
;	COMDAT ??_C@_05GLAOOINB@25603@
CONST	SEGMENT
??_C@_05GLAOOINB@25603@ DB '25603', 00H			; `string'
CONST	ENDS
;	COMDAT ??_C@_05HCBFNJJA@25602@
CONST	SEGMENT
??_C@_05HCBFNJJA@25602@ DB '25602', 00H			; `string'
CONST	ENDS
;	COMDAT ??_C@_05EFMLCJKC@25302@
CONST	SEGMENT
??_C@_05EFMLCJKC@25302@ DB '25302', 00H			; `string'
CONST	ENDS
;	COMDAT ??_C@_04EGCLNNBA@5513@
CONST	SEGMENT
??_C@_04EGCLNNBA@5513@ DB '5513', 00H			; `string'
CONST	ENDS
;	COMDAT ??_C@_04LNAGFPKN@5509@
CONST	SEGMENT
??_C@_04LNAGFPKN@5509@ DB '5509', 00H			; `string'
CONST	ENDS
;	COMDAT ??_C@_04CDIFHCCD@5507@
CONST	SEGMENT
??_C@_04CDIFHCCD@5507@ DB '5507', 00H			; `string'
CONST	ENDS
;	COMDAT ??_C@_04DKJOEDGC@5506@
CONST	SEGMENT
??_C@_04DKJOEDGC@5506@ DB '5506', 00H			; `string'
CONST	ENDS
;	COMDAT ??_C@_04BBLDBAKB@5505@
CONST	SEGMENT
??_C@_04BBLDBAKB@5505@ DB '5505', 00H			; `string'
CONST	ENDS
;	COMDAT ??_C@_04IKICBOA@5504@
CONST	SEGMENT
??_C@_04IKICBOA@5504@ DB '5504', 00H			; `string'
CONST	ENDS
;	COMDAT ??_C@_04EHOJLHCH@5503@
CONST	SEGMENT
??_C@_04EHOJLHCH@5503@ DB '5503', 00H			; `string'
CONST	ENDS
;	COMDAT ??_C@_04FOPCIGGG@5502@
CONST	SEGMENT
??_C@_04FOPCIGGG@5502@ DB '5502', 00H			; `string'
CONST	ENDS
;	COMDAT ??_C@_04HFNPNFKF@5501@
CONST	SEGMENT
??_C@_04HFNPNFKF@5501@ DB '5501', 00H			; `string'
CONST	ENDS
;	COMDAT ??_C@_04POJHLKHF@5413@
CONST	SEGMENT
??_C@_04POJHLKHF@5413@ DB '5413', 00H			; `string'
CONST	ENDS
;	COMDAT ??_C@_04FLKDIMI@5409@
CONST	SEGMENT
??_C@_04FLKDIMI@5409@ DB '5409', 00H			; `string'
CONST	ENDS
;	COMDAT ??_C@_04JLDJBFEG@5407@
CONST	SEGMENT
??_C@_04JLDJBFEG@5407@ DB '5407', 00H			; `string'
CONST	ENDS
;	COMDAT ??_C@_04ICCCCEAH@5406@
CONST	SEGMENT
??_C@_04ICCCCEAH@5406@ DB '5406', 00H			; `string'
CONST	ENDS
;	COMDAT ??_C@_04KJAPHHME@5405@
CONST	SEGMENT
??_C@_04KJAPHHME@5405@ DB '5405', 00H			; `string'
CONST	ENDS
;	COMDAT ??_C@_04LABEEGIF@5404@
CONST	SEGMENT
??_C@_04LABEEGIF@5404@ DB '5404', 00H			; `string'
CONST	ENDS
;	COMDAT ??_C@_04PPFFNAEC@5403@
CONST	SEGMENT
??_C@_04PPFFNAEC@5403@ DB '5403', 00H			; `string'
CONST	ENDS
;	COMDAT ??_C@_04OGEOOBAD@5402@
CONST	SEGMENT
??_C@_04OGEOOBAD@5402@ DB '5402', 00H			; `string'
CONST	ENDS
;	COMDAT ??_C@_04MNGDLCMA@5401@
CONST	SEGMENT
??_C@_04MNGDLCMA@5401@ DB '5401', 00H			; `string'
CONST	ENDS
;	COMDAT ??_C@_04BMKBAJIJ@5408@
CONST	SEGMENT
??_C@_04BMKBAJIJ@5408@ DB '5408', 00H			; `string'
CONST	ENDS
;	COMDAT ??_C@_04KEBNGOOM@5508@
CONST	SEGMENT
??_C@_04KEBNGOOM@5508@ DB '5508', 00H			; `string'
CONST	ENDS
;	COMDAT ??_C@_04HEBNLPJC@5511@
CONST	SEGMENT
??_C@_04HEBNLPJC@5511@ DB '5511', 00H			; `string'
CONST	ENDS
;	COMDAT ??_C@_04MMKBNIPH@5411@
CONST	SEGMENT
??_C@_04MMKBNIPH@5411@ DB '5411', 00H			; `string'
CONST	ENDS
;	COMDAT ??_C@_04GHMNPOHO@5373@
CONST	SEGMENT
??_C@_04GHMNPOHO@5373@ DB '5373', 00H			; `string'
CONST	ENDS
;	COMDAT ??_C@_04GGAPJEEJ@5363@
CONST	SEGMENT
??_C@_04GGAPJEEJ@5363@ DB '5363', 00H			; `string'
CONST	ENDS
;	COMDAT ??_C@_05BNAGMOKB@35201@
CONST	SEGMENT
??_C@_05BNAGMOKB@35201@ DB '35201', 00H			; `string'
CONST	ENDS
;	COMDAT ??_C@_04OHIMILDE@5412@
CONST	SEGMENT
??_C@_04OHIMILDE@5412@ DB '5412', 00H			; `string'
CONST	ENDS
;	COMDAT ??_C@_04FPDAOMFB@5512@
CONST	SEGMENT
??_C@_04FPDAOMFB@5512@ DB '5512', 00H			; `string'
CONST	ENDS
;	COMDAT ??_C@_04HLJJNJLK@5302@
CONST	SEGMENT
??_C@_04HLJJNJLK@5302@ DB '5302', 00H			; `string'
CONST	ENDS
;	COMDAT ??_C@_05BABFFKEK@25324@
CONST	SEGMENT
??_C@_05BABFFKEK@25324@ DB '25324', 00H			; `string'
CONST	ENDS
;	COMDAT ??_C@_06CABDLPJK@?$DP25500@
CONST	SEGMENT
??_C@_06CABDLPJK@?$DP25500@ DB '?25500', 00H		; `string'
CONST	ENDS
;	COMDAT ??_C@_05JLGGNMKB@21301@
CONST	SEGMENT
??_C@_05JLGGNMKB@21301@ DB '21301', 00H			; `string'
CONST	ENDS
;	COMDAT ??_C@_04PEJMDNKC@?$CF0?$CKd@
CONST	SEGMENT
??_C@_04PEJMDNKC@?$CF0?$CKd@ DB '%0*d', 00H		; `string'
CONST	ENDS
;	COMDAT ??_C@_04OBKAGHLG@?$CF06d@
CONST	SEGMENT
??_C@_04OBKAGHLG@?$CF06d@ DB '%06d', 00H		; `string'
CONST	ENDS
;	COMDAT ??_C@_05OGIKHPIO@?$CF8?48s@
CONST	SEGMENT
??_C@_05OGIKHPIO@?$CF8?48s@ DB '%8.8s', 00H		; `string'
CONST	ENDS
;	COMDAT ??_C@_04COEHKKFC@5324@
CONST	SEGMENT
??_C@_04COEHKKFC@5324@ DB '5324', 00H			; `string'
CONST	ENDS
;	COMDAT ??_C@_0P@FLGGHACJ@99999999999999@
CONST	SEGMENT
??_C@_0P@FLGGHACJ@99999999999999@ DB '99999999999999', 00H ; `string'
CONST	ENDS
;	COMDAT ??_C@_05OOAIAHCC@?$DP5500@
CONST	SEGMENT
??_C@_05OOAIAHCC@?$DP5500@ DB '?5500', 00H		; `string'
CONST	ENDS
;	COMDAT ??_C@_04KFDECMLJ@1301@
CONST	SEGMENT
??_C@_04KFDECMLJ@1301@ DB '1301', 00H			; `string'
CONST	ENDS
;	COMDAT ??_C@_04OCCELDNI@?$CF04d@
CONST	SEGMENT
??_C@_04OCCELDNI@?$CF04d@ DB '%04d', 00H		; `string'
CONST	ENDS
;	COMDAT ??_C@_02DKCKIIND@?$CFs@
CONST	SEGMENT
??_C@_02DKCKIIND@?$CFs@ DB '%s', 00H			; `string'
CONST	ENDS
;	COMDAT ??_C@_0CD@HDMDDIP@_Foreign?$CLOrganPureBuyAccumulati@
CONST	SEGMENT
??_C@_0CD@HDMDDIP@_Foreign?$CLOrganPureBuyAccumulati@ DB '_Foreign+OrganP'
	DB	'ureBuyAccumulation_', 00H			; `string'
CONST	ENDS
;	COMDAT ??_C@_0BH@FJOFJJFH@_Foreign?$CLOrganPureBuy_@
CONST	SEGMENT
??_C@_0BH@FJOFJJFH@_Foreign?$CLOrganPureBuy_@ DB '_Foreign+OrganPureBuy_', 00H ; `string'
CONST	ENDS
;	COMDAT ??_C@_0BJ@FMFMOPHM@_CreditBalanceVariation_@
CONST	SEGMENT
??_C@_0BJ@FMFMOPHM@_CreditBalanceVariation_@ DB '_CreditBalanceVariation_'
	DB	00H						; `string'
CONST	ENDS
;	COMDAT ??_C@_0BD@GGNHDKMC@_CreditBalanceQty_@
CONST	SEGMENT
??_C@_0BD@GGNHDKMC@_CreditBalanceQty_@ DB '_CreditBalanceQty_', 00H ; `string'
CONST	ENDS
;	COMDAT ??_C@_0BD@JGMOOODK@_CreditGivingRate_@
CONST	SEGMENT
??_C@_0BD@JGMOOODK@_CreditGivingRate_@ DB '_CreditGivingRate_', 00H ; `string'
CONST	ENDS
;	COMDAT ??_C@_0BE@LNCNOHPK@_CreditBalanceRate_@
CONST	SEGMENT
??_C@_0BE@LNCNOHPK@_CreditBalanceRate_@ DB '_CreditBalanceRate_', 00H ; `string'
CONST	ENDS
;	COMDAT ??_C@_0BB@LFJOBAIN@_Person?5PureBuy_@
CONST	SEGMENT
??_C@_0BB@LFJOBAIN@_Person?5PureBuy_@ DB '_Person PureBuy_', 00H ; `string'
CONST	ENDS
;	COMDAT ??_C@_0BO@MJBECKCF@_Person?5PureBuy?5Accumulation_@
CONST	SEGMENT
??_C@_0BO@MJBECKCF@_Person?5PureBuy?5Accumulation_@ DB '_Person PureBuy A'
	DB	'ccumulation_', 00H				; `string'
CONST	ENDS
;	COMDAT ??_C@_0BN@HHAODJDD@_ForeignPureBuyAccumulation_@
CONST	SEGMENT
??_C@_0BN@HHAODJDD@_ForeignPureBuyAccumulation_@ DB '_ForeignPureBuyAccum'
	DB	'ulation_', 00H				; `string'
CONST	ENDS
;	COMDAT ??_C@_0BD@CNJJJHHG@_Foreign?5Pure?5Buy_@
CONST	SEGMENT
??_C@_0BD@CNJJJHHG@_Foreign?5Pure?5Buy_@ DB '_Foreign Pure Buy_', 00H ; `string'
CONST	ENDS
;	COMDAT ??_C@_0BH@KNFHMKMA@_Foreign?5Holding?5Rate_@
CONST	SEGMENT
??_C@_0BH@KNFHMKMA@_Foreign?5Holding?5Rate_@ DB '_Foreign Holding Rate_', 00H ; `string'
CONST	ENDS
;	COMDAT ??_C@_0BC@FAJJAKC@_Foreign?5Holding_@
CONST	SEGMENT
??_C@_0BC@FAJJAKC@_Foreign?5Holding_@ DB '_Foreign Holding_', 00H ; `string'
CONST	ENDS
;	COMDAT ??_7CChartItemMarket@@6B@
CONST	SEGMENT
??_7CChartItemMarket@@6B@ DD FLAT:??_R4CChartItemMarket@@6B@ ; CChartItemMarket::`vftable'
	DD	FLAT:??_ECChartItemMarket@@UAEPAXI@Z
CONST	ENDS
;	COMDAT ??_7CChartBozoInput@@6B@
CONST	SEGMENT
??_7CChartBozoInput@@6B@ DD FLAT:??_R4CChartBozoInput@@6B@ ; CChartBozoInput::`vftable'
	DD	FLAT:?Copy@CChartBozoInput@@UAEXABV1@@Z
	DD	FLAT:??4CChartBozoInput@@UAEAAV0@ABV0@@Z
CONST	ENDS
;	COMDAT ??_R1A@?0A@EA@CObject@@8
rdata$r	SEGMENT
??_R1A@?0A@EA@CObject@@8 DD FLAT:??_R0?AVCObject@@@8	; CObject::`RTTI Base Class Descriptor at (0,-1,0,64)'
	DD	00H
	DD	00H
	DD	0ffffffffH
	DD	00H
	DD	040H
	DD	FLAT:??_R3CObject@@8
rdata$r	ENDS
;	COMDAT ??_R2CObject@@8
rdata$r	SEGMENT
??_R2CObject@@8 DD FLAT:??_R1A@?0A@EA@CObject@@8	; CObject::`RTTI Base Class Array'
rdata$r	ENDS
;	COMDAT ??_R3CObject@@8
rdata$r	SEGMENT
??_R3CObject@@8 DD 00H					; CObject::`RTTI Class Hierarchy Descriptor'
	DD	00H
	DD	01H
	DD	FLAT:??_R2CObject@@8
rdata$r	ENDS
;	COMDAT ??_R0?AVCObject@@@8
data$rs	SEGMENT
??_R0?AVCObject@@@8 DD FLAT:??_7type_info@@6B@		; CObject `RTTI Type Descriptor'
	DD	00H
	DB	'.?AVCObject@@', 00H
data$rs	ENDS
;	COMDAT ??_C@_00CNPNBAHC@@
CONST	SEGMENT
??_C@_00CNPNBAHC@@ DB 00H				; `string'
CONST	ENDS
;	COMDAT ??_C@_02DPKJAMEF@?$CFd@
CONST	SEGMENT
??_C@_02DPKJAMEF@?$CFd@ DB '%d', 00H			; `string'
CONST	ENDS
;	COMDAT xdata$x
xdata$x	SEGMENT
__unwindtable$??_G?$CList@PAVCChartBozoItem@@PAV1@@@UAEPAXI@Z DD 0ffffffffH
	DD	FLAT:___std_terminate
__ehfuncinfo$??_G?$CList@PAVCChartBozoItem@@PAV1@@@UAEPAXI@Z DD 019930522H
	DD	01H
	DD	FLAT:__unwindtable$??_G?$CList@PAVCChartBozoItem@@PAV1@@@UAEPAXI@Z
	DD	2 DUP(00H)
	DD	2 DUP(00H)
	DD	00H
	DD	05H
xdata$x	ENDS
;	COMDAT xdata$x
xdata$x	SEGMENT
__ehfuncinfo$??1?$CList@PAVCChartBozoItem@@PAV1@@@UAE@XZ DD 019930522H
	DD	00H
	DD	00H
	DD	2 DUP(00H)
	DD	2 DUP(00H)
	DD	00H
	DD	05H
xdata$x	ENDS
;	COMDAT xdata$x
xdata$x	SEGMENT
__ehfuncinfo$?MakeDataOfSuspensSeContract@CChartItemMarket@@IAEXAAV?$CStringT@DV?$StrTraitMFC_DLL@DV?$ChTraitsCRT@D@ATL@@@@@ATL@@PAVCStringArray@@@Z DD 019930522H
	DD	012H
	DD	FLAT:__unwindtable$?MakeDataOfSuspensSeContract@CChartItemMarket@@IAEXAAV?$CStringT@DV?$StrTraitMFC_DLL@DV?$ChTraitsCRT@D@ATL@@@@@ATL@@PAVCStringArray@@@Z
	DD	2 DUP(00H)
	DD	2 DUP(00H)
	DD	00H
	DD	01H
__unwindtable$?MakeDataOfSuspensSeContract@CChartItemMarket@@IAEXAAV?$CStringT@DV?$StrTraitMFC_DLL@DV?$ChTraitsCRT@D@ATL@@@@@ATL@@PAVCStringArray@@@Z DD 0ffffffffH
	DD	FLAT:__unwindfunclet$?MakeDataOfSuspensSeContract@CChartItemMarket@@IAEXAAV?$CStringT@DV?$StrTraitMFC_DLL@DV?$ChTraitsCRT@D@ATL@@@@@ATL@@PAVCStringArray@@@Z$0
	DD	00H
	DD	FLAT:__unwindfunclet$?MakeDataOfSuspensSeContract@CChartItemMarket@@IAEXAAV?$CStringT@DV?$StrTraitMFC_DLL@DV?$ChTraitsCRT@D@ATL@@@@@ATL@@PAVCStringArray@@@Z$1
	DD	01H
	DD	FLAT:__unwindfunclet$?MakeDataOfSuspensSeContract@CChartItemMarket@@IAEXAAV?$CStringT@DV?$StrTraitMFC_DLL@DV?$ChTraitsCRT@D@ATL@@@@@ATL@@PAVCStringArray@@@Z$2
	DD	02H
	DD	FLAT:__unwindfunclet$?MakeDataOfSuspensSeContract@CChartItemMarket@@IAEXAAV?$CStringT@DV?$StrTraitMFC_DLL@DV?$ChTraitsCRT@D@ATL@@@@@ATL@@PAVCStringArray@@@Z$3
	DD	03H
	DD	FLAT:__unwindfunclet$?MakeDataOfSuspensSeContract@CChartItemMarket@@IAEXAAV?$CStringT@DV?$StrTraitMFC_DLL@DV?$ChTraitsCRT@D@ATL@@@@@ATL@@PAVCStringArray@@@Z$4
	DD	04H
	DD	FLAT:__unwindfunclet$?MakeDataOfSuspensSeContract@CChartItemMarket@@IAEXAAV?$CStringT@DV?$StrTraitMFC_DLL@DV?$ChTraitsCRT@D@ATL@@@@@ATL@@PAVCStringArray@@@Z$5
	DD	05H
	DD	FLAT:__unwindfunclet$?MakeDataOfSuspensSeContract@CChartItemMarket@@IAEXAAV?$CStringT@DV?$StrTraitMFC_DLL@DV?$ChTraitsCRT@D@ATL@@@@@ATL@@PAVCStringArray@@@Z$18
	DD	06H
	DD	FLAT:__unwindfunclet$?MakeDataOfSuspensSeContract@CChartItemMarket@@IAEXAAV?$CStringT@DV?$StrTraitMFC_DLL@DV?$ChTraitsCRT@D@ATL@@@@@ATL@@PAVCStringArray@@@Z$19
	DD	07H
	DD	FLAT:__unwindfunclet$?MakeDataOfSuspensSeContract@CChartItemMarket@@IAEXAAV?$CStringT@DV?$StrTraitMFC_DLL@DV?$ChTraitsCRT@D@ATL@@@@@ATL@@PAVCStringArray@@@Z$20
	DD	05H
	DD	FLAT:__unwindfunclet$?MakeDataOfSuspensSeContract@CChartItemMarket@@IAEXAAV?$CStringT@DV?$StrTraitMFC_DLL@DV?$ChTraitsCRT@D@ATL@@@@@ATL@@PAVCStringArray@@@Z$21
	DD	09H
	DD	FLAT:__unwindfunclet$?MakeDataOfSuspensSeContract@CChartItemMarket@@IAEXAAV?$CStringT@DV?$StrTraitMFC_DLL@DV?$ChTraitsCRT@D@ATL@@@@@ATL@@PAVCStringArray@@@Z$22
	DD	0aH
	DD	FLAT:__unwindfunclet$?MakeDataOfSuspensSeContract@CChartItemMarket@@IAEXAAV?$CStringT@DV?$StrTraitMFC_DLL@DV?$ChTraitsCRT@D@ATL@@@@@ATL@@PAVCStringArray@@@Z$23
	DD	05H
	DD	FLAT:__unwindfunclet$?MakeDataOfSuspensSeContract@CChartItemMarket@@IAEXAAV?$CStringT@DV?$StrTraitMFC_DLL@DV?$ChTraitsCRT@D@ATL@@@@@ATL@@PAVCStringArray@@@Z$24
	DD	0cH
	DD	FLAT:__unwindfunclet$?MakeDataOfSuspensSeContract@CChartItemMarket@@IAEXAAV?$CStringT@DV?$StrTraitMFC_DLL@DV?$ChTraitsCRT@D@ATL@@@@@ATL@@PAVCStringArray@@@Z$25
	DD	0dH
	DD	FLAT:__unwindfunclet$?MakeDataOfSuspensSeContract@CChartItemMarket@@IAEXAAV?$CStringT@DV?$StrTraitMFC_DLL@DV?$ChTraitsCRT@D@ATL@@@@@ATL@@PAVCStringArray@@@Z$26
	DD	05H
	DD	FLAT:__unwindfunclet$?MakeDataOfSuspensSeContract@CChartItemMarket@@IAEXAAV?$CStringT@DV?$StrTraitMFC_DLL@DV?$ChTraitsCRT@D@ATL@@@@@ATL@@PAVCStringArray@@@Z$27
	DD	05H
	DD	FLAT:__unwindfunclet$?MakeDataOfSuspensSeContract@CChartItemMarket@@IAEXAAV?$CStringT@DV?$StrTraitMFC_DLL@DV?$ChTraitsCRT@D@ATL@@@@@ATL@@PAVCStringArray@@@Z$28
	DD	05H
	DD	FLAT:__unwindfunclet$?MakeDataOfSuspensSeContract@CChartItemMarket@@IAEXAAV?$CStringT@DV?$StrTraitMFC_DLL@DV?$ChTraitsCRT@D@ATL@@@@@ATL@@PAVCStringArray@@@Z$29
xdata$x	ENDS
;	COMDAT xdata$x
xdata$x	SEGMENT
__ehfuncinfo$?fnStructType2@CChartItemMarket@@QAE?AV?$CStringT@DV?$StrTraitMFC_DLL@DV?$ChTraitsCRT@D@ATL@@@@@ATL@@V23@H@Z DD 019930522H
	DD	019H
	DD	FLAT:__unwindtable$?fnStructType2@CChartItemMarket@@QAE?AV?$CStringT@DV?$StrTraitMFC_DLL@DV?$ChTraitsCRT@D@ATL@@@@@ATL@@V23@H@Z
	DD	2 DUP(00H)
	DD	2 DUP(00H)
	DD	00H
	DD	01H
__unwindtable$?fnStructType2@CChartItemMarket@@QAE?AV?$CStringT@DV?$StrTraitMFC_DLL@DV?$ChTraitsCRT@D@ATL@@@@@ATL@@V23@H@Z DD 0ffffffffH
	DD	FLAT:__unwindfunclet$?fnStructType2@CChartItemMarket@@QAE?AV?$CStringT@DV?$StrTraitMFC_DLL@DV?$ChTraitsCRT@D@ATL@@@@@ATL@@V23@H@Z$1
	DD	00H
	DD	FLAT:__unwindfunclet$?fnStructType2@CChartItemMarket@@QAE?AV?$CStringT@DV?$StrTraitMFC_DLL@DV?$ChTraitsCRT@D@ATL@@@@@ATL@@V23@H@Z$0
	DD	01H
	DD	FLAT:__unwindfunclet$?fnStructType2@CChartItemMarket@@QAE?AV?$CStringT@DV?$StrTraitMFC_DLL@DV?$ChTraitsCRT@D@ATL@@@@@ATL@@V23@H@Z$2
	DD	02H
	DD	FLAT:__unwindfunclet$?fnStructType2@CChartItemMarket@@QAE?AV?$CStringT@DV?$StrTraitMFC_DLL@DV?$ChTraitsCRT@D@ATL@@@@@ATL@@V23@H@Z$3
	DD	03H
	DD	FLAT:__unwindfunclet$?fnStructType2@CChartItemMarket@@QAE?AV?$CStringT@DV?$StrTraitMFC_DLL@DV?$ChTraitsCRT@D@ATL@@@@@ATL@@V23@H@Z$4
	DD	04H
	DD	FLAT:__unwindfunclet$?fnStructType2@CChartItemMarket@@QAE?AV?$CStringT@DV?$StrTraitMFC_DLL@DV?$ChTraitsCRT@D@ATL@@@@@ATL@@V23@H@Z$5
	DD	05H
	DD	FLAT:__unwindfunclet$?fnStructType2@CChartItemMarket@@QAE?AV?$CStringT@DV?$StrTraitMFC_DLL@DV?$ChTraitsCRT@D@ATL@@@@@ATL@@V23@H@Z$6
	DD	06H
	DD	FLAT:__unwindfunclet$?fnStructType2@CChartItemMarket@@QAE?AV?$CStringT@DV?$StrTraitMFC_DLL@DV?$ChTraitsCRT@D@ATL@@@@@ATL@@V23@H@Z$7
	DD	07H
	DD	FLAT:__unwindfunclet$?fnStructType2@CChartItemMarket@@QAE?AV?$CStringT@DV?$StrTraitMFC_DLL@DV?$ChTraitsCRT@D@ATL@@@@@ATL@@V23@H@Z$8
	DD	07H
	DD	FLAT:__unwindfunclet$?fnStructType2@CChartItemMarket@@QAE?AV?$CStringT@DV?$StrTraitMFC_DLL@DV?$ChTraitsCRT@D@ATL@@@@@ATL@@V23@H@Z$9
	DD	07H
	DD	FLAT:__unwindfunclet$?fnStructType2@CChartItemMarket@@QAE?AV?$CStringT@DV?$StrTraitMFC_DLL@DV?$ChTraitsCRT@D@ATL@@@@@ATL@@V23@H@Z$25
	DD	0aH
	DD	FLAT:__unwindfunclet$?fnStructType2@CChartItemMarket@@QAE?AV?$CStringT@DV?$StrTraitMFC_DLL@DV?$ChTraitsCRT@D@ATL@@@@@ATL@@V23@H@Z$26
	DD	0bH
	DD	FLAT:__unwindfunclet$?fnStructType2@CChartItemMarket@@QAE?AV?$CStringT@DV?$StrTraitMFC_DLL@DV?$ChTraitsCRT@D@ATL@@@@@ATL@@V23@H@Z$27
	DD	07H
	DD	FLAT:__unwindfunclet$?fnStructType2@CChartItemMarket@@QAE?AV?$CStringT@DV?$StrTraitMFC_DLL@DV?$ChTraitsCRT@D@ATL@@@@@ATL@@V23@H@Z$28
	DD	0dH
	DD	FLAT:__unwindfunclet$?fnStructType2@CChartItemMarket@@QAE?AV?$CStringT@DV?$StrTraitMFC_DLL@DV?$ChTraitsCRT@D@ATL@@@@@ATL@@V23@H@Z$29
	DD	0eH
	DD	FLAT:__unwindfunclet$?fnStructType2@CChartItemMarket@@QAE?AV?$CStringT@DV?$StrTraitMFC_DLL@DV?$ChTraitsCRT@D@ATL@@@@@ATL@@V23@H@Z$30
	DD	07H
	DD	FLAT:__unwindfunclet$?fnStructType2@CChartItemMarket@@QAE?AV?$CStringT@DV?$StrTraitMFC_DLL@DV?$ChTraitsCRT@D@ATL@@@@@ATL@@V23@H@Z$31
	DD	010H
	DD	FLAT:__unwindfunclet$?fnStructType2@CChartItemMarket@@QAE?AV?$CStringT@DV?$StrTraitMFC_DLL@DV?$ChTraitsCRT@D@ATL@@@@@ATL@@V23@H@Z$32
	DD	011H
	DD	FLAT:__unwindfunclet$?fnStructType2@CChartItemMarket@@QAE?AV?$CStringT@DV?$StrTraitMFC_DLL@DV?$ChTraitsCRT@D@ATL@@@@@ATL@@V23@H@Z$33
	DD	07H
	DD	FLAT:__unwindfunclet$?fnStructType2@CChartItemMarket@@QAE?AV?$CStringT@DV?$StrTraitMFC_DLL@DV?$ChTraitsCRT@D@ATL@@@@@ATL@@V23@H@Z$34
	DD	07H
	DD	FLAT:__unwindfunclet$?fnStructType2@CChartItemMarket@@QAE?AV?$CStringT@DV?$StrTraitMFC_DLL@DV?$ChTraitsCRT@D@ATL@@@@@ATL@@V23@H@Z$35
	DD	07H
	DD	FLAT:__unwindfunclet$?fnStructType2@CChartItemMarket@@QAE?AV?$CStringT@DV?$StrTraitMFC_DLL@DV?$ChTraitsCRT@D@ATL@@@@@ATL@@V23@H@Z$36
	DD	07H
	DD	FLAT:__unwindfunclet$?fnStructType2@CChartItemMarket@@QAE?AV?$CStringT@DV?$StrTraitMFC_DLL@DV?$ChTraitsCRT@D@ATL@@@@@ATL@@V23@H@Z$37
	DD	07H
	DD	FLAT:__unwindfunclet$?fnStructType2@CChartItemMarket@@QAE?AV?$CStringT@DV?$StrTraitMFC_DLL@DV?$ChTraitsCRT@D@ATL@@@@@ATL@@V23@H@Z$38
	DD	07H
	DD	FLAT:__unwindfunclet$?fnStructType2@CChartItemMarket@@QAE?AV?$CStringT@DV?$StrTraitMFC_DLL@DV?$ChTraitsCRT@D@ATL@@@@@ATL@@V23@H@Z$39
xdata$x	ENDS
;	COMDAT xdata$x
xdata$x	SEGMENT
__ehfuncinfo$?fnStructType1@CChartItemMarket@@QAE?AV?$CStringT@DV?$StrTraitMFC_DLL@DV?$ChTraitsCRT@D@ATL@@@@@ATL@@V23@H@Z DD 019930522H
	DD	014H
	DD	FLAT:__unwindtable$?fnStructType1@CChartItemMarket@@QAE?AV?$CStringT@DV?$StrTraitMFC_DLL@DV?$ChTraitsCRT@D@ATL@@@@@ATL@@V23@H@Z
	DD	2 DUP(00H)
	DD	2 DUP(00H)
	DD	00H
	DD	01H
__unwindtable$?fnStructType1@CChartItemMarket@@QAE?AV?$CStringT@DV?$StrTraitMFC_DLL@DV?$ChTraitsCRT@D@ATL@@@@@ATL@@V23@H@Z DD 0ffffffffH
	DD	FLAT:__unwindfunclet$?fnStructType1@CChartItemMarket@@QAE?AV?$CStringT@DV?$StrTraitMFC_DLL@DV?$ChTraitsCRT@D@ATL@@@@@ATL@@V23@H@Z$0
	DD	00H
	DD	FLAT:__unwindfunclet$?fnStructType1@CChartItemMarket@@QAE?AV?$CStringT@DV?$StrTraitMFC_DLL@DV?$ChTraitsCRT@D@ATL@@@@@ATL@@V23@H@Z$2
	DD	01H
	DD	FLAT:__unwindfunclet$?fnStructType1@CChartItemMarket@@QAE?AV?$CStringT@DV?$StrTraitMFC_DLL@DV?$ChTraitsCRT@D@ATL@@@@@ATL@@V23@H@Z$3
	DD	02H
	DD	FLAT:__unwindfunclet$?fnStructType1@CChartItemMarket@@QAE?AV?$CStringT@DV?$StrTraitMFC_DLL@DV?$ChTraitsCRT@D@ATL@@@@@ATL@@V23@H@Z$4
	DD	03H
	DD	FLAT:__unwindfunclet$?fnStructType1@CChartItemMarket@@QAE?AV?$CStringT@DV?$StrTraitMFC_DLL@DV?$ChTraitsCRT@D@ATL@@@@@ATL@@V23@H@Z$5
	DD	04H
	DD	FLAT:__unwindfunclet$?fnStructType1@CChartItemMarket@@QAE?AV?$CStringT@DV?$StrTraitMFC_DLL@DV?$ChTraitsCRT@D@ATL@@@@@ATL@@V23@H@Z$6
	DD	05H
	DD	FLAT:__unwindfunclet$?fnStructType1@CChartItemMarket@@QAE?AV?$CStringT@DV?$StrTraitMFC_DLL@DV?$ChTraitsCRT@D@ATL@@@@@ATL@@V23@H@Z$7
	DD	06H
	DD	FLAT:__unwindfunclet$?fnStructType1@CChartItemMarket@@QAE?AV?$CStringT@DV?$StrTraitMFC_DLL@DV?$ChTraitsCRT@D@ATL@@@@@ATL@@V23@H@Z$8
	DD	07H
	DD	FLAT:__unwindfunclet$?fnStructType1@CChartItemMarket@@QAE?AV?$CStringT@DV?$StrTraitMFC_DLL@DV?$ChTraitsCRT@D@ATL@@@@@ATL@@V23@H@Z$9
	DD	08H
	DD	FLAT:__unwindfunclet$?fnStructType1@CChartItemMarket@@QAE?AV?$CStringT@DV?$StrTraitMFC_DLL@DV?$ChTraitsCRT@D@ATL@@@@@ATL@@V23@H@Z$10
	DD	09H
	DD	FLAT:__unwindfunclet$?fnStructType1@CChartItemMarket@@QAE?AV?$CStringT@DV?$StrTraitMFC_DLL@DV?$ChTraitsCRT@D@ATL@@@@@ATL@@V23@H@Z$11
	DD	0aH
	DD	FLAT:__unwindfunclet$?fnStructType1@CChartItemMarket@@QAE?AV?$CStringT@DV?$StrTraitMFC_DLL@DV?$ChTraitsCRT@D@ATL@@@@@ATL@@V23@H@Z$12
	DD	0bH
	DD	FLAT:__unwindfunclet$?fnStructType1@CChartItemMarket@@QAE?AV?$CStringT@DV?$StrTraitMFC_DLL@DV?$ChTraitsCRT@D@ATL@@@@@ATL@@V23@H@Z$13
	DD	0cH
	DD	FLAT:__unwindfunclet$?fnStructType1@CChartItemMarket@@QAE?AV?$CStringT@DV?$StrTraitMFC_DLL@DV?$ChTraitsCRT@D@ATL@@@@@ATL@@V23@H@Z$14
	DD	0dH
	DD	FLAT:__unwindfunclet$?fnStructType1@CChartItemMarket@@QAE?AV?$CStringT@DV?$StrTraitMFC_DLL@DV?$ChTraitsCRT@D@ATL@@@@@ATL@@V23@H@Z$15
	DD	0dH
	DD	FLAT:__unwindfunclet$?fnStructType1@CChartItemMarket@@QAE?AV?$CStringT@DV?$StrTraitMFC_DLL@DV?$ChTraitsCRT@D@ATL@@@@@ATL@@V23@H@Z$16
	DD	0dH
	DD	FLAT:__unwindfunclet$?fnStructType1@CChartItemMarket@@QAE?AV?$CStringT@DV?$StrTraitMFC_DLL@DV?$ChTraitsCRT@D@ATL@@@@@ATL@@V23@H@Z$17
	DD	010H
	DD	FLAT:__unwindfunclet$?fnStructType1@CChartItemMarket@@QAE?AV?$CStringT@DV?$StrTraitMFC_DLL@DV?$ChTraitsCRT@D@ATL@@@@@ATL@@V23@H@Z$18
	DD	0dH
	DD	FLAT:__unwindfunclet$?fnStructType1@CChartItemMarket@@QAE?AV?$CStringT@DV?$StrTraitMFC_DLL@DV?$ChTraitsCRT@D@ATL@@@@@ATL@@V23@H@Z$19
	DD	012H
	DD	FLAT:__unwindfunclet$?fnStructType1@CChartItemMarket@@QAE?AV?$CStringT@DV?$StrTraitMFC_DLL@DV?$ChTraitsCRT@D@ATL@@@@@ATL@@V23@H@Z$20
xdata$x	ENDS
;	COMDAT xdata$x
xdata$x	SEGMENT
__unwindtable$?GetSendDataType@CChartItemMarket@@QAE?AV?$CStringT@DV?$StrTraitMFC_DLL@DV?$ChTraitsCRT@D@ATL@@@@@ATL@@H@Z DD 0ffffffffH
	DD	FLAT:__unwindfunclet$?GetSendDataType@CChartItemMarket@@QAE?AV?$CStringT@DV?$StrTraitMFC_DLL@DV?$ChTraitsCRT@D@ATL@@@@@ATL@@H@Z$0
__ehfuncinfo$?GetSendDataType@CChartItemMarket@@QAE?AV?$CStringT@DV?$StrTraitMFC_DLL@DV?$ChTraitsCRT@D@ATL@@@@@ATL@@H@Z DD 019930522H
	DD	01H
	DD	FLAT:__unwindtable$?GetSendDataType@CChartItemMarket@@QAE?AV?$CStringT@DV?$StrTraitMFC_DLL@DV?$ChTraitsCRT@D@ATL@@@@@ATL@@H@Z
	DD	2 DUP(00H)
	DD	2 DUP(00H)
	DD	00H
	DD	01H
xdata$x	ENDS
;	COMDAT xdata$x
xdata$x	SEGMENT
__unwindtable$?GetSendDataType@CChartItemMarket@@QAEHXZ DD 0ffffffffH
	DD	FLAT:__unwindfunclet$?GetSendDataType@CChartItemMarket@@QAEHXZ$0
	DD	00H
	DD	FLAT:__unwindfunclet$?GetSendDataType@CChartItemMarket@@QAEHXZ$1
__ehfuncinfo$?GetSendDataType@CChartItemMarket@@QAEHXZ DD 019930522H
	DD	02H
	DD	FLAT:__unwindtable$?GetSendDataType@CChartItemMarket@@QAEHXZ
	DD	2 DUP(00H)
	DD	2 DUP(00H)
	DD	00H
	DD	01H
xdata$x	ENDS
;	COMDAT xdata$x
xdata$x	SEGMENT
__ehfuncinfo$?Convert2Struct@CChartItemMarket@@QAEPADPAEHHAAH@Z DD 019930522H
	DD	02dH
	DD	FLAT:__unwindtable$?Convert2Struct@CChartItemMarket@@QAEPADPAEHHAAH@Z
	DD	2 DUP(00H)
	DD	2 DUP(00H)
	DD	00H
	DD	01H
__unwindtable$?Convert2Struct@CChartItemMarket@@QAEPADPAEHHAAH@Z DD 0ffffffffH
	DD	FLAT:__unwindfunclet$?Convert2Struct@CChartItemMarket@@QAEPADPAEHHAAH@Z$0
	DD	00H
	DD	FLAT:__unwindfunclet$?Convert2Struct@CChartItemMarket@@QAEPADPAEHHAAH@Z$1
	DD	01H
	DD	FLAT:__unwindfunclet$?Convert2Struct@CChartItemMarket@@QAEPADPAEHHAAH@Z$2
	DD	02H
	DD	FLAT:__unwindfunclet$?Convert2Struct@CChartItemMarket@@QAEPADPAEHHAAH@Z$3
	DD	03H
	DD	FLAT:__unwindfunclet$?Convert2Struct@CChartItemMarket@@QAEPADPAEHHAAH@Z$4
	DD	04H
	DD	FLAT:__unwindfunclet$?Convert2Struct@CChartItemMarket@@QAEPADPAEHHAAH@Z$5
	DD	05H
	DD	FLAT:__unwindfunclet$?Convert2Struct@CChartItemMarket@@QAEPADPAEHHAAH@Z$6
	DD	06H
	DD	FLAT:__unwindfunclet$?Convert2Struct@CChartItemMarket@@QAEPADPAEHHAAH@Z$7
	DD	07H
	DD	FLAT:__unwindfunclet$?Convert2Struct@CChartItemMarket@@QAEPADPAEHHAAH@Z$8
	DD	08H
	DD	FLAT:__unwindfunclet$?Convert2Struct@CChartItemMarket@@QAEPADPAEHHAAH@Z$9
	DD	09H
	DD	FLAT:__unwindfunclet$?Convert2Struct@CChartItemMarket@@QAEPADPAEHHAAH@Z$10
	DD	0aH
	DD	FLAT:__unwindfunclet$?Convert2Struct@CChartItemMarket@@QAEPADPAEHHAAH@Z$11
	DD	0bH
	DD	FLAT:__unwindfunclet$?Convert2Struct@CChartItemMarket@@QAEPADPAEHHAAH@Z$12
	DD	0cH
	DD	FLAT:__unwindfunclet$?Convert2Struct@CChartItemMarket@@QAEPADPAEHHAAH@Z$13
	DD	0dH
	DD	FLAT:__unwindfunclet$?Convert2Struct@CChartItemMarket@@QAEPADPAEHHAAH@Z$14
	DD	0dH
	DD	FLAT:__unwindfunclet$?Convert2Struct@CChartItemMarket@@QAEPADPAEHHAAH@Z$15
	DD	0dH
	DD	FLAT:__unwindfunclet$?Convert2Struct@CChartItemMarket@@QAEPADPAEHHAAH@Z$16
	DD	0dH
	DD	FLAT:__unwindfunclet$?Convert2Struct@CChartItemMarket@@QAEPADPAEHHAAH@Z$17
	DD	0dH
	DD	FLAT:__unwindfunclet$?Convert2Struct@CChartItemMarket@@QAEPADPAEHHAAH@Z$18
	DD	0dH
	DD	FLAT:__unwindfunclet$?Convert2Struct@CChartItemMarket@@QAEPADPAEHHAAH@Z$19
	DD	0dH
	DD	FLAT:__unwindfunclet$?Convert2Struct@CChartItemMarket@@QAEPADPAEHHAAH@Z$20
	DD	0dH
	DD	FLAT:__unwindfunclet$?Convert2Struct@CChartItemMarket@@QAEPADPAEHHAAH@Z$22
	DD	0dH
	DD	FLAT:__unwindfunclet$?Convert2Struct@CChartItemMarket@@QAEPADPAEHHAAH@Z$24
	DD	016H
	DD	FLAT:__unwindfunclet$?Convert2Struct@CChartItemMarket@@QAEPADPAEHHAAH@Z$25
	DD	016H
	DD	FLAT:__unwindfunclet$?Convert2Struct@CChartItemMarket@@QAEPADPAEHHAAH@Z$27
	DD	016H
	DD	FLAT:__unwindfunclet$?Convert2Struct@CChartItemMarket@@QAEPADPAEHHAAH@Z$29
	DD	016H
	DD	FLAT:__unwindfunclet$?Convert2Struct@CChartItemMarket@@QAEPADPAEHHAAH@Z$30
	DD	01aH
	DD	FLAT:__unwindfunclet$?Convert2Struct@CChartItemMarket@@QAEPADPAEHHAAH@Z$31
	DD	01bH
	DD	FLAT:__unwindfunclet$?Convert2Struct@CChartItemMarket@@QAEPADPAEHHAAH@Z$32
	DD	01cH
	DD	FLAT:__unwindfunclet$?Convert2Struct@CChartItemMarket@@QAEPADPAEHHAAH@Z$49
	DD	01dH
	DD	FLAT:__unwindfunclet$?Convert2Struct@CChartItemMarket@@QAEPADPAEHHAAH@Z$50
	DD	01aH
	DD	FLAT:___std_terminate
	DD	0dH
	DD	FLAT:__unwindfunclet$?Convert2Struct@CChartItemMarket@@QAEPADPAEHHAAH@Z$34
	DD	0dH
	DD	FLAT:__unwindfunclet$?Convert2Struct@CChartItemMarket@@QAEPADPAEHHAAH@Z$36
	DD	021H
	DD	FLAT:__unwindfunclet$?Convert2Struct@CChartItemMarket@@QAEPADPAEHHAAH@Z$37
	DD	021H
	DD	FLAT:__unwindfunclet$?Convert2Struct@CChartItemMarket@@QAEPADPAEHHAAH@Z$39
	DD	021H
	DD	FLAT:__unwindfunclet$?Convert2Struct@CChartItemMarket@@QAEPADPAEHHAAH@Z$41
	DD	021H
	DD	FLAT:__unwindfunclet$?Convert2Struct@CChartItemMarket@@QAEPADPAEHHAAH@Z$43
	DD	021H
	DD	FLAT:__unwindfunclet$?Convert2Struct@CChartItemMarket@@QAEPADPAEHHAAH@Z$45
	DD	021H
	DD	FLAT:__unwindfunclet$?Convert2Struct@CChartItemMarket@@QAEPADPAEHHAAH@Z$46
	DD	027H
	DD	FLAT:__unwindfunclet$?Convert2Struct@CChartItemMarket@@QAEPADPAEHHAAH@Z$47
	DD	028H
	DD	FLAT:__unwindfunclet$?Convert2Struct@CChartItemMarket@@QAEPADPAEHHAAH@Z$48
	DD	029H
	DD	FLAT:__unwindfunclet$?Convert2Struct@CChartItemMarket@@QAEPADPAEHHAAH@Z$53
	DD	02aH
	DD	FLAT:__unwindfunclet$?Convert2Struct@CChartItemMarket@@QAEPADPAEHHAAH@Z$54
	DD	027H
	DD	FLAT:___std_terminate
xdata$x	ENDS
;	COMDAT xdata$x
xdata$x	SEGMENT
__unwindtable$?Convert@CChartItemMarket@@QAE?AV?$CStringT@DV?$StrTraitMFC_DLL@DV?$ChTraitsCRT@D@ATL@@@@@ATL@@XZ DD 0ffffffffH
	DD	FLAT:__unwindfunclet$?Convert@CChartItemMarket@@QAE?AV?$CStringT@DV?$StrTraitMFC_DLL@DV?$ChTraitsCRT@D@ATL@@@@@ATL@@XZ$1
	DD	00H
	DD	FLAT:__unwindfunclet$?Convert@CChartItemMarket@@QAE?AV?$CStringT@DV?$StrTraitMFC_DLL@DV?$ChTraitsCRT@D@ATL@@@@@ATL@@XZ$2
	DD	01H
	DD	FLAT:__unwindfunclet$?Convert@CChartItemMarket@@QAE?AV?$CStringT@DV?$StrTraitMFC_DLL@DV?$ChTraitsCRT@D@ATL@@@@@ATL@@XZ$3
__ehfuncinfo$?Convert@CChartItemMarket@@QAE?AV?$CStringT@DV?$StrTraitMFC_DLL@DV?$ChTraitsCRT@D@ATL@@@@@ATL@@XZ DD 019930522H
	DD	03H
	DD	FLAT:__unwindtable$?Convert@CChartItemMarket@@QAE?AV?$CStringT@DV?$StrTraitMFC_DLL@DV?$ChTraitsCRT@D@ATL@@@@@ATL@@XZ
	DD	2 DUP(00H)
	DD	2 DUP(00H)
	DD	00H
	DD	01H
xdata$x	ENDS
;	COMDAT xdata$x
xdata$x	SEGMENT
__unwindtable$??0CChartBozoItem@@QAE@HPBD0@Z DD 0ffffffffH
	DD	FLAT:__unwindfunclet$??0CChartBozoItem@@QAE@HPBD0@Z$0
	DD	00H
	DD	FLAT:__unwindfunclet$??0CChartBozoItem@@QAE@HPBD0@Z$1
__ehfuncinfo$??0CChartBozoItem@@QAE@HPBD0@Z DD 019930522H
	DD	02H
	DD	FLAT:__unwindtable$??0CChartBozoItem@@QAE@HPBD0@Z
	DD	2 DUP(00H)
	DD	2 DUP(00H)
	DD	00H
	DD	01H
xdata$x	ENDS
;	COMDAT xdata$x
xdata$x	SEGMENT
__unwindtable$??HATL@@YA?AV?$CStringT@DV?$StrTraitMFC_DLL@DV?$ChTraitsCRT@D@ATL@@@@@0@PBDABV10@@Z DD 0ffffffffH
	DD	FLAT:__unwindfunclet$??HATL@@YA?AV?$CStringT@DV?$StrTraitMFC_DLL@DV?$ChTraitsCRT@D@ATL@@@@@0@PBDABV10@@Z$0
__ehfuncinfo$??HATL@@YA?AV?$CStringT@DV?$StrTraitMFC_DLL@DV?$ChTraitsCRT@D@ATL@@@@@0@PBDABV10@@Z DD 019930522H
	DD	01H
	DD	FLAT:__unwindtable$??HATL@@YA?AV?$CStringT@DV?$StrTraitMFC_DLL@DV?$ChTraitsCRT@D@ATL@@@@@0@PBDABV10@@Z
	DD	2 DUP(00H)
	DD	2 DUP(00H)
	DD	00H
	DD	01H
xdata$x	ENDS
;	COMDAT xdata$x
xdata$x	SEGMENT
__unwindtable$??HATL@@YA?AV?$CStringT@DV?$StrTraitMFC_DLL@DV?$ChTraitsCRT@D@ATL@@@@@0@ABV10@PBD@Z DD 0ffffffffH
	DD	FLAT:__unwindfunclet$??HATL@@YA?AV?$CStringT@DV?$StrTraitMFC_DLL@DV?$ChTraitsCRT@D@ATL@@@@@0@ABV10@PBD@Z$0
__ehfuncinfo$??HATL@@YA?AV?$CStringT@DV?$StrTraitMFC_DLL@DV?$ChTraitsCRT@D@ATL@@@@@0@ABV10@PBD@Z DD 019930522H
	DD	01H
	DD	FLAT:__unwindtable$??HATL@@YA?AV?$CStringT@DV?$StrTraitMFC_DLL@DV?$ChTraitsCRT@D@ATL@@@@@0@ABV10@PBD@Z
	DD	2 DUP(00H)
	DD	2 DUP(00H)
	DD	00H
	DD	01H
xdata$x	ENDS
;	COMDAT xdata$x
xdata$x	SEGMENT
__unwindtable$??HATL@@YA?AV?$CStringT@DV?$StrTraitMFC_DLL@DV?$ChTraitsCRT@D@ATL@@@@@0@ABV10@0@Z DD 0ffffffffH
	DD	FLAT:__unwindfunclet$??HATL@@YA?AV?$CStringT@DV?$StrTraitMFC_DLL@DV?$ChTraitsCRT@D@ATL@@@@@0@ABV10@0@Z$0
__ehfuncinfo$??HATL@@YA?AV?$CStringT@DV?$StrTraitMFC_DLL@DV?$ChTraitsCRT@D@ATL@@@@@0@ABV10@0@Z DD 019930522H
	DD	01H
	DD	FLAT:__unwindtable$??HATL@@YA?AV?$CStringT@DV?$StrTraitMFC_DLL@DV?$ChTraitsCRT@D@ATL@@@@@0@ABV10@0@Z
	DD	2 DUP(00H)
	DD	2 DUP(00H)
	DD	00H
	DD	01H
xdata$x	ENDS
CRT$XCU	SEGMENT
?RMSG_GETPCTRDATA$initializer$@@3P6AXXZA DD FLAT:??__ERMSG_GETPCTRDATA@@YAXXZ ; RMSG_GETPCTRDATA$initializer$
CRT$XCU	ENDS
CRT$XCU	SEGMENT
?RMSG_SETPCTRDATA$initializer$@@3P6AXXZA DD FLAT:??__ERMSG_SETPCTRDATA@@YAXXZ ; RMSG_SETPCTRDATA$initializer$
CRT$XCU	ENDS
CRT$XCU	SEGMENT
?RMSG_GETSIGNAL_REAL$initializer$@@3P6AXXZA DD FLAT:??__ERMSG_GETSIGNAL_REAL@@YAXXZ ; RMSG_GETSIGNAL_REAL$initializer$
CRT$XCU	ENDS
; Function compile flags: /Ogtp
; File C:\Program Files (x86)\Microsoft Visual Studio\2019\Community\VC\Tools\MSVC\14.29.30133\atlmfc\include\afxtempl.h
; File C:\Program Files (x86)\Microsoft Visual Studio\2019\Community\VC\Tools\MSVC\14.29.30133\atlmfc\include\afx.inl
; File C:\Program Files (x86)\Microsoft Visual Studio\2019\Community\VC\Tools\MSVC\14.29.30133\atlmfc\include\afxtempl.h
; File C:\Program Files (x86)\Microsoft Visual Studio\2019\Community\VC\Tools\MSVC\14.29.30133\atlmfc\include\afx.inl
; File C:\Program Files (x86)\Microsoft Visual Studio\2019\Community\VC\Tools\MSVC\14.29.30133\atlmfc\include\afxtempl.h
; File C:\Program Files (x86)\Microsoft Visual Studio\2019\Community\VC\Tools\MSVC\14.29.30133\atlmfc\include\afx.inl
; File C:\Program Files (x86)\Microsoft Visual Studio\2019\Community\VC\Tools\MSVC\14.29.30133\atlmfc\include\afxtempl.h
;	COMDAT ??$SerializeElements@PAVCChartBozoItem@@@@YGXAAVCArchive@@PAPAVCChartBozoItem@@H@Z
_TEXT	SEGMENT
_ar$ = 8						; size = 4
_pElements$ = 12					; size = 4
_nCount$ = 16						; size = 4
??$SerializeElements@PAVCChartBozoItem@@@@YGXAAVCArchive@@PAPAVCChartBozoItem@@H@Z PROC ; SerializeElements<CChartBozoItem *>, COMDAT

; 67   : {

  00000	55		 push	 ebp
  00001	8b ec		 mov	 ebp, esp

; 68   : 	ENSURE(nCount == 0 || pElements != NULL);

  00003	8b 4d 0c	 mov	 ecx, DWORD PTR _pElements$[ebp]
  00006	53		 push	 ebx
  00007	56		 push	 esi
  00008	8b 75 10	 mov	 esi, DWORD PTR _nCount$[ebp]
  0000b	57		 push	 edi
  0000c	85 f6		 test	 esi, esi
  0000e	74 08		 je	 SHORT $LN2@SerializeE
  00010	85 c9		 test	 ecx, ecx
  00012	0f 84 89 00 00
	00		 je	 $LN34@SerializeE
$LN2@SerializeE:
; File C:\Program Files (x86)\Microsoft Visual Studio\2019\Community\VC\Tools\MSVC\14.29.30133\atlmfc\include\afx.inl

; 212  : 	{ return (m_nMode & CArchive::load) == 0; }

  00018	8b 55 08	 mov	 edx, DWORD PTR _ar$[ebp]
  0001b	8b 42 18	 mov	 eax, DWORD PTR [edx+24]
  0001e	f7 d0		 not	 eax
  00020	a8 01		 test	 al, 1
; File C:\Program Files (x86)\Microsoft Visual Studio\2019\Community\VC\Tools\MSVC\14.29.30133\atlmfc\include\afxtempl.h

; 73   : 	if (ar.IsStoring())

  00022	74 3c		 je	 SHORT $LN10@SerializeE

; 74   : 	{
; 75   : 		TYPE* pData;
; 76   : 		UINT_PTR nElementsLeft;
; 77   : 
; 78   : 		nElementsLeft = nCount;
; 79   : 		pData = pElements;
; 80   : 		while( nElementsLeft > 0 )

  00024	85 f6		 test	 esi, esi
  00026	74 31		 je	 SHORT $LN8@SerializeE
  00028	0f 1f 84 00 00
	00 00 00	 npad	 8
$LL5@SerializeE:

; 81   : 		{
; 82   : 			UINT nElementsToWrite;
; 83   : 
; 84   : 			nElementsToWrite = UINT(__min(nElementsLeft, INT_MAX/sizeof(TYPE)));

  00030	bb ff ff ff 1f	 mov	 ebx, 536870911		; 1fffffffH
  00035	3b f3		 cmp	 esi, ebx
  00037	0f 42 de	 cmovb	 ebx, esi

; 85   : 			ar.Write(pData, nElementsToWrite*sizeof(TYPE));

  0003a	8d 3c 9d 00 00
	00 00		 lea	 edi, DWORD PTR [ebx*4]
  00041	57		 push	 edi
  00042	51		 push	 ecx
  00043	8b ca		 mov	 ecx, edx
  00045	e8 00 00 00 00	 call	 ?Write@CArchive@@QAEXPBXI@Z ; CArchive::Write

; 86   : 			nElementsLeft -= nElementsToWrite;
; 87   : 			pData += nElementsToWrite;

  0004a	8b 4d 0c	 mov	 ecx, DWORD PTR _pElements$[ebp]
  0004d	8b 55 08	 mov	 edx, DWORD PTR _ar$[ebp]
  00050	03 cf		 add	 ecx, edi
  00052	89 4d 0c	 mov	 DWORD PTR _pElements$[ebp], ecx
  00055	2b f3		 sub	 esi, ebx
  00057	75 d7		 jne	 SHORT $LL5@SerializeE
$LN8@SerializeE:
  00059	5f		 pop	 edi

; 105  : 		}
; 106  : 	}
; 107  : }

  0005a	5e		 pop	 esi
  0005b	5b		 pop	 ebx
  0005c	5d		 pop	 ebp
  0005d	c2 0c 00	 ret	 12			; 0000000cH
$LN10@SerializeE:

; 97   : 		while( nElementsLeft > 0 )

  00060	85 f6		 test	 esi, esi
  00062	74 f5		 je	 SHORT $LN8@SerializeE
$LL7@SerializeE:

; 98   : 		{
; 99   : 			UINT nElementsToRead;
; 100  : 
; 101  : 			nElementsToRead = UINT(__min(nElementsLeft, INT_MAX/sizeof(TYPE)));

  00064	bf ff ff ff 1f	 mov	 edi, 536870911		; 1fffffffH
  00069	3b f7		 cmp	 esi, edi
  0006b	0f 42 fe	 cmovb	 edi, esi

; 102  : 			ar.EnsureRead(pData, nElementsToRead*sizeof(TYPE));

  0006e	8d 1c bd 00 00
	00 00		 lea	 ebx, DWORD PTR [edi*4]
; File C:\Program Files (x86)\Microsoft Visual Studio\2019\Community\VC\Tools\MSVC\14.29.30133\atlmfc\include\afx.inl

; 399  : 	UINT nRead=Read(lpBuf, nCount);

  00075	53		 push	 ebx
  00076	51		 push	 ecx
  00077	8b ca		 mov	 ecx, edx
  00079	e8 00 00 00 00	 call	 ?Read@CArchive@@QAEIPAXI@Z ; CArchive::Read

; 400  : 	if(nRead!=nCount)

  0007e	3b c3		 cmp	 eax, ebx
  00080	75 16		 jne	 SHORT $LN23@SerializeE
; File C:\Program Files (x86)\Microsoft Visual Studio\2019\Community\VC\Tools\MSVC\14.29.30133\atlmfc\include\afxtempl.h

; 97   : 		while( nElementsLeft > 0 )

  00082	8b 4d 0c	 mov	 ecx, DWORD PTR _pElements$[ebp]
  00085	8b 55 08	 mov	 edx, DWORD PTR _ar$[ebp]

; 103  : 			nElementsLeft -= nElementsToRead;
; 104  : 			pData += nElementsToRead;

  00088	03 cb		 add	 ecx, ebx
  0008a	89 4d 0c	 mov	 DWORD PTR _pElements$[ebp], ecx
  0008d	2b f7		 sub	 esi, edi
  0008f	75 d3		 jne	 SHORT $LL7@SerializeE

; 105  : 		}
; 106  : 	}
; 107  : }

  00091	5f		 pop	 edi
  00092	5e		 pop	 esi
  00093	5b		 pop	 ebx
  00094	5d		 pop	 ebp
  00095	c2 0c 00	 ret	 12			; 0000000cH
$LN23@SerializeE:
; File C:\Program Files (x86)\Microsoft Visual Studio\2019\Community\VC\Tools\MSVC\14.29.30133\atlmfc\include\afx.inl

; 402  : 		AfxThrowArchiveException(CArchiveException::endOfFile);

  00098	6a 00		 push	 0
  0009a	6a 03		 push	 3
  0009c	e8 00 00 00 00	 call	 ?AfxThrowArchiveException@@YGXHPBD@Z ; AfxThrowArchiveException
$LN34@SerializeE:
; File C:\Program Files (x86)\Microsoft Visual Studio\2019\Community\VC\Tools\MSVC\14.29.30133\atlmfc\include\afxtempl.h

; 68   : 	ENSURE(nCount == 0 || pElements != NULL);

  000a1	e8 00 00 00 00	 call	 ?AfxThrowInvalidArgException@@YGXXZ ; AfxThrowInvalidArgException
$LN32@SerializeE:
  000a6	cc		 int	 3
??$SerializeElements@PAVCChartBozoItem@@@@YGXAAVCArchive@@PAPAVCChartBozoItem@@H@Z ENDP ; SerializeElements<CChartBozoItem *>
_TEXT	ENDS
; Function compile flags: /Ogtp
; File C:\Program Files (x86)\Microsoft Visual Studio\2019\Community\VC\Tools\MSVC\14.29.30133\atlmfc\include\afxtempl.h
; File C:\Program Files (x86)\Microsoft Visual Studio\2019\Community\VC\Tools\MSVC\14.29.30133\atlmfc\include\afx.inl
;	COMDAT ??_G?$CList@PAVCChartBozoItem@@PAV1@@@UAEPAXI@Z
_TEXT	SEGMENT
__$EHRec$ = -12						; size = 12
___flags$ = 8						; size = 4
??_G?$CList@PAVCChartBozoItem@@PAV1@@@UAEPAXI@Z PROC	; CList<CChartBozoItem *,CChartBozoItem *>::`scalar deleting destructor', COMDAT
; _this$ = ecx
  00000	55		 push	 ebp
  00001	8b ec		 mov	 ebp, esp
  00003	6a ff		 push	 -1
  00005	68 00 00 00 00	 push	 __ehhandler$??_G?$CList@PAVCChartBozoItem@@PAV1@@@UAEPAXI@Z
  0000a	64 a1 00 00 00
	00		 mov	 eax, DWORD PTR fs:0
  00010	50		 push	 eax
  00011	56		 push	 esi
  00012	a1 00 00 00 00	 mov	 eax, DWORD PTR ___security_cookie
  00017	33 c5		 xor	 eax, ebp
  00019	50		 push	 eax
  0001a	8d 45 f4	 lea	 eax, DWORD PTR __$EHRec$[ebp]
  0001d	64 a3 00 00 00
	00		 mov	 DWORD PTR fs:0, eax
  00023	8b f1		 mov	 esi, ecx
; File C:\Program Files (x86)\Microsoft Visual Studio\2019\Community\VC\Tools\MSVC\14.29.30133\atlmfc\include\afxtempl.h

; 872  : 	m_pBlocks->FreeDataChain();

  00025	8b 4e 14	 mov	 ecx, DWORD PTR [esi+20]

; 878  : {

  00028	c7 45 fc 00 00
	00 00		 mov	 DWORD PTR __$EHRec$[ebp+8], 0
  0002f	c7 06 00 00 00
	00		 mov	 DWORD PTR [esi], OFFSET ??_7?$CList@PAVCChartBozoItem@@PAV1@@@6B@

; 870  : 	m_nCount = 0;

  00035	c7 46 0c 00 00
	00 00		 mov	 DWORD PTR [esi+12], 0

; 871  : 	m_pNodeHead = m_pNodeTail = m_pNodeFree = NULL;

  0003c	c7 46 10 00 00
	00 00		 mov	 DWORD PTR [esi+16], 0
  00043	c7 46 08 00 00
	00 00		 mov	 DWORD PTR [esi+8], 0
  0004a	c7 46 04 00 00
	00 00		 mov	 DWORD PTR [esi+4], 0

; 872  : 	m_pBlocks->FreeDataChain();

  00051	e8 00 00 00 00	 call	 ?FreeDataChain@CPlex@@QAEXXZ ; CPlex::FreeDataChain

; 873  : 	m_pBlocks = NULL;

  00056	8b 45 08	 mov	 eax, DWORD PTR ___flags$[ebp]
  00059	c7 46 14 00 00
	00 00		 mov	 DWORD PTR [esi+20], 0
  00060	a8 01		 test	 al, 1
  00062	74 2c		 je	 SHORT $LN22@scalar
  00064	a8 04		 test	 al, 4
  00066	75 1d		 jne	 SHORT $LN3@scalar
; File C:\Program Files (x86)\Microsoft Visual Studio\2019\Community\VC\Tools\MSVC\14.29.30133\atlmfc\include\afx.inl

; 112  : 	{ ::operator delete(p); }

  00068	56		 push	 esi
  00069	e8 00 00 00 00	 call	 ??3@YAXPAX@Z		; operator delete
  0006e	83 c4 04	 add	 esp, 4
  00071	8b c6		 mov	 eax, esi
  00073	8b 4d f4	 mov	 ecx, DWORD PTR __$EHRec$[ebp]
  00076	64 89 0d 00 00
	00 00		 mov	 DWORD PTR fs:0, ecx
  0007d	59		 pop	 ecx
  0007e	5e		 pop	 esi
  0007f	8b e5		 mov	 esp, ebp
  00081	5d		 pop	 ebp
  00082	c2 04 00	 ret	 4
$LN3@scalar:
  00085	6a 1c		 push	 28			; 0000001cH
  00087	56		 push	 esi
  00088	e8 00 00 00 00	 call	 ?__global_delete@@YAXPAXI@Z ; __global_delete
  0008d	83 c4 08	 add	 esp, 8
$LN22@scalar:
  00090	8b c6		 mov	 eax, esi
  00092	8b 4d f4	 mov	 ecx, DWORD PTR __$EHRec$[ebp]
  00095	64 89 0d 00 00
	00 00		 mov	 DWORD PTR fs:0, ecx
  0009c	59		 pop	 ecx
  0009d	5e		 pop	 esi
  0009e	8b e5		 mov	 esp, ebp
  000a0	5d		 pop	 ebp
  000a1	c2 04 00	 ret	 4
  000a4	cc		 int	 3
  000a5	cc		 int	 3
  000a6	cc		 int	 3
  000a7	cc		 int	 3
  000a8	cc		 int	 3
_TEXT	ENDS
;	COMDAT text$x
text$x	SEGMENT
__ehhandler$??_G?$CList@PAVCChartBozoItem@@PAV1@@@UAEPAXI@Z:
  00000	90		 npad	 1
  00001	90		 npad	 1
  00002	8b 54 24 08	 mov	 edx, DWORD PTR [esp+8]
  00006	8d 42 0c	 lea	 eax, DWORD PTR [edx+12]
  00009	8b 4a f8	 mov	 ecx, DWORD PTR [edx-8]
  0000c	33 c8		 xor	 ecx, eax
  0000e	e8 00 00 00 00	 call	 @__security_check_cookie@4
  00013	b8 00 00 00 00	 mov	 eax, OFFSET __ehfuncinfo$??_G?$CList@PAVCChartBozoItem@@PAV1@@@UAEPAXI@Z
  00018	e9 00 00 00 00	 jmp	 ___CxxFrameHandler3
text$x	ENDS
??_G?$CList@PAVCChartBozoItem@@PAV1@@@UAEPAXI@Z ENDP	; CList<CChartBozoItem *,CChartBozoItem *>::`scalar deleting destructor'
; Function compile flags: /Ogtp
; File C:\Program Files (x86)\Microsoft Visual Studio\2019\Community\VC\Tools\MSVC\14.29.30133\atlmfc\include\afxtempl.h
; File C:\Program Files (x86)\Microsoft Visual Studio\2019\Community\VC\Tools\MSVC\14.29.30133\atlmfc\include\afx.inl
; File C:\Program Files (x86)\Microsoft Visual Studio\2019\Community\VC\Tools\MSVC\14.29.30133\atlmfc\include\afxtempl.h
; File C:\Program Files (x86)\Microsoft Visual Studio\2019\Community\VC\Tools\MSVC\14.29.30133\atlmfc\include\afx.inl
; File C:\Program Files (x86)\Microsoft Visual Studio\2019\Community\VC\Tools\MSVC\14.29.30133\atlmfc\include\afxtempl.h
; File C:\Program Files (x86)\Microsoft Visual Studio\2019\Community\VC\Tools\MSVC\14.29.30133\atlmfc\include\afx.inl
; File C:\Program Files (x86)\Microsoft Visual Studio\2019\Community\VC\Tools\MSVC\14.29.30133\atlmfc\include\afxtempl.h
; File C:\Program Files (x86)\Microsoft Visual Studio\2019\Community\VC\Tools\MSVC\14.29.30133\atlmfc\include\afx.inl
; File C:\Program Files (x86)\Microsoft Visual Studio\2019\Community\VC\Tools\MSVC\14.29.30133\atlmfc\include\afxtempl.h
; File C:\Program Files (x86)\Microsoft Visual Studio\2019\Community\VC\Tools\MSVC\14.29.30133\atlmfc\include\afx.inl
; File C:\Program Files (x86)\Microsoft Visual Studio\2019\Community\VC\Tools\MSVC\14.29.30133\atlmfc\include\afxtempl.h
; File C:\Program Files (x86)\Microsoft Visual Studio\2019\Community\VC\Tools\MSVC\14.29.30133\atlmfc\include\afx.inl
; File C:\Program Files (x86)\Microsoft Visual Studio\2019\Community\VC\Tools\MSVC\14.29.30133\atlmfc\include\afxtempl.h
;	COMDAT ?Serialize@?$CList@PAVCChartBozoItem@@PAV1@@@UAEXAAVCArchive@@@Z
_TEXT	SEGMENT
_nNewCount$1$ = -16					; size = 4
_newData$1 = -12					; size = 4
_pData$1$ = -8						; size = 4
_pNode$1$ = -8						; size = 4
_nElementsLeft$1$ = -4					; size = 4
_this$1$ = -4						; size = 4
_ar$ = 8						; size = 4
?Serialize@?$CList@PAVCChartBozoItem@@PAV1@@@UAEXAAVCArchive@@@Z PROC ; CList<CChartBozoItem *,CChartBozoItem *>::Serialize, COMDAT
; _this$ = ecx

; 1169 : {

  00000	55		 push	 ebp
  00001	8b ec		 mov	 ebp, esp
  00003	83 ec 10	 sub	 esp, 16			; 00000010H
  00006	53		 push	 ebx
  00007	8b d9		 mov	 ebx, ecx
; File C:\Program Files (x86)\Microsoft Visual Studio\2019\Community\VC\Tools\MSVC\14.29.30133\atlmfc\include\afx.inl

; 212  : 	{ return (m_nMode & CArchive::load) == 0; }

  00009	8b 4d 08	 mov	 ecx, DWORD PTR _ar$[ebp]
; File C:\Program Files (x86)\Microsoft Visual Studio\2019\Community\VC\Tools\MSVC\14.29.30133\atlmfc\include\afxtempl.h

; 1169 : {

  0000c	56		 push	 esi
  0000d	57		 push	 edi
  0000e	89 5d fc	 mov	 DWORD PTR _this$1$[ebp], ebx
; File C:\Program Files (x86)\Microsoft Visual Studio\2019\Community\VC\Tools\MSVC\14.29.30133\atlmfc\include\afx.inl

; 212  : 	{ return (m_nMode & CArchive::load) == 0; }

  00011	8b 41 18	 mov	 eax, DWORD PTR [ecx+24]
  00014	f7 d0		 not	 eax
  00016	a8 01		 test	 al, 1
; File C:\Program Files (x86)\Microsoft Visual Studio\2019\Community\VC\Tools\MSVC\14.29.30133\atlmfc\include\afxtempl.h

; 1174 : 	if (ar.IsStoring())

  00018	0f 84 ae 00 00
	00		 je	 $LN7@Serialize

; 1175 : 	{
; 1176 : 		ar.WriteCount(m_nCount);

  0001e	ff 73 0c	 push	 DWORD PTR [ebx+12]
  00021	e8 00 00 00 00	 call	 ?WriteCount@CArchive@@QAEXK@Z ; CArchive::WriteCount

; 1177 : 		for (CNode* pNode = m_pNodeHead; pNode != NULL; pNode = pNode->pNext)

  00026	8b 43 04	 mov	 eax, DWORD PTR [ebx+4]
  00029	89 45 f8	 mov	 DWORD PTR _pNode$1$[ebp], eax
  0002c	85 c0		 test	 eax, eax
  0002e	0f 84 43 01 00
	00		 je	 $LN68@Serialize
$LL4@Serialize:

; 1178 : 		{
; 1179 : 			ASSERT(AfxIsValidAddress(pNode, sizeof(CNode)));
; 1180 : 			TYPE* pData;
; 1181 : 			/*
; 1182 : 			 * in some cases the & operator might be overloaded, and we cannot use it to obtain
; 1183 : 			 * the address of a given object.  We then use the following trick to get the address
; 1184 : 			 */
; 1185 : 			pData = reinterpret_cast< TYPE* >( &reinterpret_cast< int& >( static_cast< TYPE& >( pNode->data ) ) );

  00034	8d 70 08	 lea	 esi, DWORD PTR [eax+8]

; 68   : 	ENSURE(nCount == 0 || pElements != NULL);

  00037	85 f6		 test	 esi, esi
  00039	0f 84 4a 01 00
	00		 je	 $LN60@Serialize
; File C:\Program Files (x86)\Microsoft Visual Studio\2019\Community\VC\Tools\MSVC\14.29.30133\atlmfc\include\afx.inl

; 212  : 	{ return (m_nMode & CArchive::load) == 0; }

  0003f	8b 4d 08	 mov	 ecx, DWORD PTR _ar$[ebp]
  00042	8b 41 18	 mov	 eax, DWORD PTR [ecx+24]
  00045	f7 d0		 not	 eax
  00047	a8 01		 test	 al, 1
; File C:\Program Files (x86)\Microsoft Visual Studio\2019\Community\VC\Tools\MSVC\14.29.30133\atlmfc\include\afxtempl.h

; 73   : 	if (ar.IsStoring())

  00049	74 33		 je	 SHORT $LN21@Serialize

; 74   : 	{
; 75   : 		TYPE* pData;
; 76   : 		UINT_PTR nElementsLeft;
; 77   : 
; 78   : 		nElementsLeft = nCount;

  0004b	b8 01 00 00 00	 mov	 eax, 1
  00050	89 45 fc	 mov	 DWORD PTR _nElementsLeft$1$[ebp], eax
$LL16@Serialize:

; 80   : 		while( nElementsLeft > 0 )
; 81   : 		{
; 82   : 			UINT nElementsToWrite;
; 83   : 
; 84   : 			nElementsToWrite = UINT(__min(nElementsLeft, INT_MAX/sizeof(TYPE)));

  00053	bb ff ff ff 1f	 mov	 ebx, 536870911		; 1fffffffH
  00058	3b c3		 cmp	 eax, ebx
  0005a	0f 42 d8	 cmovb	 ebx, eax

; 85   : 			ar.Write(pData, nElementsToWrite*sizeof(TYPE));

  0005d	8d 3c 9d 00 00
	00 00		 lea	 edi, DWORD PTR [ebx*4]
  00064	57		 push	 edi
  00065	56		 push	 esi
  00066	e8 00 00 00 00	 call	 ?Write@CArchive@@QAEXPBXI@Z ; CArchive::Write

; 86   : 			nElementsLeft -= nElementsToWrite;

  0006b	8b 45 fc	 mov	 eax, DWORD PTR _nElementsLeft$1$[ebp]

; 87   : 			pData += nElementsToWrite;

  0006e	03 f7		 add	 esi, edi
  00070	8b 4d 08	 mov	 ecx, DWORD PTR _ar$[ebp]
  00073	2b c3		 sub	 eax, ebx
  00075	89 45 fc	 mov	 DWORD PTR _nElementsLeft$1$[ebp], eax
  00078	85 c0		 test	 eax, eax
  0007a	75 d7		 jne	 SHORT $LL16@Serialize

; 88   : 		}
; 89   : 	}

  0007c	eb 35		 jmp	 SHORT $LN2@Serialize
$LN21@Serialize:

; 90   : 	else
; 91   : 	{
; 92   : 		TYPE* pData;
; 93   : 		UINT_PTR nElementsLeft;
; 94   : 
; 95   : 		nElementsLeft = nCount;

  0007e	bf 01 00 00 00	 mov	 edi, 1
$LL18@Serialize:

; 98   : 		{
; 99   : 			UINT nElementsToRead;
; 100  : 
; 101  : 			nElementsToRead = UINT(__min(nElementsLeft, INT_MAX/sizeof(TYPE)));

  00083	bb ff ff ff 1f	 mov	 ebx, 536870911		; 1fffffffH
  00088	3b fb		 cmp	 edi, ebx
  0008a	0f 42 df	 cmovb	 ebx, edi

; 102  : 			ar.EnsureRead(pData, nElementsToRead*sizeof(TYPE));

  0008d	8d 04 9d 00 00
	00 00		 lea	 eax, DWORD PTR [ebx*4]
; File C:\Program Files (x86)\Microsoft Visual Studio\2019\Community\VC\Tools\MSVC\14.29.30133\atlmfc\include\afx.inl

; 399  : 	UINT nRead=Read(lpBuf, nCount);

  00094	50		 push	 eax
  00095	56		 push	 esi
  00096	e8 00 00 00 00	 call	 ?Read@CArchive@@QAEIPAXI@Z ; CArchive::Read

; 400  : 	if(nRead!=nCount)

  0009b	8d 0c 9d 00 00
	00 00		 lea	 ecx, DWORD PTR [ebx*4]
  000a2	3b c1		 cmp	 eax, ecx
  000a4	0f 85 d6 00 00
	00		 jne	 $LN59@Serialize
; File C:\Program Files (x86)\Microsoft Visual Studio\2019\Community\VC\Tools\MSVC\14.29.30133\atlmfc\include\afxtempl.h

; 97   : 		while( nElementsLeft > 0 )

  000aa	03 f1		 add	 esi, ecx
  000ac	8b 4d 08	 mov	 ecx, DWORD PTR _ar$[ebp]

; 103  : 			nElementsLeft -= nElementsToRead;

  000af	2b fb		 sub	 edi, ebx
  000b1	75 d0		 jne	 SHORT $LL18@Serialize
$LN2@Serialize:

; 1177 : 		for (CNode* pNode = m_pNodeHead; pNode != NULL; pNode = pNode->pNext)

  000b3	8b 45 f8	 mov	 eax, DWORD PTR _pNode$1$[ebp]
  000b6	8b 00		 mov	 eax, DWORD PTR [eax]
  000b8	89 45 f8	 mov	 DWORD PTR _pNode$1$[ebp], eax
  000bb	85 c0		 test	 eax, eax
  000bd	0f 85 71 ff ff
	ff		 jne	 $LL4@Serialize

; 1197 : 		}
; 1198 : 	}
; 1199 : }

  000c3	5f		 pop	 edi
  000c4	5e		 pop	 esi
  000c5	5b		 pop	 ebx
  000c6	8b e5		 mov	 esp, ebp
  000c8	5d		 pop	 ebp
  000c9	c2 04 00	 ret	 4
$LN7@Serialize:

; 1186 : 			SerializeElements<TYPE>(ar, pData, 1);
; 1187 : 		}
; 1188 : 	}
; 1189 : 	else
; 1190 : 	{
; 1191 : 		DWORD_PTR nNewCount = ar.ReadCount();

  000cc	e8 00 00 00 00	 call	 ?ReadCount@CArchive@@QAEKXZ ; CArchive::ReadCount

; 1192 : 		while (nNewCount--)

  000d1	85 c0		 test	 eax, eax
  000d3	0f 84 9e 00 00
	00		 je	 $LN68@Serialize
  000d9	0f 1f 80 00 00
	00 00		 npad	 7
$LL5@Serialize:
  000e0	48		 dec	 eax
  000e1	89 45 f0	 mov	 DWORD PTR _nNewCount$1$[ebp], eax
; File C:\Program Files (x86)\Microsoft Visual Studio\2019\Community\VC\Tools\MSVC\14.29.30133\atlmfc\include\afx.inl

; 212  : 	{ return (m_nMode & CArchive::load) == 0; }

  000e4	8b 45 08	 mov	 eax, DWORD PTR _ar$[ebp]
  000e7	8b 48 18	 mov	 ecx, DWORD PTR [eax+24]
  000ea	f7 d1		 not	 ecx
  000ec	f6 c1 01	 test	 cl, 1
; File C:\Program Files (x86)\Microsoft Visual Studio\2019\Community\VC\Tools\MSVC\14.29.30133\atlmfc\include\afxtempl.h

; 73   : 	if (ar.IsStoring())

  000ef	74 3a		 je	 SHORT $LN42@Serialize

; 79   : 		pData = pElements;

  000f1	8d 4d f4	 lea	 ecx, DWORD PTR _newData$1[ebp]
  000f4	bb 01 00 00 00	 mov	 ebx, 1
  000f9	89 4d f8	 mov	 DWORD PTR _pData$1$[ebp], ecx
  000fc	0f 1f 40 00	 npad	 4
$LL37@Serialize:

; 80   : 		while( nElementsLeft > 0 )
; 81   : 		{
; 82   : 			UINT nElementsToWrite;
; 83   : 
; 84   : 			nElementsToWrite = UINT(__min(nElementsLeft, INT_MAX/sizeof(TYPE)));

  00100	bf ff ff ff 1f	 mov	 edi, 536870911		; 1fffffffH
  00105	3b df		 cmp	 ebx, edi
  00107	0f 42 fb	 cmovb	 edi, ebx

; 85   : 			ar.Write(pData, nElementsToWrite*sizeof(TYPE));

  0010a	8d 34 bd 00 00
	00 00		 lea	 esi, DWORD PTR [edi*4]
  00111	56		 push	 esi
  00112	51		 push	 ecx
  00113	8b c8		 mov	 ecx, eax
  00115	e8 00 00 00 00	 call	 ?Write@CArchive@@QAEXPBXI@Z ; CArchive::Write

; 87   : 			pData += nElementsToWrite;

  0011a	8b 4d f8	 mov	 ecx, DWORD PTR _pData$1$[ebp]
  0011d	8b 45 08	 mov	 eax, DWORD PTR _ar$[ebp]
  00120	03 ce		 add	 ecx, esi
  00122	89 4d f8	 mov	 DWORD PTR _pData$1$[ebp], ecx
  00125	2b df		 sub	 ebx, edi
  00127	75 d7		 jne	 SHORT $LL37@Serialize

; 88   : 		}
; 89   : 	}

  00129	eb 36		 jmp	 SHORT $LN40@Serialize
$LN42@Serialize:

; 90   : 	else
; 91   : 	{
; 92   : 		TYPE* pData;
; 93   : 		UINT_PTR nElementsLeft;
; 94   : 
; 95   : 		nElementsLeft = nCount;

  0012b	be 01 00 00 00	 mov	 esi, 1

; 96   : 		pData = pElements;

  00130	8d 5d f4	 lea	 ebx, DWORD PTR _newData$1[ebp]
$LL39@Serialize:

; 98   : 		{
; 99   : 			UINT nElementsToRead;
; 100  : 
; 101  : 			nElementsToRead = UINT(__min(nElementsLeft, INT_MAX/sizeof(TYPE)));

  00133	bf ff ff ff 1f	 mov	 edi, 536870911		; 1fffffffH
  00138	3b f7		 cmp	 esi, edi
  0013a	0f 42 fe	 cmovb	 edi, esi

; 102  : 			ar.EnsureRead(pData, nElementsToRead*sizeof(TYPE));

  0013d	8d 0c bd 00 00
	00 00		 lea	 ecx, DWORD PTR [edi*4]
; File C:\Program Files (x86)\Microsoft Visual Studio\2019\Community\VC\Tools\MSVC\14.29.30133\atlmfc\include\afx.inl

; 399  : 	UINT nRead=Read(lpBuf, nCount);

  00144	51		 push	 ecx
  00145	53		 push	 ebx
  00146	8b c8		 mov	 ecx, eax
  00148	e8 00 00 00 00	 call	 ?Read@CArchive@@QAEIPAXI@Z ; CArchive::Read

; 400  : 	if(nRead!=nCount)

  0014d	8d 0c bd 00 00
	00 00		 lea	 ecx, DWORD PTR [edi*4]
  00154	3b c1		 cmp	 eax, ecx
  00156	75 28		 jne	 SHORT $LN59@Serialize
; File C:\Program Files (x86)\Microsoft Visual Studio\2019\Community\VC\Tools\MSVC\14.29.30133\atlmfc\include\afxtempl.h

; 104  : 			pData += nElementsToRead;

  00158	8b 45 08	 mov	 eax, DWORD PTR _ar$[ebp]
  0015b	03 d9		 add	 ebx, ecx
  0015d	2b f7		 sub	 esi, edi
  0015f	75 d2		 jne	 SHORT $LL39@Serialize
$LN40@Serialize:

; 1193 : 		{
; 1194 : 			TYPE newData[1];
; 1195 : 			SerializeElements<TYPE>(ar, newData, 1);
; 1196 : 			AddTail(newData[0]);

  00161	ff 75 f4	 push	 DWORD PTR _newData$1[ebp]
  00164	8b 4d fc	 mov	 ecx, DWORD PTR _this$1$[ebp]
  00167	e8 00 00 00 00	 call	 ?AddTail@?$CList@PAVCChartBozoItem@@PAV1@@@QAEPAU__POSITION@@PAVCChartBozoItem@@@Z ; CList<CChartBozoItem *,CChartBozoItem *>::AddTail
  0016c	8b 45 f0	 mov	 eax, DWORD PTR _nNewCount$1$[ebp]
  0016f	85 c0		 test	 eax, eax
  00171	0f 85 69 ff ff
	ff		 jne	 $LL5@Serialize
$LN68@Serialize:
  00177	5f		 pop	 edi

; 1197 : 		}
; 1198 : 	}
; 1199 : }

  00178	5e		 pop	 esi
  00179	5b		 pop	 ebx
  0017a	8b e5		 mov	 esp, ebp
  0017c	5d		 pop	 ebp
  0017d	c2 04 00	 ret	 4
$LN59@Serialize:
  00180	6a 00		 push	 0
  00182	6a 03		 push	 3
  00184	e8 00 00 00 00	 call	 ?AfxThrowArchiveException@@YGXHPBD@Z ; AfxThrowArchiveException
$LN60@Serialize:

; 68   : 	ENSURE(nCount == 0 || pElements != NULL);

  00189	e8 00 00 00 00	 call	 ?AfxThrowInvalidArgException@@YGXXZ ; AfxThrowInvalidArgException
$LN85@Serialize:
  0018e	cc		 int	 3
?Serialize@?$CList@PAVCChartBozoItem@@PAV1@@@UAEXAAVCArchive@@@Z ENDP ; CList<CChartBozoItem *,CChartBozoItem *>::Serialize
_TEXT	ENDS
; Function compile flags: /Ogtp
; File C:\Program Files (x86)\Microsoft Visual Studio\2019\Community\VC\Tools\MSVC\14.29.30133\atlmfc\include\afxtempl.h
;	COMDAT ??1?$CList@PAVCChartBozoItem@@PAV1@@@UAE@XZ
_TEXT	SEGMENT
__$EHRec$ = -12						; size = 12
??1?$CList@PAVCChartBozoItem@@PAV1@@@UAE@XZ PROC	; CList<CChartBozoItem *,CChartBozoItem *>::~CList<CChartBozoItem *,CChartBozoItem *>, COMDAT
; _this$ = ecx

; 878  : {

  00000	55		 push	 ebp
  00001	8b ec		 mov	 ebp, esp
  00003	6a ff		 push	 -1
  00005	68 00 00 00 00	 push	 __ehhandler$??1?$CList@PAVCChartBozoItem@@PAV1@@@UAE@XZ
  0000a	64 a1 00 00 00
	00		 mov	 eax, DWORD PTR fs:0
  00010	50		 push	 eax
  00011	56		 push	 esi
  00012	a1 00 00 00 00	 mov	 eax, DWORD PTR ___security_cookie
  00017	33 c5		 xor	 eax, ebp
  00019	50		 push	 eax
  0001a	8d 45 f4	 lea	 eax, DWORD PTR __$EHRec$[ebp]
  0001d	64 a3 00 00 00
	00		 mov	 DWORD PTR fs:0, eax
  00023	8b f1		 mov	 esi, ecx

; 872  : 	m_pBlocks->FreeDataChain();

  00025	8b 4e 14	 mov	 ecx, DWORD PTR [esi+20]

; 878  : {

  00028	c7 06 00 00 00
	00		 mov	 DWORD PTR [esi], OFFSET ??_7?$CList@PAVCChartBozoItem@@PAV1@@@6B@

; 870  : 	m_nCount = 0;

  0002e	c7 46 0c 00 00
	00 00		 mov	 DWORD PTR [esi+12], 0

; 871  : 	m_pNodeHead = m_pNodeTail = m_pNodeFree = NULL;

  00035	c7 46 10 00 00
	00 00		 mov	 DWORD PTR [esi+16], 0
  0003c	c7 46 08 00 00
	00 00		 mov	 DWORD PTR [esi+8], 0
  00043	c7 46 04 00 00
	00 00		 mov	 DWORD PTR [esi+4], 0

; 872  : 	m_pBlocks->FreeDataChain();

  0004a	e8 00 00 00 00	 call	 ?FreeDataChain@CPlex@@QAEXXZ ; CPlex::FreeDataChain

; 873  : 	m_pBlocks = NULL;

  0004f	c7 46 14 00 00
	00 00		 mov	 DWORD PTR [esi+20], 0

; 879  : 	RemoveAll();
; 880  : 	ASSERT(m_nCount == 0);
; 881  : }

  00056	8b 4d f4	 mov	 ecx, DWORD PTR __$EHRec$[ebp]
  00059	64 89 0d 00 00
	00 00		 mov	 DWORD PTR fs:0, ecx
  00060	59		 pop	 ecx
  00061	5e		 pop	 esi
  00062	8b e5		 mov	 esp, ebp
  00064	5d		 pop	 ebp
  00065	c3		 ret	 0
  00066	cc		 int	 3
  00067	cc		 int	 3
  00068	cc		 int	 3
  00069	cc		 int	 3
  0006a	cc		 int	 3
_TEXT	ENDS
;	COMDAT text$x
text$x	SEGMENT
__ehhandler$??1?$CList@PAVCChartBozoItem@@PAV1@@@UAE@XZ:
  00000	90		 npad	 1
  00001	90		 npad	 1
  00002	8b 54 24 08	 mov	 edx, DWORD PTR [esp+8]
  00006	8d 42 0c	 lea	 eax, DWORD PTR [edx+12]
  00009	8b 4a f8	 mov	 ecx, DWORD PTR [edx-8]
  0000c	33 c8		 xor	 ecx, eax
  0000e	e8 00 00 00 00	 call	 @__security_check_cookie@4
  00013	b8 00 00 00 00	 mov	 eax, OFFSET __ehfuncinfo$??1?$CList@PAVCChartBozoItem@@PAV1@@@UAE@XZ
  00018	e9 00 00 00 00	 jmp	 ___CxxFrameHandler3
text$x	ENDS
??1?$CList@PAVCChartBozoItem@@PAV1@@@UAE@XZ ENDP	; CList<CChartBozoItem *,CChartBozoItem *>::~CList<CChartBozoItem *,CChartBozoItem *>
; Function compile flags: /Ogtp
; File C:\Program Files (x86)\Microsoft Visual Studio\2019\Community\VC\Tools\MSVC\14.29.30133\atlmfc\include\afxtempl.h
;	COMDAT ?NewNode@?$CList@PAVCChartBozoItem@@PAV1@@@IAEPAUCNode@1@PAU21@0@Z
_TEXT	SEGMENT
_pPrev$ = 8						; size = 4
_pNext$ = 12						; size = 4
?NewNode@?$CList@PAVCChartBozoItem@@PAV1@@@IAEPAUCNode@1@PAU21@0@Z PROC ; CList<CChartBozoItem *,CChartBozoItem *>::NewNode, COMDAT
; _this$ = ecx

; 901  : {

  00000	55		 push	 ebp
  00001	8b ec		 mov	 ebp, esp
  00003	56		 push	 esi
  00004	8b f1		 mov	 esi, ecx

; 902  : 	if (m_pNodeFree == NULL)

  00006	83 7e 10 00	 cmp	 DWORD PTR [esi+16], 0
  0000a	75 34		 jne	 SHORT $LN7@NewNode

; 903  : 	{
; 904  : 		// add another block
; 905  : 		CPlex* pNewBlock = CPlex::Create(m_pBlocks, m_nBlockSize,

  0000c	6a 0c		 push	 12			; 0000000cH
  0000e	ff 76 18	 push	 DWORD PTR [esi+24]
  00011	8d 46 14	 lea	 eax, DWORD PTR [esi+20]
  00014	50		 push	 eax
  00015	e8 00 00 00 00	 call	 ?Create@CPlex@@SGPAU1@AAPAU1@II@Z ; CPlex::Create

; 906  : 				 sizeof(CNode));
; 907  : 
; 908  : 		// chain them into free list
; 909  : 		CNode* pNode = (CNode*) pNewBlock->data();
; 910  : 		// free in reverse order to make it easier to debug
; 911  : 		pNode += m_nBlockSize - 1;

  0001a	8b 56 18	 mov	 edx, DWORD PTR [esi+24]
  0001d	83 c0 08	 add	 eax, 8
  00020	8d 0c 52	 lea	 ecx, DWORD PTR [edx+edx*2]
  00023	8d 04 88	 lea	 eax, DWORD PTR [eax+ecx*4]
  00026	83 c0 f4	 add	 eax, -12		; fffffff4H

; 912  : 		for (INT_PTR i = m_nBlockSize-1; i >= 0; i--, pNode--)

  00029	83 c2 ff	 add	 edx, -1
  0002c	78 12		 js	 SHORT $LN7@NewNode
  0002e	66 90		 npad	 2
$LL4@NewNode:

; 913  : 		{
; 914  : 			pNode->pNext = m_pNodeFree;

  00030	8b 4e 10	 mov	 ecx, DWORD PTR [esi+16]
  00033	89 08		 mov	 DWORD PTR [eax], ecx

; 915  : 			m_pNodeFree = pNode;

  00035	89 46 10	 mov	 DWORD PTR [esi+16], eax
  00038	83 e8 0c	 sub	 eax, 12			; 0000000cH
  0003b	83 ea 01	 sub	 edx, 1
  0003e	79 f0		 jns	 SHORT $LL4@NewNode
$LN7@NewNode:

; 916  : 		}
; 917  : 	}
; 918  : 	ENSURE(m_pNodeFree != NULL);  // we must have something

  00040	8b 46 10	 mov	 eax, DWORD PTR [esi+16]
  00043	85 c0		 test	 eax, eax
  00045	74 18		 je	 SHORT $LN17@NewNode

; 919  : 
; 920  : 	CList::CNode* pNode = m_pNodeFree;
; 921  : 	m_pNodeFree = m_pNodeFree->pNext;

  00047	8b 08		 mov	 ecx, DWORD PTR [eax]
  00049	89 4e 10	 mov	 DWORD PTR [esi+16], ecx

; 922  : 	pNode->pPrev = pPrev;

  0004c	8b 4d 08	 mov	 ecx, DWORD PTR _pPrev$[ebp]
  0004f	89 48 04	 mov	 DWORD PTR [eax+4], ecx

; 923  : 	pNode->pNext = pNext;

  00052	8b 4d 0c	 mov	 ecx, DWORD PTR _pNext$[ebp]
  00055	89 08		 mov	 DWORD PTR [eax], ecx

; 924  : 	m_nCount++;

  00057	ff 46 0c	 inc	 DWORD PTR [esi+12]

; 925  : 	ASSERT(m_nCount > 0);  // make sure we don't overflow
; 926  : 
; 927  : #pragma push_macro("new")
; 928  : #undef new
; 929  : 	::new( (void*)( &pNode->data ) ) TYPE;
; 930  : #pragma pop_macro("new")
; 931  : 	return pNode;

  0005a	5e		 pop	 esi

; 932  : }

  0005b	5d		 pop	 ebp
  0005c	c2 08 00	 ret	 8
$LN17@NewNode:

; 916  : 		}
; 917  : 	}
; 918  : 	ENSURE(m_pNodeFree != NULL);  // we must have something

  0005f	e8 00 00 00 00	 call	 ?AfxThrowInvalidArgException@@YGXXZ ; AfxThrowInvalidArgException
$LN15@NewNode:
  00064	cc		 int	 3
?NewNode@?$CList@PAVCChartBozoItem@@PAV1@@@IAEPAUCNode@1@PAU21@0@Z ENDP ; CList<CChartBozoItem *,CChartBozoItem *>::NewNode
_TEXT	ENDS
; Function compile flags: /Ogtp
; File C:\Program Files (x86)\Microsoft Visual Studio\2019\Community\VC\Tools\MSVC\14.29.30133\atlmfc\include\afxtempl.h
;	COMDAT ?RemoveAll@?$CList@PAVCChartBozoItem@@PAV1@@@QAEXXZ
_TEXT	SEGMENT
?RemoveAll@?$CList@PAVCChartBozoItem@@PAV1@@@QAEXXZ PROC ; CList<CChartBozoItem *,CChartBozoItem *>::RemoveAll, COMDAT
; _this$ = ecx

; 862  : {

  00000	56		 push	 esi
  00001	8b f1		 mov	 esi, ecx

; 863  : 	ASSERT_VALID(this);
; 864  : 
; 865  : 	// destroy elements
; 866  : 	CNode* pNode;
; 867  : 	for (pNode = m_pNodeHead; pNode != NULL; pNode = pNode->pNext)
; 868  : 		pNode->data.~TYPE();
; 869  : 
; 870  : 	m_nCount = 0;
; 871  : 	m_pNodeHead = m_pNodeTail = m_pNodeFree = NULL;
; 872  : 	m_pBlocks->FreeDataChain();

  00003	8b 4e 14	 mov	 ecx, DWORD PTR [esi+20]
  00006	c7 46 0c 00 00
	00 00		 mov	 DWORD PTR [esi+12], 0
  0000d	c7 46 10 00 00
	00 00		 mov	 DWORD PTR [esi+16], 0
  00014	c7 46 08 00 00
	00 00		 mov	 DWORD PTR [esi+8], 0
  0001b	c7 46 04 00 00
	00 00		 mov	 DWORD PTR [esi+4], 0
  00022	e8 00 00 00 00	 call	 ?FreeDataChain@CPlex@@QAEXXZ ; CPlex::FreeDataChain

; 873  : 	m_pBlocks = NULL;

  00027	c7 46 14 00 00
	00 00		 mov	 DWORD PTR [esi+20], 0
  0002e	5e		 pop	 esi

; 874  : }

  0002f	c3		 ret	 0
?RemoveAll@?$CList@PAVCChartBozoItem@@PAV1@@@QAEXXZ ENDP ; CList<CChartBozoItem *,CChartBozoItem *>::RemoveAll
_TEXT	ENDS
; Function compile flags: /Ogtp
; File C:\Program Files (x86)\Microsoft Visual Studio\2019\Community\VC\Tools\MSVC\14.29.30133\atlmfc\include\afxtempl.h
;	COMDAT ?AddTail@?$CList@PAVCChartBozoItem@@PAV1@@@QAEPAU__POSITION@@PAVCChartBozoItem@@@Z
_TEXT	SEGMENT
_newElement$ = 8					; size = 4
?AddTail@?$CList@PAVCChartBozoItem@@PAV1@@@QAEPAU__POSITION@@PAVCChartBozoItem@@@Z PROC ; CList<CChartBozoItem *,CChartBozoItem *>::AddTail, COMDAT
; _this$ = ecx

; 965  : {

  00000	55		 push	 ebp
  00001	8b ec		 mov	 ebp, esp
  00003	56		 push	 esi
  00004	8b f1		 mov	 esi, ecx
  00006	57		 push	 edi

; 902  : 	if (m_pNodeFree == NULL)

  00007	83 7e 10 00	 cmp	 DWORD PTR [esi+16], 0

; 966  : 	ASSERT_VALID(this);
; 967  : 
; 968  : 	CNode* pNewNode = NewNode(m_pNodeTail, NULL);

  0000b	8b 7e 08	 mov	 edi, DWORD PTR [esi+8]

; 902  : 	if (m_pNodeFree == NULL)

  0000e	75 32		 jne	 SHORT $LN11@AddTail

; 903  : 	{
; 904  : 		// add another block
; 905  : 		CPlex* pNewBlock = CPlex::Create(m_pBlocks, m_nBlockSize,

  00010	6a 0c		 push	 12			; 0000000cH
  00012	ff 76 18	 push	 DWORD PTR [esi+24]
  00015	8d 46 14	 lea	 eax, DWORD PTR [esi+20]
  00018	50		 push	 eax
  00019	e8 00 00 00 00	 call	 ?Create@CPlex@@SGPAU1@AAPAU1@II@Z ; CPlex::Create

; 906  : 				 sizeof(CNode));
; 907  : 
; 908  : 		// chain them into free list
; 909  : 		CNode* pNode = (CNode*) pNewBlock->data();
; 910  : 		// free in reverse order to make it easier to debug
; 911  : 		pNode += m_nBlockSize - 1;

  0001e	8b 56 18	 mov	 edx, DWORD PTR [esi+24]
  00021	83 c0 08	 add	 eax, 8
  00024	8d 4a ff	 lea	 ecx, DWORD PTR [edx-1]

; 912  : 		for (INT_PTR i = m_nBlockSize-1; i >= 0; i--, pNode--)

  00027	83 c2 ff	 add	 edx, -1
  0002a	8d 0c 49	 lea	 ecx, DWORD PTR [ecx+ecx*2]
  0002d	8d 0c 88	 lea	 ecx, DWORD PTR [eax+ecx*4]
  00030	78 10		 js	 SHORT $LN11@AddTail
$LL8@AddTail:

; 913  : 		{
; 914  : 			pNode->pNext = m_pNodeFree;

  00032	8b 46 10	 mov	 eax, DWORD PTR [esi+16]
  00035	89 01		 mov	 DWORD PTR [ecx], eax

; 915  : 			m_pNodeFree = pNode;

  00037	89 4e 10	 mov	 DWORD PTR [esi+16], ecx
  0003a	83 e9 0c	 sub	 ecx, 12			; 0000000cH
  0003d	83 ea 01	 sub	 edx, 1
  00040	79 f0		 jns	 SHORT $LL8@AddTail
$LN11@AddTail:

; 916  : 		}
; 917  : 	}
; 918  : 	ENSURE(m_pNodeFree != NULL);  // we must have something

  00042	8b 4e 10	 mov	 ecx, DWORD PTR [esi+16]
  00045	85 c9		 test	 ecx, ecx
  00047	74 39		 je	 SHORT $LN22@AddTail

; 919  : 
; 920  : 	CList::CNode* pNode = m_pNodeFree;
; 921  : 	m_pNodeFree = m_pNodeFree->pNext;

  00049	8b 01		 mov	 eax, DWORD PTR [ecx]
  0004b	89 46 10	 mov	 DWORD PTR [esi+16], eax

; 969  : 	pNewNode->data = newElement;

  0004e	8b 45 08	 mov	 eax, DWORD PTR _newElement$[ebp]

; 922  : 	pNode->pPrev = pPrev;

  00051	89 79 04	 mov	 DWORD PTR [ecx+4], edi

; 923  : 	pNode->pNext = pNext;

  00054	c7 01 00 00 00
	00		 mov	 DWORD PTR [ecx], 0

; 924  : 	m_nCount++;

  0005a	ff 46 0c	 inc	 DWORD PTR [esi+12]

; 969  : 	pNewNode->data = newElement;

  0005d	89 41 08	 mov	 DWORD PTR [ecx+8], eax

; 970  : 	if (m_pNodeTail != NULL)

  00060	8b 46 08	 mov	 eax, DWORD PTR [esi+8]
  00063	85 c0		 test	 eax, eax
  00065	74 0d		 je	 SHORT $LN2@AddTail

; 971  : 		m_pNodeTail->pNext = pNewNode;

  00067	89 08		 mov	 DWORD PTR [eax], ecx

; 972  : 	else
; 973  : 		m_pNodeHead = pNewNode;
; 974  : 	m_pNodeTail = pNewNode;
; 975  : 	return (POSITION) pNewNode;

  00069	8b c1		 mov	 eax, ecx
  0006b	5f		 pop	 edi
  0006c	89 4e 08	 mov	 DWORD PTR [esi+8], ecx
  0006f	5e		 pop	 esi

; 976  : }

  00070	5d		 pop	 ebp
  00071	c2 04 00	 ret	 4
$LN2@AddTail:

; 972  : 	else
; 973  : 		m_pNodeHead = pNewNode;
; 974  : 	m_pNodeTail = pNewNode;
; 975  : 	return (POSITION) pNewNode;

  00074	5f		 pop	 edi
  00075	89 4e 04	 mov	 DWORD PTR [esi+4], ecx
  00078	8b c1		 mov	 eax, ecx
  0007a	89 4e 08	 mov	 DWORD PTR [esi+8], ecx
  0007d	5e		 pop	 esi

; 976  : }

  0007e	5d		 pop	 ebp
  0007f	c2 04 00	 ret	 4
$LN22@AddTail:

; 918  : 	ENSURE(m_pNodeFree != NULL);  // we must have something

  00082	e8 00 00 00 00	 call	 ?AfxThrowInvalidArgException@@YGXXZ ; AfxThrowInvalidArgException
$LN20@AddTail:
  00087	cc		 int	 3
?AddTail@?$CList@PAVCChartBozoItem@@PAV1@@@QAEPAU__POSITION@@PAVCChartBozoItem@@@Z ENDP ; CList<CChartBozoItem *,CChartBozoItem *>::AddTail
_TEXT	ENDS
; Function compile flags: /Ogtp
; File C:\Program Files (x86)\Microsoft Visual Studio\2019\Community\VC\Tools\MSVC\14.29.30133\atlmfc\include\afxtempl.h
;	COMDAT ??0?$CList@PAVCChartBozoItem@@PAV1@@@QAE@H@Z
_TEXT	SEGMENT
_nBlockSize$ = 8					; size = 4
??0?$CList@PAVCChartBozoItem@@PAV1@@@QAE@H@Z PROC	; CList<CChartBozoItem *,CChartBozoItem *>::CList<CChartBozoItem *,CChartBozoItem *>, COMDAT
; _this$ = ecx

; 851  : {

  00000	55		 push	 ebp
  00001	8b ec		 mov	 ebp, esp

; 852  : 	ASSERT(nBlockSize > 0);
; 853  : 
; 854  : 	m_nCount = 0;
; 855  : 	m_pNodeHead = m_pNodeTail = m_pNodeFree = NULL;
; 856  : 	m_pBlocks = NULL;
; 857  : 	m_nBlockSize = nBlockSize;

  00003	8b 45 08	 mov	 eax, DWORD PTR _nBlockSize$[ebp]
  00006	89 41 18	 mov	 DWORD PTR [ecx+24], eax

; 858  : }

  00009	8b c1		 mov	 eax, ecx
  0000b	c7 01 00 00 00
	00		 mov	 DWORD PTR [ecx], OFFSET ??_7?$CList@PAVCChartBozoItem@@PAV1@@@6B@
  00011	c7 41 0c 00 00
	00 00		 mov	 DWORD PTR [ecx+12], 0
  00018	c7 41 10 00 00
	00 00		 mov	 DWORD PTR [ecx+16], 0
  0001f	c7 41 08 00 00
	00 00		 mov	 DWORD PTR [ecx+8], 0
  00026	c7 41 04 00 00
	00 00		 mov	 DWORD PTR [ecx+4], 0
  0002d	c7 41 14 00 00
	00 00		 mov	 DWORD PTR [ecx+20], 0
  00034	5d		 pop	 ebp
  00035	c2 04 00	 ret	 4
??0?$CList@PAVCChartBozoItem@@PAV1@@@QAE@H@Z ENDP	; CList<CChartBozoItem *,CChartBozoItem *>::CList<CChartBozoItem *,CChartBozoItem *>
_TEXT	ENDS
; Function compile flags: /Ogtp
;	COMDAT ??_GCChartItemMarket@@UAEPAXI@Z
_TEXT	SEGMENT
___flags$ = 8						; size = 4
??_GCChartItemMarket@@UAEPAXI@Z PROC			; CChartItemMarket::`scalar deleting destructor', COMDAT
; _this$ = ecx
  00000	55		 push	 ebp
  00001	8b ec		 mov	 ebp, esp
  00003	f6 45 08 01	 test	 BYTE PTR ___flags$[ebp], 1
  00007	56		 push	 esi
  00008	8b f1		 mov	 esi, ecx
  0000a	c7 06 00 00 00
	00		 mov	 DWORD PTR [esi], OFFSET ??_7CChartItemMarket@@6B@
  00010	74 0e		 je	 SHORT $LN4@scalar
  00012	68 e0 00 00 00	 push	 224			; 000000e0H
  00017	56		 push	 esi
  00018	e8 00 00 00 00	 call	 ??3@YAXPAXI@Z		; operator delete
  0001d	83 c4 08	 add	 esp, 8
$LN4@scalar:
  00020	8b c6		 mov	 eax, esi
  00022	5e		 pop	 esi
  00023	5d		 pop	 ebp
  00024	c2 04 00	 ret	 4
??_GCChartItemMarket@@UAEPAXI@Z ENDP			; CChartItemMarket::`scalar deleting destructor'
_TEXT	ENDS
; Function compile flags: /Ogtp
; File D:\git\src\IBK\IBK_DRFN\ProjSrc\SrcDrfn\DrCommon\PartnerMng\ChartItemMarket.cpp
; File C:\Program Files (x86)\Microsoft Visual Studio\2019\Community\VC\Tools\MSVC\14.29.30133\atlmfc\include\afxcoll.inl
; File D:\git\src\IBK\IBK_DRFN\ProjSrc\SrcDrfn\DrCommon\PartnerMng\ChartItemMarket.cpp
; File C:\Program Files (x86)\Microsoft Visual Studio\2019\Community\VC\Tools\MSVC\14.29.30133\atlmfc\include\afxcoll.inl
; File D:\git\src\IBK\IBK_DRFN\ProjSrc\SrcDrfn\DrCommon\PartnerMng\ChartItemMarket.cpp
; File C:\Program Files (x86)\Microsoft Visual Studio\2019\Community\VC\Tools\MSVC\14.29.30133\atlmfc\include\afxcoll.inl
; File D:\git\src\IBK\IBK_DRFN\ProjSrc\SrcDrfn\DrCommon\PartnerMng\ChartItemMarket.cpp
; File C:\Program Files (x86)\Microsoft Visual Studio\2019\Community\VC\Tools\MSVC\14.29.30133\atlmfc\include\afxcoll.inl
; File D:\git\src\IBK\IBK_DRFN\ProjSrc\SrcDrfn\DrCommon\PartnerMng\ChartItemMarket.cpp
; File C:\Program Files (x86)\Microsoft Visual Studio\2019\Community\VC\Tools\MSVC\14.29.30133\atlmfc\include\afxcoll.inl
; File D:\git\src\IBK\IBK_DRFN\ProjSrc\SrcDrfn\DrCommon\PartnerMng\ChartItemMarket.cpp
; File C:\Program Files (x86)\Microsoft Visual Studio\2019\Community\VC\Tools\MSVC\14.29.30133\atlmfc\include\afxcoll.inl
; File D:\git\src\IBK\IBK_DRFN\ProjSrc\SrcDrfn\DrCommon\PartnerMng\ChartItemMarket.cpp
; File C:\Program Files (x86)\Microsoft Visual Studio\2019\Community\VC\Tools\MSVC\14.29.30133\atlmfc\include\afxcoll.inl
; File D:\git\src\IBK\IBK_DRFN\ProjSrc\SrcDrfn\DrCommon\PartnerMng\ChartItemMarket.cpp
; File C:\Program Files (x86)\Microsoft Visual Studio\2019\Community\VC\Tools\MSVC\14.29.30133\atlmfc\include\cstringt.h
; File D:\git\src\IBK\IBK_DRFN\ProjSrc\SrcDrfn\DrCommon\PartnerMng\ChartItemMarket.cpp
; File C:\Program Files (x86)\Microsoft Visual Studio\2019\Community\VC\Tools\MSVC\14.29.30133\atlmfc\include\cstringt.h
; File C:\Program Files (x86)\Microsoft Visual Studio\2019\Community\VC\Tools\MSVC\14.29.30133\atlmfc\include\atlsimpstr.h
; File C:\Program Files (x86)\Microsoft Visual Studio\2019\Community\VC\Tools\MSVC\14.29.30133\atlmfc\include\cstringt.h
; File D:\git\src\IBK\IBK_DRFN\ProjSrc\SrcDrfn\DrCommon\PartnerMng\ChartItemMarket.cpp
; File C:\Program Files (x86)\Microsoft Visual Studio\2019\Community\VC\Tools\MSVC\14.29.30133\atlmfc\include\cstringt.h
; File C:\Program Files (x86)\Microsoft Visual Studio\2019\Community\VC\Tools\MSVC\14.29.30133\atlmfc\include\atlsimpstr.h
; File C:\Program Files (x86)\Microsoft Visual Studio\2019\Community\VC\Tools\MSVC\14.29.30133\atlmfc\include\cstringt.h
; File D:\git\src\IBK\IBK_DRFN\ProjSrc\SrcDrfn\DrCommon\PartnerMng\ChartItemMarket.cpp
; File C:\Program Files (x86)\Microsoft Visual Studio\2019\Community\VC\Tools\MSVC\14.29.30133\atlmfc\include\cstringt.h
; File C:\Program Files (x86)\Microsoft Visual Studio\2019\Community\VC\Tools\MSVC\14.29.30133\atlmfc\include\atlsimpstr.h
; File C:\Program Files (x86)\Microsoft Visual Studio\2019\Community\VC\Tools\MSVC\14.29.30133\atlmfc\include\cstringt.h
; File D:\git\src\IBK\IBK_DRFN\ProjSrc\SrcDrfn\DrCommon\PartnerMng\ChartItemMarket.cpp
; File C:\Program Files (x86)\Microsoft Visual Studio\2019\Community\VC\Tools\MSVC\14.29.30133\atlmfc\include\cstringt.h
; File D:\git\src\IBK\IBK_DRFN\ProjSrc\SrcDrfn\DrCommon\PartnerMng\ChartItemMarket.cpp
; File C:\Program Files (x86)\Microsoft Visual Studio\2019\Community\VC\Tools\MSVC\14.29.30133\atlmfc\include\cstringt.h
; File D:\git\src\IBK\IBK_DRFN\ProjSrc\SrcDrfn\DrCommon\PartnerMng\ChartItemMarket.cpp
; File C:\Program Files (x86)\Microsoft Visual Studio\2019\Community\VC\Tools\MSVC\14.29.30133\atlmfc\include\cstringt.h
; File C:\Program Files (x86)\Microsoft Visual Studio\2019\Community\VC\Tools\MSVC\14.29.30133\atlmfc\include\atlsimpstr.h
; File C:\Program Files (x86)\Microsoft Visual Studio\2019\Community\VC\Tools\MSVC\14.29.30133\atlmfc\include\cstringt.h
; File D:\git\src\IBK\IBK_DRFN\ProjSrc\SrcDrfn\DrCommon\PartnerMng\ChartItemMarket.cpp
; File C:\Program Files (x86)\Microsoft Visual Studio\2019\Community\VC\Tools\MSVC\14.29.30133\atlmfc\include\cstringt.h
; File C:\Program Files (x86)\Microsoft Visual Studio\2019\Community\VC\Tools\MSVC\14.29.30133\atlmfc\include\atlsimpstr.h
; File C:\Program Files (x86)\Microsoft Visual Studio\2019\Community\VC\Tools\MSVC\14.29.30133\atlmfc\include\cstringt.h
; File D:\git\src\IBK\IBK_DRFN\ProjSrc\SrcDrfn\DrCommon\PartnerMng\ChartItemMarket.cpp
; File C:\Program Files (x86)\Microsoft Visual Studio\2019\Community\VC\Tools\MSVC\14.29.30133\atlmfc\include\cstringt.h
; File C:\Program Files (x86)\Microsoft Visual Studio\2019\Community\VC\Tools\MSVC\14.29.30133\atlmfc\include\atlsimpstr.h
; File C:\Program Files (x86)\Microsoft Visual Studio\2019\Community\VC\Tools\MSVC\14.29.30133\atlmfc\include\cstringt.h
; File D:\git\src\IBK\IBK_DRFN\ProjSrc\SrcDrfn\DrCommon\PartnerMng\ChartItemMarket.cpp
; File C:\Program Files (x86)\Microsoft Visual Studio\2019\Community\VC\Tools\MSVC\14.29.30133\atlmfc\include\cstringt.h
; File D:\git\src\IBK\IBK_DRFN\ProjSrc\SrcDrfn\DrCommon\PartnerMng\ChartItemMarket.cpp
; File C:\Program Files (x86)\Microsoft Visual Studio\2019\Community\VC\Tools\MSVC\14.29.30133\atlmfc\include\cstringt.h
; File C:\Program Files (x86)\Microsoft Visual Studio\2019\Community\VC\Tools\MSVC\14.29.30133\atlmfc\include\atlsimpstr.h
; File C:\Program Files (x86)\Microsoft Visual Studio\2019\Community\VC\Tools\MSVC\14.29.30133\atlmfc\include\cstringt.h
; File D:\git\src\IBK\IBK_DRFN\ProjSrc\SrcDrfn\DrCommon\PartnerMng\ChartItemMarket.cpp
; File C:\Program Files (x86)\Microsoft Visual Studio\2019\Community\VC\Tools\MSVC\14.29.30133\atlmfc\include\cstringt.h
; File C:\Program Files (x86)\Microsoft Visual Studio\2019\Community\VC\Tools\MSVC\14.29.30133\atlmfc\include\atlsimpstr.h
; File C:\Program Files (x86)\Microsoft Visual Studio\2019\Community\VC\Tools\MSVC\14.29.30133\atlmfc\include\cstringt.h
; File D:\git\src\IBK\IBK_DRFN\ProjSrc\SrcDrfn\DrCommon\PartnerMng\ChartItemMarket.cpp
; File C:\Program Files (x86)\Microsoft Visual Studio\2019\Community\VC\Tools\MSVC\14.29.30133\atlmfc\include\cstringt.h
; File C:\Program Files (x86)\Microsoft Visual Studio\2019\Community\VC\Tools\MSVC\14.29.30133\atlmfc\include\atlsimpstr.h
; File C:\Program Files (x86)\Microsoft Visual Studio\2019\Community\VC\Tools\MSVC\14.29.30133\atlmfc\include\cstringt.h
; File D:\git\src\IBK\IBK_DRFN\ProjSrc\SrcDrfn\DrCommon\PartnerMng\ChartItemMarket.cpp
; File C:\Program Files (x86)\Microsoft Visual Studio\2019\Community\VC\Tools\MSVC\14.29.30133\atlmfc\include\cstringt.h
; File D:\git\src\IBK\IBK_DRFN\ProjSrc\SrcDrfn\DrCommon\PartnerMng\ChartItemMarket.cpp
; File C:\Program Files (x86)\Microsoft Visual Studio\2019\Community\VC\Tools\MSVC\14.29.30133\atlmfc\include\cstringt.h
; File C:\Program Files (x86)\Microsoft Visual Studio\2019\Community\VC\Tools\MSVC\14.29.30133\atlmfc\include\atlsimpstr.h
; File C:\Program Files (x86)\Microsoft Visual Studio\2019\Community\VC\Tools\MSVC\14.29.30133\atlmfc\include\cstringt.h
; File D:\git\src\IBK\IBK_DRFN\ProjSrc\SrcDrfn\DrCommon\PartnerMng\ChartItemMarket.cpp
; File C:\Program Files (x86)\Microsoft Visual Studio\2019\Community\VC\Tools\MSVC\14.29.30133\atlmfc\include\cstringt.h
; File D:\git\src\IBK\IBK_DRFN\ProjSrc\SrcDrfn\DrCommon\PartnerMng\ChartItemMarket.cpp
; File C:\Program Files (x86)\Microsoft Visual Studio\2019\Community\VC\Tools\MSVC\14.29.30133\atlmfc\include\cstringt.h
; File C:\Program Files (x86)\Microsoft Visual Studio\2019\Community\VC\Tools\MSVC\14.29.30133\atlmfc\include\atlsimpstr.h
; File C:\Program Files (x86)\Microsoft Visual Studio\2019\Community\VC\Tools\MSVC\14.29.30133\atlmfc\include\cstringt.h
; File D:\git\src\IBK\IBK_DRFN\ProjSrc\SrcDrfn\DrCommon\PartnerMng\ChartItemMarket.cpp
; File C:\Program Files (x86)\Microsoft Visual Studio\2019\Community\VC\Tools\MSVC\14.29.30133\atlmfc\include\cstringt.h
; File D:\git\src\IBK\IBK_DRFN\ProjSrc\SrcDrfn\DrCommon\PartnerMng\ChartItemMarket.cpp
; File C:\Program Files (x86)\Microsoft Visual Studio\2019\Community\VC\Tools\MSVC\14.29.30133\atlmfc\include\cstringt.h
; File D:\git\src\IBK\IBK_DRFN\ProjSrc\SrcDrfn\DrCommon\PartnerMng\ChartItemMarket.cpp
;	COMDAT ?MakeDataOfSuspensSeContract@CChartItemMarket@@IAEXAAV?$CStringT@DV?$StrTraitMFC_DLL@DV?$ChTraitsCRT@D@ATL@@@@@ATL@@PAVCStringArray@@@Z
_TEXT	SEGMENT
_strCode$ = -48						; size = 4
_strDate$ = -44						; size = 4
_strGrid$ = -40						; size = 4
$T2 = -36						; size = 4
$T3 = -36						; size = 4
$T4 = -36						; size = 4
$T5 = -32						; size = 4
$T6 = -32						; size = 4
$T7 = -32						; size = 4
$T8 = -28						; size = 4
_szFS$ = -24						; size = 4
_szCOL$ = -20						; size = 4
$T9 = -16						; size = 4
__$EHRec$ = -12						; size = 12
$T10 = 8						; size = 4
$T11 = 8						; size = 4
$T12 = 8						; size = 4
$T13 = 8						; size = 4
$T14 = 8						; size = 4
_strData$ = 8						; size = 4
_szDS$ = 12						; size = 4
_pDataArr$ = 12						; size = 4
?MakeDataOfSuspensSeContract@CChartItemMarket@@IAEXAAV?$CStringT@DV?$StrTraitMFC_DLL@DV?$ChTraitsCRT@D@ATL@@@@@ATL@@PAVCStringArray@@@Z PROC ; CChartItemMarket::MakeDataOfSuspensSeContract, COMDAT
; _this$ = ecx

; 942  : {

  00000	55		 push	 ebp
  00001	8b ec		 mov	 ebp, esp
  00003	6a ff		 push	 -1
  00005	68 00 00 00 00	 push	 __ehhandler$?MakeDataOfSuspensSeContract@CChartItemMarket@@IAEXAAV?$CStringT@DV?$StrTraitMFC_DLL@DV?$ChTraitsCRT@D@ATL@@@@@ATL@@PAVCStringArray@@@Z
  0000a	64 a1 00 00 00
	00		 mov	 eax, DWORD PTR fs:0
  00010	50		 push	 eax
  00011	83 ec 24	 sub	 esp, 36			; 00000024H
  00014	56		 push	 esi
  00015	a1 00 00 00 00	 mov	 eax, DWORD PTR ___security_cookie
  0001a	33 c5		 xor	 eax, ebp
  0001c	50		 push	 eax
  0001d	8d 45 f4	 lea	 eax, DWORD PTR __$EHRec$[ebp]
  00020	64 a3 00 00 00
	00		 mov	 DWORD PTR fs:0, eax
  00026	c7 45 f0 00 00
	00 00		 mov	 DWORD PTR $T9[ebp], 0
; File C:\Program Files (x86)\Microsoft Visual Studio\2019\Community\VC\Tools\MSVC\14.29.30133\atlmfc\include\afxcoll.inl

; 289  : 		if( nIndex < 0 || nIndex >= m_nSize )

  0002d	8b 75 0c	 mov	 esi, DWORD PTR _pDataArr$[ebp]
  00030	83 7e 08 00	 cmp	 DWORD PTR [esi+8], 0
  00034	0f 8e 46 04 00
	00		 jle	 $LN209@MakeDataOf
; File D:\git\src\IBK\IBK_DRFN\ProjSrc\SrcDrfn\DrCommon\PartnerMng\ChartItemMarket.cpp

; 943  : 	CString strCode = pDataArr->GetAt(0);

  0003a	ff 76 04	 push	 DWORD PTR [esi+4]
  0003d	8d 4d d0	 lea	 ecx, DWORD PTR _strCode$[ebp]
  00040	ff 15 00 00 00
	00		 call	 DWORD PTR __imp_??0?$CStringT@DV?$StrTraitMFC_DLL@DV?$ChTraitsCRT@D@ATL@@@@@ATL@@QAE@ABV01@@Z
; File C:\Program Files (x86)\Microsoft Visual Studio\2019\Community\VC\Tools\MSVC\14.29.30133\atlmfc\include\afxcoll.inl

; 289  : 		if( nIndex < 0 || nIndex >= m_nSize )

  00046	83 7e 08 01	 cmp	 DWORD PTR [esi+8], 1
; File D:\git\src\IBK\IBK_DRFN\ProjSrc\SrcDrfn\DrCommon\PartnerMng\ChartItemMarket.cpp

; 943  : 	CString strCode = pDataArr->GetAt(0);

  0004a	c7 45 fc 00 00
	00 00		 mov	 DWORD PTR __$EHRec$[ebp+8], 0
; File C:\Program Files (x86)\Microsoft Visual Studio\2019\Community\VC\Tools\MSVC\14.29.30133\atlmfc\include\afxcoll.inl

; 289  : 		if( nIndex < 0 || nIndex >= m_nSize )

  00051	0f 8e 29 04 00
	00		 jle	 $LN209@MakeDataOf

; 291  : 		return m_pData[nIndex]; }

  00057	8b 46 04	 mov	 eax, DWORD PTR [esi+4]
; File D:\git\src\IBK\IBK_DRFN\ProjSrc\SrcDrfn\DrCommon\PartnerMng\ChartItemMarket.cpp

; 944  : 	CString strDate = pDataArr->GetAt(1);

  0005a	8d 4d d4	 lea	 ecx, DWORD PTR _strDate$[ebp]
; File C:\Program Files (x86)\Microsoft Visual Studio\2019\Community\VC\Tools\MSVC\14.29.30133\atlmfc\include\afxcoll.inl

; 291  : 		return m_pData[nIndex]; }

  0005d	83 c0 04	 add	 eax, 4
; File D:\git\src\IBK\IBK_DRFN\ProjSrc\SrcDrfn\DrCommon\PartnerMng\ChartItemMarket.cpp

; 944  : 	CString strDate = pDataArr->GetAt(1);

  00060	50		 push	 eax
  00061	ff 15 00 00 00
	00		 call	 DWORD PTR __imp_??0?$CStringT@DV?$StrTraitMFC_DLL@DV?$ChTraitsCRT@D@ATL@@@@@ATL@@QAE@ABV01@@Z
; File C:\Program Files (x86)\Microsoft Visual Studio\2019\Community\VC\Tools\MSVC\14.29.30133\atlmfc\include\afxcoll.inl

; 289  : 		if( nIndex < 0 || nIndex >= m_nSize )

  00067	83 7e 08 02	 cmp	 DWORD PTR [esi+8], 2
; File D:\git\src\IBK\IBK_DRFN\ProjSrc\SrcDrfn\DrCommon\PartnerMng\ChartItemMarket.cpp

; 944  : 	CString strDate = pDataArr->GetAt(1);

  0006b	c6 45 fc 01	 mov	 BYTE PTR __$EHRec$[ebp+8], 1
; File C:\Program Files (x86)\Microsoft Visual Studio\2019\Community\VC\Tools\MSVC\14.29.30133\atlmfc\include\afxcoll.inl

; 289  : 		if( nIndex < 0 || nIndex >= m_nSize )

  0006f	0f 8e 0b 04 00
	00		 jle	 $LN209@MakeDataOf

; 291  : 		return m_pData[nIndex]; }

  00075	8b 46 04	 mov	 eax, DWORD PTR [esi+4]
; File D:\git\src\IBK\IBK_DRFN\ProjSrc\SrcDrfn\DrCommon\PartnerMng\ChartItemMarket.cpp

; 945  : 	CString strGrid = pDataArr->GetAt(2);

  00078	8d 4d d8	 lea	 ecx, DWORD PTR _strGrid$[ebp]
; File C:\Program Files (x86)\Microsoft Visual Studio\2019\Community\VC\Tools\MSVC\14.29.30133\atlmfc\include\afxcoll.inl

; 291  : 		return m_pData[nIndex]; }

  0007b	83 c0 08	 add	 eax, 8
; File D:\git\src\IBK\IBK_DRFN\ProjSrc\SrcDrfn\DrCommon\PartnerMng\ChartItemMarket.cpp

; 945  : 	CString strGrid = pDataArr->GetAt(2);

  0007e	50		 push	 eax
  0007f	ff 15 00 00 00
	00		 call	 DWORD PTR __imp_??0?$CStringT@DV?$StrTraitMFC_DLL@DV?$ChTraitsCRT@D@ATL@@@@@ATL@@QAE@ABV01@@Z

; 946  : 
; 947  : 	CString szDS, szFS, szCOL;

  00085	8d 4d 0c	 lea	 ecx, DWORD PTR _szDS$[ebp]
  00088	ff 15 00 00 00
	00		 call	 DWORD PTR __imp_??0?$CStringT@DV?$StrTraitMFC_DLL@DV?$ChTraitsCRT@D@ATL@@@@@ATL@@QAE@XZ
  0008e	8d 4d e8	 lea	 ecx, DWORD PTR _szFS$[ebp]
  00091	ff 15 00 00 00
	00		 call	 DWORD PTR __imp_??0?$CStringT@DV?$StrTraitMFC_DLL@DV?$ChTraitsCRT@D@ATL@@@@@ATL@@QAE@XZ
  00097	8d 4d ec	 lea	 ecx, DWORD PTR _szCOL$[ebp]
  0009a	ff 15 00 00 00
	00		 call	 DWORD PTR __imp_??0?$CStringT@DV?$StrTraitMFC_DLL@DV?$ChTraitsCRT@D@ATL@@@@@ATL@@QAE@XZ

; 948  : 	szDS = sDS;	szFS = sFS;	szCOL = sCOL;

  000a0	6a 7f		 push	 127			; 0000007fH
  000a2	8d 4d 0c	 lea	 ecx, DWORD PTR _szDS$[ebp]
  000a5	c6 45 fc 05	 mov	 BYTE PTR __$EHRec$[ebp+8], 5
  000a9	ff 15 00 00 00
	00		 call	 DWORD PTR __imp_??4?$CStringT@DV?$StrTraitMFC_DLL@DV?$ChTraitsCRT@D@ATL@@@@@ATL@@QAEAAV01@D@Z
  000af	6a 0d		 push	 13			; 0000000dH
  000b1	8d 4d e8	 lea	 ecx, DWORD PTR _szFS$[ebp]
  000b4	ff 15 00 00 00
	00		 call	 DWORD PTR __imp_??4?$CStringT@DV?$StrTraitMFC_DLL@DV?$ChTraitsCRT@D@ATL@@@@@ATL@@QAEAAV01@D@Z
  000ba	6a 0a		 push	 10			; 0000000aH
  000bc	8d 4d ec	 lea	 ecx, DWORD PTR _szCOL$[ebp]
  000bf	ff 15 00 00 00
	00		 call	 DWORD PTR __imp_??4?$CStringT@DV?$StrTraitMFC_DLL@DV?$ChTraitsCRT@D@ATL@@@@@ATL@@QAEAAV01@D@Z
; File C:\Program Files (x86)\Microsoft Visual Studio\2019\Community\VC\Tools\MSVC\14.29.30133\atlmfc\include\cstringt.h

; 2412 : 		CStringT strResult( str2.GetManager() );

  000c5	8d 4d 0c	 lea	 ecx, DWORD PTR _szDS$[ebp]
; File D:\git\src\IBK\IBK_DRFN\ProjSrc\SrcDrfn\DrCommon\PartnerMng\ChartItemMarket.cpp

; 959  : 			strData += "30301"	+ szDS + strCode + szFS;	//  

  000c8	c6 45 fc 06	 mov	 BYTE PTR __$EHRec$[ebp+8], 6
; File C:\Program Files (x86)\Microsoft Visual Studio\2019\Community\VC\Tools\MSVC\14.29.30133\atlmfc\include\cstringt.h

; 2412 : 		CStringT strResult( str2.GetManager() );

  000cc	ff 15 00 00 00
	00		 call	 DWORD PTR __imp_?GetManager@?$CStringT@DV?$StrTraitMFC_DLL@DV?$ChTraitsCRT@D@ATL@@@@@ATL@@QBEPAUIAtlStringMgr@2@XZ
  000d2	50		 push	 eax
  000d3	8d 4d e0	 lea	 ecx, DWORD PTR $T7[ebp]
  000d6	ff 15 00 00 00
	00		 call	 DWORD PTR __imp_??0?$CStringT@DV?$StrTraitMFC_DLL@DV?$ChTraitsCRT@D@ATL@@@@@ATL@@QAE@PAUIAtlStringMgr@1@@Z
; File C:\Program Files (x86)\Microsoft Visual Studio\2019\Community\VC\Tools\MSVC\14.29.30133\atlmfc\include\atlsimpstr.h

; 519  : 		return( GetData()->nDataLength );

  000dc	8b 45 0c	 mov	 eax, DWORD PTR _szDS$[ebp]
; File C:\Program Files (x86)\Microsoft Visual Studio\2019\Community\VC\Tools\MSVC\14.29.30133\atlmfc\include\cstringt.h

; 2416 : 		return( strResult );

  000df	c7 45 f0 01 00
	00 00		 mov	 DWORD PTR $T9[ebp], 1
  000e6	ff 70 f4	 push	 DWORD PTR [eax-12]
  000e9	50		 push	 eax
  000ea	6a 05		 push	 5
  000ec	8d 45 e0	 lea	 eax, DWORD PTR $T7[ebp]
  000ef	68 00 00 00 00	 push	 OFFSET ??_C@_05GNFKCGLE@30301@
  000f4	50		 push	 eax
  000f5	ff 15 00 00 00
	00		 call	 DWORD PTR __imp_?Concatenate@?$CSimpleStringT@D$00@ATL@@KAXAAV12@PBDH1H@Z
  000fb	83 c4 14	 add	 esp, 20			; 00000014H

; 2390 : 		CStringT strResult( str1.GetManager() );

  000fe	8d 4d e0	 lea	 ecx, DWORD PTR $T7[ebp]
; File D:\git\src\IBK\IBK_DRFN\ProjSrc\SrcDrfn\DrCommon\PartnerMng\ChartItemMarket.cpp

; 959  : 			strData += "30301"	+ szDS + strCode + szFS;	//  

  00101	c6 45 fc 07	 mov	 BYTE PTR __$EHRec$[ebp+8], 7
; File C:\Program Files (x86)\Microsoft Visual Studio\2019\Community\VC\Tools\MSVC\14.29.30133\atlmfc\include\cstringt.h

; 2390 : 		CStringT strResult( str1.GetManager() );

  00105	ff 15 00 00 00
	00		 call	 DWORD PTR __imp_?GetManager@?$CStringT@DV?$StrTraitMFC_DLL@DV?$ChTraitsCRT@D@ATL@@@@@ATL@@QBEPAUIAtlStringMgr@2@XZ
  0010b	50		 push	 eax
  0010c	8d 4d e4	 lea	 ecx, DWORD PTR $T8[ebp]
  0010f	ff 15 00 00 00
	00		 call	 DWORD PTR __imp_??0?$CStringT@DV?$StrTraitMFC_DLL@DV?$ChTraitsCRT@D@ATL@@@@@ATL@@QAE@PAUIAtlStringMgr@1@@Z
; File C:\Program Files (x86)\Microsoft Visual Studio\2019\Community\VC\Tools\MSVC\14.29.30133\atlmfc\include\atlsimpstr.h

; 519  : 		return( GetData()->nDataLength );

  00115	8b 45 d0	 mov	 eax, DWORD PTR _strCode$[ebp]
  00118	8b 4d e0	 mov	 ecx, DWORD PTR $T7[ebp]
; File C:\Program Files (x86)\Microsoft Visual Studio\2019\Community\VC\Tools\MSVC\14.29.30133\atlmfc\include\cstringt.h

; 2394 : 		return( strResult );

  0011b	c7 45 f0 03 00
	00 00		 mov	 DWORD PTR $T9[ebp], 3
  00122	ff 70 f4	 push	 DWORD PTR [eax-12]
  00125	50		 push	 eax
  00126	ff 71 f4	 push	 DWORD PTR [ecx-12]
  00129	8d 45 e4	 lea	 eax, DWORD PTR $T8[ebp]
  0012c	51		 push	 ecx
  0012d	50		 push	 eax
  0012e	ff 15 00 00 00
	00		 call	 DWORD PTR __imp_?Concatenate@?$CSimpleStringT@D$00@ATL@@KAXAAV12@PBDH1H@Z
  00134	83 c4 14	 add	 esp, 20			; 00000014H

; 2390 : 		CStringT strResult( str1.GetManager() );

  00137	8d 4d e4	 lea	 ecx, DWORD PTR $T8[ebp]
; File D:\git\src\IBK\IBK_DRFN\ProjSrc\SrcDrfn\DrCommon\PartnerMng\ChartItemMarket.cpp

; 959  : 			strData += "30301"	+ szDS + strCode + szFS;	//  

  0013a	c6 45 fc 08	 mov	 BYTE PTR __$EHRec$[ebp+8], 8
; File C:\Program Files (x86)\Microsoft Visual Studio\2019\Community\VC\Tools\MSVC\14.29.30133\atlmfc\include\cstringt.h

; 2390 : 		CStringT strResult( str1.GetManager() );

  0013e	ff 15 00 00 00
	00		 call	 DWORD PTR __imp_?GetManager@?$CStringT@DV?$StrTraitMFC_DLL@DV?$ChTraitsCRT@D@ATL@@@@@ATL@@QBEPAUIAtlStringMgr@2@XZ
  00144	50		 push	 eax
  00145	8d 4d dc	 lea	 ecx, DWORD PTR $T4[ebp]
  00148	ff 15 00 00 00
	00		 call	 DWORD PTR __imp_??0?$CStringT@DV?$StrTraitMFC_DLL@DV?$ChTraitsCRT@D@ATL@@@@@ATL@@QAE@PAUIAtlStringMgr@1@@Z
; File C:\Program Files (x86)\Microsoft Visual Studio\2019\Community\VC\Tools\MSVC\14.29.30133\atlmfc\include\atlsimpstr.h

; 519  : 		return( GetData()->nDataLength );

  0014e	8b 45 e8	 mov	 eax, DWORD PTR _szFS$[ebp]
  00151	8b 4d e4	 mov	 ecx, DWORD PTR $T8[ebp]
; File C:\Program Files (x86)\Microsoft Visual Studio\2019\Community\VC\Tools\MSVC\14.29.30133\atlmfc\include\cstringt.h

; 2394 : 		return( strResult );

  00154	c7 45 f0 07 00
	00 00		 mov	 DWORD PTR $T9[ebp], 7
  0015b	ff 70 f4	 push	 DWORD PTR [eax-12]
  0015e	50		 push	 eax
  0015f	ff 71 f4	 push	 DWORD PTR [ecx-12]
  00162	8d 45 dc	 lea	 eax, DWORD PTR $T4[ebp]
  00165	51		 push	 ecx
  00166	50		 push	 eax
  00167	ff 15 00 00 00
	00		 call	 DWORD PTR __imp_?Concatenate@?$CSimpleStringT@D$00@ATL@@KAXAAV12@PBDH1H@Z
; File D:\git\src\IBK\IBK_DRFN\ProjSrc\SrcDrfn\DrCommon\PartnerMng\ChartItemMarket.cpp

; 959  : 			strData += "30301"	+ szDS + strCode + szFS;	//  

  0016d	8b 75 08	 mov	 esi, DWORD PTR _strData$[ebp]
  00170	8d 45 dc	 lea	 eax, DWORD PTR $T4[ebp]
; File C:\Program Files (x86)\Microsoft Visual Studio\2019\Community\VC\Tools\MSVC\14.29.30133\atlmfc\include\cstringt.h

; 2392 : 		CThisSimpleString::Concatenate( strResult, str1, str1.GetLength(), str2, str2.GetLength() );

  00173	83 c4 14	 add	 esp, 20			; 00000014H
; File D:\git\src\IBK\IBK_DRFN\ProjSrc\SrcDrfn\DrCommon\PartnerMng\ChartItemMarket.cpp

; 959  : 			strData += "30301"	+ szDS + strCode + szFS;	//  

  00176	50		 push	 eax
  00177	8b ce		 mov	 ecx, esi
  00179	ff 15 00 00 00
	00		 call	 DWORD PTR __imp_??Y?$CStringT@DV?$StrTraitMFC_DLL@DV?$ChTraitsCRT@D@ATL@@@@@ATL@@QAEAAV01@ABV?$CSimpleStringT@D$00@1@@Z
  0017f	8d 4d dc	 lea	 ecx, DWORD PTR $T4[ebp]
  00182	ff 15 00 00 00
	00		 call	 DWORD PTR __imp_??1?$CStringT@DV?$StrTraitMFC_DLL@DV?$ChTraitsCRT@D@ATL@@@@@ATL@@QAE@XZ
  00188	8d 4d e4	 lea	 ecx, DWORD PTR $T8[ebp]
  0018b	ff 15 00 00 00
	00		 call	 DWORD PTR __imp_??1?$CStringT@DV?$StrTraitMFC_DLL@DV?$ChTraitsCRT@D@ATL@@@@@ATL@@QAE@XZ
  00191	8d 4d e0	 lea	 ecx, DWORD PTR $T7[ebp]
  00194	ff 15 00 00 00
	00		 call	 DWORD PTR __imp_??1?$CStringT@DV?$StrTraitMFC_DLL@DV?$ChTraitsCRT@D@ATL@@@@@ATL@@QAE@XZ
; File C:\Program Files (x86)\Microsoft Visual Studio\2019\Community\VC\Tools\MSVC\14.29.30133\atlmfc\include\cstringt.h

; 2412 : 		CStringT strResult( str2.GetManager() );

  0019a	8d 4d 0c	 lea	 ecx, DWORD PTR _szDS$[ebp]
; File D:\git\src\IBK\IBK_DRFN\ProjSrc\SrcDrfn\DrCommon\PartnerMng\ChartItemMarket.cpp

; 960  : 			strData += "103306" + szDS + strDate + szFS;	// 

  0019d	c6 45 fc 09	 mov	 BYTE PTR __$EHRec$[ebp+8], 9
; File C:\Program Files (x86)\Microsoft Visual Studio\2019\Community\VC\Tools\MSVC\14.29.30133\atlmfc\include\cstringt.h

; 2412 : 		CStringT strResult( str2.GetManager() );

  001a1	ff 15 00 00 00
	00		 call	 DWORD PTR __imp_?GetManager@?$CStringT@DV?$StrTraitMFC_DLL@DV?$ChTraitsCRT@D@ATL@@@@@ATL@@QBEPAUIAtlStringMgr@2@XZ
  001a7	50		 push	 eax
  001a8	8d 4d e0	 lea	 ecx, DWORD PTR $T6[ebp]
  001ab	ff 15 00 00 00
	00		 call	 DWORD PTR __imp_??0?$CStringT@DV?$StrTraitMFC_DLL@DV?$ChTraitsCRT@D@ATL@@@@@ATL@@QAE@PAUIAtlStringMgr@1@@Z
; File C:\Program Files (x86)\Microsoft Visual Studio\2019\Community\VC\Tools\MSVC\14.29.30133\atlmfc\include\atlsimpstr.h

; 519  : 		return( GetData()->nDataLength );

  001b1	8b 45 0c	 mov	 eax, DWORD PTR _szDS$[ebp]
; File C:\Program Files (x86)\Microsoft Visual Studio\2019\Community\VC\Tools\MSVC\14.29.30133\atlmfc\include\cstringt.h

; 2416 : 		return( strResult );

  001b4	c7 45 f0 08 00
	00 00		 mov	 DWORD PTR $T9[ebp], 8
  001bb	ff 70 f4	 push	 DWORD PTR [eax-12]
  001be	50		 push	 eax
  001bf	6a 06		 push	 6
  001c1	8d 45 e0	 lea	 eax, DWORD PTR $T6[ebp]
  001c4	68 00 00 00 00	 push	 OFFSET ??_C@_06MBJFGIDG@103306@
  001c9	50		 push	 eax
  001ca	ff 15 00 00 00
	00		 call	 DWORD PTR __imp_?Concatenate@?$CSimpleStringT@D$00@ATL@@KAXAAV12@PBDH1H@Z
  001d0	83 c4 14	 add	 esp, 20			; 00000014H

; 2390 : 		CStringT strResult( str1.GetManager() );

  001d3	8d 4d e0	 lea	 ecx, DWORD PTR $T6[ebp]
; File D:\git\src\IBK\IBK_DRFN\ProjSrc\SrcDrfn\DrCommon\PartnerMng\ChartItemMarket.cpp

; 960  : 			strData += "103306" + szDS + strDate + szFS;	// 

  001d6	c6 45 fc 0a	 mov	 BYTE PTR __$EHRec$[ebp+8], 10 ; 0000000aH
; File C:\Program Files (x86)\Microsoft Visual Studio\2019\Community\VC\Tools\MSVC\14.29.30133\atlmfc\include\cstringt.h

; 2390 : 		CStringT strResult( str1.GetManager() );

  001da	ff 15 00 00 00
	00		 call	 DWORD PTR __imp_?GetManager@?$CStringT@DV?$StrTraitMFC_DLL@DV?$ChTraitsCRT@D@ATL@@@@@ATL@@QBEPAUIAtlStringMgr@2@XZ
  001e0	50		 push	 eax
  001e1	8d 4d 08	 lea	 ecx, DWORD PTR $T14[ebp]
  001e4	ff 15 00 00 00
	00		 call	 DWORD PTR __imp_??0?$CStringT@DV?$StrTraitMFC_DLL@DV?$ChTraitsCRT@D@ATL@@@@@ATL@@QAE@PAUIAtlStringMgr@1@@Z
; File C:\Program Files (x86)\Microsoft Visual Studio\2019\Community\VC\Tools\MSVC\14.29.30133\atlmfc\include\atlsimpstr.h

; 519  : 		return( GetData()->nDataLength );

  001ea	8b 45 d4	 mov	 eax, DWORD PTR _strDate$[ebp]
  001ed	8b 4d e0	 mov	 ecx, DWORD PTR $T6[ebp]
; File C:\Program Files (x86)\Microsoft Visual Studio\2019\Community\VC\Tools\MSVC\14.29.30133\atlmfc\include\cstringt.h

; 2394 : 		return( strResult );

  001f0	c7 45 f0 18 00
	00 00		 mov	 DWORD PTR $T9[ebp], 24	; 00000018H
  001f7	ff 70 f4	 push	 DWORD PTR [eax-12]
  001fa	50		 push	 eax
  001fb	ff 71 f4	 push	 DWORD PTR [ecx-12]
  001fe	8d 45 08	 lea	 eax, DWORD PTR $T14[ebp]
  00201	51		 push	 ecx
  00202	50		 push	 eax
  00203	ff 15 00 00 00
	00		 call	 DWORD PTR __imp_?Concatenate@?$CSimpleStringT@D$00@ATL@@KAXAAV12@PBDH1H@Z
  00209	83 c4 14	 add	 esp, 20			; 00000014H

; 2390 : 		CStringT strResult( str1.GetManager() );

  0020c	8d 4d 08	 lea	 ecx, DWORD PTR $T14[ebp]
; File D:\git\src\IBK\IBK_DRFN\ProjSrc\SrcDrfn\DrCommon\PartnerMng\ChartItemMarket.cpp

; 960  : 			strData += "103306" + szDS + strDate + szFS;	// 

  0020f	c6 45 fc 0b	 mov	 BYTE PTR __$EHRec$[ebp+8], 11 ; 0000000bH
; File C:\Program Files (x86)\Microsoft Visual Studio\2019\Community\VC\Tools\MSVC\14.29.30133\atlmfc\include\cstringt.h

; 2390 : 		CStringT strResult( str1.GetManager() );

  00213	ff 15 00 00 00
	00		 call	 DWORD PTR __imp_?GetManager@?$CStringT@DV?$StrTraitMFC_DLL@DV?$ChTraitsCRT@D@ATL@@@@@ATL@@QBEPAUIAtlStringMgr@2@XZ
  00219	50		 push	 eax
  0021a	8d 4d dc	 lea	 ecx, DWORD PTR $T3[ebp]
  0021d	ff 15 00 00 00
	00		 call	 DWORD PTR __imp_??0?$CStringT@DV?$StrTraitMFC_DLL@DV?$ChTraitsCRT@D@ATL@@@@@ATL@@QAE@PAUIAtlStringMgr@1@@Z
; File C:\Program Files (x86)\Microsoft Visual Studio\2019\Community\VC\Tools\MSVC\14.29.30133\atlmfc\include\atlsimpstr.h

; 519  : 		return( GetData()->nDataLength );

  00223	8b 45 e8	 mov	 eax, DWORD PTR _szFS$[ebp]
  00226	8b 4d 08	 mov	 ecx, DWORD PTR $T14[ebp]
; File C:\Program Files (x86)\Microsoft Visual Studio\2019\Community\VC\Tools\MSVC\14.29.30133\atlmfc\include\cstringt.h

; 2394 : 		return( strResult );

  00229	c7 45 f0 38 00
	00 00		 mov	 DWORD PTR $T9[ebp], 56	; 00000038H
  00230	ff 70 f4	 push	 DWORD PTR [eax-12]
  00233	50		 push	 eax
  00234	ff 71 f4	 push	 DWORD PTR [ecx-12]
  00237	8d 45 dc	 lea	 eax, DWORD PTR $T3[ebp]
  0023a	51		 push	 ecx
  0023b	50		 push	 eax
  0023c	ff 15 00 00 00
	00		 call	 DWORD PTR __imp_?Concatenate@?$CSimpleStringT@D$00@ATL@@KAXAAV12@PBDH1H@Z
  00242	83 c4 14	 add	 esp, 20			; 00000014H
; File D:\git\src\IBK\IBK_DRFN\ProjSrc\SrcDrfn\DrCommon\PartnerMng\ChartItemMarket.cpp

; 960  : 			strData += "103306" + szDS + strDate + szFS;	// 

  00245	8d 45 dc	 lea	 eax, DWORD PTR $T3[ebp]
  00248	8b ce		 mov	 ecx, esi
  0024a	50		 push	 eax
  0024b	ff 15 00 00 00
	00		 call	 DWORD PTR __imp_??Y?$CStringT@DV?$StrTraitMFC_DLL@DV?$ChTraitsCRT@D@ATL@@@@@ATL@@QAEAAV01@ABV?$CSimpleStringT@D$00@1@@Z
  00251	8d 4d dc	 lea	 ecx, DWORD PTR $T3[ebp]
  00254	ff 15 00 00 00
	00		 call	 DWORD PTR __imp_??1?$CStringT@DV?$StrTraitMFC_DLL@DV?$ChTraitsCRT@D@ATL@@@@@ATL@@QAE@XZ
  0025a	8d 4d 08	 lea	 ecx, DWORD PTR $T14[ebp]
  0025d	ff 15 00 00 00
	00		 call	 DWORD PTR __imp_??1?$CStringT@DV?$StrTraitMFC_DLL@DV?$ChTraitsCRT@D@ATL@@@@@ATL@@QAE@XZ
  00263	8d 4d e0	 lea	 ecx, DWORD PTR $T6[ebp]
  00266	ff 15 00 00 00
	00		 call	 DWORD PTR __imp_??1?$CStringT@DV?$StrTraitMFC_DLL@DV?$ChTraitsCRT@D@ATL@@@@@ATL@@QAE@XZ
; File C:\Program Files (x86)\Microsoft Visual Studio\2019\Community\VC\Tools\MSVC\14.29.30133\atlmfc\include\cstringt.h

; 2412 : 		CStringT strResult( str2.GetManager() );

  0026c	8d 4d 0c	 lea	 ecx, DWORD PTR _szDS$[ebp]
; File D:\git\src\IBK\IBK_DRFN\ProjSrc\SrcDrfn\DrCommon\PartnerMng\ChartItemMarket.cpp

; 961  : 			strData += "103308" + szDS + "1" + szFS;		//  .

  0026f	c6 45 fc 0c	 mov	 BYTE PTR __$EHRec$[ebp+8], 12 ; 0000000cH
; File C:\Program Files (x86)\Microsoft Visual Studio\2019\Community\VC\Tools\MSVC\14.29.30133\atlmfc\include\cstringt.h

; 2412 : 		CStringT strResult( str2.GetManager() );

  00273	ff 15 00 00 00
	00		 call	 DWORD PTR __imp_?GetManager@?$CStringT@DV?$StrTraitMFC_DLL@DV?$ChTraitsCRT@D@ATL@@@@@ATL@@QBEPAUIAtlStringMgr@2@XZ
  00279	50		 push	 eax
  0027a	8d 4d e0	 lea	 ecx, DWORD PTR $T5[ebp]
  0027d	ff 15 00 00 00
	00		 call	 DWORD PTR __imp_??0?$CStringT@DV?$StrTraitMFC_DLL@DV?$ChTraitsCRT@D@ATL@@@@@ATL@@QAE@PAUIAtlStringMgr@1@@Z
; File C:\Program Files (x86)\Microsoft Visual Studio\2019\Community\VC\Tools\MSVC\14.29.30133\atlmfc\include\atlsimpstr.h

; 519  : 		return( GetData()->nDataLength );

  00283	8b 45 0c	 mov	 eax, DWORD PTR _szDS$[ebp]
; File C:\Program Files (x86)\Microsoft Visual Studio\2019\Community\VC\Tools\MSVC\14.29.30133\atlmfc\include\cstringt.h

; 2416 : 		return( strResult );

  00286	c7 45 f0 40 00
	00 00		 mov	 DWORD PTR $T9[ebp], 64	; 00000040H
  0028d	ff 70 f4	 push	 DWORD PTR [eax-12]

; 2413 : 
; 2414 : 		CThisSimpleString::Concatenate( strResult, psz1, CThisSimpleString::StringLength( psz1 ), str2, str2.GetLength() );

  00290	50		 push	 eax
  00291	6a 06		 push	 6
  00293	8d 45 e0	 lea	 eax, DWORD PTR $T5[ebp]
  00296	68 00 00 00 00	 push	 OFFSET ??_C@_06FPBGEFLI@103308@
  0029b	50		 push	 eax
  0029c	ff 15 00 00 00
	00		 call	 DWORD PTR __imp_?Concatenate@?$CSimpleStringT@D$00@ATL@@KAXAAV12@PBDH1H@Z
  002a2	83 c4 14	 add	 esp, 20			; 00000014H

; 2401 : 		CStringT strResult( str1.GetManager() );

  002a5	8d 4d e0	 lea	 ecx, DWORD PTR $T5[ebp]
; File D:\git\src\IBK\IBK_DRFN\ProjSrc\SrcDrfn\DrCommon\PartnerMng\ChartItemMarket.cpp

; 961  : 			strData += "103308" + szDS + "1" + szFS;		//  .

  002a8	c6 45 fc 0d	 mov	 BYTE PTR __$EHRec$[ebp+8], 13 ; 0000000dH
; File C:\Program Files (x86)\Microsoft Visual Studio\2019\Community\VC\Tools\MSVC\14.29.30133\atlmfc\include\cstringt.h

; 2401 : 		CStringT strResult( str1.GetManager() );

  002ac	ff 15 00 00 00
	00		 call	 DWORD PTR __imp_?GetManager@?$CStringT@DV?$StrTraitMFC_DLL@DV?$ChTraitsCRT@D@ATL@@@@@ATL@@QBEPAUIAtlStringMgr@2@XZ
  002b2	50		 push	 eax
  002b3	8d 4d 08	 lea	 ecx, DWORD PTR $T13[ebp]
  002b6	ff 15 00 00 00
	00		 call	 DWORD PTR __imp_??0?$CStringT@DV?$StrTraitMFC_DLL@DV?$ChTraitsCRT@D@ATL@@@@@ATL@@QAE@PAUIAtlStringMgr@1@@Z
; File C:\Program Files (x86)\Microsoft Visual Studio\2019\Community\VC\Tools\MSVC\14.29.30133\atlmfc\include\atlsimpstr.h

; 519  : 		return( GetData()->nDataLength );

  002bc	8b 45 e0	 mov	 eax, DWORD PTR $T5[ebp]
; File C:\Program Files (x86)\Microsoft Visual Studio\2019\Community\VC\Tools\MSVC\14.29.30133\atlmfc\include\cstringt.h

; 2403 : 		CThisSimpleString::Concatenate( strResult, str1, str1.GetLength(), psz2, CThisSimpleString::StringLength( psz2 ) );

  002bf	6a 01		 push	 1
  002c1	68 00 00 00 00	 push	 OFFSET ??_C@_01HIHLOKLC@1@

; 2404 : 
; 2405 : 		return( strResult );

  002c6	c7 45 f0 c0 00
	00 00		 mov	 DWORD PTR $T9[ebp], 192	; 000000c0H
  002cd	ff 70 f4	 push	 DWORD PTR [eax-12]
  002d0	50		 push	 eax
  002d1	8d 45 08	 lea	 eax, DWORD PTR $T13[ebp]
  002d4	50		 push	 eax
  002d5	ff 15 00 00 00
	00		 call	 DWORD PTR __imp_?Concatenate@?$CSimpleStringT@D$00@ATL@@KAXAAV12@PBDH1H@Z
  002db	83 c4 14	 add	 esp, 20			; 00000014H

; 2390 : 		CStringT strResult( str1.GetManager() );

  002de	8d 4d 08	 lea	 ecx, DWORD PTR $T13[ebp]
; File D:\git\src\IBK\IBK_DRFN\ProjSrc\SrcDrfn\DrCommon\PartnerMng\ChartItemMarket.cpp

; 961  : 			strData += "103308" + szDS + "1" + szFS;		//  .

  002e1	c6 45 fc 0e	 mov	 BYTE PTR __$EHRec$[ebp+8], 14 ; 0000000eH
; File C:\Program Files (x86)\Microsoft Visual Studio\2019\Community\VC\Tools\MSVC\14.29.30133\atlmfc\include\cstringt.h

; 2390 : 		CStringT strResult( str1.GetManager() );

  002e5	ff 15 00 00 00
	00		 call	 DWORD PTR __imp_?GetManager@?$CStringT@DV?$StrTraitMFC_DLL@DV?$ChTraitsCRT@D@ATL@@@@@ATL@@QBEPAUIAtlStringMgr@2@XZ
  002eb	50		 push	 eax
  002ec	8d 4d dc	 lea	 ecx, DWORD PTR $T2[ebp]
  002ef	ff 15 00 00 00
	00		 call	 DWORD PTR __imp_??0?$CStringT@DV?$StrTraitMFC_DLL@DV?$ChTraitsCRT@D@ATL@@@@@ATL@@QAE@PAUIAtlStringMgr@1@@Z
; File C:\Program Files (x86)\Microsoft Visual Studio\2019\Community\VC\Tools\MSVC\14.29.30133\atlmfc\include\atlsimpstr.h

; 519  : 		return( GetData()->nDataLength );

  002f5	8b 45 e8	 mov	 eax, DWORD PTR _szFS$[ebp]
  002f8	8b 4d 08	 mov	 ecx, DWORD PTR $T13[ebp]
; File C:\Program Files (x86)\Microsoft Visual Studio\2019\Community\VC\Tools\MSVC\14.29.30133\atlmfc\include\cstringt.h

; 2394 : 		return( strResult );

  002fb	c7 45 f0 c0 01
	00 00		 mov	 DWORD PTR $T9[ebp], 448	; 000001c0H
  00302	ff 70 f4	 push	 DWORD PTR [eax-12]
  00305	50		 push	 eax
  00306	ff 71 f4	 push	 DWORD PTR [ecx-12]
  00309	8d 45 dc	 lea	 eax, DWORD PTR $T2[ebp]
  0030c	51		 push	 ecx
  0030d	50		 push	 eax
  0030e	ff 15 00 00 00
	00		 call	 DWORD PTR __imp_?Concatenate@?$CSimpleStringT@D$00@ATL@@KAXAAV12@PBDH1H@Z
  00314	83 c4 14	 add	 esp, 20			; 00000014H
; File D:\git\src\IBK\IBK_DRFN\ProjSrc\SrcDrfn\DrCommon\PartnerMng\ChartItemMarket.cpp

; 961  : 			strData += "103308" + szDS + "1" + szFS;		//  .

  00317	8d 45 dc	 lea	 eax, DWORD PTR $T2[ebp]
  0031a	8b ce		 mov	 ecx, esi
  0031c	50		 push	 eax
  0031d	ff 15 00 00 00
	00		 call	 DWORD PTR __imp_??Y?$CStringT@DV?$StrTraitMFC_DLL@DV?$ChTraitsCRT@D@ATL@@@@@ATL@@QAEAAV01@ABV?$CSimpleStringT@D$00@1@@Z
  00323	8d 4d dc	 lea	 ecx, DWORD PTR $T2[ebp]
  00326	ff 15 00 00 00
	00		 call	 DWORD PTR __imp_??1?$CStringT@DV?$StrTraitMFC_DLL@DV?$ChTraitsCRT@D@ATL@@@@@ATL@@QAE@XZ
  0032c	8d 4d 08	 lea	 ecx, DWORD PTR $T13[ebp]
  0032f	ff 15 00 00 00
	00		 call	 DWORD PTR __imp_??1?$CStringT@DV?$StrTraitMFC_DLL@DV?$ChTraitsCRT@D@ATL@@@@@ATL@@QAE@XZ
  00335	8d 4d e0	 lea	 ecx, DWORD PTR $T5[ebp]
  00338	ff 15 00 00 00
	00		 call	 DWORD PTR __imp_??1?$CStringT@DV?$StrTraitMFC_DLL@DV?$ChTraitsCRT@D@ATL@@@@@ATL@@QAE@XZ
; File C:\Program Files (x86)\Microsoft Visual Studio\2019\Community\VC\Tools\MSVC\14.29.30133\atlmfc\include\cstringt.h

; 2412 : 		CStringT strResult( str2.GetManager() );

  0033e	8d 4d 0c	 lea	 ecx, DWORD PTR _szDS$[ebp]
; File D:\git\src\IBK\IBK_DRFN\ProjSrc\SrcDrfn\DrCommon\PartnerMng\ChartItemMarket.cpp

; 962  : 			strData += "$103610" + szDS;					//  .

  00341	c6 45 fc 0f	 mov	 BYTE PTR __$EHRec$[ebp+8], 15 ; 0000000fH
; File C:\Program Files (x86)\Microsoft Visual Studio\2019\Community\VC\Tools\MSVC\14.29.30133\atlmfc\include\cstringt.h

; 2412 : 		CStringT strResult( str2.GetManager() );

  00345	ff 15 00 00 00
	00		 call	 DWORD PTR __imp_?GetManager@?$CStringT@DV?$StrTraitMFC_DLL@DV?$ChTraitsCRT@D@ATL@@@@@ATL@@QBEPAUIAtlStringMgr@2@XZ
  0034b	50		 push	 eax
  0034c	8d 4d 08	 lea	 ecx, DWORD PTR $T12[ebp]
  0034f	ff 15 00 00 00
	00		 call	 DWORD PTR __imp_??0?$CStringT@DV?$StrTraitMFC_DLL@DV?$ChTraitsCRT@D@ATL@@@@@ATL@@QAE@PAUIAtlStringMgr@1@@Z
; File C:\Program Files (x86)\Microsoft Visual Studio\2019\Community\VC\Tools\MSVC\14.29.30133\atlmfc\include\atlsimpstr.h

; 519  : 		return( GetData()->nDataLength );

  00355	8b 45 0c	 mov	 eax, DWORD PTR _szDS$[ebp]
; File C:\Program Files (x86)\Microsoft Visual Studio\2019\Community\VC\Tools\MSVC\14.29.30133\atlmfc\include\cstringt.h

; 2416 : 		return( strResult );

  00358	c7 45 f0 00 02
	00 00		 mov	 DWORD PTR $T9[ebp], 512	; 00000200H
  0035f	ff 70 f4	 push	 DWORD PTR [eax-12]
  00362	50		 push	 eax
  00363	6a 07		 push	 7
  00365	8d 45 08	 lea	 eax, DWORD PTR $T12[ebp]
  00368	68 00 00 00 00	 push	 OFFSET ??_C@_07CEKBDJAO@$103610@
  0036d	50		 push	 eax
  0036e	ff 15 00 00 00
	00		 call	 DWORD PTR __imp_?Concatenate@?$CSimpleStringT@D$00@ATL@@KAXAAV12@PBDH1H@Z
  00374	83 c4 14	 add	 esp, 20			; 00000014H
; File D:\git\src\IBK\IBK_DRFN\ProjSrc\SrcDrfn\DrCommon\PartnerMng\ChartItemMarket.cpp

; 962  : 			strData += "$103610" + szDS;					//  .

  00377	8d 45 08	 lea	 eax, DWORD PTR $T12[ebp]
  0037a	8b ce		 mov	 ecx, esi
  0037c	50		 push	 eax
  0037d	ff 15 00 00 00
	00		 call	 DWORD PTR __imp_??Y?$CStringT@DV?$StrTraitMFC_DLL@DV?$ChTraitsCRT@D@ATL@@@@@ATL@@QAEAAV01@ABV?$CSimpleStringT@D$00@1@@Z
  00383	8d 4d 08	 lea	 ecx, DWORD PTR $T12[ebp]
  00386	c6 45 fc 05	 mov	 BYTE PTR __$EHRec$[ebp+8], 5
  0038a	ff 15 00 00 00
	00		 call	 DWORD PTR __imp_??1?$CStringT@DV?$StrTraitMFC_DLL@DV?$ChTraitsCRT@D@ATL@@@@@ATL@@QAE@XZ

; 963  : 			strData += strGrid;								//  .

  00390	8d 45 d8	 lea	 eax, DWORD PTR _strGrid$[ebp]
  00393	8b ce		 mov	 ecx, esi
  00395	50		 push	 eax
  00396	ff 15 00 00 00
	00		 call	 DWORD PTR __imp_??Y?$CStringT@DV?$StrTraitMFC_DLL@DV?$ChTraitsCRT@D@ATL@@@@@ATL@@QAEAAV01@ABV?$CSimpleStringT@D$00@1@@Z
; File C:\Program Files (x86)\Microsoft Visual Studio\2019\Community\VC\Tools\MSVC\14.29.30133\atlmfc\include\cstringt.h

; 2412 : 		CStringT strResult( str2.GetManager() );

  0039c	8d 4d ec	 lea	 ecx, DWORD PTR _szCOL$[ebp]
; File D:\git\src\IBK\IBK_DRFN\ProjSrc\SrcDrfn\DrCommon\PartnerMng\ChartItemMarket.cpp

; 964  : 			strData += "103302" + szCOL;					//	

  0039f	c6 45 fc 10	 mov	 BYTE PTR __$EHRec$[ebp+8], 16 ; 00000010H
; File C:\Program Files (x86)\Microsoft Visual Studio\2019\Community\VC\Tools\MSVC\14.29.30133\atlmfc\include\cstringt.h

; 2412 : 		CStringT strResult( str2.GetManager() );

  003a3	ff 15 00 00 00
	00		 call	 DWORD PTR __imp_?GetManager@?$CStringT@DV?$StrTraitMFC_DLL@DV?$ChTraitsCRT@D@ATL@@@@@ATL@@QBEPAUIAtlStringMgr@2@XZ
  003a9	50		 push	 eax
  003aa	8d 4d 08	 lea	 ecx, DWORD PTR $T11[ebp]
  003ad	ff 15 00 00 00
	00		 call	 DWORD PTR __imp_??0?$CStringT@DV?$StrTraitMFC_DLL@DV?$ChTraitsCRT@D@ATL@@@@@ATL@@QAE@PAUIAtlStringMgr@1@@Z
; File C:\Program Files (x86)\Microsoft Visual Studio\2019\Community\VC\Tools\MSVC\14.29.30133\atlmfc\include\atlsimpstr.h

; 519  : 		return( GetData()->nDataLength );

  003b3	8b 45 ec	 mov	 eax, DWORD PTR _szCOL$[ebp]
; File C:\Program Files (x86)\Microsoft Visual Studio\2019\Community\VC\Tools\MSVC\14.29.30133\atlmfc\include\cstringt.h

; 2416 : 		return( strResult );

  003b6	c7 45 f0 00 04
	00 00		 mov	 DWORD PTR $T9[ebp], 1024 ; 00000400H
  003bd	ff 70 f4	 push	 DWORD PTR [eax-12]
  003c0	50		 push	 eax
  003c1	6a 06		 push	 6
  003c3	8d 45 08	 lea	 eax, DWORD PTR $T11[ebp]
  003c6	68 00 00 00 00	 push	 OFFSET ??_C@_06KFPJKNDC@103302@
  003cb	50		 push	 eax
  003cc	ff 15 00 00 00
	00		 call	 DWORD PTR __imp_?Concatenate@?$CSimpleStringT@D$00@ATL@@KAXAAV12@PBDH1H@Z
  003d2	83 c4 14	 add	 esp, 20			; 00000014H
; File D:\git\src\IBK\IBK_DRFN\ProjSrc\SrcDrfn\DrCommon\PartnerMng\ChartItemMarket.cpp

; 964  : 			strData += "103302" + szCOL;					//	

  003d5	8d 45 08	 lea	 eax, DWORD PTR $T11[ebp]
  003d8	8b ce		 mov	 ecx, esi
  003da	50		 push	 eax
  003db	ff 15 00 00 00
	00		 call	 DWORD PTR __imp_??Y?$CStringT@DV?$StrTraitMFC_DLL@DV?$ChTraitsCRT@D@ATL@@@@@ATL@@QAEAAV01@ABV?$CSimpleStringT@D$00@1@@Z
  003e1	8d 4d 08	 lea	 ecx, DWORD PTR $T11[ebp]
  003e4	ff 15 00 00 00
	00		 call	 DWORD PTR __imp_??1?$CStringT@DV?$StrTraitMFC_DLL@DV?$ChTraitsCRT@D@ATL@@@@@ATL@@QAE@XZ
; File C:\Program Files (x86)\Microsoft Visual Studio\2019\Community\VC\Tools\MSVC\14.29.30133\atlmfc\include\cstringt.h

; 2412 : 		CStringT strResult( str2.GetManager() );

  003ea	8d 4d ec	 lea	 ecx, DWORD PTR _szCOL$[ebp]
; File D:\git\src\IBK\IBK_DRFN\ProjSrc\SrcDrfn\DrCommon\PartnerMng\ChartItemMarket.cpp

; 965  : 			strData += "103201" + szCOL;					//	 

  003ed	c6 45 fc 11	 mov	 BYTE PTR __$EHRec$[ebp+8], 17 ; 00000011H
; File C:\Program Files (x86)\Microsoft Visual Studio\2019\Community\VC\Tools\MSVC\14.29.30133\atlmfc\include\cstringt.h

; 2412 : 		CStringT strResult( str2.GetManager() );

  003f1	ff 15 00 00 00
	00		 call	 DWORD PTR __imp_?GetManager@?$CStringT@DV?$StrTraitMFC_DLL@DV?$ChTraitsCRT@D@ATL@@@@@ATL@@QBEPAUIAtlStringMgr@2@XZ
  003f7	50		 push	 eax
  003f8	8d 4d 08	 lea	 ecx, DWORD PTR $T10[ebp]
  003fb	ff 15 00 00 00
	00		 call	 DWORD PTR __imp_??0?$CStringT@DV?$StrTraitMFC_DLL@DV?$ChTraitsCRT@D@ATL@@@@@ATL@@QAE@PAUIAtlStringMgr@1@@Z

; 2413 : 
; 2414 : 		CThisSimpleString::Concatenate( strResult, psz1, CThisSimpleString::StringLength( psz1 ), str2, str2.GetLength() );

  00401	8b 45 ec	 mov	 eax, DWORD PTR _szCOL$[ebp]

; 2416 : 		return( strResult );

  00404	c7 45 f0 00 08
	00 00		 mov	 DWORD PTR $T9[ebp], 2048 ; 00000800H
  0040b	ff 70 f4	 push	 DWORD PTR [eax-12]
  0040e	50		 push	 eax
  0040f	6a 06		 push	 6
  00411	8d 45 08	 lea	 eax, DWORD PTR $T10[ebp]
  00414	68 00 00 00 00	 push	 OFFSET ??_C@_06DGGIJJJE@103201@
  00419	50		 push	 eax
  0041a	ff 15 00 00 00
	00		 call	 DWORD PTR __imp_?Concatenate@?$CSimpleStringT@D$00@ATL@@KAXAAV12@PBDH1H@Z
  00420	83 c4 14	 add	 esp, 20			; 00000014H
; File D:\git\src\IBK\IBK_DRFN\ProjSrc\SrcDrfn\DrCommon\PartnerMng\ChartItemMarket.cpp

; 965  : 			strData += "103201" + szCOL;					//	 

  00423	8d 45 08	 lea	 eax, DWORD PTR $T10[ebp]
  00426	8b ce		 mov	 ecx, esi
  00428	50		 push	 eax
  00429	ff 15 00 00 00
	00		 call	 DWORD PTR __imp_??Y?$CStringT@DV?$StrTraitMFC_DLL@DV?$ChTraitsCRT@D@ATL@@@@@ATL@@QAEAAV01@ABV?$CSimpleStringT@D$00@1@@Z
  0042f	8d 4d 08	 lea	 ecx, DWORD PTR $T10[ebp]
  00432	ff 15 00 00 00
	00		 call	 DWORD PTR __imp_??1?$CStringT@DV?$StrTraitMFC_DLL@DV?$ChTraitsCRT@D@ATL@@@@@ATL@@QAE@XZ

; 966  : 			break;
; 967  : 
; 968  : /*		case '0':		//
; 969  : 			strData += "30301" + szDS + strCode + szFS;		// 
; 970  : 			strData += "103304" + szDS + strDate + szFS;	// 
; 971  : 			strData += "103306" + szDS + strDate + szFS;	// 
; 972  : 			strData += "103307" + szDS + "1" + szFS;		//  1 0
; 973  : 			//strData += "103308" + szDS + "1" + szFS;		// .
; 974  : 			strData += "103308" + szDS + aUnit + szFS;		// .
; 975  : 			strData += "30301" + szFS;						// 
; 976  : 			strData += "$103410" + szDS;					//  .
; 977  : 			strData += strGrid;								//  .
; 978  : 			strData += "103302" + szCOL;					// 
; 979  : 			strData += "103034" + szCOL;					// 
; 980  : 			strData += "103201" + szCOL;					//  
; 981  : 			break;
; 982  : 
; 983  : 		case '1':		//
; 984  : 			strData += "30301" + szDS + strCode + szFS;		// 
; 985  : 			strData += "103304" + szDS + strDate + szFS;	// 
; 986  : 			strData += "103306" + szDS + strDate + szFS;	// 
; 987  : 			strData += "103307" + szDS + "1" + szFS;		//  1 0, 2
; 988  : 			//strData += "103308" + szDS + "1" + szFS;		// .
; 989  : 			strData += "103308" + szDS + aUnit + szFS;		// .
; 990  : 			strData += "30301" + szFS;						// 
; 991  : 			strData += "$103510" + szDS;					//  .
; 992  : 			strData += strGrid;								//  .
; 993  : 			strData += "103302" + szCOL;					// 
; 994  : 			strData += "103034" + szCOL;					// 
; 995  : 			strData += "103201" + szCOL;					//  
; 996  : 			break;
; 997  : 
; 998  : 		case '6':		//
; 999  : 			strData += "30301" + szDS + strCode + szFS;		// 
; 1000 : 			strData += "103304" + szDS + "1" + szFS;		// 
; 1001 : 			strData += "103307" + szDS + "1" + szFS;		//  
; 1002 : 			//strData += "103308" + szDS + "1" + szFS;		// .
; 1003 : 			strData += "103308" + szDS + aUnit + szFS;		// .
; 1004 : 			strData += "30301" + szFS;						// 
; 1005 : 			strData += "$103511" + szDS;					//  .
; 1006 : 			strData += strGrid;								//  .
; 1007 : 			strData += "103302" + szCOL;					// 
; 1008 : 			strData += "103034" + szCOL;					// 
; 1009 : 			strData += "103201" + szCOL;					//  
; 1010 : 			break;
; 1011 : */
; 1012 : 	}
; 1013 : }

  00438	8d 4d ec	 lea	 ecx, DWORD PTR _szCOL$[ebp]
  0043b	ff 15 00 00 00
	00		 call	 DWORD PTR __imp_??1?$CStringT@DV?$StrTraitMFC_DLL@DV?$ChTraitsCRT@D@ATL@@@@@ATL@@QAE@XZ
  00441	8d 4d e8	 lea	 ecx, DWORD PTR _szFS$[ebp]
  00444	ff 15 00 00 00
	00		 call	 DWORD PTR __imp_??1?$CStringT@DV?$StrTraitMFC_DLL@DV?$ChTraitsCRT@D@ATL@@@@@ATL@@QAE@XZ
  0044a	8d 4d 0c	 lea	 ecx, DWORD PTR _szDS$[ebp]
  0044d	ff 15 00 00 00
	00		 call	 DWORD PTR __imp_??1?$CStringT@DV?$StrTraitMFC_DLL@DV?$ChTraitsCRT@D@ATL@@@@@ATL@@QAE@XZ
  00453	8d 4d d8	 lea	 ecx, DWORD PTR _strGrid$[ebp]
  00456	ff 15 00 00 00
	00		 call	 DWORD PTR __imp_??1?$CStringT@DV?$StrTraitMFC_DLL@DV?$ChTraitsCRT@D@ATL@@@@@ATL@@QAE@XZ
  0045c	8d 4d d4	 lea	 ecx, DWORD PTR _strDate$[ebp]
  0045f	ff 15 00 00 00
	00		 call	 DWORD PTR __imp_??1?$CStringT@DV?$StrTraitMFC_DLL@DV?$ChTraitsCRT@D@ATL@@@@@ATL@@QAE@XZ
  00465	8d 4d d0	 lea	 ecx, DWORD PTR _strCode$[ebp]
  00468	ff 15 00 00 00
	00		 call	 DWORD PTR __imp_??1?$CStringT@DV?$StrTraitMFC_DLL@DV?$ChTraitsCRT@D@ATL@@@@@ATL@@QAE@XZ
  0046e	8b 4d f4	 mov	 ecx, DWORD PTR __$EHRec$[ebp]
  00471	64 89 0d 00 00
	00 00		 mov	 DWORD PTR fs:0, ecx
  00478	59		 pop	 ecx
  00479	5e		 pop	 esi
  0047a	8b e5		 mov	 esp, ebp
  0047c	5d		 pop	 ebp
  0047d	c2 08 00	 ret	 8
$LN209@MakeDataOf:
  00480	e8 00 00 00 00	 call	 ?AfxThrowInvalidArgException@@YGXXZ ; AfxThrowInvalidArgException
$LN211@MakeDataOf:
  00485	cc		 int	 3
_TEXT	ENDS
;	COMDAT text$x
text$x	SEGMENT
__unwindfunclet$?MakeDataOfSuspensSeContract@CChartItemMarket@@IAEXAAV?$CStringT@DV?$StrTraitMFC_DLL@DV?$ChTraitsCRT@D@ATL@@@@@ATL@@PAVCStringArray@@@Z$0:
  00000	8d 4d d0	 lea	 ecx, DWORD PTR _strCode$[ebp]
  00003	ff 25 00 00 00
	00		 jmp	 DWORD PTR __imp_??1?$CStringT@DV?$StrTraitMFC_DLL@DV?$ChTraitsCRT@D@ATL@@@@@ATL@@QAE@XZ
__unwindfunclet$?MakeDataOfSuspensSeContract@CChartItemMarket@@IAEXAAV?$CStringT@DV?$StrTraitMFC_DLL@DV?$ChTraitsCRT@D@ATL@@@@@ATL@@PAVCStringArray@@@Z$1:
  00009	8d 4d d4	 lea	 ecx, DWORD PTR _strDate$[ebp]
  0000c	ff 25 00 00 00
	00		 jmp	 DWORD PTR __imp_??1?$CStringT@DV?$StrTraitMFC_DLL@DV?$ChTraitsCRT@D@ATL@@@@@ATL@@QAE@XZ
__unwindfunclet$?MakeDataOfSuspensSeContract@CChartItemMarket@@IAEXAAV?$CStringT@DV?$StrTraitMFC_DLL@DV?$ChTraitsCRT@D@ATL@@@@@ATL@@PAVCStringArray@@@Z$2:
  00012	8d 4d d8	 lea	 ecx, DWORD PTR _strGrid$[ebp]
  00015	ff 25 00 00 00
	00		 jmp	 DWORD PTR __imp_??1?$CStringT@DV?$StrTraitMFC_DLL@DV?$ChTraitsCRT@D@ATL@@@@@ATL@@QAE@XZ
__unwindfunclet$?MakeDataOfSuspensSeContract@CChartItemMarket@@IAEXAAV?$CStringT@DV?$StrTraitMFC_DLL@DV?$ChTraitsCRT@D@ATL@@@@@ATL@@PAVCStringArray@@@Z$3:
  0001b	8d 4d 0c	 lea	 ecx, DWORD PTR _szDS$[ebp]
  0001e	ff 25 00 00 00
	00		 jmp	 DWORD PTR __imp_??1?$CStringT@DV?$StrTraitMFC_DLL@DV?$ChTraitsCRT@D@ATL@@@@@ATL@@QAE@XZ
__unwindfunclet$?MakeDataOfSuspensSeContract@CChartItemMarket@@IAEXAAV?$CStringT@DV?$StrTraitMFC_DLL@DV?$ChTraitsCRT@D@ATL@@@@@ATL@@PAVCStringArray@@@Z$4:
  00024	8d 4d e8	 lea	 ecx, DWORD PTR _szFS$[ebp]
  00027	ff 25 00 00 00
	00		 jmp	 DWORD PTR __imp_??1?$CStringT@DV?$StrTraitMFC_DLL@DV?$ChTraitsCRT@D@ATL@@@@@ATL@@QAE@XZ
__unwindfunclet$?MakeDataOfSuspensSeContract@CChartItemMarket@@IAEXAAV?$CStringT@DV?$StrTraitMFC_DLL@DV?$ChTraitsCRT@D@ATL@@@@@ATL@@PAVCStringArray@@@Z$5:
  0002d	8d 4d ec	 lea	 ecx, DWORD PTR _szCOL$[ebp]
  00030	ff 25 00 00 00
	00		 jmp	 DWORD PTR __imp_??1?$CStringT@DV?$StrTraitMFC_DLL@DV?$ChTraitsCRT@D@ATL@@@@@ATL@@QAE@XZ
__unwindfunclet$?MakeDataOfSuspensSeContract@CChartItemMarket@@IAEXAAV?$CStringT@DV?$StrTraitMFC_DLL@DV?$ChTraitsCRT@D@ATL@@@@@ATL@@PAVCStringArray@@@Z$18:
  00036	8b 45 f0	 mov	 eax, DWORD PTR $T9[ebp]
  00039	83 e0 01	 and	 eax, 1
  0003c	0f 84 0d 00 00
	00		 je	 $LN41@MakeDataOf
  00042	83 65 f0 fe	 and	 DWORD PTR $T9[ebp], -2	; fffffffeH
  00046	8d 4d e0	 lea	 ecx, DWORD PTR $T7[ebp]
  00049	ff 25 00 00 00
	00		 jmp	 DWORD PTR __imp_??1?$CStringT@DV?$StrTraitMFC_DLL@DV?$ChTraitsCRT@D@ATL@@@@@ATL@@QAE@XZ
$LN41@MakeDataOf:
  0004f	c3		 ret	 0
__unwindfunclet$?MakeDataOfSuspensSeContract@CChartItemMarket@@IAEXAAV?$CStringT@DV?$StrTraitMFC_DLL@DV?$ChTraitsCRT@D@ATL@@@@@ATL@@PAVCStringArray@@@Z$19:
  00050	8b 45 f0	 mov	 eax, DWORD PTR $T9[ebp]
  00053	83 e0 02	 and	 eax, 2
  00056	0f 84 0d 00 00
	00		 je	 $LN54@MakeDataOf
  0005c	83 65 f0 fd	 and	 DWORD PTR $T9[ebp], -3	; fffffffdH
  00060	8d 4d e4	 lea	 ecx, DWORD PTR $T8[ebp]
  00063	ff 25 00 00 00
	00		 jmp	 DWORD PTR __imp_??1?$CStringT@DV?$StrTraitMFC_DLL@DV?$ChTraitsCRT@D@ATL@@@@@ATL@@QAE@XZ
$LN54@MakeDataOf:
  00069	c3		 ret	 0
__unwindfunclet$?MakeDataOfSuspensSeContract@CChartItemMarket@@IAEXAAV?$CStringT@DV?$StrTraitMFC_DLL@DV?$ChTraitsCRT@D@ATL@@@@@ATL@@PAVCStringArray@@@Z$20:
  0006a	8b 45 f0	 mov	 eax, DWORD PTR $T9[ebp]
  0006d	83 e0 04	 and	 eax, 4
  00070	0f 84 0d 00 00
	00		 je	 $LN70@MakeDataOf
  00076	83 65 f0 fb	 and	 DWORD PTR $T9[ebp], -5	; fffffffbH
  0007a	8d 4d dc	 lea	 ecx, DWORD PTR $T4[ebp]
  0007d	ff 25 00 00 00
	00		 jmp	 DWORD PTR __imp_??1?$CStringT@DV?$StrTraitMFC_DLL@DV?$ChTraitsCRT@D@ATL@@@@@ATL@@QAE@XZ
$LN70@MakeDataOf:
  00083	c3		 ret	 0
__unwindfunclet$?MakeDataOfSuspensSeContract@CChartItemMarket@@IAEXAAV?$CStringT@DV?$StrTraitMFC_DLL@DV?$ChTraitsCRT@D@ATL@@@@@ATL@@PAVCStringArray@@@Z$21:
  00084	8b 45 f0	 mov	 eax, DWORD PTR $T9[ebp]
  00087	83 e0 08	 and	 eax, 8
  0008a	0f 84 0d 00 00
	00		 je	 $LN86@MakeDataOf
  00090	83 65 f0 f7	 and	 DWORD PTR $T9[ebp], -9	; fffffff7H
  00094	8d 4d e0	 lea	 ecx, DWORD PTR $T6[ebp]
  00097	ff 25 00 00 00
	00		 jmp	 DWORD PTR __imp_??1?$CStringT@DV?$StrTraitMFC_DLL@DV?$ChTraitsCRT@D@ATL@@@@@ATL@@QAE@XZ
$LN86@MakeDataOf:
  0009d	c3		 ret	 0
__unwindfunclet$?MakeDataOfSuspensSeContract@CChartItemMarket@@IAEXAAV?$CStringT@DV?$StrTraitMFC_DLL@DV?$ChTraitsCRT@D@ATL@@@@@ATL@@PAVCStringArray@@@Z$22:
  0009e	8b 45 f0	 mov	 eax, DWORD PTR $T9[ebp]
  000a1	83 e0 10	 and	 eax, 16			; 00000010H
  000a4	0f 84 0d 00 00
	00		 je	 $LN99@MakeDataOf
  000aa	83 65 f0 ef	 and	 DWORD PTR $T9[ebp], -17	; ffffffefH
  000ae	8d 4d 08	 lea	 ecx, DWORD PTR $T14[ebp]
  000b1	ff 25 00 00 00
	00		 jmp	 DWORD PTR __imp_??1?$CStringT@DV?$StrTraitMFC_DLL@DV?$ChTraitsCRT@D@ATL@@@@@ATL@@QAE@XZ
$LN99@MakeDataOf:
  000b7	c3		 ret	 0
__unwindfunclet$?MakeDataOfSuspensSeContract@CChartItemMarket@@IAEXAAV?$CStringT@DV?$StrTraitMFC_DLL@DV?$ChTraitsCRT@D@ATL@@@@@ATL@@PAVCStringArray@@@Z$23:
  000b8	8b 45 f0	 mov	 eax, DWORD PTR $T9[ebp]
  000bb	83 e0 20	 and	 eax, 32			; 00000020H
  000be	0f 84 0d 00 00
	00		 je	 $LN115@MakeDataOf
  000c4	83 65 f0 df	 and	 DWORD PTR $T9[ebp], -33	; ffffffdfH
  000c8	8d 4d dc	 lea	 ecx, DWORD PTR $T3[ebp]
  000cb	ff 25 00 00 00
	00		 jmp	 DWORD PTR __imp_??1?$CStringT@DV?$StrTraitMFC_DLL@DV?$ChTraitsCRT@D@ATL@@@@@ATL@@QAE@XZ
$LN115@MakeDataOf:
  000d1	c3		 ret	 0
__unwindfunclet$?MakeDataOfSuspensSeContract@CChartItemMarket@@IAEXAAV?$CStringT@DV?$StrTraitMFC_DLL@DV?$ChTraitsCRT@D@ATL@@@@@ATL@@PAVCStringArray@@@Z$24:
  000d2	8b 45 f0	 mov	 eax, DWORD PTR $T9[ebp]
  000d5	83 e0 40	 and	 eax, 64			; 00000040H
  000d8	0f 84 0d 00 00
	00		 je	 $LN131@MakeDataOf
  000de	83 65 f0 bf	 and	 DWORD PTR $T9[ebp], -65	; ffffffbfH
  000e2	8d 4d e0	 lea	 ecx, DWORD PTR $T5[ebp]
  000e5	ff 25 00 00 00
	00		 jmp	 DWORD PTR __imp_??1?$CStringT@DV?$StrTraitMFC_DLL@DV?$ChTraitsCRT@D@ATL@@@@@ATL@@QAE@XZ
$LN131@MakeDataOf:
  000eb	c3		 ret	 0
__unwindfunclet$?MakeDataOfSuspensSeContract@CChartItemMarket@@IAEXAAV?$CStringT@DV?$StrTraitMFC_DLL@DV?$ChTraitsCRT@D@ATL@@@@@ATL@@PAVCStringArray@@@Z$25:
  000ec	8b 45 f0	 mov	 eax, DWORD PTR $T9[ebp]
  000ef	25 80 00 00 00	 and	 eax, 128		; 00000080H
  000f4	0f 84 10 00 00
	00		 je	 $LN144@MakeDataOf
  000fa	81 65 f0 7f ff
	ff ff		 and	 DWORD PTR $T9[ebp], -129 ; ffffff7fH
  00101	8d 4d 08	 lea	 ecx, DWORD PTR $T13[ebp]
  00104	ff 25 00 00 00
	00		 jmp	 DWORD PTR __imp_??1?$CStringT@DV?$StrTraitMFC_DLL@DV?$ChTraitsCRT@D@ATL@@@@@ATL@@QAE@XZ
$LN144@MakeDataOf:
  0010a	c3		 ret	 0
__unwindfunclet$?MakeDataOfSuspensSeContract@CChartItemMarket@@IAEXAAV?$CStringT@DV?$StrTraitMFC_DLL@DV?$ChTraitsCRT@D@ATL@@@@@ATL@@PAVCStringArray@@@Z$26:
  0010b	8b 45 f0	 mov	 eax, DWORD PTR $T9[ebp]
  0010e	25 00 01 00 00	 and	 eax, 256		; 00000100H
  00113	0f 84 10 00 00
	00		 je	 $LN157@MakeDataOf
  00119	81 65 f0 ff fe
	ff ff		 and	 DWORD PTR $T9[ebp], -257 ; fffffeffH
  00120	8d 4d dc	 lea	 ecx, DWORD PTR $T2[ebp]
  00123	ff 25 00 00 00
	00		 jmp	 DWORD PTR __imp_??1?$CStringT@DV?$StrTraitMFC_DLL@DV?$ChTraitsCRT@D@ATL@@@@@ATL@@QAE@XZ
$LN157@MakeDataOf:
  00129	c3		 ret	 0
__unwindfunclet$?MakeDataOfSuspensSeContract@CChartItemMarket@@IAEXAAV?$CStringT@DV?$StrTraitMFC_DLL@DV?$ChTraitsCRT@D@ATL@@@@@ATL@@PAVCStringArray@@@Z$27:
  0012a	8b 45 f0	 mov	 eax, DWORD PTR $T9[ebp]
  0012d	25 00 02 00 00	 and	 eax, 512		; 00000200H
  00132	0f 84 10 00 00
	00		 je	 $LN173@MakeDataOf
  00138	81 65 f0 ff fd
	ff ff		 and	 DWORD PTR $T9[ebp], -513 ; fffffdffH
  0013f	8d 4d 08	 lea	 ecx, DWORD PTR $T12[ebp]
  00142	ff 25 00 00 00
	00		 jmp	 DWORD PTR __imp_??1?$CStringT@DV?$StrTraitMFC_DLL@DV?$ChTraitsCRT@D@ATL@@@@@ATL@@QAE@XZ
$LN173@MakeDataOf:
  00148	c3		 ret	 0
__unwindfunclet$?MakeDataOfSuspensSeContract@CChartItemMarket@@IAEXAAV?$CStringT@DV?$StrTraitMFC_DLL@DV?$ChTraitsCRT@D@ATL@@@@@ATL@@PAVCStringArray@@@Z$28:
  00149	8b 45 f0	 mov	 eax, DWORD PTR $T9[ebp]
  0014c	25 00 04 00 00	 and	 eax, 1024		; 00000400H
  00151	0f 84 10 00 00
	00		 je	 $LN186@MakeDataOf
  00157	81 65 f0 ff fb
	ff ff		 and	 DWORD PTR $T9[ebp], -1025 ; fffffbffH
  0015e	8d 4d 08	 lea	 ecx, DWORD PTR $T11[ebp]
  00161	ff 25 00 00 00
	00		 jmp	 DWORD PTR __imp_??1?$CStringT@DV?$StrTraitMFC_DLL@DV?$ChTraitsCRT@D@ATL@@@@@ATL@@QAE@XZ
$LN186@MakeDataOf:
  00167	c3		 ret	 0
__unwindfunclet$?MakeDataOfSuspensSeContract@CChartItemMarket@@IAEXAAV?$CStringT@DV?$StrTraitMFC_DLL@DV?$ChTraitsCRT@D@ATL@@@@@ATL@@PAVCStringArray@@@Z$29:
  00168	8b 45 f0	 mov	 eax, DWORD PTR $T9[ebp]
  0016b	25 00 08 00 00	 and	 eax, 2048		; 00000800H
  00170	0f 84 10 00 00
	00		 je	 $LN199@MakeDataOf
  00176	81 65 f0 ff f7
	ff ff		 and	 DWORD PTR $T9[ebp], -2049 ; fffff7ffH
  0017d	8d 4d 08	 lea	 ecx, DWORD PTR $T10[ebp]
  00180	ff 25 00 00 00
	00		 jmp	 DWORD PTR __imp_??1?$CStringT@DV?$StrTraitMFC_DLL@DV?$ChTraitsCRT@D@ATL@@@@@ATL@@QAE@XZ
$LN199@MakeDataOf:
  00186	c3		 ret	 0
  00187	cc		 int	 3
  00188	cc		 int	 3
  00189	cc		 int	 3
  0018a	cc		 int	 3
  0018b	cc		 int	 3
__ehhandler$?MakeDataOfSuspensSeContract@CChartItemMarket@@IAEXAAV?$CStringT@DV?$StrTraitMFC_DLL@DV?$ChTraitsCRT@D@ATL@@@@@ATL@@PAVCStringArray@@@Z:
  0018c	90		 npad	 1
  0018d	90		 npad	 1
  0018e	8b 54 24 08	 mov	 edx, DWORD PTR [esp+8]
  00192	8d 42 0c	 lea	 eax, DWORD PTR [edx+12]
  00195	8b 4a d4	 mov	 ecx, DWORD PTR [edx-44]
  00198	33 c8		 xor	 ecx, eax
  0019a	e8 00 00 00 00	 call	 @__security_check_cookie@4
  0019f	b8 00 00 00 00	 mov	 eax, OFFSET __ehfuncinfo$?MakeDataOfSuspensSeContract@CChartItemMarket@@IAEXAAV?$CStringT@DV?$StrTraitMFC_DLL@DV?$ChTraitsCRT@D@ATL@@@@@ATL@@PAVCStringArray@@@Z
  001a4	e9 00 00 00 00	 jmp	 ___CxxFrameHandler3
text$x	ENDS
?MakeDataOfSuspensSeContract@CChartItemMarket@@IAEXAAV?$CStringT@DV?$StrTraitMFC_DLL@DV?$ChTraitsCRT@D@ATL@@@@@ATL@@PAVCStringArray@@@Z ENDP ; CChartItemMarket::MakeDataOfSuspensSeContract
; Function compile flags: /Ogtp
; File D:\git\src\IBK\IBK_DRFN\ProjSrc\SrcDrfn\DrCommon\PartnerMng\ChartItemMarket.cpp
; File C:\Program Files (x86)\Microsoft Visual Studio\2019\Community\VC\Tools\MSVC\14.29.30133\atlmfc\include\cstringt.h
; File D:\git\src\IBK\IBK_DRFN\ProjSrc\SrcDrfn\DrCommon\PartnerMng\ChartItemMarket.cpp
; File C:\Program Files (x86)\Microsoft Visual Studio\2019\Community\VC\Tools\MSVC\14.29.30133\atlmfc\include\cstringt.h
; File C:\Program Files (x86)\Microsoft Visual Studio\2019\Community\VC\Tools\MSVC\14.29.30133\atlmfc\include\atlsimpstr.h
; File C:\Program Files (x86)\Microsoft Visual Studio\2019\Community\VC\Tools\MSVC\14.29.30133\atlmfc\include\cstringt.h
; File D:\git\src\IBK\IBK_DRFN\ProjSrc\SrcDrfn\DrCommon\PartnerMng\ChartItemMarket.cpp
; File C:\Program Files (x86)\Microsoft Visual Studio\2019\Community\VC\Tools\MSVC\14.29.30133\atlmfc\include\cstringt.h
; File C:\Program Files (x86)\Microsoft Visual Studio\2019\Community\VC\Tools\MSVC\14.29.30133\atlmfc\include\atlsimpstr.h
; File C:\Program Files (x86)\Microsoft Visual Studio\2019\Community\VC\Tools\MSVC\14.29.30133\atlmfc\include\cstringt.h
; File D:\git\src\IBK\IBK_DRFN\ProjSrc\SrcDrfn\DrCommon\PartnerMng\ChartItemMarket.cpp
; File C:\Program Files (x86)\Microsoft Visual Studio\2019\Community\VC\Tools\MSVC\14.29.30133\atlmfc\include\cstringt.h
; File C:\Program Files (x86)\Microsoft Visual Studio\2019\Community\VC\Tools\MSVC\14.29.30133\atlmfc\include\atlsimpstr.h
; File C:\Program Files (x86)\Microsoft Visual Studio\2019\Community\VC\Tools\MSVC\14.29.30133\atlmfc\include\cstringt.h
; File D:\git\src\IBK\IBK_DRFN\ProjSrc\SrcDrfn\DrCommon\PartnerMng\ChartItemMarket.cpp
; File C:\Program Files (x86)\Microsoft Visual Studio\2019\Community\VC\Tools\MSVC\14.29.30133\atlmfc\include\cstringt.h
; File D:\git\src\IBK\IBK_DRFN\ProjSrc\SrcDrfn\DrCommon\PartnerMng\ChartItemMarket.cpp
; File C:\Program Files (x86)\Microsoft Visual Studio\2019\Community\VC\Tools\MSVC\14.29.30133\atlmfc\include\cstringt.h
; File C:\Program Files (x86)\Microsoft Visual Studio\2019\Community\VC\Tools\MSVC\14.29.30133\atlmfc\include\atlsimpstr.h
; File C:\Program Files (x86)\Microsoft Visual Studio\2019\Community\VC\Tools\MSVC\14.29.30133\atlmfc\include\cstringt.h
; File D:\git\src\IBK\IBK_DRFN\ProjSrc\SrcDrfn\DrCommon\PartnerMng\ChartItemMarket.cpp
; File C:\Program Files (x86)\Microsoft Visual Studio\2019\Community\VC\Tools\MSVC\14.29.30133\atlmfc\include\cstringt.h
; File C:\Program Files (x86)\Microsoft Visual Studio\2019\Community\VC\Tools\MSVC\14.29.30133\atlmfc\include\atlsimpstr.h
; File C:\Program Files (x86)\Microsoft Visual Studio\2019\Community\VC\Tools\MSVC\14.29.30133\atlmfc\include\cstringt.h
; File D:\git\src\IBK\IBK_DRFN\ProjSrc\SrcDrfn\DrCommon\PartnerMng\ChartItemMarket.cpp
; File C:\Program Files (x86)\Microsoft Visual Studio\2019\Community\VC\Tools\MSVC\14.29.30133\atlmfc\include\cstringt.h
; File C:\Program Files (x86)\Microsoft Visual Studio\2019\Community\VC\Tools\MSVC\14.29.30133\atlmfc\include\atlsimpstr.h
; File C:\Program Files (x86)\Microsoft Visual Studio\2019\Community\VC\Tools\MSVC\14.29.30133\atlmfc\include\cstringt.h
; File D:\git\src\IBK\IBK_DRFN\ProjSrc\SrcDrfn\DrCommon\PartnerMng\ChartItemMarket.cpp
; File C:\Program Files (x86)\Microsoft Visual Studio\2019\Community\VC\Tools\MSVC\14.29.30133\atlmfc\include\cstringt.h
; File D:\git\src\IBK\IBK_DRFN\ProjSrc\SrcDrfn\DrCommon\PartnerMng\ChartItemMarket.cpp
; File C:\Program Files (x86)\Microsoft Visual Studio\2019\Community\VC\Tools\MSVC\14.29.30133\atlmfc\include\cstringt.h
; File C:\Program Files (x86)\Microsoft Visual Studio\2019\Community\VC\Tools\MSVC\14.29.30133\atlmfc\include\atlsimpstr.h
; File C:\Program Files (x86)\Microsoft Visual Studio\2019\Community\VC\Tools\MSVC\14.29.30133\atlmfc\include\cstringt.h
; File D:\git\src\IBK\IBK_DRFN\ProjSrc\SrcDrfn\DrCommon\PartnerMng\ChartItemMarket.cpp
; File C:\Program Files (x86)\Microsoft Visual Studio\2019\Community\VC\Tools\MSVC\14.29.30133\atlmfc\include\cstringt.h
; File C:\Program Files (x86)\Microsoft Visual Studio\2019\Community\VC\Tools\MSVC\14.29.30133\atlmfc\include\atlsimpstr.h
; File C:\Program Files (x86)\Microsoft Visual Studio\2019\Community\VC\Tools\MSVC\14.29.30133\atlmfc\include\cstringt.h
; File D:\git\src\IBK\IBK_DRFN\ProjSrc\SrcDrfn\DrCommon\PartnerMng\ChartItemMarket.cpp
; File C:\Program Files (x86)\Microsoft Visual Studio\2019\Community\VC\Tools\MSVC\14.29.30133\atlmfc\include\cstringt.h
; File C:\Program Files (x86)\Microsoft Visual Studio\2019\Community\VC\Tools\MSVC\14.29.30133\atlmfc\include\atlsimpstr.h
; File C:\Program Files (x86)\Microsoft Visual Studio\2019\Community\VC\Tools\MSVC\14.29.30133\atlmfc\include\cstringt.h
; File D:\git\src\IBK\IBK_DRFN\ProjSrc\SrcDrfn\DrCommon\PartnerMng\ChartItemMarket.cpp
; File C:\Program Files (x86)\Microsoft Visual Studio\2019\Community\VC\Tools\MSVC\14.29.30133\atlmfc\include\cstringt.h
; File D:\git\src\IBK\IBK_DRFN\ProjSrc\SrcDrfn\DrCommon\PartnerMng\ChartItemMarket.cpp
; File C:\Program Files (x86)\Microsoft Visual Studio\2019\Community\VC\Tools\MSVC\14.29.30133\atlmfc\include\cstringt.h
; File C:\Program Files (x86)\Microsoft Visual Studio\2019\Community\VC\Tools\MSVC\14.29.30133\atlmfc\include\atlsimpstr.h
; File C:\Program Files (x86)\Microsoft Visual Studio\2019\Community\VC\Tools\MSVC\14.29.30133\atlmfc\include\cstringt.h
; File D:\git\src\IBK\IBK_DRFN\ProjSrc\SrcDrfn\DrCommon\PartnerMng\ChartItemMarket.cpp
; File C:\Program Files (x86)\Microsoft Visual Studio\2019\Community\VC\Tools\MSVC\14.29.30133\atlmfc\include\cstringt.h
; File D:\git\src\IBK\IBK_DRFN\ProjSrc\SrcDrfn\DrCommon\PartnerMng\ChartItemMarket.cpp
; File C:\Program Files (x86)\Microsoft Visual Studio\2019\Community\VC\Tools\MSVC\14.29.30133\atlmfc\include\cstringt.h
; File C:\Program Files (x86)\Microsoft Visual Studio\2019\Community\VC\Tools\MSVC\14.29.30133\atlmfc\include\atlsimpstr.h
; File C:\Program Files (x86)\Microsoft Visual Studio\2019\Community\VC\Tools\MSVC\14.29.30133\atlmfc\include\cstringt.h
; File D:\git\src\IBK\IBK_DRFN\ProjSrc\SrcDrfn\DrCommon\PartnerMng\ChartItemMarket.cpp
; File C:\Program Files (x86)\Microsoft Visual Studio\2019\Community\VC\Tools\MSVC\14.29.30133\atlmfc\include\cstringt.h
; File C:\Program Files (x86)\Microsoft Visual Studio\2019\Community\VC\Tools\MSVC\14.29.30133\atlmfc\include\atlsimpstr.h
; File C:\Program Files (x86)\Microsoft Visual Studio\2019\Community\VC\Tools\MSVC\14.29.30133\atlmfc\include\cstringt.h
; File D:\git\src\IBK\IBK_DRFN\ProjSrc\SrcDrfn\DrCommon\PartnerMng\ChartItemMarket.cpp
; File C:\Program Files (x86)\Microsoft Visual Studio\2019\Community\VC\Tools\MSVC\14.29.30133\atlmfc\include\cstringt.h
; File D:\git\src\IBK\IBK_DRFN\ProjSrc\SrcDrfn\DrCommon\PartnerMng\ChartItemMarket.cpp
; File C:\Program Files (x86)\Microsoft Visual Studio\2019\Community\VC\Tools\MSVC\14.29.30133\atlmfc\include\cstringt.h
; File C:\Program Files (x86)\Microsoft Visual Studio\2019\Community\VC\Tools\MSVC\14.29.30133\atlmfc\include\atlsimpstr.h
; File C:\Program Files (x86)\Microsoft Visual Studio\2019\Community\VC\Tools\MSVC\14.29.30133\atlmfc\include\cstringt.h
; File D:\git\src\IBK\IBK_DRFN\ProjSrc\SrcDrfn\DrCommon\PartnerMng\ChartItemMarket.cpp
; File C:\Program Files (x86)\Microsoft Visual Studio\2019\Community\VC\Tools\MSVC\14.29.30133\atlmfc\include\cstringt.h
; File D:\git\src\IBK\IBK_DRFN\ProjSrc\SrcDrfn\DrCommon\PartnerMng\ChartItemMarket.cpp
; File C:\Program Files (x86)\Microsoft Visual Studio\2019\Community\VC\Tools\MSVC\14.29.30133\atlmfc\include\cstringt.h
; File C:\Program Files (x86)\Microsoft Visual Studio\2019\Community\VC\Tools\MSVC\14.29.30133\atlmfc\include\atlsimpstr.h
; File C:\Program Files (x86)\Microsoft Visual Studio\2019\Community\VC\Tools\MSVC\14.29.30133\atlmfc\include\cstringt.h
; File D:\git\src\IBK\IBK_DRFN\ProjSrc\SrcDrfn\DrCommon\PartnerMng\ChartItemMarket.cpp
; File C:\Program Files (x86)\Microsoft Visual Studio\2019\Community\VC\Tools\MSVC\14.29.30133\atlmfc\include\cstringt.h
; File D:\git\src\IBK\IBK_DRFN\ProjSrc\SrcDrfn\DrCommon\PartnerMng\ChartItemMarket.cpp
; File C:\Program Files (x86)\Microsoft Visual Studio\2019\Community\VC\Tools\MSVC\14.29.30133\atlmfc\include\cstringt.h
; File C:\Program Files (x86)\Microsoft Visual Studio\2019\Community\VC\Tools\MSVC\14.29.30133\atlmfc\include\atlsimpstr.h
; File C:\Program Files (x86)\Microsoft Visual Studio\2019\Community\VC\Tools\MSVC\14.29.30133\atlmfc\include\cstringt.h
; File D:\git\src\IBK\IBK_DRFN\ProjSrc\SrcDrfn\DrCommon\PartnerMng\ChartItemMarket.cpp
;	COMDAT ?fnStructType2@CChartItemMarket@@QAE?AV?$CStringT@DV?$StrTraitMFC_DLL@DV?$ChTraitsCRT@D@ATL@@@@@ATL@@V23@H@Z
_TEXT	SEGMENT
$T2 = -48						; size = 4
$T3 = -48						; size = 4
$T4 = -48						; size = 4
$T5 = -48						; size = 4
$T6 = -48						; size = 4
_strCode$ = -44						; size = 4
$T7 = -40						; size = 4
$T8 = -40						; size = 4
$T9 = -40						; size = 4
_strDate$ = -36						; size = 4
_strMarket$ = -32					; size = 4
_szFS$ = -28						; size = 4
_szDS$ = -24						; size = 4
_szCOL$ = -20						; size = 4
$T10 = -16						; size = 4
__$EHRec$ = -12						; size = 12
___$ReturnUdt$ = 8					; size = 4
_strGrid$ = 12						; size = 4
$T11 = 16						; size = 4
$T12 = 16						; size = 4
$T13 = 16						; size = 4
$T14 = 16						; size = 4
$T15 = 16						; size = 4
$T16 = 16						; size = 4
$T17 = 16						; size = 4
$T18 = 16						; size = 4
$T19 = 16						; size = 4
_nType$ = 16						; size = 4
?fnStructType2@CChartItemMarket@@QAE?AV?$CStringT@DV?$StrTraitMFC_DLL@DV?$ChTraitsCRT@D@ATL@@@@@ATL@@V23@H@Z PROC ; CChartItemMarket::fnStructType2, COMDAT
; _this$ = ecx

; 612  : {

  00000	55		 push	 ebp
  00001	8b ec		 mov	 ebp, esp
  00003	6a ff		 push	 -1
  00005	68 00 00 00 00	 push	 __ehhandler$?fnStructType2@CChartItemMarket@@QAE?AV?$CStringT@DV?$StrTraitMFC_DLL@DV?$ChTraitsCRT@D@ATL@@@@@ATL@@V23@H@Z
  0000a	64 a1 00 00 00
	00		 mov	 eax, DWORD PTR fs:0
  00010	50		 push	 eax
  00011	83 ec 24	 sub	 esp, 36			; 00000024H
  00014	56		 push	 esi
  00015	57		 push	 edi
  00016	a1 00 00 00 00	 mov	 eax, DWORD PTR ___security_cookie
  0001b	33 c5		 xor	 eax, ebp
  0001d	50		 push	 eax
  0001e	8d 45 f4	 lea	 eax, DWORD PTR __$EHRec$[ebp]
  00021	64 a3 00 00 00
	00		 mov	 DWORD PTR fs:0, eax
  00027	8b f1		 mov	 esi, ecx
  00029	c7 45 f0 00 00
	00 00		 mov	 DWORD PTR $T10[ebp], 0

; 613  : 	CString strData, strCode, strMarket, strDate;

  00030	8b 7d 08	 mov	 edi, DWORD PTR ___$ReturnUdt$[ebp]
  00033	8b cf		 mov	 ecx, edi
  00035	c7 45 fc 01 00
	00 00		 mov	 DWORD PTR __$EHRec$[ebp+8], 1
  0003c	ff 15 00 00 00
	00		 call	 DWORD PTR __imp_??0?$CStringT@DV?$StrTraitMFC_DLL@DV?$ChTraitsCRT@D@ATL@@@@@ATL@@QAE@XZ

; 648  : 
; 649  : 	return strData;

  00042	8d 4d d4	 lea	 ecx, DWORD PTR _strCode$[ebp]
  00045	c7 45 f0 01 00
	00 00		 mov	 DWORD PTR $T10[ebp], 1
  0004c	ff 15 00 00 00
	00		 call	 DWORD PTR __imp_??0?$CStringT@DV?$StrTraitMFC_DLL@DV?$ChTraitsCRT@D@ATL@@@@@ATL@@QAE@XZ
  00052	8d 4d e0	 lea	 ecx, DWORD PTR _strMarket$[ebp]
  00055	ff 15 00 00 00
	00		 call	 DWORD PTR __imp_??0?$CStringT@DV?$StrTraitMFC_DLL@DV?$ChTraitsCRT@D@ATL@@@@@ATL@@QAE@XZ
  0005b	8d 4d dc	 lea	 ecx, DWORD PTR _strDate$[ebp]
  0005e	ff 15 00 00 00
	00		 call	 DWORD PTR __imp_??0?$CStringT@DV?$StrTraitMFC_DLL@DV?$ChTraitsCRT@D@ATL@@@@@ATL@@QAE@XZ
  00064	8d 4d e8	 lea	 ecx, DWORD PTR _szDS$[ebp]
  00067	ff 15 00 00 00
	00		 call	 DWORD PTR __imp_??0?$CStringT@DV?$StrTraitMFC_DLL@DV?$ChTraitsCRT@D@ATL@@@@@ATL@@QAE@XZ
  0006d	8d 4d e4	 lea	 ecx, DWORD PTR _szFS$[ebp]
  00070	ff 15 00 00 00
	00		 call	 DWORD PTR __imp_??0?$CStringT@DV?$StrTraitMFC_DLL@DV?$ChTraitsCRT@D@ATL@@@@@ATL@@QAE@XZ
  00076	8d 4d ec	 lea	 ecx, DWORD PTR _szCOL$[ebp]
  00079	ff 15 00 00 00
	00		 call	 DWORD PTR __imp_??0?$CStringT@DV?$StrTraitMFC_DLL@DV?$ChTraitsCRT@D@ATL@@@@@ATL@@QAE@XZ
  0007f	6a 7f		 push	 127			; 0000007fH
  00081	8d 4d e8	 lea	 ecx, DWORD PTR _szDS$[ebp]
  00084	c6 45 fc 07	 mov	 BYTE PTR __$EHRec$[ebp+8], 7
  00088	ff 15 00 00 00
	00		 call	 DWORD PTR __imp_??4?$CStringT@DV?$StrTraitMFC_DLL@DV?$ChTraitsCRT@D@ATL@@@@@ATL@@QAEAAV01@D@Z
  0008e	6a 09		 push	 9
  00090	8d 4d e4	 lea	 ecx, DWORD PTR _szFS$[ebp]
  00093	ff 15 00 00 00
	00		 call	 DWORD PTR __imp_??4?$CStringT@DV?$StrTraitMFC_DLL@DV?$ChTraitsCRT@D@ATL@@@@@ATL@@QAEAAV01@D@Z
  00099	6a 0a		 push	 10			; 0000000aH
  0009b	8d 4d ec	 lea	 ecx, DWORD PTR _szCOL$[ebp]
  0009e	ff 15 00 00 00
	00		 call	 DWORD PTR __imp_??4?$CStringT@DV?$StrTraitMFC_DLL@DV?$ChTraitsCRT@D@ATL@@@@@ATL@@QAEAAV01@D@Z
  000a4	6a 08		 push	 8
  000a6	8d 46 0e	 lea	 eax, DWORD PTR [esi+14]
  000a9	50		 push	 eax
  000aa	8d 4d d0	 lea	 ecx, DWORD PTR $T6[ebp]
  000ad	ff 15 00 00 00
	00		 call	 DWORD PTR __imp_??0?$CStringT@DV?$StrTraitMFC_DLL@DV?$ChTraitsCRT@D@ATL@@@@@ATL@@QAE@PBDH@Z
  000b3	50		 push	 eax
  000b4	8d 4d d4	 lea	 ecx, DWORD PTR _strCode$[ebp]
  000b7	c6 45 fc 08	 mov	 BYTE PTR __$EHRec$[ebp+8], 8
  000bb	ff 15 00 00 00
	00		 call	 DWORD PTR __imp_??4?$CStringT@DV?$StrTraitMFC_DLL@DV?$ChTraitsCRT@D@ATL@@@@@ATL@@QAEAAV01@ABV01@@Z
  000c1	8d 4d d0	 lea	 ecx, DWORD PTR $T6[ebp]
  000c4	c6 45 fc 07	 mov	 BYTE PTR __$EHRec$[ebp+8], 7
  000c8	ff 15 00 00 00
	00		 call	 DWORD PTR __imp_??1?$CStringT@DV?$StrTraitMFC_DLL@DV?$ChTraitsCRT@D@ATL@@@@@ATL@@QAE@XZ
  000ce	8d 4d d4	 lea	 ecx, DWORD PTR _strCode$[ebp]
  000d1	ff 15 00 00 00
	00		 call	 DWORD PTR __imp_?TrimLeft@?$CStringT@DV?$StrTraitMFC_DLL@DV?$ChTraitsCRT@D@ATL@@@@@ATL@@QAEAAV12@XZ
  000d7	8d 4d d4	 lea	 ecx, DWORD PTR _strCode$[ebp]
  000da	ff 15 00 00 00
	00		 call	 DWORD PTR __imp_?TrimRight@?$CStringT@DV?$StrTraitMFC_DLL@DV?$ChTraitsCRT@D@ATL@@@@@ATL@@QAEAAV12@XZ
  000e0	6a 08		 push	 8
  000e2	8d 46 16	 lea	 eax, DWORD PTR [esi+22]
  000e5	50		 push	 eax
  000e6	8d 4d d0	 lea	 ecx, DWORD PTR $T5[ebp]
  000e9	ff 15 00 00 00
	00		 call	 DWORD PTR __imp_??0?$CStringT@DV?$StrTraitMFC_DLL@DV?$ChTraitsCRT@D@ATL@@@@@ATL@@QAE@PBDH@Z
  000ef	50		 push	 eax
  000f0	8d 4d dc	 lea	 ecx, DWORD PTR _strDate$[ebp]
  000f3	c6 45 fc 09	 mov	 BYTE PTR __$EHRec$[ebp+8], 9
  000f7	ff 15 00 00 00
	00		 call	 DWORD PTR __imp_??4?$CStringT@DV?$StrTraitMFC_DLL@DV?$ChTraitsCRT@D@ATL@@@@@ATL@@QAEAAV01@ABV01@@Z
  000fd	8d 4d d0	 lea	 ecx, DWORD PTR $T5[ebp]
  00100	c6 45 fc 07	 mov	 BYTE PTR __$EHRec$[ebp+8], 7
  00104	ff 15 00 00 00
	00		 call	 DWORD PTR __imp_??1?$CStringT@DV?$StrTraitMFC_DLL@DV?$ChTraitsCRT@D@ATL@@@@@ATL@@QAE@XZ
  0010a	8d 4d dc	 lea	 ecx, DWORD PTR _strDate$[ebp]
  0010d	ff 15 00 00 00
	00		 call	 DWORD PTR __imp_?TrimLeft@?$CStringT@DV?$StrTraitMFC_DLL@DV?$ChTraitsCRT@D@ATL@@@@@ATL@@QAEAAV12@XZ
  00113	8d 4d dc	 lea	 ecx, DWORD PTR _strDate$[ebp]
  00116	ff 15 00 00 00
	00		 call	 DWORD PTR __imp_?TrimRight@?$CStringT@DV?$StrTraitMFC_DLL@DV?$ChTraitsCRT@D@ATL@@@@@ATL@@QAEAAV12@XZ
  0011c	8b 45 10	 mov	 eax, DWORD PTR _nType$[ebp]
  0011f	05 62 ff ff ff	 add	 eax, -158		; ffffff62H
  00124	83 f8 05	 cmp	 eax, 5
  00127	77 38		 ja	 SHORT $LN2@fnStructTy

; 614  : 	CString szDS, szFS, szCOL;
; 615  : 	szDS = sDS;	szFS = sCELL;	szCOL = sCOL;
; 616  : 
; 617  : 	strCode = CString(m_InData.shcode, sizeof(m_InData.shcode));
; 618  : 	strCode.TrimLeft(); strCode.TrimRight();
; 619  : 
; 620  : 	strDate = CString(m_InData.edate, sizeof(m_InData.edate));
; 621  : 	strDate.TrimLeft(); strDate.TrimRight();
; 622  : 
; 623  : 	switch (nType)

  00129	ff 24 85 00 00
	00 00		 jmp	 DWORD PTR $LN247@fnStructTy[eax*4]
$LN4@fnStructTy:

; 624  : 	{
; 625  : 	case TRKEY_STRMARKET_8:		strMarket = "001";	break;	//	

  00130	68 00 00 00 00	 push	 OFFSET ??_C@_03MMKGDKGA@001@
  00135	eb 21		 jmp	 SHORT $LN249@fnStructTy
$LN5@fnStructTy:

; 626  : 	case TRKEY_STRMARKET_9:		strMarket = "201";	break;	//	

  00137	68 00 00 00 00	 push	 OFFSET ??_C@_03GGKPPCOL@201@
  0013c	eb 1a		 jmp	 SHORT $LN249@fnStructTy
$LN6@fnStructTy:

; 627  : 	case TRKEY_STRMARKET_10:	strMarket = "101";	break;	//	K200

  0013e	68 00 00 00 00	 push	 OFFSET ??_C@_03HEBKFNAF@101@
  00143	eb 13		 jmp	 SHORT $LN249@fnStructTy
$LN7@fnStructTy:

; 628  : 	case TRKEY_STRMARKET_11:	strMarket = "9101";	break;	//	

  00145	68 00 00 00 00	 push	 OFFSET ??_C@_04DPENKPPD@9101@
  0014a	eb 0c		 jmp	 SHORT $LN249@fnStructTy
$LN8@fnStructTy:

; 629  : 	case TRKEY_STRMARKET_12:	strMarket = "9201";	break;	//	

  0014c	68 00 00 00 00	 push	 OFFSET ??_C@_04CNPIAABN@9201@
  00151	eb 05		 jmp	 SHORT $LN249@fnStructTy
$LN9@fnStructTy:

; 630  : 	case TRKEY_STRMARKET_13:	strMarket = "9301";	break;	//	

  00153	68 00 00 00 00	 push	 OFFSET ??_C@_04JFEEGHHI@9301@
$LN249@fnStructTy:

; 634  : 	strData += "105301"	+ szDS + strMarket + szFS;		// 

  00158	8d 4d e0	 lea	 ecx, DWORD PTR _strMarket$[ebp]
  0015b	ff 15 00 00 00
	00		 call	 DWORD PTR __imp_??4?$CStringT@DV?$StrTraitMFC_DLL@DV?$ChTraitsCRT@D@ATL@@@@@ATL@@QAEAAV01@PBD@Z
$LN2@fnStructTy:
; File C:\Program Files (x86)\Microsoft Visual Studio\2019\Community\VC\Tools\MSVC\14.29.30133\atlmfc\include\cstringt.h

; 2412 : 		CStringT strResult( str2.GetManager() );

  00161	8d 4d e8	 lea	 ecx, DWORD PTR _szDS$[ebp]
; File D:\git\src\IBK\IBK_DRFN\ProjSrc\SrcDrfn\DrCommon\PartnerMng\ChartItemMarket.cpp

; 634  : 	strData += "105301"	+ szDS + strMarket + szFS;		// 

  00164	c6 45 fc 0a	 mov	 BYTE PTR __$EHRec$[ebp+8], 10 ; 0000000aH
; File C:\Program Files (x86)\Microsoft Visual Studio\2019\Community\VC\Tools\MSVC\14.29.30133\atlmfc\include\cstringt.h

; 2412 : 		CStringT strResult( str2.GetManager() );

  00168	ff 15 00 00 00
	00		 call	 DWORD PTR __imp_?GetManager@?$CStringT@DV?$StrTraitMFC_DLL@DV?$ChTraitsCRT@D@ATL@@@@@ATL@@QBEPAUIAtlStringMgr@2@XZ
  0016e	50		 push	 eax
  0016f	8d 4d d8	 lea	 ecx, DWORD PTR $T9[ebp]
  00172	ff 15 00 00 00
	00		 call	 DWORD PTR __imp_??0?$CStringT@DV?$StrTraitMFC_DLL@DV?$ChTraitsCRT@D@ATL@@@@@ATL@@QAE@PAUIAtlStringMgr@1@@Z
; File C:\Program Files (x86)\Microsoft Visual Studio\2019\Community\VC\Tools\MSVC\14.29.30133\atlmfc\include\atlsimpstr.h

; 519  : 		return( GetData()->nDataLength );

  00178	8b 45 e8	 mov	 eax, DWORD PTR _szDS$[ebp]
; File C:\Program Files (x86)\Microsoft Visual Studio\2019\Community\VC\Tools\MSVC\14.29.30133\atlmfc\include\cstringt.h

; 2416 : 		return( strResult );

  0017b	c7 45 f0 03 00
	00 00		 mov	 DWORD PTR $T10[ebp], 3
  00182	ff 70 f4	 push	 DWORD PTR [eax-12]
  00185	50		 push	 eax
  00186	6a 06		 push	 6
  00188	8d 45 d8	 lea	 eax, DWORD PTR $T9[ebp]
  0018b	68 00 00 00 00	 push	 OFFSET ??_C@_06BJEALFB@105301@
  00190	50		 push	 eax
  00191	ff 15 00 00 00
	00		 call	 DWORD PTR __imp_?Concatenate@?$CSimpleStringT@D$00@ATL@@KAXAAV12@PBDH1H@Z
  00197	83 c4 14	 add	 esp, 20			; 00000014H

; 2390 : 		CStringT strResult( str1.GetManager() );

  0019a	8d 4d d8	 lea	 ecx, DWORD PTR $T9[ebp]
; File D:\git\src\IBK\IBK_DRFN\ProjSrc\SrcDrfn\DrCommon\PartnerMng\ChartItemMarket.cpp

; 634  : 	strData += "105301"	+ szDS + strMarket + szFS;		// 

  0019d	c6 45 fc 0b	 mov	 BYTE PTR __$EHRec$[ebp+8], 11 ; 0000000bH
; File C:\Program Files (x86)\Microsoft Visual Studio\2019\Community\VC\Tools\MSVC\14.29.30133\atlmfc\include\cstringt.h

; 2390 : 		CStringT strResult( str1.GetManager() );

  001a1	ff 15 00 00 00
	00		 call	 DWORD PTR __imp_?GetManager@?$CStringT@DV?$StrTraitMFC_DLL@DV?$ChTraitsCRT@D@ATL@@@@@ATL@@QBEPAUIAtlStringMgr@2@XZ
  001a7	50		 push	 eax
  001a8	8d 4d 10	 lea	 ecx, DWORD PTR $T19[ebp]
  001ab	ff 15 00 00 00
	00		 call	 DWORD PTR __imp_??0?$CStringT@DV?$StrTraitMFC_DLL@DV?$ChTraitsCRT@D@ATL@@@@@ATL@@QAE@PAUIAtlStringMgr@1@@Z
; File C:\Program Files (x86)\Microsoft Visual Studio\2019\Community\VC\Tools\MSVC\14.29.30133\atlmfc\include\atlsimpstr.h

; 519  : 		return( GetData()->nDataLength );

  001b1	8b 45 e0	 mov	 eax, DWORD PTR _strMarket$[ebp]
  001b4	8b 4d d8	 mov	 ecx, DWORD PTR $T9[ebp]
; File C:\Program Files (x86)\Microsoft Visual Studio\2019\Community\VC\Tools\MSVC\14.29.30133\atlmfc\include\cstringt.h

; 2394 : 		return( strResult );

  001b7	c7 45 f0 07 00
	00 00		 mov	 DWORD PTR $T10[ebp], 7
  001be	ff 70 f4	 push	 DWORD PTR [eax-12]
  001c1	50		 push	 eax
  001c2	ff 71 f4	 push	 DWORD PTR [ecx-12]
  001c5	8d 45 10	 lea	 eax, DWORD PTR $T19[ebp]
  001c8	51		 push	 ecx
  001c9	50		 push	 eax
  001ca	ff 15 00 00 00
	00		 call	 DWORD PTR __imp_?Concatenate@?$CSimpleStringT@D$00@ATL@@KAXAAV12@PBDH1H@Z
  001d0	83 c4 14	 add	 esp, 20			; 00000014H

; 2390 : 		CStringT strResult( str1.GetManager() );

  001d3	8d 4d 10	 lea	 ecx, DWORD PTR $T19[ebp]
; File D:\git\src\IBK\IBK_DRFN\ProjSrc\SrcDrfn\DrCommon\PartnerMng\ChartItemMarket.cpp

; 634  : 	strData += "105301"	+ szDS + strMarket + szFS;		// 

  001d6	c6 45 fc 0c	 mov	 BYTE PTR __$EHRec$[ebp+8], 12 ; 0000000cH
; File C:\Program Files (x86)\Microsoft Visual Studio\2019\Community\VC\Tools\MSVC\14.29.30133\atlmfc\include\cstringt.h

; 2390 : 		CStringT strResult( str1.GetManager() );

  001da	ff 15 00 00 00
	00		 call	 DWORD PTR __imp_?GetManager@?$CStringT@DV?$StrTraitMFC_DLL@DV?$ChTraitsCRT@D@ATL@@@@@ATL@@QBEPAUIAtlStringMgr@2@XZ
  001e0	50		 push	 eax
  001e1	8d 4d d0	 lea	 ecx, DWORD PTR $T4[ebp]
  001e4	ff 15 00 00 00
	00		 call	 DWORD PTR __imp_??0?$CStringT@DV?$StrTraitMFC_DLL@DV?$ChTraitsCRT@D@ATL@@@@@ATL@@QAE@PAUIAtlStringMgr@1@@Z
; File C:\Program Files (x86)\Microsoft Visual Studio\2019\Community\VC\Tools\MSVC\14.29.30133\atlmfc\include\atlsimpstr.h

; 519  : 		return( GetData()->nDataLength );

  001ea	8b 45 e4	 mov	 eax, DWORD PTR _szFS$[ebp]
  001ed	8b 4d 10	 mov	 ecx, DWORD PTR $T19[ebp]
; File C:\Program Files (x86)\Microsoft Visual Studio\2019\Community\VC\Tools\MSVC\14.29.30133\atlmfc\include\cstringt.h

; 2394 : 		return( strResult );

  001f0	c7 45 f0 0f 00
	00 00		 mov	 DWORD PTR $T10[ebp], 15	; 0000000fH
  001f7	ff 70 f4	 push	 DWORD PTR [eax-12]
  001fa	50		 push	 eax
  001fb	ff 71 f4	 push	 DWORD PTR [ecx-12]
  001fe	8d 45 d0	 lea	 eax, DWORD PTR $T4[ebp]
  00201	51		 push	 ecx
  00202	50		 push	 eax
  00203	ff 15 00 00 00
	00		 call	 DWORD PTR __imp_?Concatenate@?$CSimpleStringT@D$00@ATL@@KAXAAV12@PBDH1H@Z
  00209	83 c4 14	 add	 esp, 20			; 00000014H
; File D:\git\src\IBK\IBK_DRFN\ProjSrc\SrcDrfn\DrCommon\PartnerMng\ChartItemMarket.cpp

; 634  : 	strData += "105301"	+ szDS + strMarket + szFS;		// 

  0020c	8d 45 d0	 lea	 eax, DWORD PTR $T4[ebp]
  0020f	8b cf		 mov	 ecx, edi
  00211	50		 push	 eax
  00212	ff 15 00 00 00
	00		 call	 DWORD PTR __imp_??Y?$CStringT@DV?$StrTraitMFC_DLL@DV?$ChTraitsCRT@D@ATL@@@@@ATL@@QAEAAV01@ABV?$CSimpleStringT@D$00@1@@Z
  00218	8d 4d d0	 lea	 ecx, DWORD PTR $T4[ebp]
  0021b	ff 15 00 00 00
	00		 call	 DWORD PTR __imp_??1?$CStringT@DV?$StrTraitMFC_DLL@DV?$ChTraitsCRT@D@ATL@@@@@ATL@@QAE@XZ
  00221	8d 4d 10	 lea	 ecx, DWORD PTR $T19[ebp]
  00224	ff 15 00 00 00
	00		 call	 DWORD PTR __imp_??1?$CStringT@DV?$StrTraitMFC_DLL@DV?$ChTraitsCRT@D@ATL@@@@@ATL@@QAE@XZ
  0022a	8d 4d d8	 lea	 ecx, DWORD PTR $T9[ebp]
  0022d	ff 15 00 00 00
	00		 call	 DWORD PTR __imp_??1?$CStringT@DV?$StrTraitMFC_DLL@DV?$ChTraitsCRT@D@ATL@@@@@ATL@@QAE@XZ
; File C:\Program Files (x86)\Microsoft Visual Studio\2019\Community\VC\Tools\MSVC\14.29.30133\atlmfc\include\cstringt.h

; 2412 : 		CStringT strResult( str2.GetManager() );

  00233	8d 4d e8	 lea	 ecx, DWORD PTR _szDS$[ebp]
; File D:\git\src\IBK\IBK_DRFN\ProjSrc\SrcDrfn\DrCommon\PartnerMng\ChartItemMarket.cpp

; 635  : 	strData += "105306" + szDS + strDate + szFS;		// 

  00236	c6 45 fc 0d	 mov	 BYTE PTR __$EHRec$[ebp+8], 13 ; 0000000dH
; File C:\Program Files (x86)\Microsoft Visual Studio\2019\Community\VC\Tools\MSVC\14.29.30133\atlmfc\include\cstringt.h

; 2412 : 		CStringT strResult( str2.GetManager() );

  0023a	ff 15 00 00 00
	00		 call	 DWORD PTR __imp_?GetManager@?$CStringT@DV?$StrTraitMFC_DLL@DV?$ChTraitsCRT@D@ATL@@@@@ATL@@QBEPAUIAtlStringMgr@2@XZ
  00240	50		 push	 eax
  00241	8d 4d d8	 lea	 ecx, DWORD PTR $T8[ebp]
  00244	ff 15 00 00 00
	00		 call	 DWORD PTR __imp_??0?$CStringT@DV?$StrTraitMFC_DLL@DV?$ChTraitsCRT@D@ATL@@@@@ATL@@QAE@PAUIAtlStringMgr@1@@Z
; File C:\Program Files (x86)\Microsoft Visual Studio\2019\Community\VC\Tools\MSVC\14.29.30133\atlmfc\include\atlsimpstr.h

; 519  : 		return( GetData()->nDataLength );

  0024a	8b 45 e8	 mov	 eax, DWORD PTR _szDS$[ebp]
; File C:\Program Files (x86)\Microsoft Visual Studio\2019\Community\VC\Tools\MSVC\14.29.30133\atlmfc\include\cstringt.h

; 2416 : 		return( strResult );

  0024d	c7 45 f0 11 00
	00 00		 mov	 DWORD PTR $T10[ebp], 17	; 00000011H
  00254	ff 70 f4	 push	 DWORD PTR [eax-12]
  00257	50		 push	 eax
  00258	6a 06		 push	 6
  0025a	8d 45 d8	 lea	 eax, DWORD PTR $T8[ebp]
  0025d	68 00 00 00 00	 push	 OFFSET ??_C@_06EONFJNJG@105306@
  00262	50		 push	 eax
  00263	ff 15 00 00 00
	00		 call	 DWORD PTR __imp_?Concatenate@?$CSimpleStringT@D$00@ATL@@KAXAAV12@PBDH1H@Z
  00269	83 c4 14	 add	 esp, 20			; 00000014H

; 2390 : 		CStringT strResult( str1.GetManager() );

  0026c	8d 4d d8	 lea	 ecx, DWORD PTR $T8[ebp]
; File D:\git\src\IBK\IBK_DRFN\ProjSrc\SrcDrfn\DrCommon\PartnerMng\ChartItemMarket.cpp

; 635  : 	strData += "105306" + szDS + strDate + szFS;		// 

  0026f	c6 45 fc 0e	 mov	 BYTE PTR __$EHRec$[ebp+8], 14 ; 0000000eH
; File C:\Program Files (x86)\Microsoft Visual Studio\2019\Community\VC\Tools\MSVC\14.29.30133\atlmfc\include\cstringt.h

; 2390 : 		CStringT strResult( str1.GetManager() );

  00273	ff 15 00 00 00
	00		 call	 DWORD PTR __imp_?GetManager@?$CStringT@DV?$StrTraitMFC_DLL@DV?$ChTraitsCRT@D@ATL@@@@@ATL@@QBEPAUIAtlStringMgr@2@XZ
  00279	50		 push	 eax
  0027a	8d 4d 10	 lea	 ecx, DWORD PTR $T18[ebp]
  0027d	ff 15 00 00 00
	00		 call	 DWORD PTR __imp_??0?$CStringT@DV?$StrTraitMFC_DLL@DV?$ChTraitsCRT@D@ATL@@@@@ATL@@QAE@PAUIAtlStringMgr@1@@Z
; File C:\Program Files (x86)\Microsoft Visual Studio\2019\Community\VC\Tools\MSVC\14.29.30133\atlmfc\include\atlsimpstr.h

; 519  : 		return( GetData()->nDataLength );

  00283	8b 45 dc	 mov	 eax, DWORD PTR _strDate$[ebp]
  00286	8b 4d d8	 mov	 ecx, DWORD PTR $T8[ebp]
; File C:\Program Files (x86)\Microsoft Visual Studio\2019\Community\VC\Tools\MSVC\14.29.30133\atlmfc\include\cstringt.h

; 2394 : 		return( strResult );

  00289	c7 45 f0 31 00
	00 00		 mov	 DWORD PTR $T10[ebp], 49	; 00000031H
  00290	ff 70 f4	 push	 DWORD PTR [eax-12]
  00293	50		 push	 eax
  00294	ff 71 f4	 push	 DWORD PTR [ecx-12]
  00297	8d 45 10	 lea	 eax, DWORD PTR $T18[ebp]
  0029a	51		 push	 ecx
  0029b	50		 push	 eax
  0029c	ff 15 00 00 00
	00		 call	 DWORD PTR __imp_?Concatenate@?$CSimpleStringT@D$00@ATL@@KAXAAV12@PBDH1H@Z
  002a2	83 c4 14	 add	 esp, 20			; 00000014H

; 2390 : 		CStringT strResult( str1.GetManager() );

  002a5	8d 4d 10	 lea	 ecx, DWORD PTR $T18[ebp]
; File D:\git\src\IBK\IBK_DRFN\ProjSrc\SrcDrfn\DrCommon\PartnerMng\ChartItemMarket.cpp

; 635  : 	strData += "105306" + szDS + strDate + szFS;		// 

  002a8	c6 45 fc 0f	 mov	 BYTE PTR __$EHRec$[ebp+8], 15 ; 0000000fH
; File C:\Program Files (x86)\Microsoft Visual Studio\2019\Community\VC\Tools\MSVC\14.29.30133\atlmfc\include\cstringt.h

; 2390 : 		CStringT strResult( str1.GetManager() );

  002ac	ff 15 00 00 00
	00		 call	 DWORD PTR __imp_?GetManager@?$CStringT@DV?$StrTraitMFC_DLL@DV?$ChTraitsCRT@D@ATL@@@@@ATL@@QBEPAUIAtlStringMgr@2@XZ
  002b2	50		 push	 eax
  002b3	8d 4d d0	 lea	 ecx, DWORD PTR $T3[ebp]
  002b6	ff 15 00 00 00
	00		 call	 DWORD PTR __imp_??0?$CStringT@DV?$StrTraitMFC_DLL@DV?$ChTraitsCRT@D@ATL@@@@@ATL@@QAE@PAUIAtlStringMgr@1@@Z
; File C:\Program Files (x86)\Microsoft Visual Studio\2019\Community\VC\Tools\MSVC\14.29.30133\atlmfc\include\atlsimpstr.h

; 519  : 		return( GetData()->nDataLength );

  002bc	8b 45 e4	 mov	 eax, DWORD PTR _szFS$[ebp]
  002bf	8b 4d 10	 mov	 ecx, DWORD PTR $T18[ebp]
; File C:\Program Files (x86)\Microsoft Visual Studio\2019\Community\VC\Tools\MSVC\14.29.30133\atlmfc\include\cstringt.h

; 2394 : 		return( strResult );

  002c2	c7 45 f0 71 00
	00 00		 mov	 DWORD PTR $T10[ebp], 113 ; 00000071H
  002c9	ff 70 f4	 push	 DWORD PTR [eax-12]
  002cc	50		 push	 eax
  002cd	ff 71 f4	 push	 DWORD PTR [ecx-12]
  002d0	8d 45 d0	 lea	 eax, DWORD PTR $T3[ebp]
  002d3	51		 push	 ecx
  002d4	50		 push	 eax
  002d5	ff 15 00 00 00
	00		 call	 DWORD PTR __imp_?Concatenate@?$CSimpleStringT@D$00@ATL@@KAXAAV12@PBDH1H@Z
  002db	83 c4 14	 add	 esp, 20			; 00000014H
; File D:\git\src\IBK\IBK_DRFN\ProjSrc\SrcDrfn\DrCommon\PartnerMng\ChartItemMarket.cpp

; 635  : 	strData += "105306" + szDS + strDate + szFS;		// 

  002de	8d 45 d0	 lea	 eax, DWORD PTR $T3[ebp]
  002e1	8b cf		 mov	 ecx, edi
  002e3	50		 push	 eax
  002e4	ff 15 00 00 00
	00		 call	 DWORD PTR __imp_??Y?$CStringT@DV?$StrTraitMFC_DLL@DV?$ChTraitsCRT@D@ATL@@@@@ATL@@QAEAAV01@ABV?$CSimpleStringT@D$00@1@@Z
  002ea	8d 4d d0	 lea	 ecx, DWORD PTR $T3[ebp]
  002ed	ff 15 00 00 00
	00		 call	 DWORD PTR __imp_??1?$CStringT@DV?$StrTraitMFC_DLL@DV?$ChTraitsCRT@D@ATL@@@@@ATL@@QAE@XZ
  002f3	8d 4d 10	 lea	 ecx, DWORD PTR $T18[ebp]
  002f6	ff 15 00 00 00
	00		 call	 DWORD PTR __imp_??1?$CStringT@DV?$StrTraitMFC_DLL@DV?$ChTraitsCRT@D@ATL@@@@@ATL@@QAE@XZ
  002fc	8d 4d d8	 lea	 ecx, DWORD PTR $T8[ebp]
  002ff	ff 15 00 00 00
	00		 call	 DWORD PTR __imp_??1?$CStringT@DV?$StrTraitMFC_DLL@DV?$ChTraitsCRT@D@ATL@@@@@ATL@@QAE@XZ
; File C:\Program Files (x86)\Microsoft Visual Studio\2019\Community\VC\Tools\MSVC\14.29.30133\atlmfc\include\cstringt.h

; 2412 : 		CStringT strResult( str2.GetManager() );

  00305	8d 4d e8	 lea	 ecx, DWORD PTR _szDS$[ebp]
; File D:\git\src\IBK\IBK_DRFN\ProjSrc\SrcDrfn\DrCommon\PartnerMng\ChartItemMarket.cpp

; 636  : 	strData += "105309" + szDS + "5" + szFS;			//  (5)/(6)

  00308	c6 45 fc 10	 mov	 BYTE PTR __$EHRec$[ebp+8], 16 ; 00000010H
; File C:\Program Files (x86)\Microsoft Visual Studio\2019\Community\VC\Tools\MSVC\14.29.30133\atlmfc\include\cstringt.h

; 2412 : 		CStringT strResult( str2.GetManager() );

  0030c	ff 15 00 00 00
	00		 call	 DWORD PTR __imp_?GetManager@?$CStringT@DV?$StrTraitMFC_DLL@DV?$ChTraitsCRT@D@ATL@@@@@ATL@@QBEPAUIAtlStringMgr@2@XZ
  00312	50		 push	 eax
  00313	8d 4d d8	 lea	 ecx, DWORD PTR $T7[ebp]
  00316	ff 15 00 00 00
	00		 call	 DWORD PTR __imp_??0?$CStringT@DV?$StrTraitMFC_DLL@DV?$ChTraitsCRT@D@ATL@@@@@ATL@@QAE@PAUIAtlStringMgr@1@@Z
; File C:\Program Files (x86)\Microsoft Visual Studio\2019\Community\VC\Tools\MSVC\14.29.30133\atlmfc\include\atlsimpstr.h

; 519  : 		return( GetData()->nDataLength );

  0031c	8b 45 e8	 mov	 eax, DWORD PTR _szDS$[ebp]
; File C:\Program Files (x86)\Microsoft Visual Studio\2019\Community\VC\Tools\MSVC\14.29.30133\atlmfc\include\cstringt.h

; 2416 : 		return( strResult );

  0031f	c7 45 f0 81 00
	00 00		 mov	 DWORD PTR $T10[ebp], 129 ; 00000081H
  00326	ff 70 f4	 push	 DWORD PTR [eax-12]
  00329	50		 push	 eax
  0032a	6a 06		 push	 6
  0032c	8d 45 d8	 lea	 eax, DWORD PTR $T7[ebp]
  0032f	68 00 00 00 00	 push	 OFFSET ??_C@_06MJENIBFJ@105309@
  00334	50		 push	 eax
  00335	ff 15 00 00 00
	00		 call	 DWORD PTR __imp_?Concatenate@?$CSimpleStringT@D$00@ATL@@KAXAAV12@PBDH1H@Z
  0033b	83 c4 14	 add	 esp, 20			; 00000014H

; 2401 : 		CStringT strResult( str1.GetManager() );

  0033e	8d 4d d8	 lea	 ecx, DWORD PTR $T7[ebp]
; File D:\git\src\IBK\IBK_DRFN\ProjSrc\SrcDrfn\DrCommon\PartnerMng\ChartItemMarket.cpp

; 636  : 	strData += "105309" + szDS + "5" + szFS;			//  (5)/(6)

  00341	c6 45 fc 11	 mov	 BYTE PTR __$EHRec$[ebp+8], 17 ; 00000011H
; File C:\Program Files (x86)\Microsoft Visual Studio\2019\Community\VC\Tools\MSVC\14.29.30133\atlmfc\include\cstringt.h

; 2401 : 		CStringT strResult( str1.GetManager() );

  00345	ff 15 00 00 00
	00		 call	 DWORD PTR __imp_?GetManager@?$CStringT@DV?$StrTraitMFC_DLL@DV?$ChTraitsCRT@D@ATL@@@@@ATL@@QBEPAUIAtlStringMgr@2@XZ
  0034b	50		 push	 eax
  0034c	8d 4d 10	 lea	 ecx, DWORD PTR $T17[ebp]
  0034f	ff 15 00 00 00
	00		 call	 DWORD PTR __imp_??0?$CStringT@DV?$StrTraitMFC_DLL@DV?$ChTraitsCRT@D@ATL@@@@@ATL@@QAE@PAUIAtlStringMgr@1@@Z
; File C:\Program Files (x86)\Microsoft Visual Studio\2019\Community\VC\Tools\MSVC\14.29.30133\atlmfc\include\atlsimpstr.h

; 519  : 		return( GetData()->nDataLength );

  00355	8b 45 d8	 mov	 eax, DWORD PTR $T7[ebp]
; File C:\Program Files (x86)\Microsoft Visual Studio\2019\Community\VC\Tools\MSVC\14.29.30133\atlmfc\include\cstringt.h

; 2403 : 		CThisSimpleString::Concatenate( strResult, str1, str1.GetLength(), psz2, CThisSimpleString::StringLength( psz2 ) );

  00358	6a 01		 push	 1
  0035a	68 00 00 00 00	 push	 OFFSET ??_C@_01BMBHCPLG@5@

; 2404 : 
; 2405 : 		return( strResult );

  0035f	c7 45 f0 81 01
	00 00		 mov	 DWORD PTR $T10[ebp], 385 ; 00000181H
  00366	ff 70 f4	 push	 DWORD PTR [eax-12]
  00369	50		 push	 eax
  0036a	8d 45 10	 lea	 eax, DWORD PTR $T17[ebp]
  0036d	50		 push	 eax
  0036e	ff 15 00 00 00
	00		 call	 DWORD PTR __imp_?Concatenate@?$CSimpleStringT@D$00@ATL@@KAXAAV12@PBDH1H@Z
  00374	83 c4 14	 add	 esp, 20			; 00000014H
; File D:\git\src\IBK\IBK_DRFN\ProjSrc\SrcDrfn\DrCommon\PartnerMng\ChartItemMarket.cpp

; 636  : 	strData += "105309" + szDS + "5" + szFS;			//  (5)/(6)

  00377	c6 45 fc 12	 mov	 BYTE PTR __$EHRec$[ebp+8], 18 ; 00000012H
; File C:\Program Files (x86)\Microsoft Visual Studio\2019\Community\VC\Tools\MSVC\14.29.30133\atlmfc\include\cstringt.h

; 2390 : 		CStringT strResult( str1.GetManager() );

  0037b	8d 4d 10	 lea	 ecx, DWORD PTR $T17[ebp]
  0037e	ff 15 00 00 00
	00		 call	 DWORD PTR __imp_?GetManager@?$CStringT@DV?$StrTraitMFC_DLL@DV?$ChTraitsCRT@D@ATL@@@@@ATL@@QBEPAUIAtlStringMgr@2@XZ
  00384	50		 push	 eax
  00385	8d 4d d0	 lea	 ecx, DWORD PTR $T2[ebp]
  00388	ff 15 00 00 00
	00		 call	 DWORD PTR __imp_??0?$CStringT@DV?$StrTraitMFC_DLL@DV?$ChTraitsCRT@D@ATL@@@@@ATL@@QAE@PAUIAtlStringMgr@1@@Z
; File C:\Program Files (x86)\Microsoft Visual Studio\2019\Community\VC\Tools\MSVC\14.29.30133\atlmfc\include\atlsimpstr.h

; 519  : 		return( GetData()->nDataLength );

  0038e	8b 45 e4	 mov	 eax, DWORD PTR _szFS$[ebp]
  00391	8b 4d 10	 mov	 ecx, DWORD PTR $T17[ebp]
; File C:\Program Files (x86)\Microsoft Visual Studio\2019\Community\VC\Tools\MSVC\14.29.30133\atlmfc\include\cstringt.h

; 2394 : 		return( strResult );

  00394	c7 45 f0 81 03
	00 00		 mov	 DWORD PTR $T10[ebp], 897 ; 00000381H
  0039b	ff 70 f4	 push	 DWORD PTR [eax-12]
  0039e	50		 push	 eax
  0039f	ff 71 f4	 push	 DWORD PTR [ecx-12]
  003a2	8d 45 d0	 lea	 eax, DWORD PTR $T2[ebp]
  003a5	51		 push	 ecx
  003a6	50		 push	 eax
  003a7	ff 15 00 00 00
	00		 call	 DWORD PTR __imp_?Concatenate@?$CSimpleStringT@D$00@ATL@@KAXAAV12@PBDH1H@Z
  003ad	83 c4 14	 add	 esp, 20			; 00000014H
; File D:\git\src\IBK\IBK_DRFN\ProjSrc\SrcDrfn\DrCommon\PartnerMng\ChartItemMarket.cpp

; 636  : 	strData += "105309" + szDS + "5" + szFS;			//  (5)/(6)

  003b0	8d 45 d0	 lea	 eax, DWORD PTR $T2[ebp]
  003b3	8b cf		 mov	 ecx, edi
  003b5	50		 push	 eax
  003b6	ff 15 00 00 00
	00		 call	 DWORD PTR __imp_??Y?$CStringT@DV?$StrTraitMFC_DLL@DV?$ChTraitsCRT@D@ATL@@@@@ATL@@QAEAAV01@ABV?$CSimpleStringT@D$00@1@@Z
  003bc	8d 4d d0	 lea	 ecx, DWORD PTR $T2[ebp]
  003bf	ff 15 00 00 00
	00		 call	 DWORD PTR __imp_??1?$CStringT@DV?$StrTraitMFC_DLL@DV?$ChTraitsCRT@D@ATL@@@@@ATL@@QAE@XZ
  003c5	8d 4d 10	 lea	 ecx, DWORD PTR $T17[ebp]
  003c8	ff 15 00 00 00
	00		 call	 DWORD PTR __imp_??1?$CStringT@DV?$StrTraitMFC_DLL@DV?$ChTraitsCRT@D@ATL@@@@@ATL@@QAE@XZ
  003ce	8d 4d d8	 lea	 ecx, DWORD PTR $T7[ebp]
  003d1	ff 15 00 00 00
	00		 call	 DWORD PTR __imp_??1?$CStringT@DV?$StrTraitMFC_DLL@DV?$ChTraitsCRT@D@ATL@@@@@ATL@@QAE@XZ
; File C:\Program Files (x86)\Microsoft Visual Studio\2019\Community\VC\Tools\MSVC\14.29.30133\atlmfc\include\cstringt.h

; 2412 : 		CStringT strResult( str2.GetManager() );

  003d7	8d 4d e4	 lea	 ecx, DWORD PTR _szFS$[ebp]
; File D:\git\src\IBK\IBK_DRFN\ProjSrc\SrcDrfn\DrCommon\PartnerMng\ChartItemMarket.cpp

; 638  : 	strData += "105301" + szFS;							//  

  003da	c6 45 fc 13	 mov	 BYTE PTR __$EHRec$[ebp+8], 19 ; 00000013H
; File C:\Program Files (x86)\Microsoft Visual Studio\2019\Community\VC\Tools\MSVC\14.29.30133\atlmfc\include\cstringt.h

; 2412 : 		CStringT strResult( str2.GetManager() );

  003de	ff 15 00 00 00
	00		 call	 DWORD PTR __imp_?GetManager@?$CStringT@DV?$StrTraitMFC_DLL@DV?$ChTraitsCRT@D@ATL@@@@@ATL@@QBEPAUIAtlStringMgr@2@XZ
  003e4	50		 push	 eax
  003e5	8d 4d 10	 lea	 ecx, DWORD PTR $T16[ebp]
  003e8	ff 15 00 00 00
	00		 call	 DWORD PTR __imp_??0?$CStringT@DV?$StrTraitMFC_DLL@DV?$ChTraitsCRT@D@ATL@@@@@ATL@@QAE@PAUIAtlStringMgr@1@@Z
; File C:\Program Files (x86)\Microsoft Visual Studio\2019\Community\VC\Tools\MSVC\14.29.30133\atlmfc\include\atlsimpstr.h

; 519  : 		return( GetData()->nDataLength );

  003ee	8b 45 e4	 mov	 eax, DWORD PTR _szFS$[ebp]
; File C:\Program Files (x86)\Microsoft Visual Studio\2019\Community\VC\Tools\MSVC\14.29.30133\atlmfc\include\cstringt.h

; 2416 : 		return( strResult );

  003f1	c7 45 f0 01 04
	00 00		 mov	 DWORD PTR $T10[ebp], 1025 ; 00000401H
  003f8	ff 70 f4	 push	 DWORD PTR [eax-12]
  003fb	50		 push	 eax
  003fc	6a 06		 push	 6
  003fe	8d 45 10	 lea	 eax, DWORD PTR $T16[ebp]
  00401	68 00 00 00 00	 push	 OFFSET ??_C@_06BJEALFB@105301@
  00406	50		 push	 eax
  00407	ff 15 00 00 00
	00		 call	 DWORD PTR __imp_?Concatenate@?$CSimpleStringT@D$00@ATL@@KAXAAV12@PBDH1H@Z
  0040d	83 c4 14	 add	 esp, 20			; 00000014H
; File D:\git\src\IBK\IBK_DRFN\ProjSrc\SrcDrfn\DrCommon\PartnerMng\ChartItemMarket.cpp

; 638  : 	strData += "105301" + szFS;							//  

  00410	8d 45 10	 lea	 eax, DWORD PTR $T16[ebp]
  00413	8b cf		 mov	 ecx, edi
  00415	50		 push	 eax
  00416	ff 15 00 00 00
	00		 call	 DWORD PTR __imp_??Y?$CStringT@DV?$StrTraitMFC_DLL@DV?$ChTraitsCRT@D@ATL@@@@@ATL@@QAEAAV01@ABV?$CSimpleStringT@D$00@1@@Z
  0041c	8d 4d 10	 lea	 ecx, DWORD PTR $T16[ebp]
  0041f	ff 15 00 00 00
	00		 call	 DWORD PTR __imp_??1?$CStringT@DV?$StrTraitMFC_DLL@DV?$ChTraitsCRT@D@ATL@@@@@ATL@@QAE@XZ
; File C:\Program Files (x86)\Microsoft Visual Studio\2019\Community\VC\Tools\MSVC\14.29.30133\atlmfc\include\cstringt.h

; 2412 : 		CStringT strResult( str2.GetManager() );

  00425	8d 4d e8	 lea	 ecx, DWORD PTR _szDS$[ebp]
; File D:\git\src\IBK\IBK_DRFN\ProjSrc\SrcDrfn\DrCommon\PartnerMng\ChartItemMarket.cpp

; 639  : 	strData += "$105610" + szDS;						//  .

  00428	c6 45 fc 14	 mov	 BYTE PTR __$EHRec$[ebp+8], 20 ; 00000014H
; File C:\Program Files (x86)\Microsoft Visual Studio\2019\Community\VC\Tools\MSVC\14.29.30133\atlmfc\include\cstringt.h

; 2412 : 		CStringT strResult( str2.GetManager() );

  0042c	ff 15 00 00 00
	00		 call	 DWORD PTR __imp_?GetManager@?$CStringT@DV?$StrTraitMFC_DLL@DV?$ChTraitsCRT@D@ATL@@@@@ATL@@QBEPAUIAtlStringMgr@2@XZ
  00432	50		 push	 eax
  00433	8d 4d 10	 lea	 ecx, DWORD PTR $T15[ebp]
  00436	ff 15 00 00 00
	00		 call	 DWORD PTR __imp_??0?$CStringT@DV?$StrTraitMFC_DLL@DV?$ChTraitsCRT@D@ATL@@@@@ATL@@QAE@PAUIAtlStringMgr@1@@Z
; File C:\Program Files (x86)\Microsoft Visual Studio\2019\Community\VC\Tools\MSVC\14.29.30133\atlmfc\include\atlsimpstr.h

; 519  : 		return( GetData()->nDataLength );

  0043c	8b 45 e8	 mov	 eax, DWORD PTR _szDS$[ebp]
; File C:\Program Files (x86)\Microsoft Visual Studio\2019\Community\VC\Tools\MSVC\14.29.30133\atlmfc\include\cstringt.h

; 2416 : 		return( strResult );

  0043f	c7 45 f0 01 08
	00 00		 mov	 DWORD PTR $T10[ebp], 2049 ; 00000801H
  00446	ff 70 f4	 push	 DWORD PTR [eax-12]
  00449	50		 push	 eax
  0044a	6a 07		 push	 7
  0044c	8d 45 10	 lea	 eax, DWORD PTR $T15[ebp]
  0044f	68 00 00 00 00	 push	 OFFSET ??_C@_07KLOBMMKO@$105610@
  00454	50		 push	 eax
  00455	ff 15 00 00 00
	00		 call	 DWORD PTR __imp_?Concatenate@?$CSimpleStringT@D$00@ATL@@KAXAAV12@PBDH1H@Z
  0045b	83 c4 14	 add	 esp, 20			; 00000014H
; File D:\git\src\IBK\IBK_DRFN\ProjSrc\SrcDrfn\DrCommon\PartnerMng\ChartItemMarket.cpp

; 639  : 	strData += "$105610" + szDS;						//  .

  0045e	8d 45 10	 lea	 eax, DWORD PTR $T15[ebp]
  00461	8b cf		 mov	 ecx, edi
  00463	50		 push	 eax
  00464	ff 15 00 00 00
	00		 call	 DWORD PTR __imp_??Y?$CStringT@DV?$StrTraitMFC_DLL@DV?$ChTraitsCRT@D@ATL@@@@@ATL@@QAEAAV01@ABV?$CSimpleStringT@D$00@1@@Z
  0046a	8d 4d 10	 lea	 ecx, DWORD PTR $T15[ebp]
  0046d	c7 45 f0 01 00
	00 00		 mov	 DWORD PTR $T10[ebp], 1
  00474	c6 45 fc 07	 mov	 BYTE PTR __$EHRec$[ebp+8], 7
  00478	ff 15 00 00 00
	00		 call	 DWORD PTR __imp_??1?$CStringT@DV?$StrTraitMFC_DLL@DV?$ChTraitsCRT@D@ATL@@@@@ATL@@QAE@XZ

; 640  : 	strData += strGrid;									//  .

  0047e	8d 45 0c	 lea	 eax, DWORD PTR _strGrid$[ebp]
  00481	8b cf		 mov	 ecx, edi
  00483	50		 push	 eax
  00484	ff 15 00 00 00
	00		 call	 DWORD PTR __imp_??Y?$CStringT@DV?$StrTraitMFC_DLL@DV?$ChTraitsCRT@D@ATL@@@@@ATL@@QAEAAV01@ABV?$CSimpleStringT@D$00@1@@Z

; 642  : 	strData += "105302" + szCOL;						//	

  0048a	c6 45 fc 15	 mov	 BYTE PTR __$EHRec$[ebp+8], 21 ; 00000015H
; File C:\Program Files (x86)\Microsoft Visual Studio\2019\Community\VC\Tools\MSVC\14.29.30133\atlmfc\include\cstringt.h

; 2412 : 		CStringT strResult( str2.GetManager() );

  0048e	8d 4d ec	 lea	 ecx, DWORD PTR _szCOL$[ebp]
  00491	ff 15 00 00 00
	00		 call	 DWORD PTR __imp_?GetManager@?$CStringT@DV?$StrTraitMFC_DLL@DV?$ChTraitsCRT@D@ATL@@@@@ATL@@QBEPAUIAtlStringMgr@2@XZ
  00497	50		 push	 eax
  00498	8d 4d 10	 lea	 ecx, DWORD PTR $T14[ebp]
  0049b	ff 15 00 00 00
	00		 call	 DWORD PTR __imp_??0?$CStringT@DV?$StrTraitMFC_DLL@DV?$ChTraitsCRT@D@ATL@@@@@ATL@@QAE@PAUIAtlStringMgr@1@@Z
; File C:\Program Files (x86)\Microsoft Visual Studio\2019\Community\VC\Tools\MSVC\14.29.30133\atlmfc\include\atlsimpstr.h

; 519  : 		return( GetData()->nDataLength );

  004a1	8b 45 ec	 mov	 eax, DWORD PTR _szCOL$[ebp]
; File C:\Program Files (x86)\Microsoft Visual Studio\2019\Community\VC\Tools\MSVC\14.29.30133\atlmfc\include\cstringt.h

; 2416 : 		return( strResult );

  004a4	c7 45 f0 01 10
	00 00		 mov	 DWORD PTR $T10[ebp], 4097 ; 00001001H
  004ab	ff 70 f4	 push	 DWORD PTR [eax-12]
  004ae	50		 push	 eax
  004af	6a 06		 push	 6
  004b1	8d 45 10	 lea	 eax, DWORD PTR $T14[ebp]
  004b4	68 00 00 00 00	 push	 OFFSET ??_C@_06CKLJFIJC@105302@
  004b9	50		 push	 eax
  004ba	ff 15 00 00 00
	00		 call	 DWORD PTR __imp_?Concatenate@?$CSimpleStringT@D$00@ATL@@KAXAAV12@PBDH1H@Z
  004c0	83 c4 14	 add	 esp, 20			; 00000014H
; File D:\git\src\IBK\IBK_DRFN\ProjSrc\SrcDrfn\DrCommon\PartnerMng\ChartItemMarket.cpp

; 642  : 	strData += "105302" + szCOL;						//	

  004c3	8d 45 10	 lea	 eax, DWORD PTR $T14[ebp]
  004c6	8b cf		 mov	 ecx, edi
  004c8	50		 push	 eax
  004c9	ff 15 00 00 00
	00		 call	 DWORD PTR __imp_??Y?$CStringT@DV?$StrTraitMFC_DLL@DV?$ChTraitsCRT@D@ATL@@@@@ATL@@QAEAAV01@ABV?$CSimpleStringT@D$00@1@@Z
  004cf	8d 4d 10	 lea	 ecx, DWORD PTR $T14[ebp]
  004d2	ff 15 00 00 00
	00		 call	 DWORD PTR __imp_??1?$CStringT@DV?$StrTraitMFC_DLL@DV?$ChTraitsCRT@D@ATL@@@@@ATL@@QAE@XZ
; File C:\Program Files (x86)\Microsoft Visual Studio\2019\Community\VC\Tools\MSVC\14.29.30133\atlmfc\include\cstringt.h

; 2412 : 		CStringT strResult( str2.GetManager() );

  004d8	8d 4d ec	 lea	 ecx, DWORD PTR _szCOL$[ebp]
; File D:\git\src\IBK\IBK_DRFN\ProjSrc\SrcDrfn\DrCommon\PartnerMng\ChartItemMarket.cpp

; 643  : 	strData += "105318" + szCOL;						//	 

  004db	c6 45 fc 16	 mov	 BYTE PTR __$EHRec$[ebp+8], 22 ; 00000016H
; File C:\Program Files (x86)\Microsoft Visual Studio\2019\Community\VC\Tools\MSVC\14.29.30133\atlmfc\include\cstringt.h

; 2412 : 		CStringT strResult( str2.GetManager() );

  004df	ff 15 00 00 00
	00		 call	 DWORD PTR __imp_?GetManager@?$CStringT@DV?$StrTraitMFC_DLL@DV?$ChTraitsCRT@D@ATL@@@@@ATL@@QBEPAUIAtlStringMgr@2@XZ
  004e5	50		 push	 eax
  004e6	8d 4d 10	 lea	 ecx, DWORD PTR $T13[ebp]
  004e9	ff 15 00 00 00
	00		 call	 DWORD PTR __imp_??0?$CStringT@DV?$StrTraitMFC_DLL@DV?$ChTraitsCRT@D@ATL@@@@@ATL@@QAE@PAUIAtlStringMgr@1@@Z
; File C:\Program Files (x86)\Microsoft Visual Studio\2019\Community\VC\Tools\MSVC\14.29.30133\atlmfc\include\atlsimpstr.h

; 519  : 		return( GetData()->nDataLength );

  004ef	8b 45 ec	 mov	 eax, DWORD PTR _szCOL$[ebp]
; File C:\Program Files (x86)\Microsoft Visual Studio\2019\Community\VC\Tools\MSVC\14.29.30133\atlmfc\include\cstringt.h

; 2416 : 		return( strResult );

  004f2	c7 45 f0 01 20
	00 00		 mov	 DWORD PTR $T10[ebp], 8193 ; 00002001H
  004f9	ff 70 f4	 push	 DWORD PTR [eax-12]
  004fc	50		 push	 eax
  004fd	6a 06		 push	 6
  004ff	8d 45 10	 lea	 eax, DWORD PTR $T13[ebp]
  00502	68 00 00 00 00	 push	 OFFSET ??_C@_06NBJENKCP@105318@
  00507	50		 push	 eax
  00508	ff 15 00 00 00
	00		 call	 DWORD PTR __imp_?Concatenate@?$CSimpleStringT@D$00@ATL@@KAXAAV12@PBDH1H@Z
  0050e	83 c4 14	 add	 esp, 20			; 00000014H
; File D:\git\src\IBK\IBK_DRFN\ProjSrc\SrcDrfn\DrCommon\PartnerMng\ChartItemMarket.cpp

; 643  : 	strData += "105318" + szCOL;						//	 

  00511	8d 45 10	 lea	 eax, DWORD PTR $T13[ebp]
  00514	8b cf		 mov	 ecx, edi
  00516	50		 push	 eax
  00517	ff 15 00 00 00
	00		 call	 DWORD PTR __imp_??Y?$CStringT@DV?$StrTraitMFC_DLL@DV?$ChTraitsCRT@D@ATL@@@@@ATL@@QAEAAV01@ABV?$CSimpleStringT@D$00@1@@Z
  0051d	8d 4d 10	 lea	 ecx, DWORD PTR $T13[ebp]
  00520	ff 15 00 00 00
	00		 call	 DWORD PTR __imp_??1?$CStringT@DV?$StrTraitMFC_DLL@DV?$ChTraitsCRT@D@ATL@@@@@ATL@@QAE@XZ
; File C:\Program Files (x86)\Microsoft Visual Studio\2019\Community\VC\Tools\MSVC\14.29.30133\atlmfc\include\cstringt.h

; 2412 : 		CStringT strResult( str2.GetManager() );

  00526	8d 4d ec	 lea	 ecx, DWORD PTR _szCOL$[ebp]
; File D:\git\src\IBK\IBK_DRFN\ProjSrc\SrcDrfn\DrCommon\PartnerMng\ChartItemMarket.cpp

; 644  : 	strData += "105319" + szCOL;						//	 

  00529	c6 45 fc 17	 mov	 BYTE PTR __$EHRec$[ebp+8], 23 ; 00000017H
; File C:\Program Files (x86)\Microsoft Visual Studio\2019\Community\VC\Tools\MSVC\14.29.30133\atlmfc\include\cstringt.h

; 2412 : 		CStringT strResult( str2.GetManager() );

  0052d	ff 15 00 00 00
	00		 call	 DWORD PTR __imp_?GetManager@?$CStringT@DV?$StrTraitMFC_DLL@DV?$ChTraitsCRT@D@ATL@@@@@ATL@@QBEPAUIAtlStringMgr@2@XZ
  00533	50		 push	 eax
  00534	8d 4d 10	 lea	 ecx, DWORD PTR $T12[ebp]
  00537	ff 15 00 00 00
	00		 call	 DWORD PTR __imp_??0?$CStringT@DV?$StrTraitMFC_DLL@DV?$ChTraitsCRT@D@ATL@@@@@ATL@@QAE@PAUIAtlStringMgr@1@@Z
; File C:\Program Files (x86)\Microsoft Visual Studio\2019\Community\VC\Tools\MSVC\14.29.30133\atlmfc\include\atlsimpstr.h

; 519  : 		return( GetData()->nDataLength );

  0053d	8b 45 ec	 mov	 eax, DWORD PTR _szCOL$[ebp]
; File C:\Program Files (x86)\Microsoft Visual Studio\2019\Community\VC\Tools\MSVC\14.29.30133\atlmfc\include\cstringt.h

; 2416 : 		return( strResult );

  00540	c7 45 f0 01 40
	00 00		 mov	 DWORD PTR $T10[ebp], 16385 ; 00004001H
  00547	ff 70 f4	 push	 DWORD PTR [eax-12]
  0054a	50		 push	 eax
  0054b	6a 06		 push	 6
  0054d	8d 45 10	 lea	 eax, DWORD PTR $T12[ebp]
  00550	68 00 00 00 00	 push	 OFFSET ??_C@_06MIIPOLGO@105319@
  00555	50		 push	 eax
  00556	ff 15 00 00 00
	00		 call	 DWORD PTR __imp_?Concatenate@?$CSimpleStringT@D$00@ATL@@KAXAAV12@PBDH1H@Z
  0055c	83 c4 14	 add	 esp, 20			; 00000014H
; File D:\git\src\IBK\IBK_DRFN\ProjSrc\SrcDrfn\DrCommon\PartnerMng\ChartItemMarket.cpp

; 644  : 	strData += "105319" + szCOL;						//	 

  0055f	8d 45 10	 lea	 eax, DWORD PTR $T12[ebp]
  00562	8b cf		 mov	 ecx, edi
  00564	50		 push	 eax
  00565	ff 15 00 00 00
	00		 call	 DWORD PTR __imp_??Y?$CStringT@DV?$StrTraitMFC_DLL@DV?$ChTraitsCRT@D@ATL@@@@@ATL@@QAEAAV01@ABV?$CSimpleStringT@D$00@1@@Z
  0056b	8d 4d 10	 lea	 ecx, DWORD PTR $T12[ebp]
  0056e	ff 15 00 00 00
	00		 call	 DWORD PTR __imp_??1?$CStringT@DV?$StrTraitMFC_DLL@DV?$ChTraitsCRT@D@ATL@@@@@ATL@@QAE@XZ
; File C:\Program Files (x86)\Microsoft Visual Studio\2019\Community\VC\Tools\MSVC\14.29.30133\atlmfc\include\cstringt.h

; 2412 : 		CStringT strResult( str2.GetManager() );

  00574	8d 4d ec	 lea	 ecx, DWORD PTR _szCOL$[ebp]
; File D:\git\src\IBK\IBK_DRFN\ProjSrc\SrcDrfn\DrCommon\PartnerMng\ChartItemMarket.cpp

; 645  : 	strData += "105310" + szCOL;						//	 

  00577	c6 45 fc 18	 mov	 BYTE PTR __$EHRec$[ebp+8], 24 ; 00000018H
; File C:\Program Files (x86)\Microsoft Visual Studio\2019\Community\VC\Tools\MSVC\14.29.30133\atlmfc\include\cstringt.h

; 2412 : 		CStringT strResult( str2.GetManager() );

  0057b	ff 15 00 00 00
	00		 call	 DWORD PTR __imp_?GetManager@?$CStringT@DV?$StrTraitMFC_DLL@DV?$ChTraitsCRT@D@ATL@@@@@ATL@@QBEPAUIAtlStringMgr@2@XZ
  00581	50		 push	 eax
  00582	8d 4d 10	 lea	 ecx, DWORD PTR $T11[ebp]
  00585	ff 15 00 00 00
	00		 call	 DWORD PTR __imp_??0?$CStringT@DV?$StrTraitMFC_DLL@DV?$ChTraitsCRT@D@ATL@@@@@ATL@@QAE@PAUIAtlStringMgr@1@@Z
; File C:\Program Files (x86)\Microsoft Visual Studio\2019\Community\VC\Tools\MSVC\14.29.30133\atlmfc\include\atlsimpstr.h

; 519  : 		return( GetData()->nDataLength );

  0058b	8b 45 ec	 mov	 eax, DWORD PTR _szCOL$[ebp]
; File C:\Program Files (x86)\Microsoft Visual Studio\2019\Community\VC\Tools\MSVC\14.29.30133\atlmfc\include\cstringt.h

; 2416 : 		return( strResult );

  0058e	c7 45 f0 01 80
	00 00		 mov	 DWORD PTR $T10[ebp], 32769 ; 00008001H
  00595	ff 70 f4	 push	 DWORD PTR [eax-12]
  00598	50		 push	 eax
  00599	6a 06		 push	 6
  0059b	68 00 00 00 00	 push	 OFFSET ??_C@_06BJENFACH@105310@
  005a0	8d 45 10	 lea	 eax, DWORD PTR $T11[ebp]
  005a3	50		 push	 eax

; 2413 : 
; 2414 : 		CThisSimpleString::Concatenate( strResult, psz1, CThisSimpleString::StringLength( psz1 ), str2, str2.GetLength() );

  005a4	ff 15 00 00 00
	00		 call	 DWORD PTR __imp_?Concatenate@?$CSimpleStringT@D$00@ATL@@KAXAAV12@PBDH1H@Z
  005aa	83 c4 14	 add	 esp, 20			; 00000014H
; File D:\git\src\IBK\IBK_DRFN\ProjSrc\SrcDrfn\DrCommon\PartnerMng\ChartItemMarket.cpp

; 645  : 	strData += "105310" + szCOL;						//	 

  005ad	8d 45 10	 lea	 eax, DWORD PTR $T11[ebp]
  005b0	8b cf		 mov	 ecx, edi
  005b2	50		 push	 eax
  005b3	ff 15 00 00 00
	00		 call	 DWORD PTR __imp_??Y?$CStringT@DV?$StrTraitMFC_DLL@DV?$ChTraitsCRT@D@ATL@@@@@ATL@@QAEAAV01@ABV?$CSimpleStringT@D$00@1@@Z
  005b9	8d 4d 10	 lea	 ecx, DWORD PTR $T11[ebp]
  005bc	c7 45 f0 01 00
	00 00		 mov	 DWORD PTR $T10[ebp], 1
  005c3	c6 45 fc 07	 mov	 BYTE PTR __$EHRec$[ebp+8], 7
  005c7	ff 15 00 00 00
	00		 call	 DWORD PTR __imp_??1?$CStringT@DV?$StrTraitMFC_DLL@DV?$ChTraitsCRT@D@ATL@@@@@ATL@@QAE@XZ

; 646  : 
; 647  : 	strData += szFS;

  005cd	8d 45 e4	 lea	 eax, DWORD PTR _szFS$[ebp]
  005d0	8b cf		 mov	 ecx, edi
  005d2	50		 push	 eax
  005d3	ff 15 00 00 00
	00		 call	 DWORD PTR __imp_??Y?$CStringT@DV?$StrTraitMFC_DLL@DV?$ChTraitsCRT@D@ATL@@@@@ATL@@QAEAAV01@ABV?$CSimpleStringT@D$00@1@@Z

; 648  : 
; 649  : 	return strData;

  005d9	8d 4d ec	 lea	 ecx, DWORD PTR _szCOL$[ebp]
  005dc	ff 15 00 00 00
	00		 call	 DWORD PTR __imp_??1?$CStringT@DV?$StrTraitMFC_DLL@DV?$ChTraitsCRT@D@ATL@@@@@ATL@@QAE@XZ
  005e2	8d 4d e4	 lea	 ecx, DWORD PTR _szFS$[ebp]
  005e5	ff 15 00 00 00
	00		 call	 DWORD PTR __imp_??1?$CStringT@DV?$StrTraitMFC_DLL@DV?$ChTraitsCRT@D@ATL@@@@@ATL@@QAE@XZ
  005eb	8d 4d e8	 lea	 ecx, DWORD PTR _szDS$[ebp]
  005ee	ff 15 00 00 00
	00		 call	 DWORD PTR __imp_??1?$CStringT@DV?$StrTraitMFC_DLL@DV?$ChTraitsCRT@D@ATL@@@@@ATL@@QAE@XZ
  005f4	8d 4d dc	 lea	 ecx, DWORD PTR _strDate$[ebp]
  005f7	ff 15 00 00 00
	00		 call	 DWORD PTR __imp_??1?$CStringT@DV?$StrTraitMFC_DLL@DV?$ChTraitsCRT@D@ATL@@@@@ATL@@QAE@XZ
  005fd	8d 4d e0	 lea	 ecx, DWORD PTR _strMarket$[ebp]
  00600	ff 15 00 00 00
	00		 call	 DWORD PTR __imp_??1?$CStringT@DV?$StrTraitMFC_DLL@DV?$ChTraitsCRT@D@ATL@@@@@ATL@@QAE@XZ
  00606	8d 4d d4	 lea	 ecx, DWORD PTR _strCode$[ebp]
  00609	ff 15 00 00 00
	00		 call	 DWORD PTR __imp_??1?$CStringT@DV?$StrTraitMFC_DLL@DV?$ChTraitsCRT@D@ATL@@@@@ATL@@QAE@XZ
  0060f	8d 4d 0c	 lea	 ecx, DWORD PTR _strGrid$[ebp]
  00612	ff 15 00 00 00
	00		 call	 DWORD PTR __imp_??1?$CStringT@DV?$StrTraitMFC_DLL@DV?$ChTraitsCRT@D@ATL@@@@@ATL@@QAE@XZ
  00618	8b c7		 mov	 eax, edi

; 650  : }

  0061a	8b 4d f4	 mov	 ecx, DWORD PTR __$EHRec$[ebp]
  0061d	64 89 0d 00 00
	00 00		 mov	 DWORD PTR fs:0, ecx
  00624	59		 pop	 ecx
  00625	5f		 pop	 edi
  00626	5e		 pop	 esi
  00627	8b e5		 mov	 esp, ebp
  00629	5d		 pop	 ebp
  0062a	c2 0c 00	 ret	 12			; 0000000cH
  0062d	0f 1f 00	 npad	 3
$LN247@fnStructTy:
  00630	00 00 00 00	 DD	 $LN4@fnStructTy
  00634	00 00 00 00	 DD	 $LN5@fnStructTy
  00638	00 00 00 00	 DD	 $LN6@fnStructTy
  0063c	00 00 00 00	 DD	 $LN7@fnStructTy
  00640	00 00 00 00	 DD	 $LN8@fnStructTy
  00644	00 00 00 00	 DD	 $LN9@fnStructTy
_TEXT	ENDS
;	COMDAT text$x
text$x	SEGMENT
__unwindfunclet$?fnStructType2@CChartItemMarket@@QAE?AV?$CStringT@DV?$StrTraitMFC_DLL@DV?$ChTraitsCRT@D@ATL@@@@@ATL@@V23@H@Z$0:
  00000	8d 4d 0c	 lea	 ecx, DWORD PTR _strGrid$[ebp]
  00003	ff 25 00 00 00
	00		 jmp	 DWORD PTR __imp_??1?$CStringT@DV?$StrTraitMFC_DLL@DV?$ChTraitsCRT@D@ATL@@@@@ATL@@QAE@XZ
__unwindfunclet$?fnStructType2@CChartItemMarket@@QAE?AV?$CStringT@DV?$StrTraitMFC_DLL@DV?$ChTraitsCRT@D@ATL@@@@@ATL@@V23@H@Z$1:
  00009	8b 45 f0	 mov	 eax, DWORD PTR $T10[ebp]
  0000c	83 e0 01	 and	 eax, 1
  0000f	0f 84 0d 00 00
	00		 je	 $LN13@fnStructTy
  00015	83 65 f0 fe	 and	 DWORD PTR $T10[ebp], -2	; fffffffeH
  00019	8b 4d 08	 mov	 ecx, DWORD PTR ___$ReturnUdt$[ebp]
  0001c	ff 25 00 00 00
	00		 jmp	 DWORD PTR __imp_??1?$CStringT@DV?$StrTraitMFC_DLL@DV?$ChTraitsCRT@D@ATL@@@@@ATL@@QAE@XZ
$LN13@fnStructTy:
  00022	c3		 ret	 0
__unwindfunclet$?fnStructType2@CChartItemMarket@@QAE?AV?$CStringT@DV?$StrTraitMFC_DLL@DV?$ChTraitsCRT@D@ATL@@@@@ATL@@V23@H@Z$2:
  00023	8d 4d d4	 lea	 ecx, DWORD PTR _strCode$[ebp]
  00026	ff 25 00 00 00
	00		 jmp	 DWORD PTR __imp_??1?$CStringT@DV?$StrTraitMFC_DLL@DV?$ChTraitsCRT@D@ATL@@@@@ATL@@QAE@XZ
__unwindfunclet$?fnStructType2@CChartItemMarket@@QAE?AV?$CStringT@DV?$StrTraitMFC_DLL@DV?$ChTraitsCRT@D@ATL@@@@@ATL@@V23@H@Z$3:
  0002c	8d 4d e0	 lea	 ecx, DWORD PTR _strMarket$[ebp]
  0002f	ff 25 00 00 00
	00		 jmp	 DWORD PTR __imp_??1?$CStringT@DV?$StrTraitMFC_DLL@DV?$ChTraitsCRT@D@ATL@@@@@ATL@@QAE@XZ
__unwindfunclet$?fnStructType2@CChartItemMarket@@QAE?AV?$CStringT@DV?$StrTraitMFC_DLL@DV?$ChTraitsCRT@D@ATL@@@@@ATL@@V23@H@Z$4:
  00035	8d 4d dc	 lea	 ecx, DWORD PTR _strDate$[ebp]
  00038	ff 25 00 00 00
	00		 jmp	 DWORD PTR __imp_??1?$CStringT@DV?$StrTraitMFC_DLL@DV?$ChTraitsCRT@D@ATL@@@@@ATL@@QAE@XZ
__unwindfunclet$?fnStructType2@CChartItemMarket@@QAE?AV?$CStringT@DV?$StrTraitMFC_DLL@DV?$ChTraitsCRT@D@ATL@@@@@ATL@@V23@H@Z$5:
  0003e	8d 4d e8	 lea	 ecx, DWORD PTR _szDS$[ebp]
  00041	ff 25 00 00 00
	00		 jmp	 DWORD PTR __imp_??1?$CStringT@DV?$StrTraitMFC_DLL@DV?$ChTraitsCRT@D@ATL@@@@@ATL@@QAE@XZ
__unwindfunclet$?fnStructType2@CChartItemMarket@@QAE?AV?$CStringT@DV?$StrTraitMFC_DLL@DV?$ChTraitsCRT@D@ATL@@@@@ATL@@V23@H@Z$6:
  00047	8d 4d e4	 lea	 ecx, DWORD PTR _szFS$[ebp]
  0004a	ff 25 00 00 00
	00		 jmp	 DWORD PTR __imp_??1?$CStringT@DV?$StrTraitMFC_DLL@DV?$ChTraitsCRT@D@ATL@@@@@ATL@@QAE@XZ
__unwindfunclet$?fnStructType2@CChartItemMarket@@QAE?AV?$CStringT@DV?$StrTraitMFC_DLL@DV?$ChTraitsCRT@D@ATL@@@@@ATL@@V23@H@Z$7:
  00050	8d 4d ec	 lea	 ecx, DWORD PTR _szCOL$[ebp]
  00053	ff 25 00 00 00
	00		 jmp	 DWORD PTR __imp_??1?$CStringT@DV?$StrTraitMFC_DLL@DV?$ChTraitsCRT@D@ATL@@@@@ATL@@QAE@XZ
__unwindfunclet$?fnStructType2@CChartItemMarket@@QAE?AV?$CStringT@DV?$StrTraitMFC_DLL@DV?$ChTraitsCRT@D@ATL@@@@@ATL@@V23@H@Z$8:
  00059	8d 4d d0	 lea	 ecx, DWORD PTR $T6[ebp]
  0005c	ff 25 00 00 00
	00		 jmp	 DWORD PTR __imp_??1?$CStringT@DV?$StrTraitMFC_DLL@DV?$ChTraitsCRT@D@ATL@@@@@ATL@@QAE@XZ
__unwindfunclet$?fnStructType2@CChartItemMarket@@QAE?AV?$CStringT@DV?$StrTraitMFC_DLL@DV?$ChTraitsCRT@D@ATL@@@@@ATL@@V23@H@Z$9:
  00062	8d 4d d0	 lea	 ecx, DWORD PTR $T5[ebp]
  00065	ff 25 00 00 00
	00		 jmp	 DWORD PTR __imp_??1?$CStringT@DV?$StrTraitMFC_DLL@DV?$ChTraitsCRT@D@ATL@@@@@ATL@@QAE@XZ
__unwindfunclet$?fnStructType2@CChartItemMarket@@QAE?AV?$CStringT@DV?$StrTraitMFC_DLL@DV?$ChTraitsCRT@D@ATL@@@@@ATL@@V23@H@Z$25:
  0006b	8b 45 f0	 mov	 eax, DWORD PTR $T10[ebp]
  0006e	83 e0 02	 and	 eax, 2
  00071	0f 84 0d 00 00
	00		 je	 $LN40@fnStructTy
  00077	83 65 f0 fd	 and	 DWORD PTR $T10[ebp], -3	; fffffffdH
  0007b	8d 4d d8	 lea	 ecx, DWORD PTR $T9[ebp]
  0007e	ff 25 00 00 00
	00		 jmp	 DWORD PTR __imp_??1?$CStringT@DV?$StrTraitMFC_DLL@DV?$ChTraitsCRT@D@ATL@@@@@ATL@@QAE@XZ
$LN40@fnStructTy:
  00084	c3		 ret	 0
__unwindfunclet$?fnStructType2@CChartItemMarket@@QAE?AV?$CStringT@DV?$StrTraitMFC_DLL@DV?$ChTraitsCRT@D@ATL@@@@@ATL@@V23@H@Z$26:
  00085	8b 45 f0	 mov	 eax, DWORD PTR $T10[ebp]
  00088	83 e0 04	 and	 eax, 4
  0008b	0f 84 0d 00 00
	00		 je	 $LN53@fnStructTy
  00091	83 65 f0 fb	 and	 DWORD PTR $T10[ebp], -5	; fffffffbH
  00095	8d 4d 10	 lea	 ecx, DWORD PTR $T19[ebp]
  00098	ff 25 00 00 00
	00		 jmp	 DWORD PTR __imp_??1?$CStringT@DV?$StrTraitMFC_DLL@DV?$ChTraitsCRT@D@ATL@@@@@ATL@@QAE@XZ
$LN53@fnStructTy:
  0009e	c3		 ret	 0
__unwindfunclet$?fnStructType2@CChartItemMarket@@QAE?AV?$CStringT@DV?$StrTraitMFC_DLL@DV?$ChTraitsCRT@D@ATL@@@@@ATL@@V23@H@Z$27:
  0009f	8b 45 f0	 mov	 eax, DWORD PTR $T10[ebp]
  000a2	83 e0 08	 and	 eax, 8
  000a5	0f 84 0d 00 00
	00		 je	 $LN69@fnStructTy
  000ab	83 65 f0 f7	 and	 DWORD PTR $T10[ebp], -9	; fffffff7H
  000af	8d 4d d0	 lea	 ecx, DWORD PTR $T4[ebp]
  000b2	ff 25 00 00 00
	00		 jmp	 DWORD PTR __imp_??1?$CStringT@DV?$StrTraitMFC_DLL@DV?$ChTraitsCRT@D@ATL@@@@@ATL@@QAE@XZ
$LN69@fnStructTy:
  000b8	c3		 ret	 0
__unwindfunclet$?fnStructType2@CChartItemMarket@@QAE?AV?$CStringT@DV?$StrTraitMFC_DLL@DV?$ChTraitsCRT@D@ATL@@@@@ATL@@V23@H@Z$28:
  000b9	8b 45 f0	 mov	 eax, DWORD PTR $T10[ebp]
  000bc	83 e0 10	 and	 eax, 16			; 00000010H
  000bf	0f 84 0d 00 00
	00		 je	 $LN85@fnStructTy
  000c5	83 65 f0 ef	 and	 DWORD PTR $T10[ebp], -17 ; ffffffefH
  000c9	8d 4d d8	 lea	 ecx, DWORD PTR $T8[ebp]
  000cc	ff 25 00 00 00
	00		 jmp	 DWORD PTR __imp_??1?$CStringT@DV?$StrTraitMFC_DLL@DV?$ChTraitsCRT@D@ATL@@@@@ATL@@QAE@XZ
$LN85@fnStructTy:
  000d2	c3		 ret	 0
__unwindfunclet$?fnStructType2@CChartItemMarket@@QAE?AV?$CStringT@DV?$StrTraitMFC_DLL@DV?$ChTraitsCRT@D@ATL@@@@@ATL@@V23@H@Z$29:
  000d3	8b 45 f0	 mov	 eax, DWORD PTR $T10[ebp]
  000d6	83 e0 20	 and	 eax, 32			; 00000020H
  000d9	0f 84 0d 00 00
	00		 je	 $LN98@fnStructTy
  000df	83 65 f0 df	 and	 DWORD PTR $T10[ebp], -33 ; ffffffdfH
  000e3	8d 4d 10	 lea	 ecx, DWORD PTR $T18[ebp]
  000e6	ff 25 00 00 00
	00		 jmp	 DWORD PTR __imp_??1?$CStringT@DV?$StrTraitMFC_DLL@DV?$ChTraitsCRT@D@ATL@@@@@ATL@@QAE@XZ
$LN98@fnStructTy:
  000ec	c3		 ret	 0
__unwindfunclet$?fnStructType2@CChartItemMarket@@QAE?AV?$CStringT@DV?$StrTraitMFC_DLL@DV?$ChTraitsCRT@D@ATL@@@@@ATL@@V23@H@Z$30:
  000ed	8b 45 f0	 mov	 eax, DWORD PTR $T10[ebp]
  000f0	83 e0 40	 and	 eax, 64			; 00000040H
  000f3	0f 84 0d 00 00
	00		 je	 $LN114@fnStructTy
  000f9	83 65 f0 bf	 and	 DWORD PTR $T10[ebp], -65 ; ffffffbfH
  000fd	8d 4d d0	 lea	 ecx, DWORD PTR $T3[ebp]
  00100	ff 25 00 00 00
	00		 jmp	 DWORD PTR __imp_??1?$CStringT@DV?$StrTraitMFC_DLL@DV?$ChTraitsCRT@D@ATL@@@@@ATL@@QAE@XZ
$LN114@fnStructTy:
  00106	c3		 ret	 0
__unwindfunclet$?fnStructType2@CChartItemMarket@@QAE?AV?$CStringT@DV?$StrTraitMFC_DLL@DV?$ChTraitsCRT@D@ATL@@@@@ATL@@V23@H@Z$31:
  00107	8b 45 f0	 mov	 eax, DWORD PTR $T10[ebp]
  0010a	25 80 00 00 00	 and	 eax, 128		; 00000080H
  0010f	0f 84 10 00 00
	00		 je	 $LN130@fnStructTy
  00115	81 65 f0 7f ff
	ff ff		 and	 DWORD PTR $T10[ebp], -129 ; ffffff7fH
  0011c	8d 4d d8	 lea	 ecx, DWORD PTR $T7[ebp]
  0011f	ff 25 00 00 00
	00		 jmp	 DWORD PTR __imp_??1?$CStringT@DV?$StrTraitMFC_DLL@DV?$ChTraitsCRT@D@ATL@@@@@ATL@@QAE@XZ
$LN130@fnStructTy:
  00125	c3		 ret	 0
__unwindfunclet$?fnStructType2@CChartItemMarket@@QAE?AV?$CStringT@DV?$StrTraitMFC_DLL@DV?$ChTraitsCRT@D@ATL@@@@@ATL@@V23@H@Z$32:
  00126	8b 45 f0	 mov	 eax, DWORD PTR $T10[ebp]
  00129	25 00 01 00 00	 and	 eax, 256		; 00000100H
  0012e	0f 84 10 00 00
	00		 je	 $LN143@fnStructTy
  00134	81 65 f0 ff fe
	ff ff		 and	 DWORD PTR $T10[ebp], -257 ; fffffeffH
  0013b	8d 4d 10	 lea	 ecx, DWORD PTR $T17[ebp]
  0013e	ff 25 00 00 00
	00		 jmp	 DWORD PTR __imp_??1?$CStringT@DV?$StrTraitMFC_DLL@DV?$ChTraitsCRT@D@ATL@@@@@ATL@@QAE@XZ
$LN143@fnStructTy:
  00144	c3		 ret	 0
__unwindfunclet$?fnStructType2@CChartItemMarket@@QAE?AV?$CStringT@DV?$StrTraitMFC_DLL@DV?$ChTraitsCRT@D@ATL@@@@@ATL@@V23@H@Z$33:
  00145	8b 45 f0	 mov	 eax, DWORD PTR $T10[ebp]
  00148	25 00 02 00 00	 and	 eax, 512		; 00000200H
  0014d	0f 84 10 00 00
	00		 je	 $LN156@fnStructTy
  00153	81 65 f0 ff fd
	ff ff		 and	 DWORD PTR $T10[ebp], -513 ; fffffdffH
  0015a	8d 4d d0	 lea	 ecx, DWORD PTR $T2[ebp]
  0015d	ff 25 00 00 00
	00		 jmp	 DWORD PTR __imp_??1?$CStringT@DV?$StrTraitMFC_DLL@DV?$ChTraitsCRT@D@ATL@@@@@ATL@@QAE@XZ
$LN156@fnStructTy:
  00163	c3		 ret	 0
__unwindfunclet$?fnStructType2@CChartItemMarket@@QAE?AV?$CStringT@DV?$StrTraitMFC_DLL@DV?$ChTraitsCRT@D@ATL@@@@@ATL@@V23@H@Z$34:
  00164	8b 45 f0	 mov	 eax, DWORD PTR $T10[ebp]
  00167	25 00 04 00 00	 and	 eax, 1024		; 00000400H
  0016c	0f 84 10 00 00
	00		 je	 $LN172@fnStructTy
  00172	81 65 f0 ff fb
	ff ff		 and	 DWORD PTR $T10[ebp], -1025 ; fffffbffH
  00179	8d 4d 10	 lea	 ecx, DWORD PTR $T16[ebp]
  0017c	ff 25 00 00 00
	00		 jmp	 DWORD PTR __imp_??1?$CStringT@DV?$StrTraitMFC_DLL@DV?$ChTraitsCRT@D@ATL@@@@@ATL@@QAE@XZ
$LN172@fnStructTy:
  00182	c3		 ret	 0
__unwindfunclet$?fnStructType2@CChartItemMarket@@QAE?AV?$CStringT@DV?$StrTraitMFC_DLL@DV?$ChTraitsCRT@D@ATL@@@@@ATL@@V23@H@Z$35:
  00183	8b 45 f0	 mov	 eax, DWORD PTR $T10[ebp]
  00186	25 00 08 00 00	 and	 eax, 2048		; 00000800H
  0018b	0f 84 10 00 00
	00		 je	 $LN185@fnStructTy
  00191	81 65 f0 ff f7
	ff ff		 and	 DWORD PTR $T10[ebp], -2049 ; fffff7ffH
  00198	8d 4d 10	 lea	 ecx, DWORD PTR $T15[ebp]
  0019b	ff 25 00 00 00
	00		 jmp	 DWORD PTR __imp_??1?$CStringT@DV?$StrTraitMFC_DLL@DV?$ChTraitsCRT@D@ATL@@@@@ATL@@QAE@XZ
$LN185@fnStructTy:
  001a1	c3		 ret	 0
__unwindfunclet$?fnStructType2@CChartItemMarket@@QAE?AV?$CStringT@DV?$StrTraitMFC_DLL@DV?$ChTraitsCRT@D@ATL@@@@@ATL@@V23@H@Z$36:
  001a2	8b 45 f0	 mov	 eax, DWORD PTR $T10[ebp]
  001a5	25 00 10 00 00	 and	 eax, 4096		; 00001000H
  001aa	0f 84 10 00 00
	00		 je	 $LN198@fnStructTy
  001b0	81 65 f0 ff ef
	ff ff		 and	 DWORD PTR $T10[ebp], -4097 ; ffffefffH
  001b7	8d 4d 10	 lea	 ecx, DWORD PTR $T14[ebp]
  001ba	ff 25 00 00 00
	00		 jmp	 DWORD PTR __imp_??1?$CStringT@DV?$StrTraitMFC_DLL@DV?$ChTraitsCRT@D@ATL@@@@@ATL@@QAE@XZ
$LN198@fnStructTy:
  001c0	c3		 ret	 0
__unwindfunclet$?fnStructType2@CChartItemMarket@@QAE?AV?$CStringT@DV?$StrTraitMFC_DLL@DV?$ChTraitsCRT@D@ATL@@@@@ATL@@V23@H@Z$37:
  001c1	8b 45 f0	 mov	 eax, DWORD PTR $T10[ebp]
  001c4	25 00 20 00 00	 and	 eax, 8192		; 00002000H
  001c9	0f 84 10 00 00
	00		 je	 $LN211@fnStructTy
  001cf	81 65 f0 ff df
	ff ff		 and	 DWORD PTR $T10[ebp], -8193 ; ffffdfffH
  001d6	8d 4d 10	 lea	 ecx, DWORD PTR $T13[ebp]
  001d9	ff 25 00 00 00
	00		 jmp	 DWORD PTR __imp_??1?$CStringT@DV?$StrTraitMFC_DLL@DV?$ChTraitsCRT@D@ATL@@@@@ATL@@QAE@XZ
$LN211@fnStructTy:
  001df	c3		 ret	 0
__unwindfunclet$?fnStructType2@CChartItemMarket@@QAE?AV?$CStringT@DV?$StrTraitMFC_DLL@DV?$ChTraitsCRT@D@ATL@@@@@ATL@@V23@H@Z$38:
  001e0	8b 45 f0	 mov	 eax, DWORD PTR $T10[ebp]
  001e3	25 00 40 00 00	 and	 eax, 16384		; 00004000H
  001e8	0f 84 10 00 00
	00		 je	 $LN224@fnStructTy
  001ee	81 65 f0 ff bf
	ff ff		 and	 DWORD PTR $T10[ebp], -16385 ; ffffbfffH
  001f5	8d 4d 10	 lea	 ecx, DWORD PTR $T12[ebp]
  001f8	ff 25 00 00 00
	00		 jmp	 DWORD PTR __imp_??1?$CStringT@DV?$StrTraitMFC_DLL@DV?$ChTraitsCRT@D@ATL@@@@@ATL@@QAE@XZ
$LN224@fnStructTy:
  001fe	c3		 ret	 0
__unwindfunclet$?fnStructType2@CChartItemMarket@@QAE?AV?$CStringT@DV?$StrTraitMFC_DLL@DV?$ChTraitsCRT@D@ATL@@@@@ATL@@V23@H@Z$39:
  001ff	8b 45 f0	 mov	 eax, DWORD PTR $T10[ebp]
  00202	25 00 80 00 00	 and	 eax, 32768		; 00008000H
  00207	0f 84 10 00 00
	00		 je	 $LN237@fnStructTy
  0020d	81 65 f0 ff 7f
	ff ff		 and	 DWORD PTR $T10[ebp], -32769 ; ffff7fffH
  00214	8d 4d 10	 lea	 ecx, DWORD PTR $T11[ebp]
  00217	ff 25 00 00 00
	00		 jmp	 DWORD PTR __imp_??1?$CStringT@DV?$StrTraitMFC_DLL@DV?$ChTraitsCRT@D@ATL@@@@@ATL@@QAE@XZ
$LN237@fnStructTy:
  0021d	c3		 ret	 0
  0021e	cc		 int	 3
  0021f	cc		 int	 3
  00220	cc		 int	 3
  00221	cc		 int	 3
  00222	cc		 int	 3
__ehhandler$?fnStructType2@CChartItemMarket@@QAE?AV?$CStringT@DV?$StrTraitMFC_DLL@DV?$ChTraitsCRT@D@ATL@@@@@ATL@@V23@H@Z:
  00223	90		 npad	 1
  00224	90		 npad	 1
  00225	8b 54 24 08	 mov	 edx, DWORD PTR [esp+8]
  00229	8d 42 0c	 lea	 eax, DWORD PTR [edx+12]
  0022c	8b 4a d0	 mov	 ecx, DWORD PTR [edx-48]
  0022f	33 c8		 xor	 ecx, eax
  00231	e8 00 00 00 00	 call	 @__security_check_cookie@4
  00236	b8 00 00 00 00	 mov	 eax, OFFSET __ehfuncinfo$?fnStructType2@CChartItemMarket@@QAE?AV?$CStringT@DV?$StrTraitMFC_DLL@DV?$ChTraitsCRT@D@ATL@@@@@ATL@@V23@H@Z
  0023b	e9 00 00 00 00	 jmp	 ___CxxFrameHandler3
text$x	ENDS
?fnStructType2@CChartItemMarket@@QAE?AV?$CStringT@DV?$StrTraitMFC_DLL@DV?$ChTraitsCRT@D@ATL@@@@@ATL@@V23@H@Z ENDP ; CChartItemMarket::fnStructType2
; Function compile flags: /Ogtp
; File D:\git\src\IBK\IBK_DRFN\ProjSrc\SrcDrfn\DrCommon\PartnerMng\ChartItemMarket.cpp
; File C:\Program Files (x86)\Microsoft Visual Studio\2019\Community\VC\Tools\MSVC\14.29.30133\atlmfc\include\atlsimpstr.h
; File D:\git\src\IBK\IBK_DRFN\ProjSrc\SrcDrfn\DrCommon\PartnerMng\ChartItemMarket.cpp
; File C:\Program Files (x86)\Microsoft Visual Studio\2019\Community\VC\Tools\MSVC\14.29.30133\atlmfc\include\atlsimpstr.h
; File D:\git\src\IBK\IBK_DRFN\ProjSrc\SrcDrfn\DrCommon\PartnerMng\ChartItemMarket.cpp
;	COMDAT ?fnStructType1@CChartItemMarket@@QAE?AV?$CStringT@DV?$StrTraitMFC_DLL@DV?$ChTraitsCRT@D@ATL@@@@@ATL@@V23@H@Z
_TEXT	SEGMENT
_strNow$ = -356						; size = 4
_strTime$ = -352					; size = 4
_strImgRgb$ = -348					; size = 4
___$ReturnUdt$GSCopy$ = -344				; size = 4
_strTemp$ = -344					; size = 4
_szDS$ = -340						; size = 4
_szCOL$ = -336						; size = 4
_strUnit$ = -332					; size = 4
_nFlag$1$ = -328					; size = 4
_szFS$ = -324						; size = 4
_strCode$ = -320					; size = 4
_strDate$ = -316					; size = 4
_nCount$1$ = -312					; size = 4
$T2 = -312						; size = 4
$T3 = -312						; size = 4
_stNextKey$ = -308					; size = 4
_nMarketType$1$ = -304					; size = 4
_stRowData$4 = -304					; size = 4
_stRowData$5 = -304					; size = 4
_stNextData$ = -300					; size = 4
_temp$6 = -296						; size = 4
_temp$7 = -296						; size = 4
_strData$ = -292					; size = 4
_Datah$8 = -288						; size = 136
_Datah$9 = -288						; size = 136
_szData_i$10 = -152					; size = 136
__$ArrayPad$ = -16					; size = 4
__$EHRec$ = -12						; size = 12
___$ReturnUdt$ = 8					; size = 4
_strGrid$ = 12						; size = 4
_nType1$ = 16						; size = 4
?fnStructType1@CChartItemMarket@@QAE?AV?$CStringT@DV?$StrTraitMFC_DLL@DV?$ChTraitsCRT@D@ATL@@@@@ATL@@V23@H@Z PROC ; CChartItemMarket::fnStructType1, COMDAT
; _this$ = ecx

; 221  : {

  00000	55		 push	 ebp
  00001	8b ec		 mov	 ebp, esp
  00003	6a ff		 push	 -1
  00005	68 00 00 00 00	 push	 __ehhandler$?fnStructType1@CChartItemMarket@@QAE?AV?$CStringT@DV?$StrTraitMFC_DLL@DV?$ChTraitsCRT@D@ATL@@@@@ATL@@V23@H@Z
  0000a	64 a1 00 00 00
	00		 mov	 eax, DWORD PTR fs:0
  00010	50		 push	 eax
  00011	81 ec 58 01 00
	00		 sub	 esp, 344		; 00000158H
  00017	a1 00 00 00 00	 mov	 eax, DWORD PTR ___security_cookie
  0001c	33 c5		 xor	 eax, ebp
  0001e	89 45 f0	 mov	 DWORD PTR __$ArrayPad$[ebp], eax
  00021	53		 push	 ebx
  00022	56		 push	 esi
  00023	57		 push	 edi
  00024	50		 push	 eax
  00025	8d 45 f4	 lea	 eax, DWORD PTR __$EHRec$[ebp]
  00028	64 a3 00 00 00
	00		 mov	 DWORD PTR fs:0, eax
  0002e	8b f9		 mov	 edi, ecx
  00030	8b 5d 08	 mov	 ebx, DWORD PTR ___$ReturnUdt$[ebp]
  00033	89 9d a8 fe ff
	ff		 mov	 DWORD PTR ___$ReturnUdt$GSCopy$[ebp], ebx

; 222  : 	if(!m_bSet) 

  00039	80 7f 04 00	 cmp	 BYTE PTR [edi+4], 0
  0003d	c7 45 fc 00 00
	00 00		 mov	 DWORD PTR __$EHRec$[ebp+8], 0
  00044	75 12		 jne	 SHORT $LN4@fnStructTy

; 223  : 		return "";

  00046	68 00 00 00 00	 push	 OFFSET ??_C@_00CNPNBAHC@@
  0004b	8b cb		 mov	 ecx, ebx
  0004d	ff 15 00 00 00
	00		 call	 DWORD PTR __imp_??0?$CStringT@DV?$StrTraitMFC_DLL@DV?$ChTraitsCRT@D@ATL@@@@@ATL@@QAE@PBD@Z
  00053	e9 01 0c 00 00	 jmp	 $LN125@fnStructTy
$LN4@fnStructTy:

; 224  : 	CString szDS, szFS, szCOL;

  00058	8d 8d ac fe ff
	ff		 lea	 ecx, DWORD PTR _szDS$[ebp]
  0005e	ff 15 00 00 00
	00		 call	 DWORD PTR __imp_??0?$CStringT@DV?$StrTraitMFC_DLL@DV?$ChTraitsCRT@D@ATL@@@@@ATL@@QAE@XZ
  00064	8d 8d bc fe ff
	ff		 lea	 ecx, DWORD PTR _szFS$[ebp]
  0006a	ff 15 00 00 00
	00		 call	 DWORD PTR __imp_??0?$CStringT@DV?$StrTraitMFC_DLL@DV?$ChTraitsCRT@D@ATL@@@@@ATL@@QAE@XZ
  00070	8d 8d b0 fe ff
	ff		 lea	 ecx, DWORD PTR _szCOL$[ebp]
  00076	ff 15 00 00 00
	00		 call	 DWORD PTR __imp_??0?$CStringT@DV?$StrTraitMFC_DLL@DV?$ChTraitsCRT@D@ATL@@@@@ATL@@QAE@XZ

; 225  : 	szDS = sDS;	szFS = sCELL;	szCOL = sCOL;

  0007c	6a 7f		 push	 127			; 0000007fH
  0007e	8d 8d ac fe ff
	ff		 lea	 ecx, DWORD PTR _szDS$[ebp]
  00084	c6 45 fc 03	 mov	 BYTE PTR __$EHRec$[ebp+8], 3
  00088	ff 15 00 00 00
	00		 call	 DWORD PTR __imp_??4?$CStringT@DV?$StrTraitMFC_DLL@DV?$ChTraitsCRT@D@ATL@@@@@ATL@@QAEAAV01@D@Z
  0008e	6a 09		 push	 9
  00090	8d 8d bc fe ff
	ff		 lea	 ecx, DWORD PTR _szFS$[ebp]
  00096	ff 15 00 00 00
	00		 call	 DWORD PTR __imp_??4?$CStringT@DV?$StrTraitMFC_DLL@DV?$ChTraitsCRT@D@ATL@@@@@ATL@@QAEAAV01@D@Z
  0009c	6a 0a		 push	 10			; 0000000aH
  0009e	8d 8d b0 fe ff
	ff		 lea	 ecx, DWORD PTR _szCOL$[ebp]
  000a4	ff 15 00 00 00
	00		 call	 DWORD PTR __imp_??4?$CStringT@DV?$StrTraitMFC_DLL@DV?$ChTraitsCRT@D@ATL@@@@@ATL@@QAEAAV01@D@Z

; 226  : 	CString strData, strCode, strTemp, strDate, strNow, strUnit, strTime, strImgRgb;

  000aa	8d 8d dc fe ff
	ff		 lea	 ecx, DWORD PTR _strData$[ebp]
  000b0	ff 15 00 00 00
	00		 call	 DWORD PTR __imp_??0?$CStringT@DV?$StrTraitMFC_DLL@DV?$ChTraitsCRT@D@ATL@@@@@ATL@@QAE@XZ
  000b6	8d 8d c0 fe ff
	ff		 lea	 ecx, DWORD PTR _strCode$[ebp]
  000bc	ff 15 00 00 00
	00		 call	 DWORD PTR __imp_??0?$CStringT@DV?$StrTraitMFC_DLL@DV?$ChTraitsCRT@D@ATL@@@@@ATL@@QAE@XZ
  000c2	8d 8d a8 fe ff
	ff		 lea	 ecx, DWORD PTR _strTemp$[ebp]
  000c8	ff 15 00 00 00
	00		 call	 DWORD PTR __imp_??0?$CStringT@DV?$StrTraitMFC_DLL@DV?$ChTraitsCRT@D@ATL@@@@@ATL@@QAE@XZ
  000ce	8d 8d c4 fe ff
	ff		 lea	 ecx, DWORD PTR _strDate$[ebp]
  000d4	ff 15 00 00 00
	00		 call	 DWORD PTR __imp_??0?$CStringT@DV?$StrTraitMFC_DLL@DV?$ChTraitsCRT@D@ATL@@@@@ATL@@QAE@XZ
  000da	8d 8d 9c fe ff
	ff		 lea	 ecx, DWORD PTR _strNow$[ebp]
  000e0	ff 15 00 00 00
	00		 call	 DWORD PTR __imp_??0?$CStringT@DV?$StrTraitMFC_DLL@DV?$ChTraitsCRT@D@ATL@@@@@ATL@@QAE@XZ
  000e6	8d 8d b4 fe ff
	ff		 lea	 ecx, DWORD PTR _strUnit$[ebp]
  000ec	ff 15 00 00 00
	00		 call	 DWORD PTR __imp_??0?$CStringT@DV?$StrTraitMFC_DLL@DV?$ChTraitsCRT@D@ATL@@@@@ATL@@QAE@XZ
  000f2	8d 8d a0 fe ff
	ff		 lea	 ecx, DWORD PTR _strTime$[ebp]
  000f8	ff 15 00 00 00
	00		 call	 DWORD PTR __imp_??0?$CStringT@DV?$StrTraitMFC_DLL@DV?$ChTraitsCRT@D@ATL@@@@@ATL@@QAE@XZ
  000fe	8d 8d a4 fe ff
	ff		 lea	 ecx, DWORD PTR _strImgRgb$[ebp]
  00104	ff 15 00 00 00
	00		 call	 DWORD PTR __imp_??0?$CStringT@DV?$StrTraitMFC_DLL@DV?$ChTraitsCRT@D@ATL@@@@@ATL@@QAE@XZ

; 227  : 	CString stNextKey, stNextData;

  0010a	8d 8d cc fe ff
	ff		 lea	 ecx, DWORD PTR _stNextKey$[ebp]
  00110	ff 15 00 00 00
	00		 call	 DWORD PTR __imp_??0?$CStringT@DV?$StrTraitMFC_DLL@DV?$ChTraitsCRT@D@ATL@@@@@ATL@@QAE@XZ
  00116	8d 8d d4 fe ff
	ff		 lea	 ecx, DWORD PTR _stNextData$[ebp]
  0011c	ff 15 00 00 00
	00		 call	 DWORD PTR __imp_??0?$CStringT@DV?$StrTraitMFC_DLL@DV?$ChTraitsCRT@D@ATL@@@@@ATL@@QAE@XZ

; 228  : 	int  nCount, nUnit, nType, nFlag, nMarketType;
; 229  : 	double dUSDollar=1;
; 230  : 	
; 231  : 	strCode	= CDataConverter::Char2String(m_InData.shcode, sizeof(m_InData.shcode));

  00122	6a 08		 push	 8
  00124	8d 47 0e	 lea	 eax, DWORD PTR [edi+14]
  00127	c6 45 fc 0d	 mov	 BYTE PTR __$EHRec$[ebp+8], 13 ; 0000000dH
  0012b	50		 push	 eax
  0012c	8d 85 c8 fe ff
	ff		 lea	 eax, DWORD PTR $T3[ebp]
  00132	50		 push	 eax
  00133	e8 00 00 00 00	 call	 ?Char2String@CDataConverter@@SA?AV?$CStringT@DV?$StrTraitMFC_DLL@DV?$ChTraitsCRT@D@ATL@@@@@ATL@@PADH@Z ; CDataConverter::Char2String
  00138	83 c4 0c	 add	 esp, 12			; 0000000cH
  0013b	50		 push	 eax
  0013c	8d 8d c0 fe ff
	ff		 lea	 ecx, DWORD PTR _strCode$[ebp]
  00142	c6 45 fc 0e	 mov	 BYTE PTR __$EHRec$[ebp+8], 14 ; 0000000eH
  00146	ff 15 00 00 00
	00		 call	 DWORD PTR __imp_??4?$CStringT@DV?$StrTraitMFC_DLL@DV?$ChTraitsCRT@D@ATL@@@@@ATL@@QAEAAV01@ABV01@@Z
  0014c	8d 8d c8 fe ff
	ff		 lea	 ecx, DWORD PTR $T3[ebp]
  00152	c6 45 fc 0d	 mov	 BYTE PTR __$EHRec$[ebp+8], 13 ; 0000000dH
  00156	ff 15 00 00 00
	00		 call	 DWORD PTR __imp_??1?$CStringT@DV?$StrTraitMFC_DLL@DV?$ChTraitsCRT@D@ATL@@@@@ATL@@QAE@XZ

; 232  : 	strDate	= CDataConverter::Char2String(m_InData.edate, sizeof(m_InData.edate));

  0015c	6a 08		 push	 8
  0015e	8d 47 16	 lea	 eax, DWORD PTR [edi+22]
  00161	50		 push	 eax
  00162	8d 85 c8 fe ff
	ff		 lea	 eax, DWORD PTR $T2[ebp]
  00168	50		 push	 eax
  00169	e8 00 00 00 00	 call	 ?Char2String@CDataConverter@@SA?AV?$CStringT@DV?$StrTraitMFC_DLL@DV?$ChTraitsCRT@D@ATL@@@@@ATL@@PADH@Z ; CDataConverter::Char2String
  0016e	83 c4 0c	 add	 esp, 12			; 0000000cH
  00171	50		 push	 eax
  00172	8d 8d c4 fe ff
	ff		 lea	 ecx, DWORD PTR _strDate$[ebp]
  00178	c6 45 fc 0f	 mov	 BYTE PTR __$EHRec$[ebp+8], 15 ; 0000000fH
  0017c	ff 15 00 00 00
	00		 call	 DWORD PTR __imp_??4?$CStringT@DV?$StrTraitMFC_DLL@DV?$ChTraitsCRT@D@ATL@@@@@ATL@@QAEAAV01@ABV01@@Z
  00182	8d 8d c8 fe ff
	ff		 lea	 ecx, DWORD PTR $T2[ebp]
  00188	c6 45 fc 0d	 mov	 BYTE PTR __$EHRec$[ebp+8], 13 ; 0000000dH
  0018c	ff 15 00 00 00
	00		 call	 DWORD PTR __imp_??1?$CStringT@DV?$StrTraitMFC_DLL@DV?$ChTraitsCRT@D@ATL@@@@@ATL@@QAE@XZ

; 233  : //	strNow	= CDataConverter::Char2String(m_InData.nowData, sizeof(m_InData.nowData));
; 234  : //	strTime	= CDataConverter::Char2String(m_InData.Itime, sizeof(m_InData.Itime));
; 235  : 	nCount	= CDataConverter::Char2Int(m_InData.num, sizeof(m_InData.num));

  00192	6a 04		 push	 4
  00194	8d 47 1e	 lea	 eax, DWORD PTR [edi+30]
  00197	50		 push	 eax
  00198	e8 00 00 00 00	 call	 ?Char2Int@CDataConverter@@SAHPADH@Z ; CDataConverter::Char2Int

; 236  : 	nUnit	= CDataConverter::Char2Int(m_InData.unit, sizeof(m_InData.unit));

  0019d	8d 8f dc 00 00
	00		 lea	 ecx, DWORD PTR [edi+220]
  001a3	89 85 c8 fe ff
	ff		 mov	 DWORD PTR _nCount$1$[ebp], eax
  001a9	6a 03		 push	 3
  001ab	51		 push	 ecx
  001ac	e8 00 00 00 00	 call	 ?Char2Int@CDataConverter@@SAHPADH@Z ; CDataConverter::Char2Int

; 237  : 	nType	= CDataConverter::Char2Int(m_InData.button, sizeof(m_InData.button));	// (0)/(1)/(2)/(3)/(4)

  001b1	8d 8f df 00 00
	00		 lea	 ecx, DWORD PTR [edi+223]
  001b7	8b f0		 mov	 esi, eax
  001b9	6a 01		 push	 1
  001bb	51		 push	 ecx
  001bc	e8 00 00 00 00	 call	 ?Char2Int@CDataConverter@@SAHPADH@Z ; CDataConverter::Char2Int

; 238  : //	strImgRgb = CDataConverter::Char2String(m_InData.ImgRgb, sizeof(m_InData.ImgRgb));
; 239  : 	nFlag     = CDataConverter::Char2Int(m_InData.nxtGb, sizeof(m_InData.nxtGb));	// 0:

  001c1	8d 8f 87 00 00
	00		 lea	 ecx, DWORD PTR [edi+135]
  001c7	6a 01		 push	 1
  001c9	51		 push	 ecx
  001ca	e8 00 00 00 00	 call	 ?Char2Int@CDataConverter@@SAHPADH@Z ; CDataConverter::Char2Int

; 240  : 	nMarketType  = CDataConverter::Char2Int(m_InData.type, sizeof(m_InData.type));	// 

  001cf	8d 4f 0d	 lea	 ecx, DWORD PTR [edi+13]
  001d2	89 85 b8 fe ff
	ff		 mov	 DWORD PTR _nFlag$1$[ebp], eax
  001d8	6a 01		 push	 1
  001da	51		 push	 ecx
  001db	e8 00 00 00 00	 call	 ?Char2Int@CDataConverter@@SAHPADH@Z ; CDataConverter::Char2Int

; 241  : 
; 242  : 	strUnit.Format(_T("%d"), nUnit);

  001e0	56		 push	 esi
  001e1	8b 35 00 00 00
	00		 mov	 esi, DWORD PTR __imp_?Format@?$CStringT@DV?$StrTraitMFC_DLL@DV?$ChTraitsCRT@D@ATL@@@@@ATL@@QAAXPBDZZ
  001e7	89 85 d0 fe ff
	ff		 mov	 DWORD PTR _nMarketType$1$[ebp], eax
  001ed	8d 85 b4 fe ff
	ff		 lea	 eax, DWORD PTR _strUnit$[ebp]
  001f3	68 00 00 00 00	 push	 OFFSET ??_C@_02DPKJAMEF@?$CFd@
  001f8	50		 push	 eax
  001f9	ff d6		 call	 esi

; 243  : 
; 244  : 	//////////////////////////////////////////////////////////////////////////
; 245  : 	//	Inbound Data
; 246  : 	
; 247  : 	//	 Input 
; 248  : 	if (nMarketType == 0)

  001fb	8b 85 d0 fe ff
	ff		 mov	 eax, DWORD PTR _nMarketType$1$[ebp]
  00201	83 c4 34	 add	 esp, 52			; 00000034H
  00204	85 c0		 test	 eax, eax
  00206	0f 85 8c 01 00
	00		 jne	 $LN5@fnStructTy

; 249  : 	{
; 250  : 		_dataH	Datah;
; 251  : 		FillMemory(&Datah, sz_DATAH, 0x20);

  0020c	68 88 00 00 00	 push	 136			; 00000088H
  00211	8d 85 e0 fe ff
	ff		 lea	 eax, DWORD PTR _Datah$9[ebp]
  00217	6a 20		 push	 32			; 00000020H
  00219	50		 push	 eax
  0021a	e8 00 00 00 00	 call	 _memset
  0021f	83 c4 0c	 add	 esp, 12			; 0000000cH

; 252  : 		strData += "1301";	strData += sDS;	strData += strCode;	strData += sCELL;//KHD sFS;

  00222	8d 8d dc fe ff
	ff		 lea	 ecx, DWORD PTR _strData$[ebp]
  00228	68 00 00 00 00	 push	 OFFSET ??_C@_04KFDECMLJ@1301@
  0022d	ff 15 00 00 00
	00		 call	 DWORD PTR __imp_??Y?$CStringT@DV?$StrTraitMFC_DLL@DV?$ChTraitsCRT@D@ATL@@@@@ATL@@QAEAAV01@PBD@Z
  00233	6a 7f		 push	 127			; 0000007fH
  00235	8d 8d dc fe ff
	ff		 lea	 ecx, DWORD PTR _strData$[ebp]
  0023b	ff 15 00 00 00
	00		 call	 DWORD PTR __imp_??Y?$CStringT@DV?$StrTraitMFC_DLL@DV?$ChTraitsCRT@D@ATL@@@@@ATL@@QAEAAV01@D@Z
  00241	8d 85 c0 fe ff
	ff		 lea	 eax, DWORD PTR _strCode$[ebp]
  00247	50		 push	 eax
  00248	8d 8d dc fe ff
	ff		 lea	 ecx, DWORD PTR _strData$[ebp]
  0024e	ff 15 00 00 00
	00		 call	 DWORD PTR __imp_??Y?$CStringT@DV?$StrTraitMFC_DLL@DV?$ChTraitsCRT@D@ATL@@@@@ATL@@QAEAAV01@ABV?$CSimpleStringT@D$00@1@@Z
  00254	6a 09		 push	 9
  00256	8d 8d dc fe ff
	ff		 lea	 ecx, DWORD PTR _strData$[ebp]
  0025c	ff 15 00 00 00
	00		 call	 DWORD PTR __imp_??Y?$CStringT@DV?$StrTraitMFC_DLL@DV?$ChTraitsCRT@D@ATL@@@@@ATL@@QAEAAV01@D@Z

; 253  : 		CString stRowData;

  00262	8d 8d d0 fe ff
	ff		 lea	 ecx, DWORD PTR _stRowData$5[ebp]
  00268	ff 15 00 00 00
	00		 call	 DWORD PTR __imp_??0?$CStringT@DV?$StrTraitMFC_DLL@DV?$ChTraitsCRT@D@ATL@@@@@ATL@@QAE@XZ

; 254  : 		
; 255  : 		Datah.dindex = GI_DAY;
; 256  : 		nUnit = 1;
; 257  : 		stRowData = _T("?5500");

  0026e	68 00 00 00 00	 push	 OFFSET ??_C@_05OOAIAHCC@?$DP5500@
  00273	8d 8d d0 fe ff
	ff		 lea	 ecx, DWORD PTR _stRowData$5[ebp]
  00279	c6 45 fc 10	 mov	 BYTE PTR __$EHRec$[ebp+8], 16 ; 00000010H
  0027d	c6 85 f7 fe ff
	ff 01		 mov	 BYTE PTR _Datah$9[ebp+23], 1
  00284	ff 15 00 00 00
	00		 call	 DWORD PTR __imp_??4?$CStringT@DV?$StrTraitMFC_DLL@DV?$ChTraitsCRT@D@ATL@@@@@ATL@@QAEAAV01@PBD@Z
  0028a	81 c7 88 00 00
	00		 add	 edi, 136		; 00000088H

; 258  : 		
; 259  : 		//NEXTKEY : KHD
; 260  : 		if (nFlag == 0)

  00290	83 bd b8 fe ff
	ff 00		 cmp	 DWORD PTR _nFlag$1$[ebp], 0
  00297	75 24		 jne	 SHORT $LN121@fnStructTy

; 261  : 		{
; 262  : 			stNextData = "99999999999999";

  00299	68 00 00 00 00	 push	 OFFSET ??_C@_0P@FLGGHACJ@99999999999999@
  0029e	8d 8d d4 fe ff
	ff		 lea	 ecx, DWORD PTR _stNextData$[ebp]
  002a4	ff 15 00 00 00
	00		 call	 DWORD PTR __imp_??4?$CStringT@DV?$StrTraitMFC_DLL@DV?$ChTraitsCRT@D@ATL@@@@@ATL@@QAEAAV01@PBD@Z
; File C:\Program Files (x86)\Microsoft Visual Studio\2019\Community\VC\Tools\MSVC\14.29.30133\atlmfc\include\atlsimpstr.h

; 519  : 		return( GetData()->nDataLength );

  002aa	8b 85 d4 fe ff
	ff		 mov	 eax, DWORD PTR _stNextData$[ebp]
; File D:\git\src\IBK\IBK_DRFN\ProjSrc\SrcDrfn\DrCommon\PartnerMng\ChartItemMarket.cpp

; 263  : 			memcpy(m_InData.nxtKey, (LPCSTR)(LPCTSTR)stNextData,stNextData.GetLength());

  002b0	ff 70 f4	 push	 DWORD PTR [eax-12]
  002b3	50		 push	 eax
  002b4	57		 push	 edi
  002b5	e8 00 00 00 00	 call	 _memcpy
  002ba	83 c4 0c	 add	 esp, 12			; 0000000cH
$LN121@fnStructTy:

; 264  : 		}
; 265  : 		
; 266  : 		stNextKey = "5324";

  002bd	68 00 00 00 00	 push	 OFFSET ??_C@_04COEHKKFC@5324@
  002c2	8d 8d cc fe ff
	ff		 lea	 ecx, DWORD PTR _stNextKey$[ebp]
  002c8	ff 15 00 00 00
	00		 call	 DWORD PTR __imp_??4?$CStringT@DV?$StrTraitMFC_DLL@DV?$ChTraitsCRT@D@ATL@@@@@ATL@@QAEAAV01@PBD@Z

; 267  : 		stNextData.Format("%8.8s",m_InData.nxtKey );

  002ce	57		 push	 edi
  002cf	8d 85 d4 fe ff
	ff		 lea	 eax, DWORD PTR _stNextData$[ebp]
  002d5	68 00 00 00 00	 push	 OFFSET ??_C@_05OGIKHPIO@?$CF8?48s@
  002da	50		 push	 eax
  002db	ff d6		 call	 esi
  002dd	83 c4 0c	 add	 esp, 12			; 0000000cH

; 268  : 		strData += stNextKey; strData += sDS;	strData += stNextData;	strData += sCELL; //   : KHD 

  002e0	8d 85 cc fe ff
	ff		 lea	 eax, DWORD PTR _stNextKey$[ebp]
  002e6	8d 8d dc fe ff
	ff		 lea	 ecx, DWORD PTR _strData$[ebp]
  002ec	50		 push	 eax
  002ed	ff 15 00 00 00
	00		 call	 DWORD PTR __imp_??Y?$CStringT@DV?$StrTraitMFC_DLL@DV?$ChTraitsCRT@D@ATL@@@@@ATL@@QAEAAV01@ABV?$CSimpleStringT@D$00@1@@Z
  002f3	6a 7f		 push	 127			; 0000007fH
  002f5	8d 8d dc fe ff
	ff		 lea	 ecx, DWORD PTR _strData$[ebp]
  002fb	ff 15 00 00 00
	00		 call	 DWORD PTR __imp_??Y?$CStringT@DV?$StrTraitMFC_DLL@DV?$ChTraitsCRT@D@ATL@@@@@ATL@@QAEAAV01@D@Z
  00301	8d 85 d4 fe ff
	ff		 lea	 eax, DWORD PTR _stNextData$[ebp]
  00307	50		 push	 eax
  00308	8d 8d dc fe ff
	ff		 lea	 ecx, DWORD PTR _strData$[ebp]
  0030e	ff 15 00 00 00
	00		 call	 DWORD PTR __imp_??Y?$CStringT@DV?$StrTraitMFC_DLL@DV?$ChTraitsCRT@D@ATL@@@@@ATL@@QAEAAV01@ABV?$CSimpleStringT@D$00@1@@Z
  00314	6a 09		 push	 9
  00316	8d 8d dc fe ff
	ff		 lea	 ecx, DWORD PTR _strData$[ebp]
  0031c	ff 15 00 00 00
	00		 call	 DWORD PTR __imp_??Y?$CStringT@DV?$StrTraitMFC_DLL@DV?$ChTraitsCRT@D@ATL@@@@@ATL@@QAEAAV01@D@Z

; 269  : 		
; 270  : 		//////////////////////////////////////////////////////////////////////////
; 271  : 		//	OutBound Data
; 272  : 		strData += "1301";

  00322	68 00 00 00 00	 push	 OFFSET ??_C@_04KFDECMLJ@1301@
  00327	8d 8d dc fe ff
	ff		 lea	 ecx, DWORD PTR _strData$[ebp]
  0032d	ff 15 00 00 00
	00		 call	 DWORD PTR __imp_??Y?$CStringT@DV?$StrTraitMFC_DLL@DV?$ChTraitsCRT@D@ATL@@@@@ATL@@QAEAAV01@PBD@Z

; 273  : 		strData += sCELL;//KHD sFS;

  00333	6a 09		 push	 9
  00335	8d 8d dc fe ff
	ff		 lea	 ecx, DWORD PTR _strData$[ebp]
  0033b	ff 15 00 00 00
	00		 call	 DWORD PTR __imp_??Y?$CStringT@DV?$StrTraitMFC_DLL@DV?$ChTraitsCRT@D@ATL@@@@@ATL@@QAEAAV01@D@Z

; 274  : 		
; 275  : 		strData += stNextKey;

  00341	8d 85 cc fe ff
	ff		 lea	 eax, DWORD PTR _stNextKey$[ebp]
  00347	50		 push	 eax
  00348	8d 8d dc fe ff
	ff		 lea	 ecx, DWORD PTR _strData$[ebp]
  0034e	ff 15 00 00 00
	00		 call	 DWORD PTR __imp_??Y?$CStringT@DV?$StrTraitMFC_DLL@DV?$ChTraitsCRT@D@ATL@@@@@ATL@@QAEAAV01@ABV?$CSimpleStringT@D$00@1@@Z

; 276  : 		strData += sCELL;

  00354	6a 09		 push	 9
  00356	8d 8d dc fe ff
	ff		 lea	 ecx, DWORD PTR _strData$[ebp]
  0035c	ff 15 00 00 00
	00		 call	 DWORD PTR __imp_??Y?$CStringT@DV?$StrTraitMFC_DLL@DV?$ChTraitsCRT@D@ATL@@@@@ATL@@QAEAAV01@D@Z

; 277  : 		
; 278  : 		// Row Data 
; 279  : 		strData += stRowData;

  00362	8d 85 d0 fe ff
	ff		 lea	 eax, DWORD PTR _stRowData$5[ebp]
  00368	50		 push	 eax
  00369	8d 8d dc fe ff
	ff		 lea	 ecx, DWORD PTR _strData$[ebp]
  0036f	ff 15 00 00 00
	00		 call	 DWORD PTR __imp_??Y?$CStringT@DV?$StrTraitMFC_DLL@DV?$ChTraitsCRT@D@ATL@@@@@ATL@@QAEAAV01@ABV?$CSimpleStringT@D$00@1@@Z

; 280  : 		strData += sDS;

  00375	6a 7f		 push	 127			; 0000007fH
  00377	8d 8d dc fe ff
	ff		 lea	 ecx, DWORD PTR _strData$[ebp]
  0037d	ff 15 00 00 00
	00		 call	 DWORD PTR __imp_??Y?$CStringT@DV?$StrTraitMFC_DLL@DV?$ChTraitsCRT@D@ATL@@@@@ATL@@QAEAAV01@D@Z

; 281  : 		
; 282  : 		CString temp;

  00383	8d 8d d8 fe ff
	ff		 lea	 ecx, DWORD PTR _temp$7[ebp]
  00389	ff 15 00 00 00
	00		 call	 DWORD PTR __imp_??0?$CStringT@DV?$StrTraitMFC_DLL@DV?$ChTraitsCRT@D@ATL@@@@@ATL@@QAE@XZ
  0038f	c6 45 fc 11	 mov	 BYTE PTR __$EHRec$[ebp+8], 17 ; 00000011H

; 283  : 		//  
; 284  : 		int GrpHLen = 0;
; 285  : 		temp.Format("%06d", nCount);
; 286  : 		CopyMemory(Datah.count, temp, temp.GetLength());
; 287  : 		Datah.dkey = 0 + 0x30;
; 288  : 		
; 289  : 		CopyMemory(Datah.pday, strDate, strDate.GetLength());
; 290  : 		
; 291  : 		temp.Format("%0*d", sizeof(Datah.lgap), nUnit);// N 
; 292  : 		CopyMemory(Datah.lgap, temp, temp.GetLength() );
; 293  : 		
; 294  : 		char szData_i[sz_DATAH];
; 295  : 		memset(szData_i, 0x20, sz_DATAH);//sizeof(Datah));
; 296  : 		CopyMemory(szData_i, (char*)&Datah, sz_DATAH);//sizeof(Datah));
; 297  : 		szData_i[sz_DATAH-1] = 0x00; // KHD :  0x00  .
; 298  : 		strData += szData_i;
; 299  : 	}

  00393	e9 90 01 00 00	 jmp	 $LN127@fnStructTy
$LN5@fnStructTy:

; 300  : 	else if (nMarketType == 1)

  00398	83 f8 01	 cmp	 eax, 1
  0039b	0f 85 3b 02 00
	00		 jne	 $LN8@fnStructTy

; 301  : 	{
; 302  : 		_dataH	Datah;
; 303  : 		FillMemory(&Datah, sz_DATAH, 0x20);

  003a1	68 88 00 00 00	 push	 136			; 00000088H
  003a6	8d 85 e0 fe ff
	ff		 lea	 eax, DWORD PTR _Datah$8[ebp]
  003ac	6a 20		 push	 32			; 00000020H
  003ae	50		 push	 eax
  003af	e8 00 00 00 00	 call	 _memset
  003b4	83 c4 0c	 add	 esp, 12			; 0000000cH

; 304  : 		strData += "21301";	strData += sDS;	strData += strCode;	strData += sCELL;//KHD sFS;

  003b7	8d 8d dc fe ff
	ff		 lea	 ecx, DWORD PTR _strData$[ebp]
  003bd	68 00 00 00 00	 push	 OFFSET ??_C@_05JLGGNMKB@21301@
  003c2	ff 15 00 00 00
	00		 call	 DWORD PTR __imp_??Y?$CStringT@DV?$StrTraitMFC_DLL@DV?$ChTraitsCRT@D@ATL@@@@@ATL@@QAEAAV01@PBD@Z
  003c8	6a 7f		 push	 127			; 0000007fH
  003ca	8d 8d dc fe ff
	ff		 lea	 ecx, DWORD PTR _strData$[ebp]
  003d0	ff 15 00 00 00
	00		 call	 DWORD PTR __imp_??Y?$CStringT@DV?$StrTraitMFC_DLL@DV?$ChTraitsCRT@D@ATL@@@@@ATL@@QAEAAV01@D@Z
  003d6	8d 85 c0 fe ff
	ff		 lea	 eax, DWORD PTR _strCode$[ebp]
  003dc	50		 push	 eax
  003dd	8d 8d dc fe ff
	ff		 lea	 ecx, DWORD PTR _strData$[ebp]
  003e3	ff 15 00 00 00
	00		 call	 DWORD PTR __imp_??Y?$CStringT@DV?$StrTraitMFC_DLL@DV?$ChTraitsCRT@D@ATL@@@@@ATL@@QAEAAV01@ABV?$CSimpleStringT@D$00@1@@Z
  003e9	6a 09		 push	 9
  003eb	8d 8d dc fe ff
	ff		 lea	 ecx, DWORD PTR _strData$[ebp]
  003f1	ff 15 00 00 00
	00		 call	 DWORD PTR __imp_??Y?$CStringT@DV?$StrTraitMFC_DLL@DV?$ChTraitsCRT@D@ATL@@@@@ATL@@QAEAAV01@D@Z

; 305  : 		CString stRowData;

  003f7	8d 8d d0 fe ff
	ff		 lea	 ecx, DWORD PTR _stRowData$4[ebp]
  003fd	ff 15 00 00 00
	00		 call	 DWORD PTR __imp_??0?$CStringT@DV?$StrTraitMFC_DLL@DV?$ChTraitsCRT@D@ATL@@@@@ATL@@QAE@XZ

; 306  : 		
; 307  : 		Datah.dindex = GI_DAY;
; 308  : 		nUnit = 1;
; 309  : 		stRowData = _T("?25500");

  00403	68 00 00 00 00	 push	 OFFSET ??_C@_06CABDLPJK@?$DP25500@
  00408	8d 8d d0 fe ff
	ff		 lea	 ecx, DWORD PTR _stRowData$4[ebp]
  0040e	c6 45 fc 12	 mov	 BYTE PTR __$EHRec$[ebp+8], 18 ; 00000012H
  00412	c6 85 f7 fe ff
	ff 01		 mov	 BYTE PTR _Datah$8[ebp+23], 1
  00419	ff 15 00 00 00
	00		 call	 DWORD PTR __imp_??4?$CStringT@DV?$StrTraitMFC_DLL@DV?$ChTraitsCRT@D@ATL@@@@@ATL@@QAEAAV01@PBD@Z
  0041f	81 c7 88 00 00
	00		 add	 edi, 136		; 00000088H

; 310  : 		
; 311  : 		//NEXTKEY : KHD
; 312  : 		if (nFlag == 0)

  00425	83 bd b8 fe ff
	ff 00		 cmp	 DWORD PTR _nFlag$1$[ebp], 0
  0042c	75 24		 jne	 SHORT $LN122@fnStructTy

; 313  : 		{
; 314  : 			stNextData = "99999999999999";

  0042e	68 00 00 00 00	 push	 OFFSET ??_C@_0P@FLGGHACJ@99999999999999@
  00433	8d 8d d4 fe ff
	ff		 lea	 ecx, DWORD PTR _stNextData$[ebp]
  00439	ff 15 00 00 00
	00		 call	 DWORD PTR __imp_??4?$CStringT@DV?$StrTraitMFC_DLL@DV?$ChTraitsCRT@D@ATL@@@@@ATL@@QAEAAV01@PBD@Z
; File C:\Program Files (x86)\Microsoft Visual Studio\2019\Community\VC\Tools\MSVC\14.29.30133\atlmfc\include\atlsimpstr.h

; 519  : 		return( GetData()->nDataLength );

  0043f	8b 85 d4 fe ff
	ff		 mov	 eax, DWORD PTR _stNextData$[ebp]
; File D:\git\src\IBK\IBK_DRFN\ProjSrc\SrcDrfn\DrCommon\PartnerMng\ChartItemMarket.cpp

; 315  : 			memcpy(m_InData.nxtKey, (LPCSTR)(LPCTSTR)stNextData,stNextData.GetLength());

  00445	ff 70 f4	 push	 DWORD PTR [eax-12]
  00448	50		 push	 eax
  00449	57		 push	 edi
  0044a	e8 00 00 00 00	 call	 _memcpy
  0044f	83 c4 0c	 add	 esp, 12			; 0000000cH
$LN122@fnStructTy:

; 316  : 		}
; 317  : 		
; 318  : 		stNextKey = "25324";

  00452	68 00 00 00 00	 push	 OFFSET ??_C@_05BABFFKEK@25324@
  00457	8d 8d cc fe ff
	ff		 lea	 ecx, DWORD PTR _stNextKey$[ebp]
  0045d	ff 15 00 00 00
	00		 call	 DWORD PTR __imp_??4?$CStringT@DV?$StrTraitMFC_DLL@DV?$ChTraitsCRT@D@ATL@@@@@ATL@@QAEAAV01@PBD@Z

; 319  : 		stNextData.Format("%8.8s",m_InData.nxtKey );

  00463	57		 push	 edi
  00464	8d 85 d4 fe ff
	ff		 lea	 eax, DWORD PTR _stNextData$[ebp]
  0046a	68 00 00 00 00	 push	 OFFSET ??_C@_05OGIKHPIO@?$CF8?48s@
  0046f	50		 push	 eax
  00470	ff d6		 call	 esi
  00472	83 c4 0c	 add	 esp, 12			; 0000000cH

; 320  : 		strData += stNextKey; strData += sDS;	strData += stNextData;	strData += sCELL; //   : KHD 

  00475	8d 85 cc fe ff
	ff		 lea	 eax, DWORD PTR _stNextKey$[ebp]
  0047b	8d 8d dc fe ff
	ff		 lea	 ecx, DWORD PTR _strData$[ebp]
  00481	50		 push	 eax
  00482	ff 15 00 00 00
	00		 call	 DWORD PTR __imp_??Y?$CStringT@DV?$StrTraitMFC_DLL@DV?$ChTraitsCRT@D@ATL@@@@@ATL@@QAEAAV01@ABV?$CSimpleStringT@D$00@1@@Z
  00488	6a 7f		 push	 127			; 0000007fH
  0048a	8d 8d dc fe ff
	ff		 lea	 ecx, DWORD PTR _strData$[ebp]
  00490	ff 15 00 00 00
	00		 call	 DWORD PTR __imp_??Y?$CStringT@DV?$StrTraitMFC_DLL@DV?$ChTraitsCRT@D@ATL@@@@@ATL@@QAEAAV01@D@Z
  00496	8d 85 d4 fe ff
	ff		 lea	 eax, DWORD PTR _stNextData$[ebp]
  0049c	50		 push	 eax
  0049d	8d 8d dc fe ff
	ff		 lea	 ecx, DWORD PTR _strData$[ebp]
  004a3	ff 15 00 00 00
	00		 call	 DWORD PTR __imp_??Y?$CStringT@DV?$StrTraitMFC_DLL@DV?$ChTraitsCRT@D@ATL@@@@@ATL@@QAEAAV01@ABV?$CSimpleStringT@D$00@1@@Z
  004a9	6a 09		 push	 9
  004ab	8d 8d dc fe ff
	ff		 lea	 ecx, DWORD PTR _strData$[ebp]
  004b1	ff 15 00 00 00
	00		 call	 DWORD PTR __imp_??Y?$CStringT@DV?$StrTraitMFC_DLL@DV?$ChTraitsCRT@D@ATL@@@@@ATL@@QAEAAV01@D@Z

; 321  : 		
; 322  : 		//////////////////////////////////////////////////////////////////////////
; 323  : 		//	OutBound Data
; 324  : 		strData += "21301";

  004b7	68 00 00 00 00	 push	 OFFSET ??_C@_05JLGGNMKB@21301@
  004bc	8d 8d dc fe ff
	ff		 lea	 ecx, DWORD PTR _strData$[ebp]
  004c2	ff 15 00 00 00
	00		 call	 DWORD PTR __imp_??Y?$CStringT@DV?$StrTraitMFC_DLL@DV?$ChTraitsCRT@D@ATL@@@@@ATL@@QAEAAV01@PBD@Z

; 325  : 		strData += sCELL;//KHD sFS;

  004c8	6a 09		 push	 9
  004ca	8d 8d dc fe ff
	ff		 lea	 ecx, DWORD PTR _strData$[ebp]
  004d0	ff 15 00 00 00
	00		 call	 DWORD PTR __imp_??Y?$CStringT@DV?$StrTraitMFC_DLL@DV?$ChTraitsCRT@D@ATL@@@@@ATL@@QAEAAV01@D@Z

; 326  : 		
; 327  : 		strData += stNextKey;

  004d6	8d 85 cc fe ff
	ff		 lea	 eax, DWORD PTR _stNextKey$[ebp]
  004dc	50		 push	 eax
  004dd	8d 8d dc fe ff
	ff		 lea	 ecx, DWORD PTR _strData$[ebp]
  004e3	ff 15 00 00 00
	00		 call	 DWORD PTR __imp_??Y?$CStringT@DV?$StrTraitMFC_DLL@DV?$ChTraitsCRT@D@ATL@@@@@ATL@@QAEAAV01@ABV?$CSimpleStringT@D$00@1@@Z

; 328  : 		strData += sCELL;

  004e9	6a 09		 push	 9
  004eb	8d 8d dc fe ff
	ff		 lea	 ecx, DWORD PTR _strData$[ebp]
  004f1	ff 15 00 00 00
	00		 call	 DWORD PTR __imp_??Y?$CStringT@DV?$StrTraitMFC_DLL@DV?$ChTraitsCRT@D@ATL@@@@@ATL@@QAEAAV01@D@Z

; 329  : 		
; 330  : 		// Row Data 
; 331  : 		strData += stRowData;

  004f7	8d 85 d0 fe ff
	ff		 lea	 eax, DWORD PTR _stRowData$4[ebp]
  004fd	50		 push	 eax
  004fe	8d 8d dc fe ff
	ff		 lea	 ecx, DWORD PTR _strData$[ebp]
  00504	ff 15 00 00 00
	00		 call	 DWORD PTR __imp_??Y?$CStringT@DV?$StrTraitMFC_DLL@DV?$ChTraitsCRT@D@ATL@@@@@ATL@@QAEAAV01@ABV?$CSimpleStringT@D$00@1@@Z

; 332  : 		strData += sDS;

  0050a	6a 7f		 push	 127			; 0000007fH
  0050c	8d 8d dc fe ff
	ff		 lea	 ecx, DWORD PTR _strData$[ebp]
  00512	ff 15 00 00 00
	00		 call	 DWORD PTR __imp_??Y?$CStringT@DV?$StrTraitMFC_DLL@DV?$ChTraitsCRT@D@ATL@@@@@ATL@@QAEAAV01@D@Z

; 333  : 		
; 334  : 		CString temp;

  00518	8d 8d d8 fe ff
	ff		 lea	 ecx, DWORD PTR _temp$6[ebp]
  0051e	ff 15 00 00 00
	00		 call	 DWORD PTR __imp_??0?$CStringT@DV?$StrTraitMFC_DLL@DV?$ChTraitsCRT@D@ATL@@@@@ATL@@QAE@XZ
  00524	c6 45 fc 13	 mov	 BYTE PTR __$EHRec$[ebp+8], 19 ; 00000013H
$LN127@fnStructTy:

; 335  : 		//  
; 336  : 		int GrpHLen = 0;
; 337  : 		temp.Format("%06d", nCount);
; 338  : 		CopyMemory(Datah.count, temp, temp.GetLength());
; 339  : 		Datah.dkey = 0 + 0x30;
; 340  : 		
; 341  : 		CopyMemory(Datah.pday, strDate, strDate.GetLength());
; 342  : 		
; 343  : 		temp.Format("%0*d", sizeof(Datah.lgap), nUnit);// N 
; 344  : 		CopyMemory(Datah.lgap, temp, temp.GetLength() );
; 345  : 		
; 346  : 		char szData_i[sz_DATAH];
; 347  : 		memset(szData_i, 0x20, sz_DATAH);//sizeof(Datah));
; 348  : 		CopyMemory(szData_i, (char*)&Datah, sz_DATAH);//sizeof(Datah));
; 349  : 		szData_i[sz_DATAH-1] = 0x00; // KHD :  0x00  .
; 350  : 		strData += szData_i;
; 351  : 	}
; 352  : 
; 353  : 	switch (nType1)

  00528	ff b5 c8 fe ff
	ff		 push	 DWORD PTR _nCount$1$[ebp]
  0052e	8d 85 d8 fe ff
	ff		 lea	 eax, DWORD PTR _temp$6[ebp]
  00534	68 00 00 00 00	 push	 OFFSET ??_C@_04OBKAGHLG@?$CF06d@
  00539	50		 push	 eax
  0053a	ff d6		 call	 esi
  0053c	8b 85 d8 fe ff
	ff		 mov	 eax, DWORD PTR _temp$6[ebp]
  00542	ff 70 f4	 push	 DWORD PTR [eax-12]
  00545	50		 push	 eax
  00546	8d 85 e0 fe ff
	ff		 lea	 eax, DWORD PTR _Datah$8[ebp]
  0054c	50		 push	 eax
  0054d	e8 00 00 00 00	 call	 _memcpy
  00552	8b 85 c4 fe ff
	ff		 mov	 eax, DWORD PTR _strDate$[ebp]
  00558	c6 85 ed fe ff
	ff 30		 mov	 BYTE PTR _Datah$8[ebp+13], 48 ; 00000030H
  0055f	ff 70 f4	 push	 DWORD PTR [eax-12]
  00562	50		 push	 eax
  00563	8d 85 ee fe ff
	ff		 lea	 eax, DWORD PTR _Datah$8[ebp+14]
  00569	50		 push	 eax
  0056a	e8 00 00 00 00	 call	 _memcpy
  0056f	6a 01		 push	 1
  00571	6a 04		 push	 4
  00573	8d 85 d8 fe ff
	ff		 lea	 eax, DWORD PTR _temp$6[ebp]
  00579	68 00 00 00 00	 push	 OFFSET ??_C@_04PEJMDNKC@?$CF0?$CKd@
  0057e	50		 push	 eax
  0057f	ff d6		 call	 esi
  00581	8b 85 d8 fe ff
	ff		 mov	 eax, DWORD PTR _temp$6[ebp]
  00587	ff 70 f4	 push	 DWORD PTR [eax-12]
  0058a	50		 push	 eax
  0058b	8d 85 f8 fe ff
	ff		 lea	 eax, DWORD PTR _Datah$8[ebp+24]
  00591	50		 push	 eax
  00592	e8 00 00 00 00	 call	 _memcpy
  00597	8d bd 68 ff ff
	ff		 lea	 edi, DWORD PTR _szData_i$10[ebp]
  0059d	83 c4 40	 add	 esp, 64			; 00000040H
  005a0	8b c7		 mov	 eax, edi
  005a2	8d b5 e0 fe ff
	ff		 lea	 esi, DWORD PTR _Datah$8[ebp]
  005a8	b9 22 00 00 00	 mov	 ecx, 34			; 00000022H
  005ad	f3 a5		 rep movsd
  005af	50		 push	 eax
  005b0	8d 8d dc fe ff
	ff		 lea	 ecx, DWORD PTR _strData$[ebp]
  005b6	c6 45 ef 00	 mov	 BYTE PTR _szData_i$10[ebp+135], 0
  005ba	ff 15 00 00 00
	00		 call	 DWORD PTR __imp_??Y?$CStringT@DV?$StrTraitMFC_DLL@DV?$ChTraitsCRT@D@ATL@@@@@ATL@@QAEAAV01@PBD@Z
  005c0	8d 8d d8 fe ff
	ff		 lea	 ecx, DWORD PTR _temp$6[ebp]
  005c6	ff 15 00 00 00
	00		 call	 DWORD PTR __imp_??1?$CStringT@DV?$StrTraitMFC_DLL@DV?$ChTraitsCRT@D@ATL@@@@@ATL@@QAE@XZ
  005cc	8d 8d d0 fe ff
	ff		 lea	 ecx, DWORD PTR _stRowData$4[ebp]
  005d2	c6 45 fc 0d	 mov	 BYTE PTR __$EHRec$[ebp+8], 13 ; 0000000dH
  005d6	ff 15 00 00 00
	00		 call	 DWORD PTR __imp_??1?$CStringT@DV?$StrTraitMFC_DLL@DV?$ChTraitsCRT@D@ATL@@@@@ATL@@QAE@XZ
$LN8@fnStructTy:
  005dc	8b 45 10	 mov	 eax, DWORD PTR _nType1$[ebp]
  005df	05 6a ff ff ff	 add	 eax, -150		; ffffff6aH
  005e4	83 f8 29	 cmp	 eax, 41			; 00000029H
  005e7	0f 87 ae 05 00
	00		 ja	 $LN2@fnStructTy
