; Listing generated by Microsoft (R) Optimizing Compiler Version 19.29.30145.0 

	TITLE	D:\git\src\IBK\IBK_DRFN\#DRfn-CS\_Obj\PartnerMng\ChartItemSHoga.obj
	.686P
	.XMM
	include listing.inc
	.model	flat

INCLUDELIB MSVCRT
INCLUDELIB OLDNAMES

PUBLIC	??_C@_00CNPNBAHC@@				; `string'
PUBLIC	?szHogaField@@3PAPADA				; szHogaField
PUBLIC	??_C@_04OIDDAECH@1336@				; `string'
PUBLIC	??_C@_04HEDPNNGF@3111@				; `string'
PUBLIC	??_C@_04FPBCIOKG@3112@				; `string'
PUBLIC	??_C@_04JPCIAEPK@1022@				; `string'
PUBLIC	??_C@_04MBJDEPGL@2023@				; `string'
PUBLIC	??_C@_04IONCNJKM@2024@				; `string'
PUBLIC	??_C@_04MAFBCFFM@2033@				; `string'
PUBLIC	??_C@_04KFPPIKGP@2027@				; `string'
PUBLIC	??_C@_04CCGHJGKA@2028@				; `string'
PUBLIC	??_C@_04MLIKBCNM@3051@				; `string'
PUBLIC	??_C@_04MKEIHIOL@3041@				; `string'
PUBLIC	??_C@_04OAKHEBBP@3052@				; `string'
PUBLIC	??_C@_04OBGFCLCI@3042@				; `string'
PUBLIC	??_C@_04PJLMHAFO@3053@				; `string'
PUBLIC	??_C@_04PIHOBKGJ@3043@				; `string'
PUBLIC	??_C@_04LGPNOGJJ@3054@				; `string'
PUBLIC	??_C@_04LHDPIMKO@3044@				; `string'
PUBLIC	??_C@_04KPOGNHNI@3055@				; `string'
PUBLIC	??_C@_04KOCELNOP@3045@				; `string'
PUBLIC	??_C@_04MIAOMGLC@3071@				; `string'
PUBLIC	??_C@_04MJMMKMIF@3061@				; `string'
PUBLIC	??_C@_04ODCDJFHB@3072@				; `string'
PUBLIC	??_C@_04OCOBPPEG@3062@				; `string'
PUBLIC	??_C@_04PKDIKEDA@3073@				; `string'
PUBLIC	??_C@_04PLPKMOAH@3063@				; `string'
PUBLIC	??_C@_04LFHJDCPH@3074@				; `string'
PUBLIC	??_C@_04LELLFIMA@3064@				; `string'
PUBLIC	??_C@_04KMGCADLG@3075@				; `string'
PUBLIC	??_C@_04KNKAGJIB@3065@				; `string'
PUBLIC	??_C@_04HFPNLHFC@3101@				; `string'
PUBLIC	??_C@_04DKLMCBJF@3106@				; `string'
PUBLIC	??_C@_04FONAOEJB@3102@				; `string'
PUBLIC	??_C@_04CDKHBANE@3107@				; `string'
PUBLIC	??_C@_04MJLJAFKK@2302@				; `string'
PUBLIC	??_C@_04NAKCDEOL@2303@				; `string'
PUBLIC	??_C@_04DLHOELKC@3116@				; `string'
PUBLIC	??_C@_04OLHMHGJP@2030@				; `string'
PUBLIC	??_C@_04PCGHEHNO@2031@				; `string'
PUBLIC	??_C@_04OBBAICAH@2321@				; `string'
PUBLIC	??_C@_0P@BKKCOCLK@RMSG_INTERFACE@		; `string'
PUBLIC	??_C@_0BB@GOOPDKI@RMSG_GETPCTRDATA@		; `string'
PUBLIC	??_C@_0BB@JPACFCL@RMSG_SETPCTRDATA@		; `string'
PUBLIC	??_C@_0BE@FJPKENOB@RMSG_GETSIGNAL_REAL@		; `string'
;	COMDAT ??_C@_0BE@FJPKENOB@RMSG_GETSIGNAL_REAL@
CONST	SEGMENT
??_C@_0BE@FJPKENOB@RMSG_GETSIGNAL_REAL@ DB 'RMSG_GETSIGNAL_REAL', 00H ; `string'
CONST	ENDS
;	COMDAT ??_C@_0BB@JPACFCL@RMSG_SETPCTRDATA@
CONST	SEGMENT
??_C@_0BB@JPACFCL@RMSG_SETPCTRDATA@ DB 'RMSG_SETPCTRDATA', 00H ; `string'
CONST	ENDS
;	COMDAT ??_C@_0BB@GOOPDKI@RMSG_GETPCTRDATA@
CONST	SEGMENT
??_C@_0BB@GOOPDKI@RMSG_GETPCTRDATA@ DB 'RMSG_GETPCTRDATA', 00H ; `string'
CONST	ENDS
;	COMDAT ??_C@_0P@BKKCOCLK@RMSG_INTERFACE@
CONST	SEGMENT
??_C@_0P@BKKCOCLK@RMSG_INTERFACE@ DB 'RMSG_INTERFACE', 00H ; `string'
CONST	ENDS
;	COMDAT ??_C@_04OBBAICAH@2321@
CONST	SEGMENT
??_C@_04OBBAICAH@2321@ DB '2321', 00H			; `string'
CONST	ENDS
;	COMDAT ??_C@_04PCGHEHNO@2031@
CONST	SEGMENT
??_C@_04PCGHEHNO@2031@ DB '2031', 00H			; `string'
CONST	ENDS
;	COMDAT ??_C@_04OLHMHGJP@2030@
CONST	SEGMENT
??_C@_04OLHMHGJP@2030@ DB '2030', 00H			; `string'
CONST	ENDS
;	COMDAT ??_C@_04DLHOELKC@3116@
CONST	SEGMENT
??_C@_04DLHOELKC@3116@ DB '3116', 00H			; `string'
CONST	ENDS
;	COMDAT ??_C@_04NAKCDEOL@2303@
CONST	SEGMENT
??_C@_04NAKCDEOL@2303@ DB '2303', 00H			; `string'
CONST	ENDS
;	COMDAT ??_C@_04MJLJAFKK@2302@
CONST	SEGMENT
??_C@_04MJLJAFKK@2302@ DB '2302', 00H			; `string'
CONST	ENDS
;	COMDAT ??_C@_04CDKHBANE@3107@
CONST	SEGMENT
??_C@_04CDKHBANE@3107@ DB '3107', 00H			; `string'
CONST	ENDS
;	COMDAT ??_C@_04FONAOEJB@3102@
CONST	SEGMENT
??_C@_04FONAOEJB@3102@ DB '3102', 00H			; `string'
CONST	ENDS
;	COMDAT ??_C@_04DKLMCBJF@3106@
CONST	SEGMENT
??_C@_04DKLMCBJF@3106@ DB '3106', 00H			; `string'
CONST	ENDS
;	COMDAT ??_C@_04HFPNLHFC@3101@
CONST	SEGMENT
??_C@_04HFPNLHFC@3101@ DB '3101', 00H			; `string'
CONST	ENDS
;	COMDAT ??_C@_04KNKAGJIB@3065@
CONST	SEGMENT
??_C@_04KNKAGJIB@3065@ DB '3065', 00H			; `string'
CONST	ENDS
;	COMDAT ??_C@_04KMGCADLG@3075@
CONST	SEGMENT
??_C@_04KMGCADLG@3075@ DB '3075', 00H			; `string'
CONST	ENDS
;	COMDAT ??_C@_04LELLFIMA@3064@
CONST	SEGMENT
??_C@_04LELLFIMA@3064@ DB '3064', 00H			; `string'
CONST	ENDS
;	COMDAT ??_C@_04LFHJDCPH@3074@
CONST	SEGMENT
??_C@_04LFHJDCPH@3074@ DB '3074', 00H			; `string'
CONST	ENDS
;	COMDAT ??_C@_04PLPKMOAH@3063@
CONST	SEGMENT
??_C@_04PLPKMOAH@3063@ DB '3063', 00H			; `string'
CONST	ENDS
;	COMDAT ??_C@_04PKDIKEDA@3073@
CONST	SEGMENT
??_C@_04PKDIKEDA@3073@ DB '3073', 00H			; `string'
CONST	ENDS
;	COMDAT ??_C@_04OCOBPPEG@3062@
CONST	SEGMENT
??_C@_04OCOBPPEG@3062@ DB '3062', 00H			; `string'
CONST	ENDS
;	COMDAT ??_C@_04ODCDJFHB@3072@
CONST	SEGMENT
??_C@_04ODCDJFHB@3072@ DB '3072', 00H			; `string'
CONST	ENDS
;	COMDAT ??_C@_04MJMMKMIF@3061@
CONST	SEGMENT
??_C@_04MJMMKMIF@3061@ DB '3061', 00H			; `string'
CONST	ENDS
;	COMDAT ??_C@_04MIAOMGLC@3071@
CONST	SEGMENT
??_C@_04MIAOMGLC@3071@ DB '3071', 00H			; `string'
CONST	ENDS
;	COMDAT ??_C@_04KOCELNOP@3045@
CONST	SEGMENT
??_C@_04KOCELNOP@3045@ DB '3045', 00H			; `string'
CONST	ENDS
;	COMDAT ??_C@_04KPOGNHNI@3055@
CONST	SEGMENT
??_C@_04KPOGNHNI@3055@ DB '3055', 00H			; `string'
CONST	ENDS
;	COMDAT ??_C@_04LHDPIMKO@3044@
CONST	SEGMENT
??_C@_04LHDPIMKO@3044@ DB '3044', 00H			; `string'
CONST	ENDS
;	COMDAT ??_C@_04LGPNOGJJ@3054@
CONST	SEGMENT
??_C@_04LGPNOGJJ@3054@ DB '3054', 00H			; `string'
CONST	ENDS
;	COMDAT ??_C@_04PIHOBKGJ@3043@
CONST	SEGMENT
??_C@_04PIHOBKGJ@3043@ DB '3043', 00H			; `string'
CONST	ENDS
;	COMDAT ??_C@_04PJLMHAFO@3053@
CONST	SEGMENT
??_C@_04PJLMHAFO@3053@ DB '3053', 00H			; `string'
CONST	ENDS
;	COMDAT ??_C@_04OBGFCLCI@3042@
CONST	SEGMENT
??_C@_04OBGFCLCI@3042@ DB '3042', 00H			; `string'
CONST	ENDS
;	COMDAT ??_C@_04OAKHEBBP@3052@
CONST	SEGMENT
??_C@_04OAKHEBBP@3052@ DB '3052', 00H			; `string'
CONST	ENDS
;	COMDAT ??_C@_04MKEIHIOL@3041@
CONST	SEGMENT
??_C@_04MKEIHIOL@3041@ DB '3041', 00H			; `string'
CONST	ENDS
;	COMDAT ??_C@_04MLIKBCNM@3051@
CONST	SEGMENT
??_C@_04MLIKBCNM@3051@ DB '3051', 00H			; `string'
CONST	ENDS
;	COMDAT ??_C@_04CCGHJGKA@2028@
CONST	SEGMENT
??_C@_04CCGHJGKA@2028@ DB '2028', 00H			; `string'
CONST	ENDS
;	COMDAT ??_C@_04KFPPIKGP@2027@
CONST	SEGMENT
??_C@_04KFPPIKGP@2027@ DB '2027', 00H			; `string'
CONST	ENDS
;	COMDAT ??_C@_04MAFBCFFM@2033@
CONST	SEGMENT
??_C@_04MAFBCFFM@2033@ DB '2033', 00H			; `string'
CONST	ENDS
;	COMDAT ??_C@_04IONCNJKM@2024@
CONST	SEGMENT
??_C@_04IONCNJKM@2024@ DB '2024', 00H			; `string'
CONST	ENDS
;	COMDAT ??_C@_04MBJDEPGL@2023@
CONST	SEGMENT
??_C@_04MBJDEPGL@2023@ DB '2023', 00H			; `string'
CONST	ENDS
;	COMDAT ??_C@_04JPCIAEPK@1022@
CONST	SEGMENT
??_C@_04JPCIAEPK@1022@ DB '1022', 00H			; `string'
CONST	ENDS
;	COMDAT ??_C@_04FPBCIOKG@3112@
CONST	SEGMENT
??_C@_04FPBCIOKG@3112@ DB '3112', 00H			; `string'
CONST	ENDS
;	COMDAT ??_C@_04HEDPNNGF@3111@
CONST	SEGMENT
??_C@_04HEDPNNGF@3111@ DB '3111', 00H			; `string'
CONST	ENDS
;	COMDAT ??_C@_04OIDDAECH@1336@
CONST	SEGMENT
??_C@_04OIDDAECH@1336@ DB '1336', 00H			; `string'
CONST	ENDS
_DATA	SEGMENT
?szHogaField@@3PAPADA DD FLAT:??_C@_04OIDDAECH@1336@	; szHogaField
	DD	FLAT:??_C@_04HEDPNNGF@3111@
	DD	FLAT:??_C@_04FPBCIOKG@3112@
	DD	FLAT:??_C@_04JPCIAEPK@1022@
	DD	FLAT:??_C@_04MBJDEPGL@2023@
	DD	FLAT:??_C@_00CNPNBAHC@@
	DD	FLAT:??_C@_04IONCNJKM@2024@
	DD	FLAT:??_C@_04MAFBCFFM@2033@
	DD	FLAT:??_C@_04KFPPIKGP@2027@
	DD	FLAT:??_C@_04CCGHJGKA@2028@
	DD	FLAT:??_C@_04MLIKBCNM@3051@
	DD	FLAT:??_C@_04MKEIHIOL@3041@
	DD	FLAT:??_C@_04OAKHEBBP@3052@
	DD	FLAT:??_C@_04OBGFCLCI@3042@
	DD	FLAT:??_C@_04PJLMHAFO@3053@
	DD	FLAT:??_C@_04PIHOBKGJ@3043@
	DD	FLAT:??_C@_04LGPNOGJJ@3054@
	DD	FLAT:??_C@_04LHDPIMKO@3044@
	DD	FLAT:??_C@_04KPOGNHNI@3055@
	DD	FLAT:??_C@_04KOCELNOP@3045@
	DD	FLAT:??_C@_04MIAOMGLC@3071@
	DD	FLAT:??_C@_04MJMMKMIF@3061@
	DD	FLAT:??_C@_04ODCDJFHB@3072@
	DD	FLAT:??_C@_04OCOBPPEG@3062@
	DD	FLAT:??_C@_04PKDIKEDA@3073@
	DD	FLAT:??_C@_04PLPKMOAH@3063@
	DD	FLAT:??_C@_04LFHJDCPH@3074@
	DD	FLAT:??_C@_04LELLFIMA@3064@
	DD	FLAT:??_C@_04KMGCADLG@3075@
	DD	FLAT:??_C@_04KNKAGJIB@3065@
	DD	FLAT:??_C@_04HFPNLHFC@3101@
	DD	FLAT:??_C@_04DKLMCBJF@3106@
	DD	FLAT:??_C@_04FONAOEJB@3102@
	DD	FLAT:??_C@_04CDKHBANE@3107@
	DD	FLAT:??_C@_04MJLJAFKK@2302@
	DD	FLAT:??_C@_04NAKCDEOL@2303@
	DD	FLAT:??_C@_04DLHOELKC@3116@
	DD	FLAT:??_C@_04OLHMHGJP@2030@
	DD	FLAT:??_C@_04PCGHEHNO@2031@
	DD	FLAT:??_C@_04OBBAICAH@2321@
	DD	FLAT:??_C@_00CNPNBAHC@@
	DD	00H
_DATA	ENDS
;	COMDAT ??_C@_00CNPNBAHC@@
CONST	SEGMENT
??_C@_00CNPNBAHC@@ DB 00H				; `string'
CONST	ENDS
PUBLIC	?__empty_global_delete@@YAXPAX@Z		; __empty_global_delete
PUBLIC	?__empty_global_delete@@YAXPAXI@Z		; __empty_global_delete
PUBLIC	??0CChartItemSHoga@@QAE@XZ			; CChartItemSHoga::CChartItemSHoga
PUBLIC	??1CChartItemSHoga@@UAE@XZ			; CChartItemSHoga::~CChartItemSHoga
PUBLIC	?SetInData@CChartItemSHoga@@QAEXPAU_k01230In1@@@Z ; CChartItemSHoga::SetInData
PUBLIC	?Convert@CChartItemSHoga@@QAE?AV?$CStringT@DV?$StrTraitMFC_DLL@DV?$ChTraitsCRT@D@ATL@@@@@ATL@@XZ ; CChartItemSHoga::Convert
PUBLIC	?Convert2Struct@CChartItemSHoga@@QAEPADPAEHHAAH@Z ; CChartItemSHoga::Convert2Struct
PUBLIC	??_GCChartItemSHoga@@UAEPAXI@Z			; CChartItemSHoga::`scalar deleting destructor'
PUBLIC	??_7CChartItemSHoga@@6B@			; CChartItemSHoga::`vftable'
PUBLIC	??_C@_04KFDECMLJ@1301@				; `string'
PUBLIC	??_C@_04EBNJJJJI@?$CF?4?$CKs@			; `string'
PUBLIC	??_R4CChartItemSHoga@@6B@			; CChartItemSHoga::`RTTI Complete Object Locator'
PUBLIC	??_R0?AVCChartItemSHoga@@@8			; CChartItemSHoga `RTTI Type Descriptor'
PUBLIC	??_R3CChartItemSHoga@@8				; CChartItemSHoga::`RTTI Class Hierarchy Descriptor'
PUBLIC	??_R2CChartItemSHoga@@8				; CChartItemSHoga::`RTTI Base Class Array'
PUBLIC	??_R1A@?0A@EA@CChartItemSHoga@@8		; CChartItemSHoga::`RTTI Base Class Descriptor at (0,-1,0,64)'
EXTRN	??3@YAXPAXI@Z:PROC				; operator delete
EXTRN	??_U@YAPAXI@Z:PROC				; operator new[]
EXTRN	__imp__RegisterWindowMessageA@4:PROC
EXTRN	__imp_??0?$CStringT@DV?$StrTraitMFC_DLL@DV?$ChTraitsCRT@D@ATL@@@@@ATL@@QAE@XZ:PROC
EXTRN	__imp_??0?$CStringT@DV?$StrTraitMFC_DLL@DV?$ChTraitsCRT@D@ATL@@@@@ATL@@QAE@ABV01@@Z:PROC
EXTRN	__imp_??0?$CStringT@DV?$StrTraitMFC_DLL@DV?$ChTraitsCRT@D@ATL@@@@@ATL@@QAE@PBD@Z:PROC
EXTRN	__imp_??0?$CStringT@DV?$StrTraitMFC_DLL@DV?$ChTraitsCRT@D@ATL@@@@@ATL@@QAE@DH@Z:PROC
EXTRN	__imp_??0?$CStringT@DV?$StrTraitMFC_DLL@DV?$ChTraitsCRT@D@ATL@@@@@ATL@@QAE@PBDH@Z:PROC
EXTRN	__imp_??1?$CStringT@DV?$StrTraitMFC_DLL@DV?$ChTraitsCRT@D@ATL@@@@@ATL@@QAE@XZ:PROC
EXTRN	__imp_??4?$CStringT@DV?$StrTraitMFC_DLL@DV?$ChTraitsCRT@D@ATL@@@@@ATL@@QAEAAV01@ABV01@@Z:PROC
EXTRN	__imp_??Y?$CStringT@DV?$StrTraitMFC_DLL@DV?$ChTraitsCRT@D@ATL@@@@@ATL@@QAEAAV01@ABV?$CSimpleStringT@D$00@1@@Z:PROC
EXTRN	__imp_??Y?$CStringT@DV?$StrTraitMFC_DLL@DV?$ChTraitsCRT@D@ATL@@@@@ATL@@QAEAAV01@PBD@Z:PROC
EXTRN	__imp_??Y?$CStringT@DV?$StrTraitMFC_DLL@DV?$ChTraitsCRT@D@ATL@@@@@ATL@@QAEAAV01@D@Z:PROC
EXTRN	__imp_?Remove@?$CStringT@DV?$StrTraitMFC_DLL@DV?$ChTraitsCRT@D@ATL@@@@@ATL@@QAEHD@Z:PROC
EXTRN	__imp_?Format@?$CStringT@DV?$StrTraitMFC_DLL@DV?$ChTraitsCRT@D@ATL@@@@@ATL@@QAAXPBDZZ:PROC
EXTRN	??_ECChartItemSHoga@@UAEPAXI@Z:PROC		; CChartItemSHoga::`vector deleting destructor'
EXTRN	?Parser@CDataConverter@@SA?AV?$CStringT@DV?$StrTraitMFC_DLL@DV?$ChTraitsCRT@D@ATL@@@@@ATL@@AAV23@V23@@Z:PROC ; CDataConverter::Parser
EXTRN	@__security_check_cookie@4:PROC
EXTRN	___CxxFrameHandler3:PROC
EXTRN	_memcpy:PROC
EXTRN	_memset:PROC
EXTRN	??_7type_info@@6B@:QWORD			; type_info::`vftable'
EXTRN	___security_cookie:DWORD
_BSS	SEGMENT
?RMSG_INTERFACE@@3IB DD 01H DUP (?)			; RMSG_INTERFACE
?RMSG_GETPCTRDATA@@3IB DD 01H DUP (?)			; RMSG_GETPCTRDATA
?RMSG_SETPCTRDATA@@3IB DD 01H DUP (?)			; RMSG_SETPCTRDATA
?RMSG_GETSIGNAL_REAL@@3IB DD 01H DUP (?)		; RMSG_GETSIGNAL_REAL
_BSS	ENDS
CRT$XCU	SEGMENT
?RMSG_INTERFACE$initializer$@@3P6AXXZA DD FLAT:??__ERMSG_INTERFACE@@YAXXZ ; RMSG_INTERFACE$initializer$
CRT$XCU	ENDS
;	COMDAT ??_R1A@?0A@EA@CChartItemSHoga@@8
rdata$r	SEGMENT
??_R1A@?0A@EA@CChartItemSHoga@@8 DD FLAT:??_R0?AVCChartItemSHoga@@@8 ; CChartItemSHoga::`RTTI Base Class Descriptor at (0,-1,0,64)'
	DD	00H
	DD	00H
	DD	0ffffffffH
	DD	00H
	DD	040H
	DD	FLAT:??_R3CChartItemSHoga@@8
rdata$r	ENDS
;	COMDAT ??_R2CChartItemSHoga@@8
rdata$r	SEGMENT
??_R2CChartItemSHoga@@8 DD FLAT:??_R1A@?0A@EA@CChartItemSHoga@@8 ; CChartItemSHoga::`RTTI Base Class Array'
rdata$r	ENDS
;	COMDAT ??_R3CChartItemSHoga@@8
rdata$r	SEGMENT
??_R3CChartItemSHoga@@8 DD 00H				; CChartItemSHoga::`RTTI Class Hierarchy Descriptor'
	DD	00H
	DD	01H
	DD	FLAT:??_R2CChartItemSHoga@@8
rdata$r	ENDS
;	COMDAT ??_R0?AVCChartItemSHoga@@@8
data$rs	SEGMENT
??_R0?AVCChartItemSHoga@@@8 DD FLAT:??_7type_info@@6B@	; CChartItemSHoga `RTTI Type Descriptor'
	DD	00H
	DB	'.?AVCChartItemSHoga@@', 00H
data$rs	ENDS
;	COMDAT ??_R4CChartItemSHoga@@6B@
rdata$r	SEGMENT
??_R4CChartItemSHoga@@6B@ DD 00H			; CChartItemSHoga::`RTTI Complete Object Locator'
	DD	00H
	DD	00H
	DD	FLAT:??_R0?AVCChartItemSHoga@@@8
	DD	FLAT:??_R3CChartItemSHoga@@8
rdata$r	ENDS
;	COMDAT ??_C@_04EBNJJJJI@?$CF?4?$CKs@
CONST	SEGMENT
??_C@_04EBNJJJJI@?$CF?4?$CKs@ DB '%.*s', 00H		; `string'
CONST	ENDS
;	COMDAT ??_C@_04KFDECMLJ@1301@
CONST	SEGMENT
??_C@_04KFDECMLJ@1301@ DB '1301', 00H			; `string'
CONST	ENDS
;	COMDAT ??_7CChartItemSHoga@@6B@
CONST	SEGMENT
??_7CChartItemSHoga@@6B@ DD FLAT:??_R4CChartItemSHoga@@6B@ ; CChartItemSHoga::`vftable'
	DD	FLAT:??_ECChartItemSHoga@@UAEPAXI@Z
CONST	ENDS
;	COMDAT xdata$x
xdata$x	SEGMENT
__ehfuncinfo$?Convert2Struct@CChartItemSHoga@@QAEPADPAEHHAAH@Z DD 019930522H
	DD	02bH
	DD	FLAT:__unwindtable$?Convert2Struct@CChartItemSHoga@@QAEPADPAEHHAAH@Z
	DD	2 DUP(00H)
	DD	2 DUP(00H)
	DD	00H
	DD	01H
__unwindtable$?Convert2Struct@CChartItemSHoga@@QAEPADPAEHHAAH@Z DD 0ffffffffH
	DD	FLAT:__unwindfunclet$?Convert2Struct@CChartItemSHoga@@QAEPADPAEHHAAH@Z$0
	DD	00H
	DD	FLAT:__unwindfunclet$?Convert2Struct@CChartItemSHoga@@QAEPADPAEHHAAH@Z$1
	DD	01H
	DD	FLAT:__unwindfunclet$?Convert2Struct@CChartItemSHoga@@QAEPADPAEHHAAH@Z$3
	DD	01H
	DD	FLAT:__unwindfunclet$?Convert2Struct@CChartItemSHoga@@QAEPADPAEHHAAH@Z$5
	DD	01H
	DD	FLAT:__unwindfunclet$?Convert2Struct@CChartItemSHoga@@QAEPADPAEHHAAH@Z$7
	DD	01H
	DD	FLAT:__unwindfunclet$?Convert2Struct@CChartItemSHoga@@QAEPADPAEHHAAH@Z$9
	DD	01H
	DD	FLAT:__unwindfunclet$?Convert2Struct@CChartItemSHoga@@QAEPADPAEHHAAH@Z$11
	DD	01H
	DD	FLAT:__unwindfunclet$?Convert2Struct@CChartItemSHoga@@QAEPADPAEHHAAH@Z$13
	DD	01H
	DD	FLAT:__unwindfunclet$?Convert2Struct@CChartItemSHoga@@QAEPADPAEHHAAH@Z$15
	DD	01H
	DD	FLAT:__unwindfunclet$?Convert2Struct@CChartItemSHoga@@QAEPADPAEHHAAH@Z$17
	DD	01H
	DD	FLAT:__unwindfunclet$?Convert2Struct@CChartItemSHoga@@QAEPADPAEHHAAH@Z$19
	DD	01H
	DD	FLAT:__unwindfunclet$?Convert2Struct@CChartItemSHoga@@QAEPADPAEHHAAH@Z$21
	DD	01H
	DD	FLAT:__unwindfunclet$?Convert2Struct@CChartItemSHoga@@QAEPADPAEHHAAH@Z$23
	DD	01H
	DD	FLAT:__unwindfunclet$?Convert2Struct@CChartItemSHoga@@QAEPADPAEHHAAH@Z$25
	DD	01H
	DD	FLAT:__unwindfunclet$?Convert2Struct@CChartItemSHoga@@QAEPADPAEHHAAH@Z$27
	DD	01H
	DD	FLAT:__unwindfunclet$?Convert2Struct@CChartItemSHoga@@QAEPADPAEHHAAH@Z$29
	DD	01H
	DD	FLAT:__unwindfunclet$?Convert2Struct@CChartItemSHoga@@QAEPADPAEHHAAH@Z$31
	DD	01H
	DD	FLAT:__unwindfunclet$?Convert2Struct@CChartItemSHoga@@QAEPADPAEHHAAH@Z$33
	DD	01H
	DD	FLAT:__unwindfunclet$?Convert2Struct@CChartItemSHoga@@QAEPADPAEHHAAH@Z$35
	DD	01H
	DD	FLAT:__unwindfunclet$?Convert2Struct@CChartItemSHoga@@QAEPADPAEHHAAH@Z$37
	DD	01H
	DD	FLAT:__unwindfunclet$?Convert2Struct@CChartItemSHoga@@QAEPADPAEHHAAH@Z$39
	DD	01H
	DD	FLAT:__unwindfunclet$?Convert2Struct@CChartItemSHoga@@QAEPADPAEHHAAH@Z$41
	DD	01H
	DD	FLAT:__unwindfunclet$?Convert2Struct@CChartItemSHoga@@QAEPADPAEHHAAH@Z$43
	DD	01H
	DD	FLAT:__unwindfunclet$?Convert2Struct@CChartItemSHoga@@QAEPADPAEHHAAH@Z$45
	DD	01H
	DD	FLAT:__unwindfunclet$?Convert2Struct@CChartItemSHoga@@QAEPADPAEHHAAH@Z$47
	DD	01H
	DD	FLAT:__unwindfunclet$?Convert2Struct@CChartItemSHoga@@QAEPADPAEHHAAH@Z$49
	DD	01H
	DD	FLAT:__unwindfunclet$?Convert2Struct@CChartItemSHoga@@QAEPADPAEHHAAH@Z$51
	DD	01H
	DD	FLAT:__unwindfunclet$?Convert2Struct@CChartItemSHoga@@QAEPADPAEHHAAH@Z$53
	DD	01H
	DD	FLAT:__unwindfunclet$?Convert2Struct@CChartItemSHoga@@QAEPADPAEHHAAH@Z$55
	DD	01H
	DD	FLAT:__unwindfunclet$?Convert2Struct@CChartItemSHoga@@QAEPADPAEHHAAH@Z$57
	DD	01H
	DD	FLAT:__unwindfunclet$?Convert2Struct@CChartItemSHoga@@QAEPADPAEHHAAH@Z$59
	DD	01H
	DD	FLAT:__unwindfunclet$?Convert2Struct@CChartItemSHoga@@QAEPADPAEHHAAH@Z$61
	DD	01H
	DD	FLAT:__unwindfunclet$?Convert2Struct@CChartItemSHoga@@QAEPADPAEHHAAH@Z$63
	DD	01H
	DD	FLAT:__unwindfunclet$?Convert2Struct@CChartItemSHoga@@QAEPADPAEHHAAH@Z$65
	DD	01H
	DD	FLAT:__unwindfunclet$?Convert2Struct@CChartItemSHoga@@QAEPADPAEHHAAH@Z$67
	DD	01H
	DD	FLAT:__unwindfunclet$?Convert2Struct@CChartItemSHoga@@QAEPADPAEHHAAH@Z$69
	DD	01H
	DD	FLAT:__unwindfunclet$?Convert2Struct@CChartItemSHoga@@QAEPADPAEHHAAH@Z$71
	DD	01H
	DD	FLAT:__unwindfunclet$?Convert2Struct@CChartItemSHoga@@QAEPADPAEHHAAH@Z$73
	DD	01H
	DD	FLAT:__unwindfunclet$?Convert2Struct@CChartItemSHoga@@QAEPADPAEHHAAH@Z$75
	DD	01H
	DD	FLAT:__unwindfunclet$?Convert2Struct@CChartItemSHoga@@QAEPADPAEHHAAH@Z$77
	DD	01H
	DD	FLAT:__unwindfunclet$?Convert2Struct@CChartItemSHoga@@QAEPADPAEHHAAH@Z$79
	DD	01H
	DD	FLAT:__unwindfunclet$?Convert2Struct@CChartItemSHoga@@QAEPADPAEHHAAH@Z$81
	DD	01H
	DD	FLAT:__unwindfunclet$?Convert2Struct@CChartItemSHoga@@QAEPADPAEHHAAH@Z$83
xdata$x	ENDS
;	COMDAT xdata$x
xdata$x	SEGMENT
__unwindtable$?Convert@CChartItemSHoga@@QAE?AV?$CStringT@DV?$StrTraitMFC_DLL@DV?$ChTraitsCRT@D@ATL@@@@@ATL@@XZ DD 0ffffffffH
	DD	FLAT:__unwindfunclet$?Convert@CChartItemSHoga@@QAE?AV?$CStringT@DV?$StrTraitMFC_DLL@DV?$ChTraitsCRT@D@ATL@@@@@ATL@@XZ$1
	DD	00H
	DD	FLAT:__unwindfunclet$?Convert@CChartItemSHoga@@QAE?AV?$CStringT@DV?$StrTraitMFC_DLL@DV?$ChTraitsCRT@D@ATL@@@@@ATL@@XZ$2
	DD	01H
	DD	FLAT:__unwindfunclet$?Convert@CChartItemSHoga@@QAE?AV?$CStringT@DV?$StrTraitMFC_DLL@DV?$ChTraitsCRT@D@ATL@@@@@ATL@@XZ$3
__ehfuncinfo$?Convert@CChartItemSHoga@@QAE?AV?$CStringT@DV?$StrTraitMFC_DLL@DV?$ChTraitsCRT@D@ATL@@@@@ATL@@XZ DD 019930522H
	DD	03H
	DD	FLAT:__unwindtable$?Convert@CChartItemSHoga@@QAE?AV?$CStringT@DV?$StrTraitMFC_DLL@DV?$ChTraitsCRT@D@ATL@@@@@ATL@@XZ
	DD	2 DUP(00H)
	DD	2 DUP(00H)
	DD	00H
	DD	01H
xdata$x	ENDS
CRT$XCU	SEGMENT
?RMSG_GETPCTRDATA$initializer$@@3P6AXXZA DD FLAT:??__ERMSG_GETPCTRDATA@@YAXXZ ; RMSG_GETPCTRDATA$initializer$
CRT$XCU	ENDS
CRT$XCU	SEGMENT
?RMSG_SETPCTRDATA$initializer$@@3P6AXXZA DD FLAT:??__ERMSG_SETPCTRDATA@@YAXXZ ; RMSG_SETPCTRDATA$initializer$
CRT$XCU	ENDS
CRT$XCU	SEGMENT
?RMSG_GETSIGNAL_REAL$initializer$@@3P6AXXZA DD FLAT:??__ERMSG_GETSIGNAL_REAL@@YAXXZ ; RMSG_GETSIGNAL_REAL$initializer$
CRT$XCU	ENDS
; Function compile flags: /Ogtp
;	COMDAT ??_GCChartItemSHoga@@UAEPAXI@Z
_TEXT	SEGMENT
___flags$ = 8						; size = 4
??_GCChartItemSHoga@@UAEPAXI@Z PROC			; CChartItemSHoga::`scalar deleting destructor', COMDAT
; _this$ = ecx
  00000	55		 push	 ebp
  00001	8b ec		 mov	 ebp, esp
  00003	f6 45 08 01	 test	 BYTE PTR ___flags$[ebp], 1
  00007	56		 push	 esi
  00008	8b f1		 mov	 esi, ecx
  0000a	c7 06 00 00 00
	00		 mov	 DWORD PTR [esi], OFFSET ??_7CChartItemSHoga@@6B@
  00010	74 0b		 je	 SHORT $LN4@scalar
  00012	6a 10		 push	 16			; 00000010H
  00014	56		 push	 esi
  00015	e8 00 00 00 00	 call	 ??3@YAXPAXI@Z		; operator delete
  0001a	83 c4 08	 add	 esp, 8
$LN4@scalar:
  0001d	8b c6		 mov	 eax, esi
  0001f	5e		 pop	 esi
  00020	5d		 pop	 ebp
  00021	c2 04 00	 ret	 4
??_GCChartItemSHoga@@UAEPAXI@Z ENDP			; CChartItemSHoga::`scalar deleting destructor'
_TEXT	ENDS
; Function compile flags: /Ogtp
; File D:\git\src\IBK\IBK_DRFN\ProjSrc\SrcDrfn\DrCommon\PartnerMng\ChartItemSHoga.cpp
; File C:\Program Files (x86)\Microsoft Visual Studio\2019\Community\VC\Tools\MSVC\14.29.30133\atlmfc\include\atlsimpstr.h
; File D:\git\src\IBK\IBK_DRFN\ProjSrc\SrcDrfn\DrCommon\PartnerMng\ChartItemSHoga.cpp
; File C:\Program Files (x86)\Microsoft Visual Studio\2019\Community\VC\Tools\MSVC\14.29.30133\atlmfc\include\atlsimpstr.h
; File D:\git\src\IBK\IBK_DRFN\ProjSrc\SrcDrfn\DrCommon\PartnerMng\ChartItemSHoga.cpp
; File C:\Program Files (x86)\Microsoft Visual Studio\2019\Community\VC\Tools\MSVC\14.29.30133\atlmfc\include\atlsimpstr.h
; File D:\git\src\IBK\IBK_DRFN\ProjSrc\SrcDrfn\DrCommon\PartnerMng\ChartItemSHoga.cpp
; File C:\Program Files (x86)\Microsoft Visual Studio\2019\Community\VC\Tools\MSVC\14.29.30133\atlmfc\include\atlsimpstr.h
; File D:\git\src\IBK\IBK_DRFN\ProjSrc\SrcDrfn\DrCommon\PartnerMng\ChartItemSHoga.cpp
; File C:\Program Files (x86)\Microsoft Visual Studio\2019\Community\VC\Tools\MSVC\14.29.30133\atlmfc\include\atlsimpstr.h
; File D:\git\src\IBK\IBK_DRFN\ProjSrc\SrcDrfn\DrCommon\PartnerMng\ChartItemSHoga.cpp
; File C:\Program Files (x86)\Microsoft Visual Studio\2019\Community\VC\Tools\MSVC\14.29.30133\atlmfc\include\atlsimpstr.h
; File D:\git\src\IBK\IBK_DRFN\ProjSrc\SrcDrfn\DrCommon\PartnerMng\ChartItemSHoga.cpp
; File C:\Program Files (x86)\Microsoft Visual Studio\2019\Community\VC\Tools\MSVC\14.29.30133\atlmfc\include\atlsimpstr.h
; File D:\git\src\IBK\IBK_DRFN\ProjSrc\SrcDrfn\DrCommon\PartnerMng\ChartItemSHoga.cpp
; File C:\Program Files (x86)\Microsoft Visual Studio\2019\Community\VC\Tools\MSVC\14.29.30133\atlmfc\include\atlsimpstr.h
; File D:\git\src\IBK\IBK_DRFN\ProjSrc\SrcDrfn\DrCommon\PartnerMng\ChartItemSHoga.cpp
; File C:\Program Files (x86)\Microsoft Visual Studio\2019\Community\VC\Tools\MSVC\14.29.30133\atlmfc\include\atlsimpstr.h
; File D:\git\src\IBK\IBK_DRFN\ProjSrc\SrcDrfn\DrCommon\PartnerMng\ChartItemSHoga.cpp
; File C:\Program Files (x86)\Microsoft Visual Studio\2019\Community\VC\Tools\MSVC\14.29.30133\atlmfc\include\atlsimpstr.h
; File D:\git\src\IBK\IBK_DRFN\ProjSrc\SrcDrfn\DrCommon\PartnerMng\ChartItemSHoga.cpp
; File C:\Program Files (x86)\Microsoft Visual Studio\2019\Community\VC\Tools\MSVC\14.29.30133\atlmfc\include\atlsimpstr.h
; File D:\git\src\IBK\IBK_DRFN\ProjSrc\SrcDrfn\DrCommon\PartnerMng\ChartItemSHoga.cpp
; File C:\Program Files (x86)\Microsoft Visual Studio\2019\Community\VC\Tools\MSVC\14.29.30133\atlmfc\include\atlsimpstr.h
; File D:\git\src\IBK\IBK_DRFN\ProjSrc\SrcDrfn\DrCommon\PartnerMng\ChartItemSHoga.cpp
; File C:\Program Files (x86)\Microsoft Visual Studio\2019\Community\VC\Tools\MSVC\14.29.30133\atlmfc\include\atlsimpstr.h
; File D:\git\src\IBK\IBK_DRFN\ProjSrc\SrcDrfn\DrCommon\PartnerMng\ChartItemSHoga.cpp
; File C:\Program Files (x86)\Microsoft Visual Studio\2019\Community\VC\Tools\MSVC\14.29.30133\atlmfc\include\atlsimpstr.h
; File D:\git\src\IBK\IBK_DRFN\ProjSrc\SrcDrfn\DrCommon\PartnerMng\ChartItemSHoga.cpp
; File C:\Program Files (x86)\Microsoft Visual Studio\2019\Community\VC\Tools\MSVC\14.29.30133\atlmfc\include\atlsimpstr.h
; File D:\git\src\IBK\IBK_DRFN\ProjSrc\SrcDrfn\DrCommon\PartnerMng\ChartItemSHoga.cpp
; File C:\Program Files (x86)\Microsoft Visual Studio\2019\Community\VC\Tools\MSVC\14.29.30133\atlmfc\include\atlsimpstr.h
; File D:\git\src\IBK\IBK_DRFN\ProjSrc\SrcDrfn\DrCommon\PartnerMng\ChartItemSHoga.cpp
; File C:\Program Files (x86)\Microsoft Visual Studio\2019\Community\VC\Tools\MSVC\14.29.30133\atlmfc\include\atlsimpstr.h
; File D:\git\src\IBK\IBK_DRFN\ProjSrc\SrcDrfn\DrCommon\PartnerMng\ChartItemSHoga.cpp
; File C:\Program Files (x86)\Microsoft Visual Studio\2019\Community\VC\Tools\MSVC\14.29.30133\atlmfc\include\atlsimpstr.h
; File D:\git\src\IBK\IBK_DRFN\ProjSrc\SrcDrfn\DrCommon\PartnerMng\ChartItemSHoga.cpp
; File C:\Program Files (x86)\Microsoft Visual Studio\2019\Community\VC\Tools\MSVC\14.29.30133\atlmfc\include\atlsimpstr.h
; File D:\git\src\IBK\IBK_DRFN\ProjSrc\SrcDrfn\DrCommon\PartnerMng\ChartItemSHoga.cpp
; File C:\Program Files (x86)\Microsoft Visual Studio\2019\Community\VC\Tools\MSVC\14.29.30133\atlmfc\include\atlsimpstr.h
; File D:\git\src\IBK\IBK_DRFN\ProjSrc\SrcDrfn\DrCommon\PartnerMng\ChartItemSHoga.cpp
; File C:\Program Files (x86)\Microsoft Visual Studio\2019\Community\VC\Tools\MSVC\14.29.30133\atlmfc\include\atlsimpstr.h
; File D:\git\src\IBK\IBK_DRFN\ProjSrc\SrcDrfn\DrCommon\PartnerMng\ChartItemSHoga.cpp
; File C:\Program Files (x86)\Microsoft Visual Studio\2019\Community\VC\Tools\MSVC\14.29.30133\atlmfc\include\atlsimpstr.h
; File D:\git\src\IBK\IBK_DRFN\ProjSrc\SrcDrfn\DrCommon\PartnerMng\ChartItemSHoga.cpp
; File C:\Program Files (x86)\Microsoft Visual Studio\2019\Community\VC\Tools\MSVC\14.29.30133\atlmfc\include\atlsimpstr.h
; File D:\git\src\IBK\IBK_DRFN\ProjSrc\SrcDrfn\DrCommon\PartnerMng\ChartItemSHoga.cpp
; File C:\Program Files (x86)\Microsoft Visual Studio\2019\Community\VC\Tools\MSVC\14.29.30133\atlmfc\include\atlsimpstr.h
; File D:\git\src\IBK\IBK_DRFN\ProjSrc\SrcDrfn\DrCommon\PartnerMng\ChartItemSHoga.cpp
; File C:\Program Files (x86)\Microsoft Visual Studio\2019\Community\VC\Tools\MSVC\14.29.30133\atlmfc\include\atlsimpstr.h
; File D:\git\src\IBK\IBK_DRFN\ProjSrc\SrcDrfn\DrCommon\PartnerMng\ChartItemSHoga.cpp
; File C:\Program Files (x86)\Microsoft Visual Studio\2019\Community\VC\Tools\MSVC\14.29.30133\atlmfc\include\atlsimpstr.h
; File D:\git\src\IBK\IBK_DRFN\ProjSrc\SrcDrfn\DrCommon\PartnerMng\ChartItemSHoga.cpp
; File C:\Program Files (x86)\Microsoft Visual Studio\2019\Community\VC\Tools\MSVC\14.29.30133\atlmfc\include\atlsimpstr.h
; File D:\git\src\IBK\IBK_DRFN\ProjSrc\SrcDrfn\DrCommon\PartnerMng\ChartItemSHoga.cpp
; File C:\Program Files (x86)\Microsoft Visual Studio\2019\Community\VC\Tools\MSVC\14.29.30133\atlmfc\include\atlsimpstr.h
; File D:\git\src\IBK\IBK_DRFN\ProjSrc\SrcDrfn\DrCommon\PartnerMng\ChartItemSHoga.cpp
; File C:\Program Files (x86)\Microsoft Visual Studio\2019\Community\VC\Tools\MSVC\14.29.30133\atlmfc\include\atlsimpstr.h
; File D:\git\src\IBK\IBK_DRFN\ProjSrc\SrcDrfn\DrCommon\PartnerMng\ChartItemSHoga.cpp
; File C:\Program Files (x86)\Microsoft Visual Studio\2019\Community\VC\Tools\MSVC\14.29.30133\atlmfc\include\atlsimpstr.h
; File D:\git\src\IBK\IBK_DRFN\ProjSrc\SrcDrfn\DrCommon\PartnerMng\ChartItemSHoga.cpp
; File C:\Program Files (x86)\Microsoft Visual Studio\2019\Community\VC\Tools\MSVC\14.29.30133\atlmfc\include\atlsimpstr.h
; File D:\git\src\IBK\IBK_DRFN\ProjSrc\SrcDrfn\DrCommon\PartnerMng\ChartItemSHoga.cpp
; File C:\Program Files (x86)\Microsoft Visual Studio\2019\Community\VC\Tools\MSVC\14.29.30133\atlmfc\include\atlsimpstr.h
; File D:\git\src\IBK\IBK_DRFN\ProjSrc\SrcDrfn\DrCommon\PartnerMng\ChartItemSHoga.cpp
; File C:\Program Files (x86)\Microsoft Visual Studio\2019\Community\VC\Tools\MSVC\14.29.30133\atlmfc\include\atlsimpstr.h
; File D:\git\src\IBK\IBK_DRFN\ProjSrc\SrcDrfn\DrCommon\PartnerMng\ChartItemSHoga.cpp
; File C:\Program Files (x86)\Microsoft Visual Studio\2019\Community\VC\Tools\MSVC\14.29.30133\atlmfc\include\atlsimpstr.h
; File D:\git\src\IBK\IBK_DRFN\ProjSrc\SrcDrfn\DrCommon\PartnerMng\ChartItemSHoga.cpp
; File C:\Program Files (x86)\Microsoft Visual Studio\2019\Community\VC\Tools\MSVC\14.29.30133\atlmfc\include\atlsimpstr.h
; File D:\git\src\IBK\IBK_DRFN\ProjSrc\SrcDrfn\DrCommon\PartnerMng\ChartItemSHoga.cpp
; File C:\Program Files (x86)\Microsoft Visual Studio\2019\Community\VC\Tools\MSVC\14.29.30133\atlmfc\include\atlsimpstr.h
; File D:\git\src\IBK\IBK_DRFN\ProjSrc\SrcDrfn\DrCommon\PartnerMng\ChartItemSHoga.cpp
; File C:\Program Files (x86)\Microsoft Visual Studio\2019\Community\VC\Tools\MSVC\14.29.30133\atlmfc\include\atlsimpstr.h
; File D:\git\src\IBK\IBK_DRFN\ProjSrc\SrcDrfn\DrCommon\PartnerMng\ChartItemSHoga.cpp
; File C:\Program Files (x86)\Microsoft Visual Studio\2019\Community\VC\Tools\MSVC\14.29.30133\atlmfc\include\atlsimpstr.h
; File D:\git\src\IBK\IBK_DRFN\ProjSrc\SrcDrfn\DrCommon\PartnerMng\ChartItemSHoga.cpp
; File C:\Program Files (x86)\Microsoft Visual Studio\2019\Community\VC\Tools\MSVC\14.29.30133\atlmfc\include\atlsimpstr.h
; File D:\git\src\IBK\IBK_DRFN\ProjSrc\SrcDrfn\DrCommon\PartnerMng\ChartItemSHoga.cpp
; File C:\Program Files (x86)\Microsoft Visual Studio\2019\Community\VC\Tools\MSVC\14.29.30133\atlmfc\include\atlsimpstr.h
; File D:\git\src\IBK\IBK_DRFN\ProjSrc\SrcDrfn\DrCommon\PartnerMng\ChartItemSHoga.cpp
;	COMDAT ?Convert2Struct@CChartItemSHoga@@QAEPADPAEHHAAH@Z
_TEXT	SEGMENT
_strSrc$ = -1084					; size = 4
_strNode$ = -1080					; size = 4
$T2 = -1076						; size = 4
$T3 = -1076						; size = 4
$T4 = -1076						; size = 4
$T5 = -1076						; size = 4
$T6 = -1076						; size = 4
$T7 = -1076						; size = 4
$T8 = -1076						; size = 4
$T9 = -1076						; size = 4
$T10 = -1076						; size = 4
$T11 = -1076						; size = 4
$T12 = -1076						; size = 4
$T13 = -1076						; size = 4
$T14 = -1076						; size = 4
$T15 = -1076						; size = 4
$T16 = -1076						; size = 4
$T17 = -1076						; size = 4
$T18 = -1076						; size = 4
$T19 = -1076						; size = 4
$T20 = -1076						; size = 4
$T21 = -1076						; size = 4
$T22 = -1076						; size = 4
$T23 = -1076						; size = 4
$T24 = -1076						; size = 4
$T25 = -1076						; size = 4
$T26 = -1076						; size = 4
$T27 = -1076						; size = 4
$T28 = -1076						; size = 4
$T29 = -1076						; size = 4
$T30 = -1076						; size = 4
$T31 = -1076						; size = 4
$T32 = -1076						; size = 4
$T33 = -1076						; size = 4
$T34 = -1076						; size = 4
$T35 = -1076						; size = 4
$T36 = -1076						; size = 4
$T37 = -1076						; size = 4
$T38 = -1076						; size = 4
$T39 = -1076						; size = 4
$T40 = -1076						; size = 4
$T41 = -1076						; size = 4
$T42 = -1076						; size = 4
_stOut$ = -1072						; size = 1053
__$ArrayPad$ = -16					; size = 4
__$EHRec$ = -12						; size = 12
_pData$ = 8						; size = 4
_nLen$ = 12						; size = 4
_nKey$ = 16						; size = 4
_nDataLen$ = 20						; size = 4
?Convert2Struct@CChartItemSHoga@@QAEPADPAEHHAAH@Z PROC	; CChartItemSHoga::Convert2Struct, COMDAT
; _this$ = ecx

; 124  : {

  00000	55		 push	 ebp
  00001	8b ec		 mov	 ebp, esp
  00003	6a ff		 push	 -1
  00005	68 00 00 00 00	 push	 __ehhandler$?Convert2Struct@CChartItemSHoga@@QAEPADPAEHHAAH@Z
  0000a	64 a1 00 00 00
	00		 mov	 eax, DWORD PTR fs:0
  00010	50		 push	 eax
  00011	81 ec 30 04 00
	00		 sub	 esp, 1072		; 00000430H
  00017	a1 00 00 00 00	 mov	 eax, DWORD PTR ___security_cookie
  0001c	33 c5		 xor	 eax, ebp
  0001e	89 45 f0	 mov	 DWORD PTR __$ArrayPad$[ebp], eax
  00021	53		 push	 ebx
  00022	56		 push	 esi
  00023	57		 push	 edi
  00024	50		 push	 eax
  00025	8d 45 f4	 lea	 eax, DWORD PTR __$EHRec$[ebp]
  00028	64 a3 00 00 00
	00		 mov	 DWORD PTR fs:0, eax
  0002e	8b 75 08	 mov	 esi, DWORD PTR _pData$[ebp]

; 125  : 	k01230Out1 stOut;
; 126  : 	CString strNode, strSrc;

  00031	8d 8d c8 fb ff
	ff		 lea	 ecx, DWORD PTR _strNode$[ebp]
  00037	ff 15 00 00 00
	00		 call	 DWORD PTR __imp_??0?$CStringT@DV?$StrTraitMFC_DLL@DV?$ChTraitsCRT@D@ATL@@@@@ATL@@QAE@XZ
  0003d	8d 8d c4 fb ff
	ff		 lea	 ecx, DWORD PTR _strSrc$[ebp]
  00043	c7 45 fc 00 00
	00 00		 mov	 DWORD PTR __$EHRec$[ebp+8], 0
  0004a	ff 15 00 00 00
	00		 call	 DWORD PTR __imp_??0?$CStringT@DV?$StrTraitMFC_DLL@DV?$ChTraitsCRT@D@ATL@@@@@ATL@@QAE@XZ

; 127  : 	strSrc.Format(_T("%.*s"), nLen, (char*)pData);

  00050	56		 push	 esi
  00051	ff 75 0c	 push	 DWORD PTR _nLen$[ebp]
  00054	8d 85 c4 fb ff
	ff		 lea	 eax, DWORD PTR _strSrc$[ebp]
  0005a	c6 45 fc 01	 mov	 BYTE PTR __$EHRec$[ebp+8], 1
  0005e	68 00 00 00 00	 push	 OFFSET ??_C@_04EBNJJJJI@?$CF?4?$CKs@
  00063	50		 push	 eax
  00064	ff 15 00 00 00
	00		 call	 DWORD PTR __imp_?Format@?$CStringT@DV?$StrTraitMFC_DLL@DV?$ChTraitsCRT@D@ATL@@@@@ATL@@QAAXPBDZZ

; 128  : 
; 129  : 	memset(&stOut, 0x20, sizeof(stOut));

  0006a	68 1d 04 00 00	 push	 1053			; 0000041dH
  0006f	8d 85 d0 fb ff
	ff		 lea	 eax, DWORD PTR _stOut$[ebp]
  00075	6a 20		 push	 32			; 00000020H
  00077	50		 push	 eax
  00078	e8 00 00 00 00	 call	 _memset

; 130  : 	strNode = CDataConverter::Parser(strSrc, sCELL);	// 기준가

  0007d	83 c4 18	 add	 esp, 24			; 00000018H
  00080	8b cc		 mov	 ecx, esp
  00082	6a 01		 push	 1
  00084	6a 09		 push	 9
  00086	ff 15 00 00 00
	00		 call	 DWORD PTR __imp_??0?$CStringT@DV?$StrTraitMFC_DLL@DV?$ChTraitsCRT@D@ATL@@@@@ATL@@QAE@DH@Z
  0008c	8d 85 c4 fb ff
	ff		 lea	 eax, DWORD PTR _strSrc$[ebp]
  00092	50		 push	 eax
  00093	8d 85 cc fb ff
	ff		 lea	 eax, DWORD PTR $T42[ebp]
  00099	50		 push	 eax
  0009a	e8 00 00 00 00	 call	 ?Parser@CDataConverter@@SA?AV?$CStringT@DV?$StrTraitMFC_DLL@DV?$ChTraitsCRT@D@ATL@@@@@ATL@@AAV23@V23@@Z ; CDataConverter::Parser
  0009f	83 c4 0c	 add	 esp, 12			; 0000000cH
  000a2	50		 push	 eax
  000a3	8d 8d c8 fb ff
	ff		 lea	 ecx, DWORD PTR _strNode$[ebp]
  000a9	c6 45 fc 02	 mov	 BYTE PTR __$EHRec$[ebp+8], 2
  000ad	ff 15 00 00 00
	00		 call	 DWORD PTR __imp_??4?$CStringT@DV?$StrTraitMFC_DLL@DV?$ChTraitsCRT@D@ATL@@@@@ATL@@QAEAAV01@ABV01@@Z
  000b3	8d 8d cc fb ff
	ff		 lea	 ecx, DWORD PTR $T42[ebp]
  000b9	c6 45 fc 01	 mov	 BYTE PTR __$EHRec$[ebp+8], 1
  000bd	ff 15 00 00 00
	00		 call	 DWORD PTR __imp_??1?$CStringT@DV?$StrTraitMFC_DLL@DV?$ChTraitsCRT@D@ATL@@@@@ATL@@QAE@XZ

; 131  : 	strNode.Remove(_T('-'));

  000c3	6a 2d		 push	 45			; 0000002dH
  000c5	8d 8d c8 fb ff
	ff		 lea	 ecx, DWORD PTR _strNode$[ebp]
  000cb	ff 15 00 00 00
	00		 call	 DWORD PTR __imp_?Remove@?$CStringT@DV?$StrTraitMFC_DLL@DV?$ChTraitsCRT@D@ATL@@@@@ATL@@QAEHD@Z
; File C:\Program Files (x86)\Microsoft Visual Studio\2019\Community\VC\Tools\MSVC\14.29.30133\atlmfc\include\atlsimpstr.h

; 519  : 		return( GetData()->nDataLength );

  000d1	8b 85 c8 fb ff
	ff		 mov	 eax, DWORD PTR _strNode$[ebp]
; File D:\git\src\IBK\IBK_DRFN\ProjSrc\SrcDrfn\DrCommon\PartnerMng\ChartItemSHoga.cpp

; 132  : 	memcpy(stOut.recprice, strNode, min(strNode.GetLength(), sizeof(stOut.recprice)));

  000d7	bb 08 00 00 00	 mov	 ebx, 8
  000dc	8b cb		 mov	 ecx, ebx
  000de	39 48 f4	 cmp	 DWORD PTR [eax-12], ecx
  000e1	0f 42 48 f4	 cmovb	 ecx, DWORD PTR [eax-12]
  000e5	51		 push	 ecx
  000e6	50		 push	 eax
  000e7	8d 85 c4 fe ff
	ff		 lea	 eax, DWORD PTR _stOut$[ebp+756]
  000ed	50		 push	 eax
  000ee	e8 00 00 00 00	 call	 _memcpy

; 133  : 
; 134  : 	strNode = CDataConverter::Parser(strSrc, sCELL);	// 예상체결가격

  000f3	83 c4 08	 add	 esp, 8
  000f6	8b cc		 mov	 ecx, esp
  000f8	6a 01		 push	 1
  000fa	6a 09		 push	 9
  000fc	ff 15 00 00 00
	00		 call	 DWORD PTR __imp_??0?$CStringT@DV?$StrTraitMFC_DLL@DV?$ChTraitsCRT@D@ATL@@@@@ATL@@QAE@DH@Z
  00102	8d 85 c4 fb ff
	ff		 lea	 eax, DWORD PTR _strSrc$[ebp]
  00108	50		 push	 eax
  00109	8d 85 cc fb ff
	ff		 lea	 eax, DWORD PTR $T41[ebp]
  0010f	50		 push	 eax
  00110	e8 00 00 00 00	 call	 ?Parser@CDataConverter@@SA?AV?$CStringT@DV?$StrTraitMFC_DLL@DV?$ChTraitsCRT@D@ATL@@@@@ATL@@AAV23@V23@@Z ; CDataConverter::Parser
  00115	83 c4 0c	 add	 esp, 12			; 0000000cH
  00118	50		 push	 eax
  00119	8d 8d c8 fb ff
	ff		 lea	 ecx, DWORD PTR _strNode$[ebp]
  0011f	c6 45 fc 03	 mov	 BYTE PTR __$EHRec$[ebp+8], 3
  00123	ff 15 00 00 00
	00		 call	 DWORD PTR __imp_??4?$CStringT@DV?$StrTraitMFC_DLL@DV?$ChTraitsCRT@D@ATL@@@@@ATL@@QAEAAV01@ABV01@@Z
  00129	8d 8d cc fb ff
	ff		 lea	 ecx, DWORD PTR $T41[ebp]
  0012f	c6 45 fc 01	 mov	 BYTE PTR __$EHRec$[ebp+8], 1
  00133	ff 15 00 00 00
	00		 call	 DWORD PTR __imp_??1?$CStringT@DV?$StrTraitMFC_DLL@DV?$ChTraitsCRT@D@ATL@@@@@ATL@@QAE@XZ

; 135  : 	strNode.Remove(_T('-'));

  00139	6a 2d		 push	 45			; 0000002dH
  0013b	8d 8d c8 fb ff
	ff		 lea	 ecx, DWORD PTR _strNode$[ebp]
  00141	ff 15 00 00 00
	00		 call	 DWORD PTR __imp_?Remove@?$CStringT@DV?$StrTraitMFC_DLL@DV?$ChTraitsCRT@D@ATL@@@@@ATL@@QAEHD@Z
; File C:\Program Files (x86)\Microsoft Visual Studio\2019\Community\VC\Tools\MSVC\14.29.30133\atlmfc\include\atlsimpstr.h

; 519  : 		return( GetData()->nDataLength );

  00147	8b 85 c8 fb ff
	ff		 mov	 eax, DWORD PTR _strNode$[ebp]
; File D:\git\src\IBK\IBK_DRFN\ProjSrc\SrcDrfn\DrCommon\PartnerMng\ChartItemSHoga.cpp

; 136  : 	memcpy(stOut.yeprice, strNode, min(strNode.GetLength(), sizeof(stOut.yeprice)));

  0014d	8b d3		 mov	 edx, ebx
  0014f	39 50 f4	 cmp	 DWORD PTR [eax-12], edx
  00152	0f 42 50 f4	 cmovb	 edx, DWORD PTR [eax-12]
  00156	52		 push	 edx
  00157	50		 push	 eax
  00158	8d 85 83 fe ff
	ff		 lea	 eax, DWORD PTR _stOut$[ebp+691]
  0015e	50		 push	 eax
  0015f	e8 00 00 00 00	 call	 _memcpy

; 137  : 
; 138  : 	strNode = CDataConverter::Parser(strSrc, sCELL);	// 예상체결수량

  00164	83 c4 08	 add	 esp, 8
  00167	8b cc		 mov	 ecx, esp
  00169	6a 01		 push	 1
  0016b	6a 09		 push	 9
  0016d	ff 15 00 00 00
	00		 call	 DWORD PTR __imp_??0?$CStringT@DV?$StrTraitMFC_DLL@DV?$ChTraitsCRT@D@ATL@@@@@ATL@@QAE@DH@Z
  00173	8d 85 c4 fb ff
	ff		 lea	 eax, DWORD PTR _strSrc$[ebp]
  00179	50		 push	 eax
  0017a	8d 85 cc fb ff
	ff		 lea	 eax, DWORD PTR $T40[ebp]
  00180	50		 push	 eax
  00181	e8 00 00 00 00	 call	 ?Parser@CDataConverter@@SA?AV?$CStringT@DV?$StrTraitMFC_DLL@DV?$ChTraitsCRT@D@ATL@@@@@ATL@@AAV23@V23@@Z ; CDataConverter::Parser
  00186	83 c4 0c	 add	 esp, 12			; 0000000cH
  00189	50		 push	 eax
  0018a	8d 8d c8 fb ff
	ff		 lea	 ecx, DWORD PTR _strNode$[ebp]
  00190	c6 45 fc 04	 mov	 BYTE PTR __$EHRec$[ebp+8], 4
  00194	ff 15 00 00 00
	00		 call	 DWORD PTR __imp_??4?$CStringT@DV?$StrTraitMFC_DLL@DV?$ChTraitsCRT@D@ATL@@@@@ATL@@QAEAAV01@ABV01@@Z
  0019a	8d 8d cc fb ff
	ff		 lea	 ecx, DWORD PTR $T40[ebp]
  001a0	c6 45 fc 01	 mov	 BYTE PTR __$EHRec$[ebp+8], 1
  001a4	ff 15 00 00 00
	00		 call	 DWORD PTR __imp_??1?$CStringT@DV?$StrTraitMFC_DLL@DV?$ChTraitsCRT@D@ATL@@@@@ATL@@QAE@XZ

; 139  : 	strNode.Remove(_T('-'));

  001aa	6a 2d		 push	 45			; 0000002dH
  001ac	8d 8d c8 fb ff
	ff		 lea	 ecx, DWORD PTR _strNode$[ebp]
  001b2	ff 15 00 00 00
	00		 call	 DWORD PTR __imp_?Remove@?$CStringT@DV?$StrTraitMFC_DLL@DV?$ChTraitsCRT@D@ATL@@@@@ATL@@QAEHD@Z
; File C:\Program Files (x86)\Microsoft Visual Studio\2019\Community\VC\Tools\MSVC\14.29.30133\atlmfc\include\atlsimpstr.h

; 519  : 		return( GetData()->nDataLength );

  001b8	8b 85 c8 fb ff
	ff		 mov	 eax, DWORD PTR _strNode$[ebp]
; File D:\git\src\IBK\IBK_DRFN\ProjSrc\SrcDrfn\DrCommon\PartnerMng\ChartItemSHoga.cpp

; 140  : 	memcpy(stOut.yevolume, strNode, min(strNode.GetLength(), sizeof(stOut.yevolume)));

  001be	8b d3		 mov	 edx, ebx
  001c0	39 50 f4	 cmp	 DWORD PTR [eax-12], edx
  001c3	0f 42 50 f4	 cmovb	 edx, DWORD PTR [eax-12]
  001c7	52		 push	 edx
  001c8	50		 push	 eax
  001c9	8d 85 8c fe ff
	ff		 lea	 eax, DWORD PTR _stOut$[ebp+700]
  001cf	50		 push	 eax
  001d0	e8 00 00 00 00	 call	 _memcpy

; 141  : 
; 142  : 	strNode = CDataConverter::Parser(strSrc, sCELL);	// 종목명

  001d5	83 c4 08	 add	 esp, 8
  001d8	8b cc		 mov	 ecx, esp
  001da	6a 01		 push	 1
  001dc	6a 09		 push	 9
  001de	ff 15 00 00 00
	00		 call	 DWORD PTR __imp_??0?$CStringT@DV?$StrTraitMFC_DLL@DV?$ChTraitsCRT@D@ATL@@@@@ATL@@QAE@DH@Z
  001e4	8d 85 c4 fb ff
	ff		 lea	 eax, DWORD PTR _strSrc$[ebp]
  001ea	50		 push	 eax
  001eb	8d 85 cc fb ff
	ff		 lea	 eax, DWORD PTR $T39[ebp]
  001f1	50		 push	 eax
  001f2	e8 00 00 00 00	 call	 ?Parser@CDataConverter@@SA?AV?$CStringT@DV?$StrTraitMFC_DLL@DV?$ChTraitsCRT@D@ATL@@@@@ATL@@AAV23@V23@@Z ; CDataConverter::Parser
  001f7	83 c4 0c	 add	 esp, 12			; 0000000cH
  001fa	50		 push	 eax
  001fb	8d 8d c8 fb ff
	ff		 lea	 ecx, DWORD PTR _strNode$[ebp]
  00201	c6 45 fc 05	 mov	 BYTE PTR __$EHRec$[ebp+8], 5
  00205	ff 15 00 00 00
	00		 call	 DWORD PTR __imp_??4?$CStringT@DV?$StrTraitMFC_DLL@DV?$ChTraitsCRT@D@ATL@@@@@ATL@@QAEAAV01@ABV01@@Z
  0020b	8d 8d cc fb ff
	ff		 lea	 ecx, DWORD PTR $T39[ebp]
  00211	c6 45 fc 01	 mov	 BYTE PTR __$EHRec$[ebp+8], 1
  00215	ff 15 00 00 00
	00		 call	 DWORD PTR __imp_??1?$CStringT@DV?$StrTraitMFC_DLL@DV?$ChTraitsCRT@D@ATL@@@@@ATL@@QAE@XZ
; File C:\Program Files (x86)\Microsoft Visual Studio\2019\Community\VC\Tools\MSVC\14.29.30133\atlmfc\include\atlsimpstr.h

; 519  : 		return( GetData()->nDataLength );

  0021b	8b 85 c8 fb ff
	ff		 mov	 eax, DWORD PTR _strNode$[ebp]
; File D:\git\src\IBK\IBK_DRFN\ProjSrc\SrcDrfn\DrCommon\PartnerMng\ChartItemSHoga.cpp

; 143  : 	memcpy(stOut.hname, strNode, min(strNode.GetLength(), sizeof(stOut.hname)));

  00221	ba 14 00 00 00	 mov	 edx, 20			; 00000014H
  00226	39 50 f4	 cmp	 DWORD PTR [eax-12], edx
  00229	0f 42 50 f4	 cmovb	 edx, DWORD PTR [eax-12]
  0022d	52		 push	 edx
  0022e	50		 push	 eax
  0022f	8d 85 d0 fb ff
	ff		 lea	 eax, DWORD PTR _stOut$[ebp]
  00235	50		 push	 eax
  00236	e8 00 00 00 00	 call	 _memcpy

; 144  : 
; 145  : 	strNode = CDataConverter::Parser(strSrc, sCELL);	// 현재가

  0023b	83 c4 08	 add	 esp, 8
  0023e	8b cc		 mov	 ecx, esp
  00240	6a 01		 push	 1
  00242	6a 09		 push	 9
  00244	ff 15 00 00 00
	00		 call	 DWORD PTR __imp_??0?$CStringT@DV?$StrTraitMFC_DLL@DV?$ChTraitsCRT@D@ATL@@@@@ATL@@QAE@DH@Z
  0024a	8d 85 c4 fb ff
	ff		 lea	 eax, DWORD PTR _strSrc$[ebp]
  00250	50		 push	 eax
  00251	8d 85 cc fb ff
	ff		 lea	 eax, DWORD PTR $T38[ebp]
  00257	50		 push	 eax
  00258	e8 00 00 00 00	 call	 ?Parser@CDataConverter@@SA?AV?$CStringT@DV?$StrTraitMFC_DLL@DV?$ChTraitsCRT@D@ATL@@@@@ATL@@AAV23@V23@@Z ; CDataConverter::Parser
  0025d	83 c4 0c	 add	 esp, 12			; 0000000cH
  00260	50		 push	 eax
  00261	8d 8d c8 fb ff
	ff		 lea	 ecx, DWORD PTR _strNode$[ebp]
  00267	c6 45 fc 06	 mov	 BYTE PTR __$EHRec$[ebp+8], 6
  0026b	ff 15 00 00 00
	00		 call	 DWORD PTR __imp_??4?$CStringT@DV?$StrTraitMFC_DLL@DV?$ChTraitsCRT@D@ATL@@@@@ATL@@QAEAAV01@ABV01@@Z
  00271	8d 8d cc fb ff
	ff		 lea	 ecx, DWORD PTR $T38[ebp]
  00277	c6 45 fc 01	 mov	 BYTE PTR __$EHRec$[ebp+8], 1
  0027b	ff 15 00 00 00
	00		 call	 DWORD PTR __imp_??1?$CStringT@DV?$StrTraitMFC_DLL@DV?$ChTraitsCRT@D@ATL@@@@@ATL@@QAE@XZ

; 146  : 	strNode.Remove(_T('-'));

  00281	6a 2d		 push	 45			; 0000002dH
  00283	8d 8d c8 fb ff
	ff		 lea	 ecx, DWORD PTR _strNode$[ebp]
  00289	ff 15 00 00 00
	00		 call	 DWORD PTR __imp_?Remove@?$CStringT@DV?$StrTraitMFC_DLL@DV?$ChTraitsCRT@D@ATL@@@@@ATL@@QAEHD@Z
; File C:\Program Files (x86)\Microsoft Visual Studio\2019\Community\VC\Tools\MSVC\14.29.30133\atlmfc\include\atlsimpstr.h

; 519  : 		return( GetData()->nDataLength );

  0028f	8b 85 c8 fb ff
	ff		 mov	 eax, DWORD PTR _strNode$[ebp]
; File D:\git\src\IBK\IBK_DRFN\ProjSrc\SrcDrfn\DrCommon\PartnerMng\ChartItemSHoga.cpp

; 147  : 	memcpy(stOut.price, strNode, min(strNode.GetLength(), sizeof(stOut.price)));

  00295	8b d3		 mov	 edx, ebx
  00297	39 50 f4	 cmp	 DWORD PTR [eax-12], edx
  0029a	0f 42 50 f4	 cmovb	 edx, DWORD PTR [eax-12]
  0029e	52		 push	 edx
  0029f	50		 push	 eax
  002a0	8d 85 e5 fb ff
	ff		 lea	 eax, DWORD PTR _stOut$[ebp+21]
  002a6	50		 push	 eax
  002a7	e8 00 00 00 00	 call	 _memcpy

; 148  : 
; 149  : 	strNode = CDataConverter::Parser(strSrc, sCELL);	// 등락부호

  002ac	83 c4 08	 add	 esp, 8
  002af	8b cc		 mov	 ecx, esp
  002b1	6a 01		 push	 1
  002b3	6a 09		 push	 9
  002b5	ff 15 00 00 00
	00		 call	 DWORD PTR __imp_??0?$CStringT@DV?$StrTraitMFC_DLL@DV?$ChTraitsCRT@D@ATL@@@@@ATL@@QAE@DH@Z
  002bb	8d 85 c4 fb ff
	ff		 lea	 eax, DWORD PTR _strSrc$[ebp]
  002c1	50		 push	 eax
  002c2	8d 85 cc fb ff
	ff		 lea	 eax, DWORD PTR $T37[ebp]
  002c8	50		 push	 eax
  002c9	e8 00 00 00 00	 call	 ?Parser@CDataConverter@@SA?AV?$CStringT@DV?$StrTraitMFC_DLL@DV?$ChTraitsCRT@D@ATL@@@@@ATL@@AAV23@V23@@Z ; CDataConverter::Parser
  002ce	83 c4 0c	 add	 esp, 12			; 0000000cH
  002d1	50		 push	 eax
  002d2	8d 8d c8 fb ff
	ff		 lea	 ecx, DWORD PTR _strNode$[ebp]
  002d8	c6 45 fc 07	 mov	 BYTE PTR __$EHRec$[ebp+8], 7
  002dc	ff 15 00 00 00
	00		 call	 DWORD PTR __imp_??4?$CStringT@DV?$StrTraitMFC_DLL@DV?$ChTraitsCRT@D@ATL@@@@@ATL@@QAEAAV01@ABV01@@Z
  002e2	8d 8d cc fb ff
	ff		 lea	 ecx, DWORD PTR $T37[ebp]
  002e8	c6 45 fc 01	 mov	 BYTE PTR __$EHRec$[ebp+8], 1
  002ec	ff 15 00 00 00
	00		 call	 DWORD PTR __imp_??1?$CStringT@DV?$StrTraitMFC_DLL@DV?$ChTraitsCRT@D@ATL@@@@@ATL@@QAE@XZ
; File C:\Program Files (x86)\Microsoft Visual Studio\2019\Community\VC\Tools\MSVC\14.29.30133\atlmfc\include\atlsimpstr.h

; 519  : 		return( GetData()->nDataLength );

  002f2	8b 85 c8 fb ff
	ff		 mov	 eax, DWORD PTR _strNode$[ebp]
; File D:\git\src\IBK\IBK_DRFN\ProjSrc\SrcDrfn\DrCommon\PartnerMng\ChartItemSHoga.cpp

; 150  : 	memcpy(stOut.sign, strNode, min(strNode.GetLength(), sizeof(stOut.sign)));

  002f8	bf 01 00 00 00	 mov	 edi, 1
  002fd	8b cf		 mov	 ecx, edi
  002ff	39 48 f4	 cmp	 DWORD PTR [eax-12], ecx
  00302	0f 42 48 f4	 cmovb	 ecx, DWORD PTR [eax-12]
  00306	51		 push	 ecx
  00307	50		 push	 eax
  00308	8d 85 ee fb ff
	ff		 lea	 eax, DWORD PTR _stOut$[ebp+30]
  0030e	50		 push	 eax
  0030f	e8 00 00 00 00	 call	 _memcpy

; 151  : 
; 152  : 	strNode = CDataConverter::Parser(strSrc, sCELL);	// 등락폭

  00314	83 c4 08	 add	 esp, 8
  00317	8b cc		 mov	 ecx, esp
  00319	57		 push	 edi
  0031a	6a 09		 push	 9
  0031c	ff 15 00 00 00
	00		 call	 DWORD PTR __imp_??0?$CStringT@DV?$StrTraitMFC_DLL@DV?$ChTraitsCRT@D@ATL@@@@@ATL@@QAE@DH@Z
  00322	8d 85 c4 fb ff
	ff		 lea	 eax, DWORD PTR _strSrc$[ebp]
  00328	50		 push	 eax
  00329	8d 85 cc fb ff
	ff		 lea	 eax, DWORD PTR $T36[ebp]
  0032f	50		 push	 eax
  00330	e8 00 00 00 00	 call	 ?Parser@CDataConverter@@SA?AV?$CStringT@DV?$StrTraitMFC_DLL@DV?$ChTraitsCRT@D@ATL@@@@@ATL@@AAV23@V23@@Z ; CDataConverter::Parser
  00335	83 c4 0c	 add	 esp, 12			; 0000000cH
  00338	50		 push	 eax
  00339	8d 8d c8 fb ff
	ff		 lea	 ecx, DWORD PTR _strNode$[ebp]
  0033f	88 5d fc	 mov	 BYTE PTR __$EHRec$[ebp+8], bl
  00342	ff 15 00 00 00
	00		 call	 DWORD PTR __imp_??4?$CStringT@DV?$StrTraitMFC_DLL@DV?$ChTraitsCRT@D@ATL@@@@@ATL@@QAEAAV01@ABV01@@Z
  00348	8d 8d cc fb ff
	ff		 lea	 ecx, DWORD PTR $T36[ebp]
  0034e	c6 45 fc 01	 mov	 BYTE PTR __$EHRec$[ebp+8], 1
  00352	ff 15 00 00 00
	00		 call	 DWORD PTR __imp_??1?$CStringT@DV?$StrTraitMFC_DLL@DV?$ChTraitsCRT@D@ATL@@@@@ATL@@QAE@XZ
; File C:\Program Files (x86)\Microsoft Visual Studio\2019\Community\VC\Tools\MSVC\14.29.30133\atlmfc\include\atlsimpstr.h

; 519  : 		return( GetData()->nDataLength );

  00358	8b 85 c8 fb ff
	ff		 mov	 eax, DWORD PTR _strNode$[ebp]
; File D:\git\src\IBK\IBK_DRFN\ProjSrc\SrcDrfn\DrCommon\PartnerMng\ChartItemSHoga.cpp

; 153  : 	memcpy(stOut.change, strNode, min(strNode.GetLength(), sizeof(stOut.change)));

  0035e	8b d3		 mov	 edx, ebx
  00360	39 50 f4	 cmp	 DWORD PTR [eax-12], edx
  00363	0f 42 50 f4	 cmovb	 edx, DWORD PTR [eax-12]
  00367	52		 push	 edx
  00368	50		 push	 eax
  00369	8d 85 f0 fb ff
	ff		 lea	 eax, DWORD PTR _stOut$[ebp+32]
  0036f	50		 push	 eax
  00370	e8 00 00 00 00	 call	 _memcpy

; 154  : 
; 155  : 	strNode = CDataConverter::Parser(strSrc, sCELL);	// 대비율

  00375	83 c4 08	 add	 esp, 8
  00378	8b cc		 mov	 ecx, esp
  0037a	57		 push	 edi
  0037b	6a 09		 push	 9
  0037d	ff 15 00 00 00
	00		 call	 DWORD PTR __imp_??0?$CStringT@DV?$StrTraitMFC_DLL@DV?$ChTraitsCRT@D@ATL@@@@@ATL@@QAE@DH@Z
  00383	8d 85 c4 fb ff
	ff		 lea	 eax, DWORD PTR _strSrc$[ebp]
  00389	50		 push	 eax
  0038a	8d 85 cc fb ff
	ff		 lea	 eax, DWORD PTR $T35[ebp]
  00390	50		 push	 eax
  00391	e8 00 00 00 00	 call	 ?Parser@CDataConverter@@SA?AV?$CStringT@DV?$StrTraitMFC_DLL@DV?$ChTraitsCRT@D@ATL@@@@@ATL@@AAV23@V23@@Z ; CDataConverter::Parser
  00396	83 c4 0c	 add	 esp, 12			; 0000000cH
  00399	c6 45 fc 09	 mov	 BYTE PTR __$EHRec$[ebp+8], 9
  0039d	50		 push	 eax
  0039e	8d 8d c8 fb ff
	ff		 lea	 ecx, DWORD PTR _strNode$[ebp]
  003a4	ff 15 00 00 00
	00		 call	 DWORD PTR __imp_??4?$CStringT@DV?$StrTraitMFC_DLL@DV?$ChTraitsCRT@D@ATL@@@@@ATL@@QAEAAV01@ABV01@@Z
  003aa	8d 8d cc fb ff
	ff		 lea	 ecx, DWORD PTR $T35[ebp]
  003b0	c6 45 fc 01	 mov	 BYTE PTR __$EHRec$[ebp+8], 1
  003b4	ff 15 00 00 00
	00		 call	 DWORD PTR __imp_??1?$CStringT@DV?$StrTraitMFC_DLL@DV?$ChTraitsCRT@D@ATL@@@@@ATL@@QAE@XZ
; File C:\Program Files (x86)\Microsoft Visual Studio\2019\Community\VC\Tools\MSVC\14.29.30133\atlmfc\include\atlsimpstr.h

; 519  : 		return( GetData()->nDataLength );

  003ba	8b 85 c8 fb ff
	ff		 mov	 eax, DWORD PTR _strNode$[ebp]
; File D:\git\src\IBK\IBK_DRFN\ProjSrc\SrcDrfn\DrCommon\PartnerMng\ChartItemSHoga.cpp

; 156  : 	memcpy(stOut.rate, strNode, min(strNode.GetLength(), sizeof(stOut.rate)));

  003c0	be 07 00 00 00	 mov	 esi, 7
  003c5	8b ce		 mov	 ecx, esi
  003c7	39 48 f4	 cmp	 DWORD PTR [eax-12], ecx
  003ca	0f 42 48 f4	 cmovb	 ecx, DWORD PTR [eax-12]
  003ce	51		 push	 ecx
  003cf	50		 push	 eax
  003d0	8d 85 f9 fb ff
	ff		 lea	 eax, DWORD PTR _stOut$[ebp+41]
  003d6	50		 push	 eax
  003d7	e8 00 00 00 00	 call	 _memcpy

; 157  : 
; 158  : 	strNode = CDataConverter::Parser(strSrc, sCELL);	// 누적거래량

  003dc	83 c4 08	 add	 esp, 8
  003df	8b cc		 mov	 ecx, esp
  003e1	57		 push	 edi
  003e2	6a 09		 push	 9
  003e4	ff 15 00 00 00
	00		 call	 DWORD PTR __imp_??0?$CStringT@DV?$StrTraitMFC_DLL@DV?$ChTraitsCRT@D@ATL@@@@@ATL@@QAE@DH@Z
  003ea	8d 85 c4 fb ff
	ff		 lea	 eax, DWORD PTR _strSrc$[ebp]
  003f0	50		 push	 eax
  003f1	8d 85 cc fb ff
	ff		 lea	 eax, DWORD PTR $T34[ebp]
  003f7	50		 push	 eax
  003f8	e8 00 00 00 00	 call	 ?Parser@CDataConverter@@SA?AV?$CStringT@DV?$StrTraitMFC_DLL@DV?$ChTraitsCRT@D@ATL@@@@@ATL@@AAV23@V23@@Z ; CDataConverter::Parser
  003fd	83 c4 0c	 add	 esp, 12			; 0000000cH
  00400	50		 push	 eax
  00401	8d 8d c8 fb ff
	ff		 lea	 ecx, DWORD PTR _strNode$[ebp]
  00407	c6 45 fc 0a	 mov	 BYTE PTR __$EHRec$[ebp+8], 10 ; 0000000aH
  0040b	ff 15 00 00 00
	00		 call	 DWORD PTR __imp_??4?$CStringT@DV?$StrTraitMFC_DLL@DV?$ChTraitsCRT@D@ATL@@@@@ATL@@QAEAAV01@ABV01@@Z
  00411	8d 8d cc fb ff
	ff		 lea	 ecx, DWORD PTR $T34[ebp]
  00417	c6 45 fc 01	 mov	 BYTE PTR __$EHRec$[ebp+8], 1
  0041b	ff 15 00 00 00
	00		 call	 DWORD PTR __imp_??1?$CStringT@DV?$StrTraitMFC_DLL@DV?$ChTraitsCRT@D@ATL@@@@@ATL@@QAE@XZ

; 159  : 	strNode.Remove(_T('-'));

  00421	6a 2d		 push	 45			; 0000002dH
  00423	8d 8d c8 fb ff
	ff		 lea	 ecx, DWORD PTR _strNode$[ebp]
  00429	ff 15 00 00 00
	00		 call	 DWORD PTR __imp_?Remove@?$CStringT@DV?$StrTraitMFC_DLL@DV?$ChTraitsCRT@D@ATL@@@@@ATL@@QAEHD@Z
; File C:\Program Files (x86)\Microsoft Visual Studio\2019\Community\VC\Tools\MSVC\14.29.30133\atlmfc\include\atlsimpstr.h

; 519  : 		return( GetData()->nDataLength );

  0042f	8b 85 c8 fb ff
	ff		 mov	 eax, DWORD PTR _strNode$[ebp]
; File D:\git\src\IBK\IBK_DRFN\ProjSrc\SrcDrfn\DrCommon\PartnerMng\ChartItemSHoga.cpp

; 160  : 	memcpy(stOut.volume, strNode, min(strNode.GetLength(), sizeof(stOut.volume)));

  00435	ba 0c 00 00 00	 mov	 edx, 12			; 0000000cH
  0043a	39 50 f4	 cmp	 DWORD PTR [eax-12], edx
  0043d	0f 42 50 f4	 cmovb	 edx, DWORD PTR [eax-12]
  00441	52		 push	 edx
  00442	50		 push	 eax
  00443	8d 85 01 fc ff
	ff		 lea	 eax, DWORD PTR _stOut$[ebp+49]
  00449	50		 push	 eax
  0044a	e8 00 00 00 00	 call	 _memcpy

; 161  : 
; 162  : 	strNode = CDataConverter::Parser(strSrc, sCELL);	// 누적거래대금

  0044f	83 c4 08	 add	 esp, 8
  00452	8b cc		 mov	 ecx, esp
  00454	57		 push	 edi
  00455	6a 09		 push	 9
  00457	ff 15 00 00 00
	00		 call	 DWORD PTR __imp_??0?$CStringT@DV?$StrTraitMFC_DLL@DV?$ChTraitsCRT@D@ATL@@@@@ATL@@QAE@DH@Z
  0045d	8d 85 c4 fb ff
	ff		 lea	 eax, DWORD PTR _strSrc$[ebp]
  00463	50		 push	 eax
  00464	8d 85 cc fb ff
	ff		 lea	 eax, DWORD PTR $T33[ebp]
  0046a	50		 push	 eax
  0046b	e8 00 00 00 00	 call	 ?Parser@CDataConverter@@SA?AV?$CStringT@DV?$StrTraitMFC_DLL@DV?$ChTraitsCRT@D@ATL@@@@@ATL@@AAV23@V23@@Z ; CDataConverter::Parser
  00470	83 c4 0c	 add	 esp, 12			; 0000000cH
  00473	50		 push	 eax
  00474	8d 8d c8 fb ff
	ff		 lea	 ecx, DWORD PTR _strNode$[ebp]
  0047a	c6 45 fc 0b	 mov	 BYTE PTR __$EHRec$[ebp+8], 11 ; 0000000bH
  0047e	ff 15 00 00 00
	00		 call	 DWORD PTR __imp_??4?$CStringT@DV?$StrTraitMFC_DLL@DV?$ChTraitsCRT@D@ATL@@@@@ATL@@QAEAAV01@ABV01@@Z
  00484	8d 8d cc fb ff
	ff		 lea	 ecx, DWORD PTR $T33[ebp]
  0048a	c6 45 fc 01	 mov	 BYTE PTR __$EHRec$[ebp+8], 1
  0048e	ff 15 00 00 00
	00		 call	 DWORD PTR __imp_??1?$CStringT@DV?$StrTraitMFC_DLL@DV?$ChTraitsCRT@D@ATL@@@@@ATL@@QAE@XZ

; 163  : 	strNode.Remove(_T('-'));

  00494	6a 2d		 push	 45			; 0000002dH
  00496	8d 8d c8 fb ff
	ff		 lea	 ecx, DWORD PTR _strNode$[ebp]
  0049c	ff 15 00 00 00
	00		 call	 DWORD PTR __imp_?Remove@?$CStringT@DV?$StrTraitMFC_DLL@DV?$ChTraitsCRT@D@ATL@@@@@ATL@@QAEHD@Z
; File C:\Program Files (x86)\Microsoft Visual Studio\2019\Community\VC\Tools\MSVC\14.29.30133\atlmfc\include\atlsimpstr.h

; 519  : 		return( GetData()->nDataLength );

  004a2	8b 85 c8 fb ff
	ff		 mov	 eax, DWORD PTR _strNode$[ebp]
; File D:\git\src\IBK\IBK_DRFN\ProjSrc\SrcDrfn\DrCommon\PartnerMng\ChartItemSHoga.cpp

; 164  : 	memcpy(stOut.trade_cost, strNode, min(strNode.GetLength(), sizeof(stOut.trade_cost)));

  004a8	8b d3		 mov	 edx, ebx
  004aa	39 50 f4	 cmp	 DWORD PTR [eax-12], edx
  004ad	0f 42 50 f4	 cmovb	 edx, DWORD PTR [eax-12]
  004b1	52		 push	 edx
  004b2	50		 push	 eax
  004b3	8d 85 fa fe ff
	ff		 lea	 eax, DWORD PTR _stOut$[ebp+810]
  004b9	50		 push	 eax
  004ba	e8 00 00 00 00	 call	 _memcpy

; 165  : 
; 166  : 	strNode = CDataConverter::Parser(strSrc, sCELL);	// 매도호가1

  004bf	83 c4 08	 add	 esp, 8
  004c2	8b cc		 mov	 ecx, esp
  004c4	57		 push	 edi
  004c5	6a 09		 push	 9
  004c7	ff 15 00 00 00
	00		 call	 DWORD PTR __imp_??0?$CStringT@DV?$StrTraitMFC_DLL@DV?$ChTraitsCRT@D@ATL@@@@@ATL@@QAE@DH@Z
  004cd	8d 85 c4 fb ff
	ff		 lea	 eax, DWORD PTR _strSrc$[ebp]
  004d3	50		 push	 eax
  004d4	8d 85 cc fb ff
	ff		 lea	 eax, DWORD PTR $T32[ebp]
  004da	50		 push	 eax
  004db	e8 00 00 00 00	 call	 ?Parser@CDataConverter@@SA?AV?$CStringT@DV?$StrTraitMFC_DLL@DV?$ChTraitsCRT@D@ATL@@@@@ATL@@AAV23@V23@@Z ; CDataConverter::Parser
  004e0	83 c4 0c	 add	 esp, 12			; 0000000cH
  004e3	50		 push	 eax
  004e4	8d 8d c8 fb ff
	ff		 lea	 ecx, DWORD PTR _strNode$[ebp]
  004ea	c6 45 fc 0c	 mov	 BYTE PTR __$EHRec$[ebp+8], 12 ; 0000000cH
  004ee	ff 15 00 00 00
	00		 call	 DWORD PTR __imp_??4?$CStringT@DV?$StrTraitMFC_DLL@DV?$ChTraitsCRT@D@ATL@@@@@ATL@@QAEAAV01@ABV01@@Z
  004f4	8d 8d cc fb ff
	ff		 lea	 ecx, DWORD PTR $T32[ebp]
  004fa	c6 45 fc 01	 mov	 BYTE PTR __$EHRec$[ebp+8], 1
  004fe	ff 15 00 00 00
	00		 call	 DWORD PTR __imp_??1?$CStringT@DV?$StrTraitMFC_DLL@DV?$ChTraitsCRT@D@ATL@@@@@ATL@@QAE@XZ

; 167  : 	strNode.Remove(_T('-'));

  00504	6a 2d		 push	 45			; 0000002dH
  00506	8d 8d c8 fb ff
	ff		 lea	 ecx, DWORD PTR _strNode$[ebp]
  0050c	ff 15 00 00 00
	00		 call	 DWORD PTR __imp_?Remove@?$CStringT@DV?$StrTraitMFC_DLL@DV?$ChTraitsCRT@D@ATL@@@@@ATL@@QAEHD@Z
; File C:\Program Files (x86)\Microsoft Visual Studio\2019\Community\VC\Tools\MSVC\14.29.30133\atlmfc\include\atlsimpstr.h

; 519  : 		return( GetData()->nDataLength );

  00512	8b 85 c8 fb ff
	ff		 mov	 eax, DWORD PTR _strNode$[ebp]
; File D:\git\src\IBK\IBK_DRFN\ProjSrc\SrcDrfn\DrCommon\PartnerMng\ChartItemSHoga.cpp

; 168  : 	memcpy(stOut.offerho1, strNode, min(strNode.GetLength(), sizeof(stOut.offerho1)));

  00518	8b d3		 mov	 edx, ebx
  0051a	39 50 f4	 cmp	 DWORD PTR [eax-12], edx
  0051d	0f 42 50 f4	 cmovb	 edx, DWORD PTR [eax-12]
  00521	52		 push	 edx
  00522	50		 push	 eax
  00523	8d 85 43 fc ff
	ff		 lea	 eax, DWORD PTR _stOut$[ebp+115]
  00529	50		 push	 eax
  0052a	e8 00 00 00 00	 call	 _memcpy

; 169  : 
; 170  : 	strNode = CDataConverter::Parser(strSrc, sCELL);	// 매도잔량1

  0052f	83 c4 08	 add	 esp, 8
  00532	8b cc		 mov	 ecx, esp
  00534	57		 push	 edi
  00535	6a 09		 push	 9
  00537	ff 15 00 00 00
	00		 call	 DWORD PTR __imp_??0?$CStringT@DV?$StrTraitMFC_DLL@DV?$ChTraitsCRT@D@ATL@@@@@ATL@@QAE@DH@Z
  0053d	8d 85 c4 fb ff
	ff		 lea	 eax, DWORD PTR _strSrc$[ebp]
  00543	50		 push	 eax
  00544	8d 85 cc fb ff
	ff		 lea	 eax, DWORD PTR $T31[ebp]
  0054a	50		 push	 eax
  0054b	e8 00 00 00 00	 call	 ?Parser@CDataConverter@@SA?AV?$CStringT@DV?$StrTraitMFC_DLL@DV?$ChTraitsCRT@D@ATL@@@@@ATL@@AAV23@V23@@Z ; CDataConverter::Parser
  00550	83 c4 0c	 add	 esp, 12			; 0000000cH
  00553	50		 push	 eax
  00554	8d 8d c8 fb ff
	ff		 lea	 ecx, DWORD PTR _strNode$[ebp]
  0055a	c6 45 fc 0d	 mov	 BYTE PTR __$EHRec$[ebp+8], 13 ; 0000000dH
  0055e	ff 15 00 00 00
	00		 call	 DWORD PTR __imp_??4?$CStringT@DV?$StrTraitMFC_DLL@DV?$ChTraitsCRT@D@ATL@@@@@ATL@@QAEAAV01@ABV01@@Z
  00564	8d 8d cc fb ff
	ff		 lea	 ecx, DWORD PTR $T31[ebp]
  0056a	c6 45 fc 01	 mov	 BYTE PTR __$EHRec$[ebp+8], 1
  0056e	ff 15 00 00 00
	00		 call	 DWORD PTR __imp_??1?$CStringT@DV?$StrTraitMFC_DLL@DV?$ChTraitsCRT@D@ATL@@@@@ATL@@QAE@XZ

; 171  : 	strNode.Remove(_T('-'));

  00574	6a 2d		 push	 45			; 0000002dH
  00576	8d 8d c8 fb ff
	ff		 lea	 ecx, DWORD PTR _strNode$[ebp]
  0057c	ff 15 00 00 00
	00		 call	 DWORD PTR __imp_?Remove@?$CStringT@DV?$StrTraitMFC_DLL@DV?$ChTraitsCRT@D@ATL@@@@@ATL@@QAEHD@Z
; File C:\Program Files (x86)\Microsoft Visual Studio\2019\Community\VC\Tools\MSVC\14.29.30133\atlmfc\include\atlsimpstr.h

; 519  : 		return( GetData()->nDataLength );

  00582	8b 85 c8 fb ff
	ff		 mov	 eax, DWORD PTR _strNode$[ebp]
; File D:\git\src\IBK\IBK_DRFN\ProjSrc\SrcDrfn\DrCommon\PartnerMng\ChartItemSHoga.cpp

; 172  : 	memcpy(stOut.offerrem1, strNode, min(strNode.GetLength(), sizeof(stOut.offerrem1)));

  00588	8b d3		 mov	 edx, ebx
  0058a	39 50 f4	 cmp	 DWORD PTR [eax-12], edx
  0058d	0f 42 50 f4	 cmovb	 edx, DWORD PTR [eax-12]
  00591	52		 push	 edx
  00592	50		 push	 eax
  00593	8d 85 4c fc ff
	ff		 lea	 eax, DWORD PTR _stOut$[ebp+124]
  00599	50		 push	 eax
  0059a	e8 00 00 00 00	 call	 _memcpy

; 173  : 
; 174  : 	strNode = CDataConverter::Parser(strSrc, sCELL);	// 매도호가2

  0059f	83 c4 08	 add	 esp, 8
  005a2	8b cc		 mov	 ecx, esp
  005a4	57		 push	 edi
  005a5	6a 09		 push	 9
  005a7	ff 15 00 00 00
	00		 call	 DWORD PTR __imp_??0?$CStringT@DV?$StrTraitMFC_DLL@DV?$ChTraitsCRT@D@ATL@@@@@ATL@@QAE@DH@Z
  005ad	8d 85 c4 fb ff
	ff		 lea	 eax, DWORD PTR _strSrc$[ebp]
  005b3	50		 push	 eax
  005b4	8d 85 cc fb ff
	ff		 lea	 eax, DWORD PTR $T30[ebp]
  005ba	50		 push	 eax
  005bb	e8 00 00 00 00	 call	 ?Parser@CDataConverter@@SA?AV?$CStringT@DV?$StrTraitMFC_DLL@DV?$ChTraitsCRT@D@ATL@@@@@ATL@@AAV23@V23@@Z ; CDataConverter::Parser
  005c0	83 c4 0c	 add	 esp, 12			; 0000000cH
  005c3	50		 push	 eax
  005c4	8d 8d c8 fb ff
	ff		 lea	 ecx, DWORD PTR _strNode$[ebp]
  005ca	c6 45 fc 0e	 mov	 BYTE PTR __$EHRec$[ebp+8], 14 ; 0000000eH
  005ce	ff 15 00 00 00
	00		 call	 DWORD PTR __imp_??4?$CStringT@DV?$StrTraitMFC_DLL@DV?$ChTraitsCRT@D@ATL@@@@@ATL@@QAEAAV01@ABV01@@Z
  005d4	8d 8d cc fb ff
	ff		 lea	 ecx, DWORD PTR $T30[ebp]
  005da	c6 45 fc 01	 mov	 BYTE PTR __$EHRec$[ebp+8], 1
  005de	ff 15 00 00 00
	00		 call	 DWORD PTR __imp_??1?$CStringT@DV?$StrTraitMFC_DLL@DV?$ChTraitsCRT@D@ATL@@@@@ATL@@QAE@XZ

; 175  : 	strNode.Remove(_T('-'));

  005e4	6a 2d		 push	 45			; 0000002dH
  005e6	8d 8d c8 fb ff
	ff		 lea	 ecx, DWORD PTR _strNode$[ebp]
  005ec	ff 15 00 00 00
	00		 call	 DWORD PTR __imp_?Remove@?$CStringT@DV?$StrTraitMFC_DLL@DV?$ChTraitsCRT@D@ATL@@@@@ATL@@QAEHD@Z
; File C:\Program Files (x86)\Microsoft Visual Studio\2019\Community\VC\Tools\MSVC\14.29.30133\atlmfc\include\atlsimpstr.h

; 519  : 		return( GetData()->nDataLength );

  005f2	8b 85 c8 fb ff
	ff		 mov	 eax, DWORD PTR _strNode$[ebp]
; File D:\git\src\IBK\IBK_DRFN\ProjSrc\SrcDrfn\DrCommon\PartnerMng\ChartItemSHoga.cpp

; 176  : 	memcpy(stOut.offerho2, strNode, min(strNode.GetLength(), sizeof(stOut.offerho2)));

  005f8	8b d3		 mov	 edx, ebx
  005fa	39 50 f4	 cmp	 DWORD PTR [eax-12], edx
  005fd	0f 42 50 f4	 cmovb	 edx, DWORD PTR [eax-12]
  00601	52		 push	 edx
  00602	50		 push	 eax
  00603	8d 85 5e fc ff
	ff		 lea	 eax, DWORD PTR _stOut$[ebp+142]
  00609	50		 push	 eax
  0060a	e8 00 00 00 00	 call	 _memcpy

; 177  : 
; 178  : 	strNode = CDataConverter::Parser(strSrc, sCELL);	// 매도잔량2

  0060f	83 c4 08	 add	 esp, 8
  00612	8b cc		 mov	 ecx, esp
  00614	57		 push	 edi
  00615	6a 09		 push	 9
  00617	ff 15 00 00 00
	00		 call	 DWORD PTR __imp_??0?$CStringT@DV?$StrTraitMFC_DLL@DV?$ChTraitsCRT@D@ATL@@@@@ATL@@QAE@DH@Z
  0061d	8d 85 c4 fb ff
	ff		 lea	 eax, DWORD PTR _strSrc$[ebp]
  00623	50		 push	 eax
  00624	8d 85 cc fb ff
	ff		 lea	 eax, DWORD PTR $T29[ebp]
  0062a	50		 push	 eax
  0062b	e8 00 00 00 00	 call	 ?Parser@CDataConverter@@SA?AV?$CStringT@DV?$StrTraitMFC_DLL@DV?$ChTraitsCRT@D@ATL@@@@@ATL@@AAV23@V23@@Z ; CDataConverter::Parser
  00630	83 c4 0c	 add	 esp, 12			; 0000000cH
  00633	50		 push	 eax
  00634	8d 8d c8 fb ff
	ff		 lea	 ecx, DWORD PTR _strNode$[ebp]
  0063a	c6 45 fc 0f	 mov	 BYTE PTR __$EHRec$[ebp+8], 15 ; 0000000fH
  0063e	ff 15 00 00 00
	00		 call	 DWORD PTR __imp_??4?$CStringT@DV?$StrTraitMFC_DLL@DV?$ChTraitsCRT@D@ATL@@@@@ATL@@QAEAAV01@ABV01@@Z
  00644	8d 8d cc fb ff
	ff		 lea	 ecx, DWORD PTR $T29[ebp]
  0064a	c6 45 fc 01	 mov	 BYTE PTR __$EHRec$[ebp+8], 1
  0064e	ff 15 00 00 00
	00		 call	 DWORD PTR __imp_??1?$CStringT@DV?$StrTraitMFC_DLL@DV?$ChTraitsCRT@D@ATL@@@@@ATL@@QAE@XZ

; 179  : 	strNode.Remove(_T('-'));

  00654	6a 2d		 push	 45			; 0000002dH
  00656	8d 8d c8 fb ff
	ff		 lea	 ecx, DWORD PTR _strNode$[ebp]
  0065c	ff 15 00 00 00
	00		 call	 DWORD PTR __imp_?Remove@?$CStringT@DV?$StrTraitMFC_DLL@DV?$ChTraitsCRT@D@ATL@@@@@ATL@@QAEHD@Z
; File C:\Program Files (x86)\Microsoft Visual Studio\2019\Community\VC\Tools\MSVC\14.29.30133\atlmfc\include\atlsimpstr.h

; 519  : 		return( GetData()->nDataLength );

  00662	8b 85 c8 fb ff
	ff		 mov	 eax, DWORD PTR _strNode$[ebp]
; File D:\git\src\IBK\IBK_DRFN\ProjSrc\SrcDrfn\DrCommon\PartnerMng\ChartItemSHoga.cpp

; 180  : 	memcpy(stOut.offerrem2, strNode, min(strNode.GetLength(), sizeof(stOut.offerrem2)));

  00668	8b d3		 mov	 edx, ebx
  0066a	39 50 f4	 cmp	 DWORD PTR [eax-12], edx
  0066d	0f 42 50 f4	 cmovb	 edx, DWORD PTR [eax-12]
  00671	52		 push	 edx
  00672	50		 push	 eax
  00673	8d 85 67 fc ff
	ff		 lea	 eax, DWORD PTR _stOut$[ebp+151]
  00679	50		 push	 eax
  0067a	e8 00 00 00 00	 call	 _memcpy

; 181  : 
; 182  : 	strNode = CDataConverter::Parser(strSrc, sCELL);	// 매도호가3

  0067f	83 c4 08	 add	 esp, 8
  00682	8b cc		 mov	 ecx, esp
  00684	57		 push	 edi
  00685	6a 09		 push	 9
  00687	ff 15 00 00 00
	00		 call	 DWORD PTR __imp_??0?$CStringT@DV?$StrTraitMFC_DLL@DV?$ChTraitsCRT@D@ATL@@@@@ATL@@QAE@DH@Z
  0068d	8d 85 c4 fb ff
	ff		 lea	 eax, DWORD PTR _strSrc$[ebp]
  00693	50		 push	 eax
  00694	8d 85 cc fb ff
	ff		 lea	 eax, DWORD PTR $T28[ebp]
  0069a	50		 push	 eax
  0069b	e8 00 00 00 00	 call	 ?Parser@CDataConverter@@SA?AV?$CStringT@DV?$StrTraitMFC_DLL@DV?$ChTraitsCRT@D@ATL@@@@@ATL@@AAV23@V23@@Z ; CDataConverter::Parser
  006a0	83 c4 0c	 add	 esp, 12			; 0000000cH
  006a3	50		 push	 eax
  006a4	8d 8d c8 fb ff
	ff		 lea	 ecx, DWORD PTR _strNode$[ebp]
  006aa	c6 45 fc 10	 mov	 BYTE PTR __$EHRec$[ebp+8], 16 ; 00000010H
  006ae	ff 15 00 00 00
	00		 call	 DWORD PTR __imp_??4?$CStringT@DV?$StrTraitMFC_DLL@DV?$ChTraitsCRT@D@ATL@@@@@ATL@@QAEAAV01@ABV01@@Z
  006b4	8d 8d cc fb ff
	ff		 lea	 ecx, DWORD PTR $T28[ebp]
  006ba	c6 45 fc 01	 mov	 BYTE PTR __$EHRec$[ebp+8], 1
  006be	ff 15 00 00 00
	00		 call	 DWORD PTR __imp_??1?$CStringT@DV?$StrTraitMFC_DLL@DV?$ChTraitsCRT@D@ATL@@@@@ATL@@QAE@XZ

; 183  : 	strNode.Remove(_T('-'));

  006c4	6a 2d		 push	 45			; 0000002dH
  006c6	8d 8d c8 fb ff
	ff		 lea	 ecx, DWORD PTR _strNode$[ebp]
  006cc	ff 15 00 00 00
	00		 call	 DWORD PTR __imp_?Remove@?$CStringT@DV?$StrTraitMFC_DLL@DV?$ChTraitsCRT@D@ATL@@@@@ATL@@QAEHD@Z
; File C:\Program Files (x86)\Microsoft Visual Studio\2019\Community\VC\Tools\MSVC\14.29.30133\atlmfc\include\atlsimpstr.h

; 519  : 		return( GetData()->nDataLength );

  006d2	8b 85 c8 fb ff
	ff		 mov	 eax, DWORD PTR _strNode$[ebp]
; File D:\git\src\IBK\IBK_DRFN\ProjSrc\SrcDrfn\DrCommon\PartnerMng\ChartItemSHoga.cpp

; 184  : 	memcpy(stOut.offerho3, strNode, min(strNode.GetLength(), sizeof(stOut.offerho3)));

  006d8	8b d3		 mov	 edx, ebx
  006da	39 50 f4	 cmp	 DWORD PTR [eax-12], edx
  006dd	0f 42 50 f4	 cmovb	 edx, DWORD PTR [eax-12]
  006e1	52		 push	 edx
  006e2	50		 push	 eax
  006e3	8d 85 79 fc ff
	ff		 lea	 eax, DWORD PTR _stOut$[ebp+169]
  006e9	50		 push	 eax
  006ea	e8 00 00 00 00	 call	 _memcpy

; 185  : 
; 186  : 	strNode = CDataConverter::Parser(strSrc, sCELL);	// 매도잔량3

  006ef	83 c4 08	 add	 esp, 8
  006f2	8b cc		 mov	 ecx, esp
  006f4	57		 push	 edi
  006f5	6a 09		 push	 9
  006f7	ff 15 00 00 00
	00		 call	 DWORD PTR __imp_??0?$CStringT@DV?$StrTraitMFC_DLL@DV?$ChTraitsCRT@D@ATL@@@@@ATL@@QAE@DH@Z
  006fd	8d 85 c4 fb ff
	ff		 lea	 eax, DWORD PTR _strSrc$[ebp]
  00703	50		 push	 eax
  00704	8d 85 cc fb ff
	ff		 lea	 eax, DWORD PTR $T27[ebp]
  0070a	50		 push	 eax
  0070b	e8 00 00 00 00	 call	 ?Parser@CDataConverter@@SA?AV?$CStringT@DV?$StrTraitMFC_DLL@DV?$ChTraitsCRT@D@ATL@@@@@ATL@@AAV23@V23@@Z ; CDataConverter::Parser
  00710	83 c4 0c	 add	 esp, 12			; 0000000cH
  00713	50		 push	 eax
  00714	8d 8d c8 fb ff
	ff		 lea	 ecx, DWORD PTR _strNode$[ebp]
  0071a	c6 45 fc 11	 mov	 BYTE PTR __$EHRec$[ebp+8], 17 ; 00000011H
  0071e	ff 15 00 00 00
	00		 call	 DWORD PTR __imp_??4?$CStringT@DV?$StrTraitMFC_DLL@DV?$ChTraitsCRT@D@ATL@@@@@ATL@@QAEAAV01@ABV01@@Z
  00724	8d 8d cc fb ff
	ff		 lea	 ecx, DWORD PTR $T27[ebp]
  0072a	c6 45 fc 01	 mov	 BYTE PTR __$EHRec$[ebp+8], 1
  0072e	ff 15 00 00 00
	00		 call	 DWORD PTR __imp_??1?$CStringT@DV?$StrTraitMFC_DLL@DV?$ChTraitsCRT@D@ATL@@@@@ATL@@QAE@XZ

; 187  : 	strNode.Remove(_T('-'));

  00734	6a 2d		 push	 45			; 0000002dH
  00736	8d 8d c8 fb ff
	ff		 lea	 ecx, DWORD PTR _strNode$[ebp]
  0073c	ff 15 00 00 00
	00		 call	 DWORD PTR __imp_?Remove@?$CStringT@DV?$StrTraitMFC_DLL@DV?$ChTraitsCRT@D@ATL@@@@@ATL@@QAEHD@Z
; File C:\Program Files (x86)\Microsoft Visual Studio\2019\Community\VC\Tools\MSVC\14.29.30133\atlmfc\include\atlsimpstr.h

; 519  : 		return( GetData()->nDataLength );

  00742	8b 85 c8 fb ff
	ff		 mov	 eax, DWORD PTR _strNode$[ebp]
; File D:\git\src\IBK\IBK_DRFN\ProjSrc\SrcDrfn\DrCommon\PartnerMng\ChartItemSHoga.cpp

; 188  : 	memcpy(stOut.offerrem3, strNode, min(strNode.GetLength(), sizeof(stOut.offerrem3)));

  00748	8b d3		 mov	 edx, ebx
  0074a	39 50 f4	 cmp	 DWORD PTR [eax-12], edx
  0074d	0f 42 50 f4	 cmovb	 edx, DWORD PTR [eax-12]
  00751	52		 push	 edx
  00752	50		 push	 eax
  00753	8d 85 82 fc ff
	ff		 lea	 eax, DWORD PTR _stOut$[ebp+178]
  00759	50		 push	 eax
  0075a	e8 00 00 00 00	 call	 _memcpy

; 189  : 
; 190  : 	strNode = CDataConverter::Parser(strSrc, sCELL);	// 매도호가4

  0075f	83 c4 08	 add	 esp, 8
  00762	8b cc		 mov	 ecx, esp
  00764	57		 push	 edi
  00765	6a 09		 push	 9
  00767	ff 15 00 00 00
	00		 call	 DWORD PTR __imp_??0?$CStringT@DV?$StrTraitMFC_DLL@DV?$ChTraitsCRT@D@ATL@@@@@ATL@@QAE@DH@Z
  0076d	8d 85 c4 fb ff
	ff		 lea	 eax, DWORD PTR _strSrc$[ebp]
  00773	50		 push	 eax
  00774	8d 85 cc fb ff
	ff		 lea	 eax, DWORD PTR $T26[ebp]
  0077a	50		 push	 eax
  0077b	e8 00 00 00 00	 call	 ?Parser@CDataConverter@@SA?AV?$CStringT@DV?$StrTraitMFC_DLL@DV?$ChTraitsCRT@D@ATL@@@@@ATL@@AAV23@V23@@Z ; CDataConverter::Parser
  00780	83 c4 0c	 add	 esp, 12			; 0000000cH
  00783	50		 push	 eax
  00784	8d 8d c8 fb ff
	ff		 lea	 ecx, DWORD PTR _strNode$[ebp]
  0078a	c6 45 fc 12	 mov	 BYTE PTR __$EHRec$[ebp+8], 18 ; 00000012H
  0078e	ff 15 00 00 00
	00		 call	 DWORD PTR __imp_??4?$CStringT@DV?$StrTraitMFC_DLL@DV?$ChTraitsCRT@D@ATL@@@@@ATL@@QAEAAV01@ABV01@@Z
  00794	8d 8d cc fb ff
	ff		 lea	 ecx, DWORD PTR $T26[ebp]
  0079a	c6 45 fc 01	 mov	 BYTE PTR __$EHRec$[ebp+8], 1
  0079e	ff 15 00 00 00
	00		 call	 DWORD PTR __imp_??1?$CStringT@DV?$StrTraitMFC_DLL@DV?$ChTraitsCRT@D@ATL@@@@@ATL@@QAE@XZ

; 191  : 	strNode.Remove(_T('-'));

  007a4	6a 2d		 push	 45			; 0000002dH
  007a6	8d 8d c8 fb ff
	ff		 lea	 ecx, DWORD PTR _strNode$[ebp]
  007ac	ff 15 00 00 00
	00		 call	 DWORD PTR __imp_?Remove@?$CStringT@DV?$StrTraitMFC_DLL@DV?$ChTraitsCRT@D@ATL@@@@@ATL@@QAEHD@Z
; File C:\Program Files (x86)\Microsoft Visual Studio\2019\Community\VC\Tools\MSVC\14.29.30133\atlmfc\include\atlsimpstr.h

; 519  : 		return( GetData()->nDataLength );

  007b2	8b 85 c8 fb ff
	ff		 mov	 eax, DWORD PTR _strNode$[ebp]
; File D:\git\src\IBK\IBK_DRFN\ProjSrc\SrcDrfn\DrCommon\PartnerMng\ChartItemSHoga.cpp

; 192  : 	memcpy(stOut.offerho4, strNode, min(strNode.GetLength(), sizeof(stOut.offerho4)));

  007b8	8b d3		 mov	 edx, ebx
  007ba	39 50 f4	 cmp	 DWORD PTR [eax-12], edx
  007bd	0f 42 50 f4	 cmovb	 edx, DWORD PTR [eax-12]
  007c1	52		 push	 edx
  007c2	50		 push	 eax
  007c3	8d 85 94 fc ff
	ff		 lea	 eax, DWORD PTR _stOut$[ebp+196]
  007c9	50		 push	 eax
  007ca	e8 00 00 00 00	 call	 _memcpy

; 193  : 
; 194  : 	strNode = CDataConverter::Parser(strSrc, sCELL);	// 매도잔량4

  007cf	83 c4 08	 add	 esp, 8
  007d2	8b cc		 mov	 ecx, esp
  007d4	57		 push	 edi
  007d5	6a 09		 push	 9
  007d7	ff 15 00 00 00
	00		 call	 DWORD PTR __imp_??0?$CStringT@DV?$StrTraitMFC_DLL@DV?$ChTraitsCRT@D@ATL@@@@@ATL@@QAE@DH@Z
  007dd	8d 85 c4 fb ff
	ff		 lea	 eax, DWORD PTR _strSrc$[ebp]
  007e3	50		 push	 eax
  007e4	8d 85 cc fb ff
	ff		 lea	 eax, DWORD PTR $T25[ebp]
  007ea	50		 push	 eax
  007eb	e8 00 00 00 00	 call	 ?Parser@CDataConverter@@SA?AV?$CStringT@DV?$StrTraitMFC_DLL@DV?$ChTraitsCRT@D@ATL@@@@@ATL@@AAV23@V23@@Z ; CDataConverter::Parser
  007f0	83 c4 0c	 add	 esp, 12			; 0000000cH
  007f3	50		 push	 eax
  007f4	8d 8d c8 fb ff
	ff		 lea	 ecx, DWORD PTR _strNode$[ebp]
  007fa	c6 45 fc 13	 mov	 BYTE PTR __$EHRec$[ebp+8], 19 ; 00000013H
  007fe	ff 15 00 00 00
	00		 call	 DWORD PTR __imp_??4?$CStringT@DV?$StrTraitMFC_DLL@DV?$ChTraitsCRT@D@ATL@@@@@ATL@@QAEAAV01@ABV01@@Z
  00804	8d 8d cc fb ff
	ff		 lea	 ecx, DWORD PTR $T25[ebp]
  0080a	c6 45 fc 01	 mov	 BYTE PTR __$EHRec$[ebp+8], 1
  0080e	ff 15 00 00 00
	00		 call	 DWORD PTR __imp_??1?$CStringT@DV?$StrTraitMFC_DLL@DV?$ChTraitsCRT@D@ATL@@@@@ATL@@QAE@XZ

; 195  : 	strNode.Remove(_T('-'));

  00814	6a 2d		 push	 45			; 0000002dH
  00816	8d 8d c8 fb ff
	ff		 lea	 ecx, DWORD PTR _strNode$[ebp]
  0081c	ff 15 00 00 00
	00		 call	 DWORD PTR __imp_?Remove@?$CStringT@DV?$StrTraitMFC_DLL@DV?$ChTraitsCRT@D@ATL@@@@@ATL@@QAEHD@Z
; File C:\Program Files (x86)\Microsoft Visual Studio\2019\Community\VC\Tools\MSVC\14.29.30133\atlmfc\include\atlsimpstr.h

; 519  : 		return( GetData()->nDataLength );

  00822	8b 85 c8 fb ff
	ff		 mov	 eax, DWORD PTR _strNode$[ebp]
; File D:\git\src\IBK\IBK_DRFN\ProjSrc\SrcDrfn\DrCommon\PartnerMng\ChartItemSHoga.cpp

; 196  : 	memcpy(stOut.offerrem4, strNode, min(strNode.GetLength(), sizeof(stOut.offerrem4)));

  00828	8b d3		 mov	 edx, ebx
  0082a	39 50 f4	 cmp	 DWORD PTR [eax-12], edx
  0082d	0f 42 50 f4	 cmovb	 edx, DWORD PTR [eax-12]
  00831	52		 push	 edx
  00832	50		 push	 eax
  00833	8d 85 9d fc ff
	ff		 lea	 eax, DWORD PTR _stOut$[ebp+205]
  00839	50		 push	 eax
  0083a	e8 00 00 00 00	 call	 _memcpy

; 197  : 
; 198  : 	strNode = CDataConverter::Parser(strSrc, sCELL);	// 매도호가5

  0083f	83 c4 08	 add	 esp, 8
  00842	8b cc		 mov	 ecx, esp
  00844	57		 push	 edi
  00845	6a 09		 push	 9
  00847	ff 15 00 00 00
	00		 call	 DWORD PTR __imp_??0?$CStringT@DV?$StrTraitMFC_DLL@DV?$ChTraitsCRT@D@ATL@@@@@ATL@@QAE@DH@Z
  0084d	8d 85 c4 fb ff
	ff		 lea	 eax, DWORD PTR _strSrc$[ebp]
  00853	50		 push	 eax
  00854	8d 85 cc fb ff
	ff		 lea	 eax, DWORD PTR $T24[ebp]
  0085a	50		 push	 eax
  0085b	e8 00 00 00 00	 call	 ?Parser@CDataConverter@@SA?AV?$CStringT@DV?$StrTraitMFC_DLL@DV?$ChTraitsCRT@D@ATL@@@@@ATL@@AAV23@V23@@Z ; CDataConverter::Parser
  00860	83 c4 0c	 add	 esp, 12			; 0000000cH
  00863	50		 push	 eax
  00864	8d 8d c8 fb ff
	ff		 lea	 ecx, DWORD PTR _strNode$[ebp]
  0086a	c6 45 fc 14	 mov	 BYTE PTR __$EHRec$[ebp+8], 20 ; 00000014H
  0086e	ff 15 00 00 00
	00		 call	 DWORD PTR __imp_??4?$CStringT@DV?$StrTraitMFC_DLL@DV?$ChTraitsCRT@D@ATL@@@@@ATL@@QAEAAV01@ABV01@@Z
  00874	8d 8d cc fb ff
	ff		 lea	 ecx, DWORD PTR $T24[ebp]
  0087a	c6 45 fc 01	 mov	 BYTE PTR __$EHRec$[ebp+8], 1
  0087e	ff 15 00 00 00
	00		 call	 DWORD PTR __imp_??1?$CStringT@DV?$StrTraitMFC_DLL@DV?$ChTraitsCRT@D@ATL@@@@@ATL@@QAE@XZ

; 199  : 	strNode.Remove(_T('-'));

  00884	6a 2d		 push	 45			; 0000002dH
  00886	8d 8d c8 fb ff
	ff		 lea	 ecx, DWORD PTR _strNode$[ebp]
  0088c	ff 15 00 00 00
	00		 call	 DWORD PTR __imp_?Remove@?$CStringT@DV?$StrTraitMFC_DLL@DV?$ChTraitsCRT@D@ATL@@@@@ATL@@QAEHD@Z
; File C:\Program Files (x86)\Microsoft Visual Studio\2019\Community\VC\Tools\MSVC\14.29.30133\atlmfc\include\atlsimpstr.h

; 519  : 		return( GetData()->nDataLength );

  00892	8b 85 c8 fb ff
	ff		 mov	 eax, DWORD PTR _strNode$[ebp]
; File D:\git\src\IBK\IBK_DRFN\ProjSrc\SrcDrfn\DrCommon\PartnerMng\ChartItemSHoga.cpp

; 200  : 	memcpy(stOut.offerho5, strNode, min(strNode.GetLength(), sizeof(stOut.offerho5)));

  00898	8b d3		 mov	 edx, ebx
  0089a	39 50 f4	 cmp	 DWORD PTR [eax-12], edx
  0089d	0f 42 50 f4	 cmovb	 edx, DWORD PTR [eax-12]
  008a1	52		 push	 edx
  008a2	50		 push	 eax
  008a3	8d 85 af fc ff
	ff		 lea	 eax, DWORD PTR _stOut$[ebp+223]
  008a9	50		 push	 eax
  008aa	e8 00 00 00 00	 call	 _memcpy

; 201  : 
; 202  : 	strNode = CDataConverter::Parser(strSrc, sCELL);	// 매도잔량5

  008af	83 c4 08	 add	 esp, 8
  008b2	8b cc		 mov	 ecx, esp
  008b4	57		 push	 edi
  008b5	6a 09		 push	 9
  008b7	ff 15 00 00 00
	00		 call	 DWORD PTR __imp_??0?$CStringT@DV?$StrTraitMFC_DLL@DV?$ChTraitsCRT@D@ATL@@@@@ATL@@QAE@DH@Z
  008bd	8d 85 c4 fb ff
	ff		 lea	 eax, DWORD PTR _strSrc$[ebp]
  008c3	50		 push	 eax
  008c4	8d 85 cc fb ff
	ff		 lea	 eax, DWORD PTR $T23[ebp]
  008ca	50		 push	 eax
  008cb	e8 00 00 00 00	 call	 ?Parser@CDataConverter@@SA?AV?$CStringT@DV?$StrTraitMFC_DLL@DV?$ChTraitsCRT@D@ATL@@@@@ATL@@AAV23@V23@@Z ; CDataConverter::Parser
  008d0	83 c4 0c	 add	 esp, 12			; 0000000cH
  008d3	50		 push	 eax
  008d4	8d 8d c8 fb ff
	ff		 lea	 ecx, DWORD PTR _strNode$[ebp]
  008da	c6 45 fc 15	 mov	 BYTE PTR __$EHRec$[ebp+8], 21 ; 00000015H
  008de	ff 15 00 00 00
	00		 call	 DWORD PTR __imp_??4?$CStringT@DV?$StrTraitMFC_DLL@DV?$ChTraitsCRT@D@ATL@@@@@ATL@@QAEAAV01@ABV01@@Z
  008e4	8d 8d cc fb ff
	ff		 lea	 ecx, DWORD PTR $T23[ebp]
  008ea	c6 45 fc 01	 mov	 BYTE PTR __$EHRec$[ebp+8], 1
  008ee	ff 15 00 00 00
	00		 call	 DWORD PTR __imp_??1?$CStringT@DV?$StrTraitMFC_DLL@DV?$ChTraitsCRT@D@ATL@@@@@ATL@@QAE@XZ

; 203  : 	strNode.Remove(_T('-'));

  008f4	6a 2d		 push	 45			; 0000002dH
  008f6	8d 8d c8 fb ff
	ff		 lea	 ecx, DWORD PTR _strNode$[ebp]
  008fc	ff 15 00 00 00
	00		 call	 DWORD PTR __imp_?Remove@?$CStringT@DV?$StrTraitMFC_DLL@DV?$ChTraitsCRT@D@ATL@@@@@ATL@@QAEHD@Z
; File C:\Program Files (x86)\Microsoft Visual Studio\2019\Community\VC\Tools\MSVC\14.29.30133\atlmfc\include\atlsimpstr.h

; 519  : 		return( GetData()->nDataLength );

  00902	8b 85 c8 fb ff
	ff		 mov	 eax, DWORD PTR _strNode$[ebp]
; File D:\git\src\IBK\IBK_DRFN\ProjSrc\SrcDrfn\DrCommon\PartnerMng\ChartItemSHoga.cpp

; 204  : 	memcpy(stOut.offerrem5, strNode, min(strNode.GetLength(), sizeof(stOut.offerrem5)));

  00908	8b d3		 mov	 edx, ebx
  0090a	39 50 f4	 cmp	 DWORD PTR [eax-12], edx
  0090d	0f 42 50 f4	 cmovb	 edx, DWORD PTR [eax-12]
  00911	52		 push	 edx
  00912	50		 push	 eax
  00913	8d 85 b8 fc ff
	ff		 lea	 eax, DWORD PTR _stOut$[ebp+232]
  00919	50		 push	 eax
  0091a	e8 00 00 00 00	 call	 _memcpy

; 205  : 
; 206  : 	strNode = CDataConverter::Parser(strSrc, sCELL);	// 매수호가1

  0091f	83 c4 08	 add	 esp, 8
  00922	8b cc		 mov	 ecx, esp
  00924	57		 push	 edi
  00925	6a 09		 push	 9
  00927	ff 15 00 00 00
	00		 call	 DWORD PTR __imp_??0?$CStringT@DV?$StrTraitMFC_DLL@DV?$ChTraitsCRT@D@ATL@@@@@ATL@@QAE@DH@Z
  0092d	8d 85 c4 fb ff
	ff		 lea	 eax, DWORD PTR _strSrc$[ebp]
  00933	50		 push	 eax
  00934	8d 85 cc fb ff
	ff		 lea	 eax, DWORD PTR $T22[ebp]
  0093a	50		 push	 eax
  0093b	e8 00 00 00 00	 call	 ?Parser@CDataConverter@@SA?AV?$CStringT@DV?$StrTraitMFC_DLL@DV?$ChTraitsCRT@D@ATL@@@@@ATL@@AAV23@V23@@Z ; CDataConverter::Parser
  00940	83 c4 0c	 add	 esp, 12			; 0000000cH
  00943	50		 push	 eax
  00944	8d 8d c8 fb ff
	ff		 lea	 ecx, DWORD PTR _strNode$[ebp]
  0094a	c6 45 fc 16	 mov	 BYTE PTR __$EHRec$[ebp+8], 22 ; 00000016H
  0094e	ff 15 00 00 00
	00		 call	 DWORD PTR __imp_??4?$CStringT@DV?$StrTraitMFC_DLL@DV?$ChTraitsCRT@D@ATL@@@@@ATL@@QAEAAV01@ABV01@@Z
  00954	c6 45 fc 01	 mov	 BYTE PTR __$EHRec$[ebp+8], 1
  00958	8d 8d cc fb ff
	ff		 lea	 ecx, DWORD PTR $T22[ebp]
  0095e	ff 15 00 00 00
	00		 call	 DWORD PTR __imp_??1?$CStringT@DV?$StrTraitMFC_DLL@DV?$ChTraitsCRT@D@ATL@@@@@ATL@@QAE@XZ

; 207  : 	strNode.Remove(_T('-'));

  00964	6a 2d		 push	 45			; 0000002dH
  00966	8d 8d c8 fb ff
	ff		 lea	 ecx, DWORD PTR _strNode$[ebp]
  0096c	ff 15 00 00 00
	00		 call	 DWORD PTR __imp_?Remove@?$CStringT@DV?$StrTraitMFC_DLL@DV?$ChTraitsCRT@D@ATL@@@@@ATL@@QAEHD@Z
; File C:\Program Files (x86)\Microsoft Visual Studio\2019\Community\VC\Tools\MSVC\14.29.30133\atlmfc\include\atlsimpstr.h

; 519  : 		return( GetData()->nDataLength );

  00972	8b 85 c8 fb ff
	ff		 mov	 eax, DWORD PTR _strNode$[ebp]
; File D:\git\src\IBK\IBK_DRFN\ProjSrc\SrcDrfn\DrCommon\PartnerMng\ChartItemSHoga.cpp

; 208  : 	memcpy(stOut.bidho1, strNode, min(strNode.GetLength(), sizeof(stOut.bidho1)));

  00978	8b d3		 mov	 edx, ebx
  0097a	39 50 f4	 cmp	 DWORD PTR [eax-12], edx
  0097d	0f 42 50 f4	 cmovb	 edx, DWORD PTR [eax-12]
  00981	52		 push	 edx
  00982	50		 push	 eax
  00983	8d 85 51 fd ff
	ff		 lea	 eax, DWORD PTR _stOut$[ebp+385]
  00989	50		 push	 eax
  0098a	e8 00 00 00 00	 call	 _memcpy

; 209  : 
; 210  : 	strNode = CDataConverter::Parser(strSrc, sCELL);	// 매수잔량1

  0098f	83 c4 08	 add	 esp, 8
  00992	8b cc		 mov	 ecx, esp
  00994	57		 push	 edi
  00995	6a 09		 push	 9
  00997	ff 15 00 00 00
	00		 call	 DWORD PTR __imp_??0?$CStringT@DV?$StrTraitMFC_DLL@DV?$ChTraitsCRT@D@ATL@@@@@ATL@@QAE@DH@Z
  0099d	8d 85 c4 fb ff
	ff		 lea	 eax, DWORD PTR _strSrc$[ebp]
  009a3	50		 push	 eax
  009a4	8d 85 cc fb ff
	ff		 lea	 eax, DWORD PTR $T21[ebp]
  009aa	50		 push	 eax
  009ab	e8 00 00 00 00	 call	 ?Parser@CDataConverter@@SA?AV?$CStringT@DV?$StrTraitMFC_DLL@DV?$ChTraitsCRT@D@ATL@@@@@ATL@@AAV23@V23@@Z ; CDataConverter::Parser
  009b0	83 c4 0c	 add	 esp, 12			; 0000000cH
  009b3	50		 push	 eax
  009b4	8d 8d c8 fb ff
	ff		 lea	 ecx, DWORD PTR _strNode$[ebp]
  009ba	c6 45 fc 17	 mov	 BYTE PTR __$EHRec$[ebp+8], 23 ; 00000017H
  009be	ff 15 00 00 00
	00		 call	 DWORD PTR __imp_??4?$CStringT@DV?$StrTraitMFC_DLL@DV?$ChTraitsCRT@D@ATL@@@@@ATL@@QAEAAV01@ABV01@@Z
  009c4	8d 8d cc fb ff
	ff		 lea	 ecx, DWORD PTR $T21[ebp]
  009ca	c6 45 fc 01	 mov	 BYTE PTR __$EHRec$[ebp+8], 1
  009ce	ff 15 00 00 00
	00		 call	 DWORD PTR __imp_??1?$CStringT@DV?$StrTraitMFC_DLL@DV?$ChTraitsCRT@D@ATL@@@@@ATL@@QAE@XZ

; 211  : 	strNode.Remove(_T('-'));

  009d4	6a 2d		 push	 45			; 0000002dH
  009d6	8d 8d c8 fb ff
	ff		 lea	 ecx, DWORD PTR _strNode$[ebp]
  009dc	ff 15 00 00 00
	00		 call	 DWORD PTR __imp_?Remove@?$CStringT@DV?$StrTraitMFC_DLL@DV?$ChTraitsCRT@D@ATL@@@@@ATL@@QAEHD@Z
; File C:\Program Files (x86)\Microsoft Visual Studio\2019\Community\VC\Tools\MSVC\14.29.30133\atlmfc\include\atlsimpstr.h

; 519  : 		return( GetData()->nDataLength );

  009e2	8b 85 c8 fb ff
	ff		 mov	 eax, DWORD PTR _strNode$[ebp]
; File D:\git\src\IBK\IBK_DRFN\ProjSrc\SrcDrfn\DrCommon\PartnerMng\ChartItemSHoga.cpp

; 212  : 	memcpy(stOut.bidrem1, strNode, min(strNode.GetLength(), sizeof(stOut.bidrem1)));

  009e8	8b d3		 mov	 edx, ebx
  009ea	39 50 f4	 cmp	 DWORD PTR [eax-12], edx
  009ed	0f 42 50 f4	 cmovb	 edx, DWORD PTR [eax-12]
  009f1	52		 push	 edx
  009f2	50		 push	 eax
  009f3	8d 85 5a fd ff
	ff		 lea	 eax, DWORD PTR _stOut$[ebp+394]
  009f9	50		 push	 eax
  009fa	e8 00 00 00 00	 call	 _memcpy

; 213  : 
; 214  : 	strNode = CDataConverter::Parser(strSrc, sCELL);	// 매수호가2

  009ff	83 c4 08	 add	 esp, 8
  00a02	8b cc		 mov	 ecx, esp
  00a04	57		 push	 edi
  00a05	6a 09		 push	 9
  00a07	ff 15 00 00 00
	00		 call	 DWORD PTR __imp_??0?$CStringT@DV?$StrTraitMFC_DLL@DV?$ChTraitsCRT@D@ATL@@@@@ATL@@QAE@DH@Z
  00a0d	8d 85 c4 fb ff
	ff		 lea	 eax, DWORD PTR _strSrc$[ebp]
  00a13	50		 push	 eax
  00a14	8d 85 cc fb ff
	ff		 lea	 eax, DWORD PTR $T20[ebp]
  00a1a	50		 push	 eax
  00a1b	e8 00 00 00 00	 call	 ?Parser@CDataConverter@@SA?AV?$CStringT@DV?$StrTraitMFC_DLL@DV?$ChTraitsCRT@D@ATL@@@@@ATL@@AAV23@V23@@Z ; CDataConverter::Parser
  00a20	83 c4 0c	 add	 esp, 12			; 0000000cH
  00a23	50		 push	 eax
  00a24	8d 8d c8 fb ff
	ff		 lea	 ecx, DWORD PTR _strNode$[ebp]
  00a2a	c6 45 fc 18	 mov	 BYTE PTR __$EHRec$[ebp+8], 24 ; 00000018H
  00a2e	ff 15 00 00 00
	00		 call	 DWORD PTR __imp_??4?$CStringT@DV?$StrTraitMFC_DLL@DV?$ChTraitsCRT@D@ATL@@@@@ATL@@QAEAAV01@ABV01@@Z
  00a34	8d 8d cc fb ff
	ff		 lea	 ecx, DWORD PTR $T20[ebp]
  00a3a	c6 45 fc 01	 mov	 BYTE PTR __$EHRec$[ebp+8], 1
  00a3e	ff 15 00 00 00
	00		 call	 DWORD PTR __imp_??1?$CStringT@DV?$StrTraitMFC_DLL@DV?$ChTraitsCRT@D@ATL@@@@@ATL@@QAE@XZ

; 215  : 	strNode.Remove(_T('-'));

  00a44	6a 2d		 push	 45			; 0000002dH
  00a46	8d 8d c8 fb ff
	ff		 lea	 ecx, DWORD PTR _strNode$[ebp]
  00a4c	ff 15 00 00 00
	00		 call	 DWORD PTR __imp_?Remove@?$CStringT@DV?$StrTraitMFC_DLL@DV?$ChTraitsCRT@D@ATL@@@@@ATL@@QAEHD@Z
; File C:\Program Files (x86)\Microsoft Visual Studio\2019\Community\VC\Tools\MSVC\14.29.30133\atlmfc\include\atlsimpstr.h

; 519  : 		return( GetData()->nDataLength );

  00a52	8b 85 c8 fb ff
	ff		 mov	 eax, DWORD PTR _strNode$[ebp]
; File D:\git\src\IBK\IBK_DRFN\ProjSrc\SrcDrfn\DrCommon\PartnerMng\ChartItemSHoga.cpp

; 216  : 	memcpy(stOut.bidho2, strNode, min(strNode.GetLength(), sizeof(stOut.bidho2)));

  00a58	8b d3		 mov	 edx, ebx
  00a5a	39 50 f4	 cmp	 DWORD PTR [eax-12], edx
  00a5d	0f 42 50 f4	 cmovb	 edx, DWORD PTR [eax-12]
  00a61	52		 push	 edx
  00a62	50		 push	 eax
  00a63	8d 85 6c fd ff
	ff		 lea	 eax, DWORD PTR _stOut$[ebp+412]
  00a69	50		 push	 eax
  00a6a	e8 00 00 00 00	 call	 _memcpy

; 217  : 
; 218  : 	strNode = CDataConverter::Parser(strSrc, sCELL);	// 매수잔량2

  00a6f	83 c4 08	 add	 esp, 8
  00a72	8b cc		 mov	 ecx, esp
  00a74	57		 push	 edi
  00a75	6a 09		 push	 9
  00a77	ff 15 00 00 00
	00		 call	 DWORD PTR __imp_??0?$CStringT@DV?$StrTraitMFC_DLL@DV?$ChTraitsCRT@D@ATL@@@@@ATL@@QAE@DH@Z
  00a7d	8d 85 c4 fb ff
	ff		 lea	 eax, DWORD PTR _strSrc$[ebp]
  00a83	50		 push	 eax
  00a84	8d 85 cc fb ff
	ff		 lea	 eax, DWORD PTR $T19[ebp]
  00a8a	50		 push	 eax
  00a8b	e8 00 00 00 00	 call	 ?Parser@CDataConverter@@SA?AV?$CStringT@DV?$StrTraitMFC_DLL@DV?$ChTraitsCRT@D@ATL@@@@@ATL@@AAV23@V23@@Z ; CDataConverter::Parser
  00a90	83 c4 0c	 add	 esp, 12			; 0000000cH
  00a93	50		 push	 eax
  00a94	8d 8d c8 fb ff
	ff		 lea	 ecx, DWORD PTR _strNode$[ebp]
  00a9a	c6 45 fc 19	 mov	 BYTE PTR __$EHRec$[ebp+8], 25 ; 00000019H
  00a9e	ff 15 00 00 00
	00		 call	 DWORD PTR __imp_??4?$CStringT@DV?$StrTraitMFC_DLL@DV?$ChTraitsCRT@D@ATL@@@@@ATL@@QAEAAV01@ABV01@@Z
  00aa4	8d 8d cc fb ff
	ff		 lea	 ecx, DWORD PTR $T19[ebp]
  00aaa	c6 45 fc 01	 mov	 BYTE PTR __$EHRec$[ebp+8], 1
  00aae	ff 15 00 00 00
	00		 call	 DWORD PTR __imp_??1?$CStringT@DV?$StrTraitMFC_DLL@DV?$ChTraitsCRT@D@ATL@@@@@ATL@@QAE@XZ

; 219  : 	strNode.Remove(_T('-'));

  00ab4	6a 2d		 push	 45			; 0000002dH
  00ab6	8d 8d c8 fb ff
	ff		 lea	 ecx, DWORD PTR _strNode$[ebp]
  00abc	ff 15 00 00 00
	00		 call	 DWORD PTR __imp_?Remove@?$CStringT@DV?$StrTraitMFC_DLL@DV?$ChTraitsCRT@D@ATL@@@@@ATL@@QAEHD@Z
; File C:\Program Files (x86)\Microsoft Visual Studio\2019\Community\VC\Tools\MSVC\14.29.30133\atlmfc\include\atlsimpstr.h

; 519  : 		return( GetData()->nDataLength );

  00ac2	8b 85 c8 fb ff
	ff		 mov	 eax, DWORD PTR _strNode$[ebp]
; File D:\git\src\IBK\IBK_DRFN\ProjSrc\SrcDrfn\DrCommon\PartnerMng\ChartItemSHoga.cpp

; 220  : 	memcpy(stOut.bidrem2, strNode, min(strNode.GetLength(), sizeof(stOut.bidrem2)));

  00ac8	8b d3		 mov	 edx, ebx
  00aca	39 50 f4	 cmp	 DWORD PTR [eax-12], edx
  00acd	0f 42 50 f4	 cmovb	 edx, DWORD PTR [eax-12]
  00ad1	52		 push	 edx
  00ad2	50		 push	 eax
  00ad3	8d 85 75 fd ff
	ff		 lea	 eax, DWORD PTR _stOut$[ebp+421]
  00ad9	50		 push	 eax
  00ada	e8 00 00 00 00	 call	 _memcpy

; 221  : 
; 222  : 	strNode = CDataConverter::Parser(strSrc, sCELL);	// 매수호가3

  00adf	83 c4 08	 add	 esp, 8
  00ae2	8b cc		 mov	 ecx, esp
  00ae4	57		 push	 edi
  00ae5	6a 09		 push	 9
  00ae7	ff 15 00 00 00
	00		 call	 DWORD PTR __imp_??0?$CStringT@DV?$StrTraitMFC_DLL@DV?$ChTraitsCRT@D@ATL@@@@@ATL@@QAE@DH@Z
  00aed	8d 85 c4 fb ff
	ff		 lea	 eax, DWORD PTR _strSrc$[ebp]
  00af3	50		 push	 eax
  00af4	8d 85 cc fb ff
	ff		 lea	 eax, DWORD PTR $T18[ebp]
  00afa	50		 push	 eax
  00afb	e8 00 00 00 00	 call	 ?Parser@CDataConverter@@SA?AV?$CStringT@DV?$StrTraitMFC_DLL@DV?$ChTraitsCRT@D@ATL@@@@@ATL@@AAV23@V23@@Z ; CDataConverter::Parser
  00b00	83 c4 0c	 add	 esp, 12			; 0000000cH
  00b03	50		 push	 eax
  00b04	8d 8d c8 fb ff
	ff		 lea	 ecx, DWORD PTR _strNode$[ebp]
  00b0a	c6 45 fc 1a	 mov	 BYTE PTR __$EHRec$[ebp+8], 26 ; 0000001aH
  00b0e	ff 15 00 00 00
	00		 call	 DWORD PTR __imp_??4?$CStringT@DV?$StrTraitMFC_DLL@DV?$ChTraitsCRT@D@ATL@@@@@ATL@@QAEAAV01@ABV01@@Z
  00b14	8d 8d cc fb ff
	ff		 lea	 ecx, DWORD PTR $T18[ebp]
  00b1a	c6 45 fc 01	 mov	 BYTE PTR __$EHRec$[ebp+8], 1
  00b1e	ff 15 00 00 00
	00		 call	 DWORD PTR __imp_??1?$CStringT@DV?$StrTraitMFC_DLL@DV?$ChTraitsCRT@D@ATL@@@@@ATL@@QAE@XZ

; 223  : 	strNode.Remove(_T('-'));

  00b24	6a 2d		 push	 45			; 0000002dH
  00b26	8d 8d c8 fb ff
	ff		 lea	 ecx, DWORD PTR _strNode$[ebp]
  00b2c	ff 15 00 00 00
	00		 call	 DWORD PTR __imp_?Remove@?$CStringT@DV?$StrTraitMFC_DLL@DV?$ChTraitsCRT@D@ATL@@@@@ATL@@QAEHD@Z
; File C:\Program Files (x86)\Microsoft Visual Studio\2019\Community\VC\Tools\MSVC\14.29.30133\atlmfc\include\atlsimpstr.h

; 519  : 		return( GetData()->nDataLength );

  00b32	8b 85 c8 fb ff
	ff		 mov	 eax, DWORD PTR _strNode$[ebp]
; File D:\git\src\IBK\IBK_DRFN\ProjSrc\SrcDrfn\DrCommon\PartnerMng\ChartItemSHoga.cpp

; 224  : 	memcpy(stOut.bidho3, strNode, min(strNode.GetLength(), sizeof(stOut.bidho3)));

  00b38	8b d3		 mov	 edx, ebx
  00b3a	39 50 f4	 cmp	 DWORD PTR [eax-12], edx
  00b3d	0f 42 50 f4	 cmovb	 edx, DWORD PTR [eax-12]
  00b41	52		 push	 edx
  00b42	50		 push	 eax
  00b43	8d 85 87 fd ff
	ff		 lea	 eax, DWORD PTR _stOut$[ebp+439]
  00b49	50		 push	 eax
  00b4a	e8 00 00 00 00	 call	 _memcpy

; 225  : 
; 226  : 	strNode = CDataConverter::Parser(strSrc, sCELL);	// 매수잔량3

  00b4f	83 c4 08	 add	 esp, 8
  00b52	8b cc		 mov	 ecx, esp
  00b54	57		 push	 edi
  00b55	6a 09		 push	 9
  00b57	ff 15 00 00 00
	00		 call	 DWORD PTR __imp_??0?$CStringT@DV?$StrTraitMFC_DLL@DV?$ChTraitsCRT@D@ATL@@@@@ATL@@QAE@DH@Z
  00b5d	8d 85 c4 fb ff
	ff		 lea	 eax, DWORD PTR _strSrc$[ebp]
  00b63	50		 push	 eax
  00b64	8d 85 cc fb ff
	ff		 lea	 eax, DWORD PTR $T17[ebp]
  00b6a	50		 push	 eax
  00b6b	e8 00 00 00 00	 call	 ?Parser@CDataConverter@@SA?AV?$CStringT@DV?$StrTraitMFC_DLL@DV?$ChTraitsCRT@D@ATL@@@@@ATL@@AAV23@V23@@Z ; CDataConverter::Parser
  00b70	83 c4 0c	 add	 esp, 12			; 0000000cH
  00b73	50		 push	 eax
  00b74	8d 8d c8 fb ff
	ff		 lea	 ecx, DWORD PTR _strNode$[ebp]
  00b7a	c6 45 fc 1b	 mov	 BYTE PTR __$EHRec$[ebp+8], 27 ; 0000001bH
  00b7e	ff 15 00 00 00
	00		 call	 DWORD PTR __imp_??4?$CStringT@DV?$StrTraitMFC_DLL@DV?$ChTraitsCRT@D@ATL@@@@@ATL@@QAEAAV01@ABV01@@Z
  00b84	8d 8d cc fb ff
	ff		 lea	 ecx, DWORD PTR $T17[ebp]
  00b8a	c6 45 fc 01	 mov	 BYTE PTR __$EHRec$[ebp+8], 1
  00b8e	ff 15 00 00 00
	00		 call	 DWORD PTR __imp_??1?$CStringT@DV?$StrTraitMFC_DLL@DV?$ChTraitsCRT@D@ATL@@@@@ATL@@QAE@XZ

; 227  : 	strNode.Remove(_T('-'));

  00b94	6a 2d		 push	 45			; 0000002dH
  00b96	8d 8d c8 fb ff
	ff		 lea	 ecx, DWORD PTR _strNode$[ebp]
  00b9c	ff 15 00 00 00
	00		 call	 DWORD PTR __imp_?Remove@?$CStringT@DV?$StrTraitMFC_DLL@DV?$ChTraitsCRT@D@ATL@@@@@ATL@@QAEHD@Z
; File C:\Program Files (x86)\Microsoft Visual Studio\2019\Community\VC\Tools\MSVC\14.29.30133\atlmfc\include\atlsimpstr.h

; 519  : 		return( GetData()->nDataLength );

  00ba2	8b 85 c8 fb ff
	ff		 mov	 eax, DWORD PTR _strNode$[ebp]
; File D:\git\src\IBK\IBK_DRFN\ProjSrc\SrcDrfn\DrCommon\PartnerMng\ChartItemSHoga.cpp

; 228  : 	memcpy(stOut.bidrem3, strNode, min(strNode.GetLength(), sizeof(stOut.bidrem3)));

  00ba8	8b d3		 mov	 edx, ebx
  00baa	39 50 f4	 cmp	 DWORD PTR [eax-12], edx
  00bad	0f 42 50 f4	 cmovb	 edx, DWORD PTR [eax-12]
  00bb1	52		 push	 edx
  00bb2	50		 push	 eax
  00bb3	8d 85 90 fd ff
	ff		 lea	 eax, DWORD PTR _stOut$[ebp+448]
  00bb9	50		 push	 eax
  00bba	e8 00 00 00 00	 call	 _memcpy

; 229  : 
; 230  : 	strNode = CDataConverter::Parser(strSrc, sCELL);	// 매수호가4

  00bbf	83 c4 08	 add	 esp, 8
  00bc2	8b cc		 mov	 ecx, esp
  00bc4	57		 push	 edi
  00bc5	6a 09		 push	 9
  00bc7	ff 15 00 00 00
	00		 call	 DWORD PTR __imp_??0?$CStringT@DV?$StrTraitMFC_DLL@DV?$ChTraitsCRT@D@ATL@@@@@ATL@@QAE@DH@Z
  00bcd	8d 85 c4 fb ff
	ff		 lea	 eax, DWORD PTR _strSrc$[ebp]
  00bd3	50		 push	 eax
  00bd4	8d 85 cc fb ff
	ff		 lea	 eax, DWORD PTR $T16[ebp]
  00bda	50		 push	 eax
  00bdb	e8 00 00 00 00	 call	 ?Parser@CDataConverter@@SA?AV?$CStringT@DV?$StrTraitMFC_DLL@DV?$ChTraitsCRT@D@ATL@@@@@ATL@@AAV23@V23@@Z ; CDataConverter::Parser
  00be0	83 c4 0c	 add	 esp, 12			; 0000000cH
  00be3	50		 push	 eax
  00be4	8d 8d c8 fb ff
	ff		 lea	 ecx, DWORD PTR _strNode$[ebp]
  00bea	c6 45 fc 1c	 mov	 BYTE PTR __$EHRec$[ebp+8], 28 ; 0000001cH
  00bee	ff 15 00 00 00
	00		 call	 DWORD PTR __imp_??4?$CStringT@DV?$StrTraitMFC_DLL@DV?$ChTraitsCRT@D@ATL@@@@@ATL@@QAEAAV01@ABV01@@Z
  00bf4	8d 8d cc fb ff
	ff		 lea	 ecx, DWORD PTR $T16[ebp]
  00bfa	c6 45 fc 01	 mov	 BYTE PTR __$EHRec$[ebp+8], 1
  00bfe	ff 15 00 00 00
	00		 call	 DWORD PTR __imp_??1?$CStringT@DV?$StrTraitMFC_DLL@DV?$ChTraitsCRT@D@ATL@@@@@ATL@@QAE@XZ

; 231  : 	strNode.Remove(_T('-'));

  00c04	6a 2d		 push	 45			; 0000002dH
  00c06	8d 8d c8 fb ff
	ff		 lea	 ecx, DWORD PTR _strNode$[ebp]
  00c0c	ff 15 00 00 00
	00		 call	 DWORD PTR __imp_?Remove@?$CStringT@DV?$StrTraitMFC_DLL@DV?$ChTraitsCRT@D@ATL@@@@@ATL@@QAEHD@Z
; File C:\Program Files (x86)\Microsoft Visual Studio\2019\Community\VC\Tools\MSVC\14.29.30133\atlmfc\include\atlsimpstr.h

; 519  : 		return( GetData()->nDataLength );

  00c12	8b 85 c8 fb ff
	ff		 mov	 eax, DWORD PTR _strNode$[ebp]
; File D:\git\src\IBK\IBK_DRFN\ProjSrc\SrcDrfn\DrCommon\PartnerMng\ChartItemSHoga.cpp

; 232  : 	memcpy(stOut.bidho4, strNode, min(strNode.GetLength(), sizeof(stOut.bidho4)));

  00c18	8b d3		 mov	 edx, ebx
  00c1a	39 50 f4	 cmp	 DWORD PTR [eax-12], edx
  00c1d	0f 42 50 f4	 cmovb	 edx, DWORD PTR [eax-12]
  00c21	52		 push	 edx
  00c22	50		 push	 eax
  00c23	8d 85 a2 fd ff
	ff		 lea	 eax, DWORD PTR _stOut$[ebp+466]
  00c29	50		 push	 eax
  00c2a	e8 00 00 00 00	 call	 _memcpy

; 233  : 
; 234  : 	strNode = CDataConverter::Parser(strSrc, sCELL);	// 매수잔량4

  00c2f	83 c4 08	 add	 esp, 8
  00c32	8b cc		 mov	 ecx, esp
  00c34	57		 push	 edi
  00c35	6a 09		 push	 9
  00c37	ff 15 00 00 00
	00		 call	 DWORD PTR __imp_??0?$CStringT@DV?$StrTraitMFC_DLL@DV?$ChTraitsCRT@D@ATL@@@@@ATL@@QAE@DH@Z
  00c3d	8d 85 c4 fb ff
	ff		 lea	 eax, DWORD PTR _strSrc$[ebp]
  00c43	50		 push	 eax
  00c44	8d 85 cc fb ff
	ff		 lea	 eax, DWORD PTR $T15[ebp]
  00c4a	50		 push	 eax
  00c4b	e8 00 00 00 00	 call	 ?Parser@CDataConverter@@SA?AV?$CStringT@DV?$StrTraitMFC_DLL@DV?$ChTraitsCRT@D@ATL@@@@@ATL@@AAV23@V23@@Z ; CDataConverter::Parser
  00c50	83 c4 0c	 add	 esp, 12			; 0000000cH
  00c53	50		 push	 eax
  00c54	8d 8d c8 fb ff
	ff		 lea	 ecx, DWORD PTR _strNode$[ebp]
  00c5a	c6 45 fc 1d	 mov	 BYTE PTR __$EHRec$[ebp+8], 29 ; 0000001dH
  00c5e	ff 15 00 00 00
	00		 call	 DWORD PTR __imp_??4?$CStringT@DV?$StrTraitMFC_DLL@DV?$ChTraitsCRT@D@ATL@@@@@ATL@@QAEAAV01@ABV01@@Z
  00c64	8d 8d cc fb ff
	ff		 lea	 ecx, DWORD PTR $T15[ebp]
  00c6a	c6 45 fc 01	 mov	 BYTE PTR __$EHRec$[ebp+8], 1
  00c6e	ff 15 00 00 00
	00		 call	 DWORD PTR __imp_??1?$CStringT@DV?$StrTraitMFC_DLL@DV?$ChTraitsCRT@D@ATL@@@@@ATL@@QAE@XZ

; 235  : 	strNode.Remove(_T('-'));

  00c74	6a 2d		 push	 45			; 0000002dH
  00c76	8d 8d c8 fb ff
	ff		 lea	 ecx, DWORD PTR _strNode$[ebp]
  00c7c	ff 15 00 00 00
	00		 call	 DWORD PTR __imp_?Remove@?$CStringT@DV?$StrTraitMFC_DLL@DV?$ChTraitsCRT@D@ATL@@@@@ATL@@QAEHD@Z
; File C:\Program Files (x86)\Microsoft Visual Studio\2019\Community\VC\Tools\MSVC\14.29.30133\atlmfc\include\atlsimpstr.h

; 519  : 		return( GetData()->nDataLength );

  00c82	8b 85 c8 fb ff
	ff		 mov	 eax, DWORD PTR _strNode$[ebp]
; File D:\git\src\IBK\IBK_DRFN\ProjSrc\SrcDrfn\DrCommon\PartnerMng\ChartItemSHoga.cpp

; 236  : 	memcpy(stOut.bidrem4, strNode, min(strNode.GetLength(), sizeof(stOut.bidrem4)));

  00c88	8b d3		 mov	 edx, ebx
  00c8a	39 50 f4	 cmp	 DWORD PTR [eax-12], edx
  00c8d	0f 42 50 f4	 cmovb	 edx, DWORD PTR [eax-12]
  00c91	52		 push	 edx
  00c92	50		 push	 eax
  00c93	8d 85 ab fd ff
	ff		 lea	 eax, DWORD PTR _stOut$[ebp+475]
  00c99	50		 push	 eax
  00c9a	e8 00 00 00 00	 call	 _memcpy

; 237  : 
; 238  : 	strNode = CDataConverter::Parser(strSrc, sCELL);	// 매수호가5

  00c9f	83 c4 08	 add	 esp, 8
  00ca2	8b cc		 mov	 ecx, esp
  00ca4	57		 push	 edi
  00ca5	6a 09		 push	 9
  00ca7	ff 15 00 00 00
	00		 call	 DWORD PTR __imp_??0?$CStringT@DV?$StrTraitMFC_DLL@DV?$ChTraitsCRT@D@ATL@@@@@ATL@@QAE@DH@Z
  00cad	8d 85 c4 fb ff
	ff		 lea	 eax, DWORD PTR _strSrc$[ebp]
  00cb3	50		 push	 eax
  00cb4	8d 85 cc fb ff
	ff		 lea	 eax, DWORD PTR $T14[ebp]
  00cba	50		 push	 eax
  00cbb	e8 00 00 00 00	 call	 ?Parser@CDataConverter@@SA?AV?$CStringT@DV?$StrTraitMFC_DLL@DV?$ChTraitsCRT@D@ATL@@@@@ATL@@AAV23@V23@@Z ; CDataConverter::Parser
  00cc0	83 c4 0c	 add	 esp, 12			; 0000000cH
  00cc3	50		 push	 eax
  00cc4	8d 8d c8 fb ff
	ff		 lea	 ecx, DWORD PTR _strNode$[ebp]
  00cca	c6 45 fc 1e	 mov	 BYTE PTR __$EHRec$[ebp+8], 30 ; 0000001eH
  00cce	ff 15 00 00 00
	00		 call	 DWORD PTR __imp_??4?$CStringT@DV?$StrTraitMFC_DLL@DV?$ChTraitsCRT@D@ATL@@@@@ATL@@QAEAAV01@ABV01@@Z
  00cd4	8d 8d cc fb ff
	ff		 lea	 ecx, DWORD PTR $T14[ebp]
  00cda	c6 45 fc 01	 mov	 BYTE PTR __$EHRec$[ebp+8], 1
  00cde	ff 15 00 00 00
	00		 call	 DWORD PTR __imp_??1?$CStringT@DV?$StrTraitMFC_DLL@DV?$ChTraitsCRT@D@ATL@@@@@ATL@@QAE@XZ

; 239  : 	strNode.Remove(_T('-'));

  00ce4	6a 2d		 push	 45			; 0000002dH
  00ce6	8d 8d c8 fb ff
	ff		 lea	 ecx, DWORD PTR _strNode$[ebp]
  00cec	ff 15 00 00 00
	00		 call	 DWORD PTR __imp_?Remove@?$CStringT@DV?$StrTraitMFC_DLL@DV?$ChTraitsCRT@D@ATL@@@@@ATL@@QAEHD@Z
; File C:\Program Files (x86)\Microsoft Visual Studio\2019\Community\VC\Tools\MSVC\14.29.30133\atlmfc\include\atlsimpstr.h

; 519  : 		return( GetData()->nDataLength );

  00cf2	8b 85 c8 fb ff
	ff		 mov	 eax, DWORD PTR _strNode$[ebp]
; File D:\git\src\IBK\IBK_DRFN\ProjSrc\SrcDrfn\DrCommon\PartnerMng\ChartItemSHoga.cpp

; 240  : 	memcpy(stOut.bidho5, strNode, min(strNode.GetLength(), sizeof(stOut.bidho5)));

  00cf8	8b d3		 mov	 edx, ebx
  00cfa	39 50 f4	 cmp	 DWORD PTR [eax-12], edx
  00cfd	0f 42 50 f4	 cmovb	 edx, DWORD PTR [eax-12]
  00d01	52		 push	 edx
  00d02	50		 push	 eax
  00d03	8d 85 bd fd ff
	ff		 lea	 eax, DWORD PTR _stOut$[ebp+493]
  00d09	50		 push	 eax
  00d0a	e8 00 00 00 00	 call	 _memcpy

; 241  : 
; 242  : 	strNode = CDataConverter::Parser(strSrc, sCELL);	// 매수잔량5

  00d0f	83 c4 08	 add	 esp, 8
  00d12	8b cc		 mov	 ecx, esp
  00d14	57		 push	 edi
  00d15	6a 09		 push	 9
  00d17	ff 15 00 00 00
	00		 call	 DWORD PTR __imp_??0?$CStringT@DV?$StrTraitMFC_DLL@DV?$ChTraitsCRT@D@ATL@@@@@ATL@@QAE@DH@Z
  00d1d	8d 85 c4 fb ff
	ff		 lea	 eax, DWORD PTR _strSrc$[ebp]
  00d23	50		 push	 eax
  00d24	8d 85 cc fb ff
	ff		 lea	 eax, DWORD PTR $T13[ebp]
  00d2a	50		 push	 eax
  00d2b	e8 00 00 00 00	 call	 ?Parser@CDataConverter@@SA?AV?$CStringT@DV?$StrTraitMFC_DLL@DV?$ChTraitsCRT@D@ATL@@@@@ATL@@AAV23@V23@@Z ; CDataConverter::Parser
  00d30	83 c4 0c	 add	 esp, 12			; 0000000cH
  00d33	50		 push	 eax
  00d34	8d 8d c8 fb ff
	ff		 lea	 ecx, DWORD PTR _strNode$[ebp]
  00d3a	c6 45 fc 1f	 mov	 BYTE PTR __$EHRec$[ebp+8], 31 ; 0000001fH
  00d3e	ff 15 00 00 00
	00		 call	 DWORD PTR __imp_??4?$CStringT@DV?$StrTraitMFC_DLL@DV?$ChTraitsCRT@D@ATL@@@@@ATL@@QAEAAV01@ABV01@@Z
  00d44	8d 8d cc fb ff
	ff		 lea	 ecx, DWORD PTR $T13[ebp]
  00d4a	c6 45 fc 01	 mov	 BYTE PTR __$EHRec$[ebp+8], 1
  00d4e	ff 15 00 00 00
	00		 call	 DWORD PTR __imp_??1?$CStringT@DV?$StrTraitMFC_DLL@DV?$ChTraitsCRT@D@ATL@@@@@ATL@@QAE@XZ

; 243  : 	strNode.Remove(_T('-'));

  00d54	6a 2d		 push	 45			; 0000002dH
  00d56	8d 8d c8 fb ff
	ff		 lea	 ecx, DWORD PTR _strNode$[ebp]
  00d5c	ff 15 00 00 00
	00		 call	 DWORD PTR __imp_?Remove@?$CStringT@DV?$StrTraitMFC_DLL@DV?$ChTraitsCRT@D@ATL@@@@@ATL@@QAEHD@Z
; File C:\Program Files (x86)\Microsoft Visual Studio\2019\Community\VC\Tools\MSVC\14.29.30133\atlmfc\include\atlsimpstr.h

; 519  : 		return( GetData()->nDataLength );

  00d62	8b 85 c8 fb ff
	ff		 mov	 eax, DWORD PTR _strNode$[ebp]
; File D:\git\src\IBK\IBK_DRFN\ProjSrc\SrcDrfn\DrCommon\PartnerMng\ChartItemSHoga.cpp

; 244  : 	memcpy(stOut.bidrem5, strNode, min(strNode.GetLength(), sizeof(stOut.bidrem5)));

  00d68	8b d3		 mov	 edx, ebx
  00d6a	39 50 f4	 cmp	 DWORD PTR [eax-12], edx
  00d6d	0f 42 50 f4	 cmovb	 edx, DWORD PTR [eax-12]
  00d71	52		 push	 edx
  00d72	50		 push	 eax
  00d73	8d 85 c6 fd ff
	ff		 lea	 eax, DWORD PTR _stOut$[ebp+502]
  00d79	50		 push	 eax
  00d7a	e8 00 00 00 00	 call	 _memcpy

; 245  : 
; 246  : 	strNode = CDataConverter::Parser(strSrc, sCELL);	// 총매도잔량

  00d7f	83 c4 08	 add	 esp, 8
  00d82	8b cc		 mov	 ecx, esp
  00d84	57		 push	 edi
  00d85	6a 09		 push	 9
  00d87	ff 15 00 00 00
	00		 call	 DWORD PTR __imp_??0?$CStringT@DV?$StrTraitMFC_DLL@DV?$ChTraitsCRT@D@ATL@@@@@ATL@@QAE@DH@Z
  00d8d	8d 85 c4 fb ff
	ff		 lea	 eax, DWORD PTR _strSrc$[ebp]
  00d93	50		 push	 eax
  00d94	8d 85 cc fb ff
	ff		 lea	 eax, DWORD PTR $T12[ebp]
  00d9a	50		 push	 eax
  00d9b	e8 00 00 00 00	 call	 ?Parser@CDataConverter@@SA?AV?$CStringT@DV?$StrTraitMFC_DLL@DV?$ChTraitsCRT@D@ATL@@@@@ATL@@AAV23@V23@@Z ; CDataConverter::Parser
  00da0	83 c4 0c	 add	 esp, 12			; 0000000cH
  00da3	50		 push	 eax
  00da4	8d 8d c8 fb ff
	ff		 lea	 ecx, DWORD PTR _strNode$[ebp]
  00daa	c6 45 fc 20	 mov	 BYTE PTR __$EHRec$[ebp+8], 32 ; 00000020H
  00dae	ff 15 00 00 00
	00		 call	 DWORD PTR __imp_??4?$CStringT@DV?$StrTraitMFC_DLL@DV?$ChTraitsCRT@D@ATL@@@@@ATL@@QAEAAV01@ABV01@@Z
  00db4	8d 8d cc fb ff
	ff		 lea	 ecx, DWORD PTR $T12[ebp]
  00dba	c6 45 fc 01	 mov	 BYTE PTR __$EHRec$[ebp+8], 1
  00dbe	ff 15 00 00 00
	00		 call	 DWORD PTR __imp_??1?$CStringT@DV?$StrTraitMFC_DLL@DV?$ChTraitsCRT@D@ATL@@@@@ATL@@QAE@XZ

; 247  : 	strNode.Remove(_T('-'));

  00dc4	6a 2d		 push	 45			; 0000002dH
  00dc6	8d 8d c8 fb ff
	ff		 lea	 ecx, DWORD PTR _strNode$[ebp]
  00dcc	ff 15 00 00 00
	00		 call	 DWORD PTR __imp_?Remove@?$CStringT@DV?$StrTraitMFC_DLL@DV?$ChTraitsCRT@D@ATL@@@@@ATL@@QAEHD@Z
; File C:\Program Files (x86)\Microsoft Visual Studio\2019\Community\VC\Tools\MSVC\14.29.30133\atlmfc\include\atlsimpstr.h

; 519  : 		return( GetData()->nDataLength );

  00dd2	8b 85 c8 fb ff
	ff		 mov	 eax, DWORD PTR _strNode$[ebp]
; File D:\git\src\IBK\IBK_DRFN\ProjSrc\SrcDrfn\DrCommon\PartnerMng\ChartItemSHoga.cpp

; 248  : 	memcpy(stOut.totofferrem, strNode, min(strNode.GetLength(), sizeof(stOut.totofferrem)));

  00dd8	8b d3		 mov	 edx, ebx
  00dda	39 50 f4	 cmp	 DWORD PTR [eax-12], edx
  00ddd	0f 42 50 f4	 cmovb	 edx, DWORD PTR [eax-12]
  00de1	52		 push	 edx
  00de2	50		 push	 eax
  00de3	8d 85 5f fe ff
	ff		 lea	 eax, DWORD PTR _stOut$[ebp+655]
  00de9	50		 push	 eax
  00dea	e8 00 00 00 00	 call	 _memcpy

; 249  : 
; 250  : 	strNode = CDataConverter::Parser(strSrc, sCELL);	// 총매수잔량

  00def	83 c4 08	 add	 esp, 8
  00df2	8b cc		 mov	 ecx, esp
  00df4	57		 push	 edi
  00df5	6a 09		 push	 9
  00df7	ff 15 00 00 00
	00		 call	 DWORD PTR __imp_??0?$CStringT@DV?$StrTraitMFC_DLL@DV?$ChTraitsCRT@D@ATL@@@@@ATL@@QAE@DH@Z
  00dfd	8d 85 c4 fb ff
	ff		 lea	 eax, DWORD PTR _strSrc$[ebp]
  00e03	50		 push	 eax
  00e04	8d 85 cc fb ff
	ff		 lea	 eax, DWORD PTR $T11[ebp]
  00e0a	50		 push	 eax
  00e0b	e8 00 00 00 00	 call	 ?Parser@CDataConverter@@SA?AV?$CStringT@DV?$StrTraitMFC_DLL@DV?$ChTraitsCRT@D@ATL@@@@@ATL@@AAV23@V23@@Z ; CDataConverter::Parser
  00e10	83 c4 0c	 add	 esp, 12			; 0000000cH
  00e13	50		 push	 eax
  00e14	8d 8d c8 fb ff
	ff		 lea	 ecx, DWORD PTR _strNode$[ebp]
  00e1a	c6 45 fc 21	 mov	 BYTE PTR __$EHRec$[ebp+8], 33 ; 00000021H
  00e1e	ff 15 00 00 00
	00		 call	 DWORD PTR __imp_??4?$CStringT@DV?$StrTraitMFC_DLL@DV?$ChTraitsCRT@D@ATL@@@@@ATL@@QAEAAV01@ABV01@@Z
  00e24	8d 8d cc fb ff
	ff		 lea	 ecx, DWORD PTR $T11[ebp]
  00e2a	c6 45 fc 01	 mov	 BYTE PTR __$EHRec$[ebp+8], 1
  00e2e	ff 15 00 00 00
	00		 call	 DWORD PTR __imp_??1?$CStringT@DV?$StrTraitMFC_DLL@DV?$ChTraitsCRT@D@ATL@@@@@ATL@@QAE@XZ

; 251  : 	strNode.Remove(_T('-'));

  00e34	6a 2d		 push	 45			; 0000002dH
  00e36	8d 8d c8 fb ff
	ff		 lea	 ecx, DWORD PTR _strNode$[ebp]
  00e3c	ff 15 00 00 00
	00		 call	 DWORD PTR __imp_?Remove@?$CStringT@DV?$StrTraitMFC_DLL@DV?$ChTraitsCRT@D@ATL@@@@@ATL@@QAEHD@Z
; File C:\Program Files (x86)\Microsoft Visual Studio\2019\Community\VC\Tools\MSVC\14.29.30133\atlmfc\include\atlsimpstr.h

; 519  : 		return( GetData()->nDataLength );

  00e42	8b 85 c8 fb ff
	ff		 mov	 eax, DWORD PTR _strNode$[ebp]
; File D:\git\src\IBK\IBK_DRFN\ProjSrc\SrcDrfn\DrCommon\PartnerMng\ChartItemSHoga.cpp

; 252  : 	memcpy(stOut.totbidrem, strNode, min(strNode.GetLength(), sizeof(stOut.totbidrem)));

  00e48	8b d3		 mov	 edx, ebx
  00e4a	39 50 f4	 cmp	 DWORD PTR [eax-12], edx
  00e4d	0f 42 50 f4	 cmovb	 edx, DWORD PTR [eax-12]
  00e51	52		 push	 edx
  00e52	50		 push	 eax
  00e53	8d 85 71 fe ff
	ff		 lea	 eax, DWORD PTR _stOut$[ebp+673]
  00e59	50		 push	 eax
  00e5a	e8 00 00 00 00	 call	 _memcpy

; 253  : 
; 254  : 	strNode = CDataConverter::Parser(strSrc, sCELL);	// 시간외매도잔량

  00e5f	83 c4 08	 add	 esp, 8
  00e62	8b cc		 mov	 ecx, esp
  00e64	57		 push	 edi
  00e65	6a 09		 push	 9
  00e67	ff 15 00 00 00
	00		 call	 DWORD PTR __imp_??0?$CStringT@DV?$StrTraitMFC_DLL@DV?$ChTraitsCRT@D@ATL@@@@@ATL@@QAE@DH@Z
  00e6d	8d 85 c4 fb ff
	ff		 lea	 eax, DWORD PTR _strSrc$[ebp]
  00e73	50		 push	 eax
  00e74	8d 85 cc fb ff
	ff		 lea	 eax, DWORD PTR $T10[ebp]
  00e7a	50		 push	 eax
  00e7b	e8 00 00 00 00	 call	 ?Parser@CDataConverter@@SA?AV?$CStringT@DV?$StrTraitMFC_DLL@DV?$ChTraitsCRT@D@ATL@@@@@ATL@@AAV23@V23@@Z ; CDataConverter::Parser
  00e80	83 c4 0c	 add	 esp, 12			; 0000000cH
  00e83	50		 push	 eax
  00e84	8d 8d c8 fb ff
	ff		 lea	 ecx, DWORD PTR _strNode$[ebp]
  00e8a	c6 45 fc 22	 mov	 BYTE PTR __$EHRec$[ebp+8], 34 ; 00000022H
  00e8e	ff 15 00 00 00
	00		 call	 DWORD PTR __imp_??4?$CStringT@DV?$StrTraitMFC_DLL@DV?$ChTraitsCRT@D@ATL@@@@@ATL@@QAEAAV01@ABV01@@Z
  00e94	8d 8d cc fb ff
	ff		 lea	 ecx, DWORD PTR $T10[ebp]
  00e9a	c6 45 fc 01	 mov	 BYTE PTR __$EHRec$[ebp+8], 1
  00e9e	ff 15 00 00 00
	00		 call	 DWORD PTR __imp_??1?$CStringT@DV?$StrTraitMFC_DLL@DV?$ChTraitsCRT@D@ATL@@@@@ATL@@QAE@XZ

; 255  : 	strNode.Remove(_T('-'));

  00ea4	6a 2d		 push	 45			; 0000002dH
  00ea6	8d 8d c8 fb ff
	ff		 lea	 ecx, DWORD PTR _strNode$[ebp]
  00eac	ff 15 00 00 00
	00		 call	 DWORD PTR __imp_?Remove@?$CStringT@DV?$StrTraitMFC_DLL@DV?$ChTraitsCRT@D@ATL@@@@@ATL@@QAEHD@Z
; File C:\Program Files (x86)\Microsoft Visual Studio\2019\Community\VC\Tools\MSVC\14.29.30133\atlmfc\include\atlsimpstr.h

; 519  : 		return( GetData()->nDataLength );

  00eb2	8b 85 c8 fb ff
	ff		 mov	 eax, DWORD PTR _strNode$[ebp]
; File D:\git\src\IBK\IBK_DRFN\ProjSrc\SrcDrfn\DrCommon\PartnerMng\ChartItemSHoga.cpp

; 256  : 	memcpy(stOut.tmofferrem, strNode, min(strNode.GetLength(), sizeof(stOut.tmofferrem)));

  00eb8	8b d3		 mov	 edx, ebx
  00eba	39 50 f4	 cmp	 DWORD PTR [eax-12], edx
  00ebd	0f 42 50 f4	 cmovb	 edx, DWORD PTR [eax-12]
  00ec1	52		 push	 edx
  00ec2	50		 push	 eax
  00ec3	8d 85 a7 fe ff
	ff		 lea	 eax, DWORD PTR _stOut$[ebp+727]
  00ec9	50		 push	 eax
  00eca	e8 00 00 00 00	 call	 _memcpy

; 257  : 
; 258  : 	strNode = CDataConverter::Parser(strSrc, sCELL);	// 시간외 매수잔량

  00ecf	83 c4 08	 add	 esp, 8
  00ed2	8b cc		 mov	 ecx, esp
  00ed4	57		 push	 edi
  00ed5	6a 09		 push	 9
  00ed7	ff 15 00 00 00
	00		 call	 DWORD PTR __imp_??0?$CStringT@DV?$StrTraitMFC_DLL@DV?$ChTraitsCRT@D@ATL@@@@@ATL@@QAE@DH@Z
  00edd	8d 85 c4 fb ff
	ff		 lea	 eax, DWORD PTR _strSrc$[ebp]
  00ee3	50		 push	 eax
  00ee4	8d 85 cc fb ff
	ff		 lea	 eax, DWORD PTR $T9[ebp]
  00eea	50		 push	 eax
  00eeb	e8 00 00 00 00	 call	 ?Parser@CDataConverter@@SA?AV?$CStringT@DV?$StrTraitMFC_DLL@DV?$ChTraitsCRT@D@ATL@@@@@ATL@@AAV23@V23@@Z ; CDataConverter::Parser
  00ef0	83 c4 0c	 add	 esp, 12			; 0000000cH
  00ef3	50		 push	 eax
  00ef4	8d 8d c8 fb ff
	ff		 lea	 ecx, DWORD PTR _strNode$[ebp]
  00efa	c6 45 fc 23	 mov	 BYTE PTR __$EHRec$[ebp+8], 35 ; 00000023H
  00efe	ff 15 00 00 00
	00		 call	 DWORD PTR __imp_??4?$CStringT@DV?$StrTraitMFC_DLL@DV?$ChTraitsCRT@D@ATL@@@@@ATL@@QAEAAV01@ABV01@@Z
  00f04	8d 8d cc fb ff
	ff		 lea	 ecx, DWORD PTR $T9[ebp]
  00f0a	c6 45 fc 01	 mov	 BYTE PTR __$EHRec$[ebp+8], 1
  00f0e	ff 15 00 00 00
	00		 call	 DWORD PTR __imp_??1?$CStringT@DV?$StrTraitMFC_DLL@DV?$ChTraitsCRT@D@ATL@@@@@ATL@@QAE@XZ

; 259  : 	strNode.Remove(_T('-'));

  00f14	6a 2d		 push	 45			; 0000002dH
  00f16	8d 8d c8 fb ff
	ff		 lea	 ecx, DWORD PTR _strNode$[ebp]
  00f1c	ff 15 00 00 00
	00		 call	 DWORD PTR __imp_?Remove@?$CStringT@DV?$StrTraitMFC_DLL@DV?$ChTraitsCRT@D@ATL@@@@@ATL@@QAEHD@Z
; File C:\Program Files (x86)\Microsoft Visual Studio\2019\Community\VC\Tools\MSVC\14.29.30133\atlmfc\include\atlsimpstr.h

; 519  : 		return( GetData()->nDataLength );

  00f22	8b 85 c8 fb ff
	ff		 mov	 eax, DWORD PTR _strNode$[ebp]
; File D:\git\src\IBK\IBK_DRFN\ProjSrc\SrcDrfn\DrCommon\PartnerMng\ChartItemSHoga.cpp

; 260  : 	memcpy(stOut.tmbidrem, strNode, min(strNode.GetLength(), sizeof(stOut.tmbidrem)));

  00f28	8b d3		 mov	 edx, ebx
  00f2a	39 50 f4	 cmp	 DWORD PTR [eax-12], edx
  00f2d	0f 42 50 f4	 cmovb	 edx, DWORD PTR [eax-12]
  00f31	52		 push	 edx
  00f32	50		 push	 eax
  00f33	8d 85 b0 fe ff
	ff		 lea	 eax, DWORD PTR _stOut$[ebp+736]
  00f39	50		 push	 eax
  00f3a	e8 00 00 00 00	 call	 _memcpy

; 261  : 
; 262  : 	strNode = CDataConverter::Parser(strSrc, sCELL);	// 상한가

  00f3f	83 c4 08	 add	 esp, 8
  00f42	8b cc		 mov	 ecx, esp
  00f44	57		 push	 edi
  00f45	6a 09		 push	 9
  00f47	ff 15 00 00 00
	00		 call	 DWORD PTR __imp_??0?$CStringT@DV?$StrTraitMFC_DLL@DV?$ChTraitsCRT@D@ATL@@@@@ATL@@QAE@DH@Z
  00f4d	8d 85 c4 fb ff
	ff		 lea	 eax, DWORD PTR _strSrc$[ebp]
  00f53	50		 push	 eax
  00f54	8d 85 cc fb ff
	ff		 lea	 eax, DWORD PTR $T8[ebp]
  00f5a	50		 push	 eax
  00f5b	e8 00 00 00 00	 call	 ?Parser@CDataConverter@@SA?AV?$CStringT@DV?$StrTraitMFC_DLL@DV?$ChTraitsCRT@D@ATL@@@@@ATL@@AAV23@V23@@Z ; CDataConverter::Parser
  00f60	83 c4 0c	 add	 esp, 12			; 0000000cH
  00f63	50		 push	 eax
  00f64	8d 8d c8 fb ff
	ff		 lea	 ecx, DWORD PTR _strNode$[ebp]
  00f6a	c6 45 fc 24	 mov	 BYTE PTR __$EHRec$[ebp+8], 36 ; 00000024H
  00f6e	ff 15 00 00 00
	00		 call	 DWORD PTR __imp_??4?$CStringT@DV?$StrTraitMFC_DLL@DV?$ChTraitsCRT@D@ATL@@@@@ATL@@QAEAAV01@ABV01@@Z
  00f74	8d 8d cc fb ff
	ff		 lea	 ecx, DWORD PTR $T8[ebp]
  00f7a	c6 45 fc 01	 mov	 BYTE PTR __$EHRec$[ebp+8], 1
  00f7e	ff 15 00 00 00
	00		 call	 DWORD PTR __imp_??1?$CStringT@DV?$StrTraitMFC_DLL@DV?$ChTraitsCRT@D@ATL@@@@@ATL@@QAE@XZ

; 263  : 	strNode.Remove(_T('-'));

  00f84	6a 2d		 push	 45			; 0000002dH
  00f86	8d 8d c8 fb ff
	ff		 lea	 ecx, DWORD PTR _strNode$[ebp]
  00f8c	ff 15 00 00 00
	00		 call	 DWORD PTR __imp_?Remove@?$CStringT@DV?$StrTraitMFC_DLL@DV?$ChTraitsCRT@D@ATL@@@@@ATL@@QAEHD@Z
; File C:\Program Files (x86)\Microsoft Visual Studio\2019\Community\VC\Tools\MSVC\14.29.30133\atlmfc\include\atlsimpstr.h

; 519  : 		return( GetData()->nDataLength );

  00f92	8b 85 c8 fb ff
	ff		 mov	 eax, DWORD PTR _strNode$[ebp]
; File D:\git\src\IBK\IBK_DRFN\ProjSrc\SrcDrfn\DrCommon\PartnerMng\ChartItemSHoga.cpp

; 264  : 	memcpy(stOut.uplmtprice, strNode, min(strNode.GetLength(), sizeof(stOut.uplmtprice)));

  00f98	8b d3		 mov	 edx, ebx
  00f9a	39 50 f4	 cmp	 DWORD PTR [eax-12], edx
  00f9d	0f 42 50 f4	 cmovb	 edx, DWORD PTR [eax-12]
  00fa1	52		 push	 edx
  00fa2	50		 push	 eax
  00fa3	8d 85 cd fe ff
	ff		 lea	 eax, DWORD PTR _stOut$[ebp+765]
  00fa9	50		 push	 eax
  00faa	e8 00 00 00 00	 call	 _memcpy

; 265  : 
; 266  : 	strNode = CDataConverter::Parser(strSrc, sCELL);	// 하한가

  00faf	83 c4 08	 add	 esp, 8
  00fb2	8b cc		 mov	 ecx, esp
  00fb4	57		 push	 edi
  00fb5	6a 09		 push	 9
  00fb7	ff 15 00 00 00
	00		 call	 DWORD PTR __imp_??0?$CStringT@DV?$StrTraitMFC_DLL@DV?$ChTraitsCRT@D@ATL@@@@@ATL@@QAE@DH@Z
  00fbd	8d 85 c4 fb ff
	ff		 lea	 eax, DWORD PTR _strSrc$[ebp]
  00fc3	50		 push	 eax
  00fc4	8d 85 cc fb ff
	ff		 lea	 eax, DWORD PTR $T7[ebp]
  00fca	50		 push	 eax
  00fcb	e8 00 00 00 00	 call	 ?Parser@CDataConverter@@SA?AV?$CStringT@DV?$StrTraitMFC_DLL@DV?$ChTraitsCRT@D@ATL@@@@@ATL@@AAV23@V23@@Z ; CDataConverter::Parser
  00fd0	83 c4 0c	 add	 esp, 12			; 0000000cH
  00fd3	50		 push	 eax
  00fd4	8d 8d c8 fb ff
	ff		 lea	 ecx, DWORD PTR _strNode$[ebp]
  00fda	c6 45 fc 25	 mov	 BYTE PTR __$EHRec$[ebp+8], 37 ; 00000025H
  00fde	ff 15 00 00 00
	00		 call	 DWORD PTR __imp_??4?$CStringT@DV?$StrTraitMFC_DLL@DV?$ChTraitsCRT@D@ATL@@@@@ATL@@QAEAAV01@ABV01@@Z
  00fe4	8d 8d cc fb ff
	ff		 lea	 ecx, DWORD PTR $T7[ebp]
  00fea	c6 45 fc 01	 mov	 BYTE PTR __$EHRec$[ebp+8], 1
  00fee	ff 15 00 00 00
	00		 call	 DWORD PTR __imp_??1?$CStringT@DV?$StrTraitMFC_DLL@DV?$ChTraitsCRT@D@ATL@@@@@ATL@@QAE@XZ

; 267  : 	strNode.Remove(_T('-'));

  00ff4	6a 2d		 push	 45			; 0000002dH
  00ff6	8d 8d c8 fb ff
	ff		 lea	 ecx, DWORD PTR _strNode$[ebp]
  00ffc	ff 15 00 00 00
	00		 call	 DWORD PTR __imp_?Remove@?$CStringT@DV?$StrTraitMFC_DLL@DV?$ChTraitsCRT@D@ATL@@@@@ATL@@QAEHD@Z
; File C:\Program Files (x86)\Microsoft Visual Studio\2019\Community\VC\Tools\MSVC\14.29.30133\atlmfc\include\atlsimpstr.h

; 519  : 		return( GetData()->nDataLength );

  01002	8b 85 c8 fb ff
	ff		 mov	 eax, DWORD PTR _strNode$[ebp]
; File D:\git\src\IBK\IBK_DRFN\ProjSrc\SrcDrfn\DrCommon\PartnerMng\ChartItemSHoga.cpp

; 268  : 	memcpy(stOut.dnlmtprice, strNode, min(strNode.GetLength(), sizeof(stOut.dnlmtprice)));

  01008	8b d3		 mov	 edx, ebx
  0100a	39 50 f4	 cmp	 DWORD PTR [eax-12], edx
  0100d	0f 42 50 f4	 cmovb	 edx, DWORD PTR [eax-12]
  01011	52		 push	 edx
  01012	50		 push	 eax
  01013	8d 85 d6 fe ff
	ff		 lea	 eax, DWORD PTR _stOut$[ebp+774]
  01019	50		 push	 eax
  0101a	e8 00 00 00 00	 call	 _memcpy

; 269  : 
; 270  : 	strNode = CDataConverter::Parser(strSrc, sCELL);	// 예상등락율

  0101f	83 c4 08	 add	 esp, 8
  01022	8b cc		 mov	 ecx, esp
  01024	57		 push	 edi
  01025	6a 09		 push	 9
  01027	ff 15 00 00 00
	00		 call	 DWORD PTR __imp_??0?$CStringT@DV?$StrTraitMFC_DLL@DV?$ChTraitsCRT@D@ATL@@@@@ATL@@QAE@DH@Z
  0102d	8d 85 c4 fb ff
	ff		 lea	 eax, DWORD PTR _strSrc$[ebp]
  01033	50		 push	 eax
  01034	8d 85 cc fb ff
	ff		 lea	 eax, DWORD PTR $T6[ebp]
  0103a	50		 push	 eax
  0103b	e8 00 00 00 00	 call	 ?Parser@CDataConverter@@SA?AV?$CStringT@DV?$StrTraitMFC_DLL@DV?$ChTraitsCRT@D@ATL@@@@@ATL@@AAV23@V23@@Z ; CDataConverter::Parser
  01040	83 c4 0c	 add	 esp, 12			; 0000000cH
  01043	50		 push	 eax
  01044	8d 8d c8 fb ff
	ff		 lea	 ecx, DWORD PTR _strNode$[ebp]
  0104a	c6 45 fc 26	 mov	 BYTE PTR __$EHRec$[ebp+8], 38 ; 00000026H
  0104e	ff 15 00 00 00
	00		 call	 DWORD PTR __imp_??4?$CStringT@DV?$StrTraitMFC_DLL@DV?$ChTraitsCRT@D@ATL@@@@@ATL@@QAEAAV01@ABV01@@Z
  01054	8d 8d cc fb ff
	ff		 lea	 ecx, DWORD PTR $T6[ebp]
  0105a	c6 45 fc 01	 mov	 BYTE PTR __$EHRec$[ebp+8], 1
  0105e	ff 15 00 00 00
	00		 call	 DWORD PTR __imp_??1?$CStringT@DV?$StrTraitMFC_DLL@DV?$ChTraitsCRT@D@ATL@@@@@ATL@@QAE@XZ
; File C:\Program Files (x86)\Microsoft Visual Studio\2019\Community\VC\Tools\MSVC\14.29.30133\atlmfc\include\atlsimpstr.h

; 519  : 		return( GetData()->nDataLength );

  01064	8b 85 c8 fb ff
	ff		 mov	 eax, DWORD PTR _strNode$[ebp]
; File D:\git\src\IBK\IBK_DRFN\ProjSrc\SrcDrfn\DrCommon\PartnerMng\ChartItemSHoga.cpp

; 271  : 	memcpy(stOut.yerate, strNode, min(strNode.GetLength(), sizeof(stOut.yerate)));

  0106a	ba 06 00 00 00	 mov	 edx, 6
  0106f	39 50 f4	 cmp	 DWORD PTR [eax-12], edx
  01072	0f 42 50 f4	 cmovb	 edx, DWORD PTR [eax-12]
  01076	52		 push	 edx
  01077	50		 push	 eax
  01078	8d 85 a0 fe ff
	ff		 lea	 eax, DWORD PTR _stOut$[ebp+720]
  0107e	50		 push	 eax
  0107f	e8 00 00 00 00	 call	 _memcpy

; 272  : 
; 273  : 	strNode = CDataConverter::Parser(strSrc, sCELL);	// 고가

  01084	83 c4 08	 add	 esp, 8
  01087	8b cc		 mov	 ecx, esp
  01089	57		 push	 edi
  0108a	6a 09		 push	 9
  0108c	ff 15 00 00 00
	00		 call	 DWORD PTR __imp_??0?$CStringT@DV?$StrTraitMFC_DLL@DV?$ChTraitsCRT@D@ATL@@@@@ATL@@QAE@DH@Z
  01092	8d 85 c4 fb ff
	ff		 lea	 eax, DWORD PTR _strSrc$[ebp]
  01098	50		 push	 eax
  01099	8d 85 cc fb ff
	ff		 lea	 eax, DWORD PTR $T5[ebp]
  0109f	50		 push	 eax
  010a0	e8 00 00 00 00	 call	 ?Parser@CDataConverter@@SA?AV?$CStringT@DV?$StrTraitMFC_DLL@DV?$ChTraitsCRT@D@ATL@@@@@ATL@@AAV23@V23@@Z ; CDataConverter::Parser
  010a5	83 c4 0c	 add	 esp, 12			; 0000000cH
  010a8	50		 push	 eax
  010a9	8d 8d c8 fb ff
	ff		 lea	 ecx, DWORD PTR _strNode$[ebp]
  010af	c6 45 fc 27	 mov	 BYTE PTR __$EHRec$[ebp+8], 39 ; 00000027H
  010b3	ff 15 00 00 00
	00		 call	 DWORD PTR __imp_??4?$CStringT@DV?$StrTraitMFC_DLL@DV?$ChTraitsCRT@D@ATL@@@@@ATL@@QAEAAV01@ABV01@@Z
  010b9	8d 8d cc fb ff
	ff		 lea	 ecx, DWORD PTR $T5[ebp]
  010bf	c6 45 fc 01	 mov	 BYTE PTR __$EHRec$[ebp+8], 1
  010c3	ff 15 00 00 00
	00		 call	 DWORD PTR __imp_??1?$CStringT@DV?$StrTraitMFC_DLL@DV?$ChTraitsCRT@D@ATL@@@@@ATL@@QAE@XZ

; 274  : 	strNode.Remove(_T('-'));

  010c9	6a 2d		 push	 45			; 0000002dH
  010cb	8d 8d c8 fb ff
	ff		 lea	 ecx, DWORD PTR _strNode$[ebp]
  010d1	ff 15 00 00 00
	00		 call	 DWORD PTR __imp_?Remove@?$CStringT@DV?$StrTraitMFC_DLL@DV?$ChTraitsCRT@D@ATL@@@@@ATL@@QAEHD@Z
; File C:\Program Files (x86)\Microsoft Visual Studio\2019\Community\VC\Tools\MSVC\14.29.30133\atlmfc\include\atlsimpstr.h

; 519  : 		return( GetData()->nDataLength );

  010d7	8b 85 c8 fb ff
	ff		 mov	 eax, DWORD PTR _strNode$[ebp]
; File D:\git\src\IBK\IBK_DRFN\ProjSrc\SrcDrfn\DrCommon\PartnerMng\ChartItemSHoga.cpp

; 275  : 	memcpy(stOut.high, strNode, min(strNode.GetLength(), sizeof(stOut.high)));

  010dd	8b d3		 mov	 edx, ebx
  010df	39 50 f4	 cmp	 DWORD PTR [eax-12], edx
  010e2	0f 42 50 f4	 cmovb	 edx, DWORD PTR [eax-12]
  010e6	52		 push	 edx
  010e7	50		 push	 eax
  010e8	8d 85 e8 fe ff
	ff		 lea	 eax, DWORD PTR _stOut$[ebp+792]
  010ee	50		 push	 eax
  010ef	e8 00 00 00 00	 call	 _memcpy

; 276  : 
; 277  : 	strNode = CDataConverter::Parser(strSrc, sCELL);	// 저가

  010f4	83 c4 08	 add	 esp, 8
  010f7	8b cc		 mov	 ecx, esp
  010f9	57		 push	 edi
  010fa	6a 09		 push	 9
  010fc	ff 15 00 00 00
	00		 call	 DWORD PTR __imp_??0?$CStringT@DV?$StrTraitMFC_DLL@DV?$ChTraitsCRT@D@ATL@@@@@ATL@@QAE@DH@Z
  01102	8d 85 c4 fb ff
	ff		 lea	 eax, DWORD PTR _strSrc$[ebp]
  01108	50		 push	 eax
  01109	8d 85 cc fb ff
	ff		 lea	 eax, DWORD PTR $T4[ebp]
  0110f	50		 push	 eax
  01110	e8 00 00 00 00	 call	 ?Parser@CDataConverter@@SA?AV?$CStringT@DV?$StrTraitMFC_DLL@DV?$ChTraitsCRT@D@ATL@@@@@ATL@@AAV23@V23@@Z ; CDataConverter::Parser
  01115	83 c4 0c	 add	 esp, 12			; 0000000cH
  01118	50		 push	 eax
  01119	8d 8d c8 fb ff
	ff		 lea	 ecx, DWORD PTR _strNode$[ebp]
  0111f	c6 45 fc 28	 mov	 BYTE PTR __$EHRec$[ebp+8], 40 ; 00000028H
  01123	ff 15 00 00 00
	00		 call	 DWORD PTR __imp_??4?$CStringT@DV?$StrTraitMFC_DLL@DV?$ChTraitsCRT@D@ATL@@@@@ATL@@QAEAAV01@ABV01@@Z
  01129	8d 8d cc fb ff
	ff		 lea	 ecx, DWORD PTR $T4[ebp]
  0112f	c6 45 fc 01	 mov	 BYTE PTR __$EHRec$[ebp+8], 1
  01133	ff 15 00 00 00
	00		 call	 DWORD PTR __imp_??1?$CStringT@DV?$StrTraitMFC_DLL@DV?$ChTraitsCRT@D@ATL@@@@@ATL@@QAE@XZ

; 278  : 	strNode.Remove(_T('-'));

  01139	6a 2d		 push	 45			; 0000002dH
  0113b	8d 8d c8 fb ff
	ff		 lea	 ecx, DWORD PTR _strNode$[ebp]
  01141	ff 15 00 00 00
	00		 call	 DWORD PTR __imp_?Remove@?$CStringT@DV?$StrTraitMFC_DLL@DV?$ChTraitsCRT@D@ATL@@@@@ATL@@QAEHD@Z
; File C:\Program Files (x86)\Microsoft Visual Studio\2019\Community\VC\Tools\MSVC\14.29.30133\atlmfc\include\atlsimpstr.h

; 519  : 		return( GetData()->nDataLength );

  01147	8b 85 c8 fb ff
	ff		 mov	 eax, DWORD PTR _strNode$[ebp]
; File D:\git\src\IBK\IBK_DRFN\ProjSrc\SrcDrfn\DrCommon\PartnerMng\ChartItemSHoga.cpp

; 279  : 	memcpy(stOut.low, strNode, min(strNode.GetLength(), sizeof(stOut.low)));

  0114d	39 58 f4	 cmp	 DWORD PTR [eax-12], ebx
  01150	0f 42 58 f4	 cmovb	 ebx, DWORD PTR [eax-12]
  01154	53		 push	 ebx
  01155	50		 push	 eax
  01156	8d 85 f1 fe ff
	ff		 lea	 eax, DWORD PTR _stOut$[ebp+801]
  0115c	50		 push	 eax
  0115d	e8 00 00 00 00	 call	 _memcpy

; 280  : 
; 281  : 	strNode = CDataConverter::Parser(strSrc, sCELL);	// 전일거래량

  01162	83 c4 08	 add	 esp, 8
  01165	8b cc		 mov	 ecx, esp
  01167	57		 push	 edi
  01168	6a 09		 push	 9
  0116a	ff 15 00 00 00
	00		 call	 DWORD PTR __imp_??0?$CStringT@DV?$StrTraitMFC_DLL@DV?$ChTraitsCRT@D@ATL@@@@@ATL@@QAE@DH@Z
  01170	8d 85 c4 fb ff
	ff		 lea	 eax, DWORD PTR _strSrc$[ebp]
  01176	50		 push	 eax
  01177	8d 85 cc fb ff
	ff		 lea	 eax, DWORD PTR $T3[ebp]
  0117d	50		 push	 eax
  0117e	e8 00 00 00 00	 call	 ?Parser@CDataConverter@@SA?AV?$CStringT@DV?$StrTraitMFC_DLL@DV?$ChTraitsCRT@D@ATL@@@@@ATL@@AAV23@V23@@Z ; CDataConverter::Parser
  01183	83 c4 0c	 add	 esp, 12			; 0000000cH
  01186	50		 push	 eax
  01187	8d 8d c8 fb ff
	ff		 lea	 ecx, DWORD PTR _strNode$[ebp]
  0118d	c6 45 fc 29	 mov	 BYTE PTR __$EHRec$[ebp+8], 41 ; 00000029H
  01191	ff 15 00 00 00
	00		 call	 DWORD PTR __imp_??4?$CStringT@DV?$StrTraitMFC_DLL@DV?$ChTraitsCRT@D@ATL@@@@@ATL@@QAEAAV01@ABV01@@Z
  01197	8d 8d cc fb ff
	ff		 lea	 ecx, DWORD PTR $T3[ebp]
  0119d	c6 45 fc 01	 mov	 BYTE PTR __$EHRec$[ebp+8], 1
  011a1	ff 15 00 00 00
	00		 call	 DWORD PTR __imp_??1?$CStringT@DV?$StrTraitMFC_DLL@DV?$ChTraitsCRT@D@ATL@@@@@ATL@@QAE@XZ

; 282  : 	strNode.Remove(_T('-'));

  011a7	6a 2d		 push	 45			; 0000002dH
  011a9	8d 8d c8 fb ff
	ff		 lea	 ecx, DWORD PTR _strNode$[ebp]
  011af	ff 15 00 00 00
	00		 call	 DWORD PTR __imp_?Remove@?$CStringT@DV?$StrTraitMFC_DLL@DV?$ChTraitsCRT@D@ATL@@@@@ATL@@QAEHD@Z
; File C:\Program Files (x86)\Microsoft Visual Studio\2019\Community\VC\Tools\MSVC\14.29.30133\atlmfc\include\atlsimpstr.h

; 519  : 		return( GetData()->nDataLength );

  011b5	8b 85 c8 fb ff
	ff		 mov	 eax, DWORD PTR _strNode$[ebp]
; File D:\git\src\IBK\IBK_DRFN\ProjSrc\SrcDrfn\DrCommon\PartnerMng\ChartItemSHoga.cpp

; 283  : 	memcpy(stOut.volrate, strNode, min(strNode.GetLength(), sizeof(stOut.volrate)));

  011bb	39 70 f4	 cmp	 DWORD PTR [eax-12], esi
  011be	0f 42 70 f4	 cmovb	 esi, DWORD PTR [eax-12]
  011c2	56		 push	 esi
  011c3	50		 push	 eax
  011c4	8d 85 0e fc ff
	ff		 lea	 eax, DWORD PTR _stOut$[ebp+62]
  011ca	50		 push	 eax
  011cb	e8 00 00 00 00	 call	 _memcpy

; 284  : 
; 285  : 	strNode = CDataConverter::Parser(strSrc, sCELL);	// 예상체결가전일종가대비구분

  011d0	83 c4 08	 add	 esp, 8
  011d3	8b cc		 mov	 ecx, esp
  011d5	57		 push	 edi
  011d6	6a 09		 push	 9
  011d8	ff 15 00 00 00
	00		 call	 DWORD PTR __imp_??0?$CStringT@DV?$StrTraitMFC_DLL@DV?$ChTraitsCRT@D@ATL@@@@@ATL@@QAE@DH@Z
  011de	8d 85 c4 fb ff
	ff		 lea	 eax, DWORD PTR _strSrc$[ebp]
  011e4	50		 push	 eax
  011e5	8d 85 cc fb ff
	ff		 lea	 eax, DWORD PTR $T2[ebp]
  011eb	50		 push	 eax
  011ec	e8 00 00 00 00	 call	 ?Parser@CDataConverter@@SA?AV?$CStringT@DV?$StrTraitMFC_DLL@DV?$ChTraitsCRT@D@ATL@@@@@ATL@@AAV23@V23@@Z ; CDataConverter::Parser
  011f1	83 c4 0c	 add	 esp, 12			; 0000000cH
  011f4	50		 push	 eax
  011f5	8d 8d c8 fb ff
	ff		 lea	 ecx, DWORD PTR _strNode$[ebp]
  011fb	c6 45 fc 2a	 mov	 BYTE PTR __$EHRec$[ebp+8], 42 ; 0000002aH
  011ff	ff 15 00 00 00
	00		 call	 DWORD PTR __imp_??4?$CStringT@DV?$StrTraitMFC_DLL@DV?$ChTraitsCRT@D@ATL@@@@@ATL@@QAEAAV01@ABV01@@Z
  01205	8d 8d cc fb ff
	ff		 lea	 ecx, DWORD PTR $T2[ebp]
  0120b	c6 45 fc 01	 mov	 BYTE PTR __$EHRec$[ebp+8], 1
  0120f	ff 15 00 00 00
	00		 call	 DWORD PTR __imp_??1?$CStringT@DV?$StrTraitMFC_DLL@DV?$ChTraitsCRT@D@ATL@@@@@ATL@@QAE@XZ

; 286  : 	memcpy(stOut.jnilysign, strNode, min(strNode.GetLength(), sizeof(stOut.jnilysign)));

  01215	8b 85 c8 fb ff
	ff		 mov	 eax, DWORD PTR _strNode$[ebp]
  0121b	39 78 f4	 cmp	 DWORD PTR [eax-12], edi
  0121e	0f 42 78 f4	 cmovb	 edi, DWORD PTR [eax-12]
  01222	57		 push	 edi
  01223	50		 push	 eax
  01224	8d 85 95 fe ff
	ff		 lea	 eax, DWORD PTR _stOut$[ebp+709]
  0122a	50		 push	 eax
  0122b	e8 00 00 00 00	 call	 _memcpy

; 287  : 
; 288  : 	int nSize = sizeof(k01230Out1);
; 289  : 
; 290  : 	char* pDataBuf = NULL;
; 291  : 	pDataBuf = new char[nSize+1];

  01230	68 1e 04 00 00	 push	 1054			; 0000041eH
  01235	e8 00 00 00 00	 call	 ??_U@YAPAXI@Z		; operator new[]
  0123a	8b d8		 mov	 ebx, eax

; 292  : 	memset(pDataBuf, 0x00, nSize+1);
; 293  : 	memcpy(pDataBuf, &stOut, sizeof(stOut));

  0123c	8d b5 d0 fb ff
	ff		 lea	 esi, DWORD PTR _stOut$[ebp]
  01242	b9 07 01 00 00	 mov	 ecx, 263		; 00000107H
  01247	8b fb		 mov	 edi, ebx
  01249	83 c4 10	 add	 esp, 16			; 00000010H
  0124c	c6 83 1d 04 00
	00 00		 mov	 BYTE PTR [ebx+1053], 0
  01253	f3 a5		 rep movsd

; 294  : 
; 295  : 	return pDataBuf;

  01255	8d 8d c4 fb ff
	ff		 lea	 ecx, DWORD PTR _strSrc$[ebp]
  0125b	a4		 movsb
  0125c	ff 15 00 00 00
	00		 call	 DWORD PTR __imp_??1?$CStringT@DV?$StrTraitMFC_DLL@DV?$ChTraitsCRT@D@ATL@@@@@ATL@@QAE@XZ
  01262	8d 8d c8 fb ff
	ff		 lea	 ecx, DWORD PTR _strNode$[ebp]
  01268	ff 15 00 00 00
	00		 call	 DWORD PTR __imp_??1?$CStringT@DV?$StrTraitMFC_DLL@DV?$ChTraitsCRT@D@ATL@@@@@ATL@@QAE@XZ
  0126e	8b c3		 mov	 eax, ebx

; 296  : }

  01270	8b 4d f4	 mov	 ecx, DWORD PTR __$EHRec$[ebp]
  01273	64 89 0d 00 00
	00 00		 mov	 DWORD PTR fs:0, ecx
  0127a	59		 pop	 ecx
  0127b	5f		 pop	 edi
  0127c	5e		 pop	 esi
  0127d	5b		 pop	 ebx
  0127e	8b 4d f0	 mov	 ecx, DWORD PTR __$ArrayPad$[ebp]
  01281	33 cd		 xor	 ecx, ebp
  01283	e8 00 00 00 00	 call	 @__security_check_cookie@4
  01288	8b e5		 mov	 esp, ebp
  0128a	5d		 pop	 ebp
  0128b	c2 10 00	 ret	 16			; 00000010H
_TEXT	ENDS
;	COMDAT text$x
text$x	SEGMENT
__unwindfunclet$?Convert2Struct@CChartItemSHoga@@QAEPADPAEHHAAH@Z$0:
  00000	8d 8d c8 fb ff
	ff		 lea	 ecx, DWORD PTR _strNode$[ebp]
  00006	ff 25 00 00 00
	00		 jmp	 DWORD PTR __imp_??1?$CStringT@DV?$StrTraitMFC_DLL@DV?$ChTraitsCRT@D@ATL@@@@@ATL@@QAE@XZ
__unwindfunclet$?Convert2Struct@CChartItemSHoga@@QAEPADPAEHHAAH@Z$1:
  0000c	8d 8d c4 fb ff
	ff		 lea	 ecx, DWORD PTR _strSrc$[ebp]
  00012	ff 25 00 00 00
	00		 jmp	 DWORD PTR __imp_??1?$CStringT@DV?$StrTraitMFC_DLL@DV?$ChTraitsCRT@D@ATL@@@@@ATL@@QAE@XZ
__unwindfunclet$?Convert2Struct@CChartItemSHoga@@QAEPADPAEHHAAH@Z$3:
  00018	8d 8d cc fb ff
	ff		 lea	 ecx, DWORD PTR $T42[ebp]
  0001e	ff 25 00 00 00
	00		 jmp	 DWORD PTR __imp_??1?$CStringT@DV?$StrTraitMFC_DLL@DV?$ChTraitsCRT@D@ATL@@@@@ATL@@QAE@XZ
__unwindfunclet$?Convert2Struct@CChartItemSHoga@@QAEPADPAEHHAAH@Z$5:
  00024	8d 8d cc fb ff
	ff		 lea	 ecx, DWORD PTR $T41[ebp]
  0002a	ff 25 00 00 00
	00		 jmp	 DWORD PTR __imp_??1?$CStringT@DV?$StrTraitMFC_DLL@DV?$ChTraitsCRT@D@ATL@@@@@ATL@@QAE@XZ
__unwindfunclet$?Convert2Struct@CChartItemSHoga@@QAEPADPAEHHAAH@Z$7:
  00030	8d 8d cc fb ff
	ff		 lea	 ecx, DWORD PTR $T40[ebp]
  00036	ff 25 00 00 00
	00		 jmp	 DWORD PTR __imp_??1?$CStringT@DV?$StrTraitMFC_DLL@DV?$ChTraitsCRT@D@ATL@@@@@ATL@@QAE@XZ
__unwindfunclet$?Convert2Struct@CChartItemSHoga@@QAEPADPAEHHAAH@Z$9:
  0003c	8d 8d cc fb ff
	ff		 lea	 ecx, DWORD PTR $T39[ebp]
  00042	ff 25 00 00 00
	00		 jmp	 DWORD PTR __imp_??1?$CStringT@DV?$StrTraitMFC_DLL@DV?$ChTraitsCRT@D@ATL@@@@@ATL@@QAE@XZ
__unwindfunclet$?Convert2Struct@CChartItemSHoga@@QAEPADPAEHHAAH@Z$11:
  00048	8d 8d cc fb ff
	ff		 lea	 ecx, DWORD PTR $T38[ebp]
  0004e	ff 25 00 00 00
	00		 jmp	 DWORD PTR __imp_??1?$CStringT@DV?$StrTraitMFC_DLL@DV?$ChTraitsCRT@D@ATL@@@@@ATL@@QAE@XZ
__unwindfunclet$?Convert2Struct@CChartItemSHoga@@QAEPADPAEHHAAH@Z$13:
  00054	8d 8d cc fb ff
	ff		 lea	 ecx, DWORD PTR $T37[ebp]
  0005a	ff 25 00 00 00
	00		 jmp	 DWORD PTR __imp_??1?$CStringT@DV?$StrTraitMFC_DLL@DV?$ChTraitsCRT@D@ATL@@@@@ATL@@QAE@XZ
__unwindfunclet$?Convert2Struct@CChartItemSHoga@@QAEPADPAEHHAAH@Z$15:
  00060	8d 8d cc fb ff
	ff		 lea	 ecx, DWORD PTR $T36[ebp]
  00066	ff 25 00 00 00
	00		 jmp	 DWORD PTR __imp_??1?$CStringT@DV?$StrTraitMFC_DLL@DV?$ChTraitsCRT@D@ATL@@@@@ATL@@QAE@XZ
__unwindfunclet$?Convert2Struct@CChartItemSHoga@@QAEPADPAEHHAAH@Z$17:
  0006c	8d 8d cc fb ff
	ff		 lea	 ecx, DWORD PTR $T35[ebp]
  00072	ff 25 00 00 00
	00		 jmp	 DWORD PTR __imp_??1?$CStringT@DV?$StrTraitMFC_DLL@DV?$ChTraitsCRT@D@ATL@@@@@ATL@@QAE@XZ
__unwindfunclet$?Convert2Struct@CChartItemSHoga@@QAEPADPAEHHAAH@Z$19:
  00078	8d 8d cc fb ff
	ff		 lea	 ecx, DWORD PTR $T34[ebp]
  0007e	ff 25 00 00 00
	00		 jmp	 DWORD PTR __imp_??1?$CStringT@DV?$StrTraitMFC_DLL@DV?$ChTraitsCRT@D@ATL@@@@@ATL@@QAE@XZ
__unwindfunclet$?Convert2Struct@CChartItemSHoga@@QAEPADPAEHHAAH@Z$21:
  00084	8d 8d cc fb ff
	ff		 lea	 ecx, DWORD PTR $T33[ebp]
  0008a	ff 25 00 00 00
	00		 jmp	 DWORD PTR __imp_??1?$CStringT@DV?$StrTraitMFC_DLL@DV?$ChTraitsCRT@D@ATL@@@@@ATL@@QAE@XZ
__unwindfunclet$?Convert2Struct@CChartItemSHoga@@QAEPADPAEHHAAH@Z$23:
  00090	8d 8d cc fb ff
	ff		 lea	 ecx, DWORD PTR $T32[ebp]
  00096	ff 25 00 00 00
	00		 jmp	 DWORD PTR __imp_??1?$CStringT@DV?$StrTraitMFC_DLL@DV?$ChTraitsCRT@D@ATL@@@@@ATL@@QAE@XZ
__unwindfunclet$?Convert2Struct@CChartItemSHoga@@QAEPADPAEHHAAH@Z$25:
  0009c	8d 8d cc fb ff
	ff		 lea	 ecx, DWORD PTR $T31[ebp]
  000a2	ff 25 00 00 00
	00		 jmp	 DWORD PTR __imp_??1?$CStringT@DV?$StrTraitMFC_DLL@DV?$ChTraitsCRT@D@ATL@@@@@ATL@@QAE@XZ
__unwindfunclet$?Convert2Struct@CChartItemSHoga@@QAEPADPAEHHAAH@Z$27:
  000a8	8d 8d cc fb ff
	ff		 lea	 ecx, DWORD PTR $T30[ebp]
  000ae	ff 25 00 00 00
	00		 jmp	 DWORD PTR __imp_??1?$CStringT@DV?$StrTraitMFC_DLL@DV?$ChTraitsCRT@D@ATL@@@@@ATL@@QAE@XZ
__unwindfunclet$?Convert2Struct@CChartItemSHoga@@QAEPADPAEHHAAH@Z$29:
  000b4	8d 8d cc fb ff
	ff		 lea	 ecx, DWORD PTR $T29[ebp]
  000ba	ff 25 00 00 00
	00		 jmp	 DWORD PTR __imp_??1?$CStringT@DV?$StrTraitMFC_DLL@DV?$ChTraitsCRT@D@ATL@@@@@ATL@@QAE@XZ
__unwindfunclet$?Convert2Struct@CChartItemSHoga@@QAEPADPAEHHAAH@Z$31:
  000c0	8d 8d cc fb ff
	ff		 lea	 ecx, DWORD PTR $T28[ebp]
  000c6	ff 25 00 00 00
	00		 jmp	 DWORD PTR __imp_??1?$CStringT@DV?$StrTraitMFC_DLL@DV?$ChTraitsCRT@D@ATL@@@@@ATL@@QAE@XZ
__unwindfunclet$?Convert2Struct@CChartItemSHoga@@QAEPADPAEHHAAH@Z$33:
  000cc	8d 8d cc fb ff
	ff		 lea	 ecx, DWORD PTR $T27[ebp]
  000d2	ff 25 00 00 00
	00		 jmp	 DWORD PTR __imp_??1?$CStringT@DV?$StrTraitMFC_DLL@DV?$ChTraitsCRT@D@ATL@@@@@ATL@@QAE@XZ
__unwindfunclet$?Convert2Struct@CChartItemSHoga@@QAEPADPAEHHAAH@Z$35:
  000d8	8d 8d cc fb ff
	ff		 lea	 ecx, DWORD PTR $T26[ebp]
  000de	ff 25 00 00 00
	00		 jmp	 DWORD PTR __imp_??1?$CStringT@DV?$StrTraitMFC_DLL@DV?$ChTraitsCRT@D@ATL@@@@@ATL@@QAE@XZ
__unwindfunclet$?Convert2Struct@CChartItemSHoga@@QAEPADPAEHHAAH@Z$37:
  000e4	8d 8d cc fb ff
	ff		 lea	 ecx, DWORD PTR $T25[ebp]
  000ea	ff 25 00 00 00
	00		 jmp	 DWORD PTR __imp_??1?$CStringT@DV?$StrTraitMFC_DLL@DV?$ChTraitsCRT@D@ATL@@@@@ATL@@QAE@XZ
__unwindfunclet$?Convert2Struct@CChartItemSHoga@@QAEPADPAEHHAAH@Z$39:
  000f0	8d 8d cc fb ff
	ff		 lea	 ecx, DWORD PTR $T24[ebp]
  000f6	ff 25 00 00 00
	00		 jmp	 DWORD PTR __imp_??1?$CStringT@DV?$StrTraitMFC_DLL@DV?$ChTraitsCRT@D@ATL@@@@@ATL@@QAE@XZ
__unwindfunclet$?Convert2Struct@CChartItemSHoga@@QAEPADPAEHHAAH@Z$41:
  000fc	8d 8d cc fb ff
	ff		 lea	 ecx, DWORD PTR $T23[ebp]
  00102	ff 25 00 00 00
	00		 jmp	 DWORD PTR __imp_??1?$CStringT@DV?$StrTraitMFC_DLL@DV?$ChTraitsCRT@D@ATL@@@@@ATL@@QAE@XZ
__unwindfunclet$?Convert2Struct@CChartItemSHoga@@QAEPADPAEHHAAH@Z$43:
  00108	8d 8d cc fb ff
	ff		 lea	 ecx, DWORD PTR $T22[ebp]
  0010e	ff 25 00 00 00
	00		 jmp	 DWORD PTR __imp_??1?$CStringT@DV?$StrTraitMFC_DLL@DV?$ChTraitsCRT@D@ATL@@@@@ATL@@QAE@XZ
__unwindfunclet$?Convert2Struct@CChartItemSHoga@@QAEPADPAEHHAAH@Z$45:
  00114	8d 8d cc fb ff
	ff		 lea	 ecx, DWORD PTR $T21[ebp]
  0011a	ff 25 00 00 00
	00		 jmp	 DWORD PTR __imp_??1?$CStringT@DV?$StrTraitMFC_DLL@DV?$ChTraitsCRT@D@ATL@@@@@ATL@@QAE@XZ
__unwindfunclet$?Convert2Struct@CChartItemSHoga@@QAEPADPAEHHAAH@Z$47:
  00120	8d 8d cc fb ff
	ff		 lea	 ecx, DWORD PTR $T20[ebp]
  00126	ff 25 00 00 00
	00		 jmp	 DWORD PTR __imp_??1?$CStringT@DV?$StrTraitMFC_DLL@DV?$ChTraitsCRT@D@ATL@@@@@ATL@@QAE@XZ
__unwindfunclet$?Convert2Struct@CChartItemSHoga@@QAEPADPAEHHAAH@Z$49:
  0012c	8d 8d cc fb ff
	ff		 lea	 ecx, DWORD PTR $T19[ebp]
  00132	ff 25 00 00 00
	00		 jmp	 DWORD PTR __imp_??1?$CStringT@DV?$StrTraitMFC_DLL@DV?$ChTraitsCRT@D@ATL@@@@@ATL@@QAE@XZ
__unwindfunclet$?Convert2Struct@CChartItemSHoga@@QAEPADPAEHHAAH@Z$51:
  00138	8d 8d cc fb ff
	ff		 lea	 ecx, DWORD PTR $T18[ebp]
  0013e	ff 25 00 00 00
	00		 jmp	 DWORD PTR __imp_??1?$CStringT@DV?$StrTraitMFC_DLL@DV?$ChTraitsCRT@D@ATL@@@@@ATL@@QAE@XZ
__unwindfunclet$?Convert2Struct@CChartItemSHoga@@QAEPADPAEHHAAH@Z$53:
  00144	8d 8d cc fb ff
	ff		 lea	 ecx, DWORD PTR $T17[ebp]
  0014a	ff 25 00 00 00
	00		 jmp	 DWORD PTR __imp_??1?$CStringT@DV?$StrTraitMFC_DLL@DV?$ChTraitsCRT@D@ATL@@@@@ATL@@QAE@XZ
__unwindfunclet$?Convert2Struct@CChartItemSHoga@@QAEPADPAEHHAAH@Z$55:
  00150	8d 8d cc fb ff
	ff		 lea	 ecx, DWORD PTR $T16[ebp]
  00156	ff 25 00 00 00
	00		 jmp	 DWORD PTR __imp_??1?$CStringT@DV?$StrTraitMFC_DLL@DV?$ChTraitsCRT@D@ATL@@@@@ATL@@QAE@XZ
__unwindfunclet$?Convert2Struct@CChartItemSHoga@@QAEPADPAEHHAAH@Z$57:
  0015c	8d 8d cc fb ff
	ff		 lea	 ecx, DWORD PTR $T15[ebp]
  00162	ff 25 00 00 00
	00		 jmp	 DWORD PTR __imp_??1?$CStringT@DV?$StrTraitMFC_DLL@DV?$ChTraitsCRT@D@ATL@@@@@ATL@@QAE@XZ
__unwindfunclet$?Convert2Struct@CChartItemSHoga@@QAEPADPAEHHAAH@Z$59:
  00168	8d 8d cc fb ff
	ff		 lea	 ecx, DWORD PTR $T14[ebp]
  0016e	ff 25 00 00 00
	00		 jmp	 DWORD PTR __imp_??1?$CStringT@DV?$StrTraitMFC_DLL@DV?$ChTraitsCRT@D@ATL@@@@@ATL@@QAE@XZ
__unwindfunclet$?Convert2Struct@CChartItemSHoga@@QAEPADPAEHHAAH@Z$61:
  00174	8d 8d cc fb ff
	ff		 lea	 ecx, DWORD PTR $T13[ebp]
  0017a	ff 25 00 00 00
	00		 jmp	 DWORD PTR __imp_??1?$CStringT@DV?$StrTraitMFC_DLL@DV?$ChTraitsCRT@D@ATL@@@@@ATL@@QAE@XZ
__unwindfunclet$?Convert2Struct@CChartItemSHoga@@QAEPADPAEHHAAH@Z$63:
  00180	8d 8d cc fb ff
	ff		 lea	 ecx, DWORD PTR $T12[ebp]
  00186	ff 25 00 00 00
	00		 jmp	 DWORD PTR __imp_??1?$CStringT@DV?$StrTraitMFC_DLL@DV?$ChTraitsCRT@D@ATL@@@@@ATL@@QAE@XZ
__unwindfunclet$?Convert2Struct@CChartItemSHoga@@QAEPADPAEHHAAH@Z$65:
  0018c	8d 8d cc fb ff
	ff		 lea	 ecx, DWORD PTR $T11[ebp]
  00192	ff 25 00 00 00
	00		 jmp	 DWORD PTR __imp_??1?$CStringT@DV?$StrTraitMFC_DLL@DV?$ChTraitsCRT@D@ATL@@@@@ATL@@QAE@XZ
__unwindfunclet$?Convert2Struct@CChartItemSHoga@@QAEPADPAEHHAAH@Z$67:
  00198	8d 8d cc fb ff
	ff		 lea	 ecx, DWORD PTR $T10[ebp]
  0019e	ff 25 00 00 00
	00		 jmp	 DWORD PTR __imp_??1?$CStringT@DV?$StrTraitMFC_DLL@DV?$ChTraitsCRT@D@ATL@@@@@ATL@@QAE@XZ
__unwindfunclet$?Convert2Struct@CChartItemSHoga@@QAEPADPAEHHAAH@Z$69:
  001a4	8d 8d cc fb ff
	ff		 lea	 ecx, DWORD PTR $T9[ebp]
  001aa	ff 25 00 00 00
	00		 jmp	 DWORD PTR __imp_??1?$CStringT@DV?$StrTraitMFC_DLL@DV?$ChTraitsCRT@D@ATL@@@@@ATL@@QAE@XZ
__unwindfunclet$?Convert2Struct@CChartItemSHoga@@QAEPADPAEHHAAH@Z$71:
  001b0	8d 8d cc fb ff
	ff		 lea	 ecx, DWORD PTR $T8[ebp]
  001b6	ff 25 00 00 00
	00		 jmp	 DWORD PTR __imp_??1?$CStringT@DV?$StrTraitMFC_DLL@DV?$ChTraitsCRT@D@ATL@@@@@ATL@@QAE@XZ
__unwindfunclet$?Convert2Struct@CChartItemSHoga@@QAEPADPAEHHAAH@Z$73:
  001bc	8d 8d cc fb ff
	ff		 lea	 ecx, DWORD PTR $T7[ebp]
  001c2	ff 25 00 00 00
	00		 jmp	 DWORD PTR __imp_??1?$CStringT@DV?$StrTraitMFC_DLL@DV?$ChTraitsCRT@D@ATL@@@@@ATL@@QAE@XZ
__unwindfunclet$?Convert2Struct@CChartItemSHoga@@QAEPADPAEHHAAH@Z$75:
  001c8	8d 8d cc fb ff
	ff		 lea	 ecx, DWORD PTR $T6[ebp]
  001ce	ff 25 00 00 00
	00		 jmp	 DWORD PTR __imp_??1?$CStringT@DV?$StrTraitMFC_DLL@DV?$ChTraitsCRT@D@ATL@@@@@ATL@@QAE@XZ
__unwindfunclet$?Convert2Struct@CChartItemSHoga@@QAEPADPAEHHAAH@Z$77:
  001d4	8d 8d cc fb ff
	ff		 lea	 ecx, DWORD PTR $T5[ebp]
  001da	ff 25 00 00 00
	00		 jmp	 DWORD PTR __imp_??1?$CStringT@DV?$StrTraitMFC_DLL@DV?$ChTraitsCRT@D@ATL@@@@@ATL@@QAE@XZ
__unwindfunclet$?Convert2Struct@CChartItemSHoga@@QAEPADPAEHHAAH@Z$79:
  001e0	8d 8d cc fb ff
	ff		 lea	 ecx, DWORD PTR $T4[ebp]
  001e6	ff 25 00 00 00
	00		 jmp	 DWORD PTR __imp_??1?$CStringT@DV?$StrTraitMFC_DLL@DV?$ChTraitsCRT@D@ATL@@@@@ATL@@QAE@XZ
__unwindfunclet$?Convert2Struct@CChartItemSHoga@@QAEPADPAEHHAAH@Z$81:
  001ec	8d 8d cc fb ff
	ff		 lea	 ecx, DWORD PTR $T3[ebp]
  001f2	ff 25 00 00 00
	00		 jmp	 DWORD PTR __imp_??1?$CStringT@DV?$StrTraitMFC_DLL@DV?$ChTraitsCRT@D@ATL@@@@@ATL@@QAE@XZ
__unwindfunclet$?Convert2Struct@CChartItemSHoga@@QAEPADPAEHHAAH@Z$83:
  001f8	8d 8d cc fb ff
	ff		 lea	 ecx, DWORD PTR $T2[ebp]
  001fe	ff 25 00 00 00
	00		 jmp	 DWORD PTR __imp_??1?$CStringT@DV?$StrTraitMFC_DLL@DV?$ChTraitsCRT@D@ATL@@@@@ATL@@QAE@XZ
  00204	cc		 int	 3
  00205	cc		 int	 3
  00206	cc		 int	 3
  00207	cc		 int	 3
  00208	cc		 int	 3
__ehhandler$?Convert2Struct@CChartItemSHoga@@QAEPADPAEHHAAH@Z:
  00209	90		 npad	 1
  0020a	90		 npad	 1
  0020b	8b 54 24 08	 mov	 edx, DWORD PTR [esp+8]
  0020f	8d 42 0c	 lea	 eax, DWORD PTR [edx+12]
  00212	8b 8a c0 fb ff
	ff		 mov	 ecx, DWORD PTR [edx-1088]
  00218	33 c8		 xor	 ecx, eax
  0021a	e8 00 00 00 00	 call	 @__security_check_cookie@4
  0021f	8b 4a fc	 mov	 ecx, DWORD PTR [edx-4]
  00222	33 c8		 xor	 ecx, eax
  00224	e8 00 00 00 00	 call	 @__security_check_cookie@4
  00229	b8 00 00 00 00	 mov	 eax, OFFSET __ehfuncinfo$?Convert2Struct@CChartItemSHoga@@QAEPADPAEHHAAH@Z
  0022e	e9 00 00 00 00	 jmp	 ___CxxFrameHandler3
text$x	ENDS
?Convert2Struct@CChartItemSHoga@@QAEPADPAEHHAAH@Z ENDP	; CChartItemSHoga::Convert2Struct
; Function compile flags: /Ogtp
; File D:\git\src\IBK\IBK_DRFN\ProjSrc\SrcDrfn\DrCommon\PartnerMng\ChartItemSHoga.cpp
;	COMDAT ?Convert@CChartItemSHoga@@QAE?AV?$CStringT@DV?$StrTraitMFC_DLL@DV?$ChTraitsCRT@D@ATL@@@@@ATL@@XZ
_TEXT	SEGMENT
$T2 = -24						; size = 4
_strCode$ = -20						; size = 4
_strData$ = -16						; size = 4
__$EHRec$ = -12						; size = 12
___$ReturnUdt$ = 8					; size = 4
?Convert@CChartItemSHoga@@QAE?AV?$CStringT@DV?$StrTraitMFC_DLL@DV?$ChTraitsCRT@D@ATL@@@@@ATL@@XZ PROC ; CChartItemSHoga::Convert, COMDAT
; _this$ = ecx

; 94   : {

  00000	55		 push	 ebp
  00001	8b ec		 mov	 ebp, esp
  00003	6a ff		 push	 -1
  00005	68 00 00 00 00	 push	 __ehhandler$?Convert@CChartItemSHoga@@QAE?AV?$CStringT@DV?$StrTraitMFC_DLL@DV?$ChTraitsCRT@D@ATL@@@@@ATL@@XZ
  0000a	64 a1 00 00 00
	00		 mov	 eax, DWORD PTR fs:0
  00010	50		 push	 eax
  00011	83 ec 0c	 sub	 esp, 12			; 0000000cH
  00014	56		 push	 esi
  00015	57		 push	 edi
  00016	a1 00 00 00 00	 mov	 eax, DWORD PTR ___security_cookie
  0001b	33 c5		 xor	 eax, ebp
  0001d	50		 push	 eax
  0001e	8d 45 f4	 lea	 eax, DWORD PTR __$EHRec$[ebp]
  00021	64 a3 00 00 00
	00		 mov	 DWORD PTR fs:0, eax
  00027	8b f9		 mov	 edi, ecx

; 95   : 	if(!m_bSet) return "";

  00029	80 7f 0f 00	 cmp	 BYTE PTR [edi+15], 0
  0002d	75 13		 jne	 SHORT $LN5@Convert
  0002f	8b 4d 08	 mov	 ecx, DWORD PTR ___$ReturnUdt$[ebp]
  00032	68 00 00 00 00	 push	 OFFSET ??_C@_00CNPNBAHC@@
  00037	ff 15 00 00 00
	00		 call	 DWORD PTR __imp_??0?$CStringT@DV?$StrTraitMFC_DLL@DV?$ChTraitsCRT@D@ATL@@@@@ATL@@QAE@PBD@Z
  0003d	e9 ce 00 00 00	 jmp	 $LN17@Convert
$LN5@Convert:

; 96   : 
; 97   : 	int i;
; 98   : 	CString strData, strCode;

  00042	8d 4d f0	 lea	 ecx, DWORD PTR _strData$[ebp]
  00045	ff 15 00 00 00
	00		 call	 DWORD PTR __imp_??0?$CStringT@DV?$StrTraitMFC_DLL@DV?$ChTraitsCRT@D@ATL@@@@@ATL@@QAE@XZ
  0004b	8d 4d ec	 lea	 ecx, DWORD PTR _strCode$[ebp]
  0004e	c7 45 fc 00 00
	00 00		 mov	 DWORD PTR __$EHRec$[ebp+8], 0
  00055	ff 15 00 00 00
	00		 call	 DWORD PTR __imp_??0?$CStringT@DV?$StrTraitMFC_DLL@DV?$ChTraitsCRT@D@ATL@@@@@ATL@@QAE@XZ

; 99   : 
; 100  : 	strCode = CString(m_InData.shcode, sizeof(m_InData.shcode));

  0005b	6a 06		 push	 6
  0005d	8d 47 08	 lea	 eax, DWORD PTR [edi+8]
  00060	c6 45 fc 01	 mov	 BYTE PTR __$EHRec$[ebp+8], 1
  00064	50		 push	 eax
  00065	8d 4d e8	 lea	 ecx, DWORD PTR $T2[ebp]
  00068	ff 15 00 00 00
	00		 call	 DWORD PTR __imp_??0?$CStringT@DV?$StrTraitMFC_DLL@DV?$ChTraitsCRT@D@ATL@@@@@ATL@@QAE@PBDH@Z
  0006e	50		 push	 eax
  0006f	8d 4d ec	 lea	 ecx, DWORD PTR _strCode$[ebp]
  00072	c6 45 fc 02	 mov	 BYTE PTR __$EHRec$[ebp+8], 2
  00076	ff 15 00 00 00
	00		 call	 DWORD PTR __imp_??4?$CStringT@DV?$StrTraitMFC_DLL@DV?$ChTraitsCRT@D@ATL@@@@@ATL@@QAEAAV01@ABV01@@Z
  0007c	8d 4d e8	 lea	 ecx, DWORD PTR $T2[ebp]
  0007f	c6 45 fc 01	 mov	 BYTE PTR __$EHRec$[ebp+8], 1
  00083	ff 15 00 00 00
	00		 call	 DWORD PTR __imp_??1?$CStringT@DV?$StrTraitMFC_DLL@DV?$ChTraitsCRT@D@ATL@@@@@ATL@@QAE@XZ

; 101  : 
; 102  : 	//////////////////////////////////////////////////////////////////////////
; 103  : 	// Inbound 데이터 작성
; 104  : 	//////////////////////////////////////////////////////////////////////////
; 105  : 	// 차트 데이터
; 106  : 	strData += "1301"; // 종목코드 Input 심볼

  00089	68 00 00 00 00	 push	 OFFSET ??_C@_04KFDECMLJ@1301@
  0008e	8d 4d f0	 lea	 ecx, DWORD PTR _strData$[ebp]
  00091	ff 15 00 00 00
	00		 call	 DWORD PTR __imp_??Y?$CStringT@DV?$StrTraitMFC_DLL@DV?$ChTraitsCRT@D@ATL@@@@@ATL@@QAEAAV01@PBD@Z

; 107  : 	strData += sDS;

  00097	6a 7f		 push	 127			; 0000007fH
  00099	8d 4d f0	 lea	 ecx, DWORD PTR _strData$[ebp]
  0009c	ff 15 00 00 00
	00		 call	 DWORD PTR __imp_??Y?$CStringT@DV?$StrTraitMFC_DLL@DV?$ChTraitsCRT@D@ATL@@@@@ATL@@QAEAAV01@D@Z

; 108  : 
; 109  : 	strData += strCode;

  000a2	8d 45 ec	 lea	 eax, DWORD PTR _strCode$[ebp]
  000a5	50		 push	 eax
  000a6	8d 4d f0	 lea	 ecx, DWORD PTR _strData$[ebp]
  000a9	ff 15 00 00 00
	00		 call	 DWORD PTR __imp_??Y?$CStringT@DV?$StrTraitMFC_DLL@DV?$ChTraitsCRT@D@ATL@@@@@ATL@@QAEAAV01@ABV?$CSimpleStringT@D$00@1@@Z

; 110  : 	strData += sCELL;

  000af	6a 09		 push	 9
  000b1	8d 4d f0	 lea	 ecx, DWORD PTR _strData$[ebp]
  000b4	ff 15 00 00 00
	00		 call	 DWORD PTR __imp_??Y?$CStringT@DV?$StrTraitMFC_DLL@DV?$ChTraitsCRT@D@ATL@@@@@ATL@@QAEAAV01@D@Z

; 111  : 
; 112  : 	//////////////////////////////////////////////////////////////////////////
; 113  : 	// 종목 시세 OutBound
; 114  : 	for (i=0; i<m_nCnt; i++)

  000ba	33 f6		 xor	 esi, esi
  000bc	39 77 04	 cmp	 DWORD PTR [edi+4], esi
  000bf	7e 30		 jle	 SHORT $LN3@Convert
  000c1	0f 1f 40 00 66
	66 66 0f 1f 84
	00 00 00 00 00	 npad	 15
$LL4@Convert:

; 115  : 	{
; 116  : 		strData += szHogaField[i];

  000d0	ff 34 b5 00 00
	00 00		 push	 DWORD PTR ?szHogaField@@3PAPADA[esi*4]
  000d7	8d 4d f0	 lea	 ecx, DWORD PTR _strData$[ebp]
  000da	ff 15 00 00 00
	00		 call	 DWORD PTR __imp_??Y?$CStringT@DV?$StrTraitMFC_DLL@DV?$ChTraitsCRT@D@ATL@@@@@ATL@@QAEAAV01@PBD@Z

; 117  : 		strData += sCELL;

  000e0	6a 09		 push	 9
  000e2	8d 4d f0	 lea	 ecx, DWORD PTR _strData$[ebp]
  000e5	ff 15 00 00 00
	00		 call	 DWORD PTR __imp_??Y?$CStringT@DV?$StrTraitMFC_DLL@DV?$ChTraitsCRT@D@ATL@@@@@ATL@@QAEAAV01@D@Z
  000eb	46		 inc	 esi
  000ec	3b 77 04	 cmp	 esi, DWORD PTR [edi+4]
  000ef	7c df		 jl	 SHORT $LL4@Convert
$LN3@Convert:

; 118  : 	}
; 119  : 
; 120  : 	return strData;

  000f1	8b 4d 08	 mov	 ecx, DWORD PTR ___$ReturnUdt$[ebp]
  000f4	8d 45 f0	 lea	 eax, DWORD PTR _strData$[ebp]
  000f7	50		 push	 eax
  000f8	ff 15 00 00 00
	00		 call	 DWORD PTR __imp_??0?$CStringT@DV?$StrTraitMFC_DLL@DV?$ChTraitsCRT@D@ATL@@@@@ATL@@QAE@ABV01@@Z
  000fe	8d 4d ec	 lea	 ecx, DWORD PTR _strCode$[ebp]
  00101	ff 15 00 00 00
	00		 call	 DWORD PTR __imp_??1?$CStringT@DV?$StrTraitMFC_DLL@DV?$ChTraitsCRT@D@ATL@@@@@ATL@@QAE@XZ
  00107	8d 4d f0	 lea	 ecx, DWORD PTR _strData$[ebp]
  0010a	ff 15 00 00 00
	00		 call	 DWORD PTR __imp_??1?$CStringT@DV?$StrTraitMFC_DLL@DV?$ChTraitsCRT@D@ATL@@@@@ATL@@QAE@XZ
$LN17@Convert:

; 121  : }

  00110	8b 45 08	 mov	 eax, DWORD PTR ___$ReturnUdt$[ebp]
  00113	8b 4d f4	 mov	 ecx, DWORD PTR __$EHRec$[ebp]
  00116	64 89 0d 00 00
	00 00		 mov	 DWORD PTR fs:0, ecx
  0011d	59		 pop	 ecx
  0011e	5f		 pop	 edi
  0011f	5e		 pop	 esi
  00120	8b e5		 mov	 esp, ebp
  00122	5d		 pop	 ebp
  00123	c2 04 00	 ret	 4
_TEXT	ENDS
;	COMDAT text$x
text$x	SEGMENT
__unwindfunclet$?Convert@CChartItemSHoga@@QAE?AV?$CStringT@DV?$StrTraitMFC_DLL@DV?$ChTraitsCRT@D@ATL@@@@@ATL@@XZ$1:
  00000	8d 4d f0	 lea	 ecx, DWORD PTR _strData$[ebp]
  00003	ff 25 00 00 00
	00		 jmp	 DWORD PTR __imp_??1?$CStringT@DV?$StrTraitMFC_DLL@DV?$ChTraitsCRT@D@ATL@@@@@ATL@@QAE@XZ
__unwindfunclet$?Convert@CChartItemSHoga@@QAE?AV?$CStringT@DV?$StrTraitMFC_DLL@DV?$ChTraitsCRT@D@ATL@@@@@ATL@@XZ$2:
  00009	8d 4d ec	 lea	 ecx, DWORD PTR _strCode$[ebp]
  0000c	ff 25 00 00 00
	00		 jmp	 DWORD PTR __imp_??1?$CStringT@DV?$StrTraitMFC_DLL@DV?$ChTraitsCRT@D@ATL@@@@@ATL@@QAE@XZ
__unwindfunclet$?Convert@CChartItemSHoga@@QAE?AV?$CStringT@DV?$StrTraitMFC_DLL@DV?$ChTraitsCRT@D@ATL@@@@@ATL@@XZ$3:
  00012	8d 4d e8	 lea	 ecx, DWORD PTR $T2[ebp]
  00015	ff 25 00 00 00
	00		 jmp	 DWORD PTR __imp_??1?$CStringT@DV?$StrTraitMFC_DLL@DV?$ChTraitsCRT@D@ATL@@@@@ATL@@QAE@XZ
  0001b	cc		 int	 3
  0001c	cc		 int	 3
  0001d	cc		 int	 3
  0001e	cc		 int	 3
  0001f	cc		 int	 3
__ehhandler$?Convert@CChartItemSHoga@@QAE?AV?$CStringT@DV?$StrTraitMFC_DLL@DV?$ChTraitsCRT@D@ATL@@@@@ATL@@XZ:
  00020	90		 npad	 1
  00021	90		 npad	 1
  00022	8b 54 24 08	 mov	 edx, DWORD PTR [esp+8]
  00026	8d 42 0c	 lea	 eax, DWORD PTR [edx+12]
  00029	8b 4a e8	 mov	 ecx, DWORD PTR [edx-24]
  0002c	33 c8		 xor	 ecx, eax
  0002e	e8 00 00 00 00	 call	 @__security_check_cookie@4
  00033	b8 00 00 00 00	 mov	 eax, OFFSET __ehfuncinfo$?Convert@CChartItemSHoga@@QAE?AV?$CStringT@DV?$StrTraitMFC_DLL@DV?$ChTraitsCRT@D@ATL@@@@@ATL@@XZ
  00038	e9 00 00 00 00	 jmp	 ___CxxFrameHandler3
text$x	ENDS
?Convert@CChartItemSHoga@@QAE?AV?$CStringT@DV?$StrTraitMFC_DLL@DV?$ChTraitsCRT@D@ATL@@@@@ATL@@XZ ENDP ; CChartItemSHoga::Convert
; Function compile flags: /Ogtp
; File D:\git\src\IBK\IBK_DRFN\ProjSrc\SrcDrfn\DrCommon\PartnerMng\ChartItemSHoga.cpp
;	COMDAT ?SetInData@CChartItemSHoga@@QAEXPAU_k01230In1@@@Z
_TEXT	SEGMENT
_pData$ = 8						; size = 4
?SetInData@CChartItemSHoga@@QAEXPAU_k01230In1@@@Z PROC	; CChartItemSHoga::SetInData, COMDAT
; _this$ = ecx

; 85   : {

  00000	55		 push	 ebp
  00001	8b ec		 mov	 ebp, esp

; 86   : 	memcpy(&m_InData, pData, sizeof(k01230In1));

  00003	8b 55 08	 mov	 edx, DWORD PTR _pData$[ebp]
  00006	8b 02		 mov	 eax, DWORD PTR [edx]
  00008	89 41 08	 mov	 DWORD PTR [ecx+8], eax
  0000b	66 8b 42 04	 mov	 ax, WORD PTR [edx+4]
  0000f	66 89 41 0c	 mov	 WORD PTR [ecx+12], ax
  00013	8a 42 06	 mov	 al, BYTE PTR [edx+6]
  00016	88 41 0e	 mov	 BYTE PTR [ecx+14], al

; 87   : 	m_bSet = TRUE;

  00019	c6 41 0f 01	 mov	 BYTE PTR [ecx+15], 1

; 88   : }

  0001d	5d		 pop	 ebp
  0001e	c2 04 00	 ret	 4
?SetInData@CChartItemSHoga@@QAEXPAU_k01230In1@@@Z ENDP	; CChartItemSHoga::SetInData
_TEXT	ENDS
; Function compile flags: /Ogtp
; File D:\git\src\IBK\IBK_DRFN\ProjSrc\SrcDrfn\DrCommon\PartnerMng\ChartItemSHoga.cpp
;	COMDAT ??1CChartItemSHoga@@UAE@XZ
_TEXT	SEGMENT
??1CChartItemSHoga@@UAE@XZ PROC				; CChartItemSHoga::~CChartItemSHoga, COMDAT
; _this$ = ecx

; 80   : {

  00000	c7 01 00 00 00
	00		 mov	 DWORD PTR [ecx], OFFSET ??_7CChartItemSHoga@@6B@

; 81   : 
; 82   : }

  00006	c3		 ret	 0
??1CChartItemSHoga@@UAE@XZ ENDP				; CChartItemSHoga::~CChartItemSHoga
_TEXT	ENDS
; Function compile flags: /Ogtp
; File D:\git\src\IBK\IBK_DRFN\ProjSrc\SrcDrfn\DrCommon\PartnerMng\ChartItemSHoga.cpp
;	COMDAT ??0CChartItemSHoga@@QAE@XZ
_TEXT	SEGMENT
??0CChartItemSHoga@@QAE@XZ PROC				; CChartItemSHoga::CChartItemSHoga, COMDAT
; _this$ = ecx

; 70   : 	m_bSet = FALSE;
; 71   : 
; 72   : 	int nIndex = 0;

  00000	33 c0		 xor	 eax, eax
  00002	c7 01 00 00 00
	00		 mov	 DWORD PTR [ecx], OFFSET ??_7CChartItemSHoga@@6B@
  00008	c6 41 0f 00	 mov	 BYTE PTR [ecx+15], 0

; 73   : 	while (szHogaField[nIndex] != NULL)

  0000c	39 05 00 00 00
	00		 cmp	 DWORD PTR ?szHogaField@@3PAPADA, eax
  00012	74 0b		 je	 SHORT $LN9@CChartItem
$LL2@CChartItem:

; 74   : 		nIndex++;

  00014	40		 inc	 eax
  00015	83 3c 85 00 00
	00 00 00	 cmp	 DWORD PTR ?szHogaField@@3PAPADA[eax*4], 0
  0001d	75 f5		 jne	 SHORT $LL2@CChartItem
$LN9@CChartItem:

; 75   : 
; 76   : 	m_nCnt = nIndex;
; 77   : }

  0001f	89 41 04	 mov	 DWORD PTR [ecx+4], eax
  00022	8b c1		 mov	 eax, ecx
  00024	c3		 ret	 0
??0CChartItemSHoga@@QAE@XZ ENDP				; CChartItemSHoga::CChartItemSHoga
_TEXT	ENDS
; Function compile flags: /Ogtp
; File D:\git\src\IBK\IBK_DRFN\ProjSrc\SrcDrfn\Chart\commontr\TRDefine.h
;	COMDAT ??__ERMSG_GETSIGNAL_REAL@@YAXXZ
text$di	SEGMENT
??__ERMSG_GETSIGNAL_REAL@@YAXXZ PROC			; `dynamic initializer for 'RMSG_GETSIGNAL_REAL'', COMDAT

; 213  : const UINT RMSG_GETSIGNAL_REAL = ::RegisterWindowMessage(_T("RMSG_GETSIGNAL_REAL"));

  00000	68 00 00 00 00	 push	 OFFSET ??_C@_0BE@FJPKENOB@RMSG_GETSIGNAL_REAL@
  00005	ff 15 00 00 00
	00		 call	 DWORD PTR __imp__RegisterWindowMessageA@4
  0000b	a3 00 00 00 00	 mov	 DWORD PTR ?RMSG_GETSIGNAL_REAL@@3IB, eax
  00010	c3		 ret	 0
??__ERMSG_GETSIGNAL_REAL@@YAXXZ ENDP			; `dynamic initializer for 'RMSG_GETSIGNAL_REAL''
text$di	ENDS
; Function compile flags: /Ogtp
; File D:\git\src\IBK\IBK_DRFN\ProjSrc\SrcDrfn\inc\IBaseDefine.h
;	COMDAT ??__ERMSG_SETPCTRDATA@@YAXXZ
text$di	SEGMENT
??__ERMSG_SETPCTRDATA@@YAXXZ PROC			; `dynamic initializer for 'RMSG_SETPCTRDATA'', COMDAT

; 172  : const UINT RMSG_SETPCTRDATA = ::RegisterWindowMessage("RMSG_SETPCTRDATA");

  00000	68 00 00 00 00	 push	 OFFSET ??_C@_0BB@JPACFCL@RMSG_SETPCTRDATA@
  00005	ff 15 00 00 00
	00		 call	 DWORD PTR __imp__RegisterWindowMessageA@4
  0000b	a3 00 00 00 00	 mov	 DWORD PTR ?RMSG_SETPCTRDATA@@3IB, eax
  00010	c3		 ret	 0
??__ERMSG_SETPCTRDATA@@YAXXZ ENDP			; `dynamic initializer for 'RMSG_SETPCTRDATA''
text$di	ENDS
; Function compile flags: /Ogtp
; File D:\git\src\IBK\IBK_DRFN\ProjSrc\SrcDrfn\inc\IBaseDefine.h
;	COMDAT ??__ERMSG_GETPCTRDATA@@YAXXZ
text$di	SEGMENT
??__ERMSG_GETPCTRDATA@@YAXXZ PROC			; `dynamic initializer for 'RMSG_GETPCTRDATA'', COMDAT

; 171  : const UINT RMSG_GETPCTRDATA = ::RegisterWindowMessage("RMSG_GETPCTRDATA");

  00000	68 00 00 00 00	 push	 OFFSET ??_C@_0BB@GOOPDKI@RMSG_GETPCTRDATA@
  00005	ff 15 00 00 00
	00		 call	 DWORD PTR __imp__RegisterWindowMessageA@4
  0000b	a3 00 00 00 00	 mov	 DWORD PTR ?RMSG_GETPCTRDATA@@3IB, eax
  00010	c3		 ret	 0
??__ERMSG_GETPCTRDATA@@YAXXZ ENDP			; `dynamic initializer for 'RMSG_GETPCTRDATA''
text$di	ENDS
; Function compile flags: /Ogtp
; File D:\git\src\IBK\IBK_DRFN\ProjSrc\SrcDrfn\inc\IBaseDefine.h
;	COMDAT ??__ERMSG_INTERFACE@@YAXXZ
text$di	SEGMENT
??__ERMSG_INTERFACE@@YAXXZ PROC				; `dynamic initializer for 'RMSG_INTERFACE'', COMDAT

; 170  : const UINT RMSG_INTERFACE = ::RegisterWindowMessage("RMSG_INTERFACE");

  00000	68 00 00 00 00	 push	 OFFSET ??_C@_0P@BKKCOCLK@RMSG_INTERFACE@
  00005	ff 15 00 00 00
	00		 call	 DWORD PTR __imp__RegisterWindowMessageA@4
  0000b	a3 00 00 00 00	 mov	 DWORD PTR ?RMSG_INTERFACE@@3IB, eax
  00010	c3		 ret	 0
??__ERMSG_INTERFACE@@YAXXZ ENDP				; `dynamic initializer for 'RMSG_INTERFACE''
text$di	ENDS
; Function compile flags: /Ogtp
; File D:\git\src\IBK\IBK_DRFN\ProjSrc\SrcDrfn\DrCommon\PartnerMng\ChartItemSHoga.cpp
;	COMDAT ?__empty_global_delete@@YAXPAXI@Z
_TEXT	SEGMENT
___formal$ = 8						; size = 4
___formal$ = 12						; size = 4
?__empty_global_delete@@YAXPAXI@Z PROC			; __empty_global_delete, COMDAT

  00000	c2 00 00	 ret	 0
?__empty_global_delete@@YAXPAXI@Z ENDP			; __empty_global_delete
_TEXT	ENDS
; Function compile flags: /Ogtp
; File D:\git\src\IBK\IBK_DRFN\ProjSrc\SrcDrfn\DrCommon\PartnerMng\ChartItemSHoga.cpp
;	COMDAT ?__empty_global_delete@@YAXPAX@Z
_TEXT	SEGMENT
___formal$ = 8						; size = 4
?__empty_global_delete@@YAXPAX@Z PROC			; __empty_global_delete, COMDAT

  00000	c2 00 00	 ret	 0
?__empty_global_delete@@YAXPAX@Z ENDP			; __empty_global_delete
_TEXT	ENDS
END
