; Listing generated by Microsoft (R) Optimizing Compiler Version 19.29.30145.0 

	TITLE	D:\git\src\IBK\IBK_DRFN\#DRfn-CS\_Obj\PartnerMng\DataConverter.obj
	.686P
	.XMM
	include listing.inc
	.model	flat

INCLUDELIB MSVCRT
INCLUDELIB OLDNAMES

PUBLIC	??_C@_0P@BKKCOCLK@RMSG_INTERFACE@		; `string'
PUBLIC	??_C@_0BB@GOOPDKI@RMSG_GETPCTRDATA@		; `string'
PUBLIC	??_C@_0BB@JPACFCL@RMSG_SETPCTRDATA@		; `string'
PUBLIC	??_C@_0BE@FJPKENOB@RMSG_GETSIGNAL_REAL@		; `string'
;	COMDAT ??_C@_0BE@FJPKENOB@RMSG_GETSIGNAL_REAL@
CONST	SEGMENT
??_C@_0BE@FJPKENOB@RMSG_GETSIGNAL_REAL@ DB 'RMSG_GETSIGNAL_REAL', 00H ; `string'
CONST	ENDS
;	COMDAT ??_C@_0BB@JPACFCL@RMSG_SETPCTRDATA@
CONST	SEGMENT
??_C@_0BB@JPACFCL@RMSG_SETPCTRDATA@ DB 'RMSG_SETPCTRDATA', 00H ; `string'
CONST	ENDS
;	COMDAT ??_C@_0BB@GOOPDKI@RMSG_GETPCTRDATA@
CONST	SEGMENT
??_C@_0BB@GOOPDKI@RMSG_GETPCTRDATA@ DB 'RMSG_GETPCTRDATA', 00H ; `string'
CONST	ENDS
;	COMDAT ??_C@_0P@BKKCOCLK@RMSG_INTERFACE@
CONST	SEGMENT
??_C@_0P@BKKCOCLK@RMSG_INTERFACE@ DB 'RMSG_INTERFACE', 00H ; `string'
CONST	ENDS
PUBLIC	?__empty_global_delete@@YAXPAX@Z		; __empty_global_delete
PUBLIC	?__empty_global_delete@@YAXPAXI@Z		; __empty_global_delete
PUBLIC	??0CChartBozoInput@@QAE@XZ			; CChartBozoInput::CChartBozoInput
PUBLIC	??0CChartBozoInput@@QAE@ABV0@@Z			; CChartBozoInput::CChartBozoInput
PUBLIC	?Copy@CChartBozoInput@@UAEXABV1@@Z		; CChartBozoInput::Copy
PUBLIC	??4CChartBozoInput@@UAEAAV0@ABV0@@Z		; CChartBozoInput::operator=
PUBLIC	??1CChartBozoInput@@QAE@XZ			; CChartBozoInput::~CChartBozoInput
PUBLIC	??0CDataConverter@@QAE@XZ			; CDataConverter::CDataConverter
PUBLIC	??1CDataConverter@@UAE@XZ			; CDataConverter::~CDataConverter
PUBLIC	?GetCodeType@CDataConverter@@QAEHV?$CStringT@DV?$StrTraitMFC_DLL@DV?$ChTraitsCRT@D@ATL@@@@@ATL@@@Z ; CDataConverter::GetCodeType
PUBLIC	?ConvertToFid@CDataConverter@@QAE?AV?$CStringT@DV?$StrTraitMFC_DLL@DV?$ChTraitsCRT@D@ATL@@@@@ATL@@V23@PAXH@Z ; CDataConverter::ConvertToFid
PUBLIC	?Convert2Struct@CDataConverter@@QAEPADPAEHHAAH@Z ; CDataConverter::Convert2Struct
PUBLIC	?Convert2Struct@CDataConverter@@QAEPADPAEHV?$CStringT@DV?$StrTraitMFC_DLL@DV?$ChTraitsCRT@D@ATL@@@@@ATL@@AAH@Z ; CDataConverter::Convert2Struct
PUBLIC	?GetTrNo@CDataConverter@@QAE?AV?$CStringT@DV?$StrTraitMFC_DLL@DV?$ChTraitsCRT@D@ATL@@@@@ATL@@H@Z ; CDataConverter::GetTrNo
PUBLIC	?Parser@CDataConverter@@SA?AV?$CStringT@DV?$StrTraitMFC_DLL@DV?$ChTraitsCRT@D@ATL@@@@@ATL@@AAV23@V23@@Z ; CDataConverter::Parser
PUBLIC	?Get_PercentData@CDataConverter@@SA?AV?$CStringT@DV?$StrTraitMFC_DLL@DV?$ChTraitsCRT@D@ATL@@@@@ATL@@PADNH@Z ; CDataConverter::Get_PercentData
PUBLIC	?Parser2@CDataConverter@@SAHPADDAAV?$CStringT@DV?$StrTraitMFC_DLL@DV?$ChTraitsCRT@D@ATL@@@@@ATL@@@Z ; CDataConverter::Parser2
PUBLIC	?TbondPrcLToF@CDataConverter@@SAHDHNAAV?$CStringT@DV?$StrTraitMFC_DLL@DV?$ChTraitsCRT@D@ATL@@@@@ATL@@@Z ; CDataConverter::TbondPrcLToF
PUBLIC	?GetDecimalRate@CDataConverter@@SADV?$CStringT@DV?$StrTraitMFC_DLL@DV?$ChTraitsCRT@D@ATL@@@@@ATL@@AAHAANAAV23@@Z ; CDataConverter::GetDecimalRate
PUBLIC	?DataSeparation@CDataConverter@@SANV?$CStringT@DV?$StrTraitMFC_DLL@DV?$ChTraitsCRT@D@ATL@@@@@ATL@@H@Z ; CDataConverter::DataSeparation
PUBLIC	?GetTimeIndexInfo@CDataConverter@@SA?AV?$CStringT@DV?$StrTraitMFC_DLL@DV?$ChTraitsCRT@D@ATL@@@@@ATL@@HH@Z ; CDataConverter::GetTimeIndexInfo
PUBLIC	?GetBozoData@CDataConverter@@QAE?AVCChartBozoInput@@H@Z ; CDataConverter::GetBozoData
PUBLIC	?GetConv2StructGuideLine@CDataConverter@@QAEPADHAAH@Z ; CDataConverter::GetConv2StructGuideLine
PUBLIC	?Char2String@CDataConverter@@SA?AV?$CStringT@DV?$StrTraitMFC_DLL@DV?$ChTraitsCRT@D@ATL@@@@@ATL@@PADH@Z ; CDataConverter::Char2String
PUBLIC	?Char2Int@CDataConverter@@SAHPADH@Z		; CDataConverter::Char2Int
PUBLIC	?Char2Double@CDataConverter@@SANPADH@Z		; CDataConverter::Char2Double
PUBLIC	?Char2Long@CDataConverter@@SAJPADH@Z		; CDataConverter::Char2Long
PUBLIC	?Get_RateData@CDataConverter@@SA?AV?$CStringT@DV?$StrTraitMFC_DLL@DV?$ChTraitsCRT@D@ATL@@@@@ATL@@PADNH@Z ; CDataConverter::Get_RateData
PUBLIC	??_GCDataConverter@@UAEPAXI@Z			; CDataConverter::`scalar deleting destructor'
PUBLIC	??_C@_02DPKJAMEF@?$CFd@				; `string'
PUBLIC	??_C@_00CNPNBAHC@@				; `string'
PUBLIC	??_7CChartBozoInput@@6B@			; CChartBozoInput::`vftable'
PUBLIC	??_7CDataConverter@@6B@				; CDataConverter::`vftable'
PUBLIC	??_C@_05ELNNMDND@d1010@				; `string'
PUBLIC	??_C@_05FCMGPCJC@d1011@				; `string'
PUBLIC	??_C@_05HJOLKBFB@d1012@				; `string'
PUBLIC	??_C@_05GAPAJABA@d1013@				; `string'
PUBLIC	??_C@_05CPLBAGNH@d1014@				; `string'
PUBLIC	??_C@_05BNIHGEFF@d1016@				; `string'
PUBLIC	??_C@_05DGKKDHJG@d1015@				; `string'
PUBLIC	??_C@_05GFCMPLNO@c1002@				; `string'
PUBLIC	??_C@_05IJKFNIJF@f0201@				; `string'
PUBLIC	??_C@_05DMBEOOBE@d0515@				; `string'
PUBLIC	??_C@_07KDMMOILP@d1012_1@			; `string'
PUBLIC	??_C@_05IDAEEJNL@d1018@				; `string'
PUBLIC	??_C@_07NGBOKMDD@o44003$@			; `string'
PUBLIC	??_C@_07GMOEHFAP@o44010$@			; `string'
PUBLIC	??_C@_0M@FDODDDIP@pfbopoop830@			; `string'
PUBLIC	??_C@_0M@EKPIACMO@pfbopoop831@			; `string'
PUBLIC	??_C@_08OMHJJDIK@pfbopoop@			; `string'
PUBLIC	??_C@_0M@OGLNBELP@pfboaoop840@			; `string'
PUBLIC	??_C@_0N@LGEIEHHI@pfboaoop8402@			; `string'
PUBLIC	??_C@_0M@PPKGCFPO@pfboaoop841@			; `string'
PUBLIC	??_C@_04GEFJINEE@?$CF?42f@			; `string'
PUBLIC	??_C@_05HGNCIFF@d0354@				; `string'
PUBLIC	??_C@_05BOHGBJBE@d0355@				; `string'
PUBLIC	??_C@_05DHBNPEIO@d0366@				; `string'
PUBLIC	??_C@_05COAGMFMP@d0367@				; `string'
PUBLIC	??_C@_05KJJONJAA@d0368@				; `string'
PUBLIC	??_C@_05LAIFOIEB@d0369@				; `string'
PUBLIC	??_C@_06MFLEHPOG@?$CF10?42f@			; `string'
PUBLIC	??_C@_04EBNJJJJI@?$CF?4?$CKs@			; `string'
PUBLIC	??_C@_02DKCKIIND@?$CFs@				; `string'
PUBLIC	??_C@_01NLNLIGKH@?$GA@				; `string'
PUBLIC	??_C@_01GEODFPGF@?8@				; `string'
PUBLIC	??_C@_02NJPGOMH@?$CFf@				; `string'
PUBLIC	??_C@_08JKJCHLHA@?$KB?$LP?5?$CF0?4?$CKf@	; `string'
PUBLIC	??_C@_0O@OAEICDBC@?$KB?$LP?51?1?$CFd?8?$CFd?4?$CFd@ ; `string'
PUBLIC	??_C@_0BE@NHFINKKM@?2Icss?2timesetup?4ini@	; `string'
PUBLIC	??_C@_04OHBONDIN@TIME@				; `string'
PUBLIC	??_C@_05EFFCCOAM@COUNT@				; `string'
PUBLIC	??_C@_01IHBHIGKO@?0@				; `string'
PUBLIC	??_C@_0L@PHGIMCBD@?$LP?x?$LH?$KB?$LN?C?$LA?$KD?$LE?k@ ; `string'
PUBLIC	??_C@_01HIHLOKLC@1@				; `string'
PUBLIC	??_R4CChartBozoInput@@6B@			; CChartBozoInput::`RTTI Complete Object Locator'
PUBLIC	??_R0?AVCChartBozoInput@@@8			; CChartBozoInput `RTTI Type Descriptor'
PUBLIC	??_R3CChartBozoInput@@8				; CChartBozoInput::`RTTI Class Hierarchy Descriptor'
PUBLIC	??_R2CChartBozoInput@@8				; CChartBozoInput::`RTTI Base Class Array'
PUBLIC	??_R1A@?0A@EA@CChartBozoInput@@8		; CChartBozoInput::`RTTI Base Class Descriptor at (0,-1,0,64)'
PUBLIC	??_R4CDataConverter@@6B@			; CDataConverter::`RTTI Complete Object Locator'
PUBLIC	??_R0?AVCDataConverter@@@8			; CDataConverter `RTTI Type Descriptor'
PUBLIC	??_R3CDataConverter@@8				; CDataConverter::`RTTI Class Hierarchy Descriptor'
PUBLIC	??_R2CDataConverter@@8				; CDataConverter::`RTTI Base Class Array'
PUBLIC	??_R1A@?0A@EA@CDataConverter@@8			; CDataConverter::`RTTI Base Class Descriptor at (0,-1,0,64)'
PUBLIC	__real@3f90000000000000
PUBLIC	__real@3fa0000000000000
PUBLIC	__real@3fb0000000000000
PUBLIC	__real@3fc0000000000000
PUBLIC	__real@3fd0000000000000
PUBLIC	__real@3fe0000000000000
PUBLIC	__real@3ff0000000000000
PUBLIC	__real@4024000000000000
PUBLIC	__real@4059000000000000
PUBLIC	__real@4197d783fc000000
EXTRN	??3@YAXPAXI@Z:PROC				; operator delete
EXTRN	??_U@YAPAXI@Z:PROC				; operator new[]
EXTRN	__imp__GetModuleFileNameA@12:PROC
EXTRN	__imp__GetPrivateProfileIntA@16:PROC
EXTRN	__imp__GetPrivateProfileStringA@24:PROC
EXTRN	__imp__RegisterWindowMessageA@4:PROC
EXTRN	__imp__atof:PROC
EXTRN	__imp__atoi:PROC
EXTRN	__imp__atol:PROC
EXTRN	__imp_?Empty@?$CSimpleStringT@D$00@ATL@@QAEXXZ:PROC
EXTRN	__imp_?GetAt@?$CSimpleStringT@D$00@ATL@@QBEDH@Z:PROC
EXTRN	__imp_??0?$CStringT@DV?$StrTraitMFC_DLL@DV?$ChTraitsCRT@D@ATL@@@@@ATL@@QAE@XZ:PROC
EXTRN	__imp_??0?$CStringT@DV?$StrTraitMFC_DLL@DV?$ChTraitsCRT@D@ATL@@@@@ATL@@QAE@ABV01@@Z:PROC
EXTRN	__imp_??0?$CStringT@DV?$StrTraitMFC_DLL@DV?$ChTraitsCRT@D@ATL@@@@@ATL@@QAE@PBD@Z:PROC
EXTRN	__imp_??0?$CStringT@DV?$StrTraitMFC_DLL@DV?$ChTraitsCRT@D@ATL@@@@@ATL@@QAE@PBDH@Z:PROC
EXTRN	__imp_??1?$CStringT@DV?$StrTraitMFC_DLL@DV?$ChTraitsCRT@D@ATL@@@@@ATL@@QAE@XZ:PROC
EXTRN	__imp_??4?$CStringT@DV?$StrTraitMFC_DLL@DV?$ChTraitsCRT@D@ATL@@@@@ATL@@QAEAAV01@ABV01@@Z:PROC
EXTRN	__imp_??4?$CStringT@DV?$StrTraitMFC_DLL@DV?$ChTraitsCRT@D@ATL@@@@@ATL@@QAEAAV01@PBD@Z:PROC
EXTRN	__imp_??Y?$CStringT@DV?$StrTraitMFC_DLL@DV?$ChTraitsCRT@D@ATL@@@@@ATL@@QAEAAV01@PBD@Z:PROC
EXTRN	__imp_?Compare@?$CStringT@DV?$StrTraitMFC_DLL@DV?$ChTraitsCRT@D@ATL@@@@@ATL@@QBEHPBD@Z:PROC
EXTRN	__imp_?CompareNoCase@?$CStringT@DV?$StrTraitMFC_DLL@DV?$ChTraitsCRT@D@ATL@@@@@ATL@@QBEHPBD@Z:PROC
EXTRN	__imp_?Remove@?$CStringT@DV?$StrTraitMFC_DLL@DV?$ChTraitsCRT@D@ATL@@@@@ATL@@QAEHD@Z:PROC
EXTRN	__imp_?Find@?$CStringT@DV?$StrTraitMFC_DLL@DV?$ChTraitsCRT@D@ATL@@@@@ATL@@QBEHDH@Z:PROC
EXTRN	__imp_?Find@?$CStringT@DV?$StrTraitMFC_DLL@DV?$ChTraitsCRT@D@ATL@@@@@ATL@@QBEHPBDH@Z:PROC
EXTRN	__imp_?ReverseFind@?$CStringT@DV?$StrTraitMFC_DLL@DV?$ChTraitsCRT@D@ATL@@@@@ATL@@QBEHD@Z:PROC
EXTRN	__imp_?TrimRight@?$CStringT@DV?$StrTraitMFC_DLL@DV?$ChTraitsCRT@D@ATL@@@@@ATL@@QAEAAV12@XZ:PROC
EXTRN	__imp_?TrimLeft@?$CStringT@DV?$StrTraitMFC_DLL@DV?$ChTraitsCRT@D@ATL@@@@@ATL@@QAEAAV12@XZ:PROC
EXTRN	__imp_?Mid@?$CStringT@DV?$StrTraitMFC_DLL@DV?$ChTraitsCRT@D@ATL@@@@@ATL@@QBE?AV12@H@Z:PROC
EXTRN	__imp_?Left@?$CStringT@DV?$StrTraitMFC_DLL@DV?$ChTraitsCRT@D@ATL@@@@@ATL@@QBE?AV12@H@Z:PROC
EXTRN	__imp_?Format@?$CStringT@DV?$StrTraitMFC_DLL@DV?$ChTraitsCRT@D@ATL@@@@@ATL@@QAAXPBDZZ:PROC
EXTRN	??0CChartItemFO@@QAE@XZ:PROC			; CChartItemFO::CChartItemFO
EXTRN	??1CChartItemFO@@UAE@XZ:PROC			; CChartItemFO::~CChartItemFO
EXTRN	?SetInData@CChartItemFO@@QAEXPAUKB_p0604_InRec1@@@Z:PROC ; CChartItemFO::SetInData
EXTRN	?Convert@CChartItemFO@@QAE?AV?$CStringT@DV?$StrTraitMFC_DLL@DV?$ChTraitsCRT@D@ATL@@@@@ATL@@XZ:PROC ; CChartItemFO::Convert
EXTRN	?Convert2Struct@CChartItemFO@@QAEPADPAEHHAAH@Z:PROC ; CChartItemFO::Convert2Struct
EXTRN	??0CChartItemForeign@@QAE@XZ:PROC		; CChartItemForeign::CChartItemForeign
EXTRN	??1CChartItemForeign@@UAE@XZ:PROC		; CChartItemForeign::~CChartItemForeign
EXTRN	?SetInData@CChartItemForeign@@QAEXPAUKB_p0606_InRec1@@@Z:PROC ; CChartItemForeign::SetInData
EXTRN	?Convert@CChartItemForeign@@QAE?AV?$CStringT@DV?$StrTraitMFC_DLL@DV?$ChTraitsCRT@D@ATL@@@@@ATL@@XZ:PROC ; CChartItemForeign::Convert
EXTRN	?Convert2Struct@CChartItemForeign@@QAEPADPAEHHAAH@Z:PROC ; CChartItemForeign::Convert2Struct
EXTRN	??0CChartItemSFO@@QAE@XZ:PROC			; CChartItemSFO::CChartItemSFO
EXTRN	??1CChartItemSFO@@UAE@XZ:PROC			; CChartItemSFO::~CChartItemSFO
EXTRN	?SetInData@CChartItemSFO@@QAEXPAUKB_d1013_InRec1@@@Z:PROC ; CChartItemSFO::SetInData
EXTRN	?Convert@CChartItemSFO@@QAE?AV?$CStringT@DV?$StrTraitMFC_DLL@DV?$ChTraitsCRT@D@ATL@@@@@ATL@@XZ:PROC ; CChartItemSFO::Convert
EXTRN	?Convert2Struct@CChartItemSFO@@QAEPADPAEHHAAH@Z:PROC ; CChartItemSFO::Convert2Struct
EXTRN	??0CChartItemStock@@QAE@XZ:PROC			; CChartItemStock::CChartItemStock
EXTRN	??1CChartItemStock@@UAE@XZ:PROC			; CChartItemStock::~CChartItemStock
EXTRN	?SetInData@CChartItemStock@@QAEXPAUKB_p0602_InRec1@@@Z:PROC ; CChartItemStock::SetInData
EXTRN	?Convert@CChartItemStock@@QAE?AV?$CStringT@DV?$StrTraitMFC_DLL@DV?$ChTraitsCRT@D@ATL@@@@@ATL@@XZ:PROC ; CChartItemStock::Convert
EXTRN	?Convert2Struct@CChartItemStock@@QAEPADPAEHHAAH@Z:PROC ; CChartItemStock::Convert2Struct
EXTRN	??0CChartItemSHoga@@QAE@XZ:PROC			; CChartItemSHoga::CChartItemSHoga
EXTRN	??1CChartItemSHoga@@UAE@XZ:PROC			; CChartItemSHoga::~CChartItemSHoga
EXTRN	?SetInData@CChartItemSHoga@@QAEXPAU_k01230In1@@@Z:PROC ; CChartItemSHoga::SetInData
EXTRN	?Convert@CChartItemSHoga@@QAE?AV?$CStringT@DV?$StrTraitMFC_DLL@DV?$ChTraitsCRT@D@ATL@@@@@ATL@@XZ:PROC ; CChartItemSHoga::Convert
EXTRN	?Convert2Struct@CChartItemSHoga@@QAEPADPAEHHAAH@Z:PROC ; CChartItemSHoga::Convert2Struct
EXTRN	??0CChartItemUpjong@@QAE@XZ:PROC		; CChartItemUpjong::CChartItemUpjong
EXTRN	??1CChartItemUpjong@@UAE@XZ:PROC		; CChartItemUpjong::~CChartItemUpjong
EXTRN	?SetInData@CChartItemUpjong@@QAEXPAUKB_p0603_InRec1@@@Z:PROC ; CChartItemUpjong::SetInData
EXTRN	?Convert@CChartItemUpjong@@QAE?AV?$CStringT@DV?$StrTraitMFC_DLL@DV?$ChTraitsCRT@D@ATL@@@@@ATL@@XZ:PROC ; CChartItemUpjong::Convert
EXTRN	?Convert2Struct@CChartItemUpjong@@QAEPADPAEHHAAH@Z:PROC ; CChartItemUpjong::Convert2Struct
EXTRN	??0CChartItemMarket@@QAE@XZ:PROC		; CChartItemMarket::CChartItemMarket
EXTRN	??1CChartItemMarket@@UAE@XZ:PROC		; CChartItemMarket::~CChartItemMarket
EXTRN	?SetInData@CChartItemMarket@@QAEXPAUKB_d1015_InRec1@@@Z:PROC ; CChartItemMarket::SetInData
EXTRN	?Convert@CChartItemMarket@@QAE?AV?$CStringT@DV?$StrTraitMFC_DLL@DV?$ChTraitsCRT@D@ATL@@@@@ATL@@XZ:PROC ; CChartItemMarket::Convert
EXTRN	?Convert2Struct@CChartItemMarket@@QAEPADPAEHHAAH@Z:PROC ; CChartItemMarket::Convert2Struct
EXTRN	??0CChartReplay@@QAE@XZ:PROC			; CChartReplay::CChartReplay
EXTRN	??1CChartReplay@@UAE@XZ:PROC			; CChartReplay::~CChartReplay
EXTRN	?SetInData@CChartReplay@@QAEXPAUKB_d1016_InRec1@@@Z:PROC ; CChartReplay::SetInData
EXTRN	?Convert@CChartReplay@@QAE?AV?$CStringT@DV?$StrTraitMFC_DLL@DV?$ChTraitsCRT@D@ATL@@@@@ATL@@XZ:PROC ; CChartReplay::Convert
EXTRN	?Convert2Struct@CChartReplay@@QAEPADPAEHHAAH@Z:PROC ; CChartReplay::Convert2Struct
EXTRN	??0CChartItemFOJipyo@@QAE@XZ:PROC		; CChartItemFOJipyo::CChartItemFOJipyo
EXTRN	??1CChartItemFOJipyo@@UAE@XZ:PROC		; CChartItemFOJipyo::~CChartItemFOJipyo
EXTRN	?SetInData@CChartItemFOJipyo@@QAEXPAUKB_p0515_InRec@@@Z:PROC ; CChartItemFOJipyo::SetInData
EXTRN	?Convert@CChartItemFOJipyo@@QAE?AV?$CStringT@DV?$StrTraitMFC_DLL@DV?$ChTraitsCRT@D@ATL@@@@@ATL@@XZ:PROC ; CChartItemFOJipyo::Convert
EXTRN	?Convert2Struct@CChartItemFOJipyo@@QAEPADPAEHHAAH@Z:PROC ; CChartItemFOJipyo::Convert2Struct
EXTRN	??0CChartItemPreFO@@QAE@XZ:PROC			; CChartItemPreFO::CChartItemPreFO
EXTRN	??1CChartItemPreFO@@UAE@XZ:PROC			; CChartItemPreFO::~CChartItemPreFO
EXTRN	?SetInData@CChartItemPreFO@@QAEXPAUKB_p0604_InRec1@@@Z:PROC ; CChartItemPreFO::SetInData
EXTRN	?Convert@CChartItemPreFO@@QAE?AV?$CStringT@DV?$StrTraitMFC_DLL@DV?$ChTraitsCRT@D@ATL@@@@@ATL@@XZ:PROC ; CChartItemPreFO::Convert
EXTRN	?Convert2Struct@CChartItemPreFO@@QAEPADPAEHHAAH@Z:PROC ; CChartItemPreFO::Convert2Struct
EXTRN	??0CChartItemDollar@@QAE@XZ:PROC		; CChartItemDollar::CChartItemDollar
EXTRN	??1CChartItemDollar@@UAE@XZ:PROC		; CChartItemDollar::~CChartItemDollar
EXTRN	?SetInData@CChartItemDollar@@QAEXPAUKB_d1018_InRec@@@Z:PROC ; CChartItemDollar::SetInData
EXTRN	?Convert@CChartItemDollar@@QAE?AV?$CStringT@DV?$StrTraitMFC_DLL@DV?$ChTraitsCRT@D@ATL@@@@@ATL@@XZ:PROC ; CChartItemDollar::Convert
EXTRN	?Convert2Struct@CChartItemDollar@@QAEPADPAEHHAAH@Z:PROC ; CChartItemDollar::Convert2Struct
EXTRN	??0CChartItemFOHoga@@QAE@XZ:PROC		; CChartItemFOHoga::CChartItemFOHoga
EXTRN	??1CChartItemFOHoga@@UAE@XZ:PROC		; CChartItemFOHoga::~CChartItemFOHoga
EXTRN	?SetInData@CChartItemFOHoga@@QAEXPAUKB_f0201_InRec1@@@Z:PROC ; CChartItemFOHoga::SetInData
EXTRN	?Convert@CChartItemFOHoga@@QAE?AV?$CStringT@DV?$StrTraitMFC_DLL@DV?$ChTraitsCRT@D@ATL@@@@@ATL@@XZ:PROC ; CChartItemFOHoga::Convert
EXTRN	?Convert2Struct@CChartItemFOHoga@@QAEPADPAEHV?$CStringT@DV?$StrTraitMFC_DLL@DV?$ChTraitsCRT@D@ATL@@@@@ATL@@AAH@Z:PROC ; CChartItemFOHoga::Convert2Struct
EXTRN	??0CChartItemFX@@QAE@XZ:PROC			; CChartItemFX::CChartItemFX
EXTRN	??1CChartItemFX@@UAE@XZ:PROC			; CChartItemFX::~CChartItemFX
EXTRN	?SetInData@CChartItemFX@@QAEXPAUSM_fx112_InRec1@@@Z:PROC ; CChartItemFX::SetInData
EXTRN	?Convert@CChartItemFX@@QAE?AV?$CStringT@DV?$StrTraitMFC_DLL@DV?$ChTraitsCRT@D@ATL@@@@@ATL@@XZ:PROC ; CChartItemFX::Convert
EXTRN	?Convert2Struct@CChartItemFX@@QAEPADPAEHHAAH@Z:PROC ; CChartItemFX::Convert2Struct
EXTRN	??0CChartItemFXChe@@QAE@XZ:PROC			; CChartItemFXChe::CChartItemFXChe
EXTRN	??1CChartItemFXChe@@UAE@XZ:PROC			; CChartItemFXChe::~CChartItemFXChe
EXTRN	?SetInData@CChartItemFXChe@@QAEXPAUFX_CHE_RQ_INPUT@@@Z:PROC ; CChartItemFXChe::SetInData
EXTRN	?SetTR@CChartItemFXChe@@QAEXV?$CStringT@DV?$StrTraitMFC_DLL@DV?$ChTraitsCRT@D@ATL@@@@@ATL@@@Z:PROC ; CChartItemFXChe::SetTR
EXTRN	?Convert@CChartItemFXChe@@QAE?AV?$CStringT@DV?$StrTraitMFC_DLL@DV?$ChTraitsCRT@D@ATL@@@@@ATL@@XZ:PROC ; CChartItemFXChe::Convert
EXTRN	?Convert2Struct@CChartItemFXChe@@QAEPADPAEHHAAH@Z:PROC ; CChartItemFXChe::Convert2Struct
EXTRN	??0CChartItemFXJan@@QAE@XZ:PROC			; CChartItemFXJan::CChartItemFXJan
EXTRN	??1CChartItemFXJan@@UAE@XZ:PROC			; CChartItemFXJan::~CChartItemFXJan
EXTRN	?SetInData@CChartItemFXJan@@QAEXPAUFX_CHE_RQ_INPUT@@@Z:PROC ; CChartItemFXJan::SetInData
EXTRN	?SetTR@CChartItemFXJan@@QAEXV?$CStringT@DV?$StrTraitMFC_DLL@DV?$ChTraitsCRT@D@ATL@@@@@ATL@@@Z:PROC ; CChartItemFXJan::SetTR
EXTRN	?Convert@CChartItemFXJan@@QAE?AV?$CStringT@DV?$StrTraitMFC_DLL@DV?$ChTraitsCRT@D@ATL@@@@@ATL@@XZ:PROC ; CChartItemFXJan::Convert
EXTRN	?Convert2Struct@CChartItemFXJan@@QAEPADPAEHHAAH@Z:PROC ; CChartItemFXJan::Convert2Struct
EXTRN	??0CChartItemFOForeign@@QAE@XZ:PROC		; CChartItemFOForeign::CChartItemFOForeign
EXTRN	??1CChartItemFOForeign@@UAE@XZ:PROC		; CChartItemFOForeign::~CChartItemFOForeign
EXTRN	?SetInData@CChartItemFOForeign@@QAEXPAU_HCQ03010_IN@@@Z:PROC ; CChartItemFOForeign::SetInData
EXTRN	?Convert@CChartItemFOForeign@@QAE?AV?$CStringT@DV?$StrTraitMFC_DLL@DV?$ChTraitsCRT@D@ATL@@@@@ATL@@XZ:PROC ; CChartItemFOForeign::Convert
EXTRN	?Convert2Struct@CChartItemFOForeign@@QAEPADPAEHHAAH@Z:PROC ; CChartItemFOForeign::Convert2Struct
EXTRN	??0CChartItemFOForeignHoga@@QAE@XZ:PROC		; CChartItemFOForeignHoga::CChartItemFOForeignHoga
EXTRN	??1CChartItemFOForeignHoga@@UAE@XZ:PROC		; CChartItemFOForeignHoga::~CChartItemFOForeignHoga
EXTRN	?SetInData@CChartItemFOForeignHoga@@QAEXPAU_HCQ01112_IN@@@Z:PROC ; CChartItemFOForeignHoga::SetInData
EXTRN	?Convert@CChartItemFOForeignHoga@@QAE?AV?$CStringT@DV?$StrTraitMFC_DLL@DV?$ChTraitsCRT@D@ATL@@@@@ATL@@XZ:PROC ; CChartItemFOForeignHoga::Convert
EXTRN	?Convert2Struct@CChartItemFOForeignHoga@@QAEPADPAEHHAAH@Z:PROC ; CChartItemFOForeignHoga::Convert2Struct
EXTRN	??_ECDataConverter@@UAEPAXI@Z:PROC		; CDataConverter::`vector deleting destructor'
EXTRN	@__security_check_cookie@4:PROC
EXTRN	___CxxFrameHandler3:PROC
EXTRN	__libm_sse2_pow_precise:PROC
EXTRN	_memcpy:PROC
EXTRN	_memset:PROC
EXTRN	??_7type_info@@6B@:QWORD			; type_info::`vftable'
EXTRN	___security_cookie:DWORD
EXTRN	__fltused:DWORD
_BSS	SEGMENT
?RMSG_INTERFACE@@3IB DD 01H DUP (?)			; RMSG_INTERFACE
?RMSG_GETPCTRDATA@@3IB DD 01H DUP (?)			; RMSG_GETPCTRDATA
?RMSG_SETPCTRDATA@@3IB DD 01H DUP (?)			; RMSG_SETPCTRDATA
?RMSG_GETSIGNAL_REAL@@3IB DD 01H DUP (?)		; RMSG_GETSIGNAL_REAL
_BSS	ENDS
CRT$XCU	SEGMENT
?RMSG_INTERFACE$initializer$@@3P6AXXZA DD FLAT:??__ERMSG_INTERFACE@@YAXXZ ; RMSG_INTERFACE$initializer$
CRT$XCU	ENDS
;	COMDAT __real@4197d783fc000000
CONST	SEGMENT
__real@4197d783fc000000 DQ 04197d783fc000000r	; 1e+08
CONST	ENDS
;	COMDAT __real@4059000000000000
CONST	SEGMENT
__real@4059000000000000 DQ 04059000000000000r	; 100
CONST	ENDS
;	COMDAT __real@4024000000000000
CONST	SEGMENT
__real@4024000000000000 DQ 04024000000000000r	; 10
CONST	ENDS
;	COMDAT __real@3ff0000000000000
CONST	SEGMENT
__real@3ff0000000000000 DQ 03ff0000000000000r	; 1
CONST	ENDS
;	COMDAT __real@3fe0000000000000
CONST	SEGMENT
__real@3fe0000000000000 DQ 03fe0000000000000r	; 0.5
CONST	ENDS
;	COMDAT __real@3fd0000000000000
CONST	SEGMENT
__real@3fd0000000000000 DQ 03fd0000000000000r	; 0.25
CONST	ENDS
;	COMDAT __real@3fc0000000000000
CONST	SEGMENT
__real@3fc0000000000000 DQ 03fc0000000000000r	; 0.125
CONST	ENDS
;	COMDAT __real@3fb0000000000000
CONST	SEGMENT
__real@3fb0000000000000 DQ 03fb0000000000000r	; 0.0625
CONST	ENDS
;	COMDAT __real@3fa0000000000000
CONST	SEGMENT
__real@3fa0000000000000 DQ 03fa0000000000000r	; 0.03125
CONST	ENDS
;	COMDAT __real@3f90000000000000
CONST	SEGMENT
__real@3f90000000000000 DQ 03f90000000000000r	; 0.015625
CONST	ENDS
;	COMDAT ??_R1A@?0A@EA@CDataConverter@@8
rdata$r	SEGMENT
??_R1A@?0A@EA@CDataConverter@@8 DD FLAT:??_R0?AVCDataConverter@@@8 ; CDataConverter::`RTTI Base Class Descriptor at (0,-1,0,64)'
	DD	00H
	DD	00H
	DD	0ffffffffH
	DD	00H
	DD	040H
	DD	FLAT:??_R3CDataConverter@@8
rdata$r	ENDS
;	COMDAT ??_R2CDataConverter@@8
rdata$r	SEGMENT
??_R2CDataConverter@@8 DD FLAT:??_R1A@?0A@EA@CDataConverter@@8 ; CDataConverter::`RTTI Base Class Array'
rdata$r	ENDS
;	COMDAT ??_R3CDataConverter@@8
rdata$r	SEGMENT
??_R3CDataConverter@@8 DD 00H				; CDataConverter::`RTTI Class Hierarchy Descriptor'
	DD	00H
	DD	01H
	DD	FLAT:??_R2CDataConverter@@8
rdata$r	ENDS
;	COMDAT ??_R0?AVCDataConverter@@@8
data$rs	SEGMENT
??_R0?AVCDataConverter@@@8 DD FLAT:??_7type_info@@6B@	; CDataConverter `RTTI Type Descriptor'
	DD	00H
	DB	'.?AVCDataConverter@@', 00H
data$rs	ENDS
;	COMDAT ??_R4CDataConverter@@6B@
rdata$r	SEGMENT
??_R4CDataConverter@@6B@ DD 00H				; CDataConverter::`RTTI Complete Object Locator'
	DD	00H
	DD	00H
	DD	FLAT:??_R0?AVCDataConverter@@@8
	DD	FLAT:??_R3CDataConverter@@8
rdata$r	ENDS
;	COMDAT ??_R1A@?0A@EA@CChartBozoInput@@8
rdata$r	SEGMENT
??_R1A@?0A@EA@CChartBozoInput@@8 DD FLAT:??_R0?AVCChartBozoInput@@@8 ; CChartBozoInput::`RTTI Base Class Descriptor at (0,-1,0,64)'
	DD	00H
	DD	00H
	DD	0ffffffffH
	DD	00H
	DD	040H
	DD	FLAT:??_R3CChartBozoInput@@8
rdata$r	ENDS
;	COMDAT ??_R2CChartBozoInput@@8
rdata$r	SEGMENT
??_R2CChartBozoInput@@8 DD FLAT:??_R1A@?0A@EA@CChartBozoInput@@8 ; CChartBozoInput::`RTTI Base Class Array'
rdata$r	ENDS
;	COMDAT ??_R3CChartBozoInput@@8
rdata$r	SEGMENT
??_R3CChartBozoInput@@8 DD 00H				; CChartBozoInput::`RTTI Class Hierarchy Descriptor'
	DD	00H
	DD	01H
	DD	FLAT:??_R2CChartBozoInput@@8
rdata$r	ENDS
;	COMDAT ??_R0?AVCChartBozoInput@@@8
data$rs	SEGMENT
??_R0?AVCChartBozoInput@@@8 DD FLAT:??_7type_info@@6B@	; CChartBozoInput `RTTI Type Descriptor'
	DD	00H
	DB	'.?AVCChartBozoInput@@', 00H
data$rs	ENDS
;	COMDAT ??_R4CChartBozoInput@@6B@
rdata$r	SEGMENT
??_R4CChartBozoInput@@6B@ DD 00H			; CChartBozoInput::`RTTI Complete Object Locator'
	DD	00H
	DD	00H
	DD	FLAT:??_R0?AVCChartBozoInput@@@8
	DD	FLAT:??_R3CChartBozoInput@@8
rdata$r	ENDS
;	COMDAT ??_C@_01HIHLOKLC@1@
CONST	SEGMENT
??_C@_01HIHLOKLC@1@ DB '1', 00H				; `string'
CONST	ENDS
;	COMDAT ??_C@_0L@PHGIMCBD@?$LP?x?$LH?$KB?$LN?C?$LA?$KD?$LE?k@
CONST	SEGMENT
??_C@_0L@PHGIMCBD@?$LP?x?$LH?$KB?$LN?C?$LA?$KD?$LE?k@ DB 0bfH, 0f8H, 0b7H
	DB	0a1H, 0bdH, 0c3H, 0b0H, 0a3H, 0b4H, 0ebH, 00H ; `string'
CONST	ENDS
;	COMDAT ??_C@_01IHBHIGKO@?0@
CONST	SEGMENT
??_C@_01IHBHIGKO@?0@ DB ',', 00H			; `string'
CONST	ENDS
;	COMDAT ??_C@_05EFFCCOAM@COUNT@
CONST	SEGMENT
??_C@_05EFFCCOAM@COUNT@ DB 'COUNT', 00H			; `string'
CONST	ENDS
;	COMDAT ??_C@_04OHBONDIN@TIME@
CONST	SEGMENT
??_C@_04OHBONDIN@TIME@ DB 'TIME', 00H			; `string'
CONST	ENDS
;	COMDAT ??_C@_0BE@NHFINKKM@?2Icss?2timesetup?4ini@
CONST	SEGMENT
??_C@_0BE@NHFINKKM@?2Icss?2timesetup?4ini@ DB '\Icss\timesetup.ini', 00H ; `string'
CONST	ENDS
;	COMDAT ??_C@_0O@OAEICDBC@?$KB?$LP?51?1?$CFd?8?$CFd?4?$CFd@
CONST	SEGMENT
??_C@_0O@OAEICDBC@?$KB?$LP?51?1?$CFd?8?$CFd?4?$CFd@ DB 0a1H, 0bfH, ' 1/%d'
	DB	'''%d.%d', 00H				; `string'
CONST	ENDS
;	COMDAT ??_C@_08JKJCHLHA@?$KB?$LP?5?$CF0?4?$CKf@
CONST	SEGMENT
??_C@_08JKJCHLHA@?$KB?$LP?5?$CF0?4?$CKf@ DB 0a1H, 0bfH, ' %0.*f', 00H ; `string'
CONST	ENDS
;	COMDAT ??_C@_02NJPGOMH@?$CFf@
CONST	SEGMENT
??_C@_02NJPGOMH@?$CFf@ DB '%f', 00H			; `string'
CONST	ENDS
;	COMDAT ??_C@_01GEODFPGF@?8@
CONST	SEGMENT
??_C@_01GEODFPGF@?8@ DB '''', 00H			; `string'
CONST	ENDS
;	COMDAT ??_C@_01NLNLIGKH@?$GA@
CONST	SEGMENT
??_C@_01NLNLIGKH@?$GA@ DB '`', 00H			; `string'
CONST	ENDS
;	COMDAT ??_C@_02DKCKIIND@?$CFs@
CONST	SEGMENT
??_C@_02DKCKIIND@?$CFs@ DB '%s', 00H			; `string'
CONST	ENDS
;	COMDAT ??_C@_04EBNJJJJI@?$CF?4?$CKs@
CONST	SEGMENT
??_C@_04EBNJJJJI@?$CF?4?$CKs@ DB '%.*s', 00H		; `string'
CONST	ENDS
;	COMDAT ??_C@_06MFLEHPOG@?$CF10?42f@
CONST	SEGMENT
??_C@_06MFLEHPOG@?$CF10?42f@ DB '%10.2f', 00H		; `string'
CONST	ENDS
;	COMDAT ??_C@_05LAIFOIEB@d0369@
CONST	SEGMENT
??_C@_05LAIFOIEB@d0369@ DB 'd0369', 00H			; `string'
CONST	ENDS
;	COMDAT ??_C@_05KJJONJAA@d0368@
CONST	SEGMENT
??_C@_05KJJONJAA@d0368@ DB 'd0368', 00H			; `string'
CONST	ENDS
;	COMDAT ??_C@_05COAGMFMP@d0367@
CONST	SEGMENT
??_C@_05COAGMFMP@d0367@ DB 'd0367', 00H			; `string'
CONST	ENDS
;	COMDAT ??_C@_05DHBNPEIO@d0366@
CONST	SEGMENT
??_C@_05DHBNPEIO@d0366@ DB 'd0366', 00H			; `string'
CONST	ENDS
;	COMDAT ??_C@_05BOHGBJBE@d0355@
CONST	SEGMENT
??_C@_05BOHGBJBE@d0355@ DB 'd0355', 00H			; `string'
CONST	ENDS
;	COMDAT ??_C@_05HGNCIFF@d0354@
CONST	SEGMENT
??_C@_05HGNCIFF@d0354@ DB 'd0354', 00H			; `string'
CONST	ENDS
;	COMDAT ??_C@_04GEFJINEE@?$CF?42f@
CONST	SEGMENT
??_C@_04GEFJINEE@?$CF?42f@ DB '%.2f', 00H		; `string'
CONST	ENDS
;	COMDAT ??_C@_0M@PPKGCFPO@pfboaoop841@
CONST	SEGMENT
??_C@_0M@PPKGCFPO@pfboaoop841@ DB 'pfboaoop841', 00H	; `string'
CONST	ENDS
;	COMDAT ??_C@_0N@LGEIEHHI@pfboaoop8402@
CONST	SEGMENT
??_C@_0N@LGEIEHHI@pfboaoop8402@ DB 'pfboaoop8402', 00H	; `string'
CONST	ENDS
;	COMDAT ??_C@_0M@OGLNBELP@pfboaoop840@
CONST	SEGMENT
??_C@_0M@OGLNBELP@pfboaoop840@ DB 'pfboaoop840', 00H	; `string'
CONST	ENDS
;	COMDAT ??_C@_08OMHJJDIK@pfbopoop@
CONST	SEGMENT
??_C@_08OMHJJDIK@pfbopoop@ DB 'pfbopoop', 00H		; `string'
CONST	ENDS
;	COMDAT ??_C@_0M@EKPIACMO@pfbopoop831@
CONST	SEGMENT
??_C@_0M@EKPIACMO@pfbopoop831@ DB 'pfbopoop831', 00H	; `string'
CONST	ENDS
;	COMDAT ??_C@_0M@FDODDDIP@pfbopoop830@
CONST	SEGMENT
??_C@_0M@FDODDDIP@pfbopoop830@ DB 'pfbopoop830', 00H	; `string'
CONST	ENDS
;	COMDAT ??_C@_07GMOEHFAP@o44010$@
CONST	SEGMENT
??_C@_07GMOEHFAP@o44010$@ DB 'o44010$', 00H		; `string'
CONST	ENDS
;	COMDAT ??_C@_07NGBOKMDD@o44003$@
CONST	SEGMENT
??_C@_07NGBOKMDD@o44003$@ DB 'o44003$', 00H		; `string'
CONST	ENDS
;	COMDAT ??_C@_05IDAEEJNL@d1018@
CONST	SEGMENT
??_C@_05IDAEEJNL@d1018@ DB 'd1018', 00H			; `string'
CONST	ENDS
;	COMDAT ??_C@_07KDMMOILP@d1012_1@
CONST	SEGMENT
??_C@_07KDMMOILP@d1012_1@ DB 'd1012_1', 00H		; `string'
CONST	ENDS
;	COMDAT ??_C@_05DMBEOOBE@d0515@
CONST	SEGMENT
??_C@_05DMBEOOBE@d0515@ DB 'd0515', 00H			; `string'
CONST	ENDS
;	COMDAT ??_C@_05IJKFNIJF@f0201@
CONST	SEGMENT
??_C@_05IJKFNIJF@f0201@ DB 'f0201', 00H			; `string'
CONST	ENDS
;	COMDAT ??_C@_05GFCMPLNO@c1002@
CONST	SEGMENT
??_C@_05GFCMPLNO@c1002@ DB 'c1002', 00H			; `string'
CONST	ENDS
;	COMDAT ??_C@_05DGKKDHJG@d1015@
CONST	SEGMENT
??_C@_05DGKKDHJG@d1015@ DB 'd1015', 00H			; `string'
CONST	ENDS
;	COMDAT ??_C@_05BNIHGEFF@d1016@
CONST	SEGMENT
??_C@_05BNIHGEFF@d1016@ DB 'd1016', 00H			; `string'
CONST	ENDS
;	COMDAT ??_C@_05CPLBAGNH@d1014@
CONST	SEGMENT
??_C@_05CPLBAGNH@d1014@ DB 'd1014', 00H			; `string'
CONST	ENDS
;	COMDAT ??_C@_05GAPAJABA@d1013@
CONST	SEGMENT
??_C@_05GAPAJABA@d1013@ DB 'd1013', 00H			; `string'
CONST	ENDS
;	COMDAT ??_C@_05HJOLKBFB@d1012@
CONST	SEGMENT
??_C@_05HJOLKBFB@d1012@ DB 'd1012', 00H			; `string'
CONST	ENDS
;	COMDAT ??_C@_05FCMGPCJC@d1011@
CONST	SEGMENT
??_C@_05FCMGPCJC@d1011@ DB 'd1011', 00H			; `string'
CONST	ENDS
;	COMDAT ??_C@_05ELNNMDND@d1010@
CONST	SEGMENT
??_C@_05ELNNMDND@d1010@ DB 'd1010', 00H			; `string'
CONST	ENDS
;	COMDAT ??_7CDataConverter@@6B@
CONST	SEGMENT
??_7CDataConverter@@6B@ DD FLAT:??_R4CDataConverter@@6B@ ; CDataConverter::`vftable'
	DD	FLAT:??_ECDataConverter@@UAEPAXI@Z
CONST	ENDS
;	COMDAT ??_7CChartBozoInput@@6B@
CONST	SEGMENT
??_7CChartBozoInput@@6B@ DD FLAT:??_R4CChartBozoInput@@6B@ ; CChartBozoInput::`vftable'
	DD	FLAT:?Copy@CChartBozoInput@@UAEXABV1@@Z
	DD	FLAT:??4CChartBozoInput@@UAEAAV0@ABV0@@Z
CONST	ENDS
;	COMDAT ??_C@_00CNPNBAHC@@
CONST	SEGMENT
??_C@_00CNPNBAHC@@ DB 00H				; `string'
CONST	ENDS
;	COMDAT ??_C@_02DPKJAMEF@?$CFd@
CONST	SEGMENT
??_C@_02DPKJAMEF@?$CFd@ DB '%d', 00H			; `string'
CONST	ENDS
;	COMDAT xdata$x
xdata$x	SEGMENT
__unwindtable$?GetDir_DrfnRoot@@YAXAAV?$CStringT@DV?$StrTraitMFC_DLL@DV?$ChTraitsCRT@D@ATL@@@@@ATL@@@Z DD 0ffffffffH
	DD	FLAT:__unwindfunclet$?GetDir_DrfnRoot@@YAXAAV?$CStringT@DV?$StrTraitMFC_DLL@DV?$ChTraitsCRT@D@ATL@@@@@ATL@@@Z$0
	DD	00H
	DD	FLAT:__unwindfunclet$?GetDir_DrfnRoot@@YAXAAV?$CStringT@DV?$StrTraitMFC_DLL@DV?$ChTraitsCRT@D@ATL@@@@@ATL@@@Z$1
	DD	00H
	DD	FLAT:__unwindfunclet$?GetDir_DrfnRoot@@YAXAAV?$CStringT@DV?$StrTraitMFC_DLL@DV?$ChTraitsCRT@D@ATL@@@@@ATL@@@Z$2
__ehfuncinfo$?GetDir_DrfnRoot@@YAXAAV?$CStringT@DV?$StrTraitMFC_DLL@DV?$ChTraitsCRT@D@ATL@@@@@ATL@@@Z DD 019930522H
	DD	03H
	DD	FLAT:__unwindtable$?GetDir_DrfnRoot@@YAXAAV?$CStringT@DV?$StrTraitMFC_DLL@DV?$ChTraitsCRT@D@ATL@@@@@ATL@@@Z
	DD	2 DUP(00H)
	DD	2 DUP(00H)
	DD	00H
	DD	01H
xdata$x	ENDS
;	COMDAT xdata$x
xdata$x	SEGMENT
__unwindtable$?Get_RateData@CDataConverter@@SA?AV?$CStringT@DV?$StrTraitMFC_DLL@DV?$ChTraitsCRT@D@ATL@@@@@ATL@@PADNH@Z DD 0ffffffffH
	DD	FLAT:__unwindfunclet$?Get_RateData@CDataConverter@@SA?AV?$CStringT@DV?$StrTraitMFC_DLL@DV?$ChTraitsCRT@D@ATL@@@@@ATL@@PADNH@Z$0
__ehfuncinfo$?Get_RateData@CDataConverter@@SA?AV?$CStringT@DV?$StrTraitMFC_DLL@DV?$ChTraitsCRT@D@ATL@@@@@ATL@@PADNH@Z DD 019930522H
	DD	01H
	DD	FLAT:__unwindtable$?Get_RateData@CDataConverter@@SA?AV?$CStringT@DV?$StrTraitMFC_DLL@DV?$ChTraitsCRT@D@ATL@@@@@ATL@@PADNH@Z
	DD	2 DUP(00H)
	DD	2 DUP(00H)
	DD	00H
	DD	01H
xdata$x	ENDS
;	COMDAT xdata$x
xdata$x	SEGMENT
__unwindtable$?Char2Long@CDataConverter@@SAJPADH@Z DD 0ffffffffH
	DD	FLAT:__unwindfunclet$?Char2Long@CDataConverter@@SAJPADH@Z$0
__ehfuncinfo$?Char2Long@CDataConverter@@SAJPADH@Z DD 019930522H
	DD	01H
	DD	FLAT:__unwindtable$?Char2Long@CDataConverter@@SAJPADH@Z
	DD	2 DUP(00H)
	DD	2 DUP(00H)
	DD	00H
	DD	01H
xdata$x	ENDS
;	COMDAT xdata$x
xdata$x	SEGMENT
__unwindtable$?Char2Double@CDataConverter@@SANPADH@Z DD 0ffffffffH
	DD	FLAT:__unwindfunclet$?Char2Double@CDataConverter@@SANPADH@Z$0
__ehfuncinfo$?Char2Double@CDataConverter@@SANPADH@Z DD 019930522H
	DD	01H
	DD	FLAT:__unwindtable$?Char2Double@CDataConverter@@SANPADH@Z
	DD	2 DUP(00H)
	DD	2 DUP(00H)
	DD	00H
	DD	01H
xdata$x	ENDS
;	COMDAT xdata$x
xdata$x	SEGMENT
__unwindtable$?Char2Int@CDataConverter@@SAHPADH@Z DD 0ffffffffH
	DD	FLAT:__unwindfunclet$?Char2Int@CDataConverter@@SAHPADH@Z$0
__ehfuncinfo$?Char2Int@CDataConverter@@SAHPADH@Z DD 019930522H
	DD	01H
	DD	FLAT:__unwindtable$?Char2Int@CDataConverter@@SAHPADH@Z
	DD	2 DUP(00H)
	DD	2 DUP(00H)
	DD	00H
	DD	01H
xdata$x	ENDS
;	COMDAT xdata$x
xdata$x	SEGMENT
__unwindtable$?Char2String@CDataConverter@@SA?AV?$CStringT@DV?$StrTraitMFC_DLL@DV?$ChTraitsCRT@D@ATL@@@@@ATL@@PADH@Z DD 0ffffffffH
	DD	FLAT:__unwindfunclet$?Char2String@CDataConverter@@SA?AV?$CStringT@DV?$StrTraitMFC_DLL@DV?$ChTraitsCRT@D@ATL@@@@@ATL@@PADH@Z$0
__ehfuncinfo$?Char2String@CDataConverter@@SA?AV?$CStringT@DV?$StrTraitMFC_DLL@DV?$ChTraitsCRT@D@ATL@@@@@ATL@@PADH@Z DD 019930522H
	DD	01H
	DD	FLAT:__unwindtable$?Char2String@CDataConverter@@SA?AV?$CStringT@DV?$StrTraitMFC_DLL@DV?$ChTraitsCRT@D@ATL@@@@@ATL@@PADH@Z
	DD	2 DUP(00H)
	DD	2 DUP(00H)
	DD	00H
	DD	01H
xdata$x	ENDS
;	COMDAT xdata$x
xdata$x	SEGMENT
__ehfuncinfo$?GetConv2StructGuideLine@CDataConverter@@QAEPADHAAH@Z DD 019930522H
	DD	09H
	DD	FLAT:__unwindtable$?GetConv2StructGuideLine@CDataConverter@@QAEPADHAAH@Z
	DD	2 DUP(00H)
	DD	2 DUP(00H)
	DD	00H
	DD	01H
__unwindtable$?GetConv2StructGuideLine@CDataConverter@@QAEPADHAAH@Z DD 0ffffffffH
	DD	FLAT:__unwindfunclet$?GetConv2StructGuideLine@CDataConverter@@QAEPADHAAH@Z$0
	DD	00H
	DD	FLAT:__unwindfunclet$?GetConv2StructGuideLine@CDataConverter@@QAEPADHAAH@Z$1
	DD	00H
	DD	FLAT:__unwindfunclet$?GetConv2StructGuideLine@CDataConverter@@QAEPADHAAH@Z$2
	DD	00H
	DD	FLAT:__unwindfunclet$?GetConv2StructGuideLine@CDataConverter@@QAEPADHAAH@Z$3
	DD	00H
	DD	FLAT:__unwindfunclet$?GetConv2StructGuideLine@CDataConverter@@QAEPADHAAH@Z$4
	DD	00H
	DD	FLAT:__unwindfunclet$?GetConv2StructGuideLine@CDataConverter@@QAEPADHAAH@Z$5
	DD	00H
	DD	FLAT:__unwindfunclet$?GetConv2StructGuideLine@CDataConverter@@QAEPADHAAH@Z$6
	DD	00H
	DD	FLAT:__unwindfunclet$?GetConv2StructGuideLine@CDataConverter@@QAEPADHAAH@Z$7
	DD	00H
	DD	FLAT:__unwindfunclet$?GetConv2StructGuideLine@CDataConverter@@QAEPADHAAH@Z$8
xdata$x	ENDS
;	COMDAT xdata$x
xdata$x	SEGMENT
__unwindtable$?GetBozoData@CDataConverter@@QAE?AVCChartBozoInput@@H@Z DD 0ffffffffH
	DD	FLAT:__unwindfunclet$?GetBozoData@CDataConverter@@QAE?AVCChartBozoInput@@H@Z$0
__ehfuncinfo$?GetBozoData@CDataConverter@@QAE?AVCChartBozoInput@@H@Z DD 019930522H
	DD	01H
	DD	FLAT:__unwindtable$?GetBozoData@CDataConverter@@QAE?AVCChartBozoInput@@H@Z
	DD	2 DUP(00H)
	DD	2 DUP(00H)
	DD	00H
	DD	01H
xdata$x	ENDS
;	COMDAT xdata$x
xdata$x	SEGMENT
__ehfuncinfo$?GetTimeIndexInfo@CDataConverter@@SA?AV?$CStringT@DV?$StrTraitMFC_DLL@DV?$ChTraitsCRT@D@ATL@@@@@ATL@@HH@Z DD 019930522H
	DD	011H
	DD	FLAT:__unwindtable$?GetTimeIndexInfo@CDataConverter@@SA?AV?$CStringT@DV?$StrTraitMFC_DLL@DV?$ChTraitsCRT@D@ATL@@@@@ATL@@HH@Z
	DD	2 DUP(00H)
	DD	2 DUP(00H)
	DD	00H
	DD	01H
__unwindtable$?GetTimeIndexInfo@CDataConverter@@SA?AV?$CStringT@DV?$StrTraitMFC_DLL@DV?$ChTraitsCRT@D@ATL@@@@@ATL@@HH@Z DD 0ffffffffH
	DD	FLAT:__unwindfunclet$?GetTimeIndexInfo@CDataConverter@@SA?AV?$CStringT@DV?$StrTraitMFC_DLL@DV?$ChTraitsCRT@D@ATL@@@@@ATL@@HH@Z$0
	DD	00H
	DD	FLAT:__unwindfunclet$?GetTimeIndexInfo@CDataConverter@@SA?AV?$CStringT@DV?$StrTraitMFC_DLL@DV?$ChTraitsCRT@D@ATL@@@@@ATL@@HH@Z$1
	DD	01H
	DD	FLAT:__unwindfunclet$?GetTimeIndexInfo@CDataConverter@@SA?AV?$CStringT@DV?$StrTraitMFC_DLL@DV?$ChTraitsCRT@D@ATL@@@@@ATL@@HH@Z$2
	DD	02H
	DD	FLAT:__unwindfunclet$?GetTimeIndexInfo@CDataConverter@@SA?AV?$CStringT@DV?$StrTraitMFC_DLL@DV?$ChTraitsCRT@D@ATL@@@@@ATL@@HH@Z$3
	DD	03H
	DD	FLAT:__unwindfunclet$?GetTimeIndexInfo@CDataConverter@@SA?AV?$CStringT@DV?$StrTraitMFC_DLL@DV?$ChTraitsCRT@D@ATL@@@@@ATL@@HH@Z$4
	DD	04H
	DD	FLAT:__unwindfunclet$?GetTimeIndexInfo@CDataConverter@@SA?AV?$CStringT@DV?$StrTraitMFC_DLL@DV?$ChTraitsCRT@D@ATL@@@@@ATL@@HH@Z$5
	DD	05H
	DD	FLAT:__unwindfunclet$?GetTimeIndexInfo@CDataConverter@@SA?AV?$CStringT@DV?$StrTraitMFC_DLL@DV?$ChTraitsCRT@D@ATL@@@@@ATL@@HH@Z$6
	DD	06H
	DD	FLAT:__unwindfunclet$?GetTimeIndexInfo@CDataConverter@@SA?AV?$CStringT@DV?$StrTraitMFC_DLL@DV?$ChTraitsCRT@D@ATL@@@@@ATL@@HH@Z$7
	DD	07H
	DD	FLAT:__unwindfunclet$?GetTimeIndexInfo@CDataConverter@@SA?AV?$CStringT@DV?$StrTraitMFC_DLL@DV?$ChTraitsCRT@D@ATL@@@@@ATL@@HH@Z$15
	DD	08H
	DD	FLAT:__unwindfunclet$?GetTimeIndexInfo@CDataConverter@@SA?AV?$CStringT@DV?$StrTraitMFC_DLL@DV?$ChTraitsCRT@D@ATL@@@@@ATL@@HH@Z$16
	DD	08H
	DD	FLAT:__unwindfunclet$?GetTimeIndexInfo@CDataConverter@@SA?AV?$CStringT@DV?$StrTraitMFC_DLL@DV?$ChTraitsCRT@D@ATL@@@@@ATL@@HH@Z$17
	DD	07H
	DD	FLAT:__unwindfunclet$?GetTimeIndexInfo@CDataConverter@@SA?AV?$CStringT@DV?$StrTraitMFC_DLL@DV?$ChTraitsCRT@D@ATL@@@@@ATL@@HH@Z$8
	DD	0bH
	DD	FLAT:__unwindfunclet$?GetTimeIndexInfo@CDataConverter@@SA?AV?$CStringT@DV?$StrTraitMFC_DLL@DV?$ChTraitsCRT@D@ATL@@@@@ATL@@HH@Z$10
	DD	0bH
	DD	FLAT:__unwindfunclet$?GetTimeIndexInfo@CDataConverter@@SA?AV?$CStringT@DV?$StrTraitMFC_DLL@DV?$ChTraitsCRT@D@ATL@@@@@ATL@@HH@Z$11
	DD	0bH
	DD	FLAT:__unwindfunclet$?GetTimeIndexInfo@CDataConverter@@SA?AV?$CStringT@DV?$StrTraitMFC_DLL@DV?$ChTraitsCRT@D@ATL@@@@@ATL@@HH@Z$12
	DD	0bH
	DD	FLAT:__unwindfunclet$?GetTimeIndexInfo@CDataConverter@@SA?AV?$CStringT@DV?$StrTraitMFC_DLL@DV?$ChTraitsCRT@D@ATL@@@@@ATL@@HH@Z$13
	DD	0bH
	DD	FLAT:__unwindfunclet$?GetTimeIndexInfo@CDataConverter@@SA?AV?$CStringT@DV?$StrTraitMFC_DLL@DV?$ChTraitsCRT@D@ATL@@@@@ATL@@HH@Z$14
xdata$x	ENDS
;	COMDAT xdata$x
xdata$x	SEGMENT
__unwindtable$?DataSeparation@CDataConverter@@SANV?$CStringT@DV?$StrTraitMFC_DLL@DV?$ChTraitsCRT@D@ATL@@@@@ATL@@H@Z DD 0ffffffffH
	DD	FLAT:__unwindfunclet$?DataSeparation@CDataConverter@@SANV?$CStringT@DV?$StrTraitMFC_DLL@DV?$ChTraitsCRT@D@ATL@@@@@ATL@@H@Z$0
__ehfuncinfo$?DataSeparation@CDataConverter@@SANV?$CStringT@DV?$StrTraitMFC_DLL@DV?$ChTraitsCRT@D@ATL@@@@@ATL@@H@Z DD 019930522H
	DD	01H
	DD	FLAT:__unwindtable$?DataSeparation@CDataConverter@@SANV?$CStringT@DV?$StrTraitMFC_DLL@DV?$ChTraitsCRT@D@ATL@@@@@ATL@@H@Z
	DD	2 DUP(00H)
	DD	2 DUP(00H)
	DD	00H
	DD	01H
xdata$x	ENDS
;	COMDAT xdata$x
xdata$x	SEGMENT
__unwindtable$?GetDecimalRate@CDataConverter@@SADV?$CStringT@DV?$StrTraitMFC_DLL@DV?$ChTraitsCRT@D@ATL@@@@@ATL@@AAHAANAAV23@@Z DD 0ffffffffH
	DD	FLAT:__unwindfunclet$?GetDecimalRate@CDataConverter@@SADV?$CStringT@DV?$StrTraitMFC_DLL@DV?$ChTraitsCRT@D@ATL@@@@@ATL@@AAHAANAAV23@@Z$0
__ehfuncinfo$?GetDecimalRate@CDataConverter@@SADV?$CStringT@DV?$StrTraitMFC_DLL@DV?$ChTraitsCRT@D@ATL@@@@@ATL@@AAHAANAAV23@@Z DD 019930522H
	DD	01H
	DD	FLAT:__unwindtable$?GetDecimalRate@CDataConverter@@SADV?$CStringT@DV?$StrTraitMFC_DLL@DV?$ChTraitsCRT@D@ATL@@@@@ATL@@AAHAANAAV23@@Z
	DD	2 DUP(00H)
	DD	2 DUP(00H)
	DD	00H
	DD	01H
xdata$x	ENDS
;	COMDAT xdata$x
xdata$x	SEGMENT
__ehfuncinfo$?TbondPrcLToF@CDataConverter@@SAHDHNAAV?$CStringT@DV?$StrTraitMFC_DLL@DV?$ChTraitsCRT@D@ATL@@@@@ATL@@@Z DD 019930522H
	DD	05H
	DD	FLAT:__unwindtable$?TbondPrcLToF@CDataConverter@@SAHDHNAAV?$CStringT@DV?$StrTraitMFC_DLL@DV?$ChTraitsCRT@D@ATL@@@@@ATL@@@Z
	DD	2 DUP(00H)
	DD	2 DUP(00H)
	DD	00H
	DD	01H
__unwindtable$?TbondPrcLToF@CDataConverter@@SAHDHNAAV?$CStringT@DV?$StrTraitMFC_DLL@DV?$ChTraitsCRT@D@ATL@@@@@ATL@@@Z DD 0ffffffffH
	DD	FLAT:__unwindfunclet$?TbondPrcLToF@CDataConverter@@SAHDHNAAV?$CStringT@DV?$StrTraitMFC_DLL@DV?$ChTraitsCRT@D@ATL@@@@@ATL@@@Z$0
	DD	00H
	DD	FLAT:__unwindfunclet$?TbondPrcLToF@CDataConverter@@SAHDHNAAV?$CStringT@DV?$StrTraitMFC_DLL@DV?$ChTraitsCRT@D@ATL@@@@@ATL@@@Z$1
	DD	01H
	DD	FLAT:__unwindfunclet$?TbondPrcLToF@CDataConverter@@SAHDHNAAV?$CStringT@DV?$StrTraitMFC_DLL@DV?$ChTraitsCRT@D@ATL@@@@@ATL@@@Z$2
	DD	02H
	DD	FLAT:__unwindfunclet$?TbondPrcLToF@CDataConverter@@SAHDHNAAV?$CStringT@DV?$StrTraitMFC_DLL@DV?$ChTraitsCRT@D@ATL@@@@@ATL@@@Z$3
	DD	02H
	DD	FLAT:__unwindfunclet$?TbondPrcLToF@CDataConverter@@SAHDHNAAV?$CStringT@DV?$StrTraitMFC_DLL@DV?$ChTraitsCRT@D@ATL@@@@@ATL@@@Z$4
xdata$x	ENDS
;	COMDAT xdata$x
xdata$x	SEGMENT
__unwindtable$?Get_PercentData@CDataConverter@@SA?AV?$CStringT@DV?$StrTraitMFC_DLL@DV?$ChTraitsCRT@D@ATL@@@@@ATL@@PADNH@Z DD 0ffffffffH
	DD	FLAT:__unwindfunclet$?Get_PercentData@CDataConverter@@SA?AV?$CStringT@DV?$StrTraitMFC_DLL@DV?$ChTraitsCRT@D@ATL@@@@@ATL@@PADNH@Z$0
	DD	00H
	DD	FLAT:__unwindfunclet$?Get_PercentData@CDataConverter@@SA?AV?$CStringT@DV?$StrTraitMFC_DLL@DV?$ChTraitsCRT@D@ATL@@@@@ATL@@PADNH@Z$1
__ehfuncinfo$?Get_PercentData@CDataConverter@@SA?AV?$CStringT@DV?$StrTraitMFC_DLL@DV?$ChTraitsCRT@D@ATL@@@@@ATL@@PADNH@Z DD 019930522H
	DD	02H
	DD	FLAT:__unwindtable$?Get_PercentData@CDataConverter@@SA?AV?$CStringT@DV?$StrTraitMFC_DLL@DV?$ChTraitsCRT@D@ATL@@@@@ATL@@PADNH@Z
	DD	2 DUP(00H)
	DD	2 DUP(00H)
	DD	00H
	DD	01H
xdata$x	ENDS
;	COMDAT xdata$x
xdata$x	SEGMENT
__ehfuncinfo$?Parser@CDataConverter@@SA?AV?$CStringT@DV?$StrTraitMFC_DLL@DV?$ChTraitsCRT@D@ATL@@@@@ATL@@AAV23@V23@@Z DD 019930522H
	DD	05H
	DD	FLAT:__unwindtable$?Parser@CDataConverter@@SA?AV?$CStringT@DV?$StrTraitMFC_DLL@DV?$ChTraitsCRT@D@ATL@@@@@ATL@@AAV23@V23@@Z
	DD	2 DUP(00H)
	DD	2 DUP(00H)
	DD	00H
	DD	01H
__unwindtable$?Parser@CDataConverter@@SA?AV?$CStringT@DV?$StrTraitMFC_DLL@DV?$ChTraitsCRT@D@ATL@@@@@ATL@@AAV23@V23@@Z DD 0ffffffffH
	DD	FLAT:__unwindfunclet$?Parser@CDataConverter@@SA?AV?$CStringT@DV?$StrTraitMFC_DLL@DV?$ChTraitsCRT@D@ATL@@@@@ATL@@AAV23@V23@@Z$0
	DD	00H
	DD	FLAT:__unwindfunclet$?Parser@CDataConverter@@SA?AV?$CStringT@DV?$StrTraitMFC_DLL@DV?$ChTraitsCRT@D@ATL@@@@@ATL@@AAV23@V23@@Z$1
	DD	01H
	DD	FLAT:__unwindfunclet$?Parser@CDataConverter@@SA?AV?$CStringT@DV?$StrTraitMFC_DLL@DV?$ChTraitsCRT@D@ATL@@@@@ATL@@AAV23@V23@@Z$2
	DD	02H
	DD	FLAT:__unwindfunclet$?Parser@CDataConverter@@SA?AV?$CStringT@DV?$StrTraitMFC_DLL@DV?$ChTraitsCRT@D@ATL@@@@@ATL@@AAV23@V23@@Z$4
	DD	02H
	DD	FLAT:__unwindfunclet$?Parser@CDataConverter@@SA?AV?$CStringT@DV?$StrTraitMFC_DLL@DV?$ChTraitsCRT@D@ATL@@@@@ATL@@AAV23@V23@@Z$5
xdata$x	ENDS
;	COMDAT xdata$x
xdata$x	SEGMENT
__unwindtable$?Convert2Struct@CDataConverter@@QAEPADPAEHV?$CStringT@DV?$StrTraitMFC_DLL@DV?$ChTraitsCRT@D@ATL@@@@@ATL@@AAH@Z DD 0ffffffffH
	DD	FLAT:__unwindfunclet$?Convert2Struct@CDataConverter@@QAEPADPAEHV?$CStringT@DV?$StrTraitMFC_DLL@DV?$ChTraitsCRT@D@ATL@@@@@ATL@@AAH@Z$0
__ehfuncinfo$?Convert2Struct@CDataConverter@@QAEPADPAEHV?$CStringT@DV?$StrTraitMFC_DLL@DV?$ChTraitsCRT@D@ATL@@@@@ATL@@AAH@Z DD 019930522H
	DD	01H
	DD	FLAT:__unwindtable$?Convert2Struct@CDataConverter@@QAEPADPAEHV?$CStringT@DV?$StrTraitMFC_DLL@DV?$ChTraitsCRT@D@ATL@@@@@ATL@@AAH@Z
	DD	2 DUP(00H)
	DD	2 DUP(00H)
	DD	00H
	DD	01H
xdata$x	ENDS
;	COMDAT xdata$x
xdata$x	SEGMENT
__ehfuncinfo$?ConvertToFid@CDataConverter@@QAE?AV?$CStringT@DV?$StrTraitMFC_DLL@DV?$ChTraitsCRT@D@ATL@@@@@ATL@@V23@PAXH@Z DD 019930522H
	DD	016H
	DD	FLAT:__unwindtable$?ConvertToFid@CDataConverter@@QAE?AV?$CStringT@DV?$StrTraitMFC_DLL@DV?$ChTraitsCRT@D@ATL@@@@@ATL@@V23@PAXH@Z
	DD	2 DUP(00H)
	DD	2 DUP(00H)
	DD	00H
	DD	01H
__unwindtable$?ConvertToFid@CDataConverter@@QAE?AV?$CStringT@DV?$StrTraitMFC_DLL@DV?$ChTraitsCRT@D@ATL@@@@@ATL@@V23@PAXH@Z DD 0ffffffffH
	DD	FLAT:__unwindfunclet$?ConvertToFid@CDataConverter@@QAE?AV?$CStringT@DV?$StrTraitMFC_DLL@DV?$ChTraitsCRT@D@ATL@@@@@ATL@@V23@PAXH@Z$1
	DD	00H
	DD	FLAT:__unwindfunclet$?ConvertToFid@CDataConverter@@QAE?AV?$CStringT@DV?$StrTraitMFC_DLL@DV?$ChTraitsCRT@D@ATL@@@@@ATL@@V23@PAXH@Z$0
	DD	01H
	DD	FLAT:__unwindfunclet$?ConvertToFid@CDataConverter@@QAE?AV?$CStringT@DV?$StrTraitMFC_DLL@DV?$ChTraitsCRT@D@ATL@@@@@ATL@@V23@PAXH@Z$2
	DD	01H
	DD	FLAT:__unwindfunclet$?ConvertToFid@CDataConverter@@QAE?AV?$CStringT@DV?$StrTraitMFC_DLL@DV?$ChTraitsCRT@D@ATL@@@@@ATL@@V23@PAXH@Z$3
	DD	01H
	DD	FLAT:__unwindfunclet$?ConvertToFid@CDataConverter@@QAE?AV?$CStringT@DV?$StrTraitMFC_DLL@DV?$ChTraitsCRT@D@ATL@@@@@ATL@@V23@PAXH@Z$4
	DD	01H
	DD	FLAT:__unwindfunclet$?ConvertToFid@CDataConverter@@QAE?AV?$CStringT@DV?$StrTraitMFC_DLL@DV?$ChTraitsCRT@D@ATL@@@@@ATL@@V23@PAXH@Z$5
	DD	01H
	DD	FLAT:__unwindfunclet$?ConvertToFid@CDataConverter@@QAE?AV?$CStringT@DV?$StrTraitMFC_DLL@DV?$ChTraitsCRT@D@ATL@@@@@ATL@@V23@PAXH@Z$6
	DD	01H
	DD	FLAT:__unwindfunclet$?ConvertToFid@CDataConverter@@QAE?AV?$CStringT@DV?$StrTraitMFC_DLL@DV?$ChTraitsCRT@D@ATL@@@@@ATL@@V23@PAXH@Z$7
	DD	01H
	DD	FLAT:__unwindfunclet$?ConvertToFid@CDataConverter@@QAE?AV?$CStringT@DV?$StrTraitMFC_DLL@DV?$ChTraitsCRT@D@ATL@@@@@ATL@@V23@PAXH@Z$8
	DD	01H
	DD	FLAT:__unwindfunclet$?ConvertToFid@CDataConverter@@QAE?AV?$CStringT@DV?$StrTraitMFC_DLL@DV?$ChTraitsCRT@D@ATL@@@@@ATL@@V23@PAXH@Z$9
	DD	01H
	DD	FLAT:__unwindfunclet$?ConvertToFid@CDataConverter@@QAE?AV?$CStringT@DV?$StrTraitMFC_DLL@DV?$ChTraitsCRT@D@ATL@@@@@ATL@@V23@PAXH@Z$10
	DD	01H
	DD	FLAT:__unwindfunclet$?ConvertToFid@CDataConverter@@QAE?AV?$CStringT@DV?$StrTraitMFC_DLL@DV?$ChTraitsCRT@D@ATL@@@@@ATL@@V23@PAXH@Z$11
	DD	01H
	DD	FLAT:__unwindfunclet$?ConvertToFid@CDataConverter@@QAE?AV?$CStringT@DV?$StrTraitMFC_DLL@DV?$ChTraitsCRT@D@ATL@@@@@ATL@@V23@PAXH@Z$12
	DD	01H
	DD	FLAT:__unwindfunclet$?ConvertToFid@CDataConverter@@QAE?AV?$CStringT@DV?$StrTraitMFC_DLL@DV?$ChTraitsCRT@D@ATL@@@@@ATL@@V23@PAXH@Z$13
	DD	01H
	DD	FLAT:__unwindfunclet$?ConvertToFid@CDataConverter@@QAE?AV?$CStringT@DV?$StrTraitMFC_DLL@DV?$ChTraitsCRT@D@ATL@@@@@ATL@@V23@PAXH@Z$14
	DD	01H
	DD	FLAT:__unwindfunclet$?ConvertToFid@CDataConverter@@QAE?AV?$CStringT@DV?$StrTraitMFC_DLL@DV?$ChTraitsCRT@D@ATL@@@@@ATL@@V23@PAXH@Z$15
	DD	01H
	DD	FLAT:__unwindfunclet$?ConvertToFid@CDataConverter@@QAE?AV?$CStringT@DV?$StrTraitMFC_DLL@DV?$ChTraitsCRT@D@ATL@@@@@ATL@@V23@PAXH@Z$17
	DD	01H
	DD	FLAT:__unwindfunclet$?ConvertToFid@CDataConverter@@QAE?AV?$CStringT@DV?$StrTraitMFC_DLL@DV?$ChTraitsCRT@D@ATL@@@@@ATL@@V23@PAXH@Z$19
	DD	01H
	DD	FLAT:__unwindfunclet$?ConvertToFid@CDataConverter@@QAE?AV?$CStringT@DV?$StrTraitMFC_DLL@DV?$ChTraitsCRT@D@ATL@@@@@ATL@@V23@PAXH@Z$20
	DD	01H
	DD	FLAT:__unwindfunclet$?ConvertToFid@CDataConverter@@QAE?AV?$CStringT@DV?$StrTraitMFC_DLL@DV?$ChTraitsCRT@D@ATL@@@@@ATL@@V23@PAXH@Z$22
	DD	01H
	DD	FLAT:__unwindfunclet$?ConvertToFid@CDataConverter@@QAE?AV?$CStringT@DV?$StrTraitMFC_DLL@DV?$ChTraitsCRT@D@ATL@@@@@ATL@@V23@PAXH@Z$24
	DD	01H
	DD	FLAT:__unwindfunclet$?ConvertToFid@CDataConverter@@QAE?AV?$CStringT@DV?$StrTraitMFC_DLL@DV?$ChTraitsCRT@D@ATL@@@@@ATL@@V23@PAXH@Z$26
xdata$x	ENDS
;	COMDAT xdata$x
xdata$x	SEGMENT
__unwindtable$?GetCodeType@CDataConverter@@QAEHV?$CStringT@DV?$StrTraitMFC_DLL@DV?$ChTraitsCRT@D@ATL@@@@@ATL@@@Z DD 0ffffffffH
	DD	FLAT:__unwindfunclet$?GetCodeType@CDataConverter@@QAEHV?$CStringT@DV?$StrTraitMFC_DLL@DV?$ChTraitsCRT@D@ATL@@@@@ATL@@@Z$0
__ehfuncinfo$?GetCodeType@CDataConverter@@QAEHV?$CStringT@DV?$StrTraitMFC_DLL@DV?$ChTraitsCRT@D@ATL@@@@@ATL@@@Z DD 019930522H
	DD	01H
	DD	FLAT:__unwindtable$?GetCodeType@CDataConverter@@QAEHV?$CStringT@DV?$StrTraitMFC_DLL@DV?$ChTraitsCRT@D@ATL@@@@@ATL@@@Z
	DD	2 DUP(00H)
	DD	2 DUP(00H)
	DD	00H
	DD	01H
xdata$x	ENDS
;	COMDAT xdata$x
xdata$x	SEGMENT
__ehfuncinfo$??0CDataConverter@@QAE@XZ DD 019930522H
	DD	013H
	DD	FLAT:__unwindtable$??0CDataConverter@@QAE@XZ
	DD	2 DUP(00H)
	DD	2 DUP(00H)
	DD	00H
	DD	01H
__unwindtable$??0CDataConverter@@QAE@XZ DD 0ffffffffH
	DD	FLAT:__unwindfunclet$??0CDataConverter@@QAE@XZ$0
	DD	00H
	DD	FLAT:__unwindfunclet$??0CDataConverter@@QAE@XZ$1
	DD	01H
	DD	FLAT:__unwindfunclet$??0CDataConverter@@QAE@XZ$2
	DD	02H
	DD	FLAT:__unwindfunclet$??0CDataConverter@@QAE@XZ$3
	DD	03H
	DD	FLAT:__unwindfunclet$??0CDataConverter@@QAE@XZ$4
	DD	04H
	DD	FLAT:__unwindfunclet$??0CDataConverter@@QAE@XZ$5
	DD	05H
	DD	FLAT:__unwindfunclet$??0CDataConverter@@QAE@XZ$6
	DD	06H
	DD	FLAT:__unwindfunclet$??0CDataConverter@@QAE@XZ$7
	DD	07H
	DD	FLAT:__unwindfunclet$??0CDataConverter@@QAE@XZ$8
	DD	08H
	DD	FLAT:__unwindfunclet$??0CDataConverter@@QAE@XZ$9
	DD	09H
	DD	FLAT:__unwindfunclet$??0CDataConverter@@QAE@XZ$10
	DD	0aH
	DD	FLAT:__unwindfunclet$??0CDataConverter@@QAE@XZ$11
	DD	0bH
	DD	FLAT:__unwindfunclet$??0CDataConverter@@QAE@XZ$12
	DD	0cH
	DD	FLAT:__unwindfunclet$??0CDataConverter@@QAE@XZ$13
	DD	0dH
	DD	FLAT:__unwindfunclet$??0CDataConverter@@QAE@XZ$14
	DD	0eH
	DD	FLAT:__unwindfunclet$??0CDataConverter@@QAE@XZ$15
	DD	0fH
	DD	FLAT:__unwindfunclet$??0CDataConverter@@QAE@XZ$16
	DD	010H
	DD	FLAT:__unwindfunclet$??0CDataConverter@@QAE@XZ$17
	DD	011H
	DD	FLAT:__unwindfunclet$??0CDataConverter@@QAE@XZ$18
xdata$x	ENDS
;	COMDAT xdata$x
xdata$x	SEGMENT
__ehfuncinfo$??0CChartBozoInput@@QAE@ABV0@@Z DD 019930522H
	DD	01aH
	DD	FLAT:__unwindtable$??0CChartBozoInput@@QAE@ABV0@@Z
	DD	2 DUP(00H)
	DD	2 DUP(00H)
	DD	00H
	DD	01H
__unwindtable$??0CChartBozoInput@@QAE@ABV0@@Z DD 0ffffffffH
	DD	FLAT:__unwindfunclet$??0CChartBozoInput@@QAE@ABV0@@Z$0
	DD	00H
	DD	FLAT:__unwindfunclet$??0CChartBozoInput@@QAE@ABV0@@Z$1
	DD	01H
	DD	FLAT:__unwindfunclet$??0CChartBozoInput@@QAE@ABV0@@Z$2
	DD	02H
	DD	FLAT:__unwindfunclet$??0CChartBozoInput@@QAE@ABV0@@Z$3
	DD	03H
	DD	FLAT:__unwindfunclet$??0CChartBozoInput@@QAE@ABV0@@Z$4
	DD	04H
	DD	FLAT:__unwindfunclet$??0CChartBozoInput@@QAE@ABV0@@Z$5
	DD	05H
	DD	FLAT:__unwindfunclet$??0CChartBozoInput@@QAE@ABV0@@Z$6
	DD	06H
	DD	FLAT:__unwindfunclet$??0CChartBozoInput@@QAE@ABV0@@Z$7
	DD	07H
	DD	FLAT:__unwindfunclet$??0CChartBozoInput@@QAE@ABV0@@Z$8
	DD	08H
	DD	FLAT:__unwindfunclet$??0CChartBozoInput@@QAE@ABV0@@Z$9
	DD	09H
	DD	FLAT:__unwindfunclet$??0CChartBozoInput@@QAE@ABV0@@Z$10
	DD	0aH
	DD	FLAT:__unwindfunclet$??0CChartBozoInput@@QAE@ABV0@@Z$11
	DD	0bH
	DD	FLAT:__unwindfunclet$??0CChartBozoInput@@QAE@ABV0@@Z$12
	DD	0cH
	DD	FLAT:__unwindfunclet$??0CChartBozoInput@@QAE@ABV0@@Z$13
	DD	0dH
	DD	FLAT:__unwindfunclet$??0CChartBozoInput@@QAE@ABV0@@Z$14
	DD	0eH
	DD	FLAT:__unwindfunclet$??0CChartBozoInput@@QAE@ABV0@@Z$15
	DD	0fH
	DD	FLAT:__unwindfunclet$??0CChartBozoInput@@QAE@ABV0@@Z$16
	DD	010H
	DD	FLAT:__unwindfunclet$??0CChartBozoInput@@QAE@ABV0@@Z$17
	DD	011H
	DD	FLAT:__unwindfunclet$??0CChartBozoInput@@QAE@ABV0@@Z$18
	DD	012H
	DD	FLAT:__unwindfunclet$??0CChartBozoInput@@QAE@ABV0@@Z$19
	DD	013H
	DD	FLAT:__unwindfunclet$??0CChartBozoInput@@QAE@ABV0@@Z$20
	DD	014H
	DD	FLAT:__unwindfunclet$??0CChartBozoInput@@QAE@ABV0@@Z$21
	DD	015H
	DD	FLAT:__unwindfunclet$??0CChartBozoInput@@QAE@ABV0@@Z$22
	DD	016H
	DD	FLAT:__unwindfunclet$??0CChartBozoInput@@QAE@ABV0@@Z$23
	DD	017H
	DD	FLAT:__unwindfunclet$??0CChartBozoInput@@QAE@ABV0@@Z$24
	DD	018H
	DD	FLAT:__unwindfunclet$??0CChartBozoInput@@QAE@ABV0@@Z$25
xdata$x	ENDS
CRT$XCU	SEGMENT
?RMSG_GETPCTRDATA$initializer$@@3P6AXXZA DD FLAT:??__ERMSG_GETPCTRDATA@@YAXXZ ; RMSG_GETPCTRDATA$initializer$
CRT$XCU	ENDS
CRT$XCU	SEGMENT
?RMSG_SETPCTRDATA$initializer$@@3P6AXXZA DD FLAT:??__ERMSG_SETPCTRDATA@@YAXXZ ; RMSG_SETPCTRDATA$initializer$
CRT$XCU	ENDS
CRT$XCU	SEGMENT
?RMSG_GETSIGNAL_REAL$initializer$@@3P6AXXZA DD FLAT:??__ERMSG_GETSIGNAL_REAL@@YAXXZ ; RMSG_GETSIGNAL_REAL$initializer$
CRT$XCU	ENDS
; Function compile flags: /Ogtp
; File D:\git\src\IBK\IBK_DRFN\ProjSrc\SrcDrfn\DrCommon\PartnerMng\DataConverter.cpp
;	COMDAT ??_GCDataConverter@@UAEPAXI@Z
_TEXT	SEGMENT
___flags$ = 8						; size = 4
??_GCDataConverter@@UAEPAXI@Z PROC			; CDataConverter::`scalar deleting destructor', COMDAT
; _this$ = ecx
  00000	55		 push	 ebp
  00001	8b ec		 mov	 ebp, esp

; 33   : {

  00003	56		 push	 esi
  00004	8b f1		 mov	 esi, ecx

; 34   : 
; 35   : }

  00006	8d 8e 18 0f 00
	00		 lea	 ecx, DWORD PTR [esi+3864]
  0000c	c7 06 00 00 00
	00		 mov	 DWORD PTR [esi], OFFSET ??_7CDataConverter@@6B@
  00012	e8 00 00 00 00	 call	 ??1CChartItemFXJan@@UAE@XZ ; CChartItemFXJan::~CChartItemFXJan
  00017	8d 8e 88 0e 00
	00		 lea	 ecx, DWORD PTR [esi+3720]
  0001d	e8 00 00 00 00	 call	 ??1CChartItemFXChe@@UAE@XZ ; CChartItemFXChe::~CChartItemFXChe
  00022	8d 8e f8 0d 00
	00		 lea	 ecx, DWORD PTR [esi+3576]
  00028	e8 00 00 00 00	 call	 ??1CChartItemFXChe@@UAE@XZ ; CChartItemFXChe::~CChartItemFXChe
  0002d	8d 8e a4 0c 00
	00		 lea	 ecx, DWORD PTR [esi+3236]
  00033	e8 00 00 00 00	 call	 ??1CChartItemFX@@UAE@XZ	; CChartItemFX::~CChartItemFX
  00038	8d 8e 10 0c 00
	00		 lea	 ecx, DWORD PTR [esi+3088]
  0003e	e8 00 00 00 00	 call	 ??1CChartItemFXJan@@UAE@XZ ; CChartItemFXJan::~CChartItemFXJan
  00043	8d 8e 80 0b 00
	00		 lea	 ecx, DWORD PTR [esi+2944]
  00049	e8 00 00 00 00	 call	 ??1CChartItemFXChe@@UAE@XZ ; CChartItemFXChe::~CChartItemFXChe
  0004e	8d 8e a0 0a 00
	00		 lea	 ecx, DWORD PTR [esi+2720]
  00054	e8 00 00 00 00	 call	 ??1CChartItemFOForeignHoga@@UAE@XZ ; CChartItemFOForeignHoga::~CChartItemFOForeignHoga
  00059	8d 8e 28 09 00
	00		 lea	 ecx, DWORD PTR [esi+2344]
  0005f	e8 00 00 00 00	 call	 ??1CChartItemFOForeign@@UAE@XZ ; CChartItemFOForeign::~CChartItemFOForeign
  00064	8d 8e 10 09 00
	00		 lea	 ecx, DWORD PTR [esi+2320]
  0006a	e8 00 00 00 00	 call	 ??1CChartItemFOHoga@@UAE@XZ ; CChartItemFOHoga::~CChartItemFOHoga
  0006f	8d 8e fc 08 00
	00		 lea	 ecx, DWORD PTR [esi+2300]
  00075	e8 00 00 00 00	 call	 ??1CChartItemDollar@@UAE@XZ ; CChartItemDollar::~CChartItemDollar
  0007a	8d 8e e0 07 00
	00		 lea	 ecx, DWORD PTR [esi+2016]
  00080	e8 00 00 00 00	 call	 ??1CChartItemPreFO@@UAE@XZ ; CChartItemPreFO::~CChartItemPreFO
  00085	8d 8e cc 06 00
	00		 lea	 ecx, DWORD PTR [esi+1740]
  0008b	e8 00 00 00 00	 call	 ??1CChartItemFOJipyo@@UAE@XZ ; CChartItemFOJipyo::~CChartItemFOJipyo
  00090	8d 8e 84 06 00
	00		 lea	 ecx, DWORD PTR [esi+1668]
  00096	e8 00 00 00 00	 call	 ??1CChartReplay@@UAE@XZ	; CChartReplay::~CChartReplay
  0009b	8d 8e a4 05 00
	00		 lea	 ecx, DWORD PTR [esi+1444]
  000a1	e8 00 00 00 00	 call	 ??1CChartItemMarket@@UAE@XZ ; CChartItemMarket::~CChartItemMarket
  000a6	8d 8e a0 04 00
	00		 lea	 ecx, DWORD PTR [esi+1184]
  000ac	e8 00 00 00 00	 call	 ??1CChartItemUpjong@@UAE@XZ ; CChartItemUpjong::~CChartItemUpjong
  000b1	8d 8e 90 04 00
	00		 lea	 ecx, DWORD PTR [esi+1168]
  000b7	e8 00 00 00 00	 call	 ??1CChartItemSHoga@@UAE@XZ ; CChartItemSHoga::~CChartItemSHoga
  000bc	8d 8e 50 03 00
	00		 lea	 ecx, DWORD PTR [esi+848]
  000c2	e8 00 00 00 00	 call	 ??1CChartItemStock@@UAE@XZ ; CChartItemStock::~CChartItemStock
  000c7	8d 8e 34 02 00
	00		 lea	 ecx, DWORD PTR [esi+564]
  000cd	e8 00 00 00 00	 call	 ??1CChartItemSFO@@UAE@XZ ; CChartItemSFO::~CChartItemSFO
  000d2	8d 8e 24 01 00
	00		 lea	 ecx, DWORD PTR [esi+292]
  000d8	e8 00 00 00 00	 call	 ??1CChartItemForeign@@UAE@XZ ; CChartItemForeign::~CChartItemForeign
  000dd	8d 4e 04	 lea	 ecx, DWORD PTR [esi+4]
  000e0	e8 00 00 00 00	 call	 ??1CChartItemFO@@UAE@XZ	; CChartItemFO::~CChartItemFO
  000e5	f6 45 08 01	 test	 BYTE PTR ___flags$[ebp], 1
  000e9	74 0e		 je	 SHORT $LN7@scalar
  000eb	68 ac 0f 00 00	 push	 4012			; 00000facH
  000f0	56		 push	 esi
  000f1	e8 00 00 00 00	 call	 ??3@YAXPAXI@Z		; operator delete
  000f6	83 c4 08	 add	 esp, 8
$LN7@scalar:
  000f9	8b c6		 mov	 eax, esi
  000fb	5e		 pop	 esi
  000fc	5d		 pop	 ebp
  000fd	c2 04 00	 ret	 4
??_GCDataConverter@@UAEPAXI@Z ENDP			; CDataConverter::`scalar deleting destructor'
_TEXT	ENDS
; Function compile flags: /Ogtp
; File D:\git\src\IBK\IBK_DRFN\ProjSrc\SrcDrfn\DrCommon\PartnerMng\DataConverter.cpp
;	COMDAT ?Get_RateData@CDataConverter@@SA?AV?$CStringT@DV?$StrTraitMFC_DLL@DV?$ChTraitsCRT@D@ATL@@@@@ATL@@PADNH@Z
_TEXT	SEGMENT
$T2 = -16						; size = 4
__$EHRec$ = -12						; size = 12
___$ReturnUdt$ = 8					; size = 4
_szSrc$ = 12						; size = 4
_dDenom$ = 16						; size = 8
_nSize$ = 24						; size = 4
?Get_RateData@CDataConverter@@SA?AV?$CStringT@DV?$StrTraitMFC_DLL@DV?$ChTraitsCRT@D@ATL@@@@@ATL@@PADNH@Z PROC ; CDataConverter::Get_RateData, COMDAT

; 515  : {

  00000	55		 push	 ebp
  00001	8b ec		 mov	 ebp, esp
  00003	6a ff		 push	 -1
  00005	68 00 00 00 00	 push	 __ehhandler$?Get_RateData@CDataConverter@@SA?AV?$CStringT@DV?$StrTraitMFC_DLL@DV?$ChTraitsCRT@D@ATL@@@@@ATL@@PADNH@Z
  0000a	64 a1 00 00 00
	00		 mov	 eax, DWORD PTR fs:0
  00010	50		 push	 eax
  00011	51		 push	 ecx
  00012	56		 push	 esi
  00013	a1 00 00 00 00	 mov	 eax, DWORD PTR ___security_cookie
  00018	33 c5		 xor	 eax, ebp
  0001a	50		 push	 eax
  0001b	8d 45 f4	 lea	 eax, DWORD PTR __$EHRec$[ebp]
  0001e	64 a3 00 00 00
	00		 mov	 DWORD PTR fs:0, eax

; 516  : 	CString strData(szSrc, nSize);

  00024	ff 75 18	 push	 DWORD PTR _nSize$[ebp]
  00027	c7 45 f0 00 00
	00 00		 mov	 DWORD PTR $T2[ebp], 0
  0002e	ff 75 0c	 push	 DWORD PTR _szSrc$[ebp]
  00031	8b 75 08	 mov	 esi, DWORD PTR ___$ReturnUdt$[ebp]
  00034	8b ce		 mov	 ecx, esi
  00036	c7 45 fc 00 00
	00 00		 mov	 DWORD PTR __$EHRec$[ebp+8], 0
  0003d	ff 15 00 00 00
	00		 call	 DWORD PTR __imp_??0?$CStringT@DV?$StrTraitMFC_DLL@DV?$ChTraitsCRT@D@ATL@@@@@ATL@@QAE@PBDH@Z

; 517  : 	
; 518  : 	double dX = atoi(strData);
; 519  : 	
; 520  : 	strData.Format("%10.2f", dX / dDenom);
; 521  : 	
; 522  : 	strData.Remove('.');
; 523  : 	
; 524  : 	return strData;

  00043	ff 36		 push	 DWORD PTR [esi]
  00045	c7 45 fc 00 00
	00 00		 mov	 DWORD PTR __$EHRec$[ebp+8], 0
  0004c	c7 45 f0 01 00
	00 00		 mov	 DWORD PTR $T2[ebp], 1
  00053	ff 15 00 00 00
	00		 call	 DWORD PTR __imp__atoi
  00059	51		 push	 ecx
  0005a	66 0f 6e c0	 movd	 xmm0, eax
  0005e	f3 0f e6 c0	 cvtdq2pd xmm0, xmm0
  00062	f2 0f 5e 45 10	 divsd	 xmm0, QWORD PTR _dDenom$[ebp]
  00067	f2 0f 11 04 24	 movsd	 QWORD PTR [esp], xmm0
  0006c	68 00 00 00 00	 push	 OFFSET ??_C@_06MFLEHPOG@?$CF10?42f@
  00071	56		 push	 esi
  00072	ff 15 00 00 00
	00		 call	 DWORD PTR __imp_?Format@?$CStringT@DV?$StrTraitMFC_DLL@DV?$ChTraitsCRT@D@ATL@@@@@ATL@@QAAXPBDZZ
  00078	83 c4 10	 add	 esp, 16			; 00000010H
  0007b	8b ce		 mov	 ecx, esi
  0007d	6a 2e		 push	 46			; 0000002eH
  0007f	ff 15 00 00 00
	00		 call	 DWORD PTR __imp_?Remove@?$CStringT@DV?$StrTraitMFC_DLL@DV?$ChTraitsCRT@D@ATL@@@@@ATL@@QAEHD@Z
  00085	8b c6		 mov	 eax, esi

; 525  : }

  00087	8b 4d f4	 mov	 ecx, DWORD PTR __$EHRec$[ebp]
  0008a	64 89 0d 00 00
	00 00		 mov	 DWORD PTR fs:0, ecx
  00091	59		 pop	 ecx
  00092	5e		 pop	 esi
  00093	8b e5		 mov	 esp, ebp
  00095	5d		 pop	 ebp
  00096	c3		 ret	 0
_TEXT	ENDS
;	COMDAT text$x
text$x	SEGMENT
__unwindfunclet$?Get_RateData@CDataConverter@@SA?AV?$CStringT@DV?$StrTraitMFC_DLL@DV?$ChTraitsCRT@D@ATL@@@@@ATL@@PADNH@Z$0:
  00000	8b 45 f0	 mov	 eax, DWORD PTR $T2[ebp]
  00003	83 e0 01	 and	 eax, 1
  00006	0f 84 0d 00 00
	00		 je	 $LN4@Get_RateDa
  0000c	83 65 f0 fe	 and	 DWORD PTR $T2[ebp], -2	; fffffffeH
  00010	8b 4d 08	 mov	 ecx, DWORD PTR ___$ReturnUdt$[ebp]
  00013	ff 25 00 00 00
	00		 jmp	 DWORD PTR __imp_??1?$CStringT@DV?$StrTraitMFC_DLL@DV?$ChTraitsCRT@D@ATL@@@@@ATL@@QAE@XZ
$LN4@Get_RateDa:
  00019	c3		 ret	 0
  0001a	cc		 int	 3
  0001b	cc		 int	 3
  0001c	cc		 int	 3
  0001d	cc		 int	 3
  0001e	cc		 int	 3
__ehhandler$?Get_RateData@CDataConverter@@SA?AV?$CStringT@DV?$StrTraitMFC_DLL@DV?$ChTraitsCRT@D@ATL@@@@@ATL@@PADNH@Z:
  0001f	90		 npad	 1
  00020	90		 npad	 1
  00021	8b 54 24 08	 mov	 edx, DWORD PTR [esp+8]
  00025	8d 42 0c	 lea	 eax, DWORD PTR [edx+12]
  00028	8b 4a f4	 mov	 ecx, DWORD PTR [edx-12]
  0002b	33 c8		 xor	 ecx, eax
  0002d	e8 00 00 00 00	 call	 @__security_check_cookie@4
  00032	b8 00 00 00 00	 mov	 eax, OFFSET __ehfuncinfo$?Get_RateData@CDataConverter@@SA?AV?$CStringT@DV?$StrTraitMFC_DLL@DV?$ChTraitsCRT@D@ATL@@@@@ATL@@PADNH@Z
  00037	e9 00 00 00 00	 jmp	 ___CxxFrameHandler3
text$x	ENDS
?Get_RateData@CDataConverter@@SA?AV?$CStringT@DV?$StrTraitMFC_DLL@DV?$ChTraitsCRT@D@ATL@@@@@ATL@@PADNH@Z ENDP ; CDataConverter::Get_RateData
; Function compile flags: /Ogtp
; File D:\git\src\IBK\IBK_DRFN\ProjSrc\SrcDrfn\DrCommon\PartnerMng\DataConverter.cpp
;	COMDAT ?Char2Long@CDataConverter@@SAJPADH@Z
_TEXT	SEGMENT
_strData$ = -16						; size = 4
__$EHRec$ = -12						; size = 12
_pszData$ = 8						; size = 4
_nSize$ = 12						; size = 4
?Char2Long@CDataConverter@@SAJPADH@Z PROC		; CDataConverter::Char2Long, COMDAT

; 563  : {

  00000	55		 push	 ebp
  00001	8b ec		 mov	 ebp, esp
  00003	6a ff		 push	 -1
  00005	68 00 00 00 00	 push	 __ehhandler$?Char2Long@CDataConverter@@SAJPADH@Z
  0000a	64 a1 00 00 00
	00		 mov	 eax, DWORD PTR fs:0
  00010	50		 push	 eax
  00011	51		 push	 ecx
  00012	56		 push	 esi
  00013	a1 00 00 00 00	 mov	 eax, DWORD PTR ___security_cookie
  00018	33 c5		 xor	 eax, ebp
  0001a	50		 push	 eax
  0001b	8d 45 f4	 lea	 eax, DWORD PTR __$EHRec$[ebp]
  0001e	64 a3 00 00 00
	00		 mov	 DWORD PTR fs:0, eax

; 564  : 	CString strData;

  00024	8d 4d f0	 lea	 ecx, DWORD PTR _strData$[ebp]
  00027	ff 15 00 00 00
	00		 call	 DWORD PTR __imp_??0?$CStringT@DV?$StrTraitMFC_DLL@DV?$ChTraitsCRT@D@ATL@@@@@ATL@@QAE@XZ

; 565  : 	strData.Format(_T("%.*s"), nSize, pszData);

  0002d	ff 75 08	 push	 DWORD PTR _pszData$[ebp]
  00030	8d 45 f0	 lea	 eax, DWORD PTR _strData$[ebp]
  00033	c7 45 fc 00 00
	00 00		 mov	 DWORD PTR __$EHRec$[ebp+8], 0
  0003a	ff 75 0c	 push	 DWORD PTR _nSize$[ebp]
  0003d	68 00 00 00 00	 push	 OFFSET ??_C@_04EBNJJJJI@?$CF?4?$CKs@
  00042	50		 push	 eax
  00043	ff 15 00 00 00
	00		 call	 DWORD PTR __imp_?Format@?$CStringT@DV?$StrTraitMFC_DLL@DV?$ChTraitsCRT@D@ATL@@@@@ATL@@QAAXPBDZZ

; 566  : 
; 567  : 	return atol(strData);

  00049	ff 75 f0	 push	 DWORD PTR _strData$[ebp]
  0004c	ff 15 00 00 00
	00		 call	 DWORD PTR __imp__atol
  00052	83 c4 14	 add	 esp, 20			; 00000014H
  00055	8d 4d f0	 lea	 ecx, DWORD PTR _strData$[ebp]
  00058	8b f0		 mov	 esi, eax
  0005a	ff 15 00 00 00
	00		 call	 DWORD PTR __imp_??1?$CStringT@DV?$StrTraitMFC_DLL@DV?$ChTraitsCRT@D@ATL@@@@@ATL@@QAE@XZ
  00060	8b c6		 mov	 eax, esi

; 568  : }

  00062	8b 4d f4	 mov	 ecx, DWORD PTR __$EHRec$[ebp]
  00065	64 89 0d 00 00
	00 00		 mov	 DWORD PTR fs:0, ecx
  0006c	59		 pop	 ecx
  0006d	5e		 pop	 esi
  0006e	8b e5		 mov	 esp, ebp
  00070	5d		 pop	 ebp
  00071	c3		 ret	 0
_TEXT	ENDS
;	COMDAT text$x
text$x	SEGMENT
__unwindfunclet$?Char2Long@CDataConverter@@SAJPADH@Z$0:
  00000	8d 4d f0	 lea	 ecx, DWORD PTR _strData$[ebp]
  00003	ff 25 00 00 00
	00		 jmp	 DWORD PTR __imp_??1?$CStringT@DV?$StrTraitMFC_DLL@DV?$ChTraitsCRT@D@ATL@@@@@ATL@@QAE@XZ
  00009	cc		 int	 3
  0000a	cc		 int	 3
  0000b	cc		 int	 3
  0000c	cc		 int	 3
  0000d	cc		 int	 3
__ehhandler$?Char2Long@CDataConverter@@SAJPADH@Z:
  0000e	90		 npad	 1
  0000f	90		 npad	 1
  00010	8b 54 24 08	 mov	 edx, DWORD PTR [esp+8]
  00014	8d 42 0c	 lea	 eax, DWORD PTR [edx+12]
  00017	8b 4a f4	 mov	 ecx, DWORD PTR [edx-12]
  0001a	33 c8		 xor	 ecx, eax
  0001c	e8 00 00 00 00	 call	 @__security_check_cookie@4
  00021	b8 00 00 00 00	 mov	 eax, OFFSET __ehfuncinfo$?Char2Long@CDataConverter@@SAJPADH@Z
  00026	e9 00 00 00 00	 jmp	 ___CxxFrameHandler3
text$x	ENDS
?Char2Long@CDataConverter@@SAJPADH@Z ENDP		; CDataConverter::Char2Long
; Function compile flags: /Ogtp
; File D:\git\src\IBK\IBK_DRFN\ProjSrc\SrcDrfn\DrCommon\PartnerMng\DataConverter.cpp
;	COMDAT ?Char2Double@CDataConverter@@SANPADH@Z
_TEXT	SEGMENT
$T2 = -24						; size = 8
_strData$ = -16						; size = 4
__$EHRec$ = -12						; size = 12
_pszData$ = 8						; size = 4
_nSize$ = 12						; size = 4
?Char2Double@CDataConverter@@SANPADH@Z PROC		; CDataConverter::Char2Double, COMDAT

; 555  : {

  00000	55		 push	 ebp
  00001	8b ec		 mov	 ebp, esp
  00003	6a ff		 push	 -1
  00005	68 00 00 00 00	 push	 __ehhandler$?Char2Double@CDataConverter@@SANPADH@Z
  0000a	64 a1 00 00 00
	00		 mov	 eax, DWORD PTR fs:0
  00010	50		 push	 eax
  00011	83 ec 0c	 sub	 esp, 12			; 0000000cH
  00014	a1 00 00 00 00	 mov	 eax, DWORD PTR ___security_cookie
  00019	33 c5		 xor	 eax, ebp
  0001b	50		 push	 eax
  0001c	8d 45 f4	 lea	 eax, DWORD PTR __$EHRec$[ebp]
  0001f	64 a3 00 00 00
	00		 mov	 DWORD PTR fs:0, eax

; 556  : 	CString strData;

  00025	8d 4d f0	 lea	 ecx, DWORD PTR _strData$[ebp]
  00028	ff 15 00 00 00
	00		 call	 DWORD PTR __imp_??0?$CStringT@DV?$StrTraitMFC_DLL@DV?$ChTraitsCRT@D@ATL@@@@@ATL@@QAE@XZ

; 557  : 	strData.Format(_T("%.*s"), nSize, pszData);

  0002e	ff 75 08	 push	 DWORD PTR _pszData$[ebp]
  00031	8d 45 f0	 lea	 eax, DWORD PTR _strData$[ebp]
  00034	c7 45 fc 00 00
	00 00		 mov	 DWORD PTR __$EHRec$[ebp+8], 0
  0003b	ff 75 0c	 push	 DWORD PTR _nSize$[ebp]
  0003e	68 00 00 00 00	 push	 OFFSET ??_C@_04EBNJJJJI@?$CF?4?$CKs@
  00043	50		 push	 eax
  00044	ff 15 00 00 00
	00		 call	 DWORD PTR __imp_?Format@?$CStringT@DV?$StrTraitMFC_DLL@DV?$ChTraitsCRT@D@ATL@@@@@ATL@@QAAXPBDZZ

; 558  : 
; 559  : 	return atof(strData);

  0004a	ff 75 f0	 push	 DWORD PTR _strData$[ebp]
  0004d	ff 15 00 00 00
	00		 call	 DWORD PTR __imp__atof
  00053	83 c4 14	 add	 esp, 20			; 00000014H
  00056	8d 4d f0	 lea	 ecx, DWORD PTR _strData$[ebp]
  00059	dd 5d e8	 fstp	 QWORD PTR $T2[ebp]
  0005c	ff 15 00 00 00
	00		 call	 DWORD PTR __imp_??1?$CStringT@DV?$StrTraitMFC_DLL@DV?$ChTraitsCRT@D@ATL@@@@@ATL@@QAE@XZ
  00062	dd 45 e8	 fld	 QWORD PTR $T2[ebp]

; 560  : }

  00065	8b 4d f4	 mov	 ecx, DWORD PTR __$EHRec$[ebp]
  00068	64 89 0d 00 00
	00 00		 mov	 DWORD PTR fs:0, ecx
  0006f	59		 pop	 ecx
  00070	8b e5		 mov	 esp, ebp
  00072	5d		 pop	 ebp
  00073	c3		 ret	 0
_TEXT	ENDS
;	COMDAT text$x
text$x	SEGMENT
__unwindfunclet$?Char2Double@CDataConverter@@SANPADH@Z$0:
  00000	8d 4d f0	 lea	 ecx, DWORD PTR _strData$[ebp]
  00003	ff 25 00 00 00
	00		 jmp	 DWORD PTR __imp_??1?$CStringT@DV?$StrTraitMFC_DLL@DV?$ChTraitsCRT@D@ATL@@@@@ATL@@QAE@XZ
  00009	cc		 int	 3
  0000a	cc		 int	 3
  0000b	cc		 int	 3
  0000c	cc		 int	 3
  0000d	cc		 int	 3
__ehhandler$?Char2Double@CDataConverter@@SANPADH@Z:
  0000e	90		 npad	 1
  0000f	90		 npad	 1
  00010	8b 54 24 08	 mov	 edx, DWORD PTR [esp+8]
  00014	8d 42 0c	 lea	 eax, DWORD PTR [edx+12]
  00017	8b 4a f0	 mov	 ecx, DWORD PTR [edx-16]
  0001a	33 c8		 xor	 ecx, eax
  0001c	e8 00 00 00 00	 call	 @__security_check_cookie@4
  00021	b8 00 00 00 00	 mov	 eax, OFFSET __ehfuncinfo$?Char2Double@CDataConverter@@SANPADH@Z
  00026	e9 00 00 00 00	 jmp	 ___CxxFrameHandler3
text$x	ENDS
?Char2Double@CDataConverter@@SANPADH@Z ENDP		; CDataConverter::Char2Double
; Function compile flags: /Ogtp
; File D:\git\src\IBK\IBK_DRFN\ProjSrc\SrcDrfn\DrCommon\PartnerMng\DataConverter.cpp
;	COMDAT ?Char2Int@CDataConverter@@SAHPADH@Z
_TEXT	SEGMENT
_strData$ = -16						; size = 4
__$EHRec$ = -12						; size = 12
_pszData$ = 8						; size = 4
_nSize$ = 12						; size = 4
?Char2Int@CDataConverter@@SAHPADH@Z PROC		; CDataConverter::Char2Int, COMDAT

; 547  : {

  00000	55		 push	 ebp
  00001	8b ec		 mov	 ebp, esp
  00003	6a ff		 push	 -1
  00005	68 00 00 00 00	 push	 __ehhandler$?Char2Int@CDataConverter@@SAHPADH@Z
  0000a	64 a1 00 00 00
	00		 mov	 eax, DWORD PTR fs:0
  00010	50		 push	 eax
  00011	51		 push	 ecx
  00012	56		 push	 esi
  00013	a1 00 00 00 00	 mov	 eax, DWORD PTR ___security_cookie
  00018	33 c5		 xor	 eax, ebp
  0001a	50		 push	 eax
  0001b	8d 45 f4	 lea	 eax, DWORD PTR __$EHRec$[ebp]
  0001e	64 a3 00 00 00
	00		 mov	 DWORD PTR fs:0, eax

; 548  : 	CString strData;

  00024	8d 4d f0	 lea	 ecx, DWORD PTR _strData$[ebp]
  00027	ff 15 00 00 00
	00		 call	 DWORD PTR __imp_??0?$CStringT@DV?$StrTraitMFC_DLL@DV?$ChTraitsCRT@D@ATL@@@@@ATL@@QAE@XZ

; 549  : 	strData.Format(_T("%.*s"), nSize, pszData);

  0002d	ff 75 08	 push	 DWORD PTR _pszData$[ebp]
  00030	8d 45 f0	 lea	 eax, DWORD PTR _strData$[ebp]
  00033	c7 45 fc 00 00
	00 00		 mov	 DWORD PTR __$EHRec$[ebp+8], 0
  0003a	ff 75 0c	 push	 DWORD PTR _nSize$[ebp]
  0003d	68 00 00 00 00	 push	 OFFSET ??_C@_04EBNJJJJI@?$CF?4?$CKs@
  00042	50		 push	 eax
  00043	ff 15 00 00 00
	00		 call	 DWORD PTR __imp_?Format@?$CStringT@DV?$StrTraitMFC_DLL@DV?$ChTraitsCRT@D@ATL@@@@@ATL@@QAAXPBDZZ

; 550  : 
; 551  : 	return atoi(strData);

  00049	ff 75 f0	 push	 DWORD PTR _strData$[ebp]
  0004c	ff 15 00 00 00
	00		 call	 DWORD PTR __imp__atoi
  00052	83 c4 14	 add	 esp, 20			; 00000014H
  00055	8d 4d f0	 lea	 ecx, DWORD PTR _strData$[ebp]
  00058	8b f0		 mov	 esi, eax
  0005a	ff 15 00 00 00
	00		 call	 DWORD PTR __imp_??1?$CStringT@DV?$StrTraitMFC_DLL@DV?$ChTraitsCRT@D@ATL@@@@@ATL@@QAE@XZ
  00060	8b c6		 mov	 eax, esi

; 552  : }

  00062	8b 4d f4	 mov	 ecx, DWORD PTR __$EHRec$[ebp]
  00065	64 89 0d 00 00
	00 00		 mov	 DWORD PTR fs:0, ecx
  0006c	59		 pop	 ecx
  0006d	5e		 pop	 esi
  0006e	8b e5		 mov	 esp, ebp
  00070	5d		 pop	 ebp
  00071	c3		 ret	 0
_TEXT	ENDS
;	COMDAT text$x
text$x	SEGMENT
__unwindfunclet$?Char2Int@CDataConverter@@SAHPADH@Z$0:
  00000	8d 4d f0	 lea	 ecx, DWORD PTR _strData$[ebp]
  00003	ff 25 00 00 00
	00		 jmp	 DWORD PTR __imp_??1?$CStringT@DV?$StrTraitMFC_DLL@DV?$ChTraitsCRT@D@ATL@@@@@ATL@@QAE@XZ
  00009	cc		 int	 3
  0000a	cc		 int	 3
  0000b	cc		 int	 3
  0000c	cc		 int	 3
  0000d	cc		 int	 3
__ehhandler$?Char2Int@CDataConverter@@SAHPADH@Z:
  0000e	90		 npad	 1
  0000f	90		 npad	 1
  00010	8b 54 24 08	 mov	 edx, DWORD PTR [esp+8]
  00014	8d 42 0c	 lea	 eax, DWORD PTR [edx+12]
  00017	8b 4a f4	 mov	 ecx, DWORD PTR [edx-12]
  0001a	33 c8		 xor	 ecx, eax
  0001c	e8 00 00 00 00	 call	 @__security_check_cookie@4
  00021	b8 00 00 00 00	 mov	 eax, OFFSET __ehfuncinfo$?Char2Int@CDataConverter@@SAHPADH@Z
  00026	e9 00 00 00 00	 jmp	 ___CxxFrameHandler3
text$x	ENDS
?Char2Int@CDataConverter@@SAHPADH@Z ENDP		; CDataConverter::Char2Int
; Function compile flags: /Ogtp
; File D:\git\src\IBK\IBK_DRFN\ProjSrc\SrcDrfn\DrCommon\PartnerMng\DataConverter.cpp
;	COMDAT ?Char2String@CDataConverter@@SA?AV?$CStringT@DV?$StrTraitMFC_DLL@DV?$ChTraitsCRT@D@ATL@@@@@ATL@@PADH@Z
_TEXT	SEGMENT
$T2 = -16						; size = 4
__$EHRec$ = -12						; size = 12
___$ReturnUdt$ = 8					; size = 4
_pszData$ = 12						; size = 4
_nSize$ = 16						; size = 4
?Char2String@CDataConverter@@SA?AV?$CStringT@DV?$StrTraitMFC_DLL@DV?$ChTraitsCRT@D@ATL@@@@@ATL@@PADH@Z PROC ; CDataConverter::Char2String, COMDAT

; 539  : {

  00000	55		 push	 ebp
  00001	8b ec		 mov	 ebp, esp
  00003	6a ff		 push	 -1
  00005	68 00 00 00 00	 push	 __ehhandler$?Char2String@CDataConverter@@SA?AV?$CStringT@DV?$StrTraitMFC_DLL@DV?$ChTraitsCRT@D@ATL@@@@@ATL@@PADH@Z
  0000a	64 a1 00 00 00
	00		 mov	 eax, DWORD PTR fs:0
  00010	50		 push	 eax
  00011	51		 push	 ecx
  00012	56		 push	 esi
  00013	a1 00 00 00 00	 mov	 eax, DWORD PTR ___security_cookie
  00018	33 c5		 xor	 eax, ebp
  0001a	50		 push	 eax
  0001b	8d 45 f4	 lea	 eax, DWORD PTR __$EHRec$[ebp]
  0001e	64 a3 00 00 00
	00		 mov	 DWORD PTR fs:0, eax

; 540  : 	CString strData = CString(pszData, nSize);

  00024	ff 75 10	 push	 DWORD PTR _nSize$[ebp]
  00027	c7 45 f0 00 00
	00 00		 mov	 DWORD PTR $T2[ebp], 0
  0002e	ff 75 0c	 push	 DWORD PTR _pszData$[ebp]
  00031	8b 75 08	 mov	 esi, DWORD PTR ___$ReturnUdt$[ebp]
  00034	8b ce		 mov	 ecx, esi
  00036	c7 45 fc 00 00
	00 00		 mov	 DWORD PTR __$EHRec$[ebp+8], 0
  0003d	ff 15 00 00 00
	00		 call	 DWORD PTR __imp_??0?$CStringT@DV?$StrTraitMFC_DLL@DV?$ChTraitsCRT@D@ATL@@@@@ATL@@QAE@PBDH@Z

; 541  : 	strData.TrimRight();	strData.TrimLeft();
; 542  : 
; 543  : 	return strData;

  00043	8b ce		 mov	 ecx, esi
  00045	c7 45 fc 00 00
	00 00		 mov	 DWORD PTR __$EHRec$[ebp+8], 0
  0004c	c7 45 f0 01 00
	00 00		 mov	 DWORD PTR $T2[ebp], 1
  00053	ff 15 00 00 00
	00		 call	 DWORD PTR __imp_?TrimRight@?$CStringT@DV?$StrTraitMFC_DLL@DV?$ChTraitsCRT@D@ATL@@@@@ATL@@QAEAAV12@XZ
  00059	8b ce		 mov	 ecx, esi
  0005b	ff 15 00 00 00
	00		 call	 DWORD PTR __imp_?TrimLeft@?$CStringT@DV?$StrTraitMFC_DLL@DV?$ChTraitsCRT@D@ATL@@@@@ATL@@QAEAAV12@XZ
  00061	8b c6		 mov	 eax, esi

; 544  : }

  00063	8b 4d f4	 mov	 ecx, DWORD PTR __$EHRec$[ebp]
  00066	64 89 0d 00 00
	00 00		 mov	 DWORD PTR fs:0, ecx
  0006d	59		 pop	 ecx
  0006e	5e		 pop	 esi
  0006f	8b e5		 mov	 esp, ebp
  00071	5d		 pop	 ebp
  00072	c3		 ret	 0
_TEXT	ENDS
;	COMDAT text$x
text$x	SEGMENT
__unwindfunclet$?Char2String@CDataConverter@@SA?AV?$CStringT@DV?$StrTraitMFC_DLL@DV?$ChTraitsCRT@D@ATL@@@@@ATL@@PADH@Z$0:
  00000	8b 45 f0	 mov	 eax, DWORD PTR $T2[ebp]
  00003	83 e0 01	 and	 eax, 1
  00006	0f 84 0d 00 00
	00		 je	 $LN4@Char2Strin
  0000c	83 65 f0 fe	 and	 DWORD PTR $T2[ebp], -2	; fffffffeH
  00010	8b 4d 08	 mov	 ecx, DWORD PTR ___$ReturnUdt$[ebp]
  00013	ff 25 00 00 00
	00		 jmp	 DWORD PTR __imp_??1?$CStringT@DV?$StrTraitMFC_DLL@DV?$ChTraitsCRT@D@ATL@@@@@ATL@@QAE@XZ
$LN4@Char2Strin:
  00019	c3		 ret	 0
  0001a	cc		 int	 3
  0001b	cc		 int	 3
  0001c	cc		 int	 3
  0001d	cc		 int	 3
  0001e	cc		 int	 3
__ehhandler$?Char2String@CDataConverter@@SA?AV?$CStringT@DV?$StrTraitMFC_DLL@DV?$ChTraitsCRT@D@ATL@@@@@ATL@@PADH@Z:
  0001f	90		 npad	 1
  00020	90		 npad	 1
  00021	8b 54 24 08	 mov	 edx, DWORD PTR [esp+8]
  00025	8d 42 0c	 lea	 eax, DWORD PTR [edx+12]
  00028	8b 4a f4	 mov	 ecx, DWORD PTR [edx-12]
  0002b	33 c8		 xor	 ecx, eax
  0002d	e8 00 00 00 00	 call	 @__security_check_cookie@4
  00032	b8 00 00 00 00	 mov	 eax, OFFSET __ehfuncinfo$?Char2String@CDataConverter@@SA?AV?$CStringT@DV?$StrTraitMFC_DLL@DV?$ChTraitsCRT@D@ATL@@@@@ATL@@PADH@Z
  00037	e9 00 00 00 00	 jmp	 ___CxxFrameHandler3
text$x	ENDS
?Char2String@CDataConverter@@SA?AV?$CStringT@DV?$StrTraitMFC_DLL@DV?$ChTraitsCRT@D@ATL@@@@@ATL@@PADH@Z ENDP ; CDataConverter::Char2String
; Function compile flags: /Ogtp
; File D:\git\src\IBK\IBK_DRFN\ProjSrc\SrcDrfn\DrCommon\PartnerMng\DataConverter.cpp
; File D:\git\src\IBK\IBK_DRFN\ProjSrc\SrcDrfn\DrCommon\PartnerMng\ChartItemStock.h
; File D:\git\src\IBK\IBK_DRFN\ProjSrc\SrcDrfn\DrCommon\PartnerMng\DataConverter.cpp
; File D:\git\src\IBK\IBK_DRFN\ProjSrc\SrcDrfn\DrCommon\PartnerMng\ChartItemUpjong.h
; File D:\git\src\IBK\IBK_DRFN\ProjSrc\SrcDrfn\DrCommon\PartnerMng\DataConverter.cpp
; File D:\git\src\IBK\IBK_DRFN\ProjSrc\SrcDrfn\DrCommon\PartnerMng\ChartItemFO.h
; File D:\git\src\IBK\IBK_DRFN\ProjSrc\SrcDrfn\DrCommon\PartnerMng\DataConverter.cpp
; File D:\git\src\IBK\IBK_DRFN\ProjSrc\SrcDrfn\DrCommon\PartnerMng\ChartItemSFO.h
; File D:\git\src\IBK\IBK_DRFN\ProjSrc\SrcDrfn\DrCommon\PartnerMng\DataConverter.cpp
; File D:\git\src\IBK\IBK_DRFN\ProjSrc\SrcDrfn\DrCommon\PartnerMng\ChartItemForeign.h
; File D:\git\src\IBK\IBK_DRFN\ProjSrc\SrcDrfn\DrCommon\PartnerMng\DataConverter.cpp
; File D:\git\src\IBK\IBK_DRFN\ProjSrc\SrcDrfn\DrCommon\PartnerMng\ChartItemFOForeign.h
; File D:\git\src\IBK\IBK_DRFN\ProjSrc\SrcDrfn\DrCommon\PartnerMng\DataConverter.cpp
; File D:\git\src\IBK\IBK_DRFN\ProjSrc\SrcDrfn\DrCommon\PartnerMng\ChartItemFX.h
; File D:\git\src\IBK\IBK_DRFN\ProjSrc\SrcDrfn\DrCommon\PartnerMng\DataConverter.cpp
; File C:\Program Files (x86)\Microsoft Visual Studio\2019\Community\VC\Tools\MSVC\14.29.30133\atlmfc\include\atlsimpstr.h
; File D:\git\src\IBK\IBK_DRFN\ProjSrc\SrcDrfn\DrCommon\PartnerMng\DataConverter.cpp
; File C:\Program Files (x86)\Microsoft Visual Studio\2019\Community\VC\Tools\MSVC\14.29.30133\atlmfc\include\atlsimpstr.h
; File D:\git\src\IBK\IBK_DRFN\ProjSrc\SrcDrfn\DrCommon\PartnerMng\DataConverter.cpp
; File C:\Program Files (x86)\Microsoft Visual Studio\2019\Community\VC\Tools\MSVC\14.29.30133\atlmfc\include\atlsimpstr.h
; File D:\git\src\IBK\IBK_DRFN\ProjSrc\SrcDrfn\DrCommon\PartnerMng\DataConverter.cpp
; File C:\Program Files (x86)\Microsoft Visual Studio\2019\Community\VC\Tools\MSVC\14.29.30133\atlmfc\include\atlsimpstr.h
; File D:\git\src\IBK\IBK_DRFN\ProjSrc\SrcDrfn\DrCommon\PartnerMng\DataConverter.cpp
; File C:\Program Files (x86)\Microsoft Visual Studio\2019\Community\VC\Tools\MSVC\14.29.30133\atlmfc\include\atlsimpstr.h
; File D:\git\src\IBK\IBK_DRFN\ProjSrc\SrcDrfn\DrCommon\PartnerMng\DataConverter.cpp
; File C:\Program Files (x86)\Microsoft Visual Studio\2019\Community\VC\Tools\MSVC\14.29.30133\atlmfc\include\atlsimpstr.h
; File D:\git\src\IBK\IBK_DRFN\ProjSrc\SrcDrfn\DrCommon\PartnerMng\DataConverter.cpp
; File C:\Program Files (x86)\Microsoft Visual Studio\2019\Community\VC\Tools\MSVC\14.29.30133\atlmfc\include\atlsimpstr.h
; File D:\git\src\IBK\IBK_DRFN\ProjSrc\SrcDrfn\DrCommon\PartnerMng\DataConverter.cpp
; File C:\Program Files (x86)\Microsoft Visual Studio\2019\Community\VC\Tools\MSVC\14.29.30133\atlmfc\include\atlsimpstr.h
; File D:\git\src\IBK\IBK_DRFN\ProjSrc\SrcDrfn\DrCommon\PartnerMng\DataConverter.cpp
; File C:\Program Files (x86)\Microsoft Visual Studio\2019\Community\VC\Tools\MSVC\14.29.30133\atlmfc\include\atlsimpstr.h
; File D:\git\src\IBK\IBK_DRFN\ProjSrc\SrcDrfn\DrCommon\PartnerMng\DataConverter.cpp
; File C:\Program Files (x86)\Microsoft Visual Studio\2019\Community\VC\Tools\MSVC\14.29.30133\atlmfc\include\atlsimpstr.h
; File D:\git\src\IBK\IBK_DRFN\ProjSrc\SrcDrfn\DrCommon\PartnerMng\DataConverter.cpp
; File C:\Program Files (x86)\Microsoft Visual Studio\2019\Community\VC\Tools\MSVC\14.29.30133\atlmfc\include\atlsimpstr.h
; File D:\git\src\IBK\IBK_DRFN\ProjSrc\SrcDrfn\DrCommon\PartnerMng\DataConverter.cpp
;	COMDAT ?GetConv2StructGuideLine@CDataConverter@@QAEPADHAAH@Z
_TEXT	SEGMENT
tv1126 = -432						; size = 4
_dValue$2 = -428					; size = 8
_strData$3 = -420					; size = 4
_input$ = -416						; size = 200
$T4 = -216						; size = 200
$T5 = -216						; size = 200
$T6 = -216						; size = 200
$T7 = -216						; size = 200
$T8 = -216						; size = 200
$T9 = -216						; size = 200
$T10 = -216						; size = 200
_outRec$ = -116						; size = 100
__$ArrayPad$ = -16					; size = 4
__$EHRec$ = -12						; size = 12
_nKey$ = 8						; size = 4
_nDataLen$ = 12						; size = 4
?GetConv2StructGuideLine@CDataConverter@@QAEPADHAAH@Z PROC ; CDataConverter::GetConv2StructGuideLine, COMDAT
; _this$ = ecx

; 353  : {

  00000	55		 push	 ebp
  00001	8b ec		 mov	 ebp, esp
  00003	6a ff		 push	 -1
  00005	68 00 00 00 00	 push	 __ehhandler$?GetConv2StructGuideLine@CDataConverter@@QAEPADHAAH@Z
  0000a	64 a1 00 00 00
	00		 mov	 eax, DWORD PTR fs:0
  00010	50		 push	 eax
  00011	81 ec a4 01 00
	00		 sub	 esp, 420		; 000001a4H
  00017	a1 00 00 00 00	 mov	 eax, DWORD PTR ___security_cookie
  0001c	33 c5		 xor	 eax, ebp
  0001e	89 45 f0	 mov	 DWORD PTR __$ArrayPad$[ebp], eax
  00021	53		 push	 ebx
  00022	56		 push	 esi
  00023	57		 push	 edi
  00024	50		 push	 eax
  00025	8d 45 f4	 lea	 eax, DWORD PTR __$EHRec$[ebp]
  00028	64 a3 00 00 00
	00		 mov	 DWORD PTR fs:0, eax
  0002e	8b f1		 mov	 esi, ecx
  00030	8b 45 0c	 mov	 eax, DWORD PTR _nDataLen$[ebp]

; 354  : 	BOOL bRet = TRUE, bDouble = FALSE;
; 355  : 	CChartBozoInput input;

  00033	8d 8d 60 fe ff
	ff		 lea	 ecx, DWORD PTR _input$[ebp]
  00039	89 85 50 fe ff
	ff		 mov	 DWORD PTR tv1126[ebp], eax
  0003f	33 ff		 xor	 edi, edi
  00041	e8 00 00 00 00	 call	 ??0CChartBozoInput@@QAE@XZ ; CChartBozoInput::CChartBozoInput

; 356  : 	switch (nKey)

  00046	8b 45 08	 mov	 eax, DWORD PTR _nKey$[ebp]
  00049	83 c0 e2	 add	 eax, -30		; ffffffe2H
  0004c	89 7d fc	 mov	 DWORD PTR __$EHRec$[ebp+8], edi
  0004f	83 f8 20	 cmp	 eax, 32			; 00000020H
  00052	0f 87 b3 05 00
	00		 ja	 $LN11@GetConv2St
  00058	0f b6 80 00 00
	00 00		 movzx	 eax, BYTE PTR $LN319@GetConv2St[eax]
  0005f	ff 24 85 00 00
	00 00		 jmp	 DWORD PTR $LN320@GetConv2St[eax*4]
$LN4@GetConv2St:
; File D:\git\src\IBK\IBK_DRFN\ProjSrc\SrcDrfn\DrCommon\PartnerMng\ChartItemStock.h

; 30   : 	CChartBozoInput	GetBozoInputData()	{ return m_bojoInput;	};

  00066	8d 86 c4 03 00
	00		 lea	 eax, DWORD PTR [esi+964]
  0006c	50		 push	 eax
  0006d	8d 8d 28 ff ff
	ff		 lea	 ecx, DWORD PTR $T10[ebp]
  00073	e8 00 00 00 00	 call	 ??0CChartBozoInput@@QAE@ABV0@@Z ; CChartBozoInput::CChartBozoInput
; File D:\git\src\IBK\IBK_DRFN\ProjSrc\SrcDrfn\DrCommon\PartnerMng\DataConverter.cpp

; 358  : 	case TRKEY_STRJONGMOK:		input = m_Stock.GetBozoInputData();		break;

  00078	c6 45 fc 01	 mov	 BYTE PTR __$EHRec$[ebp+8], 1
  0007c	e9 e2 00 00 00	 jmp	 $LN322@GetConv2St
$LN5@GetConv2St:
; File D:\git\src\IBK\IBK_DRFN\ProjSrc\SrcDrfn\DrCommon\PartnerMng\ChartItemUpjong.h

; 31   : 	CChartBozoInput	GetBozoInputData()	{ return m_bojoInput;	};

  00081	8d 86 d8 04 00
	00		 lea	 eax, DWORD PTR [esi+1240]
  00087	50		 push	 eax
  00088	8d 8d 28 ff ff
	ff		 lea	 ecx, DWORD PTR $T9[ebp]
  0008e	e8 00 00 00 00	 call	 ??0CChartBozoInput@@QAE@ABV0@@Z ; CChartBozoInput::CChartBozoInput
; File D:\git\src\IBK\IBK_DRFN\ProjSrc\SrcDrfn\DrCommon\PartnerMng\DataConverter.cpp

; 359  : 	case TRKEY_STRUPJONG:		input = m_Upjong.GetBozoInputData();	bDouble = TRUE;	break;

  00093	8d 85 28 ff ff
	ff		 lea	 eax, DWORD PTR $T9[ebp]
  00099	c6 45 fc 02	 mov	 BYTE PTR __$EHRec$[ebp+8], 2
  0009d	50		 push	 eax
  0009e	8b 85 60 fe ff
	ff		 mov	 eax, DWORD PTR _input$[ebp]
  000a4	8d 8d 60 fe ff
	ff		 lea	 ecx, DWORD PTR _input$[ebp]
  000aa	ff 50 04	 call	 DWORD PTR [eax+4]
  000ad	8d 8d 28 ff ff
	ff		 lea	 ecx, DWORD PTR $T9[ebp]
  000b3	c6 45 fc 00	 mov	 BYTE PTR __$EHRec$[ebp+8], 0
  000b7	e8 00 00 00 00	 call	 ??1CChartBozoInput@@QAE@XZ
  000bc	bf 01 00 00 00	 mov	 edi, 1
  000c1	e9 c2 00 00 00	 jmp	 $LN16@GetConv2St
$LN6@GetConv2St:
; File D:\git\src\IBK\IBK_DRFN\ProjSrc\SrcDrfn\DrCommon\PartnerMng\ChartItemFO.h

; 38   : 	CChartBozoInput	GetBozoInputData()	{ return m_bojoInput;	};

  000c6	8d 46 58	 lea	 eax, DWORD PTR [esi+88]
  000c9	50		 push	 eax
  000ca	8d 8d 28 ff ff
	ff		 lea	 ecx, DWORD PTR $T8[ebp]
  000d0	e8 00 00 00 00	 call	 ??0CChartBozoInput@@QAE@ABV0@@Z ; CChartBozoInput::CChartBozoInput
; File D:\git\src\IBK\IBK_DRFN\ProjSrc\SrcDrfn\DrCommon\PartnerMng\DataConverter.cpp

; 360  : 	case TRKEY_STRFUTOPT:		input = m_FutOpt.GetBozoInputData();	bDouble = FALSE;	break;

  000d5	8d 85 28 ff ff
	ff		 lea	 eax, DWORD PTR $T8[ebp]
  000db	c6 45 fc 03	 mov	 BYTE PTR __$EHRec$[ebp+8], 3
  000df	50		 push	 eax
  000e0	8b 85 60 fe ff
	ff		 mov	 eax, DWORD PTR _input$[ebp]
  000e6	8d 8d 60 fe ff
	ff		 lea	 ecx, DWORD PTR _input$[ebp]
  000ec	ff 50 04	 call	 DWORD PTR [eax+4]
  000ef	8d 8d 28 ff ff
	ff		 lea	 ecx, DWORD PTR $T8[ebp]
  000f5	c6 45 fc 00	 mov	 BYTE PTR __$EHRec$[ebp+8], 0
  000f9	e8 00 00 00 00	 call	 ??1CChartBozoInput@@QAE@XZ
  000fe	33 ff		 xor	 edi, edi
  00100	e9 83 00 00 00	 jmp	 $LN16@GetConv2St
$LN7@GetConv2St:
; File D:\git\src\IBK\IBK_DRFN\ProjSrc\SrcDrfn\DrCommon\PartnerMng\ChartItemSFO.h

; 31   : 	CChartBozoInput	GetBozoInputData()	{ return m_bojoInput;	};

  00105	8d 86 84 02 00
	00		 lea	 eax, DWORD PTR [esi+644]
  0010b	50		 push	 eax
  0010c	8d 8d 28 ff ff
	ff		 lea	 ecx, DWORD PTR $T7[ebp]
  00112	e8 00 00 00 00	 call	 ??0CChartBozoInput@@QAE@ABV0@@Z ; CChartBozoInput::CChartBozoInput
; File D:\git\src\IBK\IBK_DRFN\ProjSrc\SrcDrfn\DrCommon\PartnerMng\DataConverter.cpp

; 361  : 	case TRKEY_STRSTOCKFUTOPT:	input = m_StockFO.GetBozoInputData();	break;

  00117	c6 45 fc 04	 mov	 BYTE PTR __$EHRec$[ebp+8], 4
  0011b	eb 46		 jmp	 SHORT $LN322@GetConv2St
$LN8@GetConv2St:
; File D:\git\src\IBK\IBK_DRFN\ProjSrc\SrcDrfn\DrCommon\PartnerMng\ChartItemForeign.h

; 31   : 	CChartBozoInput	GetBozoInputData()	{ return m_bojoInput;	};

  0011d	8d 86 68 01 00
	00		 lea	 eax, DWORD PTR [esi+360]
  00123	50		 push	 eax
  00124	8d 8d 28 ff ff
	ff		 lea	 ecx, DWORD PTR $T6[ebp]
  0012a	e8 00 00 00 00	 call	 ??0CChartBozoInput@@QAE@ABV0@@Z ; CChartBozoInput::CChartBozoInput
; File D:\git\src\IBK\IBK_DRFN\ProjSrc\SrcDrfn\DrCommon\PartnerMng\DataConverter.cpp

; 362  : 	case TRKEY_STRFOREIGN:		input = m_Foreign.GetBozoInputData();	break;

  0012f	c6 45 fc 05	 mov	 BYTE PTR __$EHRec$[ebp+8], 5
  00133	eb 2e		 jmp	 SHORT $LN322@GetConv2St
$LN9@GetConv2St:
; File D:\git\src\IBK\IBK_DRFN\ProjSrc\SrcDrfn\DrCommon\PartnerMng\ChartItemFOForeign.h

; 32   : 	CChartBozoInput	GetBozoInputData()	{ return m_bojoInput;	};

  00135	8d 86 d4 09 00
	00		 lea	 eax, DWORD PTR [esi+2516]
  0013b	50		 push	 eax
  0013c	8d 8d 28 ff ff
	ff		 lea	 ecx, DWORD PTR $T5[ebp]
  00142	e8 00 00 00 00	 call	 ??0CChartBozoInput@@QAE@ABV0@@Z ; CChartBozoInput::CChartBozoInput
; File D:\git\src\IBK\IBK_DRFN\ProjSrc\SrcDrfn\DrCommon\PartnerMng\DataConverter.cpp

; 363  : 	case TRKEY_STRFOFOREIGN:	input = m_FOForeign.GetBozoInputData();	break;

  00147	c6 45 fc 06	 mov	 BYTE PTR __$EHRec$[ebp+8], 6
  0014b	eb 16		 jmp	 SHORT $LN322@GetConv2St
$LN10@GetConv2St:
; File D:\git\src\IBK\IBK_DRFN\ProjSrc\SrcDrfn\DrCommon\PartnerMng\ChartItemFX.h

; 31   : 	CChartBozoInput	GetBozoInputData()	{ return m_bojoInput;	};

  0014d	8d 86 2c 0d 00
	00		 lea	 eax, DWORD PTR [esi+3372]
  00153	50		 push	 eax
  00154	8d 8d 28 ff ff
	ff		 lea	 ecx, DWORD PTR $T4[ebp]
  0015a	e8 00 00 00 00	 call	 ??0CChartBozoInput@@QAE@ABV0@@Z ; CChartBozoInput::CChartBozoInput
; File D:\git\src\IBK\IBK_DRFN\ProjSrc\SrcDrfn\DrCommon\PartnerMng\DataConverter.cpp

; 364  : 	case TRKEY_STRFX:			input = m_FX.GetBozoInputData();		break;//20100326_JS.Kim

  0015f	c6 45 fc 07	 mov	 BYTE PTR __$EHRec$[ebp+8], 7
$LN322@GetConv2St:

; 375  : 		return "";
; 376  : 	}
; 377  : 
; 378  : 	KB_d1017_OutRec1 outRec;
; 379  : 	memset(&outRec, 0x20, sizeof(KB_d1017_OutRec1));

  00163	8d 85 28 ff ff
	ff		 lea	 eax, DWORD PTR $T4[ebp]
  00169	50		 push	 eax
  0016a	8b 85 60 fe ff
	ff		 mov	 eax, DWORD PTR _input$[ebp]
  00170	8d 8d 60 fe ff
	ff		 lea	 ecx, DWORD PTR _input$[ebp]
  00176	ff 50 04	 call	 DWORD PTR [eax+4]
  00179	8d 8d 28 ff ff
	ff		 lea	 ecx, DWORD PTR $T4[ebp]
  0017f	c6 45 fc 00	 mov	 BYTE PTR __$EHRec$[ebp+8], 0
  00183	e8 00 00 00 00	 call	 ??1CChartBozoInput@@QAE@XZ
$LN16@GetConv2St:
  00188	6a 64		 push	 100			; 00000064H
  0018a	8d 45 8c	 lea	 eax, DWORD PTR _outRec$[ebp]
  0018d	6a 20		 push	 32			; 00000020H
  0018f	50		 push	 eax
  00190	e8 00 00 00 00	 call	 _memset
  00195	83 c4 0c	 add	 esp, 12			; 0000000cH

; 380  : 	if (bDouble)

  00198	85 ff		 test	 edi, edi
  0019a	0f 84 47 03 00
	00		 je	 $LN17@GetConv2St

; 381  : 	{
; 382  : 		CString strData;

  001a0	8d 8d 5c fe ff
	ff		 lea	 ecx, DWORD PTR _strData$3[ebp]
  001a6	ff 15 00 00 00
	00		 call	 DWORD PTR __imp_??0?$CStringT@DV?$StrTraitMFC_DLL@DV?$ChTraitsCRT@D@ATL@@@@@ATL@@QAE@XZ

; 383  : 		double dValue = 0;
; 384  : 		dValue = atof(input.m_sPreOpen) / 100.0;		strData.Format(_T("%.2f"), dValue);

  001ac	ff b5 a8 fe ff
	ff		 push	 DWORD PTR _input$[ebp+72]
  001b2	c6 45 fc 08	 mov	 BYTE PTR __$EHRec$[ebp+8], 8
  001b6	ff 15 00 00 00
	00		 call	 DWORD PTR __imp__atof
  001bc	dc 35 00 00 00
	00		 fdiv	 QWORD PTR __real@4059000000000000
  001c2	8d 85 5c fe ff
	ff		 lea	 eax, DWORD PTR _strData$3[ebp]
  001c8	8b 35 00 00 00
	00		 mov	 esi, DWORD PTR __imp_?Format@?$CStringT@DV?$StrTraitMFC_DLL@DV?$ChTraitsCRT@D@ATL@@@@@ATL@@QAAXPBDZZ
  001ce	51		 push	 ecx
  001cf	dd 9d 54 fe ff
	ff		 fstp	 QWORD PTR _dValue$2[ebp]
  001d5	f2 0f 10 85 54
	fe ff ff	 movsd	 xmm0, QWORD PTR _dValue$2[ebp]
  001dd	f2 0f 11 04 24	 movsd	 QWORD PTR [esp], xmm0
  001e2	68 00 00 00 00	 push	 OFFSET ??_C@_04GEFJINEE@?$CF?42f@
  001e7	50		 push	 eax
  001e8	ff d6		 call	 esi
; File C:\Program Files (x86)\Microsoft Visual Studio\2019\Community\VC\Tools\MSVC\14.29.30133\atlmfc\include\atlsimpstr.h

; 519  : 		return( GetData()->nDataLength );

  001ea	8b 85 5c fe ff
	ff		 mov	 eax, DWORD PTR _strData$3[ebp]
; File D:\git\src\IBK\IBK_DRFN\ProjSrc\SrcDrfn\DrCommon\PartnerMng\DataConverter.cpp

; 385  : 		memcpy(outRec.preopen,	(LPCSTR)(LPCTSTR)strData,	min(sizeof(outRec.preopen),	 strData.GetLength()));

  001f0	bf 0a 00 00 00	 mov	 edi, 10			; 0000000aH
; File C:\Program Files (x86)\Microsoft Visual Studio\2019\Community\VC\Tools\MSVC\14.29.30133\atlmfc\include\atlsimpstr.h

; 519  : 		return( GetData()->nDataLength );

  001f5	8b 48 f4	 mov	 ecx, DWORD PTR [eax-12]
; File D:\git\src\IBK\IBK_DRFN\ProjSrc\SrcDrfn\DrCommon\PartnerMng\DataConverter.cpp

; 385  : 		memcpy(outRec.preopen,	(LPCSTR)(LPCTSTR)strData,	min(sizeof(outRec.preopen),	 strData.GetLength()));

  001f8	3b cf		 cmp	 ecx, edi
  001fa	0f 47 cf	 cmova	 ecx, edi
  001fd	51		 push	 ecx
  001fe	50		 push	 eax
  001ff	8d 45 8c	 lea	 eax, DWORD PTR _outRec$[ebp]
  00202	50		 push	 eax
  00203	e8 00 00 00 00	 call	 _memcpy

; 386  : 		dValue = atof(input.m_sPreHigh) / 100.0;		strData.Format(_T("%.2f"), dValue);

  00208	ff b5 ac fe ff
	ff		 push	 DWORD PTR _input$[ebp+76]
  0020e	ff 15 00 00 00
	00		 call	 DWORD PTR __imp__atof
  00214	dc 35 00 00 00
	00		 fdiv	 QWORD PTR __real@4059000000000000
  0021a	8d 85 5c fe ff
	ff		 lea	 eax, DWORD PTR _strData$3[ebp]
  00220	83 c4 18	 add	 esp, 24			; 00000018H
  00223	dd 9d 54 fe ff
	ff		 fstp	 QWORD PTR _dValue$2[ebp]
  00229	f2 0f 10 85 54
	fe ff ff	 movsd	 xmm0, QWORD PTR _dValue$2[ebp]
  00231	f2 0f 11 04 24	 movsd	 QWORD PTR [esp], xmm0
  00236	68 00 00 00 00	 push	 OFFSET ??_C@_04GEFJINEE@?$CF?42f@
  0023b	50		 push	 eax
  0023c	ff d6		 call	 esi
; File C:\Program Files (x86)\Microsoft Visual Studio\2019\Community\VC\Tools\MSVC\14.29.30133\atlmfc\include\atlsimpstr.h

; 519  : 		return( GetData()->nDataLength );

  0023e	8b 85 5c fe ff
	ff		 mov	 eax, DWORD PTR _strData$3[ebp]
  00244	8b 48 f4	 mov	 ecx, DWORD PTR [eax-12]
; File D:\git\src\IBK\IBK_DRFN\ProjSrc\SrcDrfn\DrCommon\PartnerMng\DataConverter.cpp

; 387  : 		memcpy(outRec.prehigh,	(LPCSTR)(LPCTSTR)strData,	min(sizeof(outRec.prehigh),	 strData.GetLength()));

  00247	3b cf		 cmp	 ecx, edi
  00249	0f 47 cf	 cmova	 ecx, edi
  0024c	51		 push	 ecx
  0024d	50		 push	 eax
  0024e	8d 45 96	 lea	 eax, DWORD PTR _outRec$[ebp+10]
  00251	50		 push	 eax
  00252	e8 00 00 00 00	 call	 _memcpy

; 388  : 		dValue = atof(input.m_sPreLow) / 100.0;		strData.Format(_T("%.2f"), dValue);

  00257	ff b5 b0 fe ff
	ff		 push	 DWORD PTR _input$[ebp+80]
  0025d	ff 15 00 00 00
	00		 call	 DWORD PTR __imp__atof
  00263	dc 35 00 00 00
	00		 fdiv	 QWORD PTR __real@4059000000000000
  00269	8d 85 5c fe ff
	ff		 lea	 eax, DWORD PTR _strData$3[ebp]
  0026f	83 c4 18	 add	 esp, 24			; 00000018H
  00272	dd 9d 54 fe ff
	ff		 fstp	 QWORD PTR _dValue$2[ebp]
  00278	f2 0f 10 85 54
	fe ff ff	 movsd	 xmm0, QWORD PTR _dValue$2[ebp]
  00280	f2 0f 11 04 24	 movsd	 QWORD PTR [esp], xmm0
  00285	68 00 00 00 00	 push	 OFFSET ??_C@_04GEFJINEE@?$CF?42f@
  0028a	50		 push	 eax
  0028b	ff d6		 call	 esi
; File C:\Program Files (x86)\Microsoft Visual Studio\2019\Community\VC\Tools\MSVC\14.29.30133\atlmfc\include\atlsimpstr.h

; 519  : 		return( GetData()->nDataLength );

  0028d	8b 85 5c fe ff
	ff		 mov	 eax, DWORD PTR _strData$3[ebp]
  00293	8b 48 f4	 mov	 ecx, DWORD PTR [eax-12]
; File D:\git\src\IBK\IBK_DRFN\ProjSrc\SrcDrfn\DrCommon\PartnerMng\DataConverter.cpp

; 389  : 		memcpy(outRec.prelow,	(LPCSTR)(LPCTSTR)strData,	min(sizeof(outRec.prelow),	 strData.GetLength()));

  00296	3b cf		 cmp	 ecx, edi
  00298	0f 47 cf	 cmova	 ecx, edi
  0029b	51		 push	 ecx
  0029c	50		 push	 eax
  0029d	8d 45 a0	 lea	 eax, DWORD PTR _outRec$[ebp+20]
  002a0	50		 push	 eax
  002a1	e8 00 00 00 00	 call	 _memcpy

; 390  : 		dValue = atof(input.m_sPreprice) / 100.0;		strData.Format(_T("%.2f"), dValue);

  002a6	ff b5 98 fe ff
	ff		 push	 DWORD PTR _input$[ebp+56]
  002ac	ff 15 00 00 00
	00		 call	 DWORD PTR __imp__atof
  002b2	dc 35 00 00 00
	00		 fdiv	 QWORD PTR __real@4059000000000000
  002b8	8d 85 5c fe ff
	ff		 lea	 eax, DWORD PTR _strData$3[ebp]
  002be	83 c4 18	 add	 esp, 24			; 00000018H
  002c1	dd 9d 54 fe ff
	ff		 fstp	 QWORD PTR _dValue$2[ebp]
  002c7	f2 0f 10 85 54
	fe ff ff	 movsd	 xmm0, QWORD PTR _dValue$2[ebp]
  002cf	f2 0f 11 04 24	 movsd	 QWORD PTR [esp], xmm0
  002d4	68 00 00 00 00	 push	 OFFSET ??_C@_04GEFJINEE@?$CF?42f@
  002d9	50		 push	 eax
  002da	ff d6		 call	 esi
; File C:\Program Files (x86)\Microsoft Visual Studio\2019\Community\VC\Tools\MSVC\14.29.30133\atlmfc\include\atlsimpstr.h

; 519  : 		return( GetData()->nDataLength );

  002dc	8b 85 5c fe ff
	ff		 mov	 eax, DWORD PTR _strData$3[ebp]
  002e2	8b 48 f4	 mov	 ecx, DWORD PTR [eax-12]
; File D:\git\src\IBK\IBK_DRFN\ProjSrc\SrcDrfn\DrCommon\PartnerMng\DataConverter.cpp

; 391  : 		memcpy(outRec.preclose, (LPCSTR)(LPCTSTR)strData,	min(sizeof(outRec.preclose), strData.GetLength()));

  002e5	3b cf		 cmp	 ecx, edi
  002e7	0f 47 cf	 cmova	 ecx, edi
  002ea	51		 push	 ecx
  002eb	50		 push	 eax
  002ec	8d 45 aa	 lea	 eax, DWORD PTR _outRec$[ebp+30]
  002ef	50		 push	 eax
  002f0	e8 00 00 00 00	 call	 _memcpy

; 392  : 		dValue = atof(input.m_sOpen) / 100.0;		strData.Format(_T("%.2f"), dValue);

  002f5	ff b5 8c fe ff
	ff		 push	 DWORD PTR _input$[ebp+44]
  002fb	ff 15 00 00 00
	00		 call	 DWORD PTR __imp__atof
  00301	dc 35 00 00 00
	00		 fdiv	 QWORD PTR __real@4059000000000000
  00307	8d 85 5c fe ff
	ff		 lea	 eax, DWORD PTR _strData$3[ebp]
  0030d	83 c4 18	 add	 esp, 24			; 00000018H
  00310	dd 9d 54 fe ff
	ff		 fstp	 QWORD PTR _dValue$2[ebp]
  00316	f2 0f 10 85 54
	fe ff ff	 movsd	 xmm0, QWORD PTR _dValue$2[ebp]
  0031e	f2 0f 11 04 24	 movsd	 QWORD PTR [esp], xmm0
  00323	68 00 00 00 00	 push	 OFFSET ??_C@_04GEFJINEE@?$CF?42f@
  00328	50		 push	 eax
  00329	ff d6		 call	 esi
; File C:\Program Files (x86)\Microsoft Visual Studio\2019\Community\VC\Tools\MSVC\14.29.30133\atlmfc\include\atlsimpstr.h

; 519  : 		return( GetData()->nDataLength );

  0032b	8b 85 5c fe ff
	ff		 mov	 eax, DWORD PTR _strData$3[ebp]
  00331	8b 48 f4	 mov	 ecx, DWORD PTR [eax-12]
; File D:\git\src\IBK\IBK_DRFN\ProjSrc\SrcDrfn\DrCommon\PartnerMng\DataConverter.cpp

; 393  : 		memcpy(outRec.open,		(LPCSTR)(LPCTSTR)strData,	min(sizeof(outRec.open),	 strData.GetLength()));

  00334	3b cf		 cmp	 ecx, edi
  00336	0f 47 cf	 cmova	 ecx, edi
  00339	51		 push	 ecx
  0033a	50		 push	 eax
  0033b	8d 45 b4	 lea	 eax, DWORD PTR _outRec$[ebp+40]
  0033e	50		 push	 eax
  0033f	e8 00 00 00 00	 call	 _memcpy

; 394  : 		dValue = atof(input.m_sHigh) / 100.0;		strData.Format(_T("%.2f"), dValue);

  00344	ff b5 90 fe ff
	ff		 push	 DWORD PTR _input$[ebp+48]
  0034a	ff 15 00 00 00
	00		 call	 DWORD PTR __imp__atof
  00350	dc 35 00 00 00
	00		 fdiv	 QWORD PTR __real@4059000000000000
  00356	8d 85 5c fe ff
	ff		 lea	 eax, DWORD PTR _strData$3[ebp]
  0035c	83 c4 18	 add	 esp, 24			; 00000018H
  0035f	dd 9d 54 fe ff
	ff		 fstp	 QWORD PTR _dValue$2[ebp]
  00365	f2 0f 10 85 54
	fe ff ff	 movsd	 xmm0, QWORD PTR _dValue$2[ebp]
  0036d	f2 0f 11 04 24	 movsd	 QWORD PTR [esp], xmm0
  00372	68 00 00 00 00	 push	 OFFSET ??_C@_04GEFJINEE@?$CF?42f@
  00377	50		 push	 eax
  00378	ff d6		 call	 esi
; File C:\Program Files (x86)\Microsoft Visual Studio\2019\Community\VC\Tools\MSVC\14.29.30133\atlmfc\include\atlsimpstr.h

; 519  : 		return( GetData()->nDataLength );

  0037a	8b 85 5c fe ff
	ff		 mov	 eax, DWORD PTR _strData$3[ebp]
  00380	8b 48 f4	 mov	 ecx, DWORD PTR [eax-12]
; File D:\git\src\IBK\IBK_DRFN\ProjSrc\SrcDrfn\DrCommon\PartnerMng\DataConverter.cpp

; 395  : 		memcpy(outRec.high,		(LPCSTR)(LPCTSTR)strData,	min(sizeof(outRec.high),	 strData.GetLength()));

  00383	3b cf		 cmp	 ecx, edi
  00385	0f 47 cf	 cmova	 ecx, edi
  00388	51		 push	 ecx
  00389	50		 push	 eax
  0038a	8d 45 be	 lea	 eax, DWORD PTR _outRec$[ebp+50]
  0038d	50		 push	 eax
  0038e	e8 00 00 00 00	 call	 _memcpy

; 396  : 		dValue = atof(input.m_sLow) / 100.0;		strData.Format(_T("%.2f"), dValue);

  00393	ff b5 94 fe ff
	ff		 push	 DWORD PTR _input$[ebp+52]
  00399	ff 15 00 00 00
	00		 call	 DWORD PTR __imp__atof
  0039f	dc 35 00 00 00
	00		 fdiv	 QWORD PTR __real@4059000000000000
  003a5	8d 85 5c fe ff
	ff		 lea	 eax, DWORD PTR _strData$3[ebp]
  003ab	83 c4 18	 add	 esp, 24			; 00000018H
  003ae	dd 9d 54 fe ff
	ff		 fstp	 QWORD PTR _dValue$2[ebp]
  003b4	f2 0f 10 85 54
	fe ff ff	 movsd	 xmm0, QWORD PTR _dValue$2[ebp]
  003bc	f2 0f 11 04 24	 movsd	 QWORD PTR [esp], xmm0
  003c1	68 00 00 00 00	 push	 OFFSET ??_C@_04GEFJINEE@?$CF?42f@
  003c6	50		 push	 eax
  003c7	ff d6		 call	 esi
; File C:\Program Files (x86)\Microsoft Visual Studio\2019\Community\VC\Tools\MSVC\14.29.30133\atlmfc\include\atlsimpstr.h

; 519  : 		return( GetData()->nDataLength );

  003c9	8b 85 5c fe ff
	ff		 mov	 eax, DWORD PTR _strData$3[ebp]
  003cf	8b 48 f4	 mov	 ecx, DWORD PTR [eax-12]
; File D:\git\src\IBK\IBK_DRFN\ProjSrc\SrcDrfn\DrCommon\PartnerMng\DataConverter.cpp

; 397  : 		memcpy(outRec.low,		(LPCSTR)(LPCTSTR)strData,	min(sizeof(outRec.low),		 strData.GetLength()));

  003d2	3b cf		 cmp	 ecx, edi
  003d4	0f 47 cf	 cmova	 ecx, edi
  003d7	51		 push	 ecx
  003d8	50		 push	 eax
  003d9	8d 45 c8	 lea	 eax, DWORD PTR _outRec$[ebp+60]
  003dc	50		 push	 eax
  003dd	e8 00 00 00 00	 call	 _memcpy

; 398  : 		dValue = atof(input.m_sPrice) / 100.0;		strData.Format(_T("%.2f"), dValue);

  003e2	ff b5 7c fe ff
	ff		 push	 DWORD PTR _input$[ebp+28]
  003e8	ff 15 00 00 00
	00		 call	 DWORD PTR __imp__atof
  003ee	dc 35 00 00 00
	00		 fdiv	 QWORD PTR __real@4059000000000000
  003f4	8d 85 5c fe ff
	ff		 lea	 eax, DWORD PTR _strData$3[ebp]
  003fa	83 c4 18	 add	 esp, 24			; 00000018H
  003fd	dd 9d 54 fe ff
	ff		 fstp	 QWORD PTR _dValue$2[ebp]
  00403	f2 0f 10 85 54
	fe ff ff	 movsd	 xmm0, QWORD PTR _dValue$2[ebp]
  0040b	f2 0f 11 04 24	 movsd	 QWORD PTR [esp], xmm0
  00410	68 00 00 00 00	 push	 OFFSET ??_C@_04GEFJINEE@?$CF?42f@
  00415	50		 push	 eax
  00416	ff d6		 call	 esi
; File C:\Program Files (x86)\Microsoft Visual Studio\2019\Community\VC\Tools\MSVC\14.29.30133\atlmfc\include\atlsimpstr.h

; 519  : 		return( GetData()->nDataLength );

  00418	8b 85 5c fe ff
	ff		 mov	 eax, DWORD PTR _strData$3[ebp]
  0041e	8b 48 f4	 mov	 ecx, DWORD PTR [eax-12]
; File D:\git\src\IBK\IBK_DRFN\ProjSrc\SrcDrfn\DrCommon\PartnerMng\DataConverter.cpp

; 399  : 		memcpy(outRec.close,	(LPCSTR)(LPCTSTR)strData,	min(sizeof(outRec.close),	 strData.GetLength()));

  00421	3b cf		 cmp	 ecx, edi
  00423	0f 47 cf	 cmova	 ecx, edi
  00426	51		 push	 ecx
  00427	50		 push	 eax
  00428	8d 45 d2	 lea	 eax, DWORD PTR _outRec$[ebp+70]
  0042b	50		 push	 eax
  0042c	e8 00 00 00 00	 call	 _memcpy

; 400  : 		dValue = atof(input.m_sUpLmtPrice) / 100.0;		strData.Format(_T("%.2f"), dValue);

  00431	ff b5 84 fe ff
	ff		 push	 DWORD PTR _input$[ebp+36]
  00437	ff 15 00 00 00
	00		 call	 DWORD PTR __imp__atof
  0043d	dc 35 00 00 00
	00		 fdiv	 QWORD PTR __real@4059000000000000
  00443	8d 85 5c fe ff
	ff		 lea	 eax, DWORD PTR _strData$3[ebp]
  00449	83 c4 18	 add	 esp, 24			; 00000018H
  0044c	dd 9d 54 fe ff
	ff		 fstp	 QWORD PTR _dValue$2[ebp]
  00452	f2 0f 10 85 54
	fe ff ff	 movsd	 xmm0, QWORD PTR _dValue$2[ebp]
  0045a	f2 0f 11 04 24	 movsd	 QWORD PTR [esp], xmm0
  0045f	68 00 00 00 00	 push	 OFFSET ??_C@_04GEFJINEE@?$CF?42f@
  00464	50		 push	 eax
  00465	ff d6		 call	 esi
; File C:\Program Files (x86)\Microsoft Visual Studio\2019\Community\VC\Tools\MSVC\14.29.30133\atlmfc\include\atlsimpstr.h

; 519  : 		return( GetData()->nDataLength );

  00467	8b 85 5c fe ff
	ff		 mov	 eax, DWORD PTR _strData$3[ebp]
  0046d	8b 48 f4	 mov	 ecx, DWORD PTR [eax-12]
; File D:\git\src\IBK\IBK_DRFN\ProjSrc\SrcDrfn\DrCommon\PartnerMng\DataConverter.cpp

; 401  : 		memcpy(outRec.hprice,	(LPCSTR)(LPCTSTR)strData,	min(sizeof(outRec.hprice),	 strData.GetLength()));

  00470	3b cf		 cmp	 ecx, edi
  00472	0f 47 cf	 cmova	 ecx, edi
  00475	51		 push	 ecx
  00476	50		 push	 eax
  00477	8d 45 dc	 lea	 eax, DWORD PTR _outRec$[ebp+80]
  0047a	50		 push	 eax
  0047b	e8 00 00 00 00	 call	 _memcpy

; 402  : 		dValue = atof(input.m_sDnLmtPrice) / 100.0;		strData.Format(_T("%.2f"), dValue);

  00480	ff b5 88 fe ff
	ff		 push	 DWORD PTR _input$[ebp+40]
  00486	ff 15 00 00 00
	00		 call	 DWORD PTR __imp__atof
  0048c	dc 35 00 00 00
	00		 fdiv	 QWORD PTR __real@4059000000000000
  00492	8d 85 5c fe ff
	ff		 lea	 eax, DWORD PTR _strData$3[ebp]
  00498	83 c4 18	 add	 esp, 24			; 00000018H
  0049b	dd 9d 54 fe ff
	ff		 fstp	 QWORD PTR _dValue$2[ebp]
  004a1	f2 0f 10 85 54
	fe ff ff	 movsd	 xmm0, QWORD PTR _dValue$2[ebp]
  004a9	f2 0f 11 04 24	 movsd	 QWORD PTR [esp], xmm0
  004ae	68 00 00 00 00	 push	 OFFSET ??_C@_04GEFJINEE@?$CF?42f@
  004b3	50		 push	 eax
  004b4	ff d6		 call	 esi
; File C:\Program Files (x86)\Microsoft Visual Studio\2019\Community\VC\Tools\MSVC\14.29.30133\atlmfc\include\atlsimpstr.h

; 519  : 		return( GetData()->nDataLength );

  004b6	8b 85 5c fe ff
	ff		 mov	 eax, DWORD PTR _strData$3[ebp]
  004bc	8b 48 f4	 mov	 ecx, DWORD PTR [eax-12]
; File D:\git\src\IBK\IBK_DRFN\ProjSrc\SrcDrfn\DrCommon\PartnerMng\DataConverter.cpp

; 403  : 		memcpy(outRec.lprice,	(LPCSTR)(LPCTSTR)strData,	min(sizeof(outRec.lprice),	 strData.GetLength()));

  004bf	3b cf		 cmp	 ecx, edi
  004c1	0f 47 cf	 cmova	 ecx, edi
  004c4	51		 push	 ecx
  004c5	50		 push	 eax
  004c6	8d 45 e6	 lea	 eax, DWORD PTR _outRec$[ebp+90]
  004c9	50		 push	 eax
  004ca	e8 00 00 00 00	 call	 _memcpy
  004cf	83 c4 1c	 add	 esp, 28			; 0000001cH

; 404  : 	}

  004d2	c6 45 fc 00	 mov	 BYTE PTR __$EHRec$[ebp+8], 0
  004d6	8d 8d 5c fe ff
	ff		 lea	 ecx, DWORD PTR _strData$3[ebp]
  004dc	ff 15 00 00 00
	00		 call	 DWORD PTR __imp_??1?$CStringT@DV?$StrTraitMFC_DLL@DV?$ChTraitsCRT@D@ATL@@@@@ATL@@QAE@XZ
  004e2	e9 05 01 00 00	 jmp	 $LN18@GetConv2St
$LN17@GetConv2St:

; 405  : 	else
; 406  : 	{
; 407  : 		memcpy(outRec.preopen,	input.m_sPreOpen,	min(sizeof(outRec.preopen),	 input.m_sPreOpen.GetLength()));

  004e7	8b 8d a8 fe ff
	ff		 mov	 ecx, DWORD PTR _input$[ebp+72]
  004ed	bf 0a 00 00 00	 mov	 edi, 10			; 0000000aH
  004f2	8b 41 f4	 mov	 eax, DWORD PTR [ecx-12]
  004f5	3b c7		 cmp	 eax, edi
  004f7	0f 47 c7	 cmova	 eax, edi
  004fa	50		 push	 eax
  004fb	51		 push	 ecx
  004fc	8d 45 8c	 lea	 eax, DWORD PTR _outRec$[ebp]
  004ff	50		 push	 eax
  00500	e8 00 00 00 00	 call	 _memcpy

; 408  : 		memcpy(outRec.prehigh,	input.m_sPreHigh,	min(sizeof(outRec.prehigh),	 input.m_sPreHigh.GetLength()));

  00505	8b 8d ac fe ff
	ff		 mov	 ecx, DWORD PTR _input$[ebp+76]
  0050b	8b 41 f4	 mov	 eax, DWORD PTR [ecx-12]
  0050e	3b c7		 cmp	 eax, edi
  00510	0f 47 c7	 cmova	 eax, edi
  00513	50		 push	 eax
  00514	51		 push	 ecx
  00515	8d 45 96	 lea	 eax, DWORD PTR _outRec$[ebp+10]
  00518	50		 push	 eax
  00519	e8 00 00 00 00	 call	 _memcpy

; 409  : 		memcpy(outRec.prelow,	input.m_sPreLow,	min(sizeof(outRec.prelow),	 input.m_sPreLow.GetLength()));

  0051e	8b 8d b0 fe ff
	ff		 mov	 ecx, DWORD PTR _input$[ebp+80]
  00524	8b 41 f4	 mov	 eax, DWORD PTR [ecx-12]
  00527	3b c7		 cmp	 eax, edi
  00529	0f 47 c7	 cmova	 eax, edi
  0052c	50		 push	 eax
  0052d	51		 push	 ecx
  0052e	8d 45 a0	 lea	 eax, DWORD PTR _outRec$[ebp+20]
  00531	50		 push	 eax
  00532	e8 00 00 00 00	 call	 _memcpy

; 410  : 		memcpy(outRec.preclose, input.m_sPreprice,	min(sizeof(outRec.preclose), input.m_sPreprice.GetLength()));

  00537	8b 8d 98 fe ff
	ff		 mov	 ecx, DWORD PTR _input$[ebp+56]
  0053d	8b 41 f4	 mov	 eax, DWORD PTR [ecx-12]
  00540	3b c7		 cmp	 eax, edi
  00542	0f 47 c7	 cmova	 eax, edi
  00545	50		 push	 eax
  00546	51		 push	 ecx
  00547	8d 45 aa	 lea	 eax, DWORD PTR _outRec$[ebp+30]
  0054a	50		 push	 eax
  0054b	e8 00 00 00 00	 call	 _memcpy

; 411  : 		memcpy(outRec.open,		input.m_sOpen,		min(sizeof(outRec.open),	 input.m_sOpen.GetLength()));

  00550	8b 8d 8c fe ff
	ff		 mov	 ecx, DWORD PTR _input$[ebp+44]
  00556	8b 41 f4	 mov	 eax, DWORD PTR [ecx-12]
  00559	3b c7		 cmp	 eax, edi
  0055b	0f 47 c7	 cmova	 eax, edi
  0055e	50		 push	 eax
  0055f	51		 push	 ecx
  00560	8d 45 b4	 lea	 eax, DWORD PTR _outRec$[ebp+40]
  00563	50		 push	 eax
  00564	e8 00 00 00 00	 call	 _memcpy

; 412  : 		memcpy(outRec.high,		input.m_sHigh,		min(sizeof(outRec.high),	 input.m_sHigh.GetLength()));

  00569	8b 8d 90 fe ff
	ff		 mov	 ecx, DWORD PTR _input$[ebp+48]
  0056f	8b 41 f4	 mov	 eax, DWORD PTR [ecx-12]
  00572	3b c7		 cmp	 eax, edi
  00574	0f 47 c7	 cmova	 eax, edi
  00577	50		 push	 eax
  00578	51		 push	 ecx
  00579	8d 45 be	 lea	 eax, DWORD PTR _outRec$[ebp+50]
  0057c	50		 push	 eax
  0057d	e8 00 00 00 00	 call	 _memcpy

; 413  : 		memcpy(outRec.low,		input.m_sLow,		min(sizeof(outRec.low),		 input.m_sLow.GetLength()));

  00582	8b 8d 94 fe ff
	ff		 mov	 ecx, DWORD PTR _input$[ebp+52]
  00588	83 c4 48	 add	 esp, 72			; 00000048H
  0058b	8b 41 f4	 mov	 eax, DWORD PTR [ecx-12]
  0058e	3b c7		 cmp	 eax, edi
  00590	0f 47 c7	 cmova	 eax, edi
  00593	50		 push	 eax
  00594	51		 push	 ecx
  00595	8d 45 c8	 lea	 eax, DWORD PTR _outRec$[ebp+60]
  00598	50		 push	 eax
  00599	e8 00 00 00 00	 call	 _memcpy

; 414  : 		memcpy(outRec.close,	input.m_sPrice,		min(sizeof(outRec.close),	 input.m_sPrice.GetLength()));

  0059e	8b 8d 7c fe ff
	ff		 mov	 ecx, DWORD PTR _input$[ebp+28]
  005a4	8b 41 f4	 mov	 eax, DWORD PTR [ecx-12]
  005a7	3b c7		 cmp	 eax, edi
  005a9	0f 47 c7	 cmova	 eax, edi
  005ac	50		 push	 eax
  005ad	51		 push	 ecx
  005ae	8d 45 d2	 lea	 eax, DWORD PTR _outRec$[ebp+70]
  005b1	50		 push	 eax
  005b2	e8 00 00 00 00	 call	 _memcpy

; 415  : 		memcpy(outRec.hprice,	input.m_sUpLmtPrice,min(sizeof(outRec.hprice),	 input.m_sUpLmtPrice.GetLength()));

  005b7	8b 8d 84 fe ff
	ff		 mov	 ecx, DWORD PTR _input$[ebp+36]
  005bd	8b 41 f4	 mov	 eax, DWORD PTR [ecx-12]
  005c0	3b c7		 cmp	 eax, edi
  005c2	0f 47 c7	 cmova	 eax, edi
  005c5	50		 push	 eax
  005c6	51		 push	 ecx
  005c7	8d 45 dc	 lea	 eax, DWORD PTR _outRec$[ebp+80]
  005ca	50		 push	 eax
  005cb	e8 00 00 00 00	 call	 _memcpy

; 416  : 		memcpy(outRec.lprice,	input.m_sDnLmtPrice,min(sizeof(outRec.lprice),	 input.m_sDnLmtPrice.GetLength()));

  005d0	8b 8d 88 fe ff
	ff		 mov	 ecx, DWORD PTR _input$[ebp+40]
  005d6	8b 41 f4	 mov	 eax, DWORD PTR [ecx-12]
  005d9	3b c7		 cmp	 eax, edi
  005db	0f 47 c7	 cmova	 eax, edi
  005de	50		 push	 eax
  005df	51		 push	 ecx
  005e0	8d 45 e6	 lea	 eax, DWORD PTR _outRec$[ebp+90]
  005e3	50		 push	 eax
  005e4	e8 00 00 00 00	 call	 _memcpy
  005e9	83 c4 30	 add	 esp, 48			; 00000030H
$LN18@GetConv2St:

; 417  : 	}
; 418  : 
; 419  : 	int nSize = sizeof(KB_d1017_OutRec1);
; 420  : 	char *pszBuff = new char[nSize+1];

  005ec	6a 65		 push	 101			; 00000065H
  005ee	e8 00 00 00 00	 call	 ??_U@YAPAXI@Z		; operator new[]
  005f3	8b d8		 mov	 ebx, eax

; 421  : 	memcpy(pszBuff, &outRec, sizeof(KB_d1017_OutRec1));

  005f5	8d 75 8c	 lea	 esi, DWORD PTR _outRec$[ebp]
  005f8	b9 19 00 00 00	 mov	 ecx, 25			; 00000019H
  005fd	8b fb		 mov	 edi, ebx
  005ff	83 c4 04	 add	 esp, 4

; 422  : 
; 423  : 	nDataLen = nSize;
; 424  : 
; 425  : 	return pszBuff;

  00602	b8 64 00 00 00	 mov	 eax, 100		; 00000064H
  00607	f3 a5		 rep movsd
  00609	eb 08		 jmp	 SHORT $LN69@GetConv2St
$LN11@GetConv2St:
  0060b	bb 00 00 00 00	 mov	 ebx, OFFSET ??_C@_00CNPNBAHC@@

; 365  : 	case TRKEY_STRREPLAY:
; 366  : 	case TRKEY_STOCK_HOGA:
; 367  : 	case TRKEY_STRFOJIPYO:
; 368  : 	case TRKEY_STRPREFUTOPT:
; 369  : 	default:					bRet = FALSE;		break;
; 370  : 	}
; 371  : 
; 372  : 	if (!bRet)
; 373  : 	{
; 374  : 		nDataLen = -1;

  00610	83 c8 ff	 or	 eax, -1
$LN69@GetConv2St:

; 422  : 
; 423  : 	nDataLen = nSize;
; 424  : 
; 425  : 	return pszBuff;

  00613	8b 8d 50 fe ff
	ff		 mov	 ecx, DWORD PTR tv1126[ebp]
  00619	89 01		 mov	 DWORD PTR [ecx], eax
  0061b	8d 8d 60 fe ff
	ff		 lea	 ecx, DWORD PTR _input$[ebp]
  00621	e8 00 00 00 00	 call	 ??1CChartBozoInput@@QAE@XZ
  00626	8b c3		 mov	 eax, ebx

; 426  : }

  00628	8b 4d f4	 mov	 ecx, DWORD PTR __$EHRec$[ebp]
  0062b	64 89 0d 00 00
	00 00		 mov	 DWORD PTR fs:0, ecx
  00632	59		 pop	 ecx
  00633	5f		 pop	 edi
  00634	5e		 pop	 esi
  00635	5b		 pop	 ebx
  00636	8b 4d f0	 mov	 ecx, DWORD PTR __$ArrayPad$[ebp]
  00639	33 cd		 xor	 ecx, ebp
  0063b	e8 00 00 00 00	 call	 @__security_check_cookie@4
  00640	8b e5		 mov	 esp, ebp
  00642	5d		 pop	 ebp
  00643	c2 08 00	 ret	 8
  00646	66 90		 npad	 2
$LN320@GetConv2St:
  00648	00 00 00 00	 DD	 $LN4@GetConv2St
  0064c	00 00 00 00	 DD	 $LN5@GetConv2St
  00650	00 00 00 00	 DD	 $LN6@GetConv2St
  00654	00 00 00 00	 DD	 $LN7@GetConv2St
  00658	00 00 00 00	 DD	 $LN8@GetConv2St
  0065c	00 00 00 00	 DD	 $LN11@GetConv2St
  00660	00 00 00 00	 DD	 $LN9@GetConv2St
  00664	00 00 00 00	 DD	 $LN10@GetConv2St
  00668	00 00 00 00	 DD	 $LN11@GetConv2St
$LN319@GetConv2St:
  0066c	00		 DB	 0
  0066d	01		 DB	 1
  0066e	02		 DB	 2
  0066f	03		 DB	 3
  00670	04		 DB	 4
  00671	05		 DB	 5
  00672	08		 DB	 8
  00673	08		 DB	 8
  00674	08		 DB	 8
  00675	08		 DB	 8
  00676	08		 DB	 8
  00677	08		 DB	 8
  00678	08		 DB	 8
  00679	08		 DB	 8
  0067a	08		 DB	 8
  0067b	08		 DB	 8
  0067c	08		 DB	 8
  0067d	08		 DB	 8
  0067e	08		 DB	 8
  0067f	08		 DB	 8
  00680	05		 DB	 5
  00681	08		 DB	 8
  00682	08		 DB	 8
  00683	08		 DB	 8
  00684	08		 DB	 8
  00685	05		 DB	 5
  00686	05		 DB	 5
  00687	06		 DB	 6
  00688	08		 DB	 8
  00689	08		 DB	 8
  0068a	08		 DB	 8
  0068b	08		 DB	 8
  0068c	07		 DB	 7
_TEXT	ENDS
;	COMDAT text$x
text$x	SEGMENT
__unwindfunclet$?GetConv2StructGuideLine@CDataConverter@@QAEPADHAAH@Z$0:
  00000	8d 8d 60 fe ff
	ff		 lea	 ecx, DWORD PTR _input$[ebp]
  00006	e9 00 00 00 00	 jmp	 ??1CChartBozoInput@@QAE@XZ
__unwindfunclet$?GetConv2StructGuideLine@CDataConverter@@QAEPADHAAH@Z$1:
  0000b	8d 8d 28 ff ff
	ff		 lea	 ecx, DWORD PTR $T10[ebp]
  00011	e9 00 00 00 00	 jmp	 ??1CChartBozoInput@@QAE@XZ
__unwindfunclet$?GetConv2StructGuideLine@CDataConverter@@QAEPADHAAH@Z$2:
  00016	8d 8d 28 ff ff
	ff		 lea	 ecx, DWORD PTR $T9[ebp]
  0001c	e9 00 00 00 00	 jmp	 ??1CChartBozoInput@@QAE@XZ
__unwindfunclet$?GetConv2StructGuideLine@CDataConverter@@QAEPADHAAH@Z$3:
  00021	8d 8d 28 ff ff
	ff		 lea	 ecx, DWORD PTR $T8[ebp]
  00027	e9 00 00 00 00	 jmp	 ??1CChartBozoInput@@QAE@XZ
__unwindfunclet$?GetConv2StructGuideLine@CDataConverter@@QAEPADHAAH@Z$4:
  0002c	8d 8d 28 ff ff
	ff		 lea	 ecx, DWORD PTR $T7[ebp]
  00032	e9 00 00 00 00	 jmp	 ??1CChartBozoInput@@QAE@XZ
__unwindfunclet$?GetConv2StructGuideLine@CDataConverter@@QAEPADHAAH@Z$5:
  00037	8d 8d 28 ff ff
	ff		 lea	 ecx, DWORD PTR $T6[ebp]
  0003d	e9 00 00 00 00	 jmp	 ??1CChartBozoInput@@QAE@XZ
__unwindfunclet$?GetConv2StructGuideLine@CDataConverter@@QAEPADHAAH@Z$6:
  00042	8d 8d 28 ff ff
	ff		 lea	 ecx, DWORD PTR $T5[ebp]
  00048	e9 00 00 00 00	 jmp	 ??1CChartBozoInput@@QAE@XZ
__unwindfunclet$?GetConv2StructGuideLine@CDataConverter@@QAEPADHAAH@Z$7:
  0004d	8d 8d 28 ff ff
	ff		 lea	 ecx, DWORD PTR $T4[ebp]
  00053	e9 00 00 00 00	 jmp	 ??1CChartBozoInput@@QAE@XZ
__unwindfunclet$?GetConv2StructGuideLine@CDataConverter@@QAEPADHAAH@Z$8:
  00058	8d 8d 5c fe ff
	ff		 lea	 ecx, DWORD PTR _strData$3[ebp]
  0005e	ff 25 00 00 00
	00		 jmp	 DWORD PTR __imp_??1?$CStringT@DV?$StrTraitMFC_DLL@DV?$ChTraitsCRT@D@ATL@@@@@ATL@@QAE@XZ
  00064	cc		 int	 3
  00065	cc		 int	 3
  00066	cc		 int	 3
  00067	cc		 int	 3
  00068	cc		 int	 3
__ehhandler$?GetConv2StructGuideLine@CDataConverter@@QAEPADHAAH@Z:
  00069	90		 npad	 1
  0006a	90		 npad	 1
  0006b	8b 54 24 08	 mov	 edx, DWORD PTR [esp+8]
  0006f	8d 42 0c	 lea	 eax, DWORD PTR [edx+12]
  00072	8b 8a 4c fe ff
	ff		 mov	 ecx, DWORD PTR [edx-436]
  00078	33 c8		 xor	 ecx, eax
  0007a	e8 00 00 00 00	 call	 @__security_check_cookie@4
  0007f	8b 4a fc	 mov	 ecx, DWORD PTR [edx-4]
  00082	33 c8		 xor	 ecx, eax
  00084	e8 00 00 00 00	 call	 @__security_check_cookie@4
  00089	b8 00 00 00 00	 mov	 eax, OFFSET __ehfuncinfo$?GetConv2StructGuideLine@CDataConverter@@QAEPADHAAH@Z
  0008e	e9 00 00 00 00	 jmp	 ___CxxFrameHandler3
text$x	ENDS
?GetConv2StructGuideLine@CDataConverter@@QAEPADHAAH@Z ENDP ; CDataConverter::GetConv2StructGuideLine
; Function compile flags: /Ogtp
; File D:\git\src\IBK\IBK_DRFN\ProjSrc\SrcDrfn\DrCommon\PartnerMng\DataConverter.cpp
; File D:\git\src\IBK\IBK_DRFN\ProjSrc\SrcDrfn\DrCommon\PartnerMng\ChartItemStock.h
; File D:\git\src\IBK\IBK_DRFN\ProjSrc\SrcDrfn\DrCommon\PartnerMng\DataConverter.cpp
; File D:\git\src\IBK\IBK_DRFN\ProjSrc\SrcDrfn\DrCommon\PartnerMng\ChartItemUpjong.h
; File D:\git\src\IBK\IBK_DRFN\ProjSrc\SrcDrfn\DrCommon\PartnerMng\DataConverter.cpp
; File D:\git\src\IBK\IBK_DRFN\ProjSrc\SrcDrfn\DrCommon\PartnerMng\ChartItemFO.h
; File D:\git\src\IBK\IBK_DRFN\ProjSrc\SrcDrfn\DrCommon\PartnerMng\DataConverter.cpp
; File D:\git\src\IBK\IBK_DRFN\ProjSrc\SrcDrfn\DrCommon\PartnerMng\ChartItemSFO.h
; File D:\git\src\IBK\IBK_DRFN\ProjSrc\SrcDrfn\DrCommon\PartnerMng\DataConverter.cpp
; File D:\git\src\IBK\IBK_DRFN\ProjSrc\SrcDrfn\DrCommon\PartnerMng\ChartItemForeign.h
; File D:\git\src\IBK\IBK_DRFN\ProjSrc\SrcDrfn\DrCommon\PartnerMng\DataConverter.cpp
; File D:\git\src\IBK\IBK_DRFN\ProjSrc\SrcDrfn\DrCommon\PartnerMng\ChartItemFOJipyo.h
; File D:\git\src\IBK\IBK_DRFN\ProjSrc\SrcDrfn\DrCommon\PartnerMng\DataConverter.cpp
; File D:\git\src\IBK\IBK_DRFN\ProjSrc\SrcDrfn\DrCommon\PartnerMng\ChartItemPreFO.h
; File D:\git\src\IBK\IBK_DRFN\ProjSrc\SrcDrfn\DrCommon\PartnerMng\DataConverter.cpp
; File D:\git\src\IBK\IBK_DRFN\ProjSrc\SrcDrfn\DrCommon\PartnerMng\ChartItemFOForeign.h
; File D:\git\src\IBK\IBK_DRFN\ProjSrc\SrcDrfn\DrCommon\PartnerMng\DataConverter.cpp
; File D:\git\src\IBK\IBK_DRFN\ProjSrc\SrcDrfn\DrCommon\PartnerMng\ChartItemFOForeignHoga.h
; File D:\git\src\IBK\IBK_DRFN\ProjSrc\SrcDrfn\DrCommon\PartnerMng\DataConverter.cpp
; File D:\git\src\IBK\IBK_DRFN\ProjSrc\SrcDrfn\DrCommon\PartnerMng\ChartItemFX.h
; File D:\git\src\IBK\IBK_DRFN\ProjSrc\SrcDrfn\DrCommon\PartnerMng\DataConverter.cpp
;	COMDAT ?GetBozoData@CDataConverter@@QAE?AVCChartBozoInput@@H@Z
_TEXT	SEGMENT
___$ReturnUdt$GSCopy$ = -220				; size = 4
_input$ = -216						; size = 200
__$ArrayPad$ = -16					; size = 4
__$EHRec$ = -12						; size = 12
___$ReturnUdt$ = 8					; size = 4
_nKey$ = 12						; size = 4
?GetBozoData@CDataConverter@@QAE?AVCChartBozoInput@@H@Z PROC ; CDataConverter::GetBozoData, COMDAT
; _this$ = ecx

; 327  : {

  00000	55		 push	 ebp
  00001	8b ec		 mov	 ebp, esp
  00003	6a ff		 push	 -1
  00005	68 00 00 00 00	 push	 __ehhandler$?GetBozoData@CDataConverter@@QAE?AVCChartBozoInput@@H@Z
  0000a	64 a1 00 00 00
	00		 mov	 eax, DWORD PTR fs:0
  00010	50		 push	 eax
  00011	81 ec d0 00 00
	00		 sub	 esp, 208		; 000000d0H
  00017	a1 00 00 00 00	 mov	 eax, DWORD PTR ___security_cookie
  0001c	33 c5		 xor	 eax, ebp
  0001e	89 45 f0	 mov	 DWORD PTR __$ArrayPad$[ebp], eax
  00021	56		 push	 esi
  00022	57		 push	 edi
  00023	50		 push	 eax
  00024	8d 45 f4	 lea	 eax, DWORD PTR __$EHRec$[ebp]
  00027	64 a3 00 00 00
	00		 mov	 DWORD PTR fs:0, eax
  0002d	8b f9		 mov	 edi, ecx
  0002f	8b 75 08	 mov	 esi, DWORD PTR ___$ReturnUdt$[ebp]

; 328  : 	CChartBozoInput input;

  00032	8d 8d 28 ff ff
	ff		 lea	 ecx, DWORD PTR _input$[ebp]
  00038	89 b5 24 ff ff
	ff		 mov	 DWORD PTR ___$ReturnUdt$GSCopy$[ebp], esi
  0003e	e8 00 00 00 00	 call	 ??0CChartBozoInput@@QAE@XZ ; CChartBozoInput::CChartBozoInput

; 329  : 	switch (nKey)

  00043	8b 45 0c	 mov	 eax, DWORD PTR _nKey$[ebp]
  00046	83 c0 e2	 add	 eax, -30		; ffffffe2H
  00049	c7 45 fc 00 00
	00 00		 mov	 DWORD PTR __$EHRec$[ebp+8], 0
  00050	83 f8 20	 cmp	 eax, 32			; 00000020H
  00053	77 5c		 ja	 SHORT $LN17@GetBozoDat
  00055	0f b6 88 00 00
	00 00		 movzx	 ecx, BYTE PTR $LN62@GetBozoDat[eax]
  0005c	ff 24 8d 00 00
	00 00		 jmp	 DWORD PTR $LN63@GetBozoDat[ecx*4]
$LN4@GetBozoDat:
; File D:\git\src\IBK\IBK_DRFN\ProjSrc\SrcDrfn\DrCommon\PartnerMng\ChartItemStock.h

; 30   : 	CChartBozoInput	GetBozoInputData()	{ return m_bojoInput;	};

  00063	8d 8f c4 03 00
	00		 lea	 ecx, DWORD PTR [edi+964]
  00069	51		 push	 ecx
; File D:\git\src\IBK\IBK_DRFN\ProjSrc\SrcDrfn\DrCommon\PartnerMng\DataConverter.cpp

; 331  : 	case TRKEY_STRJONGMOK:		return m_Stock.GetBozoInputData();

  0006a	eb 4c		 jmp	 SHORT $LN65@GetBozoDat
$LN5@GetBozoDat:
; File D:\git\src\IBK\IBK_DRFN\ProjSrc\SrcDrfn\DrCommon\PartnerMng\ChartItemUpjong.h

; 31   : 	CChartBozoInput	GetBozoInputData()	{ return m_bojoInput;	};

  0006c	8d 87 d8 04 00
	00		 lea	 eax, DWORD PTR [edi+1240]
; File D:\git\src\IBK\IBK_DRFN\ProjSrc\SrcDrfn\DrCommon\PartnerMng\DataConverter.cpp

; 332  : 	case TRKEY_STRUPJONG:		return m_Upjong.GetBozoInputData();

  00072	eb 43		 jmp	 SHORT $LN66@GetBozoDat
$LN6@GetBozoDat:
; File D:\git\src\IBK\IBK_DRFN\ProjSrc\SrcDrfn\DrCommon\PartnerMng\ChartItemFO.h

; 38   : 	CChartBozoInput	GetBozoInputData()	{ return m_bojoInput;	};

  00074	8d 47 58	 lea	 eax, DWORD PTR [edi+88]
; File D:\git\src\IBK\IBK_DRFN\ProjSrc\SrcDrfn\DrCommon\PartnerMng\DataConverter.cpp

; 333  : 	case TRKEY_STRFUTOPT:		return m_FutOpt.GetBozoInputData();

  00077	eb 3e		 jmp	 SHORT $LN66@GetBozoDat
$LN7@GetBozoDat:
; File D:\git\src\IBK\IBK_DRFN\ProjSrc\SrcDrfn\DrCommon\PartnerMng\ChartItemSFO.h

; 31   : 	CChartBozoInput	GetBozoInputData()	{ return m_bojoInput;	};

  00079	8d 87 84 02 00
	00		 lea	 eax, DWORD PTR [edi+644]
; File D:\git\src\IBK\IBK_DRFN\ProjSrc\SrcDrfn\DrCommon\PartnerMng\DataConverter.cpp

; 334  : 	case TRKEY_STRSTOCKFUTOPT:	return m_StockFO.GetBozoInputData();

  0007f	eb 36		 jmp	 SHORT $LN66@GetBozoDat
$LN8@GetBozoDat:
; File D:\git\src\IBK\IBK_DRFN\ProjSrc\SrcDrfn\DrCommon\PartnerMng\ChartItemForeign.h

; 31   : 	CChartBozoInput	GetBozoInputData()	{ return m_bojoInput;	};

  00081	8d 87 68 01 00
	00		 lea	 eax, DWORD PTR [edi+360]
; File D:\git\src\IBK\IBK_DRFN\ProjSrc\SrcDrfn\DrCommon\PartnerMng\DataConverter.cpp

; 335  : 	case TRKEY_STRFOREIGN:		return m_Foreign.GetBozoInputData();

  00087	eb 2e		 jmp	 SHORT $LN66@GetBozoDat
$LN9@GetBozoDat:
; File D:\git\src\IBK\IBK_DRFN\ProjSrc\SrcDrfn\DrCommon\PartnerMng\ChartItemFOJipyo.h

; 32   : 	CChartBozoInput	GetBozoInputData()	{ return m_bojoInput;	};

  00089	8d 87 14 07 00
	00		 lea	 eax, DWORD PTR [edi+1812]
; File D:\git\src\IBK\IBK_DRFN\ProjSrc\SrcDrfn\DrCommon\PartnerMng\DataConverter.cpp

; 336  : 	case TRKEY_STRFOJIPYO:		return m_FoJipyo.GetBozoInputData();

  0008f	eb 26		 jmp	 SHORT $LN66@GetBozoDat
$LN10@GetBozoDat:
; File D:\git\src\IBK\IBK_DRFN\ProjSrc\SrcDrfn\DrCommon\PartnerMng\ChartItemPreFO.h

; 31   : 	CChartBozoInput	GetBozoInputData()	{ return m_bojoInput;	};

  00091	8d 87 30 08 00
	00		 lea	 eax, DWORD PTR [edi+2096]
; File D:\git\src\IBK\IBK_DRFN\ProjSrc\SrcDrfn\DrCommon\PartnerMng\DataConverter.cpp

; 337  : 	case TRKEY_STRPREFUTOPT:	return m_PreFutOpt.GetBozoInputData();

  00097	eb 1e		 jmp	 SHORT $LN66@GetBozoDat
$LN14@GetBozoDat:
; File D:\git\src\IBK\IBK_DRFN\ProjSrc\SrcDrfn\DrCommon\PartnerMng\ChartItemFOForeign.h

; 32   : 	CChartBozoInput	GetBozoInputData()	{ return m_bojoInput;	};

  00099	8d 87 d4 09 00
	00		 lea	 eax, DWORD PTR [edi+2516]
; File D:\git\src\IBK\IBK_DRFN\ProjSrc\SrcDrfn\DrCommon\PartnerMng\DataConverter.cpp

; 341  : 	case TRKEY_STRFOFOREIGN:		return m_FOForeign.GetBozoInputData();

  0009f	eb 16		 jmp	 SHORT $LN66@GetBozoDat
$LN15@GetBozoDat:
; File D:\git\src\IBK\IBK_DRFN\ProjSrc\SrcDrfn\DrCommon\PartnerMng\ChartItemFOForeignHoga.h

; 32   : 	CChartBozoInput	GetBozoInputData()	{ return m_bojoInput;	};

  000a1	8d 87 b4 0a 00
	00		 lea	 eax, DWORD PTR [edi+2740]
; File D:\git\src\IBK\IBK_DRFN\ProjSrc\SrcDrfn\DrCommon\PartnerMng\DataConverter.cpp

; 342  : 	case TRKEY_STRFOFOREIGN_HOGA:	return m_FOForeignHoga.GetBozoInputData();

  000a7	eb 0e		 jmp	 SHORT $LN66@GetBozoDat
$LN16@GetBozoDat:
; File D:\git\src\IBK\IBK_DRFN\ProjSrc\SrcDrfn\DrCommon\PartnerMng\ChartItemFX.h

; 31   : 	CChartBozoInput	GetBozoInputData()	{ return m_bojoInput;	};

  000a9	8d 87 2c 0d 00
	00		 lea	 eax, DWORD PTR [edi+3372]
; File D:\git\src\IBK\IBK_DRFN\ProjSrc\SrcDrfn\DrCommon\PartnerMng\DataConverter.cpp

; 343  : 	case TRKEY_STRFX:				return m_FX.GetBozoInputData();			//20100315_JS.Kim 

  000af	eb 06		 jmp	 SHORT $LN66@GetBozoDat
$LN17@GetBozoDat:

; 344  : 	}
; 345  : 
; 346  : 	if (nKey >= TRKEY_STRMARKET_0 && nKey <= TRKEY_STRMARKET_13)
; 347  : 		return input;
; 348  : 
; 349  : 	return input;

  000b1	8d 85 28 ff ff
	ff		 lea	 eax, DWORD PTR _input$[ebp]
$LN66@GetBozoDat:

; 350  : }

  000b7	50		 push	 eax
$LN65@GetBozoDat:
  000b8	8b ce		 mov	 ecx, esi
  000ba	e8 00 00 00 00	 call	 ??0CChartBozoInput@@QAE@ABV0@@Z ; CChartBozoInput::CChartBozoInput
  000bf	8d 8d 28 ff ff
	ff		 lea	 ecx, DWORD PTR _input$[ebp]
  000c5	e8 00 00 00 00	 call	 ??1CChartBozoInput@@QAE@XZ
  000ca	8b c6		 mov	 eax, esi
  000cc	8b 4d f4	 mov	 ecx, DWORD PTR __$EHRec$[ebp]
  000cf	64 89 0d 00 00
	00 00		 mov	 DWORD PTR fs:0, ecx
  000d6	59		 pop	 ecx
  000d7	5f		 pop	 edi
  000d8	5e		 pop	 esi
  000d9	8b 4d f0	 mov	 ecx, DWORD PTR __$ArrayPad$[ebp]
  000dc	33 cd		 xor	 ecx, ebp
  000de	e8 00 00 00 00	 call	 @__security_check_cookie@4
  000e3	8b e5		 mov	 esp, ebp
  000e5	5d		 pop	 ebp
  000e6	c2 08 00	 ret	 8
  000e9	0f 1f 00	 npad	 3
$LN63@GetBozoDat:
  000ec	00 00 00 00	 DD	 $LN4@GetBozoDat
  000f0	00 00 00 00	 DD	 $LN5@GetBozoDat
  000f4	00 00 00 00	 DD	 $LN6@GetBozoDat
  000f8	00 00 00 00	 DD	 $LN7@GetBozoDat
  000fc	00 00 00 00	 DD	 $LN8@GetBozoDat
  00100	00 00 00 00	 DD	 $LN17@GetBozoDat
  00104	00 00 00 00	 DD	 $LN9@GetBozoDat
  00108	00 00 00 00	 DD	 $LN10@GetBozoDat
  0010c	00 00 00 00	 DD	 $LN14@GetBozoDat
  00110	00 00 00 00	 DD	 $LN15@GetBozoDat
  00114	00 00 00 00	 DD	 $LN16@GetBozoDat
  00118	00 00 00 00	 DD	 $LN17@GetBozoDat
$LN62@GetBozoDat:
  0011c	00		 DB	 0
  0011d	01		 DB	 1
  0011e	02		 DB	 2
  0011f	03		 DB	 3
  00120	04		 DB	 4
  00121	05		 DB	 5
  00122	0b		 DB	 11			; 0000000bH
  00123	0b		 DB	 11			; 0000000bH
  00124	0b		 DB	 11			; 0000000bH
  00125	0b		 DB	 11			; 0000000bH
  00126	0b		 DB	 11			; 0000000bH
  00127	0b		 DB	 11			; 0000000bH
  00128	0b		 DB	 11			; 0000000bH
  00129	0b		 DB	 11			; 0000000bH
  0012a	0b		 DB	 11			; 0000000bH
  0012b	0b		 DB	 11			; 0000000bH
  0012c	0b		 DB	 11			; 0000000bH
  0012d	0b		 DB	 11			; 0000000bH
  0012e	0b		 DB	 11			; 0000000bH
  0012f	0b		 DB	 11			; 0000000bH
  00130	05		 DB	 5
  00131	0b		 DB	 11			; 0000000bH
  00132	0b		 DB	 11			; 0000000bH
  00133	0b		 DB	 11			; 0000000bH
  00134	05		 DB	 5
  00135	06		 DB	 6
  00136	07		 DB	 7
  00137	08		 DB	 8
  00138	09		 DB	 9
  00139	0b		 DB	 11			; 0000000bH
  0013a	0b		 DB	 11			; 0000000bH
  0013b	0b		 DB	 11			; 0000000bH
  0013c	0a		 DB	 10			; 0000000aH
_TEXT	ENDS
;	COMDAT text$x
text$x	SEGMENT
__unwindfunclet$?GetBozoData@CDataConverter@@QAE?AVCChartBozoInput@@H@Z$0:
  00000	8d 8d 28 ff ff
	ff		 lea	 ecx, DWORD PTR _input$[ebp]
  00006	e9 00 00 00 00	 jmp	 ??1CChartBozoInput@@QAE@XZ
  0000b	cc		 int	 3
  0000c	cc		 int	 3
  0000d	cc		 int	 3
  0000e	cc		 int	 3
  0000f	cc		 int	 3
__ehhandler$?GetBozoData@CDataConverter@@QAE?AVCChartBozoInput@@H@Z:
  00010	90		 npad	 1
  00011	90		 npad	 1
  00012	8b 54 24 08	 mov	 edx, DWORD PTR [esp+8]
  00016	8d 42 0c	 lea	 eax, DWORD PTR [edx+12]
  00019	8b 8a 24 ff ff
	ff		 mov	 ecx, DWORD PTR [edx-220]
  0001f	33 c8		 xor	 ecx, eax
  00021	e8 00 00 00 00	 call	 @__security_check_cookie@4
  00026	8b 4a fc	 mov	 ecx, DWORD PTR [edx-4]
  00029	33 c8		 xor	 ecx, eax
  0002b	e8 00 00 00 00	 call	 @__security_check_cookie@4
  00030	b8 00 00 00 00	 mov	 eax, OFFSET __ehfuncinfo$?GetBozoData@CDataConverter@@QAE?AVCChartBozoInput@@H@Z
  00035	e9 00 00 00 00	 jmp	 ___CxxFrameHandler3
text$x	ENDS
?GetBozoData@CDataConverter@@QAE?AVCChartBozoInput@@H@Z ENDP ; CDataConverter::GetBozoData
; Function compile flags: /Ogtp
; File D:\git\src\IBK\IBK_DRFN\ProjSrc\SrcDrfn\DrCommon\PartnerMng\DataConverter.cpp
; File D:\git\src\IBK\IBK_DRFN\ProjSrc\SrcDrfn\ForSite\FS_Env.h
; File D:\git\src\IBK\IBK_DRFN\ProjSrc\SrcDrfn\DrCommon\PartnerMng\DataConverter.cpp
; File C:\Program Files (x86)\Microsoft Visual Studio\2019\Community\VC\Tools\MSVC\14.29.30133\atlmfc\include\atlsimpstr.h
; File D:\git\src\IBK\IBK_DRFN\ProjSrc\SrcDrfn\DrCommon\PartnerMng\DataConverter.cpp
; File C:\Program Files (x86)\Microsoft Visual Studio\2019\Community\VC\Tools\MSVC\14.29.30133\atlmfc\include\cstringt.h
; File D:\git\src\IBK\IBK_DRFN\ProjSrc\SrcDrfn\DrCommon\PartnerMng\DataConverter.cpp
; File C:\Program Files (x86)\Microsoft Visual Studio\2019\Community\VC\Tools\MSVC\14.29.30133\atlmfc\include\cstringt.h
; File D:\git\src\IBK\IBK_DRFN\ProjSrc\SrcDrfn\DrCommon\PartnerMng\DataConverter.cpp
;	COMDAT ?GetTimeIndexInfo@CDataConverter@@SA?AV?$CStringT@DV?$StrTraitMFC_DLL@DV?$ChTraitsCRT@D@ATL@@@@@ATL@@HH@Z
_TEXT	SEGMENT
_strCityName$ = -576					; size = 4
_strKey$ = -572						; size = 4
_strSummerTime$ = -568					; size = 4
_strSection$ = -564					; size = 4
_strGmt$ = -560						; size = 4
_strFileName$ = -556					; size = 4
_strTitle$ = -552					; size = 4
_strData$ = -548					; size = 4
__strRoot_$2 = -544					; size = 4
_strTemp$ = -540					; size = 4
___$ReturnUdt$GSCopy$ = -536				; size = 4
$T3 = -536						; size = 4
$T4 = -536						; size = 4
$T5 = -536						; size = 4
$T6 = -536						; size = 4
$T7 = -536						; size = 4
$T8 = -536						; size = 4
$T9 = -536						; size = 4
_szBuf$10 = -532					; size = 255
_szItem$ = -276						; size = 260
__$ArrayPad$ = -16					; size = 4
__$EHRec$ = -12						; size = 12
___$ReturnUdt$ = 8					; size = 4
_nIndex$ = 12						; size = 4
_nType$ = 16						; size = 4
?GetTimeIndexInfo@CDataConverter@@SA?AV?$CStringT@DV?$StrTraitMFC_DLL@DV?$ChTraitsCRT@D@ATL@@@@@ATL@@HH@Z PROC ; CDataConverter::GetTimeIndexInfo, COMDAT

; 744  : {

  00000	55		 push	 ebp
  00001	8b ec		 mov	 ebp, esp
  00003	6a ff		 push	 -1
  00005	68 00 00 00 00	 push	 __ehhandler$?GetTimeIndexInfo@CDataConverter@@SA?AV?$CStringT@DV?$StrTraitMFC_DLL@DV?$ChTraitsCRT@D@ATL@@@@@ATL@@HH@Z
  0000a	64 a1 00 00 00
	00		 mov	 eax, DWORD PTR fs:0
  00010	50		 push	 eax
  00011	81 ec 34 02 00
	00		 sub	 esp, 564		; 00000234H
  00017	a1 00 00 00 00	 mov	 eax, DWORD PTR ___security_cookie
  0001c	33 c5		 xor	 eax, ebp
  0001e	89 45 f0	 mov	 DWORD PTR __$ArrayPad$[ebp], eax
  00021	53		 push	 ebx
  00022	56		 push	 esi
  00023	57		 push	 edi
  00024	50		 push	 eax
  00025	8d 45 f4	 lea	 eax, DWORD PTR __$EHRec$[ebp]
  00028	64 a3 00 00 00
	00		 mov	 DWORD PTR fs:0, eax
  0002e	8b 7d 08	 mov	 edi, DWORD PTR ___$ReturnUdt$[ebp]

; 745  : //	IMainInfoManager* pMng = (IMainInfoManager*)AfxGetPctrInterface(UUID_IMainInfoManager);
; 746  : //	if (pMng == NULL)
; 747  : //		return _T("");
; 748  : 
; 749  : 	CString strFileName, strTemp, strKey, strData, strTitle, strGmt, strSummerTime, strCityName;

  00031	8d 8d d4 fd ff
	ff		 lea	 ecx, DWORD PTR _strFileName$[ebp]
  00037	89 bd e8 fd ff
	ff		 mov	 DWORD PTR ___$ReturnUdt$GSCopy$[ebp], edi
  0003d	ff 15 00 00 00
	00		 call	 DWORD PTR __imp_??0?$CStringT@DV?$StrTraitMFC_DLL@DV?$ChTraitsCRT@D@ATL@@@@@ATL@@QAE@XZ
  00043	8d 8d e4 fd ff
	ff		 lea	 ecx, DWORD PTR _strTemp$[ebp]
  00049	c7 45 fc 00 00
	00 00		 mov	 DWORD PTR __$EHRec$[ebp+8], 0
  00050	ff 15 00 00 00
	00		 call	 DWORD PTR __imp_??0?$CStringT@DV?$StrTraitMFC_DLL@DV?$ChTraitsCRT@D@ATL@@@@@ATL@@QAE@XZ
  00056	8d 8d c4 fd ff
	ff		 lea	 ecx, DWORD PTR _strKey$[ebp]
  0005c	ff 15 00 00 00
	00		 call	 DWORD PTR __imp_??0?$CStringT@DV?$StrTraitMFC_DLL@DV?$ChTraitsCRT@D@ATL@@@@@ATL@@QAE@XZ
  00062	8d 8d dc fd ff
	ff		 lea	 ecx, DWORD PTR _strData$[ebp]
  00068	ff 15 00 00 00
	00		 call	 DWORD PTR __imp_??0?$CStringT@DV?$StrTraitMFC_DLL@DV?$ChTraitsCRT@D@ATL@@@@@ATL@@QAE@XZ
  0006e	8d 8d d8 fd ff
	ff		 lea	 ecx, DWORD PTR _strTitle$[ebp]
  00074	ff 15 00 00 00
	00		 call	 DWORD PTR __imp_??0?$CStringT@DV?$StrTraitMFC_DLL@DV?$ChTraitsCRT@D@ATL@@@@@ATL@@QAE@XZ
  0007a	8d 8d d0 fd ff
	ff		 lea	 ecx, DWORD PTR _strGmt$[ebp]
  00080	ff 15 00 00 00
	00		 call	 DWORD PTR __imp_??0?$CStringT@DV?$StrTraitMFC_DLL@DV?$ChTraitsCRT@D@ATL@@@@@ATL@@QAE@XZ
  00086	8d 8d c8 fd ff
	ff		 lea	 ecx, DWORD PTR _strSummerTime$[ebp]
  0008c	ff 15 00 00 00
	00		 call	 DWORD PTR __imp_??0?$CStringT@DV?$StrTraitMFC_DLL@DV?$ChTraitsCRT@D@ATL@@@@@ATL@@QAE@XZ
  00092	8d 8d c0 fd ff
	ff		 lea	 ecx, DWORD PTR _strCityName$[ebp]
  00098	ff 15 00 00 00
	00		 call	 DWORD PTR __imp_??0?$CStringT@DV?$StrTraitMFC_DLL@DV?$ChTraitsCRT@D@ATL@@@@@ATL@@QAE@XZ
; File D:\git\src\IBK\IBK_DRFN\ProjSrc\SrcDrfn\ForSite\FS_Env.h

; 22   : 	CString	_strRoot_;

  0009e	8d 8d e0 fd ff
	ff		 lea	 ecx, DWORD PTR __strRoot_$2[ebp]
  000a4	ff 15 00 00 00
	00		 call	 DWORD PTR __imp_??0?$CStringT@DV?$StrTraitMFC_DLL@DV?$ChTraitsCRT@D@ATL@@@@@ATL@@QAE@XZ

; 15   : 	::GetModuleFileName(NULL, szBuf, 255);

  000aa	68 ff 00 00 00	 push	 255			; 000000ffH
  000af	8d 85 ec fd ff
	ff		 lea	 eax, DWORD PTR _szBuf$10[ebp]

; 22   : 	CString	_strRoot_;

  000b5	c6 45 fc 08	 mov	 BYTE PTR __$EHRec$[ebp+8], 8

; 15   : 	::GetModuleFileName(NULL, szBuf, 255);

  000b9	50		 push	 eax
  000ba	6a 00		 push	 0
  000bc	ff 15 00 00 00
	00		 call	 DWORD PTR __imp__GetModuleFileNameA@12

; 16   : 	rString = szBuf;

  000c2	8d 85 ec fd ff
	ff		 lea	 eax, DWORD PTR _szBuf$10[ebp]
  000c8	50		 push	 eax
  000c9	8d 8d e0 fd ff
	ff		 lea	 ecx, DWORD PTR __strRoot_$2[ebp]
  000cf	ff 15 00 00 00
	00		 call	 DWORD PTR __imp_??4?$CStringT@DV?$StrTraitMFC_DLL@DV?$ChTraitsCRT@D@ATL@@@@@ATL@@QAEAAV01@PBD@Z

; 25   : 	int _loc_ = _strRoot_.ReverseFind('\\');

  000d5	6a 5c		 push	 92			; 0000005cH
  000d7	8d 8d e0 fd ff
	ff		 lea	 ecx, DWORD PTR __strRoot_$2[ebp]
  000dd	ff 15 00 00 00
	00		 call	 DWORD PTR __imp_?ReverseFind@?$CStringT@DV?$StrTraitMFC_DLL@DV?$ChTraitsCRT@D@ATL@@@@@ATL@@QBEHD@Z

; 26   : 	if( _loc_ > 0)

  000e3	85 c0		 test	 eax, eax
  000e5	7e 35		 jle	 SHORT $LN34@GetTimeInd

; 27   : 		_strRoot_ = _strRoot_.Left(_loc_);

  000e7	50		 push	 eax
  000e8	8d 85 e8 fd ff
	ff		 lea	 eax, DWORD PTR $T4[ebp]
  000ee	50		 push	 eax
  000ef	8d 8d e0 fd ff
	ff		 lea	 ecx, DWORD PTR __strRoot_$2[ebp]
  000f5	ff 15 00 00 00
	00		 call	 DWORD PTR __imp_?Left@?$CStringT@DV?$StrTraitMFC_DLL@DV?$ChTraitsCRT@D@ATL@@@@@ATL@@QBE?AV12@H@Z
  000fb	50		 push	 eax
  000fc	8d 8d e0 fd ff
	ff		 lea	 ecx, DWORD PTR __strRoot_$2[ebp]
  00102	c6 45 fc 09	 mov	 BYTE PTR __$EHRec$[ebp+8], 9
  00106	ff 15 00 00 00
	00		 call	 DWORD PTR __imp_??4?$CStringT@DV?$StrTraitMFC_DLL@DV?$ChTraitsCRT@D@ATL@@@@@ATL@@QAEAAV01@ABV01@@Z
  0010c	8d 8d e8 fd ff
	ff		 lea	 ecx, DWORD PTR $T4[ebp]
  00112	c6 45 fc 08	 mov	 BYTE PTR __$EHRec$[ebp+8], 8
  00116	ff 15 00 00 00
	00		 call	 DWORD PTR __imp_??1?$CStringT@DV?$StrTraitMFC_DLL@DV?$ChTraitsCRT@D@ATL@@@@@ATL@@QAE@XZ
$LN34@GetTimeInd:

; 28   : 	_loc_ = _strRoot_.ReverseFind('\\');

  0011c	6a 5c		 push	 92			; 0000005cH
  0011e	8d 8d e0 fd ff
	ff		 lea	 ecx, DWORD PTR __strRoot_$2[ebp]
  00124	ff 15 00 00 00
	00		 call	 DWORD PTR __imp_?ReverseFind@?$CStringT@DV?$StrTraitMFC_DLL@DV?$ChTraitsCRT@D@ATL@@@@@ATL@@QBEHD@Z

; 29   : 	if( _loc_ > 0)

  0012a	85 c0		 test	 eax, eax
  0012c	7e 35		 jle	 SHORT $LN35@GetTimeInd

; 30   : 		_strRoot_ = _strRoot_.Left(_loc_);

  0012e	50		 push	 eax
  0012f	8d 85 e8 fd ff
	ff		 lea	 eax, DWORD PTR $T3[ebp]
  00135	50		 push	 eax
  00136	8d 8d e0 fd ff
	ff		 lea	 ecx, DWORD PTR __strRoot_$2[ebp]
  0013c	ff 15 00 00 00
	00		 call	 DWORD PTR __imp_?Left@?$CStringT@DV?$StrTraitMFC_DLL@DV?$ChTraitsCRT@D@ATL@@@@@ATL@@QBE?AV12@H@Z
  00142	50		 push	 eax
  00143	8d 8d e0 fd ff
	ff		 lea	 ecx, DWORD PTR __strRoot_$2[ebp]
  00149	c6 45 fc 0a	 mov	 BYTE PTR __$EHRec$[ebp+8], 10 ; 0000000aH
  0014d	ff 15 00 00 00
	00		 call	 DWORD PTR __imp_??4?$CStringT@DV?$StrTraitMFC_DLL@DV?$ChTraitsCRT@D@ATL@@@@@ATL@@QAEAAV01@ABV01@@Z
  00153	8d 8d e8 fd ff
	ff		 lea	 ecx, DWORD PTR $T3[ebp]
  00159	c6 45 fc 08	 mov	 BYTE PTR __$EHRec$[ebp+8], 8
  0015d	ff 15 00 00 00
	00		 call	 DWORD PTR __imp_??1?$CStringT@DV?$StrTraitMFC_DLL@DV?$ChTraitsCRT@D@ATL@@@@@ATL@@QAE@XZ
$LN35@GetTimeInd:

; 31   : 	rString = _strRoot_;

  00163	8d 85 e0 fd ff
	ff		 lea	 eax, DWORD PTR __strRoot_$2[ebp]
  00169	50		 push	 eax
  0016a	8d 8d d4 fd ff
	ff		 lea	 ecx, DWORD PTR _strFileName$[ebp]
  00170	ff 15 00 00 00
	00		 call	 DWORD PTR __imp_??4?$CStringT@DV?$StrTraitMFC_DLL@DV?$ChTraitsCRT@D@ATL@@@@@ATL@@QAEAAV01@ABV01@@Z

; 32   : }

  00176	8d 8d e0 fd ff
	ff		 lea	 ecx, DWORD PTR __strRoot_$2[ebp]
  0017c	c6 45 fc 07	 mov	 BYTE PTR __$EHRec$[ebp+8], 7
  00180	ff 15 00 00 00
	00		 call	 DWORD PTR __imp_??1?$CStringT@DV?$StrTraitMFC_DLL@DV?$ChTraitsCRT@D@ATL@@@@@ATL@@QAE@XZ
; File D:\git\src\IBK\IBK_DRFN\ProjSrc\SrcDrfn\DrCommon\PartnerMng\DataConverter.cpp

; 755  : 	strFileName += "\\Icss\\timesetup.ini";

  00186	68 00 00 00 00	 push	 OFFSET ??_C@_0BE@NHFINKKM@?2Icss?2timesetup?4ini@
  0018b	8d 8d d4 fd ff
	ff		 lea	 ecx, DWORD PTR _strFileName$[ebp]
  00191	ff 15 00 00 00
	00		 call	 DWORD PTR __imp_??Y?$CStringT@DV?$StrTraitMFC_DLL@DV?$ChTraitsCRT@D@ATL@@@@@ATL@@QAEAAV01@PBD@Z

; 756  : //	strFileName = pMng->GetRootDir();
; 757  : //	strFileName += "\\hanaro\\timesetup.ini";
; 758  : 
; 759  : 	CString strSection = "TIME";

  00197	68 00 00 00 00	 push	 OFFSET ??_C@_04OHBONDIN@TIME@
  0019c	8d 8d cc fd ff
	ff		 lea	 ecx, DWORD PTR _strSection$[ebp]
  001a2	ff 15 00 00 00
	00		 call	 DWORD PTR __imp_??0?$CStringT@DV?$StrTraitMFC_DLL@DV?$ChTraitsCRT@D@ATL@@@@@ATL@@QAE@PBD@Z

; 760  : 	nCount = GetPrivateProfileInt(strSection, "COUNT", 0, strFileName);

  001a8	ff b5 d4 fd ff
	ff		 push	 DWORD PTR _strFileName$[ebp]
  001ae	c6 45 fc 0b	 mov	 BYTE PTR __$EHRec$[ebp+8], 11 ; 0000000bH
  001b2	6a 00		 push	 0
  001b4	68 00 00 00 00	 push	 OFFSET ??_C@_05EFFCCOAM@COUNT@
  001b9	ff b5 cc fd ff
	ff		 push	 DWORD PTR _strSection$[ebp]
  001bf	ff 15 00 00 00
	00		 call	 DWORD PTR __imp__GetPrivateProfileIntA@16

; 761  : 
; 762  : 	if (nCount < nIndex)

  001c5	8b 5d 0c	 mov	 ebx, DWORD PTR _nIndex$[ebp]
  001c8	3b c3		 cmp	 eax, ebx
  001ca	0f 8c 4a 01 00
	00		 jl	 $LN6@GetTimeInd

; 763  : 		return "";
; 764  : 
; 765  : 	strKey.Format("%d", nIndex);

  001d0	53		 push	 ebx
  001d1	8d 85 c4 fd ff
	ff		 lea	 eax, DWORD PTR _strKey$[ebp]
  001d7	68 00 00 00 00	 push	 OFFSET ??_C@_02DPKJAMEF@?$CFd@
  001dc	50		 push	 eax
  001dd	ff 15 00 00 00
	00		 call	 DWORD PTR __imp_?Format@?$CStringT@DV?$StrTraitMFC_DLL@DV?$ChTraitsCRT@D@ATL@@@@@ATL@@QAAXPBDZZ

; 766  : 	memset(szItem, 0, MAX_PATH);

  001e3	68 04 01 00 00	 push	 260			; 00000104H
  001e8	8d 85 ec fe ff
	ff		 lea	 eax, DWORD PTR _szItem$[ebp]
  001ee	6a 00		 push	 0
  001f0	50		 push	 eax
  001f1	e8 00 00 00 00	 call	 _memset
  001f6	83 c4 18	 add	 esp, 24			; 00000018H

; 767  : 	GetPrivateProfileString(strSection, strKey, "", szItem, MAX_PATH, strFileName);

  001f9	8d 85 ec fe ff
	ff		 lea	 eax, DWORD PTR _szItem$[ebp]
  001ff	ff b5 d4 fd ff
	ff		 push	 DWORD PTR _strFileName$[ebp]
  00205	68 04 01 00 00	 push	 260			; 00000104H
  0020a	50		 push	 eax
  0020b	68 00 00 00 00	 push	 OFFSET ??_C@_00CNPNBAHC@@
  00210	ff b5 c4 fd ff
	ff		 push	 DWORD PTR _strKey$[ebp]
  00216	ff b5 cc fd ff
	ff		 push	 DWORD PTR _strSection$[ebp]
  0021c	ff 15 00 00 00
	00		 call	 DWORD PTR __imp__GetPrivateProfileStringA@24

; 768  : 
; 769  : 	strTemp = szItem;

  00222	8d 85 ec fe ff
	ff		 lea	 eax, DWORD PTR _szItem$[ebp]
  00228	50		 push	 eax
  00229	8d 8d e4 fd ff
	ff		 lea	 ecx, DWORD PTR _strTemp$[ebp]
  0022f	ff 15 00 00 00
	00		 call	 DWORD PTR __imp_??4?$CStringT@DV?$StrTraitMFC_DLL@DV?$ChTraitsCRT@D@ATL@@@@@ATL@@QAEAAV01@PBD@Z

; 770  : 	int nCnt = strTemp.Find(",");

  00235	6a 00		 push	 0
  00237	68 00 00 00 00	 push	 OFFSET ??_C@_01IHBHIGKO@?0@
  0023c	8d 8d e4 fd ff
	ff		 lea	 ecx, DWORD PTR _strTemp$[ebp]
  00242	ff 15 00 00 00
	00		 call	 DWORD PTR __imp_?Find@?$CStringT@DV?$StrTraitMFC_DLL@DV?$ChTraitsCRT@D@ATL@@@@@ATL@@QBEHPBDH@Z
  00248	8b f0		 mov	 esi, eax

; 771  : 	strTitle= strTemp.Left(nCnt);	

  0024a	8d 8d e4 fd ff
	ff		 lea	 ecx, DWORD PTR _strTemp$[ebp]
  00250	56		 push	 esi
  00251	8d 85 e8 fd ff
	ff		 lea	 eax, DWORD PTR $T9[ebp]
  00257	50		 push	 eax
  00258	ff 15 00 00 00
	00		 call	 DWORD PTR __imp_?Left@?$CStringT@DV?$StrTraitMFC_DLL@DV?$ChTraitsCRT@D@ATL@@@@@ATL@@QBE?AV12@H@Z
  0025e	50		 push	 eax
  0025f	8d 8d d8 fd ff
	ff		 lea	 ecx, DWORD PTR _strTitle$[ebp]
  00265	c6 45 fc 0c	 mov	 BYTE PTR __$EHRec$[ebp+8], 12 ; 0000000cH
  00269	ff 15 00 00 00
	00		 call	 DWORD PTR __imp_??4?$CStringT@DV?$StrTraitMFC_DLL@DV?$ChTraitsCRT@D@ATL@@@@@ATL@@QAEAAV01@ABV01@@Z
  0026f	8d 8d e8 fd ff
	ff		 lea	 ecx, DWORD PTR $T9[ebp]
  00275	c6 45 fc 0b	 mov	 BYTE PTR __$EHRec$[ebp+8], 11 ; 0000000bH
  00279	ff 15 00 00 00
	00		 call	 DWORD PTR __imp_??1?$CStringT@DV?$StrTraitMFC_DLL@DV?$ChTraitsCRT@D@ATL@@@@@ATL@@QAE@XZ

; 772  : 	strTemp = strTemp.Mid(nCnt+1);	

  0027f	8d 46 01	 lea	 eax, DWORD PTR [esi+1]
  00282	50		 push	 eax
  00283	8d 85 e8 fd ff
	ff		 lea	 eax, DWORD PTR $T8[ebp]
  00289	50		 push	 eax
  0028a	8d 8d e4 fd ff
	ff		 lea	 ecx, DWORD PTR _strTemp$[ebp]
  00290	ff 15 00 00 00
	00		 call	 DWORD PTR __imp_?Mid@?$CStringT@DV?$StrTraitMFC_DLL@DV?$ChTraitsCRT@D@ATL@@@@@ATL@@QBE?AV12@H@Z
  00296	50		 push	 eax
  00297	8d 8d e4 fd ff
	ff		 lea	 ecx, DWORD PTR _strTemp$[ebp]
  0029d	c6 45 fc 0d	 mov	 BYTE PTR __$EHRec$[ebp+8], 13 ; 0000000dH
  002a1	ff 15 00 00 00
	00		 call	 DWORD PTR __imp_??4?$CStringT@DV?$StrTraitMFC_DLL@DV?$ChTraitsCRT@D@ATL@@@@@ATL@@QAEAAV01@ABV01@@Z
  002a7	8d 8d e8 fd ff
	ff		 lea	 ecx, DWORD PTR $T8[ebp]
  002ad	c6 45 fc 0b	 mov	 BYTE PTR __$EHRec$[ebp+8], 11 ; 0000000bH
  002b1	ff 15 00 00 00
	00		 call	 DWORD PTR __imp_??1?$CStringT@DV?$StrTraitMFC_DLL@DV?$ChTraitsCRT@D@ATL@@@@@ATL@@QAE@XZ

; 773  : 	nCnt	= strTemp.Find(",");

  002b7	6a 00		 push	 0
  002b9	68 00 00 00 00	 push	 OFFSET ??_C@_01IHBHIGKO@?0@
  002be	8d 8d e4 fd ff
	ff		 lea	 ecx, DWORD PTR _strTemp$[ebp]
  002c4	ff 15 00 00 00
	00		 call	 DWORD PTR __imp_?Find@?$CStringT@DV?$StrTraitMFC_DLL@DV?$ChTraitsCRT@D@ATL@@@@@ATL@@QBEHPBDH@Z
  002ca	8b f0		 mov	 esi, eax

; 774  : 	strGmt	= strTemp.Left(nCnt);

  002cc	8d 8d e4 fd ff
	ff		 lea	 ecx, DWORD PTR _strTemp$[ebp]
  002d2	56		 push	 esi
  002d3	8d 85 e8 fd ff
	ff		 lea	 eax, DWORD PTR $T7[ebp]
  002d9	50		 push	 eax
  002da	ff 15 00 00 00
	00		 call	 DWORD PTR __imp_?Left@?$CStringT@DV?$StrTraitMFC_DLL@DV?$ChTraitsCRT@D@ATL@@@@@ATL@@QBE?AV12@H@Z
  002e0	50		 push	 eax
  002e1	8d 8d d0 fd ff
	ff		 lea	 ecx, DWORD PTR _strGmt$[ebp]
  002e7	c6 45 fc 0e	 mov	 BYTE PTR __$EHRec$[ebp+8], 14 ; 0000000eH
  002eb	ff 15 00 00 00
	00		 call	 DWORD PTR __imp_??4?$CStringT@DV?$StrTraitMFC_DLL@DV?$ChTraitsCRT@D@ATL@@@@@ATL@@QAEAAV01@ABV01@@Z
  002f1	8d 8d e8 fd ff
	ff		 lea	 ecx, DWORD PTR $T7[ebp]
  002f7	c6 45 fc 0b	 mov	 BYTE PTR __$EHRec$[ebp+8], 11 ; 0000000bH
  002fb	ff 15 00 00 00
	00		 call	 DWORD PTR __imp_??1?$CStringT@DV?$StrTraitMFC_DLL@DV?$ChTraitsCRT@D@ATL@@@@@ATL@@QAE@XZ
; File C:\Program Files (x86)\Microsoft Visual Studio\2019\Community\VC\Tools\MSVC\14.29.30133\atlmfc\include\atlsimpstr.h

; 519  : 		return( GetData()->nDataLength );

  00301	8b 85 e4 fd ff
	ff		 mov	 eax, DWORD PTR _strTemp$[ebp]
; File D:\git\src\IBK\IBK_DRFN\ProjSrc\SrcDrfn\DrCommon\PartnerMng\DataConverter.cpp

; 776  : 	if (strTemp.GetLength() < nCnt+1)

  00307	46		 inc	 esi
  00308	39 70 f4	 cmp	 DWORD PTR [eax-12], esi
  0030b	0f 8d a0 00 00
	00		 jge	 $LN5@GetTimeInd

; 777  : 	{
; 778  : 		if (nIndex == -1 && (nType != 1 || nType != 2))

  00311	83 fb ff	 cmp	 ebx, -1
  00314	0f 84 23 01 00
	00		 je	 $LN62@GetTimeInd
$LN6@GetTimeInd:

; 779  : 			return "";
; 780  : 
; 781  : 		return "";

  0031a	68 00 00 00 00	 push	 OFFSET ??_C@_00CNPNBAHC@@
$LN64@GetTimeInd:

; 814  : }

  0031f	8b cf		 mov	 ecx, edi
  00321	ff 15 00 00 00
	00		 call	 DWORD PTR __imp_??0?$CStringT@DV?$StrTraitMFC_DLL@DV?$ChTraitsCRT@D@ATL@@@@@ATL@@QAE@PBD@Z
$LN66@GetTimeInd:
  00327	8d 8d cc fd ff
	ff		 lea	 ecx, DWORD PTR _strSection$[ebp]
  0032d	ff 15 00 00 00
	00		 call	 DWORD PTR __imp_??1?$CStringT@DV?$StrTraitMFC_DLL@DV?$ChTraitsCRT@D@ATL@@@@@ATL@@QAE@XZ
  00333	8d 8d c0 fd ff
	ff		 lea	 ecx, DWORD PTR _strCityName$[ebp]
  00339	ff 15 00 00 00
	00		 call	 DWORD PTR __imp_??1?$CStringT@DV?$StrTraitMFC_DLL@DV?$ChTraitsCRT@D@ATL@@@@@ATL@@QAE@XZ
  0033f	8d 8d c8 fd ff
	ff		 lea	 ecx, DWORD PTR _strSummerTime$[ebp]
  00345	ff 15 00 00 00
	00		 call	 DWORD PTR __imp_??1?$CStringT@DV?$StrTraitMFC_DLL@DV?$ChTraitsCRT@D@ATL@@@@@ATL@@QAE@XZ
  0034b	8d 8d d0 fd ff
	ff		 lea	 ecx, DWORD PTR _strGmt$[ebp]
  00351	ff 15 00 00 00
	00		 call	 DWORD PTR __imp_??1?$CStringT@DV?$StrTraitMFC_DLL@DV?$ChTraitsCRT@D@ATL@@@@@ATL@@QAE@XZ
  00357	8d 8d d8 fd ff
	ff		 lea	 ecx, DWORD PTR _strTitle$[ebp]
  0035d	ff 15 00 00 00
	00		 call	 DWORD PTR __imp_??1?$CStringT@DV?$StrTraitMFC_DLL@DV?$ChTraitsCRT@D@ATL@@@@@ATL@@QAE@XZ
  00363	8d 8d dc fd ff
	ff		 lea	 ecx, DWORD PTR _strData$[ebp]
  00369	ff 15 00 00 00
	00		 call	 DWORD PTR __imp_??1?$CStringT@DV?$StrTraitMFC_DLL@DV?$ChTraitsCRT@D@ATL@@@@@ATL@@QAE@XZ
  0036f	8d 8d c4 fd ff
	ff		 lea	 ecx, DWORD PTR _strKey$[ebp]
  00375	ff 15 00 00 00
	00		 call	 DWORD PTR __imp_??1?$CStringT@DV?$StrTraitMFC_DLL@DV?$ChTraitsCRT@D@ATL@@@@@ATL@@QAE@XZ
  0037b	8d 8d e4 fd ff
	ff		 lea	 ecx, DWORD PTR _strTemp$[ebp]
  00381	ff 15 00 00 00
	00		 call	 DWORD PTR __imp_??1?$CStringT@DV?$StrTraitMFC_DLL@DV?$ChTraitsCRT@D@ATL@@@@@ATL@@QAE@XZ
  00387	8d 8d d4 fd ff
	ff		 lea	 ecx, DWORD PTR _strFileName$[ebp]
  0038d	ff 15 00 00 00
	00		 call	 DWORD PTR __imp_??1?$CStringT@DV?$StrTraitMFC_DLL@DV?$ChTraitsCRT@D@ATL@@@@@ATL@@QAE@XZ
  00393	8b c7		 mov	 eax, edi
  00395	8b 4d f4	 mov	 ecx, DWORD PTR __$EHRec$[ebp]
  00398	64 89 0d 00 00
	00 00		 mov	 DWORD PTR fs:0, ecx
  0039f	59		 pop	 ecx
  003a0	5f		 pop	 edi
  003a1	5e		 pop	 esi
  003a2	5b		 pop	 ebx
  003a3	8b 4d f0	 mov	 ecx, DWORD PTR __$ArrayPad$[ebp]
  003a6	33 cd		 xor	 ecx, ebp
  003a8	e8 00 00 00 00	 call	 @__security_check_cookie@4
  003ad	8b e5		 mov	 esp, ebp
  003af	5d		 pop	 ebp
  003b0	c3		 ret	 0
$LN5@GetTimeInd:

; 782  : 	}
; 783  : 	
; 784  : 	strSummerTime = strTemp.Mid(nCnt+1);

  003b1	56		 push	 esi
  003b2	8d 85 e8 fd ff
	ff		 lea	 eax, DWORD PTR $T6[ebp]
  003b8	50		 push	 eax
  003b9	8d 8d e4 fd ff
	ff		 lea	 ecx, DWORD PTR _strTemp$[ebp]
  003bf	ff 15 00 00 00
	00		 call	 DWORD PTR __imp_?Mid@?$CStringT@DV?$StrTraitMFC_DLL@DV?$ChTraitsCRT@D@ATL@@@@@ATL@@QBE?AV12@H@Z
  003c5	50		 push	 eax
  003c6	8d 8d c8 fd ff
	ff		 lea	 ecx, DWORD PTR _strSummerTime$[ebp]
  003cc	c6 45 fc 0f	 mov	 BYTE PTR __$EHRec$[ebp+8], 15 ; 0000000fH
  003d0	ff 15 00 00 00
	00		 call	 DWORD PTR __imp_??4?$CStringT@DV?$StrTraitMFC_DLL@DV?$ChTraitsCRT@D@ATL@@@@@ATL@@QAEAAV01@ABV01@@Z
  003d6	8d 8d e8 fd ff
	ff		 lea	 ecx, DWORD PTR $T6[ebp]
  003dc	c6 45 fc 0b	 mov	 BYTE PTR __$EHRec$[ebp+8], 11 ; 0000000bH
  003e0	ff 15 00 00 00
	00		 call	 DWORD PTR __imp_??1?$CStringT@DV?$StrTraitMFC_DLL@DV?$ChTraitsCRT@D@ATL@@@@@ATL@@QAE@XZ

; 785  : 
; 786  : 	//  .
; 787  : 	nCnt = strTitle.Find('(');	

  003e6	6a 00		 push	 0
  003e8	6a 28		 push	 40			; 00000028H
  003ea	8d 8d d8 fd ff
	ff		 lea	 ecx, DWORD PTR _strTitle$[ebp]
  003f0	ff 15 00 00 00
	00		 call	 DWORD PTR __imp_?Find@?$CStringT@DV?$StrTraitMFC_DLL@DV?$ChTraitsCRT@D@ATL@@@@@ATL@@QBEHDH@Z

; 788  : 	strCityName = strTitle.Left(nCnt);	

  003f6	50		 push	 eax
  003f7	8d 85 e8 fd ff
	ff		 lea	 eax, DWORD PTR $T5[ebp]
  003fd	50		 push	 eax
  003fe	8d 8d d8 fd ff
	ff		 lea	 ecx, DWORD PTR _strTitle$[ebp]
  00404	ff 15 00 00 00
	00		 call	 DWORD PTR __imp_?Left@?$CStringT@DV?$StrTraitMFC_DLL@DV?$ChTraitsCRT@D@ATL@@@@@ATL@@QBE?AV12@H@Z
  0040a	50		 push	 eax
  0040b	8d 8d c0 fd ff
	ff		 lea	 ecx, DWORD PTR _strCityName$[ebp]
  00411	c6 45 fc 10	 mov	 BYTE PTR __$EHRec$[ebp+8], 16 ; 00000010H
  00415	ff 15 00 00 00
	00		 call	 DWORD PTR __imp_??4?$CStringT@DV?$StrTraitMFC_DLL@DV?$ChTraitsCRT@D@ATL@@@@@ATL@@QAEAAV01@ABV01@@Z
  0041b	8d 8d e8 fd ff
	ff		 lea	 ecx, DWORD PTR $T5[ebp]
  00421	c6 45 fc 0b	 mov	 BYTE PTR __$EHRec$[ebp+8], 11 ; 0000000bH
  00425	ff 15 00 00 00
	00		 call	 DWORD PTR __imp_??1?$CStringT@DV?$StrTraitMFC_DLL@DV?$ChTraitsCRT@D@ATL@@@@@ATL@@QAE@XZ

; 789  : 
; 790  : 	switch (nType)

  0042b	8b 45 10	 mov	 eax, DWORD PTR _nType$[ebp]
  0042e	83 e8 01	 sub	 eax, 1
  00431	74 5e		 je	 SHORT $LN8@GetTimeInd
  00433	83 e8 01	 sub	 eax, 1
  00436	74 36		 je	 SHORT $LN11@GetTimeInd

; 802  : 		break;
; 803  : 
; 804  : 	default :		//	
; 805  : 		if (nIndex == -1 && (nType != 1 || nType != 2))

  00438	83 fb ff	 cmp	 ebx, -1
  0043b	75 0a		 jne	 SHORT $LN13@GetTimeInd
$LN62@GetTimeInd:

; 806  : 			return "";

  0043d	68 00 00 00 00	 push	 OFFSET ??_C@_0L@PHGIMCBD@?$LP?x?$LH?$KB?$LN?C?$LA?$KD?$LE?k@
  00442	e9 d8 fe ff ff	 jmp	 $LN64@GetTimeInd
$LN13@GetTimeInd:

; 807  : 		else
; 808  : 			strData = strTitle;

  00447	8d 85 d8 fd ff
	ff		 lea	 eax, DWORD PTR _strTitle$[ebp]
  0044d	50		 push	 eax
  0044e	8d 8d dc fd ff
	ff		 lea	 ecx, DWORD PTR _strData$[ebp]
  00454	ff 15 00 00 00
	00		 call	 DWORD PTR __imp_??4?$CStringT@DV?$StrTraitMFC_DLL@DV?$ChTraitsCRT@D@ATL@@@@@ATL@@QAEAAV01@ABV01@@Z

; 809  : 
; 810  : 		break;
; 811  : 	}
; 812  : 
; 813  : 	return strData;

  0045a	8d 85 dc fd ff
	ff		 lea	 eax, DWORD PTR _strData$[ebp]
  00460	8b cf		 mov	 ecx, edi
  00462	50		 push	 eax
  00463	ff 15 00 00 00
	00		 call	 DWORD PTR __imp_??0?$CStringT@DV?$StrTraitMFC_DLL@DV?$ChTraitsCRT@D@ATL@@@@@ATL@@QAE@ABV01@@Z
  00469	e9 b9 fe ff ff	 jmp	 $LN66@GetTimeInd
$LN11@GetTimeInd:

; 797  : 
; 798  : 		break;
; 799  : 
; 800  : 	case 2 :		//	 
; 801  : 		strData = strData;

  0046e	8d 85 dc fd ff
	ff		 lea	 eax, DWORD PTR _strData$[ebp]
  00474	50		 push	 eax
  00475	8b c8		 mov	 ecx, eax
  00477	ff 15 00 00 00
	00		 call	 DWORD PTR __imp_??4?$CStringT@DV?$StrTraitMFC_DLL@DV?$ChTraitsCRT@D@ATL@@@@@ATL@@QAEAAV01@ABV01@@Z

; 809  : 
; 810  : 		break;
; 811  : 	}
; 812  : 
; 813  : 	return strData;

  0047d	8d 85 dc fd ff
	ff		 lea	 eax, DWORD PTR _strData$[ebp]
  00483	8b cf		 mov	 ecx, edi
  00485	50		 push	 eax
  00486	ff 15 00 00 00
	00		 call	 DWORD PTR __imp_??0?$CStringT@DV?$StrTraitMFC_DLL@DV?$ChTraitsCRT@D@ATL@@@@@ATL@@QAE@ABV01@@Z
  0048c	e9 96 fe ff ff	 jmp	 $LN66@GetTimeInd
$LN8@GetTimeInd:
; File C:\Program Files (x86)\Microsoft Visual Studio\2019\Community\VC\Tools\MSVC\14.29.30133\atlmfc\include\cstringt.h

; 2486 : 		return(str1.Compare(psz2) == 0);

  00491	68 00 00 00 00	 push	 OFFSET ??_C@_01HIHLOKLC@1@
  00496	8d 8d c8 fd ff
	ff		 lea	 ecx, DWORD PTR _strSummerTime$[ebp]
  0049c	ff 15 00 00 00
	00		 call	 DWORD PTR __imp_?Compare@?$CStringT@DV?$StrTraitMFC_DLL@DV?$ChTraitsCRT@D@ATL@@@@@ATL@@QBEHPBD@Z
; File D:\git\src\IBK\IBK_DRFN\ProjSrc\SrcDrfn\DrCommon\PartnerMng\DataConverter.cpp

; 793  : 		if (strSummerTime == "1")

  004a2	ff b5 d0 fd ff
	ff		 push	 DWORD PTR _strGmt$[ebp]
; File C:\Program Files (x86)\Microsoft Visual Studio\2019\Community\VC\Tools\MSVC\14.29.30133\atlmfc\include\cstringt.h

; 2486 : 		return(str1.Compare(psz2) == 0);

  004a8	85 c0		 test	 eax, eax
; File D:\git\src\IBK\IBK_DRFN\ProjSrc\SrcDrfn\DrCommon\PartnerMng\DataConverter.cpp

; 793  : 		if (strSummerTime == "1")

  004aa	75 09		 jne	 SHORT $LN9@GetTimeInd

; 794  : 			strData.Format("%d", atoi(strGmt)+1);

  004ac	ff 15 00 00 00
	00		 call	 DWORD PTR __imp__atoi
  004b2	40		 inc	 eax
  004b3	eb 06		 jmp	 SHORT $LN65@GetTimeInd
$LN9@GetTimeInd:

; 795  : 		else
; 796  : 			strData.Format("%d", atoi(strGmt));

  004b5	ff 15 00 00 00
	00		 call	 DWORD PTR __imp__atoi
$LN65@GetTimeInd:

; 809  : 
; 810  : 		break;
; 811  : 	}
; 812  : 
; 813  : 	return strData;

  004bb	50		 push	 eax
  004bc	8d 85 dc fd ff
	ff		 lea	 eax, DWORD PTR _strData$[ebp]
  004c2	68 00 00 00 00	 push	 OFFSET ??_C@_02DPKJAMEF@?$CFd@
  004c7	50		 push	 eax
  004c8	a1 00 00 00 00	 mov	 eax, DWORD PTR __imp_?Format@?$CStringT@DV?$StrTraitMFC_DLL@DV?$ChTraitsCRT@D@ATL@@@@@ATL@@QAAXPBDZZ
  004cd	ff d0		 call	 eax
  004cf	83 c4 10	 add	 esp, 16			; 00000010H
  004d2	8d 85 dc fd ff
	ff		 lea	 eax, DWORD PTR _strData$[ebp]
  004d8	8b cf		 mov	 ecx, edi
  004da	50		 push	 eax
  004db	ff 15 00 00 00
	00		 call	 DWORD PTR __imp_??0?$CStringT@DV?$StrTraitMFC_DLL@DV?$ChTraitsCRT@D@ATL@@@@@ATL@@QAE@ABV01@@Z
  004e1	e9 41 fe ff ff	 jmp	 $LN66@GetTimeInd
_TEXT	ENDS
;	COMDAT text$x
text$x	SEGMENT
__unwindfunclet$?GetTimeIndexInfo@CDataConverter@@SA?AV?$CStringT@DV?$StrTraitMFC_DLL@DV?$ChTraitsCRT@D@ATL@@@@@ATL@@HH@Z$0:
  00000	8d 8d d4 fd ff
	ff		 lea	 ecx, DWORD PTR _strFileName$[ebp]
  00006	ff 25 00 00 00
	00		 jmp	 DWORD PTR __imp_??1?$CStringT@DV?$StrTraitMFC_DLL@DV?$ChTraitsCRT@D@ATL@@@@@ATL@@QAE@XZ
__unwindfunclet$?GetTimeIndexInfo@CDataConverter@@SA?AV?$CStringT@DV?$StrTraitMFC_DLL@DV?$ChTraitsCRT@D@ATL@@@@@ATL@@HH@Z$1:
  0000c	8d 8d e4 fd ff
	ff		 lea	 ecx, DWORD PTR _strTemp$[ebp]
  00012	ff 25 00 00 00
	00		 jmp	 DWORD PTR __imp_??1?$CStringT@DV?$StrTraitMFC_DLL@DV?$ChTraitsCRT@D@ATL@@@@@ATL@@QAE@XZ
__unwindfunclet$?GetTimeIndexInfo@CDataConverter@@SA?AV?$CStringT@DV?$StrTraitMFC_DLL@DV?$ChTraitsCRT@D@ATL@@@@@ATL@@HH@Z$2:
  00018	8d 8d c4 fd ff
	ff		 lea	 ecx, DWORD PTR _strKey$[ebp]
  0001e	ff 25 00 00 00
	00		 jmp	 DWORD PTR __imp_??1?$CStringT@DV?$StrTraitMFC_DLL@DV?$ChTraitsCRT@D@ATL@@@@@ATL@@QAE@XZ
__unwindfunclet$?GetTimeIndexInfo@CDataConverter@@SA?AV?$CStringT@DV?$StrTraitMFC_DLL@DV?$ChTraitsCRT@D@ATL@@@@@ATL@@HH@Z$3:
  00024	8d 8d dc fd ff
	ff		 lea	 ecx, DWORD PTR _strData$[ebp]
  0002a	ff 25 00 00 00
	00		 jmp	 DWORD PTR __imp_??1?$CStringT@DV?$StrTraitMFC_DLL@DV?$ChTraitsCRT@D@ATL@@@@@ATL@@QAE@XZ
__unwindfunclet$?GetTimeIndexInfo@CDataConverter@@SA?AV?$CStringT@DV?$StrTraitMFC_DLL@DV?$ChTraitsCRT@D@ATL@@@@@ATL@@HH@Z$4:
  00030	8d 8d d8 fd ff
	ff		 lea	 ecx, DWORD PTR _strTitle$[ebp]
  00036	ff 25 00 00 00
	00		 jmp	 DWORD PTR __imp_??1?$CStringT@DV?$StrTraitMFC_DLL@DV?$ChTraitsCRT@D@ATL@@@@@ATL@@QAE@XZ
__unwindfunclet$?GetTimeIndexInfo@CDataConverter@@SA?AV?$CStringT@DV?$StrTraitMFC_DLL@DV?$ChTraitsCRT@D@ATL@@@@@ATL@@HH@Z$5:
  0003c	8d 8d d0 fd ff
	ff		 lea	 ecx, DWORD PTR _strGmt$[ebp]
  00042	ff 25 00 00 00
	00		 jmp	 DWORD PTR __imp_??1?$CStringT@DV?$StrTraitMFC_DLL@DV?$ChTraitsCRT@D@ATL@@@@@ATL@@QAE@XZ
__unwindfunclet$?GetTimeIndexInfo@CDataConverter@@SA?AV?$CStringT@DV?$StrTraitMFC_DLL@DV?$ChTraitsCRT@D@ATL@@@@@ATL@@HH@Z$6:
  00048	8d 8d c8 fd ff
	ff		 lea	 ecx, DWORD PTR _strSummerTime$[ebp]
  0004e	ff 25 00 00 00
	00		 jmp	 DWORD PTR __imp_??1?$CStringT@DV?$StrTraitMFC_DLL@DV?$ChTraitsCRT@D@ATL@@@@@ATL@@QAE@XZ
__unwindfunclet$?GetTimeIndexInfo@CDataConverter@@SA?AV?$CStringT@DV?$StrTraitMFC_DLL@DV?$ChTraitsCRT@D@ATL@@@@@ATL@@HH@Z$7:
  00054	8d 8d c0 fd ff
	ff		 lea	 ecx, DWORD PTR _strCityName$[ebp]
  0005a	ff 25 00 00 00
	00		 jmp	 DWORD PTR __imp_??1?$CStringT@DV?$StrTraitMFC_DLL@DV?$ChTraitsCRT@D@ATL@@@@@ATL@@QAE@XZ
__unwindfunclet$?GetTimeIndexInfo@CDataConverter@@SA?AV?$CStringT@DV?$StrTraitMFC_DLL@DV?$ChTraitsCRT@D@ATL@@@@@ATL@@HH@Z$15:
  00060	8d 8d e0 fd ff
	ff		 lea	 ecx, DWORD PTR __strRoot_$2[ebp]
  00066	ff 25 00 00 00
	00		 jmp	 DWORD PTR __imp_??1?$CStringT@DV?$StrTraitMFC_DLL@DV?$ChTraitsCRT@D@ATL@@@@@ATL@@QAE@XZ
__unwindfunclet$?GetTimeIndexInfo@CDataConverter@@SA?AV?$CStringT@DV?$StrTraitMFC_DLL@DV?$ChTraitsCRT@D@ATL@@@@@ATL@@HH@Z$16:
  0006c	8d 8d e8 fd ff
	ff		 lea	 ecx, DWORD PTR $T4[ebp]
  00072	ff 25 00 00 00
	00		 jmp	 DWORD PTR __imp_??1?$CStringT@DV?$StrTraitMFC_DLL@DV?$ChTraitsCRT@D@ATL@@@@@ATL@@QAE@XZ
__unwindfunclet$?GetTimeIndexInfo@CDataConverter@@SA?AV?$CStringT@DV?$StrTraitMFC_DLL@DV?$ChTraitsCRT@D@ATL@@@@@ATL@@HH@Z$17:
  00078	8d 8d e8 fd ff
	ff		 lea	 ecx, DWORD PTR $T3[ebp]
  0007e	ff 25 00 00 00
	00		 jmp	 DWORD PTR __imp_??1?$CStringT@DV?$StrTraitMFC_DLL@DV?$ChTraitsCRT@D@ATL@@@@@ATL@@QAE@XZ
__unwindfunclet$?GetTimeIndexInfo@CDataConverter@@SA?AV?$CStringT@DV?$StrTraitMFC_DLL@DV?$ChTraitsCRT@D@ATL@@@@@ATL@@HH@Z$8:
  00084	8d 8d cc fd ff
	ff		 lea	 ecx, DWORD PTR _strSection$[ebp]
  0008a	ff 25 00 00 00
	00		 jmp	 DWORD PTR __imp_??1?$CStringT@DV?$StrTraitMFC_DLL@DV?$ChTraitsCRT@D@ATL@@@@@ATL@@QAE@XZ
__unwindfunclet$?GetTimeIndexInfo@CDataConverter@@SA?AV?$CStringT@DV?$StrTraitMFC_DLL@DV?$ChTraitsCRT@D@ATL@@@@@ATL@@HH@Z$10:
  00090	8d 8d e8 fd ff
	ff		 lea	 ecx, DWORD PTR $T9[ebp]
  00096	ff 25 00 00 00
	00		 jmp	 DWORD PTR __imp_??1?$CStringT@DV?$StrTraitMFC_DLL@DV?$ChTraitsCRT@D@ATL@@@@@ATL@@QAE@XZ
__unwindfunclet$?GetTimeIndexInfo@CDataConverter@@SA?AV?$CStringT@DV?$StrTraitMFC_DLL@DV?$ChTraitsCRT@D@ATL@@@@@ATL@@HH@Z$11:
  0009c	8d 8d e8 fd ff
	ff		 lea	 ecx, DWORD PTR $T8[ebp]
  000a2	ff 25 00 00 00
	00		 jmp	 DWORD PTR __imp_??1?$CStringT@DV?$StrTraitMFC_DLL@DV?$ChTraitsCRT@D@ATL@@@@@ATL@@QAE@XZ
__unwindfunclet$?GetTimeIndexInfo@CDataConverter@@SA?AV?$CStringT@DV?$StrTraitMFC_DLL@DV?$ChTraitsCRT@D@ATL@@@@@ATL@@HH@Z$12:
  000a8	8d 8d e8 fd ff
	ff		 lea	 ecx, DWORD PTR $T7[ebp]
  000ae	ff 25 00 00 00
	00		 jmp	 DWORD PTR __imp_??1?$CStringT@DV?$StrTraitMFC_DLL@DV?$ChTraitsCRT@D@ATL@@@@@ATL@@QAE@XZ
__unwindfunclet$?GetTimeIndexInfo@CDataConverter@@SA?AV?$CStringT@DV?$StrTraitMFC_DLL@DV?$ChTraitsCRT@D@ATL@@@@@ATL@@HH@Z$13:
  000b4	8d 8d e8 fd ff
	ff		 lea	 ecx, DWORD PTR $T6[ebp]
  000ba	ff 25 00 00 00
	00		 jmp	 DWORD PTR __imp_??1?$CStringT@DV?$StrTraitMFC_DLL@DV?$ChTraitsCRT@D@ATL@@@@@ATL@@QAE@XZ
__unwindfunclet$?GetTimeIndexInfo@CDataConverter@@SA?AV?$CStringT@DV?$StrTraitMFC_DLL@DV?$ChTraitsCRT@D@ATL@@@@@ATL@@HH@Z$14:
  000c0	8d 8d e8 fd ff
	ff		 lea	 ecx, DWORD PTR $T5[ebp]
  000c6	ff 25 00 00 00
	00		 jmp	 DWORD PTR __imp_??1?$CStringT@DV?$StrTraitMFC_DLL@DV?$ChTraitsCRT@D@ATL@@@@@ATL@@QAE@XZ
  000cc	cc		 int	 3
  000cd	cc		 int	 3
  000ce	cc		 int	 3
  000cf	cc		 int	 3
  000d0	cc		 int	 3
__ehhandler$?GetTimeIndexInfo@CDataConverter@@SA?AV?$CStringT@DV?$StrTraitMFC_DLL@DV?$ChTraitsCRT@D@ATL@@@@@ATL@@HH@Z:
  000d1	90		 npad	 1
  000d2	90		 npad	 1
  000d3	8b 54 24 08	 mov	 edx, DWORD PTR [esp+8]
  000d7	8d 42 0c	 lea	 eax, DWORD PTR [edx+12]
  000da	8b 8a bc fd ff
	ff		 mov	 ecx, DWORD PTR [edx-580]
  000e0	33 c8		 xor	 ecx, eax
  000e2	e8 00 00 00 00	 call	 @__security_check_cookie@4
  000e7	8b 4a fc	 mov	 ecx, DWORD PTR [edx-4]
  000ea	33 c8		 xor	 ecx, eax
  000ec	e8 00 00 00 00	 call	 @__security_check_cookie@4
  000f1	b8 00 00 00 00	 mov	 eax, OFFSET __ehfuncinfo$?GetTimeIndexInfo@CDataConverter@@SA?AV?$CStringT@DV?$StrTraitMFC_DLL@DV?$ChTraitsCRT@D@ATL@@@@@ATL@@HH@Z
  000f6	e9 00 00 00 00	 jmp	 ___CxxFrameHandler3
text$x	ENDS
?GetTimeIndexInfo@CDataConverter@@SA?AV?$CStringT@DV?$StrTraitMFC_DLL@DV?$ChTraitsCRT@D@ATL@@@@@ATL@@HH@Z ENDP ; CDataConverter::GetTimeIndexInfo
; Function compile flags: /Ogtp
; File D:\git\src\IBK\IBK_DRFN\ProjSrc\SrcDrfn\DrCommon\PartnerMng\DataConverter.cpp
; File C:\Program Files (x86)\Microsoft Visual Studio\2019\Community\VC\Tools\MSVC\14.29.30133\atlmfc\include\atlsimpstr.h
; File D:\git\src\IBK\IBK_DRFN\ProjSrc\SrcDrfn\DrCommon\PartnerMng\DataConverter.cpp
;	COMDAT ?DataSeparation@CDataConverter@@SANV?$CStringT@DV?$StrTraitMFC_DLL@DV?$ChTraitsCRT@D@ATL@@@@@ATL@@H@Z
_TEXT	SEGMENT
tv164 = -28						; size = 8
tv170 = -20						; size = 8
$T2 = -20						; size = 8
$T3 = -20						; size = 8
$T4 = -20						; size = 8
__$EHRec$ = -12						; size = 12
_strData$ = 8						; size = 4
_nMask$ = 12						; size = 4
?DataSeparation@CDataConverter@@SANV?$CStringT@DV?$StrTraitMFC_DLL@DV?$ChTraitsCRT@D@ATL@@@@@ATL@@H@Z PROC ; CDataConverter::DataSeparation, COMDAT

; 727  : {

  00000	55		 push	 ebp
  00001	8b ec		 mov	 ebp, esp
  00003	6a ff		 push	 -1
  00005	68 00 00 00 00	 push	 __ehhandler$?DataSeparation@CDataConverter@@SANV?$CStringT@DV?$StrTraitMFC_DLL@DV?$ChTraitsCRT@D@ATL@@@@@ATL@@H@Z
  0000a	64 a1 00 00 00
	00		 mov	 eax, DWORD PTR fs:0
  00010	50		 push	 eax
  00011	83 ec 10	 sub	 esp, 16			; 00000010H
  00014	a1 00 00 00 00	 mov	 eax, DWORD PTR ___security_cookie
  00019	33 c5		 xor	 eax, ebp
  0001b	50		 push	 eax
  0001c	8d 45 f4	 lea	 eax, DWORD PTR __$EHRec$[ebp]
  0001f	64 a3 00 00 00
	00		 mov	 DWORD PTR fs:0, eax

; 728  : 	strData.TrimLeft();

  00025	8d 4d 08	 lea	 ecx, DWORD PTR _strData$[ebp]
  00028	c7 45 fc 00 00
	00 00		 mov	 DWORD PTR __$EHRec$[ebp+8], 0
  0002f	ff 15 00 00 00
	00		 call	 DWORD PTR __imp_?TrimLeft@?$CStringT@DV?$StrTraitMFC_DLL@DV?$ChTraitsCRT@D@ATL@@@@@ATL@@QAEAAV12@XZ

; 729  : 	strData.TrimRight();

  00035	8d 4d 08	 lea	 ecx, DWORD PTR _strData$[ebp]
  00038	ff 15 00 00 00
	00		 call	 DWORD PTR __imp_?TrimRight@?$CStringT@DV?$StrTraitMFC_DLL@DV?$ChTraitsCRT@D@ATL@@@@@ATL@@QAEAAV12@XZ
; File C:\Program Files (x86)\Microsoft Visual Studio\2019\Community\VC\Tools\MSVC\14.29.30133\atlmfc\include\atlsimpstr.h

; 533  : 		return( GetLength() == 0 );

  0003e	8b 45 08	 mov	 eax, DWORD PTR _strData$[ebp]
  00041	83 78 f4 00	 cmp	 DWORD PTR [eax-12], 0
; File D:\git\src\IBK\IBK_DRFN\ProjSrc\SrcDrfn\DrCommon\PartnerMng\DataConverter.cpp

; 731  : 	if (strData.IsEmpty())

  00045	75 12		 jne	 SHORT $LN2@DataSepara
  00047	f2 0f 10 05 00
	00 00 00	 movsd	 xmm0, QWORD PTR __real@4197d783fc000000
  0004f	f2 0f 11 45 ec	 movsd	 QWORD PTR $T3[ebp], xmm0
  00054	dd 45 ec	 fld	 QWORD PTR $T3[ebp]
  00057	eb 46		 jmp	 SHORT $LN19@DataSepara
$LN2@DataSepara:

; 732  : 		return 99999999.;
; 733  : 
; 734  : 	if (nMask <= 0)

  00059	50		 push	 eax
  0005a	ff 15 00 00 00
	00		 call	 DWORD PTR __imp__atof
  00060	83 c4 04	 add	 esp, 4
  00063	83 7d 0c 00	 cmp	 DWORD PTR _nMask$[ebp], 0
  00067	7f 12		 jg	 SHORT $LN3@DataSepara

; 735  : //		nMask = 1;
; 736  : 		return atof(strData);

  00069	dd 5d ec	 fstp	 QWORD PTR $T4[ebp]
  0006c	f2 0f 10 45 ec	 movsd	 xmm0, QWORD PTR $T4[ebp]
  00071	f2 0f 11 45 ec	 movsd	 QWORD PTR $T3[ebp], xmm0
  00076	dd 45 ec	 fld	 QWORD PTR $T3[ebp]
  00079	eb 24		 jmp	 SHORT $LN19@DataSepara
$LN3@DataSepara:
  0007b	66 0f 6e 4d 0c	 movd	 xmm1, DWORD PTR _nMask$[ebp]

; 737  : 
; 738  : 	double dMask = pow(10, nMask);

  00080	f2 0f 10 05 00
	00 00 00	 movsd	 xmm0, QWORD PTR __real@4024000000000000
  00088	f3 0f e6 c9	 cvtdq2pd xmm1, xmm1

; 739  : 
; 740  : 	return (atof(strData) * dMask);

  0008c	dd 5d e4	 fstp	 QWORD PTR tv164[ebp]
  0008f	e8 00 00 00 00	 call	 __libm_sse2_pow_precise
  00094	f2 0f 11 45 ec	 movsd	 QWORD PTR tv170[ebp], xmm0
  00099	dd 45 ec	 fld	 QWORD PTR tv170[ebp]
  0009c	dc 4d e4	 fmul	 QWORD PTR tv164[ebp]
$LN19@DataSepara:
  0009f	8d 4d 08	 lea	 ecx, DWORD PTR _strData$[ebp]
  000a2	dd 5d ec	 fstp	 QWORD PTR $T2[ebp]
  000a5	ff 15 00 00 00
	00		 call	 DWORD PTR __imp_??1?$CStringT@DV?$StrTraitMFC_DLL@DV?$ChTraitsCRT@D@ATL@@@@@ATL@@QAE@XZ
  000ab	dd 45 ec	 fld	 QWORD PTR $T2[ebp]

; 741  : }

  000ae	8b 4d f4	 mov	 ecx, DWORD PTR __$EHRec$[ebp]
  000b1	64 89 0d 00 00
	00 00		 mov	 DWORD PTR fs:0, ecx
  000b8	59		 pop	 ecx
  000b9	8b e5		 mov	 esp, ebp
  000bb	5d		 pop	 ebp
  000bc	c3		 ret	 0
_TEXT	ENDS
;	COMDAT text$x
text$x	SEGMENT
__unwindfunclet$?DataSeparation@CDataConverter@@SANV?$CStringT@DV?$StrTraitMFC_DLL@DV?$ChTraitsCRT@D@ATL@@@@@ATL@@H@Z$0:
  00000	8d 4d 08	 lea	 ecx, DWORD PTR _strData$[ebp]
  00003	ff 25 00 00 00
	00		 jmp	 DWORD PTR __imp_??1?$CStringT@DV?$StrTraitMFC_DLL@DV?$ChTraitsCRT@D@ATL@@@@@ATL@@QAE@XZ
  00009	cc		 int	 3
  0000a	cc		 int	 3
  0000b	cc		 int	 3
  0000c	cc		 int	 3
  0000d	cc		 int	 3
__ehhandler$?DataSeparation@CDataConverter@@SANV?$CStringT@DV?$StrTraitMFC_DLL@DV?$ChTraitsCRT@D@ATL@@@@@ATL@@H@Z:
  0000e	90		 npad	 1
  0000f	90		 npad	 1
  00010	8b 54 24 08	 mov	 edx, DWORD PTR [esp+8]
  00014	8d 42 0c	 lea	 eax, DWORD PTR [edx+12]
  00017	8b 4a ec	 mov	 ecx, DWORD PTR [edx-20]
  0001a	33 c8		 xor	 ecx, eax
  0001c	e8 00 00 00 00	 call	 @__security_check_cookie@4
  00021	b8 00 00 00 00	 mov	 eax, OFFSET __ehfuncinfo$?DataSeparation@CDataConverter@@SANV?$CStringT@DV?$StrTraitMFC_DLL@DV?$ChTraitsCRT@D@ATL@@@@@ATL@@H@Z
  00026	e9 00 00 00 00	 jmp	 ___CxxFrameHandler3
text$x	ENDS
?DataSeparation@CDataConverter@@SANV?$CStringT@DV?$StrTraitMFC_DLL@DV?$ChTraitsCRT@D@ATL@@@@@ATL@@H@Z ENDP ; CDataConverter::DataSeparation
; Function compile flags: /Ogtp
; File D:\git\src\IBK\IBK_DRFN\ProjSrc\SrcDrfn\DrCommon\PartnerMng\DataConverter.cpp
;	COMDAT ?GetDecimalRate@CDataConverter@@SADV?$CStringT@DV?$StrTraitMFC_DLL@DV?$ChTraitsCRT@D@ATL@@@@@ATL@@AAHAANAAV23@@Z
_TEXT	SEGMENT
__$EHRec$ = -12						; size = 12
_strDecimalGB$ = 8					; size = 4
_nPcnt$ = 12						; size = 4
_dRate$ = 16						; size = 4
_strResult$ = 20					; size = 4
?GetDecimalRate@CDataConverter@@SADV?$CStringT@DV?$StrTraitMFC_DLL@DV?$ChTraitsCRT@D@ATL@@@@@ATL@@AAHAANAAV23@@Z PROC ; CDataConverter::GetDecimalRate, COMDAT

; 680  : {

  00000	55		 push	 ebp
  00001	8b ec		 mov	 ebp, esp
  00003	6a ff		 push	 -1
  00005	68 00 00 00 00	 push	 __ehhandler$?GetDecimalRate@CDataConverter@@SADV?$CStringT@DV?$StrTraitMFC_DLL@DV?$ChTraitsCRT@D@ATL@@@@@ATL@@AAHAANAAV23@@Z
  0000a	64 a1 00 00 00
	00		 mov	 eax, DWORD PTR fs:0
  00010	50		 push	 eax
  00011	53		 push	 ebx
  00012	56		 push	 esi
  00013	57		 push	 edi
  00014	a1 00 00 00 00	 mov	 eax, DWORD PTR ___security_cookie
  00019	33 c5		 xor	 eax, ebp
  0001b	50		 push	 eax
  0001c	8d 45 f4	 lea	 eax, DWORD PTR __$EHRec$[ebp]
  0001f	64 a3 00 00 00
	00		 mov	 DWORD PTR fs:0, eax

; 681  : 	if (strDecimalGB.GetLength() <= 0)

  00025	8b 45 08	 mov	 eax, DWORD PTR _strDecimalGB$[ebp]
  00028	c7 45 fc 00 00
	00 00		 mov	 DWORD PTR __$EHRec$[ebp+8], 0
  0002f	83 78 f4 00	 cmp	 DWORD PTR [eax-12], 0
  00033	7f 08		 jg	 SHORT $LN4@GetDecimal
  00035	80 cb ff	 or	 bl, -1
  00038	e9 91 01 00 00	 jmp	 $LN19@GetDecimal
$LN4@GetDecimal:

; 682  : 		return -1;
; 683  : 
; 684  : 	int nFcnt=0, nHcnt=0;
; 685  : 	nPcnt = 0;

  0003d	8b 75 0c	 mov	 esi, DWORD PTR _nPcnt$[ebp]

; 686  : 	dRate = 1.0;

  00040	8b 7d 10	 mov	 edi, DWORD PTR _dRate$[ebp]
  00043	f2 0f 10 05 00
	00 00 00	 movsd	 xmm0, QWORD PTR __real@3ff0000000000000

; 687  : 
; 688  : 	char cRet = '0';
; 689  : 	int nType = atoi(strDecimalGB);

  0004b	50		 push	 eax
  0004c	c7 06 00 00 00
	00		 mov	 DWORD PTR [esi], 0
  00052	f2 0f 11 07	 movsd	 QWORD PTR [edi], xmm0
  00056	ff 15 00 00 00
	00		 call	 DWORD PTR __imp__atoi

; 690  : 
; 691  : 	if (nType >= 1 && nType <= 10)

  0005c	48		 dec	 eax
  0005d	83 c4 04	 add	 esp, 4
  00060	83 f8 09	 cmp	 eax, 9
  00063	77 6e		 ja	 SHORT $LN5@GetDecimal

; 692  : 	{
; 693  : 		nPcnt = nType-1;
; 694  : 		dRate = 1.0/pow(10, nPcnt);

  00065	f2 0f 10 05 00
	00 00 00	 movsd	 xmm0, QWORD PTR __real@4024000000000000
  0006d	66 0f 6e c8	 movd	 xmm1, eax
  00071	f3 0f e6 c9	 cvtdq2pd xmm1, xmm1
  00075	89 06		 mov	 DWORD PTR [esi], eax
  00077	e8 00 00 00 00	 call	 __libm_sse2_pow_precise
  0007c	f2 0f 10 0d 00
	00 00 00	 movsd	 xmm1, QWORD PTR __real@3ff0000000000000
  00084	f2 0f 5e c8	 divsd	 xmm1, xmm0

; 695  : 		cRet += nPcnt;
; 696  : 		strResult.Format(" %0.*f", nPcnt, 1 / pow(10, nPcnt));

  00088	f2 0f 10 05 00
	00 00 00	 movsd	 xmm0, QWORD PTR __real@4024000000000000
  00090	f2 0f 11 0f	 movsd	 QWORD PTR [edi], xmm1
  00094	8a 1e		 mov	 bl, BYTE PTR [esi]
  00096	8b 36		 mov	 esi, DWORD PTR [esi]
  00098	80 c3 30	 add	 bl, 48			; 00000030H
  0009b	66 0f 6e ce	 movd	 xmm1, esi
  0009f	f3 0f e6 c9	 cvtdq2pd xmm1, xmm1
  000a3	e8 00 00 00 00	 call	 __libm_sse2_pow_precise
  000a8	f2 0f 10 0d 00
	00 00 00	 movsd	 xmm1, QWORD PTR __real@3ff0000000000000
  000b0	83 ec 08	 sub	 esp, 8
  000b3	f2 0f 5e c8	 divsd	 xmm1, xmm0
  000b7	f2 0f 11 0c 24	 movsd	 QWORD PTR [esp], xmm1
  000bc	56		 push	 esi
  000bd	68 00 00 00 00	 push	 OFFSET ??_C@_08JKJCHLHA@?$KB?$LP?5?$CF0?4?$CKf@
  000c2	ff 75 14	 push	 DWORD PTR _strResult$[ebp]
  000c5	ff 15 00 00 00
	00		 call	 DWORD PTR __imp_?Format@?$CStringT@DV?$StrTraitMFC_DLL@DV?$ChTraitsCRT@D@ATL@@@@@ATL@@QAAXPBDZZ
  000cb	83 c4 14	 add	 esp, 20			; 00000014H

; 697  : 	}

  000ce	e9 fb 00 00 00	 jmp	 $LN19@GetDecimal
$LN5@GetDecimal:

; 698  : 	else
; 699  : 	{
; 700  : 		cRet = strDecimalGB.GetAt(0);

  000d3	6a 00		 push	 0
  000d5	8d 4d 08	 lea	 ecx, DWORD PTR _strDecimalGB$[ebp]
  000d8	ff 15 00 00 00
	00		 call	 DWORD PTR __imp_?GetAt@?$CSimpleStringT@D$00@ATL@@QBEDH@Z
  000de	8a d8		 mov	 bl, al

; 701  : 		switch (cRet)

  000e0	0f be c3	 movsx	 eax, bl
  000e3	83 c0 bf	 add	 eax, -65		; ffffffbfH
  000e6	83 f8 0a	 cmp	 eax, 10			; 0000000aH
  000e9	0f 87 dd 00 00
	00		 ja	 $LN16@GetDecimal
  000ef	ff 24 85 00 00
	00 00		 jmp	 DWORD PTR $LN27@GetDecimal[eax*4]
$LN7@GetDecimal:

; 702  : 		{
; 703  : 		case 'A':	nPcnt = 1;	dRate = 1.0/2.0;	nFcnt = 1;	nHcnt = 0;	break;	//	9999'9

  000f6	f2 0f 10 0d 00
	00 00 00	 movsd	 xmm1, QWORD PTR __real@3fe0000000000000
  000fe	b9 01 00 00 00	 mov	 ecx, 1
  00103	c7 06 01 00 00
	00		 mov	 DWORD PTR [esi], 1
  00109	33 c0		 xor	 eax, eax
  0010b	e9 91 00 00 00	 jmp	 $LN29@GetDecimal
$LN8@GetDecimal:

; 704  : 		case 'B':	nPcnt = 2;	dRate = 1.0/4.0;	nFcnt = 1;	nHcnt = 0;	break;	//	9999'9

  00110	f2 0f 10 0d 00
	00 00 00	 movsd	 xmm1, QWORD PTR __real@3fd0000000000000
  00118	b9 01 00 00 00	 mov	 ecx, 1
  0011d	c7 06 02 00 00
	00		 mov	 DWORD PTR [esi], 2
  00123	33 c0		 xor	 eax, eax
  00125	eb 7a		 jmp	 SHORT $LN29@GetDecimal
$LN9@GetDecimal:

; 705  : 		case 'C':	nPcnt = 3;	dRate = 1.0/8.0;	nFcnt = 1;	nHcnt = 0;	break;	//	9999'9

  00127	f2 0f 10 0d 00
	00 00 00	 movsd	 xmm1, QWORD PTR __real@3fc0000000000000
  0012f	b9 01 00 00 00	 mov	 ecx, 1
  00134	c7 06 03 00 00
	00		 mov	 DWORD PTR [esi], 3
  0013a	33 c0		 xor	 eax, eax
  0013c	eb 63		 jmp	 SHORT $LN29@GetDecimal
$LN10@GetDecimal:

; 706  : 		case 'D':	nPcnt = 4;	dRate = 1.0/16.0;	nFcnt = 2;	nHcnt = 0;	break;	//	9999'99

  0013e	f2 0f 10 0d 00
	00 00 00	 movsd	 xmm1, QWORD PTR __real@3fb0000000000000
  00146	33 c0		 xor	 eax, eax
  00148	c7 06 04 00 00
	00		 mov	 DWORD PTR [esi], 4
  0014e	eb 4c		 jmp	 SHORT $LN30@GetDecimal
$LN11@GetDecimal:

; 707  : 		case 'E':	nPcnt = 5;	dRate = 1.0/32.0;	nFcnt = 2;	nHcnt = 0;	break;	//	9999'99

  00150	c7 06 05 00 00
	00		 mov	 DWORD PTR [esi], 5
  00156	33 c0		 xor	 eax, eax
  00158	eb 3a		 jmp	 SHORT $LN31@GetDecimal
$LN12@GetDecimal:

; 708  : 		case 'F':	nPcnt = 6;	dRate = 1.0/64.0;	nFcnt = 2;	nHcnt = 0;	break;	//	9999'99

  0015a	f2 0f 10 0d 00
	00 00 00	 movsd	 xmm1, QWORD PTR __real@3f90000000000000
  00162	33 c0		 xor	 eax, eax
  00164	c7 06 06 00 00
	00		 mov	 DWORD PTR [esi], 6
  0016a	eb 30		 jmp	 SHORT $LN30@GetDecimal
$LN13@GetDecimal:

; 709  : //		case 'I':	nPcnt = 6;	dRate = 1.0/64.0;	nFcnt = 2;	nHcnt = 1;	break;	//	9999'99.9
; 710  : //		case 'J':	nPcnt = 7;
; 711  : //		case 'K':	nPcnt = 7;	dRate = 1.0/128.0;	nFcnt = 2;	nHcnt = 1;	break;	//	9999'99.9
; 712  : //		case 'G':			break;
; 713  : 		case 'I':	nPcnt = 6;	dRate = 1.0/32.0;	nFcnt = 2;	nHcnt = 1;	break;	//	9999'99.9

  0016c	c7 06 06 00 00
	00		 mov	 DWORD PTR [esi], 6
  00172	eb 1b		 jmp	 SHORT $LN32@GetDecimal
$LN14@GetDecimal:

; 714  : 		case 'J':	nPcnt = 7;	dRate = 1.0/64.0;	nFcnt = 2;	nHcnt = 1;	break;	//	9999'99.9

  00174	f2 0f 10 0d 00
	00 00 00	 movsd	 xmm1, QWORD PTR __real@3f90000000000000
  0017c	b8 01 00 00 00	 mov	 eax, 1
  00181	c7 06 07 00 00
	00		 mov	 DWORD PTR [esi], 7
  00187	eb 13		 jmp	 SHORT $LN30@GetDecimal
$LN15@GetDecimal:

; 715  : 		case 'K':	nPcnt = 7;	dRate = 1.0/32.0;	nFcnt = 2;	nHcnt = 1;	break;	//	9999'99.9

  00189	c7 06 07 00 00
	00		 mov	 DWORD PTR [esi], 7
$LN32@GetDecimal:

; 717  : 		}
; 718  : 
; 719  : 		strResult.Format(" 1/%d\'%d.%d", (int)(dRate/(dRate*dRate)), nFcnt+nHcnt, nHcnt);

  0018f	b8 01 00 00 00	 mov	 eax, 1
$LN31@GetDecimal:
  00194	f2 0f 10 0d 00
	00 00 00	 movsd	 xmm1, QWORD PTR __real@3fa0000000000000
$LN30@GetDecimal:
  0019c	b9 02 00 00 00	 mov	 ecx, 2
$LN29@GetDecimal:
  001a1	0f 28 c1	 movaps	 xmm0, xmm1
  001a4	f2 0f 11 0f	 movsd	 QWORD PTR [edi], xmm1
  001a8	f2 0f 59 c1	 mulsd	 xmm0, xmm1
  001ac	50		 push	 eax
  001ad	03 c1		 add	 eax, ecx
  001af	50		 push	 eax
  001b0	f2 0f 5e c8	 divsd	 xmm1, xmm0
  001b4	f2 0f 2c c1	 cvttsd2si eax, xmm1
  001b8	50		 push	 eax
  001b9	68 00 00 00 00	 push	 OFFSET ??_C@_0O@OAEICDBC@?$KB?$LP?51?1?$CFd?8?$CFd?4?$CFd@
  001be	ff 75 14	 push	 DWORD PTR _strResult$[ebp]
  001c1	ff 15 00 00 00
	00		 call	 DWORD PTR __imp_?Format@?$CStringT@DV?$StrTraitMFC_DLL@DV?$ChTraitsCRT@D@ATL@@@@@ATL@@QAAXPBDZZ
  001c7	83 c4 14	 add	 esp, 20			; 00000014H

; 720  : 	}
; 721  : 
; 722  : 	return cRet;

  001ca	eb 02		 jmp	 SHORT $LN19@GetDecimal
$LN16@GetDecimal:

; 716  : 		default:	return ' ';

  001cc	b3 20		 mov	 bl, 32			; 00000020H
$LN19@GetDecimal:

; 720  : 	}
; 721  : 
; 722  : 	return cRet;

  001ce	8d 4d 08	 lea	 ecx, DWORD PTR _strDecimalGB$[ebp]
  001d1	ff 15 00 00 00
	00		 call	 DWORD PTR __imp_??1?$CStringT@DV?$StrTraitMFC_DLL@DV?$ChTraitsCRT@D@ATL@@@@@ATL@@QAE@XZ
  001d7	8a c3		 mov	 al, bl

; 723  : }

  001d9	8b 4d f4	 mov	 ecx, DWORD PTR __$EHRec$[ebp]
  001dc	64 89 0d 00 00
	00 00		 mov	 DWORD PTR fs:0, ecx
  001e3	59		 pop	 ecx
  001e4	5f		 pop	 edi
  001e5	5e		 pop	 esi
  001e6	5b		 pop	 ebx
  001e7	8b e5		 mov	 esp, ebp
  001e9	5d		 pop	 ebp
  001ea	c3		 ret	 0
  001eb	90		 npad	 1
$LN27@GetDecimal:
  001ec	00 00 00 00	 DD	 $LN7@GetDecimal
  001f0	00 00 00 00	 DD	 $LN8@GetDecimal
  001f4	00 00 00 00	 DD	 $LN9@GetDecimal
  001f8	00 00 00 00	 DD	 $LN10@GetDecimal
  001fc	00 00 00 00	 DD	 $LN11@GetDecimal
  00200	00 00 00 00	 DD	 $LN12@GetDecimal
  00204	00 00 00 00	 DD	 $LN16@GetDecimal
  00208	00 00 00 00	 DD	 $LN16@GetDecimal
  0020c	00 00 00 00	 DD	 $LN13@GetDecimal
  00210	00 00 00 00	 DD	 $LN14@GetDecimal
  00214	00 00 00 00	 DD	 $LN15@GetDecimal
_TEXT	ENDS
;	COMDAT text$x
text$x	SEGMENT
__unwindfunclet$?GetDecimalRate@CDataConverter@@SADV?$CStringT@DV?$StrTraitMFC_DLL@DV?$ChTraitsCRT@D@ATL@@@@@ATL@@AAHAANAAV23@@Z$0:
  00000	8d 4d 08	 lea	 ecx, DWORD PTR _strDecimalGB$[ebp]
  00003	ff 25 00 00 00
	00		 jmp	 DWORD PTR __imp_??1?$CStringT@DV?$StrTraitMFC_DLL@DV?$ChTraitsCRT@D@ATL@@@@@ATL@@QAE@XZ
  00009	cc		 int	 3
  0000a	cc		 int	 3
  0000b	cc		 int	 3
  0000c	cc		 int	 3
  0000d	cc		 int	 3
__ehhandler$?GetDecimalRate@CDataConverter@@SADV?$CStringT@DV?$StrTraitMFC_DLL@DV?$ChTraitsCRT@D@ATL@@@@@ATL@@AAHAANAAV23@@Z:
  0000e	90		 npad	 1
  0000f	90		 npad	 1
  00010	8b 54 24 08	 mov	 edx, DWORD PTR [esp+8]
  00014	8d 42 0c	 lea	 eax, DWORD PTR [edx+12]
  00017	8b 4a f0	 mov	 ecx, DWORD PTR [edx-16]
  0001a	33 c8		 xor	 ecx, eax
  0001c	e8 00 00 00 00	 call	 @__security_check_cookie@4
  00021	b8 00 00 00 00	 mov	 eax, OFFSET __ehfuncinfo$?GetDecimalRate@CDataConverter@@SADV?$CStringT@DV?$StrTraitMFC_DLL@DV?$ChTraitsCRT@D@ATL@@@@@ATL@@AAHAANAAV23@@Z
  00026	e9 00 00 00 00	 jmp	 ___CxxFrameHandler3
text$x	ENDS
?GetDecimalRate@CDataConverter@@SADV?$CStringT@DV?$StrTraitMFC_DLL@DV?$ChTraitsCRT@D@ATL@@@@@ATL@@AAHAANAAV23@@Z ENDP ; CDataConverter::GetDecimalRate
; Function compile flags: /Ogtp
; File D:\git\src\IBK\IBK_DRFN\ProjSrc\SrcDrfn\DrCommon\PartnerMng\DataConverter.cpp
; File C:\Program Files (x86)\Microsoft Visual Studio\2019\Community\VC\Tools\MSVC\14.29.30133\atlmfc\include\atlsimpstr.h
; File D:\git\src\IBK\IBK_DRFN\ProjSrc\SrcDrfn\DrCommon\PartnerMng\DataConverter.cpp
; File C:\Program Files (x86)\Microsoft Visual Studio\2019\Community\VC\Tools\MSVC\14.29.30133\atlmfc\include\atlsimpstr.h
; File D:\git\src\IBK\IBK_DRFN\ProjSrc\SrcDrfn\DrCommon\PartnerMng\DataConverter.cpp
;	COMDAT ?TbondPrcLToF@CDataConverter@@SAHDHNAAV?$CStringT@DV?$StrTraitMFC_DLL@DV?$ChTraitsCRT@D@ATL@@@@@ATL@@@Z
_TEXT	SEGMENT
tv198 = -28						; size = 8
_dRetData$ = -28					; size = 8
$T2 = -24						; size = 4
$T3 = -24						; size = 4
_strFvalue$ = -20					; size = 4
_strHvalue$ = -16					; size = 4
__$EHRec$ = -12						; size = 12
_strInData$ = 8						; size = 4
_cType$ = 8						; size = 1
_nPcnt$ = 12						; size = 4
_dRate$ = 16						; size = 8
_strData$ = 24						; size = 4
?TbondPrcLToF@CDataConverter@@SAHDHNAAV?$CStringT@DV?$StrTraitMFC_DLL@DV?$ChTraitsCRT@D@ATL@@@@@ATL@@@Z PROC ; CDataConverter::TbondPrcLToF, COMDAT

; 602  : {

  00000	55		 push	 ebp
  00001	8b ec		 mov	 ebp, esp
  00003	6a ff		 push	 -1
  00005	68 00 00 00 00	 push	 __ehhandler$?TbondPrcLToF@CDataConverter@@SAHDHNAAV?$CStringT@DV?$StrTraitMFC_DLL@DV?$ChTraitsCRT@D@ATL@@@@@ATL@@@Z
  0000a	64 a1 00 00 00
	00		 mov	 eax, DWORD PTR fs:0
  00010	50		 push	 eax
  00011	83 ec 10	 sub	 esp, 16			; 00000010H
  00014	56		 push	 esi
  00015	57		 push	 edi
  00016	a1 00 00 00 00	 mov	 eax, DWORD PTR ___security_cookie
  0001b	33 c5		 xor	 eax, ebp
  0001d	50		 push	 eax
  0001e	8d 45 f4	 lea	 eax, DWORD PTR __$EHRec$[ebp]
  00021	64 a3 00 00 00
	00		 mov	 DWORD PTR fs:0, eax

; 603  : 	if (cType <= '9')

  00027	80 7d 08 39	 cmp	 BYTE PTR _cType$[ebp], 57 ; 00000039H
  0002b	7f 13		 jg	 SHORT $LN2@TbondPrcLT

; 604  : 		return FALSE;

  0002d	33 c0		 xor	 eax, eax

; 635  : }

  0002f	8b 4d f4	 mov	 ecx, DWORD PTR __$EHRec$[ebp]
  00032	64 89 0d 00 00
	00 00		 mov	 DWORD PTR fs:0, ecx
  00039	59		 pop	 ecx
  0003a	5f		 pop	 edi
  0003b	5e		 pop	 esi
  0003c	8b e5		 mov	 esp, ebp
  0003e	5d		 pop	 ebp
  0003f	c3		 ret	 0
$LN2@TbondPrcLT:

; 606  : 	CString strInData = strData;

  00040	8b 7d 18	 mov	 edi, DWORD PTR _strData$[ebp]
  00043	8d 4d 08	 lea	 ecx, DWORD PTR _strInData$[ebp]
  00046	57		 push	 edi
  00047	ff 15 00 00 00
	00		 call	 DWORD PTR __imp_??0?$CStringT@DV?$StrTraitMFC_DLL@DV?$ChTraitsCRT@D@ATL@@@@@ATL@@QAE@ABV01@@Z
; File C:\Program Files (x86)\Microsoft Visual Studio\2019\Community\VC\Tools\MSVC\14.29.30133\atlmfc\include\atlsimpstr.h

; 519  : 		return( GetData()->nDataLength );

  0004d	8b 07		 mov	 eax, DWORD PTR [edi]
; File D:\git\src\IBK\IBK_DRFN\ProjSrc\SrcDrfn\DrCommon\PartnerMng\DataConverter.cpp

; 606  : 	CString strInData = strData;

  0004f	c7 45 fc 00 00
	00 00		 mov	 DWORD PTR __$EHRec$[ebp+8], 0

; 607  : 	if (strData.GetLength() <= 0)

  00056	83 78 f4 00	 cmp	 DWORD PTR [eax-12], 0
  0005a	7f 12		 jg	 SHORT $LN3@TbondPrcLT

; 608  : 	{
; 609  : 		strData = _T("");

  0005c	68 00 00 00 00	 push	 OFFSET ??_C@_00CNPNBAHC@@
  00061	8b cf		 mov	 ecx, edi
  00063	ff 15 00 00 00
	00		 call	 DWORD PTR __imp_??4?$CStringT@DV?$StrTraitMFC_DLL@DV?$ChTraitsCRT@D@ATL@@@@@ATL@@QAEAAV01@PBD@Z
  00069	e9 dd 00 00 00	 jmp	 $LN11@TbondPrcLT
$LN3@TbondPrcLT:

; 610  : 		return TRUE;
; 611  : 	}
; 612  : 
; 613  : //	 ,  	) 9999'99.9
; 614  : //	int nFcnt, nHcnt;
; 615  : 	CString strFvalue, strHvalue;

  0006e	8d 4d ec	 lea	 ecx, DWORD PTR _strFvalue$[ebp]
  00071	ff 15 00 00 00
	00		 call	 DWORD PTR __imp_??0?$CStringT@DV?$StrTraitMFC_DLL@DV?$ChTraitsCRT@D@ATL@@@@@ATL@@QAE@XZ
  00077	8d 4d f0	 lea	 ecx, DWORD PTR _strHvalue$[ebp]
  0007a	ff 15 00 00 00
	00		 call	 DWORD PTR __imp_??0?$CStringT@DV?$StrTraitMFC_DLL@DV?$ChTraitsCRT@D@ATL@@@@@ATL@@QAE@XZ

; 616  : 
; 617  : 	int nFind = strInData.Find(_T("`"));

  00080	6a 00		 push	 0
  00082	68 00 00 00 00	 push	 OFFSET ??_C@_01NLNLIGKH@?$GA@
  00087	8d 4d 08	 lea	 ecx, DWORD PTR _strInData$[ebp]
  0008a	c6 45 fc 02	 mov	 BYTE PTR __$EHRec$[ebp+8], 2
  0008e	ff 15 00 00 00
	00		 call	 DWORD PTR __imp_?Find@?$CStringT@DV?$StrTraitMFC_DLL@DV?$ChTraitsCRT@D@ATL@@@@@ATL@@QBEHPBDH@Z
  00094	8b f0		 mov	 esi, eax

; 618  : 	if (nFind < 0)

  00096	85 f6		 test	 esi, esi
  00098	79 12		 jns	 SHORT $LN4@TbondPrcLT

; 619  : 		nFind = strInData.Find(_T("'"));

  0009a	6a 00		 push	 0
  0009c	68 00 00 00 00	 push	 OFFSET ??_C@_01GEODFPGF@?8@
  000a1	8d 4d 08	 lea	 ecx, DWORD PTR _strInData$[ebp]
  000a4	ff 15 00 00 00
	00		 call	 DWORD PTR __imp_?Find@?$CStringT@DV?$StrTraitMFC_DLL@DV?$ChTraitsCRT@D@ATL@@@@@ATL@@QBEHPBDH@Z
  000aa	8b f0		 mov	 esi, eax
$LN4@TbondPrcLT:

; 620  : 
; 621  : 	strFvalue = strInData.Left(nFind);

  000ac	56		 push	 esi
  000ad	8d 45 e8	 lea	 eax, DWORD PTR $T3[ebp]
  000b0	50		 push	 eax
  000b1	8d 4d 08	 lea	 ecx, DWORD PTR _strInData$[ebp]
  000b4	ff 15 00 00 00
	00		 call	 DWORD PTR __imp_?Left@?$CStringT@DV?$StrTraitMFC_DLL@DV?$ChTraitsCRT@D@ATL@@@@@ATL@@QBE?AV12@H@Z
  000ba	50		 push	 eax
  000bb	8d 4d ec	 lea	 ecx, DWORD PTR _strFvalue$[ebp]
  000be	c6 45 fc 03	 mov	 BYTE PTR __$EHRec$[ebp+8], 3
  000c2	ff 15 00 00 00
	00		 call	 DWORD PTR __imp_??4?$CStringT@DV?$StrTraitMFC_DLL@DV?$ChTraitsCRT@D@ATL@@@@@ATL@@QAEAAV01@ABV01@@Z
  000c8	8d 4d e8	 lea	 ecx, DWORD PTR $T3[ebp]
  000cb	c6 45 fc 02	 mov	 BYTE PTR __$EHRec$[ebp+8], 2
  000cf	ff 15 00 00 00
	00		 call	 DWORD PTR __imp_??1?$CStringT@DV?$StrTraitMFC_DLL@DV?$ChTraitsCRT@D@ATL@@@@@ATL@@QAE@XZ

; 622  : 	strHvalue = strInData.Mid(nFind+1);

  000d5	8d 46 01	 lea	 eax, DWORD PTR [esi+1]
  000d8	50		 push	 eax
  000d9	8d 45 e8	 lea	 eax, DWORD PTR $T2[ebp]
  000dc	50		 push	 eax
  000dd	8d 4d 08	 lea	 ecx, DWORD PTR _strInData$[ebp]
  000e0	ff 15 00 00 00
	00		 call	 DWORD PTR __imp_?Mid@?$CStringT@DV?$StrTraitMFC_DLL@DV?$ChTraitsCRT@D@ATL@@@@@ATL@@QBE?AV12@H@Z
  000e6	50		 push	 eax
  000e7	8d 4d f0	 lea	 ecx, DWORD PTR _strHvalue$[ebp]
  000ea	c6 45 fc 04	 mov	 BYTE PTR __$EHRec$[ebp+8], 4
  000ee	ff 15 00 00 00
	00		 call	 DWORD PTR __imp_??4?$CStringT@DV?$StrTraitMFC_DLL@DV?$ChTraitsCRT@D@ATL@@@@@ATL@@QAEAAV01@ABV01@@Z
  000f4	8d 4d e8	 lea	 ecx, DWORD PTR $T2[ebp]
  000f7	c6 45 fc 02	 mov	 BYTE PTR __$EHRec$[ebp+8], 2
  000fb	ff 15 00 00 00
	00		 call	 DWORD PTR __imp_??1?$CStringT@DV?$StrTraitMFC_DLL@DV?$ChTraitsCRT@D@ATL@@@@@ATL@@QAE@XZ

; 631  : 	double dRetData = (atof(strFvalue) + atof(strHvalue) * dRate);// * pow(10, nPcnt);

  00101	ff 75 f0	 push	 DWORD PTR _strHvalue$[ebp]
; File C:\Program Files (x86)\Microsoft Visual Studio\2019\Community\VC\Tools\MSVC\14.29.30133\atlmfc\include\atlsimpstr.h

; 377  : 		return( m_pszData );

  00104	8b 75 ec	 mov	 esi, DWORD PTR _strFvalue$[ebp]
; File D:\git\src\IBK\IBK_DRFN\ProjSrc\SrcDrfn\DrCommon\PartnerMng\DataConverter.cpp

; 631  : 	double dRetData = (atof(strFvalue) + atof(strHvalue) * dRate);// * pow(10, nPcnt);

  00107	ff 15 00 00 00
	00		 call	 DWORD PTR __imp__atof
  0010d	dc 4d 10	 fmul	 QWORD PTR _dRate$[ebp]
  00110	56		 push	 esi
  00111	dd 5d e4	 fstp	 QWORD PTR tv198[ebp]
  00114	ff 15 00 00 00
	00		 call	 DWORD PTR __imp__atof
  0011a	dc 45 e4	 fadd	 QWORD PTR tv198[ebp]
  0011d	dd 5d e4	 fstp	 QWORD PTR _dRetData$[ebp]

; 632  : 	strData.Format(_T("%f"), dRetData);

  00120	f2 0f 10 45 e4	 movsd	 xmm0, QWORD PTR _dRetData$[ebp]
  00125	f2 0f 11 04 24	 movsd	 QWORD PTR [esp], xmm0
  0012a	68 00 00 00 00	 push	 OFFSET ??_C@_02NJPGOMH@?$CFf@
  0012f	57		 push	 edi
  00130	ff 15 00 00 00
	00		 call	 DWORD PTR __imp_?Format@?$CStringT@DV?$StrTraitMFC_DLL@DV?$ChTraitsCRT@D@ATL@@@@@ATL@@QAAXPBDZZ
  00136	83 c4 10	 add	 esp, 16			; 00000010H

; 633  : 
; 634  : 	return TRUE;

  00139	8d 4d f0	 lea	 ecx, DWORD PTR _strHvalue$[ebp]
  0013c	ff 15 00 00 00
	00		 call	 DWORD PTR __imp_??1?$CStringT@DV?$StrTraitMFC_DLL@DV?$ChTraitsCRT@D@ATL@@@@@ATL@@QAE@XZ
  00142	8d 4d ec	 lea	 ecx, DWORD PTR _strFvalue$[ebp]
  00145	ff 15 00 00 00
	00		 call	 DWORD PTR __imp_??1?$CStringT@DV?$StrTraitMFC_DLL@DV?$ChTraitsCRT@D@ATL@@@@@ATL@@QAE@XZ
$LN11@TbondPrcLT:
  0014b	8d 4d 08	 lea	 ecx, DWORD PTR _strInData$[ebp]
  0014e	ff 15 00 00 00
	00		 call	 DWORD PTR __imp_??1?$CStringT@DV?$StrTraitMFC_DLL@DV?$ChTraitsCRT@D@ATL@@@@@ATL@@QAE@XZ
  00154	b8 01 00 00 00	 mov	 eax, 1

; 635  : }

  00159	8b 4d f4	 mov	 ecx, DWORD PTR __$EHRec$[ebp]
  0015c	64 89 0d 00 00
	00 00		 mov	 DWORD PTR fs:0, ecx
  00163	59		 pop	 ecx
  00164	5f		 pop	 edi
  00165	5e		 pop	 esi
  00166	8b e5		 mov	 esp, ebp
  00168	5d		 pop	 ebp
  00169	c3		 ret	 0
_TEXT	ENDS
;	COMDAT text$x
text$x	SEGMENT
__unwindfunclet$?TbondPrcLToF@CDataConverter@@SAHDHNAAV?$CStringT@DV?$StrTraitMFC_DLL@DV?$ChTraitsCRT@D@ATL@@@@@ATL@@@Z$0:
  00000	8d 4d 08	 lea	 ecx, DWORD PTR _strInData$[ebp]
  00003	ff 25 00 00 00
	00		 jmp	 DWORD PTR __imp_??1?$CStringT@DV?$StrTraitMFC_DLL@DV?$ChTraitsCRT@D@ATL@@@@@ATL@@QAE@XZ
__unwindfunclet$?TbondPrcLToF@CDataConverter@@SAHDHNAAV?$CStringT@DV?$StrTraitMFC_DLL@DV?$ChTraitsCRT@D@ATL@@@@@ATL@@@Z$1:
  00009	8d 4d ec	 lea	 ecx, DWORD PTR _strFvalue$[ebp]
  0000c	ff 25 00 00 00
	00		 jmp	 DWORD PTR __imp_??1?$CStringT@DV?$StrTraitMFC_DLL@DV?$ChTraitsCRT@D@ATL@@@@@ATL@@QAE@XZ
__unwindfunclet$?TbondPrcLToF@CDataConverter@@SAHDHNAAV?$CStringT@DV?$StrTraitMFC_DLL@DV?$ChTraitsCRT@D@ATL@@@@@ATL@@@Z$2:
  00012	8d 4d f0	 lea	 ecx, DWORD PTR _strHvalue$[ebp]
  00015	ff 25 00 00 00
	00		 jmp	 DWORD PTR __imp_??1?$CStringT@DV?$StrTraitMFC_DLL@DV?$ChTraitsCRT@D@ATL@@@@@ATL@@QAE@XZ
__unwindfunclet$?TbondPrcLToF@CDataConverter@@SAHDHNAAV?$CStringT@DV?$StrTraitMFC_DLL@DV?$ChTraitsCRT@D@ATL@@@@@ATL@@@Z$3:
  0001b	8d 4d e8	 lea	 ecx, DWORD PTR $T3[ebp]
  0001e	ff 25 00 00 00
	00		 jmp	 DWORD PTR __imp_??1?$CStringT@DV?$StrTraitMFC_DLL@DV?$ChTraitsCRT@D@ATL@@@@@ATL@@QAE@XZ
__unwindfunclet$?TbondPrcLToF@CDataConverter@@SAHDHNAAV?$CStringT@DV?$StrTraitMFC_DLL@DV?$ChTraitsCRT@D@ATL@@@@@ATL@@@Z$4:
  00024	8d 4d e8	 lea	 ecx, DWORD PTR $T2[ebp]
  00027	ff 25 00 00 00
	00		 jmp	 DWORD PTR __imp_??1?$CStringT@DV?$StrTraitMFC_DLL@DV?$ChTraitsCRT@D@ATL@@@@@ATL@@QAE@XZ
  0002d	cc		 int	 3
  0002e	cc		 int	 3
  0002f	cc		 int	 3
  00030	cc		 int	 3
  00031	cc		 int	 3
__ehhandler$?TbondPrcLToF@CDataConverter@@SAHDHNAAV?$CStringT@DV?$StrTraitMFC_DLL@DV?$ChTraitsCRT@D@ATL@@@@@ATL@@@Z:
  00032	90		 npad	 1
  00033	90		 npad	 1
  00034	8b 54 24 08	 mov	 edx, DWORD PTR [esp+8]
  00038	8d 42 0c	 lea	 eax, DWORD PTR [edx+12]
  0003b	8b 4a e4	 mov	 ecx, DWORD PTR [edx-28]
  0003e	33 c8		 xor	 ecx, eax
  00040	e8 00 00 00 00	 call	 @__security_check_cookie@4
  00045	b8 00 00 00 00	 mov	 eax, OFFSET __ehfuncinfo$?TbondPrcLToF@CDataConverter@@SAHDHNAAV?$CStringT@DV?$StrTraitMFC_DLL@DV?$ChTraitsCRT@D@ATL@@@@@ATL@@@Z
  0004a	e9 00 00 00 00	 jmp	 ___CxxFrameHandler3
text$x	ENDS
?TbondPrcLToF@CDataConverter@@SAHDHNAAV?$CStringT@DV?$StrTraitMFC_DLL@DV?$ChTraitsCRT@D@ATL@@@@@ATL@@@Z ENDP ; CDataConverter::TbondPrcLToF
; Function compile flags: /Ogtp
; File D:\git\src\IBK\IBK_DRFN\ProjSrc\SrcDrfn\DrCommon\PartnerMng\DataConverter.cpp
;	COMDAT ?Parser2@CDataConverter@@SAHPADDAAV?$CStringT@DV?$StrTraitMFC_DLL@DV?$ChTraitsCRT@D@ATL@@@@@ATL@@@Z
_TEXT	SEGMENT
_strData$GSCopy$1$ = -1036				; size = 4
tv582 = -1032						; size = 4
_szData$ = -1028					; size = 1024
__$ArrayPad$ = -4					; size = 4
_pszBuff$ = 8						; size = 4
_cSep$ = 12						; size = 1
_strData$ = 16						; size = 4
?Parser2@CDataConverter@@SAHPADDAAV?$CStringT@DV?$StrTraitMFC_DLL@DV?$ChTraitsCRT@D@ATL@@@@@ATL@@@Z PROC ; CDataConverter::Parser2, COMDAT

; 571  : {

  00000	55		 push	 ebp
  00001	8b ec		 mov	 ebp, esp
  00003	81 ec 0c 04 00
	00		 sub	 esp, 1036		; 0000040cH
  00009	a1 00 00 00 00	 mov	 eax, DWORD PTR ___security_cookie
  0000e	33 c5		 xor	 eax, ebp
  00010	89 45 fc	 mov	 DWORD PTR __$ArrayPad$[ebp], eax
  00013	8b 45 10	 mov	 eax, DWORD PTR _strData$[ebp]

; 572  : 	strData.Empty();

  00016	8b c8		 mov	 ecx, eax
  00018	53		 push	 ebx
  00019	56		 push	 esi
  0001a	57		 push	 edi
  0001b	89 85 f4 fb ff
	ff		 mov	 DWORD PTR _strData$GSCopy$1$[ebp], eax
  00021	ff 15 00 00 00
	00		 call	 DWORD PTR __imp_?Empty@?$CSimpleStringT@D$00@ATL@@QAEXXZ

; 573  : 	int nDataIdx=0;
; 574  : 	char szData[1024];
; 575  : 	int nMaxSize = sizeof(szData);
; 576  : 
; 577  : 	memset(szData, 0x00, sizeof(szData));

  00027	68 00 04 00 00	 push	 1024			; 00000400H
  0002c	33 f6		 xor	 esi, esi
  0002e	8d 85 fc fb ff
	ff		 lea	 eax, DWORD PTR _szData$[ebp]
  00034	56		 push	 esi
  00035	50		 push	 eax
  00036	e8 00 00 00 00	 call	 _memset
  0003b	8b 45 08	 mov	 eax, DWORD PTR _pszBuff$[ebp]
  0003e	8d bd fc fb ff
	ff		 lea	 edi, DWORD PTR _szData$[ebp]
  00044	8d 9d fd fb ff
	ff		 lea	 ebx, DWORD PTR _szData$[ebp+1]
  0004a	ba fe ff ff ff	 mov	 edx, -2			; fffffffeH
  0004f	83 c4 0c	 add	 esp, 12			; 0000000cH
  00052	2b f8		 sub	 edi, eax
  00054	2b d8		 sub	 ebx, eax
  00056	2b d0		 sub	 edx, eax
  00058	89 95 f8 fb ff
	ff		 mov	 DWORD PTR tv582[ebp], edx
  0005e	8d 48 02	 lea	 ecx, DWORD PTR [eax+2]
  00061	8a 55 0c	 mov	 dl, BYTE PTR _cSep$[ebp]
$LL4@Parser2:

; 580  : 	{
; 581  : 		if (pszBuff[nIndex] == 0x00)

  00064	8a 41 fe	 mov	 al, BYTE PTR [ecx-2]
  00067	84 c0		 test	 al, al
  00069	74 5a		 je	 SHORT $LN19@Parser2

; 582  : 			break;
; 583  : 
; 584  : 		if (pszBuff[nIndex] == cSep)

  0006b	3a c2		 cmp	 al, dl
  0006d	74 56		 je	 SHORT $LN19@Parser2

; 585  : 			break;
; 586  : 
; 587  : 		szData[nDataIdx++] = pszBuff[nIndex];

  0006f	88 84 35 fc fb
	ff ff		 mov	 BYTE PTR _szData$[ebp+esi], al
  00076	8a 41 ff	 mov	 al, BYTE PTR [ecx-1]
  00079	84 c0		 test	 al, al
  0007b	74 47		 je	 SHORT $LN13@Parser2

; 582  : 			break;
; 583  : 
; 584  : 		if (pszBuff[nIndex] == cSep)

  0007d	3a c2		 cmp	 al, dl
  0007f	74 43		 je	 SHORT $LN13@Parser2

; 585  : 			break;
; 586  : 
; 587  : 		szData[nDataIdx++] = pszBuff[nIndex];

  00081	88 84 35 fd fb
	ff ff		 mov	 BYTE PTR _szData$[ebp+esi+1], al
  00088	8a 01		 mov	 al, BYTE PTR [ecx]
  0008a	84 c0		 test	 al, al
  0008c	74 31		 je	 SHORT $LN15@Parser2

; 582  : 			break;
; 583  : 
; 584  : 		if (pszBuff[nIndex] == cSep)

  0008e	3a c2		 cmp	 al, dl
  00090	74 2d		 je	 SHORT $LN15@Parser2

; 585  : 			break;
; 586  : 
; 587  : 		szData[nDataIdx++] = pszBuff[nIndex];

  00092	88 04 0f	 mov	 BYTE PTR [edi+ecx], al
  00095	8a 41 01	 mov	 al, BYTE PTR [ecx+1]
  00098	84 c0		 test	 al, al
  0009a	74 1e		 je	 SHORT $LN17@Parser2

; 582  : 			break;
; 583  : 
; 584  : 		if (pszBuff[nIndex] == cSep)

  0009c	3a c2		 cmp	 al, dl
  0009e	74 1a		 je	 SHORT $LN17@Parser2

; 585  : 			break;
; 586  : 
; 587  : 		szData[nDataIdx++] = pszBuff[nIndex];

  000a0	88 04 0b	 mov	 BYTE PTR [ebx+ecx], al
  000a3	83 c6 04	 add	 esi, 4
  000a6	8b 85 f8 fb ff
	ff		 mov	 eax, DWORD PTR tv582[ebp]
  000ac	83 c1 04	 add	 ecx, 4
  000af	03 c1		 add	 eax, ecx
  000b1	3d 00 04 00 00	 cmp	 eax, 1024		; 00000400H
  000b6	7c ac		 jl	 SHORT $LL4@Parser2

; 578  : 
; 579  : 	for (int nIndex=0; nIndex<nMaxSize; nIndex++)

  000b8	eb 0b		 jmp	 SHORT $LN19@Parser2
$LN17@Parser2:

; 588  : 	}
; 589  : 
; 590  : 	strData.Format(_T("%s"), szData);

  000ba	83 c6 03	 add	 esi, 3
  000bd	eb 06		 jmp	 SHORT $LN19@Parser2
$LN15@Parser2:
  000bf	83 c6 02	 add	 esi, 2
  000c2	eb 01		 jmp	 SHORT $LN19@Parser2
$LN13@Parser2:
  000c4	46		 inc	 esi
$LN19@Parser2:
  000c5	8d 85 fc fb ff
	ff		 lea	 eax, DWORD PTR _szData$[ebp]
  000cb	50		 push	 eax
  000cc	68 00 00 00 00	 push	 OFFSET ??_C@_02DKCKIIND@?$CFs@
  000d1	ff b5 f4 fb ff
	ff		 push	 DWORD PTR _strData$GSCopy$1$[ebp]
  000d7	ff 15 00 00 00
	00		 call	 DWORD PTR __imp_?Format@?$CStringT@DV?$StrTraitMFC_DLL@DV?$ChTraitsCRT@D@ATL@@@@@ATL@@QAAXPBDZZ

; 591  : 	return nDataIdx;
; 592  : }

  000dd	8b 4d fc	 mov	 ecx, DWORD PTR __$ArrayPad$[ebp]
  000e0	83 c4 0c	 add	 esp, 12			; 0000000cH
  000e3	8b c6		 mov	 eax, esi
  000e5	33 cd		 xor	 ecx, ebp
  000e7	5f		 pop	 edi
  000e8	5e		 pop	 esi
  000e9	5b		 pop	 ebx
  000ea	e8 00 00 00 00	 call	 @__security_check_cookie@4
  000ef	8b e5		 mov	 esp, ebp
  000f1	5d		 pop	 ebp
  000f2	c3		 ret	 0
?Parser2@CDataConverter@@SAHPADDAAV?$CStringT@DV?$StrTraitMFC_DLL@DV?$ChTraitsCRT@D@ATL@@@@@ATL@@@Z ENDP ; CDataConverter::Parser2
_TEXT	ENDS
; Function compile flags: /Ogtp
; File D:\git\src\IBK\IBK_DRFN\ProjSrc\SrcDrfn\DrCommon\PartnerMng\DataConverter.cpp
;	COMDAT ?Get_PercentData@CDataConverter@@SA?AV?$CStringT@DV?$StrTraitMFC_DLL@DV?$ChTraitsCRT@D@ATL@@@@@ATL@@PADNH@Z
_TEXT	SEGMENT
_dX$ = -28						; size = 8
_strDa1$ = -20						; size = 4
$T2 = -16						; size = 4
__$EHRec$ = -12						; size = 12
___$ReturnUdt$ = 8					; size = 4
_szSrc$ = 12						; size = 4
_dDenom$ = 16						; size = 8
_nSize$ = 24						; size = 4
?Get_PercentData@CDataConverter@@SA?AV?$CStringT@DV?$StrTraitMFC_DLL@DV?$ChTraitsCRT@D@ATL@@@@@ATL@@PADNH@Z PROC ; CDataConverter::Get_PercentData, COMDAT

; 528  : {

  00000	55		 push	 ebp
  00001	8b ec		 mov	 ebp, esp
  00003	6a ff		 push	 -1
  00005	68 00 00 00 00	 push	 __ehhandler$?Get_PercentData@CDataConverter@@SA?AV?$CStringT@DV?$StrTraitMFC_DLL@DV?$ChTraitsCRT@D@ATL@@@@@ATL@@PADNH@Z
  0000a	64 a1 00 00 00
	00		 mov	 eax, DWORD PTR fs:0
  00010	50		 push	 eax
  00011	83 ec 10	 sub	 esp, 16			; 00000010H
  00014	53		 push	 ebx
  00015	a1 00 00 00 00	 mov	 eax, DWORD PTR ___security_cookie
  0001a	33 c5		 xor	 eax, ebp
  0001c	50		 push	 eax
  0001d	8d 45 f4	 lea	 eax, DWORD PTR __$EHRec$[ebp]
  00020	64 a3 00 00 00
	00		 mov	 DWORD PTR fs:0, eax

; 529  : 	CString strData(szSrc, nSize);

  00026	ff 75 18	 push	 DWORD PTR _nSize$[ebp]
  00029	c7 45 f0 00 00
	00 00		 mov	 DWORD PTR $T2[ebp], 0
  00030	ff 75 0c	 push	 DWORD PTR _szSrc$[ebp]
  00033	8b 5d 08	 mov	 ebx, DWORD PTR ___$ReturnUdt$[ebp]
  00036	8b cb		 mov	 ecx, ebx
  00038	c7 45 fc 00 00
	00 00		 mov	 DWORD PTR __$EHRec$[ebp+8], 0
  0003f	ff 15 00 00 00
	00		 call	 DWORD PTR __imp_??0?$CStringT@DV?$StrTraitMFC_DLL@DV?$ChTraitsCRT@D@ATL@@@@@ATL@@QAE@PBDH@Z

; 530  : 	CString strDa1(szSrc,nSize);
; 531  : 	double dX = atof(strData);
; 532  : 	
; 533  : 	strData.Format("%10.2f", CALC_CHGRATE(dX,dDenom)*100);
; 534  : 	//strData.Remove('.');
; 535  : 	return strData;

  00045	ff 75 18	 push	 DWORD PTR _nSize$[ebp]
  00048	8d 4d ec	 lea	 ecx, DWORD PTR _strDa1$[ebp]
  0004b	c7 45 fc 00 00
	00 00		 mov	 DWORD PTR __$EHRec$[ebp+8], 0
  00052	ff 75 0c	 push	 DWORD PTR _szSrc$[ebp]
  00055	c7 45 f0 01 00
	00 00		 mov	 DWORD PTR $T2[ebp], 1
  0005c	ff 15 00 00 00
	00		 call	 DWORD PTR __imp_??0?$CStringT@DV?$StrTraitMFC_DLL@DV?$ChTraitsCRT@D@ATL@@@@@ATL@@QAE@PBDH@Z
  00062	ff 33		 push	 DWORD PTR [ebx]
  00064	c7 45 fc 01 00
	00 00		 mov	 DWORD PTR __$EHRec$[ebp+8], 1
  0006b	ff 15 00 00 00
	00		 call	 DWORD PTR __imp__atof
  00071	dd 5d e4	 fstp	 QWORD PTR _dX$[ebp]
  00074	f2 0f 10 55 e4	 movsd	 xmm2, QWORD PTR _dX$[ebp]
  00079	f2 0f 5c 55 10	 subsd	 xmm2, QWORD PTR _dDenom$[ebp]
  0007e	51		 push	 ecx
  0007f	f2 0f 59 15 00
	00 00 00	 mulsd	 xmm2, QWORD PTR __real@4059000000000000
  00087	f2 0f 5e 55 10	 divsd	 xmm2, QWORD PTR _dDenom$[ebp]
  0008c	f2 0f 59 15 00
	00 00 00	 mulsd	 xmm2, QWORD PTR __real@4059000000000000
  00094	f2 0f 11 14 24	 movsd	 QWORD PTR [esp], xmm2
  00099	68 00 00 00 00	 push	 OFFSET ??_C@_06MFLEHPOG@?$CF10?42f@
  0009e	53		 push	 ebx
  0009f	ff 15 00 00 00
	00		 call	 DWORD PTR __imp_?Format@?$CStringT@DV?$StrTraitMFC_DLL@DV?$ChTraitsCRT@D@ATL@@@@@ATL@@QAAXPBDZZ
  000a5	83 c4 10	 add	 esp, 16			; 00000010H
  000a8	8d 4d ec	 lea	 ecx, DWORD PTR _strDa1$[ebp]
  000ab	ff 15 00 00 00
	00		 call	 DWORD PTR __imp_??1?$CStringT@DV?$StrTraitMFC_DLL@DV?$ChTraitsCRT@D@ATL@@@@@ATL@@QAE@XZ
  000b1	8b c3		 mov	 eax, ebx

; 536  : }

  000b3	8b 4d f4	 mov	 ecx, DWORD PTR __$EHRec$[ebp]
  000b6	64 89 0d 00 00
	00 00		 mov	 DWORD PTR fs:0, ecx
  000bd	59		 pop	 ecx
  000be	5b		 pop	 ebx
  000bf	8b e5		 mov	 esp, ebp
  000c1	5d		 pop	 ebp
  000c2	c3		 ret	 0
_TEXT	ENDS
;	COMDAT text$x
text$x	SEGMENT
__unwindfunclet$?Get_PercentData@CDataConverter@@SA?AV?$CStringT@DV?$StrTraitMFC_DLL@DV?$ChTraitsCRT@D@ATL@@@@@ATL@@PADNH@Z$0:
  00000	8b 45 f0	 mov	 eax, DWORD PTR $T2[ebp]
  00003	83 e0 01	 and	 eax, 1
  00006	0f 84 0d 00 00
	00		 je	 $LN4@Get_Percen
  0000c	83 65 f0 fe	 and	 DWORD PTR $T2[ebp], -2	; fffffffeH
  00010	8b 4d 08	 mov	 ecx, DWORD PTR ___$ReturnUdt$[ebp]
  00013	ff 25 00 00 00
	00		 jmp	 DWORD PTR __imp_??1?$CStringT@DV?$StrTraitMFC_DLL@DV?$ChTraitsCRT@D@ATL@@@@@ATL@@QAE@XZ
$LN4@Get_Percen:
  00019	c3		 ret	 0
__unwindfunclet$?Get_PercentData@CDataConverter@@SA?AV?$CStringT@DV?$StrTraitMFC_DLL@DV?$ChTraitsCRT@D@ATL@@@@@ATL@@PADNH@Z$1:
  0001a	8d 4d ec	 lea	 ecx, DWORD PTR _strDa1$[ebp]
  0001d	ff 25 00 00 00
	00		 jmp	 DWORD PTR __imp_??1?$CStringT@DV?$StrTraitMFC_DLL@DV?$ChTraitsCRT@D@ATL@@@@@ATL@@QAE@XZ
  00023	cc		 int	 3
  00024	cc		 int	 3
  00025	cc		 int	 3
  00026	cc		 int	 3
  00027	cc		 int	 3
__ehhandler$?Get_PercentData@CDataConverter@@SA?AV?$CStringT@DV?$StrTraitMFC_DLL@DV?$ChTraitsCRT@D@ATL@@@@@ATL@@PADNH@Z:
  00028	90		 npad	 1
  00029	90		 npad	 1
  0002a	8b 54 24 08	 mov	 edx, DWORD PTR [esp+8]
  0002e	8d 42 0c	 lea	 eax, DWORD PTR [edx+12]
  00031	8b 4a e8	 mov	 ecx, DWORD PTR [edx-24]
  00034	33 c8		 xor	 ecx, eax
  00036	e8 00 00 00 00	 call	 @__security_check_cookie@4
  0003b	b8 00 00 00 00	 mov	 eax, OFFSET __ehfuncinfo$?Get_PercentData@CDataConverter@@SA?AV?$CStringT@DV?$StrTraitMFC_DLL@DV?$ChTraitsCRT@D@ATL@@@@@ATL@@PADNH@Z
  00040	e9 00 00 00 00	 jmp	 ___CxxFrameHandler3
text$x	ENDS
?Get_PercentData@CDataConverter@@SA?AV?$CStringT@DV?$StrTraitMFC_DLL@DV?$ChTraitsCRT@D@ATL@@@@@ATL@@PADNH@Z ENDP ; CDataConverter::Get_PercentData
; Function compile flags: /Ogtp
; File D:\git\src\IBK\IBK_DRFN\ProjSrc\SrcDrfn\DrCommon\PartnerMng\DataConverter.cpp
; File C:\Program Files (x86)\Microsoft Visual Studio\2019\Community\VC\Tools\MSVC\14.29.30133\atlmfc\include\atlsimpstr.h
; File D:\git\src\IBK\IBK_DRFN\ProjSrc\SrcDrfn\DrCommon\PartnerMng\DataConverter.cpp
; File C:\Program Files (x86)\Microsoft Visual Studio\2019\Community\VC\Tools\MSVC\14.29.30133\atlmfc\include\atlsimpstr.h
; File D:\git\src\IBK\IBK_DRFN\ProjSrc\SrcDrfn\DrCommon\PartnerMng\DataConverter.cpp
;	COMDAT ?Parser@CDataConverter@@SA?AV?$CStringT@DV?$StrTraitMFC_DLL@DV?$ChTraitsCRT@D@ATL@@@@@ATL@@AAV23@V23@@Z
_TEXT	SEGMENT
$T2 = -24						; size = 4
$T3 = -24						; size = 4
_strData$ = -20						; size = 4
_strTemp$ = -16						; size = 4
__$EHRec$ = -12						; size = 12
___$ReturnUdt$ = 8					; size = 4
_strSrc$ = 12						; size = 4
_strSub$ = 16						; size = 4
?Parser@CDataConverter@@SA?AV?$CStringT@DV?$StrTraitMFC_DLL@DV?$ChTraitsCRT@D@ATL@@@@@ATL@@AAV23@V23@@Z PROC ; CDataConverter::Parser, COMDAT

; 495  : {

  00000	55		 push	 ebp
  00001	8b ec		 mov	 ebp, esp
  00003	6a ff		 push	 -1
  00005	68 00 00 00 00	 push	 __ehhandler$?Parser@CDataConverter@@SA?AV?$CStringT@DV?$StrTraitMFC_DLL@DV?$ChTraitsCRT@D@ATL@@@@@ATL@@AAV23@V23@@Z
  0000a	64 a1 00 00 00
	00		 mov	 eax, DWORD PTR fs:0
  00010	50		 push	 eax
  00011	83 ec 0c	 sub	 esp, 12			; 0000000cH
  00014	56		 push	 esi
  00015	57		 push	 edi
  00016	a1 00 00 00 00	 mov	 eax, DWORD PTR ___security_cookie
  0001b	33 c5		 xor	 eax, ebp
  0001d	50		 push	 eax
  0001e	8d 45 f4	 lea	 eax, DWORD PTR __$EHRec$[ebp]
  00021	64 a3 00 00 00
	00		 mov	 DWORD PTR fs:0, eax

; 496  : 	CString strTemp, strData;

  00027	8d 4d f0	 lea	 ecx, DWORD PTR _strTemp$[ebp]
  0002a	c7 45 fc 00 00
	00 00		 mov	 DWORD PTR __$EHRec$[ebp+8], 0
  00031	ff 15 00 00 00
	00		 call	 DWORD PTR __imp_??0?$CStringT@DV?$StrTraitMFC_DLL@DV?$ChTraitsCRT@D@ATL@@@@@ATL@@QAE@XZ
  00037	8d 4d ec	 lea	 ecx, DWORD PTR _strData$[ebp]
  0003a	ff 15 00 00 00
	00		 call	 DWORD PTR __imp_??0?$CStringT@DV?$StrTraitMFC_DLL@DV?$ChTraitsCRT@D@ATL@@@@@ATL@@QAE@XZ

; 497  : 	int nIndex = strSrc.Find(strSub);

  00040	8b 75 0c	 mov	 esi, DWORD PTR _strSrc$[ebp]
  00043	8b ce		 mov	 ecx, esi
  00045	6a 00		 push	 0
  00047	ff 75 10	 push	 DWORD PTR _strSub$[ebp]
  0004a	c6 45 fc 02	 mov	 BYTE PTR __$EHRec$[ebp+8], 2
  0004e	ff 15 00 00 00
	00		 call	 DWORD PTR __imp_?Find@?$CStringT@DV?$StrTraitMFC_DLL@DV?$ChTraitsCRT@D@ATL@@@@@ATL@@QBEHPBDH@Z
  00054	8b f8		 mov	 edi, eax

; 498  : 	if (nIndex == -1)	

  00056	83 ff ff	 cmp	 edi, -1
  00059	75 14		 jne	 SHORT $LN2@Parser

; 499  : 	{
; 500  : 		strTemp = strSrc;

  0005b	56		 push	 esi
  0005c	8d 4d f0	 lea	 ecx, DWORD PTR _strTemp$[ebp]
  0005f	ff 15 00 00 00
	00		 call	 DWORD PTR __imp_??4?$CStringT@DV?$StrTraitMFC_DLL@DV?$ChTraitsCRT@D@ATL@@@@@ATL@@QAEAAV01@ABV01@@Z

; 501  : 		strSrc.Empty();

  00065	8b ce		 mov	 ecx, esi
  00067	ff 15 00 00 00
	00		 call	 DWORD PTR __imp_?Empty@?$CSimpleStringT@D$00@ATL@@QAEXXZ

; 502  : 		return strTemp;

  0006d	eb 64		 jmp	 SHORT $LN18@Parser
$LN2@Parser:

; 503  : 	}
; 504  : 
; 505  : 	strTemp = strSrc.Left(nIndex);

  0006f	57		 push	 edi
  00070	8d 45 e8	 lea	 eax, DWORD PTR $T3[ebp]
  00073	8b ce		 mov	 ecx, esi
  00075	50		 push	 eax
  00076	ff 15 00 00 00
	00		 call	 DWORD PTR __imp_?Left@?$CStringT@DV?$StrTraitMFC_DLL@DV?$ChTraitsCRT@D@ATL@@@@@ATL@@QBE?AV12@H@Z
  0007c	50		 push	 eax
  0007d	8d 4d f0	 lea	 ecx, DWORD PTR _strTemp$[ebp]
  00080	c6 45 fc 03	 mov	 BYTE PTR __$EHRec$[ebp+8], 3
  00084	ff 15 00 00 00
	00		 call	 DWORD PTR __imp_??4?$CStringT@DV?$StrTraitMFC_DLL@DV?$ChTraitsCRT@D@ATL@@@@@ATL@@QAEAAV01@ABV01@@Z
  0008a	8d 4d e8	 lea	 ecx, DWORD PTR $T3[ebp]
  0008d	c6 45 fc 02	 mov	 BYTE PTR __$EHRec$[ebp+8], 2
  00091	ff 15 00 00 00
	00		 call	 DWORD PTR __imp_??1?$CStringT@DV?$StrTraitMFC_DLL@DV?$ChTraitsCRT@D@ATL@@@@@ATL@@QAE@XZ
; File C:\Program Files (x86)\Microsoft Visual Studio\2019\Community\VC\Tools\MSVC\14.29.30133\atlmfc\include\atlsimpstr.h

; 519  : 		return( GetData()->nDataLength );

  00097	8b 45 10	 mov	 eax, DWORD PTR _strSub$[ebp]
; File D:\git\src\IBK\IBK_DRFN\ProjSrc\SrcDrfn\DrCommon\PartnerMng\DataConverter.cpp

; 507  : 	strData = strSrc.Mid(nIndex + nSubLen);

  0009a	8b ce		 mov	 ecx, esi
; File C:\Program Files (x86)\Microsoft Visual Studio\2019\Community\VC\Tools\MSVC\14.29.30133\atlmfc\include\atlsimpstr.h

; 519  : 		return( GetData()->nDataLength );

  0009c	8b 40 f4	 mov	 eax, DWORD PTR [eax-12]
; File D:\git\src\IBK\IBK_DRFN\ProjSrc\SrcDrfn\DrCommon\PartnerMng\DataConverter.cpp

; 507  : 	strData = strSrc.Mid(nIndex + nSubLen);

  0009f	03 c7		 add	 eax, edi
  000a1	50		 push	 eax
  000a2	8d 45 e8	 lea	 eax, DWORD PTR $T2[ebp]
  000a5	50		 push	 eax
  000a6	ff 15 00 00 00
	00		 call	 DWORD PTR __imp_?Mid@?$CStringT@DV?$StrTraitMFC_DLL@DV?$ChTraitsCRT@D@ATL@@@@@ATL@@QBE?AV12@H@Z
  000ac	50		 push	 eax
  000ad	8d 4d ec	 lea	 ecx, DWORD PTR _strData$[ebp]
  000b0	c6 45 fc 04	 mov	 BYTE PTR __$EHRec$[ebp+8], 4
  000b4	ff 15 00 00 00
	00		 call	 DWORD PTR __imp_??4?$CStringT@DV?$StrTraitMFC_DLL@DV?$ChTraitsCRT@D@ATL@@@@@ATL@@QAEAAV01@ABV01@@Z
  000ba	8d 4d e8	 lea	 ecx, DWORD PTR $T2[ebp]
  000bd	c6 45 fc 02	 mov	 BYTE PTR __$EHRec$[ebp+8], 2
  000c1	ff 15 00 00 00
	00		 call	 DWORD PTR __imp_??1?$CStringT@DV?$StrTraitMFC_DLL@DV?$ChTraitsCRT@D@ATL@@@@@ATL@@QAE@XZ

; 508  : //	strSrc.Format("%s", strData);
; 509  : 	strSrc = strData;

  000c7	8d 45 ec	 lea	 eax, DWORD PTR _strData$[ebp]
  000ca	8b ce		 mov	 ecx, esi
  000cc	50		 push	 eax
  000cd	ff 15 00 00 00
	00		 call	 DWORD PTR __imp_??4?$CStringT@DV?$StrTraitMFC_DLL@DV?$ChTraitsCRT@D@ATL@@@@@ATL@@QAEAAV01@ABV01@@Z
$LN18@Parser:

; 510  : 
; 511  : 	return strTemp;
; 512  : }

  000d3	8b 4d 08	 mov	 ecx, DWORD PTR ___$ReturnUdt$[ebp]
  000d6	8d 45 f0	 lea	 eax, DWORD PTR _strTemp$[ebp]
  000d9	50		 push	 eax
  000da	ff 15 00 00 00
	00		 call	 DWORD PTR __imp_??0?$CStringT@DV?$StrTraitMFC_DLL@DV?$ChTraitsCRT@D@ATL@@@@@ATL@@QAE@ABV01@@Z
  000e0	8d 4d ec	 lea	 ecx, DWORD PTR _strData$[ebp]
  000e3	ff 15 00 00 00
	00		 call	 DWORD PTR __imp_??1?$CStringT@DV?$StrTraitMFC_DLL@DV?$ChTraitsCRT@D@ATL@@@@@ATL@@QAE@XZ
  000e9	8d 4d f0	 lea	 ecx, DWORD PTR _strTemp$[ebp]
  000ec	ff 15 00 00 00
	00		 call	 DWORD PTR __imp_??1?$CStringT@DV?$StrTraitMFC_DLL@DV?$ChTraitsCRT@D@ATL@@@@@ATL@@QAE@XZ
  000f2	8d 4d 10	 lea	 ecx, DWORD PTR _strSub$[ebp]
  000f5	ff 15 00 00 00
	00		 call	 DWORD PTR __imp_??1?$CStringT@DV?$StrTraitMFC_DLL@DV?$ChTraitsCRT@D@ATL@@@@@ATL@@QAE@XZ
  000fb	8b 45 08	 mov	 eax, DWORD PTR ___$ReturnUdt$[ebp]
  000fe	8b 4d f4	 mov	 ecx, DWORD PTR __$EHRec$[ebp]
  00101	64 89 0d 00 00
	00 00		 mov	 DWORD PTR fs:0, ecx
  00108	59		 pop	 ecx
  00109	5f		 pop	 edi
  0010a	5e		 pop	 esi
  0010b	8b e5		 mov	 esp, ebp
  0010d	5d		 pop	 ebp
  0010e	c3		 ret	 0
_TEXT	ENDS
;	COMDAT text$x
text$x	SEGMENT
__unwindfunclet$?Parser@CDataConverter@@SA?AV?$CStringT@DV?$StrTraitMFC_DLL@DV?$ChTraitsCRT@D@ATL@@@@@ATL@@AAV23@V23@@Z$0:
  00000	8d 4d 10	 lea	 ecx, DWORD PTR _strSub$[ebp]
  00003	ff 25 00 00 00
	00		 jmp	 DWORD PTR __imp_??1?$CStringT@DV?$StrTraitMFC_DLL@DV?$ChTraitsCRT@D@ATL@@@@@ATL@@QAE@XZ
__unwindfunclet$?Parser@CDataConverter@@SA?AV?$CStringT@DV?$StrTraitMFC_DLL@DV?$ChTraitsCRT@D@ATL@@@@@ATL@@AAV23@V23@@Z$1:
  00009	8d 4d f0	 lea	 ecx, DWORD PTR _strTemp$[ebp]
  0000c	ff 25 00 00 00
	00		 jmp	 DWORD PTR __imp_??1?$CStringT@DV?$StrTraitMFC_DLL@DV?$ChTraitsCRT@D@ATL@@@@@ATL@@QAE@XZ
__unwindfunclet$?Parser@CDataConverter@@SA?AV?$CStringT@DV?$StrTraitMFC_DLL@DV?$ChTraitsCRT@D@ATL@@@@@ATL@@AAV23@V23@@Z$2:
  00012	8d 4d ec	 lea	 ecx, DWORD PTR _strData$[ebp]
  00015	ff 25 00 00 00
	00		 jmp	 DWORD PTR __imp_??1?$CStringT@DV?$StrTraitMFC_DLL@DV?$ChTraitsCRT@D@ATL@@@@@ATL@@QAE@XZ
__unwindfunclet$?Parser@CDataConverter@@SA?AV?$CStringT@DV?$StrTraitMFC_DLL@DV?$ChTraitsCRT@D@ATL@@@@@ATL@@AAV23@V23@@Z$4:
  0001b	8d 4d e8	 lea	 ecx, DWORD PTR $T3[ebp]
  0001e	ff 25 00 00 00
	00		 jmp	 DWORD PTR __imp_??1?$CStringT@DV?$StrTraitMFC_DLL@DV?$ChTraitsCRT@D@ATL@@@@@ATL@@QAE@XZ
__unwindfunclet$?Parser@CDataConverter@@SA?AV?$CStringT@DV?$StrTraitMFC_DLL@DV?$ChTraitsCRT@D@ATL@@@@@ATL@@AAV23@V23@@Z$5:
  00024	8d 4d e8	 lea	 ecx, DWORD PTR $T2[ebp]
  00027	ff 25 00 00 00
	00		 jmp	 DWORD PTR __imp_??1?$CStringT@DV?$StrTraitMFC_DLL@DV?$ChTraitsCRT@D@ATL@@@@@ATL@@QAE@XZ
  0002d	cc		 int	 3
  0002e	cc		 int	 3
  0002f	cc		 int	 3
  00030	cc		 int	 3
  00031	cc		 int	 3
__ehhandler$?Parser@CDataConverter@@SA?AV?$CStringT@DV?$StrTraitMFC_DLL@DV?$ChTraitsCRT@D@ATL@@@@@ATL@@AAV23@V23@@Z:
  00032	90		 npad	 1
  00033	90		 npad	 1
  00034	8b 54 24 08	 mov	 edx, DWORD PTR [esp+8]
  00038	8d 42 0c	 lea	 eax, DWORD PTR [edx+12]
  0003b	8b 4a e8	 mov	 ecx, DWORD PTR [edx-24]
  0003e	33 c8		 xor	 ecx, eax
  00040	e8 00 00 00 00	 call	 @__security_check_cookie@4
  00045	b8 00 00 00 00	 mov	 eax, OFFSET __ehfuncinfo$?Parser@CDataConverter@@SA?AV?$CStringT@DV?$StrTraitMFC_DLL@DV?$ChTraitsCRT@D@ATL@@@@@ATL@@AAV23@V23@@Z
  0004a	e9 00 00 00 00	 jmp	 ___CxxFrameHandler3
text$x	ENDS
?Parser@CDataConverter@@SA?AV?$CStringT@DV?$StrTraitMFC_DLL@DV?$ChTraitsCRT@D@ATL@@@@@ATL@@AAV23@V23@@Z ENDP ; CDataConverter::Parser
; Function compile flags: /Ogtp
; File D:\git\src\IBK\IBK_DRFN\ProjSrc\SrcDrfn\DrCommon\PartnerMng\DataConverter.cpp
;	COMDAT ?GetTrNo@CDataConverter@@QAE?AV?$CStringT@DV?$StrTraitMFC_DLL@DV?$ChTraitsCRT@D@ATL@@@@@ATL@@H@Z
_TEXT	SEGMENT
___$ReturnUdt$ = 8					; size = 4
_nKey$ = 12						; size = 4
?GetTrNo@CDataConverter@@QAE?AV?$CStringT@DV?$StrTraitMFC_DLL@DV?$ChTraitsCRT@D@ATL@@@@@ATL@@H@Z PROC ; CDataConverter::GetTrNo, COMDAT
; _this$ = ecx

; 430  : {

  00000	55		 push	 ebp
  00001	8b ec		 mov	 ebp, esp

; 431  : 	switch(nKey)

  00003	8b 4d 0c	 mov	 ecx, DWORD PTR _nKey$[ebp]
  00006	56		 push	 esi
  00007	8d 41 e2	 lea	 eax, DWORD PTR [ecx-30]
  0000a	83 f8 36	 cmp	 eax, 54			; 00000036H
  0000d	0f 87 1e 02 00
	00		 ja	 $LN2@GetTrNo
  00013	0f b6 80 00 00
	00 00		 movzx	 eax, BYTE PTR $LN32@GetTrNo[eax]
  0001a	ff 24 85 00 00
	00 00		 jmp	 DWORD PTR $LN33@GetTrNo[eax*4]
$LN4@GetTrNo:

; 489  : 		return QUERY_STRMARKET;
; 490  : 
; 491  : 	return "";
; 492  : }

  00021	8b 4d 08	 mov	 ecx, DWORD PTR ___$ReturnUdt$[ebp]
  00024	68 00 00 00 00	 push	 OFFSET ??_C@_05ELNNMDND@d1010@
  00029	ff 15 00 00 00
	00		 call	 DWORD PTR __imp_??0?$CStringT@DV?$StrTraitMFC_DLL@DV?$ChTraitsCRT@D@ATL@@@@@ATL@@QAE@PBD@Z
  0002f	8b 45 08	 mov	 eax, DWORD PTR ___$ReturnUdt$[ebp]
  00032	5e		 pop	 esi
  00033	5d		 pop	 ebp
  00034	c2 08 00	 ret	 8
$LN5@GetTrNo:
  00037	8b 4d 08	 mov	 ecx, DWORD PTR ___$ReturnUdt$[ebp]
  0003a	68 00 00 00 00	 push	 OFFSET ??_C@_05FCMGPCJC@d1011@
  0003f	ff 15 00 00 00
	00		 call	 DWORD PTR __imp_??0?$CStringT@DV?$StrTraitMFC_DLL@DV?$ChTraitsCRT@D@ATL@@@@@ATL@@QAE@PBD@Z
  00045	8b 45 08	 mov	 eax, DWORD PTR ___$ReturnUdt$[ebp]
  00048	5e		 pop	 esi
  00049	5d		 pop	 ebp
  0004a	c2 08 00	 ret	 8
$LN6@GetTrNo:
  0004d	8b 4d 08	 mov	 ecx, DWORD PTR ___$ReturnUdt$[ebp]
  00050	68 00 00 00 00	 push	 OFFSET ??_C@_07KDMMOILP@d1012_1@
  00055	ff 15 00 00 00
	00		 call	 DWORD PTR __imp_??0?$CStringT@DV?$StrTraitMFC_DLL@DV?$ChTraitsCRT@D@ATL@@@@@ATL@@QAE@PBD@Z
  0005b	8b 45 08	 mov	 eax, DWORD PTR ___$ReturnUdt$[ebp]
  0005e	5e		 pop	 esi
  0005f	5d		 pop	 ebp
  00060	c2 08 00	 ret	 8
$LN7@GetTrNo:
  00063	8b 4d 08	 mov	 ecx, DWORD PTR ___$ReturnUdt$[ebp]
  00066	68 00 00 00 00	 push	 OFFSET ??_C@_05HJOLKBFB@d1012@
  0006b	ff 15 00 00 00
	00		 call	 DWORD PTR __imp_??0?$CStringT@DV?$StrTraitMFC_DLL@DV?$ChTraitsCRT@D@ATL@@@@@ATL@@QAE@PBD@Z
  00071	8b 45 08	 mov	 eax, DWORD PTR ___$ReturnUdt$[ebp]
  00074	5e		 pop	 esi
  00075	5d		 pop	 ebp
  00076	c2 08 00	 ret	 8
$LN8@GetTrNo:
  00079	8b 4d 08	 mov	 ecx, DWORD PTR ___$ReturnUdt$[ebp]
  0007c	68 00 00 00 00	 push	 OFFSET ??_C@_05GAPAJABA@d1013@
  00081	ff 15 00 00 00
	00		 call	 DWORD PTR __imp_??0?$CStringT@DV?$StrTraitMFC_DLL@DV?$ChTraitsCRT@D@ATL@@@@@ATL@@QAE@PBD@Z
  00087	8b 45 08	 mov	 eax, DWORD PTR ___$ReturnUdt$[ebp]
  0008a	5e		 pop	 esi
  0008b	5d		 pop	 ebp
  0008c	c2 08 00	 ret	 8
$LN9@GetTrNo:
  0008f	8b 4d 08	 mov	 ecx, DWORD PTR ___$ReturnUdt$[ebp]
  00092	68 00 00 00 00	 push	 OFFSET ??_C@_05CPLBAGNH@d1014@
  00097	ff 15 00 00 00
	00		 call	 DWORD PTR __imp_??0?$CStringT@DV?$StrTraitMFC_DLL@DV?$ChTraitsCRT@D@ATL@@@@@ATL@@QAE@PBD@Z
  0009d	8b 45 08	 mov	 eax, DWORD PTR ___$ReturnUdt$[ebp]
  000a0	5e		 pop	 esi
  000a1	5d		 pop	 ebp
  000a2	c2 08 00	 ret	 8
$LN10@GetTrNo:
  000a5	8b 4d 08	 mov	 ecx, DWORD PTR ___$ReturnUdt$[ebp]
  000a8	68 00 00 00 00	 push	 OFFSET ??_C@_05BNIHGEFF@d1016@
  000ad	ff 15 00 00 00
	00		 call	 DWORD PTR __imp_??0?$CStringT@DV?$StrTraitMFC_DLL@DV?$ChTraitsCRT@D@ATL@@@@@ATL@@QAE@PBD@Z
  000b3	8b 45 08	 mov	 eax, DWORD PTR ___$ReturnUdt$[ebp]
  000b6	5e		 pop	 esi
  000b7	5d		 pop	 ebp
  000b8	c2 08 00	 ret	 8
$LN11@GetTrNo:
  000bb	8b 4d 08	 mov	 ecx, DWORD PTR ___$ReturnUdt$[ebp]
  000be	68 00 00 00 00	 push	 OFFSET ??_C@_05DMBEOOBE@d0515@
  000c3	ff 15 00 00 00
	00		 call	 DWORD PTR __imp_??0?$CStringT@DV?$StrTraitMFC_DLL@DV?$ChTraitsCRT@D@ATL@@@@@ATL@@QAE@PBD@Z
  000c9	8b 45 08	 mov	 eax, DWORD PTR ___$ReturnUdt$[ebp]
  000cc	5e		 pop	 esi
  000cd	5d		 pop	 ebp
  000ce	c2 08 00	 ret	 8
$LN12@GetTrNo:
  000d1	8b 4d 08	 mov	 ecx, DWORD PTR ___$ReturnUdt$[ebp]
  000d4	68 00 00 00 00	 push	 OFFSET ??_C@_05IDAEEJNL@d1018@
  000d9	ff 15 00 00 00
	00		 call	 DWORD PTR __imp_??0?$CStringT@DV?$StrTraitMFC_DLL@DV?$ChTraitsCRT@D@ATL@@@@@ATL@@QAE@PBD@Z
  000df	8b 45 08	 mov	 eax, DWORD PTR ___$ReturnUdt$[ebp]
  000e2	5e		 pop	 esi
  000e3	5d		 pop	 ebp
  000e4	c2 08 00	 ret	 8
$LN13@GetTrNo:
  000e7	8b 4d 08	 mov	 ecx, DWORD PTR ___$ReturnUdt$[ebp]
  000ea	68 00 00 00 00	 push	 OFFSET ??_C@_05GFCMPLNO@c1002@
  000ef	ff 15 00 00 00
	00		 call	 DWORD PTR __imp_??0?$CStringT@DV?$StrTraitMFC_DLL@DV?$ChTraitsCRT@D@ATL@@@@@ATL@@QAE@PBD@Z
  000f5	8b 45 08	 mov	 eax, DWORD PTR ___$ReturnUdt$[ebp]
  000f8	5e		 pop	 esi
  000f9	5d		 pop	 ebp
  000fa	c2 08 00	 ret	 8
$LN14@GetTrNo:
  000fd	8b 4d 08	 mov	 ecx, DWORD PTR ___$ReturnUdt$[ebp]
  00100	68 00 00 00 00	 push	 OFFSET ??_C@_07NGBOKMDD@o44003$@
  00105	ff 15 00 00 00
	00		 call	 DWORD PTR __imp_??0?$CStringT@DV?$StrTraitMFC_DLL@DV?$ChTraitsCRT@D@ATL@@@@@ATL@@QAE@PBD@Z
  0010b	8b 45 08	 mov	 eax, DWORD PTR ___$ReturnUdt$[ebp]
  0010e	5e		 pop	 esi
  0010f	5d		 pop	 ebp
  00110	c2 08 00	 ret	 8
$LN15@GetTrNo:
  00113	8b 4d 08	 mov	 ecx, DWORD PTR ___$ReturnUdt$[ebp]
  00116	68 00 00 00 00	 push	 OFFSET ??_C@_07GMOEHFAP@o44010$@
  0011b	ff 15 00 00 00
	00		 call	 DWORD PTR __imp_??0?$CStringT@DV?$StrTraitMFC_DLL@DV?$ChTraitsCRT@D@ATL@@@@@ATL@@QAE@PBD@Z
  00121	8b 45 08	 mov	 eax, DWORD PTR ___$ReturnUdt$[ebp]
  00124	5e		 pop	 esi
  00125	5d		 pop	 ebp
  00126	c2 08 00	 ret	 8
$LN16@GetTrNo:
  00129	8b 4d 08	 mov	 ecx, DWORD PTR ___$ReturnUdt$[ebp]
  0012c	68 00 00 00 00	 push	 OFFSET ??_C@_0M@FDODDDIP@pfbopoop830@
  00131	ff 15 00 00 00
	00		 call	 DWORD PTR __imp_??0?$CStringT@DV?$StrTraitMFC_DLL@DV?$ChTraitsCRT@D@ATL@@@@@ATL@@QAE@PBD@Z
  00137	8b 45 08	 mov	 eax, DWORD PTR ___$ReturnUdt$[ebp]
  0013a	5e		 pop	 esi
  0013b	5d		 pop	 ebp
  0013c	c2 08 00	 ret	 8
$LN17@GetTrNo:
  0013f	8b 4d 08	 mov	 ecx, DWORD PTR ___$ReturnUdt$[ebp]
  00142	68 00 00 00 00	 push	 OFFSET ??_C@_0M@EKPIACMO@pfbopoop831@
  00147	ff 15 00 00 00
	00		 call	 DWORD PTR __imp_??0?$CStringT@DV?$StrTraitMFC_DLL@DV?$ChTraitsCRT@D@ATL@@@@@ATL@@QAE@PBD@Z
  0014d	8b 45 08	 mov	 eax, DWORD PTR ___$ReturnUdt$[ebp]
  00150	5e		 pop	 esi
  00151	5d		 pop	 ebp
  00152	c2 08 00	 ret	 8
$LN18@GetTrNo:
  00155	8b 4d 08	 mov	 ecx, DWORD PTR ___$ReturnUdt$[ebp]
  00158	68 00 00 00 00	 push	 OFFSET ??_C@_08OMHJJDIK@pfbopoop@
  0015d	ff 15 00 00 00
	00		 call	 DWORD PTR __imp_??0?$CStringT@DV?$StrTraitMFC_DLL@DV?$ChTraitsCRT@D@ATL@@@@@ATL@@QAE@PBD@Z
  00163	8b 45 08	 mov	 eax, DWORD PTR ___$ReturnUdt$[ebp]
  00166	5e		 pop	 esi
  00167	5d		 pop	 ebp
  00168	c2 08 00	 ret	 8
$LN19@GetTrNo:
  0016b	8b 4d 08	 mov	 ecx, DWORD PTR ___$ReturnUdt$[ebp]
  0016e	68 00 00 00 00	 push	 OFFSET ??_C@_0M@OGLNBELP@pfboaoop840@
  00173	ff 15 00 00 00
	00		 call	 DWORD PTR __imp_??0?$CStringT@DV?$StrTraitMFC_DLL@DV?$ChTraitsCRT@D@ATL@@@@@ATL@@QAE@PBD@Z
  00179	8b 45 08	 mov	 eax, DWORD PTR ___$ReturnUdt$[ebp]
  0017c	5e		 pop	 esi
  0017d	5d		 pop	 ebp
  0017e	c2 08 00	 ret	 8
$LN20@GetTrNo:
  00181	8b 4d 08	 mov	 ecx, DWORD PTR ___$ReturnUdt$[ebp]
  00184	68 00 00 00 00	 push	 OFFSET ??_C@_0N@LGEIEHHI@pfboaoop8402@
  00189	ff 15 00 00 00
	00		 call	 DWORD PTR __imp_??0?$CStringT@DV?$StrTraitMFC_DLL@DV?$ChTraitsCRT@D@ATL@@@@@ATL@@QAE@PBD@Z
  0018f	8b 45 08	 mov	 eax, DWORD PTR ___$ReturnUdt$[ebp]
  00192	5e		 pop	 esi
  00193	5d		 pop	 ebp
  00194	c2 08 00	 ret	 8
$LN21@GetTrNo:
  00197	8b 4d 08	 mov	 ecx, DWORD PTR ___$ReturnUdt$[ebp]
  0019a	68 00 00 00 00	 push	 OFFSET ??_C@_0M@PPKGCFPO@pfboaoop841@
  0019f	ff 15 00 00 00
	00		 call	 DWORD PTR __imp_??0?$CStringT@DV?$StrTraitMFC_DLL@DV?$ChTraitsCRT@D@ATL@@@@@ATL@@QAE@PBD@Z
  001a5	8b 45 08	 mov	 eax, DWORD PTR ___$ReturnUdt$[ebp]
  001a8	5e		 pop	 esi
  001a9	5d		 pop	 ebp
  001aa	c2 08 00	 ret	 8
$LN22@GetTrNo:
  001ad	8b 4d 08	 mov	 ecx, DWORD PTR ___$ReturnUdt$[ebp]
  001b0	68 00 00 00 00	 push	 OFFSET ??_C@_05HGNCIFF@d0354@
  001b5	ff 15 00 00 00
	00		 call	 DWORD PTR __imp_??0?$CStringT@DV?$StrTraitMFC_DLL@DV?$ChTraitsCRT@D@ATL@@@@@ATL@@QAE@PBD@Z
  001bb	8b 45 08	 mov	 eax, DWORD PTR ___$ReturnUdt$[ebp]
  001be	5e		 pop	 esi
  001bf	5d		 pop	 ebp
  001c0	c2 08 00	 ret	 8
$LN23@GetTrNo:
  001c3	8b 4d 08	 mov	 ecx, DWORD PTR ___$ReturnUdt$[ebp]
  001c6	68 00 00 00 00	 push	 OFFSET ??_C@_05BOHGBJBE@d0355@
  001cb	ff 15 00 00 00
	00		 call	 DWORD PTR __imp_??0?$CStringT@DV?$StrTraitMFC_DLL@DV?$ChTraitsCRT@D@ATL@@@@@ATL@@QAE@PBD@Z
  001d1	8b 45 08	 mov	 eax, DWORD PTR ___$ReturnUdt$[ebp]
  001d4	5e		 pop	 esi
  001d5	5d		 pop	 ebp
  001d6	c2 08 00	 ret	 8
$LN24@GetTrNo:
  001d9	8b 4d 08	 mov	 ecx, DWORD PTR ___$ReturnUdt$[ebp]
  001dc	68 00 00 00 00	 push	 OFFSET ??_C@_05DHBNPEIO@d0366@
  001e1	ff 15 00 00 00
	00		 call	 DWORD PTR __imp_??0?$CStringT@DV?$StrTraitMFC_DLL@DV?$ChTraitsCRT@D@ATL@@@@@ATL@@QAE@PBD@Z
  001e7	8b 45 08	 mov	 eax, DWORD PTR ___$ReturnUdt$[ebp]
  001ea	5e		 pop	 esi
  001eb	5d		 pop	 ebp
  001ec	c2 08 00	 ret	 8
$LN25@GetTrNo:
  001ef	8b 4d 08	 mov	 ecx, DWORD PTR ___$ReturnUdt$[ebp]
  001f2	68 00 00 00 00	 push	 OFFSET ??_C@_05COAGMFMP@d0367@
  001f7	ff 15 00 00 00
	00		 call	 DWORD PTR __imp_??0?$CStringT@DV?$StrTraitMFC_DLL@DV?$ChTraitsCRT@D@ATL@@@@@ATL@@QAE@PBD@Z
  001fd	8b 45 08	 mov	 eax, DWORD PTR ___$ReturnUdt$[ebp]
  00200	5e		 pop	 esi
  00201	5d		 pop	 ebp
  00202	c2 08 00	 ret	 8
$LN26@GetTrNo:
  00205	8b 4d 08	 mov	 ecx, DWORD PTR ___$ReturnUdt$[ebp]
  00208	68 00 00 00 00	 push	 OFFSET ??_C@_05KJJONJAA@d0368@
  0020d	ff 15 00 00 00
	00		 call	 DWORD PTR __imp_??0?$CStringT@DV?$StrTraitMFC_DLL@DV?$ChTraitsCRT@D@ATL@@@@@ATL@@QAE@PBD@Z
  00213	8b 45 08	 mov	 eax, DWORD PTR ___$ReturnUdt$[ebp]
  00216	5e		 pop	 esi
  00217	5d		 pop	 ebp
  00218	c2 08 00	 ret	 8
$LN27@GetTrNo:
  0021b	8b 4d 08	 mov	 ecx, DWORD PTR ___$ReturnUdt$[ebp]
  0021e	68 00 00 00 00	 push	 OFFSET ??_C@_05LAIFOIEB@d0369@
  00223	ff 15 00 00 00
	00		 call	 DWORD PTR __imp_??0?$CStringT@DV?$StrTraitMFC_DLL@DV?$ChTraitsCRT@D@ATL@@@@@ATL@@QAE@PBD@Z
  00229	8b 45 08	 mov	 eax, DWORD PTR ___$ReturnUdt$[ebp]
  0022c	5e		 pop	 esi
  0022d	5d		 pop	 ebp
  0022e	c2 08 00	 ret	 8
$LN2@GetTrNo:

; 432  : 	{
; 433  : 	case TRKEY_STRJONGMOK:
; 434  : 		return QUERY_STRJONGMOK;
; 435  : 	case TRKEY_STRUPJONG:
; 436  : 		return QUERY_STRUPJONG;
; 437  : 	case TRKEY_STRPREFUTOPT:
; 438  : 		return QUERY_STRPREFUTOPT;
; 439  : 	case TRKEY_STRFUTOPT:
; 440  : 		return QUERY_STRFUTOPT;
; 441  : 	case TRKEY_STRSTOCKFUTOPT:
; 442  : 		return QUERY_STRSTOCKFUTOPT;
; 443  : 	case TRKEY_STRFOREIGN:
; 444  : 		return QUERY_STRFOREIGN;
; 445  : 	case TRKEY_STRREPLAY:
; 446  : 		return QUERY_STRREPLAY;
; 447  : 	case TRKEY_STRFOJIPYO:
; 448  : 		return QUERY_STRFOJIPYO;
; 449  : 	case TRKEY_STRDOLLAR:
; 450  : 		return QUERY_STRDOLLAR;
; 451  : 	case TRKEY_STOCK_HOGA:
; 452  : 		return QUERY_STOCK_HOGA;
; 453  : 	case TRKEY_STRFOFOREIGN:
; 454  : 		return QUERY_STRFOFOREIGN;
; 455  : 	case TRKEY_STRFOFOREIGN_HOGA:
; 456  : 		return QUERY_STRFOFOREIGN_HOGA;
; 457  : 	//<<20100315_JS.Kim 
; 458  : 	case TRKEY_STRFOFOREIGN_CHE2:
; 459  : 		return QUERY_STRFOFOREIGN_CHE2;
; 460  : 	case TRKEY_STRFOFOREIGN_JAN:
; 461  : 		return QUERY_STRFOFOREIGN_JAN;
; 462  : 
; 463  : 	case TRKEY_STRFX:
; 464  : 		return QUERY_STRFX;
; 465  : 	case TRKEY_STRFX_CHE:
; 466  : 		return QUERY_STRFX_CHE;
; 467  : 	case TRKEY_STRFX_CHE2:
; 468  : 		return QUERY_STRFX_CHE2;
; 469  : 	case TRKEY_STRFX_JAN:
; 470  : 		return QUERY_STRFX_JAN;
; 471  : 	case TRKEY_PLUS_STOCK:
; 472  : 		return QUERY_STRPLUS_STOCK;//KHD
; 473  : 	case TRKEY_PLUS_MARKET:
; 474  : 		return QUERY_STRPLUS_MARKET;//KHD
; 475  : 	case TRKEY_PLUS_KOSPI:
; 476  : 		return QUERY_STRPLUS_KOSPI;//KHD
; 477  : 	case TRKEY_PLUS_KOSDAK:
; 478  : 		return QUERY_STRPLUS_KOSDAK;//KHD
; 479  : 	case TRKEY_PLUS_FO:
; 480  : 		return QUERY_STRPLUS_FO;//KHD
; 481  : 	case TRKEY_PLUS_SIGNAL:
; 482  : 		return QUERY_STRPLUS_SIGNAL;//KHD
; 483  : 
; 484  : 
; 485  : 	//>>
; 486  : 	}
; 487  : 
; 488  : 	if (nKey >= TRKEY_STRMARKET_0 && nKey <= TRKEY_STRMARKET_END)

  00231	8d 81 6a ff ff
	ff		 lea	 eax, DWORD PTR [ecx-150]
  00237	83 f8 32	 cmp	 eax, 50			; 00000032H
  0023a	77 16		 ja	 SHORT $LN28@GetTrNo

; 489  : 		return QUERY_STRMARKET;
; 490  : 
; 491  : 	return "";
; 492  : }

  0023c	8b 4d 08	 mov	 ecx, DWORD PTR ___$ReturnUdt$[ebp]
  0023f	68 00 00 00 00	 push	 OFFSET ??_C@_05DGKKDHJG@d1015@
  00244	ff 15 00 00 00
	00		 call	 DWORD PTR __imp_??0?$CStringT@DV?$StrTraitMFC_DLL@DV?$ChTraitsCRT@D@ATL@@@@@ATL@@QAE@PBD@Z
  0024a	8b 45 08	 mov	 eax, DWORD PTR ___$ReturnUdt$[ebp]
  0024d	5e		 pop	 esi
  0024e	5d		 pop	 ebp
  0024f	c2 08 00	 ret	 8
$LN28@GetTrNo:
  00252	8b 4d 08	 mov	 ecx, DWORD PTR ___$ReturnUdt$[ebp]
  00255	68 00 00 00 00	 push	 OFFSET ??_C@_00CNPNBAHC@@
  0025a	ff 15 00 00 00
	00		 call	 DWORD PTR __imp_??0?$CStringT@DV?$StrTraitMFC_DLL@DV?$ChTraitsCRT@D@ATL@@@@@ATL@@QAE@PBD@Z
  00260	8b 45 08	 mov	 eax, DWORD PTR ___$ReturnUdt$[ebp]
  00263	5e		 pop	 esi
  00264	5d		 pop	 ebp
  00265	c2 08 00	 ret	 8
$LN33@GetTrNo:
  00268	00 00 00 00	 DD	 $LN4@GetTrNo
  0026c	00 00 00 00	 DD	 $LN5@GetTrNo
  00270	00 00 00 00	 DD	 $LN7@GetTrNo
  00274	00 00 00 00	 DD	 $LN8@GetTrNo
  00278	00 00 00 00	 DD	 $LN9@GetTrNo
  0027c	00 00 00 00	 DD	 $LN10@GetTrNo
  00280	00 00 00 00	 DD	 $LN13@GetTrNo
  00284	00 00 00 00	 DD	 $LN12@GetTrNo
  00288	00 00 00 00	 DD	 $LN11@GetTrNo
  0028c	00 00 00 00	 DD	 $LN6@GetTrNo
  00290	00 00 00 00	 DD	 $LN14@GetTrNo
  00294	00 00 00 00	 DD	 $LN15@GetTrNo
  00298	00 00 00 00	 DD	 $LN17@GetTrNo
  0029c	00 00 00 00	 DD	 $LN16@GetTrNo
  002a0	00 00 00 00	 DD	 $LN18@GetTrNo
  002a4	00 00 00 00	 DD	 $LN19@GetTrNo
  002a8	00 00 00 00	 DD	 $LN21@GetTrNo
  002ac	00 00 00 00	 DD	 $LN20@GetTrNo
  002b0	00 00 00 00	 DD	 $LN22@GetTrNo
  002b4	00 00 00 00	 DD	 $LN23@GetTrNo
  002b8	00 00 00 00	 DD	 $LN24@GetTrNo
  002bc	00 00 00 00	 DD	 $LN25@GetTrNo
  002c0	00 00 00 00	 DD	 $LN26@GetTrNo
  002c4	00 00 00 00	 DD	 $LN27@GetTrNo
  002c8	00 00 00 00	 DD	 $LN2@GetTrNo
$LN32@GetTrNo:
  002cc	00		 DB	 0
  002cd	01		 DB	 1
  002ce	02		 DB	 2
  002cf	03		 DB	 3
  002d0	04		 DB	 4
  002d1	05		 DB	 5
  002d2	18		 DB	 24			; 00000018H
  002d3	18		 DB	 24			; 00000018H
  002d4	18		 DB	 24			; 00000018H
  002d5	18		 DB	 24			; 00000018H
  002d6	18		 DB	 24			; 00000018H
  002d7	18		 DB	 24			; 00000018H
  002d8	18		 DB	 24			; 00000018H
  002d9	18		 DB	 24			; 00000018H
  002da	18		 DB	 24			; 00000018H
  002db	18		 DB	 24			; 00000018H
  002dc	18		 DB	 24			; 00000018H
  002dd	18		 DB	 24			; 00000018H
  002de	18		 DB	 24			; 00000018H
  002df	18		 DB	 24			; 00000018H
  002e0	06		 DB	 6
  002e1	18		 DB	 24			; 00000018H
  002e2	18		 DB	 24			; 00000018H
  002e3	18		 DB	 24			; 00000018H
  002e4	07		 DB	 7
  002e5	08		 DB	 8
  002e6	09		 DB	 9
  002e7	0a		 DB	 10			; 0000000aH
  002e8	0b		 DB	 11			; 0000000bH
  002e9	18		 DB	 24			; 00000018H
  002ea	0c		 DB	 12			; 0000000cH
  002eb	0d		 DB	 13			; 0000000dH
  002ec	0e		 DB	 14			; 0000000eH
  002ed	0f		 DB	 15			; 0000000fH
  002ee	10		 DB	 16			; 00000010H
  002ef	11		 DB	 17			; 00000011H
  002f0	12		 DB	 18			; 00000012H
  002f1	13		 DB	 19			; 00000013H
  002f2	18		 DB	 24			; 00000018H
  002f3	18		 DB	 24			; 00000018H
  002f4	18		 DB	 24			; 00000018H
  002f5	18		 DB	 24			; 00000018H
  002f6	18		 DB	 24			; 00000018H
  002f7	18		 DB	 24			; 00000018H
  002f8	18		 DB	 24			; 00000018H
  002f9	18		 DB	 24			; 00000018H
  002fa	18		 DB	 24			; 00000018H
  002fb	18		 DB	 24			; 00000018H
  002fc	18		 DB	 24			; 00000018H
  002fd	18		 DB	 24			; 00000018H
  002fe	18		 DB	 24			; 00000018H
  002ff	14		 DB	 20			; 00000014H
  00300	15		 DB	 21			; 00000015H
  00301	16		 DB	 22			; 00000016H
  00302	17		 DB	 23			; 00000017H
?GetTrNo@CDataConverter@@QAE?AV?$CStringT@DV?$StrTraitMFC_DLL@DV?$ChTraitsCRT@D@ATL@@@@@ATL@@H@Z ENDP ; CDataConverter::GetTrNo
_TEXT	ENDS
; Function compile flags: /Ogtp
; File D:\git\src\IBK\IBK_DRFN\ProjSrc\SrcDrfn\DrCommon\PartnerMng\DataConverter.cpp
;	COMDAT ?Convert2Struct@CDataConverter@@QAEPADPAEHV?$CStringT@DV?$StrTraitMFC_DLL@DV?$ChTraitsCRT@D@ATL@@@@@ATL@@AAH@Z
_TEXT	SEGMENT
__$EHRec$ = -12						; size = 12
_pData$ = 8						; size = 4
_nLen$ = 12						; size = 4
_strTR$ = 16						; size = 4
_nDataLen$ = 20						; size = 4
?Convert2Struct@CDataConverter@@QAEPADPAEHV?$CStringT@DV?$StrTraitMFC_DLL@DV?$ChTraitsCRT@D@ATL@@@@@ATL@@AAH@Z PROC ; CDataConverter::Convert2Struct, COMDAT
; _this$ = ecx

; 291  : {

  00000	55		 push	 ebp
  00001	8b ec		 mov	 ebp, esp
  00003	6a ff		 push	 -1
  00005	68 00 00 00 00	 push	 __ehhandler$?Convert2Struct@CDataConverter@@QAEPADPAEHV?$CStringT@DV?$StrTraitMFC_DLL@DV?$ChTraitsCRT@D@ATL@@@@@ATL@@AAH@Z
  0000a	64 a1 00 00 00
	00		 mov	 eax, DWORD PTR fs:0
  00010	50		 push	 eax
  00011	56		 push	 esi
  00012	57		 push	 edi
  00013	a1 00 00 00 00	 mov	 eax, DWORD PTR ___security_cookie
  00018	33 c5		 xor	 eax, ebp
  0001a	50		 push	 eax
  0001b	8d 45 f4	 lea	 eax, DWORD PTR __$EHRec$[ebp]
  0001e	64 a3 00 00 00
	00		 mov	 DWORD PTR fs:0, eax
  00024	8b f9		 mov	 edi, ecx

; 292  : 	char* pDataBuf = NULL;
; 293  : /*
; 294  : 	if (strTR.CompareNoCase(QUERY_STRJONGMOK) == 0)
; 295  : 		pDataBuf = m_Stock.Convert2Struct(pData, nLen, TRKEY_STRJONGMOK, nDataLen);
; 296  : 	else if (strTR.CompareNoCase(QUERY_STRUPJONG) == 0)
; 297  : 		pDataBuf = m_Stock.Convert2Struct(pData, nLen, TRKEY_STRUPJONG, nDataLen);
; 298  : 	else if (strTR.CompareNoCase(QUERY_STRFUTOPT) == 0)
; 299  : 		pDataBuf = m_Stock.Convert2Struct(pData, nLen, TRKEY_STRFUTOPT, nDataLen);
; 300  : 	else if (strTR.CompareNoCase(QUERY_STRSTOCKFUTOPT) == 0)
; 301  : 		pDataBuf = m_Stock.Convert2Struct(pData, nLen, TRKEY_STRSTOCKFUTOPT, nDataLen);
; 302  : 	else if (strTR.CompareNoCase(QUERY_STRFOREIGN) == 0)
; 303  : 		pDataBuf = m_Stock.Convert2Struct(pData, nLen, TRKEY_STRFOREIGN, nDataLen);
; 304  : 	else if (strTR.CompareNoCase(QUERY_STRREPLAY) == 0)
; 305  : 		pDataBuf = m_Stock.Convert2Struct(pData, nLen, TRKEY_STRREPLAY, nDataLen);
; 306  : 	else if (strTR.CompareNoCase(QUERY_STOCK_HOGA) == 0)
; 307  : 		pDataBuf = m_Stock.Convert2Struct(pData, nLen, TRKEY_STOCK_HOGA, nDataLen);
; 308  : 	else if (strTR.CompareNoCase(QUERY_STRFOJIPYO) == 0)
; 309  : 		pDataBuf = m_Stock.Convert2Struct(pData, nLen, TRKEY_STRFOJIPYO, nDataLen);
; 310  : 	else if (strTR.CompareNoCase(QUERY_STRPREFUTOPT) == 0)
; 311  : 		pDataBuf = m_Stock.Convert2Struct(pData, nLen, TRKEY_STRPREFUTOPT, nDataLen);
; 312  : 	else if (strTR.CompareNoCase(QUERY_STRDOLLAR) == 0)
; 313  : 		pDataBuf = m_Stock.Convert2Struct(pData, nLen, TRKEY_STRDOLLAR, nDataLen);
; 314  : 	else if (strTR.CompareNoCase(QUERY_STRMARKET) == 0)
; 315  : 		pDataBuf = m_Stock.Convert2Struct(pData, nLen, , nDataLen);
; 316  : */
; 317  : 	if (strTR.CompareNoCase(QUERY_STOCK_HOGA) == 0)

  00026	68 00 00 00 00	 push	 OFFSET ??_C@_05GFCMPLNO@c1002@
  0002b	8d 4d 10	 lea	 ecx, DWORD PTR _strTR$[ebp]
  0002e	c7 45 fc 00 00
	00 00		 mov	 DWORD PTR __$EHRec$[ebp+8], 0
  00035	33 f6		 xor	 esi, esi
  00037	ff 15 00 00 00
	00		 call	 DWORD PTR __imp_?CompareNoCase@?$CStringT@DV?$StrTraitMFC_DLL@DV?$ChTraitsCRT@D@ATL@@@@@ATL@@QBEHPBD@Z
  0003d	85 c0		 test	 eax, eax
  0003f	75 18		 jne	 SHORT $LN2@Convert2St

; 318  : 		pDataBuf = m_SHoga.Convert2Struct(pData, nLen, TRKEY_STOCK_HOGA, nDataLen);

  00041	ff 75 14	 push	 DWORD PTR _nDataLen$[ebp]
  00044	8d 8f 90 04 00
	00		 lea	 ecx, DWORD PTR [edi+1168]
  0004a	6a 32		 push	 50			; 00000032H
  0004c	ff 75 0c	 push	 DWORD PTR _nLen$[ebp]
  0004f	ff 75 08	 push	 DWORD PTR _pData$[ebp]
  00052	e8 00 00 00 00	 call	 ?Convert2Struct@CChartItemSHoga@@QAEPADPAEHHAAH@Z ; CChartItemSHoga::Convert2Struct
  00057	eb 33		 jmp	 SHORT $LN9@Convert2St
$LN2@Convert2St:

; 319  : 	else if (strTR.CompareNoCase(QUERY_FUTOPT_HOGA) == 0)

  00059	68 00 00 00 00	 push	 OFFSET ??_C@_05IJKFNIJF@f0201@
  0005e	8d 4d 10	 lea	 ecx, DWORD PTR _strTR$[ebp]
  00061	ff 15 00 00 00
	00		 call	 DWORD PTR __imp_?CompareNoCase@?$CStringT@DV?$StrTraitMFC_DLL@DV?$ChTraitsCRT@D@ATL@@@@@ATL@@QBEHPBD@Z
  00067	85 c0		 test	 eax, eax
  00069	75 23		 jne	 SHORT $LN4@Convert2St

; 320  : 		pDataBuf = m_FOHoga.Convert2Struct(pData, nLen, strTR, nDataLen);

  0006b	ff 75 14	 push	 DWORD PTR _nDataLen$[ebp]
  0006e	8d 45 10	 lea	 eax, DWORD PTR _strTR$[ebp]
  00071	51		 push	 ecx
  00072	8b cc		 mov	 ecx, esp
  00074	50		 push	 eax
  00075	ff 15 00 00 00
	00		 call	 DWORD PTR __imp_??0?$CStringT@DV?$StrTraitMFC_DLL@DV?$ChTraitsCRT@D@ATL@@@@@ATL@@QAE@ABV01@@Z
  0007b	ff 75 0c	 push	 DWORD PTR _nLen$[ebp]
  0007e	8d 8f 10 09 00
	00		 lea	 ecx, DWORD PTR [edi+2320]
  00084	ff 75 08	 push	 DWORD PTR _pData$[ebp]
  00087	e8 00 00 00 00	 call	 ?Convert2Struct@CChartItemFOHoga@@QAEPADPAEHV?$CStringT@DV?$StrTraitMFC_DLL@DV?$ChTraitsCRT@D@ATL@@@@@ATL@@AAH@Z ; CChartItemFOHoga::Convert2Struct
$LN9@Convert2St:

; 321  : 
; 322  : 	return pDataBuf;

  0008c	8b f0		 mov	 esi, eax
$LN4@Convert2St:
  0008e	8d 4d 10	 lea	 ecx, DWORD PTR _strTR$[ebp]
  00091	ff 15 00 00 00
	00		 call	 DWORD PTR __imp_??1?$CStringT@DV?$StrTraitMFC_DLL@DV?$ChTraitsCRT@D@ATL@@@@@ATL@@QAE@XZ
  00097	8b c6		 mov	 eax, esi

; 323  : }

  00099	8b 4d f4	 mov	 ecx, DWORD PTR __$EHRec$[ebp]
  0009c	64 89 0d 00 00
	00 00		 mov	 DWORD PTR fs:0, ecx
  000a3	59		 pop	 ecx
  000a4	5f		 pop	 edi
  000a5	5e		 pop	 esi
  000a6	8b e5		 mov	 esp, ebp
  000a8	5d		 pop	 ebp
  000a9	c2 10 00	 ret	 16			; 00000010H
_TEXT	ENDS
;	COMDAT text$x
text$x	SEGMENT
__unwindfunclet$?Convert2Struct@CDataConverter@@QAEPADPAEHV?$CStringT@DV?$StrTraitMFC_DLL@DV?$ChTraitsCRT@D@ATL@@@@@ATL@@AAH@Z$0:
  00000	8d 4d 10	 lea	 ecx, DWORD PTR _strTR$[ebp]
  00003	ff 25 00 00 00
	00		 jmp	 DWORD PTR __imp_??1?$CStringT@DV?$StrTraitMFC_DLL@DV?$ChTraitsCRT@D@ATL@@@@@ATL@@QAE@XZ
  00009	cc		 int	 3
  0000a	cc		 int	 3
  0000b	cc		 int	 3
  0000c	cc		 int	 3
  0000d	cc		 int	 3
__ehhandler$?Convert2Struct@CDataConverter@@QAEPADPAEHV?$CStringT@DV?$StrTraitMFC_DLL@DV?$ChTraitsCRT@D@ATL@@@@@ATL@@AAH@Z:
  0000e	90		 npad	 1
  0000f	90		 npad	 1
  00010	8b 54 24 08	 mov	 edx, DWORD PTR [esp+8]
  00014	8d 42 0c	 lea	 eax, DWORD PTR [edx+12]
  00017	8b 4a f4	 mov	 ecx, DWORD PTR [edx-12]
  0001a	33 c8		 xor	 ecx, eax
  0001c	e8 00 00 00 00	 call	 @__security_check_cookie@4
  00021	b8 00 00 00 00	 mov	 eax, OFFSET __ehfuncinfo$?Convert2Struct@CDataConverter@@QAEPADPAEHV?$CStringT@DV?$StrTraitMFC_DLL@DV?$ChTraitsCRT@D@ATL@@@@@ATL@@AAH@Z
  00026	e9 00 00 00 00	 jmp	 ___CxxFrameHandler3
text$x	ENDS
?Convert2Struct@CDataConverter@@QAEPADPAEHV?$CStringT@DV?$StrTraitMFC_DLL@DV?$ChTraitsCRT@D@ATL@@@@@ATL@@AAH@Z ENDP ; CDataConverter::Convert2Struct
; Function compile flags: /Ogtp
; File D:\git\src\IBK\IBK_DRFN\ProjSrc\SrcDrfn\DrCommon\PartnerMng\DataConverter.cpp
;	COMDAT ?Convert2Struct@CDataConverter@@QAEPADPAEHHAAH@Z
_TEXT	SEGMENT
_pData$ = 8						; size = 4
_nLen$ = 12						; size = 4
_nKey$ = 16						; size = 4
_nDataLen$ = 20						; size = 4
?Convert2Struct@CDataConverter@@QAEPADPAEHHAAH@Z PROC	; CDataConverter::Convert2Struct, COMDAT
; _this$ = ecx

; 203  : {

  00000	55		 push	 ebp
  00001	8b ec		 mov	 ebp, esp

; 204  : 	char* pDataBuf = NULL;
; 205  : 
; 206  : 	switch (nKey)

  00003	8b 55 10	 mov	 edx, DWORD PTR _nKey$[ebp]
  00006	56		 push	 esi
  00007	8b f1		 mov	 esi, ecx
  00009	8d 42 e2	 lea	 eax, DWORD PTR [edx-30]
  0000c	83 f8 23	 cmp	 eax, 35			; 00000023H
  0000f	0f 87 03 02 00
	00		 ja	 $LN2@Convert2St
  00015	0f b6 80 00 00
	00 00		 movzx	 eax, BYTE PTR $LN24@Convert2St[eax]
  0001c	ff 24 85 00 00
	00 00		 jmp	 DWORD PTR $LN25@Convert2St[eax*4]
$LN4@Convert2St:

; 207  : 	{
; 208  : 	case TRKEY_STRJONGMOK:
; 209  : 		pDataBuf = m_Stock.Convert2Struct(pData, nLen, nKey, nDataLen);

  00023	ff 75 14	 push	 DWORD PTR _nDataLen$[ebp]
  00026	8d 8e 50 03 00
	00		 lea	 ecx, DWORD PTR [esi+848]
  0002c	52		 push	 edx
  0002d	ff 75 0c	 push	 DWORD PTR _nLen$[ebp]
  00030	ff 75 08	 push	 DWORD PTR _pData$[ebp]
  00033	e8 00 00 00 00	 call	 ?Convert2Struct@CChartItemStock@@QAEPADPAEHHAAH@Z ; CChartItemStock::Convert2Struct

; 286  : 
; 287  : 	return pDataBuf;

  00038	8b c8		 mov	 ecx, eax
  0003a	5e		 pop	 esi

; 288  : }

  0003b	5d		 pop	 ebp
  0003c	c2 10 00	 ret	 16			; 00000010H
$LN5@Convert2St:

; 210  : 		break;
; 211  : 	case TRKEY_STRUPJONG:
; 212  : 		pDataBuf = m_Upjong.Convert2Struct(pData, nLen, nKey, nDataLen);

  0003f	ff 75 14	 push	 DWORD PTR _nDataLen$[ebp]
  00042	8d 8e a0 04 00
	00		 lea	 ecx, DWORD PTR [esi+1184]
  00048	52		 push	 edx
  00049	ff 75 0c	 push	 DWORD PTR _nLen$[ebp]
  0004c	ff 75 08	 push	 DWORD PTR _pData$[ebp]
  0004f	e8 00 00 00 00	 call	 ?Convert2Struct@CChartItemUpjong@@QAEPADPAEHHAAH@Z ; CChartItemUpjong::Convert2Struct

; 286  : 
; 287  : 	return pDataBuf;

  00054	8b c8		 mov	 ecx, eax
  00056	5e		 pop	 esi

; 288  : }

  00057	5d		 pop	 ebp
  00058	c2 10 00	 ret	 16			; 00000010H
$LN6@Convert2St:

; 213  : 		break;
; 214  : 	case TRKEY_STRFUTOPT:
; 215  : 		pDataBuf = m_FutOpt.Convert2Struct(pData, nLen, nKey, nDataLen);

  0005b	ff 75 14	 push	 DWORD PTR _nDataLen$[ebp]
  0005e	8d 4e 04	 lea	 ecx, DWORD PTR [esi+4]
  00061	52		 push	 edx
  00062	ff 75 0c	 push	 DWORD PTR _nLen$[ebp]
  00065	ff 75 08	 push	 DWORD PTR _pData$[ebp]
  00068	e8 00 00 00 00	 call	 ?Convert2Struct@CChartItemFO@@QAEPADPAEHHAAH@Z ; CChartItemFO::Convert2Struct

; 286  : 
; 287  : 	return pDataBuf;

  0006d	8b c8		 mov	 ecx, eax
  0006f	5e		 pop	 esi

; 288  : }

  00070	5d		 pop	 ebp
  00071	c2 10 00	 ret	 16			; 00000010H
$LN7@Convert2St:

; 216  : 		break;
; 217  : 	case TRKEY_STRSTOCKFUTOPT:
; 218  : 		pDataBuf = m_StockFO.Convert2Struct(pData, nLen, nKey, nDataLen);

  00074	ff 75 14	 push	 DWORD PTR _nDataLen$[ebp]
  00077	8d 8e 34 02 00
	00		 lea	 ecx, DWORD PTR [esi+564]
  0007d	52		 push	 edx
  0007e	ff 75 0c	 push	 DWORD PTR _nLen$[ebp]
  00081	ff 75 08	 push	 DWORD PTR _pData$[ebp]
  00084	e8 00 00 00 00	 call	 ?Convert2Struct@CChartItemSFO@@QAEPADPAEHHAAH@Z ; CChartItemSFO::Convert2Struct

; 286  : 
; 287  : 	return pDataBuf;

  00089	8b c8		 mov	 ecx, eax
  0008b	5e		 pop	 esi

; 288  : }

  0008c	5d		 pop	 ebp
  0008d	c2 10 00	 ret	 16			; 00000010H
$LN8@Convert2St:

; 219  : 		break;
; 220  : 	case TRKEY_STRFOREIGN:
; 221  : 		pDataBuf = m_Foreign.Convert2Struct(pData, nLen, nKey, nDataLen);

  00090	ff 75 14	 push	 DWORD PTR _nDataLen$[ebp]
  00093	8d 8e 24 01 00
	00		 lea	 ecx, DWORD PTR [esi+292]
  00099	52		 push	 edx
  0009a	ff 75 0c	 push	 DWORD PTR _nLen$[ebp]
  0009d	ff 75 08	 push	 DWORD PTR _pData$[ebp]
  000a0	e8 00 00 00 00	 call	 ?Convert2Struct@CChartItemForeign@@QAEPADPAEHHAAH@Z ; CChartItemForeign::Convert2Struct

; 286  : 
; 287  : 	return pDataBuf;

  000a5	8b c8		 mov	 ecx, eax
  000a7	5e		 pop	 esi

; 288  : }

  000a8	5d		 pop	 ebp
  000a9	c2 10 00	 ret	 16			; 00000010H
$LN9@Convert2St:

; 222  : 		break;
; 223  : 	case TRKEY_STRREPLAY:
; 224  : 		pDataBuf = m_Replay.Convert2Struct(pData, nLen, nKey, nDataLen);

  000ac	ff 75 14	 push	 DWORD PTR _nDataLen$[ebp]
  000af	8d 8e 84 06 00
	00		 lea	 ecx, DWORD PTR [esi+1668]
  000b5	52		 push	 edx
  000b6	ff 75 0c	 push	 DWORD PTR _nLen$[ebp]
  000b9	ff 75 08	 push	 DWORD PTR _pData$[ebp]
  000bc	e8 00 00 00 00	 call	 ?Convert2Struct@CChartReplay@@QAEPADPAEHHAAH@Z ; CChartReplay::Convert2Struct

; 286  : 
; 287  : 	return pDataBuf;

  000c1	8b c8		 mov	 ecx, eax
  000c3	5e		 pop	 esi

; 288  : }

  000c4	5d		 pop	 ebp
  000c5	c2 10 00	 ret	 16			; 00000010H
$LN10@Convert2St:

; 225  : 		break;
; 226  : 	case TRKEY_STOCK_HOGA:
; 227  : 		pDataBuf = m_SHoga.Convert2Struct(pData, nLen, nKey, nDataLen);

  000c8	ff 75 14	 push	 DWORD PTR _nDataLen$[ebp]
  000cb	8d 8e 90 04 00
	00		 lea	 ecx, DWORD PTR [esi+1168]
  000d1	52		 push	 edx
  000d2	ff 75 0c	 push	 DWORD PTR _nLen$[ebp]
  000d5	ff 75 08	 push	 DWORD PTR _pData$[ebp]
  000d8	e8 00 00 00 00	 call	 ?Convert2Struct@CChartItemSHoga@@QAEPADPAEHHAAH@Z ; CChartItemSHoga::Convert2Struct

; 286  : 
; 287  : 	return pDataBuf;

  000dd	8b c8		 mov	 ecx, eax
  000df	5e		 pop	 esi

; 288  : }

  000e0	5d		 pop	 ebp
  000e1	c2 10 00	 ret	 16			; 00000010H
$LN11@Convert2St:

; 228  : 		break;
; 229  : 	case TRKEY_STRFOJIPYO:
; 230  : 		pDataBuf = m_FoJipyo.Convert2Struct(pData, nLen, nKey, nDataLen);

  000e4	ff 75 14	 push	 DWORD PTR _nDataLen$[ebp]
  000e7	8d 8e cc 06 00
	00		 lea	 ecx, DWORD PTR [esi+1740]
  000ed	52		 push	 edx
  000ee	ff 75 0c	 push	 DWORD PTR _nLen$[ebp]
  000f1	ff 75 08	 push	 DWORD PTR _pData$[ebp]
  000f4	e8 00 00 00 00	 call	 ?Convert2Struct@CChartItemFOJipyo@@QAEPADPAEHHAAH@Z ; CChartItemFOJipyo::Convert2Struct

; 286  : 
; 287  : 	return pDataBuf;

  000f9	8b c8		 mov	 ecx, eax
  000fb	5e		 pop	 esi

; 288  : }

  000fc	5d		 pop	 ebp
  000fd	c2 10 00	 ret	 16			; 00000010H
$LN12@Convert2St:

; 231  : 		break;
; 232  : 	case TRKEY_STRPREFUTOPT:
; 233  : 		pDataBuf = m_PreFutOpt.Convert2Struct(pData, nLen, nKey, nDataLen);

  00100	ff 75 14	 push	 DWORD PTR _nDataLen$[ebp]
  00103	8d 8e e0 07 00
	00		 lea	 ecx, DWORD PTR [esi+2016]
  00109	52		 push	 edx
  0010a	ff 75 0c	 push	 DWORD PTR _nLen$[ebp]
  0010d	ff 75 08	 push	 DWORD PTR _pData$[ebp]
  00110	e8 00 00 00 00	 call	 ?Convert2Struct@CChartItemPreFO@@QAEPADPAEHHAAH@Z ; CChartItemPreFO::Convert2Struct

; 286  : 
; 287  : 	return pDataBuf;

  00115	8b c8		 mov	 ecx, eax
  00117	5e		 pop	 esi

; 288  : }

  00118	5d		 pop	 ebp
  00119	c2 10 00	 ret	 16			; 00000010H
$LN13@Convert2St:

; 234  : 		break;
; 235  : 	case TRKEY_STRDOLLAR:
; 236  : 		pDataBuf = m_Dollar.Convert2Struct(pData, nLen, nKey, nDataLen);

  0011c	ff 75 14	 push	 DWORD PTR _nDataLen$[ebp]
  0011f	8d 8e fc 08 00
	00		 lea	 ecx, DWORD PTR [esi+2300]
  00125	52		 push	 edx
  00126	ff 75 0c	 push	 DWORD PTR _nLen$[ebp]
  00129	ff 75 08	 push	 DWORD PTR _pData$[ebp]
  0012c	e8 00 00 00 00	 call	 ?Convert2Struct@CChartItemDollar@@QAEPADPAEHHAAH@Z ; CChartItemDollar::Convert2Struct

; 286  : 
; 287  : 	return pDataBuf;

  00131	8b c8		 mov	 ecx, eax
  00133	5e		 pop	 esi

; 288  : }

  00134	5d		 pop	 ebp
  00135	c2 10 00	 ret	 16			; 00000010H
$LN14@Convert2St:

; 237  : 		break;
; 238  : 	case TRKEY_STRFOFOREIGN:
; 239  : 		pDataBuf = m_FOForeign.Convert2Struct(pData, nLen, nKey, nDataLen);

  00138	ff 75 14	 push	 DWORD PTR _nDataLen$[ebp]
  0013b	8d 8e 28 09 00
	00		 lea	 ecx, DWORD PTR [esi+2344]
  00141	52		 push	 edx
  00142	ff 75 0c	 push	 DWORD PTR _nLen$[ebp]
  00145	ff 75 08	 push	 DWORD PTR _pData$[ebp]
  00148	e8 00 00 00 00	 call	 ?Convert2Struct@CChartItemFOForeign@@QAEPADPAEHHAAH@Z ; CChartItemFOForeign::Convert2Struct

; 286  : 
; 287  : 	return pDataBuf;

  0014d	8b c8		 mov	 ecx, eax
  0014f	5e		 pop	 esi

; 288  : }

  00150	5d		 pop	 ebp
  00151	c2 10 00	 ret	 16			; 00000010H
$LN15@Convert2St:

; 240  : 		break;
; 241  : 	case TRKEY_STRFOFOREIGN_HOGA:
; 242  : 		pDataBuf = m_FOForeignHoga.Convert2Struct(pData, nLen, nKey, nDataLen);

  00154	ff 75 14	 push	 DWORD PTR _nDataLen$[ebp]
  00157	8d 8e a0 0a 00
	00		 lea	 ecx, DWORD PTR [esi+2720]
  0015d	52		 push	 edx
  0015e	ff 75 0c	 push	 DWORD PTR _nLen$[ebp]
  00161	ff 75 08	 push	 DWORD PTR _pData$[ebp]
  00164	e8 00 00 00 00	 call	 ?Convert2Struct@CChartItemFOForeignHoga@@QAEPADPAEHHAAH@Z ; CChartItemFOForeignHoga::Convert2Struct

; 286  : 
; 287  : 	return pDataBuf;

  00169	8b c8		 mov	 ecx, eax
  0016b	5e		 pop	 esi

; 288  : }

  0016c	5d		 pop	 ebp
  0016d	c2 10 00	 ret	 16			; 00000010H
$LN16@Convert2St:

; 243  : 		break;
; 244  : 	//<<20100315_JS.Kim 
; 245  : 	case TRKEY_STRFOFOREIGN_CHE2:
; 246  : 		pDataBuf = m_FOForeignChe2.Convert2Struct(pData, nLen, nKey, nDataLen);

  00170	ff 75 14	 push	 DWORD PTR _nDataLen$[ebp]
  00173	8d 8e 80 0b 00
	00		 lea	 ecx, DWORD PTR [esi+2944]
  00179	52		 push	 edx
  0017a	ff 75 0c	 push	 DWORD PTR _nLen$[ebp]
  0017d	ff 75 08	 push	 DWORD PTR _pData$[ebp]
  00180	e8 00 00 00 00	 call	 ?Convert2Struct@CChartItemFXChe@@QAEPADPAEHHAAH@Z ; CChartItemFXChe::Convert2Struct

; 286  : 
; 287  : 	return pDataBuf;

  00185	8b c8		 mov	 ecx, eax
  00187	5e		 pop	 esi

; 288  : }

  00188	5d		 pop	 ebp
  00189	c2 10 00	 ret	 16			; 00000010H
$LN17@Convert2St:

; 247  : 		break;
; 248  : 	case TRKEY_STRFOFOREIGN_JAN:
; 249  : 		pDataBuf = m_FOForeignJan.Convert2Struct(pData, nLen, nKey, nDataLen);

  0018c	ff 75 14	 push	 DWORD PTR _nDataLen$[ebp]
  0018f	8d 8e 10 0c 00
	00		 lea	 ecx, DWORD PTR [esi+3088]
  00195	52		 push	 edx
  00196	ff 75 0c	 push	 DWORD PTR _nLen$[ebp]
  00199	ff 75 08	 push	 DWORD PTR _pData$[ebp]
  0019c	e8 00 00 00 00	 call	 ?Convert2Struct@CChartItemFXJan@@QAEPADPAEHHAAH@Z ; CChartItemFXJan::Convert2Struct

; 286  : 
; 287  : 	return pDataBuf;

  001a1	8b c8		 mov	 ecx, eax
  001a3	5e		 pop	 esi

; 288  : }

  001a4	5d		 pop	 ebp
  001a5	c2 10 00	 ret	 16			; 00000010H
$LN18@Convert2St:

; 250  : 		break;
; 251  : 	case TRKEY_STRFX:
; 252  : 		pDataBuf = m_FX.Convert2Struct(pData, nLen, nKey, nDataLen);

  001a8	ff 75 14	 push	 DWORD PTR _nDataLen$[ebp]
  001ab	8d 8e a4 0c 00
	00		 lea	 ecx, DWORD PTR [esi+3236]
  001b1	52		 push	 edx
  001b2	ff 75 0c	 push	 DWORD PTR _nLen$[ebp]
  001b5	ff 75 08	 push	 DWORD PTR _pData$[ebp]
  001b8	e8 00 00 00 00	 call	 ?Convert2Struct@CChartItemFX@@QAEPADPAEHHAAH@Z ; CChartItemFX::Convert2Struct

; 286  : 
; 287  : 	return pDataBuf;

  001bd	8b c8		 mov	 ecx, eax
  001bf	5e		 pop	 esi

; 288  : }

  001c0	5d		 pop	 ebp
  001c1	c2 10 00	 ret	 16			; 00000010H
$LN19@Convert2St:

; 253  : 		break;
; 254  : 	case TRKEY_STRFX_CHE:
; 255  : 		pDataBuf = m_FXChe.Convert2Struct(pData, nLen, nKey, nDataLen);

  001c4	ff 75 14	 push	 DWORD PTR _nDataLen$[ebp]
  001c7	8d 8e f8 0d 00
	00		 lea	 ecx, DWORD PTR [esi+3576]
  001cd	52		 push	 edx
  001ce	ff 75 0c	 push	 DWORD PTR _nLen$[ebp]
  001d1	ff 75 08	 push	 DWORD PTR _pData$[ebp]
  001d4	e8 00 00 00 00	 call	 ?Convert2Struct@CChartItemFXChe@@QAEPADPAEHHAAH@Z ; CChartItemFXChe::Convert2Struct

; 286  : 
; 287  : 	return pDataBuf;

  001d9	8b c8		 mov	 ecx, eax
  001db	5e		 pop	 esi

; 288  : }

  001dc	5d		 pop	 ebp
  001dd	c2 10 00	 ret	 16			; 00000010H
$LN20@Convert2St:

; 256  : 		break;
; 257  : 	case TRKEY_STRFX_CHE2:
; 258  : 		pDataBuf = m_FXChe2.Convert2Struct(pData, nLen, nKey, nDataLen);

  001e0	ff 75 14	 push	 DWORD PTR _nDataLen$[ebp]
  001e3	8d 8e 88 0e 00
	00		 lea	 ecx, DWORD PTR [esi+3720]
  001e9	52		 push	 edx
  001ea	ff 75 0c	 push	 DWORD PTR _nLen$[ebp]
  001ed	ff 75 08	 push	 DWORD PTR _pData$[ebp]
  001f0	e8 00 00 00 00	 call	 ?Convert2Struct@CChartItemFXChe@@QAEPADPAEHHAAH@Z ; CChartItemFXChe::Convert2Struct

; 286  : 
; 287  : 	return pDataBuf;

  001f5	8b c8		 mov	 ecx, eax
  001f7	5e		 pop	 esi

; 288  : }

  001f8	5d		 pop	 ebp
  001f9	c2 10 00	 ret	 16			; 00000010H
$LN21@Convert2St:

; 259  : 		break;
; 260  : 	case TRKEY_STRFX_JAN:
; 261  : 		pDataBuf = m_FXJan.Convert2Struct(pData, nLen, nKey, nDataLen);

  001fc	ff 75 14	 push	 DWORD PTR _nDataLen$[ebp]
  001ff	8d 8e 18 0f 00
	00		 lea	 ecx, DWORD PTR [esi+3864]
  00205	52		 push	 edx
  00206	ff 75 0c	 push	 DWORD PTR _nLen$[ebp]
  00209	ff 75 08	 push	 DWORD PTR _pData$[ebp]
  0020c	e8 00 00 00 00	 call	 ?Convert2Struct@CChartItemFXJan@@QAEPADPAEHHAAH@Z ; CChartItemFXJan::Convert2Struct

; 286  : 
; 287  : 	return pDataBuf;

  00211	8b c8		 mov	 ecx, eax
  00213	5e		 pop	 esi

; 288  : }

  00214	5d		 pop	 ebp
  00215	c2 10 00	 ret	 16			; 00000010H
$LN2@Convert2St:

; 262  : 		break;
; 263  : 	//>>
; 264  : //KHD :
; 265  : //KHD
; 266  : //	case TRKEY_PLUS_STOCK:
; 267  : // 		pDataBuf = m_Plus_Stock.Convert2Struct(pData, nLen, nKey, nDataLen);
; 268  : // 		break;
; 269  : // 	case TRKEY_PLUS_MARKET:
; 270  : // 		pDataBuf = m_Plus_Stock.Convert2Struct_Market(pData, nLen, nKey, nDataLen);
; 271  : // 		break;
; 272  : // 	case TRKEY_PLUS_KOSPI:
; 273  : // 	case TRKEY_PLUS_KOSDAK:
; 274  : // 	case TRKEY_PLUS_FO:
; 275  : // 		pDataBuf = m_Plus_Stock.Convert2Struct_Investor(pData, nLen, nKey, nDataLen);
; 276  : // 		break;
; 277  : // 	case TRKEY_PLUS_SIGNAL:
; 278  : // 		pDataBuf = m_Plus_Stock.Convert2Struct_Signal(pData, nLen, nKey, nDataLen);
; 279  : // 	
; 280  : // 		break;
; 281  : //END	
; 282  : 	}
; 283  : 
; 284  : 	if (nKey >= TRKEY_STRMARKET_0 && nKey <= TRKEY_STRMARKET_END)

  00218	8d 82 6a ff ff
	ff		 lea	 eax, DWORD PTR [edx-150]
  0021e	33 c9		 xor	 ecx, ecx
  00220	83 f8 32	 cmp	 eax, 50			; 00000032H
  00223	77 17		 ja	 SHORT $LN22@Convert2St

; 285  : 		pDataBuf = m_Market.Convert2Struct(pData, nLen, nKey, nDataLen);

  00225	ff 75 14	 push	 DWORD PTR _nDataLen$[ebp]
  00228	8d 8e a4 05 00
	00		 lea	 ecx, DWORD PTR [esi+1444]
  0022e	52		 push	 edx
  0022f	ff 75 0c	 push	 DWORD PTR _nLen$[ebp]
  00232	ff 75 08	 push	 DWORD PTR _pData$[ebp]
  00235	e8 00 00 00 00	 call	 ?Convert2Struct@CChartItemMarket@@QAEPADPAEHHAAH@Z ; CChartItemMarket::Convert2Struct

; 286  : 
; 287  : 	return pDataBuf;

  0023a	8b c8		 mov	 ecx, eax
$LN22@Convert2St:
  0023c	8b c1		 mov	 eax, ecx
  0023e	5e		 pop	 esi

; 288  : }

  0023f	5d		 pop	 ebp
  00240	c2 10 00	 ret	 16			; 00000010H
  00243	90		 npad	 1
$LN25@Convert2St:
  00244	00 00 00 00	 DD	 $LN4@Convert2St
  00248	00 00 00 00	 DD	 $LN5@Convert2St
  0024c	00 00 00 00	 DD	 $LN6@Convert2St
  00250	00 00 00 00	 DD	 $LN7@Convert2St
  00254	00 00 00 00	 DD	 $LN8@Convert2St
  00258	00 00 00 00	 DD	 $LN9@Convert2St
  0025c	00 00 00 00	 DD	 $LN10@Convert2St
  00260	00 00 00 00	 DD	 $LN13@Convert2St
  00264	00 00 00 00	 DD	 $LN11@Convert2St
  00268	00 00 00 00	 DD	 $LN12@Convert2St
  0026c	00 00 00 00	 DD	 $LN14@Convert2St
  00270	00 00 00 00	 DD	 $LN15@Convert2St
  00274	00 00 00 00	 DD	 $LN17@Convert2St
  00278	00 00 00 00	 DD	 $LN16@Convert2St
  0027c	00 00 00 00	 DD	 $LN18@Convert2St
  00280	00 00 00 00	 DD	 $LN19@Convert2St
  00284	00 00 00 00	 DD	 $LN21@Convert2St
  00288	00 00 00 00	 DD	 $LN20@Convert2St
  0028c	00 00 00 00	 DD	 $LN2@Convert2St
$LN24@Convert2St:
  00290	00		 DB	 0
  00291	01		 DB	 1
  00292	02		 DB	 2
  00293	03		 DB	 3
  00294	04		 DB	 4
  00295	05		 DB	 5
  00296	12		 DB	 18			; 00000012H
  00297	12		 DB	 18			; 00000012H
  00298	12		 DB	 18			; 00000012H
  00299	12		 DB	 18			; 00000012H
  0029a	12		 DB	 18			; 00000012H
  0029b	12		 DB	 18			; 00000012H
  0029c	12		 DB	 18			; 00000012H
  0029d	12		 DB	 18			; 00000012H
  0029e	12		 DB	 18			; 00000012H
  0029f	12		 DB	 18			; 00000012H
  002a0	12		 DB	 18			; 00000012H
  002a1	12		 DB	 18			; 00000012H
  002a2	12		 DB	 18			; 00000012H
  002a3	12		 DB	 18			; 00000012H
  002a4	06		 DB	 6
  002a5	12		 DB	 18			; 00000012H
  002a6	12		 DB	 18			; 00000012H
  002a7	12		 DB	 18			; 00000012H
  002a8	07		 DB	 7
  002a9	08		 DB	 8
  002aa	09		 DB	 9
  002ab	0a		 DB	 10			; 0000000aH
  002ac	0b		 DB	 11			; 0000000bH
  002ad	12		 DB	 18			; 00000012H
  002ae	0c		 DB	 12			; 0000000cH
  002af	0d		 DB	 13			; 0000000dH
  002b0	0e		 DB	 14			; 0000000eH
  002b1	0f		 DB	 15			; 0000000fH
  002b2	10		 DB	 16			; 00000010H
  002b3	11		 DB	 17			; 00000011H
?Convert2Struct@CDataConverter@@QAEPADPAEHHAAH@Z ENDP	; CDataConverter::Convert2Struct
_TEXT	ENDS
; Function compile flags: /Ogtp
; File D:\git\src\IBK\IBK_DRFN\ProjSrc\SrcDrfn\DrCommon\PartnerMng\DataConverter.cpp
; File C:\Program Files (x86)\Microsoft Visual Studio\2019\Community\VC\Tools\MSVC\14.29.30133\atlmfc\include\cstringt.h
; File D:\git\src\IBK\IBK_DRFN\ProjSrc\SrcDrfn\DrCommon\PartnerMng\DataConverter.cpp
; File C:\Program Files (x86)\Microsoft Visual Studio\2019\Community\VC\Tools\MSVC\14.29.30133\atlmfc\include\cstringt.h
; File D:\git\src\IBK\IBK_DRFN\ProjSrc\SrcDrfn\DrCommon\PartnerMng\DataConverter.cpp
; File C:\Program Files (x86)\Microsoft Visual Studio\2019\Community\VC\Tools\MSVC\14.29.30133\atlmfc\include\cstringt.h
; File D:\git\src\IBK\IBK_DRFN\ProjSrc\SrcDrfn\DrCommon\PartnerMng\DataConverter.cpp
; File C:\Program Files (x86)\Microsoft Visual Studio\2019\Community\VC\Tools\MSVC\14.29.30133\atlmfc\include\cstringt.h
; File D:\git\src\IBK\IBK_DRFN\ProjSrc\SrcDrfn\DrCommon\PartnerMng\DataConverter.cpp
; File C:\Program Files (x86)\Microsoft Visual Studio\2019\Community\VC\Tools\MSVC\14.29.30133\atlmfc\include\cstringt.h
; File D:\git\src\IBK\IBK_DRFN\ProjSrc\SrcDrfn\DrCommon\PartnerMng\DataConverter.cpp
; File C:\Program Files (x86)\Microsoft Visual Studio\2019\Community\VC\Tools\MSVC\14.29.30133\atlmfc\include\cstringt.h
; File D:\git\src\IBK\IBK_DRFN\ProjSrc\SrcDrfn\DrCommon\PartnerMng\DataConverter.cpp
; File C:\Program Files (x86)\Microsoft Visual Studio\2019\Community\VC\Tools\MSVC\14.29.30133\atlmfc\include\cstringt.h
; File D:\git\src\IBK\IBK_DRFN\ProjSrc\SrcDrfn\DrCommon\PartnerMng\DataConverter.cpp
; File C:\Program Files (x86)\Microsoft Visual Studio\2019\Community\VC\Tools\MSVC\14.29.30133\atlmfc\include\cstringt.h
; File D:\git\src\IBK\IBK_DRFN\ProjSrc\SrcDrfn\DrCommon\PartnerMng\DataConverter.cpp
; File C:\Program Files (x86)\Microsoft Visual Studio\2019\Community\VC\Tools\MSVC\14.29.30133\atlmfc\include\cstringt.h
; File D:\git\src\IBK\IBK_DRFN\ProjSrc\SrcDrfn\DrCommon\PartnerMng\DataConverter.cpp
; File C:\Program Files (x86)\Microsoft Visual Studio\2019\Community\VC\Tools\MSVC\14.29.30133\atlmfc\include\cstringt.h
; File D:\git\src\IBK\IBK_DRFN\ProjSrc\SrcDrfn\DrCommon\PartnerMng\DataConverter.cpp
; File C:\Program Files (x86)\Microsoft Visual Studio\2019\Community\VC\Tools\MSVC\14.29.30133\atlmfc\include\cstringt.h
; File D:\git\src\IBK\IBK_DRFN\ProjSrc\SrcDrfn\DrCommon\PartnerMng\DataConverter.cpp
; File C:\Program Files (x86)\Microsoft Visual Studio\2019\Community\VC\Tools\MSVC\14.29.30133\atlmfc\include\cstringt.h
; File D:\git\src\IBK\IBK_DRFN\ProjSrc\SrcDrfn\DrCommon\PartnerMng\DataConverter.cpp
; File C:\Program Files (x86)\Microsoft Visual Studio\2019\Community\VC\Tools\MSVC\14.29.30133\atlmfc\include\cstringt.h
; File D:\git\src\IBK\IBK_DRFN\ProjSrc\SrcDrfn\DrCommon\PartnerMng\DataConverter.cpp
; File C:\Program Files (x86)\Microsoft Visual Studio\2019\Community\VC\Tools\MSVC\14.29.30133\atlmfc\include\cstringt.h
; File D:\git\src\IBK\IBK_DRFN\ProjSrc\SrcDrfn\DrCommon\PartnerMng\DataConverter.cpp
; File C:\Program Files (x86)\Microsoft Visual Studio\2019\Community\VC\Tools\MSVC\14.29.30133\atlmfc\include\cstringt.h
; File D:\git\src\IBK\IBK_DRFN\ProjSrc\SrcDrfn\DrCommon\PartnerMng\DataConverter.cpp
; File C:\Program Files (x86)\Microsoft Visual Studio\2019\Community\VC\Tools\MSVC\14.29.30133\atlmfc\include\cstringt.h
; File D:\git\src\IBK\IBK_DRFN\ProjSrc\SrcDrfn\DrCommon\PartnerMng\DataConverter.cpp
; File C:\Program Files (x86)\Microsoft Visual Studio\2019\Community\VC\Tools\MSVC\14.29.30133\atlmfc\include\cstringt.h
; File D:\git\src\IBK\IBK_DRFN\ProjSrc\SrcDrfn\DrCommon\PartnerMng\DataConverter.cpp
; File C:\Program Files (x86)\Microsoft Visual Studio\2019\Community\VC\Tools\MSVC\14.29.30133\atlmfc\include\cstringt.h
; File D:\git\src\IBK\IBK_DRFN\ProjSrc\SrcDrfn\DrCommon\PartnerMng\DataConverter.cpp
; File C:\Program Files (x86)\Microsoft Visual Studio\2019\Community\VC\Tools\MSVC\14.29.30133\atlmfc\include\cstringt.h
; File D:\git\src\IBK\IBK_DRFN\ProjSrc\SrcDrfn\DrCommon\PartnerMng\DataConverter.cpp
; File C:\Program Files (x86)\Microsoft Visual Studio\2019\Community\VC\Tools\MSVC\14.29.30133\atlmfc\include\cstringt.h
; File D:\git\src\IBK\IBK_DRFN\ProjSrc\SrcDrfn\DrCommon\PartnerMng\DataConverter.cpp
; File C:\Program Files (x86)\Microsoft Visual Studio\2019\Community\VC\Tools\MSVC\14.29.30133\atlmfc\include\cstringt.h
; File D:\git\src\IBK\IBK_DRFN\ProjSrc\SrcDrfn\DrCommon\PartnerMng\DataConverter.cpp
;	COMDAT ?ConvertToFid@CDataConverter@@QAE?AV?$CStringT@DV?$StrTraitMFC_DLL@DV?$ChTraitsCRT@D@ATL@@@@@ATL@@V23@PAXH@Z
_TEXT	SEGMENT
$T2 = -16						; size = 4
__$EHRec$ = -12						; size = 12
___$ReturnUdt$ = 8					; size = 4
_strTR$ = 12						; size = 4
$T3 = 16						; size = 4
$T4 = 16						; size = 4
$T5 = 16						; size = 4
$T6 = 16						; size = 4
$T7 = 16						; size = 4
$T8 = 16						; size = 4
$T9 = 16						; size = 4
$T10 = 16						; size = 4
$T11 = 16						; size = 4
$T12 = 16						; size = 4
$T13 = 16						; size = 4
$T14 = 16						; size = 4
$T15 = 16						; size = 4
$T16 = 16						; size = 4
$T17 = 16						; size = 4
$T18 = 16						; size = 4
$T19 = 16						; size = 4
$T20 = 16						; size = 4
$T21 = 16						; size = 4
$T22 = 16						; size = 4
_pSendData$ = 16					; size = 4
_nLen$ = 20						; size = 4
?ConvertToFid@CDataConverter@@QAE?AV?$CStringT@DV?$StrTraitMFC_DLL@DV?$ChTraitsCRT@D@ATL@@@@@ATL@@V23@PAXH@Z PROC ; CDataConverter::ConvertToFid, COMDAT
; _this$ = ecx

; 65   : {

  00000	55		 push	 ebp
  00001	8b ec		 mov	 ebp, esp
  00003	6a ff		 push	 -1
  00005	68 00 00 00 00	 push	 __ehhandler$?ConvertToFid@CDataConverter@@QAE?AV?$CStringT@DV?$StrTraitMFC_DLL@DV?$ChTraitsCRT@D@ATL@@@@@ATL@@V23@PAXH@Z
  0000a	64 a1 00 00 00
	00		 mov	 eax, DWORD PTR fs:0
  00010	50		 push	 eax
  00011	51		 push	 ecx
  00012	56		 push	 esi
  00013	57		 push	 edi
  00014	a1 00 00 00 00	 mov	 eax, DWORD PTR ___security_cookie
  00019	33 c5		 xor	 eax, ebp
  0001b	50		 push	 eax
  0001c	8d 45 f4	 lea	 eax, DWORD PTR __$EHRec$[ebp]
  0001f	64 a3 00 00 00
	00		 mov	 DWORD PTR fs:0, eax
  00025	8b f1		 mov	 esi, ecx
  00027	c7 45 f0 00 00
	00 00		 mov	 DWORD PTR $T2[ebp], 0

; 66   : 	CString strSendData;

  0002e	8b 7d 08	 mov	 edi, DWORD PTR ___$ReturnUdt$[ebp]
  00031	8b cf		 mov	 ecx, edi
  00033	c7 45 fc 01 00
	00 00		 mov	 DWORD PTR __$EHRec$[ebp+8], 1
  0003a	ff 15 00 00 00
	00		 call	 DWORD PTR __imp_??0?$CStringT@DV?$StrTraitMFC_DLL@DV?$ChTraitsCRT@D@ATL@@@@@ATL@@QAE@XZ
; File C:\Program Files (x86)\Microsoft Visual Studio\2019\Community\VC\Tools\MSVC\14.29.30133\atlmfc\include\cstringt.h

; 2486 : 		return(str1.Compare(psz2) == 0);

  00040	68 00 00 00 00	 push	 OFFSET ??_C@_05ELNNMDND@d1010@
  00045	8d 4d 0c	 lea	 ecx, DWORD PTR _strTR$[ebp]
; File D:\git\src\IBK\IBK_DRFN\ProjSrc\SrcDrfn\DrCommon\PartnerMng\DataConverter.cpp

; 199  : 	return strSendData;

  00048	c7 45 f0 01 00
	00 00		 mov	 DWORD PTR $T2[ebp], 1
; File C:\Program Files (x86)\Microsoft Visual Studio\2019\Community\VC\Tools\MSVC\14.29.30133\atlmfc\include\cstringt.h

; 2486 : 		return(str1.Compare(psz2) == 0);

  0004f	ff 15 00 00 00
	00		 call	 DWORD PTR __imp_?Compare@?$CStringT@DV?$StrTraitMFC_DLL@DV?$ChTraitsCRT@D@ATL@@@@@ATL@@QBEHPBD@Z
  00055	85 c0		 test	 eax, eax
; File D:\git\src\IBK\IBK_DRFN\ProjSrc\SrcDrfn\DrCommon\PartnerMng\DataConverter.cpp

; 68   : 	if(strTR == QUERY_STRJONGMOK)

  00057	75 26		 jne	 SHORT $LN2@ConvertToF

; 69   : 	{
; 70   : 		m_Stock.SetInData((KB_p0602_InRec1*)pSendData);

  00059	ff 75 10	 push	 DWORD PTR _pSendData$[ebp]
  0005c	8d 8e 50 03 00
	00		 lea	 ecx, DWORD PTR [esi+848]
  00062	e8 00 00 00 00	 call	 ?SetInData@CChartItemStock@@QAEXPAUKB_p0602_InRec1@@@Z ; CChartItemStock::SetInData

; 71   : 		strSendData = m_Stock.Convert();

  00067	8d 45 10	 lea	 eax, DWORD PTR $T22[ebp]
  0006a	50		 push	 eax
  0006b	8d 8e 50 03 00
	00		 lea	 ecx, DWORD PTR [esi+848]
  00071	e8 00 00 00 00	 call	 ?Convert@CChartItemStock@@QAE?AV?$CStringT@DV?$StrTraitMFC_DLL@DV?$ChTraitsCRT@D@ATL@@@@@ATL@@XZ ; CChartItemStock::Convert
  00076	c6 45 fc 02	 mov	 BYTE PTR __$EHRec$[ebp+8], 2

; 72   : 	}

  0007a	e9 74 04 00 00	 jmp	 $LN111@ConvertToF
$LN2@ConvertToF:
; File C:\Program Files (x86)\Microsoft Visual Studio\2019\Community\VC\Tools\MSVC\14.29.30133\atlmfc\include\cstringt.h

; 2486 : 		return(str1.Compare(psz2) == 0);

  0007f	68 00 00 00 00	 push	 OFFSET ??_C@_05FCMGPCJC@d1011@
  00084	8d 4d 0c	 lea	 ecx, DWORD PTR _strTR$[ebp]
  00087	ff 15 00 00 00
	00		 call	 DWORD PTR __imp_?Compare@?$CStringT@DV?$StrTraitMFC_DLL@DV?$ChTraitsCRT@D@ATL@@@@@ATL@@QBEHPBD@Z
  0008d	85 c0		 test	 eax, eax
; File D:\git\src\IBK\IBK_DRFN\ProjSrc\SrcDrfn\DrCommon\PartnerMng\DataConverter.cpp

; 73   : 	else if(strTR == QUERY_STRUPJONG)

  0008f	75 26		 jne	 SHORT $LN4@ConvertToF

; 74   : 	{
; 75   : 		m_Upjong.SetInData((KB_p0603_InRec1*)pSendData);

  00091	ff 75 10	 push	 DWORD PTR _pSendData$[ebp]
  00094	8d 8e a0 04 00
	00		 lea	 ecx, DWORD PTR [esi+1184]
  0009a	e8 00 00 00 00	 call	 ?SetInData@CChartItemUpjong@@QAEXPAUKB_p0603_InRec1@@@Z ; CChartItemUpjong::SetInData

; 76   : 		strSendData = m_Upjong.Convert();

  0009f	8d 45 10	 lea	 eax, DWORD PTR $T21[ebp]
  000a2	50		 push	 eax
  000a3	8d 8e a0 04 00
	00		 lea	 ecx, DWORD PTR [esi+1184]
  000a9	e8 00 00 00 00	 call	 ?Convert@CChartItemUpjong@@QAE?AV?$CStringT@DV?$StrTraitMFC_DLL@DV?$ChTraitsCRT@D@ATL@@@@@ATL@@XZ ; CChartItemUpjong::Convert
  000ae	c6 45 fc 03	 mov	 BYTE PTR __$EHRec$[ebp+8], 3

; 77   : 	}

  000b2	e9 3c 04 00 00	 jmp	 $LN111@ConvertToF
$LN4@ConvertToF:
; File C:\Program Files (x86)\Microsoft Visual Studio\2019\Community\VC\Tools\MSVC\14.29.30133\atlmfc\include\cstringt.h

; 2486 : 		return(str1.Compare(psz2) == 0);

  000b7	68 00 00 00 00	 push	 OFFSET ??_C@_05HJOLKBFB@d1012@
  000bc	8d 4d 0c	 lea	 ecx, DWORD PTR _strTR$[ebp]
  000bf	ff 15 00 00 00
	00		 call	 DWORD PTR __imp_?Compare@?$CStringT@DV?$StrTraitMFC_DLL@DV?$ChTraitsCRT@D@ATL@@@@@ATL@@QBEHPBD@Z
  000c5	85 c0		 test	 eax, eax
; File D:\git\src\IBK\IBK_DRFN\ProjSrc\SrcDrfn\DrCommon\PartnerMng\DataConverter.cpp

; 78   : 	else if(strTR == QUERY_STRFUTOPT)

  000c7	75 20		 jne	 SHORT $LN6@ConvertToF

; 79   : 	{
; 80   : 		m_FutOpt.SetInData((KB_p0604_InRec1*)pSendData);

  000c9	ff 75 10	 push	 DWORD PTR _pSendData$[ebp]
  000cc	8d 4e 04	 lea	 ecx, DWORD PTR [esi+4]
  000cf	e8 00 00 00 00	 call	 ?SetInData@CChartItemFO@@QAEXPAUKB_p0604_InRec1@@@Z ; CChartItemFO::SetInData

; 81   : 		strSendData = m_FutOpt.Convert();

  000d4	8d 45 10	 lea	 eax, DWORD PTR $T20[ebp]
  000d7	50		 push	 eax
  000d8	8d 4e 04	 lea	 ecx, DWORD PTR [esi+4]
  000db	e8 00 00 00 00	 call	 ?Convert@CChartItemFO@@QAE?AV?$CStringT@DV?$StrTraitMFC_DLL@DV?$ChTraitsCRT@D@ATL@@@@@ATL@@XZ ; CChartItemFO::Convert
  000e0	c6 45 fc 04	 mov	 BYTE PTR __$EHRec$[ebp+8], 4

; 82   : 	}

  000e4	e9 0a 04 00 00	 jmp	 $LN111@ConvertToF
$LN6@ConvertToF:
; File C:\Program Files (x86)\Microsoft Visual Studio\2019\Community\VC\Tools\MSVC\14.29.30133\atlmfc\include\cstringt.h

; 2486 : 		return(str1.Compare(psz2) == 0);

  000e9	68 00 00 00 00	 push	 OFFSET ??_C@_05GAPAJABA@d1013@
  000ee	8d 4d 0c	 lea	 ecx, DWORD PTR _strTR$[ebp]
  000f1	ff 15 00 00 00
	00		 call	 DWORD PTR __imp_?Compare@?$CStringT@DV?$StrTraitMFC_DLL@DV?$ChTraitsCRT@D@ATL@@@@@ATL@@QBEHPBD@Z
  000f7	85 c0		 test	 eax, eax
; File D:\git\src\IBK\IBK_DRFN\ProjSrc\SrcDrfn\DrCommon\PartnerMng\DataConverter.cpp

; 83   : 	else if(strTR == QUERY_STRSTOCKFUTOPT)

  000f9	75 26		 jne	 SHORT $LN8@ConvertToF

; 84   : 	{
; 85   : 		m_StockFO.SetInData((KB_d1013_InRec1*)pSendData);

  000fb	ff 75 10	 push	 DWORD PTR _pSendData$[ebp]
  000fe	8d 8e 34 02 00
	00		 lea	 ecx, DWORD PTR [esi+564]
  00104	e8 00 00 00 00	 call	 ?SetInData@CChartItemSFO@@QAEXPAUKB_d1013_InRec1@@@Z ; CChartItemSFO::SetInData

; 86   : 		strSendData = m_StockFO.Convert();

  00109	8d 45 10	 lea	 eax, DWORD PTR $T19[ebp]
  0010c	50		 push	 eax
  0010d	8d 8e 34 02 00
	00		 lea	 ecx, DWORD PTR [esi+564]
  00113	e8 00 00 00 00	 call	 ?Convert@CChartItemSFO@@QAE?AV?$CStringT@DV?$StrTraitMFC_DLL@DV?$ChTraitsCRT@D@ATL@@@@@ATL@@XZ ; CChartItemSFO::Convert
  00118	c6 45 fc 05	 mov	 BYTE PTR __$EHRec$[ebp+8], 5

; 87   : 	}

  0011c	e9 d2 03 00 00	 jmp	 $LN111@ConvertToF
$LN8@ConvertToF:
; File C:\Program Files (x86)\Microsoft Visual Studio\2019\Community\VC\Tools\MSVC\14.29.30133\atlmfc\include\cstringt.h

; 2486 : 		return(str1.Compare(psz2) == 0);

  00121	68 00 00 00 00	 push	 OFFSET ??_C@_05CPLBAGNH@d1014@
  00126	8d 4d 0c	 lea	 ecx, DWORD PTR _strTR$[ebp]
  00129	ff 15 00 00 00
	00		 call	 DWORD PTR __imp_?Compare@?$CStringT@DV?$StrTraitMFC_DLL@DV?$ChTraitsCRT@D@ATL@@@@@ATL@@QBEHPBD@Z
  0012f	85 c0		 test	 eax, eax
; File D:\git\src\IBK\IBK_DRFN\ProjSrc\SrcDrfn\DrCommon\PartnerMng\DataConverter.cpp

; 88   : 	else if(strTR == QUERY_STRFOREIGN)

  00131	75 26		 jne	 SHORT $LN10@ConvertToF

; 89   : 	{
; 90   : 		m_Foreign.SetInData((KB_p0606_InRec1*)pSendData);

  00133	ff 75 10	 push	 DWORD PTR _pSendData$[ebp]
  00136	8d 8e 24 01 00
	00		 lea	 ecx, DWORD PTR [esi+292]
  0013c	e8 00 00 00 00	 call	 ?SetInData@CChartItemForeign@@QAEXPAUKB_p0606_InRec1@@@Z ; CChartItemForeign::SetInData

; 91   : 		strSendData = m_Foreign.Convert();

  00141	8d 45 10	 lea	 eax, DWORD PTR $T18[ebp]
  00144	50		 push	 eax
  00145	8d 8e 24 01 00
	00		 lea	 ecx, DWORD PTR [esi+292]
  0014b	e8 00 00 00 00	 call	 ?Convert@CChartItemForeign@@QAE?AV?$CStringT@DV?$StrTraitMFC_DLL@DV?$ChTraitsCRT@D@ATL@@@@@ATL@@XZ ; CChartItemForeign::Convert
  00150	c6 45 fc 06	 mov	 BYTE PTR __$EHRec$[ebp+8], 6

; 92   : 	}

  00154	e9 9a 03 00 00	 jmp	 $LN111@ConvertToF
$LN10@ConvertToF:
; File C:\Program Files (x86)\Microsoft Visual Studio\2019\Community\VC\Tools\MSVC\14.29.30133\atlmfc\include\cstringt.h

; 2486 : 		return(str1.Compare(psz2) == 0);

  00159	68 00 00 00 00	 push	 OFFSET ??_C@_05BNIHGEFF@d1016@
  0015e	8d 4d 0c	 lea	 ecx, DWORD PTR _strTR$[ebp]
  00161	ff 15 00 00 00
	00		 call	 DWORD PTR __imp_?Compare@?$CStringT@DV?$StrTraitMFC_DLL@DV?$ChTraitsCRT@D@ATL@@@@@ATL@@QBEHPBD@Z
  00167	85 c0		 test	 eax, eax
; File D:\git\src\IBK\IBK_DRFN\ProjSrc\SrcDrfn\DrCommon\PartnerMng\DataConverter.cpp

; 93   : 	else if(strTR == QUERY_STRREPLAY)

  00169	75 26		 jne	 SHORT $LN12@ConvertToF

; 94   : 	{
; 95   : 		m_Replay.SetInData((KB_d1016_InRec1*)pSendData);

  0016b	ff 75 10	 push	 DWORD PTR _pSendData$[ebp]
  0016e	8d 8e 84 06 00
	00		 lea	 ecx, DWORD PTR [esi+1668]
  00174	e8 00 00 00 00	 call	 ?SetInData@CChartReplay@@QAEXPAUKB_d1016_InRec1@@@Z ; CChartReplay::SetInData

; 96   : 		strSendData = m_Replay.Convert();

  00179	8d 45 10	 lea	 eax, DWORD PTR $T17[ebp]
  0017c	50		 push	 eax
  0017d	8d 8e 84 06 00
	00		 lea	 ecx, DWORD PTR [esi+1668]
  00183	e8 00 00 00 00	 call	 ?Convert@CChartReplay@@QAE?AV?$CStringT@DV?$StrTraitMFC_DLL@DV?$ChTraitsCRT@D@ATL@@@@@ATL@@XZ ; CChartReplay::Convert
  00188	c6 45 fc 07	 mov	 BYTE PTR __$EHRec$[ebp+8], 7

; 97   : 	}

  0018c	e9 62 03 00 00	 jmp	 $LN111@ConvertToF
$LN12@ConvertToF:
; File C:\Program Files (x86)\Microsoft Visual Studio\2019\Community\VC\Tools\MSVC\14.29.30133\atlmfc\include\cstringt.h

; 2486 : 		return(str1.Compare(psz2) == 0);

  00191	68 00 00 00 00	 push	 OFFSET ??_C@_05DGKKDHJG@d1015@
  00196	8d 4d 0c	 lea	 ecx, DWORD PTR _strTR$[ebp]
  00199	ff 15 00 00 00
	00		 call	 DWORD PTR __imp_?Compare@?$CStringT@DV?$StrTraitMFC_DLL@DV?$ChTraitsCRT@D@ATL@@@@@ATL@@QBEHPBD@Z
  0019f	85 c0		 test	 eax, eax
; File D:\git\src\IBK\IBK_DRFN\ProjSrc\SrcDrfn\DrCommon\PartnerMng\DataConverter.cpp

; 98   : 	else if(strTR == QUERY_STRMARKET)

  001a1	75 26		 jne	 SHORT $LN14@ConvertToF

; 99   : 	{
; 100  : 		m_Market.SetInData((KB_d1015_InRec1*)pSendData);

  001a3	ff 75 10	 push	 DWORD PTR _pSendData$[ebp]
  001a6	8d 8e a4 05 00
	00		 lea	 ecx, DWORD PTR [esi+1444]
  001ac	e8 00 00 00 00	 call	 ?SetInData@CChartItemMarket@@QAEXPAUKB_d1015_InRec1@@@Z ; CChartItemMarket::SetInData

; 101  : 		strSendData = m_Market.Convert();

  001b1	8d 45 10	 lea	 eax, DWORD PTR $T16[ebp]
  001b4	50		 push	 eax
  001b5	8d 8e a4 05 00
	00		 lea	 ecx, DWORD PTR [esi+1444]
  001bb	e8 00 00 00 00	 call	 ?Convert@CChartItemMarket@@QAE?AV?$CStringT@DV?$StrTraitMFC_DLL@DV?$ChTraitsCRT@D@ATL@@@@@ATL@@XZ ; CChartItemMarket::Convert
  001c0	c6 45 fc 08	 mov	 BYTE PTR __$EHRec$[ebp+8], 8

; 102  : 	}

  001c4	e9 2a 03 00 00	 jmp	 $LN111@ConvertToF
$LN14@ConvertToF:
; File C:\Program Files (x86)\Microsoft Visual Studio\2019\Community\VC\Tools\MSVC\14.29.30133\atlmfc\include\cstringt.h

; 2486 : 		return(str1.Compare(psz2) == 0);

  001c9	68 00 00 00 00	 push	 OFFSET ??_C@_05GFCMPLNO@c1002@
  001ce	8d 4d 0c	 lea	 ecx, DWORD PTR _strTR$[ebp]
  001d1	ff 15 00 00 00
	00		 call	 DWORD PTR __imp_?Compare@?$CStringT@DV?$StrTraitMFC_DLL@DV?$ChTraitsCRT@D@ATL@@@@@ATL@@QBEHPBD@Z
  001d7	85 c0		 test	 eax, eax
; File D:\git\src\IBK\IBK_DRFN\ProjSrc\SrcDrfn\DrCommon\PartnerMng\DataConverter.cpp

; 103  : 	else if(strTR == QUERY_STOCK_HOGA)

  001d9	75 26		 jne	 SHORT $LN16@ConvertToF

; 104  : 	{
; 105  : 		m_SHoga.SetInData((LPk01230In1)pSendData);

  001db	ff 75 10	 push	 DWORD PTR _pSendData$[ebp]
  001de	8d 8e 90 04 00
	00		 lea	 ecx, DWORD PTR [esi+1168]
  001e4	e8 00 00 00 00	 call	 ?SetInData@CChartItemSHoga@@QAEXPAU_k01230In1@@@Z ; CChartItemSHoga::SetInData

; 106  : 		strSendData = m_SHoga.Convert();

  001e9	8d 45 10	 lea	 eax, DWORD PTR $T15[ebp]
  001ec	50		 push	 eax
  001ed	8d 8e 90 04 00
	00		 lea	 ecx, DWORD PTR [esi+1168]
  001f3	e8 00 00 00 00	 call	 ?Convert@CChartItemSHoga@@QAE?AV?$CStringT@DV?$StrTraitMFC_DLL@DV?$ChTraitsCRT@D@ATL@@@@@ATL@@XZ ; CChartItemSHoga::Convert
  001f8	c6 45 fc 09	 mov	 BYTE PTR __$EHRec$[ebp+8], 9

; 107  : 	}

  001fc	e9 f2 02 00 00	 jmp	 $LN111@ConvertToF
$LN16@ConvertToF:
; File C:\Program Files (x86)\Microsoft Visual Studio\2019\Community\VC\Tools\MSVC\14.29.30133\atlmfc\include\cstringt.h

; 2486 : 		return(str1.Compare(psz2) == 0);

  00201	68 00 00 00 00	 push	 OFFSET ??_C@_05IJKFNIJF@f0201@
  00206	8d 4d 0c	 lea	 ecx, DWORD PTR _strTR$[ebp]
  00209	ff 15 00 00 00
	00		 call	 DWORD PTR __imp_?Compare@?$CStringT@DV?$StrTraitMFC_DLL@DV?$ChTraitsCRT@D@ATL@@@@@ATL@@QBEHPBD@Z
  0020f	85 c0		 test	 eax, eax
; File D:\git\src\IBK\IBK_DRFN\ProjSrc\SrcDrfn\DrCommon\PartnerMng\DataConverter.cpp

; 108  : 	else if(strTR == QUERY_FUTOPT_HOGA)

  00211	75 26		 jne	 SHORT $LN18@ConvertToF

; 109  : 	{
; 110  : 		m_FOHoga.SetInData((KB_f0201_InRec1*)pSendData);

  00213	ff 75 10	 push	 DWORD PTR _pSendData$[ebp]
  00216	8d 8e 10 09 00
	00		 lea	 ecx, DWORD PTR [esi+2320]
  0021c	e8 00 00 00 00	 call	 ?SetInData@CChartItemFOHoga@@QAEXPAUKB_f0201_InRec1@@@Z ; CChartItemFOHoga::SetInData

; 111  : 		strSendData = m_FOHoga.Convert();

  00221	8d 45 10	 lea	 eax, DWORD PTR $T14[ebp]
  00224	50		 push	 eax
  00225	8d 8e 10 09 00
	00		 lea	 ecx, DWORD PTR [esi+2320]
  0022b	e8 00 00 00 00	 call	 ?Convert@CChartItemFOHoga@@QAE?AV?$CStringT@DV?$StrTraitMFC_DLL@DV?$ChTraitsCRT@D@ATL@@@@@ATL@@XZ ; CChartItemFOHoga::Convert
  00230	c6 45 fc 0a	 mov	 BYTE PTR __$EHRec$[ebp+8], 10 ; 0000000aH

; 112  : 	}

  00234	e9 ba 02 00 00	 jmp	 $LN111@ConvertToF
$LN18@ConvertToF:
; File C:\Program Files (x86)\Microsoft Visual Studio\2019\Community\VC\Tools\MSVC\14.29.30133\atlmfc\include\cstringt.h

; 2486 : 		return(str1.Compare(psz2) == 0);

  00239	68 00 00 00 00	 push	 OFFSET ??_C@_05DMBEOOBE@d0515@
  0023e	8d 4d 0c	 lea	 ecx, DWORD PTR _strTR$[ebp]
  00241	ff 15 00 00 00
	00		 call	 DWORD PTR __imp_?Compare@?$CStringT@DV?$StrTraitMFC_DLL@DV?$ChTraitsCRT@D@ATL@@@@@ATL@@QBEHPBD@Z
  00247	85 c0		 test	 eax, eax
; File D:\git\src\IBK\IBK_DRFN\ProjSrc\SrcDrfn\DrCommon\PartnerMng\DataConverter.cpp

; 113  : 	else if(strTR == QUERY_STRFOJIPYO)

  00249	75 26		 jne	 SHORT $LN20@ConvertToF

; 114  : 	{
; 115  : 		m_FoJipyo.SetInData((KB_p0515_InRec*)pSendData);

  0024b	ff 75 10	 push	 DWORD PTR _pSendData$[ebp]
  0024e	8d 8e cc 06 00
	00		 lea	 ecx, DWORD PTR [esi+1740]
  00254	e8 00 00 00 00	 call	 ?SetInData@CChartItemFOJipyo@@QAEXPAUKB_p0515_InRec@@@Z ; CChartItemFOJipyo::SetInData

; 116  : 		strSendData = m_FoJipyo.Convert();

  00259	8d 45 10	 lea	 eax, DWORD PTR $T13[ebp]
  0025c	50		 push	 eax
  0025d	8d 8e cc 06 00
	00		 lea	 ecx, DWORD PTR [esi+1740]
  00263	e8 00 00 00 00	 call	 ?Convert@CChartItemFOJipyo@@QAE?AV?$CStringT@DV?$StrTraitMFC_DLL@DV?$ChTraitsCRT@D@ATL@@@@@ATL@@XZ ; CChartItemFOJipyo::Convert
  00268	c6 45 fc 0b	 mov	 BYTE PTR __$EHRec$[ebp+8], 11 ; 0000000bH

; 117  : 	}

  0026c	e9 82 02 00 00	 jmp	 $LN111@ConvertToF
$LN20@ConvertToF:
; File C:\Program Files (x86)\Microsoft Visual Studio\2019\Community\VC\Tools\MSVC\14.29.30133\atlmfc\include\cstringt.h

; 2486 : 		return(str1.Compare(psz2) == 0);

  00271	68 00 00 00 00	 push	 OFFSET ??_C@_07KDMMOILP@d1012_1@
  00276	8d 4d 0c	 lea	 ecx, DWORD PTR _strTR$[ebp]
  00279	ff 15 00 00 00
	00		 call	 DWORD PTR __imp_?Compare@?$CStringT@DV?$StrTraitMFC_DLL@DV?$ChTraitsCRT@D@ATL@@@@@ATL@@QBEHPBD@Z
  0027f	85 c0		 test	 eax, eax
; File D:\git\src\IBK\IBK_DRFN\ProjSrc\SrcDrfn\DrCommon\PartnerMng\DataConverter.cpp

; 118  : 	else if(strTR == QUERY_STRPREFUTOPT)

  00281	75 26		 jne	 SHORT $LN22@ConvertToF

; 119  : 	{
; 120  : 		m_PreFutOpt.SetInData((KB_p0604_InRec1*)pSendData);

  00283	ff 75 10	 push	 DWORD PTR _pSendData$[ebp]
  00286	8d 8e e0 07 00
	00		 lea	 ecx, DWORD PTR [esi+2016]
  0028c	e8 00 00 00 00	 call	 ?SetInData@CChartItemPreFO@@QAEXPAUKB_p0604_InRec1@@@Z ; CChartItemPreFO::SetInData

; 121  : 		strSendData = m_PreFutOpt.Convert();

  00291	8d 45 10	 lea	 eax, DWORD PTR $T12[ebp]
  00294	50		 push	 eax
  00295	8d 8e e0 07 00
	00		 lea	 ecx, DWORD PTR [esi+2016]
  0029b	e8 00 00 00 00	 call	 ?Convert@CChartItemPreFO@@QAE?AV?$CStringT@DV?$StrTraitMFC_DLL@DV?$ChTraitsCRT@D@ATL@@@@@ATL@@XZ ; CChartItemPreFO::Convert
  002a0	c6 45 fc 0c	 mov	 BYTE PTR __$EHRec$[ebp+8], 12 ; 0000000cH

; 122  : 	}

  002a4	e9 4a 02 00 00	 jmp	 $LN111@ConvertToF
$LN22@ConvertToF:
; File C:\Program Files (x86)\Microsoft Visual Studio\2019\Community\VC\Tools\MSVC\14.29.30133\atlmfc\include\cstringt.h

; 2486 : 		return(str1.Compare(psz2) == 0);

  002a9	68 00 00 00 00	 push	 OFFSET ??_C@_05IDAEEJNL@d1018@
  002ae	8d 4d 0c	 lea	 ecx, DWORD PTR _strTR$[ebp]
  002b1	ff 15 00 00 00
	00		 call	 DWORD PTR __imp_?Compare@?$CStringT@DV?$StrTraitMFC_DLL@DV?$ChTraitsCRT@D@ATL@@@@@ATL@@QBEHPBD@Z
  002b7	85 c0		 test	 eax, eax
; File D:\git\src\IBK\IBK_DRFN\ProjSrc\SrcDrfn\DrCommon\PartnerMng\DataConverter.cpp

; 123  : 	else if(strTR == QUERY_STRDOLLAR)

  002b9	75 26		 jne	 SHORT $LN24@ConvertToF

; 124  : 	{
; 125  : 		m_Dollar.SetInData((KB_d1018_InRec*)pSendData);

  002bb	ff 75 10	 push	 DWORD PTR _pSendData$[ebp]
  002be	8d 8e fc 08 00
	00		 lea	 ecx, DWORD PTR [esi+2300]
  002c4	e8 00 00 00 00	 call	 ?SetInData@CChartItemDollar@@QAEXPAUKB_d1018_InRec@@@Z ; CChartItemDollar::SetInData

; 126  : 		strSendData = m_Dollar.Convert();

  002c9	8d 45 10	 lea	 eax, DWORD PTR $T11[ebp]
  002cc	50		 push	 eax
  002cd	8d 8e fc 08 00
	00		 lea	 ecx, DWORD PTR [esi+2300]
  002d3	e8 00 00 00 00	 call	 ?Convert@CChartItemDollar@@QAE?AV?$CStringT@DV?$StrTraitMFC_DLL@DV?$ChTraitsCRT@D@ATL@@@@@ATL@@XZ ; CChartItemDollar::Convert
  002d8	c6 45 fc 0d	 mov	 BYTE PTR __$EHRec$[ebp+8], 13 ; 0000000dH

; 127  : 	}

  002dc	e9 12 02 00 00	 jmp	 $LN111@ConvertToF
$LN24@ConvertToF:
; File C:\Program Files (x86)\Microsoft Visual Studio\2019\Community\VC\Tools\MSVC\14.29.30133\atlmfc\include\cstringt.h

; 2486 : 		return(str1.Compare(psz2) == 0);

  002e1	68 00 00 00 00	 push	 OFFSET ??_C@_07NGBOKMDD@o44003$@
  002e6	8d 4d 0c	 lea	 ecx, DWORD PTR _strTR$[ebp]
  002e9	ff 15 00 00 00
	00		 call	 DWORD PTR __imp_?Compare@?$CStringT@DV?$StrTraitMFC_DLL@DV?$ChTraitsCRT@D@ATL@@@@@ATL@@QBEHPBD@Z
  002ef	85 c0		 test	 eax, eax
; File D:\git\src\IBK\IBK_DRFN\ProjSrc\SrcDrfn\DrCommon\PartnerMng\DataConverter.cpp

; 128  : 	else if(strTR == QUERY_STRFOFOREIGN)

  002f1	75 26		 jne	 SHORT $LN26@ConvertToF

; 129  : 	{
; 130  : 		m_FOForeign.SetInData((HCQ03010_IN*)pSendData);

  002f3	ff 75 10	 push	 DWORD PTR _pSendData$[ebp]
  002f6	8d 8e 28 09 00
	00		 lea	 ecx, DWORD PTR [esi+2344]
  002fc	e8 00 00 00 00	 call	 ?SetInData@CChartItemFOForeign@@QAEXPAU_HCQ03010_IN@@@Z ; CChartItemFOForeign::SetInData

; 131  : 		strSendData = m_FOForeign.Convert();

  00301	8d 45 10	 lea	 eax, DWORD PTR $T10[ebp]
  00304	50		 push	 eax
  00305	8d 8e 28 09 00
	00		 lea	 ecx, DWORD PTR [esi+2344]
  0030b	e8 00 00 00 00	 call	 ?Convert@CChartItemFOForeign@@QAE?AV?$CStringT@DV?$StrTraitMFC_DLL@DV?$ChTraitsCRT@D@ATL@@@@@ATL@@XZ ; CChartItemFOForeign::Convert
  00310	c6 45 fc 0e	 mov	 BYTE PTR __$EHRec$[ebp+8], 14 ; 0000000eH

; 132  : 	}

  00314	e9 da 01 00 00	 jmp	 $LN111@ConvertToF
$LN26@ConvertToF:
; File C:\Program Files (x86)\Microsoft Visual Studio\2019\Community\VC\Tools\MSVC\14.29.30133\atlmfc\include\cstringt.h

; 2486 : 		return(str1.Compare(psz2) == 0);

  00319	68 00 00 00 00	 push	 OFFSET ??_C@_07GMOEHFAP@o44010$@
  0031e	8d 4d 0c	 lea	 ecx, DWORD PTR _strTR$[ebp]
  00321	ff 15 00 00 00
	00		 call	 DWORD PTR __imp_?Compare@?$CStringT@DV?$StrTraitMFC_DLL@DV?$ChTraitsCRT@D@ATL@@@@@ATL@@QBEHPBD@Z
  00327	85 c0		 test	 eax, eax
; File D:\git\src\IBK\IBK_DRFN\ProjSrc\SrcDrfn\DrCommon\PartnerMng\DataConverter.cpp

; 133  : 	else if(strTR == QUERY_STRFOFOREIGN_HOGA)

  00329	75 26		 jne	 SHORT $LN28@ConvertToF

; 134  : 	{
; 135  : 		m_FOForeignHoga.SetInData((HCQ01112_IN*)pSendData);

  0032b	ff 75 10	 push	 DWORD PTR _pSendData$[ebp]
  0032e	8d 8e a0 0a 00
	00		 lea	 ecx, DWORD PTR [esi+2720]
  00334	e8 00 00 00 00	 call	 ?SetInData@CChartItemFOForeignHoga@@QAEXPAU_HCQ01112_IN@@@Z ; CChartItemFOForeignHoga::SetInData

; 136  : 		strSendData = m_FOForeignHoga.Convert();

  00339	8d 45 10	 lea	 eax, DWORD PTR $T9[ebp]
  0033c	50		 push	 eax
  0033d	8d 8e a0 0a 00
	00		 lea	 ecx, DWORD PTR [esi+2720]
  00343	e8 00 00 00 00	 call	 ?Convert@CChartItemFOForeignHoga@@QAE?AV?$CStringT@DV?$StrTraitMFC_DLL@DV?$ChTraitsCRT@D@ATL@@@@@ATL@@XZ ; CChartItemFOForeignHoga::Convert
  00348	c6 45 fc 0f	 mov	 BYTE PTR __$EHRec$[ebp+8], 15 ; 0000000fH

; 137  : 	}

  0034c	e9 a2 01 00 00	 jmp	 $LN111@ConvertToF
$LN28@ConvertToF:
; File C:\Program Files (x86)\Microsoft Visual Studio\2019\Community\VC\Tools\MSVC\14.29.30133\atlmfc\include\cstringt.h

; 2486 : 		return(str1.Compare(psz2) == 0);

  00351	68 00 00 00 00	 push	 OFFSET ??_C@_0M@FDODDDIP@pfbopoop830@
  00356	8d 4d 0c	 lea	 ecx, DWORD PTR _strTR$[ebp]
  00359	ff 15 00 00 00
	00		 call	 DWORD PTR __imp_?Compare@?$CStringT@DV?$StrTraitMFC_DLL@DV?$ChTraitsCRT@D@ATL@@@@@ATL@@QBEHPBD@Z
  0035f	85 c0		 test	 eax, eax
; File D:\git\src\IBK\IBK_DRFN\ProjSrc\SrcDrfn\DrCommon\PartnerMng\DataConverter.cpp

; 139  : 	else if(strTR == QUERY_STRFOFOREIGN_CHE2)

  00361	75 38		 jne	 SHORT $LN30@ConvertToF

; 140  : 	{
; 141  : 		m_FOForeignChe2.SetInData((FX_CHE_RQ_INPUT *)pSendData);

  00363	ff 75 10	 push	 DWORD PTR _pSendData$[ebp]
  00366	81 c6 80 0b 00
	00		 add	 esi, 2944		; 00000b80H
  0036c	8b ce		 mov	 ecx, esi
  0036e	e8 00 00 00 00	 call	 ?SetInData@CChartItemFXChe@@QAEXPAUFX_CHE_RQ_INPUT@@@Z ; CChartItemFXChe::SetInData

; 142  : 		m_FOForeignChe2.SetTR(strTR);

  00373	51		 push	 ecx
  00374	8d 45 0c	 lea	 eax, DWORD PTR _strTR$[ebp]
  00377	8b cc		 mov	 ecx, esp
  00379	50		 push	 eax
  0037a	ff 15 00 00 00
	00		 call	 DWORD PTR __imp_??0?$CStringT@DV?$StrTraitMFC_DLL@DV?$ChTraitsCRT@D@ATL@@@@@ATL@@QAE@ABV01@@Z
  00380	8b ce		 mov	 ecx, esi
  00382	e8 00 00 00 00	 call	 ?SetTR@CChartItemFXChe@@QAEXV?$CStringT@DV?$StrTraitMFC_DLL@DV?$ChTraitsCRT@D@ATL@@@@@ATL@@@Z ; CChartItemFXChe::SetTR

; 143  : 		strSendData = m_FOForeignChe2.Convert();

  00387	8d 45 10	 lea	 eax, DWORD PTR $T8[ebp]
  0038a	8b ce		 mov	 ecx, esi
  0038c	50		 push	 eax
  0038d	e8 00 00 00 00	 call	 ?Convert@CChartItemFXChe@@QAE?AV?$CStringT@DV?$StrTraitMFC_DLL@DV?$ChTraitsCRT@D@ATL@@@@@ATL@@XZ ; CChartItemFXChe::Convert
  00392	c6 45 fc 10	 mov	 BYTE PTR __$EHRec$[ebp+8], 16 ; 00000010H

; 144  : 	}

  00396	e9 58 01 00 00	 jmp	 $LN111@ConvertToF
$LN30@ConvertToF:
; File C:\Program Files (x86)\Microsoft Visual Studio\2019\Community\VC\Tools\MSVC\14.29.30133\atlmfc\include\cstringt.h

; 2486 : 		return(str1.Compare(psz2) == 0);

  0039b	68 00 00 00 00	 push	 OFFSET ??_C@_0M@EKPIACMO@pfbopoop831@
  003a0	8d 4d 0c	 lea	 ecx, DWORD PTR _strTR$[ebp]
  003a3	ff 15 00 00 00
	00		 call	 DWORD PTR __imp_?Compare@?$CStringT@DV?$StrTraitMFC_DLL@DV?$ChTraitsCRT@D@ATL@@@@@ATL@@QBEHPBD@Z
  003a9	85 c0		 test	 eax, eax
; File D:\git\src\IBK\IBK_DRFN\ProjSrc\SrcDrfn\DrCommon\PartnerMng\DataConverter.cpp

; 145  : 	else if(strTR == QUERY_STRFOFOREIGN_JAN)

  003ab	75 38		 jne	 SHORT $LN32@ConvertToF

; 146  : 	{
; 147  : 		m_FOForeignJan.SetInData((FX_CHE_RQ_INPUT *)pSendData);

  003ad	ff 75 10	 push	 DWORD PTR _pSendData$[ebp]
  003b0	81 c6 10 0c 00
	00		 add	 esi, 3088		; 00000c10H
  003b6	8b ce		 mov	 ecx, esi
  003b8	e8 00 00 00 00	 call	 ?SetInData@CChartItemFXJan@@QAEXPAUFX_CHE_RQ_INPUT@@@Z ; CChartItemFXJan::SetInData

; 148  : 		m_FOForeignJan.SetTR(strTR);

  003bd	51		 push	 ecx
  003be	8d 45 0c	 lea	 eax, DWORD PTR _strTR$[ebp]
  003c1	8b cc		 mov	 ecx, esp
  003c3	50		 push	 eax
  003c4	ff 15 00 00 00
	00		 call	 DWORD PTR __imp_??0?$CStringT@DV?$StrTraitMFC_DLL@DV?$ChTraitsCRT@D@ATL@@@@@ATL@@QAE@ABV01@@Z
  003ca	8b ce		 mov	 ecx, esi
  003cc	e8 00 00 00 00	 call	 ?SetTR@CChartItemFXJan@@QAEXV?$CStringT@DV?$StrTraitMFC_DLL@DV?$ChTraitsCRT@D@ATL@@@@@ATL@@@Z ; CChartItemFXJan::SetTR

; 149  : 		strSendData = m_FOForeignJan.Convert();

  003d1	8d 45 10	 lea	 eax, DWORD PTR $T7[ebp]
  003d4	8b ce		 mov	 ecx, esi
  003d6	50		 push	 eax
  003d7	e8 00 00 00 00	 call	 ?Convert@CChartItemFXJan@@QAE?AV?$CStringT@DV?$StrTraitMFC_DLL@DV?$ChTraitsCRT@D@ATL@@@@@ATL@@XZ ; CChartItemFXJan::Convert
  003dc	c6 45 fc 11	 mov	 BYTE PTR __$EHRec$[ebp+8], 17 ; 00000011H

; 150  : 	}

  003e0	e9 0e 01 00 00	 jmp	 $LN111@ConvertToF
$LN32@ConvertToF:
; File C:\Program Files (x86)\Microsoft Visual Studio\2019\Community\VC\Tools\MSVC\14.29.30133\atlmfc\include\cstringt.h

; 2486 : 		return(str1.Compare(psz2) == 0);

  003e5	68 00 00 00 00	 push	 OFFSET ??_C@_08OMHJJDIK@pfbopoop@
  003ea	8d 4d 0c	 lea	 ecx, DWORD PTR _strTR$[ebp]
  003ed	ff 15 00 00 00
	00		 call	 DWORD PTR __imp_?Compare@?$CStringT@DV?$StrTraitMFC_DLL@DV?$ChTraitsCRT@D@ATL@@@@@ATL@@QBEHPBD@Z
  003f3	85 c0		 test	 eax, eax
; File D:\git\src\IBK\IBK_DRFN\ProjSrc\SrcDrfn\DrCommon\PartnerMng\DataConverter.cpp

; 151  : 	else if(strTR == QUERY_STRFX)

  003f5	75 26		 jne	 SHORT $LN34@ConvertToF

; 152  : 	{
; 153  : 		m_FX.SetInData((SM_fx112_InRec1*)pSendData);

  003f7	ff 75 10	 push	 DWORD PTR _pSendData$[ebp]
  003fa	8d 8e a4 0c 00
	00		 lea	 ecx, DWORD PTR [esi+3236]
  00400	e8 00 00 00 00	 call	 ?SetInData@CChartItemFX@@QAEXPAUSM_fx112_InRec1@@@Z ; CChartItemFX::SetInData

; 154  : 		strSendData = m_FX.Convert();

  00405	8d 45 10	 lea	 eax, DWORD PTR $T6[ebp]
  00408	50		 push	 eax
  00409	8d 8e a4 0c 00
	00		 lea	 ecx, DWORD PTR [esi+3236]
  0040f	e8 00 00 00 00	 call	 ?Convert@CChartItemFX@@QAE?AV?$CStringT@DV?$StrTraitMFC_DLL@DV?$ChTraitsCRT@D@ATL@@@@@ATL@@XZ ; CChartItemFX::Convert
  00414	c6 45 fc 12	 mov	 BYTE PTR __$EHRec$[ebp+8], 18 ; 00000012H

; 155  : 	}

  00418	e9 d6 00 00 00	 jmp	 $LN111@ConvertToF
$LN34@ConvertToF:
; File C:\Program Files (x86)\Microsoft Visual Studio\2019\Community\VC\Tools\MSVC\14.29.30133\atlmfc\include\cstringt.h

; 2486 : 		return(str1.Compare(psz2) == 0);

  0041d	68 00 00 00 00	 push	 OFFSET ??_C@_0M@OGLNBELP@pfboaoop840@
  00422	8d 4d 0c	 lea	 ecx, DWORD PTR _strTR$[ebp]
  00425	ff 15 00 00 00
	00		 call	 DWORD PTR __imp_?Compare@?$CStringT@DV?$StrTraitMFC_DLL@DV?$ChTraitsCRT@D@ATL@@@@@ATL@@QBEHPBD@Z
  0042b	85 c0		 test	 eax, eax
; File D:\git\src\IBK\IBK_DRFN\ProjSrc\SrcDrfn\DrCommon\PartnerMng\DataConverter.cpp

; 156  : 	else if(strTR == QUERY_STRFX_CHE)

  0042d	75 38		 jne	 SHORT $LN36@ConvertToF

; 157  : 	{
; 158  : 		m_FXChe.SetInData((FX_CHE_RQ_INPUT *)pSendData);

  0042f	ff 75 10	 push	 DWORD PTR _pSendData$[ebp]
  00432	81 c6 f8 0d 00
	00		 add	 esi, 3576		; 00000df8H
  00438	8b ce		 mov	 ecx, esi
  0043a	e8 00 00 00 00	 call	 ?SetInData@CChartItemFXChe@@QAEXPAUFX_CHE_RQ_INPUT@@@Z ; CChartItemFXChe::SetInData

; 159  : 		m_FXChe.SetTR(strTR);

  0043f	51		 push	 ecx
  00440	8d 45 0c	 lea	 eax, DWORD PTR _strTR$[ebp]
  00443	8b cc		 mov	 ecx, esp
  00445	50		 push	 eax
  00446	ff 15 00 00 00
	00		 call	 DWORD PTR __imp_??0?$CStringT@DV?$StrTraitMFC_DLL@DV?$ChTraitsCRT@D@ATL@@@@@ATL@@QAE@ABV01@@Z
  0044c	8b ce		 mov	 ecx, esi
  0044e	e8 00 00 00 00	 call	 ?SetTR@CChartItemFXChe@@QAEXV?$CStringT@DV?$StrTraitMFC_DLL@DV?$ChTraitsCRT@D@ATL@@@@@ATL@@@Z ; CChartItemFXChe::SetTR

; 160  : 		strSendData = m_FXChe.Convert();

  00453	8d 45 10	 lea	 eax, DWORD PTR $T5[ebp]
  00456	8b ce		 mov	 ecx, esi
  00458	50		 push	 eax
  00459	e8 00 00 00 00	 call	 ?Convert@CChartItemFXChe@@QAE?AV?$CStringT@DV?$StrTraitMFC_DLL@DV?$ChTraitsCRT@D@ATL@@@@@ATL@@XZ ; CChartItemFXChe::Convert
  0045e	c6 45 fc 13	 mov	 BYTE PTR __$EHRec$[ebp+8], 19 ; 00000013H

; 161  : 	}

  00462	e9 8c 00 00 00	 jmp	 $LN111@ConvertToF
$LN36@ConvertToF:
; File C:\Program Files (x86)\Microsoft Visual Studio\2019\Community\VC\Tools\MSVC\14.29.30133\atlmfc\include\cstringt.h

; 2486 : 		return(str1.Compare(psz2) == 0);

  00467	68 00 00 00 00	 push	 OFFSET ??_C@_0N@LGEIEHHI@pfboaoop8402@
  0046c	8d 4d 0c	 lea	 ecx, DWORD PTR _strTR$[ebp]
  0046f	ff 15 00 00 00
	00		 call	 DWORD PTR __imp_?Compare@?$CStringT@DV?$StrTraitMFC_DLL@DV?$ChTraitsCRT@D@ATL@@@@@ATL@@QBEHPBD@Z
  00475	85 c0		 test	 eax, eax
; File D:\git\src\IBK\IBK_DRFN\ProjSrc\SrcDrfn\DrCommon\PartnerMng\DataConverter.cpp

; 162  : 	else if(strTR == QUERY_STRFX_CHE2)

  00477	75 35		 jne	 SHORT $LN38@ConvertToF

; 163  : 	{
; 164  : 		m_FXChe2.SetInData((FX_CHE_RQ_INPUT *)pSendData);

  00479	ff 75 10	 push	 DWORD PTR _pSendData$[ebp]
  0047c	81 c6 88 0e 00
	00		 add	 esi, 3720		; 00000e88H
  00482	8b ce		 mov	 ecx, esi
  00484	e8 00 00 00 00	 call	 ?SetInData@CChartItemFXChe@@QAEXPAUFX_CHE_RQ_INPUT@@@Z ; CChartItemFXChe::SetInData

; 165  : 		m_FXChe2.SetTR(strTR);

  00489	51		 push	 ecx
  0048a	8d 45 0c	 lea	 eax, DWORD PTR _strTR$[ebp]
  0048d	8b cc		 mov	 ecx, esp
  0048f	50		 push	 eax
  00490	ff 15 00 00 00
	00		 call	 DWORD PTR __imp_??0?$CStringT@DV?$StrTraitMFC_DLL@DV?$ChTraitsCRT@D@ATL@@@@@ATL@@QAE@ABV01@@Z
  00496	8b ce		 mov	 ecx, esi
  00498	e8 00 00 00 00	 call	 ?SetTR@CChartItemFXChe@@QAEXV?$CStringT@DV?$StrTraitMFC_DLL@DV?$ChTraitsCRT@D@ATL@@@@@ATL@@@Z ; CChartItemFXChe::SetTR

; 166  : 		strSendData = m_FXChe2.Convert();

  0049d	8d 45 10	 lea	 eax, DWORD PTR $T4[ebp]
  004a0	8b ce		 mov	 ecx, esi
  004a2	50		 push	 eax
  004a3	e8 00 00 00 00	 call	 ?Convert@CChartItemFXChe@@QAE?AV?$CStringT@DV?$StrTraitMFC_DLL@DV?$ChTraitsCRT@D@ATL@@@@@ATL@@XZ ; CChartItemFXChe::Convert
  004a8	c6 45 fc 14	 mov	 BYTE PTR __$EHRec$[ebp+8], 20 ; 00000014H

; 167  : 	}

  004ac	eb 45		 jmp	 SHORT $LN111@ConvertToF
$LN38@ConvertToF:
; File C:\Program Files (x86)\Microsoft Visual Studio\2019\Community\VC\Tools\MSVC\14.29.30133\atlmfc\include\cstringt.h

; 2486 : 		return(str1.Compare(psz2) == 0);

  004ae	68 00 00 00 00	 push	 OFFSET ??_C@_0M@PPKGCFPO@pfboaoop841@
  004b3	8d 4d 0c	 lea	 ecx, DWORD PTR _strTR$[ebp]
  004b6	ff 15 00 00 00
	00		 call	 DWORD PTR __imp_?Compare@?$CStringT@DV?$StrTraitMFC_DLL@DV?$ChTraitsCRT@D@ATL@@@@@ATL@@QBEHPBD@Z
  004bc	85 c0		 test	 eax, eax
; File D:\git\src\IBK\IBK_DRFN\ProjSrc\SrcDrfn\DrCommon\PartnerMng\DataConverter.cpp

; 168  : 	else if(strTR == QUERY_STRFX_JAN)

  004be	75 45		 jne	 SHORT $LN40@ConvertToF

; 169  : 	{
; 170  : 		m_FXJan.SetInData((FX_CHE_RQ_INPUT *)pSendData);

  004c0	ff 75 10	 push	 DWORD PTR _pSendData$[ebp]
  004c3	81 c6 18 0f 00
	00		 add	 esi, 3864		; 00000f18H
  004c9	8b ce		 mov	 ecx, esi
  004cb	e8 00 00 00 00	 call	 ?SetInData@CChartItemFXJan@@QAEXPAUFX_CHE_RQ_INPUT@@@Z ; CChartItemFXJan::SetInData

; 171  : 		m_FXJan.SetTR(strTR);

  004d0	51		 push	 ecx
  004d1	8d 45 0c	 lea	 eax, DWORD PTR _strTR$[ebp]
  004d4	8b cc		 mov	 ecx, esp
  004d6	50		 push	 eax
  004d7	ff 15 00 00 00
	00		 call	 DWORD PTR __imp_??0?$CStringT@DV?$StrTraitMFC_DLL@DV?$ChTraitsCRT@D@ATL@@@@@ATL@@QAE@ABV01@@Z
  004dd	8b ce		 mov	 ecx, esi
  004df	e8 00 00 00 00	 call	 ?SetTR@CChartItemFXJan@@QAEXV?$CStringT@DV?$StrTraitMFC_DLL@DV?$ChTraitsCRT@D@ATL@@@@@ATL@@@Z ; CChartItemFXJan::SetTR

; 172  : 		strSendData = m_FXJan.Convert();

  004e4	8d 45 10	 lea	 eax, DWORD PTR $T3[ebp]
  004e7	8b ce		 mov	 ecx, esi
  004e9	50		 push	 eax
  004ea	e8 00 00 00 00	 call	 ?Convert@CChartItemFXJan@@QAE?AV?$CStringT@DV?$StrTraitMFC_DLL@DV?$ChTraitsCRT@D@ATL@@@@@ATL@@XZ ; CChartItemFXJan::Convert
  004ef	c6 45 fc 15	 mov	 BYTE PTR __$EHRec$[ebp+8], 21 ; 00000015H
$LN111@ConvertToF:

; 199  : 	return strSendData;

  004f3	50		 push	 eax
  004f4	8b cf		 mov	 ecx, edi
  004f6	ff 15 00 00 00
	00		 call	 DWORD PTR __imp_??4?$CStringT@DV?$StrTraitMFC_DLL@DV?$ChTraitsCRT@D@ATL@@@@@ATL@@QAEAAV01@ABV01@@Z
  004fc	8d 4d 10	 lea	 ecx, DWORD PTR $T3[ebp]
  004ff	ff 15 00 00 00
	00		 call	 DWORD PTR __imp_??1?$CStringT@DV?$StrTraitMFC_DLL@DV?$ChTraitsCRT@D@ATL@@@@@ATL@@QAE@XZ
$LN40@ConvertToF:
  00505	8d 4d 0c	 lea	 ecx, DWORD PTR _strTR$[ebp]
  00508	ff 15 00 00 00
	00		 call	 DWORD PTR __imp_??1?$CStringT@DV?$StrTraitMFC_DLL@DV?$ChTraitsCRT@D@ATL@@@@@ATL@@QAE@XZ
  0050e	8b c7		 mov	 eax, edi

; 200  : }

  00510	8b 4d f4	 mov	 ecx, DWORD PTR __$EHRec$[ebp]
  00513	64 89 0d 00 00
	00 00		 mov	 DWORD PTR fs:0, ecx
  0051a	59		 pop	 ecx
  0051b	5f		 pop	 edi
  0051c	5e		 pop	 esi
  0051d	8b e5		 mov	 esp, ebp
  0051f	5d		 pop	 ebp
  00520	c2 10 00	 ret	 16			; 00000010H
_TEXT	ENDS
;	COMDAT text$x
text$x	SEGMENT
__unwindfunclet$?ConvertToFid@CDataConverter@@QAE?AV?$CStringT@DV?$StrTraitMFC_DLL@DV?$ChTraitsCRT@D@ATL@@@@@ATL@@V23@PAXH@Z$0:
  00000	8d 4d 0c	 lea	 ecx, DWORD PTR _strTR$[ebp]
  00003	ff 25 00 00 00
	00		 jmp	 DWORD PTR __imp_??1?$CStringT@DV?$StrTraitMFC_DLL@DV?$ChTraitsCRT@D@ATL@@@@@ATL@@QAE@XZ
__unwindfunclet$?ConvertToFid@CDataConverter@@QAE?AV?$CStringT@DV?$StrTraitMFC_DLL@DV?$ChTraitsCRT@D@ATL@@@@@ATL@@V23@PAXH@Z$1:
  00009	8b 45 f0	 mov	 eax, DWORD PTR $T2[ebp]
  0000c	83 e0 01	 and	 eax, 1
  0000f	0f 84 0d 00 00
	00		 je	 $LN44@ConvertToF
  00015	83 65 f0 fe	 and	 DWORD PTR $T2[ebp], -2	; fffffffeH
  00019	8b 4d 08	 mov	 ecx, DWORD PTR ___$ReturnUdt$[ebp]
  0001c	ff 25 00 00 00
	00		 jmp	 DWORD PTR __imp_??1?$CStringT@DV?$StrTraitMFC_DLL@DV?$ChTraitsCRT@D@ATL@@@@@ATL@@QAE@XZ
$LN44@ConvertToF:
  00022	c3		 ret	 0
__unwindfunclet$?ConvertToFid@CDataConverter@@QAE?AV?$CStringT@DV?$StrTraitMFC_DLL@DV?$ChTraitsCRT@D@ATL@@@@@ATL@@V23@PAXH@Z$2:
  00023	8d 4d 10	 lea	 ecx, DWORD PTR $T22[ebp]
  00026	ff 25 00 00 00
	00		 jmp	 DWORD PTR __imp_??1?$CStringT@DV?$StrTraitMFC_DLL@DV?$ChTraitsCRT@D@ATL@@@@@ATL@@QAE@XZ
__unwindfunclet$?ConvertToFid@CDataConverter@@QAE?AV?$CStringT@DV?$StrTraitMFC_DLL@DV?$ChTraitsCRT@D@ATL@@@@@ATL@@V23@PAXH@Z$3:
  0002c	8d 4d 10	 lea	 ecx, DWORD PTR $T21[ebp]
  0002f	ff 25 00 00 00
	00		 jmp	 DWORD PTR __imp_??1?$CStringT@DV?$StrTraitMFC_DLL@DV?$ChTraitsCRT@D@ATL@@@@@ATL@@QAE@XZ
__unwindfunclet$?ConvertToFid@CDataConverter@@QAE?AV?$CStringT@DV?$StrTraitMFC_DLL@DV?$ChTraitsCRT@D@ATL@@@@@ATL@@V23@PAXH@Z$4:
  00035	8d 4d 10	 lea	 ecx, DWORD PTR $T20[ebp]
  00038	ff 25 00 00 00
	00		 jmp	 DWORD PTR __imp_??1?$CStringT@DV?$StrTraitMFC_DLL@DV?$ChTraitsCRT@D@ATL@@@@@ATL@@QAE@XZ
__unwindfunclet$?ConvertToFid@CDataConverter@@QAE?AV?$CStringT@DV?$StrTraitMFC_DLL@DV?$ChTraitsCRT@D@ATL@@@@@ATL@@V23@PAXH@Z$5:
  0003e	8d 4d 10	 lea	 ecx, DWORD PTR $T19[ebp]
  00041	ff 25 00 00 00
	00		 jmp	 DWORD PTR __imp_??1?$CStringT@DV?$StrTraitMFC_DLL@DV?$ChTraitsCRT@D@ATL@@@@@ATL@@QAE@XZ
__unwindfunclet$?ConvertToFid@CDataConverter@@QAE?AV?$CStringT@DV?$StrTraitMFC_DLL@DV?$ChTraitsCRT@D@ATL@@@@@ATL@@V23@PAXH@Z$6:
  00047	8d 4d 10	 lea	 ecx, DWORD PTR $T18[ebp]
  0004a	ff 25 00 00 00
	00		 jmp	 DWORD PTR __imp_??1?$CStringT@DV?$StrTraitMFC_DLL@DV?$ChTraitsCRT@D@ATL@@@@@ATL@@QAE@XZ
__unwindfunclet$?ConvertToFid@CDataConverter@@QAE?AV?$CStringT@DV?$StrTraitMFC_DLL@DV?$ChTraitsCRT@D@ATL@@@@@ATL@@V23@PAXH@Z$7:
  00050	8d 4d 10	 lea	 ecx, DWORD PTR $T17[ebp]
  00053	ff 25 00 00 00
	00		 jmp	 DWORD PTR __imp_??1?$CStringT@DV?$StrTraitMFC_DLL@DV?$ChTraitsCRT@D@ATL@@@@@ATL@@QAE@XZ
__unwindfunclet$?ConvertToFid@CDataConverter@@QAE?AV?$CStringT@DV?$StrTraitMFC_DLL@DV?$ChTraitsCRT@D@ATL@@@@@ATL@@V23@PAXH@Z$8:
  00059	8d 4d 10	 lea	 ecx, DWORD PTR $T16[ebp]
  0005c	ff 25 00 00 00
	00		 jmp	 DWORD PTR __imp_??1?$CStringT@DV?$StrTraitMFC_DLL@DV?$ChTraitsCRT@D@ATL@@@@@ATL@@QAE@XZ
__unwindfunclet$?ConvertToFid@CDataConverter@@QAE?AV?$CStringT@DV?$StrTraitMFC_DLL@DV?$ChTraitsCRT@D@ATL@@@@@ATL@@V23@PAXH@Z$9:
  00062	8d 4d 10	 lea	 ecx, DWORD PTR $T15[ebp]
  00065	ff 25 00 00 00
	00		 jmp	 DWORD PTR __imp_??1?$CStringT@DV?$StrTraitMFC_DLL@DV?$ChTraitsCRT@D@ATL@@@@@ATL@@QAE@XZ
__unwindfunclet$?ConvertToFid@CDataConverter@@QAE?AV?$CStringT@DV?$StrTraitMFC_DLL@DV?$ChTraitsCRT@D@ATL@@@@@ATL@@V23@PAXH@Z$10:
  0006b	8d 4d 10	 lea	 ecx, DWORD PTR $T14[ebp]
  0006e	ff 25 00 00 00
	00		 jmp	 DWORD PTR __imp_??1?$CStringT@DV?$StrTraitMFC_DLL@DV?$ChTraitsCRT@D@ATL@@@@@ATL@@QAE@XZ
__unwindfunclet$?ConvertToFid@CDataConverter@@QAE?AV?$CStringT@DV?$StrTraitMFC_DLL@DV?$ChTraitsCRT@D@ATL@@@@@ATL@@V23@PAXH@Z$11:
  00074	8d 4d 10	 lea	 ecx, DWORD PTR $T13[ebp]
  00077	ff 25 00 00 00
	00		 jmp	 DWORD PTR __imp_??1?$CStringT@DV?$StrTraitMFC_DLL@DV?$ChTraitsCRT@D@ATL@@@@@ATL@@QAE@XZ
__unwindfunclet$?ConvertToFid@CDataConverter@@QAE?AV?$CStringT@DV?$StrTraitMFC_DLL@DV?$ChTraitsCRT@D@ATL@@@@@ATL@@V23@PAXH@Z$12:
  0007d	8d 4d 10	 lea	 ecx, DWORD PTR $T12[ebp]
  00080	ff 25 00 00 00
	00		 jmp	 DWORD PTR __imp_??1?$CStringT@DV?$StrTraitMFC_DLL@DV?$ChTraitsCRT@D@ATL@@@@@ATL@@QAE@XZ
__unwindfunclet$?ConvertToFid@CDataConverter@@QAE?AV?$CStringT@DV?$StrTraitMFC_DLL@DV?$ChTraitsCRT@D@ATL@@@@@ATL@@V23@PAXH@Z$13:
  00086	8d 4d 10	 lea	 ecx, DWORD PTR $T11[ebp]
  00089	ff 25 00 00 00
	00		 jmp	 DWORD PTR __imp_??1?$CStringT@DV?$StrTraitMFC_DLL@DV?$ChTraitsCRT@D@ATL@@@@@ATL@@QAE@XZ
__unwindfunclet$?ConvertToFid@CDataConverter@@QAE?AV?$CStringT@DV?$StrTraitMFC_DLL@DV?$ChTraitsCRT@D@ATL@@@@@ATL@@V23@PAXH@Z$14:
  0008f	8d 4d 10	 lea	 ecx, DWORD PTR $T10[ebp]
  00092	ff 25 00 00 00
	00		 jmp	 DWORD PTR __imp_??1?$CStringT@DV?$StrTraitMFC_DLL@DV?$ChTraitsCRT@D@ATL@@@@@ATL@@QAE@XZ
__unwindfunclet$?ConvertToFid@CDataConverter@@QAE?AV?$CStringT@DV?$StrTraitMFC_DLL@DV?$ChTraitsCRT@D@ATL@@@@@ATL@@V23@PAXH@Z$15:
  00098	8d 4d 10	 lea	 ecx, DWORD PTR $T9[ebp]
  0009b	ff 25 00 00 00
	00		 jmp	 DWORD PTR __imp_??1?$CStringT@DV?$StrTraitMFC_DLL@DV?$ChTraitsCRT@D@ATL@@@@@ATL@@QAE@XZ
__unwindfunclet$?ConvertToFid@CDataConverter@@QAE?AV?$CStringT@DV?$StrTraitMFC_DLL@DV?$ChTraitsCRT@D@ATL@@@@@ATL@@V23@PAXH@Z$17:
  000a1	8d 4d 10	 lea	 ecx, DWORD PTR $T8[ebp]
  000a4	ff 25 00 00 00
	00		 jmp	 DWORD PTR __imp_??1?$CStringT@DV?$StrTraitMFC_DLL@DV?$ChTraitsCRT@D@ATL@@@@@ATL@@QAE@XZ
__unwindfunclet$?ConvertToFid@CDataConverter@@QAE?AV?$CStringT@DV?$StrTraitMFC_DLL@DV?$ChTraitsCRT@D@ATL@@@@@ATL@@V23@PAXH@Z$19:
  000aa	8d 4d 10	 lea	 ecx, DWORD PTR $T7[ebp]
  000ad	ff 25 00 00 00
	00		 jmp	 DWORD PTR __imp_??1?$CStringT@DV?$StrTraitMFC_DLL@DV?$ChTraitsCRT@D@ATL@@@@@ATL@@QAE@XZ
__unwindfunclet$?ConvertToFid@CDataConverter@@QAE?AV?$CStringT@DV?$StrTraitMFC_DLL@DV?$ChTraitsCRT@D@ATL@@@@@ATL@@V23@PAXH@Z$20:
  000b3	8d 4d 10	 lea	 ecx, DWORD PTR $T6[ebp]
  000b6	ff 25 00 00 00
	00		 jmp	 DWORD PTR __imp_??1?$CStringT@DV?$StrTraitMFC_DLL@DV?$ChTraitsCRT@D@ATL@@@@@ATL@@QAE@XZ
__unwindfunclet$?ConvertToFid@CDataConverter@@QAE?AV?$CStringT@DV?$StrTraitMFC_DLL@DV?$ChTraitsCRT@D@ATL@@@@@ATL@@V23@PAXH@Z$22:
  000bc	8d 4d 10	 lea	 ecx, DWORD PTR $T5[ebp]
  000bf	ff 25 00 00 00
	00		 jmp	 DWORD PTR __imp_??1?$CStringT@DV?$StrTraitMFC_DLL@DV?$ChTraitsCRT@D@ATL@@@@@ATL@@QAE@XZ
__unwindfunclet$?ConvertToFid@CDataConverter@@QAE?AV?$CStringT@DV?$StrTraitMFC_DLL@DV?$ChTraitsCRT@D@ATL@@@@@ATL@@V23@PAXH@Z$24:
  000c5	8d 4d 10	 lea	 ecx, DWORD PTR $T4[ebp]
  000c8	ff 25 00 00 00
	00		 jmp	 DWORD PTR __imp_??1?$CStringT@DV?$StrTraitMFC_DLL@DV?$ChTraitsCRT@D@ATL@@@@@ATL@@QAE@XZ
__unwindfunclet$?ConvertToFid@CDataConverter@@QAE?AV?$CStringT@DV?$StrTraitMFC_DLL@DV?$ChTraitsCRT@D@ATL@@@@@ATL@@V23@PAXH@Z$26:
  000ce	8d 4d 10	 lea	 ecx, DWORD PTR $T3[ebp]
  000d1	ff 25 00 00 00
	00		 jmp	 DWORD PTR __imp_??1?$CStringT@DV?$StrTraitMFC_DLL@DV?$ChTraitsCRT@D@ATL@@@@@ATL@@QAE@XZ
  000d7	cc		 int	 3
  000d8	cc		 int	 3
  000d9	cc		 int	 3
  000da	cc		 int	 3
  000db	cc		 int	 3
__ehhandler$?ConvertToFid@CDataConverter@@QAE?AV?$CStringT@DV?$StrTraitMFC_DLL@DV?$ChTraitsCRT@D@ATL@@@@@ATL@@V23@PAXH@Z:
  000dc	90		 npad	 1
  000dd	90		 npad	 1
  000de	8b 54 24 08	 mov	 edx, DWORD PTR [esp+8]
  000e2	8d 42 0c	 lea	 eax, DWORD PTR [edx+12]
  000e5	8b 4a f0	 mov	 ecx, DWORD PTR [edx-16]
  000e8	33 c8		 xor	 ecx, eax
  000ea	e8 00 00 00 00	 call	 @__security_check_cookie@4
  000ef	b8 00 00 00 00	 mov	 eax, OFFSET __ehfuncinfo$?ConvertToFid@CDataConverter@@QAE?AV?$CStringT@DV?$StrTraitMFC_DLL@DV?$ChTraitsCRT@D@ATL@@@@@ATL@@V23@PAXH@Z
  000f4	e9 00 00 00 00	 jmp	 ___CxxFrameHandler3
text$x	ENDS
?ConvertToFid@CDataConverter@@QAE?AV?$CStringT@DV?$StrTraitMFC_DLL@DV?$ChTraitsCRT@D@ATL@@@@@ATL@@V23@PAXH@Z ENDP ; CDataConverter::ConvertToFid
; Function compile flags: /Ogtp
; File D:\git\src\IBK\IBK_DRFN\ProjSrc\SrcDrfn\DrCommon\PartnerMng\DataConverter.cpp
; File C:\Program Files (x86)\Microsoft Visual Studio\2019\Community\VC\Tools\MSVC\14.29.30133\atlmfc\include\atlsimpstr.h
; File D:\git\src\IBK\IBK_DRFN\ProjSrc\SrcDrfn\DrCommon\PartnerMng\DataConverter.cpp
; File C:\Program Files (x86)\Microsoft Visual Studio\2019\Community\VC\Tools\MSVC\14.29.30133\atlmfc\include\atlsimpstr.h
; File D:\git\src\IBK\IBK_DRFN\ProjSrc\SrcDrfn\DrCommon\PartnerMng\DataConverter.cpp
;	COMDAT ?GetCodeType@CDataConverter@@QAEHV?$CStringT@DV?$StrTraitMFC_DLL@DV?$ChTraitsCRT@D@ATL@@@@@ATL@@@Z
_TEXT	SEGMENT
_pzType$ = -16						; size = 3
__$EHRec$ = -12						; size = 12
_strCode$ = 8						; size = 4
?GetCodeType@CDataConverter@@QAEHV?$CStringT@DV?$StrTraitMFC_DLL@DV?$ChTraitsCRT@D@ATL@@@@@ATL@@@Z PROC ; CDataConverter::GetCodeType, COMDAT
; _this$ = ecx

; 38   : {

  00000	55		 push	 ebp
  00001	8b ec		 mov	 ebp, esp
  00003	6a ff		 push	 -1
  00005	68 00 00 00 00	 push	 __ehhandler$?GetCodeType@CDataConverter@@QAEHV?$CStringT@DV?$StrTraitMFC_DLL@DV?$ChTraitsCRT@D@ATL@@@@@ATL@@@Z
  0000a	64 a1 00 00 00
	00		 mov	 eax, DWORD PTR fs:0
  00010	50		 push	 eax
  00011	51		 push	 ecx
  00012	53		 push	 ebx
  00013	56		 push	 esi
  00014	a1 00 00 00 00	 mov	 eax, DWORD PTR ___security_cookie
  00019	33 c5		 xor	 eax, ebp
  0001b	50		 push	 eax
  0001c	8d 45 f4	 lea	 eax, DWORD PTR __$EHRec$[ebp]
  0001f	64 a3 00 00 00
	00		 mov	 DWORD PTR fs:0, eax
; File C:\Program Files (x86)\Microsoft Visual Studio\2019\Community\VC\Tools\MSVC\14.29.30133\atlmfc\include\atlsimpstr.h

; 519  : 		return( GetData()->nDataLength );

  00025	8b 45 08	 mov	 eax, DWORD PTR _strCode$[ebp]
; File D:\git\src\IBK\IBK_DRFN\ProjSrc\SrcDrfn\DrCommon\PartnerMng\DataConverter.cpp

; 40   : 	int nLength = strCode.GetLength(), nType = -1;

  00028	83 ce ff	 or	 esi, -1
  0002b	c7 45 fc 00 00
	00 00		 mov	 DWORD PTR __$EHRec$[ebp+8], 0
; File C:\Program Files (x86)\Microsoft Visual Studio\2019\Community\VC\Tools\MSVC\14.29.30133\atlmfc\include\atlsimpstr.h

; 519  : 		return( GetData()->nDataLength );

  00032	8b 50 f4	 mov	 edx, DWORD PTR [eax-12]
; File D:\git\src\IBK\IBK_DRFN\ProjSrc\SrcDrfn\DrCommon\PartnerMng\DataConverter.cpp

; 42   : 	if(nLength < 3) return ERROR_CODE;

  00035	83 fa 03	 cmp	 edx, 3
  00038	7d 07		 jge	 SHORT $LN2@GetCodeTyp
  0003a	0b f6		 or	 esi, esi
  0003c	e9 d0 00 00 00	 jmp	 $LN24@GetCodeTyp
$LN2@GetCodeTyp:

; 43   : 	
; 44   : 	memcpy(pzType, (LPSTR)(LPCTSTR)strCode, 3);

  00041	66 8b 08	 mov	 cx, WORD PTR [eax]
  00044	66 89 4d f0	 mov	 WORD PTR _pzType$[ebp], cx
  00048	8a 48 02	 mov	 cl, BYTE PTR [eax+2]

; 45   : 	
; 46   : 	if(nLength == 6 && pzType[1] == '6' && pzType[2] == '9')

  0004b	83 fa 06	 cmp	 edx, 6
  0004e	75 31		 jne	 SHORT $LN5@GetCodeTyp
  00050	80 7d f1 36	 cmp	 BYTE PTR _pzType$[ebp+1], 54 ; 00000036H
  00054	75 0c		 jne	 SHORT $LN35@GetCodeTyp
  00056	80 f9 39	 cmp	 cl, 57			; 00000039H
  00059	75 07		 jne	 SHORT $LN35@GetCodeTyp

; 47   : 		nType = ETF_CODE;

  0005b	8b f2		 mov	 esi, edx
  0005d	e9 af 00 00 00	 jmp	 $LN24@GetCodeTyp
$LN35@GetCodeTyp:

; 48   : 	else if(nLength == 6 && strCode.GetAt(strCode.GetLength() - 1 ) == '0')

  00062	8d 42 ff	 lea	 eax, DWORD PTR [edx-1]
  00065	50		 push	 eax
  00066	8d 4d 08	 lea	 ecx, DWORD PTR _strCode$[ebp]
  00069	ff 15 00 00 00
	00		 call	 DWORD PTR __imp_?GetAt@?$CSimpleStringT@D$00@ATL@@QBEDH@Z
  0006f	3c 30		 cmp	 al, 48			; 00000030H
  00071	0f 85 9a 00 00
	00		 jne	 $LN24@GetCodeTyp

; 49   : 		nType = STOCK_CODE;

  00077	be 01 00 00 00	 mov	 esi, 1
  0007c	e9 90 00 00 00	 jmp	 $LN24@GetCodeTyp
$LN5@GetCodeTyp:

; 50   : 	else if(nLength >= 8 && IS_FUT_CODE_1(pzType[0]) && pzType[1] == '0' && pzType[2] == '1') // 0024696:    

  00081	8a 5d f1	 mov	 bl, BYTE PTR _pzType$[ebp+1]
  00084	8a 45 f0	 mov	 al, BYTE PTR _pzType$[ebp]
  00087	83 fa 08	 cmp	 edx, 8
  0008a	0f 8c 81 00 00
	00		 jl	 $LN24@GetCodeTyp
  00090	3c 31		 cmp	 al, 49			; 00000031H
  00092	74 04		 je	 SHORT $LN9@GetCodeTyp
  00094	3c 41		 cmp	 al, 65			; 00000041H
  00096	75 11		 jne	 SHORT $LN7@GetCodeTyp
$LN9@GetCodeTyp:
  00098	80 fb 30	 cmp	 bl, 48			; 00000030H
  0009b	75 0c		 jne	 SHORT $LN7@GetCodeTyp
  0009d	80 f9 31	 cmp	 cl, 49			; 00000031H
  000a0	75 07		 jne	 SHORT $LN7@GetCodeTyp

; 51   : 		nType = FUTURE_CODE;

  000a2	be 03 00 00 00	 mov	 esi, 3
  000a7	eb 68		 jmp	 SHORT $LN24@GetCodeTyp
$LN7@GetCodeTyp:

; 52   : 	else if(nLength == 8 && IS_CALL_CODE_1(pzType[0]) && pzType[1] == '0' && pzType[2] == '1')  // 0024696:    

  000a9	83 fa 08	 cmp	 edx, 8
  000ac	75 49		 jne	 SHORT $LN16@GetCodeTyp
  000ae	3c 32		 cmp	 al, 50			; 00000032H
  000b0	74 04		 je	 SHORT $LN12@GetCodeTyp
  000b2	3c 42		 cmp	 al, 66			; 00000042H
  000b4	75 11		 jne	 SHORT $LN36@GetCodeTyp
$LN12@GetCodeTyp:
  000b6	80 fb 30	 cmp	 bl, 48			; 00000030H
  000b9	75 0c		 jne	 SHORT $LN36@GetCodeTyp
  000bb	80 f9 31	 cmp	 cl, 49			; 00000031H
  000be	75 07		 jne	 SHORT $LN36@GetCodeTyp

; 53   : 		nType = OPTION_CALL_CODE;

  000c0	be 05 00 00 00	 mov	 esi, 5
  000c5	eb 4a		 jmp	 SHORT $LN24@GetCodeTyp
$LN36@GetCodeTyp:

; 54   : 	else if(nLength == 8 && IS_PUT_CODE_1(pzType[0]) && pzType[1] == '0' && pzType[2] == '1')  // 0024696:    

  000c7	3c 33		 cmp	 al, 51			; 00000033H
  000c9	74 04		 je	 SHORT $LN15@GetCodeTyp
  000cb	3c 43		 cmp	 al, 67			; 00000043H
  000cd	75 11		 jne	 SHORT $LN37@GetCodeTyp
$LN15@GetCodeTyp:
  000cf	80 fb 30	 cmp	 bl, 48			; 00000030H
  000d2	75 0c		 jne	 SHORT $LN37@GetCodeTyp
  000d4	80 f9 31	 cmp	 cl, 49			; 00000031H
  000d7	75 07		 jne	 SHORT $LN37@GetCodeTyp

; 55   : 		nType = OPTION_PUT_CODE;

  000d9	be 04 00 00 00	 mov	 esi, 4
  000de	eb 31		 jmp	 SHORT $LN24@GetCodeTyp
$LN37@GetCodeTyp:

; 56   : 	else if(nLength == 8 && (IS_CALL_CODE_1(pzType[0]) || IS_PUT_CODE_1(pzType[0])))  // 0024696:    

  000e0	3c 32		 cmp	 al, 50			; 00000032H
  000e2	74 0c		 je	 SHORT $LN19@GetCodeTyp
  000e4	3c 42		 cmp	 al, 66			; 00000042H
  000e6	74 08		 je	 SHORT $LN19@GetCodeTyp
  000e8	3c 33		 cmp	 al, 51			; 00000033H
  000ea	74 04		 je	 SHORT $LN19@GetCodeTyp
  000ec	3c 43		 cmp	 al, 67			; 00000043H
  000ee	75 09		 jne	 SHORT $LN38@GetCodeTyp
$LN19@GetCodeTyp:

; 57   : 		nType = STOCK_OPT_CODE;

  000f0	be 02 00 00 00	 mov	 esi, 2
  000f5	eb 1a		 jmp	 SHORT $LN24@GetCodeTyp
$LN16@GetCodeTyp:

; 58   : 	else if(nLength >= 8 && IS_FUT_CODE_1(pzType[0]) && pzType[1] == '0' && pzType[2] == '3')  // 0024696:    

  000f7	7c 18		 jl	 SHORT $LN24@GetCodeTyp
$LN38@GetCodeTyp:
  000f9	3c 31		 cmp	 al, 49			; 00000031H
  000fb	74 04		 je	 SHORT $LN21@GetCodeTyp
  000fd	3c 41		 cmp	 al, 65			; 00000041H
  000ff	75 10		 jne	 SHORT $LN24@GetCodeTyp
$LN21@GetCodeTyp:
  00101	80 fb 30	 cmp	 bl, 48			; 00000030H
  00104	75 0b		 jne	 SHORT $LN24@GetCodeTyp
  00106	80 f9 33	 cmp	 cl, 51			; 00000033H
  00109	b8 07 00 00 00	 mov	 eax, 7
  0010e	0f 44 f0	 cmove	 esi, eax
$LN24@GetCodeTyp:

; 59   : 		nType = STAR_FUTURE_CODE;
; 60   : 	
; 61   : 	return nType;

  00111	8d 4d 08	 lea	 ecx, DWORD PTR _strCode$[ebp]
  00114	ff 15 00 00 00
	00		 call	 DWORD PTR __imp_??1?$CStringT@DV?$StrTraitMFC_DLL@DV?$ChTraitsCRT@D@ATL@@@@@ATL@@QAE@XZ
  0011a	8b c6		 mov	 eax, esi

; 62   : }

  0011c	8b 4d f4	 mov	 ecx, DWORD PTR __$EHRec$[ebp]
  0011f	64 89 0d 00 00
	00 00		 mov	 DWORD PTR fs:0, ecx
  00126	59		 pop	 ecx
  00127	5e		 pop	 esi
  00128	5b		 pop	 ebx
  00129	8b e5		 mov	 esp, ebp
  0012b	5d		 pop	 ebp
  0012c	c2 04 00	 ret	 4
_TEXT	ENDS
;	COMDAT text$x
text$x	SEGMENT
__unwindfunclet$?GetCodeType@CDataConverter@@QAEHV?$CStringT@DV?$StrTraitMFC_DLL@DV?$ChTraitsCRT@D@ATL@@@@@ATL@@@Z$0:
  00000	8d 4d 08	 lea	 ecx, DWORD PTR _strCode$[ebp]
  00003	ff 25 00 00 00
	00		 jmp	 DWORD PTR __imp_??1?$CStringT@DV?$StrTraitMFC_DLL@DV?$ChTraitsCRT@D@ATL@@@@@ATL@@QAE@XZ
  00009	cc		 int	 3
  0000a	cc		 int	 3
  0000b	cc		 int	 3
  0000c	cc		 int	 3
  0000d	cc		 int	 3
__ehhandler$?GetCodeType@CDataConverter@@QAEHV?$CStringT@DV?$StrTraitMFC_DLL@DV?$ChTraitsCRT@D@ATL@@@@@ATL@@@Z:
  0000e	90		 npad	 1
  0000f	90		 npad	 1
  00010	8b 54 24 08	 mov	 edx, DWORD PTR [esp+8]
  00014	8d 42 0c	 lea	 eax, DWORD PTR [edx+12]
  00017	8b 4a f0	 mov	 ecx, DWORD PTR [edx-16]
  0001a	33 c8		 xor	 ecx, eax
  0001c	e8 00 00 00 00	 call	 @__security_check_cookie@4
  00021	b8 00 00 00 00	 mov	 eax, OFFSET __ehfuncinfo$?GetCodeType@CDataConverter@@QAEHV?$CStringT@DV?$StrTraitMFC_DLL@DV?$ChTraitsCRT@D@ATL@@@@@ATL@@@Z
  00026	e9 00 00 00 00	 jmp	 ___CxxFrameHandler3
text$x	ENDS
?GetCodeType@CDataConverter@@QAEHV?$CStringT@DV?$StrTraitMFC_DLL@DV?$ChTraitsCRT@D@ATL@@@@@ATL@@@Z ENDP ; CDataConverter::GetCodeType
; Function compile flags: /Ogtp
; File D:\git\src\IBK\IBK_DRFN\ProjSrc\SrcDrfn\DrCommon\PartnerMng\DataConverter.cpp
;	COMDAT ??1CDataConverter@@UAE@XZ
_TEXT	SEGMENT
??1CDataConverter@@UAE@XZ PROC				; CDataConverter::~CDataConverter, COMDAT
; _this$ = ecx

; 33   : {

  00000	56		 push	 esi
  00001	8b f1		 mov	 esi, ecx

; 34   : 
; 35   : }

  00003	8d 8e 18 0f 00
	00		 lea	 ecx, DWORD PTR [esi+3864]
  00009	c7 06 00 00 00
	00		 mov	 DWORD PTR [esi], OFFSET ??_7CDataConverter@@6B@
  0000f	e8 00 00 00 00	 call	 ??1CChartItemFXJan@@UAE@XZ ; CChartItemFXJan::~CChartItemFXJan
  00014	8d 8e 88 0e 00
	00		 lea	 ecx, DWORD PTR [esi+3720]
  0001a	e8 00 00 00 00	 call	 ??1CChartItemFXChe@@UAE@XZ ; CChartItemFXChe::~CChartItemFXChe
  0001f	8d 8e f8 0d 00
	00		 lea	 ecx, DWORD PTR [esi+3576]
  00025	e8 00 00 00 00	 call	 ??1CChartItemFXChe@@UAE@XZ ; CChartItemFXChe::~CChartItemFXChe
  0002a	8d 8e a4 0c 00
	00		 lea	 ecx, DWORD PTR [esi+3236]
  00030	e8 00 00 00 00	 call	 ??1CChartItemFX@@UAE@XZ	; CChartItemFX::~CChartItemFX
  00035	8d 8e 10 0c 00
	00		 lea	 ecx, DWORD PTR [esi+3088]
  0003b	e8 00 00 00 00	 call	 ??1CChartItemFXJan@@UAE@XZ ; CChartItemFXJan::~CChartItemFXJan
  00040	8d 8e 80 0b 00
	00		 lea	 ecx, DWORD PTR [esi+2944]
  00046	e8 00 00 00 00	 call	 ??1CChartItemFXChe@@UAE@XZ ; CChartItemFXChe::~CChartItemFXChe
  0004b	8d 8e a0 0a 00
	00		 lea	 ecx, DWORD PTR [esi+2720]
  00051	e8 00 00 00 00	 call	 ??1CChartItemFOForeignHoga@@UAE@XZ ; CChartItemFOForeignHoga::~CChartItemFOForeignHoga
  00056	8d 8e 28 09 00
	00		 lea	 ecx, DWORD PTR [esi+2344]
  0005c	e8 00 00 00 00	 call	 ??1CChartItemFOForeign@@UAE@XZ ; CChartItemFOForeign::~CChartItemFOForeign
  00061	8d 8e 10 09 00
	00		 lea	 ecx, DWORD PTR [esi+2320]
  00067	e8 00 00 00 00	 call	 ??1CChartItemFOHoga@@UAE@XZ ; CChartItemFOHoga::~CChartItemFOHoga
  0006c	8d 8e fc 08 00
	00		 lea	 ecx, DWORD PTR [esi+2300]
  00072	e8 00 00 00 00	 call	 ??1CChartItemDollar@@UAE@XZ ; CChartItemDollar::~CChartItemDollar
  00077	8d 8e e0 07 00
	00		 lea	 ecx, DWORD PTR [esi+2016]
  0007d	e8 00 00 00 00	 call	 ??1CChartItemPreFO@@UAE@XZ ; CChartItemPreFO::~CChartItemPreFO
  00082	8d 8e cc 06 00
	00		 lea	 ecx, DWORD PTR [esi+1740]
  00088	e8 00 00 00 00	 call	 ??1CChartItemFOJipyo@@UAE@XZ ; CChartItemFOJipyo::~CChartItemFOJipyo
  0008d	8d 8e 84 06 00
	00		 lea	 ecx, DWORD PTR [esi+1668]
  00093	e8 00 00 00 00	 call	 ??1CChartReplay@@UAE@XZ	; CChartReplay::~CChartReplay
  00098	8d 8e a4 05 00
	00		 lea	 ecx, DWORD PTR [esi+1444]
  0009e	e8 00 00 00 00	 call	 ??1CChartItemMarket@@UAE@XZ ; CChartItemMarket::~CChartItemMarket
  000a3	8d 8e a0 04 00
	00		 lea	 ecx, DWORD PTR [esi+1184]
  000a9	e8 00 00 00 00	 call	 ??1CChartItemUpjong@@UAE@XZ ; CChartItemUpjong::~CChartItemUpjong
  000ae	8d 8e 90 04 00
	00		 lea	 ecx, DWORD PTR [esi+1168]
  000b4	e8 00 00 00 00	 call	 ??1CChartItemSHoga@@UAE@XZ ; CChartItemSHoga::~CChartItemSHoga
  000b9	8d 8e 50 03 00
	00		 lea	 ecx, DWORD PTR [esi+848]
  000bf	e8 00 00 00 00	 call	 ??1CChartItemStock@@UAE@XZ ; CChartItemStock::~CChartItemStock
  000c4	8d 8e 34 02 00
	00		 lea	 ecx, DWORD PTR [esi+564]
  000ca	e8 00 00 00 00	 call	 ??1CChartItemSFO@@UAE@XZ ; CChartItemSFO::~CChartItemSFO
  000cf	8d 8e 24 01 00
	00		 lea	 ecx, DWORD PTR [esi+292]
  000d5	e8 00 00 00 00	 call	 ??1CChartItemForeign@@UAE@XZ ; CChartItemForeign::~CChartItemForeign
  000da	8d 4e 04	 lea	 ecx, DWORD PTR [esi+4]
  000dd	5e		 pop	 esi
  000de	e9 00 00 00 00	 jmp	 ??1CChartItemFO@@UAE@XZ	; CChartItemFO::~CChartItemFO
??1CDataConverter@@UAE@XZ ENDP				; CDataConverter::~CDataConverter
_TEXT	ENDS
; Function compile flags: /Ogtp
; File D:\git\src\IBK\IBK_DRFN\ProjSrc\SrcDrfn\DrCommon\PartnerMng\DataConverter.cpp
;	COMDAT ??0CDataConverter@@QAE@XZ
_TEXT	SEGMENT
_this$ = -16						; size = 4
__$EHRec$ = -12						; size = 12
??0CDataConverter@@QAE@XZ PROC				; CDataConverter::CDataConverter, COMDAT
; _this$ = ecx

; 28   : {

  00000	55		 push	 ebp
  00001	8b ec		 mov	 ebp, esp
  00003	6a ff		 push	 -1
  00005	68 00 00 00 00	 push	 __ehhandler$??0CDataConverter@@QAE@XZ
  0000a	64 a1 00 00 00
	00		 mov	 eax, DWORD PTR fs:0
  00010	50		 push	 eax
  00011	51		 push	 ecx
  00012	56		 push	 esi
  00013	a1 00 00 00 00	 mov	 eax, DWORD PTR ___security_cookie
  00018	33 c5		 xor	 eax, ebp
  0001a	50		 push	 eax
  0001b	8d 45 f4	 lea	 eax, DWORD PTR __$EHRec$[ebp]
  0001e	64 a3 00 00 00
	00		 mov	 DWORD PTR fs:0, eax
  00024	8b f1		 mov	 esi, ecx
  00026	89 75 f0	 mov	 DWORD PTR _this$[ebp], esi
  00029	8d 4e 04	 lea	 ecx, DWORD PTR [esi+4]
  0002c	c7 06 00 00 00
	00		 mov	 DWORD PTR [esi], OFFSET ??_7CDataConverter@@6B@
  00032	e8 00 00 00 00	 call	 ??0CChartItemFO@@QAE@XZ	; CChartItemFO::CChartItemFO
  00037	8d 8e 24 01 00
	00		 lea	 ecx, DWORD PTR [esi+292]
  0003d	c7 45 fc 00 00
	00 00		 mov	 DWORD PTR __$EHRec$[ebp+8], 0
  00044	e8 00 00 00 00	 call	 ??0CChartItemForeign@@QAE@XZ ; CChartItemForeign::CChartItemForeign
  00049	8d 8e 34 02 00
	00		 lea	 ecx, DWORD PTR [esi+564]
  0004f	c6 45 fc 01	 mov	 BYTE PTR __$EHRec$[ebp+8], 1
  00053	e8 00 00 00 00	 call	 ??0CChartItemSFO@@QAE@XZ ; CChartItemSFO::CChartItemSFO
  00058	8d 8e 50 03 00
	00		 lea	 ecx, DWORD PTR [esi+848]
  0005e	c6 45 fc 02	 mov	 BYTE PTR __$EHRec$[ebp+8], 2
  00062	e8 00 00 00 00	 call	 ??0CChartItemStock@@QAE@XZ ; CChartItemStock::CChartItemStock
  00067	8d 8e 90 04 00
	00		 lea	 ecx, DWORD PTR [esi+1168]
  0006d	c6 45 fc 03	 mov	 BYTE PTR __$EHRec$[ebp+8], 3
  00071	e8 00 00 00 00	 call	 ??0CChartItemSHoga@@QAE@XZ ; CChartItemSHoga::CChartItemSHoga
  00076	8d 8e a0 04 00
	00		 lea	 ecx, DWORD PTR [esi+1184]
  0007c	c6 45 fc 04	 mov	 BYTE PTR __$EHRec$[ebp+8], 4
  00080	e8 00 00 00 00	 call	 ??0CChartItemUpjong@@QAE@XZ ; CChartItemUpjong::CChartItemUpjong
  00085	8d 8e a4 05 00
	00		 lea	 ecx, DWORD PTR [esi+1444]
  0008b	c6 45 fc 05	 mov	 BYTE PTR __$EHRec$[ebp+8], 5
  0008f	e8 00 00 00 00	 call	 ??0CChartItemMarket@@QAE@XZ ; CChartItemMarket::CChartItemMarket
  00094	8d 8e 84 06 00
	00		 lea	 ecx, DWORD PTR [esi+1668]
  0009a	c6 45 fc 06	 mov	 BYTE PTR __$EHRec$[ebp+8], 6
  0009e	e8 00 00 00 00	 call	 ??0CChartReplay@@QAE@XZ	; CChartReplay::CChartReplay
  000a3	8d 8e cc 06 00
	00		 lea	 ecx, DWORD PTR [esi+1740]
  000a9	c6 45 fc 07	 mov	 BYTE PTR __$EHRec$[ebp+8], 7
  000ad	e8 00 00 00 00	 call	 ??0CChartItemFOJipyo@@QAE@XZ ; CChartItemFOJipyo::CChartItemFOJipyo
  000b2	8d 8e e0 07 00
	00		 lea	 ecx, DWORD PTR [esi+2016]
  000b8	c6 45 fc 08	 mov	 BYTE PTR __$EHRec$[ebp+8], 8
  000bc	e8 00 00 00 00	 call	 ??0CChartItemPreFO@@QAE@XZ ; CChartItemPreFO::CChartItemPreFO
  000c1	8d 8e fc 08 00
	00		 lea	 ecx, DWORD PTR [esi+2300]
  000c7	c6 45 fc 09	 mov	 BYTE PTR __$EHRec$[ebp+8], 9
  000cb	e8 00 00 00 00	 call	 ??0CChartItemDollar@@QAE@XZ ; CChartItemDollar::CChartItemDollar
  000d0	8d 8e 10 09 00
	00		 lea	 ecx, DWORD PTR [esi+2320]
  000d6	c6 45 fc 0a	 mov	 BYTE PTR __$EHRec$[ebp+8], 10 ; 0000000aH
  000da	e8 00 00 00 00	 call	 ??0CChartItemFOHoga@@QAE@XZ ; CChartItemFOHoga::CChartItemFOHoga
  000df	8d 8e 28 09 00
	00		 lea	 ecx, DWORD PTR [esi+2344]
  000e5	c6 45 fc 0b	 mov	 BYTE PTR __$EHRec$[ebp+8], 11 ; 0000000bH
  000e9	e8 00 00 00 00	 call	 ??0CChartItemFOForeign@@QAE@XZ ; CChartItemFOForeign::CChartItemFOForeign
  000ee	8d 8e a0 0a 00
	00		 lea	 ecx, DWORD PTR [esi+2720]
  000f4	c6 45 fc 0c	 mov	 BYTE PTR __$EHRec$[ebp+8], 12 ; 0000000cH
  000f8	e8 00 00 00 00	 call	 ??0CChartItemFOForeignHoga@@QAE@XZ ; CChartItemFOForeignHoga::CChartItemFOForeignHoga
  000fd	8d 8e 80 0b 00
	00		 lea	 ecx, DWORD PTR [esi+2944]
  00103	c6 45 fc 0d	 mov	 BYTE PTR __$EHRec$[ebp+8], 13 ; 0000000dH
  00107	e8 00 00 00 00	 call	 ??0CChartItemFXChe@@QAE@XZ ; CChartItemFXChe::CChartItemFXChe
  0010c	8d 8e 10 0c 00
	00		 lea	 ecx, DWORD PTR [esi+3088]
  00112	c6 45 fc 0e	 mov	 BYTE PTR __$EHRec$[ebp+8], 14 ; 0000000eH
  00116	e8 00 00 00 00	 call	 ??0CChartItemFXJan@@QAE@XZ ; CChartItemFXJan::CChartItemFXJan
  0011b	8d 8e a4 0c 00
	00		 lea	 ecx, DWORD PTR [esi+3236]
  00121	c6 45 fc 0f	 mov	 BYTE PTR __$EHRec$[ebp+8], 15 ; 0000000fH
  00125	e8 00 00 00 00	 call	 ??0CChartItemFX@@QAE@XZ	; CChartItemFX::CChartItemFX
  0012a	8d 8e f8 0d 00
	00		 lea	 ecx, DWORD PTR [esi+3576]
  00130	c6 45 fc 10	 mov	 BYTE PTR __$EHRec$[ebp+8], 16 ; 00000010H
  00134	e8 00 00 00 00	 call	 ??0CChartItemFXChe@@QAE@XZ ; CChartItemFXChe::CChartItemFXChe
  00139	8d 8e 88 0e 00
	00		 lea	 ecx, DWORD PTR [esi+3720]
  0013f	c6 45 fc 11	 mov	 BYTE PTR __$EHRec$[ebp+8], 17 ; 00000011H
  00143	e8 00 00 00 00	 call	 ??0CChartItemFXChe@@QAE@XZ ; CChartItemFXChe::CChartItemFXChe
  00148	8d 8e 18 0f 00
	00		 lea	 ecx, DWORD PTR [esi+3864]
  0014e	c6 45 fc 12	 mov	 BYTE PTR __$EHRec$[ebp+8], 18 ; 00000012H
  00152	e8 00 00 00 00	 call	 ??0CChartItemFXJan@@QAE@XZ ; CChartItemFXJan::CChartItemFXJan

; 29   : 
; 30   : }

  00157	8b c6		 mov	 eax, esi
  00159	8b 4d f4	 mov	 ecx, DWORD PTR __$EHRec$[ebp]
  0015c	64 89 0d 00 00
	00 00		 mov	 DWORD PTR fs:0, ecx
  00163	59		 pop	 ecx
  00164	5e		 pop	 esi
  00165	8b e5		 mov	 esp, ebp
  00167	5d		 pop	 ebp
  00168	c3		 ret	 0
_TEXT	ENDS
;	COMDAT text$x
text$x	SEGMENT
__unwindfunclet$??0CDataConverter@@QAE@XZ$0:
  00000	8b 4d f0	 mov	 ecx, DWORD PTR _this$[ebp]
  00003	83 c1 04	 add	 ecx, 4
  00006	e9 00 00 00 00	 jmp	 ??1CChartItemFO@@UAE@XZ	; CChartItemFO::~CChartItemFO
__unwindfunclet$??0CDataConverter@@QAE@XZ$1:
  0000b	8b 4d f0	 mov	 ecx, DWORD PTR _this$[ebp]
  0000e	81 c1 24 01 00
	00		 add	 ecx, 292		; 00000124H
  00014	e9 00 00 00 00	 jmp	 ??1CChartItemForeign@@UAE@XZ ; CChartItemForeign::~CChartItemForeign
__unwindfunclet$??0CDataConverter@@QAE@XZ$2:
  00019	8b 4d f0	 mov	 ecx, DWORD PTR _this$[ebp]
  0001c	81 c1 34 02 00
	00		 add	 ecx, 564		; 00000234H
  00022	e9 00 00 00 00	 jmp	 ??1CChartItemSFO@@UAE@XZ ; CChartItemSFO::~CChartItemSFO
__unwindfunclet$??0CDataConverter@@QAE@XZ$3:
  00027	8b 4d f0	 mov	 ecx, DWORD PTR _this$[ebp]
  0002a	81 c1 50 03 00
	00		 add	 ecx, 848		; 00000350H
  00030	e9 00 00 00 00	 jmp	 ??1CChartItemStock@@UAE@XZ ; CChartItemStock::~CChartItemStock
__unwindfunclet$??0CDataConverter@@QAE@XZ$4:
  00035	8b 4d f0	 mov	 ecx, DWORD PTR _this$[ebp]
  00038	81 c1 90 04 00
	00		 add	 ecx, 1168		; 00000490H
  0003e	e9 00 00 00 00	 jmp	 ??1CChartItemSHoga@@UAE@XZ ; CChartItemSHoga::~CChartItemSHoga
__unwindfunclet$??0CDataConverter@@QAE@XZ$5:
  00043	8b 4d f0	 mov	 ecx, DWORD PTR _this$[ebp]
  00046	81 c1 a0 04 00
	00		 add	 ecx, 1184		; 000004a0H
  0004c	e9 00 00 00 00	 jmp	 ??1CChartItemUpjong@@UAE@XZ ; CChartItemUpjong::~CChartItemUpjong
__unwindfunclet$??0CDataConverter@@QAE@XZ$6:
  00051	8b 4d f0	 mov	 ecx, DWORD PTR _this$[ebp]
  00054	81 c1 a4 05 00
	00		 add	 ecx, 1444		; 000005a4H
  0005a	e9 00 00 00 00	 jmp	 ??1CChartItemMarket@@UAE@XZ ; CChartItemMarket::~CChartItemMarket
__unwindfunclet$??0CDataConverter@@QAE@XZ$7:
  0005f	8b 4d f0	 mov	 ecx, DWORD PTR _this$[ebp]
  00062	81 c1 84 06 00
	00		 add	 ecx, 1668		; 00000684H
  00068	e9 00 00 00 00	 jmp	 ??1CChartReplay@@UAE@XZ	; CChartReplay::~CChartReplay
__unwindfunclet$??0CDataConverter@@QAE@XZ$8:
  0006d	8b 4d f0	 mov	 ecx, DWORD PTR _this$[ebp]
  00070	81 c1 cc 06 00
	00		 add	 ecx, 1740		; 000006ccH
  00076	e9 00 00 00 00	 jmp	 ??1CChartItemFOJipyo@@UAE@XZ ; CChartItemFOJipyo::~CChartItemFOJipyo
__unwindfunclet$??0CDataConverter@@QAE@XZ$9:
  0007b	8b 4d f0	 mov	 ecx, DWORD PTR _this$[ebp]
  0007e	81 c1 e0 07 00
	00		 add	 ecx, 2016		; 000007e0H
  00084	e9 00 00 00 00	 jmp	 ??1CChartItemPreFO@@UAE@XZ ; CChartItemPreFO::~CChartItemPreFO
__unwindfunclet$??0CDataConverter@@QAE@XZ$10:
  00089	8b 4d f0	 mov	 ecx, DWORD PTR _this$[ebp]
  0008c	81 c1 fc 08 00
	00		 add	 ecx, 2300		; 000008fcH
  00092	e9 00 00 00 00	 jmp	 ??1CChartItemDollar@@UAE@XZ ; CChartItemDollar::~CChartItemDollar
__unwindfunclet$??0CDataConverter@@QAE@XZ$11:
  00097	8b 4d f0	 mov	 ecx, DWORD PTR _this$[ebp]
  0009a	81 c1 10 09 00
	00		 add	 ecx, 2320		; 00000910H
  000a0	e9 00 00 00 00	 jmp	 ??1CChartItemFOHoga@@UAE@XZ ; CChartItemFOHoga::~CChartItemFOHoga
__unwindfunclet$??0CDataConverter@@QAE@XZ$12:
  000a5	8b 4d f0	 mov	 ecx, DWORD PTR _this$[ebp]
  000a8	81 c1 28 09 00
	00		 add	 ecx, 2344		; 00000928H
  000ae	e9 00 00 00 00	 jmp	 ??1CChartItemFOForeign@@UAE@XZ ; CChartItemFOForeign::~CChartItemFOForeign
__unwindfunclet$??0CDataConverter@@QAE@XZ$13:
  000b3	8b 4d f0	 mov	 ecx, DWORD PTR _this$[ebp]
  000b6	81 c1 a0 0a 00
	00		 add	 ecx, 2720		; 00000aa0H
  000bc	e9 00 00 00 00	 jmp	 ??1CChartItemFOForeignHoga@@UAE@XZ ; CChartItemFOForeignHoga::~CChartItemFOForeignHoga
__unwindfunclet$??0CDataConverter@@QAE@XZ$14:
  000c1	8b 4d f0	 mov	 ecx, DWORD PTR _this$[ebp]
  000c4	81 c1 80 0b 00
	00		 add	 ecx, 2944		; 00000b80H
  000ca	e9 00 00 00 00	 jmp	 ??1CChartItemFXChe@@UAE@XZ ; CChartItemFXChe::~CChartItemFXChe
__unwindfunclet$??0CDataConverter@@QAE@XZ$15:
  000cf	8b 4d f0	 mov	 ecx, DWORD PTR _this$[ebp]
  000d2	81 c1 10 0c 00
	00		 add	 ecx, 3088		; 00000c10H
  000d8	e9 00 00 00 00	 jmp	 ??1CChartItemFXJan@@UAE@XZ ; CChartItemFXJan::~CChartItemFXJan
__unwindfunclet$??0CDataConverter@@QAE@XZ$16:
  000dd	8b 4d f0	 mov	 ecx, DWORD PTR _this$[ebp]
  000e0	81 c1 a4 0c 00
	00		 add	 ecx, 3236		; 00000ca4H
  000e6	e9 00 00 00 00	 jmp	 ??1CChartItemFX@@UAE@XZ	; CChartItemFX::~CChartItemFX
__unwindfunclet$??0CDataConverter@@QAE@XZ$17:
  000eb	8b 4d f0	 mov	 ecx, DWORD PTR _this$[ebp]
  000ee	81 c1 f8 0d 00
	00		 add	 ecx, 3576		; 00000df8H
  000f4	e9 00 00 00 00	 jmp	 ??1CChartItemFXChe@@UAE@XZ ; CChartItemFXChe::~CChartItemFXChe
__unwindfunclet$??0CDataConverter@@QAE@XZ$18:
  000f9	8b 4d f0	 mov	 ecx, DWORD PTR _this$[ebp]
  000fc	81 c1 88 0e 00
	00		 add	 ecx, 3720		; 00000e88H
  00102	e9 00 00 00 00	 jmp	 ??1CChartItemFXChe@@UAE@XZ ; CChartItemFXChe::~CChartItemFXChe
  00107	cc		 int	 3
  00108	cc		 int	 3
  00109	cc		 int	 3
  0010a	cc		 int	 3
  0010b	cc		 int	 3
__ehhandler$??0CDataConverter@@QAE@XZ:
  0010c	90		 npad	 1
  0010d	90		 npad	 1
  0010e	8b 54 24 08	 mov	 edx, DWORD PTR [esp+8]
  00112	8d 42 0c	 lea	 eax, DWORD PTR [edx+12]
  00115	8b 4a f4	 mov	 ecx, DWORD PTR [edx-12]
  00118	33 c8		 xor	 ecx, eax
  0011a	e8 00 00 00 00	 call	 @__security_check_cookie@4
  0011f	b8 00 00 00 00	 mov	 eax, OFFSET __ehfuncinfo$??0CDataConverter@@QAE@XZ
  00124	e9 00 00 00 00	 jmp	 ___CxxFrameHandler3
text$x	ENDS
??0CDataConverter@@QAE@XZ ENDP				; CDataConverter::CDataConverter
; Function compile flags: /Ogtp
;	COMDAT ??1CChartBozoInput@@QAE@XZ
_TEXT	SEGMENT
??1CChartBozoInput@@QAE@XZ PROC				; CChartBozoInput::~CChartBozoInput, COMDAT
; _this$ = ecx
  00000	56		 push	 esi
  00001	8b f1		 mov	 esi, ecx
  00003	8d 8e c0 00 00
	00		 lea	 ecx, DWORD PTR [esi+192]
  00009	ff 15 00 00 00
	00		 call	 DWORD PTR __imp_??1?$CStringT@DV?$StrTraitMFC_DLL@DV?$ChTraitsCRT@D@ATL@@@@@ATL@@QAE@XZ
  0000f	8d 4e 64	 lea	 ecx, DWORD PTR [esi+100]
  00012	ff 15 00 00 00
	00		 call	 DWORD PTR __imp_??1?$CStringT@DV?$StrTraitMFC_DLL@DV?$ChTraitsCRT@D@ATL@@@@@ATL@@QAE@XZ
  00018	8d 4e 60	 lea	 ecx, DWORD PTR [esi+96]
  0001b	ff 15 00 00 00
	00		 call	 DWORD PTR __imp_??1?$CStringT@DV?$StrTraitMFC_DLL@DV?$ChTraitsCRT@D@ATL@@@@@ATL@@QAE@XZ
  00021	8d 4e 5c	 lea	 ecx, DWORD PTR [esi+92]
  00024	ff 15 00 00 00
	00		 call	 DWORD PTR __imp_??1?$CStringT@DV?$StrTraitMFC_DLL@DV?$ChTraitsCRT@D@ATL@@@@@ATL@@QAE@XZ
  0002a	8d 4e 58	 lea	 ecx, DWORD PTR [esi+88]
  0002d	ff 15 00 00 00
	00		 call	 DWORD PTR __imp_??1?$CStringT@DV?$StrTraitMFC_DLL@DV?$ChTraitsCRT@D@ATL@@@@@ATL@@QAE@XZ
  00033	8d 4e 54	 lea	 ecx, DWORD PTR [esi+84]
  00036	ff 15 00 00 00
	00		 call	 DWORD PTR __imp_??1?$CStringT@DV?$StrTraitMFC_DLL@DV?$ChTraitsCRT@D@ATL@@@@@ATL@@QAE@XZ
  0003c	8d 4e 50	 lea	 ecx, DWORD PTR [esi+80]
  0003f	ff 15 00 00 00
	00		 call	 DWORD PTR __imp_??1?$CStringT@DV?$StrTraitMFC_DLL@DV?$ChTraitsCRT@D@ATL@@@@@ATL@@QAE@XZ
  00045	8d 4e 4c	 lea	 ecx, DWORD PTR [esi+76]
  00048	ff 15 00 00 00
	00		 call	 DWORD PTR __imp_??1?$CStringT@DV?$StrTraitMFC_DLL@DV?$ChTraitsCRT@D@ATL@@@@@ATL@@QAE@XZ
  0004e	8d 4e 48	 lea	 ecx, DWORD PTR [esi+72]
  00051	ff 15 00 00 00
	00		 call	 DWORD PTR __imp_??1?$CStringT@DV?$StrTraitMFC_DLL@DV?$ChTraitsCRT@D@ATL@@@@@ATL@@QAE@XZ
  00057	8d 4e 44	 lea	 ecx, DWORD PTR [esi+68]
  0005a	ff 15 00 00 00
	00		 call	 DWORD PTR __imp_??1?$CStringT@DV?$StrTraitMFC_DLL@DV?$ChTraitsCRT@D@ATL@@@@@ATL@@QAE@XZ
  00060	8d 4e 40	 lea	 ecx, DWORD PTR [esi+64]
  00063	ff 15 00 00 00
	00		 call	 DWORD PTR __imp_??1?$CStringT@DV?$StrTraitMFC_DLL@DV?$ChTraitsCRT@D@ATL@@@@@ATL@@QAE@XZ
  00069	8d 4e 3c	 lea	 ecx, DWORD PTR [esi+60]
  0006c	ff 15 00 00 00
	00		 call	 DWORD PTR __imp_??1?$CStringT@DV?$StrTraitMFC_DLL@DV?$ChTraitsCRT@D@ATL@@@@@ATL@@QAE@XZ
  00072	8d 4e 38	 lea	 ecx, DWORD PTR [esi+56]
  00075	ff 15 00 00 00
	00		 call	 DWORD PTR __imp_??1?$CStringT@DV?$StrTraitMFC_DLL@DV?$ChTraitsCRT@D@ATL@@@@@ATL@@QAE@XZ
  0007b	8d 4e 34	 lea	 ecx, DWORD PTR [esi+52]
  0007e	ff 15 00 00 00
	00		 call	 DWORD PTR __imp_??1?$CStringT@DV?$StrTraitMFC_DLL@DV?$ChTraitsCRT@D@ATL@@@@@ATL@@QAE@XZ
  00084	8d 4e 30	 lea	 ecx, DWORD PTR [esi+48]
  00087	ff 15 00 00 00
	00		 call	 DWORD PTR __imp_??1?$CStringT@DV?$StrTraitMFC_DLL@DV?$ChTraitsCRT@D@ATL@@@@@ATL@@QAE@XZ
  0008d	8d 4e 2c	 lea	 ecx, DWORD PTR [esi+44]
  00090	ff 15 00 00 00
	00		 call	 DWORD PTR __imp_??1?$CStringT@DV?$StrTraitMFC_DLL@DV?$ChTraitsCRT@D@ATL@@@@@ATL@@QAE@XZ
  00096	8d 4e 28	 lea	 ecx, DWORD PTR [esi+40]
  00099	ff 15 00 00 00
	00		 call	 DWORD PTR __imp_??1?$CStringT@DV?$StrTraitMFC_DLL@DV?$ChTraitsCRT@D@ATL@@@@@ATL@@QAE@XZ
  0009f	8d 4e 24	 lea	 ecx, DWORD PTR [esi+36]
  000a2	ff 15 00 00 00
	00		 call	 DWORD PTR __imp_??1?$CStringT@DV?$StrTraitMFC_DLL@DV?$ChTraitsCRT@D@ATL@@@@@ATL@@QAE@XZ
  000a8	8d 4e 20	 lea	 ecx, DWORD PTR [esi+32]
  000ab	ff 15 00 00 00
	00		 call	 DWORD PTR __imp_??1?$CStringT@DV?$StrTraitMFC_DLL@DV?$ChTraitsCRT@D@ATL@@@@@ATL@@QAE@XZ
  000b1	8d 4e 1c	 lea	 ecx, DWORD PTR [esi+28]
  000b4	ff 15 00 00 00
	00		 call	 DWORD PTR __imp_??1?$CStringT@DV?$StrTraitMFC_DLL@DV?$ChTraitsCRT@D@ATL@@@@@ATL@@QAE@XZ
  000ba	8d 4e 18	 lea	 ecx, DWORD PTR [esi+24]
  000bd	ff 15 00 00 00
	00		 call	 DWORD PTR __imp_??1?$CStringT@DV?$StrTraitMFC_DLL@DV?$ChTraitsCRT@D@ATL@@@@@ATL@@QAE@XZ
  000c3	8d 4e 14	 lea	 ecx, DWORD PTR [esi+20]
  000c6	ff 15 00 00 00
	00		 call	 DWORD PTR __imp_??1?$CStringT@DV?$StrTraitMFC_DLL@DV?$ChTraitsCRT@D@ATL@@@@@ATL@@QAE@XZ
  000cc	8d 4e 10	 lea	 ecx, DWORD PTR [esi+16]
  000cf	ff 15 00 00 00
	00		 call	 DWORD PTR __imp_??1?$CStringT@DV?$StrTraitMFC_DLL@DV?$ChTraitsCRT@D@ATL@@@@@ATL@@QAE@XZ
  000d5	8d 4e 0c	 lea	 ecx, DWORD PTR [esi+12]
  000d8	ff 15 00 00 00
	00		 call	 DWORD PTR __imp_??1?$CStringT@DV?$StrTraitMFC_DLL@DV?$ChTraitsCRT@D@ATL@@@@@ATL@@QAE@XZ
  000de	8d 4e 08	 lea	 ecx, DWORD PTR [esi+8]
  000e1	ff 15 00 00 00
	00		 call	 DWORD PTR __imp_??1?$CStringT@DV?$StrTraitMFC_DLL@DV?$ChTraitsCRT@D@ATL@@@@@ATL@@QAE@XZ
  000e7	8d 4e 04	 lea	 ecx, DWORD PTR [esi+4]
  000ea	5e		 pop	 esi
  000eb	ff 25 00 00 00
	00		 jmp	 DWORD PTR __imp_??1?$CStringT@DV?$StrTraitMFC_DLL@DV?$ChTraitsCRT@D@ATL@@@@@ATL@@QAE@XZ
??1CChartBozoInput@@QAE@XZ ENDP				; CChartBozoInput::~CChartBozoInput
_TEXT	ENDS
; Function compile flags: /Ogtp
; File D:\git\src\IBK\IBK_DRFN\ProjSrc\SrcDrfn\inc\IChartBozoMsgMng.h
;	COMDAT ??4CChartBozoInput@@UAEAAV0@ABV0@@Z
_TEXT	SEGMENT
_item$ = 8						; size = 4
??4CChartBozoInput@@UAEAAV0@ABV0@@Z PROC		; CChartBozoInput::operator=, COMDAT
; _this$ = ecx

; 124  : 	virtual CChartBozoInput& operator = (const CChartBozoInput& item)	{ Copy(item);	return *this; };

  00000	55		 push	 ebp
  00001	8b ec		 mov	 ebp, esp
  00003	56		 push	 esi
  00004	ff 75 08	 push	 DWORD PTR _item$[ebp]
  00007	8b f1		 mov	 esi, ecx
  00009	8b 06		 mov	 eax, DWORD PTR [esi]
  0000b	ff 10		 call	 DWORD PTR [eax]
  0000d	8b c6		 mov	 eax, esi
  0000f	5e		 pop	 esi
  00010	5d		 pop	 ebp
  00011	c2 04 00	 ret	 4
??4CChartBozoInput@@UAEAAV0@ABV0@@Z ENDP		; CChartBozoInput::operator=
_TEXT	ENDS
; Function compile flags: /Ogtp
; File D:\git\src\IBK\IBK_DRFN\ProjSrc\SrcDrfn\inc\IChartBozoMsgMng.h
;	COMDAT ?Copy@CChartBozoInput@@UAEXABV1@@Z
_TEXT	SEGMENT
_right$ = 8						; size = 4
?Copy@CChartBozoInput@@UAEXABV1@@Z PROC			; CChartBozoInput::Copy, COMDAT
; _this$ = ecx

; 72   : 	{

  00000	55		 push	 ebp
  00001	8b ec		 mov	 ebp, esp
  00003	56		 push	 esi

; 73   : 		m_sMarket		= right.m_sMarket;

  00004	8b 75 08	 mov	 esi, DWORD PTR _right$[ebp]
  00007	57		 push	 edi
  00008	8b f9		 mov	 edi, ecx
  0000a	8d 46 04	 lea	 eax, DWORD PTR [esi+4]
  0000d	50		 push	 eax
  0000e	8d 4f 04	 lea	 ecx, DWORD PTR [edi+4]
  00011	ff 15 00 00 00
	00		 call	 DWORD PTR __imp_??4?$CStringT@DV?$StrTraitMFC_DLL@DV?$ChTraitsCRT@D@ATL@@@@@ATL@@QAEAAV01@ABV01@@Z

; 74   : 		m_sShcode		= right.m_sShcode;

  00017	8d 46 08	 lea	 eax, DWORD PTR [esi+8]
  0001a	50		 push	 eax
  0001b	8d 4f 08	 lea	 ecx, DWORD PTR [edi+8]
  0001e	ff 15 00 00 00
	00		 call	 DWORD PTR __imp_??4?$CStringT@DV?$StrTraitMFC_DLL@DV?$ChTraitsCRT@D@ATL@@@@@ATL@@QAEAAV01@ABV01@@Z

; 75   : 		m_sTick			= right.m_sTick;

  00024	8d 46 0c	 lea	 eax, DWORD PTR [esi+12]
  00027	50		 push	 eax
  00028	8d 4f 0c	 lea	 ecx, DWORD PTR [edi+12]
  0002b	ff 15 00 00 00
	00		 call	 DWORD PTR __imp_??4?$CStringT@DV?$StrTraitMFC_DLL@DV?$ChTraitsCRT@D@ATL@@@@@ATL@@QAEAAV01@ABV01@@Z

; 76   : 		m_sTerm			= right.m_sTerm;

  00031	8d 46 10	 lea	 eax, DWORD PTR [esi+16]
  00034	50		 push	 eax
  00035	8d 4f 10	 lea	 ecx, DWORD PTR [edi+16]
  00038	ff 15 00 00 00
	00		 call	 DWORD PTR __imp_??4?$CStringT@DV?$StrTraitMFC_DLL@DV?$ChTraitsCRT@D@ATL@@@@@ATL@@QAEAAV01@ABV01@@Z

; 77   : 		m_sNxtFlg		= right.m_sNxtFlg;

  0003e	8d 46 14	 lea	 eax, DWORD PTR [esi+20]
  00041	50		 push	 eax
  00042	8d 4f 14	 lea	 ecx, DWORD PTR [edi+20]
  00045	ff 15 00 00 00
	00		 call	 DWORD PTR __imp_??4?$CStringT@DV?$StrTraitMFC_DLL@DV?$ChTraitsCRT@D@ATL@@@@@ATL@@QAEAAV01@ABV01@@Z

; 78   : 		m_sDataType		= right.m_sDataType;

  0004b	8d 46 18	 lea	 eax, DWORD PTR [esi+24]
  0004e	50		 push	 eax
  0004f	8d 4f 18	 lea	 ecx, DWORD PTR [edi+24]
  00052	ff 15 00 00 00
	00		 call	 DWORD PTR __imp_??4?$CStringT@DV?$StrTraitMFC_DLL@DV?$ChTraitsCRT@D@ATL@@@@@ATL@@QAEAAV01@ABV01@@Z

; 79   : 		m_sVolume		= right.m_sVolume;

  00058	8d 46 20	 lea	 eax, DWORD PTR [esi+32]
  0005b	50		 push	 eax
  0005c	8d 4f 20	 lea	 ecx, DWORD PTR [edi+32]
  0005f	ff 15 00 00 00
	00		 call	 DWORD PTR __imp_??4?$CStringT@DV?$StrTraitMFC_DLL@DV?$ChTraitsCRT@D@ATL@@@@@ATL@@QAEAAV01@ABV01@@Z

; 80   : 		m_sUpLmtPrice	= right.m_sUpLmtPrice;

  00065	8d 46 24	 lea	 eax, DWORD PTR [esi+36]
  00068	50		 push	 eax
  00069	8d 4f 24	 lea	 ecx, DWORD PTR [edi+36]
  0006c	ff 15 00 00 00
	00		 call	 DWORD PTR __imp_??4?$CStringT@DV?$StrTraitMFC_DLL@DV?$ChTraitsCRT@D@ATL@@@@@ATL@@QAEAAV01@ABV01@@Z

; 81   : 		m_sDnLmtPrice	= right.m_sDnLmtPrice;

  00072	8d 46 28	 lea	 eax, DWORD PTR [esi+40]
  00075	50		 push	 eax
  00076	8d 4f 28	 lea	 ecx, DWORD PTR [edi+40]
  00079	ff 15 00 00 00
	00		 call	 DWORD PTR __imp_??4?$CStringT@DV?$StrTraitMFC_DLL@DV?$ChTraitsCRT@D@ATL@@@@@ATL@@QAEAAV01@ABV01@@Z

; 82   : 		m_sOpen			= right.m_sOpen;

  0007f	8d 46 2c	 lea	 eax, DWORD PTR [esi+44]
  00082	50		 push	 eax
  00083	8d 4f 2c	 lea	 ecx, DWORD PTR [edi+44]
  00086	ff 15 00 00 00
	00		 call	 DWORD PTR __imp_??4?$CStringT@DV?$StrTraitMFC_DLL@DV?$ChTraitsCRT@D@ATL@@@@@ATL@@QAEAAV01@ABV01@@Z

; 83   : 		m_sHigh			= right.m_sHigh;

  0008c	8d 46 30	 lea	 eax, DWORD PTR [esi+48]
  0008f	50		 push	 eax
  00090	8d 4f 30	 lea	 ecx, DWORD PTR [edi+48]
  00093	ff 15 00 00 00
	00		 call	 DWORD PTR __imp_??4?$CStringT@DV?$StrTraitMFC_DLL@DV?$ChTraitsCRT@D@ATL@@@@@ATL@@QAEAAV01@ABV01@@Z

; 84   : 		m_sLow			= right.m_sLow;

  00099	8d 46 34	 lea	 eax, DWORD PTR [esi+52]
  0009c	50		 push	 eax
  0009d	8d 4f 34	 lea	 ecx, DWORD PTR [edi+52]
  000a0	ff 15 00 00 00
	00		 call	 DWORD PTR __imp_??4?$CStringT@DV?$StrTraitMFC_DLL@DV?$ChTraitsCRT@D@ATL@@@@@ATL@@QAEAAV01@ABV01@@Z

; 85   : 		m_sPrice		= right.m_sPrice;		// 20100326_JS.Kim.     

  000a6	8d 46 1c	 lea	 eax, DWORD PTR [esi+28]
  000a9	50		 push	 eax
  000aa	8d 4f 1c	 lea	 ecx, DWORD PTR [edi+28]
  000ad	ff 15 00 00 00
	00		 call	 DWORD PTR __imp_??4?$CStringT@DV?$StrTraitMFC_DLL@DV?$ChTraitsCRT@D@ATL@@@@@ATL@@QAEAAV01@ABV01@@Z

; 86   : 		m_sPreprice		= right.m_sPreprice;

  000b3	8d 46 38	 lea	 eax, DWORD PTR [esi+56]
  000b6	50		 push	 eax
  000b7	8d 4f 38	 lea	 ecx, DWORD PTR [edi+56]
  000ba	ff 15 00 00 00
	00		 call	 DWORD PTR __imp_??4?$CStringT@DV?$StrTraitMFC_DLL@DV?$ChTraitsCRT@D@ATL@@@@@ATL@@QAEAAV01@ABV01@@Z

; 87   : 		m_sPreVolume	= right.m_sPreVolume;

  000c0	8d 46 3c	 lea	 eax, DWORD PTR [esi+60]
  000c3	50		 push	 eax
  000c4	8d 4f 3c	 lea	 ecx, DWORD PTR [edi+60]
  000c7	ff 15 00 00 00
	00		 call	 DWORD PTR __imp_??4?$CStringT@DV?$StrTraitMFC_DLL@DV?$ChTraitsCRT@D@ATL@@@@@ATL@@QAEAAV01@ABV01@@Z

; 88   : 		m_sStartTime	= right.m_sStartTime;

  000cd	8d 46 40	 lea	 eax, DWORD PTR [esi+64]
  000d0	50		 push	 eax
  000d1	8d 4f 40	 lea	 ecx, DWORD PTR [edi+64]
  000d4	ff 15 00 00 00
	00		 call	 DWORD PTR __imp_??4?$CStringT@DV?$StrTraitMFC_DLL@DV?$ChTraitsCRT@D@ATL@@@@@ATL@@QAEAAV01@ABV01@@Z

; 89   : 		m_sFirstClose	= right.m_sFirstClose;

  000da	8d 46 44	 lea	 eax, DWORD PTR [esi+68]
  000dd	50		 push	 eax
  000de	8d 4f 44	 lea	 ecx, DWORD PTR [edi+68]
  000e1	ff 15 00 00 00
	00		 call	 DWORD PTR __imp_??4?$CStringT@DV?$StrTraitMFC_DLL@DV?$ChTraitsCRT@D@ATL@@@@@ATL@@QAEAAV01@ABV01@@Z

; 90   : 		m_sPreOpen		= right.m_sPreOpen;

  000e7	8d 46 48	 lea	 eax, DWORD PTR [esi+72]
  000ea	50		 push	 eax
  000eb	8d 4f 48	 lea	 ecx, DWORD PTR [edi+72]
  000ee	ff 15 00 00 00
	00		 call	 DWORD PTR __imp_??4?$CStringT@DV?$StrTraitMFC_DLL@DV?$ChTraitsCRT@D@ATL@@@@@ATL@@QAEAAV01@ABV01@@Z

; 91   : 		m_sPreHigh		= right.m_sPreHigh;

  000f4	8d 46 4c	 lea	 eax, DWORD PTR [esi+76]
  000f7	50		 push	 eax
  000f8	8d 4f 4c	 lea	 ecx, DWORD PTR [edi+76]
  000fb	ff 15 00 00 00
	00		 call	 DWORD PTR __imp_??4?$CStringT@DV?$StrTraitMFC_DLL@DV?$ChTraitsCRT@D@ATL@@@@@ATL@@QAEAAV01@ABV01@@Z

; 92   : 		m_sPreLow		= right.m_sPreLow;

  00101	8d 46 50	 lea	 eax, DWORD PTR [esi+80]
  00104	50		 push	 eax
  00105	8d 4f 50	 lea	 ecx, DWORD PTR [edi+80]
  00108	ff 15 00 00 00
	00		 call	 DWORD PTR __imp_??4?$CStringT@DV?$StrTraitMFC_DLL@DV?$ChTraitsCRT@D@ATL@@@@@ATL@@QAEAAV01@ABV01@@Z

; 93   : 		m_sWonDollor	= right.m_sWonDollor;

  0010e	8d 46 54	 lea	 eax, DWORD PTR [esi+84]
  00111	50		 push	 eax
  00112	8d 4f 54	 lea	 ecx, DWORD PTR [edi+84]
  00115	ff 15 00 00 00
	00		 call	 DWORD PTR __imp_??4?$CStringT@DV?$StrTraitMFC_DLL@DV?$ChTraitsCRT@D@ATL@@@@@ATL@@QAEAAV01@ABV01@@Z

; 94   : 		memcpy(sShcode, right.sShcode, sizeof(sShcode));

  0011b	0f 10 46 68	 movups	 xmm0, XMMWORD PTR [esi+104]

; 95   : 		lTick			= right.lTick;
; 96   : 		memcpy(sTerm, right.sTerm, sizeof(sTerm));
; 97   : 		memcpy(sNxtFlg, right.sNxtFlg, sizeof(sNxtFlg));
; 98   : 		memcpy(sDataType, right.sDataType, sizeof(sDataType));
; 99   : 		lPrice			= right.lPrice;
; 100  : 		lVolume			= right.lVolume;
; 101  : 		lUpLmtPrice		= right.lUpLmtPrice;
; 102  : 		lDnLmtPrice		= right.lDnLmtPrice;
; 103  : 		lOpen			= right.lOpen;
; 104  : 		lHigh			= right.lHigh;
; 105  : 		lLow			= right.lLow;
; 106  : 		lPreprice		= right.lPreprice;
; 107  : 		lPreVolume		= right.lPreVolume;
; 108  : 		lFirstClose		= right.lFirstClose;
; 109  : 		lPreOpen		= right.lPreOpen;
; 110  : 		lPreHigh		= right.lPreHigh;
; 111  : 		lPreLow			= right.lPreHigh;
; 112  : 		nMarket			= right.nMarket;
; 113  : 		lWonDollar		= right.lWonDollar;
; 114  : //vntsorl_20110420:[A00000410]      
; 115  : 		nPacketType		= right.nPacketType;
; 116  : 		m_sLastDataTime	= right.m_sLastDataTime;

  0011f	8d 8f c0 00 00
	00		 lea	 ecx, DWORD PTR [edi+192]
  00125	0f 11 47 68	 movups	 XMMWORD PTR [edi+104], xmm0
  00129	8b 46 78	 mov	 eax, DWORD PTR [esi+120]
  0012c	89 47 78	 mov	 DWORD PTR [edi+120], eax
  0012f	0f b6 46 7c	 movzx	 eax, BYTE PTR [esi+124]
  00133	88 47 7c	 mov	 BYTE PTR [edi+124], al
  00136	0f b6 46 7d	 movzx	 eax, BYTE PTR [esi+125]
  0013a	88 47 7d	 mov	 BYTE PTR [edi+125], al
  0013d	0f b6 46 7e	 movzx	 eax, BYTE PTR [esi+126]
  00141	88 47 7e	 mov	 BYTE PTR [edi+126], al
  00144	8b 86 80 00 00
	00		 mov	 eax, DWORD PTR [esi+128]
  0014a	89 87 80 00 00
	00		 mov	 DWORD PTR [edi+128], eax
  00150	8b 86 84 00 00
	00		 mov	 eax, DWORD PTR [esi+132]
  00156	89 87 84 00 00
	00		 mov	 DWORD PTR [edi+132], eax
  0015c	8b 86 88 00 00
	00		 mov	 eax, DWORD PTR [esi+136]
  00162	89 87 88 00 00
	00		 mov	 DWORD PTR [edi+136], eax
  00168	8b 86 8c 00 00
	00		 mov	 eax, DWORD PTR [esi+140]
  0016e	89 87 8c 00 00
	00		 mov	 DWORD PTR [edi+140], eax
  00174	8b 86 90 00 00
	00		 mov	 eax, DWORD PTR [esi+144]
  0017a	89 87 90 00 00
	00		 mov	 DWORD PTR [edi+144], eax
  00180	8b 86 94 00 00
	00		 mov	 eax, DWORD PTR [esi+148]
  00186	89 87 94 00 00
	00		 mov	 DWORD PTR [edi+148], eax
  0018c	8b 86 98 00 00
	00		 mov	 eax, DWORD PTR [esi+152]
  00192	89 87 98 00 00
	00		 mov	 DWORD PTR [edi+152], eax
  00198	8b 86 9c 00 00
	00		 mov	 eax, DWORD PTR [esi+156]
  0019e	89 87 9c 00 00
	00		 mov	 DWORD PTR [edi+156], eax
  001a4	8b 86 a0 00 00
	00		 mov	 eax, DWORD PTR [esi+160]
  001aa	89 87 a0 00 00
	00		 mov	 DWORD PTR [edi+160], eax
  001b0	8b 86 a4 00 00
	00		 mov	 eax, DWORD PTR [esi+164]
  001b6	89 87 a4 00 00
	00		 mov	 DWORD PTR [edi+164], eax
  001bc	8b 86 a8 00 00
	00		 mov	 eax, DWORD PTR [esi+168]
  001c2	89 87 a8 00 00
	00		 mov	 DWORD PTR [edi+168], eax
  001c8	8b 86 ac 00 00
	00		 mov	 eax, DWORD PTR [esi+172]
  001ce	89 87 ac 00 00
	00		 mov	 DWORD PTR [edi+172], eax
  001d4	8b 86 ac 00 00
	00		 mov	 eax, DWORD PTR [esi+172]
  001da	89 87 b0 00 00
	00		 mov	 DWORD PTR [edi+176], eax
  001e0	8b 86 b4 00 00
	00		 mov	 eax, DWORD PTR [esi+180]
  001e6	89 87 b4 00 00
	00		 mov	 DWORD PTR [edi+180], eax
  001ec	8b 86 b8 00 00
	00		 mov	 eax, DWORD PTR [esi+184]
  001f2	89 87 b8 00 00
	00		 mov	 DWORD PTR [edi+184], eax
  001f8	8b 86 bc 00 00
	00		 mov	 eax, DWORD PTR [esi+188]
  001fe	89 87 bc 00 00
	00		 mov	 DWORD PTR [edi+188], eax
  00204	8d 86 c0 00 00
	00		 lea	 eax, DWORD PTR [esi+192]
  0020a	50		 push	 eax
  0020b	ff 15 00 00 00
	00		 call	 DWORD PTR __imp_??4?$CStringT@DV?$StrTraitMFC_DLL@DV?$ChTraitsCRT@D@ATL@@@@@ATL@@QAEAAV01@ABV01@@Z

; 117  : 		m_sVolAmt		= right.m_sVolAmt;		//[A00000651][A00000652].

  00211	8d 46 58	 lea	 eax, DWORD PTR [esi+88]
  00214	50		 push	 eax
  00215	8d 4f 58	 lea	 ecx, DWORD PTR [edi+88]
  00218	ff 15 00 00 00
	00		 call	 DWORD PTR __imp_??4?$CStringT@DV?$StrTraitMFC_DLL@DV?$ChTraitsCRT@D@ATL@@@@@ATL@@QAEAAV01@ABV01@@Z

; 118  : 
; 119  : 		m_szMarketTime	= right.m_szMarketTime;;

  0021e	8d 46 60	 lea	 eax, DWORD PTR [esi+96]
  00221	50		 push	 eax
  00222	8d 4f 60	 lea	 ecx, DWORD PTR [edi+96]
  00225	ff 15 00 00 00
	00		 call	 DWORD PTR __imp_??4?$CStringT@DV?$StrTraitMFC_DLL@DV?$ChTraitsCRT@D@ATL@@@@@ATL@@QAEAAV01@ABV01@@Z

; 120  : 		m_szBaseTime	= right.m_szBaseTime;;

  0022b	8d 46 64	 lea	 eax, DWORD PTR [esi+100]
  0022e	50		 push	 eax
  0022f	8d 4f 64	 lea	 ecx, DWORD PTR [edi+100]
  00232	ff 15 00 00 00
	00		 call	 DWORD PTR __imp_??4?$CStringT@DV?$StrTraitMFC_DLL@DV?$ChTraitsCRT@D@ATL@@@@@ATL@@QAEAAV01@ABV01@@Z
  00238	5f		 pop	 edi
  00239	5e		 pop	 esi

; 121  : 
; 122  : 	};

  0023a	5d		 pop	 ebp
  0023b	c2 04 00	 ret	 4
?Copy@CChartBozoInput@@UAEXABV1@@Z ENDP			; CChartBozoInput::Copy
_TEXT	ENDS
; Function compile flags: /Ogtp
; File D:\git\src\IBK\IBK_DRFN\ProjSrc\SrcDrfn\inc\IChartBozoMsgMng.h
;	COMDAT ??0CChartBozoInput@@QAE@ABV0@@Z
_TEXT	SEGMENT
_this$ = -16						; size = 4
__$EHRec$ = -12						; size = 12
_obj$ = 8						; size = 4
??0CChartBozoInput@@QAE@ABV0@@Z PROC			; CChartBozoInput::CChartBozoInput, COMDAT
; _this$ = ecx

; 40   : 	CChartBozoInput(const CChartBozoInput& obj)	{ *this = obj;	};

  00000	55		 push	 ebp
  00001	8b ec		 mov	 ebp, esp
  00003	6a ff		 push	 -1
  00005	68 00 00 00 00	 push	 __ehhandler$??0CChartBozoInput@@QAE@ABV0@@Z
  0000a	64 a1 00 00 00
	00		 mov	 eax, DWORD PTR fs:0
  00010	50		 push	 eax
  00011	51		 push	 ecx
  00012	56		 push	 esi
  00013	a1 00 00 00 00	 mov	 eax, DWORD PTR ___security_cookie
  00018	33 c5		 xor	 eax, ebp
  0001a	50		 push	 eax
  0001b	8d 45 f4	 lea	 eax, DWORD PTR __$EHRec$[ebp]
  0001e	64 a3 00 00 00
	00		 mov	 DWORD PTR fs:0, eax
  00024	8b f1		 mov	 esi, ecx
  00026	89 75 f0	 mov	 DWORD PTR _this$[ebp], esi
  00029	8d 4e 04	 lea	 ecx, DWORD PTR [esi+4]
  0002c	c7 06 00 00 00
	00		 mov	 DWORD PTR [esi], OFFSET ??_7CChartBozoInput@@6B@
  00032	ff 15 00 00 00
	00		 call	 DWORD PTR __imp_??0?$CStringT@DV?$StrTraitMFC_DLL@DV?$ChTraitsCRT@D@ATL@@@@@ATL@@QAE@XZ
  00038	8d 4e 08	 lea	 ecx, DWORD PTR [esi+8]
  0003b	c7 45 fc 00 00
	00 00		 mov	 DWORD PTR __$EHRec$[ebp+8], 0
  00042	ff 15 00 00 00
	00		 call	 DWORD PTR __imp_??0?$CStringT@DV?$StrTraitMFC_DLL@DV?$ChTraitsCRT@D@ATL@@@@@ATL@@QAE@XZ
  00048	8d 4e 0c	 lea	 ecx, DWORD PTR [esi+12]
  0004b	ff 15 00 00 00
	00		 call	 DWORD PTR __imp_??0?$CStringT@DV?$StrTraitMFC_DLL@DV?$ChTraitsCRT@D@ATL@@@@@ATL@@QAE@XZ
  00051	8d 4e 10	 lea	 ecx, DWORD PTR [esi+16]
  00054	ff 15 00 00 00
	00		 call	 DWORD PTR __imp_??0?$CStringT@DV?$StrTraitMFC_DLL@DV?$ChTraitsCRT@D@ATL@@@@@ATL@@QAE@XZ
  0005a	8d 4e 14	 lea	 ecx, DWORD PTR [esi+20]
  0005d	ff 15 00 00 00
	00		 call	 DWORD PTR __imp_??0?$CStringT@DV?$StrTraitMFC_DLL@DV?$ChTraitsCRT@D@ATL@@@@@ATL@@QAE@XZ
  00063	8d 4e 18	 lea	 ecx, DWORD PTR [esi+24]
  00066	ff 15 00 00 00
	00		 call	 DWORD PTR __imp_??0?$CStringT@DV?$StrTraitMFC_DLL@DV?$ChTraitsCRT@D@ATL@@@@@ATL@@QAE@XZ
  0006c	8d 4e 1c	 lea	 ecx, DWORD PTR [esi+28]
  0006f	ff 15 00 00 00
	00		 call	 DWORD PTR __imp_??0?$CStringT@DV?$StrTraitMFC_DLL@DV?$ChTraitsCRT@D@ATL@@@@@ATL@@QAE@XZ
  00075	8d 4e 20	 lea	 ecx, DWORD PTR [esi+32]
  00078	ff 15 00 00 00
	00		 call	 DWORD PTR __imp_??0?$CStringT@DV?$StrTraitMFC_DLL@DV?$ChTraitsCRT@D@ATL@@@@@ATL@@QAE@XZ
  0007e	8d 4e 24	 lea	 ecx, DWORD PTR [esi+36]
  00081	ff 15 00 00 00
	00		 call	 DWORD PTR __imp_??0?$CStringT@DV?$StrTraitMFC_DLL@DV?$ChTraitsCRT@D@ATL@@@@@ATL@@QAE@XZ
  00087	8d 4e 28	 lea	 ecx, DWORD PTR [esi+40]
  0008a	ff 15 00 00 00
	00		 call	 DWORD PTR __imp_??0?$CStringT@DV?$StrTraitMFC_DLL@DV?$ChTraitsCRT@D@ATL@@@@@ATL@@QAE@XZ
  00090	8d 4e 2c	 lea	 ecx, DWORD PTR [esi+44]
  00093	ff 15 00 00 00
	00		 call	 DWORD PTR __imp_??0?$CStringT@DV?$StrTraitMFC_DLL@DV?$ChTraitsCRT@D@ATL@@@@@ATL@@QAE@XZ
  00099	8d 4e 30	 lea	 ecx, DWORD PTR [esi+48]
  0009c	ff 15 00 00 00
	00		 call	 DWORD PTR __imp_??0?$CStringT@DV?$StrTraitMFC_DLL@DV?$ChTraitsCRT@D@ATL@@@@@ATL@@QAE@XZ
  000a2	8d 4e 34	 lea	 ecx, DWORD PTR [esi+52]
  000a5	ff 15 00 00 00
	00		 call	 DWORD PTR __imp_??0?$CStringT@DV?$StrTraitMFC_DLL@DV?$ChTraitsCRT@D@ATL@@@@@ATL@@QAE@XZ
  000ab	8d 4e 38	 lea	 ecx, DWORD PTR [esi+56]
  000ae	ff 15 00 00 00
	00		 call	 DWORD PTR __imp_??0?$CStringT@DV?$StrTraitMFC_DLL@DV?$ChTraitsCRT@D@ATL@@@@@ATL@@QAE@XZ
  000b4	8d 4e 3c	 lea	 ecx, DWORD PTR [esi+60]
  000b7	ff 15 00 00 00
	00		 call	 DWORD PTR __imp_??0?$CStringT@DV?$StrTraitMFC_DLL@DV?$ChTraitsCRT@D@ATL@@@@@ATL@@QAE@XZ
  000bd	8d 4e 40	 lea	 ecx, DWORD PTR [esi+64]
  000c0	ff 15 00 00 00
	00		 call	 DWORD PTR __imp_??0?$CStringT@DV?$StrTraitMFC_DLL@DV?$ChTraitsCRT@D@ATL@@@@@ATL@@QAE@XZ
  000c6	8d 4e 44	 lea	 ecx, DWORD PTR [esi+68]
  000c9	ff 15 00 00 00
	00		 call	 DWORD PTR __imp_??0?$CStringT@DV?$StrTraitMFC_DLL@DV?$ChTraitsCRT@D@ATL@@@@@ATL@@QAE@XZ
  000cf	8d 4e 48	 lea	 ecx, DWORD PTR [esi+72]
  000d2	ff 15 00 00 00
	00		 call	 DWORD PTR __imp_??0?$CStringT@DV?$StrTraitMFC_DLL@DV?$ChTraitsCRT@D@ATL@@@@@ATL@@QAE@XZ
  000d8	8d 4e 4c	 lea	 ecx, DWORD PTR [esi+76]
  000db	ff 15 00 00 00
	00		 call	 DWORD PTR __imp_??0?$CStringT@DV?$StrTraitMFC_DLL@DV?$ChTraitsCRT@D@ATL@@@@@ATL@@QAE@XZ
  000e1	8d 4e 50	 lea	 ecx, DWORD PTR [esi+80]
  000e4	ff 15 00 00 00
	00		 call	 DWORD PTR __imp_??0?$CStringT@DV?$StrTraitMFC_DLL@DV?$ChTraitsCRT@D@ATL@@@@@ATL@@QAE@XZ
  000ea	8d 4e 54	 lea	 ecx, DWORD PTR [esi+84]
  000ed	ff 15 00 00 00
	00		 call	 DWORD PTR __imp_??0?$CStringT@DV?$StrTraitMFC_DLL@DV?$ChTraitsCRT@D@ATL@@@@@ATL@@QAE@XZ
  000f3	8d 4e 58	 lea	 ecx, DWORD PTR [esi+88]
  000f6	ff 15 00 00 00
	00		 call	 DWORD PTR __imp_??0?$CStringT@DV?$StrTraitMFC_DLL@DV?$ChTraitsCRT@D@ATL@@@@@ATL@@QAE@XZ
  000fc	8d 4e 5c	 lea	 ecx, DWORD PTR [esi+92]
  000ff	ff 15 00 00 00
	00		 call	 DWORD PTR __imp_??0?$CStringT@DV?$StrTraitMFC_DLL@DV?$ChTraitsCRT@D@ATL@@@@@ATL@@QAE@XZ
  00105	8d 4e 60	 lea	 ecx, DWORD PTR [esi+96]
  00108	ff 15 00 00 00
	00		 call	 DWORD PTR __imp_??0?$CStringT@DV?$StrTraitMFC_DLL@DV?$ChTraitsCRT@D@ATL@@@@@ATL@@QAE@XZ
  0010e	8d 4e 64	 lea	 ecx, DWORD PTR [esi+100]
  00111	ff 15 00 00 00
	00		 call	 DWORD PTR __imp_??0?$CStringT@DV?$StrTraitMFC_DLL@DV?$ChTraitsCRT@D@ATL@@@@@ATL@@QAE@XZ
  00117	8d 8e c0 00 00
	00		 lea	 ecx, DWORD PTR [esi+192]
  0011d	ff 15 00 00 00
	00		 call	 DWORD PTR __imp_??0?$CStringT@DV?$StrTraitMFC_DLL@DV?$ChTraitsCRT@D@ATL@@@@@ATL@@QAE@XZ
  00123	c6 45 fc 19	 mov	 BYTE PTR __$EHRec$[ebp+8], 25 ; 00000019H
  00127	8b 16		 mov	 edx, DWORD PTR [esi]
  00129	8b ce		 mov	 ecx, esi
  0012b	ff 75 08	 push	 DWORD PTR _obj$[ebp]
  0012e	8b 42 04	 mov	 eax, DWORD PTR [edx+4]
  00131	3d 00 00 00 00	 cmp	 eax, OFFSET ??4CChartBozoInput@@UAEAAV0@ABV0@@Z ; CChartBozoInput::operator=
  00136	75 16		 jne	 SHORT $LN30@CChartBozo

; 124  : 	virtual CChartBozoInput& operator = (const CChartBozoInput& item)	{ Copy(item);	return *this; };

  00138	ff 12		 call	 DWORD PTR [edx]

; 40   : 	CChartBozoInput(const CChartBozoInput& obj)	{ *this = obj;	};

  0013a	8b c6		 mov	 eax, esi
  0013c	8b 4d f4	 mov	 ecx, DWORD PTR __$EHRec$[ebp]
  0013f	64 89 0d 00 00
	00 00		 mov	 DWORD PTR fs:0, ecx
  00146	59		 pop	 ecx
  00147	5e		 pop	 esi
  00148	8b e5		 mov	 esp, ebp
  0014a	5d		 pop	 ebp
  0014b	c2 04 00	 ret	 4
$LN30@CChartBozo:
  0014e	ff d0		 call	 eax
  00150	8b c6		 mov	 eax, esi
  00152	8b 4d f4	 mov	 ecx, DWORD PTR __$EHRec$[ebp]
  00155	64 89 0d 00 00
	00 00		 mov	 DWORD PTR fs:0, ecx
  0015c	59		 pop	 ecx
  0015d	5e		 pop	 esi
  0015e	8b e5		 mov	 esp, ebp
  00160	5d		 pop	 ebp
  00161	c2 04 00	 ret	 4
_TEXT	ENDS
;	COMDAT text$x
text$x	SEGMENT
__unwindfunclet$??0CChartBozoInput@@QAE@ABV0@@Z$0:
  00000	8b 4d f0	 mov	 ecx, DWORD PTR _this$[ebp]
  00003	83 c1 04	 add	 ecx, 4
  00006	ff 25 00 00 00
	00		 jmp	 DWORD PTR __imp_??1?$CStringT@DV?$StrTraitMFC_DLL@DV?$ChTraitsCRT@D@ATL@@@@@ATL@@QAE@XZ
__unwindfunclet$??0CChartBozoInput@@QAE@ABV0@@Z$1:
  0000c	8b 4d f0	 mov	 ecx, DWORD PTR _this$[ebp]
  0000f	83 c1 08	 add	 ecx, 8
  00012	ff 25 00 00 00
	00		 jmp	 DWORD PTR __imp_??1?$CStringT@DV?$StrTraitMFC_DLL@DV?$ChTraitsCRT@D@ATL@@@@@ATL@@QAE@XZ
__unwindfunclet$??0CChartBozoInput@@QAE@ABV0@@Z$2:
  00018	8b 4d f0	 mov	 ecx, DWORD PTR _this$[ebp]
  0001b	83 c1 0c	 add	 ecx, 12			; 0000000cH
  0001e	ff 25 00 00 00
	00		 jmp	 DWORD PTR __imp_??1?$CStringT@DV?$StrTraitMFC_DLL@DV?$ChTraitsCRT@D@ATL@@@@@ATL@@QAE@XZ
__unwindfunclet$??0CChartBozoInput@@QAE@ABV0@@Z$3:
  00024	8b 4d f0	 mov	 ecx, DWORD PTR _this$[ebp]
  00027	83 c1 10	 add	 ecx, 16			; 00000010H
  0002a	ff 25 00 00 00
	00		 jmp	 DWORD PTR __imp_??1?$CStringT@DV?$StrTraitMFC_DLL@DV?$ChTraitsCRT@D@ATL@@@@@ATL@@QAE@XZ
__unwindfunclet$??0CChartBozoInput@@QAE@ABV0@@Z$4:
  00030	8b 4d f0	 mov	 ecx, DWORD PTR _this$[ebp]
  00033	83 c1 14	 add	 ecx, 20			; 00000014H
  00036	ff 25 00 00 00
	00		 jmp	 DWORD PTR __imp_??1?$CStringT@DV?$StrTraitMFC_DLL@DV?$ChTraitsCRT@D@ATL@@@@@ATL@@QAE@XZ
__unwindfunclet$??0CChartBozoInput@@QAE@ABV0@@Z$5:
  0003c	8b 4d f0	 mov	 ecx, DWORD PTR _this$[ebp]
  0003f	83 c1 18	 add	 ecx, 24			; 00000018H
  00042	ff 25 00 00 00
	00		 jmp	 DWORD PTR __imp_??1?$CStringT@DV?$StrTraitMFC_DLL@DV?$ChTraitsCRT@D@ATL@@@@@ATL@@QAE@XZ
__unwindfunclet$??0CChartBozoInput@@QAE@ABV0@@Z$6:
  00048	8b 4d f0	 mov	 ecx, DWORD PTR _this$[ebp]
  0004b	83 c1 1c	 add	 ecx, 28			; 0000001cH
  0004e	ff 25 00 00 00
	00		 jmp	 DWORD PTR __imp_??1?$CStringT@DV?$StrTraitMFC_DLL@DV?$ChTraitsCRT@D@ATL@@@@@ATL@@QAE@XZ
__unwindfunclet$??0CChartBozoInput@@QAE@ABV0@@Z$7:
  00054	8b 4d f0	 mov	 ecx, DWORD PTR _this$[ebp]
  00057	83 c1 20	 add	 ecx, 32			; 00000020H
  0005a	ff 25 00 00 00
	00		 jmp	 DWORD PTR __imp_??1?$CStringT@DV?$StrTraitMFC_DLL@DV?$ChTraitsCRT@D@ATL@@@@@ATL@@QAE@XZ
__unwindfunclet$??0CChartBozoInput@@QAE@ABV0@@Z$8:
  00060	8b 4d f0	 mov	 ecx, DWORD PTR _this$[ebp]
  00063	83 c1 24	 add	 ecx, 36			; 00000024H
  00066	ff 25 00 00 00
	00		 jmp	 DWORD PTR __imp_??1?$CStringT@DV?$StrTraitMFC_DLL@DV?$ChTraitsCRT@D@ATL@@@@@ATL@@QAE@XZ
__unwindfunclet$??0CChartBozoInput@@QAE@ABV0@@Z$9:
  0006c	8b 4d f0	 mov	 ecx, DWORD PTR _this$[ebp]
  0006f	83 c1 28	 add	 ecx, 40			; 00000028H
  00072	ff 25 00 00 00
	00		 jmp	 DWORD PTR __imp_??1?$CStringT@DV?$StrTraitMFC_DLL@DV?$ChTraitsCRT@D@ATL@@@@@ATL@@QAE@XZ
__unwindfunclet$??0CChartBozoInput@@QAE@ABV0@@Z$10:
  00078	8b 4d f0	 mov	 ecx, DWORD PTR _this$[ebp]
  0007b	83 c1 2c	 add	 ecx, 44			; 0000002cH
  0007e	ff 25 00 00 00
	00		 jmp	 DWORD PTR __imp_??1?$CStringT@DV?$StrTraitMFC_DLL@DV?$ChTraitsCRT@D@ATL@@@@@ATL@@QAE@XZ
__unwindfunclet$??0CChartBozoInput@@QAE@ABV0@@Z$11:
  00084	8b 4d f0	 mov	 ecx, DWORD PTR _this$[ebp]
  00087	83 c1 30	 add	 ecx, 48			; 00000030H
  0008a	ff 25 00 00 00
	00		 jmp	 DWORD PTR __imp_??1?$CStringT@DV?$StrTraitMFC_DLL@DV?$ChTraitsCRT@D@ATL@@@@@ATL@@QAE@XZ
__unwindfunclet$??0CChartBozoInput@@QAE@ABV0@@Z$12:
  00090	8b 4d f0	 mov	 ecx, DWORD PTR _this$[ebp]
  00093	83 c1 34	 add	 ecx, 52			; 00000034H
  00096	ff 25 00 00 00
	00		 jmp	 DWORD PTR __imp_??1?$CStringT@DV?$StrTraitMFC_DLL@DV?$ChTraitsCRT@D@ATL@@@@@ATL@@QAE@XZ
__unwindfunclet$??0CChartBozoInput@@QAE@ABV0@@Z$13:
  0009c	8b 4d f0	 mov	 ecx, DWORD PTR _this$[ebp]
  0009f	83 c1 38	 add	 ecx, 56			; 00000038H
  000a2	ff 25 00 00 00
	00		 jmp	 DWORD PTR __imp_??1?$CStringT@DV?$StrTraitMFC_DLL@DV?$ChTraitsCRT@D@ATL@@@@@ATL@@QAE@XZ
__unwindfunclet$??0CChartBozoInput@@QAE@ABV0@@Z$14:
  000a8	8b 4d f0	 mov	 ecx, DWORD PTR _this$[ebp]
  000ab	83 c1 3c	 add	 ecx, 60			; 0000003cH
  000ae	ff 25 00 00 00
	00		 jmp	 DWORD PTR __imp_??1?$CStringT@DV?$StrTraitMFC_DLL@DV?$ChTraitsCRT@D@ATL@@@@@ATL@@QAE@XZ
__unwindfunclet$??0CChartBozoInput@@QAE@ABV0@@Z$15:
  000b4	8b 4d f0	 mov	 ecx, DWORD PTR _this$[ebp]
  000b7	83 c1 40	 add	 ecx, 64			; 00000040H
  000ba	ff 25 00 00 00
	00		 jmp	 DWORD PTR __imp_??1?$CStringT@DV?$StrTraitMFC_DLL@DV?$ChTraitsCRT@D@ATL@@@@@ATL@@QAE@XZ
__unwindfunclet$??0CChartBozoInput@@QAE@ABV0@@Z$16:
  000c0	8b 4d f0	 mov	 ecx, DWORD PTR _this$[ebp]
  000c3	83 c1 44	 add	 ecx, 68			; 00000044H
  000c6	ff 25 00 00 00
	00		 jmp	 DWORD PTR __imp_??1?$CStringT@DV?$StrTraitMFC_DLL@DV?$ChTraitsCRT@D@ATL@@@@@ATL@@QAE@XZ
__unwindfunclet$??0CChartBozoInput@@QAE@ABV0@@Z$17:
  000cc	8b 4d f0	 mov	 ecx, DWORD PTR _this$[ebp]
  000cf	83 c1 48	 add	 ecx, 72			; 00000048H
  000d2	ff 25 00 00 00
	00		 jmp	 DWORD PTR __imp_??1?$CStringT@DV?$StrTraitMFC_DLL@DV?$ChTraitsCRT@D@ATL@@@@@ATL@@QAE@XZ
__unwindfunclet$??0CChartBozoInput@@QAE@ABV0@@Z$18:
  000d8	8b 4d f0	 mov	 ecx, DWORD PTR _this$[ebp]
  000db	83 c1 4c	 add	 ecx, 76			; 0000004cH
  000de	ff 25 00 00 00
	00		 jmp	 DWORD PTR __imp_??1?$CStringT@DV?$StrTraitMFC_DLL@DV?$ChTraitsCRT@D@ATL@@@@@ATL@@QAE@XZ
__unwindfunclet$??0CChartBozoInput@@QAE@ABV0@@Z$19:
  000e4	8b 4d f0	 mov	 ecx, DWORD PTR _this$[ebp]
  000e7	83 c1 50	 add	 ecx, 80			; 00000050H
  000ea	ff 25 00 00 00
	00		 jmp	 DWORD PTR __imp_??1?$CStringT@DV?$StrTraitMFC_DLL@DV?$ChTraitsCRT@D@ATL@@@@@ATL@@QAE@XZ
__unwindfunclet$??0CChartBozoInput@@QAE@ABV0@@Z$20:
  000f0	8b 4d f0	 mov	 ecx, DWORD PTR _this$[ebp]
  000f3	83 c1 54	 add	 ecx, 84			; 00000054H
  000f6	ff 25 00 00 00
	00		 jmp	 DWORD PTR __imp_??1?$CStringT@DV?$StrTraitMFC_DLL@DV?$ChTraitsCRT@D@ATL@@@@@ATL@@QAE@XZ
__unwindfunclet$??0CChartBozoInput@@QAE@ABV0@@Z$21:
  000fc	8b 4d f0	 mov	 ecx, DWORD PTR _this$[ebp]
  000ff	83 c1 58	 add	 ecx, 88			; 00000058H
  00102	ff 25 00 00 00
	00		 jmp	 DWORD PTR __imp_??1?$CStringT@DV?$StrTraitMFC_DLL@DV?$ChTraitsCRT@D@ATL@@@@@ATL@@QAE@XZ
__unwindfunclet$??0CChartBozoInput@@QAE@ABV0@@Z$22:
  00108	8b 4d f0	 mov	 ecx, DWORD PTR _this$[ebp]
  0010b	83 c1 5c	 add	 ecx, 92			; 0000005cH
  0010e	ff 25 00 00 00
	00		 jmp	 DWORD PTR __imp_??1?$CStringT@DV?$StrTraitMFC_DLL@DV?$ChTraitsCRT@D@ATL@@@@@ATL@@QAE@XZ
__unwindfunclet$??0CChartBozoInput@@QAE@ABV0@@Z$23:
  00114	8b 4d f0	 mov	 ecx, DWORD PTR _this$[ebp]
  00117	83 c1 60	 add	 ecx, 96			; 00000060H
  0011a	ff 25 00 00 00
	00		 jmp	 DWORD PTR __imp_??1?$CStringT@DV?$StrTraitMFC_DLL@DV?$ChTraitsCRT@D@ATL@@@@@ATL@@QAE@XZ
__unwindfunclet$??0CChartBozoInput@@QAE@ABV0@@Z$24:
  00120	8b 4d f0	 mov	 ecx, DWORD PTR _this$[ebp]
  00123	83 c1 64	 add	 ecx, 100		; 00000064H
  00126	ff 25 00 00 00
	00		 jmp	 DWORD PTR __imp_??1?$CStringT@DV?$StrTraitMFC_DLL@DV?$ChTraitsCRT@D@ATL@@@@@ATL@@QAE@XZ
__unwindfunclet$??0CChartBozoInput@@QAE@ABV0@@Z$25:
  0012c	8b 4d f0	 mov	 ecx, DWORD PTR _this$[ebp]
  0012f	81 c1 c0 00 00
	00		 add	 ecx, 192		; 000000c0H
  00135	ff 25 00 00 00
	00		 jmp	 DWORD PTR __imp_??1?$CStringT@DV?$StrTraitMFC_DLL@DV?$ChTraitsCRT@D@ATL@@@@@ATL@@QAE@XZ
  0013b	cc		 int	 3
  0013c	cc		 int	 3
  0013d	cc		 int	 3
  0013e	cc		 int	 3
  0013f	cc		 int	 3
__ehhandler$??0CChartBozoInput@@QAE@ABV0@@Z:
  00140	90		 npad	 1
  00141	90		 npad	 1
  00142	8b 54 24 08	 mov	 edx, DWORD PTR [esp+8]
  00146	8d 42 0c	 lea	 eax, DWORD PTR [edx+12]
  00149	8b 4a f4	 mov	 ecx, DWORD PTR [edx-12]
  0014c	33 c8		 xor	 ecx, eax
  0014e	e8 00 00 00 00	 call	 @__security_check_cookie@4
  00153	b8 00 00 00 00	 mov	 eax, OFFSET __ehfuncinfo$??0CChartBozoInput@@QAE@ABV0@@Z
  00158	e9 00 00 00 00	 jmp	 ___CxxFrameHandler3
text$x	ENDS
??0CChartBozoInput@@QAE@ABV0@@Z ENDP			; CChartBozoInput::CChartBozoInput
; Function compile flags: /Ogtp
; File D:\git\src\IBK\IBK_DRFN\ProjSrc\SrcDrfn\inc\IChartBozoMsgMng.h
;	COMDAT ??0CChartBozoInput@@QAE@XZ
_TEXT	SEGMENT
_this$ = -4						; size = 4
??0CChartBozoInput@@QAE@XZ PROC				; CChartBozoInput::CChartBozoInput, COMDAT
; _this$ = ecx

; 39   : 	CChartBozoInput()	{ InitData();	};

  00000	55		 push	 ebp
  00001	8b ec		 mov	 ebp, esp
  00003	51		 push	 ecx
  00004	56		 push	 esi
  00005	8b f1		 mov	 esi, ecx
  00007	89 75 fc	 mov	 DWORD PTR _this$[ebp], esi
  0000a	8d 4e 04	 lea	 ecx, DWORD PTR [esi+4]
  0000d	c7 06 00 00 00
	00		 mov	 DWORD PTR [esi], OFFSET ??_7CChartBozoInput@@6B@
  00013	ff 15 00 00 00
	00		 call	 DWORD PTR __imp_??0?$CStringT@DV?$StrTraitMFC_DLL@DV?$ChTraitsCRT@D@ATL@@@@@ATL@@QAE@XZ
  00019	8d 4e 08	 lea	 ecx, DWORD PTR [esi+8]
  0001c	ff 15 00 00 00
	00		 call	 DWORD PTR __imp_??0?$CStringT@DV?$StrTraitMFC_DLL@DV?$ChTraitsCRT@D@ATL@@@@@ATL@@QAE@XZ
  00022	8d 4e 0c	 lea	 ecx, DWORD PTR [esi+12]
  00025	ff 15 00 00 00
	00		 call	 DWORD PTR __imp_??0?$CStringT@DV?$StrTraitMFC_DLL@DV?$ChTraitsCRT@D@ATL@@@@@ATL@@QAE@XZ
  0002b	8d 4e 10	 lea	 ecx, DWORD PTR [esi+16]
  0002e	ff 15 00 00 00
	00		 call	 DWORD PTR __imp_??0?$CStringT@DV?$StrTraitMFC_DLL@DV?$ChTraitsCRT@D@ATL@@@@@ATL@@QAE@XZ
  00034	8d 4e 14	 lea	 ecx, DWORD PTR [esi+20]
  00037	ff 15 00 00 00
	00		 call	 DWORD PTR __imp_??0?$CStringT@DV?$StrTraitMFC_DLL@DV?$ChTraitsCRT@D@ATL@@@@@ATL@@QAE@XZ
  0003d	8d 4e 18	 lea	 ecx, DWORD PTR [esi+24]
  00040	ff 15 00 00 00
	00		 call	 DWORD PTR __imp_??0?$CStringT@DV?$StrTraitMFC_DLL@DV?$ChTraitsCRT@D@ATL@@@@@ATL@@QAE@XZ
  00046	8d 4e 1c	 lea	 ecx, DWORD PTR [esi+28]
  00049	ff 15 00 00 00
	00		 call	 DWORD PTR __imp_??0?$CStringT@DV?$StrTraitMFC_DLL@DV?$ChTraitsCRT@D@ATL@@@@@ATL@@QAE@XZ
  0004f	8d 4e 20	 lea	 ecx, DWORD PTR [esi+32]
  00052	ff 15 00 00 00
	00		 call	 DWORD PTR __imp_??0?$CStringT@DV?$StrTraitMFC_DLL@DV?$ChTraitsCRT@D@ATL@@@@@ATL@@QAE@XZ
  00058	8d 4e 24	 lea	 ecx, DWORD PTR [esi+36]
  0005b	ff 15 00 00 00
	00		 call	 DWORD PTR __imp_??0?$CStringT@DV?$StrTraitMFC_DLL@DV?$ChTraitsCRT@D@ATL@@@@@ATL@@QAE@XZ
  00061	8d 4e 28	 lea	 ecx, DWORD PTR [esi+40]
  00064	ff 15 00 00 00
	00		 call	 DWORD PTR __imp_??0?$CStringT@DV?$StrTraitMFC_DLL@DV?$ChTraitsCRT@D@ATL@@@@@ATL@@QAE@XZ
  0006a	8d 4e 2c	 lea	 ecx, DWORD PTR [esi+44]
  0006d	ff 15 00 00 00
	00		 call	 DWORD PTR __imp_??0?$CStringT@DV?$StrTraitMFC_DLL@DV?$ChTraitsCRT@D@ATL@@@@@ATL@@QAE@XZ
  00073	8d 4e 30	 lea	 ecx, DWORD PTR [esi+48]
  00076	ff 15 00 00 00
	00		 call	 DWORD PTR __imp_??0?$CStringT@DV?$StrTraitMFC_DLL@DV?$ChTraitsCRT@D@ATL@@@@@ATL@@QAE@XZ
  0007c	8d 4e 34	 lea	 ecx, DWORD PTR [esi+52]
  0007f	ff 15 00 00 00
	00		 call	 DWORD PTR __imp_??0?$CStringT@DV?$StrTraitMFC_DLL@DV?$ChTraitsCRT@D@ATL@@@@@ATL@@QAE@XZ
  00085	8d 4e 38	 lea	 ecx, DWORD PTR [esi+56]
  00088	ff 15 00 00 00
	00		 call	 DWORD PTR __imp_??0?$CStringT@DV?$StrTraitMFC_DLL@DV?$ChTraitsCRT@D@ATL@@@@@ATL@@QAE@XZ
  0008e	8d 4e 3c	 lea	 ecx, DWORD PTR [esi+60]
  00091	ff 15 00 00 00
	00		 call	 DWORD PTR __imp_??0?$CStringT@DV?$StrTraitMFC_DLL@DV?$ChTraitsCRT@D@ATL@@@@@ATL@@QAE@XZ
  00097	8d 4e 40	 lea	 ecx, DWORD PTR [esi+64]
  0009a	ff 15 00 00 00
	00		 call	 DWORD PTR __imp_??0?$CStringT@DV?$StrTraitMFC_DLL@DV?$ChTraitsCRT@D@ATL@@@@@ATL@@QAE@XZ
  000a0	8d 4e 44	 lea	 ecx, DWORD PTR [esi+68]
  000a3	ff 15 00 00 00
	00		 call	 DWORD PTR __imp_??0?$CStringT@DV?$StrTraitMFC_DLL@DV?$ChTraitsCRT@D@ATL@@@@@ATL@@QAE@XZ
  000a9	8d 4e 48	 lea	 ecx, DWORD PTR [esi+72]
  000ac	ff 15 00 00 00
	00		 call	 DWORD PTR __imp_??0?$CStringT@DV?$StrTraitMFC_DLL@DV?$ChTraitsCRT@D@ATL@@@@@ATL@@QAE@XZ
  000b2	8d 4e 4c	 lea	 ecx, DWORD PTR [esi+76]
  000b5	ff 15 00 00 00
	00		 call	 DWORD PTR __imp_??0?$CStringT@DV?$StrTraitMFC_DLL@DV?$ChTraitsCRT@D@ATL@@@@@ATL@@QAE@XZ
  000bb	8d 4e 50	 lea	 ecx, DWORD PTR [esi+80]
  000be	ff 15 00 00 00
	00		 call	 DWORD PTR __imp_??0?$CStringT@DV?$StrTraitMFC_DLL@DV?$ChTraitsCRT@D@ATL@@@@@ATL@@QAE@XZ
  000c4	8d 4e 54	 lea	 ecx, DWORD PTR [esi+84]
  000c7	ff 15 00 00 00
	00		 call	 DWORD PTR __imp_??0?$CStringT@DV?$StrTraitMFC_DLL@DV?$ChTraitsCRT@D@ATL@@@@@ATL@@QAE@XZ
  000cd	8d 4e 58	 lea	 ecx, DWORD PTR [esi+88]
  000d0	ff 15 00 00 00
	00		 call	 DWORD PTR __imp_??0?$CStringT@DV?$StrTraitMFC_DLL@DV?$ChTraitsCRT@D@ATL@@@@@ATL@@QAE@XZ
  000d6	8d 4e 5c	 lea	 ecx, DWORD PTR [esi+92]
  000d9	ff 15 00 00 00
	00		 call	 DWORD PTR __imp_??0?$CStringT@DV?$StrTraitMFC_DLL@DV?$ChTraitsCRT@D@ATL@@@@@ATL@@QAE@XZ
  000df	8d 4e 60	 lea	 ecx, DWORD PTR [esi+96]
  000e2	ff 15 00 00 00
	00		 call	 DWORD PTR __imp_??0?$CStringT@DV?$StrTraitMFC_DLL@DV?$ChTraitsCRT@D@ATL@@@@@ATL@@QAE@XZ
  000e8	8d 4e 64	 lea	 ecx, DWORD PTR [esi+100]
  000eb	ff 15 00 00 00
	00		 call	 DWORD PTR __imp_??0?$CStringT@DV?$StrTraitMFC_DLL@DV?$ChTraitsCRT@D@ATL@@@@@ATL@@QAE@XZ
  000f1	8d 8e c0 00 00
	00		 lea	 ecx, DWORD PTR [esi+192]
  000f7	ff 15 00 00 00
	00		 call	 DWORD PTR __imp_??0?$CStringT@DV?$StrTraitMFC_DLL@DV?$ChTraitsCRT@D@ATL@@@@@ATL@@QAE@XZ

; 49   : 		ZeroMemory(sDataType, sizeof(sDataType));

  000fd	33 c0		 xor	 eax, eax
  000ff	0f 57 c0	 xorps	 xmm0, xmm0

; 40   : 	CChartBozoInput(const CChartBozoInput& obj)	{ *this = obj;	};
; 41   : 
; 42   : 	void InitData()
; 43   : 	{
; 44   : 		ZeroMemory(sShcode, sizeof(sShcode));

  00102	0f 11 46 68	 movups	 XMMWORD PTR [esi+104], xmm0

; 45   : //		ZeroMemory(sTick, sizeof(sTick));
; 46   : 		lTick = 0;

  00106	c7 46 78 00 00
	00 00		 mov	 DWORD PTR [esi+120], 0

; 47   : 		ZeroMemory(sTerm, sizeof(sTerm));
; 48   : 		ZeroMemory(sNxtFlg, sizeof(sNxtFlg));
; 49   : 		ZeroMemory(sDataType, sizeof(sDataType));

  0010d	66 89 46 7c	 mov	 WORD PTR [esi+124], ax
  00111	88 46 7e	 mov	 BYTE PTR [esi+126], al

; 50   : 		lPrice = 0;

  00114	89 86 80 00 00
	00		 mov	 DWORD PTR [esi+128], eax

; 51   : 		lVolume = 0;

  0011a	89 86 84 00 00
	00		 mov	 DWORD PTR [esi+132], eax

; 52   : 		lUpLmtPrice = 0;

  00120	89 86 88 00 00
	00		 mov	 DWORD PTR [esi+136], eax

; 53   : 		lDnLmtPrice = 0;

  00126	89 86 8c 00 00
	00		 mov	 DWORD PTR [esi+140], eax

; 54   : 		lOpen;
; 55   : 		lHigh;
; 56   : 		lLow;
; 57   : 		lPreprice;	
; 58   : 		lPreVolume;	
; 59   : 		lPreOpen;
; 60   : 		lPreHigh;
; 61   : 		lPreLow;
; 62   : 		//ZeroMemory(sStartTime, sizeof(sStartTime));
; 63   : 		lFirstClose = 0;		

  0012c	89 86 a4 00 00
	00		 mov	 DWORD PTR [esi+164], eax

; 64   : 		nMarket = 0;

  00132	89 86 b4 00 00
	00		 mov	 DWORD PTR [esi+180], eax

; 65   : 		lWonDollar = 0;

  00138	89 86 b8 00 00
	00		 mov	 DWORD PTR [esi+184], eax

; 66   : 
; 67   : //vntsorl_20110420:[A00000410]      
; 68   : 		nPacketType = 0;

  0013e	89 86 bc 00 00
	00		 mov	 DWORD PTR [esi+188], eax

; 39   : 	CChartBozoInput()	{ InitData();	};

  00144	8b c6		 mov	 eax, esi
  00146	5e		 pop	 esi
  00147	8b e5		 mov	 esp, ebp
  00149	5d		 pop	 ebp
  0014a	c3		 ret	 0
??0CChartBozoInput@@QAE@XZ ENDP				; CChartBozoInput::CChartBozoInput
_TEXT	ENDS
; Function compile flags: /Ogtp
; File D:\git\src\IBK\IBK_DRFN\ProjSrc\SrcDrfn\Chart\commontr\TRDefine.h
;	COMDAT ??__ERMSG_GETSIGNAL_REAL@@YAXXZ
text$di	SEGMENT
??__ERMSG_GETSIGNAL_REAL@@YAXXZ PROC			; `dynamic initializer for 'RMSG_GETSIGNAL_REAL'', COMDAT

; 213  : const UINT RMSG_GETSIGNAL_REAL = ::RegisterWindowMessage(_T("RMSG_GETSIGNAL_REAL"));

  00000	68 00 00 00 00	 push	 OFFSET ??_C@_0BE@FJPKENOB@RMSG_GETSIGNAL_REAL@
  00005	ff 15 00 00 00
	00		 call	 DWORD PTR __imp__RegisterWindowMessageA@4
  0000b	a3 00 00 00 00	 mov	 DWORD PTR ?RMSG_GETSIGNAL_REAL@@3IB, eax
  00010	c3		 ret	 0
??__ERMSG_GETSIGNAL_REAL@@YAXXZ ENDP			; `dynamic initializer for 'RMSG_GETSIGNAL_REAL''
text$di	ENDS
; Function compile flags: /Ogtp
; File D:\git\src\IBK\IBK_DRFN\ProjSrc\SrcDrfn\inc\IBaseDefine.h
;	COMDAT ??__ERMSG_SETPCTRDATA@@YAXXZ
text$di	SEGMENT
??__ERMSG_SETPCTRDATA@@YAXXZ PROC			; `dynamic initializer for 'RMSG_SETPCTRDATA'', COMDAT

; 172  : const UINT RMSG_SETPCTRDATA = ::RegisterWindowMessage("RMSG_SETPCTRDATA");

  00000	68 00 00 00 00	 push	 OFFSET ??_C@_0BB@JPACFCL@RMSG_SETPCTRDATA@
  00005	ff 15 00 00 00
	00		 call	 DWORD PTR __imp__RegisterWindowMessageA@4
  0000b	a3 00 00 00 00	 mov	 DWORD PTR ?RMSG_SETPCTRDATA@@3IB, eax
  00010	c3		 ret	 0
??__ERMSG_SETPCTRDATA@@YAXXZ ENDP			; `dynamic initializer for 'RMSG_SETPCTRDATA''
text$di	ENDS
; Function compile flags: /Ogtp
; File D:\git\src\IBK\IBK_DRFN\ProjSrc\SrcDrfn\inc\IBaseDefine.h
;	COMDAT ??__ERMSG_GETPCTRDATA@@YAXXZ
text$di	SEGMENT
??__ERMSG_GETPCTRDATA@@YAXXZ PROC			; `dynamic initializer for 'RMSG_GETPCTRDATA'', COMDAT

; 171  : const UINT RMSG_GETPCTRDATA = ::RegisterWindowMessage("RMSG_GETPCTRDATA");

  00000	68 00 00 00 00	 push	 OFFSET ??_C@_0BB@GOOPDKI@RMSG_GETPCTRDATA@
  00005	ff 15 00 00 00
	00		 call	 DWORD PTR __imp__RegisterWindowMessageA@4
  0000b	a3 00 00 00 00	 mov	 DWORD PTR ?RMSG_GETPCTRDATA@@3IB, eax
  00010	c3		 ret	 0
??__ERMSG_GETPCTRDATA@@YAXXZ ENDP			; `dynamic initializer for 'RMSG_GETPCTRDATA''
text$di	ENDS
; Function compile flags: /Ogtp
; File D:\git\src\IBK\IBK_DRFN\ProjSrc\SrcDrfn\inc\IBaseDefine.h
;	COMDAT ??__ERMSG_INTERFACE@@YAXXZ
text$di	SEGMENT
??__ERMSG_INTERFACE@@YAXXZ PROC				; `dynamic initializer for 'RMSG_INTERFACE'', COMDAT

; 170  : const UINT RMSG_INTERFACE = ::RegisterWindowMessage("RMSG_INTERFACE");

  00000	68 00 00 00 00	 push	 OFFSET ??_C@_0P@BKKCOCLK@RMSG_INTERFACE@
  00005	ff 15 00 00 00
	00		 call	 DWORD PTR __imp__RegisterWindowMessageA@4
  0000b	a3 00 00 00 00	 mov	 DWORD PTR ?RMSG_INTERFACE@@3IB, eax
  00010	c3		 ret	 0
??__ERMSG_INTERFACE@@YAXXZ ENDP				; `dynamic initializer for 'RMSG_INTERFACE''
text$di	ENDS
; Function compile flags: /Ogtp
; File D:\git\src\IBK\IBK_DRFN\ProjSrc\SrcDrfn\DrCommon\PartnerMng\DataConverter.cpp
;	COMDAT ?__empty_global_delete@@YAXPAXI@Z
_TEXT	SEGMENT
___formal$ = 8						; size = 4
___formal$ = 12						; size = 4
?__empty_global_delete@@YAXPAXI@Z PROC			; __empty_global_delete, COMDAT

  00000	c2 00 00	 ret	 0
?__empty_global_delete@@YAXPAXI@Z ENDP			; __empty_global_delete
_TEXT	ENDS
; Function compile flags: /Ogtp
; File D:\git\src\IBK\IBK_DRFN\ProjSrc\SrcDrfn\DrCommon\PartnerMng\DataConverter.cpp
;	COMDAT ?__empty_global_delete@@YAXPAX@Z
_TEXT	SEGMENT
___formal$ = 8						; size = 4
?__empty_global_delete@@YAXPAX@Z PROC			; __empty_global_delete, COMDAT

  00000	c2 00 00	 ret	 0
?__empty_global_delete@@YAXPAX@Z ENDP			; __empty_global_delete
_TEXT	ENDS
END
