; Listing generated by Microsoft (R) Optimizing Compiler Version 19.29.30145.0 

	TITLE	D:\git\src\IBK\IBK_DRFN\#DRfn-CS\_Obj\PartnerMng\PartnerMng.obj
	.686P
	.XMM
	include listing.inc
	.model	flat

INCLUDELIB MSVCRT
INCLUDELIB OLDNAMES

PUBLIC	??_C@_0P@BKKCOCLK@RMSG_INTERFACE@		; `string'
PUBLIC	??_C@_0BB@GOOPDKI@RMSG_GETPCTRDATA@		; `string'
PUBLIC	??_C@_0BB@JPACFCL@RMSG_SETPCTRDATA@		; `string'
PUBLIC	??_C@_0BE@FJPKENOB@RMSG_GETSIGNAL_REAL@		; `string'
;	COMDAT ??_C@_0BE@FJPKENOB@RMSG_GETSIGNAL_REAL@
CONST	SEGMENT
??_C@_0BE@FJPKENOB@RMSG_GETSIGNAL_REAL@ DB 'RMSG_GETSIGNAL_REAL', 00H ; `string'
CONST	ENDS
;	COMDAT ??_C@_0BB@JPACFCL@RMSG_SETPCTRDATA@
CONST	SEGMENT
??_C@_0BB@JPACFCL@RMSG_SETPCTRDATA@ DB 'RMSG_SETPCTRDATA', 00H ; `string'
CONST	ENDS
;	COMDAT ??_C@_0BB@GOOPDKI@RMSG_GETPCTRDATA@
CONST	SEGMENT
??_C@_0BB@GOOPDKI@RMSG_GETPCTRDATA@ DB 'RMSG_GETPCTRDATA', 00H ; `string'
CONST	ENDS
;	COMDAT ??_C@_0P@BKKCOCLK@RMSG_INTERFACE@
CONST	SEGMENT
??_C@_0P@BKKCOCLK@RMSG_INTERFACE@ DB 'RMSG_INTERFACE', 00H ; `string'
CONST	ENDS
PUBLIC	?__empty_global_delete@@YAXPAX@Z		; __empty_global_delete
PUBLIC	?__empty_global_delete@@YAXPAXI@Z		; __empty_global_delete
PUBLIC	___local_stdio_scanf_options
PUBLIC	_sscanf
PUBLIC	?Serialize@CObject@@UAEXAAVCArchive@@@Z		; CObject::Serialize
PUBLIC	?AssertValid@CObject@@UBEXXZ			; CObject::AssertValid
PUBLIC	?Dump@CObject@@UBEXAAVCDumpContext@@@Z		; CObject::Dump
PUBLIC	?SupportsRestartManager@CWinApp@@UBEHXZ		; CWinApp::SupportsRestartManager
PUBLIC	?SupportsApplicationRecovery@CWinApp@@UBEHXZ	; CWinApp::SupportsApplicationRecovery
PUBLIC	?SupportsAutosaveAtRestart@CWinApp@@UBEHXZ	; CWinApp::SupportsAutosaveAtRestart
PUBLIC	?SupportsAutosaveAtInterval@CWinApp@@UBEHXZ	; CWinApp::SupportsAutosaveAtInterval
PUBLIC	?ReopenPreviousFilesAtRestart@CWinApp@@UBEHXZ	; CWinApp::ReopenPreviousFilesAtRestart
PUBLIC	?RestoreAutosavedFilesAtRestart@CWinApp@@UBEHXZ	; CWinApp::RestoreAutosavedFilesAtRestart
PUBLIC	?GetApplicationRestartFlags@CWinApp@@UAEKXZ	; CWinApp::GetApplicationRestartFlags
PUBLIC	?GetApplicationRecoveryParameter@CWinApp@@UAEPAXXZ ; CWinApp::GetApplicationRecoveryParameter
PUBLIC	?GetApplicationRecoveryPingInterval@CWinApp@@UAEKXZ ; CWinApp::GetApplicationRecoveryPingInterval
PUBLIC	??0CDRDebugerLoader@@QAE@H@Z			; CDRDebugerLoader::CDRDebugerLoader
PUBLIC	??1CPartnerUtilManager@@QAE@XZ			; CPartnerUtilManager::~CPartnerUtilManager
PUBLIC	??0CPartnerMngApp@@QAE@XZ			; CPartnerMngApp::CPartnerMngApp
PUBLIC	?DoMapStrObj_UpDnInfo@CPartnerMngApp@@QAEXPBD00@Z ; CPartnerMngApp::DoMapStrObj_UpDnInfo
PUBLIC	?DoGetMapStrObj_UpDnInfo@CPartnerMngApp@@QAEXPBDAAV?$CStringT@DV?$StrTraitMFC_DLL@DV?$ChTraitsCRT@D@ATL@@@@@ATL@@1@Z ; CPartnerMngApp::DoGetMapStrObj_UpDnInfo
PUBLIC	?DoGetPctrInterface@CPartnerMngApp@@QAEJH@Z	; CPartnerMngApp::DoGetPctrInterface
PUBLIC	?ExitInstance@CPartnerMngApp@@UAEHXZ		; CPartnerMngApp::ExitInstance
PUBLIC	?InitInstance@CPartnerMngApp@@UAEHXZ		; CPartnerMngApp::InitInstance
PUBLIC	?GetThisMessageMap@CPartnerMngApp@@KGPBUAFX_MSGMAP@@XZ ; CPartnerMngApp::GetThisMessageMap
PUBLIC	?GetMessageMap@CPartnerMngApp@@MBEPBUAFX_MSGMAP@@XZ ; CPartnerMngApp::GetMessageMap
PUBLIC	??1CPartnerMngApp@@UAE@XZ			; CPartnerMngApp::~CPartnerMngApp
PUBLIC	??_GCPartnerMngApp@@UAEPAXI@Z			; CPartnerMngApp::`scalar deleting destructor'
PUBLIC	?GetInferface@@YGJHJ@Z				; GetInferface
PUBLIC	?SetInferface@@YGJHJ@Z				; SetInferface
PUBLIC	?SetPcTrInterface@@YGXHJ@Z			; SetPcTrInterface
PUBLIC	?_OptionsStorage@?1??__local_stdio_scanf_options@@9@4_KA ; `__local_stdio_scanf_options'::`2'::_OptionsStorage
PUBLIC	??_C@_01KICIPPFI@?2@				; `string'
PUBLIC	??_C@_0O@GFDNBJDO@DRDebuger?4dll@		; `string'
PUBLIC	??_C@_0CF@IGNKKJMG@?$FLdrfn?$FNDLL?$CI?$CFs?$CJ?$MA?$LL?5Load?G?R?5?$LM?v?5?$LO?x?$LN?$MA?$LE@ ; `string'
PUBLIC	??_R0?AVCObject@@@8				; CObject `RTTI Type Descriptor'
PUBLIC	??_R3CObject@@8					; CObject::`RTTI Class Hierarchy Descriptor'
PUBLIC	??_R2CObject@@8					; CObject::`RTTI Base Class Array'
PUBLIC	??_R1A@?0A@EA@CObject@@8			; CObject::`RTTI Base Class Descriptor at (0,-1,0,64)'
PUBLIC	??_R1A@?0A@EA@CCmdTarget@@8			; CCmdTarget::`RTTI Base Class Descriptor at (0,-1,0,64)'
PUBLIC	??_R0?AVCCmdTarget@@@8				; CCmdTarget `RTTI Type Descriptor'
PUBLIC	??_R3CCmdTarget@@8				; CCmdTarget::`RTTI Class Hierarchy Descriptor'
PUBLIC	??_R2CCmdTarget@@8				; CCmdTarget::`RTTI Base Class Array'
PUBLIC	??_C@_0M@CBBNGGHM@PcTrMng?4dll@			; `string'
PUBLIC	??_C@_0P@IDMAJEGN@HANAROPCTRMAIN@		; `string'
PUBLIC	??_C@_06NDLAHCHE@?$CFs?$CF08X@			; `string'
PUBLIC	??_C@_02EMFKHFLK@?$CFX@				; `string'
PUBLIC	??_7CGateManager@@6B@				; CGateManager::`vftable'
PUBLIC	??_7CPartnerMngApp@@6B@				; CPartnerMngApp::`vftable'
PUBLIC	?theApp@@3VCPartnerMngApp@@A			; theApp
PUBLIC	??_C@_05CCMOGDN@?$CFs?3?$CFs@			; `string'
PUBLIC	??_C@_01JLIPDDHJ@?3@				; `string'
PUBLIC	??_R0?AUIGateManager@@@8			; IGateManager `RTTI Type Descriptor'
PUBLIC	??_R3IGateManager@@8				; IGateManager::`RTTI Class Hierarchy Descriptor'
PUBLIC	??_R2IGateManager@@8				; IGateManager::`RTTI Base Class Array'
PUBLIC	??_R1A@?0A@EA@IGateManager@@8			; IGateManager::`RTTI Base Class Descriptor at (0,-1,0,64)'
PUBLIC	??_R4CGateManager@@6B@				; CGateManager::`RTTI Complete Object Locator'
PUBLIC	??_R0?AVCGateManager@@@8			; CGateManager `RTTI Type Descriptor'
PUBLIC	??_R3CGateManager@@8				; CGateManager::`RTTI Class Hierarchy Descriptor'
PUBLIC	??_R2CGateManager@@8				; CGateManager::`RTTI Base Class Array'
PUBLIC	??_R1A@?0A@EA@CGateManager@@8			; CGateManager::`RTTI Base Class Descriptor at (0,-1,0,64)'
PUBLIC	??_R4CPartnerMngApp@@6B@			; CPartnerMngApp::`RTTI Complete Object Locator'
PUBLIC	??_R0?AVCPartnerMngApp@@@8			; CPartnerMngApp `RTTI Type Descriptor'
PUBLIC	??_R3CPartnerMngApp@@8				; CPartnerMngApp::`RTTI Class Hierarchy Descriptor'
PUBLIC	??_R2CPartnerMngApp@@8				; CPartnerMngApp::`RTTI Base Class Array'
PUBLIC	??_R1A@?0A@EA@CPartnerMngApp@@8			; CPartnerMngApp::`RTTI Base Class Descriptor at (0,-1,0,64)'
PUBLIC	??_R1A@?0A@EA@CWinApp@@8			; CWinApp::`RTTI Base Class Descriptor at (0,-1,0,64)'
PUBLIC	??_R0?AVCWinApp@@@8				; CWinApp `RTTI Type Descriptor'
PUBLIC	??_R3CWinApp@@8					; CWinApp::`RTTI Class Hierarchy Descriptor'
PUBLIC	??_R2CWinApp@@8					; CWinApp::`RTTI Base Class Array'
PUBLIC	??_R1A@?0A@EA@CWinThread@@8			; CWinThread::`RTTI Base Class Descriptor at (0,-1,0,64)'
PUBLIC	??_R0?AVCWinThread@@@8				; CWinThread `RTTI Type Descriptor'
PUBLIC	??_R3CWinThread@@8				; CWinThread::`RTTI Class Hierarchy Descriptor'
PUBLIC	??_R2CWinThread@@8				; CWinThread::`RTTI Base Class Array'
PUBLIC	__real@3ff0000000000000
EXTRN	??_L@YGXPAXIIP6EX0@Z1@Z:PROC			; `eh vector constructor iterator'
EXTRN	??_M@YGXPAXIIP6EX0@Z@Z:PROC			; `eh vector destructor iterator'
EXTRN	??2@YAPAXI@Z:PROC				; operator new
EXTRN	??3@YAXPAX@Z:PROC				; operator delete
EXTRN	??3@YAXPAXI@Z:PROC				; operator delete
EXTRN	?__global_delete@@YAXPAXI@Z:PROC		; __global_delete
EXTRN	_atexit:PROC
EXTRN	__imp__GetEnvironmentVariableA@12:PROC
EXTRN	__imp__FreeLibrary@4:PROC
EXTRN	__imp__GetModuleFileNameA@12:PROC
EXTRN	__imp__GetModuleHandleA@4:PROC
EXTRN	__imp__LoadLibraryA@4:PROC
EXTRN	__imp__RegisterWindowMessageA@4:PROC
EXTRN	__imp__SendMessageA@16:PROC
EXTRN	__imp____stdio_common_vsscanf:PROC
EXTRN	__imp_??0?$CStringT@DV?$StrTraitMFC_DLL@DV?$ChTraitsCRT@D@ATL@@@@@ATL@@QAE@XZ:PROC
EXTRN	__imp_??0?$CStringT@DV?$StrTraitMFC_DLL@DV?$ChTraitsCRT@D@ATL@@@@@ATL@@QAE@PBD@Z:PROC
EXTRN	__imp_??1?$CStringT@DV?$StrTraitMFC_DLL@DV?$ChTraitsCRT@D@ATL@@@@@ATL@@QAE@XZ:PROC
EXTRN	__imp_??4?$CStringT@DV?$StrTraitMFC_DLL@DV?$ChTraitsCRT@D@ATL@@@@@ATL@@QAEAAV01@ABV01@@Z:PROC
EXTRN	__imp_??4?$CStringT@DV?$StrTraitMFC_DLL@DV?$ChTraitsCRT@D@ATL@@@@@ATL@@QAEAAV01@PBD@Z:PROC
EXTRN	__imp_??Y?$CStringT@DV?$StrTraitMFC_DLL@DV?$ChTraitsCRT@D@ATL@@@@@ATL@@QAEAAV01@PBD@Z:PROC
EXTRN	__imp_?Find@?$CStringT@DV?$StrTraitMFC_DLL@DV?$ChTraitsCRT@D@ATL@@@@@ATL@@QBEHPBDH@Z:PROC
EXTRN	__imp_?ReverseFind@?$CStringT@DV?$StrTraitMFC_DLL@DV?$ChTraitsCRT@D@ATL@@@@@ATL@@QBEHD@Z:PROC
EXTRN	__imp_?Mid@?$CStringT@DV?$StrTraitMFC_DLL@DV?$ChTraitsCRT@D@ATL@@@@@ATL@@QBE?AV12@H@Z:PROC
EXTRN	__imp_?Left@?$CStringT@DV?$StrTraitMFC_DLL@DV?$ChTraitsCRT@D@ATL@@@@@ATL@@QBE?AV12@H@Z:PROC
EXTRN	__imp_?Format@?$CStringT@DV?$StrTraitMFC_DLL@DV?$ChTraitsCRT@D@ATL@@@@@ATL@@QAAXPBDZZ:PROC
EXTRN	??0CMapStringToOb@@QAE@H@Z:PROC			; CMapStringToOb::CMapStringToOb
EXTRN	??1CMapStringToOb@@UAE@XZ:PROC			; CMapStringToOb::~CMapStringToOb
EXTRN	??0CMapStringToString@@QAE@H@Z:PROC		; CMapStringToString::CMapStringToString
EXTRN	?Lookup@CMapStringToString@@QBEHPBDAAV?$CStringT@DV?$StrTraitMFC_DLL@DV?$ChTraitsCRT@D@ATL@@@@@ATL@@@Z:PROC ; CMapStringToString::Lookup
EXTRN	??ACMapStringToString@@QAEAAV?$CStringT@DV?$StrTraitMFC_DLL@DV?$ChTraitsCRT@D@ATL@@@@@ATL@@PBD@Z:PROC ; CMapStringToString::operator[]
EXTRN	??1CMapStringToString@@UAE@XZ:PROC		; CMapStringToString::~CMapStringToString
EXTRN	?OnCmdMsg@CCmdTarget@@UAEHIHPAXPAUAFX_CMDHANDLERINFO@@@Z:PROC ; CCmdTarget::OnCmdMsg
EXTRN	?OnFinalRelease@CCmdTarget@@UAEXXZ:PROC		; CCmdTarget::OnFinalRelease
EXTRN	?IsInvokeAllowed@CCmdTarget@@UAEHJ@Z:PROC	; CCmdTarget::IsInvokeAllowed
EXTRN	?GetDispatchIID@CCmdTarget@@UAEHPAU_GUID@@@Z:PROC ; CCmdTarget::GetDispatchIID
EXTRN	?GetTypeInfoCount@CCmdTarget@@UAEIXZ:PROC	; CCmdTarget::GetTypeInfoCount
EXTRN	?GetTypeLibCache@CCmdTarget@@UAEPAVCTypeLibCache@@XZ:PROC ; CCmdTarget::GetTypeLibCache
EXTRN	?GetTypeLib@CCmdTarget@@UAEJKPAPAUITypeLib@@@Z:PROC ; CCmdTarget::GetTypeLib
EXTRN	?GetCommandMap@CCmdTarget@@MBEPBUAFX_OLECMDMAP@@XZ:PROC ; CCmdTarget::GetCommandMap
EXTRN	?GetDispatchMap@CCmdTarget@@MBEPBUAFX_DISPMAP@@XZ:PROC ; CCmdTarget::GetDispatchMap
EXTRN	?GetConnectionMap@CCmdTarget@@MBEPBUAFX_CONNECTIONMAP@@XZ:PROC ; CCmdTarget::GetConnectionMap
EXTRN	?GetInterfaceMap@CCmdTarget@@MBEPBUAFX_INTERFACEMAP@@XZ:PROC ; CCmdTarget::GetInterfaceMap
EXTRN	?GetEventSinkMap@CCmdTarget@@MBEPBUAFX_EVENTSINKMAP@@XZ:PROC ; CCmdTarget::GetEventSinkMap
EXTRN	?OnCreateAggregates@CCmdTarget@@UAEHXZ:PROC	; CCmdTarget::OnCreateAggregates
EXTRN	?GetInterfaceHook@CCmdTarget@@UAEPAUIUnknown@@PBX@Z:PROC ; CCmdTarget::GetInterfaceHook
EXTRN	?GetExtraConnectionPoints@CCmdTarget@@MAEHPAVCPtrArray@@@Z:PROC ; CCmdTarget::GetExtraConnectionPoints
EXTRN	?GetConnectionHook@CCmdTarget@@MAEPAUIConnectionPoint@@ABU_GUID@@@Z:PROC ; CCmdTarget::GetConnectionHook
EXTRN	?PreTranslateMessage@CWinThread@@UAEHPAUtagMSG@@@Z:PROC ; CWinThread::PreTranslateMessage
EXTRN	?PumpMessage@CWinThread@@UAEHXZ:PROC		; CWinThread::PumpMessage
EXTRN	?IsIdleMessage@CWinThread@@UAEHPAUtagMSG@@@Z:PROC ; CWinThread::IsIdleMessage
EXTRN	?ProcessMessageFilter@CWinThread@@UAEHHPAUtagMSG@@@Z:PROC ; CWinThread::ProcessMessageFilter
EXTRN	?GetMainWnd@CWinThread@@UAEPAVCWnd@@XZ:PROC	; CWinThread::GetMainWnd
EXTRN	?Delete@CWinThread@@UAEXXZ:PROC			; CWinThread::Delete
EXTRN	?GetRuntimeClass@CWinApp@@UBEPAUCRuntimeClass@@XZ:PROC ; CWinApp::GetRuntimeClass
EXTRN	??0CWinApp@@QAE@PBD@Z:PROC			; CWinApp::CWinApp
EXTRN	?GetProfileIntA@CWinApp@@UAEIPBD0H@Z:PROC	; CWinApp::GetProfileIntA
EXTRN	?WriteProfileInt@CWinApp@@UAEHPBD0H@Z:PROC	; CWinApp::WriteProfileInt
EXTRN	?GetProfileStringA@CWinApp@@UAE?AV?$CStringT@DV?$StrTraitMFC_DLL@DV?$ChTraitsCRT@D@ATL@@@@@ATL@@PBD00@Z:PROC ; CWinApp::GetProfileStringA
EXTRN	?WriteProfileStringA@CWinApp@@UAEHPBD00@Z:PROC	; CWinApp::WriteProfileStringA
EXTRN	?GetProfileBinary@CWinApp@@UAEHPBD0PAPAEPAI@Z:PROC ; CWinApp::GetProfileBinary
EXTRN	?WriteProfileBinary@CWinApp@@UAEHPBD0PAEI@Z:PROC ; CWinApp::WriteProfileBinary
EXTRN	?InitLibId@CWinApp@@UAEXXZ:PROC			; CWinApp::InitLibId
EXTRN	?Register@CWinApp@@UAEHXZ:PROC			; CWinApp::Register
EXTRN	?Unregister@CWinApp@@UAEHXZ:PROC		; CWinApp::Unregister
EXTRN	?OpenDocumentFile@CWinApp@@UAEPAVCDocument@@PBD@Z:PROC ; CWinApp::OpenDocumentFile
EXTRN	?OpenDocumentFile@CWinApp@@UAEPAVCDocument@@PBDH@Z:PROC ; CWinApp::OpenDocumentFile
EXTRN	?AddToRecentFileList@CWinApp@@UAEXPBD@Z:PROC	; CWinApp::AddToRecentFileList
EXTRN	?InitApplication@CWinApp@@UAEHXZ:PROC		; CWinApp::InitApplication
EXTRN	?SaveAllModified@CWinApp@@UAEHXZ:PROC		; CWinApp::SaveAllModified
EXTRN	?DoMessageBox@CWinApp@@UAEHPBDII@Z:PROC		; CWinApp::DoMessageBox
EXTRN	?DoWaitCursor@CWinApp@@UAEXH@Z:PROC		; CWinApp::DoWaitCursor
EXTRN	?OnDDECommand@CWinApp@@UAEHPAD@Z:PROC		; CWinApp::OnDDECommand
EXTRN	?WinHelpA@CWinApp@@UAEXKI@Z:PROC		; CWinApp::WinHelpA
EXTRN	?HtmlHelpA@CWinApp@@UAEXKI@Z:PROC		; CWinApp::HtmlHelpA
EXTRN	?WinHelpInternal@CWinApp@@UAEXKI@Z:PROC		; CWinApp::WinHelpInternal
EXTRN	?RegisterWithRestartManager@CWinApp@@UAEJHABV?$CStringT@DV?$StrTraitMFC_DLL@DV?$ChTraitsCRT@D@ATL@@@@@ATL@@@Z:PROC ; CWinApp::RegisterWithRestartManager
EXTRN	?RegisterWithRestartManager@CWinApp@@UAEJPB_WKP6GKPAX@Z1KK@Z:PROC ; CWinApp::RegisterWithRestartManager
EXTRN	?ApplicationRecoveryCallback@CWinApp@@UAEKPAX@Z:PROC ; CWinApp::ApplicationRecoveryCallback
EXTRN	?GetDataRecoveryHandler@CWinApp@@UAEPAVCDataRecoveryHandler@@XZ:PROC ; CWinApp::GetDataRecoveryHandler
EXTRN	?IsTaskbarInteractionEnabled@CWinApp@@UAEHXZ:PROC ; CWinApp::IsTaskbarInteractionEnabled
EXTRN	?InitInstance@CWinApp@@UAEHXZ:PROC		; CWinApp::InitInstance
EXTRN	?ExitInstance@CWinApp@@UAEHXZ:PROC		; CWinApp::ExitInstance
EXTRN	?RestartInstance@CWinApp@@UAEHXZ:PROC		; CWinApp::RestartInstance
EXTRN	?Run@CWinApp@@UAEHXZ:PROC			; CWinApp::Run
EXTRN	?OnIdle@CWinApp@@UAEHJ@Z:PROC			; CWinApp::OnIdle
EXTRN	?ProcessWndProcException@CWinApp@@UAEJPAVCException@@PBUtagMSG@@@Z:PROC ; CWinApp::ProcessWndProcException
EXTRN	?LoadAppLangResourceDLL@CWinApp@@UAEPAUHINSTANCE__@@XZ:PROC ; CWinApp::LoadAppLangResourceDLL
EXTRN	??1CWinApp@@UAE@XZ:PROC				; CWinApp::~CWinApp
EXTRN	?GetThisMessageMap@CWinApp@@KGPBUAFX_MSGMAP@@XZ:PROC ; CWinApp::GetThisMessageMap
EXTRN	?LoadSysPolicies@CWinApp@@UAEHXZ:PROC		; CWinApp::LoadSysPolicies
EXTRN	??0CRealCounterMng@@QAE@XZ:PROC			; CRealCounterMng::CRealCounterMng
EXTRN	??1CRealCounterMng@@QAE@XZ:PROC			; CRealCounterMng::~CRealCounterMng
EXTRN	?GetInterface@CGateManager@@UAGJHJ@Z:PROC	; CGateManager::GetInterface
EXTRN	??0CPartnerSvrManager@@QAE@XZ:PROC		; CPartnerSvrManager::CPartnerSvrManager
EXTRN	??1CPartnerSvrManager@@QAE@XZ:PROC		; CPartnerSvrManager::~CPartnerSvrManager
EXTRN	??0CChartBozoManager@@QAE@XZ:PROC		; CChartBozoManager::CChartBozoManager
EXTRN	??0CPartnerUtilManager@@QAE@XZ:PROC		; CPartnerUtilManager::CPartnerUtilManager
EXTRN	??_ECPartnerMngApp@@UAEPAXI@Z:PROC		; CPartnerMngApp::`vector deleting destructor'
EXTRN	@__security_check_cookie@4:PROC
EXTRN	___CxxFrameHandler3:PROC
EXTRN	_memset:PROC
EXTRN	??_7type_info@@6B@:QWORD			; type_info::`vftable'
EXTRN	?g_pDRDebuger@@3PAVCDRDebugerLoader@@A:DWORD	; g_pDRDebuger
EXTRN	___security_cookie:DWORD
EXTRN	__fltused:DWORD
;	COMDAT ?_OptionsStorage@?1??__local_stdio_scanf_options@@9@4_KA
_BSS	SEGMENT
?_OptionsStorage@?1??__local_stdio_scanf_options@@9@4_KA DQ 01H DUP (?) ; `__local_stdio_scanf_options'::`2'::_OptionsStorage
_BSS	ENDS
_BSS	SEGMENT
?RMSG_INTERFACE@@3IB DD 01H DUP (?)			; RMSG_INTERFACE
?RMSG_GETPCTRDATA@@3IB DD 01H DUP (?)			; RMSG_GETPCTRDATA
?RMSG_SETPCTRDATA@@3IB DD 01H DUP (?)			; RMSG_SETPCTRDATA
?RMSG_GETSIGNAL_REAL@@3IB DD 01H DUP (?)		; RMSG_GETSIGNAL_REAL
?theApp@@3VCPartnerMngApp@@A DB 019cH DUP (?)		; theApp
_BSS	ENDS
CRT$XCU	SEGMENT
?RMSG_INTERFACE$initializer$@@3P6AXXZA DD FLAT:??__ERMSG_INTERFACE@@YAXXZ ; RMSG_INTERFACE$initializer$
CRT$XCU	ENDS
;	COMDAT __real@3ff0000000000000
CONST	SEGMENT
__real@3ff0000000000000 DQ 03ff0000000000000r	; 1
CONST	ENDS
;	COMDAT ??_R2CWinThread@@8
rdata$r	SEGMENT
??_R2CWinThread@@8 DD FLAT:??_R1A@?0A@EA@CWinThread@@8	; CWinThread::`RTTI Base Class Array'
	DD	FLAT:??_R1A@?0A@EA@CCmdTarget@@8
	DD	FLAT:??_R1A@?0A@EA@CObject@@8
rdata$r	ENDS
;	COMDAT ??_R3CWinThread@@8
rdata$r	SEGMENT
??_R3CWinThread@@8 DD 00H				; CWinThread::`RTTI Class Hierarchy Descriptor'
	DD	00H
	DD	03H
	DD	FLAT:??_R2CWinThread@@8
rdata$r	ENDS
;	COMDAT ??_R0?AVCWinThread@@@8
data$rs	SEGMENT
??_R0?AVCWinThread@@@8 DD FLAT:??_7type_info@@6B@	; CWinThread `RTTI Type Descriptor'
	DD	00H
	DB	'.?AVCWinThread@@', 00H
data$rs	ENDS
;	COMDAT ??_R1A@?0A@EA@CWinThread@@8
rdata$r	SEGMENT
??_R1A@?0A@EA@CWinThread@@8 DD FLAT:??_R0?AVCWinThread@@@8 ; CWinThread::`RTTI Base Class Descriptor at (0,-1,0,64)'
	DD	02H
	DD	00H
	DD	0ffffffffH
	DD	00H
	DD	040H
	DD	FLAT:??_R3CWinThread@@8
rdata$r	ENDS
;	COMDAT ??_R2CWinApp@@8
rdata$r	SEGMENT
??_R2CWinApp@@8 DD FLAT:??_R1A@?0A@EA@CWinApp@@8	; CWinApp::`RTTI Base Class Array'
	DD	FLAT:??_R1A@?0A@EA@CWinThread@@8
	DD	FLAT:??_R1A@?0A@EA@CCmdTarget@@8
	DD	FLAT:??_R1A@?0A@EA@CObject@@8
rdata$r	ENDS
;	COMDAT ??_R3CWinApp@@8
rdata$r	SEGMENT
??_R3CWinApp@@8 DD 00H					; CWinApp::`RTTI Class Hierarchy Descriptor'
	DD	00H
	DD	04H
	DD	FLAT:??_R2CWinApp@@8
rdata$r	ENDS
;	COMDAT ??_R0?AVCWinApp@@@8
data$rs	SEGMENT
??_R0?AVCWinApp@@@8 DD FLAT:??_7type_info@@6B@		; CWinApp `RTTI Type Descriptor'
	DD	00H
	DB	'.?AVCWinApp@@', 00H
data$rs	ENDS
;	COMDAT ??_R1A@?0A@EA@CWinApp@@8
rdata$r	SEGMENT
??_R1A@?0A@EA@CWinApp@@8 DD FLAT:??_R0?AVCWinApp@@@8	; CWinApp::`RTTI Base Class Descriptor at (0,-1,0,64)'
	DD	03H
	DD	00H
	DD	0ffffffffH
	DD	00H
	DD	040H
	DD	FLAT:??_R3CWinApp@@8
rdata$r	ENDS
;	COMDAT ??_R1A@?0A@EA@CPartnerMngApp@@8
rdata$r	SEGMENT
??_R1A@?0A@EA@CPartnerMngApp@@8 DD FLAT:??_R0?AVCPartnerMngApp@@@8 ; CPartnerMngApp::`RTTI Base Class Descriptor at (0,-1,0,64)'
	DD	04H
	DD	00H
	DD	0ffffffffH
	DD	00H
	DD	040H
	DD	FLAT:??_R3CPartnerMngApp@@8
rdata$r	ENDS
;	COMDAT ??_R2CPartnerMngApp@@8
rdata$r	SEGMENT
??_R2CPartnerMngApp@@8 DD FLAT:??_R1A@?0A@EA@CPartnerMngApp@@8 ; CPartnerMngApp::`RTTI Base Class Array'
	DD	FLAT:??_R1A@?0A@EA@CWinApp@@8
	DD	FLAT:??_R1A@?0A@EA@CWinThread@@8
	DD	FLAT:??_R1A@?0A@EA@CCmdTarget@@8
	DD	FLAT:??_R1A@?0A@EA@CObject@@8
rdata$r	ENDS
;	COMDAT ??_R3CPartnerMngApp@@8
rdata$r	SEGMENT
??_R3CPartnerMngApp@@8 DD 00H				; CPartnerMngApp::`RTTI Class Hierarchy Descriptor'
	DD	00H
	DD	05H
	DD	FLAT:??_R2CPartnerMngApp@@8
rdata$r	ENDS
;	COMDAT ??_R0?AVCPartnerMngApp@@@8
data$rs	SEGMENT
??_R0?AVCPartnerMngApp@@@8 DD FLAT:??_7type_info@@6B@	; CPartnerMngApp `RTTI Type Descriptor'
	DD	00H
	DB	'.?AVCPartnerMngApp@@', 00H
data$rs	ENDS
;	COMDAT ??_R4CPartnerMngApp@@6B@
rdata$r	SEGMENT
??_R4CPartnerMngApp@@6B@ DD 00H				; CPartnerMngApp::`RTTI Complete Object Locator'
	DD	00H
	DD	00H
	DD	FLAT:??_R0?AVCPartnerMngApp@@@8
	DD	FLAT:??_R3CPartnerMngApp@@8
rdata$r	ENDS
;	COMDAT ??_R1A@?0A@EA@CGateManager@@8
rdata$r	SEGMENT
??_R1A@?0A@EA@CGateManager@@8 DD FLAT:??_R0?AVCGateManager@@@8 ; CGateManager::`RTTI Base Class Descriptor at (0,-1,0,64)'
	DD	01H
	DD	00H
	DD	0ffffffffH
	DD	00H
	DD	040H
	DD	FLAT:??_R3CGateManager@@8
rdata$r	ENDS
;	COMDAT ??_R2CGateManager@@8
rdata$r	SEGMENT
??_R2CGateManager@@8 DD FLAT:??_R1A@?0A@EA@CGateManager@@8 ; CGateManager::`RTTI Base Class Array'
	DD	FLAT:??_R1A@?0A@EA@IGateManager@@8
rdata$r	ENDS
;	COMDAT ??_R3CGateManager@@8
rdata$r	SEGMENT
??_R3CGateManager@@8 DD 00H				; CGateManager::`RTTI Class Hierarchy Descriptor'
	DD	00H
	DD	02H
	DD	FLAT:??_R2CGateManager@@8
rdata$r	ENDS
;	COMDAT ??_R0?AVCGateManager@@@8
data$rs	SEGMENT
??_R0?AVCGateManager@@@8 DD FLAT:??_7type_info@@6B@	; CGateManager `RTTI Type Descriptor'
	DD	00H
	DB	'.?AVCGateManager@@', 00H
data$rs	ENDS
;	COMDAT ??_R4CGateManager@@6B@
rdata$r	SEGMENT
??_R4CGateManager@@6B@ DD 00H				; CGateManager::`RTTI Complete Object Locator'
	DD	00H
	DD	00H
	DD	FLAT:??_R0?AVCGateManager@@@8
	DD	FLAT:??_R3CGateManager@@8
rdata$r	ENDS
;	COMDAT ??_R1A@?0A@EA@IGateManager@@8
rdata$r	SEGMENT
??_R1A@?0A@EA@IGateManager@@8 DD FLAT:??_R0?AUIGateManager@@@8 ; IGateManager::`RTTI Base Class Descriptor at (0,-1,0,64)'
	DD	00H
	DD	00H
	DD	0ffffffffH
	DD	00H
	DD	040H
	DD	FLAT:??_R3IGateManager@@8
rdata$r	ENDS
;	COMDAT ??_R2IGateManager@@8
rdata$r	SEGMENT
??_R2IGateManager@@8 DD FLAT:??_R1A@?0A@EA@IGateManager@@8 ; IGateManager::`RTTI Base Class Array'
rdata$r	ENDS
;	COMDAT ??_R3IGateManager@@8
rdata$r	SEGMENT
??_R3IGateManager@@8 DD 00H				; IGateManager::`RTTI Class Hierarchy Descriptor'
	DD	00H
	DD	01H
	DD	FLAT:??_R2IGateManager@@8
rdata$r	ENDS
;	COMDAT ??_R0?AUIGateManager@@@8
data$rs	SEGMENT
??_R0?AUIGateManager@@@8 DD FLAT:??_7type_info@@6B@	; IGateManager `RTTI Type Descriptor'
	DD	00H
	DB	'.?AUIGateManager@@', 00H
data$rs	ENDS
;	COMDAT ??_C@_01JLIPDDHJ@?3@
CONST	SEGMENT
??_C@_01JLIPDDHJ@?3@ DB ':', 00H			; `string'
CONST	ENDS
;	COMDAT ??_C@_05CCMOGDN@?$CFs?3?$CFs@
CONST	SEGMENT
??_C@_05CCMOGDN@?$CFs?3?$CFs@ DB '%s:%s', 00H		; `string'
CONST	ENDS
;	COMDAT ?messageMap@?1??GetThisMessageMap@CPartnerMngApp@@KGPBUAFX_MSGMAP@@XZ@4U3@B
CONST	SEGMENT
?messageMap@?1??GetThisMessageMap@CPartnerMngApp@@KGPBUAFX_MSGMAP@@XZ@4U3@B DD FLAT:?GetThisMessageMap@CWinApp@@KGPBUAFX_MSGMAP@@XZ ; `CPartnerMngApp::GetThisMessageMap'::`2'::messageMap
	DD	FLAT:?_messageEntries@?1??GetThisMessageMap@CPartnerMngApp@@KGPBUAFX_MSGMAP@@XZ@4QBUAFX_MSGMAP_ENTRY@@B
CONST	ENDS
;	COMDAT ?_messageEntries@?1??GetThisMessageMap@CPartnerMngApp@@KGPBUAFX_MSGMAP@@XZ@4QBUAFX_MSGMAP_ENTRY@@B
CONST	SEGMENT
?_messageEntries@?1??GetThisMessageMap@CPartnerMngApp@@KGPBUAFX_MSGMAP@@XZ@4QBUAFX_MSGMAP_ENTRY@@B DD 00H ; `CPartnerMngApp::GetThisMessageMap'::`2'::_messageEntries
	DD	00H
	DD	00H
	DD	00H
	DD	00H
	DD	00H
CONST	ENDS
;	COMDAT ??_7CPartnerMngApp@@6B@
CONST	SEGMENT
??_7CPartnerMngApp@@6B@ DD FLAT:??_R4CPartnerMngApp@@6B@ ; CPartnerMngApp::`vftable'
	DD	FLAT:?GetRuntimeClass@CWinApp@@UBEPAUCRuntimeClass@@XZ
	DD	FLAT:??_ECPartnerMngApp@@UAEPAXI@Z
	DD	FLAT:?Serialize@CObject@@UAEXAAVCArchive@@@Z
	DD	FLAT:?AssertValid@CObject@@UBEXXZ
	DD	FLAT:?Dump@CObject@@UBEXAAVCDumpContext@@@Z
	DD	FLAT:?OnCmdMsg@CCmdTarget@@UAEHIHPAXPAUAFX_CMDHANDLERINFO@@@Z
	DD	FLAT:?OnFinalRelease@CCmdTarget@@UAEXXZ
	DD	FLAT:?IsInvokeAllowed@CCmdTarget@@UAEHJ@Z
	DD	FLAT:?GetDispatchIID@CCmdTarget@@UAEHPAU_GUID@@@Z
	DD	FLAT:?GetTypeInfoCount@CCmdTarget@@UAEIXZ
	DD	FLAT:?GetTypeLibCache@CCmdTarget@@UAEPAVCTypeLibCache@@XZ
	DD	FLAT:?GetTypeLib@CCmdTarget@@UAEJKPAPAUITypeLib@@@Z
	DD	FLAT:?GetMessageMap@CPartnerMngApp@@MBEPBUAFX_MSGMAP@@XZ
	DD	FLAT:?GetCommandMap@CCmdTarget@@MBEPBUAFX_OLECMDMAP@@XZ
	DD	FLAT:?GetDispatchMap@CCmdTarget@@MBEPBUAFX_DISPMAP@@XZ
	DD	FLAT:?GetConnectionMap@CCmdTarget@@MBEPBUAFX_CONNECTIONMAP@@XZ
	DD	FLAT:?GetInterfaceMap@CCmdTarget@@MBEPBUAFX_INTERFACEMAP@@XZ
	DD	FLAT:?GetEventSinkMap@CCmdTarget@@MBEPBUAFX_EVENTSINKMAP@@XZ
	DD	FLAT:?OnCreateAggregates@CCmdTarget@@UAEHXZ
	DD	FLAT:?GetInterfaceHook@CCmdTarget@@UAEPAUIUnknown@@PBX@Z
	DD	FLAT:?GetExtraConnectionPoints@CCmdTarget@@MAEHPAVCPtrArray@@@Z
	DD	FLAT:?GetConnectionHook@CCmdTarget@@MAEPAUIConnectionPoint@@ABU_GUID@@@Z
	DD	FLAT:?InitInstance@CPartnerMngApp@@UAEHXZ
	DD	FLAT:?Run@CWinApp@@UAEHXZ
	DD	FLAT:?PreTranslateMessage@CWinThread@@UAEHPAUtagMSG@@@Z
	DD	FLAT:?PumpMessage@CWinThread@@UAEHXZ
	DD	FLAT:?OnIdle@CWinApp@@UAEHJ@Z
	DD	FLAT:?IsIdleMessage@CWinThread@@UAEHPAUtagMSG@@@Z
	DD	FLAT:?ExitInstance@CPartnerMngApp@@UAEHXZ
	DD	FLAT:?ProcessWndProcException@CWinApp@@UAEJPAVCException@@PBUtagMSG@@@Z
	DD	FLAT:?ProcessMessageFilter@CWinThread@@UAEHHPAUtagMSG@@@Z
	DD	FLAT:?GetMainWnd@CWinThread@@UAEPAVCWnd@@XZ
	DD	FLAT:?Delete@CWinThread@@UAEXXZ
	DD	FLAT:?GetProfileIntA@CWinApp@@UAEIPBD0H@Z
	DD	FLAT:?WriteProfileInt@CWinApp@@UAEHPBD0H@Z
	DD	FLAT:?GetProfileStringA@CWinApp@@UAE?AV?$CStringT@DV?$StrTraitMFC_DLL@DV?$ChTraitsCRT@D@ATL@@@@@ATL@@PBD00@Z
	DD	FLAT:?WriteProfileStringA@CWinApp@@UAEHPBD00@Z
	DD	FLAT:?GetProfileBinary@CWinApp@@UAEHPBD0PAPAEPAI@Z
	DD	FLAT:?WriteProfileBinary@CWinApp@@UAEHPBD0PAEI@Z
	DD	FLAT:?InitLibId@CWinApp@@UAEXXZ
	DD	FLAT:?Register@CWinApp@@UAEHXZ
	DD	FLAT:?Unregister@CWinApp@@UAEHXZ
	DD	FLAT:?OpenDocumentFile@CWinApp@@UAEPAVCDocument@@PBDH@Z
	DD	FLAT:?OpenDocumentFile@CWinApp@@UAEPAVCDocument@@PBD@Z
	DD	FLAT:?AddToRecentFileList@CWinApp@@UAEXPBD@Z
	DD	FLAT:?InitApplication@CWinApp@@UAEHXZ
	DD	FLAT:?SaveAllModified@CWinApp@@UAEHXZ
	DD	FLAT:?DoMessageBox@CWinApp@@UAEHPBDII@Z
	DD	FLAT:?DoWaitCursor@CWinApp@@UAEXH@Z
	DD	FLAT:?OnDDECommand@CWinApp@@UAEHPAD@Z
	DD	FLAT:?WinHelpA@CWinApp@@UAEXKI@Z
	DD	FLAT:?HtmlHelpA@CWinApp@@UAEXKI@Z
	DD	FLAT:?WinHelpInternal@CWinApp@@UAEXKI@Z
	DD	FLAT:?RegisterWithRestartManager@CWinApp@@UAEJPB_WKP6GKPAX@Z1KK@Z
	DD	FLAT:?RegisterWithRestartManager@CWinApp@@UAEJHABV?$CStringT@DV?$StrTraitMFC_DLL@DV?$ChTraitsCRT@D@ATL@@@@@ATL@@@Z
	DD	FLAT:?ApplicationRecoveryCallback@CWinApp@@UAEKPAX@Z
	DD	FLAT:?SupportsRestartManager@CWinApp@@UBEHXZ
	DD	FLAT:?SupportsApplicationRecovery@CWinApp@@UBEHXZ
	DD	FLAT:?SupportsAutosaveAtRestart@CWinApp@@UBEHXZ
	DD	FLAT:?SupportsAutosaveAtInterval@CWinApp@@UBEHXZ
	DD	FLAT:?ReopenPreviousFilesAtRestart@CWinApp@@UBEHXZ
	DD	FLAT:?RestoreAutosavedFilesAtRestart@CWinApp@@UBEHXZ
	DD	FLAT:?GetApplicationRestartFlags@CWinApp@@UAEKXZ
	DD	FLAT:?GetApplicationRecoveryParameter@CWinApp@@UAEPAXXZ
	DD	FLAT:?GetApplicationRecoveryPingInterval@CWinApp@@UAEKXZ
	DD	FLAT:?GetDataRecoveryHandler@CWinApp@@UAEPAVCDataRecoveryHandler@@XZ
	DD	FLAT:?IsTaskbarInteractionEnabled@CWinApp@@UAEHXZ
	DD	FLAT:?RestartInstance@CWinApp@@UAEHXZ
	DD	FLAT:?LoadAppLangResourceDLL@CWinApp@@UAEPAUHINSTANCE__@@XZ
	DD	FLAT:?LoadSysPolicies@CWinApp@@UAEHXZ
CONST	ENDS
;	COMDAT ??_7CGateManager@@6B@
CONST	SEGMENT
??_7CGateManager@@6B@ DD FLAT:??_R4CGateManager@@6B@	; CGateManager::`vftable'
	DD	FLAT:?GetInterface@CGateManager@@UAGJHJ@Z
CONST	ENDS
;	COMDAT ??_C@_02EMFKHFLK@?$CFX@
CONST	SEGMENT
??_C@_02EMFKHFLK@?$CFX@ DB '%X', 00H			; `string'
CONST	ENDS
;	COMDAT ??_C@_06NDLAHCHE@?$CFs?$CF08X@
CONST	SEGMENT
??_C@_06NDLAHCHE@?$CFs?$CF08X@ DB '%s%08X', 00H		; `string'
CONST	ENDS
;	COMDAT ??_C@_0P@IDMAJEGN@HANAROPCTRMAIN@
CONST	SEGMENT
??_C@_0P@IDMAJEGN@HANAROPCTRMAIN@ DB 'HANAROPCTRMAIN', 00H ; `string'
CONST	ENDS
;	COMDAT ??_C@_0M@CBBNGGHM@PcTrMng?4dll@
CONST	SEGMENT
??_C@_0M@CBBNGGHM@PcTrMng?4dll@ DB 'PcTrMng.dll', 00H	; `string'
CONST	ENDS
;	COMDAT ??_R2CCmdTarget@@8
rdata$r	SEGMENT
??_R2CCmdTarget@@8 DD FLAT:??_R1A@?0A@EA@CCmdTarget@@8	; CCmdTarget::`RTTI Base Class Array'
	DD	FLAT:??_R1A@?0A@EA@CObject@@8
rdata$r	ENDS
;	COMDAT ??_R3CCmdTarget@@8
rdata$r	SEGMENT
??_R3CCmdTarget@@8 DD 00H				; CCmdTarget::`RTTI Class Hierarchy Descriptor'
	DD	00H
	DD	02H
	DD	FLAT:??_R2CCmdTarget@@8
rdata$r	ENDS
;	COMDAT ??_R0?AVCCmdTarget@@@8
data$rs	SEGMENT
??_R0?AVCCmdTarget@@@8 DD FLAT:??_7type_info@@6B@	; CCmdTarget `RTTI Type Descriptor'
	DD	00H
	DB	'.?AVCCmdTarget@@', 00H
data$rs	ENDS
;	COMDAT ??_R1A@?0A@EA@CCmdTarget@@8
rdata$r	SEGMENT
??_R1A@?0A@EA@CCmdTarget@@8 DD FLAT:??_R0?AVCCmdTarget@@@8 ; CCmdTarget::`RTTI Base Class Descriptor at (0,-1,0,64)'
	DD	01H
	DD	00H
	DD	0ffffffffH
	DD	00H
	DD	040H
	DD	FLAT:??_R3CCmdTarget@@8
rdata$r	ENDS
;	COMDAT ??_R1A@?0A@EA@CObject@@8
rdata$r	SEGMENT
??_R1A@?0A@EA@CObject@@8 DD FLAT:??_R0?AVCObject@@@8	; CObject::`RTTI Base Class Descriptor at (0,-1,0,64)'
	DD	00H
	DD	00H
	DD	0ffffffffH
	DD	00H
	DD	040H
	DD	FLAT:??_R3CObject@@8
rdata$r	ENDS
;	COMDAT ??_R2CObject@@8
rdata$r	SEGMENT
??_R2CObject@@8 DD FLAT:??_R1A@?0A@EA@CObject@@8	; CObject::`RTTI Base Class Array'
rdata$r	ENDS
;	COMDAT ??_R3CObject@@8
rdata$r	SEGMENT
??_R3CObject@@8 DD 00H					; CObject::`RTTI Class Hierarchy Descriptor'
	DD	00H
	DD	01H
	DD	FLAT:??_R2CObject@@8
rdata$r	ENDS
;	COMDAT ??_R0?AVCObject@@@8
data$rs	SEGMENT
??_R0?AVCObject@@@8 DD FLAT:??_7type_info@@6B@		; CObject `RTTI Type Descriptor'
	DD	00H
	DB	'.?AVCObject@@', 00H
data$rs	ENDS
;	COMDAT ??_C@_0CF@IGNKKJMG@?$FLdrfn?$FNDLL?$CI?$CFs?$CJ?$MA?$LL?5Load?G?R?5?$LM?v?5?$LO?x?$LN?$MA?$LE@
CONST	SEGMENT
??_C@_0CF@IGNKKJMG@?$FLdrfn?$FNDLL?$CI?$CFs?$CJ?$MA?$LL?5Load?G?R?5?$LM?v?5?$LO?x?$LN?$MA?$LE@ DB '['
	DB	'drfn]DLL(%s)', 0c0H, 0bbH, ' Load', 0c7H, 0d2H, ' ', 0bcH, 0f6H
	DB	' ', 0beH, 0f8H, 0bdH, 0c0H, 0b4H, 0cfH, 0b4H, 0d9H, '.', 0aH, 00H ; `string'
CONST	ENDS
;	COMDAT ??_C@_0O@GFDNBJDO@DRDebuger?4dll@
CONST	SEGMENT
??_C@_0O@GFDNBJDO@DRDebuger?4dll@ DB 'DRDebuger.dll', 00H ; `string'
CONST	ENDS
;	COMDAT ??_C@_01KICIPPFI@?2@
CONST	SEGMENT
??_C@_01KICIPPFI@?2@ DB '\', 00H			; `string'
CONST	ENDS
;	COMDAT xdata$x
xdata$x	SEGMENT
__ehfuncinfo$??__EtheApp@@YAXXZ DD 019930522H
	DD	05H
	DD	FLAT:__unwindtable$??__EtheApp@@YAXXZ
	DD	2 DUP(00H)
	DD	2 DUP(00H)
	DD	00H
	DD	01H
__unwindtable$??__EtheApp@@YAXXZ DD 0ffffffffH
	DD	FLAT:__unwindfunclet$??__EtheApp@@YAXXZ$0
	DD	00H
	DD	FLAT:__unwindfunclet$??__EtheApp@@YAXXZ$1
	DD	01H
	DD	FLAT:__unwindfunclet$??__EtheApp@@YAXXZ$2
	DD	02H
	DD	FLAT:__unwindfunclet$??__EtheApp@@YAXXZ$3
	DD	03H
	DD	FLAT:__unwindfunclet$??__EtheApp@@YAXXZ$4
xdata$x	ENDS
;	COMDAT xdata$x
xdata$x	SEGMENT
__ehfuncinfo$??1CPartnerMngApp@@UAE@XZ DD 019930522H
	DD	00H
	DD	00H
	DD	2 DUP(00H)
	DD	2 DUP(00H)
	DD	00H
	DD	05H
xdata$x	ENDS
;	COMDAT xdata$x
xdata$x	SEGMENT
__unwindtable$?InitInstance@CPartnerMngApp@@UAEHXZ DD 0ffffffffH
	DD	FLAT:__unwindfunclet$?InitInstance@CPartnerMngApp@@UAEHXZ$0
__ehfuncinfo$?InitInstance@CPartnerMngApp@@UAEHXZ DD 019930522H
	DD	01H
	DD	FLAT:__unwindtable$?InitInstance@CPartnerMngApp@@UAEHXZ
	DD	2 DUP(00H)
	DD	2 DUP(00H)
	DD	00H
	DD	01H
xdata$x	ENDS
;	COMDAT xdata$x
xdata$x	SEGMENT
__unwindtable$?DoGetMapStrObj_UpDnInfo@CPartnerMngApp@@QAEXPBDAAV?$CStringT@DV?$StrTraitMFC_DLL@DV?$ChTraitsCRT@D@ATL@@@@@ATL@@1@Z DD 0ffffffffH
	DD	FLAT:__unwindfunclet$?DoGetMapStrObj_UpDnInfo@CPartnerMngApp@@QAEXPBDAAV?$CStringT@DV?$StrTraitMFC_DLL@DV?$ChTraitsCRT@D@ATL@@@@@ATL@@1@Z$0
	DD	00H
	DD	FLAT:__unwindfunclet$?DoGetMapStrObj_UpDnInfo@CPartnerMngApp@@QAEXPBDAAV?$CStringT@DV?$StrTraitMFC_DLL@DV?$ChTraitsCRT@D@ATL@@@@@ATL@@1@Z$1
	DD	00H
	DD	FLAT:__unwindfunclet$?DoGetMapStrObj_UpDnInfo@CPartnerMngApp@@QAEXPBDAAV?$CStringT@DV?$StrTraitMFC_DLL@DV?$ChTraitsCRT@D@ATL@@@@@ATL@@1@Z$2
__ehfuncinfo$?DoGetMapStrObj_UpDnInfo@CPartnerMngApp@@QAEXPBDAAV?$CStringT@DV?$StrTraitMFC_DLL@DV?$ChTraitsCRT@D@ATL@@@@@ATL@@1@Z DD 019930522H
	DD	03H
	DD	FLAT:__unwindtable$?DoGetMapStrObj_UpDnInfo@CPartnerMngApp@@QAEXPBDAAV?$CStringT@DV?$StrTraitMFC_DLL@DV?$ChTraitsCRT@D@ATL@@@@@ATL@@1@Z
	DD	2 DUP(00H)
	DD	2 DUP(00H)
	DD	00H
	DD	01H
xdata$x	ENDS
;	COMDAT xdata$x
xdata$x	SEGMENT
__unwindtable$?DoMapStrObj_UpDnInfo@CPartnerMngApp@@QAEXPBD00@Z DD 0ffffffffH
	DD	FLAT:__unwindfunclet$?DoMapStrObj_UpDnInfo@CPartnerMngApp@@QAEXPBD00@Z$0
__ehfuncinfo$?DoMapStrObj_UpDnInfo@CPartnerMngApp@@QAEXPBD00@Z DD 019930522H
	DD	01H
	DD	FLAT:__unwindtable$?DoMapStrObj_UpDnInfo@CPartnerMngApp@@QAEXPBD00@Z
	DD	2 DUP(00H)
	DD	2 DUP(00H)
	DD	00H
	DD	01H
xdata$x	ENDS
;	COMDAT xdata$x
xdata$x	SEGMENT
__ehfuncinfo$??0CPartnerMngApp@@QAE@XZ DD 019930522H
	DD	05H
	DD	FLAT:__unwindtable$??0CPartnerMngApp@@QAE@XZ
	DD	2 DUP(00H)
	DD	2 DUP(00H)
	DD	00H
	DD	01H
__unwindtable$??0CPartnerMngApp@@QAE@XZ DD 0ffffffffH
	DD	FLAT:__unwindfunclet$??0CPartnerMngApp@@QAE@XZ$0
	DD	00H
	DD	FLAT:__unwindfunclet$??0CPartnerMngApp@@QAE@XZ$1
	DD	01H
	DD	FLAT:__unwindfunclet$??0CPartnerMngApp@@QAE@XZ$2
	DD	02H
	DD	FLAT:__unwindfunclet$??0CPartnerMngApp@@QAE@XZ$3
	DD	03H
	DD	FLAT:__unwindfunclet$??0CPartnerMngApp@@QAE@XZ$4
xdata$x	ENDS
;	COMDAT xdata$x
xdata$x	SEGMENT
__unwindtable$?AfxGetPctrInterface@@YGJH@Z DD 0ffffffffH
	DD	FLAT:__unwindfunclet$?AfxGetPctrInterface@@YGJH@Z$0
__ehfuncinfo$?AfxGetPctrInterface@@YGJH@Z DD 019930522H
	DD	01H
	DD	FLAT:__unwindtable$?AfxGetPctrInterface@@YGJH@Z
	DD	2 DUP(00H)
	DD	2 DUP(00H)
	DD	00H
	DD	01H
xdata$x	ENDS
;	COMDAT xdata$x
xdata$x	SEGMENT
__unwindtable$?LoadLib@CDRDebugerLoader@@QAEPAUHINSTANCE__@@XZ DD 0ffffffffH
	DD	FLAT:__unwindfunclet$?LoadLib@CDRDebugerLoader@@QAEPAUHINSTANCE__@@XZ$0
__ehfuncinfo$?LoadLib@CDRDebugerLoader@@QAEPAUHINSTANCE__@@XZ DD 019930522H
	DD	01H
	DD	FLAT:__unwindtable$?LoadLib@CDRDebugerLoader@@QAEPAUHINSTANCE__@@XZ
	DD	2 DUP(00H)
	DD	2 DUP(00H)
	DD	00H
	DD	01H
xdata$x	ENDS
;	COMDAT xdata$x
xdata$x	SEGMENT
__unwindtable$?GetExeDir@CDRDebugerLoader@@QAEXAAV?$CStringT@DV?$StrTraitMFC_DLL@DV?$ChTraitsCRT@D@ATL@@@@@ATL@@@Z DD 0ffffffffH
	DD	FLAT:__unwindfunclet$?GetExeDir@CDRDebugerLoader@@QAEXAAV?$CStringT@DV?$StrTraitMFC_DLL@DV?$ChTraitsCRT@D@ATL@@@@@ATL@@@Z$0
	DD	00H
	DD	FLAT:__unwindfunclet$?GetExeDir@CDRDebugerLoader@@QAEXAAV?$CStringT@DV?$StrTraitMFC_DLL@DV?$ChTraitsCRT@D@ATL@@@@@ATL@@@Z$1
__ehfuncinfo$?GetExeDir@CDRDebugerLoader@@QAEXAAV?$CStringT@DV?$StrTraitMFC_DLL@DV?$ChTraitsCRT@D@ATL@@@@@ATL@@@Z DD 019930522H
	DD	02H
	DD	FLAT:__unwindtable$?GetExeDir@CDRDebugerLoader@@QAEXAAV?$CStringT@DV?$StrTraitMFC_DLL@DV?$ChTraitsCRT@D@ATL@@@@@ATL@@@Z
	DD	2 DUP(00H)
	DD	2 DUP(00H)
	DD	00H
	DD	01H
xdata$x	ENDS
;	COMDAT xdata$x
xdata$x	SEGMENT
__ehfuncinfo$??0CDRDebugerLoader@@QAE@H@Z DD 019930522H
	DD	05H
	DD	FLAT:__unwindtable$??0CDRDebugerLoader@@QAE@H@Z
	DD	2 DUP(00H)
	DD	2 DUP(00H)
	DD	00H
	DD	01H
__unwindtable$??0CDRDebugerLoader@@QAE@H@Z DD 0ffffffffH
	DD	FLAT:__unwindfunclet$??0CDRDebugerLoader@@QAE@H@Z$0
	DD	00H
	DD	FLAT:__unwindfunclet$??0CDRDebugerLoader@@QAE@H@Z$1
	DD	01H
	DD	FLAT:__unwindfunclet$??0CDRDebugerLoader@@QAE@H@Z$2
	DD	02H
	DD	FLAT:__unwindfunclet$??0CDRDebugerLoader@@QAE@H@Z$3
	DD	01H
	DD	FLAT:__unwindfunclet$??0CDRDebugerLoader@@QAE@H@Z$4
xdata$x	ENDS
CRT$XCU	SEGMENT
?RMSG_GETPCTRDATA$initializer$@@3P6AXXZA DD FLAT:??__ERMSG_GETPCTRDATA@@YAXXZ ; RMSG_GETPCTRDATA$initializer$
CRT$XCU	ENDS
CRT$XCU	SEGMENT
?RMSG_SETPCTRDATA$initializer$@@3P6AXXZA DD FLAT:??__ERMSG_SETPCTRDATA@@YAXXZ ; RMSG_SETPCTRDATA$initializer$
CRT$XCU	ENDS
CRT$XCU	SEGMENT
?RMSG_GETSIGNAL_REAL$initializer$@@3P6AXXZA DD FLAT:??__ERMSG_GETSIGNAL_REAL@@YAXXZ ; RMSG_GETSIGNAL_REAL$initializer$
CRT$XCU	ENDS
CRT$XCU	SEGMENT
?theApp$initializer$@@3P6AXXZA DD FLAT:??__EtheApp@@YAXXZ ; theApp$initializer$
CRT$XCU	ENDS
; Function compile flags: /Ogtp
; File D:\git\src\IBK\IBK_DRFN\ProjSrc\SrcDrfn\DrCommon\PartnerMng\PartnerMng.cpp
;	COMDAT ?SetPcTrInterface@@YGXHJ@Z
_TEXT	SEGMENT
_nID$ = 8						; size = 4
_dwData$ = 12						; size = 4
?SetPcTrInterface@@YGXHJ@Z PROC				; SetPcTrInterface, COMDAT

; 139  : {

  00000	55		 push	 ebp
  00001	8b ec		 mov	 ebp, esp

; 140  : 	switch(nID)

  00003	a1 f4 00 00 00	 mov	 eax, DWORD PTR ?theApp@@3VCPartnerMngApp@@A+244
  00008	83 7d 08 00	 cmp	 DWORD PTR _nID$[ebp], 0
  0000c	0f 44 45 0c	 cmove	 eax, DWORD PTR _dwData$[ebp]
  00010	a3 f4 00 00 00	 mov	 DWORD PTR ?theApp@@3VCPartnerMngApp@@A+244, eax

; 141  : 	{
; 142  : 		case 0:
; 143  : 			theApp.m_pPctrGateMng = (IGateManager*)dwData;
; 144  : 			break;
; 145  : 		default:
; 146  : 			break;
; 147  : 	}
; 148  : }

  00015	5d		 pop	 ebp
  00016	c2 08 00	 ret	 8
?SetPcTrInterface@@YGXHJ@Z ENDP				; SetPcTrInterface
_TEXT	ENDS
; Function compile flags: /Ogtp
; File D:\git\src\IBK\IBK_DRFN\ProjSrc\SrcDrfn\DrCommon\PartnerMng\PartnerMng.cpp
;	COMDAT ?SetInferface@@YGJHJ@Z
_TEXT	SEGMENT
_nID$ = 8						; size = 4
_dwData$ = 12						; size = 4
?SetInferface@@YGJHJ@Z PROC				; SetInferface, COMDAT

; 132  : //	int nID = (int)wp;
; 133  : //	LONG dwInterface = dwData
; 134  : 
; 135  : 	return NULL;

  00000	33 c0		 xor	 eax, eax

; 136  : }

  00002	c2 08 00	 ret	 8
?SetInferface@@YGJHJ@Z ENDP				; SetInferface
_TEXT	ENDS
; Function compile flags: /Ogtp
; File D:\git\src\IBK\IBK_DRFN\ProjSrc\SrcDrfn\DrCommon\PartnerMng\PartnerMng.cpp
;	COMDAT ?GetInferface@@YGJHJ@Z
_TEXT	SEGMENT
_nID$ = 8						; size = 4
_dwData$ = 12						; size = 4
?GetInferface@@YGJHJ@Z PROC				; GetInferface, COMDAT

; 126  : {

  00000	55		 push	 ebp
  00001	8b ec		 mov	 ebp, esp

; 127  : 	return theApp.m_GateMng.GetInterface(nID, dwData);

  00003	ff 75 0c	 push	 DWORD PTR _dwData$[ebp]
  00006	ff 75 08	 push	 DWORD PTR _nID$[ebp]
  00009	68 f8 00 00 00	 push	 OFFSET ?theApp@@3VCPartnerMngApp@@A+248
  0000e	e8 00 00 00 00	 call	 ?GetInterface@CGateManager@@UAGJHJ@Z ; CGateManager::GetInterface

; 128  : }

  00013	5d		 pop	 ebp
  00014	c2 08 00	 ret	 8
?GetInferface@@YGJHJ@Z ENDP				; GetInferface
_TEXT	ENDS
; Function compile flags: /Ogtp
;	COMDAT ??__FtheApp@@YAXXZ
text$yd	SEGMENT
??__FtheApp@@YAXXZ PROC					; `dynamic atexit destructor for 'theApp'', COMDAT
  00000	b9 00 00 00 00	 mov	 ecx, OFFSET ?theApp@@3VCPartnerMngApp@@A ; theApp
  00005	e9 00 00 00 00	 jmp	 ??1CPartnerMngApp@@UAE@XZ
??__FtheApp@@YAXXZ ENDP					; `dynamic atexit destructor for 'theApp''
text$yd	ENDS
; Function compile flags: /Ogtp
; File D:\git\src\IBK\IBK_DRFN\ProjSrc\SrcDrfn\DrCommon\PartnerMng\PartnerMng.cpp
;	COMDAT ??__EtheApp@@YAXXZ
text$di	SEGMENT
__$EHRec$ = -12						; size = 12
??__EtheApp@@YAXXZ PROC					; `dynamic initializer for 'theApp'', COMDAT

; 120  : CPartnerMngApp theApp;

  00000	55		 push	 ebp
  00001	8b ec		 mov	 ebp, esp
  00003	6a ff		 push	 -1
  00005	68 00 00 00 00	 push	 __ehhandler$??__EtheApp@@YAXXZ
  0000a	64 a1 00 00 00
	00		 mov	 eax, DWORD PTR fs:0
  00010	50		 push	 eax
  00011	a1 00 00 00 00	 mov	 eax, DWORD PTR ___security_cookie
  00016	33 c5		 xor	 eax, ebp
  00018	50		 push	 eax
  00019	8d 45 f4	 lea	 eax, DWORD PTR __$EHRec$[ebp]
  0001c	64 a3 00 00 00
	00		 mov	 DWORD PTR fs:0, eax

; 54   : {

  00022	6a 00		 push	 0
  00024	b9 00 00 00 00	 mov	 ecx, OFFSET ?theApp@@3VCPartnerMngApp@@A
  00029	e8 00 00 00 00	 call	 ??0CWinApp@@QAE@PBD@Z	; CWinApp::CWinApp
  0002e	b9 fc 00 00 00	 mov	 ecx, OFFSET ?theApp@@3VCPartnerMngApp@@A+252
  00033	c7 45 fc 00 00
	00 00		 mov	 DWORD PTR __$EHRec$[ebp+8], 0
  0003a	c7 05 00 00 00
	00 00 00 00 00	 mov	 DWORD PTR ?theApp@@3VCPartnerMngApp@@A, OFFSET ??_7CPartnerMngApp@@6B@
  00044	c7 05 f8 00 00
	00 00 00 00 00	 mov	 DWORD PTR ?theApp@@3VCPartnerMngApp@@A+248, OFFSET ??_7CGateManager@@6B@
  0004e	e8 00 00 00 00	 call	 ??0CPartnerSvrManager@@QAE@XZ ; CPartnerSvrManager::CPartnerSvrManager
  00053	b9 30 01 00 00	 mov	 ecx, OFFSET ?theApp@@3VCPartnerMngApp@@A+304
  00058	c6 45 fc 01	 mov	 BYTE PTR __$EHRec$[ebp+8], 1
  0005c	e8 00 00 00 00	 call	 ??0CChartBozoManager@@QAE@XZ ; CChartBozoManager::CChartBozoManager
  00061	b9 34 01 00 00	 mov	 ecx, OFFSET ?theApp@@3VCPartnerMngApp@@A+308
  00066	e8 00 00 00 00	 call	 ??0CPartnerUtilManager@@QAE@XZ ; CPartnerUtilManager::CPartnerUtilManager
  0006b	68 00 00 00 00	 push	 OFFSET ??1CRealCounterMng@@QAE@XZ ; CRealCounterMng::~CRealCounterMng
  00070	68 00 00 00 00	 push	 OFFSET ??0CRealCounterMng@@QAE@XZ ; CRealCounterMng::CRealCounterMng
  00075	6a 01		 push	 1
  00077	6a 1c		 push	 28			; 0000001cH
  00079	68 48 01 00 00	 push	 OFFSET ?theApp@@3VCPartnerMngApp@@A+328
  0007e	c6 45 fc 02	 mov	 BYTE PTR __$EHRec$[ebp+8], 2
  00082	e8 00 00 00 00	 call	 ??_L@YGXPAXIIP6EX0@Z1@Z
  00087	6a 0a		 push	 10			; 0000000aH
  00089	b9 64 01 00 00	 mov	 ecx, OFFSET ?theApp@@3VCPartnerMngApp@@A+356
  0008e	c6 45 fc 03	 mov	 BYTE PTR __$EHRec$[ebp+8], 3
  00092	e8 00 00 00 00	 call	 ??0CMapStringToString@@QAE@H@Z ; CMapStringToString::CMapStringToString
  00097	6a 0a		 push	 10			; 0000000aH
  00099	b9 80 01 00 00	 mov	 ecx, OFFSET ?theApp@@3VCPartnerMngApp@@A+384
  0009e	c6 45 fc 04	 mov	 BYTE PTR __$EHRec$[ebp+8], 4
  000a2	e8 00 00 00 00	 call	 ??0CMapStringToOb@@QAE@H@Z ; CMapStringToOb::CMapStringToOb
  000a7	0f 57 c0	 xorps	 xmm0, xmm0

; 55   : 	// TODO: add construction code here,
; 56   : 	// Place all significant initialization in InitInstance
; 57   : 	for(int i=0; i<MAX_Partner_INTERFACE; i++) m_uaInterface[i].pInterface=NULL;

  000aa	c7 05 ec 00 00
	00 00 00 00 00	 mov	 DWORD PTR ?theApp@@3VCPartnerMngApp@@A+236, 0

; 120  : CPartnerMngApp theApp;

  000b4	68 00 00 00 00	 push	 OFFSET ??__FtheApp@@YAXXZ ; `dynamic atexit destructor for 'theApp''

; 57   : 	for(int i=0; i<MAX_Partner_INTERFACE; i++) m_uaInterface[i].pInterface=NULL;

  000b9	0f 11 05 cc 00
	00 00		 movups	 XMMWORD PTR ?theApp@@3VCPartnerMngApp@@A+204, xmm0
  000c0	c7 05 f0 00 00
	00 00 00 00 00	 mov	 DWORD PTR ?theApp@@3VCPartnerMngApp@@A+240, 0
  000ca	0f 11 05 dc 00
	00 00		 movups	 XMMWORD PTR ?theApp@@3VCPartnerMngApp@@A+220, xmm0

; 58   : 	m_pPctrGateMng = NULL;

  000d1	c7 05 f4 00 00
	00 00 00 00 00	 mov	 DWORD PTR ?theApp@@3VCPartnerMngApp@@A+244, 0

; 120  : CPartnerMngApp theApp;

  000db	e8 00 00 00 00	 call	 _atexit
  000e0	83 c4 04	 add	 esp, 4
  000e3	8b 4d f4	 mov	 ecx, DWORD PTR __$EHRec$[ebp]
  000e6	64 89 0d 00 00
	00 00		 mov	 DWORD PTR fs:0, ecx
  000ed	59		 pop	 ecx
  000ee	8b e5		 mov	 esp, ebp
  000f0	5d		 pop	 ebp
  000f1	c3		 ret	 0
text$di	ENDS
;	COMDAT text$x
text$x	SEGMENT
__unwindfunclet$??__EtheApp@@YAXXZ$0:
  00000	b9 00 00 00 00	 mov	 ecx, OFFSET ?theApp@@3VCPartnerMngApp@@A
  00005	e9 00 00 00 00	 jmp	 ??1CWinApp@@UAE@XZ	; CWinApp::~CWinApp
__unwindfunclet$??__EtheApp@@YAXXZ$1:
  0000a	b9 fc 00 00 00	 mov	 ecx, OFFSET ?theApp@@3VCPartnerMngApp@@A+252
  0000f	e9 00 00 00 00	 jmp	 ??1CPartnerSvrManager@@QAE@XZ ; CPartnerSvrManager::~CPartnerSvrManager
__unwindfunclet$??__EtheApp@@YAXXZ$2:
  00014	b9 34 01 00 00	 mov	 ecx, OFFSET ?theApp@@3VCPartnerMngApp@@A+308
  00019	e9 00 00 00 00	 jmp	 ??1CPartnerUtilManager@@QAE@XZ
__unwindfunclet$??__EtheApp@@YAXXZ$3:
  0001e	68 00 00 00 00	 push	 OFFSET ??1CRealCounterMng@@QAE@XZ ; CRealCounterMng::~CRealCounterMng
  00023	6a 01		 push	 1
  00025	6a 1c		 push	 28			; 0000001cH
  00027	68 48 01 00 00	 push	 OFFSET ?theApp@@3VCPartnerMngApp@@A+328
  0002c	e8 00 00 00 00	 call	 ??_M@YGXPAXIIP6EX0@Z@Z
  00031	c3		 ret	 0
__unwindfunclet$??__EtheApp@@YAXXZ$4:
  00032	b9 64 01 00 00	 mov	 ecx, OFFSET ?theApp@@3VCPartnerMngApp@@A+356
  00037	e9 00 00 00 00	 jmp	 ??1CMapStringToString@@UAE@XZ ; CMapStringToString::~CMapStringToString
  0003c	cc		 int	 3
  0003d	cc		 int	 3
  0003e	cc		 int	 3
  0003f	cc		 int	 3
  00040	cc		 int	 3
__ehhandler$??__EtheApp@@YAXXZ:
  00041	90		 npad	 1
  00042	90		 npad	 1
  00043	8b 54 24 08	 mov	 edx, DWORD PTR [esp+8]
  00047	8d 42 0c	 lea	 eax, DWORD PTR [edx+12]
  0004a	8b 4a fc	 mov	 ecx, DWORD PTR [edx-4]
  0004d	33 c8		 xor	 ecx, eax
  0004f	e8 00 00 00 00	 call	 @__security_check_cookie@4
  00054	b8 00 00 00 00	 mov	 eax, OFFSET __ehfuncinfo$??__EtheApp@@YAXXZ
  00059	e9 00 00 00 00	 jmp	 ___CxxFrameHandler3
text$x	ENDS
??__EtheApp@@YAXXZ ENDP					; `dynamic initializer for 'theApp''
; Function compile flags: /Ogtp
; File C:\Program Files (x86)\Microsoft Visual Studio\2019\Community\VC\Tools\MSVC\14.29.30133\atlmfc\include\afx.inl
;	COMDAT ??_GCPartnerMngApp@@UAEPAXI@Z
_TEXT	SEGMENT
___flags$ = 8						; size = 4
??_GCPartnerMngApp@@UAEPAXI@Z PROC			; CPartnerMngApp::`scalar deleting destructor', COMDAT
; _this$ = ecx
  00000	55		 push	 ebp
  00001	8b ec		 mov	 ebp, esp
  00003	56		 push	 esi
  00004	8b f1		 mov	 esi, ecx
  00006	e8 00 00 00 00	 call	 ??1CPartnerMngApp@@UAE@XZ
  0000b	8b 45 08	 mov	 eax, DWORD PTR ___flags$[ebp]
  0000e	a8 01		 test	 al, 1
  00010	74 22		 je	 SHORT $LN9@scalar
  00012	a8 04		 test	 al, 4
  00014	75 10		 jne	 SHORT $LN3@scalar

; 112  : 	{ ::operator delete(p); }

  00016	56		 push	 esi
  00017	e8 00 00 00 00	 call	 ??3@YAXPAX@Z		; operator delete
  0001c	83 c4 04	 add	 esp, 4
  0001f	8b c6		 mov	 eax, esi
  00021	5e		 pop	 esi
  00022	5d		 pop	 ebp
  00023	c2 04 00	 ret	 4
$LN3@scalar:
  00026	68 9c 01 00 00	 push	 412			; 0000019cH
  0002b	56		 push	 esi
  0002c	e8 00 00 00 00	 call	 ?__global_delete@@YAXPAXI@Z ; __global_delete
  00031	83 c4 08	 add	 esp, 8
$LN9@scalar:
  00034	8b c6		 mov	 eax, esi
  00036	5e		 pop	 esi
  00037	5d		 pop	 ebp
  00038	c2 04 00	 ret	 4
??_GCPartnerMngApp@@UAEPAXI@Z ENDP			; CPartnerMngApp::`scalar deleting destructor'
_TEXT	ENDS
; Function compile flags: /Ogtp
;	COMDAT ??1CPartnerMngApp@@UAE@XZ
_TEXT	SEGMENT
__$EHRec$ = -12						; size = 12
??1CPartnerMngApp@@UAE@XZ PROC				; CPartnerMngApp::~CPartnerMngApp, COMDAT
; _this$ = ecx
  00000	55		 push	 ebp
  00001	8b ec		 mov	 ebp, esp
  00003	6a ff		 push	 -1
  00005	68 00 00 00 00	 push	 __ehhandler$??1CPartnerMngApp@@UAE@XZ
  0000a	64 a1 00 00 00
	00		 mov	 eax, DWORD PTR fs:0
  00010	50		 push	 eax
  00011	56		 push	 esi
  00012	a1 00 00 00 00	 mov	 eax, DWORD PTR ___security_cookie
  00017	33 c5		 xor	 eax, ebp
  00019	50		 push	 eax
  0001a	8d 45 f4	 lea	 eax, DWORD PTR __$EHRec$[ebp]
  0001d	64 a3 00 00 00
	00		 mov	 DWORD PTR fs:0, eax
  00023	8b f1		 mov	 esi, ecx
  00025	8d 8e 80 01 00
	00		 lea	 ecx, DWORD PTR [esi+384]
  0002b	e8 00 00 00 00	 call	 ??1CMapStringToOb@@UAE@XZ ; CMapStringToOb::~CMapStringToOb
  00030	8d 8e 64 01 00
	00		 lea	 ecx, DWORD PTR [esi+356]
  00036	e8 00 00 00 00	 call	 ??1CMapStringToString@@UAE@XZ ; CMapStringToString::~CMapStringToString
  0003b	68 00 00 00 00	 push	 OFFSET ??1CRealCounterMng@@QAE@XZ ; CRealCounterMng::~CRealCounterMng
  00040	6a 01		 push	 1
  00042	6a 1c		 push	 28			; 0000001cH
  00044	8d 86 48 01 00
	00		 lea	 eax, DWORD PTR [esi+328]
  0004a	50		 push	 eax
  0004b	e8 00 00 00 00	 call	 ??_M@YGXPAXIIP6EX0@Z@Z
  00050	8d 8e 40 01 00
	00		 lea	 ecx, DWORD PTR [esi+320]
  00056	ff 15 00 00 00
	00		 call	 DWORD PTR __imp_??1?$CStringT@DV?$StrTraitMFC_DLL@DV?$ChTraitsCRT@D@ATL@@@@@ATL@@QAE@XZ
  0005c	8d 8e 3c 01 00
	00		 lea	 ecx, DWORD PTR [esi+316]
  00062	ff 15 00 00 00
	00		 call	 DWORD PTR __imp_??1?$CStringT@DV?$StrTraitMFC_DLL@DV?$ChTraitsCRT@D@ATL@@@@@ATL@@QAE@XZ
  00068	8d 8e 38 01 00
	00		 lea	 ecx, DWORD PTR [esi+312]
  0006e	ff 15 00 00 00
	00		 call	 DWORD PTR __imp_??1?$CStringT@DV?$StrTraitMFC_DLL@DV?$ChTraitsCRT@D@ATL@@@@@ATL@@QAE@XZ
  00074	8d 8e fc 00 00
	00		 lea	 ecx, DWORD PTR [esi+252]
  0007a	e8 00 00 00 00	 call	 ??1CPartnerSvrManager@@QAE@XZ ; CPartnerSvrManager::~CPartnerSvrManager
  0007f	8b ce		 mov	 ecx, esi
  00081	e8 00 00 00 00	 call	 ??1CWinApp@@UAE@XZ	; CWinApp::~CWinApp
  00086	8b 4d f4	 mov	 ecx, DWORD PTR __$EHRec$[ebp]
  00089	64 89 0d 00 00
	00 00		 mov	 DWORD PTR fs:0, ecx
  00090	59		 pop	 ecx
  00091	5e		 pop	 esi
  00092	8b e5		 mov	 esp, ebp
  00094	5d		 pop	 ebp
  00095	c3		 ret	 0
  00096	cc		 int	 3
  00097	cc		 int	 3
  00098	cc		 int	 3
  00099	cc		 int	 3
  0009a	cc		 int	 3
_TEXT	ENDS
;	COMDAT text$x
text$x	SEGMENT
__ehhandler$??1CPartnerMngApp@@UAE@XZ:
  00000	90		 npad	 1
  00001	90		 npad	 1
  00002	8b 54 24 08	 mov	 edx, DWORD PTR [esp+8]
  00006	8d 42 0c	 lea	 eax, DWORD PTR [edx+12]
  00009	8b 4a f8	 mov	 ecx, DWORD PTR [edx-8]
  0000c	33 c8		 xor	 ecx, eax
  0000e	e8 00 00 00 00	 call	 @__security_check_cookie@4
  00013	b8 00 00 00 00	 mov	 eax, OFFSET __ehfuncinfo$??1CPartnerMngApp@@UAE@XZ
  00018	e9 00 00 00 00	 jmp	 ___CxxFrameHandler3
text$x	ENDS
??1CPartnerMngApp@@UAE@XZ ENDP				; CPartnerMngApp::~CPartnerMngApp
; Function compile flags: /Ogtp
; File D:\git\src\IBK\IBK_DRFN\ProjSrc\SrcDrfn\DrCommon\PartnerMng\PartnerMng.cpp
;	COMDAT ?GetMessageMap@CPartnerMngApp@@MBEPBUAFX_MSGMAP@@XZ
_TEXT	SEGMENT
?GetMessageMap@CPartnerMngApp@@MBEPBUAFX_MSGMAP@@XZ PROC ; CPartnerMngApp::GetMessageMap, COMDAT
; _this$ = ecx

; 43   : BEGIN_MESSAGE_MAP(CPartnerMngApp, CWinApp)

  00000	b8 00 00 00 00	 mov	 eax, OFFSET ?messageMap@?1??GetThisMessageMap@CPartnerMngApp@@KGPBUAFX_MSGMAP@@XZ@4U3@B
  00005	c3		 ret	 0
?GetMessageMap@CPartnerMngApp@@MBEPBUAFX_MSGMAP@@XZ ENDP ; CPartnerMngApp::GetMessageMap
_TEXT	ENDS
; Function compile flags: /Ogtp
; File D:\git\src\IBK\IBK_DRFN\ProjSrc\SrcDrfn\DrCommon\PartnerMng\PartnerMng.cpp
;	COMDAT ?GetThisMessageMap@CPartnerMngApp@@KGPBUAFX_MSGMAP@@XZ
_TEXT	SEGMENT
?GetThisMessageMap@CPartnerMngApp@@KGPBUAFX_MSGMAP@@XZ PROC ; CPartnerMngApp::GetThisMessageMap, COMDAT

; 44   : 	//{{AFX_MSG_MAP(CPartnerMngApp)
; 45   : 		// NOTE - the ClassWizard will add and remove mapping macros here.
; 46   : 		//    DO NOT EDIT what you see in these blocks of generated code!
; 47   : 	//}}AFX_MSG_MAP
; 48   : END_MESSAGE_MAP()

  00000	b8 00 00 00 00	 mov	 eax, OFFSET ?messageMap@?1??GetThisMessageMap@CPartnerMngApp@@KGPBUAFX_MSGMAP@@XZ@4U3@B
  00005	c3		 ret	 0
?GetThisMessageMap@CPartnerMngApp@@KGPBUAFX_MSGMAP@@XZ ENDP ; CPartnerMngApp::GetThisMessageMap
_TEXT	ENDS
; Function compile flags: /Ogtp
; File D:\git\src\IBK\IBK_DRFN\ProjSrc\SrcDrfn\DrCommon\PartnerMng\PartnerMng.cpp
;	COMDAT ?InitInstance@CPartnerMngApp@@UAEHXZ
_TEXT	SEGMENT
$T2 = -16						; size = 4
__$EHRec$ = -12						; size = 12
?InitInstance@CPartnerMngApp@@UAEHXZ PROC		; CPartnerMngApp::InitInstance, COMDAT
; _this$ = ecx

; 65   : {

  00000	55		 push	 ebp
  00001	8b ec		 mov	 ebp, esp
  00003	6a ff		 push	 -1
  00005	68 00 00 00 00	 push	 __ehhandler$?InitInstance@CPartnerMngApp@@UAEHXZ
  0000a	64 a1 00 00 00
	00		 mov	 eax, DWORD PTR fs:0
  00010	50		 push	 eax
  00011	51		 push	 ecx
  00012	56		 push	 esi
  00013	a1 00 00 00 00	 mov	 eax, DWORD PTR ___security_cookie
  00018	33 c5		 xor	 eax, ebp
  0001a	50		 push	 eax
  0001b	8d 45 f4	 lea	 eax, DWORD PTR __$EHRec$[ebp]
  0001e	64 a3 00 00 00
	00		 mov	 DWORD PTR fs:0, eax
  00024	8b f1		 mov	 esi, ecx

; 66   : 	g_pDRDebuger = new CDRDebugerLoader();

  00026	6a 70		 push	 112			; 00000070H
  00028	e8 00 00 00 00	 call	 ??2@YAPAXI@Z		; operator new
  0002d	83 c4 04	 add	 esp, 4
  00030	89 45 f0	 mov	 DWORD PTR $T2[ebp], eax
  00033	c7 45 fc 00 00
	00 00		 mov	 DWORD PTR __$EHRec$[ebp+8], 0
  0003a	85 c0		 test	 eax, eax
  0003c	74 0b		 je	 SHORT $LN3@InitInstan
  0003e	6a 01		 push	 1
  00040	8b c8		 mov	 ecx, eax
  00042	e8 00 00 00 00	 call	 ??0CDRDebugerLoader@@QAE@H@Z ; CDRDebugerLoader::CDRDebugerLoader
  00047	eb 02		 jmp	 SHORT $LN4@InitInstan
$LN3@InitInstan:
  00049	33 c0		 xor	 eax, eax
$LN4@InitInstan:
  0004b	a3 00 00 00 00	 mov	 DWORD PTR ?g_pDRDebuger@@3PAVCDRDebugerLoader@@A, eax ; g_pDRDebuger

; 67   : 	// TODO: Add your specialized code here and/or call the base class
; 68   : 	m_uaInterface[LUID_IPartnerManager].pInterface = (LONG)&m_PtSvrMng;
; 69   : 	m_uaInterface[LUID_IChartBozoMsgManager].pInterface = (LONG)&m_ChartBozoMng;
; 70   : 	m_uaInterface[LUID_IPartnerUtilManager].pInterface = (LONG)&m_PtUtilMng;
; 71   : 
; 72   : 	//m_pPctrGateMng = (IGateManager*)AfxGetPctrInterface(UUID_IGateManager);
; 73   : 
; 74   : 	return CWinApp::InitInstance();

  00050	8b ce		 mov	 ecx, esi
  00052	8d 86 fc 00 00
	00		 lea	 eax, DWORD PTR [esi+252]
  00058	c7 45 fc ff ff
	ff ff		 mov	 DWORD PTR __$EHRec$[ebp+8], -1
  0005f	89 86 cc 00 00
	00		 mov	 DWORD PTR [esi+204], eax
  00065	8d 86 30 01 00
	00		 lea	 eax, DWORD PTR [esi+304]
  0006b	89 86 d0 00 00
	00		 mov	 DWORD PTR [esi+208], eax
  00071	8d 86 34 01 00
	00		 lea	 eax, DWORD PTR [esi+308]
  00077	89 86 d4 00 00
	00		 mov	 DWORD PTR [esi+212], eax
  0007d	e8 00 00 00 00	 call	 ?InitInstance@CWinApp@@UAEHXZ ; CWinApp::InitInstance

; 75   : }

  00082	8b 4d f4	 mov	 ecx, DWORD PTR __$EHRec$[ebp]
  00085	64 89 0d 00 00
	00 00		 mov	 DWORD PTR fs:0, ecx
  0008c	59		 pop	 ecx
  0008d	5e		 pop	 esi
  0008e	8b e5		 mov	 esp, ebp
  00090	5d		 pop	 ebp
  00091	c3		 ret	 0
_TEXT	ENDS
;	COMDAT text$x
text$x	SEGMENT
__unwindfunclet$?InitInstance@CPartnerMngApp@@UAEHXZ$0:
  00000	6a 70		 push	 112			; 00000070H
  00002	8b 45 f0	 mov	 eax, DWORD PTR $T2[ebp]
  00005	50		 push	 eax
  00006	e8 00 00 00 00	 call	 ??3@YAXPAXI@Z		; operator delete
  0000b	83 c4 08	 add	 esp, 8
  0000e	c3		 ret	 0
  0000f	cc		 int	 3
  00010	cc		 int	 3
  00011	cc		 int	 3
  00012	cc		 int	 3
  00013	cc		 int	 3
__ehhandler$?InitInstance@CPartnerMngApp@@UAEHXZ:
  00014	90		 npad	 1
  00015	90		 npad	 1
  00016	8b 54 24 08	 mov	 edx, DWORD PTR [esp+8]
  0001a	8d 42 0c	 lea	 eax, DWORD PTR [edx+12]
  0001d	8b 4a f4	 mov	 ecx, DWORD PTR [edx-12]
  00020	33 c8		 xor	 ecx, eax
  00022	e8 00 00 00 00	 call	 @__security_check_cookie@4
  00027	b8 00 00 00 00	 mov	 eax, OFFSET __ehfuncinfo$?InitInstance@CPartnerMngApp@@UAEHXZ
  0002c	e9 00 00 00 00	 jmp	 ___CxxFrameHandler3
text$x	ENDS
?InitInstance@CPartnerMngApp@@UAEHXZ ENDP		; CPartnerMngApp::InitInstance
; Function compile flags: /Ogtp
; File D:\git\src\IBK\IBK_DRFN\ProjSrc\SrcDrfn\DrCommon\PartnerMng\PartnerMng.cpp
; File D:\git\src\IBK\IBK_DRFN\ProjSrc\SrcDrfn\inc\LoadDRDebuger.h
; File D:\git\src\IBK\IBK_DRFN\ProjSrc\SrcDrfn\DrCommon\PartnerMng\PartnerMng.cpp
;	COMDAT ?ExitInstance@CPartnerMngApp@@UAEHXZ
_TEXT	SEGMENT
?ExitInstance@CPartnerMngApp@@UAEHXZ PROC		; CPartnerMngApp::ExitInstance, COMDAT
; _this$ = ecx

; 78   : {

  00000	56		 push	 esi

; 79   : 	// TODO: Add your specialized code here and/or call the base class
; 80   : 	if(g_pDRDebuger) delete g_pDRDebuger; g_pDRDebuger=NULL;

  00001	8b 35 00 00 00
	00		 mov	 esi, DWORD PTR ?g_pDRDebuger@@3PAVCDRDebugerLoader@@A ; g_pDRDebuger
  00007	57		 push	 edi
  00008	8b f9		 mov	 edi, ecx
  0000a	85 f6		 test	 esi, esi
  0000c	74 37		 je	 SHORT $LN7@ExitInstan
  0000e	8b 06		 mov	 eax, DWORD PTR [esi]
; File D:\git\src\IBK\IBK_DRFN\ProjSrc\SrcDrfn\inc\LoadDRDebuger.h

; 178  : 		if(m_hLib == NULL)  return TRUE;

  00010	85 c0		 test	 eax, eax
  00012	74 14		 je	 SHORT $LN12@ExitInstan

; 179  : 
; 180  : 		BOOL bResult = ::FreeLibrary(m_hLib);

  00014	50		 push	 eax
  00015	ff 15 00 00 00
	00		 call	 DWORD PTR __imp__FreeLibrary@4

; 181  : 		m_hLib = NULL;

  0001b	c7 06 00 00 00
	00		 mov	 DWORD PTR [esi], 0

; 182  : 		m_nLoadTry = 0;

  00021	c7 46 68 00 00
	00 00		 mov	 DWORD PTR [esi+104], 0
$LN12@ExitInstan:

; 119  : 	}

  00028	8d 4e 5c	 lea	 ecx, DWORD PTR [esi+92]
  0002b	ff 15 00 00 00
	00		 call	 DWORD PTR __imp_??1?$CStringT@DV?$StrTraitMFC_DLL@DV?$ChTraitsCRT@D@ATL@@@@@ATL@@QAE@XZ
  00031	8d 4e 04	 lea	 ecx, DWORD PTR [esi+4]
  00034	ff 15 00 00 00
	00		 call	 DWORD PTR __imp_??1?$CStringT@DV?$StrTraitMFC_DLL@DV?$ChTraitsCRT@D@ATL@@@@@ATL@@QAE@XZ
  0003a	6a 70		 push	 112			; 00000070H
  0003c	56		 push	 esi
  0003d	e8 00 00 00 00	 call	 ??3@YAXPAXI@Z		; operator delete
  00042	83 c4 08	 add	 esp, 8
$LN7@ExitInstan:
; File D:\git\src\IBK\IBK_DRFN\ProjSrc\SrcDrfn\DrCommon\PartnerMng\PartnerMng.cpp

; 81   : 	return CWinApp::ExitInstance();

  00045	8b cf		 mov	 ecx, edi
  00047	c7 05 00 00 00
	00 00 00 00 00	 mov	 DWORD PTR ?g_pDRDebuger@@3PAVCDRDebugerLoader@@A, 0 ; g_pDRDebuger
  00051	5f		 pop	 edi
  00052	5e		 pop	 esi
  00053	e9 00 00 00 00	 jmp	 ?ExitInstance@CWinApp@@UAEHXZ ; CWinApp::ExitInstance
?ExitInstance@CPartnerMngApp@@UAEHXZ ENDP		; CPartnerMngApp::ExitInstance
_TEXT	ENDS
; Function compile flags: /Ogtp
; File D:\git\src\IBK\IBK_DRFN\ProjSrc\SrcDrfn\DrCommon\PartnerMng\PartnerMng.cpp
;	COMDAT ?DoGetPctrInterface@CPartnerMngApp@@QAEJH@Z
_TEXT	SEGMENT
_nID$ = 8						; size = 4
?DoGetPctrInterface@CPartnerMngApp@@QAEJH@Z PROC	; CPartnerMngApp::DoGetPctrInterface, COMDAT
; _this$ = ecx

; 108  : {

  00000	55		 push	 ebp
  00001	8b ec		 mov	 ebp, esp

; 109  : 	if(nID==0)

  00003	8b 45 08	 mov	 eax, DWORD PTR _nID$[ebp]
  00006	56		 push	 esi
  00007	8b f1		 mov	 esi, ecx
  00009	85 c0		 test	 eax, eax
  0000b	75 1b		 jne	 SHORT $LN2@DoGetPctrI

; 110  : 	{
; 111  : 		if(m_pPctrGateMng!=NULL) return (LONG)m_pPctrGateMng;

  0000d	8b 86 f4 00 00
	00		 mov	 eax, DWORD PTR [esi+244]
  00013	85 c0		 test	 eax, eax
  00015	75 0c		 jne	 SHORT $LN1@DoGetPctrI

; 112  : 
; 113  : 		m_pPctrGateMng = (IGateManager*)AfxGetPctrInterface(nID);

  00017	50		 push	 eax
  00018	e8 00 00 00 00	 call	 ?AfxGetPctrInterface@@YGJH@Z ; AfxGetPctrInterface
  0001d	89 86 f4 00 00
	00		 mov	 DWORD PTR [esi+244], eax
$LN1@DoGetPctrI:
  00023	5e		 pop	 esi

; 118  : }

  00024	5d		 pop	 ebp
  00025	c2 04 00	 ret	 4
$LN2@DoGetPctrI:
  00028	5e		 pop	 esi

; 114  : 		return (LONG)m_pPctrGateMng;
; 115  : 	}
; 116  : 
; 117  : 	return (LONG)AfxGetPctrInterface(nID);

  00029	89 45 08	 mov	 DWORD PTR _nID$[ebp], eax

; 118  : }

  0002c	5d		 pop	 ebp

; 114  : 		return (LONG)m_pPctrGateMng;
; 115  : 	}
; 116  : 
; 117  : 	return (LONG)AfxGetPctrInterface(nID);

  0002d	e9 00 00 00 00	 jmp	 ?AfxGetPctrInterface@@YGJH@Z ; AfxGetPctrInterface
?DoGetPctrInterface@CPartnerMngApp@@QAEJH@Z ENDP	; CPartnerMngApp::DoGetPctrInterface
_TEXT	ENDS
; Function compile flags: /Ogtp
; File D:\git\src\IBK\IBK_DRFN\ProjSrc\SrcDrfn\DrCommon\PartnerMng\PartnerMng.cpp
;	COMDAT ?DoGetMapStrObj_UpDnInfo@CPartnerMngApp@@QAEXPBDAAV?$CStringT@DV?$StrTraitMFC_DLL@DV?$ChTraitsCRT@D@ATL@@@@@ATL@@1@Z
_TEXT	SEGMENT
_strValue$ = -16					; size = 4
__$EHRec$ = -12						; size = 12
$T2 = 8							; size = 4
$T3 = 8							; size = 4
_szKey$ = 8						; size = 4
_szUpLimit$ = 12					; size = 4
_szDnLimit$ = 16					; size = 4
?DoGetMapStrObj_UpDnInfo@CPartnerMngApp@@QAEXPBDAAV?$CStringT@DV?$StrTraitMFC_DLL@DV?$ChTraitsCRT@D@ATL@@@@@ATL@@1@Z PROC ; CPartnerMngApp::DoGetMapStrObj_UpDnInfo, COMDAT
; _this$ = ecx

; 97   : {

  00000	55		 push	 ebp
  00001	8b ec		 mov	 ebp, esp
  00003	6a ff		 push	 -1
  00005	68 00 00 00 00	 push	 __ehhandler$?DoGetMapStrObj_UpDnInfo@CPartnerMngApp@@QAEXPBDAAV?$CStringT@DV?$StrTraitMFC_DLL@DV?$ChTraitsCRT@D@ATL@@@@@ATL@@1@Z
  0000a	64 a1 00 00 00
	00		 mov	 eax, DWORD PTR fs:0
  00010	50		 push	 eax
  00011	51		 push	 ecx
  00012	56		 push	 esi
  00013	a1 00 00 00 00	 mov	 eax, DWORD PTR ___security_cookie
  00018	33 c5		 xor	 eax, ebp
  0001a	50		 push	 eax
  0001b	8d 45 f4	 lea	 eax, DWORD PTR __$EHRec$[ebp]
  0001e	64 a3 00 00 00
	00		 mov	 DWORD PTR fs:0, eax
  00024	8b f1		 mov	 esi, ecx

; 98   : 	CString strValue;

  00026	8d 4d f0	 lea	 ecx, DWORD PTR _strValue$[ebp]
  00029	ff 15 00 00 00
	00		 call	 DWORD PTR __imp_??0?$CStringT@DV?$StrTraitMFC_DLL@DV?$ChTraitsCRT@D@ATL@@@@@ATL@@QAE@XZ

; 99   : 	if (m_mapHighLow.Lookup(szKey, strValue) == TRUE)

  0002f	8d 45 f0	 lea	 eax, DWORD PTR _strValue$[ebp]
  00032	c7 45 fc 00 00
	00 00		 mov	 DWORD PTR __$EHRec$[ebp+8], 0
  00039	50		 push	 eax
  0003a	ff 75 08	 push	 DWORD PTR _szKey$[ebp]
  0003d	8d 8e 64 01 00
	00		 lea	 ecx, DWORD PTR [esi+356]
  00043	e8 00 00 00 00	 call	 ?Lookup@CMapStringToString@@QBEHPBDAAV?$CStringT@DV?$StrTraitMFC_DLL@DV?$ChTraitsCRT@D@ATL@@@@@ATL@@@Z ; CMapStringToString::Lookup
  00048	83 f8 01	 cmp	 eax, 1
  0004b	75 63		 jne	 SHORT $LN2@DoGetMapSt

; 100  : 	{
; 101  : 		int nFind = strValue.Find(_T(":"));

  0004d	6a 00		 push	 0
  0004f	68 00 00 00 00	 push	 OFFSET ??_C@_01JLIPDDHJ@?3@
  00054	8d 4d f0	 lea	 ecx, DWORD PTR _strValue$[ebp]
  00057	ff 15 00 00 00
	00		 call	 DWORD PTR __imp_?Find@?$CStringT@DV?$StrTraitMFC_DLL@DV?$ChTraitsCRT@D@ATL@@@@@ATL@@QBEHPBDH@Z
  0005d	8b f0		 mov	 esi, eax

; 102  : 		szUpLimit = strValue.Left(nFind);

  0005f	8d 4d f0	 lea	 ecx, DWORD PTR _strValue$[ebp]
  00062	56		 push	 esi
  00063	8d 45 08	 lea	 eax, DWORD PTR $T3[ebp]
  00066	50		 push	 eax
  00067	ff 15 00 00 00
	00		 call	 DWORD PTR __imp_?Left@?$CStringT@DV?$StrTraitMFC_DLL@DV?$ChTraitsCRT@D@ATL@@@@@ATL@@QBE?AV12@H@Z
  0006d	8b 4d 0c	 mov	 ecx, DWORD PTR _szUpLimit$[ebp]
  00070	50		 push	 eax
  00071	c6 45 fc 01	 mov	 BYTE PTR __$EHRec$[ebp+8], 1
  00075	ff 15 00 00 00
	00		 call	 DWORD PTR __imp_??4?$CStringT@DV?$StrTraitMFC_DLL@DV?$ChTraitsCRT@D@ATL@@@@@ATL@@QAEAAV01@ABV01@@Z
  0007b	8d 4d 08	 lea	 ecx, DWORD PTR $T3[ebp]
  0007e	c6 45 fc 00	 mov	 BYTE PTR __$EHRec$[ebp+8], 0
  00082	ff 15 00 00 00
	00		 call	 DWORD PTR __imp_??1?$CStringT@DV?$StrTraitMFC_DLL@DV?$ChTraitsCRT@D@ATL@@@@@ATL@@QAE@XZ

; 103  : 		szDnLimit = strValue.Mid(nFind+1);

  00088	8d 46 01	 lea	 eax, DWORD PTR [esi+1]
  0008b	50		 push	 eax
  0008c	8d 45 08	 lea	 eax, DWORD PTR $T2[ebp]
  0008f	50		 push	 eax
  00090	8d 4d f0	 lea	 ecx, DWORD PTR _strValue$[ebp]
  00093	ff 15 00 00 00
	00		 call	 DWORD PTR __imp_?Mid@?$CStringT@DV?$StrTraitMFC_DLL@DV?$ChTraitsCRT@D@ATL@@@@@ATL@@QBE?AV12@H@Z
  00099	8b 4d 10	 mov	 ecx, DWORD PTR _szDnLimit$[ebp]
  0009c	50		 push	 eax
  0009d	c6 45 fc 02	 mov	 BYTE PTR __$EHRec$[ebp+8], 2
  000a1	ff 15 00 00 00
	00		 call	 DWORD PTR __imp_??4?$CStringT@DV?$StrTraitMFC_DLL@DV?$ChTraitsCRT@D@ATL@@@@@ATL@@QAEAAV01@ABV01@@Z
  000a7	8d 4d 08	 lea	 ecx, DWORD PTR $T2[ebp]
  000aa	ff 15 00 00 00
	00		 call	 DWORD PTR __imp_??1?$CStringT@DV?$StrTraitMFC_DLL@DV?$ChTraitsCRT@D@ATL@@@@@ATL@@QAE@XZ
$LN2@DoGetMapSt:

; 104  : 	}
; 105  : }

  000b0	8d 4d f0	 lea	 ecx, DWORD PTR _strValue$[ebp]
  000b3	ff 15 00 00 00
	00		 call	 DWORD PTR __imp_??1?$CStringT@DV?$StrTraitMFC_DLL@DV?$ChTraitsCRT@D@ATL@@@@@ATL@@QAE@XZ
  000b9	8b 4d f4	 mov	 ecx, DWORD PTR __$EHRec$[ebp]
  000bc	64 89 0d 00 00
	00 00		 mov	 DWORD PTR fs:0, ecx
  000c3	59		 pop	 ecx
  000c4	5e		 pop	 esi
  000c5	8b e5		 mov	 esp, ebp
  000c7	5d		 pop	 ebp
  000c8	c2 0c 00	 ret	 12			; 0000000cH
_TEXT	ENDS
;	COMDAT text$x
text$x	SEGMENT
__unwindfunclet$?DoGetMapStrObj_UpDnInfo@CPartnerMngApp@@QAEXPBDAAV?$CStringT@DV?$StrTraitMFC_DLL@DV?$ChTraitsCRT@D@ATL@@@@@ATL@@1@Z$0:
  00000	8d 4d f0	 lea	 ecx, DWORD PTR _strValue$[ebp]
  00003	ff 25 00 00 00
	00		 jmp	 DWORD PTR __imp_??1?$CStringT@DV?$StrTraitMFC_DLL@DV?$ChTraitsCRT@D@ATL@@@@@ATL@@QAE@XZ
__unwindfunclet$?DoGetMapStrObj_UpDnInfo@CPartnerMngApp@@QAEXPBDAAV?$CStringT@DV?$StrTraitMFC_DLL@DV?$ChTraitsCRT@D@ATL@@@@@ATL@@1@Z$1:
  00009	8d 4d 08	 lea	 ecx, DWORD PTR $T3[ebp]
  0000c	ff 25 00 00 00
	00		 jmp	 DWORD PTR __imp_??1?$CStringT@DV?$StrTraitMFC_DLL@DV?$ChTraitsCRT@D@ATL@@@@@ATL@@QAE@XZ
__unwindfunclet$?DoGetMapStrObj_UpDnInfo@CPartnerMngApp@@QAEXPBDAAV?$CStringT@DV?$StrTraitMFC_DLL@DV?$ChTraitsCRT@D@ATL@@@@@ATL@@1@Z$2:
  00012	8d 4d 08	 lea	 ecx, DWORD PTR $T2[ebp]
  00015	ff 25 00 00 00
	00		 jmp	 DWORD PTR __imp_??1?$CStringT@DV?$StrTraitMFC_DLL@DV?$ChTraitsCRT@D@ATL@@@@@ATL@@QAE@XZ
  0001b	cc		 int	 3
  0001c	cc		 int	 3
  0001d	cc		 int	 3
  0001e	cc		 int	 3
  0001f	cc		 int	 3
__ehhandler$?DoGetMapStrObj_UpDnInfo@CPartnerMngApp@@QAEXPBDAAV?$CStringT@DV?$StrTraitMFC_DLL@DV?$ChTraitsCRT@D@ATL@@@@@ATL@@1@Z:
  00020	90		 npad	 1
  00021	90		 npad	 1
  00022	8b 54 24 08	 mov	 edx, DWORD PTR [esp+8]
  00026	8d 42 0c	 lea	 eax, DWORD PTR [edx+12]
  00029	8b 4a f4	 mov	 ecx, DWORD PTR [edx-12]
  0002c	33 c8		 xor	 ecx, eax
  0002e	e8 00 00 00 00	 call	 @__security_check_cookie@4
  00033	b8 00 00 00 00	 mov	 eax, OFFSET __ehfuncinfo$?DoGetMapStrObj_UpDnInfo@CPartnerMngApp@@QAEXPBDAAV?$CStringT@DV?$StrTraitMFC_DLL@DV?$ChTraitsCRT@D@ATL@@@@@ATL@@1@Z
  00038	e9 00 00 00 00	 jmp	 ___CxxFrameHandler3
text$x	ENDS
?DoGetMapStrObj_UpDnInfo@CPartnerMngApp@@QAEXPBDAAV?$CStringT@DV?$StrTraitMFC_DLL@DV?$ChTraitsCRT@D@ATL@@@@@ATL@@1@Z ENDP ; CPartnerMngApp::DoGetMapStrObj_UpDnInfo
; Function compile flags: /Ogtp
; File D:\git\src\IBK\IBK_DRFN\ProjSrc\SrcDrfn\DrCommon\PartnerMng\PartnerMng.cpp
; File C:\Program Files (x86)\Microsoft Visual Studio\2019\Community\VC\Tools\MSVC\14.29.30133\atlmfc\include\afxcoll.inl
; File D:\git\src\IBK\IBK_DRFN\ProjSrc\SrcDrfn\DrCommon\PartnerMng\PartnerMng.cpp
;	COMDAT ?DoMapStrObj_UpDnInfo@CPartnerMngApp@@QAEXPBD00@Z
_TEXT	SEGMENT
_strValue$ = -16					; size = 4
__$EHRec$ = -12						; size = 12
_szKey$ = 8						; size = 4
_sUpLimit$ = 12						; size = 4
_sDnLimit$ = 16						; size = 4
?DoMapStrObj_UpDnInfo@CPartnerMngApp@@QAEXPBD00@Z PROC	; CPartnerMngApp::DoMapStrObj_UpDnInfo, COMDAT
; _this$ = ecx

; 90   : {

  00000	55		 push	 ebp
  00001	8b ec		 mov	 ebp, esp
  00003	6a ff		 push	 -1
  00005	68 00 00 00 00	 push	 __ehhandler$?DoMapStrObj_UpDnInfo@CPartnerMngApp@@QAEXPBD00@Z
  0000a	64 a1 00 00 00
	00		 mov	 eax, DWORD PTR fs:0
  00010	50		 push	 eax
  00011	51		 push	 ecx
  00012	56		 push	 esi
  00013	a1 00 00 00 00	 mov	 eax, DWORD PTR ___security_cookie
  00018	33 c5		 xor	 eax, ebp
  0001a	50		 push	 eax
  0001b	8d 45 f4	 lea	 eax, DWORD PTR __$EHRec$[ebp]
  0001e	64 a3 00 00 00
	00		 mov	 DWORD PTR fs:0, eax
  00024	8b f1		 mov	 esi, ecx

; 91   : 	CString strValue;

  00026	8d 4d f0	 lea	 ecx, DWORD PTR _strValue$[ebp]
  00029	ff 15 00 00 00
	00		 call	 DWORD PTR __imp_??0?$CStringT@DV?$StrTraitMFC_DLL@DV?$ChTraitsCRT@D@ATL@@@@@ATL@@QAE@XZ

; 92   : 	strValue.Format(_T("%s:%s"), sUpLimit, sDnLimit);

  0002f	ff 75 10	 push	 DWORD PTR _sDnLimit$[ebp]
  00032	8d 45 f0	 lea	 eax, DWORD PTR _strValue$[ebp]
  00035	c7 45 fc 00 00
	00 00		 mov	 DWORD PTR __$EHRec$[ebp+8], 0
  0003c	ff 75 0c	 push	 DWORD PTR _sUpLimit$[ebp]
  0003f	68 00 00 00 00	 push	 OFFSET ??_C@_05CCMOGDN@?$CFs?3?$CFs@
  00044	50		 push	 eax
  00045	ff 15 00 00 00
	00		 call	 DWORD PTR __imp_?Format@?$CStringT@DV?$StrTraitMFC_DLL@DV?$ChTraitsCRT@D@ATL@@@@@ATL@@QAAXPBDZZ
  0004b	83 c4 10	 add	 esp, 16			; 00000010H

; 93   : 	m_mapHighLow.SetAt(szKey, strValue);

  0004e	8d 8e 64 01 00
	00		 lea	 ecx, DWORD PTR [esi+356]
; File C:\Program Files (x86)\Microsoft Visual Studio\2019\Community\VC\Tools\MSVC\14.29.30133\atlmfc\include\afxcoll.inl

; 658  : 	{ (*this)[key] = newValue; }

  00054	ff 75 f0	 push	 DWORD PTR _strValue$[ebp]
  00057	ff 75 08	 push	 DWORD PTR _szKey$[ebp]
  0005a	e8 00 00 00 00	 call	 ??ACMapStringToString@@QAEAAV?$CStringT@DV?$StrTraitMFC_DLL@DV?$ChTraitsCRT@D@ATL@@@@@ATL@@PBD@Z ; CMapStringToString::operator[]
  0005f	8b c8		 mov	 ecx, eax
  00061	ff 15 00 00 00
	00		 call	 DWORD PTR __imp_??4?$CStringT@DV?$StrTraitMFC_DLL@DV?$ChTraitsCRT@D@ATL@@@@@ATL@@QAEAAV01@PBD@Z
; File D:\git\src\IBK\IBK_DRFN\ProjSrc\SrcDrfn\DrCommon\PartnerMng\PartnerMng.cpp

; 94   : }

  00067	8d 4d f0	 lea	 ecx, DWORD PTR _strValue$[ebp]
  0006a	ff 15 00 00 00
	00		 call	 DWORD PTR __imp_??1?$CStringT@DV?$StrTraitMFC_DLL@DV?$ChTraitsCRT@D@ATL@@@@@ATL@@QAE@XZ
  00070	8b 4d f4	 mov	 ecx, DWORD PTR __$EHRec$[ebp]
  00073	64 89 0d 00 00
	00 00		 mov	 DWORD PTR fs:0, ecx
  0007a	59		 pop	 ecx
  0007b	5e		 pop	 esi
  0007c	8b e5		 mov	 esp, ebp
  0007e	5d		 pop	 ebp
  0007f	c2 0c 00	 ret	 12			; 0000000cH
_TEXT	ENDS
;	COMDAT text$x
text$x	SEGMENT
__unwindfunclet$?DoMapStrObj_UpDnInfo@CPartnerMngApp@@QAEXPBD00@Z$0:
  00000	8d 4d f0	 lea	 ecx, DWORD PTR _strValue$[ebp]
  00003	ff 25 00 00 00
	00		 jmp	 DWORD PTR __imp_??1?$CStringT@DV?$StrTraitMFC_DLL@DV?$ChTraitsCRT@D@ATL@@@@@ATL@@QAE@XZ
  00009	cc		 int	 3
  0000a	cc		 int	 3
  0000b	cc		 int	 3
  0000c	cc		 int	 3
  0000d	cc		 int	 3
__ehhandler$?DoMapStrObj_UpDnInfo@CPartnerMngApp@@QAEXPBD00@Z:
  0000e	90		 npad	 1
  0000f	90		 npad	 1
  00010	8b 54 24 08	 mov	 edx, DWORD PTR [esp+8]
  00014	8d 42 0c	 lea	 eax, DWORD PTR [edx+12]
  00017	8b 4a f4	 mov	 ecx, DWORD PTR [edx-12]
  0001a	33 c8		 xor	 ecx, eax
  0001c	e8 00 00 00 00	 call	 @__security_check_cookie@4
  00021	b8 00 00 00 00	 mov	 eax, OFFSET __ehfuncinfo$?DoMapStrObj_UpDnInfo@CPartnerMngApp@@QAEXPBD00@Z
  00026	e9 00 00 00 00	 jmp	 ___CxxFrameHandler3
text$x	ENDS
?DoMapStrObj_UpDnInfo@CPartnerMngApp@@QAEXPBD00@Z ENDP	; CPartnerMngApp::DoMapStrObj_UpDnInfo
; Function compile flags: /Ogtp
; File D:\git\src\IBK\IBK_DRFN\ProjSrc\SrcDrfn\DrCommon\PartnerMng\PartnerMng.cpp
;	COMDAT ??0CPartnerMngApp@@QAE@XZ
_TEXT	SEGMENT
_this$ = -16						; size = 4
__$EHRec$ = -12						; size = 12
??0CPartnerMngApp@@QAE@XZ PROC				; CPartnerMngApp::CPartnerMngApp, COMDAT
; _this$ = ecx

; 54   : {

  00000	55		 push	 ebp
  00001	8b ec		 mov	 ebp, esp
  00003	6a ff		 push	 -1
  00005	68 00 00 00 00	 push	 __ehhandler$??0CPartnerMngApp@@QAE@XZ
  0000a	64 a1 00 00 00
	00		 mov	 eax, DWORD PTR fs:0
  00010	50		 push	 eax
  00011	51		 push	 ecx
  00012	56		 push	 esi
  00013	a1 00 00 00 00	 mov	 eax, DWORD PTR ___security_cookie
  00018	33 c5		 xor	 eax, ebp
  0001a	50		 push	 eax
  0001b	8d 45 f4	 lea	 eax, DWORD PTR __$EHRec$[ebp]
  0001e	64 a3 00 00 00
	00		 mov	 DWORD PTR fs:0, eax
  00024	8b f1		 mov	 esi, ecx
  00026	89 75 f0	 mov	 DWORD PTR _this$[ebp], esi
  00029	6a 00		 push	 0
  0002b	e8 00 00 00 00	 call	 ??0CWinApp@@QAE@PBD@Z	; CWinApp::CWinApp
  00030	c7 06 00 00 00
	00		 mov	 DWORD PTR [esi], OFFSET ??_7CPartnerMngApp@@6B@
  00036	8d 8e fc 00 00
	00		 lea	 ecx, DWORD PTR [esi+252]
  0003c	c7 45 fc 00 00
	00 00		 mov	 DWORD PTR __$EHRec$[ebp+8], 0
  00043	c7 86 f8 00 00
	00 00 00 00 00	 mov	 DWORD PTR [esi+248], OFFSET ??_7CGateManager@@6B@
  0004d	e8 00 00 00 00	 call	 ??0CPartnerSvrManager@@QAE@XZ ; CPartnerSvrManager::CPartnerSvrManager
  00052	8d 8e 30 01 00
	00		 lea	 ecx, DWORD PTR [esi+304]
  00058	c6 45 fc 01	 mov	 BYTE PTR __$EHRec$[ebp+8], 1
  0005c	e8 00 00 00 00	 call	 ??0CChartBozoManager@@QAE@XZ ; CChartBozoManager::CChartBozoManager
  00061	8d 8e 34 01 00
	00		 lea	 ecx, DWORD PTR [esi+308]
  00067	e8 00 00 00 00	 call	 ??0CPartnerUtilManager@@QAE@XZ ; CPartnerUtilManager::CPartnerUtilManager
  0006c	68 00 00 00 00	 push	 OFFSET ??1CRealCounterMng@@QAE@XZ ; CRealCounterMng::~CRealCounterMng
  00071	68 00 00 00 00	 push	 OFFSET ??0CRealCounterMng@@QAE@XZ ; CRealCounterMng::CRealCounterMng
  00076	6a 01		 push	 1
  00078	6a 1c		 push	 28			; 0000001cH
  0007a	8d 86 48 01 00
	00		 lea	 eax, DWORD PTR [esi+328]
  00080	c6 45 fc 02	 mov	 BYTE PTR __$EHRec$[ebp+8], 2
  00084	50		 push	 eax
  00085	e8 00 00 00 00	 call	 ??_L@YGXPAXIIP6EX0@Z1@Z
  0008a	6a 0a		 push	 10			; 0000000aH
  0008c	8d 8e 64 01 00
	00		 lea	 ecx, DWORD PTR [esi+356]
  00092	c6 45 fc 03	 mov	 BYTE PTR __$EHRec$[ebp+8], 3
  00096	e8 00 00 00 00	 call	 ??0CMapStringToString@@QAE@H@Z ; CMapStringToString::CMapStringToString
  0009b	6a 0a		 push	 10			; 0000000aH
  0009d	8d 8e 80 01 00
	00		 lea	 ecx, DWORD PTR [esi+384]
  000a3	c6 45 fc 04	 mov	 BYTE PTR __$EHRec$[ebp+8], 4
  000a7	e8 00 00 00 00	 call	 ??0CMapStringToOb@@QAE@H@Z ; CMapStringToOb::CMapStringToOb

; 55   : 	// TODO: add construction code here,
; 56   : 	// Place all significant initialization in InitInstance
; 57   : 	for(int i=0; i<MAX_Partner_INTERFACE; i++) m_uaInterface[i].pInterface=NULL;

  000ac	c7 86 cc 00 00
	00 00 00 00 00	 mov	 DWORD PTR [esi+204], 0

; 58   : 	m_pPctrGateMng = NULL;
; 59   : }

  000b6	8b c6		 mov	 eax, esi
  000b8	c7 86 d0 00 00
	00 00 00 00 00	 mov	 DWORD PTR [esi+208], 0
  000c2	c7 86 d4 00 00
	00 00 00 00 00	 mov	 DWORD PTR [esi+212], 0
  000cc	c7 86 d8 00 00
	00 00 00 00 00	 mov	 DWORD PTR [esi+216], 0
  000d6	c7 86 dc 00 00
	00 00 00 00 00	 mov	 DWORD PTR [esi+220], 0
  000e0	c7 86 e0 00 00
	00 00 00 00 00	 mov	 DWORD PTR [esi+224], 0
  000ea	c7 86 e4 00 00
	00 00 00 00 00	 mov	 DWORD PTR [esi+228], 0
  000f4	c7 86 e8 00 00
	00 00 00 00 00	 mov	 DWORD PTR [esi+232], 0
  000fe	c7 86 ec 00 00
	00 00 00 00 00	 mov	 DWORD PTR [esi+236], 0
  00108	c7 86 f0 00 00
	00 00 00 00 00	 mov	 DWORD PTR [esi+240], 0
  00112	c7 86 f4 00 00
	00 00 00 00 00	 mov	 DWORD PTR [esi+244], 0
  0011c	8b 4d f4	 mov	 ecx, DWORD PTR __$EHRec$[ebp]
  0011f	64 89 0d 00 00
	00 00		 mov	 DWORD PTR fs:0, ecx
  00126	59		 pop	 ecx
  00127	5e		 pop	 esi
  00128	8b e5		 mov	 esp, ebp
  0012a	5d		 pop	 ebp
  0012b	c3		 ret	 0
_TEXT	ENDS
;	COMDAT text$x
text$x	SEGMENT
__unwindfunclet$??0CPartnerMngApp@@QAE@XZ$0:
  00000	8b 4d f0	 mov	 ecx, DWORD PTR _this$[ebp]
  00003	e9 00 00 00 00	 jmp	 ??1CWinApp@@UAE@XZ	; CWinApp::~CWinApp
__unwindfunclet$??0CPartnerMngApp@@QAE@XZ$1:
  00008	8b 4d f0	 mov	 ecx, DWORD PTR _this$[ebp]
  0000b	81 c1 fc 00 00
	00		 add	 ecx, 252		; 000000fcH
  00011	e9 00 00 00 00	 jmp	 ??1CPartnerSvrManager@@QAE@XZ ; CPartnerSvrManager::~CPartnerSvrManager
__unwindfunclet$??0CPartnerMngApp@@QAE@XZ$2:
  00016	8b 4d f0	 mov	 ecx, DWORD PTR _this$[ebp]
  00019	81 c1 34 01 00
	00		 add	 ecx, 308		; 00000134H
  0001f	e9 00 00 00 00	 jmp	 ??1CPartnerUtilManager@@QAE@XZ
__unwindfunclet$??0CPartnerMngApp@@QAE@XZ$3:
  00024	68 00 00 00 00	 push	 OFFSET ??1CRealCounterMng@@QAE@XZ ; CRealCounterMng::~CRealCounterMng
  00029	6a 01		 push	 1
  0002b	6a 1c		 push	 28			; 0000001cH
  0002d	8b 45 f0	 mov	 eax, DWORD PTR _this$[ebp]
  00030	05 48 01 00 00	 add	 eax, 328		; 00000148H
  00035	50		 push	 eax
  00036	e8 00 00 00 00	 call	 ??_M@YGXPAXIIP6EX0@Z@Z
  0003b	c3		 ret	 0
__unwindfunclet$??0CPartnerMngApp@@QAE@XZ$4:
  0003c	8b 4d f0	 mov	 ecx, DWORD PTR _this$[ebp]
  0003f	81 c1 64 01 00
	00		 add	 ecx, 356		; 00000164H
  00045	e9 00 00 00 00	 jmp	 ??1CMapStringToString@@UAE@XZ ; CMapStringToString::~CMapStringToString
  0004a	cc		 int	 3
  0004b	cc		 int	 3
  0004c	cc		 int	 3
  0004d	cc		 int	 3
  0004e	cc		 int	 3
__ehhandler$??0CPartnerMngApp@@QAE@XZ:
  0004f	90		 npad	 1
  00050	90		 npad	 1
  00051	8b 54 24 08	 mov	 edx, DWORD PTR [esp+8]
  00055	8d 42 0c	 lea	 eax, DWORD PTR [edx+12]
  00058	8b 4a f4	 mov	 ecx, DWORD PTR [edx-12]
  0005b	33 c8		 xor	 ecx, eax
  0005d	e8 00 00 00 00	 call	 @__security_check_cookie@4
  00062	b8 00 00 00 00	 mov	 eax, OFFSET __ehfuncinfo$??0CPartnerMngApp@@QAE@XZ
  00067	e9 00 00 00 00	 jmp	 ___CxxFrameHandler3
text$x	ENDS
??0CPartnerMngApp@@QAE@XZ ENDP				; CPartnerMngApp::CPartnerMngApp
; Function compile flags: /Ogtp
;	COMDAT ??1CPartnerUtilManager@@QAE@XZ
_TEXT	SEGMENT
??1CPartnerUtilManager@@QAE@XZ PROC			; CPartnerUtilManager::~CPartnerUtilManager, COMDAT
; _this$ = ecx
  00000	56		 push	 esi
  00001	8b f1		 mov	 esi, ecx
  00003	8d 4e 0c	 lea	 ecx, DWORD PTR [esi+12]
  00006	ff 15 00 00 00
	00		 call	 DWORD PTR __imp_??1?$CStringT@DV?$StrTraitMFC_DLL@DV?$ChTraitsCRT@D@ATL@@@@@ATL@@QAE@XZ
  0000c	8d 4e 08	 lea	 ecx, DWORD PTR [esi+8]
  0000f	ff 15 00 00 00
	00		 call	 DWORD PTR __imp_??1?$CStringT@DV?$StrTraitMFC_DLL@DV?$ChTraitsCRT@D@ATL@@@@@ATL@@QAE@XZ
  00015	8d 4e 04	 lea	 ecx, DWORD PTR [esi+4]
  00018	5e		 pop	 esi
  00019	ff 25 00 00 00
	00		 jmp	 DWORD PTR __imp_??1?$CStringT@DV?$StrTraitMFC_DLL@DV?$ChTraitsCRT@D@ATL@@@@@ATL@@QAE@XZ
??1CPartnerUtilManager@@QAE@XZ ENDP			; CPartnerUtilManager::~CPartnerUtilManager
_TEXT	ENDS
; Function compile flags: /Ogtp
; File D:\git\src\IBK\IBK_DRFN\ProjSrc\SrcDrfn\Chart\commontr\TRDefine.h
;	COMDAT ??__ERMSG_GETSIGNAL_REAL@@YAXXZ
text$di	SEGMENT
??__ERMSG_GETSIGNAL_REAL@@YAXXZ PROC			; `dynamic initializer for 'RMSG_GETSIGNAL_REAL'', COMDAT

; 213  : const UINT RMSG_GETSIGNAL_REAL = ::RegisterWindowMessage(_T("RMSG_GETSIGNAL_REAL"));

  00000	68 00 00 00 00	 push	 OFFSET ??_C@_0BE@FJPKENOB@RMSG_GETSIGNAL_REAL@
  00005	ff 15 00 00 00
	00		 call	 DWORD PTR __imp__RegisterWindowMessageA@4
  0000b	a3 00 00 00 00	 mov	 DWORD PTR ?RMSG_GETSIGNAL_REAL@@3IB, eax
  00010	c3		 ret	 0
??__ERMSG_GETSIGNAL_REAL@@YAXXZ ENDP			; `dynamic initializer for 'RMSG_GETSIGNAL_REAL''
text$di	ENDS
; Function compile flags: /Ogtp
; File D:\git\src\IBK\IBK_DRFN\ProjSrc\SrcDrfn\inc\IBaseDefine.h
;	COMDAT ?AfxGetPctrInterface@@YGJH@Z
_TEXT	SEGMENT
_hMainWnd$ = -36					; size = 4
_szClipFormat$2 = -32					; size = 4
_aBufWnd$3 = -28					; size = 9
__$ArrayPad$ = -16					; size = 4
__$EHRec$ = -12						; size = 12
_nID$ = 8						; size = 4
?AfxGetPctrInterface@@YGJH@Z PROC			; AfxGetPctrInterface, COMDAT

; 260  : {

  00000	55		 push	 ebp
  00001	8b ec		 mov	 ebp, esp
  00003	6a ff		 push	 -1
  00005	68 00 00 00 00	 push	 __ehhandler$?AfxGetPctrInterface@@YGJH@Z
  0000a	64 a1 00 00 00
	00		 mov	 eax, DWORD PTR fs:0
  00010	50		 push	 eax
  00011	83 ec 18	 sub	 esp, 24			; 00000018H
  00014	a1 00 00 00 00	 mov	 eax, DWORD PTR ___security_cookie
  00019	33 c5		 xor	 eax, ebp
  0001b	89 45 f0	 mov	 DWORD PTR __$ArrayPad$[ebp], eax
  0001e	50		 push	 eax
  0001f	8d 45 f4	 lea	 eax, DWORD PTR __$EHRec$[ebp]
  00022	64 a3 00 00 00
	00		 mov	 DWORD PTR fs:0, eax
  00028	0f 57 c0	 xorps	 xmm0, xmm0

; 261  : 	HWND hMainWnd;
; 262  : 	AfxGetHanaroMainWnd(hMainWnd);

  0002b	c7 45 dc 00 00
	00 00		 mov	 DWORD PTR _hMainWnd$[ebp], 0
  00032	8d 4d e0	 lea	 ecx, DWORD PTR _szClipFormat$2[ebp]
  00035	66 0f d6 45 e4	 movq	 QWORD PTR _aBufWnd$3[ebp], xmm0
  0003a	c6 45 ec 00	 mov	 BYTE PTR _aBufWnd$3[ebp+8], 0
  0003e	ff 15 00 00 00
	00		 call	 DWORD PTR __imp_??0?$CStringT@DV?$StrTraitMFC_DLL@DV?$ChTraitsCRT@D@ATL@@@@@ATL@@QAE@XZ
  00044	68 00 00 00 00	 push	 OFFSET ??_C@_0M@CBBNGGHM@PcTrMng?4dll@
  00049	c7 45 fc 00 00
	00 00		 mov	 DWORD PTR __$EHRec$[ebp+8], 0
  00050	ff 15 00 00 00
	00		 call	 DWORD PTR __imp__GetModuleHandleA@4
  00056	50		 push	 eax
  00057	68 00 00 00 00	 push	 OFFSET ??_C@_0P@IDMAJEGN@HANAROPCTRMAIN@
  0005c	8d 45 e0	 lea	 eax, DWORD PTR _szClipFormat$2[ebp]
  0005f	68 00 00 00 00	 push	 OFFSET ??_C@_06NDLAHCHE@?$CFs?$CF08X@
  00064	50		 push	 eax
  00065	ff 15 00 00 00
	00		 call	 DWORD PTR __imp_?Format@?$CStringT@DV?$StrTraitMFC_DLL@DV?$ChTraitsCRT@D@ATL@@@@@ATL@@QAAXPBDZZ
  0006b	83 c4 10	 add	 esp, 16			; 00000010H
  0006e	8d 45 e4	 lea	 eax, DWORD PTR _aBufWnd$3[ebp]
  00071	6a 09		 push	 9
  00073	50		 push	 eax
  00074	ff 75 e0	 push	 DWORD PTR _szClipFormat$2[ebp]
  00077	ff 15 00 00 00
	00		 call	 DWORD PTR __imp__GetEnvironmentVariableA@12
  0007d	8d 45 dc	 lea	 eax, DWORD PTR _hMainWnd$[ebp]
  00080	50		 push	 eax
  00081	8d 45 e4	 lea	 eax, DWORD PTR _aBufWnd$3[ebp]
  00084	68 00 00 00 00	 push	 OFFSET ??_C@_02EMFKHFLK@?$CFX@
  00089	50		 push	 eax
  0008a	e8 00 00 00 00	 call	 _sscanf
  0008f	83 c4 0c	 add	 esp, 12			; 0000000cH
  00092	8d 4d e0	 lea	 ecx, DWORD PTR _szClipFormat$2[ebp]
  00095	ff 15 00 00 00
	00		 call	 DWORD PTR __imp_??1?$CStringT@DV?$StrTraitMFC_DLL@DV?$ChTraitsCRT@D@ATL@@@@@ATL@@QAE@XZ

; 263  : 
; 264  : 	return ::SendMessage(hMainWnd, RMSG_INTERFACE, (WPARAM)nID, 0);

  0009b	6a 00		 push	 0
  0009d	ff 75 08	 push	 DWORD PTR _nID$[ebp]
  000a0	ff 35 00 00 00
	00		 push	 DWORD PTR ?RMSG_INTERFACE@@3IB
  000a6	ff 75 dc	 push	 DWORD PTR _hMainWnd$[ebp]
  000a9	ff 15 00 00 00
	00		 call	 DWORD PTR __imp__SendMessageA@16

; 265  : }

  000af	8b 4d f4	 mov	 ecx, DWORD PTR __$EHRec$[ebp]
  000b2	64 89 0d 00 00
	00 00		 mov	 DWORD PTR fs:0, ecx
  000b9	59		 pop	 ecx
  000ba	8b 4d f0	 mov	 ecx, DWORD PTR __$ArrayPad$[ebp]
  000bd	33 cd		 xor	 ecx, ebp
  000bf	e8 00 00 00 00	 call	 @__security_check_cookie@4
  000c4	8b e5		 mov	 esp, ebp
  000c6	5d		 pop	 ebp
  000c7	c2 04 00	 ret	 4
_TEXT	ENDS
;	COMDAT text$x
text$x	SEGMENT
__unwindfunclet$?AfxGetPctrInterface@@YGJH@Z$0:
  00000	8d 4d e0	 lea	 ecx, DWORD PTR _szClipFormat$2[ebp]
  00003	ff 25 00 00 00
	00		 jmp	 DWORD PTR __imp_??1?$CStringT@DV?$StrTraitMFC_DLL@DV?$ChTraitsCRT@D@ATL@@@@@ATL@@QAE@XZ
  00009	cc		 int	 3
  0000a	cc		 int	 3
  0000b	cc		 int	 3
  0000c	cc		 int	 3
  0000d	cc		 int	 3
__ehhandler$?AfxGetPctrInterface@@YGJH@Z:
  0000e	90		 npad	 1
  0000f	90		 npad	 1
  00010	8b 54 24 08	 mov	 edx, DWORD PTR [esp+8]
  00014	8d 42 0c	 lea	 eax, DWORD PTR [edx+12]
  00017	8b 4a e4	 mov	 ecx, DWORD PTR [edx-28]
  0001a	33 c8		 xor	 ecx, eax
  0001c	e8 00 00 00 00	 call	 @__security_check_cookie@4
  00021	8b 4a fc	 mov	 ecx, DWORD PTR [edx-4]
  00024	33 c8		 xor	 ecx, eax
  00026	e8 00 00 00 00	 call	 @__security_check_cookie@4
  0002b	b8 00 00 00 00	 mov	 eax, OFFSET __ehfuncinfo$?AfxGetPctrInterface@@YGJH@Z
  00030	e9 00 00 00 00	 jmp	 ___CxxFrameHandler3
text$x	ENDS
?AfxGetPctrInterface@@YGJH@Z ENDP			; AfxGetPctrInterface
; Function compile flags: /Ogtp
; File D:\git\src\IBK\IBK_DRFN\ProjSrc\SrcDrfn\inc\IBaseDefine.h
;	COMDAT ??__ERMSG_SETPCTRDATA@@YAXXZ
text$di	SEGMENT
??__ERMSG_SETPCTRDATA@@YAXXZ PROC			; `dynamic initializer for 'RMSG_SETPCTRDATA'', COMDAT

; 172  : const UINT RMSG_SETPCTRDATA = ::RegisterWindowMessage("RMSG_SETPCTRDATA");

  00000	68 00 00 00 00	 push	 OFFSET ??_C@_0BB@JPACFCL@RMSG_SETPCTRDATA@
  00005	ff 15 00 00 00
	00		 call	 DWORD PTR __imp__RegisterWindowMessageA@4
  0000b	a3 00 00 00 00	 mov	 DWORD PTR ?RMSG_SETPCTRDATA@@3IB, eax
  00010	c3		 ret	 0
??__ERMSG_SETPCTRDATA@@YAXXZ ENDP			; `dynamic initializer for 'RMSG_SETPCTRDATA''
text$di	ENDS
; Function compile flags: /Ogtp
; File D:\git\src\IBK\IBK_DRFN\ProjSrc\SrcDrfn\inc\IBaseDefine.h
;	COMDAT ??__ERMSG_GETPCTRDATA@@YAXXZ
text$di	SEGMENT
??__ERMSG_GETPCTRDATA@@YAXXZ PROC			; `dynamic initializer for 'RMSG_GETPCTRDATA'', COMDAT

; 171  : const UINT RMSG_GETPCTRDATA = ::RegisterWindowMessage("RMSG_GETPCTRDATA");

  00000	68 00 00 00 00	 push	 OFFSET ??_C@_0BB@GOOPDKI@RMSG_GETPCTRDATA@
  00005	ff 15 00 00 00
	00		 call	 DWORD PTR __imp__RegisterWindowMessageA@4
  0000b	a3 00 00 00 00	 mov	 DWORD PTR ?RMSG_GETPCTRDATA@@3IB, eax
  00010	c3		 ret	 0
??__ERMSG_GETPCTRDATA@@YAXXZ ENDP			; `dynamic initializer for 'RMSG_GETPCTRDATA''
text$di	ENDS
; Function compile flags: /Ogtp
; File D:\git\src\IBK\IBK_DRFN\ProjSrc\SrcDrfn\inc\IBaseDefine.h
;	COMDAT ??__ERMSG_INTERFACE@@YAXXZ
text$di	SEGMENT
??__ERMSG_INTERFACE@@YAXXZ PROC				; `dynamic initializer for 'RMSG_INTERFACE'', COMDAT

; 170  : const UINT RMSG_INTERFACE = ::RegisterWindowMessage("RMSG_INTERFACE");

  00000	68 00 00 00 00	 push	 OFFSET ??_C@_0P@BKKCOCLK@RMSG_INTERFACE@
  00005	ff 15 00 00 00
	00		 call	 DWORD PTR __imp__RegisterWindowMessageA@4
  0000b	a3 00 00 00 00	 mov	 DWORD PTR ?RMSG_INTERFACE@@3IB, eax
  00010	c3		 ret	 0
??__ERMSG_INTERFACE@@YAXXZ ENDP				; `dynamic initializer for 'RMSG_INTERFACE''
text$di	ENDS
; Function compile flags: /Ogtp
; File D:\git\src\IBK\IBK_DRFN\ProjSrc\SrcDrfn\inc\LoadDRDebuger.h
;	COMDAT ??0CDRDebugerLoader@@QAE@H@Z
_TEXT	SEGMENT
_this$GSCopy$ = -284					; size = 4
$T2 = -280						; size = 4
_this$ = -280						; size = 4
_szMsg$3 = -276						; size = 4
__strRoot_$4 = -276					; size = 4
__szBuf_$5 = -272					; size = 255
__$ArrayPad$ = -16					; size = 4
__$EHRec$ = -12						; size = 12
_bAutoLoad$ = 8						; size = 4
??0CDRDebugerLoader@@QAE@H@Z PROC			; CDRDebugerLoader::CDRDebugerLoader, COMDAT
; _this$ = ecx

; 80   : 	CDRDebugerLoader(BOOL bAutoLoad=TRUE)

  00000	55		 push	 ebp
  00001	8b ec		 mov	 ebp, esp
  00003	6a ff		 push	 -1
  00005	68 00 00 00 00	 push	 __ehhandler$??0CDRDebugerLoader@@QAE@H@Z
  0000a	64 a1 00 00 00
	00		 mov	 eax, DWORD PTR fs:0
  00010	50		 push	 eax
  00011	81 ec 10 01 00
	00		 sub	 esp, 272		; 00000110H
  00017	a1 00 00 00 00	 mov	 eax, DWORD PTR ___security_cookie
  0001c	33 c5		 xor	 eax, ebp
  0001e	89 45 f0	 mov	 DWORD PTR __$ArrayPad$[ebp], eax
  00021	56		 push	 esi
  00022	57		 push	 edi
  00023	50		 push	 eax
  00024	8d 45 f4	 lea	 eax, DWORD PTR __$EHRec$[ebp]
  00027	64 a3 00 00 00
	00		 mov	 DWORD PTR fs:0, eax
  0002d	8b f1		 mov	 esi, ecx
  0002f	89 b5 e8 fe ff
	ff		 mov	 DWORD PTR _this$[ebp], esi
  00035	8d 4e 04	 lea	 ecx, DWORD PTR [esi+4]
  00038	89 b5 e4 fe ff
	ff		 mov	 DWORD PTR _this$GSCopy$[ebp], esi
  0003e	ff 15 00 00 00
	00		 call	 DWORD PTR __imp_??0?$CStringT@DV?$StrTraitMFC_DLL@DV?$ChTraitsCRT@D@ATL@@@@@ATL@@QAE@XZ
  00044	8d 4e 5c	 lea	 ecx, DWORD PTR [esi+92]
  00047	c7 45 fc 00 00
	00 00		 mov	 DWORD PTR __$EHRec$[ebp+8], 0
  0004e	ff 15 00 00 00
	00		 call	 DWORD PTR __imp_??0?$CStringT@DV?$StrTraitMFC_DLL@DV?$ChTraitsCRT@D@ATL@@@@@ATL@@QAE@XZ

; 84   : 		m_dLoaderVersion = g_dCDRDebugerLoader_Version;

  00054	f2 0f 10 05 00
	00 00 00	 movsd	 xmm0, QWORD PTR __real@3ff0000000000000

; 138  : 		char _szBuf_[255] = {0,};

  0005c	8d 85 f0 fe ff
	ff		 lea	 eax, DWORD PTR __szBuf_$5[ebp]
  00062	68 ff 00 00 00	 push	 255			; 000000ffH
  00067	6a 00		 push	 0
  00069	50		 push	 eax

; 80   : 	CDRDebugerLoader(BOOL bAutoLoad=TRUE)

  0006a	c6 45 fc 01	 mov	 BYTE PTR __$EHRec$[ebp+8], 1

; 81   : 	{
; 82   : 		m_nLoadTry = 0;

  0006e	c7 46 68 00 00
	00 00		 mov	 DWORD PTR [esi+104], 0

; 83   : 		m_hLib = NULL;

  00075	c7 06 00 00 00
	00		 mov	 DWORD PTR [esi], 0

; 84   : 		m_dLoaderVersion = g_dCDRDebugerLoader_Version;

  0007b	f2 0f 11 46 60	 movsd	 QWORD PTR [esi+96], xmm0

; 138  : 		char _szBuf_[255] = {0,};

  00080	e8 00 00 00 00	 call	 _memset
  00085	83 c4 0c	 add	 esp, 12			; 0000000cH

; 139  : 		::GetModuleFileName(NULL, _szBuf_, 255);

  00088	8d 85 f0 fe ff
	ff		 lea	 eax, DWORD PTR __szBuf_$5[ebp]
  0008e	68 ff 00 00 00	 push	 255			; 000000ffH
  00093	50		 push	 eax
  00094	6a 00		 push	 0
  00096	ff 15 00 00 00
	00		 call	 DWORD PTR __imp__GetModuleFileNameA@12

; 140  : 			
; 141  : 		CString	_strRoot_ = _szBuf_;

  0009c	8d 85 f0 fe ff
	ff		 lea	 eax, DWORD PTR __szBuf_$5[ebp]
  000a2	50		 push	 eax
  000a3	8d 8d ec fe ff
	ff		 lea	 ecx, DWORD PTR __strRoot_$4[ebp]
  000a9	ff 15 00 00 00
	00		 call	 DWORD PTR __imp_??0?$CStringT@DV?$StrTraitMFC_DLL@DV?$ChTraitsCRT@D@ATL@@@@@ATL@@QAE@PBD@Z

; 142  : 		
; 143  : 		int _loc_ = _strRoot_.ReverseFind('\\');

  000af	6a 5c		 push	 92			; 0000005cH
  000b1	8d 8d ec fe ff
	ff		 lea	 ecx, DWORD PTR __strRoot_$4[ebp]
  000b7	c6 45 fc 02	 mov	 BYTE PTR __$EHRec$[ebp+8], 2
  000bb	ff 15 00 00 00
	00		 call	 DWORD PTR __imp_?ReverseFind@?$CStringT@DV?$StrTraitMFC_DLL@DV?$ChTraitsCRT@D@ATL@@@@@ATL@@QBEHD@Z

; 144  : 		if( _loc_ > 0)

  000c1	85 c0		 test	 eax, eax
  000c3	7e 35		 jle	 SHORT $LN7@CDRDebuger

; 145  : 			_strRoot_ = _strRoot_.Left(_loc_);

  000c5	50		 push	 eax
  000c6	8d 85 e8 fe ff
	ff		 lea	 eax, DWORD PTR $T2[ebp]
  000cc	50		 push	 eax
  000cd	8d 8d ec fe ff
	ff		 lea	 ecx, DWORD PTR __strRoot_$4[ebp]
  000d3	ff 15 00 00 00
	00		 call	 DWORD PTR __imp_?Left@?$CStringT@DV?$StrTraitMFC_DLL@DV?$ChTraitsCRT@D@ATL@@@@@ATL@@QBE?AV12@H@Z
  000d9	50		 push	 eax
  000da	8d 8d ec fe ff
	ff		 lea	 ecx, DWORD PTR __strRoot_$4[ebp]
  000e0	c6 45 fc 03	 mov	 BYTE PTR __$EHRec$[ebp+8], 3
  000e4	ff 15 00 00 00
	00		 call	 DWORD PTR __imp_??4?$CStringT@DV?$StrTraitMFC_DLL@DV?$ChTraitsCRT@D@ATL@@@@@ATL@@QAEAAV01@ABV01@@Z
  000ea	8d 8d e8 fe ff
	ff		 lea	 ecx, DWORD PTR $T2[ebp]
  000f0	c6 45 fc 02	 mov	 BYTE PTR __$EHRec$[ebp+8], 2
  000f4	ff 15 00 00 00
	00		 call	 DWORD PTR __imp_??1?$CStringT@DV?$StrTraitMFC_DLL@DV?$ChTraitsCRT@D@ATL@@@@@ATL@@QAE@XZ
$LN7@CDRDebuger:

; 146  : 
; 147  : 		strDir = _strRoot_;

  000fa	8d 85 ec fe ff
	ff		 lea	 eax, DWORD PTR __strRoot_$4[ebp]
  00100	50		 push	 eax
  00101	8d 4e 04	 lea	 ecx, DWORD PTR [esi+4]
  00104	ff 15 00 00 00
	00		 call	 DWORD PTR __imp_??4?$CStringT@DV?$StrTraitMFC_DLL@DV?$ChTraitsCRT@D@ATL@@@@@ATL@@QAEAAV01@ABV01@@Z

; 148  : 	}

  0010a	8d 8d ec fe ff
	ff		 lea	 ecx, DWORD PTR __strRoot_$4[ebp]
  00110	c6 45 fc 01	 mov	 BYTE PTR __$EHRec$[ebp+8], 1
  00114	ff 15 00 00 00
	00		 call	 DWORD PTR __imp_??1?$CStringT@DV?$StrTraitMFC_DLL@DV?$ChTraitsCRT@D@ATL@@@@@ATL@@QAE@XZ

; 85   : 
; 86   : 		GetExeDir(m_szLibName);
; 87   : 		m_szLibName += "\\";

  0011a	68 00 00 00 00	 push	 OFFSET ??_C@_01KICIPPFI@?2@
  0011f	8d 4e 04	 lea	 ecx, DWORD PTR [esi+4]
  00122	ff 15 00 00 00
	00		 call	 DWORD PTR __imp_??Y?$CStringT@DV?$StrTraitMFC_DLL@DV?$ChTraitsCRT@D@ATL@@@@@ATL@@QAEAAV01@PBD@Z

; 88   : 		m_szLibName += g_DRDebugerLoader_DLL;	//exe   .

  00128	68 00 00 00 00	 push	 OFFSET ??_C@_0O@GFDNBJDO@DRDebuger?4dll@
  0012d	8d 4e 04	 lea	 ecx, DWORD PTR [esi+4]
  00130	ff 15 00 00 00
	00		 call	 DWORD PTR __imp_??Y?$CStringT@DV?$StrTraitMFC_DLL@DV?$ChTraitsCRT@D@ATL@@@@@ATL@@QAEAAV01@PBD@Z

; 89   : 		//OutputDebugString(m_szLibName);
; 90   : 
; 91   : 		m_fpGetInferface = NULL;
; 92   : 		m_fpSetInferface = NULL;
; 93   : 		m_fpMessage = NULL;
; 94   : 		m_fpMessageEx = NULL;
; 95   : 		m_fpRequestData = NULL;
; 96   : 		m_fpResponseData = NULL;
; 97   : 		m_fpRealAdvise = NULL;
; 98   : 		m_fpRealUnAdvise = NULL;
; 99   : 		m_fpRealData = NULL;
; 100  : 		m_fpDebugData = NULL;
; 101  : 		m_fpDebugDataEx = NULL;
; 102  : 		m_fpLogData = NULL;
; 103  : 		m_fpOutputDebugString = NULL;
; 104  : 		m_fpRequestSR = NULL;
; 105  : 		m_fpRequestFileData = NULL;
; 106  : 		m_fpResponseFileData = NULL;
; 107  : 		m_fpRequestStringsData = NULL;
; 108  : 		m_fpResponseStringsData = NULL;
; 109  : 		m_fpFileTranWithData1 = NULL;
; 110  : 		m_fpFileTranWithData2 = NULL;
; 111  : 		m_fpFileTranWithDirect = NULL;
; 112  : 
; 113  : 		if(bAutoLoad)	LoadLib();

  00136	83 7d 08 00	 cmp	 DWORD PTR _bAutoLoad$[ebp], 0
  0013a	c7 46 08 00 00
	00 00		 mov	 DWORD PTR [esi+8], 0
  00141	c7 46 0c 00 00
	00 00		 mov	 DWORD PTR [esi+12], 0
  00148	c7 46 10 00 00
	00 00		 mov	 DWORD PTR [esi+16], 0
  0014f	c7 46 14 00 00
	00 00		 mov	 DWORD PTR [esi+20], 0
  00156	c7 46 18 00 00
	00 00		 mov	 DWORD PTR [esi+24], 0
  0015d	c7 46 1c 00 00
	00 00		 mov	 DWORD PTR [esi+28], 0
  00164	c7 46 20 00 00
	00 00		 mov	 DWORD PTR [esi+32], 0
  0016b	c7 46 24 00 00
	00 00		 mov	 DWORD PTR [esi+36], 0
  00172	c7 46 28 00 00
	00 00		 mov	 DWORD PTR [esi+40], 0
  00179	c7 46 2c 00 00
	00 00		 mov	 DWORD PTR [esi+44], 0
  00180	c7 46 30 00 00
	00 00		 mov	 DWORD PTR [esi+48], 0
  00187	c7 46 34 00 00
	00 00		 mov	 DWORD PTR [esi+52], 0
  0018e	c7 46 38 00 00
	00 00		 mov	 DWORD PTR [esi+56], 0
  00195	c7 46 3c 00 00
	00 00		 mov	 DWORD PTR [esi+60], 0
  0019c	c7 46 40 00 00
	00 00		 mov	 DWORD PTR [esi+64], 0
  001a3	c7 46 44 00 00
	00 00		 mov	 DWORD PTR [esi+68], 0
  001aa	c7 46 48 00 00
	00 00		 mov	 DWORD PTR [esi+72], 0
  001b1	c7 46 4c 00 00
	00 00		 mov	 DWORD PTR [esi+76], 0
  001b8	c7 46 50 00 00
	00 00		 mov	 DWORD PTR [esi+80], 0
  001bf	c7 46 54 00 00
	00 00		 mov	 DWORD PTR [esi+84], 0
  001c6	c7 46 58 00 00
	00 00		 mov	 DWORD PTR [esi+88], 0
  001cd	74 53		 je	 SHORT $LN18@CDRDebuger

; 154  : 		hLib  = (HINSTANCE) ::LoadLibrary((LPCTSTR)m_szLibName);

  001cf	ff 76 04	 push	 DWORD PTR [esi+4]
  001d2	c7 46 68 00 00
	00 00		 mov	 DWORD PTR [esi+104], 0
  001d9	ff 15 00 00 00
	00		 call	 DWORD PTR __imp__LoadLibraryA@4

; 155  : 		if( hLib == NULL)

  001df	85 c0		 test	 eax, eax
  001e1	75 36		 jne	 SHORT $LN12@CDRDebuger

; 156  : 		{
; 157  : 			CString szMsg;

  001e3	8d 8d ec fe ff
	ff		 lea	 ecx, DWORD PTR _szMsg$3[ebp]
  001e9	ff 15 00 00 00
	00		 call	 DWORD PTR __imp_??0?$CStringT@DV?$StrTraitMFC_DLL@DV?$ChTraitsCRT@D@ATL@@@@@ATL@@QAE@XZ

; 158  : 			szMsg.Format("[drfn]DLL(%s) Load  .\n", m_szLibName);

  001ef	ff 76 04	 push	 DWORD PTR [esi+4]
  001f2	8d 85 ec fe ff
	ff		 lea	 eax, DWORD PTR _szMsg$3[ebp]
  001f8	c6 45 fc 04	 mov	 BYTE PTR __$EHRec$[ebp+8], 4
  001fc	68 00 00 00 00	 push	 OFFSET ??_C@_0CF@IGNKKJMG@?$FLdrfn?$FNDLL?$CI?$CFs?$CJ?$MA?$LL?5Load?G?R?5?$LM?v?5?$LO?x?$LN?$MA?$LE@
  00201	50		 push	 eax
  00202	ff 15 00 00 00
	00		 call	 DWORD PTR __imp_?Format@?$CStringT@DV?$StrTraitMFC_DLL@DV?$ChTraitsCRT@D@ATL@@@@@ATL@@QAAXPBDZZ
  00208	83 c4 0c	 add	 esp, 12			; 0000000cH

; 159  : 			//OutputDebugString(szMsg);
; 160  : 			// AfxMessageBox(szMsg);
; 161  : 
; 162  : 			//CString szCLibName;
; 163  : 			//szCLibName.Format("C:\\DRfn\\%s", g_DRDebugerLoader_DLL);
; 164  : 			//hLib  = (HINSTANCE) ::LoadLibrary((LPCTSTR)szCLibName);
; 165  : 
; 166  : 			if( hLib == NULL)
; 167  : 				return NULL;

  0020b	8d 8d ec fe ff
	ff		 lea	 ecx, DWORD PTR _szMsg$3[ebp]
  00211	ff 15 00 00 00
	00		 call	 DWORD PTR __imp_??1?$CStringT@DV?$StrTraitMFC_DLL@DV?$ChTraitsCRT@D@ATL@@@@@ATL@@QAE@XZ
  00217	eb 09		 jmp	 SHORT $LN18@CDRDebuger
$LN12@CDRDebuger:

; 168  : 		}
; 169  : 
; 170  : 		m_hLib = hLib;

  00219	89 06		 mov	 DWORD PTR [esi], eax

; 171  : 		m_nLoadTry = g_DRDebugerLoader_TryCount;

  0021b	c7 46 68 0a 00
	00 00		 mov	 DWORD PTR [esi+104], 10	; 0000000aH
$LN18@CDRDebuger:

; 114  : 	}

  00222	8b c6		 mov	 eax, esi
  00224	8b 4d f4	 mov	 ecx, DWORD PTR __$EHRec$[ebp]
  00227	64 89 0d 00 00
	00 00		 mov	 DWORD PTR fs:0, ecx
  0022e	59		 pop	 ecx
  0022f	5f		 pop	 edi
  00230	5e		 pop	 esi
  00231	8b 4d f0	 mov	 ecx, DWORD PTR __$ArrayPad$[ebp]
  00234	33 cd		 xor	 ecx, ebp
  00236	e8 00 00 00 00	 call	 @__security_check_cookie@4
  0023b	8b e5		 mov	 esp, ebp
  0023d	5d		 pop	 ebp
  0023e	c2 04 00	 ret	 4
_TEXT	ENDS
;	COMDAT text$x
text$x	SEGMENT
__unwindfunclet$??0CDRDebugerLoader@@QAE@H@Z$0:
  00000	8b 8d e4 fe ff
	ff		 mov	 ecx, DWORD PTR _this$GSCopy$[ebp]
  00006	83 c1 04	 add	 ecx, 4
  00009	ff 25 00 00 00
	00		 jmp	 DWORD PTR __imp_??1?$CStringT@DV?$StrTraitMFC_DLL@DV?$ChTraitsCRT@D@ATL@@@@@ATL@@QAE@XZ
__unwindfunclet$??0CDRDebugerLoader@@QAE@H@Z$1:
  0000f	8b 8d e4 fe ff
	ff		 mov	 ecx, DWORD PTR _this$GSCopy$[ebp]
  00015	83 c1 5c	 add	 ecx, 92			; 0000005cH
  00018	ff 25 00 00 00
	00		 jmp	 DWORD PTR __imp_??1?$CStringT@DV?$StrTraitMFC_DLL@DV?$ChTraitsCRT@D@ATL@@@@@ATL@@QAE@XZ
__unwindfunclet$??0CDRDebugerLoader@@QAE@H@Z$2:
  0001e	8d 8d ec fe ff
	ff		 lea	 ecx, DWORD PTR __strRoot_$4[ebp]
  00024	ff 25 00 00 00
	00		 jmp	 DWORD PTR __imp_??1?$CStringT@DV?$StrTraitMFC_DLL@DV?$ChTraitsCRT@D@ATL@@@@@ATL@@QAE@XZ
__unwindfunclet$??0CDRDebugerLoader@@QAE@H@Z$3:
  0002a	8d 8d e8 fe ff
	ff		 lea	 ecx, DWORD PTR $T2[ebp]
  00030	ff 25 00 00 00
	00		 jmp	 DWORD PTR __imp_??1?$CStringT@DV?$StrTraitMFC_DLL@DV?$ChTraitsCRT@D@ATL@@@@@ATL@@QAE@XZ
__unwindfunclet$??0CDRDebugerLoader@@QAE@H@Z$4:
  00036	8d 8d ec fe ff
	ff		 lea	 ecx, DWORD PTR _szMsg$3[ebp]
  0003c	ff 25 00 00 00
	00		 jmp	 DWORD PTR __imp_??1?$CStringT@DV?$StrTraitMFC_DLL@DV?$ChTraitsCRT@D@ATL@@@@@ATL@@QAE@XZ
  00042	cc		 int	 3
  00043	cc		 int	 3
  00044	cc		 int	 3
  00045	cc		 int	 3
  00046	cc		 int	 3
__ehhandler$??0CDRDebugerLoader@@QAE@H@Z:
  00047	90		 npad	 1
  00048	90		 npad	 1
  00049	8b 54 24 08	 mov	 edx, DWORD PTR [esp+8]
  0004d	8d 42 0c	 lea	 eax, DWORD PTR [edx+12]
  00050	8b 8a e4 fe ff
	ff		 mov	 ecx, DWORD PTR [edx-284]
  00056	33 c8		 xor	 ecx, eax
  00058	e8 00 00 00 00	 call	 @__security_check_cookie@4
  0005d	8b 4a fc	 mov	 ecx, DWORD PTR [edx-4]
  00060	33 c8		 xor	 ecx, eax
  00062	e8 00 00 00 00	 call	 @__security_check_cookie@4
  00067	b8 00 00 00 00	 mov	 eax, OFFSET __ehfuncinfo$??0CDRDebugerLoader@@QAE@H@Z
  0006c	e9 00 00 00 00	 jmp	 ___CxxFrameHandler3
text$x	ENDS
??0CDRDebugerLoader@@QAE@H@Z ENDP			; CDRDebugerLoader::CDRDebugerLoader
; Function compile flags: /Ogtp
; File C:\Program Files (x86)\Microsoft Visual Studio\2019\Community\VC\Tools\MSVC\14.29.30133\atlmfc\include\afxwin.h
;	COMDAT ?GetApplicationRecoveryPingInterval@CWinApp@@UAEKXZ
_TEXT	SEGMENT
?GetApplicationRecoveryPingInterval@CWinApp@@UAEKXZ PROC ; CWinApp::GetApplicationRecoveryPingInterval, COMDAT
; _this$ = ecx

; 5370 : 	virtual DWORD GetApplicationRecoveryPingInterval() { return RECOVERY_DEFAULT_PING_INTERVAL; }  // Ping interval for RegisterApplicationRecoveryCallback

  00000	b8 88 13 00 00	 mov	 eax, 5000		; 00001388H
  00005	c3		 ret	 0
?GetApplicationRecoveryPingInterval@CWinApp@@UAEKXZ ENDP ; CWinApp::GetApplicationRecoveryPingInterval
_TEXT	ENDS
; Function compile flags: /Ogtp
; File C:\Program Files (x86)\Microsoft Visual Studio\2019\Community\VC\Tools\MSVC\14.29.30133\atlmfc\include\afxwin.h
;	COMDAT ?GetApplicationRecoveryParameter@CWinApp@@UAEPAXXZ
_TEXT	SEGMENT
?GetApplicationRecoveryParameter@CWinApp@@UAEPAXXZ PROC	; CWinApp::GetApplicationRecoveryParameter, COMDAT
; _this$ = ecx

; 5369 : 	virtual LPVOID GetApplicationRecoveryParameter() { return NULL; }  // Parameter to be passed along to RegisterApplicationRecoveryCallback

  00000	33 c0		 xor	 eax, eax
  00002	c3		 ret	 0
?GetApplicationRecoveryParameter@CWinApp@@UAEPAXXZ ENDP	; CWinApp::GetApplicationRecoveryParameter
_TEXT	ENDS
; Function compile flags: /Ogtp
; File C:\Program Files (x86)\Microsoft Visual Studio\2019\Community\VC\Tools\MSVC\14.29.30133\atlmfc\include\afxwin.h
;	COMDAT ?GetApplicationRestartFlags@CWinApp@@UAEKXZ
_TEXT	SEGMENT
?GetApplicationRestartFlags@CWinApp@@UAEKXZ PROC	; CWinApp::GetApplicationRestartFlags, COMDAT
; _this$ = ecx

; 5368 : 	virtual DWORD GetApplicationRestartFlags() { return 0; }  // Flags for RegisterApplicationRestart: default is none of RESTART_NO_CRASH/RESTART_NO_HANG/RESTART_NO_PATCH/RESTART_NO_REBOOT

  00000	33 c0		 xor	 eax, eax
  00002	c3		 ret	 0
?GetApplicationRestartFlags@CWinApp@@UAEKXZ ENDP	; CWinApp::GetApplicationRestartFlags
_TEXT	ENDS
; Function compile flags: /Ogtp
; File C:\Program Files (x86)\Microsoft Visual Studio\2019\Community\VC\Tools\MSVC\14.29.30133\atlmfc\include\afxwin.h
;	COMDAT ?RestoreAutosavedFilesAtRestart@CWinApp@@UBEHXZ
_TEXT	SEGMENT
?RestoreAutosavedFilesAtRestart@CWinApp@@UBEHXZ PROC	; CWinApp::RestoreAutosavedFilesAtRestart, COMDAT
; _this$ = ecx

; 5366 : 	virtual BOOL RestoreAutosavedFilesAtRestart() const { return m_dwRestartManagerSupportFlags & AFX_RESTART_MANAGER_RESTORE_AUTOSAVED_FILES; }

  00000	8b 81 ac 00 00
	00		 mov	 eax, DWORD PTR [ecx+172]
  00006	83 e0 20	 and	 eax, 32			; 00000020H
  00009	c3		 ret	 0
?RestoreAutosavedFilesAtRestart@CWinApp@@UBEHXZ ENDP	; CWinApp::RestoreAutosavedFilesAtRestart
_TEXT	ENDS
; Function compile flags: /Ogtp
; File C:\Program Files (x86)\Microsoft Visual Studio\2019\Community\VC\Tools\MSVC\14.29.30133\atlmfc\include\afxwin.h
;	COMDAT ?ReopenPreviousFilesAtRestart@CWinApp@@UBEHXZ
_TEXT	SEGMENT
?ReopenPreviousFilesAtRestart@CWinApp@@UBEHXZ PROC	; CWinApp::ReopenPreviousFilesAtRestart, COMDAT
; _this$ = ecx

; 5365 : 	virtual BOOL ReopenPreviousFilesAtRestart() const { return m_dwRestartManagerSupportFlags & AFX_RESTART_MANAGER_REOPEN_PREVIOUS_FILES; }

  00000	8b 81 ac 00 00
	00		 mov	 eax, DWORD PTR [ecx+172]
  00006	83 e0 10	 and	 eax, 16			; 00000010H
  00009	c3		 ret	 0
?ReopenPreviousFilesAtRestart@CWinApp@@UBEHXZ ENDP	; CWinApp::ReopenPreviousFilesAtRestart
_TEXT	ENDS
; Function compile flags: /Ogtp
; File C:\Program Files (x86)\Microsoft Visual Studio\2019\Community\VC\Tools\MSVC\14.29.30133\atlmfc\include\afxwin.h
;	COMDAT ?SupportsAutosaveAtInterval@CWinApp@@UBEHXZ
_TEXT	SEGMENT
?SupportsAutosaveAtInterval@CWinApp@@UBEHXZ PROC	; CWinApp::SupportsAutosaveAtInterval, COMDAT
; _this$ = ecx

; 5364 : 	virtual BOOL SupportsAutosaveAtInterval() const { return m_dwRestartManagerSupportFlags & AFX_RESTART_MANAGER_AUTOSAVE_AT_INTERVAL; }

  00000	8b 81 ac 00 00
	00		 mov	 eax, DWORD PTR [ecx+172]
  00006	83 e0 08	 and	 eax, 8
  00009	c3		 ret	 0
?SupportsAutosaveAtInterval@CWinApp@@UBEHXZ ENDP	; CWinApp::SupportsAutosaveAtInterval
_TEXT	ENDS
; Function compile flags: /Ogtp
; File C:\Program Files (x86)\Microsoft Visual Studio\2019\Community\VC\Tools\MSVC\14.29.30133\atlmfc\include\afxwin.h
;	COMDAT ?SupportsAutosaveAtRestart@CWinApp@@UBEHXZ
_TEXT	SEGMENT
?SupportsAutosaveAtRestart@CWinApp@@UBEHXZ PROC		; CWinApp::SupportsAutosaveAtRestart, COMDAT
; _this$ = ecx

; 5363 : 	virtual BOOL SupportsAutosaveAtRestart() const { return m_dwRestartManagerSupportFlags & AFX_RESTART_MANAGER_AUTOSAVE_AT_RESTART; }

  00000	8b 81 ac 00 00
	00		 mov	 eax, DWORD PTR [ecx+172]
  00006	83 e0 04	 and	 eax, 4
  00009	c3		 ret	 0
?SupportsAutosaveAtRestart@CWinApp@@UBEHXZ ENDP		; CWinApp::SupportsAutosaveAtRestart
_TEXT	ENDS
; Function compile flags: /Ogtp
; File C:\Program Files (x86)\Microsoft Visual Studio\2019\Community\VC\Tools\MSVC\14.29.30133\atlmfc\include\afxwin.h
;	COMDAT ?SupportsApplicationRecovery@CWinApp@@UBEHXZ
_TEXT	SEGMENT
?SupportsApplicationRecovery@CWinApp@@UBEHXZ PROC	; CWinApp::SupportsApplicationRecovery, COMDAT
; _this$ = ecx

; 5362 : 	virtual BOOL SupportsApplicationRecovery() const { return m_dwRestartManagerSupportFlags & AFX_RESTART_MANAGER_SUPPORT_RECOVERY; }

  00000	8b 81 ac 00 00
	00		 mov	 eax, DWORD PTR [ecx+172]
  00006	83 e0 02	 and	 eax, 2
  00009	c3		 ret	 0
?SupportsApplicationRecovery@CWinApp@@UBEHXZ ENDP	; CWinApp::SupportsApplicationRecovery
_TEXT	ENDS
; Function compile flags: /Ogtp
; File C:\Program Files (x86)\Microsoft Visual Studio\2019\Community\VC\Tools\MSVC\14.29.30133\atlmfc\include\afxwin.h
;	COMDAT ?SupportsRestartManager@CWinApp@@UBEHXZ
_TEXT	SEGMENT
?SupportsRestartManager@CWinApp@@UBEHXZ PROC		; CWinApp::SupportsRestartManager, COMDAT
; _this$ = ecx

; 5361 : 	virtual BOOL SupportsRestartManager() const { return m_dwRestartManagerSupportFlags & AFX_RESTART_MANAGER_SUPPORT_RESTART; }

  00000	8b 81 ac 00 00
	00		 mov	 eax, DWORD PTR [ecx+172]
  00006	83 e0 01	 and	 eax, 1
  00009	c3		 ret	 0
?SupportsRestartManager@CWinApp@@UBEHXZ ENDP		; CWinApp::SupportsRestartManager
_TEXT	ENDS
; Function compile flags: /Ogtp
; File C:\Program Files (x86)\Microsoft Visual Studio\2019\Community\VC\Tools\MSVC\14.29.30133\atlmfc\include\afx.inl
;	COMDAT ?Dump@CObject@@UBEXAAVCDumpContext@@@Z
_TEXT	SEGMENT
___formal$ = 8						; size = 4
?Dump@CObject@@UBEXAAVCDumpContext@@@Z PROC		; CObject::Dump, COMDAT
; _this$ = ecx

; 122  : 	{ /* no dumping in release builds */ }

  00000	c2 04 00	 ret	 4
?Dump@CObject@@UBEXAAVCDumpContext@@@Z ENDP		; CObject::Dump
_TEXT	ENDS
; Function compile flags: /Ogtp
; File C:\Program Files (x86)\Microsoft Visual Studio\2019\Community\VC\Tools\MSVC\14.29.30133\atlmfc\include\afx.inl
;	COMDAT ?AssertValid@CObject@@UBEXXZ
_TEXT	SEGMENT
?AssertValid@CObject@@UBEXXZ PROC			; CObject::AssertValid, COMDAT
; _this$ = ecx

; 120  : 	{ /* no asserts in release builds */ }

  00000	c2 00 00	 ret	 0
?AssertValid@CObject@@UBEXXZ ENDP			; CObject::AssertValid
_TEXT	ENDS
; Function compile flags: /Ogtp
; File C:\Program Files (x86)\Microsoft Visual Studio\2019\Community\VC\Tools\MSVC\14.29.30133\atlmfc\include\afx.inl
;	COMDAT ?Serialize@CObject@@UAEXAAVCArchive@@@Z
_TEXT	SEGMENT
___formal$ = 8						; size = 4
?Serialize@CObject@@UAEXAAVCArchive@@@Z PROC		; CObject::Serialize, COMDAT
; _this$ = ecx

; 106  : 	{ /* CObject does not serialize anything by default */ }

  00000	c2 04 00	 ret	 4
?Serialize@CObject@@UAEXAAVCArchive@@@Z ENDP		; CObject::Serialize
_TEXT	ENDS
; Function compile flags: /Ogtp
; File C:\Program Files (x86)\Windows Kits\10\Include\10.0.22000.0\ucrt\stdio.h
;	COMDAT _sscanf
_TEXT	SEGMENT
__Buffer$ = 8						; size = 4
__Format$ = 12						; size = 4
_sscanf	PROC						; COMDAT

; 2247 :     {

  00000	55		 push	 ebp
  00001	8b ec		 mov	 ebp, esp

; 2153 :         return __stdio_common_vsscanf(

  00003	8d 45 10	 lea	 eax, DWORD PTR __Format$[ebp+4]
  00006	50		 push	 eax
  00007	6a 00		 push	 0
  00009	ff 75 0c	 push	 DWORD PTR __Format$[ebp]
  0000c	6a ff		 push	 -1
  0000e	ff 75 08	 push	 DWORD PTR __Buffer$[ebp]
  00011	e8 00 00 00 00	 call	 ___local_stdio_scanf_options
  00016	ff 70 04	 push	 DWORD PTR [eax+4]
  00019	ff 30		 push	 DWORD PTR [eax]
  0001b	ff 15 00 00 00
	00		 call	 DWORD PTR __imp____stdio_common_vsscanf
  00021	83 c4 1c	 add	 esp, 28			; 0000001cH

; 2248 :         int _Result;
; 2249 :         va_list _ArgList;
; 2250 :         __crt_va_start(_ArgList, _Format);
; 2251 :         _Result = _vsscanf_l(_Buffer, _Format, NULL, _ArgList);
; 2252 :         __crt_va_end(_ArgList);
; 2253 :         return _Result;
; 2254 :     }

  00024	5d		 pop	 ebp
  00025	c3		 ret	 0
_sscanf	ENDP
_TEXT	ENDS
; Function compile flags: /Ogtp
; File C:\Program Files (x86)\Windows Kits\10\Include\10.0.22000.0\ucrt\corecrt_stdio_config.h
;	COMDAT ___local_stdio_scanf_options
_TEXT	SEGMENT
___local_stdio_scanf_options PROC			; COMDAT

; 101  :         static unsigned __int64 _OptionsStorage;
; 102  :         return &_OptionsStorage;

  00000	b8 00 00 00 00	 mov	 eax, OFFSET ?_OptionsStorage@?1??__local_stdio_scanf_options@@9@4_KA ; `__local_stdio_scanf_options'::`2'::_OptionsStorage

; 103  :     }

  00005	c3		 ret	 0
___local_stdio_scanf_options ENDP
_TEXT	ENDS
; Function compile flags: /Ogtp
; File D:\git\src\IBK\IBK_DRFN\ProjSrc\SrcDrfn\DrCommon\PartnerMng\PartnerMng.cpp
;	COMDAT ?__empty_global_delete@@YAXPAXI@Z
_TEXT	SEGMENT
___formal$ = 8						; size = 4
___formal$ = 12						; size = 4
?__empty_global_delete@@YAXPAXI@Z PROC			; __empty_global_delete, COMDAT

  00000	c2 00 00	 ret	 0
?__empty_global_delete@@YAXPAXI@Z ENDP			; __empty_global_delete
_TEXT	ENDS
; Function compile flags: /Ogtp
; File D:\git\src\IBK\IBK_DRFN\ProjSrc\SrcDrfn\DrCommon\PartnerMng\PartnerMng.cpp
;	COMDAT ?__empty_global_delete@@YAXPAX@Z
_TEXT	SEGMENT
___formal$ = 8						; size = 4
?__empty_global_delete@@YAXPAX@Z PROC			; __empty_global_delete, COMDAT

  00000	c2 00 00	 ret	 0
?__empty_global_delete@@YAXPAX@Z ENDP			; __empty_global_delete
_TEXT	ENDS
END
