; Listing generated by Microsoft (R) Optimizing Compiler Version 19.29.30145.0 

	TITLE	D:\git\src\IBK\IBK_DRFN\#DRfn-CS\_Obj\IndexOptimizer\DlgResult.obj
	.686P
	.XMM
	include listing.inc
	.model	flat

INCLUDELIB MSVCRT
INCLUDELIB OLDNAMES

PUBLIC	??_C@_0BG@OHIMHJEO@RMSG_STTREE_ITEMCLICK@	; `string'
PUBLIC	??_C@_0BH@LAAMLACL@RMSG_STTREE_ITEMDBLCLK@	; `string'
;	COMDAT ??_C@_0BH@LAAMLACL@RMSG_STTREE_ITEMDBLCLK@
CONST	SEGMENT
??_C@_0BH@LAAMLACL@RMSG_STTREE_ITEMDBLCLK@ DB 'RMSG_STTREE_ITEMDBLCLK', 00H ; `string'
CONST	ENDS
;	COMDAT ??_C@_0BG@OHIMHJEO@RMSG_STTREE_ITEMCLICK@
CONST	SEGMENT
??_C@_0BG@OHIMHJEO@RMSG_STTREE_ITEMCLICK@ DB 'RMSG_STTREE_ITEMCLICK', 00H ; `string'
CONST	ENDS
PUBLIC	??_H@YGXPAXIIP6EPAX0@Z@Z			; `vector constructor iterator'
PUBLIC	?__empty_global_delete@@YAXPAX@Z		; __empty_global_delete
PUBLIC	?__empty_global_delete@@YAXPAXI@Z		; __empty_global_delete
PUBLIC	___local_stdio_printf_options
PUBLIC	_printf
PUBLIC	??1CObject@@UAE@XZ				; CObject::~CObject
PUBLIC	?Serialize@CObject@@UAEXAAVCArchive@@@Z		; CObject::Serialize
PUBLIC	?AssertValid@CObject@@UBEXXZ			; CObject::AssertValid
PUBLIC	?Dump@CObject@@UBEXAAVCDumpContext@@@Z		; CObject::Dump
PUBLIC	??1CGdiObject@@UAE@XZ				; CGdiObject::~CGdiObject
PUBLIC	??_GCGdiObject@@UAEPAXI@Z			; CGdiObject::`scalar deleting destructor'
PUBLIC	??1CBrush@@UAE@XZ				; CBrush::~CBrush
PUBLIC	??_GCBrush@@UAEPAXI@Z				; CBrush::`scalar deleting destructor'
PUBLIC	?DoDataExchange@CWnd@@MAEXPAVCDataExchange@@@Z	; CWnd::DoDataExchange
PUBLIC	?BeginModalState@CWnd@@UAEXXZ			; CWnd::BeginModalState
PUBLIC	?EndModalState@CWnd@@UAEXXZ			; CWnd::EndModalState
PUBLIC	?Create@CDialog@@UAEHIPAVCWnd@@@Z		; CDialog::Create
PUBLIC	??1ST_DATAINDEX@@QAE@XZ				; ST_DATAINDEX::~ST_DATAINDEX
PUBLIC	?PreTranslateMessage@CEscDialog@@MAEHPAUtagMSG@@@Z ; CEscDialog::PreTranslateMessage
PUBLIC	??1CEscDialog@@UAE@XZ				; CEscDialog::~CEscDialog
PUBLIC	??_GCEscDialog@@UAEPAXI@Z			; CEscDialog::`scalar deleting destructor'
PUBLIC	??1_GV_ITEM@@QAE@XZ				; _GV_ITEM::~_GV_ITEM
PUBLIC	??0CDlgResult@@QAE@PAVCWnd@@@Z			; CDlgResult::CDlgResult
PUBLIC	?DoDataExchange@CDlgResult@@MAEXPAVCDataExchange@@@Z ; CDlgResult::DoDataExchange
PUBLIC	?OnInitDialog@CDlgResult@@MAEHXZ		; CDlgResult::OnInitDialog
PUBLIC	?OnDestroy@CDlgResult@@IAEXXZ			; CDlgResult::OnDestroy
PUBLIC	?GetThisMessageMap@CDlgResult@@KGPBUAFX_MSGMAP@@XZ ; CDlgResult::GetThisMessageMap
PUBLIC	?GetMessageMap@CDlgResult@@MBEPBUAFX_MSGMAP@@XZ	; CDlgResult::GetMessageMap
PUBLIC	?InitHtml@CDlgResult@@QAEXXZ			; CDlgResult::InitHtml
PUBLIC	?MakeHtmlFile@CDlgResult@@QAEXXZ		; CDlgResult::MakeHtmlFile
PUBLIC	?SetOptimizer@CDlgResult@@QAEXPAVCDlgOptimizer@@@Z ; CDlgResult::SetOptimizer
PUBLIC	?SetDataDir@CDlgResult@@QAEXV?$CStringT@DV?$StrTraitMFC_DLL@DV?$ChTraitsCRT@D@ATL@@@@@ATL@@@Z ; CDlgResult::SetDataDir
PUBLIC	?ParsingstrHtml@CDlgResult@@QAE?AV?$CStringT@DV?$StrTraitMFC_DLL@DV?$ChTraitsCRT@D@ATL@@@@@ATL@@V23@@Z ; CDlgResult::ParsingstrHtml
PUBLIC	?OpenWebView@CDlgResult@@QAEXV?$CStringT@DV?$StrTraitMFC_DLL@DV?$ChTraitsCRT@D@ATL@@@@@ATL@@@Z ; CDlgResult::OpenWebView
PUBLIC	?GetComma@CDlgResult@@QAE?AV?$CStringT@DV?$StrTraitMFC_DLL@DV?$ChTraitsCRT@D@ATL@@@@@ATL@@PBD@Z ; CDlgResult::GetComma
PUBLIC	?GetNumber@CDlgResult@@QAE?AV?$CStringT@DV?$StrTraitMFC_DLL@DV?$ChTraitsCRT@D@ATL@@@@@ATL@@PBD@Z ; CDlgResult::GetNumber
PUBLIC	?InitGrid@CDlgResult@@QAEXXZ			; CDlgResult::InitGrid
PUBLIC	?SetDataSpreadGrid@CDlgResult@@QAEXXZ		; CDlgResult::SetDataSpreadGrid
PUBLIC	??_GCDlgResult@@UAEPAXI@Z			; CDlgResult::`scalar deleting destructor'
PUBLIC	?_OptionsStorage@?1??__local_stdio_printf_options@@9@4_KA ; `__local_stdio_printf_options'::`2'::_OptionsStorage
PUBLIC	??_R0PAVCException@@@8				; CException * `RTTI Type Descriptor'
PUBLIC	??_C@_02DPKJAMEF@?$CFd@				; `string'
PUBLIC	??_C@_00CNPNBAHC@@				; `string'
PUBLIC	??_7CGdiObject@@6B@				; CGdiObject::`vftable'
PUBLIC	??_7CBrush@@6B@					; CBrush::`vftable'
PUBLIC	??_C@_0HD@JJCHHHNK@C?3?2Program?5Files?5?$CIx86?$CJ?2Microsof@ ; `string'
PUBLIC	??_C@_0BP@OIEOKIDM@Exception?5thrown?5in?5destructor@ ; `string'
PUBLIC	??_C@_0BB@HBOOMJBF@?$CFTs?5?$CI?$CFTs?3?$CFd?$CJ?6?$CFTs@ ; `string'
PUBLIC	??_C@_0N@OMEMOKLE@?$CFTs?5?$CI?$CFTs?3?$CFd?$CJ@ ; `string'
PUBLIC	??_C@_02DKCKIIND@?$CFs@				; `string'
PUBLIC	??_7CEscDialog@@6B@				; CEscDialog::`vftable'
PUBLIC	??_R0?AVCObject@@@8				; CObject `RTTI Type Descriptor'
PUBLIC	??_R3CObject@@8					; CObject::`RTTI Class Hierarchy Descriptor'
PUBLIC	??_R2CObject@@8					; CObject::`RTTI Base Class Array'
PUBLIC	??_R1A@?0A@EA@CObject@@8			; CObject::`RTTI Base Class Descriptor at (0,-1,0,64)'
PUBLIC	??_R4CGdiObject@@6B@				; CGdiObject::`RTTI Complete Object Locator'
PUBLIC	??_R0?AVCGdiObject@@@8				; CGdiObject `RTTI Type Descriptor'
PUBLIC	??_R3CGdiObject@@8				; CGdiObject::`RTTI Class Hierarchy Descriptor'
PUBLIC	??_R2CGdiObject@@8				; CGdiObject::`RTTI Base Class Array'
PUBLIC	??_R1A@?0A@EA@CGdiObject@@8			; CGdiObject::`RTTI Base Class Descriptor at (0,-1,0,64)'
PUBLIC	??_R4CBrush@@6B@				; CBrush::`RTTI Complete Object Locator'
PUBLIC	??_R0?AVCBrush@@@8				; CBrush `RTTI Type Descriptor'
PUBLIC	??_R3CBrush@@8					; CBrush::`RTTI Class Hierarchy Descriptor'
PUBLIC	??_R2CBrush@@8					; CBrush::`RTTI Base Class Array'
PUBLIC	??_R1A@?0A@EA@CBrush@@8				; CBrush::`RTTI Base Class Descriptor at (0,-1,0,64)'
PUBLIC	??_R1A@?0A@EA@CWnd@@8				; CWnd::`RTTI Base Class Descriptor at (0,-1,0,64)'
PUBLIC	??_R0?AVCWnd@@@8				; CWnd `RTTI Type Descriptor'
PUBLIC	??_R3CWnd@@8					; CWnd::`RTTI Class Hierarchy Descriptor'
PUBLIC	??_R2CWnd@@8					; CWnd::`RTTI Base Class Array'
PUBLIC	??_R1A@?0A@EA@CCmdTarget@@8			; CCmdTarget::`RTTI Base Class Descriptor at (0,-1,0,64)'
PUBLIC	??_R0?AVCCmdTarget@@@8				; CCmdTarget `RTTI Type Descriptor'
PUBLIC	??_R3CCmdTarget@@8				; CCmdTarget::`RTTI Class Hierarchy Descriptor'
PUBLIC	??_R2CCmdTarget@@8				; CCmdTarget::`RTTI Base Class Array'
PUBLIC	??_R1A@?0A@EA@CDialog@@8			; CDialog::`RTTI Base Class Descriptor at (0,-1,0,64)'
PUBLIC	??_R0?AVCDialog@@@8				; CDialog `RTTI Type Descriptor'
PUBLIC	??_R3CDialog@@8					; CDialog::`RTTI Class Hierarchy Descriptor'
PUBLIC	??_R2CDialog@@8					; CDialog::`RTTI Base Class Array'
PUBLIC	??_R4CEscDialog@@6B@				; CEscDialog::`RTTI Complete Object Locator'
PUBLIC	??_R0?AVCEscDialog@@@8				; CEscDialog `RTTI Type Descriptor'
PUBLIC	??_R3CEscDialog@@8				; CEscDialog::`RTTI Class Hierarchy Descriptor'
PUBLIC	??_R2CEscDialog@@8				; CEscDialog::`RTTI Base Class Array'
PUBLIC	??_R1A@?0A@EA@CEscDialog@@8			; CEscDialog::`RTTI Base Class Descriptor at (0,-1,0,64)'
PUBLIC	??_7CDlgResult@@6B@				; CDlgResult::`vftable'
PUBLIC	??_C@_02JINPPBEP@No@				; `string'
PUBLIC	??_C@_0L@FJFCOKJ@?$LE?$KJ?$MA?$PL?$LM?v?$MA?M?$LH?$PM@ ; `string'
PUBLIC	??_C@_06GNECPJOA@?C?Q?$LM?U?$MA?M@		; `string'
PUBLIC	??_C@_0O@KHPIEGBI@?C?Q?$MA?L?$MA?M?1?C?Q?$LM?U?$LN?G@ ; `string'
PUBLIC	??_C@_0N@NJFCNOGE@?$LA?G?$LK?$LA?F?r?$LB?U?$LM?U?$MA?M@ ; `string'
PUBLIC	??_C@_06KFFIADGF@?C?Q?A?x?$MA?T@		; `string'
PUBLIC	??_C@_08OPDCDADA@?C?Q?$LI?E?$LI?E?$LM?v@	; `string'
PUBLIC	??_C@_0O@CIHDHIEL@?$MA?L?$MA?M?$LM?v?1?$LM?U?$LN?G?$LM?v@ ; `string'
PUBLIC	??_C@_0L@OFFEDCHL@?$LB?b?$LA?$KD?$LF?n?$LG?t?$LH?$PM@ ; `string'
PUBLIC	??_C@_0P@HMJADPNA@?$MA?$PM?$LH?$KL?C?J?$LA?z?$LM?v?$MA?M?$LH?$PM@ ; `string'
PUBLIC	??_C@_06OEJMNFOB@?C?Q?$LK?$MA?$LM?v@		; `string'
PUBLIC	??_C@_0L@IJLGNGBO@?$LB?b?$LA?$KD?B?$PM?$LP?$KJ?$MA?$LC@ ; `string'
PUBLIC	??_C@_0N@PDNPFNDD@?F?r?$LB?U?$LI?E?$LI?E?$LK?$MA?$LM?v@ ; `string'
PUBLIC	??_C@_0P@JJNKLJJO@?$LA?G?$LK?$LA?F?r?$LB?U?$LM?v?$MA?M?$LH?$PM@ ; `string'
PUBLIC	??_C@_06HMHBOMDL@?C?Q?$MA?L?$MA?M@		; `string'
PUBLIC	??_C@_0N@JDICKLCG@?$LA?G?$LK?$LA?C?V?$LE?k?$MA?L?$MA?M@ ; `string'
PUBLIC	??_C@_0N@MIGBMLLP@?$LA?G?$LK?$LA?F?r?$LB?U?$MA?L?$MA?M@ ; `string'
PUBLIC	??_C@_0BB@NJCLLDAP@?$LJ?L?C?$LL?$LL?j?F?w?G?T?C?Q?C?$LL?$LL?j@ ; `string'
PUBLIC	??_C@_0L@LDAPEPIM@?$MA?L?$MA?M?$LI?E?$LI?E?$LM?v@ ; `string'
PUBLIC	??_C@_0BB@CGAEBIGF@?$MA?L?$MA?M?$LI?E?$LI?E?$MA?$LC?$CI?$LN?B?$LH?$PM?$CJ@ ; `string'
PUBLIC	??_C@_0P@KPEIILEB@?C?V?$LE?k?$LP?$KM?$LM?S?$MA?L?$MA?M?$LM?v@ ; `string'
PUBLIC	??_C@_0N@OAECDKHI@?C?V?$LE?k?$LP?$KM?$LM?S?$MA?L?$MA?M@ ; `string'
PUBLIC	??_C@_0N@KFPHCLNL@?$MA?L?$MA?M?$LI?E?$LI?E?$LK?$MA?$LM?v@ ; `string'
PUBLIC	??_C@_0N@FOGALCGL@?A?x?$MA?T?$LL?s?E?B?$LK?$MA?$LM?v@ ; `string'
PUBLIC	??_C@_0BB@KLAEHKOB@?$MA?L?$MA?M?$LI?E?$LI?E?F?r?$LB?U?$LK?$MA?$LM?v@ ; `string'
PUBLIC	??_C@_0BB@NADIPDBG@?G?v?$MA?g?F?w?A?v?$LM?G?$LM?v?$MA?M?$LH?$PM@ ; `string'
PUBLIC	??_C@_06MLIEOKGJ@?C?Q?$LM?U?$LN?G@		; `string'
PUBLIC	??_C@_0N@CEHHKNHE@?$LA?G?$LK?$LA?C?V?$LE?k?$LM?U?$LN?G@ ; `string'
PUBLIC	??_C@_0N@HPJEMNON@?$LA?G?$LK?$LA?F?r?$LB?U?$LM?U?$LN?G@ ; `string'
PUBLIC	??_C@_01CLKCMJKC@?5@				; `string'
PUBLIC	??_C@_0L@MKABNNA@?$LM?U?$LN?G?$LI?E?$LI?E?$LM?v@ ; `string'
PUBLIC	??_C@_0BB@DDLIPNDD@?$LM?U?$LN?G?$LI?E?$LI?E?$MA?$LC?$CI?F?P?$MA?$LC?$CJ@ ; `string'
PUBLIC	??_C@_0P@MOKGKGFH@?C?V?$LE?k?$LP?$KM?$LM?S?$LM?U?$LN?G?$LM?v@ ; `string'
PUBLIC	??_C@_0N@FHLHDMCK@?C?V?$LE?k?$LP?$KM?$LM?S?$LM?U?$LN?G@ ; `string'
PUBLIC	??_C@_0N@DGJMLGPE@?$LM?U?$LN?G?$LI?E?$LI?E?$LK?$MA?$LM?v@ ; `string'
PUBLIC	??_C@_0N@NCPIAFBM@?C?$LL?$LL?j?$LL?s?E?B?$LK?$MA?$LM?v@ ; `string'
PUBLIC	??_C@_0BB@EJJBJOLI@?$LM?U?$LN?G?$LI?E?$LI?E?F?r?$LB?U?$LK?$MA?$LM?v@ ; `string'
PUBLIC	??_C@_06NBGJEFCJ@?$CF?42f?$CF?$CF@		; `string'
PUBLIC	??_C@_04GEFJINEE@?$CF?42f@			; `string'
PUBLIC	??_C@_01FGNFDNOH@?$CF@				; `string'
PUBLIC	??_C@_0BE@MFEGIDEI@?2IndexOptimizer?4htm@	; `string'
PUBLIC	??_C@_0CH@KHGIOIFG@Do?5Not?5Create?5IndexOptimizer?4ht@ ; `string'
PUBLIC	??_C@_0O@NLCHHJFD@color?$DN?$CCwhite?$CC@	; `string'
PUBLIC	??_C@_0BI@NAAHMCJB@?2IndexOptimizerdata?4htm@	; `string'
PUBLIC	??_C@_0BJ@EJHFGNNM@Do?5Not?5Create?5Html?5File?4@ ; `string'
PUBLIC	??_C@_09NFLEOFMG@AccumProf@			; `string'
PUBLIC	??_C@_09NILGFMCM@AAverProf@			; `string'
PUBLIC	??_C@_0L@DKLCHHHE@CurPosRate@			; `string'
PUBLIC	??_C@_08NJIDJBMP@TotalSon@			; `string'
PUBLIC	??_C@_09NMLEAPDE@TotalProf@			; `string'
PUBLIC	??_C@_09DIJPGJPB@Totalloss@			; `string'
PUBLIC	??_C@_07EDCOJGIO@TotalPL@			; `string'
PUBLIC	??_C@_07GLPMNILH@MaxProf@			; `string'
PUBLIC	??_C@_07EOBGJBHG@MaxLoss@			; `string'
PUBLIC	??_C@_07EKDEEAMK@AverSon@			; `string'
PUBLIC	??_C@_08KMENEMGK@AverProf@			; `string'
PUBLIC	??_C@_08IJKHAFKL@AverLoss@			; `string'
PUBLIC	??_C@_08BNBOAJGA@TotalEnt@			; `string'
PUBLIC	??_C@_0N@FABGAHHD@NoCleanTotal@			; `string'
PUBLIC	??_C@_07LAKJMOME@NoClean@			; `string'
PUBLIC	??_C@_0L@EBCIDOBD@TotalTrade@			; `string'
PUBLIC	??_C@_09FKFKKEGM@ProfTrade@			; `string'
PUBLIC	??_C@_09CELFPHCB@LossTrade@			; `string'
PUBLIC	??_C@_04FIMJHFJE@PnLn@				; `string'
PUBLIC	??_C@_06FMGCNAHE@PTRate@			; `string'
PUBLIC	??_C@_06PMBMCGMO@LTRate@			; `string'
PUBLIC	??_C@_07KIBCMJAA@PrdSign@			; `string'
PUBLIC	??_C@_0M@KFAGDAGD@MaxConProfN@			; `string'
PUBLIC	??_C@_0M@EJEACIAM@MaxConLossN@			; `string'
PUBLIC	??_C@_09DABNGCCI@SOverRate@			; `string'
PUBLIC	??_C@_0L@JNOBGELA@MaxConProf@			; `string'
PUBLIC	??_C@_0L@LIALCNHB@MaxConLoss@			; `string'
PUBLIC	??_C@_0L@INBFOIOP@TotalStick@			; `string'
PUBLIC	??_C@_07BEJPFNDO@PTStick@			; `string'
PUBLIC	??_C@_07DPILHJFK@LTStick@			; `string'
PUBLIC	??_C@_08DOMHGIBC@PrdParty@			; `string'
PUBLIC	??_C@_0L@MKHNBNHL@EntryStick@			; `string'
PUBLIC	??_C@_0L@MNMLMFLP@CleanStick@			; `string'
PUBLIC	??_C@_07KEIOGMIL@ATStick@			; `string'
PUBLIC	??_C@_08FEEKGKBM@PTAStick@			; `string'
PUBLIC	??_C@_09KCCJCBOJ@PLTAStick@			; `string'
PUBLIC	??_C@_01GBGANLPD@0@				; `string'
PUBLIC	??_C@_01LFCBOECM@?4@				; `string'
PUBLIC	??_R4CDlgResult@@6B@				; CDlgResult::`RTTI Complete Object Locator'
PUBLIC	??_R0?AVCDlgResult@@@8				; CDlgResult `RTTI Type Descriptor'
PUBLIC	??_R3CDlgResult@@8				; CDlgResult::`RTTI Class Hierarchy Descriptor'
PUBLIC	??_R2CDlgResult@@8				; CDlgResult::`RTTI Base Class Array'
PUBLIC	??_R1A@?0A@EA@CDlgResult@@8			; CDlgResult::`RTTI Base Class Descriptor at (0,-1,0,64)'
PUBLIC	__real@0000000000000000
EXTRN	??_M@YGXPAXIIP6EX0@Z@Z:PROC			; `eh vector destructor iterator'
EXTRN	??3@YAXPAX@Z:PROC				; operator delete
EXTRN	?__global_delete@@YAXPAXI@Z:PROC		; __global_delete
EXTRN	__imp__SetFileAttributesA@8:PROC
EXTRN	__imp__CreateSolidBrush@4:PROC
EXTRN	__imp__RegisterWindowMessageA@4:PROC
EXTRN	__imp__SendMessageA@16:PROC
EXTRN	__imp__GetKeyState@4:PROC
EXTRN	__imp__EnableWindow@8:PROC
EXTRN	__imp__GetClientRect@8:PROC
EXTRN	__imp__GetParent@4:PROC
EXTRN	__imp____acrt_iob_func:PROC
EXTRN	__imp____stdio_common_vfprintf:PROC
EXTRN	__imp__atof:PROC
EXTRN	__imp_??A?$CSimpleStringT@D$00@ATL@@QBEDH@Z:PROC
EXTRN	__imp_?Empty@?$CSimpleStringT@D$00@ATL@@QAEXXZ:PROC
EXTRN	__imp_?Concatenate@?$CSimpleStringT@D$00@ATL@@KAXAAV12@PBDH1H@Z:PROC
EXTRN	__imp_??0?$CStringT@DV?$StrTraitMFC_DLL@DV?$ChTraitsCRT@D@ATL@@@@@ATL@@QAE@XZ:PROC
EXTRN	__imp_??0?$CStringT@DV?$StrTraitMFC_DLL@DV?$ChTraitsCRT@D@ATL@@@@@ATL@@QAE@PAUIAtlStringMgr@1@@Z:PROC
EXTRN	__imp_??0?$CStringT@DV?$StrTraitMFC_DLL@DV?$ChTraitsCRT@D@ATL@@@@@ATL@@QAE@ABV01@@Z:PROC
EXTRN	__imp_??0?$CStringT@DV?$StrTraitMFC_DLL@DV?$ChTraitsCRT@D@ATL@@@@@ATL@@QAE@PBD@Z:PROC
EXTRN	__imp_??1?$CStringT@DV?$StrTraitMFC_DLL@DV?$ChTraitsCRT@D@ATL@@@@@ATL@@QAE@XZ:PROC
EXTRN	__imp_??4?$CStringT@DV?$StrTraitMFC_DLL@DV?$ChTraitsCRT@D@ATL@@@@@ATL@@QAEAAV01@ABV01@@Z:PROC
EXTRN	__imp_??Y?$CStringT@DV?$StrTraitMFC_DLL@DV?$ChTraitsCRT@D@ATL@@@@@ATL@@QAEAAV01@ABV?$CSimpleStringT@D$00@1@@Z:PROC
EXTRN	__imp_??Y?$CStringT@DV?$StrTraitMFC_DLL@DV?$ChTraitsCRT@D@ATL@@@@@ATL@@QAEAAV01@D@Z:PROC
EXTRN	__imp_?GetManager@?$CStringT@DV?$StrTraitMFC_DLL@DV?$ChTraitsCRT@D@ATL@@@@@ATL@@QBEPAUIAtlStringMgr@2@XZ:PROC
EXTRN	__imp_?Compare@?$CStringT@DV?$StrTraitMFC_DLL@DV?$ChTraitsCRT@D@ATL@@@@@ATL@@QBEHPBD@Z:PROC
EXTRN	__imp_?Delete@?$CStringT@DV?$StrTraitMFC_DLL@DV?$ChTraitsCRT@D@ATL@@@@@ATL@@QAEHHH@Z:PROC
EXTRN	__imp_?Replace@?$CStringT@DV?$StrTraitMFC_DLL@DV?$ChTraitsCRT@D@ATL@@@@@ATL@@QAEHPBD0@Z:PROC
EXTRN	__imp_?Find@?$CStringT@DV?$StrTraitMFC_DLL@DV?$ChTraitsCRT@D@ATL@@@@@ATL@@QBEHPBDH@Z:PROC
EXTRN	__imp_?MakeReverse@?$CStringT@DV?$StrTraitMFC_DLL@DV?$ChTraitsCRT@D@ATL@@@@@ATL@@QAEAAV12@XZ:PROC
EXTRN	__imp_?TrimRight@?$CStringT@DV?$StrTraitMFC_DLL@DV?$ChTraitsCRT@D@ATL@@@@@ATL@@QAEAAV12@XZ:PROC
EXTRN	__imp_?TrimLeft@?$CStringT@DV?$StrTraitMFC_DLL@DV?$ChTraitsCRT@D@ATL@@@@@ATL@@QAEAAV12@XZ:PROC
EXTRN	__imp_?Mid@?$CStringT@DV?$StrTraitMFC_DLL@DV?$ChTraitsCRT@D@ATL@@@@@ATL@@QBE?AV12@H@Z:PROC
EXTRN	__imp_?Mid@?$CStringT@DV?$StrTraitMFC_DLL@DV?$ChTraitsCRT@D@ATL@@@@@ATL@@QBE?AV12@HH@Z:PROC
EXTRN	__imp_?Format@?$CStringT@DV?$StrTraitMFC_DLL@DV?$ChTraitsCRT@D@ATL@@@@@ATL@@QAAXPBDZZ:PROC
EXTRN	??0CStdioFile@@QAE@XZ:PROC			; CStdioFile::CStdioFile
EXTRN	?WriteString@CStdioFile@@UAEXPBD@Z:PROC		; CStdioFile::WriteString
EXTRN	?ReadString@CStdioFile@@UAEHAAV?$CStringT@DV?$StrTraitMFC_DLL@DV?$ChTraitsCRT@D@ATL@@@@@ATL@@@Z:PROC ; CStdioFile::ReadString
EXTRN	??1CStdioFile@@UAE@XZ:PROC			; CStdioFile::~CStdioFile
EXTRN	?Open@CStdioFile@@UAEHPBDIPAVCFileException@@@Z:PROC ; CStdioFile::Open
EXTRN	?Close@CStdioFile@@UAEXXZ:PROC			; CStdioFile::Close
EXTRN	?GetRuntimeClass@CGdiObject@@UBEPAUCRuntimeClass@@XZ:PROC ; CGdiObject::GetRuntimeClass
EXTRN	?Attach@CGdiObject@@QAEHPAX@Z:PROC		; CGdiObject::Attach
EXTRN	?DeleteObject@CGdiObject@@QAEHXZ:PROC		; CGdiObject::DeleteObject
EXTRN	??_ECGdiObject@@UAEPAXI@Z:PROC			; CGdiObject::`vector deleting destructor'
EXTRN	?GetRuntimeClass@CBrush@@UBEPAUCRuntimeClass@@XZ:PROC ; CBrush::GetRuntimeClass
EXTRN	??_ECBrush@@UAEPAXI@Z:PROC			; CBrush::`vector deleting destructor'
EXTRN	?IsInvokeAllowed@CCmdTarget@@UAEHJ@Z:PROC	; CCmdTarget::IsInvokeAllowed
EXTRN	?GetDispatchIID@CCmdTarget@@UAEHPAU_GUID@@@Z:PROC ; CCmdTarget::GetDispatchIID
EXTRN	?GetTypeInfoCount@CCmdTarget@@UAEIXZ:PROC	; CCmdTarget::GetTypeInfoCount
EXTRN	?GetTypeLibCache@CCmdTarget@@UAEPAVCTypeLibCache@@XZ:PROC ; CCmdTarget::GetTypeLibCache
EXTRN	?GetTypeLib@CCmdTarget@@UAEJKPAPAUITypeLib@@@Z:PROC ; CCmdTarget::GetTypeLib
EXTRN	?GetCommandMap@CCmdTarget@@MBEPBUAFX_OLECMDMAP@@XZ:PROC ; CCmdTarget::GetCommandMap
EXTRN	?GetDispatchMap@CCmdTarget@@MBEPBUAFX_DISPMAP@@XZ:PROC ; CCmdTarget::GetDispatchMap
EXTRN	?GetConnectionMap@CCmdTarget@@MBEPBUAFX_CONNECTIONMAP@@XZ:PROC ; CCmdTarget::GetConnectionMap
EXTRN	?GetEventSinkMap@CCmdTarget@@MBEPBUAFX_EVENTSINKMAP@@XZ:PROC ; CCmdTarget::GetEventSinkMap
EXTRN	?OnCreateAggregates@CCmdTarget@@UAEHXZ:PROC	; CCmdTarget::OnCreateAggregates
EXTRN	?GetInterfaceHook@CCmdTarget@@UAEPAUIUnknown@@PBX@Z:PROC ; CCmdTarget::GetInterfaceHook
EXTRN	?GetExtraConnectionPoints@CCmdTarget@@MAEHPAVCPtrArray@@@Z:PROC ; CCmdTarget::GetExtraConnectionPoints
EXTRN	?GetConnectionHook@CCmdTarget@@MAEPAUIConnectionPoint@@ABU_GUID@@@Z:PROC ; CCmdTarget::GetConnectionHook
EXTRN	?FromHandle@CWnd@@SGPAV1@PAUHWND__@@@Z:PROC	; CWnd::FromHandle
EXTRN	?PreSubclassWindow@CWnd@@UAEXXZ:PROC		; CWnd::PreSubclassWindow
EXTRN	?Create@CWnd@@UAEHPBD0KABUtagRECT@@PAV1@IPAUCCreateContext@@@Z:PROC ; CWnd::Create
EXTRN	?CreateEx@CWnd@@UAEHKPBD0KHHHHPAUHWND__@@PAUHMENU__@@PAX@Z:PROC ; CWnd::CreateEx
EXTRN	?CreateEx@CWnd@@UAEHKPBD0KABUtagRECT@@PAV1@IPAX@Z:PROC ; CWnd::CreateEx
EXTRN	?DestroyWindow@CWnd@@UAEHXZ:PROC		; CWnd::DestroyWindow
EXTRN	?PreCreateWindow@CWnd@@UAEHAAUtagCREATESTRUCTA@@@Z:PROC ; CWnd::PreCreateWindow
EXTRN	?CalcWindowRect@CWnd@@UAEXPAUtagRECT@@I@Z:PROC	; CWnd::CalcWindowRect
EXTRN	?GetMenu@CWnd@@UBEPAVCMenu@@XZ:PROC		; CWnd::GetMenu
EXTRN	?SetMenu@CWnd@@UAEHPAVCMenu@@@Z:PROC		; CWnd::SetMenu
EXTRN	?OnToolHitTest@CWnd@@UBEHVCPoint@@PAUtagTOOLINFOA@@@Z:PROC ; CWnd::OnToolHitTest
EXTRN	?GetScrollBarCtrl@CWnd@@UBEPAVCScrollBar@@H@Z:PROC ; CWnd::GetScrollBarCtrl
EXTRN	?WinHelpA@CWnd@@UAEXKI@Z:PROC			; CWnd::WinHelpA
EXTRN	?HtmlHelpA@CWnd@@UAEXKI@Z:PROC			; CWnd::HtmlHelpA
EXTRN	?WinHelpInternal@CWnd@@UAEXKI@Z:PROC		; CWnd::WinHelpInternal
EXTRN	?ContinueModal@CWnd@@UAEHXZ:PROC		; CWnd::ContinueModal
EXTRN	?EndModalLoop@CWnd@@UAEXH@Z:PROC		; CWnd::EndModalLoop
EXTRN	?OnDrawIconicThumbnailOrLivePreview@CWnd@@UAEXAAVCDC@@VCRect@@VCSize@@HAAH@Z:PROC ; CWnd::OnDrawIconicThumbnailOrLivePreview
EXTRN	?GetInterfaceMap@CWnd@@MBEPBUAFX_INTERFACEMAP@@XZ:PROC ; CWnd::GetInterfaceMap
EXTRN	?EnsureStdObj@CWnd@@UAEJXZ:PROC			; CWnd::EnsureStdObj
EXTRN	?get_accParent@CWnd@@UAEJPAPAUIDispatch@@@Z:PROC ; CWnd::get_accParent
EXTRN	?get_accChildCount@CWnd@@UAEJPAJ@Z:PROC		; CWnd::get_accChildCount
EXTRN	?get_accChild@CWnd@@UAEJUtagVARIANT@@PAPAUIDispatch@@@Z:PROC ; CWnd::get_accChild
EXTRN	?get_accName@CWnd@@UAEJUtagVARIANT@@PAPA_W@Z:PROC ; CWnd::get_accName
EXTRN	?get_accValue@CWnd@@UAEJUtagVARIANT@@PAPA_W@Z:PROC ; CWnd::get_accValue
EXTRN	?get_accDescription@CWnd@@UAEJUtagVARIANT@@PAPA_W@Z:PROC ; CWnd::get_accDescription
EXTRN	?get_accRole@CWnd@@UAEJUtagVARIANT@@PAU2@@Z:PROC ; CWnd::get_accRole
EXTRN	?get_accState@CWnd@@UAEJUtagVARIANT@@PAU2@@Z:PROC ; CWnd::get_accState
EXTRN	?get_accHelp@CWnd@@UAEJUtagVARIANT@@PAPA_W@Z:PROC ; CWnd::get_accHelp
EXTRN	?get_accHelpTopic@CWnd@@UAEJPAPA_WUtagVARIANT@@PAJ@Z:PROC ; CWnd::get_accHelpTopic
EXTRN	?get_accKeyboardShortcut@CWnd@@UAEJUtagVARIANT@@PAPA_W@Z:PROC ; CWnd::get_accKeyboardShortcut
EXTRN	?get_accFocus@CWnd@@UAEJPAUtagVARIANT@@@Z:PROC	; CWnd::get_accFocus
EXTRN	?get_accSelection@CWnd@@UAEJPAUtagVARIANT@@@Z:PROC ; CWnd::get_accSelection
EXTRN	?get_accDefaultAction@CWnd@@UAEJUtagVARIANT@@PAPA_W@Z:PROC ; CWnd::get_accDefaultAction
EXTRN	?accSelect@CWnd@@UAEJJUtagVARIANT@@@Z:PROC	; CWnd::accSelect
EXTRN	?accLocation@CWnd@@UAEJPAJ000UtagVARIANT@@@Z:PROC ; CWnd::accLocation
EXTRN	?accNavigate@CWnd@@UAEJJUtagVARIANT@@PAU2@@Z:PROC ; CWnd::accNavigate
EXTRN	?accHitTest@CWnd@@UAEJJJPAUtagVARIANT@@@Z:PROC	; CWnd::accHitTest
EXTRN	?accDoDefaultAction@CWnd@@UAEJUtagVARIANT@@@Z:PROC ; CWnd::accDoDefaultAction
EXTRN	?put_accName@CWnd@@UAEJUtagVARIANT@@PA_W@Z:PROC	; CWnd::put_accName
EXTRN	?put_accValue@CWnd@@UAEJUtagVARIANT@@PA_W@Z:PROC ; CWnd::put_accValue
EXTRN	?SetProxy@CWnd@@UAEJPAUIAccessibleProxy@@@Z:PROC ; CWnd::SetProxy
EXTRN	?CreateAccessibleProxy@CWnd@@UAEJIJPAJ@Z:PROC	; CWnd::CreateAccessibleProxy
EXTRN	?OnCommand@CWnd@@MAEHIJ@Z:PROC			; CWnd::OnCommand
EXTRN	?OnNotify@CWnd@@MAEHIJPAJ@Z:PROC		; CWnd::OnNotify
EXTRN	?OnCtlColor@CWnd@@IAEPAUHBRUSH__@@PAVCDC@@PAV1@I@Z:PROC ; CWnd::OnCtlColor
EXTRN	?OnDestroy@CWnd@@IAEXXZ:PROC			; CWnd::OnDestroy
EXTRN	?GetSuperWndProcAddr@CWnd@@MAEPAP6GJPAUHWND__@@IIJ@ZXZ:PROC ; CWnd::GetSuperWndProcAddr
EXTRN	?OnAmbientProperty@CWnd@@UAEHPAVCOleControlSite@@JPAUtagVARIANT@@@Z:PROC ; CWnd::OnAmbientProperty
EXTRN	?WindowProc@CWnd@@MAEJIIJ@Z:PROC		; CWnd::WindowProc
EXTRN	?OnWndMsg@CWnd@@MAEHIIJPAJ@Z:PROC		; CWnd::OnWndMsg
EXTRN	?DefWindowProcA@CWnd@@MAEJIIJ@Z:PROC		; CWnd::DefWindowProcA
EXTRN	?PostNcDestroy@CWnd@@MAEXXZ:PROC		; CWnd::PostNcDestroy
EXTRN	?OnChildNotify@CWnd@@MAEHIIJPAJ@Z:PROC		; CWnd::OnChildNotify
EXTRN	?OnTouchInputs@CWnd@@MAEHIPAUtagTOUCHINPUT@@@Z:PROC ; CWnd::OnTouchInputs
EXTRN	?OnTouchInput@CWnd@@MAEHVCPoint@@HHPAUtagTOUCHINPUT@@@Z:PROC ; CWnd::OnTouchInput
EXTRN	?GetGestureStatus@CWnd@@MAEKVCPoint@@@Z:PROC	; CWnd::GetGestureStatus
EXTRN	?OnGestureZoom@CWnd@@MAEHVCPoint@@J@Z:PROC	; CWnd::OnGestureZoom
EXTRN	?OnGesturePan@CWnd@@MAEHVCPoint@@0@Z:PROC	; CWnd::OnGesturePan
EXTRN	?OnGestureRotate@CWnd@@MAEHVCPoint@@N@Z:PROC	; CWnd::OnGestureRotate
EXTRN	?OnGestureTwoFingerTap@CWnd@@MAEHVCPoint@@@Z:PROC ; CWnd::OnGestureTwoFingerTap
EXTRN	?OnGesturePressAndTap@CWnd@@MAEHVCPoint@@J@Z:PROC ; CWnd::OnGesturePressAndTap
EXTRN	?ResizeDynamicLayout@CWnd@@MAEXXZ:PROC		; CWnd::ResizeDynamicLayout
EXTRN	?IsFrameWnd@CWnd@@UBEHXZ:PROC			; CWnd::IsFrameWnd
EXTRN	?OnFinalRelease@CWnd@@UAEXXZ:PROC		; CWnd::OnFinalRelease
EXTRN	?CreateControlContainer@CWnd@@MAEHPAPAVCOleControlContainer@@@Z:PROC ; CWnd::CreateControlContainer
EXTRN	?CreateControlSite@CWnd@@MAEHPAVCOleControlContainer@@PAPAVCOleControlSite@@IABU_GUID@@@Z:PROC ; CWnd::CreateControlSite
EXTRN	?GetRuntimeClass@CDialog@@UBEPAUCRuntimeClass@@XZ:PROC ; CDialog::GetRuntimeClass
EXTRN	?Create@CDialog@@UAEHPBDPAVCWnd@@@Z:PROC	; CDialog::Create
EXTRN	?CreateIndirect@CDialog@@UAEHPBUDLGTEMPLATE@@PAVCWnd@@PAX@Z:PROC ; CDialog::CreateIndirect
EXTRN	?CreateIndirect@CDialog@@UAEHPAXPAVCWnd@@@Z:PROC ; CDialog::CreateIndirect
EXTRN	??0CDialog@@QAE@IPAVCWnd@@@Z:PROC		; CDialog::CDialog
EXTRN	?DoModal@CDialog@@UAEHXZ:PROC			; CDialog::DoModal
EXTRN	?OnInitDialog@CDialog@@UAEHXZ:PROC		; CDialog::OnInitDialog
EXTRN	?OnSetFont@CDialog@@UAEXPAVCFont@@@Z:PROC	; CDialog::OnSetFont
EXTRN	?OnOK@CDialog@@MAEXXZ:PROC			; CDialog::OnOK
EXTRN	?OnCancel@CDialog@@MAEXXZ:PROC			; CDialog::OnCancel
EXTRN	??1CDialog@@UAE@XZ:PROC				; CDialog::~CDialog
EXTRN	?PreTranslateMessage@CDialog@@UAEHPAUtagMSG@@@Z:PROC ; CDialog::PreTranslateMessage
EXTRN	?OnCmdMsg@CDialog@@UAEHIHPAXPAUAFX_CMDHANDLERINFO@@@Z:PROC ; CDialog::OnCmdMsg
EXTRN	?CheckAutoCenter@CDialog@@UAEHXZ:PROC		; CDialog::CheckAutoCenter
EXTRN	?SetOccDialogInfo@CDialog@@MAEHPAU_AFX_OCC_DIALOG_INFO@@@Z:PROC ; CDialog::SetOccDialogInfo
EXTRN	?GetOccDialogInfo@CDialog@@MAEPAU_AFX_OCC_DIALOG_INFO@@XZ:PROC ; CDialog::GetOccDialogInfo
EXTRN	?PreInitDialog@CDialog@@MAEXXZ:PROC		; CDialog::PreInitDialog
EXTRN	?GetThisMessageMap@CDialog@@KGPBUAFX_MSGMAP@@XZ:PROC ; CDialog::GetThisMessageMap
EXTRN	?GetMessageMap@CDialog@@MBEPBUAFX_MSGMAP@@XZ:PROC ; CDialog::GetMessageMap
EXTRN	?AfxMessageBox@@YGHPBDII@Z:PROC			; AfxMessageBox
EXTRN	??_ECEscDialog@@UAEPAXI@Z:PROC			; CEscDialog::`vector deleting destructor'
EXTRN	??0CGridCtrl@@QAE@HHHH@Z:PROC			; CGridCtrl::CGridCtrl
EXTRN	?Create@CGridCtrl@@QAEHABUtagRECT@@PAVCWnd@@IK@Z:PROC ; CGridCtrl::Create
EXTRN	?SetRowCount@CGridCtrl@@QAEHH@Z:PROC		; CGridCtrl::SetRowCount
EXTRN	?SetColumnCount@CGridCtrl@@QAEHH@Z:PROC		; CGridCtrl::SetColumnCount
EXTRN	?SetRowHeight@CGridCtrl@@QAEHHH@Z:PROC		; CGridCtrl::SetRowHeight
EXTRN	?SetColumnWidth@CGridCtrl@@QAEHHH@Z:PROC	; CGridCtrl::SetColumnWidth
EXTRN	?SetItemText@CGridCtrl@@QAEHHHPBDK@Z:PROC	; CGridCtrl::SetItemText
EXTRN	?SetItemText@CGridCtrl@@QAEHHHPBD@Z:PROC	; CGridCtrl::SetItemText
EXTRN	?SetItemBkColour@CGridCtrl@@QAEHHHK@Z:PROC	; CGridCtrl::SetItemBkColour
EXTRN	?ExpandColumnsToFit@CGridCtrl@@QAEXH@Z:PROC	; CGridCtrl::ExpandColumnsToFit
EXTRN	?Refresh@CGridCtrl@@QAEXXZ:PROC			; CGridCtrl::Refresh
EXTRN	??1CGridCtrl@@UAE@XZ:PROC			; CGridCtrl::~CGridCtrl
EXTRN	??_ECDlgResult@@UAEPAXI@Z:PROC			; CDlgResult::`vector deleting destructor'
EXTRN	@__security_check_cookie@4:PROC
EXTRN	___CxxFrameHandler3:PROC
EXTRN	??_7type_info@@6B@:QWORD			; type_info::`vftable'
EXTRN	___security_cookie:DWORD
EXTRN	__fltused:DWORD
;	COMDAT ?_OptionsStorage@?1??__local_stdio_printf_options@@9@4_KA
_BSS	SEGMENT
?_OptionsStorage@?1??__local_stdio_printf_options@@9@4_KA DQ 01H DUP (?) ; `__local_stdio_printf_options'::`2'::_OptionsStorage
_BSS	ENDS
_BSS	SEGMENT
?RMSG_STTREE_ITEMCLICK@@3IB DD 01H DUP (?)		; RMSG_STTREE_ITEMCLICK
?RMSG_STTREE_ITEMDBLCLK@@3IB DD 01H DUP (?)		; RMSG_STTREE_ITEMDBLCLK
_BSS	ENDS
CRT$XCU	SEGMENT
?RMSG_STTREE_ITEMCLICK$initializer$@@3P6AXXZA DD FLAT:??__ERMSG_STTREE_ITEMCLICK@@YAXXZ ; RMSG_STTREE_ITEMCLICK$initializer$
CRT$XCU	ENDS
;	COMDAT __real@0000000000000000
CONST	SEGMENT
__real@0000000000000000 DQ 00000000000000000r	; 0
CONST	ENDS
;	COMDAT ??_R1A@?0A@EA@CDlgResult@@8
rdata$r	SEGMENT
??_R1A@?0A@EA@CDlgResult@@8 DD FLAT:??_R0?AVCDlgResult@@@8 ; CDlgResult::`RTTI Base Class Descriptor at (0,-1,0,64)'
	DD	05H
	DD	00H
	DD	0ffffffffH
	DD	00H
	DD	040H
	DD	FLAT:??_R3CDlgResult@@8
rdata$r	ENDS
;	COMDAT ??_R2CDlgResult@@8
rdata$r	SEGMENT
??_R2CDlgResult@@8 DD FLAT:??_R1A@?0A@EA@CDlgResult@@8	; CDlgResult::`RTTI Base Class Array'
	DD	FLAT:??_R1A@?0A@EA@CEscDialog@@8
	DD	FLAT:??_R1A@?0A@EA@CDialog@@8
	DD	FLAT:??_R1A@?0A@EA@CWnd@@8
	DD	FLAT:??_R1A@?0A@EA@CCmdTarget@@8
	DD	FLAT:??_R1A@?0A@EA@CObject@@8
rdata$r	ENDS
;	COMDAT ??_R3CDlgResult@@8
rdata$r	SEGMENT
??_R3CDlgResult@@8 DD 00H				; CDlgResult::`RTTI Class Hierarchy Descriptor'
	DD	00H
	DD	06H
	DD	FLAT:??_R2CDlgResult@@8
rdata$r	ENDS
;	COMDAT ??_R0?AVCDlgResult@@@8
data$rs	SEGMENT
??_R0?AVCDlgResult@@@8 DD FLAT:??_7type_info@@6B@	; CDlgResult `RTTI Type Descriptor'
	DD	00H
	DB	'.?AVCDlgResult@@', 00H
data$rs	ENDS
;	COMDAT ??_R4CDlgResult@@6B@
rdata$r	SEGMENT
??_R4CDlgResult@@6B@ DD 00H				; CDlgResult::`RTTI Complete Object Locator'
	DD	00H
	DD	00H
	DD	FLAT:??_R0?AVCDlgResult@@@8
	DD	FLAT:??_R3CDlgResult@@8
rdata$r	ENDS
;	COMDAT ??_C@_01LFCBOECM@?4@
CONST	SEGMENT
??_C@_01LFCBOECM@?4@ DB '.', 00H			; `string'
CONST	ENDS
;	COMDAT ??_C@_01GBGANLPD@0@
CONST	SEGMENT
??_C@_01GBGANLPD@0@ DB '0', 00H				; `string'
CONST	ENDS
;	COMDAT ??_C@_09KCCJCBOJ@PLTAStick@
CONST	SEGMENT
??_C@_09KCCJCBOJ@PLTAStick@ DB 'PLTAStick', 00H		; `string'
CONST	ENDS
;	COMDAT ??_C@_08FEEKGKBM@PTAStick@
CONST	SEGMENT
??_C@_08FEEKGKBM@PTAStick@ DB 'PTAStick', 00H		; `string'
CONST	ENDS
;	COMDAT ??_C@_07KEIOGMIL@ATStick@
CONST	SEGMENT
??_C@_07KEIOGMIL@ATStick@ DB 'ATStick', 00H		; `string'
CONST	ENDS
;	COMDAT ??_C@_0L@MNMLMFLP@CleanStick@
CONST	SEGMENT
??_C@_0L@MNMLMFLP@CleanStick@ DB 'CleanStick', 00H	; `string'
CONST	ENDS
;	COMDAT ??_C@_0L@MKHNBNHL@EntryStick@
CONST	SEGMENT
??_C@_0L@MKHNBNHL@EntryStick@ DB 'EntryStick', 00H	; `string'
CONST	ENDS
;	COMDAT ??_C@_08DOMHGIBC@PrdParty@
CONST	SEGMENT
??_C@_08DOMHGIBC@PrdParty@ DB 'PrdParty', 00H		; `string'
CONST	ENDS
;	COMDAT ??_C@_07DPILHJFK@LTStick@
CONST	SEGMENT
??_C@_07DPILHJFK@LTStick@ DB 'LTStick', 00H		; `string'
CONST	ENDS
;	COMDAT ??_C@_07BEJPFNDO@PTStick@
CONST	SEGMENT
??_C@_07BEJPFNDO@PTStick@ DB 'PTStick', 00H		; `string'
CONST	ENDS
;	COMDAT ??_C@_0L@INBFOIOP@TotalStick@
CONST	SEGMENT
??_C@_0L@INBFOIOP@TotalStick@ DB 'TotalStick', 00H	; `string'
CONST	ENDS
;	COMDAT ??_C@_0L@LIALCNHB@MaxConLoss@
CONST	SEGMENT
??_C@_0L@LIALCNHB@MaxConLoss@ DB 'MaxConLoss', 00H	; `string'
CONST	ENDS
;	COMDAT ??_C@_0L@JNOBGELA@MaxConProf@
CONST	SEGMENT
??_C@_0L@JNOBGELA@MaxConProf@ DB 'MaxConProf', 00H	; `string'
CONST	ENDS
;	COMDAT ??_C@_09DABNGCCI@SOverRate@
CONST	SEGMENT
??_C@_09DABNGCCI@SOverRate@ DB 'SOverRate', 00H		; `string'
CONST	ENDS
;	COMDAT ??_C@_0M@EJEACIAM@MaxConLossN@
CONST	SEGMENT
??_C@_0M@EJEACIAM@MaxConLossN@ DB 'MaxConLossN', 00H	; `string'
CONST	ENDS
;	COMDAT ??_C@_0M@KFAGDAGD@MaxConProfN@
CONST	SEGMENT
??_C@_0M@KFAGDAGD@MaxConProfN@ DB 'MaxConProfN', 00H	; `string'
CONST	ENDS
;	COMDAT ??_C@_07KIBCMJAA@PrdSign@
CONST	SEGMENT
??_C@_07KIBCMJAA@PrdSign@ DB 'PrdSign', 00H		; `string'
CONST	ENDS
;	COMDAT ??_C@_06PMBMCGMO@LTRate@
CONST	SEGMENT
??_C@_06PMBMCGMO@LTRate@ DB 'LTRate', 00H		; `string'
CONST	ENDS
;	COMDAT ??_C@_06FMGCNAHE@PTRate@
CONST	SEGMENT
??_C@_06FMGCNAHE@PTRate@ DB 'PTRate', 00H		; `string'
CONST	ENDS
;	COMDAT ??_C@_04FIMJHFJE@PnLn@
CONST	SEGMENT
??_C@_04FIMJHFJE@PnLn@ DB 'PnLn', 00H			; `string'
CONST	ENDS
;	COMDAT ??_C@_09CELFPHCB@LossTrade@
CONST	SEGMENT
??_C@_09CELFPHCB@LossTrade@ DB 'LossTrade', 00H		; `string'
CONST	ENDS
;	COMDAT ??_C@_09FKFKKEGM@ProfTrade@
CONST	SEGMENT
??_C@_09FKFKKEGM@ProfTrade@ DB 'ProfTrade', 00H		; `string'
CONST	ENDS
;	COMDAT ??_C@_0L@EBCIDOBD@TotalTrade@
CONST	SEGMENT
??_C@_0L@EBCIDOBD@TotalTrade@ DB 'TotalTrade', 00H	; `string'
CONST	ENDS
;	COMDAT ??_C@_07LAKJMOME@NoClean@
CONST	SEGMENT
??_C@_07LAKJMOME@NoClean@ DB 'NoClean', 00H		; `string'
CONST	ENDS
;	COMDAT ??_C@_0N@FABGAHHD@NoCleanTotal@
CONST	SEGMENT
??_C@_0N@FABGAHHD@NoCleanTotal@ DB 'NoCleanTotal', 00H	; `string'
CONST	ENDS
;	COMDAT ??_C@_08BNBOAJGA@TotalEnt@
CONST	SEGMENT
??_C@_08BNBOAJGA@TotalEnt@ DB 'TotalEnt', 00H		; `string'
CONST	ENDS
;	COMDAT ??_C@_08IJKHAFKL@AverLoss@
CONST	SEGMENT
??_C@_08IJKHAFKL@AverLoss@ DB 'AverLoss', 00H		; `string'
CONST	ENDS
;	COMDAT ??_C@_08KMENEMGK@AverProf@
CONST	SEGMENT
??_C@_08KMENEMGK@AverProf@ DB 'AverProf', 00H		; `string'
CONST	ENDS
;	COMDAT ??_C@_07EKDEEAMK@AverSon@
CONST	SEGMENT
??_C@_07EKDEEAMK@AverSon@ DB 'AverSon', 00H		; `string'
CONST	ENDS
;	COMDAT ??_C@_07EOBGJBHG@MaxLoss@
CONST	SEGMENT
??_C@_07EOBGJBHG@MaxLoss@ DB 'MaxLoss', 00H		; `string'
CONST	ENDS
;	COMDAT ??_C@_07GLPMNILH@MaxProf@
CONST	SEGMENT
??_C@_07GLPMNILH@MaxProf@ DB 'MaxProf', 00H		; `string'
CONST	ENDS
;	COMDAT ??_C@_07EDCOJGIO@TotalPL@
CONST	SEGMENT
??_C@_07EDCOJGIO@TotalPL@ DB 'TotalPL', 00H		; `string'
CONST	ENDS
;	COMDAT ??_C@_09DIJPGJPB@Totalloss@
CONST	SEGMENT
??_C@_09DIJPGJPB@Totalloss@ DB 'Totalloss', 00H		; `string'
CONST	ENDS
;	COMDAT ??_C@_09NMLEAPDE@TotalProf@
CONST	SEGMENT
??_C@_09NMLEAPDE@TotalProf@ DB 'TotalProf', 00H		; `string'
CONST	ENDS
;	COMDAT ??_C@_08NJIDJBMP@TotalSon@
CONST	SEGMENT
??_C@_08NJIDJBMP@TotalSon@ DB 'TotalSon', 00H		; `string'
CONST	ENDS
;	COMDAT ??_C@_0L@DKLCHHHE@CurPosRate@
CONST	SEGMENT
??_C@_0L@DKLCHHHE@CurPosRate@ DB 'CurPosRate', 00H	; `string'
CONST	ENDS
;	COMDAT ??_C@_09NILGFMCM@AAverProf@
CONST	SEGMENT
??_C@_09NILGFMCM@AAverProf@ DB 'AAverProf', 00H		; `string'
CONST	ENDS
;	COMDAT ??_C@_09NFLEOFMG@AccumProf@
CONST	SEGMENT
??_C@_09NFLEOFMG@AccumProf@ DB 'AccumProf', 00H		; `string'
CONST	ENDS
;	COMDAT ??_C@_0BJ@EJHFGNNM@Do?5Not?5Create?5Html?5File?4@
CONST	SEGMENT
??_C@_0BJ@EJHFGNNM@Do?5Not?5Create?5Html?5File?4@ DB 'Do Not Create Html '
	DB	'File.', 00H					; `string'
CONST	ENDS
;	COMDAT ??_C@_0BI@NAAHMCJB@?2IndexOptimizerdata?4htm@
CONST	SEGMENT
??_C@_0BI@NAAHMCJB@?2IndexOptimizerdata?4htm@ DB '\IndexOptimizerdata.htm'
	DB	00H						; `string'
CONST	ENDS
;	COMDAT ??_C@_0O@NLCHHJFD@color?$DN?$CCwhite?$CC@
CONST	SEGMENT
??_C@_0O@NLCHHJFD@color?$DN?$CCwhite?$CC@ DB 'color="white"', 00H ; `string'
CONST	ENDS
;	COMDAT ??_C@_0CH@KHGIOIFG@Do?5Not?5Create?5IndexOptimizer?4ht@
CONST	SEGMENT
??_C@_0CH@KHGIOIFG@Do?5Not?5Create?5IndexOptimizer?4ht@ DB 'Do Not Create'
	DB	' IndexOptimizer.htm File.', 00H		; `string'
CONST	ENDS
;	COMDAT ??_C@_0BE@MFEGIDEI@?2IndexOptimizer?4htm@
CONST	SEGMENT
??_C@_0BE@MFEGIDEI@?2IndexOptimizer?4htm@ DB '\IndexOptimizer.htm', 00H ; `string'
CONST	ENDS
;	COMDAT ??_C@_01FGNFDNOH@?$CF@
CONST	SEGMENT
??_C@_01FGNFDNOH@?$CF@ DB '%', 00H			; `string'
CONST	ENDS
;	COMDAT ??_C@_04GEFJINEE@?$CF?42f@
CONST	SEGMENT
??_C@_04GEFJINEE@?$CF?42f@ DB '%.2f', 00H		; `string'
CONST	ENDS
;	COMDAT ??_C@_06NBGJEFCJ@?$CF?42f?$CF?$CF@
CONST	SEGMENT
??_C@_06NBGJEFCJ@?$CF?42f?$CF?$CF@ DB '%.2f%%', 00H	; `string'
CONST	ENDS
;	COMDAT ??_C@_0BB@EJJBJOLI@?$LM?U?$LN?G?$LI?E?$LI?E?F?r?$LB?U?$LK?$MA?$LM?v@
CONST	SEGMENT
??_C@_0BB@EJJBJOLI@?$LM?U?$LN?G?$LI?E?$LI?E?F?r?$LB?U?$LK?$MA?$LM?v@ DB 0bcH
	DB	0d5H, 0bdH, 0c7H, 0b8H, 0c5H, 0b8H, 0c5H, 0c6H, 0f2H, 0b1H, 0d5H
	DB	0baH, 0c0H, 0bcH, 0f6H, 00H			; `string'
CONST	ENDS
;	COMDAT ??_C@_0N@NCPIAFBM@?C?$LL?$LL?j?$LL?s?E?B?$LK?$MA?$LM?v@
CONST	SEGMENT
??_C@_0N@NCPIAFBM@?C?$LL?$LL?j?$LL?s?E?B?$LK?$MA?$LM?v@ DB 0c3H, 0bbH, 0bbH
	DB	0eaH, 0bbH, 0f3H, 0c5H, 0c2H, 0baH, 0c0H, 0bcH, 0f6H, 00H ; `string'
CONST	ENDS
;	COMDAT ??_C@_0N@DGJMLGPE@?$LM?U?$LN?G?$LI?E?$LI?E?$LK?$MA?$LM?v@
CONST	SEGMENT
??_C@_0N@DGJMLGPE@?$LM?U?$LN?G?$LI?E?$LI?E?$LK?$MA?$LM?v@ DB 0bcH, 0d5H, 0bdH
	DB	0c7H, 0b8H, 0c5H, 0b8H, 0c5H, 0baH, 0c0H, 0bcH, 0f6H, 00H ; `string'
CONST	ENDS
;	COMDAT ??_C@_0N@FHLHDMCK@?C?V?$LE?k?$LP?$KM?$LM?S?$LM?U?$LN?G@
CONST	SEGMENT
??_C@_0N@FHLHDMCK@?C?V?$LE?k?$LP?$KM?$LM?S?$LM?U?$LN?G@ DB 0c3H, 0d6H, 0b4H
	DB	0ebH, 0bfH, 0acH, 0bcH, 0d3H, 0bcH, 0d5H, 0bdH, 0c7H, 00H ; `string'
CONST	ENDS
;	COMDAT ??_C@_0P@MOKGKGFH@?C?V?$LE?k?$LP?$KM?$LM?S?$LM?U?$LN?G?$LM?v@
CONST	SEGMENT
??_C@_0P@MOKGKGFH@?C?V?$LE?k?$LP?$KM?$LM?S?$LM?U?$LN?G?$LM?v@ DB 0c3H, 0d6H
	DB	0b4H, 0ebH, 0bfH, 0acH, 0bcH, 0d3H, 0bcH, 0d5H, 0bdH, 0c7H, 0bcH
	DB	0f6H, 00H					; `string'
CONST	ENDS
;	COMDAT ??_C@_0BB@DDLIPNDD@?$LM?U?$LN?G?$LI?E?$LI?E?$MA?$LC?$CI?F?P?$MA?$LC?$CJ@
CONST	SEGMENT
??_C@_0BB@DDLIPNDD@?$LM?U?$LN?G?$LI?E?$LI?E?$MA?$LC?$CI?F?P?$MA?$LC?$CJ@ DB 0bcH
	DB	0d5H, 0bdH, 0c7H, 0b8H, 0c5H, 0b8H, 0c5H, 0c0H, 0b2H, '(', 0c6H
	DB	0d0H, 0c0H, 0b2H, ')', 00H			; `string'
CONST	ENDS
;	COMDAT ??_C@_0L@MKABNNA@?$LM?U?$LN?G?$LI?E?$LI?E?$LM?v@
CONST	SEGMENT
??_C@_0L@MKABNNA@?$LM?U?$LN?G?$LI?E?$LI?E?$LM?v@ DB 0bcH, 0d5H, 0bdH, 0c7H
	DB	0b8H, 0c5H, 0b8H, 0c5H, 0bcH, 0f6H, 00H	; `string'
CONST	ENDS
;	COMDAT ??_C@_01CLKCMJKC@?5@
CONST	SEGMENT
??_C@_01CLKCMJKC@?5@ DB ' ', 00H			; `string'
CONST	ENDS
;	COMDAT ??_C@_0N@HPJEMNON@?$LA?G?$LK?$LA?F?r?$LB?U?$LM?U?$LN?G@
CONST	SEGMENT
??_C@_0N@HPJEMNON@?$LA?G?$LK?$LA?F?r?$LB?U?$LM?U?$LN?G@ DB 0b0H, 0c7H, 0baH
	DB	0b0H, 0c6H, 0f2H, 0b1H, 0d5H, 0bcH, 0d5H, 0bdH, 0c7H, 00H ; `string'
CONST	ENDS
;	COMDAT ??_C@_0N@CEHHKNHE@?$LA?G?$LK?$LA?C?V?$LE?k?$LM?U?$LN?G@
CONST	SEGMENT
??_C@_0N@CEHHKNHE@?$LA?G?$LK?$LA?C?V?$LE?k?$LM?U?$LN?G@ DB 0b0H, 0c7H, 0baH
	DB	0b0H, 0c3H, 0d6H, 0b4H, 0ebH, 0bcH, 0d5H, 0bdH, 0c7H, 00H ; `string'
CONST	ENDS
;	COMDAT ??_C@_06MLIEOKGJ@?C?Q?$LM?U?$LN?G@
CONST	SEGMENT
??_C@_06MLIEOKGJ@?C?Q?$LM?U?$LN?G@ DB 0c3H, 0d1H, 0bcH, 0d5H, 0bdH, 0c7H, 00H ; `string'
CONST	ENDS
;	COMDAT ??_C@_0BB@NADIPDBG@?G?v?$MA?g?F?w?A?v?$LM?G?$LM?v?$MA?M?$LH?$PM@
CONST	SEGMENT
??_C@_0BB@NADIPDBG@?G?v?$MA?g?F?w?A?v?$LM?G?$LM?v?$MA?M?$LH?$PM@ DB 0c7H, 0f6H
	DB	0c0H, 0e7H, 0c6H, 0f7H, 0c1H, 0f6H, 0bcH, 0c7H, 0bcH, 0f6H, 0c0H
	DB	0cdH, 0b7H, 0fcH, 00H			; `string'
CONST	ENDS
;	COMDAT ??_C@_0BB@KLAEHKOB@?$MA?L?$MA?M?$LI?E?$LI?E?F?r?$LB?U?$LK?$MA?$LM?v@
CONST	SEGMENT
??_C@_0BB@KLAEHKOB@?$MA?L?$MA?M?$LI?E?$LI?E?F?r?$LB?U?$LK?$MA?$LM?v@ DB 0c0H
	DB	0ccH, 0c0H, 0cdH, 0b8H, 0c5H, 0b8H, 0c5H, 0c6H, 0f2H, 0b1H, 0d5H
	DB	0baH, 0c0H, 0bcH, 0f6H, 00H			; `string'
CONST	ENDS
;	COMDAT ??_C@_0N@FOGALCGL@?A?x?$MA?T?$LL?s?E?B?$LK?$MA?$LM?v@
CONST	SEGMENT
??_C@_0N@FOGALCGL@?A?x?$MA?T?$LL?s?E?B?$LK?$MA?$LM?v@ DB 0c1H, 0f8H, 0c0H
	DB	0d4H, 0bbH, 0f3H, 0c5H, 0c2H, 0baH, 0c0H, 0bcH, 0f6H, 00H ; `string'
CONST	ENDS
;	COMDAT ??_C@_0N@KFPHCLNL@?$MA?L?$MA?M?$LI?E?$LI?E?$LK?$MA?$LM?v@
CONST	SEGMENT
??_C@_0N@KFPHCLNL@?$MA?L?$MA?M?$LI?E?$LI?E?$LK?$MA?$LM?v@ DB 0c0H, 0ccH, 0c0H
	DB	0cdH, 0b8H, 0c5H, 0b8H, 0c5H, 0baH, 0c0H, 0bcH, 0f6H, 00H ; `string'
CONST	ENDS
;	COMDAT ??_C@_0N@OAECDKHI@?C?V?$LE?k?$LP?$KM?$LM?S?$MA?L?$MA?M@
CONST	SEGMENT
??_C@_0N@OAECDKHI@?C?V?$LE?k?$LP?$KM?$LM?S?$MA?L?$MA?M@ DB 0c3H, 0d6H, 0b4H
	DB	0ebH, 0bfH, 0acH, 0bcH, 0d3H, 0c0H, 0ccH, 0c0H, 0cdH, 00H ; `string'
CONST	ENDS
;	COMDAT ??_C@_0P@KPEIILEB@?C?V?$LE?k?$LP?$KM?$LM?S?$MA?L?$MA?M?$LM?v@
CONST	SEGMENT
??_C@_0P@KPEIILEB@?C?V?$LE?k?$LP?$KM?$LM?S?$MA?L?$MA?M?$LM?v@ DB 0c3H, 0d6H
	DB	0b4H, 0ebH, 0bfH, 0acH, 0bcH, 0d3H, 0c0H, 0ccH, 0c0H, 0cdH, 0bcH
	DB	0f6H, 00H					; `string'
CONST	ENDS
;	COMDAT ??_C@_0BB@CGAEBIGF@?$MA?L?$MA?M?$LI?E?$LI?E?$MA?$LC?$CI?$LN?B?$LH?$PM?$CJ@
CONST	SEGMENT
??_C@_0BB@CGAEBIGF@?$MA?L?$MA?M?$LI?E?$LI?E?$MA?$LC?$CI?$LN?B?$LH?$PM?$CJ@ DB 0c0H
	DB	0ccH, 0c0H, 0cdH, 0b8H, 0c5H, 0b8H, 0c5H, 0c0H, 0b2H, '(', 0bdH
	DB	0c2H, 0b7H, 0fcH, ')', 00H			; `string'
CONST	ENDS
;	COMDAT ??_C@_0L@LDAPEPIM@?$MA?L?$MA?M?$LI?E?$LI?E?$LM?v@
CONST	SEGMENT
??_C@_0L@LDAPEPIM@?$MA?L?$MA?M?$LI?E?$LI?E?$LM?v@ DB 0c0H, 0ccH, 0c0H, 0cdH
	DB	0b8H, 0c5H, 0b8H, 0c5H, 0bcH, 0f6H, 00H	; `string'
CONST	ENDS
;	COMDAT ??_C@_0BB@NJCLLDAP@?$LJ?L?C?$LL?$LL?j?F?w?G?T?C?Q?C?$LL?$LL?j@
CONST	SEGMENT
??_C@_0BB@NJCLLDAP@?$LJ?L?C?$LL?$LL?j?F?w?G?T?C?Q?C?$LL?$LL?j@ DB 0b9H, 0ccH
	DB	0c3H, 0bbH, 0bbH, 0eaH, 0c6H, 0f7H, 0c7H, 0d4H, 0c3H, 0d1H, 0c3H
	DB	0bbH, 0bbH, 0eaH, 00H			; `string'
CONST	ENDS
;	COMDAT ??_C@_0N@MIGBMLLP@?$LA?G?$LK?$LA?F?r?$LB?U?$MA?L?$MA?M@
CONST	SEGMENT
??_C@_0N@MIGBMLLP@?$LA?G?$LK?$LA?F?r?$LB?U?$MA?L?$MA?M@ DB 0b0H, 0c7H, 0baH
	DB	0b0H, 0c6H, 0f2H, 0b1H, 0d5H, 0c0H, 0ccH, 0c0H, 0cdH, 00H ; `string'
CONST	ENDS
;	COMDAT ??_C@_0N@JDICKLCG@?$LA?G?$LK?$LA?C?V?$LE?k?$MA?L?$MA?M@
CONST	SEGMENT
??_C@_0N@JDICKLCG@?$LA?G?$LK?$LA?C?V?$LE?k?$MA?L?$MA?M@ DB 0b0H, 0c7H, 0baH
	DB	0b0H, 0c3H, 0d6H, 0b4H, 0ebH, 0c0H, 0ccH, 0c0H, 0cdH, 00H ; `string'
CONST	ENDS
;	COMDAT ??_C@_06HMHBOMDL@?C?Q?$MA?L?$MA?M@
CONST	SEGMENT
??_C@_06HMHBOMDL@?C?Q?$MA?L?$MA?M@ DB 0c3H, 0d1H, 0c0H, 0ccH, 0c0H, 0cdH, 00H ; `string'
CONST	ENDS
;	COMDAT ??_C@_0P@JJNKLJJO@?$LA?G?$LK?$LA?F?r?$LB?U?$LM?v?$MA?M?$LH?$PM@
CONST	SEGMENT
??_C@_0P@JJNKLJJO@?$LA?G?$LK?$LA?F?r?$LB?U?$LM?v?$MA?M?$LH?$PM@ DB 0b0H, 0c7H
	DB	0baH, 0b0H, 0c6H, 0f2H, 0b1H, 0d5H, 0bcH, 0f6H, 0c0H, 0cdH, 0b7H
	DB	0fcH, 00H					; `string'
CONST	ENDS
;	COMDAT ??_C@_0N@PDNPFNDD@?F?r?$LB?U?$LI?E?$LI?E?$LK?$MA?$LM?v@
CONST	SEGMENT
??_C@_0N@PDNPFNDD@?F?r?$LB?U?$LI?E?$LI?E?$LK?$MA?$LM?v@ DB 0c6H, 0f2H, 0b1H
	DB	0d5H, 0b8H, 0c5H, 0b8H, 0c5H, 0baH, 0c0H, 0bcH, 0f6H, 00H ; `string'
CONST	ENDS
;	COMDAT ??_C@_0L@IJLGNGBO@?$LB?b?$LA?$KD?B?$PM?$LP?$KJ?$MA?$LC@
CONST	SEGMENT
??_C@_0L@IJLGNGBO@?$LB?b?$LA?$KD?B?$PM?$LP?$KJ?$MA?$LC@ DB 0b1H, 0e2H, 0b0H
	DB	0a3H, 0c2H, 0fcH, 0bfH, 0a9H, 0c0H, 0b2H, 00H ; `string'
CONST	ENDS
;	COMDAT ??_C@_06OEJMNFOB@?C?Q?$LK?$MA?$LM?v@
CONST	SEGMENT
??_C@_06OEJMNFOB@?C?Q?$LK?$MA?$LM?v@ DB 0c3H, 0d1H, 0baH, 0c0H, 0bcH, 0f6H
	DB	00H						; `string'
CONST	ENDS
;	COMDAT ??_C@_0P@HMJADPNA@?$MA?$PM?$LH?$KL?C?J?$LA?z?$LM?v?$MA?M?$LH?$PM@
CONST	SEGMENT
??_C@_0P@HMJADPNA@?$MA?$PM?$LH?$KL?C?J?$LA?z?$LM?v?$MA?M?$LH?$PM@ DB 0c0H
	DB	0fcH, 0b7H, 0abH, 0c3H, 0caH, 0b0H, 0faH, 0bcH, 0f6H, 0c0H, 0cdH
	DB	0b7H, 0fcH, 00H				; `string'
CONST	ENDS
;	COMDAT ??_C@_0L@OFFEDCHL@?$LB?b?$LA?$KD?$LF?n?$LG?t?$LH?$PM@
CONST	SEGMENT
??_C@_0L@OFFEDCHL@?$LB?b?$LA?$KD?$LF?n?$LG?t?$LH?$PM@ DB 0b1H, 0e2H, 0b0H
	DB	0a3H, 0b5H, 0eeH, 0b6H, 0f4H, 0b7H, 0fcH, 00H ; `string'
CONST	ENDS
;	COMDAT ??_C@_0O@CIHDHIEL@?$MA?L?$MA?M?$LM?v?1?$LM?U?$LN?G?$LM?v@
CONST	SEGMENT
??_C@_0O@CIHDHIEL@?$MA?L?$MA?M?$LM?v?1?$LM?U?$LN?G?$LM?v@ DB 0c0H, 0ccH, 0c0H
	DB	0cdH, 0bcH, 0f6H, '/', 0bcH, 0d5H, 0bdH, 0c7H, 0bcH, 0f6H, 00H ; `string'
CONST	ENDS
;	COMDAT ??_C@_08OPDCDADA@?C?Q?$LI?E?$LI?E?$LM?v@
CONST	SEGMENT
??_C@_08OPDCDADA@?C?Q?$LI?E?$LI?E?$LM?v@ DB 0c3H, 0d1H, 0b8H, 0c5H, 0b8H, 0c5H
	DB	0bcH, 0f6H, 00H				; `string'
CONST	ENDS
;	COMDAT ??_C@_06KFFIADGF@?C?Q?A?x?$MA?T@
CONST	SEGMENT
??_C@_06KFFIADGF@?C?Q?A?x?$MA?T@ DB 0c3H, 0d1H, 0c1H, 0f8H, 0c0H, 0d4H, 00H ; `string'
CONST	ENDS
;	COMDAT ??_C@_0N@NJFCNOGE@?$LA?G?$LK?$LA?F?r?$LB?U?$LM?U?$MA?M@
CONST	SEGMENT
??_C@_0N@NJFCNOGE@?$LA?G?$LK?$LA?F?r?$LB?U?$LM?U?$MA?M@ DB 0b0H, 0c7H, 0baH
	DB	0b0H, 0c6H, 0f2H, 0b1H, 0d5H, 0bcH, 0d5H, 0c0H, 0cdH, 00H ; `string'
CONST	ENDS
;	COMDAT ??_C@_0O@KHPIEGBI@?C?Q?$MA?L?$MA?M?1?C?Q?$LM?U?$LN?G@
CONST	SEGMENT
??_C@_0O@KHPIEGBI@?C?Q?$MA?L?$MA?M?1?C?Q?$LM?U?$LN?G@ DB 0c3H, 0d1H, 0c0H
	DB	0ccH, 0c0H, 0cdH, '/', 0c3H, 0d1H, 0bcH, 0d5H, 0bdH, 0c7H, 00H ; `string'
CONST	ENDS
;	COMDAT ??_C@_06GNECPJOA@?C?Q?$LM?U?$MA?M@
CONST	SEGMENT
??_C@_06GNECPJOA@?C?Q?$LM?U?$MA?M@ DB 0c3H, 0d1H, 0bcH, 0d5H, 0c0H, 0cdH, 00H ; `string'
CONST	ENDS
;	COMDAT ??_C@_0L@FJFCOKJ@?$LE?$KJ?$MA?$PL?$LM?v?$MA?M?$LH?$PM@
CONST	SEGMENT
??_C@_0L@FJFCOKJ@?$LE?$KJ?$MA?$PL?$LM?v?$MA?M?$LH?$PM@ DB 0b4H, 0a9H, 0c0H
	DB	0fbH, 0bcH, 0f6H, 0c0H, 0cdH, 0b7H, 0fcH, 00H ; `string'
CONST	ENDS
;	COMDAT ??_C@_02JINPPBEP@No@
CONST	SEGMENT
??_C@_02JINPPBEP@No@ DB 'No', 00H			; `string'
CONST	ENDS
;	COMDAT ?messageMap@?1??GetThisMessageMap@CDlgResult@@KGPBUAFX_MSGMAP@@XZ@4U3@B
CONST	SEGMENT
?messageMap@?1??GetThisMessageMap@CDlgResult@@KGPBUAFX_MSGMAP@@XZ@4U3@B DD FLAT:?GetThisMessageMap@CDialog@@KGPBUAFX_MSGMAP@@XZ ; `CDlgResult::GetThisMessageMap'::`2'::messageMap
	DD	FLAT:?_messageEntries@?1??GetThisMessageMap@CDlgResult@@KGPBUAFX_MSGMAP@@XZ@4QBUAFX_MSGMAP_ENTRY@@B
CONST	ENDS
;	COMDAT ?_messageEntries@?1??GetThisMessageMap@CDlgResult@@KGPBUAFX_MSGMAP@@XZ@4QBUAFX_MSGMAP_ENTRY@@B
CONST	SEGMENT
?_messageEntries@?1??GetThisMessageMap@CDlgResult@@KGPBUAFX_MSGMAP@@XZ@4QBUAFX_MSGMAP_ENTRY@@B DD 02H ; `CDlgResult::GetThisMessageMap'::`2'::_messageEntries
	DD	00H
	DD	00H
	DD	00H
	DD	013H
	DD	FLAT:?OnDestroy@CDlgResult@@IAEXXZ
	DD	019H
	DD	00H
	DD	00H
	DD	00H
	DD	08H
	DD	FLAT:?OnCtlColor@CWnd@@IAEPAUHBRUSH__@@PAVCDC@@PAV1@I@Z
	DD	00H
	DD	00H
	DD	00H
	DD	00H
	DD	00H
	DD	00H
CONST	ENDS
;	COMDAT ??_7CDlgResult@@6B@
CONST	SEGMENT
??_7CDlgResult@@6B@ DD FLAT:??_R4CDlgResult@@6B@	; CDlgResult::`vftable'
	DD	FLAT:?GetRuntimeClass@CDialog@@UBEPAUCRuntimeClass@@XZ
	DD	FLAT:??_ECDlgResult@@UAEPAXI@Z
	DD	FLAT:?Serialize@CObject@@UAEXAAVCArchive@@@Z
	DD	FLAT:?AssertValid@CObject@@UBEXXZ
	DD	FLAT:?Dump@CObject@@UBEXAAVCDumpContext@@@Z
	DD	FLAT:?OnCmdMsg@CDialog@@UAEHIHPAXPAUAFX_CMDHANDLERINFO@@@Z
	DD	FLAT:?OnFinalRelease@CWnd@@UAEXXZ
	DD	FLAT:?IsInvokeAllowed@CCmdTarget@@UAEHJ@Z
	DD	FLAT:?GetDispatchIID@CCmdTarget@@UAEHPAU_GUID@@@Z
	DD	FLAT:?GetTypeInfoCount@CCmdTarget@@UAEIXZ
	DD	FLAT:?GetTypeLibCache@CCmdTarget@@UAEPAVCTypeLibCache@@XZ
	DD	FLAT:?GetTypeLib@CCmdTarget@@UAEJKPAPAUITypeLib@@@Z
	DD	FLAT:?GetMessageMap@CDlgResult@@MBEPBUAFX_MSGMAP@@XZ
	DD	FLAT:?GetCommandMap@CCmdTarget@@MBEPBUAFX_OLECMDMAP@@XZ
	DD	FLAT:?GetDispatchMap@CCmdTarget@@MBEPBUAFX_DISPMAP@@XZ
	DD	FLAT:?GetConnectionMap@CCmdTarget@@MBEPBUAFX_CONNECTIONMAP@@XZ
	DD	FLAT:?GetInterfaceMap@CWnd@@MBEPBUAFX_INTERFACEMAP@@XZ
	DD	FLAT:?GetEventSinkMap@CCmdTarget@@MBEPBUAFX_EVENTSINKMAP@@XZ
	DD	FLAT:?OnCreateAggregates@CCmdTarget@@UAEHXZ
	DD	FLAT:?GetInterfaceHook@CCmdTarget@@UAEPAUIUnknown@@PBX@Z
	DD	FLAT:?GetExtraConnectionPoints@CCmdTarget@@MAEHPAVCPtrArray@@@Z
	DD	FLAT:?GetConnectionHook@CCmdTarget@@MAEPAUIConnectionPoint@@ABU_GUID@@@Z
	DD	FLAT:?PreSubclassWindow@CWnd@@UAEXXZ
	DD	FLAT:?Create@CWnd@@UAEHPBD0KABUtagRECT@@PAV1@IPAUCCreateContext@@@Z
	DD	FLAT:?CreateEx@CWnd@@UAEHKPBD0KABUtagRECT@@PAV1@IPAX@Z
	DD	FLAT:?CreateEx@CWnd@@UAEHKPBD0KHHHHPAUHWND__@@PAUHMENU__@@PAX@Z
	DD	FLAT:?DestroyWindow@CWnd@@UAEHXZ
	DD	FLAT:?PreCreateWindow@CWnd@@UAEHAAUtagCREATESTRUCTA@@@Z
	DD	FLAT:?CalcWindowRect@CWnd@@UAEXPAUtagRECT@@I@Z
	DD	FLAT:?GetMenu@CWnd@@UBEPAVCMenu@@XZ
	DD	FLAT:?SetMenu@CWnd@@UAEHPAVCMenu@@@Z
	DD	FLAT:?OnToolHitTest@CWnd@@UBEHVCPoint@@PAUtagTOOLINFOA@@@Z
	DD	FLAT:?GetScrollBarCtrl@CWnd@@UBEPAVCScrollBar@@H@Z
	DD	FLAT:?WinHelpA@CWnd@@UAEXKI@Z
	DD	FLAT:?HtmlHelpA@CWnd@@UAEXKI@Z
	DD	FLAT:?WinHelpInternal@CWnd@@UAEXKI@Z
	DD	FLAT:?ContinueModal@CWnd@@UAEHXZ
	DD	FLAT:?EndModalLoop@CWnd@@UAEXH@Z
	DD	FLAT:?OnDrawIconicThumbnailOrLivePreview@CWnd@@UAEXAAVCDC@@VCRect@@VCSize@@HAAH@Z
	DD	FLAT:?EnsureStdObj@CWnd@@UAEJXZ
	DD	FLAT:?get_accParent@CWnd@@UAEJPAPAUIDispatch@@@Z
	DD	FLAT:?get_accChildCount@CWnd@@UAEJPAJ@Z
	DD	FLAT:?get_accChild@CWnd@@UAEJUtagVARIANT@@PAPAUIDispatch@@@Z
	DD	FLAT:?get_accName@CWnd@@UAEJUtagVARIANT@@PAPA_W@Z
	DD	FLAT:?get_accValue@CWnd@@UAEJUtagVARIANT@@PAPA_W@Z
	DD	FLAT:?get_accDescription@CWnd@@UAEJUtagVARIANT@@PAPA_W@Z
	DD	FLAT:?get_accRole@CWnd@@UAEJUtagVARIANT@@PAU2@@Z
	DD	FLAT:?get_accState@CWnd@@UAEJUtagVARIANT@@PAU2@@Z
	DD	FLAT:?get_accHelp@CWnd@@UAEJUtagVARIANT@@PAPA_W@Z
	DD	FLAT:?get_accHelpTopic@CWnd@@UAEJPAPA_WUtagVARIANT@@PAJ@Z
	DD	FLAT:?get_accKeyboardShortcut@CWnd@@UAEJUtagVARIANT@@PAPA_W@Z
	DD	FLAT:?get_accFocus@CWnd@@UAEJPAUtagVARIANT@@@Z
	DD	FLAT:?get_accSelection@CWnd@@UAEJPAUtagVARIANT@@@Z
	DD	FLAT:?get_accDefaultAction@CWnd@@UAEJUtagVARIANT@@PAPA_W@Z
	DD	FLAT:?accSelect@CWnd@@UAEJJUtagVARIANT@@@Z
	DD	FLAT:?accLocation@CWnd@@UAEJPAJ000UtagVARIANT@@@Z
	DD	FLAT:?accNavigate@CWnd@@UAEJJUtagVARIANT@@PAU2@@Z
	DD	FLAT:?accHitTest@CWnd@@UAEJJJPAUtagVARIANT@@@Z
	DD	FLAT:?accDoDefaultAction@CWnd@@UAEJUtagVARIANT@@@Z
	DD	FLAT:?put_accName@CWnd@@UAEJUtagVARIANT@@PA_W@Z
	DD	FLAT:?put_accValue@CWnd@@UAEJUtagVARIANT@@PA_W@Z
	DD	FLAT:?SetProxy@CWnd@@UAEJPAUIAccessibleProxy@@@Z
	DD	FLAT:?CreateAccessibleProxy@CWnd@@UAEJIJPAJ@Z
	DD	FLAT:?OnCommand@CWnd@@MAEHIJ@Z
	DD	FLAT:?OnNotify@CWnd@@MAEHIJPAJ@Z
	DD	FLAT:?GetSuperWndProcAddr@CWnd@@MAEPAP6GJPAUHWND__@@IIJ@ZXZ
	DD	FLAT:?DoDataExchange@CDlgResult@@MAEXPAVCDataExchange@@@Z
	DD	FLAT:?BeginModalState@CWnd@@UAEXXZ
	DD	FLAT:?EndModalState@CWnd@@UAEXXZ
	DD	FLAT:?PreTranslateMessage@CEscDialog@@MAEHPAUtagMSG@@@Z
	DD	FLAT:?OnAmbientProperty@CWnd@@UAEHPAVCOleControlSite@@JPAUtagVARIANT@@@Z
	DD	FLAT:?WindowProc@CWnd@@MAEJIIJ@Z
	DD	FLAT:?OnWndMsg@CWnd@@MAEHIIJPAJ@Z
	DD	FLAT:?DefWindowProcA@CWnd@@MAEJIIJ@Z
	DD	FLAT:?PostNcDestroy@CWnd@@MAEXXZ
	DD	FLAT:?OnChildNotify@CWnd@@MAEHIIJPAJ@Z
	DD	FLAT:?OnTouchInputs@CWnd@@MAEHIPAUtagTOUCHINPUT@@@Z
	DD	FLAT:?OnTouchInput@CWnd@@MAEHVCPoint@@HHPAUtagTOUCHINPUT@@@Z
	DD	FLAT:?GetGestureStatus@CWnd@@MAEKVCPoint@@@Z
	DD	FLAT:?OnGestureZoom@CWnd@@MAEHVCPoint@@J@Z
	DD	FLAT:?OnGesturePan@CWnd@@MAEHVCPoint@@0@Z
	DD	FLAT:?OnGestureRotate@CWnd@@MAEHVCPoint@@N@Z
	DD	FLAT:?OnGestureTwoFingerTap@CWnd@@MAEHVCPoint@@@Z
	DD	FLAT:?OnGesturePressAndTap@CWnd@@MAEHVCPoint@@J@Z
	DD	FLAT:?ResizeDynamicLayout@CWnd@@MAEXXZ
	DD	FLAT:?CheckAutoCenter@CDialog@@UAEHXZ
	DD	FLAT:?IsFrameWnd@CWnd@@UBEHXZ
	DD	FLAT:?CreateControlContainer@CWnd@@MAEHPAPAVCOleControlContainer@@@Z
	DD	FLAT:?CreateControlSite@CWnd@@MAEHPAVCOleControlContainer@@PAPAVCOleControlSite@@IABU_GUID@@@Z
	DD	FLAT:?SetOccDialogInfo@CDialog@@MAEHPAU_AFX_OCC_DIALOG_INFO@@@Z
	DD	FLAT:?GetOccDialogInfo@CDialog@@MAEPAU_AFX_OCC_DIALOG_INFO@@XZ
	DD	FLAT:?Create@CDialog@@UAEHIPAVCWnd@@@Z
	DD	FLAT:?Create@CDialog@@UAEHPBDPAVCWnd@@@Z
	DD	FLAT:?CreateIndirect@CDialog@@UAEHPAXPAVCWnd@@@Z
	DD	FLAT:?CreateIndirect@CDialog@@UAEHPBUDLGTEMPLATE@@PAVCWnd@@PAX@Z
	DD	FLAT:?DoModal@CDialog@@UAEHXZ
	DD	FLAT:?OnInitDialog@CDlgResult@@MAEHXZ
	DD	FLAT:?OnSetFont@CDialog@@UAEXPAVCFont@@@Z
	DD	FLAT:?OnOK@CDialog@@MAEXXZ
	DD	FLAT:?OnCancel@CDialog@@MAEXXZ
	DD	FLAT:?PreInitDialog@CDialog@@MAEXXZ
CONST	ENDS
;	COMDAT ??_R1A@?0A@EA@CEscDialog@@8
rdata$r	SEGMENT
??_R1A@?0A@EA@CEscDialog@@8 DD FLAT:??_R0?AVCEscDialog@@@8 ; CEscDialog::`RTTI Base Class Descriptor at (0,-1,0,64)'
	DD	04H
	DD	00H
	DD	0ffffffffH
	DD	00H
	DD	040H
	DD	FLAT:??_R3CEscDialog@@8
rdata$r	ENDS
;	COMDAT ??_R2CEscDialog@@8
rdata$r	SEGMENT
??_R2CEscDialog@@8 DD FLAT:??_R1A@?0A@EA@CEscDialog@@8	; CEscDialog::`RTTI Base Class Array'
	DD	FLAT:??_R1A@?0A@EA@CDialog@@8
	DD	FLAT:??_R1A@?0A@EA@CWnd@@8
	DD	FLAT:??_R1A@?0A@EA@CCmdTarget@@8
	DD	FLAT:??_R1A@?0A@EA@CObject@@8
rdata$r	ENDS
;	COMDAT ??_R3CEscDialog@@8
rdata$r	SEGMENT
??_R3CEscDialog@@8 DD 00H				; CEscDialog::`RTTI Class Hierarchy Descriptor'
	DD	00H
	DD	05H
	DD	FLAT:??_R2CEscDialog@@8
rdata$r	ENDS
;	COMDAT ??_R0?AVCEscDialog@@@8
data$rs	SEGMENT
??_R0?AVCEscDialog@@@8 DD FLAT:??_7type_info@@6B@	; CEscDialog `RTTI Type Descriptor'
	DD	00H
	DB	'.?AVCEscDialog@@', 00H
data$rs	ENDS
;	COMDAT ??_R4CEscDialog@@6B@
rdata$r	SEGMENT
??_R4CEscDialog@@6B@ DD 00H				; CEscDialog::`RTTI Complete Object Locator'
	DD	00H
	DD	00H
	DD	FLAT:??_R0?AVCEscDialog@@@8
	DD	FLAT:??_R3CEscDialog@@8
rdata$r	ENDS
;	COMDAT ??_R2CDialog@@8
rdata$r	SEGMENT
??_R2CDialog@@8 DD FLAT:??_R1A@?0A@EA@CDialog@@8	; CDialog::`RTTI Base Class Array'
	DD	FLAT:??_R1A@?0A@EA@CWnd@@8
	DD	FLAT:??_R1A@?0A@EA@CCmdTarget@@8
	DD	FLAT:??_R1A@?0A@EA@CObject@@8
rdata$r	ENDS
;	COMDAT ??_R3CDialog@@8
rdata$r	SEGMENT
??_R3CDialog@@8 DD 00H					; CDialog::`RTTI Class Hierarchy Descriptor'
	DD	00H
	DD	04H
	DD	FLAT:??_R2CDialog@@8
rdata$r	ENDS
;	COMDAT ??_R0?AVCDialog@@@8
data$rs	SEGMENT
??_R0?AVCDialog@@@8 DD FLAT:??_7type_info@@6B@		; CDialog `RTTI Type Descriptor'
	DD	00H
	DB	'.?AVCDialog@@', 00H
data$rs	ENDS
;	COMDAT ??_R1A@?0A@EA@CDialog@@8
rdata$r	SEGMENT
??_R1A@?0A@EA@CDialog@@8 DD FLAT:??_R0?AVCDialog@@@8	; CDialog::`RTTI Base Class Descriptor at (0,-1,0,64)'
	DD	03H
	DD	00H
	DD	0ffffffffH
	DD	00H
	DD	040H
	DD	FLAT:??_R3CDialog@@8
rdata$r	ENDS
;	COMDAT ??_R2CCmdTarget@@8
rdata$r	SEGMENT
??_R2CCmdTarget@@8 DD FLAT:??_R1A@?0A@EA@CCmdTarget@@8	; CCmdTarget::`RTTI Base Class Array'
	DD	FLAT:??_R1A@?0A@EA@CObject@@8
rdata$r	ENDS
;	COMDAT ??_R3CCmdTarget@@8
rdata$r	SEGMENT
??_R3CCmdTarget@@8 DD 00H				; CCmdTarget::`RTTI Class Hierarchy Descriptor'
	DD	00H
	DD	02H
	DD	FLAT:??_R2CCmdTarget@@8
rdata$r	ENDS
;	COMDAT ??_R0?AVCCmdTarget@@@8
data$rs	SEGMENT
??_R0?AVCCmdTarget@@@8 DD FLAT:??_7type_info@@6B@	; CCmdTarget `RTTI Type Descriptor'
	DD	00H
	DB	'.?AVCCmdTarget@@', 00H
data$rs	ENDS
;	COMDAT ??_R1A@?0A@EA@CCmdTarget@@8
rdata$r	SEGMENT
??_R1A@?0A@EA@CCmdTarget@@8 DD FLAT:??_R0?AVCCmdTarget@@@8 ; CCmdTarget::`RTTI Base Class Descriptor at (0,-1,0,64)'
	DD	01H
	DD	00H
	DD	0ffffffffH
	DD	00H
	DD	040H
	DD	FLAT:??_R3CCmdTarget@@8
rdata$r	ENDS
;	COMDAT ??_R2CWnd@@8
rdata$r	SEGMENT
??_R2CWnd@@8 DD	FLAT:??_R1A@?0A@EA@CWnd@@8		; CWnd::`RTTI Base Class Array'
	DD	FLAT:??_R1A@?0A@EA@CCmdTarget@@8
	DD	FLAT:??_R1A@?0A@EA@CObject@@8
rdata$r	ENDS
;	COMDAT ??_R3CWnd@@8
rdata$r	SEGMENT
??_R3CWnd@@8 DD	00H					; CWnd::`RTTI Class Hierarchy Descriptor'
	DD	00H
	DD	03H
	DD	FLAT:??_R2CWnd@@8
rdata$r	ENDS
;	COMDAT ??_R0?AVCWnd@@@8
data$rs	SEGMENT
??_R0?AVCWnd@@@8 DD FLAT:??_7type_info@@6B@		; CWnd `RTTI Type Descriptor'
	DD	00H
	DB	'.?AVCWnd@@', 00H
data$rs	ENDS
;	COMDAT ??_R1A@?0A@EA@CWnd@@8
rdata$r	SEGMENT
??_R1A@?0A@EA@CWnd@@8 DD FLAT:??_R0?AVCWnd@@@8		; CWnd::`RTTI Base Class Descriptor at (0,-1,0,64)'
	DD	02H
	DD	00H
	DD	0ffffffffH
	DD	00H
	DD	040H
	DD	FLAT:??_R3CWnd@@8
rdata$r	ENDS
;	COMDAT ??_R1A@?0A@EA@CBrush@@8
rdata$r	SEGMENT
??_R1A@?0A@EA@CBrush@@8 DD FLAT:??_R0?AVCBrush@@@8	; CBrush::`RTTI Base Class Descriptor at (0,-1,0,64)'
	DD	02H
	DD	00H
	DD	0ffffffffH
	DD	00H
	DD	040H
	DD	FLAT:??_R3CBrush@@8
rdata$r	ENDS
;	COMDAT ??_R2CBrush@@8
rdata$r	SEGMENT
??_R2CBrush@@8 DD FLAT:??_R1A@?0A@EA@CBrush@@8		; CBrush::`RTTI Base Class Array'
	DD	FLAT:??_R1A@?0A@EA@CGdiObject@@8
	DD	FLAT:??_R1A@?0A@EA@CObject@@8
rdata$r	ENDS
;	COMDAT ??_R3CBrush@@8
rdata$r	SEGMENT
??_R3CBrush@@8 DD 00H					; CBrush::`RTTI Class Hierarchy Descriptor'
	DD	00H
	DD	03H
	DD	FLAT:??_R2CBrush@@8
rdata$r	ENDS
;	COMDAT ??_R0?AVCBrush@@@8
data$rs	SEGMENT
??_R0?AVCBrush@@@8 DD FLAT:??_7type_info@@6B@		; CBrush `RTTI Type Descriptor'
	DD	00H
	DB	'.?AVCBrush@@', 00H
data$rs	ENDS
;	COMDAT ??_R4CBrush@@6B@
rdata$r	SEGMENT
??_R4CBrush@@6B@ DD 00H					; CBrush::`RTTI Complete Object Locator'
	DD	00H
	DD	00H
	DD	FLAT:??_R0?AVCBrush@@@8
	DD	FLAT:??_R3CBrush@@8
rdata$r	ENDS
;	COMDAT ??_R1A@?0A@EA@CGdiObject@@8
rdata$r	SEGMENT
??_R1A@?0A@EA@CGdiObject@@8 DD FLAT:??_R0?AVCGdiObject@@@8 ; CGdiObject::`RTTI Base Class Descriptor at (0,-1,0,64)'
	DD	01H
	DD	00H
	DD	0ffffffffH
	DD	00H
	DD	040H
	DD	FLAT:??_R3CGdiObject@@8
rdata$r	ENDS
;	COMDAT ??_R2CGdiObject@@8
rdata$r	SEGMENT
??_R2CGdiObject@@8 DD FLAT:??_R1A@?0A@EA@CGdiObject@@8	; CGdiObject::`RTTI Base Class Array'
	DD	FLAT:??_R1A@?0A@EA@CObject@@8
rdata$r	ENDS
;	COMDAT ??_R3CGdiObject@@8
rdata$r	SEGMENT
??_R3CGdiObject@@8 DD 00H				; CGdiObject::`RTTI Class Hierarchy Descriptor'
	DD	00H
	DD	02H
	DD	FLAT:??_R2CGdiObject@@8
rdata$r	ENDS
;	COMDAT ??_R0?AVCGdiObject@@@8
data$rs	SEGMENT
??_R0?AVCGdiObject@@@8 DD FLAT:??_7type_info@@6B@	; CGdiObject `RTTI Type Descriptor'
	DD	00H
	DB	'.?AVCGdiObject@@', 00H
data$rs	ENDS
;	COMDAT ??_R4CGdiObject@@6B@
rdata$r	SEGMENT
??_R4CGdiObject@@6B@ DD 00H				; CGdiObject::`RTTI Complete Object Locator'
	DD	00H
	DD	00H
	DD	FLAT:??_R0?AVCGdiObject@@@8
	DD	FLAT:??_R3CGdiObject@@8
rdata$r	ENDS
;	COMDAT ??_R1A@?0A@EA@CObject@@8
rdata$r	SEGMENT
??_R1A@?0A@EA@CObject@@8 DD FLAT:??_R0?AVCObject@@@8	; CObject::`RTTI Base Class Descriptor at (0,-1,0,64)'
	DD	00H
	DD	00H
	DD	0ffffffffH
	DD	00H
	DD	040H
	DD	FLAT:??_R3CObject@@8
rdata$r	ENDS
;	COMDAT ??_R2CObject@@8
rdata$r	SEGMENT
??_R2CObject@@8 DD FLAT:??_R1A@?0A@EA@CObject@@8	; CObject::`RTTI Base Class Array'
rdata$r	ENDS
;	COMDAT ??_R3CObject@@8
rdata$r	SEGMENT
??_R3CObject@@8 DD 00H					; CObject::`RTTI Class Hierarchy Descriptor'
	DD	00H
	DD	01H
	DD	FLAT:??_R2CObject@@8
rdata$r	ENDS
;	COMDAT ??_R0?AVCObject@@@8
data$rs	SEGMENT
??_R0?AVCObject@@@8 DD FLAT:??_7type_info@@6B@		; CObject `RTTI Type Descriptor'
	DD	00H
	DB	'.?AVCObject@@', 00H
data$rs	ENDS
;	COMDAT ??_7CEscDialog@@6B@
CONST	SEGMENT
??_7CEscDialog@@6B@ DD FLAT:??_R4CEscDialog@@6B@	; CEscDialog::`vftable'
	DD	FLAT:?GetRuntimeClass@CDialog@@UBEPAUCRuntimeClass@@XZ
	DD	FLAT:??_ECEscDialog@@UAEPAXI@Z
	DD	FLAT:?Serialize@CObject@@UAEXAAVCArchive@@@Z
	DD	FLAT:?AssertValid@CObject@@UBEXXZ
	DD	FLAT:?Dump@CObject@@UBEXAAVCDumpContext@@@Z
	DD	FLAT:?OnCmdMsg@CDialog@@UAEHIHPAXPAUAFX_CMDHANDLERINFO@@@Z
	DD	FLAT:?OnFinalRelease@CWnd@@UAEXXZ
	DD	FLAT:?IsInvokeAllowed@CCmdTarget@@UAEHJ@Z
	DD	FLAT:?GetDispatchIID@CCmdTarget@@UAEHPAU_GUID@@@Z
	DD	FLAT:?GetTypeInfoCount@CCmdTarget@@UAEIXZ
	DD	FLAT:?GetTypeLibCache@CCmdTarget@@UAEPAVCTypeLibCache@@XZ
	DD	FLAT:?GetTypeLib@CCmdTarget@@UAEJKPAPAUITypeLib@@@Z
	DD	FLAT:?GetMessageMap@CDialog@@MBEPBUAFX_MSGMAP@@XZ
	DD	FLAT:?GetCommandMap@CCmdTarget@@MBEPBUAFX_OLECMDMAP@@XZ
	DD	FLAT:?GetDispatchMap@CCmdTarget@@MBEPBUAFX_DISPMAP@@XZ
	DD	FLAT:?GetConnectionMap@CCmdTarget@@MBEPBUAFX_CONNECTIONMAP@@XZ
	DD	FLAT:?GetInterfaceMap@CWnd@@MBEPBUAFX_INTERFACEMAP@@XZ
	DD	FLAT:?GetEventSinkMap@CCmdTarget@@MBEPBUAFX_EVENTSINKMAP@@XZ
	DD	FLAT:?OnCreateAggregates@CCmdTarget@@UAEHXZ
	DD	FLAT:?GetInterfaceHook@CCmdTarget@@UAEPAUIUnknown@@PBX@Z
	DD	FLAT:?GetExtraConnectionPoints@CCmdTarget@@MAEHPAVCPtrArray@@@Z
	DD	FLAT:?GetConnectionHook@CCmdTarget@@MAEPAUIConnectionPoint@@ABU_GUID@@@Z
	DD	FLAT:?PreSubclassWindow@CWnd@@UAEXXZ
	DD	FLAT:?Create@CWnd@@UAEHPBD0KABUtagRECT@@PAV1@IPAUCCreateContext@@@Z
	DD	FLAT:?CreateEx@CWnd@@UAEHKPBD0KABUtagRECT@@PAV1@IPAX@Z
	DD	FLAT:?CreateEx@CWnd@@UAEHKPBD0KHHHHPAUHWND__@@PAUHMENU__@@PAX@Z
	DD	FLAT:?DestroyWindow@CWnd@@UAEHXZ
	DD	FLAT:?PreCreateWindow@CWnd@@UAEHAAUtagCREATESTRUCTA@@@Z
	DD	FLAT:?CalcWindowRect@CWnd@@UAEXPAUtagRECT@@I@Z
	DD	FLAT:?GetMenu@CWnd@@UBEPAVCMenu@@XZ
	DD	FLAT:?SetMenu@CWnd@@UAEHPAVCMenu@@@Z
	DD	FLAT:?OnToolHitTest@CWnd@@UBEHVCPoint@@PAUtagTOOLINFOA@@@Z
	DD	FLAT:?GetScrollBarCtrl@CWnd@@UBEPAVCScrollBar@@H@Z
	DD	FLAT:?WinHelpA@CWnd@@UAEXKI@Z
	DD	FLAT:?HtmlHelpA@CWnd@@UAEXKI@Z
	DD	FLAT:?WinHelpInternal@CWnd@@UAEXKI@Z
	DD	FLAT:?ContinueModal@CWnd@@UAEHXZ
	DD	FLAT:?EndModalLoop@CWnd@@UAEXH@Z
	DD	FLAT:?OnDrawIconicThumbnailOrLivePreview@CWnd@@UAEXAAVCDC@@VCRect@@VCSize@@HAAH@Z
	DD	FLAT:?EnsureStdObj@CWnd@@UAEJXZ
	DD	FLAT:?get_accParent@CWnd@@UAEJPAPAUIDispatch@@@Z
	DD	FLAT:?get_accChildCount@CWnd@@UAEJPAJ@Z
	DD	FLAT:?get_accChild@CWnd@@UAEJUtagVARIANT@@PAPAUIDispatch@@@Z
	DD	FLAT:?get_accName@CWnd@@UAEJUtagVARIANT@@PAPA_W@Z
	DD	FLAT:?get_accValue@CWnd@@UAEJUtagVARIANT@@PAPA_W@Z
	DD	FLAT:?get_accDescription@CWnd@@UAEJUtagVARIANT@@PAPA_W@Z
	DD	FLAT:?get_accRole@CWnd@@UAEJUtagVARIANT@@PAU2@@Z
	DD	FLAT:?get_accState@CWnd@@UAEJUtagVARIANT@@PAU2@@Z
	DD	FLAT:?get_accHelp@CWnd@@UAEJUtagVARIANT@@PAPA_W@Z
	DD	FLAT:?get_accHelpTopic@CWnd@@UAEJPAPA_WUtagVARIANT@@PAJ@Z
	DD	FLAT:?get_accKeyboardShortcut@CWnd@@UAEJUtagVARIANT@@PAPA_W@Z
	DD	FLAT:?get_accFocus@CWnd@@UAEJPAUtagVARIANT@@@Z
	DD	FLAT:?get_accSelection@CWnd@@UAEJPAUtagVARIANT@@@Z
	DD	FLAT:?get_accDefaultAction@CWnd@@UAEJUtagVARIANT@@PAPA_W@Z
	DD	FLAT:?accSelect@CWnd@@UAEJJUtagVARIANT@@@Z
	DD	FLAT:?accLocation@CWnd@@UAEJPAJ000UtagVARIANT@@@Z
	DD	FLAT:?accNavigate@CWnd@@UAEJJUtagVARIANT@@PAU2@@Z
	DD	FLAT:?accHitTest@CWnd@@UAEJJJPAUtagVARIANT@@@Z
	DD	FLAT:?accDoDefaultAction@CWnd@@UAEJUtagVARIANT@@@Z
	DD	FLAT:?put_accName@CWnd@@UAEJUtagVARIANT@@PA_W@Z
	DD	FLAT:?put_accValue@CWnd@@UAEJUtagVARIANT@@PA_W@Z
	DD	FLAT:?SetProxy@CWnd@@UAEJPAUIAccessibleProxy@@@Z
	DD	FLAT:?CreateAccessibleProxy@CWnd@@UAEJIJPAJ@Z
	DD	FLAT:?OnCommand@CWnd@@MAEHIJ@Z
	DD	FLAT:?OnNotify@CWnd@@MAEHIJPAJ@Z
	DD	FLAT:?GetSuperWndProcAddr@CWnd@@MAEPAP6GJPAUHWND__@@IIJ@ZXZ
	DD	FLAT:?DoDataExchange@CWnd@@MAEXPAVCDataExchange@@@Z
	DD	FLAT:?BeginModalState@CWnd@@UAEXXZ
	DD	FLAT:?EndModalState@CWnd@@UAEXXZ
	DD	FLAT:?PreTranslateMessage@CEscDialog@@MAEHPAUtagMSG@@@Z
	DD	FLAT:?OnAmbientProperty@CWnd@@UAEHPAVCOleControlSite@@JPAUtagVARIANT@@@Z
	DD	FLAT:?WindowProc@CWnd@@MAEJIIJ@Z
	DD	FLAT:?OnWndMsg@CWnd@@MAEHIIJPAJ@Z
	DD	FLAT:?DefWindowProcA@CWnd@@MAEJIIJ@Z
	DD	FLAT:?PostNcDestroy@CWnd@@MAEXXZ
	DD	FLAT:?OnChildNotify@CWnd@@MAEHIIJPAJ@Z
	DD	FLAT:?OnTouchInputs@CWnd@@MAEHIPAUtagTOUCHINPUT@@@Z
	DD	FLAT:?OnTouchInput@CWnd@@MAEHVCPoint@@HHPAUtagTOUCHINPUT@@@Z
	DD	FLAT:?GetGestureStatus@CWnd@@MAEKVCPoint@@@Z
	DD	FLAT:?OnGestureZoom@CWnd@@MAEHVCPoint@@J@Z
	DD	FLAT:?OnGesturePan@CWnd@@MAEHVCPoint@@0@Z
	DD	FLAT:?OnGestureRotate@CWnd@@MAEHVCPoint@@N@Z
	DD	FLAT:?OnGestureTwoFingerTap@CWnd@@MAEHVCPoint@@@Z
	DD	FLAT:?OnGesturePressAndTap@CWnd@@MAEHVCPoint@@J@Z
	DD	FLAT:?ResizeDynamicLayout@CWnd@@MAEXXZ
	DD	FLAT:?CheckAutoCenter@CDialog@@UAEHXZ
	DD	FLAT:?IsFrameWnd@CWnd@@UBEHXZ
	DD	FLAT:?CreateControlContainer@CWnd@@MAEHPAPAVCOleControlContainer@@@Z
	DD	FLAT:?CreateControlSite@CWnd@@MAEHPAVCOleControlContainer@@PAPAVCOleControlSite@@IABU_GUID@@@Z
	DD	FLAT:?SetOccDialogInfo@CDialog@@MAEHPAU_AFX_OCC_DIALOG_INFO@@@Z
	DD	FLAT:?GetOccDialogInfo@CDialog@@MAEPAU_AFX_OCC_DIALOG_INFO@@XZ
	DD	FLAT:?Create@CDialog@@UAEHIPAVCWnd@@@Z
	DD	FLAT:?Create@CDialog@@UAEHPBDPAVCWnd@@@Z
	DD	FLAT:?CreateIndirect@CDialog@@UAEHPAXPAVCWnd@@@Z
	DD	FLAT:?CreateIndirect@CDialog@@UAEHPBUDLGTEMPLATE@@PAVCWnd@@PAX@Z
	DD	FLAT:?DoModal@CDialog@@UAEHXZ
	DD	FLAT:?OnInitDialog@CDialog@@UAEHXZ
	DD	FLAT:?OnSetFont@CDialog@@UAEXPAVCFont@@@Z
	DD	FLAT:?OnOK@CDialog@@MAEXXZ
	DD	FLAT:?OnCancel@CDialog@@MAEXXZ
	DD	FLAT:?PreInitDialog@CDialog@@MAEXXZ
CONST	ENDS
;	COMDAT ??_C@_02DKCKIIND@?$CFs@
CONST	SEGMENT
??_C@_02DKCKIIND@?$CFs@ DB '%s', 00H			; `string'
CONST	ENDS
;	COMDAT ??_C@_0N@OMEMOKLE@?$CFTs?5?$CI?$CFTs?3?$CFd?$CJ@
CONST	SEGMENT
??_C@_0N@OMEMOKLE@?$CFTs?5?$CI?$CFTs?3?$CFd?$CJ@ DB '%Ts (%Ts:%d)', 00H ; `string'
CONST	ENDS
;	COMDAT ??_C@_0BB@HBOOMJBF@?$CFTs?5?$CI?$CFTs?3?$CFd?$CJ?6?$CFTs@
CONST	SEGMENT
??_C@_0BB@HBOOMJBF@?$CFTs?5?$CI?$CFTs?3?$CFd?$CJ?6?$CFTs@ DB '%Ts (%Ts:%d'
	DB	')', 0aH, '%Ts', 00H				; `string'
CONST	ENDS
;	COMDAT ??_C@_0BP@OIEOKIDM@Exception?5thrown?5in?5destructor@
CONST	SEGMENT
??_C@_0BP@OIEOKIDM@Exception?5thrown?5in?5destructor@ DB 'Exception throw'
	DB	'n in destructor', 00H			; `string'
CONST	ENDS
;	COMDAT ??_C@_0HD@JJCHHHNK@C?3?2Program?5Files?5?$CIx86?$CJ?2Microsof@
CONST	SEGMENT
??_C@_0HD@JJCHHHNK@C?3?2Program?5Files?5?$CIx86?$CJ?2Microsof@ DB 'C:\Pro'
	DB	'gram Files (x86)\Microsoft Visual Studio\2019\Community\VC\To'
	DB	'ols\MSVC\14.29.30133\atlmfc\include\afxwin1.inl', 00H ; `string'
CONST	ENDS
;	COMDAT ??_7CBrush@@6B@
CONST	SEGMENT
??_7CBrush@@6B@ DD FLAT:??_R4CBrush@@6B@		; CBrush::`vftable'
	DD	FLAT:?GetRuntimeClass@CBrush@@UBEPAUCRuntimeClass@@XZ
	DD	FLAT:??_ECBrush@@UAEPAXI@Z
	DD	FLAT:?Serialize@CObject@@UAEXAAVCArchive@@@Z
	DD	FLAT:?AssertValid@CObject@@UBEXXZ
	DD	FLAT:?Dump@CObject@@UBEXAAVCDumpContext@@@Z
CONST	ENDS
;	COMDAT ??_7CGdiObject@@6B@
CONST	SEGMENT
??_7CGdiObject@@6B@ DD FLAT:??_R4CGdiObject@@6B@	; CGdiObject::`vftable'
	DD	FLAT:?GetRuntimeClass@CGdiObject@@UBEPAUCRuntimeClass@@XZ
	DD	FLAT:??_ECGdiObject@@UAEPAXI@Z
	DD	FLAT:?Serialize@CObject@@UAEXAAVCArchive@@@Z
	DD	FLAT:?AssertValid@CObject@@UBEXXZ
	DD	FLAT:?Dump@CObject@@UBEXAAVCDumpContext@@@Z
CONST	ENDS
;	COMDAT ??_C@_00CNPNBAHC@@
CONST	SEGMENT
??_C@_00CNPNBAHC@@ DB 00H				; `string'
CONST	ENDS
;	COMDAT ??_C@_02DPKJAMEF@?$CFd@
CONST	SEGMENT
??_C@_02DPKJAMEF@?$CFd@ DB '%d', 00H			; `string'
CONST	ENDS
;	COMDAT ??_R0PAVCException@@@8
data$r	SEGMENT
??_R0PAVCException@@@8 DD FLAT:??_7type_info@@6B@	; CException * `RTTI Type Descriptor'
	DD	00H
	DB	'.PAVCException@@', 00H
data$r	ENDS
;	COMDAT xdata$x
xdata$x	SEGMENT
__ehfuncinfo$?SetDataSpreadGrid@CDlgResult@@QAEXXZ DD 019930522H
	DD	0cH
	DD	FLAT:__unwindtable$?SetDataSpreadGrid@CDlgResult@@QAEXXZ
	DD	2 DUP(00H)
	DD	2 DUP(00H)
	DD	00H
	DD	01H
__unwindtable$?SetDataSpreadGrid@CDlgResult@@QAEXXZ DD 0ffffffffH
	DD	FLAT:__unwindfunclet$?SetDataSpreadGrid@CDlgResult@@QAEXXZ$0
	DD	00H
	DD	FLAT:__unwindfunclet$?SetDataSpreadGrid@CDlgResult@@QAEXXZ$1
	DD	01H
	DD	FLAT:__unwindfunclet$?SetDataSpreadGrid@CDlgResult@@QAEXXZ$2
	DD	02H
	DD	FLAT:__unwindfunclet$?SetDataSpreadGrid@CDlgResult@@QAEXXZ$3
	DD	03H
	DD	FLAT:__unwindfunclet$?SetDataSpreadGrid@CDlgResult@@QAEXXZ$4
	DD	03H
	DD	FLAT:__unwindfunclet$?SetDataSpreadGrid@CDlgResult@@QAEXXZ$13
	DD	03H
	DD	FLAT:__unwindfunclet$?SetDataSpreadGrid@CDlgResult@@QAEXXZ$14
	DD	03H
	DD	FLAT:__unwindfunclet$?SetDataSpreadGrid@CDlgResult@@QAEXXZ$15
	DD	03H
	DD	FLAT:__unwindfunclet$?SetDataSpreadGrid@CDlgResult@@QAEXXZ$16
	DD	03H
	DD	FLAT:__unwindfunclet$?SetDataSpreadGrid@CDlgResult@@QAEXXZ$17
	DD	03H
	DD	FLAT:__unwindfunclet$?SetDataSpreadGrid@CDlgResult@@QAEXXZ$18
	DD	03H
	DD	FLAT:__unwindfunclet$?SetDataSpreadGrid@CDlgResult@@QAEXXZ$19
xdata$x	ENDS
;	COMDAT xdata$x
xdata$x	SEGMENT
__unwindtable$?InitGrid@CDlgResult@@QAEXXZ DD 0ffffffffH
	DD	FLAT:__unwindfunclet$?InitGrid@CDlgResult@@QAEXXZ$0
	DD	00H
	DD	FLAT:__unwindfunclet$?InitGrid@CDlgResult@@QAEXXZ$1
__ehfuncinfo$?InitGrid@CDlgResult@@QAEXXZ DD 019930522H
	DD	02H
	DD	FLAT:__unwindtable$?InitGrid@CDlgResult@@QAEXXZ
	DD	2 DUP(00H)
	DD	2 DUP(00H)
	DD	00H
	DD	01H
xdata$x	ENDS
;	COMDAT xdata$x
xdata$x	SEGMENT
__unwindtable$?GetNumber@CDlgResult@@QAE?AV?$CStringT@DV?$StrTraitMFC_DLL@DV?$ChTraitsCRT@D@ATL@@@@@ATL@@PBD@Z DD 0ffffffffH
	DD	FLAT:__unwindfunclet$?GetNumber@CDlgResult@@QAE?AV?$CStringT@DV?$StrTraitMFC_DLL@DV?$ChTraitsCRT@D@ATL@@@@@ATL@@PBD@Z$0
__ehfuncinfo$?GetNumber@CDlgResult@@QAE?AV?$CStringT@DV?$StrTraitMFC_DLL@DV?$ChTraitsCRT@D@ATL@@@@@ATL@@PBD@Z DD 019930522H
	DD	01H
	DD	FLAT:__unwindtable$?GetNumber@CDlgResult@@QAE?AV?$CStringT@DV?$StrTraitMFC_DLL@DV?$ChTraitsCRT@D@ATL@@@@@ATL@@PBD@Z
	DD	2 DUP(00H)
	DD	2 DUP(00H)
	DD	00H
	DD	01H
xdata$x	ENDS
;	COMDAT xdata$x
xdata$x	SEGMENT
__ehfuncinfo$?GetComma@CDlgResult@@QAE?AV?$CStringT@DV?$StrTraitMFC_DLL@DV?$ChTraitsCRT@D@ATL@@@@@ATL@@PBD@Z DD 019930522H
	DD	06H
	DD	FLAT:__unwindtable$?GetComma@CDlgResult@@QAE?AV?$CStringT@DV?$StrTraitMFC_DLL@DV?$ChTraitsCRT@D@ATL@@@@@ATL@@PBD@Z
	DD	2 DUP(00H)
	DD	2 DUP(00H)
	DD	00H
	DD	01H
__unwindtable$?GetComma@CDlgResult@@QAE?AV?$CStringT@DV?$StrTraitMFC_DLL@DV?$ChTraitsCRT@D@ATL@@@@@ATL@@PBD@Z DD 0ffffffffH
	DD	FLAT:__unwindfunclet$?GetComma@CDlgResult@@QAE?AV?$CStringT@DV?$StrTraitMFC_DLL@DV?$ChTraitsCRT@D@ATL@@@@@ATL@@PBD@Z$1
	DD	00H
	DD	FLAT:__unwindfunclet$?GetComma@CDlgResult@@QAE?AV?$CStringT@DV?$StrTraitMFC_DLL@DV?$ChTraitsCRT@D@ATL@@@@@ATL@@PBD@Z$2
	DD	01H
	DD	FLAT:__unwindfunclet$?GetComma@CDlgResult@@QAE?AV?$CStringT@DV?$StrTraitMFC_DLL@DV?$ChTraitsCRT@D@ATL@@@@@ATL@@PBD@Z$3
	DD	02H
	DD	FLAT:__unwindfunclet$?GetComma@CDlgResult@@QAE?AV?$CStringT@DV?$StrTraitMFC_DLL@DV?$ChTraitsCRT@D@ATL@@@@@ATL@@PBD@Z$7
	DD	02H
	DD	FLAT:__unwindfunclet$?GetComma@CDlgResult@@QAE?AV?$CStringT@DV?$StrTraitMFC_DLL@DV?$ChTraitsCRT@D@ATL@@@@@ATL@@PBD@Z$5
	DD	02H
	DD	FLAT:__unwindfunclet$?GetComma@CDlgResult@@QAE?AV?$CStringT@DV?$StrTraitMFC_DLL@DV?$ChTraitsCRT@D@ATL@@@@@ATL@@PBD@Z$6
xdata$x	ENDS
;	COMDAT xdata$x
xdata$x	SEGMENT
__ehfuncinfo$?ParsingstrHtml@CDlgResult@@QAE?AV?$CStringT@DV?$StrTraitMFC_DLL@DV?$ChTraitsCRT@D@ATL@@@@@ATL@@V23@@Z DD 019930522H
	DD	02aH
	DD	FLAT:__unwindtable$?ParsingstrHtml@CDlgResult@@QAE?AV?$CStringT@DV?$StrTraitMFC_DLL@DV?$ChTraitsCRT@D@ATL@@@@@ATL@@V23@@Z
	DD	2 DUP(00H)
	DD	2 DUP(00H)
	DD	00H
	DD	01H
__unwindtable$?ParsingstrHtml@CDlgResult@@QAE?AV?$CStringT@DV?$StrTraitMFC_DLL@DV?$ChTraitsCRT@D@ATL@@@@@ATL@@V23@@Z DD 0ffffffffH
	DD	FLAT:__unwindfunclet$?ParsingstrHtml@CDlgResult@@QAE?AV?$CStringT@DV?$StrTraitMFC_DLL@DV?$ChTraitsCRT@D@ATL@@@@@ATL@@V23@@Z$40
	DD	00H
	DD	FLAT:__unwindfunclet$?ParsingstrHtml@CDlgResult@@QAE?AV?$CStringT@DV?$StrTraitMFC_DLL@DV?$ChTraitsCRT@D@ATL@@@@@ATL@@V23@@Z$0
	DD	01H
	DD	FLAT:__unwindfunclet$?ParsingstrHtml@CDlgResult@@QAE?AV?$CStringT@DV?$StrTraitMFC_DLL@DV?$ChTraitsCRT@D@ATL@@@@@ATL@@V23@@Z$1
	DD	02H
	DD	FLAT:__unwindfunclet$?ParsingstrHtml@CDlgResult@@QAE?AV?$CStringT@DV?$StrTraitMFC_DLL@DV?$ChTraitsCRT@D@ATL@@@@@ATL@@V23@@Z$2
	DD	03H
	DD	FLAT:__unwindfunclet$?ParsingstrHtml@CDlgResult@@QAE?AV?$CStringT@DV?$StrTraitMFC_DLL@DV?$ChTraitsCRT@D@ATL@@@@@ATL@@V23@@Z$3
	DD	04H
	DD	FLAT:__unwindfunclet$?ParsingstrHtml@CDlgResult@@QAE?AV?$CStringT@DV?$StrTraitMFC_DLL@DV?$ChTraitsCRT@D@ATL@@@@@ATL@@V23@@Z$4
	DD	05H
	DD	FLAT:__unwindfunclet$?ParsingstrHtml@CDlgResult@@QAE?AV?$CStringT@DV?$StrTraitMFC_DLL@DV?$ChTraitsCRT@D@ATL@@@@@ATL@@V23@@Z$5
	DD	06H
	DD	FLAT:__unwindfunclet$?ParsingstrHtml@CDlgResult@@QAE?AV?$CStringT@DV?$StrTraitMFC_DLL@DV?$ChTraitsCRT@D@ATL@@@@@ATL@@V23@@Z$6
	DD	07H
	DD	FLAT:__unwindfunclet$?ParsingstrHtml@CDlgResult@@QAE?AV?$CStringT@DV?$StrTraitMFC_DLL@DV?$ChTraitsCRT@D@ATL@@@@@ATL@@V23@@Z$7
	DD	08H
	DD	FLAT:__unwindfunclet$?ParsingstrHtml@CDlgResult@@QAE?AV?$CStringT@DV?$StrTraitMFC_DLL@DV?$ChTraitsCRT@D@ATL@@@@@ATL@@V23@@Z$8
	DD	09H
	DD	FLAT:__unwindfunclet$?ParsingstrHtml@CDlgResult@@QAE?AV?$CStringT@DV?$StrTraitMFC_DLL@DV?$ChTraitsCRT@D@ATL@@@@@ATL@@V23@@Z$9
	DD	0aH
	DD	FLAT:__unwindfunclet$?ParsingstrHtml@CDlgResult@@QAE?AV?$CStringT@DV?$StrTraitMFC_DLL@DV?$ChTraitsCRT@D@ATL@@@@@ATL@@V23@@Z$10
	DD	0bH
	DD	FLAT:__unwindfunclet$?ParsingstrHtml@CDlgResult@@QAE?AV?$CStringT@DV?$StrTraitMFC_DLL@DV?$ChTraitsCRT@D@ATL@@@@@ATL@@V23@@Z$11
	DD	0cH
	DD	FLAT:__unwindfunclet$?ParsingstrHtml@CDlgResult@@QAE?AV?$CStringT@DV?$StrTraitMFC_DLL@DV?$ChTraitsCRT@D@ATL@@@@@ATL@@V23@@Z$12
	DD	0dH
	DD	FLAT:__unwindfunclet$?ParsingstrHtml@CDlgResult@@QAE?AV?$CStringT@DV?$StrTraitMFC_DLL@DV?$ChTraitsCRT@D@ATL@@@@@ATL@@V23@@Z$13
	DD	0eH
	DD	FLAT:__unwindfunclet$?ParsingstrHtml@CDlgResult@@QAE?AV?$CStringT@DV?$StrTraitMFC_DLL@DV?$ChTraitsCRT@D@ATL@@@@@ATL@@V23@@Z$14
	DD	0fH
	DD	FLAT:__unwindfunclet$?ParsingstrHtml@CDlgResult@@QAE?AV?$CStringT@DV?$StrTraitMFC_DLL@DV?$ChTraitsCRT@D@ATL@@@@@ATL@@V23@@Z$15
	DD	010H
	DD	FLAT:__unwindfunclet$?ParsingstrHtml@CDlgResult@@QAE?AV?$CStringT@DV?$StrTraitMFC_DLL@DV?$ChTraitsCRT@D@ATL@@@@@ATL@@V23@@Z$16
	DD	011H
	DD	FLAT:__unwindfunclet$?ParsingstrHtml@CDlgResult@@QAE?AV?$CStringT@DV?$StrTraitMFC_DLL@DV?$ChTraitsCRT@D@ATL@@@@@ATL@@V23@@Z$17
	DD	012H
	DD	FLAT:__unwindfunclet$?ParsingstrHtml@CDlgResult@@QAE?AV?$CStringT@DV?$StrTraitMFC_DLL@DV?$ChTraitsCRT@D@ATL@@@@@ATL@@V23@@Z$18
	DD	013H
	DD	FLAT:__unwindfunclet$?ParsingstrHtml@CDlgResult@@QAE?AV?$CStringT@DV?$StrTraitMFC_DLL@DV?$ChTraitsCRT@D@ATL@@@@@ATL@@V23@@Z$19
	DD	014H
	DD	FLAT:__unwindfunclet$?ParsingstrHtml@CDlgResult@@QAE?AV?$CStringT@DV?$StrTraitMFC_DLL@DV?$ChTraitsCRT@D@ATL@@@@@ATL@@V23@@Z$20
	DD	015H
	DD	FLAT:__unwindfunclet$?ParsingstrHtml@CDlgResult@@QAE?AV?$CStringT@DV?$StrTraitMFC_DLL@DV?$ChTraitsCRT@D@ATL@@@@@ATL@@V23@@Z$21
	DD	016H
	DD	FLAT:__unwindfunclet$?ParsingstrHtml@CDlgResult@@QAE?AV?$CStringT@DV?$StrTraitMFC_DLL@DV?$ChTraitsCRT@D@ATL@@@@@ATL@@V23@@Z$22
	DD	017H
	DD	FLAT:__unwindfunclet$?ParsingstrHtml@CDlgResult@@QAE?AV?$CStringT@DV?$StrTraitMFC_DLL@DV?$ChTraitsCRT@D@ATL@@@@@ATL@@V23@@Z$23
	DD	018H
	DD	FLAT:__unwindfunclet$?ParsingstrHtml@CDlgResult@@QAE?AV?$CStringT@DV?$StrTraitMFC_DLL@DV?$ChTraitsCRT@D@ATL@@@@@ATL@@V23@@Z$24
	DD	019H
	DD	FLAT:__unwindfunclet$?ParsingstrHtml@CDlgResult@@QAE?AV?$CStringT@DV?$StrTraitMFC_DLL@DV?$ChTraitsCRT@D@ATL@@@@@ATL@@V23@@Z$25
	DD	01aH
	DD	FLAT:__unwindfunclet$?ParsingstrHtml@CDlgResult@@QAE?AV?$CStringT@DV?$StrTraitMFC_DLL@DV?$ChTraitsCRT@D@ATL@@@@@ATL@@V23@@Z$26
	DD	01bH
	DD	FLAT:__unwindfunclet$?ParsingstrHtml@CDlgResult@@QAE?AV?$CStringT@DV?$StrTraitMFC_DLL@DV?$ChTraitsCRT@D@ATL@@@@@ATL@@V23@@Z$27
	DD	01cH
	DD	FLAT:__unwindfunclet$?ParsingstrHtml@CDlgResult@@QAE?AV?$CStringT@DV?$StrTraitMFC_DLL@DV?$ChTraitsCRT@D@ATL@@@@@ATL@@V23@@Z$28
	DD	01dH
	DD	FLAT:__unwindfunclet$?ParsingstrHtml@CDlgResult@@QAE?AV?$CStringT@DV?$StrTraitMFC_DLL@DV?$ChTraitsCRT@D@ATL@@@@@ATL@@V23@@Z$29
	DD	01eH
	DD	FLAT:__unwindfunclet$?ParsingstrHtml@CDlgResult@@QAE?AV?$CStringT@DV?$StrTraitMFC_DLL@DV?$ChTraitsCRT@D@ATL@@@@@ATL@@V23@@Z$30
	DD	01fH
	DD	FLAT:__unwindfunclet$?ParsingstrHtml@CDlgResult@@QAE?AV?$CStringT@DV?$StrTraitMFC_DLL@DV?$ChTraitsCRT@D@ATL@@@@@ATL@@V23@@Z$31
	DD	020H
	DD	FLAT:__unwindfunclet$?ParsingstrHtml@CDlgResult@@QAE?AV?$CStringT@DV?$StrTraitMFC_DLL@DV?$ChTraitsCRT@D@ATL@@@@@ATL@@V23@@Z$32
	DD	021H
	DD	FLAT:__unwindfunclet$?ParsingstrHtml@CDlgResult@@QAE?AV?$CStringT@DV?$StrTraitMFC_DLL@DV?$ChTraitsCRT@D@ATL@@@@@ATL@@V23@@Z$33
	DD	022H
	DD	FLAT:__unwindfunclet$?ParsingstrHtml@CDlgResult@@QAE?AV?$CStringT@DV?$StrTraitMFC_DLL@DV?$ChTraitsCRT@D@ATL@@@@@ATL@@V23@@Z$34
	DD	023H
	DD	FLAT:__unwindfunclet$?ParsingstrHtml@CDlgResult@@QAE?AV?$CStringT@DV?$StrTraitMFC_DLL@DV?$ChTraitsCRT@D@ATL@@@@@ATL@@V23@@Z$35
	DD	024H
	DD	FLAT:__unwindfunclet$?ParsingstrHtml@CDlgResult@@QAE?AV?$CStringT@DV?$StrTraitMFC_DLL@DV?$ChTraitsCRT@D@ATL@@@@@ATL@@V23@@Z$36
	DD	02H
	DD	FLAT:__unwindfunclet$?ParsingstrHtml@CDlgResult@@QAE?AV?$CStringT@DV?$StrTraitMFC_DLL@DV?$ChTraitsCRT@D@ATL@@@@@ATL@@V23@@Z$38
	DD	026H
	DD	FLAT:__unwindfunclet$?ParsingstrHtml@CDlgResult@@QAE?AV?$CStringT@DV?$StrTraitMFC_DLL@DV?$ChTraitsCRT@D@ATL@@@@@ATL@@V23@@Z$39
	DD	027H
	DD	FLAT:__unwindfunclet$?ParsingstrHtml@CDlgResult@@QAE?AV?$CStringT@DV?$StrTraitMFC_DLL@DV?$ChTraitsCRT@D@ATL@@@@@ATL@@V23@@Z$41
	DD	028H
	DD	FLAT:__unwindfunclet$?ParsingstrHtml@CDlgResult@@QAE?AV?$CStringT@DV?$StrTraitMFC_DLL@DV?$ChTraitsCRT@D@ATL@@@@@ATL@@V23@@Z$42
xdata$x	ENDS
;	COMDAT xdata$x
xdata$x	SEGMENT
__unwindtable$?SetDataDir@CDlgResult@@QAEXV?$CStringT@DV?$StrTraitMFC_DLL@DV?$ChTraitsCRT@D@ATL@@@@@ATL@@@Z DD 0ffffffffH
	DD	FLAT:__unwindfunclet$?SetDataDir@CDlgResult@@QAEXV?$CStringT@DV?$StrTraitMFC_DLL@DV?$ChTraitsCRT@D@ATL@@@@@ATL@@@Z$0
__ehfuncinfo$?SetDataDir@CDlgResult@@QAEXV?$CStringT@DV?$StrTraitMFC_DLL@DV?$ChTraitsCRT@D@ATL@@@@@ATL@@@Z DD 019930522H
	DD	01H
	DD	FLAT:__unwindtable$?SetDataDir@CDlgResult@@QAEXV?$CStringT@DV?$StrTraitMFC_DLL@DV?$ChTraitsCRT@D@ATL@@@@@ATL@@@Z
	DD	2 DUP(00H)
	DD	2 DUP(00H)
	DD	00H
	DD	01H
xdata$x	ENDS
;	COMDAT xdata$x
xdata$x	SEGMENT
__ehfuncinfo$?MakeHtmlFile@CDlgResult@@QAEXXZ DD 019930522H
	DD	08H
	DD	FLAT:__unwindtable$?MakeHtmlFile@CDlgResult@@QAEXXZ
	DD	2 DUP(00H)
	DD	2 DUP(00H)
	DD	00H
	DD	01H
__unwindtable$?MakeHtmlFile@CDlgResult@@QAEXXZ DD 0ffffffffH
	DD	FLAT:__unwindfunclet$?MakeHtmlFile@CDlgResult@@QAEXXZ$0
	DD	00H
	DD	FLAT:__unwindfunclet$?MakeHtmlFile@CDlgResult@@QAEXXZ$1
	DD	01H
	DD	FLAT:__unwindfunclet$?MakeHtmlFile@CDlgResult@@QAEXXZ$6
	DD	02H
	DD	FLAT:__unwindfunclet$?MakeHtmlFile@CDlgResult@@QAEXXZ$7
	DD	03H
	DD	FLAT:__unwindfunclet$?MakeHtmlFile@CDlgResult@@QAEXXZ$9
	DD	01H
	DD	FLAT:__unwindfunclet$?MakeHtmlFile@CDlgResult@@QAEXXZ$3
	DD	01H
	DD	FLAT:__unwindfunclet$?MakeHtmlFile@CDlgResult@@QAEXXZ$10
	DD	01H
	DD	FLAT:__unwindfunclet$?MakeHtmlFile@CDlgResult@@QAEXXZ$11
xdata$x	ENDS
;	COMDAT xdata$x
xdata$x	SEGMENT
__unwindtable$?InitHtml@CDlgResult@@QAEXXZ DD 0ffffffffH
	DD	FLAT:__unwindfunclet$?InitHtml@CDlgResult@@QAEXXZ$0
	DD	00H
	DD	FLAT:__unwindfunclet$?InitHtml@CDlgResult@@QAEXXZ$1
	DD	01H
	DD	FLAT:__unwindfunclet$?InitHtml@CDlgResult@@QAEXXZ$3
__ehfuncinfo$?InitHtml@CDlgResult@@QAEXXZ DD 019930522H
	DD	03H
	DD	FLAT:__unwindtable$?InitHtml@CDlgResult@@QAEXXZ
	DD	2 DUP(00H)
	DD	2 DUP(00H)
	DD	00H
	DD	01H
xdata$x	ENDS
;	COMDAT xdata$x
xdata$x	SEGMENT
__ehfuncinfo$??0CDlgResult@@QAE@PAVCWnd@@@Z DD 019930522H
	DD	05H
	DD	FLAT:__unwindtable$??0CDlgResult@@QAE@PAVCWnd@@@Z
	DD	2 DUP(00H)
	DD	2 DUP(00H)
	DD	00H
	DD	01H
__unwindtable$??0CDlgResult@@QAE@PAVCWnd@@@Z DD 0ffffffffH
	DD	FLAT:__unwindfunclet$??0CDlgResult@@QAE@PAVCWnd@@@Z$0
	DD	00H
	DD	FLAT:__unwindfunclet$??0CDlgResult@@QAE@PAVCWnd@@@Z$1
	DD	01H
	DD	FLAT:__unwindfunclet$??0CDlgResult@@QAE@PAVCWnd@@@Z$2
	DD	02H
	DD	FLAT:__unwindfunclet$??0CDlgResult@@QAE@PAVCWnd@@@Z$3
	DD	03H
	DD	FLAT:__unwindfunclet$??0CDlgResult@@QAE@PAVCWnd@@@Z$4
xdata$x	ENDS
;	COMDAT xdata$x
xdata$x	SEGMENT
__catchsym$??1CGdiObject@@UAE@XZ$3 DD 00H
	DD	FLAT:??_R0PAVCException@@@8
	DD	0fffffde4H
	DD	FLAT:__catch$??1CGdiObject@@UAE@XZ$0
__tryblocktable$??1CGdiObject@@UAE@XZ DD 00H
	DD	00H
	DD	02H
	DD	01H
	DD	FLAT:__catchsym$??1CGdiObject@@UAE@XZ$3
__unwindtable$??1CGdiObject@@UAE@XZ DD 0ffffffffH
	DD	00H
	DD	0ffffffffH
	DD	00H
	DD	01H
	DD	FLAT:__unwindfunclet$??1CGdiObject@@UAE@XZ$2
__ehfuncinfo$??1CGdiObject@@UAE@XZ DD 019930522H
	DD	03H
	DD	FLAT:__unwindtable$??1CGdiObject@@UAE@XZ
	DD	01H
	DD	FLAT:__tryblocktable$??1CGdiObject@@UAE@XZ
	DD	2 DUP(00H)
	DD	00H
	DD	05H
xdata$x	ENDS
;	COMDAT xdata$x
xdata$x	SEGMENT
__unwindtable$??HATL@@YA?AV?$CStringT@DV?$StrTraitMFC_DLL@DV?$ChTraitsCRT@D@ATL@@@@@0@ABV10@PBD@Z DD 0ffffffffH
	DD	FLAT:__unwindfunclet$??HATL@@YA?AV?$CStringT@DV?$StrTraitMFC_DLL@DV?$ChTraitsCRT@D@ATL@@@@@0@ABV10@PBD@Z$0
__ehfuncinfo$??HATL@@YA?AV?$CStringT@DV?$StrTraitMFC_DLL@DV?$ChTraitsCRT@D@ATL@@@@@0@ABV10@PBD@Z DD 019930522H
	DD	01H
	DD	FLAT:__unwindtable$??HATL@@YA?AV?$CStringT@DV?$StrTraitMFC_DLL@DV?$ChTraitsCRT@D@ATL@@@@@0@ABV10@PBD@Z
	DD	2 DUP(00H)
	DD	2 DUP(00H)
	DD	00H
	DD	01H
xdata$x	ENDS
CRT$XCU	SEGMENT
?RMSG_STTREE_ITEMDBLCLK$initializer$@@3P6AXXZA DD FLAT:??__ERMSG_STTREE_ITEMDBLCLK@@YAXXZ ; RMSG_STTREE_ITEMDBLCLK$initializer$
CRT$XCU	ENDS
; Function compile flags: /Ogtp
; File C:\Program Files (x86)\Microsoft Visual Studio\2019\Community\VC\Tools\MSVC\14.29.30133\atlmfc\include\afxwin1.inl
; File C:\Program Files (x86)\Microsoft Visual Studio\2019\Community\VC\Tools\MSVC\14.29.30133\atlmfc\include\afx.inl
;	COMDAT ??_GCDlgResult@@UAEPAXI@Z
_TEXT	SEGMENT
___flags$ = 8						; size = 4
??_GCDlgResult@@UAEPAXI@Z PROC				; CDlgResult::`scalar deleting destructor', COMDAT
; _this$ = ecx
  00000	55		 push	 ebp
  00001	8b ec		 mov	 ebp, esp
; File C:\Program Files (x86)\Microsoft Visual Studio\2019\Community\VC\Tools\MSVC\14.29.30133\atlmfc\include\afxwin1.inl

; 130  : 	{ }

  00003	56		 push	 esi
  00004	8b f1		 mov	 esi, ecx
  00006	8d 8e c0 00 00
	00		 lea	 ecx, DWORD PTR [esi+192]
  0000c	e8 00 00 00 00	 call	 ??1CGridCtrl@@UAE@XZ	; CGridCtrl::~CGridCtrl
  00011	8d 8e b8 00 00
	00		 lea	 ecx, DWORD PTR [esi+184]
  00017	c7 01 00 00 00
	00		 mov	 DWORD PTR [ecx], OFFSET ??_7CBrush@@6B@
  0001d	e8 00 00 00 00	 call	 ??1CGdiObject@@UAE@XZ	; CGdiObject::~CGdiObject
  00022	8d 8e b4 00 00
	00		 lea	 ecx, DWORD PTR [esi+180]
  00028	ff 15 00 00 00
	00		 call	 DWORD PTR __imp_??1?$CStringT@DV?$StrTraitMFC_DLL@DV?$ChTraitsCRT@D@ATL@@@@@ATL@@QAE@XZ
  0002e	8d 8e b0 00 00
	00		 lea	 ecx, DWORD PTR [esi+176]
  00034	ff 15 00 00 00
	00		 call	 DWORD PTR __imp_??1?$CStringT@DV?$StrTraitMFC_DLL@DV?$ChTraitsCRT@D@ATL@@@@@ATL@@QAE@XZ
  0003a	8d 8e ac 00 00
	00		 lea	 ecx, DWORD PTR [esi+172]
  00040	ff 15 00 00 00
	00		 call	 DWORD PTR __imp_??1?$CStringT@DV?$StrTraitMFC_DLL@DV?$ChTraitsCRT@D@ATL@@@@@ATL@@QAE@XZ
  00046	8b ce		 mov	 ecx, esi
  00048	e8 00 00 00 00	 call	 ??1CDialog@@UAE@XZ	; CDialog::~CDialog
  0004d	8b 45 08	 mov	 eax, DWORD PTR ___flags$[ebp]
  00050	a8 01		 test	 al, 1
  00052	74 22		 je	 SHORT $LN18@scalar
  00054	a8 04		 test	 al, 4
  00056	75 10		 jne	 SHORT $LN3@scalar
; File C:\Program Files (x86)\Microsoft Visual Studio\2019\Community\VC\Tools\MSVC\14.29.30133\atlmfc\include\afx.inl

; 112  : 	{ ::operator delete(p); }

  00058	56		 push	 esi
  00059	e8 00 00 00 00	 call	 ??3@YAXPAX@Z		; operator delete
  0005e	83 c4 04	 add	 esp, 4
  00061	8b c6		 mov	 eax, esi
  00063	5e		 pop	 esi
  00064	5d		 pop	 ebp
  00065	c2 04 00	 ret	 4
$LN3@scalar:
  00068	68 58 05 00 00	 push	 1368			; 00000558H
  0006d	56		 push	 esi
  0006e	e8 00 00 00 00	 call	 ?__global_delete@@YAXPAXI@Z ; __global_delete
  00073	83 c4 08	 add	 esp, 8
$LN18@scalar:
  00076	8b c6		 mov	 eax, esi
  00078	5e		 pop	 esi
  00079	5d		 pop	 ebp
  0007a	c2 04 00	 ret	 4
??_GCDlgResult@@UAEPAXI@Z ENDP				; CDlgResult::`scalar deleting destructor'
_TEXT	ENDS
; Function compile flags: /Ogtp
; File D:\git\src\IBK\IBK_DRFN\ProjSrc\SrcDrfn\Chart\INDEXOPTIMIZER\DlgResult.cpp
; File C:\Program Files (x86)\Microsoft Visual Studio\2019\Community\VC\Tools\MSVC\14.29.30133\atlmfc\include\cstringt.h
; File D:\git\src\IBK\IBK_DRFN\ProjSrc\SrcDrfn\Chart\INDEXOPTIMIZER\DlgResult.cpp
; File C:\Program Files (x86)\Microsoft Visual Studio\2019\Community\VC\Tools\MSVC\14.29.30133\atlmfc\include\cstringt.h
; File C:\Program Files (x86)\Microsoft Visual Studio\2019\Community\VC\Tools\MSVC\14.29.30133\atlmfc\include\atlsimpstr.h
; File C:\Program Files (x86)\Microsoft Visual Studio\2019\Community\VC\Tools\MSVC\14.29.30133\atlmfc\include\cstringt.h
; File D:\git\src\IBK\IBK_DRFN\ProjSrc\SrcDrfn\Chart\INDEXOPTIMIZER\DlgResult.cpp
; File C:\Program Files (x86)\Microsoft Visual Studio\2019\Community\VC\Tools\MSVC\14.29.30133\atlmfc\include\cstringt.h
; File D:\git\src\IBK\IBK_DRFN\ProjSrc\SrcDrfn\Chart\INDEXOPTIMIZER\DlgResult.cpp
; File C:\Program Files (x86)\Microsoft Visual Studio\2019\Community\VC\Tools\MSVC\14.29.30133\atlmfc\include\cstringt.h
; File C:\Program Files (x86)\Microsoft Visual Studio\2019\Community\VC\Tools\MSVC\14.29.30133\atlmfc\include\atlsimpstr.h
; File C:\Program Files (x86)\Microsoft Visual Studio\2019\Community\VC\Tools\MSVC\14.29.30133\atlmfc\include\cstringt.h
; File D:\git\src\IBK\IBK_DRFN\ProjSrc\SrcDrfn\Chart\INDEXOPTIMIZER\DlgResult.cpp
; File C:\Program Files (x86)\Microsoft Visual Studio\2019\Community\VC\Tools\MSVC\14.29.30133\atlmfc\include\cstringt.h
; File D:\git\src\IBK\IBK_DRFN\ProjSrc\SrcDrfn\Chart\INDEXOPTIMIZER\DlgResult.cpp
; File C:\Program Files (x86)\Microsoft Visual Studio\2019\Community\VC\Tools\MSVC\14.29.30133\atlmfc\include\cstringt.h
; File C:\Program Files (x86)\Microsoft Visual Studio\2019\Community\VC\Tools\MSVC\14.29.30133\atlmfc\include\atlsimpstr.h
; File C:\Program Files (x86)\Microsoft Visual Studio\2019\Community\VC\Tools\MSVC\14.29.30133\atlmfc\include\cstringt.h
; File D:\git\src\IBK\IBK_DRFN\ProjSrc\SrcDrfn\Chart\INDEXOPTIMIZER\DlgResult.cpp
; File C:\Program Files (x86)\Microsoft Visual Studio\2019\Community\VC\Tools\MSVC\14.29.30133\atlmfc\include\cstringt.h
; File D:\git\src\IBK\IBK_DRFN\ProjSrc\SrcDrfn\Chart\INDEXOPTIMIZER\DlgResult.cpp
; File C:\Program Files (x86)\Microsoft Visual Studio\2019\Community\VC\Tools\MSVC\14.29.30133\atlmfc\include\cstringt.h
; File C:\Program Files (x86)\Microsoft Visual Studio\2019\Community\VC\Tools\MSVC\14.29.30133\atlmfc\include\atlsimpstr.h
; File C:\Program Files (x86)\Microsoft Visual Studio\2019\Community\VC\Tools\MSVC\14.29.30133\atlmfc\include\cstringt.h
; File D:\git\src\IBK\IBK_DRFN\ProjSrc\SrcDrfn\Chart\INDEXOPTIMIZER\DlgResult.cpp
; File C:\Program Files (x86)\Microsoft Visual Studio\2019\Community\VC\Tools\MSVC\14.29.30133\atlmfc\include\cstringt.h
; File D:\git\src\IBK\IBK_DRFN\ProjSrc\SrcDrfn\Chart\INDEXOPTIMIZER\DlgResult.cpp
; File C:\Program Files (x86)\Microsoft Visual Studio\2019\Community\VC\Tools\MSVC\14.29.30133\atlmfc\include\cstringt.h
; File C:\Program Files (x86)\Microsoft Visual Studio\2019\Community\VC\Tools\MSVC\14.29.30133\atlmfc\include\atlsimpstr.h
; File C:\Program Files (x86)\Microsoft Visual Studio\2019\Community\VC\Tools\MSVC\14.29.30133\atlmfc\include\cstringt.h
; File D:\git\src\IBK\IBK_DRFN\ProjSrc\SrcDrfn\Chart\INDEXOPTIMIZER\DlgResult.cpp
; File C:\Program Files (x86)\Microsoft Visual Studio\2019\Community\VC\Tools\MSVC\14.29.30133\atlmfc\include\cstringt.h
; File D:\git\src\IBK\IBK_DRFN\ProjSrc\SrcDrfn\Chart\INDEXOPTIMIZER\DlgResult.cpp
; File C:\Program Files (x86)\Microsoft Visual Studio\2019\Community\VC\Tools\MSVC\14.29.30133\atlmfc\include\cstringt.h
; File C:\Program Files (x86)\Microsoft Visual Studio\2019\Community\VC\Tools\MSVC\14.29.30133\atlmfc\include\atlsimpstr.h
; File C:\Program Files (x86)\Microsoft Visual Studio\2019\Community\VC\Tools\MSVC\14.29.30133\atlmfc\include\cstringt.h
; File D:\git\src\IBK\IBK_DRFN\ProjSrc\SrcDrfn\Chart\INDEXOPTIMIZER\DlgResult.cpp
; File C:\Program Files (x86)\Microsoft Visual Studio\2019\Community\VC\Tools\MSVC\14.29.30133\atlmfc\include\cstringt.h
; File D:\git\src\IBK\IBK_DRFN\ProjSrc\SrcDrfn\Chart\INDEXOPTIMIZER\DlgResult.cpp
; File C:\Program Files (x86)\Microsoft Visual Studio\2019\Community\VC\Tools\MSVC\14.29.30133\atlmfc\include\cstringt.h
; File C:\Program Files (x86)\Microsoft Visual Studio\2019\Community\VC\Tools\MSVC\14.29.30133\atlmfc\include\atlsimpstr.h
; File C:\Program Files (x86)\Microsoft Visual Studio\2019\Community\VC\Tools\MSVC\14.29.30133\atlmfc\include\cstringt.h
; File D:\git\src\IBK\IBK_DRFN\ProjSrc\SrcDrfn\Chart\INDEXOPTIMIZER\DlgResult.cpp
;	COMDAT ?SetDataSpreadGrid@CDlgResult@@QAEXXZ
_TEXT	SEGMENT
_stData$ = -104						; size = 32
_strName$ = -72						; size = 4
$T2 = -68						; size = 4
_this$1$ = -64						; size = 4
_Strate$1$ = -60					; size = 4
_strACCumProf$ = -56					; size = 4
$T3 = -52						; size = 4
$T4 = -48						; size = 4
$T5 = -44						; size = 4
$T6 = -40						; size = 4
$T7 = -36						; size = 4
$T8 = -32						; size = 4
$T9 = -28						; size = 4
tv1101 = -24						; size = 8
_Data$ = -24						; size = 8
$T10 = -20						; size = 4
_strData$ = -16						; size = 4
__$EHRec$ = -12						; size = 12
?SetDataSpreadGrid@CDlgResult@@QAEXXZ PROC		; CDlgResult::SetDataSpreadGrid, COMDAT
; _this$ = ecx

; 117  : {

  00000	55		 push	 ebp
  00001	8b ec		 mov	 ebp, esp
  00003	6a ff		 push	 -1
  00005	68 00 00 00 00	 push	 __ehhandler$?SetDataSpreadGrid@CDlgResult@@QAEXXZ
  0000a	64 a1 00 00 00
	00		 mov	 eax, DWORD PTR fs:0
  00010	50		 push	 eax
  00011	83 ec 5c	 sub	 esp, 92			; 0000005cH
  00014	53		 push	 ebx
  00015	56		 push	 esi
  00016	57		 push	 edi
  00017	a1 00 00 00 00	 mov	 eax, DWORD PTR ___security_cookie
  0001c	33 c5		 xor	 eax, ebp
  0001e	50		 push	 eax
  0001f	8d 45 f4	 lea	 eax, DWORD PTR __$EHRec$[ebp]
  00022	64 a3 00 00 00
	00		 mov	 DWORD PTR fs:0, eax
  00028	8b f9		 mov	 edi, ecx
  0002a	89 7d c0	 mov	 DWORD PTR _this$1$[ebp], edi
  0002d	33 db		 xor	 ebx, ebx

; 118  : 	CString strName;

  0002f	8d 4d b8	 lea	 ecx, DWORD PTR _strName$[ebp]
  00032	89 5d ec	 mov	 DWORD PTR $T10[ebp], ebx
  00035	ff 15 00 00 00
	00		 call	 DWORD PTR __imp_??0?$CStringT@DV?$StrTraitMFC_DLL@DV?$ChTraitsCRT@D@ATL@@@@@ATL@@QAE@XZ
  0003b	8d 4d a0	 lea	 ecx, DWORD PTR _stData$[ebp+8]
  0003e	89 5d fc	 mov	 DWORD PTR __$EHRec$[ebp+8], ebx
  00041	ff 15 00 00 00
	00		 call	 DWORD PTR __imp_??0?$CStringT@DV?$StrTraitMFC_DLL@DV?$ChTraitsCRT@D@ATL@@@@@ATL@@QAE@XZ
  00047	8d 4d a4	 lea	 ecx, DWORD PTR _stData$[ebp+12]
  0004a	ff 15 00 00 00
	00		 call	 DWORD PTR __imp_??0?$CStringT@DV?$StrTraitMFC_DLL@DV?$ChTraitsCRT@D@ATL@@@@@ATL@@QAE@XZ
  00050	8d 4d a8	 lea	 ecx, DWORD PTR _stData$[ebp+16]
  00053	ff 15 00 00 00
	00		 call	 DWORD PTR __imp_??0?$CStringT@DV?$StrTraitMFC_DLL@DV?$ChTraitsCRT@D@ATL@@@@@ATL@@QAE@XZ
  00059	8d 4d ac	 lea	 ecx, DWORD PTR _stData$[ebp+20]
  0005c	ff 15 00 00 00
	00		 call	 DWORD PTR __imp_??0?$CStringT@DV?$StrTraitMFC_DLL@DV?$ChTraitsCRT@D@ATL@@@@@ATL@@QAE@XZ
  00062	8d 4d b0	 lea	 ecx, DWORD PTR _stData$[ebp+24]
  00065	ff 15 00 00 00
	00		 call	 DWORD PTR __imp_??0?$CStringT@DV?$StrTraitMFC_DLL@DV?$ChTraitsCRT@D@ATL@@@@@ATL@@QAE@XZ
  0006b	8d 4d b4	 lea	 ecx, DWORD PTR _stData$[ebp+28]
  0006e	ff 15 00 00 00
	00		 call	 DWORD PTR __imp_??0?$CStringT@DV?$StrTraitMFC_DLL@DV?$ChTraitsCRT@D@ATL@@@@@ATL@@QAE@XZ

; 119  : 	ST_DATAINDEX stData;
; 120  : 	double Data;
; 121  : 	CString strData;

  00074	8d 4d f0	 lea	 ecx, DWORD PTR _strData$[ebp]
  00077	ff 15 00 00 00
	00		 call	 DWORD PTR __imp_??0?$CStringT@DV?$StrTraitMFC_DLL@DV?$ChTraitsCRT@D@ATL@@@@@ATL@@QAE@XZ

; 122  : 	DWORD nFormat = DT_RIGHT|DT_VCENTER|DT_SINGLELINE|DT_NOPREFIX;// 
; 123  : 
; 124  : 	CIStrategyItem* Strate =  m_pOptimizer->GetStrategyItem();

  0007d	8b 87 a8 00 00
	00		 mov	 eax, DWORD PTR [edi+168]
  00083	c6 45 fc 02	 mov	 BYTE PTR __$EHRec$[ebp+8], 2
  00087	8b b0 10 05 00
	00		 mov	 esi, DWORD PTR [eax+1296]

; 125  : 	int nSize = Strate->GetCntStrategyResult();

  0008d	8b ce		 mov	 ecx, esi
  0008f	89 75 c4	 mov	 DWORD PTR _Strate$1$[ebp], esi
  00092	8b 06		 mov	 eax, DWORD PTR [esi]
  00094	ff 50 48	 call	 DWORD PTR [eax+72]

; 126  : 
; 127  : 	//   
; 128  : 	Data = Strate->GetStatisticalInfo(0);

  00097	8b 06		 mov	 eax, DWORD PTR [esi]
  00099	8b ce		 mov	 ecx, esi
  0009b	53		 push	 ebx
  0009c	8b 40 50	 mov	 eax, DWORD PTR [eax+80]
  0009f	ff d0		 call	 eax

; 129  : 	strData.Format("%.2f%%", Data);

  000a1	83 ec 08	 sub	 esp, 8
  000a4	8d 45 f0	 lea	 eax, DWORD PTR _strData$[ebp]
  000a7	dd 5d e8	 fstp	 QWORD PTR _Data$[ebp]
  000aa	f2 0f 10 45 e8	 movsd	 xmm0, QWORD PTR _Data$[ebp]
  000af	f2 0f 11 04 24	 movsd	 QWORD PTR [esp], xmm0
  000b4	68 00 00 00 00	 push	 OFFSET ??_C@_06NBGJEFCJ@?$CF?42f?$CF?$CF@
  000b9	50		 push	 eax
  000ba	ff 15 00 00 00
	00		 call	 DWORD PTR __imp_?Format@?$CStringT@DV?$StrTraitMFC_DLL@DV?$ChTraitsCRT@D@ATL@@@@@ATL@@QAAXPBDZZ
  000c0	83 c4 10	 add	 esp, 16			; 00000010H

; 130  : 	CString strACCumProf;

  000c3	8d 4d c8	 lea	 ecx, DWORD PTR _strACCumProf$[ebp]
  000c6	ff 15 00 00 00
	00		 call	 DWORD PTR __imp_??0?$CStringT@DV?$StrTraitMFC_DLL@DV?$ChTraitsCRT@D@ATL@@@@@ATL@@QAE@XZ

; 131  : 	strACCumProf = strData;

  000cc	8d 45 f0	 lea	 eax, DWORD PTR _strData$[ebp]
  000cf	c6 45 fc 03	 mov	 BYTE PTR __$EHRec$[ebp+8], 3
  000d3	50		 push	 eax
  000d4	8d 4d c8	 lea	 ecx, DWORD PTR _strACCumProf$[ebp]
  000d7	ff 15 00 00 00
	00		 call	 DWORD PTR __imp_??4?$CStringT@DV?$StrTraitMFC_DLL@DV?$ChTraitsCRT@D@ATL@@@@@ATL@@QAEAAV01@ABV01@@Z

; 132  : 	m_GridResult.SetItemText(0,1,strData,nFormat);//Grid

  000dd	68 26 08 00 00	 push	 2086			; 00000826H
  000e2	ff 75 f0	 push	 DWORD PTR _strData$[ebp]
  000e5	81 c7 c0 00 00
	00		 add	 edi, 192		; 000000c0H
  000eb	6a 01		 push	 1
  000ed	53		 push	 ebx
  000ee	8b cf		 mov	 ecx, edi
  000f0	e8 00 00 00 00	 call	 ?SetItemText@CGridCtrl@@QAEHHHPBDK@Z ; CGridCtrl::SetItemText

; 133  : 
; 134  : 	///////////////////////
; 135  : 	////   : 8  6   //////////////////////////////////////////////////////////////	
; 136  : 
; 137  : 	for(int i = 1; i<MAXDATANUM;i++)

  000f5	be 01 00 00 00	 mov	 esi, 1
  000fa	66 0f 1f 44 00
	00		 npad	 6
$LL4@SetDataSpr:

; 138  : 	{
; 139  : 		if(i==14) continue;//   .

  00100	83 fe 0e	 cmp	 esi, 14			; 0000000eH
  00103	0f 84 5a 05 00
	00		 je	 $LN2@SetDataSpr

; 140  : 		if(i==24)// : -  !

  00109	83 fe 18	 cmp	 esi, 24			; 00000018H
  0010c	75 7d		 jne	 SHORT $LN8@SetDataSpr

; 141  : 		{
; 142  : 			Data =atof(strACCumProf)-Strate->GetStatisticalInfo(21);

  0010e	ff 75 c8	 push	 DWORD PTR _strACCumProf$[ebp]
  00111	ff 15 00 00 00
	00		 call	 DWORD PTR __imp__atof
  00117	8b 4d c4	 mov	 ecx, DWORD PTR _Strate$1$[ebp]
  0011a	83 c4 04	 add	 esp, 4
  0011d	dd 5d e8	 fstp	 QWORD PTR tv1101[ebp]
  00120	8b 01		 mov	 eax, DWORD PTR [ecx]
  00122	6a 15		 push	 21			; 00000015H
  00124	8b 40 50	 mov	 eax, DWORD PTR [eax+80]
  00127	ff d0		 call	 eax
  00129	dc 6d e8	 fsubr	 QWORD PTR tv1101[ebp]
  0012c	dd 5d e8	 fstp	 QWORD PTR _Data$[ebp]
$LN12@SetDataSpr:

; 148  : 			strData.Format("%.2f", Data);

  0012f	f2 0f 10 45 e8	 movsd	 xmm0, QWORD PTR _Data$[ebp]
  00134	8d 45 f0	 lea	 eax, DWORD PTR _strData$[ebp]
  00137	83 ec 08	 sub	 esp, 8
  0013a	f2 0f 11 04 24	 movsd	 QWORD PTR [esp], xmm0
  0013f	68 00 00 00 00	 push	 OFFSET ??_C@_04GEFJINEE@?$CF?42f@
  00144	50		 push	 eax
  00145	ff 15 00 00 00
	00		 call	 DWORD PTR __imp_?Format@?$CStringT@DV?$StrTraitMFC_DLL@DV?$ChTraitsCRT@D@ATL@@@@@ATL@@QAAXPBDZZ
  0014b	83 c4 10	 add	 esp, 16			; 00000010H
$LN11@SetDataSpr:

; 152  : 		}
; 153  : 		strData = GetComma(strData);//Comma

  0014e	ff 75 f0	 push	 DWORD PTR _strData$[ebp]
  00151	8b 4d c0	 mov	 ecx, DWORD PTR _this$1$[ebp]
  00154	8d 45 bc	 lea	 eax, DWORD PTR $T2[ebp]
  00157	50		 push	 eax
  00158	e8 00 00 00 00	 call	 ?GetComma@CDlgResult@@QAE?AV?$CStringT@DV?$StrTraitMFC_DLL@DV?$ChTraitsCRT@D@ATL@@@@@ATL@@PBD@Z ; CDlgResult::GetComma
  0015d	50		 push	 eax
  0015e	8d 4d f0	 lea	 ecx, DWORD PTR _strData$[ebp]
  00161	c6 45 fc 04	 mov	 BYTE PTR __$EHRec$[ebp+8], 4
  00165	ff 15 00 00 00
	00		 call	 DWORD PTR __imp_??4?$CStringT@DV?$StrTraitMFC_DLL@DV?$ChTraitsCRT@D@ATL@@@@@ATL@@QAEAAV01@ABV01@@Z
  0016b	8d 4d bc	 lea	 ecx, DWORD PTR $T2[ebp]
  0016e	c6 45 fc 03	 mov	 BYTE PTR __$EHRec$[ebp+8], 3
  00172	ff 15 00 00 00
	00		 call	 DWORD PTR __imp_??1?$CStringT@DV?$StrTraitMFC_DLL@DV?$ChTraitsCRT@D@ATL@@@@@ATL@@QAE@XZ

; 154  : 
; 155  : 		switch(i) 

  00178	8d 46 ff	 lea	 eax, DWORD PTR [esi-1]
  0017b	83 f8 22	 cmp	 eax, 34			; 00000022H
  0017e	0f 87 df 04 00
	00		 ja	 $LN2@SetDataSpr
  00184	ff 24 85 00 00
	00 00		 jmp	 DWORD PTR $LN242@SetDataSpr[eax*4]
$LN8@SetDataSpr:

; 143  : 		}
; 144  : 		else
; 145  : 			Data = Strate->GetStatisticalInfo(i);

  0018b	8b 4d c4	 mov	 ecx, DWORD PTR _Strate$1$[ebp]
  0018e	56		 push	 esi
  0018f	8b 01		 mov	 eax, DWORD PTR [ecx]
  00191	8b 40 50	 mov	 eax, DWORD PTR [eax+80]
  00194	ff d0		 call	 eax
  00196	dd 5d e8	 fstp	 QWORD PTR _Data$[ebp]

; 146  : 		//   Default!! 
; 147  : 		if(i==1||i==2||i==6||i==18||i==19||i==20||i==21||i==24||i==30||i==33||i==34||i==35)

  00199	83 fe 01	 cmp	 esi, 1
  0019c	74 91		 je	 SHORT $LN12@SetDataSpr
  0019e	83 fe 02	 cmp	 esi, 2
  001a1	74 8c		 je	 SHORT $LN12@SetDataSpr
  001a3	83 fe 06	 cmp	 esi, 6
  001a6	74 87		 je	 SHORT $LN12@SetDataSpr
  001a8	83 fe 12	 cmp	 esi, 18			; 00000012H
  001ab	74 82		 je	 SHORT $LN12@SetDataSpr
  001ad	83 fe 13	 cmp	 esi, 19			; 00000013H
  001b0	0f 84 79 ff ff
	ff		 je	 $LN12@SetDataSpr
  001b6	83 fe 14	 cmp	 esi, 20			; 00000014H
  001b9	0f 84 70 ff ff
	ff		 je	 $LN12@SetDataSpr
  001bf	83 fe 15	 cmp	 esi, 21			; 00000015H
  001c2	0f 84 67 ff ff
	ff		 je	 $LN12@SetDataSpr
  001c8	83 fe 1e	 cmp	 esi, 30			; 0000001eH
  001cb	0f 84 5e ff ff
	ff		 je	 $LN12@SetDataSpr
  001d1	83 fe 21	 cmp	 esi, 33			; 00000021H
  001d4	0f 84 55 ff ff
	ff		 je	 $LN12@SetDataSpr
  001da	83 fe 22	 cmp	 esi, 34			; 00000022H
  001dd	0f 84 4c ff ff
	ff		 je	 $LN12@SetDataSpr
  001e3	83 fe 23	 cmp	 esi, 35			; 00000023H
  001e6	0f 84 43 ff ff
	ff		 je	 $LN12@SetDataSpr

; 149  : 		else
; 150  : 		{
; 151  : 			strData.Format("%d", (INT)Data);

  001ec	f2 0f 2c 45 e8	 cvttsd2si eax, QWORD PTR _Data$[ebp]
  001f1	50		 push	 eax
  001f2	8d 45 f0	 lea	 eax, DWORD PTR _strData$[ebp]
  001f5	68 00 00 00 00	 push	 OFFSET ??_C@_02DPKJAMEF@?$CFd@
  001fa	50		 push	 eax
  001fb	ff 15 00 00 00
	00		 call	 DWORD PTR __imp_?Format@?$CStringT@DV?$StrTraitMFC_DLL@DV?$ChTraitsCRT@D@ATL@@@@@ATL@@QAAXPBDZZ
  00201	83 c4 0c	 add	 esp, 12			; 0000000cH
  00204	e9 45 ff ff ff	 jmp	 $LN11@SetDataSpr
$LN13@SetDataSpr:
; File C:\Program Files (x86)\Microsoft Visual Studio\2019\Community\VC\Tools\MSVC\14.29.30133\atlmfc\include\cstringt.h

; 2401 : 		CStringT strResult( str1.GetManager() );

  00209	8d 4d f0	 lea	 ecx, DWORD PTR _strData$[ebp]
; File D:\git\src\IBK\IBK_DRFN\ProjSrc\SrcDrfn\Chart\INDEXOPTIMIZER\DlgResult.cpp

; 158  : 			m_GridResult.SetItemText(0,3,strData+"%",nFormat);//Grid

  0020c	c6 45 fc 05	 mov	 BYTE PTR __$EHRec$[ebp+8], 5
; File C:\Program Files (x86)\Microsoft Visual Studio\2019\Community\VC\Tools\MSVC\14.29.30133\atlmfc\include\cstringt.h

; 2401 : 		CStringT strResult( str1.GetManager() );

  00210	ff 15 00 00 00
	00		 call	 DWORD PTR __imp_?GetManager@?$CStringT@DV?$StrTraitMFC_DLL@DV?$ChTraitsCRT@D@ATL@@@@@ATL@@QBEPAUIAtlStringMgr@2@XZ
  00216	50		 push	 eax
  00217	8d 4d e4	 lea	 ecx, DWORD PTR $T9[ebp]
  0021a	ff 15 00 00 00
	00		 call	 DWORD PTR __imp_??0?$CStringT@DV?$StrTraitMFC_DLL@DV?$ChTraitsCRT@D@ATL@@@@@ATL@@QAE@PAUIAtlStringMgr@1@@Z
; File C:\Program Files (x86)\Microsoft Visual Studio\2019\Community\VC\Tools\MSVC\14.29.30133\atlmfc\include\atlsimpstr.h

; 519  : 		return( GetData()->nDataLength );

  00220	8b 45 f0	 mov	 eax, DWORD PTR _strData$[ebp]
; File C:\Program Files (x86)\Microsoft Visual Studio\2019\Community\VC\Tools\MSVC\14.29.30133\atlmfc\include\cstringt.h

; 2405 : 		return( strResult );

  00223	83 cb 01	 or	 ebx, 1
  00226	6a 01		 push	 1
  00228	68 00 00 00 00	 push	 OFFSET ??_C@_01FGNFDNOH@?$CF@
  0022d	89 5d ec	 mov	 DWORD PTR $T10[ebp], ebx
  00230	ff 70 f4	 push	 DWORD PTR [eax-12]
  00233	50		 push	 eax
  00234	8d 45 e4	 lea	 eax, DWORD PTR $T9[ebp]
  00237	50		 push	 eax
  00238	ff 15 00 00 00
	00		 call	 DWORD PTR __imp_?Concatenate@?$CSimpleStringT@D$00@ATL@@KAXAAV12@PBDH1H@Z
  0023e	83 c4 14	 add	 esp, 20			; 00000014H
; File D:\git\src\IBK\IBK_DRFN\ProjSrc\SrcDrfn\Chart\INDEXOPTIMIZER\DlgResult.cpp

; 158  : 			m_GridResult.SetItemText(0,3,strData+"%",nFormat);//Grid

  00241	8b cf		 mov	 ecx, edi
  00243	68 26 08 00 00	 push	 2086			; 00000826H
  00248	ff 75 e4	 push	 DWORD PTR $T9[ebp]
  0024b	6a 03		 push	 3
  0024d	6a 00		 push	 0
  0024f	e8 00 00 00 00	 call	 ?SetItemText@CGridCtrl@@QAEHHHPBDK@Z ; CGridCtrl::SetItemText
  00254	8d 4d e4	 lea	 ecx, DWORD PTR $T9[ebp]
  00257	c6 45 fc 03	 mov	 BYTE PTR __$EHRec$[ebp+8], 3
  0025b	83 e3 fe	 and	 ebx, -2			; fffffffeH
  0025e	ff 15 00 00 00
	00		 call	 DWORD PTR __imp_??1?$CStringT@DV?$StrTraitMFC_DLL@DV?$ChTraitsCRT@D@ATL@@@@@ATL@@QAE@XZ

; 159  : 			break;

  00264	e9 fa 03 00 00	 jmp	 $LN2@SetDataSpr
$LN14@SetDataSpr:
; File C:\Program Files (x86)\Microsoft Visual Studio\2019\Community\VC\Tools\MSVC\14.29.30133\atlmfc\include\cstringt.h

; 2401 : 		CStringT strResult( str1.GetManager() );

  00269	8d 4d f0	 lea	 ecx, DWORD PTR _strData$[ebp]
; File D:\git\src\IBK\IBK_DRFN\ProjSrc\SrcDrfn\Chart\INDEXOPTIMIZER\DlgResult.cpp

; 161  : 			m_GridResult.SetItemText(0,5,strData+"%",nFormat);//Grid		

  0026c	c6 45 fc 06	 mov	 BYTE PTR __$EHRec$[ebp+8], 6
; File C:\Program Files (x86)\Microsoft Visual Studio\2019\Community\VC\Tools\MSVC\14.29.30133\atlmfc\include\cstringt.h

; 2401 : 		CStringT strResult( str1.GetManager() );

  00270	ff 15 00 00 00
	00		 call	 DWORD PTR __imp_?GetManager@?$CStringT@DV?$StrTraitMFC_DLL@DV?$ChTraitsCRT@D@ATL@@@@@ATL@@QBEPAUIAtlStringMgr@2@XZ
  00276	50		 push	 eax
  00277	8d 4d e0	 lea	 ecx, DWORD PTR $T8[ebp]
  0027a	ff 15 00 00 00
	00		 call	 DWORD PTR __imp_??0?$CStringT@DV?$StrTraitMFC_DLL@DV?$ChTraitsCRT@D@ATL@@@@@ATL@@QAE@PAUIAtlStringMgr@1@@Z
; File C:\Program Files (x86)\Microsoft Visual Studio\2019\Community\VC\Tools\MSVC\14.29.30133\atlmfc\include\atlsimpstr.h

; 519  : 		return( GetData()->nDataLength );

  00280	8b 45 f0	 mov	 eax, DWORD PTR _strData$[ebp]
; File C:\Program Files (x86)\Microsoft Visual Studio\2019\Community\VC\Tools\MSVC\14.29.30133\atlmfc\include\cstringt.h

; 2405 : 		return( strResult );

  00283	83 cb 02	 or	 ebx, 2
  00286	6a 01		 push	 1
  00288	68 00 00 00 00	 push	 OFFSET ??_C@_01FGNFDNOH@?$CF@
  0028d	89 5d ec	 mov	 DWORD PTR $T10[ebp], ebx
  00290	ff 70 f4	 push	 DWORD PTR [eax-12]
  00293	50		 push	 eax
  00294	8d 45 e0	 lea	 eax, DWORD PTR $T8[ebp]
  00297	50		 push	 eax
  00298	ff 15 00 00 00
	00		 call	 DWORD PTR __imp_?Concatenate@?$CSimpleStringT@D$00@ATL@@KAXAAV12@PBDH1H@Z
  0029e	83 c4 14	 add	 esp, 20			; 00000014H
; File D:\git\src\IBK\IBK_DRFN\ProjSrc\SrcDrfn\Chart\INDEXOPTIMIZER\DlgResult.cpp

; 161  : 			m_GridResult.SetItemText(0,5,strData+"%",nFormat);//Grid		

  002a1	8b cf		 mov	 ecx, edi
  002a3	68 26 08 00 00	 push	 2086			; 00000826H
  002a8	ff 75 e0	 push	 DWORD PTR $T8[ebp]
  002ab	6a 05		 push	 5
  002ad	6a 00		 push	 0
  002af	e8 00 00 00 00	 call	 ?SetItemText@CGridCtrl@@QAEHHHPBDK@Z ; CGridCtrl::SetItemText
  002b4	8d 4d e0	 lea	 ecx, DWORD PTR $T8[ebp]
  002b7	c6 45 fc 03	 mov	 BYTE PTR __$EHRec$[ebp+8], 3
  002bb	83 e3 fd	 and	 ebx, -3			; fffffffdH
  002be	ff 15 00 00 00
	00		 call	 DWORD PTR __imp_??1?$CStringT@DV?$StrTraitMFC_DLL@DV?$ChTraitsCRT@D@ATL@@@@@ATL@@QAE@XZ

; 162  : 			break;

  002c4	e9 9a 03 00 00	 jmp	 $LN2@SetDataSpr
$LN15@SetDataSpr:

; 163  : 		case PROFITLOSSALL:
; 164  : 			m_GridResult.SetItemText(1,1,strData,nFormat);//Grid

  002c9	68 26 08 00 00	 push	 2086			; 00000826H
  002ce	ff 75 f0	 push	 DWORD PTR _strData$[ebp]
  002d1	6a 01		 push	 1
  002d3	6a 01		 push	 1

; 165  : 			break;

  002d5	e9 82 03 00 00	 jmp	 $LN244@SetDataSpr
$LN16@SetDataSpr:

; 166  : 		case PROFITALL:
; 167  : 			m_GridResult.SetItemText(1,3,strData,nFormat);//Grid

  002da	68 26 08 00 00	 push	 2086			; 00000826H
  002df	ff 75 f0	 push	 DWORD PTR _strData$[ebp]
  002e2	6a 03		 push	 3
  002e4	6a 01		 push	 1

; 168  : 			break;

  002e6	e9 71 03 00 00	 jmp	 $LN244@SetDataSpr
$LN17@SetDataSpr:

; 169  : 		case LOSSALL:
; 170  : 			m_GridResult.SetItemText(1,5,strData,nFormat);//Grid

  002eb	68 26 08 00 00	 push	 2086			; 00000826H
  002f0	ff 75 f0	 push	 DWORD PTR _strData$[ebp]
  002f3	6a 05		 push	 5
  002f5	6a 01		 push	 1

; 171  : 			break;

  002f7	e9 60 03 00 00	 jmp	 $LN244@SetDataSpr
$LN18@SetDataSpr:

; 172  : 		case PROFITLOSSRATEALL:
; 173  : 			m_GridResult.SetItemText(2,1,strData,nFormat);//Grid

  002fc	68 26 08 00 00	 push	 2086			; 00000826H
  00301	ff 75 f0	 push	 DWORD PTR _strData$[ebp]
  00304	6a 01		 push	 1
  00306	6a 02		 push	 2

; 174  : 			break;

  00308	e9 4f 03 00 00	 jmp	 $LN244@SetDataSpr
$LN19@SetDataSpr:

; 175  : 		case MAXPROFIT:
; 176  : 			m_GridResult.SetItemText(2,3,strData,nFormat);//Gridi

  0030d	68 26 08 00 00	 push	 2086			; 00000826H
  00312	ff 75 f0	 push	 DWORD PTR _strData$[ebp]
  00315	6a 03		 push	 3
  00317	6a 02		 push	 2

; 177  : 			break;

  00319	e9 3e 03 00 00	 jmp	 $LN244@SetDataSpr
$LN20@SetDataSpr:

; 178  : 		case MAXLOSS:
; 179  : 			m_GridResult.SetItemText(2,5,strData,nFormat);//Grid

  0031e	68 26 08 00 00	 push	 2086			; 00000826H
  00323	ff 75 f0	 push	 DWORD PTR _strData$[ebp]
  00326	6a 05		 push	 5
  00328	6a 02		 push	 2

; 180  : 			break;

  0032a	e9 2d 03 00 00	 jmp	 $LN244@SetDataSpr
$LN21@SetDataSpr:

; 181  : 		case PROFITLOSSAVG:
; 182  : 			m_GridResult.SetItemText(3,1,strData,nFormat);//Grid

  0032f	68 26 08 00 00	 push	 2086			; 00000826H
  00334	ff 75 f0	 push	 DWORD PTR _strData$[ebp]
  00337	6a 01		 push	 1
  00339	6a 03		 push	 3

; 183  : 			break;

  0033b	e9 1c 03 00 00	 jmp	 $LN244@SetDataSpr
$LN22@SetDataSpr:

; 184  : 		case PROFITAVG:
; 185  : 			m_GridResult.SetItemText(3,3,strData,nFormat);//Grid

  00340	68 26 08 00 00	 push	 2086			; 00000826H
  00345	ff 75 f0	 push	 DWORD PTR _strData$[ebp]
  00348	6a 03		 push	 3
  0034a	6a 03		 push	 3

; 186  : 			break;

  0034c	e9 0b 03 00 00	 jmp	 $LN244@SetDataSpr
$LN23@SetDataSpr:

; 187  : 		case LOSSAVG:
; 188  : 			m_GridResult.SetItemText(3,5,strData,nFormat);//Grid

  00351	68 26 08 00 00	 push	 2086			; 00000826H
  00356	ff 75 f0	 push	 DWORD PTR _strData$[ebp]
  00359	6a 05		 push	 5
  0035b	6a 03		 push	 3

; 189  : 			break;

  0035d	e9 fa 02 00 00	 jmp	 $LN244@SetDataSpr
$LN24@SetDataSpr:

; 190  : 		case AMOUNTENTEREDALL:
; 191  : 			m_GridResult.SetItemText(4,1,strData,nFormat);//Grid

  00362	68 26 08 00 00	 push	 2086			; 00000826H
  00367	ff 75 f0	 push	 DWORD PTR _strData$[ebp]
  0036a	6a 01		 push	 1
  0036c	6a 04		 push	 4

; 192  : 			break;

  0036e	e9 e9 02 00 00	 jmp	 $LN244@SetDataSpr
$LN25@SetDataSpr:

; 193  : 		case AMOUNTEXITALL:
; 194  : 			m_GridResult.SetItemText(4,3,strData,nFormat);//Grid

  00373	68 26 08 00 00	 push	 2086			; 00000826H
  00378	ff 75 f0	 push	 DWORD PTR _strData$[ebp]
  0037b	6a 03		 push	 3
  0037d	6a 04		 push	 4

; 195  : 			break;

  0037f	e9 d8 02 00 00	 jmp	 $LN244@SetDataSpr
$LN26@SetDataSpr:

; 196  : 			//  
; 197  : 		case CNTALL:
; 198  : 			m_GridResult.SetItemText(6,1,strData,nFormat);//Grid

  00384	68 26 08 00 00	 push	 2086			; 00000826H
  00389	ff 75 f0	 push	 DWORD PTR _strData$[ebp]
  0038c	6a 01		 push	 1
  0038e	6a 06		 push	 6

; 199  : 			break;

  00390	e9 c7 02 00 00	 jmp	 $LN244@SetDataSpr
$LN27@SetDataSpr:

; 200  : 		case CNTPROFIT:
; 201  : 			m_GridResult.SetItemText(6,3,strData,nFormat);//Grid

  00395	68 26 08 00 00	 push	 2086			; 00000826H
  0039a	ff 75 f0	 push	 DWORD PTR _strData$[ebp]
  0039d	6a 03		 push	 3
  0039f	6a 06		 push	 6

; 202  : 			break;

  003a1	e9 b6 02 00 00	 jmp	 $LN244@SetDataSpr
$LN28@SetDataSpr:

; 203  : 		case CNTLOSS:
; 204  : 			m_GridResult.SetItemText(6,5,strData,nFormat);//Grid

  003a6	68 26 08 00 00	 push	 2086			; 00000826H
  003ab	ff 75 f0	 push	 DWORD PTR _strData$[ebp]
  003ae	6a 05		 push	 5
  003b0	6a 06		 push	 6

; 205  : 			break;

  003b2	e9 a5 02 00 00	 jmp	 $LN244@SetDataSpr
$LN29@SetDataSpr:

; 206  : 		case RATEPROFITLOSS:
; 207  : 			m_GridResult.SetItemText(7,1,strData,nFormat);//Grid

  003b7	68 26 08 00 00	 push	 2086			; 00000826H
  003bc	ff 75 f0	 push	 DWORD PTR _strData$[ebp]
  003bf	6a 01		 push	 1
  003c1	6a 07		 push	 7

; 208  : 			break;

  003c3	e9 94 02 00 00	 jmp	 $LN244@SetDataSpr
$LN30@SetDataSpr:
; File C:\Program Files (x86)\Microsoft Visual Studio\2019\Community\VC\Tools\MSVC\14.29.30133\atlmfc\include\cstringt.h

; 2401 : 		CStringT strResult( str1.GetManager() );

  003c8	8d 4d f0	 lea	 ecx, DWORD PTR _strData$[ebp]
; File D:\git\src\IBK\IBK_DRFN\ProjSrc\SrcDrfn\Chart\INDEXOPTIMIZER\DlgResult.cpp

; 210  : 			m_GridResult.SetItemText(7,3,strData+"%",nFormat);//Grid

  003cb	c6 45 fc 07	 mov	 BYTE PTR __$EHRec$[ebp+8], 7
; File C:\Program Files (x86)\Microsoft Visual Studio\2019\Community\VC\Tools\MSVC\14.29.30133\atlmfc\include\cstringt.h

; 2401 : 		CStringT strResult( str1.GetManager() );

  003cf	ff 15 00 00 00
	00		 call	 DWORD PTR __imp_?GetManager@?$CStringT@DV?$StrTraitMFC_DLL@DV?$ChTraitsCRT@D@ATL@@@@@ATL@@QBEPAUIAtlStringMgr@2@XZ
  003d5	50		 push	 eax
  003d6	8d 4d dc	 lea	 ecx, DWORD PTR $T7[ebp]
  003d9	ff 15 00 00 00
	00		 call	 DWORD PTR __imp_??0?$CStringT@DV?$StrTraitMFC_DLL@DV?$ChTraitsCRT@D@ATL@@@@@ATL@@QAE@PAUIAtlStringMgr@1@@Z
; File C:\Program Files (x86)\Microsoft Visual Studio\2019\Community\VC\Tools\MSVC\14.29.30133\atlmfc\include\atlsimpstr.h

; 519  : 		return( GetData()->nDataLength );

  003df	8b 45 f0	 mov	 eax, DWORD PTR _strData$[ebp]
; File C:\Program Files (x86)\Microsoft Visual Studio\2019\Community\VC\Tools\MSVC\14.29.30133\atlmfc\include\cstringt.h

; 2405 : 		return( strResult );

  003e2	83 cb 04	 or	 ebx, 4
  003e5	6a 01		 push	 1
  003e7	68 00 00 00 00	 push	 OFFSET ??_C@_01FGNFDNOH@?$CF@
  003ec	89 5d ec	 mov	 DWORD PTR $T10[ebp], ebx
  003ef	ff 70 f4	 push	 DWORD PTR [eax-12]
  003f2	50		 push	 eax
  003f3	8d 45 dc	 lea	 eax, DWORD PTR $T7[ebp]
  003f6	50		 push	 eax
  003f7	ff 15 00 00 00
	00		 call	 DWORD PTR __imp_?Concatenate@?$CSimpleStringT@D$00@ATL@@KAXAAV12@PBDH1H@Z
  003fd	83 c4 14	 add	 esp, 20			; 00000014H
; File D:\git\src\IBK\IBK_DRFN\ProjSrc\SrcDrfn\Chart\INDEXOPTIMIZER\DlgResult.cpp

; 210  : 			m_GridResult.SetItemText(7,3,strData+"%",nFormat);//Grid

  00400	8b cf		 mov	 ecx, edi
  00402	68 26 08 00 00	 push	 2086			; 00000826H
  00407	ff 75 dc	 push	 DWORD PTR $T7[ebp]
  0040a	6a 03		 push	 3
  0040c	6a 07		 push	 7
  0040e	e8 00 00 00 00	 call	 ?SetItemText@CGridCtrl@@QAEHHHPBDK@Z ; CGridCtrl::SetItemText
  00413	8d 4d dc	 lea	 ecx, DWORD PTR $T7[ebp]
  00416	c6 45 fc 03	 mov	 BYTE PTR __$EHRec$[ebp+8], 3
  0041a	83 e3 fb	 and	 ebx, -5			; fffffffbH
  0041d	ff 15 00 00 00
	00		 call	 DWORD PTR __imp_??1?$CStringT@DV?$StrTraitMFC_DLL@DV?$ChTraitsCRT@D@ATL@@@@@ATL@@QAE@XZ

; 211  : 			break;

  00423	e9 3b 02 00 00	 jmp	 $LN2@SetDataSpr
$LN31@SetDataSpr:
; File C:\Program Files (x86)\Microsoft Visual Studio\2019\Community\VC\Tools\MSVC\14.29.30133\atlmfc\include\cstringt.h

; 2401 : 		CStringT strResult( str1.GetManager() );

  00428	8d 4d f0	 lea	 ecx, DWORD PTR _strData$[ebp]
; File D:\git\src\IBK\IBK_DRFN\ProjSrc\SrcDrfn\Chart\INDEXOPTIMIZER\DlgResult.cpp

; 213  : 			m_GridResult.SetItemText(7,5,strData+"%",nFormat);//Grid

  0042b	c6 45 fc 08	 mov	 BYTE PTR __$EHRec$[ebp+8], 8
; File C:\Program Files (x86)\Microsoft Visual Studio\2019\Community\VC\Tools\MSVC\14.29.30133\atlmfc\include\cstringt.h

; 2401 : 		CStringT strResult( str1.GetManager() );

  0042f	ff 15 00 00 00
	00		 call	 DWORD PTR __imp_?GetManager@?$CStringT@DV?$StrTraitMFC_DLL@DV?$ChTraitsCRT@D@ATL@@@@@ATL@@QBEPAUIAtlStringMgr@2@XZ
  00435	50		 push	 eax
  00436	8d 4d d8	 lea	 ecx, DWORD PTR $T6[ebp]
  00439	ff 15 00 00 00
	00		 call	 DWORD PTR __imp_??0?$CStringT@DV?$StrTraitMFC_DLL@DV?$ChTraitsCRT@D@ATL@@@@@ATL@@QAE@PAUIAtlStringMgr@1@@Z
; File C:\Program Files (x86)\Microsoft Visual Studio\2019\Community\VC\Tools\MSVC\14.29.30133\atlmfc\include\atlsimpstr.h

; 519  : 		return( GetData()->nDataLength );

  0043f	8b 45 f0	 mov	 eax, DWORD PTR _strData$[ebp]
; File C:\Program Files (x86)\Microsoft Visual Studio\2019\Community\VC\Tools\MSVC\14.29.30133\atlmfc\include\cstringt.h

; 2405 : 		return( strResult );

  00442	83 cb 08	 or	 ebx, 8
  00445	6a 01		 push	 1
  00447	68 00 00 00 00	 push	 OFFSET ??_C@_01FGNFDNOH@?$CF@
  0044c	89 5d ec	 mov	 DWORD PTR $T10[ebp], ebx
  0044f	ff 70 f4	 push	 DWORD PTR [eax-12]
  00452	50		 push	 eax
  00453	8d 45 d8	 lea	 eax, DWORD PTR $T6[ebp]
  00456	50		 push	 eax
  00457	ff 15 00 00 00
	00		 call	 DWORD PTR __imp_?Concatenate@?$CSimpleStringT@D$00@ATL@@KAXAAV12@PBDH1H@Z
  0045d	83 c4 14	 add	 esp, 20			; 00000014H
; File D:\git\src\IBK\IBK_DRFN\ProjSrc\SrcDrfn\Chart\INDEXOPTIMIZER\DlgResult.cpp

; 213  : 			m_GridResult.SetItemText(7,5,strData+"%",nFormat);//Grid

  00460	8b cf		 mov	 ecx, edi
  00462	68 26 08 00 00	 push	 2086			; 00000826H
  00467	ff 75 d8	 push	 DWORD PTR $T6[ebp]
  0046a	6a 05		 push	 5
  0046c	6a 07		 push	 7
  0046e	e8 00 00 00 00	 call	 ?SetItemText@CGridCtrl@@QAEHHHPBDK@Z ; CGridCtrl::SetItemText
  00473	8d 4d d8	 lea	 ecx, DWORD PTR $T6[ebp]
  00476	c6 45 fc 03	 mov	 BYTE PTR __$EHRec$[ebp+8], 3
  0047a	83 e3 f7	 and	 ebx, -9			; fffffff7H
  0047d	ff 15 00 00 00
	00		 call	 DWORD PTR __imp_??1?$CStringT@DV?$StrTraitMFC_DLL@DV?$ChTraitsCRT@D@ATL@@@@@ATL@@QAE@XZ

; 214  : 			break;

  00483	e9 db 01 00 00	 jmp	 $LN2@SetDataSpr
$LN32@SetDataSpr:
; File C:\Program Files (x86)\Microsoft Visual Studio\2019\Community\VC\Tools\MSVC\14.29.30133\atlmfc\include\cstringt.h

; 2401 : 		CStringT strResult( str1.GetManager() );

  00488	8d 4d f0	 lea	 ecx, DWORD PTR _strData$[ebp]
; File D:\git\src\IBK\IBK_DRFN\ProjSrc\SrcDrfn\Chart\INDEXOPTIMIZER\DlgResult.cpp

; 216  : 			m_GridResult.SetItemText(8,1,strData+"%",nFormat);//Grid

  0048b	c6 45 fc 09	 mov	 BYTE PTR __$EHRec$[ebp+8], 9
; File C:\Program Files (x86)\Microsoft Visual Studio\2019\Community\VC\Tools\MSVC\14.29.30133\atlmfc\include\cstringt.h

; 2401 : 		CStringT strResult( str1.GetManager() );

  0048f	ff 15 00 00 00
	00		 call	 DWORD PTR __imp_?GetManager@?$CStringT@DV?$StrTraitMFC_DLL@DV?$ChTraitsCRT@D@ATL@@@@@ATL@@QBEPAUIAtlStringMgr@2@XZ
  00495	50		 push	 eax
  00496	8d 4d d4	 lea	 ecx, DWORD PTR $T5[ebp]
  00499	ff 15 00 00 00
	00		 call	 DWORD PTR __imp_??0?$CStringT@DV?$StrTraitMFC_DLL@DV?$ChTraitsCRT@D@ATL@@@@@ATL@@QAE@PAUIAtlStringMgr@1@@Z
; File C:\Program Files (x86)\Microsoft Visual Studio\2019\Community\VC\Tools\MSVC\14.29.30133\atlmfc\include\atlsimpstr.h

; 519  : 		return( GetData()->nDataLength );

  0049f	8b 45 f0	 mov	 eax, DWORD PTR _strData$[ebp]
; File C:\Program Files (x86)\Microsoft Visual Studio\2019\Community\VC\Tools\MSVC\14.29.30133\atlmfc\include\cstringt.h

; 2405 : 		return( strResult );

  004a2	83 cb 10	 or	 ebx, 16			; 00000010H
  004a5	6a 01		 push	 1
  004a7	68 00 00 00 00	 push	 OFFSET ??_C@_01FGNFDNOH@?$CF@
  004ac	89 5d ec	 mov	 DWORD PTR $T10[ebp], ebx
  004af	ff 70 f4	 push	 DWORD PTR [eax-12]
  004b2	50		 push	 eax
  004b3	8d 45 d4	 lea	 eax, DWORD PTR $T5[ebp]
  004b6	50		 push	 eax
  004b7	ff 15 00 00 00
	00		 call	 DWORD PTR __imp_?Concatenate@?$CSimpleStringT@D$00@ATL@@KAXAAV12@PBDH1H@Z
  004bd	83 c4 14	 add	 esp, 20			; 00000014H
; File D:\git\src\IBK\IBK_DRFN\ProjSrc\SrcDrfn\Chart\INDEXOPTIMIZER\DlgResult.cpp

; 216  : 			m_GridResult.SetItemText(8,1,strData+"%",nFormat);//Grid

  004c0	8b cf		 mov	 ecx, edi
  004c2	68 26 08 00 00	 push	 2086			; 00000826H
  004c7	ff 75 d4	 push	 DWORD PTR $T5[ebp]
  004ca	6a 01		 push	 1
  004cc	6a 08		 push	 8
  004ce	e8 00 00 00 00	 call	 ?SetItemText@CGridCtrl@@QAEHHHPBDK@Z ; CGridCtrl::SetItemText
  004d3	8d 4d d4	 lea	 ecx, DWORD PTR $T5[ebp]
  004d6	c6 45 fc 03	 mov	 BYTE PTR __$EHRec$[ebp+8], 3
  004da	83 e3 ef	 and	 ebx, -17		; ffffffefH
  004dd	ff 15 00 00 00
	00		 call	 DWORD PTR __imp_??1?$CStringT@DV?$StrTraitMFC_DLL@DV?$ChTraitsCRT@D@ATL@@@@@ATL@@QAE@XZ

; 217  : 			break;

  004e3	e9 7b 01 00 00	 jmp	 $LN2@SetDataSpr
$LN33@SetDataSpr:

; 218  : 		case MAXPROFITSTRAIGHT:
; 219  : 			m_GridResult.SetItemText(8,3,strData,nFormat);//Grid

  004e8	68 26 08 00 00	 push	 2086			; 00000826H
  004ed	ff 75 f0	 push	 DWORD PTR _strData$[ebp]
  004f0	6a 03		 push	 3
  004f2	6a 08		 push	 8

; 220  : 			break;

  004f4	e9 63 01 00 00	 jmp	 $LN244@SetDataSpr
$LN34@SetDataSpr:

; 221  : 		case MAXLOSSSTRAIGHT:
; 222  : 			m_GridResult.SetItemText(8,5,strData,nFormat);//Grid

  004f9	68 26 08 00 00	 push	 2086			; 00000826H
  004fe	ff 75 f0	 push	 DWORD PTR _strData$[ebp]
  00501	6a 05		 push	 5
  00503	6a 08		 push	 8

; 223  : 			break;

  00505	e9 52 01 00 00	 jmp	 $LN244@SetDataSpr
$LN35@SetDataSpr:
; File C:\Program Files (x86)\Microsoft Visual Studio\2019\Community\VC\Tools\MSVC\14.29.30133\atlmfc\include\cstringt.h

; 2401 : 		CStringT strResult( str1.GetManager() );

  0050a	8d 4d f0	 lea	 ecx, DWORD PTR _strData$[ebp]
; File D:\git\src\IBK\IBK_DRFN\ProjSrc\SrcDrfn\Chart\INDEXOPTIMIZER\DlgResult.cpp

; 225  : 			m_GridResult.SetItemText(9,1,strData+"%",nFormat);//Grid

  0050d	c6 45 fc 0a	 mov	 BYTE PTR __$EHRec$[ebp+8], 10 ; 0000000aH
; File C:\Program Files (x86)\Microsoft Visual Studio\2019\Community\VC\Tools\MSVC\14.29.30133\atlmfc\include\cstringt.h

; 2401 : 		CStringT strResult( str1.GetManager() );

  00511	ff 15 00 00 00
	00		 call	 DWORD PTR __imp_?GetManager@?$CStringT@DV?$StrTraitMFC_DLL@DV?$ChTraitsCRT@D@ATL@@@@@ATL@@QBEPAUIAtlStringMgr@2@XZ
  00517	50		 push	 eax
  00518	8d 4d d0	 lea	 ecx, DWORD PTR $T4[ebp]
  0051b	ff 15 00 00 00
	00		 call	 DWORD PTR __imp_??0?$CStringT@DV?$StrTraitMFC_DLL@DV?$ChTraitsCRT@D@ATL@@@@@ATL@@QAE@PAUIAtlStringMgr@1@@Z
; File C:\Program Files (x86)\Microsoft Visual Studio\2019\Community\VC\Tools\MSVC\14.29.30133\atlmfc\include\atlsimpstr.h

; 519  : 		return( GetData()->nDataLength );

  00521	8b 45 f0	 mov	 eax, DWORD PTR _strData$[ebp]
; File C:\Program Files (x86)\Microsoft Visual Studio\2019\Community\VC\Tools\MSVC\14.29.30133\atlmfc\include\cstringt.h

; 2405 : 		return( strResult );

  00524	83 cb 20	 or	 ebx, 32			; 00000020H
  00527	6a 01		 push	 1
  00529	68 00 00 00 00	 push	 OFFSET ??_C@_01FGNFDNOH@?$CF@
  0052e	89 5d ec	 mov	 DWORD PTR $T10[ebp], ebx
  00531	ff 70 f4	 push	 DWORD PTR [eax-12]
  00534	50		 push	 eax
  00535	8d 45 d0	 lea	 eax, DWORD PTR $T4[ebp]
  00538	50		 push	 eax
  00539	ff 15 00 00 00
	00		 call	 DWORD PTR __imp_?Concatenate@?$CSimpleStringT@D$00@ATL@@KAXAAV12@PBDH1H@Z
  0053f	83 c4 14	 add	 esp, 20			; 00000014H
; File D:\git\src\IBK\IBK_DRFN\ProjSrc\SrcDrfn\Chart\INDEXOPTIMIZER\DlgResult.cpp

; 225  : 			m_GridResult.SetItemText(9,1,strData+"%",nFormat);//Grid

  00542	8b cf		 mov	 ecx, edi
  00544	68 26 08 00 00	 push	 2086			; 00000826H
  00549	ff 75 d0	 push	 DWORD PTR $T4[ebp]
  0054c	6a 01		 push	 1
  0054e	6a 09		 push	 9
  00550	e8 00 00 00 00	 call	 ?SetItemText@CGridCtrl@@QAEHHHPBDK@Z ; CGridCtrl::SetItemText
  00555	8d 4d d0	 lea	 ecx, DWORD PTR $T4[ebp]
  00558	c6 45 fc 03	 mov	 BYTE PTR __$EHRec$[ebp+8], 3
  0055c	83 e3 df	 and	 ebx, -33		; ffffffdfH
  0055f	ff 15 00 00 00
	00		 call	 DWORD PTR __imp_??1?$CStringT@DV?$StrTraitMFC_DLL@DV?$ChTraitsCRT@D@ATL@@@@@ATL@@QAE@XZ

; 226  : 			break;

  00565	e9 f9 00 00 00	 jmp	 $LN2@SetDataSpr
$LN36@SetDataSpr:

; 227  : 		case PROFITSTRAIGHT:
; 228  : 			m_GridResult.SetItemText(9,3,strData,nFormat);//Grid

  0056a	68 26 08 00 00	 push	 2086			; 00000826H
  0056f	ff 75 f0	 push	 DWORD PTR _strData$[ebp]
  00572	6a 03		 push	 3
  00574	6a 09		 push	 9

; 229  : 			break;

  00576	e9 e1 00 00 00	 jmp	 $LN244@SetDataSpr
$LN37@SetDataSpr:

; 230  : 		case LOSSSTRAIGHT:
; 231  : 			m_GridResult.SetItemText(9,5,strData,nFormat);//Grid

  0057b	68 26 08 00 00	 push	 2086			; 00000826H
  00580	ff 75 f0	 push	 DWORD PTR _strData$[ebp]
  00583	6a 05		 push	 5
  00585	6a 09		 push	 9

; 232  : 			break;

  00587	e9 d0 00 00 00	 jmp	 $LN244@SetDataSpr
$LN38@SetDataSpr:

; 233  : 			//
; 234  : 		case CNTCANDLE:
; 235  : 			m_GridResult.SetItemText(11,1,strData,nFormat);//Grid

  0058c	68 26 08 00 00	 push	 2086			; 00000826H
  00591	ff 75 f0	 push	 DWORD PTR _strData$[ebp]
  00594	6a 01		 push	 1
  00596	6a 0b		 push	 11			; 0000000bH

; 236  : 			break;

  00598	e9 bf 00 00 00	 jmp	 $LN244@SetDataSpr
$LN39@SetDataSpr:

; 237  : 		case CNTCANDLEPROFIT:
; 238  : 			m_GridResult.SetItemText(11,3,strData,nFormat);//Grid

  0059d	68 26 08 00 00	 push	 2086			; 00000826H
  005a2	ff 75 f0	 push	 DWORD PTR _strData$[ebp]
  005a5	6a 03		 push	 3
  005a7	6a 0b		 push	 11			; 0000000bH

; 239  : 			break;

  005a9	e9 ae 00 00 00	 jmp	 $LN244@SetDataSpr
$LN40@SetDataSpr:

; 240  : 		case CNTCANDLELOSS:
; 241  : 			m_GridResult.SetItemText(11,5,strData,nFormat);//Grid

  005ae	68 26 08 00 00	 push	 2086			; 00000826H
  005b3	ff 75 f0	 push	 DWORD PTR _strData$[ebp]
  005b6	6a 05		 push	 5
  005b8	6a 0b		 push	 11			; 0000000bH

; 242  : 			break;

  005ba	e9 9d 00 00 00	 jmp	 $LN244@SetDataSpr
$LN41@SetDataSpr:
; File C:\Program Files (x86)\Microsoft Visual Studio\2019\Community\VC\Tools\MSVC\14.29.30133\atlmfc\include\cstringt.h

; 2401 : 		CStringT strResult( str1.GetManager() );

  005bf	8d 4d f0	 lea	 ecx, DWORD PTR _strData$[ebp]
; File D:\git\src\IBK\IBK_DRFN\ProjSrc\SrcDrfn\Chart\INDEXOPTIMIZER\DlgResult.cpp

; 244  : 			m_GridResult.SetItemText(12,1,strData+"%",nFormat);//Grid

  005c2	c6 45 fc 0b	 mov	 BYTE PTR __$EHRec$[ebp+8], 11 ; 0000000bH
; File C:\Program Files (x86)\Microsoft Visual Studio\2019\Community\VC\Tools\MSVC\14.29.30133\atlmfc\include\cstringt.h

; 2401 : 		CStringT strResult( str1.GetManager() );

  005c6	ff 15 00 00 00
	00		 call	 DWORD PTR __imp_?GetManager@?$CStringT@DV?$StrTraitMFC_DLL@DV?$ChTraitsCRT@D@ATL@@@@@ATL@@QBEPAUIAtlStringMgr@2@XZ
  005cc	50		 push	 eax
  005cd	8d 4d cc	 lea	 ecx, DWORD PTR $T3[ebp]
  005d0	ff 15 00 00 00
	00		 call	 DWORD PTR __imp_??0?$CStringT@DV?$StrTraitMFC_DLL@DV?$ChTraitsCRT@D@ATL@@@@@ATL@@QAE@PAUIAtlStringMgr@1@@Z
; File C:\Program Files (x86)\Microsoft Visual Studio\2019\Community\VC\Tools\MSVC\14.29.30133\atlmfc\include\atlsimpstr.h

; 519  : 		return( GetData()->nDataLength );

  005d6	8b 45 f0	 mov	 eax, DWORD PTR _strData$[ebp]
; File C:\Program Files (x86)\Microsoft Visual Studio\2019\Community\VC\Tools\MSVC\14.29.30133\atlmfc\include\cstringt.h

; 2405 : 		return( strResult );

  005d9	83 cb 40	 or	 ebx, 64			; 00000040H
  005dc	6a 01		 push	 1
  005de	68 00 00 00 00	 push	 OFFSET ??_C@_01FGNFDNOH@?$CF@
  005e3	89 5d ec	 mov	 DWORD PTR $T10[ebp], ebx
  005e6	ff 70 f4	 push	 DWORD PTR [eax-12]
  005e9	50		 push	 eax
  005ea	8d 45 cc	 lea	 eax, DWORD PTR $T3[ebp]
  005ed	50		 push	 eax
  005ee	ff 15 00 00 00
	00		 call	 DWORD PTR __imp_?Concatenate@?$CSimpleStringT@D$00@ATL@@KAXAAV12@PBDH1H@Z
  005f4	83 c4 14	 add	 esp, 20			; 00000014H
; File D:\git\src\IBK\IBK_DRFN\ProjSrc\SrcDrfn\Chart\INDEXOPTIMIZER\DlgResult.cpp

; 244  : 			m_GridResult.SetItemText(12,1,strData+"%",nFormat);//Grid

  005f7	8b cf		 mov	 ecx, edi
  005f9	68 26 08 00 00	 push	 2086			; 00000826H
  005fe	ff 75 cc	 push	 DWORD PTR $T3[ebp]
  00601	6a 01		 push	 1
  00603	6a 0c		 push	 12			; 0000000cH
  00605	e8 00 00 00 00	 call	 ?SetItemText@CGridCtrl@@QAEHHHPBDK@Z ; CGridCtrl::SetItemText
  0060a	8d 4d cc	 lea	 ecx, DWORD PTR $T3[ebp]
  0060d	c6 45 fc 03	 mov	 BYTE PTR __$EHRec$[ebp+8], 3
  00611	83 e3 bf	 and	 ebx, -65		; ffffffbfH
  00614	ff 15 00 00 00
	00		 call	 DWORD PTR __imp_??1?$CStringT@DV?$StrTraitMFC_DLL@DV?$ChTraitsCRT@D@ATL@@@@@ATL@@QAE@XZ

; 245  : 			break;

  0061a	eb 47		 jmp	 SHORT $LN2@SetDataSpr
$LN42@SetDataSpr:

; 246  : 		case CNTCANDLEACCESS:
; 247  : 			m_GridResult.SetItemText(12,3,strData,nFormat);//Grid

  0061c	68 26 08 00 00	 push	 2086			; 00000826H
  00621	ff 75 f0	 push	 DWORD PTR _strData$[ebp]
  00624	6a 03		 push	 3
  00626	6a 0c		 push	 12			; 0000000cH

; 248  : 			break;

  00628	eb 32		 jmp	 SHORT $LN244@SetDataSpr
$LN43@SetDataSpr:

; 249  : 		case CNTCANDLEEXIT:
; 250  : 			m_GridResult.SetItemText(12,5,strData,nFormat);//Grid

  0062a	68 26 08 00 00	 push	 2086			; 00000826H
  0062f	ff 75 f0	 push	 DWORD PTR _strData$[ebp]
  00632	6a 05		 push	 5
  00634	6a 0c		 push	 12			; 0000000cH

; 251  : 			break;

  00636	eb 24		 jmp	 SHORT $LN244@SetDataSpr
$LN44@SetDataSpr:

; 252  : 		case CNTCANDLEAVGDEAL:
; 253  : 			m_GridResult.SetItemText(13,1,strData,nFormat);//Grid

  00638	68 26 08 00 00	 push	 2086			; 00000826H
  0063d	ff 75 f0	 push	 DWORD PTR _strData$[ebp]
  00640	6a 01		 push	 1

; 254  : 			break;

  00642	eb 16		 jmp	 SHORT $LN245@SetDataSpr
$LN45@SetDataSpr:

; 255  : 		case CNTCANDLEAVGPROFIT:
; 256  : 			m_GridResult.SetItemText(13,3,strData,nFormat);//Grid

  00644	68 26 08 00 00	 push	 2086			; 00000826H
  00649	ff 75 f0	 push	 DWORD PTR _strData$[ebp]
  0064c	6a 03		 push	 3

; 257  : 			break;

  0064e	eb 0a		 jmp	 SHORT $LN245@SetDataSpr
$LN46@SetDataSpr:

; 258  : 		case CNTCANDLEAVGLOSS:
; 259  : 			m_GridResult.SetItemText(13,5,strData,nFormat);//Grid

  00650	68 26 08 00 00	 push	 2086			; 00000826H
  00655	ff 75 f0	 push	 DWORD PTR _strData$[ebp]
  00658	6a 05		 push	 5
$LN245@SetDataSpr:

; 133  : 
; 134  : 	///////////////////////
; 135  : 	////   : 8  6   //////////////////////////////////////////////////////////////	
; 136  : 
; 137  : 	for(int i = 1; i<MAXDATANUM;i++)

  0065a	6a 0d		 push	 13			; 0000000dH
$LN244@SetDataSpr:
  0065c	8b cf		 mov	 ecx, edi
  0065e	e8 00 00 00 00	 call	 ?SetItemText@CGridCtrl@@QAEHHHPBDK@Z ; CGridCtrl::SetItemText
$LN2@SetDataSpr:
  00663	46		 inc	 esi
  00664	83 fe 24	 cmp	 esi, 36			; 00000024H
  00667	0f 8c 93 fa ff
	ff		 jl	 $LL4@SetDataSpr

; 260  : 			break;
; 261  : 		}
; 262  : 	}
; 263  : 	m_GridResult.Refresh();

  0066d	8b cf		 mov	 ecx, edi
  0066f	e8 00 00 00 00	 call	 ?Refresh@CGridCtrl@@QAEXXZ ; CGridCtrl::Refresh

; 264  : }

  00674	8d 4d c8	 lea	 ecx, DWORD PTR _strACCumProf$[ebp]
  00677	ff 15 00 00 00
	00		 call	 DWORD PTR __imp_??1?$CStringT@DV?$StrTraitMFC_DLL@DV?$ChTraitsCRT@D@ATL@@@@@ATL@@QAE@XZ
  0067d	8d 4d f0	 lea	 ecx, DWORD PTR _strData$[ebp]
  00680	ff 15 00 00 00
	00		 call	 DWORD PTR __imp_??1?$CStringT@DV?$StrTraitMFC_DLL@DV?$ChTraitsCRT@D@ATL@@@@@ATL@@QAE@XZ
  00686	8d 4d b4	 lea	 ecx, DWORD PTR _stData$[ebp+28]
  00689	ff 15 00 00 00
	00		 call	 DWORD PTR __imp_??1?$CStringT@DV?$StrTraitMFC_DLL@DV?$ChTraitsCRT@D@ATL@@@@@ATL@@QAE@XZ
  0068f	8d 4d b0	 lea	 ecx, DWORD PTR _stData$[ebp+24]
  00692	ff 15 00 00 00
	00		 call	 DWORD PTR __imp_??1?$CStringT@DV?$StrTraitMFC_DLL@DV?$ChTraitsCRT@D@ATL@@@@@ATL@@QAE@XZ
  00698	8d 4d ac	 lea	 ecx, DWORD PTR _stData$[ebp+20]
  0069b	ff 15 00 00 00
	00		 call	 DWORD PTR __imp_??1?$CStringT@DV?$StrTraitMFC_DLL@DV?$ChTraitsCRT@D@ATL@@@@@ATL@@QAE@XZ
  006a1	8d 4d a8	 lea	 ecx, DWORD PTR _stData$[ebp+16]
  006a4	ff 15 00 00 00
	00		 call	 DWORD PTR __imp_??1?$CStringT@DV?$StrTraitMFC_DLL@DV?$ChTraitsCRT@D@ATL@@@@@ATL@@QAE@XZ
  006aa	8d 4d a4	 lea	 ecx, DWORD PTR _stData$[ebp+12]
  006ad	ff 15 00 00 00
	00		 call	 DWORD PTR __imp_??1?$CStringT@DV?$StrTraitMFC_DLL@DV?$ChTraitsCRT@D@ATL@@@@@ATL@@QAE@XZ
  006b3	8d 4d a0	 lea	 ecx, DWORD PTR _stData$[ebp+8]
  006b6	ff 15 00 00 00
	00		 call	 DWORD PTR __imp_??1?$CStringT@DV?$StrTraitMFC_DLL@DV?$ChTraitsCRT@D@ATL@@@@@ATL@@QAE@XZ
  006bc	8d 4d b8	 lea	 ecx, DWORD PTR _strName$[ebp]
  006bf	ff 15 00 00 00
	00		 call	 DWORD PTR __imp_??1?$CStringT@DV?$StrTraitMFC_DLL@DV?$ChTraitsCRT@D@ATL@@@@@ATL@@QAE@XZ
  006c5	8b 4d f4	 mov	 ecx, DWORD PTR __$EHRec$[ebp]
  006c8	64 89 0d 00 00
	00 00		 mov	 DWORD PTR fs:0, ecx
  006cf	59		 pop	 ecx
  006d0	5f		 pop	 edi
  006d1	5e		 pop	 esi
  006d2	5b		 pop	 ebx
  006d3	8b e5		 mov	 esp, ebp
  006d5	5d		 pop	 ebp
  006d6	c3		 ret	 0
  006d7	90		 npad	 1
$LN242@SetDataSpr:
  006d8	00 00 00 00	 DD	 $LN13@SetDataSpr
  006dc	00 00 00 00	 DD	 $LN14@SetDataSpr
  006e0	00 00 00 00	 DD	 $LN15@SetDataSpr
  006e4	00 00 00 00	 DD	 $LN16@SetDataSpr
  006e8	00 00 00 00	 DD	 $LN17@SetDataSpr
  006ec	00 00 00 00	 DD	 $LN18@SetDataSpr
  006f0	00 00 00 00	 DD	 $LN19@SetDataSpr
  006f4	00 00 00 00	 DD	 $LN20@SetDataSpr
  006f8	00 00 00 00	 DD	 $LN21@SetDataSpr
  006fc	00 00 00 00	 DD	 $LN22@SetDataSpr
  00700	00 00 00 00	 DD	 $LN23@SetDataSpr
  00704	00 00 00 00	 DD	 $LN24@SetDataSpr
  00708	00 00 00 00	 DD	 $LN25@SetDataSpr
  0070c	00 00 00 00	 DD	 $LN2@SetDataSpr
  00710	00 00 00 00	 DD	 $LN26@SetDataSpr
  00714	00 00 00 00	 DD	 $LN27@SetDataSpr
  00718	00 00 00 00	 DD	 $LN28@SetDataSpr
  0071c	00 00 00 00	 DD	 $LN29@SetDataSpr
  00720	00 00 00 00	 DD	 $LN30@SetDataSpr
  00724	00 00 00 00	 DD	 $LN31@SetDataSpr
  00728	00 00 00 00	 DD	 $LN32@SetDataSpr
  0072c	00 00 00 00	 DD	 $LN33@SetDataSpr
  00730	00 00 00 00	 DD	 $LN34@SetDataSpr
  00734	00 00 00 00	 DD	 $LN35@SetDataSpr
  00738	00 00 00 00	 DD	 $LN36@SetDataSpr
  0073c	00 00 00 00	 DD	 $LN37@SetDataSpr
  00740	00 00 00 00	 DD	 $LN38@SetDataSpr
  00744	00 00 00 00	 DD	 $LN39@SetDataSpr
  00748	00 00 00 00	 DD	 $LN40@SetDataSpr
  0074c	00 00 00 00	 DD	 $LN41@SetDataSpr
  00750	00 00 00 00	 DD	 $LN42@SetDataSpr
  00754	00 00 00 00	 DD	 $LN43@SetDataSpr
  00758	00 00 00 00	 DD	 $LN44@SetDataSpr
  0075c	00 00 00 00	 DD	 $LN45@SetDataSpr
  00760	00 00 00 00	 DD	 $LN46@SetDataSpr
_TEXT	ENDS
;	COMDAT text$x
text$x	SEGMENT
__unwindfunclet$?SetDataSpreadGrid@CDlgResult@@QAEXXZ$0:
  00000	8d 4d b8	 lea	 ecx, DWORD PTR _strName$[ebp]
  00003	ff 25 00 00 00
	00		 jmp	 DWORD PTR __imp_??1?$CStringT@DV?$StrTraitMFC_DLL@DV?$ChTraitsCRT@D@ATL@@@@@ATL@@QAE@XZ
__unwindfunclet$?SetDataSpreadGrid@CDlgResult@@QAEXXZ$1:
  00009	8d 4d 98	 lea	 ecx, DWORD PTR _stData$[ebp]
  0000c	e9 00 00 00 00	 jmp	 ??1ST_DATAINDEX@@QAE@XZ
__unwindfunclet$?SetDataSpreadGrid@CDlgResult@@QAEXXZ$2:
  00011	8d 4d f0	 lea	 ecx, DWORD PTR _strData$[ebp]
  00014	ff 25 00 00 00
	00		 jmp	 DWORD PTR __imp_??1?$CStringT@DV?$StrTraitMFC_DLL@DV?$ChTraitsCRT@D@ATL@@@@@ATL@@QAE@XZ
__unwindfunclet$?SetDataSpreadGrid@CDlgResult@@QAEXXZ$3:
  0001a	8d 4d c8	 lea	 ecx, DWORD PTR _strACCumProf$[ebp]
  0001d	ff 25 00 00 00
	00		 jmp	 DWORD PTR __imp_??1?$CStringT@DV?$StrTraitMFC_DLL@DV?$ChTraitsCRT@D@ATL@@@@@ATL@@QAE@XZ
__unwindfunclet$?SetDataSpreadGrid@CDlgResult@@QAEXXZ$4:
  00023	8d 4d bc	 lea	 ecx, DWORD PTR $T2[ebp]
  00026	ff 25 00 00 00
	00		 jmp	 DWORD PTR __imp_??1?$CStringT@DV?$StrTraitMFC_DLL@DV?$ChTraitsCRT@D@ATL@@@@@ATL@@QAE@XZ
__unwindfunclet$?SetDataSpreadGrid@CDlgResult@@QAEXXZ$13:
  0002c	8b 45 ec	 mov	 eax, DWORD PTR $T10[ebp]
  0002f	83 e0 01	 and	 eax, 1
  00032	0f 84 0d 00 00
	00		 je	 $LN72@SetDataSpr
  00038	83 65 ec fe	 and	 DWORD PTR $T10[ebp], -2	; fffffffeH
  0003c	8d 4d e4	 lea	 ecx, DWORD PTR $T9[ebp]
  0003f	ff 25 00 00 00
	00		 jmp	 DWORD PTR __imp_??1?$CStringT@DV?$StrTraitMFC_DLL@DV?$ChTraitsCRT@D@ATL@@@@@ATL@@QAE@XZ
$LN72@SetDataSpr:
  00045	c3		 ret	 0
__unwindfunclet$?SetDataSpreadGrid@CDlgResult@@QAEXXZ$14:
  00046	8b 45 ec	 mov	 eax, DWORD PTR $T10[ebp]
  00049	83 e0 02	 and	 eax, 2
  0004c	0f 84 0d 00 00
	00		 je	 $LN87@SetDataSpr
  00052	83 65 ec fd	 and	 DWORD PTR $T10[ebp], -3	; fffffffdH
  00056	8d 4d e0	 lea	 ecx, DWORD PTR $T8[ebp]
  00059	ff 25 00 00 00
	00		 jmp	 DWORD PTR __imp_??1?$CStringT@DV?$StrTraitMFC_DLL@DV?$ChTraitsCRT@D@ATL@@@@@ATL@@QAE@XZ
$LN87@SetDataSpr:
  0005f	c3		 ret	 0
__unwindfunclet$?SetDataSpreadGrid@CDlgResult@@QAEXXZ$15:
  00060	8b 45 ec	 mov	 eax, DWORD PTR $T10[ebp]
  00063	83 e0 04	 and	 eax, 4
  00066	0f 84 0d 00 00
	00		 je	 $LN132@SetDataSpr
  0006c	83 65 ec fb	 and	 DWORD PTR $T10[ebp], -5	; fffffffbH
  00070	8d 4d dc	 lea	 ecx, DWORD PTR $T7[ebp]
  00073	ff 25 00 00 00
	00		 jmp	 DWORD PTR __imp_??1?$CStringT@DV?$StrTraitMFC_DLL@DV?$ChTraitsCRT@D@ATL@@@@@ATL@@QAE@XZ
$LN132@SetDataSpr:
  00079	c3		 ret	 0
__unwindfunclet$?SetDataSpreadGrid@CDlgResult@@QAEXXZ$16:
  0007a	8b 45 ec	 mov	 eax, DWORD PTR $T10[ebp]
  0007d	83 e0 08	 and	 eax, 8
  00080	0f 84 0d 00 00
	00		 je	 $LN147@SetDataSpr
  00086	83 65 ec f7	 and	 DWORD PTR $T10[ebp], -9	; fffffff7H
  0008a	8d 4d d8	 lea	 ecx, DWORD PTR $T6[ebp]
  0008d	ff 25 00 00 00
	00		 jmp	 DWORD PTR __imp_??1?$CStringT@DV?$StrTraitMFC_DLL@DV?$ChTraitsCRT@D@ATL@@@@@ATL@@QAE@XZ
$LN147@SetDataSpr:
  00093	c3		 ret	 0
__unwindfunclet$?SetDataSpreadGrid@CDlgResult@@QAEXXZ$17:
  00094	8b 45 ec	 mov	 eax, DWORD PTR $T10[ebp]
  00097	83 e0 10	 and	 eax, 16			; 00000010H
  0009a	0f 84 0d 00 00
	00		 je	 $LN162@SetDataSpr
  000a0	83 65 ec ef	 and	 DWORD PTR $T10[ebp], -17 ; ffffffefH
  000a4	8d 4d d4	 lea	 ecx, DWORD PTR $T5[ebp]
  000a7	ff 25 00 00 00
	00		 jmp	 DWORD PTR __imp_??1?$CStringT@DV?$StrTraitMFC_DLL@DV?$ChTraitsCRT@D@ATL@@@@@ATL@@QAE@XZ
$LN162@SetDataSpr:
  000ad	c3		 ret	 0
__unwindfunclet$?SetDataSpreadGrid@CDlgResult@@QAEXXZ$18:
  000ae	8b 45 ec	 mov	 eax, DWORD PTR $T10[ebp]
  000b1	83 e0 20	 and	 eax, 32			; 00000020H
  000b4	0f 84 0d 00 00
	00		 je	 $LN181@SetDataSpr
  000ba	83 65 ec df	 and	 DWORD PTR $T10[ebp], -33 ; ffffffdfH
  000be	8d 4d d0	 lea	 ecx, DWORD PTR $T4[ebp]
  000c1	ff 25 00 00 00
	00		 jmp	 DWORD PTR __imp_??1?$CStringT@DV?$StrTraitMFC_DLL@DV?$ChTraitsCRT@D@ATL@@@@@ATL@@QAE@XZ
$LN181@SetDataSpr:
  000c7	c3		 ret	 0
__unwindfunclet$?SetDataSpreadGrid@CDlgResult@@QAEXXZ$19:
  000c8	8b 45 ec	 mov	 eax, DWORD PTR $T10[ebp]
  000cb	83 e0 40	 and	 eax, 64			; 00000040H
  000ce	0f 84 0d 00 00
	00		 je	 $LN206@SetDataSpr
  000d4	83 65 ec bf	 and	 DWORD PTR $T10[ebp], -65 ; ffffffbfH
  000d8	8d 4d cc	 lea	 ecx, DWORD PTR $T3[ebp]
  000db	ff 25 00 00 00
	00		 jmp	 DWORD PTR __imp_??1?$CStringT@DV?$StrTraitMFC_DLL@DV?$ChTraitsCRT@D@ATL@@@@@ATL@@QAE@XZ
$LN206@SetDataSpr:
  000e1	c3		 ret	 0
  000e2	cc		 int	 3
  000e3	cc		 int	 3
  000e4	cc		 int	 3
  000e5	cc		 int	 3
  000e6	cc		 int	 3
__ehhandler$?SetDataSpreadGrid@CDlgResult@@QAEXXZ:
  000e7	90		 npad	 1
  000e8	90		 npad	 1
  000e9	8b 54 24 08	 mov	 edx, DWORD PTR [esp+8]
  000ed	8d 42 0c	 lea	 eax, DWORD PTR [edx+12]
  000f0	8b 4a 94	 mov	 ecx, DWORD PTR [edx-108]
  000f3	33 c8		 xor	 ecx, eax
  000f5	e8 00 00 00 00	 call	 @__security_check_cookie@4
  000fa	b8 00 00 00 00	 mov	 eax, OFFSET __ehfuncinfo$?SetDataSpreadGrid@CDlgResult@@QAEXXZ
  000ff	e9 00 00 00 00	 jmp	 ___CxxFrameHandler3
text$x	ENDS
?SetDataSpreadGrid@CDlgResult@@QAEXXZ ENDP		; CDlgResult::SetDataSpreadGrid
; Function compile flags: /Ogtp
; File D:\git\src\IBK\IBK_DRFN\ProjSrc\SrcDrfn\Chart\INDEXOPTIMIZER\DlgResult.cpp
; File C:\Program Files (x86)\Microsoft Visual Studio\2019\Community\VC\Tools\MSVC\14.29.30133\atlmfc\include\afxwin2.inl
; File D:\git\src\IBK\IBK_DRFN\ProjSrc\SrcDrfn\Chart\INDEXOPTIMIZER\DlgResult.cpp
; File C:\Program Files (x86)\Microsoft Visual Studio\2019\Community\VC\Tools\MSVC\14.29.30133\atlmfc\include\afxwin2.inl
; File C:\Program Files (x86)\Microsoft Visual Studio\2019\Community\VC\Tools\MSVC\14.29.30133\atlmfc\include\atltypes.h
; File C:\Program Files (x86)\Microsoft Visual Studio\2019\Community\VC\Tools\MSVC\14.29.30133\atlmfc\include\afxwin2.inl
; File D:\git\src\IBK\IBK_DRFN\ProjSrc\SrcDrfn\Chart\INDEXOPTIMIZER\DlgResult.cpp
; File D:\git\src\IBK\IBK_DRFN\ProjSrc\SrcDrfn\Chart\INDEXOPTIMIZER\GridCtrl_src\GridCtrl.h
; File D:\git\src\IBK\IBK_DRFN\ProjSrc\SrcDrfn\Chart\INDEXOPTIMIZER\DlgResult.cpp
; File C:\Program Files (x86)\Microsoft Visual Studio\2019\Community\VC\Tools\MSVC\14.29.30133\atlmfc\include\afxwin2.inl
; File D:\git\src\IBK\IBK_DRFN\ProjSrc\SrcDrfn\Chart\INDEXOPTIMIZER\DlgResult.cpp
;	COMDAT ?InitGrid@CDlgResult@@QAEXXZ
_TEXT	SEGMENT
_str$2 = -344						; size = 4
_nWidth$1$ = -340					; size = 4
_col$1$ = -336						; size = 4
_nRowIndex$1$ = -332					; size = 4
_this$1$ = -328						; size = 4
_Item$3 = -324						; size = 104
_rect1$4 = -220						; size = 16
_IndexName$5 = -204					; size = 188
__$ArrayPad$ = -16					; size = 4
__$EHRec$ = -12						; size = 12
?InitGrid@CDlgResult@@QAEXXZ PROC			; CDlgResult::InitGrid, COMDAT
; _this$ = ecx

; 59   : {

  00000	55		 push	 ebp
  00001	8b ec		 mov	 ebp, esp
  00003	6a ff		 push	 -1
  00005	68 00 00 00 00	 push	 __ehhandler$?InitGrid@CDlgResult@@QAEXXZ
  0000a	64 a1 00 00 00
	00		 mov	 eax, DWORD PTR fs:0
  00010	50		 push	 eax
  00011	81 ec 4c 01 00
	00		 sub	 esp, 332		; 0000014cH
  00017	a1 00 00 00 00	 mov	 eax, DWORD PTR ___security_cookie
  0001c	33 c5		 xor	 eax, ebp
  0001e	89 45 f0	 mov	 DWORD PTR __$ArrayPad$[ebp], eax
  00021	56		 push	 esi
  00022	57		 push	 edi
  00023	50		 push	 eax
  00024	8d 45 f4	 lea	 eax, DWORD PTR __$EHRec$[ebp]
  00027	64 a3 00 00 00
	00		 mov	 DWORD PTR fs:0, eax
  0002d	8b f9		 mov	 edi, ecx

; 60   : 	if(!m_GridResult.GetSafeHwnd())

  0002f	8d b7 c0 00 00
	00		 lea	 esi, DWORD PTR [edi+192]
  00035	89 b5 b8 fe ff
	ff		 mov	 DWORD PTR _this$1$[ebp], esi
; File C:\Program Files (x86)\Microsoft Visual Studio\2019\Community\VC\Tools\MSVC\14.29.30133\atlmfc\include\afxwin2.inl

; 25   : 	{ return this == NULL ? NULL : m_hWnd; }

  0003b	85 f6		 test	 esi, esi
  0003d	74 0a		 je	 SHORT $LN50@InitGrid
; File D:\git\src\IBK\IBK_DRFN\ProjSrc\SrcDrfn\Chart\INDEXOPTIMIZER\DlgResult.cpp

; 60   : 	if(!m_GridResult.GetSafeHwnd())

  0003f	83 7e 20 00	 cmp	 DWORD PTR [esi+32], 0
  00043	0f 85 64 03 00
	00		 jne	 $LN8@InitGrid
$LN50@InitGrid:
; File C:\Program Files (x86)\Microsoft Visual Studio\2019\Community\VC\Tools\MSVC\14.29.30133\atlmfc\include\afxwin2.inl

; 86   : 	{ ASSERT(::IsWindow(m_hWnd)); ::GetClientRect(m_hWnd, lpRect); }

  00049	8d 85 24 ff ff
	ff		 lea	 eax, DWORD PTR _rect1$4[ebp]
  0004f	0f 57 c0	 xorps	 xmm0, xmm0
  00052	50		 push	 eax
  00053	ff 77 20	 push	 DWORD PTR [edi+32]
; File C:\Program Files (x86)\Microsoft Visual Studio\2019\Community\VC\Tools\MSVC\14.29.30133\atlmfc\include\atltypes.h

; 528  : 	left = 0;

  00056	0f 11 85 24 ff
	ff ff		 movups	 XMMWORD PTR _rect1$4[ebp], xmm0
; File C:\Program Files (x86)\Microsoft Visual Studio\2019\Community\VC\Tools\MSVC\14.29.30133\atlmfc\include\afxwin2.inl

; 86   : 	{ ASSERT(::IsWindow(m_hWnd)); ::GetClientRect(m_hWnd, lpRect); }

  0005d	ff 15 00 00 00
	00		 call	 DWORD PTR __imp__GetClientRect@8
; File D:\git\src\IBK\IBK_DRFN\ProjSrc\SrcDrfn\Chart\INDEXOPTIMIZER\DlgResult.cpp

; 65   : 		rect1.left +=2;

  00063	83 85 24 ff ff
	ff 02		 add	 DWORD PTR _rect1$4[ebp], 2

; 66   : 		rect1.bottom +=3;
; 67   : 		if(!m_GridResult.Create(rect1,this,IDC_STATIC_RESULT,WS_CHILD | WS_TABSTOP | WS_VISIBLE ))

  0006a	8d 85 24 ff ff
	ff		 lea	 eax, DWORD PTR _rect1$4[ebp]
  00070	83 85 30 ff ff
	ff 03		 add	 DWORD PTR _rect1$4[ebp+12], 3
  00077	8b ce		 mov	 ecx, esi
  00079	68 00 00 01 50	 push	 1342242816		; 50010000H
  0007e	68 0b 33 00 00	 push	 13067			; 0000330bH
  00083	57		 push	 edi
  00084	50		 push	 eax
  00085	c7 85 28 ff ff
	ff 01 00 00 00	 mov	 DWORD PTR _rect1$4[ebp+4], 1
  0008f	e8 00 00 00 00	 call	 ?Create@CGridCtrl@@QAEHABUtagRECT@@PAVCWnd@@IK@Z ; CGridCtrl::Create
  00094	85 c0		 test	 eax, eax
  00096	75 11		 jne	 SHORT $LN9@InitGrid

; 68   : 		{
; 69   : 			AfxMessageBox("No");

  00098	50		 push	 eax
  00099	50		 push	 eax
  0009a	68 00 00 00 00	 push	 OFFSET ??_C@_02JINPPBEP@No@
  0009f	e8 00 00 00 00	 call	 ?AfxMessageBox@@YGHPBDII@Z ; AfxMessageBox

; 70   : 			return;

  000a4	e9 04 03 00 00	 jmp	 $LN8@InitGrid
$LN9@InitGrid:
; File D:\git\src\IBK\IBK_DRFN\ProjSrc\SrcDrfn\Chart\INDEXOPTIMIZER\GridCtrl_src\GridCtrl.h

; 795  :     return (CGridCellBase*) &m_cellDefault;

  000a9	8d 8e 5c 01 00
	00		 lea	 ecx, DWORD PTR [esi+348]
; File D:\git\src\IBK\IBK_DRFN\ProjSrc\SrcDrfn\Chart\INDEXOPTIMIZER\DlgResult.cpp

; 72   : 		m_GridResult.SetEditable(FALSE);

  000af	c7 87 78 01 00
	00 00 00 00 00	 mov	 DWORD PTR [edi+376], 0

; 73   : 		m_GridResult.GetDefaultCell(FALSE, FALSE)->SetBackClr(RGB(255, 255, 255));

  000b9	8b 01		 mov	 eax, DWORD PTR [ecx]
  000bb	68 ff ff ff 00	 push	 16777215		; 00ffffffH
  000c0	ff 50 2c	 call	 DWORD PTR [eax+44]

; 74   : 		m_GridResult.SetGridLineColor(RGB(204,210,224));
; 75   : 		m_GridResult.SetColumnCount(6);

  000c3	6a 06		 push	 6
  000c5	8b ce		 mov	 ecx, esi
  000c7	c7 87 4c 01 00
	00 cc d2 e0 00	 mov	 DWORD PTR [edi+332], 14734028 ; 00e0d2ccH
  000d1	e8 00 00 00 00	 call	 ?SetColumnCount@CGridCtrl@@QAEHH@Z ; CGridCtrl::SetColumnCount

; 76   : 		m_GridResult.SetRowCount(14);

  000d6	6a 0e		 push	 14			; 0000000eH
  000d8	8b ce		 mov	 ecx, esi
  000da	e8 00 00 00 00	 call	 ?SetRowCount@CGridCtrl@@QAEHH@Z ; CGridCtrl::SetRowCount

; 77   : 		m_GridResult.SetBkColor(CLR_BACKGROUND );
; 78   : 		if(m_pFont)

  000df	8b 87 50 05 00
	00		 mov	 eax, DWORD PTR [edi+1360]
  000e5	c7 87 48 01 00
	00 ff ff ff 00	 mov	 DWORD PTR [edi+328], 16777215 ; 00ffffffH
  000ef	85 c0		 test	 eax, eax
  000f1	74 13		 je	 SHORT $LN10@InitGrid
; File C:\Program Files (x86)\Microsoft Visual Studio\2019\Community\VC\Tools\MSVC\14.29.30133\atlmfc\include\afxwin2.inl

; 43   : 	{ ASSERT(::IsWindow(m_hWnd)); ::SendMessage(m_hWnd, WM_SETFONT, (WPARAM)pFont->GetSafeHandle(), bRedraw); }

  000f3	6a 01		 push	 1
  000f5	ff 70 04	 push	 DWORD PTR [eax+4]
  000f8	6a 30		 push	 48			; 00000030H
  000fa	ff b7 e0 00 00
	00		 push	 DWORD PTR [edi+224]
  00100	ff 15 00 00 00
	00		 call	 DWORD PTR __imp__SendMessageA@16
$LN10@InitGrid:
; File D:\git\src\IBK\IBK_DRFN\ProjSrc\SrcDrfn\Chart\INDEXOPTIMIZER\DlgResult.cpp

; 81   : 		CString str;

  00106	8d 8d a8 fe ff
	ff		 lea	 ecx, DWORD PTR _str$2[ebp]
  0010c	ff 15 00 00 00
	00		 call	 DWORD PTR __imp_??0?$CStringT@DV?$StrTraitMFC_DLL@DV?$ChTraitsCRT@D@ATL@@@@@ATL@@QAE@XZ
  00112	8d 8d 20 ff ff
	ff		 lea	 ecx, DWORD PTR _Item$3[ebp+100]
  00118	c7 45 fc 00 00
	00 00		 mov	 DWORD PTR __$EHRec$[ebp+8], 0
  0011f	ff 15 00 00 00
	00		 call	 DWORD PTR __imp_??0?$CStringT@DV?$StrTraitMFC_DLL@DV?$ChTraitsCRT@D@ATL@@@@@ATL@@QAE@XZ

; 82   : 		GV_ITEM Item;
; 83   : 		int nWidth = (rect1.right/6) -3;

  00125	b8 ab aa aa 2a	 mov	 eax, 715827883		; 2aaaaaabH
  0012a	c6 45 fc 01	 mov	 BYTE PTR __$EHRec$[ebp+8], 1
  0012e	f7 ad 2c ff ff
	ff		 imul	 DWORD PTR _rect1$4[ebp+8]
  00134	0f 57 c0	 xorps	 xmm0, xmm0

; 84   : 		char* IndexName[47]={"","","/","","","","","/","","","","","","",
; 85   : 			"","","","","","","","()","","","","","","",
; 86   : 			"","","",""," ","","","()","","","","","",""};

  00137	0f 11 45 dc	 movups	 XMMWORD PTR _IndexName$5[ebp+168], xmm0
  0013b	c7 85 34 ff ff
	ff 00 00 00 00	 mov	 DWORD PTR _IndexName$5[ebp], OFFSET ??_C@_0L@FJFCOKJ@?$LE?$KJ?$MA?$PL?$LM?v?$MA?M?$LH?$PM@
  00145	8b ca		 mov	 ecx, edx
  00147	c7 85 38 ff ff
	ff 00 00 00 00	 mov	 DWORD PTR _IndexName$5[ebp+4], OFFSET ??_C@_06GNECPJOA@?C?Q?$LM?U?$MA?M@
  00151	c1 e9 1f	 shr	 ecx, 31			; 0000001fH
  00154	83 c1 fd	 add	 ecx, -3			; fffffffdH
  00157	c7 85 3c ff ff
	ff 00 00 00 00	 mov	 DWORD PTR _IndexName$5[ebp+8], OFFSET ??_C@_0O@KHPIEGBI@?C?Q?$MA?L?$MA?M?1?C?Q?$LM?U?$LN?G@
  00161	03 ca		 add	 ecx, edx
  00163	c7 85 40 ff ff
	ff 00 00 00 00	 mov	 DWORD PTR _IndexName$5[ebp+12], OFFSET ??_C@_0N@NJFCNOGE@?$LA?G?$LK?$LA?F?r?$LB?U?$LM?U?$MA?M@
  0016d	33 c0		 xor	 eax, eax
  0016f	89 8d ac fe ff
	ff		 mov	 DWORD PTR _nWidth$1$[ebp], ecx
  00175	c7 85 44 ff ff
	ff 00 00 00 00	 mov	 DWORD PTR _IndexName$5[ebp+16], OFFSET ??_C@_06KFFIADGF@?C?Q?A?x?$MA?T@
  0017f	c7 85 48 ff ff
	ff 00 00 00 00	 mov	 DWORD PTR _IndexName$5[ebp+20], OFFSET ??_C@_00CNPNBAHC@@
  00189	c7 85 4c ff ff
	ff 00 00 00 00	 mov	 DWORD PTR _IndexName$5[ebp+24], OFFSET ??_C@_08OPDCDADA@?C?Q?$LI?E?$LI?E?$LM?v@
  00193	c7 85 50 ff ff
	ff 00 00 00 00	 mov	 DWORD PTR _IndexName$5[ebp+28], OFFSET ??_C@_0O@CIHDHIEL@?$MA?L?$MA?M?$LM?v?1?$LM?U?$LN?G?$LM?v@
  0019d	c7 85 54 ff ff
	ff 00 00 00 00	 mov	 DWORD PTR _IndexName$5[ebp+32], OFFSET ??_C@_0L@OFFEDCHL@?$LB?b?$LA?$KD?$LF?n?$LG?t?$LH?$PM@
  001a7	c7 85 58 ff ff
	ff 00 00 00 00	 mov	 DWORD PTR _IndexName$5[ebp+36], OFFSET ??_C@_0P@HMJADPNA@?$MA?$PM?$LH?$KL?C?J?$LA?z?$LM?v?$MA?M?$LH?$PM@
  001b1	c7 85 5c ff ff
	ff 00 00 00 00	 mov	 DWORD PTR _IndexName$5[ebp+40], OFFSET ??_C@_00CNPNBAHC@@
  001bb	c7 85 60 ff ff
	ff 00 00 00 00	 mov	 DWORD PTR _IndexName$5[ebp+44], OFFSET ??_C@_06OEJMNFOB@?C?Q?$LK?$MA?$LM?v@
  001c5	c7 85 64 ff ff
	ff 00 00 00 00	 mov	 DWORD PTR _IndexName$5[ebp+48], OFFSET ??_C@_0L@IJLGNGBO@?$LB?b?$LA?$KD?B?$PM?$LP?$KJ?$MA?$LC@
  001cf	c7 85 68 ff ff
	ff 00 00 00 00	 mov	 DWORD PTR _IndexName$5[ebp+52], OFFSET ??_C@_0N@PDNPFNDD@?F?r?$LB?U?$LI?E?$LI?E?$LK?$MA?$LM?v@
  001d9	c7 85 6c ff ff
	ff 00 00 00 00	 mov	 DWORD PTR _IndexName$5[ebp+56], OFFSET ??_C@_0P@JJNKLJJO@?$LA?G?$LK?$LA?F?r?$LB?U?$LM?v?$MA?M?$LH?$PM@
  001e3	c7 85 70 ff ff
	ff 00 00 00 00	 mov	 DWORD PTR _IndexName$5[ebp+60], OFFSET ??_C@_06HMHBOMDL@?C?Q?$MA?L?$MA?M@
  001ed	c7 85 74 ff ff
	ff 00 00 00 00	 mov	 DWORD PTR _IndexName$5[ebp+64], OFFSET ??_C@_0N@JDICKLCG@?$LA?G?$LK?$LA?C?V?$LE?k?$MA?L?$MA?M@
  001f7	c7 85 78 ff ff
	ff 00 00 00 00	 mov	 DWORD PTR _IndexName$5[ebp+68], OFFSET ??_C@_0N@MIGBMLLP@?$LA?G?$LK?$LA?F?r?$LB?U?$MA?L?$MA?M@
  00201	c7 85 7c ff ff
	ff 00 00 00 00	 mov	 DWORD PTR _IndexName$5[ebp+72], OFFSET ??_C@_0BB@NJCLLDAP@?$LJ?L?C?$LL?$LL?j?F?w?G?T?C?Q?C?$LL?$LL?j@
  0020b	c7 45 80 00 00
	00 00		 mov	 DWORD PTR _IndexName$5[ebp+76], OFFSET ??_C@_00CNPNBAHC@@
  00212	c7 45 84 00 00
	00 00		 mov	 DWORD PTR _IndexName$5[ebp+80], OFFSET ??_C@_0L@LDAPEPIM@?$MA?L?$MA?M?$LI?E?$LI?E?$LM?v@
  00219	c7 45 88 00 00
	00 00		 mov	 DWORD PTR _IndexName$5[ebp+84], OFFSET ??_C@_0BB@CGAEBIGF@?$MA?L?$MA?M?$LI?E?$LI?E?$MA?$LC?$CI?$LN?B?$LH?$PM?$CJ@
  00220	c7 45 8c 00 00
	00 00		 mov	 DWORD PTR _IndexName$5[ebp+88], OFFSET ??_C@_0P@KPEIILEB@?C?V?$LE?k?$LP?$KM?$LM?S?$MA?L?$MA?M?$LM?v@
  00227	c7 45 90 00 00
	00 00		 mov	 DWORD PTR _IndexName$5[ebp+92], OFFSET ??_C@_0N@OAECDKHI@?C?V?$LE?k?$LP?$KM?$LM?S?$MA?L?$MA?M@
  0022e	c7 45 94 00 00
	00 00		 mov	 DWORD PTR _IndexName$5[ebp+96], OFFSET ??_C@_00CNPNBAHC@@
  00235	c7 45 98 00 00
	00 00		 mov	 DWORD PTR _IndexName$5[ebp+100], OFFSET ??_C@_0N@KFPHCLNL@?$MA?L?$MA?M?$LI?E?$LI?E?$LK?$MA?$LM?v@
  0023c	c7 45 9c 00 00
	00 00		 mov	 DWORD PTR _IndexName$5[ebp+104], OFFSET ??_C@_0N@FOGALCGL@?A?x?$MA?T?$LL?s?E?B?$LK?$MA?$LM?v@
  00243	c7 45 a0 00 00
	00 00		 mov	 DWORD PTR _IndexName$5[ebp+108], OFFSET ??_C@_0BB@KLAEHKOB@?$MA?L?$MA?M?$LI?E?$LI?E?F?r?$LB?U?$LK?$MA?$LM?v@
  0024a	c7 45 a4 00 00
	00 00		 mov	 DWORD PTR _IndexName$5[ebp+112], OFFSET ??_C@_0BB@NADIPDBG@?G?v?$MA?g?F?w?A?v?$LM?G?$LM?v?$MA?M?$LH?$PM@
  00251	c7 45 a8 00 00
	00 00		 mov	 DWORD PTR _IndexName$5[ebp+116], OFFSET ??_C@_06MLIEOKGJ@?C?Q?$LM?U?$LN?G@
  00258	c7 45 ac 00 00
	00 00		 mov	 DWORD PTR _IndexName$5[ebp+120], OFFSET ??_C@_0N@CEHHKNHE@?$LA?G?$LK?$LA?C?V?$LE?k?$LM?U?$LN?G@
  0025f	c7 45 b0 00 00
	00 00		 mov	 DWORD PTR _IndexName$5[ebp+124], OFFSET ??_C@_0N@HPJEMNON@?$LA?G?$LK?$LA?F?r?$LB?U?$LM?U?$LN?G@
  00266	c7 45 b4 00 00
	00 00		 mov	 DWORD PTR _IndexName$5[ebp+128], OFFSET ??_C@_01CLKCMJKC@?5@
  0026d	c7 45 b8 00 00
	00 00		 mov	 DWORD PTR _IndexName$5[ebp+132], OFFSET ??_C@_00CNPNBAHC@@
  00274	c7 45 bc 00 00
	00 00		 mov	 DWORD PTR _IndexName$5[ebp+136], OFFSET ??_C@_0L@MKABNNA@?$LM?U?$LN?G?$LI?E?$LI?E?$LM?v@
  0027b	c7 45 c0 00 00
	00 00		 mov	 DWORD PTR _IndexName$5[ebp+140], OFFSET ??_C@_0BB@DDLIPNDD@?$LM?U?$LN?G?$LI?E?$LI?E?$MA?$LC?$CI?F?P?$MA?$LC?$CJ@
  00282	c7 45 c4 00 00
	00 00		 mov	 DWORD PTR _IndexName$5[ebp+144], OFFSET ??_C@_0P@MOKGKGFH@?C?V?$LE?k?$LP?$KM?$LM?S?$LM?U?$LN?G?$LM?v@
  00289	c7 45 c8 00 00
	00 00		 mov	 DWORD PTR _IndexName$5[ebp+148], OFFSET ??_C@_0N@FHLHDMCK@?C?V?$LE?k?$LP?$KM?$LM?S?$LM?U?$LN?G@
  00290	c7 45 cc 00 00
	00 00		 mov	 DWORD PTR _IndexName$5[ebp+152], OFFSET ??_C@_00CNPNBAHC@@
  00297	c7 45 d0 00 00
	00 00		 mov	 DWORD PTR _IndexName$5[ebp+156], OFFSET ??_C@_0N@DGJMLGPE@?$LM?U?$LN?G?$LI?E?$LI?E?$LK?$MA?$LM?v@
  0029e	c7 45 d4 00 00
	00 00		 mov	 DWORD PTR _IndexName$5[ebp+160], OFFSET ??_C@_0N@NCPIAFBM@?C?$LL?$LL?j?$LL?s?E?B?$LK?$MA?$LM?v@
  002a5	c7 45 d8 00 00
	00 00		 mov	 DWORD PTR _IndexName$5[ebp+164], OFFSET ??_C@_0BB@EJJBJOLI@?$LM?U?$LN?G?$LI?E?$LI?E?F?r?$LB?U?$LK?$MA?$LM?v@
  002ac	c7 45 ec 00 00
	00 00		 mov	 DWORD PTR _IndexName$5[ebp+184], 0

; 87   : 		int nRowIndex =0;

  002b3	c7 85 b4 fe ff
	ff 00 00 00 00	 mov	 DWORD PTR _nRowIndex$1$[ebp], 0
  002bd	89 85 b0 fe ff
	ff		 mov	 DWORD PTR _col$1$[ebp], eax
$LL4@InitGrid:

; 89   : 		{
; 90   : 			Item.mask = GVIF_TEXT;
; 91   : 			m_GridResult.SetColumnWidth(col,nWidth);

  002c3	51		 push	 ecx
  002c4	50		 push	 eax
  002c5	8b ce		 mov	 ecx, esi
  002c7	c7 85 c4 fe ff
	ff 01 00 00 00	 mov	 DWORD PTR _Item$3[ebp+8], 1
  002d1	e8 00 00 00 00	 call	 ?SetColumnWidth@CGridCtrl@@QAEHHH@Z ; CGridCtrl::SetColumnWidth

; 92   : 			if(!(col%2))

  002d6	8b 85 b0 fe ff
	ff		 mov	 eax, DWORD PTR _col$1$[ebp]
  002dc	a8 01		 test	 al, 1
  002de	0f 85 92 00 00
	00		 jne	 $LN2@InitGrid

; 93   : 			{
; 94   : 				Item.nFormat = DT_CENTER;

  002e4	c7 85 cc fe ff
	ff 01 00 00 00	 mov	 DWORD PTR _Item$3[ebp+16], 1
  002ee	33 f6		 xor	 esi, esi
  002f0	8b f8		 mov	 edi, eax
$LL7@InitGrid:

; 95   : 				for(int row = 0; row<14;row++)
; 96   : 				{
; 97   : 					m_GridResult.SetRowHeight(row,23);

  002f2	8b 8d b8 fe ff
	ff		 mov	 ecx, DWORD PTR _this$1$[ebp]
  002f8	6a 17		 push	 23			; 00000017H
  002fa	56		 push	 esi
  002fb	e8 00 00 00 00	 call	 ?SetRowHeight@CGridCtrl@@QAEHHH@Z ; CGridCtrl::SetRowHeight

; 98   : 					if(IndexName[nRowIndex]=="")

  00300	8b 85 b4 fe ff
	ff		 mov	 eax, DWORD PTR _nRowIndex$1$[ebp]
  00306	81 bc 85 34 ff
	ff ff 00 00 00
	00		 cmp	 DWORD PTR _IndexName$5[ebp+eax*4], OFFSET ??_C@_00CNPNBAHC@@
  00311	75 1c		 jne	 SHORT $LN12@InitGrid

; 99   : 					{
; 100  : 						m_GridResult.SetItemBkColour(row,col,RGB(204,210,224));

  00313	8b 8d b8 fe ff
	ff		 mov	 ecx, DWORD PTR _this$1$[ebp]
  00319	68 cc d2 e0 00	 push	 14734028		; 00e0d2ccH
  0031e	57		 push	 edi
  0031f	56		 push	 esi
  00320	e8 00 00 00 00	 call	 ?SetItemBkColour@CGridCtrl@@QAEHHHK@Z ; CGridCtrl::SetItemBkColour

; 101  : 						m_GridResult.SetItemBkColour(row,col+1,RGB(204,210,224));

  00325	8d 47 01	 lea	 eax, DWORD PTR [edi+1]
  00328	b9 cc d2 e0 00	 mov	 ecx, 14734028		; 00e0d2ccH

; 102  : 					}

  0032d	eb 07		 jmp	 SHORT $LN13@InitGrid
$LN12@InitGrid:

; 103  : 					else
; 104  : 						m_GridResult.SetItemBkColour(row,col,RGB(242,248,254));

  0032f	8b c7		 mov	 eax, edi
  00331	b9 f2 f8 fe 00	 mov	 ecx, 16709874		; 00fef8f2H
$LN13@InitGrid:

; 105  : 					m_GridResult.SetItemText(row,col,IndexName[nRowIndex]);

  00336	51		 push	 ecx
  00337	8b 8d b8 fe ff
	ff		 mov	 ecx, DWORD PTR _this$1$[ebp]
  0033d	50		 push	 eax
  0033e	56		 push	 esi
  0033f	e8 00 00 00 00	 call	 ?SetItemBkColour@CGridCtrl@@QAEHHHK@Z ; CGridCtrl::SetItemBkColour
  00344	8b 85 b4 fe ff
	ff		 mov	 eax, DWORD PTR _nRowIndex$1$[ebp]
  0034a	8b 8d b8 fe ff
	ff		 mov	 ecx, DWORD PTR _this$1$[ebp]
  00350	ff b4 85 34 ff
	ff ff		 push	 DWORD PTR _IndexName$5[ebp+eax*4]
  00357	57		 push	 edi
  00358	56		 push	 esi
  00359	e8 00 00 00 00	 call	 ?SetItemText@CGridCtrl@@QAEHHHPBD@Z ; CGridCtrl::SetItemText

; 106  : 					++nRowIndex;

  0035e	ff 85 b4 fe ff
	ff		 inc	 DWORD PTR _nRowIndex$1$[ebp]
  00364	46		 inc	 esi
  00365	83 fe 0e	 cmp	 esi, 14			; 0000000eH
  00368	7c 88		 jl	 SHORT $LL7@InitGrid
  0036a	8b 85 b0 fe ff
	ff		 mov	 eax, DWORD PTR _col$1$[ebp]
  00370	8b b5 b8 fe ff
	ff		 mov	 esi, DWORD PTR _this$1$[ebp]
$LN2@InitGrid:

; 88   : 		for (int col = 0; col < 6; col++)

  00376	8b 8d ac fe ff
	ff		 mov	 ecx, DWORD PTR _nWidth$1$[ebp]
  0037c	40		 inc	 eax
  0037d	89 85 b0 fe ff
	ff		 mov	 DWORD PTR _col$1$[ebp], eax
  00383	83 f8 06	 cmp	 eax, 6
  00386	0f 8c 37 ff ff
	ff		 jl	 $LL4@InitGrid

; 107  : 				}
; 108  : 			}
; 109  : 
; 110  : 		}
; 111  : 		m_GridResult.ExpandColumnsToFit();

  0038c	6a 01		 push	 1
  0038e	8b ce		 mov	 ecx, esi
  00390	e8 00 00 00 00	 call	 ?ExpandColumnsToFit@CGridCtrl@@QAEXH@Z ; CGridCtrl::ExpandColumnsToFit
  00395	8d 8d 20 ff ff
	ff		 lea	 ecx, DWORD PTR _Item$3[ebp+100]
  0039b	ff 15 00 00 00
	00		 call	 DWORD PTR __imp_??1?$CStringT@DV?$StrTraitMFC_DLL@DV?$ChTraitsCRT@D@ATL@@@@@ATL@@QAE@XZ

; 112  : 	}

  003a1	8d 8d a8 fe ff
	ff		 lea	 ecx, DWORD PTR _str$2[ebp]
  003a7	ff 15 00 00 00
	00		 call	 DWORD PTR __imp_??1?$CStringT@DV?$StrTraitMFC_DLL@DV?$ChTraitsCRT@D@ATL@@@@@ATL@@QAE@XZ
$LN8@InitGrid:

; 113  : }

  003ad	8b 4d f4	 mov	 ecx, DWORD PTR __$EHRec$[ebp]
  003b0	64 89 0d 00 00
	00 00		 mov	 DWORD PTR fs:0, ecx
  003b7	59		 pop	 ecx
  003b8	5f		 pop	 edi
  003b9	5e		 pop	 esi
  003ba	8b 4d f0	 mov	 ecx, DWORD PTR __$ArrayPad$[ebp]
  003bd	33 cd		 xor	 ecx, ebp
  003bf	e8 00 00 00 00	 call	 @__security_check_cookie@4
  003c4	8b e5		 mov	 esp, ebp
  003c6	5d		 pop	 ebp
  003c7	c3		 ret	 0
_TEXT	ENDS
;	COMDAT text$x
text$x	SEGMENT
__unwindfunclet$?InitGrid@CDlgResult@@QAEXXZ$0:
  00000	8d 8d a8 fe ff
	ff		 lea	 ecx, DWORD PTR _str$2[ebp]
  00006	ff 25 00 00 00
	00		 jmp	 DWORD PTR __imp_??1?$CStringT@DV?$StrTraitMFC_DLL@DV?$ChTraitsCRT@D@ATL@@@@@ATL@@QAE@XZ
__unwindfunclet$?InitGrid@CDlgResult@@QAEXXZ$1:
  0000c	8d 8d bc fe ff
	ff		 lea	 ecx, DWORD PTR _Item$3[ebp]
  00012	e9 00 00 00 00	 jmp	 ??1_GV_ITEM@@QAE@XZ
  00017	cc		 int	 3
  00018	cc		 int	 3
  00019	cc		 int	 3
  0001a	cc		 int	 3
  0001b	cc		 int	 3
__ehhandler$?InitGrid@CDlgResult@@QAEXXZ:
  0001c	90		 npad	 1
  0001d	90		 npad	 1
  0001e	8b 54 24 08	 mov	 edx, DWORD PTR [esp+8]
  00022	8d 42 0c	 lea	 eax, DWORD PTR [edx+12]
  00025	8b 8a a8 fe ff
	ff		 mov	 ecx, DWORD PTR [edx-344]
  0002b	33 c8		 xor	 ecx, eax
  0002d	e8 00 00 00 00	 call	 @__security_check_cookie@4
  00032	8b 4a fc	 mov	 ecx, DWORD PTR [edx-4]
  00035	33 c8		 xor	 ecx, eax
  00037	e8 00 00 00 00	 call	 @__security_check_cookie@4
  0003c	b8 00 00 00 00	 mov	 eax, OFFSET __ehfuncinfo$?InitGrid@CDlgResult@@QAEXXZ
  00041	e9 00 00 00 00	 jmp	 ___CxxFrameHandler3
text$x	ENDS
?InitGrid@CDlgResult@@QAEXXZ ENDP			; CDlgResult::InitGrid
; Function compile flags: /Ogtp
; File D:\git\src\IBK\IBK_DRFN\ProjSrc\SrcDrfn\Chart\INDEXOPTIMIZER\DlgResult.cpp
;	COMDAT ?GetNumber@CDlgResult@@QAE?AV?$CStringT@DV?$StrTraitMFC_DLL@DV?$ChTraitsCRT@D@ATL@@@@@ATL@@PBD@Z
_TEXT	SEGMENT
_ch$ = -20						; size = 1
$T2 = -16						; size = 4
__$EHRec$ = -12						; size = 12
___$ReturnUdt$ = 8					; size = 4
_pData$ = 12						; size = 4
?GetNumber@CDlgResult@@QAE?AV?$CStringT@DV?$StrTraitMFC_DLL@DV?$ChTraitsCRT@D@ATL@@@@@ATL@@PBD@Z PROC ; CDlgResult::GetNumber, COMDAT
; _this$ = ecx

; 367  : {

  00000	55		 push	 ebp
  00001	8b ec		 mov	 ebp, esp
  00003	6a ff		 push	 -1
  00005	68 00 00 00 00	 push	 __ehhandler$?GetNumber@CDlgResult@@QAE?AV?$CStringT@DV?$StrTraitMFC_DLL@DV?$ChTraitsCRT@D@ATL@@@@@ATL@@PBD@Z
  0000a	64 a1 00 00 00
	00		 mov	 eax, DWORD PTR fs:0
  00010	50		 push	 eax
  00011	83 ec 08	 sub	 esp, 8
  00014	53		 push	 ebx
  00015	56		 push	 esi
  00016	57		 push	 edi
  00017	a1 00 00 00 00	 mov	 eax, DWORD PTR ___security_cookie
  0001c	33 c5		 xor	 eax, ebp
  0001e	50		 push	 eax
  0001f	8d 45 f4	 lea	 eax, DWORD PTR __$EHRec$[ebp]
  00022	64 a3 00 00 00
	00		 mov	 DWORD PTR fs:0, eax
  00028	c7 45 f0 00 00
	00 00		 mov	 DWORD PTR $T2[ebp], 0

; 368  : 	CString szRet=_T("");

  0002f	8b 5d 08	 mov	 ebx, DWORD PTR ___$ReturnUdt$[ebp]
  00032	8b cb		 mov	 ecx, ebx
  00034	68 00 00 00 00	 push	 OFFSET ??_C@_00CNPNBAHC@@
  00039	c7 45 fc 00 00
	00 00		 mov	 DWORD PTR __$EHRec$[ebp+8], 0
  00040	ff 15 00 00 00
	00		 call	 DWORD PTR __imp_??0?$CStringT@DV?$StrTraitMFC_DLL@DV?$ChTraitsCRT@D@ATL@@@@@ATL@@QAE@PBD@Z

; 376  : 	}
; 377  : 	return szRet;

  00046	8b 4d 0c	 mov	 ecx, DWORD PTR _pData$[ebp]
  00049	8b f9		 mov	 edi, ecx
  0004b	c7 45 fc 00 00
	00 00		 mov	 DWORD PTR __$EHRec$[ebp+8], 0
  00052	c7 45 f0 01 00
	00 00		 mov	 DWORD PTR $T2[ebp], 1
  00059	8d 57 01	 lea	 edx, DWORD PTR [edi+1]
  0005c	0f 1f 40 00	 npad	 4
$LL15@GetNumber:

; 369  : 	int nLen = strlen(pData);

  00060	8a 07		 mov	 al, BYTE PTR [edi]
  00062	47		 inc	 edi
  00063	84 c0		 test	 al, al
  00065	75 f9		 jne	 SHORT $LL15@GetNumber
  00067	2b fa		 sub	 edi, edx
  00069	33 f6		 xor	 esi, esi

; 370  : 	char	ch;
; 371  : 
; 372  : 	for(int i=0;  i<nLen ; i++) {

  0006b	85 ff		 test	 edi, edi
  0006d	7e 2e		 jle	 SHORT $LN16@GetNumber
  0006f	90		 npad	 1
$LL4@GetNumber:

; 373  : 		ch = pData[i];

  00070	8a 04 0e	 mov	 al, BYTE PTR [esi+ecx]
  00073	88 45 ec	 mov	 BYTE PTR _ch$[ebp], al

; 374  : 		if(ch >= '0' && ch <= '9'||ch == '.' || ch == '-' || ch== '+') 

  00076	3c 30		 cmp	 al, 48			; 00000030H
  00078	7c 04		 jl	 SHORT $LN7@GetNumber
  0007a	3c 39		 cmp	 al, 57			; 00000039H
  0007c	7e 0c		 jle	 SHORT $LN6@GetNumber
$LN7@GetNumber:
  0007e	3c 2e		 cmp	 al, 46			; 0000002eH
  00080	74 08		 je	 SHORT $LN6@GetNumber
  00082	3c 2d		 cmp	 al, 45			; 0000002dH
  00084	74 04		 je	 SHORT $LN6@GetNumber
  00086	3c 2b		 cmp	 al, 43			; 0000002bH
  00088	75 0e		 jne	 SHORT $LN2@GetNumber
$LN6@GetNumber:

; 375  : 			szRet += ch;

  0008a	ff 75 ec	 push	 DWORD PTR _ch$[ebp]
  0008d	8b cb		 mov	 ecx, ebx
  0008f	ff 15 00 00 00
	00		 call	 DWORD PTR __imp_??Y?$CStringT@DV?$StrTraitMFC_DLL@DV?$ChTraitsCRT@D@ATL@@@@@ATL@@QAEAAV01@D@Z
  00095	8b 4d 0c	 mov	 ecx, DWORD PTR _pData$[ebp]
$LN2@GetNumber:

; 370  : 	char	ch;
; 371  : 
; 372  : 	for(int i=0;  i<nLen ; i++) {

  00098	46		 inc	 esi
  00099	3b f7		 cmp	 esi, edi
  0009b	7c d3		 jl	 SHORT $LL4@GetNumber
$LN16@GetNumber:

; 378  : }

  0009d	8b c3		 mov	 eax, ebx
  0009f	8b 4d f4	 mov	 ecx, DWORD PTR __$EHRec$[ebp]
  000a2	64 89 0d 00 00
	00 00		 mov	 DWORD PTR fs:0, ecx
  000a9	59		 pop	 ecx
  000aa	5f		 pop	 edi
  000ab	5e		 pop	 esi
  000ac	5b		 pop	 ebx
  000ad	8b e5		 mov	 esp, ebp
  000af	5d		 pop	 ebp
  000b0	c2 08 00	 ret	 8
_TEXT	ENDS
;	COMDAT text$x
text$x	SEGMENT
__unwindfunclet$?GetNumber@CDlgResult@@QAE?AV?$CStringT@DV?$StrTraitMFC_DLL@DV?$ChTraitsCRT@D@ATL@@@@@ATL@@PBD@Z$0:
  00000	8b 45 f0	 mov	 eax, DWORD PTR $T2[ebp]
  00003	83 e0 01	 and	 eax, 1
  00006	0f 84 0d 00 00
	00		 je	 $LN10@GetNumber
  0000c	83 65 f0 fe	 and	 DWORD PTR $T2[ebp], -2	; fffffffeH
  00010	8b 4d 08	 mov	 ecx, DWORD PTR ___$ReturnUdt$[ebp]
  00013	ff 25 00 00 00
	00		 jmp	 DWORD PTR __imp_??1?$CStringT@DV?$StrTraitMFC_DLL@DV?$ChTraitsCRT@D@ATL@@@@@ATL@@QAE@XZ
$LN10@GetNumber:
  00019	c3		 ret	 0
  0001a	cc		 int	 3
  0001b	cc		 int	 3
  0001c	cc		 int	 3
  0001d	cc		 int	 3
  0001e	cc		 int	 3
__ehhandler$?GetNumber@CDlgResult@@QAE?AV?$CStringT@DV?$StrTraitMFC_DLL@DV?$ChTraitsCRT@D@ATL@@@@@ATL@@PBD@Z:
  0001f	90		 npad	 1
  00020	90		 npad	 1
  00021	8b 54 24 08	 mov	 edx, DWORD PTR [esp+8]
  00025	8d 42 0c	 lea	 eax, DWORD PTR [edx+12]
  00028	8b 4a e8	 mov	 ecx, DWORD PTR [edx-24]
  0002b	33 c8		 xor	 ecx, eax
  0002d	e8 00 00 00 00	 call	 @__security_check_cookie@4
  00032	b8 00 00 00 00	 mov	 eax, OFFSET __ehfuncinfo$?GetNumber@CDlgResult@@QAE?AV?$CStringT@DV?$StrTraitMFC_DLL@DV?$ChTraitsCRT@D@ATL@@@@@ATL@@PBD@Z
  00037	e9 00 00 00 00	 jmp	 ___CxxFrameHandler3
text$x	ENDS
?GetNumber@CDlgResult@@QAE?AV?$CStringT@DV?$StrTraitMFC_DLL@DV?$ChTraitsCRT@D@ATL@@@@@ATL@@PBD@Z ENDP ; CDlgResult::GetNumber
; Function compile flags: /Ogtp
; File D:\git\src\IBK\IBK_DRFN\ProjSrc\SrcDrfn\Chart\INDEXOPTIMIZER\DlgResult.cpp
; File C:\Program Files (x86)\Microsoft Visual Studio\2019\Community\VC\Tools\MSVC\14.29.30133\atlmfc\include\atlsimpstr.h
; File D:\git\src\IBK\IBK_DRFN\ProjSrc\SrcDrfn\Chart\INDEXOPTIMIZER\DlgResult.cpp
; File C:\Program Files (x86)\Microsoft Visual Studio\2019\Community\VC\Tools\MSVC\14.29.30133\atlmfc\include\atlsimpstr.h
; File D:\git\src\IBK\IBK_DRFN\ProjSrc\SrcDrfn\Chart\INDEXOPTIMIZER\DlgResult.cpp
; File C:\Program Files (x86)\Microsoft Visual Studio\2019\Community\VC\Tools\MSVC\14.29.30133\atlmfc\include\atlsimpstr.h
; File D:\git\src\IBK\IBK_DRFN\ProjSrc\SrcDrfn\Chart\INDEXOPTIMIZER\DlgResult.cpp
; File C:\Program Files (x86)\Microsoft Visual Studio\2019\Community\VC\Tools\MSVC\14.29.30133\atlmfc\include\atlsimpstr.h
; File D:\git\src\IBK\IBK_DRFN\ProjSrc\SrcDrfn\Chart\INDEXOPTIMIZER\DlgResult.cpp
; File C:\Program Files (x86)\Microsoft Visual Studio\2019\Community\VC\Tools\MSVC\14.29.30133\atlmfc\include\atlsimpstr.h
; File D:\git\src\IBK\IBK_DRFN\ProjSrc\SrcDrfn\Chart\INDEXOPTIMIZER\DlgResult.cpp
; File C:\Program Files (x86)\Microsoft Visual Studio\2019\Community\VC\Tools\MSVC\14.29.30133\atlmfc\include\atlsimpstr.h
; File D:\git\src\IBK\IBK_DRFN\ProjSrc\SrcDrfn\Chart\INDEXOPTIMIZER\DlgResult.cpp
;	COMDAT ?GetComma@CDlgResult@@QAE?AV?$CStringT@DV?$StrTraitMFC_DLL@DV?$ChTraitsCRT@D@ATL@@@@@ATL@@PBD@Z
_TEXT	SEGMENT
_ddata$ = -36						; size = 8
_ch$2 = -32						; size = 1
$T3 = -32						; size = 4
$T4 = -32						; size = 4
$T5 = -28						; size = 4
_IsFloat$1$ = -24					; size = 4
$T6 = -24						; size = 4
_szTmp2$ = -20						; size = 4
_szRet$ = -16						; size = 4
__$EHRec$ = -12						; size = 12
___$ReturnUdt$ = 8					; size = 4
_szTmp$ = 12						; size = 4
_pData$ = 12						; size = 4
?GetComma@CDlgResult@@QAE?AV?$CStringT@DV?$StrTraitMFC_DLL@DV?$ChTraitsCRT@D@ATL@@@@@ATL@@PBD@Z PROC ; CDlgResult::GetComma, COMDAT
; _this$ = ecx

; 381  : {

  00000	55		 push	 ebp
  00001	8b ec		 mov	 ebp, esp
  00003	6a ff		 push	 -1
  00005	68 00 00 00 00	 push	 __ehhandler$?GetComma@CDlgResult@@QAE?AV?$CStringT@DV?$StrTraitMFC_DLL@DV?$ChTraitsCRT@D@ATL@@@@@ATL@@PBD@Z
  0000a	64 a1 00 00 00
	00		 mov	 eax, DWORD PTR fs:0
  00010	50		 push	 eax
  00011	83 ec 18	 sub	 esp, 24			; 00000018H
  00014	53		 push	 ebx
  00015	56		 push	 esi
  00016	57		 push	 edi
  00017	a1 00 00 00 00	 mov	 eax, DWORD PTR ___security_cookie
  0001c	33 c5		 xor	 eax, ebp
  0001e	50		 push	 eax
  0001f	8d 45 f4	 lea	 eax, DWORD PTR __$EHRec$[ebp]
  00022	64 a3 00 00 00
	00		 mov	 DWORD PTR fs:0, eax
  00028	c7 45 e4 00 00
	00 00		 mov	 DWORD PTR $T5[ebp], 0

; 382  : 	//KHD :  
; 383  : 	double ddata = atof(pData);

  0002f	8b 75 0c	 mov	 esi, DWORD PTR _pData$[ebp]
  00032	56		 push	 esi
  00033	ff 15 00 00 00
	00		 call	 DWORD PTR __imp__atof
  00039	dd 5d dc	 fstp	 QWORD PTR _ddata$[ebp]

; 384  : 	if(ddata ==0) return "0";

  0003c	f2 0f 10 45 dc	 movsd	 xmm0, QWORD PTR _ddata$[ebp]
  00041	83 c4 04	 add	 esp, 4
  00044	66 0f 2e 05 00
	00 00 00	 ucomisd xmm0, QWORD PTR __real@0000000000000000
  0004c	9f		 lahf
  0004d	f6 c4 44	 test	 ah, 68			; 00000044H
  00050	7a 13		 jp	 SHORT $LN5@GetComma
  00052	8b 4d 08	 mov	 ecx, DWORD PTR ___$ReturnUdt$[ebp]
  00055	68 00 00 00 00	 push	 OFFSET ??_C@_01GBGANLPD@0@
  0005a	ff 15 00 00 00
	00		 call	 DWORD PTR __imp_??0?$CStringT@DV?$StrTraitMFC_DLL@DV?$ChTraitsCRT@D@ATL@@@@@ATL@@QAE@PBD@Z
  00060	e9 40 02 00 00	 jmp	 $LN65@GetComma
$LN5@GetComma:

; 385  : 
; 386  : 	CString szRet=_T("");

  00065	68 00 00 00 00	 push	 OFFSET ??_C@_00CNPNBAHC@@
  0006a	8d 4d f0	 lea	 ecx, DWORD PTR _szRet$[ebp]
  0006d	ff 15 00 00 00
	00		 call	 DWORD PTR __imp_??0?$CStringT@DV?$StrTraitMFC_DLL@DV?$ChTraitsCRT@D@ATL@@@@@ATL@@QAE@PBD@Z

; 387  : 	CString szTmp = pData;

  00073	56		 push	 esi
  00074	8d 4d 0c	 lea	 ecx, DWORD PTR _szTmp$[ebp]
  00077	c7 45 fc 00 00
	00 00		 mov	 DWORD PTR __$EHRec$[ebp+8], 0
  0007e	ff 15 00 00 00
	00		 call	 DWORD PTR __imp_??0?$CStringT@DV?$StrTraitMFC_DLL@DV?$ChTraitsCRT@D@ATL@@@@@ATL@@QAE@PBD@Z

; 388  : 	CString szTmp2;

  00084	8d 4d ec	 lea	 ecx, DWORD PTR _szTmp2$[ebp]
  00087	ff 15 00 00 00
	00		 call	 DWORD PTR __imp_??0?$CStringT@DV?$StrTraitMFC_DLL@DV?$ChTraitsCRT@D@ATL@@@@@ATL@@QAE@XZ

; 389  : 	szTmp.TrimLeft();

  0008d	8d 4d 0c	 lea	 ecx, DWORD PTR _szTmp$[ebp]
  00090	c6 45 fc 02	 mov	 BYTE PTR __$EHRec$[ebp+8], 2
  00094	ff 15 00 00 00
	00		 call	 DWORD PTR __imp_?TrimLeft@?$CStringT@DV?$StrTraitMFC_DLL@DV?$ChTraitsCRT@D@ATL@@@@@ATL@@QAEAAV12@XZ

; 390  : 	szTmp.TrimRight();

  0009a	8d 4d 0c	 lea	 ecx, DWORD PTR _szTmp$[ebp]
  0009d	ff 15 00 00 00
	00		 call	 DWORD PTR __imp_?TrimRight@?$CStringT@DV?$StrTraitMFC_DLL@DV?$ChTraitsCRT@D@ATL@@@@@ATL@@QAEAAV12@XZ
; File C:\Program Files (x86)\Microsoft Visual Studio\2019\Community\VC\Tools\MSVC\14.29.30133\atlmfc\include\atlsimpstr.h

; 377  : 		return( m_pszData );

  000a3	8b 5d 0c	 mov	 ebx, DWORD PTR _szTmp$[ebp]
; File D:\git\src\IBK\IBK_DRFN\ProjSrc\SrcDrfn\Chart\INDEXOPTIMIZER\DlgResult.cpp

; 368  : 	CString szRet=_T("");

  000a6	68 00 00 00 00	 push	 OFFSET ??_C@_00CNPNBAHC@@
  000ab	8d 4d e8	 lea	 ecx, DWORD PTR $T6[ebp]

; 391  : 
; 392  : 	szTmp = GetNumber(szTmp);

  000ae	c6 45 fc 03	 mov	 BYTE PTR __$EHRec$[ebp+8], 3

; 368  : 	CString szRet=_T("");

  000b2	ff 15 00 00 00
	00		 call	 DWORD PTR __imp_??0?$CStringT@DV?$StrTraitMFC_DLL@DV?$ChTraitsCRT@D@ATL@@@@@ATL@@QAE@PBD@Z

; 369  : 	int nLen = strlen(pData);

  000b8	8b f3		 mov	 esi, ebx

; 376  : 	}
; 377  : 	return szRet;

  000ba	c7 45 e4 02 00
	00 00		 mov	 DWORD PTR $T5[ebp], 2
  000c1	8d 4e 01	 lea	 ecx, DWORD PTR [esi+1]
$LL63@GetComma:

; 369  : 	int nLen = strlen(pData);

  000c4	8a 06		 mov	 al, BYTE PTR [esi]
  000c6	46		 inc	 esi
  000c7	84 c0		 test	 al, al
  000c9	75 f9		 jne	 SHORT $LL63@GetComma
  000cb	2b f1		 sub	 esi, ecx

; 385  : 
; 386  : 	CString szRet=_T("");

  000cd	33 ff		 xor	 edi, edi

; 372  : 	for(int i=0;  i<nLen ; i++) {

  000cf	85 f6		 test	 esi, esi
  000d1	7e 2b		 jle	 SHORT $LN28@GetComma
$LL29@GetComma:

; 373  : 		ch = pData[i];

  000d3	8a 04 1f	 mov	 al, BYTE PTR [edi+ebx]
  000d6	88 45 e0	 mov	 BYTE PTR _ch$2[ebp], al

; 374  : 		if(ch >= '0' && ch <= '9'||ch == '.' || ch == '-' || ch== '+') 

  000d9	3c 30		 cmp	 al, 48			; 00000030H
  000db	7c 04		 jl	 SHORT $LN32@GetComma
  000dd	3c 39		 cmp	 al, 57			; 00000039H
  000df	7e 0c		 jle	 SHORT $LN31@GetComma
$LN32@GetComma:
  000e1	3c 2e		 cmp	 al, 46			; 0000002eH
  000e3	74 08		 je	 SHORT $LN31@GetComma
  000e5	3c 2d		 cmp	 al, 45			; 0000002dH
  000e7	74 04		 je	 SHORT $LN31@GetComma
  000e9	3c 2b		 cmp	 al, 43			; 0000002bH
  000eb	75 0c		 jne	 SHORT $LN27@GetComma
$LN31@GetComma:

; 375  : 			szRet += ch;

  000ed	ff 75 e0	 push	 DWORD PTR _ch$2[ebp]
  000f0	8d 4d e8	 lea	 ecx, DWORD PTR $T6[ebp]
  000f3	ff 15 00 00 00
	00		 call	 DWORD PTR __imp_??Y?$CStringT@DV?$StrTraitMFC_DLL@DV?$ChTraitsCRT@D@ATL@@@@@ATL@@QAEAAV01@D@Z
$LN27@GetComma:

; 370  : 	char	ch;
; 371  : 
; 372  : 	for(int i=0;  i<nLen ; i++) {

  000f9	47		 inc	 edi
  000fa	3b fe		 cmp	 edi, esi
  000fc	7c d5		 jl	 SHORT $LL29@GetComma
$LN28@GetComma:

; 391  : 
; 392  : 	szTmp = GetNumber(szTmp);

  000fe	8d 45 e8	 lea	 eax, DWORD PTR $T6[ebp]
  00101	50		 push	 eax
  00102	8d 4d 0c	 lea	 ecx, DWORD PTR _szTmp$[ebp]
  00105	ff 15 00 00 00
	00		 call	 DWORD PTR __imp_??4?$CStringT@DV?$StrTraitMFC_DLL@DV?$ChTraitsCRT@D@ATL@@@@@ATL@@QAEAAV01@ABV01@@Z
  0010b	8d 4d e8	 lea	 ecx, DWORD PTR $T6[ebp]
  0010e	c6 45 fc 02	 mov	 BYTE PTR __$EHRec$[ebp+8], 2
  00112	ff 15 00 00 00
	00		 call	 DWORD PTR __imp_??1?$CStringT@DV?$StrTraitMFC_DLL@DV?$ChTraitsCRT@D@ATL@@@@@ATL@@QAE@XZ
; File C:\Program Files (x86)\Microsoft Visual Studio\2019\Community\VC\Tools\MSVC\14.29.30133\atlmfc\include\atlsimpstr.h

; 519  : 		return( GetData()->nDataLength );

  00118	8b 45 0c	 mov	 eax, DWORD PTR _szTmp$[ebp]

; 533  : 		return( GetLength() == 0 );

  0011b	83 78 f4 00	 cmp	 DWORD PTR [eax-12], 0
; File D:\git\src\IBK\IBK_DRFN\ProjSrc\SrcDrfn\Chart\INDEXOPTIMIZER\DlgResult.cpp

; 393  : 	if(szTmp.IsEmpty())	return "" ;

  0011f	75 13		 jne	 SHORT $LN6@GetComma
  00121	8b 4d 08	 mov	 ecx, DWORD PTR ___$ReturnUdt$[ebp]
  00124	68 00 00 00 00	 push	 OFFSET ??_C@_00CNPNBAHC@@
  00129	ff 15 00 00 00
	00		 call	 DWORD PTR __imp_??0?$CStringT@DV?$StrTraitMFC_DLL@DV?$ChTraitsCRT@D@ATL@@@@@ATL@@QAE@PBD@Z
  0012f	e9 56 01 00 00	 jmp	 $LN66@GetComma
$LN6@GetComma:

; 394  : 	TCHAR ch=' ';
; 395  : 	if(szTmp[0]=='+' ||szTmp[0]=='-') 

  00134	6a 00		 push	 0
  00136	8d 4d 0c	 lea	 ecx, DWORD PTR _szTmp$[ebp]
  00139	b3 20		 mov	 bl, 32			; 00000020H
  0013b	ff 15 00 00 00
	00		 call	 DWORD PTR __imp_??A?$CSimpleStringT@D$00@ATL@@QBEDH@Z
  00141	3c 2b		 cmp	 al, 43			; 0000002bH
  00143	74 0f		 je	 SHORT $LN8@GetComma
  00145	6a 00		 push	 0
  00147	8d 4d 0c	 lea	 ecx, DWORD PTR _szTmp$[ebp]
  0014a	ff 15 00 00 00
	00		 call	 DWORD PTR __imp_??A?$CSimpleStringT@D$00@ATL@@QBEDH@Z
  00150	3c 2d		 cmp	 al, 45			; 0000002dH
  00152	75 37		 jne	 SHORT $LN7@GetComma
$LN8@GetComma:

; 396  : 	{
; 397  : 		ch = szTmp[0];

  00154	6a 00		 push	 0
  00156	8d 4d 0c	 lea	 ecx, DWORD PTR _szTmp$[ebp]
  00159	ff 15 00 00 00
	00		 call	 DWORD PTR __imp_??A?$CSimpleStringT@D$00@ATL@@QBEDH@Z
  0015f	8a d8		 mov	 bl, al

; 398  : 		szTmp = szTmp.Mid(1);

  00161	8d 4d 0c	 lea	 ecx, DWORD PTR _szTmp$[ebp]
  00164	6a 01		 push	 1
  00166	8d 45 e0	 lea	 eax, DWORD PTR $T4[ebp]
  00169	50		 push	 eax
  0016a	ff 15 00 00 00
	00		 call	 DWORD PTR __imp_?Mid@?$CStringT@DV?$StrTraitMFC_DLL@DV?$ChTraitsCRT@D@ATL@@@@@ATL@@QBE?AV12@H@Z
  00170	50		 push	 eax
  00171	8d 4d 0c	 lea	 ecx, DWORD PTR _szTmp$[ebp]
  00174	c6 45 fc 04	 mov	 BYTE PTR __$EHRec$[ebp+8], 4
  00178	ff 15 00 00 00
	00		 call	 DWORD PTR __imp_??4?$CStringT@DV?$StrTraitMFC_DLL@DV?$ChTraitsCRT@D@ATL@@@@@ATL@@QAEAAV01@ABV01@@Z
  0017e	8d 4d e0	 lea	 ecx, DWORD PTR $T4[ebp]
  00181	c6 45 fc 02	 mov	 BYTE PTR __$EHRec$[ebp+8], 2
  00185	ff 15 00 00 00
	00		 call	 DWORD PTR __imp_??1?$CStringT@DV?$StrTraitMFC_DLL@DV?$ChTraitsCRT@D@ATL@@@@@ATL@@QAE@XZ
$LN7@GetComma:

; 399  : 	}
; 400  : 	BOOL IsFloat;
; 401  : 	int Index =szTmp.Find(".",0); 

  0018b	6a 00		 push	 0
  0018d	68 00 00 00 00	 push	 OFFSET ??_C@_01LFCBOECM@?4@
  00192	8d 4d 0c	 lea	 ecx, DWORD PTR _szTmp$[ebp]
  00195	ff 15 00 00 00
	00		 call	 DWORD PTR __imp_?Find@?$CStringT@DV?$StrTraitMFC_DLL@DV?$ChTraitsCRT@D@ATL@@@@@ATL@@QBEHPBDH@Z
  0019b	8b f0		 mov	 esi, eax

; 402  : 	if(Index>0)

  0019d	85 f6		 test	 esi, esi
  0019f	7e 4e		 jle	 SHORT $LN9@GetComma
; File C:\Program Files (x86)\Microsoft Visual Studio\2019\Community\VC\Tools\MSVC\14.29.30133\atlmfc\include\atlsimpstr.h

; 519  : 		return( GetData()->nDataLength );

  001a1	8b 4d 0c	 mov	 ecx, DWORD PTR _szTmp$[ebp]
; File D:\git\src\IBK\IBK_DRFN\ProjSrc\SrcDrfn\Chart\INDEXOPTIMIZER\DlgResult.cpp

; 410  : 		szTmp2 = szTmp.Mid(Index,szTmp.GetLength()-Index);

  001a4	8d 45 e0	 lea	 eax, DWORD PTR $T3[ebp]
  001a7	c7 45 e8 01 00
	00 00		 mov	 DWORD PTR _IsFloat$1$[ebp], 1
; File C:\Program Files (x86)\Microsoft Visual Studio\2019\Community\VC\Tools\MSVC\14.29.30133\atlmfc\include\atlsimpstr.h

; 519  : 		return( GetData()->nDataLength );

  001ae	8b 49 f4	 mov	 ecx, DWORD PTR [ecx-12]
; File D:\git\src\IBK\IBK_DRFN\ProjSrc\SrcDrfn\Chart\INDEXOPTIMIZER\DlgResult.cpp

; 410  : 		szTmp2 = szTmp.Mid(Index,szTmp.GetLength()-Index);

  001b1	2b ce		 sub	 ecx, esi
  001b3	51		 push	 ecx
  001b4	56		 push	 esi
  001b5	50		 push	 eax
  001b6	8d 4d 0c	 lea	 ecx, DWORD PTR _szTmp$[ebp]
  001b9	ff 15 00 00 00
	00		 call	 DWORD PTR __imp_?Mid@?$CStringT@DV?$StrTraitMFC_DLL@DV?$ChTraitsCRT@D@ATL@@@@@ATL@@QBE?AV12@HH@Z
  001bf	50		 push	 eax
  001c0	8d 4d ec	 lea	 ecx, DWORD PTR _szTmp2$[ebp]
  001c3	c6 45 fc 05	 mov	 BYTE PTR __$EHRec$[ebp+8], 5
  001c7	ff 15 00 00 00
	00		 call	 DWORD PTR __imp_??4?$CStringT@DV?$StrTraitMFC_DLL@DV?$ChTraitsCRT@D@ATL@@@@@ATL@@QAEAAV01@ABV01@@Z
  001cd	8d 4d e0	 lea	 ecx, DWORD PTR $T3[ebp]
  001d0	c6 45 fc 02	 mov	 BYTE PTR __$EHRec$[ebp+8], 2
  001d4	ff 15 00 00 00
	00		 call	 DWORD PTR __imp_??1?$CStringT@DV?$StrTraitMFC_DLL@DV?$ChTraitsCRT@D@ATL@@@@@ATL@@QAE@XZ

; 411  : 		szTmp.Delete(Index,szTmp.GetLength()- Index);

  001da	8b 45 0c	 mov	 eax, DWORD PTR _szTmp$[ebp]
  001dd	8d 4d 0c	 lea	 ecx, DWORD PTR _szTmp$[ebp]
  001e0	8b 40 f4	 mov	 eax, DWORD PTR [eax-12]
  001e3	2b c6		 sub	 eax, esi
  001e5	50		 push	 eax
  001e6	56		 push	 esi
  001e7	ff 15 00 00 00
	00		 call	 DWORD PTR __imp_?Delete@?$CStringT@DV?$StrTraitMFC_DLL@DV?$ChTraitsCRT@D@ATL@@@@@ATL@@QAEHHH@Z
  001ed	eb 07		 jmp	 SHORT $LN11@GetComma
$LN9@GetComma:

; 403  : 		IsFloat = TRUE;
; 404  : 	else
; 405  : 		IsFloat = FALSE;

  001ef	c7 45 e8 00 00
	00 00		 mov	 DWORD PTR _IsFloat$1$[ebp], 0
$LN11@GetComma:

; 412  : 		
; 413  : 	}
; 414  : 	szTmp.MakeReverse();

  001f6	8d 4d 0c	 lea	 ecx, DWORD PTR _szTmp$[ebp]
  001f9	ff 15 00 00 00
	00		 call	 DWORD PTR __imp_?MakeReverse@?$CStringT@DV?$StrTraitMFC_DLL@DV?$ChTraitsCRT@D@ATL@@@@@ATL@@QAEAAV12@XZ
; File C:\Program Files (x86)\Microsoft Visual Studio\2019\Community\VC\Tools\MSVC\14.29.30133\atlmfc\include\atlsimpstr.h

; 519  : 		return( GetData()->nDataLength );

  001ff	8b 45 0c	 mov	 eax, DWORD PTR _szTmp$[ebp]
; File D:\git\src\IBK\IBK_DRFN\ProjSrc\SrcDrfn\Chart\INDEXOPTIMIZER\DlgResult.cpp

; 416  : 	szRet.Empty();

  00202	8d 4d f0	 lea	 ecx, DWORD PTR _szRet$[ebp]
; File C:\Program Files (x86)\Microsoft Visual Studio\2019\Community\VC\Tools\MSVC\14.29.30133\atlmfc\include\atlsimpstr.h

; 519  : 		return( GetData()->nDataLength );

  00205	8b 78 f4	 mov	 edi, DWORD PTR [eax-12]
; File D:\git\src\IBK\IBK_DRFN\ProjSrc\SrcDrfn\Chart\INDEXOPTIMIZER\DlgResult.cpp

; 416  : 	szRet.Empty();

  00208	ff 15 00 00 00
	00		 call	 DWORD PTR __imp_?Empty@?$CSimpleStringT@D$00@ATL@@QAEXXZ
  0020e	33 f6		 xor	 esi, esi

; 417  : 	for(int i=0;  i<nLen;   i++) 

  00210	85 ff		 test	 edi, edi
  00212	7e 3d		 jle	 SHORT $LN3@GetComma
$LL4@GetComma:

; 418  : 	{
; 419  : 		if(i!=0 && !(i%3))	szRet += ',';

  00214	85 f6		 test	 esi, esi
  00216	74 1d		 je	 SHORT $LN12@GetComma
  00218	b8 ab aa aa aa	 mov	 eax, -1431655765	; aaaaaaabH
  0021d	8b ce		 mov	 ecx, esi
  0021f	f7 e6		 mul	 esi
  00221	d1 ea		 shr	 edx, 1
  00223	8d 04 52	 lea	 eax, DWORD PTR [edx+edx*2]
  00226	2b c8		 sub	 ecx, eax
  00228	75 0b		 jne	 SHORT $LN12@GetComma
  0022a	6a 2c		 push	 44			; 0000002cH
  0022c	8d 4d f0	 lea	 ecx, DWORD PTR _szRet$[ebp]
  0022f	ff 15 00 00 00
	00		 call	 DWORD PTR __imp_??Y?$CStringT@DV?$StrTraitMFC_DLL@DV?$ChTraitsCRT@D@ATL@@@@@ATL@@QAEAAV01@D@Z
$LN12@GetComma:

; 420  : 		szRet += szTmp[i];

  00235	56		 push	 esi
  00236	8d 4d 0c	 lea	 ecx, DWORD PTR _szTmp$[ebp]
  00239	ff 15 00 00 00
	00		 call	 DWORD PTR __imp_??A?$CSimpleStringT@D$00@ATL@@QBEDH@Z
  0023f	0f b6 c0	 movzx	 eax, al
  00242	8d 4d f0	 lea	 ecx, DWORD PTR _szRet$[ebp]
  00245	50		 push	 eax
  00246	ff 15 00 00 00
	00		 call	 DWORD PTR __imp_??Y?$CStringT@DV?$StrTraitMFC_DLL@DV?$ChTraitsCRT@D@ATL@@@@@ATL@@QAEAAV01@D@Z
  0024c	46		 inc	 esi
  0024d	3b f7		 cmp	 esi, edi
  0024f	7c c3		 jl	 SHORT $LL4@GetComma
$LN3@GetComma:

; 421  : 	}
; 422  : 	if(ch=='-') szRet += ch;

  00251	80 fb 2d	 cmp	 bl, 45			; 0000002dH
  00254	75 0b		 jne	 SHORT $LN13@GetComma
  00256	6a 2d		 push	 45			; 0000002dH
  00258	8d 4d f0	 lea	 ecx, DWORD PTR _szRet$[ebp]
  0025b	ff 15 00 00 00
	00		 call	 DWORD PTR __imp_??Y?$CStringT@DV?$StrTraitMFC_DLL@DV?$ChTraitsCRT@D@ATL@@@@@ATL@@QAEAAV01@D@Z
$LN13@GetComma:

; 423  : 	szRet.MakeReverse();

  00261	8d 4d f0	 lea	 ecx, DWORD PTR _szRet$[ebp]
  00264	ff 15 00 00 00
	00		 call	 DWORD PTR __imp_?MakeReverse@?$CStringT@DV?$StrTraitMFC_DLL@DV?$ChTraitsCRT@D@ATL@@@@@ATL@@QAEAAV12@XZ

; 424  : 	if(IsFloat)

  0026a	83 7d e8 00	 cmp	 DWORD PTR _IsFloat$1$[ebp], 0
  0026e	74 0d		 je	 SHORT $LN14@GetComma

; 425  : 		szRet+=szTmp2;

  00270	8d 45 ec	 lea	 eax, DWORD PTR _szTmp2$[ebp]
  00273	50		 push	 eax
  00274	8d 4d f0	 lea	 ecx, DWORD PTR _szRet$[ebp]
  00277	ff 15 00 00 00
	00		 call	 DWORD PTR __imp_??Y?$CStringT@DV?$StrTraitMFC_DLL@DV?$ChTraitsCRT@D@ATL@@@@@ATL@@QAEAAV01@ABV?$CSimpleStringT@D$00@1@@Z
$LN14@GetComma:

; 426  : 	return szRet;

  0027d	8b 4d 08	 mov	 ecx, DWORD PTR ___$ReturnUdt$[ebp]
  00280	8d 45 f0	 lea	 eax, DWORD PTR _szRet$[ebp]
  00283	50		 push	 eax
  00284	ff 15 00 00 00
	00		 call	 DWORD PTR __imp_??0?$CStringT@DV?$StrTraitMFC_DLL@DV?$ChTraitsCRT@D@ATL@@@@@ATL@@QAE@ABV01@@Z
$LN66@GetComma:

; 427  : 
; 428  : }

  0028a	8d 4d ec	 lea	 ecx, DWORD PTR _szTmp2$[ebp]
  0028d	ff 15 00 00 00
	00		 call	 DWORD PTR __imp_??1?$CStringT@DV?$StrTraitMFC_DLL@DV?$ChTraitsCRT@D@ATL@@@@@ATL@@QAE@XZ
  00293	8d 4d 0c	 lea	 ecx, DWORD PTR _szTmp$[ebp]
  00296	ff 15 00 00 00
	00		 call	 DWORD PTR __imp_??1?$CStringT@DV?$StrTraitMFC_DLL@DV?$ChTraitsCRT@D@ATL@@@@@ATL@@QAE@XZ
  0029c	8d 4d f0	 lea	 ecx, DWORD PTR _szRet$[ebp]
  0029f	ff 15 00 00 00
	00		 call	 DWORD PTR __imp_??1?$CStringT@DV?$StrTraitMFC_DLL@DV?$ChTraitsCRT@D@ATL@@@@@ATL@@QAE@XZ
$LN65@GetComma:
  002a5	8b 45 08	 mov	 eax, DWORD PTR ___$ReturnUdt$[ebp]
  002a8	8b 4d f4	 mov	 ecx, DWORD PTR __$EHRec$[ebp]
  002ab	64 89 0d 00 00
	00 00		 mov	 DWORD PTR fs:0, ecx
  002b2	59		 pop	 ecx
  002b3	5f		 pop	 edi
  002b4	5e		 pop	 esi
  002b5	5b		 pop	 ebx
  002b6	8b e5		 mov	 esp, ebp
  002b8	5d		 pop	 ebp
  002b9	c2 08 00	 ret	 8
_TEXT	ENDS
;	COMDAT text$x
text$x	SEGMENT
__unwindfunclet$?GetComma@CDlgResult@@QAE?AV?$CStringT@DV?$StrTraitMFC_DLL@DV?$ChTraitsCRT@D@ATL@@@@@ATL@@PBD@Z$1:
  00000	8d 4d f0	 lea	 ecx, DWORD PTR _szRet$[ebp]
  00003	ff 25 00 00 00
	00		 jmp	 DWORD PTR __imp_??1?$CStringT@DV?$StrTraitMFC_DLL@DV?$ChTraitsCRT@D@ATL@@@@@ATL@@QAE@XZ
__unwindfunclet$?GetComma@CDlgResult@@QAE?AV?$CStringT@DV?$StrTraitMFC_DLL@DV?$ChTraitsCRT@D@ATL@@@@@ATL@@PBD@Z$2:
  00009	8d 4d 0c	 lea	 ecx, DWORD PTR _szTmp$[ebp]
  0000c	ff 25 00 00 00
	00		 jmp	 DWORD PTR __imp_??1?$CStringT@DV?$StrTraitMFC_DLL@DV?$ChTraitsCRT@D@ATL@@@@@ATL@@QAE@XZ
__unwindfunclet$?GetComma@CDlgResult@@QAE?AV?$CStringT@DV?$StrTraitMFC_DLL@DV?$ChTraitsCRT@D@ATL@@@@@ATL@@PBD@Z$3:
  00012	8d 4d ec	 lea	 ecx, DWORD PTR _szTmp2$[ebp]
  00015	ff 25 00 00 00
	00		 jmp	 DWORD PTR __imp_??1?$CStringT@DV?$StrTraitMFC_DLL@DV?$ChTraitsCRT@D@ATL@@@@@ATL@@QAE@XZ
__unwindfunclet$?GetComma@CDlgResult@@QAE?AV?$CStringT@DV?$StrTraitMFC_DLL@DV?$ChTraitsCRT@D@ATL@@@@@ATL@@PBD@Z$7:
  0001b	8b 45 e4	 mov	 eax, DWORD PTR $T5[ebp]
  0001e	83 e0 02	 and	 eax, 2
  00021	0f 84 0d 00 00
	00		 je	 $LN35@GetComma
  00027	83 65 e4 fd	 and	 DWORD PTR $T5[ebp], -3	; fffffffdH
  0002b	8d 4d e8	 lea	 ecx, DWORD PTR $T6[ebp]
  0002e	ff 25 00 00 00
	00		 jmp	 DWORD PTR __imp_??1?$CStringT@DV?$StrTraitMFC_DLL@DV?$ChTraitsCRT@D@ATL@@@@@ATL@@QAE@XZ
$LN35@GetComma:
  00034	c3		 ret	 0
__unwindfunclet$?GetComma@CDlgResult@@QAE?AV?$CStringT@DV?$StrTraitMFC_DLL@DV?$ChTraitsCRT@D@ATL@@@@@ATL@@PBD@Z$5:
  00035	8d 4d e0	 lea	 ecx, DWORD PTR $T4[ebp]
  00038	ff 25 00 00 00
	00		 jmp	 DWORD PTR __imp_??1?$CStringT@DV?$StrTraitMFC_DLL@DV?$ChTraitsCRT@D@ATL@@@@@ATL@@QAE@XZ
__unwindfunclet$?GetComma@CDlgResult@@QAE?AV?$CStringT@DV?$StrTraitMFC_DLL@DV?$ChTraitsCRT@D@ATL@@@@@ATL@@PBD@Z$6:
  0003e	8d 4d e0	 lea	 ecx, DWORD PTR $T3[ebp]
  00041	ff 25 00 00 00
	00		 jmp	 DWORD PTR __imp_??1?$CStringT@DV?$StrTraitMFC_DLL@DV?$ChTraitsCRT@D@ATL@@@@@ATL@@QAE@XZ
  00047	cc		 int	 3
  00048	cc		 int	 3
  00049	cc		 int	 3
  0004a	cc		 int	 3
  0004b	cc		 int	 3
__ehhandler$?GetComma@CDlgResult@@QAE?AV?$CStringT@DV?$StrTraitMFC_DLL@DV?$ChTraitsCRT@D@ATL@@@@@ATL@@PBD@Z:
  0004c	90		 npad	 1
  0004d	90		 npad	 1
  0004e	8b 54 24 08	 mov	 edx, DWORD PTR [esp+8]
  00052	8d 42 0c	 lea	 eax, DWORD PTR [edx+12]
  00055	8b 4a d8	 mov	 ecx, DWORD PTR [edx-40]
  00058	33 c8		 xor	 ecx, eax
  0005a	e8 00 00 00 00	 call	 @__security_check_cookie@4
  0005f	b8 00 00 00 00	 mov	 eax, OFFSET __ehfuncinfo$?GetComma@CDlgResult@@QAE?AV?$CStringT@DV?$StrTraitMFC_DLL@DV?$ChTraitsCRT@D@ATL@@@@@ATL@@PBD@Z
  00064	e9 00 00 00 00	 jmp	 ___CxxFrameHandler3
text$x	ENDS
?GetComma@CDlgResult@@QAE?AV?$CStringT@DV?$StrTraitMFC_DLL@DV?$ChTraitsCRT@D@ATL@@@@@ATL@@PBD@Z ENDP ; CDlgResult::GetComma
; Function compile flags: /Ogtp
; File D:\git\src\IBK\IBK_DRFN\ProjSrc\SrcDrfn\Chart\INDEXOPTIMIZER\DlgResult.cpp
;	COMDAT ?OpenWebView@CDlgResult@@QAEXV?$CStringT@DV?$StrTraitMFC_DLL@DV?$ChTraitsCRT@D@ATL@@@@@ATL@@@Z
_TEXT	SEGMENT
_FileName$ = 8						; size = 4
?OpenWebView@CDlgResult@@QAEXV?$CStringT@DV?$StrTraitMFC_DLL@DV?$ChTraitsCRT@D@ATL@@@@@ATL@@@Z PROC ; CDlgResult::OpenWebView, COMDAT
; _this$ = ecx

; 604  : {

  00000	55		 push	 ebp
  00001	8b ec		 mov	 ebp, esp

; 605  : 	//InitHtml();
; 606  : 	//CString strPath = m_strDir+FileName;
; 607  : 	//m_Browser.Navigate(strPath,NULL,NULL,NULL,NULL);
; 608  : 	return;
; 609  : 	
; 610  : }

  00003	8d 4d 08	 lea	 ecx, DWORD PTR _FileName$[ebp]
  00006	ff 15 00 00 00
	00		 call	 DWORD PTR __imp_??1?$CStringT@DV?$StrTraitMFC_DLL@DV?$ChTraitsCRT@D@ATL@@@@@ATL@@QAE@XZ
  0000c	5d		 pop	 ebp
  0000d	c2 04 00	 ret	 4
?OpenWebView@CDlgResult@@QAEXV?$CStringT@DV?$StrTraitMFC_DLL@DV?$ChTraitsCRT@D@ATL@@@@@ATL@@@Z ENDP ; CDlgResult::OpenWebView
_TEXT	ENDS
; Function compile flags: /Ogtp
; File D:\git\src\IBK\IBK_DRFN\ProjSrc\SrcDrfn\Chart\INDEXOPTIMIZER\DlgResult.cpp
;	COMDAT ?ParsingstrHtml@CDlgResult@@QAE?AV?$CStringT@DV?$StrTraitMFC_DLL@DV?$ChTraitsCRT@D@ATL@@@@@ATL@@V23@@Z
_TEXT	SEGMENT
___$ReturnUdt$GSCopy$ = -228				; size = 4
___$ReturnUdt$GSCopy$1$ = -224				; size = 4
$T2 = -220						; size = 4
_this$GSCopy$1$ = -216					; size = 4
_stData$ = -212						; size = 32
$T3 = -180						; size = 4
tv582 = -176						; size = 8
_Data$ = -176						; size = 8
_strACCumProf$ = -168					; size = 4
_strData$ = -164					; size = 4
_m_pHtmlCodeNameArray$ = -160				; size = 144
__$ArrayPad$ = -16					; size = 4
__$EHRec$ = -12						; size = 12
___$ReturnUdt$ = 8					; size = 4
_strHtml$ = 12						; size = 4
?ParsingstrHtml@CDlgResult@@QAE?AV?$CStringT@DV?$StrTraitMFC_DLL@DV?$ChTraitsCRT@D@ATL@@@@@ATL@@V23@@Z PROC ; CDlgResult::ParsingstrHtml, COMDAT
; _this$ = ecx

; 315  : {

  00000	55		 push	 ebp
  00001	8b ec		 mov	 ebp, esp
  00003	6a ff		 push	 -1
  00005	68 00 00 00 00	 push	 __ehhandler$?ParsingstrHtml@CDlgResult@@QAE?AV?$CStringT@DV?$StrTraitMFC_DLL@DV?$ChTraitsCRT@D@ATL@@@@@ATL@@V23@@Z
  0000a	64 a1 00 00 00
	00		 mov	 eax, DWORD PTR fs:0
  00010	50		 push	 eax
  00011	81 ec d8 00 00
	00		 sub	 esp, 216		; 000000d8H
  00017	a1 00 00 00 00	 mov	 eax, DWORD PTR ___security_cookie
  0001c	33 c5		 xor	 eax, ebp
  0001e	89 45 f0	 mov	 DWORD PTR __$ArrayPad$[ebp], eax
  00021	53		 push	 ebx
  00022	56		 push	 esi
  00023	57		 push	 edi
  00024	50		 push	 eax
  00025	8d 45 f4	 lea	 eax, DWORD PTR __$EHRec$[ebp]
  00028	64 a3 00 00 00
	00		 mov	 DWORD PTR fs:0, eax
  0002e	8b f1		 mov	 esi, ecx
  00030	89 b5 28 ff ff
	ff		 mov	 DWORD PTR _this$GSCopy$1$[ebp], esi
  00036	8b 5d 08	 mov	 ebx, DWORD PTR ___$ReturnUdt$[ebp]
  00039	89 9d 1c ff ff
	ff		 mov	 DWORD PTR ___$ReturnUdt$GSCopy$[ebp], ebx
  0003f	89 9d 20 ff ff
	ff		 mov	 DWORD PTR ___$ReturnUdt$GSCopy$1$[ebp], ebx
  00045	c7 85 4c ff ff
	ff 00 00 00 00	 mov	 DWORD PTR $T3[ebp], 0

; 316  : 	//        //
; 317  : 	double Data;
; 318  : 	CString strData;

  0004f	8d 8d 5c ff ff
	ff		 lea	 ecx, DWORD PTR _strData$[ebp]
  00055	c7 45 fc 01 00
	00 00		 mov	 DWORD PTR __$EHRec$[ebp+8], 1
  0005c	ff 15 00 00 00
	00		 call	 DWORD PTR __imp_??0?$CStringT@DV?$StrTraitMFC_DLL@DV?$ChTraitsCRT@D@ATL@@@@@ATL@@QAE@XZ

; 319  : 	CString m_pHtmlCodeNameArray[MAXDATANUM] = 
; 320  : 	{"AccumProf","AAverProf","CurPosRate","TotalSon","TotalProf",

  00062	68 00 00 00 00	 push	 OFFSET ??_C@_09NFLEOFMG@AccumProf@
  00067	8d 8d 60 ff ff
	ff		 lea	 ecx, DWORD PTR _m_pHtmlCodeNameArray$[ebp]
  0006d	c6 45 fc 02	 mov	 BYTE PTR __$EHRec$[ebp+8], 2
  00071	ff 15 00 00 00
	00		 call	 DWORD PTR __imp_??0?$CStringT@DV?$StrTraitMFC_DLL@DV?$ChTraitsCRT@D@ATL@@@@@ATL@@QAE@PBD@Z
  00077	68 00 00 00 00	 push	 OFFSET ??_C@_09NILGFMCM@AAverProf@
  0007c	8d 8d 64 ff ff
	ff		 lea	 ecx, DWORD PTR _m_pHtmlCodeNameArray$[ebp+4]
  00082	c6 45 fc 03	 mov	 BYTE PTR __$EHRec$[ebp+8], 3
  00086	ff 15 00 00 00
	00		 call	 DWORD PTR __imp_??0?$CStringT@DV?$StrTraitMFC_DLL@DV?$ChTraitsCRT@D@ATL@@@@@ATL@@QAE@PBD@Z
  0008c	68 00 00 00 00	 push	 OFFSET ??_C@_0L@DKLCHHHE@CurPosRate@
  00091	8d 8d 68 ff ff
	ff		 lea	 ecx, DWORD PTR _m_pHtmlCodeNameArray$[ebp+8]
  00097	c6 45 fc 04	 mov	 BYTE PTR __$EHRec$[ebp+8], 4
  0009b	ff 15 00 00 00
	00		 call	 DWORD PTR __imp_??0?$CStringT@DV?$StrTraitMFC_DLL@DV?$ChTraitsCRT@D@ATL@@@@@ATL@@QAE@PBD@Z
  000a1	68 00 00 00 00	 push	 OFFSET ??_C@_08NJIDJBMP@TotalSon@
  000a6	8d 8d 6c ff ff
	ff		 lea	 ecx, DWORD PTR _m_pHtmlCodeNameArray$[ebp+12]
  000ac	c6 45 fc 05	 mov	 BYTE PTR __$EHRec$[ebp+8], 5
  000b0	ff 15 00 00 00
	00		 call	 DWORD PTR __imp_??0?$CStringT@DV?$StrTraitMFC_DLL@DV?$ChTraitsCRT@D@ATL@@@@@ATL@@QAE@PBD@Z
  000b6	68 00 00 00 00	 push	 OFFSET ??_C@_09NMLEAPDE@TotalProf@
  000bb	8d 8d 70 ff ff
	ff		 lea	 ecx, DWORD PTR _m_pHtmlCodeNameArray$[ebp+16]
  000c1	c6 45 fc 06	 mov	 BYTE PTR __$EHRec$[ebp+8], 6
  000c5	ff 15 00 00 00
	00		 call	 DWORD PTR __imp_??0?$CStringT@DV?$StrTraitMFC_DLL@DV?$ChTraitsCRT@D@ATL@@@@@ATL@@QAE@PBD@Z

; 321  : 	"Totalloss","TotalPL","MaxProf","MaxLoss","AverSon","AverProf",

  000cb	68 00 00 00 00	 push	 OFFSET ??_C@_09DIJPGJPB@Totalloss@
  000d0	8d 8d 74 ff ff
	ff		 lea	 ecx, DWORD PTR _m_pHtmlCodeNameArray$[ebp+20]
  000d6	c6 45 fc 07	 mov	 BYTE PTR __$EHRec$[ebp+8], 7
  000da	ff 15 00 00 00
	00		 call	 DWORD PTR __imp_??0?$CStringT@DV?$StrTraitMFC_DLL@DV?$ChTraitsCRT@D@ATL@@@@@ATL@@QAE@PBD@Z
  000e0	68 00 00 00 00	 push	 OFFSET ??_C@_07EDCOJGIO@TotalPL@
  000e5	8d 8d 78 ff ff
	ff		 lea	 ecx, DWORD PTR _m_pHtmlCodeNameArray$[ebp+24]
  000eb	c6 45 fc 08	 mov	 BYTE PTR __$EHRec$[ebp+8], 8
  000ef	ff 15 00 00 00
	00		 call	 DWORD PTR __imp_??0?$CStringT@DV?$StrTraitMFC_DLL@DV?$ChTraitsCRT@D@ATL@@@@@ATL@@QAE@PBD@Z
  000f5	68 00 00 00 00	 push	 OFFSET ??_C@_07GLPMNILH@MaxProf@
  000fa	8d 8d 7c ff ff
	ff		 lea	 ecx, DWORD PTR _m_pHtmlCodeNameArray$[ebp+28]
  00100	c6 45 fc 09	 mov	 BYTE PTR __$EHRec$[ebp+8], 9
  00104	ff 15 00 00 00
	00		 call	 DWORD PTR __imp_??0?$CStringT@DV?$StrTraitMFC_DLL@DV?$ChTraitsCRT@D@ATL@@@@@ATL@@QAE@PBD@Z
  0010a	68 00 00 00 00	 push	 OFFSET ??_C@_07EOBGJBHG@MaxLoss@
  0010f	8d 4d 80	 lea	 ecx, DWORD PTR _m_pHtmlCodeNameArray$[ebp+32]
  00112	c6 45 fc 0a	 mov	 BYTE PTR __$EHRec$[ebp+8], 10 ; 0000000aH
  00116	ff 15 00 00 00
	00		 call	 DWORD PTR __imp_??0?$CStringT@DV?$StrTraitMFC_DLL@DV?$ChTraitsCRT@D@ATL@@@@@ATL@@QAE@PBD@Z
  0011c	68 00 00 00 00	 push	 OFFSET ??_C@_07EKDEEAMK@AverSon@
  00121	8d 4d 84	 lea	 ecx, DWORD PTR _m_pHtmlCodeNameArray$[ebp+36]
  00124	c6 45 fc 0b	 mov	 BYTE PTR __$EHRec$[ebp+8], 11 ; 0000000bH
  00128	ff 15 00 00 00
	00		 call	 DWORD PTR __imp_??0?$CStringT@DV?$StrTraitMFC_DLL@DV?$ChTraitsCRT@D@ATL@@@@@ATL@@QAE@PBD@Z
  0012e	68 00 00 00 00	 push	 OFFSET ??_C@_08KMENEMGK@AverProf@
  00133	8d 4d 88	 lea	 ecx, DWORD PTR _m_pHtmlCodeNameArray$[ebp+40]
  00136	c6 45 fc 0c	 mov	 BYTE PTR __$EHRec$[ebp+8], 12 ; 0000000cH
  0013a	ff 15 00 00 00
	00		 call	 DWORD PTR __imp_??0?$CStringT@DV?$StrTraitMFC_DLL@DV?$ChTraitsCRT@D@ATL@@@@@ATL@@QAE@PBD@Z

; 322  : 	"AverLoss",	"TotalEnt","NoCleanTotal","NoClean","TotalTrade",

  00140	68 00 00 00 00	 push	 OFFSET ??_C@_08IJKHAFKL@AverLoss@
  00145	8d 4d 8c	 lea	 ecx, DWORD PTR _m_pHtmlCodeNameArray$[ebp+44]
  00148	c6 45 fc 0d	 mov	 BYTE PTR __$EHRec$[ebp+8], 13 ; 0000000dH
  0014c	ff 15 00 00 00
	00		 call	 DWORD PTR __imp_??0?$CStringT@DV?$StrTraitMFC_DLL@DV?$ChTraitsCRT@D@ATL@@@@@ATL@@QAE@PBD@Z
  00152	68 00 00 00 00	 push	 OFFSET ??_C@_08BNBOAJGA@TotalEnt@
  00157	8d 4d 90	 lea	 ecx, DWORD PTR _m_pHtmlCodeNameArray$[ebp+48]
  0015a	c6 45 fc 0e	 mov	 BYTE PTR __$EHRec$[ebp+8], 14 ; 0000000eH
  0015e	ff 15 00 00 00
	00		 call	 DWORD PTR __imp_??0?$CStringT@DV?$StrTraitMFC_DLL@DV?$ChTraitsCRT@D@ATL@@@@@ATL@@QAE@PBD@Z
  00164	68 00 00 00 00	 push	 OFFSET ??_C@_0N@FABGAHHD@NoCleanTotal@
  00169	8d 4d 94	 lea	 ecx, DWORD PTR _m_pHtmlCodeNameArray$[ebp+52]
  0016c	c6 45 fc 0f	 mov	 BYTE PTR __$EHRec$[ebp+8], 15 ; 0000000fH
  00170	ff 15 00 00 00
	00		 call	 DWORD PTR __imp_??0?$CStringT@DV?$StrTraitMFC_DLL@DV?$ChTraitsCRT@D@ATL@@@@@ATL@@QAE@PBD@Z
  00176	c6 45 fc 10	 mov	 BYTE PTR __$EHRec$[ebp+8], 16 ; 00000010H
  0017a	68 00 00 00 00	 push	 OFFSET ??_C@_07LAKJMOME@NoClean@
  0017f	8d 4d 98	 lea	 ecx, DWORD PTR _m_pHtmlCodeNameArray$[ebp+56]
  00182	ff 15 00 00 00
	00		 call	 DWORD PTR __imp_??0?$CStringT@DV?$StrTraitMFC_DLL@DV?$ChTraitsCRT@D@ATL@@@@@ATL@@QAE@PBD@Z
  00188	68 00 00 00 00	 push	 OFFSET ??_C@_0L@EBCIDOBD@TotalTrade@
  0018d	8d 4d 9c	 lea	 ecx, DWORD PTR _m_pHtmlCodeNameArray$[ebp+60]
  00190	c6 45 fc 11	 mov	 BYTE PTR __$EHRec$[ebp+8], 17 ; 00000011H
  00194	ff 15 00 00 00
	00		 call	 DWORD PTR __imp_??0?$CStringT@DV?$StrTraitMFC_DLL@DV?$ChTraitsCRT@D@ATL@@@@@ATL@@QAE@PBD@Z

; 323  : 	"ProfTrade","LossTrade","PnLn","PTRate","LTRate",

  0019a	68 00 00 00 00	 push	 OFFSET ??_C@_09FKFKKEGM@ProfTrade@
  0019f	8d 4d a0	 lea	 ecx, DWORD PTR _m_pHtmlCodeNameArray$[ebp+64]
  001a2	c6 45 fc 12	 mov	 BYTE PTR __$EHRec$[ebp+8], 18 ; 00000012H
  001a6	ff 15 00 00 00
	00		 call	 DWORD PTR __imp_??0?$CStringT@DV?$StrTraitMFC_DLL@DV?$ChTraitsCRT@D@ATL@@@@@ATL@@QAE@PBD@Z
  001ac	68 00 00 00 00	 push	 OFFSET ??_C@_09CELFPHCB@LossTrade@
  001b1	8d 4d a4	 lea	 ecx, DWORD PTR _m_pHtmlCodeNameArray$[ebp+68]
  001b4	c6 45 fc 13	 mov	 BYTE PTR __$EHRec$[ebp+8], 19 ; 00000013H
  001b8	ff 15 00 00 00
	00		 call	 DWORD PTR __imp_??0?$CStringT@DV?$StrTraitMFC_DLL@DV?$ChTraitsCRT@D@ATL@@@@@ATL@@QAE@PBD@Z
  001be	68 00 00 00 00	 push	 OFFSET ??_C@_04FIMJHFJE@PnLn@
  001c3	8d 4d a8	 lea	 ecx, DWORD PTR _m_pHtmlCodeNameArray$[ebp+72]
  001c6	c6 45 fc 14	 mov	 BYTE PTR __$EHRec$[ebp+8], 20 ; 00000014H
  001ca	ff 15 00 00 00
	00		 call	 DWORD PTR __imp_??0?$CStringT@DV?$StrTraitMFC_DLL@DV?$ChTraitsCRT@D@ATL@@@@@ATL@@QAE@PBD@Z
  001d0	68 00 00 00 00	 push	 OFFSET ??_C@_06FMGCNAHE@PTRate@
  001d5	8d 4d ac	 lea	 ecx, DWORD PTR _m_pHtmlCodeNameArray$[ebp+76]
  001d8	c6 45 fc 15	 mov	 BYTE PTR __$EHRec$[ebp+8], 21 ; 00000015H
  001dc	ff 15 00 00 00
	00		 call	 DWORD PTR __imp_??0?$CStringT@DV?$StrTraitMFC_DLL@DV?$ChTraitsCRT@D@ATL@@@@@ATL@@QAE@PBD@Z
  001e2	68 00 00 00 00	 push	 OFFSET ??_C@_06PMBMCGMO@LTRate@
  001e7	8d 4d b0	 lea	 ecx, DWORD PTR _m_pHtmlCodeNameArray$[ebp+80]
  001ea	c6 45 fc 16	 mov	 BYTE PTR __$EHRec$[ebp+8], 22 ; 00000016H
  001ee	ff 15 00 00 00
	00		 call	 DWORD PTR __imp_??0?$CStringT@DV?$StrTraitMFC_DLL@DV?$ChTraitsCRT@D@ATL@@@@@ATL@@QAE@PBD@Z

; 324  : 	"PrdSign","MaxConProfN","MaxConLossN","SOverRate","MaxConProf",

  001f4	68 00 00 00 00	 push	 OFFSET ??_C@_07KIBCMJAA@PrdSign@
  001f9	8d 4d b4	 lea	 ecx, DWORD PTR _m_pHtmlCodeNameArray$[ebp+84]
  001fc	c6 45 fc 17	 mov	 BYTE PTR __$EHRec$[ebp+8], 23 ; 00000017H
  00200	ff 15 00 00 00
	00		 call	 DWORD PTR __imp_??0?$CStringT@DV?$StrTraitMFC_DLL@DV?$ChTraitsCRT@D@ATL@@@@@ATL@@QAE@PBD@Z
  00206	68 00 00 00 00	 push	 OFFSET ??_C@_0M@KFAGDAGD@MaxConProfN@
  0020b	8d 4d b8	 lea	 ecx, DWORD PTR _m_pHtmlCodeNameArray$[ebp+88]
  0020e	c6 45 fc 18	 mov	 BYTE PTR __$EHRec$[ebp+8], 24 ; 00000018H
  00212	ff 15 00 00 00
	00		 call	 DWORD PTR __imp_??0?$CStringT@DV?$StrTraitMFC_DLL@DV?$ChTraitsCRT@D@ATL@@@@@ATL@@QAE@PBD@Z
  00218	68 00 00 00 00	 push	 OFFSET ??_C@_0M@EJEACIAM@MaxConLossN@
  0021d	8d 4d bc	 lea	 ecx, DWORD PTR _m_pHtmlCodeNameArray$[ebp+92]
  00220	c6 45 fc 19	 mov	 BYTE PTR __$EHRec$[ebp+8], 25 ; 00000019H
  00224	ff 15 00 00 00
	00		 call	 DWORD PTR __imp_??0?$CStringT@DV?$StrTraitMFC_DLL@DV?$ChTraitsCRT@D@ATL@@@@@ATL@@QAE@PBD@Z
  0022a	68 00 00 00 00	 push	 OFFSET ??_C@_09DABNGCCI@SOverRate@
  0022f	8d 4d c0	 lea	 ecx, DWORD PTR _m_pHtmlCodeNameArray$[ebp+96]
  00232	c6 45 fc 1a	 mov	 BYTE PTR __$EHRec$[ebp+8], 26 ; 0000001aH
  00236	ff 15 00 00 00
	00		 call	 DWORD PTR __imp_??0?$CStringT@DV?$StrTraitMFC_DLL@DV?$ChTraitsCRT@D@ATL@@@@@ATL@@QAE@PBD@Z
  0023c	68 00 00 00 00	 push	 OFFSET ??_C@_0L@JNOBGELA@MaxConProf@
  00241	8d 4d c4	 lea	 ecx, DWORD PTR _m_pHtmlCodeNameArray$[ebp+100]
  00244	c6 45 fc 1b	 mov	 BYTE PTR __$EHRec$[ebp+8], 27 ; 0000001bH
  00248	ff 15 00 00 00
	00		 call	 DWORD PTR __imp_??0?$CStringT@DV?$StrTraitMFC_DLL@DV?$ChTraitsCRT@D@ATL@@@@@ATL@@QAE@PBD@Z

; 325  : 	"MaxConLoss","TotalStick","PTStick","LTStick","PrdParty",

  0024e	68 00 00 00 00	 push	 OFFSET ??_C@_0L@LIALCNHB@MaxConLoss@
  00253	8d 4d c8	 lea	 ecx, DWORD PTR _m_pHtmlCodeNameArray$[ebp+104]
  00256	c6 45 fc 1c	 mov	 BYTE PTR __$EHRec$[ebp+8], 28 ; 0000001cH
  0025a	ff 15 00 00 00
	00		 call	 DWORD PTR __imp_??0?$CStringT@DV?$StrTraitMFC_DLL@DV?$ChTraitsCRT@D@ATL@@@@@ATL@@QAE@PBD@Z
  00260	68 00 00 00 00	 push	 OFFSET ??_C@_0L@INBFOIOP@TotalStick@
  00265	8d 4d cc	 lea	 ecx, DWORD PTR _m_pHtmlCodeNameArray$[ebp+108]
  00268	c6 45 fc 1d	 mov	 BYTE PTR __$EHRec$[ebp+8], 29 ; 0000001dH
  0026c	ff 15 00 00 00
	00		 call	 DWORD PTR __imp_??0?$CStringT@DV?$StrTraitMFC_DLL@DV?$ChTraitsCRT@D@ATL@@@@@ATL@@QAE@PBD@Z
  00272	68 00 00 00 00	 push	 OFFSET ??_C@_07BEJPFNDO@PTStick@
  00277	8d 4d d0	 lea	 ecx, DWORD PTR _m_pHtmlCodeNameArray$[ebp+112]
  0027a	c6 45 fc 1e	 mov	 BYTE PTR __$EHRec$[ebp+8], 30 ; 0000001eH
  0027e	ff 15 00 00 00
	00		 call	 DWORD PTR __imp_??0?$CStringT@DV?$StrTraitMFC_DLL@DV?$ChTraitsCRT@D@ATL@@@@@ATL@@QAE@PBD@Z
  00284	68 00 00 00 00	 push	 OFFSET ??_C@_07DPILHJFK@LTStick@
  00289	8d 4d d4	 lea	 ecx, DWORD PTR _m_pHtmlCodeNameArray$[ebp+116]
  0028c	c6 45 fc 1f	 mov	 BYTE PTR __$EHRec$[ebp+8], 31 ; 0000001fH
  00290	ff 15 00 00 00
	00		 call	 DWORD PTR __imp_??0?$CStringT@DV?$StrTraitMFC_DLL@DV?$ChTraitsCRT@D@ATL@@@@@ATL@@QAE@PBD@Z
  00296	c6 45 fc 20	 mov	 BYTE PTR __$EHRec$[ebp+8], 32 ; 00000020H
  0029a	8d 4d d8	 lea	 ecx, DWORD PTR _m_pHtmlCodeNameArray$[ebp+120]
  0029d	68 00 00 00 00	 push	 OFFSET ??_C@_08DOMHGIBC@PrdParty@
  002a2	ff 15 00 00 00
	00		 call	 DWORD PTR __imp_??0?$CStringT@DV?$StrTraitMFC_DLL@DV?$ChTraitsCRT@D@ATL@@@@@ATL@@QAE@PBD@Z

; 326  : 	"EntryStick","CleanStick","ATStick","PTAStick","PLTAStick"};

  002a8	68 00 00 00 00	 push	 OFFSET ??_C@_0L@MKHNBNHL@EntryStick@
  002ad	8d 4d dc	 lea	 ecx, DWORD PTR _m_pHtmlCodeNameArray$[ebp+124]
  002b0	c6 45 fc 21	 mov	 BYTE PTR __$EHRec$[ebp+8], 33 ; 00000021H
  002b4	ff 15 00 00 00
	00		 call	 DWORD PTR __imp_??0?$CStringT@DV?$StrTraitMFC_DLL@DV?$ChTraitsCRT@D@ATL@@@@@ATL@@QAE@PBD@Z
  002ba	68 00 00 00 00	 push	 OFFSET ??_C@_0L@MNMLMFLP@CleanStick@
  002bf	8d 4d e0	 lea	 ecx, DWORD PTR _m_pHtmlCodeNameArray$[ebp+128]
  002c2	c6 45 fc 22	 mov	 BYTE PTR __$EHRec$[ebp+8], 34 ; 00000022H
  002c6	ff 15 00 00 00
	00		 call	 DWORD PTR __imp_??0?$CStringT@DV?$StrTraitMFC_DLL@DV?$ChTraitsCRT@D@ATL@@@@@ATL@@QAE@PBD@Z
  002cc	68 00 00 00 00	 push	 OFFSET ??_C@_07KEIOGMIL@ATStick@
  002d1	8d 4d e4	 lea	 ecx, DWORD PTR _m_pHtmlCodeNameArray$[ebp+132]
  002d4	c6 45 fc 23	 mov	 BYTE PTR __$EHRec$[ebp+8], 35 ; 00000023H
  002d8	ff 15 00 00 00
	00		 call	 DWORD PTR __imp_??0?$CStringT@DV?$StrTraitMFC_DLL@DV?$ChTraitsCRT@D@ATL@@@@@ATL@@QAE@PBD@Z
  002de	68 00 00 00 00	 push	 OFFSET ??_C@_08FEEKGKBM@PTAStick@
  002e3	8d 4d e8	 lea	 ecx, DWORD PTR _m_pHtmlCodeNameArray$[ebp+136]
  002e6	c6 45 fc 24	 mov	 BYTE PTR __$EHRec$[ebp+8], 36 ; 00000024H
  002ea	ff 15 00 00 00
	00		 call	 DWORD PTR __imp_??0?$CStringT@DV?$StrTraitMFC_DLL@DV?$ChTraitsCRT@D@ATL@@@@@ATL@@QAE@PBD@Z
  002f0	68 00 00 00 00	 push	 OFFSET ??_C@_09KCCJCBOJ@PLTAStick@
  002f5	8d 4d ec	 lea	 ecx, DWORD PTR _m_pHtmlCodeNameArray$[ebp+140]
  002f8	c6 45 fc 25	 mov	 BYTE PTR __$EHRec$[ebp+8], 37 ; 00000025H
  002fc	ff 15 00 00 00
	00		 call	 DWORD PTR __imp_??0?$CStringT@DV?$StrTraitMFC_DLL@DV?$ChTraitsCRT@D@ATL@@@@@ATL@@QAE@PBD@Z
  00302	8d 8d 34 ff ff
	ff		 lea	 ecx, DWORD PTR _stData$[ebp+8]
  00308	ff 15 00 00 00
	00		 call	 DWORD PTR __imp_??0?$CStringT@DV?$StrTraitMFC_DLL@DV?$ChTraitsCRT@D@ATL@@@@@ATL@@QAE@XZ
  0030e	8d 8d 38 ff ff
	ff		 lea	 ecx, DWORD PTR _stData$[ebp+12]
  00314	ff 15 00 00 00
	00		 call	 DWORD PTR __imp_??0?$CStringT@DV?$StrTraitMFC_DLL@DV?$ChTraitsCRT@D@ATL@@@@@ATL@@QAE@XZ
  0031a	8d 8d 3c ff ff
	ff		 lea	 ecx, DWORD PTR _stData$[ebp+16]
  00320	ff 15 00 00 00
	00		 call	 DWORD PTR __imp_??0?$CStringT@DV?$StrTraitMFC_DLL@DV?$ChTraitsCRT@D@ATL@@@@@ATL@@QAE@XZ
  00326	8d 8d 40 ff ff
	ff		 lea	 ecx, DWORD PTR _stData$[ebp+20]
  0032c	ff 15 00 00 00
	00		 call	 DWORD PTR __imp_??0?$CStringT@DV?$StrTraitMFC_DLL@DV?$ChTraitsCRT@D@ATL@@@@@ATL@@QAE@XZ
  00332	8d 8d 44 ff ff
	ff		 lea	 ecx, DWORD PTR _stData$[ebp+24]
  00338	ff 15 00 00 00
	00		 call	 DWORD PTR __imp_??0?$CStringT@DV?$StrTraitMFC_DLL@DV?$ChTraitsCRT@D@ATL@@@@@ATL@@QAE@XZ
  0033e	8d 8d 48 ff ff
	ff		 lea	 ecx, DWORD PTR _stData$[ebp+28]
  00344	ff 15 00 00 00
	00		 call	 DWORD PTR __imp_??0?$CStringT@DV?$StrTraitMFC_DLL@DV?$ChTraitsCRT@D@ATL@@@@@ATL@@QAE@XZ

; 327  : 	int m_nViewPointIndex[11] = {15,16,17,18,22,23,27,28,29,31,32}; 
; 328  : 	/////////////////////////////////
; 329  : 
; 330  : 	ST_DATAINDEX stData;
; 331  : 	CIStrategyItem* Strate = m_pOptimizer->GetStrategyItem();

  0034a	8b 86 a8 00 00
	00		 mov	 eax, DWORD PTR [esi+168]
  00350	c6 45 fc 27	 mov	 BYTE PTR __$EHRec$[ebp+8], 39 ; 00000027H
  00354	8b b8 10 05 00
	00		 mov	 edi, DWORD PTR [eax+1296]

; 332  : 	int nSize = Strate->GetCntStrategyResult();

  0035a	8b cf		 mov	 ecx, edi
  0035c	8b 07		 mov	 eax, DWORD PTR [edi]
  0035e	ff 50 48	 call	 DWORD PTR [eax+72]

; 333  : 	if(nSize<0) return "";

  00361	85 c0		 test	 eax, eax
  00363	0f 89 95 00 00
	00		 jns	 $LN5@Parsingstr
  00369	68 00 00 00 00	 push	 OFFSET ??_C@_00CNPNBAHC@@
  0036e	8b cb		 mov	 ecx, ebx
  00370	ff 15 00 00 00
	00		 call	 DWORD PTR __imp_??0?$CStringT@DV?$StrTraitMFC_DLL@DV?$ChTraitsCRT@D@ATL@@@@@ATL@@QAE@PBD@Z
  00376	8d 8d 48 ff ff
	ff		 lea	 ecx, DWORD PTR _stData$[ebp+28]
  0037c	c7 85 4c ff ff
	ff 01 00 00 00	 mov	 DWORD PTR $T3[ebp], 1
  00386	ff 15 00 00 00
	00		 call	 DWORD PTR __imp_??1?$CStringT@DV?$StrTraitMFC_DLL@DV?$ChTraitsCRT@D@ATL@@@@@ATL@@QAE@XZ
  0038c	8d 8d 44 ff ff
	ff		 lea	 ecx, DWORD PTR _stData$[ebp+24]
  00392	ff 15 00 00 00
	00		 call	 DWORD PTR __imp_??1?$CStringT@DV?$StrTraitMFC_DLL@DV?$ChTraitsCRT@D@ATL@@@@@ATL@@QAE@XZ
  00398	8d 8d 40 ff ff
	ff		 lea	 ecx, DWORD PTR _stData$[ebp+20]
  0039e	ff 15 00 00 00
	00		 call	 DWORD PTR __imp_??1?$CStringT@DV?$StrTraitMFC_DLL@DV?$ChTraitsCRT@D@ATL@@@@@ATL@@QAE@XZ
  003a4	8d 8d 3c ff ff
	ff		 lea	 ecx, DWORD PTR _stData$[ebp+16]
  003aa	ff 15 00 00 00
	00		 call	 DWORD PTR __imp_??1?$CStringT@DV?$StrTraitMFC_DLL@DV?$ChTraitsCRT@D@ATL@@@@@ATL@@QAE@XZ
  003b0	8d 8d 38 ff ff
	ff		 lea	 ecx, DWORD PTR _stData$[ebp+12]
  003b6	ff 15 00 00 00
	00		 call	 DWORD PTR __imp_??1?$CStringT@DV?$StrTraitMFC_DLL@DV?$ChTraitsCRT@D@ATL@@@@@ATL@@QAE@XZ
  003bc	8d 8d 34 ff ff
	ff		 lea	 ecx, DWORD PTR _stData$[ebp+8]
  003c2	ff 15 00 00 00
	00		 call	 DWORD PTR __imp_??1?$CStringT@DV?$StrTraitMFC_DLL@DV?$ChTraitsCRT@D@ATL@@@@@ATL@@QAE@XZ
  003c8	ff 35 00 00 00
	00		 push	 DWORD PTR __imp_??1?$CStringT@DV?$StrTraitMFC_DLL@DV?$ChTraitsCRT@D@ATL@@@@@ATL@@QAE@XZ
  003ce	8d 85 60 ff ff
	ff		 lea	 eax, DWORD PTR _m_pHtmlCodeNameArray$[ebp]
  003d4	c6 45 fc 02	 mov	 BYTE PTR __$EHRec$[ebp+8], 2
  003d8	6a 24		 push	 36			; 00000024H
  003da	6a 04		 push	 4
  003dc	50		 push	 eax
  003dd	e8 00 00 00 00	 call	 ??_M@YGXPAXIIP6EX0@Z@Z
  003e2	8d 8d 5c ff ff
	ff		 lea	 ecx, DWORD PTR _strData$[ebp]
  003e8	ff 15 00 00 00
	00		 call	 DWORD PTR __imp_??1?$CStringT@DV?$StrTraitMFC_DLL@DV?$ChTraitsCRT@D@ATL@@@@@ATL@@QAE@XZ
  003ee	8d 4d 0c	 lea	 ecx, DWORD PTR _strHtml$[ebp]
  003f1	ff 15 00 00 00
	00		 call	 DWORD PTR __imp_??1?$CStringT@DV?$StrTraitMFC_DLL@DV?$ChTraitsCRT@D@ATL@@@@@ATL@@QAE@XZ
  003f7	8b c3		 mov	 eax, ebx
  003f9	e9 f1 01 00 00	 jmp	 $LN1@Parsingstr
$LN5@Parsingstr:

; 334  : 
; 335  : 	//   
; 336  : 	Data = Strate->GetStatisticalInfo(0);

  003fe	8b 07		 mov	 eax, DWORD PTR [edi]
  00400	8b cf		 mov	 ecx, edi
  00402	6a 00		 push	 0
  00404	8b 40 50	 mov	 eax, DWORD PTR [eax+80]
  00407	ff d0		 call	 eax

; 337  : 	strData.Format("%.2f%%", Data);

  00409	8b 1d 00 00 00
	00		 mov	 ebx, DWORD PTR __imp_?Format@?$CStringT@DV?$StrTraitMFC_DLL@DV?$ChTraitsCRT@D@ATL@@@@@ATL@@QAAXPBDZZ
  0040f	8d 85 5c ff ff
	ff		 lea	 eax, DWORD PTR _strData$[ebp]
  00415	83 ec 08	 sub	 esp, 8
  00418	dd 9d 50 ff ff
	ff		 fstp	 QWORD PTR _Data$[ebp]
  0041e	f2 0f 10 85 50
	ff ff ff	 movsd	 xmm0, QWORD PTR _Data$[ebp]
  00426	f2 0f 11 04 24	 movsd	 QWORD PTR [esp], xmm0
  0042b	68 00 00 00 00	 push	 OFFSET ??_C@_06NBGJEFCJ@?$CF?42f?$CF?$CF@
  00430	50		 push	 eax
  00431	ff d3		 call	 ebx

; 338  : 	_tprintf("%s", (LPCTSTR) strData);

  00433	ff b5 5c ff ff
	ff		 push	 DWORD PTR _strData$[ebp]
  00439	68 00 00 00 00	 push	 OFFSET ??_C@_02DKCKIIND@?$CFs@
  0043e	e8 00 00 00 00	 call	 _printf
  00443	83 c4 18	 add	 esp, 24			; 00000018H

; 339  : 	CString strACCumProf;

  00446	8d 8d 58 ff ff
	ff		 lea	 ecx, DWORD PTR _strACCumProf$[ebp]
  0044c	ff 15 00 00 00
	00		 call	 DWORD PTR __imp_??0?$CStringT@DV?$StrTraitMFC_DLL@DV?$ChTraitsCRT@D@ATL@@@@@ATL@@QAE@XZ

; 340  : 	strACCumProf = strData;

  00452	8d 85 5c ff ff
	ff		 lea	 eax, DWORD PTR _strData$[ebp]
  00458	c6 45 fc 28	 mov	 BYTE PTR __$EHRec$[ebp+8], 40 ; 00000028H
  0045c	50		 push	 eax
  0045d	8d 8d 58 ff ff
	ff		 lea	 ecx, DWORD PTR _strACCumProf$[ebp]
  00463	ff 15 00 00 00
	00		 call	 DWORD PTR __imp_??4?$CStringT@DV?$StrTraitMFC_DLL@DV?$ChTraitsCRT@D@ATL@@@@@ATL@@QAEAAV01@ABV01@@Z

; 341  : 	strHtml.Replace("AccumProf",strData);

  00469	ff b5 5c ff ff
	ff		 push	 DWORD PTR _strData$[ebp]
  0046f	8d 4d 0c	 lea	 ecx, DWORD PTR _strHtml$[ebp]
  00472	68 00 00 00 00	 push	 OFFSET ??_C@_09NFLEOFMG@AccumProf@
  00477	ff 15 00 00 00
	00		 call	 DWORD PTR __imp_?Replace@?$CStringT@DV?$StrTraitMFC_DLL@DV?$ChTraitsCRT@D@ATL@@@@@ATL@@QAEHPBD0@Z

; 342  : 
; 343  : 	///////////////////////
; 344  : 	////   : 8  6   ////////////////////////////////////			
; 345  : 	for(int i = 1; i<MAXDATANUM;i++){

  0047d	be 01 00 00 00	 mov	 esi, 1
$LL4@Parsingstr:

; 346  : 		if(i==14) continue;//   .

  00482	83 fe 0e	 cmp	 esi, 14			; 0000000eH
  00485	0f 84 b7 00 00
	00		 je	 $LN2@Parsingstr

; 347  : 		if(i==24)// : -  !

  0048b	83 fe 18	 cmp	 esi, 24			; 00000018H
  0048e	0f 85 79 01 00
	00		 jne	 $LN7@Parsingstr

; 348  : 		{
; 349  : 			Data =atof(strACCumProf)-Strate->GetStatisticalInfo(21);

  00494	ff b5 58 ff ff
	ff		 push	 DWORD PTR _strACCumProf$[ebp]
  0049a	ff 15 00 00 00
	00		 call	 DWORD PTR __imp__atof
  004a0	8b 07		 mov	 eax, DWORD PTR [edi]
  004a2	83 c4 04	 add	 esp, 4
  004a5	dd 9d 50 ff ff
	ff		 fstp	 QWORD PTR tv582[ebp]
  004ab	8b cf		 mov	 ecx, edi
  004ad	8b 40 50	 mov	 eax, DWORD PTR [eax+80]
  004b0	6a 15		 push	 21			; 00000015H
  004b2	ff d0		 call	 eax
  004b4	dc ad 50 ff ff
	ff		 fsubr	 QWORD PTR tv582[ebp]
  004ba	dd 9d 50 ff ff
	ff		 fstp	 QWORD PTR _Data$[ebp]
$LN11@Parsingstr:

; 355  : 			strData.Format("%.2f", Data);

  004c0	f2 0f 10 85 50
	ff ff ff	 movsd	 xmm0, QWORD PTR _Data$[ebp]
  004c8	8d 85 5c ff ff
	ff		 lea	 eax, DWORD PTR _strData$[ebp]
  004ce	83 ec 08	 sub	 esp, 8
  004d1	f2 0f 11 04 24	 movsd	 QWORD PTR [esp], xmm0
  004d6	68 00 00 00 00	 push	 OFFSET ??_C@_04GEFJINEE@?$CF?42f@
  004db	50		 push	 eax
  004dc	ff d3		 call	 ebx
  004de	83 c4 10	 add	 esp, 16			; 00000010H
$LN10@Parsingstr:

; 358  : 
; 359  : 		int Index = strHtml.Find(m_pHtmlCodeNameArray[i],0);

  004e1	6a 00		 push	 0
  004e3	ff b4 b5 60 ff
	ff ff		 push	 DWORD PTR _m_pHtmlCodeNameArray$[ebp+esi*4]
  004ea	8d 4d 0c	 lea	 ecx, DWORD PTR _strHtml$[ebp]
  004ed	ff 15 00 00 00
	00		 call	 DWORD PTR __imp_?Find@?$CStringT@DV?$StrTraitMFC_DLL@DV?$ChTraitsCRT@D@ATL@@@@@ATL@@QBEHPBDH@Z

; 360  : 		strData = GetComma(strData);//KHD :

  004f3	ff b5 5c ff ff
	ff		 push	 DWORD PTR _strData$[ebp]
  004f9	8b 8d 28 ff ff
	ff		 mov	 ecx, DWORD PTR _this$GSCopy$1$[ebp]
  004ff	8d 85 24 ff ff
	ff		 lea	 eax, DWORD PTR $T2[ebp]
  00505	50		 push	 eax
  00506	e8 00 00 00 00	 call	 ?GetComma@CDlgResult@@QAE?AV?$CStringT@DV?$StrTraitMFC_DLL@DV?$ChTraitsCRT@D@ATL@@@@@ATL@@PBD@Z ; CDlgResult::GetComma
  0050b	50		 push	 eax
  0050c	8d 8d 5c ff ff
	ff		 lea	 ecx, DWORD PTR _strData$[ebp]
  00512	c6 45 fc 29	 mov	 BYTE PTR __$EHRec$[ebp+8], 41 ; 00000029H
  00516	ff 15 00 00 00
	00		 call	 DWORD PTR __imp_??4?$CStringT@DV?$StrTraitMFC_DLL@DV?$ChTraitsCRT@D@ATL@@@@@ATL@@QAEAAV01@ABV01@@Z
  0051c	8d 8d 24 ff ff
	ff		 lea	 ecx, DWORD PTR $T2[ebp]
  00522	c6 45 fc 28	 mov	 BYTE PTR __$EHRec$[ebp+8], 40 ; 00000028H
  00526	ff 15 00 00 00
	00		 call	 DWORD PTR __imp_??1?$CStringT@DV?$StrTraitMFC_DLL@DV?$ChTraitsCRT@D@ATL@@@@@ATL@@QAE@XZ

; 361  : 		strHtml.Replace(m_pHtmlCodeNameArray[i],strData);

  0052c	ff b5 5c ff ff
	ff		 push	 DWORD PTR _strData$[ebp]
  00532	8d 4d 0c	 lea	 ecx, DWORD PTR _strHtml$[ebp]
  00535	ff b4 b5 60 ff
	ff ff		 push	 DWORD PTR _m_pHtmlCodeNameArray$[ebp+esi*4]
  0053c	ff 15 00 00 00
	00		 call	 DWORD PTR __imp_?Replace@?$CStringT@DV?$StrTraitMFC_DLL@DV?$ChTraitsCRT@D@ATL@@@@@ATL@@QAEHPBD0@Z
$LN2@Parsingstr:

; 342  : 
; 343  : 	///////////////////////
; 344  : 	////   : 8  6   ////////////////////////////////////			
; 345  : 	for(int i = 1; i<MAXDATANUM;i++){

  00542	46		 inc	 esi
  00543	83 fe 24	 cmp	 esi, 36			; 00000024H
  00546	0f 8c 36 ff ff
	ff		 jl	 $LL4@Parsingstr

; 362  : 	}
; 363  : 	return strHtml;

  0054c	8b 8d 20 ff ff
	ff		 mov	 ecx, DWORD PTR ___$ReturnUdt$GSCopy$1$[ebp]
  00552	8d 45 0c	 lea	 eax, DWORD PTR _strHtml$[ebp]
  00555	50		 push	 eax
  00556	ff 15 00 00 00
	00		 call	 DWORD PTR __imp_??0?$CStringT@DV?$StrTraitMFC_DLL@DV?$ChTraitsCRT@D@ATL@@@@@ATL@@QAE@ABV01@@Z
  0055c	8d 8d 58 ff ff
	ff		 lea	 ecx, DWORD PTR _strACCumProf$[ebp]
  00562	c7 85 4c ff ff
	ff 01 00 00 00	 mov	 DWORD PTR $T3[ebp], 1
  0056c	ff 15 00 00 00
	00		 call	 DWORD PTR __imp_??1?$CStringT@DV?$StrTraitMFC_DLL@DV?$ChTraitsCRT@D@ATL@@@@@ATL@@QAE@XZ
  00572	8d 8d 48 ff ff
	ff		 lea	 ecx, DWORD PTR _stData$[ebp+28]
  00578	ff 15 00 00 00
	00		 call	 DWORD PTR __imp_??1?$CStringT@DV?$StrTraitMFC_DLL@DV?$ChTraitsCRT@D@ATL@@@@@ATL@@QAE@XZ
  0057e	8d 8d 44 ff ff
	ff		 lea	 ecx, DWORD PTR _stData$[ebp+24]
  00584	ff 15 00 00 00
	00		 call	 DWORD PTR __imp_??1?$CStringT@DV?$StrTraitMFC_DLL@DV?$ChTraitsCRT@D@ATL@@@@@ATL@@QAE@XZ
  0058a	8d 8d 40 ff ff
	ff		 lea	 ecx, DWORD PTR _stData$[ebp+20]
  00590	ff 15 00 00 00
	00		 call	 DWORD PTR __imp_??1?$CStringT@DV?$StrTraitMFC_DLL@DV?$ChTraitsCRT@D@ATL@@@@@ATL@@QAE@XZ
  00596	8d 8d 3c ff ff
	ff		 lea	 ecx, DWORD PTR _stData$[ebp+16]
  0059c	ff 15 00 00 00
	00		 call	 DWORD PTR __imp_??1?$CStringT@DV?$StrTraitMFC_DLL@DV?$ChTraitsCRT@D@ATL@@@@@ATL@@QAE@XZ
  005a2	8d 8d 38 ff ff
	ff		 lea	 ecx, DWORD PTR _stData$[ebp+12]
  005a8	ff 15 00 00 00
	00		 call	 DWORD PTR __imp_??1?$CStringT@DV?$StrTraitMFC_DLL@DV?$ChTraitsCRT@D@ATL@@@@@ATL@@QAE@XZ
  005ae	8d 8d 34 ff ff
	ff		 lea	 ecx, DWORD PTR _stData$[ebp+8]
  005b4	ff 15 00 00 00
	00		 call	 DWORD PTR __imp_??1?$CStringT@DV?$StrTraitMFC_DLL@DV?$ChTraitsCRT@D@ATL@@@@@ATL@@QAE@XZ
  005ba	ff 35 00 00 00
	00		 push	 DWORD PTR __imp_??1?$CStringT@DV?$StrTraitMFC_DLL@DV?$ChTraitsCRT@D@ATL@@@@@ATL@@QAE@XZ
  005c0	8d 85 60 ff ff
	ff		 lea	 eax, DWORD PTR _m_pHtmlCodeNameArray$[ebp]
  005c6	c6 45 fc 02	 mov	 BYTE PTR __$EHRec$[ebp+8], 2
  005ca	6a 24		 push	 36			; 00000024H
  005cc	6a 04		 push	 4
  005ce	50		 push	 eax
  005cf	e8 00 00 00 00	 call	 ??_M@YGXPAXIIP6EX0@Z@Z
  005d4	8d 8d 5c ff ff
	ff		 lea	 ecx, DWORD PTR _strData$[ebp]
  005da	ff 15 00 00 00
	00		 call	 DWORD PTR __imp_??1?$CStringT@DV?$StrTraitMFC_DLL@DV?$ChTraitsCRT@D@ATL@@@@@ATL@@QAE@XZ
  005e0	8d 4d 0c	 lea	 ecx, DWORD PTR _strHtml$[ebp]
  005e3	ff 15 00 00 00
	00		 call	 DWORD PTR __imp_??1?$CStringT@DV?$StrTraitMFC_DLL@DV?$ChTraitsCRT@D@ATL@@@@@ATL@@QAE@XZ
  005e9	8b 85 20 ff ff
	ff		 mov	 eax, DWORD PTR ___$ReturnUdt$GSCopy$1$[ebp]
$LN1@Parsingstr:

; 364  : }

  005ef	8b 4d f4	 mov	 ecx, DWORD PTR __$EHRec$[ebp]
  005f2	64 89 0d 00 00
	00 00		 mov	 DWORD PTR fs:0, ecx
  005f9	59		 pop	 ecx
  005fa	5f		 pop	 edi
  005fb	5e		 pop	 esi
  005fc	5b		 pop	 ebx
  005fd	8b 4d f0	 mov	 ecx, DWORD PTR __$ArrayPad$[ebp]
  00600	33 cd		 xor	 ecx, ebp
  00602	e8 00 00 00 00	 call	 @__security_check_cookie@4
  00607	8b e5		 mov	 esp, ebp
  00609	5d		 pop	 ebp
  0060a	c2 08 00	 ret	 8
$LN7@Parsingstr:

; 350  : 		}
; 351  : 		else
; 352  : 			Data = Strate->GetStatisticalInfo(i);

  0060d	8b 07		 mov	 eax, DWORD PTR [edi]
  0060f	8b cf		 mov	 ecx, edi
  00611	56		 push	 esi
  00612	8b 40 50	 mov	 eax, DWORD PTR [eax+80]
  00615	ff d0		 call	 eax
  00617	dd 9d 50 ff ff
	ff		 fstp	 QWORD PTR _Data$[ebp]

; 353  : 		//   Default!! 
; 354  : 		if(i==1||i==19||i==20||i==21||i==24||i==30||i==33||i==34||i==35)

  0061d	83 fe 01	 cmp	 esi, 1
  00620	0f 84 9a fe ff
	ff		 je	 $LN11@Parsingstr
  00626	83 fe 13	 cmp	 esi, 19			; 00000013H
  00629	0f 84 91 fe ff
	ff		 je	 $LN11@Parsingstr
  0062f	83 fe 14	 cmp	 esi, 20			; 00000014H
  00632	0f 84 88 fe ff
	ff		 je	 $LN11@Parsingstr
  00638	83 fe 15	 cmp	 esi, 21			; 00000015H
  0063b	0f 84 7f fe ff
	ff		 je	 $LN11@Parsingstr
  00641	83 fe 1e	 cmp	 esi, 30			; 0000001eH
  00644	0f 84 76 fe ff
	ff		 je	 $LN11@Parsingstr
  0064a	83 fe 21	 cmp	 esi, 33			; 00000021H
  0064d	0f 84 6d fe ff
	ff		 je	 $LN11@Parsingstr
  00653	83 fe 22	 cmp	 esi, 34			; 00000022H
  00656	0f 84 64 fe ff
	ff		 je	 $LN11@Parsingstr
  0065c	83 fe 23	 cmp	 esi, 35			; 00000023H
  0065f	0f 84 5b fe ff
	ff		 je	 $LN11@Parsingstr

; 356  : 		else
; 357  : 			strData.Format("%d", (INT)Data);

  00665	f2 0f 2c 85 50
	ff ff ff	 cvttsd2si eax, QWORD PTR _Data$[ebp]
  0066d	50		 push	 eax
  0066e	8d 85 5c ff ff
	ff		 lea	 eax, DWORD PTR _strData$[ebp]
  00674	68 00 00 00 00	 push	 OFFSET ??_C@_02DPKJAMEF@?$CFd@
  00679	50		 push	 eax
  0067a	ff d3		 call	 ebx
  0067c	83 c4 0c	 add	 esp, 12			; 0000000cH
  0067f	e9 5d fe ff ff	 jmp	 $LN10@Parsingstr
_TEXT	ENDS
;	COMDAT text$x
text$x	SEGMENT
__unwindfunclet$?ParsingstrHtml@CDlgResult@@QAE?AV?$CStringT@DV?$StrTraitMFC_DLL@DV?$ChTraitsCRT@D@ATL@@@@@ATL@@V23@@Z$0:
  00000	8d 4d 0c	 lea	 ecx, DWORD PTR _strHtml$[ebp]
  00003	ff 25 00 00 00
	00		 jmp	 DWORD PTR __imp_??1?$CStringT@DV?$StrTraitMFC_DLL@DV?$ChTraitsCRT@D@ATL@@@@@ATL@@QAE@XZ
__unwindfunclet$?ParsingstrHtml@CDlgResult@@QAE?AV?$CStringT@DV?$StrTraitMFC_DLL@DV?$ChTraitsCRT@D@ATL@@@@@ATL@@V23@@Z$1:
  00009	8d 8d 5c ff ff
	ff		 lea	 ecx, DWORD PTR _strData$[ebp]
  0000f	ff 25 00 00 00
	00		 jmp	 DWORD PTR __imp_??1?$CStringT@DV?$StrTraitMFC_DLL@DV?$ChTraitsCRT@D@ATL@@@@@ATL@@QAE@XZ
__unwindfunclet$?ParsingstrHtml@CDlgResult@@QAE?AV?$CStringT@DV?$StrTraitMFC_DLL@DV?$ChTraitsCRT@D@ATL@@@@@ATL@@V23@@Z$2:
  00015	8d 8d 60 ff ff
	ff		 lea	 ecx, DWORD PTR _m_pHtmlCodeNameArray$[ebp]
  0001b	ff 25 00 00 00
	00		 jmp	 DWORD PTR __imp_??1?$CStringT@DV?$StrTraitMFC_DLL@DV?$ChTraitsCRT@D@ATL@@@@@ATL@@QAE@XZ
__unwindfunclet$?ParsingstrHtml@CDlgResult@@QAE?AV?$CStringT@DV?$StrTraitMFC_DLL@DV?$ChTraitsCRT@D@ATL@@@@@ATL@@V23@@Z$3:
  00021	8d 8d 64 ff ff
	ff		 lea	 ecx, DWORD PTR _m_pHtmlCodeNameArray$[ebp+4]
  00027	ff 25 00 00 00
	00		 jmp	 DWORD PTR __imp_??1?$CStringT@DV?$StrTraitMFC_DLL@DV?$ChTraitsCRT@D@ATL@@@@@ATL@@QAE@XZ
__unwindfunclet$?ParsingstrHtml@CDlgResult@@QAE?AV?$CStringT@DV?$StrTraitMFC_DLL@DV?$ChTraitsCRT@D@ATL@@@@@ATL@@V23@@Z$4:
  0002d	8d 8d 68 ff ff
	ff		 lea	 ecx, DWORD PTR _m_pHtmlCodeNameArray$[ebp+8]
  00033	ff 25 00 00 00
	00		 jmp	 DWORD PTR __imp_??1?$CStringT@DV?$StrTraitMFC_DLL@DV?$ChTraitsCRT@D@ATL@@@@@ATL@@QAE@XZ
__unwindfunclet$?ParsingstrHtml@CDlgResult@@QAE?AV?$CStringT@DV?$StrTraitMFC_DLL@DV?$ChTraitsCRT@D@ATL@@@@@ATL@@V23@@Z$5:
  00039	8d 8d 6c ff ff
	ff		 lea	 ecx, DWORD PTR _m_pHtmlCodeNameArray$[ebp+12]
  0003f	ff 25 00 00 00
	00		 jmp	 DWORD PTR __imp_??1?$CStringT@DV?$StrTraitMFC_DLL@DV?$ChTraitsCRT@D@ATL@@@@@ATL@@QAE@XZ
__unwindfunclet$?ParsingstrHtml@CDlgResult@@QAE?AV?$CStringT@DV?$StrTraitMFC_DLL@DV?$ChTraitsCRT@D@ATL@@@@@ATL@@V23@@Z$6:
  00045	8d 8d 70 ff ff
	ff		 lea	 ecx, DWORD PTR _m_pHtmlCodeNameArray$[ebp+16]
  0004b	ff 25 00 00 00
	00		 jmp	 DWORD PTR __imp_??1?$CStringT@DV?$StrTraitMFC_DLL@DV?$ChTraitsCRT@D@ATL@@@@@ATL@@QAE@XZ
__unwindfunclet$?ParsingstrHtml@CDlgResult@@QAE?AV?$CStringT@DV?$StrTraitMFC_DLL@DV?$ChTraitsCRT@D@ATL@@@@@ATL@@V23@@Z$7:
  00051	8d 8d 74 ff ff
	ff		 lea	 ecx, DWORD PTR _m_pHtmlCodeNameArray$[ebp+20]
  00057	ff 25 00 00 00
	00		 jmp	 DWORD PTR __imp_??1?$CStringT@DV?$StrTraitMFC_DLL@DV?$ChTraitsCRT@D@ATL@@@@@ATL@@QAE@XZ
__unwindfunclet$?ParsingstrHtml@CDlgResult@@QAE?AV?$CStringT@DV?$StrTraitMFC_DLL@DV?$ChTraitsCRT@D@ATL@@@@@ATL@@V23@@Z$8:
  0005d	8d 8d 78 ff ff
	ff		 lea	 ecx, DWORD PTR _m_pHtmlCodeNameArray$[ebp+24]
  00063	ff 25 00 00 00
	00		 jmp	 DWORD PTR __imp_??1?$CStringT@DV?$StrTraitMFC_DLL@DV?$ChTraitsCRT@D@ATL@@@@@ATL@@QAE@XZ
__unwindfunclet$?ParsingstrHtml@CDlgResult@@QAE?AV?$CStringT@DV?$StrTraitMFC_DLL@DV?$ChTraitsCRT@D@ATL@@@@@ATL@@V23@@Z$9:
  00069	8d 8d 7c ff ff
	ff		 lea	 ecx, DWORD PTR _m_pHtmlCodeNameArray$[ebp+28]
  0006f	ff 25 00 00 00
	00		 jmp	 DWORD PTR __imp_??1?$CStringT@DV?$StrTraitMFC_DLL@DV?$ChTraitsCRT@D@ATL@@@@@ATL@@QAE@XZ
__unwindfunclet$?ParsingstrHtml@CDlgResult@@QAE?AV?$CStringT@DV?$StrTraitMFC_DLL@DV?$ChTraitsCRT@D@ATL@@@@@ATL@@V23@@Z$10:
  00075	8d 4d 80	 lea	 ecx, DWORD PTR _m_pHtmlCodeNameArray$[ebp+32]
  00078	ff 25 00 00 00
	00		 jmp	 DWORD PTR __imp_??1?$CStringT@DV?$StrTraitMFC_DLL@DV?$ChTraitsCRT@D@ATL@@@@@ATL@@QAE@XZ
__unwindfunclet$?ParsingstrHtml@CDlgResult@@QAE?AV?$CStringT@DV?$StrTraitMFC_DLL@DV?$ChTraitsCRT@D@ATL@@@@@ATL@@V23@@Z$11:
  0007e	8d 4d 84	 lea	 ecx, DWORD PTR _m_pHtmlCodeNameArray$[ebp+36]
  00081	ff 25 00 00 00
	00		 jmp	 DWORD PTR __imp_??1?$CStringT@DV?$StrTraitMFC_DLL@DV?$ChTraitsCRT@D@ATL@@@@@ATL@@QAE@XZ
__unwindfunclet$?ParsingstrHtml@CDlgResult@@QAE?AV?$CStringT@DV?$StrTraitMFC_DLL@DV?$ChTraitsCRT@D@ATL@@@@@ATL@@V23@@Z$12:
  00087	8d 4d 88	 lea	 ecx, DWORD PTR _m_pHtmlCodeNameArray$[ebp+40]
  0008a	ff 25 00 00 00
	00		 jmp	 DWORD PTR __imp_??1?$CStringT@DV?$StrTraitMFC_DLL@DV?$ChTraitsCRT@D@ATL@@@@@ATL@@QAE@XZ
__unwindfunclet$?ParsingstrHtml@CDlgResult@@QAE?AV?$CStringT@DV?$StrTraitMFC_DLL@DV?$ChTraitsCRT@D@ATL@@@@@ATL@@V23@@Z$13:
  00090	8d 4d 8c	 lea	 ecx, DWORD PTR _m_pHtmlCodeNameArray$[ebp+44]
  00093	ff 25 00 00 00
	00		 jmp	 DWORD PTR __imp_??1?$CStringT@DV?$StrTraitMFC_DLL@DV?$ChTraitsCRT@D@ATL@@@@@ATL@@QAE@XZ
__unwindfunclet$?ParsingstrHtml@CDlgResult@@QAE?AV?$CStringT@DV?$StrTraitMFC_DLL@DV?$ChTraitsCRT@D@ATL@@@@@ATL@@V23@@Z$14:
  00099	8d 4d 90	 lea	 ecx, DWORD PTR _m_pHtmlCodeNameArray$[ebp+48]
  0009c	ff 25 00 00 00
	00		 jmp	 DWORD PTR __imp_??1?$CStringT@DV?$StrTraitMFC_DLL@DV?$ChTraitsCRT@D@ATL@@@@@ATL@@QAE@XZ
__unwindfunclet$?ParsingstrHtml@CDlgResult@@QAE?AV?$CStringT@DV?$StrTraitMFC_DLL@DV?$ChTraitsCRT@D@ATL@@@@@ATL@@V23@@Z$15:
  000a2	8d 4d 94	 lea	 ecx, DWORD PTR _m_pHtmlCodeNameArray$[ebp+52]
  000a5	ff 25 00 00 00
	00		 jmp	 DWORD PTR __imp_??1?$CStringT@DV?$StrTraitMFC_DLL@DV?$ChTraitsCRT@D@ATL@@@@@ATL@@QAE@XZ
__unwindfunclet$?ParsingstrHtml@CDlgResult@@QAE?AV?$CStringT@DV?$StrTraitMFC_DLL@DV?$ChTraitsCRT@D@ATL@@@@@ATL@@V23@@Z$16:
  000ab	8d 4d 98	 lea	 ecx, DWORD PTR _m_pHtmlCodeNameArray$[ebp+56]
  000ae	ff 25 00 00 00
	00		 jmp	 DWORD PTR __imp_??1?$CStringT@DV?$StrTraitMFC_DLL@DV?$ChTraitsCRT@D@ATL@@@@@ATL@@QAE@XZ
__unwindfunclet$?ParsingstrHtml@CDlgResult@@QAE?AV?$CStringT@DV?$StrTraitMFC_DLL@DV?$ChTraitsCRT@D@ATL@@@@@ATL@@V23@@Z$17:
  000b4	8d 4d 9c	 lea	 ecx, DWORD PTR _m_pHtmlCodeNameArray$[ebp+60]
  000b7	ff 25 00 00 00
	00		 jmp	 DWORD PTR __imp_??1?$CStringT@DV?$StrTraitMFC_DLL@DV?$ChTraitsCRT@D@ATL@@@@@ATL@@QAE@XZ
__unwindfunclet$?ParsingstrHtml@CDlgResult@@QAE?AV?$CStringT@DV?$StrTraitMFC_DLL@DV?$ChTraitsCRT@D@ATL@@@@@ATL@@V23@@Z$18:
  000bd	8d 4d a0	 lea	 ecx, DWORD PTR _m_pHtmlCodeNameArray$[ebp+64]
  000c0	ff 25 00 00 00
	00		 jmp	 DWORD PTR __imp_??1?$CStringT@DV?$StrTraitMFC_DLL@DV?$ChTraitsCRT@D@ATL@@@@@ATL@@QAE@XZ
__unwindfunclet$?ParsingstrHtml@CDlgResult@@QAE?AV?$CStringT@DV?$StrTraitMFC_DLL@DV?$ChTraitsCRT@D@ATL@@@@@ATL@@V23@@Z$19:
  000c6	8d 4d a4	 lea	 ecx, DWORD PTR _m_pHtmlCodeNameArray$[ebp+68]
  000c9	ff 25 00 00 00
	00		 jmp	 DWORD PTR __imp_??1?$CStringT@DV?$StrTraitMFC_DLL@DV?$ChTraitsCRT@D@ATL@@@@@ATL@@QAE@XZ
__unwindfunclet$?ParsingstrHtml@CDlgResult@@QAE?AV?$CStringT@DV?$StrTraitMFC_DLL@DV?$ChTraitsCRT@D@ATL@@@@@ATL@@V23@@Z$20:
  000cf	8d 4d a8	 lea	 ecx, DWORD PTR _m_pHtmlCodeNameArray$[ebp+72]
  000d2	ff 25 00 00 00
	00		 jmp	 DWORD PTR __imp_??1?$CStringT@DV?$StrTraitMFC_DLL@DV?$ChTraitsCRT@D@ATL@@@@@ATL@@QAE@XZ
__unwindfunclet$?ParsingstrHtml@CDlgResult@@QAE?AV?$CStringT@DV?$StrTraitMFC_DLL@DV?$ChTraitsCRT@D@ATL@@@@@ATL@@V23@@Z$21:
  000d8	8d 4d ac	 lea	 ecx, DWORD PTR _m_pHtmlCodeNameArray$[ebp+76]
  000db	ff 25 00 00 00
	00		 jmp	 DWORD PTR __imp_??1?$CStringT@DV?$StrTraitMFC_DLL@DV?$ChTraitsCRT@D@ATL@@@@@ATL@@QAE@XZ
__unwindfunclet$?ParsingstrHtml@CDlgResult@@QAE?AV?$CStringT@DV?$StrTraitMFC_DLL@DV?$ChTraitsCRT@D@ATL@@@@@ATL@@V23@@Z$22:
  000e1	8d 4d b0	 lea	 ecx, DWORD PTR _m_pHtmlCodeNameArray$[ebp+80]
  000e4	ff 25 00 00 00
	00		 jmp	 DWORD PTR __imp_??1?$CStringT@DV?$StrTraitMFC_DLL@DV?$ChTraitsCRT@D@ATL@@@@@ATL@@QAE@XZ
__unwindfunclet$?ParsingstrHtml@CDlgResult@@QAE?AV?$CStringT@DV?$StrTraitMFC_DLL@DV?$ChTraitsCRT@D@ATL@@@@@ATL@@V23@@Z$23:
  000ea	8d 4d b4	 lea	 ecx, DWORD PTR _m_pHtmlCodeNameArray$[ebp+84]
  000ed	ff 25 00 00 00
	00		 jmp	 DWORD PTR __imp_??1?$CStringT@DV?$StrTraitMFC_DLL@DV?$ChTraitsCRT@D@ATL@@@@@ATL@@QAE@XZ
__unwindfunclet$?ParsingstrHtml@CDlgResult@@QAE?AV?$CStringT@DV?$StrTraitMFC_DLL@DV?$ChTraitsCRT@D@ATL@@@@@ATL@@V23@@Z$24:
  000f3	8d 4d b8	 lea	 ecx, DWORD PTR _m_pHtmlCodeNameArray$[ebp+88]
  000f6	ff 25 00 00 00
	00		 jmp	 DWORD PTR __imp_??1?$CStringT@DV?$StrTraitMFC_DLL@DV?$ChTraitsCRT@D@ATL@@@@@ATL@@QAE@XZ
__unwindfunclet$?ParsingstrHtml@CDlgResult@@QAE?AV?$CStringT@DV?$StrTraitMFC_DLL@DV?$ChTraitsCRT@D@ATL@@@@@ATL@@V23@@Z$25:
  000fc	8d 4d bc	 lea	 ecx, DWORD PTR _m_pHtmlCodeNameArray$[ebp+92]
  000ff	ff 25 00 00 00
	00		 jmp	 DWORD PTR __imp_??1?$CStringT@DV?$StrTraitMFC_DLL@DV?$ChTraitsCRT@D@ATL@@@@@ATL@@QAE@XZ
__unwindfunclet$?ParsingstrHtml@CDlgResult@@QAE?AV?$CStringT@DV?$StrTraitMFC_DLL@DV?$ChTraitsCRT@D@ATL@@@@@ATL@@V23@@Z$26:
  00105	8d 4d c0	 lea	 ecx, DWORD PTR _m_pHtmlCodeNameArray$[ebp+96]
  00108	ff 25 00 00 00
	00		 jmp	 DWORD PTR __imp_??1?$CStringT@DV?$StrTraitMFC_DLL@DV?$ChTraitsCRT@D@ATL@@@@@ATL@@QAE@XZ
__unwindfunclet$?ParsingstrHtml@CDlgResult@@QAE?AV?$CStringT@DV?$StrTraitMFC_DLL@DV?$ChTraitsCRT@D@ATL@@@@@ATL@@V23@@Z$27:
  0010e	8d 4d c4	 lea	 ecx, DWORD PTR _m_pHtmlCodeNameArray$[ebp+100]
  00111	ff 25 00 00 00
	00		 jmp	 DWORD PTR __imp_??1?$CStringT@DV?$StrTraitMFC_DLL@DV?$ChTraitsCRT@D@ATL@@@@@ATL@@QAE@XZ
__unwindfunclet$?ParsingstrHtml@CDlgResult@@QAE?AV?$CStringT@DV?$StrTraitMFC_DLL@DV?$ChTraitsCRT@D@ATL@@@@@ATL@@V23@@Z$28:
  00117	8d 4d c8	 lea	 ecx, DWORD PTR _m_pHtmlCodeNameArray$[ebp+104]
  0011a	ff 25 00 00 00
	00		 jmp	 DWORD PTR __imp_??1?$CStringT@DV?$StrTraitMFC_DLL@DV?$ChTraitsCRT@D@ATL@@@@@ATL@@QAE@XZ
__unwindfunclet$?ParsingstrHtml@CDlgResult@@QAE?AV?$CStringT@DV?$StrTraitMFC_DLL@DV?$ChTraitsCRT@D@ATL@@@@@ATL@@V23@@Z$29:
  00120	8d 4d cc	 lea	 ecx, DWORD PTR _m_pHtmlCodeNameArray$[ebp+108]
  00123	ff 25 00 00 00
	00		 jmp	 DWORD PTR __imp_??1?$CStringT@DV?$StrTraitMFC_DLL@DV?$ChTraitsCRT@D@ATL@@@@@ATL@@QAE@XZ
__unwindfunclet$?ParsingstrHtml@CDlgResult@@QAE?AV?$CStringT@DV?$StrTraitMFC_DLL@DV?$ChTraitsCRT@D@ATL@@@@@ATL@@V23@@Z$30:
  00129	8d 4d d0	 lea	 ecx, DWORD PTR _m_pHtmlCodeNameArray$[ebp+112]
  0012c	ff 25 00 00 00
	00		 jmp	 DWORD PTR __imp_??1?$CStringT@DV?$StrTraitMFC_DLL@DV?$ChTraitsCRT@D@ATL@@@@@ATL@@QAE@XZ
__unwindfunclet$?ParsingstrHtml@CDlgResult@@QAE?AV?$CStringT@DV?$StrTraitMFC_DLL@DV?$ChTraitsCRT@D@ATL@@@@@ATL@@V23@@Z$31:
  00132	8d 4d d4	 lea	 ecx, DWORD PTR _m_pHtmlCodeNameArray$[ebp+116]
  00135	ff 25 00 00 00
	00		 jmp	 DWORD PTR __imp_??1?$CStringT@DV?$StrTraitMFC_DLL@DV?$ChTraitsCRT@D@ATL@@@@@ATL@@QAE@XZ
__unwindfunclet$?ParsingstrHtml@CDlgResult@@QAE?AV?$CStringT@DV?$StrTraitMFC_DLL@DV?$ChTraitsCRT@D@ATL@@@@@ATL@@V23@@Z$32:
  0013b	8d 4d d8	 lea	 ecx, DWORD PTR _m_pHtmlCodeNameArray$[ebp+120]
  0013e	ff 25 00 00 00
	00		 jmp	 DWORD PTR __imp_??1?$CStringT@DV?$StrTraitMFC_DLL@DV?$ChTraitsCRT@D@ATL@@@@@ATL@@QAE@XZ
__unwindfunclet$?ParsingstrHtml@CDlgResult@@QAE?AV?$CStringT@DV?$StrTraitMFC_DLL@DV?$ChTraitsCRT@D@ATL@@@@@ATL@@V23@@Z$33:
  00144	8d 4d dc	 lea	 ecx, DWORD PTR _m_pHtmlCodeNameArray$[ebp+124]
  00147	ff 25 00 00 00
	00		 jmp	 DWORD PTR __imp_??1?$CStringT@DV?$StrTraitMFC_DLL@DV?$ChTraitsCRT@D@ATL@@@@@ATL@@QAE@XZ
__unwindfunclet$?ParsingstrHtml@CDlgResult@@QAE?AV?$CStringT@DV?$StrTraitMFC_DLL@DV?$ChTraitsCRT@D@ATL@@@@@ATL@@V23@@Z$34:
  0014d	8d 4d e0	 lea	 ecx, DWORD PTR _m_pHtmlCodeNameArray$[ebp+128]
  00150	ff 25 00 00 00
	00		 jmp	 DWORD PTR __imp_??1?$CStringT@DV?$StrTraitMFC_DLL@DV?$ChTraitsCRT@D@ATL@@@@@ATL@@QAE@XZ
__unwindfunclet$?ParsingstrHtml@CDlgResult@@QAE?AV?$CStringT@DV?$StrTraitMFC_DLL@DV?$ChTraitsCRT@D@ATL@@@@@ATL@@V23@@Z$35:
  00156	8d 4d e4	 lea	 ecx, DWORD PTR _m_pHtmlCodeNameArray$[ebp+132]
  00159	ff 25 00 00 00
	00		 jmp	 DWORD PTR __imp_??1?$CStringT@DV?$StrTraitMFC_DLL@DV?$ChTraitsCRT@D@ATL@@@@@ATL@@QAE@XZ
__unwindfunclet$?ParsingstrHtml@CDlgResult@@QAE?AV?$CStringT@DV?$StrTraitMFC_DLL@DV?$ChTraitsCRT@D@ATL@@@@@ATL@@V23@@Z$36:
  0015f	8d 4d e8	 lea	 ecx, DWORD PTR _m_pHtmlCodeNameArray$[ebp+136]
  00162	ff 25 00 00 00
	00		 jmp	 DWORD PTR __imp_??1?$CStringT@DV?$StrTraitMFC_DLL@DV?$ChTraitsCRT@D@ATL@@@@@ATL@@QAE@XZ
__unwindfunclet$?ParsingstrHtml@CDlgResult@@QAE?AV?$CStringT@DV?$StrTraitMFC_DLL@DV?$ChTraitsCRT@D@ATL@@@@@ATL@@V23@@Z$38:
  00168	a1 00 00 00 00	 mov	 eax, DWORD PTR __imp_??1?$CStringT@DV?$StrTraitMFC_DLL@DV?$ChTraitsCRT@D@ATL@@@@@ATL@@QAE@XZ
  0016d	50		 push	 eax
  0016e	6a 24		 push	 36			; 00000024H
  00170	6a 04		 push	 4
  00172	8d 85 60 ff ff
	ff		 lea	 eax, DWORD PTR _m_pHtmlCodeNameArray$[ebp]
  00178	50		 push	 eax
  00179	e8 00 00 00 00	 call	 ??_M@YGXPAXIIP6EX0@Z@Z
  0017e	c3		 ret	 0
__unwindfunclet$?ParsingstrHtml@CDlgResult@@QAE?AV?$CStringT@DV?$StrTraitMFC_DLL@DV?$ChTraitsCRT@D@ATL@@@@@ATL@@V23@@Z$39:
  0017f	8d 8d 2c ff ff
	ff		 lea	 ecx, DWORD PTR _stData$[ebp]
  00185	e9 00 00 00 00	 jmp	 ??1ST_DATAINDEX@@QAE@XZ
__unwindfunclet$?ParsingstrHtml@CDlgResult@@QAE?AV?$CStringT@DV?$StrTraitMFC_DLL@DV?$ChTraitsCRT@D@ATL@@@@@ATL@@V23@@Z$40:
  0018a	8b 85 4c ff ff
	ff		 mov	 eax, DWORD PTR $T3[ebp]
  00190	83 e0 01	 and	 eax, 1
  00193	0f 84 13 00 00
	00		 je	 $LN54@Parsingstr
  00199	83 a5 4c ff ff
	ff fe		 and	 DWORD PTR $T3[ebp], -2	; fffffffeH
  001a0	8b 8d 1c ff ff
	ff		 mov	 ecx, DWORD PTR ___$ReturnUdt$GSCopy$[ebp]
  001a6	ff 25 00 00 00
	00		 jmp	 DWORD PTR __imp_??1?$CStringT@DV?$StrTraitMFC_DLL@DV?$ChTraitsCRT@D@ATL@@@@@ATL@@QAE@XZ
$LN54@Parsingstr:
  001ac	c3		 ret	 0
__unwindfunclet$?ParsingstrHtml@CDlgResult@@QAE?AV?$CStringT@DV?$StrTraitMFC_DLL@DV?$ChTraitsCRT@D@ATL@@@@@ATL@@V23@@Z$41:
  001ad	8d 8d 58 ff ff
	ff		 lea	 ecx, DWORD PTR _strACCumProf$[ebp]
  001b3	ff 25 00 00 00
	00		 jmp	 DWORD PTR __imp_??1?$CStringT@DV?$StrTraitMFC_DLL@DV?$ChTraitsCRT@D@ATL@@@@@ATL@@QAE@XZ
__unwindfunclet$?ParsingstrHtml@CDlgResult@@QAE?AV?$CStringT@DV?$StrTraitMFC_DLL@DV?$ChTraitsCRT@D@ATL@@@@@ATL@@V23@@Z$42:
  001b9	8d 8d 24 ff ff
	ff		 lea	 ecx, DWORD PTR $T2[ebp]
  001bf	ff 25 00 00 00
	00		 jmp	 DWORD PTR __imp_??1?$CStringT@DV?$StrTraitMFC_DLL@DV?$ChTraitsCRT@D@ATL@@@@@ATL@@QAE@XZ
  001c5	cc		 int	 3
  001c6	cc		 int	 3
  001c7	cc		 int	 3
  001c8	cc		 int	 3
  001c9	cc		 int	 3
__ehhandler$?ParsingstrHtml@CDlgResult@@QAE?AV?$CStringT@DV?$StrTraitMFC_DLL@DV?$ChTraitsCRT@D@ATL@@@@@ATL@@V23@@Z:
  001ca	90		 npad	 1
  001cb	90		 npad	 1
  001cc	8b 54 24 08	 mov	 edx, DWORD PTR [esp+8]
  001d0	8d 42 0c	 lea	 eax, DWORD PTR [edx+12]
  001d3	8b 8a 18 ff ff
	ff		 mov	 ecx, DWORD PTR [edx-232]
  001d9	33 c8		 xor	 ecx, eax
  001db	e8 00 00 00 00	 call	 @__security_check_cookie@4
  001e0	8b 4a fc	 mov	 ecx, DWORD PTR [edx-4]
  001e3	33 c8		 xor	 ecx, eax
  001e5	e8 00 00 00 00	 call	 @__security_check_cookie@4
  001ea	b8 00 00 00 00	 mov	 eax, OFFSET __ehfuncinfo$?ParsingstrHtml@CDlgResult@@QAE?AV?$CStringT@DV?$StrTraitMFC_DLL@DV?$ChTraitsCRT@D@ATL@@@@@ATL@@V23@@Z
  001ef	e9 00 00 00 00	 jmp	 ___CxxFrameHandler3
text$x	ENDS
?ParsingstrHtml@CDlgResult@@QAE?AV?$CStringT@DV?$StrTraitMFC_DLL@DV?$ChTraitsCRT@D@ATL@@@@@ATL@@V23@@Z ENDP ; CDlgResult::ParsingstrHtml
; Function compile flags: /Ogtp
; File D:\git\src\IBK\IBK_DRFN\ProjSrc\SrcDrfn\Chart\INDEXOPTIMIZER\DlgResult.cpp
;	COMDAT ?SetDataDir@CDlgResult@@QAEXV?$CStringT@DV?$StrTraitMFC_DLL@DV?$ChTraitsCRT@D@ATL@@@@@ATL@@@Z
_TEXT	SEGMENT
__$EHRec$ = -12						; size = 12
_DataDir$ = 8						; size = 4
?SetDataDir@CDlgResult@@QAEXV?$CStringT@DV?$StrTraitMFC_DLL@DV?$ChTraitsCRT@D@ATL@@@@@ATL@@@Z PROC ; CDlgResult::SetDataDir, COMDAT
; _this$ = ecx

; 599  : {

  00000	55		 push	 ebp
  00001	8b ec		 mov	 ebp, esp
  00003	6a ff		 push	 -1
  00005	68 00 00 00 00	 push	 __ehhandler$?SetDataDir@CDlgResult@@QAEXV?$CStringT@DV?$StrTraitMFC_DLL@DV?$ChTraitsCRT@D@ATL@@@@@ATL@@@Z
  0000a	64 a1 00 00 00
	00		 mov	 eax, DWORD PTR fs:0
  00010	50		 push	 eax
  00011	a1 00 00 00 00	 mov	 eax, DWORD PTR ___security_cookie
  00016	33 c5		 xor	 eax, ebp
  00018	50		 push	 eax
  00019	8d 45 f4	 lea	 eax, DWORD PTR __$EHRec$[ebp]
  0001c	64 a3 00 00 00
	00		 mov	 DWORD PTR fs:0, eax

; 600  : 	m_strDir = DataDir;

  00022	8d 45 08	 lea	 eax, DWORD PTR _DataDir$[ebp]
  00025	c7 45 fc 00 00
	00 00		 mov	 DWORD PTR __$EHRec$[ebp+8], 0
  0002c	50		 push	 eax
  0002d	81 c1 b0 00 00
	00		 add	 ecx, 176		; 000000b0H
  00033	ff 15 00 00 00
	00		 call	 DWORD PTR __imp_??4?$CStringT@DV?$StrTraitMFC_DLL@DV?$ChTraitsCRT@D@ATL@@@@@ATL@@QAEAAV01@ABV01@@Z

; 601  : }

  00039	8d 4d 08	 lea	 ecx, DWORD PTR _DataDir$[ebp]
  0003c	ff 15 00 00 00
	00		 call	 DWORD PTR __imp_??1?$CStringT@DV?$StrTraitMFC_DLL@DV?$ChTraitsCRT@D@ATL@@@@@ATL@@QAE@XZ
  00042	8b 4d f4	 mov	 ecx, DWORD PTR __$EHRec$[ebp]
  00045	64 89 0d 00 00
	00 00		 mov	 DWORD PTR fs:0, ecx
  0004c	59		 pop	 ecx
  0004d	8b e5		 mov	 esp, ebp
  0004f	5d		 pop	 ebp
  00050	c2 04 00	 ret	 4
_TEXT	ENDS
;	COMDAT text$x
text$x	SEGMENT
__unwindfunclet$?SetDataDir@CDlgResult@@QAEXV?$CStringT@DV?$StrTraitMFC_DLL@DV?$ChTraitsCRT@D@ATL@@@@@ATL@@@Z$0:
  00000	8d 4d 08	 lea	 ecx, DWORD PTR _DataDir$[ebp]
  00003	ff 25 00 00 00
	00		 jmp	 DWORD PTR __imp_??1?$CStringT@DV?$StrTraitMFC_DLL@DV?$ChTraitsCRT@D@ATL@@@@@ATL@@QAE@XZ
  00009	cc		 int	 3
  0000a	cc		 int	 3
  0000b	cc		 int	 3
  0000c	cc		 int	 3
  0000d	cc		 int	 3
__ehhandler$?SetDataDir@CDlgResult@@QAEXV?$CStringT@DV?$StrTraitMFC_DLL@DV?$ChTraitsCRT@D@ATL@@@@@ATL@@@Z:
  0000e	90		 npad	 1
  0000f	90		 npad	 1
  00010	8b 54 24 08	 mov	 edx, DWORD PTR [esp+8]
  00014	8d 42 0c	 lea	 eax, DWORD PTR [edx+12]
  00017	8b 4a fc	 mov	 ecx, DWORD PTR [edx-4]
  0001a	33 c8		 xor	 ecx, eax
  0001c	e8 00 00 00 00	 call	 @__security_check_cookie@4
  00021	b8 00 00 00 00	 mov	 eax, OFFSET __ehfuncinfo$?SetDataDir@CDlgResult@@QAEXV?$CStringT@DV?$StrTraitMFC_DLL@DV?$ChTraitsCRT@D@ATL@@@@@ATL@@@Z
  00026	e9 00 00 00 00	 jmp	 ___CxxFrameHandler3
text$x	ENDS
?SetDataDir@CDlgResult@@QAEXV?$CStringT@DV?$StrTraitMFC_DLL@DV?$ChTraitsCRT@D@ATL@@@@@ATL@@@Z ENDP ; CDlgResult::SetDataDir
; Function compile flags: /Ogtp
; File D:\git\src\IBK\IBK_DRFN\ProjSrc\SrcDrfn\Chart\INDEXOPTIMIZER\DlgResult.cpp
;	COMDAT ?SetOptimizer@CDlgResult@@QAEXPAVCDlgOptimizer@@@Z
_TEXT	SEGMENT
_Opt$ = 8						; size = 4
?SetOptimizer@CDlgResult@@QAEXPAVCDlgOptimizer@@@Z PROC	; CDlgResult::SetOptimizer, COMDAT
; _this$ = ecx

; 594  : {

  00000	55		 push	 ebp
  00001	8b ec		 mov	 ebp, esp

; 595  : 	m_pOptimizer = Opt;

  00003	8b 45 08	 mov	 eax, DWORD PTR _Opt$[ebp]
  00006	89 81 a8 00 00
	00		 mov	 DWORD PTR [ecx+168], eax

; 596  : }

  0000c	5d		 pop	 ebp
  0000d	c2 04 00	 ret	 4
?SetOptimizer@CDlgResult@@QAEXPAVCDlgOptimizer@@@Z ENDP	; CDlgResult::SetOptimizer
_TEXT	ENDS
; Function compile flags: /Ogtp
; File D:\git\src\IBK\IBK_DRFN\ProjSrc\SrcDrfn\Chart\INDEXOPTIMIZER\DlgResult.cpp
; File C:\Program Files (x86)\Microsoft Visual Studio\2019\Community\VC\Tools\MSVC\14.29.30133\atlmfc\include\cstringt.h
; File D:\git\src\IBK\IBK_DRFN\ProjSrc\SrcDrfn\Chart\INDEXOPTIMIZER\DlgResult.cpp
; File C:\Program Files (x86)\Microsoft Visual Studio\2019\Community\VC\Tools\MSVC\14.29.30133\atlmfc\include\cstringt.h
; File D:\git\src\IBK\IBK_DRFN\ProjSrc\SrcDrfn\Chart\INDEXOPTIMIZER\DlgResult.cpp
; File C:\Program Files (x86)\Microsoft Visual Studio\2019\Community\VC\Tools\MSVC\14.29.30133\atlmfc\include\cstringt.h
; File C:\Program Files (x86)\Microsoft Visual Studio\2019\Community\VC\Tools\MSVC\14.29.30133\atlmfc\include\atlsimpstr.h
; File C:\Program Files (x86)\Microsoft Visual Studio\2019\Community\VC\Tools\MSVC\14.29.30133\atlmfc\include\cstringt.h
; File D:\git\src\IBK\IBK_DRFN\ProjSrc\SrcDrfn\Chart\INDEXOPTIMIZER\DlgResult.cpp
; File C:\Program Files (x86)\Microsoft Visual Studio\2019\Community\VC\Tools\MSVC\14.29.30133\atlmfc\include\cstringt.h
; File D:\git\src\IBK\IBK_DRFN\ProjSrc\SrcDrfn\Chart\INDEXOPTIMIZER\DlgResult.cpp
; File C:\Program Files (x86)\Microsoft Visual Studio\2019\Community\VC\Tools\MSVC\14.29.30133\atlmfc\include\cstringt.h
; File C:\Program Files (x86)\Microsoft Visual Studio\2019\Community\VC\Tools\MSVC\14.29.30133\atlmfc\include\atlsimpstr.h
; File C:\Program Files (x86)\Microsoft Visual Studio\2019\Community\VC\Tools\MSVC\14.29.30133\atlmfc\include\cstringt.h
; File D:\git\src\IBK\IBK_DRFN\ProjSrc\SrcDrfn\Chart\INDEXOPTIMIZER\DlgResult.cpp
; File C:\Program Files (x86)\Microsoft Visual Studio\2019\Community\VC\Tools\MSVC\14.29.30133\atlmfc\include\cstringt.h
; File D:\git\src\IBK\IBK_DRFN\ProjSrc\SrcDrfn\Chart\INDEXOPTIMIZER\DlgResult.cpp
; File C:\Program Files (x86)\Microsoft Visual Studio\2019\Community\VC\Tools\MSVC\14.29.30133\atlmfc\include\cstringt.h
; File C:\Program Files (x86)\Microsoft Visual Studio\2019\Community\VC\Tools\MSVC\14.29.30133\atlmfc\include\atlsimpstr.h
; File C:\Program Files (x86)\Microsoft Visual Studio\2019\Community\VC\Tools\MSVC\14.29.30133\atlmfc\include\cstringt.h
; File D:\git\src\IBK\IBK_DRFN\ProjSrc\SrcDrfn\Chart\INDEXOPTIMIZER\DlgResult.cpp
;	COMDAT ?MakeHtmlFile@CDlgResult@@QAEXXZ
_TEXT	SEGMENT
_NewFile$ = -76						; size = 24
_DefaultFile$2 = -52					; size = 24
$T3 = -28						; size = 4
$T4 = -28						; size = 4
$T5 = -24						; size = 4
$T6 = -24						; size = 4
$T7 = -24						; size = 4
_strHtml$ = -20						; size = 4
_str$8 = -16						; size = 4
__$EHRec$ = -12						; size = 12
?MakeHtmlFile@CDlgResult@@QAEXXZ PROC			; CDlgResult::MakeHtmlFile, COMDAT
; _this$ = ecx

; 292  : {

  00000	55		 push	 ebp
  00001	8b ec		 mov	 ebp, esp
  00003	6a ff		 push	 -1
  00005	68 00 00 00 00	 push	 __ehhandler$?MakeHtmlFile@CDlgResult@@QAEXXZ
  0000a	64 a1 00 00 00
	00		 mov	 eax, DWORD PTR fs:0
  00010	50		 push	 eax
  00011	83 ec 40	 sub	 esp, 64			; 00000040H
  00014	53		 push	 ebx
  00015	56		 push	 esi
  00016	57		 push	 edi
  00017	a1 00 00 00 00	 mov	 eax, DWORD PTR ___security_cookie
  0001c	33 c5		 xor	 eax, ebp
  0001e	50		 push	 eax
  0001f	8d 45 f4	 lea	 eax, DWORD PTR __$EHRec$[ebp]
  00022	64 a3 00 00 00
	00		 mov	 DWORD PTR fs:0, eax
  00028	8b d9		 mov	 ebx, ecx

; 293  : 	//   !!
; 294  : 	//	m_pStrategyItem->
; 295  : 
; 296  : 	CStdioFile NewFile;

  0002a	8d 4d b4	 lea	 ecx, DWORD PTR _NewFile$[ebp]
  0002d	c7 45 e4 00 00
	00 00		 mov	 DWORD PTR $T3[ebp], 0
  00034	e8 00 00 00 00	 call	 ??0CStdioFile@@QAE@XZ	; CStdioFile::CStdioFile

; 297  : 	///String  //////////////////////..
; 298  : 	CString strHtml;

  00039	8d 4d ec	 lea	 ecx, DWORD PTR _strHtml$[ebp]
  0003c	c7 45 fc 00 00
	00 00		 mov	 DWORD PTR __$EHRec$[ebp+8], 0
  00043	ff 15 00 00 00
	00		 call	 DWORD PTR __imp_??0?$CStringT@DV?$StrTraitMFC_DLL@DV?$ChTraitsCRT@D@ATL@@@@@ATL@@QAE@XZ

; 269  : 	if(m_strHtml!="")return;

  00049	8d bb b4 00 00
	00		 lea	 edi, DWORD PTR [ebx+180]

; 297  : 	///String  //////////////////////..
; 298  : 	CString strHtml;

  0004f	c6 45 fc 01	 mov	 BYTE PTR __$EHRec$[ebp+8], 1
; File C:\Program Files (x86)\Microsoft Visual Studio\2019\Community\VC\Tools\MSVC\14.29.30133\atlmfc\include\cstringt.h

; 2567 : 		return( str1.Compare( psz2 ) != 0 );

  00053	68 00 00 00 00	 push	 OFFSET ??_C@_00CNPNBAHC@@
  00058	8b cf		 mov	 ecx, edi
  0005a	ff 15 00 00 00
	00		 call	 DWORD PTR __imp_?Compare@?$CStringT@DV?$StrTraitMFC_DLL@DV?$ChTraitsCRT@D@ATL@@@@@ATL@@QBEHPBD@Z
  00060	85 c0		 test	 eax, eax
; File D:\git\src\IBK\IBK_DRFN\ProjSrc\SrcDrfn\Chart\INDEXOPTIMIZER\DlgResult.cpp

; 269  : 	if(m_strHtml!="")return;

  00062	0f 85 db 00 00
	00		 jne	 $LN12@MakeHtmlFi

; 270  : 	CStdioFile DefaultFile;

  00068	8d 4d cc	 lea	 ecx, DWORD PTR _DefaultFile$2[ebp]
  0006b	e8 00 00 00 00	 call	 ??0CStdioFile@@QAE@XZ	; CStdioFile::CStdioFile

; 271  : 	CString str;

  00070	8d 4d f0	 lea	 ecx, DWORD PTR _str$8[ebp]
  00073	ff 15 00 00 00
	00		 call	 DWORD PTR __imp_??0?$CStringT@DV?$StrTraitMFC_DLL@DV?$ChTraitsCRT@D@ATL@@@@@ATL@@QAE@XZ
; File C:\Program Files (x86)\Microsoft Visual Studio\2019\Community\VC\Tools\MSVC\14.29.30133\atlmfc\include\cstringt.h

; 2401 : 		CStringT strResult( str1.GetManager() );

  00079	8d 8b b0 00 00
	00		 lea	 ecx, DWORD PTR [ebx+176]
; File D:\git\src\IBK\IBK_DRFN\ProjSrc\SrcDrfn\Chart\INDEXOPTIMIZER\DlgResult.cpp

; 273  : 	if(!DefaultFile.Open(m_strDir+"\\IndexOptimizer.htm",CFile::modeRead))

  0007f	c6 45 fc 04	 mov	 BYTE PTR __$EHRec$[ebp+8], 4
; File C:\Program Files (x86)\Microsoft Visual Studio\2019\Community\VC\Tools\MSVC\14.29.30133\atlmfc\include\cstringt.h

; 2401 : 		CStringT strResult( str1.GetManager() );

  00083	ff 15 00 00 00
	00		 call	 DWORD PTR __imp_?GetManager@?$CStringT@DV?$StrTraitMFC_DLL@DV?$ChTraitsCRT@D@ATL@@@@@ATL@@QBEPAUIAtlStringMgr@2@XZ
  00089	50		 push	 eax
  0008a	8d 4d e8	 lea	 ecx, DWORD PTR $T5[ebp]
  0008d	ff 15 00 00 00
	00		 call	 DWORD PTR __imp_??0?$CStringT@DV?$StrTraitMFC_DLL@DV?$ChTraitsCRT@D@ATL@@@@@ATL@@QAE@PAUIAtlStringMgr@1@@Z
; File C:\Program Files (x86)\Microsoft Visual Studio\2019\Community\VC\Tools\MSVC\14.29.30133\atlmfc\include\atlsimpstr.h

; 519  : 		return( GetData()->nDataLength );

  00093	8b 83 b0 00 00
	00		 mov	 eax, DWORD PTR [ebx+176]
; File C:\Program Files (x86)\Microsoft Visual Studio\2019\Community\VC\Tools\MSVC\14.29.30133\atlmfc\include\cstringt.h

; 2403 : 		CThisSimpleString::Concatenate( strResult, str1, str1.GetLength(), psz2, CThisSimpleString::StringLength( psz2 ) );

  00099	6a 13		 push	 19			; 00000013H
  0009b	68 00 00 00 00	 push	 OFFSET ??_C@_0BE@MFEGIDEI@?2IndexOptimizer?4htm@

; 2404 : 
; 2405 : 		return( strResult );

  000a0	c7 45 e4 01 00
	00 00		 mov	 DWORD PTR $T3[ebp], 1
  000a7	ff 70 f4	 push	 DWORD PTR [eax-12]
  000aa	50		 push	 eax
  000ab	8d 45 e8	 lea	 eax, DWORD PTR $T5[ebp]
  000ae	50		 push	 eax
  000af	ff 15 00 00 00
	00		 call	 DWORD PTR __imp_?Concatenate@?$CSimpleStringT@D$00@ATL@@KAXAAV12@PBDH1H@Z
  000b5	83 c4 14	 add	 esp, 20			; 00000014H
; File D:\git\src\IBK\IBK_DRFN\ProjSrc\SrcDrfn\Chart\INDEXOPTIMIZER\DlgResult.cpp

; 273  : 	if(!DefaultFile.Open(m_strDir+"\\IndexOptimizer.htm",CFile::modeRead))

  000b8	8d 4d cc	 lea	 ecx, DWORD PTR _DefaultFile$2[ebp]
  000bb	6a 00		 push	 0
  000bd	6a 00		 push	 0
  000bf	ff 75 e8	 push	 DWORD PTR $T5[ebp]
  000c2	e8 00 00 00 00	 call	 ?Open@CStdioFile@@UAEHPBDIPAVCFileException@@@Z ; CStdioFile::Open
  000c7	8d 4d e8	 lea	 ecx, DWORD PTR $T5[ebp]
  000ca	c6 45 fc 03	 mov	 BYTE PTR __$EHRec$[ebp+8], 3
  000ce	8b f0		 mov	 esi, eax
  000d0	ff 15 00 00 00
	00		 call	 DWORD PTR __imp_??1?$CStringT@DV?$StrTraitMFC_DLL@DV?$ChTraitsCRT@D@ATL@@@@@ATL@@QAE@XZ
  000d6	85 f6		 test	 esi, esi
  000d8	75 0e		 jne	 SHORT $LN17@MakeHtmlFi

; 274  : 	{
; 275  : 		AfxMessageBox("Do Not Create IndexOptimizer.htm File.");

  000da	56		 push	 esi
  000db	56		 push	 esi
  000dc	68 00 00 00 00	 push	 OFFSET ??_C@_0CH@KHGIOIFG@Do?5Not?5Create?5IndexOptimizer?4ht@
  000e1	e8 00 00 00 00	 call	 ?AfxMessageBox@@YGHPBDII@Z ; AfxMessageBox

; 276  : 		return;

  000e6	eb 46		 jmp	 SHORT $LN77@MakeHtmlFi
$LN17@MakeHtmlFi:

; 277  : 	}
; 278  : 
; 279  : 	for(;;){
; 280  : 		if(DefaultFile.ReadString(str))

  000e8	8d 45 f0	 lea	 eax, DWORD PTR _str$8[ebp]
  000eb	50		 push	 eax
  000ec	8d 4d cc	 lea	 ecx, DWORD PTR _DefaultFile$2[ebp]
  000ef	e8 00 00 00 00	 call	 ?ReadString@CStdioFile@@UAEHAAV?$CStringT@DV?$StrTraitMFC_DLL@DV?$ChTraitsCRT@D@ATL@@@@@ATL@@@Z ; CStdioFile::ReadString
  000f4	85 c0		 test	 eax, eax
  000f6	74 1c		 je	 SHORT $LN18@MakeHtmlFi
$LL13@MakeHtmlFi:

; 281  : 			m_strHtml+=str;

  000f8	8d 45 f0	 lea	 eax, DWORD PTR _str$8[ebp]
  000fb	8b cf		 mov	 ecx, edi
  000fd	50		 push	 eax
  000fe	ff 15 00 00 00
	00		 call	 DWORD PTR __imp_??Y?$CStringT@DV?$StrTraitMFC_DLL@DV?$ChTraitsCRT@D@ATL@@@@@ATL@@QAEAAV01@ABV?$CSimpleStringT@D$00@1@@Z
  00104	8d 45 f0	 lea	 eax, DWORD PTR _str$8[ebp]
  00107	50		 push	 eax
  00108	8d 4d cc	 lea	 ecx, DWORD PTR _DefaultFile$2[ebp]
  0010b	e8 00 00 00 00	 call	 ?ReadString@CStdioFile@@UAEHAAV?$CStringT@DV?$StrTraitMFC_DLL@DV?$ChTraitsCRT@D@ATL@@@@@ATL@@@Z ; CStdioFile::ReadString
  00110	85 c0		 test	 eax, eax
  00112	75 e4		 jne	 SHORT $LL13@MakeHtmlFi
$LN18@MakeHtmlFi:

; 282  : 		else
; 283  : 			break;
; 284  : 	}
; 285  : 	m_strHtml.Replace("color=\"white\"", "");//

  00114	68 00 00 00 00	 push	 OFFSET ??_C@_00CNPNBAHC@@
  00119	68 00 00 00 00	 push	 OFFSET ??_C@_0O@NLCHHJFD@color?$DN?$CCwhite?$CC@
  0011e	8b cf		 mov	 ecx, edi
  00120	ff 15 00 00 00
	00		 call	 DWORD PTR __imp_?Replace@?$CStringT@DV?$StrTraitMFC_DLL@DV?$ChTraitsCRT@D@ATL@@@@@ATL@@QAEHPBD0@Z

; 286  : 
; 287  : 	DefaultFile.Close();

  00126	8d 4d cc	 lea	 ecx, DWORD PTR _DefaultFile$2[ebp]
  00129	e8 00 00 00 00	 call	 ?Close@CStdioFile@@UAEXXZ ; CStdioFile::Close
$LN77@MakeHtmlFi:

; 299  : 	InitHtml();
; 300  : 	strHtml = m_strHtml;

  0012e	8d 4d f0	 lea	 ecx, DWORD PTR _str$8[ebp]
  00131	ff 15 00 00 00
	00		 call	 DWORD PTR __imp_??1?$CStringT@DV?$StrTraitMFC_DLL@DV?$ChTraitsCRT@D@ATL@@@@@ATL@@QAE@XZ
  00137	8d 4d cc	 lea	 ecx, DWORD PTR _DefaultFile$2[ebp]
  0013a	c6 45 fc 01	 mov	 BYTE PTR __$EHRec$[ebp+8], 1
  0013e	e8 00 00 00 00	 call	 ??1CStdioFile@@UAE@XZ	; CStdioFile::~CStdioFile
$LN12@MakeHtmlFi:
  00143	57		 push	 edi
  00144	8d 4d ec	 lea	 ecx, DWORD PTR _strHtml$[ebp]
  00147	ff 15 00 00 00
	00		 call	 DWORD PTR __imp_??4?$CStringT@DV?$StrTraitMFC_DLL@DV?$ChTraitsCRT@D@ATL@@@@@ATL@@QAEAAV01@ABV01@@Z

; 301  : 	strHtml = ParsingstrHtml(strHtml);

  0014d	51		 push	 ecx
  0014e	8d 45 ec	 lea	 eax, DWORD PTR _strHtml$[ebp]
  00151	8b cc		 mov	 ecx, esp
  00153	50		 push	 eax
  00154	ff 15 00 00 00
	00		 call	 DWORD PTR __imp_??0?$CStringT@DV?$StrTraitMFC_DLL@DV?$ChTraitsCRT@D@ATL@@@@@ATL@@QAE@ABV01@@Z
  0015a	8d 45 e4	 lea	 eax, DWORD PTR $T4[ebp]
  0015d	8b cb		 mov	 ecx, ebx
  0015f	50		 push	 eax
  00160	e8 00 00 00 00	 call	 ?ParsingstrHtml@CDlgResult@@QAE?AV?$CStringT@DV?$StrTraitMFC_DLL@DV?$ChTraitsCRT@D@ATL@@@@@ATL@@V23@@Z ; CDlgResult::ParsingstrHtml
  00165	50		 push	 eax
  00166	8d 4d ec	 lea	 ecx, DWORD PTR _strHtml$[ebp]
  00169	c6 45 fc 05	 mov	 BYTE PTR __$EHRec$[ebp+8], 5
  0016d	ff 15 00 00 00
	00		 call	 DWORD PTR __imp_??4?$CStringT@DV?$StrTraitMFC_DLL@DV?$ChTraitsCRT@D@ATL@@@@@ATL@@QAEAAV01@ABV01@@Z
  00173	8d 4d e4	 lea	 ecx, DWORD PTR $T4[ebp]
  00176	ff 15 00 00 00
	00		 call	 DWORD PTR __imp_??1?$CStringT@DV?$StrTraitMFC_DLL@DV?$ChTraitsCRT@D@ATL@@@@@ATL@@QAE@XZ
; File C:\Program Files (x86)\Microsoft Visual Studio\2019\Community\VC\Tools\MSVC\14.29.30133\atlmfc\include\cstringt.h

; 2401 : 		CStringT strResult( str1.GetManager() );

  0017c	8d 8b b0 00 00
	00		 lea	 ecx, DWORD PTR [ebx+176]
; File D:\git\src\IBK\IBK_DRFN\ProjSrc\SrcDrfn\Chart\INDEXOPTIMIZER\DlgResult.cpp

; 304  : 	SetFileAttributes (m_strDir+"\\IndexOptimizerdata.htm", FILE_ATTRIBUTE_NORMAL);//protect Read Only Error

  00182	c6 45 fc 06	 mov	 BYTE PTR __$EHRec$[ebp+8], 6
; File C:\Program Files (x86)\Microsoft Visual Studio\2019\Community\VC\Tools\MSVC\14.29.30133\atlmfc\include\cstringt.h

; 2401 : 		CStringT strResult( str1.GetManager() );

  00186	ff 15 00 00 00
	00		 call	 DWORD PTR __imp_?GetManager@?$CStringT@DV?$StrTraitMFC_DLL@DV?$ChTraitsCRT@D@ATL@@@@@ATL@@QBEPAUIAtlStringMgr@2@XZ
  0018c	50		 push	 eax
  0018d	8d 4d e8	 lea	 ecx, DWORD PTR $T7[ebp]
  00190	ff 15 00 00 00
	00		 call	 DWORD PTR __imp_??0?$CStringT@DV?$StrTraitMFC_DLL@DV?$ChTraitsCRT@D@ATL@@@@@ATL@@QAE@PAUIAtlStringMgr@1@@Z
; File C:\Program Files (x86)\Microsoft Visual Studio\2019\Community\VC\Tools\MSVC\14.29.30133\atlmfc\include\atlsimpstr.h

; 519  : 		return( GetData()->nDataLength );

  00196	8b 83 b0 00 00
	00		 mov	 eax, DWORD PTR [ebx+176]
; File C:\Program Files (x86)\Microsoft Visual Studio\2019\Community\VC\Tools\MSVC\14.29.30133\atlmfc\include\cstringt.h

; 2403 : 		CThisSimpleString::Concatenate( strResult, str1, str1.GetLength(), psz2, CThisSimpleString::StringLength( psz2 ) );

  0019c	6a 17		 push	 23			; 00000017H
  0019e	68 00 00 00 00	 push	 OFFSET ??_C@_0BI@NAAHMCJB@?2IndexOptimizerdata?4htm@

; 2404 : 
; 2405 : 		return( strResult );

  001a3	c7 45 e4 02 00
	00 00		 mov	 DWORD PTR $T3[ebp], 2
  001aa	ff 70 f4	 push	 DWORD PTR [eax-12]
  001ad	50		 push	 eax
  001ae	8d 45 e8	 lea	 eax, DWORD PTR $T7[ebp]
  001b1	50		 push	 eax
  001b2	ff 15 00 00 00
	00		 call	 DWORD PTR __imp_?Concatenate@?$CSimpleStringT@D$00@ATL@@KAXAAV12@PBDH1H@Z
  001b8	83 c4 14	 add	 esp, 20			; 00000014H
; File D:\git\src\IBK\IBK_DRFN\ProjSrc\SrcDrfn\Chart\INDEXOPTIMIZER\DlgResult.cpp

; 304  : 	SetFileAttributes (m_strDir+"\\IndexOptimizerdata.htm", FILE_ATTRIBUTE_NORMAL);//protect Read Only Error

  001bb	68 80 00 00 00	 push	 128			; 00000080H
  001c0	ff 75 e8	 push	 DWORD PTR $T7[ebp]
  001c3	ff 15 00 00 00
	00		 call	 DWORD PTR __imp__SetFileAttributesA@8
  001c9	8d 4d e8	 lea	 ecx, DWORD PTR $T7[ebp]
  001cc	ff 15 00 00 00
	00		 call	 DWORD PTR __imp_??1?$CStringT@DV?$StrTraitMFC_DLL@DV?$ChTraitsCRT@D@ATL@@@@@ATL@@QAE@XZ
; File C:\Program Files (x86)\Microsoft Visual Studio\2019\Community\VC\Tools\MSVC\14.29.30133\atlmfc\include\cstringt.h

; 2401 : 		CStringT strResult( str1.GetManager() );

  001d2	8d 8b b0 00 00
	00		 lea	 ecx, DWORD PTR [ebx+176]
; File D:\git\src\IBK\IBK_DRFN\ProjSrc\SrcDrfn\Chart\INDEXOPTIMIZER\DlgResult.cpp

; 305  : 	if(!NewFile.Open(m_strDir+"\\IndexOptimizerdata.htm",CFile::modeCreate|CFile::modeWrite))

  001d8	c6 45 fc 07	 mov	 BYTE PTR __$EHRec$[ebp+8], 7
; File C:\Program Files (x86)\Microsoft Visual Studio\2019\Community\VC\Tools\MSVC\14.29.30133\atlmfc\include\cstringt.h

; 2401 : 		CStringT strResult( str1.GetManager() );

  001dc	ff 15 00 00 00
	00		 call	 DWORD PTR __imp_?GetManager@?$CStringT@DV?$StrTraitMFC_DLL@DV?$ChTraitsCRT@D@ATL@@@@@ATL@@QBEPAUIAtlStringMgr@2@XZ
  001e2	50		 push	 eax
  001e3	8d 4d e8	 lea	 ecx, DWORD PTR $T6[ebp]
  001e6	ff 15 00 00 00
	00		 call	 DWORD PTR __imp_??0?$CStringT@DV?$StrTraitMFC_DLL@DV?$ChTraitsCRT@D@ATL@@@@@ATL@@QAE@PAUIAtlStringMgr@1@@Z
; File C:\Program Files (x86)\Microsoft Visual Studio\2019\Community\VC\Tools\MSVC\14.29.30133\atlmfc\include\atlsimpstr.h

; 519  : 		return( GetData()->nDataLength );

  001ec	8b 83 b0 00 00
	00		 mov	 eax, DWORD PTR [ebx+176]
; File C:\Program Files (x86)\Microsoft Visual Studio\2019\Community\VC\Tools\MSVC\14.29.30133\atlmfc\include\cstringt.h

; 2403 : 		CThisSimpleString::Concatenate( strResult, str1, str1.GetLength(), psz2, CThisSimpleString::StringLength( psz2 ) );

  001f2	6a 17		 push	 23			; 00000017H
  001f4	68 00 00 00 00	 push	 OFFSET ??_C@_0BI@NAAHMCJB@?2IndexOptimizerdata?4htm@

; 2404 : 
; 2405 : 		return( strResult );

  001f9	c7 45 e4 04 00
	00 00		 mov	 DWORD PTR $T3[ebp], 4
  00200	ff 70 f4	 push	 DWORD PTR [eax-12]
  00203	50		 push	 eax
  00204	8d 45 e8	 lea	 eax, DWORD PTR $T6[ebp]
  00207	50		 push	 eax
  00208	ff 15 00 00 00
	00		 call	 DWORD PTR __imp_?Concatenate@?$CSimpleStringT@D$00@ATL@@KAXAAV12@PBDH1H@Z
  0020e	83 c4 14	 add	 esp, 20			; 00000014H
; File D:\git\src\IBK\IBK_DRFN\ProjSrc\SrcDrfn\Chart\INDEXOPTIMIZER\DlgResult.cpp

; 305  : 	if(!NewFile.Open(m_strDir+"\\IndexOptimizerdata.htm",CFile::modeCreate|CFile::modeWrite))

  00211	8d 4d b4	 lea	 ecx, DWORD PTR _NewFile$[ebp]
  00214	6a 00		 push	 0
  00216	68 01 10 00 00	 push	 4097			; 00001001H
  0021b	ff 75 e8	 push	 DWORD PTR $T6[ebp]
  0021e	e8 00 00 00 00	 call	 ?Open@CStdioFile@@UAEHPBDIPAVCFileException@@@Z ; CStdioFile::Open
  00223	8d 4d e8	 lea	 ecx, DWORD PTR $T6[ebp]
  00226	c6 45 fc 01	 mov	 BYTE PTR __$EHRec$[ebp+8], 1
  0022a	8b f0		 mov	 esi, eax
  0022c	ff 15 00 00 00
	00		 call	 DWORD PTR __imp_??1?$CStringT@DV?$StrTraitMFC_DLL@DV?$ChTraitsCRT@D@ATL@@@@@ATL@@QAE@XZ
  00232	85 f6		 test	 esi, esi
  00234	75 0e		 jne	 SHORT $LN2@MakeHtmlFi

; 306  : 	{
; 307  : 		AfxMessageBox("Do Not Create Html File.");

  00236	56		 push	 esi
  00237	56		 push	 esi
  00238	68 00 00 00 00	 push	 OFFSET ??_C@_0BJ@EJHFGNNM@Do?5Not?5Create?5Html?5File?4@
  0023d	e8 00 00 00 00	 call	 ?AfxMessageBox@@YGHPBDII@Z ; AfxMessageBox
  00242	eb 13		 jmp	 SHORT $LN11@MakeHtmlFi
$LN2@MakeHtmlFi:

; 308  : 		return;
; 309  : 	}else
; 310  : 		NewFile.WriteString(strHtml);

  00244	ff 75 ec	 push	 DWORD PTR _strHtml$[ebp]
  00247	8d 4d b4	 lea	 ecx, DWORD PTR _NewFile$[ebp]
  0024a	e8 00 00 00 00	 call	 ?WriteString@CStdioFile@@UAEXPBD@Z ; CStdioFile::WriteString

; 311  : 
; 312  : 	NewFile.Close();

  0024f	8d 4d b4	 lea	 ecx, DWORD PTR _NewFile$[ebp]
  00252	e8 00 00 00 00	 call	 ?Close@CStdioFile@@UAEXXZ ; CStdioFile::Close
$LN11@MakeHtmlFi:

; 313  : }

  00257	8d 4d ec	 lea	 ecx, DWORD PTR _strHtml$[ebp]
  0025a	ff 15 00 00 00
	00		 call	 DWORD PTR __imp_??1?$CStringT@DV?$StrTraitMFC_DLL@DV?$ChTraitsCRT@D@ATL@@@@@ATL@@QAE@XZ
  00260	8d 4d b4	 lea	 ecx, DWORD PTR _NewFile$[ebp]
  00263	e8 00 00 00 00	 call	 ??1CStdioFile@@UAE@XZ	; CStdioFile::~CStdioFile
  00268	8b 4d f4	 mov	 ecx, DWORD PTR __$EHRec$[ebp]
  0026b	64 89 0d 00 00
	00 00		 mov	 DWORD PTR fs:0, ecx
  00272	59		 pop	 ecx
  00273	5f		 pop	 edi
  00274	5e		 pop	 esi
  00275	5b		 pop	 ebx
  00276	8b e5		 mov	 esp, ebp
  00278	5d		 pop	 ebp
  00279	c3		 ret	 0
_TEXT	ENDS
;	COMDAT text$x
text$x	SEGMENT
__unwindfunclet$?MakeHtmlFile@CDlgResult@@QAEXXZ$0:
  00000	8d 4d b4	 lea	 ecx, DWORD PTR _NewFile$[ebp]
  00003	e9 00 00 00 00	 jmp	 ??1CStdioFile@@UAE@XZ	; CStdioFile::~CStdioFile
__unwindfunclet$?MakeHtmlFile@CDlgResult@@QAEXXZ$1:
  00008	8d 4d ec	 lea	 ecx, DWORD PTR _strHtml$[ebp]
  0000b	ff 25 00 00 00
	00		 jmp	 DWORD PTR __imp_??1?$CStringT@DV?$StrTraitMFC_DLL@DV?$ChTraitsCRT@D@ATL@@@@@ATL@@QAE@XZ
__unwindfunclet$?MakeHtmlFile@CDlgResult@@QAEXXZ$6:
  00011	8d 4d cc	 lea	 ecx, DWORD PTR _DefaultFile$2[ebp]
  00014	e9 00 00 00 00	 jmp	 ??1CStdioFile@@UAE@XZ	; CStdioFile::~CStdioFile
__unwindfunclet$?MakeHtmlFile@CDlgResult@@QAEXXZ$7:
  00019	8d 4d f0	 lea	 ecx, DWORD PTR _str$8[ebp]
  0001c	ff 25 00 00 00
	00		 jmp	 DWORD PTR __imp_??1?$CStringT@DV?$StrTraitMFC_DLL@DV?$ChTraitsCRT@D@ATL@@@@@ATL@@QAE@XZ
__unwindfunclet$?MakeHtmlFile@CDlgResult@@QAEXXZ$9:
  00022	8b 45 e4	 mov	 eax, DWORD PTR $T3[ebp]
  00025	83 e0 01	 and	 eax, 1
  00028	0f 84 0d 00 00
	00		 je	 $LN29@MakeHtmlFi
  0002e	83 65 e4 fe	 and	 DWORD PTR $T3[ebp], -2	; fffffffeH
  00032	8d 4d e8	 lea	 ecx, DWORD PTR $T5[ebp]
  00035	ff 25 00 00 00
	00		 jmp	 DWORD PTR __imp_??1?$CStringT@DV?$StrTraitMFC_DLL@DV?$ChTraitsCRT@D@ATL@@@@@ATL@@QAE@XZ
$LN29@MakeHtmlFi:
  0003b	c3		 ret	 0
__unwindfunclet$?MakeHtmlFile@CDlgResult@@QAEXXZ$3:
  0003c	8d 4d e4	 lea	 ecx, DWORD PTR $T4[ebp]
  0003f	ff 25 00 00 00
	00		 jmp	 DWORD PTR __imp_??1?$CStringT@DV?$StrTraitMFC_DLL@DV?$ChTraitsCRT@D@ATL@@@@@ATL@@QAE@XZ
__unwindfunclet$?MakeHtmlFile@CDlgResult@@QAEXXZ$10:
  00045	8b 45 e4	 mov	 eax, DWORD PTR $T3[ebp]
  00048	83 e0 02	 and	 eax, 2
  0004b	0f 84 0d 00 00
	00		 je	 $LN44@MakeHtmlFi
  00051	83 65 e4 fd	 and	 DWORD PTR $T3[ebp], -3	; fffffffdH
  00055	8d 4d e8	 lea	 ecx, DWORD PTR $T7[ebp]
  00058	ff 25 00 00 00
	00		 jmp	 DWORD PTR __imp_??1?$CStringT@DV?$StrTraitMFC_DLL@DV?$ChTraitsCRT@D@ATL@@@@@ATL@@QAE@XZ
$LN44@MakeHtmlFi:
  0005e	c3		 ret	 0
__unwindfunclet$?MakeHtmlFile@CDlgResult@@QAEXXZ$11:
  0005f	8b 45 e4	 mov	 eax, DWORD PTR $T3[ebp]
  00062	83 e0 04	 and	 eax, 4
  00065	0f 84 0d 00 00
	00		 je	 $LN59@MakeHtmlFi
  0006b	83 65 e4 fb	 and	 DWORD PTR $T3[ebp], -5	; fffffffbH
  0006f	8d 4d e8	 lea	 ecx, DWORD PTR $T6[ebp]
  00072	ff 25 00 00 00
	00		 jmp	 DWORD PTR __imp_??1?$CStringT@DV?$StrTraitMFC_DLL@DV?$ChTraitsCRT@D@ATL@@@@@ATL@@QAE@XZ
$LN59@MakeHtmlFi:
  00078	c3		 ret	 0
  00079	cc		 int	 3
  0007a	cc		 int	 3
  0007b	cc		 int	 3
  0007c	cc		 int	 3
  0007d	cc		 int	 3
__ehhandler$?MakeHtmlFile@CDlgResult@@QAEXXZ:
  0007e	90		 npad	 1
  0007f	90		 npad	 1
  00080	8b 54 24 08	 mov	 edx, DWORD PTR [esp+8]
  00084	8d 42 0c	 lea	 eax, DWORD PTR [edx+12]
  00087	8b 4a b0	 mov	 ecx, DWORD PTR [edx-80]
  0008a	33 c8		 xor	 ecx, eax
  0008c	e8 00 00 00 00	 call	 @__security_check_cookie@4
  00091	b8 00 00 00 00	 mov	 eax, OFFSET __ehfuncinfo$?MakeHtmlFile@CDlgResult@@QAEXXZ
  00096	e9 00 00 00 00	 jmp	 ___CxxFrameHandler3
text$x	ENDS
?MakeHtmlFile@CDlgResult@@QAEXXZ ENDP			; CDlgResult::MakeHtmlFile
; Function compile flags: /Ogtp
; File D:\git\src\IBK\IBK_DRFN\ProjSrc\SrcDrfn\Chart\INDEXOPTIMIZER\DlgResult.cpp
; File C:\Program Files (x86)\Microsoft Visual Studio\2019\Community\VC\Tools\MSVC\14.29.30133\atlmfc\include\cstringt.h
; File D:\git\src\IBK\IBK_DRFN\ProjSrc\SrcDrfn\Chart\INDEXOPTIMIZER\DlgResult.cpp
; File C:\Program Files (x86)\Microsoft Visual Studio\2019\Community\VC\Tools\MSVC\14.29.30133\atlmfc\include\cstringt.h
; File D:\git\src\IBK\IBK_DRFN\ProjSrc\SrcDrfn\Chart\INDEXOPTIMIZER\DlgResult.cpp
; File C:\Program Files (x86)\Microsoft Visual Studio\2019\Community\VC\Tools\MSVC\14.29.30133\atlmfc\include\cstringt.h
; File C:\Program Files (x86)\Microsoft Visual Studio\2019\Community\VC\Tools\MSVC\14.29.30133\atlmfc\include\atlsimpstr.h
; File C:\Program Files (x86)\Microsoft Visual Studio\2019\Community\VC\Tools\MSVC\14.29.30133\atlmfc\include\cstringt.h
; File D:\git\src\IBK\IBK_DRFN\ProjSrc\SrcDrfn\Chart\INDEXOPTIMIZER\DlgResult.cpp
;	COMDAT ?InitHtml@CDlgResult@@QAEXXZ
_TEXT	SEGMENT
_DefaultFile$ = -48					; size = 24
$T2 = -24						; size = 4
$T3 = -20						; size = 4
_str$ = -16						; size = 4
__$EHRec$ = -12						; size = 12
?InitHtml@CDlgResult@@QAEXXZ PROC			; CDlgResult::InitHtml, COMDAT
; _this$ = ecx

; 268  : {

  00000	55		 push	 ebp
  00001	8b ec		 mov	 ebp, esp
  00003	6a ff		 push	 -1
  00005	68 00 00 00 00	 push	 __ehhandler$?InitHtml@CDlgResult@@QAEXXZ
  0000a	64 a1 00 00 00
	00		 mov	 eax, DWORD PTR fs:0
  00010	50		 push	 eax
  00011	83 ec 24	 sub	 esp, 36			; 00000024H
  00014	56		 push	 esi
  00015	57		 push	 edi
  00016	a1 00 00 00 00	 mov	 eax, DWORD PTR ___security_cookie
  0001b	33 c5		 xor	 eax, ebp
  0001d	50		 push	 eax
  0001e	8d 45 f4	 lea	 eax, DWORD PTR __$EHRec$[ebp]
  00021	64 a3 00 00 00
	00		 mov	 DWORD PTR fs:0, eax
  00027	8b f1		 mov	 esi, ecx

; 269  : 	if(m_strHtml!="")return;

  00029	8d be b4 00 00
	00		 lea	 edi, DWORD PTR [esi+180]
  0002f	c7 45 e8 00 00
	00 00		 mov	 DWORD PTR $T2[ebp], 0
; File C:\Program Files (x86)\Microsoft Visual Studio\2019\Community\VC\Tools\MSVC\14.29.30133\atlmfc\include\cstringt.h

; 2567 : 		return( str1.Compare( psz2 ) != 0 );

  00036	68 00 00 00 00	 push	 OFFSET ??_C@_00CNPNBAHC@@
  0003b	8b cf		 mov	 ecx, edi
  0003d	ff 15 00 00 00
	00		 call	 DWORD PTR __imp_?Compare@?$CStringT@DV?$StrTraitMFC_DLL@DV?$ChTraitsCRT@D@ATL@@@@@ATL@@QBEHPBD@Z
  00043	85 c0		 test	 eax, eax
; File D:\git\src\IBK\IBK_DRFN\ProjSrc\SrcDrfn\Chart\INDEXOPTIMIZER\DlgResult.cpp

; 269  : 	if(m_strHtml!="")return;

  00045	0f 85 de 00 00
	00		 jne	 $LN1@InitHtml

; 270  : 	CStdioFile DefaultFile;

  0004b	8d 4d d0	 lea	 ecx, DWORD PTR _DefaultFile$[ebp]
  0004e	e8 00 00 00 00	 call	 ??0CStdioFile@@QAE@XZ	; CStdioFile::CStdioFile

; 271  : 	CString str;

  00053	8d 4d f0	 lea	 ecx, DWORD PTR _str$[ebp]
  00056	c7 45 fc 00 00
	00 00		 mov	 DWORD PTR __$EHRec$[ebp+8], 0
  0005d	ff 15 00 00 00
	00		 call	 DWORD PTR __imp_??0?$CStringT@DV?$StrTraitMFC_DLL@DV?$ChTraitsCRT@D@ATL@@@@@ATL@@QAE@XZ
; File C:\Program Files (x86)\Microsoft Visual Studio\2019\Community\VC\Tools\MSVC\14.29.30133\atlmfc\include\cstringt.h

; 2401 : 		CStringT strResult( str1.GetManager() );

  00063	8d 8e b0 00 00
	00		 lea	 ecx, DWORD PTR [esi+176]
; File D:\git\src\IBK\IBK_DRFN\ProjSrc\SrcDrfn\Chart\INDEXOPTIMIZER\DlgResult.cpp

; 273  : 	if(!DefaultFile.Open(m_strDir+"\\IndexOptimizer.htm",CFile::modeRead))

  00069	c6 45 fc 02	 mov	 BYTE PTR __$EHRec$[ebp+8], 2
; File C:\Program Files (x86)\Microsoft Visual Studio\2019\Community\VC\Tools\MSVC\14.29.30133\atlmfc\include\cstringt.h

; 2401 : 		CStringT strResult( str1.GetManager() );

  0006d	ff 15 00 00 00
	00		 call	 DWORD PTR __imp_?GetManager@?$CStringT@DV?$StrTraitMFC_DLL@DV?$ChTraitsCRT@D@ATL@@@@@ATL@@QBEPAUIAtlStringMgr@2@XZ
  00073	50		 push	 eax
  00074	8d 4d ec	 lea	 ecx, DWORD PTR $T3[ebp]
  00077	ff 15 00 00 00
	00		 call	 DWORD PTR __imp_??0?$CStringT@DV?$StrTraitMFC_DLL@DV?$ChTraitsCRT@D@ATL@@@@@ATL@@QAE@PAUIAtlStringMgr@1@@Z
; File C:\Program Files (x86)\Microsoft Visual Studio\2019\Community\VC\Tools\MSVC\14.29.30133\atlmfc\include\atlsimpstr.h

; 519  : 		return( GetData()->nDataLength );

  0007d	8b 86 b0 00 00
	00		 mov	 eax, DWORD PTR [esi+176]
; File C:\Program Files (x86)\Microsoft Visual Studio\2019\Community\VC\Tools\MSVC\14.29.30133\atlmfc\include\cstringt.h

; 2403 : 		CThisSimpleString::Concatenate( strResult, str1, str1.GetLength(), psz2, CThisSimpleString::StringLength( psz2 ) );

  00083	6a 13		 push	 19			; 00000013H
  00085	68 00 00 00 00	 push	 OFFSET ??_C@_0BE@MFEGIDEI@?2IndexOptimizer?4htm@

; 2404 : 
; 2405 : 		return( strResult );

  0008a	c7 45 e8 01 00
	00 00		 mov	 DWORD PTR $T2[ebp], 1
  00091	ff 70 f4	 push	 DWORD PTR [eax-12]
  00094	50		 push	 eax
  00095	8d 45 ec	 lea	 eax, DWORD PTR $T3[ebp]
  00098	50		 push	 eax
  00099	ff 15 00 00 00
	00		 call	 DWORD PTR __imp_?Concatenate@?$CSimpleStringT@D$00@ATL@@KAXAAV12@PBDH1H@Z
  0009f	83 c4 14	 add	 esp, 20			; 00000014H
; File D:\git\src\IBK\IBK_DRFN\ProjSrc\SrcDrfn\Chart\INDEXOPTIMIZER\DlgResult.cpp

; 273  : 	if(!DefaultFile.Open(m_strDir+"\\IndexOptimizer.htm",CFile::modeRead))

  000a2	8d 4d d0	 lea	 ecx, DWORD PTR _DefaultFile$[ebp]
  000a5	6a 00		 push	 0
  000a7	6a 00		 push	 0
  000a9	ff 75 ec	 push	 DWORD PTR $T3[ebp]
  000ac	e8 00 00 00 00	 call	 ?Open@CStdioFile@@UAEHPBDIPAVCFileException@@@Z ; CStdioFile::Open
  000b1	8d 4d ec	 lea	 ecx, DWORD PTR $T3[ebp]
  000b4	c6 45 fc 01	 mov	 BYTE PTR __$EHRec$[ebp+8], 1
  000b8	8b f0		 mov	 esi, eax
  000ba	ff 15 00 00 00
	00		 call	 DWORD PTR __imp_??1?$CStringT@DV?$StrTraitMFC_DLL@DV?$ChTraitsCRT@D@ATL@@@@@ATL@@QAE@XZ
  000c0	85 f6		 test	 esi, esi
  000c2	75 0e		 jne	 SHORT $LN6@InitHtml

; 274  : 	{
; 275  : 		AfxMessageBox("Do Not Create IndexOptimizer.htm File.");

  000c4	56		 push	 esi
  000c5	56		 push	 esi
  000c6	68 00 00 00 00	 push	 OFFSET ??_C@_0CH@KHGIOIFG@Do?5Not?5Create?5IndexOptimizer?4ht@
  000cb	e8 00 00 00 00	 call	 ?AfxMessageBox@@YGHPBDII@Z ; AfxMessageBox
  000d0	eb 46		 jmp	 SHORT $LN13@InitHtml
$LN6@InitHtml:

; 276  : 		return;
; 277  : 	}
; 278  : 
; 279  : 	for(;;){
; 280  : 		if(DefaultFile.ReadString(str))

  000d2	8d 45 f0	 lea	 eax, DWORD PTR _str$[ebp]
  000d5	50		 push	 eax
  000d6	8d 4d d0	 lea	 ecx, DWORD PTR _DefaultFile$[ebp]
  000d9	e8 00 00 00 00	 call	 ?ReadString@CStdioFile@@UAEHAAV?$CStringT@DV?$StrTraitMFC_DLL@DV?$ChTraitsCRT@D@ATL@@@@@ATL@@@Z ; CStdioFile::ReadString
  000de	85 c0		 test	 eax, eax
  000e0	74 1c		 je	 SHORT $LN7@InitHtml
$LL2@InitHtml:

; 281  : 			m_strHtml+=str;

  000e2	8d 45 f0	 lea	 eax, DWORD PTR _str$[ebp]
  000e5	8b cf		 mov	 ecx, edi
  000e7	50		 push	 eax
  000e8	ff 15 00 00 00
	00		 call	 DWORD PTR __imp_??Y?$CStringT@DV?$StrTraitMFC_DLL@DV?$ChTraitsCRT@D@ATL@@@@@ATL@@QAEAAV01@ABV?$CSimpleStringT@D$00@1@@Z
  000ee	8d 45 f0	 lea	 eax, DWORD PTR _str$[ebp]
  000f1	50		 push	 eax
  000f2	8d 4d d0	 lea	 ecx, DWORD PTR _DefaultFile$[ebp]
  000f5	e8 00 00 00 00	 call	 ?ReadString@CStdioFile@@UAEHAAV?$CStringT@DV?$StrTraitMFC_DLL@DV?$ChTraitsCRT@D@ATL@@@@@ATL@@@Z ; CStdioFile::ReadString
  000fa	85 c0		 test	 eax, eax
  000fc	75 e4		 jne	 SHORT $LL2@InitHtml
$LN7@InitHtml:

; 282  : 		else
; 283  : 			break;
; 284  : 	}
; 285  : 	m_strHtml.Replace("color=\"white\"", "");//

  000fe	68 00 00 00 00	 push	 OFFSET ??_C@_00CNPNBAHC@@
  00103	68 00 00 00 00	 push	 OFFSET ??_C@_0O@NLCHHJFD@color?$DN?$CCwhite?$CC@
  00108	8b cf		 mov	 ecx, edi
  0010a	ff 15 00 00 00
	00		 call	 DWORD PTR __imp_?Replace@?$CStringT@DV?$StrTraitMFC_DLL@DV?$ChTraitsCRT@D@ATL@@@@@ATL@@QAEHPBD0@Z

; 286  : 
; 287  : 	DefaultFile.Close();

  00110	8d 4d d0	 lea	 ecx, DWORD PTR _DefaultFile$[ebp]
  00113	e8 00 00 00 00	 call	 ?Close@CStdioFile@@UAEXXZ ; CStdioFile::Close
$LN13@InitHtml:

; 288  : }

  00118	8d 4d f0	 lea	 ecx, DWORD PTR _str$[ebp]
  0011b	ff 15 00 00 00
	00		 call	 DWORD PTR __imp_??1?$CStringT@DV?$StrTraitMFC_DLL@DV?$ChTraitsCRT@D@ATL@@@@@ATL@@QAE@XZ
  00121	8d 4d d0	 lea	 ecx, DWORD PTR _DefaultFile$[ebp]
