; Listing generated by Microsoft (R) Optimizing Compiler Version 19.29.30145.0 

	TITLE	D:\git\src\IBK\IBK_DRFN\#DRfn-CS\_Obj\IndexOptimizer\DlgTrade.obj
	.686P
	.XMM
	include listing.inc
	.model	flat

INCLUDELIB MSVCRT
INCLUDELIB OLDNAMES

PUBLIC	??_C@_0BG@OHIMHJEO@RMSG_STTREE_ITEMCLICK@	; `string'
PUBLIC	??_C@_0BH@LAAMLACL@RMSG_STTREE_ITEMDBLCLK@	; `string'
;	COMDAT ??_C@_0BH@LAAMLACL@RMSG_STTREE_ITEMDBLCLK@
CONST	SEGMENT
??_C@_0BH@LAAMLACL@RMSG_STTREE_ITEMDBLCLK@ DB 'RMSG_STTREE_ITEMDBLCLK', 00H ; `string'
CONST	ENDS
;	COMDAT ??_C@_0BG@OHIMHJEO@RMSG_STTREE_ITEMCLICK@
CONST	SEGMENT
??_C@_0BG@OHIMHJEO@RMSG_STTREE_ITEMCLICK@ DB 'RMSG_STTREE_ITEMCLICK', 00H ; `string'
CONST	ENDS
PUBLIC	??_H@YGXPAXIIP6EPAX0@Z@Z			; `vector constructor iterator'
PUBLIC	?__empty_global_delete@@YAXPAX@Z		; __empty_global_delete
PUBLIC	?__empty_global_delete@@YAXPAXI@Z		; __empty_global_delete
PUBLIC	?AfxCrtErrorCheck@@YAHH@Z			; AfxCrtErrorCheck
PUBLIC	??1CObject@@UAE@XZ				; CObject::~CObject
PUBLIC	?Serialize@CObject@@UAEXAAVCArchive@@@Z		; CObject::Serialize
PUBLIC	?AssertValid@CObject@@UBEXXZ			; CObject::AssertValid
PUBLIC	?Dump@CObject@@UBEXAAVCDumpContext@@@Z		; CObject::Dump
PUBLIC	?BeginModalState@CWnd@@UAEXXZ			; CWnd::BeginModalState
PUBLIC	?EndModalState@CWnd@@UAEXXZ			; CWnd::EndModalState
PUBLIC	?Create@CDialog@@UAEHIPAVCWnd@@@Z		; CDialog::Create
PUBLIC	?PreTranslateMessage@CEscDialog@@MAEHPAUtagMSG@@@Z ; CEscDialog::PreTranslateMessage
PUBLIC	?UpdateDlg@CDlgInterface@@UAEXXZ		; CDlgInterface::UpdateDlg
PUBLIC	?SetChartFocus@CDlgInterface@@UAEXH@Z		; CDlgInterface::SetChartFocus
PUBLIC	?GuganBtnUpdate@CDlgInterface@@UAEXXZ		; CDlgInterface::GuganBtnUpdate
PUBLIC	??1CDlgInterface@@UAE@XZ			; CDlgInterface::~CDlgInterface
PUBLIC	??0?$CArray@NN@@QAE@XZ				; CArray<double,double>::CArray<double,double>
PUBLIC	?SetSize@?$CArray@NN@@QAEXHH@Z			; CArray<double,double>::SetSize
PUBLIC	?SetAtGrow@?$CArray@NN@@QAEXHN@Z		; CArray<double,double>::SetAtGrow
PUBLIC	??1?$CArray@NN@@UAE@XZ				; CArray<double,double>::~CArray<double,double>
PUBLIC	?Serialize@?$CArray@NN@@UAEXAAVCArchive@@@Z	; CArray<double,double>::Serialize
PUBLIC	??_G?$CArray@NN@@UAEPAXI@Z			; CArray<double,double>::`scalar deleting destructor'
PUBLIC	??0CDlgTrade@@QAE@PAVCWnd@@@Z			; CDlgTrade::CDlgTrade
PUBLIC	?DoDataExchange@CDlgTrade@@MAEXPAVCDataExchange@@@Z ; CDlgTrade::DoDataExchange
PUBLIC	?OnInitDialog@CDlgTrade@@MAEHXZ			; CDlgTrade::OnInitDialog
PUBLIC	?OnDestroy@CDlgTrade@@IAEXXZ			; CDlgTrade::OnDestroy
PUBLIC	?GetThisMessageMap@CDlgTrade@@KGPBUAFX_MSGMAP@@XZ ; CDlgTrade::GetThisMessageMap
PUBLIC	?GetMessageMap@CDlgTrade@@MBEPBUAFX_MSGMAP@@XZ	; CDlgTrade::GetMessageMap
PUBLIC	?InitHtml@CDlgTrade@@QAEXXZ			; CDlgTrade::InitHtml
PUBLIC	?SetStrategyItem@CDlgTrade@@QAEXPAVCIStrategyItem0001@@@Z ; CDlgTrade::SetStrategyItem
PUBLIC	?SelectRunData@CDlgTrade@@QAEXV?$CStringT@DV?$StrTraitMFC_DLL@DV?$ChTraitsCRT@D@ATL@@@@@ATL@@@Z ; CDlgTrade::SelectRunData
PUBLIC	?SetOptimizer@CDlgTrade@@QAEXPAVCDlgOptimizer@@@Z ; CDlgTrade::SetOptimizer
PUBLIC	?SetDataDir@CDlgTrade@@QAEXV?$CStringT@DV?$StrTraitMFC_DLL@DV?$ChTraitsCRT@D@ATL@@@@@ATL@@@Z ; CDlgTrade::SetDataDir
PUBLIC	?OpenWebView@CDlgTrade@@QAEXV?$CStringT@DV?$StrTraitMFC_DLL@DV?$ChTraitsCRT@D@ATL@@@@@ATL@@@Z ; CDlgTrade::OpenWebView
PUBLIC	?GetSTMessageData@CDlgTrade@@QAEXXZ		; CDlgTrade::GetSTMessageData
PUBLIC	?InsertMonthGubun@CDlgTrade@@QAEXAAV?$CStringT@DV?$StrTraitMFC_DLL@DV?$ChTraitsCRT@D@ATL@@@@@ATL@@@Z ; CDlgTrade::InsertMonthGubun
PUBLIC	?InsertDateGubun@CDlgTrade@@QAEXAAV?$CStringT@DV?$StrTraitMFC_DLL@DV?$ChTraitsCRT@D@ATL@@@@@ATL@@@Z ; CDlgTrade::InsertDateGubun
PUBLIC	?InsertTimeGubun@CDlgTrade@@QAEXAAV?$CStringT@DV?$StrTraitMFC_DLL@DV?$ChTraitsCRT@D@ATL@@@@@ATL@@@Z ; CDlgTrade::InsertTimeGubun
PUBLIC	?InsertMinuteGubun@CDlgTrade@@QAEXAAV?$CStringT@DV?$StrTraitMFC_DLL@DV?$ChTraitsCRT@D@ATL@@@@@ATL@@H@Z ; CDlgTrade::InsertMinuteGubun
PUBLIC	?InsertGubun@CDlgTrade@@QAEHAAV?$CStringT@DV?$StrTraitMFC_DLL@DV?$ChTraitsCRT@D@ATL@@@@@ATL@@H@Z ; CDlgTrade::InsertGubun
PUBLIC	?InitGrid@CDlgTrade@@QAEXXZ			; CDlgTrade::InitGrid
PUBLIC	?SetDataSpreadGrid@CDlgTrade@@QAEXXZ		; CDlgTrade::SetDataSpreadGrid
PUBLIC	??_GCDlgTrade@@UAEPAXI@Z			; CDlgTrade::`scalar deleting destructor'
PUBLIC	??$SerializeElements@N@@YGXAAVCArchive@@PANH@Z	; SerializeElements<double>
PUBLIC	??_C@_02DPKJAMEF@?$CFd@				; `string'
PUBLIC	??_C@_00CNPNBAHC@@				; `string'
PUBLIC	??_R0?AVCObject@@@8				; CObject `RTTI Type Descriptor'
PUBLIC	??_R3CObject@@8					; CObject::`RTTI Class Hierarchy Descriptor'
PUBLIC	??_R2CObject@@8					; CObject::`RTTI Base Class Array'
PUBLIC	??_R1A@?0A@EA@CObject@@8			; CObject::`RTTI Base Class Descriptor at (0,-1,0,64)'
PUBLIC	??_R1A@?0A@EA@CWnd@@8				; CWnd::`RTTI Base Class Descriptor at (0,-1,0,64)'
PUBLIC	??_R0?AVCWnd@@@8				; CWnd `RTTI Type Descriptor'
PUBLIC	??_R3CWnd@@8					; CWnd::`RTTI Class Hierarchy Descriptor'
PUBLIC	??_R2CWnd@@8					; CWnd::`RTTI Base Class Array'
PUBLIC	??_R1A@?0A@EA@CCmdTarget@@8			; CCmdTarget::`RTTI Base Class Descriptor at (0,-1,0,64)'
PUBLIC	??_R0?AVCCmdTarget@@@8				; CCmdTarget `RTTI Type Descriptor'
PUBLIC	??_R3CCmdTarget@@8				; CCmdTarget::`RTTI Class Hierarchy Descriptor'
PUBLIC	??_R2CCmdTarget@@8				; CCmdTarget::`RTTI Base Class Array'
PUBLIC	??_R1A@?0A@EA@CDialog@@8			; CDialog::`RTTI Base Class Descriptor at (0,-1,0,64)'
PUBLIC	??_R0?AVCDialog@@@8				; CDialog `RTTI Type Descriptor'
PUBLIC	??_R3CDialog@@8					; CDialog::`RTTI Class Hierarchy Descriptor'
PUBLIC	??_R2CDialog@@8					; CDialog::`RTTI Base Class Array'
PUBLIC	??_R0?AVCEscDialog@@@8				; CEscDialog `RTTI Type Descriptor'
PUBLIC	??_R3CEscDialog@@8				; CEscDialog::`RTTI Class Hierarchy Descriptor'
PUBLIC	??_R2CEscDialog@@8				; CEscDialog::`RTTI Base Class Array'
PUBLIC	??_R1A@?0A@EA@CEscDialog@@8			; CEscDialog::`RTTI Base Class Descriptor at (0,-1,0,64)'
PUBLIC	??_7?$CArray@NN@@6B@				; CArray<double,double>::`vftable'
PUBLIC	??_7CDlgTrade@@6B@				; CDlgTrade::`vftable'
PUBLIC	??_C@_02JINPPBEP@No@				; `string'
PUBLIC	??_C@_02NFLNFON@NO@				; `string'
PUBLIC	??_C@_06PKEOGNHM@?F?w?A?v?$LM?G@		; `string'
PUBLIC	??_C@_08CBGNLCNF@?$LI?E?$LI?E?$LN?C?A?$KB@	; `string'
PUBLIC	??_C@_04CNAFDLNE@?$LA?$KB?$LA?$NN@		; `string'
PUBLIC	??_C@_04LPHCNNHO@?$LM?v?$LH?$KO@		; `string'
PUBLIC	??_C@_0O@HDDPIDH@?A?x?$MA?T?1?C?$LL?$LL?j?$LB?$NN?$LO?W@ ; `string'
PUBLIC	??_C@_08JEHIPFIE@?$LA?G?$LK?$LA?$LM?U?$MA?M@	; `string'
PUBLIC	??_C@_08CBHCGDML@?$LE?$KJ?$MA?$PL?$LM?U?$MA?M@	; `string'
PUBLIC	??_C@_0L@GLBIPOBI@?$LA?G?$LK?$LA?$LM?v?$MA?M?$LH?$PM@ ; `string'
PUBLIC	??_C@_0L@FJFCOKJ@?$LE?$KJ?$MA?$PL?$LM?v?$MA?M?$LH?$PM@ ; `string'
PUBLIC	??_C@_04GEFJINEE@?$CF?42f@			; `string'
PUBLIC	??_C@_04GLKKDPHH@?$CF2?4f@			; `string'
PUBLIC	??_C@_04OKGDLNCL@NONE@				; `string'
PUBLIC	??_C@_08BPEOHGCP@?$LI?E?$LM?v?A?x?$MA?T@	; `string'
PUBLIC	??_C@_08OJBKHDEB@?$LI?E?$LF?$LF?C?$LL?$LL?j@	; `string'
PUBLIC	??_C@_08DBKELDO@?$LI?E?$LF?$LF?A?x?$MA?T@	; `string'
PUBLIC	??_C@_08PFEOEOFA@?$LI?E?$LM?v?C?$LL?$LL?j@	; `string'
PUBLIC	??_C@_03JALODAI@?$CFld@				; `string'
PUBLIC	??_C@_06NBGJEFCJ@?$CF?42f?$CF?$CF@		; `string'
PUBLIC	??_C@_0EA@IAJPAJJA@?$FLPROJ?5?3?5IndexOptimizer?5?$FN?5CDlgTr@ ; `string'
PUBLIC	??_C@_03CHBJLALM@Num@				; `string'
PUBLIC	??_C@_08GCJNLIKG@Position@			; `string'
PUBLIC	??_C@_04FMEGDJGD@Date@				; `string'
PUBLIC	??_C@_05NFJELHBG@Price@				; `string'
PUBLIC	??_C@_06HKBMKICC@Amount@			; `string'
PUBLIC	??_C@_05HKHPEFOF@Entry@				; `string'
PUBLIC	??_C@_0M@HHGFFDDN@ProfitAccum@			; `string'
PUBLIC	??_C@_07KJPGDMCN@NuAccum@			; `string'
PUBLIC	??_C@_07LPBACJGH@GunRate@			; `string'
PUBLIC	??_C@_09MIDHKLJD@NuJukRate@			; `string'
PUBLIC	??_C@_0EII@IBMGMDDP@?$DMtr?5Align?$DN?$CCRight?$CC?$DO?$DMtd?5width?$DN?$CC39@ ; `string'
PUBLIC	??_C@_03EICDNICE@?$CF?4f@			; `string'
PUBLIC	??_C@_01CLKCMJKC@?5@				; `string'
PUBLIC	??_C@_06JGAACDGM@?$CCblue?$CC@			; `string'
PUBLIC	??_C@_05NIFAGJNM@?$CCFC1?$CC@			; `string'
PUBLIC	??_C@_05GDNPGLCD@?$CCred?$CC@			; `string'
PUBLIC	??_C@_06IDGDLJAM@?$CCFC?$CFd?$CC@		; `string'
PUBLIC	??_C@_01JOAMLHOP@?9@				; `string'
PUBLIC	??_C@_07CMGALDKB@?$CCblack?$CC@			; `string'
PUBLIC	??_C@_0L@PPJEJMEG@?$DM?$CB?9?9ADD?9?9?$DO@	; `string'
PUBLIC	??_C@_0BB@EDCKBMPI@?2IOTradeData?4htm@		; `string'
PUBLIC	??_C@_0BJ@EJHFGNNM@Do?5Not?5Create?5Html?5File?4@ ; `string'
PUBLIC	??_C@_0N@NNCCFHAL@?2IOTrade?4htm@		; `string'
PUBLIC	??_C@_0CH@KHGIOIFG@Do?5Not?5Create?5IndexOptimizer?4ht@ ; `string'
PUBLIC	??_C@_05BPGNDIAE@Black@				; `string'
PUBLIC	??_C@_05PMAELIEO@white@				; `string'
PUBLIC	??_C@_06ODLOODK@?$CGnbsp?$DL@			; `string'
PUBLIC	??_C@_01JLIPDDHJ@?3@				; `string'
PUBLIC	??_R4?$CArray@NN@@6B@				; CArray<double,double>::`RTTI Complete Object Locator'
PUBLIC	??_R0?AV?$CArray@NN@@@8				; CArray<double,double> `RTTI Type Descriptor'
PUBLIC	??_R3?$CArray@NN@@8				; CArray<double,double>::`RTTI Class Hierarchy Descriptor'
PUBLIC	??_R2?$CArray@NN@@8				; CArray<double,double>::`RTTI Base Class Array'
PUBLIC	??_R1A@?0A@EA@?$CArray@NN@@8			; CArray<double,double>::`RTTI Base Class Descriptor at (0,-1,0,64)'
PUBLIC	??_R4CDlgTrade@@6B@				; CDlgTrade::`RTTI Complete Object Locator'
PUBLIC	??_R0?AVCDlgTrade@@@8				; CDlgTrade `RTTI Type Descriptor'
PUBLIC	??_R3CDlgTrade@@8				; CDlgTrade::`RTTI Class Hierarchy Descriptor'
PUBLIC	??_R2CDlgTrade@@8				; CDlgTrade::`RTTI Base Class Array'
PUBLIC	??_R1A@?0A@EA@CDlgTrade@@8			; CDlgTrade::`RTTI Base Class Descriptor at (0,-1,0,64)'
PUBLIC	??_R1A@?0A@EA@CDlgInterface@@8			; CDlgInterface::`RTTI Base Class Descriptor at (0,-1,0,64)'
PUBLIC	??_R0?AVCDlgInterface@@@8			; CDlgInterface `RTTI Type Descriptor'
PUBLIC	??_R3CDlgInterface@@8				; CDlgInterface::`RTTI Class Hierarchy Descriptor'
PUBLIC	??_R2CDlgInterface@@8				; CDlgInterface::`RTTI Base Class Array'
PUBLIC	__real@3fe0000000000000
EXTRN	??_M@YGXPAXIIP6EX0@Z@Z:PROC			; `eh vector destructor iterator'
EXTRN	??3@YAXPAX@Z:PROC				; operator delete
EXTRN	?__global_delete@@YAXPAXI@Z:PROC		; __global_delete
EXTRN	??_U@YAPAXI@Z:PROC				; operator new[]
EXTRN	??_V@YAXPAX@Z:PROC				; operator delete[]
EXTRN	__imp___invalid_parameter_noinfo:PROC
EXTRN	__imp___errno:PROC
EXTRN	__imp__SetFileAttributesA@8:PROC
EXTRN	__imp__RegisterWindowMessageA@4:PROC
EXTRN	__imp__SendMessageA@16:PROC
EXTRN	__imp__GetKeyState@4:PROC
EXTRN	__imp__EnableWindow@8:PROC
EXTRN	__imp__ShowScrollBar@12:PROC
EXTRN	__imp__GetClientRect@8:PROC
EXTRN	__imp__GetParent@4:PROC
EXTRN	__imp__atof:PROC
EXTRN	?AfxThrowMemoryException@@YGXXZ:PROC		; AfxThrowMemoryException
EXTRN	?AfxThrowInvalidArgException@@YGXXZ:PROC	; AfxThrowInvalidArgException
EXTRN	?AfxThrowArchiveException@@YGXHPBD@Z:PROC	; AfxThrowArchiveException
EXTRN	?GetRuntimeClass@CObject@@UBEPAUCRuntimeClass@@XZ:PROC ; CObject::GetRuntimeClass
EXTRN	__imp_?Concatenate@?$CSimpleStringT@D$00@ATL@@KAXAAV12@PBDH1H@Z:PROC
EXTRN	__imp_??0?$CStringT@DV?$StrTraitMFC_DLL@DV?$ChTraitsCRT@D@ATL@@@@@ATL@@QAE@XZ:PROC
EXTRN	__imp_??0?$CStringT@DV?$StrTraitMFC_DLL@DV?$ChTraitsCRT@D@ATL@@@@@ATL@@QAE@PAUIAtlStringMgr@1@@Z:PROC
EXTRN	__imp_??0?$CStringT@DV?$StrTraitMFC_DLL@DV?$ChTraitsCRT@D@ATL@@@@@ATL@@QAE@PBD@Z:PROC
EXTRN	__imp_??1?$CStringT@DV?$StrTraitMFC_DLL@DV?$ChTraitsCRT@D@ATL@@@@@ATL@@QAE@XZ:PROC
EXTRN	__imp_??4?$CStringT@DV?$StrTraitMFC_DLL@DV?$ChTraitsCRT@D@ATL@@@@@ATL@@QAEAAV01@ABV01@@Z:PROC
EXTRN	__imp_??4?$CStringT@DV?$StrTraitMFC_DLL@DV?$ChTraitsCRT@D@ATL@@@@@ATL@@QAEAAV01@PBD@Z:PROC
EXTRN	__imp_??Y?$CStringT@DV?$StrTraitMFC_DLL@DV?$ChTraitsCRT@D@ATL@@@@@ATL@@QAEAAV01@ABV?$CSimpleStringT@D$00@1@@Z:PROC
EXTRN	__imp_?GetManager@?$CStringT@DV?$StrTraitMFC_DLL@DV?$ChTraitsCRT@D@ATL@@@@@ATL@@QBEPAUIAtlStringMgr@2@XZ:PROC
EXTRN	__imp_?Compare@?$CStringT@DV?$StrTraitMFC_DLL@DV?$ChTraitsCRT@D@ATL@@@@@ATL@@QBEHPBD@Z:PROC
EXTRN	__imp_?Insert@?$CStringT@DV?$StrTraitMFC_DLL@DV?$ChTraitsCRT@D@ATL@@@@@ATL@@QAEHHD@Z:PROC
EXTRN	__imp_?Insert@?$CStringT@DV?$StrTraitMFC_DLL@DV?$ChTraitsCRT@D@ATL@@@@@ATL@@QAEHHPBD@Z:PROC
EXTRN	__imp_?Replace@?$CStringT@DV?$StrTraitMFC_DLL@DV?$ChTraitsCRT@D@ATL@@@@@ATL@@QAEHPBD0@Z:PROC
EXTRN	__imp_?Find@?$CStringT@DV?$StrTraitMFC_DLL@DV?$ChTraitsCRT@D@ATL@@@@@ATL@@QBEHDH@Z:PROC
EXTRN	__imp_?Find@?$CStringT@DV?$StrTraitMFC_DLL@DV?$ChTraitsCRT@D@ATL@@@@@ATL@@QBEHPBDH@Z:PROC
EXTRN	__imp_?Format@?$CStringT@DV?$StrTraitMFC_DLL@DV?$ChTraitsCRT@D@ATL@@@@@ATL@@QAAXPBDZZ:PROC
EXTRN	??0CStdioFile@@QAE@XZ:PROC			; CStdioFile::CStdioFile
EXTRN	?WriteString@CStdioFile@@UAEXPBD@Z:PROC		; CStdioFile::WriteString
EXTRN	?ReadString@CStdioFile@@UAEHAAV?$CStringT@DV?$StrTraitMFC_DLL@DV?$ChTraitsCRT@D@ATL@@@@@ATL@@@Z:PROC ; CStdioFile::ReadString
EXTRN	??1CStdioFile@@UAE@XZ:PROC			; CStdioFile::~CStdioFile
EXTRN	?Open@CStdioFile@@UAEHPBDIPAVCFileException@@@Z:PROC ; CStdioFile::Open
EXTRN	?Close@CStdioFile@@UAEXXZ:PROC			; CStdioFile::Close
EXTRN	?Read@CArchive@@QAEIPAXI@Z:PROC			; CArchive::Read
EXTRN	?Write@CArchive@@QAEXPBXI@Z:PROC		; CArchive::Write
EXTRN	?ReadCount@CArchive@@QAEKXZ:PROC		; CArchive::ReadCount
EXTRN	?WriteCount@CArchive@@QAEXK@Z:PROC		; CArchive::WriteCount
EXTRN	??0CStringArray@@QAE@XZ:PROC			; CStringArray::CStringArray
EXTRN	?SetSize@CStringArray@@QAEXHH@Z:PROC		; CStringArray::SetSize
EXTRN	?SetAtGrow@CStringArray@@QAEXHABV?$CStringT@DV?$StrTraitMFC_DLL@DV?$ChTraitsCRT@D@ATL@@@@@ATL@@@Z:PROC ; CStringArray::SetAtGrow
EXTRN	??1CStringArray@@UAE@XZ:PROC			; CStringArray::~CStringArray
EXTRN	?IsInvokeAllowed@CCmdTarget@@UAEHJ@Z:PROC	; CCmdTarget::IsInvokeAllowed
EXTRN	?GetDispatchIID@CCmdTarget@@UAEHPAU_GUID@@@Z:PROC ; CCmdTarget::GetDispatchIID
EXTRN	?GetTypeInfoCount@CCmdTarget@@UAEIXZ:PROC	; CCmdTarget::GetTypeInfoCount
EXTRN	?GetTypeLibCache@CCmdTarget@@UAEPAVCTypeLibCache@@XZ:PROC ; CCmdTarget::GetTypeLibCache
EXTRN	?GetTypeLib@CCmdTarget@@UAEJKPAPAUITypeLib@@@Z:PROC ; CCmdTarget::GetTypeLib
EXTRN	?GetCommandMap@CCmdTarget@@MBEPBUAFX_OLECMDMAP@@XZ:PROC ; CCmdTarget::GetCommandMap
EXTRN	?GetDispatchMap@CCmdTarget@@MBEPBUAFX_DISPMAP@@XZ:PROC ; CCmdTarget::GetDispatchMap
EXTRN	?GetConnectionMap@CCmdTarget@@MBEPBUAFX_CONNECTIONMAP@@XZ:PROC ; CCmdTarget::GetConnectionMap
EXTRN	?GetEventSinkMap@CCmdTarget@@MBEPBUAFX_EVENTSINKMAP@@XZ:PROC ; CCmdTarget::GetEventSinkMap
EXTRN	?OnCreateAggregates@CCmdTarget@@UAEHXZ:PROC	; CCmdTarget::OnCreateAggregates
EXTRN	?GetInterfaceHook@CCmdTarget@@UAEPAUIUnknown@@PBX@Z:PROC ; CCmdTarget::GetInterfaceHook
EXTRN	?GetExtraConnectionPoints@CCmdTarget@@MAEHPAVCPtrArray@@@Z:PROC ; CCmdTarget::GetExtraConnectionPoints
EXTRN	?GetConnectionHook@CCmdTarget@@MAEPAUIConnectionPoint@@ABU_GUID@@@Z:PROC ; CCmdTarget::GetConnectionHook
EXTRN	?FromHandle@CWnd@@SGPAV1@PAUHWND__@@@Z:PROC	; CWnd::FromHandle
EXTRN	?PreSubclassWindow@CWnd@@UAEXXZ:PROC		; CWnd::PreSubclassWindow
EXTRN	?Create@CWnd@@UAEHPBD0KABUtagRECT@@PAV1@IPAUCCreateContext@@@Z:PROC ; CWnd::Create
EXTRN	?CreateEx@CWnd@@UAEHKPBD0KHHHHPAUHWND__@@PAUHMENU__@@PAX@Z:PROC ; CWnd::CreateEx
EXTRN	?CreateEx@CWnd@@UAEHKPBD0KABUtagRECT@@PAV1@IPAX@Z:PROC ; CWnd::CreateEx
EXTRN	?DestroyWindow@CWnd@@UAEHXZ:PROC		; CWnd::DestroyWindow
EXTRN	?PreCreateWindow@CWnd@@UAEHAAUtagCREATESTRUCTA@@@Z:PROC ; CWnd::PreCreateWindow
EXTRN	?CalcWindowRect@CWnd@@UAEXPAUtagRECT@@I@Z:PROC	; CWnd::CalcWindowRect
EXTRN	?GetMenu@CWnd@@UBEPAVCMenu@@XZ:PROC		; CWnd::GetMenu
EXTRN	?SetMenu@CWnd@@UAEHPAVCMenu@@@Z:PROC		; CWnd::SetMenu
EXTRN	?OnToolHitTest@CWnd@@UBEHVCPoint@@PAUtagTOOLINFOA@@@Z:PROC ; CWnd::OnToolHitTest
EXTRN	?GetScrollBarCtrl@CWnd@@UBEPAVCScrollBar@@H@Z:PROC ; CWnd::GetScrollBarCtrl
EXTRN	?WinHelpA@CWnd@@UAEXKI@Z:PROC			; CWnd::WinHelpA
EXTRN	?HtmlHelpA@CWnd@@UAEXKI@Z:PROC			; CWnd::HtmlHelpA
EXTRN	?WinHelpInternal@CWnd@@UAEXKI@Z:PROC		; CWnd::WinHelpInternal
EXTRN	?ContinueModal@CWnd@@UAEHXZ:PROC		; CWnd::ContinueModal
EXTRN	?EndModalLoop@CWnd@@UAEXH@Z:PROC		; CWnd::EndModalLoop
EXTRN	?OnDrawIconicThumbnailOrLivePreview@CWnd@@UAEXAAVCDC@@VCRect@@VCSize@@HAAH@Z:PROC ; CWnd::OnDrawIconicThumbnailOrLivePreview
EXTRN	?GetInterfaceMap@CWnd@@MBEPBUAFX_INTERFACEMAP@@XZ:PROC ; CWnd::GetInterfaceMap
EXTRN	?EnsureStdObj@CWnd@@UAEJXZ:PROC			; CWnd::EnsureStdObj
EXTRN	?get_accParent@CWnd@@UAEJPAPAUIDispatch@@@Z:PROC ; CWnd::get_accParent
EXTRN	?get_accChildCount@CWnd@@UAEJPAJ@Z:PROC		; CWnd::get_accChildCount
EXTRN	?get_accChild@CWnd@@UAEJUtagVARIANT@@PAPAUIDispatch@@@Z:PROC ; CWnd::get_accChild
EXTRN	?get_accName@CWnd@@UAEJUtagVARIANT@@PAPA_W@Z:PROC ; CWnd::get_accName
EXTRN	?get_accValue@CWnd@@UAEJUtagVARIANT@@PAPA_W@Z:PROC ; CWnd::get_accValue
EXTRN	?get_accDescription@CWnd@@UAEJUtagVARIANT@@PAPA_W@Z:PROC ; CWnd::get_accDescription
EXTRN	?get_accRole@CWnd@@UAEJUtagVARIANT@@PAU2@@Z:PROC ; CWnd::get_accRole
EXTRN	?get_accState@CWnd@@UAEJUtagVARIANT@@PAU2@@Z:PROC ; CWnd::get_accState
EXTRN	?get_accHelp@CWnd@@UAEJUtagVARIANT@@PAPA_W@Z:PROC ; CWnd::get_accHelp
EXTRN	?get_accHelpTopic@CWnd@@UAEJPAPA_WUtagVARIANT@@PAJ@Z:PROC ; CWnd::get_accHelpTopic
EXTRN	?get_accKeyboardShortcut@CWnd@@UAEJUtagVARIANT@@PAPA_W@Z:PROC ; CWnd::get_accKeyboardShortcut
EXTRN	?get_accFocus@CWnd@@UAEJPAUtagVARIANT@@@Z:PROC	; CWnd::get_accFocus
EXTRN	?get_accSelection@CWnd@@UAEJPAUtagVARIANT@@@Z:PROC ; CWnd::get_accSelection
EXTRN	?get_accDefaultAction@CWnd@@UAEJUtagVARIANT@@PAPA_W@Z:PROC ; CWnd::get_accDefaultAction
EXTRN	?accSelect@CWnd@@UAEJJUtagVARIANT@@@Z:PROC	; CWnd::accSelect
EXTRN	?accLocation@CWnd@@UAEJPAJ000UtagVARIANT@@@Z:PROC ; CWnd::accLocation
EXTRN	?accNavigate@CWnd@@UAEJJUtagVARIANT@@PAU2@@Z:PROC ; CWnd::accNavigate
EXTRN	?accHitTest@CWnd@@UAEJJJPAUtagVARIANT@@@Z:PROC	; CWnd::accHitTest
EXTRN	?accDoDefaultAction@CWnd@@UAEJUtagVARIANT@@@Z:PROC ; CWnd::accDoDefaultAction
EXTRN	?put_accName@CWnd@@UAEJUtagVARIANT@@PA_W@Z:PROC	; CWnd::put_accName
EXTRN	?put_accValue@CWnd@@UAEJUtagVARIANT@@PA_W@Z:PROC ; CWnd::put_accValue
EXTRN	?SetProxy@CWnd@@UAEJPAUIAccessibleProxy@@@Z:PROC ; CWnd::SetProxy
EXTRN	?CreateAccessibleProxy@CWnd@@UAEJIJPAJ@Z:PROC	; CWnd::CreateAccessibleProxy
EXTRN	?OnCommand@CWnd@@MAEHIJ@Z:PROC			; CWnd::OnCommand
EXTRN	?OnNotify@CWnd@@MAEHIJPAJ@Z:PROC		; CWnd::OnNotify
EXTRN	?OnDestroy@CWnd@@IAEXXZ:PROC			; CWnd::OnDestroy
EXTRN	?GetSuperWndProcAddr@CWnd@@MAEPAP6GJPAUHWND__@@IIJ@ZXZ:PROC ; CWnd::GetSuperWndProcAddr
EXTRN	?OnAmbientProperty@CWnd@@UAEHPAVCOleControlSite@@JPAUtagVARIANT@@@Z:PROC ; CWnd::OnAmbientProperty
EXTRN	?WindowProc@CWnd@@MAEJIIJ@Z:PROC		; CWnd::WindowProc
EXTRN	?OnWndMsg@CWnd@@MAEHIIJPAJ@Z:PROC		; CWnd::OnWndMsg
EXTRN	?DefWindowProcA@CWnd@@MAEJIIJ@Z:PROC		; CWnd::DefWindowProcA
EXTRN	?PostNcDestroy@CWnd@@MAEXXZ:PROC		; CWnd::PostNcDestroy
EXTRN	?OnChildNotify@CWnd@@MAEHIIJPAJ@Z:PROC		; CWnd::OnChildNotify
EXTRN	?OnTouchInputs@CWnd@@MAEHIPAUtagTOUCHINPUT@@@Z:PROC ; CWnd::OnTouchInputs
EXTRN	?OnTouchInput@CWnd@@MAEHVCPoint@@HHPAUtagTOUCHINPUT@@@Z:PROC ; CWnd::OnTouchInput
EXTRN	?GetGestureStatus@CWnd@@MAEKVCPoint@@@Z:PROC	; CWnd::GetGestureStatus
EXTRN	?OnGestureZoom@CWnd@@MAEHVCPoint@@J@Z:PROC	; CWnd::OnGestureZoom
EXTRN	?OnGesturePan@CWnd@@MAEHVCPoint@@0@Z:PROC	; CWnd::OnGesturePan
EXTRN	?OnGestureRotate@CWnd@@MAEHVCPoint@@N@Z:PROC	; CWnd::OnGestureRotate
EXTRN	?OnGestureTwoFingerTap@CWnd@@MAEHVCPoint@@@Z:PROC ; CWnd::OnGestureTwoFingerTap
EXTRN	?OnGesturePressAndTap@CWnd@@MAEHVCPoint@@J@Z:PROC ; CWnd::OnGesturePressAndTap
EXTRN	?ResizeDynamicLayout@CWnd@@MAEXXZ:PROC		; CWnd::ResizeDynamicLayout
EXTRN	?IsFrameWnd@CWnd@@UBEHXZ:PROC			; CWnd::IsFrameWnd
EXTRN	?OnFinalRelease@CWnd@@UAEXXZ:PROC		; CWnd::OnFinalRelease
EXTRN	?CreateControlContainer@CWnd@@MAEHPAPAVCOleControlContainer@@@Z:PROC ; CWnd::CreateControlContainer
EXTRN	?CreateControlSite@CWnd@@MAEHPAVCOleControlContainer@@PAPAVCOleControlSite@@IABU_GUID@@@Z:PROC ; CWnd::CreateControlSite
EXTRN	?GetRuntimeClass@CDialog@@UBEPAUCRuntimeClass@@XZ:PROC ; CDialog::GetRuntimeClass
EXTRN	?Create@CDialog@@UAEHPBDPAVCWnd@@@Z:PROC	; CDialog::Create
EXTRN	?CreateIndirect@CDialog@@UAEHPBUDLGTEMPLATE@@PAVCWnd@@PAX@Z:PROC ; CDialog::CreateIndirect
EXTRN	?CreateIndirect@CDialog@@UAEHPAXPAVCWnd@@@Z:PROC ; CDialog::CreateIndirect
EXTRN	?DoModal@CDialog@@UAEHXZ:PROC			; CDialog::DoModal
EXTRN	?OnInitDialog@CDialog@@UAEHXZ:PROC		; CDialog::OnInitDialog
EXTRN	?OnSetFont@CDialog@@UAEXPAVCFont@@@Z:PROC	; CDialog::OnSetFont
EXTRN	?OnOK@CDialog@@MAEXXZ:PROC			; CDialog::OnOK
EXTRN	?OnCancel@CDialog@@MAEXXZ:PROC			; CDialog::OnCancel
EXTRN	??1CDialog@@UAE@XZ:PROC				; CDialog::~CDialog
EXTRN	?PreTranslateMessage@CDialog@@UAEHPAUtagMSG@@@Z:PROC ; CDialog::PreTranslateMessage
EXTRN	?OnCmdMsg@CDialog@@UAEHIHPAXPAUAFX_CMDHANDLERINFO@@@Z:PROC ; CDialog::OnCmdMsg
EXTRN	?CheckAutoCenter@CDialog@@UAEHXZ:PROC		; CDialog::CheckAutoCenter
EXTRN	?SetOccDialogInfo@CDialog@@MAEHPAU_AFX_OCC_DIALOG_INFO@@@Z:PROC ; CDialog::SetOccDialogInfo
EXTRN	?GetOccDialogInfo@CDialog@@MAEPAU_AFX_OCC_DIALOG_INFO@@XZ:PROC ; CDialog::GetOccDialogInfo
EXTRN	?PreInitDialog@CDialog@@MAEXXZ:PROC		; CDialog::PreInitDialog
EXTRN	?AfxMessageBox@@YGHPBDII@Z:PROC			; AfxMessageBox
EXTRN	??0CGridCtrl@@QAE@HHHH@Z:PROC			; CGridCtrl::CGridCtrl
EXTRN	?Create@CGridCtrl@@QAEHABUtagRECT@@PAVCWnd@@IK@Z:PROC ; CGridCtrl::Create
EXTRN	?SetRowCount@CGridCtrl@@QAEHH@Z:PROC		; CGridCtrl::SetRowCount
EXTRN	?SetColumnCount@CGridCtrl@@QAEHH@Z:PROC		; CGridCtrl::SetColumnCount
EXTRN	?SetColumnWidth@CGridCtrl@@QAEHHH@Z:PROC	; CGridCtrl::SetColumnWidth
EXTRN	?SetItemText@CGridCtrl@@QAEHHHPBDK@Z:PROC	; CGridCtrl::SetItemText
EXTRN	?SetItemText@CGridCtrl@@QAEHHHPBD@Z:PROC	; CGridCtrl::SetItemText
EXTRN	?SetItemBkColour@CGridCtrl@@QAEHHHK@Z:PROC	; CGridCtrl::SetItemBkColour
EXTRN	?SetItemFgColour@CGridCtrl@@QAEHHHK@Z:PROC	; CGridCtrl::SetItemFgColour
EXTRN	?InsertRow@CGridCtrl@@QAEHPBDH@Z:PROC		; CGridCtrl::InsertRow
EXTRN	??1CGridCtrl@@UAE@XZ:PROC			; CGridCtrl::~CGridCtrl
EXTRN	?GetComma@CDlgResult@@QAE?AV?$CStringT@DV?$StrTraitMFC_DLL@DV?$ChTraitsCRT@D@ATL@@@@@ATL@@PBD@Z:PROC ; CDlgResult::GetComma
EXTRN	??0CDlgInterface@@QAE@IPAVCWnd@@@Z:PROC		; CDlgInterface::CDlgInterface
EXTRN	?DoDataExchange@CDlgInterface@@MAEXPAVCDataExchange@@@Z:PROC ; CDlgInterface::DoDataExchange
EXTRN	?GetThisMessageMap@CDlgInterface@@KGPBUAFX_MSGMAP@@XZ:PROC ; CDlgInterface::GetThisMessageMap
EXTRN	?ShowData1Chart@CTabSoonikChart@@QAEXJ@Z:PROC	; CTabSoonikChart::ShowData1Chart
EXTRN	?ShowData2Chart@CTabSoonikChart@@QAEXAAVCStringArray@@H@Z:PROC ; CTabSoonikChart::ShowData2Chart
EXTRN	?PrepareShow@CTabSoonikChart@@QAEXH@Z:PROC	; CTabSoonikChart::PrepareShow
EXTRN	?ShowData1Chart@CTabSonikChart@@QAEXJ@Z:PROC	; CTabSonikChart::ShowData1Chart
EXTRN	??_E?$CArray@NN@@UAEPAXI@Z:PROC			; CArray<double,double>::`vector deleting destructor'
EXTRN	?SetSTMessageType@CDlgOptimizer@@QAEXF@Z:PROC	; CDlgOptimizer::SetSTMessageType
EXTRN	??_ECDlgTrade@@UAEPAXI@Z:PROC			; CDlgTrade::`vector deleting destructor'
EXTRN	@__security_check_cookie@4:PROC
EXTRN	___CxxFrameHandler3:PROC
EXTRN	_memcpy:PROC
EXTRN	_memset:PROC
EXTRN	??_7type_info@@6B@:QWORD			; type_info::`vftable'
EXTRN	___security_cookie:DWORD
EXTRN	__fltused:DWORD
_BSS	SEGMENT
?RMSG_STTREE_ITEMCLICK@@3IB DD 01H DUP (?)		; RMSG_STTREE_ITEMCLICK
?RMSG_STTREE_ITEMDBLCLK@@3IB DD 01H DUP (?)		; RMSG_STTREE_ITEMDBLCLK
_BSS	ENDS
CRT$XCU	SEGMENT
?RMSG_STTREE_ITEMCLICK$initializer$@@3P6AXXZA DD FLAT:??__ERMSG_STTREE_ITEMCLICK@@YAXXZ ; RMSG_STTREE_ITEMCLICK$initializer$
CRT$XCU	ENDS
;	COMDAT __real@3fe0000000000000
CONST	SEGMENT
__real@3fe0000000000000 DQ 03fe0000000000000r	; 0.5
CONST	ENDS
;	COMDAT ??_R2CDlgInterface@@8
rdata$r	SEGMENT
??_R2CDlgInterface@@8 DD FLAT:??_R1A@?0A@EA@CDlgInterface@@8 ; CDlgInterface::`RTTI Base Class Array'
	DD	FLAT:??_R1A@?0A@EA@CEscDialog@@8
	DD	FLAT:??_R1A@?0A@EA@CDialog@@8
	DD	FLAT:??_R1A@?0A@EA@CWnd@@8
	DD	FLAT:??_R1A@?0A@EA@CCmdTarget@@8
	DD	FLAT:??_R1A@?0A@EA@CObject@@8
rdata$r	ENDS
;	COMDAT ??_R3CDlgInterface@@8
rdata$r	SEGMENT
??_R3CDlgInterface@@8 DD 00H				; CDlgInterface::`RTTI Class Hierarchy Descriptor'
	DD	00H
	DD	06H
	DD	FLAT:??_R2CDlgInterface@@8
rdata$r	ENDS
;	COMDAT ??_R0?AVCDlgInterface@@@8
data$rs	SEGMENT
??_R0?AVCDlgInterface@@@8 DD FLAT:??_7type_info@@6B@	; CDlgInterface `RTTI Type Descriptor'
	DD	00H
	DB	'.?AVCDlgInterface@@', 00H
data$rs	ENDS
;	COMDAT ??_R1A@?0A@EA@CDlgInterface@@8
rdata$r	SEGMENT
??_R1A@?0A@EA@CDlgInterface@@8 DD FLAT:??_R0?AVCDlgInterface@@@8 ; CDlgInterface::`RTTI Base Class Descriptor at (0,-1,0,64)'
	DD	05H
	DD	00H
	DD	0ffffffffH
	DD	00H
	DD	040H
	DD	FLAT:??_R3CDlgInterface@@8
rdata$r	ENDS
;	COMDAT ??_R1A@?0A@EA@CDlgTrade@@8
rdata$r	SEGMENT
??_R1A@?0A@EA@CDlgTrade@@8 DD FLAT:??_R0?AVCDlgTrade@@@8 ; CDlgTrade::`RTTI Base Class Descriptor at (0,-1,0,64)'
	DD	06H
	DD	00H
	DD	0ffffffffH
	DD	00H
	DD	040H
	DD	FLAT:??_R3CDlgTrade@@8
rdata$r	ENDS
;	COMDAT ??_R2CDlgTrade@@8
rdata$r	SEGMENT
??_R2CDlgTrade@@8 DD FLAT:??_R1A@?0A@EA@CDlgTrade@@8	; CDlgTrade::`RTTI Base Class Array'
	DD	FLAT:??_R1A@?0A@EA@CDlgInterface@@8
	DD	FLAT:??_R1A@?0A@EA@CEscDialog@@8
	DD	FLAT:??_R1A@?0A@EA@CDialog@@8
	DD	FLAT:??_R1A@?0A@EA@CWnd@@8
	DD	FLAT:??_R1A@?0A@EA@CCmdTarget@@8
	DD	FLAT:??_R1A@?0A@EA@CObject@@8
rdata$r	ENDS
;	COMDAT ??_R3CDlgTrade@@8
rdata$r	SEGMENT
??_R3CDlgTrade@@8 DD 00H				; CDlgTrade::`RTTI Class Hierarchy Descriptor'
	DD	00H
	DD	07H
	DD	FLAT:??_R2CDlgTrade@@8
rdata$r	ENDS
;	COMDAT ??_R0?AVCDlgTrade@@@8
data$rs	SEGMENT
??_R0?AVCDlgTrade@@@8 DD FLAT:??_7type_info@@6B@	; CDlgTrade `RTTI Type Descriptor'
	DD	00H
	DB	'.?AVCDlgTrade@@', 00H
data$rs	ENDS
;	COMDAT ??_R4CDlgTrade@@6B@
rdata$r	SEGMENT
??_R4CDlgTrade@@6B@ DD 00H				; CDlgTrade::`RTTI Complete Object Locator'
	DD	00H
	DD	00H
	DD	FLAT:??_R0?AVCDlgTrade@@@8
	DD	FLAT:??_R3CDlgTrade@@8
rdata$r	ENDS
;	COMDAT ??_R1A@?0A@EA@?$CArray@NN@@8
rdata$r	SEGMENT
??_R1A@?0A@EA@?$CArray@NN@@8 DD FLAT:??_R0?AV?$CArray@NN@@@8 ; CArray<double,double>::`RTTI Base Class Descriptor at (0,-1,0,64)'
	DD	01H
	DD	00H
	DD	0ffffffffH
	DD	00H
	DD	040H
	DD	FLAT:??_R3?$CArray@NN@@8
rdata$r	ENDS
;	COMDAT ??_R2?$CArray@NN@@8
rdata$r	SEGMENT
??_R2?$CArray@NN@@8 DD FLAT:??_R1A@?0A@EA@?$CArray@NN@@8 ; CArray<double,double>::`RTTI Base Class Array'
	DD	FLAT:??_R1A@?0A@EA@CObject@@8
rdata$r	ENDS
;	COMDAT ??_R3?$CArray@NN@@8
rdata$r	SEGMENT
??_R3?$CArray@NN@@8 DD 00H				; CArray<double,double>::`RTTI Class Hierarchy Descriptor'
	DD	00H
	DD	02H
	DD	FLAT:??_R2?$CArray@NN@@8
rdata$r	ENDS
;	COMDAT ??_R0?AV?$CArray@NN@@@8
data$rs	SEGMENT
??_R0?AV?$CArray@NN@@@8 DD FLAT:??_7type_info@@6B@	; CArray<double,double> `RTTI Type Descriptor'
	DD	00H
	DB	'.?AV?$CArray@NN@@', 00H
data$rs	ENDS
;	COMDAT ??_R4?$CArray@NN@@6B@
rdata$r	SEGMENT
??_R4?$CArray@NN@@6B@ DD 00H				; CArray<double,double>::`RTTI Complete Object Locator'
	DD	00H
	DD	00H
	DD	FLAT:??_R0?AV?$CArray@NN@@@8
	DD	FLAT:??_R3?$CArray@NN@@8
rdata$r	ENDS
;	COMDAT ??_C@_01JLIPDDHJ@?3@
CONST	SEGMENT
??_C@_01JLIPDDHJ@?3@ DB ':', 00H			; `string'
CONST	ENDS
;	COMDAT ??_C@_06ODLOODK@?$CGnbsp?$DL@
CONST	SEGMENT
??_C@_06ODLOODK@?$CGnbsp?$DL@ DB '&nbsp;', 00H		; `string'
CONST	ENDS
;	COMDAT ??_C@_05PMAELIEO@white@
CONST	SEGMENT
??_C@_05PMAELIEO@white@ DB 'white', 00H			; `string'
CONST	ENDS
;	COMDAT ??_C@_05BPGNDIAE@Black@
CONST	SEGMENT
??_C@_05BPGNDIAE@Black@ DB 'Black', 00H			; `string'
CONST	ENDS
;	COMDAT ??_C@_0CH@KHGIOIFG@Do?5Not?5Create?5IndexOptimizer?4ht@
CONST	SEGMENT
??_C@_0CH@KHGIOIFG@Do?5Not?5Create?5IndexOptimizer?4ht@ DB 'Do Not Create'
	DB	' IndexOptimizer.htm File.', 00H		; `string'
CONST	ENDS
;	COMDAT ??_C@_0N@NNCCFHAL@?2IOTrade?4htm@
CONST	SEGMENT
??_C@_0N@NNCCFHAL@?2IOTrade?4htm@ DB '\IOTrade.htm', 00H ; `string'
CONST	ENDS
;	COMDAT ??_C@_0BJ@EJHFGNNM@Do?5Not?5Create?5Html?5File?4@
CONST	SEGMENT
??_C@_0BJ@EJHFGNNM@Do?5Not?5Create?5Html?5File?4@ DB 'Do Not Create Html '
	DB	'File.', 00H					; `string'
CONST	ENDS
;	COMDAT ??_C@_0BB@EDCKBMPI@?2IOTradeData?4htm@
CONST	SEGMENT
??_C@_0BB@EDCKBMPI@?2IOTradeData?4htm@ DB '\IOTradeData.htm', 00H ; `string'
CONST	ENDS
;	COMDAT ??_C@_0L@PPJEJMEG@?$DM?$CB?9?9ADD?9?9?$DO@
CONST	SEGMENT
??_C@_0L@PPJEJMEG@?$DM?$CB?9?9ADD?9?9?$DO@ DB '<!--ADD-->', 00H ; `string'
CONST	ENDS
;	COMDAT ??_C@_07CMGALDKB@?$CCblack?$CC@
CONST	SEGMENT
??_C@_07CMGALDKB@?$CCblack?$CC@ DB '"black"', 00H	; `string'
CONST	ENDS
;	COMDAT ??_C@_01JOAMLHOP@?9@
CONST	SEGMENT
??_C@_01JOAMLHOP@?9@ DB '-', 00H			; `string'
CONST	ENDS
;	COMDAT ??_C@_06IDGDLJAM@?$CCFC?$CFd?$CC@
CONST	SEGMENT
??_C@_06IDGDLJAM@?$CCFC?$CFd?$CC@ DB '"FC%d"', 00H	; `string'
CONST	ENDS
;	COMDAT ??_C@_05GDNPGLCD@?$CCred?$CC@
CONST	SEGMENT
??_C@_05GDNPGLCD@?$CCred?$CC@ DB '"red"', 00H		; `string'
CONST	ENDS
;	COMDAT ??_C@_05NIFAGJNM@?$CCFC1?$CC@
CONST	SEGMENT
??_C@_05NIFAGJNM@?$CCFC1?$CC@ DB '"FC1"', 00H		; `string'
CONST	ENDS
;	COMDAT ??_C@_06JGAACDGM@?$CCblue?$CC@
CONST	SEGMENT
??_C@_06JGAACDGM@?$CCblue?$CC@ DB '"blue"', 00H		; `string'
CONST	ENDS
;	COMDAT ??_C@_01CLKCMJKC@?5@
CONST	SEGMENT
??_C@_01CLKCMJKC@?5@ DB ' ', 00H			; `string'
CONST	ENDS
;	COMDAT ??_C@_03EICDNICE@?$CF?4f@
CONST	SEGMENT
??_C@_03EICDNICE@?$CF?4f@ DB '%.f', 00H			; `string'
CONST	ENDS
;	COMDAT ??_C@_0EII@IBMGMDDP@?$DMtr?5Align?$DN?$CCRight?$CC?$DO?$DMtd?5width?$DN?$CC39@
CONST	SEGMENT
??_C@_0EII@IBMGMDDP@?$DMtr?5Align?$DN?$CCRight?$CC?$DO?$DMtd?5width?$DN?$CC39@ DB '<'
	DB	'tr Align="Right"><td width="39" height="18" ><font face="', 0b1H
	DB	0bcH, 0b8H, 0b2H, '" color="black"><span style="font-size:10pt'
	DB	';">Num</span></font></td>', 0aH, '<td width="71" height="18">'
	DB	'<font face="', 0b1H, 0bcH, 0b8H, 0b2H, '" color="FC1"><span s'
	DB	'tyle="font-size:9pt;">Position</span></font></td>', 0aH, '<td'
	DB	' width="70" height="18"><font face="', 0b1H, 0bcH, 0b8H, 0b2H
	DB	'" color="FC1"><span style="font-size:9pt;">Date</span></font>'
	DB	'</td>', 0aH, '<td width="70" height="18"><font face="', 0b1H, 0bcH
	DB	0b8H, 0b2H, '" color="black"><span style="font-size:9pt;">Pric'
	DB	'e</span></font></td>', 0aH, '<td width="35" height="18"><font'
	DB	' face="', 0b1H, 0bcH, 0b8H, 0b2H, '" color="black"><span styl'
	DB	'e="font-size:9pt;">Amount</span></font></td>', 0aH, '<td widt'
	DB	'h="73" height="18"><font face="', 0b1H, 0bcH, 0b8H, 0b2H, '" '
	DB	'color="black"><span style="font-size:9pt;">Entry</span></font'
	DB	'></td>', 0aH, '<td width="73" height="18"><font face="', 0b1H
	DB	0bcH, 0b8H, 0b2H, '" color="FC6"><span style="font-size:9pt;">'
	DB	'ProfitAccum</span></font></td>', 0aH, '<td width="78" height='
	DB	'"18"><font face="', 0b1H, 0bcH, 0b8H, 0b2H, '" color="FC7"><s'
	DB	'pan style="font-size:9pt;">NuAccum</span></font></td>', 0aH, '<'
	DB	'td width="73" height="18"><font face="', 0b1H, 0bcH, 0b8H, 0b2H
	DB	'" color="FC8"><span style="font-size:9pt;">GunRate</span></fo'
	DB	'nt></td>', 0aH, '<td width="78" height="18"><font face="', 0b1H
	DB	0bcH, 0b8H, 0b2H, '" color="FC9"><span style="font-size:9pt;">'
	DB	'NuJukRate</span></font></td>', 0aH, '</tr>', 0aH, 00H ; `string'
CONST	ENDS
;	COMDAT ??_C@_09MIDHKLJD@NuJukRate@
CONST	SEGMENT
??_C@_09MIDHKLJD@NuJukRate@ DB 'NuJukRate', 00H		; `string'
CONST	ENDS
;	COMDAT ??_C@_07LPBACJGH@GunRate@
CONST	SEGMENT
??_C@_07LPBACJGH@GunRate@ DB 'GunRate', 00H		; `string'
CONST	ENDS
;	COMDAT ??_C@_07KJPGDMCN@NuAccum@
CONST	SEGMENT
??_C@_07KJPGDMCN@NuAccum@ DB 'NuAccum', 00H		; `string'
CONST	ENDS
;	COMDAT ??_C@_0M@HHGFFDDN@ProfitAccum@
CONST	SEGMENT
??_C@_0M@HHGFFDDN@ProfitAccum@ DB 'ProfitAccum', 00H	; `string'
CONST	ENDS
;	COMDAT ??_C@_05HKHPEFOF@Entry@
CONST	SEGMENT
??_C@_05HKHPEFOF@Entry@ DB 'Entry', 00H			; `string'
CONST	ENDS
;	COMDAT ??_C@_06HKBMKICC@Amount@
CONST	SEGMENT
??_C@_06HKBMKICC@Amount@ DB 'Amount', 00H		; `string'
CONST	ENDS
;	COMDAT ??_C@_05NFJELHBG@Price@
CONST	SEGMENT
??_C@_05NFJELHBG@Price@ DB 'Price', 00H			; `string'
CONST	ENDS
;	COMDAT ??_C@_04FMEGDJGD@Date@
CONST	SEGMENT
??_C@_04FMEGDJGD@Date@ DB 'Date', 00H			; `string'
CONST	ENDS
;	COMDAT ??_C@_08GCJNLIKG@Position@
CONST	SEGMENT
??_C@_08GCJNLIKG@Position@ DB 'Position', 00H		; `string'
CONST	ENDS
;	COMDAT ??_C@_03CHBJLALM@Num@
CONST	SEGMENT
??_C@_03CHBJLALM@Num@ DB 'Num', 00H			; `string'
CONST	ENDS
;	COMDAT ??_C@_0EA@IAJPAJJA@?$FLPROJ?5?3?5IndexOptimizer?5?$FN?5CDlgTr@
CONST	SEGMENT
??_C@_0EA@IAJPAJJA@?$FLPROJ?5?3?5IndexOptimizer?5?$FN?5CDlgTr@ DB '[PROJ '
	DB	': IndexOptimizer ] CDlgTrade::GetSTMessageData() ', 0b7H, 0e7H
	DB	0c6H, 0beH, 0c8H, 0aeH, 0c0H, 0ceH, 00H	; `string'
CONST	ENDS
;	COMDAT ??_C@_06NBGJEFCJ@?$CF?42f?$CF?$CF@
CONST	SEGMENT
??_C@_06NBGJEFCJ@?$CF?42f?$CF?$CF@ DB '%.2f%%', 00H	; `string'
CONST	ENDS
;	COMDAT ??_C@_03JALODAI@?$CFld@
CONST	SEGMENT
??_C@_03JALODAI@?$CFld@ DB '%ld', 00H			; `string'
CONST	ENDS
;	COMDAT ??_C@_08PFEOEOFA@?$LI?E?$LM?v?C?$LL?$LL?j@
CONST	SEGMENT
??_C@_08PFEOEOFA@?$LI?E?$LM?v?C?$LL?$LL?j@ DB 0b8H, 0c5H, 0bcH, 0f6H, 0c3H
	DB	0bbH, 0bbH, 0eaH, 00H			; `string'
CONST	ENDS
;	COMDAT ??_C@_08DBKELDO@?$LI?E?$LF?$LF?A?x?$MA?T@
CONST	SEGMENT
??_C@_08DBKELDO@?$LI?E?$LF?$LF?A?x?$MA?T@ DB 0b8H, 0c5H, 0b5H, 0b5H, 0c1H
	DB	0f8H, 0c0H, 0d4H, 00H			; `string'
CONST	ENDS
;	COMDAT ??_C@_08OJBKHDEB@?$LI?E?$LF?$LF?C?$LL?$LL?j@
CONST	SEGMENT
??_C@_08OJBKHDEB@?$LI?E?$LF?$LF?C?$LL?$LL?j@ DB 0b8H, 0c5H, 0b5H, 0b5H, 0c3H
	DB	0bbH, 0bbH, 0eaH, 00H			; `string'
CONST	ENDS
;	COMDAT ??_C@_08BPEOHGCP@?$LI?E?$LM?v?A?x?$MA?T@
CONST	SEGMENT
??_C@_08BPEOHGCP@?$LI?E?$LM?v?A?x?$MA?T@ DB 0b8H, 0c5H, 0bcH, 0f6H, 0c1H, 0f8H
	DB	0c0H, 0d4H, 00H				; `string'
CONST	ENDS
;	COMDAT ??_C@_04OKGDLNCL@NONE@
CONST	SEGMENT
??_C@_04OKGDLNCL@NONE@ DB 'NONE', 00H			; `string'
CONST	ENDS
;	COMDAT ??_C@_04GLKKDPHH@?$CF2?4f@
CONST	SEGMENT
??_C@_04GLKKDPHH@?$CF2?4f@ DB '%2.f', 00H		; `string'
CONST	ENDS
;	COMDAT ??_C@_04GEFJINEE@?$CF?42f@
CONST	SEGMENT
??_C@_04GEFJINEE@?$CF?42f@ DB '%.2f', 00H		; `string'
CONST	ENDS
;	COMDAT ??_C@_0L@FJFCOKJ@?$LE?$KJ?$MA?$PL?$LM?v?$MA?M?$LH?$PM@
CONST	SEGMENT
??_C@_0L@FJFCOKJ@?$LE?$KJ?$MA?$PL?$LM?v?$MA?M?$LH?$PM@ DB 0b4H, 0a9H, 0c0H
	DB	0fbH, 0bcH, 0f6H, 0c0H, 0cdH, 0b7H, 0fcH, 00H ; `string'
CONST	ENDS
;	COMDAT ??_C@_0L@GLBIPOBI@?$LA?G?$LK?$LA?$LM?v?$MA?M?$LH?$PM@
CONST	SEGMENT
??_C@_0L@GLBIPOBI@?$LA?G?$LK?$LA?$LM?v?$MA?M?$LH?$PM@ DB 0b0H, 0c7H, 0baH
	DB	0b0H, 0bcH, 0f6H, 0c0H, 0cdH, 0b7H, 0fcH, 00H ; `string'
CONST	ENDS
;	COMDAT ??_C@_08CBHCGDML@?$LE?$KJ?$MA?$PL?$LM?U?$MA?M@
CONST	SEGMENT
??_C@_08CBHCGDML@?$LE?$KJ?$MA?$PL?$LM?U?$MA?M@ DB 0b4H, 0a9H, 0c0H, 0fbH, 0bcH
	DB	0d5H, 0c0H, 0cdH, 00H			; `string'
CONST	ENDS
;	COMDAT ??_C@_08JEHIPFIE@?$LA?G?$LK?$LA?$LM?U?$MA?M@
CONST	SEGMENT
??_C@_08JEHIPFIE@?$LA?G?$LK?$LA?$LM?U?$MA?M@ DB 0b0H, 0c7H, 0baH, 0b0H, 0bcH
	DB	0d5H, 0c0H, 0cdH, 00H			; `string'
CONST	ENDS
;	COMDAT ??_C@_0O@HDDPIDH@?A?x?$MA?T?1?C?$LL?$LL?j?$LB?$NN?$LO?W@
CONST	SEGMENT
??_C@_0O@HDDPIDH@?A?x?$MA?T?1?C?$LL?$LL?j?$LB?$NN?$LO?W@ DB 0c1H, 0f8H, 0c0H
	DB	0d4H, '/', 0c3H, 0bbH, 0bbH, 0eaH, 0b1H, 0ddH, 0beH, 0d7H, 00H ; `string'
CONST	ENDS
;	COMDAT ??_C@_04LPHCNNHO@?$LM?v?$LH?$KO@
CONST	SEGMENT
??_C@_04LPHCNNHO@?$LM?v?$LH?$KO@ DB 0bcH, 0f6H, 0b7H, 0aeH, 00H ; `string'
CONST	ENDS
;	COMDAT ??_C@_04CNAFDLNE@?$LA?$KB?$LA?$NN@
CONST	SEGMENT
??_C@_04CNAFDLNE@?$LA?$KB?$LA?$NN@ DB 0b0H, 0a1H, 0b0H, 0ddH, 00H ; `string'
CONST	ENDS
;	COMDAT ??_C@_08CBGNLCNF@?$LI?E?$LI?E?$LN?C?A?$KB@
CONST	SEGMENT
??_C@_08CBGNLCNF@?$LI?E?$LI?E?$LN?C?A?$KB@ DB 0b8H, 0c5H, 0b8H, 0c5H, 0bdH
	DB	0c3H, 0c1H, 0a1H, 00H			; `string'
CONST	ENDS
;	COMDAT ??_C@_06PKEOGNHM@?F?w?A?v?$LM?G@
CONST	SEGMENT
??_C@_06PKEOGNHM@?F?w?A?v?$LM?G@ DB 0c6H, 0f7H, 0c1H, 0f6H, 0bcH, 0c7H, 00H ; `string'
CONST	ENDS
;	COMDAT ??_C@_02NFLNFON@NO@
CONST	SEGMENT
??_C@_02NFLNFON@NO@ DB 'NO', 00H			; `string'
CONST	ENDS
;	COMDAT ??_C@_02JINPPBEP@No@
CONST	SEGMENT
??_C@_02JINPPBEP@No@ DB 'No', 00H			; `string'
CONST	ENDS
;	COMDAT ?messageMap@?1??GetThisMessageMap@CDlgTrade@@KGPBUAFX_MSGMAP@@XZ@4U3@B
CONST	SEGMENT
?messageMap@?1??GetThisMessageMap@CDlgTrade@@KGPBUAFX_MSGMAP@@XZ@4U3@B DD FLAT:?GetThisMessageMap@CDlgInterface@@KGPBUAFX_MSGMAP@@XZ ; `CDlgTrade::GetThisMessageMap'::`2'::messageMap
	DD	FLAT:?_messageEntries@?1??GetThisMessageMap@CDlgTrade@@KGPBUAFX_MSGMAP@@XZ@4QBUAFX_MSGMAP_ENTRY@@B
CONST	ENDS
;	COMDAT ?_messageEntries@?1??GetThisMessageMap@CDlgTrade@@KGPBUAFX_MSGMAP@@XZ@4QBUAFX_MSGMAP_ENTRY@@B
CONST	SEGMENT
?_messageEntries@?1??GetThisMessageMap@CDlgTrade@@KGPBUAFX_MSGMAP@@XZ@4QBUAFX_MSGMAP_ENTRY@@B DD 02H ; `CDlgTrade::GetThisMessageMap'::`2'::_messageEntries
	DD	00H
	DD	00H
	DD	00H
	DD	013H
	DD	FLAT:?OnDestroy@CDlgTrade@@IAEXXZ
	DD	00H
	DD	00H
	DD	00H
	DD	00H
	DD	00H
	DD	00H
CONST	ENDS
;	COMDAT ??_7CDlgTrade@@6B@
CONST	SEGMENT
??_7CDlgTrade@@6B@ DD FLAT:??_R4CDlgTrade@@6B@		; CDlgTrade::`vftable'
	DD	FLAT:?GetRuntimeClass@CDialog@@UBEPAUCRuntimeClass@@XZ
	DD	FLAT:??_ECDlgTrade@@UAEPAXI@Z
	DD	FLAT:?Serialize@CObject@@UAEXAAVCArchive@@@Z
	DD	FLAT:?AssertValid@CObject@@UBEXXZ
	DD	FLAT:?Dump@CObject@@UBEXAAVCDumpContext@@@Z
	DD	FLAT:?OnCmdMsg@CDialog@@UAEHIHPAXPAUAFX_CMDHANDLERINFO@@@Z
	DD	FLAT:?OnFinalRelease@CWnd@@UAEXXZ
	DD	FLAT:?IsInvokeAllowed@CCmdTarget@@UAEHJ@Z
	DD	FLAT:?GetDispatchIID@CCmdTarget@@UAEHPAU_GUID@@@Z
	DD	FLAT:?GetTypeInfoCount@CCmdTarget@@UAEIXZ
	DD	FLAT:?GetTypeLibCache@CCmdTarget@@UAEPAVCTypeLibCache@@XZ
	DD	FLAT:?GetTypeLib@CCmdTarget@@UAEJKPAPAUITypeLib@@@Z
	DD	FLAT:?GetMessageMap@CDlgTrade@@MBEPBUAFX_MSGMAP@@XZ
	DD	FLAT:?GetCommandMap@CCmdTarget@@MBEPBUAFX_OLECMDMAP@@XZ
	DD	FLAT:?GetDispatchMap@CCmdTarget@@MBEPBUAFX_DISPMAP@@XZ
	DD	FLAT:?GetConnectionMap@CCmdTarget@@MBEPBUAFX_CONNECTIONMAP@@XZ
	DD	FLAT:?GetInterfaceMap@CWnd@@MBEPBUAFX_INTERFACEMAP@@XZ
	DD	FLAT:?GetEventSinkMap@CCmdTarget@@MBEPBUAFX_EVENTSINKMAP@@XZ
	DD	FLAT:?OnCreateAggregates@CCmdTarget@@UAEHXZ
	DD	FLAT:?GetInterfaceHook@CCmdTarget@@UAEPAUIUnknown@@PBX@Z
	DD	FLAT:?GetExtraConnectionPoints@CCmdTarget@@MAEHPAVCPtrArray@@@Z
	DD	FLAT:?GetConnectionHook@CCmdTarget@@MAEPAUIConnectionPoint@@ABU_GUID@@@Z
	DD	FLAT:?PreSubclassWindow@CWnd@@UAEXXZ
	DD	FLAT:?Create@CWnd@@UAEHPBD0KABUtagRECT@@PAV1@IPAUCCreateContext@@@Z
	DD	FLAT:?CreateEx@CWnd@@UAEHKPBD0KABUtagRECT@@PAV1@IPAX@Z
	DD	FLAT:?CreateEx@CWnd@@UAEHKPBD0KHHHHPAUHWND__@@PAUHMENU__@@PAX@Z
	DD	FLAT:?DestroyWindow@CWnd@@UAEHXZ
	DD	FLAT:?PreCreateWindow@CWnd@@UAEHAAUtagCREATESTRUCTA@@@Z
	DD	FLAT:?CalcWindowRect@CWnd@@UAEXPAUtagRECT@@I@Z
	DD	FLAT:?GetMenu@CWnd@@UBEPAVCMenu@@XZ
	DD	FLAT:?SetMenu@CWnd@@UAEHPAVCMenu@@@Z
	DD	FLAT:?OnToolHitTest@CWnd@@UBEHVCPoint@@PAUtagTOOLINFOA@@@Z
	DD	FLAT:?GetScrollBarCtrl@CWnd@@UBEPAVCScrollBar@@H@Z
	DD	FLAT:?WinHelpA@CWnd@@UAEXKI@Z
	DD	FLAT:?HtmlHelpA@CWnd@@UAEXKI@Z
	DD	FLAT:?WinHelpInternal@CWnd@@UAEXKI@Z
	DD	FLAT:?ContinueModal@CWnd@@UAEHXZ
	DD	FLAT:?EndModalLoop@CWnd@@UAEXH@Z
	DD	FLAT:?OnDrawIconicThumbnailOrLivePreview@CWnd@@UAEXAAVCDC@@VCRect@@VCSize@@HAAH@Z
	DD	FLAT:?EnsureStdObj@CWnd@@UAEJXZ
	DD	FLAT:?get_accParent@CWnd@@UAEJPAPAUIDispatch@@@Z
	DD	FLAT:?get_accChildCount@CWnd@@UAEJPAJ@Z
	DD	FLAT:?get_accChild@CWnd@@UAEJUtagVARIANT@@PAPAUIDispatch@@@Z
	DD	FLAT:?get_accName@CWnd@@UAEJUtagVARIANT@@PAPA_W@Z
	DD	FLAT:?get_accValue@CWnd@@UAEJUtagVARIANT@@PAPA_W@Z
	DD	FLAT:?get_accDescription@CWnd@@UAEJUtagVARIANT@@PAPA_W@Z
	DD	FLAT:?get_accRole@CWnd@@UAEJUtagVARIANT@@PAU2@@Z
	DD	FLAT:?get_accState@CWnd@@UAEJUtagVARIANT@@PAU2@@Z
	DD	FLAT:?get_accHelp@CWnd@@UAEJUtagVARIANT@@PAPA_W@Z
	DD	FLAT:?get_accHelpTopic@CWnd@@UAEJPAPA_WUtagVARIANT@@PAJ@Z
	DD	FLAT:?get_accKeyboardShortcut@CWnd@@UAEJUtagVARIANT@@PAPA_W@Z
	DD	FLAT:?get_accFocus@CWnd@@UAEJPAUtagVARIANT@@@Z
	DD	FLAT:?get_accSelection@CWnd@@UAEJPAUtagVARIANT@@@Z
	DD	FLAT:?get_accDefaultAction@CWnd@@UAEJUtagVARIANT@@PAPA_W@Z
	DD	FLAT:?accSelect@CWnd@@UAEJJUtagVARIANT@@@Z
	DD	FLAT:?accLocation@CWnd@@UAEJPAJ000UtagVARIANT@@@Z
	DD	FLAT:?accNavigate@CWnd@@UAEJJUtagVARIANT@@PAU2@@Z
	DD	FLAT:?accHitTest@CWnd@@UAEJJJPAUtagVARIANT@@@Z
	DD	FLAT:?accDoDefaultAction@CWnd@@UAEJUtagVARIANT@@@Z
	DD	FLAT:?put_accName@CWnd@@UAEJUtagVARIANT@@PA_W@Z
	DD	FLAT:?put_accValue@CWnd@@UAEJUtagVARIANT@@PA_W@Z
	DD	FLAT:?SetProxy@CWnd@@UAEJPAUIAccessibleProxy@@@Z
	DD	FLAT:?CreateAccessibleProxy@CWnd@@UAEJIJPAJ@Z
	DD	FLAT:?OnCommand@CWnd@@MAEHIJ@Z
	DD	FLAT:?OnNotify@CWnd@@MAEHIJPAJ@Z
	DD	FLAT:?GetSuperWndProcAddr@CWnd@@MAEPAP6GJPAUHWND__@@IIJ@ZXZ
	DD	FLAT:?DoDataExchange@CDlgTrade@@MAEXPAVCDataExchange@@@Z
	DD	FLAT:?BeginModalState@CWnd@@UAEXXZ
	DD	FLAT:?EndModalState@CWnd@@UAEXXZ
	DD	FLAT:?PreTranslateMessage@CEscDialog@@MAEHPAUtagMSG@@@Z
	DD	FLAT:?OnAmbientProperty@CWnd@@UAEHPAVCOleControlSite@@JPAUtagVARIANT@@@Z
	DD	FLAT:?WindowProc@CWnd@@MAEJIIJ@Z
	DD	FLAT:?OnWndMsg@CWnd@@MAEHIIJPAJ@Z
	DD	FLAT:?DefWindowProcA@CWnd@@MAEJIIJ@Z
	DD	FLAT:?PostNcDestroy@CWnd@@MAEXXZ
	DD	FLAT:?OnChildNotify@CWnd@@MAEHIIJPAJ@Z
	DD	FLAT:?OnTouchInputs@CWnd@@MAEHIPAUtagTOUCHINPUT@@@Z
	DD	FLAT:?OnTouchInput@CWnd@@MAEHVCPoint@@HHPAUtagTOUCHINPUT@@@Z
	DD	FLAT:?GetGestureStatus@CWnd@@MAEKVCPoint@@@Z
	DD	FLAT:?OnGestureZoom@CWnd@@MAEHVCPoint@@J@Z
	DD	FLAT:?OnGesturePan@CWnd@@MAEHVCPoint@@0@Z
	DD	FLAT:?OnGestureRotate@CWnd@@MAEHVCPoint@@N@Z
	DD	FLAT:?OnGestureTwoFingerTap@CWnd@@MAEHVCPoint@@@Z
	DD	FLAT:?OnGesturePressAndTap@CWnd@@MAEHVCPoint@@J@Z
	DD	FLAT:?ResizeDynamicLayout@CWnd@@MAEXXZ
	DD	FLAT:?CheckAutoCenter@CDialog@@UAEHXZ
	DD	FLAT:?IsFrameWnd@CWnd@@UBEHXZ
	DD	FLAT:?CreateControlContainer@CWnd@@MAEHPAPAVCOleControlContainer@@@Z
	DD	FLAT:?CreateControlSite@CWnd@@MAEHPAVCOleControlContainer@@PAPAVCOleControlSite@@IABU_GUID@@@Z
	DD	FLAT:?SetOccDialogInfo@CDialog@@MAEHPAU_AFX_OCC_DIALOG_INFO@@@Z
	DD	FLAT:?GetOccDialogInfo@CDialog@@MAEPAU_AFX_OCC_DIALOG_INFO@@XZ
	DD	FLAT:?Create@CDialog@@UAEHIPAVCWnd@@@Z
	DD	FLAT:?Create@CDialog@@UAEHPBDPAVCWnd@@@Z
	DD	FLAT:?CreateIndirect@CDialog@@UAEHPAXPAVCWnd@@@Z
	DD	FLAT:?CreateIndirect@CDialog@@UAEHPBUDLGTEMPLATE@@PAVCWnd@@PAX@Z
	DD	FLAT:?DoModal@CDialog@@UAEHXZ
	DD	FLAT:?OnInitDialog@CDlgTrade@@MAEHXZ
	DD	FLAT:?OnSetFont@CDialog@@UAEXPAVCFont@@@Z
	DD	FLAT:?OnOK@CDialog@@MAEXXZ
	DD	FLAT:?OnCancel@CDialog@@MAEXXZ
	DD	FLAT:?PreInitDialog@CDialog@@MAEXXZ
	DD	FLAT:?UpdateDlg@CDlgInterface@@UAEXXZ
	DD	FLAT:?SetChartFocus@CDlgInterface@@UAEXH@Z
	DD	FLAT:?GuganBtnUpdate@CDlgInterface@@UAEXXZ
CONST	ENDS
;	COMDAT ??_7?$CArray@NN@@6B@
CONST	SEGMENT
??_7?$CArray@NN@@6B@ DD FLAT:??_R4?$CArray@NN@@6B@	; CArray<double,double>::`vftable'
	DD	FLAT:?GetRuntimeClass@CObject@@UBEPAUCRuntimeClass@@XZ
	DD	FLAT:??_E?$CArray@NN@@UAEPAXI@Z
	DD	FLAT:?Serialize@?$CArray@NN@@UAEXAAVCArchive@@@Z
	DD	FLAT:?AssertValid@CObject@@UBEXXZ
	DD	FLAT:?Dump@CObject@@UBEXAAVCDumpContext@@@Z
CONST	ENDS
;	COMDAT ??_R1A@?0A@EA@CEscDialog@@8
rdata$r	SEGMENT
??_R1A@?0A@EA@CEscDialog@@8 DD FLAT:??_R0?AVCEscDialog@@@8 ; CEscDialog::`RTTI Base Class Descriptor at (0,-1,0,64)'
	DD	04H
	DD	00H
	DD	0ffffffffH
	DD	00H
	DD	040H
	DD	FLAT:??_R3CEscDialog@@8
rdata$r	ENDS
;	COMDAT ??_R2CEscDialog@@8
rdata$r	SEGMENT
??_R2CEscDialog@@8 DD FLAT:??_R1A@?0A@EA@CEscDialog@@8	; CEscDialog::`RTTI Base Class Array'
	DD	FLAT:??_R1A@?0A@EA@CDialog@@8
	DD	FLAT:??_R1A@?0A@EA@CWnd@@8
	DD	FLAT:??_R1A@?0A@EA@CCmdTarget@@8
	DD	FLAT:??_R1A@?0A@EA@CObject@@8
rdata$r	ENDS
;	COMDAT ??_R3CEscDialog@@8
rdata$r	SEGMENT
??_R3CEscDialog@@8 DD 00H				; CEscDialog::`RTTI Class Hierarchy Descriptor'
	DD	00H
	DD	05H
	DD	FLAT:??_R2CEscDialog@@8
rdata$r	ENDS
;	COMDAT ??_R0?AVCEscDialog@@@8
data$rs	SEGMENT
??_R0?AVCEscDialog@@@8 DD FLAT:??_7type_info@@6B@	; CEscDialog `RTTI Type Descriptor'
	DD	00H
	DB	'.?AVCEscDialog@@', 00H
data$rs	ENDS
;	COMDAT ??_R2CDialog@@8
rdata$r	SEGMENT
??_R2CDialog@@8 DD FLAT:??_R1A@?0A@EA@CDialog@@8	; CDialog::`RTTI Base Class Array'
	DD	FLAT:??_R1A@?0A@EA@CWnd@@8
	DD	FLAT:??_R1A@?0A@EA@CCmdTarget@@8
	DD	FLAT:??_R1A@?0A@EA@CObject@@8
rdata$r	ENDS
;	COMDAT ??_R3CDialog@@8
rdata$r	SEGMENT
??_R3CDialog@@8 DD 00H					; CDialog::`RTTI Class Hierarchy Descriptor'
	DD	00H
	DD	04H
	DD	FLAT:??_R2CDialog@@8
rdata$r	ENDS
;	COMDAT ??_R0?AVCDialog@@@8
data$rs	SEGMENT
??_R0?AVCDialog@@@8 DD FLAT:??_7type_info@@6B@		; CDialog `RTTI Type Descriptor'
	DD	00H
	DB	'.?AVCDialog@@', 00H
data$rs	ENDS
;	COMDAT ??_R1A@?0A@EA@CDialog@@8
rdata$r	SEGMENT
??_R1A@?0A@EA@CDialog@@8 DD FLAT:??_R0?AVCDialog@@@8	; CDialog::`RTTI Base Class Descriptor at (0,-1,0,64)'
	DD	03H
	DD	00H
	DD	0ffffffffH
	DD	00H
	DD	040H
	DD	FLAT:??_R3CDialog@@8
rdata$r	ENDS
;	COMDAT ??_R2CCmdTarget@@8
rdata$r	SEGMENT
??_R2CCmdTarget@@8 DD FLAT:??_R1A@?0A@EA@CCmdTarget@@8	; CCmdTarget::`RTTI Base Class Array'
	DD	FLAT:??_R1A@?0A@EA@CObject@@8
rdata$r	ENDS
;	COMDAT ??_R3CCmdTarget@@8
rdata$r	SEGMENT
??_R3CCmdTarget@@8 DD 00H				; CCmdTarget::`RTTI Class Hierarchy Descriptor'
	DD	00H
	DD	02H
	DD	FLAT:??_R2CCmdTarget@@8
rdata$r	ENDS
;	COMDAT ??_R0?AVCCmdTarget@@@8
data$rs	SEGMENT
??_R0?AVCCmdTarget@@@8 DD FLAT:??_7type_info@@6B@	; CCmdTarget `RTTI Type Descriptor'
	DD	00H
	DB	'.?AVCCmdTarget@@', 00H
data$rs	ENDS
;	COMDAT ??_R1A@?0A@EA@CCmdTarget@@8
rdata$r	SEGMENT
??_R1A@?0A@EA@CCmdTarget@@8 DD FLAT:??_R0?AVCCmdTarget@@@8 ; CCmdTarget::`RTTI Base Class Descriptor at (0,-1,0,64)'
	DD	01H
	DD	00H
	DD	0ffffffffH
	DD	00H
	DD	040H
	DD	FLAT:??_R3CCmdTarget@@8
rdata$r	ENDS
;	COMDAT ??_R2CWnd@@8
rdata$r	SEGMENT
??_R2CWnd@@8 DD	FLAT:??_R1A@?0A@EA@CWnd@@8		; CWnd::`RTTI Base Class Array'
	DD	FLAT:??_R1A@?0A@EA@CCmdTarget@@8
	DD	FLAT:??_R1A@?0A@EA@CObject@@8
rdata$r	ENDS
;	COMDAT ??_R3CWnd@@8
rdata$r	SEGMENT
??_R3CWnd@@8 DD	00H					; CWnd::`RTTI Class Hierarchy Descriptor'
	DD	00H
	DD	03H
	DD	FLAT:??_R2CWnd@@8
rdata$r	ENDS
;	COMDAT ??_R0?AVCWnd@@@8
data$rs	SEGMENT
??_R0?AVCWnd@@@8 DD FLAT:??_7type_info@@6B@		; CWnd `RTTI Type Descriptor'
	DD	00H
	DB	'.?AVCWnd@@', 00H
data$rs	ENDS
;	COMDAT ??_R1A@?0A@EA@CWnd@@8
rdata$r	SEGMENT
??_R1A@?0A@EA@CWnd@@8 DD FLAT:??_R0?AVCWnd@@@8		; CWnd::`RTTI Base Class Descriptor at (0,-1,0,64)'
	DD	02H
	DD	00H
	DD	0ffffffffH
	DD	00H
	DD	040H
	DD	FLAT:??_R3CWnd@@8
rdata$r	ENDS
;	COMDAT ??_R1A@?0A@EA@CObject@@8
rdata$r	SEGMENT
??_R1A@?0A@EA@CObject@@8 DD FLAT:??_R0?AVCObject@@@8	; CObject::`RTTI Base Class Descriptor at (0,-1,0,64)'
	DD	00H
	DD	00H
	DD	0ffffffffH
	DD	00H
	DD	040H
	DD	FLAT:??_R3CObject@@8
rdata$r	ENDS
;	COMDAT ??_R2CObject@@8
rdata$r	SEGMENT
??_R2CObject@@8 DD FLAT:??_R1A@?0A@EA@CObject@@8	; CObject::`RTTI Base Class Array'
rdata$r	ENDS
;	COMDAT ??_R3CObject@@8
rdata$r	SEGMENT
??_R3CObject@@8 DD 00H					; CObject::`RTTI Class Hierarchy Descriptor'
	DD	00H
	DD	01H
	DD	FLAT:??_R2CObject@@8
rdata$r	ENDS
;	COMDAT ??_R0?AVCObject@@@8
data$rs	SEGMENT
??_R0?AVCObject@@@8 DD FLAT:??_7type_info@@6B@		; CObject `RTTI Type Descriptor'
	DD	00H
	DB	'.?AVCObject@@', 00H
data$rs	ENDS
;	COMDAT ??_C@_00CNPNBAHC@@
CONST	SEGMENT
??_C@_00CNPNBAHC@@ DB 00H				; `string'
CONST	ENDS
;	COMDAT ??_C@_02DPKJAMEF@?$CFd@
CONST	SEGMENT
??_C@_02DPKJAMEF@?$CFd@ DB '%d', 00H			; `string'
CONST	ENDS
;	COMDAT xdata$x
xdata$x	SEGMENT
__ehfuncinfo$?SetDataSpreadGrid@CDlgTrade@@QAEXXZ DD 019930522H
	DD	0cH
	DD	FLAT:__unwindtable$?SetDataSpreadGrid@CDlgTrade@@QAEXXZ
	DD	2 DUP(00H)
	DD	2 DUP(00H)
	DD	00H
	DD	01H
__unwindtable$?SetDataSpreadGrid@CDlgTrade@@QAEXXZ DD 0ffffffffH
	DD	FLAT:__unwindfunclet$?SetDataSpreadGrid@CDlgTrade@@QAEXXZ$0
	DD	00H
	DD	FLAT:__unwindfunclet$?SetDataSpreadGrid@CDlgTrade@@QAEXXZ$1
	DD	01H
	DD	FLAT:__unwindfunclet$?SetDataSpreadGrid@CDlgTrade@@QAEXXZ$2
	DD	02H
	DD	FLAT:__unwindfunclet$?SetDataSpreadGrid@CDlgTrade@@QAEXXZ$3
	DD	03H
	DD	FLAT:__unwindfunclet$?SetDataSpreadGrid@CDlgTrade@@QAEXXZ$4
	DD	04H
	DD	FLAT:__unwindfunclet$?SetDataSpreadGrid@CDlgTrade@@QAEXXZ$5
	DD	04H
	DD	FLAT:__unwindfunclet$?SetDataSpreadGrid@CDlgTrade@@QAEXXZ$6
	DD	04H
	DD	FLAT:__unwindfunclet$?SetDataSpreadGrid@CDlgTrade@@QAEXXZ$7
	DD	04H
	DD	FLAT:__unwindfunclet$?SetDataSpreadGrid@CDlgTrade@@QAEXXZ$8
	DD	04H
	DD	FLAT:__unwindfunclet$?SetDataSpreadGrid@CDlgTrade@@QAEXXZ$9
	DD	04H
	DD	FLAT:__unwindfunclet$?SetDataSpreadGrid@CDlgTrade@@QAEXXZ$10
	DD	04H
	DD	FLAT:__unwindfunclet$?SetDataSpreadGrid@CDlgTrade@@QAEXXZ$11
xdata$x	ENDS
;	COMDAT xdata$x
xdata$x	SEGMENT
__ehfuncinfo$?GetSTMessageData@CDlgTrade@@QAEXXZ DD 019930522H
	DD	01fH
	DD	FLAT:__unwindtable$?GetSTMessageData@CDlgTrade@@QAEXXZ
	DD	2 DUP(00H)
	DD	2 DUP(00H)
	DD	00H
	DD	01H
__unwindtable$?GetSTMessageData@CDlgTrade@@QAEXXZ DD 0ffffffffH
	DD	FLAT:__unwindfunclet$?GetSTMessageData@CDlgTrade@@QAEXXZ$0
	DD	00H
	DD	FLAT:__unwindfunclet$?GetSTMessageData@CDlgTrade@@QAEXXZ$1
	DD	01H
	DD	FLAT:__unwindfunclet$?GetSTMessageData@CDlgTrade@@QAEXXZ$2
	DD	02H
	DD	FLAT:__unwindfunclet$?GetSTMessageData@CDlgTrade@@QAEXXZ$3
	DD	03H
	DD	FLAT:__unwindfunclet$?GetSTMessageData@CDlgTrade@@QAEXXZ$4
	DD	04H
	DD	FLAT:__unwindfunclet$?GetSTMessageData@CDlgTrade@@QAEXXZ$5
	DD	05H
	DD	FLAT:__unwindfunclet$?GetSTMessageData@CDlgTrade@@QAEXXZ$6
	DD	06H
	DD	FLAT:__unwindfunclet$?GetSTMessageData@CDlgTrade@@QAEXXZ$7
	DD	07H
	DD	FLAT:__unwindfunclet$?GetSTMessageData@CDlgTrade@@QAEXXZ$8
	DD	08H
	DD	FLAT:__unwindfunclet$?GetSTMessageData@CDlgTrade@@QAEXXZ$9
	DD	09H
	DD	FLAT:__unwindfunclet$?GetSTMessageData@CDlgTrade@@QAEXXZ$10
	DD	0aH
	DD	FLAT:__unwindfunclet$?GetSTMessageData@CDlgTrade@@QAEXXZ$11
	DD	0bH
	DD	FLAT:__unwindfunclet$?GetSTMessageData@CDlgTrade@@QAEXXZ$12
	DD	0cH
	DD	FLAT:__unwindfunclet$?GetSTMessageData@CDlgTrade@@QAEXXZ$13
	DD	0dH
	DD	FLAT:__unwindfunclet$?GetSTMessageData@CDlgTrade@@QAEXXZ$14
	DD	05H
	DD	FLAT:__unwindfunclet$?GetSTMessageData@CDlgTrade@@QAEXXZ$16
	DD	0fH
	DD	FLAT:__unwindfunclet$?GetSTMessageData@CDlgTrade@@QAEXXZ$17
	DD	010H
	DD	FLAT:__unwindfunclet$?GetSTMessageData@CDlgTrade@@QAEXXZ$18
	DD	011H
	DD	FLAT:__unwindfunclet$?GetSTMessageData@CDlgTrade@@QAEXXZ$19
	DD	012H
	DD	FLAT:__unwindfunclet$?GetSTMessageData@CDlgTrade@@QAEXXZ$20
	DD	012H
	DD	FLAT:__unwindfunclet$?GetSTMessageData@CDlgTrade@@QAEXXZ$21
	DD	012H
	DD	FLAT:__unwindfunclet$?GetSTMessageData@CDlgTrade@@QAEXXZ$22
	DD	012H
	DD	FLAT:__unwindfunclet$?GetSTMessageData@CDlgTrade@@QAEXXZ$23
	DD	012H
	DD	FLAT:__unwindfunclet$?GetSTMessageData@CDlgTrade@@QAEXXZ$24
	DD	012H
	DD	FLAT:__unwindfunclet$?GetSTMessageData@CDlgTrade@@QAEXXZ$25
	DD	012H
	DD	FLAT:__unwindfunclet$?GetSTMessageData@CDlgTrade@@QAEXXZ$26
	DD	012H
	DD	FLAT:__unwindfunclet$?GetSTMessageData@CDlgTrade@@QAEXXZ$27
	DD	01aH
	DD	FLAT:__unwindfunclet$?GetSTMessageData@CDlgTrade@@QAEXXZ$28
	DD	012H
	DD	FLAT:__unwindfunclet$?GetSTMessageData@CDlgTrade@@QAEXXZ$29
	DD	01cH
	DD	FLAT:__unwindfunclet$?GetSTMessageData@CDlgTrade@@QAEXXZ$33
	DD	01cH
	DD	FLAT:__unwindfunclet$?GetSTMessageData@CDlgTrade@@QAEXXZ$34
xdata$x	ENDS
;	COMDAT xdata$x
xdata$x	SEGMENT
__unwindtable$?SetDataDir@CDlgTrade@@QAEXV?$CStringT@DV?$StrTraitMFC_DLL@DV?$ChTraitsCRT@D@ATL@@@@@ATL@@@Z DD 0ffffffffH
	DD	FLAT:__unwindfunclet$?SetDataDir@CDlgTrade@@QAEXV?$CStringT@DV?$StrTraitMFC_DLL@DV?$ChTraitsCRT@D@ATL@@@@@ATL@@@Z$0
__ehfuncinfo$?SetDataDir@CDlgTrade@@QAEXV?$CStringT@DV?$StrTraitMFC_DLL@DV?$ChTraitsCRT@D@ATL@@@@@ATL@@@Z DD 019930522H
	DD	01H
	DD	FLAT:__unwindtable$?SetDataDir@CDlgTrade@@QAEXV?$CStringT@DV?$StrTraitMFC_DLL@DV?$ChTraitsCRT@D@ATL@@@@@ATL@@@Z
	DD	2 DUP(00H)
	DD	2 DUP(00H)
	DD	00H
	DD	01H
xdata$x	ENDS
;	COMDAT xdata$x
xdata$x	SEGMENT
__unwindtable$?SelectRunData@CDlgTrade@@QAEXV?$CStringT@DV?$StrTraitMFC_DLL@DV?$ChTraitsCRT@D@ATL@@@@@ATL@@@Z DD 0ffffffffH
	DD	FLAT:__unwindfunclet$?SelectRunData@CDlgTrade@@QAEXV?$CStringT@DV?$StrTraitMFC_DLL@DV?$ChTraitsCRT@D@ATL@@@@@ATL@@@Z$0
__ehfuncinfo$?SelectRunData@CDlgTrade@@QAEXV?$CStringT@DV?$StrTraitMFC_DLL@DV?$ChTraitsCRT@D@ATL@@@@@ATL@@@Z DD 019930522H
	DD	01H
	DD	FLAT:__unwindtable$?SelectRunData@CDlgTrade@@QAEXV?$CStringT@DV?$StrTraitMFC_DLL@DV?$ChTraitsCRT@D@ATL@@@@@ATL@@@Z
	DD	2 DUP(00H)
	DD	2 DUP(00H)
	DD	00H
	DD	01H
xdata$x	ENDS
;	COMDAT xdata$x
xdata$x	SEGMENT
__unwindtable$?InitHtml@CDlgTrade@@QAEXXZ DD 0ffffffffH
	DD	FLAT:__unwindfunclet$?InitHtml@CDlgTrade@@QAEXXZ$0
	DD	00H
	DD	FLAT:__unwindfunclet$?InitHtml@CDlgTrade@@QAEXXZ$1
	DD	01H
	DD	FLAT:__unwindfunclet$?InitHtml@CDlgTrade@@QAEXXZ$3
__ehfuncinfo$?InitHtml@CDlgTrade@@QAEXXZ DD 019930522H
	DD	03H
	DD	FLAT:__unwindtable$?InitHtml@CDlgTrade@@QAEXXZ
	DD	2 DUP(00H)
	DD	2 DUP(00H)
	DD	00H
	DD	01H
xdata$x	ENDS
;	COMDAT xdata$x
xdata$x	SEGMENT
__unwindtable$??0CDlgTrade@@QAE@PAVCWnd@@@Z DD 0ffffffffH
	DD	FLAT:__unwindfunclet$??0CDlgTrade@@QAE@PAVCWnd@@@Z$0
	DD	00H
	DD	FLAT:__unwindfunclet$??0CDlgTrade@@QAE@PAVCWnd@@@Z$1
	DD	01H
	DD	FLAT:__unwindfunclet$??0CDlgTrade@@QAE@PAVCWnd@@@Z$2
__ehfuncinfo$??0CDlgTrade@@QAE@PAVCWnd@@@Z DD 019930522H
	DD	03H
	DD	FLAT:__unwindtable$??0CDlgTrade@@QAE@PAVCWnd@@@Z
	DD	2 DUP(00H)
	DD	2 DUP(00H)
	DD	00H
	DD	01H
xdata$x	ENDS
;	COMDAT xdata$x
xdata$x	SEGMENT
__unwindtable$??HATL@@YA?AV?$CStringT@DV?$StrTraitMFC_DLL@DV?$ChTraitsCRT@D@ATL@@@@@0@ABV10@PBD@Z DD 0ffffffffH
	DD	FLAT:__unwindfunclet$??HATL@@YA?AV?$CStringT@DV?$StrTraitMFC_DLL@DV?$ChTraitsCRT@D@ATL@@@@@0@ABV10@PBD@Z$0
__ehfuncinfo$??HATL@@YA?AV?$CStringT@DV?$StrTraitMFC_DLL@DV?$ChTraitsCRT@D@ATL@@@@@0@ABV10@PBD@Z DD 019930522H
	DD	01H
	DD	FLAT:__unwindtable$??HATL@@YA?AV?$CStringT@DV?$StrTraitMFC_DLL@DV?$ChTraitsCRT@D@ATL@@@@@0@ABV10@PBD@Z
	DD	2 DUP(00H)
	DD	2 DUP(00H)
	DD	00H
	DD	01H
xdata$x	ENDS
CRT$XCU	SEGMENT
?RMSG_STTREE_ITEMDBLCLK$initializer$@@3P6AXXZA DD FLAT:??__ERMSG_STTREE_ITEMDBLCLK@@YAXXZ ; RMSG_STTREE_ITEMDBLCLK$initializer$
CRT$XCU	ENDS
; Function compile flags: /Ogtp
; File C:\Program Files (x86)\Microsoft Visual Studio\2019\Community\VC\Tools\MSVC\14.29.30133\atlmfc\include\afxtempl.h
; File C:\Program Files (x86)\Microsoft Visual Studio\2019\Community\VC\Tools\MSVC\14.29.30133\atlmfc\include\afx.inl
; File C:\Program Files (x86)\Microsoft Visual Studio\2019\Community\VC\Tools\MSVC\14.29.30133\atlmfc\include\afxtempl.h
; File C:\Program Files (x86)\Microsoft Visual Studio\2019\Community\VC\Tools\MSVC\14.29.30133\atlmfc\include\afx.inl
; File C:\Program Files (x86)\Microsoft Visual Studio\2019\Community\VC\Tools\MSVC\14.29.30133\atlmfc\include\afxtempl.h
; File C:\Program Files (x86)\Microsoft Visual Studio\2019\Community\VC\Tools\MSVC\14.29.30133\atlmfc\include\afx.inl
; File C:\Program Files (x86)\Microsoft Visual Studio\2019\Community\VC\Tools\MSVC\14.29.30133\atlmfc\include\afxtempl.h
;	COMDAT ??$SerializeElements@N@@YGXAAVCArchive@@PANH@Z
_TEXT	SEGMENT
_ar$ = 8						; size = 4
_pElements$ = 12					; size = 4
_nCount$ = 16						; size = 4
??$SerializeElements@N@@YGXAAVCArchive@@PANH@Z PROC	; SerializeElements<double>, COMDAT

; 67   : {

  00000	55		 push	 ebp
  00001	8b ec		 mov	 ebp, esp

; 68   : 	ENSURE(nCount == 0 || pElements != NULL);

  00003	8b 4d 0c	 mov	 ecx, DWORD PTR _pElements$[ebp]
  00006	53		 push	 ebx
  00007	56		 push	 esi
  00008	8b 75 10	 mov	 esi, DWORD PTR _nCount$[ebp]
  0000b	57		 push	 edi
  0000c	85 f6		 test	 esi, esi
  0000e	74 08		 je	 SHORT $LN2@SerializeE
  00010	85 c9		 test	 ecx, ecx
  00012	0f 84 89 00 00
	00		 je	 $LN34@SerializeE
$LN2@SerializeE:
; File C:\Program Files (x86)\Microsoft Visual Studio\2019\Community\VC\Tools\MSVC\14.29.30133\atlmfc\include\afx.inl

; 212  : 	{ return (m_nMode & CArchive::load) == 0; }

  00018	8b 55 08	 mov	 edx, DWORD PTR _ar$[ebp]
  0001b	8b 42 18	 mov	 eax, DWORD PTR [edx+24]
  0001e	f7 d0		 not	 eax
  00020	a8 01		 test	 al, 1
; File C:\Program Files (x86)\Microsoft Visual Studio\2019\Community\VC\Tools\MSVC\14.29.30133\atlmfc\include\afxtempl.h

; 73   : 	if (ar.IsStoring())

  00022	74 3c		 je	 SHORT $LN10@SerializeE

; 74   : 	{
; 75   : 		TYPE* pData;
; 76   : 		UINT_PTR nElementsLeft;
; 77   : 
; 78   : 		nElementsLeft = nCount;
; 79   : 		pData = pElements;
; 80   : 		while( nElementsLeft > 0 )

  00024	85 f6		 test	 esi, esi
  00026	74 31		 je	 SHORT $LN8@SerializeE
  00028	0f 1f 84 00 00
	00 00 00	 npad	 8
$LL5@SerializeE:

; 81   : 		{
; 82   : 			UINT nElementsToWrite;
; 83   : 
; 84   : 			nElementsToWrite = UINT(__min(nElementsLeft, INT_MAX/sizeof(TYPE)));

  00030	bb ff ff ff 0f	 mov	 ebx, 268435455		; 0fffffffH
  00035	3b f3		 cmp	 esi, ebx
  00037	0f 42 de	 cmovb	 ebx, esi

; 85   : 			ar.Write(pData, nElementsToWrite*sizeof(TYPE));

  0003a	8d 3c dd 00 00
	00 00		 lea	 edi, DWORD PTR [ebx*8]
  00041	57		 push	 edi
  00042	51		 push	 ecx
  00043	8b ca		 mov	 ecx, edx
  00045	e8 00 00 00 00	 call	 ?Write@CArchive@@QAEXPBXI@Z ; CArchive::Write

; 86   : 			nElementsLeft -= nElementsToWrite;
; 87   : 			pData += nElementsToWrite;

  0004a	8b 4d 0c	 mov	 ecx, DWORD PTR _pElements$[ebp]
  0004d	8b 55 08	 mov	 edx, DWORD PTR _ar$[ebp]
  00050	03 cf		 add	 ecx, edi
  00052	89 4d 0c	 mov	 DWORD PTR _pElements$[ebp], ecx
  00055	2b f3		 sub	 esi, ebx
  00057	75 d7		 jne	 SHORT $LL5@SerializeE
$LN8@SerializeE:
  00059	5f		 pop	 edi

; 105  : 		}
; 106  : 	}
; 107  : }

  0005a	5e		 pop	 esi
  0005b	5b		 pop	 ebx
  0005c	5d		 pop	 ebp
  0005d	c2 0c 00	 ret	 12			; 0000000cH
$LN10@SerializeE:

; 97   : 		while( nElementsLeft > 0 )

  00060	85 f6		 test	 esi, esi
  00062	74 f5		 je	 SHORT $LN8@SerializeE
$LL7@SerializeE:

; 98   : 		{
; 99   : 			UINT nElementsToRead;
; 100  : 
; 101  : 			nElementsToRead = UINT(__min(nElementsLeft, INT_MAX/sizeof(TYPE)));

  00064	bf ff ff ff 0f	 mov	 edi, 268435455		; 0fffffffH
  00069	3b f7		 cmp	 esi, edi
  0006b	0f 42 fe	 cmovb	 edi, esi

; 102  : 			ar.EnsureRead(pData, nElementsToRead*sizeof(TYPE));

  0006e	8d 1c fd 00 00
	00 00		 lea	 ebx, DWORD PTR [edi*8]
; File C:\Program Files (x86)\Microsoft Visual Studio\2019\Community\VC\Tools\MSVC\14.29.30133\atlmfc\include\afx.inl

; 399  : 	UINT nRead=Read(lpBuf, nCount);

  00075	53		 push	 ebx
  00076	51		 push	 ecx
  00077	8b ca		 mov	 ecx, edx
  00079	e8 00 00 00 00	 call	 ?Read@CArchive@@QAEIPAXI@Z ; CArchive::Read

; 400  : 	if(nRead!=nCount)

  0007e	3b c3		 cmp	 eax, ebx
  00080	75 16		 jne	 SHORT $LN23@SerializeE
; File C:\Program Files (x86)\Microsoft Visual Studio\2019\Community\VC\Tools\MSVC\14.29.30133\atlmfc\include\afxtempl.h

; 97   : 		while( nElementsLeft > 0 )

  00082	8b 4d 0c	 mov	 ecx, DWORD PTR _pElements$[ebp]
  00085	8b 55 08	 mov	 edx, DWORD PTR _ar$[ebp]

; 103  : 			nElementsLeft -= nElementsToRead;
; 104  : 			pData += nElementsToRead;

  00088	03 cb		 add	 ecx, ebx
  0008a	89 4d 0c	 mov	 DWORD PTR _pElements$[ebp], ecx
  0008d	2b f7		 sub	 esi, edi
  0008f	75 d3		 jne	 SHORT $LL7@SerializeE

; 105  : 		}
; 106  : 	}
; 107  : }

  00091	5f		 pop	 edi
  00092	5e		 pop	 esi
  00093	5b		 pop	 ebx
  00094	5d		 pop	 ebp
  00095	c2 0c 00	 ret	 12			; 0000000cH
$LN23@SerializeE:
; File C:\Program Files (x86)\Microsoft Visual Studio\2019\Community\VC\Tools\MSVC\14.29.30133\atlmfc\include\afx.inl

; 402  : 		AfxThrowArchiveException(CArchiveException::endOfFile);

  00098	6a 00		 push	 0
  0009a	6a 03		 push	 3
  0009c	e8 00 00 00 00	 call	 ?AfxThrowArchiveException@@YGXHPBD@Z ; AfxThrowArchiveException
$LN34@SerializeE:
; File C:\Program Files (x86)\Microsoft Visual Studio\2019\Community\VC\Tools\MSVC\14.29.30133\atlmfc\include\afxtempl.h

; 68   : 	ENSURE(nCount == 0 || pElements != NULL);

  000a1	e8 00 00 00 00	 call	 ?AfxThrowInvalidArgException@@YGXXZ ; AfxThrowInvalidArgException
$LN32@SerializeE:
  000a6	cc		 int	 3
??$SerializeElements@N@@YGXAAVCArchive@@PANH@Z ENDP	; SerializeElements<double>
_TEXT	ENDS
; Function compile flags: /Ogtp
; File C:\Program Files (x86)\Microsoft Visual Studio\2019\Community\VC\Tools\MSVC\14.29.30133\atlmfc\include\afx.inl
;	COMDAT ??_GCDlgTrade@@UAEPAXI@Z
_TEXT	SEGMENT
___flags$ = 8						; size = 4
??_GCDlgTrade@@UAEPAXI@Z PROC				; CDlgTrade::`scalar deleting destructor', COMDAT
; _this$ = ecx
  00000	55		 push	 ebp
  00001	8b ec		 mov	 ebp, esp
  00003	56		 push	 esi
  00004	8b f1		 mov	 esi, ecx
  00006	8d 8e c8 00 00
	00		 lea	 ecx, DWORD PTR [esi+200]
  0000c	e8 00 00 00 00	 call	 ??1CGridCtrl@@UAE@XZ	; CGridCtrl::~CGridCtrl
  00011	8d 8e c0 00 00
	00		 lea	 ecx, DWORD PTR [esi+192]
  00017	ff 15 00 00 00
	00		 call	 DWORD PTR __imp_??1?$CStringT@DV?$StrTraitMFC_DLL@DV?$ChTraitsCRT@D@ATL@@@@@ATL@@QAE@XZ
  0001d	8d 8e bc 00 00
	00		 lea	 ecx, DWORD PTR [esi+188]
  00023	ff 15 00 00 00
	00		 call	 DWORD PTR __imp_??1?$CStringT@DV?$StrTraitMFC_DLL@DV?$ChTraitsCRT@D@ATL@@@@@ATL@@QAE@XZ
  00029	8b ce		 mov	 ecx, esi
  0002b	e8 00 00 00 00	 call	 ??1CDialog@@UAE@XZ	; CDialog::~CDialog
  00030	8b 45 08	 mov	 eax, DWORD PTR ___flags$[ebp]
  00033	a8 01		 test	 al, 1
  00035	74 22		 je	 SHORT $LN18@scalar
  00037	a8 04		 test	 al, 4
  00039	75 10		 jne	 SHORT $LN3@scalar

; 112  : 	{ ::operator delete(p); }

  0003b	56		 push	 esi
  0003c	e8 00 00 00 00	 call	 ??3@YAXPAX@Z		; operator delete
  00041	83 c4 04	 add	 esp, 4
  00044	8b c6		 mov	 eax, esi
  00046	5e		 pop	 esi
  00047	5d		 pop	 ebp
  00048	c2 04 00	 ret	 4
$LN3@scalar:
  0004b	68 60 05 00 00	 push	 1376			; 00000560H
  00050	56		 push	 esi
  00051	e8 00 00 00 00	 call	 ?__global_delete@@YAXPAXI@Z ; __global_delete
  00056	83 c4 08	 add	 esp, 8
$LN18@scalar:
  00059	8b c6		 mov	 eax, esi
  0005b	5e		 pop	 esi
  0005c	5d		 pop	 ebp
  0005d	c2 04 00	 ret	 4
??_GCDlgTrade@@UAEPAXI@Z ENDP				; CDlgTrade::`scalar deleting destructor'
_TEXT	ENDS
; Function compile flags: /Ogtp
; File D:\git\src\IBK\IBK_DRFN\ProjSrc\SrcDrfn\Chart\INDEXOPTIMIZER\DlgTrade.cpp
; File C:\Program Files (x86)\Microsoft Visual Studio\2019\Community\VC\Tools\MSVC\14.29.30133\atlmfc\include\afxtempl.h
; File D:\git\src\IBK\IBK_DRFN\ProjSrc\SrcDrfn\Chart\INDEXOPTIMIZER\DlgTrade.cpp
; File C:\Program Files (x86)\Microsoft Visual Studio\2019\Community\VC\Tools\MSVC\14.29.30133\atlmfc\include\afxcoll.inl
; File D:\git\src\IBK\IBK_DRFN\ProjSrc\SrcDrfn\Chart\INDEXOPTIMIZER\DlgTrade.cpp
; File C:\Program Files (x86)\Microsoft Visual Studio\2019\Community\VC\Tools\MSVC\14.29.30133\atlmfc\include\afxcoll.inl
; File D:\git\src\IBK\IBK_DRFN\ProjSrc\SrcDrfn\Chart\INDEXOPTIMIZER\DlgTrade.cpp
; File C:\Program Files (x86)\Microsoft Visual Studio\2019\Community\VC\Tools\MSVC\14.29.30133\atlmfc\include\afxcoll.inl
; File D:\git\src\IBK\IBK_DRFN\ProjSrc\SrcDrfn\Chart\INDEXOPTIMIZER\DlgTrade.cpp
; File C:\Program Files (x86)\Microsoft Visual Studio\2019\Community\VC\Tools\MSVC\14.29.30133\atlmfc\include\afxcoll.inl
; File D:\git\src\IBK\IBK_DRFN\ProjSrc\SrcDrfn\Chart\INDEXOPTIMIZER\DlgTrade.cpp
; File C:\Program Files (x86)\Microsoft Visual Studio\2019\Community\VC\Tools\MSVC\14.29.30133\atlmfc\include\afxcoll.inl
; File D:\git\src\IBK\IBK_DRFN\ProjSrc\SrcDrfn\Chart\INDEXOPTIMIZER\DlgTrade.cpp
; File C:\Program Files (x86)\Microsoft Visual Studio\2019\Community\VC\Tools\MSVC\14.29.30133\atlmfc\include\afxcoll.inl
; File D:\git\src\IBK\IBK_DRFN\ProjSrc\SrcDrfn\Chart\INDEXOPTIMIZER\DlgTrade.cpp
; File C:\Program Files (x86)\Microsoft Visual Studio\2019\Community\VC\Tools\MSVC\14.29.30133\atlmfc\include\afxcoll.inl
; File D:\git\src\IBK\IBK_DRFN\ProjSrc\SrcDrfn\Chart\INDEXOPTIMIZER\DlgTrade.cpp
; File C:\Program Files (x86)\Microsoft Visual Studio\2019\Community\VC\Tools\MSVC\14.29.30133\atlmfc\include\afxcoll.inl
; File D:\git\src\IBK\IBK_DRFN\ProjSrc\SrcDrfn\Chart\INDEXOPTIMIZER\DlgTrade.cpp
; File C:\Program Files (x86)\Microsoft Visual Studio\2019\Community\VC\Tools\MSVC\14.29.30133\atlmfc\include\afxcoll.inl
; File D:\git\src\IBK\IBK_DRFN\ProjSrc\SrcDrfn\Chart\INDEXOPTIMIZER\DlgTrade.cpp
; File C:\Program Files (x86)\Microsoft Visual Studio\2019\Community\VC\Tools\MSVC\14.29.30133\atlmfc\include\afxcoll.inl
; File D:\git\src\IBK\IBK_DRFN\ProjSrc\SrcDrfn\Chart\INDEXOPTIMIZER\DlgTrade.cpp
; File C:\Program Files (x86)\Microsoft Visual Studio\2019\Community\VC\Tools\MSVC\14.29.30133\atlmfc\include\afxtempl.h
; File D:\git\src\IBK\IBK_DRFN\ProjSrc\SrcDrfn\Chart\INDEXOPTIMIZER\DlgTrade.cpp
; File C:\Program Files (x86)\Microsoft Visual Studio\2019\Community\VC\Tools\MSVC\14.29.30133\atlmfc\include\afxtempl.h
; File D:\git\src\IBK\IBK_DRFN\ProjSrc\SrcDrfn\Chart\INDEXOPTIMIZER\DlgTrade.cpp
; File C:\Program Files (x86)\Microsoft Visual Studio\2019\Community\VC\Tools\MSVC\14.29.30133\atlmfc\include\afxcoll.inl
; File D:\git\src\IBK\IBK_DRFN\ProjSrc\SrcDrfn\Chart\INDEXOPTIMIZER\DlgTrade.cpp
; File C:\Program Files (x86)\Microsoft Visual Studio\2019\Community\VC\Tools\MSVC\14.29.30133\atlmfc\include\afxtempl.h
; File D:\git\src\IBK\IBK_DRFN\ProjSrc\SrcDrfn\Chart\INDEXOPTIMIZER\DlgTrade.cpp
; File C:\Program Files (x86)\Microsoft Visual Studio\2019\Community\VC\Tools\MSVC\14.29.30133\atlmfc\include\afxtempl.h
; File D:\git\src\IBK\IBK_DRFN\ProjSrc\SrcDrfn\Chart\INDEXOPTIMIZER\DlgTrade.cpp
; File C:\Program Files (x86)\Microsoft Visual Studio\2019\Community\VC\Tools\MSVC\14.29.30133\atlmfc\include\afxtempl.h
; File D:\git\src\IBK\IBK_DRFN\ProjSrc\SrcDrfn\Chart\INDEXOPTIMIZER\DlgTrade.cpp
; File C:\Program Files (x86)\Microsoft Visual Studio\2019\Community\VC\Tools\MSVC\14.29.30133\atlmfc\include\afxcoll.inl
; File D:\git\src\IBK\IBK_DRFN\ProjSrc\SrcDrfn\Chart\INDEXOPTIMIZER\DlgTrade.cpp
; File C:\Program Files (x86)\Microsoft Visual Studio\2019\Community\VC\Tools\MSVC\14.29.30133\atlmfc\include\afxcoll.inl
; File D:\git\src\IBK\IBK_DRFN\ProjSrc\SrcDrfn\Chart\INDEXOPTIMIZER\DlgTrade.cpp
; File C:\Program Files (x86)\Microsoft Visual Studio\2019\Community\VC\Tools\MSVC\14.29.30133\atlmfc\include\afxcoll.inl
; File D:\git\src\IBK\IBK_DRFN\ProjSrc\SrcDrfn\Chart\INDEXOPTIMIZER\DlgTrade.cpp
; File C:\Program Files (x86)\Microsoft Visual Studio\2019\Community\VC\Tools\MSVC\14.29.30133\atlmfc\include\cstringt.h
; File D:\git\src\IBK\IBK_DRFN\ProjSrc\SrcDrfn\Chart\INDEXOPTIMIZER\DlgTrade.cpp
; File C:\Program Files (x86)\Microsoft Visual Studio\2019\Community\VC\Tools\MSVC\14.29.30133\atlmfc\include\cstringt.h
; File D:\git\src\IBK\IBK_DRFN\ProjSrc\SrcDrfn\Chart\INDEXOPTIMIZER\DlgTrade.cpp
; File C:\Program Files (x86)\Microsoft Visual Studio\2019\Community\VC\Tools\MSVC\14.29.30133\atlmfc\include\cstringt.h
; File D:\git\src\IBK\IBK_DRFN\ProjSrc\SrcDrfn\Chart\INDEXOPTIMIZER\DlgTrade.cpp
; File C:\Program Files (x86)\Microsoft Visual Studio\2019\Community\VC\Tools\MSVC\14.29.30133\atlmfc\include\cstringt.h
; File D:\git\src\IBK\IBK_DRFN\ProjSrc\SrcDrfn\Chart\INDEXOPTIMIZER\DlgTrade.cpp
; File C:\Program Files (x86)\Microsoft Visual Studio\2019\Community\VC\Tools\MSVC\14.29.30133\atlmfc\include\afxwin2.inl
; File D:\git\src\IBK\IBK_DRFN\ProjSrc\SrcDrfn\Chart\INDEXOPTIMIZER\DlgTrade.cpp
; File C:\Program Files (x86)\Microsoft Visual Studio\2019\Community\VC\Tools\MSVC\14.29.30133\atlmfc\include\afxtempl.h
; File D:\git\src\IBK\IBK_DRFN\ProjSrc\SrcDrfn\Chart\INDEXOPTIMIZER\DlgTrade.cpp
; File C:\Program Files (x86)\Microsoft Visual Studio\2019\Community\VC\Tools\MSVC\14.29.30133\atlmfc\include\afxcoll.inl
; File D:\git\src\IBK\IBK_DRFN\ProjSrc\SrcDrfn\Chart\INDEXOPTIMIZER\DlgTrade.cpp
;	COMDAT ?SetDataSpreadGrid@CDlgTrade@@QAEXXZ
_TEXT	SEGMENT
_stNujukArray$ = -156					; size = 20
_newElement$1$ = -136					; size = 8
_newElement$ = -136					; size = 8
_Strate$1$ = -128					; size = 4
$T2 = -124						; size = 4
$T3 = -120						; size = 4
$T4 = -116						; size = 4
$T5 = -112						; size = 4
$T6 = -108						; size = 4
$T7 = -104						; size = 4
$T8 = -100						; size = 4
_dGunSu$ = -96						; size = 20
_dSonIk$ = -76						; size = 20
_nSize$1$ = -56						; size = 4
_nIndex$1$ = -52					; size = 4
_nIndex$1$ = -52					; size = 4
_i$1$ = -48						; size = 4
tv924 = -44						; size = 4
_ResultData$ = -40					; size = 20
_bNujuk$1$ = -20					; size = 4
_strResultData$ = -16					; size = 4
__$EHRec$ = -12						; size = 12
?SetDataSpreadGrid@CDlgTrade@@QAEXXZ PROC		; CDlgTrade::SetDataSpreadGrid, COMDAT
; _this$ = ecx

; 106  : {

  00000	55		 push	 ebp
  00001	8b ec		 mov	 ebp, esp
  00003	6a ff		 push	 -1
  00005	68 00 00 00 00	 push	 __ehhandler$?SetDataSpreadGrid@CDlgTrade@@QAEXXZ
  0000a	64 a1 00 00 00
	00		 mov	 eax, DWORD PTR fs:0
  00010	50		 push	 eax
  00011	81 ec 90 00 00
	00		 sub	 esp, 144		; 00000090H
  00017	53		 push	 ebx
  00018	56		 push	 esi
  00019	57		 push	 edi
  0001a	a1 00 00 00 00	 mov	 eax, DWORD PTR ___security_cookie
  0001f	33 c5		 xor	 eax, ebp
  00021	50		 push	 eax
  00022	8d 45 f4	 lea	 eax, DWORD PTR __$EHRec$[ebp]
  00025	64 a3 00 00 00
	00		 mov	 DWORD PTR fs:0, eax
  0002b	8b f9		 mov	 edi, ecx

; 107  : 	CString strResultData;

  0002d	8d 4d f0	 lea	 ecx, DWORD PTR _strResultData$[ebp]
  00030	ff 15 00 00 00
	00		 call	 DWORD PTR __imp_??0?$CStringT@DV?$StrTraitMFC_DLL@DV?$ChTraitsCRT@D@ATL@@@@@ATL@@QAE@XZ

; 108  : 	CStringArray ResultData;

  00036	8d 4d d8	 lea	 ecx, DWORD PTR _ResultData$[ebp]
  00039	c7 45 fc 00 00
	00 00		 mov	 DWORD PTR __$EHRec$[ebp+8], 0
  00040	e8 00 00 00 00	 call	 ??0CStringArray@@QAE@XZ	; CStringArray::CStringArray

; 109  : 	CStrategyResult* Result;
; 110  : 	CStringArray stNujukArray;//

  00045	8d 8d 64 ff ff
	ff		 lea	 ecx, DWORD PTR _stNujukArray$[ebp]
  0004b	c6 45 fc 01	 mov	 BYTE PTR __$EHRec$[ebp+8], 1
  0004f	e8 00 00 00 00	 call	 ??0CStringArray@@QAE@XZ	; CStringArray::CStringArray
; File C:\Program Files (x86)\Microsoft Visual Studio\2019\Community\VC\Tools\MSVC\14.29.30133\atlmfc\include\afxtempl.h

; 348  : {

  00054	c7 45 a0 00 00
	00 00		 mov	 DWORD PTR _dGunSu$[ebp], OFFSET ??_7?$CArray@NN@@6B@

; 349  : 	m_pData = NULL;

  0005b	c7 45 a4 00 00
	00 00		 mov	 DWORD PTR _dGunSu$[ebp+4], 0

; 350  : 	m_nSize = m_nMaxSize = m_nGrowBy = 0;

  00062	c7 45 b0 00 00
	00 00		 mov	 DWORD PTR _dGunSu$[ebp+16], 0
  00069	c7 45 ac 00 00
	00 00		 mov	 DWORD PTR _dGunSu$[ebp+12], 0
  00070	c7 45 a8 00 00
	00 00		 mov	 DWORD PTR _dGunSu$[ebp+8], 0

; 348  : {

  00077	c7 45 b4 00 00
	00 00		 mov	 DWORD PTR _dSonIk$[ebp], OFFSET ??_7?$CArray@NN@@6B@

; 349  : 	m_pData = NULL;

  0007e	c7 45 b8 00 00
	00 00		 mov	 DWORD PTR _dSonIk$[ebp+4], 0

; 350  : 	m_nSize = m_nMaxSize = m_nGrowBy = 0;

  00085	c7 45 c4 00 00
	00 00		 mov	 DWORD PTR _dSonIk$[ebp+16], 0
  0008c	c7 45 c0 00 00
	00 00		 mov	 DWORD PTR _dSonIk$[ebp+12], 0
  00093	c7 45 bc 00 00
	00 00		 mov	 DWORD PTR _dSonIk$[ebp+8], 0
; File D:\git\src\IBK\IBK_DRFN\ProjSrc\SrcDrfn\Chart\INDEXOPTIMIZER\DlgTrade.cpp

; 115  : 	CIStrategyItem* Strate = m_pDlgOptimizer->GetStrategyItem();

  0009a	8b 87 ac 00 00
	00		 mov	 eax, DWORD PTR [edi+172]
  000a0	c6 45 fc 04	 mov	 BYTE PTR __$EHRec$[ebp+8], 4
  000a4	c7 45 ec 00 00
	00 00		 mov	 DWORD PTR _bNujuk$1$[ebp], 0
  000ab	8b b0 10 05 00
	00		 mov	 esi, DWORD PTR [eax+1296]

; 116  : 	int nSize = Strate->GetCntStrategyResult();

  000b1	8b ce		 mov	 ecx, esi
  000b3	89 75 80	 mov	 DWORD PTR _Strate$1$[ebp], esi
  000b6	8b 06		 mov	 eax, DWORD PTR [esi]
  000b8	ff 50 48	 call	 DWORD PTR [eax+72]

; 117  : 	DWORD nFormat = DT_RIGHT|DT_VCENTER|DT_SINGLELINE|DT_NOPREFIX;// 
; 118  : 	m_TradeGridCtrl.SetRowCount(1);

  000bb	8d 9f c8 00 00
	00		 lea	 ebx, DWORD PTR [edi+200]
  000c1	89 45 c8	 mov	 DWORD PTR _nSize$1$[ebp], eax
  000c4	6a 01		 push	 1
  000c6	8b cb		 mov	 ecx, ebx
  000c8	e8 00 00 00 00	 call	 ?SetRowCount@CGridCtrl@@QAEHH@Z ; CGridCtrl::SetRowCount

; 119  : 
; 120  : 	char* szParam1 = "%.2f";
; 121  : 	if(m_pDlgOptimizer->m_nCodeType == 0)	szParam1 = "%2.f";
; 122  : 
; 123  : 	for(int i =0 ;i < nSize; i++)

  000cd	8b 8f ac 00 00
	00		 mov	 ecx, DWORD PTR [edi+172]
  000d3	b8 00 00 00 00	 mov	 eax, OFFSET ??_C@_04GEFJINEE@?$CF?42f@
  000d8	ba 00 00 00 00	 mov	 edx, OFFSET ??_C@_04GLKKDPHH@?$CF2?4f@
  000dd	83 b9 88 11 00
	00 00		 cmp	 DWORD PTR [ecx+4488], 0
  000e4	0f 44 c2	 cmove	 eax, edx
  000e7	33 c9		 xor	 ecx, ecx
  000e9	89 45 d4	 mov	 DWORD PTR tv924[ebp], eax
  000ec	89 4d d0	 mov	 DWORD PTR _i$1$[ebp], ecx
  000ef	39 4d c8	 cmp	 DWORD PTR _nSize$1$[ebp], ecx
  000f2	0f 8e 43 05 00
	00		 jle	 $LN151@SetDataSpr
$LL4@SetDataSpr:

; 124  : 	{	
; 125  : 		Result = Strate->GetStrategyResult(i);

  000f8	8b 06		 mov	 eax, DWORD PTR [esi]
  000fa	51		 push	 ecx
  000fb	8b ce		 mov	 ecx, esi
  000fd	ff 50 4c	 call	 DWORD PTR [eax+76]
  00100	8b f0		 mov	 esi, eax

; 126  : 		if(Result==NULL) break;//  :KHD 

  00102	85 f6		 test	 esi, esi
  00104	0f 84 31 05 00
	00		 je	 $LN151@SetDataSpr
; File C:\Program Files (x86)\Microsoft Visual Studio\2019\Community\VC\Tools\MSVC\14.29.30133\atlmfc\include\afxcoll.inl

; 286  : 	{ SetSize(0); }

  0010a	6a ff		 push	 -1
  0010c	6a 00		 push	 0
  0010e	8d 4d d8	 lea	 ecx, DWORD PTR _ResultData$[ebp]
  00111	e8 00 00 00 00	 call	 ?SetSize@CStringArray@@QAEXHH@Z ; CStringArray::SetSize
; File D:\git\src\IBK\IBK_DRFN\ProjSrc\SrcDrfn\Chart\INDEXOPTIMIZER\DlgTrade.cpp

; 130  : 		strResultData.Format("%d",i+1);

  00116	8b 45 d0	 mov	 eax, DWORD PTR _i$1$[ebp]
  00119	40		 inc	 eax
  0011a	50		 push	 eax
  0011b	89 45 d0	 mov	 DWORD PTR _i$1$[ebp], eax
  0011e	8d 45 f0	 lea	 eax, DWORD PTR _strResultData$[ebp]
  00121	68 00 00 00 00	 push	 OFFSET ??_C@_02DPKJAMEF@?$CFd@
  00126	50		 push	 eax
  00127	ff 15 00 00 00
	00		 call	 DWORD PTR __imp_?Format@?$CStringT@DV?$StrTraitMFC_DLL@DV?$ChTraitsCRT@D@ATL@@@@@ATL@@QAAXPBDZZ
  0012d	83 c4 0c	 add	 esp, 12			; 0000000cH
; File C:\Program Files (x86)\Microsoft Visual Studio\2019\Community\VC\Tools\MSVC\14.29.30133\atlmfc\include\afxcoll.inl

; 321  : 		SetAtGrow(nIndex, newElement);

  00130	8d 45 f0	 lea	 eax, DWORD PTR _strResultData$[ebp]
  00133	8d 4d d8	 lea	 ecx, DWORD PTR _ResultData$[ebp]
  00136	50		 push	 eax
  00137	ff 75 e0	 push	 DWORD PTR _ResultData$[ebp+8]
  0013a	e8 00 00 00 00	 call	 ?SetAtGrow@CStringArray@@QAEXHABV?$CStringT@DV?$StrTraitMFC_DLL@DV?$ChTraitsCRT@D@ATL@@@@@ATL@@@Z ; CStringArray::SetAtGrow
; File D:\git\src\IBK\IBK_DRFN\ProjSrc\SrcDrfn\Chart\INDEXOPTIMIZER\DlgTrade.cpp

; 133  : 		switch(Result->m_DealType) {

  0013f	8b 46 04	 mov	 eax, DWORD PTR [esi+4]
  00142	83 f8 04	 cmp	 eax, 4
  00145	77 48		 ja	 SHORT $LN5@SetDataSpr
  00147	ff 24 85 00 00
	00 00		 jmp	 DWORD PTR $LN152@SetDataSpr[eax*4]
$LN12@SetDataSpr:

; 134  : 		case CStrategyResult::NONE:strResultData = "NONE"; bNujuk = FALSE;

  0014e	68 00 00 00 00	 push	 OFFSET ??_C@_04OKGDLNCL@NONE@
$LN156@SetDataSpr:
; File C:\Program Files (x86)\Microsoft Visual Studio\2019\Community\VC\Tools\MSVC\14.29.30133\atlmfc\include\afxcoll.inl

; 321  : 		SetAtGrow(nIndex, newElement);

  00153	8d 4d f0	 lea	 ecx, DWORD PTR _strResultData$[ebp]
  00156	ff 15 00 00 00
	00		 call	 DWORD PTR __imp_??4?$CStringT@DV?$StrTraitMFC_DLL@DV?$ChTraitsCRT@D@ATL@@@@@ATL@@QAEAAV01@PBD@Z
  0015c	c7 45 ec 00 00
	00 00		 mov	 DWORD PTR _bNujuk$1$[ebp], 0
  00163	eb 2a		 jmp	 SHORT $LN5@SetDataSpr
$LN13@SetDataSpr:
; File D:\git\src\IBK\IBK_DRFN\ProjSrc\SrcDrfn\Chart\INDEXOPTIMIZER\DlgTrade.cpp

; 136  : 		case CStrategyResult::BUY:strResultData  = "";bNujuk = FALSE;

  00165	68 00 00 00 00	 push	 OFFSET ??_C@_08BPEOHGCP@?$LI?E?$LM?v?A?x?$MA?T@

; 137  : 			break;

  0016a	eb e7		 jmp	 SHORT $LN156@SetDataSpr
$LN14@SetDataSpr:

; 138  : 		case CStrategyResult::EXITSHORT:strResultData  = "";bNujuk = FALSE;

  0016c	68 00 00 00 00	 push	 OFFSET ??_C@_08OJBKHDEB@?$LI?E?$LF?$LF?C?$LL?$LL?j@

; 139  : 			break;

  00171	eb e0		 jmp	 SHORT $LN156@SetDataSpr
$LN15@SetDataSpr:

; 140  : 		case CStrategyResult::SELL:strResultData  = "";bNujuk = TRUE;

  00173	68 00 00 00 00	 push	 OFFSET ??_C@_08DBKELDO@?$LI?E?$LF?$LF?A?x?$MA?T@

; 141  : 			break;

  00178	eb 05		 jmp	 SHORT $LN155@SetDataSpr
$LN16@SetDataSpr:

; 142  : 		case CStrategyResult::EXITLONG: strResultData = "";bNujuk = TRUE;

  0017a	68 00 00 00 00	 push	 OFFSET ??_C@_08PFEOEOFA@?$LI?E?$LM?v?C?$LL?$LL?j@
$LN155@SetDataSpr:
; File C:\Program Files (x86)\Microsoft Visual Studio\2019\Community\VC\Tools\MSVC\14.29.30133\atlmfc\include\afxcoll.inl

; 321  : 		SetAtGrow(nIndex, newElement);

  0017f	8d 4d f0	 lea	 ecx, DWORD PTR _strResultData$[ebp]
  00182	ff 15 00 00 00
	00		 call	 DWORD PTR __imp_??4?$CStringT@DV?$StrTraitMFC_DLL@DV?$ChTraitsCRT@D@ATL@@@@@ATL@@QAEAAV01@PBD@Z
  00188	c7 45 ec 01 00
	00 00		 mov	 DWORD PTR _bNujuk$1$[ebp], 1
$LN5@SetDataSpr:
  0018f	8d 45 f0	 lea	 eax, DWORD PTR _strResultData$[ebp]
  00192	50		 push	 eax
  00193	ff 75 e0	 push	 DWORD PTR _ResultData$[ebp+8]
  00196	8d 4d d8	 lea	 ecx, DWORD PTR _ResultData$[ebp]
  00199	e8 00 00 00 00	 call	 ?SetAtGrow@CStringArray@@QAEXHABV?$CStringT@DV?$StrTraitMFC_DLL@DV?$ChTraitsCRT@D@ATL@@@@@ATL@@@Z ; CStringArray::SetAtGrow
; File D:\git\src\IBK\IBK_DRFN\ProjSrc\SrcDrfn\Chart\INDEXOPTIMIZER\DlgTrade.cpp

; 148  : 		strResultData.Format("%2.f",Result->m_dTime);

  0019e	f2 0f 10 46 08	 movsd	 xmm0, QWORD PTR [esi+8]
  001a3	8d 45 f0	 lea	 eax, DWORD PTR _strResultData$[ebp]
  001a6	83 ec 08	 sub	 esp, 8
  001a9	f2 0f 11 04 24	 movsd	 QWORD PTR [esp], xmm0
  001ae	68 00 00 00 00	 push	 OFFSET ??_C@_04GLKKDPHH@?$CF2?4f@
  001b3	50		 push	 eax
  001b4	ff 15 00 00 00
	00		 call	 DWORD PTR __imp_?Format@?$CStringT@DV?$StrTraitMFC_DLL@DV?$ChTraitsCRT@D@ATL@@@@@ATL@@QAAXPBDZZ
  001ba	83 c4 10	 add	 esp, 16			; 00000010H

; 149  : 		InsertGubun(strResultData);

  001bd	8d 45 f0	 lea	 eax, DWORD PTR _strResultData$[ebp]
  001c0	8b cf		 mov	 ecx, edi
  001c2	6a 00		 push	 0
  001c4	50		 push	 eax
  001c5	e8 00 00 00 00	 call	 ?InsertGubun@CDlgTrade@@QAEHAAV?$CStringT@DV?$StrTraitMFC_DLL@DV?$ChTraitsCRT@D@ATL@@@@@ATL@@H@Z ; CDlgTrade::InsertGubun
; File C:\Program Files (x86)\Microsoft Visual Studio\2019\Community\VC\Tools\MSVC\14.29.30133\atlmfc\include\afxcoll.inl

; 321  : 		SetAtGrow(nIndex, newElement);

  001ca	8d 45 f0	 lea	 eax, DWORD PTR _strResultData$[ebp]
  001cd	50		 push	 eax
  001ce	ff 75 e0	 push	 DWORD PTR _ResultData$[ebp+8]
  001d1	8d 4d d8	 lea	 ecx, DWORD PTR _ResultData$[ebp]
  001d4	e8 00 00 00 00	 call	 ?SetAtGrow@CStringArray@@QAEXHABV?$CStringT@DV?$StrTraitMFC_DLL@DV?$ChTraitsCRT@D@ATL@@@@@ATL@@@Z ; CStringArray::SetAtGrow
; File D:\git\src\IBK\IBK_DRFN\ProjSrc\SrcDrfn\Chart\INDEXOPTIMIZER\DlgTrade.cpp

; 154  : 		strResultData.Format(szParam1, Result->m_dPrice);

  001d9	f2 0f 10 46 10	 movsd	 xmm0, QWORD PTR [esi+16]
  001de	8d 45 f0	 lea	 eax, DWORD PTR _strResultData$[ebp]
  001e1	83 ec 08	 sub	 esp, 8
  001e4	f2 0f 11 04 24	 movsd	 QWORD PTR [esp], xmm0
  001e9	ff 75 d4	 push	 DWORD PTR tv924[ebp]
  001ec	50		 push	 eax
  001ed	ff 15 00 00 00
	00		 call	 DWORD PTR __imp_?Format@?$CStringT@DV?$StrTraitMFC_DLL@DV?$ChTraitsCRT@D@ATL@@@@@ATL@@QAAXPBDZZ

; 155  : 		strResultData = m_pDlgOptimizer->m_DlgResult->GetComma(strResultData);

  001f3	8b 8f ac 00 00
	00		 mov	 ecx, DWORD PTR [edi+172]
  001f9	8d 45 9c	 lea	 eax, DWORD PTR $T8[ebp]
  001fc	83 c4 10	 add	 esp, 16			; 00000010H
  001ff	8b 89 80 0e 00
	00		 mov	 ecx, DWORD PTR [ecx+3712]
  00205	ff 75 f0	 push	 DWORD PTR _strResultData$[ebp]
  00208	50		 push	 eax
  00209	e8 00 00 00 00	 call	 ?GetComma@CDlgResult@@QAE?AV?$CStringT@DV?$StrTraitMFC_DLL@DV?$ChTraitsCRT@D@ATL@@@@@ATL@@PBD@Z ; CDlgResult::GetComma
  0020e	50		 push	 eax
  0020f	8d 4d f0	 lea	 ecx, DWORD PTR _strResultData$[ebp]
  00212	c6 45 fc 05	 mov	 BYTE PTR __$EHRec$[ebp+8], 5
  00216	ff 15 00 00 00
	00		 call	 DWORD PTR __imp_??4?$CStringT@DV?$StrTraitMFC_DLL@DV?$ChTraitsCRT@D@ATL@@@@@ATL@@QAEAAV01@ABV01@@Z
  0021c	8d 4d 9c	 lea	 ecx, DWORD PTR $T8[ebp]
  0021f	c6 45 fc 04	 mov	 BYTE PTR __$EHRec$[ebp+8], 4
  00223	ff 15 00 00 00
	00		 call	 DWORD PTR __imp_??1?$CStringT@DV?$StrTraitMFC_DLL@DV?$ChTraitsCRT@D@ATL@@@@@ATL@@QAE@XZ
; File C:\Program Files (x86)\Microsoft Visual Studio\2019\Community\VC\Tools\MSVC\14.29.30133\atlmfc\include\afxcoll.inl

; 321  : 		SetAtGrow(nIndex, newElement);

  00229	8d 45 f0	 lea	 eax, DWORD PTR _strResultData$[ebp]
  0022c	50		 push	 eax
  0022d	ff 75 e0	 push	 DWORD PTR _ResultData$[ebp+8]
  00230	8d 4d d8	 lea	 ecx, DWORD PTR _ResultData$[ebp]
  00233	e8 00 00 00 00	 call	 ?SetAtGrow@CStringArray@@QAEXHABV?$CStringT@DV?$StrTraitMFC_DLL@DV?$ChTraitsCRT@D@ATL@@@@@ATL@@@Z ; CStringArray::SetAtGrow
; File D:\git\src\IBK\IBK_DRFN\ProjSrc\SrcDrfn\Chart\INDEXOPTIMIZER\DlgTrade.cpp

; 158  : 		strResultData.Format("%ld",Result->m_lQty);

  00238	ff 76 18	 push	 DWORD PTR [esi+24]
  0023b	8d 45 f0	 lea	 eax, DWORD PTR _strResultData$[ebp]
  0023e	68 00 00 00 00	 push	 OFFSET ??_C@_03JALODAI@?$CFld@
  00243	50		 push	 eax
  00244	ff 15 00 00 00
	00		 call	 DWORD PTR __imp_?Format@?$CStringT@DV?$StrTraitMFC_DLL@DV?$ChTraitsCRT@D@ATL@@@@@ATL@@QAAXPBDZZ

; 159  : 		strResultData = m_pDlgOptimizer->m_DlgResult->GetComma(strResultData);

  0024a	8b 8f ac 00 00
	00		 mov	 ecx, DWORD PTR [edi+172]
  00250	8d 45 98	 lea	 eax, DWORD PTR $T7[ebp]
  00253	83 c4 0c	 add	 esp, 12			; 0000000cH
  00256	8b 89 80 0e 00
	00		 mov	 ecx, DWORD PTR [ecx+3712]
  0025c	ff 75 f0	 push	 DWORD PTR _strResultData$[ebp]
  0025f	50		 push	 eax
  00260	e8 00 00 00 00	 call	 ?GetComma@CDlgResult@@QAE?AV?$CStringT@DV?$StrTraitMFC_DLL@DV?$ChTraitsCRT@D@ATL@@@@@ATL@@PBD@Z ; CDlgResult::GetComma
  00265	50		 push	 eax
  00266	8d 4d f0	 lea	 ecx, DWORD PTR _strResultData$[ebp]
  00269	c6 45 fc 06	 mov	 BYTE PTR __$EHRec$[ebp+8], 6
  0026d	ff 15 00 00 00
	00		 call	 DWORD PTR __imp_??4?$CStringT@DV?$StrTraitMFC_DLL@DV?$ChTraitsCRT@D@ATL@@@@@ATL@@QAEAAV01@ABV01@@Z
  00273	8d 4d 98	 lea	 ecx, DWORD PTR $T7[ebp]
  00276	c6 45 fc 04	 mov	 BYTE PTR __$EHRec$[ebp+8], 4
  0027a	ff 15 00 00 00
	00		 call	 DWORD PTR __imp_??1?$CStringT@DV?$StrTraitMFC_DLL@DV?$ChTraitsCRT@D@ATL@@@@@ATL@@QAE@XZ
; File C:\Program Files (x86)\Microsoft Visual Studio\2019\Community\VC\Tools\MSVC\14.29.30133\atlmfc\include\afxcoll.inl

; 321  : 		SetAtGrow(nIndex, newElement);

  00280	8d 45 f0	 lea	 eax, DWORD PTR _strResultData$[ebp]
  00283	50		 push	 eax
  00284	ff 75 e0	 push	 DWORD PTR _ResultData$[ebp+8]
  00287	8d 4d d8	 lea	 ecx, DWORD PTR _ResultData$[ebp]
  0028a	e8 00 00 00 00	 call	 ?SetAtGrow@CStringArray@@QAEXHABV?$CStringT@DV?$StrTraitMFC_DLL@DV?$ChTraitsCRT@D@ATL@@@@@ATL@@@Z ; CStringArray::SetAtGrow
; File D:\git\src\IBK\IBK_DRFN\ProjSrc\SrcDrfn\Chart\INDEXOPTIMIZER\DlgTrade.cpp

; 163  : 		strResultData.Format(szParam1, Result->m_dAmount);

  0028f	f2 0f 10 46 20	 movsd	 xmm0, QWORD PTR [esi+32]
  00294	8d 45 f0	 lea	 eax, DWORD PTR _strResultData$[ebp]
  00297	83 ec 08	 sub	 esp, 8
  0029a	f2 0f 11 04 24	 movsd	 QWORD PTR [esp], xmm0
  0029f	ff 75 d4	 push	 DWORD PTR tv924[ebp]
  002a2	50		 push	 eax
  002a3	ff 15 00 00 00
	00		 call	 DWORD PTR __imp_?Format@?$CStringT@DV?$StrTraitMFC_DLL@DV?$ChTraitsCRT@D@ATL@@@@@ATL@@QAAXPBDZZ

; 164  : 		strResultData = m_pDlgOptimizer->m_DlgResult->GetComma(strResultData);

  002a9	8b 8f ac 00 00
	00		 mov	 ecx, DWORD PTR [edi+172]
  002af	8d 45 94	 lea	 eax, DWORD PTR $T6[ebp]
  002b2	83 c4 10	 add	 esp, 16			; 00000010H
  002b5	8b 89 80 0e 00
	00		 mov	 ecx, DWORD PTR [ecx+3712]
  002bb	ff 75 f0	 push	 DWORD PTR _strResultData$[ebp]
  002be	50		 push	 eax
  002bf	e8 00 00 00 00	 call	 ?GetComma@CDlgResult@@QAE?AV?$CStringT@DV?$StrTraitMFC_DLL@DV?$ChTraitsCRT@D@ATL@@@@@ATL@@PBD@Z ; CDlgResult::GetComma
  002c4	50		 push	 eax
  002c5	8d 4d f0	 lea	 ecx, DWORD PTR _strResultData$[ebp]
  002c8	c6 45 fc 07	 mov	 BYTE PTR __$EHRec$[ebp+8], 7
  002cc	ff 15 00 00 00
	00		 call	 DWORD PTR __imp_??4?$CStringT@DV?$StrTraitMFC_DLL@DV?$ChTraitsCRT@D@ATL@@@@@ATL@@QAEAAV01@ABV01@@Z
  002d2	8d 4d 94	 lea	 ecx, DWORD PTR $T6[ebp]
  002d5	c6 45 fc 04	 mov	 BYTE PTR __$EHRec$[ebp+8], 4
  002d9	ff 15 00 00 00
	00		 call	 DWORD PTR __imp_??1?$CStringT@DV?$StrTraitMFC_DLL@DV?$ChTraitsCRT@D@ATL@@@@@ATL@@QAE@XZ
; File C:\Program Files (x86)\Microsoft Visual Studio\2019\Community\VC\Tools\MSVC\14.29.30133\atlmfc\include\afxcoll.inl

; 321  : 		SetAtGrow(nIndex, newElement);

  002df	8d 45 f0	 lea	 eax, DWORD PTR _strResultData$[ebp]
  002e2	50		 push	 eax
  002e3	ff 75 e0	 push	 DWORD PTR _ResultData$[ebp+8]
  002e6	8d 4d d8	 lea	 ecx, DWORD PTR _ResultData$[ebp]
  002e9	e8 00 00 00 00	 call	 ?SetAtGrow@CStringArray@@QAEXHABV?$CStringT@DV?$StrTraitMFC_DLL@DV?$ChTraitsCRT@D@ATL@@@@@ATL@@@Z ; CStringArray::SetAtGrow
; File D:\git\src\IBK\IBK_DRFN\ProjSrc\SrcDrfn\Chart\INDEXOPTIMIZER\DlgTrade.cpp

; 168  : 		strResultData.Format(szParam1, Result->m_dProfit);

  002ee	f2 0f 10 46 38	 movsd	 xmm0, QWORD PTR [esi+56]
  002f3	8d 45 f0	 lea	 eax, DWORD PTR _strResultData$[ebp]
  002f6	83 ec 08	 sub	 esp, 8
  002f9	f2 0f 11 04 24	 movsd	 QWORD PTR [esp], xmm0
  002fe	ff 75 d4	 push	 DWORD PTR tv924[ebp]
  00301	50		 push	 eax
  00302	ff 15 00 00 00
	00		 call	 DWORD PTR __imp_?Format@?$CStringT@DV?$StrTraitMFC_DLL@DV?$ChTraitsCRT@D@ATL@@@@@ATL@@QAAXPBDZZ

; 169  : 		strResultData = m_pDlgOptimizer->m_DlgResult->GetComma(strResultData);

  00308	8b 8f ac 00 00
	00		 mov	 ecx, DWORD PTR [edi+172]
  0030e	8d 45 90	 lea	 eax, DWORD PTR $T5[ebp]
  00311	83 c4 10	 add	 esp, 16			; 00000010H
  00314	8b 89 80 0e 00
	00		 mov	 ecx, DWORD PTR [ecx+3712]
  0031a	ff 75 f0	 push	 DWORD PTR _strResultData$[ebp]
  0031d	50		 push	 eax
  0031e	e8 00 00 00 00	 call	 ?GetComma@CDlgResult@@QAE?AV?$CStringT@DV?$StrTraitMFC_DLL@DV?$ChTraitsCRT@D@ATL@@@@@ATL@@PBD@Z ; CDlgResult::GetComma
  00323	50		 push	 eax
  00324	8d 4d f0	 lea	 ecx, DWORD PTR _strResultData$[ebp]
  00327	c6 45 fc 08	 mov	 BYTE PTR __$EHRec$[ebp+8], 8
  0032b	ff 15 00 00 00
	00		 call	 DWORD PTR __imp_??4?$CStringT@DV?$StrTraitMFC_DLL@DV?$ChTraitsCRT@D@ATL@@@@@ATL@@QAEAAV01@ABV01@@Z
  00331	8d 4d 90	 lea	 ecx, DWORD PTR $T5[ebp]
  00334	c6 45 fc 04	 mov	 BYTE PTR __$EHRec$[ebp+8], 4
  00338	ff 15 00 00 00
	00		 call	 DWORD PTR __imp_??1?$CStringT@DV?$StrTraitMFC_DLL@DV?$ChTraitsCRT@D@ATL@@@@@ATL@@QAE@XZ
; File C:\Program Files (x86)\Microsoft Visual Studio\2019\Community\VC\Tools\MSVC\14.29.30133\atlmfc\include\afxcoll.inl

; 321  : 		SetAtGrow(nIndex, newElement);

  0033e	8d 45 f0	 lea	 eax, DWORD PTR _strResultData$[ebp]
  00341	50		 push	 eax
  00342	ff 75 e0	 push	 DWORD PTR _ResultData$[ebp+8]
  00345	8d 4d d8	 lea	 ecx, DWORD PTR _ResultData$[ebp]
  00348	e8 00 00 00 00	 call	 ?SetAtGrow@CStringArray@@QAEXHABV?$CStringT@DV?$StrTraitMFC_DLL@DV?$ChTraitsCRT@D@ATL@@@@@ATL@@@Z ; CStringArray::SetAtGrow
; File D:\git\src\IBK\IBK_DRFN\ProjSrc\SrcDrfn\Chart\INDEXOPTIMIZER\DlgTrade.cpp

; 173  : 		strResultData.Format(szParam1,Result->m_dProfitAccmulated);

  0034d	f2 0f 10 46 40	 movsd	 xmm0, QWORD PTR [esi+64]
  00352	8d 45 f0	 lea	 eax, DWORD PTR _strResultData$[ebp]
  00355	83 ec 08	 sub	 esp, 8
  00358	f2 0f 11 04 24	 movsd	 QWORD PTR [esp], xmm0
  0035d	ff 75 d4	 push	 DWORD PTR tv924[ebp]
  00360	50		 push	 eax
  00361	ff 15 00 00 00
	00		 call	 DWORD PTR __imp_?Format@?$CStringT@DV?$StrTraitMFC_DLL@DV?$ChTraitsCRT@D@ATL@@@@@ATL@@QAAXPBDZZ

; 174  : 		strResultData = m_pDlgOptimizer->m_DlgResult->GetComma(strResultData);		

  00367	8b 8f ac 00 00
	00		 mov	 ecx, DWORD PTR [edi+172]
  0036d	8d 45 8c	 lea	 eax, DWORD PTR $T4[ebp]
  00370	83 c4 10	 add	 esp, 16			; 00000010H
  00373	8b 89 80 0e 00
	00		 mov	 ecx, DWORD PTR [ecx+3712]
  00379	ff 75 f0	 push	 DWORD PTR _strResultData$[ebp]
  0037c	50		 push	 eax
  0037d	e8 00 00 00 00	 call	 ?GetComma@CDlgResult@@QAE?AV?$CStringT@DV?$StrTraitMFC_DLL@DV?$ChTraitsCRT@D@ATL@@@@@ATL@@PBD@Z ; CDlgResult::GetComma
  00382	50		 push	 eax
  00383	8d 4d f0	 lea	 ecx, DWORD PTR _strResultData$[ebp]
  00386	c6 45 fc 09	 mov	 BYTE PTR __$EHRec$[ebp+8], 9
  0038a	ff 15 00 00 00
	00		 call	 DWORD PTR __imp_??4?$CStringT@DV?$StrTraitMFC_DLL@DV?$ChTraitsCRT@D@ATL@@@@@ATL@@QAEAAV01@ABV01@@Z
  00390	8d 4d 8c	 lea	 ecx, DWORD PTR $T4[ebp]
  00393	c6 45 fc 04	 mov	 BYTE PTR __$EHRec$[ebp+8], 4
  00397	ff 15 00 00 00
	00		 call	 DWORD PTR __imp_??1?$CStringT@DV?$StrTraitMFC_DLL@DV?$ChTraitsCRT@D@ATL@@@@@ATL@@QAE@XZ
; File C:\Program Files (x86)\Microsoft Visual Studio\2019\Community\VC\Tools\MSVC\14.29.30133\atlmfc\include\afxcoll.inl

; 321  : 		SetAtGrow(nIndex, newElement);

  0039d	8d 45 f0	 lea	 eax, DWORD PTR _strResultData$[ebp]
  003a0	50		 push	 eax
  003a1	ff 75 e0	 push	 DWORD PTR _ResultData$[ebp+8]
  003a4	8d 4d d8	 lea	 ecx, DWORD PTR _ResultData$[ebp]
  003a7	e8 00 00 00 00	 call	 ?SetAtGrow@CStringArray@@QAEXHABV?$CStringT@DV?$StrTraitMFC_DLL@DV?$ChTraitsCRT@D@ATL@@@@@ATL@@@Z ; CStringArray::SetAtGrow
; File D:\git\src\IBK\IBK_DRFN\ProjSrc\SrcDrfn\Chart\INDEXOPTIMIZER\DlgTrade.cpp

; 178  : 		strResultData.Format("%.2f%%",Result->m_dProfitRate);

  003ac	f2 0f 10 46 48	 movsd	 xmm0, QWORD PTR [esi+72]
  003b1	8d 45 f0	 lea	 eax, DWORD PTR _strResultData$[ebp]
  003b4	83 ec 08	 sub	 esp, 8
  003b7	f2 0f 11 04 24	 movsd	 QWORD PTR [esp], xmm0
  003bc	68 00 00 00 00	 push	 OFFSET ??_C@_06NBGJEFCJ@?$CF?42f?$CF?$CF@
  003c1	50		 push	 eax
  003c2	ff 15 00 00 00
	00		 call	 DWORD PTR __imp_?Format@?$CStringT@DV?$StrTraitMFC_DLL@DV?$ChTraitsCRT@D@ATL@@@@@ATL@@QAAXPBDZZ
  003c8	83 c4 10	 add	 esp, 16			; 00000010H

; 179  : 		if(bNujuk)//

  003cb	83 7d ec 00	 cmp	 DWORD PTR _bNujuk$1$[ebp], 0
  003cf	74 3a		 je	 SHORT $LN77@SetDataSpr
; File C:\Program Files (x86)\Microsoft Visual Studio\2019\Community\VC\Tools\MSVC\14.29.30133\atlmfc\include\afxtempl.h

; 333  : 	{ INT_PTR nIndex = m_nSize;

  003d1	8b 45 a8	 mov	 eax, DWORD PTR _dGunSu$[ebp+8]
; File D:\git\src\IBK\IBK_DRFN\ProjSrc\SrcDrfn\Chart\INDEXOPTIMIZER\DlgTrade.cpp

; 180  : 			dGunSu.Add(Result->m_dProfitRate);

  003d4	f2 0f 10 46 48	 movsd	 xmm0, QWORD PTR [esi+72]
  003d9	f2 0f 11 85 78
	ff ff ff	 movsd	 QWORD PTR _newElement$1$[ebp], xmm0
; File C:\Program Files (x86)\Microsoft Visual Studio\2019\Community\VC\Tools\MSVC\14.29.30133\atlmfc\include\afxtempl.h

; 333  : 	{ INT_PTR nIndex = m_nSize;

  003e1	89 45 cc	 mov	 DWORD PTR _nIndex$1$[ebp], eax
  003e4	85 c0		 test	 eax, eax

; 538  : 	if(nIndex < 0)

  003e6	0f 88 18 03 00
	00		 js	 $LN135@SetDataSpr

; 539  : 		AfxThrowInvalidArgException();
; 540  : 
; 541  : 	if (nIndex >= m_nSize)
; 542  : 		SetSize(nIndex+1, -1);

  003ec	6a ff		 push	 -1
  003ee	40		 inc	 eax
  003ef	8d 4d a0	 lea	 ecx, DWORD PTR _dGunSu$[ebp]
  003f2	50		 push	 eax
  003f3	e8 00 00 00 00	 call	 ?SetSize@?$CArray@NN@@QAEXHH@Z ; CArray<double,double>::SetSize

; 543  : 	m_pData[nIndex] = newElement;

  003f8	8b 45 a4	 mov	 eax, DWORD PTR _dGunSu$[ebp+4]
  003fb	8b 4d cc	 mov	 ecx, DWORD PTR _nIndex$1$[ebp]
  003fe	f2 0f 10 85 78
	ff ff ff	 movsd	 xmm0, QWORD PTR _newElement$1$[ebp]
  00406	f2 0f 11 04 c8	 movsd	 QWORD PTR [eax+ecx*8], xmm0
$LN77@SetDataSpr:
; File D:\git\src\IBK\IBK_DRFN\ProjSrc\SrcDrfn\Chart\INDEXOPTIMIZER\DlgTrade.cpp

; 181  : 		strResultData = m_pDlgOptimizer->m_DlgResult->GetComma(strResultData);

  0040b	8b 8f ac 00 00
	00		 mov	 ecx, DWORD PTR [edi+172]
  00411	8d 45 88	 lea	 eax, DWORD PTR $T3[ebp]
  00414	ff 75 f0	 push	 DWORD PTR _strResultData$[ebp]
  00417	50		 push	 eax
  00418	8b 89 80 0e 00
	00		 mov	 ecx, DWORD PTR [ecx+3712]
  0041e	e8 00 00 00 00	 call	 ?GetComma@CDlgResult@@QAE?AV?$CStringT@DV?$StrTraitMFC_DLL@DV?$ChTraitsCRT@D@ATL@@@@@ATL@@PBD@Z ; CDlgResult::GetComma
  00423	50		 push	 eax
  00424	8d 4d f0	 lea	 ecx, DWORD PTR _strResultData$[ebp]
  00427	c6 45 fc 0a	 mov	 BYTE PTR __$EHRec$[ebp+8], 10 ; 0000000aH
  0042b	ff 15 00 00 00
	00		 call	 DWORD PTR __imp_??4?$CStringT@DV?$StrTraitMFC_DLL@DV?$ChTraitsCRT@D@ATL@@@@@ATL@@QAEAAV01@ABV01@@Z
  00431	8d 4d 88	 lea	 ecx, DWORD PTR $T3[ebp]
  00434	c6 45 fc 04	 mov	 BYTE PTR __$EHRec$[ebp+8], 4
  00438	ff 15 00 00 00
	00		 call	 DWORD PTR __imp_??1?$CStringT@DV?$StrTraitMFC_DLL@DV?$ChTraitsCRT@D@ATL@@@@@ATL@@QAE@XZ
; File C:\Program Files (x86)\Microsoft Visual Studio\2019\Community\VC\Tools\MSVC\14.29.30133\atlmfc\include\afxcoll.inl

; 321  : 		SetAtGrow(nIndex, newElement);

  0043e	8d 45 f0	 lea	 eax, DWORD PTR _strResultData$[ebp]
  00441	50		 push	 eax
  00442	ff 75 e0	 push	 DWORD PTR _ResultData$[ebp+8]
  00445	8d 4d d8	 lea	 ecx, DWORD PTR _ResultData$[ebp]
  00448	e8 00 00 00 00	 call	 ?SetAtGrow@CStringArray@@QAEXHABV?$CStringT@DV?$StrTraitMFC_DLL@DV?$ChTraitsCRT@D@ATL@@@@@ATL@@@Z ; CStringArray::SetAtGrow
; File D:\git\src\IBK\IBK_DRFN\ProjSrc\SrcDrfn\Chart\INDEXOPTIMIZER\DlgTrade.cpp

; 184  : 		if(bNujuk)

  0044d	83 7d ec 00	 cmp	 DWORD PTR _bNujuk$1$[ebp], 0
  00451	74 3f		 je	 SHORT $LN91@SetDataSpr

; 185  : 			dSonIk.Add(atof(strResultData));

  00453	ff 75 f0	 push	 DWORD PTR _strResultData$[ebp]
  00456	ff 15 00 00 00
	00		 call	 DWORD PTR __imp__atof
; File C:\Program Files (x86)\Microsoft Visual Studio\2019\Community\VC\Tools\MSVC\14.29.30133\atlmfc\include\afxtempl.h

; 333  : 	{ INT_PTR nIndex = m_nSize;

  0045c	8b 45 bc	 mov	 eax, DWORD PTR _dSonIk$[ebp+8]
; File D:\git\src\IBK\IBK_DRFN\ProjSrc\SrcDrfn\Chart\INDEXOPTIMIZER\DlgTrade.cpp

; 185  : 			dSonIk.Add(atof(strResultData));

  0045f	83 c4 04	 add	 esp, 4
; File C:\Program Files (x86)\Microsoft Visual Studio\2019\Community\VC\Tools\MSVC\14.29.30133\atlmfc\include\afxtempl.h

; 333  : 	{ INT_PTR nIndex = m_nSize;

  00462	89 45 cc	 mov	 DWORD PTR _nIndex$1$[ebp], eax
; File D:\git\src\IBK\IBK_DRFN\ProjSrc\SrcDrfn\Chart\INDEXOPTIMIZER\DlgTrade.cpp

; 185  : 			dSonIk.Add(atof(strResultData));

  00465	dd 9d 78 ff ff
	ff		 fstp	 QWORD PTR _newElement$[ebp]
; File C:\Program Files (x86)\Microsoft Visual Studio\2019\Community\VC\Tools\MSVC\14.29.30133\atlmfc\include\afxtempl.h

; 333  : 	{ INT_PTR nIndex = m_nSize;

  0046b	85 c0		 test	 eax, eax

; 538  : 	if(nIndex < 0)

  0046d	0f 88 91 02 00
	00		 js	 $LN135@SetDataSpr

; 539  : 		AfxThrowInvalidArgException();
; 540  : 
; 541  : 	if (nIndex >= m_nSize)
; 542  : 		SetSize(nIndex+1, -1);

  00473	6a ff		 push	 -1
  00475	40		 inc	 eax
  00476	8d 4d b4	 lea	 ecx, DWORD PTR _dSonIk$[ebp]
  00479	50		 push	 eax
  0047a	e8 00 00 00 00	 call	 ?SetSize@?$CArray@NN@@QAEXHH@Z ; CArray<double,double>::SetSize

; 543  : 	m_pData[nIndex] = newElement;

  0047f	8b 45 b8	 mov	 eax, DWORD PTR _dSonIk$[ebp+4]
  00482	8b 4d cc	 mov	 ecx, DWORD PTR _nIndex$1$[ebp]
  00485	f2 0f 10 85 78
	ff ff ff	 movsd	 xmm0, QWORD PTR _newElement$[ebp]
  0048d	f2 0f 11 04 c8	 movsd	 QWORD PTR [eax+ecx*8], xmm0
$LN91@SetDataSpr:
; File D:\git\src\IBK\IBK_DRFN\ProjSrc\SrcDrfn\Chart\INDEXOPTIMIZER\DlgTrade.cpp

; 187  : 		strResultData.Format("%.2f%%",Result->m_dProfitRateAccmulated);//

  00492	f2 0f 10 46 50	 movsd	 xmm0, QWORD PTR [esi+80]
  00497	8d 45 f0	 lea	 eax, DWORD PTR _strResultData$[ebp]
  0049a	83 ec 08	 sub	 esp, 8
  0049d	f2 0f 11 04 24	 movsd	 QWORD PTR [esp], xmm0
  004a2	68 00 00 00 00	 push	 OFFSET ??_C@_06NBGJEFCJ@?$CF?42f?$CF?$CF@
  004a7	50		 push	 eax
  004a8	ff 15 00 00 00
	00		 call	 DWORD PTR __imp_?Format@?$CStringT@DV?$StrTraitMFC_DLL@DV?$ChTraitsCRT@D@ATL@@@@@ATL@@QAAXPBDZZ

; 188  : 		strResultData = m_pDlgOptimizer->m_DlgResult->GetComma(strResultData);

  004ae	8b 8f ac 00 00
	00		 mov	 ecx, DWORD PTR [edi+172]
  004b4	8d 45 84	 lea	 eax, DWORD PTR $T2[ebp]
  004b7	83 c4 10	 add	 esp, 16			; 00000010H
  004ba	8b 89 80 0e 00
	00		 mov	 ecx, DWORD PTR [ecx+3712]
  004c0	ff 75 f0	 push	 DWORD PTR _strResultData$[ebp]
  004c3	50		 push	 eax
  004c4	e8 00 00 00 00	 call	 ?GetComma@CDlgResult@@QAE?AV?$CStringT@DV?$StrTraitMFC_DLL@DV?$ChTraitsCRT@D@ATL@@@@@ATL@@PBD@Z ; CDlgResult::GetComma
  004c9	50		 push	 eax
  004ca	8d 4d f0	 lea	 ecx, DWORD PTR _strResultData$[ebp]
  004cd	c6 45 fc 0b	 mov	 BYTE PTR __$EHRec$[ebp+8], 11 ; 0000000bH
  004d1	ff 15 00 00 00
	00		 call	 DWORD PTR __imp_??4?$CStringT@DV?$StrTraitMFC_DLL@DV?$ChTraitsCRT@D@ATL@@@@@ATL@@QAEAAV01@ABV01@@Z
  004d7	8d 4d 84	 lea	 ecx, DWORD PTR $T2[ebp]
  004da	c6 45 fc 04	 mov	 BYTE PTR __$EHRec$[ebp+8], 4
  004de	ff 15 00 00 00
	00		 call	 DWORD PTR __imp_??1?$CStringT@DV?$StrTraitMFC_DLL@DV?$ChTraitsCRT@D@ATL@@@@@ATL@@QAE@XZ

; 189  : 
; 190  : 		if(bNujuk)

  004e4	83 7d ec 00	 cmp	 DWORD PTR _bNujuk$1$[ebp], 0
  004e8	74 15		 je	 SHORT $LN19@SetDataSpr
; File C:\Program Files (x86)\Microsoft Visual Studio\2019\Community\VC\Tools\MSVC\14.29.30133\atlmfc\include\afxcoll.inl

; 321  : 		SetAtGrow(nIndex, newElement);

  004ea	8d 45 f0	 lea	 eax, DWORD PTR _strResultData$[ebp]
  004ed	50		 push	 eax
  004ee	ff b5 6c ff ff
	ff		 push	 DWORD PTR _stNujukArray$[ebp+8]
  004f4	8d 8d 64 ff ff
	ff		 lea	 ecx, DWORD PTR _stNujukArray$[ebp]
  004fa	e8 00 00 00 00	 call	 ?SetAtGrow@CStringArray@@QAEXHABV?$CStringT@DV?$StrTraitMFC_DLL@DV?$ChTraitsCRT@D@ATL@@@@@ATL@@@Z ; CStringArray::SetAtGrow
$LN19@SetDataSpr:
  004ff	8d 45 f0	 lea	 eax, DWORD PTR _strResultData$[ebp]
  00502	50		 push	 eax
  00503	ff 75 e0	 push	 DWORD PTR _ResultData$[ebp+8]
  00506	8d 4d d8	 lea	 ecx, DWORD PTR _ResultData$[ebp]
  00509	e8 00 00 00 00	 call	 ?SetAtGrow@CStringArray@@QAEXHABV?$CStringT@DV?$StrTraitMFC_DLL@DV?$ChTraitsCRT@D@ATL@@@@@ATL@@@Z ; CStringArray::SetAtGrow
; File D:\git\src\IBK\IBK_DRFN\ProjSrc\SrcDrfn\Chart\INDEXOPTIMIZER\DlgTrade.cpp

; 195  : 		m_TradeGridCtrl.InsertRow("");

  0050e	6a ff		 push	 -1
  00510	68 00 00 00 00	 push	 OFFSET ??_C@_00CNPNBAHC@@
  00515	8b cb		 mov	 ecx, ebx
  00517	e8 00 00 00 00	 call	 ?InsertRow@CGridCtrl@@QAEHPBDH@Z ; CGridCtrl::InsertRow

; 196  : 		for(int col = 0 ; col < ResultData.GetSize(); col++)

  0051c	8b 45 e0	 mov	 eax, DWORD PTR _ResultData$[ebp+8]
  0051f	33 f6		 xor	 esi, esi
  00521	85 c0		 test	 eax, eax
  00523	0f 8e 02 01 00
	00		 jle	 $LN2@SetDataSpr
  00529	0f 1f 80 00 00
	00 00		 npad	 7
$LL9@SetDataSpr:
; File C:\Program Files (x86)\Microsoft Visual Studio\2019\Community\VC\Tools\MSVC\14.29.30133\atlmfc\include\afxcoll.inl

; 289  : 		if( nIndex < 0 || nIndex >= m_nSize )

  00530	85 f6		 test	 esi, esi
  00532	0f 88 cc 01 00
	00		 js	 $LN135@SetDataSpr
  00538	3b f0		 cmp	 esi, eax
  0053a	0f 8d c4 01 00
	00		 jge	 $LN135@SetDataSpr

; 291  : 		return m_pData[nIndex]; }

  00540	8b 45 dc	 mov	 eax, DWORD PTR _ResultData$[ebp+4]
; File D:\git\src\IBK\IBK_DRFN\ProjSrc\SrcDrfn\Chart\INDEXOPTIMIZER\DlgTrade.cpp

; 198  : 			strResultData = ResultData.GetAt(col);

  00543	8d 4d f0	 lea	 ecx, DWORD PTR _strResultData$[ebp]
; File C:\Program Files (x86)\Microsoft Visual Studio\2019\Community\VC\Tools\MSVC\14.29.30133\atlmfc\include\afxcoll.inl

; 291  : 		return m_pData[nIndex]; }

  00546	8d 04 b0	 lea	 eax, DWORD PTR [eax+esi*4]
; File D:\git\src\IBK\IBK_DRFN\ProjSrc\SrcDrfn\Chart\INDEXOPTIMIZER\DlgTrade.cpp

; 198  : 			strResultData = ResultData.GetAt(col);

  00549	50		 push	 eax
  0054a	ff 15 00 00 00
	00		 call	 DWORD PTR __imp_??4?$CStringT@DV?$StrTraitMFC_DLL@DV?$ChTraitsCRT@D@ATL@@@@@ATL@@QAEAAV01@ABV01@@Z

; 199  : 			m_TradeGridCtrl.SetItemText(m_TradeGridCtrl.GetRowCount()-1, col, strResultData,nFormat);

  00550	8b 87 e0 01 00
	00		 mov	 eax, DWORD PTR [edi+480]
  00556	8b cb		 mov	 ecx, ebx
  00558	68 26 08 00 00	 push	 2086			; 00000826H
  0055d	ff 75 f0	 push	 DWORD PTR _strResultData$[ebp]
  00560	48		 dec	 eax
  00561	56		 push	 esi
  00562	50		 push	 eax
  00563	e8 00 00 00 00	 call	 ?SetItemText@CGridCtrl@@QAEHHHPBDK@Z ; CGridCtrl::SetItemText
; File C:\Program Files (x86)\Microsoft Visual Studio\2019\Community\VC\Tools\MSVC\14.29.30133\atlmfc\include\cstringt.h

; 2486 : 		return(str1.Compare(psz2) == 0);

  00568	68 00 00 00 00	 push	 OFFSET ??_C@_08PFEOEOFA@?$LI?E?$LM?v?C?$LL?$LL?j@
  0056d	8d 4d f0	 lea	 ecx, DWORD PTR _strResultData$[ebp]
  00570	ff 15 00 00 00
	00		 call	 DWORD PTR __imp_?Compare@?$CStringT@DV?$StrTraitMFC_DLL@DV?$ChTraitsCRT@D@ATL@@@@@ATL@@QBEHPBD@Z
  00576	85 c0		 test	 eax, eax
; File D:\git\src\IBK\IBK_DRFN\ProjSrc\SrcDrfn\Chart\INDEXOPTIMIZER\DlgTrade.cpp

; 200  : 			if(strResultData== ""||strResultData == "")

  00578	74 52		 je	 SHORT $LN22@SetDataSpr
; File C:\Program Files (x86)\Microsoft Visual Studio\2019\Community\VC\Tools\MSVC\14.29.30133\atlmfc\include\cstringt.h

; 2486 : 		return(str1.Compare(psz2) == 0);

  0057a	68 00 00 00 00	 push	 OFFSET ??_C@_08OJBKHDEB@?$LI?E?$LF?$LF?C?$LL?$LL?j@
  0057f	8d 4d f0	 lea	 ecx, DWORD PTR _strResultData$[ebp]
  00582	ff 15 00 00 00
	00		 call	 DWORD PTR __imp_?Compare@?$CStringT@DV?$StrTraitMFC_DLL@DV?$ChTraitsCRT@D@ATL@@@@@ATL@@QBEHPBD@Z
  00588	85 c0		 test	 eax, eax
; File D:\git\src\IBK\IBK_DRFN\ProjSrc\SrcDrfn\Chart\INDEXOPTIMIZER\DlgTrade.cpp

; 200  : 			if(strResultData== ""||strResultData == "")

  0058a	74 40		 je	 SHORT $LN22@SetDataSpr
; File C:\Program Files (x86)\Microsoft Visual Studio\2019\Community\VC\Tools\MSVC\14.29.30133\atlmfc\include\cstringt.h

; 2486 : 		return(str1.Compare(psz2) == 0);

  0058c	68 00 00 00 00	 push	 OFFSET ??_C@_08BPEOHGCP@?$LI?E?$LM?v?A?x?$MA?T@
  00591	8d 4d f0	 lea	 ecx, DWORD PTR _strResultData$[ebp]
  00594	ff 15 00 00 00
	00		 call	 DWORD PTR __imp_?Compare@?$CStringT@DV?$StrTraitMFC_DLL@DV?$ChTraitsCRT@D@ATL@@@@@ATL@@QBEHPBD@Z
  0059a	85 c0		 test	 eax, eax
; File D:\git\src\IBK\IBK_DRFN\ProjSrc\SrcDrfn\Chart\INDEXOPTIMIZER\DlgTrade.cpp

; 205  : 			else if(strResultData == ""||strResultData == "" )

  0059c	74 12		 je	 SHORT $LN24@SetDataSpr
; File C:\Program Files (x86)\Microsoft Visual Studio\2019\Community\VC\Tools\MSVC\14.29.30133\atlmfc\include\cstringt.h

; 2486 : 		return(str1.Compare(psz2) == 0);

  0059e	68 00 00 00 00	 push	 OFFSET ??_C@_08DBKELDO@?$LI?E?$LF?$LF?A?x?$MA?T@
  005a3	8d 4d f0	 lea	 ecx, DWORD PTR _strResultData$[ebp]
  005a6	ff 15 00 00 00
	00		 call	 DWORD PTR __imp_?Compare@?$CStringT@DV?$StrTraitMFC_DLL@DV?$ChTraitsCRT@D@ATL@@@@@ATL@@QBEHPBD@Z
  005ac	85 c0		 test	 eax, eax
; File D:\git\src\IBK\IBK_DRFN\ProjSrc\SrcDrfn\Chart\INDEXOPTIMIZER\DlgTrade.cpp

; 205  : 			else if(strResultData == ""||strResultData == "" )

  005ae	75 49		 jne	 SHORT $LN23@SetDataSpr
$LN24@SetDataSpr:

; 206  : 			{
; 207  : 				m_TradeGridCtrl.SetItemFgColour(m_TradeGridCtrl.GetRowCount()-1,col,RGB(255,0,0));

  005b0	8b 87 e0 01 00
	00		 mov	 eax, DWORD PTR [edi+480]
  005b6	8b cb		 mov	 ecx, ebx
  005b8	68 ff 00 00 00	 push	 255			; 000000ffH
  005bd	56		 push	 esi
  005be	48		 dec	 eax
  005bf	50		 push	 eax
  005c0	e8 00 00 00 00	 call	 ?SetItemFgColour@CGridCtrl@@QAEHHHK@Z ; CGridCtrl::SetItemFgColour

; 208  : 				m_TradeGridCtrl.SetItemFgColour(m_TradeGridCtrl.GetRowCount()-1,col+1,RGB(255,0,0));

  005c5	68 ff 00 00 00	 push	 255			; 000000ffH
  005ca	eb 1a		 jmp	 SHORT $LN157@SetDataSpr
$LN22@SetDataSpr:

; 201  : 			{
; 202  : 				m_TradeGridCtrl.SetItemFgColour(m_TradeGridCtrl.GetRowCount()-1,col,RGB(0,0,255));

  005cc	8b 87 e0 01 00
	00		 mov	 eax, DWORD PTR [edi+480]
  005d2	8b cb		 mov	 ecx, ebx
  005d4	68 00 00 ff 00	 push	 16711680		; 00ff0000H
  005d9	56		 push	 esi
  005da	48		 dec	 eax
  005db	50		 push	 eax
  005dc	e8 00 00 00 00	 call	 ?SetItemFgColour@CGridCtrl@@QAEHHHK@Z ; CGridCtrl::SetItemFgColour

; 203  : 				m_TradeGridCtrl.SetItemFgColour(m_TradeGridCtrl.GetRowCount()-1,col+1,RGB(0,0,255));

  005e1	68 00 00 ff 00	 push	 16711680		; 00ff0000H
$LN157@SetDataSpr:

; 209  : 			}
; 210  : 
; 211  : 			if(strResultData.Find('-')>=0)

  005e6	8d 46 01	 lea	 eax, DWORD PTR [esi+1]
  005e9	8b cb		 mov	 ecx, ebx
  005eb	50		 push	 eax
  005ec	8b 87 e0 01 00
	00		 mov	 eax, DWORD PTR [edi+480]
  005f2	48		 dec	 eax
  005f3	50		 push	 eax
  005f4	e8 00 00 00 00	 call	 ?SetItemFgColour@CGridCtrl@@QAEHHHK@Z ; CGridCtrl::SetItemFgColour
$LN23@SetDataSpr:
  005f9	6a 00		 push	 0
  005fb	6a 2d		 push	 45			; 0000002dH
  005fd	8d 4d f0	 lea	 ecx, DWORD PTR _strResultData$[ebp]
  00600	ff 15 00 00 00
	00		 call	 DWORD PTR __imp_?Find@?$CStringT@DV?$StrTraitMFC_DLL@DV?$ChTraitsCRT@D@ATL@@@@@ATL@@QBEHDH@Z
  00606	85 c0		 test	 eax, eax
  00608	78 15		 js	 SHORT $LN7@SetDataSpr

; 212  : 				m_TradeGridCtrl.SetItemFgColour(m_TradeGridCtrl.GetRowCount()-1,col,RGB(0,0,255));

  0060a	8b 87 e0 01 00
	00		 mov	 eax, DWORD PTR [edi+480]
  00610	8b cb		 mov	 ecx, ebx
  00612	68 00 00 ff 00	 push	 16711680		; 00ff0000H
  00617	56		 push	 esi
  00618	48		 dec	 eax
  00619	50		 push	 eax
  0061a	e8 00 00 00 00	 call	 ?SetItemFgColour@CGridCtrl@@QAEHHHK@Z ; CGridCtrl::SetItemFgColour
$LN7@SetDataSpr:

; 196  : 		for(int col = 0 ; col < ResultData.GetSize(); col++)

  0061f	8b 45 e0	 mov	 eax, DWORD PTR _ResultData$[ebp+8]
  00622	46		 inc	 esi
  00623	3b f0		 cmp	 esi, eax
  00625	0f 8c 05 ff ff
	ff		 jl	 $LL9@SetDataSpr
$LN2@SetDataSpr:

; 119  : 
; 120  : 	char* szParam1 = "%.2f";
; 121  : 	if(m_pDlgOptimizer->m_nCodeType == 0)	szParam1 = "%2.f";
; 122  : 
; 123  : 	for(int i =0 ;i < nSize; i++)

  0062b	8b 4d d0	 mov	 ecx, DWORD PTR _i$1$[ebp]
  0062e	3b 4d c8	 cmp	 ecx, DWORD PTR _nSize$1$[ebp]
  00631	7d 08		 jge	 SHORT $LN151@SetDataSpr
  00633	8b 75 80	 mov	 esi, DWORD PTR _Strate$1$[ebp]
  00636	e9 bd fa ff ff	 jmp	 $LL4@SetDataSpr
$LN151@SetDataSpr:

; 216  : 	if(m_pDlgOptimizer && m_pDlgOptimizer->m_DlgSooik->GetSafeHwnd()!=NULL)

  0063b	8b 8f ac 00 00
	00		 mov	 ecx, DWORD PTR [edi+172]
  00641	85 c9		 test	 ecx, ecx
  00643	74 63		 je	 SHORT $LN26@SetDataSpr
  00645	8b 89 84 0e 00
	00		 mov	 ecx, DWORD PTR [ecx+3716]
; File C:\Program Files (x86)\Microsoft Visual Studio\2019\Community\VC\Tools\MSVC\14.29.30133\atlmfc\include\afxwin2.inl

; 25   : 	{ return this == NULL ? NULL : m_hWnd; }

  0064b	85 c9		 test	 ecx, ecx
  0064d	74 59		 je	 SHORT $LN26@SetDataSpr
; File D:\git\src\IBK\IBK_DRFN\ProjSrc\SrcDrfn\Chart\INDEXOPTIMIZER\DlgTrade.cpp

; 216  : 	if(m_pDlgOptimizer && m_pDlgOptimizer->m_DlgSooik->GetSafeHwnd()!=NULL)

  0064f	83 79 20 00	 cmp	 DWORD PTR [ecx+32], 0
  00653	74 53		 je	 SHORT $LN26@SetDataSpr

; 217  : 	{
; 218  : 		m_pDlgOptimizer->m_DlgSooik->PrepareShow(stNujukArray.GetSize());

  00655	ff b5 6c ff ff
	ff		 push	 DWORD PTR _stNujukArray$[ebp+8]
  0065b	e8 00 00 00 00	 call	 ?PrepareShow@CTabSoonikChart@@QAEXH@Z ; CTabSoonikChart::PrepareShow

; 219  : 		m_pDlgOptimizer->m_DlgSooik->ShowData2Chart(stNujukArray,stNujukArray.GetSize());

  00660	8b 8f ac 00 00
	00		 mov	 ecx, DWORD PTR [edi+172]
  00666	8d 85 64 ff ff
	ff		 lea	 eax, DWORD PTR _stNujukArray$[ebp]
  0066c	ff b5 6c ff ff
	ff		 push	 DWORD PTR _stNujukArray$[ebp+8]
  00672	50		 push	 eax
  00673	8b 89 84 0e 00
	00		 mov	 ecx, DWORD PTR [ecx+3716]
  00679	e8 00 00 00 00	 call	 ?ShowData2Chart@CTabSoonikChart@@QAEXAAVCStringArray@@H@Z ; CTabSoonikChart::ShowData2Chart

; 220  : 		m_pDlgOptimizer->m_DlgSooik->ShowData1Chart((long)&dGunSu);

  0067e	8b 8f ac 00 00
	00		 mov	 ecx, DWORD PTR [edi+172]
  00684	8d 45 a0	 lea	 eax, DWORD PTR _dGunSu$[ebp]
  00687	50		 push	 eax
  00688	8b 89 84 0e 00
	00		 mov	 ecx, DWORD PTR [ecx+3716]
  0068e	e8 00 00 00 00	 call	 ?ShowData1Chart@CTabSoonikChart@@QAEXJ@Z ; CTabSoonikChart::ShowData1Chart

; 221  : 		m_pDlgOptimizer->m_DlgSonik->ShowData1Chart((long)&dSonIk);// :  

  00693	8b 8f ac 00 00
	00		 mov	 ecx, DWORD PTR [edi+172]
  00699	8d 45 b4	 lea	 eax, DWORD PTR _dSonIk$[ebp]
  0069c	50		 push	 eax
  0069d	8b 89 88 0e 00
	00		 mov	 ecx, DWORD PTR [ecx+3720]
  006a3	e8 00 00 00 00	 call	 ?ShowData1Chart@CTabSonikChart@@QAEXJ@Z ; CTabSonikChart::ShowData1Chart
$LN26@SetDataSpr:
; File C:\Program Files (x86)\Microsoft Visual Studio\2019\Community\VC\Tools\MSVC\14.29.30133\atlmfc\include\afxtempl.h

; 358  : 	if (m_pData != NULL)

  006a8	8b 45 b8	 mov	 eax, DWORD PTR _dSonIk$[ebp+4]
  006ab	c7 45 b4 00 00
	00 00		 mov	 DWORD PTR _dSonIk$[ebp], OFFSET ??_7?$CArray@NN@@6B@
  006b2	85 c0		 test	 eax, eax
  006b4	74 09		 je	 SHORT $LN121@SetDataSpr

; 359  : 	{
; 360  : 		for( int i = 0; i < m_nSize; i++ )
; 361  : 			(m_pData + i)->~TYPE();
; 362  : 		delete[] (BYTE*)m_pData;

  006b6	50		 push	 eax
  006b7	e8 00 00 00 00	 call	 ??_V@YAXPAX@Z		; operator delete[]
  006bc	83 c4 04	 add	 esp, 4
$LN121@SetDataSpr:

; 358  : 	if (m_pData != NULL)

  006bf	8b 45 a4	 mov	 eax, DWORD PTR _dGunSu$[ebp+4]
  006c2	c7 45 a0 00 00
	00 00		 mov	 DWORD PTR _dGunSu$[ebp], OFFSET ??_7?$CArray@NN@@6B@
  006c9	85 c0		 test	 eax, eax
  006cb	74 09		 je	 SHORT $LN128@SetDataSpr

; 359  : 	{
; 360  : 		for( int i = 0; i < m_nSize; i++ )
; 361  : 			(m_pData + i)->~TYPE();
; 362  : 		delete[] (BYTE*)m_pData;

  006cd	50		 push	 eax
  006ce	e8 00 00 00 00	 call	 ??_V@YAXPAX@Z		; operator delete[]
  006d3	83 c4 04	 add	 esp, 4
$LN128@SetDataSpr:
; File D:\git\src\IBK\IBK_DRFN\ProjSrc\SrcDrfn\Chart\INDEXOPTIMIZER\DlgTrade.cpp

; 223  : }

  006d6	8d 8d 64 ff ff
	ff		 lea	 ecx, DWORD PTR _stNujukArray$[ebp]
  006dc	e8 00 00 00 00	 call	 ??1CStringArray@@UAE@XZ	; CStringArray::~CStringArray
  006e1	8d 4d d8	 lea	 ecx, DWORD PTR _ResultData$[ebp]
  006e4	e8 00 00 00 00	 call	 ??1CStringArray@@UAE@XZ	; CStringArray::~CStringArray
  006e9	8d 4d f0	 lea	 ecx, DWORD PTR _strResultData$[ebp]
  006ec	ff 15 00 00 00
	00		 call	 DWORD PTR __imp_??1?$CStringT@DV?$StrTraitMFC_DLL@DV?$ChTraitsCRT@D@ATL@@@@@ATL@@QAE@XZ
  006f2	8b 4d f4	 mov	 ecx, DWORD PTR __$EHRec$[ebp]
  006f5	64 89 0d 00 00
	00 00		 mov	 DWORD PTR fs:0, ecx
  006fc	59		 pop	 ecx
  006fd	5f		 pop	 edi
  006fe	5e		 pop	 esi
  006ff	5b		 pop	 ebx
  00700	8b e5		 mov	 esp, ebp
  00702	5d		 pop	 ebp
  00703	c3		 ret	 0
$LN135@SetDataSpr:
; File C:\Program Files (x86)\Microsoft Visual Studio\2019\Community\VC\Tools\MSVC\14.29.30133\atlmfc\include\afxcoll.inl

; 290  : 			AfxThrowInvalidArgException();

  00704	e8 00 00 00 00	 call	 ?AfxThrowInvalidArgException@@YGXXZ ; AfxThrowInvalidArgException
$LN154@SetDataSpr:
  00709	0f 1f 00	 npad	 3
$LN152@SetDataSpr:
; File D:\git\src\IBK\IBK_DRFN\ProjSrc\SrcDrfn\Chart\INDEXOPTIMIZER\DlgTrade.cpp

; 223  : }

  0070c	00 00 00 00	 DD	 $LN12@SetDataSpr
  00710	00 00 00 00	 DD	 $LN13@SetDataSpr
  00714	00 00 00 00	 DD	 $LN14@SetDataSpr
  00718	00 00 00 00	 DD	 $LN15@SetDataSpr
  0071c	00 00 00 00	 DD	 $LN16@SetDataSpr
_TEXT	ENDS
;	COMDAT text$x
text$x	SEGMENT
__unwindfunclet$?SetDataSpreadGrid@CDlgTrade@@QAEXXZ$0:
  00000	8d 4d f0	 lea	 ecx, DWORD PTR _strResultData$[ebp]
  00003	ff 25 00 00 00
	00		 jmp	 DWORD PTR __imp_??1?$CStringT@DV?$StrTraitMFC_DLL@DV?$ChTraitsCRT@D@ATL@@@@@ATL@@QAE@XZ
__unwindfunclet$?SetDataSpreadGrid@CDlgTrade@@QAEXXZ$1:
  00009	8d 4d d8	 lea	 ecx, DWORD PTR _ResultData$[ebp]
  0000c	e9 00 00 00 00	 jmp	 ??1CStringArray@@UAE@XZ	; CStringArray::~CStringArray
__unwindfunclet$?SetDataSpreadGrid@CDlgTrade@@QAEXXZ$2:
  00011	8d 8d 64 ff ff
	ff		 lea	 ecx, DWORD PTR _stNujukArray$[ebp]
  00017	e9 00 00 00 00	 jmp	 ??1CStringArray@@UAE@XZ	; CStringArray::~CStringArray
__unwindfunclet$?SetDataSpreadGrid@CDlgTrade@@QAEXXZ$3:
  0001c	8d 4d a0	 lea	 ecx, DWORD PTR _dGunSu$[ebp]
  0001f	e9 00 00 00 00	 jmp	 ??1?$CArray@NN@@UAE@XZ	; CArray<double,double>::~CArray<double,double>
__unwindfunclet$?SetDataSpreadGrid@CDlgTrade@@QAEXXZ$4:
  00024	8d 4d b4	 lea	 ecx, DWORD PTR _dSonIk$[ebp]
  00027	e9 00 00 00 00	 jmp	 ??1?$CArray@NN@@UAE@XZ	; CArray<double,double>::~CArray<double,double>
__unwindfunclet$?SetDataSpreadGrid@CDlgTrade@@QAEXXZ$5:
  0002c	8d 4d 9c	 lea	 ecx, DWORD PTR $T8[ebp]
  0002f	ff 25 00 00 00
	00		 jmp	 DWORD PTR __imp_??1?$CStringT@DV?$StrTraitMFC_DLL@DV?$ChTraitsCRT@D@ATL@@@@@ATL@@QAE@XZ
__unwindfunclet$?SetDataSpreadGrid@CDlgTrade@@QAEXXZ$6:
  00035	8d 4d 98	 lea	 ecx, DWORD PTR $T7[ebp]
  00038	ff 25 00 00 00
	00		 jmp	 DWORD PTR __imp_??1?$CStringT@DV?$StrTraitMFC_DLL@DV?$ChTraitsCRT@D@ATL@@@@@ATL@@QAE@XZ
__unwindfunclet$?SetDataSpreadGrid@CDlgTrade@@QAEXXZ$7:
  0003e	8d 4d 94	 lea	 ecx, DWORD PTR $T6[ebp]
  00041	ff 25 00 00 00
	00		 jmp	 DWORD PTR __imp_??1?$CStringT@DV?$StrTraitMFC_DLL@DV?$ChTraitsCRT@D@ATL@@@@@ATL@@QAE@XZ
__unwindfunclet$?SetDataSpreadGrid@CDlgTrade@@QAEXXZ$8:
  00047	8d 4d 90	 lea	 ecx, DWORD PTR $T5[ebp]
  0004a	ff 25 00 00 00
	00		 jmp	 DWORD PTR __imp_??1?$CStringT@DV?$StrTraitMFC_DLL@DV?$ChTraitsCRT@D@ATL@@@@@ATL@@QAE@XZ
__unwindfunclet$?SetDataSpreadGrid@CDlgTrade@@QAEXXZ$9:
  00050	8d 4d 8c	 lea	 ecx, DWORD PTR $T4[ebp]
  00053	ff 25 00 00 00
	00		 jmp	 DWORD PTR __imp_??1?$CStringT@DV?$StrTraitMFC_DLL@DV?$ChTraitsCRT@D@ATL@@@@@ATL@@QAE@XZ
__unwindfunclet$?SetDataSpreadGrid@CDlgTrade@@QAEXXZ$10:
  00059	8d 4d 88	 lea	 ecx, DWORD PTR $T3[ebp]
  0005c	ff 25 00 00 00
	00		 jmp	 DWORD PTR __imp_??1?$CStringT@DV?$StrTraitMFC_DLL@DV?$ChTraitsCRT@D@ATL@@@@@ATL@@QAE@XZ
__unwindfunclet$?SetDataSpreadGrid@CDlgTrade@@QAEXXZ$11:
  00062	8d 4d 84	 lea	 ecx, DWORD PTR $T2[ebp]
  00065	ff 25 00 00 00
	00		 jmp	 DWORD PTR __imp_??1?$CStringT@DV?$StrTraitMFC_DLL@DV?$ChTraitsCRT@D@ATL@@@@@ATL@@QAE@XZ
  0006b	cc		 int	 3
  0006c	cc		 int	 3
  0006d	cc		 int	 3
  0006e	cc		 int	 3
  0006f	cc		 int	 3
__ehhandler$?SetDataSpreadGrid@CDlgTrade@@QAEXXZ:
  00070	90		 npad	 1
  00071	90		 npad	 1
  00072	8b 54 24 08	 mov	 edx, DWORD PTR [esp+8]
  00076	8d 42 0c	 lea	 eax, DWORD PTR [edx+12]
  00079	8b 8a 60 ff ff
	ff		 mov	 ecx, DWORD PTR [edx-160]
  0007f	33 c8		 xor	 ecx, eax
  00081	e8 00 00 00 00	 call	 @__security_check_cookie@4
  00086	b8 00 00 00 00	 mov	 eax, OFFSET __ehfuncinfo$?SetDataSpreadGrid@CDlgTrade@@QAEXXZ
  0008b	e9 00 00 00 00	 jmp	 ___CxxFrameHandler3
text$x	ENDS
?SetDataSpreadGrid@CDlgTrade@@QAEXXZ ENDP		; CDlgTrade::SetDataSpreadGrid
; Function compile flags: /Ogtp
; File D:\git\src\IBK\IBK_DRFN\ProjSrc\SrcDrfn\Chart\INDEXOPTIMIZER\DlgTrade.cpp
; File C:\Program Files (x86)\Microsoft Visual Studio\2019\Community\VC\Tools\MSVC\14.29.30133\atlmfc\include\afxwin2.inl
; File D:\git\src\IBK\IBK_DRFN\ProjSrc\SrcDrfn\Chart\INDEXOPTIMIZER\DlgTrade.cpp
; File C:\Program Files (x86)\Microsoft Visual Studio\2019\Community\VC\Tools\MSVC\14.29.30133\atlmfc\include\afxwin2.inl
; File C:\Program Files (x86)\Microsoft Visual Studio\2019\Community\VC\Tools\MSVC\14.29.30133\atlmfc\include\atltypes.h
; File C:\Program Files (x86)\Microsoft Visual Studio\2019\Community\VC\Tools\MSVC\14.29.30133\atlmfc\include\afxwin2.inl
; File D:\git\src\IBK\IBK_DRFN\ProjSrc\SrcDrfn\Chart\INDEXOPTIMIZER\DlgTrade.cpp
; File D:\git\src\IBK\IBK_DRFN\ProjSrc\SrcDrfn\Chart\INDEXOPTIMIZER\GridCtrl_src\GridCtrl.h
; File D:\git\src\IBK\IBK_DRFN\ProjSrc\SrcDrfn\Chart\INDEXOPTIMIZER\DlgTrade.cpp
; File C:\Program Files (x86)\Microsoft Visual Studio\2019\Community\VC\Tools\MSVC\14.29.30133\atlmfc\include\afxwin2.inl
; File D:\git\src\IBK\IBK_DRFN\ProjSrc\SrcDrfn\Chart\INDEXOPTIMIZER\DlgTrade.cpp
; File C:\Program Files (x86)\Microsoft Visual Studio\2019\Community\VC\Tools\MSVC\14.29.30133\atlmfc\include\afxwin2.inl
; File D:\git\src\IBK\IBK_DRFN\ProjSrc\SrcDrfn\Chart\INDEXOPTIMIZER\DlgTrade.cpp
; File C:\Program Files (x86)\Microsoft Visual Studio\2019\Community\VC\Tools\MSVC\14.29.30133\atlmfc\include\afxwin2.inl
; File D:\git\src\IBK\IBK_DRFN\ProjSrc\SrcDrfn\Chart\INDEXOPTIMIZER\DlgTrade.cpp
;	COMDAT ?InitGrid@CDlgTrade@@QAEXXZ
_TEXT	SEGMENT
_rect1$1 = -60						; size = 16
_GridIndexName$2 = -44					; size = 40
__$ArrayPad$ = -4					; size = 4
?InitGrid@CDlgTrade@@QAEXXZ PROC			; CDlgTrade::InitGrid, COMDAT
; _this$ = ecx

; 59   : {

  00000	55		 push	 ebp
  00001	8b ec		 mov	 ebp, esp
  00003	83 ec 3c	 sub	 esp, 60			; 0000003cH
  00006	a1 00 00 00 00	 mov	 eax, DWORD PTR ___security_cookie
  0000b	33 c5		 xor	 eax, ebp
  0000d	89 45 fc	 mov	 DWORD PTR __$ArrayPad$[ebp], eax
  00010	56		 push	 esi
  00011	8b f1		 mov	 esi, ecx
  00013	57		 push	 edi

; 60   : 	if(!m_TradeGridCtrl.GetSafeHwnd())

  00014	8d be c8 00 00
	00		 lea	 edi, DWORD PTR [esi+200]
; File C:\Program Files (x86)\Microsoft Visual Studio\2019\Community\VC\Tools\MSVC\14.29.30133\atlmfc\include\afxwin2.inl

; 25   : 	{ return this == NULL ? NULL : m_hWnd; }

  0001a	85 ff		 test	 edi, edi
  0001c	74 0a		 je	 SHORT $LN34@InitGrid
; File D:\git\src\IBK\IBK_DRFN\ProjSrc\SrcDrfn\Chart\INDEXOPTIMIZER\DlgTrade.cpp

; 60   : 	if(!m_TradeGridCtrl.GetSafeHwnd())

  0001e	83 7f 20 00	 cmp	 DWORD PTR [edi+32], 0
  00022	0f 85 9e 01 00
	00		 jne	 $LN3@InitGrid
$LN34@InitGrid:
; File C:\Program Files (x86)\Microsoft Visual Studio\2019\Community\VC\Tools\MSVC\14.29.30133\atlmfc\include\afxwin2.inl

; 86   : 	{ ASSERT(::IsWindow(m_hWnd)); ::GetClientRect(m_hWnd, lpRect); }

  00028	8d 45 c4	 lea	 eax, DWORD PTR _rect1$1[ebp]
  0002b	0f 57 c0	 xorps	 xmm0, xmm0
  0002e	50		 push	 eax
  0002f	ff 76 20	 push	 DWORD PTR [esi+32]
; File C:\Program Files (x86)\Microsoft Visual Studio\2019\Community\VC\Tools\MSVC\14.29.30133\atlmfc\include\atltypes.h

; 528  : 	left = 0;

  00032	0f 11 45 c4	 movups	 XMMWORD PTR _rect1$1[ebp], xmm0
; File C:\Program Files (x86)\Microsoft Visual Studio\2019\Community\VC\Tools\MSVC\14.29.30133\atlmfc\include\afxwin2.inl

; 86   : 	{ ASSERT(::IsWindow(m_hWnd)); ::GetClientRect(m_hWnd, lpRect); }

  00036	ff 15 00 00 00
	00		 call	 DWORD PTR __imp__GetClientRect@8
; File D:\git\src\IBK\IBK_DRFN\ProjSrc\SrcDrfn\Chart\INDEXOPTIMIZER\DlgTrade.cpp

; 65   : 		rect1.left +=2;

  0003c	83 45 c4 02	 add	 DWORD PTR _rect1$1[ebp], 2

; 66   : 		rect1.bottom-=1;
; 67   : 
; 68   : 		if(!m_TradeGridCtrl.Create(rect1,this,IDC_STATIC_RESULT,WS_CHILD | WS_TABSTOP | WS_VISIBLE ))

  00040	8d 45 c4	 lea	 eax, DWORD PTR _rect1$1[ebp]
  00043	ff 4d d0	 dec	 DWORD PTR _rect1$1[ebp+12]
  00046	8b cf		 mov	 ecx, edi
  00048	68 00 00 01 50	 push	 1342242816		; 50010000H
  0004d	68 0b 33 00 00	 push	 13067			; 0000330bH
  00052	56		 push	 esi
  00053	50		 push	 eax
  00054	c7 45 c8 01 00
	00 00		 mov	 DWORD PTR _rect1$1[ebp+4], 1
  0005b	e8 00 00 00 00	 call	 ?Create@CGridCtrl@@QAEHABUtagRECT@@PAVCWnd@@IK@Z ; CGridCtrl::Create
  00060	85 c0		 test	 eax, eax
  00062	75 1c		 jne	 SHORT $LN6@InitGrid

; 69   : 		{
; 70   : 			AfxMessageBox("No");

  00064	50		 push	 eax
  00065	50		 push	 eax
  00066	68 00 00 00 00	 push	 OFFSET ??_C@_02JINPPBEP@No@
  0006b	e8 00 00 00 00	 call	 ?AfxMessageBox@@YGHPBDII@Z ; AfxMessageBox
  00070	5f		 pop	 edi

; 99   : 		}
; 100  : 		//m_TradeGridCtrl.ExpandColumnsToFit();
; 101  : 	}
; 102  : }

  00071	5e		 pop	 esi
  00072	8b 4d fc	 mov	 ecx, DWORD PTR __$ArrayPad$[ebp]
  00075	33 cd		 xor	 ecx, ebp
  00077	e8 00 00 00 00	 call	 @__security_check_cookie@4
  0007c	8b e5		 mov	 esp, ebp
  0007e	5d		 pop	 ebp
  0007f	c3		 ret	 0
$LN6@InitGrid:
; File D:\git\src\IBK\IBK_DRFN\ProjSrc\SrcDrfn\Chart\INDEXOPTIMIZER\GridCtrl_src\GridCtrl.h

; 795  :     return (CGridCellBase*) &m_cellDefault;

  00080	8d 8e 24 02 00
	00		 lea	 ecx, DWORD PTR [esi+548]
; File D:\git\src\IBK\IBK_DRFN\ProjSrc\SrcDrfn\Chart\INDEXOPTIMIZER\DlgTrade.cpp

; 73   : 		m_TradeGridCtrl.SetEditable(FALSE);

  00086	c7 86 80 01 00
	00 00 00 00 00	 mov	 DWORD PTR [esi+384], 0

; 74   : 		m_TradeGridCtrl.GetDefaultCell(FALSE, FALSE)->SetBackClr(RGB(255, 255, 255));

  00090	8b 01		 mov	 eax, DWORD PTR [ecx]
  00092	68 ff ff ff 00	 push	 16777215		; 00ffffffH
  00097	ff 50 2c	 call	 DWORD PTR [eax+44]

; 75   : 		m_TradeGridCtrl.SetGridLineColor(RGB(204,210,224));
; 76   : 		m_TradeGridCtrl.SetColumnCount(10);

  0009a	6a 0a		 push	 10			; 0000000aH
  0009c	8b cf		 mov	 ecx, edi
  0009e	c7 86 54 01 00
	00 cc d2 e0 00	 mov	 DWORD PTR [esi+340], 14734028 ; 00e0d2ccH
  000a8	e8 00 00 00 00	 call	 ?SetColumnCount@CGridCtrl@@QAEHH@Z ; CGridCtrl::SetColumnCount

; 77   : 		m_TradeGridCtrl.SetRowCount(1);

  000ad	6a 01		 push	 1
  000af	8b cf		 mov	 ecx, edi
  000b1	e8 00 00 00 00	 call	 ?SetRowCount@CGridCtrl@@QAEHH@Z ; CGridCtrl::SetRowCount
; File C:\Program Files (x86)\Microsoft Visual Studio\2019\Community\VC\Tools\MSVC\14.29.30133\atlmfc\include\afxwin2.inl

; 192  : 	{ ASSERT(::IsWindow(m_hWnd)); ::ShowScrollBar(m_hWnd, nBar, bShow); }

  000b6	6a 01		 push	 1
  000b8	6a 01		 push	 1
  000ba	ff b6 e8 00 00
	00		 push	 DWORD PTR [esi+232]
; File D:\git\src\IBK\IBK_DRFN\ProjSrc\SrcDrfn\Chart\INDEXOPTIMIZER\DlgTrade.cpp

; 78   : 		m_TradeGridCtrl.SetBkColor(CLR_BACKGROUND );

  000c0	c7 86 50 01 00
	00 ff ff ff 00	 mov	 DWORD PTR [esi+336], 16777215 ; 00ffffffH
; File C:\Program Files (x86)\Microsoft Visual Studio\2019\Community\VC\Tools\MSVC\14.29.30133\atlmfc\include\afxwin2.inl

; 192  : 	{ ASSERT(::IsWindow(m_hWnd)); ::ShowScrollBar(m_hWnd, nBar, bShow); }

  000ca	ff 15 00 00 00
	00		 call	 DWORD PTR __imp__ShowScrollBar@12
; File D:\git\src\IBK\IBK_DRFN\ProjSrc\SrcDrfn\Chart\INDEXOPTIMIZER\DlgTrade.cpp

; 80   : 		if(m_pFont)

  000d0	8b 86 58 05 00
	00		 mov	 eax, DWORD PTR [esi+1368]
  000d6	85 c0		 test	 eax, eax
  000d8	74 13		 je	 SHORT $LN7@InitGrid
; File C:\Program Files (x86)\Microsoft Visual Studio\2019\Community\VC\Tools\MSVC\14.29.30133\atlmfc\include\afxwin2.inl

; 43   : 	{ ASSERT(::IsWindow(m_hWnd)); ::SendMessage(m_hWnd, WM_SETFONT, (WPARAM)pFont->GetSafeHandle(), bRedraw); }

  000da	6a 01		 push	 1
  000dc	ff 70 04	 push	 DWORD PTR [eax+4]
  000df	6a 30		 push	 48			; 00000030H
  000e1	ff b6 e8 00 00
	00		 push	 DWORD PTR [esi+232]
  000e7	ff 15 00 00 00
	00		 call	 DWORD PTR __imp__SendMessageA@16
$LN7@InitGrid:
; File D:\git\src\IBK\IBK_DRFN\ProjSrc\SrcDrfn\Chart\INDEXOPTIMIZER\DlgTrade.cpp

; 84   : 		m_TradeGridCtrl.SetColumnWidth(0,30);

  000ed	6a 1e		 push	 30			; 0000001eH
  000ef	6a 00		 push	 0
  000f1	8b cf		 mov	 ecx, edi
  000f3	c7 45 d4 00 00
	00 00		 mov	 DWORD PTR _GridIndexName$2[ebp], OFFSET ??_C@_02NFLNFON@NO@
  000fa	c7 45 d8 00 00
	00 00		 mov	 DWORD PTR _GridIndexName$2[ebp+4], OFFSET ??_C@_06PKEOGNHM@?F?w?A?v?$LM?G@
  00101	c7 45 dc 00 00
	00 00		 mov	 DWORD PTR _GridIndexName$2[ebp+8], OFFSET ??_C@_08CBGNLCNF@?$LI?E?$LI?E?$LN?C?A?$KB@
  00108	c7 45 e0 00 00
	00 00		 mov	 DWORD PTR _GridIndexName$2[ebp+12], OFFSET ??_C@_04CNAFDLNE@?$LA?$KB?$LA?$NN@
  0010f	c7 45 e4 00 00
	00 00		 mov	 DWORD PTR _GridIndexName$2[ebp+16], OFFSET ??_C@_04LPHCNNHO@?$LM?v?$LH?$KO@
  00116	c7 45 e8 00 00
	00 00		 mov	 DWORD PTR _GridIndexName$2[ebp+20], OFFSET ??_C@_0O@HDDPIDH@?A?x?$MA?T?1?C?$LL?$LL?j?$LB?$NN?$LO?W@
  0011d	c7 45 ec 00 00
	00 00		 mov	 DWORD PTR _GridIndexName$2[ebp+24], OFFSET ??_C@_08JEHIPFIE@?$LA?G?$LK?$LA?$LM?U?$MA?M@
  00124	c7 45 f0 00 00
	00 00		 mov	 DWORD PTR _GridIndexName$2[ebp+28], OFFSET ??_C@_08CBHCGDML@?$LE?$KJ?$MA?$PL?$LM?U?$MA?M@
  0012b	c7 45 f4 00 00
	00 00		 mov	 DWORD PTR _GridIndexName$2[ebp+32], OFFSET ??_C@_0L@GLBIPOBI@?$LA?G?$LK?$LA?$LM?v?$MA?M?$LH?$PM@
  00132	c7 45 f8 00 00
	00 00		 mov	 DWORD PTR _GridIndexName$2[ebp+36], OFFSET ??_C@_0L@FJFCOKJ@?$LE?$KJ?$MA?$PL?$LM?v?$MA?M?$LH?$PM@
  00139	e8 00 00 00 00	 call	 ?SetColumnWidth@CGridCtrl@@QAEHHH@Z ; CGridCtrl::SetColumnWidth

; 85   : 		m_TradeGridCtrl.SetColumnWidth(1,70);

  0013e	6a 46		 push	 70			; 00000046H
  00140	6a 01		 push	 1
  00142	8b cf		 mov	 ecx, edi
  00144	e8 00 00 00 00	 call	 ?SetColumnWidth@CGridCtrl@@QAEHHH@Z ; CGridCtrl::SetColumnWidth

; 86   : 		m_TradeGridCtrl.SetColumnWidth(2,80);

  00149	6a 50		 push	 80			; 00000050H
  0014b	6a 02		 push	 2
  0014d	8b cf		 mov	 ecx, edi
  0014f	e8 00 00 00 00	 call	 ?SetColumnWidth@CGridCtrl@@QAEHHH@Z ; CGridCtrl::SetColumnWidth

; 87   : 		m_TradeGridCtrl.SetColumnWidth(3,85);

  00154	6a 55		 push	 85			; 00000055H
  00156	6a 03		 push	 3
  00158	8b cf		 mov	 ecx, edi
  0015a	e8 00 00 00 00	 call	 ?SetColumnWidth@CGridCtrl@@QAEHHH@Z ; CGridCtrl::SetColumnWidth

; 88   : 		m_TradeGridCtrl.SetColumnWidth(4,40);

  0015f	6a 28		 push	 40			; 00000028H
  00161	6a 04		 push	 4
  00163	8b cf		 mov	 ecx, edi
  00165	e8 00 00 00 00	 call	 ?SetColumnWidth@CGridCtrl@@QAEHHH@Z ; CGridCtrl::SetColumnWidth

; 89   : 		m_TradeGridCtrl.SetColumnWidth(5,100);

  0016a	6a 64		 push	 100			; 00000064H
  0016c	6a 05		 push	 5
  0016e	8b cf		 mov	 ecx, edi
  00170	e8 00 00 00 00	 call	 ?SetColumnWidth@CGridCtrl@@QAEHHH@Z ; CGridCtrl::SetColumnWidth

; 90   : 		m_TradeGridCtrl.SetColumnWidth(6,80);

  00175	6a 50		 push	 80			; 00000050H
  00177	6a 06		 push	 6
  00179	8b cf		 mov	 ecx, edi
  0017b	e8 00 00 00 00	 call	 ?SetColumnWidth@CGridCtrl@@QAEHHH@Z ; CGridCtrl::SetColumnWidth

; 91   : 		m_TradeGridCtrl.SetColumnWidth(7,70);

  00180	6a 46		 push	 70			; 00000046H
  00182	6a 07		 push	 7
  00184	8b cf		 mov	 ecx, edi
  00186	e8 00 00 00 00	 call	 ?SetColumnWidth@CGridCtrl@@QAEHHH@Z ; CGridCtrl::SetColumnWidth

; 92   : 		m_TradeGridCtrl.SetColumnWidth(8,70);

  0018b	6a 46		 push	 70			; 00000046H
  0018d	6a 08		 push	 8
  0018f	8b cf		 mov	 ecx, edi
  00191	e8 00 00 00 00	 call	 ?SetColumnWidth@CGridCtrl@@QAEHHH@Z ; CGridCtrl::SetColumnWidth

; 93   : 		m_TradeGridCtrl.SetColumnWidth(9,70);

  00196	6a 46		 push	 70			; 00000046H
  00198	6a 09		 push	 9
  0019a	8b cf		 mov	 ecx, edi
  0019c	e8 00 00 00 00	 call	 ?SetColumnWidth@CGridCtrl@@QAEHHH@Z ; CGridCtrl::SetColumnWidth
  001a1	33 f6		 xor	 esi, esi
$LL4@InitGrid:

; 94   : 
; 95   : 		for(int col =0 ; col <10; col++)
; 96   : 		{
; 97   : 			m_TradeGridCtrl.SetItemBkColour(0,col,RGB(242,248,254));

  001a3	68 f2 f8 fe 00	 push	 16709874		; 00fef8f2H
  001a8	56		 push	 esi
  001a9	6a 00		 push	 0
  001ab	8b cf		 mov	 ecx, edi
  001ad	e8 00 00 00 00	 call	 ?SetItemBkColour@CGridCtrl@@QAEHHHK@Z ; CGridCtrl::SetItemBkColour

; 98   : 			m_TradeGridCtrl.SetItemText(0,col,GridIndexName[col]);

  001b2	ff 74 b5 d4	 push	 DWORD PTR _GridIndexName$2[ebp+esi*4]
  001b6	8b cf		 mov	 ecx, edi
  001b8	56		 push	 esi
  001b9	6a 00		 push	 0
  001bb	e8 00 00 00 00	 call	 ?SetItemText@CGridCtrl@@QAEHHHPBD@Z ; CGridCtrl::SetItemText
  001c0	46		 inc	 esi
  001c1	83 fe 0a	 cmp	 esi, 10			; 0000000aH
  001c4	7c dd		 jl	 SHORT $LL4@InitGrid
$LN3@InitGrid:

; 99   : 		}
; 100  : 		//m_TradeGridCtrl.ExpandColumnsToFit();
; 101  : 	}
; 102  : }

  001c6	8b 4d fc	 mov	 ecx, DWORD PTR __$ArrayPad$[ebp]
  001c9	5f		 pop	 edi
  001ca	33 cd		 xor	 ecx, ebp
  001cc	5e		 pop	 esi
  001cd	e8 00 00 00 00	 call	 @__security_check_cookie@4
  001d2	8b e5		 mov	 esp, ebp
  001d4	5d		 pop	 ebp
  001d5	c3		 ret	 0
?InitGrid@CDlgTrade@@QAEXXZ ENDP			; CDlgTrade::InitGrid
_TEXT	ENDS
; Function compile flags: /Ogtp
; File D:\git\src\IBK\IBK_DRFN\ProjSrc\SrcDrfn\Chart\INDEXOPTIMIZER\DlgTrade.cpp
; File C:\Program Files (x86)\Microsoft Visual Studio\2019\Community\VC\Tools\MSVC\14.29.30133\atlmfc\include\atlsimpstr.h
; File D:\git\src\IBK\IBK_DRFN\ProjSrc\SrcDrfn\Chart\INDEXOPTIMIZER\DlgTrade.cpp
; File C:\Program Files (x86)\Microsoft Visual Studio\2019\Community\VC\Tools\MSVC\14.29.30133\atlmfc\include\atlsimpstr.h
; File D:\git\src\IBK\IBK_DRFN\ProjSrc\SrcDrfn\Chart\INDEXOPTIMIZER\DlgTrade.cpp
;	COMDAT ?InsertGubun@CDlgTrade@@QAEHAAV?$CStringT@DV?$StrTraitMFC_DLL@DV?$ChTraitsCRT@D@ATL@@@@@ATL@@H@Z
_TEXT	SEGMENT
_stTime$ = 8						; size = 4
_IsHtml$ = 12						; size = 4
?InsertGubun@CDlgTrade@@QAEHAAV?$CStringT@DV?$StrTraitMFC_DLL@DV?$ChTraitsCRT@D@ATL@@@@@ATL@@H@Z PROC ; CDlgTrade::InsertGubun, COMDAT
; _this$ = ecx

; 505  : {

  00000	55		 push	 ebp
  00001	8b ec		 mov	 ebp, esp

; 506  : 	switch(m_pDlgOptimizer->m_nTimeState)

  00003	8b 81 ac 00 00
	00		 mov	 eax, DWORD PTR [ecx+172]
  00009	56		 push	 esi
  0000a	57		 push	 edi
  0000b	8b 80 00 0f 00
	00		 mov	 eax, DWORD PTR [eax+3840]
  00011	83 f8 04	 cmp	 eax, 4
  00014	0f 87 1e 01 00
	00		 ja	 $LN35@InsertGubu
  0001a	ff 24 85 00 00
	00 00		 jmp	 DWORD PTR $LN44@InsertGubu[eax*4]
$LN4@InsertGubu:
; File C:\Program Files (x86)\Microsoft Visual Studio\2019\Community\VC\Tools\MSVC\14.29.30133\atlmfc\include\atlsimpstr.h

; 519  : 		return( GetData()->nDataLength );

  00021	8b 75 08	 mov	 esi, DWORD PTR _stTime$[ebp]
  00024	8b 06		 mov	 eax, DWORD PTR [esi]
  00026	8b 40 f4	 mov	 eax, DWORD PTR [eax-12]
; File D:\git\src\IBK\IBK_DRFN\ProjSrc\SrcDrfn\Chart\INDEXOPTIMIZER\DlgTrade.cpp

; 491  : 	if(nSize == 7)

  00029	83 f8 07	 cmp	 eax, 7
  0002c	75 0e		 jne	 SHORT $LN11@InsertGubu

; 492  : 	{
; 493  : 		str.Insert(0,'0');

  0002e	6a 30		 push	 48			; 00000030H
  00030	6a 00		 push	 0
  00032	8b ce		 mov	 ecx, esi
  00034	ff 15 00 00 00
	00		 call	 DWORD PTR __imp_?Insert@?$CStringT@DV?$StrTraitMFC_DLL@DV?$ChTraitsCRT@D@ATL@@@@@ATL@@QAEHHD@Z

; 494  : 		nSize++;
; 495  : 	}
; 496  : 	if(nSize<7) return;

  0003a	eb 06		 jmp	 SHORT $LN42@InsertGubu
$LN11@InsertGubu:
  0003c	0f 8c f6 00 00
	00		 jl	 $LN35@InsertGubu
$LN42@InsertGubu:

; 497  : 
; 498  : 	str.Insert(2,'/');

  00042	6a 2f		 push	 47			; 0000002fH
  00044	6a 02		 push	 2
  00046	8b ce		 mov	 ecx, esi
  00048	ff 15 00 00 00
	00		 call	 DWORD PTR __imp_?Insert@?$CStringT@DV?$StrTraitMFC_DLL@DV?$ChTraitsCRT@D@ATL@@@@@ATL@@QAEHHD@Z

; 499  : 	str.Insert(5,':');

  0004e	6a 3a		 push	 58			; 0000003aH
  00050	6a 05		 push	 5
  00052	8b ce		 mov	 ecx, esi
  00054	ff 15 00 00 00
	00		 call	 DWORD PTR __imp_?Insert@?$CStringT@DV?$StrTraitMFC_DLL@DV?$ChTraitsCRT@D@ATL@@@@@ATL@@QAEHHD@Z

; 500  : 	str.Insert(8,':');

  0005a	6a 3a		 push	 58			; 0000003aH
  0005c	6a 08		 push	 8
  0005e	8b ce		 mov	 ecx, esi

; 507  : 	{
; 508  : 	case 0://
; 509  : 		InsertTimeGubun(stTime);	
; 510  : 		break;
; 511  : 	case 1://
; 512  : 		InsertMinuteGubun(stTime,IsHtml);
; 513  : 		break;
; 514  : 	case 2://
; 515  : 	case 3://
; 516  : 		InsertDateGubun(stTime);
; 517  : 		break;
; 518  : 	case 4://
; 519  : 		InsertMonthGubun(stTime);
; 520  : 		break;
; 521  : 	}
; 522  : 	return TRUE;

  00060	ff 15 00 00 00
	00		 call	 DWORD PTR __imp_?Insert@?$CStringT@DV?$StrTraitMFC_DLL@DV?$ChTraitsCRT@D@ATL@@@@@ATL@@QAEHHD@Z
  00066	5f		 pop	 edi
  00067	b8 01 00 00 00	 mov	 eax, 1
  0006c	5e		 pop	 esi

; 523  : }

  0006d	5d		 pop	 ebp
  0006e	c2 08 00	 ret	 8
$LN5@InsertGubu:
; File C:\Program Files (x86)\Microsoft Visual Studio\2019\Community\VC\Tools\MSVC\14.29.30133\atlmfc\include\atlsimpstr.h

; 519  : 		return( GetData()->nDataLength );

  00071	8b 75 08	 mov	 esi, DWORD PTR _stTime$[ebp]
  00074	8b 06		 mov	 eax, DWORD PTR [esi]
  00076	8b 78 f4	 mov	 edi, DWORD PTR [eax-12]
; File D:\git\src\IBK\IBK_DRFN\ProjSrc\SrcDrfn\Chart\INDEXOPTIMIZER\DlgTrade.cpp

; 528  : 	if(nSize == 7)

  00079	83 ff 07	 cmp	 edi, 7
  0007c	75 13		 jne	 SHORT $LN19@InsertGubu

; 529  : 	{
; 530  : 		str.Insert(0,'0');

  0007e	6a 30		 push	 48			; 00000030H
  00080	6a 00		 push	 0
  00082	8b ce		 mov	 ecx, esi
  00084	ff 15 00 00 00
	00		 call	 DWORD PTR __imp_?Insert@?$CStringT@DV?$StrTraitMFC_DLL@DV?$ChTraitsCRT@D@ATL@@@@@ATL@@QAEHHD@Z

; 531  : 		nSize++;

  0008a	bf 08 00 00 00	 mov	 edi, 8

; 532  : 	}
; 533  : 	if(nSize<7) return;

  0008f	eb 06		 jmp	 SHORT $LN43@InsertGubu
$LN19@InsertGubu:
  00091	0f 8c a1 00 00
	00		 jl	 $LN35@InsertGubu
$LN43@InsertGubu:

; 534  : 	if(IsHtml)//When HTML File

  00097	6a 2f		 push	 47			; 0000002fH
  00099	8b ce		 mov	 ecx, esi
  0009b	6a 02		 push	 2
  0009d	ff 15 00 00 00
	00		 call	 DWORD PTR __imp_?Insert@?$CStringT@DV?$StrTraitMFC_DLL@DV?$ChTraitsCRT@D@ATL@@@@@ATL@@QAEHHD@Z
  000a3	83 7d 0c 00	 cmp	 DWORD PTR _IsHtml$[ebp], 0
  000a7	8b ce		 mov	 ecx, esi
  000a9	74 29		 je	 SHORT $LN21@InsertGubu

; 535  : 	{
; 536  : 		str.Insert(2,'/');
; 537  : 		str.Insert(5,"&nbsp;");

  000ab	68 00 00 00 00	 push	 OFFSET ??_C@_06ODLOODK@?$CGnbsp?$DL@
  000b0	6a 05		 push	 5
  000b2	ff 15 00 00 00
	00		 call	 DWORD PTR __imp_?Insert@?$CStringT@DV?$StrTraitMFC_DLL@DV?$ChTraitsCRT@D@ATL@@@@@ATL@@QAEHHPBD@Z

; 538  : 		str.Insert(nSize+5,":");

  000b8	68 00 00 00 00	 push	 OFFSET ??_C@_01JLIPDDHJ@?3@
  000bd	8d 47 05	 lea	 eax, DWORD PTR [edi+5]
  000c0	8b ce		 mov	 ecx, esi
  000c2	50		 push	 eax
  000c3	ff 15 00 00 00
	00		 call	 DWORD PTR __imp_?Insert@?$CStringT@DV?$StrTraitMFC_DLL@DV?$ChTraitsCRT@D@ATL@@@@@ATL@@QAEHHPBD@Z

; 507  : 	{
; 508  : 	case 0://
; 509  : 		InsertTimeGubun(stTime);	
; 510  : 		break;
; 511  : 	case 1://
; 512  : 		InsertMinuteGubun(stTime,IsHtml);
; 513  : 		break;
; 514  : 	case 2://
; 515  : 	case 3://
; 516  : 		InsertDateGubun(stTime);
; 517  : 		break;
; 518  : 	case 4://
; 519  : 		InsertMonthGubun(stTime);
; 520  : 		break;
; 521  : 	}
; 522  : 	return TRUE;

  000c9	5f		 pop	 edi
  000ca	b8 01 00 00 00	 mov	 eax, 1
  000cf	5e		 pop	 esi

; 523  : }

  000d0	5d		 pop	 ebp
  000d1	c2 08 00	 ret	 8
$LN21@InsertGubu:

; 543  : 		str.Insert(5,'/');

  000d4	6a 2f		 push	 47			; 0000002fH
  000d6	6a 05		 push	 5
  000d8	ff 15 00 00 00
	00		 call	 DWORD PTR __imp_?Insert@?$CStringT@DV?$StrTraitMFC_DLL@DV?$ChTraitsCRT@D@ATL@@@@@ATL@@QAEHHD@Z

; 544  : 		str.Insert(8,':');

  000de	6a 3a		 push	 58			; 0000003aH
  000e0	6a 08		 push	 8
  000e2	8b ce		 mov	 ecx, esi

; 507  : 	{
; 508  : 	case 0://
; 509  : 		InsertTimeGubun(stTime);	
; 510  : 		break;
; 511  : 	case 1://
; 512  : 		InsertMinuteGubun(stTime,IsHtml);
; 513  : 		break;
; 514  : 	case 2://
; 515  : 	case 3://
; 516  : 		InsertDateGubun(stTime);
; 517  : 		break;
; 518  : 	case 4://
; 519  : 		InsertMonthGubun(stTime);
; 520  : 		break;
; 521  : 	}
; 522  : 	return TRUE;

  000e4	ff 15 00 00 00
	00		 call	 DWORD PTR __imp_?Insert@?$CStringT@DV?$StrTraitMFC_DLL@DV?$ChTraitsCRT@D@ATL@@@@@ATL@@QAEHHD@Z
  000ea	5f		 pop	 edi
  000eb	b8 01 00 00 00	 mov	 eax, 1
  000f0	5e		 pop	 esi

; 523  : }

  000f1	5d		 pop	 ebp
  000f2	c2 08 00	 ret	 8
$LN6@InsertGubu:

; 482  : 	if(str.GetLength()<4) return;

  000f5	8b 75 08	 mov	 esi, DWORD PTR _stTime$[ebp]
  000f8	8b 06		 mov	 eax, DWORD PTR [esi]
  000fa	83 78 f4 04	 cmp	 DWORD PTR [eax-12], 4
  000fe	7c 38		 jl	 SHORT $LN35@InsertGubu

; 483  : 	str.Insert(4,'/');

  00100	6a 2f		 push	 47			; 0000002fH
  00102	6a 04		 push	 4
  00104	8b ce		 mov	 ecx, esi
  00106	ff 15 00 00 00
	00		 call	 DWORD PTR __imp_?Insert@?$CStringT@DV?$StrTraitMFC_DLL@DV?$ChTraitsCRT@D@ATL@@@@@ATL@@QAEHHD@Z

; 484  : 	str.Insert(7,'/');

  0010c	6a 2f		 push	 47			; 0000002fH
  0010e	6a 07		 push	 7
  00110	8b ce		 mov	 ecx, esi

; 507  : 	{
; 508  : 	case 0://
; 509  : 		InsertTimeGubun(stTime);	
; 510  : 		break;
; 511  : 	case 1://
; 512  : 		InsertMinuteGubun(stTime,IsHtml);
; 513  : 		break;
; 514  : 	case 2://
; 515  : 	case 3://
; 516  : 		InsertDateGubun(stTime);
; 517  : 		break;
; 518  : 	case 4://
; 519  : 		InsertMonthGubun(stTime);
; 520  : 		break;
; 521  : 	}
; 522  : 	return TRUE;

  00112	ff 15 00 00 00
	00		 call	 DWORD PTR __imp_?Insert@?$CStringT@DV?$StrTraitMFC_DLL@DV?$ChTraitsCRT@D@ATL@@@@@ATL@@QAEHHD@Z
  00118	5f		 pop	 edi
  00119	b8 01 00 00 00	 mov	 eax, 1
  0011e	5e		 pop	 esi

; 523  : }

  0011f	5d		 pop	 ebp
  00120	c2 08 00	 ret	 8
$LN8@InsertGubu:

; 476  : 	if(str.GetLength()<4) return;

  00123	8b 4d 08	 mov	 ecx, DWORD PTR _stTime$[ebp]
  00126	8b 01		 mov	 eax, DWORD PTR [ecx]
  00128	83 78 f4 04	 cmp	 DWORD PTR [eax-12], 4
  0012c	7c 0a		 jl	 SHORT $LN35@InsertGubu

; 477  : 	str.Insert(4,'/');

  0012e	6a 2f		 push	 47			; 0000002fH
  00130	6a 04		 push	 4

; 507  : 	{
; 508  : 	case 0://
; 509  : 		InsertTimeGubun(stTime);	
; 510  : 		break;
; 511  : 	case 1://
; 512  : 		InsertMinuteGubun(stTime,IsHtml);
; 513  : 		break;
; 514  : 	case 2://
; 515  : 	case 3://
; 516  : 		InsertDateGubun(stTime);
; 517  : 		break;
; 518  : 	case 4://
; 519  : 		InsertMonthGubun(stTime);
; 520  : 		break;
; 521  : 	}
; 522  : 	return TRUE;

  00132	ff 15 00 00 00
	00		 call	 DWORD PTR __imp_?Insert@?$CStringT@DV?$StrTraitMFC_DLL@DV?$ChTraitsCRT@D@ATL@@@@@ATL@@QAEHHD@Z
$LN35@InsertGubu:
  00138	5f		 pop	 edi
  00139	b8 01 00 00 00	 mov	 eax, 1
  0013e	5e		 pop	 esi

; 523  : }

  0013f	5d		 pop	 ebp
  00140	c2 08 00	 ret	 8
  00143	90		 npad	 1
$LN44@InsertGubu:
  00144	00 00 00 00	 DD	 $LN4@InsertGubu
  00148	00 00 00 00	 DD	 $LN5@InsertGubu
  0014c	00 00 00 00	 DD	 $LN6@InsertGubu
  00150	00 00 00 00	 DD	 $LN6@InsertGubu
  00154	00 00 00 00	 DD	 $LN8@InsertGubu
?InsertGubun@CDlgTrade@@QAEHAAV?$CStringT@DV?$StrTraitMFC_DLL@DV?$ChTraitsCRT@D@ATL@@@@@ATL@@H@Z ENDP ; CDlgTrade::InsertGubun
_TEXT	ENDS
; Function compile flags: /Ogtp
; File D:\git\src\IBK\IBK_DRFN\ProjSrc\SrcDrfn\Chart\INDEXOPTIMIZER\DlgTrade.cpp
; File C:\Program Files (x86)\Microsoft Visual Studio\2019\Community\VC\Tools\MSVC\14.29.30133\atlmfc\include\atlsimpstr.h
; File D:\git\src\IBK\IBK_DRFN\ProjSrc\SrcDrfn\Chart\INDEXOPTIMIZER\DlgTrade.cpp
; File C:\Program Files (x86)\Microsoft Visual Studio\2019\Community\VC\Tools\MSVC\14.29.30133\atlmfc\include\atlsimpstr.h
; File D:\git\src\IBK\IBK_DRFN\ProjSrc\SrcDrfn\Chart\INDEXOPTIMIZER\DlgTrade.cpp
;	COMDAT ?InsertMinuteGubun@CDlgTrade@@QAEXAAV?$CStringT@DV?$StrTraitMFC_DLL@DV?$ChTraitsCRT@D@ATL@@@@@ATL@@H@Z
_TEXT	SEGMENT
_str$ = 8						; size = 4
_IsHtml$ = 12						; size = 4
?InsertMinuteGubun@CDlgTrade@@QAEXAAV?$CStringT@DV?$StrTraitMFC_DLL@DV?$ChTraitsCRT@D@ATL@@@@@ATL@@H@Z PROC ; CDlgTrade::InsertMinuteGubun, COMDAT
; _this$ = ecx

; 526  : {

  00000	55		 push	 ebp
  00001	8b ec		 mov	 ebp, esp
  00003	56		 push	 esi
; File C:\Program Files (x86)\Microsoft Visual Studio\2019\Community\VC\Tools\MSVC\14.29.30133\atlmfc\include\atlsimpstr.h

; 519  : 		return( GetData()->nDataLength );

  00004	8b 75 08	 mov	 esi, DWORD PTR _str$[ebp]
; File D:\git\src\IBK\IBK_DRFN\ProjSrc\SrcDrfn\Chart\INDEXOPTIMIZER\DlgTrade.cpp

; 526  : {

  00007	57		 push	 edi
; File C:\Program Files (x86)\Microsoft Visual Studio\2019\Community\VC\Tools\MSVC\14.29.30133\atlmfc\include\atlsimpstr.h

; 519  : 		return( GetData()->nDataLength );

  00008	8b 06		 mov	 eax, DWORD PTR [esi]
  0000a	8b 78 f4	 mov	 edi, DWORD PTR [eax-12]
; File D:\git\src\IBK\IBK_DRFN\ProjSrc\SrcDrfn\Chart\INDEXOPTIMIZER\DlgTrade.cpp

; 528  : 	if(nSize == 7)

  0000d	83 ff 07	 cmp	 edi, 7
  00010	75 13		 jne	 SHORT $LN2@InsertMinu

; 529  : 	{
; 530  : 		str.Insert(0,'0');

  00012	6a 30		 push	 48			; 00000030H
  00014	6a 00		 push	 0
  00016	8b ce		 mov	 ecx, esi
  00018	ff 15 00 00 00
	00		 call	 DWORD PTR __imp_?Insert@?$CStringT@DV?$StrTraitMFC_DLL@DV?$ChTraitsCRT@D@ATL@@@@@ATL@@QAEHHD@Z

; 531  : 		nSize++;

  0001e	bf 08 00 00 00	 mov	 edi, 8

; 532  : 	}
; 533  : 	if(nSize<7) return;

  00023	eb 02		 jmp	 SHORT $LN11@InsertMinu
$LN2@InsertMinu:
  00025	7c 4e		 jl	 SHORT $LN5@InsertMinu
$LN11@InsertMinu:

; 534  : 	if(IsHtml)//When HTML File

  00027	6a 2f		 push	 47			; 0000002fH
  00029	8b ce		 mov	 ecx, esi
  0002b	6a 02		 push	 2
  0002d	ff 15 00 00 00
	00		 call	 DWORD PTR __imp_?Insert@?$CStringT@DV?$StrTraitMFC_DLL@DV?$ChTraitsCRT@D@ATL@@@@@ATL@@QAEHHD@Z
  00033	83 7d 0c 00	 cmp	 DWORD PTR _IsHtml$[ebp], 0
  00037	8b ce		 mov	 ecx, esi
  00039	74 24		 je	 SHORT $LN4@InsertMinu

; 535  : 	{
; 536  : 		str.Insert(2,'/');
; 537  : 		str.Insert(5,"&nbsp;");

  0003b	68 00 00 00 00	 push	 OFFSET ??_C@_06ODLOODK@?$CGnbsp?$DL@
  00040	6a 05		 push	 5
  00042	ff 15 00 00 00
	00		 call	 DWORD PTR __imp_?Insert@?$CStringT@DV?$StrTraitMFC_DLL@DV?$ChTraitsCRT@D@ATL@@@@@ATL@@QAEHHPBD@Z

; 538  : 		str.Insert(nSize+5,":");

  00048	68 00 00 00 00	 push	 OFFSET ??_C@_01JLIPDDHJ@?3@
  0004d	8d 47 05	 lea	 eax, DWORD PTR [edi+5]
  00050	8b ce		 mov	 ecx, esi
  00052	50		 push	 eax
  00053	ff 15 00 00 00
	00		 call	 DWORD PTR __imp_?Insert@?$CStringT@DV?$StrTraitMFC_DLL@DV?$ChTraitsCRT@D@ATL@@@@@ATL@@QAEHHPBD@Z
  00059	5f		 pop	 edi

; 545  : 	}
; 546  : }

  0005a	5e		 pop	 esi
  0005b	5d		 pop	 ebp
  0005c	c2 08 00	 ret	 8
$LN4@InsertMinu:

; 539  : 	}
; 540  : 	else
; 541  : 	{
; 542  : 		str.Insert(2,'/');
; 543  : 		str.Insert(5,'/');

  0005f	6a 2f		 push	 47			; 0000002fH
  00061	6a 05		 push	 5
  00063	ff 15 00 00 00
	00		 call	 DWORD PTR __imp_?Insert@?$CStringT@DV?$StrTraitMFC_DLL@DV?$ChTraitsCRT@D@ATL@@@@@ATL@@QAEHHD@Z

; 544  : 		str.Insert(8,':');

  00069	6a 3a		 push	 58			; 0000003aH
  0006b	6a 08		 push	 8
  0006d	8b ce		 mov	 ecx, esi
  0006f	ff 15 00 00 00
	00		 call	 DWORD PTR __imp_?Insert@?$CStringT@DV?$StrTraitMFC_DLL@DV?$ChTraitsCRT@D@ATL@@@@@ATL@@QAEHHD@Z
$LN5@InsertMinu:

; 545  : 	}
; 546  : }

  00075	5f		 pop	 edi
  00076	5e		 pop	 esi
  00077	5d		 pop	 ebp
  00078	c2 08 00	 ret	 8
?InsertMinuteGubun@CDlgTrade@@QAEXAAV?$CStringT@DV?$StrTraitMFC_DLL@DV?$ChTraitsCRT@D@ATL@@@@@ATL@@H@Z ENDP ; CDlgTrade::InsertMinuteGubun
_TEXT	ENDS
; Function compile flags: /Ogtp
; File D:\git\src\IBK\IBK_DRFN\ProjSrc\SrcDrfn\Chart\INDEXOPTIMIZER\DlgTrade.cpp
; File C:\Program Files (x86)\Microsoft Visual Studio\2019\Community\VC\Tools\MSVC\14.29.30133\atlmfc\include\atlsimpstr.h
; File D:\git\src\IBK\IBK_DRFN\ProjSrc\SrcDrfn\Chart\INDEXOPTIMIZER\DlgTrade.cpp
;	COMDAT ?InsertTimeGubun@CDlgTrade@@QAEXAAV?$CStringT@DV?$StrTraitMFC_DLL@DV?$ChTraitsCRT@D@ATL@@@@@ATL@@@Z
_TEXT	SEGMENT
_str$ = 8						; size = 4
?InsertTimeGubun@CDlgTrade@@QAEXAAV?$CStringT@DV?$StrTraitMFC_DLL@DV?$ChTraitsCRT@D@ATL@@@@@ATL@@@Z PROC ; CDlgTrade::InsertTimeGubun, COMDAT
; _this$ = ecx

; 489  : {

  00000	55		 push	 ebp
  00001	8b ec		 mov	 ebp, esp
  00003	56		 push	 esi
; File C:\Program Files (x86)\Microsoft Visual Studio\2019\Community\VC\Tools\MSVC\14.29.30133\atlmfc\include\atlsimpstr.h

; 519  : 		return( GetData()->nDataLength );

  00004	8b 75 08	 mov	 esi, DWORD PTR _str$[ebp]
  00007	8b 06		 mov	 eax, DWORD PTR [esi]
  00009	8b 40 f4	 mov	 eax, DWORD PTR [eax-12]
; File D:\git\src\IBK\IBK_DRFN\ProjSrc\SrcDrfn\Chart\INDEXOPTIMIZER\DlgTrade.cpp

; 491  : 	if(nSize == 7)

  0000c	83 f8 07	 cmp	 eax, 7
  0000f	75 0e		 jne	 SHORT $LN2@InsertTime

; 492  : 	{
; 493  : 		str.Insert(0,'0');

  00011	6a 30		 push	 48			; 00000030H
  00013	6a 00		 push	 0
  00015	8b ce		 mov	 ecx, esi
  00017	ff 15 00 00 00
	00		 call	 DWORD PTR __imp_?Insert@?$CStringT@DV?$StrTraitMFC_DLL@DV?$ChTraitsCRT@D@ATL@@@@@ATL@@QAEHHD@Z

; 494  : 		nSize++;
; 495  : 	}
; 496  : 	if(nSize<7) return;

  0001d	eb 02		 jmp	 SHORT $LN9@InsertTime
$LN2@InsertTime:
  0001f	7c 24		 jl	 SHORT $LN1@InsertTime
$LN9@InsertTime:

; 497  : 
; 498  : 	str.Insert(2,'/');

  00021	6a 2f		 push	 47			; 0000002fH
  00023	6a 02		 push	 2
  00025	8b ce		 mov	 ecx, esi
  00027	ff 15 00 00 00
	00		 call	 DWORD PTR __imp_?Insert@?$CStringT@DV?$StrTraitMFC_DLL@DV?$ChTraitsCRT@D@ATL@@@@@ATL@@QAEHHD@Z

; 499  : 	str.Insert(5,':');

  0002d	6a 3a		 push	 58			; 0000003aH
  0002f	6a 05		 push	 5
  00031	8b ce		 mov	 ecx, esi
  00033	ff 15 00 00 00
	00		 call	 DWORD PTR __imp_?Insert@?$CStringT@DV?$StrTraitMFC_DLL@DV?$ChTraitsCRT@D@ATL@@@@@ATL@@QAEHHD@Z

; 500  : 	str.Insert(8,':');

  00039	6a 3a		 push	 58			; 0000003aH
  0003b	6a 08		 push	 8
  0003d	8b ce		 mov	 ecx, esi
  0003f	ff 15 00 00 00
	00		 call	 DWORD PTR __imp_?Insert@?$CStringT@DV?$StrTraitMFC_DLL@DV?$ChTraitsCRT@D@ATL@@@@@ATL@@QAEHHD@Z
$LN1@InsertTime:
  00045	5e		 pop	 esi

; 501  : }

  00046	5d		 pop	 ebp
  00047	c2 04 00	 ret	 4
?InsertTimeGubun@CDlgTrade@@QAEXAAV?$CStringT@DV?$StrTraitMFC_DLL@DV?$ChTraitsCRT@D@ATL@@@@@ATL@@@Z ENDP ; CDlgTrade::InsertTimeGubun
_TEXT	ENDS
; Function compile flags: /Ogtp
; File D:\git\src\IBK\IBK_DRFN\ProjSrc\SrcDrfn\Chart\INDEXOPTIMIZER\DlgTrade.cpp
;	COMDAT ?InsertDateGubun@CDlgTrade@@QAEXAAV?$CStringT@DV?$StrTraitMFC_DLL@DV?$ChTraitsCRT@D@ATL@@@@@ATL@@@Z
_TEXT	SEGMENT
_str$ = 8						; size = 4
?InsertDateGubun@CDlgTrade@@QAEXAAV?$CStringT@DV?$StrTraitMFC_DLL@DV?$ChTraitsCRT@D@ATL@@@@@ATL@@@Z PROC ; CDlgTrade::InsertDateGubun, COMDAT
; _this$ = ecx

; 481  : {

  00000	55		 push	 ebp
  00001	8b ec		 mov	 ebp, esp
  00003	56		 push	 esi

; 482  : 	if(str.GetLength()<4) return;

  00004	8b 75 08	 mov	 esi, DWORD PTR _str$[ebp]
  00007	8b 06		 mov	 eax, DWORD PTR [esi]
  00009	83 78 f4 04	 cmp	 DWORD PTR [eax-12], 4
  0000d	7c 18		 jl	 SHORT $LN1@InsertDate

; 483  : 	str.Insert(4,'/');

  0000f	6a 2f		 push	 47			; 0000002fH
  00011	6a 04		 push	 4
  00013	8b ce		 mov	 ecx, esi
  00015	ff 15 00 00 00
	00		 call	 DWORD PTR __imp_?Insert@?$CStringT@DV?$StrTraitMFC_DLL@DV?$ChTraitsCRT@D@ATL@@@@@ATL@@QAEHHD@Z

; 484  : 	str.Insert(7,'/');

  0001b	6a 2f		 push	 47			; 0000002fH
  0001d	6a 07		 push	 7
  0001f	8b ce		 mov	 ecx, esi
  00021	ff 15 00 00 00
	00		 call	 DWORD PTR __imp_?Insert@?$CStringT@DV?$StrTraitMFC_DLL@DV?$ChTraitsCRT@D@ATL@@@@@ATL@@QAEHHD@Z
$LN1@InsertDate:
  00027	5e		 pop	 esi

; 485  : }

  00028	5d		 pop	 ebp
  00029	c2 04 00	 ret	 4
?InsertDateGubun@CDlgTrade@@QAEXAAV?$CStringT@DV?$StrTraitMFC_DLL@DV?$ChTraitsCRT@D@ATL@@@@@ATL@@@Z ENDP ; CDlgTrade::InsertDateGubun
_TEXT	ENDS
; Function compile flags: /Ogtp
; File D:\git\src\IBK\IBK_DRFN\ProjSrc\SrcDrfn\Chart\INDEXOPTIMIZER\DlgTrade.cpp
;	COMDAT ?InsertMonthGubun@CDlgTrade@@QAEXAAV?$CStringT@DV?$StrTraitMFC_DLL@DV?$ChTraitsCRT@D@ATL@@@@@ATL@@@Z
_TEXT	SEGMENT
_str$ = 8						; size = 4
?InsertMonthGubun@CDlgTrade@@QAEXAAV?$CStringT@DV?$StrTraitMFC_DLL@DV?$ChTraitsCRT@D@ATL@@@@@ATL@@@Z PROC ; CDlgTrade::InsertMonthGubun, COMDAT
; _this$ = ecx

; 475  : {

  00000	55		 push	 ebp
  00001	8b ec		 mov	 ebp, esp

; 476  : 	if(str.GetLength()<4) return;

  00003	8b 4d 08	 mov	 ecx, DWORD PTR _str$[ebp]
  00006	8b 01		 mov	 eax, DWORD PTR [ecx]
  00008	83 78 f4 04	 cmp	 DWORD PTR [eax-12], 4
  0000c	7c 0a		 jl	 SHORT $LN1@InsertMont

; 477  : 	str.Insert(4,'/');

  0000e	6a 2f		 push	 47			; 0000002fH
  00010	6a 04		 push	 4
  00012	ff 15 00 00 00
	00		 call	 DWORD PTR __imp_?Insert@?$CStringT@DV?$StrTraitMFC_DLL@DV?$ChTraitsCRT@D@ATL@@@@@ATL@@QAEHHD@Z
$LN1@InsertMont:

; 478  : }

  00018	5d		 pop	 ebp
  00019	c2 04 00	 ret	 4
?InsertMonthGubun@CDlgTrade@@QAEXAAV?$CStringT@DV?$StrTraitMFC_DLL@DV?$ChTraitsCRT@D@ATL@@@@@ATL@@@Z ENDP ; CDlgTrade::InsertMonthGubun
_TEXT	ENDS
; Function compile flags: /Ogtp
; File D:\git\src\IBK\IBK_DRFN\ProjSrc\SrcDrfn\Chart\INDEXOPTIMIZER\DlgTrade.cpp
; File C:\Program Files (x86)\Microsoft Visual Studio\2019\Community\VC\Tools\MSVC\14.29.30133\atlmfc\include\afxtempl.h
; File D:\git\src\IBK\IBK_DRFN\ProjSrc\SrcDrfn\Chart\INDEXOPTIMIZER\DlgTrade.cpp
; File C:\Program Files (x86)\Microsoft Visual Studio\2019\Community\VC\Tools\MSVC\14.29.30133\atlmfc\include\afxcoll.inl
; File D:\git\src\IBK\IBK_DRFN\ProjSrc\SrcDrfn\Chart\INDEXOPTIMIZER\DlgTrade.cpp
; File C:\Program Files (x86)\Microsoft Visual Studio\2019\Community\VC\Tools\MSVC\14.29.30133\atlmfc\include\afxcoll.inl
; File D:\git\src\IBK\IBK_DRFN\ProjSrc\SrcDrfn\Chart\INDEXOPTIMIZER\DlgTrade.cpp
; File C:\Program Files (x86)\Microsoft Visual Studio\2019\Community\VC\Tools\MSVC\14.29.30133\atlmfc\include\afxcoll.inl
; File D:\git\src\IBK\IBK_DRFN\ProjSrc\SrcDrfn\Chart\INDEXOPTIMIZER\DlgTrade.cpp
; File C:\Program Files (x86)\Microsoft Visual Studio\2019\Community\VC\Tools\MSVC\14.29.30133\atlmfc\include\afxcoll.inl
; File D:\git\src\IBK\IBK_DRFN\ProjSrc\SrcDrfn\Chart\INDEXOPTIMIZER\DlgTrade.cpp
; File C:\Program Files (x86)\Microsoft Visual Studio\2019\Community\VC\Tools\MSVC\14.29.30133\atlmfc\include\afxcoll.inl
; File D:\git\src\IBK\IBK_DRFN\ProjSrc\SrcDrfn\Chart\INDEXOPTIMIZER\DlgTrade.cpp
; File C:\Program Files (x86)\Microsoft Visual Studio\2019\Community\VC\Tools\MSVC\14.29.30133\atlmfc\include\afxcoll.inl
; File D:\git\src\IBK\IBK_DRFN\ProjSrc\SrcDrfn\Chart\INDEXOPTIMIZER\DlgTrade.cpp
; File C:\Program Files (x86)\Microsoft Visual Studio\2019\Community\VC\Tools\MSVC\14.29.30133\atlmfc\include\afxcoll.inl
; File D:\git\src\IBK\IBK_DRFN\ProjSrc\SrcDrfn\Chart\INDEXOPTIMIZER\DlgTrade.cpp
; File C:\Program Files (x86)\Microsoft Visual Studio\2019\Community\VC\Tools\MSVC\14.29.30133\atlmfc\include\afxcoll.inl
; File D:\git\src\IBK\IBK_DRFN\ProjSrc\SrcDrfn\Chart\INDEXOPTIMIZER\DlgTrade.cpp
; File C:\Program Files (x86)\Microsoft Visual Studio\2019\Community\VC\Tools\MSVC\14.29.30133\atlmfc\include\afxcoll.inl
; File D:\git\src\IBK\IBK_DRFN\ProjSrc\SrcDrfn\Chart\INDEXOPTIMIZER\DlgTrade.cpp
; File C:\Program Files (x86)\Microsoft Visual Studio\2019\Community\VC\Tools\MSVC\14.29.30133\atlmfc\include\afxcoll.inl
; File D:\git\src\IBK\IBK_DRFN\ProjSrc\SrcDrfn\Chart\INDEXOPTIMIZER\DlgTrade.cpp
; File C:\Program Files (x86)\Microsoft Visual Studio\2019\Community\VC\Tools\MSVC\14.29.30133\atlmfc\include\afxtempl.h
; File D:\git\src\IBK\IBK_DRFN\ProjSrc\SrcDrfn\Chart\INDEXOPTIMIZER\DlgTrade.cpp
; File C:\Program Files (x86)\Microsoft Visual Studio\2019\Community\VC\Tools\MSVC\14.29.30133\atlmfc\include\afxtempl.h
; File D:\git\src\IBK\IBK_DRFN\ProjSrc\SrcDrfn\Chart\INDEXOPTIMIZER\DlgTrade.cpp
; File C:\Program Files (x86)\Microsoft Visual Studio\2019\Community\VC\Tools\MSVC\14.29.30133\atlmfc\include\afxcoll.inl
; File D:\git\src\IBK\IBK_DRFN\ProjSrc\SrcDrfn\Chart\INDEXOPTIMIZER\DlgTrade.cpp
; File C:\Program Files (x86)\Microsoft Visual Studio\2019\Community\VC\Tools\MSVC\14.29.30133\atlmfc\include\afxtempl.h
; File D:\git\src\IBK\IBK_DRFN\ProjSrc\SrcDrfn\Chart\INDEXOPTIMIZER\DlgTrade.cpp
; File C:\Program Files (x86)\Microsoft Visual Studio\2019\Community\VC\Tools\MSVC\14.29.30133\atlmfc\include\afxtempl.h
; File C:\Program Files (x86)\Microsoft Visual Studio\2019\Community\VC\Tools\MSVC\14.29.30133\atlmfc\include\afxcoll.inl
; File D:\git\src\IBK\IBK_DRFN\ProjSrc\SrcDrfn\Chart\INDEXOPTIMIZER\DlgTrade.cpp
; File C:\Program Files (x86)\Microsoft Visual Studio\2019\Community\VC\Tools\MSVC\14.29.30133\atlmfc\include\afxcoll.inl
; File D:\git\src\IBK\IBK_DRFN\ProjSrc\SrcDrfn\Chart\INDEXOPTIMIZER\DlgTrade.cpp
; File C:\Program Files (x86)\Microsoft Visual Studio\2019\Community\VC\Tools\MSVC\14.29.30133\atlmfc\include\afxcoll.inl
; File C:\Program Files (x86)\Microsoft Visual Studio\2019\Community\VC\Tools\MSVC\14.29.30133\atlmfc\include\cstringt.h
; File C:\Program Files (x86)\Microsoft Visual Studio\2019\Community\VC\Tools\MSVC\14.29.30133\atlmfc\include\afxcoll.inl
; File C:\Program Files (x86)\Microsoft Visual Studio\2019\Community\VC\Tools\MSVC\14.29.30133\atlmfc\include\cstringt.h
; File D:\git\src\IBK\IBK_DRFN\ProjSrc\SrcDrfn\Chart\INDEXOPTIMIZER\DlgTrade.cpp
; File C:\Program Files (x86)\Microsoft Visual Studio\2019\Community\VC\Tools\MSVC\14.29.30133\atlmfc\include\afxcoll.inl
; File C:\Program Files (x86)\Microsoft Visual Studio\2019\Community\VC\Tools\MSVC\14.29.30133\atlmfc\include\cstringt.h
; File C:\Program Files (x86)\Microsoft Visual Studio\2019\Community\VC\Tools\MSVC\14.29.30133\atlmfc\include\afxcoll.inl
; File C:\Program Files (x86)\Microsoft Visual Studio\2019\Community\VC\Tools\MSVC\14.29.30133\atlmfc\include\cstringt.h
; File D:\git\src\IBK\IBK_DRFN\ProjSrc\SrcDrfn\Chart\INDEXOPTIMIZER\DlgTrade.cpp
; File C:\Program Files (x86)\Microsoft Visual Studio\2019\Community\VC\Tools\MSVC\14.29.30133\atlmfc\include\afxcoll.inl
; File D:\git\src\IBK\IBK_DRFN\ProjSrc\SrcDrfn\Chart\INDEXOPTIMIZER\DlgTrade.cpp
; File C:\Program Files (x86)\Microsoft Visual Studio\2019\Community\VC\Tools\MSVC\14.29.30133\atlmfc\include\afxcoll.inl
; File C:\Program Files (x86)\Microsoft Visual Studio\2019\Community\VC\Tools\MSVC\14.29.30133\atlmfc\include\cstringt.h
; File C:\Program Files (x86)\Microsoft Visual Studio\2019\Community\VC\Tools\MSVC\14.29.30133\atlmfc\include\afxcoll.inl
; File C:\Program Files (x86)\Microsoft Visual Studio\2019\Community\VC\Tools\MSVC\14.29.30133\atlmfc\include\cstringt.h
; File D:\git\src\IBK\IBK_DRFN\ProjSrc\SrcDrfn\Chart\INDEXOPTIMIZER\DlgTrade.cpp
; File C:\Program Files (x86)\Microsoft Visual Studio\2019\Community\VC\Tools\MSVC\14.29.30133\atlmfc\include\afxcoll.inl
; File C:\Program Files (x86)\Microsoft Visual Studio\2019\Community\VC\Tools\MSVC\14.29.30133\atlmfc\include\cstringt.h
; File C:\Program Files (x86)\Microsoft Visual Studio\2019\Community\VC\Tools\MSVC\14.29.30133\atlmfc\include\afxcoll.inl
; File C:\Program Files (x86)\Microsoft Visual Studio\2019\Community\VC\Tools\MSVC\14.29.30133\atlmfc\include\cstringt.h
; File D:\git\src\IBK\IBK_DRFN\ProjSrc\SrcDrfn\Chart\INDEXOPTIMIZER\DlgTrade.cpp
; File C:\Program Files (x86)\Microsoft Visual Studio\2019\Community\VC\Tools\MSVC\14.29.30133\atlmfc\include\afxcoll.inl
; File C:\Program Files (x86)\Microsoft Visual Studio\2019\Community\VC\Tools\MSVC\14.29.30133\atlmfc\include\cstringt.h
; File C:\Program Files (x86)\Microsoft Visual Studio\2019\Community\VC\Tools\MSVC\14.29.30133\atlmfc\include\afxcoll.inl
; File C:\Program Files (x86)\Microsoft Visual Studio\2019\Community\VC\Tools\MSVC\14.29.30133\atlmfc\include\cstringt.h
; File D:\git\src\IBK\IBK_DRFN\ProjSrc\SrcDrfn\Chart\INDEXOPTIMIZER\DlgTrade.cpp
; File C:\Program Files (x86)\Microsoft Visual Studio\2019\Community\VC\Tools\MSVC\14.29.30133\atlmfc\include\afxcoll.inl
; File C:\Program Files (x86)\Microsoft Visual Studio\2019\Community\VC\Tools\MSVC\14.29.30133\atlmfc\include\cstringt.h
; File C:\Program Files (x86)\Microsoft Visual Studio\2019\Community\VC\Tools\MSVC\14.29.30133\atlmfc\include\afxcoll.inl
; File C:\Program Files (x86)\Microsoft Visual Studio\2019\Community\VC\Tools\MSVC\14.29.30133\atlmfc\include\cstringt.h
; File D:\git\src\IBK\IBK_DRFN\ProjSrc\SrcDrfn\Chart\INDEXOPTIMIZER\DlgTrade.cpp
; File C:\Program Files (x86)\Microsoft Visual Studio\2019\Community\VC\Tools\MSVC\14.29.30133\atlmfc\include\afxcoll.inl
; File D:\git\src\IBK\IBK_DRFN\ProjSrc\SrcDrfn\Chart\INDEXOPTIMIZER\DlgTrade.cpp
; File C:\Program Files (x86)\Microsoft Visual Studio\2019\Community\VC\Tools\MSVC\14.29.30133\atlmfc\include\afxcoll.inl
; File D:\git\src\IBK\IBK_DRFN\ProjSrc\SrcDrfn\Chart\INDEXOPTIMIZER\DlgTrade.cpp
; File C:\Program Files (x86)\Microsoft Visual Studio\2019\Community\VC\Tools\MSVC\14.29.30133\atlmfc\include\afxcoll.inl
; File D:\git\src\IBK\IBK_DRFN\ProjSrc\SrcDrfn\Chart\INDEXOPTIMIZER\DlgTrade.cpp
; File C:\Program Files (x86)\Microsoft Visual Studio\2019\Community\VC\Tools\MSVC\14.29.30133\atlmfc\include\afxwin2.inl
; File D:\git\src\IBK\IBK_DRFN\ProjSrc\SrcDrfn\Chart\INDEXOPTIMIZER\DlgTrade.cpp
; File C:\Program Files (x86)\Microsoft Visual Studio\2019\Community\VC\Tools\MSVC\14.29.30133\atlmfc\include\afxcoll.inl
; File C:\Program Files (x86)\Microsoft Visual Studio\2019\Community\VC\Tools\MSVC\14.29.30133\atlmfc\include\afxtempl.h
; File D:\git\src\IBK\IBK_DRFN\ProjSrc\SrcDrfn\Chart\INDEXOPTIMIZER\DlgTrade.cpp
; File C:\Program Files (x86)\Microsoft Visual Studio\2019\Community\VC\Tools\MSVC\14.29.30133\atlmfc\include\afxtempl.h
; File D:\git\src\IBK\IBK_DRFN\ProjSrc\SrcDrfn\Chart\INDEXOPTIMIZER\DlgTrade.cpp
; File C:\Program Files (x86)\Microsoft Visual Studio\2019\Community\VC\Tools\MSVC\14.29.30133\atlmfc\include\cstringt.h
; File D:\git\src\IBK\IBK_DRFN\ProjSrc\SrcDrfn\Chart\INDEXOPTIMIZER\DlgTrade.cpp
; File C:\Program Files (x86)\Microsoft Visual Studio\2019\Community\VC\Tools\MSVC\14.29.30133\atlmfc\include\cstringt.h
; File C:\Program Files (x86)\Microsoft Visual Studio\2019\Community\VC\Tools\MSVC\14.29.30133\atlmfc\include\atlsimpstr.h
; File C:\Program Files (x86)\Microsoft Visual Studio\2019\Community\VC\Tools\MSVC\14.29.30133\atlmfc\include\cstringt.h
; File D:\git\src\IBK\IBK_DRFN\ProjSrc\SrcDrfn\Chart\INDEXOPTIMIZER\DlgTrade.cpp
; File C:\Program Files (x86)\Microsoft Visual Studio\2019\Community\VC\Tools\MSVC\14.29.30133\atlmfc\include\cstringt.h
; File D:\git\src\IBK\IBK_DRFN\ProjSrc\SrcDrfn\Chart\INDEXOPTIMIZER\DlgTrade.cpp
; File C:\Program Files (x86)\Microsoft Visual Studio\2019\Community\VC\Tools\MSVC\14.29.30133\atlmfc\include\cstringt.h
; File C:\Program Files (x86)\Microsoft Visual Studio\2019\Community\VC\Tools\MSVC\14.29.30133\atlmfc\include\atlsimpstr.h
; File C:\Program Files (x86)\Microsoft Visual Studio\2019\Community\VC\Tools\MSVC\14.29.30133\atlmfc\include\cstringt.h
; File D:\git\src\IBK\IBK_DRFN\ProjSrc\SrcDrfn\Chart\INDEXOPTIMIZER\DlgTrade.cpp
;	COMDAT ?GetSTMessageData@CDlgTrade@@QAEXXZ
_TEXT	SEGMENT
_NewFile$ = -240					; size = 24
_stNujukArray$ = -216					; size = 20
_newElement$1$ = -196					; size = 8
_newElement$ = -196					; size = 8
$T2 = -188						; size = 4
$T3 = -184						; size = 4
$T4 = -180						; size = 4
$T5 = -176						; size = 4
$T6 = -172						; size = 4
$T7 = -168						; size = 4
$T8 = -164						; size = 4
_dGunSu$ = -160						; size = 20
_dSonIk$ = -140						; size = 20
_nSize$1$ = -120					; size = 4
$T9 = -120						; size = 4
_this$GSCopy$1$ = -116					; size = 4
_Index$10 = -112					; size = 4
_TableCode$ = -108					; size = 4
_str$ = -104						; size = 4
$T11 = -100						; size = 4
_Data$12 = -100						; size = 4
_strHtml$ = -96						; size = 4
_bNujuk$1$ = -92					; size = 4
_ResultData$ = -88					; size = 20
_str2$ = -68						; size = 4
_i$1$ = -64						; size = 4
$T13 = -64						; size = 4
$T14 = -64						; size = 4
_strResultData$ = -60					; size = 4
_m_pHtmlCodeNameArray$ = -56				; size = 40
__$ArrayPad$ = -16					; size = 4
__$EHRec$ = -12						; size = 12
?GetSTMessageData@CDlgTrade@@QAEXXZ PROC		; CDlgTrade::GetSTMessageData, COMDAT
; _this$ = ecx

; 244  : {

  00000	55		 push	 ebp
  00001	8b ec		 mov	 ebp, esp
  00003	6a ff		 push	 -1
  00005	68 00 00 00 00	 push	 __ehhandler$?GetSTMessageData@CDlgTrade@@QAEXXZ
  0000a	64 a1 00 00 00
	00		 mov	 eax, DWORD PTR fs:0
  00010	50		 push	 eax
  00011	81 ec e4 00 00
	00		 sub	 esp, 228		; 000000e4H
  00017	a1 00 00 00 00	 mov	 eax, DWORD PTR ___security_cookie
  0001c	33 c5		 xor	 eax, ebp
  0001e	89 45 f0	 mov	 DWORD PTR __$ArrayPad$[ebp], eax
  00021	53		 push	 ebx
  00022	56		 push	 esi
  00023	57		 push	 edi
  00024	50		 push	 eax
  00025	8d 45 f4	 lea	 eax, DWORD PTR __$EHRec$[ebp]
  00028	64 a3 00 00 00
	00		 mov	 DWORD PTR fs:0, eax
  0002e	8b f9		 mov	 edi, ecx
  00030	89 7d 8c	 mov	 DWORD PTR _this$GSCopy$1$[ebp], edi

; 245  : 	CString TableCode;

  00033	8d 4d 94	 lea	 ecx, DWORD PTR _TableCode$[ebp]
  00036	c7 45 9c 00 00
	00 00		 mov	 DWORD PTR $T11[ebp], 0
  0003d	ff 15 00 00 00
	00		 call	 DWORD PTR __imp_??0?$CStringT@DV?$StrTraitMFC_DLL@DV?$ChTraitsCRT@D@ATL@@@@@ATL@@QAE@XZ

; 246  : 	CString str2,strHtml;

  00043	8d 4d bc	 lea	 ecx, DWORD PTR _str2$[ebp]
  00046	c7 45 fc 00 00
	00 00		 mov	 DWORD PTR __$EHRec$[ebp+8], 0
  0004d	ff 15 00 00 00
	00		 call	 DWORD PTR __imp_??0?$CStringT@DV?$StrTraitMFC_DLL@DV?$ChTraitsCRT@D@ATL@@@@@ATL@@QAE@XZ
  00053	8d 4d a0	 lea	 ecx, DWORD PTR _strHtml$[ebp]
  00056	ff 15 00 00 00
	00		 call	 DWORD PTR __imp_??0?$CStringT@DV?$StrTraitMFC_DLL@DV?$ChTraitsCRT@D@ATL@@@@@ATL@@QAE@XZ

; 247  : 	CString strResultData;

  0005c	8d 4d c4	 lea	 ecx, DWORD PTR _strResultData$[ebp]
  0005f	ff 15 00 00 00
	00		 call	 DWORD PTR __imp_??0?$CStringT@DV?$StrTraitMFC_DLL@DV?$ChTraitsCRT@D@ATL@@@@@ATL@@QAE@XZ

; 248  : 	CStringArray ResultData;

  00065	8d 4d a8	 lea	 ecx, DWORD PTR _ResultData$[ebp]
  00068	c6 45 fc 03	 mov	 BYTE PTR __$EHRec$[ebp+8], 3
  0006c	e8 00 00 00 00	 call	 ??0CStringArray@@QAE@XZ	; CStringArray::CStringArray

; 249  : 	CStrategyResult* Result;
; 250  : 	CString str;

  00071	8d 4d 98	 lea	 ecx, DWORD PTR _str$[ebp]
  00074	ff 15 00 00 00
	00		 call	 DWORD PTR __imp_??0?$CStringT@DV?$StrTraitMFC_DLL@DV?$ChTraitsCRT@D@ATL@@@@@ATL@@QAE@XZ

; 251  : 
; 252  : 	if(m_pDlgOptimizer==NULL)

  0007a	8b 87 ac 00 00
	00		 mov	 eax, DWORD PTR [edi+172]
  00080	c6 45 fc 05	 mov	 BYTE PTR __$EHRec$[ebp+8], 5
  00084	85 c0		 test	 eax, eax
  00086	75 11		 jne	 SHORT $LN13@GetSTMessa

; 253  : 	{
; 254  : 		AfxMessageBox("[PROJ : IndexOptimizer ] CDlgTrade::GetSTMessageData() ");

  00088	50		 push	 eax
  00089	50		 push	 eax
  0008a	68 00 00 00 00	 push	 OFFSET ??_C@_0EA@IAJPAJJA@?$FLPROJ?5?3?5IndexOptimizer?5?$FN?5CDlgTr@
  0008f	e8 00 00 00 00	 call	 ?AfxMessageBox@@YGHPBDII@Z ; AfxMessageBox

; 255  : 		return;

  00094	e9 45 0a 00 00	 jmp	 $LN421@GetSTMessa
$LN13@GetSTMessa:

; 256  : 	}
; 257  : 
; 258  : 	m_pStrategyItem = m_pDlgOptimizer->GetStrategyItem();

  00099	8b 80 10 05 00
	00		 mov	 eax, DWORD PTR [eax+1296]

; 259  : 	strHtml = m_strHtml;

  0009f	8d 4d a0	 lea	 ecx, DWORD PTR _strHtml$[ebp]
  000a2	89 87 b8 00 00
	00		 mov	 DWORD PTR [edi+184], eax
  000a8	8d 87 bc 00 00
	00		 lea	 eax, DWORD PTR [edi+188]
  000ae	50		 push	 eax
  000af	ff 15 00 00 00
	00		 call	 DWORD PTR __imp_??4?$CStringT@DV?$StrTraitMFC_DLL@DV?$ChTraitsCRT@D@ATL@@@@@ATL@@QAEAAV01@ABV01@@Z

; 260  : 	CString m_pHtmlCodeNameArray[10] =
; 261  : 	{"Num","Position","Date","Price","Amount","Entry","ProfitAccum","NuAccum","GunRate","NuJukRate"};

  000b5	68 00 00 00 00	 push	 OFFSET ??_C@_03CHBJLALM@Num@
  000ba	8d 4d c8	 lea	 ecx, DWORD PTR _m_pHtmlCodeNameArray$[ebp]
  000bd	ff 15 00 00 00
	00		 call	 DWORD PTR __imp_??0?$CStringT@DV?$StrTraitMFC_DLL@DV?$ChTraitsCRT@D@ATL@@@@@ATL@@QAE@PBD@Z
  000c3	68 00 00 00 00	 push	 OFFSET ??_C@_08GCJNLIKG@Position@
  000c8	8d 4d cc	 lea	 ecx, DWORD PTR _m_pHtmlCodeNameArray$[ebp+4]
  000cb	c6 45 fc 06	 mov	 BYTE PTR __$EHRec$[ebp+8], 6
  000cf	ff 15 00 00 00
	00		 call	 DWORD PTR __imp_??0?$CStringT@DV?$StrTraitMFC_DLL@DV?$ChTraitsCRT@D@ATL@@@@@ATL@@QAE@PBD@Z
  000d5	68 00 00 00 00	 push	 OFFSET ??_C@_04FMEGDJGD@Date@
  000da	8d 4d d0	 lea	 ecx, DWORD PTR _m_pHtmlCodeNameArray$[ebp+8]
  000dd	c6 45 fc 07	 mov	 BYTE PTR __$EHRec$[ebp+8], 7
  000e1	ff 15 00 00 00
	00		 call	 DWORD PTR __imp_??0?$CStringT@DV?$StrTraitMFC_DLL@DV?$ChTraitsCRT@D@ATL@@@@@ATL@@QAE@PBD@Z
  000e7	68 00 00 00 00	 push	 OFFSET ??_C@_05NFJELHBG@Price@
  000ec	8d 4d d4	 lea	 ecx, DWORD PTR _m_pHtmlCodeNameArray$[ebp+12]
  000ef	c6 45 fc 08	 mov	 BYTE PTR __$EHRec$[ebp+8], 8
  000f3	ff 15 00 00 00
	00		 call	 DWORD PTR __imp_??0?$CStringT@DV?$StrTraitMFC_DLL@DV?$ChTraitsCRT@D@ATL@@@@@ATL@@QAE@PBD@Z
  000f9	68 00 00 00 00	 push	 OFFSET ??_C@_06HKBMKICC@Amount@
  000fe	8d 4d d8	 lea	 ecx, DWORD PTR _m_pHtmlCodeNameArray$[ebp+16]
  00101	c6 45 fc 09	 mov	 BYTE PTR __$EHRec$[ebp+8], 9
  00105	ff 15 00 00 00
	00		 call	 DWORD PTR __imp_??0?$CStringT@DV?$StrTraitMFC_DLL@DV?$ChTraitsCRT@D@ATL@@@@@ATL@@QAE@PBD@Z
  0010b	68 00 00 00 00	 push	 OFFSET ??_C@_05HKHPEFOF@Entry@
  00110	8d 4d dc	 lea	 ecx, DWORD PTR _m_pHtmlCodeNameArray$[ebp+20]
  00113	c6 45 fc 0a	 mov	 BYTE PTR __$EHRec$[ebp+8], 10 ; 0000000aH
  00117	ff 15 00 00 00
	00		 call	 DWORD PTR __imp_??0?$CStringT@DV?$StrTraitMFC_DLL@DV?$ChTraitsCRT@D@ATL@@@@@ATL@@QAE@PBD@Z
  0011d	68 00 00 00 00	 push	 OFFSET ??_C@_0M@HHGFFDDN@ProfitAccum@
  00122	8d 4d e0	 lea	 ecx, DWORD PTR _m_pHtmlCodeNameArray$[ebp+24]
  00125	c6 45 fc 0b	 mov	 BYTE PTR __$EHRec$[ebp+8], 11 ; 0000000bH
  00129	ff 15 00 00 00
	00		 call	 DWORD PTR __imp_??0?$CStringT@DV?$StrTraitMFC_DLL@DV?$ChTraitsCRT@D@ATL@@@@@ATL@@QAE@PBD@Z
  0012f	68 00 00 00 00	 push	 OFFSET ??_C@_07KJPGDMCN@NuAccum@
  00134	8d 4d e4	 lea	 ecx, DWORD PTR _m_pHtmlCodeNameArray$[ebp+28]
  00137	c6 45 fc 0c	 mov	 BYTE PTR __$EHRec$[ebp+8], 12 ; 0000000cH
  0013b	ff 15 00 00 00
	00		 call	 DWORD PTR __imp_??0?$CStringT@DV?$StrTraitMFC_DLL@DV?$ChTraitsCRT@D@ATL@@@@@ATL@@QAE@PBD@Z
  00141	68 00 00 00 00	 push	 OFFSET ??_C@_07LPBACJGH@GunRate@
  00146	8d 4d e8	 lea	 ecx, DWORD PTR _m_pHtmlCodeNameArray$[ebp+32]
  00149	c6 45 fc 0d	 mov	 BYTE PTR __$EHRec$[ebp+8], 13 ; 0000000dH
  0014d	ff 15 00 00 00
	00		 call	 DWORD PTR __imp_??0?$CStringT@DV?$StrTraitMFC_DLL@DV?$ChTraitsCRT@D@ATL@@@@@ATL@@QAE@PBD@Z
  00153	68 00 00 00 00	 push	 OFFSET ??_C@_09MIDHKLJD@NuJukRate@
  00158	8d 4d ec	 lea	 ecx, DWORD PTR _m_pHtmlCodeNameArray$[ebp+36]
  0015b	c6 45 fc 0e	 mov	 BYTE PTR __$EHRec$[ebp+8], 14 ; 0000000eH
  0015f	ff 15 00 00 00
	00		 call	 DWORD PTR __imp_??0?$CStringT@DV?$StrTraitMFC_DLL@DV?$ChTraitsCRT@D@ATL@@@@@ATL@@QAE@PBD@Z

; 262  : 
; 263  : 	str= _T("<tr Align=\"Right\"><td width=\"39\" height=\"18\" ><font face=\"\" color=\"black\"><span style=\"font-size:10pt;\">Num</span></font></td>\n")

  00165	68 00 00 00 00	 push	 OFFSET ??_C@_0EII@IBMGMDDP@?$DMtr?5Align?$DN?$CCRight?$CC?$DO?$DMtd?5width?$DN?$CC39@
  0016a	8d 4d 98	 lea	 ecx, DWORD PTR _str$[ebp]
  0016d	c6 45 fc 0f	 mov	 BYTE PTR __$EHRec$[ebp+8], 15 ; 0000000fH
  00171	ff 15 00 00 00
	00		 call	 DWORD PTR __imp_??4?$CStringT@DV?$StrTraitMFC_DLL@DV?$ChTraitsCRT@D@ATL@@@@@ATL@@QAEAAV01@PBD@Z

; 264  :       _T("<td width=\"71\" height=\"18\"><font face=\"\" color=\"FC1\"><span style=\"font-size:9pt;\">Position</span></font></td>\n")
; 265  :       _T("<td width=\"70\" height=\"18\"><font face=\"\" color=\"FC1\"><span style=\"font-size:9pt;\">Date</span></font></td>\n")
; 266  :       _T("<td width=\"70\" height=\"18\"><font face=\"\" color=\"black\"><span style=\"font-size:9pt;\">Price</span></font></td>\n")
; 267  :       _T("<td width=\"35\" height=\"18\"><font face=\"\" color=\"black\"><span style=\"font-size:9pt;\">Amount</span></font></td>\n")
; 268  :       _T("<td width=\"73\" height=\"18\"><font face=\"\" color=\"black\"><span style=\"font-size:9pt;\">Entry</span></font></td>\n")
; 269  :       _T("<td width=\"73\" height=\"18\"><font face=\"\" color=\"FC6\"><span style=\"font-size:9pt;\">ProfitAccum</span></font></td>\n")
; 270  :       _T("<td width=\"78\" height=\"18\"><font face=\"\" color=\"FC7\"><span style=\"font-size:9pt;\">NuAccum</span></font></td>\n")
; 271  :       _T("<td width=\"73\" height=\"18\"><font face=\"\" color=\"FC8\"><span style=\"font-size:9pt;\">GunRate</span></font></td>\n")
; 272  :       _T("<td width=\"78\" height=\"18\"><font face=\"\" color=\"FC9\"><span style=\"font-size:9pt;\">NuJukRate</span></font></td>\n")
; 273  : 	  _T("</tr>\n");
; 274  : 	
; 275  : 		int nSize =m_pStrategyItem->GetCntStrategyResult();

  00177	8b 8f b8 00 00
	00		 mov	 ecx, DWORD PTR [edi+184]
  0017d	8b 01		 mov	 eax, DWORD PTR [ecx]
  0017f	ff 50 48	 call	 DWORD PTR [eax+72]
  00182	8b d8		 mov	 ebx, eax

; 276  : 		CStringArray stNujukArray;//

  00184	8d 8d 28 ff ff
	ff		 lea	 ecx, DWORD PTR _stNujukArray$[ebp]
  0018a	89 5d 88	 mov	 DWORD PTR _nSize$1$[ebp], ebx
  0018d	e8 00 00 00 00	 call	 ??0CStringArray@@QAE@XZ	; CStringArray::CStringArray
; File C:\Program Files (x86)\Microsoft Visual Studio\2019\Community\VC\Tools\MSVC\14.29.30133\atlmfc\include\afxtempl.h

; 348  : {

  00192	c7 85 60 ff ff
	ff 00 00 00 00	 mov	 DWORD PTR _dGunSu$[ebp], OFFSET ??_7?$CArray@NN@@6B@

; 349  : 	m_pData = NULL;

  0019c	c7 85 64 ff ff
	ff 00 00 00 00	 mov	 DWORD PTR _dGunSu$[ebp+4], 0

; 350  : 	m_nSize = m_nMaxSize = m_nGrowBy = 0;

  001a6	c7 85 70 ff ff
	ff 00 00 00 00	 mov	 DWORD PTR _dGunSu$[ebp+16], 0
  001b0	c7 85 6c ff ff
	ff 00 00 00 00	 mov	 DWORD PTR _dGunSu$[ebp+12], 0
  001ba	c7 85 68 ff ff
	ff 00 00 00 00	 mov	 DWORD PTR _dGunSu$[ebp+8], 0

; 348  : {

  001c4	c7 85 74 ff ff
	ff 00 00 00 00	 mov	 DWORD PTR _dSonIk$[ebp], OFFSET ??_7?$CArray@NN@@6B@

; 349  : 	m_pData = NULL;

  001ce	c7 85 78 ff ff
	ff 00 00 00 00	 mov	 DWORD PTR _dSonIk$[ebp+4], 0

; 350  : 	m_nSize = m_nMaxSize = m_nGrowBy = 0;

  001d8	c7 45 84 00 00
	00 00		 mov	 DWORD PTR _dSonIk$[ebp+16], 0
  001df	c7 45 80 00 00
	00 00		 mov	 DWORD PTR _dSonIk$[ebp+12], 0
  001e6	c7 85 7c ff ff
	ff 00 00 00 00	 mov	 DWORD PTR _dSonIk$[ebp+8], 0
; File D:\git\src\IBK\IBK_DRFN\ProjSrc\SrcDrfn\Chart\INDEXOPTIMIZER\DlgTrade.cpp

; 278  : 		CArray<double,double> dSonIk;// 

  001f0	c6 45 fc 12	 mov	 BYTE PTR __$EHRec$[ebp+8], 18 ; 00000012H

; 279  : 		BOOL bNujuk = FALSE;

  001f4	c7 45 a4 00 00
	00 00		 mov	 DWORD PTR _bNujuk$1$[ebp], 0

; 280  : 		for(int i =0 ;i < nSize; i++)

  001fb	33 d2		 xor	 edx, edx
  001fd	89 55 c0	 mov	 DWORD PTR _i$1$[ebp], edx
  00200	85 db		 test	 ebx, ebx
  00202	0f 8e 77 06 00
	00		 jle	 $LN3@GetSTMessa
  00208	8b 1d 00 00 00
	00		 mov	 ebx, DWORD PTR __imp_?Format@?$CStringT@DV?$StrTraitMFC_DLL@DV?$ChTraitsCRT@D@ATL@@@@@ATL@@QAAXPBDZZ
  0020e	66 90		 npad	 2
$LL4@GetSTMessa:

; 281  : 		{	
; 282  : 			Result = m_pStrategyItem->GetStrategyResult(i);

  00210	8b 8f b8 00 00
	00		 mov	 ecx, DWORD PTR [edi+184]
  00216	52		 push	 edx
  00217	8b 01		 mov	 eax, DWORD PTR [ecx]
  00219	ff 50 4c	 call	 DWORD PTR [eax+76]
  0021c	8b f0		 mov	 esi, eax

; 283  : 			str2 = str;

  0021e	8d 4d bc	 lea	 ecx, DWORD PTR _str2$[ebp]
  00221	8d 45 98	 lea	 eax, DWORD PTR _str$[ebp]
  00224	50		 push	 eax
  00225	ff 15 00 00 00
	00		 call	 DWORD PTR __imp_??4?$CStringT@DV?$StrTraitMFC_DLL@DV?$ChTraitsCRT@D@ATL@@@@@ATL@@QAEAAV01@ABV01@@Z
; File C:\Program Files (x86)\Microsoft Visual Studio\2019\Community\VC\Tools\MSVC\14.29.30133\atlmfc\include\afxcoll.inl

; 286  : 	{ SetSize(0); }

  0022b	6a ff		 push	 -1
  0022d	6a 00		 push	 0
  0022f	8d 4d a8	 lea	 ecx, DWORD PTR _ResultData$[ebp]
  00232	e8 00 00 00 00	 call	 ?SetSize@CStringArray@@QAEXHH@Z ; CStringArray::SetSize
; File D:\git\src\IBK\IBK_DRFN\ProjSrc\SrcDrfn\Chart\INDEXOPTIMIZER\DlgTrade.cpp

; 287  : 			strResultData.Format("%d",i+1);

  00237	8b 45 c0	 mov	 eax, DWORD PTR _i$1$[ebp]
  0023a	40		 inc	 eax
  0023b	50		 push	 eax
  0023c	89 45 c0	 mov	 DWORD PTR _i$1$[ebp], eax
  0023f	8d 45 c4	 lea	 eax, DWORD PTR _strResultData$[ebp]
  00242	68 00 00 00 00	 push	 OFFSET ??_C@_02DPKJAMEF@?$CFd@
  00247	50		 push	 eax
  00248	ff d3		 call	 ebx
  0024a	83 c4 0c	 add	 esp, 12			; 0000000cH
; File C:\Program Files (x86)\Microsoft Visual Studio\2019\Community\VC\Tools\MSVC\14.29.30133\atlmfc\include\afxcoll.inl

; 321  : 		SetAtGrow(nIndex, newElement);

  0024d	8d 45 c4	 lea	 eax, DWORD PTR _strResultData$[ebp]
  00250	8d 4d a8	 lea	 ecx, DWORD PTR _ResultData$[ebp]
  00253	50		 push	 eax
  00254	ff 75 b0	 push	 DWORD PTR _ResultData$[ebp+8]
  00257	e8 00 00 00 00	 call	 ?SetAtGrow@CStringArray@@QAEXHABV?$CStringT@DV?$StrTraitMFC_DLL@DV?$ChTraitsCRT@D@ATL@@@@@ATL@@@Z ; CStringArray::SetAtGrow
; File D:\git\src\IBK\IBK_DRFN\ProjSrc\SrcDrfn\Chart\INDEXOPTIMIZER\DlgTrade.cpp

; 289  : 			switch(Result->m_DealType) {

  0025c	8b 46 04	 mov	 eax, DWORD PTR [esi+4]
  0025f	83 f8 04	 cmp	 eax, 4
  00262	77 48		 ja	 SHORT $LN5@GetSTMessa
  00264	ff 24 85 00 00
	00 00		 jmp	 DWORD PTR $LN415@GetSTMessa[eax*4]
$LN14@GetSTMessa:

; 290  : 			case CStrategyResult::NONE:strResultData = "NONE";bNujuk = FALSE;

  0026b	68 00 00 00 00	 push	 OFFSET ??_C@_04OKGDLNCL@NONE@
$LN423@GetSTMessa:
; File C:\Program Files (x86)\Microsoft Visual Studio\2019\Community\VC\Tools\MSVC\14.29.30133\atlmfc\include\afxcoll.inl

; 321  : 		SetAtGrow(nIndex, newElement);

  00270	8d 4d c4	 lea	 ecx, DWORD PTR _strResultData$[ebp]
  00273	ff 15 00 00 00
	00		 call	 DWORD PTR __imp_??4?$CStringT@DV?$StrTraitMFC_DLL@DV?$ChTraitsCRT@D@ATL@@@@@ATL@@QAEAAV01@PBD@Z
  00279	c7 45 a4 00 00
	00 00		 mov	 DWORD PTR _bNujuk$1$[ebp], 0
  00280	eb 2a		 jmp	 SHORT $LN5@GetSTMessa
$LN15@GetSTMessa:
; File D:\git\src\IBK\IBK_DRFN\ProjSrc\SrcDrfn\Chart\INDEXOPTIMIZER\DlgTrade.cpp

; 292  : 			case CStrategyResult::BUY:strResultData  = "";bNujuk = FALSE;

  00282	68 00 00 00 00	 push	 OFFSET ??_C@_08BPEOHGCP@?$LI?E?$LM?v?A?x?$MA?T@

; 293  : 				break;

  00287	eb e7		 jmp	 SHORT $LN423@GetSTMessa
$LN16@GetSTMessa:

; 294  : 			case CStrategyResult::EXITSHORT:strResultData  = "";bNujuk = FALSE;

  00289	68 00 00 00 00	 push	 OFFSET ??_C@_08OJBKHDEB@?$LI?E?$LF?$LF?C?$LL?$LL?j@

; 295  : 				break;

  0028e	eb e0		 jmp	 SHORT $LN423@GetSTMessa
$LN17@GetSTMessa:

; 296  : 			case CStrategyResult::SELL:strResultData  = "";bNujuk = TRUE;

  00290	68 00 00 00 00	 push	 OFFSET ??_C@_08DBKELDO@?$LI?E?$LF?$LF?A?x?$MA?T@

; 297  : 				break;

  00295	eb 05		 jmp	 SHORT $LN422@GetSTMessa
$LN18@GetSTMessa:

; 298  : 			case CStrategyResult::EXITLONG: strResultData = "";bNujuk = TRUE;

  00297	68 00 00 00 00	 push	 OFFSET ??_C@_08PFEOEOFA@?$LI?E?$LM?v?C?$LL?$LL?j@
$LN422@GetSTMessa:
; File C:\Program Files (x86)\Microsoft Visual Studio\2019\Community\VC\Tools\MSVC\14.29.30133\atlmfc\include\afxcoll.inl

; 321  : 		SetAtGrow(nIndex, newElement);

  0029c	8d 4d c4	 lea	 ecx, DWORD PTR _strResultData$[ebp]
  0029f	ff 15 00 00 00
	00		 call	 DWORD PTR __imp_??4?$CStringT@DV?$StrTraitMFC_DLL@DV?$ChTraitsCRT@D@ATL@@@@@ATL@@QAEAAV01@PBD@Z
  002a5	c7 45 a4 01 00
	00 00		 mov	 DWORD PTR _bNujuk$1$[ebp], 1
$LN5@GetSTMessa:
  002ac	8d 45 c4	 lea	 eax, DWORD PTR _strResultData$[ebp]
  002af	50		 push	 eax
  002b0	ff 75 b0	 push	 DWORD PTR _ResultData$[ebp+8]
  002b3	8d 4d a8	 lea	 ecx, DWORD PTR _ResultData$[ebp]
  002b6	e8 00 00 00 00	 call	 ?SetAtGrow@CStringArray@@QAEXHABV?$CStringT@DV?$StrTraitMFC_DLL@DV?$ChTraitsCRT@D@ATL@@@@@ATL@@@Z ; CStringArray::SetAtGrow
; File D:\git\src\IBK\IBK_DRFN\ProjSrc\SrcDrfn\Chart\INDEXOPTIMIZER\DlgTrade.cpp

; 304  : 			strResultData.Format("%2.f",Result->m_dTime);

  002bb	f2 0f 10 46 08	 movsd	 xmm0, QWORD PTR [esi+8]
  002c0	8d 45 c4	 lea	 eax, DWORD PTR _strResultData$[ebp]
  002c3	83 ec 08	 sub	 esp, 8
  002c6	f2 0f 11 04 24	 movsd	 QWORD PTR [esp], xmm0
  002cb	68 00 00 00 00	 push	 OFFSET ??_C@_04GLKKDPHH@?$CF2?4f@
  002d0	50		 push	 eax
  002d1	ff d3		 call	 ebx
  002d3	83 c4 10	 add	 esp, 16			; 00000010H

; 305  :  			InsertGubun(strResultData);

  002d6	8d 45 c4	 lea	 eax, DWORD PTR _strResultData$[ebp]
  002d9	8b cf		 mov	 ecx, edi
  002db	6a 00		 push	 0
  002dd	50		 push	 eax
  002de	e8 00 00 00 00	 call	 ?InsertGubun@CDlgTrade@@QAEHAAV?$CStringT@DV?$StrTraitMFC_DLL@DV?$ChTraitsCRT@D@ATL@@@@@ATL@@H@Z ; CDlgTrade::InsertGubun
; File C:\Program Files (x86)\Microsoft Visual Studio\2019\Community\VC\Tools\MSVC\14.29.30133\atlmfc\include\afxcoll.inl

; 321  : 		SetAtGrow(nIndex, newElement);

  002e3	8d 45 c4	 lea	 eax, DWORD PTR _strResultData$[ebp]
  002e6	50		 push	 eax
  002e7	ff 75 b0	 push	 DWORD PTR _ResultData$[ebp+8]
  002ea	8d 4d a8	 lea	 ecx, DWORD PTR _ResultData$[ebp]
  002ed	e8 00 00 00 00	 call	 ?SetAtGrow@CStringArray@@QAEXHABV?$CStringT@DV?$StrTraitMFC_DLL@DV?$ChTraitsCRT@D@ATL@@@@@ATL@@@Z ; CStringArray::SetAtGrow
; File D:\git\src\IBK\IBK_DRFN\ProjSrc\SrcDrfn\Chart\INDEXOPTIMIZER\DlgTrade.cpp

; 310  : 				strResultData.Format("%2.f",Result->m_dPrice);

  002f2	f2 0f 10 46 10	 movsd	 xmm0, QWORD PTR [esi+16]
  002f7	8d 45 c4	 lea	 eax, DWORD PTR _strResultData$[ebp]
  002fa	83 ec 08	 sub	 esp, 8
  002fd	f2 0f 11 04 24	 movsd	 QWORD PTR [esp], xmm0
  00302	68 00 00 00 00	 push	 OFFSET ??_C@_04GLKKDPHH@?$CF2?4f@
  00307	50		 push	 eax
  00308	ff d3		 call	 ebx

; 311  : 				strResultData = m_pDlgOptimizer->m_DlgResult->GetComma(strResultData);

  0030a	8b 8f ac 00 00
	00		 mov	 ecx, DWORD PTR [edi+172]
  00310	8d 85 5c ff ff
	ff		 lea	 eax, DWORD PTR $T8[ebp]
  00316	83 c4 10	 add	 esp, 16			; 00000010H
  00319	8b 89 80 0e 00
	00		 mov	 ecx, DWORD PTR [ecx+3712]
  0031f	ff 75 c4	 push	 DWORD PTR _strResultData$[ebp]
  00322	50		 push	 eax
  00323	e8 00 00 00 00	 call	 ?GetComma@CDlgResult@@QAE?AV?$CStringT@DV?$StrTraitMFC_DLL@DV?$ChTraitsCRT@D@ATL@@@@@ATL@@PBD@Z ; CDlgResult::GetComma
  00328	50		 push	 eax
  00329	8d 4d c4	 lea	 ecx, DWORD PTR _strResultData$[ebp]
  0032c	c6 45 fc 13	 mov	 BYTE PTR __$EHRec$[ebp+8], 19 ; 00000013H
  00330	ff 15 00 00 00
	00		 call	 DWORD PTR __imp_??4?$CStringT@DV?$StrTraitMFC_DLL@DV?$ChTraitsCRT@D@ATL@@@@@ATL@@QAEAAV01@ABV01@@Z
  00336	8d 8d 5c ff ff
	ff		 lea	 ecx, DWORD PTR $T8[ebp]
  0033c	c6 45 fc 12	 mov	 BYTE PTR __$EHRec$[ebp+8], 18 ; 00000012H
  00340	ff 15 00 00 00
	00		 call	 DWORD PTR __imp_??1?$CStringT@DV?$StrTraitMFC_DLL@DV?$ChTraitsCRT@D@ATL@@@@@ATL@@QAE@XZ
; File C:\Program Files (x86)\Microsoft Visual Studio\2019\Community\VC\Tools\MSVC\14.29.30133\atlmfc\include\afxcoll.inl

; 321  : 		SetAtGrow(nIndex, newElement);

  00346	8d 45 c4	 lea	 eax, DWORD PTR _strResultData$[ebp]
  00349	50		 push	 eax
  0034a	ff 75 b0	 push	 DWORD PTR _ResultData$[ebp+8]
  0034d	8d 4d a8	 lea	 ecx, DWORD PTR _ResultData$[ebp]
  00350	e8 00 00 00 00	 call	 ?SetAtGrow@CStringArray@@QAEXHABV?$CStringT@DV?$StrTraitMFC_DLL@DV?$ChTraitsCRT@D@ATL@@@@@ATL@@@Z ; CStringArray::SetAtGrow
; File D:\git\src\IBK\IBK_DRFN\ProjSrc\SrcDrfn\Chart\INDEXOPTIMIZER\DlgTrade.cpp

; 314  : 				strResultData.Format("%ld",Result->m_lQty);

  00355	ff 76 18	 push	 DWORD PTR [esi+24]
  00358	8d 45 c4	 lea	 eax, DWORD PTR _strResultData$[ebp]
  0035b	68 00 00 00 00	 push	 OFFSET ??_C@_03JALODAI@?$CFld@
  00360	50		 push	 eax
  00361	ff d3		 call	 ebx

; 315  : 				strResultData = m_pDlgOptimizer->m_DlgResult->GetComma(strResultData);

  00363	8b 8f ac 00 00
	00		 mov	 ecx, DWORD PTR [edi+172]
  00369	8d 85 58 ff ff
	ff		 lea	 eax, DWORD PTR $T7[ebp]
  0036f	83 c4 0c	 add	 esp, 12			; 0000000cH
  00372	8b 89 80 0e 00
	00		 mov	 ecx, DWORD PTR [ecx+3712]
  00378	ff 75 c4	 push	 DWORD PTR _strResultData$[ebp]
  0037b	50		 push	 eax
  0037c	e8 00 00 00 00	 call	 ?GetComma@CDlgResult@@QAE?AV?$CStringT@DV?$StrTraitMFC_DLL@DV?$ChTraitsCRT@D@ATL@@@@@ATL@@PBD@Z ; CDlgResult::GetComma
  00381	50		 push	 eax
  00382	8d 4d c4	 lea	 ecx, DWORD PTR _strResultData$[ebp]
  00385	c6 45 fc 14	 mov	 BYTE PTR __$EHRec$[ebp+8], 20 ; 00000014H
  00389	ff 15 00 00 00
	00		 call	 DWORD PTR __imp_??4?$CStringT@DV?$StrTraitMFC_DLL@DV?$ChTraitsCRT@D@ATL@@@@@ATL@@QAEAAV01@ABV01@@Z
  0038f	8d 8d 58 ff ff
	ff		 lea	 ecx, DWORD PTR $T7[ebp]
  00395	c6 45 fc 12	 mov	 BYTE PTR __$EHRec$[ebp+8], 18 ; 00000012H
  00399	ff 15 00 00 00
	00		 call	 DWORD PTR __imp_??1?$CStringT@DV?$StrTraitMFC_DLL@DV?$ChTraitsCRT@D@ATL@@@@@ATL@@QAE@XZ
; File C:\Program Files (x86)\Microsoft Visual Studio\2019\Community\VC\Tools\MSVC\14.29.30133\atlmfc\include\afxcoll.inl

; 321  : 		SetAtGrow(nIndex, newElement);

  0039f	8d 45 c4	 lea	 eax, DWORD PTR _strResultData$[ebp]
  003a2	50		 push	 eax
  003a3	ff 75 b0	 push	 DWORD PTR _ResultData$[ebp+8]
  003a6	8d 4d a8	 lea	 ecx, DWORD PTR _ResultData$[ebp]
  003a9	e8 00 00 00 00	 call	 ?SetAtGrow@CStringArray@@QAEXHABV?$CStringT@DV?$StrTraitMFC_DLL@DV?$ChTraitsCRT@D@ATL@@@@@ATL@@@Z ; CStringArray::SetAtGrow
; File D:\git\src\IBK\IBK_DRFN\ProjSrc\SrcDrfn\Chart\INDEXOPTIMIZER\DlgTrade.cpp

; 318  : 				strResultData.Format("%2.f",Result->m_dAmount);

  003ae	f2 0f 10 46 20	 movsd	 xmm0, QWORD PTR [esi+32]
  003b3	8d 45 c4	 lea	 eax, DWORD PTR _strResultData$[ebp]
  003b6	83 ec 08	 sub	 esp, 8
  003b9	f2 0f 11 04 24	 movsd	 QWORD PTR [esp], xmm0
  003be	68 00 00 00 00	 push	 OFFSET ??_C@_04GLKKDPHH@?$CF2?4f@
  003c3	50		 push	 eax
  003c4	ff d3		 call	 ebx

; 319  : 				strResultData = m_pDlgOptimizer->m_DlgResult->GetComma(strResultData);

  003c6	8b 8f ac 00 00
	00		 mov	 ecx, DWORD PTR [edi+172]
  003cc	8d 85 54 ff ff
	ff		 lea	 eax, DWORD PTR $T6[ebp]
  003d2	83 c4 10	 add	 esp, 16			; 00000010H
  003d5	8b 89 80 0e 00
	00		 mov	 ecx, DWORD PTR [ecx+3712]
  003db	ff 75 c4	 push	 DWORD PTR _strResultData$[ebp]
  003de	50		 push	 eax
  003df	e8 00 00 00 00	 call	 ?GetComma@CDlgResult@@QAE?AV?$CStringT@DV?$StrTraitMFC_DLL@DV?$ChTraitsCRT@D@ATL@@@@@ATL@@PBD@Z ; CDlgResult::GetComma
  003e4	50		 push	 eax
  003e5	8d 4d c4	 lea	 ecx, DWORD PTR _strResultData$[ebp]
  003e8	c6 45 fc 15	 mov	 BYTE PTR __$EHRec$[ebp+8], 21 ; 00000015H
  003ec	ff 15 00 00 00
	00		 call	 DWORD PTR __imp_??4?$CStringT@DV?$StrTraitMFC_DLL@DV?$ChTraitsCRT@D@ATL@@@@@ATL@@QAEAAV01@ABV01@@Z
  003f2	8d 8d 54 ff ff
	ff		 lea	 ecx, DWORD PTR $T6[ebp]
  003f8	c6 45 fc 12	 mov	 BYTE PTR __$EHRec$[ebp+8], 18 ; 00000012H
  003fc	ff 15 00 00 00
	00		 call	 DWORD PTR __imp_??1?$CStringT@DV?$StrTraitMFC_DLL@DV?$ChTraitsCRT@D@ATL@@@@@ATL@@QAE@XZ
; File C:\Program Files (x86)\Microsoft Visual Studio\2019\Community\VC\Tools\MSVC\14.29.30133\atlmfc\include\afxcoll.inl

; 321  : 		SetAtGrow(nIndex, newElement);

  00402	8d 45 c4	 lea	 eax, DWORD PTR _strResultData$[ebp]
  00405	50		 push	 eax
  00406	ff 75 b0	 push	 DWORD PTR _ResultData$[ebp+8]
  00409	8d 4d a8	 lea	 ecx, DWORD PTR _ResultData$[ebp]
  0040c	e8 00 00 00 00	 call	 ?SetAtGrow@CStringArray@@QAEXHABV?$CStringT@DV?$StrTraitMFC_DLL@DV?$ChTraitsCRT@D@ATL@@@@@ATL@@@Z ; CStringArray::SetAtGrow
; File D:\git\src\IBK\IBK_DRFN\ProjSrc\SrcDrfn\Chart\INDEXOPTIMIZER\DlgTrade.cpp

; 322  : 				strResultData.Format("%2.f",Result->m_dProfit);

  00411	f2 0f 10 46 38	 movsd	 xmm0, QWORD PTR [esi+56]
  00416	8d 45 c4	 lea	 eax, DWORD PTR _strResultData$[ebp]
  00419	83 ec 08	 sub	 esp, 8
  0041c	f2 0f 11 04 24	 movsd	 QWORD PTR [esp], xmm0
  00421	68 00 00 00 00	 push	 OFFSET ??_C@_04GLKKDPHH@?$CF2?4f@
  00426	50		 push	 eax
  00427	ff d3		 call	 ebx

; 323  : 				strResultData = m_pDlgOptimizer->m_DlgResult->GetComma(strResultData);

  00429	8b 8f ac 00 00
	00		 mov	 ecx, DWORD PTR [edi+172]
  0042f	8d 85 50 ff ff
	ff		 lea	 eax, DWORD PTR $T5[ebp]
  00435	83 c4 10	 add	 esp, 16			; 00000010H
  00438	8b 89 80 0e 00
	00		 mov	 ecx, DWORD PTR [ecx+3712]
  0043e	ff 75 c4	 push	 DWORD PTR _strResultData$[ebp]
  00441	50		 push	 eax
  00442	e8 00 00 00 00	 call	 ?GetComma@CDlgResult@@QAE?AV?$CStringT@DV?$StrTraitMFC_DLL@DV?$ChTraitsCRT@D@ATL@@@@@ATL@@PBD@Z ; CDlgResult::GetComma
  00447	50		 push	 eax
  00448	8d 4d c4	 lea	 ecx, DWORD PTR _strResultData$[ebp]
  0044b	c6 45 fc 16	 mov	 BYTE PTR __$EHRec$[ebp+8], 22 ; 00000016H
  0044f	ff 15 00 00 00
	00		 call	 DWORD PTR __imp_??4?$CStringT@DV?$StrTraitMFC_DLL@DV?$ChTraitsCRT@D@ATL@@@@@ATL@@QAEAAV01@ABV01@@Z
  00455	8d 8d 50 ff ff
	ff		 lea	 ecx, DWORD PTR $T5[ebp]
  0045b	c6 45 fc 12	 mov	 BYTE PTR __$EHRec$[ebp+8], 18 ; 00000012H
  0045f	ff 15 00 00 00
	00		 call	 DWORD PTR __imp_??1?$CStringT@DV?$StrTraitMFC_DLL@DV?$ChTraitsCRT@D@ATL@@@@@ATL@@QAE@XZ
; File C:\Program Files (x86)\Microsoft Visual Studio\2019\Community\VC\Tools\MSVC\14.29.30133\atlmfc\include\afxcoll.inl

; 321  : 		SetAtGrow(nIndex, newElement);

  00465	8d 45 c4	 lea	 eax, DWORD PTR _strResultData$[ebp]
  00468	50		 push	 eax
  00469	ff 75 b0	 push	 DWORD PTR _ResultData$[ebp+8]
  0046c	8d 4d a8	 lea	 ecx, DWORD PTR _ResultData$[ebp]
  0046f	e8 00 00 00 00	 call	 ?SetAtGrow@CStringArray@@QAEXHABV?$CStringT@DV?$StrTraitMFC_DLL@DV?$ChTraitsCRT@D@ATL@@@@@ATL@@@Z ; CStringArray::SetAtGrow
; File D:\git\src\IBK\IBK_DRFN\ProjSrc\SrcDrfn\Chart\INDEXOPTIMIZER\DlgTrade.cpp

; 327  : 				strResultData = m_pDlgOptimizer->m_DlgResult->GetComma(strResultData);

  00474	8b 8f ac 00 00
	00		 mov	 ecx, DWORD PTR [edi+172]
  0047a	8d 85 4c ff ff
	ff		 lea	 eax, DWORD PTR $T4[ebp]
  00480	ff 75 c4	 push	 DWORD PTR _strResultData$[ebp]
  00483	50		 push	 eax
  00484	8b 89 80 0e 00
	00		 mov	 ecx, DWORD PTR [ecx+3712]
  0048a	e8 00 00 00 00	 call	 ?GetComma@CDlgResult@@QAE?AV?$CStringT@DV?$StrTraitMFC_DLL@DV?$ChTraitsCRT@D@ATL@@@@@ATL@@PBD@Z ; CDlgResult::GetComma
  0048f	50		 push	 eax
  00490	8d 4d c4	 lea	 ecx, DWORD PTR _strResultData$[ebp]
  00493	c6 45 fc 17	 mov	 BYTE PTR __$EHRec$[ebp+8], 23 ; 00000017H
  00497	ff 15 00 00 00
	00		 call	 DWORD PTR __imp_??4?$CStringT@DV?$StrTraitMFC_DLL@DV?$ChTraitsCRT@D@ATL@@@@@ATL@@QAEAAV01@ABV01@@Z
  0049d	8d 8d 4c ff ff
	ff		 lea	 ecx, DWORD PTR $T4[ebp]
  004a3	c6 45 fc 12	 mov	 BYTE PTR __$EHRec$[ebp+8], 18 ; 00000012H
  004a7	ff 15 00 00 00
	00		 call	 DWORD PTR __imp_??1?$CStringT@DV?$StrTraitMFC_DLL@DV?$ChTraitsCRT@D@ATL@@@@@ATL@@QAE@XZ
; File C:\Program Files (x86)\Microsoft Visual Studio\2019\Community\VC\Tools\MSVC\14.29.30133\atlmfc\include\afxcoll.inl

; 321  : 		SetAtGrow(nIndex, newElement);

  004ad	8d 45 c4	 lea	 eax, DWORD PTR _strResultData$[ebp]
  004b0	50		 push	 eax
  004b1	ff 75 b0	 push	 DWORD PTR _ResultData$[ebp+8]
  004b4	8d 4d a8	 lea	 ecx, DWORD PTR _ResultData$[ebp]
  004b7	e8 00 00 00 00	 call	 ?SetAtGrow@CStringArray@@QAEXHABV?$CStringT@DV?$StrTraitMFC_DLL@DV?$ChTraitsCRT@D@ATL@@@@@ATL@@@Z ; CStringArray::SetAtGrow
; File D:\git\src\IBK\IBK_DRFN\ProjSrc\SrcDrfn\Chart\INDEXOPTIMIZER\DlgTrade.cpp

; 344  : 			strResultData.Format("%.2f%%",Result->m_dProfitRate);

  004bc	f2 0f 10 46 48	 movsd	 xmm0, QWORD PTR [esi+72]
  004c1	8d 45 c4	 lea	 eax, DWORD PTR _strResultData$[ebp]
  004c4	83 ec 08	 sub	 esp, 8
  004c7	f2 0f 11 04 24	 movsd	 QWORD PTR [esp], xmm0
  004cc	68 00 00 00 00	 push	 OFFSET ??_C@_06NBGJEFCJ@?$CF?42f?$CF?$CF@
  004d1	50		 push	 eax
  004d2	ff d3		 call	 ebx
  004d4	83 c4 10	 add	 esp, 16			; 00000010H

; 345  : 			if(bNujuk)//

  004d7	83 7d a4 00	 cmp	 DWORD PTR _bNujuk$1$[ebp], 0
  004db	74 42		 je	 SHORT $LN110@GetSTMessa

; 346  : 				dGunSu.Add(Result->m_dProfitRate);

  004dd	f2 0f 10 46 48	 movsd	 xmm0, QWORD PTR [esi+72]
; File C:\Program Files (x86)\Microsoft Visual Studio\2019\Community\VC\Tools\MSVC\14.29.30133\atlmfc\include\afxtempl.h

; 333  : 	{ INT_PTR nIndex = m_nSize;

  004e2	8b bd 68 ff ff
	ff		 mov	 edi, DWORD PTR _dGunSu$[ebp+8]
; File D:\git\src\IBK\IBK_DRFN\ProjSrc\SrcDrfn\Chart\INDEXOPTIMIZER\DlgTrade.cpp

; 346  : 				dGunSu.Add(Result->m_dProfitRate);

  004e8	f2 0f 11 85 3c
	ff ff ff	 movsd	 QWORD PTR _newElement$1$[ebp], xmm0
; File C:\Program Files (x86)\Microsoft Visual Studio\2019\Community\VC\Tools\MSVC\14.29.30133\atlmfc\include\afxtempl.h

; 333  : 	{ INT_PTR nIndex = m_nSize;

  004f0	85 ff		 test	 edi, edi

; 538  : 	if(nIndex < 0)

  004f2	0f 88 37 06 00
	00		 js	 $LN374@GetSTMessa

; 539  : 		AfxThrowInvalidArgException();
; 540  : 
; 541  : 	if (nIndex >= m_nSize)
; 542  : 		SetSize(nIndex+1, -1);

  004f8	6a ff		 push	 -1
  004fa	8d 47 01	 lea	 eax, DWORD PTR [edi+1]
  004fd	50		 push	 eax
  004fe	8d 8d 60 ff ff
	ff		 lea	 ecx, DWORD PTR _dGunSu$[ebp]
  00504	e8 00 00 00 00	 call	 ?SetSize@?$CArray@NN@@QAEXHH@Z ; CArray<double,double>::SetSize

; 543  : 	m_pData[nIndex] = newElement;

  00509	8b 85 64 ff ff
	ff		 mov	 eax, DWORD PTR _dGunSu$[ebp+4]
  0050f	f2 0f 10 85 3c
	ff ff ff	 movsd	 xmm0, QWORD PTR _newElement$1$[ebp]
  00517	f2 0f 11 04 f8	 movsd	 QWORD PTR [eax+edi*8], xmm0
  0051c	8b 7d 8c	 mov	 edi, DWORD PTR _this$GSCopy$1$[ebp]
$LN110@GetSTMessa:
; File D:\git\src\IBK\IBK_DRFN\ProjSrc\SrcDrfn\Chart\INDEXOPTIMIZER\DlgTrade.cpp

; 348  : 			strResultData = m_pDlgOptimizer->m_DlgResult->GetComma(strResultData);

  0051f	8b 8f ac 00 00
	00		 mov	 ecx, DWORD PTR [edi+172]
  00525	8d 85 48 ff ff
	ff		 lea	 eax, DWORD PTR $T3[ebp]
  0052b	ff 75 c4	 push	 DWORD PTR _strResultData$[ebp]
  0052e	50		 push	 eax
  0052f	8b 89 80 0e 00
	00		 mov	 ecx, DWORD PTR [ecx+3712]
  00535	e8 00 00 00 00	 call	 ?GetComma@CDlgResult@@QAE?AV?$CStringT@DV?$StrTraitMFC_DLL@DV?$ChTraitsCRT@D@ATL@@@@@ATL@@PBD@Z ; CDlgResult::GetComma
  0053a	50		 push	 eax
  0053b	8d 4d c4	 lea	 ecx, DWORD PTR _strResultData$[ebp]
  0053e	c6 45 fc 18	 mov	 BYTE PTR __$EHRec$[ebp+8], 24 ; 00000018H
  00542	ff 15 00 00 00
	00		 call	 DWORD PTR __imp_??4?$CStringT@DV?$StrTraitMFC_DLL@DV?$ChTraitsCRT@D@ATL@@@@@ATL@@QAEAAV01@ABV01@@Z
  00548	8d 8d 48 ff ff
	ff		 lea	 ecx, DWORD PTR $T3[ebp]
  0054e	c6 45 fc 12	 mov	 BYTE PTR __$EHRec$[ebp+8], 18 ; 00000012H
  00552	ff 15 00 00 00
	00		 call	 DWORD PTR __imp_??1?$CStringT@DV?$StrTraitMFC_DLL@DV?$ChTraitsCRT@D@ATL@@@@@ATL@@QAE@XZ
; File C:\Program Files (x86)\Microsoft Visual Studio\2019\Community\VC\Tools\MSVC\14.29.30133\atlmfc\include\afxcoll.inl

; 321  : 		SetAtGrow(nIndex, newElement);

  00558	8d 45 c4	 lea	 eax, DWORD PTR _strResultData$[ebp]
  0055b	50		 push	 eax
  0055c	ff 75 b0	 push	 DWORD PTR _ResultData$[ebp+8]
  0055f	8d 4d a8	 lea	 ecx, DWORD PTR _ResultData$[ebp]
  00562	e8 00 00 00 00	 call	 ?SetAtGrow@CStringArray@@QAEXHABV?$CStringT@DV?$StrTraitMFC_DLL@DV?$ChTraitsCRT@D@ATL@@@@@ATL@@@Z ; CStringArray::SetAtGrow
; File D:\git\src\IBK\IBK_DRFN\ProjSrc\SrcDrfn\Chart\INDEXOPTIMIZER\DlgTrade.cpp

; 354  : 			if(Result->m_dProfitRate > 0)

  00567	f2 0f 10 46 48	 movsd	 xmm0, QWORD PTR [esi+72]
  0056c	0f 57 c9	 xorps	 xmm1, xmm1
  0056f	66 0f 2f c1	 comisd	 xmm0, xmm1
  00573	76 0a		 jbe	 SHORT $LN20@GetSTMessa

; 355  : 			{
; 356  : 				strResultData.Format("%.f",Result->m_dProfitRate +0.5);

  00575	f2 0f 58 05 00
	00 00 00	 addsd	 xmm0, QWORD PTR __real@3fe0000000000000

; 357  : 			}

  0057d	eb 0e		 jmp	 SHORT $LN424@GetSTMessa
$LN20@GetSTMessa:

; 358  : 				
; 359  : 			else if(Result->m_dProfitRate < 0)

  0057f	66 0f 2f c8	 comisd	 xmm1, xmm0
  00583	76 1e		 jbe	 SHORT $LN22@GetSTMessa

; 360  : 			{
; 361  : 				strResultData.Format("%.f",Result->m_dProfitRate -0.5);

  00585	f2 0f 5c 05 00
	00 00 00	 subsd	 xmm0, QWORD PTR __real@3fe0000000000000
$LN424@GetSTMessa:

; 362  : 			}
; 363  : 			
; 364  : 			if(bNujuk) {

  0058d	83 ec 08	 sub	 esp, 8
  00590	8d 45 c4	 lea	 eax, DWORD PTR _strResultData$[ebp]
  00593	f2 0f 11 04 24	 movsd	 QWORD PTR [esp], xmm0
  00598	68 00 00 00 00	 push	 OFFSET ??_C@_03EICDNICE@?$CF?4f@
  0059d	50		 push	 eax
  0059e	ff d3		 call	 ebx
  005a0	83 c4 10	 add	 esp, 16			; 00000010H
$LN22@GetSTMessa:
  005a3	83 7d a4 00	 cmp	 DWORD PTR _bNujuk$1$[ebp], 0
  005a7	74 79		 je	 SHORT $LN124@GetSTMessa

; 365  : 				dSonIk.Add(atof(strResultData));

  005a9	ff 75 c4	 push	 DWORD PTR _strResultData$[ebp]
  005ac	ff 15 00 00 00
	00		 call	 DWORD PTR __imp__atof
; File C:\Program Files (x86)\Microsoft Visual Studio\2019\Community\VC\Tools\MSVC\14.29.30133\atlmfc\include\afxtempl.h

; 333  : 	{ INT_PTR nIndex = m_nSize;

  005b2	8b bd 7c ff ff
	ff		 mov	 edi, DWORD PTR _dSonIk$[ebp+8]
; File D:\git\src\IBK\IBK_DRFN\ProjSrc\SrcDrfn\Chart\INDEXOPTIMIZER\DlgTrade.cpp

; 365  : 				dSonIk.Add(atof(strResultData));

  005b8	83 c4 04	 add	 esp, 4
  005bb	dd 9d 3c ff ff
	ff		 fstp	 QWORD PTR _newElement$[ebp]
; File C:\Program Files (x86)\Microsoft Visual Studio\2019\Community\VC\Tools\MSVC\14.29.30133\atlmfc\include\afxtempl.h

; 333  : 	{ INT_PTR nIndex = m_nSize;

  005c1	85 ff		 test	 edi, edi

; 538  : 	if(nIndex < 0)

  005c3	0f 88 66 05 00
	00		 js	 $LN374@GetSTMessa

; 539  : 		AfxThrowInvalidArgException();
; 540  : 
; 541  : 	if (nIndex >= m_nSize)
; 542  : 		SetSize(nIndex+1, -1);

  005c9	6a ff		 push	 -1
  005cb	8d 47 01	 lea	 eax, DWORD PTR [edi+1]
  005ce	50		 push	 eax
  005cf	8d 8d 74 ff ff
	ff		 lea	 ecx, DWORD PTR _dSonIk$[ebp]
  005d5	e8 00 00 00 00	 call	 ?SetSize@?$CArray@NN@@QAEXHH@Z ; CArray<double,double>::SetSize

; 543  : 	m_pData[nIndex] = newElement;

  005da	8b 85 78 ff ff
	ff		 mov	 eax, DWORD PTR _dSonIk$[ebp+4]
  005e0	83 ec 08	 sub	 esp, 8
  005e3	f2 0f 10 85 3c
	ff ff ff	 movsd	 xmm0, QWORD PTR _newElement$[ebp]
  005eb	f2 0f 11 04 f8	 movsd	 QWORD PTR [eax+edi*8], xmm0
  005f0	8d 45 c4	 lea	 eax, DWORD PTR _strResultData$[ebp]
  005f3	f2 0f 10 46 50	 movsd	 xmm0, QWORD PTR [esi+80]
  005f8	f2 0f 11 04 24	 movsd	 QWORD PTR [esp], xmm0
  005fd	68 00 00 00 00	 push	 OFFSET ??_C@_06NBGJEFCJ@?$CF?42f?$CF?$CF@
  00602	50		 push	 eax
  00603	ff d3		 call	 ebx
  00605	83 c4 10	 add	 esp, 16			; 00000010H
; File C:\Program Files (x86)\Microsoft Visual Studio\2019\Community\VC\Tools\MSVC\14.29.30133\atlmfc\include\afxcoll.inl

; 321  : 		SetAtGrow(nIndex, newElement);

  00608	8d 45 c4	 lea	 eax, DWORD PTR _strResultData$[ebp]
  0060b	8d 8d 28 ff ff
	ff		 lea	 ecx, DWORD PTR _stNujukArray$[ebp]
  00611	50		 push	 eax
  00612	ff b5 30 ff ff
	ff		 push	 DWORD PTR _stNujukArray$[ebp+8]
  00618	e8 00 00 00 00	 call	 ?SetAtGrow@CStringArray@@QAEXHABV?$CStringT@DV?$StrTraitMFC_DLL@DV?$ChTraitsCRT@D@ATL@@@@@ATL@@@Z ; CStringArray::SetAtGrow
  0061d	8b 7d 8c	 mov	 edi, DWORD PTR _this$GSCopy$1$[ebp]
  00620	eb 1b		 jmp	 SHORT $LN24@GetSTMessa
$LN124@GetSTMessa:
; File D:\git\src\IBK\IBK_DRFN\ProjSrc\SrcDrfn\Chart\INDEXOPTIMIZER\DlgTrade.cpp

; 375  : 			strResultData.Format("%.2f%%",Result->m_dProfitRateAccmulated);//

  00622	f2 0f 10 46 50	 movsd	 xmm0, QWORD PTR [esi+80]
  00627	8d 45 c4	 lea	 eax, DWORD PTR _strResultData$[ebp]
  0062a	83 ec 08	 sub	 esp, 8
  0062d	f2 0f 11 04 24	 movsd	 QWORD PTR [esp], xmm0
  00632	68 00 00 00 00	 push	 OFFSET ??_C@_06NBGJEFCJ@?$CF?42f?$CF?$CF@
  00637	50		 push	 eax
  00638	ff d3		 call	 ebx
  0063a	83 c4 10	 add	 esp, 16			; 00000010H
$LN24@GetSTMessa:

; 376  : 			if(bNujuk)
; 377  : 				stNujukArray.Add(strResultData);
; 378  : 			strResultData = m_pDlgOptimizer->m_DlgResult->GetComma(strResultData);

  0063d	8b 8f ac 00 00
	00		 mov	 ecx, DWORD PTR [edi+172]
  00643	8d 85 44 ff ff
	ff		 lea	 eax, DWORD PTR $T2[ebp]
  00649	ff 75 c4	 push	 DWORD PTR _strResultData$[ebp]
  0064c	50		 push	 eax
  0064d	8b 89 80 0e 00
	00		 mov	 ecx, DWORD PTR [ecx+3712]
  00653	e8 00 00 00 00	 call	 ?GetComma@CDlgResult@@QAE?AV?$CStringT@DV?$StrTraitMFC_DLL@DV?$ChTraitsCRT@D@ATL@@@@@ATL@@PBD@Z ; CDlgResult::GetComma
  00658	50		 push	 eax
  00659	8d 4d c4	 lea	 ecx, DWORD PTR _strResultData$[ebp]
  0065c	c6 45 fc 19	 mov	 BYTE PTR __$EHRec$[ebp+8], 25 ; 00000019H
  00660	ff 15 00 00 00
	00		 call	 DWORD PTR __imp_??4?$CStringT@DV?$StrTraitMFC_DLL@DV?$ChTraitsCRT@D@ATL@@@@@ATL@@QAEAAV01@ABV01@@Z
  00666	8d 8d 44 ff ff
	ff		 lea	 ecx, DWORD PTR $T2[ebp]
  0066c	c6 45 fc 12	 mov	 BYTE PTR __$EHRec$[ebp+8], 18 ; 00000012H
  00670	ff 15 00 00 00
	00		 call	 DWORD PTR __imp_??1?$CStringT@DV?$StrTraitMFC_DLL@DV?$ChTraitsCRT@D@ATL@@@@@ATL@@QAE@XZ
; File C:\Program Files (x86)\Microsoft Visual Studio\2019\Community\VC\Tools\MSVC\14.29.30133\atlmfc\include\afxcoll.inl

; 321  : 		SetAtGrow(nIndex, newElement);

  00676	8d 45 c4	 lea	 eax, DWORD PTR _strResultData$[ebp]
  00679	50		 push	 eax
  0067a	ff 75 b0	 push	 DWORD PTR _ResultData$[ebp+8]
  0067d	8d 4d a8	 lea	 ecx, DWORD PTR _ResultData$[ebp]
  00680	e8 00 00 00 00	 call	 ?SetAtGrow@CStringArray@@QAEXHABV?$CStringT@DV?$StrTraitMFC_DLL@DV?$ChTraitsCRT@D@ATL@@@@@ATL@@@Z ; CStringArray::SetAtGrow
; File D:\git\src\IBK\IBK_DRFN\ProjSrc\SrcDrfn\Chart\INDEXOPTIMIZER\DlgTrade.cpp

; 381  : 			for(int j =0;j < 10;j++)

  00685	33 ff		 xor	 edi, edi
$LL9@GetSTMessa:

; 382  : 			{
; 383  : 				if(j==1)

  00687	83 ff 01	 cmp	 edi, 1
  0068a	0f 85 19 01 00
	00		 jne	 $LN31@GetSTMessa
; File C:\Program Files (x86)\Microsoft Visual Studio\2019\Community\VC\Tools\MSVC\14.29.30133\atlmfc\include\afxcoll.inl

; 289  : 		if( nIndex < 0 || nIndex >= m_nSize )

  00690	39 7d b0	 cmp	 DWORD PTR _ResultData$[ebp+8], edi
  00693	0f 8e 96 04 00
	00		 jle	 $LN374@GetSTMessa

; 291  : 		return m_pData[nIndex]; }

  00699	8b 4d ac	 mov	 ecx, DWORD PTR _ResultData$[ebp+4]
; File C:\Program Files (x86)\Microsoft Visual Studio\2019\Community\VC\Tools\MSVC\14.29.30133\atlmfc\include\cstringt.h

; 2486 : 		return(str1.Compare(psz2) == 0);

  0069c	68 00 00 00 00	 push	 OFFSET ??_C@_08BPEOHGCP@?$LI?E?$LM?v?A?x?$MA?T@
; File C:\Program Files (x86)\Microsoft Visual Studio\2019\Community\VC\Tools\MSVC\14.29.30133\atlmfc\include\afxcoll.inl

; 291  : 		return m_pData[nIndex]; }

  006a1	8d 49 04	 lea	 ecx, DWORD PTR [ecx+4]
; File C:\Program Files (x86)\Microsoft Visual Studio\2019\Community\VC\Tools\MSVC\14.29.30133\atlmfc\include\cstringt.h

; 2486 : 		return(str1.Compare(psz2) == 0);

  006a4	ff 15 00 00 00
	00		 call	 DWORD PTR __imp_?Compare@?$CStringT@DV?$StrTraitMFC_DLL@DV?$ChTraitsCRT@D@ATL@@@@@ATL@@QBEHPBD@Z
  006aa	85 c0		 test	 eax, eax
; File D:\git\src\IBK\IBK_DRFN\ProjSrc\SrcDrfn\Chart\INDEXOPTIMIZER\DlgTrade.cpp

; 385  : 					if(ResultData.GetAt(j) == ""||ResultData.GetAt(j) == "" )

  006ac	74 1e		 je	 SHORT $LN27@GetSTMessa
; File C:\Program Files (x86)\Microsoft Visual Studio\2019\Community\VC\Tools\MSVC\14.29.30133\atlmfc\include\afxcoll.inl

; 289  : 		if( nIndex < 0 || nIndex >= m_nSize )

  006ae	39 7d b0	 cmp	 DWORD PTR _ResultData$[ebp+8], edi
  006b1	0f 8e 78 04 00
	00		 jle	 $LN374@GetSTMessa

; 291  : 		return m_pData[nIndex]; }

  006b7	8b 4d ac	 mov	 ecx, DWORD PTR _ResultData$[ebp+4]
; File C:\Program Files (x86)\Microsoft Visual Studio\2019\Community\VC\Tools\MSVC\14.29.30133\atlmfc\include\cstringt.h

; 2486 : 		return(str1.Compare(psz2) == 0);

  006ba	68 00 00 00 00	 push	 OFFSET ??_C@_08DBKELDO@?$LI?E?$LF?$LF?A?x?$MA?T@
; File C:\Program Files (x86)\Microsoft Visual Studio\2019\Community\VC\Tools\MSVC\14.29.30133\atlmfc\include\afxcoll.inl

; 291  : 		return m_pData[nIndex]; }

  006bf	8d 49 04	 lea	 ecx, DWORD PTR [ecx+4]
; File C:\Program Files (x86)\Microsoft Visual Studio\2019\Community\VC\Tools\MSVC\14.29.30133\atlmfc\include\cstringt.h

; 2486 : 		return(str1.Compare(psz2) == 0);

  006c2	ff 15 00 00 00
	00		 call	 DWORD PTR __imp_?Compare@?$CStringT@DV?$StrTraitMFC_DLL@DV?$ChTraitsCRT@D@ATL@@@@@ATL@@QBEHPBD@Z
  006c8	85 c0		 test	 eax, eax
; File D:\git\src\IBK\IBK_DRFN\ProjSrc\SrcDrfn\Chart\INDEXOPTIMIZER\DlgTrade.cpp

; 385  : 					if(ResultData.GetAt(j) == ""||ResultData.GetAt(j) == "" )

  006ca	75 2d		 jne	 SHORT $LN406@GetSTMessa
$LN27@GetSTMessa:

; 387  : 						for(int i = 7; i<10;i++)

  006cc	be 07 00 00 00	 mov	 esi, 7
$LL12@GetSTMessa:
; File C:\Program Files (x86)\Microsoft Visual Studio\2019\Community\VC\Tools\MSVC\14.29.30133\atlmfc\include\afxcoll.inl

; 294  : 		if( nIndex < 0 || nIndex >= m_nSize )

  006d1	85 f6		 test	 esi, esi
  006d3	0f 88 56 04 00
	00		 js	 $LN374@GetSTMessa
  006d9	3b 75 b0	 cmp	 esi, DWORD PTR _ResultData$[ebp+8]
  006dc	0f 8d 4d 04 00
	00		 jge	 $LN374@GetSTMessa

; 295  : 			AfxThrowInvalidArgException();
; 296  : 		m_pData[nIndex] = newElement; }

  006e2	8b 45 ac	 mov	 eax, DWORD PTR _ResultData$[ebp+4]
  006e5	68 00 00 00 00	 push	 OFFSET ??_C@_01CLKCMJKC@?5@
  006ea	8d 0c b0	 lea	 ecx, DWORD PTR [eax+esi*4]
  006ed	ff 15 00 00 00
	00		 call	 DWORD PTR __imp_??4?$CStringT@DV?$StrTraitMFC_DLL@DV?$ChTraitsCRT@D@ATL@@@@@ATL@@QAEAAV01@PBD@Z
; File D:\git\src\IBK\IBK_DRFN\ProjSrc\SrcDrfn\Chart\INDEXOPTIMIZER\DlgTrade.cpp

; 387  : 						for(int i = 7; i<10;i++)

  006f3	46		 inc	 esi
  006f4	83 fe 0a	 cmp	 esi, 10			; 0000000aH
  006f7	7c d8		 jl	 SHORT $LL12@GetSTMessa
$LN406@GetSTMessa:
; File C:\Program Files (x86)\Microsoft Visual Studio\2019\Community\VC\Tools\MSVC\14.29.30133\atlmfc\include\afxcoll.inl

; 289  : 		if( nIndex < 0 || nIndex >= m_nSize )

  006f9	83 7d b0 01	 cmp	 DWORD PTR _ResultData$[ebp+8], 1
  006fd	0f 8e 2c 04 00
	00		 jle	 $LN374@GetSTMessa

; 291  : 		return m_pData[nIndex]; }

  00703	8b 4d ac	 mov	 ecx, DWORD PTR _ResultData$[ebp+4]
; File C:\Program Files (x86)\Microsoft Visual Studio\2019\Community\VC\Tools\MSVC\14.29.30133\atlmfc\include\cstringt.h

; 2486 : 		return(str1.Compare(psz2) == 0);

  00706	68 00 00 00 00	 push	 OFFSET ??_C@_08DBKELDO@?$LI?E?$LF?$LF?A?x?$MA?T@
; File C:\Program Files (x86)\Microsoft Visual Studio\2019\Community\VC\Tools\MSVC\14.29.30133\atlmfc\include\afxcoll.inl

; 291  : 		return m_pData[nIndex]; }

  0070b	8d 49 04	 lea	 ecx, DWORD PTR [ecx+4]
; File C:\Program Files (x86)\Microsoft Visual Studio\2019\Community\VC\Tools\MSVC\14.29.30133\atlmfc\include\cstringt.h

; 2486 : 		return(str1.Compare(psz2) == 0);

  0070e	ff 15 00 00 00
	00		 call	 DWORD PTR __imp_?Compare@?$CStringT@DV?$StrTraitMFC_DLL@DV?$ChTraitsCRT@D@ATL@@@@@ATL@@QBEHPBD@Z
  00714	85 c0		 test	 eax, eax
; File D:\git\src\IBK\IBK_DRFN\ProjSrc\SrcDrfn\Chart\INDEXOPTIMIZER\DlgTrade.cpp

; 391  : 					if(ResultData.GetAt(j) == ""||ResultData.GetAt(j) == "" )

  00716	74 79		 je	 SHORT $LN30@GetSTMessa
; File C:\Program Files (x86)\Microsoft Visual Studio\2019\Community\VC\Tools\MSVC\14.29.30133\atlmfc\include\afxcoll.inl

; 289  : 		if( nIndex < 0 || nIndex >= m_nSize )

  00718	83 7d b0 01	 cmp	 DWORD PTR _ResultData$[ebp+8], 1
  0071c	0f 8e 0d 04 00
	00		 jle	 $LN374@GetSTMessa

; 291  : 		return m_pData[nIndex]; }

  00722	8b 4d ac	 mov	 ecx, DWORD PTR _ResultData$[ebp+4]
; File C:\Program Files (x86)\Microsoft Visual Studio\2019\Community\VC\Tools\MSVC\14.29.30133\atlmfc\include\cstringt.h

; 2486 : 		return(str1.Compare(psz2) == 0);

  00725	68 00 00 00 00	 push	 OFFSET ??_C@_08BPEOHGCP@?$LI?E?$LM?v?A?x?$MA?T@
; File C:\Program Files (x86)\Microsoft Visual Studio\2019\Community\VC\Tools\MSVC\14.29.30133\atlmfc\include\afxcoll.inl

; 291  : 		return m_pData[nIndex]; }

  0072a	8d 49 04	 lea	 ecx, DWORD PTR [ecx+4]
; File C:\Program Files (x86)\Microsoft Visual Studio\2019\Community\VC\Tools\MSVC\14.29.30133\atlmfc\include\cstringt.h

; 2486 : 		return(str1.Compare(psz2) == 0);

  0072d	ff 15 00 00 00
	00		 call	 DWORD PTR __imp_?Compare@?$CStringT@DV?$StrTraitMFC_DLL@DV?$ChTraitsCRT@D@ATL@@@@@ATL@@QBEHPBD@Z
  00733	85 c0		 test	 eax, eax
; File D:\git\src\IBK\IBK_DRFN\ProjSrc\SrcDrfn\Chart\INDEXOPTIMIZER\DlgTrade.cpp

; 391  : 					if(ResultData.GetAt(j) == ""||ResultData.GetAt(j) == "" )

  00735	74 5a		 je	 SHORT $LN30@GetSTMessa
; File C:\Program Files (x86)\Microsoft Visual Studio\2019\Community\VC\Tools\MSVC\14.29.30133\atlmfc\include\afxcoll.inl

; 289  : 		if( nIndex < 0 || nIndex >= m_nSize )

  00737	83 7d b0 01	 cmp	 DWORD PTR _ResultData$[ebp+8], 1
  0073b	0f 8e ee 03 00
	00		 jle	 $LN374@GetSTMessa

; 291  : 		return m_pData[nIndex]; }

  00741	8b 4d ac	 mov	 ecx, DWORD PTR _ResultData$[ebp+4]
; File C:\Program Files (x86)\Microsoft Visual Studio\2019\Community\VC\Tools\MSVC\14.29.30133\atlmfc\include\cstringt.h

; 2486 : 		return(str1.Compare(psz2) == 0);

  00744	68 00 00 00 00	 push	 OFFSET ??_C@_08OJBKHDEB@?$LI?E?$LF?$LF?C?$LL?$LL?j@
; File C:\Program Files (x86)\Microsoft Visual Studio\2019\Community\VC\Tools\MSVC\14.29.30133\atlmfc\include\afxcoll.inl

; 291  : 		return m_pData[nIndex]; }

  00749	8d 49 04	 lea	 ecx, DWORD PTR [ecx+4]
; File C:\Program Files (x86)\Microsoft Visual Studio\2019\Community\VC\Tools\MSVC\14.29.30133\atlmfc\include\cstringt.h

; 2486 : 		return(str1.Compare(psz2) == 0);

  0074c	ff 15 00 00 00
	00		 call	 DWORD PTR __imp_?Compare@?$CStringT@DV?$StrTraitMFC_DLL@DV?$ChTraitsCRT@D@ATL@@@@@ATL@@QBEHPBD@Z
  00752	85 c0		 test	 eax, eax
; File D:\git\src\IBK\IBK_DRFN\ProjSrc\SrcDrfn\Chart\INDEXOPTIMIZER\DlgTrade.cpp

; 393  : 					else if(ResultData.GetAt(j) == ""||ResultData.GetAt(j) == "" )

  00754	74 23		 je	 SHORT $LN32@GetSTMessa
; File C:\Program Files (x86)\Microsoft Visual Studio\2019\Community\VC\Tools\MSVC\14.29.30133\atlmfc\include\afxcoll.inl

; 289  : 		if( nIndex < 0 || nIndex >= m_nSize )

  00756	83 7d b0 01	 cmp	 DWORD PTR _ResultData$[ebp+8], 1
  0075a	0f 8e cf 03 00
	00		 jle	 $LN374@GetSTMessa

; 291  : 		return m_pData[nIndex]; }

  00760	8b 4d ac	 mov	 ecx, DWORD PTR _ResultData$[ebp+4]
; File C:\Program Files (x86)\Microsoft Visual Studio\2019\Community\VC\Tools\MSVC\14.29.30133\atlmfc\include\cstringt.h

; 2486 : 		return(str1.Compare(psz2) == 0);

  00763	68 00 00 00 00	 push	 OFFSET ??_C@_08PFEOEOFA@?$LI?E?$LM?v?C?$LL?$LL?j@
; File C:\Program Files (x86)\Microsoft Visual Studio\2019\Community\VC\Tools\MSVC\14.29.30133\atlmfc\include\afxcoll.inl

; 291  : 		return m_pData[nIndex]; }

  00768	8d 49 04	 lea	 ecx, DWORD PTR [ecx+4]
; File C:\Program Files (x86)\Microsoft Visual Studio\2019\Community\VC\Tools\MSVC\14.29.30133\atlmfc\include\cstringt.h

; 2486 : 		return(str1.Compare(psz2) == 0);

  0076b	ff 15 00 00 00
	00		 call	 DWORD PTR __imp_?Compare@?$CStringT@DV?$StrTraitMFC_DLL@DV?$ChTraitsCRT@D@ATL@@@@@ATL@@QBEHPBD@Z
  00771	85 c0		 test	 eax, eax
; File D:\git\src\IBK\IBK_DRFN\ProjSrc\SrcDrfn\Chart\INDEXOPTIMIZER\DlgTrade.cpp

; 393  : 					else if(ResultData.GetAt(j) == ""||ResultData.GetAt(j) == "" )

  00773	0f 85 c4 00 00
	00		 jne	 $LN410@GetSTMessa
$LN32@GetSTMessa:

; 394  : 						str2.Replace("\"FC1\"","\"red\"");

  00779	68 00 00 00 00	 push	 OFFSET ??_C@_05GDNPGLCD@?$CCred?$CC@
  0077e	68 00 00 00 00	 push	 OFFSET ??_C@_05NIFAGJNM@?$CCFC1?$CC@
  00783	8d 4d bc	 lea	 ecx, DWORD PTR _str2$[ebp]
  00786	ff 15 00 00 00
	00		 call	 DWORD PTR __imp_?Replace@?$CStringT@DV?$StrTraitMFC_DLL@DV?$ChTraitsCRT@D@ATL@@@@@ATL@@QAEHPBD0@Z
  0078c	e9 ac 00 00 00	 jmp	 $LN410@GetSTMessa
$LN30@GetSTMessa:

; 392  : 						str2.Replace("\"FC1\"","\"blue\"");

  00791	68 00 00 00 00	 push	 OFFSET ??_C@_06JGAACDGM@?$CCblue?$CC@
  00796	68 00 00 00 00	 push	 OFFSET ??_C@_05NIFAGJNM@?$CCFC1?$CC@
  0079b	8d 4d bc	 lea	 ecx, DWORD PTR _str2$[ebp]
  0079e	ff 15 00 00 00
	00		 call	 DWORD PTR __imp_?Replace@?$CStringT@DV?$StrTraitMFC_DLL@DV?$ChTraitsCRT@D@ATL@@@@@ATL@@QAEHPBD0@Z

; 395  : 			
; 396  : 				}
; 397  : 				if(j > 5)

  007a4	e9 94 00 00 00	 jmp	 $LN410@GetSTMessa
$LN31@GetSTMessa:
  007a9	83 ff 05	 cmp	 edi, 5
  007ac	0f 8e 83 00 00
	00		 jle	 $LN33@GetSTMessa

; 398  : 				{
; 399  : 					CString Data;

  007b2	8d 4d 9c	 lea	 ecx, DWORD PTR _Data$12[ebp]
  007b5	ff 15 00 00 00
	00		 call	 DWORD PTR __imp_??0?$CStringT@DV?$StrTraitMFC_DLL@DV?$ChTraitsCRT@D@ATL@@@@@ATL@@QAE@XZ

; 400  : 					CString Index;

  007bb	8d 4d 90	 lea	 ecx, DWORD PTR _Index$10[ebp]
  007be	ff 15 00 00 00
	00		 call	 DWORD PTR __imp_??0?$CStringT@DV?$StrTraitMFC_DLL@DV?$ChTraitsCRT@D@ATL@@@@@ATL@@QAE@XZ

; 401  : 					Index.Format("\"FC%d\"",j);

  007c4	57		 push	 edi
  007c5	8d 45 90	 lea	 eax, DWORD PTR _Index$10[ebp]
  007c8	c6 45 fc 1b	 mov	 BYTE PTR __$EHRec$[ebp+8], 27 ; 0000001bH
  007cc	68 00 00 00 00	 push	 OFFSET ??_C@_06IDGDLJAM@?$CCFC?$CFd?$CC@
  007d1	50		 push	 eax
  007d2	ff d3		 call	 ebx
  007d4	83 c4 0c	 add	 esp, 12			; 0000000cH
; File C:\Program Files (x86)\Microsoft Visual Studio\2019\Community\VC\Tools\MSVC\14.29.30133\atlmfc\include\afxcoll.inl

; 289  : 		if( nIndex < 0 || nIndex >= m_nSize )

  007d7	3b 7d b0	 cmp	 edi, DWORD PTR _ResultData$[ebp+8]
  007da	0f 8d 4f 03 00
	00		 jge	 $LN374@GetSTMessa

; 291  : 		return m_pData[nIndex]; }

  007e0	8b 45 ac	 mov	 eax, DWORD PTR _ResultData$[ebp+4]
; File D:\git\src\IBK\IBK_DRFN\ProjSrc\SrcDrfn\Chart\INDEXOPTIMIZER\DlgTrade.cpp

; 402  : 					Data =ResultData.GetAt(j);

  007e3	8d 4d 9c	 lea	 ecx, DWORD PTR _Data$12[ebp]
; File C:\Program Files (x86)\Microsoft Visual Studio\2019\Community\VC\Tools\MSVC\14.29.30133\atlmfc\include\afxcoll.inl

; 291  : 		return m_pData[nIndex]; }

  007e6	8d 04 b8	 lea	 eax, DWORD PTR [eax+edi*4]
; File D:\git\src\IBK\IBK_DRFN\ProjSrc\SrcDrfn\Chart\INDEXOPTIMIZER\DlgTrade.cpp

; 402  : 					Data =ResultData.GetAt(j);

  007e9	50		 push	 eax
  007ea	ff 15 00 00 00
	00		 call	 DWORD PTR __imp_??4?$CStringT@DV?$StrTraitMFC_DLL@DV?$ChTraitsCRT@D@ATL@@@@@ATL@@QAEAAV01@ABV01@@Z

; 403  : 					if(Data.Find("-",0)==-1)

  007f0	6a 00		 push	 0
  007f2	68 00 00 00 00	 push	 OFFSET ??_C@_01JOAMLHOP@?9@
  007f7	8d 4d 9c	 lea	 ecx, DWORD PTR _Data$12[ebp]
  007fa	ff 15 00 00 00
	00		 call	 DWORD PTR __imp_?Find@?$CStringT@DV?$StrTraitMFC_DLL@DV?$ChTraitsCRT@D@ATL@@@@@ATL@@QBEHPBDH@Z
  00800	8d 4d bc	 lea	 ecx, DWORD PTR _str2$[ebp]
  00803	83 f8 ff	 cmp	 eax, -1
  00806	75 07		 jne	 SHORT $LN34@GetSTMessa

; 404  : 						str2.Replace(Index,"\"black\"");//  

  00808	68 00 00 00 00	 push	 OFFSET ??_C@_07CMGALDKB@?$CCblack?$CC@
  0080d	eb 05		 jmp	 SHORT $LN425@GetSTMessa
$LN34@GetSTMessa:

; 405  : 					else
; 406  : 						str2.Replace(Index,"\"blue\"");

  0080f	68 00 00 00 00	 push	 OFFSET ??_C@_06JGAACDGM@?$CCblue?$CC@
$LN425@GetSTMessa:

; 407  : 				}

  00814	ff 75 90	 push	 DWORD PTR _Index$10[ebp]
  00817	ff 15 00 00 00
	00		 call	 DWORD PTR __imp_?Replace@?$CStringT@DV?$StrTraitMFC_DLL@DV?$ChTraitsCRT@D@ATL@@@@@ATL@@QAEHPBD0@Z
  0081d	8d 4d 90	 lea	 ecx, DWORD PTR _Index$10[ebp]
  00820	ff 15 00 00 00
	00		 call	 DWORD PTR __imp_??1?$CStringT@DV?$StrTraitMFC_DLL@DV?$ChTraitsCRT@D@ATL@@@@@ATL@@QAE@XZ
  00826	8d 4d 9c	 lea	 ecx, DWORD PTR _Data$12[ebp]
  00829	c6 45 fc 12	 mov	 BYTE PTR __$EHRec$[ebp+8], 18 ; 00000012H
  0082d	ff 15 00 00 00
	00		 call	 DWORD PTR __imp_??1?$CStringT@DV?$StrTraitMFC_DLL@DV?$ChTraitsCRT@D@ATL@@@@@ATL@@QAE@XZ
  00833	eb 08		 jmp	 SHORT $LN410@GetSTMessa
$LN33@GetSTMessa:
; File C:\Program Files (x86)\Microsoft Visual Studio\2019\Community\VC\Tools\MSVC\14.29.30133\atlmfc\include\afxcoll.inl

; 289  : 		if( nIndex < 0 || nIndex >= m_nSize )

  00835	85 ff		 test	 edi, edi
  00837	0f 88 f2 02 00
	00		 js	 $LN374@GetSTMessa
$LN410@GetSTMessa:
  0083d	3b 7d b0	 cmp	 edi, DWORD PTR _ResultData$[ebp+8]
  00840	0f 8d e9 02 00
	00		 jge	 $LN374@GetSTMessa

; 291  : 		return m_pData[nIndex]; }

  00846	8b 45 ac	 mov	 eax, DWORD PTR _ResultData$[ebp+4]
; File D:\git\src\IBK\IBK_DRFN\ProjSrc\SrcDrfn\Chart\INDEXOPTIMIZER\DlgTrade.cpp

; 409  : 				str2.Replace(m_pHtmlCodeNameArray[j], ResultData.GetAt(j));

  00849	8d 4d bc	 lea	 ecx, DWORD PTR _str2$[ebp]
  0084c	ff 34 b8	 push	 DWORD PTR [eax+edi*4]
  0084f	ff 74 bd c8	 push	 DWORD PTR _m_pHtmlCodeNameArray$[ebp+edi*4]
  00853	ff 15 00 00 00
	00		 call	 DWORD PTR __imp_?Replace@?$CStringT@DV?$StrTraitMFC_DLL@DV?$ChTraitsCRT@D@ATL@@@@@ATL@@QAEHPBD0@Z
  00859	47		 inc	 edi
  0085a	83 ff 0a	 cmp	 edi, 10			; 0000000aH
  0085d	0f 8c 24 fe ff
	ff		 jl	 $LL9@GetSTMessa

; 410  : 			}
; 411  : 		
; 412  : 			TableCode +=str2;

  00863	8d 45 bc	 lea	 eax, DWORD PTR _str2$[ebp]
  00866	50		 push	 eax
  00867	8d 4d 94	 lea	 ecx, DWORD PTR _TableCode$[ebp]
  0086a	ff 15 00 00 00
	00		 call	 DWORD PTR __imp_??Y?$CStringT@DV?$StrTraitMFC_DLL@DV?$ChTraitsCRT@D@ATL@@@@@ATL@@QAEAAV01@ABV?$CSimpleStringT@D$00@1@@Z
  00870	8b 55 c0	 mov	 edx, DWORD PTR _i$1$[ebp]
  00873	8b 7d 8c	 mov	 edi, DWORD PTR _this$GSCopy$1$[ebp]
  00876	3b 55 88	 cmp	 edx, DWORD PTR _nSize$1$[ebp]
  00879	0f 8c 91 f9 ff
	ff		 jl	 $LL4@GetSTMessa
$LN3@GetSTMessa:

; 413  : 		}
; 414  : 	strHtml.Replace("<!--ADD-->",TableCode);

  0087f	ff 75 94	 push	 DWORD PTR _TableCode$[ebp]
  00882	8d 4d a0	 lea	 ecx, DWORD PTR _strHtml$[ebp]
  00885	68 00 00 00 00	 push	 OFFSET ??_C@_0L@PPJEJMEG@?$DM?$CB?9?9ADD?9?9?$DO@
  0088a	ff 15 00 00 00
	00		 call	 DWORD PTR __imp_?Replace@?$CStringT@DV?$StrTraitMFC_DLL@DV?$ChTraitsCRT@D@ATL@@@@@ATL@@QAEHPBD0@Z

; 416  : 	if(m_pDlgOptimizer && m_pDlgOptimizer->m_DlgSooik->GetSafeHwnd()!=NULL)

  00890	8b 8f ac 00 00
	00		 mov	 ecx, DWORD PTR [edi+172]
  00896	85 c9		 test	 ecx, ecx
  00898	74 69		 je	 SHORT $LN36@GetSTMessa
  0089a	8b 89 84 0e 00
	00		 mov	 ecx, DWORD PTR [ecx+3716]
; File C:\Program Files (x86)\Microsoft Visual Studio\2019\Community\VC\Tools\MSVC\14.29.30133\atlmfc\include\afxwin2.inl

; 25   : 	{ return this == NULL ? NULL : m_hWnd; }

  008a0	85 c9		 test	 ecx, ecx
  008a2	74 5f		 je	 SHORT $LN36@GetSTMessa
; File D:\git\src\IBK\IBK_DRFN\ProjSrc\SrcDrfn\Chart\INDEXOPTIMIZER\DlgTrade.cpp

; 416  : 	if(m_pDlgOptimizer && m_pDlgOptimizer->m_DlgSooik->GetSafeHwnd()!=NULL)

  008a4	83 79 20 00	 cmp	 DWORD PTR [ecx+32], 0
  008a8	74 59		 je	 SHORT $LN36@GetSTMessa

; 417  : 	{
; 418  : 		m_pDlgOptimizer->m_DlgSooik->PrepareShow(stNujukArray.GetSize());

  008aa	ff b5 30 ff ff
	ff		 push	 DWORD PTR _stNujukArray$[ebp+8]
  008b0	e8 00 00 00 00	 call	 ?PrepareShow@CTabSoonikChart@@QAEXH@Z ; CTabSoonikChart::PrepareShow

; 419  : 		m_pDlgOptimizer->m_DlgSooik->ShowData2Chart(stNujukArray,stNujukArray.GetSize());

  008b5	8b 8f ac 00 00
	00		 mov	 ecx, DWORD PTR [edi+172]
  008bb	8d 85 28 ff ff
	ff		 lea	 eax, DWORD PTR _stNujukArray$[ebp]
  008c1	ff b5 30 ff ff
	ff		 push	 DWORD PTR _stNujukArray$[ebp+8]
  008c7	50		 push	 eax
  008c8	8b 89 84 0e 00
	00		 mov	 ecx, DWORD PTR [ecx+3716]
  008ce	e8 00 00 00 00	 call	 ?ShowData2Chart@CTabSoonikChart@@QAEXAAVCStringArray@@H@Z ; CTabSoonikChart::ShowData2Chart

; 420  : 		m_pDlgOptimizer->m_DlgSooik->ShowData1Chart((long)&dGunSu);

  008d3	8b 8f ac 00 00
	00		 mov	 ecx, DWORD PTR [edi+172]
  008d9	8d 85 60 ff ff
	ff		 lea	 eax, DWORD PTR _dGunSu$[ebp]
  008df	50		 push	 eax
  008e0	8b 89 84 0e 00
	00		 mov	 ecx, DWORD PTR [ecx+3716]
  008e6	e8 00 00 00 00	 call	 ?ShowData1Chart@CTabSoonikChart@@QAEXJ@Z ; CTabSoonikChart::ShowData1Chart

; 421  : 		m_pDlgOptimizer->m_DlgSonik->ShowData1Chart((long)&dSonIk);// :  

  008eb	8b 8f ac 00 00
	00		 mov	 ecx, DWORD PTR [edi+172]
  008f1	8d 85 74 ff ff
	ff		 lea	 eax, DWORD PTR _dSonIk$[ebp]
  008f7	50		 push	 eax
  008f8	8b 89 88 0e 00
	00		 mov	 ecx, DWORD PTR [ecx+3720]
  008fe	e8 00 00 00 00	 call	 ?ShowData1Chart@CTabSonikChart@@QAEXJ@Z ; CTabSonikChart::ShowData1Chart
$LN36@GetSTMessa:
; File C:\Program Files (x86)\Microsoft Visual Studio\2019\Community\VC\Tools\MSVC\14.29.30133\atlmfc\include\afxcoll.inl

; 286  : 	{ SetSize(0); }

  00903	6a ff		 push	 -1
  00905	6a 00		 push	 0
  00907	8d 8d 28 ff ff
	ff		 lea	 ecx, DWORD PTR _stNujukArray$[ebp]
  0090d	e8 00 00 00 00	 call	 ?SetSize@CStringArray@@QAEXHH@Z ; CStringArray::SetSize
; File C:\Program Files (x86)\Microsoft Visual Studio\2019\Community\VC\Tools\MSVC\14.29.30133\atlmfc\include\afxtempl.h

; 381  : 		if (m_pData != NULL)

  00912	8b 85 64 ff ff
	ff		 mov	 eax, DWORD PTR _dGunSu$[ebp+4]
  00918	85 c0		 test	 eax, eax
  0091a	74 13		 je	 SHORT $LN218@GetSTMessa

; 382  : 		{
; 383  : 			for( int i = 0; i < m_nSize; i++ )
; 384  : 				(m_pData + i)->~TYPE();
; 385  : 			delete[] (BYTE*)m_pData;

  0091c	50		 push	 eax
  0091d	e8 00 00 00 00	 call	 ??_V@YAXPAX@Z		; operator delete[]
  00922	83 c4 04	 add	 esp, 4

; 386  : 			m_pData = NULL;

  00925	c7 85 64 ff ff
	ff 00 00 00 00	 mov	 DWORD PTR _dGunSu$[ebp+4], 0
$LN218@GetSTMessa:

; 381  : 		if (m_pData != NULL)

  0092f	8b 85 78 ff ff
	ff		 mov	 eax, DWORD PTR _dSonIk$[ebp+4]

; 388  : 		m_nSize = m_nMaxSize = 0;

  00935	c7 85 6c ff ff
	ff 00 00 00 00	 mov	 DWORD PTR _dGunSu$[ebp+12], 0
  0093f	c7 85 68 ff ff
	ff 00 00 00 00	 mov	 DWORD PTR _dGunSu$[ebp+8], 0

; 381  : 		if (m_pData != NULL)

  00949	85 c0		 test	 eax, eax
  0094b	74 13		 je	 SHORT $LN268@GetSTMessa

; 382  : 		{
; 383  : 			for( int i = 0; i < m_nSize; i++ )
; 384  : 				(m_pData + i)->~TYPE();
; 385  : 			delete[] (BYTE*)m_pData;

  0094d	50		 push	 eax
  0094e	e8 00 00 00 00	 call	 ??_V@YAXPAX@Z		; operator delete[]
  00953	83 c4 04	 add	 esp, 4

; 386  : 			m_pData = NULL;

  00956	c7 85 78 ff ff
	ff 00 00 00 00	 mov	 DWORD PTR _dSonIk$[ebp+4], 0
$LN268@GetSTMessa:
; File D:\git\src\IBK\IBK_DRFN\ProjSrc\SrcDrfn\Chart\INDEXOPTIMIZER\DlgTrade.cpp

; 427  : 	CStdioFile NewFile;

  00960	8d 8d 10 ff ff
	ff		 lea	 ecx, DWORD PTR _NewFile$[ebp]
; File C:\Program Files (x86)\Microsoft Visual Studio\2019\Community\VC\Tools\MSVC\14.29.30133\atlmfc\include\afxtempl.h

; 388  : 		m_nSize = m_nMaxSize = 0;

  00966	c7 45 80 00 00
	00 00		 mov	 DWORD PTR _dSonIk$[ebp+12], 0
  0096d	c7 85 7c ff ff
	ff 00 00 00 00	 mov	 DWORD PTR _dSonIk$[ebp+8], 0
; File D:\git\src\IBK\IBK_DRFN\ProjSrc\SrcDrfn\Chart\INDEXOPTIMIZER\DlgTrade.cpp

; 427  : 	CStdioFile NewFile;

  00977	e8 00 00 00 00	 call	 ??0CStdioFile@@QAE@XZ	; CStdioFile::CStdioFile
; File C:\Program Files (x86)\Microsoft Visual Studio\2019\Community\VC\Tools\MSVC\14.29.30133\atlmfc\include\cstringt.h

; 2401 : 		CStringT strResult( str1.GetManager() );

  0097c	8d 8f c0 00 00
	00		 lea	 ecx, DWORD PTR [edi+192]
; File D:\git\src\IBK\IBK_DRFN\ProjSrc\SrcDrfn\Chart\INDEXOPTIMIZER\DlgTrade.cpp

; 428  : 	SetFileAttributes (m_strDir+"\\IOTradeData.htm", FILE_ATTRIBUTE_NORMAL);//protect Read Only Error

  00982	c6 45 fc 1d	 mov	 BYTE PTR __$EHRec$[ebp+8], 29 ; 0000001dH
; File C:\Program Files (x86)\Microsoft Visual Studio\2019\Community\VC\Tools\MSVC\14.29.30133\atlmfc\include\cstringt.h

; 2401 : 		CStringT strResult( str1.GetManager() );

  00986	ff 15 00 00 00
	00		 call	 DWORD PTR __imp_?GetManager@?$CStringT@DV?$StrTraitMFC_DLL@DV?$ChTraitsCRT@D@ATL@@@@@ATL@@QBEPAUIAtlStringMgr@2@XZ
  0098c	50		 push	 eax
  0098d	8d 4d c0	 lea	 ecx, DWORD PTR $T14[ebp]
  00990	ff 15 00 00 00
	00		 call	 DWORD PTR __imp_??0?$CStringT@DV?$StrTraitMFC_DLL@DV?$ChTraitsCRT@D@ATL@@@@@ATL@@QAE@PAUIAtlStringMgr@1@@Z
; File C:\Program Files (x86)\Microsoft Visual Studio\2019\Community\VC\Tools\MSVC\14.29.30133\atlmfc\include\atlsimpstr.h

; 519  : 		return( GetData()->nDataLength );

  00996	8b 87 c0 00 00
	00		 mov	 eax, DWORD PTR [edi+192]
; File C:\Program Files (x86)\Microsoft Visual Studio\2019\Community\VC\Tools\MSVC\14.29.30133\atlmfc\include\cstringt.h

; 2403 : 		CThisSimpleString::Concatenate( strResult, str1, str1.GetLength(), psz2, CThisSimpleString::StringLength( psz2 ) );

  0099c	6a 10		 push	 16			; 00000010H
  0099e	68 00 00 00 00	 push	 OFFSET ??_C@_0BB@EDCKBMPI@?2IOTradeData?4htm@

; 2404 : 
; 2405 : 		return( strResult );

  009a3	c7 45 9c 01 00
	00 00		 mov	 DWORD PTR $T11[ebp], 1
  009aa	ff 70 f4	 push	 DWORD PTR [eax-12]
  009ad	50		 push	 eax
  009ae	8d 45 c0	 lea	 eax, DWORD PTR $T14[ebp]
  009b1	50		 push	 eax
  009b2	ff 15 00 00 00
	00		 call	 DWORD PTR __imp_?Concatenate@?$CSimpleStringT@D$00@ATL@@KAXAAV12@PBDH1H@Z
  009b8	83 c4 14	 add	 esp, 20			; 00000014H
; File D:\git\src\IBK\IBK_DRFN\ProjSrc\SrcDrfn\Chart\INDEXOPTIMIZER\DlgTrade.cpp

; 428  : 	SetFileAttributes (m_strDir+"\\IOTradeData.htm", FILE_ATTRIBUTE_NORMAL);//protect Read Only Error

  009bb	68 80 00 00 00	 push	 128			; 00000080H
  009c0	ff 75 c0	 push	 DWORD PTR $T14[ebp]
  009c3	ff 15 00 00 00
	00		 call	 DWORD PTR __imp__SetFileAttributesA@8
  009c9	8d 4d c0	 lea	 ecx, DWORD PTR $T14[ebp]
  009cc	ff 15 00 00 00
	00		 call	 DWORD PTR __imp_??1?$CStringT@DV?$StrTraitMFC_DLL@DV?$ChTraitsCRT@D@ATL@@@@@ATL@@QAE@XZ
; File C:\Program Files (x86)\Microsoft Visual Studio\2019\Community\VC\Tools\MSVC\14.29.30133\atlmfc\include\cstringt.h

; 2401 : 		CStringT strResult( str1.GetManager() );

  009d2	8d 8f c0 00 00
	00		 lea	 ecx, DWORD PTR [edi+192]
; File D:\git\src\IBK\IBK_DRFN\ProjSrc\SrcDrfn\Chart\INDEXOPTIMIZER\DlgTrade.cpp

; 429  : 	if(!NewFile.Open(m_strDir+"\\IOTradeData.htm",CFile::modeCreate|CFile::modeWrite))

  009d8	c6 45 fc 1e	 mov	 BYTE PTR __$EHRec$[ebp+8], 30 ; 0000001eH
; File C:\Program Files (x86)\Microsoft Visual Studio\2019\Community\VC\Tools\MSVC\14.29.30133\atlmfc\include\cstringt.h

; 2401 : 		CStringT strResult( str1.GetManager() );

  009dc	ff 15 00 00 00
	00		 call	 DWORD PTR __imp_?GetManager@?$CStringT@DV?$StrTraitMFC_DLL@DV?$ChTraitsCRT@D@ATL@@@@@ATL@@QBEPAUIAtlStringMgr@2@XZ
  009e2	50		 push	 eax
  009e3	8d 4d c0	 lea	 ecx, DWORD PTR $T13[ebp]
  009e6	ff 15 00 00 00
	00		 call	 DWORD PTR __imp_??0?$CStringT@DV?$StrTraitMFC_DLL@DV?$ChTraitsCRT@D@ATL@@@@@ATL@@QAE@PAUIAtlStringMgr@1@@Z
; File C:\Program Files (x86)\Microsoft Visual Studio\2019\Community\VC\Tools\MSVC\14.29.30133\atlmfc\include\atlsimpstr.h

; 519  : 		return( GetData()->nDataLength );

  009ec	8b 87 c0 00 00
	00		 mov	 eax, DWORD PTR [edi+192]
; File C:\Program Files (x86)\Microsoft Visual Studio\2019\Community\VC\Tools\MSVC\14.29.30133\atlmfc\include\cstringt.h

; 2403 : 		CThisSimpleString::Concatenate( strResult, str1, str1.GetLength(), psz2, CThisSimpleString::StringLength( psz2 ) );

  009f2	6a 10		 push	 16			; 00000010H
  009f4	68 00 00 00 00	 push	 OFFSET ??_C@_0BB@EDCKBMPI@?2IOTradeData?4htm@

; 2404 : 
; 2405 : 		return( strResult );

  009f9	c7 45 9c 02 00
	00 00		 mov	 DWORD PTR $T11[ebp], 2
  00a00	ff 70 f4	 push	 DWORD PTR [eax-12]
  00a03	50		 push	 eax
  00a04	8d 45 c0	 lea	 eax, DWORD PTR $T13[ebp]
  00a07	50		 push	 eax
  00a08	ff 15 00 00 00
	00		 call	 DWORD PTR __imp_?Concatenate@?$CSimpleStringT@D$00@ATL@@KAXAAV12@PBDH1H@Z
  00a0e	83 c4 14	 add	 esp, 20			; 00000014H
; File D:\git\src\IBK\IBK_DRFN\ProjSrc\SrcDrfn\Chart\INDEXOPTIMIZER\DlgTrade.cpp

; 429  : 	if(!NewFile.Open(m_strDir+"\\IOTradeData.htm",CFile::modeCreate|CFile::modeWrite))

  00a11	8d 8d 10 ff ff
	ff		 lea	 ecx, DWORD PTR _NewFile$[ebp]
  00a17	6a 00		 push	 0
  00a19	68 01 10 00 00	 push	 4097			; 00001001H
  00a1e	ff 75 c0	 push	 DWORD PTR $T13[ebp]
  00a21	e8 00 00 00 00	 call	 ?Open@CStdioFile@@UAEHPBDIPAVCFileException@@@Z ; CStdioFile::Open
  00a26	8d 4d c0	 lea	 ecx, DWORD PTR $T13[ebp]
  00a29	c6 45 fc 1c	 mov	 BYTE PTR __$EHRec$[ebp+8], 28 ; 0000001cH
  00a2d	8b f0		 mov	 esi, eax
  00a2f	ff 15 00 00 00
	00		 call	 DWORD PTR __imp_??1?$CStringT@DV?$StrTraitMFC_DLL@DV?$ChTraitsCRT@D@ATL@@@@@ATL@@QAE@XZ
  00a35	85 f6		 test	 esi, esi
  00a37	75 0e		 jne	 SHORT $LN37@GetSTMessa

; 430  : 	{
; 431  : 		AfxMessageBox("Do Not Create Html File.");

  00a39	56		 push	 esi
  00a3a	56		 push	 esi
  00a3b	68 00 00 00 00	 push	 OFFSET ??_C@_0BJ@EJHFGNNM@Do?5Not?5Create?5Html?5File?4@
  00a40	e8 00 00 00 00	 call	 ?AfxMessageBox@@YGHPBDII@Z ; AfxMessageBox

; 432  : 		return;

  00a45	eb 30		 jmp	 SHORT $LN430@GetSTMessa
$LN37@GetSTMessa:

; 433  : 	}else
; 434  : 		NewFile.WriteString(strHtml);

  00a47	ff 75 a0	 push	 DWORD PTR _strHtml$[ebp]
  00a4a	8d 8d 10 ff ff
	ff		 lea	 ecx, DWORD PTR _NewFile$[ebp]
  00a50	e8 00 00 00 00	 call	 ?WriteString@CStdioFile@@UAEXPBD@Z ; CStdioFile::WriteString

; 435  : 
; 436  : 		
; 437  : 	NewFile.Close();

  00a55	8d 8d 10 ff ff
	ff		 lea	 ecx, DWORD PTR _NewFile$[ebp]
  00a5b	e8 00 00 00 00	 call	 ?Close@CStdioFile@@UAEXXZ ; CStdioFile::Close

; 438  : 	OpenWebView("\\IOTradeData.htm");

  00a60	68 00 00 00 00	 push	 OFFSET ??_C@_0BB@EDCKBMPI@?2IOTradeData?4htm@
  00a65	8d 4d 88	 lea	 ecx, DWORD PTR $T9[ebp]
  00a68	ff 15 00 00 00
	00		 call	 DWORD PTR __imp_??0?$CStringT@DV?$StrTraitMFC_DLL@DV?$ChTraitsCRT@D@ATL@@@@@ATL@@QAE@PBD@Z

; 444  : }

  00a6e	8d 4d 88	 lea	 ecx, DWORD PTR $T9[ebp]
  00a71	ff 15 00 00 00
	00		 call	 DWORD PTR __imp_??1?$CStringT@DV?$StrTraitMFC_DLL@DV?$ChTraitsCRT@D@ATL@@@@@ATL@@QAE@XZ
$LN430@GetSTMessa:

; 439  : 
; 440  : }

  00a77	8d 8d 10 ff ff
	ff		 lea	 ecx, DWORD PTR _NewFile$[ebp]
  00a7d	e8 00 00 00 00	 call	 ??1CStdioFile@@UAE@XZ	; CStdioFile::~CStdioFile
  00a82	8b 85 78 ff ff
	ff		 mov	 eax, DWORD PTR _dSonIk$[ebp+4]
  00a88	c7 85 74 ff ff
	ff 00 00 00 00	 mov	 DWORD PTR _dSonIk$[ebp], OFFSET ??_7?$CArray@NN@@6B@
  00a92	85 c0		 test	 eax, eax
  00a94	74 09		 je	 SHORT $LN348@GetSTMessa
  00a96	50		 push	 eax
  00a97	e8 00 00 00 00	 call	 ??_V@YAXPAX@Z		; operator delete[]
  00a9c	83 c4 04	 add	 esp, 4
$LN348@GetSTMessa:
  00a9f	8b 85 64 ff ff
	ff		 mov	 eax, DWORD PTR _dGunSu$[ebp+4]
  00aa5	c7 85 60 ff ff
	ff 00 00 00 00	 mov	 DWORD PTR _dGunSu$[ebp], OFFSET ??_7?$CArray@NN@@6B@
  00aaf	85 c0		 test	 eax, eax
  00ab1	74 09		 je	 SHORT $LN355@GetSTMessa
  00ab3	50		 push	 eax
  00ab4	e8 00 00 00 00	 call	 ??_V@YAXPAX@Z		; operator delete[]
  00ab9	83 c4 04	 add	 esp, 4
$LN355@GetSTMessa:
  00abc	8d 8d 28 ff ff
	ff		 lea	 ecx, DWORD PTR _stNujukArray$[ebp]
  00ac2	e8 00 00 00 00	 call	 ??1CStringArray@@UAE@XZ	; CStringArray::~CStringArray
  00ac7	ff 35 00 00 00
	00		 push	 DWORD PTR __imp_??1?$CStringT@DV?$StrTraitMFC_DLL@DV?$ChTraitsCRT@D@ATL@@@@@ATL@@QAE@XZ
  00acd	8d 45 c8	 lea	 eax, DWORD PTR _m_pHtmlCodeNameArray$[ebp]
  00ad0	c6 45 fc 05	 mov	 BYTE PTR __$EHRec$[ebp+8], 5
  00ad4	6a 0a		 push	 10			; 0000000aH
  00ad6	6a 04		 push	 4
  00ad8	50		 push	 eax
  00ad9	e8 00 00 00 00	 call	 ??_M@YGXPAXIIP6EX0@Z@Z
$LN421@GetSTMessa:
  00ade	8d 4d 98	 lea	 ecx, DWORD PTR _str$[ebp]
  00ae1	ff 15 00 00 00
	00		 call	 DWORD PTR __imp_??1?$CStringT@DV?$StrTraitMFC_DLL@DV?$ChTraitsCRT@D@ATL@@@@@ATL@@QAE@XZ
  00ae7	8d 4d a8	 lea	 ecx, DWORD PTR _ResultData$[ebp]
  00aea	e8 00 00 00 00	 call	 ??1CStringArray@@UAE@XZ	; CStringArray::~CStringArray
  00aef	8d 4d c4	 lea	 ecx, DWORD PTR _strResultData$[ebp]
  00af2	ff 15 00 00 00
	00		 call	 DWORD PTR __imp_??1?$CStringT@DV?$StrTraitMFC_DLL@DV?$ChTraitsCRT@D@ATL@@@@@ATL@@QAE@XZ
  00af8	8d 4d a0	 lea	 ecx, DWORD PTR _strHtml$[ebp]
  00afb	ff 15 00 00 00
	00		 call	 DWORD PTR __imp_??1?$CStringT@DV?$StrTraitMFC_DLL@DV?$ChTraitsCRT@D@ATL@@@@@ATL@@QAE@XZ
  00b01	8d 4d bc	 lea	 ecx, DWORD PTR _str2$[ebp]
  00b04	ff 15 00 00 00
	00		 call	 DWORD PTR __imp_??1?$CStringT@DV?$StrTraitMFC_DLL@DV?$ChTraitsCRT@D@ATL@@@@@ATL@@QAE@XZ
  00b0a	8d 4d 94	 lea	 ecx, DWORD PTR _TableCode$[ebp]
  00b0d	ff 15 00 00 00
	00		 call	 DWORD PTR __imp_??1?$CStringT@DV?$StrTraitMFC_DLL@DV?$ChTraitsCRT@D@ATL@@@@@ATL@@QAE@XZ
  00b13	8b 4d f4	 mov	 ecx, DWORD PTR __$EHRec$[ebp]
  00b16	64 89 0d 00 00
	00 00		 mov	 DWORD PTR fs:0, ecx
  00b1d	59		 pop	 ecx
  00b1e	5f		 pop	 edi
  00b1f	5e		 pop	 esi
  00b20	5b		 pop	 ebx
  00b21	8b 4d f0	 mov	 ecx, DWORD PTR __$ArrayPad$[ebp]
  00b24	33 cd		 xor	 ecx, ebp
  00b26	e8 00 00 00 00	 call	 @__security_check_cookie@4
  00b2b	8b e5		 mov	 esp, ebp
  00b2d	5d		 pop	 ebp
  00b2e	c3		 ret	 0
$LN374@GetSTMessa:
  00b2f	e8 00 00 00 00	 call	 ?AfxThrowInvalidArgException@@YGXXZ ; AfxThrowInvalidArgException
$LN420@GetSTMessa:
$LN415@GetSTMessa:
  00b34	00 00 00 00	 DD	 $LN14@GetSTMessa
  00b38	00 00 00 00	 DD	 $LN15@GetSTMessa
  00b3c	00 00 00 00	 DD	 $LN16@GetSTMessa
  00b40	00 00 00 00	 DD	 $LN17@GetSTMessa
  00b44	00 00 00 00	 DD	 $LN18@GetSTMessa
_TEXT	ENDS
;	COMDAT text$x
text$x	SEGMENT
__unwindfunclet$?GetSTMessageData@CDlgTrade@@QAEXXZ$0:
  00000	8d 4d 94	 lea	 ecx, DWORD PTR _TableCode$[ebp]
  00003	ff 25 00 00 00
	00		 jmp	 DWORD PTR __imp_??1?$CStringT@DV?$StrTraitMFC_DLL@DV?$ChTraitsCRT@D@ATL@@@@@ATL@@QAE@XZ
__unwindfunclet$?GetSTMessageData@CDlgTrade@@QAEXXZ$1:
  00009	8d 4d bc	 lea	 ecx, DWORD PTR _str2$[ebp]
  0000c	ff 25 00 00 00
	00		 jmp	 DWORD PTR __imp_??1?$CStringT@DV?$StrTraitMFC_DLL@DV?$ChTraitsCRT@D@ATL@@@@@ATL@@QAE@XZ
__unwindfunclet$?GetSTMessageData@CDlgTrade@@QAEXXZ$2:
  00012	8d 4d a0	 lea	 ecx, DWORD PTR _strHtml$[ebp]
  00015	ff 25 00 00 00
	00		 jmp	 DWORD PTR __imp_??1?$CStringT@DV?$StrTraitMFC_DLL@DV?$ChTraitsCRT@D@ATL@@@@@ATL@@QAE@XZ
__unwindfunclet$?GetSTMessageData@CDlgTrade@@QAEXXZ$3:
  0001b	8d 4d c4	 lea	 ecx, DWORD PTR _strResultData$[ebp]
  0001e	ff 25 00 00 00
	00		 jmp	 DWORD PTR __imp_??1?$CStringT@DV?$StrTraitMFC_DLL@DV?$ChTraitsCRT@D@ATL@@@@@ATL@@QAE@XZ
__unwindfunclet$?GetSTMessageData@CDlgTrade@@QAEXXZ$4:
  00024	8d 4d a8	 lea	 ecx, DWORD PTR _ResultData$[ebp]
  00027	e9 00 00 00 00	 jmp	 ??1CStringArray@@UAE@XZ	; CStringArray::~CStringArray
__unwindfunclet$?GetSTMessageData@CDlgTrade@@QAEXXZ$5:
  0002c	8d 4d 98	 lea	 ecx, DWORD PTR _str$[ebp]
  0002f	ff 25 00 00 00
	00		 jmp	 DWORD PTR __imp_??1?$CStringT@DV?$StrTraitMFC_DLL@DV?$ChTraitsCRT@D@ATL@@@@@ATL@@QAE@XZ
__unwindfunclet$?GetSTMessageData@CDlgTrade@@QAEXXZ$6:
  00035	8d 4d c8	 lea	 ecx, DWORD PTR _m_pHtmlCodeNameArray$[ebp]
  00038	ff 25 00 00 00
	00		 jmp	 DWORD PTR __imp_??1?$CStringT@DV?$StrTraitMFC_DLL@DV?$ChTraitsCRT@D@ATL@@@@@ATL@@QAE@XZ
__unwindfunclet$?GetSTMessageData@CDlgTrade@@QAEXXZ$7:
  0003e	8d 4d cc	 lea	 ecx, DWORD PTR _m_pHtmlCodeNameArray$[ebp+4]
  00041	ff 25 00 00 00
	00		 jmp	 DWORD PTR __imp_??1?$CStringT@DV?$StrTraitMFC_DLL@DV?$ChTraitsCRT@D@ATL@@@@@ATL@@QAE@XZ
__unwindfunclet$?GetSTMessageData@CDlgTrade@@QAEXXZ$8:
  00047	8d 4d d0	 lea	 ecx, DWORD PTR _m_pHtmlCodeNameArray$[ebp+8]
  0004a	ff 25 00 00 00
	00		 jmp	 DWORD PTR __imp_??1?$CStringT@DV?$StrTraitMFC_DLL@DV?$ChTraitsCRT@D@ATL@@@@@ATL@@QAE@XZ
__unwindfunclet$?GetSTMessageData@CDlgTrade@@QAEXXZ$9:
  00050	8d 4d d4	 lea	 ecx, DWORD PTR _m_pHtmlCodeNameArray$[ebp+12]
  00053	ff 25 00 00 00
	00		 jmp	 DWORD PTR __imp_??1?$CStringT@DV?$StrTraitMFC_DLL@DV?$ChTraitsCRT@D@ATL@@@@@ATL@@QAE@XZ
__unwindfunclet$?GetSTMessageData@CDlgTrade@@QAEXXZ$10:
  00059	8d 4d d8	 lea	 ecx, DWORD PTR _m_pHtmlCodeNameArray$[ebp+16]
  0005c	ff 25 00 00 00
	00		 jmp	 DWORD PTR __imp_??1?$CStringT@DV?$StrTraitMFC_DLL@DV?$ChTraitsCRT@D@ATL@@@@@ATL@@QAE@XZ
__unwindfunclet$?GetSTMessageData@CDlgTrade@@QAEXXZ$11:
  00062	8d 4d dc	 lea	 ecx, DWORD PTR _m_pHtmlCodeNameArray$[ebp+20]
  00065	ff 25 00 00 00
	00		 jmp	 DWORD PTR __imp_??1?$CStringT@DV?$StrTraitMFC_DLL@DV?$ChTraitsCRT@D@ATL@@@@@ATL@@QAE@XZ
__unwindfunclet$?GetSTMessageData@CDlgTrade@@QAEXXZ$12:
  0006b	8d 4d e0	 lea	 ecx, DWORD PTR _m_pHtmlCodeNameArray$[ebp+24]
  0006e	ff 25 00 00 00
	00		 jmp	 DWORD PTR __imp_??1?$CStringT@DV?$StrTraitMFC_DLL@DV?$ChTraitsCRT@D@ATL@@@@@ATL@@QAE@XZ
__unwindfunclet$?GetSTMessageData@CDlgTrade@@QAEXXZ$13:
  00074	8d 4d e4	 lea	 ecx, DWORD PTR _m_pHtmlCodeNameArray$[ebp+28]
  00077	ff 25 00 00 00
	00		 jmp	 DWORD PTR __imp_??1?$CStringT@DV?$StrTraitMFC_DLL@DV?$ChTraitsCRT@D@ATL@@@@@ATL@@QAE@XZ
__unwindfunclet$?GetSTMessageData@CDlgTrade@@QAEXXZ$14:
  0007d	8d 4d e8	 lea	 ecx, DWORD PTR _m_pHtmlCodeNameArray$[ebp+32]
  00080	ff 25 00 00 00
	00		 jmp	 DWORD PTR __imp_??1?$CStringT@DV?$StrTraitMFC_DLL@DV?$ChTraitsCRT@D@ATL@@@@@ATL@@QAE@XZ
__unwindfunclet$?GetSTMessageData@CDlgTrade@@QAEXXZ$16:
  00086	a1 00 00 00 00	 mov	 eax, DWORD PTR __imp_??1?$CStringT@DV?$StrTraitMFC_DLL@DV?$ChTraitsCRT@D@ATL@@@@@ATL@@QAE@XZ
  0008b	50		 push	 eax
  0008c	6a 0a		 push	 10			; 0000000aH
  0008e	6a 04		 push	 4
  00090	8d 45 c8	 lea	 eax, DWORD PTR _m_pHtmlCodeNameArray$[ebp]
  00093	50		 push	 eax
  00094	e8 00 00 00 00	 call	 ??_M@YGXPAXIIP6EX0@Z@Z
  00099	c3		 ret	 0
__unwindfunclet$?GetSTMessageData@CDlgTrade@@QAEXXZ$17:
  0009a	8d 8d 28 ff ff
	ff		 lea	 ecx, DWORD PTR _stNujukArray$[ebp]
  000a0	e9 00 00 00 00	 jmp	 ??1CStringArray@@UAE@XZ	; CStringArray::~CStringArray
__unwindfunclet$?GetSTMessageData@CDlgTrade@@QAEXXZ$18:
  000a5	8d 8d 60 ff ff
	ff		 lea	 ecx, DWORD PTR _dGunSu$[ebp]
  000ab	e9 00 00 00 00	 jmp	 ??1?$CArray@NN@@UAE@XZ	; CArray<double,double>::~CArray<double,double>
__unwindfunclet$?GetSTMessageData@CDlgTrade@@QAEXXZ$19:
  000b0	8d 8d 74 ff ff
	ff		 lea	 ecx, DWORD PTR _dSonIk$[ebp]
  000b6	e9 00 00 00 00	 jmp	 ??1?$CArray@NN@@UAE@XZ	; CArray<double,double>::~CArray<double,double>
__unwindfunclet$?GetSTMessageData@CDlgTrade@@QAEXXZ$20:
  000bb	8d 8d 5c ff ff
	ff		 lea	 ecx, DWORD PTR $T8[ebp]
  000c1	ff 25 00 00 00
	00		 jmp	 DWORD PTR __imp_??1?$CStringT@DV?$StrTraitMFC_DLL@DV?$ChTraitsCRT@D@ATL@@@@@ATL@@QAE@XZ
__unwindfunclet$?GetSTMessageData@CDlgTrade@@QAEXXZ$21:
  000c7	8d 8d 58 ff ff
	ff		 lea	 ecx, DWORD PTR $T7[ebp]
  000cd	ff 25 00 00 00
	00		 jmp	 DWORD PTR __imp_??1?$CStringT@DV?$StrTraitMFC_DLL@DV?$ChTraitsCRT@D@ATL@@@@@ATL@@QAE@XZ
__unwindfunclet$?GetSTMessageData@CDlgTrade@@QAEXXZ$22:
  000d3	8d 8d 54 ff ff
	ff		 lea	 ecx, DWORD PTR $T6[ebp]
  000d9	ff 25 00 00 00
	00		 jmp	 DWORD PTR __imp_??1?$CStringT@DV?$StrTraitMFC_DLL@DV?$ChTraitsCRT@D@ATL@@@@@ATL@@QAE@XZ
__unwindfunclet$?GetSTMessageData@CDlgTrade@@QAEXXZ$23:
  000df	8d 8d 50 ff ff
	ff		 lea	 ecx, DWORD PTR $T5[ebp]
  000e5	ff 25 00 00 00
	00		 jmp	 DWORD PTR __imp_??1?$CStringT@DV?$StrTraitMFC_DLL@DV?$ChTraitsCRT@D@ATL@@@@@ATL@@QAE@XZ
__unwindfunclet$?GetSTMessageData@CDlgTrade@@QAEXXZ$24:
  000eb	8d 8d 4c ff ff
	ff		 lea	 ecx, DWORD PTR $T4[ebp]
  000f1	ff 25 00 00 00
	00		 jmp	 DWORD PTR __imp_??1?$CStringT@DV?$StrTraitMFC_DLL@DV?$ChTraitsCRT@D@ATL@@@@@ATL@@QAE@XZ
__unwindfunclet$?GetSTMessageData@CDlgTrade@@QAEXXZ$25:
  000f7	8d 8d 48 ff ff
	ff		 lea	 ecx, DWORD PTR $T3[ebp]
  000fd	ff 25 00 00 00
	00		 jmp	 DWORD PTR __imp_??1?$CStringT@DV?$StrTraitMFC_DLL@DV?$ChTraitsCRT@D@ATL@@@@@ATL@@QAE@XZ
__unwindfunclet$?GetSTMessageData@CDlgTrade@@QAEXXZ$26:
  00103	8d 8d 44 ff ff
	ff		 lea	 ecx, DWORD PTR $T2[ebp]
  00109	ff 25 00 00 00
	00		 jmp	 DWORD PTR __imp_??1?$CStringT@DV?$StrTraitMFC_DLL@DV?$ChTraitsCRT@D@ATL@@@@@ATL@@QAE@XZ
__unwindfunclet$?GetSTMessageData@CDlgTrade@@QAEXXZ$27:
  0010f	8d 4d 9c	 lea	 ecx, DWORD PTR _Data$12[ebp]
  00112	ff 25 00 00 00
	00		 jmp	 DWORD PTR __imp_??1?$CStringT@DV?$StrTraitMFC_DLL@DV?$ChTraitsCRT@D@ATL@@@@@ATL@@QAE@XZ
__unwindfunclet$?GetSTMessageData@CDlgTrade@@QAEXXZ$28:
  00118	8d 4d 90	 lea	 ecx, DWORD PTR _Index$10[ebp]
  0011b	ff 25 00 00 00
	00		 jmp	 DWORD PTR __imp_??1?$CStringT@DV?$StrTraitMFC_DLL@DV?$ChTraitsCRT@D@ATL@@@@@ATL@@QAE@XZ
__unwindfunclet$?GetSTMessageData@CDlgTrade@@QAEXXZ$29:
  00121	8d 8d 10 ff ff
	ff		 lea	 ecx, DWORD PTR _NewFile$[ebp]
  00127	e9 00 00 00 00	 jmp	 ??1CStdioFile@@UAE@XZ	; CStdioFile::~CStdioFile
__unwindfunclet$?GetSTMessageData@CDlgTrade@@QAEXXZ$33:
  0012c	8b 45 9c	 mov	 eax, DWORD PTR $T11[ebp]
  0012f	83 e0 01	 and	 eax, 1
  00132	0f 84 0d 00 00
	00		 je	 $LN299@GetSTMessa
  00138	83 65 9c fe	 and	 DWORD PTR $T11[ebp], -2	; fffffffeH
  0013c	8d 4d c0	 lea	 ecx, DWORD PTR $T14[ebp]
  0013f	ff 25 00 00 00
	00		 jmp	 DWORD PTR __imp_??1?$CStringT@DV?$StrTraitMFC_DLL@DV?$ChTraitsCRT@D@ATL@@@@@ATL@@QAE@XZ
$LN299@GetSTMessa:
  00145	c3		 ret	 0
__unwindfunclet$?GetSTMessageData@CDlgTrade@@QAEXXZ$34:
  00146	8b 45 9c	 mov	 eax, DWORD PTR $T11[ebp]
  00149	83 e0 02	 and	 eax, 2
  0014c	0f 84 0d 00 00
	00		 je	 $LN314@GetSTMessa
  00152	83 65 9c fd	 and	 DWORD PTR $T11[ebp], -3	; fffffffdH
  00156	8d 4d c0	 lea	 ecx, DWORD PTR $T13[ebp]
  00159	ff 25 00 00 00
	00		 jmp	 DWORD PTR __imp_??1?$CStringT@DV?$StrTraitMFC_DLL@DV?$ChTraitsCRT@D@ATL@@@@@ATL@@QAE@XZ
$LN314@GetSTMessa:
  0015f	c3		 ret	 0
  00160	cc		 int	 3
  00161	cc		 int	 3
  00162	cc		 int	 3
  00163	cc		 int	 3
  00164	cc		 int	 3
__ehhandler$?GetSTMessageData@CDlgTrade@@QAEXXZ:
  00165	90		 npad	 1
  00166	90		 npad	 1
  00167	8b 54 24 08	 mov	 edx, DWORD PTR [esp+8]
  0016b	8d 42 0c	 lea	 eax, DWORD PTR [edx+12]
  0016e	8b 8a 0c ff ff
	ff		 mov	 ecx, DWORD PTR [edx-244]
  00174	33 c8		 xor	 ecx, eax
  00176	e8 00 00 00 00	 call	 @__security_check_cookie@4
  0017b	8b 4a fc	 mov	 ecx, DWORD PTR [edx-4]
  0017e	33 c8		 xor	 ecx, eax
  00180	e8 00 00 00 00	 call	 @__security_check_cookie@4
  00185	b8 00 00 00 00	 mov	 eax, OFFSET __ehfuncinfo$?GetSTMessageData@CDlgTrade@@QAEXXZ
  0018a	e9 00 00 00 00	 jmp	 ___CxxFrameHandler3
text$x	ENDS
?GetSTMessageData@CDlgTrade@@QAEXXZ ENDP		; CDlgTrade::GetSTMessageData
; Function compile flags: /Ogtp
; File D:\git\src\IBK\IBK_DRFN\ProjSrc\SrcDrfn\Chart\INDEXOPTIMIZER\DlgTrade.cpp
;	COMDAT ?OpenWebView@CDlgTrade@@QAEXV?$CStringT@DV?$StrTraitMFC_DLL@DV?$ChTraitsCRT@D@ATL@@@@@ATL@@@Z
_TEXT	SEGMENT
_FileName$ = 8						; size = 4
?OpenWebView@CDlgTrade@@QAEXV?$CStringT@DV?$StrTraitMFC_DLL@DV?$ChTraitsCRT@D@ATL@@@@@ATL@@@Z PROC ; CDlgTrade::OpenWebView, COMDAT
; _this$ = ecx

; 442  : {

  00000	55		 push	 ebp
  00001	8b ec		 mov	 ebp, esp

; 443  : 
; 444  : }

  00003	8d 4d 08	 lea	 ecx, DWORD PTR _FileName$[ebp]
  00006	ff 15 00 00 00
	00		 call	 DWORD PTR __imp_??1?$CStringT@DV?$StrTraitMFC_DLL@DV?$ChTraitsCRT@D@ATL@@@@@ATL@@QAE@XZ
  0000c	5d		 pop	 ebp
  0000d	c2 04 00	 ret	 4
?OpenWebView@CDlgTrade@@QAEXV?$CStringT@DV?$StrTraitMFC_DLL@DV?$ChTraitsCRT@D@ATL@@@@@ATL@@@Z ENDP ; CDlgTrade::OpenWebView
_TEXT	ENDS
; Function compile flags: /Ogtp
; File D:\git\src\IBK\IBK_DRFN\ProjSrc\SrcDrfn\Chart\INDEXOPTIMIZER\DlgTrade.cpp
;	COMDAT ?SetDataDir@CDlgTrade@@QAEXV?$CStringT@DV?$StrTraitMFC_DLL@DV?$ChTraitsCRT@D@ATL@@@@@ATL@@@Z
_TEXT	SEGMENT
__$EHRec$ = -12						; size = 12
_DataDir$ = 8						; size = 4
?SetDataDir@CDlgTrade@@QAEXV?$CStringT@DV?$StrTraitMFC_DLL@DV?$ChTraitsCRT@D@ATL@@@@@ATL@@@Z PROC ; CDlgTrade::SetDataDir, COMDAT
; _this$ = ecx

; 470  : {

  00000	55		 push	 ebp
  00001	8b ec		 mov	 ebp, esp
  00003	6a ff		 push	 -1
  00005	68 00 00 00 00	 push	 __ehhandler$?SetDataDir@CDlgTrade@@QAEXV?$CStringT@DV?$StrTraitMFC_DLL@DV?$ChTraitsCRT@D@ATL@@@@@ATL@@@Z
  0000a	64 a1 00 00 00
	00		 mov	 eax, DWORD PTR fs:0
  00010	50		 push	 eax
  00011	a1 00 00 00 00	 mov	 eax, DWORD PTR ___security_cookie
  00016	33 c5		 xor	 eax, ebp
  00018	50		 push	 eax
  00019	8d 45 f4	 lea	 eax, DWORD PTR __$EHRec$[ebp]
  0001c	64 a3 00 00 00
	00		 mov	 DWORD PTR fs:0, eax

; 471  : 	m_strDir = DataDir;

  00022	8d 45 08	 lea	 eax, DWORD PTR _DataDir$[ebp]
  00025	c7 45 fc 00 00
	00 00		 mov	 DWORD PTR __$EHRec$[ebp+8], 0
  0002c	50		 push	 eax
  0002d	81 c1 c0 00 00
	00		 add	 ecx, 192		; 000000c0H
  00033	ff 15 00 00 00
	00		 call	 DWORD PTR __imp_??4?$CStringT@DV?$StrTraitMFC_DLL@DV?$ChTraitsCRT@D@ATL@@@@@ATL@@QAEAAV01@ABV01@@Z

; 472  : }

  00039	8d 4d 08	 lea	 ecx, DWORD PTR _DataDir$[ebp]
  0003c	ff 15 00 00 00
	00		 call	 DWORD PTR __imp_??1?$CStringT@DV?$StrTraitMFC_DLL@DV?$ChTraitsCRT@D@ATL@@@@@ATL@@QAE@XZ
  00042	8b 4d f4	 mov	 ecx, DWORD PTR __$EHRec$[ebp]
  00045	64 89 0d 00 00
	00 00		 mov	 DWORD PTR fs:0, ecx
  0004c	59		 pop	 ecx
  0004d	8b e5		 mov	 esp, ebp
  0004f	5d		 pop	 ebp
  00050	c2 04 00	 ret	 4
_TEXT	ENDS
;	COMDAT text$x
text$x	SEGMENT
__unwindfunclet$?SetDataDir@CDlgTrade@@QAEXV?$CStringT@DV?$StrTraitMFC_DLL@DV?$ChTraitsCRT@D@ATL@@@@@ATL@@@Z$0:
  00000	8d 4d 08	 lea	 ecx, DWORD PTR _DataDir$[ebp]
  00003	ff 25 00 00 00
	00		 jmp	 DWORD PTR __imp_??1?$CStringT@DV?$StrTraitMFC_DLL@DV?$ChTraitsCRT@D@ATL@@@@@ATL@@QAE@XZ
  00009	cc		 int	 3
  0000a	cc		 int	 3
  0000b	cc		 int	 3
  0000c	cc		 int	 3
  0000d	cc		 int	 3
__ehhandler$?SetDataDir@CDlgTrade@@QAEXV?$CStringT@DV?$StrTraitMFC_DLL@DV?$ChTraitsCRT@D@ATL@@@@@ATL@@@Z:
  0000e	90		 npad	 1
  0000f	90		 npad	 1
  00010	8b 54 24 08	 mov	 edx, DWORD PTR [esp+8]
  00014	8d 42 0c	 lea	 eax, DWORD PTR [edx+12]
  00017	8b 4a fc	 mov	 ecx, DWORD PTR [edx-4]
  0001a	33 c8		 xor	 ecx, eax
  0001c	e8 00 00 00 00	 call	 @__security_check_cookie@4
  00021	b8 00 00 00 00	 mov	 eax, OFFSET __ehfuncinfo$?SetDataDir@CDlgTrade@@QAEXV?$CStringT@DV?$StrTraitMFC_DLL@DV?$ChTraitsCRT@D@ATL@@@@@ATL@@@Z
  00026	e9 00 00 00 00	 jmp	 ___CxxFrameHandler3
text$x	ENDS
?SetDataDir@CDlgTrade@@QAEXV?$CStringT@DV?$StrTraitMFC_DLL@DV?$ChTraitsCRT@D@ATL@@@@@ATL@@@Z ENDP ; CDlgTrade::SetDataDir
; Function compile flags: /Ogtp
; File D:\git\src\IBK\IBK_DRFN\ProjSrc\SrcDrfn\Chart\INDEXOPTIMIZER\DlgTrade.cpp
;	COMDAT ?SetOptimizer@CDlgTrade@@QAEXPAVCDlgOptimizer@@@Z
_TEXT	SEGMENT
_Opt$ = 8						; size = 4
?SetOptimizer@CDlgTrade@@QAEXPAVCDlgOptimizer@@@Z PROC	; CDlgTrade::SetOptimizer, COMDAT
; _this$ = ecx

; 229  : {

  00000	55		 push	 ebp
  00001	8b ec		 mov	 ebp, esp

; 230  : 	m_pDlgOptimizer = Opt;

  00003	8b 45 08	 mov	 eax, DWORD PTR _Opt$[ebp]
  00006	89 81 ac 00 00
	00		 mov	 DWORD PTR [ecx+172], eax

; 231  : }

  0000c	5d		 pop	 ebp
  0000d	c2 04 00	 ret	 4
?SetOptimizer@CDlgTrade@@QAEXPAVCDlgOptimizer@@@Z ENDP	; CDlgTrade::SetOptimizer
_TEXT	ENDS
; Function compile flags: /Ogtp
; File D:\git\src\IBK\IBK_DRFN\ProjSrc\SrcDrfn\Chart\INDEXOPTIMIZER\DlgTrade.cpp
;	COMDAT ?SelectRunData@CDlgTrade@@QAEXV?$CStringT@DV?$StrTraitMFC_DLL@DV?$ChTraitsCRT@D@ATL@@@@@ATL@@@Z
_TEXT	SEGMENT
__$EHRec$ = -12						; size = 12
_pRunData$ = 8						; size = 4
?SelectRunData@CDlgTrade@@QAEXV?$CStringT@DV?$StrTraitMFC_DLL@DV?$ChTraitsCRT@D@ATL@@@@@ATL@@@Z PROC ; CDlgTrade::SelectRunData, COMDAT
; _this$ = ecx

; 235  : {

  00000	55		 push	 ebp
  00001	8b ec		 mov	 ebp, esp
  00003	6a ff		 push	 -1
  00005	68 00 00 00 00	 push	 __ehhandler$?SelectRunData@CDlgTrade@@QAEXV?$CStringT@DV?$StrTraitMFC_DLL@DV?$ChTraitsCRT@D@ATL@@@@@ATL@@@Z
  0000a	64 a1 00 00 00
	00		 mov	 eax, DWORD PTR fs:0
  00010	50		 push	 eax
  00011	56		 push	 esi
  00012	a1 00 00 00 00	 mov	 eax, DWORD PTR ___security_cookie
  00017	33 c5		 xor	 eax, ebp
  00019	50		 push	 eax
  0001a	8d 45 f4	 lea	 eax, DWORD PTR __$EHRec$[ebp]
  0001d	64 a3 00 00 00
	00		 mov	 DWORD PTR fs:0, eax
  00023	8b f1		 mov	 esi, ecx

; 236  : 	if(m_pStrategyItem == NULL) return;

  00025	83 be b8 00 00
	00 00		 cmp	 DWORD PTR [esi+184], 0
  0002c	c7 45 fc 00 00
	00 00		 mov	 DWORD PTR __$EHRec$[ebp+8], 0
  00033	74 1b		 je	 SHORT $LN5@SelectRunD

; 237  : 	
; 238  : 	m_pDlgOptimizer->SetSTMessageType(2);

  00035	8b 8e ac 00 00
	00		 mov	 ecx, DWORD PTR [esi+172]
  0003b	6a 02		 push	 2
  0003d	e8 00 00 00 00	 call	 ?SetSTMessageType@CDlgOptimizer@@QAEXF@Z ; CDlgOptimizer::SetSTMessageType

; 239  : 	m_pStrategyItem->Run(pRunData);

  00042	8b 8e b8 00 00
	00		 mov	 ecx, DWORD PTR [esi+184]
  00048	ff 75 08	 push	 DWORD PTR _pRunData$[ebp]
  0004b	8b 01		 mov	 eax, DWORD PTR [ecx]
  0004d	ff 50 18	 call	 DWORD PTR [eax+24]
$LN5@SelectRunD:

; 240  : }

  00050	8d 4d 08	 lea	 ecx, DWORD PTR _pRunData$[ebp]
  00053	ff 15 00 00 00
	00		 call	 DWORD PTR __imp_??1?$CStringT@DV?$StrTraitMFC_DLL@DV?$ChTraitsCRT@D@ATL@@@@@ATL@@QAE@XZ
  00059	8b 4d f4	 mov	 ecx, DWORD PTR __$EHRec$[ebp]
  0005c	64 89 0d 00 00
	00 00		 mov	 DWORD PTR fs:0, ecx
  00063	59		 pop	 ecx
  00064	5e		 pop	 esi
  00065	8b e5		 mov	 esp, ebp
  00067	5d		 pop	 ebp
  00068	c2 04 00	 ret	 4
_TEXT	ENDS
;	COMDAT text$x
text$x	SEGMENT
__unwindfunclet$?SelectRunData@CDlgTrade@@QAEXV?$CStringT@DV?$StrTraitMFC_DLL@DV?$ChTraitsCRT@D@ATL@@@@@ATL@@@Z$0:
  00000	8d 4d 08	 lea	 ecx, DWORD PTR _pRunData$[ebp]
  00003	ff 25 00 00 00
	00		 jmp	 DWORD PTR __imp_??1?$CStringT@DV?$StrTraitMFC_DLL@DV?$ChTraitsCRT@D@ATL@@@@@ATL@@QAE@XZ
  00009	cc		 int	 3
  0000a	cc		 int	 3
  0000b	cc		 int	 3
  0000c	cc		 int	 3
  0000d	cc		 int	 3
__ehhandler$?SelectRunData@CDlgTrade@@QAEXV?$CStringT@DV?$StrTraitMFC_DLL@DV?$ChTraitsCRT@D@ATL@@@@@ATL@@@Z:
  0000e	90		 npad	 1
  0000f	90		 npad	 1
  00010	8b 54 24 08	 mov	 edx, DWORD PTR [esp+8]
  00014	8d 42 0c	 lea	 eax, DWORD PTR [edx+12]
  00017	8b 4a f8	 mov	 ecx, DWORD PTR [edx-8]
  0001a	33 c8		 xor	 ecx, eax
  0001c	e8 00 00 00 00	 call	 @__security_check_cookie@4
  00021	b8 00 00 00 00	 mov	 eax, OFFSET __ehfuncinfo$?SelectRunData@CDlgTrade@@QAEXV?$CStringT@DV?$StrTraitMFC_DLL@DV?$ChTraitsCRT@D@ATL@@@@@ATL@@@Z
  00026	e9 00 00 00 00	 jmp	 ___CxxFrameHandler3
text$x	ENDS
?SelectRunData@CDlgTrade@@QAEXV?$CStringT@DV?$StrTraitMFC_DLL@DV?$ChTraitsCRT@D@ATL@@@@@ATL@@@Z ENDP ; CDlgTrade::SelectRunData
; Function compile flags: /Ogtp
; File D:\git\src\IBK\IBK_DRFN\ProjSrc\SrcDrfn\Chart\INDEXOPTIMIZER\DlgTrade.cpp
;	COMDAT ?SetStrategyItem@CDlgTrade@@QAEXPAVCIStrategyItem0001@@@Z
_TEXT	SEGMENT
_pStrat$ = 8						; size = 4
?SetStrategyItem@CDlgTrade@@QAEXPAVCIStrategyItem0001@@@Z PROC ; CDlgTrade::SetStrategyItem, COMDAT
; _this$ = ecx

; 225  : {

  00000	55		 push	 ebp
  00001	8b ec		 mov	 ebp, esp

; 226  : 	m_pStrategyItem = pStrat;

  00003	8b 45 08	 mov	 eax, DWORD PTR _pStrat$[ebp]
  00006	89 81 b8 00 00
	00		 mov	 DWORD PTR [ecx+184], eax

; 227  : }

  0000c	5d		 pop	 ebp
  0000d	c2 04 00	 ret	 4
?SetStrategyItem@CDlgTrade@@QAEXPAVCIStrategyItem0001@@@Z ENDP ; CDlgTrade::SetStrategyItem
_TEXT	ENDS
; Function compile flags: /Ogtp
; File D:\git\src\IBK\IBK_DRFN\ProjSrc\SrcDrfn\Chart\INDEXOPTIMIZER\DlgTrade.cpp
; File C:\Program Files (x86)\Microsoft Visual Studio\2019\Community\VC\Tools\MSVC\14.29.30133\atlmfc\include\cstringt.h
; File D:\git\src\IBK\IBK_DRFN\ProjSrc\SrcDrfn\Chart\INDEXOPTIMIZER\DlgTrade.cpp
; File C:\Program Files (x86)\Microsoft Visual Studio\2019\Community\VC\Tools\MSVC\14.29.30133\atlmfc\include\cstringt.h
; File D:\git\src\IBK\IBK_DRFN\ProjSrc\SrcDrfn\Chart\INDEXOPTIMIZER\DlgTrade.cpp
; File C:\Program Files (x86)\Microsoft Visual Studio\2019\Community\VC\Tools\MSVC\14.29.30133\atlmfc\include\cstringt.h
; File C:\Program Files (x86)\Microsoft Visual Studio\2019\Community\VC\Tools\MSVC\14.29.30133\atlmfc\include\atlsimpstr.h
; File C:\Program Files (x86)\Microsoft Visual Studio\2019\Community\VC\Tools\MSVC\14.29.30133\atlmfc\include\cstringt.h
; File D:\git\src\IBK\IBK_DRFN\ProjSrc\SrcDrfn\Chart\INDEXOPTIMIZER\DlgTrade.cpp
;	COMDAT ?InitHtml@CDlgTrade@@QAEXXZ
_TEXT	SEGMENT
_DefaultFile$ = -48					; size = 24
$T2 = -24						; size = 4
$T3 = -20						; size = 4
_str$ = -16						; size = 4
__$EHRec$ = -12						; size = 12
?InitHtml@CDlgTrade@@QAEXXZ PROC			; CDlgTrade::InitHtml, COMDAT
; _this$ = ecx

; 448  : {

  00000	55		 push	 ebp
  00001	8b ec		 mov	 ebp, esp
  00003	6a ff		 push	 -1
  00005	68 00 00 00 00	 push	 __ehhandler$?InitHtml@CDlgTrade@@QAEXXZ
  0000a	64 a1 00 00 00
	00		 mov	 eax, DWORD PTR fs:0
  00010	50		 push	 eax
  00011	83 ec 24	 sub	 esp, 36			; 00000024H
  00014	56		 push	 esi
  00015	57		 push	 edi
  00016	a1 00 00 00 00	 mov	 eax, DWORD PTR ___security_cookie
  0001b	33 c5		 xor	 eax, ebp
  0001d	50		 push	 eax
  0001e	8d 45 f4	 lea	 eax, DWORD PTR __$EHRec$[ebp]
  00021	64 a3 00 00 00
	00		 mov	 DWORD PTR fs:0, eax
  00027	8b f1		 mov	 esi, ecx

; 449  : 	if(m_strHtml!="")return;

  00029	8d be bc 00 00
	00		 lea	 edi, DWORD PTR [esi+188]
  0002f	c7 45 e8 00 00
	00 00		 mov	 DWORD PTR $T2[ebp], 0
; File C:\Program Files (x86)\Microsoft Visual Studio\2019\Community\VC\Tools\MSVC\14.29.30133\atlmfc\include\cstringt.h

; 2567 : 		return( str1.Compare( psz2 ) != 0 );

  00036	68 00 00 00 00	 push	 OFFSET ??_C@_00CNPNBAHC@@
  0003b	8b cf		 mov	 ecx, edi
  0003d	ff 15 00 00 00
	00		 call	 DWORD PTR __imp_?Compare@?$CStringT@DV?$StrTraitMFC_DLL@DV?$ChTraitsCRT@D@ATL@@@@@ATL@@QBEHPBD@Z
  00043	85 c0		 test	 eax, eax
; File D:\git\src\IBK\IBK_DRFN\ProjSrc\SrcDrfn\Chart\INDEXOPTIMIZER\DlgTrade.cpp

; 449  : 	if(m_strHtml!="")return;

  00045	0f 85 de 00 00
	00		 jne	 $LN1@InitHtml

; 450  : 	CStdioFile DefaultFile;

  0004b	8d 4d d0	 lea	 ecx, DWORD PTR _DefaultFile$[ebp]
  0004e	e8 00 00 00 00	 call	 ??0CStdioFile@@QAE@XZ	; CStdioFile::CStdioFile

; 451  : 	CString str;

  00053	8d 4d f0	 lea	 ecx, DWORD PTR _str$[ebp]
  00056	c7 45 fc 00 00
	00 00		 mov	 DWORD PTR __$EHRec$[ebp+8], 0
  0005d	ff 15 00 00 00
	00		 call	 DWORD PTR __imp_??0?$CStringT@DV?$StrTraitMFC_DLL@DV?$ChTraitsCRT@D@ATL@@@@@ATL@@QAE@XZ
; File C:\Program Files (x86)\Microsoft Visual Studio\2019\Community\VC\Tools\MSVC\14.29.30133\atlmfc\include\cstringt.h

; 2401 : 		CStringT strResult( str1.GetManager() );

  00063	8d 8e c0 00 00
	00		 lea	 ecx, DWORD PTR [esi+192]
; File D:\git\src\IBK\IBK_DRFN\ProjSrc\SrcDrfn\Chart\INDEXOPTIMIZER\DlgTrade.cpp

; 453  : 	if(!DefaultFile.Open(m_strDir+"\\IOTrade.htm",CFile::modeRead))

  00069	c6 45 fc 02	 mov	 BYTE PTR __$EHRec$[ebp+8], 2
; File C:\Program Files (x86)\Microsoft Visual Studio\2019\Community\VC\Tools\MSVC\14.29.30133\atlmfc\include\cstringt.h

; 2401 : 		CStringT strResult( str1.GetManager() );

  0006d	ff 15 00 00 00
	00		 call	 DWORD PTR __imp_?GetManager@?$CStringT@DV?$StrTraitMFC_DLL@DV?$ChTraitsCRT@D@ATL@@@@@ATL@@QBEPAUIAtlStringMgr@2@XZ
  00073	50		 push	 eax
  00074	8d 4d ec	 lea	 ecx, DWORD PTR $T3[ebp]
  00077	ff 15 00 00 00
	00		 call	 DWORD PTR __imp_??0?$CStringT@DV?$StrTraitMFC_DLL@DV?$ChTraitsCRT@D@ATL@@@@@ATL@@QAE@PAUIAtlStringMgr@1@@Z
; File C:\Program Files (x86)\Microsoft Visual Studio\2019\Community\VC\Tools\MSVC\14.29.30133\atlmfc\include\atlsimpstr.h

; 519  : 		return( GetData()->nDataLength );

  0007d	8b 86 c0 00 00
	00		 mov	 eax, DWORD PTR [esi+192]
; File C:\Program Files (x86)\Microsoft Visual Studio\2019\Community\VC\Tools\MSVC\14.29.30133\atlmfc\include\cstringt.h

; 2403 : 		CThisSimpleString::Concatenate( strResult, str1, str1.GetLength(), psz2, CThisSimpleString::StringLength( psz2 ) );

  00083	6a 0c		 push	 12			; 0000000cH
  00085	68 00 00 00 00	 push	 OFFSET ??_C@_0N@NNCCFHAL@?2IOTrade?4htm@

; 2404 : 
; 2405 : 		return( strResult );

  0008a	c7 45 e8 01 00
	00 00		 mov	 DWORD PTR $T2[ebp], 1
  00091	ff 70 f4	 push	 DWORD PTR [eax-12]
  00094	50		 push	 eax
  00095	8d 45 ec	 lea	 eax, DWORD PTR $T3[ebp]
  00098	50		 push	 eax
  00099	ff 15 00 00 00
	00		 call	 DWORD PTR __imp_?Concatenate@?$CSimpleStringT@D$00@ATL@@KAXAAV12@PBDH1H@Z
  0009f	83 c4 14	 add	 esp, 20			; 00000014H
; File D:\git\src\IBK\IBK_DRFN\ProjSrc\SrcDrfn\Chart\INDEXOPTIMIZER\DlgTrade.cpp

; 453  : 	if(!DefaultFile.Open(m_strDir+"\\IOTrade.htm",CFile::modeRead))

  000a2	8d 4d d0	 lea	 ecx, DWORD PTR _DefaultFile$[ebp]
  000a5	6a 00		 push	 0
  000a7	6a 00		 push	 0
  000a9	ff 75 ec	 push	 DWORD PTR $T3[ebp]
  000ac	e8 00 00 00 00	 call	 ?Open@CStdioFile@@UAEHPBDIPAVCFileException@@@Z ; CStdioFile::Open
  000b1	8d 4d ec	 lea	 ecx, DWORD PTR $T3[ebp]
  000b4	c6 45 fc 01	 mov	 BYTE PTR __$EHRec$[ebp+8], 1
  000b8	8b f0		 mov	 esi, eax
  000ba	ff 15 00 00 00
	00		 call	 DWORD PTR __imp_??1?$CStringT@DV?$StrTraitMFC_DLL@DV?$ChTraitsCRT@D@ATL@@@@@ATL@@QAE@XZ
  000c0	85 f6		 test	 esi, esi
  000c2	75 0e		 jne	 SHORT $LN6@InitHtml

; 454  : 	{
; 455  : 		AfxMessageBox("Do Not Create IndexOptimizer.htm File.");

  000c4	56		 push	 esi
  000c5	56		 push	 esi
  000c6	68 00 00 00 00	 push	 OFFSET ??_C@_0CH@KHGIOIFG@Do?5Not?5Create?5IndexOptimizer?4ht@
  000cb	e8 00 00 00 00	 call	 ?AfxMessageBox@@YGHPBDII@Z ; AfxMessageBox
  000d0	eb 46		 jmp	 SHORT $LN13@InitHtml
$LN6@InitHtml:

; 456  : 		return;
; 457  : 	}
; 458  : 
; 459  : 	for(;;){
; 460  : 		if(DefaultFile.ReadString(str))

  000d2	8d 45 f0	 lea	 eax, DWORD PTR _str$[ebp]
  000d5	50		 push	 eax
  000d6	8d 4d d0	 lea	 ecx, DWORD PTR _DefaultFile$[ebp]
  000d9	e8 00 00 00 00	 call	 ?ReadString@CStdioFile@@UAEHAAV?$CStringT@DV?$StrTraitMFC_DLL@DV?$ChTraitsCRT@D@ATL@@@@@ATL@@@Z ; CStdioFile::ReadString
  000de	85 c0		 test	 eax, eax
  000e0	74 1c		 je	 SHORT $LN7@InitHtml
$LL2@InitHtml:

; 461  : 			m_strHtml+=str;

  000e2	8d 45 f0	 lea	 eax, DWORD PTR _str$[ebp]
  000e5	8b cf		 mov	 ecx, edi
  000e7	50		 push	 eax
  000e8	ff 15 00 00 00
	00		 call	 DWORD PTR __imp_??Y?$CStringT@DV?$StrTraitMFC_DLL@DV?$ChTraitsCRT@D@ATL@@@@@ATL@@QAEAAV01@ABV?$CSimpleStringT@D$00@1@@Z
  000ee	8d 45 f0	 lea	 eax, DWORD PTR _str$[ebp]
  000f1	50		 push	 eax
  000f2	8d 4d d0	 lea	 ecx, DWORD PTR _DefaultFile$[ebp]
  000f5	e8 00 00 00 00	 call	 ?ReadString@CStdioFile@@UAEHAAV?$CStringT@DV?$StrTraitMFC_DLL@DV?$ChTraitsCRT@D@ATL@@@@@ATL@@@Z ; CStdioFile::ReadString
  000fa	85 c0		 test	 eax, eax
  000fc	75 e4		 jne	 SHORT $LL2@InitHtml
$LN7@InitHtml:

; 462  : 		else
; 463  : 			break;
; 464  : 	}
; 465  : 	m_strHtml.Replace("white", "Black");

  000fe	68 00 00 00 00	 push	 OFFSET ??_C@_05BPGNDIAE@Black@
  00103	68 00 00 00 00	 push	 OFFSET ??_C@_05PMAELIEO@white@
  00108	8b cf		 mov	 ecx, edi
  0010a	ff 15 00 00 00
	00		 call	 DWORD PTR __imp_?Replace@?$CStringT@DV?$StrTraitMFC_DLL@DV?$ChTraitsCRT@D@ATL@@@@@ATL@@QAEHPBD0@Z

; 466  : 	DefaultFile.Close();

  00110	8d 4d d0	 lea	 ecx, DWORD PTR _DefaultFile$[ebp]
  00113	e8 00 00 00 00	 call	 ?Close@CStdioFile@@UAEXXZ ; CStdioFile::Close
$LN13@InitHtml:

; 467  : }

  00118	8d 4d f0	 lea	 ecx, DWORD PTR _str$[ebp]
  0011b	ff 15 00 00 00
	00		 call	 DWORD PTR __imp_??1?$CStringT@DV?$StrTraitMFC_DLL@DV?$ChTraitsCRT@D@ATL@@@@@ATL@@QAE@XZ
  00121	8d 4d d0	 lea	 ecx, DWORD PTR _DefaultFile$[ebp]
  00124	e8 00 00 00 00	 call	 ??1CStdioFile@@UAE@XZ	; CStdioFile::~CStdioFile
$LN1@InitHtml:
  00129	8b 4d f4	 mov	 ecx, DWORD PTR __$EHRec$[ebp]
  0012c	64 89 0d 00 00
	00 00		 mov	 DWORD PTR fs:0, ecx
  00133	59		 pop	 ecx
  00134	5f		 pop	 edi
  00135	5e		 pop	 esi
  00136	8b e5		 mov	 esp, ebp
  00138	5d		 pop	 ebp
  00139	c3		 ret	 0
_TEXT	ENDS
;	COMDAT text$x
text$x	SEGMENT
__unwindfunclet$?InitHtml@CDlgTrade@@QAEXXZ$0:
  00000	8d 4d d0	 lea	 ecx, DWORD PTR _DefaultFile$[ebp]
  00003	e9 00 00 00 00	 jmp	 ??1CStdioFile@@UAE@XZ	; CStdioFile::~CStdioFile
__unwindfunclet$?InitHtml@CDlgTrade@@QAEXXZ$1:
  00008	8d 4d f0	 lea	 ecx, DWORD PTR _str$[ebp]
  0000b	ff 25 00 00 00
	00		 jmp	 DWORD PTR __imp_??1?$CStringT@DV?$StrTraitMFC_DLL@DV?$ChTraitsCRT@D@ATL@@@@@ATL@@QAE@XZ
__unwindfunclet$?InitHtml@CDlgTrade@@QAEXXZ$3:
  00011	8b 45 e8	 mov	 eax, DWORD PTR $T2[ebp]
  00014	83 e0 01	 and	 eax, 1
  00017	0f 84 0d 00 00
	00		 je	 $LN19@InitHtml
  0001d	83 65 e8 fe	 and	 DWORD PTR $T2[ebp], -2	; fffffffeH
  00021	8d 4d ec	 lea	 ecx, DWORD PTR $T3[ebp]
  00024	ff 25 00 00 00
	00		 jmp	 DWORD PTR __imp_??1?$CStringT@DV?$StrTraitMFC_DLL@DV?$ChTraitsCRT@D@ATL@@@@@ATL@@QAE@XZ
$LN19@InitHtml:
  0002a	c3		 ret	 0
  0002b	cc		 int	 3
  0002c	cc		 int	 3
  0002d	cc		 int	 3
  0002e	cc		 int	 3
  0002f	cc		 int	 3
__ehhandler$?InitHtml@CDlgTrade@@QAEXXZ:
  00030	90		 npad	 1
  00031	90		 npad	 1
  00032	8b 54 24 08	 mov	 edx, DWORD PTR [esp+8]
  00036	8d 42 0c	 lea	 eax, DWORD PTR [edx+12]
  00039	8b 4a d0	 mov	 ecx, DWORD PTR [edx-48]
  0003c	33 c8		 xor	 ecx, eax
  0003e	e8 00 00 00 00	 call	 @__security_check_cookie@4
  00043	b8 00 00 00 00	 mov	 eax, OFFSET __ehfuncinfo$?InitHtml@CDlgTrade@@QAEXXZ
  00048	e9 00 00 00 00	 jmp	 ___CxxFrameHandler3
text$x	ENDS
?InitHtml@CDlgTrade@@QAEXXZ ENDP			; CDlgTrade::InitHtml
; Function compile flags: /Ogtp
; File D:\git\src\IBK\IBK_DRFN\ProjSrc\SrcDrfn\Chart\INDEXOPTIMIZER\DlgTrade.cpp
;	COMDAT ?GetMessageMap@CDlgTrade@@MBEPBUAFX_MSGMAP@@XZ
_TEXT	SEGMENT
?GetMessageMap@CDlgTrade@@MBEPBUAFX_MSGMAP@@XZ PROC	; CDlgTrade::GetMessageMap, COMDAT
; _this$ = ecx

; 37   : BEGIN_MESSAGE_MAP(CDlgTrade, CDlgInterface)

  00000	b8 00 00 00 00	 mov	 eax, OFFSET ?messageMap@?1??GetThisMessageMap@CDlgTrade@@KGPBUAFX_MSGMAP@@XZ@4U3@B
  00005	c3		 ret	 0
?GetMessageMap@CDlgTrade@@MBEPBUAFX_MSGMAP@@XZ ENDP	; CDlgTrade::GetMessageMap
_TEXT	ENDS
; Function compile flags: /Ogtp
; File D:\git\src\IBK\IBK_DRFN\ProjSrc\SrcDrfn\Chart\INDEXOPTIMIZER\DlgTrade.cpp
;	COMDAT ?GetThisMessageMap@CDlgTrade@@KGPBUAFX_MSGMAP@@XZ
_TEXT	SEGMENT
?GetThisMessageMap@CDlgTrade@@KGPBUAFX_MSGMAP@@XZ PROC	; CDlgTrade::GetThisMessageMap, COMDAT

; 38   : 	//{{AFX_MSG_MAP(CDlgTrade)
; 39   : 	ON_WM_DESTROY()
; 40   : 	//}}AFX_MSG_MAP
; 41   : 
; 42   : END_MESSAGE_MAP()

  00000	b8 00 00 00 00	 mov	 eax, OFFSET ?messageMap@?1??GetThisMessageMap@CDlgTrade@@KGPBUAFX_MSGMAP@@XZ@4U3@B
  00005	c3		 ret	 0
?GetThisMessageMap@CDlgTrade@@KGPBUAFX_MSGMAP@@XZ ENDP	; CDlgTrade::GetThisMessageMap
_TEXT	ENDS
; Function compile flags: /Ogtp
; File D:\git\src\IBK\IBK_DRFN\ProjSrc\SrcDrfn\Chart\INDEXOPTIMIZER\DlgTrade.cpp
;	COMDAT ?OnDestroy@CDlgTrade@@IAEXXZ
_TEXT	SEGMENT
?OnDestroy@CDlgTrade@@IAEXXZ PROC			; CDlgTrade::OnDestroy, COMDAT
; _this$ = ecx

; 552  : 	CDlgInterface::OnDestroy();

  00000	e9 00 00 00 00	 jmp	 ?OnDestroy@CWnd@@IAEXXZ	; CWnd::OnDestroy
?OnDestroy@CDlgTrade@@IAEXXZ ENDP			; CDlgTrade::OnDestroy
_TEXT	ENDS
; Function compile flags: /Ogtp
; File D:\git\src\IBK\IBK_DRFN\ProjSrc\SrcDrfn\Chart\INDEXOPTIMIZER\DlgTrade.cpp
;	COMDAT ?OnInitDialog@CDlgTrade@@MAEHXZ
_TEXT	SEGMENT
?OnInitDialog@CDlgTrade@@MAEHXZ PROC			; CDlgTrade::OnInitDialog, COMDAT
; _this$ = ecx

; 48   : {

  00000	56		 push	 esi
  00001	8b f1		 mov	 esi, ecx

; 49   : 	CDlgInterface::OnInitDialog();

  00003	e8 00 00 00 00	 call	 ?OnInitDialog@CDialog@@UAEHXZ ; CDialog::OnInitDialog

; 50   : 	
; 51   : 	// TODO: Add extra initialization here
; 52   : 	InitGrid();

  00008	8b ce		 mov	 ecx, esi
  0000a	e8 00 00 00 00	 call	 ?InitGrid@CDlgTrade@@QAEXXZ ; CDlgTrade::InitGrid

; 53   : 	return TRUE;  // return TRUE unless you set the focus to a control

  0000f	b8 01 00 00 00	 mov	 eax, 1
  00014	5e		 pop	 esi

; 54   : 	              // EXCEPTION: OCX Property Pages should return FALSE
; 55   : }

  00015	c3		 ret	 0
?OnInitDialog@CDlgTrade@@MAEHXZ ENDP			; CDlgTrade::OnInitDialog
_TEXT	ENDS
; Function compile flags: /Ogtp
; File D:\git\src\IBK\IBK_DRFN\ProjSrc\SrcDrfn\Chart\INDEXOPTIMIZER\DlgTrade.cpp
;	COMDAT ?DoDataExchange@CDlgTrade@@MAEXPAVCDataExchange@@@Z
_TEXT	SEGMENT
_pDX$ = 8						; size = 4
?DoDataExchange@CDlgTrade@@MAEXPAVCDataExchange@@@Z PROC ; CDlgTrade::DoDataExchange, COMDAT
; _this$ = ecx

; 29   : {

  00000	55		 push	 ebp
  00001	8b ec		 mov	 ebp, esp

; 31   : 	//{{AFX_DATA_MAP(CDlgTrade)
; 32   : 	// NOTE: the ClassWizard will add DDX and DDV calls here
; 33   : 	//}}AFX_DATA_MAP
; 34   : }

  00003	5d		 pop	 ebp

; 30   : 	CDlgInterface::DoDataExchange(pDX);

  00004	e9 00 00 00 00	 jmp	 ?DoDataExchange@CDlgInterface@@MAEXPAVCDataExchange@@@Z ; CDlgInterface::DoDataExchange
?DoDataExchange@CDlgTrade@@MAEXPAVCDataExchange@@@Z ENDP ; CDlgTrade::DoDataExchange
_TEXT	ENDS
; Function compile flags: /Ogtp
; File D:\git\src\IBK\IBK_DRFN\ProjSrc\SrcDrfn\Chart\INDEXOPTIMIZER\DlgTrade.cpp
;	COMDAT ??0CDlgTrade@@QAE@PAVCWnd@@@Z
_TEXT	SEGMENT
_this$ = -16						; size = 4
__$EHRec$ = -12						; size = 12
_pParent$ = 8						; size = 4
??0CDlgTrade@@QAE@PAVCWnd@@@Z PROC			; CDlgTrade::CDlgTrade, COMDAT
; _this$ = ecx

; 19   : {

  00000	55		 push	 ebp
  00001	8b ec		 mov	 ebp, esp
  00003	6a ff		 push	 -1
  00005	68 00 00 00 00	 push	 __ehhandler$??0CDlgTrade@@QAE@PAVCWnd@@@Z
  0000a	64 a1 00 00 00
	00		 mov	 eax, DWORD PTR fs:0
  00010	50		 push	 eax
  00011	51		 push	 ecx
  00012	56		 push	 esi
  00013	a1 00 00 00 00	 mov	 eax, DWORD PTR ___security_cookie
  00018	33 c5		 xor	 eax, ebp
  0001a	50		 push	 eax
  0001b	8d 45 f4	 lea	 eax, DWORD PTR __$EHRec$[ebp]
  0001e	64 a3 00 00 00
	00		 mov	 DWORD PTR fs:0, eax
  00024	8b f1		 mov	 esi, ecx
  00026	89 75 f0	 mov	 DWORD PTR _this$[ebp], esi

; 18   : 	: CDlgInterface(CDlgTrade::IDD, pParent)

  00029	ff 75 08	 push	 DWORD PTR _pParent$[ebp]
  0002c	68 c9 32 00 00	 push	 13001			; 000032c9H
  00031	e8 00 00 00 00	 call	 ??0CDlgInterface@@QAE@IPAVCWnd@@@Z ; CDlgInterface::CDlgInterface

; 19   : {

  00036	8d 8e bc 00 00
	00		 lea	 ecx, DWORD PTR [esi+188]
  0003c	c7 45 fc 00 00
	00 00		 mov	 DWORD PTR __$EHRec$[ebp+8], 0
  00043	c7 06 00 00 00
	00		 mov	 DWORD PTR [esi], OFFSET ??_7CDlgTrade@@6B@
  00049	ff 15 00 00 00
	00		 call	 DWORD PTR __imp_??0?$CStringT@DV?$StrTraitMFC_DLL@DV?$ChTraitsCRT@D@ATL@@@@@ATL@@QAE@XZ
  0004f	8d 8e c0 00 00
	00		 lea	 ecx, DWORD PTR [esi+192]
  00055	ff 15 00 00 00
	00		 call	 DWORD PTR __imp_??0?$CStringT@DV?$StrTraitMFC_DLL@DV?$ChTraitsCRT@D@ATL@@@@@ATL@@QAE@XZ
  0005b	6a 00		 push	 0
  0005d	6a 00		 push	 0
  0005f	6a 00		 push	 0
  00061	6a 00		 push	 0
  00063	8d 8e c8 00 00
	00		 lea	 ecx, DWORD PTR [esi+200]
  00069	c6 45 fc 02	 mov	 BYTE PTR __$EHRec$[ebp+8], 2
  0006d	e8 00 00 00 00	 call	 ??0CGridCtrl@@QAE@HHHH@Z ; CGridCtrl::CGridCtrl

; 20   : 	//{{AFX_DATA_INIT(CDlgTrade)
; 21   : 		// NOTE: the ClassWizard will add member initialization here
; 22   : 	//}}AFX_DATA_INIT
; 23   : 	m_pStrategyItem = NULL;

  00072	c7 86 b8 00 00
	00 00 00 00 00	 mov	 DWORD PTR [esi+184], 0

; 24   : 	m_pFont = NULL;
; 25   : }

  0007c	8b c6		 mov	 eax, esi
  0007e	c7 86 58 05 00
	00 00 00 00 00	 mov	 DWORD PTR [esi+1368], 0
  00088	8b 4d f4	 mov	 ecx, DWORD PTR __$EHRec$[ebp]
  0008b	64 89 0d 00 00
	00 00		 mov	 DWORD PTR fs:0, ecx
  00092	59		 pop	 ecx
  00093	5e		 pop	 esi
  00094	8b e5		 mov	 esp, ebp
  00096	5d		 pop	 ebp
  00097	c2 04 00	 ret	 4
_TEXT	ENDS
;	COMDAT text$x
text$x	SEGMENT
__unwindfunclet$??0CDlgTrade@@QAE@PAVCWnd@@@Z$0:
  00000	8b 4d f0	 mov	 ecx, DWORD PTR _this$[ebp]
  00003	e9 00 00 00 00	 jmp	 ??1CDlgInterface@@UAE@XZ
__unwindfunclet$??0CDlgTrade@@QAE@PAVCWnd@@@Z$1:
  00008	8b 4d f0	 mov	 ecx, DWORD PTR _this$[ebp]
  0000b	81 c1 bc 00 00
	00		 add	 ecx, 188		; 000000bcH
  00011	ff 25 00 00 00
	00		 jmp	 DWORD PTR __imp_??1?$CStringT@DV?$StrTraitMFC_DLL@DV?$ChTraitsCRT@D@ATL@@@@@ATL@@QAE@XZ
__unwindfunclet$??0CDlgTrade@@QAE@PAVCWnd@@@Z$2:
  00017	8b 4d f0	 mov	 ecx, DWORD PTR _this$[ebp]
  0001a	81 c1 c0 00 00
	00		 add	 ecx, 192		; 000000c0H
  00020	ff 25 00 00 00
	00		 jmp	 DWORD PTR __imp_??1?$CStringT@DV?$StrTraitMFC_DLL@DV?$ChTraitsCRT@D@ATL@@@@@ATL@@QAE@XZ
  00026	cc		 int	 3
  00027	cc		 int	 3
  00028	cc		 int	 3
  00029	cc		 int	 3
  0002a	cc		 int	 3
__ehhandler$??0CDlgTrade@@QAE@PAVCWnd@@@Z:
  0002b	90		 npad	 1
  0002c	90		 npad	 1
  0002d	8b 54 24 08	 mov	 edx, DWORD PTR [esp+8]
  00031	8d 42 0c	 lea	 eax, DWORD PTR [edx+12]
  00034	8b 4a f4	 mov	 ecx, DWORD PTR [edx-12]
  00037	33 c8		 xor	 ecx, eax
  00039	e8 00 00 00 00	 call	 @__security_check_cookie@4
  0003e	b8 00 00 00 00	 mov	 eax, OFFSET __ehfuncinfo$??0CDlgTrade@@QAE@PAVCWnd@@@Z
  00043	e9 00 00 00 00	 jmp	 ___CxxFrameHandler3
text$x	ENDS
??0CDlgTrade@@QAE@PAVCWnd@@@Z ENDP			; CDlgTrade::CDlgTrade
; Function compile flags: /Ogtp
; File D:\git\src\IBK\IBK_DRFN\ProjSrc\SrcDrfn\Chart\Common_ST\STTreeCtrl.h
;	COMDAT ??__ERMSG_STTREE_ITEMDBLCLK@@YAXXZ
text$di	SEGMENT
??__ERMSG_STTREE_ITEMDBLCLK@@YAXXZ PROC			; `dynamic initializer for 'RMSG_STTREE_ITEMDBLCLK'', COMDAT

; 12   : const UINT RMSG_STTREE_ITEMDBLCLK	= ::RegisterWindowMessage("RMSG_STTREE_ITEMDBLCLK");

  00000	68 00 00 00 00	 push	 OFFSET ??_C@_0BH@LAAMLACL@RMSG_STTREE_ITEMDBLCLK@
  00005	ff 15 00 00 00
	00		 call	 DWORD PTR __imp__RegisterWindowMessageA@4
  0000b	a3 00 00 00 00	 mov	 DWORD PTR ?RMSG_STTREE_ITEMDBLCLK@@3IB, eax
  00010	c3		 ret	 0
??__ERMSG_STTREE_ITEMDBLCLK@@YAXXZ ENDP			; `dynamic initializer for 'RMSG_STTREE_ITEMDBLCLK''
text$di	ENDS
; Function compile flags: /Ogtp
; File D:\git\src\IBK\IBK_DRFN\ProjSrc\SrcDrfn\Chart\Common_ST\STTreeCtrl.h
;	COMDAT ??__ERMSG_STTREE_ITEMCLICK@@YAXXZ
text$di	SEGMENT
??__ERMSG_STTREE_ITEMCLICK@@YAXXZ PROC			; `dynamic initializer for 'RMSG_STTREE_ITEMCLICK'', COMDAT

; 11   : const UINT RMSG_STTREE_ITEMCLICK	= ::RegisterWindowMessage("RMSG_STTREE_ITEMCLICK");

  00000	68 00 00 00 00	 push	 OFFSET ??_C@_0BG@OHIMHJEO@RMSG_STTREE_ITEMCLICK@
  00005	ff 15 00 00 00
	00		 call	 DWORD PTR __imp__RegisterWindowMessageA@4
  0000b	a3 00 00 00 00	 mov	 DWORD PTR ?RMSG_STTREE_ITEMCLICK@@3IB, eax
  00010	c3		 ret	 0
??__ERMSG_STTREE_ITEMCLICK@@YAXXZ ENDP			; `dynamic initializer for 'RMSG_STTREE_ITEMCLICK''
text$di	ENDS
; Function compile flags: /Ogtp
; File C:\Program Files (x86)\Microsoft Visual Studio\2019\Community\VC\Tools\MSVC\14.29.30133\atlmfc\include\afxtempl.h
; File C:\Program Files (x86)\Microsoft Visual Studio\2019\Community\VC\Tools\MSVC\14.29.30133\atlmfc\include\afx.inl
;	COMDAT ??_G?$CArray@NN@@UAEPAXI@Z
_TEXT	SEGMENT
___flags$ = 8						; size = 4
??_G?$CArray@NN@@UAEPAXI@Z PROC				; CArray<double,double>::`scalar deleting destructor', COMDAT
; _this$ = ecx
  00000	55		 push	 ebp
  00001	8b ec		 mov	 ebp, esp
; File C:\Program Files (x86)\Microsoft Visual Studio\2019\Community\VC\Tools\MSVC\14.29.30133\atlmfc\include\afxtempl.h

; 355  : {

  00003	56		 push	 esi
  00004	8b f1		 mov	 esi, ecx

; 356  : 	ASSERT_VALID(this);
; 357  : 
; 358  : 	if (m_pData != NULL)

  00006	8b 46 04	 mov	 eax, DWORD PTR [esi+4]
  00009	c7 06 00 00 00
	00		 mov	 DWORD PTR [esi], OFFSET ??_7?$CArray@NN@@6B@
  0000f	85 c0		 test	 eax, eax
  00011	74 09		 je	 SHORT $LN11@scalar

; 359  : 	{
; 360  : 		for( int i = 0; i < m_nSize; i++ )
; 361  : 			(m_pData + i)->~TYPE();
; 362  : 		delete[] (BYTE*)m_pData;

  00013	50		 push	 eax
  00014	e8 00 00 00 00	 call	 ??_V@YAXPAX@Z		; operator delete[]
  00019	83 c4 04	 add	 esp, 4
$LN11@scalar:
  0001c	8b 45 08	 mov	 eax, DWORD PTR ___flags$[ebp]
  0001f	a8 01		 test	 al, 1
  00021	74 1f		 je	 SHORT $LN20@scalar
  00023	a8 04		 test	 al, 4
  00025	75 10		 jne	 SHORT $LN3@scalar
; File C:\Program Files (x86)\Microsoft Visual Studio\2019\Community\VC\Tools\MSVC\14.29.30133\atlmfc\include\afx.inl

; 112  : 	{ ::operator delete(p); }

  00027	56		 push	 esi
  00028	e8 00 00 00 00	 call	 ??3@YAXPAX@Z		; operator delete
  0002d	83 c4 04	 add	 esp, 4
  00030	8b c6		 mov	 eax, esi
  00032	5e		 pop	 esi
  00033	5d		 pop	 ebp
  00034	c2 04 00	 ret	 4
$LN3@scalar:
  00037	6a 14		 push	 20			; 00000014H
  00039	56		 push	 esi
  0003a	e8 00 00 00 00	 call	 ?__global_delete@@YAXPAXI@Z ; __global_delete
  0003f	83 c4 08	 add	 esp, 8
$LN20@scalar:
  00042	8b c6		 mov	 eax, esi
  00044	5e		 pop	 esi
  00045	5d		 pop	 ebp
  00046	c2 04 00	 ret	 4
??_G?$CArray@NN@@UAEPAXI@Z ENDP				; CArray<double,double>::`scalar deleting destructor'
_TEXT	ENDS
; Function compile flags: /Ogtp
; File C:\Program Files (x86)\Microsoft Visual Studio\2019\Community\VC\Tools\MSVC\14.29.30133\atlmfc\include\afxtempl.h
; File C:\Program Files (x86)\Microsoft Visual Studio\2019\Community\VC\Tools\MSVC\14.29.30133\atlmfc\include\afx.inl
; File C:\Program Files (x86)\Microsoft Visual Studio\2019\Community\VC\Tools\MSVC\14.29.30133\atlmfc\include\afxtempl.h
; File C:\Program Files (x86)\Microsoft Visual Studio\2019\Community\VC\Tools\MSVC\14.29.30133\atlmfc\include\afx.inl
; File C:\Program Files (x86)\Microsoft Visual Studio\2019\Community\VC\Tools\MSVC\14.29.30133\atlmfc\include\afxtempl.h
; File C:\Program Files (x86)\Microsoft Visual Studio\2019\Community\VC\Tools\MSVC\14.29.30133\atlmfc\include\afx.inl
; File C:\Program Files (x86)\Microsoft Visual Studio\2019\Community\VC\Tools\MSVC\14.29.30133\atlmfc\include\afxtempl.h
; File C:\Program Files (x86)\Microsoft Visual Studio\2019\Community\VC\Tools\MSVC\14.29.30133\atlmfc\include\afx.inl
; File C:\Program Files (x86)\Microsoft Visual Studio\2019\Community\VC\Tools\MSVC\14.29.30133\atlmfc\include\afxtempl.h
;	COMDAT ?Serialize@?$CArray@NN@@UAEXAAVCArchive@@@Z
_TEXT	SEGMENT
_pData$1$ = -4						; size = 4
_ar$ = 8						; size = 4
?Serialize@?$CArray@NN@@UAEXAAVCArchive@@@Z PROC	; CArray<double,double>::Serialize, COMDAT
; _this$ = ecx

; 633  : {

  00000	55		 push	 ebp
  00001	8b ec		 mov	 ebp, esp
  00003	51		 push	 ecx
  00004	53		 push	 ebx
  00005	56		 push	 esi
  00006	57		 push	 edi
  00007	8b f9		 mov	 edi, ecx
; File C:\Program Files (x86)\Microsoft Visual Studio\2019\Community\VC\Tools\MSVC\14.29.30133\atlmfc\include\afx.inl

; 212  : 	{ return (m_nMode & CArchive::load) == 0; }

  00009	8b 4d 08	 mov	 ecx, DWORD PTR _ar$[ebp]
  0000c	8b 41 18	 mov	 eax, DWORD PTR [ecx+24]
  0000f	f7 d0		 not	 eax
  00011	a8 01		 test	 al, 1
; File C:\Program Files (x86)\Microsoft Visual Studio\2019\Community\VC\Tools\MSVC\14.29.30133\atlmfc\include\afxtempl.h

; 637  : 	if (ar.IsStoring())

  00013	74 0a		 je	 SHORT $LN2@Serialize

; 638  : 	{
; 639  : 		ar.WriteCount(m_nSize);

  00015	ff 77 08	 push	 DWORD PTR [edi+8]
  00018	e8 00 00 00 00	 call	 ?WriteCount@CArchive@@QAEXK@Z ; CArchive::WriteCount

; 640  : 	}

  0001d	eb 0f		 jmp	 SHORT $LN3@Serialize
$LN2@Serialize:

; 641  : 	else
; 642  : 	{
; 643  : 		DWORD_PTR nOldSize = ar.ReadCount();

  0001f	e8 00 00 00 00	 call	 ?ReadCount@CArchive@@QAEKXZ ; CArchive::ReadCount

; 644  : 		SetSize(nOldSize, -1);

  00024	6a ff		 push	 -1
  00026	50		 push	 eax
  00027	8b cf		 mov	 ecx, edi
  00029	e8 00 00 00 00	 call	 ?SetSize@?$CArray@NN@@QAEXHH@Z ; CArray<double,double>::SetSize
$LN3@Serialize:

; 645  : 	}
; 646  : 	SerializeElements<TYPE>(ar, m_pData, m_nSize);

  0002e	8b 77 08	 mov	 esi, DWORD PTR [edi+8]
  00031	8b 4f 04	 mov	 ecx, DWORD PTR [edi+4]
  00034	89 4d fc	 mov	 DWORD PTR _pData$1$[ebp], ecx

; 68   : 	ENSURE(nCount == 0 || pElements != NULL);

  00037	85 f6		 test	 esi, esi
  00039	74 08		 je	 SHORT $LN8@Serialize
  0003b	85 c9		 test	 ecx, ecx
  0003d	0f 84 8c 00 00
	00		 je	 $LN40@Serialize
$LN8@Serialize:
; File C:\Program Files (x86)\Microsoft Visual Studio\2019\Community\VC\Tools\MSVC\14.29.30133\atlmfc\include\afx.inl

; 212  : 	{ return (m_nMode & CArchive::load) == 0; }

  00043	8b 55 08	 mov	 edx, DWORD PTR _ar$[ebp]
  00046	8b 42 18	 mov	 eax, DWORD PTR [edx+24]
  00049	f7 d0		 not	 eax
  0004b	a8 01		 test	 al, 1
; File C:\Program Files (x86)\Microsoft Visual Studio\2019\Community\VC\Tools\MSVC\14.29.30133\atlmfc\include\afxtempl.h

; 73   : 	if (ar.IsStoring())

  0004d	74 36		 je	 SHORT $LN16@Serialize

; 74   : 	{
; 75   : 		TYPE* pData;
; 76   : 		UINT_PTR nElementsLeft;
; 77   : 
; 78   : 		nElementsLeft = nCount;
; 79   : 		pData = pElements;
; 80   : 		while( nElementsLeft > 0 )

  0004f	85 f6		 test	 esi, esi
  00051	74 29		 je	 SHORT $LN14@Serialize
$LL11@Serialize:

; 81   : 		{
; 82   : 			UINT nElementsToWrite;
; 83   : 
; 84   : 			nElementsToWrite = UINT(__min(nElementsLeft, INT_MAX/sizeof(TYPE)));

  00053	bb ff ff ff 0f	 mov	 ebx, 268435455		; 0fffffffH
  00058	3b f3		 cmp	 esi, ebx
  0005a	0f 42 de	 cmovb	 ebx, esi

; 85   : 			ar.Write(pData, nElementsToWrite*sizeof(TYPE));

  0005d	8d 3c dd 00 00
	00 00		 lea	 edi, DWORD PTR [ebx*8]
  00064	57		 push	 edi
  00065	51		 push	 ecx
  00066	8b ca		 mov	 ecx, edx
  00068	e8 00 00 00 00	 call	 ?Write@CArchive@@QAEXPBXI@Z ; CArchive::Write

; 86   : 			nElementsLeft -= nElementsToWrite;
; 87   : 			pData += nElementsToWrite;

  0006d	8b 4d fc	 mov	 ecx, DWORD PTR _pData$1$[ebp]
  00070	8b 55 08	 mov	 edx, DWORD PTR _ar$[ebp]
  00073	03 cf		 add	 ecx, edi
  00075	89 4d fc	 mov	 DWORD PTR _pData$1$[ebp], ecx
  00078	2b f3		 sub	 esi, ebx
  0007a	75 d7		 jne	 SHORT $LL11@Serialize
$LN14@Serialize:
  0007c	5f		 pop	 edi

; 647  : }

  0007d	5e		 pop	 esi
  0007e	5b		 pop	 ebx
  0007f	8b e5		 mov	 esp, ebp
  00081	5d		 pop	 ebp
  00082	c2 04 00	 ret	 4
$LN16@Serialize:

; 97   : 		while( nElementsLeft > 0 )

  00085	85 f6		 test	 esi, esi
  00087	74 f3		 je	 SHORT $LN14@Serialize
  00089	0f 1f 80 00 00
	00 00		 npad	 7
$LL13@Serialize:

; 98   : 		{
; 99   : 			UINT nElementsToRead;
; 100  : 
; 101  : 			nElementsToRead = UINT(__min(nElementsLeft, INT_MAX/sizeof(TYPE)));

  00090	bf ff ff ff 0f	 mov	 edi, 268435455		; 0fffffffH
  00095	3b f7		 cmp	 esi, edi
  00097	0f 42 fe	 cmovb	 edi, esi

; 102  : 			ar.EnsureRead(pData, nElementsToRead*sizeof(TYPE));

  0009a	8d 1c fd 00 00
	00 00		 lea	 ebx, DWORD PTR [edi*8]
; File C:\Program Files (x86)\Microsoft Visual Studio\2019\Community\VC\Tools\MSVC\14.29.30133\atlmfc\include\afx.inl

; 399  : 	UINT nRead=Read(lpBuf, nCount);

  000a1	53		 push	 ebx
  000a2	51		 push	 ecx
  000a3	8b ca		 mov	 ecx, edx
  000a5	e8 00 00 00 00	 call	 ?Read@CArchive@@QAEIPAXI@Z ; CArchive::Read

; 400  : 	if(nRead!=nCount)

  000aa	3b c3		 cmp	 eax, ebx
  000ac	75 18		 jne	 SHORT $LN30@Serialize
; File C:\Program Files (x86)\Microsoft Visual Studio\2019\Community\VC\Tools\MSVC\14.29.30133\atlmfc\include\afxtempl.h

; 97   : 		while( nElementsLeft > 0 )

  000ae	8b 4d fc	 mov	 ecx, DWORD PTR _pData$1$[ebp]
  000b1	8b 55 08	 mov	 edx, DWORD PTR _ar$[ebp]

; 103  : 			nElementsLeft -= nElementsToRead;
; 104  : 			pData += nElementsToRead;

  000b4	03 cb		 add	 ecx, ebx
  000b6	89 4d fc	 mov	 DWORD PTR _pData$1$[ebp], ecx
  000b9	2b f7		 sub	 esi, edi
  000bb	75 d3		 jne	 SHORT $LL13@Serialize

; 647  : }

  000bd	5f		 pop	 edi
  000be	5e		 pop	 esi
  000bf	5b		 pop	 ebx
  000c0	8b e5		 mov	 esp, ebp
  000c2	5d		 pop	 ebp
  000c3	c2 04 00	 ret	 4
$LN30@Serialize:
; File C:\Program Files (x86)\Microsoft Visual Studio\2019\Community\VC\Tools\MSVC\14.29.30133\atlmfc\include\afx.inl

; 402  : 		AfxThrowArchiveException(CArchiveException::endOfFile);

  000c6	6a 00		 push	 0
  000c8	6a 03		 push	 3
  000ca	e8 00 00 00 00	 call	 ?AfxThrowArchiveException@@YGXHPBD@Z ; AfxThrowArchiveException
$LN40@Serialize:
; File C:\Program Files (x86)\Microsoft Visual Studio\2019\Community\VC\Tools\MSVC\14.29.30133\atlmfc\include\afxtempl.h

; 68   : 	ENSURE(nCount == 0 || pElements != NULL);

  000cf	e8 00 00 00 00	 call	 ?AfxThrowInvalidArgException@@YGXXZ ; AfxThrowInvalidArgException
$LN38@Serialize:
  000d4	cc		 int	 3
?Serialize@?$CArray@NN@@UAEXAAVCArchive@@@Z ENDP	; CArray<double,double>::Serialize
_TEXT	ENDS
; Function compile flags: /Ogtp
; File C:\Program Files (x86)\Microsoft Visual Studio\2019\Community\VC\Tools\MSVC\14.29.30133\atlmfc\include\afxtempl.h
;	COMDAT ??1?$CArray@NN@@UAE@XZ
_TEXT	SEGMENT
??1?$CArray@NN@@UAE@XZ PROC				; CArray<double,double>::~CArray<double,double>, COMDAT
; _this$ = ecx

; 356  : 	ASSERT_VALID(this);
; 357  : 
; 358  : 	if (m_pData != NULL)

  00000	8b 41 04	 mov	 eax, DWORD PTR [ecx+4]
  00003	c7 01 00 00 00
	00		 mov	 DWORD PTR [ecx], OFFSET ??_7?$CArray@NN@@6B@
  00009	85 c0		 test	 eax, eax
  0000b	74 07		 je	 SHORT $LN5@CArray

; 359  : 	{
; 360  : 		for( int i = 0; i < m_nSize; i++ )
; 361  : 			(m_pData + i)->~TYPE();
; 362  : 		delete[] (BYTE*)m_pData;

  0000d	50		 push	 eax
  0000e	e8 00 00 00 00	 call	 ??_V@YAXPAX@Z		; operator delete[]
  00013	59		 pop	 ecx
$LN5@CArray:

; 363  : 	}
; 364  : }

  00014	c3		 ret	 0
??1?$CArray@NN@@UAE@XZ ENDP				; CArray<double,double>::~CArray<double,double>
_TEXT	ENDS
; Function compile flags: /Ogtp
; File C:\Program Files (x86)\Microsoft Visual Studio\2019\Community\VC\Tools\MSVC\14.29.30133\atlmfc\include\afxtempl.h
;	COMDAT ?SetAtGrow@?$CArray@NN@@QAEXHN@Z
_TEXT	SEGMENT
_nIndex$ = 8						; size = 4
_newElement$ = 12					; size = 8
?SetAtGrow@?$CArray@NN@@QAEXHN@Z PROC			; CArray<double,double>::SetAtGrow, COMDAT
; _this$ = ecx

; 534  : {

  00000	55		 push	 ebp
  00001	8b ec		 mov	 ebp, esp
  00003	56		 push	 esi

; 535  : 	ASSERT_VALID(this);
; 536  : 	ASSERT(nIndex >= 0);
; 537  : 
; 538  : 	if(nIndex < 0)

  00004	8b 75 08	 mov	 esi, DWORD PTR _nIndex$[ebp]
  00007	57		 push	 edi
  00008	8b f9		 mov	 edi, ecx
  0000a	85 f6		 test	 esi, esi
  0000c	78 23		 js	 SHORT $LN7@SetAtGrow

; 540  : 
; 541  : 	if (nIndex >= m_nSize)

  0000e	3b 77 08	 cmp	 esi, DWORD PTR [edi+8]
  00011	7c 0b		 jl	 SHORT $LN3@SetAtGrow

; 542  : 		SetSize(nIndex+1, -1);

  00013	6a ff		 push	 -1
  00015	8d 46 01	 lea	 eax, DWORD PTR [esi+1]
  00018	50		 push	 eax
  00019	e8 00 00 00 00	 call	 ?SetSize@?$CArray@NN@@QAEXHH@Z ; CArray<double,double>::SetSize
$LN3@SetAtGrow:

; 543  : 	m_pData[nIndex] = newElement;

  0001e	8b 47 04	 mov	 eax, DWORD PTR [edi+4]
  00021	f2 0f 10 45 0c	 movsd	 xmm0, QWORD PTR _newElement$[ebp]
  00026	5f		 pop	 edi
  00027	f2 0f 11 04 f0	 movsd	 QWORD PTR [eax+esi*8], xmm0
  0002c	5e		 pop	 esi

; 544  : }

  0002d	5d		 pop	 ebp
  0002e	c2 0c 00	 ret	 12			; 0000000cH
$LN7@SetAtGrow:

; 539  : 		AfxThrowInvalidArgException();

  00031	e8 00 00 00 00	 call	 ?AfxThrowInvalidArgException@@YGXXZ ; AfxThrowInvalidArgException
$LN5@SetAtGrow:
  00036	cc		 int	 3
?SetAtGrow@?$CArray@NN@@QAEXHN@Z ENDP			; CArray<double,double>::SetAtGrow
_TEXT	ENDS
; Function compile flags: /Ogtp
; File C:\Program Files (x86)\Microsoft Visual Studio\2019\Community\VC\Tools\MSVC\14.29.30133\atlmfc\include\afxtempl.h
; File C:\Program Files (x86)\Windows Kits\10\Include\10.0.22000.0\ucrt\corecrt_memcpy_s.h
; File C:\Program Files (x86)\Microsoft Visual Studio\2019\Community\VC\Tools\MSVC\14.29.30133\atlmfc\include\atlchecked.h
; File C:\Program Files (x86)\Microsoft Visual Studio\2019\Community\VC\Tools\MSVC\14.29.30133\atlmfc\include\afxtempl.h
; File C:\Program Files (x86)\Windows Kits\10\Include\10.0.22000.0\ucrt\corecrt_memcpy_s.h
; File C:\Program Files (x86)\Microsoft Visual Studio\2019\Community\VC\Tools\MSVC\14.29.30133\atlmfc\include\atlchecked.h
; File C:\Program Files (x86)\Windows Kits\10\Include\10.0.22000.0\ucrt\corecrt_memcpy_s.h
; File C:\Program Files (x86)\Microsoft Visual Studio\2019\Community\VC\Tools\MSVC\14.29.30133\atlmfc\include\afxtempl.h
;	COMDAT ?SetSize@?$CArray@NN@@QAEXHH@Z
_TEXT	SEGMENT
__N$1$ = -4						; size = 4
__S2$1$ = 8						; size = 4
_nNewSize$ = 8						; size = 4
_pNewData$1$ = 12					; size = 4
_nGrowBy$ = 12						; size = 4
?SetSize@?$CArray@NN@@QAEXHH@Z PROC			; CArray<double,double>::SetSize, COMDAT
; _this$ = ecx

; 368  : {

  00000	55		 push	 ebp
  00001	8b ec		 mov	 ebp, esp
  00003	51		 push	 ecx
  00004	53		 push	 ebx
  00005	56		 push	 esi

; 369  : 	ASSERT_VALID(this);
; 370  : 	ASSERT(nNewSize >= 0);
; 371  : 
; 372  : 	if(nNewSize < 0 )

  00006	8b 75 08	 mov	 esi, DWORD PTR _nNewSize$[ebp]
  00009	8b d9		 mov	 ebx, ecx
  0000b	57		 push	 edi
  0000c	85 f6		 test	 esi, esi
  0000e	0f 88 c2 01 00
	00		 js	 $LN70@SetSize

; 373  : 		AfxThrowInvalidArgException();
; 374  : 
; 375  : 	if (nGrowBy >= 0)

  00014	8b 45 0c	 mov	 eax, DWORD PTR _nGrowBy$[ebp]
  00017	85 c0		 test	 eax, eax
  00019	78 03		 js	 SHORT $LN69@SetSize

; 376  : 		m_nGrowBy = nGrowBy;  // set new size

  0001b	89 43 10	 mov	 DWORD PTR [ebx+16], eax
$LN69@SetSize:

; 377  : 
; 378  : 	if (nNewSize == 0)

  0001e	8b 4b 04	 mov	 ecx, DWORD PTR [ebx+4]
  00021	85 f6		 test	 esi, esi
  00023	75 27		 jne	 SHORT $LN19@SetSize

; 379  : 	{
; 380  : 		// shrink to nothing
; 381  : 		if (m_pData != NULL)

  00025	85 c9		 test	 ecx, ecx
  00027	74 0c		 je	 SHORT $LN21@SetSize

; 382  : 		{
; 383  : 			for( int i = 0; i < m_nSize; i++ )
; 384  : 				(m_pData + i)->~TYPE();
; 385  : 			delete[] (BYTE*)m_pData;

  00029	51		 push	 ecx
  0002a	e8 00 00 00 00	 call	 ??_V@YAXPAX@Z		; operator delete[]
  0002f	83 c4 04	 add	 esp, 4

; 386  : 			m_pData = NULL;

  00032	89 73 04	 mov	 DWORD PTR [ebx+4], esi
$LN21@SetSize:

; 472  : 		m_nSize = nNewSize;
; 473  : 		m_nMaxSize = nNewMax;
; 474  : 	}
; 475  : }

  00035	5f		 pop	 edi
  00036	5e		 pop	 esi
  00037	c7 43 0c 00 00
	00 00		 mov	 DWORD PTR [ebx+12], 0
  0003e	c7 43 08 00 00
	00 00		 mov	 DWORD PTR [ebx+8], 0
  00045	5b		 pop	 ebx
  00046	8b e5		 mov	 esp, ebp
  00048	5d		 pop	 ebp
  00049	c2 08 00	 ret	 8
$LN19@SetSize:

; 387  : 		}
; 388  : 		m_nSize = m_nMaxSize = 0;
; 389  : 	}
; 390  : 	else if (m_pData == NULL)

  0004c	85 c9		 test	 ecx, ecx
  0004e	75 36		 jne	 SHORT $LN22@SetSize

; 391  : 	{
; 392  : 		// create buffer big enough to hold number of requested elements or
; 393  : 		// m_nGrowBy elements, whichever is larger.
; 394  : #ifdef SIZE_T_MAX
; 395  : 		ASSERT(nNewSize <= SIZE_T_MAX/sizeof(TYPE));    // no overflow
; 396  : #endif
; 397  : 		size_t nAllocSize = __max(nNewSize, m_nGrowBy);

  00050	8b 7b 10	 mov	 edi, DWORD PTR [ebx+16]
  00053	3b f7		 cmp	 esi, edi
  00055	0f 4f fe	 cmovg	 edi, esi

; 398  : 		m_pData = (TYPE*) new BYTE[(size_t)nAllocSize * sizeof(TYPE)];

  00058	8d 34 fd 00 00
	00 00		 lea	 esi, DWORD PTR [edi*8]
  0005f	56		 push	 esi
  00060	e8 00 00 00 00	 call	 ??_U@YAPAXI@Z		; operator new[]

; 399  : 		memset((void*)m_pData, 0, (size_t)nAllocSize * sizeof(TYPE));

  00065	56		 push	 esi
  00066	6a 00		 push	 0
  00068	50		 push	 eax
  00069	89 43 04	 mov	 DWORD PTR [ebx+4], eax
  0006c	e8 00 00 00 00	 call	 _memset

; 400  : 		for( int i = 0; i < nNewSize; i++ )
; 401  : #pragma push_macro("new")
; 402  : #undef new
; 403  : 			::new( (void*)( m_pData + i ) ) TYPE;
; 404  : #pragma pop_macro("new")
; 405  : 		m_nSize = nNewSize;

  00071	8b 45 08	 mov	 eax, DWORD PTR _nNewSize$[ebp]
  00074	83 c4 10	 add	 esp, 16			; 00000010H

; 472  : 		m_nSize = nNewSize;
; 473  : 		m_nMaxSize = nNewMax;
; 474  : 	}
; 475  : }

  00077	89 7b 0c	 mov	 DWORD PTR [ebx+12], edi
  0007a	89 43 08	 mov	 DWORD PTR [ebx+8], eax
  0007d	5f		 pop	 edi
  0007e	5e		 pop	 esi
  0007f	5b		 pop	 ebx
  00080	8b e5		 mov	 esp, ebp
  00082	5d		 pop	 ebp
  00083	c2 08 00	 ret	 8
$LN22@SetSize:

; 406  : 		m_nMaxSize = nAllocSize;
; 407  : 	}
; 408  : 	else if (nNewSize <= m_nMaxSize)

  00086	8b 7b 0c	 mov	 edi, DWORD PTR [ebx+12]
  00089	3b f7		 cmp	 esi, edi
  0008b	7f 29		 jg	 SHORT $LN24@SetSize

; 409  : 	{
; 410  : 		// it fits
; 411  : 		if (nNewSize > m_nSize)

  0008d	8b 53 08	 mov	 edx, DWORD PTR [ebx+8]
  00090	3b f2		 cmp	 esi, edx
  00092	7e 16		 jle	 SHORT $LN26@SetSize

; 412  : 		{
; 413  : 			// initialize the new elements
; 414  : 			memset((void*)(m_pData + m_nSize), 0, (size_t)(nNewSize-m_nSize) * sizeof(TYPE));

  00094	8b c6		 mov	 eax, esi
  00096	2b c2		 sub	 eax, edx
  00098	c1 e0 03	 shl	 eax, 3
  0009b	50		 push	 eax
  0009c	8d 04 d1	 lea	 eax, DWORD PTR [ecx+edx*8]
  0009f	6a 00		 push	 0
  000a1	50		 push	 eax
  000a2	e8 00 00 00 00	 call	 _memset
  000a7	83 c4 0c	 add	 esp, 12			; 0000000cH
$LN26@SetSize:

; 415  : 			for( int i = 0; i < nNewSize-m_nSize; i++ )
; 416  : #pragma push_macro("new")
; 417  : #undef new
; 418  : 				::new( (void*)( m_pData + m_nSize + i ) ) TYPE;
; 419  : #pragma pop_macro("new")
; 420  : 		}
; 421  : 		else if (m_nSize > nNewSize)
; 422  : 		{
; 423  : 			// destroy the old elements
; 424  : 			for( int i = 0; i < m_nSize-nNewSize; i++ )
; 425  : 				(m_pData + nNewSize + i)->~TYPE();
; 426  : 		}
; 427  : 		m_nSize = nNewSize;

  000aa	5f		 pop	 edi
  000ab	89 73 08	 mov	 DWORD PTR [ebx+8], esi

; 472  : 		m_nSize = nNewSize;
; 473  : 		m_nMaxSize = nNewMax;
; 474  : 	}
; 475  : }

  000ae	5e		 pop	 esi
  000af	5b		 pop	 ebx
  000b0	8b e5		 mov	 esp, ebp
  000b2	5d		 pop	 ebp
  000b3	c2 08 00	 ret	 8
$LN24@SetSize:

; 428  : 	}
; 429  : 	else
; 430  : 	{
; 431  : 		// otherwise, grow array
; 432  : 		nGrowBy = m_nGrowBy;

  000b6	8b 43 10	 mov	 eax, DWORD PTR [ebx+16]

; 433  : 		if (nGrowBy == 0)

  000b9	85 c0		 test	 eax, eax
  000bb	75 22		 jne	 SHORT $LN37@SetSize

; 434  : 		{
; 435  : 			// heuristically determine growth when nGrowBy == 0
; 436  : 			//  (this avoids heap fragmentation in many situations)
; 437  : 			nGrowBy = m_nSize / 8;

  000bd	8b 43 08	 mov	 eax, DWORD PTR [ebx+8]
  000c0	99		 cdq
  000c1	83 e2 07	 and	 edx, 7
  000c4	03 c2		 add	 eax, edx
  000c6	c1 f8 03	 sar	 eax, 3

; 438  : 			nGrowBy = (nGrowBy < 4) ? 4 : ((nGrowBy > 1024) ? 1024 : nGrowBy);

  000c9	83 f8 04	 cmp	 eax, 4
  000cc	7d 07		 jge	 SHORT $LN36@SetSize
  000ce	b8 04 00 00 00	 mov	 eax, 4
  000d3	eb 0a		 jmp	 SHORT $LN37@SetSize
$LN36@SetSize:
  000d5	b9 00 04 00 00	 mov	 ecx, 1024		; 00000400H
  000da	3b c1		 cmp	 eax, ecx
  000dc	0f 4f c1	 cmovg	 eax, ecx
$LN37@SetSize:

; 439  : 		}
; 440  : 		INT_PTR nNewMax;
; 441  : 		if (nNewSize < m_nMaxSize + nGrowBy)

  000df	03 f8		 add	 edi, eax
  000e1	3b f7		 cmp	 esi, edi
  000e3	7d 0b		 jge	 SHORT $LN30@SetSize

; 445  : 
; 446  : 		ASSERT(nNewMax >= m_nMaxSize);  // no wrap around
; 447  : 
; 448  : 		if(nNewMax  < m_nMaxSize)

  000e5	3b 7b 0c	 cmp	 edi, DWORD PTR [ebx+12]
  000e8	0f 8c e8 00 00
	00		 jl	 $LN70@SetSize
  000ee	eb 02		 jmp	 SHORT $LN32@SetSize
$LN30@SetSize:

; 442  : 			nNewMax = m_nMaxSize + nGrowBy;  // granularity
; 443  : 		else
; 444  : 			nNewMax = nNewSize;  // no slush

  000f0	8b fe		 mov	 edi, esi
$LN32@SetSize:

; 450  : 
; 451  : #ifdef SIZE_T_MAX
; 452  : 		ASSERT(nNewMax <= SIZE_T_MAX/sizeof(TYPE)); // no overflow
; 453  : #endif
; 454  : 		TYPE* pNewData = (TYPE*) new BYTE[(size_t)nNewMax * sizeof(TYPE)];

  000f2	8d 04 fd 00 00
	00 00		 lea	 eax, DWORD PTR [edi*8]
  000f9	50		 push	 eax
  000fa	e8 00 00 00 00	 call	 ??_U@YAPAXI@Z		; operator new[]

; 455  : 
; 456  : 		// copy new data from old
; 457  : 		::ATL::Checked::memcpy_s(pNewData, (size_t)nNewMax * sizeof(TYPE),

  000ff	8b 53 04	 mov	 edx, DWORD PTR [ebx+4]
  00102	8b c8		 mov	 ecx, eax
  00104	8b 43 08	 mov	 eax, DWORD PTR [ebx+8]
  00107	83 c4 04	 add	 esp, 4
  0010a	c1 e0 03	 shl	 eax, 3
  0010d	89 4d 0c	 mov	 DWORD PTR _pNewData$1$[ebp], ecx
  00110	89 45 fc	 mov	 DWORD PTR __N$1$[ebp], eax
  00113	89 55 08	 mov	 DWORD PTR __S2$1$[ebp], edx
; File C:\Program Files (x86)\Windows Kits\10\Include\10.0.22000.0\ucrt\corecrt_memcpy_s.h

; 46   :         if (_SourceSize == 0)

  00116	85 c0		 test	 eax, eax
  00118	74 76		 je	 SHORT $LN74@SetSize

; 47   :         {
; 48   :             return 0;
; 49   :         }
; 50   : 
; 51   :         _CRT_MEMCPY_S_VALIDATE_RETURN_ERRCODE(_Destination != NULL, EINVAL);

  0011a	85 c9		 test	 ecx, ecx
  0011c	75 56		 jne	 SHORT $LN42@SetSize
$LN73@SetSize:
; File C:\Program Files (x86)\Microsoft Visual Studio\2019\Community\VC\Tools\MSVC\14.29.30133\atlmfc\include\atlchecked.h

; 69   : 	ATLMFC_CRT_ERRORCHECK(::memcpy_s(_S1, _S1max, _S2, _N));

  0011e	ff 15 00 00 00
	00		 call	 DWORD PTR __imp___errno
  00124	c7 00 16 00 00
	00		 mov	 DWORD PTR [eax], 22	; 00000016H
  0012a	ff 15 00 00 00
	00		 call	 DWORD PTR __imp___invalid_parameter_noinfo
$LN46@SetSize:
  00130	b8 16 00 00 00	 mov	 eax, 22			; 00000016H
$LN40@SetSize:
  00135	50		 push	 eax
  00136	e8 00 00 00 00	 call	 ?AfxCrtErrorCheck@@YAHH@Z ; AfxCrtErrorCheck
; File C:\Program Files (x86)\Microsoft Visual Studio\2019\Community\VC\Tools\MSVC\14.29.30133\atlmfc\include\afxtempl.h

; 462  : 		memset((void*)(pNewData + m_nSize), 0, (size_t)(nNewSize-m_nSize) * sizeof(TYPE));

  0013b	8b 4b 08	 mov	 ecx, DWORD PTR [ebx+8]
  0013e	8b c6		 mov	 eax, esi
  00140	2b c1		 sub	 eax, ecx
  00142	c1 e0 03	 shl	 eax, 3
  00145	50		 push	 eax
  00146	8b 45 0c	 mov	 eax, DWORD PTR _pNewData$1$[ebp]
  00149	6a 00		 push	 0
  0014b	8d 04 c8	 lea	 eax, DWORD PTR [eax+ecx*8]
  0014e	50		 push	 eax
  0014f	e8 00 00 00 00	 call	 _memset

; 463  : 		for( int i = 0; i < nNewSize-m_nSize; i++ )
; 464  : #pragma push_macro("new")
; 465  : #undef new
; 466  : 			::new( (void*)( pNewData + m_nSize + i ) ) TYPE;
; 467  : #pragma pop_macro("new")
; 468  : 
; 469  : 		// get rid of old stuff (note: no destructors called)
; 470  : 		delete[] (BYTE*)m_pData;

  00154	ff 73 04	 push	 DWORD PTR [ebx+4]
  00157	e8 00 00 00 00	 call	 ??_V@YAXPAX@Z		; operator delete[]

; 471  : 		m_pData = pNewData;

  0015c	8b 45 0c	 mov	 eax, DWORD PTR _pNewData$1$[ebp]
  0015f	83 c4 14	 add	 esp, 20			; 00000014H

; 472  : 		m_nSize = nNewSize;
; 473  : 		m_nMaxSize = nNewMax;
; 474  : 	}
; 475  : }

  00162	89 7b 0c	 mov	 DWORD PTR [ebx+12], edi
  00165	89 73 08	 mov	 DWORD PTR [ebx+8], esi
  00168	89 43 04	 mov	 DWORD PTR [ebx+4], eax
  0016b	5f		 pop	 edi
  0016c	5e		 pop	 esi
  0016d	5b		 pop	 ebx
  0016e	8b e5		 mov	 esp, ebp
  00170	5d		 pop	 ebp
  00171	c2 08 00	 ret	 8
$LN42@SetSize:
; File C:\Program Files (x86)\Windows Kits\10\Include\10.0.22000.0\ucrt\corecrt_memcpy_s.h

; 52   :         if (_Source == NULL || _DestinationSize < _SourceSize)

  00174	85 d2		 test	 edx, edx
  00176	8d 14 fd 00 00
	00 00		 lea	 edx, DWORD PTR [edi*8]
  0017d	74 15		 je	 SHORT $LN44@SetSize
  0017f	3b d0		 cmp	 edx, eax
  00181	72 11		 jb	 SHORT $LN44@SetSize

; 58   : 
; 59   :             // Unreachable, but required to suppress /analyze warnings:
; 60   :             return EINVAL;
; 61   :         }
; 62   :         memcpy(_Destination, _Source, _SourceSize);

  00183	50		 push	 eax
  00184	ff 75 08	 push	 DWORD PTR __S2$1$[ebp]
  00187	51		 push	 ecx
  00188	e8 00 00 00 00	 call	 _memcpy
  0018d	83 c4 0c	 add	 esp, 12			; 0000000cH
$LN74@SetSize:
; File C:\Program Files (x86)\Microsoft Visual Studio\2019\Community\VC\Tools\MSVC\14.29.30133\atlmfc\include\atlchecked.h

; 69   : 	ATLMFC_CRT_ERRORCHECK(::memcpy_s(_S1, _S1max, _S2, _N));

  00190	33 c0		 xor	 eax, eax
  00192	eb a1		 jmp	 SHORT $LN40@SetSize
$LN44@SetSize:
; File C:\Program Files (x86)\Windows Kits\10\Include\10.0.22000.0\ucrt\corecrt_memcpy_s.h

; 54   :             memset(_Destination, 0, _DestinationSize);

  00194	52		 push	 edx
  00195	6a 00		 push	 0
  00197	51		 push	 ecx
  00198	e8 00 00 00 00	 call	 _memset
  0019d	83 c4 0c	 add	 esp, 12			; 0000000cH

; 55   : 
; 56   :             _CRT_MEMCPY_S_VALIDATE_RETURN_ERRCODE(_Source != NULL,                 EINVAL);

  001a0	83 7d 08 00	 cmp	 DWORD PTR __S2$1$[ebp], 0
  001a4	0f 84 74 ff ff
	ff		 je	 $LN73@SetSize

; 57   :             _CRT_MEMCPY_S_VALIDATE_RETURN_ERRCODE(_DestinationSize >= _SourceSize, ERANGE);

  001aa	8d 04 fd 00 00
	00 00		 lea	 eax, DWORD PTR [edi*8]
  001b1	3b 45 fc	 cmp	 eax, DWORD PTR __N$1$[ebp]
  001b4	0f 83 76 ff ff
	ff		 jae	 $LN46@SetSize
  001ba	ff 15 00 00 00
	00		 call	 DWORD PTR __imp___errno
  001c0	c7 00 22 00 00
	00		 mov	 DWORD PTR [eax], 34	; 00000022H
  001c6	ff 15 00 00 00
	00		 call	 DWORD PTR __imp___invalid_parameter_noinfo
  001cc	b8 22 00 00 00	 mov	 eax, 34			; 00000022H
  001d1	e9 5f ff ff ff	 jmp	 $LN40@SetSize
$LN70@SetSize:
; File C:\Program Files (x86)\Microsoft Visual Studio\2019\Community\VC\Tools\MSVC\14.29.30133\atlmfc\include\afxtempl.h

; 449  : 			AfxThrowInvalidArgException();

  001d6	e8 00 00 00 00	 call	 ?AfxThrowInvalidArgException@@YGXXZ ; AfxThrowInvalidArgException
$LN72@SetSize:
  001db	cc		 int	 3
?SetSize@?$CArray@NN@@QAEXHH@Z ENDP			; CArray<double,double>::SetSize
_TEXT	ENDS
; Function compile flags: /Ogtp
; File C:\Program Files (x86)\Microsoft Visual Studio\2019\Community\VC\Tools\MSVC\14.29.30133\atlmfc\include\afxtempl.h
;	COMDAT ??0?$CArray@NN@@QAE@XZ
_TEXT	SEGMENT
??0?$CArray@NN@@QAE@XZ PROC				; CArray<double,double>::CArray<double,double>, COMDAT
; _this$ = ecx

; 348  : {

  00000	c7 01 00 00 00
	00		 mov	 DWORD PTR [ecx], OFFSET ??_7?$CArray@NN@@6B@

; 349  : 	m_pData = NULL;
; 350  : 	m_nSize = m_nMaxSize = m_nGrowBy = 0;
; 351  : }

  00006	8b c1		 mov	 eax, ecx
  00008	c7 41 04 00 00
	00 00		 mov	 DWORD PTR [ecx+4], 0
  0000f	c7 41 10 00 00
	00 00		 mov	 DWORD PTR [ecx+16], 0
  00016	c7 41 0c 00 00
	00 00		 mov	 DWORD PTR [ecx+12], 0
  0001d	c7 41 08 00 00
	00 00		 mov	 DWORD PTR [ecx+8], 0
  00024	c3		 ret	 0
??0?$CArray@NN@@QAE@XZ ENDP				; CArray<double,double>::CArray<double,double>
_TEXT	ENDS
; Function compile flags: /Ogtp
;	COMDAT ??1CDlgInterface@@UAE@XZ
_TEXT	SEGMENT
??1CDlgInterface@@UAE@XZ PROC				; CDlgInterface::~CDlgInterface, COMDAT
; _this$ = ecx
  00000	e9 00 00 00 00	 jmp	 ??1CDialog@@UAE@XZ	; CDialog::~CDialog
??1CDlgInterface@@UAE@XZ ENDP				; CDlgInterface::~CDlgInterface
_TEXT	ENDS
; Function compile flags: /Ogtp
; File D:\git\src\IBK\IBK_DRFN\ProjSrc\SrcDrfn\Chart\INDEXOPTIMIZER\DlgInterface.h
;	COMDAT ?GuganBtnUpdate@CDlgInterface@@UAEXXZ
_TEXT	SEGMENT
?GuganBtnUpdate@CDlgInterface@@UAEXXZ PROC		; CDlgInterface::GuganBtnUpdate, COMDAT
; _this$ = ecx

; 63   : 		virtual void GuganBtnUpdate(){}

  00000	c2 00 00	 ret	 0
?GuganBtnUpdate@CDlgInterface@@UAEXXZ ENDP		; CDlgInterface::GuganBtnUpdate
_TEXT	ENDS
; Function compile flags: /Ogtp
; File D:\git\src\IBK\IBK_DRFN\ProjSrc\SrcDrfn\Chart\INDEXOPTIMIZER\DlgInterface.h
;	COMDAT ?SetChartFocus@CDlgInterface@@UAEXH@Z
_TEXT	SEGMENT
_nFocusIndex$ = 8					; size = 4
?SetChartFocus@CDlgInterface@@UAEXH@Z PROC		; CDlgInterface::SetChartFocus, COMDAT
; _this$ = ecx

; 62   : 		virtual void SetChartFocus(int nFocusIndex) {}

  00000	c2 04 00	 ret	 4
?SetChartFocus@CDlgInterface@@UAEXH@Z ENDP		; CDlgInterface::SetChartFocus
_TEXT	ENDS
; Function compile flags: /Ogtp
; File D:\git\src\IBK\IBK_DRFN\ProjSrc\SrcDrfn\Chart\INDEXOPTIMIZER\DlgInterface.h
;	COMDAT ?UpdateDlg@CDlgInterface@@UAEXXZ
_TEXT	SEGMENT
?UpdateDlg@CDlgInterface@@UAEXXZ PROC			; CDlgInterface::UpdateDlg, COMDAT
; _this$ = ecx

; 61   : 		virtual void UpdateDlg() {}

  00000	c2 00 00	 ret	 0
?UpdateDlg@CDlgInterface@@UAEXXZ ENDP			; CDlgInterface::UpdateDlg
_TEXT	ENDS
; Function compile flags: /Ogtp
; File D:\git\src\IBK\IBK_DRFN\ProjSrc\SrcDrfn\Chart\Common_ST\EscDialog.h
;	COMDAT ?PreTranslateMessage@CEscDialog@@MAEHPAUtagMSG@@@Z
_TEXT	SEGMENT
_pMsg$ = 8						; size = 4
?PreTranslateMessage@CEscDialog@@MAEHPAUtagMSG@@@Z PROC	; CEscDialog::PreTranslateMessage, COMDAT
; _this$ = ecx

; 40   : {

  00000	55		 push	 ebp
  00001	8b ec		 mov	 ebp, esp
  00003	56		 push	 esi

; 41   : 	//     		JSJ_Modify_040421
; 42   : 	if(pMsg->message == WM_KEYDOWN)   

  00004	8b 75 08	 mov	 esi, DWORD PTR _pMsg$[ebp]
  00007	57		 push	 edi
  00008	8b f9		 mov	 edi, ecx
  0000a	81 7e 04 00 01
	00 00		 cmp	 DWORD PTR [esi+4], 256	; 00000100H
  00011	75 42		 jne	 SHORT $LN4@PreTransla

; 43   : 	{
; 44   : 		if(pMsg->wParam == VK_F4 && (::GetKeyState(VK_CONTROL) & 0x8000))

  00013	83 7e 08 73	 cmp	 DWORD PTR [esi+8], 115	; 00000073H
  00017	75 36		 jne	 SHORT $LN11@PreTransla
  00019	6a 11		 push	 17			; 00000011H
  0001b	ff 15 00 00 00
	00		 call	 DWORD PTR __imp__GetKeyState@4
  00021	66 0f ba e0 0f	 bt	 ax, 15			; 0000000fH
  00026	73 27		 jae	 SHORT $LN11@PreTransla

; 45   : 		{
; 46   : 			pMsg->wParam = VK_ESCAPE;

  00028	c7 46 08 1b 00
	00 00		 mov	 DWORD PTR [esi+8], 27	; 0000001bH
$LN12@PreTransla:

; 56   : }

  0002f	ff 77 20	 push	 DWORD PTR [edi+32]
  00032	ff 15 00 00 00
	00		 call	 DWORD PTR __imp__GetParent@4
  00038	50		 push	 eax
  00039	e8 00 00 00 00	 call	 ?FromHandle@CWnd@@SGPAV1@PAUHWND__@@@Z ; CWnd::FromHandle
  0003e	56		 push	 esi
  0003f	8b c8		 mov	 ecx, eax
  00041	8b 10		 mov	 edx, DWORD PTR [eax]
  00043	ff 92 14 01 00
	00		 call	 DWORD PTR [edx+276]
  00049	5f		 pop	 edi
  0004a	5e		 pop	 esi
  0004b	5d		 pop	 ebp
  0004c	c2 04 00	 ret	 4
$LN11@PreTransla:

; 47   : 			return GetParent()->PreTranslateMessage(pMsg);
; 48   : 		}
; 49   : 		if(pMsg->wParam == VK_ESCAPE)

  0004f	83 7e 08 1b	 cmp	 DWORD PTR [esi+8], 27	; 0000001bH
  00053	74 da		 je	 SHORT $LN12@PreTransla
$LN4@PreTransla:

; 50   : 		{
; 51   : 			return GetParent()->PreTranslateMessage(pMsg);
; 52   : 		}
; 53   : 	}
; 54   : 	
; 55   : 	return CDialog::PreTranslateMessage(pMsg);

  00055	56		 push	 esi
  00056	8b cf		 mov	 ecx, edi
  00058	e8 00 00 00 00	 call	 ?PreTranslateMessage@CDialog@@UAEHPAUtagMSG@@@Z ; CDialog::PreTranslateMessage
  0005d	5f		 pop	 edi

; 56   : }

  0005e	5e		 pop	 esi
  0005f	5d		 pop	 ebp
  00060	c2 04 00	 ret	 4
?PreTranslateMessage@CEscDialog@@MAEHPAUtagMSG@@@Z ENDP	; CEscDialog::PreTranslateMessage
_TEXT	ENDS
; Function compile flags: /Ogtp
; File C:\Program Files (x86)\Microsoft Visual Studio\2019\Community\VC\Tools\MSVC\14.29.30133\atlmfc\include\afxwin2.inl
;	COMDAT ?Create@CDialog@@UAEHIPAVCWnd@@@Z
_TEXT	SEGMENT
_nIDTemplate$ = 8					; size = 4
_pParentWnd$ = 12					; size = 4
?Create@CDialog@@UAEHIPAVCWnd@@@Z PROC			; CDialog::Create, COMDAT
; _this$ = ecx

; 585  : 	{ return CDialog::Create(ATL_MAKEINTRESOURCE(nIDTemplate), pParentWnd); }

  00000	55		 push	 ebp
  00001	8b ec		 mov	 ebp, esp
  00003	0f b7 45 08	 movzx	 eax, WORD PTR _nIDTemplate$[ebp]
  00007	89 45 08	 mov	 DWORD PTR _nIDTemplate$[ebp], eax
  0000a	5d		 pop	 ebp
  0000b	e9 00 00 00 00	 jmp	 ?Create@CDialog@@UAEHPBDPAVCWnd@@@Z ; CDialog::Create
?Create@CDialog@@UAEHIPAVCWnd@@@Z ENDP			; CDialog::Create
_TEXT	ENDS
; Function compile flags: /Ogtp
; File C:\Program Files (x86)\Microsoft Visual Studio\2019\Community\VC\Tools\MSVC\14.29.30133\atlmfc\include\afxwin2.inl
;	COMDAT ?EndModalState@CWnd@@UAEXXZ
_TEXT	SEGMENT
?EndModalState@CWnd@@UAEXXZ PROC			; CWnd::EndModalState, COMDAT
; _this$ = ecx

; 567  : 	{ ::EnableWindow(m_hWnd, TRUE); }

  00000	6a 01		 push	 1
  00002	ff 71 20	 push	 DWORD PTR [ecx+32]
  00005	ff 15 00 00 00
	00		 call	 DWORD PTR __imp__EnableWindow@8
  0000b	c3		 ret	 0
?EndModalState@CWnd@@UAEXXZ ENDP			; CWnd::EndModalState
_TEXT	ENDS
; Function compile flags: /Ogtp
; File C:\Program Files (x86)\Microsoft Visual Studio\2019\Community\VC\Tools\MSVC\14.29.30133\atlmfc\include\afxwin2.inl
;	COMDAT ?BeginModalState@CWnd@@UAEXXZ
_TEXT	SEGMENT
?BeginModalState@CWnd@@UAEXXZ PROC			; CWnd::BeginModalState, COMDAT
; _this$ = ecx

; 565  : 	{ ::EnableWindow(m_hWnd, FALSE); }

  00000	6a 00		 push	 0
  00002	ff 71 20	 push	 DWORD PTR [ecx+32]
  00005	ff 15 00 00 00
	00		 call	 DWORD PTR __imp__EnableWindow@8
  0000b	c3		 ret	 0
?BeginModalState@CWnd@@UAEXXZ ENDP			; CWnd::BeginModalState
_TEXT	ENDS
; Function compile flags: /Ogtp
; File C:\Program Files (x86)\Microsoft Visual Studio\2019\Community\VC\Tools\MSVC\14.29.30133\atlmfc\include\afx.inl
;	COMDAT ?Dump@CObject@@UBEXAAVCDumpContext@@@Z
_TEXT	SEGMENT
___formal$ = 8						; size = 4
?Dump@CObject@@UBEXAAVCDumpContext@@@Z PROC		; CObject::Dump, COMDAT
; _this$ = ecx

; 122  : 	{ /* no dumping in release builds */ }

  00000	c2 04 00	 ret	 4
?Dump@CObject@@UBEXAAVCDumpContext@@@Z ENDP		; CObject::Dump
_TEXT	ENDS
; Function compile flags: /Ogtp
; File C:\Program Files (x86)\Microsoft Visual Studio\2019\Community\VC\Tools\MSVC\14.29.30133\atlmfc\include\afx.inl
;	COMDAT ?AssertValid@CObject@@UBEXXZ
_TEXT	SEGMENT
?AssertValid@CObject@@UBEXXZ PROC			; CObject::AssertValid, COMDAT
; _this$ = ecx

; 120  : 	{ /* no asserts in release builds */ }

  00000	c2 00 00	 ret	 0
?AssertValid@CObject@@UBEXXZ ENDP			; CObject::AssertValid
_TEXT	ENDS
; Function compile flags: /Ogtp
; File C:\Program Files (x86)\Microsoft Visual Studio\2019\Community\VC\Tools\MSVC\14.29.30133\atlmfc\include\afx.inl
;	COMDAT ?Serialize@CObject@@UAEXAAVCArchive@@@Z
_TEXT	SEGMENT
___formal$ = 8						; size = 4
?Serialize@CObject@@UAEXAAVCArchive@@@Z PROC		; CObject::Serialize, COMDAT
; _this$ = ecx

; 106  : 	{ /* CObject does not serialize anything by default */ }

  00000	c2 04 00	 ret	 4
?Serialize@CObject@@UAEXAAVCArchive@@@Z ENDP		; CObject::Serialize
_TEXT	ENDS
; Function compile flags: /Ogtp
; File C:\Program Files (x86)\Microsoft Visual Studio\2019\Community\VC\Tools\MSVC\14.29.30133\atlmfc\include\afx.inl
;	COMDAT ??1CObject@@UAE@XZ
_TEXT	SEGMENT
??1CObject@@UAE@XZ PROC					; CObject::~CObject, COMDAT
; _this$ = ecx

; 104  : 	{ }

  00000	c2 00 00	 ret	 0
??1CObject@@UAE@XZ ENDP					; CObject::~CObject
_TEXT	ENDS
; Function compile flags: /Ogtp
; File C:\Program Files (x86)\Microsoft Visual Studio\2019\Community\VC\Tools\MSVC\14.29.30133\atlmfc\include\afx.h
;	COMDAT ?AfxCrtErrorCheck@@YAHH@Z
_TEXT	SEGMENT
_error$ = 8						; size = 4
?AfxCrtErrorCheck@@YAHH@Z PROC				; AfxCrtErrorCheck, COMDAT

; 503  : {

  00000	55		 push	 ebp
  00001	8b ec		 mov	 ebp, esp

; 504  : 	switch(error)

  00003	8b 4d 08	 mov	 ecx, DWORD PTR _error$[ebp]
  00006	83 f9 50	 cmp	 ecx, 80			; 00000050H
  00009	77 17		 ja	 SHORT $LN9@AfxCrtErro
  0000b	0f b6 81 00 00
	00 00		 movzx	 eax, BYTE PTR $LN11@AfxCrtErro[ecx]
  00012	ff 24 85 00 00
	00 00		 jmp	 DWORD PTR $LN12@AfxCrtErro[eax*4]
$LN4@AfxCrtErro:

; 505  : 	{
; 506  : 	case ENOMEM:
; 507  : 		AfxThrowMemoryException();

  00019	e9 00 00 00 00	 jmp	 ?AfxThrowMemoryException@@YGXXZ ; AfxThrowMemoryException
$LN7@AfxCrtErro:

; 518  : 		break;
; 519  : 	}
; 520  : 	return error;

  0001e	8b c1		 mov	 eax, ecx

; 521  : }

  00020	5d		 pop	 ebp
  00021	c3		 ret	 0
$LN9@AfxCrtErro:

; 508  : 		break;
; 509  : 	case EINVAL:
; 510  : 	case ERANGE:
; 511  : 		AfxThrowInvalidArgException();
; 512  : 		break;
; 513  : 	case STRUNCATE:
; 514  : 	case 0:
; 515  : 		break;
; 516  : 	default:
; 517  : 		AfxThrowInvalidArgException();

  00022	e9 00 00 00 00	 jmp	 ?AfxThrowInvalidArgException@@YGXXZ ; AfxThrowInvalidArgException
  00027	90		 npad	 1
$LN12@AfxCrtErro:

; 521  : }

  00028	00 00 00 00	 DD	 $LN7@AfxCrtErro
  0002c	00 00 00 00	 DD	 $LN4@AfxCrtErro
  00030	00 00 00 00	 DD	 $LN9@AfxCrtErro
  00034	00 00 00 00	 DD	 $LN9@AfxCrtErro
$LN11@AfxCrtErro:
  00038	00		 DB	 0
  00039	03		 DB	 3
  0003a	03		 DB	 3
  0003b	03		 DB	 3
  0003c	03		 DB	 3
  0003d	03		 DB	 3
  0003e	03		 DB	 3
  0003f	03		 DB	 3
  00040	03		 DB	 3
  00041	03		 DB	 3
  00042	03		 DB	 3
  00043	03		 DB	 3
  00044	01		 DB	 1
  00045	03		 DB	 3
  00046	03		 DB	 3
  00047	03		 DB	 3
  00048	03		 DB	 3
  00049	03		 DB	 3
  0004a	03		 DB	 3
  0004b	03		 DB	 3
  0004c	03		 DB	 3
  0004d	03		 DB	 3
  0004e	02		 DB	 2
  0004f	03		 DB	 3
  00050	03		 DB	 3
  00051	03		 DB	 3
  00052	03		 DB	 3
  00053	03		 DB	 3
  00054	03		 DB	 3
  00055	03		 DB	 3
  00056	03		 DB	 3
  00057	03		 DB	 3
  00058	03		 DB	 3
  00059	03		 DB	 3
  0005a	02		 DB	 2
  0005b	03		 DB	 3
  0005c	03		 DB	 3
  0005d	03		 DB	 3
  0005e	03		 DB	 3
  0005f	03		 DB	 3
  00060	03		 DB	 3
  00061	03		 DB	 3
  00062	03		 DB	 3
  00063	03		 DB	 3
  00064	03		 DB	 3
  00065	03		 DB	 3
  00066	03		 DB	 3
  00067	03		 DB	 3
  00068	03		 DB	 3
  00069	03		 DB	 3
  0006a	03		 DB	 3
  0006b	03		 DB	 3
  0006c	03		 DB	 3
  0006d	03		 DB	 3
  0006e	03		 DB	 3
  0006f	03		 DB	 3
  00070	03		 DB	 3
  00071	03		 DB	 3
  00072	03		 DB	 3
  00073	03		 DB	 3
  00074	03		 DB	 3
  00075	03		 DB	 3
  00076	03		 DB	 3
  00077	03		 DB	 3
  00078	03		 DB	 3
  00079	03		 DB	 3
  0007a	03		 DB	 3
  0007b	03		 DB	 3
  0007c	03		 DB	 3
  0007d	03		 DB	 3
  0007e	03		 DB	 3
  0007f	03		 DB	 3
  00080	03		 DB	 3
  00081	03		 DB	 3
  00082	03		 DB	 3
  00083	03		 DB	 3
  00084	03		 DB	 3
  00085	03		 DB	 3
  00086	03		 DB	 3
  00087	03		 DB	 3
  00088	00		 DB	 0
?AfxCrtErrorCheck@@YAHH@Z ENDP				; AfxCrtErrorCheck
_TEXT	ENDS
; Function compile flags: /Ogtp
; File D:\git\src\IBK\IBK_DRFN\ProjSrc\SrcDrfn\Chart\INDEXOPTIMIZER\DlgTrade.cpp
;	COMDAT ?__empty_global_delete@@YAXPAXI@Z
_TEXT	SEGMENT
___formal$ = 8						; size = 4
___formal$ = 12						; size = 4
?__empty_global_delete@@YAXPAXI@Z PROC			; __empty_global_delete, COMDAT

  00000	c2 00 00	 ret	 0
?__empty_global_delete@@YAXPAXI@Z ENDP			; __empty_global_delete
_TEXT	ENDS
; Function compile flags: /Ogtp
; File D:\git\src\IBK\IBK_DRFN\ProjSrc\SrcDrfn\Chart\INDEXOPTIMIZER\DlgTrade.cpp
;	COMDAT ?__empty_global_delete@@YAXPAX@Z
_TEXT	SEGMENT
___formal$ = 8						; size = 4
?__empty_global_delete@@YAXPAX@Z PROC			; __empty_global_delete, COMDAT

  00000	c2 00 00	 ret	 0
?__empty_global_delete@@YAXPAX@Z ENDP			; __empty_global_delete
_TEXT	ENDS
; Function compile flags: /Ogtp
;	COMDAT ??_H@YGXPAXIIP6EPAX0@Z@Z
_TEXT	SEGMENT
___t$ = 8						; size = 4
___s$ = 12						; size = 4
___n$ = 16						; size = 4
___f$ = 20						; size = 4
??_H@YGXPAXIIP6EPAX0@Z@Z PROC				; `vector constructor iterator', COMDAT
  00000	55		 push	 ebp
  00001	8b ec		 mov	 ebp, esp
  00003	56		 push	 esi
  00004	8b 75 10	 mov	 esi, DWORD PTR ___n$[ebp]
  00007	85 f6		 test	 esi, esi
  00009	74 16		 je	 SHORT $LN6@vector
  0000b	53		 push	 ebx
  0000c	8b 5d 14	 mov	 ebx, DWORD PTR ___f$[ebp]
  0000f	57		 push	 edi
  00010	8b 7d 08	 mov	 edi, DWORD PTR ___t$[ebp]
$LL2@vector:
  00013	8b cf		 mov	 ecx, edi
  00015	ff d3		 call	 ebx
  00017	03 7d 0c	 add	 edi, DWORD PTR ___s$[ebp]
  0001a	83 ee 01	 sub	 esi, 1
  0001d	75 f4		 jne	 SHORT $LL2@vector
  0001f	5f		 pop	 edi
  00020	5b		 pop	 ebx
$LN6@vector:
  00021	5e		 pop	 esi
  00022	5d		 pop	 ebp
  00023	c2 10 00	 ret	 16			; 00000010H
??_H@YGXPAXIIP6EPAX0@Z@Z ENDP				; `vector constructor iterator'
_TEXT	ENDS
END
