; Listing generated by Microsoft (R) Optimizing Compiler Version 19.29.30145.0 

	TITLE	D:\git\src\IBK\IBK_DRFN\#DRfn-CS\_Obj\IndexOptimizer\STGfxOutBarCtrl.obj
	.686P
	.XMM
	include listing.inc
	.model	flat

INCLUDELIB MSVCRT
INCLUDELIB OLDNAMES

PUBLIC	?__empty_global_delete@@YAXPAX@Z		; __empty_global_delete
PUBLIC	?__empty_global_delete@@YAXPAXI@Z		; __empty_global_delete
PUBLIC	??1CObject@@UAE@XZ				; CObject::~CObject
PUBLIC	??3CObject@@SGXPAX@Z				; CObject::operator delete
PUBLIC	?Serialize@CObject@@UAEXAAVCArchive@@@Z		; CObject::Serialize
PUBLIC	?AssertValid@CObject@@UBEXXZ			; CObject::AssertValid
PUBLIC	?Dump@CObject@@UBEXAAVCDumpContext@@@Z		; CObject::Dump
PUBLIC	??1CGdiObject@@UAE@XZ				; CGdiObject::~CGdiObject
PUBLIC	??_GCGdiObject@@UAEPAXI@Z			; CGdiObject::`scalar deleting destructor'
PUBLIC	??1CPen@@UAE@XZ					; CPen::~CPen
PUBLIC	??_GCPen@@UAEPAXI@Z				; CPen::`scalar deleting destructor'
PUBLIC	??1CFont@@UAE@XZ				; CFont::~CFont
PUBLIC	??_GCFont@@UAEPAXI@Z				; CFont::`scalar deleting destructor'
PUBLIC	??1CBitmap@@UAE@XZ				; CBitmap::~CBitmap
PUBLIC	??_GCBitmap@@UAEPAXI@Z				; CBitmap::`scalar deleting destructor'
PUBLIC	??1CRgn@@UAE@XZ					; CRgn::~CRgn
PUBLIC	??_GCRgn@@UAEPAXI@Z				; CRgn::`scalar deleting destructor'
PUBLIC	?DrawTextA@CDC@@UAEHPBDHPAUtagRECT@@I@Z		; CDC::DrawTextA
PUBLIC	?DoDataExchange@CWnd@@MAEXPAVCDataExchange@@@Z	; CWnd::DoDataExchange
PUBLIC	?BeginModalState@CWnd@@UAEXXZ			; CWnd::BeginModalState
PUBLIC	?EndModalState@CWnd@@UAEXXZ			; CWnd::EndModalState
PUBLIC	?_GetBaseClass@CSTGfxOutBarCtrl@@KGPAUCRuntimeClass@@XZ ; CSTGfxOutBarCtrl::_GetBaseClass
PUBLIC	?GetThisClass@CSTGfxOutBarCtrl@@SGPAUCRuntimeClass@@XZ ; CSTGfxOutBarCtrl::GetThisClass
PUBLIC	?GetRuntimeClass@CSTGfxOutBarCtrl@@UBEPAUCRuntimeClass@@XZ ; CSTGfxOutBarCtrl::GetRuntimeClass
PUBLIC	?CreateObject@CSTGfxOutBarCtrl@@SGPAVCObject@@XZ ; CSTGfxOutBarCtrl::CreateObject
PUBLIC	??0CSTGfxOutBarCtrl@@QAE@XZ			; CSTGfxOutBarCtrl::CSTGfxOutBarCtrl
PUBLIC	??0CBarItem@CSTGfxOutBarCtrl@@QAE@PBDHK@Z	; CSTGfxOutBarCtrl::CBarItem::CBarItem
PUBLIC	??1CBarItem@CSTGfxOutBarCtrl@@UAE@XZ		; CSTGfxOutBarCtrl::CBarItem::~CBarItem
PUBLIC	??_GCBarItem@CSTGfxOutBarCtrl@@UAEPAXI@Z	; CSTGfxOutBarCtrl::CBarItem::`scalar deleting destructor'
PUBLIC	??0CBarFolder@CSTGfxOutBarCtrl@@QAE@PBDK@Z	; CSTGfxOutBarCtrl::CBarFolder::CBarFolder
PUBLIC	??1CBarFolder@CSTGfxOutBarCtrl@@UAE@XZ		; CSTGfxOutBarCtrl::CBarFolder::~CBarFolder
PUBLIC	?GetItemCount@CBarFolder@CSTGfxOutBarCtrl@@QAEHXZ ; CSTGfxOutBarCtrl::CBarFolder::GetItemCount
PUBLIC	?InsertItem@CBarFolder@CSTGfxOutBarCtrl@@QAEHHPBDHK@Z ; CSTGfxOutBarCtrl::CBarFolder::InsertItem
PUBLIC	??_GCBarFolder@CSTGfxOutBarCtrl@@UAEPAXI@Z	; CSTGfxOutBarCtrl::CBarFolder::`scalar deleting destructor'
PUBLIC	?OnCommand@CSTGfxOutBarCtrl@@MAEHIJ@Z		; CSTGfxOutBarCtrl::OnCommand
PUBLIC	?DeleteAllFolder@CSTGfxOutBarCtrl@@QAEXXZ	; CSTGfxOutBarCtrl::DeleteAllFolder
PUBLIC	?DrawAnimItem@CSTGfxOutBarCtrl@@QAEXHHH@Z	; CSTGfxOutBarCtrl::DrawAnimItem
PUBLIC	?SetAnimSelHighlight@CSTGfxOutBarCtrl@@QAEXH@Z	; CSTGfxOutBarCtrl::SetAnimSelHighlight
PUBLIC	?GetFolderData@CSTGfxOutBarCtrl@@QAEKH@Z	; CSTGfxOutBarCtrl::GetFolderData
PUBLIC	?GetFolderChild@CSTGfxOutBarCtrl@@QAEPAVCWnd@@H@Z ; CSTGfxOutBarCtrl::GetFolderChild
PUBLIC	?AddFolderBar@CSTGfxOutBarCtrl@@QAEHPBDPAVCWnd@@K@Z ; CSTGfxOutBarCtrl::AddFolderBar
PUBLIC	?GetItemText@CSTGfxOutBarCtrl@@QAE?AV?$CStringT@DV?$StrTraitMFC_DLL@DV?$ChTraitsCRT@D@ATL@@@@@ATL@@H@Z ; CSTGfxOutBarCtrl::GetItemText
PUBLIC	?AnimateFolderScroll@CSTGfxOutBarCtrl@@QAEXHH@Z	; CSTGfxOutBarCtrl::AnimateFolderScroll
PUBLIC	?GetDragItemRect@CSTGfxOutBarCtrl@@QAEHHAAVCRect@@@Z ; CSTGfxOutBarCtrl::GetDragItemRect
PUBLIC	?DrawDragArrow@CSTGfxOutBarCtrl@@QAEXPAVCDC@@HH@Z ; CSTGfxOutBarCtrl::DrawDragArrow
PUBLIC	?SetItemImage@CSTGfxOutBarCtrl@@QAEXHH@Z	; CSTGfxOutBarCtrl::SetItemImage
PUBLIC	?SetItemData@CSTGfxOutBarCtrl@@QAEXHK@Z		; CSTGfxOutBarCtrl::SetItemData
PUBLIC	?GetItemImage@CSTGfxOutBarCtrl@@QBEHH@Z		; CSTGfxOutBarCtrl::GetItemImage
PUBLIC	?GetItemData@CSTGfxOutBarCtrl@@QBEKH@Z		; CSTGfxOutBarCtrl::GetItemData
PUBLIC	?IsValidItem@CSTGfxOutBarCtrl@@QBE_NH@Z		; CSTGfxOutBarCtrl::IsValidItem
PUBLIC	?RemoveItem@CSTGfxOutBarCtrl@@QAEXH@Z		; CSTGfxOutBarCtrl::RemoveItem
PUBLIC	?SetItemText@CSTGfxOutBarCtrl@@QAEXHPBD@Z	; CSTGfxOutBarCtrl::SetItemText
PUBLIC	?SetFolderText@CSTGfxOutBarCtrl@@QAEXHPBD@Z	; CSTGfxOutBarCtrl::SetFolderText
PUBLIC	?GetLabelRect@CSTGfxOutBarCtrl@@QAEXHHAAVCRect@@@Z ; CSTGfxOutBarCtrl::GetLabelRect
PUBLIC	?GetIconRect@CSTGfxOutBarCtrl@@QAEXHHAAVCRect@@@Z ; CSTGfxOutBarCtrl::GetIconRect
PUBLIC	?HighlightItem@CSTGfxOutBarCtrl@@QAEXH_N@Z	; CSTGfxOutBarCtrl::HighlightItem
PUBLIC	?GetVisibleRange@CSTGfxOutBarCtrl@@QAEXHAAH0@Z	; CSTGfxOutBarCtrl::GetVisibleRange
PUBLIC	?DrawItem@CSTGfxOutBarCtrl@@QAEXPAVCDC@@HVCRect@@H_N@Z ; CSTGfxOutBarCtrl::DrawItem
PUBLIC	?GetFolderImageList@CSTGfxOutBarCtrl@@QBEPAVCImageList@@H_N@Z ; CSTGfxOutBarCtrl::GetFolderImageList
PUBLIC	?GetItemSize@CSTGfxOutBarCtrl@@QAE?AVCSize@@HHH@Z ; CSTGfxOutBarCtrl::GetItemSize
PUBLIC	?PaintItems@CSTGfxOutBarCtrl@@QAEXPAVCDC@@HVCRect@@@Z ; CSTGfxOutBarCtrl::PaintItems
PUBLIC	?GetImageList@CSTGfxOutBarCtrl@@QAEPAVCImageList@@H@Z ; CSTGfxOutBarCtrl::GetImageList
PUBLIC	?SetFolderImageList@CSTGfxOutBarCtrl@@QAEPAVCImageList@@HPAV2@H@Z ; CSTGfxOutBarCtrl::SetFolderImageList
PUBLIC	?SetImageList@CSTGfxOutBarCtrl@@QAEPAVCImageList@@PAV2@H@Z ; CSTGfxOutBarCtrl::SetImageList
PUBLIC	?GetCountPerPage@CSTGfxOutBarCtrl@@QBEHXZ	; CSTGfxOutBarCtrl::GetCountPerPage
PUBLIC	?RemoveFolder@CSTGfxOutBarCtrl@@QAEXH@Z		; CSTGfxOutBarCtrl::RemoveFolder
PUBLIC	?GetSelFolder@CSTGfxOutBarCtrl@@QBEHXZ		; CSTGfxOutBarCtrl::GetSelFolder
PUBLIC	?GetFolderCount@CSTGfxOutBarCtrl@@QBEHXZ	; CSTGfxOutBarCtrl::GetFolderCount
PUBLIC	?SetSelFolder@CSTGfxOutBarCtrl@@QAEXH@Z		; CSTGfxOutBarCtrl::SetSelFolder
PUBLIC	?GetItemCount@CSTGfxOutBarCtrl@@QBEHXZ		; CSTGfxOutBarCtrl::GetItemCount
PUBLIC	?InsertItem@CSTGfxOutBarCtrl@@QAEHHHPBDHK@Z	; CSTGfxOutBarCtrl::InsertItem
PUBLIC	?HighlightFolder@CSTGfxOutBarCtrl@@QAEXH@Z	; CSTGfxOutBarCtrl::HighlightFolder
PUBLIC	?HitTestEx@CSTGfxOutBarCtrl@@QAEHABVCPoint@@AAH@Z ; CSTGfxOutBarCtrl::HitTestEx
PUBLIC	?GetInsideRect@CSTGfxOutBarCtrl@@QBEXAAVCRect@@@Z ; CSTGfxOutBarCtrl::GetInsideRect
PUBLIC	?AddFolder@CSTGfxOutBarCtrl@@QAEHPBDK@Z		; CSTGfxOutBarCtrl::AddFolder
PUBLIC	?GetItemRect@CSTGfxOutBarCtrl@@QAEXHHAAVCRect@@@Z ; CSTGfxOutBarCtrl::GetItemRect
PUBLIC	?GetFolderRect@CSTGfxOutBarCtrl@@QBE_NHAAVCRect@@@Z ; CSTGfxOutBarCtrl::GetFolderRect
PUBLIC	?ModifyFlag@CSTGfxOutBarCtrl@@QAEXABK0I@Z	; CSTGfxOutBarCtrl::ModifyFlag
PUBLIC	?GetFlag@CSTGfxOutBarCtrl@@QBEKXZ		; CSTGfxOutBarCtrl::GetFlag
PUBLIC	?SetSmallIconView@CSTGfxOutBarCtrl@@QAEX_N@Z	; CSTGfxOutBarCtrl::SetSmallIconView
PUBLIC	?IsSmallIconView@CSTGfxOutBarCtrl@@QBE_NXZ	; CSTGfxOutBarCtrl::IsSmallIconView
PUBLIC	?Create@CSTGfxOutBarCtrl@@QAEHKABUtagRECT@@PAVCWnd@@IK@Z ; CSTGfxOutBarCtrl::Create
PUBLIC	??1CSTGfxOutBarCtrl@@UAE@XZ			; CSTGfxOutBarCtrl::~CSTGfxOutBarCtrl
PUBLIC	?SetFolderImageList@CSTGfxOutBarCtrl@@QAEXPAVCImageList@@HHH@Z ; CSTGfxOutBarCtrl::SetFolderImageList
PUBLIC	?DrawFolder@CSTGfxOutBarCtrl@@IAEXPAVCDC@@HVCRect@@_N@Z ; CSTGfxOutBarCtrl::DrawFolder
PUBLIC	?OnCreate@CSTGfxOutBarCtrl@@IAEHPAUtagCREATESTRUCTA@@@Z ; CSTGfxOutBarCtrl::OnCreate
PUBLIC	?OnDestroy@CSTGfxOutBarCtrl@@IAEXXZ		; CSTGfxOutBarCtrl::OnDestroy
PUBLIC	?OnTimer@CSTGfxOutBarCtrl@@IAEXI@Z		; CSTGfxOutBarCtrl::OnTimer
PUBLIC	?OnPaint@CSTGfxOutBarCtrl@@IAEXXZ		; CSTGfxOutBarCtrl::OnPaint
PUBLIC	?OnEraseBkgnd@CSTGfxOutBarCtrl@@IAEHPAVCDC@@@Z	; CSTGfxOutBarCtrl::OnEraseBkgnd
PUBLIC	?OnMouseMove@CSTGfxOutBarCtrl@@IAEXIVCPoint@@@Z	; CSTGfxOutBarCtrl::OnMouseMove
PUBLIC	?OnLButtonDown@CSTGfxOutBarCtrl@@IAEXIVCPoint@@@Z ; CSTGfxOutBarCtrl::OnLButtonDown
PUBLIC	?OnSize@CSTGfxOutBarCtrl@@IAEXIHH@Z		; CSTGfxOutBarCtrl::OnSize
PUBLIC	?OnRButtonDown@CSTGfxOutBarCtrl@@IAEXIVCPoint@@@Z ; CSTGfxOutBarCtrl::OnRButtonDown
PUBLIC	?OnSetCursor@CSTGfxOutBarCtrl@@IAEHPAVCWnd@@II@Z ; CSTGfxOutBarCtrl::OnSetCursor
PUBLIC	?GetThisMessageMap@CSTGfxOutBarCtrl@@KGPBUAFX_MSGMAP@@XZ ; CSTGfxOutBarCtrl::GetThisMessageMap
PUBLIC	?GetMessageMap@CSTGfxOutBarCtrl@@MBEPBUAFX_MSGMAP@@XZ ; CSTGfxOutBarCtrl::GetMessageMap
PUBLIC	??_GCSTGfxOutBarCtrl@@UAEPAXI@Z			; CSTGfxOutBarCtrl::`scalar deleting destructor'
PUBLIC	??0CImpl_IGfxOutBarCtrl@@QAE@XZ			; CImpl_IGfxOutBarCtrl::CImpl_IGfxOutBarCtrl
PUBLIC	?GetCoutBarCtrl@CImpl_IGfxOutBarCtrl@@UAGPAVCWnd@@XZ ; CImpl_IGfxOutBarCtrl::GetCoutBarCtrl
PUBLIC	?CreateOutBar@CImpl_IGfxOutBarCtrl@@UAGHKABUtagRECT@@PAVCWnd@@IK@Z ; CImpl_IGfxOutBarCtrl::CreateOutBar
PUBLIC	?Setcr3dFace@CImpl_IGfxOutBarCtrl@@UAGXK@Z	; CImpl_IGfxOutBarCtrl::Setcr3dFace
PUBLIC	?Setcr3dUnFace@CImpl_IGfxOutBarCtrl@@UAGXK@Z	; CImpl_IGfxOutBarCtrl::Setcr3dUnFace
PUBLIC	?SetImageList@CImpl_IGfxOutBarCtrl@@UAGPAVCImageList@@PAV2@H@Z ; CImpl_IGfxOutBarCtrl::SetImageList
PUBLIC	?SetFolderImageList@CImpl_IGfxOutBarCtrl@@UAGXPAVCImageList@@HHH@Z ; CImpl_IGfxOutBarCtrl::SetFolderImageList
PUBLIC	?AddFolderBar@CImpl_IGfxOutBarCtrl@@UAGHPBDPAVCWnd@@@Z ; CImpl_IGfxOutBarCtrl::AddFolderBar
PUBLIC	?SetSelFolder@CImpl_IGfxOutBarCtrl@@UAGXH@Z	; CImpl_IGfxOutBarCtrl::SetSelFolder
PUBLIC	??_R0PAVCException@@@8				; CException * `RTTI Type Descriptor'
PUBLIC	??_7CGdiObject@@6B@				; CGdiObject::`vftable'
PUBLIC	??_7CPen@@6B@					; CPen::`vftable'
PUBLIC	??_7CFont@@6B@					; CFont::`vftable'
PUBLIC	??_7CBitmap@@6B@				; CBitmap::`vftable'
PUBLIC	??_7CRgn@@6B@					; CRgn::`vftable'
PUBLIC	??_C@_0HD@JJCHHHNK@C?3?2Program?5Files?5?$CIx86?$CJ?2Microsof@ ; `string'
PUBLIC	??_C@_0BP@OIEOKIDM@Exception?5thrown?5in?5destructor@ ; `string'
PUBLIC	??_C@_0BB@HBOOMJBF@?$CFTs?5?$CI?$CFTs?3?$CFd?$CJ?6?$CFTs@ ; `string'
PUBLIC	??_C@_0N@OMEMOKLE@?$CFTs?5?$CI?$CFTs?3?$CFd?$CJ@ ; `string'
PUBLIC	??_R0?AVCObject@@@8				; CObject `RTTI Type Descriptor'
PUBLIC	??_R3CObject@@8					; CObject::`RTTI Class Hierarchy Descriptor'
PUBLIC	??_R2CObject@@8					; CObject::`RTTI Base Class Array'
PUBLIC	??_R1A@?0A@EA@CObject@@8			; CObject::`RTTI Base Class Descriptor at (0,-1,0,64)'
PUBLIC	??_R4CGdiObject@@6B@				; CGdiObject::`RTTI Complete Object Locator'
PUBLIC	??_R0?AVCGdiObject@@@8				; CGdiObject `RTTI Type Descriptor'
PUBLIC	??_R3CGdiObject@@8				; CGdiObject::`RTTI Class Hierarchy Descriptor'
PUBLIC	??_R2CGdiObject@@8				; CGdiObject::`RTTI Base Class Array'
PUBLIC	??_R1A@?0A@EA@CGdiObject@@8			; CGdiObject::`RTTI Base Class Descriptor at (0,-1,0,64)'
PUBLIC	??_R4CPen@@6B@					; CPen::`RTTI Complete Object Locator'
PUBLIC	??_R0?AVCPen@@@8				; CPen `RTTI Type Descriptor'
PUBLIC	??_R3CPen@@8					; CPen::`RTTI Class Hierarchy Descriptor'
PUBLIC	??_R2CPen@@8					; CPen::`RTTI Base Class Array'
PUBLIC	??_R1A@?0A@EA@CPen@@8				; CPen::`RTTI Base Class Descriptor at (0,-1,0,64)'
PUBLIC	??_R4CFont@@6B@					; CFont::`RTTI Complete Object Locator'
PUBLIC	??_R0?AVCFont@@@8				; CFont `RTTI Type Descriptor'
PUBLIC	??_R3CFont@@8					; CFont::`RTTI Class Hierarchy Descriptor'
PUBLIC	??_R2CFont@@8					; CFont::`RTTI Base Class Array'
PUBLIC	??_R1A@?0A@EA@CFont@@8				; CFont::`RTTI Base Class Descriptor at (0,-1,0,64)'
PUBLIC	??_R4CBitmap@@6B@				; CBitmap::`RTTI Complete Object Locator'
PUBLIC	??_R0?AVCBitmap@@@8				; CBitmap `RTTI Type Descriptor'
PUBLIC	??_R3CBitmap@@8					; CBitmap::`RTTI Class Hierarchy Descriptor'
PUBLIC	??_R2CBitmap@@8					; CBitmap::`RTTI Base Class Array'
PUBLIC	??_R1A@?0A@EA@CBitmap@@8			; CBitmap::`RTTI Base Class Descriptor at (0,-1,0,64)'
PUBLIC	??_R4CRgn@@6B@					; CRgn::`RTTI Complete Object Locator'
PUBLIC	??_R0?AVCRgn@@@8				; CRgn `RTTI Type Descriptor'
PUBLIC	??_R3CRgn@@8					; CRgn::`RTTI Class Hierarchy Descriptor'
PUBLIC	??_R2CRgn@@8					; CRgn::`RTTI Base Class Array'
PUBLIC	??_R1A@?0A@EA@CRgn@@8				; CRgn::`RTTI Base Class Descriptor at (0,-1,0,64)'
PUBLIC	??_R1A@?0A@EA@CWnd@@8				; CWnd::`RTTI Base Class Descriptor at (0,-1,0,64)'
PUBLIC	??_R0?AVCWnd@@@8				; CWnd `RTTI Type Descriptor'
PUBLIC	??_R3CWnd@@8					; CWnd::`RTTI Class Hierarchy Descriptor'
PUBLIC	??_R2CWnd@@8					; CWnd::`RTTI Base Class Array'
PUBLIC	??_R1A@?0A@EA@CCmdTarget@@8			; CCmdTarget::`RTTI Base Class Descriptor at (0,-1,0,64)'
PUBLIC	??_R0?AVCCmdTarget@@@8				; CCmdTarget `RTTI Type Descriptor'
PUBLIC	??_R3CCmdTarget@@8				; CCmdTarget::`RTTI Class Hierarchy Descriptor'
PUBLIC	??_R2CCmdTarget@@8				; CCmdTarget::`RTTI Base Class Array'
PUBLIC	??_7IGfxOutBarCtrl@@6B@				; IGfxOutBarCtrl::`vftable'
PUBLIC	??_7IGfxOutBarCtrl2@@6B@			; IGfxOutBarCtrl2::`vftable'
PUBLIC	?classCSTGfxOutBarCtrl@CSTGfxOutBarCtrl@@2UCRuntimeClass@@B ; CSTGfxOutBarCtrl::classCSTGfxOutBarCtrl
PUBLIC	??_7CBarItem@CSTGfxOutBarCtrl@@6B@		; CSTGfxOutBarCtrl::CBarItem::`vftable'
PUBLIC	??_7CBarFolder@CSTGfxOutBarCtrl@@6B@		; CSTGfxOutBarCtrl::CBarFolder::`vftable'
PUBLIC	??_7CSTGfxOutBarCtrl@@6B@			; CSTGfxOutBarCtrl::`vftable'
PUBLIC	??_7CImpl_IGfxOutBarCtrl@@6B@			; CImpl_IGfxOutBarCtrl::`vftable'
PUBLIC	??_C@_0BB@OIKDPAKN@CSTGfxOutBarCtrl@		; `string'
PUBLIC	??_C@_06MFMMLLPC@?$LB?$LM?$LI?$LC?C?$LM@	; `string'
PUBLIC	??_R4IGfxOutBarCtrl@@6B@			; IGfxOutBarCtrl::`RTTI Complete Object Locator'
PUBLIC	??_R0?AUIGfxOutBarCtrl@@@8			; IGfxOutBarCtrl `RTTI Type Descriptor'
PUBLIC	??_R3IGfxOutBarCtrl@@8				; IGfxOutBarCtrl::`RTTI Class Hierarchy Descriptor'
PUBLIC	??_R2IGfxOutBarCtrl@@8				; IGfxOutBarCtrl::`RTTI Base Class Array'
PUBLIC	??_R1A@?0A@EA@IGfxOutBarCtrl@@8			; IGfxOutBarCtrl::`RTTI Base Class Descriptor at (0,-1,0,64)'
PUBLIC	??_R4IGfxOutBarCtrl2@@6B@			; IGfxOutBarCtrl2::`RTTI Complete Object Locator'
PUBLIC	??_R0?AUIGfxOutBarCtrl2@@@8			; IGfxOutBarCtrl2 `RTTI Type Descriptor'
PUBLIC	??_R3IGfxOutBarCtrl2@@8				; IGfxOutBarCtrl2::`RTTI Class Hierarchy Descriptor'
PUBLIC	??_R2IGfxOutBarCtrl2@@8				; IGfxOutBarCtrl2::`RTTI Base Class Array'
PUBLIC	??_R1A@?0A@EA@IGfxOutBarCtrl2@@8		; IGfxOutBarCtrl2::`RTTI Base Class Descriptor at (0,-1,0,64)'
PUBLIC	??_R4CSTGfxOutBarCtrl@@6B@			; CSTGfxOutBarCtrl::`RTTI Complete Object Locator'
PUBLIC	??_R0?AVCSTGfxOutBarCtrl@@@8			; CSTGfxOutBarCtrl `RTTI Type Descriptor'
PUBLIC	??_R3CSTGfxOutBarCtrl@@8			; CSTGfxOutBarCtrl::`RTTI Class Hierarchy Descriptor'
PUBLIC	??_R2CSTGfxOutBarCtrl@@8			; CSTGfxOutBarCtrl::`RTTI Base Class Array'
PUBLIC	??_R1A@?0A@EA@CSTGfxOutBarCtrl@@8		; CSTGfxOutBarCtrl::`RTTI Base Class Descriptor at (0,-1,0,64)'
PUBLIC	??_R4CBarItem@CSTGfxOutBarCtrl@@6B@		; CSTGfxOutBarCtrl::CBarItem::`RTTI Complete Object Locator'
PUBLIC	??_R0?AVCBarItem@CSTGfxOutBarCtrl@@@8		; CSTGfxOutBarCtrl::CBarItem `RTTI Type Descriptor'
PUBLIC	??_R3CBarItem@CSTGfxOutBarCtrl@@8		; CSTGfxOutBarCtrl::CBarItem::`RTTI Class Hierarchy Descriptor'
PUBLIC	??_R2CBarItem@CSTGfxOutBarCtrl@@8		; CSTGfxOutBarCtrl::CBarItem::`RTTI Base Class Array'
PUBLIC	??_R1A@?0A@EA@CBarItem@CSTGfxOutBarCtrl@@8	; CSTGfxOutBarCtrl::CBarItem::`RTTI Base Class Descriptor at (0,-1,0,64)'
PUBLIC	??_R4CBarFolder@CSTGfxOutBarCtrl@@6B@		; CSTGfxOutBarCtrl::CBarFolder::`RTTI Complete Object Locator'
PUBLIC	??_R0?AVCBarFolder@CSTGfxOutBarCtrl@@@8		; CSTGfxOutBarCtrl::CBarFolder `RTTI Type Descriptor'
PUBLIC	??_R3CBarFolder@CSTGfxOutBarCtrl@@8		; CSTGfxOutBarCtrl::CBarFolder::`RTTI Class Hierarchy Descriptor'
PUBLIC	??_R2CBarFolder@CSTGfxOutBarCtrl@@8		; CSTGfxOutBarCtrl::CBarFolder::`RTTI Base Class Array'
PUBLIC	??_R1A@?0A@EA@CBarFolder@CSTGfxOutBarCtrl@@8	; CSTGfxOutBarCtrl::CBarFolder::`RTTI Base Class Descriptor at (0,-1,0,64)'
PUBLIC	??_R4CImpl_IGfxOutBarCtrl@@6B@			; CImpl_IGfxOutBarCtrl::`RTTI Complete Object Locator'
PUBLIC	??_R0?AVCImpl_IGfxOutBarCtrl@@@8		; CImpl_IGfxOutBarCtrl `RTTI Type Descriptor'
PUBLIC	??_R3CImpl_IGfxOutBarCtrl@@8			; CImpl_IGfxOutBarCtrl::`RTTI Class Hierarchy Descriptor'
PUBLIC	??_R2CImpl_IGfxOutBarCtrl@@8			; CImpl_IGfxOutBarCtrl::`RTTI Base Class Array'
PUBLIC	??_R1A@?0A@EA@CImpl_IGfxOutBarCtrl@@8		; CImpl_IGfxOutBarCtrl::`RTTI Base Class Descriptor at (0,-1,0,64)'
PUBLIC	__xmm@00000190000000000000000000000000
EXTRN	__purecall:PROC
EXTRN	??2@YAPAXI@Z:PROC				; operator new
EXTRN	??3@YAXPAX@Z:PROC				; operator delete
EXTRN	??3@YAXPAXI@Z:PROC				; operator delete
EXTRN	?__global_delete@@YAXPAXI@Z:PROC		; __global_delete
EXTRN	??_U@YAPAXI@Z:PROC				; operator new[]
EXTRN	??_V@YAXPAX@Z:PROC				; operator delete[]
EXTRN	___std_terminate:PROC
EXTRN	__imp__Sleep@4:PROC
EXTRN	__imp__lstrcpyA@8:PROC
EXTRN	__imp__lstrlenA@4:PROC
EXTRN	__imp__BitBlt@36:PROC
EXTRN	__imp__CreateCompatibleBitmap@12:PROC
EXTRN	__imp__CreateCompatibleDC@4:PROC
EXTRN	__imp__CreateFontIndirectA@4:PROC
EXTRN	__imp__CreateRectRgnIndirect@4:PROC
EXTRN	__imp__GetTextExtentPoint32A@16:PROC
EXTRN	__imp__GetObjectA@12:PROC
EXTRN	__imp__DrawFrameControl@16:PROC
EXTRN	__imp__GetMessageA@16:PROC
EXTRN	__imp__DispatchMessageA@4:PROC
EXTRN	__imp__GetMessagePos@0:PROC
EXTRN	__imp__SendMessageA@16:PROC
EXTRN	__imp__IsChild@8:PROC
EXTRN	__imp__GetFocus@0:PROC
EXTRN	__imp__GetCapture@0:PROC
EXTRN	__imp__SetCapture@4:PROC
EXTRN	__imp__ReleaseCapture@0:PROC
EXTRN	__imp__SetTimer@16:PROC
EXTRN	__imp__KillTimer@8:PROC
EXTRN	__imp__EnableWindow@8:PROC
EXTRN	__imp__GetSystemMetrics@4:PROC
EXTRN	__imp__DrawTextA@20:PROC
EXTRN	__imp__UpdateWindow@4:PROC
EXTRN	__imp__InvalidateRect@12:PROC
EXTRN	__imp__GetClientRect@8:PROC
EXTRN	__imp__SetCursor@4:PROC
EXTRN	__imp__GetCursor@0:PROC
EXTRN	__imp__ScreenToClient@8:PROC
EXTRN	__imp__GetSysColor@4:PROC
EXTRN	__imp__SetRect@20:PROC
EXTRN	__imp__CopyRect@8:PROC
EXTRN	__imp__InflateRect@12:PROC
EXTRN	__imp__OffsetRect@12:PROC
EXTRN	__imp__PtInRect@12:PROC
EXTRN	__imp__GetParent@4:PROC
EXTRN	__imp__ImageList_Draw@24:PROC
EXTRN	__imp__ImageList_GetImageInfo@12:PROC
EXTRN	?AfxThrowInvalidArgException@@YGXXZ:PROC	; AfxThrowInvalidArgException
EXTRN	__imp_??0?$CStringT@DV?$StrTraitMFC_DLL@DV?$ChTraitsCRT@D@ATL@@@@@ATL@@QAE@XZ:PROC
EXTRN	__imp_??0?$CStringT@DV?$StrTraitMFC_DLL@DV?$ChTraitsCRT@D@ATL@@@@@ATL@@QAE@PBD@Z:PROC
EXTRN	__imp_??1?$CStringT@DV?$StrTraitMFC_DLL@DV?$ChTraitsCRT@D@ATL@@@@@ATL@@QAE@XZ:PROC
EXTRN	__imp_??4?$CStringT@DV?$StrTraitMFC_DLL@DV?$ChTraitsCRT@D@ATL@@@@@ATL@@QAEAAV01@PBD@Z:PROC
EXTRN	__imp_?Format@?$CStringT@DV?$StrTraitMFC_DLL@DV?$ChTraitsCRT@D@ATL@@@@@ATL@@QAAXPBDZZ:PROC
EXTRN	??0CPtrArray@@QAE@XZ:PROC			; CPtrArray::CPtrArray
EXTRN	?SetSize@CPtrArray@@QAEXHH@Z:PROC		; CPtrArray::SetSize
EXTRN	?SetAtGrow@CPtrArray@@QAEXHPAX@Z:PROC		; CPtrArray::SetAtGrow
EXTRN	?InsertAt@CPtrArray@@QAEXHPAXH@Z:PROC		; CPtrArray::InsertAt
EXTRN	?RemoveAt@CPtrArray@@QAEXHH@Z:PROC		; CPtrArray::RemoveAt
EXTRN	??1CPtrArray@@UAE@XZ:PROC			; CPtrArray::~CPtrArray
EXTRN	?GetRuntimeClass@CGdiObject@@UBEPAUCRuntimeClass@@XZ:PROC ; CGdiObject::GetRuntimeClass
EXTRN	?Attach@CGdiObject@@QAEHPAX@Z:PROC		; CGdiObject::Attach
EXTRN	?DeleteObject@CGdiObject@@QAEHXZ:PROC		; CGdiObject::DeleteObject
EXTRN	??_ECGdiObject@@UAEPAXI@Z:PROC			; CGdiObject::`vector deleting destructor'
EXTRN	?GetRuntimeClass@CPen@@UBEPAUCRuntimeClass@@XZ:PROC ; CPen::GetRuntimeClass
EXTRN	??0CPen@@QAE@HHK@Z:PROC				; CPen::CPen
EXTRN	??_ECPen@@UAEPAXI@Z:PROC			; CPen::`vector deleting destructor'
EXTRN	?GetRuntimeClass@CFont@@UBEPAUCRuntimeClass@@XZ:PROC ; CFont::GetRuntimeClass
EXTRN	??_ECFont@@UAEPAXI@Z:PROC			; CFont::`vector deleting destructor'
EXTRN	?GetRuntimeClass@CBitmap@@UBEPAUCRuntimeClass@@XZ:PROC ; CBitmap::GetRuntimeClass
EXTRN	??_ECBitmap@@UAEPAXI@Z:PROC			; CBitmap::`vector deleting destructor'
EXTRN	?GetRuntimeClass@CRgn@@UBEPAUCRuntimeClass@@XZ:PROC ; CRgn::GetRuntimeClass
EXTRN	??_ECRgn@@UAEPAXI@Z:PROC			; CRgn::`vector deleting destructor'
EXTRN	?Attach@CDC@@QAEHPAUHDC__@@@Z:PROC		; CDC::Attach
EXTRN	??0CDC@@QAE@XZ:PROC				; CDC::CDC
EXTRN	?SaveDC@CDC@@UAEHXZ:PROC			; CDC::SaveDC
EXTRN	?RestoreDC@CDC@@UAEHH@Z:PROC			; CDC::RestoreDC
EXTRN	?SelectObject@CDC@@QAEPAVCPen@@PAV2@@Z:PROC	; CDC::SelectObject
EXTRN	?SelectObject@CDC@@UAEPAVCFont@@PAV2@@Z:PROC	; CDC::SelectObject
EXTRN	?SetBkMode@CDC@@QAEHH@Z:PROC			; CDC::SetBkMode
EXTRN	?SetTextColor@CDC@@UAEKK@Z:PROC			; CDC::SetTextColor
EXTRN	?SelectClipRgn@CDC@@QAEHPAVCRgn@@@Z:PROC	; CDC::SelectClipRgn
EXTRN	?ExcludeClipRect@CDC@@QAEHPBUtagRECT@@@Z:PROC	; CDC::ExcludeClipRect
EXTRN	?MoveTo@CDC@@QAE?AVCPoint@@HH@Z:PROC		; CDC::MoveTo
EXTRN	?LineTo@CDC@@QAEHHH@Z:PROC			; CDC::LineTo
EXTRN	?FillSolidRect@CDC@@QAEXPBUtagRECT@@K@Z:PROC	; CDC::FillSolidRect
EXTRN	?Draw3dRect@CDC@@QAEXPBUtagRECT@@KK@Z:PROC	; CDC::Draw3dRect
EXTRN	??1CDC@@UAE@XZ:PROC				; CDC::~CDC
EXTRN	?SelectGdiObject@CDC@@KGPAVCGdiObject@@PAUHDC__@@PAX@Z:PROC ; CDC::SelectGdiObject
EXTRN	??0CPaintDC@@QAE@PAVCWnd@@@Z:PROC		; CPaintDC::CPaintDC
EXTRN	??1CPaintDC@@UAE@XZ:PROC			; CPaintDC::~CPaintDC
EXTRN	??0CClientDC@@QAE@PAVCWnd@@@Z:PROC		; CClientDC::CClientDC
EXTRN	??1CClientDC@@UAE@XZ:PROC			; CClientDC::~CClientDC
EXTRN	?OnCmdMsg@CCmdTarget@@UAEHIHPAXPAUAFX_CMDHANDLERINFO@@@Z:PROC ; CCmdTarget::OnCmdMsg
EXTRN	?IsInvokeAllowed@CCmdTarget@@UAEHJ@Z:PROC	; CCmdTarget::IsInvokeAllowed
EXTRN	?GetDispatchIID@CCmdTarget@@UAEHPAU_GUID@@@Z:PROC ; CCmdTarget::GetDispatchIID
EXTRN	?GetTypeInfoCount@CCmdTarget@@UAEIXZ:PROC	; CCmdTarget::GetTypeInfoCount
EXTRN	?GetTypeLibCache@CCmdTarget@@UAEPAVCTypeLibCache@@XZ:PROC ; CCmdTarget::GetTypeLibCache
EXTRN	?GetTypeLib@CCmdTarget@@UAEJKPAPAUITypeLib@@@Z:PROC ; CCmdTarget::GetTypeLib
EXTRN	?GetCommandMap@CCmdTarget@@MBEPBUAFX_OLECMDMAP@@XZ:PROC ; CCmdTarget::GetCommandMap
EXTRN	?GetDispatchMap@CCmdTarget@@MBEPBUAFX_DISPMAP@@XZ:PROC ; CCmdTarget::GetDispatchMap
EXTRN	?GetConnectionMap@CCmdTarget@@MBEPBUAFX_CONNECTIONMAP@@XZ:PROC ; CCmdTarget::GetConnectionMap
EXTRN	?GetEventSinkMap@CCmdTarget@@MBEPBUAFX_EVENTSINKMAP@@XZ:PROC ; CCmdTarget::GetEventSinkMap
EXTRN	?OnCreateAggregates@CCmdTarget@@UAEHXZ:PROC	; CCmdTarget::OnCreateAggregates
EXTRN	?GetInterfaceHook@CCmdTarget@@UAEPAUIUnknown@@PBX@Z:PROC ; CCmdTarget::GetInterfaceHook
EXTRN	?GetExtraConnectionPoints@CCmdTarget@@MAEHPAVCPtrArray@@@Z:PROC ; CCmdTarget::GetExtraConnectionPoints
EXTRN	?GetConnectionHook@CCmdTarget@@MAEPAUIConnectionPoint@@ABU_GUID@@@Z:PROC ; CCmdTarget::GetConnectionHook
EXTRN	?GetThisClass@CWnd@@SGPAUCRuntimeClass@@XZ:PROC	; CWnd::GetThisClass
EXTRN	??0CWnd@@QAE@XZ:PROC				; CWnd::CWnd
EXTRN	?FromHandle@CWnd@@SGPAV1@PAUHWND__@@@Z:PROC	; CWnd::FromHandle
EXTRN	?PreSubclassWindow@CWnd@@UAEXXZ:PROC		; CWnd::PreSubclassWindow
EXTRN	?Create@CWnd@@UAEHPBD0KABUtagRECT@@PAV1@IPAUCCreateContext@@@Z:PROC ; CWnd::Create
EXTRN	?CreateEx@CWnd@@UAEHKPBD0KHHHHPAUHWND__@@PAUHMENU__@@PAX@Z:PROC ; CWnd::CreateEx
EXTRN	?CreateEx@CWnd@@UAEHKPBD0KABUtagRECT@@PAV1@IPAX@Z:PROC ; CWnd::CreateEx
EXTRN	?DestroyWindow@CWnd@@UAEHXZ:PROC		; CWnd::DestroyWindow
EXTRN	?PreCreateWindow@CWnd@@UAEHAAUtagCREATESTRUCTA@@@Z:PROC ; CWnd::PreCreateWindow
EXTRN	?CalcWindowRect@CWnd@@UAEXPAUtagRECT@@I@Z:PROC	; CWnd::CalcWindowRect
EXTRN	?GetMenu@CWnd@@UBEPAVCMenu@@XZ:PROC		; CWnd::GetMenu
EXTRN	?SetMenu@CWnd@@UAEHPAVCMenu@@@Z:PROC		; CWnd::SetMenu
EXTRN	?MoveWindow@CWnd@@QAEXHHHHH@Z:PROC		; CWnd::MoveWindow
EXTRN	?SetWindowPos@CWnd@@QAEHPBV1@HHHHI@Z:PROC	; CWnd::SetWindowPos
EXTRN	?ShowWindow@CWnd@@QAEHH@Z:PROC			; CWnd::ShowWindow
EXTRN	?OnToolHitTest@CWnd@@UBEHVCPoint@@PAUtagTOOLINFOA@@@Z:PROC ; CWnd::OnToolHitTest
EXTRN	?SetFocus@CWnd@@QAEPAV1@XZ:PROC			; CWnd::SetFocus
EXTRN	?GetScrollBarCtrl@CWnd@@UBEPAVCScrollBar@@H@Z:PROC ; CWnd::GetScrollBarCtrl
EXTRN	?WinHelpA@CWnd@@UAEXKI@Z:PROC			; CWnd::WinHelpA
EXTRN	?HtmlHelpA@CWnd@@UAEXKI@Z:PROC			; CWnd::HtmlHelpA
EXTRN	?WinHelpInternal@CWnd@@UAEXKI@Z:PROC		; CWnd::WinHelpInternal
EXTRN	?ContinueModal@CWnd@@UAEHXZ:PROC		; CWnd::ContinueModal
EXTRN	?EndModalLoop@CWnd@@UAEXH@Z:PROC		; CWnd::EndModalLoop
EXTRN	?OnDrawIconicThumbnailOrLivePreview@CWnd@@UAEXAAVCDC@@VCRect@@VCSize@@HAAH@Z:PROC ; CWnd::OnDrawIconicThumbnailOrLivePreview
EXTRN	?GetInterfaceMap@CWnd@@MBEPBUAFX_INTERFACEMAP@@XZ:PROC ; CWnd::GetInterfaceMap
EXTRN	?EnsureStdObj@CWnd@@UAEJXZ:PROC			; CWnd::EnsureStdObj
EXTRN	?get_accParent@CWnd@@UAEJPAPAUIDispatch@@@Z:PROC ; CWnd::get_accParent
EXTRN	?get_accChildCount@CWnd@@UAEJPAJ@Z:PROC		; CWnd::get_accChildCount
EXTRN	?get_accChild@CWnd@@UAEJUtagVARIANT@@PAPAUIDispatch@@@Z:PROC ; CWnd::get_accChild
EXTRN	?get_accName@CWnd@@UAEJUtagVARIANT@@PAPA_W@Z:PROC ; CWnd::get_accName
EXTRN	?get_accValue@CWnd@@UAEJUtagVARIANT@@PAPA_W@Z:PROC ; CWnd::get_accValue
EXTRN	?get_accDescription@CWnd@@UAEJUtagVARIANT@@PAPA_W@Z:PROC ; CWnd::get_accDescription
EXTRN	?get_accRole@CWnd@@UAEJUtagVARIANT@@PAU2@@Z:PROC ; CWnd::get_accRole
EXTRN	?get_accState@CWnd@@UAEJUtagVARIANT@@PAU2@@Z:PROC ; CWnd::get_accState
EXTRN	?get_accHelp@CWnd@@UAEJUtagVARIANT@@PAPA_W@Z:PROC ; CWnd::get_accHelp
EXTRN	?get_accHelpTopic@CWnd@@UAEJPAPA_WUtagVARIANT@@PAJ@Z:PROC ; CWnd::get_accHelpTopic
EXTRN	?get_accKeyboardShortcut@CWnd@@UAEJUtagVARIANT@@PAPA_W@Z:PROC ; CWnd::get_accKeyboardShortcut
EXTRN	?get_accFocus@CWnd@@UAEJPAUtagVARIANT@@@Z:PROC	; CWnd::get_accFocus
EXTRN	?get_accSelection@CWnd@@UAEJPAUtagVARIANT@@@Z:PROC ; CWnd::get_accSelection
EXTRN	?get_accDefaultAction@CWnd@@UAEJUtagVARIANT@@PAPA_W@Z:PROC ; CWnd::get_accDefaultAction
EXTRN	?accSelect@CWnd@@UAEJJUtagVARIANT@@@Z:PROC	; CWnd::accSelect
EXTRN	?accLocation@CWnd@@UAEJPAJ000UtagVARIANT@@@Z:PROC ; CWnd::accLocation
EXTRN	?accNavigate@CWnd@@UAEJJUtagVARIANT@@PAU2@@Z:PROC ; CWnd::accNavigate
EXTRN	?accHitTest@CWnd@@UAEJJJPAUtagVARIANT@@@Z:PROC	; CWnd::accHitTest
EXTRN	?accDoDefaultAction@CWnd@@UAEJUtagVARIANT@@@Z:PROC ; CWnd::accDoDefaultAction
EXTRN	?put_accName@CWnd@@UAEJUtagVARIANT@@PA_W@Z:PROC	; CWnd::put_accName
EXTRN	?put_accValue@CWnd@@UAEJUtagVARIANT@@PA_W@Z:PROC ; CWnd::put_accValue
EXTRN	?SetProxy@CWnd@@UAEJPAUIAccessibleProxy@@@Z:PROC ; CWnd::SetProxy
EXTRN	?CreateAccessibleProxy@CWnd@@UAEJIJPAJ@Z:PROC	; CWnd::CreateAccessibleProxy
EXTRN	?OnCommand@CWnd@@MAEHIJ@Z:PROC			; CWnd::OnCommand
EXTRN	?OnNotify@CWnd@@MAEHIJPAJ@Z:PROC		; CWnd::OnNotify
EXTRN	?OnDestroy@CWnd@@IAEXXZ:PROC			; CWnd::OnDestroy
EXTRN	?GetSuperWndProcAddr@CWnd@@MAEPAP6GJPAUHWND__@@IIJ@ZXZ:PROC ; CWnd::GetSuperWndProcAddr
EXTRN	?PreTranslateMessage@CWnd@@UAEHPAUtagMSG@@@Z:PROC ; CWnd::PreTranslateMessage
EXTRN	?OnAmbientProperty@CWnd@@UAEHPAVCOleControlSite@@JPAUtagVARIANT@@@Z:PROC ; CWnd::OnAmbientProperty
EXTRN	?WindowProc@CWnd@@MAEJIIJ@Z:PROC		; CWnd::WindowProc
EXTRN	?OnWndMsg@CWnd@@MAEHIIJPAJ@Z:PROC		; CWnd::OnWndMsg
EXTRN	?Default@CWnd@@IAEJXZ:PROC			; CWnd::Default
EXTRN	?DefWindowProcA@CWnd@@MAEJIIJ@Z:PROC		; CWnd::DefWindowProcA
EXTRN	?PostNcDestroy@CWnd@@MAEXXZ:PROC		; CWnd::PostNcDestroy
EXTRN	?OnChildNotify@CWnd@@MAEHIIJPAJ@Z:PROC		; CWnd::OnChildNotify
EXTRN	?OnTouchInputs@CWnd@@MAEHIPAUtagTOUCHINPUT@@@Z:PROC ; CWnd::OnTouchInputs
EXTRN	?OnTouchInput@CWnd@@MAEHVCPoint@@HHPAUtagTOUCHINPUT@@@Z:PROC ; CWnd::OnTouchInput
EXTRN	?GetGestureStatus@CWnd@@MAEKVCPoint@@@Z:PROC	; CWnd::GetGestureStatus
EXTRN	?OnGestureZoom@CWnd@@MAEHVCPoint@@J@Z:PROC	; CWnd::OnGestureZoom
EXTRN	?OnGesturePan@CWnd@@MAEHVCPoint@@0@Z:PROC	; CWnd::OnGesturePan
EXTRN	?OnGestureRotate@CWnd@@MAEHVCPoint@@N@Z:PROC	; CWnd::OnGestureRotate
EXTRN	?OnGestureTwoFingerTap@CWnd@@MAEHVCPoint@@@Z:PROC ; CWnd::OnGestureTwoFingerTap
EXTRN	?OnGesturePressAndTap@CWnd@@MAEHVCPoint@@J@Z:PROC ; CWnd::OnGesturePressAndTap
EXTRN	?ResizeDynamicLayout@CWnd@@MAEXXZ:PROC		; CWnd::ResizeDynamicLayout
EXTRN	??1CWnd@@UAE@XZ:PROC				; CWnd::~CWnd
EXTRN	?CheckAutoCenter@CWnd@@UAEHXZ:PROC		; CWnd::CheckAutoCenter
EXTRN	?IsFrameWnd@CWnd@@UBEHXZ:PROC			; CWnd::IsFrameWnd
EXTRN	?OnFinalRelease@CWnd@@UAEXXZ:PROC		; CWnd::OnFinalRelease
EXTRN	?CreateControlContainer@CWnd@@MAEHPAPAVCOleControlContainer@@@Z:PROC ; CWnd::CreateControlContainer
EXTRN	?CreateControlSite@CWnd@@MAEHPAVCOleControlContainer@@PAPAVCOleControlSite@@IABU_GUID@@@Z:PROC ; CWnd::CreateControlSite
EXTRN	?SetOccDialogInfo@CWnd@@MAEHPAU_AFX_OCC_DIALOG_INFO@@@Z:PROC ; CWnd::SetOccDialogInfo
EXTRN	?GetOccDialogInfo@CWnd@@MAEPAU_AFX_OCC_DIALOG_INFO@@XZ:PROC ; CWnd::GetOccDialogInfo
EXTRN	?GetThisMessageMap@CWnd@@KGPBUAFX_MSGMAP@@XZ:PROC ; CWnd::GetThisMessageMap
EXTRN	?AfxMessageBox@@YGHPBDII@Z:PROC			; AfxMessageBox
EXTRN	?AfxLockTempMaps@@YGXXZ:PROC			; AfxLockTempMaps
EXTRN	?AfxUnlockTempMaps@@YGHH@Z:PROC			; AfxUnlockTempMaps
EXTRN	??_ECBarItem@CSTGfxOutBarCtrl@@UAEPAXI@Z:PROC	; CSTGfxOutBarCtrl::CBarItem::`vector deleting destructor'
EXTRN	??_ECBarFolder@CSTGfxOutBarCtrl@@UAEPAXI@Z:PROC	; CSTGfxOutBarCtrl::CBarFolder::`vector deleting destructor'
EXTRN	??_ECSTGfxOutBarCtrl@@UAEPAXI@Z:PROC		; CSTGfxOutBarCtrl::`vector deleting destructor'
EXTRN	@__security_check_cookie@4:PROC
EXTRN	___CxxFrameHandler3:PROC
EXTRN	_memset:PROC
EXTRN	??_7type_info@@6B@:QWORD			; type_info::`vftable'
EXTRN	___security_cookie:DWORD
;	COMDAT ?bOldPressed@?1??HighlightItem@CSTGfxOutBarCtrl@@QAEXH_N@Z@4_NA
_BSS	SEGMENT
?bOldPressed@?1??HighlightItem@CSTGfxOutBarCtrl@@QAEXH_N@Z@4_NA DB 01H DUP (?) ; `CSTGfxOutBarCtrl::HighlightItem'::`2'::bOldPressed
_BSS	ENDS
;	COMDAT __xmm@00000190000000000000000000000000
CONST	SEGMENT
__xmm@00000190000000000000000000000000 DB 00H, 00H, 00H, 00H, 00H, 00H, 00H
	DB	00H, 00H, 00H, 00H, 00H, 090H, 01H, 00H, 00H
CONST	ENDS
;	COMDAT ??_R1A@?0A@EA@CImpl_IGfxOutBarCtrl@@8
rdata$r	SEGMENT
??_R1A@?0A@EA@CImpl_IGfxOutBarCtrl@@8 DD FLAT:??_R0?AVCImpl_IGfxOutBarCtrl@@@8 ; CImpl_IGfxOutBarCtrl::`RTTI Base Class Descriptor at (0,-1,0,64)'
	DD	02H
	DD	00H
	DD	0ffffffffH
	DD	00H
	DD	040H
	DD	FLAT:??_R3CImpl_IGfxOutBarCtrl@@8
rdata$r	ENDS
;	COMDAT ??_R2CImpl_IGfxOutBarCtrl@@8
rdata$r	SEGMENT
??_R2CImpl_IGfxOutBarCtrl@@8 DD FLAT:??_R1A@?0A@EA@CImpl_IGfxOutBarCtrl@@8 ; CImpl_IGfxOutBarCtrl::`RTTI Base Class Array'
	DD	FLAT:??_R1A@?0A@EA@IGfxOutBarCtrl2@@8
	DD	FLAT:??_R1A@?0A@EA@IGfxOutBarCtrl@@8
rdata$r	ENDS
;	COMDAT ??_R3CImpl_IGfxOutBarCtrl@@8
rdata$r	SEGMENT
??_R3CImpl_IGfxOutBarCtrl@@8 DD 00H			; CImpl_IGfxOutBarCtrl::`RTTI Class Hierarchy Descriptor'
	DD	00H
	DD	03H
	DD	FLAT:??_R2CImpl_IGfxOutBarCtrl@@8
rdata$r	ENDS
;	COMDAT ??_R0?AVCImpl_IGfxOutBarCtrl@@@8
data$rs	SEGMENT
??_R0?AVCImpl_IGfxOutBarCtrl@@@8 DD FLAT:??_7type_info@@6B@ ; CImpl_IGfxOutBarCtrl `RTTI Type Descriptor'
	DD	00H
	DB	'.?AVCImpl_IGfxOutBarCtrl@@', 00H
data$rs	ENDS
;	COMDAT ??_R4CImpl_IGfxOutBarCtrl@@6B@
rdata$r	SEGMENT
??_R4CImpl_IGfxOutBarCtrl@@6B@ DD 00H			; CImpl_IGfxOutBarCtrl::`RTTI Complete Object Locator'
	DD	00H
	DD	00H
	DD	FLAT:??_R0?AVCImpl_IGfxOutBarCtrl@@@8
	DD	FLAT:??_R3CImpl_IGfxOutBarCtrl@@8
rdata$r	ENDS
;	COMDAT ??_R1A@?0A@EA@CBarFolder@CSTGfxOutBarCtrl@@8
rdata$r	SEGMENT
??_R1A@?0A@EA@CBarFolder@CSTGfxOutBarCtrl@@8 DD FLAT:??_R0?AVCBarFolder@CSTGfxOutBarCtrl@@@8 ; CSTGfxOutBarCtrl::CBarFolder::`RTTI Base Class Descriptor at (0,-1,0,64)'
	DD	00H
	DD	00H
	DD	0ffffffffH
	DD	00H
	DD	040H
	DD	FLAT:??_R3CBarFolder@CSTGfxOutBarCtrl@@8
rdata$r	ENDS
;	COMDAT ??_R2CBarFolder@CSTGfxOutBarCtrl@@8
rdata$r	SEGMENT
??_R2CBarFolder@CSTGfxOutBarCtrl@@8 DD FLAT:??_R1A@?0A@EA@CBarFolder@CSTGfxOutBarCtrl@@8 ; CSTGfxOutBarCtrl::CBarFolder::`RTTI Base Class Array'
rdata$r	ENDS
;	COMDAT ??_R3CBarFolder@CSTGfxOutBarCtrl@@8
rdata$r	SEGMENT
??_R3CBarFolder@CSTGfxOutBarCtrl@@8 DD 00H		; CSTGfxOutBarCtrl::CBarFolder::`RTTI Class Hierarchy Descriptor'
	DD	00H
	DD	01H
	DD	FLAT:??_R2CBarFolder@CSTGfxOutBarCtrl@@8
rdata$r	ENDS
;	COMDAT ??_R0?AVCBarFolder@CSTGfxOutBarCtrl@@@8
data$rs	SEGMENT
??_R0?AVCBarFolder@CSTGfxOutBarCtrl@@@8 DD FLAT:??_7type_info@@6B@ ; CSTGfxOutBarCtrl::CBarFolder `RTTI Type Descriptor'
	DD	00H
	DB	'.?AVCBarFolder@CSTGfxOutBarCtrl@@', 00H
data$rs	ENDS
;	COMDAT ??_R4CBarFolder@CSTGfxOutBarCtrl@@6B@
rdata$r	SEGMENT
??_R4CBarFolder@CSTGfxOutBarCtrl@@6B@ DD 00H		; CSTGfxOutBarCtrl::CBarFolder::`RTTI Complete Object Locator'
	DD	00H
	DD	00H
	DD	FLAT:??_R0?AVCBarFolder@CSTGfxOutBarCtrl@@@8
	DD	FLAT:??_R3CBarFolder@CSTGfxOutBarCtrl@@8
rdata$r	ENDS
;	COMDAT ??_R1A@?0A@EA@CBarItem@CSTGfxOutBarCtrl@@8
rdata$r	SEGMENT
??_R1A@?0A@EA@CBarItem@CSTGfxOutBarCtrl@@8 DD FLAT:??_R0?AVCBarItem@CSTGfxOutBarCtrl@@@8 ; CSTGfxOutBarCtrl::CBarItem::`RTTI Base Class Descriptor at (0,-1,0,64)'
	DD	00H
	DD	00H
	DD	0ffffffffH
	DD	00H
	DD	040H
	DD	FLAT:??_R3CBarItem@CSTGfxOutBarCtrl@@8
rdata$r	ENDS
;	COMDAT ??_R2CBarItem@CSTGfxOutBarCtrl@@8
rdata$r	SEGMENT
??_R2CBarItem@CSTGfxOutBarCtrl@@8 DD FLAT:??_R1A@?0A@EA@CBarItem@CSTGfxOutBarCtrl@@8 ; CSTGfxOutBarCtrl::CBarItem::`RTTI Base Class Array'
rdata$r	ENDS
;	COMDAT ??_R3CBarItem@CSTGfxOutBarCtrl@@8
rdata$r	SEGMENT
??_R3CBarItem@CSTGfxOutBarCtrl@@8 DD 00H		; CSTGfxOutBarCtrl::CBarItem::`RTTI Class Hierarchy Descriptor'
	DD	00H
	DD	01H
	DD	FLAT:??_R2CBarItem@CSTGfxOutBarCtrl@@8
rdata$r	ENDS
;	COMDAT ??_R0?AVCBarItem@CSTGfxOutBarCtrl@@@8
data$rs	SEGMENT
??_R0?AVCBarItem@CSTGfxOutBarCtrl@@@8 DD FLAT:??_7type_info@@6B@ ; CSTGfxOutBarCtrl::CBarItem `RTTI Type Descriptor'
	DD	00H
	DB	'.?AVCBarItem@CSTGfxOutBarCtrl@@', 00H
data$rs	ENDS
;	COMDAT ??_R4CBarItem@CSTGfxOutBarCtrl@@6B@
rdata$r	SEGMENT
??_R4CBarItem@CSTGfxOutBarCtrl@@6B@ DD 00H		; CSTGfxOutBarCtrl::CBarItem::`RTTI Complete Object Locator'
	DD	00H
	DD	00H
	DD	FLAT:??_R0?AVCBarItem@CSTGfxOutBarCtrl@@@8
	DD	FLAT:??_R3CBarItem@CSTGfxOutBarCtrl@@8
rdata$r	ENDS
;	COMDAT ??_R1A@?0A@EA@CSTGfxOutBarCtrl@@8
rdata$r	SEGMENT
??_R1A@?0A@EA@CSTGfxOutBarCtrl@@8 DD FLAT:??_R0?AVCSTGfxOutBarCtrl@@@8 ; CSTGfxOutBarCtrl::`RTTI Base Class Descriptor at (0,-1,0,64)'
	DD	03H
	DD	00H
	DD	0ffffffffH
	DD	00H
	DD	040H
	DD	FLAT:??_R3CSTGfxOutBarCtrl@@8
rdata$r	ENDS
;	COMDAT ??_R2CSTGfxOutBarCtrl@@8
rdata$r	SEGMENT
??_R2CSTGfxOutBarCtrl@@8 DD FLAT:??_R1A@?0A@EA@CSTGfxOutBarCtrl@@8 ; CSTGfxOutBarCtrl::`RTTI Base Class Array'
	DD	FLAT:??_R1A@?0A@EA@CWnd@@8
	DD	FLAT:??_R1A@?0A@EA@CCmdTarget@@8
	DD	FLAT:??_R1A@?0A@EA@CObject@@8
rdata$r	ENDS
;	COMDAT ??_R3CSTGfxOutBarCtrl@@8
rdata$r	SEGMENT
??_R3CSTGfxOutBarCtrl@@8 DD 00H				; CSTGfxOutBarCtrl::`RTTI Class Hierarchy Descriptor'
	DD	00H
	DD	04H
	DD	FLAT:??_R2CSTGfxOutBarCtrl@@8
rdata$r	ENDS
;	COMDAT ??_R0?AVCSTGfxOutBarCtrl@@@8
data$rs	SEGMENT
??_R0?AVCSTGfxOutBarCtrl@@@8 DD FLAT:??_7type_info@@6B@	; CSTGfxOutBarCtrl `RTTI Type Descriptor'
	DD	00H
	DB	'.?AVCSTGfxOutBarCtrl@@', 00H
data$rs	ENDS
;	COMDAT ??_R4CSTGfxOutBarCtrl@@6B@
rdata$r	SEGMENT
??_R4CSTGfxOutBarCtrl@@6B@ DD 00H			; CSTGfxOutBarCtrl::`RTTI Complete Object Locator'
	DD	00H
	DD	00H
	DD	FLAT:??_R0?AVCSTGfxOutBarCtrl@@@8
	DD	FLAT:??_R3CSTGfxOutBarCtrl@@8
rdata$r	ENDS
;	COMDAT ??_R1A@?0A@EA@IGfxOutBarCtrl2@@8
rdata$r	SEGMENT
??_R1A@?0A@EA@IGfxOutBarCtrl2@@8 DD FLAT:??_R0?AUIGfxOutBarCtrl2@@@8 ; IGfxOutBarCtrl2::`RTTI Base Class Descriptor at (0,-1,0,64)'
	DD	01H
	DD	00H
	DD	0ffffffffH
	DD	00H
	DD	040H
	DD	FLAT:??_R3IGfxOutBarCtrl2@@8
rdata$r	ENDS
;	COMDAT ??_R2IGfxOutBarCtrl2@@8
rdata$r	SEGMENT
??_R2IGfxOutBarCtrl2@@8 DD FLAT:??_R1A@?0A@EA@IGfxOutBarCtrl2@@8 ; IGfxOutBarCtrl2::`RTTI Base Class Array'
	DD	FLAT:??_R1A@?0A@EA@IGfxOutBarCtrl@@8
rdata$r	ENDS
;	COMDAT ??_R3IGfxOutBarCtrl2@@8
rdata$r	SEGMENT
??_R3IGfxOutBarCtrl2@@8 DD 00H				; IGfxOutBarCtrl2::`RTTI Class Hierarchy Descriptor'
	DD	00H
	DD	02H
	DD	FLAT:??_R2IGfxOutBarCtrl2@@8
rdata$r	ENDS
;	COMDAT ??_R0?AUIGfxOutBarCtrl2@@@8
data$rs	SEGMENT
??_R0?AUIGfxOutBarCtrl2@@@8 DD FLAT:??_7type_info@@6B@	; IGfxOutBarCtrl2 `RTTI Type Descriptor'
	DD	00H
	DB	'.?AUIGfxOutBarCtrl2@@', 00H
data$rs	ENDS
;	COMDAT ??_R4IGfxOutBarCtrl2@@6B@
rdata$r	SEGMENT
??_R4IGfxOutBarCtrl2@@6B@ DD 00H			; IGfxOutBarCtrl2::`RTTI Complete Object Locator'
	DD	00H
	DD	00H
	DD	FLAT:??_R0?AUIGfxOutBarCtrl2@@@8
	DD	FLAT:??_R3IGfxOutBarCtrl2@@8
rdata$r	ENDS
;	COMDAT ??_R1A@?0A@EA@IGfxOutBarCtrl@@8
rdata$r	SEGMENT
??_R1A@?0A@EA@IGfxOutBarCtrl@@8 DD FLAT:??_R0?AUIGfxOutBarCtrl@@@8 ; IGfxOutBarCtrl::`RTTI Base Class Descriptor at (0,-1,0,64)'
	DD	00H
	DD	00H
	DD	0ffffffffH
	DD	00H
	DD	040H
	DD	FLAT:??_R3IGfxOutBarCtrl@@8
rdata$r	ENDS
;	COMDAT ??_R2IGfxOutBarCtrl@@8
rdata$r	SEGMENT
??_R2IGfxOutBarCtrl@@8 DD FLAT:??_R1A@?0A@EA@IGfxOutBarCtrl@@8 ; IGfxOutBarCtrl::`RTTI Base Class Array'
rdata$r	ENDS
;	COMDAT ??_R3IGfxOutBarCtrl@@8
rdata$r	SEGMENT
??_R3IGfxOutBarCtrl@@8 DD 00H				; IGfxOutBarCtrl::`RTTI Class Hierarchy Descriptor'
	DD	00H
	DD	01H
	DD	FLAT:??_R2IGfxOutBarCtrl@@8
rdata$r	ENDS
;	COMDAT ??_R0?AUIGfxOutBarCtrl@@@8
data$rs	SEGMENT
??_R0?AUIGfxOutBarCtrl@@@8 DD FLAT:??_7type_info@@6B@	; IGfxOutBarCtrl `RTTI Type Descriptor'
	DD	00H
	DB	'.?AUIGfxOutBarCtrl@@', 00H
data$rs	ENDS
;	COMDAT ??_R4IGfxOutBarCtrl@@6B@
rdata$r	SEGMENT
??_R4IGfxOutBarCtrl@@6B@ DD 00H				; IGfxOutBarCtrl::`RTTI Complete Object Locator'
	DD	00H
	DD	00H
	DD	FLAT:??_R0?AUIGfxOutBarCtrl@@@8
	DD	FLAT:??_R3IGfxOutBarCtrl@@8
rdata$r	ENDS
;	COMDAT ??_C@_06MFMMLLPC@?$LB?$LM?$LI?$LC?C?$LM@
CONST	SEGMENT
??_C@_06MFMMLLPC@?$LB?$LM?$LI?$LC?C?$LM@ DB 0b1H, 0bcH, 0b8H, 0b2H, 0c3H, 0bcH
	DB	00H						; `string'
CONST	ENDS
;	COMDAT ?messageMap@?1??GetThisMessageMap@CSTGfxOutBarCtrl@@KGPBUAFX_MSGMAP@@XZ@4U3@B
CONST	SEGMENT
?messageMap@?1??GetThisMessageMap@CSTGfxOutBarCtrl@@KGPBUAFX_MSGMAP@@XZ@4U3@B DD FLAT:?GetThisMessageMap@CWnd@@KGPBUAFX_MSGMAP@@XZ ; `CSTGfxOutBarCtrl::GetThisMessageMap'::`2'::messageMap
	DD	FLAT:?_messageEntries@?1??GetThisMessageMap@CSTGfxOutBarCtrl@@KGPBUAFX_MSGMAP@@XZ@4QBUAFX_MSGMAP_ENTRY@@B
CONST	ENDS
;	COMDAT ?_messageEntries@?1??GetThisMessageMap@CSTGfxOutBarCtrl@@KGPBUAFX_MSGMAP@@XZ@4QBUAFX_MSGMAP_ENTRY@@B
CONST	SEGMENT
?_messageEntries@?1??GetThisMessageMap@CSTGfxOutBarCtrl@@KGPBUAFX_MSGMAP@@XZ@4QBUAFX_MSGMAP_ENTRY@@B DD 01H ; `CSTGfxOutBarCtrl::GetThisMessageMap'::`2'::_messageEntries
	DD	00H
	DD	00H
	DD	00H
	DD	0dH
	DD	FLAT:?OnCreate@CSTGfxOutBarCtrl@@IAEHPAUtagCREATESTRUCTA@@@Z
	DD	0113H
	DD	00H
	DD	00H
	DD	00H
	DD	015H
	DD	FLAT:?OnTimer@CSTGfxOutBarCtrl@@IAEXI@Z
	DD	0fH
	DD	00H
	DD	00H
	DD	00H
	DD	013H
	DD	FLAT:?OnPaint@CSTGfxOutBarCtrl@@IAEXXZ
	DD	014H
	DD	00H
	DD	00H
	DD	00H
	DD	01H
	DD	FLAT:?OnEraseBkgnd@CSTGfxOutBarCtrl@@IAEHPAVCDC@@@Z
	DD	0200H
	DD	00H
	DD	00H
	DD	00H
	DD	036H
	DD	FLAT:?OnMouseMove@CSTGfxOutBarCtrl@@IAEXIVCPoint@@@Z
	DD	0201H
	DD	00H
	DD	00H
	DD	00H
	DD	036H
	DD	FLAT:?OnLButtonDown@CSTGfxOutBarCtrl@@IAEXIVCPoint@@@Z
	DD	05H
	DD	00H
	DD	00H
	DD	00H
	DD	01aH
	DD	FLAT:?OnSize@CSTGfxOutBarCtrl@@IAEXIHH@Z
	DD	0204H
	DD	00H
	DD	00H
	DD	00H
	DD	036H
	DD	FLAT:?OnRButtonDown@CSTGfxOutBarCtrl@@IAEXIVCPoint@@@Z
	DD	02H
	DD	00H
	DD	00H
	DD	00H
	DD	013H
	DD	FLAT:?OnDestroy@CSTGfxOutBarCtrl@@IAEXXZ
	DD	00H
	DD	00H
	DD	00H
	DD	00H
	DD	00H
	DD	00H
CONST	ENDS
;	COMDAT ??_C@_0BB@OIKDPAKN@CSTGfxOutBarCtrl@
CONST	SEGMENT
??_C@_0BB@OIKDPAKN@CSTGfxOutBarCtrl@ DB 'CSTGfxOutBarCtrl', 00H ; `string'
CONST	ENDS
;	COMDAT ??_7CImpl_IGfxOutBarCtrl@@6B@
CONST	SEGMENT
??_7CImpl_IGfxOutBarCtrl@@6B@ DD FLAT:??_R4CImpl_IGfxOutBarCtrl@@6B@ ; CImpl_IGfxOutBarCtrl::`vftable'
	DD	FLAT:?GetCoutBarCtrl@CImpl_IGfxOutBarCtrl@@UAGPAVCWnd@@XZ
	DD	FLAT:?CreateOutBar@CImpl_IGfxOutBarCtrl@@UAGHKABUtagRECT@@PAVCWnd@@IK@Z
	DD	FLAT:?Setcr3dFace@CImpl_IGfxOutBarCtrl@@UAGXK@Z
	DD	FLAT:?Setcr3dUnFace@CImpl_IGfxOutBarCtrl@@UAGXK@Z
	DD	FLAT:?SetImageList@CImpl_IGfxOutBarCtrl@@UAGPAVCImageList@@PAV2@H@Z
	DD	FLAT:?SetFolderImageList@CImpl_IGfxOutBarCtrl@@UAGXPAVCImageList@@HHH@Z
	DD	FLAT:?AddFolderBar@CImpl_IGfxOutBarCtrl@@UAGHPBDPAVCWnd@@@Z
	DD	FLAT:?SetSelFolder@CImpl_IGfxOutBarCtrl@@UAGXH@Z
CONST	ENDS
;	COMDAT ??_7CSTGfxOutBarCtrl@@6B@
CONST	SEGMENT
??_7CSTGfxOutBarCtrl@@6B@ DD FLAT:??_R4CSTGfxOutBarCtrl@@6B@ ; CSTGfxOutBarCtrl::`vftable'
	DD	FLAT:?GetRuntimeClass@CSTGfxOutBarCtrl@@UBEPAUCRuntimeClass@@XZ
	DD	FLAT:??_ECSTGfxOutBarCtrl@@UAEPAXI@Z
	DD	FLAT:?Serialize@CObject@@UAEXAAVCArchive@@@Z
	DD	FLAT:?AssertValid@CObject@@UBEXXZ
	DD	FLAT:?Dump@CObject@@UBEXAAVCDumpContext@@@Z
	DD	FLAT:?OnCmdMsg@CCmdTarget@@UAEHIHPAXPAUAFX_CMDHANDLERINFO@@@Z
	DD	FLAT:?OnFinalRelease@CWnd@@UAEXXZ
	DD	FLAT:?IsInvokeAllowed@CCmdTarget@@UAEHJ@Z
	DD	FLAT:?GetDispatchIID@CCmdTarget@@UAEHPAU_GUID@@@Z
	DD	FLAT:?GetTypeInfoCount@CCmdTarget@@UAEIXZ
	DD	FLAT:?GetTypeLibCache@CCmdTarget@@UAEPAVCTypeLibCache@@XZ
	DD	FLAT:?GetTypeLib@CCmdTarget@@UAEJKPAPAUITypeLib@@@Z
	DD	FLAT:?GetMessageMap@CSTGfxOutBarCtrl@@MBEPBUAFX_MSGMAP@@XZ
	DD	FLAT:?GetCommandMap@CCmdTarget@@MBEPBUAFX_OLECMDMAP@@XZ
	DD	FLAT:?GetDispatchMap@CCmdTarget@@MBEPBUAFX_DISPMAP@@XZ
	DD	FLAT:?GetConnectionMap@CCmdTarget@@MBEPBUAFX_CONNECTIONMAP@@XZ
	DD	FLAT:?GetInterfaceMap@CWnd@@MBEPBUAFX_INTERFACEMAP@@XZ
	DD	FLAT:?GetEventSinkMap@CCmdTarget@@MBEPBUAFX_EVENTSINKMAP@@XZ
	DD	FLAT:?OnCreateAggregates@CCmdTarget@@UAEHXZ
	DD	FLAT:?GetInterfaceHook@CCmdTarget@@UAEPAUIUnknown@@PBX@Z
	DD	FLAT:?GetExtraConnectionPoints@CCmdTarget@@MAEHPAVCPtrArray@@@Z
	DD	FLAT:?GetConnectionHook@CCmdTarget@@MAEPAUIConnectionPoint@@ABU_GUID@@@Z
	DD	FLAT:?PreSubclassWindow@CWnd@@UAEXXZ
	DD	FLAT:?Create@CWnd@@UAEHPBD0KABUtagRECT@@PAV1@IPAUCCreateContext@@@Z
	DD	FLAT:?CreateEx@CWnd@@UAEHKPBD0KABUtagRECT@@PAV1@IPAX@Z
	DD	FLAT:?CreateEx@CWnd@@UAEHKPBD0KHHHHPAUHWND__@@PAUHMENU__@@PAX@Z
	DD	FLAT:?DestroyWindow@CWnd@@UAEHXZ
	DD	FLAT:?PreCreateWindow@CWnd@@UAEHAAUtagCREATESTRUCTA@@@Z
	DD	FLAT:?CalcWindowRect@CWnd@@UAEXPAUtagRECT@@I@Z
	DD	FLAT:?GetMenu@CWnd@@UBEPAVCMenu@@XZ
	DD	FLAT:?SetMenu@CWnd@@UAEHPAVCMenu@@@Z
	DD	FLAT:?OnToolHitTest@CWnd@@UBEHVCPoint@@PAUtagTOOLINFOA@@@Z
	DD	FLAT:?GetScrollBarCtrl@CWnd@@UBEPAVCScrollBar@@H@Z
	DD	FLAT:?WinHelpA@CWnd@@UAEXKI@Z
	DD	FLAT:?HtmlHelpA@CWnd@@UAEXKI@Z
	DD	FLAT:?WinHelpInternal@CWnd@@UAEXKI@Z
	DD	FLAT:?ContinueModal@CWnd@@UAEHXZ
	DD	FLAT:?EndModalLoop@CWnd@@UAEXH@Z
	DD	FLAT:?OnDrawIconicThumbnailOrLivePreview@CWnd@@UAEXAAVCDC@@VCRect@@VCSize@@HAAH@Z
	DD	FLAT:?EnsureStdObj@CWnd@@UAEJXZ
	DD	FLAT:?get_accParent@CWnd@@UAEJPAPAUIDispatch@@@Z
	DD	FLAT:?get_accChildCount@CWnd@@UAEJPAJ@Z
	DD	FLAT:?get_accChild@CWnd@@UAEJUtagVARIANT@@PAPAUIDispatch@@@Z
	DD	FLAT:?get_accName@CWnd@@UAEJUtagVARIANT@@PAPA_W@Z
	DD	FLAT:?get_accValue@CWnd@@UAEJUtagVARIANT@@PAPA_W@Z
	DD	FLAT:?get_accDescription@CWnd@@UAEJUtagVARIANT@@PAPA_W@Z
	DD	FLAT:?get_accRole@CWnd@@UAEJUtagVARIANT@@PAU2@@Z
	DD	FLAT:?get_accState@CWnd@@UAEJUtagVARIANT@@PAU2@@Z
	DD	FLAT:?get_accHelp@CWnd@@UAEJUtagVARIANT@@PAPA_W@Z
	DD	FLAT:?get_accHelpTopic@CWnd@@UAEJPAPA_WUtagVARIANT@@PAJ@Z
	DD	FLAT:?get_accKeyboardShortcut@CWnd@@UAEJUtagVARIANT@@PAPA_W@Z
	DD	FLAT:?get_accFocus@CWnd@@UAEJPAUtagVARIANT@@@Z
	DD	FLAT:?get_accSelection@CWnd@@UAEJPAUtagVARIANT@@@Z
	DD	FLAT:?get_accDefaultAction@CWnd@@UAEJUtagVARIANT@@PAPA_W@Z
	DD	FLAT:?accSelect@CWnd@@UAEJJUtagVARIANT@@@Z
	DD	FLAT:?accLocation@CWnd@@UAEJPAJ000UtagVARIANT@@@Z
	DD	FLAT:?accNavigate@CWnd@@UAEJJUtagVARIANT@@PAU2@@Z
	DD	FLAT:?accHitTest@CWnd@@UAEJJJPAUtagVARIANT@@@Z
	DD	FLAT:?accDoDefaultAction@CWnd@@UAEJUtagVARIANT@@@Z
	DD	FLAT:?put_accName@CWnd@@UAEJUtagVARIANT@@PA_W@Z
	DD	FLAT:?put_accValue@CWnd@@UAEJUtagVARIANT@@PA_W@Z
	DD	FLAT:?SetProxy@CWnd@@UAEJPAUIAccessibleProxy@@@Z
	DD	FLAT:?CreateAccessibleProxy@CWnd@@UAEJIJPAJ@Z
	DD	FLAT:?OnCommand@CSTGfxOutBarCtrl@@MAEHIJ@Z
	DD	FLAT:?OnNotify@CWnd@@MAEHIJPAJ@Z
	DD	FLAT:?GetSuperWndProcAddr@CWnd@@MAEPAP6GJPAUHWND__@@IIJ@ZXZ
	DD	FLAT:?DoDataExchange@CWnd@@MAEXPAVCDataExchange@@@Z
	DD	FLAT:?BeginModalState@CWnd@@UAEXXZ
	DD	FLAT:?EndModalState@CWnd@@UAEXXZ
	DD	FLAT:?PreTranslateMessage@CWnd@@UAEHPAUtagMSG@@@Z
	DD	FLAT:?OnAmbientProperty@CWnd@@UAEHPAVCOleControlSite@@JPAUtagVARIANT@@@Z
	DD	FLAT:?WindowProc@CWnd@@MAEJIIJ@Z
	DD	FLAT:?OnWndMsg@CWnd@@MAEHIIJPAJ@Z
	DD	FLAT:?DefWindowProcA@CWnd@@MAEJIIJ@Z
	DD	FLAT:?PostNcDestroy@CWnd@@MAEXXZ
	DD	FLAT:?OnChildNotify@CWnd@@MAEHIIJPAJ@Z
	DD	FLAT:?OnTouchInputs@CWnd@@MAEHIPAUtagTOUCHINPUT@@@Z
	DD	FLAT:?OnTouchInput@CWnd@@MAEHVCPoint@@HHPAUtagTOUCHINPUT@@@Z
	DD	FLAT:?GetGestureStatus@CWnd@@MAEKVCPoint@@@Z
	DD	FLAT:?OnGestureZoom@CWnd@@MAEHVCPoint@@J@Z
	DD	FLAT:?OnGesturePan@CWnd@@MAEHVCPoint@@0@Z
	DD	FLAT:?OnGestureRotate@CWnd@@MAEHVCPoint@@N@Z
	DD	FLAT:?OnGestureTwoFingerTap@CWnd@@MAEHVCPoint@@@Z
	DD	FLAT:?OnGesturePressAndTap@CWnd@@MAEHVCPoint@@J@Z
	DD	FLAT:?ResizeDynamicLayout@CWnd@@MAEXXZ
	DD	FLAT:?CheckAutoCenter@CWnd@@UAEHXZ
	DD	FLAT:?IsFrameWnd@CWnd@@UBEHXZ
	DD	FLAT:?CreateControlContainer@CWnd@@MAEHPAPAVCOleControlContainer@@@Z
	DD	FLAT:?CreateControlSite@CWnd@@MAEHPAVCOleControlContainer@@PAPAVCOleControlSite@@IABU_GUID@@@Z
	DD	FLAT:?SetOccDialogInfo@CWnd@@MAEHPAU_AFX_OCC_DIALOG_INFO@@@Z
	DD	FLAT:?GetOccDialogInfo@CWnd@@MAEPAU_AFX_OCC_DIALOG_INFO@@XZ
CONST	ENDS
;	COMDAT ??_7CBarFolder@CSTGfxOutBarCtrl@@6B@
CONST	SEGMENT
??_7CBarFolder@CSTGfxOutBarCtrl@@6B@ DD FLAT:??_R4CBarFolder@CSTGfxOutBarCtrl@@6B@ ; CSTGfxOutBarCtrl::CBarFolder::`vftable'
	DD	FLAT:??_ECBarFolder@CSTGfxOutBarCtrl@@UAEPAXI@Z
CONST	ENDS
;	COMDAT ??_7CBarItem@CSTGfxOutBarCtrl@@6B@
CONST	SEGMENT
??_7CBarItem@CSTGfxOutBarCtrl@@6B@ DD FLAT:??_R4CBarItem@CSTGfxOutBarCtrl@@6B@ ; CSTGfxOutBarCtrl::CBarItem::`vftable'
	DD	FLAT:??_ECBarItem@CSTGfxOutBarCtrl@@UAEPAXI@Z
CONST	ENDS
;	COMDAT ?classCSTGfxOutBarCtrl@CSTGfxOutBarCtrl@@2UCRuntimeClass@@B
CONST	SEGMENT
?classCSTGfxOutBarCtrl@CSTGfxOutBarCtrl@@2UCRuntimeClass@@B DD FLAT:??_C@_0BB@OIKDPAKN@CSTGfxOutBarCtrl@ ; CSTGfxOutBarCtrl::classCSTGfxOutBarCtrl
	DD	0168H
	DD	0ffffH
	DD	FLAT:?CreateObject@CSTGfxOutBarCtrl@@SGPAVCObject@@XZ
	DD	FLAT:?_GetBaseClass@CSTGfxOutBarCtrl@@KGPAUCRuntimeClass@@XZ
	DD	00H
	DD	00H
CONST	ENDS
;	COMDAT ??_7IGfxOutBarCtrl2@@6B@
CONST	SEGMENT
??_7IGfxOutBarCtrl2@@6B@ DD FLAT:??_R4IGfxOutBarCtrl2@@6B@ ; IGfxOutBarCtrl2::`vftable'
	DD	FLAT:__purecall
	DD	FLAT:__purecall
	DD	FLAT:__purecall
	DD	FLAT:__purecall
	DD	FLAT:__purecall
	DD	FLAT:__purecall
	DD	FLAT:__purecall
	DD	FLAT:__purecall
CONST	ENDS
;	COMDAT ??_7IGfxOutBarCtrl@@6B@
CONST	SEGMENT
??_7IGfxOutBarCtrl@@6B@ DD FLAT:??_R4IGfxOutBarCtrl@@6B@ ; IGfxOutBarCtrl::`vftable'
	DD	FLAT:__purecall
	DD	FLAT:__purecall
	DD	FLAT:__purecall
	DD	FLAT:__purecall
	DD	FLAT:__purecall
	DD	FLAT:__purecall
CONST	ENDS
;	COMDAT ??_R2CCmdTarget@@8
rdata$r	SEGMENT
??_R2CCmdTarget@@8 DD FLAT:??_R1A@?0A@EA@CCmdTarget@@8	; CCmdTarget::`RTTI Base Class Array'
	DD	FLAT:??_R1A@?0A@EA@CObject@@8
rdata$r	ENDS
;	COMDAT ??_R3CCmdTarget@@8
rdata$r	SEGMENT
??_R3CCmdTarget@@8 DD 00H				; CCmdTarget::`RTTI Class Hierarchy Descriptor'
	DD	00H
	DD	02H
	DD	FLAT:??_R2CCmdTarget@@8
rdata$r	ENDS
;	COMDAT ??_R0?AVCCmdTarget@@@8
data$rs	SEGMENT
??_R0?AVCCmdTarget@@@8 DD FLAT:??_7type_info@@6B@	; CCmdTarget `RTTI Type Descriptor'
	DD	00H
	DB	'.?AVCCmdTarget@@', 00H
data$rs	ENDS
;	COMDAT ??_R1A@?0A@EA@CCmdTarget@@8
rdata$r	SEGMENT
??_R1A@?0A@EA@CCmdTarget@@8 DD FLAT:??_R0?AVCCmdTarget@@@8 ; CCmdTarget::`RTTI Base Class Descriptor at (0,-1,0,64)'
	DD	01H
	DD	00H
	DD	0ffffffffH
	DD	00H
	DD	040H
	DD	FLAT:??_R3CCmdTarget@@8
rdata$r	ENDS
;	COMDAT ??_R2CWnd@@8
rdata$r	SEGMENT
??_R2CWnd@@8 DD	FLAT:??_R1A@?0A@EA@CWnd@@8		; CWnd::`RTTI Base Class Array'
	DD	FLAT:??_R1A@?0A@EA@CCmdTarget@@8
	DD	FLAT:??_R1A@?0A@EA@CObject@@8
rdata$r	ENDS
;	COMDAT ??_R3CWnd@@8
rdata$r	SEGMENT
??_R3CWnd@@8 DD	00H					; CWnd::`RTTI Class Hierarchy Descriptor'
	DD	00H
	DD	03H
	DD	FLAT:??_R2CWnd@@8
rdata$r	ENDS
;	COMDAT ??_R0?AVCWnd@@@8
data$rs	SEGMENT
??_R0?AVCWnd@@@8 DD FLAT:??_7type_info@@6B@		; CWnd `RTTI Type Descriptor'
	DD	00H
	DB	'.?AVCWnd@@', 00H
data$rs	ENDS
;	COMDAT ??_R1A@?0A@EA@CWnd@@8
rdata$r	SEGMENT
??_R1A@?0A@EA@CWnd@@8 DD FLAT:??_R0?AVCWnd@@@8		; CWnd::`RTTI Base Class Descriptor at (0,-1,0,64)'
	DD	02H
	DD	00H
	DD	0ffffffffH
	DD	00H
	DD	040H
	DD	FLAT:??_R3CWnd@@8
rdata$r	ENDS
;	COMDAT ??_R1A@?0A@EA@CRgn@@8
rdata$r	SEGMENT
??_R1A@?0A@EA@CRgn@@8 DD FLAT:??_R0?AVCRgn@@@8		; CRgn::`RTTI Base Class Descriptor at (0,-1,0,64)'
	DD	02H
	DD	00H
	DD	0ffffffffH
	DD	00H
	DD	040H
	DD	FLAT:??_R3CRgn@@8
rdata$r	ENDS
;	COMDAT ??_R2CRgn@@8
rdata$r	SEGMENT
??_R2CRgn@@8 DD	FLAT:??_R1A@?0A@EA@CRgn@@8		; CRgn::`RTTI Base Class Array'
	DD	FLAT:??_R1A@?0A@EA@CGdiObject@@8
	DD	FLAT:??_R1A@?0A@EA@CObject@@8
rdata$r	ENDS
;	COMDAT ??_R3CRgn@@8
rdata$r	SEGMENT
??_R3CRgn@@8 DD	00H					; CRgn::`RTTI Class Hierarchy Descriptor'
	DD	00H
	DD	03H
	DD	FLAT:??_R2CRgn@@8
rdata$r	ENDS
;	COMDAT ??_R0?AVCRgn@@@8
data$rs	SEGMENT
??_R0?AVCRgn@@@8 DD FLAT:??_7type_info@@6B@		; CRgn `RTTI Type Descriptor'
	DD	00H
	DB	'.?AVCRgn@@', 00H
data$rs	ENDS
;	COMDAT ??_R4CRgn@@6B@
rdata$r	SEGMENT
??_R4CRgn@@6B@ DD 00H					; CRgn::`RTTI Complete Object Locator'
	DD	00H
	DD	00H
	DD	FLAT:??_R0?AVCRgn@@@8
	DD	FLAT:??_R3CRgn@@8
rdata$r	ENDS
;	COMDAT ??_R1A@?0A@EA@CBitmap@@8
rdata$r	SEGMENT
??_R1A@?0A@EA@CBitmap@@8 DD FLAT:??_R0?AVCBitmap@@@8	; CBitmap::`RTTI Base Class Descriptor at (0,-1,0,64)'
	DD	02H
	DD	00H
	DD	0ffffffffH
	DD	00H
	DD	040H
	DD	FLAT:??_R3CBitmap@@8
rdata$r	ENDS
;	COMDAT ??_R2CBitmap@@8
rdata$r	SEGMENT
??_R2CBitmap@@8 DD FLAT:??_R1A@?0A@EA@CBitmap@@8	; CBitmap::`RTTI Base Class Array'
	DD	FLAT:??_R1A@?0A@EA@CGdiObject@@8
	DD	FLAT:??_R1A@?0A@EA@CObject@@8
rdata$r	ENDS
;	COMDAT ??_R3CBitmap@@8
rdata$r	SEGMENT
??_R3CBitmap@@8 DD 00H					; CBitmap::`RTTI Class Hierarchy Descriptor'
	DD	00H
	DD	03H
	DD	FLAT:??_R2CBitmap@@8
rdata$r	ENDS
;	COMDAT ??_R0?AVCBitmap@@@8
data$rs	SEGMENT
??_R0?AVCBitmap@@@8 DD FLAT:??_7type_info@@6B@		; CBitmap `RTTI Type Descriptor'
	DD	00H
	DB	'.?AVCBitmap@@', 00H
data$rs	ENDS
;	COMDAT ??_R4CBitmap@@6B@
rdata$r	SEGMENT
??_R4CBitmap@@6B@ DD 00H				; CBitmap::`RTTI Complete Object Locator'
	DD	00H
	DD	00H
	DD	FLAT:??_R0?AVCBitmap@@@8
	DD	FLAT:??_R3CBitmap@@8
rdata$r	ENDS
;	COMDAT ??_R1A@?0A@EA@CFont@@8
rdata$r	SEGMENT
??_R1A@?0A@EA@CFont@@8 DD FLAT:??_R0?AVCFont@@@8	; CFont::`RTTI Base Class Descriptor at (0,-1,0,64)'
	DD	02H
	DD	00H
	DD	0ffffffffH
	DD	00H
	DD	040H
	DD	FLAT:??_R3CFont@@8
rdata$r	ENDS
;	COMDAT ??_R2CFont@@8
rdata$r	SEGMENT
??_R2CFont@@8 DD FLAT:??_R1A@?0A@EA@CFont@@8		; CFont::`RTTI Base Class Array'
	DD	FLAT:??_R1A@?0A@EA@CGdiObject@@8
	DD	FLAT:??_R1A@?0A@EA@CObject@@8
rdata$r	ENDS
;	COMDAT ??_R3CFont@@8
rdata$r	SEGMENT
??_R3CFont@@8 DD 00H					; CFont::`RTTI Class Hierarchy Descriptor'
	DD	00H
	DD	03H
	DD	FLAT:??_R2CFont@@8
rdata$r	ENDS
;	COMDAT ??_R0?AVCFont@@@8
data$rs	SEGMENT
??_R0?AVCFont@@@8 DD FLAT:??_7type_info@@6B@		; CFont `RTTI Type Descriptor'
	DD	00H
	DB	'.?AVCFont@@', 00H
data$rs	ENDS
;	COMDAT ??_R4CFont@@6B@
rdata$r	SEGMENT
??_R4CFont@@6B@ DD 00H					; CFont::`RTTI Complete Object Locator'
	DD	00H
	DD	00H
	DD	FLAT:??_R0?AVCFont@@@8
	DD	FLAT:??_R3CFont@@8
rdata$r	ENDS
;	COMDAT ??_R1A@?0A@EA@CPen@@8
rdata$r	SEGMENT
??_R1A@?0A@EA@CPen@@8 DD FLAT:??_R0?AVCPen@@@8		; CPen::`RTTI Base Class Descriptor at (0,-1,0,64)'
	DD	02H
	DD	00H
	DD	0ffffffffH
	DD	00H
	DD	040H
	DD	FLAT:??_R3CPen@@8
rdata$r	ENDS
;	COMDAT ??_R2CPen@@8
rdata$r	SEGMENT
??_R2CPen@@8 DD	FLAT:??_R1A@?0A@EA@CPen@@8		; CPen::`RTTI Base Class Array'
	DD	FLAT:??_R1A@?0A@EA@CGdiObject@@8
	DD	FLAT:??_R1A@?0A@EA@CObject@@8
rdata$r	ENDS
;	COMDAT ??_R3CPen@@8
rdata$r	SEGMENT
??_R3CPen@@8 DD	00H					; CPen::`RTTI Class Hierarchy Descriptor'
	DD	00H
	DD	03H
	DD	FLAT:??_R2CPen@@8
rdata$r	ENDS
;	COMDAT ??_R0?AVCPen@@@8
data$rs	SEGMENT
??_R0?AVCPen@@@8 DD FLAT:??_7type_info@@6B@		; CPen `RTTI Type Descriptor'
	DD	00H
	DB	'.?AVCPen@@', 00H
data$rs	ENDS
;	COMDAT ??_R4CPen@@6B@
rdata$r	SEGMENT
??_R4CPen@@6B@ DD 00H					; CPen::`RTTI Complete Object Locator'
	DD	00H
	DD	00H
	DD	FLAT:??_R0?AVCPen@@@8
	DD	FLAT:??_R3CPen@@8
rdata$r	ENDS
;	COMDAT ??_R1A@?0A@EA@CGdiObject@@8
rdata$r	SEGMENT
??_R1A@?0A@EA@CGdiObject@@8 DD FLAT:??_R0?AVCGdiObject@@@8 ; CGdiObject::`RTTI Base Class Descriptor at (0,-1,0,64)'
	DD	01H
	DD	00H
	DD	0ffffffffH
	DD	00H
	DD	040H
	DD	FLAT:??_R3CGdiObject@@8
rdata$r	ENDS
;	COMDAT ??_R2CGdiObject@@8
rdata$r	SEGMENT
??_R2CGdiObject@@8 DD FLAT:??_R1A@?0A@EA@CGdiObject@@8	; CGdiObject::`RTTI Base Class Array'
	DD	FLAT:??_R1A@?0A@EA@CObject@@8
rdata$r	ENDS
;	COMDAT ??_R3CGdiObject@@8
rdata$r	SEGMENT
??_R3CGdiObject@@8 DD 00H				; CGdiObject::`RTTI Class Hierarchy Descriptor'
	DD	00H
	DD	02H
	DD	FLAT:??_R2CGdiObject@@8
rdata$r	ENDS
;	COMDAT ??_R0?AVCGdiObject@@@8
data$rs	SEGMENT
??_R0?AVCGdiObject@@@8 DD FLAT:??_7type_info@@6B@	; CGdiObject `RTTI Type Descriptor'
	DD	00H
	DB	'.?AVCGdiObject@@', 00H
data$rs	ENDS
;	COMDAT ??_R4CGdiObject@@6B@
rdata$r	SEGMENT
??_R4CGdiObject@@6B@ DD 00H				; CGdiObject::`RTTI Complete Object Locator'
	DD	00H
	DD	00H
	DD	FLAT:??_R0?AVCGdiObject@@@8
	DD	FLAT:??_R3CGdiObject@@8
rdata$r	ENDS
;	COMDAT ??_R1A@?0A@EA@CObject@@8
rdata$r	SEGMENT
??_R1A@?0A@EA@CObject@@8 DD FLAT:??_R0?AVCObject@@@8	; CObject::`RTTI Base Class Descriptor at (0,-1,0,64)'
	DD	00H
	DD	00H
	DD	0ffffffffH
	DD	00H
	DD	040H
	DD	FLAT:??_R3CObject@@8
rdata$r	ENDS
;	COMDAT ??_R2CObject@@8
rdata$r	SEGMENT
??_R2CObject@@8 DD FLAT:??_R1A@?0A@EA@CObject@@8	; CObject::`RTTI Base Class Array'
rdata$r	ENDS
;	COMDAT ??_R3CObject@@8
rdata$r	SEGMENT
??_R3CObject@@8 DD 00H					; CObject::`RTTI Class Hierarchy Descriptor'
	DD	00H
	DD	01H
	DD	FLAT:??_R2CObject@@8
rdata$r	ENDS
;	COMDAT ??_R0?AVCObject@@@8
data$rs	SEGMENT
??_R0?AVCObject@@@8 DD FLAT:??_7type_info@@6B@		; CObject `RTTI Type Descriptor'
	DD	00H
	DB	'.?AVCObject@@', 00H
data$rs	ENDS
;	COMDAT ??_C@_0N@OMEMOKLE@?$CFTs?5?$CI?$CFTs?3?$CFd?$CJ@
CONST	SEGMENT
??_C@_0N@OMEMOKLE@?$CFTs?5?$CI?$CFTs?3?$CFd?$CJ@ DB '%Ts (%Ts:%d)', 00H ; `string'
CONST	ENDS
;	COMDAT ??_C@_0BB@HBOOMJBF@?$CFTs?5?$CI?$CFTs?3?$CFd?$CJ?6?$CFTs@
CONST	SEGMENT
??_C@_0BB@HBOOMJBF@?$CFTs?5?$CI?$CFTs?3?$CFd?$CJ?6?$CFTs@ DB '%Ts (%Ts:%d'
	DB	')', 0aH, '%Ts', 00H				; `string'
CONST	ENDS
;	COMDAT ??_C@_0BP@OIEOKIDM@Exception?5thrown?5in?5destructor@
CONST	SEGMENT
??_C@_0BP@OIEOKIDM@Exception?5thrown?5in?5destructor@ DB 'Exception throw'
	DB	'n in destructor', 00H			; `string'
CONST	ENDS
;	COMDAT ??_C@_0HD@JJCHHHNK@C?3?2Program?5Files?5?$CIx86?$CJ?2Microsof@
CONST	SEGMENT
??_C@_0HD@JJCHHHNK@C?3?2Program?5Files?5?$CIx86?$CJ?2Microsof@ DB 'C:\Pro'
	DB	'gram Files (x86)\Microsoft Visual Studio\2019\Community\VC\To'
	DB	'ols\MSVC\14.29.30133\atlmfc\include\afxwin1.inl', 00H ; `string'
CONST	ENDS
;	COMDAT ??_7CRgn@@6B@
CONST	SEGMENT
??_7CRgn@@6B@ DD FLAT:??_R4CRgn@@6B@			; CRgn::`vftable'
	DD	FLAT:?GetRuntimeClass@CRgn@@UBEPAUCRuntimeClass@@XZ
	DD	FLAT:??_ECRgn@@UAEPAXI@Z
	DD	FLAT:?Serialize@CObject@@UAEXAAVCArchive@@@Z
	DD	FLAT:?AssertValid@CObject@@UBEXXZ
	DD	FLAT:?Dump@CObject@@UBEXAAVCDumpContext@@@Z
CONST	ENDS
;	COMDAT ??_7CBitmap@@6B@
CONST	SEGMENT
??_7CBitmap@@6B@ DD FLAT:??_R4CBitmap@@6B@		; CBitmap::`vftable'
	DD	FLAT:?GetRuntimeClass@CBitmap@@UBEPAUCRuntimeClass@@XZ
	DD	FLAT:??_ECBitmap@@UAEPAXI@Z
	DD	FLAT:?Serialize@CObject@@UAEXAAVCArchive@@@Z
	DD	FLAT:?AssertValid@CObject@@UBEXXZ
	DD	FLAT:?Dump@CObject@@UBEXAAVCDumpContext@@@Z
CONST	ENDS
;	COMDAT ??_7CFont@@6B@
CONST	SEGMENT
??_7CFont@@6B@ DD FLAT:??_R4CFont@@6B@			; CFont::`vftable'
	DD	FLAT:?GetRuntimeClass@CFont@@UBEPAUCRuntimeClass@@XZ
	DD	FLAT:??_ECFont@@UAEPAXI@Z
	DD	FLAT:?Serialize@CObject@@UAEXAAVCArchive@@@Z
	DD	FLAT:?AssertValid@CObject@@UBEXXZ
	DD	FLAT:?Dump@CObject@@UBEXAAVCDumpContext@@@Z
CONST	ENDS
;	COMDAT ??_7CPen@@6B@
CONST	SEGMENT
??_7CPen@@6B@ DD FLAT:??_R4CPen@@6B@			; CPen::`vftable'
	DD	FLAT:?GetRuntimeClass@CPen@@UBEPAUCRuntimeClass@@XZ
	DD	FLAT:??_ECPen@@UAEPAXI@Z
	DD	FLAT:?Serialize@CObject@@UAEXAAVCArchive@@@Z
	DD	FLAT:?AssertValid@CObject@@UBEXXZ
	DD	FLAT:?Dump@CObject@@UBEXAAVCDumpContext@@@Z
CONST	ENDS
;	COMDAT ??_7CGdiObject@@6B@
CONST	SEGMENT
??_7CGdiObject@@6B@ DD FLAT:??_R4CGdiObject@@6B@	; CGdiObject::`vftable'
	DD	FLAT:?GetRuntimeClass@CGdiObject@@UBEPAUCRuntimeClass@@XZ
	DD	FLAT:??_ECGdiObject@@UAEPAXI@Z
	DD	FLAT:?Serialize@CObject@@UAEXAAVCArchive@@@Z
	DD	FLAT:?AssertValid@CObject@@UBEXXZ
	DD	FLAT:?Dump@CObject@@UBEXAAVCDumpContext@@@Z
CONST	ENDS
;	COMDAT ??_R0PAVCException@@@8
data$r	SEGMENT
??_R0PAVCException@@@8 DD FLAT:??_7type_info@@6B@	; CException * `RTTI Type Descriptor'
	DD	00H
	DB	'.PAVCException@@', 00H
data$r	ENDS
;	COMDAT xdata$x
xdata$x	SEGMENT
__unwindtable$?OnLButtonDown@CSTGfxOutBarCtrl@@IAEXIVCPoint@@@Z DD 0ffffffffH
	DD	FLAT:__unwindfunclet$?OnLButtonDown@CSTGfxOutBarCtrl@@IAEXIVCPoint@@@Z$6
	DD	0ffffffffH
	DD	FLAT:__unwindfunclet$?OnLButtonDown@CSTGfxOutBarCtrl@@IAEXIVCPoint@@@Z$7
	DD	0ffffffffH
	DD	FLAT:__unwindfunclet$?OnLButtonDown@CSTGfxOutBarCtrl@@IAEXIVCPoint@@@Z$8
	DD	0ffffffffH
	DD	FLAT:__unwindfunclet$?OnLButtonDown@CSTGfxOutBarCtrl@@IAEXIVCPoint@@@Z$9
__ehfuncinfo$?OnLButtonDown@CSTGfxOutBarCtrl@@IAEXIVCPoint@@@Z DD 019930522H
	DD	04H
	DD	FLAT:__unwindtable$?OnLButtonDown@CSTGfxOutBarCtrl@@IAEXIVCPoint@@@Z
	DD	2 DUP(00H)
	DD	2 DUP(00H)
	DD	00H
	DD	01H
xdata$x	ENDS
;	COMDAT xdata$x
xdata$x	SEGMENT
__unwindtable$?OnPaint@CSTGfxOutBarCtrl@@IAEXXZ DD 0ffffffffH
	DD	FLAT:__unwindfunclet$?OnPaint@CSTGfxOutBarCtrl@@IAEXXZ$0
	DD	00H
	DD	FLAT:__unwindfunclet$?OnPaint@CSTGfxOutBarCtrl@@IAEXXZ$1
	DD	01H
	DD	FLAT:__unwindfunclet$?OnPaint@CSTGfxOutBarCtrl@@IAEXXZ$2
__ehfuncinfo$?OnPaint@CSTGfxOutBarCtrl@@IAEXXZ DD 019930522H
	DD	03H
	DD	FLAT:__unwindtable$?OnPaint@CSTGfxOutBarCtrl@@IAEXXZ
	DD	2 DUP(00H)
	DD	2 DUP(00H)
	DD	00H
	DD	01H
xdata$x	ENDS
;	COMDAT xdata$x
xdata$x	SEGMENT
__ehfuncinfo$?DrawFolder@CSTGfxOutBarCtrl@@IAEXPAVCDC@@HVCRect@@_N@Z DD 019930522H
	DD	08H
	DD	FLAT:__unwindtable$?DrawFolder@CSTGfxOutBarCtrl@@IAEXPAVCDC@@HVCRect@@_N@Z
	DD	2 DUP(00H)
	DD	2 DUP(00H)
	DD	00H
	DD	01H
__unwindtable$?DrawFolder@CSTGfxOutBarCtrl@@IAEXPAVCDC@@HVCRect@@_N@Z DD 0ffffffffH
	DD	FLAT:__unwindfunclet$?DrawFolder@CSTGfxOutBarCtrl@@IAEXPAVCDC@@HVCRect@@_N@Z$0
	DD	00H
	DD	FLAT:__unwindfunclet$?DrawFolder@CSTGfxOutBarCtrl@@IAEXPAVCDC@@HVCRect@@_N@Z$1
	DD	0ffffffffH
	DD	FLAT:__unwindfunclet$?DrawFolder@CSTGfxOutBarCtrl@@IAEXPAVCDC@@HVCRect@@_N@Z$2
	DD	0ffffffffH
	DD	FLAT:__unwindfunclet$?DrawFolder@CSTGfxOutBarCtrl@@IAEXPAVCDC@@HVCRect@@_N@Z$3
	DD	03H
	DD	FLAT:__unwindfunclet$?DrawFolder@CSTGfxOutBarCtrl@@IAEXPAVCDC@@HVCRect@@_N@Z$4
	DD	04H
	DD	FLAT:__unwindfunclet$?DrawFolder@CSTGfxOutBarCtrl@@IAEXPAVCDC@@HVCRect@@_N@Z$5
	DD	0ffffffffH
	DD	FLAT:__unwindfunclet$?DrawFolder@CSTGfxOutBarCtrl@@IAEXPAVCDC@@HVCRect@@_N@Z$6
	DD	06H
	DD	FLAT:__unwindfunclet$?DrawFolder@CSTGfxOutBarCtrl@@IAEXPAVCDC@@HVCRect@@_N@Z$7
xdata$x	ENDS
;	COMDAT xdata$x
xdata$x	SEGMENT
__ehfuncinfo$??1CSTGfxOutBarCtrl@@UAE@XZ DD 019930522H
	DD	00H
	DD	00H
	DD	2 DUP(00H)
	DD	2 DUP(00H)
	DD	00H
	DD	05H
xdata$x	ENDS
;	COMDAT xdata$x
xdata$x	SEGMENT
__unwindtable$?AddFolder@CSTGfxOutBarCtrl@@QAEHPBDK@Z DD 0ffffffffH
	DD	FLAT:__unwindfunclet$?AddFolder@CSTGfxOutBarCtrl@@QAEHPBDK@Z$0
	DD	00H
	DD	FLAT:__unwindfunclet$?AddFolder@CSTGfxOutBarCtrl@@QAEHPBDK@Z$1
__ehfuncinfo$?AddFolder@CSTGfxOutBarCtrl@@QAEHPBDK@Z DD 019930522H
	DD	02H
	DD	FLAT:__unwindtable$?AddFolder@CSTGfxOutBarCtrl@@QAEHPBDK@Z
	DD	2 DUP(00H)
	DD	2 DUP(00H)
	DD	00H
	DD	01H
xdata$x	ENDS
;	COMDAT xdata$x
xdata$x	SEGMENT
__ehfuncinfo$?HighlightFolder@CSTGfxOutBarCtrl@@QAEXH@Z DD 019930522H
	DD	05H
	DD	FLAT:__unwindtable$?HighlightFolder@CSTGfxOutBarCtrl@@QAEXH@Z
	DD	2 DUP(00H)
	DD	2 DUP(00H)
	DD	00H
	DD	01H
__unwindtable$?HighlightFolder@CSTGfxOutBarCtrl@@QAEXH@Z DD 0ffffffffH
	DD	FLAT:__unwindfunclet$?HighlightFolder@CSTGfxOutBarCtrl@@QAEXH@Z$0
	DD	00H
	DD	FLAT:__unwindfunclet$?HighlightFolder@CSTGfxOutBarCtrl@@QAEXH@Z$1
	DD	00H
	DD	FLAT:__unwindfunclet$?HighlightFolder@CSTGfxOutBarCtrl@@QAEXH@Z$2
	DD	0ffffffffH
	DD	FLAT:__unwindfunclet$?HighlightFolder@CSTGfxOutBarCtrl@@QAEXH@Z$3
	DD	03H
	DD	FLAT:__unwindfunclet$?HighlightFolder@CSTGfxOutBarCtrl@@QAEXH@Z$4
xdata$x	ENDS
;	COMDAT xdata$x
xdata$x	SEGMENT
__unwindtable$?InsertItem@CSTGfxOutBarCtrl@@QAEHHHPBDHK@Z DD 0ffffffffH
	DD	FLAT:__unwindfunclet$?InsertItem@CSTGfxOutBarCtrl@@QAEHHHPBDHK@Z$0
__ehfuncinfo$?InsertItem@CSTGfxOutBarCtrl@@QAEHHHPBDHK@Z DD 019930522H
	DD	01H
	DD	FLAT:__unwindtable$?InsertItem@CSTGfxOutBarCtrl@@QAEHHHPBDHK@Z
	DD	2 DUP(00H)
	DD	2 DUP(00H)
	DD	00H
	DD	01H
xdata$x	ENDS
;	COMDAT xdata$x
xdata$x	SEGMENT
__unwindtable$?PaintItems@CSTGfxOutBarCtrl@@QAEXPAVCDC@@HVCRect@@@Z DD 0ffffffffH
	DD	FLAT:__unwindfunclet$?PaintItems@CSTGfxOutBarCtrl@@QAEXPAVCDC@@HVCRect@@@Z$0
__ehfuncinfo$?PaintItems@CSTGfxOutBarCtrl@@QAEXPAVCDC@@HVCRect@@@Z DD 019930522H
	DD	01H
	DD	FLAT:__unwindtable$?PaintItems@CSTGfxOutBarCtrl@@QAEXPAVCDC@@HVCRect@@@Z
	DD	2 DUP(00H)
	DD	2 DUP(00H)
	DD	00H
	DD	01H
xdata$x	ENDS
;	COMDAT xdata$x
xdata$x	SEGMENT
__unwindtable$?GetItemSize@CSTGfxOutBarCtrl@@QAE?AVCSize@@HHH@Z DD 0ffffffffH
	DD	FLAT:__unwindfunclet$?GetItemSize@CSTGfxOutBarCtrl@@QAE?AVCSize@@HHH@Z$0
__ehfuncinfo$?GetItemSize@CSTGfxOutBarCtrl@@QAE?AVCSize@@HHH@Z DD 019930522H
	DD	01H
	DD	FLAT:__unwindtable$?GetItemSize@CSTGfxOutBarCtrl@@QAE?AVCSize@@HHH@Z
	DD	2 DUP(00H)
	DD	2 DUP(00H)
	DD	00H
	DD	01H
xdata$x	ENDS
;	COMDAT xdata$x
xdata$x	SEGMENT
__unwindtable$?DrawItem@CSTGfxOutBarCtrl@@QAEXPAVCDC@@HVCRect@@H_N@Z DD 0ffffffffH
	DD	FLAT:__unwindfunclet$?DrawItem@CSTGfxOutBarCtrl@@QAEXPAVCDC@@HVCRect@@H_N@Z$0
__ehfuncinfo$?DrawItem@CSTGfxOutBarCtrl@@QAEXPAVCDC@@HVCRect@@H_N@Z DD 019930522H
	DD	01H
	DD	FLAT:__unwindtable$?DrawItem@CSTGfxOutBarCtrl@@QAEXPAVCDC@@HVCRect@@H_N@Z
	DD	2 DUP(00H)
	DD	2 DUP(00H)
	DD	00H
	DD	01H
xdata$x	ENDS
;	COMDAT xdata$x
xdata$x	SEGMENT
__unwindtable$?HighlightItem@CSTGfxOutBarCtrl@@QAEXH_N@Z DD 0ffffffffH
	DD	FLAT:__unwindfunclet$?HighlightItem@CSTGfxOutBarCtrl@@QAEXH_N@Z$0
	DD	00H
	DD	FLAT:__unwindfunclet$?HighlightItem@CSTGfxOutBarCtrl@@QAEXH_N@Z$1
__ehfuncinfo$?HighlightItem@CSTGfxOutBarCtrl@@QAEXH_N@Z DD 019930522H
	DD	02H
	DD	FLAT:__unwindtable$?HighlightItem@CSTGfxOutBarCtrl@@QAEXH_N@Z
	DD	2 DUP(00H)
	DD	2 DUP(00H)
	DD	00H
	DD	01H
xdata$x	ENDS
;	COMDAT xdata$x
xdata$x	SEGMENT
__unwindtable$?AnimateFolderScroll@CSTGfxOutBarCtrl@@QAEXHH@Z DD 0ffffffffH
	DD	FLAT:__unwindfunclet$?AnimateFolderScroll@CSTGfxOutBarCtrl@@QAEXHH@Z$0
	DD	00H
	DD	FLAT:__unwindfunclet$?AnimateFolderScroll@CSTGfxOutBarCtrl@@QAEXHH@Z$1
	DD	01H
	DD	FLAT:__unwindfunclet$?AnimateFolderScroll@CSTGfxOutBarCtrl@@QAEXHH@Z$2
	DD	02H
	DD	FLAT:__unwindfunclet$?AnimateFolderScroll@CSTGfxOutBarCtrl@@QAEXHH@Z$3
__ehfuncinfo$?AnimateFolderScroll@CSTGfxOutBarCtrl@@QAEXHH@Z DD 019930522H
	DD	04H
	DD	FLAT:__unwindtable$?AnimateFolderScroll@CSTGfxOutBarCtrl@@QAEXHH@Z
	DD	2 DUP(00H)
	DD	2 DUP(00H)
	DD	00H
	DD	01H
xdata$x	ENDS
;	COMDAT xdata$x
xdata$x	SEGMENT
__unwindtable$?GetItemText@CSTGfxOutBarCtrl@@QAE?AV?$CStringT@DV?$StrTraitMFC_DLL@DV?$ChTraitsCRT@D@ATL@@@@@ATL@@H@Z DD 0ffffffffH
	DD	FLAT:__unwindfunclet$?GetItemText@CSTGfxOutBarCtrl@@QAE?AV?$CStringT@DV?$StrTraitMFC_DLL@DV?$ChTraitsCRT@D@ATL@@@@@ATL@@H@Z$0
__ehfuncinfo$?GetItemText@CSTGfxOutBarCtrl@@QAE?AV?$CStringT@DV?$StrTraitMFC_DLL@DV?$ChTraitsCRT@D@ATL@@@@@ATL@@H@Z DD 019930522H
	DD	01H
	DD	FLAT:__unwindtable$?GetItemText@CSTGfxOutBarCtrl@@QAE?AV?$CStringT@DV?$StrTraitMFC_DLL@DV?$ChTraitsCRT@D@ATL@@@@@ATL@@H@Z
	DD	2 DUP(00H)
	DD	2 DUP(00H)
	DD	00H
	DD	01H
xdata$x	ENDS
;	COMDAT xdata$x
xdata$x	SEGMENT
__unwindtable$?AddFolderBar@CSTGfxOutBarCtrl@@QAEHPBDPAVCWnd@@K@Z DD 0ffffffffH
	DD	FLAT:__unwindfunclet$?AddFolderBar@CSTGfxOutBarCtrl@@QAEHPBDPAVCWnd@@K@Z$0
	DD	00H
	DD	FLAT:__unwindfunclet$?AddFolderBar@CSTGfxOutBarCtrl@@QAEHPBDPAVCWnd@@K@Z$1
__ehfuncinfo$?AddFolderBar@CSTGfxOutBarCtrl@@QAEHPBDPAVCWnd@@K@Z DD 019930522H
	DD	02H
	DD	FLAT:__unwindtable$?AddFolderBar@CSTGfxOutBarCtrl@@QAEHPBDPAVCWnd@@K@Z
	DD	2 DUP(00H)
	DD	2 DUP(00H)
	DD	00H
	DD	01H
xdata$x	ENDS
;	COMDAT xdata$x
xdata$x	SEGMENT
__unwindtable$?DrawAnimItem@CSTGfxOutBarCtrl@@QAEXHHH@Z DD 0ffffffffH
	DD	FLAT:__unwindfunclet$?DrawAnimItem@CSTGfxOutBarCtrl@@QAEXHHH@Z$0
__ehfuncinfo$?DrawAnimItem@CSTGfxOutBarCtrl@@QAEXHHH@Z DD 019930522H
	DD	01H
	DD	FLAT:__unwindtable$?DrawAnimItem@CSTGfxOutBarCtrl@@QAEXHHH@Z
	DD	2 DUP(00H)
	DD	2 DUP(00H)
	DD	00H
	DD	01H
xdata$x	ENDS
;	COMDAT xdata$x
xdata$x	SEGMENT
__unwindtable$??_GCBarFolder@CSTGfxOutBarCtrl@@UAEPAXI@Z DD 0ffffffffH
	DD	FLAT:___std_terminate
__ehfuncinfo$??_GCBarFolder@CSTGfxOutBarCtrl@@UAEPAXI@Z DD 019930522H
	DD	01H
	DD	FLAT:__unwindtable$??_GCBarFolder@CSTGfxOutBarCtrl@@UAEPAXI@Z
	DD	2 DUP(00H)
	DD	2 DUP(00H)
	DD	00H
	DD	05H
xdata$x	ENDS
;	COMDAT xdata$x
xdata$x	SEGMENT
__unwindtable$?InsertItem@CBarFolder@CSTGfxOutBarCtrl@@QAEHHPBDHK@Z DD 0ffffffffH
	DD	FLAT:__unwindfunclet$?InsertItem@CBarFolder@CSTGfxOutBarCtrl@@QAEHHPBDHK@Z$0
__ehfuncinfo$?InsertItem@CBarFolder@CSTGfxOutBarCtrl@@QAEHHPBDHK@Z DD 019930522H
	DD	01H
	DD	FLAT:__unwindtable$?InsertItem@CBarFolder@CSTGfxOutBarCtrl@@QAEHHPBDHK@Z
	DD	2 DUP(00H)
	DD	2 DUP(00H)
	DD	00H
	DD	01H
xdata$x	ENDS
;	COMDAT xdata$x
xdata$x	SEGMENT
__ehfuncinfo$??1CBarFolder@CSTGfxOutBarCtrl@@UAE@XZ DD 019930522H
	DD	00H
	DD	00H
	DD	2 DUP(00H)
	DD	2 DUP(00H)
	DD	00H
	DD	05H
xdata$x	ENDS
;	COMDAT xdata$x
xdata$x	SEGMENT
__unwindtable$??0CBarFolder@CSTGfxOutBarCtrl@@QAE@PBDK@Z DD 0ffffffffH
	DD	FLAT:__unwindfunclet$??0CBarFolder@CSTGfxOutBarCtrl@@QAE@PBDK@Z$0
__ehfuncinfo$??0CBarFolder@CSTGfxOutBarCtrl@@QAE@PBDK@Z DD 019930522H
	DD	01H
	DD	FLAT:__unwindtable$??0CBarFolder@CSTGfxOutBarCtrl@@QAE@PBDK@Z
	DD	2 DUP(00H)
	DD	2 DUP(00H)
	DD	00H
	DD	01H
xdata$x	ENDS
;	COMDAT xdata$x
xdata$x	SEGMENT
__unwindtable$??0CSTGfxOutBarCtrl@@QAE@XZ DD 0ffffffffH
	DD	FLAT:__unwindfunclet$??0CSTGfxOutBarCtrl@@QAE@XZ$0
	DD	00H
	DD	FLAT:__unwindfunclet$??0CSTGfxOutBarCtrl@@QAE@XZ$1
	DD	01H
	DD	FLAT:__unwindfunclet$??0CSTGfxOutBarCtrl@@QAE@XZ$2
	DD	02H
	DD	FLAT:__unwindfunclet$??0CSTGfxOutBarCtrl@@QAE@XZ$3
__ehfuncinfo$??0CSTGfxOutBarCtrl@@QAE@XZ DD 019930522H
	DD	04H
	DD	FLAT:__unwindtable$??0CSTGfxOutBarCtrl@@QAE@XZ
	DD	2 DUP(00H)
	DD	2 DUP(00H)
	DD	00H
	DD	01H
xdata$x	ENDS
;	COMDAT xdata$x
xdata$x	SEGMENT
__unwindtable$?CreateObject@CSTGfxOutBarCtrl@@SGPAVCObject@@XZ DD 0ffffffffH
	DD	FLAT:__unwindfunclet$?CreateObject@CSTGfxOutBarCtrl@@SGPAVCObject@@XZ$0
__ehfuncinfo$?CreateObject@CSTGfxOutBarCtrl@@SGPAVCObject@@XZ DD 019930522H
	DD	01H
	DD	FLAT:__unwindtable$?CreateObject@CSTGfxOutBarCtrl@@SGPAVCObject@@XZ
	DD	2 DUP(00H)
	DD	2 DUP(00H)
	DD	00H
	DD	01H
xdata$x	ENDS
;	COMDAT xdata$x
xdata$x	SEGMENT
__catchsym$??1CGdiObject@@UAE@XZ$3 DD 00H
	DD	FLAT:??_R0PAVCException@@@8
	DD	0fffffde4H
	DD	FLAT:__catch$??1CGdiObject@@UAE@XZ$0
__tryblocktable$??1CGdiObject@@UAE@XZ DD 00H
	DD	00H
	DD	02H
	DD	01H
	DD	FLAT:__catchsym$??1CGdiObject@@UAE@XZ$3
__unwindtable$??1CGdiObject@@UAE@XZ DD 0ffffffffH
	DD	00H
	DD	0ffffffffH
	DD	00H
	DD	01H
	DD	FLAT:__unwindfunclet$??1CGdiObject@@UAE@XZ$2
__ehfuncinfo$??1CGdiObject@@UAE@XZ DD 019930522H
	DD	03H
	DD	FLAT:__unwindtable$??1CGdiObject@@UAE@XZ
	DD	01H
	DD	FLAT:__tryblocktable$??1CGdiObject@@UAE@XZ
	DD	2 DUP(00H)
	DD	00H
	DD	05H
xdata$x	ENDS
; Function compile flags: /Ogtp
; File D:\git\src\IBK\IBK_DRFN\ProjSrc\SrcDrfn\Chart\Common_ST\STGfxOutBarCtrl.cpp
;	COMDAT ?SetSelFolder@CImpl_IGfxOutBarCtrl@@UAGXH@Z
_TEXT	SEGMENT
_this$ = 8						; size = 4
_nIndex$ = 12						; size = 4
?SetSelFolder@CImpl_IGfxOutBarCtrl@@UAGXH@Z PROC	; CImpl_IGfxOutBarCtrl::SetSelFolder, COMDAT

; 2630 : {

  00000	55		 push	 ebp
  00001	8b ec		 mov	 ebp, esp

; 2631 : 	if(m_wndOutBar.GetFolderCount()>nIndex)

  00003	8b 4d 08	 mov	 ecx, DWORD PTR _this$[ebp]
  00006	8b 45 0c	 mov	 eax, DWORD PTR _nIndex$[ebp]
  00009	39 81 10 01 00
	00		 cmp	 DWORD PTR [ecx+272], eax
  0000f	7e 09		 jle	 SHORT $LN2@SetSelFold

; 2632 : 		m_wndOutBar.SetSelFolder(nIndex);

  00011	50		 push	 eax
  00012	83 c1 08	 add	 ecx, 8
  00015	e8 00 00 00 00	 call	 ?SetSelFolder@CSTGfxOutBarCtrl@@QAEXH@Z ; CSTGfxOutBarCtrl::SetSelFolder
$LN2@SetSelFold:

; 2633 : }

  0001a	5d		 pop	 ebp
  0001b	c2 08 00	 ret	 8
?SetSelFolder@CImpl_IGfxOutBarCtrl@@UAGXH@Z ENDP	; CImpl_IGfxOutBarCtrl::SetSelFolder
_TEXT	ENDS
; Function compile flags: /Ogtp
; File D:\git\src\IBK\IBK_DRFN\ProjSrc\SrcDrfn\Chart\Common_ST\STGfxOutBarCtrl.cpp
; File C:\Program Files (x86)\Microsoft Visual Studio\2019\Community\VC\Tools\MSVC\14.29.30133\atlmfc\include\afxcoll.inl
; File D:\git\src\IBK\IBK_DRFN\ProjSrc\SrcDrfn\Chart\Common_ST\STGfxOutBarCtrl.cpp
; File C:\Program Files (x86)\Microsoft Visual Studio\2019\Community\VC\Tools\MSVC\14.29.30133\atlmfc\include\afxcoll.inl
; File D:\git\src\IBK\IBK_DRFN\ProjSrc\SrcDrfn\Chart\Common_ST\STGfxOutBarCtrl.cpp
;	COMDAT ?AddFolderBar@CImpl_IGfxOutBarCtrl@@UAGHPBDPAVCWnd@@@Z
_TEXT	SEGMENT
_this$ = 8						; size = 4
_szFolderName$ = 12					; size = 4
_pChild$ = 16						; size = 4
?AddFolderBar@CImpl_IGfxOutBarCtrl@@UAGHPBDPAVCWnd@@@Z PROC ; CImpl_IGfxOutBarCtrl::AddFolderBar, COMDAT

; 2625 : {

  00000	55		 push	 ebp
  00001	8b ec		 mov	 ebp, esp
  00003	56		 push	 esi
  00004	57		 push	 edi

; 2529 : 	CBarFolder * pbf = new CBarFolder(pFolder, exData);

  00005	6a 2c		 push	 44			; 0000002cH
  00007	e8 00 00 00 00	 call	 ??2@YAPAXI@Z		; operator new
  0000c	8b f8		 mov	 edi, eax
  0000e	83 c4 04	 add	 esp, 4
  00011	85 ff		 test	 edi, edi
  00013	74 4f		 je	 SHORT $LN5@AddFolderB

; 783  : {

  00015	8d 4f 14	 lea	 ecx, DWORD PTR [edi+20]
  00018	c7 07 00 00 00
	00		 mov	 DWORD PTR [edi], OFFSET ??_7CBarFolder@CSTGfxOutBarCtrl@@6B@
  0001e	e8 00 00 00 00	 call	 ??0CPtrArray@@QAE@XZ	; CPtrArray::CPtrArray

; 784  : 	cName = NULL;
; 785  : 	dwData = exData;
; 786  : 
; 787  : 	if (name)

  00023	8b 75 0c	 mov	 esi, DWORD PTR _szFolderName$[ebp]
  00026	c7 47 04 00 00
	00 00		 mov	 DWORD PTR [edi+4], 0
  0002d	c7 47 08 00 00
	00 00		 mov	 DWORD PTR [edi+8], 0
  00034	85 f6		 test	 esi, esi
  00036	74 1c		 je	 SHORT $LN8@AddFolderB

; 788  : 	{
; 789  : 		cName = new char[lstrlen(name)+1];

  00038	56		 push	 esi
  00039	ff 15 00 00 00
	00		 call	 DWORD PTR __imp__lstrlenA@4
  0003f	40		 inc	 eax
  00040	50		 push	 eax
  00041	e8 00 00 00 00	 call	 ??_U@YAPAXI@Z		; operator new[]
  00046	83 c4 04	 add	 esp, 4
  00049	89 47 04	 mov	 DWORD PTR [edi+4], eax

; 790  : 		ASSERT(cName);
; 791  : 		lstrcpy(cName, name);

  0004c	56		 push	 esi
  0004d	50		 push	 eax
  0004e	ff 15 00 00 00
	00		 call	 DWORD PTR __imp__lstrcpyA@8
$LN8@AddFolderB:

; 792  : 	}
; 793  : 	pLargeImageList = NULL;

  00054	c7 47 0c 00 00
	00 00		 mov	 DWORD PTR [edi+12], 0

; 794  : 	pSmallImageList = NULL;

  0005b	c7 47 10 00 00
	00 00		 mov	 DWORD PTR [edi+16], 0

; 2529 : 	CBarFolder * pbf = new CBarFolder(pFolder, exData);

  00062	eb 02		 jmp	 SHORT $LN6@AddFolderB
$LN5@AddFolderB:
  00064	33 ff		 xor	 edi, edi
$LN6@AddFolderB:

; 2532 : 
; 2533 : 	arFolder.Add((void *)pbf);

  00066	8b 75 08	 mov	 esi, DWORD PTR _this$[ebp]
  00069	8b 45 10	 mov	 eax, DWORD PTR _pChild$[ebp]
  0006c	8d 8e 08 01 00
	00		 lea	 ecx, DWORD PTR [esi+264]
; File C:\Program Files (x86)\Microsoft Visual Studio\2019\Community\VC\Tools\MSVC\14.29.30133\atlmfc\include\afxcoll.inl

; 223  : 		SetAtGrow(nIndex, newElement);

  00072	57		 push	 edi
; File D:\git\src\IBK\IBK_DRFN\ProjSrc\SrcDrfn\Chart\Common_ST\STGfxOutBarCtrl.cpp

; 2531 : 	pbf->pChild = pSon;

  00073	89 47 28	 mov	 DWORD PTR [edi+40], eax
; File C:\Program Files (x86)\Microsoft Visual Studio\2019\Community\VC\Tools\MSVC\14.29.30133\atlmfc\include\afxcoll.inl

; 223  : 		SetAtGrow(nIndex, newElement);

  00076	ff 71 08	 push	 DWORD PTR [ecx+8]
  00079	e8 00 00 00 00	 call	 ?SetAtGrow@CPtrArray@@QAEXHPAX@Z ; CPtrArray::SetAtGrow
; File D:\git\src\IBK\IBK_DRFN\ProjSrc\SrcDrfn\Chart\Common_ST\STGfxOutBarCtrl.cpp

; 2535 : 	return arFolder.GetSize() - 1;

  0007e	8b 86 10 01 00
	00		 mov	 eax, DWORD PTR [esi+272]

; 2626 : 	return m_wndOutBar.AddFolderBar(szFolderName, pChild);

  00084	5f		 pop	 edi

; 2535 : 	return arFolder.GetSize() - 1;

  00085	48		 dec	 eax

; 2626 : 	return m_wndOutBar.AddFolderBar(szFolderName, pChild);

  00086	5e		 pop	 esi

; 2627 : }

  00087	5d		 pop	 ebp
  00088	c2 0c 00	 ret	 12			; 0000000cH
?AddFolderBar@CImpl_IGfxOutBarCtrl@@UAGHPBDPAVCWnd@@@Z ENDP ; CImpl_IGfxOutBarCtrl::AddFolderBar
_TEXT	ENDS
; Function compile flags: /Ogtp
; File D:\git\src\IBK\IBK_DRFN\ProjSrc\SrcDrfn\Chart\Common_ST\STGfxOutBarCtrl.cpp
;	COMDAT ?SetFolderImageList@CImpl_IGfxOutBarCtrl@@UAGXPAVCImageList@@HHH@Z
_TEXT	SEGMENT
_this$ = 8						; size = 4
_pImageList$ = 12					; size = 4
_nNormal$ = 16						; size = 4
_nDown$ = 20						; size = 4
_nOver$ = 24						; size = 4
?SetFolderImageList@CImpl_IGfxOutBarCtrl@@UAGXPAVCImageList@@HHH@Z PROC ; CImpl_IGfxOutBarCtrl::SetFolderImageList, COMDAT

; 2620 : {

  00000	55		 push	 ebp
  00001	8b ec		 mov	 ebp, esp

; 1516 : 	m_pFolderImageList = pImageList;

  00003	8b 4d 08	 mov	 ecx, DWORD PTR _this$[ebp]
  00006	8b 45 0c	 mov	 eax, DWORD PTR _pImageList$[ebp]
  00009	89 81 5c 01 00
	00		 mov	 DWORD PTR [ecx+348], eax

; 1517 : 	m_nNormal = nNormal;

  0000f	8b 45 10	 mov	 eax, DWORD PTR _nNormal$[ebp]
  00012	89 81 60 01 00
	00		 mov	 DWORD PTR [ecx+352], eax

; 1518 : 	m_nDown = nDown;

  00018	8b 45 14	 mov	 eax, DWORD PTR _nDown$[ebp]
  0001b	89 81 64 01 00
	00		 mov	 DWORD PTR [ecx+356], eax

; 1519 : 	m_nOver = nOver;

  00021	8b 45 18	 mov	 eax, DWORD PTR _nOver$[ebp]
  00024	89 81 68 01 00
	00		 mov	 DWORD PTR [ecx+360], eax

; 2621 : 	m_wndOutBar.SetFolderImageList(pImageList, nNormal, nDown, nOver);
; 2622 : }

  0002a	5d		 pop	 ebp
  0002b	c2 14 00	 ret	 20			; 00000014H
?SetFolderImageList@CImpl_IGfxOutBarCtrl@@UAGXPAVCImageList@@HHH@Z ENDP ; CImpl_IGfxOutBarCtrl::SetFolderImageList
_TEXT	ENDS
; Function compile flags: /Ogtp
; File D:\git\src\IBK\IBK_DRFN\ProjSrc\SrcDrfn\Chart\Common_ST\STGfxOutBarCtrl.cpp
;	COMDAT ?SetImageList@CImpl_IGfxOutBarCtrl@@UAGPAVCImageList@@PAV2@H@Z
_TEXT	SEGMENT
_this$ = 8						; size = 4
_pImageList$ = 12					; size = 4
_nImageList$ = 16					; size = 4
?SetImageList@CImpl_IGfxOutBarCtrl@@UAGPAVCImageList@@PAV2@H@Z PROC ; CImpl_IGfxOutBarCtrl::SetImageList, COMDAT

; 2615 : {

  00000	55		 push	 ebp
  00001	8b ec		 mov	 ebp, esp

; 1615 : 	if (nImageList == fSmallIcon)

  00003	8b 45 10	 mov	 eax, DWORD PTR _nImageList$[ebp]
  00006	83 f8 01	 cmp	 eax, 1
  00009	75 18		 jne	 SHORT $LN4@SetImageLi

; 1616 : 	{
; 1617 : 		o = pSmallImageList;

  0000b	8b 55 08	 mov	 edx, DWORD PTR _this$[ebp]

; 1618 : 		pSmallImageList = pImageList;

  0000e	8b 45 0c	 mov	 eax, DWORD PTR _pImageList$[ebp]
  00011	8b 8a 40 01 00
	00		 mov	 ecx, DWORD PTR [edx+320]
  00017	89 82 40 01 00
	00		 mov	 DWORD PTR [edx+320], eax

; 2616 : 	return m_wndOutBar.SetImageList(pImageList, nImageList);

  0001d	8b c1		 mov	 eax, ecx

; 2617 : }

  0001f	5d		 pop	 ebp
  00020	c2 0c 00	 ret	 12			; 0000000cH
$LN4@SetImageLi:

; 1620 : 	else if (nImageList == fLargeIcon)

  00023	83 f8 02	 cmp	 eax, 2
  00026	75 18		 jne	 SHORT $LN8@SetImageLi

; 1621 : 	{
; 1622 : 		o = pLargeImageList;

  00028	8b 55 08	 mov	 edx, DWORD PTR _this$[ebp]

; 1623 : 		pLargeImageList = pImageList;

  0002b	8b 45 0c	 mov	 eax, DWORD PTR _pImageList$[ebp]
  0002e	8b 8a 3c 01 00
	00		 mov	 ecx, DWORD PTR [edx+316]
  00034	89 82 3c 01 00
	00		 mov	 DWORD PTR [edx+316], eax

; 2616 : 	return m_wndOutBar.SetImageList(pImageList, nImageList);

  0003a	8b c1		 mov	 eax, ecx

; 2617 : }

  0003c	5d		 pop	 ebp
  0003d	c2 0c 00	 ret	 12			; 0000000cH
$LN8@SetImageLi:

; 2616 : 	return m_wndOutBar.SetImageList(pImageList, nImageList);

  00040	33 c0		 xor	 eax, eax

; 2617 : }

  00042	5d		 pop	 ebp
  00043	c2 0c 00	 ret	 12			; 0000000cH
?SetImageList@CImpl_IGfxOutBarCtrl@@UAGPAVCImageList@@PAV2@H@Z ENDP ; CImpl_IGfxOutBarCtrl::SetImageList
_TEXT	ENDS
; Function compile flags: /Ogtp
; File D:\git\src\IBK\IBK_DRFN\ProjSrc\SrcDrfn\Chart\Common_ST\STGfxOutBarCtrl.cpp
;	COMDAT ?Setcr3dUnFace@CImpl_IGfxOutBarCtrl@@UAGXK@Z
_TEXT	SEGMENT
_this$ = 8						; size = 4
_dwRgb$ = 12						; size = 4
?Setcr3dUnFace@CImpl_IGfxOutBarCtrl@@UAGXK@Z PROC	; CImpl_IGfxOutBarCtrl::Setcr3dUnFace, COMDAT

; 2609 : {

  00000	55		 push	 ebp
  00001	8b ec		 mov	 ebp, esp

; 2610 : //	m_wndOutBar.cr3dUnFace = dwRgb;
; 2611 : 	m_wndOutBar.crBackGroundColor1 = dwRgb;

  00003	8b 4d 08	 mov	 ecx, DWORD PTR _this$[ebp]
  00006	8b 45 0c	 mov	 eax, DWORD PTR _dwRgb$[ebp]
  00009	89 81 8c 00 00
	00		 mov	 DWORD PTR [ecx+140], eax

; 2612 : }

  0000f	5d		 pop	 ebp
  00010	c2 08 00	 ret	 8
?Setcr3dUnFace@CImpl_IGfxOutBarCtrl@@UAGXK@Z ENDP	; CImpl_IGfxOutBarCtrl::Setcr3dUnFace
_TEXT	ENDS
; Function compile flags: /Ogtp
; File D:\git\src\IBK\IBK_DRFN\ProjSrc\SrcDrfn\Chart\Common_ST\STGfxOutBarCtrl.cpp
;	COMDAT ?Setcr3dFace@CImpl_IGfxOutBarCtrl@@UAGXK@Z
_TEXT	SEGMENT
_this$ = 8						; size = 4
_dwRgb$ = 12						; size = 4
?Setcr3dFace@CImpl_IGfxOutBarCtrl@@UAGXK@Z PROC		; CImpl_IGfxOutBarCtrl::Setcr3dFace, COMDAT

; 2603 : {

  00000	55		 push	 ebp
  00001	8b ec		 mov	 ebp, esp

; 2604 : //	m_wndOutBar.cr3dFace = dwRgb;
; 2605 : 	m_wndOutBar.cr3dFace = dwRgb;

  00003	8b 4d 08	 mov	 ecx, DWORD PTR _this$[ebp]
  00006	8b 45 0c	 mov	 eax, DWORD PTR _dwRgb$[ebp]
  00009	89 81 94 00 00
	00		 mov	 DWORD PTR [ecx+148], eax

; 2606 : }

  0000f	5d		 pop	 ebp
  00010	c2 08 00	 ret	 8
?Setcr3dFace@CImpl_IGfxOutBarCtrl@@UAGXK@Z ENDP		; CImpl_IGfxOutBarCtrl::Setcr3dFace
_TEXT	ENDS
; Function compile flags: /Ogtp
; File D:\git\src\IBK\IBK_DRFN\ProjSrc\SrcDrfn\Chart\Common_ST\STGfxOutBarCtrl.cpp
;	COMDAT ?CreateOutBar@CImpl_IGfxOutBarCtrl@@UAGHKABUtagRECT@@PAVCWnd@@IK@Z
_TEXT	SEGMENT
_this$ = 8						; size = 4
_dwStyle$ = 12						; size = 4
_rect$ = 16						; size = 4
_pParentWnd$ = 20					; size = 4
_nID$ = 24						; size = 4
_dwFlag$ = 28						; size = 4
?CreateOutBar@CImpl_IGfxOutBarCtrl@@UAGHKABUtagRECT@@PAVCWnd@@IK@Z PROC ; CImpl_IGfxOutBarCtrl::CreateOutBar, COMDAT

; 2598 : {

  00000	55		 push	 ebp
  00001	8b ec		 mov	 ebp, esp

; 2599 : 	return m_wndOutBar.Create(dwStyle, rect, pParentWnd, nID, dwFlag);

  00003	8b 4d 08	 mov	 ecx, DWORD PTR _this$[ebp]

; 207  : 	dwFlags = dwFlag;

  00006	8b 45 1c	 mov	 eax, DWORD PTR _dwFlag$[ebp]

; 2599 : 	return m_wndOutBar.Create(dwStyle, rect, pParentWnd, nID, dwFlag);

  00009	83 c1 08	 add	 ecx, 8

; 209  : 	return CWnd::CreateEx(NULL, NULL, NULL, dwStyle|WS_CHILD, rect, pParentWnd, nID);

  0000c	6a 00		 push	 0
  0000e	ff 75 18	 push	 DWORD PTR _nID$[ebp]
  00011	ff 75 14	 push	 DWORD PTR _pParentWnd$[ebp]
  00014	89 81 fc 00 00
	00		 mov	 DWORD PTR [ecx+252], eax
  0001a	ff 75 10	 push	 DWORD PTR _rect$[ebp]
  0001d	8b 45 0c	 mov	 eax, DWORD PTR _dwStyle$[ebp]
  00020	0d 00 00 00 40	 or	 eax, 1073741824		; 40000000H
  00025	50		 push	 eax
  00026	6a 00		 push	 0
  00028	6a 00		 push	 0
  0002a	6a 00		 push	 0
  0002c	e8 00 00 00 00	 call	 ?CreateEx@CWnd@@UAEHKPBD0KABUtagRECT@@PAV1@IPAX@Z ; CWnd::CreateEx

; 2600 : }

  00031	5d		 pop	 ebp
  00032	c2 18 00	 ret	 24			; 00000018H
?CreateOutBar@CImpl_IGfxOutBarCtrl@@UAGHKABUtagRECT@@PAVCWnd@@IK@Z ENDP ; CImpl_IGfxOutBarCtrl::CreateOutBar
_TEXT	ENDS
; Function compile flags: /Ogtp
; File D:\git\src\IBK\IBK_DRFN\ProjSrc\SrcDrfn\Chart\Common_ST\STGfxOutBarCtrl.cpp
;	COMDAT ?GetCoutBarCtrl@CImpl_IGfxOutBarCtrl@@UAGPAVCWnd@@XZ
_TEXT	SEGMENT
_this$ = 8						; size = 4
?GetCoutBarCtrl@CImpl_IGfxOutBarCtrl@@UAGPAVCWnd@@XZ PROC ; CImpl_IGfxOutBarCtrl::GetCoutBarCtrl, COMDAT

; 2593 : {

  00000	55		 push	 ebp
  00001	8b ec		 mov	 ebp, esp

; 2594 : 	return (CWnd*)&m_wndOutBar;

  00003	8b 45 08	 mov	 eax, DWORD PTR _this$[ebp]
  00006	83 c0 08	 add	 eax, 8

; 2595 : }

  00009	5d		 pop	 ebp
  0000a	c2 04 00	 ret	 4
?GetCoutBarCtrl@CImpl_IGfxOutBarCtrl@@UAGPAVCWnd@@XZ ENDP ; CImpl_IGfxOutBarCtrl::GetCoutBarCtrl
_TEXT	ENDS
; Function compile flags: /Ogtp
; File D:\git\src\IBK\IBK_DRFN\ProjSrc\SrcDrfn\Chart\Common_ST\STGfxOutBarCtrl.cpp
;	COMDAT ??0CImpl_IGfxOutBarCtrl@@QAE@XZ
_TEXT	SEGMENT
_this$ = -4						; size = 4
??0CImpl_IGfxOutBarCtrl@@QAE@XZ PROC			; CImpl_IGfxOutBarCtrl::CImpl_IGfxOutBarCtrl, COMDAT
; _this$ = ecx

; 2589 : {

  00000	55		 push	 ebp
  00001	8b ec		 mov	 ebp, esp
  00003	51		 push	 ecx
  00004	56		 push	 esi
  00005	8b f1		 mov	 esi, ecx
  00007	89 75 fc	 mov	 DWORD PTR _this$[ebp], esi
  0000a	8d 4e 08	 lea	 ecx, DWORD PTR [esi+8]
  0000d	c7 06 00 00 00
	00		 mov	 DWORD PTR [esi], OFFSET ??_7CImpl_IGfxOutBarCtrl@@6B@
  00013	e8 00 00 00 00	 call	 ??0CSTGfxOutBarCtrl@@QAE@XZ ; CSTGfxOutBarCtrl::CSTGfxOutBarCtrl

; 2590 : }

  00018	8b c6		 mov	 eax, esi
  0001a	5e		 pop	 esi
  0001b	8b e5		 mov	 esp, ebp
  0001d	5d		 pop	 ebp
  0001e	c3		 ret	 0
??0CImpl_IGfxOutBarCtrl@@QAE@XZ ENDP			; CImpl_IGfxOutBarCtrl::CImpl_IGfxOutBarCtrl
_TEXT	ENDS
; Function compile flags: /Ogtp
; File C:\Program Files (x86)\Microsoft Visual Studio\2019\Community\VC\Tools\MSVC\14.29.30133\atlmfc\include\afx.inl
;	COMDAT ??_GCSTGfxOutBarCtrl@@UAEPAXI@Z
_TEXT	SEGMENT
___flags$ = 8						; size = 4
??_GCSTGfxOutBarCtrl@@UAEPAXI@Z PROC			; CSTGfxOutBarCtrl::`scalar deleting destructor', COMDAT
; _this$ = ecx
  00000	55		 push	 ebp
  00001	8b ec		 mov	 ebp, esp
  00003	56		 push	 esi
  00004	8b f1		 mov	 esi, ecx
  00006	e8 00 00 00 00	 call	 ??1CSTGfxOutBarCtrl@@UAE@XZ ; CSTGfxOutBarCtrl::~CSTGfxOutBarCtrl
  0000b	8b 45 08	 mov	 eax, DWORD PTR ___flags$[ebp]
  0000e	a8 01		 test	 al, 1
  00010	74 22		 je	 SHORT $LN9@scalar
  00012	a8 04		 test	 al, 4
  00014	75 10		 jne	 SHORT $LN3@scalar

; 112  : 	{ ::operator delete(p); }

  00016	56		 push	 esi
  00017	e8 00 00 00 00	 call	 ??3@YAXPAX@Z		; operator delete
  0001c	83 c4 04	 add	 esp, 4
  0001f	8b c6		 mov	 eax, esi
  00021	5e		 pop	 esi
  00022	5d		 pop	 ebp
  00023	c2 04 00	 ret	 4
$LN3@scalar:
  00026	68 68 01 00 00	 push	 360			; 00000168H
  0002b	56		 push	 esi
  0002c	e8 00 00 00 00	 call	 ?__global_delete@@YAXPAXI@Z ; __global_delete
  00031	83 c4 08	 add	 esp, 8
$LN9@scalar:
  00034	8b c6		 mov	 eax, esi
  00036	5e		 pop	 esi
  00037	5d		 pop	 ebp
  00038	c2 04 00	 ret	 4
??_GCSTGfxOutBarCtrl@@UAEPAXI@Z ENDP			; CSTGfxOutBarCtrl::`scalar deleting destructor'
_TEXT	ENDS
; Function compile flags: /Ogtp
; File D:\git\src\IBK\IBK_DRFN\ProjSrc\SrcDrfn\Chart\Common_ST\STGfxOutBarCtrl.cpp
;	COMDAT ?GetMessageMap@CSTGfxOutBarCtrl@@MBEPBUAFX_MSGMAP@@XZ
_TEXT	SEGMENT
?GetMessageMap@CSTGfxOutBarCtrl@@MBEPBUAFX_MSGMAP@@XZ PROC ; CSTGfxOutBarCtrl::GetMessageMap, COMDAT
; _this$ = ecx

; 113  : BEGIN_MESSAGE_MAP(CSTGfxOutBarCtrl, CWnd)

  00000	b8 00 00 00 00	 mov	 eax, OFFSET ?messageMap@?1??GetThisMessageMap@CSTGfxOutBarCtrl@@KGPBUAFX_MSGMAP@@XZ@4U3@B
  00005	c3		 ret	 0
?GetMessageMap@CSTGfxOutBarCtrl@@MBEPBUAFX_MSGMAP@@XZ ENDP ; CSTGfxOutBarCtrl::GetMessageMap
_TEXT	ENDS
; Function compile flags: /Ogtp
; File D:\git\src\IBK\IBK_DRFN\ProjSrc\SrcDrfn\Chart\Common_ST\STGfxOutBarCtrl.cpp
;	COMDAT ?GetThisMessageMap@CSTGfxOutBarCtrl@@KGPBUAFX_MSGMAP@@XZ
_TEXT	SEGMENT
?GetThisMessageMap@CSTGfxOutBarCtrl@@KGPBUAFX_MSGMAP@@XZ PROC ; CSTGfxOutBarCtrl::GetThisMessageMap, COMDAT

; 114  : 	//{{AFX_MSG_MAP(CSTGfxOutBarCtrl)
; 115  : 	ON_WM_CREATE()
; 116  : 	ON_WM_TIMER()
; 117  : 	ON_WM_PAINT()
; 118  : 	ON_WM_ERASEBKGND()
; 119  : 	ON_WM_MOUSEMOVE()
; 120  : 	ON_WM_LBUTTONDOWN()
; 121  : 	ON_WM_SIZE()
; 122  : 	ON_WM_RBUTTONDOWN()
; 123  : 	ON_WM_DESTROY()
; 124  : 	//}}AFX_MSG_MAP
; 125  : //	ON_MESSAGE(WM_OUTBAR_NOTIFY, OnEndLabelEdit)
; 126  : END_MESSAGE_MAP()

  00000	b8 00 00 00 00	 mov	 eax, OFFSET ?messageMap@?1??GetThisMessageMap@CSTGfxOutBarCtrl@@KGPBUAFX_MSGMAP@@XZ@4U3@B
  00005	c3		 ret	 0
?GetThisMessageMap@CSTGfxOutBarCtrl@@KGPBUAFX_MSGMAP@@XZ ENDP ; CSTGfxOutBarCtrl::GetThisMessageMap
_TEXT	ENDS
; Function compile flags: /Ogtp
; File D:\git\src\IBK\IBK_DRFN\ProjSrc\SrcDrfn\Chart\Common_ST\STGfxOutBarCtrl.cpp
; File C:\Program Files (x86)\Microsoft Visual Studio\2019\Community\VC\Tools\MSVC\14.29.30133\atlmfc\include\atltypes.h
; File C:\Program Files (x86)\Microsoft Visual Studio\2019\Community\VC\Tools\MSVC\14.29.30133\atlmfc\include\afxwin2.inl
; File C:\Program Files (x86)\Microsoft Visual Studio\2019\Community\VC\Tools\MSVC\14.29.30133\atlmfc\include\atltypes.h
; File C:\Program Files (x86)\Microsoft Visual Studio\2019\Community\VC\Tools\MSVC\14.29.30133\atlmfc\include\afxwin2.inl
; File D:\git\src\IBK\IBK_DRFN\ProjSrc\SrcDrfn\Chart\Common_ST\STGfxOutBarCtrl.cpp
; File C:\Program Files (x86)\Microsoft Visual Studio\2019\Community\VC\Tools\MSVC\14.29.30133\atlmfc\include\afxwin2.inl
; File D:\git\src\IBK\IBK_DRFN\ProjSrc\SrcDrfn\Chart\Common_ST\STGfxOutBarCtrl.cpp
;	COMDAT ?OnSetCursor@CSTGfxOutBarCtrl@@IAEHPAVCWnd@@II@Z
_TEXT	SEGMENT
_pt$ = -12						; size = 8
_index$ = -4						; size = 4
_pWnd$ = 8						; size = 4
_nHitTest$ = 12						; size = 4
_message$ = 16						; size = 4
?OnSetCursor@CSTGfxOutBarCtrl@@IAEHPAVCWnd@@II@Z PROC	; CSTGfxOutBarCtrl::OnSetCursor, COMDAT
; _this$ = ecx

; 1863 : {

  00000	55		 push	 ebp
  00001	8b ec		 mov	 ebp, esp
  00003	83 ec 0c	 sub	 esp, 12			; 0000000cH
  00006	56		 push	 esi
  00007	8b f1		 mov	 esi, ecx

; 1864 : 	CPoint pt(GetMessagePos());

  00009	ff 15 00 00 00
	00		 call	 DWORD PTR __imp__GetMessagePos@0
; File C:\Program Files (x86)\Microsoft Visual Studio\2019\Community\VC\Tools\MSVC\14.29.30133\atlmfc\include\atltypes.h

; 424  : 	x = (short)LOWORD(dwPoint);

  0000f	0f bf d0	 movsx	 edx, ax

; 425  : 	y = (short)HIWORD(dwPoint);

  00012	c1 e8 10	 shr	 eax, 16			; 00000010H
  00015	98		 cwde
  00016	89 45 f8	 mov	 DWORD PTR _pt$[ebp+4], eax
; File C:\Program Files (x86)\Microsoft Visual Studio\2019\Community\VC\Tools\MSVC\14.29.30133\atlmfc\include\afxwin2.inl

; 94   : 	{ ASSERT(::IsWindow(m_hWnd)); ::ScreenToClient(m_hWnd, lpPoint); }

  00019	8d 45 f4	 lea	 eax, DWORD PTR _pt$[ebp]
  0001c	50		 push	 eax
  0001d	ff 76 20	 push	 DWORD PTR [esi+32]
; File C:\Program Files (x86)\Microsoft Visual Studio\2019\Community\VC\Tools\MSVC\14.29.30133\atlmfc\include\atltypes.h

; 424  : 	x = (short)LOWORD(dwPoint);

  00020	89 55 f4	 mov	 DWORD PTR _pt$[ebp], edx
; File C:\Program Files (x86)\Microsoft Visual Studio\2019\Community\VC\Tools\MSVC\14.29.30133\atlmfc\include\afxwin2.inl

; 94   : 	{ ASSERT(::IsWindow(m_hWnd)); ::ScreenToClient(m_hWnd, lpPoint); }

  00023	ff 15 00 00 00
	00		 call	 DWORD PTR __imp__ScreenToClient@8
; File D:\git\src\IBK\IBK_DRFN\ProjSrc\SrcDrfn\Chart\Common_ST\STGfxOutBarCtrl.cpp

; 1866 : 	int index, ht = HitTestEx(pt, index);

  00029	8d 45 fc	 lea	 eax, DWORD PTR _index$[ebp]
  0002c	8b ce		 mov	 ecx, esi
  0002e	50		 push	 eax
  0002f	8d 45 f4	 lea	 eax, DWORD PTR _pt$[ebp]
  00032	50		 push	 eax
  00033	e8 00 00 00 00	 call	 ?HitTestEx@CSTGfxOutBarCtrl@@QAEHABVCPoint@@AAH@Z ; CSTGfxOutBarCtrl::HitTestEx

; 1867 : 	if (ht == htFolder)

  00038	85 c0		 test	 eax, eax
  0003a	75 18		 jne	 SHORT $LN2@OnSetCurso

; 1868 : 	{
; 1869 : 		SetCursor(hHandCursor);

  0003c	ff b6 3c 01 00
	00		 push	 DWORD PTR [esi+316]
  00042	ff 15 00 00 00
	00		 call	 DWORD PTR __imp__SetCursor@4

; 1870 : 		return true;

  00048	b8 01 00 00 00	 mov	 eax, 1
  0004d	5e		 pop	 esi

; 1874 : }

  0004e	8b e5		 mov	 esp, ebp
  00050	5d		 pop	 ebp
  00051	c2 0c 00	 ret	 12			; 0000000cH
$LN2@OnSetCurso:
; File C:\Program Files (x86)\Microsoft Visual Studio\2019\Community\VC\Tools\MSVC\14.29.30133\atlmfc\include\afxwin2.inl

; 326  : 	{ return (BOOL)Default(); }

  00054	8b ce		 mov	 ecx, esi
  00056	e8 00 00 00 00	 call	 ?Default@CWnd@@IAEJXZ	; CWnd::Default
  0005b	5e		 pop	 esi
; File D:\git\src\IBK\IBK_DRFN\ProjSrc\SrcDrfn\Chart\Common_ST\STGfxOutBarCtrl.cpp

; 1874 : }

  0005c	8b e5		 mov	 esp, ebp
  0005e	5d		 pop	 ebp
  0005f	c2 0c 00	 ret	 12			; 0000000cH
?OnSetCursor@CSTGfxOutBarCtrl@@IAEHPAVCWnd@@II@Z ENDP	; CSTGfxOutBarCtrl::OnSetCursor
_TEXT	ENDS
; Function compile flags: /Ogtp
; File D:\git\src\IBK\IBK_DRFN\ProjSrc\SrcDrfn\Chart\Common_ST\STGfxOutBarCtrl.cpp
; File C:\Program Files (x86)\Microsoft Visual Studio\2019\Community\VC\Tools\MSVC\14.29.30133\atlmfc\include\afxwin2.inl
; File D:\git\src\IBK\IBK_DRFN\ProjSrc\SrcDrfn\Chart\Common_ST\STGfxOutBarCtrl.cpp
;	COMDAT ?OnRButtonDown@CSTGfxOutBarCtrl@@IAEXIVCPoint@@@Z
_TEXT	SEGMENT
_nFlags$ = 8						; size = 4
_point$ = 12						; size = 8
?OnRButtonDown@CSTGfxOutBarCtrl@@IAEXIVCPoint@@@Z PROC	; CSTGfxOutBarCtrl::OnRButtonDown, COMDAT
; _this$ = ecx
; File C:\Program Files (x86)\Microsoft Visual Studio\2019\Community\VC\Tools\MSVC\14.29.30133\atlmfc\include\afxwin2.inl

; 462  : 	{ Default(); }

  00000	e8 00 00 00 00	 call	 ?Default@CWnd@@IAEJXZ	; CWnd::Default
; File D:\git\src\IBK\IBK_DRFN\ProjSrc\SrcDrfn\Chart\Common_ST\STGfxOutBarCtrl.cpp

; 2154 : }

  00005	c2 0c 00	 ret	 12			; 0000000cH
?OnRButtonDown@CSTGfxOutBarCtrl@@IAEXIVCPoint@@@Z ENDP	; CSTGfxOutBarCtrl::OnRButtonDown
_TEXT	ENDS
; Function compile flags: /Ogtp
; File D:\git\src\IBK\IBK_DRFN\ProjSrc\SrcDrfn\Chart\Common_ST\STGfxOutBarCtrl.cpp
; File C:\Program Files (x86)\Microsoft Visual Studio\2019\Community\VC\Tools\MSVC\14.29.30133\atlmfc\include\afxwin2.inl
; File D:\git\src\IBK\IBK_DRFN\ProjSrc\SrcDrfn\Chart\Common_ST\STGfxOutBarCtrl.cpp
; File C:\Program Files (x86)\Microsoft Visual Studio\2019\Community\VC\Tools\MSVC\14.29.30133\atlmfc\include\atltypes.h
; File D:\git\src\IBK\IBK_DRFN\ProjSrc\SrcDrfn\Chart\Common_ST\STGfxOutBarCtrl.cpp
; File C:\Program Files (x86)\Microsoft Visual Studio\2019\Community\VC\Tools\MSVC\14.29.30133\atlmfc\include\afxcoll.inl
; File D:\git\src\IBK\IBK_DRFN\ProjSrc\SrcDrfn\Chart\Common_ST\STGfxOutBarCtrl.cpp
; File C:\Program Files (x86)\Microsoft Visual Studio\2019\Community\VC\Tools\MSVC\14.29.30133\atlmfc\include\atltypes.h
; File D:\git\src\IBK\IBK_DRFN\ProjSrc\SrcDrfn\Chart\Common_ST\STGfxOutBarCtrl.cpp
; File C:\Program Files (x86)\Microsoft Visual Studio\2019\Community\VC\Tools\MSVC\14.29.30133\atlmfc\include\atltypes.h
; File D:\git\src\IBK\IBK_DRFN\ProjSrc\SrcDrfn\Chart\Common_ST\STGfxOutBarCtrl.cpp
; File C:\Program Files (x86)\Microsoft Visual Studio\2019\Community\VC\Tools\MSVC\14.29.30133\atlmfc\include\afxcoll.inl
; File D:\git\src\IBK\IBK_DRFN\ProjSrc\SrcDrfn\Chart\Common_ST\STGfxOutBarCtrl.cpp
;	COMDAT ?OnSize@CSTGfxOutBarCtrl@@IAEXIHH@Z
_TEXT	SEGMENT
_max$1$ = -24						; size = 4
_rc$ = -20						; size = 16
__$ArrayPad$ = -4					; size = 4
_nType$ = 8						; size = 4
_cx$ = 12						; size = 4
_cy$ = 16						; size = 4
?OnSize@CSTGfxOutBarCtrl@@IAEXIHH@Z PROC		; CSTGfxOutBarCtrl::OnSize, COMDAT
; _this$ = ecx

; 1901 : {

  00000	55		 push	 ebp
  00001	8b ec		 mov	 ebp, esp
  00003	83 ec 18	 sub	 esp, 24			; 00000018H
  00006	a1 00 00 00 00	 mov	 eax, DWORD PTR ___security_cookie
  0000b	33 c5		 xor	 eax, ebp
  0000d	89 45 fc	 mov	 DWORD PTR __$ArrayPad$[ebp], eax
  00010	53		 push	 ebx
  00011	8b d9		 mov	 ebx, ecx
  00013	56		 push	 esi
  00014	57		 push	 edi

; 1902 : 	bUpArrow = bDownArrow = false;

  00015	66 c7 83 bc 00
	00 00 00 00	 mov	 WORD PTR [ebx+188], 0
; File C:\Program Files (x86)\Microsoft Visual Studio\2019\Community\VC\Tools\MSVC\14.29.30133\atlmfc\include\afxwin2.inl

; 330  : 	{ Default(); }

  0001e	e8 00 00 00 00	 call	 ?Default@CWnd@@IAEJXZ	; CWnd::Default
; File D:\git\src\IBK\IBK_DRFN\ProjSrc\SrcDrfn\Chart\Common_ST\STGfxOutBarCtrl.cpp

; 1906 : 	int t, max = GetFolderCount();

  00023	8b bb 08 01 00
	00		 mov	 edi, DWORD PTR [ebx+264]

; 1908 : 	GetInsideRect(rc);

  00029	8d 45 ec	 lea	 eax, DWORD PTR _rc$[ebp]
  0002c	0f 57 c0	 xorps	 xmm0, xmm0
  0002f	89 7d e8	 mov	 DWORD PTR _max$1$[ebp], edi
  00032	50		 push	 eax
  00033	8b cb		 mov	 ecx, ebx
; File C:\Program Files (x86)\Microsoft Visual Studio\2019\Community\VC\Tools\MSVC\14.29.30133\atlmfc\include\atltypes.h

; 528  : 	left = 0;

  00035	0f 11 45 ec	 movups	 XMMWORD PTR _rc$[ebp], xmm0
; File D:\git\src\IBK\IBK_DRFN\ProjSrc\SrcDrfn\Chart\Common_ST\STGfxOutBarCtrl.cpp

; 1908 : 	GetInsideRect(rc);

  00039	e8 00 00 00 00	 call	 ?GetInsideRect@CSTGfxOutBarCtrl@@QBEXAAVCRect@@@Z ; CSTGfxOutBarCtrl::GetInsideRect

; 1909 : 
; 1910 : 	for (t = 0; t < max; t++)

  0003e	33 f6		 xor	 esi, esi
  00040	85 ff		 test	 edi, edi
  00042	7e 47		 jle	 SHORT $LN3@OnSize
$LL4@OnSize:
; File C:\Program Files (x86)\Microsoft Visual Studio\2019\Community\VC\Tools\MSVC\14.29.30133\atlmfc\include\afxcoll.inl

; 203  : 		if( nIndex < 0 || nIndex >= m_nSize )

  00044	85 f6		 test	 esi, esi
  00046	78 56		 js	 SHORT $LN13@OnSize
  00048	8b 83 08 01 00
	00		 mov	 eax, DWORD PTR [ebx+264]
  0004e	3b f0		 cmp	 esi, eax
  00050	7d 4c		 jge	 SHORT $LN13@OnSize
; File D:\git\src\IBK\IBK_DRFN\ProjSrc\SrcDrfn\Chart\Common_ST\STGfxOutBarCtrl.cpp

; 2540 : 	if (GetFolderCount())

  00052	85 c0		 test	 eax, eax
  00054	74 30		 je	 SHORT $LN2@OnSize

; 2541 : 	{
; 2542 : 		if (iFolder < 0) iFolder = iSelFolder;
; 2543 : 
; 2544 : 		CBarFolder * pbf = (CBarFolder *) arFolder.GetAt(iFolder);
; 2545 : 		return pbf->pChild;

  00056	8b 83 04 01 00
	00		 mov	 eax, DWORD PTR [ebx+260]
  0005c	8b 04 b0	 mov	 eax, DWORD PTR [eax+esi*4]
  0005f	8b 48 28	 mov	 ecx, DWORD PTR [eax+40]

; 1914 : 		if (pc) pc->SetWindowPos(0, rc.left, rc.top, rc.Width(), rc.Height(), SWP_NOZORDER);

  00062	85 c9		 test	 ecx, ecx
  00064	74 20		 je	 SHORT $LN2@OnSize
; File C:\Program Files (x86)\Microsoft Visual Studio\2019\Community\VC\Tools\MSVC\14.29.30133\atlmfc\include\atltypes.h

; 581  : 	return bottom - top;

  00066	8b 45 f8	 mov	 eax, DWORD PTR _rc$[ebp+12]
  00069	8b 7d f0	 mov	 edi, DWORD PTR _rc$[ebp+4]
  0006c	2b c7		 sub	 eax, edi

; 576  : 	return right - left;

  0006e	8b 55 ec	 mov	 edx, DWORD PTR _rc$[ebp]
; File D:\git\src\IBK\IBK_DRFN\ProjSrc\SrcDrfn\Chart\Common_ST\STGfxOutBarCtrl.cpp

; 1914 : 		if (pc) pc->SetWindowPos(0, rc.left, rc.top, rc.Width(), rc.Height(), SWP_NOZORDER);

  00071	6a 04		 push	 4
  00073	50		 push	 eax
; File C:\Program Files (x86)\Microsoft Visual Studio\2019\Community\VC\Tools\MSVC\14.29.30133\atlmfc\include\atltypes.h

; 576  : 	return right - left;

  00074	8b 45 f4	 mov	 eax, DWORD PTR _rc$[ebp+8]
  00077	2b c2		 sub	 eax, edx
; File D:\git\src\IBK\IBK_DRFN\ProjSrc\SrcDrfn\Chart\Common_ST\STGfxOutBarCtrl.cpp

; 1914 : 		if (pc) pc->SetWindowPos(0, rc.left, rc.top, rc.Width(), rc.Height(), SWP_NOZORDER);

  00079	50		 push	 eax
  0007a	57		 push	 edi
  0007b	52		 push	 edx
  0007c	6a 00		 push	 0
  0007e	e8 00 00 00 00	 call	 ?SetWindowPos@CWnd@@QAEHPBV1@HHHHI@Z ; CWnd::SetWindowPos
  00083	8b 7d e8	 mov	 edi, DWORD PTR _max$1$[ebp]
$LN2@OnSize:

; 1909 : 
; 1910 : 	for (t = 0; t < max; t++)

  00086	46		 inc	 esi
  00087	3b f7		 cmp	 esi, edi
  00089	7c b9		 jl	 SHORT $LL4@OnSize
$LN3@OnSize:

; 1916 : }

  0008b	8b 4d fc	 mov	 ecx, DWORD PTR __$ArrayPad$[ebp]
  0008e	5f		 pop	 edi
  0008f	5e		 pop	 esi
  00090	33 cd		 xor	 ecx, ebp
  00092	5b		 pop	 ebx
  00093	e8 00 00 00 00	 call	 @__security_check_cookie@4
  00098	8b e5		 mov	 esp, ebp
  0009a	5d		 pop	 ebp
  0009b	c2 0c 00	 ret	 12			; 0000000cH
$LN13@OnSize:
; File C:\Program Files (x86)\Microsoft Visual Studio\2019\Community\VC\Tools\MSVC\14.29.30133\atlmfc\include\afxcoll.inl

; 204  : 			AfxThrowInvalidArgException();

  0009e	e8 00 00 00 00	 call	 ?AfxThrowInvalidArgException@@YGXXZ ; AfxThrowInvalidArgException
$LN36@OnSize:
  000a3	cc		 int	 3
?OnSize@CSTGfxOutBarCtrl@@IAEXIHH@Z ENDP		; CSTGfxOutBarCtrl::OnSize
_TEXT	ENDS
; Function compile flags: /Ogtp
; File D:\git\src\IBK\IBK_DRFN\ProjSrc\SrcDrfn\Chart\Common_ST\STGfxOutBarCtrl.cpp
; File C:\Program Files (x86)\Microsoft Visual Studio\2019\Community\VC\Tools\MSVC\14.29.30133\atlmfc\include\afxwin2.inl
; File D:\git\src\IBK\IBK_DRFN\ProjSrc\SrcDrfn\Chart\Common_ST\STGfxOutBarCtrl.cpp
; File C:\Program Files (x86)\Microsoft Visual Studio\2019\Community\VC\Tools\MSVC\14.29.30133\atlmfc\include\atltypes.h
; File D:\git\src\IBK\IBK_DRFN\ProjSrc\SrcDrfn\Chart\Common_ST\STGfxOutBarCtrl.cpp
; File C:\Program Files (x86)\Microsoft Visual Studio\2019\Community\VC\Tools\MSVC\14.29.30133\atlmfc\include\atltypes.h
; File D:\git\src\IBK\IBK_DRFN\ProjSrc\SrcDrfn\Chart\Common_ST\STGfxOutBarCtrl.cpp
; File C:\Program Files (x86)\Microsoft Visual Studio\2019\Community\VC\Tools\MSVC\14.29.30133\atlmfc\include\afxwin2.inl
; File D:\git\src\IBK\IBK_DRFN\ProjSrc\SrcDrfn\Chart\Common_ST\STGfxOutBarCtrl.cpp
; File C:\Program Files (x86)\Microsoft Visual Studio\2019\Community\VC\Tools\MSVC\14.29.30133\atlmfc\include\afxwin2.inl
; File D:\git\src\IBK\IBK_DRFN\ProjSrc\SrcDrfn\Chart\Common_ST\STGfxOutBarCtrl.cpp
; File C:\Program Files (x86)\Microsoft Visual Studio\2019\Community\VC\Tools\MSVC\14.29.30133\atlmfc\include\atltypes.h
; File D:\git\src\IBK\IBK_DRFN\ProjSrc\SrcDrfn\Chart\Common_ST\STGfxOutBarCtrl.cpp
; File C:\Program Files (x86)\Microsoft Visual Studio\2019\Community\VC\Tools\MSVC\14.29.30133\atlmfc\include\atltypes.h
; File D:\git\src\IBK\IBK_DRFN\ProjSrc\SrcDrfn\Chart\Common_ST\STGfxOutBarCtrl.cpp
; File C:\Program Files (x86)\Microsoft Visual Studio\2019\Community\VC\Tools\MSVC\14.29.30133\atlmfc\include\afxwin2.inl
; File D:\git\src\IBK\IBK_DRFN\ProjSrc\SrcDrfn\Chart\Common_ST\STGfxOutBarCtrl.cpp
; File C:\Program Files (x86)\Microsoft Visual Studio\2019\Community\VC\Tools\MSVC\14.29.30133\atlmfc\include\afxwin2.inl
; File D:\git\src\IBK\IBK_DRFN\ProjSrc\SrcDrfn\Chart\Common_ST\STGfxOutBarCtrl.cpp
; File C:\Program Files (x86)\Microsoft Visual Studio\2019\Community\VC\Tools\MSVC\14.29.30133\atlmfc\include\atltypes.h
; File D:\git\src\IBK\IBK_DRFN\ProjSrc\SrcDrfn\Chart\Common_ST\STGfxOutBarCtrl.cpp
; File C:\Program Files (x86)\Microsoft Visual Studio\2019\Community\VC\Tools\MSVC\14.29.30133\atlmfc\include\afxwin2.inl
; File D:\git\src\IBK\IBK_DRFN\ProjSrc\SrcDrfn\Chart\Common_ST\STGfxOutBarCtrl.cpp
; File C:\Program Files (x86)\Microsoft Visual Studio\2019\Community\VC\Tools\MSVC\14.29.30133\atlmfc\include\afxwin2.inl
; File D:\git\src\IBK\IBK_DRFN\ProjSrc\SrcDrfn\Chart\Common_ST\STGfxOutBarCtrl.cpp
; File C:\Program Files (x86)\Microsoft Visual Studio\2019\Community\VC\Tools\MSVC\14.29.30133\atlmfc\include\afxwin2.inl
; File D:\git\src\IBK\IBK_DRFN\ProjSrc\SrcDrfn\Chart\Common_ST\STGfxOutBarCtrl.cpp
; File C:\Program Files (x86)\Microsoft Visual Studio\2019\Community\VC\Tools\MSVC\14.29.30133\atlmfc\include\atltypes.h
; File D:\git\src\IBK\IBK_DRFN\ProjSrc\SrcDrfn\Chart\Common_ST\STGfxOutBarCtrl.cpp
; File C:\Program Files (x86)\Microsoft Visual Studio\2019\Community\VC\Tools\MSVC\14.29.30133\atlmfc\include\atltypes.h
; File D:\git\src\IBK\IBK_DRFN\ProjSrc\SrcDrfn\Chart\Common_ST\STGfxOutBarCtrl.cpp
; File C:\Program Files (x86)\Microsoft Visual Studio\2019\Community\VC\Tools\MSVC\14.29.30133\atlmfc\include\atltypes.h
; File D:\git\src\IBK\IBK_DRFN\ProjSrc\SrcDrfn\Chart\Common_ST\STGfxOutBarCtrl.cpp
; File C:\Program Files (x86)\Microsoft Visual Studio\2019\Community\VC\Tools\MSVC\14.29.30133\atlmfc\include\atltypes.h
; File C:\Program Files (x86)\Microsoft Visual Studio\2019\Community\VC\Tools\MSVC\14.29.30133\atlmfc\include\afxwin2.inl
; File D:\git\src\IBK\IBK_DRFN\ProjSrc\SrcDrfn\Chart\Common_ST\STGfxOutBarCtrl.cpp
; File C:\Program Files (x86)\Microsoft Visual Studio\2019\Community\VC\Tools\MSVC\14.29.30133\atlmfc\include\atltypes.h
; File D:\git\src\IBK\IBK_DRFN\ProjSrc\SrcDrfn\Chart\Common_ST\STGfxOutBarCtrl.cpp
; File C:\Program Files (x86)\Microsoft Visual Studio\2019\Community\VC\Tools\MSVC\14.29.30133\atlmfc\include\atltypes.h
; File C:\Program Files (x86)\Microsoft Visual Studio\2019\Community\VC\Tools\MSVC\14.29.30133\atlmfc\include\afxwin2.inl
; File D:\git\src\IBK\IBK_DRFN\ProjSrc\SrcDrfn\Chart\Common_ST\STGfxOutBarCtrl.cpp
; File C:\Program Files (x86)\Microsoft Visual Studio\2019\Community\VC\Tools\MSVC\14.29.30133\atlmfc\include\afxwin2.inl
; File D:\git\src\IBK\IBK_DRFN\ProjSrc\SrcDrfn\Chart\Common_ST\STGfxOutBarCtrl.cpp
; File C:\Program Files (x86)\Microsoft Visual Studio\2019\Community\VC\Tools\MSVC\14.29.30133\atlmfc\include\afxwin2.inl
; File D:\git\src\IBK\IBK_DRFN\ProjSrc\SrcDrfn\Chart\Common_ST\STGfxOutBarCtrl.cpp
; File C:\Program Files (x86)\Microsoft Visual Studio\2019\Community\VC\Tools\MSVC\14.29.30133\atlmfc\include\afxwin2.inl
; File D:\git\src\IBK\IBK_DRFN\ProjSrc\SrcDrfn\Chart\Common_ST\STGfxOutBarCtrl.cpp
; File C:\Program Files (x86)\Microsoft Visual Studio\2019\Community\VC\Tools\MSVC\14.29.30133\atlmfc\include\afxwin1.inl
; File D:\git\src\IBK\IBK_DRFN\ProjSrc\SrcDrfn\Chart\Common_ST\STGfxOutBarCtrl.cpp
; File C:\Program Files (x86)\Microsoft Visual Studio\2019\Community\VC\Tools\MSVC\14.29.30133\atlmfc\include\afxwin1.inl
; File C:\Program Files (x86)\Microsoft Visual Studio\2019\Community\VC\Tools\MSVC\14.29.30133\atlmfc\include\afxwin2.inl
; File D:\git\src\IBK\IBK_DRFN\ProjSrc\SrcDrfn\Chart\Common_ST\STGfxOutBarCtrl.cpp
; File C:\Program Files (x86)\Microsoft Visual Studio\2019\Community\VC\Tools\MSVC\14.29.30133\atlmfc\include\afxwin2.inl
; File D:\git\src\IBK\IBK_DRFN\ProjSrc\SrcDrfn\Chart\Common_ST\STGfxOutBarCtrl.cpp
; File C:\Program Files (x86)\Microsoft Visual Studio\2019\Community\VC\Tools\MSVC\14.29.30133\atlmfc\include\afxwin1.inl
; File C:\Program Files (x86)\Microsoft Visual Studio\2019\Community\VC\Tools\MSVC\14.29.30133\atlmfc\include\atltypes.h
; File D:\git\src\IBK\IBK_DRFN\ProjSrc\SrcDrfn\Chart\Common_ST\STGfxOutBarCtrl.cpp
; File C:\Program Files (x86)\Microsoft Visual Studio\2019\Community\VC\Tools\MSVC\14.29.30133\atlmfc\include\atltypes.h
; File D:\git\src\IBK\IBK_DRFN\ProjSrc\SrcDrfn\Chart\Common_ST\STGfxOutBarCtrl.cpp
; File C:\Program Files (x86)\Microsoft Visual Studio\2019\Community\VC\Tools\MSVC\14.29.30133\atlmfc\include\atltypes.h
; File D:\git\src\IBK\IBK_DRFN\ProjSrc\SrcDrfn\Chart\Common_ST\STGfxOutBarCtrl.cpp
; File C:\Program Files (x86)\Microsoft Visual Studio\2019\Community\VC\Tools\MSVC\14.29.30133\atlmfc\include\atltypes.h
; File C:\Program Files (x86)\Microsoft Visual Studio\2019\Community\VC\Tools\MSVC\14.29.30133\atlmfc\include\afxwin2.inl
; File C:\Program Files (x86)\Microsoft Visual Studio\2019\Community\VC\Tools\MSVC\14.29.30133\atlmfc\include\atltypes.h
; File C:\Program Files (x86)\Microsoft Visual Studio\2019\Community\VC\Tools\MSVC\14.29.30133\atlmfc\include\afxwin2.inl
; File C:\Program Files (x86)\Microsoft Visual Studio\2019\Community\VC\Tools\MSVC\14.29.30133\atlmfc\include\atltypes.h
; File D:\git\src\IBK\IBK_DRFN\ProjSrc\SrcDrfn\Chart\Common_ST\STGfxOutBarCtrl.cpp
; File C:\Program Files (x86)\Microsoft Visual Studio\2019\Community\VC\Tools\MSVC\14.29.30133\atlmfc\include\atltypes.h
; File D:\git\src\IBK\IBK_DRFN\ProjSrc\SrcDrfn\Chart\Common_ST\STGfxOutBarCtrl.cpp
; File C:\Program Files (x86)\Microsoft Visual Studio\2019\Community\VC\Tools\MSVC\14.29.30133\atlmfc\include\afxcoll.inl
; File D:\git\src\IBK\IBK_DRFN\ProjSrc\SrcDrfn\Chart\Common_ST\STGfxOutBarCtrl.cpp
; File C:\Program Files (x86)\Microsoft Visual Studio\2019\Community\VC\Tools\MSVC\14.29.30133\atlmfc\include\atltypes.h
; File D:\git\src\IBK\IBK_DRFN\ProjSrc\SrcDrfn\Chart\Common_ST\STGfxOutBarCtrl.cpp
; File C:\Program Files (x86)\Microsoft Visual Studio\2019\Community\VC\Tools\MSVC\14.29.30133\atlmfc\include\afxwin2.inl
; File D:\git\src\IBK\IBK_DRFN\ProjSrc\SrcDrfn\Chart\Common_ST\STGfxOutBarCtrl.cpp
; File C:\Program Files (x86)\Microsoft Visual Studio\2019\Community\VC\Tools\MSVC\14.29.30133\atlmfc\include\afxwin2.inl
; File D:\git\src\IBK\IBK_DRFN\ProjSrc\SrcDrfn\Chart\Common_ST\STGfxOutBarCtrl.cpp
; File C:\Program Files (x86)\Microsoft Visual Studio\2019\Community\VC\Tools\MSVC\14.29.30133\atlmfc\include\afxwin2.inl
; File D:\git\src\IBK\IBK_DRFN\ProjSrc\SrcDrfn\Chart\Common_ST\STGfxOutBarCtrl.cpp
; File C:\Program Files (x86)\Microsoft Visual Studio\2019\Community\VC\Tools\MSVC\14.29.30133\atlmfc\include\afxwin2.inl
; File D:\git\src\IBK\IBK_DRFN\ProjSrc\SrcDrfn\Chart\Common_ST\STGfxOutBarCtrl.cpp
; File C:\Program Files (x86)\Microsoft Visual Studio\2019\Community\VC\Tools\MSVC\14.29.30133\atlmfc\include\afxwin2.inl
; File D:\git\src\IBK\IBK_DRFN\ProjSrc\SrcDrfn\Chart\Common_ST\STGfxOutBarCtrl.cpp
; File C:\Program Files (x86)\Microsoft Visual Studio\2019\Community\VC\Tools\MSVC\14.29.30133\atlmfc\include\atltypes.h
; File C:\Program Files (x86)\Microsoft Visual Studio\2019\Community\VC\Tools\MSVC\14.29.30133\atlmfc\include\afxwin2.inl
; File C:\Program Files (x86)\Microsoft Visual Studio\2019\Community\VC\Tools\MSVC\14.29.30133\atlmfc\include\atltypes.h
; File D:\git\src\IBK\IBK_DRFN\ProjSrc\SrcDrfn\Chart\Common_ST\STGfxOutBarCtrl.cpp
; File C:\Program Files (x86)\Microsoft Visual Studio\2019\Community\VC\Tools\MSVC\14.29.30133\atlmfc\include\afxcoll.inl
; File D:\git\src\IBK\IBK_DRFN\ProjSrc\SrcDrfn\Chart\Common_ST\STGfxOutBarCtrl.cpp
; File C:\Program Files (x86)\Microsoft Visual Studio\2019\Community\VC\Tools\MSVC\14.29.30133\atlmfc\include\atltypes.h
; File D:\git\src\IBK\IBK_DRFN\ProjSrc\SrcDrfn\Chart\Common_ST\STGfxOutBarCtrl.cpp
; File C:\Program Files (x86)\Microsoft Visual Studio\2019\Community\VC\Tools\MSVC\14.29.30133\atlmfc\include\afxwin2.inl
; File D:\git\src\IBK\IBK_DRFN\ProjSrc\SrcDrfn\Chart\Common_ST\STGfxOutBarCtrl.cpp
; File C:\Program Files (x86)\Microsoft Visual Studio\2019\Community\VC\Tools\MSVC\14.29.30133\atlmfc\include\afxwin2.inl
; File D:\git\src\IBK\IBK_DRFN\ProjSrc\SrcDrfn\Chart\Common_ST\STGfxOutBarCtrl.cpp
; File C:\Program Files (x86)\Microsoft Visual Studio\2019\Community\VC\Tools\MSVC\14.29.30133\atlmfc\include\afxwin2.inl
; File D:\git\src\IBK\IBK_DRFN\ProjSrc\SrcDrfn\Chart\Common_ST\STGfxOutBarCtrl.cpp
; File C:\Program Files (x86)\Microsoft Visual Studio\2019\Community\VC\Tools\MSVC\14.29.30133\atlmfc\include\afxwin1.inl
; File D:\git\src\IBK\IBK_DRFN\ProjSrc\SrcDrfn\Chart\Common_ST\STGfxOutBarCtrl.cpp
; File C:\Program Files (x86)\Microsoft Visual Studio\2019\Community\VC\Tools\MSVC\14.29.30133\atlmfc\include\afxwin1.inl
; File C:\Program Files (x86)\Microsoft Visual Studio\2019\Community\VC\Tools\MSVC\14.29.30133\atlmfc\include\afxwin2.inl
; File D:\git\src\IBK\IBK_DRFN\ProjSrc\SrcDrfn\Chart\Common_ST\STGfxOutBarCtrl.cpp
; File C:\Program Files (x86)\Microsoft Visual Studio\2019\Community\VC\Tools\MSVC\14.29.30133\atlmfc\include\afxwin2.inl
; File D:\git\src\IBK\IBK_DRFN\ProjSrc\SrcDrfn\Chart\Common_ST\STGfxOutBarCtrl.cpp
; File C:\Program Files (x86)\Microsoft Visual Studio\2019\Community\VC\Tools\MSVC\14.29.30133\atlmfc\include\afxwin1.inl
; File C:\Program Files (x86)\Microsoft Visual Studio\2019\Community\VC\Tools\MSVC\14.29.30133\atlmfc\include\atltypes.h
; File D:\git\src\IBK\IBK_DRFN\ProjSrc\SrcDrfn\Chart\Common_ST\STGfxOutBarCtrl.cpp
; File C:\Program Files (x86)\Microsoft Visual Studio\2019\Community\VC\Tools\MSVC\14.29.30133\atlmfc\include\atltypes.h
; File D:\git\src\IBK\IBK_DRFN\ProjSrc\SrcDrfn\Chart\Common_ST\STGfxOutBarCtrl.cpp
; File C:\Program Files (x86)\Microsoft Visual Studio\2019\Community\VC\Tools\MSVC\14.29.30133\atlmfc\include\atltypes.h
; File D:\git\src\IBK\IBK_DRFN\ProjSrc\SrcDrfn\Chart\Common_ST\STGfxOutBarCtrl.cpp
; File C:\Program Files (x86)\Microsoft Visual Studio\2019\Community\VC\Tools\MSVC\14.29.30133\atlmfc\include\afxwin2.inl
; File D:\git\src\IBK\IBK_DRFN\ProjSrc\SrcDrfn\Chart\Common_ST\STGfxOutBarCtrl.cpp
; File C:\Program Files (x86)\Microsoft Visual Studio\2019\Community\VC\Tools\MSVC\14.29.30133\atlmfc\include\afxwin2.inl
; File D:\git\src\IBK\IBK_DRFN\ProjSrc\SrcDrfn\Chart\Common_ST\STGfxOutBarCtrl.cpp
; File C:\Program Files (x86)\Microsoft Visual Studio\2019\Community\VC\Tools\MSVC\14.29.30133\atlmfc\include\afxwin2.inl
; File D:\git\src\IBK\IBK_DRFN\ProjSrc\SrcDrfn\Chart\Common_ST\STGfxOutBarCtrl.cpp
; File C:\Program Files (x86)\Microsoft Visual Studio\2019\Community\VC\Tools\MSVC\14.29.30133\atlmfc\include\atltypes.h
; File C:\Program Files (x86)\Microsoft Visual Studio\2019\Community\VC\Tools\MSVC\14.29.30133\atlmfc\include\afxwin2.inl
; File C:\Program Files (x86)\Microsoft Visual Studio\2019\Community\VC\Tools\MSVC\14.29.30133\atlmfc\include\atltypes.h
; File D:\git\src\IBK\IBK_DRFN\ProjSrc\SrcDrfn\Chart\Common_ST\STGfxOutBarCtrl.cpp
; File C:\Program Files (x86)\Microsoft Visual Studio\2019\Community\VC\Tools\MSVC\14.29.30133\atlmfc\include\atltypes.h
; File C:\Program Files (x86)\Microsoft Visual Studio\2019\Community\VC\Tools\MSVC\14.29.30133\atlmfc\include\afxwin2.inl
; File C:\Program Files (x86)\Microsoft Visual Studio\2019\Community\VC\Tools\MSVC\14.29.30133\atlmfc\include\atltypes.h
; File C:\Program Files (x86)\Microsoft Visual Studio\2019\Community\VC\Tools\MSVC\14.29.30133\atlmfc\include\afxwin2.inl
; File C:\Program Files (x86)\Microsoft Visual Studio\2019\Community\VC\Tools\MSVC\14.29.30133\atlmfc\include\atltypes.h
; File D:\git\src\IBK\IBK_DRFN\ProjSrc\SrcDrfn\Chart\Common_ST\STGfxOutBarCtrl.cpp
; File C:\Program Files (x86)\Microsoft Visual Studio\2019\Community\VC\Tools\MSVC\14.29.30133\atlmfc\include\afxwin2.inl
; File D:\git\src\IBK\IBK_DRFN\ProjSrc\SrcDrfn\Chart\Common_ST\STGfxOutBarCtrl.cpp
; File C:\Program Files (x86)\Microsoft Visual Studio\2019\Community\VC\Tools\MSVC\14.29.30133\atlmfc\include\afxwin2.inl
; File D:\git\src\IBK\IBK_DRFN\ProjSrc\SrcDrfn\Chart\Common_ST\STGfxOutBarCtrl.cpp
; File C:\Program Files (x86)\Microsoft Visual Studio\2019\Community\VC\Tools\MSVC\14.29.30133\atlmfc\include\afxwin2.inl
; File D:\git\src\IBK\IBK_DRFN\ProjSrc\SrcDrfn\Chart\Common_ST\STGfxOutBarCtrl.cpp
; File C:\Program Files (x86)\Microsoft Visual Studio\2019\Community\VC\Tools\MSVC\14.29.30133\atlmfc\include\afxwin2.inl
; File D:\git\src\IBK\IBK_DRFN\ProjSrc\SrcDrfn\Chart\Common_ST\STGfxOutBarCtrl.cpp
;	COMDAT ?OnLButtonDown@CSTGfxOutBarCtrl@@IAEXIVCPoint@@@Z
_TEXT	SEGMENT
_dc$2 = -184						; size = 20
_dc$3 = -184						; size = 20
_dc$4 = -184						; size = 20
_msg$5 = -164						; size = 28
_dc$6 = -156						; size = 20
_msg$7 = -136						; size = 28
_msg$8 = -136						; size = 28
_msg$9 = -136						; size = 28
_pt$10 = -108						; size = 8
_hCur$1$ = -104						; size = 4
_idx$11 = -104						; size = 4
_idx$12 = -104						; size = 4
_index$ = -104						; size = 4
_bHigh$1$ = -97						; size = 1
_inRc$ = -96						; size = 16
_crc$13 = -80						; size = 16
_itrc$14 = -64						; size = 16
_itrc$15 = -64						; size = 16
_pt$16 = -56						; size = 8
_pt$17 = -56						; size = 8
_pt$18 = -56						; size = 8
_crc$19 = -48						; size = 16
_crc$20 = -48						; size = 16
_rc$21 = -48						; size = 16
_rc$22 = -48						; size = 16
_crc$23 = -32						; size = 16
_crc$24 = -32						; size = 16
_crc$25 = -32						; size = 16
_rc$26 = -32						; size = 16
_rc$27 = -32						; size = 16
__$ArrayPad$ = -16					; size = 4
__$EHRec$ = -12						; size = 12
_nFlags$ = 8						; size = 4
_point$ = 12						; size = 8
?OnLButtonDown@CSTGfxOutBarCtrl@@IAEXIVCPoint@@@Z PROC	; CSTGfxOutBarCtrl::OnLButtonDown, COMDAT
; _this$ = ecx

; 975  : {

  00000	55		 push	 ebp
  00001	8b ec		 mov	 ebp, esp
  00003	6a ff		 push	 -1
  00005	68 00 00 00 00	 push	 __ehhandler$?OnLButtonDown@CSTGfxOutBarCtrl@@IAEXIVCPoint@@@Z
  0000a	64 a1 00 00 00
	00		 mov	 eax, DWORD PTR fs:0
  00010	50		 push	 eax
  00011	81 ec ac 00 00
	00		 sub	 esp, 172		; 000000acH
  00017	a1 00 00 00 00	 mov	 eax, DWORD PTR ___security_cookie
  0001c	33 c5		 xor	 eax, ebp
  0001e	89 45 f0	 mov	 DWORD PTR __$ArrayPad$[ebp], eax
  00021	56		 push	 esi
  00022	57		 push	 edi
  00023	50		 push	 eax
  00024	8d 45 f4	 lea	 eax, DWORD PTR __$EHRec$[ebp]
  00027	64 a3 00 00 00
	00		 mov	 DWORD PTR fs:0, eax
  0002d	8b f1		 mov	 esi, ecx
; File C:\Program Files (x86)\Microsoft Visual Studio\2019\Community\VC\Tools\MSVC\14.29.30133\atlmfc\include\afxwin2.inl

; 165  : 	{ return CWnd::FromHandle(::GetFocus()); }

  0002f	ff 15 00 00 00
	00		 call	 DWORD PTR __imp__GetFocus@0
  00035	50		 push	 eax
  00036	e8 00 00 00 00	 call	 ?FromHandle@CWnd@@SGPAV1@PAUHWND__@@@Z ; CWnd::FromHandle
; File D:\git\src\IBK\IBK_DRFN\ProjSrc\SrcDrfn\Chart\Common_ST\STGfxOutBarCtrl.cpp

; 976  : 	if (GetFocus() != this) SetFocus();

  0003b	3b c6		 cmp	 eax, esi
  0003d	74 07		 je	 SHORT $LN22@OnLButtonD
  0003f	8b ce		 mov	 ecx, esi
  00041	e8 00 00 00 00	 call	 ?SetFocus@CWnd@@QAEPAV1@XZ ; CWnd::SetFocus
$LN22@OnLButtonD:

; 977  : 
; 978  : 	int index, ht = HitTestEx(point, index);

  00046	8d 45 98	 lea	 eax, DWORD PTR _index$[ebp]
  00049	8b ce		 mov	 ecx, esi
  0004b	50		 push	 eax
  0004c	8d 45 0c	 lea	 eax, DWORD PTR _point$[ebp]
  0004f	50		 push	 eax
  00050	e8 00 00 00 00	 call	 ?HitTestEx@CSTGfxOutBarCtrl@@QAEHABVCPoint@@AAH@Z ; CSTGfxOutBarCtrl::HitTestEx
  00055	8b f8		 mov	 edi, eax

; 979  : 	iLastDragItemDrawType = -1;

  00057	c7 86 2c 01 00
	00 ff ff ff ff	 mov	 DWORD PTR [esi+300], -1

; 982  : 	GetInsideRect(inRc);

  00061	8d 45 a0	 lea	 eax, DWORD PTR _inRc$[ebp]
  00064	0f 57 c0	 xorps	 xmm0, xmm0
  00067	50		 push	 eax
  00068	8b ce		 mov	 ecx, esi
; File C:\Program Files (x86)\Microsoft Visual Studio\2019\Community\VC\Tools\MSVC\14.29.30133\atlmfc\include\atltypes.h

; 528  : 	left = 0;

  0006a	0f 11 45 a0	 movups	 XMMWORD PTR _inRc$[ebp], xmm0
; File D:\git\src\IBK\IBK_DRFN\ProjSrc\SrcDrfn\Chart\Common_ST\STGfxOutBarCtrl.cpp

; 982  : 	GetInsideRect(inRc);

  0006e	e8 00 00 00 00	 call	 ?GetInsideRect@CSTGfxOutBarCtrl@@QBEXAAVCRect@@@Z ; CSTGfxOutBarCtrl::GetInsideRect

; 983  : 
; 984  : 	if (ht == htFolder)

  00073	85 ff		 test	 edi, edi
  00075	0f 85 2d 01 00
	00		 jne	 $LN23@OnLButtonD

; 988  : 		GetFolderRect(index, rc);

  0007b	8d 45 d0	 lea	 eax, DWORD PTR _rc$22[ebp]
  0007e	0f 57 c0	 xorps	 xmm0, xmm0
  00081	50		 push	 eax
  00082	ff 75 98	 push	 DWORD PTR _index$[ebp]
  00085	8b ce		 mov	 ecx, esi
; File C:\Program Files (x86)\Microsoft Visual Studio\2019\Community\VC\Tools\MSVC\14.29.30133\atlmfc\include\atltypes.h

; 528  : 	left = 0;

  00087	0f 11 45 d0	 movups	 XMMWORD PTR _rc$22[ebp], xmm0
; File D:\git\src\IBK\IBK_DRFN\ProjSrc\SrcDrfn\Chart\Common_ST\STGfxOutBarCtrl.cpp

; 988  : 		GetFolderRect(index, rc);

  0008b	e8 00 00 00 00	 call	 ?GetFolderRect@CSTGfxOutBarCtrl@@QBE_NHAAVCRect@@@Z ; CSTGfxOutBarCtrl::GetFolderRect

; 989  : 
; 990  : 		if (::GetCapture() == NULL)

  00090	8b 3d 00 00 00
	00		 mov	 edi, DWORD PTR __imp__GetCapture@0
  00096	ff d7		 call	 edi
  00098	85 c0		 test	 eax, eax
  0009a	0f 85 b2 00 00
	00		 jne	 $LN369@OnLButtonD
; File C:\Program Files (x86)\Microsoft Visual Studio\2019\Community\VC\Tools\MSVC\14.29.30133\atlmfc\include\afxwin2.inl

; 163  : 	{ ASSERT(::IsWindow(m_hWnd)); return CWnd::FromHandle(::SetCapture(m_hWnd)); }

  000a0	ff 76 20	 push	 DWORD PTR [esi+32]
  000a3	ff 15 00 00 00
	00		 call	 DWORD PTR __imp__SetCapture@4
  000a9	50		 push	 eax
  000aa	e8 00 00 00 00	 call	 ?FromHandle@CWnd@@SGPAV1@PAUHWND__@@@Z ; CWnd::FromHandle
; File D:\git\src\IBK\IBK_DRFN\ProjSrc\SrcDrfn\Chart\Common_ST\STGfxOutBarCtrl.cpp

; 994  : 			CClientDC dc(this);

  000af	56		 push	 esi
  000b0	8d 8d 48 ff ff
	ff		 lea	 ecx, DWORD PTR _dc$4[ebp]
  000b6	e8 00 00 00 00	 call	 ??0CClientDC@@QAE@PAVCWnd@@@Z ; CClientDC::CClientDC
  000bb	c7 45 fc 00 00
	00 00		 mov	 DWORD PTR __$EHRec$[ebp+8], 0

; 995  : //@	DrawFolder(&dc, index, rc, true);
; 996  : 			AfxLockTempMaps();

  000c2	e8 00 00 00 00	 call	 ?AfxLockTempMaps@@YGXXZ	; AfxLockTempMaps

; 997  : 			for (;;)
; 998  : 			{
; 999  : 				MSG msg;
; 1000 : 				VERIFY(::GetMessage(&msg, NULL, 0, 0));

  000c7	6a 00		 push	 0
  000c9	6a 00		 push	 0
  000cb	6a 00		 push	 0
  000cd	8d 85 78 ff ff
	ff		 lea	 eax, DWORD PTR _msg$9[ebp]
  000d3	50		 push	 eax
  000d4	ff 15 00 00 00
	00		 call	 DWORD PTR __imp__GetMessageA@16
; File C:\Program Files (x86)\Microsoft Visual Studio\2019\Community\VC\Tools\MSVC\14.29.30133\atlmfc\include\afxwin2.inl

; 161  : 	{ return CWnd::FromHandle(::GetCapture()); }

  000da	ff d7		 call	 edi
  000dc	50		 push	 eax
  000dd	e8 00 00 00 00	 call	 ?FromHandle@CWnd@@SGPAV1@PAUHWND__@@@Z ; CWnd::FromHandle
; File D:\git\src\IBK\IBK_DRFN\ProjSrc\SrcDrfn\Chart\Common_ST\STGfxOutBarCtrl.cpp

; 1002 : 				if (CWnd::GetCapture() != this) break;

  000e2	3b c6		 cmp	 eax, esi
  000e4	75 4d		 jne	 SHORT $ExitLoop2$385
  000e6	66 66 0f 1f 84
	00 00 00 00 00	 npad	 10
$LL2@OnLButtonD:

; 1003 : 
; 1004 : 				switch (msg.message)

  000f0	8b 85 7c ff ff
	ff		 mov	 eax, DWORD PTR _msg$9[ebp+4]
  000f6	3d 00 01 00 00	 cmp	 eax, 256		; 00000100H
  000fb	74 73		 je	 SHORT $LN30@OnLButtonD
  000fd	3d 02 02 00 00	 cmp	 eax, 514		; 00000202H
  00102	75 72		 jne	 SHORT $LN31@OnLButtonD
; File C:\Program Files (x86)\Microsoft Visual Studio\2019\Community\VC\Tools\MSVC\14.29.30133\atlmfc\include\atltypes.h

; 424  : 	x = (short)LOWORD(dwPoint);

  00104	8b 4d 84	 mov	 ecx, DWORD PTR _msg$9[ebp+12]
  00107	0f bf c1	 movsx	 eax, cx
  0010a	89 45 c8	 mov	 DWORD PTR _pt$18[ebp], eax

; 425  : 	y = (short)HIWORD(dwPoint);

  0010d	c1 e9 10	 shr	 ecx, 16			; 00000010H
  00110	0f bf c1	 movsx	 eax, cx
; File D:\git\src\IBK\IBK_DRFN\ProjSrc\SrcDrfn\Chart\Common_ST\STGfxOutBarCtrl.cpp

; 1040 : 						int idx, ht1 = HitTestEx(pt, idx);

  00113	8b ce		 mov	 ecx, esi
; File C:\Program Files (x86)\Microsoft Visual Studio\2019\Community\VC\Tools\MSVC\14.29.30133\atlmfc\include\atltypes.h

; 425  : 	y = (short)HIWORD(dwPoint);

  00115	89 45 cc	 mov	 DWORD PTR _pt$18[ebp+4], eax
; File D:\git\src\IBK\IBK_DRFN\ProjSrc\SrcDrfn\Chart\Common_ST\STGfxOutBarCtrl.cpp

; 1040 : 						int idx, ht1 = HitTestEx(pt, idx);

  00118	8d 45 98	 lea	 eax, DWORD PTR _idx$12[ebp]
  0011b	50		 push	 eax
  0011c	8d 45 c8	 lea	 eax, DWORD PTR _pt$18[ebp]
  0011f	50		 push	 eax
  00120	e8 00 00 00 00	 call	 ?HitTestEx@CSTGfxOutBarCtrl@@QAEHABVCPoint@@AAH@Z ; CSTGfxOutBarCtrl::HitTestEx

; 1041 : 						if (ht1 == htFolder)// && idx != iSelFolder)

  00125	85 c0		 test	 eax, eax
  00127	75 0a		 jne	 SHORT $ExitLoop2$385

; 1042 : 							SetSelFolder(idx);

  00129	ff 75 98	 push	 DWORD PTR _idx$12[ebp]
  0012c	8b ce		 mov	 ecx, esi
  0012e	e8 00 00 00 00	 call	 ?SetSelFolder@CSTGfxOutBarCtrl@@QAEXH@Z ; CSTGfxOutBarCtrl::SetSelFolder
$ExitLoop2$385:

; 1053 : 					break;
; 1054 : 				}
; 1055 : 			}
; 1056 : 
; 1057 : 		ExitLoop2:
; 1058 : 			ReleaseCapture();

  00133	ff 15 00 00 00
	00		 call	 DWORD PTR __imp__ReleaseCapture@0

; 1059 : 			AfxUnlockTempMaps(FALSE);

  00139	6a 00		 push	 0
  0013b	e8 00 00 00 00	 call	 ?AfxUnlockTempMaps@@YGHH@Z ; AfxUnlockTempMaps

; 1060 : 		}

  00140	8d 8d 48 ff ff
	ff		 lea	 ecx, DWORD PTR _dc$4[ebp]
  00146	c7 45 fc ff ff
	ff ff		 mov	 DWORD PTR __$EHRec$[ebp+8], -1
  0014d	e8 00 00 00 00	 call	 ??1CClientDC@@UAE@XZ	; CClientDC::~CClientDC
$LN369@OnLButtonD:
; File C:\Program Files (x86)\Microsoft Visual Studio\2019\Community\VC\Tools\MSVC\14.29.30133\atlmfc\include\afxwin2.inl

; 116  : 	{ ASSERT(::IsWindow(m_hWnd)); ::InvalidateRect(m_hWnd, lpRect, bErase); }

  00152	6a 00		 push	 0
  00154	8d 45 d0	 lea	 eax, DWORD PTR _rc$22[ebp]
  00157	50		 push	 eax
  00158	ff 76 20	 push	 DWORD PTR [esi+32]
  0015b	ff 15 00 00 00
	00		 call	 DWORD PTR __imp__InvalidateRect@12
  00161	c7 86 20 01 00
	00 ff ff ff ff	 mov	 DWORD PTR [esi+288], -1
; File D:\git\src\IBK\IBK_DRFN\ProjSrc\SrcDrfn\Chart\Common_ST\STGfxOutBarCtrl.cpp

; 1062 : 	}

  0016b	e9 86 08 00 00	 jmp	 $LN78@OnLButtonD
$LN30@OnLButtonD:

; 1043 : 					}
; 1044 : 
; 1045 : 					goto ExitLoop2;
; 1046 : 
; 1047 : 				case WM_KEYDOWN:	
; 1048 : 					if (msg.wParam != VK_ESCAPE) 

  00170	83 7d 80 1b	 cmp	 DWORD PTR _msg$9[ebp+8], 27 ; 0000001bH
  00174	75 0d		 jne	 SHORT $LN5@OnLButtonD
$LN31@OnLButtonD:

; 1049 : 						break;
; 1050 : 
; 1051 : 				default:
; 1052 : 					DispatchMessage(&msg);

  00176	8d 85 78 ff ff
	ff		 lea	 eax, DWORD PTR _msg$9[ebp]
  0017c	50		 push	 eax
  0017d	ff 15 00 00 00
	00		 call	 DWORD PTR __imp__DispatchMessageA@4
$LN5@OnLButtonD:

; 997  : 			for (;;)
; 998  : 			{
; 999  : 				MSG msg;
; 1000 : 				VERIFY(::GetMessage(&msg, NULL, 0, 0));

  00183	6a 00		 push	 0
  00185	6a 00		 push	 0
  00187	6a 00		 push	 0
  00189	8d 85 78 ff ff
	ff		 lea	 eax, DWORD PTR _msg$9[ebp]
  0018f	50		 push	 eax
  00190	ff 15 00 00 00
	00		 call	 DWORD PTR __imp__GetMessageA@16
; File C:\Program Files (x86)\Microsoft Visual Studio\2019\Community\VC\Tools\MSVC\14.29.30133\atlmfc\include\afxwin2.inl

; 161  : 	{ return CWnd::FromHandle(::GetCapture()); }

  00196	ff d7		 call	 edi
  00198	50		 push	 eax
  00199	e8 00 00 00 00	 call	 ?FromHandle@CWnd@@SGPAV1@PAUHWND__@@@Z ; CWnd::FromHandle
; File D:\git\src\IBK\IBK_DRFN\ProjSrc\SrcDrfn\Chart\Common_ST\STGfxOutBarCtrl.cpp

; 1002 : 				if (CWnd::GetCapture() != this) break;

  0019e	3b c6		 cmp	 eax, esi
  001a0	0f 84 4a ff ff
	ff		 je	 $LL2@OnLButtonD
  001a6	eb 8b		 jmp	 SHORT $ExitLoop2$385
$LN23@OnLButtonD:

; 1063 : 	else iLastSelectedFolder = -1;

  001a8	c7 86 18 01 00
	00 ff ff ff ff	 mov	 DWORD PTR [esi+280], -1

; 1064 : 
; 1065 : 	if (ht == htItem)

  001b2	83 ff 01	 cmp	 edi, 1
  001b5	0f 85 6a 02 00
	00		 jne	 $LN34@OnLButtonD

; 1070 : 		GetItemRect(iSelFolder, index, rc);

  001bb	8b 7d 98	 mov	 edi, DWORD PTR _index$[ebp]
  001be	8d 45 d0	 lea	 eax, DWORD PTR _rc$21[ebp]
  001c1	50		 push	 eax
  001c2	57		 push	 edi
  001c3	ff b6 30 01 00
	00		 push	 DWORD PTR [esi+304]
  001c9	0f 57 c0	 xorps	 xmm0, xmm0
  001cc	c7 86 28 01 00
	00 ff ff ff ff	 mov	 DWORD PTR [esi+296], -1
  001d6	8b ce		 mov	 ecx, esi
  001d8	c6 45 9f 01	 mov	 BYTE PTR _bHigh$1$[ebp], 1
; File C:\Program Files (x86)\Microsoft Visual Studio\2019\Community\VC\Tools\MSVC\14.29.30133\atlmfc\include\atltypes.h

; 528  : 	left = 0;

  001dc	0f 11 45 d0	 movups	 XMMWORD PTR _rc$21[ebp], xmm0
; File D:\git\src\IBK\IBK_DRFN\ProjSrc\SrcDrfn\Chart\Common_ST\STGfxOutBarCtrl.cpp

; 1070 : 		GetItemRect(iSelFolder, index, rc);

  001e0	e8 00 00 00 00	 call	 ?GetItemRect@CSTGfxOutBarCtrl@@QAEXHHAAVCRect@@@Z ; CSTGfxOutBarCtrl::GetItemRect

; 1071 : 
; 1072 : 		HCURSOR hCur = GetCursor();

  001e5	ff 15 00 00 00
	00		 call	 DWORD PTR __imp__GetCursor@0
  001eb	89 45 98	 mov	 DWORD PTR _hCur$1$[ebp], eax

; 1073 : 
; 1074 : 		if (::GetCapture() == NULL)

  001ee	ff 15 00 00 00
	00		 call	 DWORD PTR __imp__GetCapture@0
  001f4	85 c0		 test	 eax, eax
  001f6	0f 85 04 02 00
	00		 jne	 $LN36@OnLButtonD
; File C:\Program Files (x86)\Microsoft Visual Studio\2019\Community\VC\Tools\MSVC\14.29.30133\atlmfc\include\afxwin2.inl

; 163  : 	{ ASSERT(::IsWindow(m_hWnd)); return CWnd::FromHandle(::SetCapture(m_hWnd)); }

  001fc	ff 76 20	 push	 DWORD PTR [esi+32]
  001ff	ff 15 00 00 00
	00		 call	 DWORD PTR __imp__SetCapture@4
  00205	50		 push	 eax
  00206	e8 00 00 00 00	 call	 ?FromHandle@CWnd@@SGPAV1@PAUHWND__@@@Z ; CWnd::FromHandle
; File D:\git\src\IBK\IBK_DRFN\ProjSrc\SrcDrfn\Chart\Common_ST\STGfxOutBarCtrl.cpp

; 1078 : 			CClientDC dc(this);

  0020b	56		 push	 esi
  0020c	8d 8d 48 ff ff
	ff		 lea	 ecx, DWORD PTR _dc$3[ebp]
  00212	e8 00 00 00 00	 call	 ??0CClientDC@@QAE@PAVCWnd@@@Z ; CClientDC::CClientDC

; 1079 : 			HighlightItem(index, true);

  00217	6a 01		 push	 1
  00219	57		 push	 edi
  0021a	8b ce		 mov	 ecx, esi
  0021c	c7 45 fc 01 00
	00 00		 mov	 DWORD PTR __$EHRec$[ebp+8], 1
  00223	e8 00 00 00 00	 call	 ?HighlightItem@CSTGfxOutBarCtrl@@QAEXH_N@Z ; CSTGfxOutBarCtrl::HighlightItem

; 1080 : 			AfxLockTempMaps();

  00228	e8 00 00 00 00	 call	 ?AfxLockTempMaps@@YGXXZ	; AfxLockTempMaps

; 1081 : 			for (;;)
; 1082 : 			{
; 1083 : 				MSG msg;
; 1084 : 				VERIFY(::GetMessage(&msg, NULL, 0, 0));

  0022d	6a 00		 push	 0
  0022f	6a 00		 push	 0
  00231	6a 00		 push	 0
  00233	8d 85 78 ff ff
	ff		 lea	 eax, DWORD PTR _msg$8[ebp]
  00239	50		 push	 eax
  0023a	ff 15 00 00 00
	00		 call	 DWORD PTR __imp__GetMessageA@16
; File C:\Program Files (x86)\Microsoft Visual Studio\2019\Community\VC\Tools\MSVC\14.29.30133\atlmfc\include\afxwin2.inl

; 161  : 	{ return CWnd::FromHandle(::GetCapture()); }

  00240	ff 15 00 00 00
	00		 call	 DWORD PTR __imp__GetCapture@0
  00246	50		 push	 eax
  00247	e8 00 00 00 00	 call	 ?FromHandle@CWnd@@SGPAV1@PAUHWND__@@@Z ; CWnd::FromHandle
; File D:\git\src\IBK\IBK_DRFN\ProjSrc\SrcDrfn\Chart\Common_ST\STGfxOutBarCtrl.cpp

; 1086 : 				if (CWnd::GetCapture() != this) break;

  0024c	3b c6		 cmp	 eax, esi
  0024e	0f 85 8d 01 00
	00		 jne	 $ExitLoop4$386
$LL7@OnLButtonD:

; 1087 : 
; 1088 : 				switch (msg.message)

  00254	8b 85 7c ff ff
	ff		 mov	 eax, DWORD PTR _msg$8[ebp+4]
  0025a	83 f8 20	 cmp	 eax, 32			; 00000020H
  0025d	74 16		 je	 SHORT $LN38@OnLButtonD
  0025f	3d 02 02 00 00	 cmp	 eax, 514		; 00000202H
  00264	74 40		 je	 SHORT $LN370@OnLButtonD

; 1198 : 									rc.InflateRect(1,1);
; 1199 : 									InvalidateRect(rc);
; 1200 : 								}
; 1201 : 
; 1202 : 								GetOwner()->SendMessage(WM_OUTBAR_NOTIFY, NM_OB_ITEMCLICK, idx);
; 1203 : 								Invalidate();
; 1204 : 							}
; 1205 : 						}
; 1206 : 						else
; 1207 : 						{
; 1208 : 							if (ht1 == htItem)
; 1209 : 							{
; 1210 : 								if (idx != index)
; 1211 : 								{
; 1212 : 									OUTBAR_INFO ob;
; 1213 : 									ob.iDragFrom = iSelFolder;
; 1214 : 									ob.iDragTo = index;
; 1215 : 									if (GetOwner()->SendMessage(WM_OUTBAR_NOTIFY, NM_OB_DRAGITEM, (LPARAM) &ob))
; 1216 : 									{
; 1217 : 										CBarFolder * pbf = (CBarFolder *) arFolder.GetAt(iSelFolder);
; 1218 : 										CBarItem * piFrom = (CBarItem *) pbf->arItems.GetAt(index);
; 1219 : 										pbf->arItems.RemoveAt(index);
; 1220 : 										if (idx > index) idx --;
; 1221 : 										pbf->arItems.InsertAt(idx, piFrom);
; 1222 : 									}
; 1223 : 								}
; 1224 : 							}
; 1225 : 							else
; 1226 : 							{
; 1227 : 								CRect rcItem;
; 1228 : 								GetItemRect(iSelFolder, GetItemCount() - 1, rcItem);
; 1229 : 								if (pt.y > rcItem.bottom && pt.y < inRc.bottom)
; 1230 : 								{
; 1231 : 									OUTBAR_INFO ob;
; 1232 : 									ob.iDragFrom = iSelFolder;
; 1233 : 									ob.iDragTo = index;
; 1234 : 									if (GetOwner()->SendMessage(WM_OUTBAR_NOTIFY, NM_OB_DRAGITEM, (LPARAM) &ob))
; 1235 : 									{
; 1236 : 										CBarFolder * pbf = (CBarFolder *) arFolder.GetAt(iSelFolder);
; 1237 : 										CBarItem * piFrom = (CBarItem *) pbf->arItems.GetAt(index);
; 1238 : 										pbf->arItems.RemoveAt(index);
; 1239 : 										pbf->arItems.Add((void *) piFrom);
; 1240 : 									}
; 1241 : 								}
; 1242 : 							}
; 1243 : 						}
; 1244 : 					}
; 1245 : 
; 1246 : 					goto ExitLoop4;
; 1247 : 
; 1248 : 				default:
; 1249 : 					DispatchMessage(&msg);

  00266	8d 85 78 ff ff
	ff		 lea	 eax, DWORD PTR _msg$8[ebp]
  0026c	50		 push	 eax
  0026d	ff 15 00 00 00
	00		 call	 DWORD PTR __imp__DispatchMessageA@4
  00273	eb 09		 jmp	 SHORT $LN10@OnLButtonD
$LN38@OnLButtonD:

; 1089 : 				{
; 1090 : //@
; 1091 : //				case WM_MOUSEMOVE:
; 1092 : //					{
; 1093 : //						CPoint pt(msg.lParam);
; 1094 : //						int idx, ht1 = HitTestEx(pt, idx);
; 1095 : //						if (bDragging)
; 1096 : //						{
; 1097 : //							if (ht1 == htItem) 
; 1098 : //							{
; 1099 : //								DrawDragArrow(&dc, index, idx);
; 1100 : //								SetCursor(hDragCursor);
; 1101 : //								hCur = hDragCursor;
; 1102 : //							}
; 1103 : //							else 
; 1104 : //							{
; 1105 : //								CRect rcItem;
; 1106 : //								GetItemRect(iSelFolder, GetItemCount() - 1, rcItem);
; 1107 : //								if (pt.y > rcItem.bottom && pt.y < inRc.bottom)
; 1108 : //								{
; 1109 : //									DrawDragArrow(&dc, index, GetItemCount());
; 1110 : //									SetCursor(hDragCursor);
; 1111 : //									hCur = hDragCursor;
; 1112 : //								}
; 1113 : //								else
; 1114 : //								{
; 1115 : //									DrawDragArrow(&dc, index, -1);
; 1116 : //									SetCursor(hNoDragCursor);
; 1117 : //									hCur = hNoDragCursor;
; 1118 : //								}
; 1119 : //							}
; 1120 : //						}
; 1121 : //						else
; 1122 : //						{
; 1123 : //							if (ht1 == htItem && idx == index)
; 1124 : //							{
; 1125 : //								if (!bHigh)
; 1126 : //								{
; 1127 : //									HighlightItem(index, true);
; 1128 : //									bHigh = true;
; 1129 : //									bPressedHighlight = true;
; 1130 : //								}
; 1131 : //							}
; 1132 : //							else 
; 1133 : //							{
; 1134 : //								if (ht1 == htItem)
; 1135 : //								{
; 1136 : //									if (bHigh)
; 1137 : //									{
; 1138 : //										HighlightItem(index, false);
; 1139 : //										bHigh = false;
; 1140 : //										bPressedHighlight = false;
; 1141 : //									}
; 1142 : //								}
; 1143 : //								else
; 1144 : //								{
; 1145 : //									if (dwFlags&fDragItems)
; 1146 : //									{
; 1147 : //										HighlightItem(index, true);
; 1148 : //										bHigh = true;
; 1149 : //										bDragging = true;
; 1150 : //
; 1151 : //										SetCursor(hDragCursor);
; 1152 : //										hCur = hDragCursor;
; 1153 : //
; 1154 : //										bPressedHighlight = true;
; 1155 : //									}
; 1156 : //								}
; 1157 : //							}
; 1158 : //						}
; 1159 : //					}
; 1160 : //					break;
; 1161 : //@
; 1162 : 				case WM_SETCURSOR:
; 1163 : 					SetCursor(hCur);

  00275	ff 75 98	 push	 DWORD PTR _hCur$1$[ebp]
  00278	ff 15 00 00 00
	00		 call	 DWORD PTR __imp__SetCursor@4
$LN10@OnLButtonD:

; 1081 : 			for (;;)
; 1082 : 			{
; 1083 : 				MSG msg;
; 1084 : 				VERIFY(::GetMessage(&msg, NULL, 0, 0));

  0027e	6a 00		 push	 0
  00280	6a 00		 push	 0
  00282	6a 00		 push	 0
  00284	8d 85 78 ff ff
	ff		 lea	 eax, DWORD PTR _msg$8[ebp]
  0028a	50		 push	 eax
  0028b	ff 15 00 00 00
	00		 call	 DWORD PTR __imp__GetMessageA@16
; File C:\Program Files (x86)\Microsoft Visual Studio\2019\Community\VC\Tools\MSVC\14.29.30133\atlmfc\include\afxwin2.inl

; 161  : 	{ return CWnd::FromHandle(::GetCapture()); }

  00291	ff 15 00 00 00
	00		 call	 DWORD PTR __imp__GetCapture@0
  00297	50		 push	 eax
  00298	e8 00 00 00 00	 call	 ?FromHandle@CWnd@@SGPAV1@PAUHWND__@@@Z ; CWnd::FromHandle
; File D:\git\src\IBK\IBK_DRFN\ProjSrc\SrcDrfn\Chart\Common_ST\STGfxOutBarCtrl.cpp

; 1086 : 				if (CWnd::GetCapture() != this) break;

  0029d	3b c6		 cmp	 eax, esi
  0029f	74 b3		 je	 SHORT $LL7@OnLButtonD
  002a1	e9 3b 01 00 00	 jmp	 $ExitLoop4$386
$LN370@OnLButtonD:

; 1164 : 					break;
; 1165 : 
; 1166 : 				case WM_LBUTTONUP:
; 1167 : 					{
; 1168 : 						if (bHigh)
; 1169 : 						{
; 1170 : 							HighlightItem(-1);

  002a6	6a 00		 push	 0
  002a8	6a ff		 push	 -1
  002aa	8b ce		 mov	 ecx, esi
  002ac	e8 00 00 00 00	 call	 ?HighlightItem@CSTGfxOutBarCtrl@@QAEXH_N@Z ; CSTGfxOutBarCtrl::HighlightItem
; File C:\Program Files (x86)\Microsoft Visual Studio\2019\Community\VC\Tools\MSVC\14.29.30133\atlmfc\include\atltypes.h

; 424  : 	x = (short)LOWORD(dwPoint);

  002b1	8b 4d 84	 mov	 ecx, DWORD PTR _msg$8[ebp+12]
  002b4	0f bf c1	 movsx	 eax, cx
  002b7	89 45 c8	 mov	 DWORD PTR _pt$17[ebp], eax

; 425  : 	y = (short)HIWORD(dwPoint);

  002ba	c1 e9 10	 shr	 ecx, 16			; 00000010H
  002bd	0f bf c1	 movsx	 eax, cx
; File D:\git\src\IBK\IBK_DRFN\ProjSrc\SrcDrfn\Chart\Common_ST\STGfxOutBarCtrl.cpp

; 1174 : 						int idx, ht1 = HitTestEx(pt, idx);

  002c0	8b ce		 mov	 ecx, esi
; File C:\Program Files (x86)\Microsoft Visual Studio\2019\Community\VC\Tools\MSVC\14.29.30133\atlmfc\include\atltypes.h

; 425  : 	y = (short)HIWORD(dwPoint);

  002c2	89 45 cc	 mov	 DWORD PTR _pt$17[ebp+4], eax
; File D:\git\src\IBK\IBK_DRFN\ProjSrc\SrcDrfn\Chart\Common_ST\STGfxOutBarCtrl.cpp

; 1174 : 						int idx, ht1 = HitTestEx(pt, idx);

  002c5	8d 45 98	 lea	 eax, DWORD PTR _idx$11[ebp]
  002c8	50		 push	 eax
  002c9	8d 45 c8	 lea	 eax, DWORD PTR _pt$17[ebp]
  002cc	c6 45 9f 00	 mov	 BYTE PTR _bHigh$1$[ebp], 0
  002d0	50		 push	 eax
  002d1	e8 00 00 00 00	 call	 ?HitTestEx@CSTGfxOutBarCtrl@@QAEHABVCPoint@@AAH@Z ; CSTGfxOutBarCtrl::HitTestEx

; 1175 : 						if (!bDragging)
; 1176 : 						{
; 1177 : 							if (ht1 == htItem && idx == index) 

  002d6	83 f8 01	 cmp	 eax, 1
  002d9	0f 85 02 01 00
	00		 jne	 $ExitLoop4$386
  002df	39 7d 98	 cmp	 DWORD PTR _idx$11[ebp], edi
  002e2	0f 85 f9 00 00
	00		 jne	 $ExitLoop4$386

; 1178 : 							{
; 1179 : 								if (iSelAnimTiming > 0 && index != iLastSel && iLastSel >= 0)

  002e8	83 be f4 00 00
	00 00		 cmp	 DWORD PTR [esi+244], 0
  002ef	7e 1a		 jle	 SHORT $LN44@OnLButtonD
  002f1	8b 86 f0 00 00
	00		 mov	 eax, DWORD PTR [esi+240]
  002f7	3b f8		 cmp	 edi, eax
  002f9	74 10		 je	 SHORT $LN44@OnLButtonD
  002fb	85 c0		 test	 eax, eax
  002fd	78 0c		 js	 SHORT $LN44@OnLButtonD

; 1180 : 								{
; 1181 : 									DrawAnimItem(0, 0, iLastSel);

  002ff	50		 push	 eax
  00300	6a 00		 push	 0
  00302	6a 00		 push	 0
  00304	8b ce		 mov	 ecx, esi
  00306	e8 00 00 00 00	 call	 ?DrawAnimItem@CSTGfxOutBarCtrl@@QAEXHHH@Z ; CSTGfxOutBarCtrl::DrawAnimItem
$LN44@OnLButtonD:

; 1182 : 								}
; 1183 : 
; 1184 : 								if (dwFlags&fSelHighlight && iLastSel >= 0)

  0030b	8b 86 fc 00 00
	00		 mov	 eax, DWORD PTR [esi+252]
  00311	a9 00 02 00 00	 test	 eax, 512		; 00000200H
  00316	74 46		 je	 SHORT $LN45@OnLButtonD
  00318	8b 8e f0 00 00
	00		 mov	 ecx, DWORD PTR [esi+240]
  0031e	85 c9		 test	 ecx, ecx
  00320	78 3c		 js	 SHORT $LN45@OnLButtonD

; 1187 : 									GetIconRect(iSelFolder, iLastSel, rc);

  00322	8d 45 e0	 lea	 eax, DWORD PTR _rc$27[ebp]
  00325	0f 57 c0	 xorps	 xmm0, xmm0
  00328	50		 push	 eax
  00329	51		 push	 ecx
  0032a	ff b6 30 01 00
	00		 push	 DWORD PTR [esi+304]
  00330	8b ce		 mov	 ecx, esi
; File C:\Program Files (x86)\Microsoft Visual Studio\2019\Community\VC\Tools\MSVC\14.29.30133\atlmfc\include\atltypes.h

; 528  : 	left = 0;

  00332	0f 11 45 e0	 movups	 XMMWORD PTR _rc$27[ebp], xmm0
; File D:\git\src\IBK\IBK_DRFN\ProjSrc\SrcDrfn\Chart\Common_ST\STGfxOutBarCtrl.cpp

; 1187 : 									GetIconRect(iSelFolder, iLastSel, rc);

  00336	e8 00 00 00 00	 call	 ?GetIconRect@CSTGfxOutBarCtrl@@QAEXHHAAVCRect@@@Z ; CSTGfxOutBarCtrl::GetIconRect
; File C:\Program Files (x86)\Microsoft Visual Studio\2019\Community\VC\Tools\MSVC\14.29.30133\atlmfc\include\atltypes.h

; 686  : 	::InflateRect(this, x, y);

  0033b	6a 01		 push	 1
  0033d	6a 01		 push	 1
  0033f	8d 45 e0	 lea	 eax, DWORD PTR _rc$27[ebp]
  00342	50		 push	 eax
  00343	ff 15 00 00 00
	00		 call	 DWORD PTR __imp__InflateRect@12
; File C:\Program Files (x86)\Microsoft Visual Studio\2019\Community\VC\Tools\MSVC\14.29.30133\atlmfc\include\afxwin2.inl

; 116  : 	{ ASSERT(::IsWindow(m_hWnd)); ::InvalidateRect(m_hWnd, lpRect, bErase); }

  00349	6a 01		 push	 1
  0034b	8d 45 e0	 lea	 eax, DWORD PTR _rc$27[ebp]
  0034e	50		 push	 eax
  0034f	ff 76 20	 push	 DWORD PTR [esi+32]
  00352	ff 15 00 00 00
	00		 call	 DWORD PTR __imp__InvalidateRect@12
  00358	8b 86 fc 00 00
	00		 mov	 eax, DWORD PTR [esi+252]
$LN45@OnLButtonD:
; File D:\git\src\IBK\IBK_DRFN\ProjSrc\SrcDrfn\Chart\Common_ST\STGfxOutBarCtrl.cpp

; 1192 : 								iLastSel = index;

  0035e	89 be f0 00 00
	00		 mov	 DWORD PTR [esi+240], edi

; 1194 : 								if (dwFlags&fSelHighlight && iLastSel >= 0)

  00364	a9 00 02 00 00	 test	 eax, 512		; 00000200H
  00369	74 3e		 je	 SHORT $LN380@OnLButtonD
  0036b	85 ff		 test	 edi, edi
  0036d	78 3a		 js	 SHORT $LN380@OnLButtonD

; 1197 : 									GetIconRect(iSelFolder, iLastSel, rc);

  0036f	8d 45 e0	 lea	 eax, DWORD PTR _rc$26[ebp]
  00372	0f 57 c0	 xorps	 xmm0, xmm0
  00375	50		 push	 eax
  00376	57		 push	 edi
  00377	ff b6 30 01 00
	00		 push	 DWORD PTR [esi+304]
  0037d	8b ce		 mov	 ecx, esi
; File C:\Program Files (x86)\Microsoft Visual Studio\2019\Community\VC\Tools\MSVC\14.29.30133\atlmfc\include\atltypes.h

; 528  : 	left = 0;

  0037f	0f 11 45 e0	 movups	 XMMWORD PTR _rc$26[ebp], xmm0
; File D:\git\src\IBK\IBK_DRFN\ProjSrc\SrcDrfn\Chart\Common_ST\STGfxOutBarCtrl.cpp

; 1197 : 									GetIconRect(iSelFolder, iLastSel, rc);

  00383	e8 00 00 00 00	 call	 ?GetIconRect@CSTGfxOutBarCtrl@@QAEXHHAAVCRect@@@Z ; CSTGfxOutBarCtrl::GetIconRect
; File C:\Program Files (x86)\Microsoft Visual Studio\2019\Community\VC\Tools\MSVC\14.29.30133\atlmfc\include\atltypes.h

; 686  : 	::InflateRect(this, x, y);

  00388	6a 01		 push	 1
  0038a	6a 01		 push	 1
  0038c	8d 45 e0	 lea	 eax, DWORD PTR _rc$26[ebp]
  0038f	50		 push	 eax
  00390	ff 15 00 00 00
	00		 call	 DWORD PTR __imp__InflateRect@12
; File C:\Program Files (x86)\Microsoft Visual Studio\2019\Community\VC\Tools\MSVC\14.29.30133\atlmfc\include\afxwin2.inl

; 116  : 	{ ASSERT(::IsWindow(m_hWnd)); ::InvalidateRect(m_hWnd, lpRect, bErase); }

  00396	8b 3d 00 00 00
	00		 mov	 edi, DWORD PTR __imp__InvalidateRect@12
  0039c	8d 45 e0	 lea	 eax, DWORD PTR _rc$26[ebp]
  0039f	6a 01		 push	 1
  003a1	50		 push	 eax
  003a2	ff 76 20	 push	 DWORD PTR [esi+32]
  003a5	ff d7		 call	 edi
; File D:\git\src\IBK\IBK_DRFN\ProjSrc\SrcDrfn\Chart\Common_ST\STGfxOutBarCtrl.cpp

; 1194 : 								if (dwFlags&fSelHighlight && iLastSel >= 0)

  003a7	eb 06		 jmp	 SHORT $LN46@OnLButtonD
$LN380@OnLButtonD:
; File C:\Program Files (x86)\Microsoft Visual Studio\2019\Community\VC\Tools\MSVC\14.29.30133\atlmfc\include\afxwin2.inl

; 27   : 	{ return m_hWndOwner != NULL ? CWnd::FromHandle(m_hWndOwner) : GetParent(); }

  003a9	8b 3d 00 00 00
	00		 mov	 edi, DWORD PTR __imp__InvalidateRect@12
$LN46@OnLButtonD:
  003af	8b 46 5c	 mov	 eax, DWORD PTR [esi+92]
  003b2	85 c0		 test	 eax, eax
  003b4	75 09		 jne	 SHORT $LN138@OnLButtonD

; 213  : 	{ ASSERT(::IsWindow(m_hWnd)); return CWnd::FromHandle(::GetParent(m_hWnd)); }

  003b6	ff 76 20	 push	 DWORD PTR [esi+32]
  003b9	ff 15 00 00 00
	00		 call	 DWORD PTR __imp__GetParent@4
$LN138@OnLButtonD:

; 32   : 	{ ASSERT(::IsWindow(m_hWnd)); return ::SendMessage(m_hWnd, message, wParam, lParam); }

  003bf	50		 push	 eax
  003c0	e8 00 00 00 00	 call	 ?FromHandle@CWnd@@SGPAV1@PAUHWND__@@@Z ; CWnd::FromHandle
  003c5	ff 75 98	 push	 DWORD PTR _idx$11[ebp]
  003c8	6a 01		 push	 1
  003ca	68 01 04 00 00	 push	 1025			; 00000401H
  003cf	ff 70 20	 push	 DWORD PTR [eax+32]
  003d2	ff 15 00 00 00
	00		 call	 DWORD PTR __imp__SendMessageA@16

; 114  : 	{ ASSERT(::IsWindow(m_hWnd)); ::InvalidateRect(m_hWnd, NULL, bErase); }

  003d8	6a 01		 push	 1
  003da	6a 00		 push	 0
  003dc	ff 76 20	 push	 DWORD PTR [esi+32]
  003df	ff d7		 call	 edi
$ExitLoop4$386:
; File D:\git\src\IBK\IBK_DRFN\ProjSrc\SrcDrfn\Chart\Common_ST\STGfxOutBarCtrl.cpp

; 1255 : 			ReleaseCapture();

  003e1	ff 15 00 00 00
	00		 call	 DWORD PTR __imp__ReleaseCapture@0

; 1256 : 			AfxUnlockTempMaps(FALSE);

  003e7	6a 00		 push	 0
  003e9	e8 00 00 00 00	 call	 ?AfxUnlockTempMaps@@YGHH@Z ; AfxUnlockTempMaps

; 1257 : 			if (bDragging) 
; 1258 : 			{
; 1259 : 				Invalidate();
; 1260 : 			}
; 1261 : 		}

  003ee	8d 8d 48 ff ff
	ff		 lea	 ecx, DWORD PTR _dc$3[ebp]
  003f4	c7 45 fc ff ff
	ff ff		 mov	 DWORD PTR __$EHRec$[ebp+8], -1
  003fb	e8 00 00 00 00	 call	 ??1CClientDC@@UAE@XZ	; CClientDC::~CClientDC
$LN36@OnLButtonD:

; 1262 : 		bPressedHighlight = false;
; 1263 : 		if (bHigh) InvalidateRect(rc, false);

  00400	80 7d 9f 00	 cmp	 BYTE PTR _bHigh$1$[ebp], 0
  00404	c6 86 24 01 00
	00 00		 mov	 BYTE PTR [esi+292], 0
  0040b	0f 84 e5 05 00
	00		 je	 $LN78@OnLButtonD
; File C:\Program Files (x86)\Microsoft Visual Studio\2019\Community\VC\Tools\MSVC\14.29.30133\atlmfc\include\afxwin2.inl

; 116  : 	{ ASSERT(::IsWindow(m_hWnd)); ::InvalidateRect(m_hWnd, lpRect, bErase); }

  00411	6a 00		 push	 0
  00413	8d 45 d0	 lea	 eax, DWORD PTR _rc$21[ebp]
  00416	50		 push	 eax
  00417	ff 76 20	 push	 DWORD PTR [esi+32]
  0041a	ff 15 00 00 00
	00		 call	 DWORD PTR __imp__InvalidateRect@12
; File D:\git\src\IBK\IBK_DRFN\ProjSrc\SrcDrfn\Chart\Common_ST\STGfxOutBarCtrl.cpp

; 1264 : 	}

  00420	e9 d1 05 00 00	 jmp	 $LN78@OnLButtonD
$LN34@OnLButtonD:

; 1265 : 	else iLastItemHighlighted = -1;

  00425	c7 86 20 01 00
	00 ff ff ff ff	 mov	 DWORD PTR [esi+288], -1

; 1266 : 
; 1267 : 	if (ht == htDownScroll)

  0042f	83 ff 03	 cmp	 edi, 3
  00432	0f 85 1e 03 00
	00		 jne	 $LN59@OnLButtonD

; 1268 : 	{
; 1269 : 		bLooping = true;
; 1270 : 		bool bHigh = true;
; 1271 : 
; 1272 : 		if (::GetCapture() == NULL)

  00438	8b 3d 00 00 00
	00		 mov	 edi, DWORD PTR __imp__GetCapture@0
  0043e	c6 86 e0 00 00
	00 01		 mov	 BYTE PTR [esi+224], 1
  00445	ff d7		 call	 edi
  00447	85 c0		 test	 eax, eax
  00449	0f 85 a7 05 00
	00		 jne	 $LN78@OnLButtonD
; File C:\Program Files (x86)\Microsoft Visual Studio\2019\Community\VC\Tools\MSVC\14.29.30133\atlmfc\include\afxwin2.inl

; 163  : 	{ ASSERT(::IsWindow(m_hWnd)); return CWnd::FromHandle(::SetCapture(m_hWnd)); }

  0044f	ff 76 20	 push	 DWORD PTR [esi+32]
  00452	ff 15 00 00 00
	00		 call	 DWORD PTR __imp__SetCapture@4
  00458	50		 push	 eax
  00459	e8 00 00 00 00	 call	 ?FromHandle@CWnd@@SGPAV1@PAUHWND__@@@Z ; CWnd::FromHandle
; File D:\git\src\IBK\IBK_DRFN\ProjSrc\SrcDrfn\Chart\Common_ST\STGfxOutBarCtrl.cpp

; 1276 : 			CClientDC dc(this);

  0045e	56		 push	 esi
  0045f	8d 8d 48 ff ff
	ff		 lea	 ecx, DWORD PTR _dc$2[ebp]
  00465	e8 00 00 00 00	 call	 ??0CClientDC@@QAE@PAVCWnd@@@Z ; CClientDC::CClientDC
; File C:\Program Files (x86)\Microsoft Visual Studio\2019\Community\VC\Tools\MSVC\14.29.30133\atlmfc\include\afxwin1.inl

; 512  : 	{ ASSERT(m_hDC != NULL); return ::DrawFrameControl(m_hDC, lpRect, nType, nState); }

  0046a	68 01 02 00 00	 push	 513			; 00000201H
  0046f	6a 03		 push	 3
; File D:\git\src\IBK\IBK_DRFN\ProjSrc\SrcDrfn\Chart\Common_ST\STGfxOutBarCtrl.cpp

; 1277 : 			dc.DrawFrameControl(rcDownArrow, DFC_SCROLL, DFCS_SCROLLDOWN|DFCS_PUSHED);

  00471	8d 86 d0 00 00
	00		 lea	 eax, DWORD PTR [esi+208]
  00477	c7 45 fc 02 00
	00 00		 mov	 DWORD PTR __$EHRec$[ebp+8], 2
; File C:\Program Files (x86)\Microsoft Visual Studio\2019\Community\VC\Tools\MSVC\14.29.30133\atlmfc\include\afxwin1.inl

; 512  : 	{ ASSERT(m_hDC != NULL); return ::DrawFrameControl(m_hDC, lpRect, nType, nState); }

  0047e	50		 push	 eax
  0047f	ff b5 4c ff ff
	ff		 push	 DWORD PTR _dc$2[ebp+4]
  00485	ff 15 00 00 00
	00		 call	 DWORD PTR __imp__DrawFrameControl@16
; File C:\Program Files (x86)\Microsoft Visual Studio\2019\Community\VC\Tools\MSVC\14.29.30133\atlmfc\include\afxwin2.inl

; 152  : 	{ ASSERT(::IsWindow(m_hWnd)); return ::SetTimer(m_hWnd, nIDEvent, nElapse,

  0048b	6a 00		 push	 0
  0048d	68 2c 01 00 00	 push	 300			; 0000012cH
  00492	6a 02		 push	 2
  00494	ff 76 20	 push	 DWORD PTR [esi+32]
  00497	ff 15 00 00 00
	00		 call	 DWORD PTR __imp__SetTimer@16
; File D:\git\src\IBK\IBK_DRFN\ProjSrc\SrcDrfn\Chart\Common_ST\STGfxOutBarCtrl.cpp

; 1279 : 			AfxLockTempMaps();

  0049d	e8 00 00 00 00	 call	 ?AfxLockTempMaps@@YGXXZ	; AfxLockTempMaps

; 1280 : 			for (;;)
; 1281 : 			{
; 1282 : 				MSG msg;
; 1283 : 				VERIFY(::GetMessage(&msg, NULL, 0, 0));

  004a2	6a 00		 push	 0
  004a4	6a 00		 push	 0
  004a6	6a 00		 push	 0
  004a8	8d 85 5c ff ff
	ff		 lea	 eax, DWORD PTR _msg$5[ebp]
  004ae	50		 push	 eax
  004af	ff 15 00 00 00
	00		 call	 DWORD PTR __imp__GetMessageA@16
; File C:\Program Files (x86)\Microsoft Visual Studio\2019\Community\VC\Tools\MSVC\14.29.30133\atlmfc\include\afxwin2.inl

; 161  : 	{ return CWnd::FromHandle(::GetCapture()); }

  004b5	ff d7		 call	 edi
  004b7	50		 push	 eax
  004b8	e8 00 00 00 00	 call	 ?FromHandle@CWnd@@SGPAV1@PAUHWND__@@@Z ; CWnd::FromHandle
; File D:\git\src\IBK\IBK_DRFN\ProjSrc\SrcDrfn\Chart\Common_ST\STGfxOutBarCtrl.cpp

; 1285 : 				if (CWnd::GetCapture() != this) break;

  004bd	3b c6		 cmp	 eax, esi
  004bf	0f 85 7f 01 00
	00		 jne	 $ExitLoop3$387
$LL12@OnLButtonD:

; 1286 : 
; 1287 : 				switch (msg.message)

  004c5	8b 85 60 ff ff
	ff		 mov	 eax, DWORD PTR _msg$5[ebp+4]
  004cb	2d 00 01 00 00	 sub	 eax, 256		; 00000100H
  004d0	0f 84 35 01 00
	00		 je	 $LN74@OnLButtonD
  004d6	83 e8 13	 sub	 eax, 19			; 00000013H
  004d9	74 67		 je	 SHORT $LN66@OnLButtonD
  004db	2d ef 00 00 00	 sub	 eax, 239		; 000000efH
  004e0	0f 85 2e 01 00
	00		 jne	 $LN75@OnLButtonD
; File C:\Program Files (x86)\Microsoft Visual Studio\2019\Community\VC\Tools\MSVC\14.29.30133\atlmfc\include\afxwin1.inl

; 512  : 	{ ASSERT(m_hDC != NULL); return ::DrawFrameControl(m_hDC, lpRect, nType, nState); }

  004e6	6a 01		 push	 1
  004e8	6a 03		 push	 3
  004ea	8d be d0 00 00
	00		 lea	 edi, DWORD PTR [esi+208]
  004f0	57		 push	 edi
  004f1	ff b5 4c ff ff
	ff		 push	 DWORD PTR _dc$2[ebp+4]
  004f7	ff 15 00 00 00
	00		 call	 DWORD PTR __imp__DrawFrameControl@16
; File C:\Program Files (x86)\Microsoft Visual Studio\2019\Community\VC\Tools\MSVC\14.29.30133\atlmfc\include\atltypes.h

; 424  : 	x = (short)LOWORD(dwPoint);

  004fd	8b 85 68 ff ff
	ff		 mov	 eax, DWORD PTR _msg$5[ebp+12]
  00503	0f bf c8	 movsx	 ecx, ax

; 425  : 	y = (short)HIWORD(dwPoint);

  00506	c1 e8 10	 shr	 eax, 16			; 00000010H
  00509	98		 cwde

; 648  : 	return ::PtInRect(this, point);

  0050a	50		 push	 eax
  0050b	51		 push	 ecx
  0050c	57		 push	 edi
; File D:\git\src\IBK\IBK_DRFN\ProjSrc\SrcDrfn\Chart\Common_ST\STGfxOutBarCtrl.cpp

; 1323 : 						bDownArrow = false;

  0050d	c6 86 bd 00 00
	00 00		 mov	 BYTE PTR [esi+189], 0
; File C:\Program Files (x86)\Microsoft Visual Studio\2019\Community\VC\Tools\MSVC\14.29.30133\atlmfc\include\atltypes.h

; 648  : 	return ::PtInRect(this, point);

  00514	ff 15 00 00 00
	00		 call	 DWORD PTR __imp__PtInRect@12
; File D:\git\src\IBK\IBK_DRFN\ProjSrc\SrcDrfn\Chart\Common_ST\STGfxOutBarCtrl.cpp

; 1325 : 						if (rcDownArrow.PtInRect(pt))

  0051a	85 c0		 test	 eax, eax
  0051c	0f 84 22 01 00
	00		 je	 $ExitLoop3$387

; 1531 : 	if(arFolder.GetSize()==0) return 0;

  00522	8b 86 08 01 00
	00		 mov	 eax, DWORD PTR [esi+264]
  00528	0f 57 c0	 xorps	 xmm0, xmm0
  0052b	8b 8e 30 01 00
	00		 mov	 ecx, DWORD PTR [esi+304]
; File C:\Program Files (x86)\Microsoft Visual Studio\2019\Community\VC\Tools\MSVC\14.29.30133\atlmfc\include\atltypes.h

; 528  : 	left = 0;

  00531	0f 11 45 c0	 movups	 XMMWORD PTR _itrc$15[ebp], xmm0
; File D:\git\src\IBK\IBK_DRFN\ProjSrc\SrcDrfn\Chart\Common_ST\STGfxOutBarCtrl.cpp

; 1531 : 	if(arFolder.GetSize()==0) return 0;

  00535	85 c0		 test	 eax, eax
  00537	0f 85 94 01 00
	00		 jne	 $LN195@OnLButtonD
  0053d	e9 ab 01 00 00	 jmp	 $LN194@OnLButtonD
$LN66@OnLButtonD:

; 1334 : 								InvalidateRect(crc, true);
; 1335 : 							}
; 1336 : 						}
; 1337 : 					}
; 1338 : 					goto ExitLoop3;
; 1339 : 
; 1340 : 
; 1341 : 				case WM_TIMER:
; 1342 : 					{
; 1343 : 						if (msg.wParam == 2)

  00542	83 bd 64 ff ff
	ff 02		 cmp	 DWORD PTR _msg$5[ebp+8], 2
  00549	0f 85 d2 00 00
	00		 jne	 $LN15@OnLButtonD
; File C:\Program Files (x86)\Microsoft Visual Studio\2019\Community\VC\Tools\MSVC\14.29.30133\atlmfc\include\atltypes.h

; 414  : 	*(POINT*)this = initPt;

  0054f	8b 85 70 ff ff
	ff		 mov	 eax, DWORD PTR _msg$5[ebp+20]
  00555	8b 8d 74 ff ff
	ff		 mov	 ecx, DWORD PTR _msg$5[ebp+24]
  0055b	89 45 94	 mov	 DWORD PTR _pt$10[ebp], eax
; File C:\Program Files (x86)\Microsoft Visual Studio\2019\Community\VC\Tools\MSVC\14.29.30133\atlmfc\include\afxwin2.inl

; 94   : 	{ ASSERT(::IsWindow(m_hWnd)); ::ScreenToClient(m_hWnd, lpPoint); }

  0055e	8d 45 94	 lea	 eax, DWORD PTR _pt$10[ebp]
  00561	50		 push	 eax
  00562	ff 76 20	 push	 DWORD PTR [esi+32]
; File C:\Program Files (x86)\Microsoft Visual Studio\2019\Community\VC\Tools\MSVC\14.29.30133\atlmfc\include\atltypes.h

; 414  : 	*(POINT*)this = initPt;

  00565	89 4d 98	 mov	 DWORD PTR _pt$10[ebp+4], ecx
; File C:\Program Files (x86)\Microsoft Visual Studio\2019\Community\VC\Tools\MSVC\14.29.30133\atlmfc\include\afxwin2.inl

; 94   : 	{ ASSERT(::IsWindow(m_hWnd)); ::ScreenToClient(m_hWnd, lpPoint); }

  00568	ff 15 00 00 00
	00		 call	 DWORD PTR __imp__ScreenToClient@8
; File C:\Program Files (x86)\Microsoft Visual Studio\2019\Community\VC\Tools\MSVC\14.29.30133\atlmfc\include\atltypes.h

; 648  : 	return ::PtInRect(this, point);

  0056e	ff 75 98	 push	 DWORD PTR _pt$10[ebp+4]
  00571	8d 86 d0 00 00
	00		 lea	 eax, DWORD PTR [esi+208]
  00577	ff 75 94	 push	 DWORD PTR _pt$10[ebp]
  0057a	50		 push	 eax
  0057b	ff 15 00 00 00
	00		 call	 DWORD PTR __imp__PtInRect@12
; File D:\git\src\IBK\IBK_DRFN\ProjSrc\SrcDrfn\Chart\Common_ST\STGfxOutBarCtrl.cpp

; 1349 : 								if (rcDownArrow.PtInRect(pt))

  00581	85 c0		 test	 eax, eax
  00583	0f 84 79 00 00
	00		 je	 $LN69@OnLButtonD

; 1531 : 	if(arFolder.GetSize()==0) return 0;

  00589	8b 86 08 01 00
	00		 mov	 eax, DWORD PTR [esi+264]
  0058f	0f 57 c0	 xorps	 xmm0, xmm0
  00592	8b 8e 30 01 00
	00		 mov	 ecx, DWORD PTR [esi+304]

; 1350 : 								{
; 1351 : 									bDownPressed = true;

  00598	c6 86 bf 00 00
	00 01		 mov	 BYTE PTR [esi+191], 1
; File C:\Program Files (x86)\Microsoft Visual Studio\2019\Community\VC\Tools\MSVC\14.29.30133\atlmfc\include\atltypes.h

; 528  : 	left = 0;

  0059f	0f 11 45 c0	 movups	 XMMWORD PTR _itrc$14[ebp], xmm0
; File D:\git\src\IBK\IBK_DRFN\ProjSrc\SrcDrfn\Chart\Common_ST\STGfxOutBarCtrl.cpp

; 1531 : 	if(arFolder.GetSize()==0) return 0;

  005a3	85 c0		 test	 eax, eax
  005a5	74 1c		 je	 SHORT $LN214@OnLButtonD
$LN215@OnLButtonD:
; File C:\Program Files (x86)\Microsoft Visual Studio\2019\Community\VC\Tools\MSVC\14.29.30133\atlmfc\include\afxcoll.inl

; 203  : 		if( nIndex < 0 || nIndex >= m_nSize )

  005a7	85 c9		 test	 ecx, ecx
  005a9	0f 88 6b 04 00
	00		 js	 $LN199@OnLButtonD
  005af	3b c8		 cmp	 ecx, eax
  005b1	0f 8d 63 04 00
	00		 jge	 $LN199@OnLButtonD

; 204  : 			AfxThrowInvalidArgException();
; 205  : 		return m_pData[nIndex]; }

  005b7	8b 86 04 01 00
	00		 mov	 eax, DWORD PTR [esi+260]
  005bd	8b 04 88	 mov	 eax, DWORD PTR [eax+ecx*4]
; File D:\git\src\IBK\IBK_DRFN\ProjSrc\SrcDrfn\Chart\Common_ST\STGfxOutBarCtrl.cpp

; 1534 : 	return 	pbf->GetItemCount();

  005c0	8b 40 1c	 mov	 eax, DWORD PTR [eax+28]
$LN214@OnLButtonD:

; 1352 : 									CRect itrc;
; 1353 : 									GetItemRect(iSelFolder, GetItemCount() - 1, itrc);

  005c3	8d 55 c0	 lea	 edx, DWORD PTR _itrc$14[ebp]
  005c6	48		 dec	 eax
  005c7	52		 push	 edx
  005c8	50		 push	 eax
  005c9	51		 push	 ecx
  005ca	8b ce		 mov	 ecx, esi
  005cc	e8 00 00 00 00	 call	 ?GetItemRect@CSTGfxOutBarCtrl@@QAEXHHAAVCRect@@@Z ; CSTGfxOutBarCtrl::GetItemRect

; 1355 : 									GetInsideRect(crc);

  005d1	8d 45 e0	 lea	 eax, DWORD PTR _crc$24[ebp]
  005d4	0f 57 c0	 xorps	 xmm0, xmm0
  005d7	50		 push	 eax
  005d8	8b ce		 mov	 ecx, esi
; File C:\Program Files (x86)\Microsoft Visual Studio\2019\Community\VC\Tools\MSVC\14.29.30133\atlmfc\include\atltypes.h

; 528  : 	left = 0;

  005da	0f 11 45 e0	 movups	 XMMWORD PTR _crc$24[ebp], xmm0
; File D:\git\src\IBK\IBK_DRFN\ProjSrc\SrcDrfn\Chart\Common_ST\STGfxOutBarCtrl.cpp

; 1355 : 									GetInsideRect(crc);

  005de	e8 00 00 00 00	 call	 ?GetInsideRect@CSTGfxOutBarCtrl@@QBEXAAVCRect@@@Z ; CSTGfxOutBarCtrl::GetInsideRect

; 1356 : 									if (itrc.bottom > crc.bottom)

  005e3	8b 45 cc	 mov	 eax, DWORD PTR _itrc$14[ebp+12]
  005e6	3b 45 ec	 cmp	 eax, DWORD PTR _crc$24[ebp+12]
  005e9	7e 59		 jle	 SHORT $ExitLoop3$387

; 1357 : 									{
; 1358 : 										iFirstItem ++;

  005eb	ff 86 1c 01 00
	00		 inc	 DWORD PTR [esi+284]
; File C:\Program Files (x86)\Microsoft Visual Studio\2019\Community\VC\Tools\MSVC\14.29.30133\atlmfc\include\afxwin2.inl

; 116  : 	{ ASSERT(::IsWindow(m_hWnd)); ::InvalidateRect(m_hWnd, lpRect, bErase); }

  005f1	8d 45 e0	 lea	 eax, DWORD PTR _crc$24[ebp]
  005f4	6a 01		 push	 1
  005f6	50		 push	 eax
  005f7	ff 76 20	 push	 DWORD PTR [esi+32]
  005fa	ff 15 00 00 00
	00		 call	 DWORD PTR __imp__InvalidateRect@12
; File D:\git\src\IBK\IBK_DRFN\ProjSrc\SrcDrfn\Chart\Common_ST\STGfxOutBarCtrl.cpp

; 1362 : 								}

  00600	eb 1f		 jmp	 SHORT $LN15@OnLButtonD
$LN69@OnLButtonD:

; 1363 : 								else bDownPressed = false;

  00602	c6 86 bf 00 00
	00 00		 mov	 BYTE PTR [esi+191], 0

; 1364 : 							}
; 1365 : 						}
; 1366 : 						break;

  00609	eb 16		 jmp	 SHORT $LN15@OnLButtonD
$LN74@OnLButtonD:

; 1367 : 					}
; 1368 : 
; 1369 : 				case WM_KEYDOWN:	
; 1370 : 					if (msg.wParam != VK_ESCAPE) 

  0060b	83 bd 64 ff ff
	ff 1b		 cmp	 DWORD PTR _msg$5[ebp+8], 27 ; 0000001bH
  00612	75 0d		 jne	 SHORT $LN15@OnLButtonD
$LN75@OnLButtonD:

; 1371 : 						break;
; 1372 : 
; 1373 : 				default:
; 1374 : 					DispatchMessage(&msg);

  00614	8d 85 5c ff ff
	ff		 lea	 eax, DWORD PTR _msg$5[ebp]
  0061a	50		 push	 eax
  0061b	ff 15 00 00 00
	00		 call	 DWORD PTR __imp__DispatchMessageA@4
$LN15@OnLButtonD:

; 1280 : 			for (;;)
; 1281 : 			{
; 1282 : 				MSG msg;
; 1283 : 				VERIFY(::GetMessage(&msg, NULL, 0, 0));

  00621	6a 00		 push	 0
  00623	6a 00		 push	 0
  00625	6a 00		 push	 0
  00627	8d 85 5c ff ff
	ff		 lea	 eax, DWORD PTR _msg$5[ebp]
  0062d	50		 push	 eax
  0062e	ff 15 00 00 00
	00		 call	 DWORD PTR __imp__GetMessageA@16
; File C:\Program Files (x86)\Microsoft Visual Studio\2019\Community\VC\Tools\MSVC\14.29.30133\atlmfc\include\afxwin2.inl

; 161  : 	{ return CWnd::FromHandle(::GetCapture()); }

  00634	ff d7		 call	 edi
  00636	50		 push	 eax
  00637	e8 00 00 00 00	 call	 ?FromHandle@CWnd@@SGPAV1@PAUHWND__@@@Z ; CWnd::FromHandle
; File D:\git\src\IBK\IBK_DRFN\ProjSrc\SrcDrfn\Chart\Common_ST\STGfxOutBarCtrl.cpp

; 1285 : 				if (CWnd::GetCapture() != this) break;

  0063c	3b c6		 cmp	 eax, esi
  0063e	0f 84 81 fe ff
	ff		 je	 $LL12@OnLButtonD
$ExitLoop3$387:
; File C:\Program Files (x86)\Microsoft Visual Studio\2019\Community\VC\Tools\MSVC\14.29.30133\atlmfc\include\afxwin2.inl

; 155  : 	{ ASSERT(::IsWindow(m_hWnd)); return ::KillTimer(m_hWnd, nIDEvent); }

  00644	6a 02		 push	 2
  00646	ff 76 20	 push	 DWORD PTR [esi+32]
  00649	ff 15 00 00 00
	00		 call	 DWORD PTR __imp__KillTimer@8
; File D:\git\src\IBK\IBK_DRFN\ProjSrc\SrcDrfn\Chart\Common_ST\STGfxOutBarCtrl.cpp

; 1381 : 			ReleaseCapture();

  0064f	ff 15 00 00 00
	00		 call	 DWORD PTR __imp__ReleaseCapture@0

; 1382 : 			AfxUnlockTempMaps(FALSE);

  00655	6a 00		 push	 0
  00657	e8 00 00 00 00	 call	 ?AfxUnlockTempMaps@@YGHH@Z ; AfxUnlockTempMaps
; File C:\Program Files (x86)\Microsoft Visual Studio\2019\Community\VC\Tools\MSVC\14.29.30133\atlmfc\include\afxwin2.inl

; 86   : 	{ ASSERT(::IsWindow(m_hWnd)); ::GetClientRect(m_hWnd, lpRect); }

  0065c	8d 45 d0	 lea	 eax, DWORD PTR _crc$20[ebp]
; File D:\git\src\IBK\IBK_DRFN\ProjSrc\SrcDrfn\Chart\Common_ST\STGfxOutBarCtrl.cpp

; 1383 : 			bLooping = false;

  0065f	c6 86 e0 00 00
	00 00		 mov	 BYTE PTR [esi+224], 0
; File C:\Program Files (x86)\Microsoft Visual Studio\2019\Community\VC\Tools\MSVC\14.29.30133\atlmfc\include\afxwin2.inl

; 86   : 	{ ASSERT(::IsWindow(m_hWnd)); ::GetClientRect(m_hWnd, lpRect); }

  00666	50		 push	 eax
  00667	ff 76 20	 push	 DWORD PTR [esi+32]
  0066a	0f 57 c0	 xorps	 xmm0, xmm0
; File D:\git\src\IBK\IBK_DRFN\ProjSrc\SrcDrfn\Chart\Common_ST\STGfxOutBarCtrl.cpp

; 1384 : 			bDownPressed = false;

  0066d	c6 86 bf 00 00
	00 00		 mov	 BYTE PTR [esi+191], 0

; 1385 : 			bDownArrow = false;

  00674	c6 86 bd 00 00
	00 00		 mov	 BYTE PTR [esi+189], 0
; File C:\Program Files (x86)\Microsoft Visual Studio\2019\Community\VC\Tools\MSVC\14.29.30133\atlmfc\include\atltypes.h

; 528  : 	left = 0;

  0067b	0f 11 45 d0	 movups	 XMMWORD PTR _crc$20[ebp], xmm0
; File C:\Program Files (x86)\Microsoft Visual Studio\2019\Community\VC\Tools\MSVC\14.29.30133\atlmfc\include\afxwin2.inl

; 86   : 	{ ASSERT(::IsWindow(m_hWnd)); ::GetClientRect(m_hWnd, lpRect); }

  0067f	ff 15 00 00 00
	00		 call	 DWORD PTR __imp__GetClientRect@8
; File C:\Program Files (x86)\Microsoft Visual Studio\2019\Community\VC\Tools\MSVC\14.29.30133\atlmfc\include\atltypes.h

; 698  : 	::InflateRect(this, -x, -y);

  00685	6a fc		 push	 -4			; fffffffcH
  00687	6a fc		 push	 -4			; fffffffcH
  00689	8d 45 d0	 lea	 eax, DWORD PTR _crc$20[ebp]
  0068c	50		 push	 eax
  0068d	ff 15 00 00 00
	00		 call	 DWORD PTR __imp__InflateRect@12
; File D:\git\src\IBK\IBK_DRFN\ProjSrc\SrcDrfn\Chart\Common_ST\STGfxOutBarCtrl.cpp

; 811  : 	if (arFolder.GetSize() > 0)

  00693	8b be 08 01 00
	00		 mov	 edi, DWORD PTR [esi+264]
  00699	85 ff		 test	 edi, edi
  0069b	0f 8e 9b 00 00
	00		 jle	 $LN231@OnLButtonD

; 812  : 	{
; 813  : 		int max = arFolder.GetSize();
; 814  : 		rect.top += iFolderHeight * (iSelFolder + 1); + 1;//+ 2;

  006a1	8b 96 30 01 00
	00		 mov	 edx, DWORD PTR [esi+304]

; 815  : 		if(iSelFolder == arFolder.GetSize() - 1)

  006a7	2b fa		 sub	 edi, edx
  006a9	8b 8e a0 00 00
	00		 mov	 ecx, DWORD PTR [esi+160]
  006af	4f		 dec	 edi
  006b0	0f af f9	 imul	 edi, ecx
  006b3	8d 42 01	 lea	 eax, DWORD PTR [edx+1]
  006b6	0f af c1	 imul	 eax, ecx
  006b9	01 45 d4	 add	 DWORD PTR _crc$20[ebp+4], eax
  006bc	8b 86 08 01 00
	00		 mov	 eax, DWORD PTR [esi+264]
  006c2	48		 dec	 eax
  006c3	3b d0		 cmp	 edx, eax
  006c5	75 6c		 jne	 SHORT $LN232@OnLButtonD

; 816  : 			rect.bottom -= (max - iSelFolder - 1)*iFolderHeight + 1;

  006c7	83 c8 ff	 or	 eax, -1
  006ca	2b c7		 sub	 eax, edi
  006cc	01 45 dc	 add	 DWORD PTR _crc$20[ebp+12], eax
  006cf	eb 65		 jmp	 SHORT $LN233@OnLButtonD
$LN195@OnLButtonD:
; File C:\Program Files (x86)\Microsoft Visual Studio\2019\Community\VC\Tools\MSVC\14.29.30133\atlmfc\include\afxcoll.inl

; 203  : 		if( nIndex < 0 || nIndex >= m_nSize )

  006d1	85 c9		 test	 ecx, ecx
  006d3	0f 88 41 03 00
	00		 js	 $LN199@OnLButtonD
  006d9	3b c8		 cmp	 ecx, eax
  006db	0f 8d 39 03 00
	00		 jge	 $LN199@OnLButtonD

; 204  : 			AfxThrowInvalidArgException();
; 205  : 		return m_pData[nIndex]; }

  006e1	8b 86 04 01 00
	00		 mov	 eax, DWORD PTR [esi+260]
  006e7	8b 04 88	 mov	 eax, DWORD PTR [eax+ecx*4]
; File D:\git\src\IBK\IBK_DRFN\ProjSrc\SrcDrfn\Chart\Common_ST\STGfxOutBarCtrl.cpp

; 1534 : 	return 	pbf->GetItemCount();

  006ea	8b 40 1c	 mov	 eax, DWORD PTR [eax+28]
$LN194@OnLButtonD:

; 1326 : 						{
; 1327 : 							CRect itrc;
; 1328 : 							GetItemRect(iSelFolder, GetItemCount() - 1, itrc);

  006ed	8d 55 c0	 lea	 edx, DWORD PTR _itrc$15[ebp]
  006f0	48		 dec	 eax
  006f1	52		 push	 edx
  006f2	50		 push	 eax
  006f3	51		 push	 ecx
  006f4	8b ce		 mov	 ecx, esi
  006f6	e8 00 00 00 00	 call	 ?GetItemRect@CSTGfxOutBarCtrl@@QAEXHHAAVCRect@@@Z ; CSTGfxOutBarCtrl::GetItemRect

; 1330 : 							GetInsideRect(crc);

  006fb	8d 45 e0	 lea	 eax, DWORD PTR _crc$25[ebp]
  006fe	0f 57 c0	 xorps	 xmm0, xmm0
  00701	50		 push	 eax
  00702	8b ce		 mov	 ecx, esi
; File C:\Program Files (x86)\Microsoft Visual Studio\2019\Community\VC\Tools\MSVC\14.29.30133\atlmfc\include\atltypes.h

; 528  : 	left = 0;

  00704	0f 11 45 e0	 movups	 XMMWORD PTR _crc$25[ebp], xmm0
; File D:\git\src\IBK\IBK_DRFN\ProjSrc\SrcDrfn\Chart\Common_ST\STGfxOutBarCtrl.cpp

; 1330 : 							GetInsideRect(crc);

  00708	e8 00 00 00 00	 call	 ?GetInsideRect@CSTGfxOutBarCtrl@@QBEXAAVCRect@@@Z ; CSTGfxOutBarCtrl::GetInsideRect

; 1331 : 							if (itrc.bottom > crc.bottom)

  0070d	8b 45 cc	 mov	 eax, DWORD PTR _itrc$15[ebp+12]
  00710	3b 45 ec	 cmp	 eax, DWORD PTR _crc$25[ebp+12]
  00713	0f 8e 2b ff ff
	ff		 jle	 $ExitLoop3$387

; 1332 : 							{
; 1333 : 								iFirstItem ++;

  00719	ff 86 1c 01 00
	00		 inc	 DWORD PTR [esi+284]
; File C:\Program Files (x86)\Microsoft Visual Studio\2019\Community\VC\Tools\MSVC\14.29.30133\atlmfc\include\afxwin2.inl

; 116  : 	{ ASSERT(::IsWindow(m_hWnd)); ::InvalidateRect(m_hWnd, lpRect, bErase); }

  0071f	8d 45 e0	 lea	 eax, DWORD PTR _crc$25[ebp]
  00722	6a 01		 push	 1
  00724	50		 push	 eax
  00725	ff 76 20	 push	 DWORD PTR [esi+32]
  00728	ff 15 00 00 00
	00		 call	 DWORD PTR __imp__InvalidateRect@12
  0072e	e9 11 ff ff ff	 jmp	 $ExitLoop3$387
$LN232@OnLButtonD:
; File D:\git\src\IBK\IBK_DRFN\ProjSrc\SrcDrfn\Chart\Common_ST\STGfxOutBarCtrl.cpp

; 818  : 			rect.bottom -= (max - iSelFolder - 1)*iFolderHeight;

  00733	29 7d dc	 sub	 DWORD PTR _crc$20[ebp+12], edi
$LN233@OnLButtonD:

; 819  : 		
; 820  : 		rect.left += 1;//+ 2;

  00736	ff 45 d0	 inc	 DWORD PTR _crc$20[ebp]

; 821  : 		rect.right -= 1;

  00739	ff 4d d8	 dec	 DWORD PTR _crc$20[ebp+8]
$LN231@OnLButtonD:
; File C:\Program Files (x86)\Microsoft Visual Studio\2019\Community\VC\Tools\MSVC\14.29.30133\atlmfc\include\afxwin2.inl

; 116  : 	{ ASSERT(::IsWindow(m_hWnd)); ::InvalidateRect(m_hWnd, lpRect, bErase); }

  0073c	6a 01		 push	 1
  0073e	8d 45 d0	 lea	 eax, DWORD PTR _crc$20[ebp]
  00741	50		 push	 eax
  00742	ff 76 20	 push	 DWORD PTR [esi+32]
  00745	ff 15 00 00 00
	00		 call	 DWORD PTR __imp__InvalidateRect@12
; File D:\git\src\IBK\IBK_DRFN\ProjSrc\SrcDrfn\Chart\Common_ST\STGfxOutBarCtrl.cpp

; 1389 : 		}

  0074b	8d 8d 48 ff ff
	ff		 lea	 ecx, DWORD PTR _dc$2[ebp]
  00751	e9 94 02 00 00	 jmp	 $LN383@OnLButtonD
$LN59@OnLButtonD:

; 1390 : 	}
; 1391 : 
; 1392 : 	if (ht == htUpScroll)

  00756	83 ff 02	 cmp	 edi, 2
  00759	0f 85 97 02 00
	00		 jne	 $LN78@OnLButtonD

; 1393 : 	{
; 1394 : 		bLooping = true;
; 1395 : 		bool bHigh = true;
; 1396 : 
; 1397 : 		if (::GetCapture() == NULL)

  0075f	8b 3d 00 00 00
	00		 mov	 edi, DWORD PTR __imp__GetCapture@0
  00765	c6 86 e0 00 00
	00 01		 mov	 BYTE PTR [esi+224], 1
  0076c	ff d7		 call	 edi
  0076e	85 c0		 test	 eax, eax
  00770	0f 85 80 02 00
	00		 jne	 $LN78@OnLButtonD
; File C:\Program Files (x86)\Microsoft Visual Studio\2019\Community\VC\Tools\MSVC\14.29.30133\atlmfc\include\afxwin2.inl

; 163  : 	{ ASSERT(::IsWindow(m_hWnd)); return CWnd::FromHandle(::SetCapture(m_hWnd)); }

  00776	ff 76 20	 push	 DWORD PTR [esi+32]
  00779	ff 15 00 00 00
	00		 call	 DWORD PTR __imp__SetCapture@4
  0077f	50		 push	 eax
  00780	e8 00 00 00 00	 call	 ?FromHandle@CWnd@@SGPAV1@PAUHWND__@@@Z ; CWnd::FromHandle
; File D:\git\src\IBK\IBK_DRFN\ProjSrc\SrcDrfn\Chart\Common_ST\STGfxOutBarCtrl.cpp

; 1401 : 			CClientDC dc(this);

  00785	56		 push	 esi
  00786	8d 8d 64 ff ff
	ff		 lea	 ecx, DWORD PTR _dc$6[ebp]
  0078c	e8 00 00 00 00	 call	 ??0CClientDC@@QAE@PAVCWnd@@@Z ; CClientDC::CClientDC
; File C:\Program Files (x86)\Microsoft Visual Studio\2019\Community\VC\Tools\MSVC\14.29.30133\atlmfc\include\afxwin1.inl

; 512  : 	{ ASSERT(m_hDC != NULL); return ::DrawFrameControl(m_hDC, lpRect, nType, nState); }

  00791	68 00 02 00 00	 push	 512			; 00000200H
  00796	6a 03		 push	 3
; File D:\git\src\IBK\IBK_DRFN\ProjSrc\SrcDrfn\Chart\Common_ST\STGfxOutBarCtrl.cpp

; 1402 : 			dc.DrawFrameControl(rcUpArrow, DFC_SCROLL, DFCS_SCROLLUP|DFCS_PUSHED);

  00798	8d 86 c0 00 00
	00		 lea	 eax, DWORD PTR [esi+192]
  0079e	c7 45 fc 03 00
	00 00		 mov	 DWORD PTR __$EHRec$[ebp+8], 3
; File C:\Program Files (x86)\Microsoft Visual Studio\2019\Community\VC\Tools\MSVC\14.29.30133\atlmfc\include\afxwin1.inl

; 512  : 	{ ASSERT(m_hDC != NULL); return ::DrawFrameControl(m_hDC, lpRect, nType, nState); }

  007a5	50		 push	 eax
  007a6	ff b5 68 ff ff
	ff		 push	 DWORD PTR _dc$6[ebp+4]
  007ac	ff 15 00 00 00
	00		 call	 DWORD PTR __imp__DrawFrameControl@16
; File C:\Program Files (x86)\Microsoft Visual Studio\2019\Community\VC\Tools\MSVC\14.29.30133\atlmfc\include\afxwin2.inl

; 152  : 	{ ASSERT(::IsWindow(m_hWnd)); return ::SetTimer(m_hWnd, nIDEvent, nElapse,

  007b2	6a 00		 push	 0
  007b4	68 2c 01 00 00	 push	 300			; 0000012cH
  007b9	6a 02		 push	 2
  007bb	ff 76 20	 push	 DWORD PTR [esi+32]
  007be	ff 15 00 00 00
	00		 call	 DWORD PTR __imp__SetTimer@16
; File D:\git\src\IBK\IBK_DRFN\ProjSrc\SrcDrfn\Chart\Common_ST\STGfxOutBarCtrl.cpp

; 1404 : 			AfxLockTempMaps();

  007c4	e8 00 00 00 00	 call	 ?AfxLockTempMaps@@YGXXZ	; AfxLockTempMaps

; 1405 : 			for (;;)
; 1406 : 			{
; 1407 : 				MSG msg;
; 1408 : 				VERIFY(::GetMessage(&msg, NULL, 0, 0));

  007c9	6a 00		 push	 0
  007cb	6a 00		 push	 0
  007cd	6a 00		 push	 0
  007cf	8d 85 78 ff ff
	ff		 lea	 eax, DWORD PTR _msg$7[ebp]
  007d5	50		 push	 eax
  007d6	ff 15 00 00 00
	00		 call	 DWORD PTR __imp__GetMessageA@16
; File C:\Program Files (x86)\Microsoft Visual Studio\2019\Community\VC\Tools\MSVC\14.29.30133\atlmfc\include\afxwin2.inl

; 161  : 	{ return CWnd::FromHandle(::GetCapture()); }

  007dc	ff d7		 call	 edi
  007de	50		 push	 eax
  007df	e8 00 00 00 00	 call	 ?FromHandle@CWnd@@SGPAV1@PAUHWND__@@@Z ; CWnd::FromHandle
; File D:\git\src\IBK\IBK_DRFN\ProjSrc\SrcDrfn\Chart\Common_ST\STGfxOutBarCtrl.cpp

; 1410 : 				if (CWnd::GetCapture() != this) break;

  007e4	3b c6		 cmp	 eax, esi
  007e6	0f 85 8f 00 00
	00		 jne	 $ExitLoop$388
  007ec	0f 1f 40 00	 npad	 4
$LL17@OnLButtonD:

; 1411 : 
; 1412 : 				switch (msg.message)

  007f0	8b 85 7c ff ff
	ff		 mov	 eax, DWORD PTR _msg$7[ebp+4]
  007f6	2d 00 01 00 00	 sub	 eax, 256		; 00000100H
  007fb	0f 84 90 01 00
	00		 je	 $LN93@OnLButtonD
  00801	83 e8 13	 sub	 eax, 19			; 00000013H
  00804	0f 84 05 01 00
	00		 je	 $LN85@OnLButtonD
  0080a	2d ef 00 00 00	 sub	 eax, 239		; 000000efH
  0080f	0f 85 82 01 00
	00		 jne	 $LN94@OnLButtonD
; File C:\Program Files (x86)\Microsoft Visual Studio\2019\Community\VC\Tools\MSVC\14.29.30133\atlmfc\include\afxwin1.inl

; 512  : 	{ ASSERT(m_hDC != NULL); return ::DrawFrameControl(m_hDC, lpRect, nType, nState); }

  00815	50		 push	 eax
  00816	6a 03		 push	 3
  00818	8d be c0 00 00
	00		 lea	 edi, DWORD PTR [esi+192]
  0081e	57		 push	 edi
  0081f	ff b5 68 ff ff
	ff		 push	 DWORD PTR _dc$6[ebp+4]
  00825	ff 15 00 00 00
	00		 call	 DWORD PTR __imp__DrawFrameControl@16
; File C:\Program Files (x86)\Microsoft Visual Studio\2019\Community\VC\Tools\MSVC\14.29.30133\atlmfc\include\atltypes.h

; 424  : 	x = (short)LOWORD(dwPoint);

  0082b	8b 45 84	 mov	 eax, DWORD PTR _msg$7[ebp+12]
  0082e	0f bf c8	 movsx	 ecx, ax

; 425  : 	y = (short)HIWORD(dwPoint);

  00831	c1 e8 10	 shr	 eax, 16			; 00000010H
  00834	98		 cwde

; 648  : 	return ::PtInRect(this, point);

  00835	50		 push	 eax
  00836	51		 push	 ecx
  00837	57		 push	 edi
; File D:\git\src\IBK\IBK_DRFN\ProjSrc\SrcDrfn\Chart\Common_ST\STGfxOutBarCtrl.cpp

; 1448 : 						bUpArrow = false;

  00838	c6 86 bc 00 00
	00 00		 mov	 BYTE PTR [esi+188], 0
; File C:\Program Files (x86)\Microsoft Visual Studio\2019\Community\VC\Tools\MSVC\14.29.30133\atlmfc\include\atltypes.h

; 648  : 	return ::PtInRect(this, point);

  0083f	ff 15 00 00 00
	00		 call	 DWORD PTR __imp__PtInRect@12
; File D:\git\src\IBK\IBK_DRFN\ProjSrc\SrcDrfn\Chart\Common_ST\STGfxOutBarCtrl.cpp

; 1450 : 						if (rcUpArrow.PtInRect(pt))

  00845	85 c0		 test	 eax, eax
  00847	74 32		 je	 SHORT $ExitLoop$388

; 1451 : 						{
; 1452 : 							if (iFirstItem > 0 ) 

  00849	8b 86 1c 01 00
	00		 mov	 eax, DWORD PTR [esi+284]
  0084f	85 c0		 test	 eax, eax
  00851	7e 28		 jle	 SHORT $ExitLoop$388

; 1453 : 							{
; 1454 : 								iFirstItem --;

  00853	48		 dec	 eax
  00854	0f 57 c0	 xorps	 xmm0, xmm0
  00857	89 86 1c 01 00
	00		 mov	 DWORD PTR [esi+284], eax

; 1456 : 								GetInsideRect(crc);

  0085d	8b ce		 mov	 ecx, esi
  0085f	8d 45 d0	 lea	 eax, DWORD PTR _crc$19[ebp]
  00862	50		 push	 eax
; File C:\Program Files (x86)\Microsoft Visual Studio\2019\Community\VC\Tools\MSVC\14.29.30133\atlmfc\include\atltypes.h

; 528  : 	left = 0;

  00863	0f 11 45 d0	 movups	 XMMWORD PTR _crc$19[ebp], xmm0
; File D:\git\src\IBK\IBK_DRFN\ProjSrc\SrcDrfn\Chart\Common_ST\STGfxOutBarCtrl.cpp

; 1456 : 								GetInsideRect(crc);

  00867	e8 00 00 00 00	 call	 ?GetInsideRect@CSTGfxOutBarCtrl@@QBEXAAVCRect@@@Z ; CSTGfxOutBarCtrl::GetInsideRect
; File C:\Program Files (x86)\Microsoft Visual Studio\2019\Community\VC\Tools\MSVC\14.29.30133\atlmfc\include\afxwin2.inl

; 116  : 	{ ASSERT(::IsWindow(m_hWnd)); ::InvalidateRect(m_hWnd, lpRect, bErase); }

  0086c	6a 01		 push	 1
  0086e	8d 45 d0	 lea	 eax, DWORD PTR _crc$19[ebp]
  00871	50		 push	 eax
  00872	ff 76 20	 push	 DWORD PTR [esi+32]
  00875	ff 15 00 00 00
	00		 call	 DWORD PTR __imp__InvalidateRect@12
$ExitLoop$388:

; 155  : 	{ ASSERT(::IsWindow(m_hWnd)); return ::KillTimer(m_hWnd, nIDEvent); }

  0087b	6a 02		 push	 2
  0087d	ff 76 20	 push	 DWORD PTR [esi+32]
  00880	ff 15 00 00 00
	00		 call	 DWORD PTR __imp__KillTimer@8
; File D:\git\src\IBK\IBK_DRFN\ProjSrc\SrcDrfn\Chart\Common_ST\STGfxOutBarCtrl.cpp

; 1500 : 			ReleaseCapture();

  00886	ff 15 00 00 00
	00		 call	 DWORD PTR __imp__ReleaseCapture@0

; 1501 : 			AfxUnlockTempMaps(FALSE);

  0088c	6a 00		 push	 0
  0088e	e8 00 00 00 00	 call	 ?AfxUnlockTempMaps@@YGHH@Z ; AfxUnlockTempMaps
; File C:\Program Files (x86)\Microsoft Visual Studio\2019\Community\VC\Tools\MSVC\14.29.30133\atlmfc\include\afxwin2.inl

; 86   : 	{ ASSERT(::IsWindow(m_hWnd)); ::GetClientRect(m_hWnd, lpRect); }

  00893	8d 45 e0	 lea	 eax, DWORD PTR _crc$23[ebp]
; File D:\git\src\IBK\IBK_DRFN\ProjSrc\SrcDrfn\Chart\Common_ST\STGfxOutBarCtrl.cpp

; 1502 : 			bLooping = false;

  00896	c6 86 e0 00 00
	00 00		 mov	 BYTE PTR [esi+224], 0
; File C:\Program Files (x86)\Microsoft Visual Studio\2019\Community\VC\Tools\MSVC\14.29.30133\atlmfc\include\afxwin2.inl

; 86   : 	{ ASSERT(::IsWindow(m_hWnd)); ::GetClientRect(m_hWnd, lpRect); }

  0089d	50		 push	 eax
  0089e	ff 76 20	 push	 DWORD PTR [esi+32]
  008a1	0f 57 c0	 xorps	 xmm0, xmm0
; File D:\git\src\IBK\IBK_DRFN\ProjSrc\SrcDrfn\Chart\Common_ST\STGfxOutBarCtrl.cpp

; 1503 : 			bUpPressed = false;

  008a4	c6 86 be 00 00
	00 00		 mov	 BYTE PTR [esi+190], 0

; 1504 : 			bUpArrow = false;

  008ab	c6 86 bc 00 00
	00 00		 mov	 BYTE PTR [esi+188], 0
; File C:\Program Files (x86)\Microsoft Visual Studio\2019\Community\VC\Tools\MSVC\14.29.30133\atlmfc\include\atltypes.h

; 528  : 	left = 0;

  008b2	0f 11 45 e0	 movups	 XMMWORD PTR _crc$23[ebp], xmm0
; File C:\Program Files (x86)\Microsoft Visual Studio\2019\Community\VC\Tools\MSVC\14.29.30133\atlmfc\include\afxwin2.inl

; 86   : 	{ ASSERT(::IsWindow(m_hWnd)); ::GetClientRect(m_hWnd, lpRect); }

  008b6	ff 15 00 00 00
	00		 call	 DWORD PTR __imp__GetClientRect@8
; File C:\Program Files (x86)\Microsoft Visual Studio\2019\Community\VC\Tools\MSVC\14.29.30133\atlmfc\include\atltypes.h

; 698  : 	::InflateRect(this, -x, -y);

  008bc	6a fc		 push	 -4			; fffffffcH
  008be	6a fc		 push	 -4			; fffffffcH
  008c0	8d 45 e0	 lea	 eax, DWORD PTR _crc$23[ebp]
  008c3	50		 push	 eax
  008c4	ff 15 00 00 00
	00		 call	 DWORD PTR __imp__InflateRect@12
; File D:\git\src\IBK\IBK_DRFN\ProjSrc\SrcDrfn\Chart\Common_ST\STGfxOutBarCtrl.cpp

; 811  : 	if (arFolder.GetSize() > 0)

  008ca	8b be 08 01 00
	00		 mov	 edi, DWORD PTR [esi+264]
  008d0	85 ff		 test	 edi, edi
  008d2	0f 8e fd 00 00
	00		 jle	 $LN274@OnLButtonD

; 812  : 	{
; 813  : 		int max = arFolder.GetSize();
; 814  : 		rect.top += iFolderHeight * (iSelFolder + 1); + 1;//+ 2;

  008d8	8b 96 30 01 00
	00		 mov	 edx, DWORD PTR [esi+304]

; 815  : 		if(iSelFolder == arFolder.GetSize() - 1)

  008de	2b fa		 sub	 edi, edx
  008e0	8b 8e a0 00 00
	00		 mov	 ecx, DWORD PTR [esi+160]
  008e6	4f		 dec	 edi
  008e7	0f af f9	 imul	 edi, ecx
  008ea	8d 42 01	 lea	 eax, DWORD PTR [edx+1]
  008ed	0f af c1	 imul	 eax, ecx
  008f0	01 45 e4	 add	 DWORD PTR _crc$23[ebp+4], eax
  008f3	8b 86 08 01 00
	00		 mov	 eax, DWORD PTR [esi+264]
  008f9	48		 dec	 eax
  008fa	3b d0		 cmp	 edx, eax
  008fc	0f 85 ca 00 00
	00		 jne	 $LN275@OnLButtonD

; 816  : 			rect.bottom -= (max - iSelFolder - 1)*iFolderHeight + 1;

  00902	83 c8 ff	 or	 eax, -1
  00905	2b c7		 sub	 eax, edi
  00907	01 45 ec	 add	 DWORD PTR _crc$23[ebp+12], eax
  0090a	e9 c0 00 00 00	 jmp	 $LN276@OnLButtonD
$LN85@OnLButtonD:

; 1457 : 								InvalidateRect(crc, true);
; 1458 : 							}
; 1459 : 						}
; 1460 : 					}
; 1461 : 
; 1462 : 					goto ExitLoop;
; 1463 : 
; 1464 : 				case WM_TIMER:
; 1465 : 					{
; 1466 : 						if (msg.wParam == 2)

  0090f	83 7d 80 02	 cmp	 DWORD PTR _msg$7[ebp+8], 2
  00913	0f 85 8b 00 00
	00		 jne	 $LN20@OnLButtonD
; File C:\Program Files (x86)\Microsoft Visual Studio\2019\Community\VC\Tools\MSVC\14.29.30133\atlmfc\include\atltypes.h

; 414  : 	*(POINT*)this = initPt;

  00919	8b 45 8c	 mov	 eax, DWORD PTR _msg$7[ebp+20]
  0091c	8b 4d 90	 mov	 ecx, DWORD PTR _msg$7[ebp+24]
  0091f	89 45 c8	 mov	 DWORD PTR _pt$16[ebp], eax
; File C:\Program Files (x86)\Microsoft Visual Studio\2019\Community\VC\Tools\MSVC\14.29.30133\atlmfc\include\afxwin2.inl

; 94   : 	{ ASSERT(::IsWindow(m_hWnd)); ::ScreenToClient(m_hWnd, lpPoint); }

  00922	8d 45 c8	 lea	 eax, DWORD PTR _pt$16[ebp]
  00925	50		 push	 eax
  00926	ff 76 20	 push	 DWORD PTR [esi+32]
; File C:\Program Files (x86)\Microsoft Visual Studio\2019\Community\VC\Tools\MSVC\14.29.30133\atlmfc\include\atltypes.h

; 414  : 	*(POINT*)this = initPt;

  00929	89 4d cc	 mov	 DWORD PTR _pt$16[ebp+4], ecx
; File C:\Program Files (x86)\Microsoft Visual Studio\2019\Community\VC\Tools\MSVC\14.29.30133\atlmfc\include\afxwin2.inl

; 94   : 	{ ASSERT(::IsWindow(m_hWnd)); ::ScreenToClient(m_hWnd, lpPoint); }

  0092c	ff 15 00 00 00
	00		 call	 DWORD PTR __imp__ScreenToClient@8
; File C:\Program Files (x86)\Microsoft Visual Studio\2019\Community\VC\Tools\MSVC\14.29.30133\atlmfc\include\atltypes.h

; 648  : 	return ::PtInRect(this, point);

  00932	ff 75 cc	 push	 DWORD PTR _pt$16[ebp+4]
  00935	8d 86 c0 00 00
	00		 lea	 eax, DWORD PTR [esi+192]
  0093b	ff 75 c8	 push	 DWORD PTR _pt$16[ebp]
  0093e	50		 push	 eax
  0093f	ff 15 00 00 00
	00		 call	 DWORD PTR __imp__PtInRect@12
; File D:\git\src\IBK\IBK_DRFN\ProjSrc\SrcDrfn\Chart\Common_ST\STGfxOutBarCtrl.cpp

; 1472 : 								if (rcUpArrow.PtInRect(pt))

  00945	85 c0		 test	 eax, eax
  00947	74 3f		 je	 SHORT $LN88@OnLButtonD

; 1473 : 								{
; 1474 : 									bUpPressed = true;
; 1475 : 									if (iFirstItem > 0) 

  00949	8b 86 1c 01 00
	00		 mov	 eax, DWORD PTR [esi+284]
  0094f	c6 86 be 00 00
	00 01		 mov	 BYTE PTR [esi+190], 1
  00956	85 c0		 test	 eax, eax
  00958	0f 8e 1d ff ff
	ff		 jle	 $ExitLoop$388

; 1476 : 									{
; 1477 : 										iFirstItem --;

  0095e	48		 dec	 eax
  0095f	0f 57 c0	 xorps	 xmm0, xmm0
  00962	89 86 1c 01 00
	00		 mov	 DWORD PTR [esi+284], eax

; 1478 : 										CRect crc;
; 1479 : 										GetInsideRect(crc);

  00968	8b ce		 mov	 ecx, esi
  0096a	8d 45 b0	 lea	 eax, DWORD PTR _crc$13[ebp]
  0096d	50		 push	 eax
  0096e	0f 11 45 b0	 movups	 XMMWORD PTR _crc$13[ebp], xmm0
  00972	e8 00 00 00 00	 call	 ?GetInsideRect@CSTGfxOutBarCtrl@@QBEXAAVCRect@@@Z ; CSTGfxOutBarCtrl::GetInsideRect
; File C:\Program Files (x86)\Microsoft Visual Studio\2019\Community\VC\Tools\MSVC\14.29.30133\atlmfc\include\afxwin2.inl

; 116  : 	{ ASSERT(::IsWindow(m_hWnd)); ::InvalidateRect(m_hWnd, lpRect, bErase); }

  00977	6a 01		 push	 1
  00979	8d 45 b0	 lea	 eax, DWORD PTR _crc$13[ebp]
  0097c	50		 push	 eax
  0097d	ff 76 20	 push	 DWORD PTR [esi+32]
  00980	ff 15 00 00 00
	00		 call	 DWORD PTR __imp__InvalidateRect@12
; File D:\git\src\IBK\IBK_DRFN\ProjSrc\SrcDrfn\Chart\Common_ST\STGfxOutBarCtrl.cpp

; 1483 : 								}

  00986	eb 1c		 jmp	 SHORT $LN20@OnLButtonD
$LN88@OnLButtonD:

; 1484 : 								else bUpPressed = false;

  00988	c6 86 be 00 00
	00 00		 mov	 BYTE PTR [esi+190], 0

; 1485 : 							}
; 1486 : 						}
; 1487 : 						break;

  0098f	eb 13		 jmp	 SHORT $LN20@OnLButtonD
$LN93@OnLButtonD:

; 1488 : 					}
; 1489 : 				case WM_KEYDOWN:	
; 1490 : 					if (msg.wParam != VK_ESCAPE) break;

  00991	83 7d 80 1b	 cmp	 DWORD PTR _msg$7[ebp+8], 27 ; 0000001bH
  00995	75 0d		 jne	 SHORT $LN20@OnLButtonD
$LN94@OnLButtonD:

; 1491 : 
; 1492 : 				default:
; 1493 : 					DispatchMessage(&msg);

  00997	8d 85 78 ff ff
	ff		 lea	 eax, DWORD PTR _msg$7[ebp]
  0099d	50		 push	 eax
  0099e	ff 15 00 00 00
	00		 call	 DWORD PTR __imp__DispatchMessageA@4
$LN20@OnLButtonD:

; 1405 : 			for (;;)
; 1406 : 			{
; 1407 : 				MSG msg;
; 1408 : 				VERIFY(::GetMessage(&msg, NULL, 0, 0));

  009a4	6a 00		 push	 0
  009a6	6a 00		 push	 0
  009a8	6a 00		 push	 0
  009aa	8d 85 78 ff ff
	ff		 lea	 eax, DWORD PTR _msg$7[ebp]
  009b0	50		 push	 eax
  009b1	ff 15 00 00 00
	00		 call	 DWORD PTR __imp__GetMessageA@16
; File C:\Program Files (x86)\Microsoft Visual Studio\2019\Community\VC\Tools\MSVC\14.29.30133\atlmfc\include\afxwin2.inl

; 161  : 	{ return CWnd::FromHandle(::GetCapture()); }

  009b7	ff d7		 call	 edi
  009b9	50		 push	 eax
  009ba	e8 00 00 00 00	 call	 ?FromHandle@CWnd@@SGPAV1@PAUHWND__@@@Z ; CWnd::FromHandle
; File D:\git\src\IBK\IBK_DRFN\ProjSrc\SrcDrfn\Chart\Common_ST\STGfxOutBarCtrl.cpp

; 1410 : 				if (CWnd::GetCapture() != this) break;

  009bf	3b c6		 cmp	 eax, esi
  009c1	0f 84 29 fe ff
	ff		 je	 $LL17@OnLButtonD
  009c7	e9 af fe ff ff	 jmp	 $ExitLoop$388
$LN275@OnLButtonD:

; 818  : 			rect.bottom -= (max - iSelFolder - 1)*iFolderHeight;

  009cc	29 7d ec	 sub	 DWORD PTR _crc$23[ebp+12], edi
$LN276@OnLButtonD:

; 819  : 		
; 820  : 		rect.left += 1;//+ 2;

  009cf	ff 45 e0	 inc	 DWORD PTR _crc$23[ebp]

; 821  : 		rect.right -= 1;

  009d2	ff 4d e8	 dec	 DWORD PTR _crc$23[ebp+8]
$LN274@OnLButtonD:
; File C:\Program Files (x86)\Microsoft Visual Studio\2019\Community\VC\Tools\MSVC\14.29.30133\atlmfc\include\afxwin2.inl

; 116  : 	{ ASSERT(::IsWindow(m_hWnd)); ::InvalidateRect(m_hWnd, lpRect, bErase); }

  009d5	6a 01		 push	 1
  009d7	8d 45 e0	 lea	 eax, DWORD PTR _crc$23[ebp]
  009da	50		 push	 eax
  009db	ff 76 20	 push	 DWORD PTR [esi+32]
  009de	ff 15 00 00 00
	00		 call	 DWORD PTR __imp__InvalidateRect@12
; File D:\git\src\IBK\IBK_DRFN\ProjSrc\SrcDrfn\Chart\Common_ST\STGfxOutBarCtrl.cpp

; 1508 : 		}

  009e4	8d 8d 64 ff ff
	ff		 lea	 ecx, DWORD PTR _dc$6[ebp]
$LN383@OnLButtonD:
; File C:\Program Files (x86)\Microsoft Visual Studio\2019\Community\VC\Tools\MSVC\14.29.30133\atlmfc\include\afxwin2.inl

; 432  : 	{ Default(); }

  009ea	c7 45 fc ff ff
	ff ff		 mov	 DWORD PTR __$EHRec$[ebp+8], -1
  009f1	e8 00 00 00 00	 call	 ??1CClientDC@@UAE@XZ	; CClientDC::~CClientDC
$LN78@OnLButtonD:
  009f6	8b ce		 mov	 ecx, esi
  009f8	e8 00 00 00 00	 call	 ?Default@CWnd@@IAEJXZ	; CWnd::Default
; File D:\git\src\IBK\IBK_DRFN\ProjSrc\SrcDrfn\Chart\Common_ST\STGfxOutBarCtrl.cpp

; 1512 : }

  009fd	8b 4d f4	 mov	 ecx, DWORD PTR __$EHRec$[ebp]
  00a00	64 89 0d 00 00
	00 00		 mov	 DWORD PTR fs:0, ecx
  00a07	59		 pop	 ecx
  00a08	5f		 pop	 edi
  00a09	5e		 pop	 esi
  00a0a	8b 4d f0	 mov	 ecx, DWORD PTR __$ArrayPad$[ebp]
  00a0d	33 cd		 xor	 ecx, ebp
  00a0f	e8 00 00 00 00	 call	 @__security_check_cookie@4
  00a14	8b e5		 mov	 esp, ebp
  00a16	5d		 pop	 ebp
  00a17	c2 0c 00	 ret	 12			; 0000000cH
$LN199@OnLButtonD:
  00a1a	e8 00 00 00 00	 call	 ?AfxThrowInvalidArgException@@YGXXZ ; AfxThrowInvalidArgException
$LN382@OnLButtonD:
  00a1f	cc		 int	 3
_TEXT	ENDS
;	COMDAT text$x
text$x	SEGMENT
__unwindfunclet$?OnLButtonDown@CSTGfxOutBarCtrl@@IAEXIVCPoint@@@Z$6:
  00000	8d 8d 48 ff ff
	ff		 lea	 ecx, DWORD PTR _dc$4[ebp]
  00006	e9 00 00 00 00	 jmp	 ??1CClientDC@@UAE@XZ	; CClientDC::~CClientDC
__unwindfunclet$?OnLButtonDown@CSTGfxOutBarCtrl@@IAEXIVCPoint@@@Z$7:
  0000b	8d 8d 48 ff ff
	ff		 lea	 ecx, DWORD PTR _dc$3[ebp]
  00011	e9 00 00 00 00	 jmp	 ??1CClientDC@@UAE@XZ	; CClientDC::~CClientDC
__unwindfunclet$?OnLButtonDown@CSTGfxOutBarCtrl@@IAEXIVCPoint@@@Z$8:
  00016	8d 8d 48 ff ff
	ff		 lea	 ecx, DWORD PTR _dc$2[ebp]
  0001c	e9 00 00 00 00	 jmp	 ??1CClientDC@@UAE@XZ	; CClientDC::~CClientDC
__unwindfunclet$?OnLButtonDown@CSTGfxOutBarCtrl@@IAEXIVCPoint@@@Z$9:
  00021	8d 8d 64 ff ff
	ff		 lea	 ecx, DWORD PTR _dc$6[ebp]
  00027	e9 00 00 00 00	 jmp	 ??1CClientDC@@UAE@XZ	; CClientDC::~CClientDC
  0002c	cc		 int	 3
  0002d	cc		 int	 3
  0002e	cc		 int	 3
  0002f	cc		 int	 3
  00030	cc		 int	 3
__ehhandler$?OnLButtonDown@CSTGfxOutBarCtrl@@IAEXIVCPoint@@@Z:
  00031	90		 npad	 1
  00032	90		 npad	 1
  00033	8b 54 24 08	 mov	 edx, DWORD PTR [esp+8]
  00037	8d 42 0c	 lea	 eax, DWORD PTR [edx+12]
  0003a	8b 8a 48 ff ff
	ff		 mov	 ecx, DWORD PTR [edx-184]
  00040	33 c8		 xor	 ecx, eax
  00042	e8 00 00 00 00	 call	 @__security_check_cookie@4
  00047	8b 4a fc	 mov	 ecx, DWORD PTR [edx-4]
  0004a	33 c8		 xor	 ecx, eax
  0004c	e8 00 00 00 00	 call	 @__security_check_cookie@4
  00051	b8 00 00 00 00	 mov	 eax, OFFSET __ehfuncinfo$?OnLButtonDown@CSTGfxOutBarCtrl@@IAEXIVCPoint@@@Z
  00056	e9 00 00 00 00	 jmp	 ___CxxFrameHandler3
text$x	ENDS
?OnLButtonDown@CSTGfxOutBarCtrl@@IAEXIVCPoint@@@Z ENDP	; CSTGfxOutBarCtrl::OnLButtonDown
; Function compile flags: /Ogtp
; File D:\git\src\IBK\IBK_DRFN\ProjSrc\SrcDrfn\Chart\Common_ST\STGfxOutBarCtrl.cpp
; File C:\Program Files (x86)\Microsoft Visual Studio\2019\Community\VC\Tools\MSVC\14.29.30133\atlmfc\include\afxwin2.inl
; File D:\git\src\IBK\IBK_DRFN\ProjSrc\SrcDrfn\Chart\Common_ST\STGfxOutBarCtrl.cpp
;	COMDAT ?OnMouseMove@CSTGfxOutBarCtrl@@IAEXIVCPoint@@@Z
_TEXT	SEGMENT
_nFlags$ = 8						; size = 4
_point$ = 12						; size = 8
?OnMouseMove@CSTGfxOutBarCtrl@@IAEXIVCPoint@@@Z PROC	; CSTGfxOutBarCtrl::OnMouseMove, COMDAT
; _this$ = ecx
; File C:\Program Files (x86)\Microsoft Visual Studio\2019\Community\VC\Tools\MSVC\14.29.30133\atlmfc\include\afxwin2.inl

; 454  : 	{ Default(); }

  00000	e8 00 00 00 00	 call	 ?Default@CWnd@@IAEJXZ	; CWnd::Default
; File D:\git\src\IBK\IBK_DRFN\ProjSrc\SrcDrfn\Chart\Common_ST\STGfxOutBarCtrl.cpp

; 847  : }

  00005	c2 0c 00	 ret	 12			; 0000000cH
?OnMouseMove@CSTGfxOutBarCtrl@@IAEXIVCPoint@@@Z ENDP	; CSTGfxOutBarCtrl::OnMouseMove
_TEXT	ENDS
; Function compile flags: /Ogtp
; File D:\git\src\IBK\IBK_DRFN\ProjSrc\SrcDrfn\Chart\Common_ST\STGfxOutBarCtrl.cpp
;	COMDAT ?OnEraseBkgnd@CSTGfxOutBarCtrl@@IAEHPAVCDC@@@Z
_TEXT	SEGMENT
_pDC$ = 8						; size = 4
?OnEraseBkgnd@CSTGfxOutBarCtrl@@IAEHPAVCDC@@@Z PROC	; CSTGfxOutBarCtrl::OnEraseBkgnd, COMDAT
; _this$ = ecx

; 488  : 	return true;

  00000	b8 01 00 00 00	 mov	 eax, 1

; 489  : }

  00005	c2 04 00	 ret	 4
?OnEraseBkgnd@CSTGfxOutBarCtrl@@IAEHPAVCDC@@@Z ENDP	; CSTGfxOutBarCtrl::OnEraseBkgnd
_TEXT	ENDS
; Function compile flags: /Ogtp
; File D:\git\src\IBK\IBK_DRFN\ProjSrc\SrcDrfn\Chart\Common_ST\STGfxOutBarCtrl.cpp
; File C:\Program Files (x86)\Microsoft Visual Studio\2019\Community\VC\Tools\MSVC\14.29.30133\atlmfc\include\afxwin2.inl
; File C:\Program Files (x86)\Microsoft Visual Studio\2019\Community\VC\Tools\MSVC\14.29.30133\atlmfc\include\atltypes.h
; File C:\Program Files (x86)\Microsoft Visual Studio\2019\Community\VC\Tools\MSVC\14.29.30133\atlmfc\include\afxwin2.inl
; File D:\git\src\IBK\IBK_DRFN\ProjSrc\SrcDrfn\Chart\Common_ST\STGfxOutBarCtrl.cpp
; File C:\Program Files (x86)\Microsoft Visual Studio\2019\Community\VC\Tools\MSVC\14.29.30133\atlmfc\include\afxwin1.inl
; File D:\git\src\IBK\IBK_DRFN\ProjSrc\SrcDrfn\Chart\Common_ST\STGfxOutBarCtrl.cpp
; File C:\Program Files (x86)\Microsoft Visual Studio\2019\Community\VC\Tools\MSVC\14.29.30133\atlmfc\include\afxwin1.inl
; File C:\Program Files (x86)\Microsoft Visual Studio\2019\Community\VC\Tools\MSVC\14.29.30133\atlmfc\include\atltypes.h
; File C:\Program Files (x86)\Microsoft Visual Studio\2019\Community\VC\Tools\MSVC\14.29.30133\atlmfc\include\afxwin1.inl
; File D:\git\src\IBK\IBK_DRFN\ProjSrc\SrcDrfn\Chart\Common_ST\STGfxOutBarCtrl.cpp
; File C:\Program Files (x86)\Microsoft Visual Studio\2019\Community\VC\Tools\MSVC\14.29.30133\atlmfc\include\afxwin1.inl
; File D:\git\src\IBK\IBK_DRFN\ProjSrc\SrcDrfn\Chart\Common_ST\STGfxOutBarCtrl.cpp
; File C:\Program Files (x86)\Microsoft Visual Studio\2019\Community\VC\Tools\MSVC\14.29.30133\atlmfc\include\atltypes.h
; File D:\git\src\IBK\IBK_DRFN\ProjSrc\SrcDrfn\Chart\Common_ST\STGfxOutBarCtrl.cpp
; File C:\Program Files (x86)\Microsoft Visual Studio\2019\Community\VC\Tools\MSVC\14.29.30133\atlmfc\include\afxcoll.inl
; File D:\git\src\IBK\IBK_DRFN\ProjSrc\SrcDrfn\Chart\Common_ST\STGfxOutBarCtrl.cpp
; File C:\Program Files (x86)\Microsoft Visual Studio\2019\Community\VC\Tools\MSVC\14.29.30133\atlmfc\include\atltypes.h
; File D:\git\src\IBK\IBK_DRFN\ProjSrc\SrcDrfn\Chart\Common_ST\STGfxOutBarCtrl.cpp
; File C:\Program Files (x86)\Microsoft Visual Studio\2019\Community\VC\Tools\MSVC\14.29.30133\atlmfc\include\afxcoll.inl
; File D:\git\src\IBK\IBK_DRFN\ProjSrc\SrcDrfn\Chart\Common_ST\STGfxOutBarCtrl.cpp
; File C:\Program Files (x86)\Microsoft Visual Studio\2019\Community\VC\Tools\MSVC\14.29.30133\atlmfc\include\afxwin2.inl
; File D:\git\src\IBK\IBK_DRFN\ProjSrc\SrcDrfn\Chart\Common_ST\STGfxOutBarCtrl.cpp
; File C:\Program Files (x86)\Microsoft Visual Studio\2019\Community\VC\Tools\MSVC\14.29.30133\atlmfc\include\atltypes.h
; File C:\Program Files (x86)\Microsoft Visual Studio\2019\Community\VC\Tools\MSVC\14.29.30133\atlmfc\include\afxwin2.inl
; File C:\Program Files (x86)\Microsoft Visual Studio\2019\Community\VC\Tools\MSVC\14.29.30133\atlmfc\include\atltypes.h
; File D:\git\src\IBK\IBK_DRFN\ProjSrc\SrcDrfn\Chart\Common_ST\STGfxOutBarCtrl.cpp
; File C:\Program Files (x86)\Microsoft Visual Studio\2019\Community\VC\Tools\MSVC\14.29.30133\atlmfc\include\afxcoll.inl
; File D:\git\src\IBK\IBK_DRFN\ProjSrc\SrcDrfn\Chart\Common_ST\STGfxOutBarCtrl.cpp
; File C:\Program Files (x86)\Microsoft Visual Studio\2019\Community\VC\Tools\MSVC\14.29.30133\atlmfc\include\afxcoll.inl
; File D:\git\src\IBK\IBK_DRFN\ProjSrc\SrcDrfn\Chart\Common_ST\STGfxOutBarCtrl.cpp
; File C:\Program Files (x86)\Microsoft Visual Studio\2019\Community\VC\Tools\MSVC\14.29.30133\atlmfc\include\afxcoll.inl
; File D:\git\src\IBK\IBK_DRFN\ProjSrc\SrcDrfn\Chart\Common_ST\STGfxOutBarCtrl.cpp
; File C:\Program Files (x86)\Microsoft Visual Studio\2019\Community\VC\Tools\MSVC\14.29.30133\atlmfc\include\atltypes.h
; File D:\git\src\IBK\IBK_DRFN\ProjSrc\SrcDrfn\Chart\Common_ST\STGfxOutBarCtrl.cpp
; File C:\Program Files (x86)\Microsoft Visual Studio\2019\Community\VC\Tools\MSVC\14.29.30133\atlmfc\include\atltypes.h
; File D:\git\src\IBK\IBK_DRFN\ProjSrc\SrcDrfn\Chart\Common_ST\STGfxOutBarCtrl.cpp
; File C:\Program Files (x86)\Microsoft Visual Studio\2019\Community\VC\Tools\MSVC\14.29.30133\atlmfc\include\atltypes.h
; File D:\git\src\IBK\IBK_DRFN\ProjSrc\SrcDrfn\Chart\Common_ST\STGfxOutBarCtrl.cpp
; File C:\Program Files (x86)\Microsoft Visual Studio\2019\Community\VC\Tools\MSVC\14.29.30133\atlmfc\include\atltypes.h
; File D:\git\src\IBK\IBK_DRFN\ProjSrc\SrcDrfn\Chart\Common_ST\STGfxOutBarCtrl.cpp
; File C:\Program Files (x86)\Microsoft Visual Studio\2019\Community\VC\Tools\MSVC\14.29.30133\atlmfc\include\atltypes.h
; File D:\git\src\IBK\IBK_DRFN\ProjSrc\SrcDrfn\Chart\Common_ST\STGfxOutBarCtrl.cpp
; File C:\Program Files (x86)\Microsoft Visual Studio\2019\Community\VC\Tools\MSVC\14.29.30133\atlmfc\include\atltypes.h
; File D:\git\src\IBK\IBK_DRFN\ProjSrc\SrcDrfn\Chart\Common_ST\STGfxOutBarCtrl.cpp
; File C:\Program Files (x86)\Microsoft Visual Studio\2019\Community\VC\Tools\MSVC\14.29.30133\atlmfc\include\atltypes.h
; File D:\git\src\IBK\IBK_DRFN\ProjSrc\SrcDrfn\Chart\Common_ST\STGfxOutBarCtrl.cpp
; File C:\Program Files (x86)\Microsoft Visual Studio\2019\Community\VC\Tools\MSVC\14.29.30133\atlmfc\include\afxwin1.inl
; File D:\git\src\IBK\IBK_DRFN\ProjSrc\SrcDrfn\Chart\Common_ST\STGfxOutBarCtrl.cpp
; File C:\Program Files (x86)\Microsoft Visual Studio\2019\Community\VC\Tools\MSVC\14.29.30133\atlmfc\include\afxwin1.inl
; File D:\git\src\IBK\IBK_DRFN\ProjSrc\SrcDrfn\Chart\Common_ST\STGfxOutBarCtrl.cpp
; File C:\Program Files (x86)\Microsoft Visual Studio\2019\Community\VC\Tools\MSVC\14.29.30133\atlmfc\include\afxcoll.inl
; File D:\git\src\IBK\IBK_DRFN\ProjSrc\SrcDrfn\Chart\Common_ST\STGfxOutBarCtrl.cpp
; File C:\Program Files (x86)\Microsoft Visual Studio\2019\Community\VC\Tools\MSVC\14.29.30133\atlmfc\include\afxwin1.inl
; File D:\git\src\IBK\IBK_DRFN\ProjSrc\SrcDrfn\Chart\Common_ST\STGfxOutBarCtrl.cpp
; File C:\Program Files (x86)\Microsoft Visual Studio\2019\Community\VC\Tools\MSVC\14.29.30133\atlmfc\include\afxwin1.inl
; File D:\git\src\IBK\IBK_DRFN\ProjSrc\SrcDrfn\Chart\Common_ST\STGfxOutBarCtrl.cpp
; File C:\Program Files (x86)\Microsoft Visual Studio\2019\Community\VC\Tools\MSVC\14.29.30133\atlmfc\include\atltypes.h
; File C:\Program Files (x86)\Microsoft Visual Studio\2019\Community\VC\Tools\MSVC\14.29.30133\atlmfc\include\afxwin1.inl
; File D:\git\src\IBK\IBK_DRFN\ProjSrc\SrcDrfn\Chart\Common_ST\STGfxOutBarCtrl.cpp
; File C:\Program Files (x86)\Microsoft Visual Studio\2019\Community\VC\Tools\MSVC\14.29.30133\atlmfc\include\afxwin1.inl
; File D:\git\src\IBK\IBK_DRFN\ProjSrc\SrcDrfn\Chart\Common_ST\STGfxOutBarCtrl.cpp
;	COMDAT ?OnPaint@CSTGfxOutBarCtrl@@IAEXXZ
_TEXT	SEGMENT
_obmp$1$ = -228						; size = 4
_f$1$ = -224						; size = 4
_pbf$1$ = -220						; size = 4
_bmp$ = -216						; size = 8
_iFolder$1$ = -208					; size = 4
_memDC$ = -204						; size = 16
_max$1$ = -188						; size = 4
tv1182 = -188						; size = 4
$T2 = -184						; size = 4
_l$1$ = -184						; size = 4
_dc$ = -180						; size = 84
_itemRc$3 = -96						; size = 16
_frc$ = -80						; size = 16
_clientRc$ = -64					; size = 16
_rc$ = -48						; size = 16
_rc$4 = -32						; size = 16
__$ArrayPad$ = -16					; size = 4
__$EHRec$ = -12						; size = 12
?OnPaint@CSTGfxOutBarCtrl@@IAEXXZ PROC			; CSTGfxOutBarCtrl::OnPaint, COMDAT
; _this$ = ecx

; 400  : {

  00000	55		 push	 ebp
  00001	8b ec		 mov	 ebp, esp
  00003	6a ff		 push	 -1
  00005	68 00 00 00 00	 push	 __ehhandler$?OnPaint@CSTGfxOutBarCtrl@@IAEXXZ
  0000a	64 a1 00 00 00
	00		 mov	 eax, DWORD PTR fs:0
  00010	50		 push	 eax
  00011	81 ec d8 00 00
	00		 sub	 esp, 216		; 000000d8H
  00017	a1 00 00 00 00	 mov	 eax, DWORD PTR ___security_cookie
  0001c	33 c5		 xor	 eax, ebp
  0001e	89 45 f0	 mov	 DWORD PTR __$ArrayPad$[ebp], eax
  00021	56		 push	 esi
  00022	57		 push	 edi
  00023	50		 push	 eax
  00024	8d 45 f4	 lea	 eax, DWORD PTR __$EHRec$[ebp]
  00027	64 a3 00 00 00
	00		 mov	 DWORD PTR fs:0, eax
  0002d	8b f1		 mov	 esi, ecx
; File C:\Program Files (x86)\Microsoft Visual Studio\2019\Community\VC\Tools\MSVC\14.29.30133\atlmfc\include\afxwin2.inl

; 86   : 	{ ASSERT(::IsWindow(m_hWnd)); ::GetClientRect(m_hWnd, lpRect); }

  0002f	8d 45 c0	 lea	 eax, DWORD PTR _clientRc$[ebp]
  00032	0f 57 c0	 xorps	 xmm0, xmm0
  00035	50		 push	 eax
  00036	ff 76 20	 push	 DWORD PTR [esi+32]
; File C:\Program Files (x86)\Microsoft Visual Studio\2019\Community\VC\Tools\MSVC\14.29.30133\atlmfc\include\atltypes.h

; 528  : 	left = 0;

  00039	0f 11 45 c0	 movups	 XMMWORD PTR _clientRc$[ebp], xmm0
; File C:\Program Files (x86)\Microsoft Visual Studio\2019\Community\VC\Tools\MSVC\14.29.30133\atlmfc\include\afxwin2.inl

; 86   : 	{ ASSERT(::IsWindow(m_hWnd)); ::GetClientRect(m_hWnd, lpRect); }

  0003d	ff 15 00 00 00
	00		 call	 DWORD PTR __imp__GetClientRect@8
; File D:\git\src\IBK\IBK_DRFN\ProjSrc\SrcDrfn\Chart\Common_ST\STGfxOutBarCtrl.cpp

; 403  : 	CPaintDC dc(this);

  00043	56		 push	 esi
  00044	8d 8d 4c ff ff
	ff		 lea	 ecx, DWORD PTR _dc$[ebp]
  0004a	e8 00 00 00 00	 call	 ??0CPaintDC@@QAE@PAVCWnd@@@Z ; CPaintDC::CPaintDC

; 404  : 	CDC memDC;

  0004f	8d 8d 34 ff ff
	ff		 lea	 ecx, DWORD PTR _memDC$[ebp]
  00055	c7 45 fc 00 00
	00 00		 mov	 DWORD PTR __$EHRec$[ebp+8], 0
  0005c	e8 00 00 00 00	 call	 ??0CDC@@QAE@XZ		; CDC::CDC
; File C:\Program Files (x86)\Microsoft Visual Studio\2019\Community\VC\Tools\MSVC\14.29.30133\atlmfc\include\afxwin1.inl

; 330  : 	{ return Attach(::CreateCompatibleDC(pDC->GetSafeHdc())); }

  00061	ff b5 50 ff ff
	ff		 push	 DWORD PTR _dc$[ebp+4]
; File D:\git\src\IBK\IBK_DRFN\ProjSrc\SrcDrfn\Chart\Common_ST\STGfxOutBarCtrl.cpp

; 404  : 	CDC memDC;

  00067	c6 45 fc 01	 mov	 BYTE PTR __$EHRec$[ebp+8], 1
; File C:\Program Files (x86)\Microsoft Visual Studio\2019\Community\VC\Tools\MSVC\14.29.30133\atlmfc\include\afxwin1.inl

; 330  : 	{ return Attach(::CreateCompatibleDC(pDC->GetSafeHdc())); }

  0006b	ff 15 00 00 00
	00		 call	 DWORD PTR __imp__CreateCompatibleDC@4
  00071	50		 push	 eax
  00072	8d 8d 34 ff ff
	ff		 lea	 ecx, DWORD PTR _memDC$[ebp]
  00078	e8 00 00 00 00	 call	 ?Attach@CDC@@QAEHPAUHDC__@@@Z ; CDC::Attach

; 70   : 	{ m_hObject = NULL; }

  0007d	c7 85 2c ff ff
	ff 00 00 00 00	 mov	 DWORD PTR _bmp$[ebp+4], 0

; 177  : 	{ }

  00087	c7 85 28 ff ff
	ff 00 00 00 00	 mov	 DWORD PTR _bmp$[ebp], OFFSET ??_7CBitmap@@6B@
; File C:\Program Files (x86)\Microsoft Visual Studio\2019\Community\VC\Tools\MSVC\14.29.30133\atlmfc\include\atltypes.h

; 581  : 	return bottom - top;

  00091	8b 4d cc	 mov	 ecx, DWORD PTR _clientRc$[ebp+12]
  00094	2b 4d c4	 sub	 ecx, DWORD PTR _clientRc$[ebp+4]

; 576  : 	return right - left;

  00097	8b 45 c8	 mov	 eax, DWORD PTR _clientRc$[ebp+8]
  0009a	2b 45 c0	 sub	 eax, DWORD PTR _clientRc$[ebp]
; File C:\Program Files (x86)\Microsoft Visual Studio\2019\Community\VC\Tools\MSVC\14.29.30133\atlmfc\include\afxwin1.inl

; 217  : 	{ return Attach(::CreateCompatibleBitmap(pDC->m_hDC, nWidth, nHeight)); }

  0009d	51		 push	 ecx
  0009e	50		 push	 eax
  0009f	ff b5 50 ff ff
	ff		 push	 DWORD PTR _dc$[ebp+4]
; File D:\git\src\IBK\IBK_DRFN\ProjSrc\SrcDrfn\Chart\Common_ST\STGfxOutBarCtrl.cpp

; 406  : 	CBitmap bmp;

  000a5	c6 45 fc 02	 mov	 BYTE PTR __$EHRec$[ebp+8], 2
; File C:\Program Files (x86)\Microsoft Visual Studio\2019\Community\VC\Tools\MSVC\14.29.30133\atlmfc\include\afxwin1.inl

; 217  : 	{ return Attach(::CreateCompatibleBitmap(pDC->m_hDC, nWidth, nHeight)); }

  000a9	ff 15 00 00 00
	00		 call	 DWORD PTR __imp__CreateCompatibleBitmap@12
  000af	50		 push	 eax
  000b0	8d 8d 28 ff ff
	ff		 lea	 ecx, DWORD PTR _bmp$[ebp]
  000b6	e8 00 00 00 00	 call	 ?Attach@CGdiObject@@QAEHPAX@Z ; CGdiObject::Attach

; 361  : 	{ ASSERT(m_hDC != NULL); return (CBitmap*) SelectGdiObject(m_hDC, pBitmap->GetSafeHandle()); }

  000bb	ff b5 2c ff ff
	ff		 push	 DWORD PTR _bmp$[ebp+4]
  000c1	ff b5 38 ff ff
	ff		 push	 DWORD PTR _memDC$[ebp+4]
  000c7	e8 00 00 00 00	 call	 ?SelectGdiObject@CDC@@KGPAVCGdiObject@@PAUHDC__@@PAX@Z ; CDC::SelectGdiObject
; File D:\git\src\IBK\IBK_DRFN\ProjSrc\SrcDrfn\Chart\Common_ST\STGfxOutBarCtrl.cpp

; 408  : 	CBitmap * obmp = memDC.SelectObject(&bmp);

  000cc	89 85 1c ff ff
	ff		 mov	 DWORD PTR _obmp$1$[ebp], eax

; 409  : 
; 410  : 	CDC * pDC = &memDC;
; 411  : 
; 412  : 	pDC->FillSolidRect(clientRc, RGB(255,255,255));

  000d2	8d 8d 34 ff ff
	ff		 lea	 ecx, DWORD PTR _memDC$[ebp]
  000d8	68 ff ff ff 00	 push	 16777215		; 00ffffffH
  000dd	8d 45 c0	 lea	 eax, DWORD PTR _clientRc$[ebp]
  000e0	50		 push	 eax
  000e1	e8 00 00 00 00	 call	 ?FillSolidRect@CDC@@QAEXPBUtagRECT@@K@Z ; CDC::FillSolidRect

; 413  : 	pDC->Draw3dRect(clientRc, RGB(120,120,120), RGB(120,120,120));

  000e6	68 78 78 78 00	 push	 7895160			; 00787878H
  000eb	68 78 78 78 00	 push	 7895160			; 00787878H
  000f0	8d 45 c0	 lea	 eax, DWORD PTR _clientRc$[ebp]
  000f3	50		 push	 eax
  000f4	8d 8d 34 ff ff
	ff		 lea	 ecx, DWORD PTR _memDC$[ebp]
  000fa	e8 00 00 00 00	 call	 ?Draw3dRect@CDC@@QAEXPBUtagRECT@@KK@Z ; CDC::Draw3dRect

; 416  : 	GetInsideRect(rc);

  000ff	8d 45 d0	 lea	 eax, DWORD PTR _rc$[ebp]
  00102	0f 57 c0	 xorps	 xmm0, xmm0
  00105	50		 push	 eax
  00106	8b ce		 mov	 ecx, esi
; File C:\Program Files (x86)\Microsoft Visual Studio\2019\Community\VC\Tools\MSVC\14.29.30133\atlmfc\include\atltypes.h

; 528  : 	left = 0;

  00108	0f 11 45 d0	 movups	 XMMWORD PTR _rc$[ebp], xmm0
; File D:\git\src\IBK\IBK_DRFN\ProjSrc\SrcDrfn\Chart\Common_ST\STGfxOutBarCtrl.cpp

; 416  : 	GetInsideRect(rc);

  0010c	e8 00 00 00 00	 call	 ?GetInsideRect@CSTGfxOutBarCtrl@@QBEXAAVCRect@@@Z ; CSTGfxOutBarCtrl::GetInsideRect

; 417  : 	pDC->FillSolidRect(rc, RGB(255,255,255));

  00111	68 ff ff ff 00	 push	 16777215		; 00ffffffH
  00116	8d 45 d0	 lea	 eax, DWORD PTR _rc$[ebp]
  00119	50		 push	 eax
  0011a	8d 8d 34 ff ff
	ff		 lea	 ecx, DWORD PTR _memDC$[ebp]
  00120	e8 00 00 00 00	 call	 ?FillSolidRect@CDC@@QAEXPBUtagRECT@@K@Z ; CDC::FillSolidRect

; 2540 : 	if (GetFolderCount())

  00125	8b 8e 08 01 00
	00		 mov	 ecx, DWORD PTR [esi+264]
  0012b	89 8d 48 ff ff
	ff		 mov	 DWORD PTR $T2[ebp], ecx
  00131	85 c9		 test	 ecx, ecx
  00133	74 25		 je	 SHORT $LN161@OnPaint

; 2541 : 	{
; 2542 : 		if (iFolder < 0) iFolder = iSelFolder;

  00135	8b 96 30 01 00
	00		 mov	 edx, DWORD PTR [esi+304]
; File C:\Program Files (x86)\Microsoft Visual Studio\2019\Community\VC\Tools\MSVC\14.29.30133\atlmfc\include\afxcoll.inl

; 203  : 		if( nIndex < 0 || nIndex >= m_nSize )

  0013b	85 d2		 test	 edx, edx
  0013d	0f 88 59 04 00
	00		 js	 $LN98@OnPaint
  00143	3b d1		 cmp	 edx, ecx
  00145	0f 8d 51 04 00
	00		 jge	 $LN98@OnPaint
; File D:\git\src\IBK\IBK_DRFN\ProjSrc\SrcDrfn\Chart\Common_ST\STGfxOutBarCtrl.cpp

; 418  : 	if (!GetFolderChild()) pDC->FillSolidRect(rc, crBackGroundColor);

  0014b	8b 86 04 01 00
	00		 mov	 eax, DWORD PTR [esi+260]
  00151	8b 04 90	 mov	 eax, DWORD PTR [eax+edx*4]
  00154	83 78 28 00	 cmp	 DWORD PTR [eax+40], 0
  00158	75 21		 jne	 SHORT $LN162@OnPaint
$LN161@OnPaint:
  0015a	ff b6 80 00 00
	00		 push	 DWORD PTR [esi+128]
  00160	8d 45 d0	 lea	 eax, DWORD PTR _rc$[ebp]
  00163	50		 push	 eax
  00164	8d 8d 34 ff ff
	ff		 lea	 ecx, DWORD PTR _memDC$[ebp]
  0016a	e8 00 00 00 00	 call	 ?FillSolidRect@CDC@@QAEXPBUtagRECT@@K@Z ; CDC::FillSolidRect
  0016f	8b 8e 08 01 00
	00		 mov	 ecx, DWORD PTR [esi+264]
  00175	89 8d 48 ff ff
	ff		 mov	 DWORD PTR $T2[ebp], ecx
$LN162@OnPaint:

; 419  : 
; 420  : 
; 421  : 	int max = arFolder.GetSize();

  0017b	0f 57 c0	 xorps	 xmm0, xmm0
  0017e	33 ff		 xor	 edi, edi
; File C:\Program Files (x86)\Microsoft Visual Studio\2019\Community\VC\Tools\MSVC\14.29.30133\atlmfc\include\atltypes.h

; 528  : 	left = 0;

  00180	8b c1		 mov	 eax, ecx
  00182	0f 11 45 b0	 movups	 XMMWORD PTR _frc$[ebp], xmm0
; File D:\git\src\IBK\IBK_DRFN\ProjSrc\SrcDrfn\Chart\Common_ST\STGfxOutBarCtrl.cpp

; 423  : 	for (int t = 0; t < max; t++)

  00186	85 c9		 test	 ecx, ecx
  00188	7e 4e		 jle	 SHORT $LN165@OnPaint
  0018a	66 0f 1f 44 00
	00		 npad	 6
$LL4@OnPaint:

; 424  : 	{
; 425  : 		GetFolderRect(t, frc);

  00190	8d 45 b0	 lea	 eax, DWORD PTR _frc$[ebp]
  00193	8b ce		 mov	 ecx, esi
  00195	50		 push	 eax
  00196	57		 push	 edi
  00197	e8 00 00 00 00	 call	 ?GetFolderRect@CSTGfxOutBarCtrl@@QBE_NHAAVCRect@@@Z ; CSTGfxOutBarCtrl::GetFolderRect

; 426  : 
; 427  : 		if( t == iSelFolder)

  0019c	8b ce		 mov	 ecx, esi
  0019e	0f 10 45 b0	 movups	 xmm0, XMMWORD PTR _frc$[ebp]
  001a2	3b be 30 01 00
	00		 cmp	 edi, DWORD PTR [esi+304]
  001a8	75 04		 jne	 SHORT $LN6@OnPaint

; 428  : 			DrawFolder(pDC, t, frc, TRUE);

  001aa	6a 01		 push	 1
  001ac	eb 02		 jmp	 SHORT $LN166@OnPaint
$LN6@OnPaint:

; 429  : 		else
; 430  : 			DrawFolder(pDC, t, frc, false);

  001ae	6a 00		 push	 0
$LN166@OnPaint:

; 423  : 	for (int t = 0; t < max; t++)

  001b0	83 ec 10	 sub	 esp, 16			; 00000010H
  001b3	8b c4		 mov	 eax, esp
  001b5	57		 push	 edi
  001b6	0f 11 00	 movups	 XMMWORD PTR [eax], xmm0
  001b9	8d 85 34 ff ff
	ff		 lea	 eax, DWORD PTR _memDC$[ebp]
  001bf	50		 push	 eax
  001c0	e8 00 00 00 00	 call	 ?DrawFolder@CSTGfxOutBarCtrl@@IAEXPAVCDC@@HVCRect@@_N@Z ; CSTGfxOutBarCtrl::DrawFolder
  001c5	47		 inc	 edi
  001c6	3b bd 48 ff ff
	ff		 cmp	 edi, DWORD PTR $T2[ebp]
  001cc	7c c2		 jl	 SHORT $LL4@OnPaint

; 2542 : 		if (iFolder < 0) iFolder = iSelFolder;

  001ce	8b 8e 08 01 00
	00		 mov	 ecx, DWORD PTR [esi+264]
  001d4	8b c1		 mov	 eax, ecx

; 2540 : 	if (GetFolderCount())

  001d6	85 c9		 test	 ecx, ecx
$LN165@OnPaint:
  001d8	8b be 30 01 00
	00		 mov	 edi, DWORD PTR [esi+304]
  001de	89 bd 30 ff ff
	ff		 mov	 DWORD PTR _iFolder$1$[ebp], edi
  001e4	74 23		 je	 SHORT $LN159@OnPaint
; File C:\Program Files (x86)\Microsoft Visual Studio\2019\Community\VC\Tools\MSVC\14.29.30133\atlmfc\include\afxcoll.inl

; 203  : 		if( nIndex < 0 || nIndex >= m_nSize )

  001e6	85 ff		 test	 edi, edi
  001e8	0f 88 ae 03 00
	00		 js	 $LN98@OnPaint
  001ee	3b f8		 cmp	 edi, eax
  001f0	0f 8d a6 03 00
	00		 jge	 $LN98@OnPaint
; File D:\git\src\IBK\IBK_DRFN\ProjSrc\SrcDrfn\Chart\Common_ST\STGfxOutBarCtrl.cpp

; 2545 : 		return pbf->pChild;

  001f6	8b 86 04 01 00
	00		 mov	 eax, DWORD PTR [esi+260]
  001fc	8b 04 b8	 mov	 eax, DWORD PTR [eax+edi*4]

; 431  : 	}
; 432  : 	if (!GetFolderChild())

  001ff	83 78 28 00	 cmp	 DWORD PTR [eax+40], 0
  00203	0f 85 c5 02 00
	00		 jne	 $LN8@OnPaint
$LN159@OnPaint:

; 1878 : 	first = iFirstItem;

  00209	8b 86 1c 01 00
	00		 mov	 eax, DWORD PTR [esi+284]
  0020f	0f 57 c0	 xorps	 xmm0, xmm0
  00212	89 85 20 ff ff
	ff		 mov	 DWORD PTR _f$1$[ebp], eax
; File C:\Program Files (x86)\Microsoft Visual Studio\2019\Community\VC\Tools\MSVC\14.29.30133\atlmfc\include\afxwin2.inl

; 86   : 	{ ASSERT(::IsWindow(m_hWnd)); ::GetClientRect(m_hWnd, lpRect); }

  00218	8d 45 e0	 lea	 eax, DWORD PTR _rc$4[ebp]
  0021b	50		 push	 eax
  0021c	ff 76 20	 push	 DWORD PTR [esi+32]
; File D:\git\src\IBK\IBK_DRFN\ProjSrc\SrcDrfn\Chart\Common_ST\STGfxOutBarCtrl.cpp

; 434  : 		int f=0,l=0;

  0021f	c7 85 48 ff ff
	ff 00 00 00 00	 mov	 DWORD PTR _l$1$[ebp], 0
; File C:\Program Files (x86)\Microsoft Visual Studio\2019\Community\VC\Tools\MSVC\14.29.30133\atlmfc\include\atltypes.h

; 528  : 	left = 0;

  00229	0f 11 45 e0	 movups	 XMMWORD PTR _rc$4[ebp], xmm0
; File C:\Program Files (x86)\Microsoft Visual Studio\2019\Community\VC\Tools\MSVC\14.29.30133\atlmfc\include\afxwin2.inl

; 86   : 	{ ASSERT(::IsWindow(m_hWnd)); ::GetClientRect(m_hWnd, lpRect); }

  0022d	ff 15 00 00 00
	00		 call	 DWORD PTR __imp__GetClientRect@8
; File C:\Program Files (x86)\Microsoft Visual Studio\2019\Community\VC\Tools\MSVC\14.29.30133\atlmfc\include\atltypes.h

; 698  : 	::InflateRect(this, -x, -y);

  00233	6a fc		 push	 -4			; fffffffcH
  00235	6a fc		 push	 -4			; fffffffcH
  00237	8d 45 e0	 lea	 eax, DWORD PTR _rc$4[ebp]
  0023a	50		 push	 eax
  0023b	ff 15 00 00 00
	00		 call	 DWORD PTR __imp__InflateRect@12
; File D:\git\src\IBK\IBK_DRFN\ProjSrc\SrcDrfn\Chart\Common_ST\STGfxOutBarCtrl.cpp

; 811  : 	if (arFolder.GetSize() > 0)

  00241	8b 86 08 01 00
	00		 mov	 eax, DWORD PTR [esi+264]
  00247	85 c0		 test	 eax, eax
  00249	7e 63		 jle	 SHORT $LN167@OnPaint

; 812  : 	{
; 813  : 		int max = arFolder.GetSize();
; 814  : 		rect.top += iFolderHeight * (iSelFolder + 1); + 1;//+ 2;

  0024b	8b 96 30 01 00
	00		 mov	 edx, DWORD PTR [esi+304]
  00251	8b 8e a0 00 00
	00		 mov	 ecx, DWORD PTR [esi+160]
  00257	8d 42 01	 lea	 eax, DWORD PTR [edx+1]
  0025a	0f af c1	 imul	 eax, ecx
  0025d	01 45 e4	 add	 DWORD PTR _rc$4[ebp+4], eax

; 815  : 		if(iSelFolder == arFolder.GetSize() - 1)

  00260	8b 86 08 01 00
	00		 mov	 eax, DWORD PTR [esi+264]
  00266	2b c2		 sub	 eax, edx
  00268	48		 dec	 eax
  00269	0f af c1	 imul	 eax, ecx
  0026c	89 85 44 ff ff
	ff		 mov	 DWORD PTR tv1182[ebp], eax
  00272	8b 86 08 01 00
	00		 mov	 eax, DWORD PTR [esi+264]
  00278	48		 dec	 eax
  00279	3b d0		 cmp	 edx, eax
  0027b	75 1a		 jne	 SHORT $LN84@OnPaint

; 819  : 		
; 820  : 		rect.left += 1;//+ 2;

  0027d	ff 45 e0	 inc	 DWORD PTR _rc$4[ebp]
  00280	83 c8 ff	 or	 eax, -1
  00283	2b 85 44 ff ff
	ff		 sub	 eax, DWORD PTR tv1182[ebp]
  00289	01 45 ec	 add	 DWORD PTR _rc$4[ebp+12], eax

; 821  : 		rect.right -= 1;

  0028c	ff 4d e8	 dec	 DWORD PTR _rc$4[ebp+8]
  0028f	8b 86 08 01 00
	00		 mov	 eax, DWORD PTR [esi+264]
  00295	eb 19		 jmp	 SHORT $LN160@OnPaint
$LN84@OnPaint:

; 816  : 			rect.bottom -= (max - iSelFolder - 1)*iFolderHeight + 1;
; 817  : 		else
; 818  : 			rect.bottom -= (max - iSelFolder - 1)*iFolderHeight;

  00297	8b 8d 44 ff ff
	ff		 mov	 ecx, DWORD PTR tv1182[ebp]
  0029d	29 4d ec	 sub	 DWORD PTR _rc$4[ebp+12], ecx

; 819  : 		
; 820  : 		rect.left += 1;//+ 2;

  002a0	ff 45 e0	 inc	 DWORD PTR _rc$4[ebp]

; 821  : 		rect.right -= 1;

  002a3	ff 4d e8	 dec	 DWORD PTR _rc$4[ebp+8]
  002a6	8b 86 08 01 00
	00		 mov	 eax, DWORD PTR [esi+264]
  002ac	eb 02		 jmp	 SHORT $LN160@OnPaint
$LN167@OnPaint:

; 1882 : 	if(arFolder.GetSize()==0) return;

  002ae	74 7d		 je	 SHORT $LN74@OnPaint
$LN160@OnPaint:
; File C:\Program Files (x86)\Microsoft Visual Studio\2019\Community\VC\Tools\MSVC\14.29.30133\atlmfc\include\afxcoll.inl

; 203  : 		if( nIndex < 0 || nIndex >= m_nSize )

  002b0	85 ff		 test	 edi, edi
  002b2	0f 88 e4 02 00
	00		 js	 $LN98@OnPaint
  002b8	3b f8		 cmp	 edi, eax
  002ba	0f 8d dc 02 00
	00		 jge	 $LN98@OnPaint

; 205  : 		return m_pData[nIndex]; }

  002c0	8b 86 04 01 00
	00		 mov	 eax, DWORD PTR [esi+260]
  002c6	8b 04 b8	 mov	 eax, DWORD PTR [eax+edi*4]
; File D:\git\src\IBK\IBK_DRFN\ProjSrc\SrcDrfn\Chart\Common_ST\STGfxOutBarCtrl.cpp

; 1886 : 	for (t = iFirstItem; t < max; t++)

  002c9	8b be 1c 01 00
	00		 mov	 edi, DWORD PTR [esi+284]
; File C:\Program Files (x86)\Microsoft Visual Studio\2019\Community\VC\Tools\MSVC\14.29.30133\atlmfc\include\afxcoll.inl

; 205  : 		return m_pData[nIndex]; }

  002cf	89 85 24 ff ff
	ff		 mov	 DWORD PTR _pbf$1$[ebp], eax
; File D:\git\src\IBK\IBK_DRFN\ProjSrc\SrcDrfn\Chart\Common_ST\STGfxOutBarCtrl.cpp

; 1885 : 	int max = pbf->GetItemCount(), t;

  002d5	8b 48 1c	 mov	 ecx, DWORD PTR [eax+28]
  002d8	89 8d 44 ff ff
	ff		 mov	 DWORD PTR _max$1$[ebp], ecx

; 1886 : 	for (t = iFirstItem; t < max; t++)

  002de	3b f9		 cmp	 edi, ecx
  002e0	7d 4b		 jge	 SHORT $LN74@OnPaint
$LL75@OnPaint:
; File C:\Program Files (x86)\Microsoft Visual Studio\2019\Community\VC\Tools\MSVC\14.29.30133\atlmfc\include\afxcoll.inl

; 203  : 		if( nIndex < 0 || nIndex >= m_nSize )

  002e2	85 ff		 test	 edi, edi
  002e4	0f 88 b2 02 00
	00		 js	 $LN98@OnPaint
  002ea	3b 78 1c	 cmp	 edi, DWORD PTR [eax+28]
  002ed	0f 8d a9 02 00
	00		 jge	 $LN98@OnPaint
; File D:\git\src\IBK\IBK_DRFN\ProjSrc\SrcDrfn\Chart\Common_ST\STGfxOutBarCtrl.cpp

; 1890 : 		GetItemRect(iFolder, t, itemRc);

  002f3	8d 45 a0	 lea	 eax, DWORD PTR _itemRc$3[ebp]
  002f6	0f 57 c0	 xorps	 xmm0, xmm0
  002f9	50		 push	 eax
  002fa	57		 push	 edi
  002fb	ff b5 30 ff ff
	ff		 push	 DWORD PTR _iFolder$1$[ebp]
  00301	8b ce		 mov	 ecx, esi
; File C:\Program Files (x86)\Microsoft Visual Studio\2019\Community\VC\Tools\MSVC\14.29.30133\atlmfc\include\atltypes.h

; 528  : 	left = 0;

  00303	0f 11 45 a0	 movups	 XMMWORD PTR _itemRc$3[ebp], xmm0
; File D:\git\src\IBK\IBK_DRFN\ProjSrc\SrcDrfn\Chart\Common_ST\STGfxOutBarCtrl.cpp

; 1890 : 		GetItemRect(iFolder, t, itemRc);

  00307	e8 00 00 00 00	 call	 ?GetItemRect@CSTGfxOutBarCtrl@@QAEXHHAAVCRect@@@Z ; CSTGfxOutBarCtrl::GetItemRect

; 1891 : 		if (itemRc.bottom > rc.bottom) 

  0030c	8b 45 ac	 mov	 eax, DWORD PTR _itemRc$3[ebp+12]
  0030f	3b 45 ec	 cmp	 eax, DWORD PTR _rc$4[ebp+12]
  00312	0f 8f c1 00 00
	00		 jg	 $LN146@OnPaint

; 1895 : 		}
; 1896 : 		else last = t;

  00318	8b 85 24 ff ff
	ff		 mov	 eax, DWORD PTR _pbf$1$[ebp]
  0031e	89 bd 48 ff ff
	ff		 mov	 DWORD PTR _l$1$[ebp], edi
  00324	47		 inc	 edi
  00325	3b bd 44 ff ff
	ff		 cmp	 edi, DWORD PTR _max$1$[ebp]
  0032b	7c b5		 jl	 SHORT $LL75@OnPaint
$LN74@OnPaint:

; 436  : 		rcUpArrow.SetRect(0,0,GetSystemMetrics(SM_CXVSCROLL), GetSystemMetrics(SM_CXVSCROLL));

  0032d	6a 02		 push	 2
  0032f	ff 15 00 00 00
	00		 call	 DWORD PTR __imp__GetSystemMetrics@4
  00335	6a 02		 push	 2
  00337	8b f8		 mov	 edi, eax
  00339	ff 15 00 00 00
	00		 call	 DWORD PTR __imp__GetSystemMetrics@4
; File C:\Program Files (x86)\Microsoft Visual Studio\2019\Community\VC\Tools\MSVC\14.29.30133\atlmfc\include\atltypes.h

; 657  : 	::SetRect(this, x1, y1, x2, y2);

  0033f	57		 push	 edi
  00340	50		 push	 eax
  00341	6a 00		 push	 0
; File D:\git\src\IBK\IBK_DRFN\ProjSrc\SrcDrfn\Chart\Common_ST\STGfxOutBarCtrl.cpp

; 436  : 		rcUpArrow.SetRect(0,0,GetSystemMetrics(SM_CXVSCROLL), GetSystemMetrics(SM_CXVSCROLL));

  00343	8d 8e c0 00 00
	00		 lea	 ecx, DWORD PTR [esi+192]
; File C:\Program Files (x86)\Microsoft Visual Studio\2019\Community\VC\Tools\MSVC\14.29.30133\atlmfc\include\atltypes.h

; 657  : 	::SetRect(this, x1, y1, x2, y2);

  00349	6a 00		 push	 0
  0034b	51		 push	 ecx
  0034c	ff 15 00 00 00
	00		 call	 DWORD PTR __imp__SetRect@20
; File D:\git\src\IBK\IBK_DRFN\ProjSrc\SrcDrfn\Chart\Common_ST\STGfxOutBarCtrl.cpp

; 437  : 		rcDownArrow = rcUpArrow;

  00352	0f 10 86 c0 00
	00 00		 movups	 xmm0, XMMWORD PTR [esi+192]

; 438  : 		rcUpArrow.OffsetRect(rc.right - 5 - GetSystemMetrics(SM_CXVSCROLL), rc.top +5);

  00359	8b 7d d4	 mov	 edi, DWORD PTR _rc$[ebp+4]
  0035c	6a 02		 push	 2
  0035e	0f 11 86 d0 00
	00 00		 movups	 XMMWORD PTR [esi+208], xmm0
  00365	83 c7 05	 add	 edi, 5
  00368	ff 15 00 00 00
	00		 call	 DWORD PTR __imp__GetSystemMetrics@4
  0036e	8b 4d d8	 mov	 ecx, DWORD PTR _rc$[ebp+8]
  00371	2b c8		 sub	 ecx, eax
; File C:\Program Files (x86)\Microsoft Visual Studio\2019\Community\VC\Tools\MSVC\14.29.30133\atlmfc\include\atltypes.h

; 710  : 	::OffsetRect(this, x, y);

  00373	8d 86 c0 00 00
	00		 lea	 eax, DWORD PTR [esi+192]
  00379	57		 push	 edi
; File D:\git\src\IBK\IBK_DRFN\ProjSrc\SrcDrfn\Chart\Common_ST\STGfxOutBarCtrl.cpp

; 438  : 		rcUpArrow.OffsetRect(rc.right - 5 - GetSystemMetrics(SM_CXVSCROLL), rc.top +5);

  0037a	83 e9 05	 sub	 ecx, 5
; File C:\Program Files (x86)\Microsoft Visual Studio\2019\Community\VC\Tools\MSVC\14.29.30133\atlmfc\include\atltypes.h

; 710  : 	::OffsetRect(this, x, y);

  0037d	51		 push	 ecx
  0037e	50		 push	 eax
  0037f	ff 15 00 00 00
	00		 call	 DWORD PTR __imp__OffsetRect@12
; File D:\git\src\IBK\IBK_DRFN\ProjSrc\SrcDrfn\Chart\Common_ST\STGfxOutBarCtrl.cpp

; 439  : 		rcDownArrow.OffsetRect(rc.right - 5 - GetSystemMetrics(SM_CXVSCROLL), rc.bottom - 5 - GetSystemMetrics(SM_CXVSCROLL));

  00385	6a 02		 push	 2
  00387	ff 15 00 00 00
	00		 call	 DWORD PTR __imp__GetSystemMetrics@4
  0038d	8b 7d dc	 mov	 edi, DWORD PTR _rc$[ebp+12]
  00390	2b f8		 sub	 edi, eax
  00392	6a 02		 push	 2
  00394	83 ef 05	 sub	 edi, 5
  00397	ff 15 00 00 00
	00		 call	 DWORD PTR __imp__GetSystemMetrics@4
  0039d	8b 4d d8	 mov	 ecx, DWORD PTR _rc$[ebp+8]
  003a0	2b c8		 sub	 ecx, eax
; File C:\Program Files (x86)\Microsoft Visual Studio\2019\Community\VC\Tools\MSVC\14.29.30133\atlmfc\include\atltypes.h

; 710  : 	::OffsetRect(this, x, y);

  003a2	8d 86 d0 00 00
	00		 lea	 eax, DWORD PTR [esi+208]
  003a8	57		 push	 edi
; File D:\git\src\IBK\IBK_DRFN\ProjSrc\SrcDrfn\Chart\Common_ST\STGfxOutBarCtrl.cpp

; 439  : 		rcDownArrow.OffsetRect(rc.right - 5 - GetSystemMetrics(SM_CXVSCROLL), rc.bottom - 5 - GetSystemMetrics(SM_CXVSCROLL));

  003a9	83 e9 05	 sub	 ecx, 5
; File C:\Program Files (x86)\Microsoft Visual Studio\2019\Community\VC\Tools\MSVC\14.29.30133\atlmfc\include\atltypes.h

; 710  : 	::OffsetRect(this, x, y);

  003ac	51		 push	 ecx
  003ad	50		 push	 eax
  003ae	ff 15 00 00 00
	00		 call	 DWORD PTR __imp__OffsetRect@12
; File D:\git\src\IBK\IBK_DRFN\ProjSrc\SrcDrfn\Chart\Common_ST\STGfxOutBarCtrl.cpp

; 441  : 		if (f > 0)

  003b4	83 bd 20 ff ff
	ff 00		 cmp	 DWORD PTR _f$1$[ebp], 0
  003bb	8b 3d 00 00 00
	00		 mov	 edi, DWORD PTR __imp__DrawFrameControl@16
  003c1	7e 5b		 jle	 SHORT $LN9@OnPaint

; 443  : 			if (bUpPressed) pDC->DrawFrameControl(rcUpArrow, DFC_SCROLL, DFCS_SCROLLUP|DFCS_PUSHED);

  003c3	80 be be 00 00
	00 00		 cmp	 BYTE PTR [esi+190], 0
  003ca	8d 86 c0 00 00
	00		 lea	 eax, DWORD PTR [esi+192]
  003d0	74 15		 je	 SHORT $LN11@OnPaint
; File C:\Program Files (x86)\Microsoft Visual Studio\2019\Community\VC\Tools\MSVC\14.29.30133\atlmfc\include\afxwin1.inl

; 512  : 	{ ASSERT(m_hDC != NULL); return ::DrawFrameControl(m_hDC, lpRect, nType, nState); }

  003d2	68 00 02 00 00	 push	 512			; 00000200H
; File D:\git\src\IBK\IBK_DRFN\ProjSrc\SrcDrfn\Chart\Common_ST\STGfxOutBarCtrl.cpp

; 443  : 			if (bUpPressed) pDC->DrawFrameControl(rcUpArrow, DFC_SCROLL, DFCS_SCROLLUP|DFCS_PUSHED);

  003d7	eb 10		 jmp	 SHORT $LN168@OnPaint
$LN146@OnPaint:

; 1893 : 			last = t - 1;

  003d9	8d 47 ff	 lea	 eax, DWORD PTR [edi-1]
  003dc	89 85 48 ff ff
	ff		 mov	 DWORD PTR _l$1$[ebp], eax

; 1894 : 			break;

  003e2	e9 46 ff ff ff	 jmp	 $LN74@OnPaint
$LN11@OnPaint:
; File C:\Program Files (x86)\Microsoft Visual Studio\2019\Community\VC\Tools\MSVC\14.29.30133\atlmfc\include\afxwin1.inl

; 512  : 	{ ASSERT(m_hDC != NULL); return ::DrawFrameControl(m_hDC, lpRect, nType, nState); }

  003e7	6a 00		 push	 0
$LN168@OnPaint:
; File D:\git\src\IBK\IBK_DRFN\ProjSrc\SrcDrfn\Chart\Common_ST\STGfxOutBarCtrl.cpp

; 445  : 			bUpArrow = true;

  003e9	6a 03		 push	 3
  003eb	50		 push	 eax
  003ec	ff b5 38 ff ff
	ff		 push	 DWORD PTR _memDC$[ebp+4]
  003f2	ff d7		 call	 edi

; 446  : 			pDC->ExcludeClipRect(rcUpArrow);

  003f4	8d 86 c0 00 00
	00		 lea	 eax, DWORD PTR [esi+192]
  003fa	c6 86 bc 00 00
	00 01		 mov	 BYTE PTR [esi+188], 1
  00401	50		 push	 eax
  00402	8d 8d 34 ff ff
	ff		 lea	 ecx, DWORD PTR _memDC$[ebp]
  00408	e8 00 00 00 00	 call	 ?ExcludeClipRect@CDC@@QAEHPBUtagRECT@@@Z ; CDC::ExcludeClipRect

; 447  : 
; 448  : 			rc.top += (iFolderHeight + iGap);

  0040d	8b 86 64 01 00
	00		 mov	 eax, DWORD PTR [esi+356]
  00413	03 86 a0 00 00
	00		 add	 eax, DWORD PTR [esi+160]
  00419	01 45 d4	 add	 DWORD PTR _rc$[ebp+4], eax

; 449  : 		}

  0041c	eb 07		 jmp	 SHORT $LN10@OnPaint
$LN9@OnPaint:

; 450  : 		else 
; 451  : 			bUpArrow = false;

  0041e	c6 86 bc 00 00
	00 00		 mov	 BYTE PTR [esi+188], 0
$LN10@OnPaint:

; 1531 : 	if(arFolder.GetSize()==0) return 0;

  00425	8b 86 08 01 00
	00		 mov	 eax, DWORD PTR [esi+264]
  0042b	85 c0		 test	 eax, eax
  0042d	74 22		 je	 SHORT $LN112@OnPaint
$LN113@OnPaint:

; 1532 : 	ASSERT(iSelFolder >= 0 && iSelFolder < GetFolderCount());
; 1533 : 	CBarFolder * pbf = (CBarFolder *) arFolder.GetAt(iSelFolder);

  0042f	8b 8e 30 01 00
	00		 mov	 ecx, DWORD PTR [esi+304]
; File C:\Program Files (x86)\Microsoft Visual Studio\2019\Community\VC\Tools\MSVC\14.29.30133\atlmfc\include\afxcoll.inl

; 203  : 		if( nIndex < 0 || nIndex >= m_nSize )

  00435	85 c9		 test	 ecx, ecx
  00437	0f 88 5f 01 00
	00		 js	 $LN98@OnPaint
  0043d	3b c8		 cmp	 ecx, eax
  0043f	0f 8d 57 01 00
	00		 jge	 $LN98@OnPaint
; File D:\git\src\IBK\IBK_DRFN\ProjSrc\SrcDrfn\Chart\Common_ST\STGfxOutBarCtrl.cpp

; 1534 : 	return 	pbf->GetItemCount();

  00445	8b 86 04 01 00
	00		 mov	 eax, DWORD PTR [esi+260]
  0044b	8b 04 88	 mov	 eax, DWORD PTR [eax+ecx*4]
  0044e	8b 40 1c	 mov	 eax, DWORD PTR [eax+28]
$LN112@OnPaint:

; 452  : 
; 453  : 		if (l < GetItemCount() - 1)

  00451	48		 dec	 eax
  00452	39 85 48 ff ff
	ff		 cmp	 DWORD PTR _l$1$[ebp], eax
  00458	7d 4d		 jge	 SHORT $LN13@OnPaint

; 455  : 			if (bDownPressed) pDC->DrawFrameControl(rcDownArrow, DFC_SCROLL, DFCS_SCROLLDOWN|DFCS_PUSHED);

  0045a	80 be bf 00 00
	00 00		 cmp	 BYTE PTR [esi+191], 0
  00461	8d 86 d0 00 00
	00		 lea	 eax, DWORD PTR [esi+208]
  00467	74 07		 je	 SHORT $LN15@OnPaint
; File C:\Program Files (x86)\Microsoft Visual Studio\2019\Community\VC\Tools\MSVC\14.29.30133\atlmfc\include\afxwin1.inl

; 512  : 	{ ASSERT(m_hDC != NULL); return ::DrawFrameControl(m_hDC, lpRect, nType, nState); }

  00469	68 01 02 00 00	 push	 513			; 00000201H
; File D:\git\src\IBK\IBK_DRFN\ProjSrc\SrcDrfn\Chart\Common_ST\STGfxOutBarCtrl.cpp

; 455  : 			if (bDownPressed) pDC->DrawFrameControl(rcDownArrow, DFC_SCROLL, DFCS_SCROLLDOWN|DFCS_PUSHED);

  0046e	eb 02		 jmp	 SHORT $LN169@OnPaint
$LN15@OnPaint:
; File C:\Program Files (x86)\Microsoft Visual Studio\2019\Community\VC\Tools\MSVC\14.29.30133\atlmfc\include\afxwin1.inl

; 512  : 	{ ASSERT(m_hDC != NULL); return ::DrawFrameControl(m_hDC, lpRect, nType, nState); }

  00470	6a 01		 push	 1
$LN169@OnPaint:
; File D:\git\src\IBK\IBK_DRFN\ProjSrc\SrcDrfn\Chart\Common_ST\STGfxOutBarCtrl.cpp

; 457  : 			bDownArrow = true;

  00472	6a 03		 push	 3
  00474	50		 push	 eax
  00475	ff b5 38 ff ff
	ff		 push	 DWORD PTR _memDC$[ebp+4]
  0047b	ff d7		 call	 edi

; 458  : 			pDC->ExcludeClipRect(rcDownArrow);

  0047d	8d 86 d0 00 00
	00		 lea	 eax, DWORD PTR [esi+208]
  00483	c6 86 bd 00 00
	00 01		 mov	 BYTE PTR [esi+189], 1
  0048a	50		 push	 eax
  0048b	8d 8d 34 ff ff
	ff		 lea	 ecx, DWORD PTR _memDC$[ebp]
  00491	e8 00 00 00 00	 call	 ?ExcludeClipRect@CDC@@QAEHPBUtagRECT@@@Z ; CDC::ExcludeClipRect

; 459  : 
; 460  : 			rc.bottom -= (iFolderHeight + iGap);

  00496	8b 86 64 01 00
	00		 mov	 eax, DWORD PTR [esi+356]
  0049c	03 86 a0 00 00
	00		 add	 eax, DWORD PTR [esi+160]
  004a2	29 45 dc	 sub	 DWORD PTR _rc$[ebp+12], eax

; 461  : 		}

  004a5	eb 07		 jmp	 SHORT $LN14@OnPaint
$LN13@OnPaint:

; 462  : 		else bDownArrow = false;

  004a7	c6 86 bd 00 00
	00 00		 mov	 BYTE PTR [esi+189], 0
$LN14@OnPaint:

; 463  : 
; 464  : 		PaintItems(pDC, iSelFolder, rc);

  004ae	0f 10 45 d0	 movups	 xmm0, XMMWORD PTR _rc$[ebp]
  004b2	83 ec 10	 sub	 esp, 16			; 00000010H
  004b5	8b ce		 mov	 ecx, esi
  004b7	8b c4		 mov	 eax, esp
  004b9	ff b6 30 01 00
	00		 push	 DWORD PTR [esi+304]
  004bf	0f 11 00	 movups	 XMMWORD PTR [eax], xmm0
  004c2	8d 85 34 ff ff
	ff		 lea	 eax, DWORD PTR _memDC$[ebp]
  004c8	50		 push	 eax
  004c9	e8 00 00 00 00	 call	 ?PaintItems@CSTGfxOutBarCtrl@@QAEXPAVCDC@@HVCRect@@@Z ; CSTGfxOutBarCtrl::PaintItems
$LN8@OnPaint:
; File C:\Program Files (x86)\Microsoft Visual Studio\2019\Community\VC\Tools\MSVC\14.29.30133\atlmfc\include\atltypes.h

; 581  : 	return bottom - top;

  004ce	8b 55 cc	 mov	 edx, DWORD PTR _clientRc$[ebp+12]
  004d1	8b 7d c4	 mov	 edi, DWORD PTR _clientRc$[ebp+4]
  004d4	2b d7		 sub	 edx, edi

; 576  : 	return right - left;

  004d6	8b 45 c8	 mov	 eax, DWORD PTR _clientRc$[ebp+8]
  004d9	8b 4d c0	 mov	 ecx, DWORD PTR _clientRc$[ebp]
  004dc	2b c1		 sub	 eax, ecx
; File C:\Program Files (x86)\Microsoft Visual Studio\2019\Community\VC\Tools\MSVC\14.29.30133\atlmfc\include\afxwin1.inl

; 552  : 	{ ASSERT(m_hDC != NULL); return ::BitBlt(m_hDC, x, y, nWidth, nHeight,

  004de	68 20 00 cc 00	 push	 13369376		; 00cc0020H
  004e3	6a 00		 push	 0
  004e5	6a 00		 push	 0
  004e7	ff b5 38 ff ff
	ff		 push	 DWORD PTR _memDC$[ebp+4]
  004ed	52		 push	 edx
  004ee	50		 push	 eax
  004ef	57		 push	 edi
  004f0	51		 push	 ecx
  004f1	ff b5 50 ff ff
	ff		 push	 DWORD PTR _dc$[ebp+4]
  004f7	ff 15 00 00 00
	00		 call	 DWORD PTR __imp__BitBlt@36

; 68   : 	{ return this == NULL ? NULL : m_hObject; }

  004fd	8b 85 1c ff ff
	ff		 mov	 eax, DWORD PTR _obmp$1$[ebp]
  00503	85 c0		 test	 eax, eax
  00505	74 03		 je	 SHORT $LN139@OnPaint
$LN138@OnPaint:
  00507	8b 40 04	 mov	 eax, DWORD PTR [eax+4]
$LN139@OnPaint:

; 361  : 	{ ASSERT(m_hDC != NULL); return (CBitmap*) SelectGdiObject(m_hDC, pBitmap->GetSafeHandle()); }

  0050a	50		 push	 eax
  0050b	ff b5 38 ff ff
	ff		 push	 DWORD PTR _memDC$[ebp+4]
  00511	e8 00 00 00 00	 call	 ?SelectGdiObject@CDC@@KGPAVCGdiObject@@PAUHDC__@@PAX@Z ; CDC::SelectGdiObject
; File D:\git\src\IBK\IBK_DRFN\ProjSrc\SrcDrfn\Chart\Common_ST\STGfxOutBarCtrl.cpp

; 471  : 	if (iLastFolderHighlighted >= 0)

  00516	8b 86 14 01 00
	00		 mov	 eax, DWORD PTR [esi+276]
  0051c	85 c0		 test	 eax, eax
  0051e	78 12		 js	 SHORT $LN17@OnPaint

; 472  : 	{
; 473  : 		int i = iLastFolderHighlighted;
; 474  : 		iLastFolderHighlighted = -1;
; 475  : 		HighlightFolder(i);

  00520	50		 push	 eax
  00521	8b ce		 mov	 ecx, esi
  00523	c7 86 14 01 00
	00 ff ff ff ff	 mov	 DWORD PTR [esi+276], -1
  0052d	e8 00 00 00 00	 call	 ?HighlightFolder@CSTGfxOutBarCtrl@@QAEXH@Z ; CSTGfxOutBarCtrl::HighlightFolder
$LN17@OnPaint:

; 476  : 	}
; 477  : 	if (iLastItemHighlighted >= 0)

  00532	8b 8e 20 01 00
	00		 mov	 ecx, DWORD PTR [esi+288]
  00538	85 c9		 test	 ecx, ecx
  0053a	78 1a		 js	 SHORT $LN18@OnPaint

; 478  : 	{
; 479  : 		int i = iLastItemHighlighted;
; 480  : 		iLastItemHighlighted = -1;
; 481  : 		HighlightItem(i, bPressedHighlight);

  0053c	0f b6 86 24 01
	00 00		 movzx	 eax, BYTE PTR [esi+292]
  00543	50		 push	 eax
  00544	51		 push	 ecx
  00545	8b ce		 mov	 ecx, esi
  00547	c7 86 20 01 00
	00 ff ff ff ff	 mov	 DWORD PTR [esi+288], -1
  00551	e8 00 00 00 00	 call	 ?HighlightItem@CSTGfxOutBarCtrl@@QAEXH_N@Z ; CSTGfxOutBarCtrl::HighlightItem
$LN18@OnPaint:
; File C:\Program Files (x86)\Microsoft Visual Studio\2019\Community\VC\Tools\MSVC\14.29.30133\atlmfc\include\afxwin1.inl

; 179  : 	{ }

  00556	8d 8d 28 ff ff
	ff		 lea	 ecx, DWORD PTR _bmp$[ebp]
  0055c	c7 85 28 ff ff
	ff 00 00 00 00	 mov	 DWORD PTR _bmp$[ebp], OFFSET ??_7CBitmap@@6B@
  00566	e8 00 00 00 00	 call	 ??1CGdiObject@@UAE@XZ	; CGdiObject::~CGdiObject
; File D:\git\src\IBK\IBK_DRFN\ProjSrc\SrcDrfn\Chart\Common_ST\STGfxOutBarCtrl.cpp

; 484  : }

  0056b	8d 8d 34 ff ff
	ff		 lea	 ecx, DWORD PTR _memDC$[ebp]
  00571	e8 00 00 00 00	 call	 ??1CDC@@UAE@XZ		; CDC::~CDC
  00576	8d 8d 4c ff ff
	ff		 lea	 ecx, DWORD PTR _dc$[ebp]
  0057c	e8 00 00 00 00	 call	 ??1CPaintDC@@UAE@XZ	; CPaintDC::~CPaintDC
  00581	8b 4d f4	 mov	 ecx, DWORD PTR __$EHRec$[ebp]
  00584	64 89 0d 00 00
	00 00		 mov	 DWORD PTR fs:0, ecx
  0058b	59		 pop	 ecx
  0058c	5f		 pop	 edi
  0058d	5e		 pop	 esi
  0058e	8b 4d f0	 mov	 ecx, DWORD PTR __$ArrayPad$[ebp]
  00591	33 cd		 xor	 ecx, ebp
  00593	e8 00 00 00 00	 call	 @__security_check_cookie@4
  00598	8b e5		 mov	 esp, ebp
  0059a	5d		 pop	 ebp
  0059b	c3		 ret	 0
$LN98@OnPaint:
  0059c	e8 00 00 00 00	 call	 ?AfxThrowInvalidArgException@@YGXXZ ; AfxThrowInvalidArgException
$LN164@OnPaint:
  005a1	cc		 int	 3
_TEXT	ENDS
;	COMDAT text$x
text$x	SEGMENT
__unwindfunclet$?OnPaint@CSTGfxOutBarCtrl@@IAEXXZ$0:
  00000	8d 8d 4c ff ff
	ff		 lea	 ecx, DWORD PTR _dc$[ebp]
  00006	e9 00 00 00 00	 jmp	 ??1CPaintDC@@UAE@XZ	; CPaintDC::~CPaintDC
__unwindfunclet$?OnPaint@CSTGfxOutBarCtrl@@IAEXXZ$1:
  0000b	8d 8d 34 ff ff
	ff		 lea	 ecx, DWORD PTR _memDC$[ebp]
  00011	e9 00 00 00 00	 jmp	 ??1CDC@@UAE@XZ		; CDC::~CDC
__unwindfunclet$?OnPaint@CSTGfxOutBarCtrl@@IAEXXZ$2:
  00016	8d 8d 28 ff ff
	ff		 lea	 ecx, DWORD PTR _bmp$[ebp]
  0001c	e9 00 00 00 00	 jmp	 ??1CBitmap@@UAE@XZ	; CBitmap::~CBitmap
  00021	cc		 int	 3
  00022	cc		 int	 3
  00023	cc		 int	 3
  00024	cc		 int	 3
  00025	cc		 int	 3
__ehhandler$?OnPaint@CSTGfxOutBarCtrl@@IAEXXZ:
  00026	90		 npad	 1
  00027	90		 npad	 1
  00028	8b 54 24 08	 mov	 edx, DWORD PTR [esp+8]
  0002c	8d 42 0c	 lea	 eax, DWORD PTR [edx+12]
  0002f	8b 8a 1c ff ff
	ff		 mov	 ecx, DWORD PTR [edx-228]
  00035	33 c8		 xor	 ecx, eax
  00037	e8 00 00 00 00	 call	 @__security_check_cookie@4
  0003c	8b 4a fc	 mov	 ecx, DWORD PTR [edx-4]
  0003f	33 c8		 xor	 ecx, eax
  00041	e8 00 00 00 00	 call	 @__security_check_cookie@4
  00046	b8 00 00 00 00	 mov	 eax, OFFSET __ehfuncinfo$?OnPaint@CSTGfxOutBarCtrl@@IAEXXZ
  0004b	e9 00 00 00 00	 jmp	 ___CxxFrameHandler3
text$x	ENDS
?OnPaint@CSTGfxOutBarCtrl@@IAEXXZ ENDP			; CSTGfxOutBarCtrl::OnPaint
; Function compile flags: /Ogtp
; File D:\git\src\IBK\IBK_DRFN\ProjSrc\SrcDrfn\Chart\Common_ST\STGfxOutBarCtrl.cpp
; File C:\Program Files (x86)\Microsoft Visual Studio\2019\Community\VC\Tools\MSVC\14.29.30133\atlmfc\include\atltypes.h
; File C:\Program Files (x86)\Microsoft Visual Studio\2019\Community\VC\Tools\MSVC\14.29.30133\atlmfc\include\afxwin2.inl
; File C:\Program Files (x86)\Microsoft Visual Studio\2019\Community\VC\Tools\MSVC\14.29.30133\atlmfc\include\atltypes.h
; File C:\Program Files (x86)\Microsoft Visual Studio\2019\Community\VC\Tools\MSVC\14.29.30133\atlmfc\include\afxwin2.inl
; File C:\Program Files (x86)\Microsoft Visual Studio\2019\Community\VC\Tools\MSVC\14.29.30133\atlmfc\include\atltypes.h
; File C:\Program Files (x86)\Microsoft Visual Studio\2019\Community\VC\Tools\MSVC\14.29.30133\atlmfc\include\afxwin2.inl
; File C:\Program Files (x86)\Microsoft Visual Studio\2019\Community\VC\Tools\MSVC\14.29.30133\atlmfc\include\atltypes.h
; File D:\git\src\IBK\IBK_DRFN\ProjSrc\SrcDrfn\Chart\Common_ST\STGfxOutBarCtrl.cpp
; File C:\Program Files (x86)\Microsoft Visual Studio\2019\Community\VC\Tools\MSVC\14.29.30133\atlmfc\include\afxwin2.inl
; File D:\git\src\IBK\IBK_DRFN\ProjSrc\SrcDrfn\Chart\Common_ST\STGfxOutBarCtrl.cpp
; File C:\Program Files (x86)\Microsoft Visual Studio\2019\Community\VC\Tools\MSVC\14.29.30133\atlmfc\include\afxwin2.inl
; File D:\git\src\IBK\IBK_DRFN\ProjSrc\SrcDrfn\Chart\Common_ST\STGfxOutBarCtrl.cpp
; File C:\Program Files (x86)\Microsoft Visual Studio\2019\Community\VC\Tools\MSVC\14.29.30133\atlmfc\include\afxwin2.inl
; File D:\git\src\IBK\IBK_DRFN\ProjSrc\SrcDrfn\Chart\Common_ST\STGfxOutBarCtrl.cpp
;	COMDAT ?OnTimer@CSTGfxOutBarCtrl@@IAEXI@Z
_TEXT	SEGMENT
_pt$1 = -28						; size = 8
_rc$2 = -20						; size = 16
__$ArrayPad$ = -4					; size = 4
_nIDEvent$ = 8						; size = 4
?OnTimer@CSTGfxOutBarCtrl@@IAEXI@Z PROC			; CSTGfxOutBarCtrl::OnTimer, COMDAT
; _this$ = ecx

; 303  : {

  00000	55		 push	 ebp
  00001	8b ec		 mov	 ebp, esp
  00003	83 ec 1c	 sub	 esp, 28			; 0000001cH
  00006	a1 00 00 00 00	 mov	 eax, DWORD PTR ___security_cookie
  0000b	33 c5		 xor	 eax, ebp
  0000d	89 45 fc	 mov	 DWORD PTR __$ArrayPad$[ebp], eax

; 304  : 	if (nIDEvent == 1)

  00010	8b 45 08	 mov	 eax, DWORD PTR _nIDEvent$[ebp]
  00013	56		 push	 esi
  00014	8b f1		 mov	 esi, ecx
  00016	83 f8 01	 cmp	 eax, 1
  00019	75 70		 jne	 SHORT $LN2@OnTimer

; 305  : 	{
; 306  : 		CPoint pt(GetMessagePos());

  0001b	ff 15 00 00 00
	00		 call	 DWORD PTR __imp__GetMessagePos@0
; File C:\Program Files (x86)\Microsoft Visual Studio\2019\Community\VC\Tools\MSVC\14.29.30133\atlmfc\include\atltypes.h

; 424  : 	x = (short)LOWORD(dwPoint);

  00021	0f bf c8	 movsx	 ecx, ax

; 425  : 	y = (short)HIWORD(dwPoint);

  00024	c1 e8 10	 shr	 eax, 16			; 00000010H
  00027	98		 cwde
  00028	89 45 e8	 mov	 DWORD PTR _pt$1[ebp+4], eax
; File C:\Program Files (x86)\Microsoft Visual Studio\2019\Community\VC\Tools\MSVC\14.29.30133\atlmfc\include\afxwin2.inl

; 94   : 	{ ASSERT(::IsWindow(m_hWnd)); ::ScreenToClient(m_hWnd, lpPoint); }

  0002b	8d 45 e4	 lea	 eax, DWORD PTR _pt$1[ebp]
  0002e	50		 push	 eax
  0002f	ff 76 20	 push	 DWORD PTR [esi+32]
; File C:\Program Files (x86)\Microsoft Visual Studio\2019\Community\VC\Tools\MSVC\14.29.30133\atlmfc\include\atltypes.h

; 424  : 	x = (short)LOWORD(dwPoint);

  00032	89 4d e4	 mov	 DWORD PTR _pt$1[ebp], ecx
; File C:\Program Files (x86)\Microsoft Visual Studio\2019\Community\VC\Tools\MSVC\14.29.30133\atlmfc\include\afxwin2.inl

; 94   : 	{ ASSERT(::IsWindow(m_hWnd)); ::ScreenToClient(m_hWnd, lpPoint); }

  00035	ff 15 00 00 00
	00		 call	 DWORD PTR __imp__ScreenToClient@8

; 86   : 	{ ASSERT(::IsWindow(m_hWnd)); ::GetClientRect(m_hWnd, lpRect); }

  0003b	8d 45 ec	 lea	 eax, DWORD PTR _rc$2[ebp]
  0003e	0f 57 c0	 xorps	 xmm0, xmm0
  00041	50		 push	 eax
  00042	ff 76 20	 push	 DWORD PTR [esi+32]
; File C:\Program Files (x86)\Microsoft Visual Studio\2019\Community\VC\Tools\MSVC\14.29.30133\atlmfc\include\atltypes.h

; 528  : 	left = 0;

  00045	0f 11 45 ec	 movups	 XMMWORD PTR _rc$2[ebp], xmm0
; File C:\Program Files (x86)\Microsoft Visual Studio\2019\Community\VC\Tools\MSVC\14.29.30133\atlmfc\include\afxwin2.inl

; 86   : 	{ ASSERT(::IsWindow(m_hWnd)); ::GetClientRect(m_hWnd, lpRect); }

  00049	ff 15 00 00 00
	00		 call	 DWORD PTR __imp__GetClientRect@8
; File C:\Program Files (x86)\Microsoft Visual Studio\2019\Community\VC\Tools\MSVC\14.29.30133\atlmfc\include\atltypes.h

; 648  : 	return ::PtInRect(this, point);

  0004f	ff 75 e8	 push	 DWORD PTR _pt$1[ebp+4]
  00052	8d 45 ec	 lea	 eax, DWORD PTR _rc$2[ebp]
  00055	ff 75 e4	 push	 DWORD PTR _pt$1[ebp]
  00058	50		 push	 eax
  00059	ff 15 00 00 00
	00		 call	 DWORD PTR __imp__PtInRect@12
; File D:\git\src\IBK\IBK_DRFN\ProjSrc\SrcDrfn\Chart\Common_ST\STGfxOutBarCtrl.cpp

; 312  : 		if (!(rc.PtInRect(pt)))

  0005f	85 c0		 test	 eax, eax
  00061	0f 85 bc 00 00
	00		 jne	 $LN10@OnTimer

; 313  : 		{
; 314  : 			HighlightFolder(-1);

  00067	6a ff		 push	 -1
  00069	8b ce		 mov	 ecx, esi
  0006b	e8 00 00 00 00	 call	 ?HighlightFolder@CSTGfxOutBarCtrl@@QAEXH@Z ; CSTGfxOutBarCtrl::HighlightFolder

; 315  : 			HighlightItem(-1);

  00070	6a 00		 push	 0
  00072	6a ff		 push	 -1
  00074	8b ce		 mov	 ecx, esi
  00076	e8 00 00 00 00	 call	 ?HighlightItem@CSTGfxOutBarCtrl@@QAEXH_N@Z ; CSTGfxOutBarCtrl::HighlightItem
; File C:\Program Files (x86)\Microsoft Visual Studio\2019\Community\VC\Tools\MSVC\14.29.30133\atlmfc\include\afxwin2.inl

; 155  : 	{ ASSERT(::IsWindow(m_hWnd)); return ::KillTimer(m_hWnd, nIDEvent); }

  0007b	6a 01		 push	 1
  0007d	ff 76 20	 push	 DWORD PTR [esi+32]
  00080	ff 15 00 00 00
	00		 call	 DWORD PTR __imp__KillTimer@8
; File D:\git\src\IBK\IBK_DRFN\ProjSrc\SrcDrfn\Chart\Common_ST\STGfxOutBarCtrl.cpp

; 318  : 	}

  00086	e9 98 00 00 00	 jmp	 $LN10@OnTimer
$LN2@OnTimer:

; 319  : 	else if (nIDEvent == 3 && iLastSel >= 0)

  0008b	83 f8 03	 cmp	 eax, 3
  0008e	0f 85 8f 00 00
	00		 jne	 $LN10@OnTimer
  00094	8b 8e f0 00 00
	00		 mov	 ecx, DWORD PTR [esi+240]
  0009a	85 c9		 test	 ecx, ecx
  0009c	0f 88 81 00 00
	00		 js	 $LN10@OnTimer

; 320  : 	{
; 321  : 		iSelAnimCount ++;

  000a2	ff 86 f8 00 00
	00		 inc	 DWORD PTR [esi+248]
  000a8	8b 86 f8 00 00
	00		 mov	 eax, DWORD PTR [esi+248]

; 322  : 		if (iSelAnimCount > 10) iSelAnimCount = -1;

  000ae	83 f8 0a	 cmp	 eax, 10			; 0000000aH
  000b1	7e 0c		 jle	 SHORT $LN6@OnTimer
  000b3	c7 86 f8 00 00
	00 ff ff ff ff	 mov	 DWORD PTR [esi+248], -1
  000bd	eb 64		 jmp	 SHORT $LN10@OnTimer
$LN6@OnTimer:

; 323  : 		if (iSelAnimCount == 0)

  000bf	85 c0		 test	 eax, eax
  000c1	75 12		 jne	 SHORT $LN7@OnTimer

; 324  : 			DrawAnimItem(-1, 1, iLastSel);

  000c3	51		 push	 ecx
  000c4	6a 01		 push	 1
  000c6	6a ff		 push	 -1
  000c8	8b ce		 mov	 ecx, esi
  000ca	e8 00 00 00 00	 call	 ?DrawAnimItem@CSTGfxOutBarCtrl@@QAEXHHH@Z ; CSTGfxOutBarCtrl::DrawAnimItem
  000cf	8b 86 f8 00 00
	00		 mov	 eax, DWORD PTR [esi+248]
$LN7@OnTimer:

; 325  : 		if (iSelAnimCount == 1)

  000d5	83 f8 01	 cmp	 eax, 1
  000d8	75 17		 jne	 SHORT $LN8@OnTimer

; 326  : 			DrawAnimItem(0, 0, iLastSel);

  000da	ff b6 f0 00 00
	00		 push	 DWORD PTR [esi+240]
  000e0	8b ce		 mov	 ecx, esi
  000e2	6a 00		 push	 0
  000e4	6a 00		 push	 0
  000e6	e8 00 00 00 00	 call	 ?DrawAnimItem@CSTGfxOutBarCtrl@@QAEXHHH@Z ; CSTGfxOutBarCtrl::DrawAnimItem
  000eb	8b 86 f8 00 00
	00		 mov	 eax, DWORD PTR [esi+248]
$LN8@OnTimer:

; 327  : 		if (iSelAnimCount == 2)

  000f1	83 f8 02	 cmp	 eax, 2
  000f4	75 17		 jne	 SHORT $LN9@OnTimer

; 328  : 			DrawAnimItem(1, 1, iLastSel);

  000f6	ff b6 f0 00 00
	00		 push	 DWORD PTR [esi+240]
  000fc	8b ce		 mov	 ecx, esi
  000fe	6a 01		 push	 1
  00100	6a 01		 push	 1
  00102	e8 00 00 00 00	 call	 ?DrawAnimItem@CSTGfxOutBarCtrl@@QAEXHHH@Z ; CSTGfxOutBarCtrl::DrawAnimItem
  00107	8b 86 f8 00 00
	00		 mov	 eax, DWORD PTR [esi+248]
$LN9@OnTimer:

; 329  : 		if (iSelAnimCount == 3)

  0010d	83 f8 03	 cmp	 eax, 3
  00110	75 11		 jne	 SHORT $LN10@OnTimer

; 330  : 			DrawAnimItem(0, 0, iLastSel);

  00112	ff b6 f0 00 00
	00		 push	 DWORD PTR [esi+240]
  00118	8b ce		 mov	 ecx, esi
  0011a	6a 00		 push	 0
  0011c	6a 00		 push	 0
  0011e	e8 00 00 00 00	 call	 ?DrawAnimItem@CSTGfxOutBarCtrl@@QAEXHHH@Z ; CSTGfxOutBarCtrl::DrawAnimItem
$LN10@OnTimer:
; File C:\Program Files (x86)\Microsoft Visual Studio\2019\Community\VC\Tools\MSVC\14.29.30133\atlmfc\include\afxwin2.inl

; 466  : 	{ Default(); }

  00123	8b ce		 mov	 ecx, esi
  00125	e8 00 00 00 00	 call	 ?Default@CWnd@@IAEJXZ	; CWnd::Default
; File D:\git\src\IBK\IBK_DRFN\ProjSrc\SrcDrfn\Chart\Common_ST\STGfxOutBarCtrl.cpp

; 333  : }

  0012a	8b 4d fc	 mov	 ecx, DWORD PTR __$ArrayPad$[ebp]
  0012d	33 cd		 xor	 ecx, ebp
; File C:\Program Files (x86)\Microsoft Visual Studio\2019\Community\VC\Tools\MSVC\14.29.30133\atlmfc\include\afxwin2.inl

; 466  : 	{ Default(); }

  0012f	5e		 pop	 esi
; File D:\git\src\IBK\IBK_DRFN\ProjSrc\SrcDrfn\Chart\Common_ST\STGfxOutBarCtrl.cpp

; 333  : }

  00130	e8 00 00 00 00	 call	 @__security_check_cookie@4
  00135	8b e5		 mov	 esp, ebp
  00137	5d		 pop	 ebp
  00138	c2 04 00	 ret	 4
?OnTimer@CSTGfxOutBarCtrl@@IAEXI@Z ENDP			; CSTGfxOutBarCtrl::OnTimer
_TEXT	ENDS
; Function compile flags: /Ogtp
; File D:\git\src\IBK\IBK_DRFN\ProjSrc\SrcDrfn\Chart\Common_ST\STGfxOutBarCtrl.cpp
; File C:\Program Files (x86)\Microsoft Visual Studio\2019\Community\VC\Tools\MSVC\14.29.30133\atlmfc\include\afxwin1.inl
; File D:\git\src\IBK\IBK_DRFN\ProjSrc\SrcDrfn\Chart\Common_ST\STGfxOutBarCtrl.cpp
;	COMDAT ?OnDestroy@CSTGfxOutBarCtrl@@IAEXXZ
_TEXT	SEGMENT
?OnDestroy@CSTGfxOutBarCtrl@@IAEXXZ PROC		; CSTGfxOutBarCtrl::OnDestroy, COMDAT
; _this$ = ecx

; 263  : {

  00000	56		 push	 esi
  00001	8b f1		 mov	 esi, ecx

; 264  : 	if(m_Font.GetSafeHandle())

  00003	8d 8e 4c 01 00
	00		 lea	 ecx, DWORD PTR [esi+332]
; File C:\Program Files (x86)\Microsoft Visual Studio\2019\Community\VC\Tools\MSVC\14.29.30133\atlmfc\include\afxwin1.inl

; 68   : 	{ return this == NULL ? NULL : m_hObject; }

  00009	85 c9		 test	 ecx, ecx
  0000b	74 0b		 je	 SHORT $LN2@OnDestroy
; File D:\git\src\IBK\IBK_DRFN\ProjSrc\SrcDrfn\Chart\Common_ST\STGfxOutBarCtrl.cpp

; 264  : 	if(m_Font.GetSafeHandle())

  0000d	83 79 04 00	 cmp	 DWORD PTR [ecx+4], 0
  00011	74 05		 je	 SHORT $LN2@OnDestroy

; 265  : 		m_Font.DeleteObject();

  00013	e8 00 00 00 00	 call	 ?DeleteObject@CGdiObject@@QAEHXZ ; CGdiObject::DeleteObject
$LN2@OnDestroy:

; 266  : 
; 267  : 	CWnd::OnDestroy();

  00018	8b ce		 mov	 ecx, esi
  0001a	5e		 pop	 esi
  0001b	e9 00 00 00 00	 jmp	 ?OnDestroy@CWnd@@IAEXXZ	; CWnd::OnDestroy
?OnDestroy@CSTGfxOutBarCtrl@@IAEXXZ ENDP		; CSTGfxOutBarCtrl::OnDestroy
_TEXT	ENDS
; Function compile flags: /Ogtp
; File D:\git\src\IBK\IBK_DRFN\ProjSrc\SrcDrfn\Chart\Common_ST\STGfxOutBarCtrl.cpp
; File C:\Program Files (x86)\Microsoft Visual Studio\2019\Community\VC\Tools\MSVC\14.29.30133\atlmfc\include\afxwin2.inl
; File D:\git\src\IBK\IBK_DRFN\ProjSrc\SrcDrfn\Chart\Common_ST\STGfxOutBarCtrl.cpp
; File C:\Program Files (x86)\Microsoft Visual Studio\2019\Community\VC\Tools\MSVC\14.29.30133\atlmfc\include\afxwin1.inl
; File D:\git\src\IBK\IBK_DRFN\ProjSrc\SrcDrfn\Chart\Common_ST\STGfxOutBarCtrl.cpp
; File C:\Program Files (x86)\Microsoft Visual Studio\2019\Community\VC\Tools\MSVC\14.29.30133\atlmfc\include\afxwin1.inl
; File D:\git\src\IBK\IBK_DRFN\ProjSrc\SrcDrfn\Chart\Common_ST\STGfxOutBarCtrl.cpp
; File C:\Program Files (x86)\Microsoft Visual Studio\2019\Community\VC\Tools\MSVC\14.29.30133\atlmfc\include\afxwin1.inl
; File D:\git\src\IBK\IBK_DRFN\ProjSrc\SrcDrfn\Chart\Common_ST\STGfxOutBarCtrl.cpp
; File C:\Program Files (x86)\Microsoft Visual Studio\2019\Community\VC\Tools\MSVC\14.29.30133\atlmfc\include\afxwin1.inl
; File D:\git\src\IBK\IBK_DRFN\ProjSrc\SrcDrfn\Chart\Common_ST\STGfxOutBarCtrl.cpp
;	COMDAT ?OnCreate@CSTGfxOutBarCtrl@@IAEHPAUtagCREATESTRUCTA@@@Z
_TEXT	SEGMENT
_lfont$ = -64						; size = 60
__$ArrayPad$ = -4					; size = 4
_lpCreateStruct$ = 8					; size = 4
?OnCreate@CSTGfxOutBarCtrl@@IAEHPAUtagCREATESTRUCTA@@@Z PROC ; CSTGfxOutBarCtrl::OnCreate, COMDAT
; _this$ = ecx

; 271  : {

  00000	55		 push	 ebp
  00001	8b ec		 mov	 ebp, esp
  00003	83 ec 40	 sub	 esp, 64			; 00000040H
  00006	a1 00 00 00 00	 mov	 eax, DWORD PTR ___security_cookie
  0000b	33 c5		 xor	 eax, ebp
  0000d	89 45 fc	 mov	 DWORD PTR __$ArrayPad$[ebp], eax
  00010	56		 push	 esi
  00011	8b f1		 mov	 esi, ecx
; File C:\Program Files (x86)\Microsoft Visual Studio\2019\Community\VC\Tools\MSVC\14.29.30133\atlmfc\include\afxwin2.inl

; 296  : 	{ return (int)Default(); }

  00013	e8 00 00 00 00	 call	 ?Default@CWnd@@IAEJXZ	; CWnd::Default
; File D:\git\src\IBK\IBK_DRFN\ProjSrc\SrcDrfn\Chart\Common_ST\STGfxOutBarCtrl.cpp

; 272  : 	if (CWnd::OnCreate(lpCreateStruct) == -1)

  00018	83 f8 ff	 cmp	 eax, -1
  0001b	74 7d		 je	 SHORT $LN9@OnCreate

; 287  : 	lfont.lfClipPrecision = CLIP_DEFAULT_PRECIS; 
; 288  : 	lfont.lfQuality = DEFAULT_QUALITY;
; 289  : 	lfont.lfPitchAndFamily = FF_ROMAN; 
; 290  : 	strcpy(lfont.lfFaceName, "");

  0001d	a1 00 00 00 00	 mov	 eax, DWORD PTR ??_C@_06MFMMLLPC@?$LB?$LM?$LI?$LC?C?$LM@
  00022	0f 57 c0	 xorps	 xmm0, xmm0
  00025	89 45 dc	 mov	 DWORD PTR _lfont$[ebp+28], eax
  00028	66 a1 04 00 00
	00		 mov	 ax, WORD PTR ??_C@_06MFMMLLPC@?$LB?$LM?$LI?$LC?C?$LM@+4
  0002e	66 89 45 e0	 mov	 WORD PTR _lfont$[ebp+32], ax
  00032	a0 06 00 00 00	 mov	 al, BYTE PTR ??_C@_06MFMMLLPC@?$LB?$LM?$LI?$LC?C?$LM@+6
  00037	88 45 e2	 mov	 BYTE PTR _lfont$[ebp+34], al
; File C:\Program Files (x86)\Microsoft Visual Studio\2019\Community\VC\Tools\MSVC\14.29.30133\atlmfc\include\afxwin1.inl

; 157  : 	{ return Attach(::CreateFontIndirect(lpLogFont)); }

  0003a	8d 45 c0	 lea	 eax, DWORD PTR _lfont$[ebp]
; File D:\git\src\IBK\IBK_DRFN\ProjSrc\SrcDrfn\Chart\Common_ST\STGfxOutBarCtrl.cpp

; 277  : 	::memset(&lfont, 0x00, sizeof(LOGFONT));

  0003d	66 0f 13 45 e3	 movlpd	 QWORD PTR _lfont$[ebp+35], xmm0
  00042	66 0f 13 45 eb	 movlpd	 QWORD PTR _lfont$[ebp+43], xmm0
  00047	66 0f 13 45 f3	 movlpd	 QWORD PTR _lfont$[ebp+51], xmm0

; 278  : 	lfont.lfWidth = 0; 

  0004c	0f 28 05 00 00
	00 00		 movaps	 xmm0, XMMWORD PTR __xmm@00000190000000000000000000000000
; File C:\Program Files (x86)\Microsoft Visual Studio\2019\Community\VC\Tools\MSVC\14.29.30133\atlmfc\include\afxwin1.inl

; 157  : 	{ return Attach(::CreateFontIndirect(lpLogFont)); }

  00053	50		 push	 eax
; File D:\git\src\IBK\IBK_DRFN\ProjSrc\SrcDrfn\Chart\Common_ST\STGfxOutBarCtrl.cpp

; 277  : 	::memset(&lfont, 0x00, sizeof(LOGFONT));

  00054	c6 45 fb 00	 mov	 BYTE PTR _lfont$[ebp+59], 0

; 278  : 	lfont.lfWidth = 0; 

  00058	0f 11 45 c4	 movups	 XMMWORD PTR _lfont$[ebp+4], xmm0

; 279  : 	lfont.lfEscapement = 0; 
; 280  : 	lfont.lfOrientation = 0; 
; 281  : 	lfont.lfWeight = FW_NORMAL; 
; 282  : 	lfont.lfItalic = 0; 

  0005c	c7 45 d4 00 00
	00 01		 mov	 DWORD PTR _lfont$[ebp+20], 16777216 ; 01000000H

; 283  : 	lfont.lfUnderline = 0; 
; 284  : 	lfont.lfStrikeOut = 0; 
; 285  : 	lfont.lfCharSet = DEFAULT_CHARSET; 
; 286  : 	lfont.lfOutPrecision = OUT_DEFAULT_PRECIS; 

  00063	c7 45 d8 00 00
	00 10		 mov	 DWORD PTR _lfont$[ebp+24], 268435456 ; 10000000H

; 291  : 	lfont.lfHeight = -12;

  0006a	c7 45 c0 f4 ff
	ff ff		 mov	 DWORD PTR _lfont$[ebp], -12 ; fffffff4H
; File C:\Program Files (x86)\Microsoft Visual Studio\2019\Community\VC\Tools\MSVC\14.29.30133\atlmfc\include\afxwin1.inl

; 157  : 	{ return Attach(::CreateFontIndirect(lpLogFont)); }

  00071	ff 15 00 00 00
	00		 call	 DWORD PTR __imp__CreateFontIndirectA@4
  00077	50		 push	 eax
; File D:\git\src\IBK\IBK_DRFN\ProjSrc\SrcDrfn\Chart\Common_ST\STGfxOutBarCtrl.cpp

; 293  : 	if(!m_Font.CreateFontIndirect(&lfont))

  00078	8d 8e 4c 01 00
	00		 lea	 ecx, DWORD PTR [esi+332]
; File C:\Program Files (x86)\Microsoft Visual Studio\2019\Community\VC\Tools\MSVC\14.29.30133\atlmfc\include\afxwin1.inl

; 157  : 	{ return Attach(::CreateFontIndirect(lpLogFont)); }

  0007e	e8 00 00 00 00	 call	 ?Attach@CGdiObject@@QAEHPAX@Z ; CGdiObject::Attach
; File D:\git\src\IBK\IBK_DRFN\ProjSrc\SrcDrfn\Chart\Common_ST\STGfxOutBarCtrl.cpp

; 293  : 	if(!m_Font.CreateFontIndirect(&lfont))

  00083	85 c0		 test	 eax, eax
  00085	74 13		 je	 SHORT $LN9@OnCreate

; 294  : 	{
; 295  : 		TRACE("%s[%d] : Tool Button font  !", __FILE__, __LINE__);
; 296  : 		return -1;
; 297  : 	}
; 298  : 	
; 299  : 	return 0;

  00087	33 c0		 xor	 eax, eax
  00089	5e		 pop	 esi

; 300  : }

  0008a	8b 4d fc	 mov	 ecx, DWORD PTR __$ArrayPad$[ebp]
  0008d	33 cd		 xor	 ecx, ebp
  0008f	e8 00 00 00 00	 call	 @__security_check_cookie@4
  00094	8b e5		 mov	 esp, ebp
  00096	5d		 pop	 ebp
  00097	c2 04 00	 ret	 4
$LN9@OnCreate:
  0009a	8b 4d fc	 mov	 ecx, DWORD PTR __$ArrayPad$[ebp]
  0009d	83 c8 ff	 or	 eax, -1
  000a0	33 cd		 xor	 ecx, ebp
  000a2	5e		 pop	 esi
  000a3	e8 00 00 00 00	 call	 @__security_check_cookie@4
  000a8	8b e5		 mov	 esp, ebp
  000aa	5d		 pop	 ebp
  000ab	c2 04 00	 ret	 4
?OnCreate@CSTGfxOutBarCtrl@@IAEHPAUtagCREATESTRUCTA@@@Z ENDP ; CSTGfxOutBarCtrl::OnCreate
_TEXT	ENDS
; Function compile flags: /Ogtp
; File D:\git\src\IBK\IBK_DRFN\ProjSrc\SrcDrfn\Chart\Common_ST\STGfxOutBarCtrl.cpp
; File C:\Program Files (x86)\Microsoft Visual Studio\2019\Community\VC\Tools\MSVC\14.29.30133\atlmfc\include\afxcoll.inl
; File D:\git\src\IBK\IBK_DRFN\ProjSrc\SrcDrfn\Chart\Common_ST\STGfxOutBarCtrl.cpp
; File C:\Program Files (x86)\Microsoft Visual Studio\2019\Community\VC\Tools\MSVC\14.29.30133\atlmfc\include\afxcoll.inl
; File D:\git\src\IBK\IBK_DRFN\ProjSrc\SrcDrfn\Chart\Common_ST\STGfxOutBarCtrl.cpp
; File C:\Program Files (x86)\Microsoft Visual Studio\2019\Community\VC\Tools\MSVC\14.29.30133\atlmfc\include\afxwin1.inl
; File C:\Program Files (x86)\Microsoft Visual Studio\2019\Community\VC\Tools\MSVC\14.29.30133\atlmfc\include\atlsimpstr.h
; File C:\Program Files (x86)\Microsoft Visual Studio\2019\Community\VC\Tools\MSVC\14.29.30133\atlmfc\include\afxwin1.inl
; File D:\git\src\IBK\IBK_DRFN\ProjSrc\SrcDrfn\Chart\Common_ST\STGfxOutBarCtrl.cpp
; File C:\Program Files (x86)\Microsoft Visual Studio\2019\Community\VC\Tools\MSVC\14.29.30133\atlmfc\include\afxwin1.inl
; File D:\git\src\IBK\IBK_DRFN\ProjSrc\SrcDrfn\Chart\Common_ST\STGfxOutBarCtrl.cpp
; File C:\Program Files (x86)\Microsoft Visual Studio\2019\Community\VC\Tools\MSVC\14.29.30133\atlmfc\include\afxwin1.inl
; File D:\git\src\IBK\IBK_DRFN\ProjSrc\SrcDrfn\Chart\Common_ST\STGfxOutBarCtrl.cpp
; File C:\Program Files (x86)\Microsoft Visual Studio\2019\Community\VC\Tools\MSVC\14.29.30133\atlmfc\include\afxwin1.inl
; File D:\git\src\IBK\IBK_DRFN\ProjSrc\SrcDrfn\Chart\Common_ST\STGfxOutBarCtrl.cpp
; File C:\Program Files (x86)\Microsoft Visual Studio\2019\Community\VC\Tools\MSVC\14.29.30133\atlmfc\include\atlsimpstr.h
; File C:\Program Files (x86)\Microsoft Visual Studio\2019\Community\VC\Tools\MSVC\14.29.30133\atlmfc\include\afxwin1.inl
; File D:\git\src\IBK\IBK_DRFN\ProjSrc\SrcDrfn\Chart\Common_ST\STGfxOutBarCtrl.cpp
; File C:\Program Files (x86)\Microsoft Visual Studio\2019\Community\VC\Tools\MSVC\14.29.30133\atlmfc\include\afxwin1.inl
; File D:\git\src\IBK\IBK_DRFN\ProjSrc\SrcDrfn\Chart\Common_ST\STGfxOutBarCtrl.cpp
; File C:\Program Files (x86)\Microsoft Visual Studio\2019\Community\VC\Tools\MSVC\14.29.30133\atlmfc\include\afxwin2.inl
; File C:\Program Files (x86)\Microsoft Visual Studio\2019\Community\VC\Tools\MSVC\14.29.30133\atlmfc\include\atltypes.h
; File C:\Program Files (x86)\Microsoft Visual Studio\2019\Community\VC\Tools\MSVC\14.29.30133\atlmfc\include\afxwin2.inl
; File C:\Program Files (x86)\Microsoft Visual Studio\2019\Community\VC\Tools\MSVC\14.29.30133\atlmfc\include\atltypes.h
; File D:\git\src\IBK\IBK_DRFN\ProjSrc\SrcDrfn\Chart\Common_ST\STGfxOutBarCtrl.cpp
; File C:\Program Files (x86)\Microsoft Visual Studio\2019\Community\VC\Tools\MSVC\14.29.30133\atlmfc\include\afxwin1.inl
; File D:\git\src\IBK\IBK_DRFN\ProjSrc\SrcDrfn\Chart\Common_ST\STGfxOutBarCtrl.cpp
; File C:\Program Files (x86)\Microsoft Visual Studio\2019\Community\VC\Tools\MSVC\14.29.30133\atlmfc\include\afxwin1.inl
; File D:\git\src\IBK\IBK_DRFN\ProjSrc\SrcDrfn\Chart\Common_ST\STGfxOutBarCtrl.cpp
; File C:\Program Files (x86)\Microsoft Visual Studio\2019\Community\VC\Tools\MSVC\14.29.30133\atlmfc\include\afxwin1.inl
; File D:\git\src\IBK\IBK_DRFN\ProjSrc\SrcDrfn\Chart\Common_ST\STGfxOutBarCtrl.cpp
; File C:\Program Files (x86)\Microsoft Visual Studio\2019\Community\VC\Tools\MSVC\14.29.30133\atlmfc\include\afxwin1.inl
; File D:\git\src\IBK\IBK_DRFN\ProjSrc\SrcDrfn\Chart\Common_ST\STGfxOutBarCtrl.cpp
; File C:\Program Files (x86)\Microsoft Visual Studio\2019\Community\VC\Tools\MSVC\14.29.30133\atlmfc\include\afxwin1.inl
; File D:\git\src\IBK\IBK_DRFN\ProjSrc\SrcDrfn\Chart\Common_ST\STGfxOutBarCtrl.cpp
; File C:\Program Files (x86)\Microsoft Visual Studio\2019\Community\VC\Tools\MSVC\14.29.30133\atlmfc\include\atlsimpstr.h
; File C:\Program Files (x86)\Microsoft Visual Studio\2019\Community\VC\Tools\MSVC\14.29.30133\atlmfc\include\afxwin1.inl
; File D:\git\src\IBK\IBK_DRFN\ProjSrc\SrcDrfn\Chart\Common_ST\STGfxOutBarCtrl.cpp
; File C:\Program Files (x86)\Microsoft Visual Studio\2019\Community\VC\Tools\MSVC\14.29.30133\atlmfc\include\afxwin1.inl
; File D:\git\src\IBK\IBK_DRFN\ProjSrc\SrcDrfn\Chart\Common_ST\STGfxOutBarCtrl.cpp
; File C:\Program Files (x86)\Microsoft Visual Studio\2019\Community\VC\Tools\MSVC\14.29.30133\atlmfc\include\afxwin1.inl
; File D:\git\src\IBK\IBK_DRFN\ProjSrc\SrcDrfn\Chart\Common_ST\STGfxOutBarCtrl.cpp
; File C:\Program Files (x86)\Microsoft Visual Studio\2019\Community\VC\Tools\MSVC\14.29.30133\atlmfc\include\afxwin2.inl
; File C:\Program Files (x86)\Microsoft Visual Studio\2019\Community\VC\Tools\MSVC\14.29.30133\atlmfc\include\atltypes.h
; File C:\Program Files (x86)\Microsoft Visual Studio\2019\Community\VC\Tools\MSVC\14.29.30133\atlmfc\include\afxwin2.inl
; File C:\Program Files (x86)\Microsoft Visual Studio\2019\Community\VC\Tools\MSVC\14.29.30133\atlmfc\include\atltypes.h
; File D:\git\src\IBK\IBK_DRFN\ProjSrc\SrcDrfn\Chart\Common_ST\STGfxOutBarCtrl.cpp
; File C:\Program Files (x86)\Microsoft Visual Studio\2019\Community\VC\Tools\MSVC\14.29.30133\atlmfc\include\atltypes.h
; File D:\git\src\IBK\IBK_DRFN\ProjSrc\SrcDrfn\Chart\Common_ST\STGfxOutBarCtrl.cpp
; File C:\Program Files (x86)\Microsoft Visual Studio\2019\Community\VC\Tools\MSVC\14.29.30133\atlmfc\include\afxwin1.inl
; File C:\Program Files (x86)\Microsoft Visual Studio\2019\Community\VC\Tools\MSVC\14.29.30133\atlmfc\include\atlsimpstr.h
; File C:\Program Files (x86)\Microsoft Visual Studio\2019\Community\VC\Tools\MSVC\14.29.30133\atlmfc\include\afxwin1.inl
; File D:\git\src\IBK\IBK_DRFN\ProjSrc\SrcDrfn\Chart\Common_ST\STGfxOutBarCtrl.cpp
; File C:\Program Files (x86)\Microsoft Visual Studio\2019\Community\VC\Tools\MSVC\14.29.30133\atlmfc\include\afxwin1.inl
; File D:\git\src\IBK\IBK_DRFN\ProjSrc\SrcDrfn\Chart\Common_ST\STGfxOutBarCtrl.cpp
; File C:\Program Files (x86)\Microsoft Visual Studio\2019\Community\VC\Tools\MSVC\14.29.30133\atlmfc\include\afxwin1.inl
; File C:\Program Files (x86)\Microsoft Visual Studio\2019\Community\VC\Tools\MSVC\14.29.30133\atlmfc\include\afxcoll.inl
; File D:\git\src\IBK\IBK_DRFN\ProjSrc\SrcDrfn\Chart\Common_ST\STGfxOutBarCtrl.cpp
;	COMDAT ?DrawFolder@CSTGfxOutBarCtrl@@IAEXPAVCDC@@HVCRect@@_N@Z
_TEXT	SEGMENT
$T6 = -196						; size = 8
_pn1$7 = -196						; size = 8
_pn1$8 = -188						; size = 8
$T9 = -188						; size = 8
$T10 = -188						; size = 8
_boldfont$11 = -180					; size = 8
_pn1$12 = -180						; size = 8
_iIdx$GSCopy$1$ = -172					; size = 4
$T13 = -172						; size = 4
$T14 = -172						; size = 4
_pbf$1$ = -168						; size = 4
$T15 = -168						; size = 4
$T16 = -168						; size = 4
_this$GSCopy$1$ = -164					; size = 4
_obk$1$ = -164						; size = 4
_pDC$GSCopy$1$ = -160					; size = 4
_obk$1$ = -160						; size = 4
_lfont$17 = -156					; size = 60
_rc$18 = -96						; size = 16
_rcTemp$19 = -80					; size = 16
_rcTemp2$20 = -64					; size = 16
_rcTemp$21 = -48					; size = 16
_rc$22 = -32						; size = 16
_rectOutLine$23 = -32					; size = 16
__$ArrayPad$ = -16					; size = 4
__$EHRec$ = -12						; size = 12
_pDC$ = 8						; size = 4
_iIdx$ = 12						; size = 4
_rect$ = 16						; size = 16
_bSelected$ = 32					; size = 1
?DrawFolder@CSTGfxOutBarCtrl@@IAEXPAVCDC@@HVCRect@@_N@Z PROC ; CSTGfxOutBarCtrl::DrawFolder, COMDAT
; _this$ = ecx

; 553  : {

  00000	55		 push	 ebp
  00001	8b ec		 mov	 ebp, esp
  00003	6a ff		 push	 -1
  00005	68 00 00 00 00	 push	 __ehhandler$?DrawFolder@CSTGfxOutBarCtrl@@IAEXPAVCDC@@HVCRect@@_N@Z
  0000a	64 a1 00 00 00
	00		 mov	 eax, DWORD PTR fs:0
  00010	50		 push	 eax
  00011	81 ec b8 00 00
	00		 sub	 esp, 184		; 000000b8H
  00017	a1 00 00 00 00	 mov	 eax, DWORD PTR ___security_cookie
  0001c	33 c5		 xor	 eax, ebp
  0001e	89 45 f0	 mov	 DWORD PTR __$ArrayPad$[ebp], eax
  00021	56		 push	 esi
  00022	57		 push	 edi
  00023	50		 push	 eax
  00024	8d 45 f4	 lea	 eax, DWORD PTR __$EHRec$[ebp]
  00027	64 a3 00 00 00
	00		 mov	 DWORD PTR fs:0, eax
  0002d	8b f1		 mov	 esi, ecx
  0002f	89 b5 5c ff ff
	ff		 mov	 DWORD PTR _this$GSCopy$1$[ebp], esi
  00035	8b 4d 0c	 mov	 ecx, DWORD PTR _iIdx$[ebp]
  00038	8b 7d 08	 mov	 edi, DWORD PTR _pDC$[ebp]
  0003b	89 bd 60 ff ff
	ff		 mov	 DWORD PTR _pDC$GSCopy$1$[ebp], edi
  00041	89 8d 54 ff ff
	ff		 mov	 DWORD PTR _iIdx$GSCopy$1$[ebp], ecx
; File C:\Program Files (x86)\Microsoft Visual Studio\2019\Community\VC\Tools\MSVC\14.29.30133\atlmfc\include\afxcoll.inl

; 203  : 		if( nIndex < 0 || nIndex >= m_nSize )

  00047	85 c9		 test	 ecx, ecx
  00049	0f 88 0c 07 00
	00		 js	 $LN21@DrawFolder
  0004f	3b 8e 08 01 00
	00		 cmp	 ecx, DWORD PTR [esi+264]
  00055	0f 8d 00 07 00
	00		 jge	 $LN21@DrawFolder
; File D:\git\src\IBK\IBK_DRFN\ProjSrc\SrcDrfn\Chart\Common_ST\STGfxOutBarCtrl.cpp

; 599  : 	if (!bSelected)

  0005b	80 7d 20 00	 cmp	 BYTE PTR _bSelected$[ebp], 0
; File C:\Program Files (x86)\Microsoft Visual Studio\2019\Community\VC\Tools\MSVC\14.29.30133\atlmfc\include\afxcoll.inl

; 205  : 		return m_pData[nIndex]; }

  0005f	8b 86 04 01 00
	00		 mov	 eax, DWORD PTR [esi+260]
  00065	8b 04 88	 mov	 eax, DWORD PTR [eax+ecx*4]
  00068	89 85 58 ff ff
	ff		 mov	 DWORD PTR _pbf$1$[ebp], eax
  0006e	8b 86 54 01 00
	00		 mov	 eax, DWORD PTR [esi+340]
; File D:\git\src\IBK\IBK_DRFN\ProjSrc\SrcDrfn\Chart\Common_ST\STGfxOutBarCtrl.cpp

; 599  : 	if (!bSelected)

  00074	0f 85 50 02 00
	00		 jne	 $LN2@DrawFolder

; 600  : 	{
; 601  : 		if(!m_pFolderImageList)

  0007a	8b 8e 84 00 00
	00		 mov	 ecx, DWORD PTR [esi+132]
  00080	51		 push	 ecx
  00081	85 c0		 test	 eax, eax
  00083	0f 85 40 01 00
	00		 jne	 $LN4@DrawFolder

; 602  : 		{
; 603  : 			CPen pn1(PS_SOLID, 1, crBackGroundColor1);

  00089	6a 01		 push	 1
  0008b	50		 push	 eax
  0008c	8d 8d 4c ff ff
	ff		 lea	 ecx, DWORD PTR _pn1$12[ebp]
  00092	e8 00 00 00 00	 call	 ??0CPen@@QAE@HHK@Z	; CPen::CPen

; 604  : 			CPen * op = pDC->SelectObject(&pn1);

  00097	8d 85 4c ff ff
	ff		 lea	 eax, DWORD PTR _pn1$12[ebp]
  0009d	c7 45 fc 00 00
	00 00		 mov	 DWORD PTR __$EHRec$[ebp+8], 0
  000a4	50		 push	 eax
  000a5	8b cf		 mov	 ecx, edi
  000a7	e8 00 00 00 00	 call	 ?SelectObject@CDC@@QAEPAVCPen@@PAV2@@Z ; CDC::SelectObject

; 605  : 			pDC->MoveTo(rect.left, rect.top);

  000ac	ff 75 14	 push	 DWORD PTR _rect$[ebp+4]
  000af	8b f0		 mov	 esi, eax
  000b1	8b cf		 mov	 ecx, edi
  000b3	ff 75 10	 push	 DWORD PTR _rect$[ebp]
  000b6	8d 85 44 ff ff
	ff		 lea	 eax, DWORD PTR $T10[ebp]
  000bc	50		 push	 eax
  000bd	e8 00 00 00 00	 call	 ?MoveTo@CDC@@QAE?AVCPoint@@HH@Z ; CDC::MoveTo

; 606  : 			pDC->LineTo(rect.right, rect.top);

  000c2	ff 75 14	 push	 DWORD PTR _rect$[ebp+4]
  000c5	8b cf		 mov	 ecx, edi
  000c7	ff 75 18	 push	 DWORD PTR _rect$[ebp+8]
  000ca	e8 00 00 00 00	 call	 ?LineTo@CDC@@QAEHHH@Z	; CDC::LineTo

; 607  : 			pDC->SelectObject(op);

  000cf	56		 push	 esi
  000d0	8b cf		 mov	 ecx, edi
  000d2	e8 00 00 00 00	 call	 ?SelectObject@CDC@@QAEPAVCPen@@PAV2@@Z ; CDC::SelectObject

; 608  : 
; 609  : 			rect.top ++;

  000d7	ff 45 14	 inc	 DWORD PTR _rect$[ebp+4]

; 610  : 			pDC->FillSolidRect(rect, RGB(255,255,255));

  000da	8d 45 10	 lea	 eax, DWORD PTR _rect$[ebp]
  000dd	68 ff ff ff 00	 push	 16777215		; 00ffffffH
  000e2	50		 push	 eax
  000e3	8b cf		 mov	 ecx, edi
  000e5	e8 00 00 00 00	 call	 ?FillSolidRect@CDC@@QAEXPBUtagRECT@@K@Z ; CDC::FillSolidRect

; 611  : 			rect.left +=2;
; 612  : 			rect.top +=2;
; 613  : 			pDC->FillSolidRect(rect, cr3dUnFace);

  000ea	8b b5 5c ff ff
	ff		 mov	 esi, DWORD PTR _this$GSCopy$1$[ebp]
  000f0	8d 45 10	 lea	 eax, DWORD PTR _rect$[ebp]
  000f3	83 45 10 02	 add	 DWORD PTR _rect$[ebp], 2
  000f7	8b cf		 mov	 ecx, edi
  000f9	83 45 14 02	 add	 DWORD PTR _rect$[ebp+4], 2
  000fd	ff b6 90 00 00
	00		 push	 DWORD PTR [esi+144]
  00103	50		 push	 eax
  00104	e8 00 00 00 00	 call	 ?FillSolidRect@CDC@@QAEXPBUtagRECT@@K@Z ; CDC::FillSolidRect

; 614  : 			int obk = pDC->SetBkMode(TRANSPARENT);

  00109	6a 01		 push	 1
  0010b	8b cf		 mov	 ecx, edi
  0010d	e8 00 00 00 00	 call	 ?SetBkMode@CDC@@QAEHH@Z	; CDC::SetBkMode
  00112	8b f8		 mov	 edi, eax

; 615  : //			CFont * of = pDC->SelectObject(CFont::FromHandle((HFONT)GetStockObject(DEFAULT_GUI_FONT)));
; 616  : 			CFont * of = pDC->SelectObject(&m_Font);

  00114	8d 8e 4c 01 00
	00		 lea	 ecx, DWORD PTR [esi+332]
  0011a	8b 85 60 ff ff
	ff		 mov	 eax, DWORD PTR _pDC$GSCopy$1$[ebp]
  00120	51		 push	 ecx
  00121	8b c8		 mov	 ecx, eax
  00123	8b 10		 mov	 edx, DWORD PTR [eax]
  00125	8b 52 30	 mov	 edx, DWORD PTR [edx+48]
  00128	ff d2		 call	 edx
  0012a	8b f0		 mov	 esi, eax

; 617  : 			pDC->SetTextColor(RGB(0,0,0));

  0012c	8b 85 60 ff ff
	ff		 mov	 eax, DWORD PTR _pDC$GSCopy$1$[ebp]
  00132	6a 00		 push	 0
  00134	8b c8		 mov	 ecx, eax
  00136	8b 10		 mov	 edx, DWORD PTR [eax]
  00138	ff 52 38	 call	 DWORD PTR [edx+56]

; 618  : 			pDC->DrawText(CString(pbf->cName), rect, DT_CENTER|DT_VCENTER|DT_SINGLELINE);

  0013b	8b 85 58 ff ff
	ff		 mov	 eax, DWORD PTR _pbf$1$[ebp]
  00141	8d 8d 58 ff ff
	ff		 lea	 ecx, DWORD PTR $T16[ebp]
  00147	ff 70 04	 push	 DWORD PTR [eax+4]
  0014a	ff 15 00 00 00
	00		 call	 DWORD PTR __imp_??0?$CStringT@DV?$StrTraitMFC_DLL@DV?$ChTraitsCRT@D@ATL@@@@@ATL@@QAE@PBD@Z
; File C:\Program Files (x86)\Microsoft Visual Studio\2019\Community\VC\Tools\MSVC\14.29.30133\atlmfc\include\afxwin1.inl

; 600  : 		return _AFX_FUNCNAME(DrawText)((LPCTSTR)str, (int)str.GetLength(), lpRect, nFormat); }

  00150	8b 8d 60 ff ff
	ff		 mov	 ecx, DWORD PTR _pDC$GSCopy$1$[ebp]
; File C:\Program Files (x86)\Microsoft Visual Studio\2019\Community\VC\Tools\MSVC\14.29.30133\atlmfc\include\atlsimpstr.h

; 519  : 		return( GetData()->nDataLength );

  00156	8b 00		 mov	 eax, DWORD PTR [eax]
; File C:\Program Files (x86)\Microsoft Visual Studio\2019\Community\VC\Tools\MSVC\14.29.30133\atlmfc\include\afxwin1.inl

; 600  : 		return _AFX_FUNCNAME(DrawText)((LPCTSTR)str, (int)str.GetLength(), lpRect, nFormat); }

  00158	6a 25		 push	 37			; 00000025H
; File D:\git\src\IBK\IBK_DRFN\ProjSrc\SrcDrfn\Chart\Common_ST\STGfxOutBarCtrl.cpp

; 618  : 			pDC->DrawText(CString(pbf->cName), rect, DT_CENTER|DT_VCENTER|DT_SINGLELINE);

  0015a	c6 45 fc 01	 mov	 BYTE PTR __$EHRec$[ebp+8], 1
; File C:\Program Files (x86)\Microsoft Visual Studio\2019\Community\VC\Tools\MSVC\14.29.30133\atlmfc\include\afxwin1.inl

; 600  : 		return _AFX_FUNCNAME(DrawText)((LPCTSTR)str, (int)str.GetLength(), lpRect, nFormat); }

  0015e	8b 11		 mov	 edx, DWORD PTR [ecx]
  00160	8d 4d 10	 lea	 ecx, DWORD PTR _rect$[ebp]
  00163	51		 push	 ecx
  00164	ff 70 f4	 push	 DWORD PTR [eax-12]
  00167	8b 8d 60 ff ff
	ff		 mov	 ecx, DWORD PTR _pDC$GSCopy$1$[ebp]
  0016d	50		 push	 eax
  0016e	ff 52 70	 call	 DWORD PTR [edx+112]
; File D:\git\src\IBK\IBK_DRFN\ProjSrc\SrcDrfn\Chart\Common_ST\STGfxOutBarCtrl.cpp

; 618  : 			pDC->DrawText(CString(pbf->cName), rect, DT_CENTER|DT_VCENTER|DT_SINGLELINE);

  00171	8d 8d 58 ff ff
	ff		 lea	 ecx, DWORD PTR $T16[ebp]
  00177	c6 45 fc 00	 mov	 BYTE PTR __$EHRec$[ebp+8], 0
  0017b	ff 15 00 00 00
	00		 call	 DWORD PTR __imp_??1?$CStringT@DV?$StrTraitMFC_DLL@DV?$ChTraitsCRT@D@ATL@@@@@ATL@@QAE@XZ

; 619  : 			pDC->SetBkMode(obk);

  00181	57		 push	 edi
  00182	8b bd 60 ff ff
	ff		 mov	 edi, DWORD PTR _pDC$GSCopy$1$[ebp]
  00188	8b cf		 mov	 ecx, edi
  0018a	e8 00 00 00 00	 call	 ?SetBkMode@CDC@@QAEHH@Z	; CDC::SetBkMode

; 620  : 			pDC->SelectObject(of);

  0018f	8b 07		 mov	 eax, DWORD PTR [edi]
  00191	8b cf		 mov	 ecx, edi
  00193	56		 push	 esi
  00194	ff 50 30	 call	 DWORD PTR [eax+48]
; File C:\Program Files (x86)\Microsoft Visual Studio\2019\Community\VC\Tools\MSVC\14.29.30133\atlmfc\include\afxwin1.inl

; 106  : 	{ }

  00197	c7 85 4c ff ff
	ff 00 00 00 00	 mov	 DWORD PTR _pn1$12[ebp], OFFSET ??_7CPen@@6B@
  001a1	8d 8d 4c ff ff
	ff		 lea	 ecx, DWORD PTR _pn1$12[ebp]
$LN139@DrawFolder:
; File D:\git\src\IBK\IBK_DRFN\ProjSrc\SrcDrfn\Chart\Common_ST\STGfxOutBarCtrl.cpp

; 771  : }

  001a7	e8 00 00 00 00	 call	 ??1CGdiObject@@UAE@XZ	; CGdiObject::~CGdiObject
$LN110@DrawFolder:
  001ac	8b 4d f4	 mov	 ecx, DWORD PTR __$EHRec$[ebp]
  001af	64 89 0d 00 00
	00 00		 mov	 DWORD PTR fs:0, ecx
  001b6	59		 pop	 ecx
  001b7	5f		 pop	 edi
  001b8	5e		 pop	 esi
  001b9	8b 4d f0	 mov	 ecx, DWORD PTR __$ArrayPad$[ebp]
  001bc	33 cd		 xor	 ecx, ebp
  001be	e8 00 00 00 00	 call	 @__security_check_cookie@4
  001c3	8b e5		 mov	 esp, ebp
  001c5	5d		 pop	 ebp
  001c6	c2 1c 00	 ret	 28			; 0000001cH
$LN4@DrawFolder:

; 621  : 		}
; 622  : 		else
; 623  : 		{
; 624  : 			//			CPen pn1(PS_SOLID, 1, crBackGroundColor1);
; 625  : 			//			CPen * op = pDC->SelectObject(&pn1);
; 626  : 			//			pDC->MoveTo(rect.left, rect.top);
; 627  : 			//			pDC->LineTo(rect.right, rect.top);
; 628  : 			//			pDC->SelectObject(op);
; 629  : 
; 630  : 			//rect.top ++;
; 631  : 			//			pDC->FillSolidRect(rect, RGB(255,255,255));
; 632  : 			//rect.left +=2;
; 633  : 			//rect.top +=2;
; 634  : 			//			pDC->FillSolidRect(rect, cr3dUnFace);
; 635  : 			//2006.09.25 by LYH   
; 636  : //			CRect rcTemp, rcTemp2;
; 637  : //			CRect rc;
; 638  : //			GetClientRect(rc);
; 639  : //			rcTemp.top = rect.top;
; 640  : //			rcTemp.bottom = rc.bottom + 2;
; 641  : //			rcTemp.left = rect.left;
; 642  : //			rcTemp.right = rect.right;
; 643  : ////@ pDC->FillSolidRect(rcTemp, RGB(239,242,247));
; 644  : //			pDC->FillSolidRect(rcTemp, RGB(0,0,0));
; 645  : //			rcTemp.top = rect.top + 1 ;
; 646  : //			pDC->FillSolidRect(rcTemp, RGB(255,255,255));
; 647  : //			rcTemp2.top = rect.top + 2 ;
; 648  : //			rcTemp2.bottom = rc.bottom + 2;
; 649  : //			rcTemp2.left = rect.left;
; 650  : //			rcTemp2.right = rect.right;
; 651  : //			pDC->FillSolidRect(rcTemp2, RGB(227,227,227));
; 652  : 			//end
; 653  : 			
; 654  : 			pDC->FillSolidRect(rect, crBackGroundColor1);

  001c9	8d 45 10	 lea	 eax, DWORD PTR _rect$[ebp]
  001cc	8b cf		 mov	 ecx, edi
  001ce	50		 push	 eax
  001cf	e8 00 00 00 00	 call	 ?FillSolidRect@CDC@@QAEXPBUtagRECT@@K@Z ; CDC::FillSolidRect

; 655  : 			CRect rectOutLine(rect);
; 656  : 			if(iIdx == arFolder.GetSize() - 1)

  001d4	8b 96 08 01 00
	00		 mov	 edx, DWORD PTR [esi+264]
  001da	0f 10 45 10	 movups	 xmm0, XMMWORD PTR _rect$[ebp]
  001de	8b 8d 54 ff ff
	ff		 mov	 ecx, DWORD PTR _iIdx$GSCopy$1$[ebp]
  001e4	4a		 dec	 edx
  001e5	8b 86 8c 00 00
	00		 mov	 eax, DWORD PTR [esi+140]
  001eb	0f 11 45 e0	 movups	 XMMWORD PTR _rectOutLine$23[ebp], xmm0
  001ef	3b ca		 cmp	 ecx, edx
  001f1	74 0d		 je	 SHORT $LN7@DrawFolder

; 657  : 			{
; 658  : 				pDC->Draw3dRect(rect, cr3dFace, cr3dFace);
; 659  : 			}
; 660  : 			else
; 661  : 			{
; 662  : 				rectOutLine.bottom += 1;

  001f3	8b 45 1c	 mov	 eax, DWORD PTR _rect$[ebp+12]
  001f6	40		 inc	 eax
  001f7	89 45 ec	 mov	 DWORD PTR _rectOutLine$23[ebp+12], eax
  001fa	8b 86 8c 00 00
	00		 mov	 eax, DWORD PTR [esi+140]
$LN7@DrawFolder:

; 663  : 				pDC->Draw3dRect(rectOutLine, cr3dFace, cr3dFace);
; 664  : 			}
; 665  : 
; 666  : 			int obk = pDC->SetBkMode(TRANSPARENT);

  00200	50		 push	 eax
  00201	50		 push	 eax
  00202	3b ca		 cmp	 ecx, edx
  00204	8d 45 e0	 lea	 eax, DWORD PTR _rectOutLine$23[ebp]
  00207	8d 4d 10	 lea	 ecx, DWORD PTR _rect$[ebp]
  0020a	0f 44 c1	 cmove	 eax, ecx
  0020d	8b cf		 mov	 ecx, edi
  0020f	50		 push	 eax
  00210	e8 00 00 00 00	 call	 ?Draw3dRect@CDC@@QAEXPBUtagRECT@@KK@Z ; CDC::Draw3dRect
  00215	6a 01		 push	 1
  00217	8b cf		 mov	 ecx, edi
  00219	e8 00 00 00 00	 call	 ?SetBkMode@CDC@@QAEHH@Z	; CDC::SetBkMode

; 667  : 
; 668  : 			m_pFolderImageList->Draw(pDC, m_nNormal, CPoint(rect.left, rect.top + 1), ILD_TRANSPARENT);

  0021e	8b 96 54 01 00
	00		 mov	 edx, DWORD PTR [esi+340]
  00224	89 85 5c ff ff
	ff		 mov	 DWORD PTR _obk$1$[ebp], eax
  0022a	8b 45 14	 mov	 eax, DWORD PTR _rect$[ebp+4]
  0022d	40		 inc	 eax
; File C:\Program Files (x86)\Microsoft Visual Studio\2019\Community\VC\Tools\MSVC\14.29.30133\atlmfc\include\afxwin1.inl

; 316  : 	{ return this == NULL ? NULL : m_hDC; }

  0022e	85 ff		 test	 edi, edi
  00230	75 04		 jne	 SHORT $LN41@DrawFolder
  00232	33 c9		 xor	 ecx, ecx
  00234	eb 03		 jmp	 SHORT $LN42@DrawFolder
$LN41@DrawFolder:
  00236	8b 4f 04	 mov	 ecx, DWORD PTR [edi+4]
$LN42@DrawFolder:

; 871  : 	{ ASSERT(m_hImageList != NULL); ASSERT(pDC != NULL); return ImageList_Draw(m_hImageList, nImage, pDC->GetSafeHdc(), pt.x, pt.y, nStyle); }

  00239	6a 01		 push	 1
  0023b	50		 push	 eax
  0023c	ff 75 10	 push	 DWORD PTR _rect$[ebp]
  0023f	51		 push	 ecx
  00240	ff b6 58 01 00
	00		 push	 DWORD PTR [esi+344]
  00246	ff 72 04	 push	 DWORD PTR [edx+4]
  00249	ff 15 00 00 00
	00		 call	 DWORD PTR __imp__ImageList_Draw@24
; File D:\git\src\IBK\IBK_DRFN\ProjSrc\SrcDrfn\Chart\Common_ST\STGfxOutBarCtrl.cpp

; 670  : 			CFont * of = pDC->SelectObject(&m_Font);

  0024f	8b 17		 mov	 edx, DWORD PTR [edi]
  00251	8d 86 4c 01 00
	00		 lea	 eax, DWORD PTR [esi+332]
  00257	50		 push	 eax
  00258	8b cf		 mov	 ecx, edi
  0025a	8b 42 30	 mov	 eax, DWORD PTR [edx+48]
  0025d	ff d0		 call	 eax

; 671  : 			pDC->SetTextColor(RGB(0,0,0));

  0025f	8b 17		 mov	 edx, DWORD PTR [edi]
  00261	8b cf		 mov	 ecx, edi
  00263	6a 00		 push	 0
  00265	8b f0		 mov	 esi, eax
  00267	ff 52 38	 call	 DWORD PTR [edx+56]

; 673  : 			pDC->DrawText(CString(pbf->cName), rect, DT_LEFT|DT_VCENTER|DT_SINGLELINE);

  0026a	8b 85 58 ff ff
	ff		 mov	 eax, DWORD PTR _pbf$1$[ebp]
  00270	8d 8d 54 ff ff
	ff		 lea	 ecx, DWORD PTR $T14[ebp]
  00276	83 45 10 19	 add	 DWORD PTR _rect$[ebp], 25 ; 00000019H
  0027a	ff 70 04	 push	 DWORD PTR [eax+4]
  0027d	ff 15 00 00 00
	00		 call	 DWORD PTR __imp_??0?$CStringT@DV?$StrTraitMFC_DLL@DV?$ChTraitsCRT@D@ATL@@@@@ATL@@QAE@PBD@Z
; File C:\Program Files (x86)\Microsoft Visual Studio\2019\Community\VC\Tools\MSVC\14.29.30133\atlmfc\include\atlsimpstr.h

; 519  : 		return( GetData()->nDataLength );

  00283	8b 00		 mov	 eax, DWORD PTR [eax]
; File C:\Program Files (x86)\Microsoft Visual Studio\2019\Community\VC\Tools\MSVC\14.29.30133\atlmfc\include\afxwin1.inl

; 600  : 		return _AFX_FUNCNAME(DrawText)((LPCTSTR)str, (int)str.GetLength(), lpRect, nFormat); }

  00285	8d 4d 10	 lea	 ecx, DWORD PTR _rect$[ebp]
  00288	8b 17		 mov	 edx, DWORD PTR [edi]
  0028a	6a 24		 push	 36			; 00000024H
  0028c	51		 push	 ecx
  0028d	ff 70 f4	 push	 DWORD PTR [eax-12]
  00290	8b cf		 mov	 ecx, edi
; File D:\git\src\IBK\IBK_DRFN\ProjSrc\SrcDrfn\Chart\Common_ST\STGfxOutBarCtrl.cpp

; 673  : 			pDC->DrawText(CString(pbf->cName), rect, DT_LEFT|DT_VCENTER|DT_SINGLELINE);

  00292	c7 45 fc 02 00
	00 00		 mov	 DWORD PTR __$EHRec$[ebp+8], 2
; File C:\Program Files (x86)\Microsoft Visual Studio\2019\Community\VC\Tools\MSVC\14.29.30133\atlmfc\include\afxwin1.inl

; 600  : 		return _AFX_FUNCNAME(DrawText)((LPCTSTR)str, (int)str.GetLength(), lpRect, nFormat); }

  00299	50		 push	 eax
  0029a	ff 52 70	 call	 DWORD PTR [edx+112]
; File D:\git\src\IBK\IBK_DRFN\ProjSrc\SrcDrfn\Chart\Common_ST\STGfxOutBarCtrl.cpp

; 673  : 			pDC->DrawText(CString(pbf->cName), rect, DT_LEFT|DT_VCENTER|DT_SINGLELINE);

  0029d	8d 8d 54 ff ff
	ff		 lea	 ecx, DWORD PTR $T14[ebp]
  002a3	c7 45 fc ff ff
	ff ff		 mov	 DWORD PTR __$EHRec$[ebp+8], -1
  002aa	ff 15 00 00 00
	00		 call	 DWORD PTR __imp_??1?$CStringT@DV?$StrTraitMFC_DLL@DV?$ChTraitsCRT@D@ATL@@@@@ATL@@QAE@XZ

; 674  : 			pDC->SetBkMode(obk);

  002b0	ff b5 5c ff ff
	ff		 push	 DWORD PTR _obk$1$[ebp]
  002b6	8b cf		 mov	 ecx, edi
  002b8	e8 00 00 00 00	 call	 ?SetBkMode@CDC@@QAEHH@Z	; CDC::SetBkMode

; 675  : 			pDC->SelectObject(of);

  002bd	8b 07		 mov	 eax, DWORD PTR [edi]
  002bf	8b cf		 mov	 ecx, edi
  002c1	56		 push	 esi
  002c2	ff 50 30	 call	 DWORD PTR [eax+48]

; 676  : 		}
; 677  : 	}

  002c5	e9 e2 fe ff ff	 jmp	 $LN110@DrawFolder
$LN2@DrawFolder:

; 678  : 	else
; 679  : 	{
; 680  : 		if(m_pFolderImageList)

  002ca	85 c0		 test	 eax, eax
  002cc	0f 84 bb 02 00
	00		 je	 $LN8@DrawFolder
; File C:\Program Files (x86)\Microsoft Visual Studio\2019\Community\VC\Tools\MSVC\14.29.30133\atlmfc\include\afxwin2.inl

; 86   : 	{ ASSERT(::IsWindow(m_hWnd)); ::GetClientRect(m_hWnd, lpRect); }

  002d2	8d 45 e0	 lea	 eax, DWORD PTR _rc$22[ebp]
  002d5	0f 57 c0	 xorps	 xmm0, xmm0
  002d8	50		 push	 eax
  002d9	ff 76 20	 push	 DWORD PTR [esi+32]
; File C:\Program Files (x86)\Microsoft Visual Studio\2019\Community\VC\Tools\MSVC\14.29.30133\atlmfc\include\atltypes.h

; 528  : 	left = 0;

  002dc	0f 11 45 e0	 movups	 XMMWORD PTR _rc$22[ebp], xmm0
; File C:\Program Files (x86)\Microsoft Visual Studio\2019\Community\VC\Tools\MSVC\14.29.30133\atlmfc\include\afxwin2.inl

; 86   : 	{ ASSERT(::IsWindow(m_hWnd)); ::GetClientRect(m_hWnd, lpRect); }

  002e0	ff 15 00 00 00
	00		 call	 DWORD PTR __imp__GetClientRect@8
; File C:\Program Files (x86)\Microsoft Visual Studio\2019\Community\VC\Tools\MSVC\14.29.30133\atlmfc\include\atltypes.h

; 698  : 	::InflateRect(this, -x, -y);

  002e6	6a fc		 push	 -4			; fffffffcH
  002e8	6a fc		 push	 -4			; fffffffcH
  002ea	8d 45 e0	 lea	 eax, DWORD PTR _rc$22[ebp]
  002ed	50		 push	 eax
  002ee	ff 15 00 00 00
	00		 call	 DWORD PTR __imp__InflateRect@12
; File D:\git\src\IBK\IBK_DRFN\ProjSrc\SrcDrfn\Chart\Common_ST\STGfxOutBarCtrl.cpp

; 687  : 			rcTemp.top = rect.top;

  002f4	8b 45 14	 mov	 eax, DWORD PTR _rect$[ebp+4]

; 688  : 			rcTemp.bottom = rc.bottom - (arFolder.GetSize() - iSelFolder - 1)*(iFolderHeight+iGap);

  002f7	8b 8e 08 01 00
	00		 mov	 ecx, DWORD PTR [esi+264]
  002fd	2b 8e 30 01 00
	00		 sub	 ecx, DWORD PTR [esi+304]
  00303	89 45 d4	 mov	 DWORD PTR _rcTemp$21[ebp+4], eax
  00306	49		 dec	 ecx
  00307	8b 86 a0 00 00
	00		 mov	 eax, DWORD PTR [esi+160]
  0030d	03 86 64 01 00
	00		 add	 eax, DWORD PTR [esi+356]
  00313	0f af c8	 imul	 ecx, eax
  00316	8b 45 ec	 mov	 eax, DWORD PTR _rc$22[ebp+12]

; 689  : 			rcTemp.left = rect.left;
; 690  : 			rcTemp.right = rect.right;
; 691  : //@ pDC->FillSolidRect(rcTemp, RGB(239,242,247));
; 692  : 			pDC->FillSolidRect(rcTemp, RGB(0,0,0));

  00319	6a 00		 push	 0
  0031b	2b c1		 sub	 eax, ecx
  0031d	8b cf		 mov	 ecx, edi
  0031f	89 45 dc	 mov	 DWORD PTR _rcTemp$21[ebp+12], eax
  00322	8b 45 10	 mov	 eax, DWORD PTR _rect$[ebp]
  00325	89 45 d0	 mov	 DWORD PTR _rcTemp$21[ebp], eax
  00328	8b 45 18	 mov	 eax, DWORD PTR _rect$[ebp+8]
  0032b	89 45 d8	 mov	 DWORD PTR _rcTemp$21[ebp+8], eax
  0032e	8d 45 d0	 lea	 eax, DWORD PTR _rcTemp$21[ebp]
  00331	50		 push	 eax
  00332	e8 00 00 00 00	 call	 ?FillSolidRect@CDC@@QAEXPBUtagRECT@@K@Z ; CDC::FillSolidRect

; 693  : 			rcTemp.top = rect.top;// + 1 ;

  00337	8b 45 14	 mov	 eax, DWORD PTR _rect$[ebp+4]

; 694  : 			pDC->FillSolidRect(rcTemp, RGB(255,255,255));

  0033a	8b cf		 mov	 ecx, edi
  0033c	89 45 d4	 mov	 DWORD PTR _rcTemp$21[ebp+4], eax
  0033f	8d 45 d0	 lea	 eax, DWORD PTR _rcTemp$21[ebp]
  00342	68 ff ff ff 00	 push	 16777215		; 00ffffffH
  00347	50		 push	 eax
  00348	e8 00 00 00 00	 call	 ?FillSolidRect@CDC@@QAEXPBUtagRECT@@K@Z ; CDC::FillSolidRect

; 695  : 			rcTemp2.top = rect.top;// + 2 ;

  0034d	8b 45 14	 mov	 eax, DWORD PTR _rect$[ebp+4]

; 696  : //@ rcTemp2.bottom = rc.bottom + 2;
; 697  : 			rcTemp2.bottom = rc.bottom - (arFolder.GetSize() - iSelFolder - 1)*(iFolderHeight+iGap);

  00350	8b 8e 08 01 00
	00		 mov	 ecx, DWORD PTR [esi+264]
  00356	2b 8e 30 01 00
	00		 sub	 ecx, DWORD PTR [esi+304]
  0035c	89 45 c4	 mov	 DWORD PTR _rcTemp2$20[ebp+4], eax
  0035f	49		 dec	 ecx
  00360	8b 86 a0 00 00
	00		 mov	 eax, DWORD PTR [esi+160]
  00366	03 86 64 01 00
	00		 add	 eax, DWORD PTR [esi+356]
  0036c	0f af c8	 imul	 ecx, eax
  0036f	8b 45 ec	 mov	 eax, DWORD PTR _rc$22[ebp+12]

; 698  : 			rcTemp2.left = rect.left;
; 699  : 			rcTemp2.right = rect.right;
; 700  : //			pDC->FillSolidRect(rcTemp2, RGB(227,227,227));
; 701  : 			pDC->FillSolidRect(rcTemp2, RGB(255,246,181));//crBackGroundColor1);

  00372	68 ff f6 b5 00	 push	 11925247		; 00b5f6ffH
  00377	2b c1		 sub	 eax, ecx
  00379	8b cf		 mov	 ecx, edi
  0037b	89 45 cc	 mov	 DWORD PTR _rcTemp2$20[ebp+12], eax
  0037e	8b 45 10	 mov	 eax, DWORD PTR _rect$[ebp]
  00381	89 45 c0	 mov	 DWORD PTR _rcTemp2$20[ebp], eax
  00384	8b 45 18	 mov	 eax, DWORD PTR _rect$[ebp+8]
  00387	89 45 c8	 mov	 DWORD PTR _rcTemp2$20[ebp+8], eax
  0038a	8d 45 c0	 lea	 eax, DWORD PTR _rcTemp2$20[ebp]
  0038d	50		 push	 eax
  0038e	e8 00 00 00 00	 call	 ?FillSolidRect@CDC@@QAEXPBUtagRECT@@K@Z ; CDC::FillSolidRect

; 702  : 			pDC->Draw3dRect(rcTemp2, cr3dFace, cr3dFace);

  00393	8b 86 8c 00 00
	00		 mov	 eax, DWORD PTR [esi+140]
  00399	8b cf		 mov	 ecx, edi
  0039b	50		 push	 eax
  0039c	50		 push	 eax
  0039d	8d 45 c0	 lea	 eax, DWORD PTR _rcTemp2$20[ebp]
  003a0	50		 push	 eax
  003a1	e8 00 00 00 00	 call	 ?Draw3dRect@CDC@@QAEXPBUtagRECT@@KK@Z ; CDC::Draw3dRect

; 703  : 			//end
; 704  : 			
; 705  : 			//rect.top ++;
; 706  : 			int obk = pDC->SetBkMode(TRANSPARENT);

  003a6	6a 01		 push	 1
  003a8	8b cf		 mov	 ecx, edi
  003aa	e8 00 00 00 00	 call	 ?SetBkMode@CDC@@QAEHH@Z	; CDC::SetBkMode

; 707  : 			m_pFolderImageList->Draw(pDC, m_nDown, CPoint(rect.left, rect.top + 1), ILD_TRANSPARENT);

  003af	8b 96 54 01 00
	00		 mov	 edx, DWORD PTR [esi+340]
  003b5	89 85 60 ff ff
	ff		 mov	 DWORD PTR _obk$1$[ebp], eax
  003bb	8b 45 14	 mov	 eax, DWORD PTR _rect$[ebp+4]
  003be	40		 inc	 eax
; File C:\Program Files (x86)\Microsoft Visual Studio\2019\Community\VC\Tools\MSVC\14.29.30133\atlmfc\include\afxwin1.inl

; 316  : 	{ return this == NULL ? NULL : m_hDC; }

  003bf	85 ff		 test	 edi, edi
  003c1	75 04		 jne	 SHORT $LN67@DrawFolder
  003c3	33 c9		 xor	 ecx, ecx
  003c5	eb 03		 jmp	 SHORT $LN68@DrawFolder
$LN67@DrawFolder:
  003c7	8b 4f 04	 mov	 ecx, DWORD PTR [edi+4]
$LN68@DrawFolder:

; 871  : 	{ ASSERT(m_hImageList != NULL); ASSERT(pDC != NULL); return ImageList_Draw(m_hImageList, nImage, pDC->GetSafeHdc(), pt.x, pt.y, nStyle); }

  003ca	6a 01		 push	 1
  003cc	50		 push	 eax
  003cd	ff 75 10	 push	 DWORD PTR _rect$[ebp]
  003d0	51		 push	 ecx
  003d1	ff b6 5c 01 00
	00		 push	 DWORD PTR [esi+348]
  003d7	ff 72 04	 push	 DWORD PTR [edx+4]
  003da	ff 15 00 00 00
	00		 call	 DWORD PTR __imp__ImageList_Draw@24
; File D:\git\src\IBK\IBK_DRFN\ProjSrc\SrcDrfn\Chart\Common_ST\STGfxOutBarCtrl.cpp

; 709  : 			CPen pn1(PS_SOLID, 1, RGB(173,173,173));

  003e0	68 ad ad ad 00	 push	 11382189		; 00adadadH
  003e5	6a 01		 push	 1
  003e7	6a 00		 push	 0
  003e9	8d 8d 3c ff ff
	ff		 lea	 ecx, DWORD PTR _pn1$7[ebp]
  003ef	e8 00 00 00 00	 call	 ??0CPen@@QAE@HHK@Z	; CPen::CPen

; 710  : 			CPen* pPnOld = pDC->SelectObject(&pn1);

  003f4	8d 85 3c ff ff
	ff		 lea	 eax, DWORD PTR _pn1$7[ebp]
  003fa	c7 45 fc 03 00
	00 00		 mov	 DWORD PTR __$EHRec$[ebp+8], 3
  00401	50		 push	 eax
  00402	8b cf		 mov	 ecx, edi
  00404	e8 00 00 00 00	 call	 ?SelectObject@CDC@@QAEPAVCPen@@PAV2@@Z ; CDC::SelectObject

; 711  : 			pDC->MoveTo(rect.left, rect.top + iFolderHeight - 1);

  00409	8b 95 5c ff ff
	ff		 mov	 edx, DWORD PTR _this$GSCopy$1$[ebp]
  0040f	8b f0		 mov	 esi, eax
  00411	8b 4d 14	 mov	 ecx, DWORD PTR _rect$[ebp+4]
  00414	8d 85 44 ff ff
	ff		 lea	 eax, DWORD PTR $T9[ebp]
  0041a	49		 dec	 ecx
  0041b	8b 92 a0 00 00
	00		 mov	 edx, DWORD PTR [edx+160]
  00421	03 ca		 add	 ecx, edx
  00423	51		 push	 ecx
  00424	ff 75 10	 push	 DWORD PTR _rect$[ebp]
  00427	8b cf		 mov	 ecx, edi
  00429	50		 push	 eax
  0042a	e8 00 00 00 00	 call	 ?MoveTo@CDC@@QAE?AVCPoint@@HH@Z ; CDC::MoveTo

; 712  : 			pDC->LineTo(rect.right, rect.top + iFolderHeight - 1);

  0042f	8b 85 5c ff ff
	ff		 mov	 eax, DWORD PTR _this$GSCopy$1$[ebp]
  00435	8b 88 a0 00 00
	00		 mov	 ecx, DWORD PTR [eax+160]
  0043b	8b 45 14	 mov	 eax, DWORD PTR _rect$[ebp+4]
  0043e	48		 dec	 eax
  0043f	03 c1		 add	 eax, ecx
  00441	8b cf		 mov	 ecx, edi
  00443	50		 push	 eax
  00444	ff 75 18	 push	 DWORD PTR _rect$[ebp+8]
  00447	e8 00 00 00 00	 call	 ?LineTo@CDC@@QAEHHH@Z	; CDC::LineTo

; 713  : 			pDC->SelectObject(pPnOld);

  0044c	56		 push	 esi
  0044d	8b cf		 mov	 ecx, edi
  0044f	e8 00 00 00 00	 call	 ?SelectObject@CDC@@QAEPAVCPen@@PAV2@@Z ; CDC::SelectObject

; 714  : 
; 715  : //			CFont * of = pDC->SelectObject(CFont::FromHandle((HFONT)GetStockObject(DEFAULT_GUI_FONT)));
; 716  : 			CFont * of = pDC->SelectObject(&m_Font);

  00454	8b 17		 mov	 edx, DWORD PTR [edi]
  00456	8b cf		 mov	 ecx, edi
  00458	8b 85 5c ff ff
	ff		 mov	 eax, DWORD PTR _this$GSCopy$1$[ebp]
  0045e	05 4c 01 00 00	 add	 eax, 332		; 0000014cH
  00463	50		 push	 eax
  00464	8b 42 30	 mov	 eax, DWORD PTR [edx+48]
  00467	ff d0		 call	 eax
  00469	8b f0		 mov	 esi, eax
; File C:\Program Files (x86)\Microsoft Visual Studio\2019\Community\VC\Tools\MSVC\14.29.30133\atlmfc\include\afxwin1.inl

; 70   : 	{ m_hObject = NULL; }

  0046b	c7 85 50 ff ff
	ff 00 00 00 00	 mov	 DWORD PTR _boldfont$11[ebp+4], 0

; 153  : 	{ }

  00475	c7 85 4c ff ff
	ff 00 00 00 00	 mov	 DWORD PTR _boldfont$11[ebp], OFFSET ??_7CFont@@6B@
; File D:\git\src\IBK\IBK_DRFN\ProjSrc\SrcDrfn\Chart\Common_ST\STGfxOutBarCtrl.cpp

; 719  : 			memset(&lfont, 0X00,sizeof(LOGFONT));

  0047f	6a 3c		 push	 60			; 0000003cH
  00481	8d 85 64 ff ff
	ff		 lea	 eax, DWORD PTR _lfont$17[ebp]
  00487	c6 45 fc 04	 mov	 BYTE PTR __$EHRec$[ebp+8], 4
  0048b	6a 00		 push	 0
  0048d	50		 push	 eax
  0048e	e8 00 00 00 00	 call	 _memset
  00493	83 c4 0c	 add	 esp, 12			; 0000000cH
; File C:\Program Files (x86)\Microsoft Visual Studio\2019\Community\VC\Tools\MSVC\14.29.30133\atlmfc\include\afxwin1.inl

; 169  : 		return ::GetObject(m_hObject, sizeof(LOGFONT), pLogFont); }

  00496	8d 85 64 ff ff
	ff		 lea	 eax, DWORD PTR _lfont$17[ebp]
  0049c	50		 push	 eax
  0049d	6a 3c		 push	 60			; 0000003cH
  0049f	ff 76 04	 push	 DWORD PTR [esi+4]
  004a2	ff 15 00 00 00
	00		 call	 DWORD PTR __imp__GetObjectA@12
; File D:\git\src\IBK\IBK_DRFN\ProjSrc\SrcDrfn\Chart\Common_ST\STGfxOutBarCtrl.cpp

; 725  : 			strcpy(lfont.lfFaceName, "");

  004a8	a1 00 00 00 00	 mov	 eax, DWORD PTR ??_C@_06MFMMLLPC@?$LB?$LM?$LI?$LC?C?$LM@
  004ad	83 ad 64 ff ff
	ff 04		 sub	 DWORD PTR _lfont$17[ebp], 4
  004b4	83 ad 68 ff ff
	ff 02		 sub	 DWORD PTR _lfont$17[ebp+4], 2
  004bb	89 45 80	 mov	 DWORD PTR _lfont$17[ebp+28], eax
  004be	66 a1 04 00 00
	00		 mov	 ax, WORD PTR ??_C@_06MFMMLLPC@?$LB?$LM?$LI?$LC?C?$LM@+4
  004c4	66 89 45 84	 mov	 WORD PTR _lfont$17[ebp+32], ax
  004c8	a0 06 00 00 00	 mov	 al, BYTE PTR ??_C@_06MFMMLLPC@?$LB?$LM?$LI?$LC?C?$LM@+6
  004cd	88 45 86	 mov	 BYTE PTR _lfont$17[ebp+34], al
; File C:\Program Files (x86)\Microsoft Visual Studio\2019\Community\VC\Tools\MSVC\14.29.30133\atlmfc\include\afxwin1.inl

; 157  : 	{ return Attach(::CreateFontIndirect(lpLogFont)); }

  004d0	8d 85 64 ff ff
	ff		 lea	 eax, DWORD PTR _lfont$17[ebp]
  004d6	50		 push	 eax
; File D:\git\src\IBK\IBK_DRFN\ProjSrc\SrcDrfn\Chart\Common_ST\STGfxOutBarCtrl.cpp

; 723  : 			lfont.lfWeight = FW_BOLD;

  004d7	c7 85 74 ff ff
	ff bc 02 00 00	 mov	 DWORD PTR _lfont$17[ebp+16], 700 ; 000002bcH
; File C:\Program Files (x86)\Microsoft Visual Studio\2019\Community\VC\Tools\MSVC\14.29.30133\atlmfc\include\afxwin1.inl

; 157  : 	{ return Attach(::CreateFontIndirect(lpLogFont)); }

  004e1	ff 15 00 00 00
	00		 call	 DWORD PTR __imp__CreateFontIndirectA@4
  004e7	50		 push	 eax
  004e8	8d 8d 4c ff ff
	ff		 lea	 ecx, DWORD PTR _boldfont$11[ebp]
  004ee	e8 00 00 00 00	 call	 ?Attach@CGdiObject@@QAEHPAX@Z ; CGdiObject::Attach
; File D:\git\src\IBK\IBK_DRFN\ProjSrc\SrcDrfn\Chart\Common_ST\STGfxOutBarCtrl.cpp

; 727  : 			of = pDC->SelectObject(&boldfont);

  004f3	8b 07		 mov	 eax, DWORD PTR [edi]
  004f5	8b 40 30	 mov	 eax, DWORD PTR [eax+48]
  004f8	8d 8d 4c ff ff
	ff		 lea	 ecx, DWORD PTR _boldfont$11[ebp]
  004fe	51		 push	 ecx
  004ff	8b cf		 mov	 ecx, edi
  00501	ff d0		 call	 eax

; 728  : 			rect.left += 25;
; 729  : 			pDC->SetTextColor(RGB(0,0,0));

  00503	8b 17		 mov	 edx, DWORD PTR [edi]
  00505	8b cf		 mov	 ecx, edi
  00507	83 45 10 19	 add	 DWORD PTR _rect$[ebp], 25 ; 00000019H
  0050b	8b f0		 mov	 esi, eax
  0050d	6a 00		 push	 0
  0050f	ff 52 38	 call	 DWORD PTR [edx+56]

; 730  : 			pDC->DrawText(CString(pbf->cName), rect, DT_LEFT|DT_VCENTER|DT_SINGLELINE);

  00512	8b 85 58 ff ff
	ff		 mov	 eax, DWORD PTR _pbf$1$[ebp]
  00518	8d 8d 54 ff ff
	ff		 lea	 ecx, DWORD PTR $T13[ebp]
  0051e	ff 70 04	 push	 DWORD PTR [eax+4]
  00521	ff 15 00 00 00
	00		 call	 DWORD PTR __imp_??0?$CStringT@DV?$StrTraitMFC_DLL@DV?$ChTraitsCRT@D@ATL@@@@@ATL@@QAE@PBD@Z
; File C:\Program Files (x86)\Microsoft Visual Studio\2019\Community\VC\Tools\MSVC\14.29.30133\atlmfc\include\atlsimpstr.h

; 519  : 		return( GetData()->nDataLength );

  00527	8b 00		 mov	 eax, DWORD PTR [eax]
; File C:\Program Files (x86)\Microsoft Visual Studio\2019\Community\VC\Tools\MSVC\14.29.30133\atlmfc\include\afxwin1.inl

; 600  : 		return _AFX_FUNCNAME(DrawText)((LPCTSTR)str, (int)str.GetLength(), lpRect, nFormat); }

  00529	8d 4d 10	 lea	 ecx, DWORD PTR _rect$[ebp]
  0052c	8b 17		 mov	 edx, DWORD PTR [edi]
  0052e	6a 24		 push	 36			; 00000024H
  00530	51		 push	 ecx
  00531	ff 70 f4	 push	 DWORD PTR [eax-12]
  00534	8b cf		 mov	 ecx, edi
; File D:\git\src\IBK\IBK_DRFN\ProjSrc\SrcDrfn\Chart\Common_ST\STGfxOutBarCtrl.cpp

; 730  : 			pDC->DrawText(CString(pbf->cName), rect, DT_LEFT|DT_VCENTER|DT_SINGLELINE);

  00536	c6 45 fc 05	 mov	 BYTE PTR __$EHRec$[ebp+8], 5
; File C:\Program Files (x86)\Microsoft Visual Studio\2019\Community\VC\Tools\MSVC\14.29.30133\atlmfc\include\afxwin1.inl

; 600  : 		return _AFX_FUNCNAME(DrawText)((LPCTSTR)str, (int)str.GetLength(), lpRect, nFormat); }

  0053a	50		 push	 eax
  0053b	ff 52 70	 call	 DWORD PTR [edx+112]
; File D:\git\src\IBK\IBK_DRFN\ProjSrc\SrcDrfn\Chart\Common_ST\STGfxOutBarCtrl.cpp

; 730  : 			pDC->DrawText(CString(pbf->cName), rect, DT_LEFT|DT_VCENTER|DT_SINGLELINE);

  0053e	8d 8d 54 ff ff
	ff		 lea	 ecx, DWORD PTR $T13[ebp]
  00544	c6 45 fc 04	 mov	 BYTE PTR __$EHRec$[ebp+8], 4
  00548	ff 15 00 00 00
	00		 call	 DWORD PTR __imp_??1?$CStringT@DV?$StrTraitMFC_DLL@DV?$ChTraitsCRT@D@ATL@@@@@ATL@@QAE@XZ

; 731  : 			pDC->SetBkMode(obk);

  0054e	ff b5 60 ff ff
	ff		 push	 DWORD PTR _obk$1$[ebp]
  00554	8b cf		 mov	 ecx, edi
  00556	e8 00 00 00 00	 call	 ?SetBkMode@CDC@@QAEHH@Z	; CDC::SetBkMode

; 732  : 			pDC->SelectObject(of);

  0055b	8b 07		 mov	 eax, DWORD PTR [edi]
  0055d	8b cf		 mov	 ecx, edi
  0055f	56		 push	 esi
  00560	ff 50 30	 call	 DWORD PTR [eax+48]
; File C:\Program Files (x86)\Microsoft Visual Studio\2019\Community\VC\Tools\MSVC\14.29.30133\atlmfc\include\afxwin1.inl

; 155  : 	{ }

  00563	8d 8d 4c ff ff
	ff		 lea	 ecx, DWORD PTR _boldfont$11[ebp]
  00569	c7 85 4c ff ff
	ff 00 00 00 00	 mov	 DWORD PTR _boldfont$11[ebp], OFFSET ??_7CFont@@6B@
  00573	e8 00 00 00 00	 call	 ??1CGdiObject@@UAE@XZ	; CGdiObject::~CGdiObject

; 106  : 	{ }

  00578	c7 85 3c ff ff
	ff 00 00 00 00	 mov	 DWORD PTR _pn1$7[ebp], OFFSET ??_7CPen@@6B@
  00582	8d 8d 3c ff ff
	ff		 lea	 ecx, DWORD PTR _pn1$7[ebp]
; File D:\git\src\IBK\IBK_DRFN\ProjSrc\SrcDrfn\Chart\Common_ST\STGfxOutBarCtrl.cpp

; 733  : 		}

  00588	e9 1a fc ff ff	 jmp	 $LN139@DrawFolder
$LN8@DrawFolder:

; 734  : 		else
; 735  : 		{
; 736  : 			CPen pn1(PS_SOLID, 1, crBackGroundColor1);

  0058d	ff b6 84 00 00
	00		 push	 DWORD PTR [esi+132]
  00593	8d 8d 44 ff ff
	ff		 lea	 ecx, DWORD PTR _pn1$8[ebp]
  00599	6a 01		 push	 1
  0059b	6a 00		 push	 0
  0059d	e8 00 00 00 00	 call	 ??0CPen@@QAE@HHK@Z	; CPen::CPen

; 737  : 			CPen * op = pDC->SelectObject(&pn1);

  005a2	8d 85 44 ff ff
	ff		 lea	 eax, DWORD PTR _pn1$8[ebp]
  005a8	c7 45 fc 06 00
	00 00		 mov	 DWORD PTR __$EHRec$[ebp+8], 6
  005af	50		 push	 eax
  005b0	8b cf		 mov	 ecx, edi
  005b2	e8 00 00 00 00	 call	 ?SelectObject@CDC@@QAEPAVCPen@@PAV2@@Z ; CDC::SelectObject

; 738  : 			pDC->MoveTo(rect.left, rect.top);

  005b7	ff 75 14	 push	 DWORD PTR _rect$[ebp+4]
  005ba	8b f0		 mov	 esi, eax
  005bc	8b cf		 mov	 ecx, edi
  005be	ff 75 10	 push	 DWORD PTR _rect$[ebp]
  005c1	8d 85 3c ff ff
	ff		 lea	 eax, DWORD PTR $T6[ebp]
  005c7	50		 push	 eax
  005c8	e8 00 00 00 00	 call	 ?MoveTo@CDC@@QAE?AVCPoint@@HH@Z ; CDC::MoveTo

; 739  : 			pDC->LineTo(rect.right, rect.top);

  005cd	ff 75 14	 push	 DWORD PTR _rect$[ebp+4]
  005d0	8b cf		 mov	 ecx, edi
  005d2	ff 75 18	 push	 DWORD PTR _rect$[ebp+8]
  005d5	e8 00 00 00 00	 call	 ?LineTo@CDC@@QAEHHH@Z	; CDC::LineTo

; 740  : 			pDC->SelectObject(op);

  005da	56		 push	 esi
  005db	8b cf		 mov	 ecx, edi
  005dd	e8 00 00 00 00	 call	 ?SelectObject@CDC@@QAEPAVCPen@@PAV2@@Z ; CDC::SelectObject
; File C:\Program Files (x86)\Microsoft Visual Studio\2019\Community\VC\Tools\MSVC\14.29.30133\atlmfc\include\afxwin2.inl

; 86   : 	{ ASSERT(::IsWindow(m_hWnd)); ::GetClientRect(m_hWnd, lpRect); }

  005e2	8d 45 a0	 lea	 eax, DWORD PTR _rc$18[ebp]
  005e5	0f 57 c0	 xorps	 xmm0, xmm0
  005e8	50		 push	 eax
  005e9	8b 85 5c ff ff
	ff		 mov	 eax, DWORD PTR _this$GSCopy$1$[ebp]
; File C:\Program Files (x86)\Microsoft Visual Studio\2019\Community\VC\Tools\MSVC\14.29.30133\atlmfc\include\atltypes.h

; 528  : 	left = 0;

  005ef	0f 11 45 a0	 movups	 XMMWORD PTR _rc$18[ebp], xmm0
; File C:\Program Files (x86)\Microsoft Visual Studio\2019\Community\VC\Tools\MSVC\14.29.30133\atlmfc\include\afxwin2.inl

; 86   : 	{ ASSERT(::IsWindow(m_hWnd)); ::GetClientRect(m_hWnd, lpRect); }

  005f3	ff 70 20	 push	 DWORD PTR [eax+32]
  005f6	ff 15 00 00 00
	00		 call	 DWORD PTR __imp__GetClientRect@8
; File C:\Program Files (x86)\Microsoft Visual Studio\2019\Community\VC\Tools\MSVC\14.29.30133\atlmfc\include\atltypes.h

; 698  : 	::InflateRect(this, -x, -y);

  005fc	8b 3d 00 00 00
	00		 mov	 edi, DWORD PTR __imp__InflateRect@12
  00602	8d 45 a0	 lea	 eax, DWORD PTR _rc$18[ebp]
  00605	6a fc		 push	 -4			; fffffffcH
  00607	6a fc		 push	 -4			; fffffffcH
  00609	50		 push	 eax
  0060a	ff d7		 call	 edi
; File D:\git\src\IBK\IBK_DRFN\ProjSrc\SrcDrfn\Chart\Common_ST\STGfxOutBarCtrl.cpp

; 747  : 			rcTemp.top = (iFolderHeight+iGap) * (iSelFolder + 1);

  0060c	8b 95 5c ff ff
	ff		 mov	 edx, DWORD PTR _this$GSCopy$1$[ebp]

; 748  : 			rcTemp.bottom = rc.bottom - (arFolder.GetSize() - iSelFolder - 1)*(iFolderHeight+iGap);
; 749  : 			rcTemp.left = rect.left;
; 750  : 			rcTemp.right = rect.right;
; 751  : 			pDC->FillSolidRect(rcTemp, RGB(239,242,247));

  00612	68 ef f2 f7 00	 push	 16249583		; 00f7f2efH
  00617	8b 8a 30 01 00
	00		 mov	 ecx, DWORD PTR [edx+304]
  0061d	8b b2 a0 00 00
	00		 mov	 esi, DWORD PTR [edx+160]
  00623	03 b2 64 01 00
	00		 add	 esi, DWORD PTR [edx+356]
  00629	8b 92 08 01 00
	00		 mov	 edx, DWORD PTR [edx+264]
  0062f	8d 41 01	 lea	 eax, DWORD PTR [ecx+1]
  00632	2b d1		 sub	 edx, ecx
  00634	0f af c6	 imul	 eax, esi
  00637	4a		 dec	 edx
  00638	0f af d6	 imul	 edx, esi
  0063b	8b b5 60 ff ff
	ff		 mov	 esi, DWORD PTR _pDC$GSCopy$1$[ebp]
  00641	8b ce		 mov	 ecx, esi
  00643	89 45 b4	 mov	 DWORD PTR _rcTemp$19[ebp+4], eax
  00646	8b 45 ac	 mov	 eax, DWORD PTR _rc$18[ebp+12]
  00649	2b c2		 sub	 eax, edx
  0064b	89 45 bc	 mov	 DWORD PTR _rcTemp$19[ebp+12], eax
  0064e	8b 45 10	 mov	 eax, DWORD PTR _rect$[ebp]
  00651	89 45 b0	 mov	 DWORD PTR _rcTemp$19[ebp], eax
  00654	8b 45 18	 mov	 eax, DWORD PTR _rect$[ebp+8]
  00657	89 45 b8	 mov	 DWORD PTR _rcTemp$19[ebp+8], eax
  0065a	8d 45 b0	 lea	 eax, DWORD PTR _rcTemp$19[ebp]
  0065d	50		 push	 eax
  0065e	e8 00 00 00 00	 call	 ?FillSolidRect@CDC@@QAEXPBUtagRECT@@K@Z ; CDC::FillSolidRect

; 752  : 			//end
; 753  : 
; 754  : 			rect.top ++;

  00663	ff 45 14	 inc	 DWORD PTR _rect$[ebp+4]

; 755  : 			pDC->FillSolidRect(rect, RGB(255,255,255));

  00666	8d 45 10	 lea	 eax, DWORD PTR _rect$[ebp]
  00669	68 ff ff ff 00	 push	 16777215		; 00ffffffH
  0066e	50		 push	 eax
  0066f	8b ce		 mov	 ecx, esi
  00671	e8 00 00 00 00	 call	 ?FillSolidRect@CDC@@QAEXPBUtagRECT@@K@Z ; CDC::FillSolidRect

; 756  : 			pDC->Draw3dRect(rect, crHilightBorder, crBackGroundColor1);

  00676	8b 85 5c ff ff
	ff		 mov	 eax, DWORD PTR _this$GSCopy$1$[ebp]
  0067c	8b ce		 mov	 ecx, esi
  0067e	ff b0 84 00 00
	00		 push	 DWORD PTR [eax+132]
  00684	ff b0 94 00 00
	00		 push	 DWORD PTR [eax+148]
  0068a	8d 45 10	 lea	 eax, DWORD PTR _rect$[ebp]
  0068d	50		 push	 eax
  0068e	e8 00 00 00 00	 call	 ?Draw3dRect@CDC@@QAEXPBUtagRECT@@KK@Z ; CDC::Draw3dRect
; File C:\Program Files (x86)\Microsoft Visual Studio\2019\Community\VC\Tools\MSVC\14.29.30133\atlmfc\include\atltypes.h

; 686  : 	::InflateRect(this, x, y);

  00693	6a ff		 push	 -1
  00695	6a ff		 push	 -1
  00697	8d 45 10	 lea	 eax, DWORD PTR _rect$[ebp]
  0069a	50		 push	 eax
  0069b	ff d7		 call	 edi
; File D:\git\src\IBK\IBK_DRFN\ProjSrc\SrcDrfn\Chart\Common_ST\STGfxOutBarCtrl.cpp

; 758  : 			pDC->FillSolidRect(rect, cr3dFace);

  0069d	8b 85 5c ff ff
	ff		 mov	 eax, DWORD PTR _this$GSCopy$1$[ebp]
  006a3	ff b0 8c 00 00
	00		 push	 DWORD PTR [eax+140]
  006a9	8d 45 10	 lea	 eax, DWORD PTR _rect$[ebp]
  006ac	8b ce		 mov	 ecx, esi
  006ae	50		 push	 eax
  006af	e8 00 00 00 00	 call	 ?FillSolidRect@CDC@@QAEXPBUtagRECT@@K@Z ; CDC::FillSolidRect

; 759  : 			int obk = pDC->SetBkMode(TRANSPARENT);

  006b4	6a 01		 push	 1
  006b6	8b ce		 mov	 ecx, esi
  006b8	e8 00 00 00 00	 call	 ?SetBkMode@CDC@@QAEHH@Z	; CDC::SetBkMode

; 760  : //			CFont * of = pDC->SelectObject(CFont::FromHandle((HFONT)GetStockObject(DEFAULT_GUI_FONT)));
; 761  : 			CFont * of = pDC->SelectObject(&m_Font);

  006bd	8b 16		 mov	 edx, DWORD PTR [esi]
  006bf	8b f8		 mov	 edi, eax
  006c1	8b 8d 5c ff ff
	ff		 mov	 ecx, DWORD PTR _this$GSCopy$1$[ebp]
  006c7	81 c1 4c 01 00
	00		 add	 ecx, 332		; 0000014cH
  006cd	51		 push	 ecx
  006ce	8b 52 30	 mov	 edx, DWORD PTR [edx+48]
  006d1	8b ce		 mov	 ecx, esi
  006d3	ff d2		 call	 edx

; 762  : 			rect.left += 25;

  006d5	83 45 10 19	 add	 DWORD PTR _rect$[ebp], 25 ; 00000019H
  006d9	8b f0		 mov	 esi, eax

; 763  : 			pDC->SetTextColor(RGB(0,0,0));

  006db	8b 85 60 ff ff
	ff		 mov	 eax, DWORD PTR _pDC$GSCopy$1$[ebp]
  006e1	8b c8		 mov	 ecx, eax
  006e3	6a 00		 push	 0
  006e5	8b 10		 mov	 edx, DWORD PTR [eax]
  006e7	ff 52 38	 call	 DWORD PTR [edx+56]

; 764  : 			pDC->DrawText(CString(pbf->cName), rect, DT_CENTER|DT_VCENTER|DT_SINGLELINE);

  006ea	8b 85 58 ff ff
	ff		 mov	 eax, DWORD PTR _pbf$1$[ebp]
  006f0	8d 8d 58 ff ff
	ff		 lea	 ecx, DWORD PTR $T15[ebp]
  006f6	ff 70 04	 push	 DWORD PTR [eax+4]
  006f9	ff 15 00 00 00
	00		 call	 DWORD PTR __imp_??0?$CStringT@DV?$StrTraitMFC_DLL@DV?$ChTraitsCRT@D@ATL@@@@@ATL@@QAE@PBD@Z
; File C:\Program Files (x86)\Microsoft Visual Studio\2019\Community\VC\Tools\MSVC\14.29.30133\atlmfc\include\afxwin1.inl

; 600  : 		return _AFX_FUNCNAME(DrawText)((LPCTSTR)str, (int)str.GetLength(), lpRect, nFormat); }

  006ff	8b 8d 60 ff ff
	ff		 mov	 ecx, DWORD PTR _pDC$GSCopy$1$[ebp]
; File C:\Program Files (x86)\Microsoft Visual Studio\2019\Community\VC\Tools\MSVC\14.29.30133\atlmfc\include\atlsimpstr.h

; 519  : 		return( GetData()->nDataLength );

  00705	8b 00		 mov	 eax, DWORD PTR [eax]
; File C:\Program Files (x86)\Microsoft Visual Studio\2019\Community\VC\Tools\MSVC\14.29.30133\atlmfc\include\afxwin1.inl

; 600  : 		return _AFX_FUNCNAME(DrawText)((LPCTSTR)str, (int)str.GetLength(), lpRect, nFormat); }

  00707	6a 25		 push	 37			; 00000025H
; File D:\git\src\IBK\IBK_DRFN\ProjSrc\SrcDrfn\Chart\Common_ST\STGfxOutBarCtrl.cpp

; 764  : 			pDC->DrawText(CString(pbf->cName), rect, DT_CENTER|DT_VCENTER|DT_SINGLELINE);

  00709	c6 45 fc 07	 mov	 BYTE PTR __$EHRec$[ebp+8], 7
; File C:\Program Files (x86)\Microsoft Visual Studio\2019\Community\VC\Tools\MSVC\14.29.30133\atlmfc\include\afxwin1.inl

; 600  : 		return _AFX_FUNCNAME(DrawText)((LPCTSTR)str, (int)str.GetLength(), lpRect, nFormat); }

  0070d	8b 11		 mov	 edx, DWORD PTR [ecx]
  0070f	8d 4d 10	 lea	 ecx, DWORD PTR _rect$[ebp]
  00712	51		 push	 ecx
  00713	ff 70 f4	 push	 DWORD PTR [eax-12]
  00716	8b 8d 60 ff ff
	ff		 mov	 ecx, DWORD PTR _pDC$GSCopy$1$[ebp]
  0071c	50		 push	 eax
  0071d	ff 52 70	 call	 DWORD PTR [edx+112]
; File D:\git\src\IBK\IBK_DRFN\ProjSrc\SrcDrfn\Chart\Common_ST\STGfxOutBarCtrl.cpp

; 764  : 			pDC->DrawText(CString(pbf->cName), rect, DT_CENTER|DT_VCENTER|DT_SINGLELINE);

  00720	8d 8d 58 ff ff
	ff		 lea	 ecx, DWORD PTR $T15[ebp]
  00726	c6 45 fc 06	 mov	 BYTE PTR __$EHRec$[ebp+8], 6
  0072a	ff 15 00 00 00
	00		 call	 DWORD PTR __imp_??1?$CStringT@DV?$StrTraitMFC_DLL@DV?$ChTraitsCRT@D@ATL@@@@@ATL@@QAE@XZ

; 765  : 			pDC->SetBkMode(obk);

  00730	57		 push	 edi
  00731	8b bd 60 ff ff
	ff		 mov	 edi, DWORD PTR _pDC$GSCopy$1$[ebp]
  00737	8b cf		 mov	 ecx, edi
  00739	e8 00 00 00 00	 call	 ?SetBkMode@CDC@@QAEHH@Z	; CDC::SetBkMode

; 766  : 			pDC->SelectObject(of);

  0073e	8b 07		 mov	 eax, DWORD PTR [edi]
  00740	8b cf		 mov	 ecx, edi
  00742	56		 push	 esi
  00743	ff 50 30	 call	 DWORD PTR [eax+48]
; File C:\Program Files (x86)\Microsoft Visual Studio\2019\Community\VC\Tools\MSVC\14.29.30133\atlmfc\include\afxwin1.inl

; 106  : 	{ }

  00746	c7 85 44 ff ff
	ff 00 00 00 00	 mov	 DWORD PTR _pn1$8[ebp], OFFSET ??_7CPen@@6B@
  00750	8d 8d 44 ff ff
	ff		 lea	 ecx, DWORD PTR _pn1$8[ebp]
  00756	e9 4c fa ff ff	 jmp	 $LN139@DrawFolder
$LN21@DrawFolder:
; File C:\Program Files (x86)\Microsoft Visual Studio\2019\Community\VC\Tools\MSVC\14.29.30133\atlmfc\include\afxcoll.inl

; 204  : 			AfxThrowInvalidArgException();

  0075b	e8 00 00 00 00	 call	 ?AfxThrowInvalidArgException@@YGXXZ ; AfxThrowInvalidArgException
$LN138@DrawFolder:
  00760	cc		 int	 3
_TEXT	ENDS
;	COMDAT text$x
text$x	SEGMENT
__unwindfunclet$?DrawFolder@CSTGfxOutBarCtrl@@IAEXPAVCDC@@HVCRect@@_N@Z$0:
  00000	8d 8d 4c ff ff
	ff		 lea	 ecx, DWORD PTR _pn1$12[ebp]
  00006	e9 00 00 00 00	 jmp	 ??1CPen@@UAE@XZ		; CPen::~CPen
__unwindfunclet$?DrawFolder@CSTGfxOutBarCtrl@@IAEXPAVCDC@@HVCRect@@_N@Z$1:
  0000b	8d 8d 58 ff ff
	ff		 lea	 ecx, DWORD PTR $T16[ebp]
  00011	ff 25 00 00 00
	00		 jmp	 DWORD PTR __imp_??1?$CStringT@DV?$StrTraitMFC_DLL@DV?$ChTraitsCRT@D@ATL@@@@@ATL@@QAE@XZ
__unwindfunclet$?DrawFolder@CSTGfxOutBarCtrl@@IAEXPAVCDC@@HVCRect@@_N@Z$2:
  00017	8d 8d 54 ff ff
	ff		 lea	 ecx, DWORD PTR $T14[ebp]
  0001d	ff 25 00 00 00
	00		 jmp	 DWORD PTR __imp_??1?$CStringT@DV?$StrTraitMFC_DLL@DV?$ChTraitsCRT@D@ATL@@@@@ATL@@QAE@XZ
__unwindfunclet$?DrawFolder@CSTGfxOutBarCtrl@@IAEXPAVCDC@@HVCRect@@_N@Z$3:
  00023	8d 8d 3c ff ff
	ff		 lea	 ecx, DWORD PTR _pn1$7[ebp]
  00029	e9 00 00 00 00	 jmp	 ??1CPen@@UAE@XZ		; CPen::~CPen
__unwindfunclet$?DrawFolder@CSTGfxOutBarCtrl@@IAEXPAVCDC@@HVCRect@@_N@Z$4:
  0002e	8d 8d 4c ff ff
	ff		 lea	 ecx, DWORD PTR _boldfont$11[ebp]
  00034	e9 00 00 00 00	 jmp	 ??1CFont@@UAE@XZ	; CFont::~CFont
__unwindfunclet$?DrawFolder@CSTGfxOutBarCtrl@@IAEXPAVCDC@@HVCRect@@_N@Z$5:
  00039	8d 8d 54 ff ff
	ff		 lea	 ecx, DWORD PTR $T13[ebp]
  0003f	ff 25 00 00 00
	00		 jmp	 DWORD PTR __imp_??1?$CStringT@DV?$StrTraitMFC_DLL@DV?$ChTraitsCRT@D@ATL@@@@@ATL@@QAE@XZ
__unwindfunclet$?DrawFolder@CSTGfxOutBarCtrl@@IAEXPAVCDC@@HVCRect@@_N@Z$6:
  00045	8d 8d 44 ff ff
	ff		 lea	 ecx, DWORD PTR _pn1$8[ebp]
  0004b	e9 00 00 00 00	 jmp	 ??1CPen@@UAE@XZ		; CPen::~CPen
__unwindfunclet$?DrawFolder@CSTGfxOutBarCtrl@@IAEXPAVCDC@@HVCRect@@_N@Z$7:
  00050	8d 8d 58 ff ff
	ff		 lea	 ecx, DWORD PTR $T15[ebp]
  00056	ff 25 00 00 00
	00		 jmp	 DWORD PTR __imp_??1?$CStringT@DV?$StrTraitMFC_DLL@DV?$ChTraitsCRT@D@ATL@@@@@ATL@@QAE@XZ
  0005c	cc		 int	 3
  0005d	cc		 int	 3
  0005e	cc		 int	 3
  0005f	cc		 int	 3
  00060	cc		 int	 3
__ehhandler$?DrawFolder@CSTGfxOutBarCtrl@@IAEXPAVCDC@@HVCRect@@_N@Z:
  00061	90		 npad	 1
  00062	90		 npad	 1
  00063	8b 54 24 08	 mov	 edx, DWORD PTR [esp+8]
  00067	8d 42 0c	 lea	 eax, DWORD PTR [edx+12]
  0006a	8b 8a 3c ff ff
	ff		 mov	 ecx, DWORD PTR [edx-196]
  00070	33 c8		 xor	 ecx, eax
  00072	e8 00 00 00 00	 call	 @__security_check_cookie@4
  00077	8b 4a fc	 mov	 ecx, DWORD PTR [edx-4]
  0007a	33 c8		 xor	 ecx, eax
  0007c	e8 00 00 00 00	 call	 @__security_check_cookie@4
  00081	b8 00 00 00 00	 mov	 eax, OFFSET __ehfuncinfo$?DrawFolder@CSTGfxOutBarCtrl@@IAEXPAVCDC@@HVCRect@@_N@Z
  00086	e9 00 00 00 00	 jmp	 ___CxxFrameHandler3
text$x	ENDS
?DrawFolder@CSTGfxOutBarCtrl@@IAEXPAVCDC@@HVCRect@@_N@Z ENDP ; CSTGfxOutBarCtrl::DrawFolder
; Function compile flags: /Ogtp
; File D:\git\src\IBK\IBK_DRFN\ProjSrc\SrcDrfn\Chart\Common_ST\STGfxOutBarCtrl.cpp
;	COMDAT ?SetFolderImageList@CSTGfxOutBarCtrl@@QAEXPAVCImageList@@HHH@Z
_TEXT	SEGMENT
_pImageList$ = 8					; size = 4
_nNormal$ = 12						; size = 4
_nDown$ = 16						; size = 4
_nOver$ = 20						; size = 4
?SetFolderImageList@CSTGfxOutBarCtrl@@QAEXPAVCImageList@@HHH@Z PROC ; CSTGfxOutBarCtrl::SetFolderImageList, COMDAT
; _this$ = ecx

; 1515 : {

  00000	55		 push	 ebp
  00001	8b ec		 mov	 ebp, esp

; 1516 : 	m_pFolderImageList = pImageList;

  00003	8b 45 08	 mov	 eax, DWORD PTR _pImageList$[ebp]
  00006	89 81 54 01 00
	00		 mov	 DWORD PTR [ecx+340], eax

; 1517 : 	m_nNormal = nNormal;

  0000c	8b 45 0c	 mov	 eax, DWORD PTR _nNormal$[ebp]
  0000f	89 81 58 01 00
	00		 mov	 DWORD PTR [ecx+344], eax

; 1518 : 	m_nDown = nDown;

  00015	8b 45 10	 mov	 eax, DWORD PTR _nDown$[ebp]
  00018	89 81 5c 01 00
	00		 mov	 DWORD PTR [ecx+348], eax

; 1519 : 	m_nOver = nOver;

  0001e	8b 45 14	 mov	 eax, DWORD PTR _nOver$[ebp]
  00021	89 81 60 01 00
	00		 mov	 DWORD PTR [ecx+352], eax

; 1520 : }

  00027	5d		 pop	 ebp
  00028	c2 10 00	 ret	 16			; 00000010H
?SetFolderImageList@CSTGfxOutBarCtrl@@QAEXPAVCImageList@@HHH@Z ENDP ; CSTGfxOutBarCtrl::SetFolderImageList
_TEXT	ENDS
; Function compile flags: /Ogtp
; File D:\git\src\IBK\IBK_DRFN\ProjSrc\SrcDrfn\Chart\Common_ST\STGfxOutBarCtrl.cpp
; File C:\Program Files (x86)\Microsoft Visual Studio\2019\Community\VC\Tools\MSVC\14.29.30133\atlmfc\include\afxcoll.inl
; File D:\git\src\IBK\IBK_DRFN\ProjSrc\SrcDrfn\Chart\Common_ST\STGfxOutBarCtrl.cpp
; File C:\Program Files (x86)\Microsoft Visual Studio\2019\Community\VC\Tools\MSVC\14.29.30133\atlmfc\include\afxcoll.inl
; File D:\git\src\IBK\IBK_DRFN\ProjSrc\SrcDrfn\Chart\Common_ST\STGfxOutBarCtrl.cpp
; File C:\Program Files (x86)\Microsoft Visual Studio\2019\Community\VC\Tools\MSVC\14.29.30133\atlmfc\include\afxwin1.inl
; File D:\git\src\IBK\IBK_DRFN\ProjSrc\SrcDrfn\Chart\Common_ST\STGfxOutBarCtrl.cpp
; File C:\Program Files (x86)\Microsoft Visual Studio\2019\Community\VC\Tools\MSVC\14.29.30133\atlmfc\include\afxcoll.inl
; File D:\git\src\IBK\IBK_DRFN\ProjSrc\SrcDrfn\Chart\Common_ST\STGfxOutBarCtrl.cpp
;	COMDAT ??1CSTGfxOutBarCtrl@@UAE@XZ
_TEXT	SEGMENT
__$EHRec$ = -12						; size = 12
??1CSTGfxOutBarCtrl@@UAE@XZ PROC			; CSTGfxOutBarCtrl::~CSTGfxOutBarCtrl, COMDAT
; _this$ = ecx

; 101  : {

  00000	55		 push	 ebp
  00001	8b ec		 mov	 ebp, esp
  00003	6a ff		 push	 -1
  00005	68 00 00 00 00	 push	 __ehhandler$??1CSTGfxOutBarCtrl@@UAE@XZ
  0000a	64 a1 00 00 00
	00		 mov	 eax, DWORD PTR fs:0
  00010	50		 push	 eax
  00011	56		 push	 esi
  00012	57		 push	 edi
  00013	a1 00 00 00 00	 mov	 eax, DWORD PTR ___security_cookie
  00018	33 c5		 xor	 eax, ebp
  0001a	50		 push	 eax
  0001b	8d 45 f4	 lea	 eax, DWORD PTR __$EHRec$[ebp]
  0001e	64 a3 00 00 00
	00		 mov	 DWORD PTR fs:0, eax
  00024	8b f9		 mov	 edi, ecx

; 102  : 	for (int t = 0; t < arFolder.GetSize(); t++)

  00026	8b 97 08 01 00
	00		 mov	 edx, DWORD PTR [edi+264]
  0002c	33 f6		 xor	 esi, esi
  0002e	c7 07 00 00 00
	00		 mov	 DWORD PTR [edi], OFFSET ??_7CSTGfxOutBarCtrl@@6B@
  00034	85 d2		 test	 edx, edx
  00036	7e 26		 jle	 SHORT $LN30@CSTGfxOutB
$LL4@CSTGfxOutB:
; File C:\Program Files (x86)\Microsoft Visual Studio\2019\Community\VC\Tools\MSVC\14.29.30133\atlmfc\include\afxcoll.inl

; 203  : 		if( nIndex < 0 || nIndex >= m_nSize )

  00038	85 f6		 test	 esi, esi
  0003a	78 76		 js	 SHORT $LN26@CSTGfxOutB
  0003c	3b f2		 cmp	 esi, edx
  0003e	7d 72		 jge	 SHORT $LN26@CSTGfxOutB
; File D:\git\src\IBK\IBK_DRFN\ProjSrc\SrcDrfn\Chart\Common_ST\STGfxOutBarCtrl.cpp

; 104  : 		if (arFolder.GetAt(t)) delete (CBarFolder*) arFolder.GetAt(t);

  00040	8b 87 04 01 00
	00		 mov	 eax, DWORD PTR [edi+260]
  00046	8b 0c b0	 mov	 ecx, DWORD PTR [eax+esi*4]
  00049	85 c9		 test	 ecx, ecx
  0004b	74 0c		 je	 SHORT $LN2@CSTGfxOutB
  0004d	8b 01		 mov	 eax, DWORD PTR [ecx]
  0004f	6a 01		 push	 1
  00051	ff 10		 call	 DWORD PTR [eax]
  00053	8b 97 08 01 00
	00		 mov	 edx, DWORD PTR [edi+264]
$LN2@CSTGfxOutB:

; 102  : 	for (int t = 0; t < arFolder.GetSize(); t++)

  00059	46		 inc	 esi
  0005a	3b f2		 cmp	 esi, edx
  0005c	7c da		 jl	 SHORT $LL4@CSTGfxOutB
$LN30@CSTGfxOutB:
; File C:\Program Files (x86)\Microsoft Visual Studio\2019\Community\VC\Tools\MSVC\14.29.30133\atlmfc\include\afxcoll.inl

; 200  : 	{ SetSize(0); }

  0005e	6a ff		 push	 -1
  00060	6a 00		 push	 0
  00062	8d 8f 00 01 00
	00		 lea	 ecx, DWORD PTR [edi+256]
  00068	e8 00 00 00 00	 call	 ?SetSize@CPtrArray@@QAEXHH@Z ; CPtrArray::SetSize
; File D:\git\src\IBK\IBK_DRFN\ProjSrc\SrcDrfn\Chart\Common_ST\STGfxOutBarCtrl.cpp

; 109  : 	delete pBlackPen;

  0006d	8b 8f 48 01 00
	00		 mov	 ecx, DWORD PTR [edi+328]
  00073	85 c9		 test	 ecx, ecx
  00075	74 07		 je	 SHORT $LN9@CSTGfxOutB
  00077	8b 01		 mov	 eax, DWORD PTR [ecx]
  00079	6a 01		 push	 1
  0007b	ff 50 04	 call	 DWORD PTR [eax+4]
$LN9@CSTGfxOutB:

; 110  : }

  0007e	8d 8f 4c 01 00
	00		 lea	 ecx, DWORD PTR [edi+332]
; File C:\Program Files (x86)\Microsoft Visual Studio\2019\Community\VC\Tools\MSVC\14.29.30133\atlmfc\include\afxwin1.inl

; 155  : 	{ }

  00084	c7 01 00 00 00
	00		 mov	 DWORD PTR [ecx], OFFSET ??_7CFont@@6B@
  0008a	e8 00 00 00 00	 call	 ??1CGdiObject@@UAE@XZ	; CGdiObject::~CGdiObject
; File D:\git\src\IBK\IBK_DRFN\ProjSrc\SrcDrfn\Chart\Common_ST\STGfxOutBarCtrl.cpp

; 110  : }

  0008f	8d 8f 00 01 00
	00		 lea	 ecx, DWORD PTR [edi+256]
  00095	e8 00 00 00 00	 call	 ??1CPtrArray@@UAE@XZ	; CPtrArray::~CPtrArray
  0009a	8b cf		 mov	 ecx, edi
  0009c	e8 00 00 00 00	 call	 ??1CWnd@@UAE@XZ		; CWnd::~CWnd
  000a1	8b 4d f4	 mov	 ecx, DWORD PTR __$EHRec$[ebp]
  000a4	64 89 0d 00 00
	00 00		 mov	 DWORD PTR fs:0, ecx
  000ab	59		 pop	 ecx
  000ac	5f		 pop	 edi
  000ad	5e		 pop	 esi
  000ae	8b e5		 mov	 esp, ebp
  000b0	5d		 pop	 ebp
  000b1	c3		 ret	 0
$LN26@CSTGfxOutB:
; File C:\Program Files (x86)\Microsoft Visual Studio\2019\Community\VC\Tools\MSVC\14.29.30133\atlmfc\include\afxcoll.inl

; 204  : 			AfxThrowInvalidArgException();

  000b2	e8 00 00 00 00	 call	 ?AfxThrowInvalidArgException@@YGXXZ ; AfxThrowInvalidArgException
$LN33@CSTGfxOutB:
  000b7	cc		 int	 3
  000b8	cc		 int	 3
  000b9	cc		 int	 3
  000ba	cc		 int	 3
  000bb	cc		 int	 3
  000bc	cc		 int	 3
_TEXT	ENDS
;	COMDAT text$x
text$x	SEGMENT
__ehhandler$??1CSTGfxOutBarCtrl@@UAE@XZ:
  00000	90		 npad	 1
  00001	90		 npad	 1
  00002	8b 54 24 08	 mov	 edx, DWORD PTR [esp+8]
  00006	8d 42 0c	 lea	 eax, DWORD PTR [edx+12]
  00009	8b 4a f4	 mov	 ecx, DWORD PTR [edx-12]
  0000c	33 c8		 xor	 ecx, eax
  0000e	e8 00 00 00 00	 call	 @__security_check_cookie@4
  00013	b8 00 00 00 00	 mov	 eax, OFFSET __ehfuncinfo$??1CSTGfxOutBarCtrl@@UAE@XZ
  00018	e9 00 00 00 00	 jmp	 ___CxxFrameHandler3
text$x	ENDS
??1CSTGfxOutBarCtrl@@UAE@XZ ENDP			; CSTGfxOutBarCtrl::~CSTGfxOutBarCtrl
; Function compile flags: /Ogtp
; File D:\git\src\IBK\IBK_DRFN\ProjSrc\SrcDrfn\Chart\Common_ST\STGfxOutBarCtrl.cpp
;	COMDAT ?Create@CSTGfxOutBarCtrl@@QAEHKABUtagRECT@@PAVCWnd@@IK@Z
_TEXT	SEGMENT
_dwStyle$ = 8						; size = 4
_rect$ = 12						; size = 4
_pParentWnd$ = 16					; size = 4
_nID$ = 20						; size = 4
_dwFlag$ = 24						; size = 4
?Create@CSTGfxOutBarCtrl@@QAEHKABUtagRECT@@PAVCWnd@@IK@Z PROC ; CSTGfxOutBarCtrl::Create, COMDAT
; _this$ = ecx

; 206  : {

  00000	55		 push	 ebp
  00001	8b ec		 mov	 ebp, esp

; 207  : 	dwFlags = dwFlag;

  00003	8b 45 18	 mov	 eax, DWORD PTR _dwFlag$[ebp]

; 208  : //	return CWnd::CreateEx(WS_EX_STATICEDGE, NULL, NULL, dwStyle|WS_CHILD, rect, pParentWnd, nID);
; 209  : 	return CWnd::CreateEx(NULL, NULL, NULL, dwStyle|WS_CHILD, rect, pParentWnd, nID);

  00006	6a 00		 push	 0
  00008	ff 75 14	 push	 DWORD PTR _nID$[ebp]
  0000b	89 81 fc 00 00
	00		 mov	 DWORD PTR [ecx+252], eax
  00011	ff 75 10	 push	 DWORD PTR _pParentWnd$[ebp]
  00014	8b 45 08	 mov	 eax, DWORD PTR _dwStyle$[ebp]
  00017	ff 75 0c	 push	 DWORD PTR _rect$[ebp]
  0001a	0d 00 00 00 40	 or	 eax, 1073741824		; 40000000H
  0001f	50		 push	 eax
  00020	6a 00		 push	 0
  00022	6a 00		 push	 0
  00024	6a 00		 push	 0
  00026	e8 00 00 00 00	 call	 ?CreateEx@CWnd@@UAEHKPBD0KABUtagRECT@@PAV1@IPAX@Z ; CWnd::CreateEx

; 210  : 	//STGfxOutBarCtrl_CLASSNAME
; 211  : }

  0002b	5d		 pop	 ebp
  0002c	c2 14 00	 ret	 20			; 00000014H
?Create@CSTGfxOutBarCtrl@@QAEHKABUtagRECT@@PAVCWnd@@IK@Z ENDP ; CSTGfxOutBarCtrl::Create
_TEXT	ENDS
; Function compile flags: /Ogtp
; File D:\git\src\IBK\IBK_DRFN\ProjSrc\SrcDrfn\Chart\Common_ST\STGfxOutBarCtrl.cpp
;	COMDAT ?IsSmallIconView@CSTGfxOutBarCtrl@@QBE_NXZ
_TEXT	SEGMENT
?IsSmallIconView@CSTGfxOutBarCtrl@@QBE_NXZ PROC		; CSTGfxOutBarCtrl::IsSmallIconView, COMDAT
; _this$ = ecx

; 215  : 	return dwFlags&fSmallIcon;

  00000	8a 81 fc 00 00
	00		 mov	 al, BYTE PTR [ecx+252]
  00006	24 01		 and	 al, 1

; 216  : }

  00008	c3		 ret	 0
?IsSmallIconView@CSTGfxOutBarCtrl@@QBE_NXZ ENDP		; CSTGfxOutBarCtrl::IsSmallIconView
_TEXT	ENDS
; Function compile flags: /Ogtp
; File D:\git\src\IBK\IBK_DRFN\ProjSrc\SrcDrfn\Chart\Common_ST\STGfxOutBarCtrl.cpp
;	COMDAT ?SetSmallIconView@CSTGfxOutBarCtrl@@QAEX_N@Z
_TEXT	SEGMENT
_rc$1 = -20						; size = 16
__$ArrayPad$ = -4					; size = 4
_bSet$ = 8						; size = 1
?SetSmallIconView@CSTGfxOutBarCtrl@@QAEX_N@Z PROC	; CSTGfxOutBarCtrl::SetSmallIconView, COMDAT
; _this$ = ecx

; 219  : {

  00000	55		 push	 ebp
  00001	8b ec		 mov	 ebp, esp
  00003	83 ec 14	 sub	 esp, 20			; 00000014H
  00006	a1 00 00 00 00	 mov	 eax, DWORD PTR ___security_cookie
  0000b	33 c5		 xor	 eax, ebp
  0000d	89 45 fc	 mov	 DWORD PTR __$ArrayPad$[ebp], eax

; 220  : 	iFirstItem = 0;
; 221  : 
; 222  : 	if (bSet)

  00010	80 7d 08 00	 cmp	 BYTE PTR _bSet$[ebp], 0
  00014	56		 push	 esi
  00015	8b f1		 mov	 esi, ecx
  00017	8a 86 fc 00 00
	00		 mov	 al, BYTE PTR [esi+252]
  0001d	c7 86 1c 01 00
	00 00 00 00 00	 mov	 DWORD PTR [esi+284], 0
  00027	74 0d		 je	 SHORT $LN2@SetSmallIc

; 215  : 	return dwFlags&fSmallIcon;

  00029	a8 01		 test	 al, 1

; 223  : 	{
; 224  : 		if (!IsSmallIconView()) 

  0002b	75 33		 jne	 SHORT $LN5@SetSmallIc

; 225  : 		{
; 226  : 			dwFlags |= fSmallIcon;

  0002d	83 8e fc 00 00
	00 01		 or	 DWORD PTR [esi+252], 1

; 227  : 			CRect rc;
; 228  : 			GetInsideRect(rc);
; 229  : 			InvalidateRect(rc, false);
; 230  : 		}
; 231  : 	}

  00034	eb 0b		 jmp	 SHORT $LN41@SetSmallIc
$LN2@SetSmallIc:

; 215  : 	return dwFlags&fSmallIcon;

  00036	a8 01		 test	 al, 1

; 232  : 	else
; 233  : 	{
; 234  : 		if (IsSmallIconView()) 

  00038	74 26		 je	 SHORT $LN5@SetSmallIc

; 235  : 		{
; 236  : 			dwFlags &= ~fSmallIcon;

  0003a	83 a6 fc 00 00
	00 fe		 and	 DWORD PTR [esi+252], -2	; fffffffeH
$LN41@SetSmallIc:

; 237  : 			CRect rc;
; 238  : 			GetInsideRect(rc);
; 239  : 			InvalidateRect(rc, false);
; 240  : 		}
; 241  : 	}
; 242  : }

  00041	8d 45 ec	 lea	 eax, DWORD PTR _rc$1[ebp]
  00044	0f 57 c0	 xorps	 xmm0, xmm0
  00047	50		 push	 eax
  00048	0f 11 45 ec	 movups	 XMMWORD PTR _rc$1[ebp], xmm0
  0004c	e8 00 00 00 00	 call	 ?GetInsideRect@CSTGfxOutBarCtrl@@QBEXAAVCRect@@@Z ; CSTGfxOutBarCtrl::GetInsideRect
  00051	6a 00		 push	 0
  00053	8d 45 ec	 lea	 eax, DWORD PTR _rc$1[ebp]
  00056	50		 push	 eax
  00057	ff 76 20	 push	 DWORD PTR [esi+32]
  0005a	ff 15 00 00 00
	00		 call	 DWORD PTR __imp__InvalidateRect@12
$LN5@SetSmallIc:
  00060	8b 4d fc	 mov	 ecx, DWORD PTR __$ArrayPad$[ebp]
  00063	33 cd		 xor	 ecx, ebp
  00065	5e		 pop	 esi
  00066	e8 00 00 00 00	 call	 @__security_check_cookie@4
  0006b	8b e5		 mov	 esp, ebp
  0006d	5d		 pop	 ebp
  0006e	c2 04 00	 ret	 4
?SetSmallIconView@CSTGfxOutBarCtrl@@QAEX_N@Z ENDP	; CSTGfxOutBarCtrl::SetSmallIconView
_TEXT	ENDS
; Function compile flags: /Ogtp
; File D:\git\src\IBK\IBK_DRFN\ProjSrc\SrcDrfn\Chart\Common_ST\STGfxOutBarCtrl.cpp
;	COMDAT ?GetFlag@CSTGfxOutBarCtrl@@QBEKXZ
_TEXT	SEGMENT
?GetFlag@CSTGfxOutBarCtrl@@QBEKXZ PROC			; CSTGfxOutBarCtrl::GetFlag, COMDAT
; _this$ = ecx

; 246  : 	return dwFlags;

  00000	8b 81 fc 00 00
	00		 mov	 eax, DWORD PTR [ecx+252]

; 247  : }

  00006	c3		 ret	 0
?GetFlag@CSTGfxOutBarCtrl@@QBEKXZ ENDP			; CSTGfxOutBarCtrl::GetFlag
_TEXT	ENDS
; Function compile flags: /Ogtp
; File D:\git\src\IBK\IBK_DRFN\ProjSrc\SrcDrfn\Chart\Common_ST\STGfxOutBarCtrl.cpp
; File C:\Program Files (x86)\Microsoft Visual Studio\2019\Community\VC\Tools\MSVC\14.29.30133\atlmfc\include\afxwin2.inl
; File D:\git\src\IBK\IBK_DRFN\ProjSrc\SrcDrfn\Chart\Common_ST\STGfxOutBarCtrl.cpp
; File C:\Program Files (x86)\Microsoft Visual Studio\2019\Community\VC\Tools\MSVC\14.29.30133\atlmfc\include\afxwin2.inl
; File D:\git\src\IBK\IBK_DRFN\ProjSrc\SrcDrfn\Chart\Common_ST\STGfxOutBarCtrl.cpp
; File C:\Program Files (x86)\Microsoft Visual Studio\2019\Community\VC\Tools\MSVC\14.29.30133\atlmfc\include\afxwin2.inl
; File D:\git\src\IBK\IBK_DRFN\ProjSrc\SrcDrfn\Chart\Common_ST\STGfxOutBarCtrl.cpp
;	COMDAT ?ModifyFlag@CSTGfxOutBarCtrl@@QAEXABK0I@Z
_TEXT	SEGMENT
_dwRemove$ = 8						; size = 4
_dwAdd$ = 12						; size = 4
_redraw$ = 16						; size = 4
?ModifyFlag@CSTGfxOutBarCtrl@@QAEXABK0I@Z PROC		; CSTGfxOutBarCtrl::ModifyFlag, COMDAT
; _this$ = ecx

; 250  : {

  00000	55		 push	 ebp
  00001	8b ec		 mov	 ebp, esp

; 251  : 	if (dwRemove)	dwFlags &= ~(dwRemove);

  00003	8b 45 08	 mov	 eax, DWORD PTR _dwRemove$[ebp]
  00006	8b 00		 mov	 eax, DWORD PTR [eax]
  00008	85 c0		 test	 eax, eax
  0000a	74 08		 je	 SHORT $LN15@ModifyFlag
  0000c	f7 d0		 not	 eax
  0000e	21 81 fc 00 00
	00		 and	 DWORD PTR [ecx+252], eax
$LN15@ModifyFlag:

; 252  : 	if (dwAdd)		dwFlags |= dwAdd;

  00014	8b 45 0c	 mov	 eax, DWORD PTR _dwAdd$[ebp]
  00017	8b 00		 mov	 eax, DWORD PTR [eax]
  00019	85 c0		 test	 eax, eax
  0001b	74 06		 je	 SHORT $LN3@ModifyFlag
  0001d	09 81 fc 00 00
	00		 or	 DWORD PTR [ecx+252], eax
$LN3@ModifyFlag:
; File C:\Program Files (x86)\Microsoft Visual Studio\2019\Community\VC\Tools\MSVC\14.29.30133\atlmfc\include\afxwin2.inl

; 25   : 	{ return this == NULL ? NULL : m_hWnd; }

  00023	85 c9		 test	 ecx, ecx
  00025	74 21		 je	 SHORT $LN6@ModifyFlag
  00027	8b 51 20	 mov	 edx, DWORD PTR [ecx+32]
; File D:\git\src\IBK\IBK_DRFN\ProjSrc\SrcDrfn\Chart\Common_ST\STGfxOutBarCtrl.cpp

; 254  : 	if (GetSafeHwnd())

  0002a	85 d2		 test	 edx, edx
  0002c	74 1a		 je	 SHORT $LN6@ModifyFlag

; 255  : 	{
; 256  : 		if (redraw != 0) SetWindowPos(0,0,0,0,0,SWP_NOZORDER|SWP_NOSIZE|SWP_NOMOVE|redraw);

  0002e	8b 45 10	 mov	 eax, DWORD PTR _redraw$[ebp]
  00031	85 c0		 test	 eax, eax
  00033	74 17		 je	 SHORT $LN5@ModifyFlag
  00035	83 c8 07	 or	 eax, 7
  00038	50		 push	 eax
  00039	6a 00		 push	 0
  0003b	6a 00		 push	 0
  0003d	6a 00		 push	 0
  0003f	6a 00		 push	 0
  00041	6a 00		 push	 0
  00043	e8 00 00 00 00	 call	 ?SetWindowPos@CWnd@@QAEHPBV1@HHHHI@Z ; CWnd::SetWindowPos
$LN6@ModifyFlag:

; 259  : }

  00048	5d		 pop	 ebp
  00049	c2 0c 00	 ret	 12			; 0000000cH
$LN5@ModifyFlag:
; File C:\Program Files (x86)\Microsoft Visual Studio\2019\Community\VC\Tools\MSVC\14.29.30133\atlmfc\include\afxwin2.inl

; 114  : 	{ ASSERT(::IsWindow(m_hWnd)); ::InvalidateRect(m_hWnd, NULL, bErase); }

  0004c	c7 45 10 01 00
	00 00		 mov	 DWORD PTR _redraw$[ebp], 1
  00053	c7 45 0c 00 00
	00 00		 mov	 DWORD PTR _dwAdd$[ebp], 0
  0005a	89 55 08	 mov	 DWORD PTR _dwRemove$[ebp], edx
; File D:\git\src\IBK\IBK_DRFN\ProjSrc\SrcDrfn\Chart\Common_ST\STGfxOutBarCtrl.cpp

; 259  : }

  0005d	5d		 pop	 ebp
; File C:\Program Files (x86)\Microsoft Visual Studio\2019\Community\VC\Tools\MSVC\14.29.30133\atlmfc\include\afxwin2.inl

; 114  : 	{ ASSERT(::IsWindow(m_hWnd)); ::InvalidateRect(m_hWnd, NULL, bErase); }

  0005e	ff 25 00 00 00
	00		 jmp	 DWORD PTR __imp__InvalidateRect@12
?ModifyFlag@CSTGfxOutBarCtrl@@QAEXABK0I@Z ENDP		; CSTGfxOutBarCtrl::ModifyFlag
_TEXT	ENDS
; Function compile flags: /Ogtp
; File D:\git\src\IBK\IBK_DRFN\ProjSrc\SrcDrfn\Chart\Common_ST\STGfxOutBarCtrl.cpp
; File C:\Program Files (x86)\Microsoft Visual Studio\2019\Community\VC\Tools\MSVC\14.29.30133\atlmfc\include\afxwin2.inl
; File C:\Program Files (x86)\Microsoft Visual Studio\2019\Community\VC\Tools\MSVC\14.29.30133\atlmfc\include\atltypes.h
; File C:\Program Files (x86)\Microsoft Visual Studio\2019\Community\VC\Tools\MSVC\14.29.30133\atlmfc\include\afxwin2.inl
; File C:\Program Files (x86)\Microsoft Visual Studio\2019\Community\VC\Tools\MSVC\14.29.30133\atlmfc\include\atltypes.h
; File D:\git\src\IBK\IBK_DRFN\ProjSrc\SrcDrfn\Chart\Common_ST\STGfxOutBarCtrl.cpp
; File C:\Program Files (x86)\Microsoft Visual Studio\2019\Community\VC\Tools\MSVC\14.29.30133\atlmfc\include\atltypes.h
; File D:\git\src\IBK\IBK_DRFN\ProjSrc\SrcDrfn\Chart\Common_ST\STGfxOutBarCtrl.cpp
; File C:\Program Files (x86)\Microsoft Visual Studio\2019\Community\VC\Tools\MSVC\14.29.30133\atlmfc\include\atltypes.h
; File D:\git\src\IBK\IBK_DRFN\ProjSrc\SrcDrfn\Chart\Common_ST\STGfxOutBarCtrl.cpp
;	COMDAT ?GetFolderRect@CSTGfxOutBarCtrl@@QBE_NHAAVCRect@@@Z
_TEXT	SEGMENT
_this$GSCopy$1$ = -28					; size = 4
_rect$GSCopy$1$ = -24					; size = 4
_rc$1 = -20						; size = 16
__$ArrayPad$ = -4					; size = 4
_iIndex$ = 8						; size = 4
_rect$ = 12						; size = 4
?GetFolderRect@CSTGfxOutBarCtrl@@QBE_NHAAVCRect@@@Z PROC ; CSTGfxOutBarCtrl::GetFolderRect, COMDAT
; _this$ = ecx

; 492  : {

  00000	55		 push	 ebp
  00001	8b ec		 mov	 ebp, esp
  00003	83 ec 1c	 sub	 esp, 28			; 0000001cH
  00006	a1 00 00 00 00	 mov	 eax, DWORD PTR ___security_cookie
  0000b	33 c5		 xor	 eax, ebp
  0000d	89 45 fc	 mov	 DWORD PTR __$ArrayPad$[ebp], eax
  00010	8b 45 0c	 mov	 eax, DWORD PTR _rect$[ebp]
  00013	53		 push	 ebx
  00014	56		 push	 esi
  00015	57		 push	 edi

; 493  : 	int max = arFolder.GetSize();
; 494  : 	ASSERT(iIndex >= 0 && iIndex < max);
; 495  : 
; 496  : 	if (iIndex >= 0 && iIndex < max)

  00016	8b 7d 08	 mov	 edi, DWORD PTR _iIndex$[ebp]
  00019	8b f1		 mov	 esi, ecx
  0001b	89 75 e4	 mov	 DWORD PTR _this$GSCopy$1$[ebp], esi
  0001e	89 45 e8	 mov	 DWORD PTR _rect$GSCopy$1$[ebp], eax
  00021	85 ff		 test	 edi, edi
  00023	0f 88 b6 00 00
	00		 js	 $LN2@GetFolderR
  00029	8b 9e 08 01 00
	00		 mov	 ebx, DWORD PTR [esi+264]
  0002f	3b fb		 cmp	 edi, ebx
  00031	0f 8d a8 00 00
	00		 jge	 $LN2@GetFolderR
; File C:\Program Files (x86)\Microsoft Visual Studio\2019\Community\VC\Tools\MSVC\14.29.30133\atlmfc\include\afxwin2.inl

; 86   : 	{ ASSERT(::IsWindow(m_hWnd)); ::GetClientRect(m_hWnd, lpRect); }

  00037	8d 45 ec	 lea	 eax, DWORD PTR _rc$1[ebp]
  0003a	0f 57 c0	 xorps	 xmm0, xmm0
  0003d	50		 push	 eax
  0003e	ff 76 20	 push	 DWORD PTR [esi+32]
; File C:\Program Files (x86)\Microsoft Visual Studio\2019\Community\VC\Tools\MSVC\14.29.30133\atlmfc\include\atltypes.h

; 528  : 	left = 0;

  00041	0f 11 45 ec	 movups	 XMMWORD PTR _rc$1[ebp], xmm0
; File C:\Program Files (x86)\Microsoft Visual Studio\2019\Community\VC\Tools\MSVC\14.29.30133\atlmfc\include\afxwin2.inl

; 86   : 	{ ASSERT(::IsWindow(m_hWnd)); ::GetClientRect(m_hWnd, lpRect); }

  00045	ff 15 00 00 00
	00		 call	 DWORD PTR __imp__GetClientRect@8
; File C:\Program Files (x86)\Microsoft Visual Studio\2019\Community\VC\Tools\MSVC\14.29.30133\atlmfc\include\atltypes.h

; 698  : 	::InflateRect(this, -x, -y);

  0004b	6a fc		 push	 -4			; fffffffcH
  0004d	6a fc		 push	 -4			; fffffffcH
  0004f	8d 45 ec	 lea	 eax, DWORD PTR _rc$1[ebp]
  00052	50		 push	 eax
  00053	ff 15 00 00 00
	00		 call	 DWORD PTR __imp__InflateRect@12
; File D:\git\src\IBK\IBK_DRFN\ProjSrc\SrcDrfn\Chart\Common_ST\STGfxOutBarCtrl.cpp

; 501  : 		if (iIndex > iSelFolder)

  00059	8b 45 e4	 mov	 eax, DWORD PTR _this$GSCopy$1$[ebp]
  0005c	8b b6 64 01 00
	00		 mov	 esi, DWORD PTR [esi+356]
  00062	03 b0 a0 00 00
	00		 add	 esi, DWORD PTR [eax+160]
  00068	3b b8 30 01 00
	00		 cmp	 edi, DWORD PTR [eax+304]
  0006e	7e 3a		 jle	 SHORT $LN3@GetFolderR

; 502  : 			rect.SetRect(rc.left, rc.bottom - ((max - iIndex)) * (iFolderHeight+iGap), rc.right, 

  00070	8b 55 f8	 mov	 edx, DWORD PTR _rc$1[ebp+12]
  00073	2b df		 sub	 ebx, edi
  00075	8b c2		 mov	 eax, edx
  00077	8d 4b ff	 lea	 ecx, DWORD PTR [ebx-1]
  0007a	0f af de	 imul	 ebx, esi
  0007d	0f af ce	 imul	 ecx, esi
  00080	2b d3		 sub	 edx, ebx
  00082	2b c1		 sub	 eax, ecx
; File C:\Program Files (x86)\Microsoft Visual Studio\2019\Community\VC\Tools\MSVC\14.29.30133\atlmfc\include\atltypes.h

; 657  : 	::SetRect(this, x1, y1, x2, y2);

  00084	50		 push	 eax
  00085	ff 75 f4	 push	 DWORD PTR _rc$1[ebp+8]
  00088	52		 push	 edx
; File D:\git\src\IBK\IBK_DRFN\ProjSrc\SrcDrfn\Chart\Common_ST\STGfxOutBarCtrl.cpp

; 507  : 		return true;

  00089	ff 75 ec	 push	 DWORD PTR _rc$1[ebp]
  0008c	ff 75 e8	 push	 DWORD PTR _rect$GSCopy$1$[ebp]
  0008f	ff 15 00 00 00
	00		 call	 DWORD PTR __imp__SetRect@20
  00095	5f		 pop	 edi

; 508  : 	}
; 509  : 	return false;
; 510  : }

  00096	5e		 pop	 esi
  00097	b0 01		 mov	 al, 1
  00099	5b		 pop	 ebx
  0009a	8b 4d fc	 mov	 ecx, DWORD PTR __$ArrayPad$[ebp]
  0009d	33 cd		 xor	 ecx, ebp
  0009f	e8 00 00 00 00	 call	 @__security_check_cookie@4
  000a4	8b e5		 mov	 esp, ebp
  000a6	5d		 pop	 ebp
  000a7	c2 08 00	 ret	 8
$LN3@GetFolderR:

; 503  : 			rc.bottom - (max - iIndex - 1) * (iFolderHeight+iGap));
; 504  : 		else 
; 505  : 			rect.SetRect(rc.left, rc.top + iIndex * (iFolderHeight+iGap), rc.right, 

  000aa	8d 47 01	 lea	 eax, DWORD PTR [edi+1]
  000ad	0f af c6	 imul	 eax, esi
  000b0	0f af f7	 imul	 esi, edi
  000b3	03 45 f0	 add	 eax, DWORD PTR _rc$1[ebp+4]
  000b6	03 75 f0	 add	 esi, DWORD PTR _rc$1[ebp+4]
; File C:\Program Files (x86)\Microsoft Visual Studio\2019\Community\VC\Tools\MSVC\14.29.30133\atlmfc\include\atltypes.h

; 657  : 	::SetRect(this, x1, y1, x2, y2);

  000b9	50		 push	 eax
  000ba	ff 75 f4	 push	 DWORD PTR _rc$1[ebp+8]
  000bd	56		 push	 esi
; File D:\git\src\IBK\IBK_DRFN\ProjSrc\SrcDrfn\Chart\Common_ST\STGfxOutBarCtrl.cpp

; 507  : 		return true;

  000be	ff 75 ec	 push	 DWORD PTR _rc$1[ebp]
  000c1	ff 75 e8	 push	 DWORD PTR _rect$GSCopy$1$[ebp]
  000c4	ff 15 00 00 00
	00		 call	 DWORD PTR __imp__SetRect@20
  000ca	5f		 pop	 edi

; 508  : 	}
; 509  : 	return false;
; 510  : }

  000cb	5e		 pop	 esi
  000cc	b0 01		 mov	 al, 1
  000ce	5b		 pop	 ebx
  000cf	8b 4d fc	 mov	 ecx, DWORD PTR __$ArrayPad$[ebp]
  000d2	33 cd		 xor	 ecx, ebp
  000d4	e8 00 00 00 00	 call	 @__security_check_cookie@4
  000d9	8b e5		 mov	 esp, ebp
  000db	5d		 pop	 ebp
  000dc	c2 08 00	 ret	 8
$LN2@GetFolderR:
  000df	8b 4d fc	 mov	 ecx, DWORD PTR __$ArrayPad$[ebp]
  000e2	32 c0		 xor	 al, al
  000e4	5f		 pop	 edi
  000e5	5e		 pop	 esi
  000e6	33 cd		 xor	 ecx, ebp
  000e8	5b		 pop	 ebx
  000e9	e8 00 00 00 00	 call	 @__security_check_cookie@4
  000ee	8b e5		 mov	 esp, ebp
  000f0	5d		 pop	 ebp
  000f1	c2 08 00	 ret	 8
?GetFolderRect@CSTGfxOutBarCtrl@@QBE_NHAAVCRect@@@Z ENDP ; CSTGfxOutBarCtrl::GetFolderRect
_TEXT	ENDS
; Function compile flags: /Ogtp
; File D:\git\src\IBK\IBK_DRFN\ProjSrc\SrcDrfn\Chart\Common_ST\STGfxOutBarCtrl.cpp
; File C:\Program Files (x86)\Microsoft Visual Studio\2019\Community\VC\Tools\MSVC\14.29.30133\atlmfc\include\atltypes.h
; File D:\git\src\IBK\IBK_DRFN\ProjSrc\SrcDrfn\Chart\Common_ST\STGfxOutBarCtrl.cpp
; File C:\Program Files (x86)\Microsoft Visual Studio\2019\Community\VC\Tools\MSVC\14.29.30133\atlmfc\include\atltypes.h
; File D:\git\src\IBK\IBK_DRFN\ProjSrc\SrcDrfn\Chart\Common_ST\STGfxOutBarCtrl.cpp
; File C:\Program Files (x86)\Microsoft Visual Studio\2019\Community\VC\Tools\MSVC\14.29.30133\atlmfc\include\atltypes.h
; File D:\git\src\IBK\IBK_DRFN\ProjSrc\SrcDrfn\Chart\Common_ST\STGfxOutBarCtrl.cpp
;	COMDAT ?GetItemRect@CSTGfxOutBarCtrl@@QAEXHHAAVCRect@@@Z
_TEXT	SEGMENT
$T1 = -52						; size = 8
tv270 = -44						; size = 8
$T2 = -44						; size = 8
_rect$GSCopy$1$ = -36					; size = 4
_y$1$ = -32						; size = 4
_iFolder$GSCopy$1$ = -28				; size = 4
_iIndex$GSCopy$1$ = -24					; size = 4
_rc$ = -20						; size = 16
__$ArrayPad$ = -4					; size = 4
_iFolder$ = 8						; size = 4
_iIndex$ = 12						; size = 4
_rect$ = 16						; size = 4
?GetItemRect@CSTGfxOutBarCtrl@@QAEXHHAAVCRect@@@Z PROC	; CSTGfxOutBarCtrl::GetItemRect, COMDAT
; _this$ = ecx

; 513  : {

  00000	55		 push	 ebp
  00001	8b ec		 mov	 ebp, esp
  00003	83 ec 34	 sub	 esp, 52			; 00000034H
  00006	a1 00 00 00 00	 mov	 eax, DWORD PTR ___security_cookie
  0000b	33 c5		 xor	 eax, ebp
  0000d	89 45 fc	 mov	 DWORD PTR __$ArrayPad$[ebp], eax
  00010	8b 45 08	 mov	 eax, DWORD PTR _iFolder$[ebp]
  00013	0f 57 c0	 xorps	 xmm0, xmm0
  00016	89 45 e4	 mov	 DWORD PTR _iFolder$GSCopy$1$[ebp], eax
  00019	8b 45 0c	 mov	 eax, DWORD PTR _iIndex$[ebp]
  0001c	53		 push	 ebx
  0001d	56		 push	 esi
  0001e	89 45 e8	 mov	 DWORD PTR _iIndex$GSCopy$1$[ebp], eax
  00021	8b f1		 mov	 esi, ecx
  00023	8b 45 10	 mov	 eax, DWORD PTR _rect$[ebp]
  00026	89 45 dc	 mov	 DWORD PTR _rect$GSCopy$1$[ebp], eax

; 515  : 	GetInsideRect(rc);

  00029	8d 45 ec	 lea	 eax, DWORD PTR _rc$[ebp]
  0002c	57		 push	 edi
  0002d	50		 push	 eax
; File C:\Program Files (x86)\Microsoft Visual Studio\2019\Community\VC\Tools\MSVC\14.29.30133\atlmfc\include\atltypes.h

; 528  : 	left = 0;

  0002e	0f 11 45 ec	 movups	 XMMWORD PTR _rc$[ebp], xmm0
; File D:\git\src\IBK\IBK_DRFN\ProjSrc\SrcDrfn\Chart\Common_ST\STGfxOutBarCtrl.cpp

; 515  : 	GetInsideRect(rc);

  00032	e8 00 00 00 00	 call	 ?GetInsideRect@CSTGfxOutBarCtrl@@QBEXAAVCRect@@@Z ; CSTGfxOutBarCtrl::GetInsideRect

; 516  : 
; 517  : 	int top = rc.top;
; 518  : 	CSize sz(0,0);
; 519  : 	int y = 0;
; 520  : 	for (int t = 0; t < iIndex; t++)

  00037	8b 45 e8	 mov	 eax, DWORD PTR _iIndex$GSCopy$1$[ebp]
  0003a	33 ff		 xor	 edi, edi
  0003c	8b 5d f0	 mov	 ebx, DWORD PTR _rc$[ebp+4]
  0003f	c7 45 e0 00 00
	00 00		 mov	 DWORD PTR _y$1$[ebp], 0
  00046	85 c0		 test	 eax, eax
  00048	7e 57		 jle	 SHORT $LN25@GetItemRec
  0004a	66 0f 1f 44 00
	00		 npad	 6
$LL4@GetItemRec:

; 521  : 	{
; 522  : 		sz = GetItemSize(iFolder, t, ircAll);

  00050	6a 03		 push	 3
  00052	57		 push	 edi
  00053	ff 75 e4	 push	 DWORD PTR _iFolder$GSCopy$1$[ebp]
  00056	8d 45 cc	 lea	 eax, DWORD PTR $T1[ebp]
  00059	8b ce		 mov	 ecx, esi
  0005b	50		 push	 eax
  0005c	e8 00 00 00 00	 call	 ?GetItemSize@CSTGfxOutBarCtrl@@QAE?AVCSize@@HHH@Z ; CSTGfxOutBarCtrl::GetItemSize

; 215  : 	return dwFlags&fSmallIcon;

  00061	f6 86 fc 00 00
	00 01		 test	 BYTE PTR [esi+252], 1

; 521  : 	{
; 522  : 		sz = GetItemSize(iFolder, t, ircAll);

  00068	8b 08		 mov	 ecx, DWORD PTR [eax]
  0006a	8b 40 04	 mov	 eax, DWORD PTR [eax+4]
  0006d	89 4d d4	 mov	 DWORD PTR tv270[ebp], ecx
  00070	8d 0c 18	 lea	 ecx, DWORD PTR [eax+ebx]

; 523  : 		top += sz.cy;
; 524  : 
; 525  : 		if (IsSmallIconView()) 

  00073	74 08		 je	 SHORT $LN5@GetItemRec

; 526  : 		{
; 527  : 			top += ySmallIconSpacing; 

  00075	8b 86 ac 00 00
	00		 mov	 eax, DWORD PTR [esi+172]

; 528  : 		}

  0007b	eb 06		 jmp	 SHORT $LN6@GetItemRec
$LN5@GetItemRec:

; 529  : 		else 
; 530  : 		{
; 531  : 			top += yLargeIconSpacing;

  0007d	8b 86 b0 00 00
	00		 mov	 eax, DWORD PTR [esi+176]
$LN6@GetItemRec:

; 532  : 		}
; 533  : 		if (t == iFirstItem - 1) y = top - rc.top;

  00083	8d 1c 01	 lea	 ebx, DWORD PTR [ecx+eax]
  00086	8b 86 1c 01 00
	00		 mov	 eax, DWORD PTR [esi+284]
  0008c	48		 dec	 eax
  0008d	3b f8		 cmp	 edi, eax
  0008f	75 08		 jne	 SHORT $LN2@GetItemRec
  00091	8b c3		 mov	 eax, ebx
  00093	2b 45 f0	 sub	 eax, DWORD PTR _rc$[ebp+4]
  00096	89 45 e0	 mov	 DWORD PTR _y$1$[ebp], eax
$LN2@GetItemRec:

; 516  : 
; 517  : 	int top = rc.top;
; 518  : 	CSize sz(0,0);
; 519  : 	int y = 0;
; 520  : 	for (int t = 0; t < iIndex; t++)

  00099	8b 45 e8	 mov	 eax, DWORD PTR _iIndex$GSCopy$1$[ebp]
  0009c	47		 inc	 edi
  0009d	3b f8		 cmp	 edi, eax
  0009f	7c af		 jl	 SHORT $LL4@GetItemRec
$LN25@GetItemRec:

; 535  : 	sz = GetItemSize(iFolder, iIndex, ircAll);

  000a1	6a 03		 push	 3
  000a3	50		 push	 eax
  000a4	ff 75 e4	 push	 DWORD PTR _iFolder$GSCopy$1$[ebp]
  000a7	8d 45 d4	 lea	 eax, DWORD PTR $T2[ebp]
  000aa	8b ce		 mov	 ecx, esi
  000ac	50		 push	 eax
  000ad	e8 00 00 00 00	 call	 ?GetItemSize@CSTGfxOutBarCtrl@@QAE?AVCSize@@HHH@Z ; CSTGfxOutBarCtrl::GetItemSize
; File C:\Program Files (x86)\Microsoft Visual Studio\2019\Community\VC\Tools\MSVC\14.29.30133\atlmfc\include\atltypes.h

; 657  : 	::SetRect(this, x1, y1, x2, y2);

  000b2	8b 4d ec	 mov	 ecx, DWORD PTR _rc$[ebp]
; File D:\git\src\IBK\IBK_DRFN\ProjSrc\SrcDrfn\Chart\Common_ST\STGfxOutBarCtrl.cpp

; 535  : 	sz = GetItemSize(iFolder, iIndex, ircAll);

  000b5	8b 10		 mov	 edx, DWORD PTR [eax]
  000b7	8b 40 04	 mov	 eax, DWORD PTR [eax+4]
  000ba	03 c3		 add	 eax, ebx
; File C:\Program Files (x86)\Microsoft Visual Studio\2019\Community\VC\Tools\MSVC\14.29.30133\atlmfc\include\atltypes.h

; 657  : 	::SetRect(this, x1, y1, x2, y2);

  000bc	50		 push	 eax
  000bd	8d 04 0a	 lea	 eax, DWORD PTR [edx+ecx]
  000c0	50		 push	 eax
  000c1	53		 push	 ebx
  000c2	8b 5d dc	 mov	 ebx, DWORD PTR _rect$GSCopy$1$[ebp]
  000c5	51		 push	 ecx
  000c6	53		 push	 ebx
  000c7	ff 15 00 00 00
	00		 call	 DWORD PTR __imp__SetRect@20
; File D:\git\src\IBK\IBK_DRFN\ProjSrc\SrcDrfn\Chart\Common_ST\STGfxOutBarCtrl.cpp

; 538  : 	rect.top -= y;

  000cd	8b 45 e0	 mov	 eax, DWORD PTR _y$1$[ebp]
  000d0	29 43 04	 sub	 DWORD PTR [ebx+4], eax

; 539  : 	rect.bottom -= y;

  000d3	29 43 0c	 sub	 DWORD PTR [ebx+12], eax

; 540  : 
; 541  : 	rect.left += xLeftMargin;

  000d6	8b 86 b4 00 00
	00		 mov	 eax, DWORD PTR [esi+180]
  000dc	01 03		 add	 DWORD PTR [ebx], eax

; 542  : 	rect.top  += yTopMargin;

  000de	8b 86 b8 00 00
	00		 mov	 eax, DWORD PTR [esi+184]
  000e4	01 43 04	 add	 DWORD PTR [ebx+4], eax

; 543  : 	rect.bottom += yTopMargin;

  000e7	8b 86 b8 00 00
	00		 mov	 eax, DWORD PTR [esi+184]
  000ed	01 43 0c	 add	 DWORD PTR [ebx+12], eax

; 215  : 	return dwFlags&fSmallIcon;

  000f0	f6 86 fc 00 00
	00 01		 test	 BYTE PTR [esi+252], 1

; 544  : 
; 545  : 	if (!IsSmallIconView()) 

  000f7	75 0b		 jne	 SHORT $LN8@GetItemRec

; 546  : 	{
; 547  : 		rect.left = rc.left;

  000f9	8b 45 ec	 mov	 eax, DWORD PTR _rc$[ebp]
  000fc	89 03		 mov	 DWORD PTR [ebx], eax

; 548  : 		rect.right = rc.right;

  000fe	8b 45 f4	 mov	 eax, DWORD PTR _rc$[ebp+8]
  00101	89 43 08	 mov	 DWORD PTR [ebx+8], eax
$LN8@GetItemRec:

; 549  : 	}
; 550  : }

  00104	8b 4d fc	 mov	 ecx, DWORD PTR __$ArrayPad$[ebp]
  00107	5f		 pop	 edi
  00108	5e		 pop	 esi
  00109	33 cd		 xor	 ecx, ebp
  0010b	5b		 pop	 ebx
  0010c	e8 00 00 00 00	 call	 @__security_check_cookie@4
  00111	8b e5		 mov	 esp, ebp
  00113	5d		 pop	 ebp
  00114	c2 0c 00	 ret	 12			; 0000000cH
?GetItemRect@CSTGfxOutBarCtrl@@QAEXHHAAVCRect@@@Z ENDP	; CSTGfxOutBarCtrl::GetItemRect
_TEXT	ENDS
; Function compile flags: /Ogtp
; File D:\git\src\IBK\IBK_DRFN\ProjSrc\SrcDrfn\Chart\Common_ST\STGfxOutBarCtrl.cpp
; File C:\Program Files (x86)\Microsoft Visual Studio\2019\Community\VC\Tools\MSVC\14.29.30133\atlmfc\include\afxcoll.inl
; File D:\git\src\IBK\IBK_DRFN\ProjSrc\SrcDrfn\Chart\Common_ST\STGfxOutBarCtrl.cpp
;	COMDAT ?AddFolder@CSTGfxOutBarCtrl@@QAEHPBDK@Z
_TEXT	SEGMENT
$T2 = -16						; size = 4
__$EHRec$ = -12						; size = 12
_cFolderName$ = 8					; size = 4
_exData$ = 12						; size = 4
?AddFolder@CSTGfxOutBarCtrl@@QAEHPBDK@Z PROC		; CSTGfxOutBarCtrl::AddFolder, COMDAT
; _this$ = ecx

; 774  : {

  00000	55		 push	 ebp
  00001	8b ec		 mov	 ebp, esp
  00003	6a ff		 push	 -1
  00005	68 00 00 00 00	 push	 __ehhandler$?AddFolder@CSTGfxOutBarCtrl@@QAEHPBDK@Z
  0000a	64 a1 00 00 00
	00		 mov	 eax, DWORD PTR fs:0
  00010	50		 push	 eax
  00011	51		 push	 ecx
  00012	53		 push	 ebx
  00013	56		 push	 esi
  00014	57		 push	 edi
  00015	a1 00 00 00 00	 mov	 eax, DWORD PTR ___security_cookie
  0001a	33 c5		 xor	 eax, ebp
  0001c	50		 push	 eax
  0001d	8d 45 f4	 lea	 eax, DWORD PTR __$EHRec$[ebp]
  00020	64 a3 00 00 00
	00		 mov	 DWORD PTR fs:0, eax
  00026	8b d9		 mov	 ebx, ecx

; 775  : 	CBarFolder * pbf = new CBarFolder(cFolderName, exData);

  00028	6a 2c		 push	 44			; 0000002cH
  0002a	e8 00 00 00 00	 call	 ??2@YAPAXI@Z		; operator new
  0002f	8b f0		 mov	 esi, eax
  00031	83 c4 04	 add	 esp, 4
  00034	89 75 f0	 mov	 DWORD PTR $T2[ebp], esi
  00037	c7 45 fc 00 00
	00 00		 mov	 DWORD PTR __$EHRec$[ebp+8], 0
  0003e	85 f6		 test	 esi, esi
  00040	74 59		 je	 SHORT $LN3@AddFolder

; 783  : {

  00042	8d 4e 14	 lea	 ecx, DWORD PTR [esi+20]
  00045	c7 06 00 00 00
	00		 mov	 DWORD PTR [esi], OFFSET ??_7CBarFolder@CSTGfxOutBarCtrl@@6B@
  0004b	e8 00 00 00 00	 call	 ??0CPtrArray@@QAE@XZ	; CPtrArray::CPtrArray

; 784  : 	cName = NULL;
; 785  : 	dwData = exData;
; 786  : 
; 787  : 	if (name)

  00050	8b 7d 08	 mov	 edi, DWORD PTR _cFolderName$[ebp]
  00053	8b 45 0c	 mov	 eax, DWORD PTR _exData$[ebp]
  00056	c6 45 fc 01	 mov	 BYTE PTR __$EHRec$[ebp+8], 1
  0005a	c7 46 04 00 00
	00 00		 mov	 DWORD PTR [esi+4], 0
  00061	89 46 08	 mov	 DWORD PTR [esi+8], eax
  00064	85 ff		 test	 edi, edi
  00066	74 1c		 je	 SHORT $LN7@AddFolder

; 788  : 	{
; 789  : 		cName = new char[lstrlen(name)+1];

  00068	57		 push	 edi
  00069	ff 15 00 00 00
	00		 call	 DWORD PTR __imp__lstrlenA@4
  0006f	40		 inc	 eax
  00070	50		 push	 eax
  00071	e8 00 00 00 00	 call	 ??_U@YAPAXI@Z		; operator new[]
  00076	83 c4 04	 add	 esp, 4
  00079	89 46 04	 mov	 DWORD PTR [esi+4], eax

; 790  : 		ASSERT(cName);
; 791  : 		lstrcpy(cName, name);

  0007c	57		 push	 edi
  0007d	50		 push	 eax
  0007e	ff 15 00 00 00
	00		 call	 DWORD PTR __imp__lstrcpyA@8
$LN7@AddFolder:

; 792  : 	}
; 793  : 	pLargeImageList = NULL;

  00084	c7 46 0c 00 00
	00 00		 mov	 DWORD PTR [esi+12], 0

; 794  : 	pSmallImageList = NULL;

  0008b	c7 46 10 00 00
	00 00		 mov	 DWORD PTR [esi+16], 0

; 795  : 	pChild = NULL;

  00092	c7 46 28 00 00
	00 00		 mov	 DWORD PTR [esi+40], 0

; 775  : 	CBarFolder * pbf = new CBarFolder(cFolderName, exData);

  00099	eb 02		 jmp	 SHORT $LN4@AddFolder
$LN3@AddFolder:
  0009b	33 f6		 xor	 esi, esi
$LN4@AddFolder:

; 776  : 	ASSERT(pbf);
; 777  : 	arFolder.Add((void *)pbf);

  0009d	8d 8b 00 01 00
	00		 lea	 ecx, DWORD PTR [ebx+256]
  000a3	c7 45 fc ff ff
	ff ff		 mov	 DWORD PTR __$EHRec$[ebp+8], -1
; File C:\Program Files (x86)\Microsoft Visual Studio\2019\Community\VC\Tools\MSVC\14.29.30133\atlmfc\include\afxcoll.inl

; 223  : 		SetAtGrow(nIndex, newElement);

  000aa	56		 push	 esi
  000ab	ff 71 08	 push	 DWORD PTR [ecx+8]
  000ae	e8 00 00 00 00	 call	 ?SetAtGrow@CPtrArray@@QAEXHPAX@Z ; CPtrArray::SetAtGrow
; File D:\git\src\IBK\IBK_DRFN\ProjSrc\SrcDrfn\Chart\Common_ST\STGfxOutBarCtrl.cpp

; 779  : 	return arFolder.GetSize() - 1;

  000b3	8b 83 08 01 00
	00		 mov	 eax, DWORD PTR [ebx+264]
  000b9	48		 dec	 eax

; 780  : }

  000ba	8b 4d f4	 mov	 ecx, DWORD PTR __$EHRec$[ebp]
  000bd	64 89 0d 00 00
	00 00		 mov	 DWORD PTR fs:0, ecx
  000c4	59		 pop	 ecx
  000c5	5f		 pop	 edi
  000c6	5e		 pop	 esi
  000c7	5b		 pop	 ebx
  000c8	8b e5		 mov	 esp, ebp
  000ca	5d		 pop	 ebp
  000cb	c2 08 00	 ret	 8
_TEXT	ENDS
;	COMDAT text$x
text$x	SEGMENT
__unwindfunclet$?AddFolder@CSTGfxOutBarCtrl@@QAEHPBDK@Z$0:
  00000	6a 2c		 push	 44			; 0000002cH
  00002	8b 45 f0	 mov	 eax, DWORD PTR $T2[ebp]
  00005	50		 push	 eax
  00006	e8 00 00 00 00	 call	 ??3@YAXPAXI@Z		; operator delete
  0000b	83 c4 08	 add	 esp, 8
  0000e	c3		 ret	 0
__unwindfunclet$?AddFolder@CSTGfxOutBarCtrl@@QAEHPBDK@Z$1:
  0000f	8b 4d f0	 mov	 ecx, DWORD PTR $T2[ebp]
  00012	83 c1 14	 add	 ecx, 20			; 00000014H
  00015	e9 00 00 00 00	 jmp	 ??1CPtrArray@@UAE@XZ	; CPtrArray::~CPtrArray
  0001a	cc		 int	 3
  0001b	cc		 int	 3
  0001c	cc		 int	 3
  0001d	cc		 int	 3
  0001e	cc		 int	 3
__ehhandler$?AddFolder@CSTGfxOutBarCtrl@@QAEHPBDK@Z:
  0001f	90		 npad	 1
  00020	90		 npad	 1
  00021	8b 54 24 08	 mov	 edx, DWORD PTR [esp+8]
  00025	8d 42 0c	 lea	 eax, DWORD PTR [edx+12]
  00028	8b 4a ec	 mov	 ecx, DWORD PTR [edx-20]
  0002b	33 c8		 xor	 ecx, eax
  0002d	e8 00 00 00 00	 call	 @__security_check_cookie@4
  00032	b8 00 00 00 00	 mov	 eax, OFFSET __ehfuncinfo$?AddFolder@CSTGfxOutBarCtrl@@QAEHPBDK@Z
  00037	e9 00 00 00 00	 jmp	 ___CxxFrameHandler3
text$x	ENDS
?AddFolder@CSTGfxOutBarCtrl@@QAEHPBDK@Z ENDP		; CSTGfxOutBarCtrl::AddFolder
; Function compile flags: /Ogtp
; File D:\git\src\IBK\IBK_DRFN\ProjSrc\SrcDrfn\Chart\Common_ST\STGfxOutBarCtrl.cpp
; File C:\Program Files (x86)\Microsoft Visual Studio\2019\Community\VC\Tools\MSVC\14.29.30133\atlmfc\include\afxwin2.inl
; File D:\git\src\IBK\IBK_DRFN\ProjSrc\SrcDrfn\Chart\Common_ST\STGfxOutBarCtrl.cpp
; File C:\Program Files (x86)\Microsoft Visual Studio\2019\Community\VC\Tools\MSVC\14.29.30133\atlmfc\include\afxwin2.inl
; File C:\Program Files (x86)\Microsoft Visual Studio\2019\Community\VC\Tools\MSVC\14.29.30133\atlmfc\include\atltypes.h
; File D:\git\src\IBK\IBK_DRFN\ProjSrc\SrcDrfn\Chart\Common_ST\STGfxOutBarCtrl.cpp
;	COMDAT ?GetInsideRect@CSTGfxOutBarCtrl@@QBEXAAVCRect@@@Z
_TEXT	SEGMENT
_rect$ = 8						; size = 4
?GetInsideRect@CSTGfxOutBarCtrl@@QBEXAAVCRect@@@Z PROC	; CSTGfxOutBarCtrl::GetInsideRect, COMDAT
; _this$ = ecx

; 808  : {

  00000	55		 push	 ebp
  00001	8b ec		 mov	 ebp, esp
  00003	53		 push	 ebx
  00004	57		 push	 edi
; File C:\Program Files (x86)\Microsoft Visual Studio\2019\Community\VC\Tools\MSVC\14.29.30133\atlmfc\include\afxwin2.inl

; 86   : 	{ ASSERT(::IsWindow(m_hWnd)); ::GetClientRect(m_hWnd, lpRect); }

  00005	8b 7d 08	 mov	 edi, DWORD PTR _rect$[ebp]
; File D:\git\src\IBK\IBK_DRFN\ProjSrc\SrcDrfn\Chart\Common_ST\STGfxOutBarCtrl.cpp

; 808  : {

  00008	8b d9		 mov	 ebx, ecx
; File C:\Program Files (x86)\Microsoft Visual Studio\2019\Community\VC\Tools\MSVC\14.29.30133\atlmfc\include\afxwin2.inl

; 86   : 	{ ASSERT(::IsWindow(m_hWnd)); ::GetClientRect(m_hWnd, lpRect); }

  0000a	57		 push	 edi
  0000b	ff 73 20	 push	 DWORD PTR [ebx+32]
  0000e	ff 15 00 00 00
	00		 call	 DWORD PTR __imp__GetClientRect@8
; File C:\Program Files (x86)\Microsoft Visual Studio\2019\Community\VC\Tools\MSVC\14.29.30133\atlmfc\include\atltypes.h

; 698  : 	::InflateRect(this, -x, -y);

  00014	6a fc		 push	 -4			; fffffffcH
  00016	6a fc		 push	 -4			; fffffffcH
  00018	57		 push	 edi
  00019	ff 15 00 00 00
	00		 call	 DWORD PTR __imp__InflateRect@12
; File D:\git\src\IBK\IBK_DRFN\ProjSrc\SrcDrfn\Chart\Common_ST\STGfxOutBarCtrl.cpp

; 811  : 	if (arFolder.GetSize() > 0)

  0001f	8b 8b 08 01 00
	00		 mov	 ecx, DWORD PTR [ebx+264]
  00025	85 c9		 test	 ecx, ecx
  00027	7e 3f		 jle	 SHORT $LN2@GetInsideR

; 812  : 	{
; 813  : 		int max = arFolder.GetSize();
; 814  : 		rect.top += iFolderHeight * (iSelFolder + 1); + 1;//+ 2;

  00029	8b 83 30 01 00
	00		 mov	 eax, DWORD PTR [ebx+304]

; 815  : 		if(iSelFolder == arFolder.GetSize() - 1)

  0002f	8b 57 0c	 mov	 edx, DWORD PTR [edi+12]
  00032	40		 inc	 eax
  00033	0f af 83 a0 00
	00 00		 imul	 eax, DWORD PTR [ebx+160]
  0003a	01 47 04	 add	 DWORD PTR [edi+4], eax
  0003d	2b 8b 30 01 00
	00		 sub	 ecx, DWORD PTR [ebx+304]
  00043	8b 83 08 01 00
	00		 mov	 eax, DWORD PTR [ebx+264]
  00049	49		 dec	 ecx
  0004a	0f af 8b a0 00
	00 00		 imul	 ecx, DWORD PTR [ebx+160]
  00051	48		 dec	 eax
  00052	2b d1		 sub	 edx, ecx

; 816  : 			rect.bottom -= (max - iSelFolder - 1)*iFolderHeight + 1;
; 817  : 		else
; 818  : 			rect.bottom -= (max - iSelFolder - 1)*iFolderHeight;
; 819  : 		
; 820  : 		rect.left += 1;//+ 2;

  00054	39 83 30 01 00
	00		 cmp	 DWORD PTR [ebx+304], eax
  0005a	8d 4a ff	 lea	 ecx, DWORD PTR [edx-1]
  0005d	0f 45 ca	 cmovne	 ecx, edx
  00060	ff 07		 inc	 DWORD PTR [edi]

; 821  : 		rect.right -= 1;

  00062	ff 4f 08	 dec	 DWORD PTR [edi+8]
  00065	89 4f 0c	 mov	 DWORD PTR [edi+12], ecx
$LN2@GetInsideR:

; 822  : //		rect.top += (iFolderHeight+iGap) * (iSelFolder + 1);//+ 2;
; 823  : //		rect.bottom -= (max - iSelFolder - 1)*(iFolderHeight+iGap) + 2;
; 824  : 		return;
; 825  : 	}
; 826  : }

  00068	5f		 pop	 edi
  00069	5b		 pop	 ebx
  0006a	5d		 pop	 ebp
  0006b	c2 04 00	 ret	 4
?GetInsideRect@CSTGfxOutBarCtrl@@QBEXAAVCRect@@@Z ENDP	; CSTGfxOutBarCtrl::GetInsideRect
_TEXT	ENDS
; Function compile flags: /Ogtp
; File D:\git\src\IBK\IBK_DRFN\ProjSrc\SrcDrfn\Chart\Common_ST\STGfxOutBarCtrl.cpp
; File C:\Program Files (x86)\Microsoft Visual Studio\2019\Community\VC\Tools\MSVC\14.29.30133\atlmfc\include\atltypes.h
; File D:\git\src\IBK\IBK_DRFN\ProjSrc\SrcDrfn\Chart\Common_ST\STGfxOutBarCtrl.cpp
; File C:\Program Files (x86)\Microsoft Visual Studio\2019\Community\VC\Tools\MSVC\14.29.30133\atlmfc\include\atltypes.h
; File D:\git\src\IBK\IBK_DRFN\ProjSrc\SrcDrfn\Chart\Common_ST\STGfxOutBarCtrl.cpp
; File C:\Program Files (x86)\Microsoft Visual Studio\2019\Community\VC\Tools\MSVC\14.29.30133\atlmfc\include\atltypes.h
; File D:\git\src\IBK\IBK_DRFN\ProjSrc\SrcDrfn\Chart\Common_ST\STGfxOutBarCtrl.cpp
; File C:\Program Files (x86)\Microsoft Visual Studio\2019\Community\VC\Tools\MSVC\14.29.30133\atlmfc\include\atltypes.h
; File D:\git\src\IBK\IBK_DRFN\ProjSrc\SrcDrfn\Chart\Common_ST\STGfxOutBarCtrl.cpp
; File C:\Program Files (x86)\Microsoft Visual Studio\2019\Community\VC\Tools\MSVC\14.29.30133\atlmfc\include\atltypes.h
; File D:\git\src\IBK\IBK_DRFN\ProjSrc\SrcDrfn\Chart\Common_ST\STGfxOutBarCtrl.cpp
; File C:\Program Files (x86)\Microsoft Visual Studio\2019\Community\VC\Tools\MSVC\14.29.30133\atlmfc\include\atltypes.h
; File D:\git\src\IBK\IBK_DRFN\ProjSrc\SrcDrfn\Chart\Common_ST\STGfxOutBarCtrl.cpp
; File C:\Program Files (x86)\Microsoft Visual Studio\2019\Community\VC\Tools\MSVC\14.29.30133\atlmfc\include\afxcoll.inl
; File D:\git\src\IBK\IBK_DRFN\ProjSrc\SrcDrfn\Chart\Common_ST\STGfxOutBarCtrl.cpp
; File C:\Program Files (x86)\Microsoft Visual Studio\2019\Community\VC\Tools\MSVC\14.29.30133\atlmfc\include\afxcoll.inl
; File D:\git\src\IBK\IBK_DRFN\ProjSrc\SrcDrfn\Chart\Common_ST\STGfxOutBarCtrl.cpp
; File C:\Program Files (x86)\Microsoft Visual Studio\2019\Community\VC\Tools\MSVC\14.29.30133\atlmfc\include\afxcoll.inl
; File D:\git\src\IBK\IBK_DRFN\ProjSrc\SrcDrfn\Chart\Common_ST\STGfxOutBarCtrl.cpp
; File C:\Program Files (x86)\Microsoft Visual Studio\2019\Community\VC\Tools\MSVC\14.29.30133\atlmfc\include\atltypes.h
; File D:\git\src\IBK\IBK_DRFN\ProjSrc\SrcDrfn\Chart\Common_ST\STGfxOutBarCtrl.cpp
; File C:\Program Files (x86)\Microsoft Visual Studio\2019\Community\VC\Tools\MSVC\14.29.30133\atlmfc\include\atltypes.h
; File D:\git\src\IBK\IBK_DRFN\ProjSrc\SrcDrfn\Chart\Common_ST\STGfxOutBarCtrl.cpp
;	COMDAT ?HitTestEx@CSTGfxOutBarCtrl@@QAEHABVCPoint@@AAH@Z
_TEXT	SEGMENT
_pbf$1$ = -48						; size = 4
_index$GSCopy$1$ = -44					; size = 4
_max$2$ = -40						; size = 4
_max$1$ = -40						; size = 4
_rc$ = -36						; size = 16
_itemRc$1 = -20						; size = 16
__$ArrayPad$ = -4					; size = 4
_point$ = 8						; size = 4
_index$ = 12						; size = 4
?HitTestEx@CSTGfxOutBarCtrl@@QAEHABVCPoint@@AAH@Z PROC	; CSTGfxOutBarCtrl::HitTestEx, COMDAT
; _this$ = ecx

; 850  : {

  00000	55		 push	 ebp
  00001	8b ec		 mov	 ebp, esp
  00003	83 ec 30	 sub	 esp, 48			; 00000030H
  00006	a1 00 00 00 00	 mov	 eax, DWORD PTR ___security_cookie
  0000b	33 c5		 xor	 eax, ebp
  0000d	89 45 fc	 mov	 DWORD PTR __$ArrayPad$[ebp], eax
  00010	8b 45 0c	 mov	 eax, DWORD PTR _index$[ebp]
  00013	53		 push	 ebx
  00014	8b 5d 08	 mov	 ebx, DWORD PTR _point$[ebp]
  00017	57		 push	 edi
  00018	8b f9		 mov	 edi, ecx
  0001a	89 45 d4	 mov	 DWORD PTR _index$GSCopy$1$[ebp], eax

; 851  : 	if (bUpArrow && rcUpArrow.PtInRect(point)) return htUpScroll;

  0001d	8b 0d 00 00 00
	00		 mov	 ecx, DWORD PTR __imp__PtInRect@12
  00023	80 bf bc 00 00
	00 00		 cmp	 BYTE PTR [edi+188], 0
  0002a	74 2f		 je	 SHORT $LN8@HitTestEx
; File C:\Program Files (x86)\Microsoft Visual Studio\2019\Community\VC\Tools\MSVC\14.29.30133\atlmfc\include\atltypes.h

; 648  : 	return ::PtInRect(this, point);

  0002c	ff 73 04	 push	 DWORD PTR [ebx+4]
; File D:\git\src\IBK\IBK_DRFN\ProjSrc\SrcDrfn\Chart\Common_ST\STGfxOutBarCtrl.cpp

; 851  : 	if (bUpArrow && rcUpArrow.PtInRect(point)) return htUpScroll;

  0002f	8d 87 c0 00 00
	00		 lea	 eax, DWORD PTR [edi+192]
; File C:\Program Files (x86)\Microsoft Visual Studio\2019\Community\VC\Tools\MSVC\14.29.30133\atlmfc\include\atltypes.h

; 648  : 	return ::PtInRect(this, point);

  00035	ff 33		 push	 DWORD PTR [ebx]
  00037	50		 push	 eax
  00038	ff d1		 call	 ecx
; File D:\git\src\IBK\IBK_DRFN\ProjSrc\SrcDrfn\Chart\Common_ST\STGfxOutBarCtrl.cpp

; 851  : 	if (bUpArrow && rcUpArrow.PtInRect(point)) return htUpScroll;

  0003a	85 c0		 test	 eax, eax
  0003c	74 17		 je	 SHORT $LN67@HitTestEx
  0003e	5f		 pop	 edi
  0003f	b8 02 00 00 00	 mov	 eax, 2

; 905  : }

  00044	5b		 pop	 ebx
  00045	8b 4d fc	 mov	 ecx, DWORD PTR __$ArrayPad$[ebp]
  00048	33 cd		 xor	 ecx, ebp
  0004a	e8 00 00 00 00	 call	 @__security_check_cookie@4
  0004f	8b e5		 mov	 esp, ebp
  00051	5d		 pop	 ebp
  00052	c2 08 00	 ret	 8
$LN67@HitTestEx:

; 851  : 	if (bUpArrow && rcUpArrow.PtInRect(point)) return htUpScroll;

  00055	8b 0d 00 00 00
	00		 mov	 ecx, DWORD PTR __imp__PtInRect@12
$LN8@HitTestEx:

; 852  : 	if (bDownArrow && rcDownArrow.PtInRect(point)) return htDownScroll;

  0005b	80 bf bd 00 00
	00 00		 cmp	 BYTE PTR [edi+189], 0
  00062	74 29		 je	 SHORT $LN9@HitTestEx
; File C:\Program Files (x86)\Microsoft Visual Studio\2019\Community\VC\Tools\MSVC\14.29.30133\atlmfc\include\atltypes.h

; 648  : 	return ::PtInRect(this, point);

  00064	ff 73 04	 push	 DWORD PTR [ebx+4]
; File D:\git\src\IBK\IBK_DRFN\ProjSrc\SrcDrfn\Chart\Common_ST\STGfxOutBarCtrl.cpp

; 852  : 	if (bDownArrow && rcDownArrow.PtInRect(point)) return htDownScroll;

  00067	8d 87 d0 00 00
	00		 lea	 eax, DWORD PTR [edi+208]
; File C:\Program Files (x86)\Microsoft Visual Studio\2019\Community\VC\Tools\MSVC\14.29.30133\atlmfc\include\atltypes.h

; 648  : 	return ::PtInRect(this, point);

  0006d	ff 33		 push	 DWORD PTR [ebx]
  0006f	50		 push	 eax
  00070	ff d1		 call	 ecx
; File D:\git\src\IBK\IBK_DRFN\ProjSrc\SrcDrfn\Chart\Common_ST\STGfxOutBarCtrl.cpp

; 852  : 	if (bDownArrow && rcDownArrow.PtInRect(point)) return htDownScroll;

  00072	85 c0		 test	 eax, eax
  00074	74 17		 je	 SHORT $LN9@HitTestEx
  00076	5f		 pop	 edi
  00077	b8 03 00 00 00	 mov	 eax, 3

; 905  : }

  0007c	5b		 pop	 ebx
  0007d	8b 4d fc	 mov	 ecx, DWORD PTR __$ArrayPad$[ebp]
  00080	33 cd		 xor	 ecx, ebp
  00082	e8 00 00 00 00	 call	 @__security_check_cookie@4
  00087	8b e5		 mov	 esp, ebp
  00089	5d		 pop	 ebp
  0008a	c2 08 00	 ret	 8
$LN9@HitTestEx:

; 853  : 
; 854  : 	int max = arFolder.GetSize(), t;

  0008d	8b 87 08 01 00
	00		 mov	 eax, DWORD PTR [edi+264]
  00093	89 45 d8	 mov	 DWORD PTR _max$2$[ebp], eax

; 855  : 	if(max==0) return htNothing;

  00096	85 c0		 test	 eax, eax
  00098	75 15		 jne	 SHORT $LN10@HitTestEx
  0009a	5f		 pop	 edi
  0009b	83 c8 ff	 or	 eax, -1

; 905  : }

  0009e	5b		 pop	 ebx
  0009f	8b 4d fc	 mov	 ecx, DWORD PTR __$ArrayPad$[ebp]
  000a2	33 cd		 xor	 ecx, ebp
  000a4	e8 00 00 00 00	 call	 @__security_check_cookie@4
  000a9	8b e5		 mov	 esp, ebp
  000ab	5d		 pop	 ebp
  000ac	c2 08 00	 ret	 8
$LN10@HitTestEx:
  000af	56		 push	 esi
  000b0	0f 57 c0	 xorps	 xmm0, xmm0

; 858  : 	for (t = 0; t < max; t++)

  000b3	33 f6		 xor	 esi, esi
; File C:\Program Files (x86)\Microsoft Visual Studio\2019\Community\VC\Tools\MSVC\14.29.30133\atlmfc\include\atltypes.h

; 528  : 	left = 0;

  000b5	0f 11 45 dc	 movups	 XMMWORD PTR _rc$[ebp], xmm0
; File D:\git\src\IBK\IBK_DRFN\ProjSrc\SrcDrfn\Chart\Common_ST\STGfxOutBarCtrl.cpp

; 858  : 	for (t = 0; t < max; t++)

  000b9	85 c0		 test	 eax, eax
  000bb	7e 2c		 jle	 SHORT $LN3@HitTestEx
  000bd	0f 1f 00	 npad	 3
$LL4@HitTestEx:

; 859  : 	{
; 860  : 		GetFolderRect(t, rc);

  000c0	8d 45 dc	 lea	 eax, DWORD PTR _rc$[ebp]
  000c3	8b cf		 mov	 ecx, edi
  000c5	50		 push	 eax
  000c6	56		 push	 esi
  000c7	e8 00 00 00 00	 call	 ?GetFolderRect@CSTGfxOutBarCtrl@@QBE_NHAAVCRect@@@Z ; CSTGfxOutBarCtrl::GetFolderRect
; File C:\Program Files (x86)\Microsoft Visual Studio\2019\Community\VC\Tools\MSVC\14.29.30133\atlmfc\include\atltypes.h

; 648  : 	return ::PtInRect(this, point);

  000cc	ff 73 04	 push	 DWORD PTR [ebx+4]
  000cf	8d 45 dc	 lea	 eax, DWORD PTR _rc$[ebp]
  000d2	ff 33		 push	 DWORD PTR [ebx]
  000d4	50		 push	 eax
  000d5	ff 15 00 00 00
	00		 call	 DWORD PTR __imp__PtInRect@12
; File D:\git\src\IBK\IBK_DRFN\ProjSrc\SrcDrfn\Chart\Common_ST\STGfxOutBarCtrl.cpp

; 861  : 		if (rc.PtInRect(point)) 

  000db	85 c0		 test	 eax, eax
  000dd	0f 85 bd 00 00
	00		 jne	 $LN53@HitTestEx

; 858  : 	for (t = 0; t < max; t++)

  000e3	46		 inc	 esi
  000e4	3b 75 d8	 cmp	 esi, DWORD PTR _max$2$[ebp]
  000e7	7c d7		 jl	 SHORT $LL4@HitTestEx
$LN3@HitTestEx:

; 865  : 		}
; 866  : 	}
; 867  : 	GetInsideRect(rc);

  000e9	8d 45 dc	 lea	 eax, DWORD PTR _rc$[ebp]
  000ec	8b cf		 mov	 ecx, edi
  000ee	50		 push	 eax
  000ef	e8 00 00 00 00	 call	 ?GetInsideRect@CSTGfxOutBarCtrl@@QBEXAAVCRect@@@Z ; CSTGfxOutBarCtrl::GetInsideRect

; 868  : 	CBarFolder * pbf = (CBarFolder *) arFolder.GetAt(iSelFolder);

  000f4	8b 8f 30 01 00
	00		 mov	 ecx, DWORD PTR [edi+304]
; File C:\Program Files (x86)\Microsoft Visual Studio\2019\Community\VC\Tools\MSVC\14.29.30133\atlmfc\include\afxcoll.inl

; 203  : 		if( nIndex < 0 || nIndex >= m_nSize )

  000fa	85 c9		 test	 ecx, ecx
  000fc	0f 88 18 01 00
	00		 js	 $LN39@HitTestEx
  00102	3b 8f 08 01 00
	00		 cmp	 ecx, DWORD PTR [edi+264]
  00108	0f 8d 0c 01 00
	00		 jge	 $LN39@HitTestEx

; 205  : 		return m_pData[nIndex]; }

  0010e	8b 87 04 01 00
	00		 mov	 eax, DWORD PTR [edi+260]
; File D:\git\src\IBK\IBK_DRFN\ProjSrc\SrcDrfn\Chart\Common_ST\STGfxOutBarCtrl.cpp

; 870  : 	for (t = iFirstItem; t < max; t++)

  00114	8b b7 1c 01 00
	00		 mov	 esi, DWORD PTR [edi+284]
; File C:\Program Files (x86)\Microsoft Visual Studio\2019\Community\VC\Tools\MSVC\14.29.30133\atlmfc\include\afxcoll.inl

; 205  : 		return m_pData[nIndex]; }

  0011a	8b 04 88	 mov	 eax, DWORD PTR [eax+ecx*4]
  0011d	89 45 d0	 mov	 DWORD PTR _pbf$1$[ebp], eax
; File D:\git\src\IBK\IBK_DRFN\ProjSrc\SrcDrfn\Chart\Common_ST\STGfxOutBarCtrl.cpp

; 869  : 	max = pbf->GetItemCount();

  00120	8b 48 1c	 mov	 ecx, DWORD PTR [eax+28]
  00123	89 4d d8	 mov	 DWORD PTR _max$1$[ebp], ecx

; 870  : 	for (t = iFirstItem; t < max; t++)

  00126	3b f1		 cmp	 esi, ecx
  00128	0f 8d b9 00 00
	00		 jge	 $LN6@HitTestEx
  0012e	66 90		 npad	 2
$LL7@HitTestEx:
; File C:\Program Files (x86)\Microsoft Visual Studio\2019\Community\VC\Tools\MSVC\14.29.30133\atlmfc\include\afxcoll.inl

; 203  : 		if( nIndex < 0 || nIndex >= m_nSize )

  00130	85 f6		 test	 esi, esi
  00132	0f 88 e2 00 00
	00		 js	 $LN39@HitTestEx
  00138	3b 70 1c	 cmp	 esi, DWORD PTR [eax+28]
  0013b	0f 8d d9 00 00
	00		 jge	 $LN39@HitTestEx
; File D:\git\src\IBK\IBK_DRFN\ProjSrc\SrcDrfn\Chart\Common_ST\STGfxOutBarCtrl.cpp

; 215  : 	return dwFlags&fSmallIcon;

  00141	f6 87 fc 00 00
	00 01		 test	 BYTE PTR [edi+252], 1

; 874  : 		if (!IsSmallIconView()) 

  00148	8d 4d ec	 lea	 ecx, DWORD PTR _itemRc$1[ebp]

; 215  : 	return dwFlags&fSmallIcon;

  0014b	8b 87 30 01 00
	00		 mov	 eax, DWORD PTR [edi+304]
  00151	0f 57 c0	 xorps	 xmm0, xmm0

; 874  : 		if (!IsSmallIconView()) 

  00154	51		 push	 ecx
  00155	56		 push	 esi
; File C:\Program Files (x86)\Microsoft Visual Studio\2019\Community\VC\Tools\MSVC\14.29.30133\atlmfc\include\atltypes.h

; 528  : 	left = 0;

  00156	0f 11 45 ec	 movups	 XMMWORD PTR _itemRc$1[ebp], xmm0
; File D:\git\src\IBK\IBK_DRFN\ProjSrc\SrcDrfn\Chart\Common_ST\STGfxOutBarCtrl.cpp

; 874  : 		if (!IsSmallIconView()) 

  0015a	8b cf		 mov	 ecx, edi
  0015c	50		 push	 eax
  0015d	75 5b		 jne	 SHORT $LN12@HitTestEx

; 875  : 		{
; 876  : 			GetIconRect(iSelFolder, t, itemRc);

  0015f	e8 00 00 00 00	 call	 ?GetIconRect@CSTGfxOutBarCtrl@@QAEXHHAAVCRect@@@Z ; CSTGfxOutBarCtrl::GetIconRect
; File C:\Program Files (x86)\Microsoft Visual Studio\2019\Community\VC\Tools\MSVC\14.29.30133\atlmfc\include\atltypes.h

; 648  : 	return ::PtInRect(this, point);

  00164	ff 73 04	 push	 DWORD PTR [ebx+4]
  00167	8d 45 ec	 lea	 eax, DWORD PTR _itemRc$1[ebp]
  0016a	ff 33		 push	 DWORD PTR [ebx]
  0016c	50		 push	 eax
  0016d	ff 15 00 00 00
	00		 call	 DWORD PTR __imp__PtInRect@12
; File D:\git\src\IBK\IBK_DRFN\ProjSrc\SrcDrfn\Chart\Common_ST\STGfxOutBarCtrl.cpp

; 877  : 			if (itemRc.PtInRect(point))

  00173	85 c0		 test	 eax, eax
  00175	0f 85 82 00 00
	00		 jne	 $LN59@HitTestEx

; 878  : 			{
; 879  : 				index = t;
; 880  : 				return htItem;
; 881  : 			}
; 882  : 			else if (itemRc.top > rc.bottom) break;

  0017b	8b 45 f0	 mov	 eax, DWORD PTR _itemRc$1[ebp+4]
  0017e	3b 45 e8	 cmp	 eax, DWORD PTR _rc$[ebp+12]
  00181	7f 64		 jg	 SHORT $LN6@HitTestEx

; 883  : 			GetLabelRect(iSelFolder, t, itemRc);

  00183	8d 45 ec	 lea	 eax, DWORD PTR _itemRc$1[ebp]
  00186	8b cf		 mov	 ecx, edi
  00188	50		 push	 eax
  00189	56		 push	 esi
  0018a	ff b7 30 01 00
	00		 push	 DWORD PTR [edi+304]
  00190	e8 00 00 00 00	 call	 ?GetLabelRect@CSTGfxOutBarCtrl@@QAEXHHAAVCRect@@@Z ; CSTGfxOutBarCtrl::GetLabelRect

; 884  : 			itemRc.top -= yLargeIconLabelOffset;

  00195	8b 87 a8 00 00
	00		 mov	 eax, DWORD PTR [edi+168]
  0019b	29 45 f0	 sub	 DWORD PTR _itemRc$1[ebp+4], eax

; 885  : 
; 886  : 			if (itemRc.PtInRect(point))
; 887  : 			{
; 888  : 				index = t;
; 889  : 				return htItem;
; 890  : 			}
; 891  : 			else if (itemRc.top > rc.bottom) break;
; 892  : 		}

  0019e	eb 1f		 jmp	 SHORT $LN72@HitTestEx
$LN53@HitTestEx:

; 862  : 		{
; 863  : 			index = t;

  001a0	8b 45 d4	 mov	 eax, DWORD PTR _index$GSCopy$1$[ebp]
  001a3	89 30		 mov	 DWORD PTR [eax], esi

; 864  : 			return htFolder;

  001a5	33 c0		 xor	 eax, eax
  001a7	5e		 pop	 esi
  001a8	5f		 pop	 edi

; 905  : }

  001a9	5b		 pop	 ebx
  001aa	8b 4d fc	 mov	 ecx, DWORD PTR __$ArrayPad$[ebp]
  001ad	33 cd		 xor	 ecx, ebp
  001af	e8 00 00 00 00	 call	 @__security_check_cookie@4
  001b4	8b e5		 mov	 esp, ebp
  001b6	5d		 pop	 ebp
  001b7	c2 08 00	 ret	 8
$LN12@HitTestEx:

; 893  : 		else
; 894  : 		{
; 895  : 			GetItemRect(iSelFolder, t, itemRc);

  001ba	e8 00 00 00 00	 call	 ?GetItemRect@CSTGfxOutBarCtrl@@QAEXHHAAVCRect@@@Z ; CSTGfxOutBarCtrl::GetItemRect
$LN72@HitTestEx:

; 870  : 	for (t = iFirstItem; t < max; t++)

  001bf	ff 73 04	 push	 DWORD PTR [ebx+4]
  001c2	8d 45 ec	 lea	 eax, DWORD PTR _itemRc$1[ebp]
  001c5	ff 33		 push	 DWORD PTR [ebx]
  001c7	50		 push	 eax
  001c8	ff 15 00 00 00
	00		 call	 DWORD PTR __imp__PtInRect@12
  001ce	85 c0		 test	 eax, eax
  001d0	75 2b		 jne	 SHORT $LN59@HitTestEx
  001d2	8b 45 f0	 mov	 eax, DWORD PTR _itemRc$1[ebp+4]
  001d5	3b 45 e8	 cmp	 eax, DWORD PTR _rc$[ebp+12]
  001d8	7f 0d		 jg	 SHORT $LN6@HitTestEx
  001da	8b 45 d0	 mov	 eax, DWORD PTR _pbf$1$[ebp]
  001dd	46		 inc	 esi
  001de	3b 75 d8	 cmp	 esi, DWORD PTR _max$1$[ebp]
  001e1	0f 8c 49 ff ff
	ff		 jl	 $LL7@HitTestEx
$LN6@HitTestEx:
  001e7	5e		 pop	 esi
  001e8	5f		 pop	 edi

; 899  : 				return htItem;
; 900  : 			}
; 901  : 			else if (itemRc.top > rc.bottom) break;
; 902  : 		}
; 903  : 	}
; 904  : 	return htNothing;

  001e9	83 c8 ff	 or	 eax, -1

; 905  : }

  001ec	5b		 pop	 ebx
  001ed	8b 4d fc	 mov	 ecx, DWORD PTR __$ArrayPad$[ebp]
  001f0	33 cd		 xor	 ecx, ebp
  001f2	e8 00 00 00 00	 call	 @__security_check_cookie@4
  001f7	8b e5		 mov	 esp, ebp
  001f9	5d		 pop	 ebp
  001fa	c2 08 00	 ret	 8
$LN59@HitTestEx:

; 896  : 			if (itemRc.PtInRect(point))
; 897  : 			{
; 898  : 				index = t;

  001fd	8b 45 d4	 mov	 eax, DWORD PTR _index$GSCopy$1$[ebp]

; 905  : }

  00200	8b 4d fc	 mov	 ecx, DWORD PTR __$ArrayPad$[ebp]
  00203	33 cd		 xor	 ecx, ebp
  00205	89 30		 mov	 DWORD PTR [eax], esi
  00207	b8 01 00 00 00	 mov	 eax, 1
  0020c	5e		 pop	 esi
  0020d	5f		 pop	 edi
  0020e	5b		 pop	 ebx
  0020f	e8 00 00 00 00	 call	 @__security_check_cookie@4
  00214	8b e5		 mov	 esp, ebp
  00216	5d		 pop	 ebp
  00217	c2 08 00	 ret	 8
$LN39@HitTestEx:
  0021a	e8 00 00 00 00	 call	 ?AfxThrowInvalidArgException@@YGXXZ ; AfxThrowInvalidArgException
$LN69@HitTestEx:
  0021f	cc		 int	 3
?HitTestEx@CSTGfxOutBarCtrl@@QAEHABVCPoint@@AAH@Z ENDP	; CSTGfxOutBarCtrl::HitTestEx
_TEXT	ENDS
; Function compile flags: /Ogtp
; File D:\git\src\IBK\IBK_DRFN\ProjSrc\SrcDrfn\Chart\Common_ST\STGfxOutBarCtrl.cpp
; File C:\Program Files (x86)\Microsoft Visual Studio\2019\Community\VC\Tools\MSVC\14.29.30133\atlmfc\include\afxwin2.inl
; File D:\git\src\IBK\IBK_DRFN\ProjSrc\SrcDrfn\Chart\Common_ST\STGfxOutBarCtrl.cpp
; File C:\Program Files (x86)\Microsoft Visual Studio\2019\Community\VC\Tools\MSVC\14.29.30133\atlmfc\include\afxwin2.inl
; File D:\git\src\IBK\IBK_DRFN\ProjSrc\SrcDrfn\Chart\Common_ST\STGfxOutBarCtrl.cpp
; File C:\Program Files (x86)\Microsoft Visual Studio\2019\Community\VC\Tools\MSVC\14.29.30133\atlmfc\include\atltypes.h
; File D:\git\src\IBK\IBK_DRFN\ProjSrc\SrcDrfn\Chart\Common_ST\STGfxOutBarCtrl.cpp
; File C:\Program Files (x86)\Microsoft Visual Studio\2019\Community\VC\Tools\MSVC\14.29.30133\atlmfc\include\atltypes.h
; File D:\git\src\IBK\IBK_DRFN\ProjSrc\SrcDrfn\Chart\Common_ST\STGfxOutBarCtrl.cpp
; File C:\Program Files (x86)\Microsoft Visual Studio\2019\Community\VC\Tools\MSVC\14.29.30133\atlmfc\include\afxwin1.inl
; File D:\git\src\IBK\IBK_DRFN\ProjSrc\SrcDrfn\Chart\Common_ST\STGfxOutBarCtrl.cpp
;	COMDAT ?HighlightFolder@CSTGfxOutBarCtrl@@QAEXH@Z
_TEXT	SEGMENT
_dc$2 = -104						; size = 20
$T3 = -84						; size = 8
$T4 = -84						; size = 8
_dc$5 = -76						; size = 20
_pn$6 = -56						; size = 8
_pn$7 = -56						; size = 8
_pn$8 = -56						; size = 8
_rc$9 = -48						; size = 16
_rc$10 = -32						; size = 16
__$ArrayPad$ = -16					; size = 4
__$EHRec$ = -12						; size = 12
_index$ = 8						; size = 4
?HighlightFolder@CSTGfxOutBarCtrl@@QAEXH@Z PROC		; CSTGfxOutBarCtrl::HighlightFolder, COMDAT
; _this$ = ecx

; 908  : {

  00000	55		 push	 ebp
  00001	8b ec		 mov	 ebp, esp
  00003	6a ff		 push	 -1
  00005	68 00 00 00 00	 push	 __ehhandler$?HighlightFolder@CSTGfxOutBarCtrl@@QAEXH@Z
  0000a	64 a1 00 00 00
	00		 mov	 eax, DWORD PTR fs:0
  00010	50		 push	 eax
  00011	83 ec 5c	 sub	 esp, 92			; 0000005cH
  00014	a1 00 00 00 00	 mov	 eax, DWORD PTR ___security_cookie
  00019	33 c5		 xor	 eax, ebp
  0001b	89 45 f0	 mov	 DWORD PTR __$ArrayPad$[ebp], eax
  0001e	53		 push	 ebx
  0001f	56		 push	 esi
  00020	57		 push	 edi
  00021	50		 push	 eax
  00022	8d 45 f4	 lea	 eax, DWORD PTR __$EHRec$[ebp]
  00025	64 a3 00 00 00
	00		 mov	 DWORD PTR fs:0, eax
  0002b	8b f9		 mov	 edi, ecx
; File C:\Program Files (x86)\Microsoft Visual Studio\2019\Community\VC\Tools\MSVC\14.29.30133\atlmfc\include\afxwin2.inl

; 165  : 	{ return CWnd::FromHandle(::GetFocus()); }

  0002d	ff 15 00 00 00
	00		 call	 DWORD PTR __imp__GetFocus@0
  00033	50		 push	 eax
  00034	e8 00 00 00 00	 call	 ?FromHandle@CWnd@@SGPAV1@PAUHWND__@@@Z ; CWnd::FromHandle
; File D:\git\src\IBK\IBK_DRFN\ProjSrc\SrcDrfn\Chart\Common_ST\STGfxOutBarCtrl.cpp

; 910  : 	if (pf != NULL && pf != this && IsChild(pf)) return;

  00039	85 c0		 test	 eax, eax
  0003b	74 18		 je	 SHORT $LN2@HighlightF
  0003d	3b c7		 cmp	 eax, edi
  0003f	74 14		 je	 SHORT $LN2@HighlightF
; File C:\Program Files (x86)\Microsoft Visual Studio\2019\Community\VC\Tools\MSVC\14.29.30133\atlmfc\include\afxwin2.inl

; 211  : 	{ ASSERT(::IsWindow(m_hWnd)); return ::IsChild(m_hWnd, pWnd->GetSafeHwnd()); }

  00041	ff 70 20	 push	 DWORD PTR [eax+32]
  00044	ff 77 20	 push	 DWORD PTR [edi+32]
  00047	ff 15 00 00 00
	00		 call	 DWORD PTR __imp__IsChild@8
; File D:\git\src\IBK\IBK_DRFN\ProjSrc\SrcDrfn\Chart\Common_ST\STGfxOutBarCtrl.cpp

; 910  : 	if (pf != NULL && pf != this && IsChild(pf)) return;

  0004d	85 c0		 test	 eax, eax
  0004f	0f 85 9b 01 00
	00		 jne	 $LN9@HighlightF
$LN2@HighlightF:

; 911  : 
; 912  : 	if (iLastFolderHighlighted == index) return;

  00055	8b 87 14 01 00
	00		 mov	 eax, DWORD PTR [edi+276]
  0005b	8b 5d 08	 mov	 ebx, DWORD PTR _index$[ebp]
  0005e	3b c3		 cmp	 eax, ebx
  00060	0f 84 8a 01 00
	00		 je	 $LN9@HighlightF

; 913  : 
; 914  : 	if (iLastFolderHighlighted >= 0)

  00066	85 c0		 test	 eax, eax
  00068	0f 88 cf 00 00
	00		 js	 $LN5@HighlightF

; 917  : 		if (GetFolderRect(iLastFolderHighlighted, rc))

  0006e	8d 4d e0	 lea	 ecx, DWORD PTR _rc$10[ebp]
  00071	0f 57 c0	 xorps	 xmm0, xmm0
  00074	51		 push	 ecx
  00075	50		 push	 eax
  00076	8b cf		 mov	 ecx, edi
; File C:\Program Files (x86)\Microsoft Visual Studio\2019\Community\VC\Tools\MSVC\14.29.30133\atlmfc\include\atltypes.h

; 528  : 	left = 0;

  00078	0f 11 45 e0	 movups	 XMMWORD PTR _rc$10[ebp], xmm0
; File D:\git\src\IBK\IBK_DRFN\ProjSrc\SrcDrfn\Chart\Common_ST\STGfxOutBarCtrl.cpp

; 917  : 		if (GetFolderRect(iLastFolderHighlighted, rc))

  0007c	e8 00 00 00 00	 call	 ?GetFolderRect@CSTGfxOutBarCtrl@@QBE_NHAAVCRect@@@Z ; CSTGfxOutBarCtrl::GetFolderRect
  00081	84 c0		 test	 al, al
  00083	0f 84 b4 00 00
	00		 je	 $LN5@HighlightF

; 918  : 		{
; 919  : 			CClientDC dc(this);

  00089	57		 push	 edi
  0008a	8d 4d b4	 lea	 ecx, DWORD PTR _dc$5[ebp]
  0008d	e8 00 00 00 00	 call	 ??0CClientDC@@QAE@PAVCWnd@@@Z ; CClientDC::CClientDC

; 920  : 			if(iLastFolderHighlighted == iSelFolder)

  00092	8b 87 14 01 00
	00		 mov	 eax, DWORD PTR [edi+276]
  00098	8d 4d c8	 lea	 ecx, DWORD PTR _pn$8[ebp]
  0009b	c7 45 fc 00 00
	00 00		 mov	 DWORD PTR __$EHRec$[ebp+8], 0
  000a2	3b 87 30 01 00
	00		 cmp	 eax, DWORD PTR [edi+304]
  000a8	75 15		 jne	 SHORT $LN6@HighlightF

; 921  : 			{
; 922  : 				CPen pn(PS_SOLID, 1, crBackGroundColor1);

  000aa	ff b7 84 00 00
	00		 push	 DWORD PTR [edi+132]
  000b0	6a 01		 push	 1
  000b2	6a 00		 push	 0
  000b4	e8 00 00 00 00	 call	 ??0CPen@@QAE@HHK@Z	; CPen::CPen
  000b9	c6 45 fc 01	 mov	 BYTE PTR __$EHRec$[ebp+8], 1

; 923  : 				CPen * op = dc.SelectObject(&pn);
; 924  : 				dc.MoveTo(rc.left, rc.bottom-1);
; 925  : 				dc.LineTo(rc.right-1, rc.bottom-1);
; 926  : 				dc.LineTo(rc.right-1, rc.top);
; 927  : 				dc.SelectObject(op);
; 928  : 			}

  000bd	eb 13		 jmp	 SHORT $LN39@HighlightF
$LN6@HighlightF:

; 929  : 			else
; 930  : 			{
; 931  : 				CPen pn(PS_SOLID, 1, cr3dUnFace);

  000bf	ff b7 90 00 00
	00		 push	 DWORD PTR [edi+144]
  000c5	6a 01		 push	 1
  000c7	6a 00		 push	 0
  000c9	e8 00 00 00 00	 call	 ??0CPen@@QAE@HHK@Z	; CPen::CPen
  000ce	c6 45 fc 02	 mov	 BYTE PTR __$EHRec$[ebp+8], 2
$LN39@HighlightF:

; 932  : 				CPen * op = dc.SelectObject(&pn);
; 933  : 				dc.MoveTo(rc.left, rc.bottom-1);
; 934  : 				dc.LineTo(rc.right-1, rc.bottom-1);
; 935  : 				dc.LineTo(rc.right-1, rc.top);
; 936  : 				dc.SelectObject(op);
; 937  : 			}
; 938  : 			//CClientDC dc(this);
; 939  : 			//CPen pn(PS_SOLID, 1, crBackGroundColor1);//crShadowBorder);
; 940  : 			//CPen * op = dc.SelectObject(&pn);
; 941  : 			//dc.MoveTo(rc.left, rc.bottom-1);
; 942  : 			//dc.LineTo(rc.right-1, rc.bottom-1);
; 943  : 			//dc.LineTo(rc.right-1, rc.top);
; 944  : 			//CPen pn1(PS_SOLID, 1, cr3dFace);
; 945  : 			//dc.SelectObject(&pn1);
; 946  : 			//dc.MoveTo(rc.left+1, rc.bottom-2);
; 947  : 			//dc.LineTo(rc.right-2, rc.bottom-2);
; 948  : 			//dc.LineTo(rc.right-2, rc.top+1);
; 949  : 			//dc.SelectObject(op);
; 950  : 		}

  000d2	8d 45 c8	 lea	 eax, DWORD PTR _pn$7[ebp]
  000d5	8d 4d b4	 lea	 ecx, DWORD PTR _dc$5[ebp]
  000d8	50		 push	 eax
  000d9	e8 00 00 00 00	 call	 ?SelectObject@CDC@@QAEPAVCPen@@PAV2@@Z ; CDC::SelectObject
  000de	8b 4d ec	 mov	 ecx, DWORD PTR _rc$10[ebp+12]
  000e1	8b f0		 mov	 esi, eax
  000e3	49		 dec	 ecx
  000e4	8d 45 ac	 lea	 eax, DWORD PTR $T4[ebp]
  000e7	51		 push	 ecx
  000e8	ff 75 e0	 push	 DWORD PTR _rc$10[ebp]
  000eb	8d 4d b4	 lea	 ecx, DWORD PTR _dc$5[ebp]
  000ee	50		 push	 eax
  000ef	e8 00 00 00 00	 call	 ?MoveTo@CDC@@QAE?AVCPoint@@HH@Z ; CDC::MoveTo
  000f4	8b 45 ec	 mov	 eax, DWORD PTR _rc$10[ebp+12]
  000f7	8d 4d b4	 lea	 ecx, DWORD PTR _dc$5[ebp]
  000fa	48		 dec	 eax
  000fb	50		 push	 eax
  000fc	8b 45 e8	 mov	 eax, DWORD PTR _rc$10[ebp+8]
  000ff	48		 dec	 eax
  00100	50		 push	 eax
  00101	e8 00 00 00 00	 call	 ?LineTo@CDC@@QAEHHH@Z	; CDC::LineTo
  00106	8b 45 e8	 mov	 eax, DWORD PTR _rc$10[ebp+8]
  00109	8d 4d b4	 lea	 ecx, DWORD PTR _dc$5[ebp]
  0010c	ff 75 e4	 push	 DWORD PTR _rc$10[ebp+4]
  0010f	48		 dec	 eax
  00110	50		 push	 eax
  00111	e8 00 00 00 00	 call	 ?LineTo@CDC@@QAEHHH@Z	; CDC::LineTo
  00116	56		 push	 esi
  00117	8d 4d b4	 lea	 ecx, DWORD PTR _dc$5[ebp]
  0011a	e8 00 00 00 00	 call	 ?SelectObject@CDC@@QAEPAVCPen@@PAV2@@Z ; CDC::SelectObject
  0011f	8d 4d c8	 lea	 ecx, DWORD PTR _pn$7[ebp]
  00122	c7 45 c8 00 00
	00 00		 mov	 DWORD PTR _pn$7[ebp], OFFSET ??_7CPen@@6B@
  00129	e8 00 00 00 00	 call	 ??1CGdiObject@@UAE@XZ	; CGdiObject::~CGdiObject
  0012e	8d 4d b4	 lea	 ecx, DWORD PTR _dc$5[ebp]
  00131	c7 45 fc ff ff
	ff ff		 mov	 DWORD PTR __$EHRec$[ebp+8], -1
  00138	e8 00 00 00 00	 call	 ??1CClientDC@@UAE@XZ	; CClientDC::~CClientDC
$LN5@HighlightF:

; 951  : 	}
; 952  : 	iLastFolderHighlighted = index;

  0013d	89 9f 14 01 00
	00		 mov	 DWORD PTR [edi+276], ebx

; 953  : 	if (iLastFolderHighlighted >= 0)

  00143	85 db		 test	 ebx, ebx
  00145	0f 88 a5 00 00
	00		 js	 $LN9@HighlightF

; 956  : 		if (GetFolderRect(iLastFolderHighlighted, rc))

  0014b	8d 45 d0	 lea	 eax, DWORD PTR _rc$9[ebp]
  0014e	0f 57 c0	 xorps	 xmm0, xmm0
  00151	50		 push	 eax
  00152	53		 push	 ebx
  00153	8b cf		 mov	 ecx, edi
; File C:\Program Files (x86)\Microsoft Visual Studio\2019\Community\VC\Tools\MSVC\14.29.30133\atlmfc\include\atltypes.h

; 528  : 	left = 0;

  00155	0f 11 45 d0	 movups	 XMMWORD PTR _rc$9[ebp], xmm0
; File D:\git\src\IBK\IBK_DRFN\ProjSrc\SrcDrfn\Chart\Common_ST\STGfxOutBarCtrl.cpp

; 956  : 		if (GetFolderRect(iLastFolderHighlighted, rc))

  00159	e8 00 00 00 00	 call	 ?GetFolderRect@CSTGfxOutBarCtrl@@QBE_NHAAVCRect@@@Z ; CSTGfxOutBarCtrl::GetFolderRect
  0015e	84 c0		 test	 al, al
  00160	0f 84 8a 00 00
	00		 je	 $LN9@HighlightF

; 957  : 		{
; 958  : 			CClientDC dc(this);

  00166	57		 push	 edi
  00167	8d 4d 98	 lea	 ecx, DWORD PTR _dc$2[ebp]
  0016a	e8 00 00 00 00	 call	 ??0CClientDC@@QAE@PAVCWnd@@@Z ; CClientDC::CClientDC

; 959  : 			CPen pn(PS_SOLID, 1, crDkShadowBorder);

  0016f	ff b7 9c 00 00
	00		 push	 DWORD PTR [edi+156]
  00175	8d 4d c8	 lea	 ecx, DWORD PTR _pn$6[ebp]
  00178	c7 45 fc 03 00
	00 00		 mov	 DWORD PTR __$EHRec$[ebp+8], 3
  0017f	6a 01		 push	 1
  00181	6a 00		 push	 0
  00183	e8 00 00 00 00	 call	 ??0CPen@@QAE@HHK@Z	; CPen::CPen

; 960  : 			CPen * op = dc.SelectObject(&pn);

  00188	8d 45 c8	 lea	 eax, DWORD PTR _pn$6[ebp]
  0018b	c6 45 fc 04	 mov	 BYTE PTR __$EHRec$[ebp+8], 4
  0018f	50		 push	 eax
  00190	8d 4d 98	 lea	 ecx, DWORD PTR _dc$2[ebp]
  00193	e8 00 00 00 00	 call	 ?SelectObject@CDC@@QAEPAVCPen@@PAV2@@Z ; CDC::SelectObject

; 961  : 			dc.MoveTo(rc.left, rc.bottom-1);

  00198	8b 4d dc	 mov	 ecx, DWORD PTR _rc$9[ebp+12]
  0019b	8b f0		 mov	 esi, eax
  0019d	49		 dec	 ecx
  0019e	8d 45 ac	 lea	 eax, DWORD PTR $T3[ebp]
  001a1	51		 push	 ecx
  001a2	ff 75 d0	 push	 DWORD PTR _rc$9[ebp]
  001a5	8d 4d 98	 lea	 ecx, DWORD PTR _dc$2[ebp]
  001a8	50		 push	 eax
  001a9	e8 00 00 00 00	 call	 ?MoveTo@CDC@@QAE?AVCPoint@@HH@Z ; CDC::MoveTo

; 962  : 			dc.LineTo(rc.right-1, rc.bottom-1);

  001ae	8b 45 dc	 mov	 eax, DWORD PTR _rc$9[ebp+12]
  001b1	8d 4d 98	 lea	 ecx, DWORD PTR _dc$2[ebp]
  001b4	48		 dec	 eax
  001b5	50		 push	 eax
  001b6	8b 45 d8	 mov	 eax, DWORD PTR _rc$9[ebp+8]
  001b9	48		 dec	 eax
  001ba	50		 push	 eax
  001bb	e8 00 00 00 00	 call	 ?LineTo@CDC@@QAEHHH@Z	; CDC::LineTo

; 963  : 			dc.LineTo(rc.right-1, rc.top);

  001c0	8b 45 d8	 mov	 eax, DWORD PTR _rc$9[ebp+8]
  001c3	8d 4d 98	 lea	 ecx, DWORD PTR _dc$2[ebp]
  001c6	ff 75 d4	 push	 DWORD PTR _rc$9[ebp+4]
  001c9	48		 dec	 eax
  001ca	50		 push	 eax
  001cb	e8 00 00 00 00	 call	 ?LineTo@CDC@@QAEHHH@Z	; CDC::LineTo

; 964  : 			//CPen pn1(PS_SOLID, 1, crBackGroundColor1);
; 965  : 			//dc.SelectObject(&pn1);
; 966  : 			//dc.MoveTo(rc.left+1, rc.bottom-2);
; 967  : 			//dc.LineTo(rc.right-2, rc.bottom-2);
; 968  : 			//dc.LineTo(rc.right-2, rc.top+1);
; 969  : 			dc.SelectObject(op);

  001d0	56		 push	 esi
  001d1	8d 4d 98	 lea	 ecx, DWORD PTR _dc$2[ebp]
  001d4	e8 00 00 00 00	 call	 ?SelectObject@CDC@@QAEPAVCPen@@PAV2@@Z ; CDC::SelectObject
; File C:\Program Files (x86)\Microsoft Visual Studio\2019\Community\VC\Tools\MSVC\14.29.30133\atlmfc\include\afxwin1.inl

; 106  : 	{ }

  001d9	8d 4d c8	 lea	 ecx, DWORD PTR _pn$6[ebp]
  001dc	c7 45 c8 00 00
	00 00		 mov	 DWORD PTR _pn$6[ebp], OFFSET ??_7CPen@@6B@
  001e3	e8 00 00 00 00	 call	 ??1CGdiObject@@UAE@XZ	; CGdiObject::~CGdiObject
; File D:\git\src\IBK\IBK_DRFN\ProjSrc\SrcDrfn\Chart\Common_ST\STGfxOutBarCtrl.cpp

; 970  : 		}

  001e8	8d 4d 98	 lea	 ecx, DWORD PTR _dc$2[ebp]
  001eb	e8 00 00 00 00	 call	 ??1CClientDC@@UAE@XZ	; CClientDC::~CClientDC
$LN9@HighlightF:

; 971  : 	}
; 972  : }

  001f0	8b 4d f4	 mov	 ecx, DWORD PTR __$EHRec$[ebp]
  001f3	64 89 0d 00 00
	00 00		 mov	 DWORD PTR fs:0, ecx
  001fa	59		 pop	 ecx
  001fb	5f		 pop	 edi
  001fc	5e		 pop	 esi
  001fd	5b		 pop	 ebx
  001fe	8b 4d f0	 mov	 ecx, DWORD PTR __$ArrayPad$[ebp]
  00201	33 cd		 xor	 ecx, ebp
  00203	e8 00 00 00 00	 call	 @__security_check_cookie@4
  00208	8b e5		 mov	 esp, ebp
  0020a	5d		 pop	 ebp
  0020b	c2 04 00	 ret	 4
_TEXT	ENDS
;	COMDAT text$x
text$x	SEGMENT
__unwindfunclet$?HighlightFolder@CSTGfxOutBarCtrl@@QAEXH@Z$0:
  00000	8d 4d b4	 lea	 ecx, DWORD PTR _dc$5[ebp]
  00003	e9 00 00 00 00	 jmp	 ??1CClientDC@@UAE@XZ	; CClientDC::~CClientDC
__unwindfunclet$?HighlightFolder@CSTGfxOutBarCtrl@@QAEXH@Z$1:
  00008	8d 4d c8	 lea	 ecx, DWORD PTR _pn$8[ebp]
  0000b	e9 00 00 00 00	 jmp	 ??1CPen@@UAE@XZ		; CPen::~CPen
__unwindfunclet$?HighlightFolder@CSTGfxOutBarCtrl@@QAEXH@Z$2:
  00010	8d 4d c8	 lea	 ecx, DWORD PTR _pn$7[ebp]
  00013	e9 00 00 00 00	 jmp	 ??1CPen@@UAE@XZ		; CPen::~CPen
__unwindfunclet$?HighlightFolder@CSTGfxOutBarCtrl@@QAEXH@Z$3:
  00018	8d 4d 98	 lea	 ecx, DWORD PTR _dc$2[ebp]
  0001b	e9 00 00 00 00	 jmp	 ??1CClientDC@@UAE@XZ	; CClientDC::~CClientDC
__unwindfunclet$?HighlightFolder@CSTGfxOutBarCtrl@@QAEXH@Z$4:
  00020	8d 4d c8	 lea	 ecx, DWORD PTR _pn$6[ebp]
  00023	e9 00 00 00 00	 jmp	 ??1CPen@@UAE@XZ		; CPen::~CPen
  00028	cc		 int	 3
  00029	cc		 int	 3
  0002a	cc		 int	 3
  0002b	cc		 int	 3
  0002c	cc		 int	 3
__ehhandler$?HighlightFolder@CSTGfxOutBarCtrl@@QAEXH@Z:
  0002d	90		 npad	 1
  0002e	90		 npad	 1
  0002f	8b 54 24 08	 mov	 edx, DWORD PTR [esp+8]
  00033	8d 42 0c	 lea	 eax, DWORD PTR [edx+12]
  00036	8b 4a 94	 mov	 ecx, DWORD PTR [edx-108]
  00039	33 c8		 xor	 ecx, eax
  0003b	e8 00 00 00 00	 call	 @__security_check_cookie@4
  00040	8b 4a fc	 mov	 ecx, DWORD PTR [edx-4]
  00043	33 c8		 xor	 ecx, eax
  00045	e8 00 00 00 00	 call	 @__security_check_cookie@4
  0004a	b8 00 00 00 00	 mov	 eax, OFFSET __ehfuncinfo$?HighlightFolder@CSTGfxOutBarCtrl@@QAEXH@Z
  0004f	e9 00 00 00 00	 jmp	 ___CxxFrameHandler3
text$x	ENDS
?HighlightFolder@CSTGfxOutBarCtrl@@QAEXH@Z ENDP		; CSTGfxOutBarCtrl::HighlightFolder
; Function compile flags: /Ogtp
; File D:\git\src\IBK\IBK_DRFN\ProjSrc\SrcDrfn\Chart\Common_ST\STGfxOutBarCtrl.cpp
; File C:\Program Files (x86)\Microsoft Visual Studio\2019\Community\VC\Tools\MSVC\14.29.30133\atlmfc\include\afxcoll.inl
; File D:\git\src\IBK\IBK_DRFN\ProjSrc\SrcDrfn\Chart\Common_ST\STGfxOutBarCtrl.cpp
; File C:\Program Files (x86)\Microsoft Visual Studio\2019\Community\VC\Tools\MSVC\14.29.30133\atlmfc\include\afxcoll.inl
; File D:\git\src\IBK\IBK_DRFN\ProjSrc\SrcDrfn\Chart\Common_ST\STGfxOutBarCtrl.cpp
; File C:\Program Files (x86)\Microsoft Visual Studio\2019\Community\VC\Tools\MSVC\14.29.30133\atlmfc\include\afxcoll.inl
; File D:\git\src\IBK\IBK_DRFN\ProjSrc\SrcDrfn\Chart\Common_ST\STGfxOutBarCtrl.cpp
; File C:\Program Files (x86)\Microsoft Visual Studio\2019\Community\VC\Tools\MSVC\14.29.30133\atlmfc\include\afxcoll.inl
; File D:\git\src\IBK\IBK_DRFN\ProjSrc\SrcDrfn\Chart\Common_ST\STGfxOutBarCtrl.cpp
;	COMDAT ?InsertItem@CSTGfxOutBarCtrl@@QAEHHHPBDHK@Z
_TEXT	SEGMENT
__$EHRec$ = -12						; size = 12
_pbf$1$ = 8						; size = 4
_folder$ = 8						; size = 4
$T2 = 12						; size = 4
_index$ = 12						; size = 4
_text$ = 16						; size = 4
_image$ = 20						; size = 4
_exData$ = 24						; size = 4
?InsertItem@CSTGfxOutBarCtrl@@QAEHHHPBDHK@Z PROC	; CSTGfxOutBarCtrl::InsertItem, COMDAT
; _this$ = ecx

; 1523 : {

  00000	55		 push	 ebp
  00001	8b ec		 mov	 ebp, esp
  00003	6a ff		 push	 -1
  00005	68 00 00 00 00	 push	 __ehhandler$?InsertItem@CSTGfxOutBarCtrl@@QAEHHHPBDHK@Z
  0000a	64 a1 00 00 00
	00		 mov	 eax, DWORD PTR fs:0
  00010	50		 push	 eax
  00011	53		 push	 ebx
  00012	56		 push	 esi
  00013	57		 push	 edi
  00014	a1 00 00 00 00	 mov	 eax, DWORD PTR ___security_cookie
  00019	33 c5		 xor	 eax, ebp
  0001b	50		 push	 eax
  0001c	8d 45 f4	 lea	 eax, DWORD PTR __$EHRec$[ebp]
  0001f	64 a3 00 00 00
	00		 mov	 DWORD PTR fs:0, eax
; File C:\Program Files (x86)\Microsoft Visual Studio\2019\Community\VC\Tools\MSVC\14.29.30133\atlmfc\include\afxcoll.inl

; 203  : 		if( nIndex < 0 || nIndex >= m_nSize )

  00025	8b 55 08	 mov	 edx, DWORD PTR _folder$[ebp]
  00028	85 d2		 test	 edx, edx
  0002a	0f 88 bf 00 00
	00		 js	 $LN5@InsertItem
  00030	3b 91 08 01 00
	00		 cmp	 edx, DWORD PTR [ecx+264]
  00036	0f 8d b3 00 00
	00		 jge	 $LN5@InsertItem

; 205  : 		return m_pData[nIndex]; }

  0003c	8b 81 04 01 00
	00		 mov	 eax, DWORD PTR [ecx+260]
; File D:\git\src\IBK\IBK_DRFN\ProjSrc\SrcDrfn\Chart\Common_ST\STGfxOutBarCtrl.cpp

; 1526 : 	return pbf->InsertItem(index, text, image, exData);

  00042	8b 5d 0c	 mov	 ebx, DWORD PTR _index$[ebp]
; File C:\Program Files (x86)\Microsoft Visual Studio\2019\Community\VC\Tools\MSVC\14.29.30133\atlmfc\include\afxcoll.inl

; 205  : 		return m_pData[nIndex]; }

  00045	8b 04 90	 mov	 eax, DWORD PTR [eax+edx*4]
  00048	89 45 08	 mov	 DWORD PTR _pbf$1$[ebp], eax
; File D:\git\src\IBK\IBK_DRFN\ProjSrc\SrcDrfn\Chart\Common_ST\STGfxOutBarCtrl.cpp

; 1591 : 	if (index < 0 || index > GetItemCount()) index = GetItemCount();

  0004b	8d 78 1c	 lea	 edi, DWORD PTR [eax+28]
  0004e	85 db		 test	 ebx, ebx
  00050	78 04		 js	 SHORT $LN22@InsertItem
  00052	3b 1f		 cmp	 ebx, DWORD PTR [edi]
  00054	7e 02		 jle	 SHORT $LN9@InsertItem
$LN22@InsertItem:
  00056	8b 1f		 mov	 ebx, DWORD PTR [edi]
$LN9@InsertItem:

; 1592 : 
; 1593 : 	int c = GetItemCount();
; 1594 : 
; 1595 : 	CBarItem * pbf = new CBarItem(text, image, exData);

  00058	6a 10		 push	 16			; 00000010H
  0005a	e8 00 00 00 00	 call	 ??2@YAPAXI@Z		; operator new
  0005f	8b f0		 mov	 esi, eax
  00061	83 c4 04	 add	 esp, 4
  00064	89 75 0c	 mov	 DWORD PTR $T2[ebp], esi
  00067	c7 45 fc 00 00
	00 00		 mov	 DWORD PTR __$EHRec$[ebp+8], 0
  0006e	85 f6		 test	 esi, esi
  00070	74 40		 je	 SHORT $LN14@InsertItem

; 1657 : 	iImageIndex = image;

  00072	8b 45 14	 mov	 eax, DWORD PTR _image$[ebp]
  00075	89 46 04	 mov	 DWORD PTR [esi+4], eax

; 1658 : 	dwData = exData;

  00078	8b 45 18	 mov	 eax, DWORD PTR _exData$[ebp]
  0007b	89 46 0c	 mov	 DWORD PTR [esi+12], eax

; 1659 : 	if (name)

  0007e	8b 45 10	 mov	 eax, DWORD PTR _text$[ebp]
  00081	c7 06 00 00 00
	00		 mov	 DWORD PTR [esi], OFFSET ??_7CBarItem@CSTGfxOutBarCtrl@@6B@
  00087	c7 46 08 00 00
	00 00		 mov	 DWORD PTR [esi+8], 0
  0008e	85 c0		 test	 eax, eax
  00090	74 22		 je	 SHORT $LN15@InsertItem

; 1660 : 	{
; 1661 : 		cItem = new char[lstrlen(name)+1];

  00092	50		 push	 eax
  00093	ff 15 00 00 00
	00		 call	 DWORD PTR __imp__lstrlenA@4
  00099	40		 inc	 eax
  0009a	50		 push	 eax
  0009b	e8 00 00 00 00	 call	 ??_U@YAPAXI@Z		; operator new[]
  000a0	83 c4 04	 add	 esp, 4
  000a3	89 46 08	 mov	 DWORD PTR [esi+8], eax

; 1662 : 		ASSERT(cItem);
; 1663 : 		lstrcpy(cItem, name);

  000a6	ff 75 10	 push	 DWORD PTR _text$[ebp]
  000a9	50		 push	 eax
  000aa	ff 15 00 00 00
	00		 call	 DWORD PTR __imp__lstrcpyA@8

; 1595 : 	CBarItem * pbf = new CBarItem(text, image, exData);

  000b0	eb 02		 jmp	 SHORT $LN15@InsertItem
$LN14@InsertItem:
  000b2	33 f6		 xor	 esi, esi
$LN15@InsertItem:

; 1596 : 	ASSERT(pbf);
; 1597 : 	if (index < GetItemCount()) 

  000b4	8b 4d 08	 mov	 ecx, DWORD PTR _pbf$1$[ebp]
  000b7	83 c1 14	 add	 ecx, 20			; 00000014H
  000ba	c7 45 fc ff ff
	ff ff		 mov	 DWORD PTR __$EHRec$[ebp+8], -1
  000c1	3b 1f		 cmp	 ebx, DWORD PTR [edi]
  000c3	7d 0b		 jge	 SHORT $LN11@InsertItem

; 1598 : 		arItems.InsertAt(index, (void *) pbf);

  000c5	6a 01		 push	 1
  000c7	56		 push	 esi
  000c8	53		 push	 ebx
  000c9	e8 00 00 00 00	 call	 ?InsertAt@CPtrArray@@QAEXHPAXH@Z ; CPtrArray::InsertAt
  000ce	eb 09		 jmp	 SHORT $LN12@InsertItem
$LN11@InsertItem:
; File C:\Program Files (x86)\Microsoft Visual Studio\2019\Community\VC\Tools\MSVC\14.29.30133\atlmfc\include\afxcoll.inl

; 223  : 		SetAtGrow(nIndex, newElement);

  000d0	56		 push	 esi
  000d1	ff 71 08	 push	 DWORD PTR [ecx+8]
  000d4	e8 00 00 00 00	 call	 ?SetAtGrow@CPtrArray@@QAEXHPAX@Z ; CPtrArray::SetAtGrow
$LN12@InsertItem:
; File D:\git\src\IBK\IBK_DRFN\ProjSrc\SrcDrfn\Chart\Common_ST\STGfxOutBarCtrl.cpp

; 1526 : 	return pbf->InsertItem(index, text, image, exData);

  000d9	8b c3		 mov	 eax, ebx

; 1527 : }

  000db	8b 4d f4	 mov	 ecx, DWORD PTR __$EHRec$[ebp]
  000de	64 89 0d 00 00
	00 00		 mov	 DWORD PTR fs:0, ecx
  000e5	59		 pop	 ecx
  000e6	5f		 pop	 edi
  000e7	5e		 pop	 esi
  000e8	5b		 pop	 ebx
  000e9	8b e5		 mov	 esp, ebp
  000eb	5d		 pop	 ebp
  000ec	c2 14 00	 ret	 20			; 00000014H
$LN5@InsertItem:
; File C:\Program Files (x86)\Microsoft Visual Studio\2019\Community\VC\Tools\MSVC\14.29.30133\atlmfc\include\afxcoll.inl

; 204  : 			AfxThrowInvalidArgException();

  000ef	e8 00 00 00 00	 call	 ?AfxThrowInvalidArgException@@YGXXZ ; AfxThrowInvalidArgException
$LN25@InsertItem:
  000f4	cc		 int	 3
_TEXT	ENDS
;	COMDAT text$x
text$x	SEGMENT
__unwindfunclet$?InsertItem@CSTGfxOutBarCtrl@@QAEHHHPBDHK@Z$0:
  00000	6a 10		 push	 16			; 00000010H
  00002	8b 45 0c	 mov	 eax, DWORD PTR $T2[ebp]
  00005	50		 push	 eax
  00006	e8 00 00 00 00	 call	 ??3@YAXPAXI@Z		; operator delete
  0000b	83 c4 08	 add	 esp, 8
  0000e	c3		 ret	 0
  0000f	cc		 int	 3
  00010	cc		 int	 3
  00011	cc		 int	 3
  00012	cc		 int	 3
  00013	cc		 int	 3
__ehhandler$?InsertItem@CSTGfxOutBarCtrl@@QAEHHHPBDHK@Z:
  00014	90		 npad	 1
  00015	90		 npad	 1
  00016	8b 54 24 08	 mov	 edx, DWORD PTR [esp+8]
  0001a	8d 42 0c	 lea	 eax, DWORD PTR [edx+12]
  0001d	8b 4a f0	 mov	 ecx, DWORD PTR [edx-16]
  00020	33 c8		 xor	 ecx, eax
  00022	e8 00 00 00 00	 call	 @__security_check_cookie@4
  00027	b8 00 00 00 00	 mov	 eax, OFFSET __ehfuncinfo$?InsertItem@CSTGfxOutBarCtrl@@QAEHHHPBDHK@Z
  0002c	e9 00 00 00 00	 jmp	 ___CxxFrameHandler3
text$x	ENDS
?InsertItem@CSTGfxOutBarCtrl@@QAEHHHPBDHK@Z ENDP	; CSTGfxOutBarCtrl::InsertItem
; Function compile flags: /Ogtp
; File D:\git\src\IBK\IBK_DRFN\ProjSrc\SrcDrfn\Chart\Common_ST\STGfxOutBarCtrl.cpp
; File C:\Program Files (x86)\Microsoft Visual Studio\2019\Community\VC\Tools\MSVC\14.29.30133\atlmfc\include\afxcoll.inl
; File D:\git\src\IBK\IBK_DRFN\ProjSrc\SrcDrfn\Chart\Common_ST\STGfxOutBarCtrl.cpp
; File C:\Program Files (x86)\Microsoft Visual Studio\2019\Community\VC\Tools\MSVC\14.29.30133\atlmfc\include\afxcoll.inl
; File D:\git\src\IBK\IBK_DRFN\ProjSrc\SrcDrfn\Chart\Common_ST\STGfxOutBarCtrl.cpp
;	COMDAT ?GetItemCount@CSTGfxOutBarCtrl@@QBEHXZ
_TEXT	SEGMENT
?GetItemCount@CSTGfxOutBarCtrl@@QBEHXZ PROC		; CSTGfxOutBarCtrl::GetItemCount, COMDAT
; _this$ = ecx

; 1530 : {

  00000	8b c1		 mov	 eax, ecx

; 1531 : 	if(arFolder.GetSize()==0) return 0;

  00002	8b 90 08 01 00
	00		 mov	 edx, DWORD PTR [eax+264]
  00008	85 d2		 test	 edx, edx
  0000a	75 03		 jne	 SHORT $LN2@GetItemCou
  0000c	33 c0		 xor	 eax, eax

; 1535 : }

  0000e	c3		 ret	 0
$LN2@GetItemCou:

; 1532 : 	ASSERT(iSelFolder >= 0 && iSelFolder < GetFolderCount());
; 1533 : 	CBarFolder * pbf = (CBarFolder *) arFolder.GetAt(iSelFolder);

  0000f	8b 88 30 01 00
	00		 mov	 ecx, DWORD PTR [eax+304]
; File C:\Program Files (x86)\Microsoft Visual Studio\2019\Community\VC\Tools\MSVC\14.29.30133\atlmfc\include\afxcoll.inl

; 203  : 		if( nIndex < 0 || nIndex >= m_nSize )

  00015	85 c9		 test	 ecx, ecx
  00017	78 11		 js	 SHORT $LN6@GetItemCou
  00019	3b ca		 cmp	 ecx, edx
  0001b	7d 0d		 jge	 SHORT $LN6@GetItemCou
; File D:\git\src\IBK\IBK_DRFN\ProjSrc\SrcDrfn\Chart\Common_ST\STGfxOutBarCtrl.cpp

; 1534 : 	return 	pbf->GetItemCount();

  0001d	8b 80 04 01 00
	00		 mov	 eax, DWORD PTR [eax+260]
  00023	8b 04 88	 mov	 eax, DWORD PTR [eax+ecx*4]
  00026	8b 40 1c	 mov	 eax, DWORD PTR [eax+28]

; 1535 : }

  00029	c3		 ret	 0
$LN6@GetItemCou:
; File C:\Program Files (x86)\Microsoft Visual Studio\2019\Community\VC\Tools\MSVC\14.29.30133\atlmfc\include\afxcoll.inl

; 204  : 			AfxThrowInvalidArgException();

  0002a	e9 00 00 00 00	 jmp	 ?AfxThrowInvalidArgException@@YGXXZ ; AfxThrowInvalidArgException
?GetItemCount@CSTGfxOutBarCtrl@@QBEHXZ ENDP		; CSTGfxOutBarCtrl::GetItemCount
_TEXT	ENDS
; Function compile flags: /Ogtp
; File D:\git\src\IBK\IBK_DRFN\ProjSrc\SrcDrfn\Chart\Common_ST\STGfxOutBarCtrl.cpp
; File C:\Program Files (x86)\Microsoft Visual Studio\2019\Community\VC\Tools\MSVC\14.29.30133\atlmfc\include\afxcoll.inl
; File D:\git\src\IBK\IBK_DRFN\ProjSrc\SrcDrfn\Chart\Common_ST\STGfxOutBarCtrl.cpp
; File C:\Program Files (x86)\Microsoft Visual Studio\2019\Community\VC\Tools\MSVC\14.29.30133\atlmfc\include\afxcoll.inl
; File D:\git\src\IBK\IBK_DRFN\ProjSrc\SrcDrfn\Chart\Common_ST\STGfxOutBarCtrl.cpp
; File C:\Program Files (x86)\Microsoft Visual Studio\2019\Community\VC\Tools\MSVC\14.29.30133\atlmfc\include\atltypes.h
; File D:\git\src\IBK\IBK_DRFN\ProjSrc\SrcDrfn\Chart\Common_ST\STGfxOutBarCtrl.cpp
; File C:\Program Files (x86)\Microsoft Visual Studio\2019\Community\VC\Tools\MSVC\14.29.30133\atlmfc\include\afxwin2.inl
; File D:\git\src\IBK\IBK_DRFN\ProjSrc\SrcDrfn\Chart\Common_ST\STGfxOutBarCtrl.cpp
; File C:\Program Files (x86)\Microsoft Visual Studio\2019\Community\VC\Tools\MSVC\14.29.30133\atlmfc\include\afxwin2.inl
; File D:\git\src\IBK\IBK_DRFN\ProjSrc\SrcDrfn\Chart\Common_ST\STGfxOutBarCtrl.cpp
; File C:\Program Files (x86)\Microsoft Visual Studio\2019\Community\VC\Tools\MSVC\14.29.30133\atlmfc\include\afxwin2.inl
; File D:\git\src\IBK\IBK_DRFN\ProjSrc\SrcDrfn\Chart\Common_ST\STGfxOutBarCtrl.cpp
; File C:\Program Files (x86)\Microsoft Visual Studio\2019\Community\VC\Tools\MSVC\14.29.30133\atlmfc\include\afxwin2.inl
; File D:\git\src\IBK\IBK_DRFN\ProjSrc\SrcDrfn\Chart\Common_ST\STGfxOutBarCtrl.cpp
; File C:\Program Files (x86)\Microsoft Visual Studio\2019\Community\VC\Tools\MSVC\14.29.30133\atlmfc\include\afxcoll.inl
; File D:\git\src\IBK\IBK_DRFN\ProjSrc\SrcDrfn\Chart\Common_ST\STGfxOutBarCtrl.cpp
;	COMDAT ?SetSelFolder@CSTGfxOutBarCtrl@@QAEXH@Z
_TEXT	SEGMENT
_rc$1 = -20						; size = 16
__$ArrayPad$ = -4					; size = 4
_index$ = 8						; size = 4
?SetSelFolder@CSTGfxOutBarCtrl@@QAEXH@Z PROC		; CSTGfxOutBarCtrl::SetSelFolder, COMDAT
; _this$ = ecx

; 1538 : {

  00000	55		 push	 ebp
  00001	8b ec		 mov	 ebp, esp
  00003	83 ec 14	 sub	 esp, 20			; 00000014H
  00006	a1 00 00 00 00	 mov	 eax, DWORD PTR ___security_cookie
  0000b	33 c5		 xor	 eax, ebp
  0000d	89 45 fc	 mov	 DWORD PTR __$ArrayPad$[ebp], eax
  00010	57		 push	 edi
  00011	8b f9		 mov	 edi, ecx

; 2540 : 	if (GetFolderCount())

  00013	8b 87 08 01 00
	00		 mov	 eax, DWORD PTR [edi+264]
  00019	85 c0		 test	 eax, eax
  0001b	74 2d		 je	 SHORT $LN2@SetSelFold

; 2541 : 	{
; 2542 : 		if (iFolder < 0) iFolder = iSelFolder;

  0001d	8b 8f 30 01 00
	00		 mov	 ecx, DWORD PTR [edi+304]
; File C:\Program Files (x86)\Microsoft Visual Studio\2019\Community\VC\Tools\MSVC\14.29.30133\atlmfc\include\afxcoll.inl

; 203  : 		if( nIndex < 0 || nIndex >= m_nSize )

  00023	85 c9		 test	 ecx, ecx
  00025	0f 88 14 01 00
	00		 js	 $LN23@SetSelFold
  0002b	3b c8		 cmp	 ecx, eax
  0002d	0f 8d 0c 01 00
	00		 jge	 $LN23@SetSelFold
; File D:\git\src\IBK\IBK_DRFN\ProjSrc\SrcDrfn\Chart\Common_ST\STGfxOutBarCtrl.cpp

; 2545 : 		return pbf->pChild;

  00033	8b 87 04 01 00
	00		 mov	 eax, DWORD PTR [edi+260]
  00039	8b 04 88	 mov	 eax, DWORD PTR [eax+ecx*4]
  0003c	8b 48 28	 mov	 ecx, DWORD PTR [eax+40]

; 1539 : 	ASSERT(index >= 0 && index < GetFolderCount());
; 1540 : //	if (index == iSelFolder) return;
; 1541 : 
; 1542 : 	CWnd * pc = GetFolderChild();
; 1543 : 	if (pc) pc->ShowWindow(SW_HIDE);

  0003f	85 c9		 test	 ecx, ecx
  00041	74 07		 je	 SHORT $LN2@SetSelFold
  00043	6a 00		 push	 0
  00045	e8 00 00 00 00	 call	 ?ShowWindow@CWnd@@QAEHH@Z ; CWnd::ShowWindow
$LN2@SetSelFold:

; 1544 : 
; 1545 : 	if (index != iSelFolder)

  0004a	8b 87 30 01 00
	00		 mov	 eax, DWORD PTR [edi+304]
  00050	56		 push	 esi
  00051	8b 75 08	 mov	 esi, DWORD PTR _index$[ebp]
  00054	3b f0		 cmp	 esi, eax
  00056	74 1e		 je	 SHORT $LN4@SetSelFold

; 1546 : 	{
; 1547 : 		if (dwFlags&fAnimation && lAnimationTickCount >= 0) AnimateFolderScroll(iSelFolder, index);

  00058	f7 87 fc 00 00
	00 00 01 00 00	 test	 DWORD PTR [edi+252], 256 ; 00000100H
  00062	74 12		 je	 SHORT $LN4@SetSelFold
  00064	83 bf ec 00 00
	00 00		 cmp	 DWORD PTR [edi+236], 0
  0006b	7c 09		 jl	 SHORT $LN4@SetSelFold
  0006d	56		 push	 esi
  0006e	50		 push	 eax
  0006f	8b cf		 mov	 ecx, edi
  00071	e8 00 00 00 00	 call	 ?AnimateFolderScroll@CSTGfxOutBarCtrl@@QAEXHH@Z ; CSTGfxOutBarCtrl::AnimateFolderScroll
$LN4@SetSelFold:

; 2540 : 	if (GetFolderCount())

  00076	8b 87 08 01 00
	00		 mov	 eax, DWORD PTR [edi+264]

; 1548 : 	}
; 1549 : 
; 1550 : 	iSelFolder = index;

  0007c	89 b7 30 01 00
	00		 mov	 DWORD PTR [edi+304], esi

; 1551 : 	iFirstItem = 0;

  00082	c7 87 1c 01 00
	00 00 00 00 00	 mov	 DWORD PTR [edi+284], 0

; 1552 : 	iLastSel = -1;

  0008c	c7 87 f0 00 00
	00 ff ff ff ff	 mov	 DWORD PTR [edi+240], -1

; 2540 : 	if (GetFolderCount())

  00096	85 c0		 test	 eax, eax
  00098	74 5a		 je	 SHORT $LN5@SetSelFold
; File C:\Program Files (x86)\Microsoft Visual Studio\2019\Community\VC\Tools\MSVC\14.29.30133\atlmfc\include\afxcoll.inl

; 203  : 		if( nIndex < 0 || nIndex >= m_nSize )

  0009a	85 f6		 test	 esi, esi
  0009c	0f 88 9d 00 00
	00		 js	 $LN23@SetSelFold
  000a2	3b f0		 cmp	 esi, eax
  000a4	0f 8d 95 00 00
	00		 jge	 $LN23@SetSelFold
; File D:\git\src\IBK\IBK_DRFN\ProjSrc\SrcDrfn\Chart\Common_ST\STGfxOutBarCtrl.cpp

; 2545 : 		return pbf->pChild;

  000aa	8b 87 04 01 00
	00		 mov	 eax, DWORD PTR [edi+260]
  000b0	53		 push	 ebx
  000b1	8b 04 b0	 mov	 eax, DWORD PTR [eax+esi*4]
  000b4	8b 58 28	 mov	 ebx, DWORD PTR [eax+40]

; 1553 : 
; 1554 : 	pc = GetFolderChild();
; 1555 : 	if (pc)

  000b7	85 db		 test	 ebx, ebx
  000b9	74 38		 je	 SHORT $LN45@SetSelFold

; 1558 : 		GetInsideRect(rc);

  000bb	8d 45 ec	 lea	 eax, DWORD PTR _rc$1[ebp]
  000be	0f 57 c0	 xorps	 xmm0, xmm0
  000c1	50		 push	 eax
  000c2	8b cf		 mov	 ecx, edi
; File C:\Program Files (x86)\Microsoft Visual Studio\2019\Community\VC\Tools\MSVC\14.29.30133\atlmfc\include\atltypes.h

; 528  : 	left = 0;

  000c4	0f 11 45 ec	 movups	 XMMWORD PTR _rc$1[ebp], xmm0
; File D:\git\src\IBK\IBK_DRFN\ProjSrc\SrcDrfn\Chart\Common_ST\STGfxOutBarCtrl.cpp

; 1558 : 		GetInsideRect(rc);

  000c8	e8 00 00 00 00	 call	 ?GetInsideRect@CSTGfxOutBarCtrl@@QBEXAAVCRect@@@Z ; CSTGfxOutBarCtrl::GetInsideRect
; File C:\Program Files (x86)\Microsoft Visual Studio\2019\Community\VC\Tools\MSVC\14.29.30133\atlmfc\include\afxwin2.inl

; 73   : 	{ MoveWindow(lpRect->left, lpRect->top, lpRect->right - lpRect->left,

  000cd	8b 45 f8	 mov	 eax, DWORD PTR _rc$1[ebp+12]
  000d0	8b cb		 mov	 ecx, ebx
  000d2	8b 75 f0	 mov	 esi, DWORD PTR _rc$1[ebp+4]
  000d5	2b c6		 sub	 eax, esi
  000d7	8b 55 ec	 mov	 edx, DWORD PTR _rc$1[ebp]
  000da	6a 01		 push	 1
  000dc	50		 push	 eax
  000dd	8b 45 f4	 mov	 eax, DWORD PTR _rc$1[ebp+8]
  000e0	2b c2		 sub	 eax, edx
  000e2	50		 push	 eax
  000e3	56		 push	 esi
  000e4	52		 push	 edx
  000e5	e8 00 00 00 00	 call	 ?MoveWindow@CWnd@@QAEXHHHHH@Z ; CWnd::MoveWindow
; File D:\git\src\IBK\IBK_DRFN\ProjSrc\SrcDrfn\Chart\Common_ST\STGfxOutBarCtrl.cpp

; 1560 : 		pc->ShowWindow(SW_SHOW);

  000ea	6a 05		 push	 5
  000ec	8b cb		 mov	 ecx, ebx
  000ee	e8 00 00 00 00	 call	 ?ShowWindow@CWnd@@QAEHH@Z ; CWnd::ShowWindow
$LN45@SetSelFold:
  000f3	5b		 pop	 ebx
$LN5@SetSelFold:
; File C:\Program Files (x86)\Microsoft Visual Studio\2019\Community\VC\Tools\MSVC\14.29.30133\atlmfc\include\afxwin2.inl

; 27   : 	{ return m_hWndOwner != NULL ? CWnd::FromHandle(m_hWndOwner) : GetParent(); }

  000f4	8b 47 5c	 mov	 eax, DWORD PTR [edi+92]
  000f7	5e		 pop	 esi
  000f8	85 c0		 test	 eax, eax
  000fa	75 09		 jne	 SHORT $LN33@SetSelFold

; 213  : 	{ ASSERT(::IsWindow(m_hWnd)); return CWnd::FromHandle(::GetParent(m_hWnd)); }

  000fc	ff 77 20	 push	 DWORD PTR [edi+32]
  000ff	ff 15 00 00 00
	00		 call	 DWORD PTR __imp__GetParent@4
$LN33@SetSelFold:
; File D:\git\src\IBK\IBK_DRFN\ProjSrc\SrcDrfn\Chart\Common_ST\STGfxOutBarCtrl.cpp

; 1563 : 	GetOwner()->SendMessage(WM_OUTBAR_NOTIFY, NM_FOLDERCHANGE, (LPARAM) iSelFolder);

  00105	50		 push	 eax
  00106	e8 00 00 00 00	 call	 ?FromHandle@CWnd@@SGPAV1@PAUHWND__@@@Z ; CWnd::FromHandle
; File C:\Program Files (x86)\Microsoft Visual Studio\2019\Community\VC\Tools\MSVC\14.29.30133\atlmfc\include\afxwin2.inl

; 32   : 	{ ASSERT(::IsWindow(m_hWnd)); return ::SendMessage(m_hWnd, message, wParam, lParam); }

  0010b	ff b7 30 01 00
	00		 push	 DWORD PTR [edi+304]
  00111	6a 05		 push	 5
  00113	68 01 04 00 00	 push	 1025			; 00000401H
  00118	ff 70 20	 push	 DWORD PTR [eax+32]
  0011b	ff 15 00 00 00
	00		 call	 DWORD PTR __imp__SendMessageA@16

; 114  : 	{ ASSERT(::IsWindow(m_hWnd)); ::InvalidateRect(m_hWnd, NULL, bErase); }

  00121	6a 01		 push	 1
  00123	6a 00		 push	 0
  00125	ff 77 20	 push	 DWORD PTR [edi+32]
  00128	ff 15 00 00 00
	00		 call	 DWORD PTR __imp__InvalidateRect@12
; File D:\git\src\IBK\IBK_DRFN\ProjSrc\SrcDrfn\Chart\Common_ST\STGfxOutBarCtrl.cpp

; 1566 : }

  0012e	8b 4d fc	 mov	 ecx, DWORD PTR __$ArrayPad$[ebp]
  00131	33 cd		 xor	 ecx, ebp
; File C:\Program Files (x86)\Microsoft Visual Studio\2019\Community\VC\Tools\MSVC\14.29.30133\atlmfc\include\afxwin2.inl

; 114  : 	{ ASSERT(::IsWindow(m_hWnd)); ::InvalidateRect(m_hWnd, NULL, bErase); }

  00133	5f		 pop	 edi
; File D:\git\src\IBK\IBK_DRFN\ProjSrc\SrcDrfn\Chart\Common_ST\STGfxOutBarCtrl.cpp

; 1566 : }

  00134	e8 00 00 00 00	 call	 @__security_check_cookie@4
  00139	8b e5		 mov	 esp, ebp
  0013b	5d		 pop	 ebp
  0013c	c2 04 00	 ret	 4
$LN23@SetSelFold:
; File C:\Program Files (x86)\Microsoft Visual Studio\2019\Community\VC\Tools\MSVC\14.29.30133\atlmfc\include\afxcoll.inl

; 204  : 			AfxThrowInvalidArgException();

  0013f	e8 00 00 00 00	 call	 ?AfxThrowInvalidArgException@@YGXXZ ; AfxThrowInvalidArgException
$LN46@SetSelFold:
  00144	cc		 int	 3
?SetSelFolder@CSTGfxOutBarCtrl@@QAEXH@Z ENDP		; CSTGfxOutBarCtrl::SetSelFolder
_TEXT	ENDS
; Function compile flags: /Ogtp
; File D:\git\src\IBK\IBK_DRFN\ProjSrc\SrcDrfn\Chart\Common_ST\STGfxOutBarCtrl.cpp
;	COMDAT ?GetFolderCount@CSTGfxOutBarCtrl@@QBEHXZ
_TEXT	SEGMENT
?GetFolderCount@CSTGfxOutBarCtrl@@QBEHXZ PROC		; CSTGfxOutBarCtrl::GetFolderCount, COMDAT
; _this$ = ecx

; 1570 : 	return arFolder.GetSize();

  00000	8b 81 08 01 00
	00		 mov	 eax, DWORD PTR [ecx+264]

; 1571 : }

  00006	c3		 ret	 0
?GetFolderCount@CSTGfxOutBarCtrl@@QBEHXZ ENDP		; CSTGfxOutBarCtrl::GetFolderCount
_TEXT	ENDS
; Function compile flags: /Ogtp
; File D:\git\src\IBK\IBK_DRFN\ProjSrc\SrcDrfn\Chart\Common_ST\STGfxOutBarCtrl.cpp
;	COMDAT ?GetSelFolder@CSTGfxOutBarCtrl@@QBEHXZ
_TEXT	SEGMENT
?GetSelFolder@CSTGfxOutBarCtrl@@QBEHXZ PROC		; CSTGfxOutBarCtrl::GetSelFolder, COMDAT
; _this$ = ecx

; 1575 : 	return iSelFolder;

  00000	8b 81 30 01 00
	00		 mov	 eax, DWORD PTR [ecx+304]

; 1576 : }

  00006	c3		 ret	 0
?GetSelFolder@CSTGfxOutBarCtrl@@QBEHXZ ENDP		; CSTGfxOutBarCtrl::GetSelFolder
_TEXT	ENDS
; Function compile flags: /Ogtp
; File D:\git\src\IBK\IBK_DRFN\ProjSrc\SrcDrfn\Chart\Common_ST\STGfxOutBarCtrl.cpp
; File C:\Program Files (x86)\Microsoft Visual Studio\2019\Community\VC\Tools\MSVC\14.29.30133\atlmfc\include\afxcoll.inl
; File D:\git\src\IBK\IBK_DRFN\ProjSrc\SrcDrfn\Chart\Common_ST\STGfxOutBarCtrl.cpp
; File C:\Program Files (x86)\Microsoft Visual Studio\2019\Community\VC\Tools\MSVC\14.29.30133\atlmfc\include\afxcoll.inl
; File D:\git\src\IBK\IBK_DRFN\ProjSrc\SrcDrfn\Chart\Common_ST\STGfxOutBarCtrl.cpp
; File C:\Program Files (x86)\Microsoft Visual Studio\2019\Community\VC\Tools\MSVC\14.29.30133\atlmfc\include\afxwin2.inl
; File D:\git\src\IBK\IBK_DRFN\ProjSrc\SrcDrfn\Chart\Common_ST\STGfxOutBarCtrl.cpp
; File C:\Program Files (x86)\Microsoft Visual Studio\2019\Community\VC\Tools\MSVC\14.29.30133\atlmfc\include\afxcoll.inl
; File D:\git\src\IBK\IBK_DRFN\ProjSrc\SrcDrfn\Chart\Common_ST\STGfxOutBarCtrl.cpp
;	COMDAT ?RemoveFolder@CSTGfxOutBarCtrl@@QAEXH@Z
_TEXT	SEGMENT
_index$ = 8						; size = 4
?RemoveFolder@CSTGfxOutBarCtrl@@QAEXH@Z PROC		; CSTGfxOutBarCtrl::RemoveFolder, COMDAT
; _this$ = ecx

; 1579 : {

  00000	55		 push	 ebp
  00001	8b ec		 mov	 ebp, esp
  00003	53		 push	 ebx
  00004	56		 push	 esi
  00005	57		 push	 edi
; File C:\Program Files (x86)\Microsoft Visual Studio\2019\Community\VC\Tools\MSVC\14.29.30133\atlmfc\include\afxcoll.inl

; 203  : 		if( nIndex < 0 || nIndex >= m_nSize )

  00006	8b 7d 08	 mov	 edi, DWORD PTR _index$[ebp]
; File D:\git\src\IBK\IBK_DRFN\ProjSrc\SrcDrfn\Chart\Common_ST\STGfxOutBarCtrl.cpp

; 1579 : {

  00009	8b f1		 mov	 esi, ecx
; File C:\Program Files (x86)\Microsoft Visual Studio\2019\Community\VC\Tools\MSVC\14.29.30133\atlmfc\include\afxcoll.inl

; 203  : 		if( nIndex < 0 || nIndex >= m_nSize )

  0000b	85 ff		 test	 edi, edi
  0000d	78 67		 js	 SHORT $LN9@RemoveFold
  0000f	3b be 08 01 00
	00		 cmp	 edi, DWORD PTR [esi+264]
  00015	7d 5f		 jge	 SHORT $LN9@RemoveFold
; File D:\git\src\IBK\IBK_DRFN\ProjSrc\SrcDrfn\Chart\Common_ST\STGfxOutBarCtrl.cpp

; 1582 : 	delete pbf;

  00017	8b 86 04 01 00
	00		 mov	 eax, DWORD PTR [esi+260]
  0001d	8b 0c b8	 mov	 ecx, DWORD PTR [eax+edi*4]
  00020	85 c9		 test	 ecx, ecx
  00022	74 06		 je	 SHORT $LN5@RemoveFold
  00024	8b 01		 mov	 eax, DWORD PTR [ecx]
  00026	6a 01		 push	 1
  00028	ff 10		 call	 DWORD PTR [eax]
$LN5@RemoveFold:

; 1583 : 	arFolder.RemoveAt(index);

  0002a	6a 01		 push	 1
  0002c	57		 push	 edi
  0002d	8d 8e 00 01 00
	00		 lea	 ecx, DWORD PTR [esi+256]
  00033	e8 00 00 00 00	 call	 ?RemoveAt@CPtrArray@@QAEXHH@Z ; CPtrArray::RemoveAt

; 1584 : 	if (iSelFolder >= index) iSelFolder = index - 1;

  00038	8b 86 30 01 00
	00		 mov	 eax, DWORD PTR [esi+304]
  0003e	3b c7		 cmp	 eax, edi
  00040	7c 09		 jl	 SHORT $LN2@RemoveFold
  00042	8d 47 ff	 lea	 eax, DWORD PTR [edi-1]
  00045	89 86 30 01 00
	00		 mov	 DWORD PTR [esi+304], eax
$LN2@RemoveFold:

; 1585 : 	if (iSelFolder < 0 && GetFolderCount() == 0) iSelFolder = 0;

  0004b	85 c0		 test	 eax, eax
  0004d	79 13		 jns	 SHORT $LN3@RemoveFold
  0004f	83 be 08 01 00
	00 00		 cmp	 DWORD PTR [esi+264], 0
  00056	75 0a		 jne	 SHORT $LN3@RemoveFold
  00058	c7 86 30 01 00
	00 00 00 00 00	 mov	 DWORD PTR [esi+304], 0
$LN3@RemoveFold:
; File C:\Program Files (x86)\Microsoft Visual Studio\2019\Community\VC\Tools\MSVC\14.29.30133\atlmfc\include\afxwin2.inl

; 114  : 	{ ASSERT(::IsWindow(m_hWnd)); ::InvalidateRect(m_hWnd, NULL, bErase); }

  00062	6a 01		 push	 1
  00064	6a 00		 push	 0
  00066	ff 76 20	 push	 DWORD PTR [esi+32]
  00069	ff 15 00 00 00
	00		 call	 DWORD PTR __imp__InvalidateRect@12
  0006f	5f		 pop	 edi
  00070	5e		 pop	 esi
  00071	5b		 pop	 ebx
; File D:\git\src\IBK\IBK_DRFN\ProjSrc\SrcDrfn\Chart\Common_ST\STGfxOutBarCtrl.cpp

; 1587 : }

  00072	5d		 pop	 ebp
  00073	c2 04 00	 ret	 4
$LN9@RemoveFold:
; File C:\Program Files (x86)\Microsoft Visual Studio\2019\Community\VC\Tools\MSVC\14.29.30133\atlmfc\include\afxcoll.inl

; 204  : 			AfxThrowInvalidArgException();

  00076	e8 00 00 00 00	 call	 ?AfxThrowInvalidArgException@@YGXXZ ; AfxThrowInvalidArgException
$LN14@RemoveFold:
  0007b	cc		 int	 3
?RemoveFolder@CSTGfxOutBarCtrl@@QAEXH@Z ENDP		; CSTGfxOutBarCtrl::RemoveFolder
_TEXT	ENDS
; Function compile flags: /Ogtp
; File D:\git\src\IBK\IBK_DRFN\ProjSrc\SrcDrfn\Chart\Common_ST\STGfxOutBarCtrl.cpp
;	COMDAT ?GetCountPerPage@CSTGfxOutBarCtrl@@QBEHXZ
_TEXT	SEGMENT
?GetCountPerPage@CSTGfxOutBarCtrl@@QBEHXZ PROC		; CSTGfxOutBarCtrl::GetCountPerPage, COMDAT
; _this$ = ecx

; 1609 : 	return 0;

  00000	33 c0		 xor	 eax, eax

; 1610 : }

  00002	c3		 ret	 0
?GetCountPerPage@CSTGfxOutBarCtrl@@QBEHXZ ENDP		; CSTGfxOutBarCtrl::GetCountPerPage
_TEXT	ENDS
; Function compile flags: /Ogtp
; File D:\git\src\IBK\IBK_DRFN\ProjSrc\SrcDrfn\Chart\Common_ST\STGfxOutBarCtrl.cpp
;	COMDAT ?SetImageList@CSTGfxOutBarCtrl@@QAEPAVCImageList@@PAV2@H@Z
_TEXT	SEGMENT
_pImageList$ = 8					; size = 4
_nImageList$ = 12					; size = 4
?SetImageList@CSTGfxOutBarCtrl@@QAEPAVCImageList@@PAV2@H@Z PROC ; CSTGfxOutBarCtrl::SetImageList, COMDAT
; _this$ = ecx

; 1613 : {

  00000	55		 push	 ebp
  00001	8b ec		 mov	 ebp, esp

; 1614 : 	CImageList * o = NULL;
; 1615 : 	if (nImageList == fSmallIcon)

  00003	8b 45 0c	 mov	 eax, DWORD PTR _nImageList$[ebp]
  00006	56		 push	 esi
  00007	8b f1		 mov	 esi, ecx
  00009	83 f8 01	 cmp	 eax, 1
  0000c	75 16		 jne	 SHORT $LN2@SetImageLi

; 1616 : 	{
; 1617 : 		o = pSmallImageList;

  0000e	8b 96 38 01 00
	00		 mov	 edx, DWORD PTR [esi+312]

; 1618 : 		pSmallImageList = pImageList;

  00014	8b 45 08	 mov	 eax, DWORD PTR _pImageList$[ebp]
  00017	89 86 38 01 00
	00		 mov	 DWORD PTR [esi+312], eax

; 1624 : 	}
; 1625 : 	return o;

  0001d	8b c2		 mov	 eax, edx
  0001f	5e		 pop	 esi

; 1626 : }

  00020	5d		 pop	 ebp
  00021	c2 08 00	 ret	 8
$LN2@SetImageLi:

; 1619 : 	}
; 1620 : 	else if (nImageList == fLargeIcon)

  00024	83 f8 02	 cmp	 eax, 2
  00027	75 16		 jne	 SHORT $LN6@SetImageLi

; 1621 : 	{
; 1622 : 		o = pLargeImageList;

  00029	8b 8e 34 01 00
	00		 mov	 ecx, DWORD PTR [esi+308]

; 1623 : 		pLargeImageList = pImageList;

  0002f	8b 45 08	 mov	 eax, DWORD PTR _pImageList$[ebp]
  00032	89 86 34 01 00
	00		 mov	 DWORD PTR [esi+308], eax

; 1624 : 	}
; 1625 : 	return o;

  00038	8b c1		 mov	 eax, ecx
  0003a	5e		 pop	 esi

; 1626 : }

  0003b	5d		 pop	 ebp
  0003c	c2 08 00	 ret	 8
$LN6@SetImageLi:

; 1624 : 	}
; 1625 : 	return o;

  0003f	33 c0		 xor	 eax, eax
  00041	5e		 pop	 esi

; 1626 : }

  00042	5d		 pop	 ebp
  00043	c2 08 00	 ret	 8
?SetImageList@CSTGfxOutBarCtrl@@QAEPAVCImageList@@PAV2@H@Z ENDP ; CSTGfxOutBarCtrl::SetImageList
_TEXT	ENDS
; Function compile flags: /Ogtp
; File D:\git\src\IBK\IBK_DRFN\ProjSrc\SrcDrfn\Chart\Common_ST\STGfxOutBarCtrl.cpp
; File C:\Program Files (x86)\Microsoft Visual Studio\2019\Community\VC\Tools\MSVC\14.29.30133\atlmfc\include\afxcoll.inl
; File D:\git\src\IBK\IBK_DRFN\ProjSrc\SrcDrfn\Chart\Common_ST\STGfxOutBarCtrl.cpp
; File C:\Program Files (x86)\Microsoft Visual Studio\2019\Community\VC\Tools\MSVC\14.29.30133\atlmfc\include\afxcoll.inl
; File D:\git\src\IBK\IBK_DRFN\ProjSrc\SrcDrfn\Chart\Common_ST\STGfxOutBarCtrl.cpp
; File C:\Program Files (x86)\Microsoft Visual Studio\2019\Community\VC\Tools\MSVC\14.29.30133\atlmfc\include\afxcoll.inl
; File D:\git\src\IBK\IBK_DRFN\ProjSrc\SrcDrfn\Chart\Common_ST\STGfxOutBarCtrl.cpp
;	COMDAT ?SetFolderImageList@CSTGfxOutBarCtrl@@QAEPAVCImageList@@HPAV2@H@Z
_TEXT	SEGMENT
_folder$ = 8						; size = 4
_pImageList$ = 12					; size = 4
_nImageList$ = 16					; size = 4
?SetFolderImageList@CSTGfxOutBarCtrl@@QAEPAVCImageList@@HPAV2@H@Z PROC ; CSTGfxOutBarCtrl::SetFolderImageList, COMDAT
; _this$ = ecx

; 1636 : {

  00000	55		 push	 ebp
  00001	8b ec		 mov	 ebp, esp
; File C:\Program Files (x86)\Microsoft Visual Studio\2019\Community\VC\Tools\MSVC\14.29.30133\atlmfc\include\afxcoll.inl

; 203  : 		if( nIndex < 0 || nIndex >= m_nSize )

  00003	8b 55 08	 mov	 edx, DWORD PTR _folder$[ebp]
  00006	85 d2		 test	 edx, edx
  00008	78 41		 js	 SHORT $LN8@SetFolderI
  0000a	3b 91 08 01 00
	00		 cmp	 edx, DWORD PTR [ecx+264]
  00010	7d 39		 jge	 SHORT $LN8@SetFolderI

; 205  : 		return m_pData[nIndex]; }

  00012	8b 81 04 01 00
	00		 mov	 eax, DWORD PTR [ecx+260]
  00018	56		 push	 esi
; File D:\git\src\IBK\IBK_DRFN\ProjSrc\SrcDrfn\Chart\Common_ST\STGfxOutBarCtrl.cpp

; 1639 : 	CImageList * o = NULL;

  00019	33 f6		 xor	 esi, esi
; File C:\Program Files (x86)\Microsoft Visual Studio\2019\Community\VC\Tools\MSVC\14.29.30133\atlmfc\include\afxcoll.inl

; 205  : 		return m_pData[nIndex]; }

  0001b	8b 14 90	 mov	 edx, DWORD PTR [eax+edx*4]
; File D:\git\src\IBK\IBK_DRFN\ProjSrc\SrcDrfn\Chart\Common_ST\STGfxOutBarCtrl.cpp

; 1640 : 	if (nImageList == fSmallIcon)

  0001e	8b 45 10	 mov	 eax, DWORD PTR _nImageList$[ebp]
  00021	83 f8 01	 cmp	 eax, 1
  00024	75 10		 jne	 SHORT $LN2@SetFolderI

; 1641 : 	{
; 1642 : 		o = pbf->pSmallImageList;

  00026	8b 72 10	 mov	 esi, DWORD PTR [edx+16]

; 1643 : 		pbf->pSmallImageList = pImageList;

  00029	8b 45 0c	 mov	 eax, DWORD PTR _pImageList$[ebp]
  0002c	89 42 10	 mov	 DWORD PTR [edx+16], eax

; 1649 : 	}
; 1650 : 	return o;

  0002f	8b c6		 mov	 eax, esi
  00031	5e		 pop	 esi

; 1651 : }

  00032	5d		 pop	 ebp
  00033	c2 0c 00	 ret	 12			; 0000000cH
$LN2@SetFolderI:

; 1644 : 	}
; 1645 : 	else if (nImageList == fLargeIcon)

  00036	83 f8 02	 cmp	 eax, 2
  00039	75 09		 jne	 SHORT $LN4@SetFolderI

; 1646 : 	{
; 1647 : 		o = pbf->pLargeImageList;

  0003b	8b 72 0c	 mov	 esi, DWORD PTR [edx+12]

; 1648 : 		pbf->pLargeImageList = pImageList;

  0003e	8b 4d 0c	 mov	 ecx, DWORD PTR _pImageList$[ebp]
  00041	89 4a 0c	 mov	 DWORD PTR [edx+12], ecx
$LN4@SetFolderI:

; 1649 : 	}
; 1650 : 	return o;

  00044	8b c6		 mov	 eax, esi
  00046	5e		 pop	 esi

; 1651 : }

  00047	5d		 pop	 ebp
  00048	c2 0c 00	 ret	 12			; 0000000cH
$LN8@SetFolderI:
; File C:\Program Files (x86)\Microsoft Visual Studio\2019\Community\VC\Tools\MSVC\14.29.30133\atlmfc\include\afxcoll.inl

; 204  : 			AfxThrowInvalidArgException();

  0004b	e8 00 00 00 00	 call	 ?AfxThrowInvalidArgException@@YGXXZ ; AfxThrowInvalidArgException
$LN11@SetFolderI:
  00050	cc		 int	 3
?SetFolderImageList@CSTGfxOutBarCtrl@@QAEPAVCImageList@@HPAV2@H@Z ENDP ; CSTGfxOutBarCtrl::SetFolderImageList
_TEXT	ENDS
; Function compile flags: /Ogtp
; File D:\git\src\IBK\IBK_DRFN\ProjSrc\SrcDrfn\Chart\Common_ST\STGfxOutBarCtrl.cpp
;	COMDAT ?GetImageList@CSTGfxOutBarCtrl@@QAEPAVCImageList@@H@Z
_TEXT	SEGMENT
_nImageList$ = 8					; size = 4
?GetImageList@CSTGfxOutBarCtrl@@QAEPAVCImageList@@H@Z PROC ; CSTGfxOutBarCtrl::GetImageList, COMDAT
; _this$ = ecx

; 1629 : {

  00000	55		 push	 ebp
  00001	8b ec		 mov	 ebp, esp

; 1630 : 	if (nImageList == fSmallIcon) return pSmallImageList;

  00003	8b 45 08	 mov	 eax, DWORD PTR _nImageList$[ebp]
  00006	83 f8 01	 cmp	 eax, 1
  00009	75 0a		 jne	 SHORT $LN2@GetImageLi
  0000b	8b 81 38 01 00
	00		 mov	 eax, DWORD PTR [ecx+312]

; 1633 : }

  00011	5d		 pop	 ebp
  00012	c2 04 00	 ret	 4
$LN2@GetImageLi:

; 1631 : 	else if (nImageList == fLargeIcon) return pLargeImageList;

  00015	83 f8 02	 cmp	 eax, 2
  00018	75 0a		 jne	 SHORT $LN4@GetImageLi
  0001a	8b 81 34 01 00
	00		 mov	 eax, DWORD PTR [ecx+308]

; 1633 : }

  00020	5d		 pop	 ebp
  00021	c2 04 00	 ret	 4
$LN4@GetImageLi:

; 1632 : 	return NULL;

  00024	33 c0		 xor	 eax, eax

; 1633 : }

  00026	5d		 pop	 ebp
  00027	c2 04 00	 ret	 4
?GetImageList@CSTGfxOutBarCtrl@@QAEPAVCImageList@@H@Z ENDP ; CSTGfxOutBarCtrl::GetImageList
_TEXT	ENDS
; Function compile flags: /Ogtp
; File D:\git\src\IBK\IBK_DRFN\ProjSrc\SrcDrfn\Chart\Common_ST\STGfxOutBarCtrl.cpp
; File C:\Program Files (x86)\Microsoft Visual Studio\2019\Community\VC\Tools\MSVC\14.29.30133\atlmfc\include\afxcoll.inl
; File D:\git\src\IBK\IBK_DRFN\ProjSrc\SrcDrfn\Chart\Common_ST\STGfxOutBarCtrl.cpp
; File C:\Program Files (x86)\Microsoft Visual Studio\2019\Community\VC\Tools\MSVC\14.29.30133\atlmfc\include\afxcoll.inl
; File D:\git\src\IBK\IBK_DRFN\ProjSrc\SrcDrfn\Chart\Common_ST\STGfxOutBarCtrl.cpp
; File C:\Program Files (x86)\Microsoft Visual Studio\2019\Community\VC\Tools\MSVC\14.29.30133\atlmfc\include\afxwin1.inl
; File D:\git\src\IBK\IBK_DRFN\ProjSrc\SrcDrfn\Chart\Common_ST\STGfxOutBarCtrl.cpp
; File C:\Program Files (x86)\Microsoft Visual Studio\2019\Community\VC\Tools\MSVC\14.29.30133\atlmfc\include\afxwin1.inl
; File D:\git\src\IBK\IBK_DRFN\ProjSrc\SrcDrfn\Chart\Common_ST\STGfxOutBarCtrl.cpp
; File C:\Program Files (x86)\Microsoft Visual Studio\2019\Community\VC\Tools\MSVC\14.29.30133\atlmfc\include\afxcoll.inl
; File D:\git\src\IBK\IBK_DRFN\ProjSrc\SrcDrfn\Chart\Common_ST\STGfxOutBarCtrl.cpp
; File C:\Program Files (x86)\Microsoft Visual Studio\2019\Community\VC\Tools\MSVC\14.29.30133\atlmfc\include\atltypes.h
; File D:\git\src\IBK\IBK_DRFN\ProjSrc\SrcDrfn\Chart\Common_ST\STGfxOutBarCtrl.cpp
; File C:\Program Files (x86)\Microsoft Visual Studio\2019\Community\VC\Tools\MSVC\14.29.30133\atlmfc\include\afxwin1.inl
; File D:\git\src\IBK\IBK_DRFN\ProjSrc\SrcDrfn\Chart\Common_ST\STGfxOutBarCtrl.cpp
;	COMDAT ?PaintItems@CSTGfxOutBarCtrl@@QAEXPAVCDC@@HVCRect@@@Z
_TEXT	SEGMENT
_isdc$1$ = -60						; size = 4
_pbf$1$ = -56						; size = 4
_pDC$GSCopy$1$ = -52					; size = 4
_max$1$ = -48						; size = 4
_itemRegion$ = -44					; size = 8
_this$GSCopy$1$ = -36					; size = 4
_itemRc$2 = -32						; size = 16
__$ArrayPad$ = -16					; size = 4
__$EHRec$ = -12						; size = 12
_pDC$ = 8						; size = 4
_iFolder$ = 12						; size = 4
_rc$ = 16						; size = 16
?PaintItems@CSTGfxOutBarCtrl@@QAEXPAVCDC@@HVCRect@@@Z PROC ; CSTGfxOutBarCtrl::PaintItems, COMDAT
; _this$ = ecx

; 1678 : {

  00000	55		 push	 ebp
  00001	8b ec		 mov	 ebp, esp
  00003	6a ff		 push	 -1
  00005	68 00 00 00 00	 push	 __ehhandler$?PaintItems@CSTGfxOutBarCtrl@@QAEXPAVCDC@@HVCRect@@@Z
  0000a	64 a1 00 00 00
	00		 mov	 eax, DWORD PTR fs:0
  00010	50		 push	 eax
  00011	83 ec 30	 sub	 esp, 48			; 00000030H
  00014	a1 00 00 00 00	 mov	 eax, DWORD PTR ___security_cookie
  00019	33 c5		 xor	 eax, ebp
  0001b	89 45 f0	 mov	 DWORD PTR __$ArrayPad$[ebp], eax
  0001e	56		 push	 esi
  0001f	57		 push	 edi
  00020	50		 push	 eax
  00021	8d 45 f4	 lea	 eax, DWORD PTR __$EHRec$[ebp]
  00024	64 a3 00 00 00
	00		 mov	 DWORD PTR fs:0, eax
  0002a	89 4d dc	 mov	 DWORD PTR _this$GSCopy$1$[ebp], ecx

; 1679 : 	if(arFolder.GetSize()==0) return;

  0002d	8b 81 08 01 00
	00		 mov	 eax, DWORD PTR [ecx+264]
  00033	8b 75 08	 mov	 esi, DWORD PTR _pDC$[ebp]
  00036	8b 7d 0c	 mov	 edi, DWORD PTR _iFolder$[ebp]
  00039	89 75 cc	 mov	 DWORD PTR _pDC$GSCopy$1$[ebp], esi
  0003c	85 c0		 test	 eax, eax
  0003e	0f 84 e2 00 00
	00		 je	 $LN28@PaintItems
; File C:\Program Files (x86)\Microsoft Visual Studio\2019\Community\VC\Tools\MSVC\14.29.30133\atlmfc\include\afxcoll.inl

; 203  : 		if( nIndex < 0 || nIndex >= m_nSize )

  00044	85 ff		 test	 edi, edi
  00046	0f 88 f7 00 00
	00		 js	 $LN23@PaintItems
  0004c	3b f8		 cmp	 edi, eax
  0004e	0f 8d ef 00 00
	00		 jge	 $LN23@PaintItems

; 205  : 		return m_pData[nIndex]; }

  00054	8b 81 04 01 00
	00		 mov	 eax, DWORD PTR [ecx+260]
; File D:\git\src\IBK\IBK_DRFN\ProjSrc\SrcDrfn\Chart\Common_ST\STGfxOutBarCtrl.cpp

; 1685 : 	int isdc = pDC->SaveDC();

  0005a	8b ce		 mov	 ecx, esi
; File C:\Program Files (x86)\Microsoft Visual Studio\2019\Community\VC\Tools\MSVC\14.29.30133\atlmfc\include\afxcoll.inl

; 205  : 		return m_pData[nIndex]; }

  0005c	8b 04 b8	 mov	 eax, DWORD PTR [eax+edi*4]
  0005f	89 45 c8	 mov	 DWORD PTR _pbf$1$[ebp], eax
; File D:\git\src\IBK\IBK_DRFN\ProjSrc\SrcDrfn\Chart\Common_ST\STGfxOutBarCtrl.cpp

; 1682 : 	int max = pbf->GetItemCount(), t;

  00062	8b 40 1c	 mov	 eax, DWORD PTR [eax+28]
  00065	89 45 d0	 mov	 DWORD PTR _max$1$[ebp], eax

; 1685 : 	int isdc = pDC->SaveDC();

  00068	8b 06		 mov	 eax, DWORD PTR [esi]
  0006a	8b 40 24	 mov	 eax, DWORD PTR [eax+36]
  0006d	ff d0		 call	 eax
  0006f	89 45 c4	 mov	 DWORD PTR _isdc$1$[ebp], eax
; File C:\Program Files (x86)\Microsoft Visual Studio\2019\Community\VC\Tools\MSVC\14.29.30133\atlmfc\include\afxwin1.inl

; 70   : 	{ m_hObject = NULL; }

  00072	c7 45 d8 00 00
	00 00		 mov	 DWORD PTR _itemRegion$[ebp+4], 0

; 264  : 	{ }

  00079	c7 45 d4 00 00
	00 00		 mov	 DWORD PTR _itemRegion$[ebp], OFFSET ??_7CRgn@@6B@

; 270  : 	{ return Attach(::CreateRectRgnIndirect(lpRect)); }

  00080	8d 45 10	 lea	 eax, DWORD PTR _rc$[ebp]
; File D:\git\src\IBK\IBK_DRFN\ProjSrc\SrcDrfn\Chart\Common_ST\STGfxOutBarCtrl.cpp

; 1686 : 	CRgn itemRegion;

  00083	c7 45 fc 00 00
	00 00		 mov	 DWORD PTR __$EHRec$[ebp+8], 0
; File C:\Program Files (x86)\Microsoft Visual Studio\2019\Community\VC\Tools\MSVC\14.29.30133\atlmfc\include\afxwin1.inl

; 270  : 	{ return Attach(::CreateRectRgnIndirect(lpRect)); }

  0008a	50		 push	 eax
  0008b	ff 15 00 00 00
	00		 call	 DWORD PTR __imp__CreateRectRgnIndirect@4
  00091	50		 push	 eax
  00092	8d 4d d4	 lea	 ecx, DWORD PTR _itemRegion$[ebp]
  00095	e8 00 00 00 00	 call	 ?Attach@CGdiObject@@QAEHPAX@Z ; CGdiObject::Attach
; File D:\git\src\IBK\IBK_DRFN\ProjSrc\SrcDrfn\Chart\Common_ST\STGfxOutBarCtrl.cpp

; 1688 : 	pDC->SelectClipRgn(&itemRegion);

  0009a	8d 45 d4	 lea	 eax, DWORD PTR _itemRegion$[ebp]
  0009d	8b ce		 mov	 ecx, esi
  0009f	50		 push	 eax
  000a0	e8 00 00 00 00	 call	 ?SelectClipRgn@CDC@@QAEHPAVCRgn@@@Z ; CDC::SelectClipRgn

; 1689 : 	itemRegion.DeleteObject();

  000a5	8d 4d d4	 lea	 ecx, DWORD PTR _itemRegion$[ebp]
  000a8	e8 00 00 00 00	 call	 ?DeleteObject@CGdiObject@@QAEHXZ ; CGdiObject::DeleteObject

; 1690 : 	for (t = iFirstItem; t < max; t++)

  000ad	8b 45 dc	 mov	 eax, DWORD PTR _this$GSCopy$1$[ebp]
  000b0	8b b0 1c 01 00
	00		 mov	 esi, DWORD PTR [eax+284]
  000b6	3b 75 d0	 cmp	 esi, DWORD PTR _max$1$[ebp]
  000b9	7d 51		 jge	 SHORT $LN3@PaintItems
  000bb	0f 1f 44 00 00	 npad	 5
$LL4@PaintItems:
; File C:\Program Files (x86)\Microsoft Visual Studio\2019\Community\VC\Tools\MSVC\14.29.30133\atlmfc\include\afxcoll.inl

; 203  : 		if( nIndex < 0 || nIndex >= m_nSize )

  000c0	85 f6		 test	 esi, esi
  000c2	78 7f		 js	 SHORT $LN23@PaintItems
  000c4	8b 4d c8	 mov	 ecx, DWORD PTR _pbf$1$[ebp]
  000c7	3b 71 1c	 cmp	 esi, DWORD PTR [ecx+28]
  000ca	7d 77		 jge	 SHORT $LN23@PaintItems
; File D:\git\src\IBK\IBK_DRFN\ProjSrc\SrcDrfn\Chart\Common_ST\STGfxOutBarCtrl.cpp

; 1694 : 		GetItemRect(iFolder, t, itemRc);

  000cc	8d 4d e0	 lea	 ecx, DWORD PTR _itemRc$2[ebp]
  000cf	0f 57 c0	 xorps	 xmm0, xmm0
  000d2	51		 push	 ecx
  000d3	56		 push	 esi
  000d4	57		 push	 edi
  000d5	8b c8		 mov	 ecx, eax
; File C:\Program Files (x86)\Microsoft Visual Studio\2019\Community\VC\Tools\MSVC\14.29.30133\atlmfc\include\atltypes.h

; 528  : 	left = 0;

  000d7	0f 11 45 e0	 movups	 XMMWORD PTR _itemRc$2[ebp], xmm0
; File D:\git\src\IBK\IBK_DRFN\ProjSrc\SrcDrfn\Chart\Common_ST\STGfxOutBarCtrl.cpp

; 1694 : 		GetItemRect(iFolder, t, itemRc);

  000db	e8 00 00 00 00	 call	 ?GetItemRect@CSTGfxOutBarCtrl@@QAEXHHAAVCRect@@@Z ; CSTGfxOutBarCtrl::GetItemRect

; 1695 : 		if (itemRc.top > rc.bottom) break;

  000e0	8b 45 e4	 mov	 eax, DWORD PTR _itemRc$2[ebp+4]
  000e3	3b 45 1c	 cmp	 eax, DWORD PTR _rc$[ebp+12]
  000e6	7f 24		 jg	 SHORT $LN3@PaintItems

; 1696 : 		else DrawItem(pDC, iFolder, itemRc, t);

  000e8	0f 10 45 e0	 movups	 xmm0, XMMWORD PTR _itemRc$2[ebp]
  000ec	8b 4d dc	 mov	 ecx, DWORD PTR _this$GSCopy$1$[ebp]
  000ef	6a 00		 push	 0
  000f1	56		 push	 esi
  000f2	83 ec 10	 sub	 esp, 16			; 00000010H
  000f5	8b c4		 mov	 eax, esp
  000f7	57		 push	 edi
  000f8	ff 75 cc	 push	 DWORD PTR _pDC$GSCopy$1$[ebp]
  000fb	0f 11 00	 movups	 XMMWORD PTR [eax], xmm0
  000fe	e8 00 00 00 00	 call	 ?DrawItem@CSTGfxOutBarCtrl@@QAEXPAVCDC@@HVCRect@@H_N@Z ; CSTGfxOutBarCtrl::DrawItem
  00103	8b 45 dc	 mov	 eax, DWORD PTR _this$GSCopy$1$[ebp]
  00106	46		 inc	 esi
  00107	3b 75 d0	 cmp	 esi, DWORD PTR _max$1$[ebp]
  0010a	7c b4		 jl	 SHORT $LL4@PaintItems
$LN3@PaintItems:

; 1697 : 	}
; 1698 : 	pDC->RestoreDC(isdc);

  0010c	8b 4d cc	 mov	 ecx, DWORD PTR _pDC$GSCopy$1$[ebp]
  0010f	ff 75 c4	 push	 DWORD PTR _isdc$1$[ebp]
  00112	8b 01		 mov	 eax, DWORD PTR [ecx]
  00114	ff 50 28	 call	 DWORD PTR [eax+40]
; File C:\Program Files (x86)\Microsoft Visual Studio\2019\Community\VC\Tools\MSVC\14.29.30133\atlmfc\include\afxwin1.inl

; 266  : 	{ }

  00117	8d 4d d4	 lea	 ecx, DWORD PTR _itemRegion$[ebp]
  0011a	c7 45 d4 00 00
	00 00		 mov	 DWORD PTR _itemRegion$[ebp], OFFSET ??_7CRgn@@6B@
  00121	e8 00 00 00 00	 call	 ??1CGdiObject@@UAE@XZ	; CGdiObject::~CGdiObject
$LN28@PaintItems:
; File D:\git\src\IBK\IBK_DRFN\ProjSrc\SrcDrfn\Chart\Common_ST\STGfxOutBarCtrl.cpp

; 1699 : }

  00126	8b 4d f4	 mov	 ecx, DWORD PTR __$EHRec$[ebp]
  00129	64 89 0d 00 00
	00 00		 mov	 DWORD PTR fs:0, ecx
  00130	59		 pop	 ecx
  00131	5f		 pop	 edi
  00132	5e		 pop	 esi
  00133	8b 4d f0	 mov	 ecx, DWORD PTR __$ArrayPad$[ebp]
  00136	33 cd		 xor	 ecx, ebp
  00138	e8 00 00 00 00	 call	 @__security_check_cookie@4
  0013d	8b e5		 mov	 esp, ebp
  0013f	5d		 pop	 ebp
  00140	c2 18 00	 ret	 24			; 00000018H
$LN23@PaintItems:
  00143	e8 00 00 00 00	 call	 ?AfxThrowInvalidArgException@@YGXXZ ; AfxThrowInvalidArgException
$LN37@PaintItems:
  00148	cc		 int	 3
_TEXT	ENDS
;	COMDAT text$x
text$x	SEGMENT
__unwindfunclet$?PaintItems@CSTGfxOutBarCtrl@@QAEXPAVCDC@@HVCRect@@@Z$0:
  00000	8d 4d d4	 lea	 ecx, DWORD PTR _itemRegion$[ebp]
  00003	e9 00 00 00 00	 jmp	 ??1CRgn@@UAE@XZ		; CRgn::~CRgn
  00008	cc		 int	 3
  00009	cc		 int	 3
  0000a	cc		 int	 3
  0000b	cc		 int	 3
  0000c	cc		 int	 3
__ehhandler$?PaintItems@CSTGfxOutBarCtrl@@QAEXPAVCDC@@HVCRect@@@Z:
  0000d	90		 npad	 1
  0000e	90		 npad	 1
  0000f	8b 54 24 08	 mov	 edx, DWORD PTR [esp+8]
  00013	8d 42 0c	 lea	 eax, DWORD PTR [edx+12]
  00016	8b 4a c4	 mov	 ecx, DWORD PTR [edx-60]
  00019	33 c8		 xor	 ecx, eax
  0001b	e8 00 00 00 00	 call	 @__security_check_cookie@4
  00020	8b 4a fc	 mov	 ecx, DWORD PTR [edx-4]
  00023	33 c8		 xor	 ecx, eax
  00025	e8 00 00 00 00	 call	 @__security_check_cookie@4
  0002a	b8 00 00 00 00	 mov	 eax, OFFSET __ehfuncinfo$?PaintItems@CSTGfxOutBarCtrl@@QAEXPAVCDC@@HVCRect@@@Z
  0002f	e9 00 00 00 00	 jmp	 ___CxxFrameHandler3
text$x	ENDS
?PaintItems@CSTGfxOutBarCtrl@@QAEXPAVCDC@@HVCRect@@@Z ENDP ; CSTGfxOutBarCtrl::PaintItems
; Function compile flags: /Ogtp
; File D:\git\src\IBK\IBK_DRFN\ProjSrc\SrcDrfn\Chart\Common_ST\STGfxOutBarCtrl.cpp
; File C:\Program Files (x86)\Microsoft Visual Studio\2019\Community\VC\Tools\MSVC\14.29.30133\atlmfc\include\afxcoll.inl
; File C:\Program Files (x86)\Microsoft Visual Studio\2019\Community\VC\Tools\MSVC\14.29.30133\atlmfc\include\atltypes.h
; File C:\Program Files (x86)\Microsoft Visual Studio\2019\Community\VC\Tools\MSVC\14.29.30133\atlmfc\include\afxcoll.inl
; File C:\Program Files (x86)\Microsoft Visual Studio\2019\Community\VC\Tools\MSVC\14.29.30133\atlmfc\include\atltypes.h
; File C:\Program Files (x86)\Microsoft Visual Studio\2019\Community\VC\Tools\MSVC\14.29.30133\atlmfc\include\afxcoll.inl
; File D:\git\src\IBK\IBK_DRFN\ProjSrc\SrcDrfn\Chart\Common_ST\STGfxOutBarCtrl.cpp
; File C:\Program Files (x86)\Microsoft Visual Studio\2019\Community\VC\Tools\MSVC\14.29.30133\atlmfc\include\atltypes.h
; File D:\git\src\IBK\IBK_DRFN\ProjSrc\SrcDrfn\Chart\Common_ST\STGfxOutBarCtrl.cpp
; File C:\Program Files (x86)\Microsoft Visual Studio\2019\Community\VC\Tools\MSVC\14.29.30133\atlmfc\include\afxwin1.inl
; File C:\Program Files (x86)\Microsoft Visual Studio\2019\Community\VC\Tools\MSVC\14.29.30133\atlmfc\include\atltypes.h
; File D:\git\src\IBK\IBK_DRFN\ProjSrc\SrcDrfn\Chart\Common_ST\STGfxOutBarCtrl.cpp
; File C:\Program Files (x86)\Microsoft Visual Studio\2019\Community\VC\Tools\MSVC\14.29.30133\atlmfc\include\afxwin1.inl
; File D:\git\src\IBK\IBK_DRFN\ProjSrc\SrcDrfn\Chart\Common_ST\STGfxOutBarCtrl.cpp
; File C:\Program Files (x86)\Microsoft Visual Studio\2019\Community\VC\Tools\MSVC\14.29.30133\atlmfc\include\atltypes.h
; File D:\git\src\IBK\IBK_DRFN\ProjSrc\SrcDrfn\Chart\Common_ST\STGfxOutBarCtrl.cpp
; File C:\Program Files (x86)\Microsoft Visual Studio\2019\Community\VC\Tools\MSVC\14.29.30133\atlmfc\include\afxwin1.inl
; File C:\Program Files (x86)\Microsoft Visual Studio\2019\Community\VC\Tools\MSVC\14.29.30133\atlmfc\include\atltypes.h
; File D:\git\src\IBK\IBK_DRFN\ProjSrc\SrcDrfn\Chart\Common_ST\STGfxOutBarCtrl.cpp
; File C:\Program Files (x86)\Microsoft Visual Studio\2019\Community\VC\Tools\MSVC\14.29.30133\atlmfc\include\afxcoll.inl
; File D:\git\src\IBK\IBK_DRFN\ProjSrc\SrcDrfn\Chart\Common_ST\STGfxOutBarCtrl.cpp
;	COMDAT ?GetItemSize@CSTGfxOutBarCtrl@@QAE?AVCSize@@HHH@Z
_TEXT	SEGMENT
_oft$1$ = -104						; size = 4
$T2 = -104						; size = 1
_szImage$1$ = -100					; size = 4
_szImage$2$ = -96					; size = 4
$T3 = -92						; size = 4
_pi$1$ = -88						; size = 4
_ii$4 = -84						; size = 32
_dc$5 = -52						; size = 20
$T6 = -48						; size = 16
_rc$7 = -32						; size = 16
_size$8 = -24						; size = 8
$T9 = -20						; size = 4
__$ArrayPad$ = -16					; size = 4
__$EHRec$ = -12						; size = 12
___$ReturnUdt$ = 8					; size = 4
_iFolder$ = 12						; size = 4
_index$ = 16						; size = 4
_type$ = 20						; size = 4
?GetItemSize@CSTGfxOutBarCtrl@@QAE?AVCSize@@HHH@Z PROC	; CSTGfxOutBarCtrl::GetItemSize, COMDAT
; _this$ = ecx

; 1703 : {

  00000	55		 push	 ebp
  00001	8b ec		 mov	 ebp, esp
  00003	6a ff		 push	 -1
  00005	68 00 00 00 00	 push	 __ehhandler$?GetItemSize@CSTGfxOutBarCtrl@@QAE?AVCSize@@HHH@Z
  0000a	64 a1 00 00 00
	00		 mov	 eax, DWORD PTR fs:0
  00010	50		 push	 eax
  00011	83 ec 5c	 sub	 esp, 92			; 0000005cH
  00014	a1 00 00 00 00	 mov	 eax, DWORD PTR ___security_cookie
  00019	33 c5		 xor	 eax, ebp
  0001b	89 45 f0	 mov	 DWORD PTR __$ArrayPad$[ebp], eax
  0001e	53		 push	 ebx
  0001f	56		 push	 esi
  00020	57		 push	 edi
  00021	50		 push	 eax
  00022	8d 45 f4	 lea	 eax, DWORD PTR __$EHRec$[ebp]
  00025	64 a3 00 00 00
	00		 mov	 DWORD PTR fs:0, eax
  0002b	8b f9		 mov	 edi, ecx
  0002d	8b 4d 0c	 mov	 ecx, DWORD PTR _iFolder$[ebp]
  00030	8b 75 08	 mov	 esi, DWORD PTR ___$ReturnUdt$[ebp]
  00033	8b 5d 10	 mov	 ebx, DWORD PTR _index$[ebp]
; File C:\Program Files (x86)\Microsoft Visual Studio\2019\Community\VC\Tools\MSVC\14.29.30133\atlmfc\include\afxcoll.inl

; 203  : 		if( nIndex < 0 || nIndex >= m_nSize )

  00036	85 c9		 test	 ecx, ecx
  00038	0f 88 1f 02 00
	00		 js	 $LN25@GetItemSiz
  0003e	3b 8f 08 01 00
	00		 cmp	 ecx, DWORD PTR [edi+264]
  00044	0f 8d 13 02 00
	00		 jge	 $LN25@GetItemSiz

; 205  : 		return m_pData[nIndex]; }

  0004a	8b 87 04 01 00
	00		 mov	 eax, DWORD PTR [edi+260]
  00050	8b 04 88	 mov	 eax, DWORD PTR [eax+ecx*4]

; 203  : 		if( nIndex < 0 || nIndex >= m_nSize )

  00053	85 db		 test	 ebx, ebx
  00055	0f 88 02 02 00
	00		 js	 $LN25@GetItemSiz
  0005b	3b 58 1c	 cmp	 ebx, DWORD PTR [eax+28]
  0005e	0f 8d f9 01 00
	00		 jge	 $LN25@GetItemSiz

; 205  : 		return m_pData[nIndex]; }

  00064	8b 40 18	 mov	 eax, DWORD PTR [eax+24]
; File C:\Program Files (x86)\Microsoft Visual Studio\2019\Community\VC\Tools\MSVC\14.29.30133\atlmfc\include\atltypes.h

; 312  : 	cx = initCX;

  00067	c7 45 a0 00 00
	00 00		 mov	 DWORD PTR _szImage$2$[ebp], 0

; 313  : 	cy = initCY;

  0006e	c7 45 9c 00 00
	00 00		 mov	 DWORD PTR _szImage$1$[ebp], 0

; 312  : 	cx = initCX;

  00075	c7 45 a4 00 00
	00 00		 mov	 DWORD PTR $T3[ebp], 0
; File C:\Program Files (x86)\Microsoft Visual Studio\2019\Community\VC\Tools\MSVC\14.29.30133\atlmfc\include\afxcoll.inl

; 205  : 		return m_pData[nIndex]; }

  0007c	8b 1c 98	 mov	 ebx, DWORD PTR [eax+ebx*4]
; File C:\Program Files (x86)\Microsoft Visual Studio\2019\Community\VC\Tools\MSVC\14.29.30133\atlmfc\include\atltypes.h

; 312  : 	cx = initCX;

  0007f	c7 06 00 00 00
	00		 mov	 DWORD PTR [esi], 0

; 313  : 	cy = initCY;

  00085	c7 46 04 00 00
	00 00		 mov	 DWORD PTR [esi+4], 0
; File C:\Program Files (x86)\Microsoft Visual Studio\2019\Community\VC\Tools\MSVC\14.29.30133\atlmfc\include\afxcoll.inl

; 205  : 		return m_pData[nIndex]; }

  0008c	89 5d a8	 mov	 DWORD PTR _pi$1$[ebp], ebx
; File D:\git\src\IBK\IBK_DRFN\ProjSrc\SrcDrfn\Chart\Common_ST\STGfxOutBarCtrl.cpp

; 1714 : 	if (pi->iImageIndex >= 0)

  0008f	83 7b 04 00	 cmp	 DWORD PTR [ebx+4], 0
  00093	8b 5d 14	 mov	 ebx, DWORD PTR _type$[ebp]
; File C:\Program Files (x86)\Microsoft Visual Studio\2019\Community\VC\Tools\MSVC\14.29.30133\atlmfc\include\atltypes.h

; 313  : 	cy = initCY;

  00096	c7 45 ec 00 00
	00 00		 mov	 DWORD PTR $T9[ebp], 0
; File D:\git\src\IBK\IBK_DRFN\ProjSrc\SrcDrfn\Chart\Common_ST\STGfxOutBarCtrl.cpp

; 1714 : 	if (pi->iImageIndex >= 0)

  0009d	7c 54		 jl	 SHORT $LN4@GetItemSiz

; 1715 : 	{
; 1716 : 		if (type != ircLabel)

  0009f	83 fb 02	 cmp	 ebx, 2
  000a2	74 4f		 je	 SHORT $LN4@GetItemSiz

; 215  : 	return dwFlags&fSmallIcon;

  000a4	8a 87 fc 00 00
	00		 mov	 al, BYTE PTR [edi+252]
  000aa	24 01		 and	 al, 1
  000ac	88 45 98	 mov	 BYTE PTR $T2[ebp], al

; 1717 : 		{
; 1718 : 			CImageList * il = GetFolderImageList(iFolder, IsSmallIconView());

  000af	ff 75 98	 push	 DWORD PTR $T2[ebp]
  000b2	51		 push	 ecx
  000b3	8b cf		 mov	 ecx, edi
  000b5	e8 00 00 00 00	 call	 ?GetFolderImageList@CSTGfxOutBarCtrl@@QBEPAVCImageList@@H_N@Z ; CSTGfxOutBarCtrl::GetFolderImageList
  000ba	8b c8		 mov	 ecx, eax

; 1719 : 			ASSERT(il);
; 1720 : 			if (il)

  000bc	85 c9		 test	 ecx, ecx
  000be	74 33		 je	 SHORT $LN4@GetItemSiz
; File C:\Program Files (x86)\Microsoft Visual Studio\2019\Community\VC\Tools\MSVC\14.29.30133\atlmfc\include\afxwin1.inl

; 881  : 	{ ASSERT(m_hImageList != NULL); return ImageList_GetImageInfo(m_hImageList, nImage, pImageInfo); }

  000c0	8d 45 ac	 lea	 eax, DWORD PTR _ii$4[ebp]
  000c3	50		 push	 eax
  000c4	8b 45 a8	 mov	 eax, DWORD PTR _pi$1$[ebp]
  000c7	ff 70 04	 push	 DWORD PTR [eax+4]
  000ca	ff 71 04	 push	 DWORD PTR [ecx+4]
  000cd	ff 15 00 00 00
	00		 call	 DWORD PTR __imp__ImageList_GetImageInfo@12
; File C:\Program Files (x86)\Microsoft Visual Studio\2019\Community\VC\Tools\MSVC\14.29.30133\atlmfc\include\atltypes.h

; 548  : 	::CopyRect(this, &srcRect);

  000d3	8d 45 bc	 lea	 eax, DWORD PTR _ii$4[ebp+16]
  000d6	50		 push	 eax
  000d7	8d 45 d0	 lea	 eax, DWORD PTR $T6[ebp]
  000da	50		 push	 eax
  000db	ff 15 00 00 00
	00		 call	 DWORD PTR __imp__CopyRect@8

; 586  : 	return CSize(right - left, bottom - top);

  000e1	8b 4d dc	 mov	 ecx, DWORD PTR $T6[ebp+12]
  000e4	2b 4d d4	 sub	 ecx, DWORD PTR $T6[ebp+4]
  000e7	8b 45 d8	 mov	 eax, DWORD PTR $T6[ebp+8]
  000ea	2b 45 d0	 sub	 eax, DWORD PTR $T6[ebp]
  000ed	89 4d 9c	 mov	 DWORD PTR _szImage$1$[ebp], ecx
  000f0	89 45 a0	 mov	 DWORD PTR _szImage$2$[ebp], eax
$LN4@GetItemSiz:
; File D:\git\src\IBK\IBK_DRFN\ProjSrc\SrcDrfn\Chart\Common_ST\STGfxOutBarCtrl.cpp

; 1728 : 	if (pi->cItem)

  000f3	8b 45 a8	 mov	 eax, DWORD PTR _pi$1$[ebp]
  000f6	83 78 08 00	 cmp	 DWORD PTR [eax+8], 0
  000fa	0f 84 c1 00 00
	00		 je	 $LN6@GetItemSiz

; 1729 : 	{
; 1730 : 		if (type != ircIcon)

  00100	83 fb 01	 cmp	 ebx, 1
  00103	0f 84 b8 00 00
	00		 je	 $LN6@GetItemSiz

; 1731 : 		{
; 1732 : 			CClientDC dc(this);

  00109	57		 push	 edi
  0010a	8d 4d cc	 lea	 ecx, DWORD PTR _dc$5[ebp]
  0010d	e8 00 00 00 00	 call	 ??0CClientDC@@QAE@PAVCWnd@@@Z ; CClientDC::CClientDC

; 1733 : //			CFont * oft = (CFont *) dc.SelectObject(CFont::FromHandle((HFONT)GetStockObject(DEFAULT_GUI_FONT)));
; 1734 : 			CFont * oft = (CFont *) dc.SelectObject(&m_Font);

  00112	8d 87 4c 01 00
	00		 lea	 eax, DWORD PTR [edi+332]
  00118	c7 45 fc 00 00
	00 00		 mov	 DWORD PTR __$EHRec$[ebp+8], 0
  0011f	50		 push	 eax
  00120	8d 4d cc	 lea	 ecx, DWORD PTR _dc$5[ebp]
  00123	e8 00 00 00 00	 call	 ?SelectObject@CDC@@UAEPAVCFont@@PAV2@@Z ; CDC::SelectObject

; 215  : 	return dwFlags&fSmallIcon;

  00128	f6 87 fc 00 00
	00 01		 test	 BYTE PTR [edi+252], 1

; 1733 : //			CFont * oft = (CFont *) dc.SelectObject(CFont::FromHandle((HFONT)GetStockObject(DEFAULT_GUI_FONT)));
; 1734 : 			CFont * oft = (CFont *) dc.SelectObject(&m_Font);

  0012f	89 45 98	 mov	 DWORD PTR _oft$1$[ebp], eax

; 1735 : 			if (IsSmallIconView())

  00132	74 2b		 je	 SHORT $LN7@GetItemSiz

; 1737 : 				szLabel = dc.GetTextExtent(pi->cItem, lstrlen(pi->cItem));

  00134	8b 45 a8	 mov	 eax, DWORD PTR _pi$1$[ebp]
  00137	ff 70 08	 push	 DWORD PTR [eax+8]
  0013a	ff 15 00 00 00
	00		 call	 DWORD PTR __imp__lstrlenA@4
; File C:\Program Files (x86)\Microsoft Visual Studio\2019\Community\VC\Tools\MSVC\14.29.30133\atlmfc\include\afxwin1.inl

; 632  : 		VERIFY(::GetTextExtentPoint32(m_hAttribDC, lpszString, nCount, &size));

  00140	8d 4d e8	 lea	 ecx, DWORD PTR _size$8[ebp]
  00143	51		 push	 ecx
  00144	50		 push	 eax
  00145	8b 45 a8	 mov	 eax, DWORD PTR _pi$1$[ebp]
  00148	ff 70 08	 push	 DWORD PTR [eax+8]
  0014b	ff 75 d4	 push	 DWORD PTR _dc$5[ebp+8]
  0014e	ff 15 00 00 00
	00		 call	 DWORD PTR __imp__GetTextExtentPoint32A@16
; File D:\git\src\IBK\IBK_DRFN\ProjSrc\SrcDrfn\Chart\Common_ST\STGfxOutBarCtrl.cpp

; 1737 : 				szLabel = dc.GetTextExtent(pi->cItem, lstrlen(pi->cItem));

  00154	8b 45 e8	 mov	 eax, DWORD PTR _size$8[ebp]
  00157	89 45 a4	 mov	 DWORD PTR $T3[ebp], eax
  0015a	8b 45 ec	 mov	 eax, DWORD PTR _size$8[ebp+4]

; 1738 : 			}

  0015d	eb 4c		 jmp	 SHORT $LN70@GetItemSiz
$LN7@GetItemSiz:

; 1742 : 				GetInsideRect(rc);

  0015f	8d 45 e0	 lea	 eax, DWORD PTR _rc$7[ebp]
  00162	0f 57 c0	 xorps	 xmm0, xmm0
  00165	50		 push	 eax
  00166	8b cf		 mov	 ecx, edi
; File C:\Program Files (x86)\Microsoft Visual Studio\2019\Community\VC\Tools\MSVC\14.29.30133\atlmfc\include\atltypes.h

; 528  : 	left = 0;

  00168	0f 11 45 e0	 movups	 XMMWORD PTR _rc$7[ebp], xmm0
; File D:\git\src\IBK\IBK_DRFN\ProjSrc\SrcDrfn\Chart\Common_ST\STGfxOutBarCtrl.cpp

; 1742 : 				GetInsideRect(rc);

  0016c	e8 00 00 00 00	 call	 ?GetInsideRect@CSTGfxOutBarCtrl@@QBEXAAVCRect@@@Z ; CSTGfxOutBarCtrl::GetInsideRect

; 1743 : 				rc.bottom = rc.top;

  00171	8b 45 e4	 mov	 eax, DWORD PTR _rc$7[ebp+4]
  00174	89 45 ec	 mov	 DWORD PTR _rc$7[ebp+12], eax

; 1744 : 				dc.DrawText(pi->cItem, lstrlen(pi->cItem), rc, DT_CALCRECT|DT_CENTER|DT_WORDBREAK);

  00177	8b 45 a8	 mov	 eax, DWORD PTR _pi$1$[ebp]
  0017a	ff 70 08	 push	 DWORD PTR [eax+8]
  0017d	ff 15 00 00 00
	00		 call	 DWORD PTR __imp__lstrlenA@4
; File C:\Program Files (x86)\Microsoft Visual Studio\2019\Community\VC\Tools\MSVC\14.29.30133\atlmfc\include\afxwin1.inl

; 594  : 		return ::DrawText(m_hDC, lpszString, nCount, lpRect, nFormat); }

  00183	68 11 04 00 00	 push	 1041			; 00000411H
  00188	8d 4d e0	 lea	 ecx, DWORD PTR _rc$7[ebp]
  0018b	51		 push	 ecx
  0018c	50		 push	 eax
  0018d	8b 45 a8	 mov	 eax, DWORD PTR _pi$1$[ebp]
  00190	ff 70 08	 push	 DWORD PTR [eax+8]
  00193	ff 75 d0	 push	 DWORD PTR _dc$5[ebp+4]
  00196	ff 15 00 00 00
	00		 call	 DWORD PTR __imp__DrawTextA@20
; File C:\Program Files (x86)\Microsoft Visual Studio\2019\Community\VC\Tools\MSVC\14.29.30133\atlmfc\include\atltypes.h

; 586  : 	return CSize(right - left, bottom - top);

  0019c	8b 45 e8	 mov	 eax, DWORD PTR _rc$7[ebp+8]
  0019f	2b 45 e0	 sub	 eax, DWORD PTR _rc$7[ebp]
  001a2	89 45 a4	 mov	 DWORD PTR $T3[ebp], eax
  001a5	8b 45 ec	 mov	 eax, DWORD PTR _rc$7[ebp+12]
  001a8	2b 45 e4	 sub	 eax, DWORD PTR _rc$7[ebp+4]
$LN70@GetItemSiz:
; File D:\git\src\IBK\IBK_DRFN\ProjSrc\SrcDrfn\Chart\Common_ST\STGfxOutBarCtrl.cpp

; 1747 : 			dc.SelectObject(oft);

  001ab	ff 75 98	 push	 DWORD PTR _oft$1$[ebp]
  001ae	8d 4d cc	 lea	 ecx, DWORD PTR _dc$5[ebp]
  001b1	89 45 ec	 mov	 DWORD PTR $T9[ebp], eax
  001b4	e8 00 00 00 00	 call	 ?SelectObject@CDC@@UAEPAVCFont@@PAV2@@Z ; CDC::SelectObject

; 1748 : 		}

  001b9	8d 4d cc	 lea	 ecx, DWORD PTR _dc$5[ebp]
  001bc	e8 00 00 00 00	 call	 ??1CClientDC@@UAE@XZ	; CClientDC::~CClientDC
$LN6@GetItemSiz:

; 215  : 	return dwFlags&fSmallIcon;

  001c1	f6 87 fc 00 00
	00 01		 test	 BYTE PTR [edi+252], 1

; 1749 : 	}
; 1750 : 	if (IsSmallIconView())

  001c8	74 29		 je	 SHORT $LN9@GetItemSiz

; 1751 : 	{
; 1752 : 		if (type == ircIcon) szAll = szImage;

  001ca	83 fb 01	 cmp	 ebx, 1
  001cd	74 29		 je	 SHORT $LN73@GetItemSiz

; 1753 : 		else if (type == ircLabel) szAll = szLabel;

  001cf	83 fb 02	 cmp	 ebx, 2
  001d2	74 36		 je	 SHORT $LN72@GetItemSiz

; 1754 : 		else if (type == ircAll) szAll = CSize(szImage.cx + szLabel.cx + xSmallIconLabelOffset, szImage.cy > szLabel.cy ? szImage.cy : szLabel.cy);

  001d4	83 fb 03	 cmp	 ebx, 3
  001d7	75 64		 jne	 SHORT $LN20@GetItemSiz
  001d9	8b 87 a4 00 00
	00		 mov	 eax, DWORD PTR [edi+164]
  001df	03 45 a4	 add	 eax, DWORD PTR $T3[ebp]
  001e2	03 45 a0	 add	 eax, DWORD PTR _szImage$2$[ebp]
  001e5	8b 4d ec	 mov	 ecx, DWORD PTR $T9[ebp]
  001e8	39 4d 9c	 cmp	 DWORD PTR _szImage$1$[ebp], ecx
  001eb	89 06		 mov	 DWORD PTR [esi], eax
  001ed	0f 4f 4d 9c	 cmovg	 ecx, DWORD PTR _szImage$1$[ebp]

; 1755 : 	}

  001f1	eb 47		 jmp	 SHORT $LN71@GetItemSiz
$LN9@GetItemSiz:

; 1756 : 	else
; 1757 : 	{
; 1758 : 		if (type == ircIcon) szAll = szImage;

  001f3	83 fb 01	 cmp	 ebx, 1
  001f6	75 0d		 jne	 SHORT $LN16@GetItemSiz
$LN73@GetItemSiz:

; 1763 : 		}
; 1764 : 	}
; 1765 : 	return szAll;

  001f8	8b 4d a0	 mov	 ecx, DWORD PTR _szImage$2$[ebp]
  001fb	8b 7d 9c	 mov	 edi, DWORD PTR _szImage$1$[ebp]
  001fe	89 0e		 mov	 DWORD PTR [esi], ecx
  00200	89 7e 04	 mov	 DWORD PTR [esi+4], edi
  00203	eb 38		 jmp	 SHORT $LN20@GetItemSiz
$LN16@GetItemSiz:

; 1759 : 		else if (type == ircLabel) szAll = szLabel;

  00205	83 fb 02	 cmp	 ebx, 2
  00208	75 0d		 jne	 SHORT $LN18@GetItemSiz
$LN72@GetItemSiz:

; 1763 : 		}
; 1764 : 	}
; 1765 : 	return szAll;

  0020a	8b 4d a4	 mov	 ecx, DWORD PTR $T3[ebp]
  0020d	8b 45 ec	 mov	 eax, DWORD PTR $T9[ebp]
  00210	89 0e		 mov	 DWORD PTR [esi], ecx
  00212	89 46 04	 mov	 DWORD PTR [esi+4], eax
  00215	eb 26		 jmp	 SHORT $LN20@GetItemSiz
$LN18@GetItemSiz:

; 1760 : 		else if (type == ircAll) 

  00217	83 fb 03	 cmp	 ebx, 3
  0021a	75 21		 jne	 SHORT $LN20@GetItemSiz

; 1761 : 		{
; 1762 : 			szAll = CSize(szImage.cx > szLabel.cx ? szImage.cx : szLabel.cx, szLabel.cy + szImage.cy + yLargeIconLabelOffset + yLargeIconSpacing);

  0021c	8b 55 a4	 mov	 edx, DWORD PTR $T3[ebp]
  0021f	39 55 a0	 cmp	 DWORD PTR _szImage$2$[ebp], edx
  00222	8b 8f b0 00 00
	00		 mov	 ecx, DWORD PTR [edi+176]
  00228	0f 4f 55 a0	 cmovg	 edx, DWORD PTR _szImage$2$[ebp]
  0022c	03 8f a8 00 00
	00		 add	 ecx, DWORD PTR [edi+168]
  00232	03 4d ec	 add	 ecx, DWORD PTR $T9[ebp]
  00235	03 4d 9c	 add	 ecx, DWORD PTR _szImage$1$[ebp]
  00238	89 16		 mov	 DWORD PTR [esi], edx
$LN71@GetItemSiz:

; 1763 : 		}
; 1764 : 	}
; 1765 : 	return szAll;

  0023a	89 4e 04	 mov	 DWORD PTR [esi+4], ecx
$LN20@GetItemSiz:
  0023d	8b c6		 mov	 eax, esi

; 1766 : }

  0023f	8b 4d f4	 mov	 ecx, DWORD PTR __$EHRec$[ebp]
  00242	64 89 0d 00 00
	00 00		 mov	 DWORD PTR fs:0, ecx
  00249	59		 pop	 ecx
  0024a	5f		 pop	 edi
  0024b	5e		 pop	 esi
  0024c	5b		 pop	 ebx
  0024d	8b 4d f0	 mov	 ecx, DWORD PTR __$ArrayPad$[ebp]
  00250	33 cd		 xor	 ecx, ebp
  00252	e8 00 00 00 00	 call	 @__security_check_cookie@4
  00257	8b e5		 mov	 esp, ebp
  00259	5d		 pop	 ebp
  0025a	c2 10 00	 ret	 16			; 00000010H
$LN25@GetItemSiz:
; File C:\Program Files (x86)\Microsoft Visual Studio\2019\Community\VC\Tools\MSVC\14.29.30133\atlmfc\include\afxcoll.inl

; 204  : 			AfxThrowInvalidArgException();

  0025d	e8 00 00 00 00	 call	 ?AfxThrowInvalidArgException@@YGXXZ ; AfxThrowInvalidArgException
$LN69@GetItemSiz:
  00262	cc		 int	 3
_TEXT	ENDS
;	COMDAT text$x
text$x	SEGMENT
__unwindfunclet$?GetItemSize@CSTGfxOutBarCtrl@@QAE?AVCSize@@HHH@Z$0:
  00000	8d 4d cc	 lea	 ecx, DWORD PTR _dc$5[ebp]
  00003	e9 00 00 00 00	 jmp	 ??1CClientDC@@UAE@XZ	; CClientDC::~CClientDC
  00008	cc		 int	 3
  00009	cc		 int	 3
  0000a	cc		 int	 3
  0000b	cc		 int	 3
  0000c	cc		 int	 3
__ehhandler$?GetItemSize@CSTGfxOutBarCtrl@@QAE?AVCSize@@HHH@Z:
  0000d	90		 npad	 1
  0000e	90		 npad	 1
  0000f	8b 54 24 08	 mov	 edx, DWORD PTR [esp+8]
  00013	8d 42 0c	 lea	 eax, DWORD PTR [edx+12]
  00016	8b 4a 94	 mov	 ecx, DWORD PTR [edx-108]
  00019	33 c8		 xor	 ecx, eax
  0001b	e8 00 00 00 00	 call	 @__security_check_cookie@4
  00020	8b 4a fc	 mov	 ecx, DWORD PTR [edx-4]
  00023	33 c8		 xor	 ecx, eax
  00025	e8 00 00 00 00	 call	 @__security_check_cookie@4
  0002a	b8 00 00 00 00	 mov	 eax, OFFSET __ehfuncinfo$?GetItemSize@CSTGfxOutBarCtrl@@QAE?AVCSize@@HHH@Z
  0002f	e9 00 00 00 00	 jmp	 ___CxxFrameHandler3
text$x	ENDS
?GetItemSize@CSTGfxOutBarCtrl@@QAE?AVCSize@@HHH@Z ENDP	; CSTGfxOutBarCtrl::GetItemSize
; Function compile flags: /Ogtp
; File D:\git\src\IBK\IBK_DRFN\ProjSrc\SrcDrfn\Chart\Common_ST\STGfxOutBarCtrl.cpp
; File C:\Program Files (x86)\Microsoft Visual Studio\2019\Community\VC\Tools\MSVC\14.29.30133\atlmfc\include\afxcoll.inl
; File D:\git\src\IBK\IBK_DRFN\ProjSrc\SrcDrfn\Chart\Common_ST\STGfxOutBarCtrl.cpp
; File C:\Program Files (x86)\Microsoft Visual Studio\2019\Community\VC\Tools\MSVC\14.29.30133\atlmfc\include\afxcoll.inl
; File D:\git\src\IBK\IBK_DRFN\ProjSrc\SrcDrfn\Chart\Common_ST\STGfxOutBarCtrl.cpp
; File C:\Program Files (x86)\Microsoft Visual Studio\2019\Community\VC\Tools\MSVC\14.29.30133\atlmfc\include\afxcoll.inl
; File D:\git\src\IBK\IBK_DRFN\ProjSrc\SrcDrfn\Chart\Common_ST\STGfxOutBarCtrl.cpp
;	COMDAT ?GetFolderImageList@CSTGfxOutBarCtrl@@QBEPAVCImageList@@H_N@Z
_TEXT	SEGMENT
_index$ = 8						; size = 4
_bSmall$ = 12						; size = 1
?GetFolderImageList@CSTGfxOutBarCtrl@@QBEPAVCImageList@@H_N@Z PROC ; CSTGfxOutBarCtrl::GetFolderImageList, COMDAT
; _this$ = ecx

; 1769 : {

  00000	55		 push	 ebp
  00001	8b ec		 mov	 ebp, esp
; File C:\Program Files (x86)\Microsoft Visual Studio\2019\Community\VC\Tools\MSVC\14.29.30133\atlmfc\include\afxcoll.inl

; 203  : 		if( nIndex < 0 || nIndex >= m_nSize )

  00003	8b 55 08	 mov	 edx, DWORD PTR _index$[ebp]
  00006	85 d2		 test	 edx, edx
  00008	78 39		 js	 SHORT $LN10@GetFolderI
  0000a	3b 91 08 01 00
	00		 cmp	 edx, DWORD PTR [ecx+264]
  00010	7d 31		 jge	 SHORT $LN10@GetFolderI
; File D:\git\src\IBK\IBK_DRFN\ProjSrc\SrcDrfn\Chart\Common_ST\STGfxOutBarCtrl.cpp

; 1772 : 	if (bSmall)

  00012	80 7d 0c 00	 cmp	 BYTE PTR _bSmall$[ebp], 0
; File C:\Program Files (x86)\Microsoft Visual Studio\2019\Community\VC\Tools\MSVC\14.29.30133\atlmfc\include\afxcoll.inl

; 205  : 		return m_pData[nIndex]; }

  00016	8b 81 04 01 00
	00		 mov	 eax, DWORD PTR [ecx+260]
  0001c	8b 04 90	 mov	 eax, DWORD PTR [eax+edx*4]
; File D:\git\src\IBK\IBK_DRFN\ProjSrc\SrcDrfn\Chart\Common_ST\STGfxOutBarCtrl.cpp

; 1772 : 	if (bSmall)

  0001f	74 11		 je	 SHORT $LN4@GetFolderI

; 1773 : 	{
; 1774 : 		if (pbf->pSmallImageList) return pbf->pSmallImageList; else return pSmallImageList;

  00021	8b 40 10	 mov	 eax, DWORD PTR [eax+16]
  00024	85 c0		 test	 eax, eax
  00026	75 06		 jne	 SHORT $LN6@GetFolderI
  00028	8b 81 38 01 00
	00		 mov	 eax, DWORD PTR [ecx+312]
$LN6@GetFolderI:

; 1777 : }

  0002e	5d		 pop	 ebp
  0002f	c2 08 00	 ret	 8
$LN4@GetFolderI:

; 1775 : 	}
; 1776 : 	if (pbf->pLargeImageList) return pbf->pLargeImageList; else return pLargeImageList;

  00032	8b 40 0c	 mov	 eax, DWORD PTR [eax+12]
  00035	85 c0		 test	 eax, eax
  00037	75 f5		 jne	 SHORT $LN6@GetFolderI
  00039	8b 81 34 01 00
	00		 mov	 eax, DWORD PTR [ecx+308]

; 1777 : }

  0003f	5d		 pop	 ebp
  00040	c2 08 00	 ret	 8
$LN10@GetFolderI:
; File C:\Program Files (x86)\Microsoft Visual Studio\2019\Community\VC\Tools\MSVC\14.29.30133\atlmfc\include\afxcoll.inl

; 204  : 			AfxThrowInvalidArgException();

  00043	e8 00 00 00 00	 call	 ?AfxThrowInvalidArgException@@YGXXZ ; AfxThrowInvalidArgException
$LN13@GetFolderI:
  00048	cc		 int	 3
?GetFolderImageList@CSTGfxOutBarCtrl@@QBEPAVCImageList@@H_N@Z ENDP ; CSTGfxOutBarCtrl::GetFolderImageList
_TEXT	ENDS
; Function compile flags: /Ogtp
; File D:\git\src\IBK\IBK_DRFN\ProjSrc\SrcDrfn\Chart\Common_ST\STGfxOutBarCtrl.cpp
; File C:\Program Files (x86)\Microsoft Visual Studio\2019\Community\VC\Tools\MSVC\14.29.30133\atlmfc\include\afxcoll.inl
; File D:\git\src\IBK\IBK_DRFN\ProjSrc\SrcDrfn\Chart\Common_ST\STGfxOutBarCtrl.cpp
; File C:\Program Files (x86)\Microsoft Visual Studio\2019\Community\VC\Tools\MSVC\14.29.30133\atlmfc\include\afxcoll.inl
; File D:\git\src\IBK\IBK_DRFN\ProjSrc\SrcDrfn\Chart\Common_ST\STGfxOutBarCtrl.cpp
; File C:\Program Files (x86)\Microsoft Visual Studio\2019\Community\VC\Tools\MSVC\14.29.30133\atlmfc\include\afxcoll.inl
; File D:\git\src\IBK\IBK_DRFN\ProjSrc\SrcDrfn\Chart\Common_ST\STGfxOutBarCtrl.cpp
; File C:\Program Files (x86)\Microsoft Visual Studio\2019\Community\VC\Tools\MSVC\14.29.30133\atlmfc\include\afxwin1.inl
; File C:\Program Files (x86)\Microsoft Visual Studio\2019\Community\VC\Tools\MSVC\14.29.30133\atlmfc\include\atltypes.h
; File D:\git\src\IBK\IBK_DRFN\ProjSrc\SrcDrfn\Chart\Common_ST\STGfxOutBarCtrl.cpp
; File C:\Program Files (x86)\Microsoft Visual Studio\2019\Community\VC\Tools\MSVC\14.29.30133\atlmfc\include\atltypes.h
; File D:\git\src\IBK\IBK_DRFN\ProjSrc\SrcDrfn\Chart\Common_ST\STGfxOutBarCtrl.cpp
; File C:\Program Files (x86)\Microsoft Visual Studio\2019\Community\VC\Tools\MSVC\14.29.30133\atlmfc\include\afxwin1.inl
; File D:\git\src\IBK\IBK_DRFN\ProjSrc\SrcDrfn\Chart\Common_ST\STGfxOutBarCtrl.cpp
; File C:\Program Files (x86)\Microsoft Visual Studio\2019\Community\VC\Tools\MSVC\14.29.30133\atlmfc\include\afxwin1.inl
; File D:\git\src\IBK\IBK_DRFN\ProjSrc\SrcDrfn\Chart\Common_ST\STGfxOutBarCtrl.cpp
; File C:\Program Files (x86)\Microsoft Visual Studio\2019\Community\VC\Tools\MSVC\14.29.30133\atlmfc\include\atlsimpstr.h
; File C:\Program Files (x86)\Microsoft Visual Studio\2019\Community\VC\Tools\MSVC\14.29.30133\atlmfc\include\afxwin1.inl
; File D:\git\src\IBK\IBK_DRFN\ProjSrc\SrcDrfn\Chart\Common_ST\STGfxOutBarCtrl.cpp
; File C:\Program Files (x86)\Microsoft Visual Studio\2019\Community\VC\Tools\MSVC\14.29.30133\atlmfc\include\afxwin1.inl
; File D:\git\src\IBK\IBK_DRFN\ProjSrc\SrcDrfn\Chart\Common_ST\STGfxOutBarCtrl.cpp
; File C:\Program Files (x86)\Microsoft Visual Studio\2019\Community\VC\Tools\MSVC\14.29.30133\atlmfc\include\afxwin1.inl
; File C:\Program Files (x86)\Microsoft Visual Studio\2019\Community\VC\Tools\MSVC\14.29.30133\atlmfc\include\atltypes.h
; File D:\git\src\IBK\IBK_DRFN\ProjSrc\SrcDrfn\Chart\Common_ST\STGfxOutBarCtrl.cpp
; File C:\Program Files (x86)\Microsoft Visual Studio\2019\Community\VC\Tools\MSVC\14.29.30133\atlmfc\include\afxwin1.inl
; File D:\git\src\IBK\IBK_DRFN\ProjSrc\SrcDrfn\Chart\Common_ST\STGfxOutBarCtrl.cpp
; File C:\Program Files (x86)\Microsoft Visual Studio\2019\Community\VC\Tools\MSVC\14.29.30133\atlmfc\include\afxwin1.inl
; File D:\git\src\IBK\IBK_DRFN\ProjSrc\SrcDrfn\Chart\Common_ST\STGfxOutBarCtrl.cpp
; File C:\Program Files (x86)\Microsoft Visual Studio\2019\Community\VC\Tools\MSVC\14.29.30133\atlmfc\include\atltypes.h
; File D:\git\src\IBK\IBK_DRFN\ProjSrc\SrcDrfn\Chart\Common_ST\STGfxOutBarCtrl.cpp
; File C:\Program Files (x86)\Microsoft Visual Studio\2019\Community\VC\Tools\MSVC\14.29.30133\atlmfc\include\atltypes.h
; File D:\git\src\IBK\IBK_DRFN\ProjSrc\SrcDrfn\Chart\Common_ST\STGfxOutBarCtrl.cpp
; File C:\Program Files (x86)\Microsoft Visual Studio\2019\Community\VC\Tools\MSVC\14.29.30133\atlmfc\include\afxcoll.inl
; File D:\git\src\IBK\IBK_DRFN\ProjSrc\SrcDrfn\Chart\Common_ST\STGfxOutBarCtrl.cpp
;	COMDAT ?DrawItem@CSTGfxOutBarCtrl@@QAEXPAVCDC@@HVCRect@@H_N@Z
_TEXT	SEGMENT
_obk$1$ = -96						; size = 4
_index$GSCopy$1$ = -92					; size = 4
_oft$1$ = -88						; size = 4
_ocr$1$ = -84						; size = 4
_ima$1$ = -80						; size = 4
tv894 = -76						; size = 4
tv891 = -76						; size = 4
$T6 = -76						; size = 4
_pi$1$ = -72						; size = 4
$T7 = -65						; size = 1
_ii$8 = -64						; size = 32
_ii$9 = -64						; size = 32
_rc$10 = -32						; size = 16
$T11 = -32						; size = 16
$T12 = -32						; size = 16
__$ArrayPad$ = -16					; size = 4
__$EHRec$ = -12						; size = 12
_pDC$ = 8						; size = 4
_iFolder$ = 12						; size = 4
_rc$ = 16						; size = 16
_index$ = 32						; size = 4
_bOnlyImage$ = 36					; size = 1
?DrawItem@CSTGfxOutBarCtrl@@QAEXPAVCDC@@HVCRect@@H_N@Z PROC ; CSTGfxOutBarCtrl::DrawItem, COMDAT
; _this$ = ecx

; 1780 : {

  00000	55		 push	 ebp
  00001	8b ec		 mov	 ebp, esp
  00003	6a ff		 push	 -1
  00005	68 00 00 00 00	 push	 __ehhandler$?DrawItem@CSTGfxOutBarCtrl@@QAEXPAVCDC@@HVCRect@@H_N@Z
  0000a	64 a1 00 00 00
	00		 mov	 eax, DWORD PTR fs:0
  00010	50		 push	 eax
  00011	83 ec 54	 sub	 esp, 84			; 00000054H
  00014	a1 00 00 00 00	 mov	 eax, DWORD PTR ___security_cookie
  00019	33 c5		 xor	 eax, ebp
  0001b	89 45 f0	 mov	 DWORD PTR __$ArrayPad$[ebp], eax
  0001e	53		 push	 ebx
  0001f	56		 push	 esi
  00020	57		 push	 edi
  00021	50		 push	 eax
  00022	8d 45 f4	 lea	 eax, DWORD PTR __$EHRec$[ebp]
  00025	64 a3 00 00 00
	00		 mov	 DWORD PTR fs:0, eax
  0002b	8b f9		 mov	 edi, ecx

; 215  : 	return dwFlags&fSmallIcon;

  0002d	8a 87 fc 00 00
	00		 mov	 al, BYTE PTR [edi+252]

; 1780 : {

  00033	8b 55 0c	 mov	 edx, DWORD PTR _iFolder$[ebp]

; 215  : 	return dwFlags&fSmallIcon;

  00036	24 01		 and	 al, 1

; 1780 : {

  00038	8b 4d 20	 mov	 ecx, DWORD PTR _index$[ebp]
  0003b	8b 5d 08	 mov	 ebx, DWORD PTR _pDC$[ebp]
  0003e	89 4d a4	 mov	 DWORD PTR _index$GSCopy$1$[ebp], ecx

; 215  : 	return dwFlags&fSmallIcon;

  00041	88 45 bf	 mov	 BYTE PTR $T7[ebp], al
; File C:\Program Files (x86)\Microsoft Visual Studio\2019\Community\VC\Tools\MSVC\14.29.30133\atlmfc\include\afxcoll.inl

; 203  : 		if( nIndex < 0 || nIndex >= m_nSize )

  00044	85 d2		 test	 edx, edx
  00046	0f 88 8c 02 00
	00		 js	 $LN24@DrawItem
  0004c	3b 97 08 01 00
	00		 cmp	 edx, DWORD PTR [edi+264]
  00052	0f 8d 80 02 00
	00		 jge	 $LN24@DrawItem
; File D:\git\src\IBK\IBK_DRFN\ProjSrc\SrcDrfn\Chart\Common_ST\STGfxOutBarCtrl.cpp

; 1772 : 	if (bSmall)

  00058	80 7d bf 00	 cmp	 BYTE PTR $T7[ebp], 0
; File C:\Program Files (x86)\Microsoft Visual Studio\2019\Community\VC\Tools\MSVC\14.29.30133\atlmfc\include\afxcoll.inl

; 205  : 		return m_pData[nIndex]; }

  0005c	8b 87 04 01 00
	00		 mov	 eax, DWORD PTR [edi+260]
  00062	8b 04 90	 mov	 eax, DWORD PTR [eax+edx*4]
; File D:\git\src\IBK\IBK_DRFN\ProjSrc\SrcDrfn\Chart\Common_ST\STGfxOutBarCtrl.cpp

; 1772 : 	if (bSmall)

  00065	74 12		 je	 SHORT $LN18@DrawItem

; 1773 : 	{
; 1774 : 		if (pbf->pSmallImageList) return pbf->pSmallImageList; else return pSmallImageList;

  00067	8b 70 10	 mov	 esi, DWORD PTR [eax+16]
  0006a	89 75 b0	 mov	 DWORD PTR _ima$1$[ebp], esi
  0006d	85 f6		 test	 esi, esi
  0006f	75 1b		 jne	 SHORT $LN20@DrawItem
  00071	8b b7 38 01 00
	00		 mov	 esi, DWORD PTR [edi+312]
  00077	eb 10		 jmp	 SHORT $LN102@DrawItem
$LN18@DrawItem:

; 1775 : 	}
; 1776 : 	if (pbf->pLargeImageList) return pbf->pLargeImageList; else return pLargeImageList;

  00079	8b 70 0c	 mov	 esi, DWORD PTR [eax+12]
  0007c	89 75 b0	 mov	 DWORD PTR _ima$1$[ebp], esi
  0007f	85 f6		 test	 esi, esi
  00081	75 09		 jne	 SHORT $LN20@DrawItem
  00083	8b b7 34 01 00
	00		 mov	 esi, DWORD PTR [edi+308]
$LN102@DrawItem:
; File C:\Program Files (x86)\Microsoft Visual Studio\2019\Community\VC\Tools\MSVC\14.29.30133\atlmfc\include\afxcoll.inl

; 203  : 		if( nIndex < 0 || nIndex >= m_nSize )

  00089	89 75 b0	 mov	 DWORD PTR _ima$1$[ebp], esi
$LN20@DrawItem:
  0008c	85 c9		 test	 ecx, ecx
  0008e	0f 88 44 02 00
	00		 js	 $LN24@DrawItem
  00094	3b 48 1c	 cmp	 ecx, DWORD PTR [eax+28]
  00097	0f 8d 3b 02 00
	00		 jge	 $LN24@DrawItem

; 205  : 		return m_pData[nIndex]; }

  0009d	8b 40 18	 mov	 eax, DWORD PTR [eax+24]
  000a0	8b 04 88	 mov	 eax, DWORD PTR [eax+ecx*4]
  000a3	89 45 b8	 mov	 DWORD PTR _pi$1$[ebp], eax
; File D:\git\src\IBK\IBK_DRFN\ProjSrc\SrcDrfn\Chart\Common_ST\STGfxOutBarCtrl.cpp

; 1793 : 	if(index == iLastSel && iFolder == iSelFolder)

  000a6	3b 8f f0 00 00
	00		 cmp	 ecx, DWORD PTR [edi+240]
  000ac	75 27		 jne	 SHORT $LN99@DrawItem
  000ae	3b 97 30 01 00
	00		 cmp	 edx, DWORD PTR [edi+304]
  000b4	75 1f		 jne	 SHORT $LN99@DrawItem

; 1794 : 	{
; 1795 : //		oft = (CFont *) pDC->SelectObject(CFont::FromHandle((HFONT)GetStockObject(DEFAULT_GUI_FONT)));
; 1796 : 		oft = (CFont *) pDC->SelectObject(&m_Font);

  000b6	8b 13		 mov	 edx, DWORD PTR [ebx]
  000b8	8d 87 4c 01 00
	00		 lea	 eax, DWORD PTR [edi+332]
  000be	50		 push	 eax
  000bf	8b cb		 mov	 ecx, ebx
  000c1	ff 52 30	 call	 DWORD PTR [edx+48]

; 1797 : 		ocr = pDC->SetTextColor(RGB(255, 0, 0));

  000c4	8b 13		 mov	 edx, DWORD PTR [ebx]
  000c6	8b cb		 mov	 ecx, ebx
  000c8	68 ff 00 00 00	 push	 255			; 000000ffH
  000cd	89 45 a8	 mov	 DWORD PTR _oft$1$[ebp], eax
  000d0	ff 52 38	 call	 DWORD PTR [edx+56]

; 1798 : 	}

  000d3	eb 1e		 jmp	 SHORT $LN103@DrawItem
$LN99@DrawItem:

; 1799 : 	else
; 1800 : 	{
; 1801 : //		oft = (CFont *) pDC->SelectObject(CFont::FromHandle((HFONT)GetStockObject(DEFAULT_GUI_FONT)));
; 1802 : 		oft = (CFont *) pDC->SelectObject(&m_Font);

  000d5	8b 13		 mov	 edx, DWORD PTR [ebx]
  000d7	8d 87 4c 01 00
	00		 lea	 eax, DWORD PTR [edi+332]
  000dd	50		 push	 eax
  000de	8b cb		 mov	 ecx, ebx
  000e0	ff 52 30	 call	 DWORD PTR [edx+48]

; 1803 : 		ocr = pDC->SetTextColor(crTextColor);

  000e3	ff b7 88 00 00
	00		 push	 DWORD PTR [edi+136]
  000e9	89 45 a8	 mov	 DWORD PTR _oft$1$[ebp], eax
  000ec	8b cb		 mov	 ecx, ebx
  000ee	8b 03		 mov	 eax, DWORD PTR [ebx]
  000f0	ff 50 38	 call	 DWORD PTR [eax+56]
$LN103@DrawItem:

; 1804 : 	}
; 1805 : 
; 1806 : 	int obk = pDC->SetBkMode(TRANSPARENT);

  000f3	6a 01		 push	 1
  000f5	8b cb		 mov	 ecx, ebx
  000f7	89 45 ac	 mov	 DWORD PTR _ocr$1$[ebp], eax
  000fa	e8 00 00 00 00	 call	 ?SetBkMode@CDC@@QAEHH@Z	; CDC::SetBkMode

; 215  : 	return dwFlags&fSmallIcon;

  000ff	8a 8f fc 00 00
	00		 mov	 cl, BYTE PTR [edi+252]
  00105	80 e1 01	 and	 cl, 1

; 1804 : 	}
; 1805 : 
; 1806 : 	int obk = pDC->SetBkMode(TRANSPARENT);

  00108	89 45 a0	 mov	 DWORD PTR _obk$1$[ebp], eax

; 1809 : 	{
; 1810 : 		if (ima)

  0010b	85 f6		 test	 esi, esi
  0010d	0f 84 30 01 00
	00		 je	 $LN9@DrawItem

; 1807 : 
; 1808 : 	if (IsSmallIconView())

  00113	8d 45 c0	 lea	 eax, DWORD PTR _ii$9[ebp]
  00116	50		 push	 eax
  00117	8b 45 b8	 mov	 eax, DWORD PTR _pi$1$[ebp]
  0011a	ff 70 04	 push	 DWORD PTR [eax+4]
  0011d	ff 76 04	 push	 DWORD PTR [esi+4]
  00120	84 c9		 test	 cl, cl
  00122	0f 84 a0 00 00
	00		 je	 $LN4@DrawItem
; File C:\Program Files (x86)\Microsoft Visual Studio\2019\Community\VC\Tools\MSVC\14.29.30133\atlmfc\include\afxwin1.inl

; 881  : 	{ ASSERT(m_hImageList != NULL); return ImageList_GetImageInfo(m_hImageList, nImage, pImageInfo); }

  00128	ff 15 00 00 00
	00		 call	 DWORD PTR __imp__ImageList_GetImageInfo@12
; File C:\Program Files (x86)\Microsoft Visual Studio\2019\Community\VC\Tools\MSVC\14.29.30133\atlmfc\include\atltypes.h

; 548  : 	::CopyRect(this, &srcRect);

  0012e	8d 45 d0	 lea	 eax, DWORD PTR _ii$9[ebp+16]
  00131	50		 push	 eax
  00132	8d 45 e0	 lea	 eax, DWORD PTR $T12[ebp]
  00135	50		 push	 eax
  00136	ff 15 00 00 00
	00		 call	 DWORD PTR __imp__CopyRect@8

; 586  : 	return CSize(right - left, bottom - top);

  0013c	8b 45 e8	 mov	 eax, DWORD PTR $T12[ebp+8]
  0013f	2b 45 e0	 sub	 eax, DWORD PTR $T12[ebp]
  00142	8b 4d ec	 mov	 ecx, DWORD PTR $T12[ebp+12]
  00145	2b 4d e4	 sub	 ecx, DWORD PTR $T12[ebp+4]
; File D:\git\src\IBK\IBK_DRFN\ProjSrc\SrcDrfn\Chart\Common_ST\STGfxOutBarCtrl.cpp

; 1816 : 			pt.x = rc.left + 2;

  00148	8b 75 10	 mov	 esi, DWORD PTR _rc$[ebp]
; File C:\Program Files (x86)\Microsoft Visual Studio\2019\Community\VC\Tools\MSVC\14.29.30133\atlmfc\include\atltypes.h

; 586  : 	return CSize(right - left, bottom - top);

  0014b	89 45 b4	 mov	 DWORD PTR tv894[ebp], eax
; File D:\git\src\IBK\IBK_DRFN\ProjSrc\SrcDrfn\Chart\Common_ST\STGfxOutBarCtrl.cpp

; 1816 : 			pt.x = rc.left + 2;

  0014e	83 c6 02	 add	 esi, 2

; 1817 : 			pt.y = rc.top + (rc.Height() - szImage.cy) / 2;

  00151	8b 45 1c	 mov	 eax, DWORD PTR _rc$[ebp+12]
  00154	2b c1		 sub	 eax, ecx
  00156	2b 45 14	 sub	 eax, DWORD PTR _rc$[ebp+4]
  00159	99		 cdq
  0015a	2b c2		 sub	 eax, edx
; File C:\Program Files (x86)\Microsoft Visual Studio\2019\Community\VC\Tools\MSVC\14.29.30133\atlmfc\include\afxwin1.inl

; 871  : 	{ ASSERT(m_hImageList != NULL); ASSERT(pDC != NULL); return ImageList_Draw(m_hImageList, nImage, pDC->GetSafeHdc(), pt.x, pt.y, nStyle); }

  0015c	6a 00		 push	 0
; File D:\git\src\IBK\IBK_DRFN\ProjSrc\SrcDrfn\Chart\Common_ST\STGfxOutBarCtrl.cpp

; 1817 : 			pt.y = rc.top + (rc.Height() - szImage.cy) / 2;

  0015e	d1 f8		 sar	 eax, 1
  00160	03 45 14	 add	 eax, DWORD PTR _rc$[ebp+4]
; File C:\Program Files (x86)\Microsoft Visual Studio\2019\Community\VC\Tools\MSVC\14.29.30133\atlmfc\include\afxwin1.inl

; 871  : 	{ ASSERT(m_hImageList != NULL); ASSERT(pDC != NULL); return ImageList_Draw(m_hImageList, nImage, pDC->GetSafeHdc(), pt.x, pt.y, nStyle); }

  00163	50		 push	 eax
  00164	8b 45 b0	 mov	 eax, DWORD PTR _ima$1$[ebp]
  00167	56		 push	 esi
  00168	ff 73 04	 push	 DWORD PTR [ebx+4]
  0016b	8b 75 b8	 mov	 esi, DWORD PTR _pi$1$[ebp]
  0016e	ff 76 04	 push	 DWORD PTR [esi+4]
  00171	ff 70 04	 push	 DWORD PTR [eax+4]
  00174	ff 15 00 00 00
	00		 call	 DWORD PTR __imp__ImageList_Draw@24
; File D:\git\src\IBK\IBK_DRFN\ProjSrc\SrcDrfn\Chart\Common_ST\STGfxOutBarCtrl.cpp

; 1820 : 			if (!bOnlyImage)

  0017a	80 7d 24 00	 cmp	 BYTE PTR _bOnlyImage$[ebp], 0
  0017e	0f 85 bf 00 00
	00		 jne	 $LN9@DrawItem

; 1821 : 			{
; 1822 : 				rc.left += szImage.cx + xSmallIconLabelOffset;

  00184	8b 87 a4 00 00
	00		 mov	 eax, DWORD PTR [edi+164]

; 1823 : 				pDC->TextOut(rc.left, rc.top, CString(pi->cItem));

  0018a	8d 4d b4	 lea	 ecx, DWORD PTR $T6[ebp]
  0018d	03 45 b4	 add	 eax, DWORD PTR tv894[ebp]
  00190	01 45 10	 add	 DWORD PTR _rc$[ebp], eax
  00193	ff 76 08	 push	 DWORD PTR [esi+8]
  00196	ff 15 00 00 00
	00		 call	 DWORD PTR __imp_??0?$CStringT@DV?$StrTraitMFC_DLL@DV?$ChTraitsCRT@D@ATL@@@@@ATL@@QAE@PBD@Z
; File C:\Program Files (x86)\Microsoft Visual Studio\2019\Community\VC\Tools\MSVC\14.29.30133\atlmfc\include\atlsimpstr.h

; 519  : 		return( GetData()->nDataLength );

  0019c	8b 00		 mov	 eax, DWORD PTR [eax]
; File C:\Program Files (x86)\Microsoft Visual Studio\2019\Community\VC\Tools\MSVC\14.29.30133\atlmfc\include\afxwin1.inl

; 574  : 	{ ASSERT(m_hDC != NULL); return TextOut(x, y, (LPCTSTR)str, (int)str.GetLength()); } // call virtual

  0019e	8b cb		 mov	 ecx, ebx
  001a0	8b 13		 mov	 edx, DWORD PTR [ebx]
; File D:\git\src\IBK\IBK_DRFN\ProjSrc\SrcDrfn\Chart\Common_ST\STGfxOutBarCtrl.cpp

; 1823 : 				pDC->TextOut(rc.left, rc.top, CString(pi->cItem));

  001a2	c7 45 fc 00 00
	00 00		 mov	 DWORD PTR __$EHRec$[ebp+8], 0
; File C:\Program Files (x86)\Microsoft Visual Studio\2019\Community\VC\Tools\MSVC\14.29.30133\atlmfc\include\afxwin1.inl

; 574  : 	{ ASSERT(m_hDC != NULL); return TextOut(x, y, (LPCTSTR)str, (int)str.GetLength()); } // call virtual

  001a9	ff 70 f4	 push	 DWORD PTR [eax-12]
  001ac	50		 push	 eax
  001ad	ff 75 14	 push	 DWORD PTR _rc$[ebp+4]
  001b0	ff 75 10	 push	 DWORD PTR _rc$[ebp]
  001b3	ff 52 64	 call	 DWORD PTR [edx+100]
; File D:\git\src\IBK\IBK_DRFN\ProjSrc\SrcDrfn\Chart\Common_ST\STGfxOutBarCtrl.cpp

; 1823 : 				pDC->TextOut(rc.left, rc.top, CString(pi->cItem));

  001b6	8d 4d b4	 lea	 ecx, DWORD PTR $T6[ebp]
  001b9	c7 45 fc ff ff
	ff ff		 mov	 DWORD PTR __$EHRec$[ebp+8], -1
  001c0	ff 15 00 00 00
	00		 call	 DWORD PTR __imp_??1?$CStringT@DV?$StrTraitMFC_DLL@DV?$ChTraitsCRT@D@ATL@@@@@ATL@@QAE@XZ

; 1824 : 			}
; 1825 : 			
; 1826 : 		}
; 1827 : 	}

  001c6	eb 7b		 jmp	 SHORT $LN9@DrawItem
$LN4@DrawItem:
; File C:\Program Files (x86)\Microsoft Visual Studio\2019\Community\VC\Tools\MSVC\14.29.30133\atlmfc\include\afxwin1.inl

; 881  : 	{ ASSERT(m_hImageList != NULL); return ImageList_GetImageInfo(m_hImageList, nImage, pImageInfo); }

  001c8	ff 15 00 00 00
	00		 call	 DWORD PTR __imp__ImageList_GetImageInfo@12
; File C:\Program Files (x86)\Microsoft Visual Studio\2019\Community\VC\Tools\MSVC\14.29.30133\atlmfc\include\atltypes.h

; 548  : 	::CopyRect(this, &srcRect);

  001ce	8d 45 d0	 lea	 eax, DWORD PTR _ii$8[ebp+16]
  001d1	50		 push	 eax
  001d2	8d 45 e0	 lea	 eax, DWORD PTR $T11[ebp]
  001d5	50		 push	 eax
  001d6	ff 15 00 00 00
	00		 call	 DWORD PTR __imp__CopyRect@8

; 586  : 	return CSize(right - left, bottom - top);

  001dc	8b 45 ec	 mov	 eax, DWORD PTR $T11[ebp+12]
  001df	2b 45 e4	 sub	 eax, DWORD PTR $T11[ebp+4]
  001e2	89 45 b4	 mov	 DWORD PTR tv891[ebp], eax
; File D:\git\src\IBK\IBK_DRFN\ProjSrc\SrcDrfn\Chart\Common_ST\STGfxOutBarCtrl.cpp

; 1836 : 			pt.x = rc.left + (rc.Width() - szImage.cx) / 2;

  001e5	8b 45 18	 mov	 eax, DWORD PTR _rc$[ebp+8]
  001e8	2b 45 e8	 sub	 eax, DWORD PTR $T11[ebp+8]
  001eb	2b 45 10	 sub	 eax, DWORD PTR _rc$[ebp]
  001ee	03 45 e0	 add	 eax, DWORD PTR $T11[ebp]
  001f1	99		 cdq
; File C:\Program Files (x86)\Microsoft Visual Studio\2019\Community\VC\Tools\MSVC\14.29.30133\atlmfc\include\afxwin1.inl

; 871  : 	{ ASSERT(m_hImageList != NULL); ASSERT(pDC != NULL); return ImageList_Draw(m_hImageList, nImage, pDC->GetSafeHdc(), pt.x, pt.y, nStyle); }

  001f2	6a 00		 push	 0
  001f4	ff 75 14	 push	 DWORD PTR _rc$[ebp+4]
; File D:\git\src\IBK\IBK_DRFN\ProjSrc\SrcDrfn\Chart\Common_ST\STGfxOutBarCtrl.cpp

; 1836 : 			pt.x = rc.left + (rc.Width() - szImage.cx) / 2;

  001f7	2b c2		 sub	 eax, edx
  001f9	d1 f8		 sar	 eax, 1
  001fb	03 45 10	 add	 eax, DWORD PTR _rc$[ebp]
; File C:\Program Files (x86)\Microsoft Visual Studio\2019\Community\VC\Tools\MSVC\14.29.30133\atlmfc\include\afxwin1.inl

; 871  : 	{ ASSERT(m_hImageList != NULL); ASSERT(pDC != NULL); return ImageList_Draw(m_hImageList, nImage, pDC->GetSafeHdc(), pt.x, pt.y, nStyle); }

  001fe	50		 push	 eax
  001ff	8b 45 b8	 mov	 eax, DWORD PTR _pi$1$[ebp]
  00202	ff 73 04	 push	 DWORD PTR [ebx+4]
  00205	ff 70 04	 push	 DWORD PTR [eax+4]
  00208	ff 76 04	 push	 DWORD PTR [esi+4]
  0020b	ff 15 00 00 00
	00		 call	 DWORD PTR __imp__ImageList_Draw@24
; File D:\git\src\IBK\IBK_DRFN\ProjSrc\SrcDrfn\Chart\Common_ST\STGfxOutBarCtrl.cpp

; 1839 : 			if (!bOnlyImage)

  00211	80 7d 24 00	 cmp	 BYTE PTR _bOnlyImage$[ebp], 0
  00215	75 2c		 jne	 SHORT $LN9@DrawItem

; 1840 : 			{
; 1841 : 				rc.top += szImage.cy + yLargeIconLabelOffset;

  00217	8b 87 a8 00 00
	00		 mov	 eax, DWORD PTR [edi+168]
  0021d	03 45 b4	 add	 eax, DWORD PTR tv891[ebp]
  00220	01 45 14	 add	 DWORD PTR _rc$[ebp+4], eax

; 1842 : 				pDC->DrawText(pi->cItem, lstrlen(pi->cItem), rc, DT_CENTER|DT_WORDBREAK);

  00223	8d 45 10	 lea	 eax, DWORD PTR _rc$[ebp]
  00226	8b 33		 mov	 esi, DWORD PTR [ebx]
  00228	6a 11		 push	 17			; 00000011H
  0022a	50		 push	 eax
  0022b	8b 45 b8	 mov	 eax, DWORD PTR _pi$1$[ebp]
  0022e	ff 70 08	 push	 DWORD PTR [eax+8]
  00231	ff 15 00 00 00
	00		 call	 DWORD PTR __imp__lstrlenA@4
  00237	50		 push	 eax
  00238	8b 45 b8	 mov	 eax, DWORD PTR _pi$1$[ebp]
  0023b	8b cb		 mov	 ecx, ebx
  0023d	ff 70 08	 push	 DWORD PTR [eax+8]
  00240	ff 56 70	 call	 DWORD PTR [esi+112]
$LN9@DrawItem:

; 1843 : 			}
; 1844 : 		}
; 1845 : 	}
; 1846 : 	
; 1847 : 	if (dwFlags&fSelHighlight && iLastSel == index && iLastSel >= 0)

  00243	f7 87 fc 00 00
	00 00 02 00 00	 test	 DWORD PTR [edi+252], 512 ; 00000200H
  0024d	74 4d		 je	 SHORT $LN10@DrawItem
  0024f	8b 87 f0 00 00
	00		 mov	 eax, DWORD PTR [edi+240]
  00255	3b 45 a4	 cmp	 eax, DWORD PTR _index$GSCopy$1$[ebp]
  00258	75 42		 jne	 SHORT $LN10@DrawItem
  0025a	85 c0		 test	 eax, eax
  0025c	78 3e		 js	 SHORT $LN10@DrawItem

; 1850 : 		GetIconRect(iSelFolder, iLastSel, rc);

  0025e	8d 4d e0	 lea	 ecx, DWORD PTR _rc$10[ebp]
  00261	0f 57 c0	 xorps	 xmm0, xmm0
  00264	51		 push	 ecx
  00265	50		 push	 eax
  00266	ff b7 30 01 00
	00		 push	 DWORD PTR [edi+304]
  0026c	8b cf		 mov	 ecx, edi
; File C:\Program Files (x86)\Microsoft Visual Studio\2019\Community\VC\Tools\MSVC\14.29.30133\atlmfc\include\atltypes.h

; 528  : 	left = 0;

  0026e	0f 11 45 e0	 movups	 XMMWORD PTR _rc$10[ebp], xmm0
; File D:\git\src\IBK\IBK_DRFN\ProjSrc\SrcDrfn\Chart\Common_ST\STGfxOutBarCtrl.cpp

; 1850 : 		GetIconRect(iSelFolder, iLastSel, rc);

  00272	e8 00 00 00 00	 call	 ?GetIconRect@CSTGfxOutBarCtrl@@QAEXHHAAVCRect@@@Z ; CSTGfxOutBarCtrl::GetIconRect
; File C:\Program Files (x86)\Microsoft Visual Studio\2019\Community\VC\Tools\MSVC\14.29.30133\atlmfc\include\atltypes.h

; 686  : 	::InflateRect(this, x, y);

  00277	6a 01		 push	 1
  00279	6a 01		 push	 1
  0027b	8d 45 e0	 lea	 eax, DWORD PTR _rc$10[ebp]
  0027e	50		 push	 eax
  0027f	ff 15 00 00 00
	00		 call	 DWORD PTR __imp__InflateRect@12
; File D:\git\src\IBK\IBK_DRFN\ProjSrc\SrcDrfn\Chart\Common_ST\STGfxOutBarCtrl.cpp

; 1852 : 		pDC->Draw3dRect(rc, crDkShadowBorder, cr3dFace);

  00285	ff b7 8c 00 00
	00		 push	 DWORD PTR [edi+140]
  0028b	8d 45 e0	 lea	 eax, DWORD PTR _rc$10[ebp]
  0028e	8b cb		 mov	 ecx, ebx
  00290	ff b7 9c 00 00
	00		 push	 DWORD PTR [edi+156]
  00296	50		 push	 eax
  00297	e8 00 00 00 00	 call	 ?Draw3dRect@CDC@@QAEXPBUtagRECT@@KK@Z ; CDC::Draw3dRect
$LN10@DrawItem:

; 1853 : 	}
; 1854 : 
; 1855 : 	pDC->SetTextColor(ocr);

  0029c	8b 03		 mov	 eax, DWORD PTR [ebx]
  0029e	8b cb		 mov	 ecx, ebx
  002a0	ff 75 ac	 push	 DWORD PTR _ocr$1$[ebp]
  002a3	ff 50 38	 call	 DWORD PTR [eax+56]

; 1856 : 	pDC->SelectObject(oft);

  002a6	8b 03		 mov	 eax, DWORD PTR [ebx]
  002a8	8b cb		 mov	 ecx, ebx
  002aa	ff 75 a8	 push	 DWORD PTR _oft$1$[ebp]
  002ad	ff 50 30	 call	 DWORD PTR [eax+48]

; 1857 : 	pDC->SetBkMode(obk);

  002b0	ff 75 a0	 push	 DWORD PTR _obk$1$[ebp]
  002b3	8b cb		 mov	 ecx, ebx
  002b5	e8 00 00 00 00	 call	 ?SetBkMode@CDC@@QAEHH@Z	; CDC::SetBkMode

; 1859 : }

  002ba	8b 4d f4	 mov	 ecx, DWORD PTR __$EHRec$[ebp]
  002bd	64 89 0d 00 00
	00 00		 mov	 DWORD PTR fs:0, ecx
  002c4	59		 pop	 ecx
  002c5	5f		 pop	 edi
  002c6	5e		 pop	 esi
  002c7	5b		 pop	 ebx
  002c8	8b 4d f0	 mov	 ecx, DWORD PTR __$ArrayPad$[ebp]
  002cb	33 cd		 xor	 ecx, ebp
  002cd	e8 00 00 00 00	 call	 @__security_check_cookie@4
  002d2	8b e5		 mov	 esp, ebp
  002d4	5d		 pop	 ebp
  002d5	c2 20 00	 ret	 32			; 00000020H
$LN24@DrawItem:
; File C:\Program Files (x86)\Microsoft Visual Studio\2019\Community\VC\Tools\MSVC\14.29.30133\atlmfc\include\afxcoll.inl

; 204  : 			AfxThrowInvalidArgException();

  002d8	e8 00 00 00 00	 call	 ?AfxThrowInvalidArgException@@YGXXZ ; AfxThrowInvalidArgException
$LN101@DrawItem:
  002dd	cc		 int	 3
_TEXT	ENDS
;	COMDAT text$x
text$x	SEGMENT
__unwindfunclet$?DrawItem@CSTGfxOutBarCtrl@@QAEXPAVCDC@@HVCRect@@H_N@Z$0:
  00000	8d 4d b4	 lea	 ecx, DWORD PTR $T6[ebp]
  00003	ff 25 00 00 00
	00		 jmp	 DWORD PTR __imp_??1?$CStringT@DV?$StrTraitMFC_DLL@DV?$ChTraitsCRT@D@ATL@@@@@ATL@@QAE@XZ
  00009	cc		 int	 3
  0000a	cc		 int	 3
  0000b	cc		 int	 3
  0000c	cc		 int	 3
  0000d	cc		 int	 3
__ehhandler$?DrawItem@CSTGfxOutBarCtrl@@QAEXPAVCDC@@HVCRect@@H_N@Z:
  0000e	90		 npad	 1
  0000f	90		 npad	 1
  00010	8b 54 24 08	 mov	 edx, DWORD PTR [esp+8]
  00014	8d 42 0c	 lea	 eax, DWORD PTR [edx+12]
  00017	8b 4a 9c	 mov	 ecx, DWORD PTR [edx-100]
  0001a	33 c8		 xor	 ecx, eax
  0001c	e8 00 00 00 00	 call	 @__security_check_cookie@4
  00021	8b 4a fc	 mov	 ecx, DWORD PTR [edx-4]
  00024	33 c8		 xor	 ecx, eax
  00026	e8 00 00 00 00	 call	 @__security_check_cookie@4
  0002b	b8 00 00 00 00	 mov	 eax, OFFSET __ehfuncinfo$?DrawItem@CSTGfxOutBarCtrl@@QAEXPAVCDC@@HVCRect@@H_N@Z
  00030	e9 00 00 00 00	 jmp	 ___CxxFrameHandler3
text$x	ENDS
?DrawItem@CSTGfxOutBarCtrl@@QAEXPAVCDC@@HVCRect@@H_N@Z ENDP ; CSTGfxOutBarCtrl::DrawItem
; Function compile flags: /Ogtp
; File D:\git\src\IBK\IBK_DRFN\ProjSrc\SrcDrfn\Chart\Common_ST\STGfxOutBarCtrl.cpp
; File C:\Program Files (x86)\Microsoft Visual Studio\2019\Community\VC\Tools\MSVC\14.29.30133\atlmfc\include\atltypes.h
; File D:\git\src\IBK\IBK_DRFN\ProjSrc\SrcDrfn\Chart\Common_ST\STGfxOutBarCtrl.cpp
; File C:\Program Files (x86)\Microsoft Visual Studio\2019\Community\VC\Tools\MSVC\14.29.30133\atlmfc\include\afxcoll.inl
; File D:\git\src\IBK\IBK_DRFN\ProjSrc\SrcDrfn\Chart\Common_ST\STGfxOutBarCtrl.cpp
; File C:\Program Files (x86)\Microsoft Visual Studio\2019\Community\VC\Tools\MSVC\14.29.30133\atlmfc\include\afxcoll.inl
; File D:\git\src\IBK\IBK_DRFN\ProjSrc\SrcDrfn\Chart\Common_ST\STGfxOutBarCtrl.cpp
; File C:\Program Files (x86)\Microsoft Visual Studio\2019\Community\VC\Tools\MSVC\14.29.30133\atlmfc\include\afxcoll.inl
; File D:\git\src\IBK\IBK_DRFN\ProjSrc\SrcDrfn\Chart\Common_ST\STGfxOutBarCtrl.cpp
; File C:\Program Files (x86)\Microsoft Visual Studio\2019\Community\VC\Tools\MSVC\14.29.30133\atlmfc\include\atltypes.h
; File D:\git\src\IBK\IBK_DRFN\ProjSrc\SrcDrfn\Chart\Common_ST\STGfxOutBarCtrl.cpp
;	COMDAT ?GetVisibleRange@CSTGfxOutBarCtrl@@QAEXHAAH0@Z
_TEXT	SEGMENT
_max$1$ = -48						; size = 4
_last$GSCopy$1$ = -44					; size = 4
_this$GSCopy$1$ = -40					; size = 4
_rc$ = -36						; size = 16
_itemRc$1 = -20						; size = 16
__$ArrayPad$ = -4					; size = 4
_iFolder$ = 8						; size = 4
_first$ = 12						; size = 4
_last$ = 16						; size = 4
?GetVisibleRange@CSTGfxOutBarCtrl@@QAEXHAAH0@Z PROC	; CSTGfxOutBarCtrl::GetVisibleRange, COMDAT
; _this$ = ecx

; 1877 : {

  00000	55		 push	 ebp
  00001	8b ec		 mov	 ebp, esp
  00003	83 ec 30	 sub	 esp, 48			; 00000030H
  00006	a1 00 00 00 00	 mov	 eax, DWORD PTR ___security_cookie
  0000b	33 c5		 xor	 eax, ebp
  0000d	89 45 fc	 mov	 DWORD PTR __$ArrayPad$[ebp], eax
  00010	8b 55 0c	 mov	 edx, DWORD PTR _first$[ebp]
  00013	0f 57 c0	 xorps	 xmm0, xmm0
  00016	8b 45 10	 mov	 eax, DWORD PTR _last$[ebp]
  00019	89 45 d4	 mov	 DWORD PTR _last$GSCopy$1$[ebp], eax

; 1878 : 	first = iFirstItem;

  0001c	8b 81 1c 01 00
	00		 mov	 eax, DWORD PTR [ecx+284]
  00022	57		 push	 edi
  00023	8b 7d 08	 mov	 edi, DWORD PTR _iFolder$[ebp]
  00026	89 02		 mov	 DWORD PTR [edx], eax

; 1880 : 	GetInsideRect(rc);

  00028	8d 45 dc	 lea	 eax, DWORD PTR _rc$[ebp]
  0002b	50		 push	 eax
  0002c	89 4d d8	 mov	 DWORD PTR _this$GSCopy$1$[ebp], ecx
; File C:\Program Files (x86)\Microsoft Visual Studio\2019\Community\VC\Tools\MSVC\14.29.30133\atlmfc\include\atltypes.h

; 528  : 	left = 0;

  0002f	0f 11 45 dc	 movups	 XMMWORD PTR _rc$[ebp], xmm0
; File D:\git\src\IBK\IBK_DRFN\ProjSrc\SrcDrfn\Chart\Common_ST\STGfxOutBarCtrl.cpp

; 1880 : 	GetInsideRect(rc);

  00033	e8 00 00 00 00	 call	 ?GetInsideRect@CSTGfxOutBarCtrl@@QBEXAAVCRect@@@Z ; CSTGfxOutBarCtrl::GetInsideRect

; 1881 : 
; 1882 : 	if(arFolder.GetSize()==0) return;

  00038	8b 4d d8	 mov	 ecx, DWORD PTR _this$GSCopy$1$[ebp]
  0003b	8b 81 08 01 00
	00		 mov	 eax, DWORD PTR [ecx+264]
  00041	85 c0		 test	 eax, eax
  00043	74 56		 je	 SHORT $LN3@GetVisible
; File C:\Program Files (x86)\Microsoft Visual Studio\2019\Community\VC\Tools\MSVC\14.29.30133\atlmfc\include\afxcoll.inl

; 203  : 		if( nIndex < 0 || nIndex >= m_nSize )

  00045	85 ff		 test	 edi, edi
  00047	78 79		 js	 SHORT $LN18@GetVisible
  00049	3b f8		 cmp	 edi, eax
  0004b	7d 75		 jge	 SHORT $LN18@GetVisible

; 205  : 		return m_pData[nIndex]; }

  0004d	8b 81 04 01 00
	00		 mov	 eax, DWORD PTR [ecx+260]
  00053	53		 push	 ebx
  00054	56		 push	 esi
; File D:\git\src\IBK\IBK_DRFN\ProjSrc\SrcDrfn\Chart\Common_ST\STGfxOutBarCtrl.cpp

; 1886 : 	for (t = iFirstItem; t < max; t++)

  00055	8b b1 1c 01 00
	00		 mov	 esi, DWORD PTR [ecx+284]
; File C:\Program Files (x86)\Microsoft Visual Studio\2019\Community\VC\Tools\MSVC\14.29.30133\atlmfc\include\afxcoll.inl

; 205  : 		return m_pData[nIndex]; }

  0005b	8b 1c b8	 mov	 ebx, DWORD PTR [eax+edi*4]
; File D:\git\src\IBK\IBK_DRFN\ProjSrc\SrcDrfn\Chart\Common_ST\STGfxOutBarCtrl.cpp

; 1885 : 	int max = pbf->GetItemCount(), t;

  0005e	8b 43 1c	 mov	 eax, DWORD PTR [ebx+28]
  00061	89 45 d0	 mov	 DWORD PTR _max$1$[ebp], eax

; 1886 : 	for (t = iFirstItem; t < max; t++)

  00064	3b f0		 cmp	 esi, eax
  00066	7d 31		 jge	 SHORT $LN28@GetVisible
$LL4@GetVisible:
; File C:\Program Files (x86)\Microsoft Visual Studio\2019\Community\VC\Tools\MSVC\14.29.30133\atlmfc\include\afxcoll.inl

; 203  : 		if( nIndex < 0 || nIndex >= m_nSize )

  00068	85 f6		 test	 esi, esi
  0006a	78 56		 js	 SHORT $LN18@GetVisible
  0006c	3b 73 1c	 cmp	 esi, DWORD PTR [ebx+28]
  0006f	7d 51		 jge	 SHORT $LN18@GetVisible
; File D:\git\src\IBK\IBK_DRFN\ProjSrc\SrcDrfn\Chart\Common_ST\STGfxOutBarCtrl.cpp

; 1890 : 		GetItemRect(iFolder, t, itemRc);

  00071	8d 45 ec	 lea	 eax, DWORD PTR _itemRc$1[ebp]
  00074	0f 57 c0	 xorps	 xmm0, xmm0
  00077	50		 push	 eax
  00078	56		 push	 esi
  00079	57		 push	 edi
; File C:\Program Files (x86)\Microsoft Visual Studio\2019\Community\VC\Tools\MSVC\14.29.30133\atlmfc\include\atltypes.h

; 528  : 	left = 0;

  0007a	0f 11 45 ec	 movups	 XMMWORD PTR _itemRc$1[ebp], xmm0
; File D:\git\src\IBK\IBK_DRFN\ProjSrc\SrcDrfn\Chart\Common_ST\STGfxOutBarCtrl.cpp

; 1890 : 		GetItemRect(iFolder, t, itemRc);

  0007e	e8 00 00 00 00	 call	 ?GetItemRect@CSTGfxOutBarCtrl@@QAEXHHAAVCRect@@@Z ; CSTGfxOutBarCtrl::GetItemRect

; 1891 : 		if (itemRc.bottom > rc.bottom) 

  00083	8b 45 f8	 mov	 eax, DWORD PTR _itemRc$1[ebp+12]
  00086	3b 45 e8	 cmp	 eax, DWORD PTR _rc$[ebp+12]
  00089	8b 45 d4	 mov	 eax, DWORD PTR _last$GSCopy$1$[ebp]
  0008c	7f 1e		 jg	 SHORT $LN24@GetVisible

; 1892 : 		{
; 1893 : 			last = t - 1;
; 1894 : 			break;
; 1895 : 		}
; 1896 : 		else last = t;

  0008e	8b 4d d8	 mov	 ecx, DWORD PTR _this$GSCopy$1$[ebp]
  00091	89 30		 mov	 DWORD PTR [eax], esi
  00093	46		 inc	 esi
  00094	3b 75 d0	 cmp	 esi, DWORD PTR _max$1$[ebp]
  00097	7c cf		 jl	 SHORT $LL4@GetVisible
$LN28@GetVisible:
  00099	5e		 pop	 esi
  0009a	5b		 pop	 ebx
$LN3@GetVisible:
  0009b	5f		 pop	 edi

; 1897 : 	}
; 1898 : }

  0009c	8b 4d fc	 mov	 ecx, DWORD PTR __$ArrayPad$[ebp]
  0009f	33 cd		 xor	 ecx, ebp
  000a1	e8 00 00 00 00	 call	 @__security_check_cookie@4
  000a6	8b e5		 mov	 esp, ebp
  000a8	5d		 pop	 ebp
  000a9	c2 0c 00	 ret	 12			; 0000000cH
$LN24@GetVisible:
  000ac	8b 4d fc	 mov	 ecx, DWORD PTR __$ArrayPad$[ebp]
  000af	4e		 dec	 esi
  000b0	89 30		 mov	 DWORD PTR [eax], esi
  000b2	33 cd		 xor	 ecx, ebp
  000b4	5e		 pop	 esi
  000b5	5b		 pop	 ebx
  000b6	5f		 pop	 edi
  000b7	e8 00 00 00 00	 call	 @__security_check_cookie@4
  000bc	8b e5		 mov	 esp, ebp
  000be	5d		 pop	 ebp
  000bf	c2 0c 00	 ret	 12			; 0000000cH
$LN18@GetVisible:
  000c2	e8 00 00 00 00	 call	 ?AfxThrowInvalidArgException@@YGXXZ ; AfxThrowInvalidArgException
$LN30@GetVisible:
  000c7	cc		 int	 3
?GetVisibleRange@CSTGfxOutBarCtrl@@QAEXHAAH0@Z ENDP	; CSTGfxOutBarCtrl::GetVisibleRange
_TEXT	ENDS
; Function compile flags: /Ogtp
; File D:\git\src\IBK\IBK_DRFN\ProjSrc\SrcDrfn\Chart\Common_ST\STGfxOutBarCtrl.cpp
; File C:\Program Files (x86)\Microsoft Visual Studio\2019\Community\VC\Tools\MSVC\14.29.30133\atlmfc\include\afxwin2.inl
; File D:\git\src\IBK\IBK_DRFN\ProjSrc\SrcDrfn\Chart\Common_ST\STGfxOutBarCtrl.cpp
; File C:\Program Files (x86)\Microsoft Visual Studio\2019\Community\VC\Tools\MSVC\14.29.30133\atlmfc\include\afxwin2.inl
; File D:\git\src\IBK\IBK_DRFN\ProjSrc\SrcDrfn\Chart\Common_ST\STGfxOutBarCtrl.cpp
; File C:\Program Files (x86)\Microsoft Visual Studio\2019\Community\VC\Tools\MSVC\14.29.30133\atlmfc\include\atltypes.h
; File D:\git\src\IBK\IBK_DRFN\ProjSrc\SrcDrfn\Chart\Common_ST\STGfxOutBarCtrl.cpp
; File C:\Program Files (x86)\Microsoft Visual Studio\2019\Community\VC\Tools\MSVC\14.29.30133\atlmfc\include\afxwin1.inl
; File D:\git\src\IBK\IBK_DRFN\ProjSrc\SrcDrfn\Chart\Common_ST\STGfxOutBarCtrl.cpp
; File C:\Program Files (x86)\Microsoft Visual Studio\2019\Community\VC\Tools\MSVC\14.29.30133\atlmfc\include\afxwin1.inl
; File D:\git\src\IBK\IBK_DRFN\ProjSrc\SrcDrfn\Chart\Common_ST\STGfxOutBarCtrl.cpp
; File C:\Program Files (x86)\Microsoft Visual Studio\2019\Community\VC\Tools\MSVC\14.29.30133\atlmfc\include\afxcoll.inl
; File D:\git\src\IBK\IBK_DRFN\ProjSrc\SrcDrfn\Chart\Common_ST\STGfxOutBarCtrl.cpp
; File C:\Program Files (x86)\Microsoft Visual Studio\2019\Community\VC\Tools\MSVC\14.29.30133\atlmfc\include\atltypes.h
; File D:\git\src\IBK\IBK_DRFN\ProjSrc\SrcDrfn\Chart\Common_ST\STGfxOutBarCtrl.cpp
; File C:\Program Files (x86)\Microsoft Visual Studio\2019\Community\VC\Tools\MSVC\14.29.30133\atlmfc\include\atltypes.h
; File D:\git\src\IBK\IBK_DRFN\ProjSrc\SrcDrfn\Chart\Common_ST\STGfxOutBarCtrl.cpp
; File C:\Program Files (x86)\Microsoft Visual Studio\2019\Community\VC\Tools\MSVC\14.29.30133\atlmfc\include\afxcoll.inl
; File D:\git\src\IBK\IBK_DRFN\ProjSrc\SrcDrfn\Chart\Common_ST\STGfxOutBarCtrl.cpp
; File C:\Program Files (x86)\Microsoft Visual Studio\2019\Community\VC\Tools\MSVC\14.29.30133\atlmfc\include\atltypes.h
; File D:\git\src\IBK\IBK_DRFN\ProjSrc\SrcDrfn\Chart\Common_ST\STGfxOutBarCtrl.cpp
; File C:\Program Files (x86)\Microsoft Visual Studio\2019\Community\VC\Tools\MSVC\14.29.30133\atlmfc\include\atltypes.h
; File D:\git\src\IBK\IBK_DRFN\ProjSrc\SrcDrfn\Chart\Common_ST\STGfxOutBarCtrl.cpp
; File C:\Program Files (x86)\Microsoft Visual Studio\2019\Community\VC\Tools\MSVC\14.29.30133\atlmfc\include\afxwin1.inl
; File D:\git\src\IBK\IBK_DRFN\ProjSrc\SrcDrfn\Chart\Common_ST\STGfxOutBarCtrl.cpp
; File C:\Program Files (x86)\Microsoft Visual Studio\2019\Community\VC\Tools\MSVC\14.29.30133\atlmfc\include\afxcoll.inl
; File D:\git\src\IBK\IBK_DRFN\ProjSrc\SrcDrfn\Chart\Common_ST\STGfxOutBarCtrl.cpp
;	COMDAT ?HighlightItem@CSTGfxOutBarCtrl@@QAEXH_N@Z
_TEXT	SEGMENT
_dc$ = -80						; size = 20
_isdc$1$ = -60						; size = 4
_itemRegion$ = -56					; size = 8
_irc$ = -48						; size = 16
_rc$2 = -32						; size = 16
_rc$3 = -32						; size = 16
__$ArrayPad$ = -16					; size = 4
__$EHRec$ = -12						; size = 12
_index$ = 8						; size = 4
_bPressed$ = 12						; size = 1
?HighlightItem@CSTGfxOutBarCtrl@@QAEXH_N@Z PROC		; CSTGfxOutBarCtrl::HighlightItem, COMDAT
; _this$ = ecx

; 1919 : {

  00000	55		 push	 ebp
  00001	8b ec		 mov	 ebp, esp
  00003	6a ff		 push	 -1
  00005	68 00 00 00 00	 push	 __ehhandler$?HighlightItem@CSTGfxOutBarCtrl@@QAEXH_N@Z
  0000a	64 a1 00 00 00
	00		 mov	 eax, DWORD PTR fs:0
  00010	50		 push	 eax
  00011	83 ec 44	 sub	 esp, 68			; 00000044H
  00014	a1 00 00 00 00	 mov	 eax, DWORD PTR ___security_cookie
  00019	33 c5		 xor	 eax, ebp
  0001b	89 45 f0	 mov	 DWORD PTR __$ArrayPad$[ebp], eax
  0001e	53		 push	 ebx
  0001f	56		 push	 esi
  00020	57		 push	 edi
  00021	50		 push	 eax
  00022	8d 45 f4	 lea	 eax, DWORD PTR __$EHRec$[ebp]
  00025	64 a3 00 00 00
	00		 mov	 DWORD PTR fs:0, eax
  0002b	8b f1		 mov	 esi, ecx
; File C:\Program Files (x86)\Microsoft Visual Studio\2019\Community\VC\Tools\MSVC\14.29.30133\atlmfc\include\afxwin2.inl

; 165  : 	{ return CWnd::FromHandle(::GetFocus()); }

  0002d	ff 15 00 00 00
	00		 call	 DWORD PTR __imp__GetFocus@0
  00033	50		 push	 eax
  00034	e8 00 00 00 00	 call	 ?FromHandle@CWnd@@SGPAV1@PAUHWND__@@@Z ; CWnd::FromHandle
; File D:\git\src\IBK\IBK_DRFN\ProjSrc\SrcDrfn\Chart\Common_ST\STGfxOutBarCtrl.cpp

; 1921 : 	if (pf != NULL && pf != this && IsChild(pf)) return;

  00039	85 c0		 test	 eax, eax
  0003b	74 18		 je	 SHORT $LN2@HighlightI
  0003d	3b c6		 cmp	 eax, esi
  0003f	74 14		 je	 SHORT $LN2@HighlightI
; File C:\Program Files (x86)\Microsoft Visual Studio\2019\Community\VC\Tools\MSVC\14.29.30133\atlmfc\include\afxwin2.inl

; 211  : 	{ ASSERT(::IsWindow(m_hWnd)); return ::IsChild(m_hWnd, pWnd->GetSafeHwnd()); }

  00041	ff 70 20	 push	 DWORD PTR [eax+32]
  00044	ff 76 20	 push	 DWORD PTR [esi+32]
  00047	ff 15 00 00 00
	00		 call	 DWORD PTR __imp__IsChild@8
; File D:\git\src\IBK\IBK_DRFN\ProjSrc\SrcDrfn\Chart\Common_ST\STGfxOutBarCtrl.cpp

; 1921 : 	if (pf != NULL && pf != this && IsChild(pf)) return;

  0004d	85 c0		 test	 eax, eax
  0004f	0f 85 c0 01 00
	00		 jne	 $LN1@HighlightI
$LN2@HighlightI:

; 1922 : 
; 1923 : 	static bool bOldPressed = false;
; 1924 : 	if (iLastItemHighlighted == index && bOldPressed == bPressed) return;

  00055	8b 7d 08	 mov	 edi, DWORD PTR _index$[ebp]
  00058	8a 5d 0c	 mov	 bl, BYTE PTR _bPressed$[ebp]
  0005b	39 be 20 01 00
	00		 cmp	 DWORD PTR [esi+288], edi
  00061	75 0c		 jne	 SHORT $LN3@HighlightI
  00063	38 1d 00 00 00
	00		 cmp	 BYTE PTR ?bOldPressed@?1??HighlightItem@CSTGfxOutBarCtrl@@QAEXH_N@Z@4_NA, bl
  00069	0f 84 a6 01 00
	00		 je	 $LN1@HighlightI
$LN3@HighlightI:

; 1925 : 
; 1926 : 	bOldPressed = bPressed;
; 1927 : 
; 1928 : 	CClientDC dc(this);

  0006f	56		 push	 esi
  00070	8d 4d b0	 lea	 ecx, DWORD PTR _dc$[ebp]
  00073	88 1d 00 00 00
	00		 mov	 BYTE PTR ?bOldPressed@?1??HighlightItem@CSTGfxOutBarCtrl@@QAEXH_N@Z@4_NA, bl
  00079	e8 00 00 00 00	 call	 ??0CClientDC@@QAE@PAVCWnd@@@Z ; CClientDC::CClientDC

; 1931 : 	GetInsideRect(irc);

  0007e	8d 45 d0	 lea	 eax, DWORD PTR _irc$[ebp]
  00081	c7 45 fc 00 00
	00 00		 mov	 DWORD PTR __$EHRec$[ebp+8], 0
  00088	0f 57 c0	 xorps	 xmm0, xmm0
  0008b	8b ce		 mov	 ecx, esi
  0008d	50		 push	 eax
; File C:\Program Files (x86)\Microsoft Visual Studio\2019\Community\VC\Tools\MSVC\14.29.30133\atlmfc\include\atltypes.h

; 528  : 	left = 0;

  0008e	0f 11 45 d0	 movups	 XMMWORD PTR _irc$[ebp], xmm0
; File D:\git\src\IBK\IBK_DRFN\ProjSrc\SrcDrfn\Chart\Common_ST\STGfxOutBarCtrl.cpp

; 1931 : 	GetInsideRect(irc);

  00092	e8 00 00 00 00	 call	 ?GetInsideRect@CSTGfxOutBarCtrl@@QBEXAAVCRect@@@Z ; CSTGfxOutBarCtrl::GetInsideRect

; 1932 : 	int isdc = dc.SaveDC();

  00097	8d 4d b0	 lea	 ecx, DWORD PTR _dc$[ebp]
  0009a	e8 00 00 00 00	 call	 ?SaveDC@CDC@@UAEHXZ	; CDC::SaveDC
  0009f	89 45 c4	 mov	 DWORD PTR _isdc$1$[ebp], eax
; File C:\Program Files (x86)\Microsoft Visual Studio\2019\Community\VC\Tools\MSVC\14.29.30133\atlmfc\include\afxwin1.inl

; 70   : 	{ m_hObject = NULL; }

  000a2	c7 45 cc 00 00
	00 00		 mov	 DWORD PTR _itemRegion$[ebp+4], 0

; 264  : 	{ }

  000a9	c7 45 c8 00 00
	00 00		 mov	 DWORD PTR _itemRegion$[ebp], OFFSET ??_7CRgn@@6B@

; 270  : 	{ return Attach(::CreateRectRgnIndirect(lpRect)); }

  000b0	8d 45 d0	 lea	 eax, DWORD PTR _irc$[ebp]
; File D:\git\src\IBK\IBK_DRFN\ProjSrc\SrcDrfn\Chart\Common_ST\STGfxOutBarCtrl.cpp

; 1933 : 	CRgn itemRegion;

  000b3	c6 45 fc 01	 mov	 BYTE PTR __$EHRec$[ebp+8], 1
; File C:\Program Files (x86)\Microsoft Visual Studio\2019\Community\VC\Tools\MSVC\14.29.30133\atlmfc\include\afxwin1.inl

; 270  : 	{ return Attach(::CreateRectRgnIndirect(lpRect)); }

  000b7	50		 push	 eax
  000b8	ff 15 00 00 00
	00		 call	 DWORD PTR __imp__CreateRectRgnIndirect@4
  000be	50		 push	 eax
  000bf	8d 4d c8	 lea	 ecx, DWORD PTR _itemRegion$[ebp]
  000c2	e8 00 00 00 00	 call	 ?Attach@CGdiObject@@QAEHPAX@Z ; CGdiObject::Attach
; File D:\git\src\IBK\IBK_DRFN\ProjSrc\SrcDrfn\Chart\Common_ST\STGfxOutBarCtrl.cpp

; 1935 : 	dc.SelectClipRgn(&itemRegion);

  000c7	8d 45 c8	 lea	 eax, DWORD PTR _itemRegion$[ebp]
  000ca	50		 push	 eax
  000cb	8d 4d b0	 lea	 ecx, DWORD PTR _dc$[ebp]
  000ce	e8 00 00 00 00	 call	 ?SelectClipRgn@CDC@@QAEHPAVCRgn@@@Z ; CDC::SelectClipRgn

; 1936 : 	itemRegion.DeleteObject();

  000d3	8d 4d c8	 lea	 ecx, DWORD PTR _itemRegion$[ebp]
  000d6	e8 00 00 00 00	 call	 ?DeleteObject@CGdiObject@@QAEHXZ ; CGdiObject::DeleteObject

; 1937 : 
; 1938 : 	COLORREF clrOldText = dc.SetTextColor(RGB(255, 0, 0));

  000db	68 ff 00 00 00	 push	 255			; 000000ffH
  000e0	8d 4d b0	 lea	 ecx, DWORD PTR _dc$[ebp]
  000e3	e8 00 00 00 00	 call	 ?SetTextColor@CDC@@UAEKK@Z ; CDC::SetTextColor

; 1939 : 
; 1940 : 	if (iLastItemHighlighted >= 0 && IsValidItem(iLastItemHighlighted))

  000e8	8b 96 20 01 00
	00		 mov	 edx, DWORD PTR [esi+288]
  000ee	85 d2		 test	 edx, edx
  000f0	78 5e		 js	 SHORT $LN4@HighlightI

; 2231 : 	CBarFolder * pbf = (CBarFolder *) arFolder.GetAt(iSelFolder);

  000f2	8b 8e 30 01 00
	00		 mov	 ecx, DWORD PTR [esi+304]
; File C:\Program Files (x86)\Microsoft Visual Studio\2019\Community\VC\Tools\MSVC\14.29.30133\atlmfc\include\afxcoll.inl

; 203  : 		if( nIndex < 0 || nIndex >= m_nSize )

  000f8	85 c9		 test	 ecx, ecx
  000fa	0f 88 37 01 00
	00		 js	 $LN57@HighlightI
  00100	3b 8e 08 01 00
	00		 cmp	 ecx, DWORD PTR [esi+264]
  00106	0f 8d 2b 01 00
	00		 jge	 $LN57@HighlightI
; File D:\git\src\IBK\IBK_DRFN\ProjSrc\SrcDrfn\Chart\Common_ST\STGfxOutBarCtrl.cpp

; 2232 : 	return (index >= 0 && index < pbf->GetItemCount());

  0010c	8b 86 04 01 00
	00		 mov	 eax, DWORD PTR [esi+260]
  00112	8b 04 88	 mov	 eax, DWORD PTR [eax+ecx*4]
  00115	3b 50 1c	 cmp	 edx, DWORD PTR [eax+28]
  00118	7d 36		 jge	 SHORT $LN4@HighlightI

; 1943 : 		GetIconRect(iSelFolder, iLastItemHighlighted, rc);

  0011a	8d 45 e0	 lea	 eax, DWORD PTR _rc$3[ebp]
  0011d	0f 57 c0	 xorps	 xmm0, xmm0
  00120	50		 push	 eax
  00121	52		 push	 edx
  00122	51		 push	 ecx
  00123	8b ce		 mov	 ecx, esi
; File C:\Program Files (x86)\Microsoft Visual Studio\2019\Community\VC\Tools\MSVC\14.29.30133\atlmfc\include\atltypes.h

; 528  : 	left = 0;

  00125	0f 11 45 e0	 movups	 XMMWORD PTR _rc$3[ebp], xmm0
; File D:\git\src\IBK\IBK_DRFN\ProjSrc\SrcDrfn\Chart\Common_ST\STGfxOutBarCtrl.cpp

; 1943 : 		GetIconRect(iSelFolder, iLastItemHighlighted, rc);

  00129	e8 00 00 00 00	 call	 ?GetIconRect@CSTGfxOutBarCtrl@@QAEXHHAAVCRect@@@Z ; CSTGfxOutBarCtrl::GetIconRect
; File C:\Program Files (x86)\Microsoft Visual Studio\2019\Community\VC\Tools\MSVC\14.29.30133\atlmfc\include\atltypes.h

; 686  : 	::InflateRect(this, x, y);

  0012e	6a 01		 push	 1
  00130	6a 01		 push	 1
  00132	8d 45 e0	 lea	 eax, DWORD PTR _rc$3[ebp]
  00135	50		 push	 eax
  00136	ff 15 00 00 00
	00		 call	 DWORD PTR __imp__InflateRect@12
; File D:\git\src\IBK\IBK_DRFN\ProjSrc\SrcDrfn\Chart\Common_ST\STGfxOutBarCtrl.cpp

; 1945 : 		dc.Draw3dRect(rc, crBackGroundColor, crBackGroundColor);

  0013c	8b 86 80 00 00
	00		 mov	 eax, DWORD PTR [esi+128]
  00142	8d 4d b0	 lea	 ecx, DWORD PTR _dc$[ebp]
  00145	50		 push	 eax
  00146	50		 push	 eax
  00147	8d 45 e0	 lea	 eax, DWORD PTR _rc$3[ebp]
  0014a	50		 push	 eax
  0014b	e8 00 00 00 00	 call	 ?Draw3dRect@CDC@@QAEXPBUtagRECT@@KK@Z ; CDC::Draw3dRect
$LN4@HighlightI:

; 1946 : 	}
; 1947 : 	if (iSelAnimTiming > 0 && index == iLastSel)

  00150	83 be f4 00 00
	00 00		 cmp	 DWORD PTR [esi+244], 0
  00157	7e 08		 jle	 SHORT $LN104@HighlightI
  00159	3b be f0 00 00
	00		 cmp	 edi, DWORD PTR [esi+240]
  0015f	74 14		 je	 SHORT $LN13@HighlightI
$LN104@HighlightI:

; 1948 : 	{
; 1949 : 		iLastItemHighlighted = -1;
; 1950 : 		return;
; 1951 : 	}
; 1952 : 	if (dwFlags&fSelHighlight && iLastSel == index)

  00161	f7 86 fc 00 00
	00 00 02 00 00	 test	 DWORD PTR [esi+252], 512 ; 00000200H
  0016b	74 14		 je	 SHORT $LN6@HighlightI
  0016d	39 be f0 00 00
	00		 cmp	 DWORD PTR [esi+240], edi
  00173	75 0c		 jne	 SHORT $LN6@HighlightI
$LN13@HighlightI:
  00175	c7 86 20 01 00
	00 ff ff ff ff	 mov	 DWORD PTR [esi+288], -1
  0017f	eb 7d		 jmp	 SHORT $LN14@HighlightI
$LN6@HighlightI:

; 1953 : 	{
; 1954 : 		iLastItemHighlighted = -1;
; 1955 : 		return;
; 1956 : 	}
; 1957 : 
; 1958 : 	iLastItemHighlighted = index;

  00181	89 be 20 01 00
	00		 mov	 DWORD PTR [esi+288], edi

; 1959 : 	if (iLastItemHighlighted >= 0 && IsValidItem(iLastItemHighlighted))

  00187	85 ff		 test	 edi, edi
  00189	78 68		 js	 SHORT $LN9@HighlightI

; 2231 : 	CBarFolder * pbf = (CBarFolder *) arFolder.GetAt(iSelFolder);

  0018b	8b 8e 30 01 00
	00		 mov	 ecx, DWORD PTR [esi+304]
; File C:\Program Files (x86)\Microsoft Visual Studio\2019\Community\VC\Tools\MSVC\14.29.30133\atlmfc\include\afxcoll.inl

; 203  : 		if( nIndex < 0 || nIndex >= m_nSize )

  00191	85 c9		 test	 ecx, ecx
  00193	0f 88 9e 00 00
	00		 js	 $LN57@HighlightI
  00199	3b 8e 08 01 00
	00		 cmp	 ecx, DWORD PTR [esi+264]
  0019f	0f 8d 92 00 00
	00		 jge	 $LN57@HighlightI
; File D:\git\src\IBK\IBK_DRFN\ProjSrc\SrcDrfn\Chart\Common_ST\STGfxOutBarCtrl.cpp

; 2232 : 	return (index >= 0 && index < pbf->GetItemCount());

  001a5	8b 86 04 01 00
	00		 mov	 eax, DWORD PTR [esi+260]
  001ab	8b 04 88	 mov	 eax, DWORD PTR [eax+ecx*4]
  001ae	3b 78 1c	 cmp	 edi, DWORD PTR [eax+28]
  001b1	7d 40		 jge	 SHORT $LN9@HighlightI

; 1962 : 		GetIconRect(iSelFolder, iLastItemHighlighted, rc);

  001b3	8d 45 e0	 lea	 eax, DWORD PTR _rc$2[ebp]
  001b6	0f 57 c0	 xorps	 xmm0, xmm0
  001b9	50		 push	 eax
  001ba	57		 push	 edi
  001bb	51		 push	 ecx
  001bc	8b ce		 mov	 ecx, esi
; File C:\Program Files (x86)\Microsoft Visual Studio\2019\Community\VC\Tools\MSVC\14.29.30133\atlmfc\include\atltypes.h

; 528  : 	left = 0;

  001be	0f 11 45 e0	 movups	 XMMWORD PTR _rc$2[ebp], xmm0
; File D:\git\src\IBK\IBK_DRFN\ProjSrc\SrcDrfn\Chart\Common_ST\STGfxOutBarCtrl.cpp

; 1962 : 		GetIconRect(iSelFolder, iLastItemHighlighted, rc);

  001c2	e8 00 00 00 00	 call	 ?GetIconRect@CSTGfxOutBarCtrl@@QAEXHHAAVCRect@@@Z ; CSTGfxOutBarCtrl::GetIconRect
; File C:\Program Files (x86)\Microsoft Visual Studio\2019\Community\VC\Tools\MSVC\14.29.30133\atlmfc\include\atltypes.h

; 686  : 	::InflateRect(this, x, y);

  001c7	6a 01		 push	 1
  001c9	6a 01		 push	 1
  001cb	8d 45 e0	 lea	 eax, DWORD PTR _rc$2[ebp]
  001ce	50		 push	 eax
  001cf	ff 15 00 00 00
	00		 call	 DWORD PTR __imp__InflateRect@12
  001d5	8b 86 9c 00 00
	00		 mov	 eax, DWORD PTR [esi+156]
  001db	8b 8e 8c 00 00
	00		 mov	 ecx, DWORD PTR [esi+140]
; File D:\git\src\IBK\IBK_DRFN\ProjSrc\SrcDrfn\Chart\Common_ST\STGfxOutBarCtrl.cpp

; 1964 : 		if (bPressed)

  001e1	84 db		 test	 bl, bl
  001e3	74 4e		 je	 SHORT $LN8@HighlightI

; 1965 : 			dc.Draw3dRect(rc, crDkShadowBorder, cr3dFace);

  001e5	51		 push	 ecx
  001e6	50		 push	 eax
$LN107@HighlightI:

; 1968 : 	}
; 1969 : 	dc.RestoreDC(isdc);

  001e7	8d 45 e0	 lea	 eax, DWORD PTR _rc$2[ebp]
  001ea	50		 push	 eax
  001eb	8d 4d b0	 lea	 ecx, DWORD PTR _dc$[ebp]
  001ee	e8 00 00 00 00	 call	 ?Draw3dRect@CDC@@QAEXPBUtagRECT@@KK@Z ; CDC::Draw3dRect
$LN9@HighlightI:
  001f3	ff 75 c4	 push	 DWORD PTR _isdc$1$[ebp]
  001f6	8d 4d b0	 lea	 ecx, DWORD PTR _dc$[ebp]
  001f9	e8 00 00 00 00	 call	 ?RestoreDC@CDC@@UAEHH@Z	; CDC::RestoreDC
$LN14@HighlightI:
; File C:\Program Files (x86)\Microsoft Visual Studio\2019\Community\VC\Tools\MSVC\14.29.30133\atlmfc\include\afxwin1.inl

; 266  : 	{ }

  001fe	8d 4d c8	 lea	 ecx, DWORD PTR _itemRegion$[ebp]
  00201	c7 45 c8 00 00
	00 00		 mov	 DWORD PTR _itemRegion$[ebp], OFFSET ??_7CRgn@@6B@
  00208	e8 00 00 00 00	 call	 ??1CGdiObject@@UAE@XZ	; CGdiObject::~CGdiObject
; File D:\git\src\IBK\IBK_DRFN\ProjSrc\SrcDrfn\Chart\Common_ST\STGfxOutBarCtrl.cpp

; 1970 : }

  0020d	8d 4d b0	 lea	 ecx, DWORD PTR _dc$[ebp]
  00210	e8 00 00 00 00	 call	 ??1CClientDC@@UAE@XZ	; CClientDC::~CClientDC
$LN1@HighlightI:
  00215	8b 4d f4	 mov	 ecx, DWORD PTR __$EHRec$[ebp]
  00218	64 89 0d 00 00
	00 00		 mov	 DWORD PTR fs:0, ecx
  0021f	59		 pop	 ecx
  00220	5f		 pop	 edi
  00221	5e		 pop	 esi
  00222	5b		 pop	 ebx
  00223	8b 4d f0	 mov	 ecx, DWORD PTR __$ArrayPad$[ebp]
  00226	33 cd		 xor	 ecx, ebp
  00228	e8 00 00 00 00	 call	 @__security_check_cookie@4
  0022d	8b e5		 mov	 esp, ebp
  0022f	5d		 pop	 ebp
  00230	c2 08 00	 ret	 8
$LN8@HighlightI:

; 1966 : 		else
; 1967 : 			dc.Draw3dRect(rc, cr3dFace, crDkShadowBorder);

  00233	50		 push	 eax
  00234	51		 push	 ecx
  00235	eb b0		 jmp	 SHORT $LN107@HighlightI
$LN57@HighlightI:
; File C:\Program Files (x86)\Microsoft Visual Studio\2019\Community\VC\Tools\MSVC\14.29.30133\atlmfc\include\afxcoll.inl

; 204  : 			AfxThrowInvalidArgException();

  00237	e8 00 00 00 00	 call	 ?AfxThrowInvalidArgException@@YGXXZ ; AfxThrowInvalidArgException
$LN106@HighlightI:
  0023c	cc		 int	 3
_TEXT	ENDS
;	COMDAT text$x
text$x	SEGMENT
__unwindfunclet$?HighlightItem@CSTGfxOutBarCtrl@@QAEXH_N@Z$0:
  00000	8d 4d b0	 lea	 ecx, DWORD PTR _dc$[ebp]
  00003	e9 00 00 00 00	 jmp	 ??1CClientDC@@UAE@XZ	; CClientDC::~CClientDC
__unwindfunclet$?HighlightItem@CSTGfxOutBarCtrl@@QAEXH_N@Z$1:
  00008	8d 4d c8	 lea	 ecx, DWORD PTR _itemRegion$[ebp]
  0000b	e9 00 00 00 00	 jmp	 ??1CRgn@@UAE@XZ		; CRgn::~CRgn
  00010	cc		 int	 3
  00011	cc		 int	 3
  00012	cc		 int	 3
  00013	cc		 int	 3
  00014	cc		 int	 3
__ehhandler$?HighlightItem@CSTGfxOutBarCtrl@@QAEXH_N@Z:
  00015	90		 npad	 1
  00016	90		 npad	 1
  00017	8b 54 24 08	 mov	 edx, DWORD PTR [esp+8]
  0001b	8d 42 0c	 lea	 eax, DWORD PTR [edx+12]
  0001e	8b 4a ac	 mov	 ecx, DWORD PTR [edx-84]
  00021	33 c8		 xor	 ecx, eax
  00023	e8 00 00 00 00	 call	 @__security_check_cookie@4
  00028	8b 4a fc	 mov	 ecx, DWORD PTR [edx-4]
  0002b	33 c8		 xor	 ecx, eax
  0002d	e8 00 00 00 00	 call	 @__security_check_cookie@4
  00032	b8 00 00 00 00	 mov	 eax, OFFSET __ehfuncinfo$?HighlightItem@CSTGfxOutBarCtrl@@QAEXH_N@Z
  00037	e9 00 00 00 00	 jmp	 ___CxxFrameHandler3
text$x	ENDS
?HighlightItem@CSTGfxOutBarCtrl@@QAEXH_N@Z ENDP		; CSTGfxOutBarCtrl::HighlightItem
; Function compile flags: /Ogtp
; File D:\git\src\IBK\IBK_DRFN\ProjSrc\SrcDrfn\Chart\Common_ST\STGfxOutBarCtrl.cpp
; File C:\Program Files (x86)\Microsoft Visual Studio\2019\Community\VC\Tools\MSVC\14.29.30133\atlmfc\include\atltypes.h
; File D:\git\src\IBK\IBK_DRFN\ProjSrc\SrcDrfn\Chart\Common_ST\STGfxOutBarCtrl.cpp
; File C:\Program Files (x86)\Microsoft Visual Studio\2019\Community\VC\Tools\MSVC\14.29.30133\atlmfc\include\afxcoll.inl
; File D:\git\src\IBK\IBK_DRFN\ProjSrc\SrcDrfn\Chart\Common_ST\STGfxOutBarCtrl.cpp
; File C:\Program Files (x86)\Microsoft Visual Studio\2019\Community\VC\Tools\MSVC\14.29.30133\atlmfc\include\afxcoll.inl
; File D:\git\src\IBK\IBK_DRFN\ProjSrc\SrcDrfn\Chart\Common_ST\STGfxOutBarCtrl.cpp
; File C:\Program Files (x86)\Microsoft Visual Studio\2019\Community\VC\Tools\MSVC\14.29.30133\atlmfc\include\afxcoll.inl
; File D:\git\src\IBK\IBK_DRFN\ProjSrc\SrcDrfn\Chart\Common_ST\STGfxOutBarCtrl.cpp
; File C:\Program Files (x86)\Microsoft Visual Studio\2019\Community\VC\Tools\MSVC\14.29.30133\atlmfc\include\atltypes.h
; File D:\git\src\IBK\IBK_DRFN\ProjSrc\SrcDrfn\Chart\Common_ST\STGfxOutBarCtrl.cpp
; File C:\Program Files (x86)\Microsoft Visual Studio\2019\Community\VC\Tools\MSVC\14.29.30133\atlmfc\include\afxwin1.inl
; File C:\Program Files (x86)\Microsoft Visual Studio\2019\Community\VC\Tools\MSVC\14.29.30133\atlmfc\include\atltypes.h
; File D:\git\src\IBK\IBK_DRFN\ProjSrc\SrcDrfn\Chart\Common_ST\STGfxOutBarCtrl.cpp
; File C:\Program Files (x86)\Microsoft Visual Studio\2019\Community\VC\Tools\MSVC\14.29.30133\atlmfc\include\atltypes.h
; File D:\git\src\IBK\IBK_DRFN\ProjSrc\SrcDrfn\Chart\Common_ST\STGfxOutBarCtrl.cpp
; File C:\Program Files (x86)\Microsoft Visual Studio\2019\Community\VC\Tools\MSVC\14.29.30133\atlmfc\include\atltypes.h
; File D:\git\src\IBK\IBK_DRFN\ProjSrc\SrcDrfn\Chart\Common_ST\STGfxOutBarCtrl.cpp
; File C:\Program Files (x86)\Microsoft Visual Studio\2019\Community\VC\Tools\MSVC\14.29.30133\atlmfc\include\atltypes.h
; File D:\git\src\IBK\IBK_DRFN\ProjSrc\SrcDrfn\Chart\Common_ST\STGfxOutBarCtrl.cpp
; File C:\Program Files (x86)\Microsoft Visual Studio\2019\Community\VC\Tools\MSVC\14.29.30133\atlmfc\include\atltypes.h
; File D:\git\src\IBK\IBK_DRFN\ProjSrc\SrcDrfn\Chart\Common_ST\STGfxOutBarCtrl.cpp
; File C:\Program Files (x86)\Microsoft Visual Studio\2019\Community\VC\Tools\MSVC\14.29.30133\atlmfc\include\afxcoll.inl
; File D:\git\src\IBK\IBK_DRFN\ProjSrc\SrcDrfn\Chart\Common_ST\STGfxOutBarCtrl.cpp
;	COMDAT ?GetIconRect@CSTGfxOutBarCtrl@@QAEXHHAAVCRect@@@Z
_TEXT	SEGMENT
$T2 = -96						; size = 8
_rect$GSCopy$1$ = -88					; size = 4
_spacing$1$ = -84					; size = 4
_szImage$1$ = -80					; size = 4
_iFolder$GSCopy$1$ = -80				; size = 4
_iIndex$GSCopy$1$ = -76					; size = 4
_szImage$2$ = -76					; size = 4
_top$1$ = -72						; size = 4
_ii$3 = -68						; size = 32
$T4 = -36						; size = 16
tv834 = -28						; size = 8
_rc$ = -20						; size = 16
__$ArrayPad$ = -4					; size = 4
_iFolder$ = 8						; size = 4
_iIndex$ = 12						; size = 4
_rect$ = 16						; size = 4
?GetIconRect@CSTGfxOutBarCtrl@@QAEXHHAAVCRect@@@Z PROC	; CSTGfxOutBarCtrl::GetIconRect, COMDAT
; _this$ = ecx

; 1973 : {

  00000	55		 push	 ebp
  00001	8b ec		 mov	 ebp, esp
  00003	83 ec 60	 sub	 esp, 96			; 00000060H
  00006	a1 00 00 00 00	 mov	 eax, DWORD PTR ___security_cookie
  0000b	33 c5		 xor	 eax, ebp
  0000d	89 45 fc	 mov	 DWORD PTR __$ArrayPad$[ebp], eax
  00010	8b 45 08	 mov	 eax, DWORD PTR _iFolder$[ebp]
  00013	0f 57 c0	 xorps	 xmm0, xmm0
  00016	89 45 b0	 mov	 DWORD PTR _iFolder$GSCopy$1$[ebp], eax
  00019	8b 45 0c	 mov	 eax, DWORD PTR _iIndex$[ebp]
  0001c	53		 push	 ebx
  0001d	89 45 b4	 mov	 DWORD PTR _iIndex$GSCopy$1$[ebp], eax
  00020	8b 45 10	 mov	 eax, DWORD PTR _rect$[ebp]
  00023	56		 push	 esi
  00024	57		 push	 edi
  00025	89 45 a8	 mov	 DWORD PTR _rect$GSCopy$1$[ebp], eax
  00028	8b f9		 mov	 edi, ecx

; 1975 : 	GetInsideRect(rc);

  0002a	8d 45 ec	 lea	 eax, DWORD PTR _rc$[ebp]
  0002d	50		 push	 eax
; File C:\Program Files (x86)\Microsoft Visual Studio\2019\Community\VC\Tools\MSVC\14.29.30133\atlmfc\include\atltypes.h

; 528  : 	left = 0;

  0002e	0f 11 45 ec	 movups	 XMMWORD PTR _rc$[ebp], xmm0
; File D:\git\src\IBK\IBK_DRFN\ProjSrc\SrcDrfn\Chart\Common_ST\STGfxOutBarCtrl.cpp

; 1975 : 	GetInsideRect(rc);

  00032	e8 00 00 00 00	 call	 ?GetInsideRect@CSTGfxOutBarCtrl@@QBEXAAVCRect@@@Z ; CSTGfxOutBarCtrl::GetInsideRect

; 1976 : 	int top = rc.top;

  00037	8b 4d f0	 mov	 ecx, DWORD PTR _rc$[ebp+4]

; 1977 : 	CSize sz(0,0);
; 1978 : 	int y = 0;

  0003a	33 db		 xor	 ebx, ebx

; 215  : 	return dwFlags&fSmallIcon;

  0003c	f6 87 fc 00 00
	00 01		 test	 BYTE PTR [edi+252], 1

; 1976 : 	int top = rc.top;

  00043	89 4d b8	 mov	 DWORD PTR _top$1$[ebp], ecx

; 1979 : 	int spacing = IsSmallIconView() ? ySmallIconSpacing : yLargeIconSpacing;

  00046	74 08		 je	 SHORT $LN9@GetIconRec
  00048	8b 87 ac 00 00
	00		 mov	 eax, DWORD PTR [edi+172]
  0004e	eb 06		 jmp	 SHORT $LN116@GetIconRec
$LN9@GetIconRec:
  00050	8b 87 b0 00 00
	00		 mov	 eax, DWORD PTR [edi+176]
$LN116@GetIconRec:

; 1980 : 
; 1981 : 	for (int t = 0; t < iIndex; t++)

  00056	8b 55 b4	 mov	 edx, DWORD PTR _iIndex$GSCopy$1$[ebp]
  00059	33 f6		 xor	 esi, esi
  0005b	89 45 ac	 mov	 DWORD PTR _spacing$1$[ebp], eax
  0005e	85 d2		 test	 edx, edx
  00060	7e 3c		 jle	 SHORT $LN3@GetIconRec
$LL4@GetIconRec:

; 1982 : 	{
; 1983 : 		sz = GetItemSize(iFolder, t, ircAll);

  00062	6a 03		 push	 3
  00064	56		 push	 esi
  00065	ff 75 b0	 push	 DWORD PTR _iFolder$GSCopy$1$[ebp]
  00068	8d 45 a0	 lea	 eax, DWORD PTR $T2[ebp]
  0006b	8b cf		 mov	 ecx, edi
  0006d	50		 push	 eax
  0006e	e8 00 00 00 00	 call	 ?GetItemSize@CSTGfxOutBarCtrl@@QAE?AVCSize@@HHH@Z ; CSTGfxOutBarCtrl::GetItemSize
  00073	8b 08		 mov	 ecx, DWORD PTR [eax]
  00075	8b 40 04	 mov	 eax, DWORD PTR [eax+4]

; 1984 : 		top += sz.cy;
; 1985 : 		top += spacing;

  00078	03 45 ac	 add	 eax, DWORD PTR _spacing$1$[ebp]
  0007b	89 4d e4	 mov	 DWORD PTR tv834[ebp], ecx
  0007e	8b 4d b8	 mov	 ecx, DWORD PTR _top$1$[ebp]
  00081	03 c8		 add	 ecx, eax

; 1986 : 		if (t == iFirstItem - 1) y = top - rc.top;

  00083	8b 87 1c 01 00
	00		 mov	 eax, DWORD PTR [edi+284]
  00089	48		 dec	 eax
  0008a	89 4d b8	 mov	 DWORD PTR _top$1$[ebp], ecx
  0008d	3b f0		 cmp	 esi, eax
  0008f	75 05		 jne	 SHORT $LN2@GetIconRec
  00091	8b d9		 mov	 ebx, ecx
  00093	2b 5d f0	 sub	 ebx, DWORD PTR _rc$[ebp+4]
$LN2@GetIconRec:

; 1980 : 
; 1981 : 	for (int t = 0; t < iIndex; t++)

  00096	8b 55 b4	 mov	 edx, DWORD PTR _iIndex$GSCopy$1$[ebp]
  00099	46		 inc	 esi
  0009a	3b f2		 cmp	 esi, edx
  0009c	7c c4		 jl	 SHORT $LL4@GetIconRec
$LN3@GetIconRec:

; 1988 : 	top += spacing;

  0009e	03 4d ac	 add	 ecx, DWORD PTR _spacing$1$[ebp]
; File C:\Program Files (x86)\Microsoft Visual Studio\2019\Community\VC\Tools\MSVC\14.29.30133\atlmfc\include\afxcoll.inl

; 203  : 		if( nIndex < 0 || nIndex >= m_nSize )

  000a1	8b 75 b0	 mov	 esi, DWORD PTR _iFolder$GSCopy$1$[ebp]
; File D:\git\src\IBK\IBK_DRFN\ProjSrc\SrcDrfn\Chart\Common_ST\STGfxOutBarCtrl.cpp

; 1988 : 	top += spacing;

  000a4	89 4d b8	 mov	 DWORD PTR _top$1$[ebp], ecx
; File C:\Program Files (x86)\Microsoft Visual Studio\2019\Community\VC\Tools\MSVC\14.29.30133\atlmfc\include\afxcoll.inl

; 203  : 		if( nIndex < 0 || nIndex >= m_nSize )

  000a7	85 f6		 test	 esi, esi
  000a9	0f 88 57 01 00
	00		 js	 $LN41@GetIconRec
  000af	3b b7 08 01 00
	00		 cmp	 esi, DWORD PTR [edi+264]
  000b5	0f 8d 4b 01 00
	00		 jge	 $LN41@GetIconRec
; File D:\git\src\IBK\IBK_DRFN\ProjSrc\SrcDrfn\Chart\Common_ST\STGfxOutBarCtrl.cpp

; 1708 : 	CBarItem * pi = (CBarItem *) pbf->arItems.GetAt(index);

  000bb	8b 87 04 01 00
	00		 mov	 eax, DWORD PTR [edi+260]
  000c1	8b 34 b0	 mov	 esi, DWORD PTR [eax+esi*4]
; File C:\Program Files (x86)\Microsoft Visual Studio\2019\Community\VC\Tools\MSVC\14.29.30133\atlmfc\include\afxcoll.inl

; 203  : 		if( nIndex < 0 || nIndex >= m_nSize )

  000c4	85 d2		 test	 edx, edx
  000c6	0f 88 3a 01 00
	00		 js	 $LN41@GetIconRec
  000cc	3b 56 1c	 cmp	 edx, DWORD PTR [esi+28]
  000cf	0f 8d 31 01 00
	00		 jge	 $LN41@GetIconRec
; File D:\git\src\IBK\IBK_DRFN\ProjSrc\SrcDrfn\Chart\Common_ST\STGfxOutBarCtrl.cpp

; 1714 : 	if (pi->iImageIndex >= 0)

  000d5	8b 46 18	 mov	 eax, DWORD PTR [esi+24]
; File C:\Program Files (x86)\Microsoft Visual Studio\2019\Community\VC\Tools\MSVC\14.29.30133\atlmfc\include\atltypes.h

; 312  : 	cx = initCX;

  000d8	c7 45 b4 00 00
	00 00		 mov	 DWORD PTR _szImage$2$[ebp], 0

; 313  : 	cy = initCY;

  000df	c7 45 b0 00 00
	00 00		 mov	 DWORD PTR _szImage$1$[ebp], 0
; File D:\git\src\IBK\IBK_DRFN\ProjSrc\SrcDrfn\Chart\Common_ST\STGfxOutBarCtrl.cpp

; 1714 : 	if (pi->iImageIndex >= 0)

  000e6	8b 04 90	 mov	 eax, DWORD PTR [eax+edx*4]
  000e9	8b 50 04	 mov	 edx, DWORD PTR [eax+4]
  000ec	85 d2		 test	 edx, edx
  000ee	78 5c		 js	 SHORT $LN114@GetIconRec

; 215  : 	return dwFlags&fSmallIcon;

  000f0	f6 87 fc 00 00
	00 01		 test	 BYTE PTR [edi+252], 1

; 1772 : 	if (bSmall)

  000f7	74 0f		 je	 SHORT $LN59@GetIconRec

; 1773 : 	{
; 1774 : 		if (pbf->pSmallImageList) return pbf->pSmallImageList; else return pSmallImageList;

  000f9	8b 46 10	 mov	 eax, DWORD PTR [esi+16]
  000fc	85 c0		 test	 eax, eax
  000fe	75 19		 jne	 SHORT $LN112@GetIconRec
  00100	8b 87 38 01 00
	00		 mov	 eax, DWORD PTR [edi+312]
  00106	eb 0d		 jmp	 SHORT $LN61@GetIconRec
$LN59@GetIconRec:

; 1775 : 	}
; 1776 : 	if (pbf->pLargeImageList) return pbf->pLargeImageList; else return pLargeImageList;

  00108	8b 46 0c	 mov	 eax, DWORD PTR [esi+12]
  0010b	85 c0		 test	 eax, eax
  0010d	75 0a		 jne	 SHORT $LN112@GetIconRec
  0010f	8b 87 34 01 00
	00		 mov	 eax, DWORD PTR [edi+308]
$LN61@GetIconRec:

; 1720 : 			if (il)

  00115	85 c0		 test	 eax, eax
  00117	74 33		 je	 SHORT $LN114@GetIconRec
$LN112@GetIconRec:
; File C:\Program Files (x86)\Microsoft Visual Studio\2019\Community\VC\Tools\MSVC\14.29.30133\atlmfc\include\afxwin1.inl

; 881  : 	{ ASSERT(m_hImageList != NULL); return ImageList_GetImageInfo(m_hImageList, nImage, pImageInfo); }

  00119	8d 4d bc	 lea	 ecx, DWORD PTR _ii$3[ebp]
  0011c	51		 push	 ecx
  0011d	52		 push	 edx
  0011e	ff 70 04	 push	 DWORD PTR [eax+4]
  00121	ff 15 00 00 00
	00		 call	 DWORD PTR __imp__ImageList_GetImageInfo@12
; File C:\Program Files (x86)\Microsoft Visual Studio\2019\Community\VC\Tools\MSVC\14.29.30133\atlmfc\include\atltypes.h

; 548  : 	::CopyRect(this, &srcRect);

  00127	8d 45 cc	 lea	 eax, DWORD PTR _ii$3[ebp+16]
  0012a	50		 push	 eax
  0012b	8d 45 dc	 lea	 eax, DWORD PTR $T4[ebp]
  0012e	50		 push	 eax
  0012f	ff 15 00 00 00
	00		 call	 DWORD PTR __imp__CopyRect@8

; 586  : 	return CSize(right - left, bottom - top);

  00135	8b 55 e4	 mov	 edx, DWORD PTR $T4[ebp+8]
  00138	2b 55 dc	 sub	 edx, DWORD PTR $T4[ebp]
  0013b	8b 45 e8	 mov	 eax, DWORD PTR $T4[ebp+12]
  0013e	2b 45 e0	 sub	 eax, DWORD PTR $T4[ebp+4]
  00141	8b 4d b8	 mov	 ecx, DWORD PTR _top$1$[ebp]
  00144	89 55 b4	 mov	 DWORD PTR _szImage$2$[ebp], edx
  00147	89 45 b0	 mov	 DWORD PTR _szImage$1$[ebp], eax
; File D:\git\src\IBK\IBK_DRFN\ProjSrc\SrcDrfn\Chart\Common_ST\STGfxOutBarCtrl.cpp

; 1714 : 	if (pi->iImageIndex >= 0)

  0014a	eb 04		 jmp	 SHORT $LN20@GetIconRec
$LN114@GetIconRec:

; 215  : 	return dwFlags&fSmallIcon;

  0014c	33 c0		 xor	 eax, eax
  0014e	33 d2		 xor	 edx, edx
$LN20@GetIconRec:
  00150	f6 87 fc 00 00
	00 01		 test	 BYTE PTR [edi+252], 1

; 1750 : 	if (IsSmallIconView())

  00157	74 59		 je	 SHORT $LN6@GetIconRec
; File C:\Program Files (x86)\Microsoft Visual Studio\2019\Community\VC\Tools\MSVC\14.29.30133\atlmfc\include\atltypes.h

; 657  : 	::SetRect(this, x1, y1, x2, y2);

  00159	8b 75 a8	 mov	 esi, DWORD PTR _rect$GSCopy$1$[ebp]
; File D:\git\src\IBK\IBK_DRFN\ProjSrc\SrcDrfn\Chart\Common_ST\STGfxOutBarCtrl.cpp

; 1993 : 		rect.SetRect(rc.left, top, rc.left + sz.cx, top + sz.cy);

  0015c	03 c1		 add	 eax, ecx
; File C:\Program Files (x86)\Microsoft Visual Studio\2019\Community\VC\Tools\MSVC\14.29.30133\atlmfc\include\atltypes.h

; 657  : 	::SetRect(this, x1, y1, x2, y2);

  0015e	8b 4d ec	 mov	 ecx, DWORD PTR _rc$[ebp]
  00161	50		 push	 eax
  00162	8d 04 0a	 lea	 eax, DWORD PTR [edx+ecx]
  00165	50		 push	 eax
  00166	ff 75 b8	 push	 DWORD PTR _top$1$[ebp]
  00169	51		 push	 ecx
  0016a	56		 push	 esi
  0016b	ff 15 00 00 00
	00		 call	 DWORD PTR __imp__SetRect@20
; File D:\git\src\IBK\IBK_DRFN\ProjSrc\SrcDrfn\Chart\Common_ST\STGfxOutBarCtrl.cpp

; 1994 : 		rect.left += xLeftMargin + 2;

  00171	8b 87 b4 00 00
	00		 mov	 eax, DWORD PTR [edi+180]
  00177	83 c0 02	 add	 eax, 2
  0017a	01 06		 add	 DWORD PTR [esi], eax

; 1995 : 		rect.right += xLeftMargin + 2;

  0017c	8b 87 b4 00 00
	00		 mov	 eax, DWORD PTR [edi+180]
  00182	83 c0 02	 add	 eax, 2
  00185	01 46 08	 add	 DWORD PTR [esi+8], eax

; 1996 : 		rect.top -= yTopMargin;

  00188	8b 87 b8 00 00
	00		 mov	 eax, DWORD PTR [edi+184]
  0018e	29 46 04	 sub	 DWORD PTR [esi+4], eax

; 1997 : 		rect.bottom -= yTopMargin;

  00191	8b 87 b8 00 00
	00		 mov	 eax, DWORD PTR [edi+184]

; 1998 : 
; 1999 : 		rect.top -= y;

  00197	29 5e 04	 sub	 DWORD PTR [esi+4], ebx

; 2000 : 		rect.bottom -= y;

  0019a	03 c3		 add	 eax, ebx
  0019c	29 46 0c	 sub	 DWORD PTR [esi+12], eax
  0019f	5f		 pop	 edi

; 2008 : }

  001a0	5e		 pop	 esi
  001a1	5b		 pop	 ebx
  001a2	8b 4d fc	 mov	 ecx, DWORD PTR __$ArrayPad$[ebp]
  001a5	33 cd		 xor	 ecx, ebp
  001a7	e8 00 00 00 00	 call	 @__security_check_cookie@4
  001ac	8b e5		 mov	 esp, ebp
  001ae	5d		 pop	 ebp
  001af	c2 0c 00	 ret	 12			; 0000000cH
$LN6@GetIconRec:

; 2004 : 		rect.SetRect(rc.left + (rc.Width() - sz.cx)/2, top, rc.left + (rc.Width() - sz.cx)/2 + sz.cx, top + sz.cy);

  001b2	8b 45 f4	 mov	 eax, DWORD PTR _rc$[ebp+8]
  001b5	8b 75 ec	 mov	 esi, DWORD PTR _rc$[ebp]
  001b8	2b c2		 sub	 eax, edx
  001ba	2b c6		 sub	 eax, esi
  001bc	99		 cdq
  001bd	2b c2		 sub	 eax, edx
  001bf	8b 55 b0	 mov	 edx, DWORD PTR _szImage$1$[ebp]
  001c2	03 d1		 add	 edx, ecx
  001c4	d1 f8		 sar	 eax, 1
  001c6	8b 4d b4	 mov	 ecx, DWORD PTR _szImage$2$[ebp]
; File C:\Program Files (x86)\Microsoft Visual Studio\2019\Community\VC\Tools\MSVC\14.29.30133\atlmfc\include\atltypes.h

; 657  : 	::SetRect(this, x1, y1, x2, y2);

  001c9	52		 push	 edx
; File D:\git\src\IBK\IBK_DRFN\ProjSrc\SrcDrfn\Chart\Common_ST\STGfxOutBarCtrl.cpp

; 2004 : 		rect.SetRect(rc.left + (rc.Width() - sz.cx)/2, top, rc.left + (rc.Width() - sz.cx)/2 + sz.cx, top + sz.cy);

  001ca	03 c8		 add	 ecx, eax
  001cc	03 c6		 add	 eax, esi
  001ce	03 ce		 add	 ecx, esi
; File C:\Program Files (x86)\Microsoft Visual Studio\2019\Community\VC\Tools\MSVC\14.29.30133\atlmfc\include\atltypes.h

; 657  : 	::SetRect(this, x1, y1, x2, y2);

  001d0	8b 75 a8	 mov	 esi, DWORD PTR _rect$GSCopy$1$[ebp]
  001d3	51		 push	 ecx
  001d4	ff 75 b8	 push	 DWORD PTR _top$1$[ebp]
  001d7	50		 push	 eax
  001d8	56		 push	 esi
  001d9	ff 15 00 00 00
	00		 call	 DWORD PTR __imp__SetRect@20
; File D:\git\src\IBK\IBK_DRFN\ProjSrc\SrcDrfn\Chart\Common_ST\STGfxOutBarCtrl.cpp

; 2008 : }

  001df	8b 4d fc	 mov	 ecx, DWORD PTR __$ArrayPad$[ebp]
  001e2	b8 fd ff ff ff	 mov	 eax, -3			; fffffffdH
  001e7	2b c3		 sub	 eax, ebx
  001e9	33 cd		 xor	 ecx, ebp
  001eb	01 46 04	 add	 DWORD PTR [esi+4], eax
  001ee	b8 fe ff ff ff	 mov	 eax, -2			; fffffffeH
  001f3	2b c3		 sub	 eax, ebx
  001f5	01 46 0c	 add	 DWORD PTR [esi+12], eax
  001f8	5f		 pop	 edi
  001f9	5e		 pop	 esi
  001fa	5b		 pop	 ebx
  001fb	e8 00 00 00 00	 call	 @__security_check_cookie@4
  00200	8b e5		 mov	 esp, ebp
  00202	5d		 pop	 ebp
  00203	c2 0c 00	 ret	 12			; 0000000cH
$LN41@GetIconRec:
; File C:\Program Files (x86)\Microsoft Visual Studio\2019\Community\VC\Tools\MSVC\14.29.30133\atlmfc\include\afxcoll.inl

; 204  : 			AfxThrowInvalidArgException();

  00206	e8 00 00 00 00	 call	 ?AfxThrowInvalidArgException@@YGXXZ ; AfxThrowInvalidArgException
$LN115@GetIconRec:
  0020b	cc		 int	 3
?GetIconRect@CSTGfxOutBarCtrl@@QAEXHHAAVCRect@@@Z ENDP	; CSTGfxOutBarCtrl::GetIconRect
_TEXT	ENDS
; Function compile flags: /Ogtp
; File D:\git\src\IBK\IBK_DRFN\ProjSrc\SrcDrfn\Chart\Common_ST\STGfxOutBarCtrl.cpp
; File C:\Program Files (x86)\Microsoft Visual Studio\2019\Community\VC\Tools\MSVC\14.29.30133\atlmfc\include\atltypes.h
; File D:\git\src\IBK\IBK_DRFN\ProjSrc\SrcDrfn\Chart\Common_ST\STGfxOutBarCtrl.cpp
; File C:\Program Files (x86)\Microsoft Visual Studio\2019\Community\VC\Tools\MSVC\14.29.30133\atlmfc\include\atltypes.h
; File D:\git\src\IBK\IBK_DRFN\ProjSrc\SrcDrfn\Chart\Common_ST\STGfxOutBarCtrl.cpp
; File C:\Program Files (x86)\Microsoft Visual Studio\2019\Community\VC\Tools\MSVC\14.29.30133\atlmfc\include\atltypes.h
; File D:\git\src\IBK\IBK_DRFN\ProjSrc\SrcDrfn\Chart\Common_ST\STGfxOutBarCtrl.cpp
; File C:\Program Files (x86)\Microsoft Visual Studio\2019\Community\VC\Tools\MSVC\14.29.30133\atlmfc\include\atltypes.h
; File D:\git\src\IBK\IBK_DRFN\ProjSrc\SrcDrfn\Chart\Common_ST\STGfxOutBarCtrl.cpp
; File C:\Program Files (x86)\Microsoft Visual Studio\2019\Community\VC\Tools\MSVC\14.29.30133\atlmfc\include\atltypes.h
; File D:\git\src\IBK\IBK_DRFN\ProjSrc\SrcDrfn\Chart\Common_ST\STGfxOutBarCtrl.cpp
;	COMDAT ?GetLabelRect@CSTGfxOutBarCtrl@@QAEXHHAAVCRect@@@Z
_TEXT	SEGMENT
$T1 = -60						; size = 8
tv358 = -52						; size = 8
$T2 = -52						; size = 8
_rect$GSCopy$1$ = -44					; size = 4
_szLabel$ = -40						; size = 8
_iFolder$GSCopy$1$ = -36				; size = 4
_spacing$1$ = -32					; size = 4
tv485 = -32						; size = 4
_top$1$ = -28						; size = 4
_iIndex$GSCopy$1$ = -24					; size = 4
tv507 = -24						; size = 4
_rc$ = -20						; size = 16
__$ArrayPad$ = -4					; size = 4
_iFolder$ = 8						; size = 4
_iIndex$ = 12						; size = 4
_rect$ = 16						; size = 4
?GetLabelRect@CSTGfxOutBarCtrl@@QAEXHHAAVCRect@@@Z PROC	; CSTGfxOutBarCtrl::GetLabelRect, COMDAT
; _this$ = ecx

; 2011 : {

  00000	55		 push	 ebp
  00001	8b ec		 mov	 ebp, esp
  00003	83 ec 3c	 sub	 esp, 60			; 0000003cH
  00006	a1 00 00 00 00	 mov	 eax, DWORD PTR ___security_cookie
  0000b	33 c5		 xor	 eax, ebp
  0000d	89 45 fc	 mov	 DWORD PTR __$ArrayPad$[ebp], eax
  00010	8b 45 08	 mov	 eax, DWORD PTR _iFolder$[ebp]
  00013	0f 57 c0	 xorps	 xmm0, xmm0
  00016	89 45 dc	 mov	 DWORD PTR _iFolder$GSCopy$1$[ebp], eax
  00019	8b 45 0c	 mov	 eax, DWORD PTR _iIndex$[ebp]
  0001c	53		 push	 ebx
  0001d	89 45 e8	 mov	 DWORD PTR _iIndex$GSCopy$1$[ebp], eax
  00020	8b 45 10	 mov	 eax, DWORD PTR _rect$[ebp]
  00023	56		 push	 esi
  00024	57		 push	 edi
  00025	89 45 d4	 mov	 DWORD PTR _rect$GSCopy$1$[ebp], eax
  00028	8b f9		 mov	 edi, ecx

; 2013 : 	GetInsideRect(rc);

  0002a	8d 45 ec	 lea	 eax, DWORD PTR _rc$[ebp]
  0002d	50		 push	 eax
; File C:\Program Files (x86)\Microsoft Visual Studio\2019\Community\VC\Tools\MSVC\14.29.30133\atlmfc\include\atltypes.h

; 528  : 	left = 0;

  0002e	0f 11 45 ec	 movups	 XMMWORD PTR _rc$[ebp], xmm0
; File D:\git\src\IBK\IBK_DRFN\ProjSrc\SrcDrfn\Chart\Common_ST\STGfxOutBarCtrl.cpp

; 2013 : 	GetInsideRect(rc);

  00032	e8 00 00 00 00	 call	 ?GetInsideRect@CSTGfxOutBarCtrl@@QBEXAAVCRect@@@Z ; CSTGfxOutBarCtrl::GetInsideRect

; 2014 : 	int top = rc.top;

  00037	8b 4d f0	 mov	 ecx, DWORD PTR _rc$[ebp+4]

; 2015 : 	CSize sz(0,0);
; 2016 : 	int y = 0;

  0003a	33 db		 xor	 ebx, ebx

; 215  : 	return dwFlags&fSmallIcon;

  0003c	f6 87 fc 00 00
	00 01		 test	 BYTE PTR [edi+252], 1

; 2014 : 	int top = rc.top;

  00043	89 4d e4	 mov	 DWORD PTR _top$1$[ebp], ecx

; 2017 : 	int spacing = IsSmallIconView() ? ySmallIconSpacing : yLargeIconSpacing;

  00046	74 08		 je	 SHORT $LN9@GetLabelRe
  00048	8b 97 ac 00 00
	00		 mov	 edx, DWORD PTR [edi+172]
  0004e	eb 06		 jmp	 SHORT $LN31@GetLabelRe
$LN9@GetLabelRe:
  00050	8b 97 b0 00 00
	00		 mov	 edx, DWORD PTR [edi+176]
$LN31@GetLabelRe:

; 2018 : 
; 2019 : 	for (int t = 0; t < iIndex; t++)

  00056	33 f6		 xor	 esi, esi
  00058	89 55 e0	 mov	 DWORD PTR _spacing$1$[ebp], edx
  0005b	39 5d e8	 cmp	 DWORD PTR _iIndex$GSCopy$1$[ebp], ebx
  0005e	7e 3c		 jle	 SHORT $LN3@GetLabelRe
$LL4@GetLabelRe:

; 2020 : 	{
; 2021 : 		sz = GetItemSize(iFolder, t, ircAll);

  00060	6a 03		 push	 3
  00062	56		 push	 esi
  00063	ff 75 dc	 push	 DWORD PTR _iFolder$GSCopy$1$[ebp]
  00066	8d 45 c4	 lea	 eax, DWORD PTR $T1[ebp]
  00069	8b cf		 mov	 ecx, edi
  0006b	50		 push	 eax
  0006c	e8 00 00 00 00	 call	 ?GetItemSize@CSTGfxOutBarCtrl@@QAE?AVCSize@@HHH@Z ; CSTGfxOutBarCtrl::GetItemSize

; 2022 : 		top += sz.cy;
; 2023 : 		top += spacing;

  00071	8b 55 e0	 mov	 edx, DWORD PTR _spacing$1$[ebp]
  00074	8b 08		 mov	 ecx, DWORD PTR [eax]
  00076	8b 40 04	 mov	 eax, DWORD PTR [eax+4]
  00079	03 c2		 add	 eax, edx
  0007b	89 4d cc	 mov	 DWORD PTR tv358[ebp], ecx
  0007e	8b 4d e4	 mov	 ecx, DWORD PTR _top$1$[ebp]
  00081	03 c8		 add	 ecx, eax

; 2024 : 		if (t == iFirstItem - 1) y = top - rc.top;

  00083	8b 87 1c 01 00
	00		 mov	 eax, DWORD PTR [edi+284]
  00089	48		 dec	 eax
  0008a	89 4d e4	 mov	 DWORD PTR _top$1$[ebp], ecx
  0008d	3b f0		 cmp	 esi, eax
  0008f	75 05		 jne	 SHORT $LN2@GetLabelRe
  00091	8b d9		 mov	 ebx, ecx
  00093	2b 5d f0	 sub	 ebx, DWORD PTR _rc$[ebp+4]
$LN2@GetLabelRe:

; 2018 : 
; 2019 : 	for (int t = 0; t < iIndex; t++)

  00096	46		 inc	 esi
  00097	3b 75 e8	 cmp	 esi, DWORD PTR _iIndex$GSCopy$1$[ebp]
  0009a	7c c4		 jl	 SHORT $LL4@GetLabelRe
$LN3@GetLabelRe:

; 2025 : 	}
; 2026 : 	top += spacing;
; 2027 : 
; 2028 : 	sz = GetItemSize(iFolder, iIndex, ircAll);

  0009c	8b 75 e8	 mov	 esi, DWORD PTR _iIndex$GSCopy$1$[ebp]
  0009f	8d 45 cc	 lea	 eax, DWORD PTR $T2[ebp]
  000a2	6a 03		 push	 3
  000a4	56		 push	 esi
  000a5	ff 75 dc	 push	 DWORD PTR _iFolder$GSCopy$1$[ebp]
  000a8	03 ca		 add	 ecx, edx
  000aa	89 4d e4	 mov	 DWORD PTR _top$1$[ebp], ecx
  000ad	8b cf		 mov	 ecx, edi
  000af	50		 push	 eax
  000b0	e8 00 00 00 00	 call	 ?GetItemSize@CSTGfxOutBarCtrl@@QAE?AVCSize@@HHH@Z ; CSTGfxOutBarCtrl::GetItemSize

; 2029 : 
; 2030 : 	CSize szLabel = GetItemSize(iFolder, iIndex, ircLabel);

  000b5	6a 02		 push	 2
  000b7	56		 push	 esi
  000b8	ff 75 dc	 push	 DWORD PTR _iFolder$GSCopy$1$[ebp]
  000bb	8b 08		 mov	 ecx, DWORD PTR [eax]
  000bd	8b 40 04	 mov	 eax, DWORD PTR [eax+4]
  000c0	89 45 e0	 mov	 DWORD PTR tv485[ebp], eax
  000c3	8d 45 d8	 lea	 eax, DWORD PTR _szLabel$[ebp]
  000c6	89 4d e8	 mov	 DWORD PTR tv507[ebp], ecx
  000c9	8b cf		 mov	 ecx, edi
  000cb	50		 push	 eax
  000cc	e8 00 00 00 00	 call	 ?GetItemSize@CSTGfxOutBarCtrl@@QAE?AVCSize@@HHH@Z ; CSTGfxOutBarCtrl::GetItemSize

; 215  : 	return dwFlags&fSmallIcon;

  000d1	f6 87 fc 00 00
	00 01		 test	 BYTE PTR [edi+252], 1

; 2031 : 
; 2032 : 	if (IsSmallIconView())

  000d8	74 63		 je	 SHORT $LN6@GetLabelRe

; 2034 : 		rect.SetRect(rc.left, top, rc.left + sz.cx, top + sz.cy);

  000da	8b 55 e4	 mov	 edx, DWORD PTR _top$1$[ebp]
  000dd	8b 45 e0	 mov	 eax, DWORD PTR tv485[ebp]
; File C:\Program Files (x86)\Microsoft Visual Studio\2019\Community\VC\Tools\MSVC\14.29.30133\atlmfc\include\atltypes.h

; 657  : 	::SetRect(this, x1, y1, x2, y2);

  000e0	8b 4d ec	 mov	 ecx, DWORD PTR _rc$[ebp]
; File D:\git\src\IBK\IBK_DRFN\ProjSrc\SrcDrfn\Chart\Common_ST\STGfxOutBarCtrl.cpp

; 2034 : 		rect.SetRect(rc.left, top, rc.left + sz.cx, top + sz.cy);

  000e3	03 c2		 add	 eax, edx
; File C:\Program Files (x86)\Microsoft Visual Studio\2019\Community\VC\Tools\MSVC\14.29.30133\atlmfc\include\atltypes.h

; 657  : 	::SetRect(this, x1, y1, x2, y2);

  000e5	8b 5d d4	 mov	 ebx, DWORD PTR _rect$GSCopy$1$[ebp]
  000e8	50		 push	 eax
  000e9	8b 45 e8	 mov	 eax, DWORD PTR tv507[ebp]
  000ec	03 c1		 add	 eax, ecx
  000ee	50		 push	 eax
  000ef	52		 push	 edx
  000f0	51		 push	 ecx
  000f1	53		 push	 ebx
  000f2	ff 15 00 00 00
	00		 call	 DWORD PTR __imp__SetRect@20
; File D:\git\src\IBK\IBK_DRFN\ProjSrc\SrcDrfn\Chart\Common_ST\STGfxOutBarCtrl.cpp

; 2035 : 		rect.left += xLeftMargin + 2;

  000f8	8b 87 b4 00 00
	00		 mov	 eax, DWORD PTR [edi+180]
  000fe	83 c0 02	 add	 eax, 2
  00101	01 03		 add	 DWORD PTR [ebx], eax

; 2036 : 		rect.right += xLeftMargin + 2;

  00103	8b 87 b4 00 00
	00		 mov	 eax, DWORD PTR [edi+180]
  00109	83 c0 02	 add	 eax, 2
  0010c	01 43 08	 add	 DWORD PTR [ebx+8], eax

; 2037 : 		rect.top  += yTopMargin - 5;

  0010f	8b 87 b8 00 00
	00		 mov	 eax, DWORD PTR [edi+184]
  00115	83 e8 05	 sub	 eax, 5
  00118	01 43 04	 add	 DWORD PTR [ebx+4], eax

; 2038 : 		rect.bottom += yTopMargin - 5;

  0011b	8b 43 0c	 mov	 eax, DWORD PTR [ebx+12]
  0011e	83 c0 fb	 add	 eax, -5			; fffffffbH
  00121	03 87 b8 00 00
	00		 add	 eax, DWORD PTR [edi+184]
  00127	5f		 pop	 edi

; 2048 : 	}
; 2049 : }

  00128	5e		 pop	 esi
  00129	89 43 0c	 mov	 DWORD PTR [ebx+12], eax
  0012c	5b		 pop	 ebx
  0012d	8b 4d fc	 mov	 ecx, DWORD PTR __$ArrayPad$[ebp]
  00130	33 cd		 xor	 ecx, ebp
  00132	e8 00 00 00 00	 call	 @__security_check_cookie@4
  00137	8b e5		 mov	 esp, ebp
  00139	5d		 pop	 ebp
  0013a	c2 0c 00	 ret	 12			; 0000000cH
$LN6@GetLabelRe:

; 2042 : 		rect.SetRect(rc.left + (rc.Width() - sz.cx)/2, top, rc.left + (rc.Width() - sz.cx)/2 + sz.cx, top + sz.cy);

  0013d	8b 45 f4	 mov	 eax, DWORD PTR _rc$[ebp+8]
  00140	2b 45 e8	 sub	 eax, DWORD PTR tv507[ebp]
  00143	8b 75 ec	 mov	 esi, DWORD PTR _rc$[ebp]
  00146	2b c6		 sub	 eax, esi
  00148	8b 4d e0	 mov	 ecx, DWORD PTR tv485[ebp]
  0014b	99		 cdq
  0014c	2b c2		 sub	 eax, edx
  0014e	8b 55 e4	 mov	 edx, DWORD PTR _top$1$[ebp]
  00151	03 ca		 add	 ecx, edx
  00153	d1 f8		 sar	 eax, 1
; File C:\Program Files (x86)\Microsoft Visual Studio\2019\Community\VC\Tools\MSVC\14.29.30133\atlmfc\include\atltypes.h

; 657  : 	::SetRect(this, x1, y1, x2, y2);

  00155	51		 push	 ecx
; File D:\git\src\IBK\IBK_DRFN\ProjSrc\SrcDrfn\Chart\Common_ST\STGfxOutBarCtrl.cpp

; 2042 : 		rect.SetRect(rc.left + (rc.Width() - sz.cx)/2, top, rc.left + (rc.Width() - sz.cx)/2 + sz.cx, top + sz.cy);

  00156	8b 4d e8	 mov	 ecx, DWORD PTR tv507[ebp]
  00159	03 c8		 add	 ecx, eax
  0015b	03 c6		 add	 eax, esi
  0015d	03 ce		 add	 ecx, esi
; File C:\Program Files (x86)\Microsoft Visual Studio\2019\Community\VC\Tools\MSVC\14.29.30133\atlmfc\include\atltypes.h

; 657  : 	::SetRect(this, x1, y1, x2, y2);

  0015f	8b 75 d4	 mov	 esi, DWORD PTR _rect$GSCopy$1$[ebp]
  00162	51		 push	 ecx
  00163	52		 push	 edx
  00164	50		 push	 eax
  00165	56		 push	 esi
  00166	ff 15 00 00 00
	00		 call	 DWORD PTR __imp__SetRect@20
; File D:\git\src\IBK\IBK_DRFN\ProjSrc\SrcDrfn\Chart\Common_ST\STGfxOutBarCtrl.cpp

; 2043 : 		rect.top -= y + 3;

  0016c	b8 fd ff ff ff	 mov	 eax, -3			; fffffffdH
  00171	2b c3		 sub	 eax, ebx
  00173	01 46 04	 add	 DWORD PTR [esi+4], eax

; 2044 : 		rect.bottom -= y + 2;

  00176	b8 fe ff ff ff	 mov	 eax, -2			; fffffffeH
  0017b	2b c3		 sub	 eax, ebx
  0017d	01 46 0c	 add	 DWORD PTR [esi+12], eax
  00180	8b 4e 0c	 mov	 ecx, DWORD PTR [esi+12]

; 2045 : 
; 2046 : 		rect.bottom -=  yLargeIconSpacing;

  00183	2b 8f b0 00 00
	00		 sub	 ecx, DWORD PTR [edi+176]

; 2047 : 		rect.top    = rect.bottom - szLabel.cy;

  00189	8b c1		 mov	 eax, ecx
  0018b	2b 45 dc	 sub	 eax, DWORD PTR _szLabel$[ebp+4]
  0018e	89 46 04	 mov	 DWORD PTR [esi+4], eax

; 2048 : 	}
; 2049 : }

  00191	89 4e 0c	 mov	 DWORD PTR [esi+12], ecx
  00194	8b 4d fc	 mov	 ecx, DWORD PTR __$ArrayPad$[ebp]
  00197	5f		 pop	 edi
  00198	5e		 pop	 esi
  00199	33 cd		 xor	 ecx, ebp
  0019b	5b		 pop	 ebx
  0019c	e8 00 00 00 00	 call	 @__security_check_cookie@4
  001a1	8b e5		 mov	 esp, ebp
  001a3	5d		 pop	 ebp
  001a4	c2 0c 00	 ret	 12			; 0000000cH
?GetLabelRect@CSTGfxOutBarCtrl@@QAEXHHAAVCRect@@@Z ENDP	; CSTGfxOutBarCtrl::GetLabelRect
_TEXT	ENDS
; Function compile flags: /Ogtp
; File D:\git\src\IBK\IBK_DRFN\ProjSrc\SrcDrfn\Chart\Common_ST\STGfxOutBarCtrl.cpp
; File C:\Program Files (x86)\Microsoft Visual Studio\2019\Community\VC\Tools\MSVC\14.29.30133\atlmfc\include\afxcoll.inl
; File D:\git\src\IBK\IBK_DRFN\ProjSrc\SrcDrfn\Chart\Common_ST\STGfxOutBarCtrl.cpp
; File C:\Program Files (x86)\Microsoft Visual Studio\2019\Community\VC\Tools\MSVC\14.29.30133\atlmfc\include\afxcoll.inl
; File D:\git\src\IBK\IBK_DRFN\ProjSrc\SrcDrfn\Chart\Common_ST\STGfxOutBarCtrl.cpp
;	COMDAT ?SetFolderText@CSTGfxOutBarCtrl@@QAEXHPBD@Z
_TEXT	SEGMENT
_index$ = 8						; size = 4
_text$ = 12						; size = 4
?SetFolderText@CSTGfxOutBarCtrl@@QAEXHPBD@Z PROC	; CSTGfxOutBarCtrl::SetFolderText, COMDAT
; _this$ = ecx

; 179  : {

  00000	55		 push	 ebp
  00001	8b ec		 mov	 ebp, esp
; File C:\Program Files (x86)\Microsoft Visual Studio\2019\Community\VC\Tools\MSVC\14.29.30133\atlmfc\include\afxcoll.inl

; 203  : 		if( nIndex < 0 || nIndex >= m_nSize )

  00003	8b 55 08	 mov	 edx, DWORD PTR _index$[ebp]
  00006	85 d2		 test	 edx, edx
  00008	78 4a		 js	 SHORT $LN6@SetFolderT
  0000a	3b 91 08 01 00
	00		 cmp	 edx, DWORD PTR [ecx+264]
  00010	7d 42		 jge	 SHORT $LN6@SetFolderT

; 205  : 		return m_pData[nIndex]; }

  00012	8b 81 04 01 00
	00		 mov	 eax, DWORD PTR [ecx+260]
  00018	57		 push	 edi
  00019	8b 3c 90	 mov	 edi, DWORD PTR [eax+edx*4]
; File D:\git\src\IBK\IBK_DRFN\ProjSrc\SrcDrfn\Chart\Common_ST\STGfxOutBarCtrl.cpp

; 182  : 	if (pbf->cName) 

  0001c	8b 47 04	 mov	 eax, DWORD PTR [edi+4]
  0001f	85 c0		 test	 eax, eax
  00021	74 10		 je	 SHORT $LN2@SetFolderT

; 183  : 	{
; 184  : 		delete [] pbf->cName;

  00023	50		 push	 eax
  00024	e8 00 00 00 00	 call	 ??_V@YAXPAX@Z		; operator delete[]
  00029	83 c4 04	 add	 esp, 4

; 185  : 		pbf->cName = NULL;

  0002c	c7 47 04 00 00
	00 00		 mov	 DWORD PTR [edi+4], 0
$LN2@SetFolderT:

; 186  : 	}
; 187  : 	pbf->cName = new char [lstrlen(text)+1];

  00033	ff 75 0c	 push	 DWORD PTR _text$[ebp]
  00036	ff 15 00 00 00
	00		 call	 DWORD PTR __imp__lstrlenA@4
  0003c	40		 inc	 eax
  0003d	50		 push	 eax
  0003e	e8 00 00 00 00	 call	 ??_U@YAPAXI@Z		; operator new[]
  00043	83 c4 04	 add	 esp, 4
  00046	89 47 04	 mov	 DWORD PTR [edi+4], eax

; 188  : 	lstrcpy(pbf->cName, text);

  00049	5f		 pop	 edi
  0004a	89 45 08	 mov	 DWORD PTR _index$[ebp], eax

; 189  : }

  0004d	5d		 pop	 ebp

; 188  : 	lstrcpy(pbf->cName, text);

  0004e	ff 25 00 00 00
	00		 jmp	 DWORD PTR __imp__lstrcpyA@8
$LN6@SetFolderT:
; File C:\Program Files (x86)\Microsoft Visual Studio\2019\Community\VC\Tools\MSVC\14.29.30133\atlmfc\include\afxcoll.inl

; 204  : 			AfxThrowInvalidArgException();

  00054	e8 00 00 00 00	 call	 ?AfxThrowInvalidArgException@@YGXXZ ; AfxThrowInvalidArgException
$LN10@SetFolderT:
  00059	cc		 int	 3
?SetFolderText@CSTGfxOutBarCtrl@@QAEXHPBD@Z ENDP	; CSTGfxOutBarCtrl::SetFolderText
_TEXT	ENDS
; Function compile flags: /Ogtp
; File D:\git\src\IBK\IBK_DRFN\ProjSrc\SrcDrfn\Chart\Common_ST\STGfxOutBarCtrl.cpp
; File C:\Program Files (x86)\Microsoft Visual Studio\2019\Community\VC\Tools\MSVC\14.29.30133\atlmfc\include\afxcoll.inl
; File D:\git\src\IBK\IBK_DRFN\ProjSrc\SrcDrfn\Chart\Common_ST\STGfxOutBarCtrl.cpp
; File C:\Program Files (x86)\Microsoft Visual Studio\2019\Community\VC\Tools\MSVC\14.29.30133\atlmfc\include\afxcoll.inl
; File D:\git\src\IBK\IBK_DRFN\ProjSrc\SrcDrfn\Chart\Common_ST\STGfxOutBarCtrl.cpp
; File C:\Program Files (x86)\Microsoft Visual Studio\2019\Community\VC\Tools\MSVC\14.29.30133\atlmfc\include\afxcoll.inl
; File D:\git\src\IBK\IBK_DRFN\ProjSrc\SrcDrfn\Chart\Common_ST\STGfxOutBarCtrl.cpp
; File C:\Program Files (x86)\Microsoft Visual Studio\2019\Community\VC\Tools\MSVC\14.29.30133\atlmfc\include\afxcoll.inl
; File D:\git\src\IBK\IBK_DRFN\ProjSrc\SrcDrfn\Chart\Common_ST\STGfxOutBarCtrl.cpp
;	COMDAT ?SetItemText@CSTGfxOutBarCtrl@@QAEXHPBD@Z
_TEXT	SEGMENT
_index$ = 8						; size = 4
_text$ = 12						; size = 4
?SetItemText@CSTGfxOutBarCtrl@@QAEXHPBD@Z PROC		; CSTGfxOutBarCtrl::SetItemText, COMDAT
; _this$ = ecx

; 192  : {

  00000	55		 push	 ebp
  00001	8b ec		 mov	 ebp, esp

; 193  : 	ASSERT(iSelFolder >= 0 && iSelFolder < GetFolderCount());
; 194  : 	CBarFolder * pbf = (CBarFolder *) arFolder.GetAt(iSelFolder);

  00003	8b 91 30 01 00
	00		 mov	 edx, DWORD PTR [ecx+304]
; File C:\Program Files (x86)\Microsoft Visual Studio\2019\Community\VC\Tools\MSVC\14.29.30133\atlmfc\include\afxcoll.inl

; 203  : 		if( nIndex < 0 || nIndex >= m_nSize )

  00009	85 d2		 test	 edx, edx
  0000b	78 5c		 js	 SHORT $LN6@SetItemTex
  0000d	3b 91 08 01 00
	00		 cmp	 edx, DWORD PTR [ecx+264]
  00013	7d 54		 jge	 SHORT $LN6@SetItemTex
; File D:\git\src\IBK\IBK_DRFN\ProjSrc\SrcDrfn\Chart\Common_ST\STGfxOutBarCtrl.cpp

; 195  : 	CBarItem * pi = (CBarItem *) pbf->arItems.GetAt(index);

  00015	8b 81 04 01 00
	00		 mov	 eax, DWORD PTR [ecx+260]
; File C:\Program Files (x86)\Microsoft Visual Studio\2019\Community\VC\Tools\MSVC\14.29.30133\atlmfc\include\afxcoll.inl

; 203  : 		if( nIndex < 0 || nIndex >= m_nSize )

  0001b	8b 4d 08	 mov	 ecx, DWORD PTR _index$[ebp]
; File D:\git\src\IBK\IBK_DRFN\ProjSrc\SrcDrfn\Chart\Common_ST\STGfxOutBarCtrl.cpp

; 195  : 	CBarItem * pi = (CBarItem *) pbf->arItems.GetAt(index);

  0001e	8b 04 90	 mov	 eax, DWORD PTR [eax+edx*4]
; File C:\Program Files (x86)\Microsoft Visual Studio\2019\Community\VC\Tools\MSVC\14.29.30133\atlmfc\include\afxcoll.inl

; 203  : 		if( nIndex < 0 || nIndex >= m_nSize )

  00021	85 c9		 test	 ecx, ecx
  00023	78 44		 js	 SHORT $LN6@SetItemTex
  00025	3b 48 1c	 cmp	 ecx, DWORD PTR [eax+28]
  00028	7d 3f		 jge	 SHORT $LN6@SetItemTex

; 205  : 		return m_pData[nIndex]; }

  0002a	8b 40 18	 mov	 eax, DWORD PTR [eax+24]
  0002d	57		 push	 edi
  0002e	8b 3c 88	 mov	 edi, DWORD PTR [eax+ecx*4]
; File D:\git\src\IBK\IBK_DRFN\ProjSrc\SrcDrfn\Chart\Common_ST\STGfxOutBarCtrl.cpp

; 196  : 	if (pi->cItem) 

  00031	8b 47 08	 mov	 eax, DWORD PTR [edi+8]
  00034	85 c0		 test	 eax, eax
  00036	74 10		 je	 SHORT $LN2@SetItemTex

; 197  : 	{
; 198  : 		delete [] pi->cItem;

  00038	50		 push	 eax
  00039	e8 00 00 00 00	 call	 ??_V@YAXPAX@Z		; operator delete[]
  0003e	83 c4 04	 add	 esp, 4

; 199  : 		pi->cItem = NULL;

  00041	c7 47 08 00 00
	00 00		 mov	 DWORD PTR [edi+8], 0
$LN2@SetItemTex:

; 200  : 	}
; 201  : 	pi->cItem = new char [lstrlen(text)+1];

  00048	ff 75 0c	 push	 DWORD PTR _text$[ebp]
  0004b	ff 15 00 00 00
	00		 call	 DWORD PTR __imp__lstrlenA@4
  00051	40		 inc	 eax
  00052	50		 push	 eax
  00053	e8 00 00 00 00	 call	 ??_U@YAPAXI@Z		; operator new[]
  00058	83 c4 04	 add	 esp, 4
  0005b	89 47 08	 mov	 DWORD PTR [edi+8], eax

; 202  : 	lstrcpy(pi->cItem, text);

  0005e	5f		 pop	 edi
  0005f	89 45 08	 mov	 DWORD PTR _index$[ebp], eax

; 203  : }

  00062	5d		 pop	 ebp

; 202  : 	lstrcpy(pi->cItem, text);

  00063	ff 25 00 00 00
	00		 jmp	 DWORD PTR __imp__lstrcpyA@8
$LN6@SetItemTex:
; File C:\Program Files (x86)\Microsoft Visual Studio\2019\Community\VC\Tools\MSVC\14.29.30133\atlmfc\include\afxcoll.inl

; 204  : 			AfxThrowInvalidArgException();

  00069	e8 00 00 00 00	 call	 ?AfxThrowInvalidArgException@@YGXXZ ; AfxThrowInvalidArgException
$LN14@SetItemTex:
  0006e	cc		 int	 3
?SetItemText@CSTGfxOutBarCtrl@@QAEXHPBD@Z ENDP		; CSTGfxOutBarCtrl::SetItemText
_TEXT	ENDS
; Function compile flags: /Ogtp
; File D:\git\src\IBK\IBK_DRFN\ProjSrc\SrcDrfn\Chart\Common_ST\STGfxOutBarCtrl.cpp
; File C:\Program Files (x86)\Microsoft Visual Studio\2019\Community\VC\Tools\MSVC\14.29.30133\atlmfc\include\afxcoll.inl
; File D:\git\src\IBK\IBK_DRFN\ProjSrc\SrcDrfn\Chart\Common_ST\STGfxOutBarCtrl.cpp
; File C:\Program Files (x86)\Microsoft Visual Studio\2019\Community\VC\Tools\MSVC\14.29.30133\atlmfc\include\atltypes.h
; File D:\git\src\IBK\IBK_DRFN\ProjSrc\SrcDrfn\Chart\Common_ST\STGfxOutBarCtrl.cpp
; File C:\Program Files (x86)\Microsoft Visual Studio\2019\Community\VC\Tools\MSVC\14.29.30133\atlmfc\include\afxwin2.inl
; File D:\git\src\IBK\IBK_DRFN\ProjSrc\SrcDrfn\Chart\Common_ST\STGfxOutBarCtrl.cpp
; File C:\Program Files (x86)\Microsoft Visual Studio\2019\Community\VC\Tools\MSVC\14.29.30133\atlmfc\include\afxcoll.inl
; File D:\git\src\IBK\IBK_DRFN\ProjSrc\SrcDrfn\Chart\Common_ST\STGfxOutBarCtrl.cpp
;	COMDAT ?RemoveItem@CSTGfxOutBarCtrl@@QAEXH@Z
_TEXT	SEGMENT
_rc$1 = -20						; size = 16
__$ArrayPad$ = -4					; size = 4
_index$ = 8						; size = 4
?RemoveItem@CSTGfxOutBarCtrl@@QAEXH@Z PROC		; CSTGfxOutBarCtrl::RemoveItem, COMDAT
; _this$ = ecx

; 2212 : {

  00000	55		 push	 ebp
  00001	8b ec		 mov	 ebp, esp
  00003	83 ec 14	 sub	 esp, 20			; 00000014H
  00006	a1 00 00 00 00	 mov	 eax, DWORD PTR ___security_cookie
  0000b	33 c5		 xor	 eax, ebp
  0000d	89 45 fc	 mov	 DWORD PTR __$ArrayPad$[ebp], eax
  00010	56		 push	 esi
  00011	8b f1		 mov	 esi, ecx
  00013	57		 push	 edi
  00014	8b 7d 08	 mov	 edi, DWORD PTR _index$[ebp]

; 2213 : 	ASSERT(iSelFolder >= 0 && iSelFolder < GetFolderCount());
; 2214 : 	CBarFolder * pbf = (CBarFolder *) arFolder.GetAt(iSelFolder);

  00017	8b 8e 30 01 00
	00		 mov	 ecx, DWORD PTR [esi+304]
; File C:\Program Files (x86)\Microsoft Visual Studio\2019\Community\VC\Tools\MSVC\14.29.30133\atlmfc\include\afxcoll.inl

; 203  : 		if( nIndex < 0 || nIndex >= m_nSize )

  0001d	85 c9		 test	 ecx, ecx
  0001f	78 6c		 js	 SHORT $LN8@RemoveItem
  00021	3b 8e 08 01 00
	00		 cmp	 ecx, DWORD PTR [esi+264]
  00027	7d 64		 jge	 SHORT $LN8@RemoveItem

; 205  : 		return m_pData[nIndex]; }

  00029	8b 86 04 01 00
	00		 mov	 eax, DWORD PTR [esi+260]
  0002f	8b 04 88	 mov	 eax, DWORD PTR [eax+ecx*4]
; File D:\git\src\IBK\IBK_DRFN\ProjSrc\SrcDrfn\Chart\Common_ST\STGfxOutBarCtrl.cpp

; 2232 : 	return (index >= 0 && index < pbf->GetItemCount());

  00032	85 ff		 test	 edi, edi
  00034	78 45		 js	 SHORT $LN2@RemoveItem
  00036	3b 78 1c	 cmp	 edi, DWORD PTR [eax+28]
  00039	7d 40		 jge	 SHORT $LN2@RemoveItem
  0003b	53		 push	 ebx
  0003c	8d 58 14	 lea	 ebx, DWORD PTR [eax+20]

; 2215 : 	ASSERT(index >= 0 && index < pbf->GetItemCount());
; 2216 : 	if (IsValidItem(index))
; 2217 : 	{
; 2218 : 		CBarItem * i = (CBarItem *) pbf->arItems.GetAt(index);
; 2219 : 		delete i;

  0003f	8b 40 18	 mov	 eax, DWORD PTR [eax+24]
  00042	8b 0c b8	 mov	 ecx, DWORD PTR [eax+edi*4]
  00045	85 c9		 test	 ecx, ecx
  00047	74 06		 je	 SHORT $LN4@RemoveItem
  00049	8b 01		 mov	 eax, DWORD PTR [ecx]
  0004b	6a 01		 push	 1
  0004d	ff 10		 call	 DWORD PTR [eax]
$LN4@RemoveItem:

; 2220 : 
; 2221 : 		pbf->arItems.RemoveAt(index);

  0004f	6a 01		 push	 1
  00051	57		 push	 edi
  00052	8b cb		 mov	 ecx, ebx
  00054	e8 00 00 00 00	 call	 ?RemoveAt@CPtrArray@@QAEXHH@Z ; CPtrArray::RemoveAt

; 2223 : 		GetInsideRect(rc);

  00059	8d 45 ec	 lea	 eax, DWORD PTR _rc$1[ebp]
  0005c	0f 57 c0	 xorps	 xmm0, xmm0
  0005f	50		 push	 eax
  00060	8b ce		 mov	 ecx, esi
; File C:\Program Files (x86)\Microsoft Visual Studio\2019\Community\VC\Tools\MSVC\14.29.30133\atlmfc\include\atltypes.h

; 528  : 	left = 0;

  00062	0f 11 45 ec	 movups	 XMMWORD PTR _rc$1[ebp], xmm0
; File D:\git\src\IBK\IBK_DRFN\ProjSrc\SrcDrfn\Chart\Common_ST\STGfxOutBarCtrl.cpp

; 2223 : 		GetInsideRect(rc);

  00066	e8 00 00 00 00	 call	 ?GetInsideRect@CSTGfxOutBarCtrl@@QBEXAAVCRect@@@Z ; CSTGfxOutBarCtrl::GetInsideRect
; File C:\Program Files (x86)\Microsoft Visual Studio\2019\Community\VC\Tools\MSVC\14.29.30133\atlmfc\include\afxwin2.inl

; 116  : 	{ ASSERT(::IsWindow(m_hWnd)); ::InvalidateRect(m_hWnd, lpRect, bErase); }

  0006b	6a 01		 push	 1
  0006d	8d 45 ec	 lea	 eax, DWORD PTR _rc$1[ebp]
  00070	50		 push	 eax
  00071	ff 76 20	 push	 DWORD PTR [esi+32]
  00074	ff 15 00 00 00
	00		 call	 DWORD PTR __imp__InvalidateRect@12
  0007a	5b		 pop	 ebx
$LN2@RemoveItem:
; File D:\git\src\IBK\IBK_DRFN\ProjSrc\SrcDrfn\Chart\Common_ST\STGfxOutBarCtrl.cpp

; 2226 : }

  0007b	8b 4d fc	 mov	 ecx, DWORD PTR __$ArrayPad$[ebp]
  0007e	5f		 pop	 edi
  0007f	33 cd		 xor	 ecx, ebp
  00081	5e		 pop	 esi
  00082	e8 00 00 00 00	 call	 @__security_check_cookie@4
  00087	8b e5		 mov	 esp, ebp
  00089	5d		 pop	 ebp
  0008a	c2 04 00	 ret	 4
$LN8@RemoveItem:
; File C:\Program Files (x86)\Microsoft Visual Studio\2019\Community\VC\Tools\MSVC\14.29.30133\atlmfc\include\afxcoll.inl

; 204  : 			AfxThrowInvalidArgException();

  0008d	e8 00 00 00 00	 call	 ?AfxThrowInvalidArgException@@YGXXZ ; AfxThrowInvalidArgException
$LN41@RemoveItem:
  00092	cc		 int	 3
?RemoveItem@CSTGfxOutBarCtrl@@QAEXH@Z ENDP		; CSTGfxOutBarCtrl::RemoveItem
_TEXT	ENDS
; Function compile flags: /Ogtp
; File D:\git\src\IBK\IBK_DRFN\ProjSrc\SrcDrfn\Chart\Common_ST\STGfxOutBarCtrl.cpp
; File C:\Program Files (x86)\Microsoft Visual Studio\2019\Community\VC\Tools\MSVC\14.29.30133\atlmfc\include\afxcoll.inl
; File D:\git\src\IBK\IBK_DRFN\ProjSrc\SrcDrfn\Chart\Common_ST\STGfxOutBarCtrl.cpp
; File C:\Program Files (x86)\Microsoft Visual Studio\2019\Community\VC\Tools\MSVC\14.29.30133\atlmfc\include\afxcoll.inl
; File D:\git\src\IBK\IBK_DRFN\ProjSrc\SrcDrfn\Chart\Common_ST\STGfxOutBarCtrl.cpp
;	COMDAT ?IsValidItem@CSTGfxOutBarCtrl@@QBE_NH@Z
_TEXT	SEGMENT
_index$ = 8						; size = 4
?IsValidItem@CSTGfxOutBarCtrl@@QBE_NH@Z PROC		; CSTGfxOutBarCtrl::IsValidItem, COMDAT
; _this$ = ecx

; 2229 : {

  00000	55		 push	 ebp
  00001	8b ec		 mov	 ebp, esp

; 2230 : 	ASSERT(iSelFolder >= 0 && iSelFolder < GetFolderCount());
; 2231 : 	CBarFolder * pbf = (CBarFolder *) arFolder.GetAt(iSelFolder);

  00003	8b 91 30 01 00
	00		 mov	 edx, DWORD PTR [ecx+304]
; File C:\Program Files (x86)\Microsoft Visual Studio\2019\Community\VC\Tools\MSVC\14.29.30133\atlmfc\include\afxcoll.inl

; 203  : 		if( nIndex < 0 || nIndex >= m_nSize )

  00009	85 d2		 test	 edx, edx
  0000b	78 2c		 js	 SHORT $LN7@IsValidIte
  0000d	3b 91 08 01 00
	00		 cmp	 edx, DWORD PTR [ecx+264]
  00013	7d 24		 jge	 SHORT $LN7@IsValidIte
; File D:\git\src\IBK\IBK_DRFN\ProjSrc\SrcDrfn\Chart\Common_ST\STGfxOutBarCtrl.cpp

; 2232 : 	return (index >= 0 && index < pbf->GetItemCount());

  00015	56		 push	 esi
  00016	8b 75 08	 mov	 esi, DWORD PTR _index$[ebp]
  00019	85 f6		 test	 esi, esi
  0001b	78 15		 js	 SHORT $LN3@IsValidIte
  0001d	8b 81 04 01 00
	00		 mov	 eax, DWORD PTR [ecx+260]
  00023	8b 04 90	 mov	 eax, DWORD PTR [eax+edx*4]
  00026	3b 70 1c	 cmp	 esi, DWORD PTR [eax+28]
  00029	7d 07		 jge	 SHORT $LN3@IsValidIte
  0002b	b0 01		 mov	 al, 1
  0002d	5e		 pop	 esi

; 2233 : }

  0002e	5d		 pop	 ebp
  0002f	c2 04 00	 ret	 4
$LN3@IsValidIte:

; 2232 : 	return (index >= 0 && index < pbf->GetItemCount());

  00032	32 c0		 xor	 al, al
  00034	5e		 pop	 esi

; 2233 : }

  00035	5d		 pop	 ebp
  00036	c2 04 00	 ret	 4
$LN7@IsValidIte:
; File C:\Program Files (x86)\Microsoft Visual Studio\2019\Community\VC\Tools\MSVC\14.29.30133\atlmfc\include\afxcoll.inl

; 204  : 			AfxThrowInvalidArgException();

  00039	e8 00 00 00 00	 call	 ?AfxThrowInvalidArgException@@YGXXZ ; AfxThrowInvalidArgException
$LN10@IsValidIte:
  0003e	cc		 int	 3
?IsValidItem@CSTGfxOutBarCtrl@@QBE_NH@Z ENDP		; CSTGfxOutBarCtrl::IsValidItem
_TEXT	ENDS
; Function compile flags: /Ogtp
; File D:\git\src\IBK\IBK_DRFN\ProjSrc\SrcDrfn\Chart\Common_ST\STGfxOutBarCtrl.cpp
; File C:\Program Files (x86)\Microsoft Visual Studio\2019\Community\VC\Tools\MSVC\14.29.30133\atlmfc\include\afxcoll.inl
; File D:\git\src\IBK\IBK_DRFN\ProjSrc\SrcDrfn\Chart\Common_ST\STGfxOutBarCtrl.cpp
; File C:\Program Files (x86)\Microsoft Visual Studio\2019\Community\VC\Tools\MSVC\14.29.30133\atlmfc\include\afxcoll.inl
; File D:\git\src\IBK\IBK_DRFN\ProjSrc\SrcDrfn\Chart\Common_ST\STGfxOutBarCtrl.cpp
; File C:\Program Files (x86)\Microsoft Visual Studio\2019\Community\VC\Tools\MSVC\14.29.30133\atlmfc\include\afxcoll.inl
; File D:\git\src\IBK\IBK_DRFN\ProjSrc\SrcDrfn\Chart\Common_ST\STGfxOutBarCtrl.cpp
;	COMDAT ?GetItemData@CSTGfxOutBarCtrl@@QBEKH@Z
_TEXT	SEGMENT
_index$ = 8						; size = 4
?GetItemData@CSTGfxOutBarCtrl@@QBEKH@Z PROC		; CSTGfxOutBarCtrl::GetItemData, COMDAT
; _this$ = ecx

; 2236 : {

  00000	55		 push	 ebp
  00001	8b ec		 mov	 ebp, esp

; 2237 : 	ASSERT(iSelFolder >= 0 && iSelFolder < GetFolderCount());
; 2238 : 	CBarFolder * pbf = (CBarFolder *) arFolder.GetAt(iSelFolder);

  00003	8b 91 30 01 00
	00		 mov	 edx, DWORD PTR [ecx+304]
; File C:\Program Files (x86)\Microsoft Visual Studio\2019\Community\VC\Tools\MSVC\14.29.30133\atlmfc\include\afxcoll.inl

; 203  : 		if( nIndex < 0 || nIndex >= m_nSize )

  00009	85 d2		 test	 edx, edx
  0000b	78 30		 js	 SHORT $LN6@GetItemDat
  0000d	3b 91 08 01 00
	00		 cmp	 edx, DWORD PTR [ecx+264]
  00013	7d 28		 jge	 SHORT $LN6@GetItemDat

; 205  : 		return m_pData[nIndex]; }

  00015	8b 81 04 01 00
	00		 mov	 eax, DWORD PTR [ecx+260]
; File D:\git\src\IBK\IBK_DRFN\ProjSrc\SrcDrfn\Chart\Common_ST\STGfxOutBarCtrl.cpp

; 2232 : 	return (index >= 0 && index < pbf->GetItemCount());

  0001b	8b 4d 08	 mov	 ecx, DWORD PTR _index$[ebp]
; File C:\Program Files (x86)\Microsoft Visual Studio\2019\Community\VC\Tools\MSVC\14.29.30133\atlmfc\include\afxcoll.inl

; 205  : 		return m_pData[nIndex]; }

  0001e	8b 04 90	 mov	 eax, DWORD PTR [eax+edx*4]
; File D:\git\src\IBK\IBK_DRFN\ProjSrc\SrcDrfn\Chart\Common_ST\STGfxOutBarCtrl.cpp

; 2232 : 	return (index >= 0 && index < pbf->GetItemCount());

  00021	85 c9		 test	 ecx, ecx
  00023	78 12		 js	 SHORT $LN2@GetItemDat
  00025	3b 48 1c	 cmp	 ecx, DWORD PTR [eax+28]
  00028	7d 0d		 jge	 SHORT $LN2@GetItemDat

; 2239 : 	if (IsValidItem(index))
; 2240 : 	{
; 2241 : 		CBarItem * i = (CBarItem *) pbf->arItems.GetAt(index);
; 2242 : 		return i->dwData;

  0002a	8b 40 18	 mov	 eax, DWORD PTR [eax+24]
  0002d	8b 04 88	 mov	 eax, DWORD PTR [eax+ecx*4]
  00030	8b 40 0c	 mov	 eax, DWORD PTR [eax+12]

; 2245 : }

  00033	5d		 pop	 ebp
  00034	c2 04 00	 ret	 4
$LN2@GetItemDat:

; 2243 : 	}
; 2244 : 	return 0;

  00037	33 c0		 xor	 eax, eax

; 2245 : }

  00039	5d		 pop	 ebp
  0003a	c2 04 00	 ret	 4
$LN6@GetItemDat:
; File C:\Program Files (x86)\Microsoft Visual Studio\2019\Community\VC\Tools\MSVC\14.29.30133\atlmfc\include\afxcoll.inl

; 204  : 			AfxThrowInvalidArgException();

  0003d	e8 00 00 00 00	 call	 ?AfxThrowInvalidArgException@@YGXXZ ; AfxThrowInvalidArgException
$LN23@GetItemDat:
  00042	cc		 int	 3
?GetItemData@CSTGfxOutBarCtrl@@QBEKH@Z ENDP		; CSTGfxOutBarCtrl::GetItemData
_TEXT	ENDS
; Function compile flags: /Ogtp
; File D:\git\src\IBK\IBK_DRFN\ProjSrc\SrcDrfn\Chart\Common_ST\STGfxOutBarCtrl.cpp
; File C:\Program Files (x86)\Microsoft Visual Studio\2019\Community\VC\Tools\MSVC\14.29.30133\atlmfc\include\afxcoll.inl
; File D:\git\src\IBK\IBK_DRFN\ProjSrc\SrcDrfn\Chart\Common_ST\STGfxOutBarCtrl.cpp
; File C:\Program Files (x86)\Microsoft Visual Studio\2019\Community\VC\Tools\MSVC\14.29.30133\atlmfc\include\afxcoll.inl
; File D:\git\src\IBK\IBK_DRFN\ProjSrc\SrcDrfn\Chart\Common_ST\STGfxOutBarCtrl.cpp
; File C:\Program Files (x86)\Microsoft Visual Studio\2019\Community\VC\Tools\MSVC\14.29.30133\atlmfc\include\afxcoll.inl
; File D:\git\src\IBK\IBK_DRFN\ProjSrc\SrcDrfn\Chart\Common_ST\STGfxOutBarCtrl.cpp
;	COMDAT ?GetItemImage@CSTGfxOutBarCtrl@@QBEHH@Z
_TEXT	SEGMENT
_index$ = 8						; size = 4
?GetItemImage@CSTGfxOutBarCtrl@@QBEHH@Z PROC		; CSTGfxOutBarCtrl::GetItemImage, COMDAT
; _this$ = ecx

; 2248 : {

  00000	55		 push	 ebp
  00001	8b ec		 mov	 ebp, esp

; 2249 : 	ASSERT(iSelFolder >= 0 && iSelFolder < GetFolderCount());
; 2250 : 	CBarFolder * pbf = (CBarFolder *) arFolder.GetAt(iSelFolder);

  00003	8b 91 30 01 00
	00		 mov	 edx, DWORD PTR [ecx+304]
; File C:\Program Files (x86)\Microsoft Visual Studio\2019\Community\VC\Tools\MSVC\14.29.30133\atlmfc\include\afxcoll.inl

; 203  : 		if( nIndex < 0 || nIndex >= m_nSize )

  00009	85 d2		 test	 edx, edx
  0000b	78 30		 js	 SHORT $LN6@GetItemIma
  0000d	3b 91 08 01 00
	00		 cmp	 edx, DWORD PTR [ecx+264]
  00013	7d 28		 jge	 SHORT $LN6@GetItemIma

; 205  : 		return m_pData[nIndex]; }

  00015	8b 81 04 01 00
	00		 mov	 eax, DWORD PTR [ecx+260]
; File D:\git\src\IBK\IBK_DRFN\ProjSrc\SrcDrfn\Chart\Common_ST\STGfxOutBarCtrl.cpp

; 2232 : 	return (index >= 0 && index < pbf->GetItemCount());

  0001b	8b 4d 08	 mov	 ecx, DWORD PTR _index$[ebp]
; File C:\Program Files (x86)\Microsoft Visual Studio\2019\Community\VC\Tools\MSVC\14.29.30133\atlmfc\include\afxcoll.inl

; 205  : 		return m_pData[nIndex]; }

  0001e	8b 04 90	 mov	 eax, DWORD PTR [eax+edx*4]
; File D:\git\src\IBK\IBK_DRFN\ProjSrc\SrcDrfn\Chart\Common_ST\STGfxOutBarCtrl.cpp

; 2232 : 	return (index >= 0 && index < pbf->GetItemCount());

  00021	85 c9		 test	 ecx, ecx
  00023	78 12		 js	 SHORT $LN2@GetItemIma
  00025	3b 48 1c	 cmp	 ecx, DWORD PTR [eax+28]
  00028	7d 0d		 jge	 SHORT $LN2@GetItemIma

; 2251 : 	if (IsValidItem(index))
; 2252 : 	{
; 2253 : 		CBarItem * i = (CBarItem *) pbf->arItems.GetAt(index);
; 2254 : 		return i->iImageIndex;

  0002a	8b 40 18	 mov	 eax, DWORD PTR [eax+24]
  0002d	8b 04 88	 mov	 eax, DWORD PTR [eax+ecx*4]
  00030	8b 40 04	 mov	 eax, DWORD PTR [eax+4]

; 2257 : }

  00033	5d		 pop	 ebp
  00034	c2 04 00	 ret	 4
$LN2@GetItemIma:

; 2255 : 	}
; 2256 : 	return 0;

  00037	33 c0		 xor	 eax, eax

; 2257 : }

  00039	5d		 pop	 ebp
  0003a	c2 04 00	 ret	 4
$LN6@GetItemIma:
; File C:\Program Files (x86)\Microsoft Visual Studio\2019\Community\VC\Tools\MSVC\14.29.30133\atlmfc\include\afxcoll.inl

; 204  : 			AfxThrowInvalidArgException();

  0003d	e8 00 00 00 00	 call	 ?AfxThrowInvalidArgException@@YGXXZ ; AfxThrowInvalidArgException
$LN23@GetItemIma:
  00042	cc		 int	 3
?GetItemImage@CSTGfxOutBarCtrl@@QBEHH@Z ENDP		; CSTGfxOutBarCtrl::GetItemImage
_TEXT	ENDS
; Function compile flags: /Ogtp
; File D:\git\src\IBK\IBK_DRFN\ProjSrc\SrcDrfn\Chart\Common_ST\STGfxOutBarCtrl.cpp
; File C:\Program Files (x86)\Microsoft Visual Studio\2019\Community\VC\Tools\MSVC\14.29.30133\atlmfc\include\afxcoll.inl
; File D:\git\src\IBK\IBK_DRFN\ProjSrc\SrcDrfn\Chart\Common_ST\STGfxOutBarCtrl.cpp
; File C:\Program Files (x86)\Microsoft Visual Studio\2019\Community\VC\Tools\MSVC\14.29.30133\atlmfc\include\afxcoll.inl
; File D:\git\src\IBK\IBK_DRFN\ProjSrc\SrcDrfn\Chart\Common_ST\STGfxOutBarCtrl.cpp
; File C:\Program Files (x86)\Microsoft Visual Studio\2019\Community\VC\Tools\MSVC\14.29.30133\atlmfc\include\afxcoll.inl
; File D:\git\src\IBK\IBK_DRFN\ProjSrc\SrcDrfn\Chart\Common_ST\STGfxOutBarCtrl.cpp
;	COMDAT ?SetItemData@CSTGfxOutBarCtrl@@QAEXHK@Z
_TEXT	SEGMENT
_index$ = 8						; size = 4
_dwData$ = 12						; size = 4
?SetItemData@CSTGfxOutBarCtrl@@QAEXHK@Z PROC		; CSTGfxOutBarCtrl::SetItemData, COMDAT
; _this$ = ecx

; 2260 : {

  00000	55		 push	 ebp
  00001	8b ec		 mov	 ebp, esp

; 2261 : 	ASSERT(iSelFolder >= 0 && iSelFolder < GetFolderCount());
; 2262 : 	CBarFolder * pbf = (CBarFolder *) arFolder.GetAt(iSelFolder);

  00003	8b 91 30 01 00
	00		 mov	 edx, DWORD PTR [ecx+304]
; File C:\Program Files (x86)\Microsoft Visual Studio\2019\Community\VC\Tools\MSVC\14.29.30133\atlmfc\include\afxcoll.inl

; 203  : 		if( nIndex < 0 || nIndex >= m_nSize )

  00009	85 d2		 test	 edx, edx
  0000b	78 2d		 js	 SHORT $LN6@SetItemDat
  0000d	3b 91 08 01 00
	00		 cmp	 edx, DWORD PTR [ecx+264]
  00013	7d 25		 jge	 SHORT $LN6@SetItemDat

; 205  : 		return m_pData[nIndex]; }

  00015	8b 81 04 01 00
	00		 mov	 eax, DWORD PTR [ecx+260]
; File D:\git\src\IBK\IBK_DRFN\ProjSrc\SrcDrfn\Chart\Common_ST\STGfxOutBarCtrl.cpp

; 2232 : 	return (index >= 0 && index < pbf->GetItemCount());

  0001b	8b 4d 08	 mov	 ecx, DWORD PTR _index$[ebp]
; File C:\Program Files (x86)\Microsoft Visual Studio\2019\Community\VC\Tools\MSVC\14.29.30133\atlmfc\include\afxcoll.inl

; 205  : 		return m_pData[nIndex]; }

  0001e	8b 04 90	 mov	 eax, DWORD PTR [eax+edx*4]
; File D:\git\src\IBK\IBK_DRFN\ProjSrc\SrcDrfn\Chart\Common_ST\STGfxOutBarCtrl.cpp

; 2232 : 	return (index >= 0 && index < pbf->GetItemCount());

  00021	85 c9		 test	 ecx, ecx
  00023	78 11		 js	 SHORT $LN2@SetItemDat
  00025	3b 48 1c	 cmp	 ecx, DWORD PTR [eax+28]
  00028	7d 0c		 jge	 SHORT $LN2@SetItemDat

; 2263 : 	if (IsValidItem(index))
; 2264 : 	{
; 2265 : 		CBarItem * i = (CBarItem *) pbf->arItems.GetAt(index);
; 2266 : 		i->dwData = dwData;

  0002a	8b 40 18	 mov	 eax, DWORD PTR [eax+24]
  0002d	8b 0c 88	 mov	 ecx, DWORD PTR [eax+ecx*4]
  00030	8b 45 0c	 mov	 eax, DWORD PTR _dwData$[ebp]
  00033	89 41 0c	 mov	 DWORD PTR [ecx+12], eax
$LN2@SetItemDat:

; 2268 : }

  00036	5d		 pop	 ebp
  00037	c2 08 00	 ret	 8
$LN6@SetItemDat:
; File C:\Program Files (x86)\Microsoft Visual Studio\2019\Community\VC\Tools\MSVC\14.29.30133\atlmfc\include\afxcoll.inl

; 204  : 			AfxThrowInvalidArgException();

  0003a	e8 00 00 00 00	 call	 ?AfxThrowInvalidArgException@@YGXXZ ; AfxThrowInvalidArgException
$LN23@SetItemDat:
  0003f	cc		 int	 3
?SetItemData@CSTGfxOutBarCtrl@@QAEXHK@Z ENDP		; CSTGfxOutBarCtrl::SetItemData
_TEXT	ENDS
; Function compile flags: /Ogtp
; File D:\git\src\IBK\IBK_DRFN\ProjSrc\SrcDrfn\Chart\Common_ST\STGfxOutBarCtrl.cpp
; File C:\Program Files (x86)\Microsoft Visual Studio\2019\Community\VC\Tools\MSVC\14.29.30133\atlmfc\include\afxcoll.inl
; File D:\git\src\IBK\IBK_DRFN\ProjSrc\SrcDrfn\Chart\Common_ST\STGfxOutBarCtrl.cpp
; File C:\Program Files (x86)\Microsoft Visual Studio\2019\Community\VC\Tools\MSVC\14.29.30133\atlmfc\include\afxcoll.inl
; File D:\git\src\IBK\IBK_DRFN\ProjSrc\SrcDrfn\Chart\Common_ST\STGfxOutBarCtrl.cpp
; File C:\Program Files (x86)\Microsoft Visual Studio\2019\Community\VC\Tools\MSVC\14.29.30133\atlmfc\include\afxcoll.inl
; File D:\git\src\IBK\IBK_DRFN\ProjSrc\SrcDrfn\Chart\Common_ST\STGfxOutBarCtrl.cpp
;	COMDAT ?SetItemImage@CSTGfxOutBarCtrl@@QAEXHH@Z
_TEXT	SEGMENT
_index$ = 8						; size = 4
_iImage$ = 12						; size = 4
?SetItemImage@CSTGfxOutBarCtrl@@QAEXHH@Z PROC		; CSTGfxOutBarCtrl::SetItemImage, COMDAT
; _this$ = ecx

; 2271 : {

  00000	55		 push	 ebp
  00001	8b ec		 mov	 ebp, esp

; 2272 : 	ASSERT(iSelFolder >= 0 && iSelFolder < GetFolderCount());
; 2273 : 	CBarFolder * pbf = (CBarFolder *) arFolder.GetAt(iSelFolder);

  00003	8b 91 30 01 00
	00		 mov	 edx, DWORD PTR [ecx+304]
; File C:\Program Files (x86)\Microsoft Visual Studio\2019\Community\VC\Tools\MSVC\14.29.30133\atlmfc\include\afxcoll.inl

; 203  : 		if( nIndex < 0 || nIndex >= m_nSize )

  00009	85 d2		 test	 edx, edx
  0000b	78 2d		 js	 SHORT $LN6@SetItemIma
  0000d	3b 91 08 01 00
	00		 cmp	 edx, DWORD PTR [ecx+264]
  00013	7d 25		 jge	 SHORT $LN6@SetItemIma

; 205  : 		return m_pData[nIndex]; }

  00015	8b 81 04 01 00
	00		 mov	 eax, DWORD PTR [ecx+260]
; File D:\git\src\IBK\IBK_DRFN\ProjSrc\SrcDrfn\Chart\Common_ST\STGfxOutBarCtrl.cpp

; 2232 : 	return (index >= 0 && index < pbf->GetItemCount());

  0001b	8b 4d 08	 mov	 ecx, DWORD PTR _index$[ebp]
; File C:\Program Files (x86)\Microsoft Visual Studio\2019\Community\VC\Tools\MSVC\14.29.30133\atlmfc\include\afxcoll.inl

; 205  : 		return m_pData[nIndex]; }

  0001e	8b 04 90	 mov	 eax, DWORD PTR [eax+edx*4]
; File D:\git\src\IBK\IBK_DRFN\ProjSrc\SrcDrfn\Chart\Common_ST\STGfxOutBarCtrl.cpp

; 2232 : 	return (index >= 0 && index < pbf->GetItemCount());

  00021	85 c9		 test	 ecx, ecx
  00023	78 11		 js	 SHORT $LN2@SetItemIma
  00025	3b 48 1c	 cmp	 ecx, DWORD PTR [eax+28]
  00028	7d 0c		 jge	 SHORT $LN2@SetItemIma

; 2274 : 	if (IsValidItem(index))
; 2275 : 	{
; 2276 : 		CBarItem * i = (CBarItem *) pbf->arItems.GetAt(index);
; 2277 : 		i->iImageIndex = iImage;

  0002a	8b 40 18	 mov	 eax, DWORD PTR [eax+24]
  0002d	8b 0c 88	 mov	 ecx, DWORD PTR [eax+ecx*4]
  00030	8b 45 0c	 mov	 eax, DWORD PTR _iImage$[ebp]
  00033	89 41 04	 mov	 DWORD PTR [ecx+4], eax
$LN2@SetItemIma:

; 2279 : }

  00036	5d		 pop	 ebp
  00037	c2 08 00	 ret	 8
$LN6@SetItemIma:
; File C:\Program Files (x86)\Microsoft Visual Studio\2019\Community\VC\Tools\MSVC\14.29.30133\atlmfc\include\afxcoll.inl

; 204  : 			AfxThrowInvalidArgException();

  0003a	e8 00 00 00 00	 call	 ?AfxThrowInvalidArgException@@YGXXZ ; AfxThrowInvalidArgException
$LN23@SetItemIma:
  0003f	cc		 int	 3
?SetItemImage@CSTGfxOutBarCtrl@@QAEXHH@Z ENDP		; CSTGfxOutBarCtrl::SetItemImage
_TEXT	ENDS
; Function compile flags: /Ogtp
; File D:\git\src\IBK\IBK_DRFN\ProjSrc\SrcDrfn\Chart\Common_ST\STGfxOutBarCtrl.cpp
; File C:\Program Files (x86)\Microsoft Visual Studio\2019\Community\VC\Tools\MSVC\14.29.30133\atlmfc\include\atltypes.h
; File D:\git\src\IBK\IBK_DRFN\ProjSrc\SrcDrfn\Chart\Common_ST\STGfxOutBarCtrl.cpp
; File C:\Program Files (x86)\Microsoft Visual Studio\2019\Community\VC\Tools\MSVC\14.29.30133\atlmfc\include\afxwin2.inl
; File D:\git\src\IBK\IBK_DRFN\ProjSrc\SrcDrfn\Chart\Common_ST\STGfxOutBarCtrl.cpp
;	COMDAT ?DrawDragArrow@CSTGfxOutBarCtrl@@QAEXPAVCDC@@HH@Z
_TEXT	SEGMENT
$T1 = -28						; size = 8
$T2 = -28						; size = 8
$T3 = -28						; size = 8
$T4 = -28						; size = 8
$T5 = -28						; size = 8
$T6 = -28						; size = 8
$T7 = -28						; size = 8
$T8 = -28						; size = 8
$T9 = -28						; size = 8
$T10 = -28						; size = 8
$T11 = -28						; size = 8
$T12 = -28						; size = 8
$T13 = -28						; size = 8
$T14 = -28						; size = 8
$T15 = -28						; size = 8
$T16 = -28						; size = 8
_rc1$ = -20						; size = 16
__$ArrayPad$ = -4					; size = 4
_pDC$ = 8						; size = 4
_iFrom$ = 12						; size = 4
_iTo$ = 16						; size = 4
?DrawDragArrow@CSTGfxOutBarCtrl@@QAEXPAVCDC@@HH@Z PROC	; CSTGfxOutBarCtrl::DrawDragArrow, COMDAT
; _this$ = ecx

; 2282 : {

  00000	55		 push	 ebp
  00001	8b ec		 mov	 ebp, esp
  00003	83 ec 1c	 sub	 esp, 28			; 0000001cH
  00006	a1 00 00 00 00	 mov	 eax, DWORD PTR ___security_cookie
  0000b	33 c5		 xor	 eax, ebp
  0000d	89 45 fc	 mov	 DWORD PTR __$ArrayPad$[ebp], eax
  00010	53		 push	 ebx

; 2283 : 	if (iTo == iLastDragItemDraw) return;

  00011	8b 5d 10	 mov	 ebx, DWORD PTR _iTo$[ebp]
  00014	56		 push	 esi
  00015	8b f1		 mov	 esi, ecx
  00017	57		 push	 edi
  00018	8b 7d 08	 mov	 edi, DWORD PTR _pDC$[ebp]
  0001b	8b 86 28 01 00
	00		 mov	 eax, DWORD PTR [esi+296]
  00021	3b d8		 cmp	 ebx, eax
  00023	0f 84 45 03 00
	00		 je	 $LN9@DrawDragAr
  00029	0f 57 c0	 xorps	 xmm0, xmm0
; File C:\Program Files (x86)\Microsoft Visual Studio\2019\Community\VC\Tools\MSVC\14.29.30133\atlmfc\include\atltypes.h

; 528  : 	left = 0;

  0002c	0f 11 45 ec	 movups	 XMMWORD PTR _rc1$[ebp], xmm0
; File D:\git\src\IBK\IBK_DRFN\ProjSrc\SrcDrfn\Chart\Common_ST\STGfxOutBarCtrl.cpp

; 2285 : 	if (iLastDragItemDraw >= 0)

  00030	85 c0		 test	 eax, eax
  00032	78 5a		 js	 SHORT $LN3@DrawDragAr

; 2286 : 	{
; 2287 : 		GetDragItemRect(iLastDragItemDraw, rc1);

  00034	8d 4d ec	 lea	 ecx, DWORD PTR _rc1$[ebp]
  00037	51		 push	 ecx
  00038	50		 push	 eax
  00039	8b ce		 mov	 ecx, esi
  0003b	e8 00 00 00 00	 call	 ?GetDragItemRect@CSTGfxOutBarCtrl@@QAEHHAAVCRect@@@Z ; CSTGfxOutBarCtrl::GetDragItemRect

; 2288 : 		if (iLastDragItemDrawType == 0) rc1.bottom = rc1.top + 5;

  00040	8b 86 2c 01 00
	00		 mov	 eax, DWORD PTR [esi+300]
  00046	85 c0		 test	 eax, eax
  00048	75 05		 jne	 SHORT $LN4@DrawDragAr
  0004a	8b 45 f0	 mov	 eax, DWORD PTR _rc1$[ebp+4]
  0004d	eb 21		 jmp	 SHORT $LN19@DrawDragAr
$LN4@DrawDragAr:

; 2289 : 		else if (iLastDragItemDrawType == 1) { rc1.top -= 4; rc1.bottom = rc1.top + 9; }

  0004f	83 f8 01	 cmp	 eax, 1
  00052	75 0e		 jne	 SHORT $LN6@DrawDragAr
  00054	8b 45 f0	 mov	 eax, DWORD PTR _rc1$[ebp+4]
  00057	83 e8 04	 sub	 eax, 4
  0005a	89 45 f0	 mov	 DWORD PTR _rc1$[ebp+4], eax
  0005d	83 c0 09	 add	 eax, 9
  00060	eb 11		 jmp	 SHORT $LN20@DrawDragAr
$LN6@DrawDragAr:

; 2290 : 		else if (iLastDragItemDrawType == 2) { rc1.top -= 4; rc1.bottom = rc1.top + 5; }

  00062	83 f8 02	 cmp	 eax, 2
  00065	75 0f		 jne	 SHORT $LN8@DrawDragAr
  00067	8b 45 f0	 mov	 eax, DWORD PTR _rc1$[ebp+4]
  0006a	83 e8 04	 sub	 eax, 4
  0006d	89 45 f0	 mov	 DWORD PTR _rc1$[ebp+4], eax
$LN19@DrawDragAr:
; File C:\Program Files (x86)\Microsoft Visual Studio\2019\Community\VC\Tools\MSVC\14.29.30133\atlmfc\include\afxwin2.inl

; 116  : 	{ ASSERT(::IsWindow(m_hWnd)); ::InvalidateRect(m_hWnd, lpRect, bErase); }

  00070	83 c0 05	 add	 eax, 5
$LN20@DrawDragAr:
  00073	89 45 f8	 mov	 DWORD PTR _rc1$[ebp+12], eax
$LN8@DrawDragAr:
  00076	6a 01		 push	 1
  00078	8d 45 ec	 lea	 eax, DWORD PTR _rc1$[ebp]
  0007b	50		 push	 eax
  0007c	ff 76 20	 push	 DWORD PTR [esi+32]
  0007f	ff 15 00 00 00
	00		 call	 DWORD PTR __imp__InvalidateRect@12

; 106  : 	{ ASSERT(::IsWindow(m_hWnd)); ::UpdateWindow(m_hWnd); }

  00085	ff 76 20	 push	 DWORD PTR [esi+32]
  00088	ff 15 00 00 00
	00		 call	 DWORD PTR __imp__UpdateWindow@4
$LN3@DrawDragAr:
; File D:\git\src\IBK\IBK_DRFN\ProjSrc\SrcDrfn\Chart\Common_ST\STGfxOutBarCtrl.cpp

; 2294 : 	iLastDragItemDraw = iTo;

  0008e	89 9e 28 01 00
	00		 mov	 DWORD PTR [esi+296], ebx

; 2295 : 
; 2296 : 	if (iLastDragItemDraw >= 0)

  00094	85 db		 test	 ebx, ebx
  00096	0f 88 d2 02 00
	00		 js	 $LN9@DrawDragAr

; 2297 : 	{
; 2298 : 		iLastDragItemDrawType = GetDragItemRect(iLastDragItemDraw, rc1);

  0009c	8d 45 ec	 lea	 eax, DWORD PTR _rc1$[ebp]
  0009f	8b ce		 mov	 ecx, esi
  000a1	50		 push	 eax
  000a2	53		 push	 ebx
  000a3	e8 00 00 00 00	 call	 ?GetDragItemRect@CSTGfxOutBarCtrl@@QAEHHAAVCRect@@@Z ; CSTGfxOutBarCtrl::GetDragItemRect

; 2299 : 
; 2300 : 		CPen * op = pDC->SelectObject(pBlackPen);

  000a8	ff b6 48 01 00
	00		 push	 DWORD PTR [esi+328]
  000ae	8b cf		 mov	 ecx, edi
  000b0	89 86 2c 01 00
	00		 mov	 DWORD PTR [esi+300], eax
  000b6	e8 00 00 00 00	 call	 ?SelectObject@CDC@@QAEPAVCPen@@PAV2@@Z ; CDC::SelectObject

; 2301 : 
; 2302 : 		pDC->MoveTo(rc1.left, rc1.top);

  000bb	ff 75 f0	 push	 DWORD PTR _rc1$[ebp+4]
  000be	8b d8		 mov	 ebx, eax
  000c0	8b cf		 mov	 ecx, edi
  000c2	ff 75 ec	 push	 DWORD PTR _rc1$[ebp]
  000c5	8d 45 e4	 lea	 eax, DWORD PTR $T16[ebp]
  000c8	50		 push	 eax
  000c9	e8 00 00 00 00	 call	 ?MoveTo@CDC@@QAE?AVCPoint@@HH@Z ; CDC::MoveTo

; 2303 : 		pDC->LineTo(rc1.right, rc1.top);

  000ce	ff 75 f0	 push	 DWORD PTR _rc1$[ebp+4]
  000d1	8b cf		 mov	 ecx, edi
  000d3	ff 75 f4	 push	 DWORD PTR _rc1$[ebp+8]
  000d6	e8 00 00 00 00	 call	 ?LineTo@CDC@@QAEHHH@Z	; CDC::LineTo

; 2304 : 
; 2305 : 		if (iLastDragItemDrawType != 2)

  000db	8b 86 2c 01 00
	00		 mov	 eax, DWORD PTR [esi+300]
  000e1	83 f8 02	 cmp	 eax, 2
  000e4	0f 84 28 01 00
	00		 je	 $LN10@DrawDragAr

; 2306 : 		{
; 2307 : 			pDC->MoveTo(rc1.left, rc1.top+1);

  000ea	8b 45 f0	 mov	 eax, DWORD PTR _rc1$[ebp+4]
  000ed	8b cf		 mov	 ecx, edi
  000ef	40		 inc	 eax
  000f0	50		 push	 eax
  000f1	ff 75 ec	 push	 DWORD PTR _rc1$[ebp]
  000f4	8d 45 e4	 lea	 eax, DWORD PTR $T15[ebp]
  000f7	50		 push	 eax
  000f8	e8 00 00 00 00	 call	 ?MoveTo@CDC@@QAE?AVCPoint@@HH@Z ; CDC::MoveTo

; 2308 : 			pDC->LineTo(rc1.left + 7, rc1.top+1);

  000fd	8b 45 f0	 mov	 eax, DWORD PTR _rc1$[ebp+4]
  00100	8b cf		 mov	 ecx, edi
  00102	40		 inc	 eax
  00103	50		 push	 eax
  00104	8b 45 ec	 mov	 eax, DWORD PTR _rc1$[ebp]
  00107	83 c0 07	 add	 eax, 7
  0010a	50		 push	 eax
  0010b	e8 00 00 00 00	 call	 ?LineTo@CDC@@QAEHHH@Z	; CDC::LineTo

; 2309 : 			pDC->MoveTo(rc1.left, rc1.top+2);

  00110	8b 45 f0	 mov	 eax, DWORD PTR _rc1$[ebp+4]
  00113	8b cf		 mov	 ecx, edi
  00115	83 c0 02	 add	 eax, 2
  00118	50		 push	 eax
  00119	ff 75 ec	 push	 DWORD PTR _rc1$[ebp]
  0011c	8d 45 e4	 lea	 eax, DWORD PTR $T14[ebp]
  0011f	50		 push	 eax
  00120	e8 00 00 00 00	 call	 ?MoveTo@CDC@@QAE?AVCPoint@@HH@Z ; CDC::MoveTo

; 2310 : 			pDC->LineTo(rc1.left + 5, rc1.top+2);

  00125	8b 45 f0	 mov	 eax, DWORD PTR _rc1$[ebp+4]
  00128	8b cf		 mov	 ecx, edi
  0012a	83 c0 02	 add	 eax, 2
  0012d	50		 push	 eax
  0012e	8b 45 ec	 mov	 eax, DWORD PTR _rc1$[ebp]
  00131	83 c0 05	 add	 eax, 5
  00134	50		 push	 eax
  00135	e8 00 00 00 00	 call	 ?LineTo@CDC@@QAEHHH@Z	; CDC::LineTo

; 2311 : 			pDC->MoveTo(rc1.left, rc1.top+3);

  0013a	8b 45 f0	 mov	 eax, DWORD PTR _rc1$[ebp+4]
  0013d	8b cf		 mov	 ecx, edi
  0013f	83 c0 03	 add	 eax, 3
  00142	50		 push	 eax
  00143	ff 75 ec	 push	 DWORD PTR _rc1$[ebp]
  00146	8d 45 e4	 lea	 eax, DWORD PTR $T13[ebp]
  00149	50		 push	 eax
  0014a	e8 00 00 00 00	 call	 ?MoveTo@CDC@@QAE?AVCPoint@@HH@Z ; CDC::MoveTo

; 2312 : 			pDC->LineTo(rc1.left + 3, rc1.top+3);

  0014f	8b 45 f0	 mov	 eax, DWORD PTR _rc1$[ebp+4]
  00152	8b cf		 mov	 ecx, edi
  00154	83 c0 03	 add	 eax, 3
  00157	50		 push	 eax
  00158	8b 45 ec	 mov	 eax, DWORD PTR _rc1$[ebp]
  0015b	83 c0 03	 add	 eax, 3
  0015e	50		 push	 eax
  0015f	e8 00 00 00 00	 call	 ?LineTo@CDC@@QAEHHH@Z	; CDC::LineTo

; 2313 : 			pDC->MoveTo(rc1.left, rc1.top+4);

  00164	8b 45 f0	 mov	 eax, DWORD PTR _rc1$[ebp+4]
  00167	8b cf		 mov	 ecx, edi
  00169	83 c0 04	 add	 eax, 4
  0016c	50		 push	 eax
  0016d	ff 75 ec	 push	 DWORD PTR _rc1$[ebp]
  00170	8d 45 e4	 lea	 eax, DWORD PTR $T12[ebp]
  00173	50		 push	 eax
  00174	e8 00 00 00 00	 call	 ?MoveTo@CDC@@QAE?AVCPoint@@HH@Z ; CDC::MoveTo

; 2314 : 			pDC->LineTo(rc1.left + 1, rc1.top+4);

  00179	8b 45 f0	 mov	 eax, DWORD PTR _rc1$[ebp+4]
  0017c	8b cf		 mov	 ecx, edi
  0017e	83 c0 04	 add	 eax, 4
  00181	50		 push	 eax
  00182	8b 45 ec	 mov	 eax, DWORD PTR _rc1$[ebp]
  00185	40		 inc	 eax
  00186	50		 push	 eax
  00187	e8 00 00 00 00	 call	 ?LineTo@CDC@@QAEHHH@Z	; CDC::LineTo

; 2315 : 
; 2316 : 			pDC->MoveTo(rc1.right-1, rc1.top+1);

  0018c	8b 45 f0	 mov	 eax, DWORD PTR _rc1$[ebp+4]
  0018f	8b cf		 mov	 ecx, edi
  00191	40		 inc	 eax
  00192	50		 push	 eax
  00193	8b 45 f4	 mov	 eax, DWORD PTR _rc1$[ebp+8]
  00196	48		 dec	 eax
  00197	50		 push	 eax
  00198	8d 45 e4	 lea	 eax, DWORD PTR $T11[ebp]
  0019b	50		 push	 eax
  0019c	e8 00 00 00 00	 call	 ?MoveTo@CDC@@QAE?AVCPoint@@HH@Z ; CDC::MoveTo

; 2317 : 			pDC->LineTo(rc1.right - 7, rc1.top+1);

  001a1	8b 45 f0	 mov	 eax, DWORD PTR _rc1$[ebp+4]
  001a4	8b cf		 mov	 ecx, edi
  001a6	40		 inc	 eax
  001a7	50		 push	 eax
  001a8	8b 45 f4	 mov	 eax, DWORD PTR _rc1$[ebp+8]
  001ab	83 c0 f9	 add	 eax, -7			; fffffff9H
  001ae	50		 push	 eax
  001af	e8 00 00 00 00	 call	 ?LineTo@CDC@@QAEHHH@Z	; CDC::LineTo

; 2318 : 			pDC->MoveTo(rc1.right-1, rc1.top+2);

  001b4	8b 45 f0	 mov	 eax, DWORD PTR _rc1$[ebp+4]
  001b7	8b cf		 mov	 ecx, edi
  001b9	83 c0 02	 add	 eax, 2
  001bc	50		 push	 eax
  001bd	8b 45 f4	 mov	 eax, DWORD PTR _rc1$[ebp+8]
  001c0	48		 dec	 eax
  001c1	50		 push	 eax
  001c2	8d 45 e4	 lea	 eax, DWORD PTR $T10[ebp]
  001c5	50		 push	 eax
  001c6	e8 00 00 00 00	 call	 ?MoveTo@CDC@@QAE?AVCPoint@@HH@Z ; CDC::MoveTo

; 2319 : 			pDC->LineTo(rc1.right - 5, rc1.top+2);

  001cb	8b 45 f0	 mov	 eax, DWORD PTR _rc1$[ebp+4]
  001ce	8b cf		 mov	 ecx, edi
  001d0	83 c0 02	 add	 eax, 2
  001d3	50		 push	 eax
  001d4	8b 45 f4	 mov	 eax, DWORD PTR _rc1$[ebp+8]
  001d7	83 c0 fb	 add	 eax, -5			; fffffffbH
  001da	50		 push	 eax
  001db	e8 00 00 00 00	 call	 ?LineTo@CDC@@QAEHHH@Z	; CDC::LineTo

; 2320 : 			pDC->MoveTo(rc1.right-1, rc1.top+3);

  001e0	8b 45 f0	 mov	 eax, DWORD PTR _rc1$[ebp+4]
  001e3	8b cf		 mov	 ecx, edi
  001e5	83 c0 03	 add	 eax, 3
  001e8	50		 push	 eax
  001e9	8b 45 f4	 mov	 eax, DWORD PTR _rc1$[ebp+8]
  001ec	48		 dec	 eax
  001ed	50		 push	 eax
  001ee	8d 45 e4	 lea	 eax, DWORD PTR $T9[ebp]
  001f1	50		 push	 eax
  001f2	e8 00 00 00 00	 call	 ?MoveTo@CDC@@QAE?AVCPoint@@HH@Z ; CDC::MoveTo

; 2321 : 			pDC->LineTo(rc1.right - 3, rc1.top+3);

  001f7	8b 45 f0	 mov	 eax, DWORD PTR _rc1$[ebp+4]
  001fa	8b cf		 mov	 ecx, edi
  001fc	83 c0 03	 add	 eax, 3
  001ff	50		 push	 eax
  00200	8b 45 f4	 mov	 eax, DWORD PTR _rc1$[ebp+8]
  00203	83 c0 fd	 add	 eax, -3			; fffffffdH
  00206	50		 push	 eax
  00207	e8 00 00 00 00	 call	 ?LineTo@CDC@@QAEHHH@Z	; CDC::LineTo
  0020c	8b 86 2c 01 00
	00		 mov	 eax, DWORD PTR [esi+300]
$LN10@DrawDragAr:

; 2322 : 		}
; 2323 : 		if (iLastDragItemDrawType != 0)

  00212	85 c0		 test	 eax, eax
  00214	0f 84 4c 01 00
	00		 je	 $LN11@DrawDragAr

; 2324 : 		{
; 2325 : 			pDC->MoveTo(rc1.left, rc1.top-1);

  0021a	8b 45 f0	 mov	 eax, DWORD PTR _rc1$[ebp+4]
  0021d	8b cf		 mov	 ecx, edi
  0021f	48		 dec	 eax
  00220	50		 push	 eax
  00221	ff 75 ec	 push	 DWORD PTR _rc1$[ebp]
  00224	8d 45 e4	 lea	 eax, DWORD PTR $T8[ebp]
  00227	50		 push	 eax
  00228	e8 00 00 00 00	 call	 ?MoveTo@CDC@@QAE?AVCPoint@@HH@Z ; CDC::MoveTo

; 2326 : 			pDC->LineTo(rc1.left + 7, rc1.top-1);

  0022d	8b 45 f0	 mov	 eax, DWORD PTR _rc1$[ebp+4]
  00230	8b cf		 mov	 ecx, edi
  00232	48		 dec	 eax
  00233	50		 push	 eax
  00234	8b 45 ec	 mov	 eax, DWORD PTR _rc1$[ebp]
  00237	83 c0 07	 add	 eax, 7
  0023a	50		 push	 eax
  0023b	e8 00 00 00 00	 call	 ?LineTo@CDC@@QAEHHH@Z	; CDC::LineTo

; 2327 : 			pDC->MoveTo(rc1.left, rc1.top-2);

  00240	8b 45 f0	 mov	 eax, DWORD PTR _rc1$[ebp+4]
  00243	8b cf		 mov	 ecx, edi
  00245	83 c0 fe	 add	 eax, -2			; fffffffeH
  00248	50		 push	 eax
  00249	ff 75 ec	 push	 DWORD PTR _rc1$[ebp]
  0024c	8d 45 e4	 lea	 eax, DWORD PTR $T7[ebp]
  0024f	50		 push	 eax
  00250	e8 00 00 00 00	 call	 ?MoveTo@CDC@@QAE?AVCPoint@@HH@Z ; CDC::MoveTo

; 2328 : 			pDC->LineTo(rc1.left + 5, rc1.top-2);

  00255	8b 45 f0	 mov	 eax, DWORD PTR _rc1$[ebp+4]
  00258	8b cf		 mov	 ecx, edi
  0025a	83 c0 fe	 add	 eax, -2			; fffffffeH
  0025d	50		 push	 eax
  0025e	8b 45 ec	 mov	 eax, DWORD PTR _rc1$[ebp]
  00261	83 c0 05	 add	 eax, 5
  00264	50		 push	 eax
  00265	e8 00 00 00 00	 call	 ?LineTo@CDC@@QAEHHH@Z	; CDC::LineTo

; 2329 : 			pDC->MoveTo(rc1.left, rc1.top-3);

  0026a	8b 45 f0	 mov	 eax, DWORD PTR _rc1$[ebp+4]
  0026d	8b cf		 mov	 ecx, edi
  0026f	83 c0 fd	 add	 eax, -3			; fffffffdH
  00272	50		 push	 eax
  00273	ff 75 ec	 push	 DWORD PTR _rc1$[ebp]
  00276	8d 45 e4	 lea	 eax, DWORD PTR $T6[ebp]
  00279	50		 push	 eax
  0027a	e8 00 00 00 00	 call	 ?MoveTo@CDC@@QAE?AVCPoint@@HH@Z ; CDC::MoveTo

; 2330 : 			pDC->LineTo(rc1.left + 3, rc1.top-3);

  0027f	8b 45 f0	 mov	 eax, DWORD PTR _rc1$[ebp+4]
  00282	8b cf		 mov	 ecx, edi
  00284	83 c0 fd	 add	 eax, -3			; fffffffdH
  00287	50		 push	 eax
  00288	8b 45 ec	 mov	 eax, DWORD PTR _rc1$[ebp]
  0028b	83 c0 03	 add	 eax, 3
  0028e	50		 push	 eax
  0028f	e8 00 00 00 00	 call	 ?LineTo@CDC@@QAEHHH@Z	; CDC::LineTo

; 2331 : 			pDC->MoveTo(rc1.left, rc1.top-4);

  00294	8b 45 f0	 mov	 eax, DWORD PTR _rc1$[ebp+4]
  00297	8b cf		 mov	 ecx, edi
  00299	83 c0 fc	 add	 eax, -4			; fffffffcH
  0029c	50		 push	 eax
  0029d	ff 75 ec	 push	 DWORD PTR _rc1$[ebp]
  002a0	8d 45 e4	 lea	 eax, DWORD PTR $T5[ebp]
  002a3	50		 push	 eax
  002a4	e8 00 00 00 00	 call	 ?MoveTo@CDC@@QAE?AVCPoint@@HH@Z ; CDC::MoveTo

; 2332 : 			pDC->LineTo(rc1.left + 1, rc1.top-4);

  002a9	8b 45 f0	 mov	 eax, DWORD PTR _rc1$[ebp+4]
  002ac	8b cf		 mov	 ecx, edi
  002ae	83 c0 fc	 add	 eax, -4			; fffffffcH
  002b1	50		 push	 eax
  002b2	8b 45 ec	 mov	 eax, DWORD PTR _rc1$[ebp]
  002b5	40		 inc	 eax
  002b6	50		 push	 eax
  002b7	e8 00 00 00 00	 call	 ?LineTo@CDC@@QAEHHH@Z	; CDC::LineTo

; 2333 : 
; 2334 : 			pDC->MoveTo(rc1.right-1, rc1.top-1);

  002bc	8b 45 f0	 mov	 eax, DWORD PTR _rc1$[ebp+4]
  002bf	8b cf		 mov	 ecx, edi
  002c1	48		 dec	 eax
  002c2	50		 push	 eax
  002c3	8b 45 f4	 mov	 eax, DWORD PTR _rc1$[ebp+8]
  002c6	48		 dec	 eax
  002c7	50		 push	 eax
  002c8	8d 45 e4	 lea	 eax, DWORD PTR $T4[ebp]
  002cb	50		 push	 eax
  002cc	e8 00 00 00 00	 call	 ?MoveTo@CDC@@QAE?AVCPoint@@HH@Z ; CDC::MoveTo

; 2335 : 			pDC->LineTo(rc1.right - 7, rc1.top-1);

  002d1	8b 45 f0	 mov	 eax, DWORD PTR _rc1$[ebp+4]
  002d4	8b cf		 mov	 ecx, edi
  002d6	48		 dec	 eax
  002d7	50		 push	 eax
  002d8	8b 45 f4	 mov	 eax, DWORD PTR _rc1$[ebp+8]
  002db	83 c0 f9	 add	 eax, -7			; fffffff9H
  002de	50		 push	 eax
  002df	e8 00 00 00 00	 call	 ?LineTo@CDC@@QAEHHH@Z	; CDC::LineTo

; 2336 : 			pDC->MoveTo(rc1.right-1, rc1.top-2);

  002e4	8b 45 f0	 mov	 eax, DWORD PTR _rc1$[ebp+4]
  002e7	8b cf		 mov	 ecx, edi
  002e9	83 c0 fe	 add	 eax, -2			; fffffffeH
  002ec	50		 push	 eax
  002ed	8b 45 f4	 mov	 eax, DWORD PTR _rc1$[ebp+8]
  002f0	48		 dec	 eax
  002f1	50		 push	 eax
  002f2	8d 45 e4	 lea	 eax, DWORD PTR $T3[ebp]
  002f5	50		 push	 eax
  002f6	e8 00 00 00 00	 call	 ?MoveTo@CDC@@QAE?AVCPoint@@HH@Z ; CDC::MoveTo

; 2337 : 			pDC->LineTo(rc1.right - 5, rc1.top-2);

  002fb	8b 45 f0	 mov	 eax, DWORD PTR _rc1$[ebp+4]
  002fe	8b cf		 mov	 ecx, edi
  00300	83 c0 fe	 add	 eax, -2			; fffffffeH
  00303	50		 push	 eax
  00304	8b 45 f4	 mov	 eax, DWORD PTR _rc1$[ebp+8]
  00307	83 c0 fb	 add	 eax, -5			; fffffffbH
  0030a	50		 push	 eax
  0030b	e8 00 00 00 00	 call	 ?LineTo@CDC@@QAEHHH@Z	; CDC::LineTo

; 2338 : 			pDC->MoveTo(rc1.right-1, rc1.top-3);

  00310	8b 45 f0	 mov	 eax, DWORD PTR _rc1$[ebp+4]
  00313	8b cf		 mov	 ecx, edi
  00315	83 c0 fd	 add	 eax, -3			; fffffffdH
  00318	50		 push	 eax
  00319	8b 45 f4	 mov	 eax, DWORD PTR _rc1$[ebp+8]
  0031c	48		 dec	 eax
  0031d	50		 push	 eax
  0031e	8d 45 e4	 lea	 eax, DWORD PTR $T2[ebp]
  00321	50		 push	 eax
  00322	e8 00 00 00 00	 call	 ?MoveTo@CDC@@QAE?AVCPoint@@HH@Z ; CDC::MoveTo

; 2339 : 			pDC->LineTo(rc1.right - 3, rc1.top-3);

  00327	8b 45 f0	 mov	 eax, DWORD PTR _rc1$[ebp+4]
  0032a	8b cf		 mov	 ecx, edi
  0032c	83 c0 fd	 add	 eax, -3			; fffffffdH
  0032f	50		 push	 eax
  00330	8b 45 f4	 mov	 eax, DWORD PTR _rc1$[ebp+8]
  00333	83 c0 fd	 add	 eax, -3			; fffffffdH
  00336	50		 push	 eax
  00337	e8 00 00 00 00	 call	 ?LineTo@CDC@@QAEHHH@Z	; CDC::LineTo

; 2340 : 			pDC->MoveTo(rc1.right-1, rc1.top-4);

  0033c	8b 45 f0	 mov	 eax, DWORD PTR _rc1$[ebp+4]
  0033f	8b cf		 mov	 ecx, edi
  00341	83 c0 fc	 add	 eax, -4			; fffffffcH
  00344	50		 push	 eax
  00345	8b 45 f4	 mov	 eax, DWORD PTR _rc1$[ebp+8]
  00348	48		 dec	 eax
  00349	50		 push	 eax
  0034a	8d 45 e4	 lea	 eax, DWORD PTR $T1[ebp]
  0034d	50		 push	 eax
  0034e	e8 00 00 00 00	 call	 ?MoveTo@CDC@@QAE?AVCPoint@@HH@Z ; CDC::MoveTo

; 2341 : 			pDC->LineTo(rc1.right - 1, rc1.top-4);

  00353	8b 45 f0	 mov	 eax, DWORD PTR _rc1$[ebp+4]
  00356	8b cf		 mov	 ecx, edi
  00358	83 c0 fc	 add	 eax, -4			; fffffffcH
  0035b	50		 push	 eax
  0035c	8b 45 f4	 mov	 eax, DWORD PTR _rc1$[ebp+8]
  0035f	48		 dec	 eax
  00360	50		 push	 eax
  00361	e8 00 00 00 00	 call	 ?LineTo@CDC@@QAEHHH@Z	; CDC::LineTo
$LN11@DrawDragAr:

; 2342 : 		}
; 2343 : 
; 2344 : 		pDC->SelectObject(op);

  00366	53		 push	 ebx
  00367	8b cf		 mov	 ecx, edi
  00369	e8 00 00 00 00	 call	 ?SelectObject@CDC@@QAEPAVCPen@@PAV2@@Z ; CDC::SelectObject
$LN9@DrawDragAr:

; 2345 : 	}
; 2346 : }

  0036e	8b 4d fc	 mov	 ecx, DWORD PTR __$ArrayPad$[ebp]
  00371	5f		 pop	 edi
  00372	5e		 pop	 esi
  00373	33 cd		 xor	 ecx, ebp
  00375	5b		 pop	 ebx
  00376	e8 00 00 00 00	 call	 @__security_check_cookie@4
  0037b	8b e5		 mov	 esp, ebp
  0037d	5d		 pop	 ebp
  0037e	c2 0c 00	 ret	 12			; 0000000cH
?DrawDragArrow@CSTGfxOutBarCtrl@@QAEXPAVCDC@@HH@Z ENDP	; CSTGfxOutBarCtrl::DrawDragArrow
_TEXT	ENDS
; Function compile flags: /Ogtp
; File D:\git\src\IBK\IBK_DRFN\ProjSrc\SrcDrfn\Chart\Common_ST\STGfxOutBarCtrl.cpp
; File C:\Program Files (x86)\Microsoft Visual Studio\2019\Community\VC\Tools\MSVC\14.29.30133\atlmfc\include\atltypes.h
; File D:\git\src\IBK\IBK_DRFN\ProjSrc\SrcDrfn\Chart\Common_ST\STGfxOutBarCtrl.cpp
; File C:\Program Files (x86)\Microsoft Visual Studio\2019\Community\VC\Tools\MSVC\14.29.30133\atlmfc\include\atltypes.h
; File D:\git\src\IBK\IBK_DRFN\ProjSrc\SrcDrfn\Chart\Common_ST\STGfxOutBarCtrl.cpp
; File C:\Program Files (x86)\Microsoft Visual Studio\2019\Community\VC\Tools\MSVC\14.29.30133\atlmfc\include\afxcoll.inl
; File D:\git\src\IBK\IBK_DRFN\ProjSrc\SrcDrfn\Chart\Common_ST\STGfxOutBarCtrl.cpp
; File C:\Program Files (x86)\Microsoft Visual Studio\2019\Community\VC\Tools\MSVC\14.29.30133\atlmfc\include\afxcoll.inl
; File D:\git\src\IBK\IBK_DRFN\ProjSrc\SrcDrfn\Chart\Common_ST\STGfxOutBarCtrl.cpp
; File C:\Program Files (x86)\Microsoft Visual Studio\2019\Community\VC\Tools\MSVC\14.29.30133\atlmfc\include\atltypes.h
; File D:\git\src\IBK\IBK_DRFN\ProjSrc\SrcDrfn\Chart\Common_ST\STGfxOutBarCtrl.cpp
; File C:\Program Files (x86)\Microsoft Visual Studio\2019\Community\VC\Tools\MSVC\14.29.30133\atlmfc\include\atltypes.h
; File D:\git\src\IBK\IBK_DRFN\ProjSrc\SrcDrfn\Chart\Common_ST\STGfxOutBarCtrl.cpp
; File C:\Program Files (x86)\Microsoft Visual Studio\2019\Community\VC\Tools\MSVC\14.29.30133\atlmfc\include\afxcoll.inl
; File D:\git\src\IBK\IBK_DRFN\ProjSrc\SrcDrfn\Chart\Common_ST\STGfxOutBarCtrl.cpp
; File C:\Program Files (x86)\Microsoft Visual Studio\2019\Community\VC\Tools\MSVC\14.29.30133\atlmfc\include\atltypes.h
; File D:\git\src\IBK\IBK_DRFN\ProjSrc\SrcDrfn\Chart\Common_ST\STGfxOutBarCtrl.cpp
; File C:\Program Files (x86)\Microsoft Visual Studio\2019\Community\VC\Tools\MSVC\14.29.30133\atlmfc\include\atltypes.h
; File D:\git\src\IBK\IBK_DRFN\ProjSrc\SrcDrfn\Chart\Common_ST\STGfxOutBarCtrl.cpp
; File C:\Program Files (x86)\Microsoft Visual Studio\2019\Community\VC\Tools\MSVC\14.29.30133\atlmfc\include\atltypes.h
; File D:\git\src\IBK\IBK_DRFN\ProjSrc\SrcDrfn\Chart\Common_ST\STGfxOutBarCtrl.cpp
; File C:\Program Files (x86)\Microsoft Visual Studio\2019\Community\VC\Tools\MSVC\14.29.30133\atlmfc\include\afxcoll.inl
; File D:\git\src\IBK\IBK_DRFN\ProjSrc\SrcDrfn\Chart\Common_ST\STGfxOutBarCtrl.cpp
;	COMDAT ?GetDragItemRect@CSTGfxOutBarCtrl@@QAEHHAAVCRect@@@Z
_TEXT	SEGMENT
$T1 = -40						; size = 4
_rc$ = -36						; size = 16
_crc$ = -20						; size = 16
__$ArrayPad$ = -4					; size = 4
_index$ = 8						; size = 4
_rect$ = 12						; size = 4
?GetDragItemRect@CSTGfxOutBarCtrl@@QAEHHAAVCRect@@@Z PROC ; CSTGfxOutBarCtrl::GetDragItemRect, COMDAT
; _this$ = ecx

; 2349 : {

  00000	55		 push	 ebp
  00001	8b ec		 mov	 ebp, esp
  00003	83 ec 28	 sub	 esp, 40			; 00000028H
  00006	a1 00 00 00 00	 mov	 eax, DWORD PTR ___security_cookie
  0000b	33 c5		 xor	 eax, ebp
  0000d	89 45 fc	 mov	 DWORD PTR __$ArrayPad$[ebp], eax
  00010	53		 push	 ebx
  00011	56		 push	 esi
  00012	57		 push	 edi
  00013	8b 7d 0c	 mov	 edi, DWORD PTR _rect$[ebp]

; 2351 : 	GetInsideRect(crc);

  00016	8d 45 ec	 lea	 eax, DWORD PTR _crc$[ebp]
  00019	0f 57 c0	 xorps	 xmm0, xmm0
  0001c	8b f1		 mov	 esi, ecx
  0001e	50		 push	 eax
; File C:\Program Files (x86)\Microsoft Visual Studio\2019\Community\VC\Tools\MSVC\14.29.30133\atlmfc\include\atltypes.h

; 528  : 	left = 0;

  0001f	0f 11 45 dc	 movups	 XMMWORD PTR _rc$[ebp], xmm0
  00023	0f 11 45 ec	 movups	 XMMWORD PTR _crc$[ebp], xmm0
; File D:\git\src\IBK\IBK_DRFN\ProjSrc\SrcDrfn\Chart\Common_ST\STGfxOutBarCtrl.cpp

; 2351 : 	GetInsideRect(crc);

  00027	e8 00 00 00 00	 call	 ?GetInsideRect@CSTGfxOutBarCtrl@@QBEXAAVCRect@@@Z ; CSTGfxOutBarCtrl::GetInsideRect
; File C:\Program Files (x86)\Microsoft Visual Studio\2019\Community\VC\Tools\MSVC\14.29.30133\atlmfc\include\atltypes.h

; 686  : 	::InflateRect(this, x, y);

  0002c	6a 00		 push	 0
  0002e	6a fe		 push	 -2			; fffffffeH
  00030	8d 45 ec	 lea	 eax, DWORD PTR _crc$[ebp]
  00033	50		 push	 eax
  00034	ff 15 00 00 00
	00		 call	 DWORD PTR __imp__InflateRect@12
; File D:\git\src\IBK\IBK_DRFN\ProjSrc\SrcDrfn\Chart\Common_ST\STGfxOutBarCtrl.cpp

; 1531 : 	if(arFolder.GetSize()==0) return 0;

  0003a	8b 86 08 01 00
	00		 mov	 eax, DWORD PTR [esi+264]
  00040	8b 96 30 01 00
	00		 mov	 edx, DWORD PTR [esi+304]
  00046	85 c0		 test	 eax, eax
  00048	75 05		 jne	 SHORT $LN19@GetDragIte
  0004a	89 45 d8	 mov	 DWORD PTR $T1[ebp], eax
  0004d	eb 1f		 jmp	 SHORT $LN18@GetDragIte
$LN19@GetDragIte:
; File C:\Program Files (x86)\Microsoft Visual Studio\2019\Community\VC\Tools\MSVC\14.29.30133\atlmfc\include\afxcoll.inl

; 203  : 		if( nIndex < 0 || nIndex >= m_nSize )

  0004f	85 d2		 test	 edx, edx
  00051	0f 88 30 01 00
	00		 js	 $LN23@GetDragIte
  00057	3b d0		 cmp	 edx, eax
  00059	0f 8d 28 01 00
	00		 jge	 $LN23@GetDragIte
; File D:\git\src\IBK\IBK_DRFN\ProjSrc\SrcDrfn\Chart\Common_ST\STGfxOutBarCtrl.cpp

; 1534 : 	return 	pbf->GetItemCount();

  0005f	8b 86 04 01 00
	00		 mov	 eax, DWORD PTR [esi+260]
  00065	8b 04 90	 mov	 eax, DWORD PTR [eax+edx*4]
  00068	8b 40 1c	 mov	 eax, DWORD PTR [eax+28]
  0006b	89 45 d8	 mov	 DWORD PTR $T1[ebp], eax
$LN18@GetDragIte:

; 2352 : 	crc.InflateRect(-2, 0);
; 2353 : 
; 2354 : 	GetItemRect(iSelFolder, index < GetItemCount() ? index : index - 1, rc);

  0006e	8b 5d 08	 mov	 ebx, DWORD PTR _index$[ebp]
  00071	8d 45 dc	 lea	 eax, DWORD PTR _rc$[ebp]
  00074	3b 5d d8	 cmp	 ebx, DWORD PTR $T1[ebp]
  00077	50		 push	 eax
  00078	8b c3		 mov	 eax, ebx
  0007a	8d 4b ff	 lea	 ecx, DWORD PTR [ebx-1]
  0007d	0f 4d c1	 cmovge	 eax, ecx
  00080	8b ce		 mov	 ecx, esi
  00082	50		 push	 eax
  00083	52		 push	 edx
  00084	e8 00 00 00 00	 call	 ?GetItemRect@CSTGfxOutBarCtrl@@QAEXHHAAVCRect@@@Z ; CSTGfxOutBarCtrl::GetItemRect

; 1531 : 	if(arFolder.GetSize()==0) return 0;

  00089	8b 96 08 01 00
	00		 mov	 edx, DWORD PTR [esi+264]
  0008f	85 d2		 test	 edx, edx
  00091	75 04		 jne	 SHORT $LN28@GetDragIte
  00093	33 c0		 xor	 eax, eax
  00095	eb 22		 jmp	 SHORT $LN27@GetDragIte
$LN28@GetDragIte:

; 1532 : 	ASSERT(iSelFolder >= 0 && iSelFolder < GetFolderCount());
; 1533 : 	CBarFolder * pbf = (CBarFolder *) arFolder.GetAt(iSelFolder);

  00097	8b 8e 30 01 00
	00		 mov	 ecx, DWORD PTR [esi+304]
; File C:\Program Files (x86)\Microsoft Visual Studio\2019\Community\VC\Tools\MSVC\14.29.30133\atlmfc\include\afxcoll.inl

; 203  : 		if( nIndex < 0 || nIndex >= m_nSize )

  0009d	85 c9		 test	 ecx, ecx
  0009f	0f 88 e2 00 00
	00		 js	 $LN23@GetDragIte
  000a5	3b ca		 cmp	 ecx, edx
  000a7	0f 8d da 00 00
	00		 jge	 $LN23@GetDragIte
; File D:\git\src\IBK\IBK_DRFN\ProjSrc\SrcDrfn\Chart\Common_ST\STGfxOutBarCtrl.cpp

; 1534 : 	return 	pbf->GetItemCount();

  000ad	8b 86 04 01 00
	00		 mov	 eax, DWORD PTR [esi+260]
  000b3	8b 04 88	 mov	 eax, DWORD PTR [eax+ecx*4]
  000b6	8b 40 1c	 mov	 eax, DWORD PTR [eax+28]
$LN27@GetDragIte:

; 2355 : 	int line = 0;
; 2356 : 	if (index < GetItemCount())

  000b9	3b d8		 cmp	 ebx, eax
  000bb	7d 08		 jge	 SHORT $LN2@GetDragIte

; 2357 : 	{
; 2358 : 		line = rc.top - 4;

  000bd	8b 4d e0	 mov	 ecx, DWORD PTR _rc$[ebp+4]
  000c0	83 c1 fc	 add	 ecx, -4			; fffffffcH

; 2359 : 	}

  000c3	eb 06		 jmp	 SHORT $LN3@GetDragIte
$LN2@GetDragIte:

; 2360 : 	else
; 2361 : 	{
; 2362 : 		line = rc.bottom + 6;

  000c5	8b 4d e8	 mov	 ecx, DWORD PTR _rc$[ebp+12]
  000c8	83 c1 06	 add	 ecx, 6
$LN3@GetDragIte:

; 2363 : 	}
; 2364 : 	int tpe;
; 2365 : 	if (index == 0)

  000cb	85 db		 test	 ebx, ebx
  000cd	75 2a		 jne	 SHORT $LN4@GetDragIte

; 2367 : 		rect.SetRect(crc.left, line+2, crc.right, line + 7);

  000cf	8d 41 07	 lea	 eax, DWORD PTR [ecx+7]
; File C:\Program Files (x86)\Microsoft Visual Studio\2019\Community\VC\Tools\MSVC\14.29.30133\atlmfc\include\atltypes.h

; 657  : 	::SetRect(this, x1, y1, x2, y2);

  000d2	50		 push	 eax
  000d3	ff 75 f4	 push	 DWORD PTR _crc$[ebp+8]
; File D:\git\src\IBK\IBK_DRFN\ProjSrc\SrcDrfn\Chart\Common_ST\STGfxOutBarCtrl.cpp

; 2367 : 		rect.SetRect(crc.left, line+2, crc.right, line + 7);

  000d6	8d 41 02	 lea	 eax, DWORD PTR [ecx+2]
; File C:\Program Files (x86)\Microsoft Visual Studio\2019\Community\VC\Tools\MSVC\14.29.30133\atlmfc\include\atltypes.h

; 657  : 	::SetRect(this, x1, y1, x2, y2);

  000d9	50		 push	 eax
  000da	ff 75 ec	 push	 DWORD PTR _crc$[ebp]
  000dd	57		 push	 edi
  000de	ff 15 00 00 00
	00		 call	 DWORD PTR __imp__SetRect@20
; File D:\git\src\IBK\IBK_DRFN\ProjSrc\SrcDrfn\Chart\Common_ST\STGfxOutBarCtrl.cpp

; 2385 : 	return tpe;

  000e4	5f		 pop	 edi
  000e5	5e		 pop	 esi
  000e6	33 c0		 xor	 eax, eax
  000e8	5b		 pop	 ebx

; 2386 : }

  000e9	8b 4d fc	 mov	 ecx, DWORD PTR __$ArrayPad$[ebp]
  000ec	33 cd		 xor	 ecx, ebp
  000ee	e8 00 00 00 00	 call	 @__security_check_cookie@4
  000f3	8b e5		 mov	 esp, ebp
  000f5	5d		 pop	 ebp
  000f6	c2 08 00	 ret	 8
$LN4@GetDragIte:

; 1531 : 	if(arFolder.GetSize()==0) return 0;

  000f9	85 d2		 test	 edx, edx
  000fb	75 04		 jne	 SHORT $LN38@GetDragIte
  000fd	33 c0		 xor	 eax, eax
  000ff	eb 1e		 jmp	 SHORT $LN37@GetDragIte
$LN38@GetDragIte:

; 1532 : 	ASSERT(iSelFolder >= 0 && iSelFolder < GetFolderCount());
; 1533 : 	CBarFolder * pbf = (CBarFolder *) arFolder.GetAt(iSelFolder);

  00101	8b 96 30 01 00
	00		 mov	 edx, DWORD PTR [esi+304]
; File C:\Program Files (x86)\Microsoft Visual Studio\2019\Community\VC\Tools\MSVC\14.29.30133\atlmfc\include\afxcoll.inl

; 203  : 		if( nIndex < 0 || nIndex >= m_nSize )

  00107	85 d2		 test	 edx, edx
  00109	78 7c		 js	 SHORT $LN23@GetDragIte
  0010b	3b 96 08 01 00
	00		 cmp	 edx, DWORD PTR [esi+264]
  00111	7d 74		 jge	 SHORT $LN23@GetDragIte
; File D:\git\src\IBK\IBK_DRFN\ProjSrc\SrcDrfn\Chart\Common_ST\STGfxOutBarCtrl.cpp

; 1534 : 	return 	pbf->GetItemCount();

  00113	8b 86 04 01 00
	00		 mov	 eax, DWORD PTR [esi+260]
  00119	8b 04 90	 mov	 eax, DWORD PTR [eax+edx*4]
  0011c	8b 40 1c	 mov	 eax, DWORD PTR [eax+28]
$LN37@GetDragIte:

; 2368 : 		tpe = 0;
; 2369 : 	}
; 2370 : 	else if (index < GetItemCount())

  0011f	3b d8		 cmp	 ebx, eax
  00121	7d 3a		 jge	 SHORT $LN6@GetDragIte
; File C:\Program Files (x86)\Microsoft Visual Studio\2019\Community\VC\Tools\MSVC\14.29.30133\atlmfc\include\atltypes.h

; 657  : 	::SetRect(this, x1, y1, x2, y2);

  00123	51		 push	 ecx
  00124	ff 75 f4	 push	 DWORD PTR _crc$[ebp+8]
; File D:\git\src\IBK\IBK_DRFN\ProjSrc\SrcDrfn\Chart\Common_ST\STGfxOutBarCtrl.cpp

; 2372 : 		rect.SetRect(crc.left, line - 9, crc.right, line);

  00127	8d 41 f7	 lea	 eax, DWORD PTR [ecx-9]
; File C:\Program Files (x86)\Microsoft Visual Studio\2019\Community\VC\Tools\MSVC\14.29.30133\atlmfc\include\atltypes.h

; 657  : 	::SetRect(this, x1, y1, x2, y2);

  0012a	50		 push	 eax
  0012b	ff 75 ec	 push	 DWORD PTR _crc$[ebp]
  0012e	57		 push	 edi
  0012f	ff 15 00 00 00
	00		 call	 DWORD PTR __imp__SetRect@20
; File D:\git\src\IBK\IBK_DRFN\ProjSrc\SrcDrfn\Chart\Common_ST\STGfxOutBarCtrl.cpp

; 2373 : 		tpe = 1;

  00135	b8 01 00 00 00	 mov	 eax, 1

; 215  : 	return dwFlags&fSmallIcon;

  0013a	84 86 fc 00 00
	00		 test	 BYTE PTR [esi+252], al

; 2374 : 		if (IsSmallIconView()) 

  00140	74 32		 je	 SHORT $LN7@GetDragIte

; 2375 : 		{
; 2376 : 			rect.top += 8;

  00142	83 47 04 08	 add	 DWORD PTR [edi+4], 8

; 2377 : 			rect.bottom += 8;

  00146	83 47 0c 08	 add	 DWORD PTR [edi+12], 8

; 2385 : 	return tpe;

  0014a	5f		 pop	 edi
  0014b	5e		 pop	 esi
  0014c	5b		 pop	 ebx

; 2386 : }

  0014d	8b 4d fc	 mov	 ecx, DWORD PTR __$ArrayPad$[ebp]
  00150	33 cd		 xor	 ecx, ebp
  00152	e8 00 00 00 00	 call	 @__security_check_cookie@4
  00157	8b e5		 mov	 esp, ebp
  00159	5d		 pop	 ebp
  0015a	c2 08 00	 ret	 8
$LN6@GetDragIte:

; 2378 : 		}
; 2379 : 	}
; 2380 : 	else
; 2381 : 	{
; 2382 : 		rect.SetRect(crc.left, line, crc.right, line + 5);

  0015d	8d 41 05	 lea	 eax, DWORD PTR [ecx+5]
; File C:\Program Files (x86)\Microsoft Visual Studio\2019\Community\VC\Tools\MSVC\14.29.30133\atlmfc\include\atltypes.h

; 657  : 	::SetRect(this, x1, y1, x2, y2);

  00160	50		 push	 eax
  00161	ff 75 f4	 push	 DWORD PTR _crc$[ebp+8]
  00164	51		 push	 ecx
  00165	ff 75 ec	 push	 DWORD PTR _crc$[ebp]
  00168	57		 push	 edi
  00169	ff 15 00 00 00
	00		 call	 DWORD PTR __imp__SetRect@20
; File D:\git\src\IBK\IBK_DRFN\ProjSrc\SrcDrfn\Chart\Common_ST\STGfxOutBarCtrl.cpp

; 2383 : 		tpe = 2;

  0016f	b8 02 00 00 00	 mov	 eax, 2
$LN7@GetDragIte:

; 2386 : }

  00174	8b 4d fc	 mov	 ecx, DWORD PTR __$ArrayPad$[ebp]
  00177	5f		 pop	 edi
  00178	5e		 pop	 esi
  00179	33 cd		 xor	 ecx, ebp
  0017b	5b		 pop	 ebx
  0017c	e8 00 00 00 00	 call	 @__security_check_cookie@4
  00181	8b e5		 mov	 esp, ebp
  00183	5d		 pop	 ebp
  00184	c2 08 00	 ret	 8
$LN23@GetDragIte:
; File C:\Program Files (x86)\Microsoft Visual Studio\2019\Community\VC\Tools\MSVC\14.29.30133\atlmfc\include\afxcoll.inl

; 204  : 			AfxThrowInvalidArgException();

  00187	e8 00 00 00 00	 call	 ?AfxThrowInvalidArgException@@YGXXZ ; AfxThrowInvalidArgException
$LN51@GetDragIte:
  0018c	cc		 int	 3
?GetDragItemRect@CSTGfxOutBarCtrl@@QAEHHAAVCRect@@@Z ENDP ; CSTGfxOutBarCtrl::GetDragItemRect
_TEXT	ENDS
; Function compile flags: /Ogtp
; File D:\git\src\IBK\IBK_DRFN\ProjSrc\SrcDrfn\Chart\Common_ST\STGfxOutBarCtrl.cpp
; File C:\Program Files (x86)\Microsoft Visual Studio\2019\Community\VC\Tools\MSVC\14.29.30133\atlmfc\include\atltypes.h
; File D:\git\src\IBK\IBK_DRFN\ProjSrc\SrcDrfn\Chart\Common_ST\STGfxOutBarCtrl.cpp
; File C:\Program Files (x86)\Microsoft Visual Studio\2019\Community\VC\Tools\MSVC\14.29.30133\atlmfc\include\atltypes.h
; File D:\git\src\IBK\IBK_DRFN\ProjSrc\SrcDrfn\Chart\Common_ST\STGfxOutBarCtrl.cpp
; File C:\Program Files (x86)\Microsoft Visual Studio\2019\Community\VC\Tools\MSVC\14.29.30133\atlmfc\include\afxwin1.inl
; File D:\git\src\IBK\IBK_DRFN\ProjSrc\SrcDrfn\Chart\Common_ST\STGfxOutBarCtrl.cpp
; File C:\Program Files (x86)\Microsoft Visual Studio\2019\Community\VC\Tools\MSVC\14.29.30133\atlmfc\include\afxwin1.inl
; File D:\git\src\IBK\IBK_DRFN\ProjSrc\SrcDrfn\Chart\Common_ST\STGfxOutBarCtrl.cpp
; File C:\Program Files (x86)\Microsoft Visual Studio\2019\Community\VC\Tools\MSVC\14.29.30133\atlmfc\include\atltypes.h
; File D:\git\src\IBK\IBK_DRFN\ProjSrc\SrcDrfn\Chart\Common_ST\STGfxOutBarCtrl.cpp
; File C:\Program Files (x86)\Microsoft Visual Studio\2019\Community\VC\Tools\MSVC\14.29.30133\atlmfc\include\atltypes.h
; File C:\Program Files (x86)\Microsoft Visual Studio\2019\Community\VC\Tools\MSVC\14.29.30133\atlmfc\include\afxwin1.inl
; File D:\git\src\IBK\IBK_DRFN\ProjSrc\SrcDrfn\Chart\Common_ST\STGfxOutBarCtrl.cpp
; File C:\Program Files (x86)\Microsoft Visual Studio\2019\Community\VC\Tools\MSVC\14.29.30133\atlmfc\include\afxwin1.inl
; File D:\git\src\IBK\IBK_DRFN\ProjSrc\SrcDrfn\Chart\Common_ST\STGfxOutBarCtrl.cpp
; File C:\Program Files (x86)\Microsoft Visual Studio\2019\Community\VC\Tools\MSVC\14.29.30133\atlmfc\include\atltypes.h
; File D:\git\src\IBK\IBK_DRFN\ProjSrc\SrcDrfn\Chart\Common_ST\STGfxOutBarCtrl.cpp
; File C:\Program Files (x86)\Microsoft Visual Studio\2019\Community\VC\Tools\MSVC\14.29.30133\atlmfc\include\atltypes.h
; File C:\Program Files (x86)\Microsoft Visual Studio\2019\Community\VC\Tools\MSVC\14.29.30133\atlmfc\include\afxwin1.inl
; File D:\git\src\IBK\IBK_DRFN\ProjSrc\SrcDrfn\Chart\Common_ST\STGfxOutBarCtrl.cpp
; File C:\Program Files (x86)\Microsoft Visual Studio\2019\Community\VC\Tools\MSVC\14.29.30133\atlmfc\include\afxcoll.inl
; File D:\git\src\IBK\IBK_DRFN\ProjSrc\SrcDrfn\Chart\Common_ST\STGfxOutBarCtrl.cpp
; File C:\Program Files (x86)\Microsoft Visual Studio\2019\Community\VC\Tools\MSVC\14.29.30133\atlmfc\include\afxcoll.inl
; File D:\git\src\IBK\IBK_DRFN\ProjSrc\SrcDrfn\Chart\Common_ST\STGfxOutBarCtrl.cpp
; File C:\Program Files (x86)\Microsoft Visual Studio\2019\Community\VC\Tools\MSVC\14.29.30133\atlmfc\include\afxwin1.inl
; File D:\git\src\IBK\IBK_DRFN\ProjSrc\SrcDrfn\Chart\Common_ST\STGfxOutBarCtrl.cpp
; File C:\Program Files (x86)\Microsoft Visual Studio\2019\Community\VC\Tools\MSVC\14.29.30133\atlmfc\include\afxwin2.inl
; File D:\git\src\IBK\IBK_DRFN\ProjSrc\SrcDrfn\Chart\Common_ST\STGfxOutBarCtrl.cpp
; File C:\Program Files (x86)\Microsoft Visual Studio\2019\Community\VC\Tools\MSVC\14.29.30133\atlmfc\include\afxwin2.inl
; File D:\git\src\IBK\IBK_DRFN\ProjSrc\SrcDrfn\Chart\Common_ST\STGfxOutBarCtrl.cpp
; File C:\Program Files (x86)\Microsoft Visual Studio\2019\Community\VC\Tools\MSVC\14.29.30133\atlmfc\include\afxwin1.inl
; File C:\Program Files (x86)\Microsoft Visual Studio\2019\Community\VC\Tools\MSVC\14.29.30133\atlmfc\include\atltypes.h
; File D:\git\src\IBK\IBK_DRFN\ProjSrc\SrcDrfn\Chart\Common_ST\STGfxOutBarCtrl.cpp
; File C:\Program Files (x86)\Microsoft Visual Studio\2019\Community\VC\Tools\MSVC\14.29.30133\atlmfc\include\atltypes.h
; File D:\git\src\IBK\IBK_DRFN\ProjSrc\SrcDrfn\Chart\Common_ST\STGfxOutBarCtrl.cpp
; File C:\Program Files (x86)\Microsoft Visual Studio\2019\Community\VC\Tools\MSVC\14.29.30133\atlmfc\include\atltypes.h
; File D:\git\src\IBK\IBK_DRFN\ProjSrc\SrcDrfn\Chart\Common_ST\STGfxOutBarCtrl.cpp
; File C:\Program Files (x86)\Microsoft Visual Studio\2019\Community\VC\Tools\MSVC\14.29.30133\atlmfc\include\atltypes.h
; File D:\git\src\IBK\IBK_DRFN\ProjSrc\SrcDrfn\Chart\Common_ST\STGfxOutBarCtrl.cpp
; File C:\Program Files (x86)\Microsoft Visual Studio\2019\Community\VC\Tools\MSVC\14.29.30133\atlmfc\include\atltypes.h
; File D:\git\src\IBK\IBK_DRFN\ProjSrc\SrcDrfn\Chart\Common_ST\STGfxOutBarCtrl.cpp
; File C:\Program Files (x86)\Microsoft Visual Studio\2019\Community\VC\Tools\MSVC\14.29.30133\atlmfc\include\afxwin2.inl
; File D:\git\src\IBK\IBK_DRFN\ProjSrc\SrcDrfn\Chart\Common_ST\STGfxOutBarCtrl.cpp
; File C:\Program Files (x86)\Microsoft Visual Studio\2019\Community\VC\Tools\MSVC\14.29.30133\atlmfc\include\afxwin2.inl
; File D:\git\src\IBK\IBK_DRFN\ProjSrc\SrcDrfn\Chart\Common_ST\STGfxOutBarCtrl.cpp
; File C:\Program Files (x86)\Microsoft Visual Studio\2019\Community\VC\Tools\MSVC\14.29.30133\atlmfc\include\afxwin1.inl
; File D:\git\src\IBK\IBK_DRFN\ProjSrc\SrcDrfn\Chart\Common_ST\STGfxOutBarCtrl.cpp
; File C:\Program Files (x86)\Microsoft Visual Studio\2019\Community\VC\Tools\MSVC\14.29.30133\atlmfc\include\atltypes.h
; File D:\git\src\IBK\IBK_DRFN\ProjSrc\SrcDrfn\Chart\Common_ST\STGfxOutBarCtrl.cpp
; File C:\Program Files (x86)\Microsoft Visual Studio\2019\Community\VC\Tools\MSVC\14.29.30133\atlmfc\include\atltypes.h
; File D:\git\src\IBK\IBK_DRFN\ProjSrc\SrcDrfn\Chart\Common_ST\STGfxOutBarCtrl.cpp
; File C:\Program Files (x86)\Microsoft Visual Studio\2019\Community\VC\Tools\MSVC\14.29.30133\atlmfc\include\atltypes.h
; File D:\git\src\IBK\IBK_DRFN\ProjSrc\SrcDrfn\Chart\Common_ST\STGfxOutBarCtrl.cpp
; File C:\Program Files (x86)\Microsoft Visual Studio\2019\Community\VC\Tools\MSVC\14.29.30133\atlmfc\include\afxwin1.inl
; File D:\git\src\IBK\IBK_DRFN\ProjSrc\SrcDrfn\Chart\Common_ST\STGfxOutBarCtrl.cpp
; File C:\Program Files (x86)\Microsoft Visual Studio\2019\Community\VC\Tools\MSVC\14.29.30133\atlmfc\include\atltypes.h
; File D:\git\src\IBK\IBK_DRFN\ProjSrc\SrcDrfn\Chart\Common_ST\STGfxOutBarCtrl.cpp
; File C:\Program Files (x86)\Microsoft Visual Studio\2019\Community\VC\Tools\MSVC\14.29.30133\atlmfc\include\atltypes.h
; File D:\git\src\IBK\IBK_DRFN\ProjSrc\SrcDrfn\Chart\Common_ST\STGfxOutBarCtrl.cpp
; File C:\Program Files (x86)\Microsoft Visual Studio\2019\Community\VC\Tools\MSVC\14.29.30133\atlmfc\include\afxwin1.inl
; File C:\Program Files (x86)\Microsoft Visual Studio\2019\Community\VC\Tools\MSVC\14.29.30133\atlmfc\include\atltypes.h
; File C:\Program Files (x86)\Microsoft Visual Studio\2019\Community\VC\Tools\MSVC\14.29.30133\atlmfc\include\afxwin1.inl
; File D:\git\src\IBK\IBK_DRFN\ProjSrc\SrcDrfn\Chart\Common_ST\STGfxOutBarCtrl.cpp
; File C:\Program Files (x86)\Microsoft Visual Studio\2019\Community\VC\Tools\MSVC\14.29.30133\atlmfc\include\atltypes.h
; File C:\Program Files (x86)\Microsoft Visual Studio\2019\Community\VC\Tools\MSVC\14.29.30133\atlmfc\include\afxwin1.inl
; File D:\git\src\IBK\IBK_DRFN\ProjSrc\SrcDrfn\Chart\Common_ST\STGfxOutBarCtrl.cpp
; File C:\Program Files (x86)\Microsoft Visual Studio\2019\Community\VC\Tools\MSVC\14.29.30133\atlmfc\include\atltypes.h
; File D:\git\src\IBK\IBK_DRFN\ProjSrc\SrcDrfn\Chart\Common_ST\STGfxOutBarCtrl.cpp
; File C:\Program Files (x86)\Microsoft Visual Studio\2019\Community\VC\Tools\MSVC\14.29.30133\atlmfc\include\atltypes.h
; File D:\git\src\IBK\IBK_DRFN\ProjSrc\SrcDrfn\Chart\Common_ST\STGfxOutBarCtrl.cpp
; File C:\Program Files (x86)\Microsoft Visual Studio\2019\Community\VC\Tools\MSVC\14.29.30133\atlmfc\include\atltypes.h
; File D:\git\src\IBK\IBK_DRFN\ProjSrc\SrcDrfn\Chart\Common_ST\STGfxOutBarCtrl.cpp
; File C:\Program Files (x86)\Microsoft Visual Studio\2019\Community\VC\Tools\MSVC\14.29.30133\atlmfc\include\afxwin2.inl
; File D:\git\src\IBK\IBK_DRFN\ProjSrc\SrcDrfn\Chart\Common_ST\STGfxOutBarCtrl.cpp
; File C:\Program Files (x86)\Microsoft Visual Studio\2019\Community\VC\Tools\MSVC\14.29.30133\atlmfc\include\afxwin2.inl
; File D:\git\src\IBK\IBK_DRFN\ProjSrc\SrcDrfn\Chart\Common_ST\STGfxOutBarCtrl.cpp
; File C:\Program Files (x86)\Microsoft Visual Studio\2019\Community\VC\Tools\MSVC\14.29.30133\atlmfc\include\afxwin1.inl
; File D:\git\src\IBK\IBK_DRFN\ProjSrc\SrcDrfn\Chart\Common_ST\STGfxOutBarCtrl.cpp
; File C:\Program Files (x86)\Microsoft Visual Studio\2019\Community\VC\Tools\MSVC\14.29.30133\atlmfc\include\afxwin1.inl
; File D:\git\src\IBK\IBK_DRFN\ProjSrc\SrcDrfn\Chart\Common_ST\STGfxOutBarCtrl.cpp
; File C:\Program Files (x86)\Microsoft Visual Studio\2019\Community\VC\Tools\MSVC\14.29.30133\atlmfc\include\atltypes.h
; File D:\git\src\IBK\IBK_DRFN\ProjSrc\SrcDrfn\Chart\Common_ST\STGfxOutBarCtrl.cpp
; File C:\Program Files (x86)\Microsoft Visual Studio\2019\Community\VC\Tools\MSVC\14.29.30133\atlmfc\include\atltypes.h
; File D:\git\src\IBK\IBK_DRFN\ProjSrc\SrcDrfn\Chart\Common_ST\STGfxOutBarCtrl.cpp
; File C:\Program Files (x86)\Microsoft Visual Studio\2019\Community\VC\Tools\MSVC\14.29.30133\atlmfc\include\afxwin2.inl
; File D:\git\src\IBK\IBK_DRFN\ProjSrc\SrcDrfn\Chart\Common_ST\STGfxOutBarCtrl.cpp
; File C:\Program Files (x86)\Microsoft Visual Studio\2019\Community\VC\Tools\MSVC\14.29.30133\atlmfc\include\afxwin2.inl
; File D:\git\src\IBK\IBK_DRFN\ProjSrc\SrcDrfn\Chart\Common_ST\STGfxOutBarCtrl.cpp
; File C:\Program Files (x86)\Microsoft Visual Studio\2019\Community\VC\Tools\MSVC\14.29.30133\atlmfc\include\atltypes.h
; File D:\git\src\IBK\IBK_DRFN\ProjSrc\SrcDrfn\Chart\Common_ST\STGfxOutBarCtrl.cpp
; File C:\Program Files (x86)\Microsoft Visual Studio\2019\Community\VC\Tools\MSVC\14.29.30133\atlmfc\include\atltypes.h
; File D:\git\src\IBK\IBK_DRFN\ProjSrc\SrcDrfn\Chart\Common_ST\STGfxOutBarCtrl.cpp
; File C:\Program Files (x86)\Microsoft Visual Studio\2019\Community\VC\Tools\MSVC\14.29.30133\atlmfc\include\atltypes.h
; File D:\git\src\IBK\IBK_DRFN\ProjSrc\SrcDrfn\Chart\Common_ST\STGfxOutBarCtrl.cpp
; File C:\Program Files (x86)\Microsoft Visual Studio\2019\Community\VC\Tools\MSVC\14.29.30133\atlmfc\include\atltypes.h
; File D:\git\src\IBK\IBK_DRFN\ProjSrc\SrcDrfn\Chart\Common_ST\STGfxOutBarCtrl.cpp
; File C:\Program Files (x86)\Microsoft Visual Studio\2019\Community\VC\Tools\MSVC\14.29.30133\atlmfc\include\afxwin1.inl
; File C:\Program Files (x86)\Microsoft Visual Studio\2019\Community\VC\Tools\MSVC\14.29.30133\atlmfc\include\atltypes.h
; File D:\git\src\IBK\IBK_DRFN\ProjSrc\SrcDrfn\Chart\Common_ST\STGfxOutBarCtrl.cpp
; File C:\Program Files (x86)\Microsoft Visual Studio\2019\Community\VC\Tools\MSVC\14.29.30133\atlmfc\include\atltypes.h
; File D:\git\src\IBK\IBK_DRFN\ProjSrc\SrcDrfn\Chart\Common_ST\STGfxOutBarCtrl.cpp
; File C:\Program Files (x86)\Microsoft Visual Studio\2019\Community\VC\Tools\MSVC\14.29.30133\atlmfc\include\afxwin1.inl
; File C:\Program Files (x86)\Microsoft Visual Studio\2019\Community\VC\Tools\MSVC\14.29.30133\atlmfc\include\atltypes.h
; File C:\Program Files (x86)\Microsoft Visual Studio\2019\Community\VC\Tools\MSVC\14.29.30133\atlmfc\include\afxwin1.inl
; File D:\git\src\IBK\IBK_DRFN\ProjSrc\SrcDrfn\Chart\Common_ST\STGfxOutBarCtrl.cpp
; File C:\Program Files (x86)\Microsoft Visual Studio\2019\Community\VC\Tools\MSVC\14.29.30133\atlmfc\include\atltypes.h
; File C:\Program Files (x86)\Microsoft Visual Studio\2019\Community\VC\Tools\MSVC\14.29.30133\atlmfc\include\afxwin1.inl
; File D:\git\src\IBK\IBK_DRFN\ProjSrc\SrcDrfn\Chart\Common_ST\STGfxOutBarCtrl.cpp
; File C:\Program Files (x86)\Microsoft Visual Studio\2019\Community\VC\Tools\MSVC\14.29.30133\atlmfc\include\afxwin1.inl
; File D:\git\src\IBK\IBK_DRFN\ProjSrc\SrcDrfn\Chart\Common_ST\STGfxOutBarCtrl.cpp
; File C:\Program Files (x86)\Microsoft Visual Studio\2019\Community\VC\Tools\MSVC\14.29.30133\atlmfc\include\afxcoll.inl
; File D:\git\src\IBK\IBK_DRFN\ProjSrc\SrcDrfn\Chart\Common_ST\STGfxOutBarCtrl.cpp
;	COMDAT ?AnimateFolderScroll@CSTGfxOutBarCtrl@@QAEXHH@Z
_TEXT	SEGMENT
_dc$ = -172						; size = 20
_obmp$1$ = -152						; size = 4
_bmpFrom$ = -148					; size = 8
_bmpTo$ = -140						; size = 8
$T2 = -132						; size = 8
_ovpt$3 = -132						; size = 8
_pWnd1$1$ = -128					; size = 4
tv1553 = -128						; size = 4
_pWnd2$1$ = -124					; size = 4
_memDC$ = -120						; size = 16
_iTo$GSCopy$1$ = -104					; size = 4
_fh$1$ = -104						; size = 4
_fh$1$ = -104						; size = 4
_iFrom$GSCopy$1$ = -100					; size = 4
_y$1$ = -100						; size = 4
_y$1$ = -100						; size = 4
_rcTo$4 = -96						; size = 16
_rcTo$5 = -96						; size = 16
_rcFrom$6 = -80						; size = 16
_rcFrom$7 = -80						; size = 16
_ovpt$8 = -72						; size = 8
$T9 = -72						; size = 8
_rc1$ = -64						; size = 16
_rc$ = -48						; size = 16
_frc$ = -32						; size = 16
__$ArrayPad$ = -16					; size = 4
__$EHRec$ = -12						; size = 12
_iFrom$ = 8						; size = 4
_iTo$ = 12						; size = 4
?AnimateFolderScroll@CSTGfxOutBarCtrl@@QAEXHH@Z PROC	; CSTGfxOutBarCtrl::AnimateFolderScroll, COMDAT
; _this$ = ecx

; 2390 : {

  00000	55		 push	 ebp
  00001	8b ec		 mov	 ebp, esp
  00003	6a ff		 push	 -1
  00005	68 00 00 00 00	 push	 __ehhandler$?AnimateFolderScroll@CSTGfxOutBarCtrl@@QAEXHH@Z
  0000a	64 a1 00 00 00
	00		 mov	 eax, DWORD PTR fs:0
  00010	50		 push	 eax
  00011	81 ec a0 00 00
	00		 sub	 esp, 160		; 000000a0H
  00017	a1 00 00 00 00	 mov	 eax, DWORD PTR ___security_cookie
  0001c	33 c5		 xor	 eax, ebp
  0001e	89 45 f0	 mov	 DWORD PTR __$ArrayPad$[ebp], eax
  00021	56		 push	 esi
  00022	57		 push	 edi
  00023	50		 push	 eax
  00024	8d 45 f4	 lea	 eax, DWORD PTR __$EHRec$[ebp]
  00027	64 a3 00 00 00
	00		 mov	 DWORD PTR fs:0, eax
  0002d	8b f9		 mov	 edi, ecx
  0002f	8b 45 08	 mov	 eax, DWORD PTR _iFrom$[ebp]
  00032	0f 57 c0	 xorps	 xmm0, xmm0
  00035	8b 75 0c	 mov	 esi, DWORD PTR _iTo$[ebp]
  00038	89 45 9c	 mov	 DWORD PTR _iFrom$GSCopy$1$[ebp], eax

; 2395 : 	GetInsideRect(rc);

  0003b	8d 45 d0	 lea	 eax, DWORD PTR _rc$[ebp]
  0003e	50		 push	 eax
  0003f	89 75 98	 mov	 DWORD PTR _iTo$GSCopy$1$[ebp], esi
; File C:\Program Files (x86)\Microsoft Visual Studio\2019\Community\VC\Tools\MSVC\14.29.30133\atlmfc\include\atltypes.h

; 528  : 	left = 0;

  00042	0f 11 45 d0	 movups	 XMMWORD PTR _rc$[ebp], xmm0
  00046	0f 11 45 c0	 movups	 XMMWORD PTR _rc1$[ebp], xmm0
  0004a	0f 11 45 e0	 movups	 XMMWORD PTR _frc$[ebp], xmm0
; File D:\git\src\IBK\IBK_DRFN\ProjSrc\SrcDrfn\Chart\Common_ST\STGfxOutBarCtrl.cpp

; 2395 : 	GetInsideRect(rc);

  0004e	e8 00 00 00 00	 call	 ?GetInsideRect@CSTGfxOutBarCtrl@@QBEXAAVCRect@@@Z ; CSTGfxOutBarCtrl::GetInsideRect
; File C:\Program Files (x86)\Microsoft Visual Studio\2019\Community\VC\Tools\MSVC\14.29.30133\atlmfc\include\atltypes.h

; 581  : 	return bottom - top;

  00053	8b 4d dc	 mov	 ecx, DWORD PTR _rc$[ebp+12]
  00056	2b 4d d4	 sub	 ecx, DWORD PTR _rc$[ebp+4]

; 576  : 	return right - left;

  00059	8b 45 d8	 mov	 eax, DWORD PTR _rc$[ebp+8]
  0005c	2b 45 d0	 sub	 eax, DWORD PTR _rc$[ebp]

; 657  : 	::SetRect(this, x1, y1, x2, y2);

  0005f	51		 push	 ecx
  00060	50		 push	 eax
  00061	6a 00		 push	 0
  00063	6a 00		 push	 0
  00065	8d 45 c0	 lea	 eax, DWORD PTR _rc1$[ebp]
  00068	50		 push	 eax
  00069	ff 15 00 00 00
	00		 call	 DWORD PTR __imp__SetRect@20
; File D:\git\src\IBK\IBK_DRFN\ProjSrc\SrcDrfn\Chart\Common_ST\STGfxOutBarCtrl.cpp

; 2397 : 	GetFolderRect(iTo, frc);

  0006f	8d 45 e0	 lea	 eax, DWORD PTR _frc$[ebp]
  00072	8b cf		 mov	 ecx, edi
  00074	50		 push	 eax
  00075	56		 push	 esi
  00076	e8 00 00 00 00	 call	 ?GetFolderRect@CSTGfxOutBarCtrl@@QBE_NHAAVCRect@@@Z ; CSTGfxOutBarCtrl::GetFolderRect

; 2398 : 	frc1 = frc;
; 2399 : 
; 2400 : 	CClientDC dc(this);

  0007b	57		 push	 edi
  0007c	8d 8d 54 ff ff
	ff		 lea	 ecx, DWORD PTR _dc$[ebp]
  00082	e8 00 00 00 00	 call	 ??0CClientDC@@QAE@PAVCWnd@@@Z ; CClientDC::CClientDC

; 2401 : 	CDC memDC;

  00087	8d 4d 88	 lea	 ecx, DWORD PTR _memDC$[ebp]
  0008a	c7 45 fc 00 00
	00 00		 mov	 DWORD PTR __$EHRec$[ebp+8], 0
  00091	e8 00 00 00 00	 call	 ??0CDC@@QAE@XZ		; CDC::CDC
; File C:\Program Files (x86)\Microsoft Visual Studio\2019\Community\VC\Tools\MSVC\14.29.30133\atlmfc\include\afxwin1.inl

; 330  : 	{ return Attach(::CreateCompatibleDC(pDC->GetSafeHdc())); }

  00096	ff b5 58 ff ff
	ff		 push	 DWORD PTR _dc$[ebp+4]
; File D:\git\src\IBK\IBK_DRFN\ProjSrc\SrcDrfn\Chart\Common_ST\STGfxOutBarCtrl.cpp

; 2401 : 	CDC memDC;

  0009c	c6 45 fc 01	 mov	 BYTE PTR __$EHRec$[ebp+8], 1
; File C:\Program Files (x86)\Microsoft Visual Studio\2019\Community\VC\Tools\MSVC\14.29.30133\atlmfc\include\afxwin1.inl

; 330  : 	{ return Attach(::CreateCompatibleDC(pDC->GetSafeHdc())); }

  000a0	ff 15 00 00 00
	00		 call	 DWORD PTR __imp__CreateCompatibleDC@4
  000a6	50		 push	 eax
  000a7	8d 4d 88	 lea	 ecx, DWORD PTR _memDC$[ebp]
  000aa	e8 00 00 00 00	 call	 ?Attach@CDC@@QAEHPAUHDC__@@@Z ; CDC::Attach

; 70   : 	{ m_hObject = NULL; }

  000af	c7 85 70 ff ff
	ff 00 00 00 00	 mov	 DWORD PTR _bmpFrom$[ebp+4], 0

; 177  : 	{ }

  000b9	c7 85 6c ff ff
	ff 00 00 00 00	 mov	 DWORD PTR _bmpFrom$[ebp], OFFSET ??_7CBitmap@@6B@

; 70   : 	{ m_hObject = NULL; }

  000c3	c7 85 78 ff ff
	ff 00 00 00 00	 mov	 DWORD PTR _bmpTo$[ebp+4], 0

; 177  : 	{ }

  000cd	c7 85 74 ff ff
	ff 00 00 00 00	 mov	 DWORD PTR _bmpTo$[ebp], OFFSET ??_7CBitmap@@6B@
; File D:\git\src\IBK\IBK_DRFN\ProjSrc\SrcDrfn\Chart\Common_ST\STGfxOutBarCtrl.cpp

; 2404 : 	bmpFrom.CreateCompatibleBitmap(&dc, rc1.Width(), rc1.Height() + frc.Height() * 2);

  000d7	8b 4d ec	 mov	 ecx, DWORD PTR _frc$[ebp+12]
  000da	2b 4d e4	 sub	 ecx, DWORD PTR _frc$[ebp+4]
; File C:\Program Files (x86)\Microsoft Visual Studio\2019\Community\VC\Tools\MSVC\14.29.30133\atlmfc\include\atltypes.h

; 576  : 	return right - left;

  000dd	8b 45 c8	 mov	 eax, DWORD PTR _rc1$[ebp+8]
; File D:\git\src\IBK\IBK_DRFN\ProjSrc\SrcDrfn\Chart\Common_ST\STGfxOutBarCtrl.cpp

; 2404 : 	bmpFrom.CreateCompatibleBitmap(&dc, rc1.Width(), rc1.Height() + frc.Height() * 2);

  000e0	03 c9		 add	 ecx, ecx
  000e2	2b 4d c4	 sub	 ecx, DWORD PTR _rc1$[ebp+4]
  000e5	03 4d cc	 add	 ecx, DWORD PTR _rc1$[ebp+12]
; File C:\Program Files (x86)\Microsoft Visual Studio\2019\Community\VC\Tools\MSVC\14.29.30133\atlmfc\include\atltypes.h

; 576  : 	return right - left;

  000e8	2b 45 c0	 sub	 eax, DWORD PTR _rc1$[ebp]
; File C:\Program Files (x86)\Microsoft Visual Studio\2019\Community\VC\Tools\MSVC\14.29.30133\atlmfc\include\afxwin1.inl

; 217  : 	{ return Attach(::CreateCompatibleBitmap(pDC->m_hDC, nWidth, nHeight)); }

  000eb	8b 35 00 00 00
	00		 mov	 esi, DWORD PTR __imp__CreateCompatibleBitmap@12
  000f1	51		 push	 ecx
  000f2	50		 push	 eax
  000f3	ff b5 58 ff ff
	ff		 push	 DWORD PTR _dc$[ebp+4]
; File D:\git\src\IBK\IBK_DRFN\ProjSrc\SrcDrfn\Chart\Common_ST\STGfxOutBarCtrl.cpp

; 2403 : 	CBitmap bmpFrom, bmpTo;

  000f9	c6 45 fc 03	 mov	 BYTE PTR __$EHRec$[ebp+8], 3
; File C:\Program Files (x86)\Microsoft Visual Studio\2019\Community\VC\Tools\MSVC\14.29.30133\atlmfc\include\afxwin1.inl

; 217  : 	{ return Attach(::CreateCompatibleBitmap(pDC->m_hDC, nWidth, nHeight)); }

  000fd	ff d6		 call	 esi
  000ff	50		 push	 eax
  00100	8d 8d 6c ff ff
	ff		 lea	 ecx, DWORD PTR _bmpFrom$[ebp]
  00106	e8 00 00 00 00	 call	 ?Attach@CGdiObject@@QAEHPAX@Z ; CGdiObject::Attach
; File D:\git\src\IBK\IBK_DRFN\ProjSrc\SrcDrfn\Chart\Common_ST\STGfxOutBarCtrl.cpp

; 2405 : 	bmpTo.CreateCompatibleBitmap(&dc, rc1.Width(), rc1.Height() + frc.Height() * 2);

  0010b	8b 4d ec	 mov	 ecx, DWORD PTR _frc$[ebp+12]
  0010e	2b 4d e4	 sub	 ecx, DWORD PTR _frc$[ebp+4]
; File C:\Program Files (x86)\Microsoft Visual Studio\2019\Community\VC\Tools\MSVC\14.29.30133\atlmfc\include\atltypes.h

; 576  : 	return right - left;

  00111	8b 45 c8	 mov	 eax, DWORD PTR _rc1$[ebp+8]
; File D:\git\src\IBK\IBK_DRFN\ProjSrc\SrcDrfn\Chart\Common_ST\STGfxOutBarCtrl.cpp

; 2405 : 	bmpTo.CreateCompatibleBitmap(&dc, rc1.Width(), rc1.Height() + frc.Height() * 2);

  00114	03 c9		 add	 ecx, ecx
  00116	2b 4d c4	 sub	 ecx, DWORD PTR _rc1$[ebp+4]
  00119	03 4d cc	 add	 ecx, DWORD PTR _rc1$[ebp+12]
; File C:\Program Files (x86)\Microsoft Visual Studio\2019\Community\VC\Tools\MSVC\14.29.30133\atlmfc\include\atltypes.h

; 576  : 	return right - left;

  0011c	2b 45 c0	 sub	 eax, DWORD PTR _rc1$[ebp]
; File C:\Program Files (x86)\Microsoft Visual Studio\2019\Community\VC\Tools\MSVC\14.29.30133\atlmfc\include\afxwin1.inl

; 217  : 	{ return Attach(::CreateCompatibleBitmap(pDC->m_hDC, nWidth, nHeight)); }

  0011f	51		 push	 ecx
  00120	50		 push	 eax
  00121	ff b5 58 ff ff
	ff		 push	 DWORD PTR _dc$[ebp+4]
  00127	ff d6		 call	 esi
  00129	50		 push	 eax
  0012a	8d 8d 74 ff ff
	ff		 lea	 ecx, DWORD PTR _bmpTo$[ebp]
  00130	e8 00 00 00 00	 call	 ?Attach@CGdiObject@@QAEHPAX@Z ; CGdiObject::Attach
; File D:\git\src\IBK\IBK_DRFN\ProjSrc\SrcDrfn\Chart\Common_ST\STGfxOutBarCtrl.cpp

; 2408 : 	CWnd * pWnd1 = GetFolderChild(iFrom);

  00135	8b 45 9c	 mov	 eax, DWORD PTR _iFrom$GSCopy$1$[ebp]
  00138	8b c8		 mov	 ecx, eax

; 2540 : 	if (GetFolderCount())

  0013a	8b 97 08 01 00
	00		 mov	 edx, DWORD PTR [edi+264]
  00140	85 d2		 test	 edx, edx
  00142	74 59		 je	 SHORT $LN74@AnimateFol

; 2541 : 	{
; 2542 : 		if (iFolder < 0) iFolder = iSelFolder;

  00144	85 c0		 test	 eax, eax
  00146	79 0e		 jns	 SHORT $LN295@AnimateFol
  00148	8b 8f 30 01 00
	00		 mov	 ecx, DWORD PTR [edi+304]
; File C:\Program Files (x86)\Microsoft Visual Studio\2019\Community\VC\Tools\MSVC\14.29.30133\atlmfc\include\afxcoll.inl

; 203  : 		if( nIndex < 0 || nIndex >= m_nSize )

  0014e	85 c9		 test	 ecx, ecx
  00150	0f 88 bf 05 00
	00		 js	 $LN89@AnimateFol
$LN295@AnimateFol:
  00156	3b ca		 cmp	 ecx, edx
  00158	0f 8d b7 05 00
	00		 jge	 $LN89@AnimateFol
; File D:\git\src\IBK\IBK_DRFN\ProjSrc\SrcDrfn\Chart\Common_ST\STGfxOutBarCtrl.cpp

; 2545 : 		return pbf->pChild;

  0015e	8b 87 04 01 00
	00		 mov	 eax, DWORD PTR [edi+260]
  00164	8b 04 88	 mov	 eax, DWORD PTR [eax+ecx*4]
  00167	8b 70 28	 mov	 esi, DWORD PTR [eax+40]

; 2542 : 		if (iFolder < 0) iFolder = iSelFolder;

  0016a	8b 45 98	 mov	 eax, DWORD PTR _iTo$GSCopy$1$[ebp]
  0016d	8b c8		 mov	 ecx, eax

; 2545 : 		return pbf->pChild;

  0016f	89 75 80	 mov	 DWORD PTR _pWnd1$1$[ebp], esi

; 2542 : 		if (iFolder < 0) iFolder = iSelFolder;

  00172	85 c0		 test	 eax, eax
  00174	79 0e		 jns	 SHORT $LN293@AnimateFol
  00176	8b 8f 30 01 00
	00		 mov	 ecx, DWORD PTR [edi+304]
; File C:\Program Files (x86)\Microsoft Visual Studio\2019\Community\VC\Tools\MSVC\14.29.30133\atlmfc\include\afxcoll.inl

; 203  : 		if( nIndex < 0 || nIndex >= m_nSize )

  0017c	85 c9		 test	 ecx, ecx
  0017e	0f 88 91 05 00
	00		 js	 $LN89@AnimateFol
$LN293@AnimateFol:
  00184	3b ca		 cmp	 ecx, edx
  00186	0f 8d 89 05 00
	00		 jge	 $LN89@AnimateFol
; File D:\git\src\IBK\IBK_DRFN\ProjSrc\SrcDrfn\Chart\Common_ST\STGfxOutBarCtrl.cpp

; 2545 : 		return pbf->pChild;

  0018c	8b 87 04 01 00
	00		 mov	 eax, DWORD PTR [edi+260]
  00192	8b 04 88	 mov	 eax, DWORD PTR [eax+ecx*4]
  00195	8b 40 28	 mov	 eax, DWORD PTR [eax+40]
  00198	89 45 84	 mov	 DWORD PTR _pWnd2$1$[ebp], eax
  0019b	eb 08		 jmp	 SHORT $LN83@AnimateFol
$LN74@AnimateFol:

; 2547 : 	return NULL;

  0019d	33 f6		 xor	 esi, esi
  0019f	89 75 80	 mov	 DWORD PTR _pWnd1$1$[ebp], esi
  001a2	89 75 84	 mov	 DWORD PTR _pWnd2$1$[ebp], esi
$LN83@AnimateFol:
; File C:\Program Files (x86)\Microsoft Visual Studio\2019\Community\VC\Tools\MSVC\14.29.30133\atlmfc\include\afxwin1.inl

; 361  : 	{ ASSERT(m_hDC != NULL); return (CBitmap*) SelectGdiObject(m_hDC, pBitmap->GetSafeHandle()); }

  001a5	ff b5 70 ff ff
	ff		 push	 DWORD PTR _bmpFrom$[ebp+4]
  001ab	ff 75 8c	 push	 DWORD PTR _memDC$[ebp+4]
  001ae	e8 00 00 00 00	 call	 ?SelectGdiObject@CDC@@KGPAVCGdiObject@@PAUHDC__@@PAX@Z ; CDC::SelectGdiObject
; File D:\git\src\IBK\IBK_DRFN\ProjSrc\SrcDrfn\Chart\Common_ST\STGfxOutBarCtrl.cpp

; 2413 : 	if (iTo > iFrom)

  001b3	8b 4d 9c	 mov	 ecx, DWORD PTR _iFrom$GSCopy$1$[ebp]
  001b6	89 85 68 ff ff
	ff		 mov	 DWORD PTR _obmp$1$[ebp], eax
  001bc	39 4d 98	 cmp	 DWORD PTR _iTo$GSCopy$1$[ebp], ecx
  001bf	0f 8e 62 02 00
	00		 jle	 $LN8@AnimateFol

; 2414 : 	{
; 2415 : 		rc1.bottom += frc.Height() * 2;

  001c5	8b 55 ec	 mov	 edx, DWORD PTR _frc$[ebp+12]

; 2416 : 		pDC->FillSolidRect(rc1, crBackGroundColor);

  001c8	8d 45 c0	 lea	 eax, DWORD PTR _rc1$[ebp]
  001cb	8b 4d cc	 mov	 ecx, DWORD PTR _rc1$[ebp+12]
  001ce	2b 55 e4	 sub	 edx, DWORD PTR _frc$[ebp+4]
  001d1	ff b7 80 00 00
	00		 push	 DWORD PTR [edi+128]
  001d7	50		 push	 eax
  001d8	8d 0c 51	 lea	 ecx, DWORD PTR [ecx+edx*2]
  001db	89 4d cc	 mov	 DWORD PTR _rc1$[ebp+12], ecx
  001de	8d 4d 88	 lea	 ecx, DWORD PTR _memDC$[ebp]
  001e1	e8 00 00 00 00	 call	 ?FillSolidRect@CDC@@QAEXPBUtagRECT@@K@Z ; CDC::FillSolidRect

; 2417 : 		if (pWnd1) 

  001e6	85 f6		 test	 esi, esi
  001e8	74 40		 je	 SHORT $LN10@AnimateFol

; 2419 : 			BOOL bPrev = pWnd1->ShowWindow(SW_SHOW);

  001ea	6a 05		 push	 5
  001ec	8b ce		 mov	 ecx, esi
  001ee	e8 00 00 00 00	 call	 ?ShowWindow@CWnd@@QAEHH@Z ; CWnd::ShowWindow
; File C:\Program Files (x86)\Microsoft Visual Studio\2019\Community\VC\Tools\MSVC\14.29.30133\atlmfc\include\afxwin2.inl

; 32   : 	{ ASSERT(::IsWindow(m_hWnd)); return ::SendMessage(m_hWnd, message, wParam, lParam); }

  001f3	6a 00		 push	 0
  001f5	ff 75 8c	 push	 DWORD PTR _memDC$[ebp+4]
; File D:\git\src\IBK\IBK_DRFN\ProjSrc\SrcDrfn\Chart\Common_ST\STGfxOutBarCtrl.cpp

; 2419 : 			BOOL bPrev = pWnd1->ShowWindow(SW_SHOW);

  001f8	8b f0		 mov	 esi, eax
; File C:\Program Files (x86)\Microsoft Visual Studio\2019\Community\VC\Tools\MSVC\14.29.30133\atlmfc\include\afxwin2.inl

; 32   : 	{ ASSERT(::IsWindow(m_hWnd)); return ::SendMessage(m_hWnd, message, wParam, lParam); }

  001fa	8b 45 80	 mov	 eax, DWORD PTR _pWnd1$1$[ebp]
  001fd	6a 14		 push	 20			; 00000014H
  001ff	ff 70 20	 push	 DWORD PTR [eax+32]
  00202	ff 15 00 00 00
	00		 call	 DWORD PTR __imp__SendMessageA@16
  00208	8b 45 80	 mov	 eax, DWORD PTR _pWnd1$1$[ebp]
  0020b	6a 00		 push	 0
  0020d	ff 75 8c	 push	 DWORD PTR _memDC$[ebp+4]
  00210	6a 0f		 push	 15			; 0000000fH
  00212	ff 70 20	 push	 DWORD PTR [eax+32]
  00215	ff 15 00 00 00
	00		 call	 DWORD PTR __imp__SendMessageA@16
; File D:\git\src\IBK\IBK_DRFN\ProjSrc\SrcDrfn\Chart\Common_ST\STGfxOutBarCtrl.cpp

; 2422 : 			if (!bPrev) pWnd1->ShowWindow(SW_HIDE);

  0021b	85 f6		 test	 esi, esi
  0021d	75 25		 jne	 SHORT $LN11@AnimateFol
  0021f	8b 4d 80	 mov	 ecx, DWORD PTR _pWnd1$1$[ebp]
  00222	56		 push	 esi
  00223	e8 00 00 00 00	 call	 ?ShowWindow@CWnd@@QAEHH@Z ; CWnd::ShowWindow

; 2423 : 		}

  00228	eb 1a		 jmp	 SHORT $LN11@AnimateFol
$LN10@AnimateFol:

; 2424 : 		else PaintItems(pDC, iFrom, rc1);

  0022a	0f 10 45 c0	 movups	 xmm0, XMMWORD PTR _rc1$[ebp]
  0022e	83 ec 10	 sub	 esp, 16			; 00000010H
  00231	8b cf		 mov	 ecx, edi
  00233	8b c4		 mov	 eax, esp
  00235	ff 75 9c	 push	 DWORD PTR _iFrom$GSCopy$1$[ebp]
  00238	0f 11 00	 movups	 XMMWORD PTR [eax], xmm0
  0023b	8d 45 88	 lea	 eax, DWORD PTR _memDC$[ebp]
  0023e	50		 push	 eax
  0023f	e8 00 00 00 00	 call	 ?PaintItems@CSTGfxOutBarCtrl@@QAEXPAVCDC@@HVCRect@@@Z ; CSTGfxOutBarCtrl::PaintItems
$LN11@AnimateFol:
; File C:\Program Files (x86)\Microsoft Visual Studio\2019\Community\VC\Tools\MSVC\14.29.30133\atlmfc\include\afxwin1.inl

; 361  : 	{ ASSERT(m_hDC != NULL); return (CBitmap*) SelectGdiObject(m_hDC, pBitmap->GetSafeHandle()); }

  00244	ff b5 78 ff ff
	ff		 push	 DWORD PTR _bmpTo$[ebp+4]
  0024a	ff 75 8c	 push	 DWORD PTR _memDC$[ebp+4]
  0024d	e8 00 00 00 00	 call	 ?SelectGdiObject@CDC@@KGPAVCGdiObject@@PAUHDC__@@PAX@Z ; CDC::SelectGdiObject
; File C:\Program Files (x86)\Microsoft Visual Studio\2019\Community\VC\Tools\MSVC\14.29.30133\atlmfc\include\atltypes.h

; 581  : 	return bottom - top;

  00252	8b 45 ec	 mov	 eax, DWORD PTR _frc$[ebp+12]
  00255	2b 45 e4	 sub	 eax, DWORD PTR _frc$[ebp+4]

; 657  : 	::SetRect(this, x1, y1, x2, y2);

  00258	8b 35 00 00 00
	00		 mov	 esi, DWORD PTR __imp__SetRect@20
  0025e	50		 push	 eax

; 576  : 	return right - left;

  0025f	8b 45 e8	 mov	 eax, DWORD PTR _frc$[ebp+8]
  00262	2b 45 e0	 sub	 eax, DWORD PTR _frc$[ebp]

; 657  : 	::SetRect(this, x1, y1, x2, y2);

  00265	50		 push	 eax
  00266	6a 00		 push	 0
  00268	6a 00		 push	 0
  0026a	8d 45 e0	 lea	 eax, DWORD PTR _frc$[ebp]
  0026d	50		 push	 eax
  0026e	ff d6		 call	 esi
; File D:\git\src\IBK\IBK_DRFN\ProjSrc\SrcDrfn\Chart\Common_ST\STGfxOutBarCtrl.cpp

; 2428 : 		rc1.SetRect(0,frc.Height(),rc.Width(), rc.Height()+frc.Height() * 2);

  00270	8b 4d ec	 mov	 ecx, DWORD PTR _frc$[ebp+12]
  00273	2b 4d e4	 sub	 ecx, DWORD PTR _frc$[ebp+4]
  00276	8d 04 09	 lea	 eax, DWORD PTR [ecx+ecx]
; File C:\Program Files (x86)\Microsoft Visual Studio\2019\Community\VC\Tools\MSVC\14.29.30133\atlmfc\include\atltypes.h

; 657  : 	::SetRect(this, x1, y1, x2, y2);

  00279	2b 45 d4	 sub	 eax, DWORD PTR _rc$[ebp+4]
; File D:\git\src\IBK\IBK_DRFN\ProjSrc\SrcDrfn\Chart\Common_ST\STGfxOutBarCtrl.cpp

; 2428 : 		rc1.SetRect(0,frc.Height(),rc.Width(), rc.Height()+frc.Height() * 2);

  0027c	03 45 dc	 add	 eax, DWORD PTR _rc$[ebp+12]
; File C:\Program Files (x86)\Microsoft Visual Studio\2019\Community\VC\Tools\MSVC\14.29.30133\atlmfc\include\atltypes.h

; 657  : 	::SetRect(this, x1, y1, x2, y2);

  0027f	50		 push	 eax

; 576  : 	return right - left;

  00280	8b 45 d8	 mov	 eax, DWORD PTR _rc$[ebp+8]
  00283	2b 45 d0	 sub	 eax, DWORD PTR _rc$[ebp]

; 657  : 	::SetRect(this, x1, y1, x2, y2);

  00286	50		 push	 eax
  00287	51		 push	 ecx
  00288	6a 00		 push	 0
  0028a	8d 45 c0	 lea	 eax, DWORD PTR _rc1$[ebp]
  0028d	50		 push	 eax
  0028e	ff d6		 call	 esi
; File D:\git\src\IBK\IBK_DRFN\ProjSrc\SrcDrfn\Chart\Common_ST\STGfxOutBarCtrl.cpp

; 2429 : 		pDC->FillSolidRect(rc1, crBackGroundColor);

  00290	ff b7 80 00 00
	00		 push	 DWORD PTR [edi+128]
  00296	8d 45 c0	 lea	 eax, DWORD PTR _rc1$[ebp]
  00299	50		 push	 eax
  0029a	8d 4d 88	 lea	 ecx, DWORD PTR _memDC$[ebp]
  0029d	e8 00 00 00 00	 call	 ?FillSolidRect@CDC@@QAEXPBUtagRECT@@K@Z ; CDC::FillSolidRect

; 2430 : 
; 2431 : 		if (pWnd2) 

  002a2	8b 75 84	 mov	 esi, DWORD PTR _pWnd2$1$[ebp]
  002a5	85 f6		 test	 esi, esi
  002a7	74 72		 je	 SHORT $LN13@AnimateFol
; File C:\Program Files (x86)\Microsoft Visual Studio\2019\Community\VC\Tools\MSVC\14.29.30133\atlmfc\include\atltypes.h

; 581  : 	return bottom - top;

  002a9	8b 45 ec	 mov	 eax, DWORD PTR _frc$[ebp+12]
; File D:\git\src\IBK\IBK_DRFN\ProjSrc\SrcDrfn\Chart\Common_ST\STGfxOutBarCtrl.cpp

; 2433 : 			CPoint ovpt = pDC->SetViewportOrg(0, frc.Height());

  002ac	8d 4d 88	 lea	 ecx, DWORD PTR _memDC$[ebp]
; File C:\Program Files (x86)\Microsoft Visual Studio\2019\Community\VC\Tools\MSVC\14.29.30133\atlmfc\include\atltypes.h

; 581  : 	return bottom - top;

  002af	2b 45 e4	 sub	 eax, DWORD PTR _frc$[ebp+4]
; File D:\git\src\IBK\IBK_DRFN\ProjSrc\SrcDrfn\Chart\Common_ST\STGfxOutBarCtrl.cpp

; 2433 : 			CPoint ovpt = pDC->SetViewportOrg(0, frc.Height());

  002b2	50		 push	 eax
  002b3	6a 00		 push	 0
  002b5	8d 85 7c ff ff
	ff		 lea	 eax, DWORD PTR _ovpt$3[ebp]
  002bb	50		 push	 eax
  002bc	8b 45 88	 mov	 eax, DWORD PTR _memDC$[ebp]
  002bf	ff 50 40	 call	 DWORD PTR [eax+64]

; 2434 : 			BOOL bPrev = pWnd2->ShowWindow(SW_SHOW);

  002c2	6a 05		 push	 5
  002c4	8b ce		 mov	 ecx, esi
  002c6	e8 00 00 00 00	 call	 ?ShowWindow@CWnd@@QAEHH@Z ; CWnd::ShowWindow
; File C:\Program Files (x86)\Microsoft Visual Studio\2019\Community\VC\Tools\MSVC\14.29.30133\atlmfc\include\afxwin2.inl

; 32   : 	{ ASSERT(::IsWindow(m_hWnd)); return ::SendMessage(m_hWnd, message, wParam, lParam); }

  002cb	6a 00		 push	 0
  002cd	ff 75 8c	 push	 DWORD PTR _memDC$[ebp+4]
; File D:\git\src\IBK\IBK_DRFN\ProjSrc\SrcDrfn\Chart\Common_ST\STGfxOutBarCtrl.cpp

; 2434 : 			BOOL bPrev = pWnd2->ShowWindow(SW_SHOW);

  002d0	8b f0		 mov	 esi, eax
; File C:\Program Files (x86)\Microsoft Visual Studio\2019\Community\VC\Tools\MSVC\14.29.30133\atlmfc\include\afxwin2.inl

; 32   : 	{ ASSERT(::IsWindow(m_hWnd)); return ::SendMessage(m_hWnd, message, wParam, lParam); }

  002d2	8b 45 84	 mov	 eax, DWORD PTR _pWnd2$1$[ebp]
  002d5	6a 14		 push	 20			; 00000014H
  002d7	ff 70 20	 push	 DWORD PTR [eax+32]
  002da	ff 15 00 00 00
	00		 call	 DWORD PTR __imp__SendMessageA@16
  002e0	8b 45 84	 mov	 eax, DWORD PTR _pWnd2$1$[ebp]
  002e3	6a 00		 push	 0
  002e5	ff 75 8c	 push	 DWORD PTR _memDC$[ebp+4]
  002e8	6a 0f		 push	 15			; 0000000fH
  002ea	ff 70 20	 push	 DWORD PTR [eax+32]
  002ed	ff 15 00 00 00
	00		 call	 DWORD PTR __imp__SendMessageA@16
; File D:\git\src\IBK\IBK_DRFN\ProjSrc\SrcDrfn\Chart\Common_ST\STGfxOutBarCtrl.cpp

; 2437 : 			if (!bPrev) pWnd2->ShowWindow(SW_HIDE);

  002f3	85 f6		 test	 esi, esi
  002f5	75 09		 jne	 SHORT $LN15@AnimateFol
  002f7	8b 4d 84	 mov	 ecx, DWORD PTR _pWnd2$1$[ebp]
  002fa	56		 push	 esi
  002fb	e8 00 00 00 00	 call	 ?ShowWindow@CWnd@@QAEHH@Z ; CWnd::ShowWindow
$LN15@AnimateFol:
; File C:\Program Files (x86)\Microsoft Visual Studio\2019\Community\VC\Tools\MSVC\14.29.30133\atlmfc\include\afxwin1.inl

; 423  : 	{ ASSERT(m_hDC != NULL); return SetViewportOrg(point.x, point.y); }

  00300	ff 75 80	 push	 DWORD PTR _ovpt$3[ebp+4]
  00303	8d 45 b8	 lea	 eax, DWORD PTR $T9[ebp]
  00306	ff b5 7c ff ff
	ff		 push	 DWORD PTR _ovpt$3[ebp]
  0030c	8d 4d 88	 lea	 ecx, DWORD PTR _memDC$[ebp]
  0030f	50		 push	 eax
  00310	8b 45 88	 mov	 eax, DWORD PTR _memDC$[ebp]
  00313	ff 50 40	 call	 DWORD PTR [eax+64]
; File D:\git\src\IBK\IBK_DRFN\ProjSrc\SrcDrfn\Chart\Common_ST\STGfxOutBarCtrl.cpp

; 2439 : 		}

  00316	8b 75 98	 mov	 esi, DWORD PTR _iTo$GSCopy$1$[ebp]
  00319	eb 1b		 jmp	 SHORT $LN14@AnimateFol
$LN13@AnimateFol:

; 2440 : 		else PaintItems(pDC, iTo, rc1);

  0031b	0f 10 45 c0	 movups	 xmm0, XMMWORD PTR _rc1$[ebp]
  0031f	8b 75 98	 mov	 esi, DWORD PTR _iTo$GSCopy$1$[ebp]
  00322	83 ec 10	 sub	 esp, 16			; 00000010H
  00325	8b c4		 mov	 eax, esp
  00327	8b cf		 mov	 ecx, edi
  00329	56		 push	 esi
  0032a	0f 11 00	 movups	 XMMWORD PTR [eax], xmm0
  0032d	8d 45 88	 lea	 eax, DWORD PTR _memDC$[ebp]
  00330	50		 push	 eax
  00331	e8 00 00 00 00	 call	 ?PaintItems@CSTGfxOutBarCtrl@@QAEXPAVCDC@@HVCRect@@@Z ; CSTGfxOutBarCtrl::PaintItems
$LN14@AnimateFol:

; 2441 : 		DrawFolder(pDC, iTo, frc, false);

  00336	0f 10 45 e0	 movups	 xmm0, XMMWORD PTR _frc$[ebp]
  0033a	6a 00		 push	 0
  0033c	83 ec 10	 sub	 esp, 16			; 00000010H
  0033f	8b cf		 mov	 ecx, edi
  00341	8b c4		 mov	 eax, esp
  00343	56		 push	 esi
  00344	0f 11 00	 movups	 XMMWORD PTR [eax], xmm0
  00347	8d 45 88	 lea	 eax, DWORD PTR _memDC$[ebp]
  0034a	50		 push	 eax
  0034b	e8 00 00 00 00	 call	 ?DrawFolder@CSTGfxOutBarCtrl@@IAEXPAVCDC@@HVCRect@@_N@Z ; CSTGfxOutBarCtrl::DrawFolder

; 2479 : 		GetFolderRect(iFrom, rcFrom);

  00350	8d 45 b0	 lea	 eax, DWORD PTR _rcFrom$7[ebp]
  00353	0f 57 c0	 xorps	 xmm0, xmm0
  00356	50		 push	 eax
  00357	ff 75 9c	 push	 DWORD PTR _iFrom$GSCopy$1$[ebp]
  0035a	8b cf		 mov	 ecx, edi
; File C:\Program Files (x86)\Microsoft Visual Studio\2019\Community\VC\Tools\MSVC\14.29.30133\atlmfc\include\atltypes.h

; 528  : 	left = 0;

  0035c	0f 11 45 b0	 movups	 XMMWORD PTR _rcFrom$7[ebp], xmm0
  00360	0f 11 45 a0	 movups	 XMMWORD PTR _rcTo$5[ebp], xmm0
; File D:\git\src\IBK\IBK_DRFN\ProjSrc\SrcDrfn\Chart\Common_ST\STGfxOutBarCtrl.cpp

; 2479 : 		GetFolderRect(iFrom, rcFrom);

  00364	e8 00 00 00 00	 call	 ?GetFolderRect@CSTGfxOutBarCtrl@@QBE_NHAAVCRect@@@Z ; CSTGfxOutBarCtrl::GetFolderRect

; 2480 : 		GetFolderRect(iTo, rcTo);

  00369	8d 45 a0	 lea	 eax, DWORD PTR _rcTo$5[ebp]
  0036c	8b cf		 mov	 ecx, edi
  0036e	50		 push	 eax
  0036f	56		 push	 esi
  00370	e8 00 00 00 00	 call	 ?GetFolderRect@CSTGfxOutBarCtrl@@QBE_NHAAVCRect@@@Z ; CSTGfxOutBarCtrl::GetFolderRect
; File C:\Program Files (x86)\Microsoft Visual Studio\2019\Community\VC\Tools\MSVC\14.29.30133\atlmfc\include\atltypes.h

; 581  : 	return bottom - top;

  00375	8b 4d bc	 mov	 ecx, DWORD PTR _rcFrom$7[ebp+12]
  00378	2b 4d b4	 sub	 ecx, DWORD PTR _rcFrom$7[ebp+4]
; File D:\git\src\IBK\IBK_DRFN\ProjSrc\SrcDrfn\Chart\Common_ST\STGfxOutBarCtrl.cpp

; 2482 : 		for (int y = rcTo.top - fh; y > rcFrom.bottom; y -= fh)

  0037b	8b 75 a4	 mov	 esi, DWORD PTR _rcTo$5[ebp+4]
  0037e	2b f1		 sub	 esi, ecx
; File C:\Program Files (x86)\Microsoft Visual Studio\2019\Community\VC\Tools\MSVC\14.29.30133\atlmfc\include\atltypes.h

; 581  : 	return bottom - top;

  00380	89 4d 98	 mov	 DWORD PTR _fh$1$[ebp], ecx
; File D:\git\src\IBK\IBK_DRFN\ProjSrc\SrcDrfn\Chart\Common_ST\STGfxOutBarCtrl.cpp

; 2482 : 		for (int y = rcTo.top - fh; y > rcFrom.bottom; y -= fh)

  00383	89 75 9c	 mov	 DWORD PTR _y$1$[ebp], esi
  00386	3b 75 bc	 cmp	 esi, DWORD PTR _rcFrom$7[ebp+12]
  00389	0f 8e 16 03 00
	00		 jle	 $LN6@AnimateFol
  0038f	90		 npad	 1
$LL4@AnimateFol:
; File C:\Program Files (x86)\Microsoft Visual Studio\2019\Community\VC\Tools\MSVC\14.29.30133\atlmfc\include\afxwin1.inl

; 361  : 	{ ASSERT(m_hDC != NULL); return (CBitmap*) SelectGdiObject(m_hDC, pBitmap->GetSafeHandle()); }

  00390	ff b5 70 ff ff
	ff		 push	 DWORD PTR _bmpFrom$[ebp+4]
  00396	ff 75 8c	 push	 DWORD PTR _memDC$[ebp+4]
  00399	e8 00 00 00 00	 call	 ?SelectGdiObject@CDC@@KGPAVCGdiObject@@PAUHDC__@@PAX@Z ; CDC::SelectGdiObject
; File D:\git\src\IBK\IBK_DRFN\ProjSrc\SrcDrfn\Chart\Common_ST\STGfxOutBarCtrl.cpp

; 2485 : 			dc.BitBlt(rc.left, rcFrom.bottom + 1, rc.Width(), y - rcFrom.bottom - 1, pDC, 0,fh, SRCCOPY);

  0039e	8b 45 bc	 mov	 eax, DWORD PTR _rcFrom$7[ebp+12]
  003a1	2b f0		 sub	 esi, eax
; File C:\Program Files (x86)\Microsoft Visual Studio\2019\Community\VC\Tools\MSVC\14.29.30133\atlmfc\include\atltypes.h

; 576  : 	return right - left;

  003a3	8b 4d d8	 mov	 ecx, DWORD PTR _rc$[ebp+8]
; File D:\git\src\IBK\IBK_DRFN\ProjSrc\SrcDrfn\Chart\Common_ST\STGfxOutBarCtrl.cpp

; 2485 : 			dc.BitBlt(rc.left, rcFrom.bottom + 1, rc.Width(), y - rcFrom.bottom - 1, pDC, 0,fh, SRCCOPY);

  003a6	4e		 dec	 esi
; File C:\Program Files (x86)\Microsoft Visual Studio\2019\Community\VC\Tools\MSVC\14.29.30133\atlmfc\include\atltypes.h

; 576  : 	return right - left;

  003a7	8b 55 d0	 mov	 edx, DWORD PTR _rc$[ebp]
; File D:\git\src\IBK\IBK_DRFN\ProjSrc\SrcDrfn\Chart\Common_ST\STGfxOutBarCtrl.cpp

; 2485 : 			dc.BitBlt(rc.left, rcFrom.bottom + 1, rc.Width(), y - rcFrom.bottom - 1, pDC, 0,fh, SRCCOPY);

  003aa	40		 inc	 eax
; File C:\Program Files (x86)\Microsoft Visual Studio\2019\Community\VC\Tools\MSVC\14.29.30133\atlmfc\include\afxwin1.inl

; 552  : 	{ ASSERT(m_hDC != NULL); return ::BitBlt(m_hDC, x, y, nWidth, nHeight,

  003ab	68 20 00 cc 00	 push	 13369376		; 00cc0020H
  003b0	ff 75 98	 push	 DWORD PTR _fh$1$[ebp]
; File C:\Program Files (x86)\Microsoft Visual Studio\2019\Community\VC\Tools\MSVC\14.29.30133\atlmfc\include\atltypes.h

; 576  : 	return right - left;

  003b3	2b ca		 sub	 ecx, edx
; File C:\Program Files (x86)\Microsoft Visual Studio\2019\Community\VC\Tools\MSVC\14.29.30133\atlmfc\include\afxwin1.inl

; 552  : 	{ ASSERT(m_hDC != NULL); return ::BitBlt(m_hDC, x, y, nWidth, nHeight,

  003b5	6a 00		 push	 0
  003b7	ff 75 8c	 push	 DWORD PTR _memDC$[ebp+4]
  003ba	56		 push	 esi
  003bb	51		 push	 ecx
  003bc	50		 push	 eax
  003bd	52		 push	 edx
  003be	ff b5 58 ff ff
	ff		 push	 DWORD PTR _dc$[ebp+4]
  003c4	ff 15 00 00 00
	00		 call	 DWORD PTR __imp__BitBlt@36

; 361  : 	{ ASSERT(m_hDC != NULL); return (CBitmap*) SelectGdiObject(m_hDC, pBitmap->GetSafeHandle()); }

  003ca	ff b5 78 ff ff
	ff		 push	 DWORD PTR _bmpTo$[ebp+4]
  003d0	ff 75 8c	 push	 DWORD PTR _memDC$[ebp+4]
  003d3	e8 00 00 00 00	 call	 ?SelectGdiObject@CDC@@KGPAVCGdiObject@@PAUHDC__@@PAX@Z ; CDC::SelectGdiObject
; File D:\git\src\IBK\IBK_DRFN\ProjSrc\SrcDrfn\Chart\Common_ST\STGfxOutBarCtrl.cpp

; 2487 : 			dc.BitBlt(rc.left, y, rc.Width(), rc.bottom - y + fh, pDC, 0,0, SRCCOPY);

  003d8	8b 55 dc	 mov	 edx, DWORD PTR _rc$[ebp+12]
  003db	8b 75 9c	 mov	 esi, DWORD PTR _y$1$[ebp]
  003de	2b d6		 sub	 edx, esi
  003e0	03 55 98	 add	 edx, DWORD PTR _fh$1$[ebp]
; File C:\Program Files (x86)\Microsoft Visual Studio\2019\Community\VC\Tools\MSVC\14.29.30133\atlmfc\include\atltypes.h

; 576  : 	return right - left;

  003e3	8b 45 d8	 mov	 eax, DWORD PTR _rc$[ebp+8]
  003e6	8b 4d d0	 mov	 ecx, DWORD PTR _rc$[ebp]
  003e9	2b c1		 sub	 eax, ecx
; File C:\Program Files (x86)\Microsoft Visual Studio\2019\Community\VC\Tools\MSVC\14.29.30133\atlmfc\include\afxwin1.inl

; 552  : 	{ ASSERT(m_hDC != NULL); return ::BitBlt(m_hDC, x, y, nWidth, nHeight,

  003eb	68 20 00 cc 00	 push	 13369376		; 00cc0020H
  003f0	6a 00		 push	 0
  003f2	6a 00		 push	 0
  003f4	ff 75 8c	 push	 DWORD PTR _memDC$[ebp+4]
  003f7	52		 push	 edx
  003f8	50		 push	 eax
  003f9	56		 push	 esi
  003fa	51		 push	 ecx
  003fb	ff b5 58 ff ff
	ff		 push	 DWORD PTR _dc$[ebp+4]
  00401	ff 15 00 00 00
	00		 call	 DWORD PTR __imp__BitBlt@36
; File D:\git\src\IBK\IBK_DRFN\ProjSrc\SrcDrfn\Chart\Common_ST\STGfxOutBarCtrl.cpp

; 2488 : 			Sleep(lAnimationTickCount);

  00407	ff b7 ec 00 00
	00		 push	 DWORD PTR [edi+236]
  0040d	ff 15 00 00 00
	00		 call	 DWORD PTR __imp__Sleep@4
  00413	2b 75 98	 sub	 esi, DWORD PTR _fh$1$[ebp]
  00416	89 75 9c	 mov	 DWORD PTR _y$1$[ebp], esi
  00419	3b 75 bc	 cmp	 esi, DWORD PTR _rcFrom$7[ebp+12]
  0041c	0f 8f 6e ff ff
	ff		 jg	 $LL4@AnimateFol

; 2489 : 		}
; 2490 : 	}

  00422	e9 7e 02 00 00	 jmp	 $LN6@AnimateFol
$LN8@AnimateFol:
; File C:\Program Files (x86)\Microsoft Visual Studio\2019\Community\VC\Tools\MSVC\14.29.30133\atlmfc\include\atltypes.h

; 581  : 	return bottom - top;

  00427	8b 45 ec	 mov	 eax, DWORD PTR _frc$[ebp+12]
  0042a	2b 45 e4	 sub	 eax, DWORD PTR _frc$[ebp+4]

; 657  : 	::SetRect(this, x1, y1, x2, y2);

  0042d	50		 push	 eax

; 576  : 	return right - left;

  0042e	8b 45 e8	 mov	 eax, DWORD PTR _frc$[ebp+8]
  00431	2b 45 e0	 sub	 eax, DWORD PTR _frc$[ebp]

; 657  : 	::SetRect(this, x1, y1, x2, y2);

  00434	50		 push	 eax
  00435	6a 00		 push	 0
  00437	6a 00		 push	 0
  00439	8d 45 e0	 lea	 eax, DWORD PTR _frc$[ebp]
  0043c	50		 push	 eax
  0043d	ff 15 00 00 00
	00		 call	 DWORD PTR __imp__SetRect@20
; File D:\git\src\IBK\IBK_DRFN\ProjSrc\SrcDrfn\Chart\Common_ST\STGfxOutBarCtrl.cpp

; 2446 : 		rc1.top += frc.Height();

  00443	8b 4d ec	 mov	 ecx, DWORD PTR _frc$[ebp+12]
  00446	2b 4d e4	 sub	 ecx, DWORD PTR _frc$[ebp+4]

; 2447 : 		rc1.bottom += frc.Height() * 2;

  00449	8b 45 cc	 mov	 eax, DWORD PTR _rc1$[ebp+12]

; 2448 : 		pDC->FillSolidRect(rc1, crBackGroundColor);

  0044c	ff b7 80 00 00
	00		 push	 DWORD PTR [edi+128]
  00452	01 4d c4	 add	 DWORD PTR _rc1$[ebp+4], ecx
  00455	8d 04 48	 lea	 eax, DWORD PTR [eax+ecx*2]
  00458	89 45 cc	 mov	 DWORD PTR _rc1$[ebp+12], eax
  0045b	8d 4d 88	 lea	 ecx, DWORD PTR _memDC$[ebp]
  0045e	8d 45 c0	 lea	 eax, DWORD PTR _rc1$[ebp]
  00461	50		 push	 eax
  00462	e8 00 00 00 00	 call	 ?FillSolidRect@CDC@@QAEXPBUtagRECT@@K@Z ; CDC::FillSolidRect

; 2449 : 		if (pWnd1) 

  00467	85 f6		 test	 esi, esi
  00469	74 6c		 je	 SHORT $LN16@AnimateFol
; File C:\Program Files (x86)\Microsoft Visual Studio\2019\Community\VC\Tools\MSVC\14.29.30133\atlmfc\include\atltypes.h

; 581  : 	return bottom - top;

  0046b	8b 45 ec	 mov	 eax, DWORD PTR _frc$[ebp+12]
; File D:\git\src\IBK\IBK_DRFN\ProjSrc\SrcDrfn\Chart\Common_ST\STGfxOutBarCtrl.cpp

; 2451 : 			CPoint ovpt = pDC->SetViewportOrg(0, frc.Height());

  0046e	8d 4d 88	 lea	 ecx, DWORD PTR _memDC$[ebp]
; File C:\Program Files (x86)\Microsoft Visual Studio\2019\Community\VC\Tools\MSVC\14.29.30133\atlmfc\include\atltypes.h

; 581  : 	return bottom - top;

  00471	2b 45 e4	 sub	 eax, DWORD PTR _frc$[ebp+4]
; File D:\git\src\IBK\IBK_DRFN\ProjSrc\SrcDrfn\Chart\Common_ST\STGfxOutBarCtrl.cpp

; 2451 : 			CPoint ovpt = pDC->SetViewportOrg(0, frc.Height());

  00474	50		 push	 eax
  00475	6a 00		 push	 0
  00477	8d 45 b8	 lea	 eax, DWORD PTR _ovpt$8[ebp]
  0047a	50		 push	 eax
  0047b	8b 45 88	 mov	 eax, DWORD PTR _memDC$[ebp]
  0047e	ff 50 40	 call	 DWORD PTR [eax+64]

; 2452 : 			BOOL bPrev = pWnd1->ShowWindow(SW_SHOW);

  00481	6a 05		 push	 5
  00483	8b ce		 mov	 ecx, esi
  00485	e8 00 00 00 00	 call	 ?ShowWindow@CWnd@@QAEHH@Z ; CWnd::ShowWindow
; File C:\Program Files (x86)\Microsoft Visual Studio\2019\Community\VC\Tools\MSVC\14.29.30133\atlmfc\include\afxwin2.inl

; 32   : 	{ ASSERT(::IsWindow(m_hWnd)); return ::SendMessage(m_hWnd, message, wParam, lParam); }

  0048a	6a 00		 push	 0
  0048c	ff 75 8c	 push	 DWORD PTR _memDC$[ebp+4]
; File D:\git\src\IBK\IBK_DRFN\ProjSrc\SrcDrfn\Chart\Common_ST\STGfxOutBarCtrl.cpp

; 2452 : 			BOOL bPrev = pWnd1->ShowWindow(SW_SHOW);

  0048f	8b f0		 mov	 esi, eax
; File C:\Program Files (x86)\Microsoft Visual Studio\2019\Community\VC\Tools\MSVC\14.29.30133\atlmfc\include\afxwin2.inl

; 32   : 	{ ASSERT(::IsWindow(m_hWnd)); return ::SendMessage(m_hWnd, message, wParam, lParam); }

  00491	8b 45 80	 mov	 eax, DWORD PTR _pWnd1$1$[ebp]
  00494	6a 14		 push	 20			; 00000014H
  00496	ff 70 20	 push	 DWORD PTR [eax+32]
  00499	ff 15 00 00 00
	00		 call	 DWORD PTR __imp__SendMessageA@16
  0049f	8b 45 80	 mov	 eax, DWORD PTR _pWnd1$1$[ebp]
  004a2	6a 00		 push	 0
  004a4	ff 75 8c	 push	 DWORD PTR _memDC$[ebp+4]
  004a7	6a 0f		 push	 15			; 0000000fH
  004a9	ff 70 20	 push	 DWORD PTR [eax+32]
  004ac	ff 15 00 00 00
	00		 call	 DWORD PTR __imp__SendMessageA@16
; File D:\git\src\IBK\IBK_DRFN\ProjSrc\SrcDrfn\Chart\Common_ST\STGfxOutBarCtrl.cpp

; 2455 : 			if (!bPrev) pWnd1->ShowWindow(SW_HIDE);

  004b2	85 f6		 test	 esi, esi
  004b4	75 09		 jne	 SHORT $LN18@AnimateFol
  004b6	8b 4d 80	 mov	 ecx, DWORD PTR _pWnd1$1$[ebp]
  004b9	56		 push	 esi
  004ba	e8 00 00 00 00	 call	 ?ShowWindow@CWnd@@QAEHH@Z ; CWnd::ShowWindow
$LN18@AnimateFol:
; File C:\Program Files (x86)\Microsoft Visual Studio\2019\Community\VC\Tools\MSVC\14.29.30133\atlmfc\include\afxwin1.inl

; 423  : 	{ ASSERT(m_hDC != NULL); return SetViewportOrg(point.x, point.y); }

  004bf	ff 75 bc	 push	 DWORD PTR _ovpt$8[ebp+4]
  004c2	8d 85 7c ff ff
	ff		 lea	 eax, DWORD PTR $T2[ebp]
  004c8	ff 75 b8	 push	 DWORD PTR _ovpt$8[ebp]
  004cb	8d 4d 88	 lea	 ecx, DWORD PTR _memDC$[ebp]
  004ce	50		 push	 eax
  004cf	8b 45 88	 mov	 eax, DWORD PTR _memDC$[ebp]
  004d2	ff 50 40	 call	 DWORD PTR [eax+64]
; File D:\git\src\IBK\IBK_DRFN\ProjSrc\SrcDrfn\Chart\Common_ST\STGfxOutBarCtrl.cpp

; 2457 : 		}

  004d5	eb 1a		 jmp	 SHORT $LN17@AnimateFol
$LN16@AnimateFol:

; 2458 : 		else PaintItems(pDC, iFrom, rc1);

  004d7	0f 10 45 c0	 movups	 xmm0, XMMWORD PTR _rc1$[ebp]
  004db	83 ec 10	 sub	 esp, 16			; 00000010H
  004de	8b cf		 mov	 ecx, edi
  004e0	8b c4		 mov	 eax, esp
  004e2	ff 75 9c	 push	 DWORD PTR _iFrom$GSCopy$1$[ebp]
  004e5	0f 11 00	 movups	 XMMWORD PTR [eax], xmm0
  004e8	8d 45 88	 lea	 eax, DWORD PTR _memDC$[ebp]
  004eb	50		 push	 eax
  004ec	e8 00 00 00 00	 call	 ?PaintItems@CSTGfxOutBarCtrl@@QAEXPAVCDC@@HVCRect@@@Z ; CSTGfxOutBarCtrl::PaintItems
$LN17@AnimateFol:

; 2459 : 
; 2460 : 		DrawFolder(pDC, iFrom, frc, false);

  004f1	0f 10 45 e0	 movups	 xmm0, XMMWORD PTR _frc$[ebp]
  004f5	6a 00		 push	 0
  004f7	83 ec 10	 sub	 esp, 16			; 00000010H
  004fa	8b cf		 mov	 ecx, edi
  004fc	8b c4		 mov	 eax, esp
  004fe	ff 75 9c	 push	 DWORD PTR _iFrom$GSCopy$1$[ebp]
  00501	0f 11 00	 movups	 XMMWORD PTR [eax], xmm0
  00504	8d 45 88	 lea	 eax, DWORD PTR _memDC$[ebp]
  00507	50		 push	 eax
  00508	e8 00 00 00 00	 call	 ?DrawFolder@CSTGfxOutBarCtrl@@IAEXPAVCDC@@HVCRect@@_N@Z ; CSTGfxOutBarCtrl::DrawFolder
; File C:\Program Files (x86)\Microsoft Visual Studio\2019\Community\VC\Tools\MSVC\14.29.30133\atlmfc\include\afxwin1.inl

; 361  : 	{ ASSERT(m_hDC != NULL); return (CBitmap*) SelectGdiObject(m_hDC, pBitmap->GetSafeHandle()); }

  0050d	ff b5 78 ff ff
	ff		 push	 DWORD PTR _bmpTo$[ebp+4]
  00513	ff 75 8c	 push	 DWORD PTR _memDC$[ebp+4]
  00516	e8 00 00 00 00	 call	 ?SelectGdiObject@CDC@@KGPAVCGdiObject@@PAUHDC__@@PAX@Z ; CDC::SelectGdiObject
; File D:\git\src\IBK\IBK_DRFN\ProjSrc\SrcDrfn\Chart\Common_ST\STGfxOutBarCtrl.cpp

; 2463 : 		rc1.SetRect(0,0,rc.Width(), rc.Height() + frc.Height() * 2);

  0051b	8b 45 ec	 mov	 eax, DWORD PTR _frc$[ebp+12]
  0051e	2b 45 e4	 sub	 eax, DWORD PTR _frc$[ebp+4]
  00521	03 c0		 add	 eax, eax
; File C:\Program Files (x86)\Microsoft Visual Studio\2019\Community\VC\Tools\MSVC\14.29.30133\atlmfc\include\atltypes.h

; 657  : 	::SetRect(this, x1, y1, x2, y2);

  00523	2b 45 d4	 sub	 eax, DWORD PTR _rc$[ebp+4]
; File D:\git\src\IBK\IBK_DRFN\ProjSrc\SrcDrfn\Chart\Common_ST\STGfxOutBarCtrl.cpp

; 2463 : 		rc1.SetRect(0,0,rc.Width(), rc.Height() + frc.Height() * 2);

  00526	03 45 dc	 add	 eax, DWORD PTR _rc$[ebp+12]
; File C:\Program Files (x86)\Microsoft Visual Studio\2019\Community\VC\Tools\MSVC\14.29.30133\atlmfc\include\atltypes.h

; 657  : 	::SetRect(this, x1, y1, x2, y2);

  00529	50		 push	 eax

; 576  : 	return right - left;

  0052a	8b 45 d8	 mov	 eax, DWORD PTR _rc$[ebp+8]
  0052d	2b 45 d0	 sub	 eax, DWORD PTR _rc$[ebp]

; 657  : 	::SetRect(this, x1, y1, x2, y2);

  00530	50		 push	 eax
  00531	6a 00		 push	 0
  00533	6a 00		 push	 0
  00535	8d 45 c0	 lea	 eax, DWORD PTR _rc1$[ebp]
  00538	50		 push	 eax
  00539	ff 15 00 00 00
	00		 call	 DWORD PTR __imp__SetRect@20
; File D:\git\src\IBK\IBK_DRFN\ProjSrc\SrcDrfn\Chart\Common_ST\STGfxOutBarCtrl.cpp

; 2464 : 		pDC->FillSolidRect(rc1, crBackGroundColor);

  0053f	ff b7 80 00 00
	00		 push	 DWORD PTR [edi+128]
  00545	8d 45 c0	 lea	 eax, DWORD PTR _rc1$[ebp]
  00548	50		 push	 eax
  00549	8d 4d 88	 lea	 ecx, DWORD PTR _memDC$[ebp]
  0054c	e8 00 00 00 00	 call	 ?FillSolidRect@CDC@@QAEXPBUtagRECT@@K@Z ; CDC::FillSolidRect

; 2465 : 
; 2466 : 		if (pWnd2) 

  00551	8b 45 84	 mov	 eax, DWORD PTR _pWnd2$1$[ebp]
  00554	85 c0		 test	 eax, eax
  00556	74 40		 je	 SHORT $LN19@AnimateFol

; 2468 : 			BOOL bPrev = pWnd2->ShowWindow(SW_SHOW);

  00558	6a 05		 push	 5
  0055a	8b c8		 mov	 ecx, eax
  0055c	e8 00 00 00 00	 call	 ?ShowWindow@CWnd@@QAEHH@Z ; CWnd::ShowWindow
; File C:\Program Files (x86)\Microsoft Visual Studio\2019\Community\VC\Tools\MSVC\14.29.30133\atlmfc\include\afxwin2.inl

; 32   : 	{ ASSERT(::IsWindow(m_hWnd)); return ::SendMessage(m_hWnd, message, wParam, lParam); }

  00561	6a 00		 push	 0
  00563	ff 75 8c	 push	 DWORD PTR _memDC$[ebp+4]
; File D:\git\src\IBK\IBK_DRFN\ProjSrc\SrcDrfn\Chart\Common_ST\STGfxOutBarCtrl.cpp

; 2468 : 			BOOL bPrev = pWnd2->ShowWindow(SW_SHOW);

  00566	8b f0		 mov	 esi, eax
; File C:\Program Files (x86)\Microsoft Visual Studio\2019\Community\VC\Tools\MSVC\14.29.30133\atlmfc\include\afxwin2.inl

; 32   : 	{ ASSERT(::IsWindow(m_hWnd)); return ::SendMessage(m_hWnd, message, wParam, lParam); }

  00568	8b 45 84	 mov	 eax, DWORD PTR _pWnd2$1$[ebp]
  0056b	6a 14		 push	 20			; 00000014H
  0056d	ff 70 20	 push	 DWORD PTR [eax+32]
  00570	ff 15 00 00 00
	00		 call	 DWORD PTR __imp__SendMessageA@16
  00576	8b 45 84	 mov	 eax, DWORD PTR _pWnd2$1$[ebp]
  00579	6a 00		 push	 0
  0057b	ff 75 8c	 push	 DWORD PTR _memDC$[ebp+4]
  0057e	6a 0f		 push	 15			; 0000000fH
  00580	ff 70 20	 push	 DWORD PTR [eax+32]
  00583	ff 15 00 00 00
	00		 call	 DWORD PTR __imp__SendMessageA@16
; File D:\git\src\IBK\IBK_DRFN\ProjSrc\SrcDrfn\Chart\Common_ST\STGfxOutBarCtrl.cpp

; 2471 : 			if (!bPrev) pWnd2->ShowWindow(SW_HIDE);

  00589	85 f6		 test	 esi, esi
  0058b	75 25		 jne	 SHORT $LN22@AnimateFol
  0058d	8b 4d 84	 mov	 ecx, DWORD PTR _pWnd2$1$[ebp]
  00590	56		 push	 esi
  00591	e8 00 00 00 00	 call	 ?ShowWindow@CWnd@@QAEHH@Z ; CWnd::ShowWindow

; 2472 : 		}

  00596	eb 1a		 jmp	 SHORT $LN22@AnimateFol
$LN19@AnimateFol:

; 2473 : 		else PaintItems(pDC, iTo, rc1);

  00598	0f 10 45 c0	 movups	 xmm0, XMMWORD PTR _rc1$[ebp]
  0059c	83 ec 10	 sub	 esp, 16			; 00000010H
  0059f	8b cf		 mov	 ecx, edi
  005a1	8b c4		 mov	 eax, esp
  005a3	ff 75 98	 push	 DWORD PTR _iTo$GSCopy$1$[ebp]
  005a6	0f 11 00	 movups	 XMMWORD PTR [eax], xmm0
  005a9	8d 45 88	 lea	 eax, DWORD PTR _memDC$[ebp]
  005ac	50		 push	 eax
  005ad	e8 00 00 00 00	 call	 ?PaintItems@CSTGfxOutBarCtrl@@QAEXPAVCDC@@HVCRect@@@Z ; CSTGfxOutBarCtrl::PaintItems
$LN22@AnimateFol:

; 2494 : 		GetFolderRect(iFrom, rcFrom);

  005b2	8d 45 b0	 lea	 eax, DWORD PTR _rcFrom$6[ebp]
  005b5	0f 57 c0	 xorps	 xmm0, xmm0
  005b8	50		 push	 eax
  005b9	ff 75 9c	 push	 DWORD PTR _iFrom$GSCopy$1$[ebp]
  005bc	8b cf		 mov	 ecx, edi
; File C:\Program Files (x86)\Microsoft Visual Studio\2019\Community\VC\Tools\MSVC\14.29.30133\atlmfc\include\atltypes.h

; 528  : 	left = 0;

  005be	0f 11 45 b0	 movups	 XMMWORD PTR _rcFrom$6[ebp], xmm0
  005c2	0f 11 45 a0	 movups	 XMMWORD PTR _rcTo$4[ebp], xmm0
; File D:\git\src\IBK\IBK_DRFN\ProjSrc\SrcDrfn\Chart\Common_ST\STGfxOutBarCtrl.cpp

; 2494 : 		GetFolderRect(iFrom, rcFrom);

  005c6	e8 00 00 00 00	 call	 ?GetFolderRect@CSTGfxOutBarCtrl@@QBE_NHAAVCRect@@@Z ; CSTGfxOutBarCtrl::GetFolderRect
; File C:\Program Files (x86)\Microsoft Visual Studio\2019\Community\VC\Tools\MSVC\14.29.30133\atlmfc\include\atltypes.h

; 581  : 	return bottom - top;

  005cb	8b 55 bc	 mov	 edx, DWORD PTR _rcFrom$6[ebp+12]
; File D:\git\src\IBK\IBK_DRFN\ProjSrc\SrcDrfn\Chart\Common_ST\STGfxOutBarCtrl.cpp

; 2496 : 		rcTo.SetRect(rc.left, rc.bottom, rc.right, rc.bottom - fh);

  005ce	8b 4d dc	 mov	 ecx, DWORD PTR _rc$[ebp+12]
  005d1	8b c1		 mov	 eax, ecx
; File C:\Program Files (x86)\Microsoft Visual Studio\2019\Community\VC\Tools\MSVC\14.29.30133\atlmfc\include\atltypes.h

; 581  : 	return bottom - top;

  005d3	2b 55 b4	 sub	 edx, DWORD PTR _rcFrom$6[ebp+4]
; File D:\git\src\IBK\IBK_DRFN\ProjSrc\SrcDrfn\Chart\Common_ST\STGfxOutBarCtrl.cpp

; 2496 : 		rcTo.SetRect(rc.left, rc.bottom, rc.right, rc.bottom - fh);

  005d6	2b c2		 sub	 eax, edx
; File C:\Program Files (x86)\Microsoft Visual Studio\2019\Community\VC\Tools\MSVC\14.29.30133\atlmfc\include\atltypes.h

; 581  : 	return bottom - top;

  005d8	89 55 98	 mov	 DWORD PTR _fh$1$[ebp], edx

; 657  : 	::SetRect(this, x1, y1, x2, y2);

  005db	50		 push	 eax
  005dc	ff 75 d8	 push	 DWORD PTR _rc$[ebp+8]
  005df	8d 45 a0	 lea	 eax, DWORD PTR _rcTo$4[ebp]
  005e2	51		 push	 ecx
  005e3	ff 75 d0	 push	 DWORD PTR _rc$[ebp]
  005e6	50		 push	 eax
  005e7	ff 15 00 00 00
	00		 call	 DWORD PTR __imp__SetRect@20
; File D:\git\src\IBK\IBK_DRFN\ProjSrc\SrcDrfn\Chart\Common_ST\STGfxOutBarCtrl.cpp

; 2497 : 		for (int y = rcFrom.top + 1; y < rcTo.top - fh; y += fh)

  005ed	8b 75 b4	 mov	 esi, DWORD PTR _rcFrom$6[ebp+4]
  005f0	8b 45 a4	 mov	 eax, DWORD PTR _rcTo$4[ebp+4]
  005f3	46		 inc	 esi
  005f4	8b 4d 98	 mov	 ecx, DWORD PTR _fh$1$[ebp]
  005f7	2b c1		 sub	 eax, ecx
  005f9	89 75 9c	 mov	 DWORD PTR _y$1$[ebp], esi
  005fc	3b f0		 cmp	 esi, eax
  005fe	0f 8d a1 00 00
	00		 jge	 $LN6@AnimateFol
  00604	8d 04 09	 lea	 eax, DWORD PTR [ecx+ecx]
  00607	89 45 80	 mov	 DWORD PTR tv1553[ebp], eax
  0060a	66 0f 1f 44 00
	00		 npad	 6
$LL7@AnimateFol:
; File C:\Program Files (x86)\Microsoft Visual Studio\2019\Community\VC\Tools\MSVC\14.29.30133\atlmfc\include\afxwin1.inl

; 361  : 	{ ASSERT(m_hDC != NULL); return (CBitmap*) SelectGdiObject(m_hDC, pBitmap->GetSafeHandle()); }

  00610	ff b5 78 ff ff
	ff		 push	 DWORD PTR _bmpTo$[ebp+4]
  00616	ff 75 8c	 push	 DWORD PTR _memDC$[ebp+4]
  00619	e8 00 00 00 00	 call	 ?SelectGdiObject@CDC@@KGPAVCGdiObject@@PAUHDC__@@PAX@Z ; CDC::SelectGdiObject
; File C:\Program Files (x86)\Microsoft Visual Studio\2019\Community\VC\Tools\MSVC\14.29.30133\atlmfc\include\atltypes.h

; 576  : 	return right - left;

  0061e	8b 45 d8	 mov	 eax, DWORD PTR _rc$[ebp+8]
; File D:\git\src\IBK\IBK_DRFN\ProjSrc\SrcDrfn\Chart\Common_ST\STGfxOutBarCtrl.cpp

; 2500 : 			dc.BitBlt(rc.left, rcFrom.top, rc.Width(), y - rcFrom.top - 1, pDC, 0, fh*2, SRCCOPY);

  00621	8b d6		 mov	 edx, esi
  00623	8b 75 b4	 mov	 esi, DWORD PTR _rcFrom$6[ebp+4]
  00626	2b d6		 sub	 edx, esi
; File C:\Program Files (x86)\Microsoft Visual Studio\2019\Community\VC\Tools\MSVC\14.29.30133\atlmfc\include\atltypes.h

; 576  : 	return right - left;

  00628	8b 4d d0	 mov	 ecx, DWORD PTR _rc$[ebp]
; File D:\git\src\IBK\IBK_DRFN\ProjSrc\SrcDrfn\Chart\Common_ST\STGfxOutBarCtrl.cpp

; 2500 : 			dc.BitBlt(rc.left, rcFrom.top, rc.Width(), y - rcFrom.top - 1, pDC, 0, fh*2, SRCCOPY);

  0062b	4a		 dec	 edx
; File C:\Program Files (x86)\Microsoft Visual Studio\2019\Community\VC\Tools\MSVC\14.29.30133\atlmfc\include\afxwin1.inl

; 552  : 	{ ASSERT(m_hDC != NULL); return ::BitBlt(m_hDC, x, y, nWidth, nHeight,

  0062c	68 20 00 cc 00	 push	 13369376		; 00cc0020H
  00631	ff 75 80	 push	 DWORD PTR tv1553[ebp]
; File C:\Program Files (x86)\Microsoft Visual Studio\2019\Community\VC\Tools\MSVC\14.29.30133\atlmfc\include\atltypes.h

; 576  : 	return right - left;

  00634	2b c1		 sub	 eax, ecx
; File C:\Program Files (x86)\Microsoft Visual Studio\2019\Community\VC\Tools\MSVC\14.29.30133\atlmfc\include\afxwin1.inl

; 552  : 	{ ASSERT(m_hDC != NULL); return ::BitBlt(m_hDC, x, y, nWidth, nHeight,

  00636	6a 00		 push	 0
  00638	ff 75 8c	 push	 DWORD PTR _memDC$[ebp+4]
  0063b	52		 push	 edx
  0063c	50		 push	 eax
  0063d	56		 push	 esi
  0063e	51		 push	 ecx
  0063f	ff b5 58 ff ff
	ff		 push	 DWORD PTR _dc$[ebp+4]
  00645	ff 15 00 00 00
	00		 call	 DWORD PTR __imp__BitBlt@36

; 361  : 	{ ASSERT(m_hDC != NULL); return (CBitmap*) SelectGdiObject(m_hDC, pBitmap->GetSafeHandle()); }

  0064b	ff b5 70 ff ff
	ff		 push	 DWORD PTR _bmpFrom$[ebp+4]
  00651	ff 75 8c	 push	 DWORD PTR _memDC$[ebp+4]
  00654	e8 00 00 00 00	 call	 ?SelectGdiObject@CDC@@KGPAVCGdiObject@@PAUHDC__@@PAX@Z ; CDC::SelectGdiObject
; File D:\git\src\IBK\IBK_DRFN\ProjSrc\SrcDrfn\Chart\Common_ST\STGfxOutBarCtrl.cpp

; 2502 : 			dc.BitBlt(rc.left, y, rc.Width(), rc.bottom - y, pDC, 0,0, SRCCOPY);

  00659	8b 55 dc	 mov	 edx, DWORD PTR _rc$[ebp+12]
  0065c	8b 75 9c	 mov	 esi, DWORD PTR _y$1$[ebp]
  0065f	2b d6		 sub	 edx, esi
; File C:\Program Files (x86)\Microsoft Visual Studio\2019\Community\VC\Tools\MSVC\14.29.30133\atlmfc\include\atltypes.h

; 576  : 	return right - left;

  00661	8b 45 d8	 mov	 eax, DWORD PTR _rc$[ebp+8]
  00664	8b 4d d0	 mov	 ecx, DWORD PTR _rc$[ebp]
  00667	2b c1		 sub	 eax, ecx
; File C:\Program Files (x86)\Microsoft Visual Studio\2019\Community\VC\Tools\MSVC\14.29.30133\atlmfc\include\afxwin1.inl

; 552  : 	{ ASSERT(m_hDC != NULL); return ::BitBlt(m_hDC, x, y, nWidth, nHeight,

  00669	68 20 00 cc 00	 push	 13369376		; 00cc0020H
  0066e	6a 00		 push	 0
  00670	6a 00		 push	 0
  00672	ff 75 8c	 push	 DWORD PTR _memDC$[ebp+4]
  00675	52		 push	 edx
  00676	50		 push	 eax
  00677	56		 push	 esi
  00678	51		 push	 ecx
  00679	ff b5 58 ff ff
	ff		 push	 DWORD PTR _dc$[ebp+4]
  0067f	ff 15 00 00 00
	00		 call	 DWORD PTR __imp__BitBlt@36
; File D:\git\src\IBK\IBK_DRFN\ProjSrc\SrcDrfn\Chart\Common_ST\STGfxOutBarCtrl.cpp

; 2503 : 			Sleep(lAnimationTickCount);

  00685	ff b7 ec 00 00
	00		 push	 DWORD PTR [edi+236]
  0068b	ff 15 00 00 00
	00		 call	 DWORD PTR __imp__Sleep@4
  00691	8b 45 a4	 mov	 eax, DWORD PTR _rcTo$4[ebp+4]
  00694	03 75 98	 add	 esi, DWORD PTR _fh$1$[ebp]
  00697	2b 45 98	 sub	 eax, DWORD PTR _fh$1$[ebp]
  0069a	89 75 9c	 mov	 DWORD PTR _y$1$[ebp], esi
  0069d	3b f0		 cmp	 esi, eax
  0069f	0f 8c 6b ff ff
	ff		 jl	 $LL7@AnimateFol
$LN6@AnimateFol:
; File C:\Program Files (x86)\Microsoft Visual Studio\2019\Community\VC\Tools\MSVC\14.29.30133\atlmfc\include\afxwin1.inl

; 68   : 	{ return this == NULL ? NULL : m_hObject; }

  006a5	8b 85 68 ff ff
	ff		 mov	 eax, DWORD PTR _obmp$1$[ebp]
  006ab	85 c0		 test	 eax, eax
  006ad	74 03		 je	 SHORT $LN277@AnimateFol
$LN276@AnimateFol:
  006af	8b 40 04	 mov	 eax, DWORD PTR [eax+4]
$LN277@AnimateFol:

; 361  : 	{ ASSERT(m_hDC != NULL); return (CBitmap*) SelectGdiObject(m_hDC, pBitmap->GetSafeHandle()); }

  006b2	50		 push	 eax
  006b3	ff 75 8c	 push	 DWORD PTR _memDC$[ebp+4]
  006b6	e8 00 00 00 00	 call	 ?SelectGdiObject@CDC@@KGPAVCGdiObject@@PAUHDC__@@PAX@Z ; CDC::SelectGdiObject

; 179  : 	{ }

  006bb	8d 8d 74 ff ff
	ff		 lea	 ecx, DWORD PTR _bmpTo$[ebp]
  006c1	c7 85 74 ff ff
	ff 00 00 00 00	 mov	 DWORD PTR _bmpTo$[ebp], OFFSET ??_7CBitmap@@6B@
  006cb	e8 00 00 00 00	 call	 ??1CGdiObject@@UAE@XZ	; CGdiObject::~CGdiObject
  006d0	8d 8d 6c ff ff
	ff		 lea	 ecx, DWORD PTR _bmpFrom$[ebp]
  006d6	c7 85 6c ff ff
	ff 00 00 00 00	 mov	 DWORD PTR _bmpFrom$[ebp], OFFSET ??_7CBitmap@@6B@
  006e0	e8 00 00 00 00	 call	 ??1CGdiObject@@UAE@XZ	; CGdiObject::~CGdiObject
; File D:\git\src\IBK\IBK_DRFN\ProjSrc\SrcDrfn\Chart\Common_ST\STGfxOutBarCtrl.cpp

; 2508 : }

  006e5	8d 4d 88	 lea	 ecx, DWORD PTR _memDC$[ebp]
  006e8	e8 00 00 00 00	 call	 ??1CDC@@UAE@XZ		; CDC::~CDC
  006ed	8d 8d 54 ff ff
	ff		 lea	 ecx, DWORD PTR _dc$[ebp]
  006f3	e8 00 00 00 00	 call	 ??1CClientDC@@UAE@XZ	; CClientDC::~CClientDC
  006f8	8b 4d f4	 mov	 ecx, DWORD PTR __$EHRec$[ebp]
  006fb	64 89 0d 00 00
	00 00		 mov	 DWORD PTR fs:0, ecx
  00702	59		 pop	 ecx
  00703	5f		 pop	 edi
  00704	5e		 pop	 esi
  00705	8b 4d f0	 mov	 ecx, DWORD PTR __$ArrayPad$[ebp]
  00708	33 cd		 xor	 ecx, ebp
  0070a	e8 00 00 00 00	 call	 @__security_check_cookie@4
  0070f	8b e5		 mov	 esp, ebp
  00711	5d		 pop	 ebp
  00712	c2 08 00	 ret	 8
$LN89@AnimateFol:
; File C:\Program Files (x86)\Microsoft Visual Studio\2019\Community\VC\Tools\MSVC\14.29.30133\atlmfc\include\afxcoll.inl

; 204  : 			AfxThrowInvalidArgException();

  00715	e8 00 00 00 00	 call	 ?AfxThrowInvalidArgException@@YGXXZ ; AfxThrowInvalidArgException
$LN299@AnimateFol:
  0071a	cc		 int	 3
_TEXT	ENDS
;	COMDAT text$x
text$x	SEGMENT
__unwindfunclet$?AnimateFolderScroll@CSTGfxOutBarCtrl@@QAEXHH@Z$0:
  00000	8d 8d 54 ff ff
	ff		 lea	 ecx, DWORD PTR _dc$[ebp]
  00006	e9 00 00 00 00	 jmp	 ??1CClientDC@@UAE@XZ	; CClientDC::~CClientDC
__unwindfunclet$?AnimateFolderScroll@CSTGfxOutBarCtrl@@QAEXHH@Z$1:
  0000b	8d 4d 88	 lea	 ecx, DWORD PTR _memDC$[ebp]
  0000e	e9 00 00 00 00	 jmp	 ??1CDC@@UAE@XZ		; CDC::~CDC
__unwindfunclet$?AnimateFolderScroll@CSTGfxOutBarCtrl@@QAEXHH@Z$2:
  00013	8d 8d 6c ff ff
	ff		 lea	 ecx, DWORD PTR _bmpFrom$[ebp]
  00019	e9 00 00 00 00	 jmp	 ??1CBitmap@@UAE@XZ	; CBitmap::~CBitmap
__unwindfunclet$?AnimateFolderScroll@CSTGfxOutBarCtrl@@QAEXHH@Z$3:
  0001e	8d 8d 74 ff ff
	ff		 lea	 ecx, DWORD PTR _bmpTo$[ebp]
  00024	e9 00 00 00 00	 jmp	 ??1CBitmap@@UAE@XZ	; CBitmap::~CBitmap
  00029	cc		 int	 3
  0002a	cc		 int	 3
  0002b	cc		 int	 3
  0002c	cc		 int	 3
  0002d	cc		 int	 3
__ehhandler$?AnimateFolderScroll@CSTGfxOutBarCtrl@@QAEXHH@Z:
  0002e	90		 npad	 1
  0002f	90		 npad	 1
  00030	8b 54 24 08	 mov	 edx, DWORD PTR [esp+8]
  00034	8d 42 0c	 lea	 eax, DWORD PTR [edx+12]
  00037	8b 8a 54 ff ff
	ff		 mov	 ecx, DWORD PTR [edx-172]
  0003d	33 c8		 xor	 ecx, eax
  0003f	e8 00 00 00 00	 call	 @__security_check_cookie@4
  00044	8b 4a fc	 mov	 ecx, DWORD PTR [edx-4]
  00047	33 c8		 xor	 ecx, eax
  00049	e8 00 00 00 00	 call	 @__security_check_cookie@4
  0004e	b8 00 00 00 00	 mov	 eax, OFFSET __ehfuncinfo$?AnimateFolderScroll@CSTGfxOutBarCtrl@@QAEXHH@Z
  00053	e9 00 00 00 00	 jmp	 ___CxxFrameHandler3
text$x	ENDS
?AnimateFolderScroll@CSTGfxOutBarCtrl@@QAEXHH@Z ENDP	; CSTGfxOutBarCtrl::AnimateFolderScroll
; Function compile flags: /Ogtp
; File D:\git\src\IBK\IBK_DRFN\ProjSrc\SrcDrfn\Chart\Common_ST\STGfxOutBarCtrl.cpp
; File C:\Program Files (x86)\Microsoft Visual Studio\2019\Community\VC\Tools\MSVC\14.29.30133\atlmfc\include\afxcoll.inl
; File D:\git\src\IBK\IBK_DRFN\ProjSrc\SrcDrfn\Chart\Common_ST\STGfxOutBarCtrl.cpp
; File C:\Program Files (x86)\Microsoft Visual Studio\2019\Community\VC\Tools\MSVC\14.29.30133\atlmfc\include\afxcoll.inl
; File D:\git\src\IBK\IBK_DRFN\ProjSrc\SrcDrfn\Chart\Common_ST\STGfxOutBarCtrl.cpp
;	COMDAT ?GetItemText@CSTGfxOutBarCtrl@@QAE?AV?$CStringT@DV?$StrTraitMFC_DLL@DV?$ChTraitsCRT@D@ATL@@@@@ATL@@H@Z
_TEXT	SEGMENT
$T2 = -16						; size = 4
__$EHRec$ = -12						; size = 12
___$ReturnUdt$ = 8					; size = 4
_index$ = 12						; size = 4
?GetItemText@CSTGfxOutBarCtrl@@QAE?AV?$CStringT@DV?$StrTraitMFC_DLL@DV?$ChTraitsCRT@D@ATL@@@@@ATL@@H@Z PROC ; CSTGfxOutBarCtrl::GetItemText, COMDAT
; _this$ = ecx

; 2514 : {

  00000	55		 push	 ebp
  00001	8b ec		 mov	 ebp, esp
  00003	6a ff		 push	 -1
  00005	68 00 00 00 00	 push	 __ehhandler$?GetItemText@CSTGfxOutBarCtrl@@QAE?AV?$CStringT@DV?$StrTraitMFC_DLL@DV?$ChTraitsCRT@D@ATL@@@@@ATL@@H@Z
  0000a	64 a1 00 00 00
	00		 mov	 eax, DWORD PTR fs:0
  00010	50		 push	 eax
  00011	51		 push	 ecx
  00012	56		 push	 esi
  00013	57		 push	 edi
  00014	a1 00 00 00 00	 mov	 eax, DWORD PTR ___security_cookie
  00019	33 c5		 xor	 eax, ebp
  0001b	50		 push	 eax
  0001c	8d 45 f4	 lea	 eax, DWORD PTR __$EHRec$[ebp]
  0001f	64 a3 00 00 00
	00		 mov	 DWORD PTR fs:0, eax
  00025	8b f9		 mov	 edi, ecx
  00027	c7 45 f0 00 00
	00 00		 mov	 DWORD PTR $T2[ebp], 0

; 2515 : 	CString item;

  0002e	8b 75 08	 mov	 esi, DWORD PTR ___$ReturnUdt$[ebp]
  00031	8b ce		 mov	 ecx, esi
  00033	ff 15 00 00 00
	00		 call	 DWORD PTR __imp_??0?$CStringT@DV?$StrTraitMFC_DLL@DV?$ChTraitsCRT@D@ATL@@@@@ATL@@QAE@XZ

; 2523 : 	}
; 2524 : 	return item;

  00039	8b 8f 30 01 00
	00		 mov	 ecx, DWORD PTR [edi+304]
  0003f	c7 45 fc 00 00
	00 00		 mov	 DWORD PTR __$EHRec$[ebp+8], 0
  00046	c7 45 f0 01 00
	00 00		 mov	 DWORD PTR $T2[ebp], 1
; File C:\Program Files (x86)\Microsoft Visual Studio\2019\Community\VC\Tools\MSVC\14.29.30133\atlmfc\include\afxcoll.inl

; 203  : 		if( nIndex < 0 || nIndex >= m_nSize )

  0004d	85 c9		 test	 ecx, ecx
  0004f	78 48		 js	 SHORT $LN9@GetItemTex
  00051	3b 8f 08 01 00
	00		 cmp	 ecx, DWORD PTR [edi+264]
  00057	7d 40		 jge	 SHORT $LN9@GetItemTex

; 205  : 		return m_pData[nIndex]; }

  00059	8b 87 04 01 00
	00		 mov	 eax, DWORD PTR [edi+260]
  0005f	8b 04 88	 mov	 eax, DWORD PTR [eax+ecx*4]
; File D:\git\src\IBK\IBK_DRFN\ProjSrc\SrcDrfn\Chart\Common_ST\STGfxOutBarCtrl.cpp

; 2232 : 	return (index >= 0 && index < pbf->GetItemCount());

  00062	8b 4d 0c	 mov	 ecx, DWORD PTR _index$[ebp]
  00065	85 c9		 test	 ecx, ecx
  00067	78 1b		 js	 SHORT $LN3@GetItemTex
  00069	3b 48 1c	 cmp	 ecx, DWORD PTR [eax+28]
  0006c	7d 16		 jge	 SHORT $LN3@GetItemTex

; 2516 : 
; 2517 : 	ASSERT(iSelFolder >= 0 && iSelFolder < GetFolderCount());
; 2518 : 	CBarFolder * pbf = (CBarFolder *) arFolder.GetAt(iSelFolder);
; 2519 : 	if (IsValidItem(index))
; 2520 : 	{
; 2521 : 		CBarItem * pi = (CBarItem *) pbf->arItems.GetAt(index);
; 2522 : 		if (pi->cItem) item = pi->cItem;

  0006e	8b 40 18	 mov	 eax, DWORD PTR [eax+24]
  00071	8b 0c 88	 mov	 ecx, DWORD PTR [eax+ecx*4]
  00074	8b 41 08	 mov	 eax, DWORD PTR [ecx+8]
  00077	85 c0		 test	 eax, eax
  00079	74 09		 je	 SHORT $LN3@GetItemTex
  0007b	50		 push	 eax
  0007c	8b ce		 mov	 ecx, esi
  0007e	ff 15 00 00 00
	00		 call	 DWORD PTR __imp_??4?$CStringT@DV?$StrTraitMFC_DLL@DV?$ChTraitsCRT@D@ATL@@@@@ATL@@QAEAAV01@PBD@Z
$LN3@GetItemTex:

; 2523 : 	}
; 2524 : 	return item;

  00084	8b c6		 mov	 eax, esi

; 2525 : }

  00086	8b 4d f4	 mov	 ecx, DWORD PTR __$EHRec$[ebp]
  00089	64 89 0d 00 00
	00 00		 mov	 DWORD PTR fs:0, ecx
  00090	59		 pop	 ecx
  00091	5f		 pop	 edi
  00092	5e		 pop	 esi
  00093	8b e5		 mov	 esp, ebp
  00095	5d		 pop	 ebp
  00096	c2 08 00	 ret	 8
$LN9@GetItemTex:
; File C:\Program Files (x86)\Microsoft Visual Studio\2019\Community\VC\Tools\MSVC\14.29.30133\atlmfc\include\afxcoll.inl

; 204  : 			AfxThrowInvalidArgException();

  00099	e8 00 00 00 00	 call	 ?AfxThrowInvalidArgException@@YGXXZ ; AfxThrowInvalidArgException
$LN27@GetItemTex:
  0009e	cc		 int	 3
_TEXT	ENDS
;	COMDAT text$x
text$x	SEGMENT
__unwindfunclet$?GetItemText@CSTGfxOutBarCtrl@@QAE?AV?$CStringT@DV?$StrTraitMFC_DLL@DV?$ChTraitsCRT@D@ATL@@@@@ATL@@H@Z$0:
  00000	8b 45 f0	 mov	 eax, DWORD PTR $T2[ebp]
  00003	83 e0 01	 and	 eax, 1
  00006	0f 84 0d 00 00
	00		 je	 $LN6@GetItemTex
  0000c	83 65 f0 fe	 and	 DWORD PTR $T2[ebp], -2	; fffffffeH
  00010	8b 4d 08	 mov	 ecx, DWORD PTR ___$ReturnUdt$[ebp]
  00013	ff 25 00 00 00
	00		 jmp	 DWORD PTR __imp_??1?$CStringT@DV?$StrTraitMFC_DLL@DV?$ChTraitsCRT@D@ATL@@@@@ATL@@QAE@XZ
$LN6@GetItemTex:
  00019	c3		 ret	 0
  0001a	cc		 int	 3
  0001b	cc		 int	 3
  0001c	cc		 int	 3
  0001d	cc		 int	 3
  0001e	cc		 int	 3
__ehhandler$?GetItemText@CSTGfxOutBarCtrl@@QAE?AV?$CStringT@DV?$StrTraitMFC_DLL@DV?$ChTraitsCRT@D@ATL@@@@@ATL@@H@Z:
  0001f	90		 npad	 1
  00020	90		 npad	 1
  00021	8b 54 24 08	 mov	 edx, DWORD PTR [esp+8]
  00025	8d 42 0c	 lea	 eax, DWORD PTR [edx+12]
  00028	8b 4a f0	 mov	 ecx, DWORD PTR [edx-16]
  0002b	33 c8		 xor	 ecx, eax
  0002d	e8 00 00 00 00	 call	 @__security_check_cookie@4
  00032	b8 00 00 00 00	 mov	 eax, OFFSET __ehfuncinfo$?GetItemText@CSTGfxOutBarCtrl@@QAE?AV?$CStringT@DV?$StrTraitMFC_DLL@DV?$ChTraitsCRT@D@ATL@@@@@ATL@@H@Z
  00037	e9 00 00 00 00	 jmp	 ___CxxFrameHandler3
text$x	ENDS
?GetItemText@CSTGfxOutBarCtrl@@QAE?AV?$CStringT@DV?$StrTraitMFC_DLL@DV?$ChTraitsCRT@D@ATL@@@@@ATL@@H@Z ENDP ; CSTGfxOutBarCtrl::GetItemText
; Function compile flags: /Ogtp
; File D:\git\src\IBK\IBK_DRFN\ProjSrc\SrcDrfn\Chart\Common_ST\STGfxOutBarCtrl.cpp
; File C:\Program Files (x86)\Microsoft Visual Studio\2019\Community\VC\Tools\MSVC\14.29.30133\atlmfc\include\afxcoll.inl
; File D:\git\src\IBK\IBK_DRFN\ProjSrc\SrcDrfn\Chart\Common_ST\STGfxOutBarCtrl.cpp
; File C:\Program Files (x86)\Microsoft Visual Studio\2019\Community\VC\Tools\MSVC\14.29.30133\atlmfc\include\afxcoll.inl
; File D:\git\src\IBK\IBK_DRFN\ProjSrc\SrcDrfn\Chart\Common_ST\STGfxOutBarCtrl.cpp
; File C:\Program Files (x86)\Microsoft Visual Studio\2019\Community\VC\Tools\MSVC\14.29.30133\atlmfc\include\afxcoll.inl
; File D:\git\src\IBK\IBK_DRFN\ProjSrc\SrcDrfn\Chart\Common_ST\STGfxOutBarCtrl.cpp
;	COMDAT ?AddFolderBar@CSTGfxOutBarCtrl@@QAEHPBDPAVCWnd@@K@Z
_TEXT	SEGMENT
$T2 = -16						; size = 4
__$EHRec$ = -12						; size = 12
_pFolder$ = 8						; size = 4
_pSon$ = 12						; size = 4
_exData$ = 16						; size = 4
?AddFolderBar@CSTGfxOutBarCtrl@@QAEHPBDPAVCWnd@@K@Z PROC ; CSTGfxOutBarCtrl::AddFolderBar, COMDAT
; _this$ = ecx

; 2528 : {

  00000	55		 push	 ebp
  00001	8b ec		 mov	 ebp, esp
  00003	6a ff		 push	 -1
  00005	68 00 00 00 00	 push	 __ehhandler$?AddFolderBar@CSTGfxOutBarCtrl@@QAEHPBDPAVCWnd@@K@Z
  0000a	64 a1 00 00 00
	00		 mov	 eax, DWORD PTR fs:0
  00010	50		 push	 eax
  00011	51		 push	 ecx
  00012	53		 push	 ebx
  00013	56		 push	 esi
  00014	57		 push	 edi
  00015	a1 00 00 00 00	 mov	 eax, DWORD PTR ___security_cookie
  0001a	33 c5		 xor	 eax, ebp
  0001c	50		 push	 eax
  0001d	8d 45 f4	 lea	 eax, DWORD PTR __$EHRec$[ebp]
  00020	64 a3 00 00 00
	00		 mov	 DWORD PTR fs:0, eax
  00026	8b d9		 mov	 ebx, ecx

; 2529 : 	CBarFolder * pbf = new CBarFolder(pFolder, exData);

  00028	6a 2c		 push	 44			; 0000002cH
  0002a	e8 00 00 00 00	 call	 ??2@YAPAXI@Z		; operator new
  0002f	8b f0		 mov	 esi, eax
  00031	83 c4 04	 add	 esp, 4
  00034	89 75 f0	 mov	 DWORD PTR $T2[ebp], esi
  00037	c7 45 fc 00 00
	00 00		 mov	 DWORD PTR __$EHRec$[ebp+8], 0
  0003e	85 f6		 test	 esi, esi
  00040	74 59		 je	 SHORT $LN3@AddFolderB

; 783  : {

  00042	8d 4e 14	 lea	 ecx, DWORD PTR [esi+20]
  00045	c7 06 00 00 00
	00		 mov	 DWORD PTR [esi], OFFSET ??_7CBarFolder@CSTGfxOutBarCtrl@@6B@
  0004b	e8 00 00 00 00	 call	 ??0CPtrArray@@QAE@XZ	; CPtrArray::CPtrArray

; 784  : 	cName = NULL;
; 785  : 	dwData = exData;
; 786  : 
; 787  : 	if (name)

  00050	8b 7d 08	 mov	 edi, DWORD PTR _pFolder$[ebp]
  00053	8b 45 10	 mov	 eax, DWORD PTR _exData$[ebp]
  00056	c6 45 fc 01	 mov	 BYTE PTR __$EHRec$[ebp+8], 1
  0005a	c7 46 04 00 00
	00 00		 mov	 DWORD PTR [esi+4], 0
  00061	89 46 08	 mov	 DWORD PTR [esi+8], eax
  00064	85 ff		 test	 edi, edi
  00066	74 1c		 je	 SHORT $LN7@AddFolderB

; 788  : 	{
; 789  : 		cName = new char[lstrlen(name)+1];

  00068	57		 push	 edi
  00069	ff 15 00 00 00
	00		 call	 DWORD PTR __imp__lstrlenA@4
  0006f	40		 inc	 eax
  00070	50		 push	 eax
  00071	e8 00 00 00 00	 call	 ??_U@YAPAXI@Z		; operator new[]
  00076	83 c4 04	 add	 esp, 4
  00079	89 46 04	 mov	 DWORD PTR [esi+4], eax

; 790  : 		ASSERT(cName);
; 791  : 		lstrcpy(cName, name);

  0007c	57		 push	 edi
  0007d	50		 push	 eax
  0007e	ff 15 00 00 00
	00		 call	 DWORD PTR __imp__lstrcpyA@8
$LN7@AddFolderB:

; 792  : 	}
; 793  : 	pLargeImageList = NULL;

  00084	c7 46 0c 00 00
	00 00		 mov	 DWORD PTR [esi+12], 0

; 794  : 	pSmallImageList = NULL;

  0008b	c7 46 10 00 00
	00 00		 mov	 DWORD PTR [esi+16], 0

; 795  : 	pChild = NULL;

  00092	c7 46 28 00 00
	00 00		 mov	 DWORD PTR [esi+40], 0

; 2529 : 	CBarFolder * pbf = new CBarFolder(pFolder, exData);

  00099	eb 02		 jmp	 SHORT $LN4@AddFolderB
$LN3@AddFolderB:
  0009b	33 f6		 xor	 esi, esi
$LN4@AddFolderB:

; 2531 : 	pbf->pChild = pSon;

  0009d	8b 45 0c	 mov	 eax, DWORD PTR _pSon$[ebp]

; 2532 : 
; 2533 : 	arFolder.Add((void *)pbf);

  000a0	8d 8b 00 01 00
	00		 lea	 ecx, DWORD PTR [ebx+256]
; File C:\Program Files (x86)\Microsoft Visual Studio\2019\Community\VC\Tools\MSVC\14.29.30133\atlmfc\include\afxcoll.inl

; 223  : 		SetAtGrow(nIndex, newElement);

  000a6	56		 push	 esi
; File D:\git\src\IBK\IBK_DRFN\ProjSrc\SrcDrfn\Chart\Common_ST\STGfxOutBarCtrl.cpp

; 2531 : 	pbf->pChild = pSon;

  000a7	89 46 28	 mov	 DWORD PTR [esi+40], eax
; File C:\Program Files (x86)\Microsoft Visual Studio\2019\Community\VC\Tools\MSVC\14.29.30133\atlmfc\include\afxcoll.inl

; 223  : 		SetAtGrow(nIndex, newElement);

  000aa	ff 71 08	 push	 DWORD PTR [ecx+8]
; File D:\git\src\IBK\IBK_DRFN\ProjSrc\SrcDrfn\Chart\Common_ST\STGfxOutBarCtrl.cpp

; 2529 : 	CBarFolder * pbf = new CBarFolder(pFolder, exData);

  000ad	c7 45 fc ff ff
	ff ff		 mov	 DWORD PTR __$EHRec$[ebp+8], -1
; File C:\Program Files (x86)\Microsoft Visual Studio\2019\Community\VC\Tools\MSVC\14.29.30133\atlmfc\include\afxcoll.inl

; 223  : 		SetAtGrow(nIndex, newElement);

  000b4	e8 00 00 00 00	 call	 ?SetAtGrow@CPtrArray@@QAEXHPAX@Z ; CPtrArray::SetAtGrow
; File D:\git\src\IBK\IBK_DRFN\ProjSrc\SrcDrfn\Chart\Common_ST\STGfxOutBarCtrl.cpp

; 2535 : 	return arFolder.GetSize() - 1;

  000b9	8b 83 08 01 00
	00		 mov	 eax, DWORD PTR [ebx+264]
  000bf	48		 dec	 eax

; 2536 : }

  000c0	8b 4d f4	 mov	 ecx, DWORD PTR __$EHRec$[ebp]
  000c3	64 89 0d 00 00
	00 00		 mov	 DWORD PTR fs:0, ecx
  000ca	59		 pop	 ecx
  000cb	5f		 pop	 edi
  000cc	5e		 pop	 esi
  000cd	5b		 pop	 ebx
  000ce	8b e5		 mov	 esp, ebp
  000d0	5d		 pop	 ebp
  000d1	c2 0c 00	 ret	 12			; 0000000cH
_TEXT	ENDS
;	COMDAT text$x
text$x	SEGMENT
__unwindfunclet$?AddFolderBar@CSTGfxOutBarCtrl@@QAEHPBDPAVCWnd@@K@Z$0:
  00000	6a 2c		 push	 44			; 0000002cH
  00002	8b 45 f0	 mov	 eax, DWORD PTR $T2[ebp]
  00005	50		 push	 eax
  00006	e8 00 00 00 00	 call	 ??3@YAXPAXI@Z		; operator delete
  0000b	83 c4 08	 add	 esp, 8
  0000e	c3		 ret	 0
__unwindfunclet$?AddFolderBar@CSTGfxOutBarCtrl@@QAEHPBDPAVCWnd@@K@Z$1:
  0000f	8b 4d f0	 mov	 ecx, DWORD PTR $T2[ebp]
  00012	83 c1 14	 add	 ecx, 20			; 00000014H
  00015	e9 00 00 00 00	 jmp	 ??1CPtrArray@@UAE@XZ	; CPtrArray::~CPtrArray
  0001a	cc		 int	 3
  0001b	cc		 int	 3
  0001c	cc		 int	 3
  0001d	cc		 int	 3
  0001e	cc		 int	 3
__ehhandler$?AddFolderBar@CSTGfxOutBarCtrl@@QAEHPBDPAVCWnd@@K@Z:
  0001f	90		 npad	 1
  00020	90		 npad	 1
  00021	8b 54 24 08	 mov	 edx, DWORD PTR [esp+8]
  00025	8d 42 0c	 lea	 eax, DWORD PTR [edx+12]
  00028	8b 4a ec	 mov	 ecx, DWORD PTR [edx-20]
  0002b	33 c8		 xor	 ecx, eax
  0002d	e8 00 00 00 00	 call	 @__security_check_cookie@4
  00032	b8 00 00 00 00	 mov	 eax, OFFSET __ehfuncinfo$?AddFolderBar@CSTGfxOutBarCtrl@@QAEHPBDPAVCWnd@@K@Z
  00037	e9 00 00 00 00	 jmp	 ___CxxFrameHandler3
text$x	ENDS
?AddFolderBar@CSTGfxOutBarCtrl@@QAEHPBDPAVCWnd@@K@Z ENDP ; CSTGfxOutBarCtrl::AddFolderBar
; Function compile flags: /Ogtp
; File D:\git\src\IBK\IBK_DRFN\ProjSrc\SrcDrfn\Chart\Common_ST\STGfxOutBarCtrl.cpp
; File C:\Program Files (x86)\Microsoft Visual Studio\2019\Community\VC\Tools\MSVC\14.29.30133\atlmfc\include\afxcoll.inl
; File D:\git\src\IBK\IBK_DRFN\ProjSrc\SrcDrfn\Chart\Common_ST\STGfxOutBarCtrl.cpp
; File C:\Program Files (x86)\Microsoft Visual Studio\2019\Community\VC\Tools\MSVC\14.29.30133\atlmfc\include\afxcoll.inl
; File D:\git\src\IBK\IBK_DRFN\ProjSrc\SrcDrfn\Chart\Common_ST\STGfxOutBarCtrl.cpp
;	COMDAT ?GetFolderChild@CSTGfxOutBarCtrl@@QAEPAVCWnd@@H@Z
_TEXT	SEGMENT
_iFolder$ = 8						; size = 4
?GetFolderChild@CSTGfxOutBarCtrl@@QAEPAVCWnd@@H@Z PROC	; CSTGfxOutBarCtrl::GetFolderChild, COMDAT
; _this$ = ecx

; 2539 : {

  00000	55		 push	 ebp
  00001	8b ec		 mov	 ebp, esp

; 2540 : 	if (GetFolderCount())

  00003	8b 81 08 01 00
	00		 mov	 eax, DWORD PTR [ecx+264]
  00009	85 c0		 test	 eax, eax
  0000b	74 25		 je	 SHORT $LN2@GetFolderC

; 2541 : 	{
; 2542 : 		if (iFolder < 0) iFolder = iSelFolder;

  0000d	8b 55 08	 mov	 edx, DWORD PTR _iFolder$[ebp]
  00010	85 d2		 test	 edx, edx
  00012	79 0a		 jns	 SHORT $LN10@GetFolderC
  00014	8b 91 30 01 00
	00		 mov	 edx, DWORD PTR [ecx+304]
; File C:\Program Files (x86)\Microsoft Visual Studio\2019\Community\VC\Tools\MSVC\14.29.30133\atlmfc\include\afxcoll.inl

; 203  : 		if( nIndex < 0 || nIndex >= m_nSize )

  0001a	85 d2		 test	 edx, edx
  0001c	78 1a		 js	 SHORT $LN7@GetFolderC
$LN10@GetFolderC:
  0001e	3b d0		 cmp	 edx, eax
  00020	7d 16		 jge	 SHORT $LN7@GetFolderC
; File D:\git\src\IBK\IBK_DRFN\ProjSrc\SrcDrfn\Chart\Common_ST\STGfxOutBarCtrl.cpp

; 2545 : 		return pbf->pChild;

  00022	8b 81 04 01 00
	00		 mov	 eax, DWORD PTR [ecx+260]
  00028	8b 04 90	 mov	 eax, DWORD PTR [eax+edx*4]
  0002b	8b 40 28	 mov	 eax, DWORD PTR [eax+40]

; 2548 : }

  0002e	5d		 pop	 ebp
  0002f	c2 04 00	 ret	 4
$LN2@GetFolderC:

; 2546 : 	}
; 2547 : 	return NULL;

  00032	33 c0		 xor	 eax, eax

; 2548 : }

  00034	5d		 pop	 ebp
  00035	c2 04 00	 ret	 4
$LN7@GetFolderC:
; File C:\Program Files (x86)\Microsoft Visual Studio\2019\Community\VC\Tools\MSVC\14.29.30133\atlmfc\include\afxcoll.inl

; 204  : 			AfxThrowInvalidArgException();

  00038	e8 00 00 00 00	 call	 ?AfxThrowInvalidArgException@@YGXXZ ; AfxThrowInvalidArgException
$LN11@GetFolderC:
  0003d	cc		 int	 3
?GetFolderChild@CSTGfxOutBarCtrl@@QAEPAVCWnd@@H@Z ENDP	; CSTGfxOutBarCtrl::GetFolderChild
_TEXT	ENDS
; Function compile flags: /Ogtp
; File D:\git\src\IBK\IBK_DRFN\ProjSrc\SrcDrfn\Chart\Common_ST\STGfxOutBarCtrl.cpp
; File C:\Program Files (x86)\Microsoft Visual Studio\2019\Community\VC\Tools\MSVC\14.29.30133\atlmfc\include\afxcoll.inl
; File D:\git\src\IBK\IBK_DRFN\ProjSrc\SrcDrfn\Chart\Common_ST\STGfxOutBarCtrl.cpp
; File C:\Program Files (x86)\Microsoft Visual Studio\2019\Community\VC\Tools\MSVC\14.29.30133\atlmfc\include\afxcoll.inl
; File D:\git\src\IBK\IBK_DRFN\ProjSrc\SrcDrfn\Chart\Common_ST\STGfxOutBarCtrl.cpp
;	COMDAT ?GetFolderData@CSTGfxOutBarCtrl@@QAEKH@Z
_TEXT	SEGMENT
_iFolder$ = 8						; size = 4
?GetFolderData@CSTGfxOutBarCtrl@@QAEKH@Z PROC		; CSTGfxOutBarCtrl::GetFolderData, COMDAT
; _this$ = ecx

; 2551 : {

  00000	55		 push	 ebp
  00001	8b ec		 mov	 ebp, esp

; 2552 : 	if (iFolder < 0) iFolder = iSelFolder;

  00003	8b 55 08	 mov	 edx, DWORD PTR _iFolder$[ebp]
  00006	85 d2		 test	 edx, edx
  00008	79 0a		 jns	 SHORT $LN9@GetFolderD
  0000a	8b 91 30 01 00
	00		 mov	 edx, DWORD PTR [ecx+304]
; File C:\Program Files (x86)\Microsoft Visual Studio\2019\Community\VC\Tools\MSVC\14.29.30133\atlmfc\include\afxcoll.inl

; 203  : 		if( nIndex < 0 || nIndex >= m_nSize )

  00010	85 d2		 test	 edx, edx
  00012	78 18		 js	 SHORT $LN6@GetFolderD
$LN9@GetFolderD:
  00014	3b 91 08 01 00
	00		 cmp	 edx, DWORD PTR [ecx+264]
  0001a	7d 10		 jge	 SHORT $LN6@GetFolderD
; File D:\git\src\IBK\IBK_DRFN\ProjSrc\SrcDrfn\Chart\Common_ST\STGfxOutBarCtrl.cpp

; 2554 : 	return pbf->dwData;

  0001c	8b 81 04 01 00
	00		 mov	 eax, DWORD PTR [ecx+260]
  00022	8b 04 90	 mov	 eax, DWORD PTR [eax+edx*4]
  00025	8b 40 08	 mov	 eax, DWORD PTR [eax+8]

; 2555 : }

  00028	5d		 pop	 ebp
  00029	c2 04 00	 ret	 4
$LN6@GetFolderD:
; File C:\Program Files (x86)\Microsoft Visual Studio\2019\Community\VC\Tools\MSVC\14.29.30133\atlmfc\include\afxcoll.inl

; 204  : 			AfxThrowInvalidArgException();

  0002c	e8 00 00 00 00	 call	 ?AfxThrowInvalidArgException@@YGXXZ ; AfxThrowInvalidArgException
$LN10@GetFolderD:
  00031	cc		 int	 3
?GetFolderData@CSTGfxOutBarCtrl@@QAEKH@Z ENDP		; CSTGfxOutBarCtrl::GetFolderData
_TEXT	ENDS
; Function compile flags: /Ogtp
; File D:\git\src\IBK\IBK_DRFN\ProjSrc\SrcDrfn\Chart\Common_ST\STGfxOutBarCtrl.cpp
; File C:\Program Files (x86)\Microsoft Visual Studio\2019\Community\VC\Tools\MSVC\14.29.30133\atlmfc\include\afxwin2.inl
; File D:\git\src\IBK\IBK_DRFN\ProjSrc\SrcDrfn\Chart\Common_ST\STGfxOutBarCtrl.cpp
; File C:\Program Files (x86)\Microsoft Visual Studio\2019\Community\VC\Tools\MSVC\14.29.30133\atlmfc\include\afxwin2.inl
; File D:\git\src\IBK\IBK_DRFN\ProjSrc\SrcDrfn\Chart\Common_ST\STGfxOutBarCtrl.cpp
;	COMDAT ?SetAnimSelHighlight@CSTGfxOutBarCtrl@@QAEXH@Z
_TEXT	SEGMENT
_iTime$ = 8						; size = 4
?SetAnimSelHighlight@CSTGfxOutBarCtrl@@QAEXH@Z PROC	; CSTGfxOutBarCtrl::SetAnimSelHighlight, COMDAT
; _this$ = ecx

; 2558 : {

  00000	55		 push	 ebp
  00001	8b ec		 mov	 ebp, esp
  00003	56		 push	 esi

; 2559 : 	if (iTime <= 0) KillTimer(3);

  00004	8b 75 08	 mov	 esi, DWORD PTR _iTime$[ebp]
  00007	57		 push	 edi
  00008	8b f9		 mov	 edi, ecx
  0000a	8b 47 20	 mov	 eax, DWORD PTR [edi+32]
  0000d	85 f6		 test	 esi, esi
  0000f	7f 15		 jg	 SHORT $LN2@SetAnimSel
; File C:\Program Files (x86)\Microsoft Visual Studio\2019\Community\VC\Tools\MSVC\14.29.30133\atlmfc\include\afxwin2.inl

; 155  : 	{ ASSERT(::IsWindow(m_hWnd)); return ::KillTimer(m_hWnd, nIDEvent); }

  00011	6a 03		 push	 3
  00013	50		 push	 eax
  00014	ff 15 00 00 00
	00		 call	 DWORD PTR __imp__KillTimer@8
; File D:\git\src\IBK\IBK_DRFN\ProjSrc\SrcDrfn\Chart\Common_ST\STGfxOutBarCtrl.cpp

; 2562 : }

  0001a	89 b7 f4 00 00
	00		 mov	 DWORD PTR [edi+244], esi
  00020	5f		 pop	 edi
  00021	5e		 pop	 esi
  00022	5d		 pop	 ebp
  00023	c2 04 00	 ret	 4
$LN2@SetAnimSel:
; File C:\Program Files (x86)\Microsoft Visual Studio\2019\Community\VC\Tools\MSVC\14.29.30133\atlmfc\include\afxwin2.inl

; 152  : 	{ ASSERT(::IsWindow(m_hWnd)); return ::SetTimer(m_hWnd, nIDEvent, nElapse,

  00026	6a 00		 push	 0
  00028	56		 push	 esi
  00029	6a 03		 push	 3
  0002b	50		 push	 eax
  0002c	ff 15 00 00 00
	00		 call	 DWORD PTR __imp__SetTimer@16
; File D:\git\src\IBK\IBK_DRFN\ProjSrc\SrcDrfn\Chart\Common_ST\STGfxOutBarCtrl.cpp

; 2562 : }

  00032	89 b7 f4 00 00
	00		 mov	 DWORD PTR [edi+244], esi
  00038	5f		 pop	 edi
  00039	5e		 pop	 esi
  0003a	5d		 pop	 ebp
  0003b	c2 04 00	 ret	 4
?SetAnimSelHighlight@CSTGfxOutBarCtrl@@QAEXH@Z ENDP	; CSTGfxOutBarCtrl::SetAnimSelHighlight
_TEXT	ENDS
; Function compile flags: /Ogtp
; File D:\git\src\IBK\IBK_DRFN\ProjSrc\SrcDrfn\Chart\Common_ST\STGfxOutBarCtrl.cpp
; File C:\Program Files (x86)\Microsoft Visual Studio\2019\Community\VC\Tools\MSVC\14.29.30133\atlmfc\include\afxcoll.inl
; File D:\git\src\IBK\IBK_DRFN\ProjSrc\SrcDrfn\Chart\Common_ST\STGfxOutBarCtrl.cpp
; File C:\Program Files (x86)\Microsoft Visual Studio\2019\Community\VC\Tools\MSVC\14.29.30133\atlmfc\include\atltypes.h
; File D:\git\src\IBK\IBK_DRFN\ProjSrc\SrcDrfn\Chart\Common_ST\STGfxOutBarCtrl.cpp
; File C:\Program Files (x86)\Microsoft Visual Studio\2019\Community\VC\Tools\MSVC\14.29.30133\atlmfc\include\atltypes.h
; File D:\git\src\IBK\IBK_DRFN\ProjSrc\SrcDrfn\Chart\Common_ST\STGfxOutBarCtrl.cpp
; File C:\Program Files (x86)\Microsoft Visual Studio\2019\Community\VC\Tools\MSVC\14.29.30133\atlmfc\include\afxcoll.inl
; File D:\git\src\IBK\IBK_DRFN\ProjSrc\SrcDrfn\Chart\Common_ST\STGfxOutBarCtrl.cpp
; File C:\Program Files (x86)\Microsoft Visual Studio\2019\Community\VC\Tools\MSVC\14.29.30133\atlmfc\include\afxcoll.inl
; File D:\git\src\IBK\IBK_DRFN\ProjSrc\SrcDrfn\Chart\Common_ST\STGfxOutBarCtrl.cpp
; File C:\Program Files (x86)\Microsoft Visual Studio\2019\Community\VC\Tools\MSVC\14.29.30133\atlmfc\include\afxwin1.inl
; File C:\Program Files (x86)\Microsoft Visual Studio\2019\Community\VC\Tools\MSVC\14.29.30133\atlmfc\include\atltypes.h
; File D:\git\src\IBK\IBK_DRFN\ProjSrc\SrcDrfn\Chart\Common_ST\STGfxOutBarCtrl.cpp
; File C:\Program Files (x86)\Microsoft Visual Studio\2019\Community\VC\Tools\MSVC\14.29.30133\atlmfc\include\atltypes.h
; File D:\git\src\IBK\IBK_DRFN\ProjSrc\SrcDrfn\Chart\Common_ST\STGfxOutBarCtrl.cpp
; File C:\Program Files (x86)\Microsoft Visual Studio\2019\Community\VC\Tools\MSVC\14.29.30133\atlmfc\include\atltypes.h
; File D:\git\src\IBK\IBK_DRFN\ProjSrc\SrcDrfn\Chart\Common_ST\STGfxOutBarCtrl.cpp
; File C:\Program Files (x86)\Microsoft Visual Studio\2019\Community\VC\Tools\MSVC\14.29.30133\atlmfc\include\atltypes.h
; File D:\git\src\IBK\IBK_DRFN\ProjSrc\SrcDrfn\Chart\Common_ST\STGfxOutBarCtrl.cpp
; File C:\Program Files (x86)\Microsoft Visual Studio\2019\Community\VC\Tools\MSVC\14.29.30133\atlmfc\include\atltypes.h
; File D:\git\src\IBK\IBK_DRFN\ProjSrc\SrcDrfn\Chart\Common_ST\STGfxOutBarCtrl.cpp
; File C:\Program Files (x86)\Microsoft Visual Studio\2019\Community\VC\Tools\MSVC\14.29.30133\atlmfc\include\afxwin1.inl
; File D:\git\src\IBK\IBK_DRFN\ProjSrc\SrcDrfn\Chart\Common_ST\STGfxOutBarCtrl.cpp
; File C:\Program Files (x86)\Microsoft Visual Studio\2019\Community\VC\Tools\MSVC\14.29.30133\atlmfc\include\afxwin1.inl
; File D:\git\src\IBK\IBK_DRFN\ProjSrc\SrcDrfn\Chart\Common_ST\STGfxOutBarCtrl.cpp
; File C:\Program Files (x86)\Microsoft Visual Studio\2019\Community\VC\Tools\MSVC\14.29.30133\atlmfc\include\afxwin1.inl
; File C:\Program Files (x86)\Microsoft Visual Studio\2019\Community\VC\Tools\MSVC\14.29.30133\atlmfc\include\atltypes.h
; File D:\git\src\IBK\IBK_DRFN\ProjSrc\SrcDrfn\Chart\Common_ST\STGfxOutBarCtrl.cpp
; File C:\Program Files (x86)\Microsoft Visual Studio\2019\Community\VC\Tools\MSVC\14.29.30133\atlmfc\include\atltypes.h
; File D:\git\src\IBK\IBK_DRFN\ProjSrc\SrcDrfn\Chart\Common_ST\STGfxOutBarCtrl.cpp
; File C:\Program Files (x86)\Microsoft Visual Studio\2019\Community\VC\Tools\MSVC\14.29.30133\atlmfc\include\atltypes.h
; File D:\git\src\IBK\IBK_DRFN\ProjSrc\SrcDrfn\Chart\Common_ST\STGfxOutBarCtrl.cpp
; File C:\Program Files (x86)\Microsoft Visual Studio\2019\Community\VC\Tools\MSVC\14.29.30133\atlmfc\include\atltypes.h
; File D:\git\src\IBK\IBK_DRFN\ProjSrc\SrcDrfn\Chart\Common_ST\STGfxOutBarCtrl.cpp
; File C:\Program Files (x86)\Microsoft Visual Studio\2019\Community\VC\Tools\MSVC\14.29.30133\atlmfc\include\atltypes.h
; File D:\git\src\IBK\IBK_DRFN\ProjSrc\SrcDrfn\Chart\Common_ST\STGfxOutBarCtrl.cpp
; File C:\Program Files (x86)\Microsoft Visual Studio\2019\Community\VC\Tools\MSVC\14.29.30133\atlmfc\include\afxwin1.inl
; File D:\git\src\IBK\IBK_DRFN\ProjSrc\SrcDrfn\Chart\Common_ST\STGfxOutBarCtrl.cpp
;	COMDAT ?DrawAnimItem@CSTGfxOutBarCtrl@@QAEXHHH@Z
_TEXT	SEGMENT
_dc$6 = -144						; size = 20
_pi$1$ = -124						; size = 4
_this$GSCopy$1$ = -120					; size = 4
_ima$1$ = -116						; size = 4
_ii$7 = -112						; size = 32
_ii$8 = -112						; size = 32
_irc$ = -80						; size = 16
$T9 = -64						; size = 16
_rcBck$10 = -64						; size = 16
_rcBck$11 = -48						; size = 16
$T12 = -48						; size = 16
_rc$ = -32						; size = 16
__$ArrayPad$ = -16					; size = 4
__$EHRec$ = -12						; size = 12
_xoffset$ = 8						; size = 4
_yoffset$ = 12						; size = 4
_index$ = 16						; size = 4
?DrawAnimItem@CSTGfxOutBarCtrl@@QAEXHHH@Z PROC		; CSTGfxOutBarCtrl::DrawAnimItem, COMDAT
; _this$ = ecx

; 336  : {

  00000	55		 push	 ebp
  00001	8b ec		 mov	 ebp, esp
  00003	6a ff		 push	 -1
  00005	68 00 00 00 00	 push	 __ehhandler$?DrawAnimItem@CSTGfxOutBarCtrl@@QAEXHHH@Z
  0000a	64 a1 00 00 00
	00		 mov	 eax, DWORD PTR fs:0
  00010	50		 push	 eax
  00011	81 ec 84 00 00
	00		 sub	 esp, 132		; 00000084H
  00017	a1 00 00 00 00	 mov	 eax, DWORD PTR ___security_cookie
  0001c	33 c5		 xor	 eax, ebp
  0001e	89 45 f0	 mov	 DWORD PTR __$ArrayPad$[ebp], eax
  00021	53		 push	 ebx
  00022	56		 push	 esi
  00023	57		 push	 edi
  00024	50		 push	 eax
  00025	8d 45 f4	 lea	 eax, DWORD PTR __$EHRec$[ebp]
  00028	64 a3 00 00 00
	00		 mov	 DWORD PTR fs:0, eax
  0002e	8b d9		 mov	 ebx, ecx
  00030	89 5d 88	 mov	 DWORD PTR _this$GSCopy$1$[ebp], ebx

; 215  : 	return dwFlags&fSmallIcon;

  00033	8a 93 fc 00 00
	00		 mov	 dl, BYTE PTR [ebx+252]

; 337  : 	CImageList * ima = GetFolderImageList(iSelFolder, IsSmallIconView());

  00039	8b 8b 30 01 00
	00		 mov	 ecx, DWORD PTR [ebx+304]

; 215  : 	return dwFlags&fSmallIcon;

  0003f	80 e2 01	 and	 dl, 1

; 336  : {

  00042	8b 7d 10	 mov	 edi, DWORD PTR _index$[ebp]
; File C:\Program Files (x86)\Microsoft Visual Studio\2019\Community\VC\Tools\MSVC\14.29.30133\atlmfc\include\afxcoll.inl

; 203  : 		if( nIndex < 0 || nIndex >= m_nSize )

  00045	85 c9		 test	 ecx, ecx
  00047	0f 88 39 02 00
	00		 js	 $LN30@DrawAnimIt
  0004d	3b 8b 08 01 00
	00		 cmp	 ecx, DWORD PTR [ebx+264]
  00053	0f 8d 2d 02 00
	00		 jge	 $LN30@DrawAnimIt

; 205  : 		return m_pData[nIndex]; }

  00059	8b 83 04 01 00
	00		 mov	 eax, DWORD PTR [ebx+260]
  0005f	8b 34 88	 mov	 esi, DWORD PTR [eax+ecx*4]
; File D:\git\src\IBK\IBK_DRFN\ProjSrc\SrcDrfn\Chart\Common_ST\STGfxOutBarCtrl.cpp

; 1772 : 	if (bSmall)

  00062	84 d2		 test	 dl, dl
  00064	74 12		 je	 SHORT $LN14@DrawAnimIt

; 1773 : 	{
; 1774 : 		if (pbf->pSmallImageList) return pbf->pSmallImageList; else return pSmallImageList;

  00066	8b 76 10	 mov	 esi, DWORD PTR [esi+16]
  00069	89 75 8c	 mov	 DWORD PTR _ima$1$[ebp], esi
  0006c	85 f6		 test	 esi, esi
  0006e	75 1b		 jne	 SHORT $LN16@DrawAnimIt
  00070	8b b3 38 01 00
	00		 mov	 esi, DWORD PTR [ebx+312]
  00076	eb 10		 jmp	 SHORT $LN80@DrawAnimIt
$LN14@DrawAnimIt:

; 1775 : 	}
; 1776 : 	if (pbf->pLargeImageList) return pbf->pLargeImageList; else return pLargeImageList;

  00078	8b 76 0c	 mov	 esi, DWORD PTR [esi+12]
  0007b	89 75 8c	 mov	 DWORD PTR _ima$1$[ebp], esi
  0007e	85 f6		 test	 esi, esi
  00080	75 09		 jne	 SHORT $LN16@DrawAnimIt
  00082	8b b3 34 01 00
	00		 mov	 esi, DWORD PTR [ebx+308]
$LN80@DrawAnimIt:
; File C:\Program Files (x86)\Microsoft Visual Studio\2019\Community\VC\Tools\MSVC\14.29.30133\atlmfc\include\atltypes.h

; 528  : 	left = 0;

  00088	89 75 8c	 mov	 DWORD PTR _ima$1$[ebp], esi
$LN16@DrawAnimIt:
  0008b	0f 57 c0	 xorps	 xmm0, xmm0
; File D:\git\src\IBK\IBK_DRFN\ProjSrc\SrcDrfn\Chart\Common_ST\STGfxOutBarCtrl.cpp

; 340  : 	GetInsideRect(irc);

  0008e	8d 45 b0	 lea	 eax, DWORD PTR _irc$[ebp]
  00091	50		 push	 eax
  00092	8b cb		 mov	 ecx, ebx
; File C:\Program Files (x86)\Microsoft Visual Studio\2019\Community\VC\Tools\MSVC\14.29.30133\atlmfc\include\atltypes.h

; 528  : 	left = 0;

  00094	0f 11 45 e0	 movups	 XMMWORD PTR _rc$[ebp], xmm0
  00098	0f 11 45 b0	 movups	 XMMWORD PTR _irc$[ebp], xmm0
; File D:\git\src\IBK\IBK_DRFN\ProjSrc\SrcDrfn\Chart\Common_ST\STGfxOutBarCtrl.cpp

; 340  : 	GetInsideRect(irc);

  0009c	e8 00 00 00 00	 call	 ?GetInsideRect@CSTGfxOutBarCtrl@@QBEXAAVCRect@@@Z ; CSTGfxOutBarCtrl::GetInsideRect

; 341  : 	GetItemRect(iSelFolder, iLastSel, rc);

  000a1	8d 45 e0	 lea	 eax, DWORD PTR _rc$[ebp]
  000a4	8b cb		 mov	 ecx, ebx
  000a6	50		 push	 eax
  000a7	ff b3 f0 00 00
	00		 push	 DWORD PTR [ebx+240]
  000ad	ff b3 30 01 00
	00		 push	 DWORD PTR [ebx+304]
  000b3	e8 00 00 00 00	 call	 ?GetItemRect@CSTGfxOutBarCtrl@@QAEXHHAAVCRect@@@Z ; CSTGfxOutBarCtrl::GetItemRect

; 342  : 
; 343  : 	if (iLastSel >= iFirstItem && irc.bottom > rc.bottom && irc.top < rc.top)

  000b8	8b 83 f0 00 00
	00		 mov	 eax, DWORD PTR [ebx+240]
  000be	3b 83 1c 01 00
	00		 cmp	 eax, DWORD PTR [ebx+284]
  000c4	0f 8c 9e 01 00
	00		 jl	 $LN2@DrawAnimIt
  000ca	8b 45 bc	 mov	 eax, DWORD PTR _irc$[ebp+12]
  000cd	3b 45 ec	 cmp	 eax, DWORD PTR _rc$[ebp+12]
  000d0	0f 8e 92 01 00
	00		 jle	 $LN2@DrawAnimIt
  000d6	8b 45 b4	 mov	 eax, DWORD PTR _irc$[ebp+4]
  000d9	3b 45 e4	 cmp	 eax, DWORD PTR _rc$[ebp+4]
  000dc	0f 8d 86 01 00
	00		 jge	 $LN2@DrawAnimIt

; 344  : 	{
; 345  : 		ASSERT(iSelFolder >= 0 && iSelFolder < GetFolderCount());
; 346  : 		CBarFolder * pbf = (CBarFolder *) arFolder.GetAt(iSelFolder);

  000e2	8b 8b 30 01 00
	00		 mov	 ecx, DWORD PTR [ebx+304]
; File C:\Program Files (x86)\Microsoft Visual Studio\2019\Community\VC\Tools\MSVC\14.29.30133\atlmfc\include\afxcoll.inl

; 203  : 		if( nIndex < 0 || nIndex >= m_nSize )

  000e8	85 c9		 test	 ecx, ecx
  000ea	0f 88 96 01 00
	00		 js	 $LN30@DrawAnimIt
  000f0	3b 8b 08 01 00
	00		 cmp	 ecx, DWORD PTR [ebx+264]
  000f6	0f 8d 8a 01 00
	00		 jge	 $LN30@DrawAnimIt

; 205  : 		return m_pData[nIndex]; }

  000fc	8b 83 04 01 00
	00		 mov	 eax, DWORD PTR [ebx+260]
  00102	8b 04 88	 mov	 eax, DWORD PTR [eax+ecx*4]

; 203  : 		if( nIndex < 0 || nIndex >= m_nSize )

  00105	85 ff		 test	 edi, edi
  00107	0f 88 79 01 00
	00		 js	 $LN30@DrawAnimIt
  0010d	3b 78 1c	 cmp	 edi, DWORD PTR [eax+28]
  00110	0f 8d 70 01 00
	00		 jge	 $LN30@DrawAnimIt

; 205  : 		return m_pData[nIndex]; }

  00116	8b 40 18	 mov	 eax, DWORD PTR [eax+24]
; File D:\git\src\IBK\IBK_DRFN\ProjSrc\SrcDrfn\Chart\Common_ST\STGfxOutBarCtrl.cpp

; 353  : 		CClientDC dc(this);

  00119	8d 8d 70 ff ff
	ff		 lea	 ecx, DWORD PTR _dc$6[ebp]
  0011f	53		 push	 ebx
; File C:\Program Files (x86)\Microsoft Visual Studio\2019\Community\VC\Tools\MSVC\14.29.30133\atlmfc\include\afxcoll.inl

; 205  : 		return m_pData[nIndex]; }

  00120	8b 3c b8	 mov	 edi, DWORD PTR [eax+edi*4]
  00123	89 7d 84	 mov	 DWORD PTR _pi$1$[ebp], edi
; File D:\git\src\IBK\IBK_DRFN\ProjSrc\SrcDrfn\Chart\Common_ST\STGfxOutBarCtrl.cpp

; 353  : 		CClientDC dc(this);

  00126	e8 00 00 00 00	 call	 ??0CClientDC@@QAE@PAVCWnd@@@Z ; CClientDC::CClientDC

; 215  : 	return dwFlags&fSmallIcon;

  0012b	8a 83 fc 00 00
	00		 mov	 al, BYTE PTR [ebx+252]
  00131	24 01		 and	 al, 1

; 353  : 		CClientDC dc(this);

  00133	c7 45 fc 00 00
	00 00		 mov	 DWORD PTR __$EHRec$[ebp+8], 0

; 356  : 		{
; 357  : 			if (ima)

  0013a	85 f6		 test	 esi, esi
  0013c	0f 84 1b 01 00
	00		 je	 $LN6@DrawAnimIt

; 354  : 
; 355  : 		if (IsSmallIconView())

  00142	84 c0		 test	 al, al
  00144	8d 45 90	 lea	 eax, DWORD PTR _ii$8[ebp]
  00147	50		 push	 eax
  00148	ff 77 04	 push	 DWORD PTR [edi+4]
  0014b	ff 76 04	 push	 DWORD PTR [esi+4]
  0014e	74 7e		 je	 SHORT $LN3@DrawAnimIt
; File C:\Program Files (x86)\Microsoft Visual Studio\2019\Community\VC\Tools\MSVC\14.29.30133\atlmfc\include\afxwin1.inl

; 881  : 	{ ASSERT(m_hImageList != NULL); return ImageList_GetImageInfo(m_hImageList, nImage, pImageInfo); }

  00150	ff 15 00 00 00
	00		 call	 DWORD PTR __imp__ImageList_GetImageInfo@12
; File C:\Program Files (x86)\Microsoft Visual Studio\2019\Community\VC\Tools\MSVC\14.29.30133\atlmfc\include\atltypes.h

; 548  : 	::CopyRect(this, &srcRect);

  00156	8d 45 a0	 lea	 eax, DWORD PTR _ii$8[ebp+16]
  00159	50		 push	 eax
  0015a	8d 45 d0	 lea	 eax, DWORD PTR $T12[ebp]
  0015d	50		 push	 eax
  0015e	ff 15 00 00 00
	00		 call	 DWORD PTR __imp__CopyRect@8

; 586  : 	return CSize(right - left, bottom - top);

  00164	8b 7d dc	 mov	 edi, DWORD PTR $T12[ebp+12]
  00167	2b 7d d4	 sub	 edi, DWORD PTR $T12[ebp+4]
; File D:\git\src\IBK\IBK_DRFN\ProjSrc\SrcDrfn\Chart\Common_ST\STGfxOutBarCtrl.cpp

; 364  : 				pt.y = rc.top + (rc.Height() - szImage.cy) / 2;

  0016a	8b 45 ec	 mov	 eax, DWORD PTR _rc$[ebp+12]
  0016d	8b 4d e4	 mov	 ecx, DWORD PTR _rc$[ebp+4]
  00170	2b c7		 sub	 eax, edi
  00172	8b 5d e0	 mov	 ebx, DWORD PTR _rc$[ebp]
  00175	2b c1		 sub	 eax, ecx
  00177	99		 cdq
  00178	83 c3 02	 add	 ebx, 2
  0017b	2b c2		 sub	 eax, edx
  0017d	d1 f8		 sar	 eax, 1
  0017f	8d 34 08	 lea	 esi, DWORD PTR [eax+ecx]
; File C:\Program Files (x86)\Microsoft Visual Studio\2019\Community\VC\Tools\MSVC\14.29.30133\atlmfc\include\atltypes.h

; 542  : 	right = r;

  00182	8b cb		 mov	 ecx, ebx
  00184	2b 4d d0	 sub	 ecx, DWORD PTR $T12[ebp]
; File D:\git\src\IBK\IBK_DRFN\ProjSrc\SrcDrfn\Chart\Common_ST\STGfxOutBarCtrl.cpp

; 364  : 				pt.y = rc.top + (rc.Height() - szImage.cy) / 2;

  00187	8d 43 ff	 lea	 eax, DWORD PTR [ebx-1]
; File C:\Program Files (x86)\Microsoft Visual Studio\2019\Community\VC\Tools\MSVC\14.29.30133\atlmfc\include\atltypes.h

; 540  : 	left = l;

  0018a	89 45 c0	 mov	 DWORD PTR _rcBck$10[ebp], eax
  0018d	8d 46 ff	 lea	 eax, DWORD PTR [esi-1]

; 541  : 	top = t;

  00190	89 45 c4	 mov	 DWORD PTR _rcBck$10[ebp+4], eax
; File D:\git\src\IBK\IBK_DRFN\ProjSrc\SrcDrfn\Chart\Common_ST\STGfxOutBarCtrl.cpp

; 366  : 				CRect rcBck(pt.x-1, pt.y-1, pt.x + szImage.cx+2, pt.y + szImage.cy+2);

  00193	8b 45 d8	 mov	 eax, DWORD PTR $T12[ebp+8]
  00196	83 c0 02	 add	 eax, 2
  00199	03 c1		 add	 eax, ecx

; 367  : 				dc.FillSolidRect(rcBck, crBackGroundColor);

  0019b	8d 8d 70 ff ff
	ff		 lea	 ecx, DWORD PTR _dc$6[ebp]
; File C:\Program Files (x86)\Microsoft Visual Studio\2019\Community\VC\Tools\MSVC\14.29.30133\atlmfc\include\atltypes.h

; 542  : 	right = r;

  001a1	89 45 c8	 mov	 DWORD PTR _rcBck$10[ebp+8], eax
; File D:\git\src\IBK\IBK_DRFN\ProjSrc\SrcDrfn\Chart\Common_ST\STGfxOutBarCtrl.cpp

; 366  : 				CRect rcBck(pt.x-1, pt.y-1, pt.x + szImage.cx+2, pt.y + szImage.cy+2);

  001a4	8d 47 02	 lea	 eax, DWORD PTR [edi+2]
  001a7	03 c6		 add	 eax, esi
; File C:\Program Files (x86)\Microsoft Visual Studio\2019\Community\VC\Tools\MSVC\14.29.30133\atlmfc\include\atltypes.h

; 543  : 	bottom = b;

  001a9	89 45 cc	 mov	 DWORD PTR _rcBck$10[ebp+12], eax
; File D:\git\src\IBK\IBK_DRFN\ProjSrc\SrcDrfn\Chart\Common_ST\STGfxOutBarCtrl.cpp

; 367  : 				dc.FillSolidRect(rcBck, crBackGroundColor);

  001ac	8b 45 88	 mov	 eax, DWORD PTR _this$GSCopy$1$[ebp]
  001af	ff b0 80 00 00
	00		 push	 DWORD PTR [eax+128]
  001b5	8d 45 c0	 lea	 eax, DWORD PTR _rcBck$10[ebp]
  001b8	50		 push	 eax
  001b9	e8 00 00 00 00	 call	 ?FillSolidRect@CDC@@QAEXPBUtagRECT@@K@Z ; CDC::FillSolidRect
  001be	8b 4d 08	 mov	 ecx, DWORD PTR _xoffset$[ebp]

; 369  : 				pt.x += xoffset;

  001c1	8b 45 0c	 mov	 eax, DWORD PTR _yoffset$[ebp]
  001c4	03 cb		 add	 ecx, ebx
; File C:\Program Files (x86)\Microsoft Visual Studio\2019\Community\VC\Tools\MSVC\14.29.30133\atlmfc\include\afxwin1.inl

; 871  : 	{ ASSERT(m_hImageList != NULL); ASSERT(pDC != NULL); return ImageList_Draw(m_hImageList, nImage, pDC->GetSafeHdc(), pt.x, pt.y, nStyle); }

  001c6	6a 00		 push	 0
; File D:\git\src\IBK\IBK_DRFN\ProjSrc\SrcDrfn\Chart\Common_ST\STGfxOutBarCtrl.cpp

; 369  : 				pt.x += xoffset;

  001c8	03 c6		 add	 eax, esi
; File C:\Program Files (x86)\Microsoft Visual Studio\2019\Community\VC\Tools\MSVC\14.29.30133\atlmfc\include\afxwin1.inl

; 871  : 	{ ASSERT(m_hImageList != NULL); ASSERT(pDC != NULL); return ImageList_Draw(m_hImageList, nImage, pDC->GetSafeHdc(), pt.x, pt.y, nStyle); }

  001ca	50		 push	 eax
  001cb	51		 push	 ecx
; File D:\git\src\IBK\IBK_DRFN\ProjSrc\SrcDrfn\Chart\Common_ST\STGfxOutBarCtrl.cpp

; 375  : 		}

  001cc	eb 77		 jmp	 SHORT $LN81@DrawAnimIt
$LN3@DrawAnimIt:
; File C:\Program Files (x86)\Microsoft Visual Studio\2019\Community\VC\Tools\MSVC\14.29.30133\atlmfc\include\afxwin1.inl

; 881  : 	{ ASSERT(m_hImageList != NULL); return ImageList_GetImageInfo(m_hImageList, nImage, pImageInfo); }

  001ce	ff 15 00 00 00
	00		 call	 DWORD PTR __imp__ImageList_GetImageInfo@12
; File C:\Program Files (x86)\Microsoft Visual Studio\2019\Community\VC\Tools\MSVC\14.29.30133\atlmfc\include\atltypes.h

; 548  : 	::CopyRect(this, &srcRect);

  001d4	8d 45 a0	 lea	 eax, DWORD PTR _ii$7[ebp+16]
  001d7	50		 push	 eax
  001d8	8d 45 c0	 lea	 eax, DWORD PTR $T9[ebp]
  001db	50		 push	 eax
  001dc	ff 15 00 00 00
	00		 call	 DWORD PTR __imp__CopyRect@8

; 586  : 	return CSize(right - left, bottom - top);

  001e2	8b 75 c8	 mov	 esi, DWORD PTR $T9[ebp+8]
  001e5	2b 75 c0	 sub	 esi, DWORD PTR $T9[ebp]
; File D:\git\src\IBK\IBK_DRFN\ProjSrc\SrcDrfn\Chart\Common_ST\STGfxOutBarCtrl.cpp

; 384  : 				pt.x = rc.left + (rc.Width() - szImage.cx) / 2;

  001e8	8b 45 e8	 mov	 eax, DWORD PTR _rc$[ebp+8]
  001eb	8b 4d e0	 mov	 ecx, DWORD PTR _rc$[ebp]
  001ee	2b c6		 sub	 eax, esi

; 385  : 				pt.y = rc.top;

  001f0	8b 5d e4	 mov	 ebx, DWORD PTR _rc$[ebp+4]
  001f3	2b c1		 sub	 eax, ecx
  001f5	99		 cdq
  001f6	2b c2		 sub	 eax, edx
  001f8	d1 f8		 sar	 eax, 1
  001fa	8d 3c 08	 lea	 edi, DWORD PTR [eax+ecx]
; File C:\Program Files (x86)\Microsoft Visual Studio\2019\Community\VC\Tools\MSVC\14.29.30133\atlmfc\include\atltypes.h

; 543  : 	bottom = b;

  001fd	8b cb		 mov	 ecx, ebx
  001ff	2b 4d c4	 sub	 ecx, DWORD PTR $T9[ebp+4]
; File D:\git\src\IBK\IBK_DRFN\ProjSrc\SrcDrfn\Chart\Common_ST\STGfxOutBarCtrl.cpp

; 385  : 				pt.y = rc.top;

  00202	8d 47 ff	 lea	 eax, DWORD PTR [edi-1]
; File C:\Program Files (x86)\Microsoft Visual Studio\2019\Community\VC\Tools\MSVC\14.29.30133\atlmfc\include\atltypes.h

; 540  : 	left = l;

  00205	89 45 d0	 mov	 DWORD PTR _rcBck$11[ebp], eax
  00208	8d 43 ff	 lea	 eax, DWORD PTR [ebx-1]

; 541  : 	top = t;

  0020b	89 45 d4	 mov	 DWORD PTR _rcBck$11[ebp+4], eax
; File D:\git\src\IBK\IBK_DRFN\ProjSrc\SrcDrfn\Chart\Common_ST\STGfxOutBarCtrl.cpp

; 387  : 				CRect rcBck(pt.x-1, pt.y-1, pt.x + szImage.cx+2, pt.y + szImage.cy+2);

  0020e	8d 46 02	 lea	 eax, DWORD PTR [esi+2]
  00211	03 c7		 add	 eax, edi
; File C:\Program Files (x86)\Microsoft Visual Studio\2019\Community\VC\Tools\MSVC\14.29.30133\atlmfc\include\atltypes.h

; 542  : 	right = r;

  00213	89 45 d8	 mov	 DWORD PTR _rcBck$11[ebp+8], eax
; File D:\git\src\IBK\IBK_DRFN\ProjSrc\SrcDrfn\Chart\Common_ST\STGfxOutBarCtrl.cpp

; 387  : 				CRect rcBck(pt.x-1, pt.y-1, pt.x + szImage.cx+2, pt.y + szImage.cy+2);

  00216	8b 45 cc	 mov	 eax, DWORD PTR $T9[ebp+12]
  00219	83 c0 02	 add	 eax, 2
  0021c	03 c1		 add	 eax, ecx

; 388  : 				dc.FillSolidRect(rcBck, crBackGroundColor);

  0021e	8d 8d 70 ff ff
	ff		 lea	 ecx, DWORD PTR _dc$6[ebp]
; File C:\Program Files (x86)\Microsoft Visual Studio\2019\Community\VC\Tools\MSVC\14.29.30133\atlmfc\include\atltypes.h

; 543  : 	bottom = b;

  00224	89 45 dc	 mov	 DWORD PTR _rcBck$11[ebp+12], eax
; File D:\git\src\IBK\IBK_DRFN\ProjSrc\SrcDrfn\Chart\Common_ST\STGfxOutBarCtrl.cpp

; 388  : 				dc.FillSolidRect(rcBck, crBackGroundColor);

  00227	8b 45 88	 mov	 eax, DWORD PTR _this$GSCopy$1$[ebp]
  0022a	ff b0 80 00 00
	00		 push	 DWORD PTR [eax+128]
  00230	8d 45 d0	 lea	 eax, DWORD PTR _rcBck$11[ebp]
  00233	50		 push	 eax
  00234	e8 00 00 00 00	 call	 ?FillSolidRect@CDC@@QAEXPBUtagRECT@@K@Z ; CDC::FillSolidRect
  00239	8b 45 08	 mov	 eax, DWORD PTR _xoffset$[ebp]
  0023c	03 c7		 add	 eax, edi

; 389  : 
; 390  : 				pt.x += xoffset;
; 391  : 				pt.y += yoffset;

  0023e	03 5d 0c	 add	 ebx, DWORD PTR _yoffset$[ebp]
; File C:\Program Files (x86)\Microsoft Visual Studio\2019\Community\VC\Tools\MSVC\14.29.30133\atlmfc\include\afxwin1.inl

; 871  : 	{ ASSERT(m_hImageList != NULL); ASSERT(pDC != NULL); return ImageList_Draw(m_hImageList, nImage, pDC->GetSafeHdc(), pt.x, pt.y, nStyle); }

  00241	6a 00		 push	 0
  00243	53		 push	 ebx
  00244	50		 push	 eax
$LN81@DrawAnimIt:
; File D:\git\src\IBK\IBK_DRFN\ProjSrc\SrcDrfn\Chart\Common_ST\STGfxOutBarCtrl.cpp

; 396  : 	}

  00245	8b 45 84	 mov	 eax, DWORD PTR _pi$1$[ebp]
  00248	ff b5 74 ff ff
	ff		 push	 DWORD PTR _dc$6[ebp+4]
  0024e	ff 70 04	 push	 DWORD PTR [eax+4]
  00251	8b 45 8c	 mov	 eax, DWORD PTR _ima$1$[ebp]
  00254	ff 70 04	 push	 DWORD PTR [eax+4]
  00257	ff 15 00 00 00
	00		 call	 DWORD PTR __imp__ImageList_Draw@24
$LN6@DrawAnimIt:
  0025d	8d 8d 70 ff ff
	ff		 lea	 ecx, DWORD PTR _dc$6[ebp]
  00263	e8 00 00 00 00	 call	 ??1CClientDC@@UAE@XZ	; CClientDC::~CClientDC
$LN2@DrawAnimIt:

; 397  : }

  00268	8b 4d f4	 mov	 ecx, DWORD PTR __$EHRec$[ebp]
  0026b	64 89 0d 00 00
	00 00		 mov	 DWORD PTR fs:0, ecx
  00272	59		 pop	 ecx
  00273	5f		 pop	 edi
  00274	5e		 pop	 esi
  00275	5b		 pop	 ebx
  00276	8b 4d f0	 mov	 ecx, DWORD PTR __$ArrayPad$[ebp]
  00279	33 cd		 xor	 ecx, ebp
  0027b	e8 00 00 00 00	 call	 @__security_check_cookie@4
  00280	8b e5		 mov	 esp, ebp
  00282	5d		 pop	 ebp
  00283	c2 0c 00	 ret	 12			; 0000000cH
$LN30@DrawAnimIt:
  00286	e8 00 00 00 00	 call	 ?AfxThrowInvalidArgException@@YGXXZ ; AfxThrowInvalidArgException
$LN79@DrawAnimIt:
  0028b	cc		 int	 3
_TEXT	ENDS
;	COMDAT text$x
text$x	SEGMENT
__unwindfunclet$?DrawAnimItem@CSTGfxOutBarCtrl@@QAEXHHH@Z$0:
  00000	8d 8d 70 ff ff
	ff		 lea	 ecx, DWORD PTR _dc$6[ebp]
  00006	e9 00 00 00 00	 jmp	 ??1CClientDC@@UAE@XZ	; CClientDC::~CClientDC
  0000b	cc		 int	 3
  0000c	cc		 int	 3
  0000d	cc		 int	 3
  0000e	cc		 int	 3
  0000f	cc		 int	 3
__ehhandler$?DrawAnimItem@CSTGfxOutBarCtrl@@QAEXHHH@Z:
  00010	90		 npad	 1
  00011	90		 npad	 1
  00012	8b 54 24 08	 mov	 edx, DWORD PTR [esp+8]
  00016	8d 42 0c	 lea	 eax, DWORD PTR [edx+12]
  00019	8b 8a 6c ff ff
	ff		 mov	 ecx, DWORD PTR [edx-148]
  0001f	33 c8		 xor	 ecx, eax
  00021	e8 00 00 00 00	 call	 @__security_check_cookie@4
  00026	8b 4a fc	 mov	 ecx, DWORD PTR [edx-4]
  00029	33 c8		 xor	 ecx, eax
  0002b	e8 00 00 00 00	 call	 @__security_check_cookie@4
  00030	b8 00 00 00 00	 mov	 eax, OFFSET __ehfuncinfo$?DrawAnimItem@CSTGfxOutBarCtrl@@QAEXHHH@Z
  00035	e9 00 00 00 00	 jmp	 ___CxxFrameHandler3
text$x	ENDS
?DrawAnimItem@CSTGfxOutBarCtrl@@QAEXHHH@Z ENDP		; CSTGfxOutBarCtrl::DrawAnimItem
; Function compile flags: /Ogtp
; File D:\git\src\IBK\IBK_DRFN\ProjSrc\SrcDrfn\Chart\Common_ST\STGfxOutBarCtrl.cpp
; File C:\Program Files (x86)\Microsoft Visual Studio\2019\Community\VC\Tools\MSVC\14.29.30133\atlmfc\include\afxcoll.inl
; File D:\git\src\IBK\IBK_DRFN\ProjSrc\SrcDrfn\Chart\Common_ST\STGfxOutBarCtrl.cpp
; File C:\Program Files (x86)\Microsoft Visual Studio\2019\Community\VC\Tools\MSVC\14.29.30133\atlmfc\include\afxcoll.inl
; File D:\git\src\IBK\IBK_DRFN\ProjSrc\SrcDrfn\Chart\Common_ST\STGfxOutBarCtrl.cpp
; File C:\Program Files (x86)\Microsoft Visual Studio\2019\Community\VC\Tools\MSVC\14.29.30133\atlmfc\include\afxcoll.inl
; File D:\git\src\IBK\IBK_DRFN\ProjSrc\SrcDrfn\Chart\Common_ST\STGfxOutBarCtrl.cpp
;	COMDAT ?DeleteAllFolder@CSTGfxOutBarCtrl@@QAEXXZ
_TEXT	SEGMENT
?DeleteAllFolder@CSTGfxOutBarCtrl@@QAEXXZ PROC		; CSTGfxOutBarCtrl::DeleteAllFolder, COMDAT
; _this$ = ecx

; 133  : {

  00000	56		 push	 esi
  00001	57		 push	 edi
  00002	8b f9		 mov	 edi, ecx

; 134  : 	for (int t = 0; t < arFolder.GetSize(); t++)

  00004	33 f6		 xor	 esi, esi
  00006	8b 97 08 01 00
	00		 mov	 edx, DWORD PTR [edi+264]
  0000c	85 d2		 test	 edx, edx
  0000e	7e 26		 jle	 SHORT $LN25@DeleteAllF
$LL4@DeleteAllF:
; File C:\Program Files (x86)\Microsoft Visual Studio\2019\Community\VC\Tools\MSVC\14.29.30133\atlmfc\include\afxcoll.inl

; 203  : 		if( nIndex < 0 || nIndex >= m_nSize )

  00010	85 f6		 test	 esi, esi
  00012	78 3e		 js	 SHORT $LN21@DeleteAllF
  00014	3b f2		 cmp	 esi, edx
  00016	7d 3a		 jge	 SHORT $LN21@DeleteAllF
; File D:\git\src\IBK\IBK_DRFN\ProjSrc\SrcDrfn\Chart\Common_ST\STGfxOutBarCtrl.cpp

; 136  : 		if (arFolder.GetAt(t)) delete (CBarFolder*) arFolder.GetAt(t);

  00018	8b 87 04 01 00
	00		 mov	 eax, DWORD PTR [edi+260]
  0001e	8b 0c b0	 mov	 ecx, DWORD PTR [eax+esi*4]
  00021	85 c9		 test	 ecx, ecx
  00023	74 0c		 je	 SHORT $LN2@DeleteAllF
  00025	8b 01		 mov	 eax, DWORD PTR [ecx]
  00027	6a 01		 push	 1
  00029	ff 10		 call	 DWORD PTR [eax]
  0002b	8b 97 08 01 00
	00		 mov	 edx, DWORD PTR [edi+264]
$LN2@DeleteAllF:

; 134  : 	for (int t = 0; t < arFolder.GetSize(); t++)

  00031	46		 inc	 esi
  00032	3b f2		 cmp	 esi, edx
  00034	7c da		 jl	 SHORT $LL4@DeleteAllF
$LN25@DeleteAllF:
; File C:\Program Files (x86)\Microsoft Visual Studio\2019\Community\VC\Tools\MSVC\14.29.30133\atlmfc\include\afxcoll.inl

; 200  : 	{ SetSize(0); }

  00036	6a ff		 push	 -1
  00038	6a 00		 push	 0
  0003a	8d 8f 00 01 00
	00		 lea	 ecx, DWORD PTR [edi+256]
  00040	e8 00 00 00 00	 call	 ?SetSize@CPtrArray@@QAEXHH@Z ; CPtrArray::SetSize
; File D:\git\src\IBK\IBK_DRFN\ProjSrc\SrcDrfn\Chart\Common_ST\STGfxOutBarCtrl.cpp

; 139  : 	iSelFolder = 0;

  00045	c7 87 30 01 00
	00 00 00 00 00	 mov	 DWORD PTR [edi+304], 0
  0004f	5f		 pop	 edi
  00050	5e		 pop	 esi

; 140  : }

  00051	c3		 ret	 0
$LN21@DeleteAllF:
; File C:\Program Files (x86)\Microsoft Visual Studio\2019\Community\VC\Tools\MSVC\14.29.30133\atlmfc\include\afxcoll.inl

; 204  : 			AfxThrowInvalidArgException();

  00052	e8 00 00 00 00	 call	 ?AfxThrowInvalidArgException@@YGXXZ ; AfxThrowInvalidArgException
$LN27@DeleteAllF:
  00057	cc		 int	 3
?DeleteAllFolder@CSTGfxOutBarCtrl@@QAEXXZ ENDP		; CSTGfxOutBarCtrl::DeleteAllFolder
_TEXT	ENDS
; Function compile flags: /Ogtp
; File D:\git\src\IBK\IBK_DRFN\ProjSrc\SrcDrfn\Chart\Common_ST\STGfxOutBarCtrl.cpp
; File C:\Program Files (x86)\Microsoft Visual Studio\2019\Community\VC\Tools\MSVC\14.29.30133\atlmfc\include\afxcoll.inl
; File D:\git\src\IBK\IBK_DRFN\ProjSrc\SrcDrfn\Chart\Common_ST\STGfxOutBarCtrl.cpp
; File C:\Program Files (x86)\Microsoft Visual Studio\2019\Community\VC\Tools\MSVC\14.29.30133\atlmfc\include\afxwin2.inl
; File D:\git\src\IBK\IBK_DRFN\ProjSrc\SrcDrfn\Chart\Common_ST\STGfxOutBarCtrl.cpp
; File C:\Program Files (x86)\Microsoft Visual Studio\2019\Community\VC\Tools\MSVC\14.29.30133\atlmfc\include\afxwin2.inl
; File D:\git\src\IBK\IBK_DRFN\ProjSrc\SrcDrfn\Chart\Common_ST\STGfxOutBarCtrl.cpp
; File C:\Program Files (x86)\Microsoft Visual Studio\2019\Community\VC\Tools\MSVC\14.29.30133\atlmfc\include\afxcoll.inl
; File D:\git\src\IBK\IBK_DRFN\ProjSrc\SrcDrfn\Chart\Common_ST\STGfxOutBarCtrl.cpp
;	COMDAT ?OnCommand@CSTGfxOutBarCtrl@@MAEHIJ@Z
_TEXT	SEGMENT
_nCnt$1$ = -12						; size = 4
_nID$1$ = -8						; size = 4
_nCode$1$ = -4						; size = 4
_wParam$ = 8						; size = 4
_lParam$ = 12						; size = 4
?OnCommand@CSTGfxOutBarCtrl@@MAEHIJ@Z PROC		; CSTGfxOutBarCtrl::OnCommand, COMDAT
; _this$ = ecx

; 2565 : {

  00000	55		 push	 ebp
  00001	8b ec		 mov	 ebp, esp
  00003	83 ec 0c	 sub	 esp, 12			; 0000000cH

; 2566 : 	// TODO: Add your specialized code here and/or call the base class
; 2567 : 	UINT nID = LOWORD(wParam);

  00006	8b 45 08	 mov	 eax, DWORD PTR _wParam$[ebp]
  00009	53		 push	 ebx

; 2568 : 	HWND hWndCtrl = (HWND)lParam;
; 2569 : 	int nCode = HIWORD(wParam);
; 2570 : 
; 2571 : 	CBarFolder * pbf = NULL;
; 2572 : 	int nCnt = arFolder.GetSize();
; 2573 : 	for(int nPos=0;nPos<nCnt;nPos++)

  0000a	8b 5d 0c	 mov	 ebx, DWORD PTR _lParam$[ebp]
  0000d	56		 push	 esi
  0000e	57		 push	 edi
  0000f	8b f9		 mov	 edi, ecx
  00011	33 f6		 xor	 esi, esi
  00013	0f b7 c8	 movzx	 ecx, ax
  00016	c1 e8 10	 shr	 eax, 16			; 00000010H
  00019	89 45 fc	 mov	 DWORD PTR _nCode$1$[ebp], eax
  0001c	8b 87 08 01 00
	00		 mov	 eax, DWORD PTR [edi+264]
  00022	89 4d f8	 mov	 DWORD PTR _nID$1$[ebp], ecx
  00025	89 45 f4	 mov	 DWORD PTR _nCnt$1$[ebp], eax
  00028	85 c0		 test	 eax, eax
  0002a	7e 4d		 jle	 SHORT $LN3@OnCommand
  0002c	0f 1f 40 00	 npad	 4
$LL4@OnCommand:
; File C:\Program Files (x86)\Microsoft Visual Studio\2019\Community\VC\Tools\MSVC\14.29.30133\atlmfc\include\afxcoll.inl

; 203  : 		if( nIndex < 0 || nIndex >= m_nSize )

  00030	85 f6		 test	 esi, esi
  00032	78 59		 js	 SHORT $LN19@OnCommand
  00034	3b b7 08 01 00
	00		 cmp	 esi, DWORD PTR [edi+264]
  0003a	7d 51		 jge	 SHORT $LN19@OnCommand
; File D:\git\src\IBK\IBK_DRFN\ProjSrc\SrcDrfn\Chart\Common_ST\STGfxOutBarCtrl.cpp

; 2576 : 		if(pbf->pChild->GetSafeHwnd()==hWndCtrl)

  0003c	8b 87 04 01 00
	00		 mov	 eax, DWORD PTR [edi+260]
  00042	8b 04 b0	 mov	 eax, DWORD PTR [eax+esi*4]
  00045	8b 40 28	 mov	 eax, DWORD PTR [eax+40]
; File C:\Program Files (x86)\Microsoft Visual Studio\2019\Community\VC\Tools\MSVC\14.29.30133\atlmfc\include\afxwin2.inl

; 25   : 	{ return this == NULL ? NULL : m_hWnd; }

  00048	85 c0		 test	 eax, eax
  0004a	74 03		 je	 SHORT $LN15@OnCommand
$LN14@OnCommand:
  0004c	8b 40 20	 mov	 eax, DWORD PTR [eax+32]
$LN15@OnCommand:
; File D:\git\src\IBK\IBK_DRFN\ProjSrc\SrcDrfn\Chart\Common_ST\STGfxOutBarCtrl.cpp

; 2576 : 		if(pbf->pChild->GetSafeHwnd()==hWndCtrl)

  0004f	3b c3		 cmp	 eax, ebx
  00051	75 20		 jne	 SHORT $LN2@OnCommand
; File C:\Program Files (x86)\Microsoft Visual Studio\2019\Community\VC\Tools\MSVC\14.29.30133\atlmfc\include\afxwin2.inl

; 213  : 	{ ASSERT(::IsWindow(m_hWnd)); return CWnd::FromHandle(::GetParent(m_hWnd)); }

  00053	ff 77 20	 push	 DWORD PTR [edi+32]
  00056	ff 15 00 00 00
	00		 call	 DWORD PTR __imp__GetParent@4
  0005c	50		 push	 eax
  0005d	e8 00 00 00 00	 call	 ?FromHandle@CWnd@@SGPAV1@PAUHWND__@@@Z ; CWnd::FromHandle
; File D:\git\src\IBK\IBK_DRFN\ProjSrc\SrcDrfn\Chart\Common_ST\STGfxOutBarCtrl.cpp

; 2578 : 			GetParent()->OnCmdMsg(nID, nCode, NULL, NULL);

  00062	6a 00		 push	 0
  00064	6a 00		 push	 0
  00066	ff 75 fc	 push	 DWORD PTR _nCode$1$[ebp]
  00069	8b 10		 mov	 edx, DWORD PTR [eax]
  0006b	8b c8		 mov	 ecx, eax
  0006d	ff 75 f8	 push	 DWORD PTR _nID$1$[ebp]
  00070	ff 52 14	 call	 DWORD PTR [edx+20]
$LN2@OnCommand:

; 2568 : 	HWND hWndCtrl = (HWND)lParam;
; 2569 : 	int nCode = HIWORD(wParam);
; 2570 : 
; 2571 : 	CBarFolder * pbf = NULL;
; 2572 : 	int nCnt = arFolder.GetSize();
; 2573 : 	for(int nPos=0;nPos<nCnt;nPos++)

  00073	46		 inc	 esi
  00074	3b 75 f4	 cmp	 esi, DWORD PTR _nCnt$1$[ebp]
  00077	7c b7		 jl	 SHORT $LL4@OnCommand
$LN3@OnCommand:

; 2579 : 		}
; 2580 : 	}	
; 2581 : 	return CWnd::OnCommand(wParam, lParam);

  00079	53		 push	 ebx
  0007a	ff 75 08	 push	 DWORD PTR _wParam$[ebp]
  0007d	8b cf		 mov	 ecx, edi
  0007f	e8 00 00 00 00	 call	 ?OnCommand@CWnd@@MAEHIJ@Z ; CWnd::OnCommand
  00084	5f		 pop	 edi
  00085	5e		 pop	 esi
  00086	5b		 pop	 ebx

; 2582 : }

  00087	8b e5		 mov	 esp, ebp
  00089	5d		 pop	 ebp
  0008a	c2 08 00	 ret	 8
$LN19@OnCommand:
; File C:\Program Files (x86)\Microsoft Visual Studio\2019\Community\VC\Tools\MSVC\14.29.30133\atlmfc\include\afxcoll.inl

; 204  : 			AfxThrowInvalidArgException();

  0008d	e8 00 00 00 00	 call	 ?AfxThrowInvalidArgException@@YGXXZ ; AfxThrowInvalidArgException
$LN23@OnCommand:
  00092	cc		 int	 3
?OnCommand@CSTGfxOutBarCtrl@@MAEHIJ@Z ENDP		; CSTGfxOutBarCtrl::OnCommand
_TEXT	ENDS
; Function compile flags: /Ogtp
; File D:\git\src\IBK\IBK_DRFN\ProjSrc\SrcDrfn\Chart\Common_ST\STGfxOutBarCtrl.cpp
; File C:\Program Files (x86)\Microsoft Visual Studio\2019\Community\VC\Tools\MSVC\14.29.30133\atlmfc\include\afxcoll.inl
; File D:\git\src\IBK\IBK_DRFN\ProjSrc\SrcDrfn\Chart\Common_ST\STGfxOutBarCtrl.cpp
; File C:\Program Files (x86)\Microsoft Visual Studio\2019\Community\VC\Tools\MSVC\14.29.30133\atlmfc\include\afxcoll.inl
; File D:\git\src\IBK\IBK_DRFN\ProjSrc\SrcDrfn\Chart\Common_ST\STGfxOutBarCtrl.cpp
; File C:\Program Files (x86)\Microsoft Visual Studio\2019\Community\VC\Tools\MSVC\14.29.30133\atlmfc\include\afxcoll.inl
;	COMDAT ??_GCBarFolder@CSTGfxOutBarCtrl@@UAEPAXI@Z
_TEXT	SEGMENT
__$EHRec$ = -12						; size = 12
___flags$ = 8						; size = 4
??_GCBarFolder@CSTGfxOutBarCtrl@@UAEPAXI@Z PROC		; CSTGfxOutBarCtrl::CBarFolder::`scalar deleting destructor', COMDAT
; _this$ = ecx
  00000	55		 push	 ebp
  00001	8b ec		 mov	 ebp, esp
  00003	6a ff		 push	 -1
  00005	68 00 00 00 00	 push	 __ehhandler$??_GCBarFolder@CSTGfxOutBarCtrl@@UAEPAXI@Z
  0000a	64 a1 00 00 00
	00		 mov	 eax, DWORD PTR fs:0
  00010	50		 push	 eax
  00011	56		 push	 esi
  00012	57		 push	 edi
  00013	a1 00 00 00 00	 mov	 eax, DWORD PTR ___security_cookie
  00018	33 c5		 xor	 eax, ebp
  0001a	50		 push	 eax
  0001b	8d 45 f4	 lea	 eax, DWORD PTR __$EHRec$[ebp]
  0001e	64 a3 00 00 00
	00		 mov	 DWORD PTR fs:0, eax
  00024	8b f9		 mov	 edi, ecx
; File D:\git\src\IBK\IBK_DRFN\ProjSrc\SrcDrfn\Chart\Common_ST\STGfxOutBarCtrl.cpp

; 800  : 	if (cName) delete [] cName;

  00026	8b 47 04	 mov	 eax, DWORD PTR [edi+4]
  00029	c7 45 fc 00 00
	00 00		 mov	 DWORD PTR __$EHRec$[ebp+8], 0
  00030	c7 07 00 00 00
	00		 mov	 DWORD PTR [edi], OFFSET ??_7CBarFolder@CSTGfxOutBarCtrl@@6B@
  00036	85 c0		 test	 eax, eax
  00038	74 09		 je	 SHORT $LN8@scalar
  0003a	50		 push	 eax
  0003b	e8 00 00 00 00	 call	 ??_V@YAXPAX@Z		; operator delete[]
  00040	83 c4 04	 add	 esp, 4
$LN8@scalar:

; 801  : 	for (int t = 0; t < arItems.GetSize(); t++)

  00043	8b 57 1c	 mov	 edx, DWORD PTR [edi+28]
  00046	33 f6		 xor	 esi, esi
  00048	85 d2		 test	 edx, edx
  0004a	7e 24		 jle	 SHORT $LN31@scalar
  0004c	0f 1f 40 00	 npad	 4
$LL7@scalar:
; File C:\Program Files (x86)\Microsoft Visual Studio\2019\Community\VC\Tools\MSVC\14.29.30133\atlmfc\include\afxcoll.inl

; 203  : 		if( nIndex < 0 || nIndex >= m_nSize )

  00050	85 f6		 test	 esi, esi
  00052	78 56		 js	 SHORT $LN27@scalar
  00054	3b f2		 cmp	 esi, edx
  00056	7d 52		 jge	 SHORT $LN27@scalar
; File D:\git\src\IBK\IBK_DRFN\ProjSrc\SrcDrfn\Chart\Common_ST\STGfxOutBarCtrl.cpp

; 802  : 		if (arItems.GetAt(t)) delete (CBarFolder*) arItems.GetAt(t);

  00058	8b 47 18	 mov	 eax, DWORD PTR [edi+24]
  0005b	8b 0c b0	 mov	 ecx, DWORD PTR [eax+esi*4]
  0005e	85 c9		 test	 ecx, ecx
  00060	74 09		 je	 SHORT $LN5@scalar
  00062	8b 01		 mov	 eax, DWORD PTR [ecx]
  00064	6a 01		 push	 1
  00066	ff 10		 call	 DWORD PTR [eax]
  00068	8b 57 1c	 mov	 edx, DWORD PTR [edi+28]
$LN5@scalar:

; 801  : 	for (int t = 0; t < arItems.GetSize(); t++)

  0006b	46		 inc	 esi
  0006c	3b f2		 cmp	 esi, edx
  0006e	7c e0		 jl	 SHORT $LL7@scalar
$LN31@scalar:
; File C:\Program Files (x86)\Microsoft Visual Studio\2019\Community\VC\Tools\MSVC\14.29.30133\atlmfc\include\afxcoll.inl

; 200  : 	{ SetSize(0); }

  00070	6a ff		 push	 -1
  00072	6a 00		 push	 0
  00074	8d 4f 14	 lea	 ecx, DWORD PTR [edi+20]
  00077	e8 00 00 00 00	 call	 ?SetSize@CPtrArray@@QAEXHH@Z ; CPtrArray::SetSize
; File D:\git\src\IBK\IBK_DRFN\ProjSrc\SrcDrfn\Chart\Common_ST\STGfxOutBarCtrl.cpp

; 805  : }

  0007c	8d 4f 14	 lea	 ecx, DWORD PTR [edi+20]
  0007f	e8 00 00 00 00	 call	 ??1CPtrArray@@UAE@XZ	; CPtrArray::~CPtrArray
  00084	f6 45 08 01	 test	 BYTE PTR ___flags$[ebp], 1
  00088	74 0b		 je	 SHORT $LN2@scalar
  0008a	6a 2c		 push	 44			; 0000002cH
  0008c	57		 push	 edi
  0008d	e8 00 00 00 00	 call	 ??3@YAXPAXI@Z		; operator delete
  00092	83 c4 08	 add	 esp, 8
$LN2@scalar:
  00095	8b c7		 mov	 eax, edi
  00097	8b 4d f4	 mov	 ecx, DWORD PTR __$EHRec$[ebp]
  0009a	64 89 0d 00 00
	00 00		 mov	 DWORD PTR fs:0, ecx
  000a1	59		 pop	 ecx
  000a2	5f		 pop	 edi
  000a3	5e		 pop	 esi
  000a4	8b e5		 mov	 esp, ebp
  000a6	5d		 pop	 ebp
  000a7	c2 04 00	 ret	 4
$LN27@scalar:
; File C:\Program Files (x86)\Microsoft Visual Studio\2019\Community\VC\Tools\MSVC\14.29.30133\atlmfc\include\afxcoll.inl

; 204  : 			AfxThrowInvalidArgException();

  000aa	e8 00 00 00 00	 call	 ?AfxThrowInvalidArgException@@YGXXZ ; AfxThrowInvalidArgException
$LN34@scalar:
  000af	cc		 int	 3
  000b0	cc		 int	 3
  000b1	cc		 int	 3
  000b2	cc		 int	 3
  000b3	cc		 int	 3
  000b4	cc		 int	 3
_TEXT	ENDS
;	COMDAT text$x
text$x	SEGMENT
__ehhandler$??_GCBarFolder@CSTGfxOutBarCtrl@@UAEPAXI@Z:
  00000	90		 npad	 1
  00001	90		 npad	 1
  00002	8b 54 24 08	 mov	 edx, DWORD PTR [esp+8]
  00006	8d 42 0c	 lea	 eax, DWORD PTR [edx+12]
  00009	8b 4a f4	 mov	 ecx, DWORD PTR [edx-12]
  0000c	33 c8		 xor	 ecx, eax
  0000e	e8 00 00 00 00	 call	 @__security_check_cookie@4
  00013	b8 00 00 00 00	 mov	 eax, OFFSET __ehfuncinfo$??_GCBarFolder@CSTGfxOutBarCtrl@@UAEPAXI@Z
  00018	e9 00 00 00 00	 jmp	 ___CxxFrameHandler3
text$x	ENDS
??_GCBarFolder@CSTGfxOutBarCtrl@@UAEPAXI@Z ENDP		; CSTGfxOutBarCtrl::CBarFolder::`scalar deleting destructor'
; Function compile flags: /Ogtp
; File D:\git\src\IBK\IBK_DRFN\ProjSrc\SrcDrfn\Chart\Common_ST\STGfxOutBarCtrl.cpp
; File C:\Program Files (x86)\Microsoft Visual Studio\2019\Community\VC\Tools\MSVC\14.29.30133\atlmfc\include\afxcoll.inl
; File D:\git\src\IBK\IBK_DRFN\ProjSrc\SrcDrfn\Chart\Common_ST\STGfxOutBarCtrl.cpp
;	COMDAT ?InsertItem@CBarFolder@CSTGfxOutBarCtrl@@QAEHHPBDHK@Z
_TEXT	SEGMENT
_this$1$ = -16						; size = 4
__$EHRec$ = -12						; size = 12
$T2 = 8							; size = 4
_index$ = 8						; size = 4
_text$ = 12						; size = 4
_image$ = 16						; size = 4
_exData$ = 20						; size = 4
?InsertItem@CBarFolder@CSTGfxOutBarCtrl@@QAEHHPBDHK@Z PROC ; CSTGfxOutBarCtrl::CBarFolder::InsertItem, COMDAT
; _this$ = ecx

; 1590 : {

  00000	55		 push	 ebp
  00001	8b ec		 mov	 ebp, esp
  00003	6a ff		 push	 -1
  00005	68 00 00 00 00	 push	 __ehhandler$?InsertItem@CBarFolder@CSTGfxOutBarCtrl@@QAEHHPBDHK@Z
  0000a	64 a1 00 00 00
	00		 mov	 eax, DWORD PTR fs:0
  00010	50		 push	 eax
  00011	51		 push	 ecx
  00012	53		 push	 ebx
  00013	56		 push	 esi
  00014	57		 push	 edi
  00015	a1 00 00 00 00	 mov	 eax, DWORD PTR ___security_cookie
  0001a	33 c5		 xor	 eax, ebp
  0001c	50		 push	 eax
  0001d	8d 45 f4	 lea	 eax, DWORD PTR __$EHRec$[ebp]
  00020	64 a3 00 00 00
	00		 mov	 DWORD PTR fs:0, eax
  00026	8b c1		 mov	 eax, ecx
  00028	89 45 f0	 mov	 DWORD PTR _this$1$[ebp], eax

; 1591 : 	if (index < 0 || index > GetItemCount()) index = GetItemCount();

  0002b	8b 7d 08	 mov	 edi, DWORD PTR _index$[ebp]
  0002e	8d 58 1c	 lea	 ebx, DWORD PTR [eax+28]
  00031	85 ff		 test	 edi, edi
  00033	78 04		 js	 SHORT $LN15@InsertItem
  00035	3b 3b		 cmp	 edi, DWORD PTR [ebx]
  00037	7e 02		 jle	 SHORT $LN2@InsertItem
$LN15@InsertItem:
  00039	8b 3b		 mov	 edi, DWORD PTR [ebx]
$LN2@InsertItem:

; 1592 : 
; 1593 : 	int c = GetItemCount();
; 1594 : 
; 1595 : 	CBarItem * pbf = new CBarItem(text, image, exData);

  0003b	6a 10		 push	 16			; 00000010H
  0003d	e8 00 00 00 00	 call	 ??2@YAPAXI@Z		; operator new
  00042	8b f0		 mov	 esi, eax
  00044	83 c4 04	 add	 esp, 4
  00047	89 75 08	 mov	 DWORD PTR $T2[ebp], esi
  0004a	c7 45 fc 00 00
	00 00		 mov	 DWORD PTR __$EHRec$[ebp+8], 0
  00051	85 f6		 test	 esi, esi
  00053	74 40		 je	 SHORT $LN7@InsertItem

; 1657 : 	iImageIndex = image;

  00055	8b 45 10	 mov	 eax, DWORD PTR _image$[ebp]
  00058	89 46 04	 mov	 DWORD PTR [esi+4], eax

; 1658 : 	dwData = exData;

  0005b	8b 45 14	 mov	 eax, DWORD PTR _exData$[ebp]
  0005e	89 46 0c	 mov	 DWORD PTR [esi+12], eax

; 1659 : 	if (name)

  00061	8b 45 0c	 mov	 eax, DWORD PTR _text$[ebp]
  00064	c7 06 00 00 00
	00		 mov	 DWORD PTR [esi], OFFSET ??_7CBarItem@CSTGfxOutBarCtrl@@6B@
  0006a	c7 46 08 00 00
	00 00		 mov	 DWORD PTR [esi+8], 0
  00071	85 c0		 test	 eax, eax
  00073	74 22		 je	 SHORT $LN8@InsertItem

; 1660 : 	{
; 1661 : 		cItem = new char[lstrlen(name)+1];

  00075	50		 push	 eax
  00076	ff 15 00 00 00
	00		 call	 DWORD PTR __imp__lstrlenA@4
  0007c	40		 inc	 eax
  0007d	50		 push	 eax
  0007e	e8 00 00 00 00	 call	 ??_U@YAPAXI@Z		; operator new[]
  00083	83 c4 04	 add	 esp, 4
  00086	89 46 08	 mov	 DWORD PTR [esi+8], eax

; 1662 : 		ASSERT(cItem);
; 1663 : 		lstrcpy(cItem, name);

  00089	ff 75 0c	 push	 DWORD PTR _text$[ebp]
  0008c	50		 push	 eax
  0008d	ff 15 00 00 00
	00		 call	 DWORD PTR __imp__lstrcpyA@8

; 1592 : 
; 1593 : 	int c = GetItemCount();
; 1594 : 
; 1595 : 	CBarItem * pbf = new CBarItem(text, image, exData);

  00093	eb 02		 jmp	 SHORT $LN8@InsertItem
$LN7@InsertItem:
  00095	33 f6		 xor	 esi, esi
$LN8@InsertItem:

; 1596 : 	ASSERT(pbf);
; 1597 : 	if (index < GetItemCount()) 

  00097	8b 4d f0	 mov	 ecx, DWORD PTR _this$1$[ebp]
  0009a	83 c1 14	 add	 ecx, 20			; 00000014H
  0009d	c7 45 fc ff ff
	ff ff		 mov	 DWORD PTR __$EHRec$[ebp+8], -1
  000a4	3b 3b		 cmp	 edi, DWORD PTR [ebx]
  000a6	7d 0b		 jge	 SHORT $LN4@InsertItem

; 1598 : 		arItems.InsertAt(index, (void *) pbf);

  000a8	6a 01		 push	 1
  000aa	56		 push	 esi
  000ab	57		 push	 edi
  000ac	e8 00 00 00 00	 call	 ?InsertAt@CPtrArray@@QAEXHPAXH@Z ; CPtrArray::InsertAt
  000b1	eb 09		 jmp	 SHORT $LN18@InsertItem
$LN4@InsertItem:
; File C:\Program Files (x86)\Microsoft Visual Studio\2019\Community\VC\Tools\MSVC\14.29.30133\atlmfc\include\afxcoll.inl

; 223  : 		SetAtGrow(nIndex, newElement);

  000b3	56		 push	 esi
  000b4	ff 71 08	 push	 DWORD PTR [ecx+8]
  000b7	e8 00 00 00 00	 call	 ?SetAtGrow@CPtrArray@@QAEXHPAX@Z ; CPtrArray::SetAtGrow
$LN18@InsertItem:
; File D:\git\src\IBK\IBK_DRFN\ProjSrc\SrcDrfn\Chart\Common_ST\STGfxOutBarCtrl.cpp

; 1605 : }

  000bc	8b c7		 mov	 eax, edi
  000be	8b 4d f4	 mov	 ecx, DWORD PTR __$EHRec$[ebp]
  000c1	64 89 0d 00 00
	00 00		 mov	 DWORD PTR fs:0, ecx
  000c8	59		 pop	 ecx
  000c9	5f		 pop	 edi
  000ca	5e		 pop	 esi
  000cb	5b		 pop	 ebx
  000cc	8b e5		 mov	 esp, ebp
  000ce	5d		 pop	 ebp
  000cf	c2 10 00	 ret	 16			; 00000010H
_TEXT	ENDS
;	COMDAT text$x
text$x	SEGMENT
__unwindfunclet$?InsertItem@CBarFolder@CSTGfxOutBarCtrl@@QAEHHPBDHK@Z$0:
  00000	6a 10		 push	 16			; 00000010H
  00002	8b 45 08	 mov	 eax, DWORD PTR $T2[ebp]
  00005	50		 push	 eax
  00006	e8 00 00 00 00	 call	 ??3@YAXPAXI@Z		; operator delete
  0000b	83 c4 08	 add	 esp, 8
  0000e	c3		 ret	 0
  0000f	cc		 int	 3
  00010	cc		 int	 3
  00011	cc		 int	 3
  00012	cc		 int	 3
  00013	cc		 int	 3
__ehhandler$?InsertItem@CBarFolder@CSTGfxOutBarCtrl@@QAEHHPBDHK@Z:
  00014	90		 npad	 1
  00015	90		 npad	 1
  00016	8b 54 24 08	 mov	 edx, DWORD PTR [esp+8]
  0001a	8d 42 0c	 lea	 eax, DWORD PTR [edx+12]
  0001d	8b 4a ec	 mov	 ecx, DWORD PTR [edx-20]
  00020	33 c8		 xor	 ecx, eax
  00022	e8 00 00 00 00	 call	 @__security_check_cookie@4
  00027	b8 00 00 00 00	 mov	 eax, OFFSET __ehfuncinfo$?InsertItem@CBarFolder@CSTGfxOutBarCtrl@@QAEHHPBDHK@Z
  0002c	e9 00 00 00 00	 jmp	 ___CxxFrameHandler3
text$x	ENDS
?InsertItem@CBarFolder@CSTGfxOutBarCtrl@@QAEHHPBDHK@Z ENDP ; CSTGfxOutBarCtrl::CBarFolder::InsertItem
; Function compile flags: /Ogtp
; File D:\git\src\IBK\IBK_DRFN\ProjSrc\SrcDrfn\Chart\Common_ST\STGfxOutBarCtrl.cpp
;	COMDAT ?GetItemCount@CBarFolder@CSTGfxOutBarCtrl@@QAEHXZ
_TEXT	SEGMENT
?GetItemCount@CBarFolder@CSTGfxOutBarCtrl@@QAEHXZ PROC	; CSTGfxOutBarCtrl::CBarFolder::GetItemCount, COMDAT
; _this$ = ecx

; 1674 : 	return arItems.GetSize();

  00000	8b 41 1c	 mov	 eax, DWORD PTR [ecx+28]

; 1675 : }

  00003	c3		 ret	 0
?GetItemCount@CBarFolder@CSTGfxOutBarCtrl@@QAEHXZ ENDP	; CSTGfxOutBarCtrl::CBarFolder::GetItemCount
_TEXT	ENDS
; Function compile flags: /Ogtp
; File D:\git\src\IBK\IBK_DRFN\ProjSrc\SrcDrfn\Chart\Common_ST\STGfxOutBarCtrl.cpp
; File C:\Program Files (x86)\Microsoft Visual Studio\2019\Community\VC\Tools\MSVC\14.29.30133\atlmfc\include\afxcoll.inl
; File D:\git\src\IBK\IBK_DRFN\ProjSrc\SrcDrfn\Chart\Common_ST\STGfxOutBarCtrl.cpp
; File C:\Program Files (x86)\Microsoft Visual Studio\2019\Community\VC\Tools\MSVC\14.29.30133\atlmfc\include\afxcoll.inl
; File D:\git\src\IBK\IBK_DRFN\ProjSrc\SrcDrfn\Chart\Common_ST\STGfxOutBarCtrl.cpp
; File C:\Program Files (x86)\Microsoft Visual Studio\2019\Community\VC\Tools\MSVC\14.29.30133\atlmfc\include\afxcoll.inl
; File D:\git\src\IBK\IBK_DRFN\ProjSrc\SrcDrfn\Chart\Common_ST\STGfxOutBarCtrl.cpp
;	COMDAT ??1CBarFolder@CSTGfxOutBarCtrl@@UAE@XZ
_TEXT	SEGMENT
__$EHRec$ = -12						; size = 12
??1CBarFolder@CSTGfxOutBarCtrl@@UAE@XZ PROC		; CSTGfxOutBarCtrl::CBarFolder::~CBarFolder, COMDAT
; _this$ = ecx

; 799  : {

  00000	55		 push	 ebp
  00001	8b ec		 mov	 ebp, esp
  00003	6a ff		 push	 -1
  00005	68 00 00 00 00	 push	 __ehhandler$??1CBarFolder@CSTGfxOutBarCtrl@@UAE@XZ
  0000a	64 a1 00 00 00
	00		 mov	 eax, DWORD PTR fs:0
  00010	50		 push	 eax
  00011	56		 push	 esi
  00012	57		 push	 edi
  00013	a1 00 00 00 00	 mov	 eax, DWORD PTR ___security_cookie
  00018	33 c5		 xor	 eax, ebp
  0001a	50		 push	 eax
  0001b	8d 45 f4	 lea	 eax, DWORD PTR __$EHRec$[ebp]
  0001e	64 a3 00 00 00
	00		 mov	 DWORD PTR fs:0, eax
  00024	8b f9		 mov	 edi, ecx

; 800  : 	if (cName) delete [] cName;

  00026	8b 47 04	 mov	 eax, DWORD PTR [edi+4]
  00029	c7 07 00 00 00
	00		 mov	 DWORD PTR [edi], OFFSET ??_7CBarFolder@CSTGfxOutBarCtrl@@6B@
  0002f	85 c0		 test	 eax, eax
  00031	74 09		 je	 SHORT $LN5@CBarFolder
  00033	50		 push	 eax
  00034	e8 00 00 00 00	 call	 ??_V@YAXPAX@Z		; operator delete[]
  00039	83 c4 04	 add	 esp, 4
$LN5@CBarFolder:

; 801  : 	for (int t = 0; t < arItems.GetSize(); t++)

  0003c	8b 57 1c	 mov	 edx, DWORD PTR [edi+28]
  0003f	33 f6		 xor	 esi, esi
  00041	85 d2		 test	 edx, edx
  00043	7e 20		 jle	 SHORT $LN26@CBarFolder
$LL4@CBarFolder:
; File C:\Program Files (x86)\Microsoft Visual Studio\2019\Community\VC\Tools\MSVC\14.29.30133\atlmfc\include\afxcoll.inl

; 203  : 		if( nIndex < 0 || nIndex >= m_nSize )

  00045	85 f6		 test	 esi, esi
  00047	78 41		 js	 SHORT $LN22@CBarFolder
  00049	3b f2		 cmp	 esi, edx
  0004b	7d 3d		 jge	 SHORT $LN22@CBarFolder
; File D:\git\src\IBK\IBK_DRFN\ProjSrc\SrcDrfn\Chart\Common_ST\STGfxOutBarCtrl.cpp

; 802  : 		if (arItems.GetAt(t)) delete (CBarFolder*) arItems.GetAt(t);

  0004d	8b 47 18	 mov	 eax, DWORD PTR [edi+24]
  00050	8b 0c b0	 mov	 ecx, DWORD PTR [eax+esi*4]
  00053	85 c9		 test	 ecx, ecx
  00055	74 09		 je	 SHORT $LN2@CBarFolder
  00057	8b 01		 mov	 eax, DWORD PTR [ecx]
  00059	6a 01		 push	 1
  0005b	ff 10		 call	 DWORD PTR [eax]
  0005d	8b 57 1c	 mov	 edx, DWORD PTR [edi+28]
$LN2@CBarFolder:

; 801  : 	for (int t = 0; t < arItems.GetSize(); t++)

  00060	46		 inc	 esi
  00061	3b f2		 cmp	 esi, edx
  00063	7c e0		 jl	 SHORT $LL4@CBarFolder
$LN26@CBarFolder:
; File C:\Program Files (x86)\Microsoft Visual Studio\2019\Community\VC\Tools\MSVC\14.29.30133\atlmfc\include\afxcoll.inl

; 200  : 	{ SetSize(0); }

  00065	6a ff		 push	 -1
  00067	6a 00		 push	 0
  00069	8d 4f 14	 lea	 ecx, DWORD PTR [edi+20]
  0006c	e8 00 00 00 00	 call	 ?SetSize@CPtrArray@@QAEXHH@Z ; CPtrArray::SetSize
; File D:\git\src\IBK\IBK_DRFN\ProjSrc\SrcDrfn\Chart\Common_ST\STGfxOutBarCtrl.cpp

; 805  : }

  00071	8d 4f 14	 lea	 ecx, DWORD PTR [edi+20]
  00074	e8 00 00 00 00	 call	 ??1CPtrArray@@UAE@XZ	; CPtrArray::~CPtrArray
  00079	8b 4d f4	 mov	 ecx, DWORD PTR __$EHRec$[ebp]
  0007c	64 89 0d 00 00
	00 00		 mov	 DWORD PTR fs:0, ecx
  00083	59		 pop	 ecx
  00084	5f		 pop	 edi
  00085	5e		 pop	 esi
  00086	8b e5		 mov	 esp, ebp
  00088	5d		 pop	 ebp
  00089	c3		 ret	 0
$LN22@CBarFolder:
; File C:\Program Files (x86)\Microsoft Visual Studio\2019\Community\VC\Tools\MSVC\14.29.30133\atlmfc\include\afxcoll.inl

; 204  : 			AfxThrowInvalidArgException();

  0008a	e8 00 00 00 00	 call	 ?AfxThrowInvalidArgException@@YGXXZ ; AfxThrowInvalidArgException
$LN29@CBarFolder:
  0008f	cc		 int	 3
  00090	cc		 int	 3
  00091	cc		 int	 3
  00092	cc		 int	 3
  00093	cc		 int	 3
  00094	cc		 int	 3
_TEXT	ENDS
;	COMDAT text$x
text$x	SEGMENT
__ehhandler$??1CBarFolder@CSTGfxOutBarCtrl@@UAE@XZ:
  00000	90		 npad	 1
  00001	90		 npad	 1
  00002	8b 54 24 08	 mov	 edx, DWORD PTR [esp+8]
  00006	8d 42 0c	 lea	 eax, DWORD PTR [edx+12]
  00009	8b 4a f4	 mov	 ecx, DWORD PTR [edx-12]
  0000c	33 c8		 xor	 ecx, eax
  0000e	e8 00 00 00 00	 call	 @__security_check_cookie@4
  00013	b8 00 00 00 00	 mov	 eax, OFFSET __ehfuncinfo$??1CBarFolder@CSTGfxOutBarCtrl@@UAE@XZ
  00018	e9 00 00 00 00	 jmp	 ___CxxFrameHandler3
text$x	ENDS
??1CBarFolder@CSTGfxOutBarCtrl@@UAE@XZ ENDP		; CSTGfxOutBarCtrl::CBarFolder::~CBarFolder
; Function compile flags: /Ogtp
; File D:\git\src\IBK\IBK_DRFN\ProjSrc\SrcDrfn\Chart\Common_ST\STGfxOutBarCtrl.cpp
;	COMDAT ??0CBarFolder@CSTGfxOutBarCtrl@@QAE@PBDK@Z
_TEXT	SEGMENT
_this$ = -16						; size = 4
__$EHRec$ = -12						; size = 12
_name$ = 8						; size = 4
_exData$ = 12						; size = 4
??0CBarFolder@CSTGfxOutBarCtrl@@QAE@PBDK@Z PROC		; CSTGfxOutBarCtrl::CBarFolder::CBarFolder, COMDAT
; _this$ = ecx

; 783  : {

  00000	55		 push	 ebp
  00001	8b ec		 mov	 ebp, esp
  00003	6a ff		 push	 -1
  00005	68 00 00 00 00	 push	 __ehhandler$??0CBarFolder@CSTGfxOutBarCtrl@@QAE@PBDK@Z
  0000a	64 a1 00 00 00
	00		 mov	 eax, DWORD PTR fs:0
  00010	50		 push	 eax
  00011	51		 push	 ecx
  00012	56		 push	 esi
  00013	57		 push	 edi
  00014	a1 00 00 00 00	 mov	 eax, DWORD PTR ___security_cookie
  00019	33 c5		 xor	 eax, ebp
  0001b	50		 push	 eax
  0001c	8d 45 f4	 lea	 eax, DWORD PTR __$EHRec$[ebp]
  0001f	64 a3 00 00 00
	00		 mov	 DWORD PTR fs:0, eax
  00025	8b f1		 mov	 esi, ecx
  00027	89 75 f0	 mov	 DWORD PTR _this$[ebp], esi
  0002a	8d 4e 14	 lea	 ecx, DWORD PTR [esi+20]
  0002d	c7 06 00 00 00
	00		 mov	 DWORD PTR [esi], OFFSET ??_7CBarFolder@CSTGfxOutBarCtrl@@6B@
  00033	e8 00 00 00 00	 call	 ??0CPtrArray@@QAE@XZ	; CPtrArray::CPtrArray

; 784  : 	cName = NULL;
; 785  : 	dwData = exData;
; 786  : 
; 787  : 	if (name)

  00038	8b 7d 08	 mov	 edi, DWORD PTR _name$[ebp]
  0003b	8b 45 0c	 mov	 eax, DWORD PTR _exData$[ebp]
  0003e	c7 45 fc 00 00
	00 00		 mov	 DWORD PTR __$EHRec$[ebp+8], 0
  00045	c7 46 04 00 00
	00 00		 mov	 DWORD PTR [esi+4], 0
  0004c	89 46 08	 mov	 DWORD PTR [esi+8], eax
  0004f	85 ff		 test	 edi, edi
  00051	74 1c		 je	 SHORT $LN2@CBarFolder

; 788  : 	{
; 789  : 		cName = new char[lstrlen(name)+1];

  00053	57		 push	 edi
  00054	ff 15 00 00 00
	00		 call	 DWORD PTR __imp__lstrlenA@4
  0005a	40		 inc	 eax
  0005b	50		 push	 eax
  0005c	e8 00 00 00 00	 call	 ??_U@YAPAXI@Z		; operator new[]
  00061	83 c4 04	 add	 esp, 4
  00064	89 46 04	 mov	 DWORD PTR [esi+4], eax

; 790  : 		ASSERT(cName);
; 791  : 		lstrcpy(cName, name);

  00067	57		 push	 edi
  00068	50		 push	 eax
  00069	ff 15 00 00 00
	00		 call	 DWORD PTR __imp__lstrcpyA@8
$LN2@CBarFolder:

; 792  : 	}
; 793  : 	pLargeImageList = NULL;

  0006f	c7 46 0c 00 00
	00 00		 mov	 DWORD PTR [esi+12], 0

; 794  : 	pSmallImageList = NULL;
; 795  : 	pChild = NULL;
; 796  : }

  00076	8b c6		 mov	 eax, esi
  00078	c7 46 10 00 00
	00 00		 mov	 DWORD PTR [esi+16], 0
  0007f	c7 46 28 00 00
	00 00		 mov	 DWORD PTR [esi+40], 0
  00086	8b 4d f4	 mov	 ecx, DWORD PTR __$EHRec$[ebp]
  00089	64 89 0d 00 00
	00 00		 mov	 DWORD PTR fs:0, ecx
  00090	59		 pop	 ecx
  00091	5f		 pop	 edi
  00092	5e		 pop	 esi
  00093	8b e5		 mov	 esp, ebp
  00095	5d		 pop	 ebp
  00096	c2 08 00	 ret	 8
_TEXT	ENDS
;	COMDAT text$x
text$x	SEGMENT
__unwindfunclet$??0CBarFolder@CSTGfxOutBarCtrl@@QAE@PBDK@Z$0:
  00000	8b 4d f0	 mov	 ecx, DWORD PTR _this$[ebp]
  00003	83 c1 14	 add	 ecx, 20			; 00000014H
  00006	e9 00 00 00 00	 jmp	 ??1CPtrArray@@UAE@XZ	; CPtrArray::~CPtrArray
  0000b	cc		 int	 3
  0000c	cc		 int	 3
  0000d	cc		 int	 3
  0000e	cc		 int	 3
  0000f	cc		 int	 3
__ehhandler$??0CBarFolder@CSTGfxOutBarCtrl@@QAE@PBDK@Z:
  00010	90		 npad	 1
  00011	90		 npad	 1
  00012	8b 54 24 08	 mov	 edx, DWORD PTR [esp+8]
  00016	8d 42 0c	 lea	 eax, DWORD PTR [edx+12]
  00019	8b 4a f0	 mov	 ecx, DWORD PTR [edx-16]
  0001c	33 c8		 xor	 ecx, eax
  0001e	e8 00 00 00 00	 call	 @__security_check_cookie@4
  00023	b8 00 00 00 00	 mov	 eax, OFFSET __ehfuncinfo$??0CBarFolder@CSTGfxOutBarCtrl@@QAE@PBDK@Z
  00028	e9 00 00 00 00	 jmp	 ___CxxFrameHandler3
text$x	ENDS
??0CBarFolder@CSTGfxOutBarCtrl@@QAE@PBDK@Z ENDP		; CSTGfxOutBarCtrl::CBarFolder::CBarFolder
; Function compile flags: /Ogtp
; File D:\git\src\IBK\IBK_DRFN\ProjSrc\SrcDrfn\Chart\Common_ST\STGfxOutBarCtrl.cpp
;	COMDAT ??_GCBarItem@CSTGfxOutBarCtrl@@UAEPAXI@Z
_TEXT	SEGMENT
___flags$ = 8						; size = 4
??_GCBarItem@CSTGfxOutBarCtrl@@UAEPAXI@Z PROC		; CSTGfxOutBarCtrl::CBarItem::`scalar deleting destructor', COMDAT
; _this$ = ecx
  00000	55		 push	 ebp
  00001	8b ec		 mov	 ebp, esp

; 1668 : {

  00003	56		 push	 esi
  00004	8b f1		 mov	 esi, ecx

; 1669 : 	if (cItem) delete [] cItem;

  00006	8b 46 08	 mov	 eax, DWORD PTR [esi+8]
  00009	c7 06 00 00 00
	00		 mov	 DWORD PTR [esi], OFFSET ??_7CBarItem@CSTGfxOutBarCtrl@@6B@
  0000f	85 c0		 test	 eax, eax
  00011	74 09		 je	 SHORT $LN5@scalar
  00013	50		 push	 eax
  00014	e8 00 00 00 00	 call	 ??_V@YAXPAX@Z		; operator delete[]
  00019	83 c4 04	 add	 esp, 4
$LN5@scalar:
  0001c	f6 45 08 01	 test	 BYTE PTR ___flags$[ebp], 1
  00020	74 0b		 je	 SHORT $LN7@scalar
  00022	6a 10		 push	 16			; 00000010H
  00024	56		 push	 esi
  00025	e8 00 00 00 00	 call	 ??3@YAXPAXI@Z		; operator delete
  0002a	83 c4 08	 add	 esp, 8
$LN7@scalar:
  0002d	8b c6		 mov	 eax, esi
  0002f	5e		 pop	 esi
  00030	5d		 pop	 ebp
  00031	c2 04 00	 ret	 4
??_GCBarItem@CSTGfxOutBarCtrl@@UAEPAXI@Z ENDP		; CSTGfxOutBarCtrl::CBarItem::`scalar deleting destructor'
_TEXT	ENDS
; Function compile flags: /Ogtp
; File D:\git\src\IBK\IBK_DRFN\ProjSrc\SrcDrfn\Chart\Common_ST\STGfxOutBarCtrl.cpp
;	COMDAT ??1CBarItem@CSTGfxOutBarCtrl@@UAE@XZ
_TEXT	SEGMENT
??1CBarItem@CSTGfxOutBarCtrl@@UAE@XZ PROC		; CSTGfxOutBarCtrl::CBarItem::~CBarItem, COMDAT
; _this$ = ecx

; 1669 : 	if (cItem) delete [] cItem;

  00000	8b 41 08	 mov	 eax, DWORD PTR [ecx+8]
  00003	c7 01 00 00 00
	00		 mov	 DWORD PTR [ecx], OFFSET ??_7CBarItem@CSTGfxOutBarCtrl@@6B@
  00009	85 c0		 test	 eax, eax
  0000b	74 07		 je	 SHORT $LN2@CBarItem
  0000d	50		 push	 eax
  0000e	e8 00 00 00 00	 call	 ??_V@YAXPAX@Z		; operator delete[]
  00013	59		 pop	 ecx
$LN2@CBarItem:

; 1670 : }

  00014	c3		 ret	 0
??1CBarItem@CSTGfxOutBarCtrl@@UAE@XZ ENDP		; CSTGfxOutBarCtrl::CBarItem::~CBarItem
_TEXT	ENDS
; Function compile flags: /Ogtp
; File D:\git\src\IBK\IBK_DRFN\ProjSrc\SrcDrfn\Chart\Common_ST\STGfxOutBarCtrl.cpp
;	COMDAT ??0CBarItem@CSTGfxOutBarCtrl@@QAE@PBDHK@Z
_TEXT	SEGMENT
_name$ = 8						; size = 4
_image$ = 12						; size = 4
_exData$ = 16						; size = 4
??0CBarItem@CSTGfxOutBarCtrl@@QAE@PBDHK@Z PROC		; CSTGfxOutBarCtrl::CBarItem::CBarItem, COMDAT
; _this$ = ecx

; 1655 : {

  00000	55		 push	 ebp
  00001	8b ec		 mov	 ebp, esp

; 1656 : 	cItem = NULL;
; 1657 : 	iImageIndex = image;

  00003	8b 45 0c	 mov	 eax, DWORD PTR _image$[ebp]
  00006	56		 push	 esi
  00007	8b f1		 mov	 esi, ecx
  00009	57		 push	 edi

; 1658 : 	dwData = exData;
; 1659 : 	if (name)

  0000a	8b 7d 08	 mov	 edi, DWORD PTR _name$[ebp]
  0000d	89 46 04	 mov	 DWORD PTR [esi+4], eax
  00010	8b 45 10	 mov	 eax, DWORD PTR _exData$[ebp]
  00013	c7 06 00 00 00
	00		 mov	 DWORD PTR [esi], OFFSET ??_7CBarItem@CSTGfxOutBarCtrl@@6B@
  00019	c7 46 08 00 00
	00 00		 mov	 DWORD PTR [esi+8], 0
  00020	89 46 0c	 mov	 DWORD PTR [esi+12], eax
  00023	85 ff		 test	 edi, edi
  00025	74 1c		 je	 SHORT $LN4@CBarItem

; 1660 : 	{
; 1661 : 		cItem = new char[lstrlen(name)+1];

  00027	57		 push	 edi
  00028	ff 15 00 00 00
	00		 call	 DWORD PTR __imp__lstrlenA@4
  0002e	40		 inc	 eax
  0002f	50		 push	 eax
  00030	e8 00 00 00 00	 call	 ??_U@YAPAXI@Z		; operator new[]
  00035	83 c4 04	 add	 esp, 4
  00038	89 46 08	 mov	 DWORD PTR [esi+8], eax

; 1662 : 		ASSERT(cItem);
; 1663 : 		lstrcpy(cItem, name);

  0003b	57		 push	 edi
  0003c	50		 push	 eax
  0003d	ff 15 00 00 00
	00		 call	 DWORD PTR __imp__lstrcpyA@8
$LN4@CBarItem:

; 1664 : 	}
; 1665 : }

  00043	5f		 pop	 edi
  00044	8b c6		 mov	 eax, esi
  00046	5e		 pop	 esi
  00047	5d		 pop	 ebp
  00048	c2 0c 00	 ret	 12			; 0000000cH
??0CBarItem@CSTGfxOutBarCtrl@@QAE@PBDHK@Z ENDP		; CSTGfxOutBarCtrl::CBarItem::CBarItem
_TEXT	ENDS
; Function compile flags: /Ogtp
; File D:\git\src\IBK\IBK_DRFN\ProjSrc\SrcDrfn\Chart\Common_ST\STGfxOutBarCtrl.cpp
; File C:\Program Files (x86)\Microsoft Visual Studio\2019\Community\VC\Tools\MSVC\14.29.30133\atlmfc\include\atltypes.h
; File D:\git\src\IBK\IBK_DRFN\ProjSrc\SrcDrfn\Chart\Common_ST\STGfxOutBarCtrl.cpp
; File C:\Program Files (x86)\Microsoft Visual Studio\2019\Community\VC\Tools\MSVC\14.29.30133\atlmfc\include\atltypes.h
; File D:\git\src\IBK\IBK_DRFN\ProjSrc\SrcDrfn\Chart\Common_ST\STGfxOutBarCtrl.cpp
; File C:\Program Files (x86)\Microsoft Visual Studio\2019\Community\VC\Tools\MSVC\14.29.30133\atlmfc\include\afxwin1.inl
; File D:\git\src\IBK\IBK_DRFN\ProjSrc\SrcDrfn\Chart\Common_ST\STGfxOutBarCtrl.cpp
; File C:\Program Files (x86)\Microsoft Visual Studio\2019\Community\VC\Tools\MSVC\14.29.30133\atlmfc\include\afx.inl
; File D:\git\src\IBK\IBK_DRFN\ProjSrc\SrcDrfn\Chart\Common_ST\STGfxOutBarCtrl.cpp
; File C:\Program Files (x86)\Microsoft Visual Studio\2019\Community\VC\Tools\MSVC\14.29.30133\atlmfc\include\afx.inl
; File D:\git\src\IBK\IBK_DRFN\ProjSrc\SrcDrfn\Chart\Common_ST\STGfxOutBarCtrl.cpp
;	COMDAT ??0CSTGfxOutBarCtrl@@QAE@XZ
_TEXT	SEGMENT
$T2 = -20						; size = 4
_this$ = -16						; size = 4
__$EHRec$ = -12						; size = 12
??0CSTGfxOutBarCtrl@@QAE@XZ PROC			; CSTGfxOutBarCtrl::CSTGfxOutBarCtrl, COMDAT
; _this$ = ecx

; 30   : {

  00000	55		 push	 ebp
  00001	8b ec		 mov	 ebp, esp
  00003	6a ff		 push	 -1
  00005	68 00 00 00 00	 push	 __ehhandler$??0CSTGfxOutBarCtrl@@QAE@XZ
  0000a	64 a1 00 00 00
	00		 mov	 eax, DWORD PTR fs:0
  00010	50		 push	 eax
  00011	83 ec 08	 sub	 esp, 8
  00014	56		 push	 esi
  00015	57		 push	 edi
  00016	a1 00 00 00 00	 mov	 eax, DWORD PTR ___security_cookie
  0001b	33 c5		 xor	 eax, ebp
  0001d	50		 push	 eax
  0001e	8d 45 f4	 lea	 eax, DWORD PTR __$EHRec$[ebp]
  00021	64 a3 00 00 00
	00		 mov	 DWORD PTR fs:0, eax
  00027	8b f1		 mov	 esi, ecx
  00029	89 75 f0	 mov	 DWORD PTR _this$[ebp], esi
  0002c	e8 00 00 00 00	 call	 ??0CWnd@@QAE@XZ		; CWnd::CWnd
  00031	c7 06 00 00 00
	00		 mov	 DWORD PTR [esi], OFFSET ??_7CSTGfxOutBarCtrl@@6B@
  00037	8d 8e 00 01 00
	00		 lea	 ecx, DWORD PTR [esi+256]
; File C:\Program Files (x86)\Microsoft Visual Studio\2019\Community\VC\Tools\MSVC\14.29.30133\atlmfc\include\atltypes.h

; 528  : 	left = 0;

  0003d	c7 86 c0 00 00
	00 00 00 00 00	 mov	 DWORD PTR [esi+192], 0

; 529  : 	top = 0;

  00047	c7 86 c4 00 00
	00 00 00 00 00	 mov	 DWORD PTR [esi+196], 0

; 530  : 	right = 0;

  00051	c7 86 c8 00 00
	00 00 00 00 00	 mov	 DWORD PTR [esi+200], 0

; 531  : 	bottom = 0;

  0005b	c7 86 cc 00 00
	00 00 00 00 00	 mov	 DWORD PTR [esi+204], 0
; File D:\git\src\IBK\IBK_DRFN\ProjSrc\SrcDrfn\Chart\Common_ST\STGfxOutBarCtrl.cpp

; 30   : {

  00065	c7 45 fc 00 00
	00 00		 mov	 DWORD PTR __$EHRec$[ebp+8], 0
; File C:\Program Files (x86)\Microsoft Visual Studio\2019\Community\VC\Tools\MSVC\14.29.30133\atlmfc\include\atltypes.h

; 528  : 	left = 0;

  0006c	c7 86 d0 00 00
	00 00 00 00 00	 mov	 DWORD PTR [esi+208], 0

; 529  : 	top = 0;

  00076	c7 86 d4 00 00
	00 00 00 00 00	 mov	 DWORD PTR [esi+212], 0

; 530  : 	right = 0;

  00080	c7 86 d8 00 00
	00 00 00 00 00	 mov	 DWORD PTR [esi+216], 0

; 531  : 	bottom = 0;

  0008a	c7 86 dc 00 00
	00 00 00 00 00	 mov	 DWORD PTR [esi+220], 0
; File D:\git\src\IBK\IBK_DRFN\ProjSrc\SrcDrfn\Chart\Common_ST\STGfxOutBarCtrl.cpp

; 30   : {

  00094	e8 00 00 00 00	 call	 ??0CPtrArray@@QAE@XZ	; CPtrArray::CPtrArray
; File C:\Program Files (x86)\Microsoft Visual Studio\2019\Community\VC\Tools\MSVC\14.29.30133\atlmfc\include\afxwin1.inl

; 70   : 	{ m_hObject = NULL; }

  00099	c7 86 50 01 00
	00 00 00 00 00	 mov	 DWORD PTR [esi+336], 0

; 153  : 	{ }

  000a3	c7 86 4c 01 00
	00 00 00 00 00	 mov	 DWORD PTR [esi+332], OFFSET ??_7CFont@@6B@
; File D:\git\src\IBK\IBK_DRFN\ProjSrc\SrcDrfn\Chart\Common_ST\STGfxOutBarCtrl.cpp

; 33   : 	crBackGroundColor = GetSysColor(COLOR_BACKGROUND);//RGB(0,128,128);//

  000ad	8b 3d 00 00 00
	00		 mov	 edi, DWORD PTR __imp__GetSysColor@4
  000b3	6a 01		 push	 1
  000b5	c6 45 fc 02	 mov	 BYTE PTR __$EHRec$[ebp+8], 2
  000b9	ff d7		 call	 edi

; 34   : 	crBackGroundColor1 = RGB(143,155,178);
; 35   : 	crTextColor = GetSysColor(COLOR_WINDOW);

  000bb	6a 05		 push	 5
  000bd	89 86 80 00 00
	00		 mov	 DWORD PTR [esi+128], eax
  000c3	c7 86 84 00 00
	00 8f 9b b2 00	 mov	 DWORD PTR [esi+132], 11705231 ; 00b29b8fH
  000cd	ff d7		 call	 edi

; 36   : 	cr3dFace = RGB(255,255,0);
; 37   : 	//cr3dFace = CRBACKGROUND;//GetSysColor(COLOR_3DFACE);
; 38   : 	//crLightBorder = GetSysColor(COLOR_3DLIGHT);
; 39   : 	crHilightBorder = GetSysColor(COLOR_3DHILIGHT);

  000cf	6a 14		 push	 20			; 00000014H
  000d1	89 86 88 00 00
	00		 mov	 DWORD PTR [esi+136], eax
  000d7	c7 86 8c 00 00
	00 ff ff 00 00	 mov	 DWORD PTR [esi+140], 65535 ; 0000ffffH
  000e1	ff d7		 call	 edi

; 41   : 	crDkShadowBorder = GetSysColor(COLOR_3DDKSHADOW);

  000e3	6a 15		 push	 21			; 00000015H
  000e5	89 86 94 00 00
	00		 mov	 DWORD PTR [esi+148], eax
  000eb	ff d7		 call	 edi
; File C:\Program Files (x86)\Microsoft Visual Studio\2019\Community\VC\Tools\MSVC\14.29.30133\atlmfc\include\afx.inl

; 116  : 	{ return ::operator new(nSize); }

  000ed	6a 08		 push	 8
; File D:\git\src\IBK\IBK_DRFN\ProjSrc\SrcDrfn\Chart\Common_ST\STGfxOutBarCtrl.cpp

; 41   : 	crDkShadowBorder = GetSysColor(COLOR_3DDKSHADOW);

  000ef	89 86 9c 00 00
	00		 mov	 DWORD PTR [esi+156], eax
; File C:\Program Files (x86)\Microsoft Visual Studio\2019\Community\VC\Tools\MSVC\14.29.30133\atlmfc\include\afx.inl

; 116  : 	{ return ::operator new(nSize); }

  000f5	e8 00 00 00 00	 call	 ??2@YAPAXI@Z		; operator new
  000fa	83 c4 04	 add	 esp, 4
; File D:\git\src\IBK\IBK_DRFN\ProjSrc\SrcDrfn\Chart\Common_ST\STGfxOutBarCtrl.cpp

; 44   : 	pBlackPen = new CPen(PS_SOLID, 1, RGB(143,155,178));

  000fd	89 45 ec	 mov	 DWORD PTR $T2[ebp], eax
  00100	c6 45 fc 03	 mov	 BYTE PTR __$EHRec$[ebp+8], 3
  00104	85 c0		 test	 eax, eax
  00106	74 12		 je	 SHORT $LN3@CSTGfxOutB
  00108	68 8f 9b b2 00	 push	 11705231		; 00b29b8fH
  0010d	6a 01		 push	 1
  0010f	6a 00		 push	 0
  00111	8b c8		 mov	 ecx, eax
  00113	e8 00 00 00 00	 call	 ??0CPen@@QAE@HHK@Z	; CPen::CPen
  00118	eb 02		 jmp	 SHORT $LN4@CSTGfxOutB
$LN3@CSTGfxOutB:
  0011a	33 c0		 xor	 eax, eax
$LN4@CSTGfxOutB:
  0011c	0f 57 c0	 xorps	 xmm0, xmm0
  0011f	89 86 48 01 00
	00		 mov	 DWORD PTR [esi+328], eax

; 45   : 
; 46   : 	iFolderHeight = 21;
; 47   : 
; 48   : 	dwFlags = fDragItems|fEditGroups|fEditItems|fRemoveGroups|fRemoveItems|fAddGroups|fAnimation|fSelHighlight;
; 49   : 
; 50   : 	iSelFolder = 0;
; 51   : 
; 52   : 	iLastFolderHighlighted = -1;
; 53   : 	iLastSelectedFolder = -1;
; 54   : 	
; 55   : 	pLargeImageList = NULL;
; 56   : 	pSmallImageList = NULL;
; 57   : 
; 58   : 	iFirstItem = 0;
; 59   : 
; 60   : 	xSmallIconLabelOffset = 4;
; 61   : 	yLargeIconLabelOffset = 3;
; 62   : 
; 63   : 	ySmallIconSpacing = 10;
; 64   : 	yLargeIconSpacing = 8;
; 65   : 
; 66   : 	xLeftMargin = 5;
; 67   : 	yTopMargin = 5;
; 68   : 
; 69   : 	bUpArrow = bDownArrow = false;
; 70   : 
; 71   : 	//hHandCursor = AfxGetApp()->LoadCursor(IDC_HANDCUR);
; 72   : 	rcUpArrow = rcDownArrow = CRect(0,0,0,0);
; 73   : 
; 74   : 	bUpPressed = bDownPressed = false;
; 75   : 
; 76   : 	bLooping = false;
; 77   : 
; 78   : 	iLastItemHighlighted = -1;
; 79   : 	bPressedHighlight = false;
; 80   : 
; 81   : 	iLastDragItemDraw = -1;
; 82   : 
; 83   : 	lAnimationTickCount = 10;
; 84   : 
; 85   : 	//hDragCursor = AfxGetApp()->LoadCursor(IDC_DRAGGING);
; 86   : 	//hNoDragCursor = AfxGetApp()->LoadCursor(IDC_NODRAGGING);
; 87   : 
; 88   : 	iLastSel = -1;
; 89   : 	iSelAnimCount = 0;
; 90   : 
; 91   : 	iSelAnimTiming = 0;
; 92   : 
; 93   : 	//m_crBk = CRBACKGROUND;
; 94   : 
; 95   : 	m_pFolderImageList = NULL;
; 96   : 	iGap = 0;
; 97   : 	cr3dUnFace = GetSysColor(COLOR_3DFACE);

  00125	6a 0f		 push	 15			; 0000000fH
  00127	c7 86 a0 00 00
	00 15 00 00 00	 mov	 DWORD PTR [esi+160], 21	; 00000015H
  00131	c7 86 fc 00 00
	00 fc 03 00 00	 mov	 DWORD PTR [esi+252], 1020 ; 000003fcH
  0013b	c7 86 30 01 00
	00 00 00 00 00	 mov	 DWORD PTR [esi+304], 0
  00145	c7 86 14 01 00
	00 ff ff ff ff	 mov	 DWORD PTR [esi+276], -1
  0014f	c7 86 18 01 00
	00 ff ff ff ff	 mov	 DWORD PTR [esi+280], -1
  00159	c7 86 34 01 00
	00 00 00 00 00	 mov	 DWORD PTR [esi+308], 0
  00163	c7 86 38 01 00
	00 00 00 00 00	 mov	 DWORD PTR [esi+312], 0
  0016d	c7 86 1c 01 00
	00 00 00 00 00	 mov	 DWORD PTR [esi+284], 0
  00177	c7 86 a4 00 00
	00 04 00 00 00	 mov	 DWORD PTR [esi+164], 4
  00181	c7 86 a8 00 00
	00 03 00 00 00	 mov	 DWORD PTR [esi+168], 3
  0018b	c7 86 ac 00 00
	00 0a 00 00 00	 mov	 DWORD PTR [esi+172], 10	; 0000000aH
  00195	c7 86 b0 00 00
	00 08 00 00 00	 mov	 DWORD PTR [esi+176], 8
  0019f	c7 86 b4 00 00
	00 05 00 00 00	 mov	 DWORD PTR [esi+180], 5
  001a9	c7 86 b8 00 00
	00 05 00 00 00	 mov	 DWORD PTR [esi+184], 5
  001b3	c7 86 bc 00 00
	00 00 00 00 00	 mov	 DWORD PTR [esi+188], 0
  001bd	0f 11 86 d0 00
	00 00		 movups	 XMMWORD PTR [esi+208], xmm0
  001c4	c6 86 e0 00 00
	00 00		 mov	 BYTE PTR [esi+224], 0
  001cb	0f 11 86 c0 00
	00 00		 movups	 XMMWORD PTR [esi+192], xmm0
  001d2	c7 86 20 01 00
	00 ff ff ff ff	 mov	 DWORD PTR [esi+288], -1
  001dc	c6 86 24 01 00
	00 00		 mov	 BYTE PTR [esi+292], 0
  001e3	c7 86 28 01 00
	00 ff ff ff ff	 mov	 DWORD PTR [esi+296], -1
  001ed	c7 86 ec 00 00
	00 0a 00 00 00	 mov	 DWORD PTR [esi+236], 10	; 0000000aH
  001f7	c7 86 f0 00 00
	00 ff ff ff ff	 mov	 DWORD PTR [esi+240], -1
  00201	c7 86 f8 00 00
	00 00 00 00 00	 mov	 DWORD PTR [esi+248], 0
  0020b	c7 86 f4 00 00
	00 00 00 00 00	 mov	 DWORD PTR [esi+244], 0
  00215	c7 86 54 01 00
	00 00 00 00 00	 mov	 DWORD PTR [esi+340], 0
  0021f	c7 86 64 01 00
	00 00 00 00 00	 mov	 DWORD PTR [esi+356], 0
  00229	ff d7		 call	 edi
  0022b	89 86 90 00 00
	00		 mov	 DWORD PTR [esi+144], eax

; 98   : }

  00231	8b c6		 mov	 eax, esi
  00233	8b 4d f4	 mov	 ecx, DWORD PTR __$EHRec$[ebp]
  00236	64 89 0d 00 00
	00 00		 mov	 DWORD PTR fs:0, ecx
  0023d	59		 pop	 ecx
  0023e	5f		 pop	 edi
  0023f	5e		 pop	 esi
  00240	8b e5		 mov	 esp, ebp
  00242	5d		 pop	 ebp
  00243	c3		 ret	 0
_TEXT	ENDS
;	COMDAT text$x
text$x	SEGMENT
__unwindfunclet$??0CSTGfxOutBarCtrl@@QAE@XZ$0:
  00000	8b 4d f0	 mov	 ecx, DWORD PTR _this$[ebp]
  00003	e9 00 00 00 00	 jmp	 ??1CWnd@@UAE@XZ		; CWnd::~CWnd
__unwindfunclet$??0CSTGfxOutBarCtrl@@QAE@XZ$1:
  00008	8b 4d f0	 mov	 ecx, DWORD PTR _this$[ebp]
  0000b	81 c1 00 01 00
	00		 add	 ecx, 256		; 00000100H
  00011	e9 00 00 00 00	 jmp	 ??1CPtrArray@@UAE@XZ	; CPtrArray::~CPtrArray
__unwindfunclet$??0CSTGfxOutBarCtrl@@QAE@XZ$2:
  00016	8b 4d f0	 mov	 ecx, DWORD PTR _this$[ebp]
  00019	81 c1 4c 01 00
	00		 add	 ecx, 332		; 0000014cH
  0001f	e9 00 00 00 00	 jmp	 ??1CFont@@UAE@XZ	; CFont::~CFont
__unwindfunclet$??0CSTGfxOutBarCtrl@@QAE@XZ$3:
  00024	8b 45 ec	 mov	 eax, DWORD PTR $T2[ebp]
  00027	50		 push	 eax
  00028	e8 00 00 00 00	 call	 ??3CObject@@SGXPAX@Z	; CObject::operator delete
  0002d	c3		 ret	 0
  0002e	cc		 int	 3
  0002f	cc		 int	 3
  00030	cc		 int	 3
  00031	cc		 int	 3
  00032	cc		 int	 3
__ehhandler$??0CSTGfxOutBarCtrl@@QAE@XZ:
  00033	90		 npad	 1
  00034	90		 npad	 1
  00035	8b 54 24 08	 mov	 edx, DWORD PTR [esp+8]
  00039	8d 42 0c	 lea	 eax, DWORD PTR [edx+12]
  0003c	8b 4a ec	 mov	 ecx, DWORD PTR [edx-20]
  0003f	33 c8		 xor	 ecx, eax
  00041	e8 00 00 00 00	 call	 @__security_check_cookie@4
  00046	b8 00 00 00 00	 mov	 eax, OFFSET __ehfuncinfo$??0CSTGfxOutBarCtrl@@QAE@XZ
  0004b	e9 00 00 00 00	 jmp	 ___CxxFrameHandler3
text$x	ENDS
??0CSTGfxOutBarCtrl@@QAE@XZ ENDP			; CSTGfxOutBarCtrl::CSTGfxOutBarCtrl
; Function compile flags: /Ogtp
; File D:\git\src\IBK\IBK_DRFN\ProjSrc\SrcDrfn\Chart\Common_ST\STGfxOutBarCtrl.cpp
; File C:\Program Files (x86)\Microsoft Visual Studio\2019\Community\VC\Tools\MSVC\14.29.30133\atlmfc\include\afx.inl
; File D:\git\src\IBK\IBK_DRFN\ProjSrc\SrcDrfn\Chart\Common_ST\STGfxOutBarCtrl.cpp
;	COMDAT ?CreateObject@CSTGfxOutBarCtrl@@SGPAVCObject@@XZ
_TEXT	SEGMENT
$T2 = -16						; size = 4
__$EHRec$ = -12						; size = 12
?CreateObject@CSTGfxOutBarCtrl@@SGPAVCObject@@XZ PROC	; CSTGfxOutBarCtrl::CreateObject, COMDAT

; 27   : IMPLEMENT_DYNCREATE(CSTGfxOutBarCtrl, CWnd)

  00000	55		 push	 ebp
  00001	8b ec		 mov	 ebp, esp
  00003	6a ff		 push	 -1
  00005	68 00 00 00 00	 push	 __ehhandler$?CreateObject@CSTGfxOutBarCtrl@@SGPAVCObject@@XZ
  0000a	64 a1 00 00 00
	00		 mov	 eax, DWORD PTR fs:0
  00010	50		 push	 eax
  00011	51		 push	 ecx
  00012	a1 00 00 00 00	 mov	 eax, DWORD PTR ___security_cookie
  00017	33 c5		 xor	 eax, ebp
  00019	50		 push	 eax
  0001a	8d 45 f4	 lea	 eax, DWORD PTR __$EHRec$[ebp]
  0001d	64 a3 00 00 00
	00		 mov	 DWORD PTR fs:0, eax
; File C:\Program Files (x86)\Microsoft Visual Studio\2019\Community\VC\Tools\MSVC\14.29.30133\atlmfc\include\afx.inl

; 116  : 	{ return ::operator new(nSize); }

  00023	68 68 01 00 00	 push	 360			; 00000168H
  00028	e8 00 00 00 00	 call	 ??2@YAPAXI@Z		; operator new
  0002d	83 c4 04	 add	 esp, 4
; File D:\git\src\IBK\IBK_DRFN\ProjSrc\SrcDrfn\Chart\Common_ST\STGfxOutBarCtrl.cpp

; 27   : IMPLEMENT_DYNCREATE(CSTGfxOutBarCtrl, CWnd)

  00030	89 45 f0	 mov	 DWORD PTR $T2[ebp], eax
  00033	c7 45 fc 00 00
	00 00		 mov	 DWORD PTR __$EHRec$[ebp+8], 0
  0003a	85 c0		 test	 eax, eax
  0003c	74 16		 je	 SHORT $LN3@CreateObje
  0003e	8b c8		 mov	 ecx, eax
  00040	e8 00 00 00 00	 call	 ??0CSTGfxOutBarCtrl@@QAE@XZ ; CSTGfxOutBarCtrl::CSTGfxOutBarCtrl
  00045	8b 4d f4	 mov	 ecx, DWORD PTR __$EHRec$[ebp]
  00048	64 89 0d 00 00
	00 00		 mov	 DWORD PTR fs:0, ecx
  0004f	59		 pop	 ecx
  00050	8b e5		 mov	 esp, ebp
  00052	5d		 pop	 ebp
  00053	c3		 ret	 0
$LN3@CreateObje:
  00054	33 c0		 xor	 eax, eax
  00056	8b 4d f4	 mov	 ecx, DWORD PTR __$EHRec$[ebp]
  00059	64 89 0d 00 00
	00 00		 mov	 DWORD PTR fs:0, ecx
  00060	59		 pop	 ecx
  00061	8b e5		 mov	 esp, ebp
  00063	5d		 pop	 ebp
  00064	c3		 ret	 0
_TEXT	ENDS
;	COMDAT text$x
text$x	SEGMENT
__unwindfunclet$?CreateObject@CSTGfxOutBarCtrl@@SGPAVCObject@@XZ$0:
  00000	8b 45 f0	 mov	 eax, DWORD PTR $T2[ebp]
  00003	50		 push	 eax
  00004	e8 00 00 00 00	 call	 ??3CObject@@SGXPAX@Z	; CObject::operator delete
  00009	c3		 ret	 0
  0000a	cc		 int	 3
  0000b	cc		 int	 3
  0000c	cc		 int	 3
  0000d	cc		 int	 3
  0000e	cc		 int	 3
__ehhandler$?CreateObject@CSTGfxOutBarCtrl@@SGPAVCObject@@XZ:
  0000f	90		 npad	 1
  00010	90		 npad	 1
  00011	8b 54 24 08	 mov	 edx, DWORD PTR [esp+8]
  00015	8d 42 0c	 lea	 eax, DWORD PTR [edx+12]
  00018	8b 4a f8	 mov	 ecx, DWORD PTR [edx-8]
  0001b	33 c8		 xor	 ecx, eax
  0001d	e8 00 00 00 00	 call	 @__security_check_cookie@4
  00022	b8 00 00 00 00	 mov	 eax, OFFSET __ehfuncinfo$?CreateObject@CSTGfxOutBarCtrl@@SGPAVCObject@@XZ
  00027	e9 00 00 00 00	 jmp	 ___CxxFrameHandler3
text$x	ENDS
?CreateObject@CSTGfxOutBarCtrl@@SGPAVCObject@@XZ ENDP	; CSTGfxOutBarCtrl::CreateObject
; Function compile flags: /Ogtp
; File D:\git\src\IBK\IBK_DRFN\ProjSrc\SrcDrfn\Chart\Common_ST\STGfxOutBarCtrl.cpp
;	COMDAT ?GetRuntimeClass@CSTGfxOutBarCtrl@@UBEPAUCRuntimeClass@@XZ
_TEXT	SEGMENT
?GetRuntimeClass@CSTGfxOutBarCtrl@@UBEPAUCRuntimeClass@@XZ PROC ; CSTGfxOutBarCtrl::GetRuntimeClass, COMDAT
; _this$ = ecx

; 27   : IMPLEMENT_DYNCREATE(CSTGfxOutBarCtrl, CWnd)

  00000	b8 00 00 00 00	 mov	 eax, OFFSET ?classCSTGfxOutBarCtrl@CSTGfxOutBarCtrl@@2UCRuntimeClass@@B ; CSTGfxOutBarCtrl::classCSTGfxOutBarCtrl
  00005	c3		 ret	 0
?GetRuntimeClass@CSTGfxOutBarCtrl@@UBEPAUCRuntimeClass@@XZ ENDP ; CSTGfxOutBarCtrl::GetRuntimeClass
_TEXT	ENDS
; Function compile flags: /Ogtp
; File D:\git\src\IBK\IBK_DRFN\ProjSrc\SrcDrfn\Chart\Common_ST\STGfxOutBarCtrl.cpp
;	COMDAT ?GetThisClass@CSTGfxOutBarCtrl@@SGPAUCRuntimeClass@@XZ
_TEXT	SEGMENT
?GetThisClass@CSTGfxOutBarCtrl@@SGPAUCRuntimeClass@@XZ PROC ; CSTGfxOutBarCtrl::GetThisClass, COMDAT

; 27   : IMPLEMENT_DYNCREATE(CSTGfxOutBarCtrl, CWnd)

  00000	b8 00 00 00 00	 mov	 eax, OFFSET ?classCSTGfxOutBarCtrl@CSTGfxOutBarCtrl@@2UCRuntimeClass@@B ; CSTGfxOutBarCtrl::classCSTGfxOutBarCtrl
  00005	c3		 ret	 0
?GetThisClass@CSTGfxOutBarCtrl@@SGPAUCRuntimeClass@@XZ ENDP ; CSTGfxOutBarCtrl::GetThisClass
_TEXT	ENDS
; Function compile flags: /Ogtp
; File D:\git\src\IBK\IBK_DRFN\ProjSrc\SrcDrfn\Chart\Common_ST\STGfxOutBarCtrl.cpp
;	COMDAT ?_GetBaseClass@CSTGfxOutBarCtrl@@KGPAUCRuntimeClass@@XZ
_TEXT	SEGMENT
?_GetBaseClass@CSTGfxOutBarCtrl@@KGPAUCRuntimeClass@@XZ PROC ; CSTGfxOutBarCtrl::_GetBaseClass, COMDAT

; 27   : IMPLEMENT_DYNCREATE(CSTGfxOutBarCtrl, CWnd)

  00000	e9 00 00 00 00	 jmp	 ?GetThisClass@CWnd@@SGPAUCRuntimeClass@@XZ ; CWnd::GetThisClass
?_GetBaseClass@CSTGfxOutBarCtrl@@KGPAUCRuntimeClass@@XZ ENDP ; CSTGfxOutBarCtrl::_GetBaseClass
_TEXT	ENDS
; Function compile flags: /Ogtp
; File C:\Program Files (x86)\Microsoft Visual Studio\2019\Community\VC\Tools\MSVC\14.29.30133\atlmfc\include\afxwin2.inl
;	COMDAT ?EndModalState@CWnd@@UAEXXZ
_TEXT	SEGMENT
?EndModalState@CWnd@@UAEXXZ PROC			; CWnd::EndModalState, COMDAT
; _this$ = ecx

; 567  : 	{ ::EnableWindow(m_hWnd, TRUE); }

  00000	6a 01		 push	 1
  00002	ff 71 20	 push	 DWORD PTR [ecx+32]
  00005	ff 15 00 00 00
	00		 call	 DWORD PTR __imp__EnableWindow@8
  0000b	c3		 ret	 0
?EndModalState@CWnd@@UAEXXZ ENDP			; CWnd::EndModalState
_TEXT	ENDS
; Function compile flags: /Ogtp
; File C:\Program Files (x86)\Microsoft Visual Studio\2019\Community\VC\Tools\MSVC\14.29.30133\atlmfc\include\afxwin2.inl
;	COMDAT ?BeginModalState@CWnd@@UAEXXZ
_TEXT	SEGMENT
?BeginModalState@CWnd@@UAEXXZ PROC			; CWnd::BeginModalState, COMDAT
; _this$ = ecx

; 565  : 	{ ::EnableWindow(m_hWnd, FALSE); }

  00000	6a 00		 push	 0
  00002	ff 71 20	 push	 DWORD PTR [ecx+32]
  00005	ff 15 00 00 00
	00		 call	 DWORD PTR __imp__EnableWindow@8
  0000b	c3		 ret	 0
?BeginModalState@CWnd@@UAEXXZ ENDP			; CWnd::BeginModalState
_TEXT	ENDS
; Function compile flags: /Ogtp
; File C:\Program Files (x86)\Microsoft Visual Studio\2019\Community\VC\Tools\MSVC\14.29.30133\atlmfc\include\afxwin2.inl
;	COMDAT ?DoDataExchange@CWnd@@MAEXPAVCDataExchange@@@Z
_TEXT	SEGMENT
___formal$ = 8						; size = 4
?DoDataExchange@CWnd@@MAEXPAVCDataExchange@@@Z PROC	; CWnd::DoDataExchange, COMDAT
; _this$ = ecx

; 561  : 	{ } // default does nothing

  00000	c2 04 00	 ret	 4
?DoDataExchange@CWnd@@MAEXPAVCDataExchange@@@Z ENDP	; CWnd::DoDataExchange
_TEXT	ENDS
; Function compile flags: /Ogtp
; File C:\Program Files (x86)\Microsoft Visual Studio\2019\Community\VC\Tools\MSVC\14.29.30133\atlmfc\include\afxwin1.inl
;	COMDAT ?DrawTextA@CDC@@UAEHPBDHPAUtagRECT@@I@Z
_TEXT	SEGMENT
_lpszString$ = 8					; size = 4
_nCount$ = 12						; size = 4
_lpRect$ = 16						; size = 4
_nFormat$ = 20						; size = 4
?DrawTextA@CDC@@UAEHPBDHPAUtagRECT@@I@Z PROC		; CDC::DrawTextA, COMDAT
; _this$ = ecx

; 593  : 	{ ASSERT(m_hDC != NULL);

  00000	55		 push	 ebp
  00001	8b ec		 mov	 ebp, esp

; 594  : 		return ::DrawText(m_hDC, lpszString, nCount, lpRect, nFormat); }

  00003	ff 75 14	 push	 DWORD PTR _nFormat$[ebp]
  00006	ff 75 10	 push	 DWORD PTR _lpRect$[ebp]
  00009	ff 75 0c	 push	 DWORD PTR _nCount$[ebp]
  0000c	ff 75 08	 push	 DWORD PTR _lpszString$[ebp]
  0000f	ff 71 04	 push	 DWORD PTR [ecx+4]
  00012	ff 15 00 00 00
	00		 call	 DWORD PTR __imp__DrawTextA@20
  00018	5d		 pop	 ebp
  00019	c2 10 00	 ret	 16			; 00000010H
?DrawTextA@CDC@@UAEHPBDHPAUtagRECT@@I@Z ENDP		; CDC::DrawTextA
_TEXT	ENDS
; Function compile flags: /Ogtp
; File C:\Program Files (x86)\Microsoft Visual Studio\2019\Community\VC\Tools\MSVC\14.29.30133\atlmfc\include\afxwin1.inl
; File C:\Program Files (x86)\Microsoft Visual Studio\2019\Community\VC\Tools\MSVC\14.29.30133\atlmfc\include\afx.inl
;	COMDAT ??_GCRgn@@UAEPAXI@Z
_TEXT	SEGMENT
___flags$ = 8						; size = 4
??_GCRgn@@UAEPAXI@Z PROC				; CRgn::`scalar deleting destructor', COMDAT
; _this$ = ecx
  00000	55		 push	 ebp
  00001	8b ec		 mov	 ebp, esp
; File C:\Program Files (x86)\Microsoft Visual Studio\2019\Community\VC\Tools\MSVC\14.29.30133\atlmfc\include\afxwin1.inl

; 266  : 	{ }

  00003	56		 push	 esi
  00004	8b f1		 mov	 esi, ecx
  00006	c7 06 00 00 00
	00		 mov	 DWORD PTR [esi], OFFSET ??_7CRgn@@6B@
  0000c	e8 00 00 00 00	 call	 ??1CGdiObject@@UAE@XZ	; CGdiObject::~CGdiObject
  00011	8b 45 08	 mov	 eax, DWORD PTR ___flags$[ebp]
  00014	a8 01		 test	 al, 1
  00016	74 1f		 je	 SHORT $LN12@scalar
  00018	a8 04		 test	 al, 4
  0001a	75 10		 jne	 SHORT $LN3@scalar
; File C:\Program Files (x86)\Microsoft Visual Studio\2019\Community\VC\Tools\MSVC\14.29.30133\atlmfc\include\afx.inl

; 112  : 	{ ::operator delete(p); }

  0001c	56		 push	 esi
  0001d	e8 00 00 00 00	 call	 ??3@YAXPAX@Z		; operator delete
  00022	83 c4 04	 add	 esp, 4
  00025	8b c6		 mov	 eax, esi
  00027	5e		 pop	 esi
  00028	5d		 pop	 ebp
  00029	c2 04 00	 ret	 4
$LN3@scalar:
  0002c	6a 08		 push	 8
  0002e	56		 push	 esi
  0002f	e8 00 00 00 00	 call	 ?__global_delete@@YAXPAXI@Z ; __global_delete
  00034	83 c4 08	 add	 esp, 8
$LN12@scalar:
  00037	8b c6		 mov	 eax, esi
  00039	5e		 pop	 esi
  0003a	5d		 pop	 ebp
  0003b	c2 04 00	 ret	 4
??_GCRgn@@UAEPAXI@Z ENDP				; CRgn::`scalar deleting destructor'
_TEXT	ENDS
; Function compile flags: /Ogtp
; File C:\Program Files (x86)\Microsoft Visual Studio\2019\Community\VC\Tools\MSVC\14.29.30133\atlmfc\include\afxwin1.inl
;	COMDAT ??1CRgn@@UAE@XZ
_TEXT	SEGMENT
??1CRgn@@UAE@XZ PROC					; CRgn::~CRgn, COMDAT
; _this$ = ecx

; 266  : 	{ }

  00000	c7 01 00 00 00
	00		 mov	 DWORD PTR [ecx], OFFSET ??_7CRgn@@6B@
  00006	e9 00 00 00 00	 jmp	 ??1CGdiObject@@UAE@XZ	; CGdiObject::~CGdiObject
??1CRgn@@UAE@XZ ENDP					; CRgn::~CRgn
_TEXT	ENDS
; Function compile flags: /Ogtp
; File C:\Program Files (x86)\Microsoft Visual Studio\2019\Community\VC\Tools\MSVC\14.29.30133\atlmfc\include\afxwin1.inl
; File C:\Program Files (x86)\Microsoft Visual Studio\2019\Community\VC\Tools\MSVC\14.29.30133\atlmfc\include\afx.inl
;	COMDAT ??_GCBitmap@@UAEPAXI@Z
_TEXT	SEGMENT
___flags$ = 8						; size = 4
??_GCBitmap@@UAEPAXI@Z PROC				; CBitmap::`scalar deleting destructor', COMDAT
; _this$ = ecx
  00000	55		 push	 ebp
  00001	8b ec		 mov	 ebp, esp
; File C:\Program Files (x86)\Microsoft Visual Studio\2019\Community\VC\Tools\MSVC\14.29.30133\atlmfc\include\afxwin1.inl

; 179  : 	{ }

  00003	56		 push	 esi
  00004	8b f1		 mov	 esi, ecx
  00006	c7 06 00 00 00
	00		 mov	 DWORD PTR [esi], OFFSET ??_7CBitmap@@6B@
  0000c	e8 00 00 00 00	 call	 ??1CGdiObject@@UAE@XZ	; CGdiObject::~CGdiObject
  00011	8b 45 08	 mov	 eax, DWORD PTR ___flags$[ebp]
  00014	a8 01		 test	 al, 1
  00016	74 1f		 je	 SHORT $LN12@scalar
  00018	a8 04		 test	 al, 4
  0001a	75 10		 jne	 SHORT $LN3@scalar
; File C:\Program Files (x86)\Microsoft Visual Studio\2019\Community\VC\Tools\MSVC\14.29.30133\atlmfc\include\afx.inl

; 112  : 	{ ::operator delete(p); }

  0001c	56		 push	 esi
  0001d	e8 00 00 00 00	 call	 ??3@YAXPAX@Z		; operator delete
  00022	83 c4 04	 add	 esp, 4
  00025	8b c6		 mov	 eax, esi
  00027	5e		 pop	 esi
  00028	5d		 pop	 ebp
  00029	c2 04 00	 ret	 4
$LN3@scalar:
  0002c	6a 08		 push	 8
  0002e	56		 push	 esi
  0002f	e8 00 00 00 00	 call	 ?__global_delete@@YAXPAXI@Z ; __global_delete
  00034	83 c4 08	 add	 esp, 8
$LN12@scalar:
  00037	8b c6		 mov	 eax, esi
  00039	5e		 pop	 esi
  0003a	5d		 pop	 ebp
  0003b	c2 04 00	 ret	 4
??_GCBitmap@@UAEPAXI@Z ENDP				; CBitmap::`scalar deleting destructor'
_TEXT	ENDS
; Function compile flags: /Ogtp
; File C:\Program Files (x86)\Microsoft Visual Studio\2019\Community\VC\Tools\MSVC\14.29.30133\atlmfc\include\afxwin1.inl
;	COMDAT ??1CBitmap@@UAE@XZ
_TEXT	SEGMENT
??1CBitmap@@UAE@XZ PROC					; CBitmap::~CBitmap, COMDAT
; _this$ = ecx

; 179  : 	{ }

  00000	c7 01 00 00 00
	00		 mov	 DWORD PTR [ecx], OFFSET ??_7CBitmap@@6B@
  00006	e9 00 00 00 00	 jmp	 ??1CGdiObject@@UAE@XZ	; CGdiObject::~CGdiObject
??1CBitmap@@UAE@XZ ENDP					; CBitmap::~CBitmap
_TEXT	ENDS
; Function compile flags: /Ogtp
; File C:\Program Files (x86)\Microsoft Visual Studio\2019\Community\VC\Tools\MSVC\14.29.30133\atlmfc\include\afxwin1.inl
; File C:\Program Files (x86)\Microsoft Visual Studio\2019\Community\VC\Tools\MSVC\14.29.30133\atlmfc\include\afx.inl
;	COMDAT ??_GCFont@@UAEPAXI@Z
_TEXT	SEGMENT
___flags$ = 8						; size = 4
??_GCFont@@UAEPAXI@Z PROC				; CFont::`scalar deleting destructor', COMDAT
; _this$ = ecx
  00000	55		 push	 ebp
  00001	8b ec		 mov	 ebp, esp
; File C:\Program Files (x86)\Microsoft Visual Studio\2019\Community\VC\Tools\MSVC\14.29.30133\atlmfc\include\afxwin1.inl

; 155  : 	{ }

  00003	56		 push	 esi
  00004	8b f1		 mov	 esi, ecx
  00006	c7 06 00 00 00
	00		 mov	 DWORD PTR [esi], OFFSET ??_7CFont@@6B@
  0000c	e8 00 00 00 00	 call	 ??1CGdiObject@@UAE@XZ	; CGdiObject::~CGdiObject
  00011	8b 45 08	 mov	 eax, DWORD PTR ___flags$[ebp]
  00014	a8 01		 test	 al, 1
  00016	74 1f		 je	 SHORT $LN12@scalar
  00018	a8 04		 test	 al, 4
  0001a	75 10		 jne	 SHORT $LN3@scalar
; File C:\Program Files (x86)\Microsoft Visual Studio\2019\Community\VC\Tools\MSVC\14.29.30133\atlmfc\include\afx.inl

; 112  : 	{ ::operator delete(p); }

  0001c	56		 push	 esi
  0001d	e8 00 00 00 00	 call	 ??3@YAXPAX@Z		; operator delete
  00022	83 c4 04	 add	 esp, 4
  00025	8b c6		 mov	 eax, esi
  00027	5e		 pop	 esi
  00028	5d		 pop	 ebp
  00029	c2 04 00	 ret	 4
$LN3@scalar:
  0002c	6a 08		 push	 8
  0002e	56		 push	 esi
  0002f	e8 00 00 00 00	 call	 ?__global_delete@@YAXPAXI@Z ; __global_delete
  00034	83 c4 08	 add	 esp, 8
$LN12@scalar:
  00037	8b c6		 mov	 eax, esi
  00039	5e		 pop	 esi
  0003a	5d		 pop	 ebp
  0003b	c2 04 00	 ret	 4
??_GCFont@@UAEPAXI@Z ENDP				; CFont::`scalar deleting destructor'
_TEXT	ENDS
; Function compile flags: /Ogtp
; File C:\Program Files (x86)\Microsoft Visual Studio\2019\Community\VC\Tools\MSVC\14.29.30133\atlmfc\include\afxwin1.inl
;	COMDAT ??1CFont@@UAE@XZ
_TEXT	SEGMENT
??1CFont@@UAE@XZ PROC					; CFont::~CFont, COMDAT
; _this$ = ecx

; 155  : 	{ }

  00000	c7 01 00 00 00
	00		 mov	 DWORD PTR [ecx], OFFSET ??_7CFont@@6B@
  00006	e9 00 00 00 00	 jmp	 ??1CGdiObject@@UAE@XZ	; CGdiObject::~CGdiObject
??1CFont@@UAE@XZ ENDP					; CFont::~CFont
_TEXT	ENDS
; Function compile flags: /Ogtp
; File C:\Program Files (x86)\Microsoft Visual Studio\2019\Community\VC\Tools\MSVC\14.29.30133\atlmfc\include\afxwin1.inl
; File C:\Program Files (x86)\Microsoft Visual Studio\2019\Community\VC\Tools\MSVC\14.29.30133\atlmfc\include\afx.inl
;	COMDAT ??_GCPen@@UAEPAXI@Z
_TEXT	SEGMENT
___flags$ = 8						; size = 4
??_GCPen@@UAEPAXI@Z PROC				; CPen::`scalar deleting destructor', COMDAT
; _this$ = ecx
  00000	55		 push	 ebp
  00001	8b ec		 mov	 ebp, esp
; File C:\Program Files (x86)\Microsoft Visual Studio\2019\Community\VC\Tools\MSVC\14.29.30133\atlmfc\include\afxwin1.inl

; 106  : 	{ }

  00003	56		 push	 esi
  00004	8b f1		 mov	 esi, ecx
  00006	c7 06 00 00 00
	00		 mov	 DWORD PTR [esi], OFFSET ??_7CPen@@6B@
  0000c	e8 00 00 00 00	 call	 ??1CGdiObject@@UAE@XZ	; CGdiObject::~CGdiObject
  00011	8b 45 08	 mov	 eax, DWORD PTR ___flags$[ebp]
  00014	a8 01		 test	 al, 1
  00016	74 1f		 je	 SHORT $LN12@scalar
  00018	a8 04		 test	 al, 4
  0001a	75 10		 jne	 SHORT $LN3@scalar
; File C:\Program Files (x86)\Microsoft Visual Studio\2019\Community\VC\Tools\MSVC\14.29.30133\atlmfc\include\afx.inl

; 112  : 	{ ::operator delete(p); }

  0001c	56		 push	 esi
  0001d	e8 00 00 00 00	 call	 ??3@YAXPAX@Z		; operator delete
  00022	83 c4 04	 add	 esp, 4
  00025	8b c6		 mov	 eax, esi
  00027	5e		 pop	 esi
  00028	5d		 pop	 ebp
  00029	c2 04 00	 ret	 4
$LN3@scalar:
  0002c	6a 08		 push	 8
  0002e	56		 push	 esi
  0002f	e8 00 00 00 00	 call	 ?__global_delete@@YAXPAXI@Z ; __global_delete
  00034	83 c4 08	 add	 esp, 8
$LN12@scalar:
  00037	8b c6		 mov	 eax, esi
  00039	5e		 pop	 esi
  0003a	5d		 pop	 ebp
  0003b	c2 04 00	 ret	 4
??_GCPen@@UAEPAXI@Z ENDP				; CPen::`scalar deleting destructor'
_TEXT	ENDS
; Function compile flags: /Ogtp
; File C:\Program Files (x86)\Microsoft Visual Studio\2019\Community\VC\Tools\MSVC\14.29.30133\atlmfc\include\afxwin1.inl
;	COMDAT ??1CPen@@UAE@XZ
_TEXT	SEGMENT
??1CPen@@UAE@XZ PROC					; CPen::~CPen, COMDAT
; _this$ = ecx

; 106  : 	{ }

  00000	c7 01 00 00 00
	00		 mov	 DWORD PTR [ecx], OFFSET ??_7CPen@@6B@
  00006	e9 00 00 00 00	 jmp	 ??1CGdiObject@@UAE@XZ	; CGdiObject::~CGdiObject
??1CPen@@UAE@XZ ENDP					; CPen::~CPen
_TEXT	ENDS
; Function compile flags: /Ogtp
; File C:\Program Files (x86)\Microsoft Visual Studio\2019\Community\VC\Tools\MSVC\14.29.30133\atlmfc\include\afx.inl
;	COMDAT ??_GCGdiObject@@UAEPAXI@Z
_TEXT	SEGMENT
___flags$ = 8						; size = 4
??_GCGdiObject@@UAEPAXI@Z PROC				; CGdiObject::`scalar deleting destructor', COMDAT
; _this$ = ecx
  00000	55		 push	 ebp
  00001	8b ec		 mov	 ebp, esp
  00003	56		 push	 esi
  00004	8b f1		 mov	 esi, ecx
  00006	e8 00 00 00 00	 call	 ??1CGdiObject@@UAE@XZ	; CGdiObject::~CGdiObject
  0000b	8b 45 08	 mov	 eax, DWORD PTR ___flags$[ebp]
  0000e	a8 01		 test	 al, 1
  00010	74 1f		 je	 SHORT $LN9@scalar
  00012	a8 04		 test	 al, 4
  00014	75 10		 jne	 SHORT $LN3@scalar

; 112  : 	{ ::operator delete(p); }

  00016	56		 push	 esi
  00017	e8 00 00 00 00	 call	 ??3@YAXPAX@Z		; operator delete
  0001c	83 c4 04	 add	 esp, 4
  0001f	8b c6		 mov	 eax, esi
  00021	5e		 pop	 esi
  00022	5d		 pop	 ebp
  00023	c2 04 00	 ret	 4
$LN3@scalar:
  00026	6a 08		 push	 8
  00028	56		 push	 esi
  00029	e8 00 00 00 00	 call	 ?__global_delete@@YAXPAXI@Z ; __global_delete
  0002e	83 c4 08	 add	 esp, 8
$LN9@scalar:
  00031	8b c6		 mov	 eax, esi
  00033	5e		 pop	 esi
  00034	5d		 pop	 ebp
  00035	c2 04 00	 ret	 4
??_GCGdiObject@@UAEPAXI@Z ENDP				; CGdiObject::`scalar deleting destructor'
_TEXT	ENDS
; Function compile flags: /Ogtp
; File C:\Program Files (x86)\Microsoft Visual Studio\2019\Community\VC\Tools\MSVC\14.29.30133\atlmfc\include\afxwin1.inl
;	COMDAT ??1CGdiObject@@UAE@XZ
_TEXT	SEGMENT
_pException$2 = -540					; size = 4
_strMsg$3 = -536					; size = 4
_szErrorMessage$4 = -532				; size = 512
__$ArrayPad$ = -20					; size = 4
__$EHRec$ = -16						; size = 16
??1CGdiObject@@UAE@XZ PROC				; CGdiObject::~CGdiObject, COMDAT
; _this$ = ecx

; 74   : {

  00000	55		 push	 ebp
  00001	8b ec		 mov	 ebp, esp
  00003	6a ff		 push	 -1
  00005	68 00 00 00 00	 push	 __ehhandler$??1CGdiObject@@UAE@XZ
  0000a	64 a1 00 00 00
	00		 mov	 eax, DWORD PTR fs:0
  00010	50		 push	 eax
  00011	81 ec 10 02 00
	00		 sub	 esp, 528		; 00000210H
  00017	a1 00 00 00 00	 mov	 eax, DWORD PTR ___security_cookie
  0001c	33 c5		 xor	 eax, ebp
  0001e	89 45 ec	 mov	 DWORD PTR __$ArrayPad$[ebp], eax
  00021	53		 push	 ebx
  00022	56		 push	 esi
  00023	57		 push	 edi
  00024	50		 push	 eax
  00025	8d 45 f4	 lea	 eax, DWORD PTR __$EHRec$[ebp+4]
  00028	64 a3 00 00 00
	00		 mov	 DWORD PTR fs:0, eax
  0002e	89 65 f0	 mov	 DWORD PTR __$EHRec$[ebp], esp
  00031	c7 01 00 00 00
	00		 mov	 DWORD PTR [ecx], OFFSET ??_7CGdiObject@@6B@

; 75   : 	AFX_BEGIN_DESTRUCTOR

  00037	c7 45 fc 00 00
	00 00		 mov	 DWORD PTR __$EHRec$[ebp+12], 0

; 76   : 	DeleteObject();

  0003e	e8 00 00 00 00	 call	 ?DeleteObject@CGdiObject@@QAEHXZ ; CGdiObject::DeleteObject
$LN18@CGdiObject:

; 78   : }

  00043	8b 4d f4	 mov	 ecx, DWORD PTR __$EHRec$[ebp+4]
  00046	64 89 0d 00 00
	00 00		 mov	 DWORD PTR fs:0, ecx
  0004d	59		 pop	 ecx
  0004e	5f		 pop	 edi
  0004f	5e		 pop	 esi
  00050	5b		 pop	 ebx
  00051	8b 4d ec	 mov	 ecx, DWORD PTR __$ArrayPad$[ebp]
  00054	33 cd		 xor	 ecx, ebp
  00056	e8 00 00 00 00	 call	 @__security_check_cookie@4
  0005b	8b e5		 mov	 esp, ebp
  0005d	5d		 pop	 ebp
  0005e	c3		 ret	 0
__catch$??1CGdiObject@@UAE@XZ$0:

; 77   : 	AFX_END_DESTRUCTOR

  0005f	8d 8d e8 fd ff
	ff		 lea	 ecx, DWORD PTR _strMsg$3[ebp]
  00065	ff 15 00 00 00
	00		 call	 DWORD PTR __imp_??0?$CStringT@DV?$StrTraitMFC_DLL@DV?$ChTraitsCRT@D@ATL@@@@@ATL@@QAE@XZ
  0006b	8b b5 e4 fd ff
	ff		 mov	 esi, DWORD PTR _pException$2[ebp]
  00071	8d 8d ec fd ff
	ff		 lea	 ecx, DWORD PTR _szErrorMessage$4[ebp]
  00077	6a 00		 push	 0
  00079	68 00 02 00 00	 push	 512			; 00000200H
  0007e	51		 push	 ecx
  0007f	8b 06		 mov	 eax, DWORD PTR [esi]
  00081	8b ce		 mov	 ecx, esi
  00083	c6 45 fc 02	 mov	 BYTE PTR __$EHRec$[ebp+12], 2
  00087	ff 50 14	 call	 DWORD PTR [eax+20]
  0008a	85 c0		 test	 eax, eax
  0008c	74 2a		 je	 SHORT $LN9@CGdiObject
  0008e	8d 85 ec fd ff
	ff		 lea	 eax, DWORD PTR _szErrorMessage$4[ebp]
  00094	50		 push	 eax
  00095	6a 4d		 push	 77			; 0000004dH
  00097	68 00 00 00 00	 push	 OFFSET ??_C@_0HD@JJCHHHNK@C?3?2Program?5Files?5?$CIx86?$CJ?2Microsof@
  0009c	68 00 00 00 00	 push	 OFFSET ??_C@_0BP@OIEOKIDM@Exception?5thrown?5in?5destructor@
  000a1	8d 85 e8 fd ff
	ff		 lea	 eax, DWORD PTR _strMsg$3[ebp]
  000a7	68 00 00 00 00	 push	 OFFSET ??_C@_0BB@HBOOMJBF@?$CFTs?5?$CI?$CFTs?3?$CFd?$CJ?6?$CFTs@
  000ac	50		 push	 eax
  000ad	ff 15 00 00 00
	00		 call	 DWORD PTR __imp_?Format@?$CStringT@DV?$StrTraitMFC_DLL@DV?$ChTraitsCRT@D@ATL@@@@@ATL@@QAAXPBDZZ
  000b3	83 c4 18	 add	 esp, 24			; 00000018H
  000b6	eb 21		 jmp	 SHORT $LN10@CGdiObject
$LN9@CGdiObject:
  000b8	6a 4d		 push	 77			; 0000004dH
  000ba	68 00 00 00 00	 push	 OFFSET ??_C@_0HD@JJCHHHNK@C?3?2Program?5Files?5?$CIx86?$CJ?2Microsof@
  000bf	68 00 00 00 00	 push	 OFFSET ??_C@_0BP@OIEOKIDM@Exception?5thrown?5in?5destructor@
  000c4	8d 85 e8 fd ff
	ff		 lea	 eax, DWORD PTR _strMsg$3[ebp]
  000ca	68 00 00 00 00	 push	 OFFSET ??_C@_0N@OMEMOKLE@?$CFTs?5?$CI?$CFTs?3?$CFd?$CJ@
  000cf	50		 push	 eax
  000d0	ff 15 00 00 00
	00		 call	 DWORD PTR __imp_?Format@?$CStringT@DV?$StrTraitMFC_DLL@DV?$ChTraitsCRT@D@ATL@@@@@ATL@@QAAXPBDZZ
  000d6	83 c4 14	 add	 esp, 20			; 00000014H
$LN10@CGdiObject:
  000d9	6a 00		 push	 0
  000db	6a 00		 push	 0
  000dd	ff b5 e8 fd ff
	ff		 push	 DWORD PTR _strMsg$3[ebp]
  000e3	e8 00 00 00 00	 call	 ?AfxMessageBox@@YGHPBDII@Z ; AfxMessageBox
  000e8	8d 8d e8 fd ff
	ff		 lea	 ecx, DWORD PTR _strMsg$3[ebp]
  000ee	ff 15 00 00 00
	00		 call	 DWORD PTR __imp_??1?$CStringT@DV?$StrTraitMFC_DLL@DV?$ChTraitsCRT@D@ATL@@@@@ATL@@QAE@XZ
  000f4	8b 06		 mov	 eax, DWORD PTR [esi]
  000f6	8b ce		 mov	 ecx, esi
  000f8	6a 01		 push	 1
  000fa	ff 50 04	 call	 DWORD PTR [eax+4]
  000fd	b8 00 00 00 00	 mov	 eax, $LN18@CGdiObject
  00102	c3		 ret	 0
_TEXT	ENDS
;	COMDAT text$x
text$x	SEGMENT
__unwindfunclet$??1CGdiObject@@UAE@XZ$2:
  00000	8d 8d e8 fd ff
	ff		 lea	 ecx, DWORD PTR _strMsg$3[ebp]
  00006	ff 25 00 00 00
	00		 jmp	 DWORD PTR __imp_??1?$CStringT@DV?$StrTraitMFC_DLL@DV?$ChTraitsCRT@D@ATL@@@@@ATL@@QAE@XZ
  0000c	cc		 int	 3
  0000d	cc		 int	 3
  0000e	cc		 int	 3
  0000f	cc		 int	 3
  00010	cc		 int	 3
__ehhandler$??1CGdiObject@@UAE@XZ:
  00011	90		 npad	 1
  00012	90		 npad	 1
  00013	8b 54 24 08	 mov	 edx, DWORD PTR [esp+8]
  00017	8d 42 0c	 lea	 eax, DWORD PTR [edx+12]
  0001a	8b 8a e0 fd ff
	ff		 mov	 ecx, DWORD PTR [edx-544]
  00020	33 c8		 xor	 ecx, eax
  00022	e8 00 00 00 00	 call	 @__security_check_cookie@4
  00027	8b 4a f8	 mov	 ecx, DWORD PTR [edx-8]
  0002a	33 c8		 xor	 ecx, eax
  0002c	e8 00 00 00 00	 call	 @__security_check_cookie@4
  00031	b8 00 00 00 00	 mov	 eax, OFFSET __ehfuncinfo$??1CGdiObject@@UAE@XZ
  00036	e9 00 00 00 00	 jmp	 ___CxxFrameHandler3
text$x	ENDS
??1CGdiObject@@UAE@XZ ENDP				; CGdiObject::~CGdiObject
; Function compile flags: /Ogtp
; File C:\Program Files (x86)\Microsoft Visual Studio\2019\Community\VC\Tools\MSVC\14.29.30133\atlmfc\include\afx.inl
;	COMDAT ?Dump@CObject@@UBEXAAVCDumpContext@@@Z
_TEXT	SEGMENT
___formal$ = 8						; size = 4
?Dump@CObject@@UBEXAAVCDumpContext@@@Z PROC		; CObject::Dump, COMDAT
; _this$ = ecx

; 122  : 	{ /* no dumping in release builds */ }

  00000	c2 04 00	 ret	 4
?Dump@CObject@@UBEXAAVCDumpContext@@@Z ENDP		; CObject::Dump
_TEXT	ENDS
; Function compile flags: /Ogtp
; File C:\Program Files (x86)\Microsoft Visual Studio\2019\Community\VC\Tools\MSVC\14.29.30133\atlmfc\include\afx.inl
;	COMDAT ?AssertValid@CObject@@UBEXXZ
_TEXT	SEGMENT
?AssertValid@CObject@@UBEXXZ PROC			; CObject::AssertValid, COMDAT
; _this$ = ecx

; 120  : 	{ /* no asserts in release builds */ }

  00000	c2 00 00	 ret	 0
?AssertValid@CObject@@UBEXXZ ENDP			; CObject::AssertValid
_TEXT	ENDS
; Function compile flags: /Ogtp
; File C:\Program Files (x86)\Microsoft Visual Studio\2019\Community\VC\Tools\MSVC\14.29.30133\atlmfc\include\afx.inl
;	COMDAT ?Serialize@CObject@@UAEXAAVCArchive@@@Z
_TEXT	SEGMENT
___formal$ = 8						; size = 4
?Serialize@CObject@@UAEXAAVCArchive@@@Z PROC		; CObject::Serialize, COMDAT
; _this$ = ecx

; 106  : 	{ /* CObject does not serialize anything by default */ }

  00000	c2 04 00	 ret	 4
?Serialize@CObject@@UAEXAAVCArchive@@@Z ENDP		; CObject::Serialize
_TEXT	ENDS
; Function compile flags: /Ogtp
; File C:\Program Files (x86)\Microsoft Visual Studio\2019\Community\VC\Tools\MSVC\14.29.30133\atlmfc\include\afx.inl
;	COMDAT ??3CObject@@SGXPAX@Z
_TEXT	SEGMENT
_p$ = 8							; size = 4
??3CObject@@SGXPAX@Z PROC				; CObject::operator delete, COMDAT

; 112  : 	{ ::operator delete(p); }

  00000	55		 push	 ebp
  00001	8b ec		 mov	 ebp, esp
  00003	ff 75 08	 push	 DWORD PTR _p$[ebp]
  00006	e8 00 00 00 00	 call	 ??3@YAXPAX@Z		; operator delete
  0000b	83 c4 04	 add	 esp, 4
  0000e	5d		 pop	 ebp
  0000f	c2 04 00	 ret	 4
??3CObject@@SGXPAX@Z ENDP				; CObject::operator delete
_TEXT	ENDS
; Function compile flags: /Ogtp
; File C:\Program Files (x86)\Microsoft Visual Studio\2019\Community\VC\Tools\MSVC\14.29.30133\atlmfc\include\afx.inl
;	COMDAT ??1CObject@@UAE@XZ
_TEXT	SEGMENT
??1CObject@@UAE@XZ PROC					; CObject::~CObject, COMDAT
; _this$ = ecx

; 104  : 	{ }

  00000	c2 00 00	 ret	 0
??1CObject@@UAE@XZ ENDP					; CObject::~CObject
_TEXT	ENDS
; Function compile flags: /Ogtp
; File D:\git\src\IBK\IBK_DRFN\ProjSrc\SrcDrfn\Chart\Common_ST\STGfxOutBarCtrl.cpp
;	COMDAT ?__empty_global_delete@@YAXPAXI@Z
_TEXT	SEGMENT
___formal$ = 8						; size = 4
___formal$ = 12						; size = 4
?__empty_global_delete@@YAXPAXI@Z PROC			; __empty_global_delete, COMDAT

  00000	c2 00 00	 ret	 0
?__empty_global_delete@@YAXPAXI@Z ENDP			; __empty_global_delete
_TEXT	ENDS
; Function compile flags: /Ogtp
; File D:\git\src\IBK\IBK_DRFN\ProjSrc\SrcDrfn\Chart\Common_ST\STGfxOutBarCtrl.cpp
;	COMDAT ?__empty_global_delete@@YAXPAX@Z
_TEXT	SEGMENT
___formal$ = 8						; size = 4
?__empty_global_delete@@YAXPAX@Z PROC			; __empty_global_delete, COMDAT

  00000	c2 00 00	 ret	 0
?__empty_global_delete@@YAXPAX@Z ENDP			; __empty_global_delete
_TEXT	ENDS
END
