; Listing generated by Microsoft (R) Optimizing Compiler Version 19.29.30145.0 

	TITLE	D:\git\src\IBK\IBK_DRFN\#DRfn-CS\_Obj\IndexOptimizer\XTabCtrl.obj
	.686P
	.XMM
	include listing.inc
	.model	flat

INCLUDELIB MSVCRT
INCLUDELIB OLDNAMES

PUBLIC	?__empty_global_delete@@YAXPAX@Z		; __empty_global_delete
PUBLIC	?__empty_global_delete@@YAXPAXI@Z		; __empty_global_delete
PUBLIC	?AfxCrtErrorCheck@@YAHH@Z			; AfxCrtErrorCheck
PUBLIC	??1CObject@@UAE@XZ				; CObject::~CObject
PUBLIC	?Serialize@CObject@@UAEXAAVCArchive@@@Z		; CObject::Serialize
PUBLIC	?AssertValid@CObject@@UBEXXZ			; CObject::AssertValid
PUBLIC	?Dump@CObject@@UBEXAAVCDumpContext@@@Z		; CObject::Dump
PUBLIC	??1CGdiObject@@UAE@XZ				; CGdiObject::~CGdiObject
PUBLIC	??_GCGdiObject@@UAEPAXI@Z			; CGdiObject::`scalar deleting destructor'
PUBLIC	??1CPen@@UAE@XZ					; CPen::~CPen
PUBLIC	??_GCPen@@UAEPAXI@Z				; CPen::`scalar deleting destructor'
PUBLIC	?DoDataExchange@CWnd@@MAEXPAVCDataExchange@@@Z	; CWnd::DoDataExchange
PUBLIC	?BeginModalState@CWnd@@UAEXXZ			; CWnd::BeginModalState
PUBLIC	?EndModalState@CWnd@@UAEXXZ			; CWnd::EndModalState
PUBLIC	??_GCTabCtrl@@UAEPAXI@Z				; CTabCtrl::`scalar deleting destructor'
PUBLIC	??0CXTabCtrl@@QAE@XZ				; CXTabCtrl::CXTabCtrl
PUBLIC	?AddTab@CXTabCtrl@@QAEXPAVCWnd@@PADH@Z		; CXTabCtrl::AddTab
PUBLIC	?EnableTab@CXTabCtrl@@QAEXHH@Z			; CXTabCtrl::EnableTab
PUBLIC	?SelectTab@CXTabCtrl@@QAEHH@Z			; CXTabCtrl::SelectTab
PUBLIC	?DeleteAllTabs@CXTabCtrl@@QAEXXZ		; CXTabCtrl::DeleteAllTabs
PUBLIC	?DeleteTab@CXTabCtrl@@QAEXH@Z			; CXTabCtrl::DeleteTab
PUBLIC	?SetTopLeftCorner@CXTabCtrl@@QAEXVCPoint@@@Z	; CXTabCtrl::SetTopLeftCorner
PUBLIC	?IsTabEnabled@CXTabCtrl@@QAEHH@Z		; CXTabCtrl::IsTabEnabled
PUBLIC	?SetDisabledColor@CXTabCtrl@@QAEXK@Z		; CXTabCtrl::SetDisabledColor
PUBLIC	?SetSelectedColor@CXTabCtrl@@QAEXKK@Z		; CXTabCtrl::SetSelectedColor
PUBLIC	?SetNormalColor@CXTabCtrl@@QAEXKKK@Z		; CXTabCtrl::SetNormalColor
PUBLIC	?SetMouseOverColor@CXTabCtrl@@QAEXK@Z		; CXTabCtrl::SetMouseOverColor
PUBLIC	?SetPrevSelect@CXTabCtrl@@QAEXXZ		; CXTabCtrl::SetPrevSelect
PUBLIC	?DrawGradientTab@CXTabCtrl@@QAEXPAVCDC@@VCRect@@@Z ; CXTabCtrl::DrawGradientTab
PUBLIC	?DrawLine@CXTabCtrl@@QAEXVCPoint@@0PAVCDC@@K@Z	; CXTabCtrl::DrawLine
PUBLIC	?DrawItem@CXTabCtrl@@MAEXPAUtagDRAWITEMSTRUCT@@@Z ; CXTabCtrl::DrawItem
PUBLIC	?PreSubclassWindow@CXTabCtrl@@MAEXXZ		; CXTabCtrl::PreSubclassWindow
PUBLIC	?SelectNextTab@CXTabCtrl@@QAEHH@Z		; CXTabCtrl::SelectNextTab
PUBLIC	?SelectTabByName@CXTabCtrl@@QAEHPBD@Z		; CXTabCtrl::SelectTabByName
PUBLIC	?ChangeTab@CXTabCtrl@@QAEXHPAVCWnd@@PADH@Z	; CXTabCtrl::ChangeTab
PUBLIC	??1CXTabCtrl@@UAE@XZ				; CXTabCtrl::~CXTabCtrl
PUBLIC	??0?$CArray@HH@@QAE@XZ				; CArray<int,int>::CArray<int,int>
PUBLIC	?SetSize@?$CArray@HH@@QAEXHH@Z			; CArray<int,int>::SetSize
PUBLIC	?SetAtGrow@?$CArray@HH@@QAEXHH@Z		; CArray<int,int>::SetAtGrow
PUBLIC	?RemoveAt@?$CArray@HH@@QAEXHH@Z			; CArray<int,int>::RemoveAt
PUBLIC	??1?$CArray@HH@@UAE@XZ				; CArray<int,int>::~CArray<int,int>
PUBLIC	?Serialize@?$CArray@HH@@UAEXAAVCArchive@@@Z	; CArray<int,int>::Serialize
PUBLIC	??_G?$CArray@HH@@UAEPAXI@Z			; CArray<int,int>::`scalar deleting destructor'
PUBLIC	?OnSelchange@CXTabCtrl@@IAEHPAUtagNMHDR@@PAJ@Z	; CXTabCtrl::OnSelchange
PUBLIC	?OnSelchanging@CXTabCtrl@@IAEHPAUtagNMHDR@@PAJ@Z ; CXTabCtrl::OnSelchanging
PUBLIC	?OnMouseMove@CXTabCtrl@@IAEXIVCPoint@@@Z	; CXTabCtrl::OnMouseMove
PUBLIC	?OnTimer@CXTabCtrl@@IAEXI@Z			; CXTabCtrl::OnTimer
PUBLIC	?OnLButtonDown@CXTabCtrl@@IAEXIVCPoint@@@Z	; CXTabCtrl::OnLButtonDown
PUBLIC	?OnLButtonUp@CXTabCtrl@@IAEXIVCPoint@@@Z	; CXTabCtrl::OnLButtonUp
PUBLIC	?OnSize@CXTabCtrl@@IAEXIHH@Z			; CXTabCtrl::OnSize
PUBLIC	?OnEraseBkgnd@CXTabCtrl@@IAEHPAVCDC@@@Z		; CXTabCtrl::OnEraseBkgnd
PUBLIC	?OnPaint@CXTabCtrl@@IAEXXZ			; CXTabCtrl::OnPaint
PUBLIC	?GetThisMessageMap@CXTabCtrl@@KGPBUAFX_MSGMAP@@XZ ; CXTabCtrl::GetThisMessageMap
PUBLIC	?GetMessageMap@CXTabCtrl@@MBEPBUAFX_MSGMAP@@XZ	; CXTabCtrl::GetMessageMap
PUBLIC	??_GCXTabCtrl@@UAEPAXI@Z			; CXTabCtrl::`scalar deleting destructor'
PUBLIC	??$SerializeElements@H@@YGXAAVCArchive@@PAHH@Z	; SerializeElements<int>
PUBLIC	??_R0PAVCException@@@8				; CException * `RTTI Type Descriptor'
PUBLIC	??_7CGdiObject@@6B@				; CGdiObject::`vftable'
PUBLIC	??_7CPen@@6B@					; CPen::`vftable'
PUBLIC	??_C@_0HD@JJCHHHNK@C?3?2Program?5Files?5?$CIx86?$CJ?2Microsof@ ; `string'
PUBLIC	??_C@_0BP@OIEOKIDM@Exception?5thrown?5in?5destructor@ ; `string'
PUBLIC	??_C@_0BB@HBOOMJBF@?$CFTs?5?$CI?$CFTs?3?$CFd?$CJ?6?$CFTs@ ; `string'
PUBLIC	??_C@_0N@OMEMOKLE@?$CFTs?5?$CI?$CFTs?3?$CFd?$CJ@ ; `string'
PUBLIC	??_7CTabCtrl@@6B@				; CTabCtrl::`vftable'
PUBLIC	??_7?$CArray@HH@@6B@				; CArray<int,int>::`vftable'
PUBLIC	??_7CXTabCtrl@@6B@				; CXTabCtrl::`vftable'
PUBLIC	??_R0?AVCObject@@@8				; CObject `RTTI Type Descriptor'
PUBLIC	??_R3CObject@@8					; CObject::`RTTI Class Hierarchy Descriptor'
PUBLIC	??_R2CObject@@8					; CObject::`RTTI Base Class Array'
PUBLIC	??_R1A@?0A@EA@CObject@@8			; CObject::`RTTI Base Class Descriptor at (0,-1,0,64)'
PUBLIC	??_R4CGdiObject@@6B@				; CGdiObject::`RTTI Complete Object Locator'
PUBLIC	??_R0?AVCGdiObject@@@8				; CGdiObject `RTTI Type Descriptor'
PUBLIC	??_R3CGdiObject@@8				; CGdiObject::`RTTI Class Hierarchy Descriptor'
PUBLIC	??_R2CGdiObject@@8				; CGdiObject::`RTTI Base Class Array'
PUBLIC	??_R1A@?0A@EA@CGdiObject@@8			; CGdiObject::`RTTI Base Class Descriptor at (0,-1,0,64)'
PUBLIC	??_R4CPen@@6B@					; CPen::`RTTI Complete Object Locator'
PUBLIC	??_R0?AVCPen@@@8				; CPen `RTTI Type Descriptor'
PUBLIC	??_R3CPen@@8					; CPen::`RTTI Class Hierarchy Descriptor'
PUBLIC	??_R2CPen@@8					; CPen::`RTTI Base Class Array'
PUBLIC	??_R1A@?0A@EA@CPen@@8				; CPen::`RTTI Base Class Descriptor at (0,-1,0,64)'
PUBLIC	??_R1A@?0A@EA@CWnd@@8				; CWnd::`RTTI Base Class Descriptor at (0,-1,0,64)'
PUBLIC	??_R0?AVCWnd@@@8				; CWnd `RTTI Type Descriptor'
PUBLIC	??_R3CWnd@@8					; CWnd::`RTTI Class Hierarchy Descriptor'
PUBLIC	??_R2CWnd@@8					; CWnd::`RTTI Base Class Array'
PUBLIC	??_R1A@?0A@EA@CCmdTarget@@8			; CCmdTarget::`RTTI Base Class Descriptor at (0,-1,0,64)'
PUBLIC	??_R0?AVCCmdTarget@@@8				; CCmdTarget `RTTI Type Descriptor'
PUBLIC	??_R3CCmdTarget@@8				; CCmdTarget::`RTTI Class Hierarchy Descriptor'
PUBLIC	??_R2CCmdTarget@@8				; CCmdTarget::`RTTI Base Class Array'
PUBLIC	??_R4CTabCtrl@@6B@				; CTabCtrl::`RTTI Complete Object Locator'
PUBLIC	??_R0?AVCTabCtrl@@@8				; CTabCtrl `RTTI Type Descriptor'
PUBLIC	??_R3CTabCtrl@@8				; CTabCtrl::`RTTI Class Hierarchy Descriptor'
PUBLIC	??_R2CTabCtrl@@8				; CTabCtrl::`RTTI Base Class Array'
PUBLIC	??_R1A@?0A@EA@CTabCtrl@@8			; CTabCtrl::`RTTI Base Class Descriptor at (0,-1,0,64)'
PUBLIC	??_R4?$CArray@HH@@6B@				; CArray<int,int>::`RTTI Complete Object Locator'
PUBLIC	??_R0?AV?$CArray@HH@@@8				; CArray<int,int> `RTTI Type Descriptor'
PUBLIC	??_R3?$CArray@HH@@8				; CArray<int,int>::`RTTI Class Hierarchy Descriptor'
PUBLIC	??_R2?$CArray@HH@@8				; CArray<int,int>::`RTTI Base Class Array'
PUBLIC	??_R1A@?0A@EA@?$CArray@HH@@8			; CArray<int,int>::`RTTI Base Class Descriptor at (0,-1,0,64)'
PUBLIC	??_C@_01CLKCMJKC@?5@				; `string'
PUBLIC	??_R4CXTabCtrl@@6B@				; CXTabCtrl::`RTTI Complete Object Locator'
PUBLIC	??_R0?AVCXTabCtrl@@@8				; CXTabCtrl `RTTI Type Descriptor'
PUBLIC	??_R3CXTabCtrl@@8				; CXTabCtrl::`RTTI Class Hierarchy Descriptor'
PUBLIC	??_R2CXTabCtrl@@8				; CXTabCtrl::`RTTI Base Class Array'
PUBLIC	??_R1A@?0A@EA@CXTabCtrl@@8			; CXTabCtrl::`RTTI Base Class Descriptor at (0,-1,0,64)'
EXTRN	??3@YAXPAX@Z:PROC				; operator delete
EXTRN	?__global_delete@@YAXPAXI@Z:PROC		; __global_delete
EXTRN	??_U@YAPAXI@Z:PROC				; operator new[]
EXTRN	??_V@YAXPAX@Z:PROC				; operator delete[]
EXTRN	___std_terminate:PROC
EXTRN	__imp___invalid_parameter_noinfo:PROC
EXTRN	__imp___errno:PROC
EXTRN	__imp__CreateDCA@16:PROC
EXTRN	__imp__CreatePen@12:PROC
EXTRN	__imp__GetTextExtentPoint32A@16:PROC
EXTRN	__imp__SendMessageA@16:PROC
EXTRN	__imp__SetCapture@4:PROC
EXTRN	__imp__SetTimer@16:PROC
EXTRN	__imp__KillTimer@8:PROC
EXTRN	__imp__EnableWindow@8:PROC
EXTRN	__imp__GetSystemMetrics@4:PROC
EXTRN	__imp__InvalidateRect@12:PROC
EXTRN	__imp__GetClientRect@8:PROC
EXTRN	__imp__GetWindowRect@8:PROC
EXTRN	__imp__GetCursorPos@4:PROC
EXTRN	__imp__ClientToScreen@8:PROC
EXTRN	__imp__ScreenToClient@8:PROC
EXTRN	__imp__GetSysColor@4:PROC
EXTRN	__imp__SetRect@20:PROC
EXTRN	__imp__CopyRect@8:PROC
EXTRN	__imp__InflateRect@12:PROC
EXTRN	__imp__OffsetRect@12:PROC
EXTRN	__imp__PtInRect@12:PROC
EXTRN	__imp__ImageList_Draw@24:PROC
EXTRN	__imp__ImageList_GetImageInfo@12:PROC
EXTRN	?AfxThrowMemoryException@@YGXXZ:PROC		; AfxThrowMemoryException
EXTRN	?AfxThrowInvalidArgException@@YGXXZ:PROC	; AfxThrowInvalidArgException
EXTRN	?AfxThrowArchiveException@@YGXHPBD@Z:PROC	; AfxThrowArchiveException
EXTRN	?GetRuntimeClass@CObject@@UBEPAUCRuntimeClass@@XZ:PROC ; CObject::GetRuntimeClass
EXTRN	__imp_??0?$CStringT@DV?$StrTraitMFC_DLL@DV?$ChTraitsCRT@D@ATL@@@@@ATL@@QAE@XZ:PROC
EXTRN	__imp_??0?$CStringT@DV?$StrTraitMFC_DLL@DV?$ChTraitsCRT@D@ATL@@@@@ATL@@QAE@PBD@Z:PROC
EXTRN	__imp_??1?$CStringT@DV?$StrTraitMFC_DLL@DV?$ChTraitsCRT@D@ATL@@@@@ATL@@QAE@XZ:PROC
EXTRN	__imp_?Format@?$CStringT@DV?$StrTraitMFC_DLL@DV?$ChTraitsCRT@D@ATL@@@@@ATL@@QAAXPBDZZ:PROC
EXTRN	?Read@CArchive@@QAEIPAXI@Z:PROC			; CArchive::Read
EXTRN	?Write@CArchive@@QAEXPBXI@Z:PROC		; CArchive::Write
EXTRN	?ReadCount@CArchive@@QAEKXZ:PROC		; CArchive::ReadCount
EXTRN	?WriteCount@CArchive@@QAEXK@Z:PROC		; CArchive::WriteCount
EXTRN	?GetRuntimeClass@CGdiObject@@UBEPAUCRuntimeClass@@XZ:PROC ; CGdiObject::GetRuntimeClass
EXTRN	?FromHandle@CGdiObject@@SGPAV1@PAX@Z:PROC	; CGdiObject::FromHandle
EXTRN	?Attach@CGdiObject@@QAEHPAX@Z:PROC		; CGdiObject::Attach
EXTRN	?DeleteObject@CGdiObject@@QAEHXZ:PROC		; CGdiObject::DeleteObject
EXTRN	??_ECGdiObject@@UAEPAXI@Z:PROC			; CGdiObject::`vector deleting destructor'
EXTRN	?GetRuntimeClass@CPen@@UBEPAUCRuntimeClass@@XZ:PROC ; CPen::GetRuntimeClass
EXTRN	??_ECPen@@UAEPAXI@Z:PROC			; CPen::`vector deleting destructor'
EXTRN	?FromHandle@CDC@@SGPAV1@PAUHDC__@@@Z:PROC	; CDC::FromHandle
EXTRN	?Attach@CDC@@QAEHPAUHDC__@@@Z:PROC		; CDC::Attach
EXTRN	?SelectObject@CDC@@QAEPAVCPen@@PAV2@@Z:PROC	; CDC::SelectObject
EXTRN	?SelectObject@CDC@@UAEPAVCFont@@PAV2@@Z:PROC	; CDC::SelectObject
EXTRN	?SetBkMode@CDC@@QAEHH@Z:PROC			; CDC::SetBkMode
EXTRN	?MoveTo@CDC@@QAE?AVCPoint@@HH@Z:PROC		; CDC::MoveTo
EXTRN	?LineTo@CDC@@QAEHHH@Z:PROC			; CDC::LineTo
EXTRN	?FillSolidRect@CDC@@QAEXPBUtagRECT@@K@Z:PROC	; CDC::FillSolidRect
EXTRN	?Draw3dRect@CDC@@QAEXPBUtagRECT@@KK@Z:PROC	; CDC::Draw3dRect
EXTRN	??0CPaintDC@@QAE@PAVCWnd@@@Z:PROC		; CPaintDC::CPaintDC
EXTRN	??1CPaintDC@@UAE@XZ:PROC			; CPaintDC::~CPaintDC
EXTRN	?FromHandle@CImageList@@SGPAV1@PAU_IMAGELIST@@@Z:PROC ; CImageList::FromHandle
EXTRN	?OnCmdMsg@CCmdTarget@@UAEHIHPAXPAUAFX_CMDHANDLERINFO@@@Z:PROC ; CCmdTarget::OnCmdMsg
EXTRN	?IsInvokeAllowed@CCmdTarget@@UAEHJ@Z:PROC	; CCmdTarget::IsInvokeAllowed
EXTRN	?GetDispatchIID@CCmdTarget@@UAEHPAU_GUID@@@Z:PROC ; CCmdTarget::GetDispatchIID
EXTRN	?GetTypeInfoCount@CCmdTarget@@UAEIXZ:PROC	; CCmdTarget::GetTypeInfoCount
EXTRN	?GetTypeLibCache@CCmdTarget@@UAEPAVCTypeLibCache@@XZ:PROC ; CCmdTarget::GetTypeLibCache
EXTRN	?GetTypeLib@CCmdTarget@@UAEJKPAPAUITypeLib@@@Z:PROC ; CCmdTarget::GetTypeLib
EXTRN	?GetCommandMap@CCmdTarget@@MBEPBUAFX_OLECMDMAP@@XZ:PROC ; CCmdTarget::GetCommandMap
EXTRN	?GetDispatchMap@CCmdTarget@@MBEPBUAFX_DISPMAP@@XZ:PROC ; CCmdTarget::GetDispatchMap
EXTRN	?GetConnectionMap@CCmdTarget@@MBEPBUAFX_CONNECTIONMAP@@XZ:PROC ; CCmdTarget::GetConnectionMap
EXTRN	?GetEventSinkMap@CCmdTarget@@MBEPBUAFX_EVENTSINKMAP@@XZ:PROC ; CCmdTarget::GetEventSinkMap
EXTRN	?OnCreateAggregates@CCmdTarget@@UAEHXZ:PROC	; CCmdTarget::OnCreateAggregates
EXTRN	?GetInterfaceHook@CCmdTarget@@UAEPAUIUnknown@@PBX@Z:PROC ; CCmdTarget::GetInterfaceHook
EXTRN	?GetExtraConnectionPoints@CCmdTarget@@MAEHPAVCPtrArray@@@Z:PROC ; CCmdTarget::GetExtraConnectionPoints
EXTRN	?GetConnectionHook@CCmdTarget@@MAEPAUIConnectionPoint@@ABU_GUID@@@Z:PROC ; CCmdTarget::GetConnectionHook
EXTRN	?ModifyStyle@CWnd@@QAEHKKI@Z:PROC		; CWnd::ModifyStyle
EXTRN	??0CWnd@@QAE@XZ:PROC				; CWnd::CWnd
EXTRN	?FromHandle@CWnd@@SGPAV1@PAUHWND__@@@Z:PROC	; CWnd::FromHandle
EXTRN	?PreSubclassWindow@CWnd@@UAEXXZ:PROC		; CWnd::PreSubclassWindow
EXTRN	?Create@CWnd@@UAEHPBD0KABUtagRECT@@PAV1@IPAUCCreateContext@@@Z:PROC ; CWnd::Create
EXTRN	?CreateEx@CWnd@@UAEHKPBD0KHHHHPAUHWND__@@PAUHMENU__@@PAX@Z:PROC ; CWnd::CreateEx
EXTRN	?CreateEx@CWnd@@UAEHKPBD0KABUtagRECT@@PAV1@IPAX@Z:PROC ; CWnd::CreateEx
EXTRN	?DestroyWindow@CWnd@@UAEHXZ:PROC		; CWnd::DestroyWindow
EXTRN	?PreCreateWindow@CWnd@@UAEHAAUtagCREATESTRUCTA@@@Z:PROC ; CWnd::PreCreateWindow
EXTRN	?CalcWindowRect@CWnd@@UAEXPAUtagRECT@@I@Z:PROC	; CWnd::CalcWindowRect
EXTRN	?GetDlgCtrlID@CWnd@@QBEHXZ:PROC			; CWnd::GetDlgCtrlID
EXTRN	?GetMenu@CWnd@@UBEPAVCMenu@@XZ:PROC		; CWnd::GetMenu
EXTRN	?SetMenu@CWnd@@UAEHPAVCMenu@@@Z:PROC		; CWnd::SetMenu
EXTRN	?SetWindowPos@CWnd@@QAEHPBV1@HHHHI@Z:PROC	; CWnd::SetWindowPos
EXTRN	?ClientToScreen@CWnd@@QBEXPAUtagRECT@@@Z:PROC	; CWnd::ClientToScreen
EXTRN	?ShowWindow@CWnd@@QAEHH@Z:PROC			; CWnd::ShowWindow
EXTRN	?OnToolHitTest@CWnd@@UBEHVCPoint@@PAUtagTOOLINFOA@@@Z:PROC ; CWnd::OnToolHitTest
EXTRN	?GetScrollBarCtrl@CWnd@@UBEPAVCScrollBar@@H@Z:PROC ; CWnd::GetScrollBarCtrl
EXTRN	?WinHelpA@CWnd@@UAEXKI@Z:PROC			; CWnd::WinHelpA
EXTRN	?HtmlHelpA@CWnd@@UAEXKI@Z:PROC			; CWnd::HtmlHelpA
EXTRN	?WinHelpInternal@CWnd@@UAEXKI@Z:PROC		; CWnd::WinHelpInternal
EXTRN	?ContinueModal@CWnd@@UAEHXZ:PROC		; CWnd::ContinueModal
EXTRN	?EndModalLoop@CWnd@@UAEXH@Z:PROC		; CWnd::EndModalLoop
EXTRN	?OnDrawIconicThumbnailOrLivePreview@CWnd@@UAEXAAVCDC@@VCRect@@VCSize@@HAAH@Z:PROC ; CWnd::OnDrawIconicThumbnailOrLivePreview
EXTRN	?GetInterfaceMap@CWnd@@MBEPBUAFX_INTERFACEMAP@@XZ:PROC ; CWnd::GetInterfaceMap
EXTRN	?EnsureStdObj@CWnd@@UAEJXZ:PROC			; CWnd::EnsureStdObj
EXTRN	?get_accParent@CWnd@@UAEJPAPAUIDispatch@@@Z:PROC ; CWnd::get_accParent
EXTRN	?get_accChildCount@CWnd@@UAEJPAJ@Z:PROC		; CWnd::get_accChildCount
EXTRN	?get_accChild@CWnd@@UAEJUtagVARIANT@@PAPAUIDispatch@@@Z:PROC ; CWnd::get_accChild
EXTRN	?get_accName@CWnd@@UAEJUtagVARIANT@@PAPA_W@Z:PROC ; CWnd::get_accName
EXTRN	?get_accValue@CWnd@@UAEJUtagVARIANT@@PAPA_W@Z:PROC ; CWnd::get_accValue
EXTRN	?get_accDescription@CWnd@@UAEJUtagVARIANT@@PAPA_W@Z:PROC ; CWnd::get_accDescription
EXTRN	?get_accRole@CWnd@@UAEJUtagVARIANT@@PAU2@@Z:PROC ; CWnd::get_accRole
EXTRN	?get_accState@CWnd@@UAEJUtagVARIANT@@PAU2@@Z:PROC ; CWnd::get_accState
EXTRN	?get_accHelp@CWnd@@UAEJUtagVARIANT@@PAPA_W@Z:PROC ; CWnd::get_accHelp
EXTRN	?get_accHelpTopic@CWnd@@UAEJPAPA_WUtagVARIANT@@PAJ@Z:PROC ; CWnd::get_accHelpTopic
EXTRN	?get_accKeyboardShortcut@CWnd@@UAEJUtagVARIANT@@PAPA_W@Z:PROC ; CWnd::get_accKeyboardShortcut
EXTRN	?get_accFocus@CWnd@@UAEJPAUtagVARIANT@@@Z:PROC	; CWnd::get_accFocus
EXTRN	?get_accSelection@CWnd@@UAEJPAUtagVARIANT@@@Z:PROC ; CWnd::get_accSelection
EXTRN	?get_accDefaultAction@CWnd@@UAEJUtagVARIANT@@PAPA_W@Z:PROC ; CWnd::get_accDefaultAction
EXTRN	?accSelect@CWnd@@UAEJJUtagVARIANT@@@Z:PROC	; CWnd::accSelect
EXTRN	?accLocation@CWnd@@UAEJPAJ000UtagVARIANT@@@Z:PROC ; CWnd::accLocation
EXTRN	?accNavigate@CWnd@@UAEJJUtagVARIANT@@PAU2@@Z:PROC ; CWnd::accNavigate
EXTRN	?accHitTest@CWnd@@UAEJJJPAUtagVARIANT@@@Z:PROC	; CWnd::accHitTest
EXTRN	?accDoDefaultAction@CWnd@@UAEJUtagVARIANT@@@Z:PROC ; CWnd::accDoDefaultAction
EXTRN	?put_accName@CWnd@@UAEJUtagVARIANT@@PA_W@Z:PROC	; CWnd::put_accName
EXTRN	?put_accValue@CWnd@@UAEJUtagVARIANT@@PA_W@Z:PROC ; CWnd::put_accValue
EXTRN	?SetProxy@CWnd@@UAEJPAUIAccessibleProxy@@@Z:PROC ; CWnd::SetProxy
EXTRN	?CreateAccessibleProxy@CWnd@@UAEJIJPAJ@Z:PROC	; CWnd::CreateAccessibleProxy
EXTRN	?OnCommand@CWnd@@MAEHIJ@Z:PROC			; CWnd::OnCommand
EXTRN	?OnNotify@CWnd@@MAEHIJPAJ@Z:PROC		; CWnd::OnNotify
EXTRN	?GetSuperWndProcAddr@CWnd@@MAEPAP6GJPAUHWND__@@IIJ@ZXZ:PROC ; CWnd::GetSuperWndProcAddr
EXTRN	?PreTranslateMessage@CWnd@@UAEHPAUtagMSG@@@Z:PROC ; CWnd::PreTranslateMessage
EXTRN	?OnAmbientProperty@CWnd@@UAEHPAVCOleControlSite@@JPAUtagVARIANT@@@Z:PROC ; CWnd::OnAmbientProperty
EXTRN	?WindowProc@CWnd@@MAEJIIJ@Z:PROC		; CWnd::WindowProc
EXTRN	?OnWndMsg@CWnd@@MAEHIIJPAJ@Z:PROC		; CWnd::OnWndMsg
EXTRN	?Default@CWnd@@IAEJXZ:PROC			; CWnd::Default
EXTRN	?DefWindowProcA@CWnd@@MAEJIIJ@Z:PROC		; CWnd::DefWindowProcA
EXTRN	?PostNcDestroy@CWnd@@MAEXXZ:PROC		; CWnd::PostNcDestroy
EXTRN	?OnTouchInputs@CWnd@@MAEHIPAUtagTOUCHINPUT@@@Z:PROC ; CWnd::OnTouchInputs
EXTRN	?OnTouchInput@CWnd@@MAEHVCPoint@@HHPAUtagTOUCHINPUT@@@Z:PROC ; CWnd::OnTouchInput
EXTRN	?GetGestureStatus@CWnd@@MAEKVCPoint@@@Z:PROC	; CWnd::GetGestureStatus
EXTRN	?OnGestureZoom@CWnd@@MAEHVCPoint@@J@Z:PROC	; CWnd::OnGestureZoom
EXTRN	?OnGesturePan@CWnd@@MAEHVCPoint@@0@Z:PROC	; CWnd::OnGesturePan
EXTRN	?OnGestureRotate@CWnd@@MAEHVCPoint@@N@Z:PROC	; CWnd::OnGestureRotate
EXTRN	?OnGestureTwoFingerTap@CWnd@@MAEHVCPoint@@@Z:PROC ; CWnd::OnGestureTwoFingerTap
EXTRN	?OnGesturePressAndTap@CWnd@@MAEHVCPoint@@J@Z:PROC ; CWnd::OnGesturePressAndTap
EXTRN	?ResizeDynamicLayout@CWnd@@MAEXXZ:PROC		; CWnd::ResizeDynamicLayout
EXTRN	?CheckAutoCenter@CWnd@@UAEHXZ:PROC		; CWnd::CheckAutoCenter
EXTRN	?IsFrameWnd@CWnd@@UBEHXZ:PROC			; CWnd::IsFrameWnd
EXTRN	?OnFinalRelease@CWnd@@UAEXXZ:PROC		; CWnd::OnFinalRelease
EXTRN	?CreateControlContainer@CWnd@@MAEHPAPAVCOleControlContainer@@@Z:PROC ; CWnd::CreateControlContainer
EXTRN	?CreateControlSite@CWnd@@MAEHPAVCOleControlContainer@@PAPAVCOleControlSite@@IABU_GUID@@@Z:PROC ; CWnd::CreateControlSite
EXTRN	?SetOccDialogInfo@CWnd@@MAEHPAU_AFX_OCC_DIALOG_INFO@@@Z:PROC ; CWnd::SetOccDialogInfo
EXTRN	?GetOccDialogInfo@CWnd@@MAEPAU_AFX_OCC_DIALOG_INFO@@XZ:PROC ; CWnd::GetOccDialogInfo
EXTRN	?AfxMessageBox@@YGHPBDII@Z:PROC			; AfxMessageBox
EXTRN	?GetRuntimeClass@CTabCtrl@@UBEPAUCRuntimeClass@@XZ:PROC ; CTabCtrl::GetRuntimeClass
EXTRN	?Create@CTabCtrl@@UAEHKABUtagRECT@@PAVCWnd@@I@Z:PROC ; CTabCtrl::Create
EXTRN	?CreateEx@CTabCtrl@@UAEHKKABUtagRECT@@PAVCWnd@@I@Z:PROC ; CTabCtrl::CreateEx
EXTRN	?DrawItem@CTabCtrl@@UAEXPAUtagDRAWITEMSTRUCT@@@Z:PROC ; CTabCtrl::DrawItem
EXTRN	??1CTabCtrl@@UAE@XZ:PROC			; CTabCtrl::~CTabCtrl
EXTRN	?OnChildNotify@CTabCtrl@@MAEHIIJPAJ@Z:PROC	; CTabCtrl::OnChildNotify
EXTRN	?GetThisMessageMap@CTabCtrl@@KGPBUAFX_MSGMAP@@XZ:PROC ; CTabCtrl::GetThisMessageMap
EXTRN	?GetMessageMap@CTabCtrl@@MBEPBUAFX_MSGMAP@@XZ:PROC ; CTabCtrl::GetMessageMap
EXTRN	??_ECTabCtrl@@UAEPAXI@Z:PROC			; CTabCtrl::`vector deleting destructor'
EXTRN	??_E?$CArray@HH@@UAEPAXI@Z:PROC			; CArray<int,int>::`vector deleting destructor'
EXTRN	??_ECXTabCtrl@@UAEPAXI@Z:PROC			; CXTabCtrl::`vector deleting destructor'
EXTRN	@__security_check_cookie@4:PROC
EXTRN	___CxxFrameHandler3:PROC
EXTRN	_memcpy:PROC
EXTRN	_memmove:PROC
EXTRN	_memset:PROC
EXTRN	??_7type_info@@6B@:QWORD			; type_info::`vftable'
EXTRN	___security_cookie:DWORD
EXTRN	__fltused:DWORD
;	COMDAT ??_R1A@?0A@EA@CXTabCtrl@@8
rdata$r	SEGMENT
??_R1A@?0A@EA@CXTabCtrl@@8 DD FLAT:??_R0?AVCXTabCtrl@@@8 ; CXTabCtrl::`RTTI Base Class Descriptor at (0,-1,0,64)'
	DD	04H
	DD	00H
	DD	0ffffffffH
	DD	00H
	DD	040H
	DD	FLAT:??_R3CXTabCtrl@@8
rdata$r	ENDS
;	COMDAT ??_R2CXTabCtrl@@8
rdata$r	SEGMENT
??_R2CXTabCtrl@@8 DD FLAT:??_R1A@?0A@EA@CXTabCtrl@@8	; CXTabCtrl::`RTTI Base Class Array'
	DD	FLAT:??_R1A@?0A@EA@CTabCtrl@@8
	DD	FLAT:??_R1A@?0A@EA@CWnd@@8
	DD	FLAT:??_R1A@?0A@EA@CCmdTarget@@8
	DD	FLAT:??_R1A@?0A@EA@CObject@@8
rdata$r	ENDS
;	COMDAT ??_R3CXTabCtrl@@8
rdata$r	SEGMENT
??_R3CXTabCtrl@@8 DD 00H				; CXTabCtrl::`RTTI Class Hierarchy Descriptor'
	DD	00H
	DD	05H
	DD	FLAT:??_R2CXTabCtrl@@8
rdata$r	ENDS
;	COMDAT ??_R0?AVCXTabCtrl@@@8
data$rs	SEGMENT
??_R0?AVCXTabCtrl@@@8 DD FLAT:??_7type_info@@6B@	; CXTabCtrl `RTTI Type Descriptor'
	DD	00H
	DB	'.?AVCXTabCtrl@@', 00H
data$rs	ENDS
;	COMDAT ??_R4CXTabCtrl@@6B@
rdata$r	SEGMENT
??_R4CXTabCtrl@@6B@ DD 00H				; CXTabCtrl::`RTTI Complete Object Locator'
	DD	00H
	DD	00H
	DD	FLAT:??_R0?AVCXTabCtrl@@@8
	DD	FLAT:??_R3CXTabCtrl@@8
rdata$r	ENDS
;	COMDAT ??_C@_01CLKCMJKC@?5@
CONST	SEGMENT
??_C@_01CLKCMJKC@?5@ DB ' ', 00H			; `string'
CONST	ENDS
;	COMDAT ?messageMap@?1??GetThisMessageMap@CXTabCtrl@@KGPBUAFX_MSGMAP@@XZ@4U3@B
CONST	SEGMENT
?messageMap@?1??GetThisMessageMap@CXTabCtrl@@KGPBUAFX_MSGMAP@@XZ@4U3@B DD FLAT:?GetThisMessageMap@CTabCtrl@@KGPBUAFX_MSGMAP@@XZ ; `CXTabCtrl::GetThisMessageMap'::`2'::messageMap
	DD	FLAT:?_messageEntries@?1??GetThisMessageMap@CXTabCtrl@@KGPBUAFX_MSGMAP@@XZ@4QBUAFX_MSGMAP_ENTRY@@B
CONST	ENDS
;	COMDAT ?_messageEntries@?1??GetThisMessageMap@CXTabCtrl@@KGPBUAFX_MSGMAP@@XZ@4QBUAFX_MSGMAP_ENTRY@@B
CONST	SEGMENT
?_messageEntries@?1??GetThisMessageMap@CXTabCtrl@@KGPBUAFX_MSGMAP@@XZ@4QBUAFX_MSGMAP_ENTRY@@B DD 0bc4eH ; `CXTabCtrl::GetThisMessageMap'::`2'::_messageEntries
	DD	0fdd9H
	DD	00H
	DD	00H
	DD	03fH
	DD	FLAT:?OnSelchange@CXTabCtrl@@IAEHPAUtagNMHDR@@PAJ@Z
	DD	0bc4eH
	DD	0fdd8H
	DD	00H
	DD	00H
	DD	03fH
	DD	FLAT:?OnSelchanging@CXTabCtrl@@IAEHPAUtagNMHDR@@PAJ@Z
	DD	0200H
	DD	00H
	DD	00H
	DD	00H
	DD	036H
	DD	FLAT:?OnMouseMove@CXTabCtrl@@IAEXIVCPoint@@@Z
	DD	0113H
	DD	00H
	DD	00H
	DD	00H
	DD	015H
	DD	FLAT:?OnTimer@CXTabCtrl@@IAEXI@Z
	DD	0201H
	DD	00H
	DD	00H
	DD	00H
	DD	036H
	DD	FLAT:?OnLButtonDown@CXTabCtrl@@IAEXIVCPoint@@@Z
	DD	0202H
	DD	00H
	DD	00H
	DD	00H
	DD	036H
	DD	FLAT:?OnLButtonUp@CXTabCtrl@@IAEXIVCPoint@@@Z
	DD	05H
	DD	00H
	DD	00H
	DD	00H
	DD	01aH
	DD	FLAT:?OnSize@CXTabCtrl@@IAEXIHH@Z
	DD	014H
	DD	00H
	DD	00H
	DD	00H
	DD	01H
	DD	FLAT:?OnEraseBkgnd@CXTabCtrl@@IAEHPAVCDC@@@Z
	DD	0fH
	DD	00H
	DD	00H
	DD	00H
	DD	013H
	DD	FLAT:?OnPaint@CXTabCtrl@@IAEXXZ
	DD	00H
	DD	00H
	DD	00H
	DD	00H
	DD	00H
	DD	00H
CONST	ENDS
;	COMDAT ??_R1A@?0A@EA@?$CArray@HH@@8
rdata$r	SEGMENT
??_R1A@?0A@EA@?$CArray@HH@@8 DD FLAT:??_R0?AV?$CArray@HH@@@8 ; CArray<int,int>::`RTTI Base Class Descriptor at (0,-1,0,64)'
	DD	01H
	DD	00H
	DD	0ffffffffH
	DD	00H
	DD	040H
	DD	FLAT:??_R3?$CArray@HH@@8
rdata$r	ENDS
;	COMDAT ??_R2?$CArray@HH@@8
rdata$r	SEGMENT
??_R2?$CArray@HH@@8 DD FLAT:??_R1A@?0A@EA@?$CArray@HH@@8 ; CArray<int,int>::`RTTI Base Class Array'
	DD	FLAT:??_R1A@?0A@EA@CObject@@8
rdata$r	ENDS
;	COMDAT ??_R3?$CArray@HH@@8
rdata$r	SEGMENT
??_R3?$CArray@HH@@8 DD 00H				; CArray<int,int>::`RTTI Class Hierarchy Descriptor'
	DD	00H
	DD	02H
	DD	FLAT:??_R2?$CArray@HH@@8
rdata$r	ENDS
;	COMDAT ??_R0?AV?$CArray@HH@@@8
data$rs	SEGMENT
??_R0?AV?$CArray@HH@@@8 DD FLAT:??_7type_info@@6B@	; CArray<int,int> `RTTI Type Descriptor'
	DD	00H
	DB	'.?AV?$CArray@HH@@', 00H
data$rs	ENDS
;	COMDAT ??_R4?$CArray@HH@@6B@
rdata$r	SEGMENT
??_R4?$CArray@HH@@6B@ DD 00H				; CArray<int,int>::`RTTI Complete Object Locator'
	DD	00H
	DD	00H
	DD	FLAT:??_R0?AV?$CArray@HH@@@8
	DD	FLAT:??_R3?$CArray@HH@@8
rdata$r	ENDS
;	COMDAT ??_R1A@?0A@EA@CTabCtrl@@8
rdata$r	SEGMENT
??_R1A@?0A@EA@CTabCtrl@@8 DD FLAT:??_R0?AVCTabCtrl@@@8	; CTabCtrl::`RTTI Base Class Descriptor at (0,-1,0,64)'
	DD	03H
	DD	00H
	DD	0ffffffffH
	DD	00H
	DD	040H
	DD	FLAT:??_R3CTabCtrl@@8
rdata$r	ENDS
;	COMDAT ??_R2CTabCtrl@@8
rdata$r	SEGMENT
??_R2CTabCtrl@@8 DD FLAT:??_R1A@?0A@EA@CTabCtrl@@8	; CTabCtrl::`RTTI Base Class Array'
	DD	FLAT:??_R1A@?0A@EA@CWnd@@8
	DD	FLAT:??_R1A@?0A@EA@CCmdTarget@@8
	DD	FLAT:??_R1A@?0A@EA@CObject@@8
rdata$r	ENDS
;	COMDAT ??_R3CTabCtrl@@8
rdata$r	SEGMENT
??_R3CTabCtrl@@8 DD 00H					; CTabCtrl::`RTTI Class Hierarchy Descriptor'
	DD	00H
	DD	04H
	DD	FLAT:??_R2CTabCtrl@@8
rdata$r	ENDS
;	COMDAT ??_R0?AVCTabCtrl@@@8
data$rs	SEGMENT
??_R0?AVCTabCtrl@@@8 DD FLAT:??_7type_info@@6B@		; CTabCtrl `RTTI Type Descriptor'
	DD	00H
	DB	'.?AVCTabCtrl@@', 00H
data$rs	ENDS
;	COMDAT ??_R4CTabCtrl@@6B@
rdata$r	SEGMENT
??_R4CTabCtrl@@6B@ DD 00H				; CTabCtrl::`RTTI Complete Object Locator'
	DD	00H
	DD	00H
	DD	FLAT:??_R0?AVCTabCtrl@@@8
	DD	FLAT:??_R3CTabCtrl@@8
rdata$r	ENDS
;	COMDAT ??_R2CCmdTarget@@8
rdata$r	SEGMENT
??_R2CCmdTarget@@8 DD FLAT:??_R1A@?0A@EA@CCmdTarget@@8	; CCmdTarget::`RTTI Base Class Array'
	DD	FLAT:??_R1A@?0A@EA@CObject@@8
rdata$r	ENDS
;	COMDAT ??_R3CCmdTarget@@8
rdata$r	SEGMENT
??_R3CCmdTarget@@8 DD 00H				; CCmdTarget::`RTTI Class Hierarchy Descriptor'
	DD	00H
	DD	02H
	DD	FLAT:??_R2CCmdTarget@@8
rdata$r	ENDS
;	COMDAT ??_R0?AVCCmdTarget@@@8
data$rs	SEGMENT
??_R0?AVCCmdTarget@@@8 DD FLAT:??_7type_info@@6B@	; CCmdTarget `RTTI Type Descriptor'
	DD	00H
	DB	'.?AVCCmdTarget@@', 00H
data$rs	ENDS
;	COMDAT ??_R1A@?0A@EA@CCmdTarget@@8
rdata$r	SEGMENT
??_R1A@?0A@EA@CCmdTarget@@8 DD FLAT:??_R0?AVCCmdTarget@@@8 ; CCmdTarget::`RTTI Base Class Descriptor at (0,-1,0,64)'
	DD	01H
	DD	00H
	DD	0ffffffffH
	DD	00H
	DD	040H
	DD	FLAT:??_R3CCmdTarget@@8
rdata$r	ENDS
;	COMDAT ??_R2CWnd@@8
rdata$r	SEGMENT
??_R2CWnd@@8 DD	FLAT:??_R1A@?0A@EA@CWnd@@8		; CWnd::`RTTI Base Class Array'
	DD	FLAT:??_R1A@?0A@EA@CCmdTarget@@8
	DD	FLAT:??_R1A@?0A@EA@CObject@@8
rdata$r	ENDS
;	COMDAT ??_R3CWnd@@8
rdata$r	SEGMENT
??_R3CWnd@@8 DD	00H					; CWnd::`RTTI Class Hierarchy Descriptor'
	DD	00H
	DD	03H
	DD	FLAT:??_R2CWnd@@8
rdata$r	ENDS
;	COMDAT ??_R0?AVCWnd@@@8
data$rs	SEGMENT
??_R0?AVCWnd@@@8 DD FLAT:??_7type_info@@6B@		; CWnd `RTTI Type Descriptor'
	DD	00H
	DB	'.?AVCWnd@@', 00H
data$rs	ENDS
;	COMDAT ??_R1A@?0A@EA@CWnd@@8
rdata$r	SEGMENT
??_R1A@?0A@EA@CWnd@@8 DD FLAT:??_R0?AVCWnd@@@8		; CWnd::`RTTI Base Class Descriptor at (0,-1,0,64)'
	DD	02H
	DD	00H
	DD	0ffffffffH
	DD	00H
	DD	040H
	DD	FLAT:??_R3CWnd@@8
rdata$r	ENDS
;	COMDAT ??_R1A@?0A@EA@CPen@@8
rdata$r	SEGMENT
??_R1A@?0A@EA@CPen@@8 DD FLAT:??_R0?AVCPen@@@8		; CPen::`RTTI Base Class Descriptor at (0,-1,0,64)'
	DD	02H
	DD	00H
	DD	0ffffffffH
	DD	00H
	DD	040H
	DD	FLAT:??_R3CPen@@8
rdata$r	ENDS
;	COMDAT ??_R2CPen@@8
rdata$r	SEGMENT
??_R2CPen@@8 DD	FLAT:??_R1A@?0A@EA@CPen@@8		; CPen::`RTTI Base Class Array'
	DD	FLAT:??_R1A@?0A@EA@CGdiObject@@8
	DD	FLAT:??_R1A@?0A@EA@CObject@@8
rdata$r	ENDS
;	COMDAT ??_R3CPen@@8
rdata$r	SEGMENT
??_R3CPen@@8 DD	00H					; CPen::`RTTI Class Hierarchy Descriptor'
	DD	00H
	DD	03H
	DD	FLAT:??_R2CPen@@8
rdata$r	ENDS
;	COMDAT ??_R0?AVCPen@@@8
data$rs	SEGMENT
??_R0?AVCPen@@@8 DD FLAT:??_7type_info@@6B@		; CPen `RTTI Type Descriptor'
	DD	00H
	DB	'.?AVCPen@@', 00H
data$rs	ENDS
;	COMDAT ??_R4CPen@@6B@
rdata$r	SEGMENT
??_R4CPen@@6B@ DD 00H					; CPen::`RTTI Complete Object Locator'
	DD	00H
	DD	00H
	DD	FLAT:??_R0?AVCPen@@@8
	DD	FLAT:??_R3CPen@@8
rdata$r	ENDS
;	COMDAT ??_R1A@?0A@EA@CGdiObject@@8
rdata$r	SEGMENT
??_R1A@?0A@EA@CGdiObject@@8 DD FLAT:??_R0?AVCGdiObject@@@8 ; CGdiObject::`RTTI Base Class Descriptor at (0,-1,0,64)'
	DD	01H
	DD	00H
	DD	0ffffffffH
	DD	00H
	DD	040H
	DD	FLAT:??_R3CGdiObject@@8
rdata$r	ENDS
;	COMDAT ??_R2CGdiObject@@8
rdata$r	SEGMENT
??_R2CGdiObject@@8 DD FLAT:??_R1A@?0A@EA@CGdiObject@@8	; CGdiObject::`RTTI Base Class Array'
	DD	FLAT:??_R1A@?0A@EA@CObject@@8
rdata$r	ENDS
;	COMDAT ??_R3CGdiObject@@8
rdata$r	SEGMENT
??_R3CGdiObject@@8 DD 00H				; CGdiObject::`RTTI Class Hierarchy Descriptor'
	DD	00H
	DD	02H
	DD	FLAT:??_R2CGdiObject@@8
rdata$r	ENDS
;	COMDAT ??_R0?AVCGdiObject@@@8
data$rs	SEGMENT
??_R0?AVCGdiObject@@@8 DD FLAT:??_7type_info@@6B@	; CGdiObject `RTTI Type Descriptor'
	DD	00H
	DB	'.?AVCGdiObject@@', 00H
data$rs	ENDS
;	COMDAT ??_R4CGdiObject@@6B@
rdata$r	SEGMENT
??_R4CGdiObject@@6B@ DD 00H				; CGdiObject::`RTTI Complete Object Locator'
	DD	00H
	DD	00H
	DD	FLAT:??_R0?AVCGdiObject@@@8
	DD	FLAT:??_R3CGdiObject@@8
rdata$r	ENDS
;	COMDAT ??_R1A@?0A@EA@CObject@@8
rdata$r	SEGMENT
??_R1A@?0A@EA@CObject@@8 DD FLAT:??_R0?AVCObject@@@8	; CObject::`RTTI Base Class Descriptor at (0,-1,0,64)'
	DD	00H
	DD	00H
	DD	0ffffffffH
	DD	00H
	DD	040H
	DD	FLAT:??_R3CObject@@8
rdata$r	ENDS
;	COMDAT ??_R2CObject@@8
rdata$r	SEGMENT
??_R2CObject@@8 DD FLAT:??_R1A@?0A@EA@CObject@@8	; CObject::`RTTI Base Class Array'
rdata$r	ENDS
;	COMDAT ??_R3CObject@@8
rdata$r	SEGMENT
??_R3CObject@@8 DD 00H					; CObject::`RTTI Class Hierarchy Descriptor'
	DD	00H
	DD	01H
	DD	FLAT:??_R2CObject@@8
rdata$r	ENDS
;	COMDAT ??_R0?AVCObject@@@8
data$rs	SEGMENT
??_R0?AVCObject@@@8 DD FLAT:??_7type_info@@6B@		; CObject `RTTI Type Descriptor'
	DD	00H
	DB	'.?AVCObject@@', 00H
data$rs	ENDS
;	COMDAT ??_7CXTabCtrl@@6B@
CONST	SEGMENT
??_7CXTabCtrl@@6B@ DD FLAT:??_R4CXTabCtrl@@6B@		; CXTabCtrl::`vftable'
	DD	FLAT:?GetRuntimeClass@CTabCtrl@@UBEPAUCRuntimeClass@@XZ
	DD	FLAT:??_ECXTabCtrl@@UAEPAXI@Z
	DD	FLAT:?Serialize@CObject@@UAEXAAVCArchive@@@Z
	DD	FLAT:?AssertValid@CObject@@UBEXXZ
	DD	FLAT:?Dump@CObject@@UBEXAAVCDumpContext@@@Z
	DD	FLAT:?OnCmdMsg@CCmdTarget@@UAEHIHPAXPAUAFX_CMDHANDLERINFO@@@Z
	DD	FLAT:?OnFinalRelease@CWnd@@UAEXXZ
	DD	FLAT:?IsInvokeAllowed@CCmdTarget@@UAEHJ@Z
	DD	FLAT:?GetDispatchIID@CCmdTarget@@UAEHPAU_GUID@@@Z
	DD	FLAT:?GetTypeInfoCount@CCmdTarget@@UAEIXZ
	DD	FLAT:?GetTypeLibCache@CCmdTarget@@UAEPAVCTypeLibCache@@XZ
	DD	FLAT:?GetTypeLib@CCmdTarget@@UAEJKPAPAUITypeLib@@@Z
	DD	FLAT:?GetMessageMap@CXTabCtrl@@MBEPBUAFX_MSGMAP@@XZ
	DD	FLAT:?GetCommandMap@CCmdTarget@@MBEPBUAFX_OLECMDMAP@@XZ
	DD	FLAT:?GetDispatchMap@CCmdTarget@@MBEPBUAFX_DISPMAP@@XZ
	DD	FLAT:?GetConnectionMap@CCmdTarget@@MBEPBUAFX_CONNECTIONMAP@@XZ
	DD	FLAT:?GetInterfaceMap@CWnd@@MBEPBUAFX_INTERFACEMAP@@XZ
	DD	FLAT:?GetEventSinkMap@CCmdTarget@@MBEPBUAFX_EVENTSINKMAP@@XZ
	DD	FLAT:?OnCreateAggregates@CCmdTarget@@UAEHXZ
	DD	FLAT:?GetInterfaceHook@CCmdTarget@@UAEPAUIUnknown@@PBX@Z
	DD	FLAT:?GetExtraConnectionPoints@CCmdTarget@@MAEHPAVCPtrArray@@@Z
	DD	FLAT:?GetConnectionHook@CCmdTarget@@MAEPAUIConnectionPoint@@ABU_GUID@@@Z
	DD	FLAT:?PreSubclassWindow@CXTabCtrl@@MAEXXZ
	DD	FLAT:?Create@CWnd@@UAEHPBD0KABUtagRECT@@PAV1@IPAUCCreateContext@@@Z
	DD	FLAT:?CreateEx@CWnd@@UAEHKPBD0KABUtagRECT@@PAV1@IPAX@Z
	DD	FLAT:?CreateEx@CWnd@@UAEHKPBD0KHHHHPAUHWND__@@PAUHMENU__@@PAX@Z
	DD	FLAT:?DestroyWindow@CWnd@@UAEHXZ
	DD	FLAT:?PreCreateWindow@CWnd@@UAEHAAUtagCREATESTRUCTA@@@Z
	DD	FLAT:?CalcWindowRect@CWnd@@UAEXPAUtagRECT@@I@Z
	DD	FLAT:?GetMenu@CWnd@@UBEPAVCMenu@@XZ
	DD	FLAT:?SetMenu@CWnd@@UAEHPAVCMenu@@@Z
	DD	FLAT:?OnToolHitTest@CWnd@@UBEHVCPoint@@PAUtagTOOLINFOA@@@Z
	DD	FLAT:?GetScrollBarCtrl@CWnd@@UBEPAVCScrollBar@@H@Z
	DD	FLAT:?WinHelpA@CWnd@@UAEXKI@Z
	DD	FLAT:?HtmlHelpA@CWnd@@UAEXKI@Z
	DD	FLAT:?WinHelpInternal@CWnd@@UAEXKI@Z
	DD	FLAT:?ContinueModal@CWnd@@UAEHXZ
	DD	FLAT:?EndModalLoop@CWnd@@UAEXH@Z
	DD	FLAT:?OnDrawIconicThumbnailOrLivePreview@CWnd@@UAEXAAVCDC@@VCRect@@VCSize@@HAAH@Z
	DD	FLAT:?EnsureStdObj@CWnd@@UAEJXZ
	DD	FLAT:?get_accParent@CWnd@@UAEJPAPAUIDispatch@@@Z
	DD	FLAT:?get_accChildCount@CWnd@@UAEJPAJ@Z
	DD	FLAT:?get_accChild@CWnd@@UAEJUtagVARIANT@@PAPAUIDispatch@@@Z
	DD	FLAT:?get_accName@CWnd@@UAEJUtagVARIANT@@PAPA_W@Z
	DD	FLAT:?get_accValue@CWnd@@UAEJUtagVARIANT@@PAPA_W@Z
	DD	FLAT:?get_accDescription@CWnd@@UAEJUtagVARIANT@@PAPA_W@Z
	DD	FLAT:?get_accRole@CWnd@@UAEJUtagVARIANT@@PAU2@@Z
	DD	FLAT:?get_accState@CWnd@@UAEJUtagVARIANT@@PAU2@@Z
	DD	FLAT:?get_accHelp@CWnd@@UAEJUtagVARIANT@@PAPA_W@Z
	DD	FLAT:?get_accHelpTopic@CWnd@@UAEJPAPA_WUtagVARIANT@@PAJ@Z
	DD	FLAT:?get_accKeyboardShortcut@CWnd@@UAEJUtagVARIANT@@PAPA_W@Z
	DD	FLAT:?get_accFocus@CWnd@@UAEJPAUtagVARIANT@@@Z
	DD	FLAT:?get_accSelection@CWnd@@UAEJPAUtagVARIANT@@@Z
	DD	FLAT:?get_accDefaultAction@CWnd@@UAEJUtagVARIANT@@PAPA_W@Z
	DD	FLAT:?accSelect@CWnd@@UAEJJUtagVARIANT@@@Z
	DD	FLAT:?accLocation@CWnd@@UAEJPAJ000UtagVARIANT@@@Z
	DD	FLAT:?accNavigate@CWnd@@UAEJJUtagVARIANT@@PAU2@@Z
	DD	FLAT:?accHitTest@CWnd@@UAEJJJPAUtagVARIANT@@@Z
	DD	FLAT:?accDoDefaultAction@CWnd@@UAEJUtagVARIANT@@@Z
	DD	FLAT:?put_accName@CWnd@@UAEJUtagVARIANT@@PA_W@Z
	DD	FLAT:?put_accValue@CWnd@@UAEJUtagVARIANT@@PA_W@Z
	DD	FLAT:?SetProxy@CWnd@@UAEJPAUIAccessibleProxy@@@Z
	DD	FLAT:?CreateAccessibleProxy@CWnd@@UAEJIJPAJ@Z
	DD	FLAT:?OnCommand@CWnd@@MAEHIJ@Z
	DD	FLAT:?OnNotify@CWnd@@MAEHIJPAJ@Z
	DD	FLAT:?GetSuperWndProcAddr@CWnd@@MAEPAP6GJPAUHWND__@@IIJ@ZXZ
	DD	FLAT:?DoDataExchange@CWnd@@MAEXPAVCDataExchange@@@Z
	DD	FLAT:?BeginModalState@CWnd@@UAEXXZ
	DD	FLAT:?EndModalState@CWnd@@UAEXXZ
	DD	FLAT:?PreTranslateMessage@CWnd@@UAEHPAUtagMSG@@@Z
	DD	FLAT:?OnAmbientProperty@CWnd@@UAEHPAVCOleControlSite@@JPAUtagVARIANT@@@Z
	DD	FLAT:?WindowProc@CWnd@@MAEJIIJ@Z
	DD	FLAT:?OnWndMsg@CWnd@@MAEHIIJPAJ@Z
	DD	FLAT:?DefWindowProcA@CWnd@@MAEJIIJ@Z
	DD	FLAT:?PostNcDestroy@CWnd@@MAEXXZ
	DD	FLAT:?OnChildNotify@CTabCtrl@@MAEHIIJPAJ@Z
	DD	FLAT:?OnTouchInputs@CWnd@@MAEHIPAUtagTOUCHINPUT@@@Z
	DD	FLAT:?OnTouchInput@CWnd@@MAEHVCPoint@@HHPAUtagTOUCHINPUT@@@Z
	DD	FLAT:?GetGestureStatus@CWnd@@MAEKVCPoint@@@Z
	DD	FLAT:?OnGestureZoom@CWnd@@MAEHVCPoint@@J@Z
	DD	FLAT:?OnGesturePan@CWnd@@MAEHVCPoint@@0@Z
	DD	FLAT:?OnGestureRotate@CWnd@@MAEHVCPoint@@N@Z
	DD	FLAT:?OnGestureTwoFingerTap@CWnd@@MAEHVCPoint@@@Z
	DD	FLAT:?OnGesturePressAndTap@CWnd@@MAEHVCPoint@@J@Z
	DD	FLAT:?ResizeDynamicLayout@CWnd@@MAEXXZ
	DD	FLAT:?CheckAutoCenter@CWnd@@UAEHXZ
	DD	FLAT:?IsFrameWnd@CWnd@@UBEHXZ
	DD	FLAT:?CreateControlContainer@CWnd@@MAEHPAPAVCOleControlContainer@@@Z
	DD	FLAT:?CreateControlSite@CWnd@@MAEHPAVCOleControlContainer@@PAPAVCOleControlSite@@IABU_GUID@@@Z
	DD	FLAT:?SetOccDialogInfo@CWnd@@MAEHPAU_AFX_OCC_DIALOG_INFO@@@Z
	DD	FLAT:?GetOccDialogInfo@CWnd@@MAEPAU_AFX_OCC_DIALOG_INFO@@XZ
	DD	FLAT:?Create@CTabCtrl@@UAEHKABUtagRECT@@PAVCWnd@@I@Z
	DD	FLAT:?CreateEx@CTabCtrl@@UAEHKKABUtagRECT@@PAVCWnd@@I@Z
	DD	FLAT:?DrawItem@CXTabCtrl@@MAEXPAUtagDRAWITEMSTRUCT@@@Z
CONST	ENDS
;	COMDAT ??_7?$CArray@HH@@6B@
CONST	SEGMENT
??_7?$CArray@HH@@6B@ DD FLAT:??_R4?$CArray@HH@@6B@	; CArray<int,int>::`vftable'
	DD	FLAT:?GetRuntimeClass@CObject@@UBEPAUCRuntimeClass@@XZ
	DD	FLAT:??_E?$CArray@HH@@UAEPAXI@Z
	DD	FLAT:?Serialize@?$CArray@HH@@UAEXAAVCArchive@@@Z
	DD	FLAT:?AssertValid@CObject@@UBEXXZ
	DD	FLAT:?Dump@CObject@@UBEXAAVCDumpContext@@@Z
CONST	ENDS
;	COMDAT ??_7CTabCtrl@@6B@
CONST	SEGMENT
??_7CTabCtrl@@6B@ DD FLAT:??_R4CTabCtrl@@6B@		; CTabCtrl::`vftable'
	DD	FLAT:?GetRuntimeClass@CTabCtrl@@UBEPAUCRuntimeClass@@XZ
	DD	FLAT:??_ECTabCtrl@@UAEPAXI@Z
	DD	FLAT:?Serialize@CObject@@UAEXAAVCArchive@@@Z
	DD	FLAT:?AssertValid@CObject@@UBEXXZ
	DD	FLAT:?Dump@CObject@@UBEXAAVCDumpContext@@@Z
	DD	FLAT:?OnCmdMsg@CCmdTarget@@UAEHIHPAXPAUAFX_CMDHANDLERINFO@@@Z
	DD	FLAT:?OnFinalRelease@CWnd@@UAEXXZ
	DD	FLAT:?IsInvokeAllowed@CCmdTarget@@UAEHJ@Z
	DD	FLAT:?GetDispatchIID@CCmdTarget@@UAEHPAU_GUID@@@Z
	DD	FLAT:?GetTypeInfoCount@CCmdTarget@@UAEIXZ
	DD	FLAT:?GetTypeLibCache@CCmdTarget@@UAEPAVCTypeLibCache@@XZ
	DD	FLAT:?GetTypeLib@CCmdTarget@@UAEJKPAPAUITypeLib@@@Z
	DD	FLAT:?GetMessageMap@CTabCtrl@@MBEPBUAFX_MSGMAP@@XZ
	DD	FLAT:?GetCommandMap@CCmdTarget@@MBEPBUAFX_OLECMDMAP@@XZ
	DD	FLAT:?GetDispatchMap@CCmdTarget@@MBEPBUAFX_DISPMAP@@XZ
	DD	FLAT:?GetConnectionMap@CCmdTarget@@MBEPBUAFX_CONNECTIONMAP@@XZ
	DD	FLAT:?GetInterfaceMap@CWnd@@MBEPBUAFX_INTERFACEMAP@@XZ
	DD	FLAT:?GetEventSinkMap@CCmdTarget@@MBEPBUAFX_EVENTSINKMAP@@XZ
	DD	FLAT:?OnCreateAggregates@CCmdTarget@@UAEHXZ
	DD	FLAT:?GetInterfaceHook@CCmdTarget@@UAEPAUIUnknown@@PBX@Z
	DD	FLAT:?GetExtraConnectionPoints@CCmdTarget@@MAEHPAVCPtrArray@@@Z
	DD	FLAT:?GetConnectionHook@CCmdTarget@@MAEPAUIConnectionPoint@@ABU_GUID@@@Z
	DD	FLAT:?PreSubclassWindow@CWnd@@UAEXXZ
	DD	FLAT:?Create@CWnd@@UAEHPBD0KABUtagRECT@@PAV1@IPAUCCreateContext@@@Z
	DD	FLAT:?CreateEx@CWnd@@UAEHKPBD0KABUtagRECT@@PAV1@IPAX@Z
	DD	FLAT:?CreateEx@CWnd@@UAEHKPBD0KHHHHPAUHWND__@@PAUHMENU__@@PAX@Z
	DD	FLAT:?DestroyWindow@CWnd@@UAEHXZ
	DD	FLAT:?PreCreateWindow@CWnd@@UAEHAAUtagCREATESTRUCTA@@@Z
	DD	FLAT:?CalcWindowRect@CWnd@@UAEXPAUtagRECT@@I@Z
	DD	FLAT:?GetMenu@CWnd@@UBEPAVCMenu@@XZ
	DD	FLAT:?SetMenu@CWnd@@UAEHPAVCMenu@@@Z
	DD	FLAT:?OnToolHitTest@CWnd@@UBEHVCPoint@@PAUtagTOOLINFOA@@@Z
	DD	FLAT:?GetScrollBarCtrl@CWnd@@UBEPAVCScrollBar@@H@Z
	DD	FLAT:?WinHelpA@CWnd@@UAEXKI@Z
	DD	FLAT:?HtmlHelpA@CWnd@@UAEXKI@Z
	DD	FLAT:?WinHelpInternal@CWnd@@UAEXKI@Z
	DD	FLAT:?ContinueModal@CWnd@@UAEHXZ
	DD	FLAT:?EndModalLoop@CWnd@@UAEXH@Z
	DD	FLAT:?OnDrawIconicThumbnailOrLivePreview@CWnd@@UAEXAAVCDC@@VCRect@@VCSize@@HAAH@Z
	DD	FLAT:?EnsureStdObj@CWnd@@UAEJXZ
	DD	FLAT:?get_accParent@CWnd@@UAEJPAPAUIDispatch@@@Z
	DD	FLAT:?get_accChildCount@CWnd@@UAEJPAJ@Z
	DD	FLAT:?get_accChild@CWnd@@UAEJUtagVARIANT@@PAPAUIDispatch@@@Z
	DD	FLAT:?get_accName@CWnd@@UAEJUtagVARIANT@@PAPA_W@Z
	DD	FLAT:?get_accValue@CWnd@@UAEJUtagVARIANT@@PAPA_W@Z
	DD	FLAT:?get_accDescription@CWnd@@UAEJUtagVARIANT@@PAPA_W@Z
	DD	FLAT:?get_accRole@CWnd@@UAEJUtagVARIANT@@PAU2@@Z
	DD	FLAT:?get_accState@CWnd@@UAEJUtagVARIANT@@PAU2@@Z
	DD	FLAT:?get_accHelp@CWnd@@UAEJUtagVARIANT@@PAPA_W@Z
	DD	FLAT:?get_accHelpTopic@CWnd@@UAEJPAPA_WUtagVARIANT@@PAJ@Z
	DD	FLAT:?get_accKeyboardShortcut@CWnd@@UAEJUtagVARIANT@@PAPA_W@Z
	DD	FLAT:?get_accFocus@CWnd@@UAEJPAUtagVARIANT@@@Z
	DD	FLAT:?get_accSelection@CWnd@@UAEJPAUtagVARIANT@@@Z
	DD	FLAT:?get_accDefaultAction@CWnd@@UAEJUtagVARIANT@@PAPA_W@Z
	DD	FLAT:?accSelect@CWnd@@UAEJJUtagVARIANT@@@Z
	DD	FLAT:?accLocation@CWnd@@UAEJPAJ000UtagVARIANT@@@Z
	DD	FLAT:?accNavigate@CWnd@@UAEJJUtagVARIANT@@PAU2@@Z
	DD	FLAT:?accHitTest@CWnd@@UAEJJJPAUtagVARIANT@@@Z
	DD	FLAT:?accDoDefaultAction@CWnd@@UAEJUtagVARIANT@@@Z
	DD	FLAT:?put_accName@CWnd@@UAEJUtagVARIANT@@PA_W@Z
	DD	FLAT:?put_accValue@CWnd@@UAEJUtagVARIANT@@PA_W@Z
	DD	FLAT:?SetProxy@CWnd@@UAEJPAUIAccessibleProxy@@@Z
	DD	FLAT:?CreateAccessibleProxy@CWnd@@UAEJIJPAJ@Z
	DD	FLAT:?OnCommand@CWnd@@MAEHIJ@Z
	DD	FLAT:?OnNotify@CWnd@@MAEHIJPAJ@Z
	DD	FLAT:?GetSuperWndProcAddr@CWnd@@MAEPAP6GJPAUHWND__@@IIJ@ZXZ
	DD	FLAT:?DoDataExchange@CWnd@@MAEXPAVCDataExchange@@@Z
	DD	FLAT:?BeginModalState@CWnd@@UAEXXZ
	DD	FLAT:?EndModalState@CWnd@@UAEXXZ
	DD	FLAT:?PreTranslateMessage@CWnd@@UAEHPAUtagMSG@@@Z
	DD	FLAT:?OnAmbientProperty@CWnd@@UAEHPAVCOleControlSite@@JPAUtagVARIANT@@@Z
	DD	FLAT:?WindowProc@CWnd@@MAEJIIJ@Z
	DD	FLAT:?OnWndMsg@CWnd@@MAEHIIJPAJ@Z
	DD	FLAT:?DefWindowProcA@CWnd@@MAEJIIJ@Z
	DD	FLAT:?PostNcDestroy@CWnd@@MAEXXZ
	DD	FLAT:?OnChildNotify@CTabCtrl@@MAEHIIJPAJ@Z
	DD	FLAT:?OnTouchInputs@CWnd@@MAEHIPAUtagTOUCHINPUT@@@Z
	DD	FLAT:?OnTouchInput@CWnd@@MAEHVCPoint@@HHPAUtagTOUCHINPUT@@@Z
	DD	FLAT:?GetGestureStatus@CWnd@@MAEKVCPoint@@@Z
	DD	FLAT:?OnGestureZoom@CWnd@@MAEHVCPoint@@J@Z
	DD	FLAT:?OnGesturePan@CWnd@@MAEHVCPoint@@0@Z
	DD	FLAT:?OnGestureRotate@CWnd@@MAEHVCPoint@@N@Z
	DD	FLAT:?OnGestureTwoFingerTap@CWnd@@MAEHVCPoint@@@Z
	DD	FLAT:?OnGesturePressAndTap@CWnd@@MAEHVCPoint@@J@Z
	DD	FLAT:?ResizeDynamicLayout@CWnd@@MAEXXZ
	DD	FLAT:?CheckAutoCenter@CWnd@@UAEHXZ
	DD	FLAT:?IsFrameWnd@CWnd@@UBEHXZ
	DD	FLAT:?CreateControlContainer@CWnd@@MAEHPAPAVCOleControlContainer@@@Z
	DD	FLAT:?CreateControlSite@CWnd@@MAEHPAVCOleControlContainer@@PAPAVCOleControlSite@@IABU_GUID@@@Z
	DD	FLAT:?SetOccDialogInfo@CWnd@@MAEHPAU_AFX_OCC_DIALOG_INFO@@@Z
	DD	FLAT:?GetOccDialogInfo@CWnd@@MAEPAU_AFX_OCC_DIALOG_INFO@@XZ
	DD	FLAT:?Create@CTabCtrl@@UAEHKABUtagRECT@@PAVCWnd@@I@Z
	DD	FLAT:?CreateEx@CTabCtrl@@UAEHKKABUtagRECT@@PAVCWnd@@I@Z
	DD	FLAT:?DrawItem@CTabCtrl@@UAEXPAUtagDRAWITEMSTRUCT@@@Z
CONST	ENDS
;	COMDAT ??_C@_0N@OMEMOKLE@?$CFTs?5?$CI?$CFTs?3?$CFd?$CJ@
CONST	SEGMENT
??_C@_0N@OMEMOKLE@?$CFTs?5?$CI?$CFTs?3?$CFd?$CJ@ DB '%Ts (%Ts:%d)', 00H ; `string'
CONST	ENDS
;	COMDAT ??_C@_0BB@HBOOMJBF@?$CFTs?5?$CI?$CFTs?3?$CFd?$CJ?6?$CFTs@
CONST	SEGMENT
??_C@_0BB@HBOOMJBF@?$CFTs?5?$CI?$CFTs?3?$CFd?$CJ?6?$CFTs@ DB '%Ts (%Ts:%d'
	DB	')', 0aH, '%Ts', 00H				; `string'
CONST	ENDS
;	COMDAT ??_C@_0BP@OIEOKIDM@Exception?5thrown?5in?5destructor@
CONST	SEGMENT
??_C@_0BP@OIEOKIDM@Exception?5thrown?5in?5destructor@ DB 'Exception throw'
	DB	'n in destructor', 00H			; `string'
CONST	ENDS
;	COMDAT ??_C@_0HD@JJCHHHNK@C?3?2Program?5Files?5?$CIx86?$CJ?2Microsof@
CONST	SEGMENT
??_C@_0HD@JJCHHHNK@C?3?2Program?5Files?5?$CIx86?$CJ?2Microsof@ DB 'C:\Pro'
	DB	'gram Files (x86)\Microsoft Visual Studio\2019\Community\VC\To'
	DB	'ols\MSVC\14.29.30133\atlmfc\include\afxwin1.inl', 00H ; `string'
CONST	ENDS
;	COMDAT ??_7CPen@@6B@
CONST	SEGMENT
??_7CPen@@6B@ DD FLAT:??_R4CPen@@6B@			; CPen::`vftable'
	DD	FLAT:?GetRuntimeClass@CPen@@UBEPAUCRuntimeClass@@XZ
	DD	FLAT:??_ECPen@@UAEPAXI@Z
	DD	FLAT:?Serialize@CObject@@UAEXAAVCArchive@@@Z
	DD	FLAT:?AssertValid@CObject@@UBEXXZ
	DD	FLAT:?Dump@CObject@@UBEXAAVCDumpContext@@@Z
CONST	ENDS
;	COMDAT ??_7CGdiObject@@6B@
CONST	SEGMENT
??_7CGdiObject@@6B@ DD FLAT:??_R4CGdiObject@@6B@	; CGdiObject::`vftable'
	DD	FLAT:?GetRuntimeClass@CGdiObject@@UBEPAUCRuntimeClass@@XZ
	DD	FLAT:??_ECGdiObject@@UAEPAXI@Z
	DD	FLAT:?Serialize@CObject@@UAEXAAVCArchive@@@Z
	DD	FLAT:?AssertValid@CObject@@UBEXXZ
	DD	FLAT:?Dump@CObject@@UBEXAAVCDumpContext@@@Z
CONST	ENDS
;	COMDAT ??_R0PAVCException@@@8
data$r	SEGMENT
??_R0PAVCException@@@8 DD FLAT:??_7type_info@@6B@	; CException * `RTTI Type Descriptor'
	DD	00H
	DB	'.PAVCException@@', 00H
data$r	ENDS
;	COMDAT xdata$x
xdata$x	SEGMENT
__unwindtable$??_GCXTabCtrl@@UAEPAXI@Z DD 0ffffffffH
	DD	FLAT:___std_terminate
__ehfuncinfo$??_GCXTabCtrl@@UAEPAXI@Z DD 019930522H
	DD	01H
	DD	FLAT:__unwindtable$??_GCXTabCtrl@@UAEPAXI@Z
	DD	2 DUP(00H)
	DD	2 DUP(00H)
	DD	00H
	DD	05H
xdata$x	ENDS
;	COMDAT xdata$x
xdata$x	SEGMENT
__unwindtable$?OnPaint@CXTabCtrl@@IAEXXZ DD 0ffffffffH
	DD	FLAT:__unwindfunclet$?OnPaint@CXTabCtrl@@IAEXXZ$0
__ehfuncinfo$?OnPaint@CXTabCtrl@@IAEXXZ DD 019930522H
	DD	01H
	DD	FLAT:__unwindtable$?OnPaint@CXTabCtrl@@IAEXXZ
	DD	2 DUP(00H)
	DD	2 DUP(00H)
	DD	00H
	DD	01H
xdata$x	ENDS
;	COMDAT xdata$x
xdata$x	SEGMENT
__unwindtable$?OnLButtonUp@CXTabCtrl@@IAEXIVCPoint@@@Z DD 0ffffffffH
	DD	00H
	DD	00H
	DD	00H
__ehfuncinfo$?OnLButtonUp@CXTabCtrl@@IAEXIVCPoint@@@Z DD 019930522H
	DD	02H
	DD	FLAT:__unwindtable$?OnLButtonUp@CXTabCtrl@@IAEXIVCPoint@@@Z
	DD	2 DUP(00H)
	DD	2 DUP(00H)
	DD	00H
	DD	01H
xdata$x	ENDS
;	COMDAT xdata$x
xdata$x	SEGMENT
__unwindtable$?OnLButtonDown@CXTabCtrl@@IAEXIVCPoint@@@Z DD 0ffffffffH
	DD	00H
	DD	00H
	DD	00H
__ehfuncinfo$?OnLButtonDown@CXTabCtrl@@IAEXIVCPoint@@@Z DD 019930522H
	DD	02H
	DD	FLAT:__unwindtable$?OnLButtonDown@CXTabCtrl@@IAEXIVCPoint@@@Z
	DD	2 DUP(00H)
	DD	2 DUP(00H)
	DD	00H
	DD	01H
xdata$x	ENDS
;	COMDAT xdata$x
xdata$x	SEGMENT
__unwindtable$?OnMouseMove@CXTabCtrl@@IAEXIVCPoint@@@Z DD 0ffffffffH
	DD	00H
	DD	00H
	DD	00H
__ehfuncinfo$?OnMouseMove@CXTabCtrl@@IAEXIVCPoint@@@Z DD 019930522H
	DD	02H
	DD	FLAT:__unwindtable$?OnMouseMove@CXTabCtrl@@IAEXIVCPoint@@@Z
	DD	2 DUP(00H)
	DD	2 DUP(00H)
	DD	00H
	DD	01H
xdata$x	ENDS
;	COMDAT xdata$x
xdata$x	SEGMENT
__ehfuncinfo$??1CXTabCtrl@@UAE@XZ DD 019930522H
	DD	00H
	DD	00H
	DD	2 DUP(00H)
	DD	2 DUP(00H)
	DD	00H
	DD	05H
xdata$x	ENDS
;	COMDAT xdata$x
xdata$x	SEGMENT
__unwindtable$?DrawItem@CXTabCtrl@@MAEXPAUtagDRAWITEMSTRUCT@@@Z DD 0ffffffffH
	DD	FLAT:__unwindfunclet$?DrawItem@CXTabCtrl@@MAEXPAUtagDRAWITEMSTRUCT@@@Z$1
	DD	0ffffffffH
	DD	FLAT:__unwindfunclet$?DrawItem@CXTabCtrl@@MAEXPAUtagDRAWITEMSTRUCT@@@Z$2
__ehfuncinfo$?DrawItem@CXTabCtrl@@MAEXPAUtagDRAWITEMSTRUCT@@@Z DD 019930522H
	DD	02H
	DD	FLAT:__unwindtable$?DrawItem@CXTabCtrl@@MAEXPAUtagDRAWITEMSTRUCT@@@Z
	DD	2 DUP(00H)
	DD	2 DUP(00H)
	DD	00H
	DD	01H
xdata$x	ENDS
;	COMDAT xdata$x
xdata$x	SEGMENT
__unwindtable$?DrawLine@CXTabCtrl@@QAEXVCPoint@@0PAVCDC@@K@Z DD 0ffffffffH
	DD	FLAT:__unwindfunclet$?DrawLine@CXTabCtrl@@QAEXVCPoint@@0PAVCDC@@K@Z$0
__ehfuncinfo$?DrawLine@CXTabCtrl@@QAEXVCPoint@@0PAVCDC@@K@Z DD 019930522H
	DD	01H
	DD	FLAT:__unwindtable$?DrawLine@CXTabCtrl@@QAEXVCPoint@@0PAVCDC@@K@Z
	DD	2 DUP(00H)
	DD	2 DUP(00H)
	DD	00H
	DD	01H
xdata$x	ENDS
;	COMDAT xdata$x
xdata$x	SEGMENT
__catchsym$??1CGdiObject@@UAE@XZ$3 DD 00H
	DD	FLAT:??_R0PAVCException@@@8
	DD	0fffffde4H
	DD	FLAT:__catch$??1CGdiObject@@UAE@XZ$0
__tryblocktable$??1CGdiObject@@UAE@XZ DD 00H
	DD	00H
	DD	02H
	DD	01H
	DD	FLAT:__catchsym$??1CGdiObject@@UAE@XZ$3
__unwindtable$??1CGdiObject@@UAE@XZ DD 0ffffffffH
	DD	00H
	DD	0ffffffffH
	DD	00H
	DD	01H
	DD	FLAT:__unwindfunclet$??1CGdiObject@@UAE@XZ$2
__ehfuncinfo$??1CGdiObject@@UAE@XZ DD 019930522H
	DD	03H
	DD	FLAT:__unwindtable$??1CGdiObject@@UAE@XZ
	DD	01H
	DD	FLAT:__tryblocktable$??1CGdiObject@@UAE@XZ
	DD	2 DUP(00H)
	DD	00H
	DD	05H
xdata$x	ENDS
; Function compile flags: /Ogtp
; File C:\Program Files (x86)\Microsoft Visual Studio\2019\Community\VC\Tools\MSVC\14.29.30133\atlmfc\include\afxtempl.h
; File C:\Program Files (x86)\Microsoft Visual Studio\2019\Community\VC\Tools\MSVC\14.29.30133\atlmfc\include\afx.inl
; File C:\Program Files (x86)\Microsoft Visual Studio\2019\Community\VC\Tools\MSVC\14.29.30133\atlmfc\include\afxtempl.h
; File C:\Program Files (x86)\Microsoft Visual Studio\2019\Community\VC\Tools\MSVC\14.29.30133\atlmfc\include\afx.inl
; File C:\Program Files (x86)\Microsoft Visual Studio\2019\Community\VC\Tools\MSVC\14.29.30133\atlmfc\include\afxtempl.h
; File C:\Program Files (x86)\Microsoft Visual Studio\2019\Community\VC\Tools\MSVC\14.29.30133\atlmfc\include\afx.inl
; File C:\Program Files (x86)\Microsoft Visual Studio\2019\Community\VC\Tools\MSVC\14.29.30133\atlmfc\include\afxtempl.h
;	COMDAT ??$SerializeElements@H@@YGXAAVCArchive@@PAHH@Z
_TEXT	SEGMENT
_ar$ = 8						; size = 4
_pElements$ = 12					; size = 4
_nCount$ = 16						; size = 4
??$SerializeElements@H@@YGXAAVCArchive@@PAHH@Z PROC	; SerializeElements<int>, COMDAT

; 67   : {

  00000	55		 push	 ebp
  00001	8b ec		 mov	 ebp, esp

; 68   : 	ENSURE(nCount == 0 || pElements != NULL);

  00003	8b 4d 0c	 mov	 ecx, DWORD PTR _pElements$[ebp]
  00006	53		 push	 ebx
  00007	56		 push	 esi
  00008	8b 75 10	 mov	 esi, DWORD PTR _nCount$[ebp]
  0000b	57		 push	 edi
  0000c	85 f6		 test	 esi, esi
  0000e	74 08		 je	 SHORT $LN2@SerializeE
  00010	85 c9		 test	 ecx, ecx
  00012	0f 84 89 00 00
	00		 je	 $LN34@SerializeE
$LN2@SerializeE:
; File C:\Program Files (x86)\Microsoft Visual Studio\2019\Community\VC\Tools\MSVC\14.29.30133\atlmfc\include\afx.inl

; 212  : 	{ return (m_nMode & CArchive::load) == 0; }

  00018	8b 55 08	 mov	 edx, DWORD PTR _ar$[ebp]
  0001b	8b 42 18	 mov	 eax, DWORD PTR [edx+24]
  0001e	f7 d0		 not	 eax
  00020	a8 01		 test	 al, 1
; File C:\Program Files (x86)\Microsoft Visual Studio\2019\Community\VC\Tools\MSVC\14.29.30133\atlmfc\include\afxtempl.h

; 73   : 	if (ar.IsStoring())

  00022	74 3c		 je	 SHORT $LN10@SerializeE

; 74   : 	{
; 75   : 		TYPE* pData;
; 76   : 		UINT_PTR nElementsLeft;
; 77   : 
; 78   : 		nElementsLeft = nCount;
; 79   : 		pData = pElements;
; 80   : 		while( nElementsLeft > 0 )

  00024	85 f6		 test	 esi, esi
  00026	74 31		 je	 SHORT $LN8@SerializeE
  00028	0f 1f 84 00 00
	00 00 00	 npad	 8
$LL5@SerializeE:

; 81   : 		{
; 82   : 			UINT nElementsToWrite;
; 83   : 
; 84   : 			nElementsToWrite = UINT(__min(nElementsLeft, INT_MAX/sizeof(TYPE)));

  00030	bb ff ff ff 1f	 mov	 ebx, 536870911		; 1fffffffH
  00035	3b f3		 cmp	 esi, ebx
  00037	0f 42 de	 cmovb	 ebx, esi

; 85   : 			ar.Write(pData, nElementsToWrite*sizeof(TYPE));

  0003a	8d 3c 9d 00 00
	00 00		 lea	 edi, DWORD PTR [ebx*4]
  00041	57		 push	 edi
  00042	51		 push	 ecx
  00043	8b ca		 mov	 ecx, edx
  00045	e8 00 00 00 00	 call	 ?Write@CArchive@@QAEXPBXI@Z ; CArchive::Write

; 86   : 			nElementsLeft -= nElementsToWrite;
; 87   : 			pData += nElementsToWrite;

  0004a	8b 4d 0c	 mov	 ecx, DWORD PTR _pElements$[ebp]
  0004d	8b 55 08	 mov	 edx, DWORD PTR _ar$[ebp]
  00050	03 cf		 add	 ecx, edi
  00052	89 4d 0c	 mov	 DWORD PTR _pElements$[ebp], ecx
  00055	2b f3		 sub	 esi, ebx
  00057	75 d7		 jne	 SHORT $LL5@SerializeE
$LN8@SerializeE:
  00059	5f		 pop	 edi

; 105  : 		}
; 106  : 	}
; 107  : }

  0005a	5e		 pop	 esi
  0005b	5b		 pop	 ebx
  0005c	5d		 pop	 ebp
  0005d	c2 0c 00	 ret	 12			; 0000000cH
$LN10@SerializeE:

; 97   : 		while( nElementsLeft > 0 )

  00060	85 f6		 test	 esi, esi
  00062	74 f5		 je	 SHORT $LN8@SerializeE
$LL7@SerializeE:

; 98   : 		{
; 99   : 			UINT nElementsToRead;
; 100  : 
; 101  : 			nElementsToRead = UINT(__min(nElementsLeft, INT_MAX/sizeof(TYPE)));

  00064	bf ff ff ff 1f	 mov	 edi, 536870911		; 1fffffffH
  00069	3b f7		 cmp	 esi, edi
  0006b	0f 42 fe	 cmovb	 edi, esi

; 102  : 			ar.EnsureRead(pData, nElementsToRead*sizeof(TYPE));

  0006e	8d 1c bd 00 00
	00 00		 lea	 ebx, DWORD PTR [edi*4]
; File C:\Program Files (x86)\Microsoft Visual Studio\2019\Community\VC\Tools\MSVC\14.29.30133\atlmfc\include\afx.inl

; 399  : 	UINT nRead=Read(lpBuf, nCount);

  00075	53		 push	 ebx
  00076	51		 push	 ecx
  00077	8b ca		 mov	 ecx, edx
  00079	e8 00 00 00 00	 call	 ?Read@CArchive@@QAEIPAXI@Z ; CArchive::Read

; 400  : 	if(nRead!=nCount)

  0007e	3b c3		 cmp	 eax, ebx
  00080	75 16		 jne	 SHORT $LN23@SerializeE
; File C:\Program Files (x86)\Microsoft Visual Studio\2019\Community\VC\Tools\MSVC\14.29.30133\atlmfc\include\afxtempl.h

; 97   : 		while( nElementsLeft > 0 )

  00082	8b 4d 0c	 mov	 ecx, DWORD PTR _pElements$[ebp]
  00085	8b 55 08	 mov	 edx, DWORD PTR _ar$[ebp]

; 103  : 			nElementsLeft -= nElementsToRead;
; 104  : 			pData += nElementsToRead;

  00088	03 cb		 add	 ecx, ebx
  0008a	89 4d 0c	 mov	 DWORD PTR _pElements$[ebp], ecx
  0008d	2b f7		 sub	 esi, edi
  0008f	75 d3		 jne	 SHORT $LL7@SerializeE

; 105  : 		}
; 106  : 	}
; 107  : }

  00091	5f		 pop	 edi
  00092	5e		 pop	 esi
  00093	5b		 pop	 ebx
  00094	5d		 pop	 ebp
  00095	c2 0c 00	 ret	 12			; 0000000cH
$LN23@SerializeE:
; File C:\Program Files (x86)\Microsoft Visual Studio\2019\Community\VC\Tools\MSVC\14.29.30133\atlmfc\include\afx.inl

; 402  : 		AfxThrowArchiveException(CArchiveException::endOfFile);

  00098	6a 00		 push	 0
  0009a	6a 03		 push	 3
  0009c	e8 00 00 00 00	 call	 ?AfxThrowArchiveException@@YGXHPBD@Z ; AfxThrowArchiveException
$LN34@SerializeE:
; File C:\Program Files (x86)\Microsoft Visual Studio\2019\Community\VC\Tools\MSVC\14.29.30133\atlmfc\include\afxtempl.h

; 68   : 	ENSURE(nCount == 0 || pElements != NULL);

  000a1	e8 00 00 00 00	 call	 ?AfxThrowInvalidArgException@@YGXXZ ; AfxThrowInvalidArgException
$LN32@SerializeE:
  000a6	cc		 int	 3
??$SerializeElements@H@@YGXAAVCArchive@@PAHH@Z ENDP	; SerializeElements<int>
_TEXT	ENDS
; Function compile flags: /Ogtp
; File D:\git\src\IBK\IBK_DRFN\ProjSrc\SrcDrfn\Chart\INDEXOPTIMIZER\Control\XTabCtrl.cpp
; File C:\Program Files (x86)\Microsoft Visual Studio\2019\Community\VC\Tools\MSVC\14.29.30133\atlmfc\include\afxtempl.h
; File D:\git\src\IBK\IBK_DRFN\ProjSrc\SrcDrfn\Chart\INDEXOPTIMIZER\Control\XTabCtrl.cpp
; File C:\Program Files (x86)\Microsoft Visual Studio\2019\Community\VC\Tools\MSVC\14.29.30133\atlmfc\include\afx.inl
;	COMDAT ??_GCXTabCtrl@@UAEPAXI@Z
_TEXT	SEGMENT
__$EHRec$ = -12						; size = 12
___flags$ = 8						; size = 4
??_GCXTabCtrl@@UAEPAXI@Z PROC				; CXTabCtrl::`scalar deleting destructor', COMDAT
; _this$ = ecx
  00000	55		 push	 ebp
  00001	8b ec		 mov	 ebp, esp
  00003	6a ff		 push	 -1
  00005	68 00 00 00 00	 push	 __ehhandler$??_GCXTabCtrl@@UAEPAXI@Z
  0000a	64 a1 00 00 00
	00		 mov	 eax, DWORD PTR fs:0
  00010	50		 push	 eax
  00011	56		 push	 esi
  00012	a1 00 00 00 00	 mov	 eax, DWORD PTR ___security_cookie
  00017	33 c5		 xor	 eax, ebp
  00019	50		 push	 eax
  0001a	8d 45 f4	 lea	 eax, DWORD PTR __$EHRec$[ebp]
  0001d	64 a3 00 00 00
	00		 mov	 DWORD PTR fs:0, eax
  00023	8b f1		 mov	 esi, ecx
; File D:\git\src\IBK\IBK_DRFN\ProjSrc\SrcDrfn\Chart\INDEXOPTIMIZER\Control\XTabCtrl.cpp

; 47   : {

  00025	c7 06 00 00 00
	00		 mov	 DWORD PTR [esi], OFFSET ??_7CXTabCtrl@@6B@
; File C:\Program Files (x86)\Microsoft Visual Studio\2019\Community\VC\Tools\MSVC\14.29.30133\atlmfc\include\afxtempl.h

; 381  : 		if (m_pData != NULL)

  0002b	8b 86 90 00 00
	00		 mov	 eax, DWORD PTR [esi+144]
  00031	85 c0		 test	 eax, eax
  00033	74 13		 je	 SHORT $LN32@scalar

; 382  : 		{
; 383  : 			for( int i = 0; i < m_nSize; i++ )
; 384  : 				(m_pData + i)->~TYPE();
; 385  : 			delete[] (BYTE*)m_pData;

  00035	50		 push	 eax
  00036	e8 00 00 00 00	 call	 ??_V@YAXPAX@Z		; operator delete[]
  0003b	83 c4 04	 add	 esp, 4

; 386  : 			m_pData = NULL;

  0003e	c7 86 90 00 00
	00 00 00 00 00	 mov	 DWORD PTR [esi+144], 0
$LN32@scalar:

; 387  : 		}
; 388  : 		m_nSize = m_nMaxSize = 0;

  00048	c7 86 98 00 00
	00 00 00 00 00	 mov	 DWORD PTR [esi+152], 0
  00052	c7 86 94 00 00
	00 00 00 00 00	 mov	 DWORD PTR [esi+148], 0

; 358  : 	if (m_pData != NULL)

  0005c	8b 86 90 00 00
	00		 mov	 eax, DWORD PTR [esi+144]
  00062	c7 86 8c 00 00
	00 00 00 00 00	 mov	 DWORD PTR [esi+140], OFFSET ??_7?$CArray@HH@@6B@
  0006c	85 c0		 test	 eax, eax
  0006e	74 13		 je	 SHORT $LN65@scalar

; 359  : 	{
; 360  : 		for( int i = 0; i < m_nSize; i++ )

  00070	83 be 94 00 00
	00 00		 cmp	 DWORD PTR [esi+148], 0
  00077	0f 4f c0	 cmovg	 eax, eax

; 361  : 			(m_pData + i)->~TYPE();
; 362  : 		delete[] (BYTE*)m_pData;

  0007a	50		 push	 eax
  0007b	e8 00 00 00 00	 call	 ??_V@YAXPAX@Z		; operator delete[]
  00080	83 c4 04	 add	 esp, 4
$LN65@scalar:
; File D:\git\src\IBK\IBK_DRFN\ProjSrc\SrcDrfn\Chart\INDEXOPTIMIZER\Control\XTabCtrl.cpp

; 49   : }

  00083	8b ce		 mov	 ecx, esi
  00085	e8 00 00 00 00	 call	 ??1CTabCtrl@@UAE@XZ	; CTabCtrl::~CTabCtrl
  0008a	8b 45 08	 mov	 eax, DWORD PTR ___flags$[ebp]
  0008d	a8 01		 test	 al, 1
  0008f	74 2f		 je	 SHORT $LN79@scalar
  00091	a8 04		 test	 al, 4
  00093	75 1d		 jne	 SHORT $LN3@scalar
; File C:\Program Files (x86)\Microsoft Visual Studio\2019\Community\VC\Tools\MSVC\14.29.30133\atlmfc\include\afx.inl

; 112  : 	{ ::operator delete(p); }

  00095	56		 push	 esi
  00096	e8 00 00 00 00	 call	 ??3@YAXPAX@Z		; operator delete
  0009b	83 c4 04	 add	 esp, 4
  0009e	8b c6		 mov	 eax, esi
  000a0	8b 4d f4	 mov	 ecx, DWORD PTR __$EHRec$[ebp]
  000a3	64 89 0d 00 00
	00 00		 mov	 DWORD PTR fs:0, ecx
  000aa	59		 pop	 ecx
  000ab	5e		 pop	 esi
  000ac	8b e5		 mov	 esp, ebp
  000ae	5d		 pop	 ebp
  000af	c2 04 00	 ret	 4
$LN3@scalar:
  000b2	68 08 01 00 00	 push	 264			; 00000108H
  000b7	56		 push	 esi
  000b8	e8 00 00 00 00	 call	 ?__global_delete@@YAXPAXI@Z ; __global_delete
  000bd	83 c4 08	 add	 esp, 8
$LN79@scalar:
  000c0	8b c6		 mov	 eax, esi
  000c2	8b 4d f4	 mov	 ecx, DWORD PTR __$EHRec$[ebp]
  000c5	64 89 0d 00 00
	00 00		 mov	 DWORD PTR fs:0, ecx
  000cc	59		 pop	 ecx
  000cd	5e		 pop	 esi
  000ce	8b e5		 mov	 esp, ebp
  000d0	5d		 pop	 ebp
  000d1	c2 04 00	 ret	 4
  000d4	cc		 int	 3
  000d5	cc		 int	 3
  000d6	cc		 int	 3
  000d7	cc		 int	 3
  000d8	cc		 int	 3
_TEXT	ENDS
;	COMDAT text$x
text$x	SEGMENT
__ehhandler$??_GCXTabCtrl@@UAEPAXI@Z:
  00000	90		 npad	 1
  00001	90		 npad	 1
  00002	8b 54 24 08	 mov	 edx, DWORD PTR [esp+8]
  00006	8d 42 0c	 lea	 eax, DWORD PTR [edx+12]
  00009	8b 4a f8	 mov	 ecx, DWORD PTR [edx-8]
  0000c	33 c8		 xor	 ecx, eax
  0000e	e8 00 00 00 00	 call	 @__security_check_cookie@4
  00013	b8 00 00 00 00	 mov	 eax, OFFSET __ehfuncinfo$??_GCXTabCtrl@@UAEPAXI@Z
  00018	e9 00 00 00 00	 jmp	 ___CxxFrameHandler3
text$x	ENDS
??_GCXTabCtrl@@UAEPAXI@Z ENDP				; CXTabCtrl::`scalar deleting destructor'
; Function compile flags: /Ogtp
; File D:\git\src\IBK\IBK_DRFN\ProjSrc\SrcDrfn\Chart\INDEXOPTIMIZER\Control\XTabCtrl.cpp
;	COMDAT ?GetMessageMap@CXTabCtrl@@MBEPBUAFX_MSGMAP@@XZ
_TEXT	SEGMENT
?GetMessageMap@CXTabCtrl@@MBEPBUAFX_MSGMAP@@XZ PROC	; CXTabCtrl::GetMessageMap, COMDAT
; _this$ = ecx

; 52   : BEGIN_MESSAGE_MAP(CXTabCtrl, CTabCtrl)

  00000	b8 00 00 00 00	 mov	 eax, OFFSET ?messageMap@?1??GetThisMessageMap@CXTabCtrl@@KGPBUAFX_MSGMAP@@XZ@4U3@B
  00005	c3		 ret	 0
?GetMessageMap@CXTabCtrl@@MBEPBUAFX_MSGMAP@@XZ ENDP	; CXTabCtrl::GetMessageMap
_TEXT	ENDS
; Function compile flags: /Ogtp
; File D:\git\src\IBK\IBK_DRFN\ProjSrc\SrcDrfn\Chart\INDEXOPTIMIZER\Control\XTabCtrl.cpp
;	COMDAT ?GetThisMessageMap@CXTabCtrl@@KGPBUAFX_MSGMAP@@XZ
_TEXT	SEGMENT
?GetThisMessageMap@CXTabCtrl@@KGPBUAFX_MSGMAP@@XZ PROC	; CXTabCtrl::GetThisMessageMap, COMDAT

; 53   : 	//{{AFX_MSG_MAP(CXTabCtrl)
; 54   : 	ON_NOTIFY_REFLECT_EX(TCN_SELCHANGE, OnSelchange)
; 55   : 	ON_NOTIFY_REFLECT_EX(TCN_SELCHANGING, OnSelchanging)
; 56   : 	ON_WM_MOUSEMOVE()
; 57   : 	ON_WM_TIMER()
; 58   : 	ON_WM_LBUTTONDOWN()
; 59   : 	ON_WM_LBUTTONUP()
; 60   : 	ON_WM_SIZE()
; 61   : 	ON_WM_ERASEBKGND()
; 62   : 	ON_WM_PAINT()
; 63   : 	//}}AFX_MSG_MAP
; 64   : END_MESSAGE_MAP()

  00000	b8 00 00 00 00	 mov	 eax, OFFSET ?messageMap@?1??GetThisMessageMap@CXTabCtrl@@KGPBUAFX_MSGMAP@@XZ@4U3@B
  00005	c3		 ret	 0
?GetThisMessageMap@CXTabCtrl@@KGPBUAFX_MSGMAP@@XZ ENDP	; CXTabCtrl::GetThisMessageMap
_TEXT	ENDS
; Function compile flags: /Ogtp
; File D:\git\src\IBK\IBK_DRFN\ProjSrc\SrcDrfn\Chart\INDEXOPTIMIZER\Control\XTabCtrl.cpp
; File C:\Program Files (x86)\Microsoft Visual Studio\2019\Community\VC\Tools\MSVC\14.29.30133\atlmfc\include\afxwin2.inl
; File D:\git\src\IBK\IBK_DRFN\ProjSrc\SrcDrfn\Chart\INDEXOPTIMIZER\Control\XTabCtrl.cpp
; File C:\Program Files (x86)\Microsoft Visual Studio\2019\Community\VC\Tools\MSVC\14.29.30133\atlmfc\include\afxwin2.inl
; File C:\Program Files (x86)\Microsoft Visual Studio\2019\Community\VC\Tools\MSVC\14.29.30133\atlmfc\include\afxwin1.inl
; File D:\git\src\IBK\IBK_DRFN\ProjSrc\SrcDrfn\Chart\INDEXOPTIMIZER\Control\XTabCtrl.cpp
; File C:\Program Files (x86)\Microsoft Visual Studio\2019\Community\VC\Tools\MSVC\14.29.30133\atlmfc\include\afxwin2.inl
; File D:\git\src\IBK\IBK_DRFN\ProjSrc\SrcDrfn\Chart\INDEXOPTIMIZER\Control\XTabCtrl.cpp
; File C:\Program Files (x86)\Microsoft Visual Studio\2019\Community\VC\Tools\MSVC\14.29.30133\atlmfc\include\afxwin1.inl
; File C:\Program Files (x86)\Microsoft Visual Studio\2019\Community\VC\Tools\MSVC\14.29.30133\atlmfc\include\afxwin2.inl
; File D:\git\src\IBK\IBK_DRFN\ProjSrc\SrcDrfn\Chart\INDEXOPTIMIZER\Control\XTabCtrl.cpp
; File C:\Program Files (x86)\Microsoft Visual Studio\2019\Community\VC\Tools\MSVC\14.29.30133\atlmfc\include\atltypes.h
; File C:\Program Files (x86)\Microsoft Visual Studio\2019\Community\VC\Tools\MSVC\14.29.30133\atlmfc\include\afxwin2.inl
; File C:\Program Files (x86)\Microsoft Visual Studio\2019\Community\VC\Tools\MSVC\14.29.30133\atlmfc\include\atltypes.h
; File C:\Program Files (x86)\Microsoft Visual Studio\2019\Community\VC\Tools\MSVC\14.29.30133\atlmfc\include\afxcmn.inl
; File D:\git\src\IBK\IBK_DRFN\ProjSrc\SrcDrfn\Chart\INDEXOPTIMIZER\Control\XTabCtrl.cpp
; File C:\Program Files (x86)\Microsoft Visual Studio\2019\Community\VC\Tools\MSVC\14.29.30133\atlmfc\include\atltypes.h
; File D:\git\src\IBK\IBK_DRFN\ProjSrc\SrcDrfn\Chart\INDEXOPTIMIZER\Control\XTabCtrl.cpp
; File C:\Program Files (x86)\Microsoft Visual Studio\2019\Community\VC\Tools\MSVC\14.29.30133\atlmfc\include\atltypes.h
; File D:\git\src\IBK\IBK_DRFN\ProjSrc\SrcDrfn\Chart\INDEXOPTIMIZER\Control\XTabCtrl.cpp
; File C:\Program Files (x86)\Microsoft Visual Studio\2019\Community\VC\Tools\MSVC\14.29.30133\atlmfc\include\atltypes.h
; File D:\git\src\IBK\IBK_DRFN\ProjSrc\SrcDrfn\Chart\INDEXOPTIMIZER\Control\XTabCtrl.cpp
; File C:\Program Files (x86)\Microsoft Visual Studio\2019\Community\VC\Tools\MSVC\14.29.30133\atlmfc\include\afxcmn.inl
; File D:\git\src\IBK\IBK_DRFN\ProjSrc\SrcDrfn\Chart\INDEXOPTIMIZER\Control\XTabCtrl.cpp
; File C:\Program Files (x86)\Microsoft Visual Studio\2019\Community\VC\Tools\MSVC\14.29.30133\atlmfc\include\afxcmn.inl
; File D:\git\src\IBK\IBK_DRFN\ProjSrc\SrcDrfn\Chart\INDEXOPTIMIZER\Control\XTabCtrl.cpp
; File C:\Program Files (x86)\Microsoft Visual Studio\2019\Community\VC\Tools\MSVC\14.29.30133\atlmfc\include\afxcmn.inl
; File D:\git\src\IBK\IBK_DRFN\ProjSrc\SrcDrfn\Chart\INDEXOPTIMIZER\Control\XTabCtrl.cpp
; File C:\Program Files (x86)\Microsoft Visual Studio\2019\Community\VC\Tools\MSVC\14.29.30133\atlmfc\include\afxcmn.inl
; File D:\git\src\IBK\IBK_DRFN\ProjSrc\SrcDrfn\Chart\INDEXOPTIMIZER\Control\XTabCtrl.cpp
; File C:\Program Files (x86)\Microsoft Visual Studio\2019\Community\VC\Tools\MSVC\14.29.30133\atlmfc\include\afxcmn.inl
; File D:\git\src\IBK\IBK_DRFN\ProjSrc\SrcDrfn\Chart\INDEXOPTIMIZER\Control\XTabCtrl.cpp
; File C:\Program Files (x86)\Microsoft Visual Studio\2019\Community\VC\Tools\MSVC\14.29.30133\atlmfc\include\atltypes.h
; File D:\git\src\IBK\IBK_DRFN\ProjSrc\SrcDrfn\Chart\INDEXOPTIMIZER\Control\XTabCtrl.cpp
; File C:\Program Files (x86)\Microsoft Visual Studio\2019\Community\VC\Tools\MSVC\14.29.30133\atlmfc\include\afxcmn.inl
; File D:\git\src\IBK\IBK_DRFN\ProjSrc\SrcDrfn\Chart\INDEXOPTIMIZER\Control\XTabCtrl.cpp
; File C:\Program Files (x86)\Microsoft Visual Studio\2019\Community\VC\Tools\MSVC\14.29.30133\atlmfc\include\afxcmn.inl
; File D:\git\src\IBK\IBK_DRFN\ProjSrc\SrcDrfn\Chart\INDEXOPTIMIZER\Control\XTabCtrl.cpp
; File C:\Program Files (x86)\Microsoft Visual Studio\2019\Community\VC\Tools\MSVC\14.29.30133\atlmfc\include\afxcmn.inl
; File D:\git\src\IBK\IBK_DRFN\ProjSrc\SrcDrfn\Chart\INDEXOPTIMIZER\Control\XTabCtrl.cpp
; File C:\Program Files (x86)\Microsoft Visual Studio\2019\Community\VC\Tools\MSVC\14.29.30133\atlmfc\include\atltypes.h
; File D:\git\src\IBK\IBK_DRFN\ProjSrc\SrcDrfn\Chart\INDEXOPTIMIZER\Control\XTabCtrl.cpp
; File C:\Program Files (x86)\Microsoft Visual Studio\2019\Community\VC\Tools\MSVC\14.29.30133\atlmfc\include\atltypes.h
; File D:\git\src\IBK\IBK_DRFN\ProjSrc\SrcDrfn\Chart\INDEXOPTIMIZER\Control\XTabCtrl.cpp
; File C:\Program Files (x86)\Microsoft Visual Studio\2019\Community\VC\Tools\MSVC\14.29.30133\atlmfc\include\atltypes.h
; File D:\git\src\IBK\IBK_DRFN\ProjSrc\SrcDrfn\Chart\INDEXOPTIMIZER\Control\XTabCtrl.cpp
; File C:\Program Files (x86)\Microsoft Visual Studio\2019\Community\VC\Tools\MSVC\14.29.30133\atlmfc\include\atltypes.h
; File D:\git\src\IBK\IBK_DRFN\ProjSrc\SrcDrfn\Chart\INDEXOPTIMIZER\Control\XTabCtrl.cpp
;	COMDAT ?OnPaint@CXTabCtrl@@IAEXXZ
_TEXT	SEGMENT
_crShadow$1$ = -192					; size = 4
_crShadow1$1$ = -188					; size = 4
_crShadow2$1$ = -184					; size = 4
_dis$ = -180						; size = 48
_dc$ = -132						; size = 84
_rPage$ = -48						; size = 16
_rcTemp$ = -32						; size = 16
__$ArrayPad$ = -16					; size = 4
__$EHRec$ = -12						; size = 12
?OnPaint@CXTabCtrl@@IAEXXZ PROC				; CXTabCtrl::OnPaint, COMDAT
; _this$ = ecx

; 746  : {

  00000	55		 push	 ebp
  00001	8b ec		 mov	 ebp, esp
  00003	6a ff		 push	 -1
  00005	68 00 00 00 00	 push	 __ehhandler$?OnPaint@CXTabCtrl@@IAEXXZ
  0000a	64 a1 00 00 00
	00		 mov	 eax, DWORD PTR fs:0
  00010	50		 push	 eax
  00011	81 ec b4 00 00
	00		 sub	 esp, 180		; 000000b4H
  00017	a1 00 00 00 00	 mov	 eax, DWORD PTR ___security_cookie
  0001c	33 c5		 xor	 eax, ebp
  0001e	89 45 f0	 mov	 DWORD PTR __$ArrayPad$[ebp], eax
  00021	53		 push	 ebx
  00022	56		 push	 esi
  00023	57		 push	 edi
  00024	50		 push	 eax
  00025	8d 45 f4	 lea	 eax, DWORD PTR __$EHRec$[ebp]
  00028	64 a3 00 00 00
	00		 mov	 DWORD PTR fs:0, eax
  0002e	8b f9		 mov	 edi, ecx

; 747  : 	CPaintDC dc(this); // device context for painting

  00030	57		 push	 edi
  00031	8d 8d 7c ff ff
	ff		 lea	 ecx, DWORD PTR _dc$[ebp]
  00037	e8 00 00 00 00	 call	 ??0CPaintDC@@QAE@PAVCWnd@@@Z ; CPaintDC::CPaintDC
; File C:\Program Files (x86)\Microsoft Visual Studio\2019\Community\VC\Tools\MSVC\14.29.30133\atlmfc\include\afxwin2.inl

; 45   : 	{ ASSERT(::IsWindow(m_hWnd)); return CFont::FromHandle(

  0003c	8b 35 00 00 00
	00		 mov	 esi, DWORD PTR __imp__SendMessageA@16
  00042	6a 00		 push	 0
  00044	6a 00		 push	 0
  00046	6a 31		 push	 49			; 00000031H
  00048	ff 77 20	 push	 DWORD PTR [edi+32]
; File D:\git\src\IBK\IBK_DRFN\ProjSrc\SrcDrfn\Chart\INDEXOPTIMIZER\Control\XTabCtrl.cpp

; 747  : 	CPaintDC dc(this); // device context for painting

  0004b	c7 45 fc 00 00
	00 00		 mov	 DWORD PTR __$EHRec$[ebp+8], 0
; File C:\Program Files (x86)\Microsoft Visual Studio\2019\Community\VC\Tools\MSVC\14.29.30133\atlmfc\include\afxwin2.inl

; 45   : 	{ ASSERT(::IsWindow(m_hWnd)); return CFont::FromHandle(

  00052	ff d6		 call	 esi
; File C:\Program Files (x86)\Microsoft Visual Studio\2019\Community\VC\Tools\MSVC\14.29.30133\atlmfc\include\afxwin1.inl

; 151  : 	{ return (CFont*) CGdiObject::FromHandle(hFont); }

  00054	50		 push	 eax
  00055	e8 00 00 00 00	 call	 ?FromHandle@CGdiObject@@SGPAV1@PAX@Z ; CGdiObject::FromHandle
; File D:\git\src\IBK\IBK_DRFN\ProjSrc\SrcDrfn\Chart\INDEXOPTIMIZER\Control\XTabCtrl.cpp

; 749  : 	dc.SelectObject(GetFont());

  0005a	50		 push	 eax
  0005b	8d 8d 7c ff ff
	ff		 lea	 ecx, DWORD PTR _dc$[ebp]
  00061	e8 00 00 00 00	 call	 ?SelectObject@CDC@@UAEPAVCFont@@PAV2@@Z ; CDC::SelectObject

; 753  : 	dis.CtlID = GetDlgCtrlID();

  00066	8b cf		 mov	 ecx, edi
  00068	c7 85 4c ff ff
	ff 65 00 00 00	 mov	 DWORD PTR _dis$[ebp], 101 ; 00000065H
  00072	e8 00 00 00 00	 call	 ?GetDlgCtrlID@CWnd@@QBEHXZ ; CWnd::GetDlgCtrlID
; File C:\Program Files (x86)\Microsoft Visual Studio\2019\Community\VC\Tools\MSVC\14.29.30133\atlmfc\include\afxwin2.inl

; 25   : 	{ return this == NULL ? NULL : m_hWnd; }

  00077	8b 4f 20	 mov	 ecx, DWORD PTR [edi+32]
  0007a	0f 57 c0	 xorps	 xmm0, xmm0
; File D:\git\src\IBK\IBK_DRFN\ProjSrc\SrcDrfn\Chart\INDEXOPTIMIZER\Control\XTabCtrl.cpp

; 753  : 	dis.CtlID = GetDlgCtrlID();

  0007d	89 85 50 ff ff
	ff		 mov	 DWORD PTR _dis$[ebp+4], eax
; File C:\Program Files (x86)\Microsoft Visual Studio\2019\Community\VC\Tools\MSVC\14.29.30133\atlmfc\include\afxwin1.inl

; 316  : 	{ return this == NULL ? NULL : m_hDC; }

  00083	8b 45 80	 mov	 eax, DWORD PTR _dc$[ebp+4]
  00086	89 85 64 ff ff
	ff		 mov	 DWORD PTR _dis$[ebp+24], eax
; File C:\Program Files (x86)\Microsoft Visual Studio\2019\Community\VC\Tools\MSVC\14.29.30133\atlmfc\include\afxwin2.inl

; 86   : 	{ ASSERT(::IsWindow(m_hWnd)); ::GetClientRect(m_hWnd, lpRect); }

  0008c	8d 85 68 ff ff
	ff		 lea	 eax, DWORD PTR _dis$[ebp+28]
  00092	50		 push	 eax
  00093	51		 push	 ecx

; 25   : 	{ return this == NULL ? NULL : m_hWnd; }

  00094	89 8d 60 ff ff
	ff		 mov	 DWORD PTR _dis$[ebp+20], ecx
; File D:\git\src\IBK\IBK_DRFN\ProjSrc\SrcDrfn\Chart\INDEXOPTIMIZER\Control\XTabCtrl.cpp

; 756  : 	dis.itemAction = ODA_DRAWENTIRE;

  0009a	c7 85 58 ff ff
	ff 01 00 00 00	 mov	 DWORD PTR _dis$[ebp+12], 1
; File C:\Program Files (x86)\Microsoft Visual Studio\2019\Community\VC\Tools\MSVC\14.29.30133\atlmfc\include\atltypes.h

; 528  : 	left = 0;

  000a4	0f 11 45 d0	 movups	 XMMWORD PTR _rPage$[ebp], xmm0
; File C:\Program Files (x86)\Microsoft Visual Studio\2019\Community\VC\Tools\MSVC\14.29.30133\atlmfc\include\afxwin2.inl

; 86   : 	{ ASSERT(::IsWindow(m_hWnd)); ::GetClientRect(m_hWnd, lpRect); }

  000a8	ff 15 00 00 00
	00		 call	 DWORD PTR __imp__GetClientRect@8
; File C:\Program Files (x86)\Microsoft Visual Studio\2019\Community\VC\Tools\MSVC\14.29.30133\atlmfc\include\atltypes.h

; 765  : 	::CopyRect(this, &srcRect);

  000ae	8d 85 68 ff ff
	ff		 lea	 eax, DWORD PTR _dis$[ebp+28]
  000b4	50		 push	 eax
  000b5	8d 45 d0	 lea	 eax, DWORD PTR _rPage$[ebp]
  000b8	50		 push	 eax
  000b9	ff 15 00 00 00
	00		 call	 DWORD PTR __imp__CopyRect@8
; File C:\Program Files (x86)\Microsoft Visual Studio\2019\Community\VC\Tools\MSVC\14.29.30133\atlmfc\include\afxcmn.inl

; 592  : 	{ ASSERT(::IsWindow(m_hWnd)); ::SendMessage(m_hWnd, TCM_ADJUSTRECT, bLarger, (LPARAM)lpRect); }

  000bf	8d 45 d0	 lea	 eax, DWORD PTR _rPage$[ebp]
  000c2	50		 push	 eax
  000c3	6a 00		 push	 0
  000c5	68 28 13 00 00	 push	 4904			; 00001328H
  000ca	ff 77 20	 push	 DWORD PTR [edi+32]
  000cd	ff d6		 call	 esi
; File D:\git\src\IBK\IBK_DRFN\ProjSrc\SrcDrfn\Chart\INDEXOPTIMIZER\Control\XTabCtrl.cpp

; 762  : 	dis.rcItem.top = rPage.top - 2;

  000cf	8b 45 d4	 mov	 eax, DWORD PTR _rPage$[ebp+4]
  000d2	0f 57 c0	 xorps	 xmm0, xmm0

; 768  : 	COLORREF crShadow2 = m_clrBorder;

  000d5	8b 9f 80 00 00
	00		 mov	 ebx, DWORD PTR [edi+128]
  000db	83 c0 fe	 add	 eax, -2			; fffffffeH
  000de	89 85 6c ff ff
	ff		 mov	 DWORD PTR _dis$[ebp+32], eax
  000e4	8b 87 84 00 00
	00		 mov	 eax, DWORD PTR [edi+132]
  000ea	89 85 40 ff ff
	ff		 mov	 DWORD PTR _crShadow$1$[ebp], eax
  000f0	8b 87 88 00 00
	00		 mov	 eax, DWORD PTR [edi+136]
  000f6	89 85 44 ff ff
	ff		 mov	 DWORD PTR _crShadow1$1$[ebp], eax
; File C:\Program Files (x86)\Microsoft Visual Studio\2019\Community\VC\Tools\MSVC\14.29.30133\atlmfc\include\atltypes.h

; 674  : 	::CopyRect(this, lpSrcRect);

  000fc	8d 85 68 ff ff
	ff		 lea	 eax, DWORD PTR _dis$[ebp+28]
  00102	50		 push	 eax
  00103	8d 45 e0	 lea	 eax, DWORD PTR _rcTemp$[ebp]
; File D:\git\src\IBK\IBK_DRFN\ProjSrc\SrcDrfn\Chart\INDEXOPTIMIZER\Control\XTabCtrl.cpp

; 768  : 	COLORREF crShadow2 = m_clrBorder;

  00106	89 9d 48 ff ff
	ff		 mov	 DWORD PTR _crShadow2$1$[ebp], ebx
; File C:\Program Files (x86)\Microsoft Visual Studio\2019\Community\VC\Tools\MSVC\14.29.30133\atlmfc\include\atltypes.h

; 674  : 	::CopyRect(this, lpSrcRect);

  0010c	50		 push	 eax

; 528  : 	left = 0;

  0010d	0f 11 45 e0	 movups	 XMMWORD PTR _rcTemp$[ebp], xmm0

; 674  : 	::CopyRect(this, lpSrcRect);

  00111	ff 15 00 00 00
	00		 call	 DWORD PTR __imp__CopyRect@8
; File D:\git\src\IBK\IBK_DRFN\ProjSrc\SrcDrfn\Chart\INDEXOPTIMIZER\Control\XTabCtrl.cpp

; 772  : 	dc.Draw3dRect(rcTemp, crHighlight, crHighlight);

  00117	68 ff ff ff 00	 push	 16777215		; 00ffffffH
  0011c	68 ff ff ff 00	 push	 16777215		; 00ffffffH
  00121	8d 45 e0	 lea	 eax, DWORD PTR _rcTemp$[ebp]
  00124	50		 push	 eax
  00125	8d 8d 7c ff ff
	ff		 lea	 ecx, DWORD PTR _dc$[ebp]
  0012b	e8 00 00 00 00	 call	 ?Draw3dRect@CDC@@QAEXPBUtagRECT@@KK@Z ; CDC::Draw3dRect
; File C:\Program Files (x86)\Microsoft Visual Studio\2019\Community\VC\Tools\MSVC\14.29.30133\atlmfc\include\atltypes.h

; 698  : 	::InflateRect(this, -x, -y);

  00130	6a ff		 push	 -1
  00132	6a ff		 push	 -1
  00134	8d 45 e0	 lea	 eax, DWORD PTR _rcTemp$[ebp]
  00137	50		 push	 eax
  00138	ff 15 00 00 00
	00		 call	 DWORD PTR __imp__InflateRect@12
; File D:\git\src\IBK\IBK_DRFN\ProjSrc\SrcDrfn\Chart\INDEXOPTIMIZER\Control\XTabCtrl.cpp

; 775  : 	dc.Draw3dRect(rcTemp, crShadow2, crShadow2);

  0013e	53		 push	 ebx
  0013f	53		 push	 ebx
  00140	8d 45 e0	 lea	 eax, DWORD PTR _rcTemp$[ebp]
  00143	50		 push	 eax
  00144	8d 8d 7c ff ff
	ff		 lea	 ecx, DWORD PTR _dc$[ebp]
  0014a	e8 00 00 00 00	 call	 ?Draw3dRect@CDC@@QAEXPBUtagRECT@@KK@Z ; CDC::Draw3dRect
; File C:\Program Files (x86)\Microsoft Visual Studio\2019\Community\VC\Tools\MSVC\14.29.30133\atlmfc\include\afxcmn.inl

; 564  : 	{ ASSERT(::IsWindow(m_hWnd)); return (int)::SendMessage(m_hWnd, TCM_GETITEMCOUNT, 0, 0L); }

  0014f	6a 00		 push	 0
  00151	6a 00		 push	 0
  00153	68 04 13 00 00	 push	 4868			; 00001304H
  00158	ff 77 20	 push	 DWORD PTR [edi+32]
  0015b	ff d6		 call	 esi
; File D:\git\src\IBK\IBK_DRFN\ProjSrc\SrcDrfn\Chart\INDEXOPTIMIZER\Control\XTabCtrl.cpp

; 777  : 	int nTab = GetItemCount();

  0015d	8b f0		 mov	 esi, eax
; File C:\Program Files (x86)\Microsoft Visual Studio\2019\Community\VC\Tools\MSVC\14.29.30133\atlmfc\include\afxcmn.inl

; 586  : 	{ ASSERT(::IsWindow(m_hWnd)); return (int)::SendMessage(m_hWnd, TCM_GETCURSEL, 0, 0L); }

  0015f	6a 00		 push	 0
  00161	6a 00		 push	 0
  00163	68 0b 13 00 00	 push	 4875			; 0000130bH
  00168	ff 77 20	 push	 DWORD PTR [edi+32]
  0016b	ff 15 00 00 00
	00		 call	 DWORD PTR __imp__SendMessageA@16
; File D:\git\src\IBK\IBK_DRFN\ProjSrc\SrcDrfn\Chart\INDEXOPTIMIZER\Control\XTabCtrl.cpp

; 778  : 	int nSel = GetCurSel();

  00171	8b d8		 mov	 ebx, eax

; 779  : 
; 780  : 	if (!nTab)

  00173	85 f6		 test	 esi, esi
  00175	0f 84 1d 01 00
	00		 je	 $LN8@OnPaint
  0017b	0f 1f 44 00 00	 npad	 5
$LL55@OnPaint:

; 781  : 		return;
; 782  : 
; 783  : 	while (nTab--)

  00180	4e		 dec	 esi

; 784  : 	{
; 785  : 		if (nTab != nSel)

  00181	3b f3		 cmp	 esi, ebx
  00183	74 71		 je	 SHORT $LN5@OnPaint
; File C:\Program Files (x86)\Microsoft Visual Studio\2019\Community\VC\Tools\MSVC\14.29.30133\atlmfc\include\afxcmn.inl

; 584  : 	{ ASSERT(::IsWindow(m_hWnd)); return (BOOL)::SendMessage(m_hWnd, TCM_GETITEMRECT, nItem, (LPARAM)lpRect); }

  00185	8d 85 68 ff ff
	ff		 lea	 eax, DWORD PTR _dis$[ebp+28]
; File D:\git\src\IBK\IBK_DRFN\ProjSrc\SrcDrfn\Chart\INDEXOPTIMIZER\Control\XTabCtrl.cpp

; 787  : 			dis.itemID = nTab;

  0018b	89 b5 54 ff ff
	ff		 mov	 DWORD PTR _dis$[ebp+8], esi
; File C:\Program Files (x86)\Microsoft Visual Studio\2019\Community\VC\Tools\MSVC\14.29.30133\atlmfc\include\afxcmn.inl

; 584  : 	{ ASSERT(::IsWindow(m_hWnd)); return (BOOL)::SendMessage(m_hWnd, TCM_GETITEMRECT, nItem, (LPARAM)lpRect); }

  00191	50		 push	 eax
  00192	56		 push	 esi
  00193	68 0a 13 00 00	 push	 4874			; 0000130aH
  00198	ff 77 20	 push	 DWORD PTR [edi+32]
; File D:\git\src\IBK\IBK_DRFN\ProjSrc\SrcDrfn\Chart\INDEXOPTIMIZER\Control\XTabCtrl.cpp

; 788  : 			dis.itemState = 0;

  0019b	c7 85 5c ff ff
	ff 00 00 00 00	 mov	 DWORD PTR _dis$[ebp+16], 0
; File C:\Program Files (x86)\Microsoft Visual Studio\2019\Community\VC\Tools\MSVC\14.29.30133\atlmfc\include\afxcmn.inl

; 584  : 	{ ASSERT(::IsWindow(m_hWnd)); return (BOOL)::SendMessage(m_hWnd, TCM_GETITEMRECT, nItem, (LPARAM)lpRect); }

  001a5	ff 15 00 00 00
	00		 call	 DWORD PTR __imp__SendMessageA@16
; File D:\git\src\IBK\IBK_DRFN\ProjSrc\SrcDrfn\Chart\INDEXOPTIMIZER\Control\XTabCtrl.cpp

; 793  : 			DrawItem(&dis);

  001ab	8b 07		 mov	 eax, DWORD PTR [edi]
  001ad	8d 8d 4c ff ff
	ff		 lea	 ecx, DWORD PTR _dis$[ebp]
  001b3	83 ad 74 ff ff
	ff 02		 sub	 DWORD PTR _dis$[ebp+40], 2
  001ba	51		 push	 ecx
  001bb	8b cf		 mov	 ecx, edi
  001bd	ff 90 74 01 00
	00		 call	 DWORD PTR [eax+372]
; File C:\Program Files (x86)\Microsoft Visual Studio\2019\Community\VC\Tools\MSVC\14.29.30133\atlmfc\include\atltypes.h

; 674  : 	::CopyRect(this, lpSrcRect);

  001c3	8d 85 68 ff ff
	ff		 lea	 eax, DWORD PTR _dis$[ebp+28]
  001c9	50		 push	 eax
  001ca	8d 45 e0	 lea	 eax, DWORD PTR _rcTemp$[ebp]
  001cd	50		 push	 eax
  001ce	ff 15 00 00 00
	00		 call	 DWORD PTR __imp__CopyRect@8
; File D:\git\src\IBK\IBK_DRFN\ProjSrc\SrcDrfn\Chart\INDEXOPTIMIZER\Control\XTabCtrl.cpp

; 798  : 			dc.Draw3dRect(rcTemp, crHighlight2, crShadow2);

  001d4	ff b5 48 ff ff
	ff		 push	 DWORD PTR _crShadow2$1$[ebp]
  001da	83 6d e0 02	 sub	 DWORD PTR _rcTemp$[ebp], 2
  001de	8d 45 e0	 lea	 eax, DWORD PTR _rcTemp$[ebp]
  001e1	83 45 ec 04	 add	 DWORD PTR _rcTemp$[ebp+12], 4
  001e5	8d 8d 7c ff ff
	ff		 lea	 ecx, DWORD PTR _dc$[ebp]
  001eb	68 b9 b9 b9 00	 push	 12171705		; 00b9b9b9H
  001f0	50		 push	 eax
  001f1	e8 00 00 00 00	 call	 ?Draw3dRect@CDC@@QAEXPBUtagRECT@@KK@Z ; CDC::Draw3dRect
$LN5@OnPaint:

; 781  : 		return;
; 782  : 
; 783  : 	while (nTab--)

  001f6	85 f6		 test	 esi, esi
  001f8	75 86		 jne	 SHORT $LL55@OnPaint
; File C:\Program Files (x86)\Microsoft Visual Studio\2019\Community\VC\Tools\MSVC\14.29.30133\atlmfc\include\afxcmn.inl

; 584  : 	{ ASSERT(::IsWindow(m_hWnd)); return (BOOL)::SendMessage(m_hWnd, TCM_GETITEMRECT, nItem, (LPARAM)lpRect); }

  001fa	8d 85 68 ff ff
	ff		 lea	 eax, DWORD PTR _dis$[ebp+28]
; File D:\git\src\IBK\IBK_DRFN\ProjSrc\SrcDrfn\Chart\INDEXOPTIMIZER\Control\XTabCtrl.cpp

; 802  : 	dis.itemID = nSel;

  00200	89 9d 54 ff ff
	ff		 mov	 DWORD PTR _dis$[ebp+8], ebx
; File C:\Program Files (x86)\Microsoft Visual Studio\2019\Community\VC\Tools\MSVC\14.29.30133\atlmfc\include\afxcmn.inl

; 584  : 	{ ASSERT(::IsWindow(m_hWnd)); return (BOOL)::SendMessage(m_hWnd, TCM_GETITEMRECT, nItem, (LPARAM)lpRect); }

  00206	50		 push	 eax
  00207	53		 push	 ebx
  00208	68 0a 13 00 00	 push	 4874			; 0000130aH
  0020d	ff 77 20	 push	 DWORD PTR [edi+32]
; File D:\git\src\IBK\IBK_DRFN\ProjSrc\SrcDrfn\Chart\INDEXOPTIMIZER\Control\XTabCtrl.cpp

; 803  : 	dis.itemState = ODS_SELECTED;

  00210	c7 85 5c ff ff
	ff 01 00 00 00	 mov	 DWORD PTR _dis$[ebp+16], 1
; File C:\Program Files (x86)\Microsoft Visual Studio\2019\Community\VC\Tools\MSVC\14.29.30133\atlmfc\include\afxcmn.inl

; 584  : 	{ ASSERT(::IsWindow(m_hWnd)); return (BOOL)::SendMessage(m_hWnd, TCM_GETITEMRECT, nItem, (LPARAM)lpRect); }

  0021a	ff 15 00 00 00
	00		 call	 DWORD PTR __imp__SendMessageA@16
; File D:\git\src\IBK\IBK_DRFN\ProjSrc\SrcDrfn\Chart\INDEXOPTIMIZER\Control\XTabCtrl.cpp

; 809  : 	DrawItem(&dis);

  00220	8b 07		 mov	 eax, DWORD PTR [edi]
  00222	8d 8d 4c ff ff
	ff		 lea	 ecx, DWORD PTR _dis$[ebp]
  00228	83 85 74 ff ff
	ff 02		 add	 DWORD PTR _dis$[ebp+40], 2
  0022f	83 ad 6c ff ff
	ff 02		 sub	 DWORD PTR _dis$[ebp+32], 2
  00236	51		 push	 ecx
  00237	8b cf		 mov	 ecx, edi
  00239	ff 90 74 01 00
	00		 call	 DWORD PTR [eax+372]
; File C:\Program Files (x86)\Microsoft Visual Studio\2019\Community\VC\Tools\MSVC\14.29.30133\atlmfc\include\atltypes.h

; 674  : 	::CopyRect(this, lpSrcRect);

  0023f	8d 85 68 ff ff
	ff		 lea	 eax, DWORD PTR _dis$[ebp+28]
  00245	50		 push	 eax
  00246	8d 45 e0	 lea	 eax, DWORD PTR _rcTemp$[ebp]
  00249	50		 push	 eax
  0024a	ff 15 00 00 00
	00		 call	 DWORD PTR __imp__CopyRect@8

; 686  : 	::InflateRect(this, x, y);

  00250	56		 push	 esi
  00251	6a 02		 push	 2
  00253	8d 45 e0	 lea	 eax, DWORD PTR _rcTemp$[ebp]
  00256	50		 push	 eax
  00257	ff 15 00 00 00
	00		 call	 DWORD PTR __imp__InflateRect@12
; File D:\git\src\IBK\IBK_DRFN\ProjSrc\SrcDrfn\Chart\INDEXOPTIMIZER\Control\XTabCtrl.cpp

; 813  : 	dc.Draw3dRect(rcTemp, crShadow2, crShadow2);

  0025d	8b 85 48 ff ff
	ff		 mov	 eax, DWORD PTR _crShadow2$1$[ebp]
  00263	8d 8d 7c ff ff
	ff		 lea	 ecx, DWORD PTR _dc$[ebp]
  00269	50		 push	 eax
  0026a	50		 push	 eax
  0026b	8d 45 e0	 lea	 eax, DWORD PTR _rcTemp$[ebp]
  0026e	50		 push	 eax
  0026f	e8 00 00 00 00	 call	 ?Draw3dRect@CDC@@QAEXPBUtagRECT@@KK@Z ; CDC::Draw3dRect

; 816  : 	dc.Draw3dRect(rcTemp, crShadow, crShadow1);

  00274	ff b5 44 ff ff
	ff		 push	 DWORD PTR _crShadow1$1$[ebp]
; File C:\Program Files (x86)\Microsoft Visual Studio\2019\Community\VC\Tools\MSVC\14.29.30133\atlmfc\include\atltypes.h

; 932  : 	left += l;

  0027a	ff 45 e0	 inc	 DWORD PTR _rcTemp$[ebp]
; File D:\git\src\IBK\IBK_DRFN\ProjSrc\SrcDrfn\Chart\INDEXOPTIMIZER\Control\XTabCtrl.cpp

; 816  : 	dc.Draw3dRect(rcTemp, crShadow, crShadow1);

  0027d	8d 45 e0	 lea	 eax, DWORD PTR _rcTemp$[ebp]
  00280	ff b5 40 ff ff
	ff		 push	 DWORD PTR _crShadow$1$[ebp]
; File C:\Program Files (x86)\Microsoft Visual Studio\2019\Community\VC\Tools\MSVC\14.29.30133\atlmfc\include\atltypes.h

; 933  : 	top += t;

  00286	ff 45 e4	 inc	 DWORD PTR _rcTemp$[ebp+4]
; File D:\git\src\IBK\IBK_DRFN\ProjSrc\SrcDrfn\Chart\INDEXOPTIMIZER\Control\XTabCtrl.cpp

; 816  : 	dc.Draw3dRect(rcTemp, crShadow, crShadow1);

  00289	8d 8d 7c ff ff
	ff		 lea	 ecx, DWORD PTR _dc$[ebp]
; File C:\Program Files (x86)\Microsoft Visual Studio\2019\Community\VC\Tools\MSVC\14.29.30133\atlmfc\include\atltypes.h

; 934  : 	right -= r;

  0028f	ff 4d e8	 dec	 DWORD PTR _rcTemp$[ebp+8]
; File D:\git\src\IBK\IBK_DRFN\ProjSrc\SrcDrfn\Chart\INDEXOPTIMIZER\Control\XTabCtrl.cpp

; 816  : 	dc.Draw3dRect(rcTemp, crShadow, crShadow1);

  00292	50		 push	 eax
  00293	e8 00 00 00 00	 call	 ?Draw3dRect@CDC@@QAEXPBUtagRECT@@KK@Z ; CDC::Draw3dRect
$LN8@OnPaint:

; 817  : }

  00298	8d 8d 7c ff ff
	ff		 lea	 ecx, DWORD PTR _dc$[ebp]
  0029e	e8 00 00 00 00	 call	 ??1CPaintDC@@UAE@XZ	; CPaintDC::~CPaintDC
  002a3	8b 4d f4	 mov	 ecx, DWORD PTR __$EHRec$[ebp]
  002a6	64 89 0d 00 00
	00 00		 mov	 DWORD PTR fs:0, ecx
  002ad	59		 pop	 ecx
  002ae	5f		 pop	 edi
  002af	5e		 pop	 esi
  002b0	5b		 pop	 ebx
  002b1	8b 4d f0	 mov	 ecx, DWORD PTR __$ArrayPad$[ebp]
  002b4	33 cd		 xor	 ecx, ebp
  002b6	e8 00 00 00 00	 call	 @__security_check_cookie@4
  002bb	8b e5		 mov	 esp, ebp
  002bd	5d		 pop	 ebp
  002be	c3		 ret	 0
_TEXT	ENDS
;	COMDAT text$x
text$x	SEGMENT
__unwindfunclet$?OnPaint@CXTabCtrl@@IAEXXZ$0:
  00000	8d 8d 7c ff ff
	ff		 lea	 ecx, DWORD PTR _dc$[ebp]
  00006	e9 00 00 00 00	 jmp	 ??1CPaintDC@@UAE@XZ	; CPaintDC::~CPaintDC
  0000b	cc		 int	 3
  0000c	cc		 int	 3
  0000d	cc		 int	 3
  0000e	cc		 int	 3
  0000f	cc		 int	 3
__ehhandler$?OnPaint@CXTabCtrl@@IAEXXZ:
  00010	90		 npad	 1
  00011	90		 npad	 1
  00012	8b 54 24 08	 mov	 edx, DWORD PTR [esp+8]
  00016	8d 42 0c	 lea	 eax, DWORD PTR [edx+12]
  00019	8b 8a 3c ff ff
	ff		 mov	 ecx, DWORD PTR [edx-196]
  0001f	33 c8		 xor	 ecx, eax
  00021	e8 00 00 00 00	 call	 @__security_check_cookie@4
  00026	8b 4a fc	 mov	 ecx, DWORD PTR [edx-4]
  00029	33 c8		 xor	 ecx, eax
  0002b	e8 00 00 00 00	 call	 @__security_check_cookie@4
  00030	b8 00 00 00 00	 mov	 eax, OFFSET __ehfuncinfo$?OnPaint@CXTabCtrl@@IAEXXZ
  00035	e9 00 00 00 00	 jmp	 ___CxxFrameHandler3
text$x	ENDS
?OnPaint@CXTabCtrl@@IAEXXZ ENDP				; CXTabCtrl::OnPaint
; Function compile flags: /Ogtp
; File D:\git\src\IBK\IBK_DRFN\ProjSrc\SrcDrfn\Chart\INDEXOPTIMIZER\Control\XTabCtrl.cpp
; File C:\Program Files (x86)\Microsoft Visual Studio\2019\Community\VC\Tools\MSVC\14.29.30133\atlmfc\include\afxwin2.inl
; File D:\git\src\IBK\IBK_DRFN\ProjSrc\SrcDrfn\Chart\INDEXOPTIMIZER\Control\XTabCtrl.cpp
; File C:\Program Files (x86)\Microsoft Visual Studio\2019\Community\VC\Tools\MSVC\14.29.30133\atlmfc\include\afxwin2.inl
; File C:\Program Files (x86)\Microsoft Visual Studio\2019\Community\VC\Tools\MSVC\14.29.30133\atlmfc\include\atltypes.h
; File C:\Program Files (x86)\Microsoft Visual Studio\2019\Community\VC\Tools\MSVC\14.29.30133\atlmfc\include\afxwin2.inl
; File D:\git\src\IBK\IBK_DRFN\ProjSrc\SrcDrfn\Chart\INDEXOPTIMIZER\Control\XTabCtrl.cpp
;	COMDAT ?OnEraseBkgnd@CXTabCtrl@@IAEHPAVCDC@@@Z
_TEXT	SEGMENT
_rc$ = -20						; size = 16
__$ArrayPad$ = -4					; size = 4
_pDC$ = 8						; size = 4
?OnEraseBkgnd@CXTabCtrl@@IAEHPAVCDC@@@Z PROC		; CXTabCtrl::OnEraseBkgnd, COMDAT
; _this$ = ecx

; 730  : {

  00000	55		 push	 ebp
  00001	8b ec		 mov	 ebp, esp
  00003	83 ec 14	 sub	 esp, 20			; 00000014H
  00006	a1 00 00 00 00	 mov	 eax, DWORD PTR ___security_cookie
  0000b	33 c5		 xor	 eax, ebp
  0000d	89 45 fc	 mov	 DWORD PTR __$ArrayPad$[ebp], eax
  00010	56		 push	 esi
  00011	57		 push	 edi
  00012	8b 7d 08	 mov	 edi, DWORD PTR _pDC$[ebp]
; File C:\Program Files (x86)\Microsoft Visual Studio\2019\Community\VC\Tools\MSVC\14.29.30133\atlmfc\include\afxwin2.inl

; 86   : 	{ ASSERT(::IsWindow(m_hWnd)); ::GetClientRect(m_hWnd, lpRect); }

  00015	8d 45 ec	 lea	 eax, DWORD PTR _rc$[ebp]
; File D:\git\src\IBK\IBK_DRFN\ProjSrc\SrcDrfn\Chart\INDEXOPTIMIZER\Control\XTabCtrl.cpp

; 730  : {

  00018	8b f1		 mov	 esi, ecx
  0001a	0f 57 c0	 xorps	 xmm0, xmm0
; File C:\Program Files (x86)\Microsoft Visual Studio\2019\Community\VC\Tools\MSVC\14.29.30133\atlmfc\include\afxwin2.inl

; 86   : 	{ ASSERT(::IsWindow(m_hWnd)); ::GetClientRect(m_hWnd, lpRect); }

  0001d	50		 push	 eax
; File C:\Program Files (x86)\Microsoft Visual Studio\2019\Community\VC\Tools\MSVC\14.29.30133\atlmfc\include\atltypes.h

; 528  : 	left = 0;

  0001e	0f 11 45 ec	 movups	 XMMWORD PTR _rc$[ebp], xmm0
; File C:\Program Files (x86)\Microsoft Visual Studio\2019\Community\VC\Tools\MSVC\14.29.30133\atlmfc\include\afxwin2.inl

; 86   : 	{ ASSERT(::IsWindow(m_hWnd)); ::GetClientRect(m_hWnd, lpRect); }

  00022	ff 76 20	 push	 DWORD PTR [esi+32]
  00025	ff 15 00 00 00
	00		 call	 DWORD PTR __imp__GetClientRect@8
; File D:\git\src\IBK\IBK_DRFN\ProjSrc\SrcDrfn\Chart\INDEXOPTIMIZER\Control\XTabCtrl.cpp

; 733  : 	pDC->FillSolidRect(rc, m_clTabBk);

  0002b	ff b6 c0 00 00
	00		 push	 DWORD PTR [esi+192]
  00031	8d 45 ec	 lea	 eax, DWORD PTR _rc$[ebp]
  00034	8b cf		 mov	 ecx, edi
  00036	50		 push	 eax
  00037	e8 00 00 00 00	 call	 ?FillSolidRect@CDC@@QAEXPBUtagRECT@@K@Z ; CDC::FillSolidRect

; 734  : 
; 735  : //	rc.top += 20;
; 736  : 
; 737  : //	pDC->FillSolidRect(rc, RGB(233,233,232));
; 738  : 
; 739  : //	rc.bottom = rc.top + 19;
; 740  : //	pDC->FillSolidRect(rc, RGB(243,243,243));
; 741  : 	
; 742  : 	return TRUE;
; 743  : }

  0003c	8b 4d fc	 mov	 ecx, DWORD PTR __$ArrayPad$[ebp]
  0003f	b8 01 00 00 00	 mov	 eax, 1
  00044	5f		 pop	 edi
  00045	33 cd		 xor	 ecx, ebp
  00047	5e		 pop	 esi
  00048	e8 00 00 00 00	 call	 @__security_check_cookie@4
  0004d	8b e5		 mov	 esp, ebp
  0004f	5d		 pop	 ebp
  00050	c2 04 00	 ret	 4
?OnEraseBkgnd@CXTabCtrl@@IAEHPAVCDC@@@Z ENDP		; CXTabCtrl::OnEraseBkgnd
_TEXT	ENDS
; Function compile flags: /Ogtp
; File D:\git\src\IBK\IBK_DRFN\ProjSrc\SrcDrfn\Chart\INDEXOPTIMIZER\Control\XTabCtrl.cpp
; File C:\Program Files (x86)\Microsoft Visual Studio\2019\Community\VC\Tools\MSVC\14.29.30133\atlmfc\include\afxwin2.inl
; File C:\Program Files (x86)\Microsoft Visual Studio\2019\Community\VC\Tools\MSVC\14.29.30133\atlmfc\include\afxcmn.inl
; File D:\git\src\IBK\IBK_DRFN\ProjSrc\SrcDrfn\Chart\INDEXOPTIMIZER\Control\XTabCtrl.cpp
; File C:\Program Files (x86)\Microsoft Visual Studio\2019\Community\VC\Tools\MSVC\14.29.30133\atlmfc\include\afxcmn.inl
; File C:\Program Files (x86)\Microsoft Visual Studio\2019\Community\VC\Tools\MSVC\14.29.30133\atlmfc\include\afxwin2.inl
; File D:\git\src\IBK\IBK_DRFN\ProjSrc\SrcDrfn\Chart\INDEXOPTIMIZER\Control\XTabCtrl.cpp
;	COMDAT ?OnSize@CXTabCtrl@@IAEXIHH@Z
_TEXT	SEGMENT
_item$ = -28						; size = 28
_nType$ = 8						; size = 4
_cx$ = 12						; size = 4
_cy$ = 16						; size = 4
?OnSize@CXTabCtrl@@IAEXIHH@Z PROC			; CXTabCtrl::OnSize, COMDAT
; _this$ = ecx

; 713  : {

  00000	55		 push	 ebp
  00001	8b ec		 mov	 ebp, esp
  00003	83 ec 1c	 sub	 esp, 28			; 0000001cH
  00006	56		 push	 esi
  00007	57		 push	 edi
  00008	8b f9		 mov	 edi, ecx
; File C:\Program Files (x86)\Microsoft Visual Studio\2019\Community\VC\Tools\MSVC\14.29.30133\atlmfc\include\afxwin2.inl

; 330  : 	{ Default(); }

  0000a	e8 00 00 00 00	 call	 ?Default@CWnd@@IAEJXZ	; CWnd::Default
; File C:\Program Files (x86)\Microsoft Visual Studio\2019\Community\VC\Tools\MSVC\14.29.30133\atlmfc\include\afxcmn.inl

; 586  : 	{ ASSERT(::IsWindow(m_hWnd)); return (int)::SendMessage(m_hWnd, TCM_GETCURSEL, 0, 0L); }

  0000f	8b 35 00 00 00
	00		 mov	 esi, DWORD PTR __imp__SendMessageA@16
  00015	6a 00		 push	 0
  00017	6a 00		 push	 0
  00019	68 0b 13 00 00	 push	 4875			; 0000130bH
  0001e	ff 77 20	 push	 DWORD PTR [edi+32]
; File D:\git\src\IBK\IBK_DRFN\ProjSrc\SrcDrfn\Chart\INDEXOPTIMIZER\Control\XTabCtrl.cpp

; 719  : 	item.mask = TCIF_PARAM;

  00021	c7 45 e4 08 00
	00 00		 mov	 DWORD PTR _item$[ebp], 8
; File C:\Program Files (x86)\Microsoft Visual Studio\2019\Community\VC\Tools\MSVC\14.29.30133\atlmfc\include\afxcmn.inl

; 586  : 	{ ASSERT(::IsWindow(m_hWnd)); return (int)::SendMessage(m_hWnd, TCM_GETCURSEL, 0, 0L); }

  00028	ff d6		 call	 esi

; 566  : 	{ ASSERT(::IsWindow(m_hWnd)); return (BOOL)::SendMessage(m_hWnd, TCM_GETITEM, nItem, (LPARAM)pTabCtrlItem); }

  0002a	8d 4d e4	 lea	 ecx, DWORD PTR _item$[ebp]
  0002d	51		 push	 ecx
  0002e	50		 push	 eax
  0002f	68 05 13 00 00	 push	 4869			; 00001305H
  00034	ff 77 20	 push	 DWORD PTR [edi+32]
  00037	ff d6		 call	 esi
; File C:\Program Files (x86)\Microsoft Visual Studio\2019\Community\VC\Tools\MSVC\14.29.30133\atlmfc\include\afxwin2.inl

; 25   : 	{ return this == NULL ? NULL : m_hWnd; }

  00039	8b 4d fc	 mov	 ecx, DWORD PTR _item$[ebp+24]
  0003c	85 c9		 test	 ecx, ecx
  0003e	74 35		 je	 SHORT $LN2@OnSize
; File D:\git\src\IBK\IBK_DRFN\ProjSrc\SrcDrfn\Chart\INDEXOPTIMIZER\Control\XTabCtrl.cpp

; 725  : 	if(pWnd->GetSafeHwnd())

  00040	83 79 20 00	 cmp	 DWORD PTR [ecx+32], 0
  00044	74 2f		 je	 SHORT $LN2@OnSize

; 726  : 		pWnd->SetWindowPos(NULL, m_ptTabs.x, m_ptTabs.y, cx - m_ptTabs.x + m_nLeftOffset, cy - m_ptTabs.y + m_nUpperOffset, SWP_NOACTIVATE);	

  00046	8b 97 a8 00 00
	00		 mov	 edx, DWORD PTR [edi+168]
  0004c	8b 87 fc 00 00
	00		 mov	 eax, DWORD PTR [edi+252]
  00052	8b b7 a4 00 00
	00		 mov	 esi, DWORD PTR [edi+164]
  00058	2b c2		 sub	 eax, edx
  0005a	03 45 10	 add	 eax, DWORD PTR _cy$[ebp]
  0005d	6a 10		 push	 16			; 00000010H
  0005f	50		 push	 eax
  00060	8b 87 00 01 00
	00		 mov	 eax, DWORD PTR [edi+256]
  00066	2b c6		 sub	 eax, esi
  00068	03 45 0c	 add	 eax, DWORD PTR _cx$[ebp]
  0006b	50		 push	 eax
  0006c	52		 push	 edx
  0006d	56		 push	 esi
  0006e	6a 00		 push	 0
  00070	e8 00 00 00 00	 call	 ?SetWindowPos@CWnd@@QAEHPBV1@HHHHI@Z ; CWnd::SetWindowPos
$LN2@OnSize:

; 727  : }

  00075	5f		 pop	 edi
  00076	5e		 pop	 esi
  00077	8b e5		 mov	 esp, ebp
  00079	5d		 pop	 ebp
  0007a	c2 0c 00	 ret	 12			; 0000000cH
?OnSize@CXTabCtrl@@IAEXIHH@Z ENDP			; CXTabCtrl::OnSize
_TEXT	ENDS
; Function compile flags: /Ogtp
; File D:\git\src\IBK\IBK_DRFN\ProjSrc\SrcDrfn\Chart\INDEXOPTIMIZER\Control\XTabCtrl.cpp
; File C:\Program Files (x86)\Microsoft Visual Studio\2019\Community\VC\Tools\MSVC\14.29.30133\atlmfc\include\afxwin2.inl
; File D:\git\src\IBK\IBK_DRFN\ProjSrc\SrcDrfn\Chart\INDEXOPTIMIZER\Control\XTabCtrl.cpp
;	COMDAT ?OnLButtonUp@CXTabCtrl@@IAEXIVCPoint@@@Z
_TEXT	SEGMENT
__$EHRec$ = -12						; size = 12
_nFlags$ = 8						; size = 4
_point$ = 12						; size = 8
?OnLButtonUp@CXTabCtrl@@IAEXIVCPoint@@@Z PROC		; CXTabCtrl::OnLButtonUp, COMDAT
; _this$ = ecx

; 649  : {

  00000	55		 push	 ebp
  00001	8b ec		 mov	 ebp, esp
  00003	6a ff		 push	 -1
  00005	68 00 00 00 00	 push	 __ehhandler$?OnLButtonUp@CXTabCtrl@@IAEXIVCPoint@@@Z
  0000a	64 a1 00 00 00
	00		 mov	 eax, DWORD PTR fs:0
  00010	50		 push	 eax
  00011	a1 00 00 00 00	 mov	 eax, DWORD PTR ___security_cookie
  00016	33 c5		 xor	 eax, ebp
  00018	50		 push	 eax
  00019	8d 45 f4	 lea	 eax, DWORD PTR __$EHRec$[ebp]
  0001c	64 a3 00 00 00
	00		 mov	 DWORD PTR fs:0, eax
; File C:\Program Files (x86)\Microsoft Visual Studio\2019\Community\VC\Tools\MSVC\14.29.30133\atlmfc\include\afxwin2.inl

; 434  : 	{ Default(); }

  00022	e8 00 00 00 00	 call	 ?Default@CWnd@@IAEJXZ	; CWnd::Default
; File D:\git\src\IBK\IBK_DRFN\ProjSrc\SrcDrfn\Chart\INDEXOPTIMIZER\Control\XTabCtrl.cpp

; 710  : }

  00027	8b 4d f4	 mov	 ecx, DWORD PTR __$EHRec$[ebp]
  0002a	64 89 0d 00 00
	00 00		 mov	 DWORD PTR fs:0, ecx
  00031	59		 pop	 ecx
  00032	8b e5		 mov	 esp, ebp
  00034	5d		 pop	 ebp
  00035	c2 0c 00	 ret	 12			; 0000000cH
  00038	cc		 int	 3
  00039	cc		 int	 3
  0003a	cc		 int	 3
  0003b	cc		 int	 3
  0003c	cc		 int	 3
_TEXT	ENDS
;	COMDAT text$x
text$x	SEGMENT
__ehhandler$?OnLButtonUp@CXTabCtrl@@IAEXIVCPoint@@@Z:
  00000	90		 npad	 1
  00001	90		 npad	 1
  00002	8b 54 24 08	 mov	 edx, DWORD PTR [esp+8]
  00006	8d 42 0c	 lea	 eax, DWORD PTR [edx+12]
  00009	8b 4a fc	 mov	 ecx, DWORD PTR [edx-4]
  0000c	33 c8		 xor	 ecx, eax
  0000e	e8 00 00 00 00	 call	 @__security_check_cookie@4
  00013	b8 00 00 00 00	 mov	 eax, OFFSET __ehfuncinfo$?OnLButtonUp@CXTabCtrl@@IAEXIVCPoint@@@Z
  00018	e9 00 00 00 00	 jmp	 ___CxxFrameHandler3
text$x	ENDS
?OnLButtonUp@CXTabCtrl@@IAEXIVCPoint@@@Z ENDP		; CXTabCtrl::OnLButtonUp
; Function compile flags: /Ogtp
; File D:\git\src\IBK\IBK_DRFN\ProjSrc\SrcDrfn\Chart\INDEXOPTIMIZER\Control\XTabCtrl.cpp
; File C:\Program Files (x86)\Microsoft Visual Studio\2019\Community\VC\Tools\MSVC\14.29.30133\atlmfc\include\afxwin2.inl
; File D:\git\src\IBK\IBK_DRFN\ProjSrc\SrcDrfn\Chart\INDEXOPTIMIZER\Control\XTabCtrl.cpp
;	COMDAT ?OnLButtonDown@CXTabCtrl@@IAEXIVCPoint@@@Z
_TEXT	SEGMENT
__$EHRec$ = -12						; size = 12
_nFlags$ = 8						; size = 4
_point$ = 12						; size = 8
?OnLButtonDown@CXTabCtrl@@IAEXIVCPoint@@@Z PROC		; CXTabCtrl::OnLButtonDown, COMDAT
; _this$ = ecx

; 608  : {

  00000	55		 push	 ebp
  00001	8b ec		 mov	 ebp, esp
  00003	6a ff		 push	 -1
  00005	68 00 00 00 00	 push	 __ehhandler$?OnLButtonDown@CXTabCtrl@@IAEXIVCPoint@@@Z
  0000a	64 a1 00 00 00
	00		 mov	 eax, DWORD PTR fs:0
  00010	50		 push	 eax
  00011	a1 00 00 00 00	 mov	 eax, DWORD PTR ___security_cookie
  00016	33 c5		 xor	 eax, ebp
  00018	50		 push	 eax
  00019	8d 45 f4	 lea	 eax, DWORD PTR __$EHRec$[ebp]
  0001c	64 a3 00 00 00
	00		 mov	 DWORD PTR fs:0, eax
; File C:\Program Files (x86)\Microsoft Visual Studio\2019\Community\VC\Tools\MSVC\14.29.30133\atlmfc\include\afxwin2.inl

; 432  : 	{ Default(); }

  00022	e8 00 00 00 00	 call	 ?Default@CWnd@@IAEJXZ	; CWnd::Default
; File D:\git\src\IBK\IBK_DRFN\ProjSrc\SrcDrfn\Chart\INDEXOPTIMIZER\Control\XTabCtrl.cpp

; 646  : }

  00027	8b 4d f4	 mov	 ecx, DWORD PTR __$EHRec$[ebp]
  0002a	64 89 0d 00 00
	00 00		 mov	 DWORD PTR fs:0, ecx
  00031	59		 pop	 ecx
  00032	8b e5		 mov	 esp, ebp
  00034	5d		 pop	 ebp
  00035	c2 0c 00	 ret	 12			; 0000000cH
  00038	cc		 int	 3
  00039	cc		 int	 3
  0003a	cc		 int	 3
  0003b	cc		 int	 3
  0003c	cc		 int	 3
_TEXT	ENDS
;	COMDAT text$x
text$x	SEGMENT
__ehhandler$?OnLButtonDown@CXTabCtrl@@IAEXIVCPoint@@@Z:
  00000	90		 npad	 1
  00001	90		 npad	 1
  00002	8b 54 24 08	 mov	 edx, DWORD PTR [esp+8]
  00006	8d 42 0c	 lea	 eax, DWORD PTR [edx+12]
  00009	8b 4a fc	 mov	 ecx, DWORD PTR [edx-4]
  0000c	33 c8		 xor	 ecx, eax
  0000e	e8 00 00 00 00	 call	 @__security_check_cookie@4
  00013	b8 00 00 00 00	 mov	 eax, OFFSET __ehfuncinfo$?OnLButtonDown@CXTabCtrl@@IAEXIVCPoint@@@Z
  00018	e9 00 00 00 00	 jmp	 ___CxxFrameHandler3
text$x	ENDS
?OnLButtonDown@CXTabCtrl@@IAEXIVCPoint@@@Z ENDP		; CXTabCtrl::OnLButtonDown
; Function compile flags: /Ogtp
; File D:\git\src\IBK\IBK_DRFN\ProjSrc\SrcDrfn\Chart\INDEXOPTIMIZER\Control\XTabCtrl.cpp
; File C:\Program Files (x86)\Microsoft Visual Studio\2019\Community\VC\Tools\MSVC\14.29.30133\atlmfc\include\afxcmn.inl
; File C:\Program Files (x86)\Microsoft Visual Studio\2019\Community\VC\Tools\MSVC\14.29.30133\atlmfc\include\atltypes.h
; File C:\Program Files (x86)\Microsoft Visual Studio\2019\Community\VC\Tools\MSVC\14.29.30133\atlmfc\include\afxcmn.inl
; File D:\git\src\IBK\IBK_DRFN\ProjSrc\SrcDrfn\Chart\INDEXOPTIMIZER\Control\XTabCtrl.cpp
; File C:\Program Files (x86)\Microsoft Visual Studio\2019\Community\VC\Tools\MSVC\14.29.30133\atlmfc\include\atltypes.h
; File D:\git\src\IBK\IBK_DRFN\ProjSrc\SrcDrfn\Chart\INDEXOPTIMIZER\Control\XTabCtrl.cpp
; File C:\Program Files (x86)\Microsoft Visual Studio\2019\Community\VC\Tools\MSVC\14.29.30133\atlmfc\include\afxwin2.inl
; File D:\git\src\IBK\IBK_DRFN\ProjSrc\SrcDrfn\Chart\INDEXOPTIMIZER\Control\XTabCtrl.cpp
; File C:\Program Files (x86)\Microsoft Visual Studio\2019\Community\VC\Tools\MSVC\14.29.30133\atlmfc\include\afxwin2.inl
; File D:\git\src\IBK\IBK_DRFN\ProjSrc\SrcDrfn\Chart\INDEXOPTIMIZER\Control\XTabCtrl.cpp
; File C:\Program Files (x86)\Microsoft Visual Studio\2019\Community\VC\Tools\MSVC\14.29.30133\atlmfc\include\afxwin2.inl
; File D:\git\src\IBK\IBK_DRFN\ProjSrc\SrcDrfn\Chart\INDEXOPTIMIZER\Control\XTabCtrl.cpp
; File C:\Program Files (x86)\Microsoft Visual Studio\2019\Community\VC\Tools\MSVC\14.29.30133\atlmfc\include\afxwin2.inl
; File D:\git\src\IBK\IBK_DRFN\ProjSrc\SrcDrfn\Chart\INDEXOPTIMIZER\Control\XTabCtrl.cpp
;	COMDAT ?OnTimer@CXTabCtrl@@IAEXI@Z
_TEXT	SEGMENT
_pt$ = -44						; size = 8
_rectScreen$ = -36					; size = 16
_rectItem$ = -20					; size = 16
__$ArrayPad$ = -4					; size = 4
_nIDEvent$ = 8						; size = 4
?OnTimer@CXTabCtrl@@IAEXI@Z PROC			; CXTabCtrl::OnTimer, COMDAT
; _this$ = ecx

; 506  : {

  00000	55		 push	 ebp
  00001	8b ec		 mov	 ebp, esp
  00003	83 ec 2c	 sub	 esp, 44			; 0000002cH
  00006	a1 00 00 00 00	 mov	 eax, DWORD PTR ___security_cookie
  0000b	33 c5		 xor	 eax, ebp
  0000d	89 45 fc	 mov	 DWORD PTR __$ArrayPad$[ebp], eax
  00010	56		 push	 esi

; 507  : 	// TODO: Add your message handler code here and/or call default
; 508  : 	POINT pt;
; 509  : 	GetCursorPos(&pt);

  00011	8d 45 d4	 lea	 eax, DWORD PTR _pt$[ebp]
  00014	8b f1		 mov	 esi, ecx
  00016	50		 push	 eax
  00017	ff 15 00 00 00
	00		 call	 DWORD PTR __imp__GetCursorPos@4
; File C:\Program Files (x86)\Microsoft Visual Studio\2019\Community\VC\Tools\MSVC\14.29.30133\atlmfc\include\afxcmn.inl

; 584  : 	{ ASSERT(::IsWindow(m_hWnd)); return (BOOL)::SendMessage(m_hWnd, TCM_GETITEMRECT, nItem, (LPARAM)lpRect); }

  0001d	8d 45 ec	 lea	 eax, DWORD PTR _rectItem$[ebp]
  00020	0f 57 c0	 xorps	 xmm0, xmm0
  00023	50		 push	 eax
  00024	ff b6 c4 00 00
	00		 push	 DWORD PTR [esi+196]
; File C:\Program Files (x86)\Microsoft Visual Studio\2019\Community\VC\Tools\MSVC\14.29.30133\atlmfc\include\atltypes.h

; 528  : 	left = 0;

  0002a	0f 11 45 ec	 movups	 XMMWORD PTR _rectItem$[ebp], xmm0
; File C:\Program Files (x86)\Microsoft Visual Studio\2019\Community\VC\Tools\MSVC\14.29.30133\atlmfc\include\afxcmn.inl

; 584  : 	{ ASSERT(::IsWindow(m_hWnd)); return (BOOL)::SendMessage(m_hWnd, TCM_GETITEMRECT, nItem, (LPARAM)lpRect); }

  0002e	68 0a 13 00 00	 push	 4874			; 0000130aH
  00033	ff 76 20	 push	 DWORD PTR [esi+32]
  00036	ff 15 00 00 00
	00		 call	 DWORD PTR __imp__SendMessageA@16
; File D:\git\src\IBK\IBK_DRFN\ProjSrc\SrcDrfn\Chart\INDEXOPTIMIZER\Control\XTabCtrl.cpp

; 513  : 	rectScreen = rectItem;

  0003c	0f 10 45 ec	 movups	 xmm0, XMMWORD PTR _rectItem$[ebp]

; 514  : 	ClientToScreen(rectScreen);

  00040	8d 45 dc	 lea	 eax, DWORD PTR _rectScreen$[ebp]
  00043	8b ce		 mov	 ecx, esi
  00045	50		 push	 eax
  00046	0f 11 45 dc	 movups	 XMMWORD PTR _rectScreen$[ebp], xmm0
  0004a	e8 00 00 00 00	 call	 ?ClientToScreen@CWnd@@QBEXPAUtagRECT@@@Z ; CWnd::ClientToScreen
; File C:\Program Files (x86)\Microsoft Visual Studio\2019\Community\VC\Tools\MSVC\14.29.30133\atlmfc\include\atltypes.h

; 648  : 	return ::PtInRect(this, point);

  0004f	ff 75 d8	 push	 DWORD PTR _pt$[ebp+4]
  00052	8d 45 dc	 lea	 eax, DWORD PTR _rectScreen$[ebp]
  00055	ff 75 d4	 push	 DWORD PTR _pt$[ebp]
  00058	50		 push	 eax
  00059	ff 15 00 00 00
	00		 call	 DWORD PTR __imp__PtInRect@12
; File D:\git\src\IBK\IBK_DRFN\ProjSrc\SrcDrfn\Chart\INDEXOPTIMIZER\Control\XTabCtrl.cpp

; 517  : 	if (!rectScreen.PtInRect(pt)) 

  0005f	85 c0		 test	 eax, eax
  00061	75 2b		 jne	 SHORT $LN2@OnTimer
; File C:\Program Files (x86)\Microsoft Visual Studio\2019\Community\VC\Tools\MSVC\14.29.30133\atlmfc\include\afxwin2.inl

; 155  : 	{ ASSERT(::IsWindow(m_hWnd)); return ::KillTimer(m_hWnd, nIDEvent); }

  00063	6a 01		 push	 1
  00065	ff 76 20	 push	 DWORD PTR [esi+32]
  00068	ff 15 00 00 00
	00		 call	 DWORD PTR __imp__KillTimer@8

; 116  : 	{ ASSERT(::IsWindow(m_hWnd)); ::InvalidateRect(m_hWnd, lpRect, bErase); }

  0006e	6a 01		 push	 1
  00070	8d 45 ec	 lea	 eax, DWORD PTR _rectItem$[ebp]
; File D:\git\src\IBK\IBK_DRFN\ProjSrc\SrcDrfn\Chart\INDEXOPTIMIZER\Control\XTabCtrl.cpp

; 520  : 		m_bMouseOver = false;

  00073	c6 86 c8 00 00
	00 00		 mov	 BYTE PTR [esi+200], 0
; File C:\Program Files (x86)\Microsoft Visual Studio\2019\Community\VC\Tools\MSVC\14.29.30133\atlmfc\include\afxwin2.inl

; 116  : 	{ ASSERT(::IsWindow(m_hWnd)); ::InvalidateRect(m_hWnd, lpRect, bErase); }

  0007a	50		 push	 eax
  0007b	ff 76 20	 push	 DWORD PTR [esi+32]
; File D:\git\src\IBK\IBK_DRFN\ProjSrc\SrcDrfn\Chart\INDEXOPTIMIZER\Control\XTabCtrl.cpp

; 521  : 		m_iIndexMouseOver = -1;

  0007e	c7 86 c4 00 00
	00 ff ff ff ff	 mov	 DWORD PTR [esi+196], -1
; File C:\Program Files (x86)\Microsoft Visual Studio\2019\Community\VC\Tools\MSVC\14.29.30133\atlmfc\include\afxwin2.inl

; 116  : 	{ ASSERT(::IsWindow(m_hWnd)); ::InvalidateRect(m_hWnd, lpRect, bErase); }

  00088	ff 15 00 00 00
	00		 call	 DWORD PTR __imp__InvalidateRect@12
$LN2@OnTimer:

; 466  : 	{ Default(); }

  0008e	8b ce		 mov	 ecx, esi
  00090	e8 00 00 00 00	 call	 ?Default@CWnd@@IAEJXZ	; CWnd::Default
; File D:\git\src\IBK\IBK_DRFN\ProjSrc\SrcDrfn\Chart\INDEXOPTIMIZER\Control\XTabCtrl.cpp

; 525  : }

  00095	8b 4d fc	 mov	 ecx, DWORD PTR __$ArrayPad$[ebp]
  00098	33 cd		 xor	 ecx, ebp
; File C:\Program Files (x86)\Microsoft Visual Studio\2019\Community\VC\Tools\MSVC\14.29.30133\atlmfc\include\afxwin2.inl

; 466  : 	{ Default(); }

  0009a	5e		 pop	 esi
; File D:\git\src\IBK\IBK_DRFN\ProjSrc\SrcDrfn\Chart\INDEXOPTIMIZER\Control\XTabCtrl.cpp

; 525  : }

  0009b	e8 00 00 00 00	 call	 @__security_check_cookie@4
  000a0	8b e5		 mov	 esp, ebp
  000a2	5d		 pop	 ebp
  000a3	c2 04 00	 ret	 4
?OnTimer@CXTabCtrl@@IAEXI@Z ENDP			; CXTabCtrl::OnTimer
_TEXT	ENDS
; Function compile flags: /Ogtp
; File D:\git\src\IBK\IBK_DRFN\ProjSrc\SrcDrfn\Chart\INDEXOPTIMIZER\Control\XTabCtrl.cpp
; File C:\Program Files (x86)\Microsoft Visual Studio\2019\Community\VC\Tools\MSVC\14.29.30133\atlmfc\include\afxwin2.inl
; File D:\git\src\IBK\IBK_DRFN\ProjSrc\SrcDrfn\Chart\INDEXOPTIMIZER\Control\XTabCtrl.cpp
;	COMDAT ?OnMouseMove@CXTabCtrl@@IAEXIVCPoint@@@Z
_TEXT	SEGMENT
__$ArrayPad$ = -16					; size = 4
__$EHRec$ = -12						; size = 12
_nFlags$ = 8						; size = 4
_point$ = 12						; size = 8
?OnMouseMove@CXTabCtrl@@IAEXIVCPoint@@@Z PROC		; CXTabCtrl::OnMouseMove, COMDAT
; _this$ = ecx

; 427  : {

  00000	55		 push	 ebp
  00001	8b ec		 mov	 ebp, esp
  00003	6a ff		 push	 -1
  00005	68 00 00 00 00	 push	 __ehhandler$?OnMouseMove@CXTabCtrl@@IAEXIVCPoint@@@Z
  0000a	64 a1 00 00 00
	00		 mov	 eax, DWORD PTR fs:0
  00010	50		 push	 eax
  00011	51		 push	 ecx
  00012	a1 00 00 00 00	 mov	 eax, DWORD PTR ___security_cookie
  00017	33 c5		 xor	 eax, ebp
  00019	89 45 f0	 mov	 DWORD PTR __$ArrayPad$[ebp], eax
  0001c	50		 push	 eax
  0001d	8d 45 f4	 lea	 eax, DWORD PTR __$EHRec$[ebp]
  00020	64 a3 00 00 00
	00		 mov	 DWORD PTR fs:0, eax
; File C:\Program Files (x86)\Microsoft Visual Studio\2019\Community\VC\Tools\MSVC\14.29.30133\atlmfc\include\afxwin2.inl

; 454  : 	{ Default(); }

  00026	e8 00 00 00 00	 call	 ?Default@CWnd@@IAEJXZ	; CWnd::Default
; File D:\git\src\IBK\IBK_DRFN\ProjSrc\SrcDrfn\Chart\INDEXOPTIMIZER\Control\XTabCtrl.cpp

; 503  : }

  0002b	8b 4d f4	 mov	 ecx, DWORD PTR __$EHRec$[ebp]
  0002e	64 89 0d 00 00
	00 00		 mov	 DWORD PTR fs:0, ecx
  00035	59		 pop	 ecx
  00036	8b 4d f0	 mov	 ecx, DWORD PTR __$ArrayPad$[ebp]
  00039	33 cd		 xor	 ecx, ebp
  0003b	e8 00 00 00 00	 call	 @__security_check_cookie@4
  00040	8b e5		 mov	 esp, ebp
  00042	5d		 pop	 ebp
  00043	c2 0c 00	 ret	 12			; 0000000cH
  00046	cc		 int	 3
  00047	cc		 int	 3
  00048	cc		 int	 3
  00049	cc		 int	 3
  0004a	cc		 int	 3
_TEXT	ENDS
;	COMDAT text$x
text$x	SEGMENT
__ehhandler$?OnMouseMove@CXTabCtrl@@IAEXIVCPoint@@@Z:
  00000	90		 npad	 1
  00001	90		 npad	 1
  00002	8b 54 24 08	 mov	 edx, DWORD PTR [esp+8]
  00006	8d 42 0c	 lea	 eax, DWORD PTR [edx+12]
  00009	8b 4a f8	 mov	 ecx, DWORD PTR [edx-8]
  0000c	33 c8		 xor	 ecx, eax
  0000e	e8 00 00 00 00	 call	 @__security_check_cookie@4
  00013	8b 4a fc	 mov	 ecx, DWORD PTR [edx-4]
  00016	33 c8		 xor	 ecx, eax
  00018	e8 00 00 00 00	 call	 @__security_check_cookie@4
  0001d	b8 00 00 00 00	 mov	 eax, OFFSET __ehfuncinfo$?OnMouseMove@CXTabCtrl@@IAEXIVCPoint@@@Z
  00022	e9 00 00 00 00	 jmp	 ___CxxFrameHandler3
text$x	ENDS
?OnMouseMove@CXTabCtrl@@IAEXIVCPoint@@@Z ENDP		; CXTabCtrl::OnMouseMove
; Function compile flags: /Ogtp
; File D:\git\src\IBK\IBK_DRFN\ProjSrc\SrcDrfn\Chart\INDEXOPTIMIZER\Control\XTabCtrl.cpp
; File C:\Program Files (x86)\Microsoft Visual Studio\2019\Community\VC\Tools\MSVC\14.29.30133\atlmfc\include\afxcmn.inl
; File D:\git\src\IBK\IBK_DRFN\ProjSrc\SrcDrfn\Chart\INDEXOPTIMIZER\Control\XTabCtrl.cpp
; File C:\Program Files (x86)\Microsoft Visual Studio\2019\Community\VC\Tools\MSVC\14.29.30133\atlmfc\include\afxcmn.inl
; File D:\git\src\IBK\IBK_DRFN\ProjSrc\SrcDrfn\Chart\INDEXOPTIMIZER\Control\XTabCtrl.cpp
; File C:\Program Files (x86)\Microsoft Visual Studio\2019\Community\VC\Tools\MSVC\14.29.30133\atlmfc\include\afxcmn.inl
; File D:\git\src\IBK\IBK_DRFN\ProjSrc\SrcDrfn\Chart\INDEXOPTIMIZER\Control\XTabCtrl.cpp
; File C:\Program Files (x86)\Microsoft Visual Studio\2019\Community\VC\Tools\MSVC\14.29.30133\atlmfc\include\afxcmn.inl
; File D:\git\src\IBK\IBK_DRFN\ProjSrc\SrcDrfn\Chart\INDEXOPTIMIZER\Control\XTabCtrl.cpp
;	COMDAT ?OnSelchanging@CXTabCtrl@@IAEHPAUtagNMHDR@@PAJ@Z
_TEXT	SEGMENT
_pNMHDR$ = 8						; size = 4
_pResult$ = 12						; size = 4
?OnSelchanging@CXTabCtrl@@IAEHPAUtagNMHDR@@PAJ@Z PROC	; CXTabCtrl::OnSelchanging, COMDAT
; _this$ = ecx

; 265  : {

  00000	55		 push	 ebp
  00001	8b ec		 mov	 ebp, esp
  00003	56		 push	 esi
; File C:\Program Files (x86)\Microsoft Visual Studio\2019\Community\VC\Tools\MSVC\14.29.30133\atlmfc\include\afxcmn.inl

; 586  : 	{ ASSERT(::IsWindow(m_hWnd)); return (int)::SendMessage(m_hWnd, TCM_GETCURSEL, 0, 0L); }

  00004	6a 00		 push	 0
; File D:\git\src\IBK\IBK_DRFN\ProjSrc\SrcDrfn\Chart\INDEXOPTIMIZER\Control\XTabCtrl.cpp

; 265  : {

  00006	8b f1		 mov	 esi, ecx
; File C:\Program Files (x86)\Microsoft Visual Studio\2019\Community\VC\Tools\MSVC\14.29.30133\atlmfc\include\afxcmn.inl

; 586  : 	{ ASSERT(::IsWindow(m_hWnd)); return (int)::SendMessage(m_hWnd, TCM_GETCURSEL, 0, 0L); }

  00008	6a 00		 push	 0
  0000a	68 0b 13 00 00	 push	 4875			; 0000130bH
; File D:\git\src\IBK\IBK_DRFN\ProjSrc\SrcDrfn\Chart\INDEXOPTIMIZER\Control\XTabCtrl.cpp

; 267  : 	m_nPrevIndex = m_iSelectedTab;

  0000f	8b 86 a0 00 00
	00		 mov	 eax, DWORD PTR [esi+160]
; File C:\Program Files (x86)\Microsoft Visual Studio\2019\Community\VC\Tools\MSVC\14.29.30133\atlmfc\include\afxcmn.inl

; 586  : 	{ ASSERT(::IsWindow(m_hWnd)); return (int)::SendMessage(m_hWnd, TCM_GETCURSEL, 0, 0L); }

  00015	ff 76 20	 push	 DWORD PTR [esi+32]
; File D:\git\src\IBK\IBK_DRFN\ProjSrc\SrcDrfn\Chart\INDEXOPTIMIZER\Control\XTabCtrl.cpp

; 267  : 	m_nPrevIndex = m_iSelectedTab;

  00018	89 86 ec 00 00
	00		 mov	 DWORD PTR [esi+236], eax
; File C:\Program Files (x86)\Microsoft Visual Studio\2019\Community\VC\Tools\MSVC\14.29.30133\atlmfc\include\afxcmn.inl

; 586  : 	{ ASSERT(::IsWindow(m_hWnd)); return (int)::SendMessage(m_hWnd, TCM_GETCURSEL, 0, 0L); }

  0001e	ff 15 00 00 00
	00		 call	 DWORD PTR __imp__SendMessageA@16
; File D:\git\src\IBK\IBK_DRFN\ProjSrc\SrcDrfn\Chart\INDEXOPTIMIZER\Control\XTabCtrl.cpp

; 268  : 	m_iSelectedTab = GetCurSel();

  00024	89 86 a0 00 00
	00		 mov	 DWORD PTR [esi+160], eax

; 269  : 
; 270  : 	*pResult = 0;

  0002a	8b 45 0c	 mov	 eax, DWORD PTR _pResult$[ebp]

; 271  : 	return FALSE;

  0002d	5e		 pop	 esi
  0002e	c7 00 00 00 00
	00		 mov	 DWORD PTR [eax], 0
  00034	33 c0		 xor	 eax, eax

; 272  : }

  00036	5d		 pop	 ebp
  00037	c2 08 00	 ret	 8
?OnSelchanging@CXTabCtrl@@IAEHPAUtagNMHDR@@PAJ@Z ENDP	; CXTabCtrl::OnSelchanging
_TEXT	ENDS
; Function compile flags: /Ogtp
; File D:\git\src\IBK\IBK_DRFN\ProjSrc\SrcDrfn\Chart\INDEXOPTIMIZER\Control\XTabCtrl.cpp
; File C:\Program Files (x86)\Microsoft Visual Studio\2019\Community\VC\Tools\MSVC\14.29.30133\atlmfc\include\afxcmn.inl
; File D:\git\src\IBK\IBK_DRFN\ProjSrc\SrcDrfn\Chart\INDEXOPTIMIZER\Control\XTabCtrl.cpp
; File C:\Program Files (x86)\Microsoft Visual Studio\2019\Community\VC\Tools\MSVC\14.29.30133\atlmfc\include\afxcmn.inl
; File D:\git\src\IBK\IBK_DRFN\ProjSrc\SrcDrfn\Chart\INDEXOPTIMIZER\Control\XTabCtrl.cpp
; File C:\Program Files (x86)\Microsoft Visual Studio\2019\Community\VC\Tools\MSVC\14.29.30133\atlmfc\include\afxcmn.inl
; File D:\git\src\IBK\IBK_DRFN\ProjSrc\SrcDrfn\Chart\INDEXOPTIMIZER\Control\XTabCtrl.cpp
; File C:\Program Files (x86)\Microsoft Visual Studio\2019\Community\VC\Tools\MSVC\14.29.30133\atlmfc\include\afxtempl.h
; File D:\git\src\IBK\IBK_DRFN\ProjSrc\SrcDrfn\Chart\INDEXOPTIMIZER\Control\XTabCtrl.cpp
; File C:\Program Files (x86)\Microsoft Visual Studio\2019\Community\VC\Tools\MSVC\14.29.30133\atlmfc\include\afxcmn.inl
; File D:\git\src\IBK\IBK_DRFN\ProjSrc\SrcDrfn\Chart\INDEXOPTIMIZER\Control\XTabCtrl.cpp
; File C:\Program Files (x86)\Microsoft Visual Studio\2019\Community\VC\Tools\MSVC\14.29.30133\atlmfc\include\afxcmn.inl
; File D:\git\src\IBK\IBK_DRFN\ProjSrc\SrcDrfn\Chart\INDEXOPTIMIZER\Control\XTabCtrl.cpp
; File C:\Program Files (x86)\Microsoft Visual Studio\2019\Community\VC\Tools\MSVC\14.29.30133\atlmfc\include\afxcmn.inl
; File D:\git\src\IBK\IBK_DRFN\ProjSrc\SrcDrfn\Chart\INDEXOPTIMIZER\Control\XTabCtrl.cpp
; File C:\Program Files (x86)\Microsoft Visual Studio\2019\Community\VC\Tools\MSVC\14.29.30133\atlmfc\include\afxcmn.inl
; File D:\git\src\IBK\IBK_DRFN\ProjSrc\SrcDrfn\Chart\INDEXOPTIMIZER\Control\XTabCtrl.cpp
; File C:\Program Files (x86)\Microsoft Visual Studio\2019\Community\VC\Tools\MSVC\14.29.30133\atlmfc\include\afxwin2.inl
; File C:\Program Files (x86)\Microsoft Visual Studio\2019\Community\VC\Tools\MSVC\14.29.30133\atlmfc\include\atltypes.h
; File C:\Program Files (x86)\Microsoft Visual Studio\2019\Community\VC\Tools\MSVC\14.29.30133\atlmfc\include\afxwin2.inl
; File C:\Program Files (x86)\Microsoft Visual Studio\2019\Community\VC\Tools\MSVC\14.29.30133\atlmfc\include\afxcmn.inl
; File C:\Program Files (x86)\Microsoft Visual Studio\2019\Community\VC\Tools\MSVC\14.29.30133\atlmfc\include\atltypes.h
; File C:\Program Files (x86)\Microsoft Visual Studio\2019\Community\VC\Tools\MSVC\14.29.30133\atlmfc\include\afxcmn.inl
; File D:\git\src\IBK\IBK_DRFN\ProjSrc\SrcDrfn\Chart\INDEXOPTIMIZER\Control\XTabCtrl.cpp
; File C:\Program Files (x86)\Microsoft Visual Studio\2019\Community\VC\Tools\MSVC\14.29.30133\atlmfc\include\afxtempl.h
; File D:\git\src\IBK\IBK_DRFN\ProjSrc\SrcDrfn\Chart\INDEXOPTIMIZER\Control\XTabCtrl.cpp
;	COMDAT ?OnSelchange@CXTabCtrl@@IAEHPAUtagNMHDR@@PAJ@Z
_TEXT	SEGMENT
_item$1 = -68						; size = 28
_pResult$GSCopy$1$ = -40				; size = 4
_rcTab$2 = -36						; size = 16
_rc$3 = -20						; size = 16
__$ArrayPad$ = -4					; size = 4
_pNMHDR$ = 8						; size = 4
_pResult$ = 12						; size = 4
?OnSelchange@CXTabCtrl@@IAEHPAUtagNMHDR@@PAJ@Z PROC	; CXTabCtrl::OnSelchange, COMDAT
; _this$ = ecx

; 221  : {

  00000	55		 push	 ebp
  00001	8b ec		 mov	 ebp, esp
  00003	83 ec 44	 sub	 esp, 68			; 00000044H
  00006	a1 00 00 00 00	 mov	 eax, DWORD PTR ___security_cookie
  0000b	33 c5		 xor	 eax, ebp
  0000d	89 45 fc	 mov	 DWORD PTR __$ArrayPad$[ebp], eax
  00010	8b 45 0c	 mov	 eax, DWORD PTR _pResult$[ebp]
  00013	53		 push	 ebx
  00014	56		 push	 esi
; File C:\Program Files (x86)\Microsoft Visual Studio\2019\Community\VC\Tools\MSVC\14.29.30133\atlmfc\include\afxcmn.inl

; 586  : 	{ ASSERT(::IsWindow(m_hWnd)); return (int)::SendMessage(m_hWnd, TCM_GETCURSEL, 0, 0L); }

  00015	8b 35 00 00 00
	00		 mov	 esi, DWORD PTR __imp__SendMessageA@16
; File D:\git\src\IBK\IBK_DRFN\ProjSrc\SrcDrfn\Chart\INDEXOPTIMIZER\Control\XTabCtrl.cpp

; 221  : {

  0001b	57		 push	 edi
; File C:\Program Files (x86)\Microsoft Visual Studio\2019\Community\VC\Tools\MSVC\14.29.30133\atlmfc\include\afxcmn.inl

; 586  : 	{ ASSERT(::IsWindow(m_hWnd)); return (int)::SendMessage(m_hWnd, TCM_GETCURSEL, 0, 0L); }

  0001c	6a 00		 push	 0
; File D:\git\src\IBK\IBK_DRFN\ProjSrc\SrcDrfn\Chart\INDEXOPTIMIZER\Control\XTabCtrl.cpp

; 221  : {

  0001e	8b f9		 mov	 edi, ecx
  00020	89 45 d8	 mov	 DWORD PTR _pResult$GSCopy$1$[ebp], eax
; File C:\Program Files (x86)\Microsoft Visual Studio\2019\Community\VC\Tools\MSVC\14.29.30133\atlmfc\include\afxcmn.inl

; 586  : 	{ ASSERT(::IsWindow(m_hWnd)); return (int)::SendMessage(m_hWnd, TCM_GETCURSEL, 0, 0L); }

  00023	6a 00		 push	 0
  00025	68 0b 13 00 00	 push	 4875			; 0000130bH
  0002a	ff 77 20	 push	 DWORD PTR [edi+32]
  0002d	ff d6		 call	 esi
; File D:\git\src\IBK\IBK_DRFN\ProjSrc\SrcDrfn\Chart\INDEXOPTIMIZER\Control\XTabCtrl.cpp

; 223  : 	int iNewTab = GetCurSel();

  0002f	8b d8		 mov	 ebx, eax
; File C:\Program Files (x86)\Microsoft Visual Studio\2019\Community\VC\Tools\MSVC\14.29.30133\atlmfc\include\afxtempl.h

; 321  : 	if(nIndex >= 0 && nIndex < m_nSize)

  00031	85 db		 test	 ebx, ebx
  00033	0f 88 d0 00 00
	00		 js	 $LN12@OnSelchang
  00039	3b 9f 94 00 00
	00		 cmp	 ebx, DWORD PTR [edi+148]
  0003f	0f 8d c4 00 00
	00		 jge	 $LN12@OnSelchang
; File D:\git\src\IBK\IBK_DRFN\ProjSrc\SrcDrfn\Chart\INDEXOPTIMIZER\Control\XTabCtrl.cpp

; 225  : 	if (!IsTabEnabled(iNewTab))

  00045	8b 8f 90 00 00
	00		 mov	 ecx, DWORD PTR [edi+144]
  0004b	8b 87 a0 00 00
	00		 mov	 eax, DWORD PTR [edi+160]
  00051	8b 57 20	 mov	 edx, DWORD PTR [edi+32]
  00054	83 3c 99 00	 cmp	 DWORD PTR [ecx+ebx*4], 0
  00058	75 10		 jne	 SHORT $LN2@OnSelchang
; File C:\Program Files (x86)\Microsoft Visual Studio\2019\Community\VC\Tools\MSVC\14.29.30133\atlmfc\include\afxcmn.inl

; 588  : 	{ ASSERT(::IsWindow(m_hWnd)); return (int)::SendMessage(m_hWnd, TCM_SETCURSEL, nItem, 0L); }

  0005a	6a 00		 push	 0
  0005c	50		 push	 eax
  0005d	68 0c 13 00 00	 push	 4876			; 0000130cH
  00062	52		 push	 edx
  00063	ff d6		 call	 esi
; File D:\git\src\IBK\IBK_DRFN\ProjSrc\SrcDrfn\Chart\INDEXOPTIMIZER\Control\XTabCtrl.cpp

; 228  : 	}

  00065	e9 81 00 00 00	 jmp	 $LN3@OnSelchang
$LN2@OnSelchang:
; File C:\Program Files (x86)\Microsoft Visual Studio\2019\Community\VC\Tools\MSVC\14.29.30133\atlmfc\include\afxcmn.inl

; 566  : 	{ ASSERT(::IsWindow(m_hWnd)); return (BOOL)::SendMessage(m_hWnd, TCM_GETITEM, nItem, (LPARAM)pTabCtrlItem); }

  0006a	8d 4d bc	 lea	 ecx, DWORD PTR _item$1[ebp]
; File D:\git\src\IBK\IBK_DRFN\ProjSrc\SrcDrfn\Chart\INDEXOPTIMIZER\Control\XTabCtrl.cpp

; 234  : 		item.mask = TCIF_PARAM;

  0006d	c7 45 bc 08 00
	00 00		 mov	 DWORD PTR _item$1[ebp], 8
; File C:\Program Files (x86)\Microsoft Visual Studio\2019\Community\VC\Tools\MSVC\14.29.30133\atlmfc\include\afxcmn.inl

; 566  : 	{ ASSERT(::IsWindow(m_hWnd)); return (BOOL)::SendMessage(m_hWnd, TCM_GETITEM, nItem, (LPARAM)pTabCtrlItem); }

  00074	51		 push	 ecx
  00075	50		 push	 eax
  00076	68 05 13 00 00	 push	 4869			; 00001305H
  0007b	52		 push	 edx
  0007c	ff d6		 call	 esi
; File D:\git\src\IBK\IBK_DRFN\ProjSrc\SrcDrfn\Chart\INDEXOPTIMIZER\Control\XTabCtrl.cpp

; 241  : 		pWnd->ShowWindow(SW_HIDE);

  0007e	8b 4d d4	 mov	 ecx, DWORD PTR _item$1[ebp+24]
  00081	6a 00		 push	 0
  00083	e8 00 00 00 00	 call	 ?ShowWindow@CWnd@@QAEHH@Z ; CWnd::ShowWindow
; File C:\Program Files (x86)\Microsoft Visual Studio\2019\Community\VC\Tools\MSVC\14.29.30133\atlmfc\include\afxcmn.inl

; 566  : 	{ ASSERT(::IsWindow(m_hWnd)); return (BOOL)::SendMessage(m_hWnd, TCM_GETITEM, nItem, (LPARAM)pTabCtrlItem); }

  00088	8d 45 bc	 lea	 eax, DWORD PTR _item$1[ebp]
  0008b	50		 push	 eax
  0008c	53		 push	 ebx
  0008d	68 05 13 00 00	 push	 4869			; 00001305H
  00092	ff 77 20	 push	 DWORD PTR [edi+32]
  00095	ff d6		 call	 esi
; File D:\git\src\IBK\IBK_DRFN\ProjSrc\SrcDrfn\Chart\INDEXOPTIMIZER\Control\XTabCtrl.cpp

; 245  : 		pWnd = reinterpret_cast<CWnd*> (item.lParam);

  00097	8b 75 d4	 mov	 esi, DWORD PTR _item$1[ebp+24]
; File C:\Program Files (x86)\Microsoft Visual Studio\2019\Community\VC\Tools\MSVC\14.29.30133\atlmfc\include\afxwin2.inl

; 86   : 	{ ASSERT(::IsWindow(m_hWnd)); ::GetClientRect(m_hWnd, lpRect); }

  0009a	8d 45 ec	 lea	 eax, DWORD PTR _rc$3[ebp]
  0009d	50		 push	 eax
  0009e	ff 77 20	 push	 DWORD PTR [edi+32]
  000a1	0f 57 c0	 xorps	 xmm0, xmm0
; File C:\Program Files (x86)\Microsoft Visual Studio\2019\Community\VC\Tools\MSVC\14.29.30133\atlmfc\include\atltypes.h

; 528  : 	left = 0;

  000a4	0f 11 45 ec	 movups	 XMMWORD PTR _rc$3[ebp], xmm0
; File C:\Program Files (x86)\Microsoft Visual Studio\2019\Community\VC\Tools\MSVC\14.29.30133\atlmfc\include\afxwin2.inl

; 86   : 	{ ASSERT(::IsWindow(m_hWnd)); ::GetClientRect(m_hWnd, lpRect); }

  000a8	ff 15 00 00 00
	00		 call	 DWORD PTR __imp__GetClientRect@8
; File C:\Program Files (x86)\Microsoft Visual Studio\2019\Community\VC\Tools\MSVC\14.29.30133\atlmfc\include\afxcmn.inl

; 584  : 	{ ASSERT(::IsWindow(m_hWnd)); return (BOOL)::SendMessage(m_hWnd, TCM_GETITEMRECT, nItem, (LPARAM)lpRect); }

  000ae	8d 45 dc	 lea	 eax, DWORD PTR _rcTab$2[ebp]
  000b1	0f 57 c0	 xorps	 xmm0, xmm0
  000b4	50		 push	 eax
  000b5	53		 push	 ebx
  000b6	68 0a 13 00 00	 push	 4874			; 0000130aH
  000bb	ff 77 20	 push	 DWORD PTR [edi+32]
; File C:\Program Files (x86)\Microsoft Visual Studio\2019\Community\VC\Tools\MSVC\14.29.30133\atlmfc\include\atltypes.h

; 528  : 	left = 0;

  000be	0f 11 45 dc	 movups	 XMMWORD PTR _rcTab$2[ebp], xmm0
; File C:\Program Files (x86)\Microsoft Visual Studio\2019\Community\VC\Tools\MSVC\14.29.30133\atlmfc\include\afxcmn.inl

; 584  : 	{ ASSERT(::IsWindow(m_hWnd)); return (BOOL)::SendMessage(m_hWnd, TCM_GETITEMRECT, nItem, (LPARAM)lpRect); }

  000c2	ff 15 00 00 00
	00		 call	 DWORD PTR __imp__SendMessageA@16
; File D:\git\src\IBK\IBK_DRFN\ProjSrc\SrcDrfn\Chart\INDEXOPTIMIZER\Control\XTabCtrl.cpp

; 255  : 		pWnd->SetWindowPos(NULL, rc.left + m_ptTabs.x, rc.top +  m_ptTabs.y, 0, 0,SWP_FRAMECHANGED | SWP_NOSIZE | SWP_NOZORDER | SWP_SHOWWINDOW);

  000c8	8b 87 a8 00 00
	00		 mov	 eax, DWORD PTR [edi+168]
  000ce	8b ce		 mov	 ecx, esi
  000d0	03 45 f0	 add	 eax, DWORD PTR _rc$3[ebp+4]
  000d3	6a 65		 push	 101			; 00000065H
  000d5	6a 00		 push	 0
  000d7	6a 00		 push	 0
  000d9	50		 push	 eax
  000da	8b 87 a4 00 00
	00		 mov	 eax, DWORD PTR [edi+164]
  000e0	03 45 ec	 add	 eax, DWORD PTR _rc$3[ebp]
  000e3	50		 push	 eax
  000e4	6a 00		 push	 0
  000e6	e8 00 00 00 00	 call	 ?SetWindowPos@CWnd@@QAEHPBV1@HHHHI@Z ; CWnd::SetWindowPos
$LN3@OnSelchang:

; 256  : 		//pWnd->SetWindowPos(NULL, rc.left + m_ptTabs.x, rc.top + m_ptTabs.y, rc.Width() - m_ptTabs.x + m_nLeftOffset, rc.Height() - m_ptTabs.y + m_nUpperOffset, SWP_SHOWWINDOW);
; 257  : 		//		pWnd->SetWindowPos(NULL,  rc.left + m_ptTabs.x, rc.top +  m_ptTabs.y, 0, 0,SWP_FRAMECHANGED | SWP_NOSIZE | SWP_NOZORDER | SWP_SHOWWINDOW);
; 258  : 	}
; 259  : 
; 260  : 	*pResult = 0;

  000eb	8b 45 d8	 mov	 eax, DWORD PTR _pResult$GSCopy$1$[ebp]

; 262  : }

  000ee	8b 4d fc	 mov	 ecx, DWORD PTR __$ArrayPad$[ebp]
  000f1	5f		 pop	 edi
  000f2	5e		 pop	 esi
  000f3	c7 00 00 00 00
	00		 mov	 DWORD PTR [eax], 0
  000f9	33 cd		 xor	 ecx, ebp
  000fb	33 c0		 xor	 eax, eax
  000fd	5b		 pop	 ebx
  000fe	e8 00 00 00 00	 call	 @__security_check_cookie@4
  00103	8b e5		 mov	 esp, ebp
  00105	5d		 pop	 ebp
  00106	c2 08 00	 ret	 8
$LN12@OnSelchang:
; File C:\Program Files (x86)\Microsoft Visual Studio\2019\Community\VC\Tools\MSVC\14.29.30133\atlmfc\include\afxtempl.h

; 323  : 	AfxThrowInvalidArgException();

  00109	e8 00 00 00 00	 call	 ?AfxThrowInvalidArgException@@YGXXZ ; AfxThrowInvalidArgException
$LN42@OnSelchang:
  0010e	cc		 int	 3
?OnSelchange@CXTabCtrl@@IAEHPAUtagNMHDR@@PAJ@Z ENDP	; CXTabCtrl::OnSelchange
_TEXT	ENDS
; Function compile flags: /Ogtp
; File C:\Program Files (x86)\Microsoft Visual Studio\2019\Community\VC\Tools\MSVC\14.29.30133\atlmfc\include\afxtempl.h
; File C:\Program Files (x86)\Microsoft Visual Studio\2019\Community\VC\Tools\MSVC\14.29.30133\atlmfc\include\afx.inl
;	COMDAT ??_G?$CArray@HH@@UAEPAXI@Z
_TEXT	SEGMENT
___flags$ = 8						; size = 4
??_G?$CArray@HH@@UAEPAXI@Z PROC				; CArray<int,int>::`scalar deleting destructor', COMDAT
; _this$ = ecx
  00000	55		 push	 ebp
  00001	8b ec		 mov	 ebp, esp
; File C:\Program Files (x86)\Microsoft Visual Studio\2019\Community\VC\Tools\MSVC\14.29.30133\atlmfc\include\afxtempl.h

; 355  : {

  00003	56		 push	 esi
  00004	8b f1		 mov	 esi, ecx

; 356  : 	ASSERT_VALID(this);
; 357  : 
; 358  : 	if (m_pData != NULL)

  00006	8b 46 04	 mov	 eax, DWORD PTR [esi+4]
  00009	c7 06 00 00 00
	00		 mov	 DWORD PTR [esi], OFFSET ??_7?$CArray@HH@@6B@
  0000f	85 c0		 test	 eax, eax
  00011	74 09		 je	 SHORT $LN11@scalar

; 359  : 	{
; 360  : 		for( int i = 0; i < m_nSize; i++ )
; 361  : 			(m_pData + i)->~TYPE();
; 362  : 		delete[] (BYTE*)m_pData;

  00013	50		 push	 eax
  00014	e8 00 00 00 00	 call	 ??_V@YAXPAX@Z		; operator delete[]
  00019	83 c4 04	 add	 esp, 4
$LN11@scalar:
  0001c	8b 45 08	 mov	 eax, DWORD PTR ___flags$[ebp]
  0001f	a8 01		 test	 al, 1
  00021	74 1f		 je	 SHORT $LN20@scalar
  00023	a8 04		 test	 al, 4
  00025	75 10		 jne	 SHORT $LN3@scalar
; File C:\Program Files (x86)\Microsoft Visual Studio\2019\Community\VC\Tools\MSVC\14.29.30133\atlmfc\include\afx.inl

; 112  : 	{ ::operator delete(p); }

  00027	56		 push	 esi
  00028	e8 00 00 00 00	 call	 ??3@YAXPAX@Z		; operator delete
  0002d	83 c4 04	 add	 esp, 4
  00030	8b c6		 mov	 eax, esi
  00032	5e		 pop	 esi
  00033	5d		 pop	 ebp
  00034	c2 04 00	 ret	 4
$LN3@scalar:
  00037	6a 14		 push	 20			; 00000014H
  00039	56		 push	 esi
  0003a	e8 00 00 00 00	 call	 ?__global_delete@@YAXPAXI@Z ; __global_delete
  0003f	83 c4 08	 add	 esp, 8
$LN20@scalar:
  00042	8b c6		 mov	 eax, esi
  00044	5e		 pop	 esi
  00045	5d		 pop	 ebp
  00046	c2 04 00	 ret	 4
??_G?$CArray@HH@@UAEPAXI@Z ENDP				; CArray<int,int>::`scalar deleting destructor'
_TEXT	ENDS
; Function compile flags: /Ogtp
; File C:\Program Files (x86)\Microsoft Visual Studio\2019\Community\VC\Tools\MSVC\14.29.30133\atlmfc\include\afxtempl.h
; File C:\Program Files (x86)\Microsoft Visual Studio\2019\Community\VC\Tools\MSVC\14.29.30133\atlmfc\include\afx.inl
; File C:\Program Files (x86)\Microsoft Visual Studio\2019\Community\VC\Tools\MSVC\14.29.30133\atlmfc\include\afxtempl.h
; File C:\Program Files (x86)\Microsoft Visual Studio\2019\Community\VC\Tools\MSVC\14.29.30133\atlmfc\include\afx.inl
; File C:\Program Files (x86)\Microsoft Visual Studio\2019\Community\VC\Tools\MSVC\14.29.30133\atlmfc\include\afxtempl.h
; File C:\Program Files (x86)\Microsoft Visual Studio\2019\Community\VC\Tools\MSVC\14.29.30133\atlmfc\include\afx.inl
; File C:\Program Files (x86)\Microsoft Visual Studio\2019\Community\VC\Tools\MSVC\14.29.30133\atlmfc\include\afxtempl.h
; File C:\Program Files (x86)\Microsoft Visual Studio\2019\Community\VC\Tools\MSVC\14.29.30133\atlmfc\include\afx.inl
; File C:\Program Files (x86)\Microsoft Visual Studio\2019\Community\VC\Tools\MSVC\14.29.30133\atlmfc\include\afxtempl.h
;	COMDAT ?Serialize@?$CArray@HH@@UAEXAAVCArchive@@@Z
_TEXT	SEGMENT
_pData$1$ = -4						; size = 4
_ar$ = 8						; size = 4
?Serialize@?$CArray@HH@@UAEXAAVCArchive@@@Z PROC	; CArray<int,int>::Serialize, COMDAT
; _this$ = ecx

; 633  : {

  00000	55		 push	 ebp
  00001	8b ec		 mov	 ebp, esp
  00003	51		 push	 ecx
  00004	53		 push	 ebx
  00005	56		 push	 esi
  00006	57		 push	 edi
  00007	8b f9		 mov	 edi, ecx
; File C:\Program Files (x86)\Microsoft Visual Studio\2019\Community\VC\Tools\MSVC\14.29.30133\atlmfc\include\afx.inl

; 212  : 	{ return (m_nMode & CArchive::load) == 0; }

  00009	8b 4d 08	 mov	 ecx, DWORD PTR _ar$[ebp]
  0000c	8b 41 18	 mov	 eax, DWORD PTR [ecx+24]
  0000f	f7 d0		 not	 eax
  00011	a8 01		 test	 al, 1
; File C:\Program Files (x86)\Microsoft Visual Studio\2019\Community\VC\Tools\MSVC\14.29.30133\atlmfc\include\afxtempl.h

; 637  : 	if (ar.IsStoring())

  00013	74 0a		 je	 SHORT $LN2@Serialize

; 638  : 	{
; 639  : 		ar.WriteCount(m_nSize);

  00015	ff 77 08	 push	 DWORD PTR [edi+8]
  00018	e8 00 00 00 00	 call	 ?WriteCount@CArchive@@QAEXK@Z ; CArchive::WriteCount

; 640  : 	}

  0001d	eb 0f		 jmp	 SHORT $LN3@Serialize
$LN2@Serialize:

; 641  : 	else
; 642  : 	{
; 643  : 		DWORD_PTR nOldSize = ar.ReadCount();

  0001f	e8 00 00 00 00	 call	 ?ReadCount@CArchive@@QAEKXZ ; CArchive::ReadCount

; 644  : 		SetSize(nOldSize, -1);

  00024	6a ff		 push	 -1
  00026	50		 push	 eax
  00027	8b cf		 mov	 ecx, edi
  00029	e8 00 00 00 00	 call	 ?SetSize@?$CArray@HH@@QAEXHH@Z ; CArray<int,int>::SetSize
$LN3@Serialize:

; 645  : 	}
; 646  : 	SerializeElements<TYPE>(ar, m_pData, m_nSize);

  0002e	8b 77 08	 mov	 esi, DWORD PTR [edi+8]
  00031	8b 4f 04	 mov	 ecx, DWORD PTR [edi+4]
  00034	89 4d fc	 mov	 DWORD PTR _pData$1$[ebp], ecx

; 68   : 	ENSURE(nCount == 0 || pElements != NULL);

  00037	85 f6		 test	 esi, esi
  00039	74 08		 je	 SHORT $LN8@Serialize
  0003b	85 c9		 test	 ecx, ecx
  0003d	0f 84 8c 00 00
	00		 je	 $LN40@Serialize
$LN8@Serialize:
; File C:\Program Files (x86)\Microsoft Visual Studio\2019\Community\VC\Tools\MSVC\14.29.30133\atlmfc\include\afx.inl

; 212  : 	{ return (m_nMode & CArchive::load) == 0; }

  00043	8b 55 08	 mov	 edx, DWORD PTR _ar$[ebp]
  00046	8b 42 18	 mov	 eax, DWORD PTR [edx+24]
  00049	f7 d0		 not	 eax
  0004b	a8 01		 test	 al, 1
; File C:\Program Files (x86)\Microsoft Visual Studio\2019\Community\VC\Tools\MSVC\14.29.30133\atlmfc\include\afxtempl.h

; 73   : 	if (ar.IsStoring())

  0004d	74 36		 je	 SHORT $LN16@Serialize

; 74   : 	{
; 75   : 		TYPE* pData;
; 76   : 		UINT_PTR nElementsLeft;
; 77   : 
; 78   : 		nElementsLeft = nCount;
; 79   : 		pData = pElements;
; 80   : 		while( nElementsLeft > 0 )

  0004f	85 f6		 test	 esi, esi
  00051	74 29		 je	 SHORT $LN14@Serialize
$LL11@Serialize:

; 81   : 		{
; 82   : 			UINT nElementsToWrite;
; 83   : 
; 84   : 			nElementsToWrite = UINT(__min(nElementsLeft, INT_MAX/sizeof(TYPE)));

  00053	bb ff ff ff 1f	 mov	 ebx, 536870911		; 1fffffffH
  00058	3b f3		 cmp	 esi, ebx
  0005a	0f 42 de	 cmovb	 ebx, esi

; 85   : 			ar.Write(pData, nElementsToWrite*sizeof(TYPE));

  0005d	8d 3c 9d 00 00
	00 00		 lea	 edi, DWORD PTR [ebx*4]
  00064	57		 push	 edi
  00065	51		 push	 ecx
  00066	8b ca		 mov	 ecx, edx
  00068	e8 00 00 00 00	 call	 ?Write@CArchive@@QAEXPBXI@Z ; CArchive::Write

; 86   : 			nElementsLeft -= nElementsToWrite;
; 87   : 			pData += nElementsToWrite;

  0006d	8b 4d fc	 mov	 ecx, DWORD PTR _pData$1$[ebp]
  00070	8b 55 08	 mov	 edx, DWORD PTR _ar$[ebp]
  00073	03 cf		 add	 ecx, edi
  00075	89 4d fc	 mov	 DWORD PTR _pData$1$[ebp], ecx
  00078	2b f3		 sub	 esi, ebx
  0007a	75 d7		 jne	 SHORT $LL11@Serialize
$LN14@Serialize:
  0007c	5f		 pop	 edi

; 647  : }

  0007d	5e		 pop	 esi
  0007e	5b		 pop	 ebx
  0007f	8b e5		 mov	 esp, ebp
  00081	5d		 pop	 ebp
  00082	c2 04 00	 ret	 4
$LN16@Serialize:

; 97   : 		while( nElementsLeft > 0 )

  00085	85 f6		 test	 esi, esi
  00087	74 f3		 je	 SHORT $LN14@Serialize
  00089	0f 1f 80 00 00
	00 00		 npad	 7
$LL13@Serialize:

; 98   : 		{
; 99   : 			UINT nElementsToRead;
; 100  : 
; 101  : 			nElementsToRead = UINT(__min(nElementsLeft, INT_MAX/sizeof(TYPE)));

  00090	bf ff ff ff 1f	 mov	 edi, 536870911		; 1fffffffH
  00095	3b f7		 cmp	 esi, edi
  00097	0f 42 fe	 cmovb	 edi, esi

; 102  : 			ar.EnsureRead(pData, nElementsToRead*sizeof(TYPE));

  0009a	8d 1c bd 00 00
	00 00		 lea	 ebx, DWORD PTR [edi*4]
; File C:\Program Files (x86)\Microsoft Visual Studio\2019\Community\VC\Tools\MSVC\14.29.30133\atlmfc\include\afx.inl

; 399  : 	UINT nRead=Read(lpBuf, nCount);

  000a1	53		 push	 ebx
  000a2	51		 push	 ecx
  000a3	8b ca		 mov	 ecx, edx
  000a5	e8 00 00 00 00	 call	 ?Read@CArchive@@QAEIPAXI@Z ; CArchive::Read

; 400  : 	if(nRead!=nCount)

  000aa	3b c3		 cmp	 eax, ebx
  000ac	75 18		 jne	 SHORT $LN30@Serialize
; File C:\Program Files (x86)\Microsoft Visual Studio\2019\Community\VC\Tools\MSVC\14.29.30133\atlmfc\include\afxtempl.h

; 97   : 		while( nElementsLeft > 0 )

  000ae	8b 4d fc	 mov	 ecx, DWORD PTR _pData$1$[ebp]
  000b1	8b 55 08	 mov	 edx, DWORD PTR _ar$[ebp]

; 103  : 			nElementsLeft -= nElementsToRead;
; 104  : 			pData += nElementsToRead;

  000b4	03 cb		 add	 ecx, ebx
  000b6	89 4d fc	 mov	 DWORD PTR _pData$1$[ebp], ecx
  000b9	2b f7		 sub	 esi, edi
  000bb	75 d3		 jne	 SHORT $LL13@Serialize

; 647  : }

  000bd	5f		 pop	 edi
  000be	5e		 pop	 esi
  000bf	5b		 pop	 ebx
  000c0	8b e5		 mov	 esp, ebp
  000c2	5d		 pop	 ebp
  000c3	c2 04 00	 ret	 4
$LN30@Serialize:
; File C:\Program Files (x86)\Microsoft Visual Studio\2019\Community\VC\Tools\MSVC\14.29.30133\atlmfc\include\afx.inl

; 402  : 		AfxThrowArchiveException(CArchiveException::endOfFile);

  000c6	6a 00		 push	 0
  000c8	6a 03		 push	 3
  000ca	e8 00 00 00 00	 call	 ?AfxThrowArchiveException@@YGXHPBD@Z ; AfxThrowArchiveException
$LN40@Serialize:
; File C:\Program Files (x86)\Microsoft Visual Studio\2019\Community\VC\Tools\MSVC\14.29.30133\atlmfc\include\afxtempl.h

; 68   : 	ENSURE(nCount == 0 || pElements != NULL);

  000cf	e8 00 00 00 00	 call	 ?AfxThrowInvalidArgException@@YGXXZ ; AfxThrowInvalidArgException
$LN38@Serialize:
  000d4	cc		 int	 3
?Serialize@?$CArray@HH@@UAEXAAVCArchive@@@Z ENDP	; CArray<int,int>::Serialize
_TEXT	ENDS
; Function compile flags: /Ogtp
; File C:\Program Files (x86)\Microsoft Visual Studio\2019\Community\VC\Tools\MSVC\14.29.30133\atlmfc\include\afxtempl.h
;	COMDAT ??1?$CArray@HH@@UAE@XZ
_TEXT	SEGMENT
??1?$CArray@HH@@UAE@XZ PROC				; CArray<int,int>::~CArray<int,int>, COMDAT
; _this$ = ecx

; 356  : 	ASSERT_VALID(this);
; 357  : 
; 358  : 	if (m_pData != NULL)

  00000	8b 41 04	 mov	 eax, DWORD PTR [ecx+4]
  00003	c7 01 00 00 00
	00		 mov	 DWORD PTR [ecx], OFFSET ??_7?$CArray@HH@@6B@
  00009	85 c0		 test	 eax, eax
  0000b	74 07		 je	 SHORT $LN5@CArray

; 359  : 	{
; 360  : 		for( int i = 0; i < m_nSize; i++ )
; 361  : 			(m_pData + i)->~TYPE();
; 362  : 		delete[] (BYTE*)m_pData;

  0000d	50		 push	 eax
  0000e	e8 00 00 00 00	 call	 ??_V@YAXPAX@Z		; operator delete[]
  00013	59		 pop	 ecx
$LN5@CArray:

; 363  : 	}
; 364  : }

  00014	c3		 ret	 0
??1?$CArray@HH@@UAE@XZ ENDP				; CArray<int,int>::~CArray<int,int>
_TEXT	ENDS
; Function compile flags: /Ogtp
; File C:\Program Files (x86)\Microsoft Visual Studio\2019\Community\VC\Tools\MSVC\14.29.30133\atlmfc\include\afxtempl.h
; File C:\Program Files (x86)\Windows Kits\10\Include\10.0.22000.0\ucrt\corecrt_memcpy_s.h
; File C:\Program Files (x86)\Microsoft Visual Studio\2019\Community\VC\Tools\MSVC\14.29.30133\atlmfc\include\afxtempl.h
; File C:\Program Files (x86)\Windows Kits\10\Include\10.0.22000.0\ucrt\corecrt_memcpy_s.h
; File C:\Program Files (x86)\Microsoft Visual Studio\2019\Community\VC\Tools\MSVC\14.29.30133\atlmfc\include\atlchecked.h
; File C:\Program Files (x86)\Windows Kits\10\Include\10.0.22000.0\ucrt\corecrt_memcpy_s.h
; File C:\Program Files (x86)\Microsoft Visual Studio\2019\Community\VC\Tools\MSVC\14.29.30133\atlmfc\include\atlchecked.h
; File C:\Program Files (x86)\Microsoft Visual Studio\2019\Community\VC\Tools\MSVC\14.29.30133\atlmfc\include\afxtempl.h
;	COMDAT ?RemoveAt@?$CArray@HH@@QAEXHH@Z
_TEXT	SEGMENT
__N$1$ = 8						; size = 4
_nIndex$ = 8						; size = 4
_nCount$ = 12						; size = 4
?RemoveAt@?$CArray@HH@@QAEXHH@Z PROC			; CArray<int,int>::RemoveAt, COMDAT
; _this$ = ecx

; 590  : {

  00000	55		 push	 ebp
  00001	8b ec		 mov	 ebp, esp
  00003	53		 push	 ebx
  00004	56		 push	 esi

; 591  : 	ASSERT_VALID(this);
; 592  : 	ASSERT(nIndex >= 0);
; 593  : 	ASSERT(nCount >= 0);
; 594  : 	INT_PTR nUpperBound = nIndex + nCount;

  00005	8b 75 0c	 mov	 esi, DWORD PTR _nCount$[ebp]
  00008	8b d9		 mov	 ebx, ecx
  0000a	57		 push	 edi
  0000b	8b 7d 08	 mov	 edi, DWORD PTR _nIndex$[ebp]
  0000e	8d 14 37	 lea	 edx, DWORD PTR [edi+esi]

; 595  : 	ASSERT(nUpperBound <= m_nSize && nUpperBound >= nIndex && nUpperBound >= nCount);
; 596  : 
; 597  : 	if(nIndex < 0 || nCount < 0 || (nUpperBound > m_nSize) || (nUpperBound < nIndex) || (nUpperBound < nCount))

  00011	85 ff		 test	 edi, edi
  00013	78 79		 js	 SHORT $LN6@RemoveAt
  00015	85 f6		 test	 esi, esi
  00017	78 75		 js	 SHORT $LN6@RemoveAt
  00019	8b 43 08	 mov	 eax, DWORD PTR [ebx+8]
  0001c	3b d0		 cmp	 edx, eax
  0001e	7f 6e		 jg	 SHORT $LN6@RemoveAt
  00020	3b d7		 cmp	 edx, edi
  00022	7c 6a		 jl	 SHORT $LN6@RemoveAt
  00024	3b d6		 cmp	 edx, esi
  00026	7c 66		 jl	 SHORT $LN6@RemoveAt

; 599  : 
; 600  : 	// just remove a range
; 601  : 	INT_PTR nMoveCount = m_nSize - (nUpperBound);

  00028	8b c8		 mov	 ecx, eax
  0002a	2b ca		 sub	 ecx, edx

; 602  : 	for( int i = 0; i < nCount; i++ )
; 603  : 		(m_pData + nIndex + i)->~TYPE();
; 604  : 	if (nMoveCount)

  0002c	74 54		 je	 SHORT $LN7@RemoveAt

; 606  : 		::ATL::Checked::memmove_s(m_pData + nIndex, (size_t)nMoveCount * sizeof(TYPE),

  0002e	8d 04 8d 00 00
	00 00		 lea	 eax, DWORD PTR [ecx*4]
  00035	89 45 08	 mov	 DWORD PTR __N$1$[ebp], eax
  00038	8b 43 04	 mov	 eax, DWORD PTR [ebx+4]
  0003b	8d 0c 90	 lea	 ecx, DWORD PTR [eax+edx*4]
; File C:\Program Files (x86)\Windows Kits\10\Include\10.0.22000.0\ucrt\corecrt_memcpy_s.h

; 74   :         if (_SourceSize == 0)

  0003e	8b 55 08	 mov	 edx, DWORD PTR __N$1$[ebp]
; File C:\Program Files (x86)\Microsoft Visual Studio\2019\Community\VC\Tools\MSVC\14.29.30133\atlmfc\include\afxtempl.h

; 606  : 		::ATL::Checked::memmove_s(m_pData + nIndex, (size_t)nMoveCount * sizeof(TYPE),

  00041	8d 04 b8	 lea	 eax, DWORD PTR [eax+edi*4]
; File C:\Program Files (x86)\Windows Kits\10\Include\10.0.22000.0\ucrt\corecrt_memcpy_s.h

; 74   :         if (_SourceSize == 0)

  00044	85 d2		 test	 edx, edx
  00046	74 2c		 je	 SHORT $LN22@RemoveAt

; 75   :         {
; 76   :             return 0;
; 77   :         }
; 78   : 
; 79   :         _CRT_MEMCPY_S_VALIDATE_RETURN_ERRCODE(_Destination != NULL,            EINVAL);

  00048	85 c0		 test	 eax, eax
  0004a	75 19		 jne	 SHORT $LN13@RemoveAt
$LN23@RemoveAt:
; File C:\Program Files (x86)\Microsoft Visual Studio\2019\Community\VC\Tools\MSVC\14.29.30133\atlmfc\include\atlchecked.h

; 87   : 	ATLMFC_CRT_ERRORCHECK(::memmove_s(_S1, _S1max, _S2, _N));

  0004c	ff 15 00 00 00
	00		 call	 DWORD PTR __imp___errno
  00052	c7 00 16 00 00
	00		 mov	 DWORD PTR [eax], 22	; 00000016H
  00058	ff 15 00 00 00
	00		 call	 DWORD PTR __imp___invalid_parameter_noinfo
  0005e	b8 16 00 00 00	 mov	 eax, 22			; 00000016H
  00063	eb 11		 jmp	 SHORT $LN11@RemoveAt
$LN13@RemoveAt:
; File C:\Program Files (x86)\Windows Kits\10\Include\10.0.22000.0\ucrt\corecrt_memcpy_s.h

; 80   :         _CRT_MEMCPY_S_VALIDATE_RETURN_ERRCODE(_Source != NULL,                 EINVAL);

  00065	85 c9		 test	 ecx, ecx
  00067	74 e3		 je	 SHORT $LN23@RemoveAt

; 81   :         _CRT_MEMCPY_S_VALIDATE_RETURN_ERRCODE(_DestinationSize >= _SourceSize, ERANGE);
; 82   : 
; 83   :         memmove(_Destination, _Source, _SourceSize);

  00069	52		 push	 edx
  0006a	51		 push	 ecx
  0006b	50		 push	 eax
  0006c	e8 00 00 00 00	 call	 _memmove
  00071	83 c4 0c	 add	 esp, 12			; 0000000cH
$LN22@RemoveAt:
; File C:\Program Files (x86)\Microsoft Visual Studio\2019\Community\VC\Tools\MSVC\14.29.30133\atlmfc\include\atlchecked.h

; 87   : 	ATLMFC_CRT_ERRORCHECK(::memmove_s(_S1, _S1max, _S2, _N));

  00074	33 c0		 xor	 eax, eax
$LN11@RemoveAt:
  00076	50		 push	 eax
  00077	e8 00 00 00 00	 call	 ?AfxCrtErrorCheck@@YAHH@Z ; AfxCrtErrorCheck
  0007c	8b 43 08	 mov	 eax, DWORD PTR [ebx+8]
  0007f	83 c4 04	 add	 esp, 4
$LN7@RemoveAt:
; File C:\Program Files (x86)\Microsoft Visual Studio\2019\Community\VC\Tools\MSVC\14.29.30133\atlmfc\include\afxtempl.h

; 609  : 	m_nSize -= nCount;

  00082	5f		 pop	 edi
  00083	2b c6		 sub	 eax, esi
  00085	5e		 pop	 esi
  00086	89 43 08	 mov	 DWORD PTR [ebx+8], eax
  00089	5b		 pop	 ebx

; 610  : }

  0008a	5d		 pop	 ebp
  0008b	c2 08 00	 ret	 8
$LN6@RemoveAt:

; 598  : 		AfxThrowInvalidArgException();

  0008e	e8 00 00 00 00	 call	 ?AfxThrowInvalidArgException@@YGXXZ ; AfxThrowInvalidArgException
$LN21@RemoveAt:
  00093	cc		 int	 3
?RemoveAt@?$CArray@HH@@QAEXHH@Z ENDP			; CArray<int,int>::RemoveAt
_TEXT	ENDS
; Function compile flags: /Ogtp
; File C:\Program Files (x86)\Microsoft Visual Studio\2019\Community\VC\Tools\MSVC\14.29.30133\atlmfc\include\afxtempl.h
;	COMDAT ?SetAtGrow@?$CArray@HH@@QAEXHH@Z
_TEXT	SEGMENT
_nIndex$ = 8						; size = 4
_newElement$ = 12					; size = 4
?SetAtGrow@?$CArray@HH@@QAEXHH@Z PROC			; CArray<int,int>::SetAtGrow, COMDAT
; _this$ = ecx

; 534  : {

  00000	55		 push	 ebp
  00001	8b ec		 mov	 ebp, esp
  00003	56		 push	 esi

; 535  : 	ASSERT_VALID(this);
; 536  : 	ASSERT(nIndex >= 0);
; 537  : 
; 538  : 	if(nIndex < 0)

  00004	8b 75 08	 mov	 esi, DWORD PTR _nIndex$[ebp]
  00007	57		 push	 edi
  00008	8b f9		 mov	 edi, ecx
  0000a	85 f6		 test	 esi, esi
  0000c	78 1f		 js	 SHORT $LN7@SetAtGrow

; 540  : 
; 541  : 	if (nIndex >= m_nSize)

  0000e	3b 77 08	 cmp	 esi, DWORD PTR [edi+8]
  00011	7c 0b		 jl	 SHORT $LN3@SetAtGrow

; 542  : 		SetSize(nIndex+1, -1);

  00013	6a ff		 push	 -1
  00015	8d 46 01	 lea	 eax, DWORD PTR [esi+1]
  00018	50		 push	 eax
  00019	e8 00 00 00 00	 call	 ?SetSize@?$CArray@HH@@QAEXHH@Z ; CArray<int,int>::SetSize
$LN3@SetAtGrow:

; 543  : 	m_pData[nIndex] = newElement;

  0001e	8b 4f 04	 mov	 ecx, DWORD PTR [edi+4]
  00021	8b 45 0c	 mov	 eax, DWORD PTR _newElement$[ebp]
  00024	5f		 pop	 edi
  00025	89 04 b1	 mov	 DWORD PTR [ecx+esi*4], eax
  00028	5e		 pop	 esi

; 544  : }

  00029	5d		 pop	 ebp
  0002a	c2 08 00	 ret	 8
$LN7@SetAtGrow:

; 539  : 		AfxThrowInvalidArgException();

  0002d	e8 00 00 00 00	 call	 ?AfxThrowInvalidArgException@@YGXXZ ; AfxThrowInvalidArgException
$LN5@SetAtGrow:
  00032	cc		 int	 3
?SetAtGrow@?$CArray@HH@@QAEXHH@Z ENDP			; CArray<int,int>::SetAtGrow
_TEXT	ENDS
; Function compile flags: /Ogtp
; File C:\Program Files (x86)\Microsoft Visual Studio\2019\Community\VC\Tools\MSVC\14.29.30133\atlmfc\include\afxtempl.h
; File C:\Program Files (x86)\Windows Kits\10\Include\10.0.22000.0\ucrt\corecrt_memcpy_s.h
; File C:\Program Files (x86)\Microsoft Visual Studio\2019\Community\VC\Tools\MSVC\14.29.30133\atlmfc\include\atlchecked.h
; File C:\Program Files (x86)\Microsoft Visual Studio\2019\Community\VC\Tools\MSVC\14.29.30133\atlmfc\include\afxtempl.h
; File C:\Program Files (x86)\Windows Kits\10\Include\10.0.22000.0\ucrt\corecrt_memcpy_s.h
; File C:\Program Files (x86)\Microsoft Visual Studio\2019\Community\VC\Tools\MSVC\14.29.30133\atlmfc\include\atlchecked.h
; File C:\Program Files (x86)\Windows Kits\10\Include\10.0.22000.0\ucrt\corecrt_memcpy_s.h
; File C:\Program Files (x86)\Microsoft Visual Studio\2019\Community\VC\Tools\MSVC\14.29.30133\atlmfc\include\afxtempl.h
;	COMDAT ?SetSize@?$CArray@HH@@QAEXHH@Z
_TEXT	SEGMENT
__N$1$ = -4						; size = 4
__S2$1$ = 8						; size = 4
_nNewSize$ = 8						; size = 4
_pNewData$1$ = 12					; size = 4
_nGrowBy$ = 12						; size = 4
?SetSize@?$CArray@HH@@QAEXHH@Z PROC			; CArray<int,int>::SetSize, COMDAT
; _this$ = ecx

; 368  : {

  00000	55		 push	 ebp
  00001	8b ec		 mov	 ebp, esp
  00003	51		 push	 ecx
  00004	53		 push	 ebx
  00005	56		 push	 esi

; 369  : 	ASSERT_VALID(this);
; 370  : 	ASSERT(nNewSize >= 0);
; 371  : 
; 372  : 	if(nNewSize < 0 )

  00006	8b 75 08	 mov	 esi, DWORD PTR _nNewSize$[ebp]
  00009	8b d9		 mov	 ebx, ecx
  0000b	57		 push	 edi
  0000c	85 f6		 test	 esi, esi
  0000e	0f 88 c2 01 00
	00		 js	 $LN70@SetSize

; 373  : 		AfxThrowInvalidArgException();
; 374  : 
; 375  : 	if (nGrowBy >= 0)

  00014	8b 45 0c	 mov	 eax, DWORD PTR _nGrowBy$[ebp]
  00017	85 c0		 test	 eax, eax
  00019	78 03		 js	 SHORT $LN69@SetSize

; 376  : 		m_nGrowBy = nGrowBy;  // set new size

  0001b	89 43 10	 mov	 DWORD PTR [ebx+16], eax
$LN69@SetSize:

; 377  : 
; 378  : 	if (nNewSize == 0)

  0001e	8b 4b 04	 mov	 ecx, DWORD PTR [ebx+4]
  00021	85 f6		 test	 esi, esi
  00023	75 27		 jne	 SHORT $LN19@SetSize

; 379  : 	{
; 380  : 		// shrink to nothing
; 381  : 		if (m_pData != NULL)

  00025	85 c9		 test	 ecx, ecx
  00027	74 0c		 je	 SHORT $LN21@SetSize

; 382  : 		{
; 383  : 			for( int i = 0; i < m_nSize; i++ )
; 384  : 				(m_pData + i)->~TYPE();
; 385  : 			delete[] (BYTE*)m_pData;

  00029	51		 push	 ecx
  0002a	e8 00 00 00 00	 call	 ??_V@YAXPAX@Z		; operator delete[]
  0002f	83 c4 04	 add	 esp, 4

; 386  : 			m_pData = NULL;

  00032	89 73 04	 mov	 DWORD PTR [ebx+4], esi
$LN21@SetSize:

; 472  : 		m_nSize = nNewSize;
; 473  : 		m_nMaxSize = nNewMax;
; 474  : 	}
; 475  : }

  00035	5f		 pop	 edi
  00036	5e		 pop	 esi
  00037	c7 43 0c 00 00
	00 00		 mov	 DWORD PTR [ebx+12], 0
  0003e	c7 43 08 00 00
	00 00		 mov	 DWORD PTR [ebx+8], 0
  00045	5b		 pop	 ebx
  00046	8b e5		 mov	 esp, ebp
  00048	5d		 pop	 ebp
  00049	c2 08 00	 ret	 8
$LN19@SetSize:

; 387  : 		}
; 388  : 		m_nSize = m_nMaxSize = 0;
; 389  : 	}
; 390  : 	else if (m_pData == NULL)

  0004c	85 c9		 test	 ecx, ecx
  0004e	75 36		 jne	 SHORT $LN22@SetSize

; 391  : 	{
; 392  : 		// create buffer big enough to hold number of requested elements or
; 393  : 		// m_nGrowBy elements, whichever is larger.
; 394  : #ifdef SIZE_T_MAX
; 395  : 		ASSERT(nNewSize <= SIZE_T_MAX/sizeof(TYPE));    // no overflow
; 396  : #endif
; 397  : 		size_t nAllocSize = __max(nNewSize, m_nGrowBy);

  00050	8b 7b 10	 mov	 edi, DWORD PTR [ebx+16]
  00053	3b f7		 cmp	 esi, edi
  00055	0f 4f fe	 cmovg	 edi, esi

; 398  : 		m_pData = (TYPE*) new BYTE[(size_t)nAllocSize * sizeof(TYPE)];

  00058	8d 34 bd 00 00
	00 00		 lea	 esi, DWORD PTR [edi*4]
  0005f	56		 push	 esi
  00060	e8 00 00 00 00	 call	 ??_U@YAPAXI@Z		; operator new[]

; 399  : 		memset((void*)m_pData, 0, (size_t)nAllocSize * sizeof(TYPE));

  00065	56		 push	 esi
  00066	6a 00		 push	 0
  00068	50		 push	 eax
  00069	89 43 04	 mov	 DWORD PTR [ebx+4], eax
  0006c	e8 00 00 00 00	 call	 _memset

; 400  : 		for( int i = 0; i < nNewSize; i++ )
; 401  : #pragma push_macro("new")
; 402  : #undef new
; 403  : 			::new( (void*)( m_pData + i ) ) TYPE;
; 404  : #pragma pop_macro("new")
; 405  : 		m_nSize = nNewSize;

  00071	8b 45 08	 mov	 eax, DWORD PTR _nNewSize$[ebp]
  00074	83 c4 10	 add	 esp, 16			; 00000010H

; 472  : 		m_nSize = nNewSize;
; 473  : 		m_nMaxSize = nNewMax;
; 474  : 	}
; 475  : }

  00077	89 7b 0c	 mov	 DWORD PTR [ebx+12], edi
  0007a	89 43 08	 mov	 DWORD PTR [ebx+8], eax
  0007d	5f		 pop	 edi
  0007e	5e		 pop	 esi
  0007f	5b		 pop	 ebx
  00080	8b e5		 mov	 esp, ebp
  00082	5d		 pop	 ebp
  00083	c2 08 00	 ret	 8
$LN22@SetSize:

; 406  : 		m_nMaxSize = nAllocSize;
; 407  : 	}
; 408  : 	else if (nNewSize <= m_nMaxSize)

  00086	8b 7b 0c	 mov	 edi, DWORD PTR [ebx+12]
  00089	3b f7		 cmp	 esi, edi
  0008b	7f 29		 jg	 SHORT $LN24@SetSize

; 409  : 	{
; 410  : 		// it fits
; 411  : 		if (nNewSize > m_nSize)

  0008d	8b 53 08	 mov	 edx, DWORD PTR [ebx+8]
  00090	3b f2		 cmp	 esi, edx
  00092	7e 16		 jle	 SHORT $LN26@SetSize

; 412  : 		{
; 413  : 			// initialize the new elements
; 414  : 			memset((void*)(m_pData + m_nSize), 0, (size_t)(nNewSize-m_nSize) * sizeof(TYPE));

  00094	8b c6		 mov	 eax, esi
  00096	2b c2		 sub	 eax, edx
  00098	c1 e0 02	 shl	 eax, 2
  0009b	50		 push	 eax
  0009c	8d 04 91	 lea	 eax, DWORD PTR [ecx+edx*4]
  0009f	6a 00		 push	 0
  000a1	50		 push	 eax
  000a2	e8 00 00 00 00	 call	 _memset
  000a7	83 c4 0c	 add	 esp, 12			; 0000000cH
$LN26@SetSize:

; 415  : 			for( int i = 0; i < nNewSize-m_nSize; i++ )
; 416  : #pragma push_macro("new")
; 417  : #undef new
; 418  : 				::new( (void*)( m_pData + m_nSize + i ) ) TYPE;
; 419  : #pragma pop_macro("new")
; 420  : 		}
; 421  : 		else if (m_nSize > nNewSize)
; 422  : 		{
; 423  : 			// destroy the old elements
; 424  : 			for( int i = 0; i < m_nSize-nNewSize; i++ )
; 425  : 				(m_pData + nNewSize + i)->~TYPE();
; 426  : 		}
; 427  : 		m_nSize = nNewSize;

  000aa	5f		 pop	 edi
  000ab	89 73 08	 mov	 DWORD PTR [ebx+8], esi

; 472  : 		m_nSize = nNewSize;
; 473  : 		m_nMaxSize = nNewMax;
; 474  : 	}
; 475  : }

  000ae	5e		 pop	 esi
  000af	5b		 pop	 ebx
  000b0	8b e5		 mov	 esp, ebp
  000b2	5d		 pop	 ebp
  000b3	c2 08 00	 ret	 8
$LN24@SetSize:

; 428  : 	}
; 429  : 	else
; 430  : 	{
; 431  : 		// otherwise, grow array
; 432  : 		nGrowBy = m_nGrowBy;

  000b6	8b 43 10	 mov	 eax, DWORD PTR [ebx+16]

; 433  : 		if (nGrowBy == 0)

  000b9	85 c0		 test	 eax, eax
  000bb	75 22		 jne	 SHORT $LN37@SetSize

; 434  : 		{
; 435  : 			// heuristically determine growth when nGrowBy == 0
; 436  : 			//  (this avoids heap fragmentation in many situations)
; 437  : 			nGrowBy = m_nSize / 8;

  000bd	8b 43 08	 mov	 eax, DWORD PTR [ebx+8]
  000c0	99		 cdq
  000c1	83 e2 07	 and	 edx, 7
  000c4	03 c2		 add	 eax, edx
  000c6	c1 f8 03	 sar	 eax, 3

; 438  : 			nGrowBy = (nGrowBy < 4) ? 4 : ((nGrowBy > 1024) ? 1024 : nGrowBy);

  000c9	83 f8 04	 cmp	 eax, 4
  000cc	7d 07		 jge	 SHORT $LN36@SetSize
  000ce	b8 04 00 00 00	 mov	 eax, 4
  000d3	eb 0a		 jmp	 SHORT $LN37@SetSize
$LN36@SetSize:
  000d5	b9 00 04 00 00	 mov	 ecx, 1024		; 00000400H
  000da	3b c1		 cmp	 eax, ecx
  000dc	0f 4f c1	 cmovg	 eax, ecx
$LN37@SetSize:

; 439  : 		}
; 440  : 		INT_PTR nNewMax;
; 441  : 		if (nNewSize < m_nMaxSize + nGrowBy)

  000df	03 f8		 add	 edi, eax
  000e1	3b f7		 cmp	 esi, edi
  000e3	7d 0b		 jge	 SHORT $LN30@SetSize

; 445  : 
; 446  : 		ASSERT(nNewMax >= m_nMaxSize);  // no wrap around
; 447  : 
; 448  : 		if(nNewMax  < m_nMaxSize)

  000e5	3b 7b 0c	 cmp	 edi, DWORD PTR [ebx+12]
  000e8	0f 8c e8 00 00
	00		 jl	 $LN70@SetSize
  000ee	eb 02		 jmp	 SHORT $LN32@SetSize
$LN30@SetSize:

; 442  : 			nNewMax = m_nMaxSize + nGrowBy;  // granularity
; 443  : 		else
; 444  : 			nNewMax = nNewSize;  // no slush

  000f0	8b fe		 mov	 edi, esi
$LN32@SetSize:

; 450  : 
; 451  : #ifdef SIZE_T_MAX
; 452  : 		ASSERT(nNewMax <= SIZE_T_MAX/sizeof(TYPE)); // no overflow
; 453  : #endif
; 454  : 		TYPE* pNewData = (TYPE*) new BYTE[(size_t)nNewMax * sizeof(TYPE)];

  000f2	8d 04 bd 00 00
	00 00		 lea	 eax, DWORD PTR [edi*4]
  000f9	50		 push	 eax
  000fa	e8 00 00 00 00	 call	 ??_U@YAPAXI@Z		; operator new[]

; 455  : 
; 456  : 		// copy new data from old
; 457  : 		::ATL::Checked::memcpy_s(pNewData, (size_t)nNewMax * sizeof(TYPE),

  000ff	8b 53 04	 mov	 edx, DWORD PTR [ebx+4]
  00102	8b c8		 mov	 ecx, eax
  00104	8b 43 08	 mov	 eax, DWORD PTR [ebx+8]
  00107	83 c4 04	 add	 esp, 4
  0010a	c1 e0 02	 shl	 eax, 2
  0010d	89 4d 0c	 mov	 DWORD PTR _pNewData$1$[ebp], ecx
  00110	89 45 fc	 mov	 DWORD PTR __N$1$[ebp], eax
  00113	89 55 08	 mov	 DWORD PTR __S2$1$[ebp], edx
; File C:\Program Files (x86)\Windows Kits\10\Include\10.0.22000.0\ucrt\corecrt_memcpy_s.h

; 46   :         if (_SourceSize == 0)

  00116	85 c0		 test	 eax, eax
  00118	74 76		 je	 SHORT $LN74@SetSize

; 47   :         {
; 48   :             return 0;
; 49   :         }
; 50   : 
; 51   :         _CRT_MEMCPY_S_VALIDATE_RETURN_ERRCODE(_Destination != NULL, EINVAL);

  0011a	85 c9		 test	 ecx, ecx
  0011c	75 56		 jne	 SHORT $LN42@SetSize
$LN73@SetSize:
; File C:\Program Files (x86)\Microsoft Visual Studio\2019\Community\VC\Tools\MSVC\14.29.30133\atlmfc\include\atlchecked.h

; 69   : 	ATLMFC_CRT_ERRORCHECK(::memcpy_s(_S1, _S1max, _S2, _N));

  0011e	ff 15 00 00 00
	00		 call	 DWORD PTR __imp___errno
  00124	c7 00 16 00 00
	00		 mov	 DWORD PTR [eax], 22	; 00000016H
  0012a	ff 15 00 00 00
	00		 call	 DWORD PTR __imp___invalid_parameter_noinfo
$LN46@SetSize:
  00130	b8 16 00 00 00	 mov	 eax, 22			; 00000016H
$LN40@SetSize:
  00135	50		 push	 eax
  00136	e8 00 00 00 00	 call	 ?AfxCrtErrorCheck@@YAHH@Z ; AfxCrtErrorCheck
; File C:\Program Files (x86)\Microsoft Visual Studio\2019\Community\VC\Tools\MSVC\14.29.30133\atlmfc\include\afxtempl.h

; 462  : 		memset((void*)(pNewData + m_nSize), 0, (size_t)(nNewSize-m_nSize) * sizeof(TYPE));

  0013b	8b 4b 08	 mov	 ecx, DWORD PTR [ebx+8]
  0013e	8b c6		 mov	 eax, esi
  00140	2b c1		 sub	 eax, ecx
  00142	c1 e0 02	 shl	 eax, 2
  00145	50		 push	 eax
  00146	8b 45 0c	 mov	 eax, DWORD PTR _pNewData$1$[ebp]
  00149	6a 00		 push	 0
  0014b	8d 04 88	 lea	 eax, DWORD PTR [eax+ecx*4]
  0014e	50		 push	 eax
  0014f	e8 00 00 00 00	 call	 _memset

; 463  : 		for( int i = 0; i < nNewSize-m_nSize; i++ )
; 464  : #pragma push_macro("new")
; 465  : #undef new
; 466  : 			::new( (void*)( pNewData + m_nSize + i ) ) TYPE;
; 467  : #pragma pop_macro("new")
; 468  : 
; 469  : 		// get rid of old stuff (note: no destructors called)
; 470  : 		delete[] (BYTE*)m_pData;

  00154	ff 73 04	 push	 DWORD PTR [ebx+4]
  00157	e8 00 00 00 00	 call	 ??_V@YAXPAX@Z		; operator delete[]

; 471  : 		m_pData = pNewData;

  0015c	8b 45 0c	 mov	 eax, DWORD PTR _pNewData$1$[ebp]
  0015f	83 c4 14	 add	 esp, 20			; 00000014H

; 472  : 		m_nSize = nNewSize;
; 473  : 		m_nMaxSize = nNewMax;
; 474  : 	}
; 475  : }

  00162	89 7b 0c	 mov	 DWORD PTR [ebx+12], edi
  00165	89 73 08	 mov	 DWORD PTR [ebx+8], esi
  00168	89 43 04	 mov	 DWORD PTR [ebx+4], eax
  0016b	5f		 pop	 edi
  0016c	5e		 pop	 esi
  0016d	5b		 pop	 ebx
  0016e	8b e5		 mov	 esp, ebp
  00170	5d		 pop	 ebp
  00171	c2 08 00	 ret	 8
$LN42@SetSize:
; File C:\Program Files (x86)\Windows Kits\10\Include\10.0.22000.0\ucrt\corecrt_memcpy_s.h

; 52   :         if (_Source == NULL || _DestinationSize < _SourceSize)

  00174	85 d2		 test	 edx, edx
  00176	8d 14 bd 00 00
	00 00		 lea	 edx, DWORD PTR [edi*4]
  0017d	74 15		 je	 SHORT $LN44@SetSize
  0017f	3b d0		 cmp	 edx, eax
  00181	72 11		 jb	 SHORT $LN44@SetSize

; 58   : 
; 59   :             // Unreachable, but required to suppress /analyze warnings:
; 60   :             return EINVAL;
; 61   :         }
; 62   :         memcpy(_Destination, _Source, _SourceSize);

  00183	50		 push	 eax
  00184	ff 75 08	 push	 DWORD PTR __S2$1$[ebp]
  00187	51		 push	 ecx
  00188	e8 00 00 00 00	 call	 _memcpy
  0018d	83 c4 0c	 add	 esp, 12			; 0000000cH
$LN74@SetSize:
; File C:\Program Files (x86)\Microsoft Visual Studio\2019\Community\VC\Tools\MSVC\14.29.30133\atlmfc\include\atlchecked.h

; 69   : 	ATLMFC_CRT_ERRORCHECK(::memcpy_s(_S1, _S1max, _S2, _N));

  00190	33 c0		 xor	 eax, eax
  00192	eb a1		 jmp	 SHORT $LN40@SetSize
$LN44@SetSize:
; File C:\Program Files (x86)\Windows Kits\10\Include\10.0.22000.0\ucrt\corecrt_memcpy_s.h

; 54   :             memset(_Destination, 0, _DestinationSize);

  00194	52		 push	 edx
  00195	6a 00		 push	 0
  00197	51		 push	 ecx
  00198	e8 00 00 00 00	 call	 _memset
  0019d	83 c4 0c	 add	 esp, 12			; 0000000cH

; 55   : 
; 56   :             _CRT_MEMCPY_S_VALIDATE_RETURN_ERRCODE(_Source != NULL,                 EINVAL);

  001a0	83 7d 08 00	 cmp	 DWORD PTR __S2$1$[ebp], 0
  001a4	0f 84 74 ff ff
	ff		 je	 $LN73@SetSize

; 57   :             _CRT_MEMCPY_S_VALIDATE_RETURN_ERRCODE(_DestinationSize >= _SourceSize, ERANGE);

  001aa	8d 04 bd 00 00
	00 00		 lea	 eax, DWORD PTR [edi*4]
  001b1	3b 45 fc	 cmp	 eax, DWORD PTR __N$1$[ebp]
  001b4	0f 83 76 ff ff
	ff		 jae	 $LN46@SetSize
  001ba	ff 15 00 00 00
	00		 call	 DWORD PTR __imp___errno
  001c0	c7 00 22 00 00
	00		 mov	 DWORD PTR [eax], 34	; 00000022H
  001c6	ff 15 00 00 00
	00		 call	 DWORD PTR __imp___invalid_parameter_noinfo
  001cc	b8 22 00 00 00	 mov	 eax, 34			; 00000022H
  001d1	e9 5f ff ff ff	 jmp	 $LN40@SetSize
$LN70@SetSize:
; File C:\Program Files (x86)\Microsoft Visual Studio\2019\Community\VC\Tools\MSVC\14.29.30133\atlmfc\include\afxtempl.h

; 449  : 			AfxThrowInvalidArgException();

  001d6	e8 00 00 00 00	 call	 ?AfxThrowInvalidArgException@@YGXXZ ; AfxThrowInvalidArgException
$LN72@SetSize:
  001db	cc		 int	 3
?SetSize@?$CArray@HH@@QAEXHH@Z ENDP			; CArray<int,int>::SetSize
_TEXT	ENDS
; Function compile flags: /Ogtp
; File C:\Program Files (x86)\Microsoft Visual Studio\2019\Community\VC\Tools\MSVC\14.29.30133\atlmfc\include\afxtempl.h
;	COMDAT ??0?$CArray@HH@@QAE@XZ
_TEXT	SEGMENT
??0?$CArray@HH@@QAE@XZ PROC				; CArray<int,int>::CArray<int,int>, COMDAT
; _this$ = ecx

; 348  : {

  00000	c7 01 00 00 00
	00		 mov	 DWORD PTR [ecx], OFFSET ??_7?$CArray@HH@@6B@

; 349  : 	m_pData = NULL;
; 350  : 	m_nSize = m_nMaxSize = m_nGrowBy = 0;
; 351  : }

  00006	8b c1		 mov	 eax, ecx
  00008	c7 41 04 00 00
	00 00		 mov	 DWORD PTR [ecx+4], 0
  0000f	c7 41 10 00 00
	00 00		 mov	 DWORD PTR [ecx+16], 0
  00016	c7 41 0c 00 00
	00 00		 mov	 DWORD PTR [ecx+12], 0
  0001d	c7 41 08 00 00
	00 00		 mov	 DWORD PTR [ecx+8], 0
  00024	c3		 ret	 0
??0?$CArray@HH@@QAE@XZ ENDP				; CArray<int,int>::CArray<int,int>
_TEXT	ENDS
; Function compile flags: /Ogtp
; File D:\git\src\IBK\IBK_DRFN\ProjSrc\SrcDrfn\Chart\INDEXOPTIMIZER\Control\XTabCtrl.cpp
; File C:\Program Files (x86)\Microsoft Visual Studio\2019\Community\VC\Tools\MSVC\14.29.30133\atlmfc\include\afxtempl.h
; File D:\git\src\IBK\IBK_DRFN\ProjSrc\SrcDrfn\Chart\INDEXOPTIMIZER\Control\XTabCtrl.cpp
;	COMDAT ??1CXTabCtrl@@UAE@XZ
_TEXT	SEGMENT
__$EHRec$ = -12						; size = 12
??1CXTabCtrl@@UAE@XZ PROC				; CXTabCtrl::~CXTabCtrl, COMDAT
; _this$ = ecx

; 47   : {

  00000	55		 push	 ebp
  00001	8b ec		 mov	 ebp, esp
  00003	6a ff		 push	 -1
  00005	68 00 00 00 00	 push	 __ehhandler$??1CXTabCtrl@@UAE@XZ
  0000a	64 a1 00 00 00
	00		 mov	 eax, DWORD PTR fs:0
  00010	50		 push	 eax
  00011	56		 push	 esi
  00012	a1 00 00 00 00	 mov	 eax, DWORD PTR ___security_cookie
  00017	33 c5		 xor	 eax, ebp
  00019	50		 push	 eax
  0001a	8d 45 f4	 lea	 eax, DWORD PTR __$EHRec$[ebp]
  0001d	64 a3 00 00 00
	00		 mov	 DWORD PTR fs:0, eax
  00023	8b f1		 mov	 esi, ecx
  00025	c7 06 00 00 00
	00		 mov	 DWORD PTR [esi], OFFSET ??_7CXTabCtrl@@6B@
; File C:\Program Files (x86)\Microsoft Visual Studio\2019\Community\VC\Tools\MSVC\14.29.30133\atlmfc\include\afxtempl.h

; 381  : 		if (m_pData != NULL)

  0002b	8b 86 90 00 00
	00		 mov	 eax, DWORD PTR [esi+144]
  00031	85 c0		 test	 eax, eax
  00033	74 13		 je	 SHORT $LN25@CXTabCtrl

; 382  : 		{
; 383  : 			for( int i = 0; i < m_nSize; i++ )
; 384  : 				(m_pData + i)->~TYPE();
; 385  : 			delete[] (BYTE*)m_pData;

  00035	50		 push	 eax
  00036	e8 00 00 00 00	 call	 ??_V@YAXPAX@Z		; operator delete[]
  0003b	83 c4 04	 add	 esp, 4

; 386  : 			m_pData = NULL;

  0003e	c7 86 90 00 00
	00 00 00 00 00	 mov	 DWORD PTR [esi+144], 0
$LN25@CXTabCtrl:

; 387  : 		}
; 388  : 		m_nSize = m_nMaxSize = 0;

  00048	c7 86 98 00 00
	00 00 00 00 00	 mov	 DWORD PTR [esi+152], 0
  00052	c7 86 94 00 00
	00 00 00 00 00	 mov	 DWORD PTR [esi+148], 0

; 358  : 	if (m_pData != NULL)

  0005c	8b 86 90 00 00
	00		 mov	 eax, DWORD PTR [esi+144]
  00062	c7 86 8c 00 00
	00 00 00 00 00	 mov	 DWORD PTR [esi+140], OFFSET ??_7?$CArray@HH@@6B@
  0006c	85 c0		 test	 eax, eax
  0006e	74 13		 je	 SHORT $LN58@CXTabCtrl

; 359  : 	{
; 360  : 		for( int i = 0; i < m_nSize; i++ )

  00070	83 be 94 00 00
	00 00		 cmp	 DWORD PTR [esi+148], 0
  00077	0f 4f c0	 cmovg	 eax, eax

; 361  : 			(m_pData + i)->~TYPE();
; 362  : 		delete[] (BYTE*)m_pData;

  0007a	50		 push	 eax
  0007b	e8 00 00 00 00	 call	 ??_V@YAXPAX@Z		; operator delete[]
  00080	83 c4 04	 add	 esp, 4
$LN58@CXTabCtrl:
; File D:\git\src\IBK\IBK_DRFN\ProjSrc\SrcDrfn\Chart\INDEXOPTIMIZER\Control\XTabCtrl.cpp

; 49   : }

  00083	8b ce		 mov	 ecx, esi
  00085	e8 00 00 00 00	 call	 ??1CTabCtrl@@UAE@XZ	; CTabCtrl::~CTabCtrl
  0008a	8b 4d f4	 mov	 ecx, DWORD PTR __$EHRec$[ebp]
  0008d	64 89 0d 00 00
	00 00		 mov	 DWORD PTR fs:0, ecx
  00094	59		 pop	 ecx
  00095	5e		 pop	 esi
  00096	8b e5		 mov	 esp, ebp
  00098	5d		 pop	 ebp
  00099	c3		 ret	 0
  0009a	cc		 int	 3
  0009b	cc		 int	 3
  0009c	cc		 int	 3
  0009d	cc		 int	 3
  0009e	cc		 int	 3
_TEXT	ENDS
;	COMDAT text$x
text$x	SEGMENT
__ehhandler$??1CXTabCtrl@@UAE@XZ:
  00000	90		 npad	 1
  00001	90		 npad	 1
  00002	8b 54 24 08	 mov	 edx, DWORD PTR [esp+8]
  00006	8d 42 0c	 lea	 eax, DWORD PTR [edx+12]
  00009	8b 4a f8	 mov	 ecx, DWORD PTR [edx-8]
  0000c	33 c8		 xor	 ecx, eax
  0000e	e8 00 00 00 00	 call	 @__security_check_cookie@4
  00013	b8 00 00 00 00	 mov	 eax, OFFSET __ehfuncinfo$??1CXTabCtrl@@UAE@XZ
  00018	e9 00 00 00 00	 jmp	 ___CxxFrameHandler3
text$x	ENDS
??1CXTabCtrl@@UAE@XZ ENDP				; CXTabCtrl::~CXTabCtrl
; Function compile flags: /Ogtp
; File D:\git\src\IBK\IBK_DRFN\ProjSrc\SrcDrfn\Chart\INDEXOPTIMIZER\Control\XTabCtrl.cpp
; File C:\Program Files (x86)\Microsoft Visual Studio\2019\Community\VC\Tools\MSVC\14.29.30133\atlmfc\include\afxcmn.inl
; File D:\git\src\IBK\IBK_DRFN\ProjSrc\SrcDrfn\Chart\INDEXOPTIMIZER\Control\XTabCtrl.cpp
; File C:\Program Files (x86)\Microsoft Visual Studio\2019\Community\VC\Tools\MSVC\14.29.30133\atlmfc\include\afxcmn.inl
; File D:\git\src\IBK\IBK_DRFN\ProjSrc\SrcDrfn\Chart\INDEXOPTIMIZER\Control\XTabCtrl.cpp
; File C:\Program Files (x86)\Microsoft Visual Studio\2019\Community\VC\Tools\MSVC\14.29.30133\atlmfc\include\afxcmn.inl
; File D:\git\src\IBK\IBK_DRFN\ProjSrc\SrcDrfn\Chart\INDEXOPTIMIZER\Control\XTabCtrl.cpp
; File C:\Program Files (x86)\Microsoft Visual Studio\2019\Community\VC\Tools\MSVC\14.29.30133\atlmfc\include\afxtempl.h
; File D:\git\src\IBK\IBK_DRFN\ProjSrc\SrcDrfn\Chart\INDEXOPTIMIZER\Control\XTabCtrl.cpp
; File C:\Program Files (x86)\Microsoft Visual Studio\2019\Community\VC\Tools\MSVC\14.29.30133\atlmfc\include\afxcmn.inl
; File D:\git\src\IBK\IBK_DRFN\ProjSrc\SrcDrfn\Chart\INDEXOPTIMIZER\Control\XTabCtrl.cpp
; File C:\Program Files (x86)\Microsoft Visual Studio\2019\Community\VC\Tools\MSVC\14.29.30133\atlmfc\include\afxcmn.inl
; File D:\git\src\IBK\IBK_DRFN\ProjSrc\SrcDrfn\Chart\INDEXOPTIMIZER\Control\XTabCtrl.cpp
; File C:\Program Files (x86)\Microsoft Visual Studio\2019\Community\VC\Tools\MSVC\14.29.30133\atlmfc\include\afxtempl.h
; File D:\git\src\IBK\IBK_DRFN\ProjSrc\SrcDrfn\Chart\INDEXOPTIMIZER\Control\XTabCtrl.cpp
;	COMDAT ?ChangeTab@CXTabCtrl@@QAEXHPAVCWnd@@PADH@Z
_TEXT	SEGMENT
_item$ = -28						; size = 28
_iIndex$ = 8						; size = 4
_pNewTab$ = 12						; size = 4
_lpszCaption$ = 16					; size = 4
_iImage$ = 20						; size = 4
?ChangeTab@CXTabCtrl@@QAEXHPAVCWnd@@PADH@Z PROC		; CXTabCtrl::ChangeTab, COMDAT
; _this$ = ecx

; 528  : {

  00000	55		 push	 ebp
  00001	8b ec		 mov	 ebp, esp
  00003	83 ec 1c	 sub	 esp, 28			; 0000001cH

; 534  : 	item.pszText = lpszCaption;

  00006	8b 45 10	 mov	 eax, DWORD PTR _lpszCaption$[ebp]
  00009	53		 push	 ebx
; File C:\Program Files (x86)\Microsoft Visual Studio\2019\Community\VC\Tools\MSVC\14.29.30133\atlmfc\include\afxcmn.inl

; 568  : 	{ ASSERT(::IsWindow(m_hWnd)); return (BOOL)::SendMessage(m_hWnd, TCM_SETITEM, nItem, (LPARAM)pTabCtrlItem); }

  0000a	8b 5d 08	 mov	 ebx, DWORD PTR _iIndex$[ebp]
; File D:\git\src\IBK\IBK_DRFN\ProjSrc\SrcDrfn\Chart\INDEXOPTIMIZER\Control\XTabCtrl.cpp

; 528  : {

  0000d	56		 push	 esi

; 533  : 	item.lParam = (LPARAM) pNewTab;

  0000e	8b 75 0c	 mov	 esi, DWORD PTR _pNewTab$[ebp]
  00011	57		 push	 edi

; 534  : 	item.pszText = lpszCaption;

  00012	89 45 f0	 mov	 DWORD PTR _item$[ebp+12], eax
  00015	8b f9		 mov	 edi, ecx

; 535  : 	item.iImage = iImage;

  00017	8b 45 14	 mov	 eax, DWORD PTR _iImage$[ebp]
  0001a	89 45 f8	 mov	 DWORD PTR _item$[ebp+20], eax
; File C:\Program Files (x86)\Microsoft Visual Studio\2019\Community\VC\Tools\MSVC\14.29.30133\atlmfc\include\afxcmn.inl

; 568  : 	{ ASSERT(::IsWindow(m_hWnd)); return (BOOL)::SendMessage(m_hWnd, TCM_SETITEM, nItem, (LPARAM)pTabCtrlItem); }

  0001d	8d 45 e4	 lea	 eax, DWORD PTR _item$[ebp]
  00020	50		 push	 eax
  00021	53		 push	 ebx
  00022	68 06 13 00 00	 push	 4870			; 00001306H
  00027	ff 77 20	 push	 DWORD PTR [edi+32]
; File D:\git\src\IBK\IBK_DRFN\ProjSrc\SrcDrfn\Chart\INDEXOPTIMIZER\Control\XTabCtrl.cpp

; 532  : 	item.mask = TCIF_TEXT|TCIF_PARAM|TCIF_IMAGE;

  0002a	c7 45 e4 0b 00
	00 00		 mov	 DWORD PTR _item$[ebp], 11 ; 0000000bH

; 533  : 	item.lParam = (LPARAM) pNewTab;

  00031	89 75 fc	 mov	 DWORD PTR _item$[ebp+24], esi
; File C:\Program Files (x86)\Microsoft Visual Studio\2019\Community\VC\Tools\MSVC\14.29.30133\atlmfc\include\afxcmn.inl

; 568  : 	{ ASSERT(::IsWindow(m_hWnd)); return (BOOL)::SendMessage(m_hWnd, TCM_SETITEM, nItem, (LPARAM)pTabCtrlItem); }

  00034	ff 15 00 00 00
	00		 call	 DWORD PTR __imp__SendMessageA@16
; File D:\git\src\IBK\IBK_DRFN\ProjSrc\SrcDrfn\Chart\INDEXOPTIMIZER\Control\XTabCtrl.cpp

; 540  : 	pNewTab->SetWindowPos(NULL, m_ptTabs.x, m_ptTabs.y , 0, 0,

  0003a	6a 25		 push	 37			; 00000025H
  0003c	6a 00		 push	 0
  0003e	6a 00		 push	 0
  00040	ff b7 a8 00 00
	00		 push	 DWORD PTR [edi+168]
  00046	8b ce		 mov	 ecx, esi
  00048	ff b7 a4 00 00
	00		 push	 DWORD PTR [edi+164]
  0004e	6a 00		 push	 0
  00050	e8 00 00 00 00	 call	 ?SetWindowPos@CWnd@@QAEHPBV1@HHHHI@Z ; CWnd::SetWindowPos

; 541  : 						SWP_FRAMECHANGED | SWP_NOSIZE | SWP_NOZORDER);
; 542  : 	
; 543  : 	pNewTab->ShowWindow(SW_HIDE);

  00055	6a 00		 push	 0
  00057	8b ce		 mov	 ecx, esi
  00059	e8 00 00 00 00	 call	 ?ShowWindow@CWnd@@QAEHH@Z ; CWnd::ShowWindow
; File C:\Program Files (x86)\Microsoft Visual Studio\2019\Community\VC\Tools\MSVC\14.29.30133\atlmfc\include\afxtempl.h

; 321  : 	if(nIndex >= 0 && nIndex < m_nSize)

  0005e	85 db		 test	 ebx, ebx
  00060	78 4b		 js	 SHORT $LN8@ChangeTab
  00062	3b 9f 94 00 00
	00		 cmp	 ebx, DWORD PTR [edi+148]
  00068	7d 43		 jge	 SHORT $LN8@ChangeTab
; File D:\git\src\IBK\IBK_DRFN\ProjSrc\SrcDrfn\Chart\INDEXOPTIMIZER\Control\XTabCtrl.cpp

; 546  : 	m_arrayStatusTab[iIndex] = TRUE; 

  0006a	8b 87 90 00 00
	00		 mov	 eax, DWORD PTR [edi+144]
; File C:\Program Files (x86)\Microsoft Visual Studio\2019\Community\VC\Tools\MSVC\14.29.30133\atlmfc\include\afxcmn.inl

; 586  : 	{ ASSERT(::IsWindow(m_hWnd)); return (int)::SendMessage(m_hWnd, TCM_GETCURSEL, 0, 0L); }

  00070	8b 35 00 00 00
	00		 mov	 esi, DWORD PTR __imp__SendMessageA@16
  00076	6a 00		 push	 0
  00078	6a 00		 push	 0
  0007a	68 0b 13 00 00	 push	 4875			; 0000130bH
; File D:\git\src\IBK\IBK_DRFN\ProjSrc\SrcDrfn\Chart\INDEXOPTIMIZER\Control\XTabCtrl.cpp

; 546  : 	m_arrayStatusTab[iIndex] = TRUE; 

  0007f	c7 04 98 01 00
	00 00		 mov	 DWORD PTR [eax+ebx*4], 1
; File C:\Program Files (x86)\Microsoft Visual Studio\2019\Community\VC\Tools\MSVC\14.29.30133\atlmfc\include\afxcmn.inl

; 586  : 	{ ASSERT(::IsWindow(m_hWnd)); return (int)::SendMessage(m_hWnd, TCM_GETCURSEL, 0, 0L); }

  00086	ff 77 20	 push	 DWORD PTR [edi+32]
  00089	ff d6		 call	 esi

; 566  : 	{ ASSERT(::IsWindow(m_hWnd)); return (BOOL)::SendMessage(m_hWnd, TCM_GETITEM, nItem, (LPARAM)pTabCtrlItem); }

  0008b	8d 4d e4	 lea	 ecx, DWORD PTR _item$[ebp]
  0008e	51		 push	 ecx
  0008f	50		 push	 eax
  00090	68 05 13 00 00	 push	 4869			; 00001305H
  00095	ff 77 20	 push	 DWORD PTR [edi+32]
  00098	ff d6		 call	 esi
; File D:\git\src\IBK\IBK_DRFN\ProjSrc\SrcDrfn\Chart\INDEXOPTIMIZER\Control\XTabCtrl.cpp

; 550  : 	((CWnd*)item.lParam)->ShowWindow(SW_SHOW);

  0009a	8b 4d fc	 mov	 ecx, DWORD PTR _item$[ebp+24]
  0009d	6a 05		 push	 5
  0009f	e8 00 00 00 00	 call	 ?ShowWindow@CWnd@@QAEHH@Z ; CWnd::ShowWindow
  000a4	5f		 pop	 edi
  000a5	5e		 pop	 esi
  000a6	5b		 pop	 ebx

; 551  : }

  000a7	8b e5		 mov	 esp, ebp
  000a9	5d		 pop	 ebp
  000aa	c2 10 00	 ret	 16			; 00000010H
$LN8@ChangeTab:
; File C:\Program Files (x86)\Microsoft Visual Studio\2019\Community\VC\Tools\MSVC\14.29.30133\atlmfc\include\afxtempl.h

; 323  : 	AfxThrowInvalidArgException();

  000ad	e8 00 00 00 00	 call	 ?AfxThrowInvalidArgException@@YGXXZ ; AfxThrowInvalidArgException
$LN16@ChangeTab:
  000b2	cc		 int	 3
?ChangeTab@CXTabCtrl@@QAEXHPAVCWnd@@PADH@Z ENDP		; CXTabCtrl::ChangeTab
_TEXT	ENDS
; Function compile flags: /Ogtp
; File D:\git\src\IBK\IBK_DRFN\ProjSrc\SrcDrfn\Chart\INDEXOPTIMIZER\Control\XTabCtrl.cpp
; File C:\Program Files (x86)\Microsoft Visual Studio\2019\Community\VC\Tools\MSVC\14.29.30133\atlmfc\include\afxcmn.inl
; File D:\git\src\IBK\IBK_DRFN\ProjSrc\SrcDrfn\Chart\INDEXOPTIMIZER\Control\XTabCtrl.cpp
; File C:\Program Files (x86)\Microsoft Visual Studio\2019\Community\VC\Tools\MSVC\14.29.30133\atlmfc\include\afxcmn.inl
; File D:\git\src\IBK\IBK_DRFN\ProjSrc\SrcDrfn\Chart\INDEXOPTIMIZER\Control\XTabCtrl.cpp
; File C:\Program Files (x86)\Microsoft Visual Studio\2019\Community\VC\Tools\MSVC\14.29.30133\atlmfc\include\afxcmn.inl
; File D:\git\src\IBK\IBK_DRFN\ProjSrc\SrcDrfn\Chart\INDEXOPTIMIZER\Control\XTabCtrl.cpp
; File C:\Program Files (x86)\Microsoft Visual Studio\2019\Community\VC\Tools\MSVC\14.29.30133\atlmfc\include\afxcmn.inl
; File D:\git\src\IBK\IBK_DRFN\ProjSrc\SrcDrfn\Chart\INDEXOPTIMIZER\Control\XTabCtrl.cpp
; File C:\Program Files (x86)\Microsoft Visual Studio\2019\Community\VC\Tools\MSVC\14.29.30133\atlmfc\include\afxcmn.inl
; File D:\git\src\IBK\IBK_DRFN\ProjSrc\SrcDrfn\Chart\INDEXOPTIMIZER\Control\XTabCtrl.cpp
; File C:\Program Files (x86)\Microsoft Visual Studio\2019\Community\VC\Tools\MSVC\14.29.30133\atlmfc\include\afxcmn.inl
; File D:\git\src\IBK\IBK_DRFN\ProjSrc\SrcDrfn\Chart\INDEXOPTIMIZER\Control\XTabCtrl.cpp
; File C:\Program Files (x86)\Microsoft Visual Studio\2019\Community\VC\Tools\MSVC\14.29.30133\atlmfc\include\afxcmn.inl
; File D:\git\src\IBK\IBK_DRFN\ProjSrc\SrcDrfn\Chart\INDEXOPTIMIZER\Control\XTabCtrl.cpp
; File C:\Program Files (x86)\Microsoft Visual Studio\2019\Community\VC\Tools\MSVC\14.29.30133\atlmfc\include\afxcmn.inl
; File D:\git\src\IBK\IBK_DRFN\ProjSrc\SrcDrfn\Chart\INDEXOPTIMIZER\Control\XTabCtrl.cpp
;	COMDAT ?SelectTabByName@CXTabCtrl@@QAEHPBD@Z
_TEXT	SEGMENT
_item$ = -96						; size = 28
_szName$ = -68						; size = 64
__$ArrayPad$ = -4					; size = 4
_lpszTabCaption$ = 8					; size = 4
?SelectTabByName@CXTabCtrl@@QAEHPBD@Z PROC		; CXTabCtrl::SelectTabByName, COMDAT
; _this$ = ecx

; 554  : {

  00000	55		 push	 ebp
  00001	8b ec		 mov	 ebp, esp
  00003	83 ec 60	 sub	 esp, 96			; 00000060H
  00006	a1 00 00 00 00	 mov	 eax, DWORD PTR ___security_cookie
  0000b	33 c5		 xor	 eax, ebp
  0000d	89 45 fc	 mov	 DWORD PTR __$ArrayPad$[ebp], eax
  00010	53		 push	 ebx
; File C:\Program Files (x86)\Microsoft Visual Studio\2019\Community\VC\Tools\MSVC\14.29.30133\atlmfc\include\afxcmn.inl

; 564  : 	{ ASSERT(::IsWindow(m_hWnd)); return (int)::SendMessage(m_hWnd, TCM_GETITEMCOUNT, 0, 0L); }

  00011	8b 1d 00 00 00
	00		 mov	 ebx, DWORD PTR __imp__SendMessageA@16
; File D:\git\src\IBK\IBK_DRFN\ProjSrc\SrcDrfn\Chart\INDEXOPTIMIZER\Control\XTabCtrl.cpp

; 562  : 	item.pszText    = szName;

  00017	8d 45 bc	 lea	 eax, DWORD PTR _szName$[ebp]
  0001a	56		 push	 esi
  0001b	57		 push	 edi

; 564  : 	for (int i=0; i < GetItemCount(); i++)

  0001c	33 f6		 xor	 esi, esi
  0001e	c7 45 a0 01 00
	00 00		 mov	 DWORD PTR _item$[ebp], 1
; File C:\Program Files (x86)\Microsoft Visual Studio\2019\Community\VC\Tools\MSVC\14.29.30133\atlmfc\include\afxcmn.inl

; 564  : 	{ ASSERT(::IsWindow(m_hWnd)); return (int)::SendMessage(m_hWnd, TCM_GETITEMCOUNT, 0, 0L); }

  00025	56		 push	 esi
; File D:\git\src\IBK\IBK_DRFN\ProjSrc\SrcDrfn\Chart\INDEXOPTIMIZER\Control\XTabCtrl.cpp

; 554  : {

  00026	8b f9		 mov	 edi, ecx

; 559  : 
; 560  : 	item.mask       = TCIF_TEXT;
; 561  : 	item.cchTextMax = sizeof(szName);

  00028	c7 45 b0 40 00
	00 00		 mov	 DWORD PTR _item$[ebp+16], 64 ; 00000040H
; File C:\Program Files (x86)\Microsoft Visual Studio\2019\Community\VC\Tools\MSVC\14.29.30133\atlmfc\include\afxcmn.inl

; 564  : 	{ ASSERT(::IsWindow(m_hWnd)); return (int)::SendMessage(m_hWnd, TCM_GETITEMCOUNT, 0, 0L); }

  0002f	56		 push	 esi
  00030	68 04 13 00 00	 push	 4868			; 00001304H
  00035	0f 57 c0	 xorps	 xmm0, xmm0
; File D:\git\src\IBK\IBK_DRFN\ProjSrc\SrcDrfn\Chart\INDEXOPTIMIZER\Control\XTabCtrl.cpp

; 562  : 	item.pszText    = szName;

  00038	89 45 ac	 mov	 DWORD PTR _item$[ebp+12], eax
; File C:\Program Files (x86)\Microsoft Visual Studio\2019\Community\VC\Tools\MSVC\14.29.30133\atlmfc\include\afxcmn.inl

; 564  : 	{ ASSERT(::IsWindow(m_hWnd)); return (int)::SendMessage(m_hWnd, TCM_GETITEMCOUNT, 0, 0L); }

  0003b	ff 77 20	 push	 DWORD PTR [edi+32]
; File D:\git\src\IBK\IBK_DRFN\ProjSrc\SrcDrfn\Chart\INDEXOPTIMIZER\Control\XTabCtrl.cpp

; 558  : 	memset(&item, 0, sizeof(item));

  0003e	66 0f 13 45 a4	 movlpd	 QWORD PTR _item$[ebp+4], xmm0
  00043	66 0f 13 45 b4	 movlpd	 QWORD PTR _item$[ebp+20], xmm0
; File C:\Program Files (x86)\Microsoft Visual Studio\2019\Community\VC\Tools\MSVC\14.29.30133\atlmfc\include\afxcmn.inl

; 564  : 	{ ASSERT(::IsWindow(m_hWnd)); return (int)::SendMessage(m_hWnd, TCM_GETITEMCOUNT, 0, 0L); }

  00048	ff d3		 call	 ebx
; File D:\git\src\IBK\IBK_DRFN\ProjSrc\SrcDrfn\Chart\INDEXOPTIMIZER\Control\XTabCtrl.cpp

; 564  : 	for (int i=0; i < GetItemCount(); i++)

  0004a	85 c0		 test	 eax, eax
  0004c	7e 53		 jle	 SHORT $LN3@SelectTabB
  0004e	66 90		 npad	 2
$LL4@SelectTabB:
; File C:\Program Files (x86)\Microsoft Visual Studio\2019\Community\VC\Tools\MSVC\14.29.30133\atlmfc\include\afxcmn.inl

; 566  : 	{ ASSERT(::IsWindow(m_hWnd)); return (BOOL)::SendMessage(m_hWnd, TCM_GETITEM, nItem, (LPARAM)pTabCtrlItem); }

  00050	8d 45 a0	 lea	 eax, DWORD PTR _item$[ebp]
  00053	50		 push	 eax
  00054	56		 push	 esi
  00055	68 05 13 00 00	 push	 4869			; 00001305H
  0005a	ff 77 20	 push	 DWORD PTR [edi+32]
  0005d	ff d3		 call	 ebx
; File D:\git\src\IBK\IBK_DRFN\ProjSrc\SrcDrfn\Chart\INDEXOPTIMIZER\Control\XTabCtrl.cpp

; 568  : 		if (strcmp(lpszTabCaption, item.pszText) == 0)

  0005f	8b 45 ac	 mov	 eax, DWORD PTR _item$[ebp+12]
  00062	8b 4d 08	 mov	 ecx, DWORD PTR _lpszTabCaption$[ebp]
$LL16@SelectTabB:
  00065	8a 11		 mov	 dl, BYTE PTR [ecx]
  00067	3a 10		 cmp	 dl, BYTE PTR [eax]
  00069	75 1a		 jne	 SHORT $LN17@SelectTabB
  0006b	84 d2		 test	 dl, dl
  0006d	74 12		 je	 SHORT $LN18@SelectTabB
  0006f	8a 51 01	 mov	 dl, BYTE PTR [ecx+1]
  00072	3a 50 01	 cmp	 dl, BYTE PTR [eax+1]
  00075	75 0e		 jne	 SHORT $LN17@SelectTabB
  00077	83 c1 02	 add	 ecx, 2
  0007a	83 c0 02	 add	 eax, 2
  0007d	84 d2		 test	 dl, dl
  0007f	75 e4		 jne	 SHORT $LL16@SelectTabB
$LN18@SelectTabB:
  00081	33 c0		 xor	 eax, eax
  00083	eb 05		 jmp	 SHORT $LN19@SelectTabB
$LN17@SelectTabB:
  00085	1b c0		 sbb	 eax, eax
  00087	83 c8 01	 or	 eax, 1
$LN19@SelectTabB:
  0008a	85 c0		 test	 eax, eax
  0008c	74 28		 je	 SHORT $LN12@SelectTabB
; File C:\Program Files (x86)\Microsoft Visual Studio\2019\Community\VC\Tools\MSVC\14.29.30133\atlmfc\include\afxcmn.inl

; 564  : 	{ ASSERT(::IsWindow(m_hWnd)); return (int)::SendMessage(m_hWnd, TCM_GETITEMCOUNT, 0, 0L); }

  0008e	6a 00		 push	 0
  00090	6a 00		 push	 0
  00092	68 04 13 00 00	 push	 4868			; 00001304H
  00097	ff 77 20	 push	 DWORD PTR [edi+32]
; File D:\git\src\IBK\IBK_DRFN\ProjSrc\SrcDrfn\Chart\INDEXOPTIMIZER\Control\XTabCtrl.cpp

; 564  : 	for (int i=0; i < GetItemCount(); i++)

  0009a	46		 inc	 esi
; File C:\Program Files (x86)\Microsoft Visual Studio\2019\Community\VC\Tools\MSVC\14.29.30133\atlmfc\include\afxcmn.inl

; 564  : 	{ ASSERT(::IsWindow(m_hWnd)); return (int)::SendMessage(m_hWnd, TCM_GETITEMCOUNT, 0, 0L); }

  0009b	ff d3		 call	 ebx
; File D:\git\src\IBK\IBK_DRFN\ProjSrc\SrcDrfn\Chart\INDEXOPTIMIZER\Control\XTabCtrl.cpp

; 564  : 	for (int i=0; i < GetItemCount(); i++)

  0009d	3b f0		 cmp	 esi, eax
  0009f	7c af		 jl	 SHORT $LL4@SelectTabB
$LN3@SelectTabB:
  000a1	5f		 pop	 edi

; 570  : 	}
; 571  : 
; 572  : 	return FALSE;
; 573  : }

  000a2	5e		 pop	 esi
  000a3	33 c0		 xor	 eax, eax
  000a5	5b		 pop	 ebx
  000a6	8b 4d fc	 mov	 ecx, DWORD PTR __$ArrayPad$[ebp]
  000a9	33 cd		 xor	 ecx, ebp
  000ab	e8 00 00 00 00	 call	 @__security_check_cookie@4
  000b0	8b e5		 mov	 esp, ebp
  000b2	5d		 pop	 ebp
  000b3	c2 04 00	 ret	 4
$LN12@SelectTabB:

; 569  : 			return SelectTab(i);

  000b6	56		 push	 esi
  000b7	8b cf		 mov	 ecx, edi
  000b9	e8 00 00 00 00	 call	 ?SelectTab@CXTabCtrl@@QAEHH@Z ; CXTabCtrl::SelectTab

; 570  : 	}
; 571  : 
; 572  : 	return FALSE;
; 573  : }

  000be	8b 4d fc	 mov	 ecx, DWORD PTR __$ArrayPad$[ebp]
  000c1	5f		 pop	 edi
  000c2	5e		 pop	 esi
  000c3	33 cd		 xor	 ecx, ebp
  000c5	5b		 pop	 ebx
  000c6	e8 00 00 00 00	 call	 @__security_check_cookie@4
  000cb	8b e5		 mov	 esp, ebp
  000cd	5d		 pop	 ebp
  000ce	c2 04 00	 ret	 4
?SelectTabByName@CXTabCtrl@@QAEHPBD@Z ENDP		; CXTabCtrl::SelectTabByName
_TEXT	ENDS
; Function compile flags: /Ogtp
; File D:\git\src\IBK\IBK_DRFN\ProjSrc\SrcDrfn\Chart\INDEXOPTIMIZER\Control\XTabCtrl.cpp
; File C:\Program Files (x86)\Microsoft Visual Studio\2019\Community\VC\Tools\MSVC\14.29.30133\atlmfc\include\afxcmn.inl
; File D:\git\src\IBK\IBK_DRFN\ProjSrc\SrcDrfn\Chart\INDEXOPTIMIZER\Control\XTabCtrl.cpp
; File C:\Program Files (x86)\Microsoft Visual Studio\2019\Community\VC\Tools\MSVC\14.29.30133\atlmfc\include\afxcmn.inl
; File D:\git\src\IBK\IBK_DRFN\ProjSrc\SrcDrfn\Chart\INDEXOPTIMIZER\Control\XTabCtrl.cpp
; File C:\Program Files (x86)\Microsoft Visual Studio\2019\Community\VC\Tools\MSVC\14.29.30133\atlmfc\include\afxcmn.inl
; File D:\git\src\IBK\IBK_DRFN\ProjSrc\SrcDrfn\Chart\INDEXOPTIMIZER\Control\XTabCtrl.cpp
; File C:\Program Files (x86)\Microsoft Visual Studio\2019\Community\VC\Tools\MSVC\14.29.30133\atlmfc\include\afxcmn.inl
; File D:\git\src\IBK\IBK_DRFN\ProjSrc\SrcDrfn\Chart\INDEXOPTIMIZER\Control\XTabCtrl.cpp
; File C:\Program Files (x86)\Microsoft Visual Studio\2019\Community\VC\Tools\MSVC\14.29.30133\atlmfc\include\afxtempl.h
; File D:\git\src\IBK\IBK_DRFN\ProjSrc\SrcDrfn\Chart\INDEXOPTIMIZER\Control\XTabCtrl.cpp
; File C:\Program Files (x86)\Microsoft Visual Studio\2019\Community\VC\Tools\MSVC\14.29.30133\atlmfc\include\afxcmn.inl
; File D:\git\src\IBK\IBK_DRFN\ProjSrc\SrcDrfn\Chart\INDEXOPTIMIZER\Control\XTabCtrl.cpp
; File C:\Program Files (x86)\Microsoft Visual Studio\2019\Community\VC\Tools\MSVC\14.29.30133\atlmfc\include\afxtempl.h
; File D:\git\src\IBK\IBK_DRFN\ProjSrc\SrcDrfn\Chart\INDEXOPTIMIZER\Control\XTabCtrl.cpp
;	COMDAT ?SelectNextTab@CXTabCtrl@@QAEHH@Z
_TEXT	SEGMENT
_iCurSelSave$1$ = 8					; size = 4
_bForward$ = 8						; size = 4
?SelectNextTab@CXTabCtrl@@QAEHH@Z PROC			; CXTabCtrl::SelectNextTab, COMDAT
; _this$ = ecx

; 576  : {

  00000	55		 push	 ebp
  00001	8b ec		 mov	 ebp, esp
  00003	53		 push	 ebx
  00004	56		 push	 esi
  00005	57		 push	 edi

; 577  : 	int iSum = bForward ? 1 : -1;

  00006	33 db		 xor	 ebx, ebx
  00008	8b f9		 mov	 edi, ecx
  0000a	39 5d 08	 cmp	 DWORD PTR _bForward$[ebp], ebx
; File C:\Program Files (x86)\Microsoft Visual Studio\2019\Community\VC\Tools\MSVC\14.29.30133\atlmfc\include\afxcmn.inl

; 586  : 	{ ASSERT(::IsWindow(m_hWnd)); return (int)::SendMessage(m_hWnd, TCM_GETCURSEL, 0, 0L); }

  0000d	6a 00		 push	 0
  0000f	6a 00		 push	 0
; File D:\git\src\IBK\IBK_DRFN\ProjSrc\SrcDrfn\Chart\INDEXOPTIMIZER\Control\XTabCtrl.cpp

; 577  : 	int iSum = bForward ? 1 : -1;

  00011	0f 95 c3	 setne	 bl
; File C:\Program Files (x86)\Microsoft Visual Studio\2019\Community\VC\Tools\MSVC\14.29.30133\atlmfc\include\afxcmn.inl

; 586  : 	{ ASSERT(::IsWindow(m_hWnd)); return (int)::SendMessage(m_hWnd, TCM_GETCURSEL, 0, 0L); }

  00014	68 0b 13 00 00	 push	 4875			; 0000130bH
  00019	ff 77 20	 push	 DWORD PTR [edi+32]
; File D:\git\src\IBK\IBK_DRFN\ProjSrc\SrcDrfn\Chart\INDEXOPTIMIZER\Control\XTabCtrl.cpp

; 577  : 	int iSum = bForward ? 1 : -1;

  0001c	8d 1c 5d ff ff
	ff ff		 lea	 ebx, DWORD PTR [ebx*2-1]
; File C:\Program Files (x86)\Microsoft Visual Studio\2019\Community\VC\Tools\MSVC\14.29.30133\atlmfc\include\afxcmn.inl

; 586  : 	{ ASSERT(::IsWindow(m_hWnd)); return (int)::SendMessage(m_hWnd, TCM_GETCURSEL, 0, 0L); }

  00023	ff 15 00 00 00
	00		 call	 DWORD PTR __imp__SendMessageA@16
; File D:\git\src\IBK\IBK_DRFN\ProjSrc\SrcDrfn\Chart\INDEXOPTIMIZER\Control\XTabCtrl.cpp

; 579  : 	int iCurSel = GetCurSel();

  00029	8b f0		 mov	 esi, eax

; 580  : 	int iCurSelSave(iCurSel);

  0002b	89 75 08	 mov	 DWORD PTR _iCurSelSave$1$[ebp], esi
  0002e	66 90		 npad	 2
$LL4@SelectNext:

; 581  : 
; 582  : 	do
; 583  : 	{
; 584  : 		iCurSel += iSum;

  00030	03 f3		 add	 esi, ebx

; 586  : 		if (iCurSel < 0 || iCurSel == GetItemCount())

  00032	78 2f		 js	 SHORT $LN6@SelectNext
; File C:\Program Files (x86)\Microsoft Visual Studio\2019\Community\VC\Tools\MSVC\14.29.30133\atlmfc\include\afxcmn.inl

; 564  : 	{ ASSERT(::IsWindow(m_hWnd)); return (int)::SendMessage(m_hWnd, TCM_GETITEMCOUNT, 0, 0L); }

  00034	6a 00		 push	 0
  00036	6a 00		 push	 0
  00038	68 04 13 00 00	 push	 4868			; 00001304H
  0003d	ff 77 20	 push	 DWORD PTR [edi+32]
  00040	ff 15 00 00 00
	00		 call	 DWORD PTR __imp__SendMessageA@16
; File D:\git\src\IBK\IBK_DRFN\ProjSrc\SrcDrfn\Chart\INDEXOPTIMIZER\Control\XTabCtrl.cpp

; 586  : 		if (iCurSel < 0 || iCurSel == GetItemCount())

  00046	3b f0		 cmp	 esi, eax
  00048	74 19		 je	 SHORT $LN6@SelectNext
; File C:\Program Files (x86)\Microsoft Visual Studio\2019\Community\VC\Tools\MSVC\14.29.30133\atlmfc\include\afxtempl.h

; 321  : 	if(nIndex >= 0 && nIndex < m_nSize)

  0004a	3b b7 94 00 00
	00		 cmp	 esi, DWORD PTR [edi+148]
  00050	7d 44		 jge	 SHORT $LN19@SelectNext
; File D:\git\src\IBK\IBK_DRFN\ProjSrc\SrcDrfn\Chart\INDEXOPTIMIZER\Control\XTabCtrl.cpp

; 589  : 		if (IsTabEnabled(iCurSel))

  00052	8b 87 90 00 00
	00		 mov	 eax, DWORD PTR [edi+144]
  00058	83 3c b0 00	 cmp	 DWORD PTR [eax+esi*4], 0
  0005c	75 0e		 jne	 SHORT $LN29@SelectNext

; 594  : 
; 595  : 				return TRUE;
; 596  : 			}
; 597  : 
; 598  : 			return FALSE;
; 599  : 		}
; 600  : 
; 601  : 	}
; 602  : 	while (iCurSel != iCurSelSave);

  0005e	3b 75 08	 cmp	 esi, DWORD PTR _iCurSelSave$1$[ebp]
  00061	75 cd		 jne	 SHORT $LL4@SelectNext
$LN6@SelectNext:
  00063	5f		 pop	 edi

; 605  : }

  00064	5e		 pop	 esi
  00065	33 c0		 xor	 eax, eax
  00067	5b		 pop	 ebx
  00068	5d		 pop	 ebp
  00069	c2 04 00	 ret	 4
$LN29@SelectNext:
; File C:\Program Files (x86)\Microsoft Visual Studio\2019\Community\VC\Tools\MSVC\14.29.30133\atlmfc\include\afxcmn.inl

; 564  : 	{ ASSERT(::IsWindow(m_hWnd)); return (int)::SendMessage(m_hWnd, TCM_GETITEMCOUNT, 0, 0L); }

  0006c	6a 00		 push	 0
  0006e	6a 00		 push	 0
  00070	68 04 13 00 00	 push	 4868			; 00001304H
  00075	ff 77 20	 push	 DWORD PTR [edi+32]
  00078	ff 15 00 00 00
	00		 call	 DWORD PTR __imp__SendMessageA@16
; File D:\git\src\IBK\IBK_DRFN\ProjSrc\SrcDrfn\Chart\INDEXOPTIMIZER\Control\XTabCtrl.cpp

; 591  : 			if (iCurSel < GetItemCount())

  0007e	3b f0		 cmp	 esi, eax
  00080	7d e1		 jge	 SHORT $LN6@SelectNext

; 592  : 			{
; 593  : 				SelectTab(iCurSel);

  00082	56		 push	 esi
  00083	8b cf		 mov	 ecx, edi
  00085	e8 00 00 00 00	 call	 ?SelectTab@CXTabCtrl@@QAEHH@Z ; CXTabCtrl::SelectTab
  0008a	5f		 pop	 edi

; 605  : }

  0008b	5e		 pop	 esi
  0008c	b8 01 00 00 00	 mov	 eax, 1
  00091	5b		 pop	 ebx
  00092	5d		 pop	 ebp
  00093	c2 04 00	 ret	 4
$LN19@SelectNext:
; File C:\Program Files (x86)\Microsoft Visual Studio\2019\Community\VC\Tools\MSVC\14.29.30133\atlmfc\include\afxtempl.h

; 323  : 	AfxThrowInvalidArgException();

  00096	e8 00 00 00 00	 call	 ?AfxThrowInvalidArgException@@YGXXZ ; AfxThrowInvalidArgException
$LN32@SelectNext:
  0009b	cc		 int	 3
?SelectNextTab@CXTabCtrl@@QAEHH@Z ENDP			; CXTabCtrl::SelectNextTab
_TEXT	ENDS
; Function compile flags: /Ogtp
; File D:\git\src\IBK\IBK_DRFN\ProjSrc\SrcDrfn\Chart\INDEXOPTIMIZER\Control\XTabCtrl.cpp
;	COMDAT ?PreSubclassWindow@CXTabCtrl@@MAEXXZ
_TEXT	SEGMENT
?PreSubclassWindow@CXTabCtrl@@MAEXXZ PROC		; CXTabCtrl::PreSubclassWindow, COMDAT
; _this$ = ecx

; 288  : {

  00000	56		 push	 esi
  00001	8b f1		 mov	 esi, ecx

; 289  : 	// TODO: Add your specialized code here and/or call the base class
; 290  : 	CTabCtrl::PreSubclassWindow();

  00003	e8 00 00 00 00	 call	 ?PreSubclassWindow@CWnd@@UAEXXZ ; CWnd::PreSubclassWindow

; 291  : 	ModifyStyle(0, TCS_OWNERDRAWFIXED);

  00008	6a 00		 push	 0
  0000a	68 00 20 00 00	 push	 8192			; 00002000H
  0000f	6a 00		 push	 0
  00011	8b ce		 mov	 ecx, esi
  00013	e8 00 00 00 00	 call	 ?ModifyStyle@CWnd@@QAEHKKI@Z ; CWnd::ModifyStyle
  00018	5e		 pop	 esi

; 292  : }

  00019	c3		 ret	 0
?PreSubclassWindow@CXTabCtrl@@MAEXXZ ENDP		; CXTabCtrl::PreSubclassWindow
_TEXT	ENDS
; Function compile flags: /Ogtp
; File D:\git\src\IBK\IBK_DRFN\ProjSrc\SrcDrfn\Chart\INDEXOPTIMIZER\Control\XTabCtrl.cpp
; File C:\Program Files (x86)\Microsoft Visual Studio\2019\Community\VC\Tools\MSVC\14.29.30133\atlmfc\include\atltypes.h
; File D:\git\src\IBK\IBK_DRFN\ProjSrc\SrcDrfn\Chart\INDEXOPTIMIZER\Control\XTabCtrl.cpp
; File C:\Program Files (x86)\Microsoft Visual Studio\2019\Community\VC\Tools\MSVC\14.29.30133\atlmfc\include\afxcmn.inl
; File D:\git\src\IBK\IBK_DRFN\ProjSrc\SrcDrfn\Chart\INDEXOPTIMIZER\Control\XTabCtrl.cpp
; File C:\Program Files (x86)\Microsoft Visual Studio\2019\Community\VC\Tools\MSVC\14.29.30133\atlmfc\include\afxcmn.inl
; File D:\git\src\IBK\IBK_DRFN\ProjSrc\SrcDrfn\Chart\INDEXOPTIMIZER\Control\XTabCtrl.cpp
; File C:\Program Files (x86)\Microsoft Visual Studio\2019\Community\VC\Tools\MSVC\14.29.30133\atlmfc\include\afxcmn.inl
; File D:\git\src\IBK\IBK_DRFN\ProjSrc\SrcDrfn\Chart\INDEXOPTIMIZER\Control\XTabCtrl.cpp
; File C:\Program Files (x86)\Microsoft Visual Studio\2019\Community\VC\Tools\MSVC\14.29.30133\atlmfc\include\afxcmn.inl
; File C:\Program Files (x86)\Microsoft Visual Studio\2019\Community\VC\Tools\MSVC\14.29.30133\atlmfc\include\atltypes.h
; File C:\Program Files (x86)\Microsoft Visual Studio\2019\Community\VC\Tools\MSVC\14.29.30133\atlmfc\include\afxcmn.inl
; File D:\git\src\IBK\IBK_DRFN\ProjSrc\SrcDrfn\Chart\INDEXOPTIMIZER\Control\XTabCtrl.cpp
; File C:\Program Files (x86)\Microsoft Visual Studio\2019\Community\VC\Tools\MSVC\14.29.30133\atlmfc\include\afxwin2.inl
; File C:\Program Files (x86)\Microsoft Visual Studio\2019\Community\VC\Tools\MSVC\14.29.30133\atlmfc\include\atltypes.h
; File D:\git\src\IBK\IBK_DRFN\ProjSrc\SrcDrfn\Chart\INDEXOPTIMIZER\Control\XTabCtrl.cpp
; File C:\Program Files (x86)\Microsoft Visual Studio\2019\Community\VC\Tools\MSVC\14.29.30133\atlmfc\include\afxcmn.inl
; File D:\git\src\IBK\IBK_DRFN\ProjSrc\SrcDrfn\Chart\INDEXOPTIMIZER\Control\XTabCtrl.cpp
; File C:\Program Files (x86)\Microsoft Visual Studio\2019\Community\VC\Tools\MSVC\14.29.30133\atlmfc\include\atlsimpstr.h
; File C:\Program Files (x86)\Microsoft Visual Studio\2019\Community\VC\Tools\MSVC\14.29.30133\atlmfc\include\afxwin1.inl
; File D:\git\src\IBK\IBK_DRFN\ProjSrc\SrcDrfn\Chart\INDEXOPTIMIZER\Control\XTabCtrl.cpp
; File C:\Program Files (x86)\Microsoft Visual Studio\2019\Community\VC\Tools\MSVC\14.29.30133\atlmfc\include\afxwin1.inl
; File C:\Program Files (x86)\Microsoft Visual Studio\2019\Community\VC\Tools\MSVC\14.29.30133\atlmfc\include\atltypes.h
; File C:\Program Files (x86)\Microsoft Visual Studio\2019\Community\VC\Tools\MSVC\14.29.30133\atlmfc\include\afxwin1.inl
; File D:\git\src\IBK\IBK_DRFN\ProjSrc\SrcDrfn\Chart\INDEXOPTIMIZER\Control\XTabCtrl.cpp
; File C:\Program Files (x86)\Microsoft Visual Studio\2019\Community\VC\Tools\MSVC\14.29.30133\atlmfc\include\afxtempl.h
; File D:\git\src\IBK\IBK_DRFN\ProjSrc\SrcDrfn\Chart\INDEXOPTIMIZER\Control\XTabCtrl.cpp
; File C:\Program Files (x86)\Microsoft Visual Studio\2019\Community\VC\Tools\MSVC\14.29.30133\atlmfc\include\atlsimpstr.h
; File C:\Program Files (x86)\Microsoft Visual Studio\2019\Community\VC\Tools\MSVC\14.29.30133\atlmfc\include\afxwin1.inl
; File D:\git\src\IBK\IBK_DRFN\ProjSrc\SrcDrfn\Chart\INDEXOPTIMIZER\Control\XTabCtrl.cpp
; File C:\Program Files (x86)\Microsoft Visual Studio\2019\Community\VC\Tools\MSVC\14.29.30133\atlmfc\include\afxwin1.inl
; File D:\git\src\IBK\IBK_DRFN\ProjSrc\SrcDrfn\Chart\INDEXOPTIMIZER\Control\XTabCtrl.cpp
; File C:\Program Files (x86)\Microsoft Visual Studio\2019\Community\VC\Tools\MSVC\14.29.30133\atlmfc\include\atltypes.h
; File D:\git\src\IBK\IBK_DRFN\ProjSrc\SrcDrfn\Chart\INDEXOPTIMIZER\Control\XTabCtrl.cpp
; File C:\Program Files (x86)\Microsoft Visual Studio\2019\Community\VC\Tools\MSVC\14.29.30133\atlmfc\include\atlsimpstr.h
; File C:\Program Files (x86)\Microsoft Visual Studio\2019\Community\VC\Tools\MSVC\14.29.30133\atlmfc\include\afxwin1.inl
; File D:\git\src\IBK\IBK_DRFN\ProjSrc\SrcDrfn\Chart\INDEXOPTIMIZER\Control\XTabCtrl.cpp
; File C:\Program Files (x86)\Microsoft Visual Studio\2019\Community\VC\Tools\MSVC\14.29.30133\atlmfc\include\afxwin1.inl
; File D:\git\src\IBK\IBK_DRFN\ProjSrc\SrcDrfn\Chart\INDEXOPTIMIZER\Control\XTabCtrl.cpp
; File C:\Program Files (x86)\Microsoft Visual Studio\2019\Community\VC\Tools\MSVC\14.29.30133\atlmfc\include\afxtempl.h
; File D:\git\src\IBK\IBK_DRFN\ProjSrc\SrcDrfn\Chart\INDEXOPTIMIZER\Control\XTabCtrl.cpp
;	COMDAT ?DrawItem@CXTabCtrl@@MAEXPAUtagDRAWITEMSTRUCT@@@Z
_TEXT	SEGMENT
_item$ = -256						; size = 28
_pt$ = -228						; size = 8
_nSavedDC$1$ = -220					; size = 4
_this$GSCopy$1$ = -216					; size = 4
_size$4 = -212						; size = 8
_fStep$1$ = -208					; size = 4
tv1025 = -204						; size = 4
_b$2$ = -200						; size = 4
_lpDrawItemStruct$GSCopy$1$ = -196			; size = 4
tv1029 = -196						; size = 4
_bStep$1$ = -192					; size = 4
tv1031 = -192						; size = 4
_nTabIndex$1$ = -188					; size = 4
_crNormal$1$ = -184					; size = 4
$T5 = -184						; size = 4
_r$2$ = -180						; size = 4
tv1034 = -180						; size = 4
tv1023 = -180						; size = 4
_g$1$ = -176						; size = 4
_pImageList$1$ = -176					; size = 4
_gStep$1$ = -172					; size = 4
_crSelected$1$ = -172					; size = 4
tv1030 = -172						; size = 4
_rStep$1$ = -168					; size = 4
_r$1$ = -168						; size = 4
_crDisabled$1$ = -168					; size = 4
_b$1$ = -164						; size = 4
$T6 = -164						; size = 4
$T7 = -164						; size = 4
_rect$ = -160						; size = 16
_info$8 = -144						; size = 32
_backup$9 = -128					; size = 16
_rectItem$ = -112					; size = 16
_rect$ = -96						; size = 16
_ImageRect$10 = -96					; size = 16
_label$ = -80						; size = 64
__$ArrayPad$ = -16					; size = 4
__$EHRec$ = -12						; size = 12
_lpDrawItemStruct$ = 8					; size = 4
?DrawItem@CXTabCtrl@@MAEXPAUtagDRAWITEMSTRUCT@@@Z PROC	; CXTabCtrl::DrawItem, COMDAT
; _this$ = ecx

; 295  : {	

  00000	55		 push	 ebp
  00001	8b ec		 mov	 ebp, esp
  00003	6a ff		 push	 -1
  00005	68 00 00 00 00	 push	 __ehhandler$?DrawItem@CXTabCtrl@@MAEXPAUtagDRAWITEMSTRUCT@@@Z
  0000a	64 a1 00 00 00
	00		 mov	 eax, DWORD PTR fs:0
  00010	50		 push	 eax
  00011	81 ec f4 00 00
	00		 sub	 esp, 244		; 000000f4H
  00017	a1 00 00 00 00	 mov	 eax, DWORD PTR ___security_cookie
  0001c	33 c5		 xor	 eax, ebp
  0001e	89 45 f0	 mov	 DWORD PTR __$ArrayPad$[ebp], eax
  00021	56		 push	 esi
  00022	57		 push	 edi
  00023	50		 push	 eax
  00024	8d 45 f4	 lea	 eax, DWORD PTR __$EHRec$[ebp]
  00027	64 a3 00 00 00
	00		 mov	 DWORD PTR fs:0, eax
  0002d	8b f9		 mov	 edi, ecx
  0002f	89 bd 28 ff ff
	ff		 mov	 DWORD PTR _this$GSCopy$1$[ebp], edi
  00035	8b 75 08	 mov	 esi, DWORD PTR _lpDrawItemStruct$[ebp]
  00038	89 b5 3c ff ff
	ff		 mov	 DWORD PTR _lpDrawItemStruct$GSCopy$1$[ebp], esi

; 296  : 	CRect rect = lpDrawItemStruct->rcItem;

  0003e	8d 46 1c	 lea	 eax, DWORD PTR [esi+28]
; File C:\Program Files (x86)\Microsoft Visual Studio\2019\Community\VC\Tools\MSVC\14.29.30133\atlmfc\include\atltypes.h

; 548  : 	::CopyRect(this, &srcRect);

  00041	50		 push	 eax
  00042	8d 85 60 ff ff
	ff		 lea	 eax, DWORD PTR _rect$[ebp]
  00048	50		 push	 eax
  00049	ff 15 00 00 00
	00		 call	 DWORD PTR __imp__CopyRect@8
; File D:\git\src\IBK\IBK_DRFN\ProjSrc\SrcDrfn\Chart\INDEXOPTIMIZER\Control\XTabCtrl.cpp

; 297  : 	rect.top += ::GetSystemMetrics(SM_CYEDGE);

  0004f	6a 2e		 push	 46			; 0000002eH
  00051	ff 15 00 00 00
	00		 call	 DWORD PTR __imp__GetSystemMetrics@4

; 298  : 	rect.bottom += 1;
; 299  : 
; 300  : 	int nTabIndex = lpDrawItemStruct->itemID;

  00057	8b 76 08	 mov	 esi, DWORD PTR [esi+8]
  0005a	01 85 64 ff ff
	ff		 add	 DWORD PTR _rect$[ebp+4], eax
  00060	ff 85 6c ff ff
	ff		 inc	 DWORD PTR _rect$[ebp+12]
  00066	89 b5 44 ff ff
	ff		 mov	 DWORD PTR _nTabIndex$1$[ebp], esi

; 301  : 	
; 302  : 	if (nTabIndex < 0) return;

  0006c	85 f6		 test	 esi, esi
  0006e	0f 88 53 05 00
	00		 js	 $LN1@DrawItem
; File C:\Program Files (x86)\Microsoft Visual Studio\2019\Community\VC\Tools\MSVC\14.29.30133\atlmfc\include\afxcmn.inl

; 586  : 	{ ASSERT(::IsWindow(m_hWnd)); return (int)::SendMessage(m_hWnd, TCM_GETCURSEL, 0, 0L); }

  00074	6a 00		 push	 0
  00076	6a 00		 push	 0
  00078	68 0b 13 00 00	 push	 4875			; 0000130bH
  0007d	ff 77 20	 push	 DWORD PTR [edi+32]
  00080	ff 15 00 00 00
	00		 call	 DWORD PTR __imp__SendMessageA@16
; File D:\git\src\IBK\IBK_DRFN\ProjSrc\SrcDrfn\Chart\INDEXOPTIMIZER\Control\XTabCtrl.cpp

; 304  : 	BOOL bSelected = (nTabIndex == GetCurSel());

  00086	33 c9		 xor	 ecx, ecx
  00088	3b f0		 cmp	 esi, eax

; 305  : 
; 306  : 	COLORREF crSelected = m_bColorSelected ? m_crSelected : GetSysColor(COLOR_BTNTEXT);

  0008a	a1 00 00 00 00	 mov	 eax, DWORD PTR __imp__GetSysColor@4
  0008f	0f 94 c1	 sete	 cl
  00092	80 bf cc 00 00
	00 00		 cmp	 BYTE PTR [edi+204], 0
  00099	89 8d 4c ff ff
	ff		 mov	 DWORD PTR tv1034[ebp], ecx
  0009f	74 0e		 je	 SHORT $LN14@DrawItem
  000a1	8b 8f b0 00 00
	00		 mov	 ecx, DWORD PTR [edi+176]
  000a7	89 8d 54 ff ff
	ff		 mov	 DWORD PTR _crSelected$1$[ebp], ecx
  000ad	eb 0f		 jmp	 SHORT $LN15@DrawItem
$LN14@DrawItem:
  000af	6a 12		 push	 18			; 00000012H
  000b1	ff d0		 call	 eax
  000b3	89 85 54 ff ff
	ff		 mov	 DWORD PTR _crSelected$1$[ebp], eax
  000b9	a1 00 00 00 00	 mov	 eax, DWORD PTR __imp__GetSysColor@4
$LN15@DrawItem:

; 307  : 	COLORREF crNormal  = m_bColorNormal   ? m_crNormal   : GetSysColor(COLOR_BTNTEXT);

  000be	80 bf ca 00 00
	00 00		 cmp	 BYTE PTR [edi+202], 0
  000c5	74 08		 je	 SHORT $LN16@DrawItem
  000c7	8b 87 b8 00 00
	00		 mov	 eax, DWORD PTR [edi+184]
  000cd	eb 04		 jmp	 SHORT $LN121@DrawItem
$LN16@DrawItem:
  000cf	6a 12		 push	 18			; 00000012H
  000d1	ff d0		 call	 eax
$LN121@DrawItem:

; 308  : 	COLORREF crDisabled = m_bColorDisabled ? m_crDisabled : GetSysColor(COLOR_GRAYTEXT);

  000d3	80 bf cb 00 00
	00 00		 cmp	 BYTE PTR [edi+203], 0
  000da	89 85 48 ff ff
	ff		 mov	 DWORD PTR _crNormal$1$[ebp], eax
  000e0	74 08		 je	 SHORT $LN18@DrawItem
  000e2	8b 87 b4 00 00
	00		 mov	 eax, DWORD PTR [edi+180]
  000e8	eb 08		 jmp	 SHORT $LN122@DrawItem
$LN18@DrawItem:
  000ea	6a 11		 push	 17			; 00000011H
  000ec	ff 15 00 00 00
	00		 call	 DWORD PTR __imp__GetSysColor@4
$LN122@DrawItem:

; 312  : 	item.mask = TCIF_TEXT|TCIF_IMAGE;

  000f2	89 85 58 ff ff
	ff		 mov	 DWORD PTR _crDisabled$1$[ebp], eax

; 313  : 	item.pszText = label;     

  000f8	8d 45 b0	 lea	 eax, DWORD PTR _label$[ebp]
  000fb	89 85 0c ff ff
	ff		 mov	 DWORD PTR _item$[ebp+12], eax
; File C:\Program Files (x86)\Microsoft Visual Studio\2019\Community\VC\Tools\MSVC\14.29.30133\atlmfc\include\afxcmn.inl

; 566  : 	{ ASSERT(::IsWindow(m_hWnd)); return (BOOL)::SendMessage(m_hWnd, TCM_GETITEM, nItem, (LPARAM)pTabCtrlItem); }

  00101	8d 85 00 ff ff
	ff		 lea	 eax, DWORD PTR _item$[ebp]
  00107	50		 push	 eax
  00108	56		 push	 esi
  00109	68 05 13 00 00	 push	 4869			; 00001305H
  0010e	ff 77 20	 push	 DWORD PTR [edi+32]
; File D:\git\src\IBK\IBK_DRFN\ProjSrc\SrcDrfn\Chart\INDEXOPTIMIZER\Control\XTabCtrl.cpp

; 312  : 	item.mask = TCIF_TEXT|TCIF_IMAGE;

  00111	c7 85 00 ff ff
	ff 03 00 00 00	 mov	 DWORD PTR _item$[ebp], 3

; 314  : 	item.cchTextMax = 63;    	

  0011b	c7 85 10 ff ff
	ff 3f 00 00 00	 mov	 DWORD PTR _item$[ebp+16], 63 ; 0000003fH
; File C:\Program Files (x86)\Microsoft Visual Studio\2019\Community\VC\Tools\MSVC\14.29.30133\atlmfc\include\afxcmn.inl

; 566  : 	{ ASSERT(::IsWindow(m_hWnd)); return (BOOL)::SendMessage(m_hWnd, TCM_GETITEM, nItem, (LPARAM)pTabCtrlItem); }

  00125	ff 15 00 00 00
	00		 call	 DWORD PTR __imp__SendMessageA@16
; File D:\git\src\IBK\IBK_DRFN\ProjSrc\SrcDrfn\Chart\INDEXOPTIMIZER\Control\XTabCtrl.cpp

; 315  : 	if (!GetItem(nTabIndex, &item))

  0012b	85 c0		 test	 eax, eax
  0012d	0f 84 94 04 00
	00		 je	 $LN1@DrawItem

; 316  : 		return;
; 317  : 
; 318  : 	CDC* pDC = CDC::FromHandle(lpDrawItemStruct->hDC);

  00133	8b 85 3c ff ff
	ff		 mov	 eax, DWORD PTR _lpDrawItemStruct$GSCopy$1$[ebp]
  00139	ff 70 18	 push	 DWORD PTR [eax+24]
  0013c	e8 00 00 00 00	 call	 ?FromHandle@CDC@@SGPAV1@PAUHDC__@@@Z ; CDC::FromHandle
  00141	8b f0		 mov	 esi, eax

; 319  : 	if (!pDC)

  00143	85 f6		 test	 esi, esi
  00145	0f 84 7c 04 00
	00		 je	 $LN1@DrawItem

; 320  : 		return;
; 321  : 
; 322  : 	int nSavedDC = pDC->SaveDC();

  0014b	8b 16		 mov	 edx, DWORD PTR [esi]
  0014d	8b ce		 mov	 ecx, esi
  0014f	8b 52 24	 mov	 edx, DWORD PTR [edx+36]
  00152	ff d2		 call	 edx
  00154	89 85 24 ff ff
	ff		 mov	 DWORD PTR _nSavedDC$1$[ebp], eax
  0015a	0f 57 c0	 xorps	 xmm0, xmm0
; File C:\Program Files (x86)\Microsoft Visual Studio\2019\Community\VC\Tools\MSVC\14.29.30133\atlmfc\include\afxcmn.inl

; 584  : 	{ ASSERT(::IsWindow(m_hWnd)); return (BOOL)::SendMessage(m_hWnd, TCM_GETITEMRECT, nItem, (LPARAM)lpRect); }

  0015d	8d 45 90	 lea	 eax, DWORD PTR _rectItem$[ebp]
  00160	50		 push	 eax
  00161	ff b5 44 ff ff
	ff		 push	 DWORD PTR _nTabIndex$1$[ebp]
; File C:\Program Files (x86)\Microsoft Visual Studio\2019\Community\VC\Tools\MSVC\14.29.30133\atlmfc\include\atltypes.h

; 528  : 	left = 0;

  00167	0f 11 45 90	 movups	 XMMWORD PTR _rectItem$[ebp], xmm0
; File C:\Program Files (x86)\Microsoft Visual Studio\2019\Community\VC\Tools\MSVC\14.29.30133\atlmfc\include\afxcmn.inl

; 584  : 	{ ASSERT(::IsWindow(m_hWnd)); return (BOOL)::SendMessage(m_hWnd, TCM_GETITEMRECT, nItem, (LPARAM)lpRect); }

  0016b	68 0a 13 00 00	 push	 4874			; 0000130aH
  00170	ff 77 20	 push	 DWORD PTR [edi+32]
  00173	ff 15 00 00 00
	00		 call	 DWORD PTR __imp__SendMessageA@16
; File D:\git\src\IBK\IBK_DRFN\ProjSrc\SrcDrfn\Chart\INDEXOPTIMIZER\Control\XTabCtrl.cpp

; 328  : 	GetCursorPos(&pt);

  00179	8d 85 1c ff ff
	ff		 lea	 eax, DWORD PTR _pt$[ebp]
  0017f	50		 push	 eax
  00180	ff 15 00 00 00
	00		 call	 DWORD PTR __imp__GetCursorPos@4
; File C:\Program Files (x86)\Microsoft Visual Studio\2019\Community\VC\Tools\MSVC\14.29.30133\atlmfc\include\afxwin2.inl

; 94   : 	{ ASSERT(::IsWindow(m_hWnd)); ::ScreenToClient(m_hWnd, lpPoint); }

  00186	8d 85 1c ff ff
	ff		 lea	 eax, DWORD PTR _pt$[ebp]
  0018c	50		 push	 eax
  0018d	ff 77 20	 push	 DWORD PTR [edi+32]
  00190	ff 15 00 00 00
	00		 call	 DWORD PTR __imp__ScreenToClient@8
; File C:\Program Files (x86)\Microsoft Visual Studio\2019\Community\VC\Tools\MSVC\14.29.30133\atlmfc\include\atltypes.h

; 648  : 	return ::PtInRect(this, point);

  00196	ff b5 20 ff ff
	ff		 push	 DWORD PTR _pt$[ebp+4]
  0019c	8d 45 90	 lea	 eax, DWORD PTR _rectItem$[ebp]
  0019f	ff b5 1c ff ff
	ff		 push	 DWORD PTR _pt$[ebp]
  001a5	50		 push	 eax
  001a6	ff 15 00 00 00
	00		 call	 DWORD PTR __imp__PtInRect@12
; File D:\git\src\IBK\IBK_DRFN\ProjSrc\SrcDrfn\Chart\INDEXOPTIMIZER\Control\XTabCtrl.cpp

; 331  : 	if (rectItem.PtInRect(pt))

  001ac	85 c0		 test	 eax, eax
  001ae	74 0c		 je	 SHORT $LN118@DrawItem

; 332  : 		m_iIndexMouseOver = nTabIndex;

  001b0	8b 85 44 ff ff
	ff		 mov	 eax, DWORD PTR _nTabIndex$1$[ebp]
  001b6	89 87 c4 00 00
	00		 mov	 DWORD PTR [edi+196], eax
$LN118@DrawItem:

; 333  : 
; 334  : 	pDC->SetBkMode(TRANSPARENT);

  001bc	6a 01		 push	 1
  001be	8b ce		 mov	 ecx, esi
  001c0	e8 00 00 00 00	 call	 ?SetBkMode@CDC@@QAEHH@Z	; CDC::SetBkMode
; File C:\Program Files (x86)\Microsoft Visual Studio\2019\Community\VC\Tools\MSVC\14.29.30133\atlmfc\include\afxcmn.inl

; 560  : 	{ ASSERT(::IsWindow(m_hWnd)); return CImageList::FromHandle((HIMAGELIST)::SendMessage(m_hWnd, TCM_GETIMAGELIST, 0, 0L)); }

  001c5	6a 00		 push	 0
  001c7	6a 00		 push	 0
  001c9	68 02 13 00 00	 push	 4866			; 00001302H
  001ce	ff 77 20	 push	 DWORD PTR [edi+32]
  001d1	ff 15 00 00 00
	00		 call	 DWORD PTR __imp__SendMessageA@16
  001d7	50		 push	 eax
  001d8	e8 00 00 00 00	 call	 ?FromHandle@CImageList@@SGPAV1@PAU_IMAGELIST@@@Z ; CImageList::FromHandle
; File D:\git\src\IBK\IBK_DRFN\ProjSrc\SrcDrfn\Chart\INDEXOPTIMIZER\Control\XTabCtrl.cpp

; 337  : 	CImageList* pImageList = GetImageList();

  001dd	89 85 50 ff ff
	ff		 mov	 DWORD PTR _pImageList$1$[ebp], eax

; 338  : 	if (pImageList && item.iImage >= 0) 

  001e3	85 c0		 test	 eax, eax
  001e5	0f 84 ac 00 00
	00		 je	 $LN6@DrawItem
  001eb	83 bd 14 ff ff
	ff 00		 cmp	 DWORD PTR _item$[ebp+20], 0
  001f2	0f 8c 9f 00 00
	00		 jl	 $LN6@DrawItem

; 340  : 		rect.left += pDC->GetTextExtent(_T(" ")).cx;

  001f8	68 00 00 00 00	 push	 OFFSET ??_C@_01CLKCMJKC@?5@
  001fd	8d 8d 5c ff ff
	ff		 lea	 ecx, DWORD PTR $T7[ebp]
  00203	ff 15 00 00 00
	00		 call	 DWORD PTR __imp_??0?$CStringT@DV?$StrTraitMFC_DLL@DV?$ChTraitsCRT@D@ATL@@@@@ATL@@QAE@PBD@Z
; File C:\Program Files (x86)\Microsoft Visual Studio\2019\Community\VC\Tools\MSVC\14.29.30133\atlmfc\include\atlsimpstr.h

; 519  : 		return( GetData()->nDataLength );

  00209	8b 85 5c ff ff
	ff		 mov	 eax, DWORD PTR $T7[ebp]
; File C:\Program Files (x86)\Microsoft Visual Studio\2019\Community\VC\Tools\MSVC\14.29.30133\atlmfc\include\afxwin1.inl

; 639  : 		VERIFY(::GetTextExtentPoint32(m_hAttribDC, str, (int)str.GetLength(), &size));

  0020f	8d 8d 2c ff ff
	ff		 lea	 ecx, DWORD PTR _size$4[ebp]
  00215	51		 push	 ecx
  00216	ff 70 f4	 push	 DWORD PTR [eax-12]
  00219	50		 push	 eax
  0021a	ff 76 08	 push	 DWORD PTR [esi+8]
  0021d	ff 15 00 00 00
	00		 call	 DWORD PTR __imp__GetTextExtentPoint32A@16
; File D:\git\src\IBK\IBK_DRFN\ProjSrc\SrcDrfn\Chart\INDEXOPTIMIZER\Control\XTabCtrl.cpp

; 340  : 		rect.left += pDC->GetTextExtent(_T(" ")).cx;

  00223	8b 85 2c ff ff
	ff		 mov	 eax, DWORD PTR _size$4[ebp]
  00229	8d 8d 5c ff ff
	ff		 lea	 ecx, DWORD PTR $T7[ebp]
  0022f	01 85 60 ff ff
	ff		 add	 DWORD PTR _rect$[ebp], eax
  00235	ff 15 00 00 00
	00		 call	 DWORD PTR __imp_??1?$CStringT@DV?$StrTraitMFC_DLL@DV?$ChTraitsCRT@D@ATL@@@@@ATL@@QAE@XZ
; File C:\Program Files (x86)\Microsoft Visual Studio\2019\Community\VC\Tools\MSVC\14.29.30133\atlmfc\include\afxwin1.inl

; 881  : 	{ ASSERT(m_hImageList != NULL); return ImageList_GetImageInfo(m_hImageList, nImage, pImageInfo); }

  0023b	8d 85 70 ff ff
	ff		 lea	 eax, DWORD PTR _info$8[ebp]
  00241	50		 push	 eax
  00242	8b 85 50 ff ff
	ff		 mov	 eax, DWORD PTR _pImageList$1$[ebp]
  00248	ff b5 14 ff ff
	ff		 push	 DWORD PTR _item$[ebp+20]
  0024e	ff 70 04	 push	 DWORD PTR [eax+4]
  00251	ff 15 00 00 00
	00		 call	 DWORD PTR __imp__ImageList_GetImageInfo@12
; File C:\Program Files (x86)\Microsoft Visual Studio\2019\Community\VC\Tools\MSVC\14.29.30133\atlmfc\include\atltypes.h

; 548  : 	::CopyRect(this, &srcRect);

  00257	8d 45 80	 lea	 eax, DWORD PTR _info$8[ebp+16]
  0025a	50		 push	 eax
  0025b	8d 45 a0	 lea	 eax, DWORD PTR _ImageRect$10[ebp]
  0025e	50		 push	 eax
  0025f	ff 15 00 00 00
	00		 call	 DWORD PTR __imp__CopyRect@8
; File C:\Program Files (x86)\Microsoft Visual Studio\2019\Community\VC\Tools\MSVC\14.29.30133\atlmfc\include\afxwin1.inl

; 871  : 	{ ASSERT(m_hImageList != NULL); ASSERT(pDC != NULL); return ImageList_Draw(m_hImageList, nImage, pDC->GetSafeHdc(), pt.x, pt.y, nStyle); }

  00265	8b 85 50 ff ff
	ff		 mov	 eax, DWORD PTR _pImageList$1$[ebp]
  0026b	6a 01		 push	 1
  0026d	ff b5 64 ff ff
	ff		 push	 DWORD PTR _rect$[ebp+4]
  00273	ff b5 60 ff ff
	ff		 push	 DWORD PTR _rect$[ebp]
  00279	ff 76 04	 push	 DWORD PTR [esi+4]
  0027c	ff b5 14 ff ff
	ff		 push	 DWORD PTR _item$[ebp+20]
  00282	ff 70 04	 push	 DWORD PTR [eax+4]
  00285	ff 15 00 00 00
	00		 call	 DWORD PTR __imp__ImageList_Draw@24
; File D:\git\src\IBK\IBK_DRFN\ProjSrc\SrcDrfn\Chart\INDEXOPTIMIZER\Control\XTabCtrl.cpp

; 347  : 		rect.left += ImageRect.Width();

  0028b	8b 45 a8	 mov	 eax, DWORD PTR _ImageRect$10[ebp+8]
  0028e	2b 45 a0	 sub	 eax, DWORD PTR _ImageRect$10[ebp]
  00291	01 85 60 ff ff
	ff		 add	 DWORD PTR _rect$[ebp], eax
$LN6@DrawItem:
; File C:\Program Files (x86)\Microsoft Visual Studio\2019\Community\VC\Tools\MSVC\14.29.30133\atlmfc\include\afxtempl.h

; 321  : 	if(nIndex >= 0 && nIndex < m_nSize)

  00297	8b 8d 44 ff ff
	ff		 mov	 ecx, DWORD PTR _nTabIndex$1$[ebp]
  0029d	3b 8f 94 00 00
	00		 cmp	 ecx, DWORD PTR [edi+148]
  002a3	0f 8d 3b 03 00
	00		 jge	 $LN68@DrawItem

; 322  : 		return m_pData[nIndex];

  002a9	8b 87 90 00 00
	00		 mov	 eax, DWORD PTR [edi+144]
; File D:\git\src\IBK\IBK_DRFN\ProjSrc\SrcDrfn\Chart\INDEXOPTIMIZER\Control\XTabCtrl.cpp

; 350  : 	if (!IsTabEnabled(nTabIndex))

  002af	83 3c 88 00	 cmp	 DWORD PTR [eax+ecx*4], 0
  002b3	75 49		 jne	 SHORT $LN7@DrawItem

; 351  : 	{
; 352  : 		pDC->SetTextColor(crDisabled);

  002b5	8b 06		 mov	 eax, DWORD PTR [esi]
  002b7	8b ce		 mov	 ecx, esi
  002b9	ff b5 58 ff ff
	ff		 push	 DWORD PTR _crDisabled$1$[ebp]
  002bf	ff 50 38	 call	 DWORD PTR [eax+56]

; 354  : 		pDC->DrawText(label, rect, DT_SINGLELINE|DT_VCENTER|DT_CENTER);

  002c2	8d 45 b0	 lea	 eax, DWORD PTR _label$[ebp]
  002c5	50		 push	 eax
  002c6	8d 8d 5c ff ff
	ff		 lea	 ecx, DWORD PTR $T6[ebp]
  002cc	ff 15 00 00 00
	00		 call	 DWORD PTR __imp_??0?$CStringT@DV?$StrTraitMFC_DLL@DV?$ChTraitsCRT@D@ATL@@@@@ATL@@QAE@PBD@Z
; File C:\Program Files (x86)\Microsoft Visual Studio\2019\Community\VC\Tools\MSVC\14.29.30133\atlmfc\include\atlsimpstr.h

; 519  : 		return( GetData()->nDataLength );

  002d2	8b 85 5c ff ff
	ff		 mov	 eax, DWORD PTR $T6[ebp]
; File C:\Program Files (x86)\Microsoft Visual Studio\2019\Community\VC\Tools\MSVC\14.29.30133\atlmfc\include\afxwin1.inl

; 600  : 		return _AFX_FUNCNAME(DrawText)((LPCTSTR)str, (int)str.GetLength(), lpRect, nFormat); }

  002d8	8d 8d 60 ff ff
	ff		 lea	 ecx, DWORD PTR _rect$[ebp]
  002de	8b 16		 mov	 edx, DWORD PTR [esi]
  002e0	6a 25		 push	 37			; 00000025H
  002e2	51		 push	 ecx
  002e3	ff 70 f4	 push	 DWORD PTR [eax-12]
  002e6	8b ce		 mov	 ecx, esi
; File D:\git\src\IBK\IBK_DRFN\ProjSrc\SrcDrfn\Chart\INDEXOPTIMIZER\Control\XTabCtrl.cpp

; 354  : 		pDC->DrawText(label, rect, DT_SINGLELINE|DT_VCENTER|DT_CENTER);

  002e8	c7 45 fc 00 00
	00 00		 mov	 DWORD PTR __$EHRec$[ebp+8], 0
; File C:\Program Files (x86)\Microsoft Visual Studio\2019\Community\VC\Tools\MSVC\14.29.30133\atlmfc\include\afxwin1.inl

; 600  : 		return _AFX_FUNCNAME(DrawText)((LPCTSTR)str, (int)str.GetLength(), lpRect, nFormat); }

  002ef	50		 push	 eax
  002f0	ff 52 70	 call	 DWORD PTR [edx+112]
; File D:\git\src\IBK\IBK_DRFN\ProjSrc\SrcDrfn\Chart\INDEXOPTIMIZER\Control\XTabCtrl.cpp

; 354  : 		pDC->DrawText(label, rect, DT_SINGLELINE|DT_VCENTER|DT_CENTER);

  002f3	8d 8d 5c ff ff
	ff		 lea	 ecx, DWORD PTR $T6[ebp]

; 355  : 	}

  002f9	e9 af 02 00 00	 jmp	 $LN123@DrawItem
$LN7@DrawItem:

; 356  : 	else
; 357  : 	{
; 358  : 		//** selected item -----
; 359  : 		if (bSelected)

  002fe	83 bd 4c ff ff
	ff 00		 cmp	 DWORD PTR tv1034[ebp], 0
  00305	74 26		 je	 SHORT $LN9@DrawItem

; 360  : 		{
; 361  : 			rect.bottom -= 2;
; 362  : 			pDC->FillSolidRect(rect, m_clSelTabBK);

  00307	ff b7 ac 00 00
	00		 push	 DWORD PTR [edi+172]
  0030d	83 ad 6c ff ff
	ff 02		 sub	 DWORD PTR _rect$[ebp+12], 2
  00314	8d 85 60 ff ff
	ff		 lea	 eax, DWORD PTR _rect$[ebp]
  0031a	50		 push	 eax
  0031b	8b ce		 mov	 ecx, esi
  0031d	e8 00 00 00 00	 call	 ?FillSolidRect@CDC@@QAEXPBUtagRECT@@K@Z ; CDC::FillSolidRect

; 363  : 			pDC->SetTextColor(crSelected);

  00322	ff b5 54 ff ff
	ff		 push	 DWORD PTR _crSelected$1$[ebp]

; 364  : 		}

  00328	e9 42 02 00 00	 jmp	 $LN124@DrawItem
$LN9@DrawItem:

; 387  : 	Start = m_clNormalTabStart;

  0032d	8b 87 f4 00 00
	00		 mov	 eax, DWORD PTR [edi+244]

; 388  : 	End   = m_clNormalTabEnd;

  00333	8b 8f f8 00 00
	00		 mov	 ecx, DWORD PTR [edi+248]

; 391  : 		
; 392  : 	int r,g,b;// 3   ..
; 393  : 	float rStep, gStep, bStep;// 3    ..
; 394  : 	float fStep;//      ..
; 395  : 
; 396  : 	//   ..
; 397  : 	r = (GetRValue(End) - GetRValue(Start));

  00339	0f b6 d0	 movzx	 edx, al
  0033c	89 95 4c ff ff
	ff		 mov	 DWORD PTR _r$2$[ebp], edx
  00342	0f b6 d1	 movzx	 edx, cl
  00345	2b 95 4c ff ff
	ff		 sub	 edx, DWORD PTR _r$2$[ebp]
  0034b	89 95 58 ff ff
	ff		 mov	 DWORD PTR _r$1$[ebp], edx

; 398  : 	g = (GetGValue(End) - GetGValue(Start));

  00351	0f b7 d0	 movzx	 edx, ax
  00354	c1 ea 08	 shr	 edx, 8

; 399  : 	b = (GetBValue(End) - GetBValue(Start));

  00357	c1 e8 10	 shr	 eax, 16			; 00000010H
  0035a	89 95 3c ff ff
	ff		 mov	 DWORD PTR tv1029[ebp], edx
  00360	0f b7 d1	 movzx	 edx, cx
  00363	c1 ea 08	 shr	 edx, 8
  00366	2b 95 3c ff ff
	ff		 sub	 edx, DWORD PTR tv1029[ebp]
  0036c	89 95 50 ff ff
	ff		 mov	 DWORD PTR _g$1$[ebp], edx
  00372	0f b6 d0	 movzx	 edx, al
  00375	c1 e9 10	 shr	 ecx, 16			; 00000010H
  00378	0f b6 c1	 movzx	 eax, cl
  0037b	2b c2		 sub	 eax, edx
  0037d	89 95 38 ff ff
	ff		 mov	 DWORD PTR _b$2$[ebp], edx
  00383	89 85 5c ff ff
	ff		 mov	 DWORD PTR _b$1$[ebp], eax

; 400  : 
; 401  : 	//   ..
; 402  : 	int Max = max( abs(r), max(abs(g), abs(b)) );

  00389	99		 cdq
  0038a	33 c2		 xor	 eax, edx
  0038c	2b c2		 sub	 eax, edx
  0038e	89 85 40 ff ff
	ff		 mov	 DWORD PTR tv1031[ebp], eax
  00394	8b 85 50 ff ff
	ff		 mov	 eax, DWORD PTR _g$1$[ebp]

; 365  : 		else //** other item ---
; 366  : 		{
; 367  : 			DrawGradientTab(pDC, rect);			

  0039a	0f 10 85 60 ff
	ff ff		 movups	 xmm0, XMMWORD PTR _rect$[ebp]

; 402  : 	int Max = max( abs(r), max(abs(g), abs(b)) );

  003a1	99		 cdq
  003a2	33 c2		 xor	 eax, edx
  003a4	2b c2		 sub	 eax, edx
  003a6	89 85 54 ff ff
	ff		 mov	 DWORD PTR tv1030[ebp], eax
  003ac	8b c8		 mov	 ecx, eax
  003ae	3b 8d 40 ff ff
	ff		 cmp	 ecx, DWORD PTR tv1031[ebp]
  003b4	8b 85 50 ff ff
	ff		 mov	 eax, DWORD PTR _g$1$[ebp]
  003ba	0f 4e 85 5c ff
	ff ff		 cmovle	 eax, DWORD PTR _b$1$[ebp]
  003c1	99		 cdq
  003c2	8b c8		 mov	 ecx, eax
  003c4	8b 85 58 ff ff
	ff		 mov	 eax, DWORD PTR _r$1$[ebp]
  003ca	33 ca		 xor	 ecx, edx
  003cc	2b ca		 sub	 ecx, edx
  003ce	99		 cdq
  003cf	33 c2		 xor	 eax, edx
  003d1	2b c2		 sub	 eax, edx

; 365  : 		else //** other item ---
; 366  : 		{
; 367  : 			DrawGradientTab(pDC, rect);			

  003d3	0f 11 45 a0	 movups	 XMMWORD PTR _rect$[ebp], xmm0

; 390  : 	CRect backup = rect;

  003d7	0f 11 45 80	 movups	 XMMWORD PTR _backup$9[ebp], xmm0

; 400  : 
; 401  : 	//   ..
; 402  : 	int Max = max( abs(r), max(abs(g), abs(b)) );

  003db	3b c1		 cmp	 eax, ecx
  003dd	7e 08		 jle	 SHORT $LN90@DrawItem
  003df	8b 85 58 ff ff
	ff		 mov	 eax, DWORD PTR _r$1$[ebp]
  003e5	eb 19		 jmp	 SHORT $LN88@DrawItem
$LN90@DrawItem:
  003e7	8b 8d 54 ff ff
	ff		 mov	 ecx, DWORD PTR tv1030[ebp]
  003ed	3b 8d 40 ff ff
	ff		 cmp	 ecx, DWORD PTR tv1031[ebp]
  003f3	8b 85 5c ff ff
	ff		 mov	 eax, DWORD PTR _b$1$[ebp]
  003f9	0f 4f 85 50 ff
	ff ff		 cmovg	 eax, DWORD PTR _g$1$[ebp]
$LN88@DrawItem:
  00400	66 0f 6e 95 58
	ff ff ff	 movd	 xmm2, DWORD PTR _r$1$[ebp]
; File C:\Program Files (x86)\Microsoft Visual Studio\2019\Community\VC\Tools\MSVC\14.29.30133\atlmfc\include\atltypes.h

; 581  : 	return bottom - top;

  00408	99		 cdq
  00409	33 c2		 xor	 eax, edx
  0040b	8b 8d 6c ff ff
	ff		 mov	 ecx, DWORD PTR _rect$[ebp+12]
  00411	2b c2		 sub	 eax, edx
  00413	2b 8d 64 ff ff
	ff		 sub	 ecx, DWORD PTR _rect$[ebp+4]
  00419	89 85 34 ff ff
	ff		 mov	 DWORD PTR tv1025[ebp], eax
; File D:\git\src\IBK\IBK_DRFN\ProjSrc\SrcDrfn\Chart\INDEXOPTIMIZER\Control\XTabCtrl.cpp

; 408  : 	rStep = r/(float)Max;

  0041f	0f 5b d2	 cvtdq2ps xmm2, xmm2
  00422	66 0f 6e c0	 movd	 xmm0, eax
  00426	66 0f 6e c9	 movd	 xmm1, ecx

; 403  : 
; 404  : 	//    ..   ..
; 405  : 	fStep = (float)rect.Height()/(float)Max;     // - Gradation 

  0042a	0f 5b c0	 cvtdq2ps xmm0, xmm0
  0042d	0f 5b c9	 cvtdq2ps xmm1, xmm1

; 408  : 	rStep = r/(float)Max;

  00430	f3 0f 5e d0	 divss	 xmm2, xmm0
  00434	f3 0f 5e c8	 divss	 xmm1, xmm0
  00438	f3 0f 11 95 58
	ff ff ff	 movss	 DWORD PTR _rStep$1$[ebp], xmm2
  00440	66 0f 6e 95 50
	ff ff ff	 movd	 xmm2, DWORD PTR _g$1$[ebp]

; 403  : 
; 404  : 	//    ..   ..
; 405  : 	fStep = (float)rect.Height()/(float)Max;     // - Gradation 

  00448	f3 0f 11 8d 30
	ff ff ff	 movss	 DWORD PTR _fStep$1$[ebp], xmm1

; 409  : 	gStep = g/(float)Max;

  00450	0f 5b d2	 cvtdq2ps xmm2, xmm2
  00453	f3 0f 5e d0	 divss	 xmm2, xmm0
  00457	f3 0f 11 95 54
	ff ff ff	 movss	 DWORD PTR _gStep$1$[ebp], xmm2
  0045f	66 0f 6e 95 5c
	ff ff ff	 movd	 xmm2, DWORD PTR _b$1$[ebp]

; 410  : 	bStep = b/(float)Max;

  00467	0f 5b d2	 cvtdq2ps xmm2, xmm2
  0046a	f3 0f 5e d0	 divss	 xmm2, xmm0
  0046e	f3 0f 11 95 40
	ff ff ff	 movss	 DWORD PTR _bStep$1$[ebp], xmm2

; 411  : 
; 412  : 	//r,g,b   ...
; 413  : 	r = GetRValue(Start);
; 414  : 	g = GetGValue(Start);
; 415  : 	b = GetBValue(Start);
; 416  : 
; 417  : 	//   ..  .
; 418  : 	for(int iOnBand=0 ; iOnBand <Max; iOnBand++)  // - Gradation 

  00476	85 c0		 test	 eax, eax
  00478	0f 8e cc 00 00
	00		 jle	 $LN83@DrawItem
  0047e	66 0f 6e 85 4c
	ff ff ff	 movd	 xmm0, DWORD PTR _r$2$[ebp]
  00486	33 ff		 xor	 edi, edi
  00488	0f 5b c0	 cvtdq2ps xmm0, xmm0
  0048b	f3 0f 11 85 4c
	ff ff ff	 movss	 DWORD PTR tv1023[ebp], xmm0
$LL84@DrawItem:

; 419  : 	{
; 420  : 		::SetRect( &rect, rect.left, int(fStep*iOnBand) + backup.top ,

  00493	ff 75 8c	 push	 DWORD PTR _backup$9[ebp+12]
  00496	66 0f 6e c7	 movd	 xmm0, edi
  0049a	ff 75 a8	 push	 DWORD PTR _rect$[ebp+8]
  0049d	0f 5b c0	 cvtdq2ps xmm0, xmm0
  004a0	f3 0f 59 c1	 mulss	 xmm0, xmm1
  004a4	f3 0f 2c c0	 cvttss2si eax, xmm0
  004a8	03 45 84	 add	 eax, DWORD PTR _backup$9[ebp+4]
  004ab	50		 push	 eax
  004ac	ff 75 a0	 push	 DWORD PTR _rect$[ebp]
  004af	8d 45 a0	 lea	 eax, DWORD PTR _rect$[ebp]
  004b2	50		 push	 eax
  004b3	ff 15 00 00 00
	00		 call	 DWORD PTR __imp__SetRect@20
  004b9	66 0f 6e 95 38
	ff ff ff	 movd	 xmm2, DWORD PTR _b$2$[ebp]
  004c1	66 0f 6e cf	 movd	 xmm1, edi

; 421  : 		    rect.right, backup.bottom );  
; 422  : 		pDC->FillSolidRect( &rect,  RGB( r + rStep*iOnBand, g + gStep*iOnBand, b + bStep*iOnBand ) );

  004c5	0f 5b c9	 cvtdq2ps xmm1, xmm1
  004c8	0f 5b d2	 cvtdq2ps xmm2, xmm2
  004cb	0f 28 c1	 movaps	 xmm0, xmm1
  004ce	f3 0f 59 85 40
	ff ff ff	 mulss	 xmm0, DWORD PTR _bStep$1$[ebp]
  004d6	f3 0f 58 c2	 addss	 xmm0, xmm2
  004da	66 0f 6e 95 3c
	ff ff ff	 movd	 xmm2, DWORD PTR tv1029[ebp]
  004e2	0f 5b d2	 cvtdq2ps xmm2, xmm2
  004e5	f3 0f 2c c0	 cvttss2si eax, xmm0
  004e9	0f 28 c1	 movaps	 xmm0, xmm1
  004ec	f3 0f 59 8d 58
	ff ff ff	 mulss	 xmm1, DWORD PTR _rStep$1$[ebp]
  004f4	0f b6 c8	 movzx	 ecx, al
  004f7	f3 0f 59 85 54
	ff ff ff	 mulss	 xmm0, DWORD PTR _gStep$1$[ebp]
  004ff	c1 e1 08	 shl	 ecx, 8
  00502	f3 0f 58 8d 4c
	ff ff ff	 addss	 xmm1, DWORD PTR tv1023[ebp]
  0050a	f3 0f 58 c2	 addss	 xmm0, xmm2
  0050e	f3 0f 2c c0	 cvttss2si eax, xmm0
  00512	0f b6 c0	 movzx	 eax, al
  00515	0b c8		 or	 ecx, eax
  00517	f3 0f 2c c1	 cvttss2si eax, xmm1
  0051b	c1 e1 08	 shl	 ecx, 8
  0051e	0f b6 c0	 movzx	 eax, al
  00521	0b c8		 or	 ecx, eax
  00523	8d 45 a0	 lea	 eax, DWORD PTR _rect$[ebp]
  00526	51		 push	 ecx
  00527	50		 push	 eax
  00528	8b ce		 mov	 ecx, esi
  0052a	e8 00 00 00 00	 call	 ?FillSolidRect@CDC@@QAEXPBUtagRECT@@K@Z ; CDC::FillSolidRect
  0052f	f3 0f 10 8d 30
	ff ff ff	 movss	 xmm1, DWORD PTR _fStep$1$[ebp]
  00537	47		 inc	 edi
  00538	3b bd 34 ff ff
	ff		 cmp	 edi, DWORD PTR tv1025[ebp]
  0053e	0f 8c 4f ff ff
	ff		 jl	 $LL84@DrawItem
  00544	8b bd 28 ff ff
	ff		 mov	 edi, DWORD PTR _this$GSCopy$1$[ebp]
$LN83@DrawItem:

; 368  : 			if (m_bColorMouseOver && nTabIndex == m_iIndexMouseOver) 

  0054a	80 bf c9 00 00
	00 00		 cmp	 BYTE PTR [edi+201], 0
  00551	74 16		 je	 SHORT $LN11@DrawItem
  00553	8b 85 44 ff ff
	ff		 mov	 eax, DWORD PTR _nTabIndex$1$[ebp]
  00559	3b 87 c4 00 00
	00		 cmp	 eax, DWORD PTR [edi+196]
  0055f	75 08		 jne	 SHORT $LN11@DrawItem

; 369  : 			{
; 370  : 				pDC->SetTextColor(m_crMouseOver);	

  00561	ff b7 bc 00 00
	00		 push	 DWORD PTR [edi+188]

; 371  : 			}

  00567	eb 06		 jmp	 SHORT $LN124@DrawItem
$LN11@DrawItem:

; 372  : 			else
; 373  : 			{
; 374  : 				pDC->SetTextColor(crNormal);

  00569	ff b5 48 ff ff
	ff		 push	 DWORD PTR _crNormal$1$[ebp]
$LN124@DrawItem:

; 379  : 		pDC->DrawText(label, rect, DT_SINGLELINE|DT_VCENTER|DT_CENTER);

  0056f	8b 06		 mov	 eax, DWORD PTR [esi]
  00571	8b ce		 mov	 ecx, esi
  00573	ff 50 38	 call	 DWORD PTR [eax+56]
  00576	8d 45 b0	 lea	 eax, DWORD PTR _label$[ebp]
  00579	50		 push	 eax
  0057a	8d 8d 48 ff ff
	ff		 lea	 ecx, DWORD PTR $T5[ebp]
  00580	ff 15 00 00 00
	00		 call	 DWORD PTR __imp_??0?$CStringT@DV?$StrTraitMFC_DLL@DV?$ChTraitsCRT@D@ATL@@@@@ATL@@QAE@PBD@Z
; File C:\Program Files (x86)\Microsoft Visual Studio\2019\Community\VC\Tools\MSVC\14.29.30133\atlmfc\include\atlsimpstr.h

; 519  : 		return( GetData()->nDataLength );

  00586	8b 85 48 ff ff
	ff		 mov	 eax, DWORD PTR $T5[ebp]
; File C:\Program Files (x86)\Microsoft Visual Studio\2019\Community\VC\Tools\MSVC\14.29.30133\atlmfc\include\afxwin1.inl

; 600  : 		return _AFX_FUNCNAME(DrawText)((LPCTSTR)str, (int)str.GetLength(), lpRect, nFormat); }

  0058c	8d 8d 60 ff ff
	ff		 lea	 ecx, DWORD PTR _rect$[ebp]
  00592	8b 16		 mov	 edx, DWORD PTR [esi]
  00594	6a 25		 push	 37			; 00000025H
  00596	51		 push	 ecx
  00597	ff 70 f4	 push	 DWORD PTR [eax-12]
  0059a	8b ce		 mov	 ecx, esi
; File D:\git\src\IBK\IBK_DRFN\ProjSrc\SrcDrfn\Chart\INDEXOPTIMIZER\Control\XTabCtrl.cpp

; 379  : 		pDC->DrawText(label, rect, DT_SINGLELINE|DT_VCENTER|DT_CENTER);

  0059c	c7 45 fc 01 00
	00 00		 mov	 DWORD PTR __$EHRec$[ebp+8], 1
; File C:\Program Files (x86)\Microsoft Visual Studio\2019\Community\VC\Tools\MSVC\14.29.30133\atlmfc\include\afxwin1.inl

; 600  : 		return _AFX_FUNCNAME(DrawText)((LPCTSTR)str, (int)str.GetLength(), lpRect, nFormat); }

  005a3	50		 push	 eax
  005a4	ff 52 70	 call	 DWORD PTR [edx+112]
; File D:\git\src\IBK\IBK_DRFN\ProjSrc\SrcDrfn\Chart\INDEXOPTIMIZER\Control\XTabCtrl.cpp

; 379  : 		pDC->DrawText(label, rect, DT_SINGLELINE|DT_VCENTER|DT_CENTER);

  005a7	8d 8d 48 ff ff
	ff		 lea	 ecx, DWORD PTR $T5[ebp]
$LN123@DrawItem:

; 380  : 	}
; 381  : 	pDC->RestoreDC(nSavedDC);

  005ad	c7 45 fc ff ff
	ff ff		 mov	 DWORD PTR __$EHRec$[ebp+8], -1
  005b4	ff 15 00 00 00
	00		 call	 DWORD PTR __imp_??1?$CStringT@DV?$StrTraitMFC_DLL@DV?$ChTraitsCRT@D@ATL@@@@@ATL@@QAE@XZ
  005ba	8b 06		 mov	 eax, DWORD PTR [esi]
  005bc	8b ce		 mov	 ecx, esi
  005be	ff b5 24 ff ff
	ff		 push	 DWORD PTR _nSavedDC$1$[ebp]
  005c4	ff 50 28	 call	 DWORD PTR [eax+40]
$LN1@DrawItem:

; 382  : }

  005c7	8b 4d f4	 mov	 ecx, DWORD PTR __$EHRec$[ebp]
  005ca	64 89 0d 00 00
	00 00		 mov	 DWORD PTR fs:0, ecx
  005d1	59		 pop	 ecx
  005d2	5f		 pop	 edi
  005d3	5e		 pop	 esi
  005d4	8b 4d f0	 mov	 ecx, DWORD PTR __$ArrayPad$[ebp]
  005d7	33 cd		 xor	 ecx, ebp
  005d9	e8 00 00 00 00	 call	 @__security_check_cookie@4
  005de	8b e5		 mov	 esp, ebp
  005e0	5d		 pop	 ebp
  005e1	c2 04 00	 ret	 4
$LN68@DrawItem:
; File C:\Program Files (x86)\Microsoft Visual Studio\2019\Community\VC\Tools\MSVC\14.29.30133\atlmfc\include\afxtempl.h

; 323  : 	AfxThrowInvalidArgException();

  005e4	e8 00 00 00 00	 call	 ?AfxThrowInvalidArgException@@YGXXZ ; AfxThrowInvalidArgException
$LN120@DrawItem:
  005e9	cc		 int	 3
_TEXT	ENDS
;	COMDAT text$x
text$x	SEGMENT
__unwindfunclet$?DrawItem@CXTabCtrl@@MAEXPAUtagDRAWITEMSTRUCT@@@Z$1:
  00000	8d 8d 5c ff ff
	ff		 lea	 ecx, DWORD PTR $T6[ebp]
  00006	ff 25 00 00 00
	00		 jmp	 DWORD PTR __imp_??1?$CStringT@DV?$StrTraitMFC_DLL@DV?$ChTraitsCRT@D@ATL@@@@@ATL@@QAE@XZ
__unwindfunclet$?DrawItem@CXTabCtrl@@MAEXPAUtagDRAWITEMSTRUCT@@@Z$2:
  0000c	8d 8d 48 ff ff
	ff		 lea	 ecx, DWORD PTR $T5[ebp]
  00012	ff 25 00 00 00
	00		 jmp	 DWORD PTR __imp_??1?$CStringT@DV?$StrTraitMFC_DLL@DV?$ChTraitsCRT@D@ATL@@@@@ATL@@QAE@XZ
  00018	cc		 int	 3
  00019	cc		 int	 3
  0001a	cc		 int	 3
  0001b	cc		 int	 3
  0001c	cc		 int	 3
__ehhandler$?DrawItem@CXTabCtrl@@MAEXPAUtagDRAWITEMSTRUCT@@@Z:
  0001d	90		 npad	 1
  0001e	90		 npad	 1
  0001f	8b 54 24 08	 mov	 edx, DWORD PTR [esp+8]
  00023	8d 42 0c	 lea	 eax, DWORD PTR [edx+12]
  00026	8b 8a 00 ff ff
	ff		 mov	 ecx, DWORD PTR [edx-256]
  0002c	33 c8		 xor	 ecx, eax
  0002e	e8 00 00 00 00	 call	 @__security_check_cookie@4
  00033	8b 4a fc	 mov	 ecx, DWORD PTR [edx-4]
  00036	33 c8		 xor	 ecx, eax
  00038	e8 00 00 00 00	 call	 @__security_check_cookie@4
  0003d	b8 00 00 00 00	 mov	 eax, OFFSET __ehfuncinfo$?DrawItem@CXTabCtrl@@MAEXPAUtagDRAWITEMSTRUCT@@@Z
  00042	e9 00 00 00 00	 jmp	 ___CxxFrameHandler3
text$x	ENDS
?DrawItem@CXTabCtrl@@MAEXPAUtagDRAWITEMSTRUCT@@@Z ENDP	; CXTabCtrl::DrawItem
; Function compile flags: /Ogtp
; File D:\git\src\IBK\IBK_DRFN\ProjSrc\SrcDrfn\Chart\INDEXOPTIMIZER\Control\XTabCtrl.cpp
; File C:\Program Files (x86)\Microsoft Visual Studio\2019\Community\VC\Tools\MSVC\14.29.30133\atlmfc\include\afxwin1.inl
; File D:\git\src\IBK\IBK_DRFN\ProjSrc\SrcDrfn\Chart\INDEXOPTIMIZER\Control\XTabCtrl.cpp
; File C:\Program Files (x86)\Microsoft Visual Studio\2019\Community\VC\Tools\MSVC\14.29.30133\atlmfc\include\afxwin1.inl
; File D:\git\src\IBK\IBK_DRFN\ProjSrc\SrcDrfn\Chart\INDEXOPTIMIZER\Control\XTabCtrl.cpp
; File C:\Program Files (x86)\Microsoft Visual Studio\2019\Community\VC\Tools\MSVC\14.29.30133\atlmfc\include\afxwin1.inl
; File D:\git\src\IBK\IBK_DRFN\ProjSrc\SrcDrfn\Chart\INDEXOPTIMIZER\Control\XTabCtrl.cpp
; File C:\Program Files (x86)\Microsoft Visual Studio\2019\Community\VC\Tools\MSVC\14.29.30133\atlmfc\include\afxwin1.inl
; File D:\git\src\IBK\IBK_DRFN\ProjSrc\SrcDrfn\Chart\INDEXOPTIMIZER\Control\XTabCtrl.cpp
; File C:\Program Files (x86)\Microsoft Visual Studio\2019\Community\VC\Tools\MSVC\14.29.30133\atlmfc\include\afxwin1.inl
; File D:\git\src\IBK\IBK_DRFN\ProjSrc\SrcDrfn\Chart\INDEXOPTIMIZER\Control\XTabCtrl.cpp
;	COMDAT ?DrawLine@CXTabCtrl@@QAEXVCPoint@@0PAVCDC@@K@Z
_TEXT	SEGMENT
$T2 = -28						; size = 8
_pen$ = -20						; size = 8
__$EHRec$ = -12						; size = 12
_ptMove$ = 8						; size = 8
_ptTo$ = 16						; size = 8
_pDC$ = 24						; size = 4
_cr$ = 28						; size = 4
?DrawLine@CXTabCtrl@@QAEXVCPoint@@0PAVCDC@@K@Z PROC	; CXTabCtrl::DrawLine, COMDAT
; _this$ = ecx

; 820  : {

  00000	55		 push	 ebp
  00001	8b ec		 mov	 ebp, esp
  00003	6a ff		 push	 -1
  00005	68 00 00 00 00	 push	 __ehhandler$?DrawLine@CXTabCtrl@@QAEXVCPoint@@0PAVCDC@@K@Z
  0000a	64 a1 00 00 00
	00		 mov	 eax, DWORD PTR fs:0
  00010	50		 push	 eax
  00011	83 ec 10	 sub	 esp, 16			; 00000010H
  00014	56		 push	 esi
  00015	57		 push	 edi
  00016	a1 00 00 00 00	 mov	 eax, DWORD PTR ___security_cookie
  0001b	33 c5		 xor	 eax, ebp
  0001d	50		 push	 eax
  0001e	8d 45 f4	 lea	 eax, DWORD PTR __$EHRec$[ebp]
  00021	64 a3 00 00 00
	00		 mov	 DWORD PTR fs:0, eax
; File C:\Program Files (x86)\Microsoft Visual Studio\2019\Community\VC\Tools\MSVC\14.29.30133\atlmfc\include\afxwin1.inl

; 70   : 	{ m_hObject = NULL; }

  00027	c7 45 f0 00 00
	00 00		 mov	 DWORD PTR _pen$[ebp+4], 0

; 104  : 	{ }

  0002e	c7 45 ec 00 00
	00 00		 mov	 DWORD PTR _pen$[ebp], OFFSET ??_7CPen@@6B@

; 108  : 	{ return Attach(::CreatePen(nPenStyle, nWidth, crColor)); }

  00035	ff 75 1c	 push	 DWORD PTR _cr$[ebp]
; File D:\git\src\IBK\IBK_DRFN\ProjSrc\SrcDrfn\Chart\INDEXOPTIMIZER\Control\XTabCtrl.cpp

; 821  : 	CPen pen, *pOldPen;

  00038	c7 45 fc 00 00
	00 00		 mov	 DWORD PTR __$EHRec$[ebp+8], 0
; File C:\Program Files (x86)\Microsoft Visual Studio\2019\Community\VC\Tools\MSVC\14.29.30133\atlmfc\include\afxwin1.inl

; 108  : 	{ return Attach(::CreatePen(nPenStyle, nWidth, crColor)); }

  0003f	6a 01		 push	 1
  00041	6a 00		 push	 0
  00043	ff 15 00 00 00
	00		 call	 DWORD PTR __imp__CreatePen@12
  00049	50		 push	 eax
  0004a	8d 4d ec	 lea	 ecx, DWORD PTR _pen$[ebp]
  0004d	e8 00 00 00 00	 call	 ?Attach@CGdiObject@@QAEHPAX@Z ; CGdiObject::Attach
; File D:\git\src\IBK\IBK_DRFN\ProjSrc\SrcDrfn\Chart\INDEXOPTIMIZER\Control\XTabCtrl.cpp

; 823  : 	pOldPen = pDC->SelectObject(&pen);

  00052	8b 7d 18	 mov	 edi, DWORD PTR _pDC$[ebp]
  00055	8d 45 ec	 lea	 eax, DWORD PTR _pen$[ebp]
  00058	50		 push	 eax
  00059	8b cf		 mov	 ecx, edi
  0005b	e8 00 00 00 00	 call	 ?SelectObject@CDC@@QAEPAVCPen@@PAV2@@Z ; CDC::SelectObject
; File C:\Program Files (x86)\Microsoft Visual Studio\2019\Community\VC\Tools\MSVC\14.29.30133\atlmfc\include\afxwin1.inl

; 464  : 	{ ASSERT(m_hDC != NULL); return MoveTo(point.x, point.y); }

  00060	ff 75 0c	 push	 DWORD PTR _ptMove$[ebp+4]
; File D:\git\src\IBK\IBK_DRFN\ProjSrc\SrcDrfn\Chart\INDEXOPTIMIZER\Control\XTabCtrl.cpp

; 823  : 	pOldPen = pDC->SelectObject(&pen);

  00063	8b f0		 mov	 esi, eax
; File C:\Program Files (x86)\Microsoft Visual Studio\2019\Community\VC\Tools\MSVC\14.29.30133\atlmfc\include\afxwin1.inl

; 464  : 	{ ASSERT(m_hDC != NULL); return MoveTo(point.x, point.y); }

  00065	8b cf		 mov	 ecx, edi
  00067	ff 75 08	 push	 DWORD PTR _ptMove$[ebp]
  0006a	8d 45 e4	 lea	 eax, DWORD PTR $T2[ebp]
  0006d	50		 push	 eax
  0006e	e8 00 00 00 00	 call	 ?MoveTo@CDC@@QAE?AVCPoint@@HH@Z ; CDC::MoveTo

; 466  : 	{ ASSERT(m_hDC != NULL); return LineTo(point.x, point.y); }

  00073	ff 75 14	 push	 DWORD PTR _ptTo$[ebp+4]
  00076	8b cf		 mov	 ecx, edi
  00078	ff 75 10	 push	 DWORD PTR _ptTo$[ebp]
  0007b	e8 00 00 00 00	 call	 ?LineTo@CDC@@QAEHHH@Z	; CDC::LineTo
; File D:\git\src\IBK\IBK_DRFN\ProjSrc\SrcDrfn\Chart\INDEXOPTIMIZER\Control\XTabCtrl.cpp

; 828  : 	pDC->SelectObject(pOldPen);

  00080	56		 push	 esi
  00081	8b cf		 mov	 ecx, edi
  00083	e8 00 00 00 00	 call	 ?SelectObject@CDC@@QAEPAVCPen@@PAV2@@Z ; CDC::SelectObject

; 829  : 	pen.DeleteObject();

  00088	8d 4d ec	 lea	 ecx, DWORD PTR _pen$[ebp]
  0008b	e8 00 00 00 00	 call	 ?DeleteObject@CGdiObject@@QAEHXZ ; CGdiObject::DeleteObject
; File C:\Program Files (x86)\Microsoft Visual Studio\2019\Community\VC\Tools\MSVC\14.29.30133\atlmfc\include\afxwin1.inl

; 106  : 	{ }

  00090	8d 4d ec	 lea	 ecx, DWORD PTR _pen$[ebp]
  00093	c7 45 ec 00 00
	00 00		 mov	 DWORD PTR _pen$[ebp], OFFSET ??_7CPen@@6B@
  0009a	e8 00 00 00 00	 call	 ??1CGdiObject@@UAE@XZ	; CGdiObject::~CGdiObject
; File D:\git\src\IBK\IBK_DRFN\ProjSrc\SrcDrfn\Chart\INDEXOPTIMIZER\Control\XTabCtrl.cpp

; 830  : }

  0009f	8b 4d f4	 mov	 ecx, DWORD PTR __$EHRec$[ebp]
  000a2	64 89 0d 00 00
	00 00		 mov	 DWORD PTR fs:0, ecx
  000a9	59		 pop	 ecx
  000aa	5f		 pop	 edi
  000ab	5e		 pop	 esi
  000ac	8b e5		 mov	 esp, ebp
  000ae	5d		 pop	 ebp
  000af	c2 18 00	 ret	 24			; 00000018H
_TEXT	ENDS
;	COMDAT text$x
text$x	SEGMENT
__unwindfunclet$?DrawLine@CXTabCtrl@@QAEXVCPoint@@0PAVCDC@@K@Z$0:
  00000	8d 4d ec	 lea	 ecx, DWORD PTR _pen$[ebp]
  00003	e9 00 00 00 00	 jmp	 ??1CPen@@UAE@XZ		; CPen::~CPen
  00008	cc		 int	 3
  00009	cc		 int	 3
  0000a	cc		 int	 3
  0000b	cc		 int	 3
  0000c	cc		 int	 3
__ehhandler$?DrawLine@CXTabCtrl@@QAEXVCPoint@@0PAVCDC@@K@Z:
  0000d	90		 npad	 1
  0000e	90		 npad	 1
  0000f	8b 54 24 08	 mov	 edx, DWORD PTR [esp+8]
  00013	8d 42 0c	 lea	 eax, DWORD PTR [edx+12]
  00016	8b 4a e4	 mov	 ecx, DWORD PTR [edx-28]
  00019	33 c8		 xor	 ecx, eax
  0001b	e8 00 00 00 00	 call	 @__security_check_cookie@4
  00020	b8 00 00 00 00	 mov	 eax, OFFSET __ehfuncinfo$?DrawLine@CXTabCtrl@@QAEXVCPoint@@0PAVCDC@@K@Z
  00025	e9 00 00 00 00	 jmp	 ___CxxFrameHandler3
text$x	ENDS
?DrawLine@CXTabCtrl@@QAEXVCPoint@@0PAVCDC@@K@Z ENDP	; CXTabCtrl::DrawLine
; Function compile flags: /Ogtp
; File D:\git\src\IBK\IBK_DRFN\ProjSrc\SrcDrfn\Chart\INDEXOPTIMIZER\Control\XTabCtrl.cpp
; File C:\Program Files (x86)\Microsoft Visual Studio\2019\Community\VC\Tools\MSVC\14.29.30133\atlmfc\include\atltypes.h
; File D:\git\src\IBK\IBK_DRFN\ProjSrc\SrcDrfn\Chart\INDEXOPTIMIZER\Control\XTabCtrl.cpp
;	COMDAT ?DrawGradientTab@CXTabCtrl@@QAEXPAVCDC@@VCRect@@@Z
_TEXT	SEGMENT
_backup$ = -48						; size = 16
_fStep$1$ = -32						; size = 4
_pDC$GSCopy$1$ = -28					; size = 4
tv475 = -24						; size = 4
_b$2$ = -20						; size = 4
_r$2$ = -16						; size = 4
tv468 = -16						; size = 4
_bStep$1$ = -12						; size = 4
_r$1$ = -12						; size = 4
_gStep$1$ = -8						; size = 4
tv477 = -8						; size = 4
_rStep$1$ = -4						; size = 4
tv476 = -4						; size = 4
_pDC$ = 8						; size = 4
_rect$ = 12						; size = 16
?DrawGradientTab@CXTabCtrl@@QAEXPAVCDC@@VCRect@@@Z PROC	; CXTabCtrl::DrawGradientTab, COMDAT
; _this$ = ecx

; 385  : {

  00000	55		 push	 ebp
  00001	8b ec		 mov	 ebp, esp
  00003	83 ec 30	 sub	 esp, 48			; 00000030H
  00006	8b 45 08	 mov	 eax, DWORD PTR _pDC$[ebp]
  00009	89 45 e4	 mov	 DWORD PTR _pDC$GSCopy$1$[ebp], eax

; 386  : 	COLORREF Start, End;
; 387  : 	Start = m_clNormalTabStart;

  0000c	8b 81 f4 00 00
	00		 mov	 eax, DWORD PTR [ecx+244]

; 388  : 	End   = m_clNormalTabEnd;

  00012	8b 89 f8 00 00
	00		 mov	 ecx, DWORD PTR [ecx+248]

; 389  : 
; 390  : 	CRect backup = rect;
; 391  : 		
; 392  : 	int r,g,b;// 3   ..
; 393  : 	float rStep, gStep, bStep;// 3    ..
; 394  : 	float fStep;//      ..
; 395  : 
; 396  : 	//   ..
; 397  : 	r = (GetRValue(End) - GetRValue(Start));

  00018	0f b6 d0	 movzx	 edx, al
  0001b	53		 push	 ebx
  0001c	89 55 f0	 mov	 DWORD PTR _r$2$[ebp], edx
  0001f	56		 push	 esi

; 398  : 	g = (GetGValue(End) - GetGValue(Start));

  00020	0f b7 f1	 movzx	 esi, cx
  00023	57		 push	 edi
  00024	0f b6 f9	 movzx	 edi, cl
  00027	2b fa		 sub	 edi, edx

; 399  : 	b = (GetBValue(End) - GetBValue(Start));

  00029	c1 e9 10	 shr	 ecx, 16			; 00000010H
  0002c	0f b7 d0	 movzx	 edx, ax
  0002f	c1 e8 10	 shr	 eax, 16			; 00000010H
  00032	0f b6 c0	 movzx	 eax, al
  00035	89 45 ec	 mov	 DWORD PTR _b$2$[ebp], eax
  00038	c1 ea 08	 shr	 edx, 8
  0003b	0f b6 d9	 movzx	 ebx, cl
  0003e	2b d8		 sub	 ebx, eax
  00040	89 55 e8	 mov	 DWORD PTR tv475[ebp], edx
  00043	c1 ee 08	 shr	 esi, 8

; 400  : 
; 401  : 	//   ..
; 402  : 	int Max = max( abs(r), max(abs(g), abs(b)) );

  00046	8b c3		 mov	 eax, ebx
  00048	2b f2		 sub	 esi, edx
  0004a	89 7d f4	 mov	 DWORD PTR _r$1$[ebp], edi
  0004d	99		 cdq
  0004e	8b c8		 mov	 ecx, eax
  00050	8b c6		 mov	 eax, esi
  00052	33 ca		 xor	 ecx, edx
  00054	2b ca		 sub	 ecx, edx
  00056	99		 cdq
  00057	0f 10 45 0c	 movups	 xmm0, XMMWORD PTR _rect$[ebp]
  0005b	33 c2		 xor	 eax, edx
  0005d	89 4d f8	 mov	 DWORD PTR tv477[ebp], ecx
  00060	2b c2		 sub	 eax, edx
  00062	89 45 fc	 mov	 DWORD PTR tv476[ebp], eax
  00065	8b c6		 mov	 eax, esi
  00067	39 4d fc	 cmp	 DWORD PTR tv476[ebp], ecx
  0006a	0f 11 45 d0	 movups	 XMMWORD PTR _backup$[ebp], xmm0
  0006e	0f 4e c3	 cmovle	 eax, ebx
  00071	99		 cdq
  00072	8b c8		 mov	 ecx, eax
  00074	8b c7		 mov	 eax, edi
  00076	33 ca		 xor	 ecx, edx
  00078	2b ca		 sub	 ecx, edx
  0007a	99		 cdq
  0007b	33 c2		 xor	 eax, edx
  0007d	2b c2		 sub	 eax, edx
  0007f	3b c1		 cmp	 eax, ecx
  00081	7e 04		 jle	 SHORT $LN10@DrawGradie
  00083	8b c7		 mov	 eax, edi
  00085	eb 0b		 jmp	 SHORT $LN8@DrawGradie
$LN10@DrawGradie:
  00087	8b 4d fc	 mov	 ecx, DWORD PTR tv476[ebp]
  0008a	8b c3		 mov	 eax, ebx
  0008c	3b 4d f8	 cmp	 ecx, DWORD PTR tv477[ebp]
  0008f	0f 4f c6	 cmovg	 eax, esi
$LN8@DrawGradie:
  00092	66 0f 6e 55 f4	 movd	 xmm2, DWORD PTR _r$1$[ebp]
; File C:\Program Files (x86)\Microsoft Visual Studio\2019\Community\VC\Tools\MSVC\14.29.30133\atlmfc\include\atltypes.h

; 581  : 	return bottom - top;

  00097	99		 cdq
  00098	8b f8		 mov	 edi, eax
  0009a	8b 4d 18	 mov	 ecx, DWORD PTR _rect$[ebp+12]
  0009d	33 fa		 xor	 edi, edx
  0009f	2b 4d 10	 sub	 ecx, DWORD PTR _rect$[ebp+4]
  000a2	2b fa		 sub	 edi, edx
; File D:\git\src\IBK\IBK_DRFN\ProjSrc\SrcDrfn\Chart\INDEXOPTIMIZER\Control\XTabCtrl.cpp

; 408  : 	rStep = r/(float)Max;

  000a4	0f 5b d2	 cvtdq2ps xmm2, xmm2
  000a7	66 0f 6e c7	 movd	 xmm0, edi
  000ab	0f 5b c0	 cvtdq2ps xmm0, xmm0
  000ae	66 0f 6e c9	 movd	 xmm1, ecx
  000b2	f3 0f 5e d0	 divss	 xmm2, xmm0
  000b6	0f 5b c9	 cvtdq2ps xmm1, xmm1
  000b9	f3 0f 11 55 fc	 movss	 DWORD PTR _rStep$1$[ebp], xmm2
  000be	66 0f 6e d6	 movd	 xmm2, esi
  000c2	33 f6		 xor	 esi, esi

; 409  : 	gStep = g/(float)Max;

  000c4	0f 5b d2	 cvtdq2ps xmm2, xmm2
  000c7	f3 0f 5e c8	 divss	 xmm1, xmm0
  000cb	f3 0f 5e d0	 divss	 xmm2, xmm0
  000cf	f3 0f 11 4d e0	 movss	 DWORD PTR _fStep$1$[ebp], xmm1
  000d4	f3 0f 11 55 f8	 movss	 DWORD PTR _gStep$1$[ebp], xmm2
  000d9	66 0f 6e d3	 movd	 xmm2, ebx

; 410  : 	bStep = b/(float)Max;

  000dd	0f 5b d2	 cvtdq2ps xmm2, xmm2
  000e0	f3 0f 5e d0	 divss	 xmm2, xmm0
  000e4	f3 0f 11 55 f4	 movss	 DWORD PTR _bStep$1$[ebp], xmm2

; 411  : 
; 412  : 	//r,g,b   ...
; 413  : 	r = GetRValue(Start);
; 414  : 	g = GetGValue(Start);
; 415  : 	b = GetBValue(Start);
; 416  : 
; 417  : 	//   ..  .
; 418  : 	for(int iOnBand=0 ; iOnBand <Max; iOnBand++)  // - Gradation 

  000e9	85 ff		 test	 edi, edi
  000eb	0f 8e a7 00 00
	00		 jle	 $LN3@DrawGradie
  000f1	66 0f 6e 45 f0	 movd	 xmm0, DWORD PTR _r$2$[ebp]
  000f6	8b 5d dc	 mov	 ebx, DWORD PTR _backup$[ebp+12]
  000f9	0f 5b c0	 cvtdq2ps xmm0, xmm0
  000fc	f3 0f 11 45 f0	 movss	 DWORD PTR tv468[ebp], xmm0
$LL4@DrawGradie:
  00101	66 0f 6e c6	 movd	 xmm0, esi

; 419  : 	{
; 420  : 		::SetRect( &rect, rect.left, int(fStep*iOnBand) + backup.top ,

  00105	0f 5b c0	 cvtdq2ps xmm0, xmm0
  00108	53		 push	 ebx
  00109	ff 75 14	 push	 DWORD PTR _rect$[ebp+8]
  0010c	f3 0f 59 c1	 mulss	 xmm0, xmm1
  00110	f3 0f 2c c0	 cvttss2si eax, xmm0
  00114	03 45 d4	 add	 eax, DWORD PTR _backup$[ebp+4]
  00117	50		 push	 eax
  00118	ff 75 0c	 push	 DWORD PTR _rect$[ebp]
  0011b	8d 45 0c	 lea	 eax, DWORD PTR _rect$[ebp]
  0011e	50		 push	 eax
  0011f	ff 15 00 00 00
	00		 call	 DWORD PTR __imp__SetRect@20
  00125	66 0f 6e 55 ec	 movd	 xmm2, DWORD PTR _b$2$[ebp]
  0012a	66 0f 6e ce	 movd	 xmm1, esi

; 421  : 		    rect.right, backup.bottom );  
; 422  : 		pDC->FillSolidRect( &rect,  RGB( r + rStep*iOnBand, g + gStep*iOnBand, b + bStep*iOnBand ) );

  0012e	0f 5b c9	 cvtdq2ps xmm1, xmm1
  00131	0f 5b d2	 cvtdq2ps xmm2, xmm2
  00134	0f 28 c1	 movaps	 xmm0, xmm1
  00137	f3 0f 59 45 f4	 mulss	 xmm0, DWORD PTR _bStep$1$[ebp]
  0013c	f3 0f 58 c2	 addss	 xmm0, xmm2
  00140	66 0f 6e 55 e8	 movd	 xmm2, DWORD PTR tv475[ebp]
  00145	0f 5b d2	 cvtdq2ps xmm2, xmm2
  00148	f3 0f 2c c0	 cvttss2si eax, xmm0
  0014c	0f 28 c1	 movaps	 xmm0, xmm1
  0014f	f3 0f 59 4d fc	 mulss	 xmm1, DWORD PTR _rStep$1$[ebp]
  00154	0f b6 c8	 movzx	 ecx, al
  00157	f3 0f 59 45 f8	 mulss	 xmm0, DWORD PTR _gStep$1$[ebp]
  0015c	c1 e1 08	 shl	 ecx, 8
  0015f	f3 0f 58 4d f0	 addss	 xmm1, DWORD PTR tv468[ebp]
  00164	f3 0f 58 c2	 addss	 xmm0, xmm2
  00168	f3 0f 2c c0	 cvttss2si eax, xmm0
  0016c	0f b6 c0	 movzx	 eax, al
  0016f	0b c8		 or	 ecx, eax
  00171	f3 0f 2c c1	 cvttss2si eax, xmm1
  00175	c1 e1 08	 shl	 ecx, 8
  00178	0f b6 c0	 movzx	 eax, al
  0017b	0b c8		 or	 ecx, eax
  0017d	8d 45 0c	 lea	 eax, DWORD PTR _rect$[ebp]
  00180	51		 push	 ecx
  00181	8b 4d e4	 mov	 ecx, DWORD PTR _pDC$GSCopy$1$[ebp]
  00184	50		 push	 eax
  00185	e8 00 00 00 00	 call	 ?FillSolidRect@CDC@@QAEXPBUtagRECT@@K@Z ; CDC::FillSolidRect
  0018a	f3 0f 10 4d e0	 movss	 xmm1, DWORD PTR _fStep$1$[ebp]
  0018f	46		 inc	 esi
  00190	3b f7		 cmp	 esi, edi
  00192	0f 8c 69 ff ff
	ff		 jl	 $LL4@DrawGradie
$LN3@DrawGradie:
  00198	5f		 pop	 edi

; 423  : 	}
; 424  : }

  00199	5e		 pop	 esi
  0019a	5b		 pop	 ebx
  0019b	8b e5		 mov	 esp, ebp
  0019d	5d		 pop	 ebp
  0019e	c2 14 00	 ret	 20			; 00000014H
?DrawGradientTab@CXTabCtrl@@QAEXPAVCDC@@VCRect@@@Z ENDP	; CXTabCtrl::DrawGradientTab
_TEXT	ENDS
; Function compile flags: /Ogtp
; File D:\git\src\IBK\IBK_DRFN\ProjSrc\SrcDrfn\Chart\INDEXOPTIMIZER\Control\XTabCtrl.cpp
; File C:\Program Files (x86)\Microsoft Visual Studio\2019\Community\VC\Tools\MSVC\14.29.30133\atlmfc\include\afxcmn.inl
; File D:\git\src\IBK\IBK_DRFN\ProjSrc\SrcDrfn\Chart\INDEXOPTIMIZER\Control\XTabCtrl.cpp
; File C:\Program Files (x86)\Microsoft Visual Studio\2019\Community\VC\Tools\MSVC\14.29.30133\atlmfc\include\afxcmn.inl
; File D:\git\src\IBK\IBK_DRFN\ProjSrc\SrcDrfn\Chart\INDEXOPTIMIZER\Control\XTabCtrl.cpp
; File C:\Program Files (x86)\Microsoft Visual Studio\2019\Community\VC\Tools\MSVC\14.29.30133\atlmfc\include\afxcmn.inl
; File D:\git\src\IBK\IBK_DRFN\ProjSrc\SrcDrfn\Chart\INDEXOPTIMIZER\Control\XTabCtrl.cpp
; File C:\Program Files (x86)\Microsoft Visual Studio\2019\Community\VC\Tools\MSVC\14.29.30133\atlmfc\include\afxcmn.inl
; File D:\git\src\IBK\IBK_DRFN\ProjSrc\SrcDrfn\Chart\INDEXOPTIMIZER\Control\XTabCtrl.cpp
;	COMDAT ?SetPrevSelect@CXTabCtrl@@QAEXXZ
_TEXT	SEGMENT
?SetPrevSelect@CXTabCtrl@@QAEXXZ PROC			; CXTabCtrl::SetPrevSelect, COMDAT
; _this$ = ecx

; 275  : {

  00000	53		 push	 ebx
  00001	56		 push	 esi
; File C:\Program Files (x86)\Microsoft Visual Studio\2019\Community\VC\Tools\MSVC\14.29.30133\atlmfc\include\afxcmn.inl

; 586  : 	{ ASSERT(::IsWindow(m_hWnd)); return (int)::SendMessage(m_hWnd, TCM_GETCURSEL, 0, 0L); }

  00002	6a 00		 push	 0
; File D:\git\src\IBK\IBK_DRFN\ProjSrc\SrcDrfn\Chart\INDEXOPTIMIZER\Control\XTabCtrl.cpp

; 275  : {

  00004	8b d9		 mov	 ebx, ecx
; File C:\Program Files (x86)\Microsoft Visual Studio\2019\Community\VC\Tools\MSVC\14.29.30133\atlmfc\include\afxcmn.inl

; 586  : 	{ ASSERT(::IsWindow(m_hWnd)); return (int)::SendMessage(m_hWnd, TCM_GETCURSEL, 0, 0L); }

  00006	6a 00		 push	 0
  00008	68 0b 13 00 00	 push	 4875			; 0000130bH
  0000d	ff 73 20	 push	 DWORD PTR [ebx+32]
  00010	ff 15 00 00 00
	00		 call	 DWORD PTR __imp__SendMessageA@16
; File D:\git\src\IBK\IBK_DRFN\ProjSrc\SrcDrfn\Chart\INDEXOPTIMIZER\Control\XTabCtrl.cpp

; 278  : 	if(nEnableIndex < 0) nEnableIndex = 0;

  00016	33 c9		 xor	 ecx, ecx
  00018	85 c0		 test	 eax, eax
; File C:\Program Files (x86)\Microsoft Visual Studio\2019\Community\VC\Tools\MSVC\14.29.30133\atlmfc\include\afxcmn.inl

; 564  : 	{ ASSERT(::IsWindow(m_hWnd)); return (int)::SendMessage(m_hWnd, TCM_GETITEMCOUNT, 0, 0L); }

  0001a	6a 00		 push	 0
; File D:\git\src\IBK\IBK_DRFN\ProjSrc\SrcDrfn\Chart\INDEXOPTIMIZER\Control\XTabCtrl.cpp

; 278  : 	if(nEnableIndex < 0) nEnableIndex = 0;

  0001c	0f 48 c1	 cmovs	 eax, ecx
; File C:\Program Files (x86)\Microsoft Visual Studio\2019\Community\VC\Tools\MSVC\14.29.30133\atlmfc\include\afxcmn.inl

; 564  : 	{ ASSERT(::IsWindow(m_hWnd)); return (int)::SendMessage(m_hWnd, TCM_GETITEMCOUNT, 0, 0L); }

  0001f	b9 01 00 00 00	 mov	 ecx, 1
  00024	6a 00		 push	 0
  00026	68 04 13 00 00	 push	 4868			; 00001304H
  0002b	ff 73 20	 push	 DWORD PTR [ebx+32]
  0002e	85 c0		 test	 eax, eax
  00030	8d 70 ff	 lea	 esi, DWORD PTR [eax-1]
  00033	0f 44 f1	 cmove	 esi, ecx
  00036	ff 15 00 00 00
	00		 call	 DWORD PTR __imp__SendMessageA@16
; File D:\git\src\IBK\IBK_DRFN\ProjSrc\SrcDrfn\Chart\INDEXOPTIMIZER\Control\XTabCtrl.cpp

; 282  : 	if(GetItemCount() == 1) nEnableIndex = 0;

  0003c	48		 dec	 eax

; 283  : 
; 284  : 	SelectTab(nEnableIndex);

  0003d	8b cb		 mov	 ecx, ebx
  0003f	f7 d8		 neg	 eax
  00041	1b c0		 sbb	 eax, eax
  00043	23 c6		 and	 eax, esi
  00045	50		 push	 eax
  00046	e8 00 00 00 00	 call	 ?SelectTab@CXTabCtrl@@QAEHH@Z ; CXTabCtrl::SelectTab
  0004b	5e		 pop	 esi
  0004c	5b		 pop	 ebx

; 285  : }

  0004d	c3		 ret	 0
?SetPrevSelect@CXTabCtrl@@QAEXXZ ENDP			; CXTabCtrl::SetPrevSelect
_TEXT	ENDS
; Function compile flags: /Ogtp
; File D:\git\src\IBK\IBK_DRFN\ProjSrc\SrcDrfn\Chart\INDEXOPTIMIZER\Control\XTabCtrl.cpp
;	COMDAT ?SetMouseOverColor@CXTabCtrl@@QAEXK@Z
_TEXT	SEGMENT
_cr$ = 8						; size = 4
?SetMouseOverColor@CXTabCtrl@@QAEXK@Z PROC		; CXTabCtrl::SetMouseOverColor, COMDAT
; _this$ = ecx

; 76   : {

  00000	55		 push	 ebp
  00001	8b ec		 mov	 ebp, esp

; 77   : 	m_bColorMouseOver = true;
; 78   : 	m_crMouseOver = cr;

  00003	8b 45 08	 mov	 eax, DWORD PTR _cr$[ebp]
  00006	c6 81 c9 00 00
	00 01		 mov	 BYTE PTR [ecx+201], 1
  0000d	89 81 bc 00 00
	00		 mov	 DWORD PTR [ecx+188], eax

; 79   : }

  00013	5d		 pop	 ebp
  00014	c2 04 00	 ret	 4
?SetMouseOverColor@CXTabCtrl@@QAEXK@Z ENDP		; CXTabCtrl::SetMouseOverColor
_TEXT	ENDS
; Function compile flags: /Ogtp
; File D:\git\src\IBK\IBK_DRFN\ProjSrc\SrcDrfn\Chart\INDEXOPTIMIZER\Control\XTabCtrl.cpp
;	COMDAT ?SetNormalColor@CXTabCtrl@@QAEXKKK@Z
_TEXT	SEGMENT
_cr$ = 8						; size = 4
_crTabStart$ = 12					; size = 4
_crTabEnd$ = 16						; size = 4
?SetNormalColor@CXTabCtrl@@QAEXKKK@Z PROC		; CXTabCtrl::SetNormalColor, COMDAT
; _this$ = ecx

; 97   : {

  00000	55		 push	 ebp
  00001	8b ec		 mov	 ebp, esp

; 98   : 	m_bColorNormal = true;
; 99   : 	m_crNormal = cr;

  00003	8b 45 08	 mov	 eax, DWORD PTR _cr$[ebp]
  00006	89 81 b8 00 00
	00		 mov	 DWORD PTR [ecx+184], eax

; 100  : 	m_clNormalTabStart = crTabStart;

  0000c	8b 45 0c	 mov	 eax, DWORD PTR _crTabStart$[ebp]
  0000f	89 81 f4 00 00
	00		 mov	 DWORD PTR [ecx+244], eax

; 101  : 	m_clNormalTabEnd = crTabEnd;

  00015	8b 45 10	 mov	 eax, DWORD PTR _crTabEnd$[ebp]
  00018	c6 81 ca 00 00
	00 01		 mov	 BYTE PTR [ecx+202], 1
  0001f	89 81 f8 00 00
	00		 mov	 DWORD PTR [ecx+248], eax

; 102  : }

  00025	5d		 pop	 ebp
  00026	c2 0c 00	 ret	 12			; 0000000cH
?SetNormalColor@CXTabCtrl@@QAEXKKK@Z ENDP		; CXTabCtrl::SetNormalColor
_TEXT	ENDS
; Function compile flags: /Ogtp
; File D:\git\src\IBK\IBK_DRFN\ProjSrc\SrcDrfn\Chart\INDEXOPTIMIZER\Control\XTabCtrl.cpp
;	COMDAT ?SetSelectedColor@CXTabCtrl@@QAEXKK@Z
_TEXT	SEGMENT
_cr$ = 8						; size = 4
_crTabBK$ = 12						; size = 4
?SetSelectedColor@CXTabCtrl@@QAEXKK@Z PROC		; CXTabCtrl::SetSelectedColor, COMDAT
; _this$ = ecx

; 89   : {

  00000	55		 push	 ebp
  00001	8b ec		 mov	 ebp, esp

; 90   : 	m_bColorSelected = true;
; 91   : 	m_crSelected= cr;

  00003	8b 45 08	 mov	 eax, DWORD PTR _cr$[ebp]
  00006	89 81 b0 00 00
	00		 mov	 DWORD PTR [ecx+176], eax

; 92   : 	m_clSelTabBK = crTabBK;

  0000c	8b 45 0c	 mov	 eax, DWORD PTR _crTabBK$[ebp]
  0000f	c6 81 cc 00 00
	00 01		 mov	 BYTE PTR [ecx+204], 1
  00016	89 81 ac 00 00
	00		 mov	 DWORD PTR [ecx+172], eax

; 93   : }

  0001c	5d		 pop	 ebp
  0001d	c2 08 00	 ret	 8
?SetSelectedColor@CXTabCtrl@@QAEXKK@Z ENDP		; CXTabCtrl::SetSelectedColor
_TEXT	ENDS
; Function compile flags: /Ogtp
; File D:\git\src\IBK\IBK_DRFN\ProjSrc\SrcDrfn\Chart\INDEXOPTIMIZER\Control\XTabCtrl.cpp
;	COMDAT ?SetDisabledColor@CXTabCtrl@@QAEXK@Z
_TEXT	SEGMENT
_cr$ = 8						; size = 4
?SetDisabledColor@CXTabCtrl@@QAEXK@Z PROC		; CXTabCtrl::SetDisabledColor, COMDAT
; _this$ = ecx

; 83   : {

  00000	55		 push	 ebp
  00001	8b ec		 mov	 ebp, esp

; 84   : 	m_bColorDisabled = true;
; 85   : 	m_crDisabled = cr;

  00003	8b 45 08	 mov	 eax, DWORD PTR _cr$[ebp]
  00006	c6 81 cb 00 00
	00 01		 mov	 BYTE PTR [ecx+203], 1
  0000d	89 81 b4 00 00
	00		 mov	 DWORD PTR [ecx+180], eax

; 86   : }

  00013	5d		 pop	 ebp
  00014	c2 04 00	 ret	 4
?SetDisabledColor@CXTabCtrl@@QAEXK@Z ENDP		; CXTabCtrl::SetDisabledColor
_TEXT	ENDS
; Function compile flags: /Ogtp
; File D:\git\src\IBK\IBK_DRFN\ProjSrc\SrcDrfn\Chart\INDEXOPTIMIZER\Control\XTabCtrl.cpp
; File C:\Program Files (x86)\Microsoft Visual Studio\2019\Community\VC\Tools\MSVC\14.29.30133\atlmfc\include\afxtempl.h
; File D:\git\src\IBK\IBK_DRFN\ProjSrc\SrcDrfn\Chart\INDEXOPTIMIZER\Control\XTabCtrl.cpp
; File C:\Program Files (x86)\Microsoft Visual Studio\2019\Community\VC\Tools\MSVC\14.29.30133\atlmfc\include\afxtempl.h
; File D:\git\src\IBK\IBK_DRFN\ProjSrc\SrcDrfn\Chart\INDEXOPTIMIZER\Control\XTabCtrl.cpp
;	COMDAT ?IsTabEnabled@CXTabCtrl@@QAEHH@Z
_TEXT	SEGMENT
_iIndex$ = 8						; size = 4
?IsTabEnabled@CXTabCtrl@@QAEHH@Z PROC			; CXTabCtrl::IsTabEnabled, COMDAT
; _this$ = ecx

; 172  : {

  00000	55		 push	 ebp
  00001	8b ec		 mov	 ebp, esp
; File C:\Program Files (x86)\Microsoft Visual Studio\2019\Community\VC\Tools\MSVC\14.29.30133\atlmfc\include\afxtempl.h

; 321  : 	if(nIndex >= 0 && nIndex < m_nSize)

  00003	8b 55 08	 mov	 edx, DWORD PTR _iIndex$[ebp]
  00006	85 d2		 test	 edx, edx
  00008	78 15		 js	 SHORT $LN6@IsTabEnabl
  0000a	3b 91 94 00 00
	00		 cmp	 edx, DWORD PTR [ecx+148]
  00010	7d 0d		 jge	 SHORT $LN6@IsTabEnabl
; File D:\git\src\IBK\IBK_DRFN\ProjSrc\SrcDrfn\Chart\INDEXOPTIMIZER\Control\XTabCtrl.cpp

; 175  : 	return m_arrayStatusTab[iIndex];

  00012	8b 81 90 00 00
	00		 mov	 eax, DWORD PTR [ecx+144]
  00018	8b 04 90	 mov	 eax, DWORD PTR [eax+edx*4]

; 176  : }

  0001b	5d		 pop	 ebp
  0001c	c2 04 00	 ret	 4
$LN6@IsTabEnabl:
; File C:\Program Files (x86)\Microsoft Visual Studio\2019\Community\VC\Tools\MSVC\14.29.30133\atlmfc\include\afxtempl.h

; 323  : 	AfxThrowInvalidArgException();

  0001f	e8 00 00 00 00	 call	 ?AfxThrowInvalidArgException@@YGXXZ ; AfxThrowInvalidArgException
$LN10@IsTabEnabl:
  00024	cc		 int	 3
?IsTabEnabled@CXTabCtrl@@QAEHH@Z ENDP			; CXTabCtrl::IsTabEnabled
_TEXT	ENDS
; Function compile flags: /Ogtp
; File D:\git\src\IBK\IBK_DRFN\ProjSrc\SrcDrfn\Chart\INDEXOPTIMIZER\Control\XTabCtrl.cpp
;	COMDAT ?SetTopLeftCorner@CXTabCtrl@@QAEXVCPoint@@@Z
_TEXT	SEGMENT
_pt$ = 8						; size = 8
?SetTopLeftCorner@CXTabCtrl@@QAEXVCPoint@@@Z PROC	; CXTabCtrl::SetTopLeftCorner, COMDAT
; _this$ = ecx

; 70   : {

  00000	55		 push	 ebp
  00001	8b ec		 mov	 ebp, esp

; 71   : 	m_ptTabs.x = pt.x;

  00003	8b 45 08	 mov	 eax, DWORD PTR _pt$[ebp]
  00006	89 81 a4 00 00
	00		 mov	 DWORD PTR [ecx+164], eax

; 72   : 	m_ptTabs.y = pt.y;

  0000c	8b 45 0c	 mov	 eax, DWORD PTR _pt$[ebp+4]
  0000f	89 81 a8 00 00
	00		 mov	 DWORD PTR [ecx+168], eax

; 73   : }

  00015	5d		 pop	 ebp
  00016	c2 08 00	 ret	 8
?SetTopLeftCorner@CXTabCtrl@@QAEXVCPoint@@@Z ENDP	; CXTabCtrl::SetTopLeftCorner
_TEXT	ENDS
; Function compile flags: /Ogtp
; File D:\git\src\IBK\IBK_DRFN\ProjSrc\SrcDrfn\Chart\INDEXOPTIMIZER\Control\XTabCtrl.cpp
; File C:\Program Files (x86)\Microsoft Visual Studio\2019\Community\VC\Tools\MSVC\14.29.30133\atlmfc\include\afxtempl.h
; File D:\git\src\IBK\IBK_DRFN\ProjSrc\SrcDrfn\Chart\INDEXOPTIMIZER\Control\XTabCtrl.cpp
; File C:\Program Files (x86)\Microsoft Visual Studio\2019\Community\VC\Tools\MSVC\14.29.30133\atlmfc\include\afxtempl.h
; File C:\Program Files (x86)\Windows Kits\10\Include\10.0.22000.0\ucrt\corecrt_memcpy_s.h
; File C:\Program Files (x86)\Microsoft Visual Studio\2019\Community\VC\Tools\MSVC\14.29.30133\atlmfc\include\atlchecked.h
; File C:\Program Files (x86)\Windows Kits\10\Include\10.0.22000.0\ucrt\corecrt_memcpy_s.h
; File C:\Program Files (x86)\Microsoft Visual Studio\2019\Community\VC\Tools\MSVC\14.29.30133\atlmfc\include\atlchecked.h
; File C:\Program Files (x86)\Microsoft Visual Studio\2019\Community\VC\Tools\MSVC\14.29.30133\atlmfc\include\afxcmn.inl
; File C:\Program Files (x86)\Microsoft Visual Studio\2019\Community\VC\Tools\MSVC\14.29.30133\atlmfc\include\afxtempl.h
; File C:\Program Files (x86)\Microsoft Visual Studio\2019\Community\VC\Tools\MSVC\14.29.30133\atlmfc\include\afxcmn.inl
; File C:\Program Files (x86)\Microsoft Visual Studio\2019\Community\VC\Tools\MSVC\14.29.30133\atlmfc\include\afxtempl.h
; File C:\Program Files (x86)\Microsoft Visual Studio\2019\Community\VC\Tools\MSVC\14.29.30133\atlmfc\include\afxcmn.inl
; File D:\git\src\IBK\IBK_DRFN\ProjSrc\SrcDrfn\Chart\INDEXOPTIMIZER\Control\XTabCtrl.cpp
; File C:\Program Files (x86)\Microsoft Visual Studio\2019\Community\VC\Tools\MSVC\14.29.30133\atlmfc\include\afxtempl.h
; File D:\git\src\IBK\IBK_DRFN\ProjSrc\SrcDrfn\Chart\INDEXOPTIMIZER\Control\XTabCtrl.cpp
;	COMDAT ?DeleteTab@CXTabCtrl@@QAEXH@Z
_TEXT	SEGMENT
_iIndex$ = 8						; size = 4
?DeleteTab@CXTabCtrl@@QAEXH@Z PROC			; CXTabCtrl::DeleteTab, COMDAT
; _this$ = ecx

; 162  : {

  00000	55		 push	 ebp
  00001	8b ec		 mov	 ebp, esp
  00003	56		 push	 esi
; File C:\Program Files (x86)\Microsoft Visual Studio\2019\Community\VC\Tools\MSVC\14.29.30133\atlmfc\include\afxtempl.h

; 594  : 	INT_PTR nUpperBound = nIndex + nCount;

  00004	8b 75 08	 mov	 esi, DWORD PTR _iIndex$[ebp]
; File D:\git\src\IBK\IBK_DRFN\ProjSrc\SrcDrfn\Chart\INDEXOPTIMIZER\Control\XTabCtrl.cpp

; 162  : {

  00007	57		 push	 edi
  00008	8b f9		 mov	 edi, ecx
; File C:\Program Files (x86)\Microsoft Visual Studio\2019\Community\VC\Tools\MSVC\14.29.30133\atlmfc\include\afxtempl.h

; 594  : 	INT_PTR nUpperBound = nIndex + nCount;

  0000a	8d 4e 01	 lea	 ecx, DWORD PTR [esi+1]

; 595  : 	ASSERT(nUpperBound <= m_nSize && nUpperBound >= nIndex && nUpperBound >= nCount);
; 596  : 
; 597  : 	if(nIndex < 0 || nCount < 0 || (nUpperBound > m_nSize) || (nUpperBound < nIndex) || (nUpperBound < nCount))

  0000d	85 f6		 test	 esi, esi
  0000f	0f 88 82 00 00
	00		 js	 $LN8@DeleteTab
  00015	8b 87 94 00 00
	00		 mov	 eax, DWORD PTR [edi+148]
  0001b	3b c8		 cmp	 ecx, eax
  0001d	7f 78		 jg	 SHORT $LN8@DeleteTab
  0001f	3b ce		 cmp	 ecx, esi
  00021	7c 74		 jl	 SHORT $LN8@DeleteTab

; 599  : 
; 600  : 	// just remove a range
; 601  : 	INT_PTR nMoveCount = m_nSize - (nUpperBound);

  00023	8b d0		 mov	 edx, eax
  00025	2b d1		 sub	 edx, ecx

; 602  : 	for( int i = 0; i < nCount; i++ )
; 603  : 		(m_pData + nIndex + i)->~TYPE();
; 604  : 	if (nMoveCount)

  00027	74 50		 je	 SHORT $LN9@DeleteTab

; 605  : 	{
; 606  : 		::ATL::Checked::memmove_s(m_pData + nIndex, (size_t)nMoveCount * sizeof(TYPE),

  00029	8b 87 90 00 00
	00		 mov	 eax, DWORD PTR [edi+144]
  0002f	c1 e2 02	 shl	 edx, 2
  00032	8d 0c 88	 lea	 ecx, DWORD PTR [eax+ecx*4]
  00035	8d 04 b0	 lea	 eax, DWORD PTR [eax+esi*4]
; File C:\Program Files (x86)\Windows Kits\10\Include\10.0.22000.0\ucrt\corecrt_memcpy_s.h

; 74   :         if (_SourceSize == 0)

  00038	85 d2		 test	 edx, edx
  0003a	74 2c		 je	 SHORT $LN27@DeleteTab

; 75   :         {
; 76   :             return 0;
; 77   :         }
; 78   : 
; 79   :         _CRT_MEMCPY_S_VALIDATE_RETURN_ERRCODE(_Destination != NULL,            EINVAL);

  0003c	85 c0		 test	 eax, eax
  0003e	75 19		 jne	 SHORT $LN15@DeleteTab
$LN28@DeleteTab:
; File C:\Program Files (x86)\Microsoft Visual Studio\2019\Community\VC\Tools\MSVC\14.29.30133\atlmfc\include\atlchecked.h

; 87   : 	ATLMFC_CRT_ERRORCHECK(::memmove_s(_S1, _S1max, _S2, _N));

  00040	ff 15 00 00 00
	00		 call	 DWORD PTR __imp___errno
  00046	c7 00 16 00 00
	00		 mov	 DWORD PTR [eax], 22	; 00000016H
  0004c	ff 15 00 00 00
	00		 call	 DWORD PTR __imp___invalid_parameter_noinfo
  00052	b8 16 00 00 00	 mov	 eax, 22			; 00000016H
  00057	eb 11		 jmp	 SHORT $LN13@DeleteTab
$LN15@DeleteTab:
; File C:\Program Files (x86)\Windows Kits\10\Include\10.0.22000.0\ucrt\corecrt_memcpy_s.h

; 80   :         _CRT_MEMCPY_S_VALIDATE_RETURN_ERRCODE(_Source != NULL,                 EINVAL);

  00059	85 c9		 test	 ecx, ecx
  0005b	74 e3		 je	 SHORT $LN28@DeleteTab

; 81   :         _CRT_MEMCPY_S_VALIDATE_RETURN_ERRCODE(_DestinationSize >= _SourceSize, ERANGE);
; 82   : 
; 83   :         memmove(_Destination, _Source, _SourceSize);

  0005d	52		 push	 edx
  0005e	51		 push	 ecx
  0005f	50		 push	 eax
  00060	e8 00 00 00 00	 call	 _memmove
  00065	83 c4 0c	 add	 esp, 12			; 0000000cH
$LN27@DeleteTab:
; File C:\Program Files (x86)\Microsoft Visual Studio\2019\Community\VC\Tools\MSVC\14.29.30133\atlmfc\include\atlchecked.h

; 87   : 	ATLMFC_CRT_ERRORCHECK(::memmove_s(_S1, _S1max, _S2, _N));

  00068	33 c0		 xor	 eax, eax
$LN13@DeleteTab:
  0006a	50		 push	 eax
  0006b	e8 00 00 00 00	 call	 ?AfxCrtErrorCheck@@YAHH@Z ; AfxCrtErrorCheck
  00070	8b 87 94 00 00
	00		 mov	 eax, DWORD PTR [edi+148]
  00076	83 c4 04	 add	 esp, 4
$LN9@DeleteTab:
; File C:\Program Files (x86)\Microsoft Visual Studio\2019\Community\VC\Tools\MSVC\14.29.30133\atlmfc\include\afxcmn.inl

; 580  : 	{ ASSERT(::IsWindow(m_hWnd)); return (BOOL)::SendMessage(m_hWnd, TCM_DELETEITEM, nItem, 0L); }

  00079	6a 00		 push	 0
  0007b	56		 push	 esi
; File C:\Program Files (x86)\Microsoft Visual Studio\2019\Community\VC\Tools\MSVC\14.29.30133\atlmfc\include\afxtempl.h

; 609  : 	m_nSize -= nCount;

  0007c	48		 dec	 eax
; File C:\Program Files (x86)\Microsoft Visual Studio\2019\Community\VC\Tools\MSVC\14.29.30133\atlmfc\include\afxcmn.inl

; 580  : 	{ ASSERT(::IsWindow(m_hWnd)); return (BOOL)::SendMessage(m_hWnd, TCM_DELETEITEM, nItem, 0L); }

  0007d	68 08 13 00 00	 push	 4872			; 00001308H
; File C:\Program Files (x86)\Microsoft Visual Studio\2019\Community\VC\Tools\MSVC\14.29.30133\atlmfc\include\afxtempl.h

; 609  : 	m_nSize -= nCount;

  00082	89 87 94 00 00
	00		 mov	 DWORD PTR [edi+148], eax
; File C:\Program Files (x86)\Microsoft Visual Studio\2019\Community\VC\Tools\MSVC\14.29.30133\atlmfc\include\afxcmn.inl

; 580  : 	{ ASSERT(::IsWindow(m_hWnd)); return (BOOL)::SendMessage(m_hWnd, TCM_DELETEITEM, nItem, 0L); }

  00088	ff 77 20	 push	 DWORD PTR [edi+32]
  0008b	ff 15 00 00 00
	00		 call	 DWORD PTR __imp__SendMessageA@16
  00091	5f		 pop	 edi
  00092	5e		 pop	 esi
; File D:\git\src\IBK\IBK_DRFN\ProjSrc\SrcDrfn\Chart\INDEXOPTIMIZER\Control\XTabCtrl.cpp

; 168  : }

  00093	5d		 pop	 ebp
  00094	c2 04 00	 ret	 4
$LN8@DeleteTab:
; File C:\Program Files (x86)\Microsoft Visual Studio\2019\Community\VC\Tools\MSVC\14.29.30133\atlmfc\include\afxtempl.h

; 598  : 		AfxThrowInvalidArgException();

  00097	e8 00 00 00 00	 call	 ?AfxThrowInvalidArgException@@YGXXZ ; AfxThrowInvalidArgException
$LN26@DeleteTab:
  0009c	cc		 int	 3
?DeleteTab@CXTabCtrl@@QAEXH@Z ENDP			; CXTabCtrl::DeleteTab
_TEXT	ENDS
; Function compile flags: /Ogtp
; File D:\git\src\IBK\IBK_DRFN\ProjSrc\SrcDrfn\Chart\INDEXOPTIMIZER\Control\XTabCtrl.cpp
; File C:\Program Files (x86)\Microsoft Visual Studio\2019\Community\VC\Tools\MSVC\14.29.30133\atlmfc\include\afxtempl.h
; File C:\Program Files (x86)\Microsoft Visual Studio\2019\Community\VC\Tools\MSVC\14.29.30133\atlmfc\include\afxcmn.inl
; File C:\Program Files (x86)\Microsoft Visual Studio\2019\Community\VC\Tools\MSVC\14.29.30133\atlmfc\include\afxtempl.h
; File C:\Program Files (x86)\Microsoft Visual Studio\2019\Community\VC\Tools\MSVC\14.29.30133\atlmfc\include\afxcmn.inl
; File D:\git\src\IBK\IBK_DRFN\ProjSrc\SrcDrfn\Chart\INDEXOPTIMIZER\Control\XTabCtrl.cpp
;	COMDAT ?DeleteAllTabs@CXTabCtrl@@QAEXXZ
_TEXT	SEGMENT
?DeleteAllTabs@CXTabCtrl@@QAEXXZ PROC			; CXTabCtrl::DeleteAllTabs, COMDAT
; _this$ = ecx

; 154  : {

  00000	56		 push	 esi
  00001	8b f1		 mov	 esi, ecx
; File C:\Program Files (x86)\Microsoft Visual Studio\2019\Community\VC\Tools\MSVC\14.29.30133\atlmfc\include\afxtempl.h

; 381  : 		if (m_pData != NULL)

  00003	8b 86 90 00 00
	00		 mov	 eax, DWORD PTR [esi+144]
  00009	85 c0		 test	 eax, eax
  0000b	74 13		 je	 SHORT $LN25@DeleteAllT

; 382  : 		{
; 383  : 			for( int i = 0; i < m_nSize; i++ )
; 384  : 				(m_pData + i)->~TYPE();
; 385  : 			delete[] (BYTE*)m_pData;

  0000d	50		 push	 eax
  0000e	e8 00 00 00 00	 call	 ??_V@YAXPAX@Z		; operator delete[]
  00013	83 c4 04	 add	 esp, 4

; 386  : 			m_pData = NULL;

  00016	c7 86 90 00 00
	00 00 00 00 00	 mov	 DWORD PTR [esi+144], 0
$LN25@DeleteAllT:
; File C:\Program Files (x86)\Microsoft Visual Studio\2019\Community\VC\Tools\MSVC\14.29.30133\atlmfc\include\afxcmn.inl

; 582  : 	{ ASSERT(::IsWindow(m_hWnd)); return (BOOL)::SendMessage(m_hWnd, TCM_DELETEALLITEMS, 0, 0L); }

  00020	6a 00		 push	 0
  00022	6a 00		 push	 0
  00024	68 09 13 00 00	 push	 4873			; 00001309H
; File C:\Program Files (x86)\Microsoft Visual Studio\2019\Community\VC\Tools\MSVC\14.29.30133\atlmfc\include\afxtempl.h

; 388  : 		m_nSize = m_nMaxSize = 0;

  00029	c7 86 98 00 00
	00 00 00 00 00	 mov	 DWORD PTR [esi+152], 0
  00033	c7 86 94 00 00
	00 00 00 00 00	 mov	 DWORD PTR [esi+148], 0
; File C:\Program Files (x86)\Microsoft Visual Studio\2019\Community\VC\Tools\MSVC\14.29.30133\atlmfc\include\afxcmn.inl

; 582  : 	{ ASSERT(::IsWindow(m_hWnd)); return (BOOL)::SendMessage(m_hWnd, TCM_DELETEALLITEMS, 0, 0L); }

  0003d	ff 76 20	 push	 DWORD PTR [esi+32]
  00040	ff 15 00 00 00
	00		 call	 DWORD PTR __imp__SendMessageA@16
  00046	5e		 pop	 esi
; File D:\git\src\IBK\IBK_DRFN\ProjSrc\SrcDrfn\Chart\INDEXOPTIMIZER\Control\XTabCtrl.cpp

; 159  : }

  00047	c3		 ret	 0
?DeleteAllTabs@CXTabCtrl@@QAEXXZ ENDP			; CXTabCtrl::DeleteAllTabs
_TEXT	ENDS
; Function compile flags: /Ogtp
; File D:\git\src\IBK\IBK_DRFN\ProjSrc\SrcDrfn\Chart\INDEXOPTIMIZER\Control\XTabCtrl.cpp
; File C:\Program Files (x86)\Microsoft Visual Studio\2019\Community\VC\Tools\MSVC\14.29.30133\atlmfc\include\afxcmn.inl
; File D:\git\src\IBK\IBK_DRFN\ProjSrc\SrcDrfn\Chart\INDEXOPTIMIZER\Control\XTabCtrl.cpp
; File C:\Program Files (x86)\Microsoft Visual Studio\2019\Community\VC\Tools\MSVC\14.29.30133\atlmfc\include\afxtempl.h
; File D:\git\src\IBK\IBK_DRFN\ProjSrc\SrcDrfn\Chart\INDEXOPTIMIZER\Control\XTabCtrl.cpp
; File C:\Program Files (x86)\Microsoft Visual Studio\2019\Community\VC\Tools\MSVC\14.29.30133\atlmfc\include\afxcmn.inl
; File D:\git\src\IBK\IBK_DRFN\ProjSrc\SrcDrfn\Chart\INDEXOPTIMIZER\Control\XTabCtrl.cpp
; File C:\Program Files (x86)\Microsoft Visual Studio\2019\Community\VC\Tools\MSVC\14.29.30133\atlmfc\include\afxcmn.inl
; File D:\git\src\IBK\IBK_DRFN\ProjSrc\SrcDrfn\Chart\INDEXOPTIMIZER\Control\XTabCtrl.cpp
; File C:\Program Files (x86)\Microsoft Visual Studio\2019\Community\VC\Tools\MSVC\14.29.30133\atlmfc\include\afxcmn.inl
; File D:\git\src\IBK\IBK_DRFN\ProjSrc\SrcDrfn\Chart\INDEXOPTIMIZER\Control\XTabCtrl.cpp
; File C:\Program Files (x86)\Microsoft Visual Studio\2019\Community\VC\Tools\MSVC\14.29.30133\atlmfc\include\afxwin2.inl
; File C:\Program Files (x86)\Microsoft Visual Studio\2019\Community\VC\Tools\MSVC\14.29.30133\atlmfc\include\atltypes.h
; File C:\Program Files (x86)\Microsoft Visual Studio\2019\Community\VC\Tools\MSVC\14.29.30133\atlmfc\include\afxwin2.inl
; File D:\git\src\IBK\IBK_DRFN\ProjSrc\SrcDrfn\Chart\INDEXOPTIMIZER\Control\XTabCtrl.cpp
; File C:\Program Files (x86)\Microsoft Visual Studio\2019\Community\VC\Tools\MSVC\14.29.30133\atlmfc\include\afxtempl.h
; File D:\git\src\IBK\IBK_DRFN\ProjSrc\SrcDrfn\Chart\INDEXOPTIMIZER\Control\XTabCtrl.cpp
;	COMDAT ?SelectTab@CXTabCtrl@@QAEHH@Z
_TEXT	SEGMENT
_item$1 = -48						; size = 28
_rcTab$2 = -20						; size = 16
__$ArrayPad$ = -4					; size = 4
_iIndex$ = 8						; size = 4
?SelectTab@CXTabCtrl@@QAEHH@Z PROC			; CXTabCtrl::SelectTab, COMDAT
