; Listing generated by Microsoft (R) Optimizing Compiler Version 19.29.30145.0 

	TITLE	D:\git\src\IBK\IBK_DRFN\#DRfn-CS\_Obj\ExControl\CtlInterpace.obj
	.686P
	.XMM
	include listing.inc
	.model	flat

INCLUDELIB MSVCRT
INCLUDELIB OLDNAMES

PUBLIC	??_C@_0P@BKKCOCLK@RMSG_INTERFACE@		; `string'
PUBLIC	??_C@_0BB@GOOPDKI@RMSG_GETPCTRDATA@		; `string'
PUBLIC	??_C@_0BB@JPACFCL@RMSG_SETPCTRDATA@		; `string'
;	COMDAT ??_C@_0BB@JPACFCL@RMSG_SETPCTRDATA@
CONST	SEGMENT
??_C@_0BB@JPACFCL@RMSG_SETPCTRDATA@ DB 'RMSG_SETPCTRDATA', 00H ; `string'
CONST	ENDS
;	COMDAT ??_C@_0BB@GOOPDKI@RMSG_GETPCTRDATA@
CONST	SEGMENT
??_C@_0BB@GOOPDKI@RMSG_GETPCTRDATA@ DB 'RMSG_GETPCTRDATA', 00H ; `string'
CONST	ENDS
;	COMDAT ??_C@_0P@BKKCOCLK@RMSG_INTERFACE@
CONST	SEGMENT
??_C@_0P@BKKCOCLK@RMSG_INTERFACE@ DB 'RMSG_INTERFACE', 00H ; `string'
CONST	ENDS
PUBLIC	?__empty_global_delete@@YAXPAX@Z		; __empty_global_delete
PUBLIC	?__empty_global_delete@@YAXPAXI@Z		; __empty_global_delete
PUBLIC	?AddRef@XPlatformObj@CExOCXDLL@@UAGKXZ		; CExOCXDLL::XPlatformObj::AddRef
PUBLIC	?Release@XPlatformObj@CExOCXDLL@@UAGKXZ		; CExOCXDLL::XPlatformObj::Release
PUBLIC	?QueryInterface@XPlatformObj@CExOCXDLL@@UAGJABU_GUID@@PAPAX@Z ; CExOCXDLL::XPlatformObj::QueryInterface
PUBLIC	?PFGetBase@XPlatformObj@CExOCXDLL@@UAGJPBD@Z	; CExOCXDLL::XPlatformObj::PFGetBase
PUBLIC	?PFGetKey@XPlatformObj@CExOCXDLL@@UAGJPBD@Z	; CExOCXDLL::XPlatformObj::PFGetKey
PUBLIC	?PFSetKey@XPlatformObj@CExOCXDLL@@UAGXPBDJ@Z	; CExOCXDLL::XPlatformObj::PFSetKey
PUBLIC	?PFInitialize@XPlatformObj@CExOCXDLL@@UAGXJJJPAVCStringList@@@Z ; CExOCXDLL::XPlatformObj::PFInitialize
PUBLIC	?PFSetProperty@XPlatformObj@CExOCXDLL@@UAGXPAUSTDATAITEM@@H@Z ; CExOCXDLL::XPlatformObj::PFSetProperty
PUBLIC	?PFGetState@XPlatformObj@CExOCXDLL@@UAGJHJJ@Z	; CExOCXDLL::XPlatformObj::PFGetState
PUBLIC	?PFSetState@XPlatformObj@CExOCXDLL@@UAGJHJJ@Z	; CExOCXDLL::XPlatformObj::PFSetState
PUBLIC	?PFWindowProc@XPlatformObj@CExOCXDLL@@UAGJIIJAAH@Z ; CExOCXDLL::XPlatformObj::PFWindowProc
PUBLIC	?PFPreTranslateMessage@XPlatformObj@CExOCXDLL@@UAGJPAUtagMSG@@@Z ; CExOCXDLL::XPlatformObj::PFPreTranslateMessage
PUBLIC	?AddRef@XWndObj@CExOCXDLL@@UAGKXZ		; CExOCXDLL::XWndObj::AddRef
PUBLIC	?Release@XWndObj@CExOCXDLL@@UAGKXZ		; CExOCXDLL::XWndObj::Release
PUBLIC	?QueryInterface@XWndObj@CExOCXDLL@@UAGJABU_GUID@@PAPAX@Z ; CExOCXDLL::XWndObj::QueryInterface
PUBLIC	?OnSize@XWndObj@CExOCXDLL@@UAGXIHH@Z		; CExOCXDLL::XWndObj::OnSize
EXTRN	__imp__RegisterWindowMessageA@4:PROC
_BSS	SEGMENT
?RMSG_INTERFACE@@3IB DD 01H DUP (?)			; RMSG_INTERFACE
?RMSG_GETPCTRDATA@@3IB DD 01H DUP (?)			; RMSG_GETPCTRDATA
?RMSG_SETPCTRDATA@@3IB DD 01H DUP (?)			; RMSG_SETPCTRDATA
_BSS	ENDS
CRT$XCU	SEGMENT
?RMSG_INTERFACE$initializer$@@3P6AXXZA DD FLAT:??__ERMSG_INTERFACE@@YAXXZ ; RMSG_INTERFACE$initializer$
CRT$XCU	ENDS
CRT$XCU	SEGMENT
?RMSG_GETPCTRDATA$initializer$@@3P6AXXZA DD FLAT:??__ERMSG_GETPCTRDATA@@YAXXZ ; RMSG_GETPCTRDATA$initializer$
CRT$XCU	ENDS
CRT$XCU	SEGMENT
?RMSG_SETPCTRDATA$initializer$@@3P6AXXZA DD FLAT:??__ERMSG_SETPCTRDATA@@YAXXZ ; RMSG_SETPCTRDATA$initializer$
CRT$XCU	ENDS
; Function compile flags: /Ogtp
; File D:\git\src\IBK\IBK_DRFN\ProjSrc\SrcDrfn\Chart\ExControl\CtlInterpace.cpp
;	COMDAT ?OnSize@XWndObj@CExOCXDLL@@UAGXIHH@Z
_TEXT	SEGMENT
_this$ = 8						; size = 4
_nType$ = 12						; size = 4
_cx$ = 16						; size = 4
_cy$ = 20						; size = 4
?OnSize@XWndObj@CExOCXDLL@@UAGXIHH@Z PROC		; CExOCXDLL::XWndObj::OnSize, COMDAT

; 68   : {

  00000	55		 push	 ebp
  00001	8b ec		 mov	 ebp, esp

; 69   : 	AZMETHOD_PROLOGUE(CExOCXDLL, WndObj)

  00003	8b 4d 08	 mov	 ecx, DWORD PTR _this$[ebp]

; 70   : 	pThis->Platform_OnSize(nType, cx, cy);

  00006	ff 75 14	 push	 DWORD PTR _cy$[ebp]
  00009	81 c1 fc fd ff
	ff		 add	 ecx, -516		; fffffdfcH
  0000f	ff 75 10	 push	 DWORD PTR _cx$[ebp]
  00012	ff 75 0c	 push	 DWORD PTR _nType$[ebp]
  00015	8b 01		 mov	 eax, DWORD PTR [ecx]
  00017	ff 90 d4 01 00
	00		 call	 DWORD PTR [eax+468]

; 71   : }

  0001d	5d		 pop	 ebp
  0001e	c2 10 00	 ret	 16			; 00000010H
?OnSize@XWndObj@CExOCXDLL@@UAGXIHH@Z ENDP		; CExOCXDLL::XWndObj::OnSize
_TEXT	ENDS
; Function compile flags: /Ogtp
; File D:\git\src\IBK\IBK_DRFN\ProjSrc\SrcDrfn\Chart\ExControl\CtlInterpace.cpp
;	COMDAT ?QueryInterface@XWndObj@CExOCXDLL@@UAGJABU_GUID@@PAPAX@Z
_TEXT	SEGMENT
_this$ = 8						; size = 4
_riid$ = 12						; size = 4
_lplpObj$ = 16						; size = 4
?QueryInterface@XWndObj@CExOCXDLL@@UAGJABU_GUID@@PAPAX@Z PROC ; CExOCXDLL::XWndObj::QueryInterface, COMDAT

; 65   : HRESULT CExOCXDLL::XWndObj::QueryInterface(THIS_ REFIID riid, LPVOID FAR * lplpObj){ return S_OK;}

  00000	33 c0		 xor	 eax, eax
  00002	c2 0c 00	 ret	 12			; 0000000cH
?QueryInterface@XWndObj@CExOCXDLL@@UAGJABU_GUID@@PAPAX@Z ENDP ; CExOCXDLL::XWndObj::QueryInterface
_TEXT	ENDS
; Function compile flags: /Ogtp
; File D:\git\src\IBK\IBK_DRFN\ProjSrc\SrcDrfn\Chart\ExControl\CtlInterpace.cpp
;	COMDAT ?Release@XWndObj@CExOCXDLL@@UAGKXZ
_TEXT	SEGMENT
_this$ = 8						; size = 4
?Release@XWndObj@CExOCXDLL@@UAGKXZ PROC			; CExOCXDLL::XWndObj::Release, COMDAT

; 64   : ULONG CExOCXDLL::XWndObj::Release(){ return S_OK;}

  00000	33 c0		 xor	 eax, eax
  00002	c2 04 00	 ret	 4
?Release@XWndObj@CExOCXDLL@@UAGKXZ ENDP			; CExOCXDLL::XWndObj::Release
_TEXT	ENDS
; Function compile flags: /Ogtp
; File D:\git\src\IBK\IBK_DRFN\ProjSrc\SrcDrfn\Chart\ExControl\CtlInterpace.cpp
;	COMDAT ?AddRef@XWndObj@CExOCXDLL@@UAGKXZ
_TEXT	SEGMENT
_this$ = 8						; size = 4
?AddRef@XWndObj@CExOCXDLL@@UAGKXZ PROC			; CExOCXDLL::XWndObj::AddRef, COMDAT

; 63   : ULONG CExOCXDLL::XWndObj::AddRef() { return S_OK;}

  00000	33 c0		 xor	 eax, eax
  00002	c2 04 00	 ret	 4
?AddRef@XWndObj@CExOCXDLL@@UAGKXZ ENDP			; CExOCXDLL::XWndObj::AddRef
_TEXT	ENDS
; Function compile flags: /Ogtp
; File D:\git\src\IBK\IBK_DRFN\ProjSrc\SrcDrfn\Chart\ExControl\CtlInterpace.cpp
;	COMDAT ?PFPreTranslateMessage@XPlatformObj@CExOCXDLL@@UAGJPAUtagMSG@@@Z
_TEXT	SEGMENT
_this$ = 8						; size = 4
_pMsg$ = 12						; size = 4
?PFPreTranslateMessage@XPlatformObj@CExOCXDLL@@UAGJPAUtagMSG@@@Z PROC ; CExOCXDLL::XPlatformObj::PFPreTranslateMessage, COMDAT

; 58   : {

  00000	55		 push	 ebp
  00001	8b ec		 mov	 ebp, esp

; 59   : 	AZMETHOD_PROLOGUE(CExOCXDLL, PlatformObj)

  00003	8b 4d 08	 mov	 ecx, DWORD PTR _this$[ebp]

; 60   : 	return pThis->Platform_PreTranslateMessage(pMsg);

  00006	ff 75 0c	 push	 DWORD PTR _pMsg$[ebp]
  00009	81 c1 00 fe ff
	ff		 add	 ecx, -512		; fffffe00H
  0000f	8b 01		 mov	 eax, DWORD PTR [ecx]
  00011	ff 90 d0 01 00
	00		 call	 DWORD PTR [eax+464]

; 61   : }

  00017	5d		 pop	 ebp
  00018	c2 08 00	 ret	 8
?PFPreTranslateMessage@XPlatformObj@CExOCXDLL@@UAGJPAUtagMSG@@@Z ENDP ; CExOCXDLL::XPlatformObj::PFPreTranslateMessage
_TEXT	ENDS
; Function compile flags: /Ogtp
; File D:\git\src\IBK\IBK_DRFN\ProjSrc\SrcDrfn\Chart\ExControl\CtlInterpace.cpp
;	COMDAT ?PFWindowProc@XPlatformObj@CExOCXDLL@@UAGJIIJAAH@Z
_TEXT	SEGMENT
_this$ = 8						; size = 4
_message$ = 12						; size = 4
_wParam$ = 16						; size = 4
_lParam$ = 20						; size = 4
_nContinue$ = 24					; size = 4
?PFWindowProc@XPlatformObj@CExOCXDLL@@UAGJIIJAAH@Z PROC	; CExOCXDLL::XPlatformObj::PFWindowProc, COMDAT

; 52   : {

  00000	55		 push	 ebp
  00001	8b ec		 mov	 ebp, esp

; 53   : 	AZMETHOD_PROLOGUE(CExOCXDLL, PlatformObj)
; 54   : 	return pThis->Platform_WindowProc(message, wParam, lParam, nContinue);

  00003	ff 75 18	 push	 DWORD PTR _nContinue$[ebp]
  00006	8b 4d 08	 mov	 ecx, DWORD PTR _this$[ebp]
  00009	ff 75 14	 push	 DWORD PTR _lParam$[ebp]
  0000c	81 c1 00 fe ff
	ff		 add	 ecx, -512		; fffffe00H
  00012	ff 75 10	 push	 DWORD PTR _wParam$[ebp]
  00015	ff 75 0c	 push	 DWORD PTR _message$[ebp]
  00018	8b 01		 mov	 eax, DWORD PTR [ecx]
  0001a	ff 90 cc 01 00
	00		 call	 DWORD PTR [eax+460]

; 55   : }

  00020	5d		 pop	 ebp
  00021	c2 14 00	 ret	 20			; 00000014H
?PFWindowProc@XPlatformObj@CExOCXDLL@@UAGJIIJAAH@Z ENDP	; CExOCXDLL::XPlatformObj::PFWindowProc
_TEXT	ENDS
; Function compile flags: /Ogtp
; File D:\git\src\IBK\IBK_DRFN\ProjSrc\SrcDrfn\Chart\ExControl\CtlInterpace.cpp
;	COMDAT ?PFSetState@XPlatformObj@CExOCXDLL@@UAGJHJJ@Z
_TEXT	SEGMENT
_this$ = 8						; size = 4
_nStatus$ = 12						; size = 4
_dwData1$ = 16						; size = 4
_dwData2$ = 20						; size = 4
?PFSetState@XPlatformObj@CExOCXDLL@@UAGJHJJ@Z PROC	; CExOCXDLL::XPlatformObj::PFSetState, COMDAT

; 46   : {

  00000	55		 push	 ebp
  00001	8b ec		 mov	 ebp, esp

; 47   : 	AZMETHOD_PROLOGUE(CExOCXDLL, PlatformObj)

  00003	8b 4d 08	 mov	 ecx, DWORD PTR _this$[ebp]

; 48   : 	return pThis->Platform_SetState(nStatus, dwData1, dwData2);

  00006	ff 75 14	 push	 DWORD PTR _dwData2$[ebp]
  00009	81 c1 00 fe ff
	ff		 add	 ecx, -512		; fffffe00H
  0000f	ff 75 10	 push	 DWORD PTR _dwData1$[ebp]
  00012	ff 75 0c	 push	 DWORD PTR _nStatus$[ebp]
  00015	8b 01		 mov	 eax, DWORD PTR [ecx]
  00017	ff 90 c8 01 00
	00		 call	 DWORD PTR [eax+456]

; 49   : }

  0001d	5d		 pop	 ebp
  0001e	c2 10 00	 ret	 16			; 00000010H
?PFSetState@XPlatformObj@CExOCXDLL@@UAGJHJJ@Z ENDP	; CExOCXDLL::XPlatformObj::PFSetState
_TEXT	ENDS
; Function compile flags: /Ogtp
; File D:\git\src\IBK\IBK_DRFN\ProjSrc\SrcDrfn\Chart\ExControl\CtlInterpace.cpp
;	COMDAT ?PFGetState@XPlatformObj@CExOCXDLL@@UAGJHJJ@Z
_TEXT	SEGMENT
_this$ = 8						; size = 4
_nStatus$ = 12						; size = 4
_dwData1$ = 16						; size = 4
_dwData2$ = 20						; size = 4
?PFGetState@XPlatformObj@CExOCXDLL@@UAGJHJJ@Z PROC	; CExOCXDLL::XPlatformObj::PFGetState, COMDAT

; 40   : {

  00000	55		 push	 ebp
  00001	8b ec		 mov	 ebp, esp

; 41   : 	AZMETHOD_PROLOGUE(CExOCXDLL, PlatformObj)

  00003	8b 4d 08	 mov	 ecx, DWORD PTR _this$[ebp]

; 42   : 	return pThis->Platform_GetState(nStatus, dwData1, dwData2);

  00006	ff 75 14	 push	 DWORD PTR _dwData2$[ebp]
  00009	81 c1 00 fe ff
	ff		 add	 ecx, -512		; fffffe00H
  0000f	ff 75 10	 push	 DWORD PTR _dwData1$[ebp]
  00012	ff 75 0c	 push	 DWORD PTR _nStatus$[ebp]
  00015	8b 01		 mov	 eax, DWORD PTR [ecx]
  00017	ff 90 c4 01 00
	00		 call	 DWORD PTR [eax+452]

; 43   : }

  0001d	5d		 pop	 ebp
  0001e	c2 10 00	 ret	 16			; 00000010H
?PFGetState@XPlatformObj@CExOCXDLL@@UAGJHJJ@Z ENDP	; CExOCXDLL::XPlatformObj::PFGetState
_TEXT	ENDS
; Function compile flags: /Ogtp
; File D:\git\src\IBK\IBK_DRFN\ProjSrc\SrcDrfn\Chart\ExControl\CtlInterpace.cpp
;	COMDAT ?PFSetProperty@XPlatformObj@CExOCXDLL@@UAGXPAUSTDATAITEM@@H@Z
_TEXT	SEGMENT
_this$ = 8						; size = 4
_stData$ = 12						; size = 4
_nDataCnt$ = 16						; size = 4
?PFSetProperty@XPlatformObj@CExOCXDLL@@UAGXPAUSTDATAITEM@@H@Z PROC ; CExOCXDLL::XPlatformObj::PFSetProperty, COMDAT

; 34   : {

  00000	55		 push	 ebp
  00001	8b ec		 mov	 ebp, esp

; 35   : 	AZMETHOD_PROLOGUE(CExOCXDLL, PlatformObj)

  00003	8b 4d 08	 mov	 ecx, DWORD PTR _this$[ebp]

; 36   : 	pThis->Platform_SetProperty(stData, nDataCnt);

  00006	ff 75 10	 push	 DWORD PTR _nDataCnt$[ebp]
  00009	81 c1 00 fe ff
	ff		 add	 ecx, -512		; fffffe00H
  0000f	ff 75 0c	 push	 DWORD PTR _stData$[ebp]
  00012	8b 01		 mov	 eax, DWORD PTR [ecx]
  00014	ff 90 c0 01 00
	00		 call	 DWORD PTR [eax+448]

; 37   : }

  0001a	5d		 pop	 ebp
  0001b	c2 0c 00	 ret	 12			; 0000000cH
?PFSetProperty@XPlatformObj@CExOCXDLL@@UAGXPAUSTDATAITEM@@H@Z ENDP ; CExOCXDLL::XPlatformObj::PFSetProperty
_TEXT	ENDS
; Function compile flags: /Ogtp
; File D:\git\src\IBK\IBK_DRFN\ProjSrc\SrcDrfn\Chart\ExControl\CtlInterpace.cpp
;	COMDAT ?PFInitialize@XPlatformObj@CExOCXDLL@@UAGXJJJPAVCStringList@@@Z
_TEXT	SEGMENT
_this$ = 8						; size = 4
_dwMainDllObj$ = 12					; size = 4
_dwBaseDesk$ = 16					; size = 4
_dwRscMng$ = 20						; size = 4
_pAllProperties$ = 24					; size = 4
?PFInitialize@XPlatformObj@CExOCXDLL@@UAGXJJJPAVCStringList@@@Z PROC ; CExOCXDLL::XPlatformObj::PFInitialize, COMDAT

; 28   : {

  00000	55		 push	 ebp
  00001	8b ec		 mov	 ebp, esp

; 29   : 	AZMETHOD_PROLOGUE(CExOCXDLL, PlatformObj)
; 30   : 	pThis->Platform_Initialize(dwMainDllObj, dwBaseDesk, dwRscMng, pAllProperties);

  00003	ff 75 18	 push	 DWORD PTR _pAllProperties$[ebp]
  00006	8b 4d 08	 mov	 ecx, DWORD PTR _this$[ebp]
  00009	ff 75 14	 push	 DWORD PTR _dwRscMng$[ebp]
  0000c	81 c1 00 fe ff
	ff		 add	 ecx, -512		; fffffe00H
  00012	ff 75 10	 push	 DWORD PTR _dwBaseDesk$[ebp]
  00015	ff 75 0c	 push	 DWORD PTR _dwMainDllObj$[ebp]
  00018	8b 01		 mov	 eax, DWORD PTR [ecx]
  0001a	ff 90 bc 01 00
	00		 call	 DWORD PTR [eax+444]

; 31   : }

  00020	5d		 pop	 ebp
  00021	c2 14 00	 ret	 20			; 00000014H
?PFInitialize@XPlatformObj@CExOCXDLL@@UAGXJJJPAVCStringList@@@Z ENDP ; CExOCXDLL::XPlatformObj::PFInitialize
_TEXT	ENDS
; Function compile flags: /Ogtp
; File D:\git\src\IBK\IBK_DRFN\ProjSrc\SrcDrfn\Chart\ExControl\CtlInterpace.cpp
;	COMDAT ?PFSetKey@XPlatformObj@CExOCXDLL@@UAGXPBDJ@Z
_TEXT	SEGMENT
_this$ = 8						; size = 4
_szKey$ = 12						; size = 4
_dwKey$ = 16						; size = 4
?PFSetKey@XPlatformObj@CExOCXDLL@@UAGXPBDJ@Z PROC	; CExOCXDLL::XPlatformObj::PFSetKey, COMDAT

; 21   : {

  00000	55		 push	 ebp
  00001	8b ec		 mov	 ebp, esp

; 22   : 	AZMETHOD_PROLOGUE(CExOCXDLL, PlatformObj)

  00003	8b 4d 08	 mov	 ecx, DWORD PTR _this$[ebp]

; 23   : 	pThis->Platform_SetKey(szKey, dwKey);

  00006	ff 75 10	 push	 DWORD PTR _dwKey$[ebp]
  00009	81 c1 00 fe ff
	ff		 add	 ecx, -512		; fffffe00H
  0000f	ff 75 0c	 push	 DWORD PTR _szKey$[ebp]
  00012	8b 01		 mov	 eax, DWORD PTR [ecx]
  00014	ff 90 b8 01 00
	00		 call	 DWORD PTR [eax+440]

; 24   : }

  0001a	5d		 pop	 ebp
  0001b	c2 0c 00	 ret	 12			; 0000000cH
?PFSetKey@XPlatformObj@CExOCXDLL@@UAGXPBDJ@Z ENDP	; CExOCXDLL::XPlatformObj::PFSetKey
_TEXT	ENDS
; Function compile flags: /Ogtp
; File D:\git\src\IBK\IBK_DRFN\ProjSrc\SrcDrfn\Chart\ExControl\CtlInterpace.cpp
;	COMDAT ?PFGetKey@XPlatformObj@CExOCXDLL@@UAGJPBD@Z
_TEXT	SEGMENT
_this$ = 8						; size = 4
_szKey$ = 12						; size = 4
?PFGetKey@XPlatformObj@CExOCXDLL@@UAGJPBD@Z PROC	; CExOCXDLL::XPlatformObj::PFGetKey, COMDAT

; 15   : {

  00000	55		 push	 ebp
  00001	8b ec		 mov	 ebp, esp

; 16   : 	AZMETHOD_PROLOGUE(CExOCXDLL, PlatformObj)

  00003	8b 4d 08	 mov	 ecx, DWORD PTR _this$[ebp]

; 17   : 	return pThis->Platform_GetKey(szKey);

  00006	ff 75 0c	 push	 DWORD PTR _szKey$[ebp]
  00009	81 c1 00 fe ff
	ff		 add	 ecx, -512		; fffffe00H
  0000f	8b 01		 mov	 eax, DWORD PTR [ecx]
  00011	ff 90 b4 01 00
	00		 call	 DWORD PTR [eax+436]

; 18   : }

  00017	5d		 pop	 ebp
  00018	c2 08 00	 ret	 8
?PFGetKey@XPlatformObj@CExOCXDLL@@UAGJPBD@Z ENDP	; CExOCXDLL::XPlatformObj::PFGetKey
_TEXT	ENDS
; Function compile flags: /Ogtp
; File D:\git\src\IBK\IBK_DRFN\ProjSrc\SrcDrfn\Chart\ExControl\CtlInterpace.cpp
;	COMDAT ?PFGetBase@XPlatformObj@CExOCXDLL@@UAGJPBD@Z
_TEXT	SEGMENT
_this$ = 8						; size = 4
_szKey$ = 12						; size = 4
?PFGetBase@XPlatformObj@CExOCXDLL@@UAGJPBD@Z PROC	; CExOCXDLL::XPlatformObj::PFGetBase, COMDAT

; 9    : {

  00000	55		 push	 ebp
  00001	8b ec		 mov	 ebp, esp

; 10   : 	AZMETHOD_PROLOGUE(CExOCXDLL, PlatformObj)

  00003	8b 4d 08	 mov	 ecx, DWORD PTR _this$[ebp]

; 11   : 	return pThis->Platform_GetBase(szKey);

  00006	ff 75 0c	 push	 DWORD PTR _szKey$[ebp]
  00009	81 c1 00 fe ff
	ff		 add	 ecx, -512		; fffffe00H
  0000f	8b 01		 mov	 eax, DWORD PTR [ecx]
  00011	ff 90 b0 01 00
	00		 call	 DWORD PTR [eax+432]

; 12   : }

  00017	5d		 pop	 ebp
  00018	c2 08 00	 ret	 8
?PFGetBase@XPlatformObj@CExOCXDLL@@UAGJPBD@Z ENDP	; CExOCXDLL::XPlatformObj::PFGetBase
_TEXT	ENDS
; Function compile flags: /Ogtp
; File D:\git\src\IBK\IBK_DRFN\ProjSrc\SrcDrfn\Chart\ExControl\CtlInterpace.cpp
;	COMDAT ?QueryInterface@XPlatformObj@CExOCXDLL@@UAGJABU_GUID@@PAPAX@Z
_TEXT	SEGMENT
_this$ = 8						; size = 4
_riid$ = 12						; size = 4
_lplpObj$ = 16						; size = 4
?QueryInterface@XPlatformObj@CExOCXDLL@@UAGJABU_GUID@@PAPAX@Z PROC ; CExOCXDLL::XPlatformObj::QueryInterface, COMDAT

; 6    : HRESULT CExOCXDLL::XPlatformObj::QueryInterface(THIS_ REFIID riid, LPVOID FAR * lplpObj){ return S_OK;}

  00000	33 c0		 xor	 eax, eax
  00002	c2 0c 00	 ret	 12			; 0000000cH
?QueryInterface@XPlatformObj@CExOCXDLL@@UAGJABU_GUID@@PAPAX@Z ENDP ; CExOCXDLL::XPlatformObj::QueryInterface
_TEXT	ENDS
; Function compile flags: /Ogtp
; File D:\git\src\IBK\IBK_DRFN\ProjSrc\SrcDrfn\Chart\ExControl\CtlInterpace.cpp
;	COMDAT ?Release@XPlatformObj@CExOCXDLL@@UAGKXZ
_TEXT	SEGMENT
_this$ = 8						; size = 4
?Release@XPlatformObj@CExOCXDLL@@UAGKXZ PROC		; CExOCXDLL::XPlatformObj::Release, COMDAT

; 5    : ULONG CExOCXDLL::XPlatformObj::Release(){ return S_OK;}

  00000	33 c0		 xor	 eax, eax
  00002	c2 04 00	 ret	 4
?Release@XPlatformObj@CExOCXDLL@@UAGKXZ ENDP		; CExOCXDLL::XPlatformObj::Release
_TEXT	ENDS
; Function compile flags: /Ogtp
; File D:\git\src\IBK\IBK_DRFN\ProjSrc\SrcDrfn\Chart\ExControl\CtlInterpace.cpp
;	COMDAT ?AddRef@XPlatformObj@CExOCXDLL@@UAGKXZ
_TEXT	SEGMENT
_this$ = 8						; size = 4
?AddRef@XPlatformObj@CExOCXDLL@@UAGKXZ PROC		; CExOCXDLL::XPlatformObj::AddRef, COMDAT

; 4    : ULONG  CExOCXDLL::XPlatformObj::AddRef() { return S_OK;}

  00000	33 c0		 xor	 eax, eax
  00002	c2 04 00	 ret	 4
?AddRef@XPlatformObj@CExOCXDLL@@UAGKXZ ENDP		; CExOCXDLL::XPlatformObj::AddRef
_TEXT	ENDS
; Function compile flags: /Ogtp
; File D:\git\src\IBK\IBK_DRFN\ProjSrc\SrcDrfn\Inc\IBaseDefine.h
;	COMDAT ??__ERMSG_SETPCTRDATA@@YAXXZ
text$di	SEGMENT
??__ERMSG_SETPCTRDATA@@YAXXZ PROC			; `dynamic initializer for 'RMSG_SETPCTRDATA'', COMDAT

; 172  : const UINT RMSG_SETPCTRDATA = ::RegisterWindowMessage("RMSG_SETPCTRDATA");

  00000	68 00 00 00 00	 push	 OFFSET ??_C@_0BB@JPACFCL@RMSG_SETPCTRDATA@
  00005	ff 15 00 00 00
	00		 call	 DWORD PTR __imp__RegisterWindowMessageA@4
  0000b	a3 00 00 00 00	 mov	 DWORD PTR ?RMSG_SETPCTRDATA@@3IB, eax
  00010	c3		 ret	 0
??__ERMSG_SETPCTRDATA@@YAXXZ ENDP			; `dynamic initializer for 'RMSG_SETPCTRDATA''
text$di	ENDS
; Function compile flags: /Ogtp
; File D:\git\src\IBK\IBK_DRFN\ProjSrc\SrcDrfn\Inc\IBaseDefine.h
;	COMDAT ??__ERMSG_GETPCTRDATA@@YAXXZ
text$di	SEGMENT
??__ERMSG_GETPCTRDATA@@YAXXZ PROC			; `dynamic initializer for 'RMSG_GETPCTRDATA'', COMDAT

; 171  : const UINT RMSG_GETPCTRDATA = ::RegisterWindowMessage("RMSG_GETPCTRDATA");

  00000	68 00 00 00 00	 push	 OFFSET ??_C@_0BB@GOOPDKI@RMSG_GETPCTRDATA@
  00005	ff 15 00 00 00
	00		 call	 DWORD PTR __imp__RegisterWindowMessageA@4
  0000b	a3 00 00 00 00	 mov	 DWORD PTR ?RMSG_GETPCTRDATA@@3IB, eax
  00010	c3		 ret	 0
??__ERMSG_GETPCTRDATA@@YAXXZ ENDP			; `dynamic initializer for 'RMSG_GETPCTRDATA''
text$di	ENDS
; Function compile flags: /Ogtp
; File D:\git\src\IBK\IBK_DRFN\ProjSrc\SrcDrfn\Inc\IBaseDefine.h
;	COMDAT ??__ERMSG_INTERFACE@@YAXXZ
text$di	SEGMENT
??__ERMSG_INTERFACE@@YAXXZ PROC				; `dynamic initializer for 'RMSG_INTERFACE'', COMDAT

; 170  : const UINT RMSG_INTERFACE = ::RegisterWindowMessage("RMSG_INTERFACE");

  00000	68 00 00 00 00	 push	 OFFSET ??_C@_0P@BKKCOCLK@RMSG_INTERFACE@
  00005	ff 15 00 00 00
	00		 call	 DWORD PTR __imp__RegisterWindowMessageA@4
  0000b	a3 00 00 00 00	 mov	 DWORD PTR ?RMSG_INTERFACE@@3IB, eax
  00010	c3		 ret	 0
??__ERMSG_INTERFACE@@YAXXZ ENDP				; `dynamic initializer for 'RMSG_INTERFACE''
text$di	ENDS
; Function compile flags: /Ogtp
; File D:\git\src\IBK\IBK_DRFN\ProjSrc\SrcDrfn\Chart\ExControl\CtlInterpace.cpp
;	COMDAT ?__empty_global_delete@@YAXPAXI@Z
_TEXT	SEGMENT
___formal$ = 8						; size = 4
___formal$ = 12						; size = 4
?__empty_global_delete@@YAXPAXI@Z PROC			; __empty_global_delete, COMDAT

  00000	c2 00 00	 ret	 0
?__empty_global_delete@@YAXPAXI@Z ENDP			; __empty_global_delete
_TEXT	ENDS
; Function compile flags: /Ogtp
; File D:\git\src\IBK\IBK_DRFN\ProjSrc\SrcDrfn\Chart\ExControl\CtlInterpace.cpp
;	COMDAT ?__empty_global_delete@@YAXPAX@Z
_TEXT	SEGMENT
___formal$ = 8						; size = 4
?__empty_global_delete@@YAXPAX@Z PROC			; __empty_global_delete, COMDAT

  00000	c2 00 00	 ret	 0
?__empty_global_delete@@YAXPAX@Z ENDP			; __empty_global_delete
_TEXT	ENDS
END
