; Listing generated by Microsoft (R) Optimizing Compiler Version 19.29.30145.0 

	TITLE	D:\git\src\IBK\IBK_DRFN\#DRfn-CS\_Obj\ExControl\CtrlGlobalSharedData.obj
	.686P
	.XMM
	include listing.inc
	.model	flat

INCLUDELIB MSVCRT
INCLUDELIB OLDNAMES

PUBLIC	??_C@_0P@BKKCOCLK@RMSG_INTERFACE@		; `string'
PUBLIC	??_C@_0BB@GOOPDKI@RMSG_GETPCTRDATA@		; `string'
PUBLIC	??_C@_0BB@JPACFCL@RMSG_SETPCTRDATA@		; `string'
;	COMDAT ??_C@_0BB@JPACFCL@RMSG_SETPCTRDATA@
CONST	SEGMENT
??_C@_0BB@JPACFCL@RMSG_SETPCTRDATA@ DB 'RMSG_SETPCTRDATA', 00H ; `string'
CONST	ENDS
;	COMDAT ??_C@_0BB@GOOPDKI@RMSG_GETPCTRDATA@
CONST	SEGMENT
??_C@_0BB@GOOPDKI@RMSG_GETPCTRDATA@ DB 'RMSG_GETPCTRDATA', 00H ; `string'
CONST	ENDS
;	COMDAT ??_C@_0P@BKKCOCLK@RMSG_INTERFACE@
CONST	SEGMENT
??_C@_0P@BKKCOCLK@RMSG_INTERFACE@ DB 'RMSG_INTERFACE', 00H ; `string'
CONST	ENDS
PUBLIC	?__empty_global_delete@@YAXPAX@Z		; __empty_global_delete
PUBLIC	?__empty_global_delete@@YAXPAXI@Z		; __empty_global_delete
PUBLIC	??0ST_GSHAREDFORMAT@@QAE@XZ			; ST_GSHAREDFORMAT::ST_GSHAREDFORMAT
PUBLIC	??1ST_GSHAREDFORMAT@@QAE@XZ			; ST_GSHAREDFORMAT::~ST_GSHAREDFORMAT
PUBLIC	?AddTail@?$CList@UST_GSHAREDFORMAT@@U1@@@QAEPAU__POSITION@@UST_GSHAREDFORMAT@@@Z ; CList<ST_GSHAREDFORMAT,ST_GSHAREDFORMAT>::AddTail
PUBLIC	?RemoveAll@?$CList@UST_GSHAREDFORMAT@@U1@@@QAEXXZ ; CList<ST_GSHAREDFORMAT,ST_GSHAREDFORMAT>::RemoveAll
PUBLIC	?NewNode@?$CList@UST_GSHAREDFORMAT@@U1@@@IAEPAUCNode@1@PAU21@0@Z ; CList<ST_GSHAREDFORMAT,ST_GSHAREDFORMAT>::NewNode
PUBLIC	?GetData@CGSharedCli@CExOCXDLL@@QAEHPBDAAV?$CStringT@DV?$StrTraitMFC_DLL@DV?$ChTraitsCRT@D@ATL@@@@@ATL@@@Z ; CExOCXDLL::CGSharedCli::GetData
PUBLIC	?GetData2@CGSharedCli@CExOCXDLL@@QAEPBDPBD@Z	; CExOCXDLL::CGSharedCli::GetData2
PUBLIC	?SetData@CGSharedCli@CExOCXDLL@@QAEHPBD0@Z	; CExOCXDLL::CGSharedCli::SetData
PUBLIC	?Advise@CGSharedCli@CExOCXDLL@@QAEHPBDPAVCGlobalSharedClient@@@Z ; CExOCXDLL::CGSharedCli::Advise
PUBLIC	?UnAdvise@CGSharedCli@CExOCXDLL@@QAEHPBDPAVCGlobalSharedClient@@@Z ; CExOCXDLL::CGSharedCli::UnAdvise
PUBLIC	?MakeList@CGSharedCli@CExOCXDLL@@QAEXV?$CStringT@DV?$StrTraitMFC_DLL@DV?$ChTraitsCRT@D@ATL@@@@@ATL@@@Z ; CExOCXDLL::CGSharedCli::MakeList
PUBLIC	?FindShareData@CGSharedCli@CExOCXDLL@@QAEPAU__POSITION@@PBD@Z ; CExOCXDLL::CGSharedCli::FindShareData
PUBLIC	?CallCheckSharedData@CGSharedCli@CExOCXDLL@@QAEXPBD@Z ; CExOCXDLL::CGSharedCli::CallCheckSharedData
PUBLIC	?AddSharedNameToServer@CGSharedCli@CExOCXDLL@@QAEHXZ ; CExOCXDLL::CGSharedCli::AddSharedNameToServer
PUBLIC	?RemoveSharedNameToServer@CGSharedCli@CExOCXDLL@@QAEHXZ ; CExOCXDLL::CGSharedCli::RemoveSharedNameToServer
PUBLIC	?IniStartGShareData@CGSharedCli@CExOCXDLL@@QAEXXZ ; CExOCXDLL::CGSharedCli::IniStartGShareData
PUBLIC	?ChangedData@CGSharedCli@CExOCXDLL@@UAEHPBD0@Z	; CExOCXDLL::CGSharedCli::ChangedData
PUBLIC	??_C@_00CNPNBAHC@@				; `string'
PUBLIC	??_C@_01ICJEACDI@?$DL@				; `string'
PUBLIC	??_C@_03CDFCEGNO@?$CFs?$DL@			; `string'
PUBLIC	??_C@_01NBENCBCI@?$CK@				; `string'
EXTRN	??3@YAXPAXI@Z:PROC				; operator delete
EXTRN	__imp__RegisterWindowMessageA@4:PROC
EXTRN	__imp__atoi:PROC
EXTRN	?AfxThrowInvalidArgException@@YGXXZ:PROC	; AfxThrowInvalidArgException
EXTRN	__imp_??A?$CSimpleStringT@D$00@ATL@@QBEDH@Z:PROC
EXTRN	__imp_??0?$CStringT@DV?$StrTraitMFC_DLL@DV?$ChTraitsCRT@D@ATL@@@@@ATL@@QAE@XZ:PROC
EXTRN	__imp_??0?$CStringT@DV?$StrTraitMFC_DLL@DV?$ChTraitsCRT@D@ATL@@@@@ATL@@QAE@ABV01@@Z:PROC
EXTRN	__imp_??0?$CStringT@DV?$StrTraitMFC_DLL@DV?$ChTraitsCRT@D@ATL@@@@@ATL@@QAE@PBD@Z:PROC
EXTRN	__imp_??1?$CStringT@DV?$StrTraitMFC_DLL@DV?$ChTraitsCRT@D@ATL@@@@@ATL@@QAE@XZ:PROC
EXTRN	__imp_??4?$CStringT@DV?$StrTraitMFC_DLL@DV?$ChTraitsCRT@D@ATL@@@@@ATL@@QAEAAV01@ABV01@@Z:PROC
EXTRN	__imp_??4?$CStringT@DV?$StrTraitMFC_DLL@DV?$ChTraitsCRT@D@ATL@@@@@ATL@@QAEAAV01@PBD@Z:PROC
EXTRN	__imp_??Y?$CStringT@DV?$StrTraitMFC_DLL@DV?$ChTraitsCRT@D@ATL@@@@@ATL@@QAEAAV01@ABV?$CSimpleStringT@D$00@1@@Z:PROC
EXTRN	__imp_??Y?$CStringT@DV?$StrTraitMFC_DLL@DV?$ChTraitsCRT@D@ATL@@@@@ATL@@QAEAAV01@PBD@Z:PROC
EXTRN	__imp_?CompareNoCase@?$CStringT@DV?$StrTraitMFC_DLL@DV?$ChTraitsCRT@D@ATL@@@@@ATL@@QBEHPBD@Z:PROC
EXTRN	__imp_?Remove@?$CStringT@DV?$StrTraitMFC_DLL@DV?$ChTraitsCRT@D@ATL@@@@@ATL@@QAEHD@Z:PROC
EXTRN	__imp_?Find@?$CStringT@DV?$StrTraitMFC_DLL@DV?$ChTraitsCRT@D@ATL@@@@@ATL@@QBEHPBDH@Z:PROC
EXTRN	__imp_?TrimRight@?$CStringT@DV?$StrTraitMFC_DLL@DV?$ChTraitsCRT@D@ATL@@@@@ATL@@QAEAAV12@XZ:PROC
EXTRN	__imp_?TrimLeft@?$CStringT@DV?$StrTraitMFC_DLL@DV?$ChTraitsCRT@D@ATL@@@@@ATL@@QAEAAV12@XZ:PROC
EXTRN	__imp_?Mid@?$CStringT@DV?$StrTraitMFC_DLL@DV?$ChTraitsCRT@D@ATL@@@@@ATL@@QBE?AV12@H@Z:PROC
EXTRN	__imp_?Left@?$CStringT@DV?$StrTraitMFC_DLL@DV?$ChTraitsCRT@D@ATL@@@@@ATL@@QBE?AV12@H@Z:PROC
EXTRN	__imp_?Format@?$CStringT@DV?$StrTraitMFC_DLL@DV?$ChTraitsCRT@D@ATL@@@@@ATL@@QAAXPBDZZ:PROC
EXTRN	?Create@CPlex@@SGPAU1@AAPAU1@II@Z:PROC		; CPlex::Create
EXTRN	?FreeDataChain@CPlex@@QAEXXZ:PROC		; CPlex::FreeDataChain
EXTRN	@__security_check_cookie@4:PROC
EXTRN	___CxxFrameHandler3:PROC
EXTRN	___security_cookie:DWORD
_BSS	SEGMENT
?RMSG_INTERFACE@@3IB DD 01H DUP (?)			; RMSG_INTERFACE
?RMSG_GETPCTRDATA@@3IB DD 01H DUP (?)			; RMSG_GETPCTRDATA
?RMSG_SETPCTRDATA@@3IB DD 01H DUP (?)			; RMSG_SETPCTRDATA
_BSS	ENDS
CRT$XCU	SEGMENT
?RMSG_INTERFACE$initializer$@@3P6AXXZA DD FLAT:??__ERMSG_INTERFACE@@YAXXZ ; RMSG_INTERFACE$initializer$
CRT$XCU	ENDS
;	COMDAT ??_C@_01NBENCBCI@?$CK@
CONST	SEGMENT
??_C@_01NBENCBCI@?$CK@ DB '*', 00H			; `string'
CONST	ENDS
;	COMDAT ??_C@_03CDFCEGNO@?$CFs?$DL@
CONST	SEGMENT
??_C@_03CDFCEGNO@?$CFs?$DL@ DB '%s;', 00H		; `string'
CONST	ENDS
;	COMDAT ??_C@_01ICJEACDI@?$DL@
CONST	SEGMENT
??_C@_01ICJEACDI@?$DL@ DB ';', 00H			; `string'
CONST	ENDS
;	COMDAT ??_C@_00CNPNBAHC@@
CONST	SEGMENT
??_C@_00CNPNBAHC@@ DB 00H				; `string'
CONST	ENDS
;	COMDAT xdata$x
xdata$x	SEGMENT
__unwindtable$?ChangedData@CGSharedCli@CExOCXDLL@@UAEHPBD0@Z DD 0ffffffffH
	DD	FLAT:__unwindfunclet$?ChangedData@CGSharedCli@CExOCXDLL@@UAEHPBD0@Z$0
	DD	00H
	DD	FLAT:__unwindfunclet$?ChangedData@CGSharedCli@CExOCXDLL@@UAEHPBD0@Z$1
	DD	01H
	DD	FLAT:__unwindfunclet$?ChangedData@CGSharedCli@CExOCXDLL@@UAEHPBD0@Z$2
__ehfuncinfo$?ChangedData@CGSharedCli@CExOCXDLL@@UAEHPBD0@Z DD 019930522H
	DD	03H
	DD	FLAT:__unwindtable$?ChangedData@CGSharedCli@CExOCXDLL@@UAEHPBD0@Z
	DD	2 DUP(00H)
	DD	2 DUP(00H)
	DD	00H
	DD	01H
xdata$x	ENDS
;	COMDAT xdata$x
xdata$x	SEGMENT
__unwindtable$?IniStartGShareData@CGSharedCli@CExOCXDLL@@QAEXXZ DD 0ffffffffH
	DD	FLAT:__unwindfunclet$?IniStartGShareData@CGSharedCli@CExOCXDLL@@QAEXXZ$0
__ehfuncinfo$?IniStartGShareData@CGSharedCli@CExOCXDLL@@QAEXXZ DD 019930522H
	DD	01H
	DD	FLAT:__unwindtable$?IniStartGShareData@CGSharedCli@CExOCXDLL@@QAEXXZ
	DD	2 DUP(00H)
	DD	2 DUP(00H)
	DD	00H
	DD	01H
xdata$x	ENDS
;	COMDAT xdata$x
xdata$x	SEGMENT
__unwindtable$?CallCheckSharedData@CGSharedCli@CExOCXDLL@@QAEXPBD@Z DD 0ffffffffH
	DD	FLAT:__unwindfunclet$?CallCheckSharedData@CGSharedCli@CExOCXDLL@@QAEXPBD@Z$0
	DD	00H
	DD	FLAT:__unwindfunclet$?CallCheckSharedData@CGSharedCli@CExOCXDLL@@QAEXPBD@Z$1
__ehfuncinfo$?CallCheckSharedData@CGSharedCli@CExOCXDLL@@QAEXPBD@Z DD 019930522H
	DD	02H
	DD	FLAT:__unwindtable$?CallCheckSharedData@CGSharedCli@CExOCXDLL@@QAEXPBD@Z
	DD	2 DUP(00H)
	DD	2 DUP(00H)
	DD	00H
	DD	01H
xdata$x	ENDS
;	COMDAT xdata$x
xdata$x	SEGMENT
__unwindtable$?FindShareData@CGSharedCli@CExOCXDLL@@QAEPAU__POSITION@@PBD@Z DD 0ffffffffH
	DD	FLAT:__unwindfunclet$?FindShareData@CGSharedCli@CExOCXDLL@@QAEPAU__POSITION@@PBD@Z$0
	DD	00H
	DD	FLAT:__unwindfunclet$?FindShareData@CGSharedCli@CExOCXDLL@@QAEPAU__POSITION@@PBD@Z$1
	DD	01H
	DD	FLAT:__unwindfunclet$?FindShareData@CGSharedCli@CExOCXDLL@@QAEPAU__POSITION@@PBD@Z$2
__ehfuncinfo$?FindShareData@CGSharedCli@CExOCXDLL@@QAEPAU__POSITION@@PBD@Z DD 019930522H
	DD	03H
	DD	FLAT:__unwindtable$?FindShareData@CGSharedCli@CExOCXDLL@@QAEPAU__POSITION@@PBD@Z
	DD	2 DUP(00H)
	DD	2 DUP(00H)
	DD	00H
	DD	01H
xdata$x	ENDS
;	COMDAT xdata$x
xdata$x	SEGMENT
__ehfuncinfo$?MakeList@CGSharedCli@CExOCXDLL@@QAEXV?$CStringT@DV?$StrTraitMFC_DLL@DV?$ChTraitsCRT@D@ATL@@@@@ATL@@@Z DD 019930522H
	DD	08H
	DD	FLAT:__unwindtable$?MakeList@CGSharedCli@CExOCXDLL@@QAEXV?$CStringT@DV?$StrTraitMFC_DLL@DV?$ChTraitsCRT@D@ATL@@@@@ATL@@@Z
	DD	2 DUP(00H)
	DD	2 DUP(00H)
	DD	00H
	DD	01H
__unwindtable$?MakeList@CGSharedCli@CExOCXDLL@@QAEXV?$CStringT@DV?$StrTraitMFC_DLL@DV?$ChTraitsCRT@D@ATL@@@@@ATL@@@Z DD 0ffffffffH
	DD	FLAT:__unwindfunclet$?MakeList@CGSharedCli@CExOCXDLL@@QAEXV?$CStringT@DV?$StrTraitMFC_DLL@DV?$ChTraitsCRT@D@ATL@@@@@ATL@@@Z$0
	DD	00H
	DD	FLAT:__unwindfunclet$?MakeList@CGSharedCli@CExOCXDLL@@QAEXV?$CStringT@DV?$StrTraitMFC_DLL@DV?$ChTraitsCRT@D@ATL@@@@@ATL@@@Z$1
	DD	01H
	DD	FLAT:__unwindfunclet$?MakeList@CGSharedCli@CExOCXDLL@@QAEXV?$CStringT@DV?$StrTraitMFC_DLL@DV?$ChTraitsCRT@D@ATL@@@@@ATL@@@Z$2
	DD	02H
	DD	FLAT:__unwindfunclet$?MakeList@CGSharedCli@CExOCXDLL@@QAEXV?$CStringT@DV?$StrTraitMFC_DLL@DV?$ChTraitsCRT@D@ATL@@@@@ATL@@@Z$3
	DD	02H
	DD	FLAT:__unwindfunclet$?MakeList@CGSharedCli@CExOCXDLL@@QAEXV?$CStringT@DV?$StrTraitMFC_DLL@DV?$ChTraitsCRT@D@ATL@@@@@ATL@@@Z$4
	DD	02H
	DD	FLAT:__unwindfunclet$?MakeList@CGSharedCli@CExOCXDLL@@QAEXV?$CStringT@DV?$StrTraitMFC_DLL@DV?$ChTraitsCRT@D@ATL@@@@@ATL@@@Z$5
	DD	02H
	DD	FLAT:__unwindfunclet$?MakeList@CGSharedCli@CExOCXDLL@@QAEXV?$CStringT@DV?$StrTraitMFC_DLL@DV?$ChTraitsCRT@D@ATL@@@@@ATL@@@Z$6
	DD	06H
	DD	FLAT:__unwindfunclet$?MakeList@CGSharedCli@CExOCXDLL@@QAEXV?$CStringT@DV?$StrTraitMFC_DLL@DV?$ChTraitsCRT@D@ATL@@@@@ATL@@@Z$9
xdata$x	ENDS
;	COMDAT xdata$x
xdata$x	SEGMENT
__unwindtable$?AddTail@?$CList@UST_GSHAREDFORMAT@@U1@@@QAEPAU__POSITION@@UST_GSHAREDFORMAT@@@Z DD 0ffffffffH
	DD	FLAT:__unwindfunclet$?AddTail@?$CList@UST_GSHAREDFORMAT@@U1@@@QAEPAU__POSITION@@UST_GSHAREDFORMAT@@@Z$0
__ehfuncinfo$?AddTail@?$CList@UST_GSHAREDFORMAT@@U1@@@QAEPAU__POSITION@@UST_GSHAREDFORMAT@@@Z DD 019930522H
	DD	01H
	DD	FLAT:__unwindtable$?AddTail@?$CList@UST_GSHAREDFORMAT@@U1@@@QAEPAU__POSITION@@UST_GSHAREDFORMAT@@@Z
	DD	2 DUP(00H)
	DD	2 DUP(00H)
	DD	00H
	DD	01H
xdata$x	ENDS
;	COMDAT xdata$x
xdata$x	SEGMENT
__unwindtable$??0ST_GSHAREDFORMAT@@QAE@ABU0@@Z DD 0ffffffffH
	DD	FLAT:__unwindfunclet$??0ST_GSHAREDFORMAT@@QAE@ABU0@@Z$0
__ehfuncinfo$??0ST_GSHAREDFORMAT@@QAE@ABU0@@Z DD 019930522H
	DD	01H
	DD	FLAT:__unwindtable$??0ST_GSHAREDFORMAT@@QAE@ABU0@@Z
	DD	2 DUP(00H)
	DD	2 DUP(00H)
	DD	00H
	DD	01H
xdata$x	ENDS
CRT$XCU	SEGMENT
?RMSG_GETPCTRDATA$initializer$@@3P6AXXZA DD FLAT:??__ERMSG_GETPCTRDATA@@YAXXZ ; RMSG_GETPCTRDATA$initializer$
CRT$XCU	ENDS
CRT$XCU	SEGMENT
?RMSG_SETPCTRDATA$initializer$@@3P6AXXZA DD FLAT:??__ERMSG_SETPCTRDATA@@YAXXZ ; RMSG_SETPCTRDATA$initializer$
CRT$XCU	ENDS
; Function compile flags: /Ogtp
; File D:\git\src\IBK\IBK_DRFN\ProjSrc\SrcDrfn\Chart\ExControl\CtrlGlobalSharedData.cpp
; File C:\Program Files (x86)\Microsoft Visual Studio\2019\Community\VC\Tools\MSVC\14.29.30133\atlmfc\include\afxtempl.h
; File D:\git\src\IBK\IBK_DRFN\ProjSrc\SrcDrfn\Chart\ExControl\CtrlGlobalSharedData.cpp
; File C:\Program Files (x86)\Microsoft Visual Studio\2019\Community\VC\Tools\MSVC\14.29.30133\atlmfc\include\afxtempl.h
; File D:\git\src\IBK\IBK_DRFN\ProjSrc\SrcDrfn\Chart\ExControl\CtrlGlobalSharedData.cpp
; File C:\Program Files (x86)\Microsoft Visual Studio\2019\Community\VC\Tools\MSVC\14.29.30133\atlmfc\include\atlsimpstr.h
; File D:\git\src\IBK\IBK_DRFN\ProjSrc\SrcDrfn\Chart\ExControl\CtrlGlobalSharedData.cpp
;	COMDAT ?ChangedData@CGSharedCli@CExOCXDLL@@UAEHPBD0@Z
_TEXT	SEGMENT
_SDF$2 = -44						; size = 20
_tmpPos$1$ = -24					; size = 4
_szShareList$3 = -20					; size = 4
_szTmp$4 = -16						; size = 4
__$EHRec$ = -12						; size = 12
__szName$ = 8						; size = 4
__szValue$ = 12						; size = 4
?ChangedData@CGSharedCli@CExOCXDLL@@UAEHPBD0@Z PROC	; CExOCXDLL::CGSharedCli::ChangedData, COMDAT
; _this$ = ecx

; 11   : {

  00000	55		 push	 ebp
  00001	8b ec		 mov	 ebp, esp
  00003	6a ff		 push	 -1
  00005	68 00 00 00 00	 push	 __ehhandler$?ChangedData@CGSharedCli@CExOCXDLL@@UAEHPBD0@Z
  0000a	64 a1 00 00 00
	00		 mov	 eax, DWORD PTR fs:0
  00010	50		 push	 eax
  00011	83 ec 20	 sub	 esp, 32			; 00000020H
  00014	53		 push	 ebx
  00015	56		 push	 esi
  00016	57		 push	 edi
  00017	a1 00 00 00 00	 mov	 eax, DWORD PTR ___security_cookie
  0001c	33 c5		 xor	 eax, ebp
  0001e	50		 push	 eax
  0001f	8d 45 f4	 lea	 eax, DWORD PTR __$EHRec$[ebp]
  00022	64 a3 00 00 00
	00		 mov	 DWORD PTR fs:0, eax
  00028	8b d9		 mov	 ebx, ecx

; 127  : 	CString szShareList = _szName;

  0002a	ff 75 08	 push	 DWORD PTR __szName$[ebp]
  0002d	8d 4d ec	 lea	 ecx, DWORD PTR _szShareList$3[ebp]
  00030	ff 15 00 00 00
	00		 call	 DWORD PTR __imp_??0?$CStringT@DV?$StrTraitMFC_DLL@DV?$ChTraitsCRT@D@ATL@@@@@ATL@@QAE@PBD@Z

; 128  : 	szShareList += ";";

  00036	68 00 00 00 00	 push	 OFFSET ??_C@_01ICJEACDI@?$DL@
  0003b	8d 4d ec	 lea	 ecx, DWORD PTR _szShareList$3[ebp]
  0003e	c7 45 fc 00 00
	00 00		 mov	 DWORD PTR __$EHRec$[ebp+8], 0
  00045	ff 15 00 00 00
	00		 call	 DWORD PTR __imp_??Y?$CStringT@DV?$StrTraitMFC_DLL@DV?$ChTraitsCRT@D@ATL@@@@@ATL@@QAEAAV01@PBD@Z

; 129  : 	CString szTmp;

  0004b	8d 4d f0	 lea	 ecx, DWORD PTR _szTmp$4[ebp]
  0004e	ff 15 00 00 00
	00		 call	 DWORD PTR __imp_??0?$CStringT@DV?$StrTraitMFC_DLL@DV?$ChTraitsCRT@D@ATL@@@@@ATL@@QAE@XZ
  00054	8d 4d d4	 lea	 ecx, DWORD PTR _SDF$2[ebp]
  00057	ff 15 00 00 00
	00		 call	 DWORD PTR __imp_??0?$CStringT@DV?$StrTraitMFC_DLL@DV?$ChTraitsCRT@D@ATL@@@@@ATL@@QAE@XZ
  0005d	8d 4d d8	 lea	 ecx, DWORD PTR _SDF$2[ebp+4]
  00060	ff 15 00 00 00
	00		 call	 DWORD PTR __imp_??0?$CStringT@DV?$StrTraitMFC_DLL@DV?$ChTraitsCRT@D@ATL@@@@@ATL@@QAE@XZ

; 130  : 
; 131  : 	ST_GSHAREDFORMAT SDF;
; 132  : 	POSITION tmpPos;
; 133  : 	for(POSITION pos=m_ListShare.GetHeadPosition(); pos; )

  00066	8b 7b 0c	 mov	 edi, DWORD PTR [ebx+12]
  00069	c6 45 fc 02	 mov	 BYTE PTR __$EHRec$[ebp+8], 2
  0006d	85 ff		 test	 edi, edi
  0006f	74 76		 je	 SHORT $LN41@ChangedDat
$LL7@ChangedDat:
; File C:\Program Files (x86)\Microsoft Visual Studio\2019\Community\VC\Tools\MSVC\14.29.30133\atlmfc\include\afxtempl.h

; 811  : 	{ CNode* pNode = (CNode*) rPosition;

  00071	8b f7		 mov	 esi, edi
; File D:\git\src\IBK\IBK_DRFN\ProjSrc\SrcDrfn\Chart\ExControl\CtrlGlobalSharedData.cpp

; 135  : 		tmpPos=pos;

  00073	89 7d e8	 mov	 DWORD PTR _tmpPos$1$[ebp], edi
; File C:\Program Files (x86)\Microsoft Visual Studio\2019\Community\VC\Tools\MSVC\14.29.30133\atlmfc\include\afxtempl.h

; 813  : 		rPosition = (POSITION) pNode->pNext;

  00076	8b 3f		 mov	 edi, DWORD PTR [edi]
  00078	8d 4d d4	 lea	 ecx, DWORD PTR _SDF$2[ebp]

; 814  : 		return pNode->data; }

  0007b	83 c6 08	 add	 esi, 8
  0007e	56		 push	 esi
  0007f	ff 15 00 00 00
	00		 call	 DWORD PTR __imp_??4?$CStringT@DV?$StrTraitMFC_DLL@DV?$ChTraitsCRT@D@ATL@@@@@ATL@@QAEAAV01@ABV01@@Z
  00085	8d 46 04	 lea	 eax, DWORD PTR [esi+4]
  00088	50		 push	 eax
  00089	8d 4d d8	 lea	 ecx, DWORD PTR _SDF$2[ebp+4]
  0008c	ff 15 00 00 00
	00		 call	 DWORD PTR __imp_??4?$CStringT@DV?$StrTraitMFC_DLL@DV?$ChTraitsCRT@D@ATL@@@@@ATL@@QAEAAV01@ABV01@@Z
  00092	8b 46 08	 mov	 eax, DWORD PTR [esi+8]
  00095	89 45 dc	 mov	 DWORD PTR _SDF$2[ebp+8], eax
  00098	8b 46 0c	 mov	 eax, DWORD PTR [esi+12]
  0009b	89 45 e0	 mov	 DWORD PTR _SDF$2[ebp+12], eax
  0009e	8b 46 10	 mov	 eax, DWORD PTR [esi+16]
  000a1	89 45 e4	 mov	 DWORD PTR _SDF$2[ebp+16], eax
; File D:\git\src\IBK\IBK_DRFN\ProjSrc\SrcDrfn\Chart\ExControl\CtrlGlobalSharedData.cpp

; 136  : 		SDF = m_ListShare.GetNext(pos);

  000a4	85 c0		 test	 eax, eax

; 137  : 		if(SDF.m_bGet)

  000a6	74 3b		 je	 SHORT $LN11@ChangedDat

; 138  : 		{
; 139  : 			szTmp.Format("%s;", SDF.m_szSharedName);

  000a8	ff 75 d4	 push	 DWORD PTR _SDF$2[ebp]
  000ab	8d 45 f0	 lea	 eax, DWORD PTR _szTmp$4[ebp]
  000ae	68 00 00 00 00	 push	 OFFSET ??_C@_03CDFCEGNO@?$CFs?$DL@
  000b3	50		 push	 eax
  000b4	ff 15 00 00 00
	00		 call	 DWORD PTR __imp_?Format@?$CStringT@DV?$StrTraitMFC_DLL@DV?$ChTraitsCRT@D@ATL@@@@@ATL@@QAAXPBDZZ
  000ba	83 c4 0c	 add	 esp, 12			; 0000000cH

; 140  : 			szTmp.Remove(';');

  000bd	8d 4d f0	 lea	 ecx, DWORD PTR _szTmp$4[ebp]
  000c0	6a 3b		 push	 59			; 0000003bH
  000c2	ff 15 00 00 00
	00		 call	 DWORD PTR __imp_?Remove@?$CStringT@DV?$StrTraitMFC_DLL@DV?$ChTraitsCRT@D@ATL@@@@@ATL@@QAEHD@Z

; 141  : 			szShareList.Remove(';');

  000c8	6a 3b		 push	 59			; 0000003bH
  000ca	8d 4d ec	 lea	 ecx, DWORD PTR _szShareList$3[ebp]
  000cd	ff 15 00 00 00
	00		 call	 DWORD PTR __imp_?Remove@?$CStringT@DV?$StrTraitMFC_DLL@DV?$ChTraitsCRT@D@ATL@@@@@ATL@@QAEHD@Z

; 142  : 			if(szShareList.CompareNoCase(szTmp) == 0)

  000d3	ff 75 f0	 push	 DWORD PTR _szTmp$4[ebp]
  000d6	8d 4d ec	 lea	 ecx, DWORD PTR _szShareList$3[ebp]
  000d9	ff 15 00 00 00
	00		 call	 DWORD PTR __imp_?CompareNoCase@?$CStringT@DV?$StrTraitMFC_DLL@DV?$ChTraitsCRT@D@ATL@@@@@ATL@@QBEHPBD@Z
  000df	85 c0		 test	 eax, eax
  000e1	74 41		 je	 SHORT $LN38@ChangedDat
$LN11@ChangedDat:

; 130  : 
; 131  : 	ST_GSHAREDFORMAT SDF;
; 132  : 	POSITION tmpPos;
; 133  : 	for(POSITION pos=m_ListShare.GetHeadPosition(); pos; )

  000e3	85 ff		 test	 edi, edi
  000e5	75 8a		 jne	 SHORT $LL7@ChangedDat
$LN41@ChangedDat:
  000e7	8d 4d d8	 lea	 ecx, DWORD PTR _SDF$2[ebp+4]
  000ea	ff 15 00 00 00
	00		 call	 DWORD PTR __imp_??1?$CStringT@DV?$StrTraitMFC_DLL@DV?$ChTraitsCRT@D@ATL@@@@@ATL@@QAE@XZ
  000f0	8d 4d d4	 lea	 ecx, DWORD PTR _SDF$2[ebp]
  000f3	ff 15 00 00 00
	00		 call	 DWORD PTR __imp_??1?$CStringT@DV?$StrTraitMFC_DLL@DV?$ChTraitsCRT@D@ATL@@@@@ATL@@QAE@XZ

; 144  : 		}
; 145  : 	}
; 146  : 
; 147  : 	return NULL;

  000f9	8d 4d f0	 lea	 ecx, DWORD PTR _szTmp$4[ebp]
  000fc	ff 15 00 00 00
	00		 call	 DWORD PTR __imp_??1?$CStringT@DV?$StrTraitMFC_DLL@DV?$ChTraitsCRT@D@ATL@@@@@ATL@@QAE@XZ
  00102	8d 4d ec	 lea	 ecx, DWORD PTR _szShareList$3[ebp]
  00105	ff 15 00 00 00
	00		 call	 DWORD PTR __imp_??1?$CStringT@DV?$StrTraitMFC_DLL@DV?$ChTraitsCRT@D@ATL@@@@@ATL@@QAE@XZ
$LN45@ChangedDat:

; 41   : 		}
; 42   : 	}
; 43   : 
; 44   : 	return TRUE;
; 45   : }

  0010b	b8 01 00 00 00	 mov	 eax, 1
  00110	8b 4d f4	 mov	 ecx, DWORD PTR __$EHRec$[ebp]
  00113	64 89 0d 00 00
	00 00		 mov	 DWORD PTR fs:0, ecx
  0011a	59		 pop	 ecx
  0011b	5f		 pop	 edi
  0011c	5e		 pop	 esi
  0011d	5b		 pop	 ebx
  0011e	8b e5		 mov	 esp, ebp
  00120	5d		 pop	 ebp
  00121	c2 08 00	 ret	 8
$LN38@ChangedDat:
  00124	8d 4d d8	 lea	 ecx, DWORD PTR _SDF$2[ebp+4]
  00127	ff 15 00 00 00
	00		 call	 DWORD PTR __imp_??1?$CStringT@DV?$StrTraitMFC_DLL@DV?$ChTraitsCRT@D@ATL@@@@@ATL@@QAE@XZ
  0012d	8d 4d d4	 lea	 ecx, DWORD PTR _SDF$2[ebp]
  00130	ff 15 00 00 00
	00		 call	 DWORD PTR __imp_??1?$CStringT@DV?$StrTraitMFC_DLL@DV?$ChTraitsCRT@D@ATL@@@@@ATL@@QAE@XZ

; 143  : 				return tmpPos;

  00136	8d 4d f0	 lea	 ecx, DWORD PTR _szTmp$4[ebp]
  00139	ff 15 00 00 00
	00		 call	 DWORD PTR __imp_??1?$CStringT@DV?$StrTraitMFC_DLL@DV?$ChTraitsCRT@D@ATL@@@@@ATL@@QAE@XZ
  0013f	8d 4d ec	 lea	 ecx, DWORD PTR _szShareList$3[ebp]
  00142	c7 45 fc ff ff
	ff ff		 mov	 DWORD PTR __$EHRec$[ebp+8], -1
  00149	ff 15 00 00 00
	00		 call	 DWORD PTR __imp_??1?$CStringT@DV?$StrTraitMFC_DLL@DV?$ChTraitsCRT@D@ATL@@@@@ATL@@QAE@XZ

; 12   : 	AZMETHOD_PROLOGUE(CExOCXDLL, GSharedCli)
; 13   : 		
; 14   : 	POSITION pos = FindShareData( _szName);
; 15   : 	if(pos)

  0014f	83 7d e8 00	 cmp	 DWORD PTR _tmpPos$1$[ebp], 0
  00153	74 b6		 je	 SHORT $LN45@ChangedDat

; 16   : 	{
; 17   : 		TRACE("CGSharedCli::ChangedData [SHAREDNAME=%s] [VALUE=%s]\n",_szName,_szValue);
; 18   : 		// 공유데이터가 바뀌었다.
; 19   : 		// 여기에서 원하는 처리를 한다.
; 20   : 		if( m_pGSharedSvr)

  00155	83 7b 04 00	 cmp	 DWORD PTR [ebx+4], 0
  00159	74 b0		 je	 SHORT $LN45@ChangedDat

; 21   : 		{
; 22   : 			m_bGetGData = TRUE;
; 23   : 
; 24   : #ifdef _DEBUG
; 25   : 			CString szTest;
; 26   : 			szTest.Format("Get 공유 Data ---> 공유명 : %s, Data : %s",_szName, _szValue);
; 27   : 			TRACE(szTest);
; 28   : //			AfxMessageBox(szTest);
; 29   : #endif
; 30   : 
; 31   : 			m_szGSharedData = _szValue;

  0015b	ff 75 0c	 push	 DWORD PTR __szValue$[ebp]
  0015e	8d 4b 28	 lea	 ecx, DWORD PTR [ebx+40]
  00161	c7 43 24 01 00
	00 00		 mov	 DWORD PTR [ebx+36], 1
  00168	ff 15 00 00 00
	00		 call	 DWORD PTR __imp_??4?$CStringT@DV?$StrTraitMFC_DLL@DV?$ChTraitsCRT@D@ATL@@@@@ATL@@QAEAAV01@PBD@Z

; 32   : 			m_szGSharedData.TrimLeft();

  0016e	8d 4b 28	 lea	 ecx, DWORD PTR [ebx+40]
  00171	ff 15 00 00 00
	00		 call	 DWORD PTR __imp_?TrimLeft@?$CStringT@DV?$StrTraitMFC_DLL@DV?$ChTraitsCRT@D@ATL@@@@@ATL@@QAEAAV12@XZ

; 33   : 			m_szGSharedData.TrimRight();

  00177	8d 4b 28	 lea	 ecx, DWORD PTR [ebx+40]
  0017a	ff 15 00 00 00
	00		 call	 DWORD PTR __imp_?TrimRight@?$CStringT@DV?$StrTraitMFC_DLL@DV?$ChTraitsCRT@D@ATL@@@@@ATL@@QAEAAV12@XZ
; File C:\Program Files (x86)\Microsoft Visual Studio\2019\Community\VC\Tools\MSVC\14.29.30133\atlmfc\include\atlsimpstr.h

; 519  : 		return( GetData()->nDataLength );

  00180	8b 53 28	 mov	 edx, DWORD PTR [ebx+40]
; File D:\git\src\IBK\IBK_DRFN\ProjSrc\SrcDrfn\Chart\ExControl\CtrlGlobalSharedData.cpp

; 34   : 			if( m_szGSharedData.GetLength() == 0) m_bGetGData = FALSE;

  00183	83 7a f4 00	 cmp	 DWORD PTR [edx-12], 0
  00187	75 07		 jne	 SHORT $LN4@ChangedDat
  00189	c7 43 24 00 00
	00 00		 mov	 DWORD PTR [ebx+36], 0
$LN4@ChangedDat:

; 35   : 
; 36   : 			pThis->OnGSharedDataChange( _szName, m_szGSharedData, FALSE);

  00190	8b 83 8c fd ff
	ff		 mov	 eax, DWORD PTR [ebx-628]
  00196	8d 8b 8c fd ff
	ff		 lea	 ecx, DWORD PTR [ebx-628]
  0019c	6a 00		 push	 0
  0019e	52		 push	 edx
  0019f	ff 75 08	 push	 DWORD PTR __szName$[ebp]
  001a2	ff 90 f0 01 00
	00		 call	 DWORD PTR [eax+496]

; 37   : 
; 38   : 			// 박성진 2002.08.09
; 39   : 			// 공유가 끝나고 나면 FALSE로 만들어 줘야한다.
; 40   : 			m_bGetGData = FALSE;

  001a8	c7 43 24 00 00
	00 00		 mov	 DWORD PTR [ebx+36], 0
  001af	e9 57 ff ff ff	 jmp	 $LN45@ChangedDat
_TEXT	ENDS
;	COMDAT text$x
text$x	SEGMENT
__unwindfunclet$?ChangedData@CGSharedCli@CExOCXDLL@@UAEHPBD0@Z$0:
  00000	8d 4d ec	 lea	 ecx, DWORD PTR _szShareList$3[ebp]
  00003	ff 25 00 00 00
	00		 jmp	 DWORD PTR __imp_??1?$CStringT@DV?$StrTraitMFC_DLL@DV?$ChTraitsCRT@D@ATL@@@@@ATL@@QAE@XZ
__unwindfunclet$?ChangedData@CGSharedCli@CExOCXDLL@@UAEHPBD0@Z$1:
  00009	8d 4d f0	 lea	 ecx, DWORD PTR _szTmp$4[ebp]
  0000c	ff 25 00 00 00
	00		 jmp	 DWORD PTR __imp_??1?$CStringT@DV?$StrTraitMFC_DLL@DV?$ChTraitsCRT@D@ATL@@@@@ATL@@QAE@XZ
__unwindfunclet$?ChangedData@CGSharedCli@CExOCXDLL@@UAEHPBD0@Z$2:
  00012	8d 4d d4	 lea	 ecx, DWORD PTR _SDF$2[ebp]
  00015	e9 00 00 00 00	 jmp	 ??1ST_GSHAREDFORMAT@@QAE@XZ
  0001a	cc		 int	 3
  0001b	cc		 int	 3
  0001c	cc		 int	 3
  0001d	cc		 int	 3
  0001e	cc		 int	 3
__ehhandler$?ChangedData@CGSharedCli@CExOCXDLL@@UAEHPBD0@Z:
  0001f	90		 npad	 1
  00020	90		 npad	 1
  00021	8b 54 24 08	 mov	 edx, DWORD PTR [esp+8]
  00025	8d 42 0c	 lea	 eax, DWORD PTR [edx+12]
  00028	8b 4a d0	 mov	 ecx, DWORD PTR [edx-48]
  0002b	33 c8		 xor	 ecx, eax
  0002d	e8 00 00 00 00	 call	 @__security_check_cookie@4
  00032	b8 00 00 00 00	 mov	 eax, OFFSET __ehfuncinfo$?ChangedData@CGSharedCli@CExOCXDLL@@UAEHPBD0@Z
  00037	e9 00 00 00 00	 jmp	 ___CxxFrameHandler3
text$x	ENDS
?ChangedData@CGSharedCli@CExOCXDLL@@UAEHPBD0@Z ENDP	; CExOCXDLL::CGSharedCli::ChangedData
; Function compile flags: /Ogtp
; File D:\git\src\IBK\IBK_DRFN\ProjSrc\SrcDrfn\Chart\ExControl\CtrlGlobalSharedData.cpp
; File C:\Program Files (x86)\Microsoft Visual Studio\2019\Community\VC\Tools\MSVC\14.29.30133\atlmfc\include\afxtempl.h
; File D:\git\src\IBK\IBK_DRFN\ProjSrc\SrcDrfn\Chart\ExControl\CtrlGlobalSharedData.cpp
; File C:\Program Files (x86)\Microsoft Visual Studio\2019\Community\VC\Tools\MSVC\14.29.30133\atlmfc\include\atlsimpstr.h
; File D:\git\src\IBK\IBK_DRFN\ProjSrc\SrcDrfn\Chart\ExControl\CtrlGlobalSharedData.cpp
;	COMDAT ?IniStartGShareData@CGSharedCli@CExOCXDLL@@QAEXXZ
_TEXT	SEGMENT
_SDF$ = -32						; size = 20
__$EHRec$ = -12						; size = 12
?IniStartGShareData@CGSharedCli@CExOCXDLL@@QAEXXZ PROC	; CExOCXDLL::CGSharedCli::IniStartGShareData, COMDAT
; _this$ = ecx

; 201  : {

  00000	55		 push	 ebp
  00001	8b ec		 mov	 ebp, esp
  00003	6a ff		 push	 -1
  00005	68 00 00 00 00	 push	 __ehhandler$?IniStartGShareData@CGSharedCli@CExOCXDLL@@QAEXXZ
  0000a	64 a1 00 00 00
	00		 mov	 eax, DWORD PTR fs:0
  00010	50		 push	 eax
  00011	83 ec 14	 sub	 esp, 20			; 00000014H
  00014	53		 push	 ebx
  00015	56		 push	 esi
  00016	57		 push	 edi
  00017	a1 00 00 00 00	 mov	 eax, DWORD PTR ___security_cookie
  0001c	33 c5		 xor	 eax, ebp
  0001e	50		 push	 eax
  0001f	8d 45 f4	 lea	 eax, DWORD PTR __$EHRec$[ebp]
  00022	64 a3 00 00 00
	00		 mov	 DWORD PTR fs:0, eax
  00028	8b f1		 mov	 esi, ecx
  0002a	8d 4d e0	 lea	 ecx, DWORD PTR _SDF$[ebp]
  0002d	ff 15 00 00 00
	00		 call	 DWORD PTR __imp_??0?$CStringT@DV?$StrTraitMFC_DLL@DV?$ChTraitsCRT@D@ATL@@@@@ATL@@QAE@XZ
  00033	8d 4d e4	 lea	 ecx, DWORD PTR _SDF$[ebp+4]
  00036	ff 15 00 00 00
	00		 call	 DWORD PTR __imp_??0?$CStringT@DV?$StrTraitMFC_DLL@DV?$ChTraitsCRT@D@ATL@@@@@ATL@@QAE@XZ

; 202  : 	AZMETHOD_PROLOGUE(CExOCXDLL, GSharedCli)
; 203  : 
; 204  : 
; 205  : 	ST_GSHAREDFORMAT SDF;
; 206  : 
; 207  : 	for(POSITION pos=m_ListShare.GetHeadPosition(); pos; )

  0003c	8b 5e 0c	 mov	 ebx, DWORD PTR [esi+12]
  0003f	c7 45 fc 00 00
	00 00		 mov	 DWORD PTR __$EHRec$[ebp+8], 0
  00046	85 db		 test	 ebx, ebx
  00048	0f 84 a6 00 00
	00		 je	 $LN3@IniStartGS
  0004e	66 90		 npad	 2
$LL2@IniStartGS:
; File C:\Program Files (x86)\Microsoft Visual Studio\2019\Community\VC\Tools\MSVC\14.29.30133\atlmfc\include\afxtempl.h

; 811  : 	{ CNode* pNode = (CNode*) rPosition;

  00050	8b fb		 mov	 edi, ebx
  00052	8d 4d e0	 lea	 ecx, DWORD PTR _SDF$[ebp]

; 812  : 		ASSERT(AfxIsValidAddress(pNode, sizeof(CNode)));
; 813  : 		rPosition = (POSITION) pNode->pNext;

  00055	8b 1b		 mov	 ebx, DWORD PTR [ebx]

; 814  : 		return pNode->data; }

  00057	83 c7 08	 add	 edi, 8
  0005a	57		 push	 edi
  0005b	ff 15 00 00 00
	00		 call	 DWORD PTR __imp_??4?$CStringT@DV?$StrTraitMFC_DLL@DV?$ChTraitsCRT@D@ATL@@@@@ATL@@QAEAAV01@ABV01@@Z
  00061	8d 47 04	 lea	 eax, DWORD PTR [edi+4]
  00064	50		 push	 eax
  00065	8d 4d e4	 lea	 ecx, DWORD PTR _SDF$[ebp+4]
  00068	ff 15 00 00 00
	00		 call	 DWORD PTR __imp_??4?$CStringT@DV?$StrTraitMFC_DLL@DV?$ChTraitsCRT@D@ATL@@@@@ATL@@QAEAAV01@ABV01@@Z
  0006e	8b 4f 08	 mov	 ecx, DWORD PTR [edi+8]
  00071	89 4d e8	 mov	 DWORD PTR _SDF$[ebp+8], ecx
  00074	8b 47 0c	 mov	 eax, DWORD PTR [edi+12]
  00077	89 45 ec	 mov	 DWORD PTR _SDF$[ebp+12], eax
  0007a	8b 47 10	 mov	 eax, DWORD PTR [edi+16]
  0007d	89 45 f0	 mov	 DWORD PTR _SDF$[ebp+16], eax
; File D:\git\src\IBK\IBK_DRFN\ProjSrc\SrcDrfn\Chart\ExControl\CtrlGlobalSharedData.cpp

; 209  : 		SDF = m_ListShare.GetNext(pos);

  00080	85 c9		 test	 ecx, ecx

; 210  : 		if(SDF.m_bStart)

  00082	74 68		 je	 SHORT $LN5@IniStartGS

; 239  : 	if(m_pGSharedSvr)

  00084	8b 4e 04	 mov	 ecx, DWORD PTR [esi+4]

; 211  : 		{
; 212  : 			m_bGetGData =TRUE;

  00087	c7 46 24 01 00
	00 00		 mov	 DWORD PTR [esi+36], 1

; 239  : 	if(m_pGSharedSvr)

  0008e	85 c9		 test	 ecx, ecx
  00090	74 0a		 je	 SHORT $LN19@IniStartGS

; 240  : 		return m_pGSharedSvr->GetData2(_szName);

  00092	8b 01		 mov	 eax, DWORD PTR [ecx]
  00094	ff 75 e0	 push	 DWORD PTR _SDF$[ebp]
  00097	ff 50 14	 call	 DWORD PTR [eax+20]
  0009a	eb 05		 jmp	 SHORT $LN18@IniStartGS
$LN19@IniStartGS:

; 241  : 	return "";

  0009c	b8 00 00 00 00	 mov	 eax, OFFSET ??_C@_00CNPNBAHC@@
$LN18@IniStartGS:

; 213  : 			m_szGSharedData = GetData2(SDF.m_szSharedName);

  000a1	50		 push	 eax
  000a2	8d 4e 28	 lea	 ecx, DWORD PTR [esi+40]
  000a5	ff 15 00 00 00
	00		 call	 DWORD PTR __imp_??4?$CStringT@DV?$StrTraitMFC_DLL@DV?$ChTraitsCRT@D@ATL@@@@@ATL@@QAEAAV01@PBD@Z

; 214  : #ifdef _DEBUG
; 215  : 			CString szTest;
; 216  : 			szTest.Format("Start 공유 Data ---> 공유명 :[%s], Data :[%s]\n",SDF.m_szSharedName, m_szGSharedData);
; 217  : 			TRACE(szTest);
; 218  : #endif
; 219  : 			m_szGSharedData.TrimLeft();

  000ab	8d 4e 28	 lea	 ecx, DWORD PTR [esi+40]
  000ae	ff 15 00 00 00
	00		 call	 DWORD PTR __imp_?TrimLeft@?$CStringT@DV?$StrTraitMFC_DLL@DV?$ChTraitsCRT@D@ATL@@@@@ATL@@QAEAAV12@XZ

; 220  : 			m_szGSharedData.TrimRight();

  000b4	8d 4e 28	 lea	 ecx, DWORD PTR [esi+40]
  000b7	ff 15 00 00 00
	00		 call	 DWORD PTR __imp_?TrimRight@?$CStringT@DV?$StrTraitMFC_DLL@DV?$ChTraitsCRT@D@ATL@@@@@ATL@@QAEAAV12@XZ
; File C:\Program Files (x86)\Microsoft Visual Studio\2019\Community\VC\Tools\MSVC\14.29.30133\atlmfc\include\atlsimpstr.h

; 519  : 		return( GetData()->nDataLength );

  000bd	8b 4e 28	 mov	 ecx, DWORD PTR [esi+40]
; File D:\git\src\IBK\IBK_DRFN\ProjSrc\SrcDrfn\Chart\ExControl\CtrlGlobalSharedData.cpp

; 222  : 			if(m_szGSharedData.GetLength() <= 0) 

  000c0	83 79 f4 00	 cmp	 DWORD PTR [ecx-12], 0
  000c4	7f 07		 jg	 SHORT $LN6@IniStartGS

; 223  : 				m_bGetGData = FALSE;

  000c6	c7 46 24 00 00
	00 00		 mov	 DWORD PTR [esi+36], 0
$LN6@IniStartGS:

; 224  : 
; 225  : 			pThis->OnGSharedDataChange( SDF.m_szSharedName, m_szGSharedData, TRUE);

  000cd	8b 86 8c fd ff
	ff		 mov	 eax, DWORD PTR [esi-628]
  000d3	6a 01		 push	 1
  000d5	51		 push	 ecx
  000d6	ff 75 e0	 push	 DWORD PTR _SDF$[ebp]
  000d9	8d 8e 8c fd ff
	ff		 lea	 ecx, DWORD PTR [esi-628]
  000df	ff 90 f0 01 00
	00		 call	 DWORD PTR [eax+496]

; 226  : 
; 227  : 			// 박성진 2002.08.09
; 228  : 			// 공유가 끝나고 나면 FALSE로 만들어 줘야한다.
; 229  : 			m_bGetGData = FALSE;

  000e5	c7 46 24 00 00
	00 00		 mov	 DWORD PTR [esi+36], 0
$LN5@IniStartGS:

; 202  : 	AZMETHOD_PROLOGUE(CExOCXDLL, GSharedCli)
; 203  : 
; 204  : 
; 205  : 	ST_GSHAREDFORMAT SDF;
; 206  : 
; 207  : 	for(POSITION pos=m_ListShare.GetHeadPosition(); pos; )

  000ec	85 db		 test	 ebx, ebx
  000ee	0f 85 5c ff ff
	ff		 jne	 $LL2@IniStartGS
$LN3@IniStartGS:
  000f4	8d 4d e4	 lea	 ecx, DWORD PTR _SDF$[ebp+4]
  000f7	ff 15 00 00 00
	00		 call	 DWORD PTR __imp_??1?$CStringT@DV?$StrTraitMFC_DLL@DV?$ChTraitsCRT@D@ATL@@@@@ATL@@QAE@XZ
  000fd	8d 4d e0	 lea	 ecx, DWORD PTR _SDF$[ebp]
  00100	ff 15 00 00 00
	00		 call	 DWORD PTR __imp_??1?$CStringT@DV?$StrTraitMFC_DLL@DV?$ChTraitsCRT@D@ATL@@@@@ATL@@QAE@XZ

; 230  : 		}
; 231  : 	}
; 232  : 
; 233  : }

  00106	8b 4d f4	 mov	 ecx, DWORD PTR __$EHRec$[ebp]
  00109	64 89 0d 00 00
	00 00		 mov	 DWORD PTR fs:0, ecx
  00110	59		 pop	 ecx
  00111	5f		 pop	 edi
  00112	5e		 pop	 esi
  00113	5b		 pop	 ebx
  00114	8b e5		 mov	 esp, ebp
  00116	5d		 pop	 ebp
  00117	c3		 ret	 0
_TEXT	ENDS
;	COMDAT text$x
text$x	SEGMENT
__unwindfunclet$?IniStartGShareData@CGSharedCli@CExOCXDLL@@QAEXXZ$0:
  00000	8d 4d e0	 lea	 ecx, DWORD PTR _SDF$[ebp]
  00003	e9 00 00 00 00	 jmp	 ??1ST_GSHAREDFORMAT@@QAE@XZ
  00008	cc		 int	 3
  00009	cc		 int	 3
  0000a	cc		 int	 3
  0000b	cc		 int	 3
  0000c	cc		 int	 3
__ehhandler$?IniStartGShareData@CGSharedCli@CExOCXDLL@@QAEXXZ:
  0000d	90		 npad	 1
  0000e	90		 npad	 1
  0000f	8b 54 24 08	 mov	 edx, DWORD PTR [esp+8]
  00013	8d 42 0c	 lea	 eax, DWORD PTR [edx+12]
  00016	8b 4a dc	 mov	 ecx, DWORD PTR [edx-36]
  00019	33 c8		 xor	 ecx, eax
  0001b	e8 00 00 00 00	 call	 @__security_check_cookie@4
  00020	b8 00 00 00 00	 mov	 eax, OFFSET __ehfuncinfo$?IniStartGShareData@CGSharedCli@CExOCXDLL@@QAEXXZ
  00025	e9 00 00 00 00	 jmp	 ___CxxFrameHandler3
text$x	ENDS
?IniStartGShareData@CGSharedCli@CExOCXDLL@@QAEXXZ ENDP	; CExOCXDLL::CGSharedCli::IniStartGShareData
; Function compile flags: /Ogtp
; File D:\git\src\IBK\IBK_DRFN\ProjSrc\SrcDrfn\Chart\ExControl\CtrlGlobalSharedData.cpp
;	COMDAT ?RemoveSharedNameToServer@CGSharedCli@CExOCXDLL@@QAEHXZ
_TEXT	SEGMENT
?RemoveSharedNameToServer@CGSharedCli@CExOCXDLL@@QAEHXZ PROC ; CExOCXDLL::CGSharedCli::RemoveSharedNameToServer, COMDAT
; _this$ = ecx

; 189  : {

  00000	8b d1		 mov	 edx, ecx

; 190  : 	// 현재는 클라이언트 포인터만 등록한다.
; 191  : 	// 공유가 발생할 경우 무조건 온다.
; 192  : 	if(!m_pGSharedSvr) return 0;

  00002	8b 4a 04	 mov	 ecx, DWORD PTR [edx+4]
  00005	85 c9		 test	 ecx, ecx
  00007	75 03		 jne	 SHORT $LN2@RemoveShar
  00009	33 c0		 xor	 eax, eax

; 198  : }

  0000b	c3		 ret	 0
$LN2@RemoveShar:

; 193  : 
; 194  : 	m_pGSharedSvr->UnAdvise("*", this);

  0000c	8b 01		 mov	 eax, DWORD PTR [ecx]
  0000e	52		 push	 edx
  0000f	68 00 00 00 00	 push	 OFFSET ??_C@_01NBENCBCI@?$CK@
  00014	ff 50 0c	 call	 DWORD PTR [eax+12]

; 195  : 
; 196  : 	int nRet=1;
; 197  : 	return nRet;

  00017	b8 01 00 00 00	 mov	 eax, 1

; 198  : }

  0001c	c3		 ret	 0
?RemoveSharedNameToServer@CGSharedCli@CExOCXDLL@@QAEHXZ ENDP ; CExOCXDLL::CGSharedCli::RemoveSharedNameToServer
_TEXT	ENDS
; Function compile flags: /Ogtp
; File D:\git\src\IBK\IBK_DRFN\ProjSrc\SrcDrfn\Chart\ExControl\CtrlGlobalSharedData.cpp
;	COMDAT ?AddSharedNameToServer@CGSharedCli@CExOCXDLL@@QAEHXZ
_TEXT	SEGMENT
?AddSharedNameToServer@CGSharedCli@CExOCXDLL@@QAEHXZ PROC ; CExOCXDLL::CGSharedCli::AddSharedNameToServer, COMDAT
; _this$ = ecx

; 177  : {

  00000	8b d1		 mov	 edx, ecx

; 178  : 	// 현재는 클라이언트 포인터만 등록한다.
; 179  : 	// 공유가 발생할 경우 무조건 온다.
; 180  : 	if(!m_pGSharedSvr) return 0;

  00002	8b 4a 04	 mov	 ecx, DWORD PTR [edx+4]
  00005	85 c9		 test	 ecx, ecx
  00007	75 03		 jne	 SHORT $LN2@AddSharedN
  00009	33 c0		 xor	 eax, eax

; 186  : }

  0000b	c3		 ret	 0
$LN2@AddSharedN:

; 181  : 
; 182  : 	m_pGSharedSvr->Advise("*", this);

  0000c	8b 01		 mov	 eax, DWORD PTR [ecx]
  0000e	52		 push	 edx
  0000f	68 00 00 00 00	 push	 OFFSET ??_C@_01NBENCBCI@?$CK@
  00014	ff 50 08	 call	 DWORD PTR [eax+8]

; 183  : 
; 184  : 	int nRet=1;
; 185  : 	return nRet;

  00017	b8 01 00 00 00	 mov	 eax, 1

; 186  : }

  0001c	c3		 ret	 0
?AddSharedNameToServer@CGSharedCli@CExOCXDLL@@QAEHXZ ENDP ; CExOCXDLL::CGSharedCli::AddSharedNameToServer
_TEXT	ENDS
; Function compile flags: /Ogtp
; File D:\git\src\IBK\IBK_DRFN\ProjSrc\SrcDrfn\Chart\ExControl\CtrlGlobalSharedData.cpp
; File C:\Program Files (x86)\Microsoft Visual Studio\2019\Community\VC\Tools\MSVC\14.29.30133\atlmfc\include\afxtempl.h
; File D:\git\src\IBK\IBK_DRFN\ProjSrc\SrcDrfn\Chart\ExControl\CtrlGlobalSharedData.cpp
;	COMDAT ?CallCheckSharedData@CGSharedCli@CExOCXDLL@@QAEXPBD@Z
_TEXT	SEGMENT
_SDF$ = -36						; size = 20
_szShareNameList$ = -16					; size = 4
__$EHRec$ = -12						; size = 12
__szData$ = 8						; size = 4
?CallCheckSharedData@CGSharedCli@CExOCXDLL@@QAEXPBD@Z PROC ; CExOCXDLL::CGSharedCli::CallCheckSharedData, COMDAT
; _this$ = ecx

; 151  : {

  00000	55		 push	 ebp
  00001	8b ec		 mov	 ebp, esp
  00003	6a ff		 push	 -1
  00005	68 00 00 00 00	 push	 __ehhandler$?CallCheckSharedData@CGSharedCli@CExOCXDLL@@QAEXPBD@Z
  0000a	64 a1 00 00 00
	00		 mov	 eax, DWORD PTR fs:0
  00010	50		 push	 eax
  00011	83 ec 18	 sub	 esp, 24			; 00000018H
  00014	53		 push	 ebx
  00015	56		 push	 esi
  00016	57		 push	 edi
  00017	a1 00 00 00 00	 mov	 eax, DWORD PTR ___security_cookie
  0001c	33 c5		 xor	 eax, ebp
  0001e	50		 push	 eax
  0001f	8d 45 f4	 lea	 eax, DWORD PTR __$EHRec$[ebp]
  00022	64 a3 00 00 00
	00		 mov	 DWORD PTR fs:0, eax
  00028	8b d9		 mov	 ebx, ecx

; 152  : 	if(m_bGetGData == TRUE) 

  0002a	83 7b 24 01	 cmp	 DWORD PTR [ebx+36], 1
  0002e	75 1b		 jne	 SHORT $LN5@CallCheckS

; 153  : 	{
; 154  : 		m_bGetGData = FALSE;

  00030	c7 43 24 00 00
	00 00		 mov	 DWORD PTR [ebx+36], 0

; 173  : 		SetData(szShareNameList, _szData);
; 174  : }

  00037	8b 4d f4	 mov	 ecx, DWORD PTR __$EHRec$[ebp]
  0003a	64 89 0d 00 00
	00 00		 mov	 DWORD PTR fs:0, ecx
  00041	59		 pop	 ecx
  00042	5f		 pop	 edi
  00043	5e		 pop	 esi
  00044	5b		 pop	 ebx
  00045	8b e5		 mov	 esp, ebp
  00047	5d		 pop	 ebp
  00048	c2 04 00	 ret	 4
$LN5@CallCheckS:
  0004b	8d 4d dc	 lea	 ecx, DWORD PTR _SDF$[ebp]
  0004e	ff 15 00 00 00
	00		 call	 DWORD PTR __imp_??0?$CStringT@DV?$StrTraitMFC_DLL@DV?$ChTraitsCRT@D@ATL@@@@@ATL@@QAE@XZ
  00054	8d 4d e0	 lea	 ecx, DWORD PTR _SDF$[ebp+4]
  00057	ff 15 00 00 00
	00		 call	 DWORD PTR __imp_??0?$CStringT@DV?$StrTraitMFC_DLL@DV?$ChTraitsCRT@D@ATL@@@@@ATL@@QAE@XZ

; 155  : 		TRACE("공유를 통해서 들어왔기 땜시 Set공유 발생 안함..[%s]\n",_szData);
; 156  : 		return;
; 157  : 	}
; 158  : 
; 159  : 	TRACE("Set공유 발생 [%s]\n",_szData);
; 160  : 	ST_GSHAREDFORMAT SDF;
; 161  : 	CString szShareNameList;

  0005d	8d 4d f0	 lea	 ecx, DWORD PTR _szShareNameList$[ebp]
  00060	c7 45 fc 00 00
	00 00		 mov	 DWORD PTR __$EHRec$[ebp+8], 0
  00067	ff 15 00 00 00
	00		 call	 DWORD PTR __imp_??0?$CStringT@DV?$StrTraitMFC_DLL@DV?$ChTraitsCRT@D@ATL@@@@@ATL@@QAE@XZ

; 162  : 	for(POSITION pos=m_ListShare.GetHeadPosition(); pos; )

  0006d	8b 7b 0c	 mov	 edi, DWORD PTR [ebx+12]
  00070	c6 45 fc 01	 mov	 BYTE PTR __$EHRec$[ebp+8], 1
  00074	85 ff		 test	 edi, edi
  00076	74 53		 je	 SHORT $LN3@CallCheckS
$LL2@CallCheckS:
; File C:\Program Files (x86)\Microsoft Visual Studio\2019\Community\VC\Tools\MSVC\14.29.30133\atlmfc\include\afxtempl.h

; 811  : 	{ CNode* pNode = (CNode*) rPosition;

  00078	8b f7		 mov	 esi, edi
  0007a	8d 4d dc	 lea	 ecx, DWORD PTR _SDF$[ebp]

; 812  : 		ASSERT(AfxIsValidAddress(pNode, sizeof(CNode)));
; 813  : 		rPosition = (POSITION) pNode->pNext;

  0007d	8b 3f		 mov	 edi, DWORD PTR [edi]

; 814  : 		return pNode->data; }

  0007f	83 c6 08	 add	 esi, 8
  00082	56		 push	 esi
  00083	ff 15 00 00 00
	00		 call	 DWORD PTR __imp_??4?$CStringT@DV?$StrTraitMFC_DLL@DV?$ChTraitsCRT@D@ATL@@@@@ATL@@QAEAAV01@ABV01@@Z
  00089	8d 46 04	 lea	 eax, DWORD PTR [esi+4]
  0008c	50		 push	 eax
  0008d	8d 4d e0	 lea	 ecx, DWORD PTR _SDF$[ebp+4]
  00090	ff 15 00 00 00
	00		 call	 DWORD PTR __imp_??4?$CStringT@DV?$StrTraitMFC_DLL@DV?$ChTraitsCRT@D@ATL@@@@@ATL@@QAEAAV01@ABV01@@Z
  00096	8b 46 08	 mov	 eax, DWORD PTR [esi+8]
  00099	89 45 e4	 mov	 DWORD PTR _SDF$[ebp+8], eax
  0009c	8b 4e 0c	 mov	 ecx, DWORD PTR [esi+12]
  0009f	89 4d e8	 mov	 DWORD PTR _SDF$[ebp+12], ecx
  000a2	8b 46 10	 mov	 eax, DWORD PTR [esi+16]
  000a5	89 45 ec	 mov	 DWORD PTR _SDF$[ebp+16], eax
; File D:\git\src\IBK\IBK_DRFN\ProjSrc\SrcDrfn\Chart\ExControl\CtrlGlobalSharedData.cpp

; 164  : 		SDF = m_ListShare.GetNext(pos);

  000a8	85 c9		 test	 ecx, ecx

; 165  : 		if(SDF.m_bSet)

  000aa	74 1b		 je	 SHORT $LN6@CallCheckS

; 166  : 		{
; 167  : 			szShareNameList += SDF.m_szSharedName;

  000ac	8d 45 dc	 lea	 eax, DWORD PTR _SDF$[ebp]
  000af	50		 push	 eax
  000b0	8d 4d f0	 lea	 ecx, DWORD PTR _szShareNameList$[ebp]
  000b3	ff 15 00 00 00
	00		 call	 DWORD PTR __imp_??Y?$CStringT@DV?$StrTraitMFC_DLL@DV?$ChTraitsCRT@D@ATL@@@@@ATL@@QAEAAV01@ABV?$CSimpleStringT@D$00@1@@Z

; 168  : 			szShareNameList += ";";

  000b9	68 00 00 00 00	 push	 OFFSET ??_C@_01ICJEACDI@?$DL@
  000be	8d 4d f0	 lea	 ecx, DWORD PTR _szShareNameList$[ebp]
  000c1	ff 15 00 00 00
	00		 call	 DWORD PTR __imp_??Y?$CStringT@DV?$StrTraitMFC_DLL@DV?$ChTraitsCRT@D@ATL@@@@@ATL@@QAEAAV01@PBD@Z
$LN6@CallCheckS:

; 162  : 	for(POSITION pos=m_ListShare.GetHeadPosition(); pos; )

  000c7	85 ff		 test	 edi, edi
  000c9	75 ad		 jne	 SHORT $LL2@CallCheckS
$LN3@CallCheckS:

; 169  : 		}
; 170  : 	}
; 171  : 
; 172  : 	if(szShareNameList.GetLength() > 0)

  000cb	8b 45 f0	 mov	 eax, DWORD PTR _szShareNameList$[ebp]
  000ce	83 78 f4 00	 cmp	 DWORD PTR [eax-12], 0
  000d2	7e 11		 jle	 SHORT $LN25@CallCheckS

; 61   : 	if(m_pGSharedSvr)

  000d4	8b 4b 04	 mov	 ecx, DWORD PTR [ebx+4]
  000d7	85 c9		 test	 ecx, ecx
  000d9	74 0a		 je	 SHORT $LN25@CallCheckS

; 62   : 		return m_pGSharedSvr->SetData(_szName, _szValue, this);

  000db	8b 11		 mov	 edx, DWORD PTR [ecx]
  000dd	53		 push	 ebx
  000de	ff 75 08	 push	 DWORD PTR __szData$[ebp]
  000e1	50		 push	 eax
  000e2	ff 52 04	 call	 DWORD PTR [edx+4]
$LN25@CallCheckS:

; 173  : 		SetData(szShareNameList, _szData);
; 174  : }

  000e5	8d 4d f0	 lea	 ecx, DWORD PTR _szShareNameList$[ebp]
  000e8	ff 15 00 00 00
	00		 call	 DWORD PTR __imp_??1?$CStringT@DV?$StrTraitMFC_DLL@DV?$ChTraitsCRT@D@ATL@@@@@ATL@@QAE@XZ
  000ee	8d 4d e0	 lea	 ecx, DWORD PTR _SDF$[ebp+4]
  000f1	ff 15 00 00 00
	00		 call	 DWORD PTR __imp_??1?$CStringT@DV?$StrTraitMFC_DLL@DV?$ChTraitsCRT@D@ATL@@@@@ATL@@QAE@XZ
  000f7	8d 4d dc	 lea	 ecx, DWORD PTR _SDF$[ebp]
  000fa	ff 15 00 00 00
	00		 call	 DWORD PTR __imp_??1?$CStringT@DV?$StrTraitMFC_DLL@DV?$ChTraitsCRT@D@ATL@@@@@ATL@@QAE@XZ
  00100	8b 4d f4	 mov	 ecx, DWORD PTR __$EHRec$[ebp]
  00103	64 89 0d 00 00
	00 00		 mov	 DWORD PTR fs:0, ecx
  0010a	59		 pop	 ecx
  0010b	5f		 pop	 edi
  0010c	5e		 pop	 esi
  0010d	5b		 pop	 ebx
  0010e	8b e5		 mov	 esp, ebp
  00110	5d		 pop	 ebp
  00111	c2 04 00	 ret	 4
_TEXT	ENDS
;	COMDAT text$x
text$x	SEGMENT
__unwindfunclet$?CallCheckSharedData@CGSharedCli@CExOCXDLL@@QAEXPBD@Z$0:
  00000	8d 4d dc	 lea	 ecx, DWORD PTR _SDF$[ebp]
  00003	e9 00 00 00 00	 jmp	 ??1ST_GSHAREDFORMAT@@QAE@XZ
__unwindfunclet$?CallCheckSharedData@CGSharedCli@CExOCXDLL@@QAEXPBD@Z$1:
  00008	8d 4d f0	 lea	 ecx, DWORD PTR _szShareNameList$[ebp]
  0000b	ff 25 00 00 00
	00		 jmp	 DWORD PTR __imp_??1?$CStringT@DV?$StrTraitMFC_DLL@DV?$ChTraitsCRT@D@ATL@@@@@ATL@@QAE@XZ
  00011	cc		 int	 3
  00012	cc		 int	 3
  00013	cc		 int	 3
  00014	cc		 int	 3
  00015	cc		 int	 3
__ehhandler$?CallCheckSharedData@CGSharedCli@CExOCXDLL@@QAEXPBD@Z:
  00016	90		 npad	 1
  00017	90		 npad	 1
  00018	8b 54 24 08	 mov	 edx, DWORD PTR [esp+8]
  0001c	8d 42 0c	 lea	 eax, DWORD PTR [edx+12]
  0001f	8b 4a d8	 mov	 ecx, DWORD PTR [edx-40]
  00022	33 c8		 xor	 ecx, eax
  00024	e8 00 00 00 00	 call	 @__security_check_cookie@4
  00029	b8 00 00 00 00	 mov	 eax, OFFSET __ehfuncinfo$?CallCheckSharedData@CGSharedCli@CExOCXDLL@@QAEXPBD@Z
  0002e	e9 00 00 00 00	 jmp	 ___CxxFrameHandler3
text$x	ENDS
?CallCheckSharedData@CGSharedCli@CExOCXDLL@@QAEXPBD@Z ENDP ; CExOCXDLL::CGSharedCli::CallCheckSharedData
; Function compile flags: /Ogtp
; File D:\git\src\IBK\IBK_DRFN\ProjSrc\SrcDrfn\Chart\ExControl\CtrlGlobalSharedData.cpp
; File C:\Program Files (x86)\Microsoft Visual Studio\2019\Community\VC\Tools\MSVC\14.29.30133\atlmfc\include\afxtempl.h
; File D:\git\src\IBK\IBK_DRFN\ProjSrc\SrcDrfn\Chart\ExControl\CtrlGlobalSharedData.cpp
; File C:\Program Files (x86)\Microsoft Visual Studio\2019\Community\VC\Tools\MSVC\14.29.30133\atlmfc\include\afxtempl.h
; File D:\git\src\IBK\IBK_DRFN\ProjSrc\SrcDrfn\Chart\ExControl\CtrlGlobalSharedData.cpp
;	COMDAT ?FindShareData@CGSharedCli@CExOCXDLL@@QAEPAU__POSITION@@PBD@Z
_TEXT	SEGMENT
_SDF$ = -36						; size = 20
_szShareList$ = -16					; size = 4
__$EHRec$ = -12						; size = 12
_szTmp$ = 8						; size = 4
__szName$ = 8						; size = 4
?FindShareData@CGSharedCli@CExOCXDLL@@QAEPAU__POSITION@@PBD@Z PROC ; CExOCXDLL::CGSharedCli::FindShareData, COMDAT
; _this$ = ecx

; 126  : {

  00000	55		 push	 ebp
  00001	8b ec		 mov	 ebp, esp
  00003	6a ff		 push	 -1
  00005	68 00 00 00 00	 push	 __ehhandler$?FindShareData@CGSharedCli@CExOCXDLL@@QAEPAU__POSITION@@PBD@Z
  0000a	64 a1 00 00 00
	00		 mov	 eax, DWORD PTR fs:0
  00010	50		 push	 eax
  00011	83 ec 18	 sub	 esp, 24			; 00000018H
  00014	53		 push	 ebx
  00015	56		 push	 esi
  00016	57		 push	 edi
  00017	a1 00 00 00 00	 mov	 eax, DWORD PTR ___security_cookie
  0001c	33 c5		 xor	 eax, ebp
  0001e	50		 push	 eax
  0001f	8d 45 f4	 lea	 eax, DWORD PTR __$EHRec$[ebp]
  00022	64 a3 00 00 00
	00		 mov	 DWORD PTR fs:0, eax
  00028	8b f1		 mov	 esi, ecx

; 127  : 	CString szShareList = _szName;

  0002a	ff 75 08	 push	 DWORD PTR __szName$[ebp]
  0002d	8d 4d f0	 lea	 ecx, DWORD PTR _szShareList$[ebp]
  00030	ff 15 00 00 00
	00		 call	 DWORD PTR __imp_??0?$CStringT@DV?$StrTraitMFC_DLL@DV?$ChTraitsCRT@D@ATL@@@@@ATL@@QAE@PBD@Z

; 128  : 	szShareList += ";";

  00036	68 00 00 00 00	 push	 OFFSET ??_C@_01ICJEACDI@?$DL@
  0003b	8d 4d f0	 lea	 ecx, DWORD PTR _szShareList$[ebp]
  0003e	c7 45 fc 00 00
	00 00		 mov	 DWORD PTR __$EHRec$[ebp+8], 0
  00045	ff 15 00 00 00
	00		 call	 DWORD PTR __imp_??Y?$CStringT@DV?$StrTraitMFC_DLL@DV?$ChTraitsCRT@D@ATL@@@@@ATL@@QAEAAV01@PBD@Z

; 129  : 	CString szTmp;

  0004b	8d 4d 08	 lea	 ecx, DWORD PTR _szTmp$[ebp]
  0004e	ff 15 00 00 00
	00		 call	 DWORD PTR __imp_??0?$CStringT@DV?$StrTraitMFC_DLL@DV?$ChTraitsCRT@D@ATL@@@@@ATL@@QAE@XZ
  00054	8d 4d dc	 lea	 ecx, DWORD PTR _SDF$[ebp]
  00057	ff 15 00 00 00
	00		 call	 DWORD PTR __imp_??0?$CStringT@DV?$StrTraitMFC_DLL@DV?$ChTraitsCRT@D@ATL@@@@@ATL@@QAE@XZ
  0005d	8d 4d e0	 lea	 ecx, DWORD PTR _SDF$[ebp+4]
  00060	ff 15 00 00 00
	00		 call	 DWORD PTR __imp_??0?$CStringT@DV?$StrTraitMFC_DLL@DV?$ChTraitsCRT@D@ATL@@@@@ATL@@QAE@XZ

; 130  : 
; 131  : 	ST_GSHAREDFORMAT SDF;
; 132  : 	POSITION tmpPos;
; 133  : 	for(POSITION pos=m_ListShare.GetHeadPosition(); pos; )

  00066	8b 7e 0c	 mov	 edi, DWORD PTR [esi+12]
  00069	c6 45 fc 02	 mov	 BYTE PTR __$EHRec$[ebp+8], 2
  0006d	85 ff		 test	 edi, edi
  0006f	74 75		 je	 SHORT $LN31@FindShareD
$LL2@FindShareD:
; File C:\Program Files (x86)\Microsoft Visual Studio\2019\Community\VC\Tools\MSVC\14.29.30133\atlmfc\include\afxtempl.h

; 811  : 	{ CNode* pNode = (CNode*) rPosition;

  00071	8b f7		 mov	 esi, edi
  00073	8d 4d dc	 lea	 ecx, DWORD PTR _SDF$[ebp]

; 814  : 		return pNode->data; }

  00076	83 c6 08	 add	 esi, 8
; File D:\git\src\IBK\IBK_DRFN\ProjSrc\SrcDrfn\Chart\ExControl\CtrlGlobalSharedData.cpp

; 135  : 		tmpPos=pos;

  00079	8b df		 mov	 ebx, edi
; File C:\Program Files (x86)\Microsoft Visual Studio\2019\Community\VC\Tools\MSVC\14.29.30133\atlmfc\include\afxtempl.h

; 813  : 		rPosition = (POSITION) pNode->pNext;

  0007b	8b 3f		 mov	 edi, DWORD PTR [edi]
  0007d	56		 push	 esi
  0007e	ff 15 00 00 00
	00		 call	 DWORD PTR __imp_??4?$CStringT@DV?$StrTraitMFC_DLL@DV?$ChTraitsCRT@D@ATL@@@@@ATL@@QAEAAV01@ABV01@@Z
  00084	8d 46 04	 lea	 eax, DWORD PTR [esi+4]
  00087	50		 push	 eax
  00088	8d 4d e0	 lea	 ecx, DWORD PTR _SDF$[ebp+4]
  0008b	ff 15 00 00 00
	00		 call	 DWORD PTR __imp_??4?$CStringT@DV?$StrTraitMFC_DLL@DV?$ChTraitsCRT@D@ATL@@@@@ATL@@QAEAAV01@ABV01@@Z
  00091	8b 46 08	 mov	 eax, DWORD PTR [esi+8]
  00094	89 45 e4	 mov	 DWORD PTR _SDF$[ebp+8], eax
  00097	8b 46 0c	 mov	 eax, DWORD PTR [esi+12]
  0009a	89 45 e8	 mov	 DWORD PTR _SDF$[ebp+12], eax
  0009d	8b 46 10	 mov	 eax, DWORD PTR [esi+16]
  000a0	89 45 ec	 mov	 DWORD PTR _SDF$[ebp+16], eax
; File D:\git\src\IBK\IBK_DRFN\ProjSrc\SrcDrfn\Chart\ExControl\CtrlGlobalSharedData.cpp

; 136  : 		SDF = m_ListShare.GetNext(pos);

  000a3	85 c0		 test	 eax, eax

; 137  : 		if(SDF.m_bGet)

  000a5	74 3b		 je	 SHORT $LN6@FindShareD

; 138  : 		{
; 139  : 			szTmp.Format("%s;", SDF.m_szSharedName);

  000a7	ff 75 dc	 push	 DWORD PTR _SDF$[ebp]
  000aa	8d 45 08	 lea	 eax, DWORD PTR _szTmp$[ebp]
  000ad	68 00 00 00 00	 push	 OFFSET ??_C@_03CDFCEGNO@?$CFs?$DL@
  000b2	50		 push	 eax
  000b3	ff 15 00 00 00
	00		 call	 DWORD PTR __imp_?Format@?$CStringT@DV?$StrTraitMFC_DLL@DV?$ChTraitsCRT@D@ATL@@@@@ATL@@QAAXPBDZZ
  000b9	83 c4 0c	 add	 esp, 12			; 0000000cH

; 140  : 			szTmp.Remove(';');

  000bc	8d 4d 08	 lea	 ecx, DWORD PTR _szTmp$[ebp]
  000bf	6a 3b		 push	 59			; 0000003bH
  000c1	ff 15 00 00 00
	00		 call	 DWORD PTR __imp_?Remove@?$CStringT@DV?$StrTraitMFC_DLL@DV?$ChTraitsCRT@D@ATL@@@@@ATL@@QAEHD@Z

; 141  : 			szShareList.Remove(';');

  000c7	6a 3b		 push	 59			; 0000003bH
  000c9	8d 4d f0	 lea	 ecx, DWORD PTR _szShareList$[ebp]
  000cc	ff 15 00 00 00
	00		 call	 DWORD PTR __imp_?Remove@?$CStringT@DV?$StrTraitMFC_DLL@DV?$ChTraitsCRT@D@ATL@@@@@ATL@@QAEHD@Z

; 142  : 			if(szShareList.CompareNoCase(szTmp) == 0)

  000d2	ff 75 08	 push	 DWORD PTR _szTmp$[ebp]
  000d5	8d 4d f0	 lea	 ecx, DWORD PTR _szShareList$[ebp]
  000d8	ff 15 00 00 00
	00		 call	 DWORD PTR __imp_?CompareNoCase@?$CStringT@DV?$StrTraitMFC_DLL@DV?$ChTraitsCRT@D@ATL@@@@@ATL@@QBEHPBD@Z
  000de	85 c0		 test	 eax, eax
  000e0	74 06		 je	 SHORT $LN11@FindShareD
$LN6@FindShareD:

; 130  : 
; 131  : 	ST_GSHAREDFORMAT SDF;
; 132  : 	POSITION tmpPos;
; 133  : 	for(POSITION pos=m_ListShare.GetHeadPosition(); pos; )

  000e2	85 ff		 test	 edi, edi
  000e4	75 8b		 jne	 SHORT $LL2@FindShareD
$LN31@FindShareD:

; 143  : 				return tmpPos;
; 144  : 		}
; 145  : 	}
; 146  : 
; 147  : 	return NULL;

  000e6	33 db		 xor	 ebx, ebx
$LN11@FindShareD:
  000e8	8d 4d e0	 lea	 ecx, DWORD PTR _SDF$[ebp+4]
  000eb	ff 15 00 00 00
	00		 call	 DWORD PTR __imp_??1?$CStringT@DV?$StrTraitMFC_DLL@DV?$ChTraitsCRT@D@ATL@@@@@ATL@@QAE@XZ
  000f1	8d 4d dc	 lea	 ecx, DWORD PTR _SDF$[ebp]
  000f4	ff 15 00 00 00
	00		 call	 DWORD PTR __imp_??1?$CStringT@DV?$StrTraitMFC_DLL@DV?$ChTraitsCRT@D@ATL@@@@@ATL@@QAE@XZ
  000fa	8d 4d 08	 lea	 ecx, DWORD PTR _szTmp$[ebp]
  000fd	ff 15 00 00 00
	00		 call	 DWORD PTR __imp_??1?$CStringT@DV?$StrTraitMFC_DLL@DV?$ChTraitsCRT@D@ATL@@@@@ATL@@QAE@XZ
  00103	8d 4d f0	 lea	 ecx, DWORD PTR _szShareList$[ebp]
  00106	ff 15 00 00 00
	00		 call	 DWORD PTR __imp_??1?$CStringT@DV?$StrTraitMFC_DLL@DV?$ChTraitsCRT@D@ATL@@@@@ATL@@QAE@XZ
  0010c	8b c3		 mov	 eax, ebx

; 148  : }

  0010e	8b 4d f4	 mov	 ecx, DWORD PTR __$EHRec$[ebp]
  00111	64 89 0d 00 00
	00 00		 mov	 DWORD PTR fs:0, ecx
  00118	59		 pop	 ecx
  00119	5f		 pop	 edi
  0011a	5e		 pop	 esi
  0011b	5b		 pop	 ebx
  0011c	8b e5		 mov	 esp, ebp
  0011e	5d		 pop	 ebp
  0011f	c2 04 00	 ret	 4
_TEXT	ENDS
;	COMDAT text$x
text$x	SEGMENT
__unwindfunclet$?FindShareData@CGSharedCli@CExOCXDLL@@QAEPAU__POSITION@@PBD@Z$0:
  00000	8d 4d f0	 lea	 ecx, DWORD PTR _szShareList$[ebp]
  00003	ff 25 00 00 00
	00		 jmp	 DWORD PTR __imp_??1?$CStringT@DV?$StrTraitMFC_DLL@DV?$ChTraitsCRT@D@ATL@@@@@ATL@@QAE@XZ
__unwindfunclet$?FindShareData@CGSharedCli@CExOCXDLL@@QAEPAU__POSITION@@PBD@Z$1:
  00009	8d 4d 08	 lea	 ecx, DWORD PTR _szTmp$[ebp]
  0000c	ff 25 00 00 00
	00		 jmp	 DWORD PTR __imp_??1?$CStringT@DV?$StrTraitMFC_DLL@DV?$ChTraitsCRT@D@ATL@@@@@ATL@@QAE@XZ
__unwindfunclet$?FindShareData@CGSharedCli@CExOCXDLL@@QAEPAU__POSITION@@PBD@Z$2:
  00012	8d 4d dc	 lea	 ecx, DWORD PTR _SDF$[ebp]
  00015	e9 00 00 00 00	 jmp	 ??1ST_GSHAREDFORMAT@@QAE@XZ
  0001a	cc		 int	 3
  0001b	cc		 int	 3
  0001c	cc		 int	 3
  0001d	cc		 int	 3
  0001e	cc		 int	 3
__ehhandler$?FindShareData@CGSharedCli@CExOCXDLL@@QAEPAU__POSITION@@PBD@Z:
  0001f	90		 npad	 1
  00020	90		 npad	 1
  00021	8b 54 24 08	 mov	 edx, DWORD PTR [esp+8]
  00025	8d 42 0c	 lea	 eax, DWORD PTR [edx+12]
  00028	8b 4a d8	 mov	 ecx, DWORD PTR [edx-40]
  0002b	33 c8		 xor	 ecx, eax
  0002d	e8 00 00 00 00	 call	 @__security_check_cookie@4
  00032	b8 00 00 00 00	 mov	 eax, OFFSET __ehfuncinfo$?FindShareData@CGSharedCli@CExOCXDLL@@QAEPAU__POSITION@@PBD@Z
  00037	e9 00 00 00 00	 jmp	 ___CxxFrameHandler3
text$x	ENDS
?FindShareData@CGSharedCli@CExOCXDLL@@QAEPAU__POSITION@@PBD@Z ENDP ; CExOCXDLL::CGSharedCli::FindShareData
; Function compile flags: /Ogtp
; File D:\git\src\IBK\IBK_DRFN\ProjSrc\SrcDrfn\Chart\ExControl\CtrlGlobalSharedData.cpp
; File C:\Program Files (x86)\Microsoft Visual Studio\2019\Community\VC\Tools\MSVC\14.29.30133\atlmfc\include\atlsimpstr.h
; File D:\git\src\IBK\IBK_DRFN\ProjSrc\SrcDrfn\Chart\ExControl\CtrlGlobalSharedData.cpp
; File C:\Program Files (x86)\Microsoft Visual Studio\2019\Community\VC\Tools\MSVC\14.29.30133\atlmfc\include\atlsimpstr.h
; File D:\git\src\IBK\IBK_DRFN\ProjSrc\SrcDrfn\Chart\ExControl\CtrlGlobalSharedData.cpp
; File C:\Program Files (x86)\Microsoft Visual Studio\2019\Community\VC\Tools\MSVC\14.29.30133\atlmfc\include\atlsimpstr.h
; File D:\git\src\IBK\IBK_DRFN\ProjSrc\SrcDrfn\Chart\ExControl\CtrlGlobalSharedData.cpp
;	COMDAT ?MakeList@CGSharedCli@CExOCXDLL@@QAEXV?$CStringT@DV?$StrTraitMFC_DLL@DV?$ChTraitsCRT@D@ATL@@@@@ATL@@@Z
_TEXT	SEGMENT
_SDF$2 = -60						; size = 20
_this$ = -40						; size = 4
$T3 = -36						; size = 4
$T4 = -32						; size = 4
$T5 = -28						; size = 4
_szData$ = -24						; size = 4
_szShareName$ = -20					; size = 4
_aTmp$ = -16						; size = 2
__$EHRec$ = -12						; size = 12
_szList$ = 8						; size = 4
?MakeList@CGSharedCli@CExOCXDLL@@QAEXV?$CStringT@DV?$StrTraitMFC_DLL@DV?$ChTraitsCRT@D@ATL@@@@@ATL@@@Z PROC ; CExOCXDLL::CGSharedCli::MakeList, COMDAT
; _this$ = ecx

; 85   : {

  00000	55		 push	 ebp
  00001	8b ec		 mov	 ebp, esp
  00003	6a ff		 push	 -1
  00005	68 00 00 00 00	 push	 __ehhandler$?MakeList@CGSharedCli@CExOCXDLL@@QAEXV?$CStringT@DV?$StrTraitMFC_DLL@DV?$ChTraitsCRT@D@ATL@@@@@ATL@@@Z
  0000a	64 a1 00 00 00
	00		 mov	 eax, DWORD PTR fs:0
  00010	50		 push	 eax
  00011	83 ec 30	 sub	 esp, 48			; 00000030H
  00014	53		 push	 ebx
  00015	56		 push	 esi
  00016	57		 push	 edi
  00017	a1 00 00 00 00	 mov	 eax, DWORD PTR ___security_cookie
  0001c	33 c5		 xor	 eax, ebp
  0001e	50		 push	 eax
  0001f	8d 45 f4	 lea	 eax, DWORD PTR __$EHRec$[ebp]
  00022	64 a3 00 00 00
	00		 mov	 DWORD PTR fs:0, eax

; 86   : 	m_ListShare.RemoveAll();

  00028	8d 79 08	 lea	 edi, DWORD PTR [ecx+8]
  0002b	c7 45 fc 00 00
	00 00		 mov	 DWORD PTR __$EHRec$[ebp+8], 0
  00032	8b cf		 mov	 ecx, edi
  00034	e8 00 00 00 00	 call	 ?RemoveAll@?$CList@UST_GSHAREDFORMAT@@U1@@@QAEXXZ ; CList<ST_GSHAREDFORMAT,ST_GSHAREDFORMAT>::RemoveAll
; File C:\Program Files (x86)\Microsoft Visual Studio\2019\Community\VC\Tools\MSVC\14.29.30133\atlmfc\include\atlsimpstr.h

; 519  : 		return( GetData()->nDataLength );

  00039	8b 45 08	 mov	 eax, DWORD PTR _szList$[ebp]
; File D:\git\src\IBK\IBK_DRFN\ProjSrc\SrcDrfn\Chart\ExControl\CtrlGlobalSharedData.cpp

; 88   : 	if(szList.GetLength()==0)		return;

  0003c	83 78 f4 00	 cmp	 DWORD PTR [eax-12], 0
  00040	0f 84 ad 01 00
	00		 je	 $LN17@MakeList

; 89   : 
; 90   : 	CString szData = szList;

  00046	8d 45 08	 lea	 eax, DWORD PTR _szList$[ebp]
  00049	50		 push	 eax
  0004a	8d 4d e8	 lea	 ecx, DWORD PTR _szData$[ebp]
  0004d	ff 15 00 00 00
	00		 call	 DWORD PTR __imp_??0?$CStringT@DV?$StrTraitMFC_DLL@DV?$ChTraitsCRT@D@ATL@@@@@ATL@@QAE@ABV01@@Z

; 91   : 	szData += ";";

  00053	68 00 00 00 00	 push	 OFFSET ??_C@_01ICJEACDI@?$DL@
  00058	8d 4d e8	 lea	 ecx, DWORD PTR _szData$[ebp]
  0005b	c6 45 fc 01	 mov	 BYTE PTR __$EHRec$[ebp+8], 1
  0005f	ff 15 00 00 00
	00		 call	 DWORD PTR __imp_??Y?$CStringT@DV?$StrTraitMFC_DLL@DV?$ChTraitsCRT@D@ATL@@@@@ATL@@QAEAAV01@PBD@Z

; 92   : 	int nIndex = szData.Find(";");

  00065	6a 00		 push	 0
  00067	68 00 00 00 00	 push	 OFFSET ??_C@_01ICJEACDI@?$DL@
  0006c	8d 4d e8	 lea	 ecx, DWORD PTR _szData$[ebp]
  0006f	ff 15 00 00 00
	00		 call	 DWORD PTR __imp_?Find@?$CStringT@DV?$StrTraitMFC_DLL@DV?$ChTraitsCRT@D@ATL@@@@@ATL@@QBEHPBDH@Z

; 93   : 	CString szShareName;

  00075	8d 4d ec	 lea	 ecx, DWORD PTR _szShareName$[ebp]
  00078	8b f0		 mov	 esi, eax
  0007a	ff 15 00 00 00
	00		 call	 DWORD PTR __imp_??0?$CStringT@DV?$StrTraitMFC_DLL@DV?$ChTraitsCRT@D@ATL@@@@@ATL@@QAE@XZ

; 94   : 
; 95   : 	BOOL	bStart, bSet, bGet;
; 96   : 	char	aTmp[2]={0,};

  00080	33 c0		 xor	 eax, eax
  00082	c6 45 fc 02	 mov	 BYTE PTR __$EHRec$[ebp+8], 2
  00086	66 89 45 f0	 mov	 WORD PTR _aTmp$[ebp], ax

; 97   : 	int		nLen, nCnt=0, nTmp;
; 98   : 
; 99   : 	while(nIndex>0)

  0008a	85 f6		 test	 esi, esi
  0008c	0f 8e 4f 01 00
	00		 jle	 $LN3@MakeList
  00092	8b 1d 00 00 00
	00		 mov	 ebx, DWORD PTR __imp__atoi
$LL2@MakeList:

; 100  : 	{
; 101  : 		bStart = bSet = bGet = FALSE;
; 102  : 		szShareName = szData.Left(nIndex);

  00098	56		 push	 esi
  00099	8d 45 e4	 lea	 eax, DWORD PTR $T5[ebp]
  0009c	50		 push	 eax
  0009d	8d 4d e8	 lea	 ecx, DWORD PTR _szData$[ebp]
  000a0	ff 15 00 00 00
	00		 call	 DWORD PTR __imp_?Left@?$CStringT@DV?$StrTraitMFC_DLL@DV?$ChTraitsCRT@D@ATL@@@@@ATL@@QBE?AV12@H@Z
  000a6	50		 push	 eax
  000a7	8d 4d ec	 lea	 ecx, DWORD PTR _szShareName$[ebp]
  000aa	c6 45 fc 03	 mov	 BYTE PTR __$EHRec$[ebp+8], 3
  000ae	ff 15 00 00 00
	00		 call	 DWORD PTR __imp_??4?$CStringT@DV?$StrTraitMFC_DLL@DV?$ChTraitsCRT@D@ATL@@@@@ATL@@QAEAAV01@ABV01@@Z
  000b4	8d 4d e4	 lea	 ecx, DWORD PTR $T5[ebp]
  000b7	c6 45 fc 02	 mov	 BYTE PTR __$EHRec$[ebp+8], 2
  000bb	ff 15 00 00 00
	00		 call	 DWORD PTR __imp_??1?$CStringT@DV?$StrTraitMFC_DLL@DV?$ChTraitsCRT@D@ATL@@@@@ATL@@QAE@XZ

; 103  : 		szData = szData.Mid(nIndex+1);

  000c1	8d 46 01	 lea	 eax, DWORD PTR [esi+1]
  000c4	50		 push	 eax
  000c5	8d 45 e0	 lea	 eax, DWORD PTR $T4[ebp]
  000c8	50		 push	 eax
  000c9	8d 4d e8	 lea	 ecx, DWORD PTR _szData$[ebp]
  000cc	ff 15 00 00 00
	00		 call	 DWORD PTR __imp_?Mid@?$CStringT@DV?$StrTraitMFC_DLL@DV?$ChTraitsCRT@D@ATL@@@@@ATL@@QBE?AV12@H@Z
  000d2	50		 push	 eax
  000d3	8d 4d e8	 lea	 ecx, DWORD PTR _szData$[ebp]
  000d6	c6 45 fc 04	 mov	 BYTE PTR __$EHRec$[ebp+8], 4
  000da	ff 15 00 00 00
	00		 call	 DWORD PTR __imp_??4?$CStringT@DV?$StrTraitMFC_DLL@DV?$ChTraitsCRT@D@ATL@@@@@ATL@@QAEAAV01@ABV01@@Z
  000e0	8d 4d e0	 lea	 ecx, DWORD PTR $T4[ebp]
  000e3	c6 45 fc 02	 mov	 BYTE PTR __$EHRec$[ebp+8], 2
  000e7	ff 15 00 00 00
	00		 call	 DWORD PTR __imp_??1?$CStringT@DV?$StrTraitMFC_DLL@DV?$ChTraitsCRT@D@ATL@@@@@ATL@@QAE@XZ
; File C:\Program Files (x86)\Microsoft Visual Studio\2019\Community\VC\Tools\MSVC\14.29.30133\atlmfc\include\atlsimpstr.h

; 519  : 		return( GetData()->nDataLength );

  000ed	8b 45 ec	 mov	 eax, DWORD PTR _szShareName$[ebp]
; File D:\git\src\IBK\IBK_DRFN\ProjSrc\SrcDrfn\Chart\ExControl\CtrlGlobalSharedData.cpp

; 106  : 		aTmp[0] = szShareName[nLen-1];

  000f0	8d 4d ec	 lea	 ecx, DWORD PTR _szShareName$[ebp]
; File C:\Program Files (x86)\Microsoft Visual Studio\2019\Community\VC\Tools\MSVC\14.29.30133\atlmfc\include\atlsimpstr.h

; 519  : 		return( GetData()->nDataLength );

  000f3	8b 70 f4	 mov	 esi, DWORD PTR [eax-12]
; File D:\git\src\IBK\IBK_DRFN\ProjSrc\SrcDrfn\Chart\ExControl\CtrlGlobalSharedData.cpp

; 106  : 		aTmp[0] = szShareName[nLen-1];

  000f6	4e		 dec	 esi
  000f7	56		 push	 esi
  000f8	ff 15 00 00 00
	00		 call	 DWORD PTR __imp_??A?$CSimpleStringT@D$00@ATL@@QBEDH@Z
  000fe	88 45 f0	 mov	 BYTE PTR _aTmp$[ebp], al

; 107  : 		szShareName = szShareName.Left(nLen-1);

  00101	8d 4d ec	 lea	 ecx, DWORD PTR _szShareName$[ebp]
  00104	56		 push	 esi
  00105	8d 45 dc	 lea	 eax, DWORD PTR $T3[ebp]
  00108	50		 push	 eax
  00109	ff 15 00 00 00
	00		 call	 DWORD PTR __imp_?Left@?$CStringT@DV?$StrTraitMFC_DLL@DV?$ChTraitsCRT@D@ATL@@@@@ATL@@QBE?AV12@H@Z
  0010f	50		 push	 eax
  00110	8d 4d ec	 lea	 ecx, DWORD PTR _szShareName$[ebp]
  00113	c6 45 fc 05	 mov	 BYTE PTR __$EHRec$[ebp+8], 5
  00117	ff 15 00 00 00
	00		 call	 DWORD PTR __imp_??4?$CStringT@DV?$StrTraitMFC_DLL@DV?$ChTraitsCRT@D@ATL@@@@@ATL@@QAEAAV01@ABV01@@Z
  0011d	8d 4d dc	 lea	 ecx, DWORD PTR $T3[ebp]
  00120	ff 15 00 00 00
	00		 call	 DWORD PTR __imp_??1?$CStringT@DV?$StrTraitMFC_DLL@DV?$ChTraitsCRT@D@ATL@@@@@ATL@@QAE@XZ

; 108  : 
; 109  : 		nTmp = atoi(aTmp);

  00126	8d 45 f0	 lea	 eax, DWORD PTR _aTmp$[ebp]
  00129	50		 push	 eax
  0012a	ff d3		 call	 ebx
  0012c	83 c4 04	 add	 esp, 4
  0012f	8d 4d c4	 lea	 ecx, DWORD PTR _SDF$2[ebp]
  00132	8b f0		 mov	 esi, eax
  00134	ff 15 00 00 00
	00		 call	 DWORD PTR __imp_??0?$CStringT@DV?$StrTraitMFC_DLL@DV?$ChTraitsCRT@D@ATL@@@@@ATL@@QAE@XZ
  0013a	8d 4d c8	 lea	 ecx, DWORD PTR _SDF$2[ebp+4]
  0013d	ff 15 00 00 00
	00		 call	 DWORD PTR __imp_??0?$CStringT@DV?$StrTraitMFC_DLL@DV?$ChTraitsCRT@D@ATL@@@@@ATL@@QAE@XZ

; 110  : 		if(nTmp & 1) bStart = TRUE;
; 111  : 		if(nTmp & 2) bSet=TRUE;
; 112  : 		if(nTmp & 4) bGet=TRUE;
; 113  : 
; 114  : 		ST_GSHAREDFORMAT SDF;

  00143	8b c6		 mov	 eax, esi
  00145	c6 45 fc 06	 mov	 BYTE PTR __$EHRec$[ebp+8], 6
  00149	d1 e8		 shr	 eax, 1
  0014b	8b ce		 mov	 ecx, esi
  0014d	83 e0 01	 and	 eax, 1
  00150	c1 ee 02	 shr	 esi, 2
  00153	83 e1 01	 and	 ecx, 1

; 115  : 		SDF.m_bStart = bStart;
; 116  : 		SDF.m_bSet = bSet;

  00156	89 45 d0	 mov	 DWORD PTR _SDF$2[ebp+12], eax

; 117  : 		SDF.m_bGet = bGet;
; 118  : 		SDF.m_szSharedName = szShareName;

  00159	8d 45 ec	 lea	 eax, DWORD PTR _szShareName$[ebp]
  0015c	89 4d cc	 mov	 DWORD PTR _SDF$2[ebp+8], ecx
  0015f	83 e6 01	 and	 esi, 1
  00162	8d 4d c4	 lea	 ecx, DWORD PTR _SDF$2[ebp]
  00165	50		 push	 eax
  00166	89 75 d4	 mov	 DWORD PTR _SDF$2[ebp+16], esi
  00169	ff 15 00 00 00
	00		 call	 DWORD PTR __imp_??4?$CStringT@DV?$StrTraitMFC_DLL@DV?$ChTraitsCRT@D@ATL@@@@@ATL@@QAEAAV01@ABV01@@Z

; 119  : 		m_ListShare.AddTail(SDF);

  0016f	83 ec 14	 sub	 esp, 20			; 00000014H
  00172	8d 45 c4	 lea	 eax, DWORD PTR _SDF$2[ebp]
  00175	8b f4		 mov	 esi, esp
  00177	8b ce		 mov	 ecx, esi
  00179	89 75 d8	 mov	 DWORD PTR _this$[ebp], esi
  0017c	50		 push	 eax
  0017d	ff 15 00 00 00
	00		 call	 DWORD PTR __imp_??0?$CStringT@DV?$StrTraitMFC_DLL@DV?$ChTraitsCRT@D@ATL@@@@@ATL@@QAE@ABV01@@Z
  00183	c6 45 fc 07	 mov	 BYTE PTR __$EHRec$[ebp+8], 7
  00187	8d 45 c8	 lea	 eax, DWORD PTR _SDF$2[ebp+4]
  0018a	50		 push	 eax
  0018b	8d 4e 04	 lea	 ecx, DWORD PTR [esi+4]
  0018e	ff 15 00 00 00
	00		 call	 DWORD PTR __imp_??0?$CStringT@DV?$StrTraitMFC_DLL@DV?$ChTraitsCRT@D@ATL@@@@@ATL@@QAE@ABV01@@Z
  00194	8b 45 cc	 mov	 eax, DWORD PTR _SDF$2[ebp+8]
  00197	8b cf		 mov	 ecx, edi
  00199	89 46 08	 mov	 DWORD PTR [esi+8], eax
  0019c	8b 45 d0	 mov	 eax, DWORD PTR _SDF$2[ebp+12]
  0019f	89 46 0c	 mov	 DWORD PTR [esi+12], eax
  001a2	8b 45 d4	 mov	 eax, DWORD PTR _SDF$2[ebp+16]
  001a5	89 46 10	 mov	 DWORD PTR [esi+16], eax
  001a8	c6 45 fc 06	 mov	 BYTE PTR __$EHRec$[ebp+8], 6
  001ac	e8 00 00 00 00	 call	 ?AddTail@?$CList@UST_GSHAREDFORMAT@@U1@@@QAEPAU__POSITION@@UST_GSHAREDFORMAT@@@Z ; CList<ST_GSHAREDFORMAT,ST_GSHAREDFORMAT>::AddTail

; 120  : 
; 121  : 		nIndex = szData.Find(";");

  001b1	6a 00		 push	 0
  001b3	68 00 00 00 00	 push	 OFFSET ??_C@_01ICJEACDI@?$DL@
  001b8	8d 4d e8	 lea	 ecx, DWORD PTR _szData$[ebp]
  001bb	ff 15 00 00 00
	00		 call	 DWORD PTR __imp_?Find@?$CStringT@DV?$StrTraitMFC_DLL@DV?$ChTraitsCRT@D@ATL@@@@@ATL@@QBEHPBDH@Z
  001c1	8d 4d c8	 lea	 ecx, DWORD PTR _SDF$2[ebp+4]

; 122  : 	}

  001c4	c6 45 fc 02	 mov	 BYTE PTR __$EHRec$[ebp+8], 2
  001c8	8b f0		 mov	 esi, eax
  001ca	ff 15 00 00 00
	00		 call	 DWORD PTR __imp_??1?$CStringT@DV?$StrTraitMFC_DLL@DV?$ChTraitsCRT@D@ATL@@@@@ATL@@QAE@XZ
  001d0	8d 4d c4	 lea	 ecx, DWORD PTR _SDF$2[ebp]
  001d3	ff 15 00 00 00
	00		 call	 DWORD PTR __imp_??1?$CStringT@DV?$StrTraitMFC_DLL@DV?$ChTraitsCRT@D@ATL@@@@@ATL@@QAE@XZ
  001d9	85 f6		 test	 esi, esi
  001db	0f 8f b7 fe ff
	ff		 jg	 $LL2@MakeList
$LN3@MakeList:

; 123  : }

  001e1	8d 4d ec	 lea	 ecx, DWORD PTR _szShareName$[ebp]
  001e4	ff 15 00 00 00
	00		 call	 DWORD PTR __imp_??1?$CStringT@DV?$StrTraitMFC_DLL@DV?$ChTraitsCRT@D@ATL@@@@@ATL@@QAE@XZ
  001ea	8d 4d e8	 lea	 ecx, DWORD PTR _szData$[ebp]
  001ed	ff 15 00 00 00
	00		 call	 DWORD PTR __imp_??1?$CStringT@DV?$StrTraitMFC_DLL@DV?$ChTraitsCRT@D@ATL@@@@@ATL@@QAE@XZ
$LN17@MakeList:
  001f3	8d 4d 08	 lea	 ecx, DWORD PTR _szList$[ebp]
  001f6	ff 15 00 00 00
	00		 call	 DWORD PTR __imp_??1?$CStringT@DV?$StrTraitMFC_DLL@DV?$ChTraitsCRT@D@ATL@@@@@ATL@@QAE@XZ
  001fc	8b 4d f4	 mov	 ecx, DWORD PTR __$EHRec$[ebp]
  001ff	64 89 0d 00 00
	00 00		 mov	 DWORD PTR fs:0, ecx
  00206	59		 pop	 ecx
  00207	5f		 pop	 edi
  00208	5e		 pop	 esi
  00209	5b		 pop	 ebx
  0020a	8b e5		 mov	 esp, ebp
  0020c	5d		 pop	 ebp
  0020d	c2 04 00	 ret	 4
_TEXT	ENDS
;	COMDAT text$x
text$x	SEGMENT
__unwindfunclet$?MakeList@CGSharedCli@CExOCXDLL@@QAEXV?$CStringT@DV?$StrTraitMFC_DLL@DV?$ChTraitsCRT@D@ATL@@@@@ATL@@@Z$0:
  00000	8d 4d 08	 lea	 ecx, DWORD PTR _szList$[ebp]
  00003	ff 25 00 00 00
	00		 jmp	 DWORD PTR __imp_??1?$CStringT@DV?$StrTraitMFC_DLL@DV?$ChTraitsCRT@D@ATL@@@@@ATL@@QAE@XZ
__unwindfunclet$?MakeList@CGSharedCli@CExOCXDLL@@QAEXV?$CStringT@DV?$StrTraitMFC_DLL@DV?$ChTraitsCRT@D@ATL@@@@@ATL@@@Z$1:
  00009	8d 4d e8	 lea	 ecx, DWORD PTR _szData$[ebp]
  0000c	ff 25 00 00 00
	00		 jmp	 DWORD PTR __imp_??1?$CStringT@DV?$StrTraitMFC_DLL@DV?$ChTraitsCRT@D@ATL@@@@@ATL@@QAE@XZ
__unwindfunclet$?MakeList@CGSharedCli@CExOCXDLL@@QAEXV?$CStringT@DV?$StrTraitMFC_DLL@DV?$ChTraitsCRT@D@ATL@@@@@ATL@@@Z$2:
  00012	8d 4d ec	 lea	 ecx, DWORD PTR _szShareName$[ebp]
  00015	ff 25 00 00 00
	00		 jmp	 DWORD PTR __imp_??1?$CStringT@DV?$StrTraitMFC_DLL@DV?$ChTraitsCRT@D@ATL@@@@@ATL@@QAE@XZ
__unwindfunclet$?MakeList@CGSharedCli@CExOCXDLL@@QAEXV?$CStringT@DV?$StrTraitMFC_DLL@DV?$ChTraitsCRT@D@ATL@@@@@ATL@@@Z$3:
  0001b	8d 4d e4	 lea	 ecx, DWORD PTR $T5[ebp]
  0001e	ff 25 00 00 00
	00		 jmp	 DWORD PTR __imp_??1?$CStringT@DV?$StrTraitMFC_DLL@DV?$ChTraitsCRT@D@ATL@@@@@ATL@@QAE@XZ
__unwindfunclet$?MakeList@CGSharedCli@CExOCXDLL@@QAEXV?$CStringT@DV?$StrTraitMFC_DLL@DV?$ChTraitsCRT@D@ATL@@@@@ATL@@@Z$4:
  00024	8d 4d e0	 lea	 ecx, DWORD PTR $T4[ebp]
  00027	ff 25 00 00 00
	00		 jmp	 DWORD PTR __imp_??1?$CStringT@DV?$StrTraitMFC_DLL@DV?$ChTraitsCRT@D@ATL@@@@@ATL@@QAE@XZ
__unwindfunclet$?MakeList@CGSharedCli@CExOCXDLL@@QAEXV?$CStringT@DV?$StrTraitMFC_DLL@DV?$ChTraitsCRT@D@ATL@@@@@ATL@@@Z$5:
  0002d	8d 4d dc	 lea	 ecx, DWORD PTR $T3[ebp]
  00030	ff 25 00 00 00
	00		 jmp	 DWORD PTR __imp_??1?$CStringT@DV?$StrTraitMFC_DLL@DV?$ChTraitsCRT@D@ATL@@@@@ATL@@QAE@XZ
__unwindfunclet$?MakeList@CGSharedCli@CExOCXDLL@@QAEXV?$CStringT@DV?$StrTraitMFC_DLL@DV?$ChTraitsCRT@D@ATL@@@@@ATL@@@Z$6:
  00036	8d 4d c4	 lea	 ecx, DWORD PTR _SDF$2[ebp]
  00039	e9 00 00 00 00	 jmp	 ??1ST_GSHAREDFORMAT@@QAE@XZ
__unwindfunclet$?MakeList@CGSharedCli@CExOCXDLL@@QAEXV?$CStringT@DV?$StrTraitMFC_DLL@DV?$ChTraitsCRT@D@ATL@@@@@ATL@@@Z$9:
  0003e	8b 4d d8	 mov	 ecx, DWORD PTR _this$[ebp]
  00041	ff 25 00 00 00
	00		 jmp	 DWORD PTR __imp_??1?$CStringT@DV?$StrTraitMFC_DLL@DV?$ChTraitsCRT@D@ATL@@@@@ATL@@QAE@XZ
  00047	cc		 int	 3
  00048	cc		 int	 3
  00049	cc		 int	 3
  0004a	cc		 int	 3
  0004b	cc		 int	 3
__ehhandler$?MakeList@CGSharedCli@CExOCXDLL@@QAEXV?$CStringT@DV?$StrTraitMFC_DLL@DV?$ChTraitsCRT@D@ATL@@@@@ATL@@@Z:
  0004c	90		 npad	 1
  0004d	90		 npad	 1
  0004e	8b 54 24 08	 mov	 edx, DWORD PTR [esp+8]
  00052	8d 42 0c	 lea	 eax, DWORD PTR [edx+12]
  00055	8b 4a c0	 mov	 ecx, DWORD PTR [edx-64]
  00058	33 c8		 xor	 ecx, eax
  0005a	e8 00 00 00 00	 call	 @__security_check_cookie@4
  0005f	b8 00 00 00 00	 mov	 eax, OFFSET __ehfuncinfo$?MakeList@CGSharedCli@CExOCXDLL@@QAEXV?$CStringT@DV?$StrTraitMFC_DLL@DV?$ChTraitsCRT@D@ATL@@@@@ATL@@@Z
  00064	e9 00 00 00 00	 jmp	 ___CxxFrameHandler3
text$x	ENDS
?MakeList@CGSharedCli@CExOCXDLL@@QAEXV?$CStringT@DV?$StrTraitMFC_DLL@DV?$ChTraitsCRT@D@ATL@@@@@ATL@@@Z ENDP ; CExOCXDLL::CGSharedCli::MakeList
; Function compile flags: /Ogtp
; File D:\git\src\IBK\IBK_DRFN\ProjSrc\SrcDrfn\Chart\ExControl\CtrlGlobalSharedData.cpp
;	COMDAT ?UnAdvise@CGSharedCli@CExOCXDLL@@QAEHPBDPAVCGlobalSharedClient@@@Z
_TEXT	SEGMENT
__szName$ = 8						; size = 4
__pClient$ = 12						; size = 4
?UnAdvise@CGSharedCli@CExOCXDLL@@QAEHPBDPAVCGlobalSharedClient@@@Z PROC ; CExOCXDLL::CGSharedCli::UnAdvise, COMDAT
; _this$ = ecx

; 76   : {

  00000	55		 push	 ebp
  00001	8b ec		 mov	 ebp, esp
  00003	8b d1		 mov	 edx, ecx

; 77   : 	AZMETHOD_PROLOGUE(CExOCXDLL, GSharedCli)
; 78   : 
; 79   : 	if(m_pGSharedSvr)

  00005	8b 4a 04	 mov	 ecx, DWORD PTR [edx+4]
  00008	85 c9		 test	 ecx, ecx
  0000a	74 09		 je	 SHORT $LN2@UnAdvise

; 80   : 		return m_pGSharedSvr->UnAdvise(_szName, this);

  0000c	8b 01		 mov	 eax, DWORD PTR [ecx]
  0000e	89 55 0c	 mov	 DWORD PTR __pClient$[ebp], edx

; 82   : }

  00011	5d		 pop	 ebp

; 80   : 		return m_pGSharedSvr->UnAdvise(_szName, this);

  00012	ff 60 0c	 jmp	 DWORD PTR [eax+12]
$LN2@UnAdvise:

; 81   : 	return FALSE;

  00015	33 c0		 xor	 eax, eax

; 82   : }

  00017	5d		 pop	 ebp
  00018	c2 08 00	 ret	 8
?UnAdvise@CGSharedCli@CExOCXDLL@@QAEHPBDPAVCGlobalSharedClient@@@Z ENDP ; CExOCXDLL::CGSharedCli::UnAdvise
_TEXT	ENDS
; Function compile flags: /Ogtp
; File D:\git\src\IBK\IBK_DRFN\ProjSrc\SrcDrfn\Chart\ExControl\CtrlGlobalSharedData.cpp
;	COMDAT ?Advise@CGSharedCli@CExOCXDLL@@QAEHPBDPAVCGlobalSharedClient@@@Z
_TEXT	SEGMENT
__szName$ = 8						; size = 4
__pClient$ = 12						; size = 4
?Advise@CGSharedCli@CExOCXDLL@@QAEHPBDPAVCGlobalSharedClient@@@Z PROC ; CExOCXDLL::CGSharedCli::Advise, COMDAT
; _this$ = ecx

; 67   : {

  00000	55		 push	 ebp
  00001	8b ec		 mov	 ebp, esp
  00003	8b d1		 mov	 edx, ecx

; 68   : 	AZMETHOD_PROLOGUE(CExOCXDLL, GSharedCli)
; 69   : 
; 70   : 	if(m_pGSharedSvr)

  00005	8b 4a 04	 mov	 ecx, DWORD PTR [edx+4]
  00008	85 c9		 test	 ecx, ecx
  0000a	74 09		 je	 SHORT $LN2@Advise

; 71   : 		return m_pGSharedSvr->Advise(_szName, this);

  0000c	8b 01		 mov	 eax, DWORD PTR [ecx]
  0000e	89 55 0c	 mov	 DWORD PTR __pClient$[ebp], edx

; 73   : }

  00011	5d		 pop	 ebp

; 71   : 		return m_pGSharedSvr->Advise(_szName, this);

  00012	ff 60 08	 jmp	 DWORD PTR [eax+8]
$LN2@Advise:

; 72   : 	return FALSE;

  00015	33 c0		 xor	 eax, eax

; 73   : }

  00017	5d		 pop	 ebp
  00018	c2 08 00	 ret	 8
?Advise@CGSharedCli@CExOCXDLL@@QAEHPBDPAVCGlobalSharedClient@@@Z ENDP ; CExOCXDLL::CGSharedCli::Advise
_TEXT	ENDS
; Function compile flags: /Ogtp
; File D:\git\src\IBK\IBK_DRFN\ProjSrc\SrcDrfn\Chart\ExControl\CtrlGlobalSharedData.cpp
;	COMDAT ?SetData@CGSharedCli@CExOCXDLL@@QAEHPBD0@Z
_TEXT	SEGMENT
__szName$ = 8						; size = 4
__szValue$ = 12						; size = 4
?SetData@CGSharedCli@CExOCXDLL@@QAEHPBD0@Z PROC		; CExOCXDLL::CGSharedCli::SetData, COMDAT
; _this$ = ecx

; 58   : {

  00000	55		 push	 ebp
  00001	8b ec		 mov	 ebp, esp
  00003	8b d1		 mov	 edx, ecx

; 59   : 	AZMETHOD_PROLOGUE(CExOCXDLL, GSharedCli)
; 60   : 
; 61   : 	if(m_pGSharedSvr)

  00005	8b 4a 04	 mov	 ecx, DWORD PTR [edx+4]
  00008	85 c9		 test	 ecx, ecx
  0000a	74 10		 je	 SHORT $LN2@SetData

; 62   : 		return m_pGSharedSvr->SetData(_szName, _szValue, this);

  0000c	8b 01		 mov	 eax, DWORD PTR [ecx]
  0000e	52		 push	 edx
  0000f	ff 75 0c	 push	 DWORD PTR __szValue$[ebp]
  00012	ff 75 08	 push	 DWORD PTR __szName$[ebp]
  00015	ff 50 04	 call	 DWORD PTR [eax+4]

; 64   : }

  00018	5d		 pop	 ebp
  00019	c2 08 00	 ret	 8
$LN2@SetData:

; 63   : 	return FALSE;

  0001c	33 c0		 xor	 eax, eax

; 64   : }

  0001e	5d		 pop	 ebp
  0001f	c2 08 00	 ret	 8
?SetData@CGSharedCli@CExOCXDLL@@QAEHPBD0@Z ENDP		; CExOCXDLL::CGSharedCli::SetData
_TEXT	ENDS
; Function compile flags: /Ogtp
; File D:\git\src\IBK\IBK_DRFN\ProjSrc\SrcDrfn\Chart\ExControl\CtrlGlobalSharedData.cpp
;	COMDAT ?GetData2@CGSharedCli@CExOCXDLL@@QAEPBDPBD@Z
_TEXT	SEGMENT
__szName$ = 8						; size = 4
?GetData2@CGSharedCli@CExOCXDLL@@QAEPBDPBD@Z PROC	; CExOCXDLL::CGSharedCli::GetData2, COMDAT
; _this$ = ecx

; 236  : {

  00000	55		 push	 ebp
  00001	8b ec		 mov	 ebp, esp

; 237  : 	AZMETHOD_PROLOGUE(CExOCXDLL, GSharedCli)
; 238  : 
; 239  : 	if(m_pGSharedSvr)

  00003	8b 49 04	 mov	 ecx, DWORD PTR [ecx+4]
  00006	85 c9		 test	 ecx, ecx
  00008	74 06		 je	 SHORT $LN2@GetData2

; 240  : 		return m_pGSharedSvr->GetData2(_szName);

  0000a	8b 01		 mov	 eax, DWORD PTR [ecx]

; 242  : }

  0000c	5d		 pop	 ebp

; 240  : 		return m_pGSharedSvr->GetData2(_szName);

  0000d	ff 60 14	 jmp	 DWORD PTR [eax+20]
$LN2@GetData2:

; 241  : 	return "";

  00010	b8 00 00 00 00	 mov	 eax, OFFSET ??_C@_00CNPNBAHC@@

; 242  : }

  00015	5d		 pop	 ebp
  00016	c2 04 00	 ret	 4
?GetData2@CGSharedCli@CExOCXDLL@@QAEPBDPBD@Z ENDP	; CExOCXDLL::CGSharedCli::GetData2
_TEXT	ENDS
; Function compile flags: /Ogtp
; File D:\git\src\IBK\IBK_DRFN\ProjSrc\SrcDrfn\Chart\ExControl\CtrlGlobalSharedData.cpp
;	COMDAT ?GetData@CGSharedCli@CExOCXDLL@@QAEHPBDAAV?$CStringT@DV?$StrTraitMFC_DLL@DV?$ChTraitsCRT@D@ATL@@@@@ATL@@@Z
_TEXT	SEGMENT
__szName$ = 8						; size = 4
_szValue$ = 12						; size = 4
?GetData@CGSharedCli@CExOCXDLL@@QAEHPBDAAV?$CStringT@DV?$StrTraitMFC_DLL@DV?$ChTraitsCRT@D@ATL@@@@@ATL@@@Z PROC ; CExOCXDLL::CGSharedCli::GetData, COMDAT
; _this$ = ecx

; 48   : {

  00000	55		 push	 ebp
  00001	8b ec		 mov	 ebp, esp

; 49   : 	AZMETHOD_PROLOGUE(CExOCXDLL, GSharedCli)
; 50   : 
; 51   : 	if(m_pGSharedSvr)

  00003	8b 49 04	 mov	 ecx, DWORD PTR [ecx+4]
  00006	85 c9		 test	 ecx, ecx
  00008	74 05		 je	 SHORT $LN2@GetData

; 52   : 		return m_pGSharedSvr->GetData(_szName, szValue);

  0000a	8b 01		 mov	 eax, DWORD PTR [ecx]

; 55   : }

  0000c	5d		 pop	 ebp

; 52   : 		return m_pGSharedSvr->GetData(_szName, szValue);

  0000d	ff 20		 jmp	 DWORD PTR [eax]
$LN2@GetData:

; 53   : 
; 54   : 	return FALSE;

  0000f	33 c0		 xor	 eax, eax

; 55   : }

  00011	5d		 pop	 ebp
  00012	c2 08 00	 ret	 8
?GetData@CGSharedCli@CExOCXDLL@@QAEHPBDAAV?$CStringT@DV?$StrTraitMFC_DLL@DV?$ChTraitsCRT@D@ATL@@@@@ATL@@@Z ENDP ; CExOCXDLL::CGSharedCli::GetData
_TEXT	ENDS
; Function compile flags: /Ogtp
; File C:\Program Files (x86)\Microsoft Visual Studio\2019\Community\VC\Tools\MSVC\14.29.30133\atlmfc\include\afxtempl.h
;	COMDAT ?NewNode@?$CList@UST_GSHAREDFORMAT@@U1@@@IAEPAUCNode@1@PAU21@0@Z
_TEXT	SEGMENT
_pPrev$ = 8						; size = 4
_pNext$ = 12						; size = 4
?NewNode@?$CList@UST_GSHAREDFORMAT@@U1@@@IAEPAUCNode@1@PAU21@0@Z PROC ; CList<ST_GSHAREDFORMAT,ST_GSHAREDFORMAT>::NewNode, COMDAT
; _this$ = ecx

; 901  : {

  00000	55		 push	 ebp
  00001	8b ec		 mov	 ebp, esp
  00003	56		 push	 esi
  00004	8b f1		 mov	 esi, ecx
  00006	57		 push	 edi

; 902  : 	if (m_pNodeFree == NULL)

  00007	83 7e 10 00	 cmp	 DWORD PTR [esi+16], 0
  0000b	75 38		 jne	 SHORT $LN7@NewNode

; 903  : 	{
; 904  : 		// add another block
; 905  : 		CPlex* pNewBlock = CPlex::Create(m_pBlocks, m_nBlockSize,

  0000d	6a 1c		 push	 28			; 0000001cH
  0000f	ff 76 18	 push	 DWORD PTR [esi+24]
  00012	8d 46 14	 lea	 eax, DWORD PTR [esi+20]
  00015	50		 push	 eax
  00016	e8 00 00 00 00	 call	 ?Create@CPlex@@SGPAU1@AAPAU1@II@Z ; CPlex::Create

; 906  : 				 sizeof(CNode));
; 907  : 
; 908  : 		// chain them into free list
; 909  : 		CNode* pNode = (CNode*) pNewBlock->data();
; 910  : 		// free in reverse order to make it easier to debug
; 911  : 		pNode += m_nBlockSize - 1;

  0001b	8b 56 18	 mov	 edx, DWORD PTR [esi+24]
  0001e	83 c0 08	 add	 eax, 8
  00021	8d 0c d5 00 00
	00 00		 lea	 ecx, DWORD PTR [edx*8]
  00028	2b ca		 sub	 ecx, edx
  0002a	8d 04 88	 lea	 eax, DWORD PTR [eax+ecx*4]
  0002d	83 c0 e4	 add	 eax, -28		; ffffffe4H

; 912  : 		for (INT_PTR i = m_nBlockSize-1; i >= 0; i--, pNode--)

  00030	83 c2 ff	 add	 edx, -1
  00033	78 10		 js	 SHORT $LN7@NewNode
$LL4@NewNode:

; 913  : 		{
; 914  : 			pNode->pNext = m_pNodeFree;

  00035	8b 4e 10	 mov	 ecx, DWORD PTR [esi+16]
  00038	89 08		 mov	 DWORD PTR [eax], ecx

; 915  : 			m_pNodeFree = pNode;

  0003a	89 46 10	 mov	 DWORD PTR [esi+16], eax
  0003d	83 e8 1c	 sub	 eax, 28			; 0000001cH
  00040	83 ea 01	 sub	 edx, 1
  00043	79 f0		 jns	 SHORT $LL4@NewNode
$LN7@NewNode:

; 916  : 		}
; 917  : 	}
; 918  : 	ENSURE(m_pNodeFree != NULL);  // we must have something

  00045	8b 7e 10	 mov	 edi, DWORD PTR [esi+16]
  00048	85 ff		 test	 edi, edi
  0004a	74 2d		 je	 SHORT $LN20@NewNode

; 919  : 
; 920  : 	CList::CNode* pNode = m_pNodeFree;
; 921  : 	m_pNodeFree = m_pNodeFree->pNext;

  0004c	8b 07		 mov	 eax, DWORD PTR [edi]

; 922  : 	pNode->pPrev = pPrev;
; 923  : 	pNode->pNext = pNext;

  0004e	8b 4d 0c	 mov	 ecx, DWORD PTR _pNext$[ebp]
  00051	89 46 10	 mov	 DWORD PTR [esi+16], eax
  00054	8b 45 08	 mov	 eax, DWORD PTR _pPrev$[ebp]
  00057	89 0f		 mov	 DWORD PTR [edi], ecx
  00059	8d 4f 08	 lea	 ecx, DWORD PTR [edi+8]
  0005c	89 47 04	 mov	 DWORD PTR [edi+4], eax

; 924  : 	m_nCount++;

  0005f	ff 46 0c	 inc	 DWORD PTR [esi+12]
  00062	ff 15 00 00 00
	00		 call	 DWORD PTR __imp_??0?$CStringT@DV?$StrTraitMFC_DLL@DV?$ChTraitsCRT@D@ATL@@@@@ATL@@QAE@XZ
  00068	8d 4f 0c	 lea	 ecx, DWORD PTR [edi+12]
  0006b	ff 15 00 00 00
	00		 call	 DWORD PTR __imp_??0?$CStringT@DV?$StrTraitMFC_DLL@DV?$ChTraitsCRT@D@ATL@@@@@ATL@@QAE@XZ

; 925  : 	ASSERT(m_nCount > 0);  // make sure we don't overflow
; 926  : 
; 927  : #pragma push_macro("new")
; 928  : #undef new
; 929  : 	::new( (void*)( &pNode->data ) ) TYPE;
; 930  : #pragma pop_macro("new")
; 931  : 	return pNode;

  00071	8b c7		 mov	 eax, edi
  00073	5f		 pop	 edi
  00074	5e		 pop	 esi

; 932  : }

  00075	5d		 pop	 ebp
  00076	c2 08 00	 ret	 8
$LN20@NewNode:

; 916  : 		}
; 917  : 	}
; 918  : 	ENSURE(m_pNodeFree != NULL);  // we must have something

  00079	e8 00 00 00 00	 call	 ?AfxThrowInvalidArgException@@YGXXZ ; AfxThrowInvalidArgException
$LN18@NewNode:
  0007e	cc		 int	 3
?NewNode@?$CList@UST_GSHAREDFORMAT@@U1@@@IAEPAUCNode@1@PAU21@0@Z ENDP ; CList<ST_GSHAREDFORMAT,ST_GSHAREDFORMAT>::NewNode
_TEXT	ENDS
; Function compile flags: /Ogtp
; File C:\Program Files (x86)\Microsoft Visual Studio\2019\Community\VC\Tools\MSVC\14.29.30133\atlmfc\include\afxtempl.h
;	COMDAT ?RemoveAll@?$CList@UST_GSHAREDFORMAT@@U1@@@QAEXXZ
_TEXT	SEGMENT
?RemoveAll@?$CList@UST_GSHAREDFORMAT@@U1@@@QAEXXZ PROC	; CList<ST_GSHAREDFORMAT,ST_GSHAREDFORMAT>::RemoveAll, COMDAT
; _this$ = ecx

; 862  : {

  00000	53		 push	 ebx
  00001	8b d9		 mov	 ebx, ecx
  00003	56		 push	 esi

; 863  : 	ASSERT_VALID(this);
; 864  : 
; 865  : 	// destroy elements
; 866  : 	CNode* pNode;
; 867  : 	for (pNode = m_pNodeHead; pNode != NULL; pNode = pNode->pNext)

  00004	8b 73 04	 mov	 esi, DWORD PTR [ebx+4]
  00007	85 f6		 test	 esi, esi
  00009	74 1e		 je	 SHORT $LN3@RemoveAll
  0000b	57		 push	 edi
  0000c	0f 1f 40 00	 npad	 4
$LL4@RemoveAll:
  00010	8d 4e 0c	 lea	 ecx, DWORD PTR [esi+12]
  00013	ff 15 00 00 00
	00		 call	 DWORD PTR __imp_??1?$CStringT@DV?$StrTraitMFC_DLL@DV?$ChTraitsCRT@D@ATL@@@@@ATL@@QAE@XZ
  00019	8d 4e 08	 lea	 ecx, DWORD PTR [esi+8]
  0001c	ff 15 00 00 00
	00		 call	 DWORD PTR __imp_??1?$CStringT@DV?$StrTraitMFC_DLL@DV?$ChTraitsCRT@D@ATL@@@@@ATL@@QAE@XZ
  00022	8b 36		 mov	 esi, DWORD PTR [esi]
  00024	85 f6		 test	 esi, esi
  00026	75 e8		 jne	 SHORT $LL4@RemoveAll
  00028	5f		 pop	 edi
$LN3@RemoveAll:

; 868  : 		pNode->data.~TYPE();
; 869  : 
; 870  : 	m_nCount = 0;
; 871  : 	m_pNodeHead = m_pNodeTail = m_pNodeFree = NULL;
; 872  : 	m_pBlocks->FreeDataChain();

  00029	8b 4b 14	 mov	 ecx, DWORD PTR [ebx+20]
  0002c	c7 43 0c 00 00
	00 00		 mov	 DWORD PTR [ebx+12], 0
  00033	c7 43 10 00 00
	00 00		 mov	 DWORD PTR [ebx+16], 0
  0003a	c7 43 08 00 00
	00 00		 mov	 DWORD PTR [ebx+8], 0
  00041	c7 43 04 00 00
	00 00		 mov	 DWORD PTR [ebx+4], 0
  00048	e8 00 00 00 00	 call	 ?FreeDataChain@CPlex@@QAEXXZ ; CPlex::FreeDataChain

; 873  : 	m_pBlocks = NULL;

  0004d	5e		 pop	 esi
  0004e	c7 43 14 00 00
	00 00		 mov	 DWORD PTR [ebx+20], 0
  00055	5b		 pop	 ebx

; 874  : }

  00056	c3		 ret	 0
?RemoveAll@?$CList@UST_GSHAREDFORMAT@@U1@@@QAEXXZ ENDP	; CList<ST_GSHAREDFORMAT,ST_GSHAREDFORMAT>::RemoveAll
_TEXT	ENDS
; Function compile flags: /Ogtp
; File C:\Program Files (x86)\Microsoft Visual Studio\2019\Community\VC\Tools\MSVC\14.29.30133\atlmfc\include\afxtempl.h
;	COMDAT ?AddTail@?$CList@UST_GSHAREDFORMAT@@U1@@@QAEPAU__POSITION@@UST_GSHAREDFORMAT@@@Z
_TEXT	SEGMENT
_pNode$1$ = -16						; size = 4
__$EHRec$ = -12						; size = 12
_newElement$ = 8					; size = 20
?AddTail@?$CList@UST_GSHAREDFORMAT@@U1@@@QAEPAU__POSITION@@UST_GSHAREDFORMAT@@@Z PROC ; CList<ST_GSHAREDFORMAT,ST_GSHAREDFORMAT>::AddTail, COMDAT
; _this$ = ecx

; 965  : {

  00000	55		 push	 ebp
  00001	8b ec		 mov	 ebp, esp
  00003	6a ff		 push	 -1
  00005	68 00 00 00 00	 push	 __ehhandler$?AddTail@?$CList@UST_GSHAREDFORMAT@@U1@@@QAEPAU__POSITION@@UST_GSHAREDFORMAT@@@Z
  0000a	64 a1 00 00 00
	00		 mov	 eax, DWORD PTR fs:0
  00010	50		 push	 eax
  00011	51		 push	 ecx
  00012	53		 push	 ebx
  00013	56		 push	 esi
  00014	57		 push	 edi
  00015	a1 00 00 00 00	 mov	 eax, DWORD PTR ___security_cookie
  0001a	33 c5		 xor	 eax, ebp
  0001c	50		 push	 eax
  0001d	8d 45 f4	 lea	 eax, DWORD PTR __$EHRec$[ebp]
  00020	64 a3 00 00 00
	00		 mov	 DWORD PTR fs:0, eax
  00026	8b f1		 mov	 esi, ecx

; 902  : 	if (m_pNodeFree == NULL)

  00028	83 7e 10 00	 cmp	 DWORD PTR [esi+16], 0

; 966  : 	ASSERT_VALID(this);
; 967  : 
; 968  : 	CNode* pNewNode = NewNode(m_pNodeTail, NULL);

  0002c	8b 7e 08	 mov	 edi, DWORD PTR [esi+8]
  0002f	c7 45 fc 00 00
	00 00		 mov	 DWORD PTR __$EHRec$[ebp+8], 0

; 902  : 	if (m_pNodeFree == NULL)

  00036	75 38		 jne	 SHORT $LN12@AddTail

; 903  : 	{
; 904  : 		// add another block
; 905  : 		CPlex* pNewBlock = CPlex::Create(m_pBlocks, m_nBlockSize,

  00038	6a 1c		 push	 28			; 0000001cH
  0003a	ff 76 18	 push	 DWORD PTR [esi+24]
  0003d	8d 46 14	 lea	 eax, DWORD PTR [esi+20]
  00040	50		 push	 eax
  00041	e8 00 00 00 00	 call	 ?Create@CPlex@@SGPAU1@AAPAU1@II@Z ; CPlex::Create

; 906  : 				 sizeof(CNode));
; 907  : 
; 908  : 		// chain them into free list
; 909  : 		CNode* pNode = (CNode*) pNewBlock->data();
; 910  : 		// free in reverse order to make it easier to debug
; 911  : 		pNode += m_nBlockSize - 1;

  00046	8b 56 18	 mov	 edx, DWORD PTR [esi+24]
  00049	83 c0 08	 add	 eax, 8
  0004c	8d 0c d5 00 00
	00 00		 lea	 ecx, DWORD PTR [edx*8]
  00053	2b ca		 sub	 ecx, edx
  00055	83 c1 f9	 add	 ecx, -7			; fffffff9H

; 912  : 		for (INT_PTR i = m_nBlockSize-1; i >= 0; i--, pNode--)

  00058	83 c2 ff	 add	 edx, -1
  0005b	8d 0c 88	 lea	 ecx, DWORD PTR [eax+ecx*4]
  0005e	78 10		 js	 SHORT $LN12@AddTail
$LL9@AddTail:

; 913  : 		{
; 914  : 			pNode->pNext = m_pNodeFree;

  00060	8b 46 10	 mov	 eax, DWORD PTR [esi+16]
  00063	89 01		 mov	 DWORD PTR [ecx], eax

; 915  : 			m_pNodeFree = pNode;

  00065	89 4e 10	 mov	 DWORD PTR [esi+16], ecx
  00068	83 e9 1c	 sub	 ecx, 28			; 0000001cH
  0006b	83 ea 01	 sub	 edx, 1
  0006e	79 f0		 jns	 SHORT $LL9@AddTail
$LN12@AddTail:

; 916  : 		}
; 917  : 	}
; 918  : 	ENSURE(m_pNodeFree != NULL);  // we must have something

  00070	8b 4e 10	 mov	 ecx, DWORD PTR [esi+16]
  00073	89 4d f0	 mov	 DWORD PTR _pNode$1$[ebp], ecx
  00076	85 c9		 test	 ecx, ecx
  00078	0f 84 8c 00 00
	00		 je	 $LN32@AddTail

; 919  : 
; 920  : 	CList::CNode* pNode = m_pNodeFree;
; 921  : 	m_pNodeFree = m_pNodeFree->pNext;

  0007e	8b 01		 mov	 eax, DWORD PTR [ecx]

; 925  : 	ASSERT(m_nCount > 0);  // make sure we don't overflow
; 926  : 
; 927  : #pragma push_macro("new")
; 928  : #undef new
; 929  : 	::new( (void*)( &pNode->data ) ) TYPE;

  00080	8d 59 08	 lea	 ebx, DWORD PTR [ecx+8]
  00083	89 46 10	 mov	 DWORD PTR [esi+16], eax
  00086	89 79 04	 mov	 DWORD PTR [ecx+4], edi
  00089	c7 01 00 00 00
	00		 mov	 DWORD PTR [ecx], 0
  0008f	8b cb		 mov	 ecx, ebx

; 922  : 	pNode->pPrev = pPrev;
; 923  : 	pNode->pNext = pNext;
; 924  : 	m_nCount++;

  00091	ff 46 0c	 inc	 DWORD PTR [esi+12]
  00094	ff 15 00 00 00
	00		 call	 DWORD PTR __imp_??0?$CStringT@DV?$StrTraitMFC_DLL@DV?$ChTraitsCRT@D@ATL@@@@@ATL@@QAE@XZ
  0009a	8d 4b 04	 lea	 ecx, DWORD PTR [ebx+4]
  0009d	ff 15 00 00 00
	00		 call	 DWORD PTR __imp_??0?$CStringT@DV?$StrTraitMFC_DLL@DV?$ChTraitsCRT@D@ATL@@@@@ATL@@QAE@XZ
  000a3	8d 45 08	 lea	 eax, DWORD PTR _newElement$[ebp]
  000a6	8b cb		 mov	 ecx, ebx
  000a8	50		 push	 eax
  000a9	ff 15 00 00 00
	00		 call	 DWORD PTR __imp_??4?$CStringT@DV?$StrTraitMFC_DLL@DV?$ChTraitsCRT@D@ATL@@@@@ATL@@QAEAAV01@ABV01@@Z
  000af	8d 45 0c	 lea	 eax, DWORD PTR _newElement$[ebp+4]
  000b2	50		 push	 eax
  000b3	8d 4b 04	 lea	 ecx, DWORD PTR [ebx+4]
  000b6	ff 15 00 00 00
	00		 call	 DWORD PTR __imp_??4?$CStringT@DV?$StrTraitMFC_DLL@DV?$ChTraitsCRT@D@ATL@@@@@ATL@@QAEAAV01@ABV01@@Z
  000bc	8b 45 10	 mov	 eax, DWORD PTR _newElement$[ebp+8]

; 969  : 	pNewNode->data = newElement;
; 970  : 	if (m_pNodeTail != NULL)

  000bf	8b 7d f0	 mov	 edi, DWORD PTR _pNode$1$[ebp]
  000c2	89 43 08	 mov	 DWORD PTR [ebx+8], eax
  000c5	8b 45 14	 mov	 eax, DWORD PTR _newElement$[ebp+12]
  000c8	89 43 0c	 mov	 DWORD PTR [ebx+12], eax
  000cb	8b 45 18	 mov	 eax, DWORD PTR _newElement$[ebp+16]
  000ce	89 43 10	 mov	 DWORD PTR [ebx+16], eax
  000d1	8b 46 08	 mov	 eax, DWORD PTR [esi+8]
  000d4	85 c0		 test	 eax, eax
  000d6	74 04		 je	 SHORT $LN2@AddTail

; 971  : 		m_pNodeTail->pNext = pNewNode;

  000d8	89 38		 mov	 DWORD PTR [eax], edi
  000da	eb 03		 jmp	 SHORT $LN3@AddTail
$LN2@AddTail:

; 972  : 	else
; 973  : 		m_pNodeHead = pNewNode;

  000dc	89 7e 04	 mov	 DWORD PTR [esi+4], edi
$LN3@AddTail:
  000df	8d 4d 0c	 lea	 ecx, DWORD PTR _newElement$[ebp+4]

; 974  : 	m_pNodeTail = pNewNode;

  000e2	89 7e 08	 mov	 DWORD PTR [esi+8], edi
  000e5	ff 15 00 00 00
	00		 call	 DWORD PTR __imp_??1?$CStringT@DV?$StrTraitMFC_DLL@DV?$ChTraitsCRT@D@ATL@@@@@ATL@@QAE@XZ
  000eb	8d 4d 08	 lea	 ecx, DWORD PTR _newElement$[ebp]
  000ee	ff 15 00 00 00
	00		 call	 DWORD PTR __imp_??1?$CStringT@DV?$StrTraitMFC_DLL@DV?$ChTraitsCRT@D@ATL@@@@@ATL@@QAE@XZ

; 975  : 	return (POSITION) pNewNode;

  000f4	8b c7		 mov	 eax, edi

; 976  : }

  000f6	8b 4d f4	 mov	 ecx, DWORD PTR __$EHRec$[ebp]
  000f9	64 89 0d 00 00
	00 00		 mov	 DWORD PTR fs:0, ecx
  00100	59		 pop	 ecx
  00101	5f		 pop	 edi
  00102	5e		 pop	 esi
  00103	5b		 pop	 ebx
  00104	8b e5		 mov	 esp, ebp
  00106	5d		 pop	 ebp
  00107	c2 14 00	 ret	 20			; 00000014H
$LN32@AddTail:

; 918  : 	ENSURE(m_pNodeFree != NULL);  // we must have something

  0010a	e8 00 00 00 00	 call	 ?AfxThrowInvalidArgException@@YGXXZ ; AfxThrowInvalidArgException
$LN30@AddTail:
  0010f	cc		 int	 3
_TEXT	ENDS
;	COMDAT text$x
text$x	SEGMENT
__unwindfunclet$?AddTail@?$CList@UST_GSHAREDFORMAT@@U1@@@QAEPAU__POSITION@@UST_GSHAREDFORMAT@@@Z$0:
  00000	8d 4d 08	 lea	 ecx, DWORD PTR _newElement$[ebp]
  00003	e9 00 00 00 00	 jmp	 ??1ST_GSHAREDFORMAT@@QAE@XZ
  00008	cc		 int	 3
  00009	cc		 int	 3
  0000a	cc		 int	 3
  0000b	cc		 int	 3
  0000c	cc		 int	 3
__ehhandler$?AddTail@?$CList@UST_GSHAREDFORMAT@@U1@@@QAEPAU__POSITION@@UST_GSHAREDFORMAT@@@Z:
  0000d	90		 npad	 1
  0000e	90		 npad	 1
  0000f	8b 54 24 08	 mov	 edx, DWORD PTR [esp+8]
  00013	8d 42 0c	 lea	 eax, DWORD PTR [edx+12]
  00016	8b 4a ec	 mov	 ecx, DWORD PTR [edx-20]
  00019	33 c8		 xor	 ecx, eax
  0001b	e8 00 00 00 00	 call	 @__security_check_cookie@4
  00020	b8 00 00 00 00	 mov	 eax, OFFSET __ehfuncinfo$?AddTail@?$CList@UST_GSHAREDFORMAT@@U1@@@QAEPAU__POSITION@@UST_GSHAREDFORMAT@@@Z
  00025	e9 00 00 00 00	 jmp	 ___CxxFrameHandler3
text$x	ENDS
?AddTail@?$CList@UST_GSHAREDFORMAT@@U1@@@QAEPAU__POSITION@@UST_GSHAREDFORMAT@@@Z ENDP ; CList<ST_GSHAREDFORMAT,ST_GSHAREDFORMAT>::AddTail
; Function compile flags: /Ogtp
;	COMDAT ??1ST_GSHAREDFORMAT@@QAE@XZ
_TEXT	SEGMENT
??1ST_GSHAREDFORMAT@@QAE@XZ PROC			; ST_GSHAREDFORMAT::~ST_GSHAREDFORMAT, COMDAT
; _this$ = ecx
  00000	56		 push	 esi
  00001	8b f1		 mov	 esi, ecx
  00003	8d 4e 04	 lea	 ecx, DWORD PTR [esi+4]
  00006	ff 15 00 00 00
	00		 call	 DWORD PTR __imp_??1?$CStringT@DV?$StrTraitMFC_DLL@DV?$ChTraitsCRT@D@ATL@@@@@ATL@@QAE@XZ
  0000c	8b ce		 mov	 ecx, esi
  0000e	5e		 pop	 esi
  0000f	ff 25 00 00 00
	00		 jmp	 DWORD PTR __imp_??1?$CStringT@DV?$StrTraitMFC_DLL@DV?$ChTraitsCRT@D@ATL@@@@@ATL@@QAE@XZ
??1ST_GSHAREDFORMAT@@QAE@XZ ENDP			; ST_GSHAREDFORMAT::~ST_GSHAREDFORMAT
_TEXT	ENDS
; Function compile flags: /Ogtp
;	COMDAT ??0ST_GSHAREDFORMAT@@QAE@XZ
_TEXT	SEGMENT
??0ST_GSHAREDFORMAT@@QAE@XZ PROC			; ST_GSHAREDFORMAT::ST_GSHAREDFORMAT, COMDAT
; _this$ = ecx
  00000	56		 push	 esi
  00001	8b f1		 mov	 esi, ecx
  00003	ff 15 00 00 00
	00		 call	 DWORD PTR __imp_??0?$CStringT@DV?$StrTraitMFC_DLL@DV?$ChTraitsCRT@D@ATL@@@@@ATL@@QAE@XZ
  00009	8d 4e 04	 lea	 ecx, DWORD PTR [esi+4]
  0000c	ff 15 00 00 00
	00		 call	 DWORD PTR __imp_??0?$CStringT@DV?$StrTraitMFC_DLL@DV?$ChTraitsCRT@D@ATL@@@@@ATL@@QAE@XZ
  00012	8b c6		 mov	 eax, esi
  00014	5e		 pop	 esi
  00015	c3		 ret	 0
??0ST_GSHAREDFORMAT@@QAE@XZ ENDP			; ST_GSHAREDFORMAT::ST_GSHAREDFORMAT
_TEXT	ENDS
; Function compile flags: /Ogtp
; File D:\git\src\IBK\IBK_DRFN\ProjSrc\SrcDrfn\Inc\IBaseDefine.h
;	COMDAT ??__ERMSG_SETPCTRDATA@@YAXXZ
text$di	SEGMENT
??__ERMSG_SETPCTRDATA@@YAXXZ PROC			; `dynamic initializer for 'RMSG_SETPCTRDATA'', COMDAT

; 172  : const UINT RMSG_SETPCTRDATA = ::RegisterWindowMessage("RMSG_SETPCTRDATA");

  00000	68 00 00 00 00	 push	 OFFSET ??_C@_0BB@JPACFCL@RMSG_SETPCTRDATA@
  00005	ff 15 00 00 00
	00		 call	 DWORD PTR __imp__RegisterWindowMessageA@4
  0000b	a3 00 00 00 00	 mov	 DWORD PTR ?RMSG_SETPCTRDATA@@3IB, eax
  00010	c3		 ret	 0
??__ERMSG_SETPCTRDATA@@YAXXZ ENDP			; `dynamic initializer for 'RMSG_SETPCTRDATA''
text$di	ENDS
; Function compile flags: /Ogtp
; File D:\git\src\IBK\IBK_DRFN\ProjSrc\SrcDrfn\Inc\IBaseDefine.h
;	COMDAT ??__ERMSG_GETPCTRDATA@@YAXXZ
text$di	SEGMENT
??__ERMSG_GETPCTRDATA@@YAXXZ PROC			; `dynamic initializer for 'RMSG_GETPCTRDATA'', COMDAT

; 171  : const UINT RMSG_GETPCTRDATA = ::RegisterWindowMessage("RMSG_GETPCTRDATA");

  00000	68 00 00 00 00	 push	 OFFSET ??_C@_0BB@GOOPDKI@RMSG_GETPCTRDATA@
  00005	ff 15 00 00 00
	00		 call	 DWORD PTR __imp__RegisterWindowMessageA@4
  0000b	a3 00 00 00 00	 mov	 DWORD PTR ?RMSG_GETPCTRDATA@@3IB, eax
  00010	c3		 ret	 0
??__ERMSG_GETPCTRDATA@@YAXXZ ENDP			; `dynamic initializer for 'RMSG_GETPCTRDATA''
text$di	ENDS
; Function compile flags: /Ogtp
; File D:\git\src\IBK\IBK_DRFN\ProjSrc\SrcDrfn\Inc\IBaseDefine.h
;	COMDAT ??__ERMSG_INTERFACE@@YAXXZ
text$di	SEGMENT
??__ERMSG_INTERFACE@@YAXXZ PROC				; `dynamic initializer for 'RMSG_INTERFACE'', COMDAT

; 170  : const UINT RMSG_INTERFACE = ::RegisterWindowMessage("RMSG_INTERFACE");

  00000	68 00 00 00 00	 push	 OFFSET ??_C@_0P@BKKCOCLK@RMSG_INTERFACE@
  00005	ff 15 00 00 00
	00		 call	 DWORD PTR __imp__RegisterWindowMessageA@4
  0000b	a3 00 00 00 00	 mov	 DWORD PTR ?RMSG_INTERFACE@@3IB, eax
  00010	c3		 ret	 0
??__ERMSG_INTERFACE@@YAXXZ ENDP				; `dynamic initializer for 'RMSG_INTERFACE''
text$di	ENDS
; Function compile flags: /Ogtp
; File D:\git\src\IBK\IBK_DRFN\ProjSrc\SrcDrfn\Chart\ExControl\CtrlGlobalSharedData.cpp
;	COMDAT ?__empty_global_delete@@YAXPAXI@Z
_TEXT	SEGMENT
___formal$ = 8						; size = 4
___formal$ = 12						; size = 4
?__empty_global_delete@@YAXPAXI@Z PROC			; __empty_global_delete, COMDAT

  00000	c2 00 00	 ret	 0
?__empty_global_delete@@YAXPAXI@Z ENDP			; __empty_global_delete
_TEXT	ENDS
; Function compile flags: /Ogtp
; File D:\git\src\IBK\IBK_DRFN\ProjSrc\SrcDrfn\Chart\ExControl\CtrlGlobalSharedData.cpp
;	COMDAT ?__empty_global_delete@@YAXPAX@Z
_TEXT	SEGMENT
___formal$ = 8						; size = 4
?__empty_global_delete@@YAXPAX@Z PROC			; __empty_global_delete, COMDAT

  00000	c2 00 00	 ret	 0
?__empty_global_delete@@YAXPAX@Z ENDP			; __empty_global_delete
_TEXT	ENDS
END
