; Listing generated by Microsoft (R) Optimizing Compiler Version 19.29.30145.0 

	TITLE	D:\git\src\IBK\IBK_DRFN\#DRfn-CS\_Obj\ExControl\ExAcctInput.obj
	.686P
	.XMM
	include listing.inc
	.model	flat

INCLUDELIB MSVCRT
INCLUDELIB OLDNAMES

PUBLIC	??_C@_0P@BKKCOCLK@RMSG_INTERFACE@		; `string'
PUBLIC	??_C@_0BB@GOOPDKI@RMSG_GETPCTRDATA@		; `string'
PUBLIC	??_C@_0BB@JPACFCL@RMSG_SETPCTRDATA@		; `string'
PUBLIC	??_C@_0BF@LEGBOMJF@RMSG_EVENT_ACCTINPUT@	; `string'
;	COMDAT ??_C@_0BF@LEGBOMJF@RMSG_EVENT_ACCTINPUT@
CONST	SEGMENT
??_C@_0BF@LEGBOMJF@RMSG_EVENT_ACCTINPUT@ DB 'RMSG_EVENT_ACCTINPUT', 00H ; `string'
CONST	ENDS
;	COMDAT ??_C@_0BB@JPACFCL@RMSG_SETPCTRDATA@
CONST	SEGMENT
??_C@_0BB@JPACFCL@RMSG_SETPCTRDATA@ DB 'RMSG_SETPCTRDATA', 00H ; `string'
CONST	ENDS
;	COMDAT ??_C@_0BB@GOOPDKI@RMSG_GETPCTRDATA@
CONST	SEGMENT
??_C@_0BB@GOOPDKI@RMSG_GETPCTRDATA@ DB 'RMSG_GETPCTRDATA', 00H ; `string'
CONST	ENDS
;	COMDAT ??_C@_0P@BKKCOCLK@RMSG_INTERFACE@
CONST	SEGMENT
??_C@_0P@BKKCOCLK@RMSG_INTERFACE@ DB 'RMSG_INTERFACE', 00H ; `string'
CONST	ENDS
PUBLIC	?__empty_global_delete@@YAXPAX@Z		; __empty_global_delete
PUBLIC	?__empty_global_delete@@YAXPAXI@Z		; __empty_global_delete
PUBLIC	___local_stdio_printf_options
PUBLIC	_sprintf
PUBLIC	?GetBasePath@CBaseDesk@@UAEPBDXZ		; CBaseDesk::GetBasePath
PUBLIC	?GetDeskHwnd@CBaseDesk@@UAEPAUHWND__@@XZ	; CBaseDesk::GetDeskHwnd
PUBLIC	?GetUnknown@CBaseDesk@@UAEPAUIDispatch@@XZ	; CBaseDesk::GetUnknown
PUBLIC	?GetCtrlUnknown@CBaseDesk@@UAEPAUIUnknown@@PBD@Z ; CBaseDesk::GetCtrlUnknown
PUBLIC	?GetCtrlHwnd@CBaseDesk@@UAEPAUHWND__@@PBD@Z	; CBaseDesk::GetCtrlHwnd
PUBLIC	?GetSharedInterface@CBaseDesk@@UAEPAXXZ		; CBaseDesk::GetSharedInterface
PUBLIC	?InvokeEvent@CBaseDesk@@UAEHPAUHWND__@@PBD1@Z	; CBaseDesk::InvokeEvent
PUBLIC	?InvokeEvent2@CBaseDesk@@UAEHPBD00@Z		; CBaseDesk::InvokeEvent2
PUBLIC	?SendKey@CBaseDesk@@UAEHPAUHWND__@@IHH@Z	; CBaseDesk::SendKey
PUBLIC	?GetLSharedData@CBaseDesk@@UAEPAXXZ		; CBaseDesk::GetLSharedData
PUBLIC	?CallCommand@CBaseDesk@@UAEXPBD@Z		; CBaseDesk::CallCommand
PUBLIC	?GetUserColor@CBaseDesk2@@UAEKFPBDF@Z		; CBaseDesk2::GetUserColor
PUBLIC	?GetDeskInfo@CBaseDesk2@@UAEJPBD@Z		; CBaseDesk2::GetDeskInfo
PUBLIC	?GetUserInfo@CBaseDesk2@@UAEJPBD@Z		; CBaseDesk2::GetUserInfo
PUBLIC	?GetFrameInfo@CBaseDesk2@@UAEJPBD@Z		; CBaseDesk2::GetFrameInfo
PUBLIC	?GetMainInfo@CBaseDesk2@@UAEJPBD@Z		; CBaseDesk2::GetMainInfo
PUBLIC	?FP_nGetCtrlPos@CBaseDesk2@@UAEJXZ		; CBaseDesk2::FP_nGetCtrlPos
PUBLIC	?FP_vResizeCtrl@CBaseDesk2@@UAEXXZ		; CBaseDesk2::FP_vResizeCtrl
PUBLIC	?SetMapMessage@CBaseDesk2@@UAEXJPBD@Z		; CBaseDesk2::SetMapMessage
PUBLIC	??0CExAcctInput@@QAE@XZ				; CExAcctInput::CExAcctInput
PUBLIC	?SetMyBaseDesk2@CExAcctInput@@IAEXPAVCBaseDesk2@@@Z ; CExAcctInput::SetMyBaseDesk2
PUBLIC	?InitAcctInput@CExAcctInput@@QAEHPAVCDialog@@AAVCRect@@IIPAVCBaseDesk2@@@Z ; CExAcctInput::InitAcctInput
PUBLIC	?InitAcctInput@CExAcctInput@@QAEHPAVCDialog@@IIPAVCBaseDesk2@@@Z ; CExAcctInput::InitAcctInput
PUBLIC	?InitAcctInput@CExAcctInput@@QAEHPAVCDialog@@AAVCRect@@IPAVCStringList@@PAVCBaseDesk2@@@Z ; CExAcctInput::InitAcctInput
PUBLIC	?InitAcctInput@CExAcctInput@@QAEHPAVCDialog@@IPAVCStringList@@PAVCBaseDesk2@@@Z ; CExAcctInput::InitAcctInput
PUBLIC	?InitAcctInput@CExAcctInput@@QAEHPAVCDialog@@AAVCRect@@IPAPBDHPAVCBaseDesk2@@@Z ; CExAcctInput::InitAcctInput
PUBLIC	?InitAcctInput@CExAcctInput@@QAEHPAVCDialog@@IPAPBDHPAVCBaseDesk2@@@Z ; CExAcctInput::InitAcctInput
PUBLIC	?InitAcctInput@CExAcctInput@@QAEHPAVCDialog@@AAVCRect@@IPBDPAVCBaseDesk2@@@Z ; CExAcctInput::InitAcctInput
PUBLIC	?InitAcctInput@CExAcctInput@@QAEHPAVCDialog@@IPBDPAVCBaseDesk2@@@Z ; CExAcctInput::InitAcctInput
PUBLIC	?InvokeEvent@CExAcctInput@@UAEHPBD0@Z		; CExAcctInput::InvokeEvent
PUBLIC	?GetBase@CExAcctInput@@QAEJPBD@Z		; CExAcctInput::GetBase
PUBLIC	?SetFocus@CExAcctInput@@QAEXXZ			; CExAcctInput::SetFocus
PUBLIC	?GetHWnd@CExAcctInput@@QAEIXZ			; CExAcctInput::GetHWnd
PUBLIC	?GetSafeHwnd@CExAcctInput@@QAEPAUHWND__@@XZ	; CExAcctInput::GetSafeHwnd
PUBLIC	?GetDataText@CExAcctInput@@QAE?AV?$CStringT@DV?$StrTraitMFC_DLL@DV?$ChTraitsCRT@D@ATL@@@@@ATL@@XZ ; CExAcctInput::GetDataText
PUBLIC	?SetText@CExAcctInput@@QAEXPBD@Z		; CExAcctInput::SetText
PUBLIC	?GetText@CExAcctInput@@QAE?AV?$CStringT@DV?$StrTraitMFC_DLL@DV?$ChTraitsCRT@D@ATL@@@@@ATL@@XZ ; CExAcctInput::GetText
PUBLIC	?MoveWindow@CExAcctInput@@QAEXHHHHH@Z		; CExAcctInput::MoveWindow
PUBLIC	?MoveWindow@CExAcctInput@@QAEXPBUtagRECT@@H@Z	; CExAcctInput::MoveWindow
PUBLIC	?SetWindowPos@CExAcctInput@@QAEHPBVCWnd@@HHHHI@Z ; CExAcctInput::SetWindowPos
PUBLIC	?ShowWindow@CExAcctInput@@QAEHH@Z		; CExAcctInput::ShowWindow
PUBLIC	?GetWindowRect@CExAcctInput@@QAEXPAUtagRECT@@@Z	; CExAcctInput::GetWindowRect
PUBLIC	?GetClientRect@CExAcctInput@@QAEXPAUtagRECT@@@Z	; CExAcctInput::GetClientRect
PUBLIC	?SetEnabled@CExAcctInput@@QAEXH@Z		; CExAcctInput::SetEnabled
PUBLIC	?GetEnabled@CExAcctInput@@QAEHXZ		; CExAcctInput::GetEnabled
PUBLIC	??1CX2000BaseDesk@CExAcctInput@@QAE@XZ		; CExAcctInput::CX2000BaseDesk::~CX2000BaseDesk
PUBLIC	?GetBasePath@CX2000BaseDesk@CExAcctInput@@UAEPBDXZ ; CExAcctInput::CX2000BaseDesk::GetBasePath
PUBLIC	?GetDeskHwnd@CX2000BaseDesk@CExAcctInput@@UAEPAUHWND__@@XZ ; CExAcctInput::CX2000BaseDesk::GetDeskHwnd
PUBLIC	?GetUnknown@CX2000BaseDesk@CExAcctInput@@UAEPAUIDispatch@@XZ ; CExAcctInput::CX2000BaseDesk::GetUnknown
PUBLIC	?GetCtrlUnknown@CX2000BaseDesk@CExAcctInput@@UAEPAUIUnknown@@PBD@Z ; CExAcctInput::CX2000BaseDesk::GetCtrlUnknown
PUBLIC	?GetCtrlHwnd@CX2000BaseDesk@CExAcctInput@@UAEPAUHWND__@@PBD@Z ; CExAcctInput::CX2000BaseDesk::GetCtrlHwnd
PUBLIC	?GetSharedInterface@CX2000BaseDesk@CExAcctInput@@UAEPAXXZ ; CExAcctInput::CX2000BaseDesk::GetSharedInterface
PUBLIC	?InvokeEvent@CX2000BaseDesk@CExAcctInput@@UAEHPAUHWND__@@PBD1@Z ; CExAcctInput::CX2000BaseDesk::InvokeEvent
PUBLIC	?InvokeEvent2@CX2000BaseDesk@CExAcctInput@@UAEHPBD00@Z ; CExAcctInput::CX2000BaseDesk::InvokeEvent2
PUBLIC	?SendKey@CX2000BaseDesk@CExAcctInput@@UAEHPAUHWND__@@IHH@Z ; CExAcctInput::CX2000BaseDesk::SendKey
PUBLIC	?GetLSharedData@CX2000BaseDesk@CExAcctInput@@UAEPAXXZ ; CExAcctInput::CX2000BaseDesk::GetLSharedData
PUBLIC	?CallCommand@CX2000BaseDesk@CExAcctInput@@UAEXPBD@Z ; CExAcctInput::CX2000BaseDesk::CallCommand
PUBLIC	?GetUserColor@CX2000BaseDesk@CExAcctInput@@UAEKFPBDF@Z ; CExAcctInput::CX2000BaseDesk::GetUserColor
PUBLIC	?GetDeskInfo@CX2000BaseDesk@CExAcctInput@@UAEJPBD@Z ; CExAcctInput::CX2000BaseDesk::GetDeskInfo
PUBLIC	?GetUserInfo@CX2000BaseDesk@CExAcctInput@@UAEJPBD@Z ; CExAcctInput::CX2000BaseDesk::GetUserInfo
PUBLIC	?GetFrameInfo@CX2000BaseDesk@CExAcctInput@@UAEJPBD@Z ; CExAcctInput::CX2000BaseDesk::GetFrameInfo
PUBLIC	?GetMainInfo@CX2000BaseDesk@CExAcctInput@@UAEJPBD@Z ; CExAcctInput::CX2000BaseDesk::GetMainInfo
PUBLIC	?FP_vAdviseDebug@CX2000BaseDesk@CExAcctInput@@UAEHPBDI@Z ; CExAcctInput::CX2000BaseDesk::FP_vAdviseDebug
PUBLIC	?FP_vUnadviseDebug@CX2000BaseDesk@CExAcctInput@@UAEXPBDI@Z ; CExAcctInput::CX2000BaseDesk::FP_vUnadviseDebug
PUBLIC	?FP_sGetMyVBName@CX2000BaseDesk@CExAcctInput@@UAEPBDPAUHWND__@@@Z ; CExAcctInput::CX2000BaseDesk::FP_sGetMyVBName
PUBLIC	?FP_vSendDebug@CX2000BaseDesk@CExAcctInput@@UAEXPBD00@Z ; CExAcctInput::CX2000BaseDesk::FP_vSendDebug
PUBLIC	?FP_nGetCtrlPos@CX2000BaseDesk@CExAcctInput@@UAEJXZ ; CExAcctInput::CX2000BaseDesk::FP_nGetCtrlPos
PUBLIC	?FP_vResizeCtrl@CX2000BaseDesk@CExAcctInput@@UAEXXZ ; CExAcctInput::CX2000BaseDesk::FP_vResizeCtrl
PUBLIC	?SetMapMessage@CX2000BaseDesk@CExAcctInput@@UAEXJPBD@Z ; CExAcctInput::CX2000BaseDesk::SetMapMessage
PUBLIC	??1CExAcctInput@@UAE@XZ				; CExAcctInput::~CExAcctInput
PUBLIC	??_GCExAcctInput@@UAEPAXI@Z			; CExAcctInput::`scalar deleting destructor'
PUBLIC	??1CExLoadLib@@QAE@XZ				; CExLoadLib::~CExLoadLib
PUBLIC	?LoadProcAddress@CExLoadLib@@UAEHXZ		; CExLoadLib::LoadProcAddress
PUBLIC	??0CLoaderAcctInput@@QAE@PAXPBD@Z		; CLoaderAcctInput::CLoaderAcctInput
PUBLIC	??1CLoaderAcctInput@@UAE@XZ			; CLoaderAcctInput::~CLoaderAcctInput
PUBLIC	?LoadProcAddress@CLoaderAcctInput@@UAEHXZ	; CLoaderAcctInput::LoadProcAddress
PUBLIC	??_GCLoaderAcctInput@@UAEPAXI@Z			; CLoaderAcctInput::`scalar deleting destructor'
PUBLIC	?_OptionsStorage@?1??__local_stdio_printf_options@@9@4_KA ; `__local_stdio_printf_options'::`2'::_OptionsStorage
PUBLIC	??_C@_00CNPNBAHC@@				; `string'
PUBLIC	??_7CBaseDesk@@6B@				; CBaseDesk::`vftable'
PUBLIC	??_7CBaseDesk2@@6B@				; CBaseDesk2::`vftable'
PUBLIC	??_7CX2000BaseDesk@CExAcctInput@@6B@		; CExAcctInput::CX2000BaseDesk::`vftable'
PUBLIC	??_7CExAcctInput@@6B@				; CExAcctInput::`vftable'
PUBLIC	??_7CExLoadLib@@6B@				; CExLoadLib::`vftable'
PUBLIC	??_C@_0CD@INEDAMEN@DLL?$FL?$CFs?$FN?$MA?$LL?5Load?G?R?5?$LM?v?5?$LO?x?$LN?$MA?$LE?O?$LE?Y?4?5?$FL@ ; `string'
PUBLIC	??_C@_04OHDBDCPJ@?2Dev@				; `string'
PUBLIC	??_C@_05BMGBEOOC@?$CFs?2?$CFs@			; `string'
PUBLIC	??_C@_0BB@JBDOCKKP@Ex_ActionControl@		; `string'
PUBLIC	??_C@_0L@DJFMIDOF@Ex_SetText@			; `string'
PUBLIC	??_7CLoaderAcctInput@@6B@			; CLoaderAcctInput::`vftable'
PUBLIC	??_C@_0BA@MGIDAGLK@ExAcctInput?4dll@		; `string'
PUBLIC	??_C@_0BB@BJKHGLJM@Ex_ExitAcctInput@		; `string'
PUBLIC	??_C@_0BH@GFLEPAJO@Ex_CreateAcctInputList@	; `string'
PUBLIC	??_C@_0BI@OANAHLLP@Ex_CreateAcctInputArray@	; `string'
PUBLIC	??_C@_0BJ@ILEHHAOG@Ex_CreateAcctInputString@	; `string'
PUBLIC	??_C@_0BG@COJBJNAN@Ex_CreateAcctInputInt@	; `string'
PUBLIC	??_C@_0L@POODIFLA@Ex_GetBase@			; `string'
PUBLIC	??_C@_0M@FGDPGBNJ@Ex_SetFocus@			; `string'
PUBLIC	??_C@_0L@GMPGDLAO@Ex_GetHWnd@			; `string'
PUBLIC	??_C@_0P@IGDEMOLK@Ex_GetSafeHwnd@		; `string'
PUBLIC	??_C@_0L@MBKNLMDE@Ex_GetText@			; `string'
PUBLIC	??_C@_0P@CICMAGPH@Ex_GetDataText@		; `string'
PUBLIC	??_C@_0O@BLPOCJFK@Ex_MoveWindow@		; `string'
PUBLIC	??_C@_0P@GGNFBCLC@Ex_MoveWindow2@		; `string'
PUBLIC	??_C@_0BA@JKDHMPLL@Ex_SetWindowPos@		; `string'
PUBLIC	??_C@_0O@DLFPBPJC@Ex_ShowWindow@		; `string'
PUBLIC	??_C@_0BB@GBDPECDK@Ex_GetWindowRect@		; `string'
PUBLIC	??_C@_0BB@BBBBCKHK@Ex_GetClientRect@		; `string'
PUBLIC	??_C@_0O@JKEIHPMI@Ex_SetEnabled@		; `string'
PUBLIC	??_C@_0O@IEGHMIIB@Ex_GetEnabled@		; `string'
PUBLIC	??_R4CBaseDesk@@6B@				; CBaseDesk::`RTTI Complete Object Locator'
PUBLIC	??_R0?AVCBaseDesk@@@8				; CBaseDesk `RTTI Type Descriptor'
PUBLIC	??_R3CBaseDesk@@8				; CBaseDesk::`RTTI Class Hierarchy Descriptor'
PUBLIC	??_R2CBaseDesk@@8				; CBaseDesk::`RTTI Base Class Array'
PUBLIC	??_R1A@?0A@EA@CBaseDesk@@8			; CBaseDesk::`RTTI Base Class Descriptor at (0,-1,0,64)'
PUBLIC	??_R4CBaseDesk2@@6B@				; CBaseDesk2::`RTTI Complete Object Locator'
PUBLIC	??_R0?AVCBaseDesk2@@@8				; CBaseDesk2 `RTTI Type Descriptor'
PUBLIC	??_R3CBaseDesk2@@8				; CBaseDesk2::`RTTI Class Hierarchy Descriptor'
PUBLIC	??_R2CBaseDesk2@@8				; CBaseDesk2::`RTTI Base Class Array'
PUBLIC	??_R1A@?0A@EA@CBaseDesk2@@8			; CBaseDesk2::`RTTI Base Class Descriptor at (0,-1,0,64)'
PUBLIC	??_R4CLoaderAcctInput@@6B@			; CLoaderAcctInput::`RTTI Complete Object Locator'
PUBLIC	??_R0?AVCLoaderAcctInput@@@8			; CLoaderAcctInput `RTTI Type Descriptor'
PUBLIC	??_R3CLoaderAcctInput@@8			; CLoaderAcctInput::`RTTI Class Hierarchy Descriptor'
PUBLIC	??_R2CLoaderAcctInput@@8			; CLoaderAcctInput::`RTTI Base Class Array'
PUBLIC	??_R1A@?0A@EA@CLoaderAcctInput@@8		; CLoaderAcctInput::`RTTI Base Class Descriptor at (0,-1,0,64)'
PUBLIC	??_R1A@?0A@EA@CExLoadLib@@8			; CExLoadLib::`RTTI Base Class Descriptor at (0,-1,0,64)'
PUBLIC	??_R0?AVCExLoadLib@@@8				; CExLoadLib `RTTI Type Descriptor'
PUBLIC	??_R3CExLoadLib@@8				; CExLoadLib::`RTTI Class Hierarchy Descriptor'
PUBLIC	??_R2CExLoadLib@@8				; CExLoadLib::`RTTI Base Class Array'
PUBLIC	??_R4CExAcctInput@@6B@				; CExAcctInput::`RTTI Complete Object Locator'
PUBLIC	??_R0?AVCExAcctInput@@@8			; CExAcctInput `RTTI Type Descriptor'
PUBLIC	??_R3CExAcctInput@@8				; CExAcctInput::`RTTI Class Hierarchy Descriptor'
PUBLIC	??_R2CExAcctInput@@8				; CExAcctInput::`RTTI Base Class Array'
PUBLIC	??_R1A@?0A@EA@CExAcctInput@@8			; CExAcctInput::`RTTI Base Class Descriptor at (0,-1,0,64)'
PUBLIC	??_R4CX2000BaseDesk@CExAcctInput@@6B@		; CExAcctInput::CX2000BaseDesk::`RTTI Complete Object Locator'
PUBLIC	??_R0?AVCX2000BaseDesk@CExAcctInput@@@8		; CExAcctInput::CX2000BaseDesk `RTTI Type Descriptor'
PUBLIC	??_R3CX2000BaseDesk@CExAcctInput@@8		; CExAcctInput::CX2000BaseDesk::`RTTI Class Hierarchy Descriptor'
PUBLIC	??_R2CX2000BaseDesk@CExAcctInput@@8		; CExAcctInput::CX2000BaseDesk::`RTTI Base Class Array'
PUBLIC	??_R1A@?0A@EA@CX2000BaseDesk@CExAcctInput@@8	; CExAcctInput::CX2000BaseDesk::`RTTI Base Class Descriptor at (0,-1,0,64)'
PUBLIC	??_R4CExLoadLib@@6B@				; CExLoadLib::`RTTI Complete Object Locator'
EXTRN	??2@YAPAXI@Z:PROC				; operator new
EXTRN	??3@YAXPAXI@Z:PROC				; operator delete
EXTRN	___std_terminate:PROC
EXTRN	__imp__GetLastError@0:PROC
EXTRN	__imp__FreeLibrary@4:PROC
EXTRN	__imp__GetModuleFileNameA@12:PROC
EXTRN	__imp__GetProcAddress@8:PROC
EXTRN	__imp__LoadLibraryA@4:PROC
EXTRN	__imp__RegisterWindowMessageA@4:PROC
EXTRN	__imp__SendMessageA@16:PROC
EXTRN	__imp__IsWindow@4:PROC
EXTRN	__imp__GetWindowRect@8:PROC
EXTRN	__imp__GetParent@4:PROC
EXTRN	__imp____stdio_common_vsprintf:PROC
EXTRN	?IsKindOf@CObject@@QBEHPBUCRuntimeClass@@@Z:PROC ; CObject::IsKindOf
EXTRN	__imp_??0?$CStringT@DV?$StrTraitMFC_DLL@DV?$ChTraitsCRT@D@ATL@@@@@ATL@@QAE@XZ:PROC
EXTRN	__imp_??0?$CStringT@DV?$StrTraitMFC_DLL@DV?$ChTraitsCRT@D@ATL@@@@@ATL@@QAE@ABV01@@Z:PROC
EXTRN	__imp_??0?$CStringT@DV?$StrTraitMFC_DLL@DV?$ChTraitsCRT@D@ATL@@@@@ATL@@QAE@PBD@Z:PROC
EXTRN	__imp_??1?$CStringT@DV?$StrTraitMFC_DLL@DV?$ChTraitsCRT@D@ATL@@@@@ATL@@QAE@XZ:PROC
EXTRN	__imp_??4?$CStringT@DV?$StrTraitMFC_DLL@DV?$ChTraitsCRT@D@ATL@@@@@ATL@@QAEAAV01@ABV01@@Z:PROC
EXTRN	__imp_??4?$CStringT@DV?$StrTraitMFC_DLL@DV?$ChTraitsCRT@D@ATL@@@@@ATL@@QAEAAV01@PBD@Z:PROC
EXTRN	__imp_??Y?$CStringT@DV?$StrTraitMFC_DLL@DV?$ChTraitsCRT@D@ATL@@@@@ATL@@QAEAAV01@PBD@Z:PROC
EXTRN	__imp_?ReverseFind@?$CStringT@DV?$StrTraitMFC_DLL@DV?$ChTraitsCRT@D@ATL@@@@@ATL@@QBEHD@Z:PROC
EXTRN	__imp_?Left@?$CStringT@DV?$StrTraitMFC_DLL@DV?$ChTraitsCRT@D@ATL@@@@@ATL@@QBE?AV12@H@Z:PROC
EXTRN	?FromHandle@CWnd@@SGPAV1@PAUHWND__@@@Z:PROC	; CWnd::FromHandle
EXTRN	?GetDlgItem@CWnd@@QBEPAV1@H@Z:PROC		; CWnd::GetDlgItem
EXTRN	?ScreenToClient@CWnd@@QBEXPAUtagRECT@@@Z:PROC	; CWnd::ScreenToClient
EXTRN	?ShowWindow@CWnd@@QAEHH@Z:PROC			; CWnd::ShowWindow
EXTRN	?AfxMessageBox@@YGHPBDII@Z:PROC			; AfxMessageBox
EXTRN	?SetPermanentHandle@@YAXPAXPAVCObject@@@Z:PROC	; SetPermanentHandle
EXTRN	??_ECExAcctInput@@UAEPAXI@Z:PROC		; CExAcctInput::`vector deleting destructor'
EXTRN	?GetThisClass@CExOCXDLL@@SGPAUCRuntimeClass@@XZ:PROC ; CExOCXDLL::GetThisClass
EXTRN	??_ECLoaderAcctInput@@UAEPAXI@Z:PROC		; CLoaderAcctInput::`vector deleting destructor'
EXTRN	@__security_check_cookie@4:PROC
EXTRN	___CxxFrameHandler3:PROC
EXTRN	_memset:PROC
EXTRN	??_7type_info@@6B@:QWORD			; type_info::`vftable'
EXTRN	___security_cookie:DWORD
;	COMDAT ?_OptionsStorage@?1??__local_stdio_printf_options@@9@4_KA
_BSS	SEGMENT
?_OptionsStorage@?1??__local_stdio_printf_options@@9@4_KA DQ 01H DUP (?) ; `__local_stdio_printf_options'::`2'::_OptionsStorage
_BSS	ENDS
_BSS	SEGMENT
?RMSG_EVENT_ACCTINPUT@@3IB DD 01H DUP (?)		; RMSG_EVENT_ACCTINPUT
?RMSG_INTERFACE@@3IB DD 01H DUP (?)			; RMSG_INTERFACE
?RMSG_GETPCTRDATA@@3IB DD 01H DUP (?)			; RMSG_GETPCTRDATA
?RMSG_SETPCTRDATA@@3IB DD 01H DUP (?)			; RMSG_SETPCTRDATA
_BSS	ENDS
CRT$XCU	SEGMENT
?RMSG_EVENT_ACCTINPUT$initializer$@@3P6AXXZA DD FLAT:??__ERMSG_EVENT_ACCTINPUT@@YAXXZ ; RMSG_EVENT_ACCTINPUT$initializer$
CRT$XCU	ENDS
;	COMDAT ??_R4CExLoadLib@@6B@
rdata$r	SEGMENT
??_R4CExLoadLib@@6B@ DD 00H				; CExLoadLib::`RTTI Complete Object Locator'
	DD	00H
	DD	00H
	DD	FLAT:??_R0?AVCExLoadLib@@@8
	DD	FLAT:??_R3CExLoadLib@@8
rdata$r	ENDS
;	COMDAT ??_R1A@?0A@EA@CX2000BaseDesk@CExAcctInput@@8
rdata$r	SEGMENT
??_R1A@?0A@EA@CX2000BaseDesk@CExAcctInput@@8 DD FLAT:??_R0?AVCX2000BaseDesk@CExAcctInput@@@8 ; CExAcctInput::CX2000BaseDesk::`RTTI Base Class Descriptor at (0,-1,0,64)'
	DD	02H
	DD	00H
	DD	0ffffffffH
	DD	00H
	DD	040H
	DD	FLAT:??_R3CX2000BaseDesk@CExAcctInput@@8
rdata$r	ENDS
;	COMDAT ??_R2CX2000BaseDesk@CExAcctInput@@8
rdata$r	SEGMENT
??_R2CX2000BaseDesk@CExAcctInput@@8 DD FLAT:??_R1A@?0A@EA@CX2000BaseDesk@CExAcctInput@@8 ; CExAcctInput::CX2000BaseDesk::`RTTI Base Class Array'
	DD	FLAT:??_R1A@?0A@EA@CBaseDesk2@@8
	DD	FLAT:??_R1A@?0A@EA@CBaseDesk@@8
rdata$r	ENDS
;	COMDAT ??_R3CX2000BaseDesk@CExAcctInput@@8
rdata$r	SEGMENT
??_R3CX2000BaseDesk@CExAcctInput@@8 DD 00H		; CExAcctInput::CX2000BaseDesk::`RTTI Class Hierarchy Descriptor'
	DD	00H
	DD	03H
	DD	FLAT:??_R2CX2000BaseDesk@CExAcctInput@@8
rdata$r	ENDS
;	COMDAT ??_R0?AVCX2000BaseDesk@CExAcctInput@@@8
data$rs	SEGMENT
??_R0?AVCX2000BaseDesk@CExAcctInput@@@8 DD FLAT:??_7type_info@@6B@ ; CExAcctInput::CX2000BaseDesk `RTTI Type Descriptor'
	DD	00H
	DB	'.?AVCX2000BaseDesk@CExAcctInput@@', 00H
data$rs	ENDS
;	COMDAT ??_R4CX2000BaseDesk@CExAcctInput@@6B@
rdata$r	SEGMENT
??_R4CX2000BaseDesk@CExAcctInput@@6B@ DD 00H		; CExAcctInput::CX2000BaseDesk::`RTTI Complete Object Locator'
	DD	00H
	DD	00H
	DD	FLAT:??_R0?AVCX2000BaseDesk@CExAcctInput@@@8
	DD	FLAT:??_R3CX2000BaseDesk@CExAcctInput@@8
rdata$r	ENDS
;	COMDAT ??_R1A@?0A@EA@CExAcctInput@@8
rdata$r	SEGMENT
??_R1A@?0A@EA@CExAcctInput@@8 DD FLAT:??_R0?AVCExAcctInput@@@8 ; CExAcctInput::`RTTI Base Class Descriptor at (0,-1,0,64)'
	DD	00H
	DD	00H
	DD	0ffffffffH
	DD	00H
	DD	040H
	DD	FLAT:??_R3CExAcctInput@@8
rdata$r	ENDS
;	COMDAT ??_R2CExAcctInput@@8
rdata$r	SEGMENT
??_R2CExAcctInput@@8 DD FLAT:??_R1A@?0A@EA@CExAcctInput@@8 ; CExAcctInput::`RTTI Base Class Array'
rdata$r	ENDS
;	COMDAT ??_R3CExAcctInput@@8
rdata$r	SEGMENT
??_R3CExAcctInput@@8 DD 00H				; CExAcctInput::`RTTI Class Hierarchy Descriptor'
	DD	00H
	DD	01H
	DD	FLAT:??_R2CExAcctInput@@8
rdata$r	ENDS
;	COMDAT ??_R0?AVCExAcctInput@@@8
data$rs	SEGMENT
??_R0?AVCExAcctInput@@@8 DD FLAT:??_7type_info@@6B@	; CExAcctInput `RTTI Type Descriptor'
	DD	00H
	DB	'.?AVCExAcctInput@@', 00H
data$rs	ENDS
;	COMDAT ??_R4CExAcctInput@@6B@
rdata$r	SEGMENT
??_R4CExAcctInput@@6B@ DD 00H				; CExAcctInput::`RTTI Complete Object Locator'
	DD	00H
	DD	00H
	DD	FLAT:??_R0?AVCExAcctInput@@@8
	DD	FLAT:??_R3CExAcctInput@@8
rdata$r	ENDS
;	COMDAT ??_R2CExLoadLib@@8
rdata$r	SEGMENT
??_R2CExLoadLib@@8 DD FLAT:??_R1A@?0A@EA@CExLoadLib@@8	; CExLoadLib::`RTTI Base Class Array'
rdata$r	ENDS
;	COMDAT ??_R3CExLoadLib@@8
rdata$r	SEGMENT
??_R3CExLoadLib@@8 DD 00H				; CExLoadLib::`RTTI Class Hierarchy Descriptor'
	DD	00H
	DD	01H
	DD	FLAT:??_R2CExLoadLib@@8
rdata$r	ENDS
;	COMDAT ??_R0?AVCExLoadLib@@@8
data$rs	SEGMENT
??_R0?AVCExLoadLib@@@8 DD FLAT:??_7type_info@@6B@	; CExLoadLib `RTTI Type Descriptor'
	DD	00H
	DB	'.?AVCExLoadLib@@', 00H
data$rs	ENDS
;	COMDAT ??_R1A@?0A@EA@CExLoadLib@@8
rdata$r	SEGMENT
??_R1A@?0A@EA@CExLoadLib@@8 DD FLAT:??_R0?AVCExLoadLib@@@8 ; CExLoadLib::`RTTI Base Class Descriptor at (0,-1,0,64)'
	DD	00H
	DD	00H
	DD	0ffffffffH
	DD	00H
	DD	040H
	DD	FLAT:??_R3CExLoadLib@@8
rdata$r	ENDS
;	COMDAT ??_R1A@?0A@EA@CLoaderAcctInput@@8
rdata$r	SEGMENT
??_R1A@?0A@EA@CLoaderAcctInput@@8 DD FLAT:??_R0?AVCLoaderAcctInput@@@8 ; CLoaderAcctInput::`RTTI Base Class Descriptor at (0,-1,0,64)'
	DD	01H
	DD	00H
	DD	0ffffffffH
	DD	00H
	DD	040H
	DD	FLAT:??_R3CLoaderAcctInput@@8
rdata$r	ENDS
;	COMDAT ??_R2CLoaderAcctInput@@8
rdata$r	SEGMENT
??_R2CLoaderAcctInput@@8 DD FLAT:??_R1A@?0A@EA@CLoaderAcctInput@@8 ; CLoaderAcctInput::`RTTI Base Class Array'
	DD	FLAT:??_R1A@?0A@EA@CExLoadLib@@8
rdata$r	ENDS
;	COMDAT ??_R3CLoaderAcctInput@@8
rdata$r	SEGMENT
??_R3CLoaderAcctInput@@8 DD 00H				; CLoaderAcctInput::`RTTI Class Hierarchy Descriptor'
	DD	00H
	DD	02H
	DD	FLAT:??_R2CLoaderAcctInput@@8
rdata$r	ENDS
;	COMDAT ??_R0?AVCLoaderAcctInput@@@8
data$rs	SEGMENT
??_R0?AVCLoaderAcctInput@@@8 DD FLAT:??_7type_info@@6B@	; CLoaderAcctInput `RTTI Type Descriptor'
	DD	00H
	DB	'.?AVCLoaderAcctInput@@', 00H
data$rs	ENDS
;	COMDAT ??_R4CLoaderAcctInput@@6B@
rdata$r	SEGMENT
??_R4CLoaderAcctInput@@6B@ DD 00H			; CLoaderAcctInput::`RTTI Complete Object Locator'
	DD	00H
	DD	00H
	DD	FLAT:??_R0?AVCLoaderAcctInput@@@8
	DD	FLAT:??_R3CLoaderAcctInput@@8
rdata$r	ENDS
;	COMDAT ??_R1A@?0A@EA@CBaseDesk2@@8
rdata$r	SEGMENT
??_R1A@?0A@EA@CBaseDesk2@@8 DD FLAT:??_R0?AVCBaseDesk2@@@8 ; CBaseDesk2::`RTTI Base Class Descriptor at (0,-1,0,64)'
	DD	01H
	DD	00H
	DD	0ffffffffH
	DD	00H
	DD	040H
	DD	FLAT:??_R3CBaseDesk2@@8
rdata$r	ENDS
;	COMDAT ??_R2CBaseDesk2@@8
rdata$r	SEGMENT
??_R2CBaseDesk2@@8 DD FLAT:??_R1A@?0A@EA@CBaseDesk2@@8	; CBaseDesk2::`RTTI Base Class Array'
	DD	FLAT:??_R1A@?0A@EA@CBaseDesk@@8
rdata$r	ENDS
;	COMDAT ??_R3CBaseDesk2@@8
rdata$r	SEGMENT
??_R3CBaseDesk2@@8 DD 00H				; CBaseDesk2::`RTTI Class Hierarchy Descriptor'
	DD	00H
	DD	02H
	DD	FLAT:??_R2CBaseDesk2@@8
rdata$r	ENDS
;	COMDAT ??_R0?AVCBaseDesk2@@@8
data$rs	SEGMENT
??_R0?AVCBaseDesk2@@@8 DD FLAT:??_7type_info@@6B@	; CBaseDesk2 `RTTI Type Descriptor'
	DD	00H
	DB	'.?AVCBaseDesk2@@', 00H
data$rs	ENDS
;	COMDAT ??_R4CBaseDesk2@@6B@
rdata$r	SEGMENT
??_R4CBaseDesk2@@6B@ DD 00H				; CBaseDesk2::`RTTI Complete Object Locator'
	DD	00H
	DD	00H
	DD	FLAT:??_R0?AVCBaseDesk2@@@8
	DD	FLAT:??_R3CBaseDesk2@@8
rdata$r	ENDS
;	COMDAT ??_R1A@?0A@EA@CBaseDesk@@8
rdata$r	SEGMENT
??_R1A@?0A@EA@CBaseDesk@@8 DD FLAT:??_R0?AVCBaseDesk@@@8 ; CBaseDesk::`RTTI Base Class Descriptor at (0,-1,0,64)'
	DD	00H
	DD	00H
	DD	0ffffffffH
	DD	00H
	DD	040H
	DD	FLAT:??_R3CBaseDesk@@8
rdata$r	ENDS
;	COMDAT ??_R2CBaseDesk@@8
rdata$r	SEGMENT
??_R2CBaseDesk@@8 DD FLAT:??_R1A@?0A@EA@CBaseDesk@@8	; CBaseDesk::`RTTI Base Class Array'
rdata$r	ENDS
;	COMDAT ??_R3CBaseDesk@@8
rdata$r	SEGMENT
??_R3CBaseDesk@@8 DD 00H				; CBaseDesk::`RTTI Class Hierarchy Descriptor'
	DD	00H
	DD	01H
	DD	FLAT:??_R2CBaseDesk@@8
rdata$r	ENDS
;	COMDAT ??_R0?AVCBaseDesk@@@8
data$rs	SEGMENT
??_R0?AVCBaseDesk@@@8 DD FLAT:??_7type_info@@6B@	; CBaseDesk `RTTI Type Descriptor'
	DD	00H
	DB	'.?AVCBaseDesk@@', 00H
data$rs	ENDS
;	COMDAT ??_R4CBaseDesk@@6B@
rdata$r	SEGMENT
??_R4CBaseDesk@@6B@ DD 00H				; CBaseDesk::`RTTI Complete Object Locator'
	DD	00H
	DD	00H
	DD	FLAT:??_R0?AVCBaseDesk@@@8
	DD	FLAT:??_R3CBaseDesk@@8
rdata$r	ENDS
;	COMDAT ??_C@_0O@IEGHMIIB@Ex_GetEnabled@
CONST	SEGMENT
??_C@_0O@IEGHMIIB@Ex_GetEnabled@ DB 'Ex_GetEnabled', 00H ; `string'
CONST	ENDS
;	COMDAT ??_C@_0O@JKEIHPMI@Ex_SetEnabled@
CONST	SEGMENT
??_C@_0O@JKEIHPMI@Ex_SetEnabled@ DB 'Ex_SetEnabled', 00H ; `string'
CONST	ENDS
;	COMDAT ??_C@_0BB@BBBBCKHK@Ex_GetClientRect@
CONST	SEGMENT
??_C@_0BB@BBBBCKHK@Ex_GetClientRect@ DB 'Ex_GetClientRect', 00H ; `string'
CONST	ENDS
;	COMDAT ??_C@_0BB@GBDPECDK@Ex_GetWindowRect@
CONST	SEGMENT
??_C@_0BB@GBDPECDK@Ex_GetWindowRect@ DB 'Ex_GetWindowRect', 00H ; `string'
CONST	ENDS
;	COMDAT ??_C@_0O@DLFPBPJC@Ex_ShowWindow@
CONST	SEGMENT
??_C@_0O@DLFPBPJC@Ex_ShowWindow@ DB 'Ex_ShowWindow', 00H ; `string'
CONST	ENDS
;	COMDAT ??_C@_0BA@JKDHMPLL@Ex_SetWindowPos@
CONST	SEGMENT
??_C@_0BA@JKDHMPLL@Ex_SetWindowPos@ DB 'Ex_SetWindowPos', 00H ; `string'
CONST	ENDS
;	COMDAT ??_C@_0P@GGNFBCLC@Ex_MoveWindow2@
CONST	SEGMENT
??_C@_0P@GGNFBCLC@Ex_MoveWindow2@ DB 'Ex_MoveWindow2', 00H ; `string'
CONST	ENDS
;	COMDAT ??_C@_0O@BLPOCJFK@Ex_MoveWindow@
CONST	SEGMENT
??_C@_0O@BLPOCJFK@Ex_MoveWindow@ DB 'Ex_MoveWindow', 00H ; `string'
CONST	ENDS
;	COMDAT ??_C@_0P@CICMAGPH@Ex_GetDataText@
CONST	SEGMENT
??_C@_0P@CICMAGPH@Ex_GetDataText@ DB 'Ex_GetDataText', 00H ; `string'
CONST	ENDS
;	COMDAT ??_C@_0L@MBKNLMDE@Ex_GetText@
CONST	SEGMENT
??_C@_0L@MBKNLMDE@Ex_GetText@ DB 'Ex_GetText', 00H	; `string'
CONST	ENDS
;	COMDAT ??_C@_0P@IGDEMOLK@Ex_GetSafeHwnd@
CONST	SEGMENT
??_C@_0P@IGDEMOLK@Ex_GetSafeHwnd@ DB 'Ex_GetSafeHwnd', 00H ; `string'
CONST	ENDS
;	COMDAT ??_C@_0L@GMPGDLAO@Ex_GetHWnd@
CONST	SEGMENT
??_C@_0L@GMPGDLAO@Ex_GetHWnd@ DB 'Ex_GetHWnd', 00H	; `string'
CONST	ENDS
;	COMDAT ??_C@_0M@FGDPGBNJ@Ex_SetFocus@
CONST	SEGMENT
??_C@_0M@FGDPGBNJ@Ex_SetFocus@ DB 'Ex_SetFocus', 00H	; `string'
CONST	ENDS
;	COMDAT ??_C@_0L@POODIFLA@Ex_GetBase@
CONST	SEGMENT
??_C@_0L@POODIFLA@Ex_GetBase@ DB 'Ex_GetBase', 00H	; `string'
CONST	ENDS
;	COMDAT ??_C@_0BG@COJBJNAN@Ex_CreateAcctInputInt@
CONST	SEGMENT
??_C@_0BG@COJBJNAN@Ex_CreateAcctInputInt@ DB 'Ex_CreateAcctInputInt', 00H ; `string'
CONST	ENDS
;	COMDAT ??_C@_0BJ@ILEHHAOG@Ex_CreateAcctInputString@
CONST	SEGMENT
??_C@_0BJ@ILEHHAOG@Ex_CreateAcctInputString@ DB 'Ex_CreateAcctInputString'
	DB	00H						; `string'
CONST	ENDS
;	COMDAT ??_C@_0BI@OANAHLLP@Ex_CreateAcctInputArray@
CONST	SEGMENT
??_C@_0BI@OANAHLLP@Ex_CreateAcctInputArray@ DB 'Ex_CreateAcctInputArray', 00H ; `string'
CONST	ENDS
;	COMDAT ??_C@_0BH@GFLEPAJO@Ex_CreateAcctInputList@
CONST	SEGMENT
??_C@_0BH@GFLEPAJO@Ex_CreateAcctInputList@ DB 'Ex_CreateAcctInputList', 00H ; `string'
CONST	ENDS
;	COMDAT ??_C@_0BB@BJKHGLJM@Ex_ExitAcctInput@
CONST	SEGMENT
??_C@_0BB@BJKHGLJM@Ex_ExitAcctInput@ DB 'Ex_ExitAcctInput', 00H ; `string'
CONST	ENDS
;	COMDAT ??_C@_0BA@MGIDAGLK@ExAcctInput?4dll@
CONST	SEGMENT
??_C@_0BA@MGIDAGLK@ExAcctInput?4dll@ DB 'ExAcctInput.dll', 00H ; `string'
CONST	ENDS
;	COMDAT ??_7CLoaderAcctInput@@6B@
CONST	SEGMENT
??_7CLoaderAcctInput@@6B@ DD FLAT:??_R4CLoaderAcctInput@@6B@ ; CLoaderAcctInput::`vftable'
	DD	FLAT:?LoadProcAddress@CLoaderAcctInput@@UAEHXZ
	DD	FLAT:??_ECLoaderAcctInput@@UAEPAXI@Z
CONST	ENDS
;	COMDAT ??_C@_0L@DJFMIDOF@Ex_SetText@
CONST	SEGMENT
??_C@_0L@DJFMIDOF@Ex_SetText@ DB 'Ex_SetText', 00H	; `string'
CONST	ENDS
;	COMDAT ??_C@_0BB@JBDOCKKP@Ex_ActionControl@
CONST	SEGMENT
??_C@_0BB@JBDOCKKP@Ex_ActionControl@ DB 'Ex_ActionControl', 00H ; `string'
CONST	ENDS
;	COMDAT ??_C@_05BMGBEOOC@?$CFs?2?$CFs@
CONST	SEGMENT
??_C@_05BMGBEOOC@?$CFs?2?$CFs@ DB '%s\%s', 00H		; `string'
CONST	ENDS
;	COMDAT ??_C@_04OHDBDCPJ@?2Dev@
CONST	SEGMENT
??_C@_04OHDBDCPJ@?2Dev@ DB '\Dev', 00H			; `string'
CONST	ENDS
;	COMDAT ??_C@_0CD@INEDAMEN@DLL?$FL?$CFs?$FN?$MA?$LL?5Load?G?R?5?$LM?v?5?$LO?x?$LN?$MA?$LE?O?$LE?Y?4?5?$FL@
CONST	SEGMENT
??_C@_0CD@INEDAMEN@DLL?$FL?$CFs?$FN?$MA?$LL?5Load?G?R?5?$LM?v?5?$LO?x?$LN?$MA?$LE?O?$LE?Y?4?5?$FL@ DB 'D'
	DB	'LL[%s]', 0c0H, 0bbH, ' Load', 0c7H, 0d2H, ' ', 0bcH, 0f6H, ' '
	DB	0beH, 0f8H, 0bdH, 0c0H, 0b4H, 0cfH, 0b4H, 0d9H, '. [%d]', 00H ; `string'
CONST	ENDS
;	COMDAT ??_7CExLoadLib@@6B@
CONST	SEGMENT
??_7CExLoadLib@@6B@ DD FLAT:??_R4CExLoadLib@@6B@	; CExLoadLib::`vftable'
	DD	FLAT:?LoadProcAddress@CExLoadLib@@UAEHXZ
CONST	ENDS
;	COMDAT ??_7CExAcctInput@@6B@
CONST	SEGMENT
??_7CExAcctInput@@6B@ DD FLAT:??_R4CExAcctInput@@6B@	; CExAcctInput::`vftable'
	DD	FLAT:?InvokeEvent@CExAcctInput@@UAEHPBD0@Z
	DD	FLAT:??_ECExAcctInput@@UAEPAXI@Z
CONST	ENDS
;	COMDAT ??_7CX2000BaseDesk@CExAcctInput@@6B@
CONST	SEGMENT
??_7CX2000BaseDesk@CExAcctInput@@6B@ DD FLAT:??_R4CX2000BaseDesk@CExAcctInput@@6B@ ; CExAcctInput::CX2000BaseDesk::`vftable'
	DD	FLAT:?GetBasePath@CX2000BaseDesk@CExAcctInput@@UAEPBDXZ
	DD	FLAT:?GetDeskHwnd@CX2000BaseDesk@CExAcctInput@@UAEPAUHWND__@@XZ
	DD	FLAT:?GetUnknown@CX2000BaseDesk@CExAcctInput@@UAEPAUIDispatch@@XZ
	DD	FLAT:?GetCtrlUnknown@CX2000BaseDesk@CExAcctInput@@UAEPAUIUnknown@@PBD@Z
	DD	FLAT:?GetCtrlHwnd@CX2000BaseDesk@CExAcctInput@@UAEPAUHWND__@@PBD@Z
	DD	FLAT:?GetSharedInterface@CX2000BaseDesk@CExAcctInput@@UAEPAXXZ
	DD	FLAT:?InvokeEvent@CX2000BaseDesk@CExAcctInput@@UAEHPAUHWND__@@PBD1@Z
	DD	FLAT:?InvokeEvent2@CX2000BaseDesk@CExAcctInput@@UAEHPBD00@Z
	DD	FLAT:?SendKey@CX2000BaseDesk@CExAcctInput@@UAEHPAUHWND__@@IHH@Z
	DD	FLAT:?GetLSharedData@CX2000BaseDesk@CExAcctInput@@UAEPAXXZ
	DD	FLAT:?CallCommand@CX2000BaseDesk@CExAcctInput@@UAEXPBD@Z
	DD	FLAT:?GetUserColor@CX2000BaseDesk@CExAcctInput@@UAEKFPBDF@Z
	DD	FLAT:?GetDeskInfo@CX2000BaseDesk@CExAcctInput@@UAEJPBD@Z
	DD	FLAT:?GetUserInfo@CX2000BaseDesk@CExAcctInput@@UAEJPBD@Z
	DD	FLAT:?GetFrameInfo@CX2000BaseDesk@CExAcctInput@@UAEJPBD@Z
	DD	FLAT:?GetMainInfo@CX2000BaseDesk@CExAcctInput@@UAEJPBD@Z
	DD	FLAT:?FP_nGetCtrlPos@CX2000BaseDesk@CExAcctInput@@UAEJXZ
	DD	FLAT:?FP_vResizeCtrl@CX2000BaseDesk@CExAcctInput@@UAEXXZ
	DD	FLAT:?SetMapMessage@CX2000BaseDesk@CExAcctInput@@UAEXJPBD@Z
	DD	FLAT:?FP_vAdviseDebug@CX2000BaseDesk@CExAcctInput@@UAEHPBDI@Z
	DD	FLAT:?FP_vUnadviseDebug@CX2000BaseDesk@CExAcctInput@@UAEXPBDI@Z
	DD	FLAT:?FP_sGetMyVBName@CX2000BaseDesk@CExAcctInput@@UAEPBDPAUHWND__@@@Z
	DD	FLAT:?FP_vSendDebug@CX2000BaseDesk@CExAcctInput@@UAEXPBD00@Z
CONST	ENDS
;	COMDAT ??_7CBaseDesk2@@6B@
CONST	SEGMENT
??_7CBaseDesk2@@6B@ DD FLAT:??_R4CBaseDesk2@@6B@	; CBaseDesk2::`vftable'
	DD	FLAT:?GetBasePath@CBaseDesk@@UAEPBDXZ
	DD	FLAT:?GetDeskHwnd@CBaseDesk@@UAEPAUHWND__@@XZ
	DD	FLAT:?GetUnknown@CBaseDesk@@UAEPAUIDispatch@@XZ
	DD	FLAT:?GetCtrlUnknown@CBaseDesk@@UAEPAUIUnknown@@PBD@Z
	DD	FLAT:?GetCtrlHwnd@CBaseDesk@@UAEPAUHWND__@@PBD@Z
	DD	FLAT:?GetSharedInterface@CBaseDesk@@UAEPAXXZ
	DD	FLAT:?InvokeEvent@CBaseDesk@@UAEHPAUHWND__@@PBD1@Z
	DD	FLAT:?InvokeEvent2@CBaseDesk@@UAEHPBD00@Z
	DD	FLAT:?SendKey@CBaseDesk@@UAEHPAUHWND__@@IHH@Z
	DD	FLAT:?GetLSharedData@CBaseDesk@@UAEPAXXZ
	DD	FLAT:?CallCommand@CBaseDesk@@UAEXPBD@Z
	DD	FLAT:?GetUserColor@CBaseDesk2@@UAEKFPBDF@Z
	DD	FLAT:?GetDeskInfo@CBaseDesk2@@UAEJPBD@Z
	DD	FLAT:?GetUserInfo@CBaseDesk2@@UAEJPBD@Z
	DD	FLAT:?GetFrameInfo@CBaseDesk2@@UAEJPBD@Z
	DD	FLAT:?GetMainInfo@CBaseDesk2@@UAEJPBD@Z
	DD	FLAT:?FP_nGetCtrlPos@CBaseDesk2@@UAEJXZ
	DD	FLAT:?FP_vResizeCtrl@CBaseDesk2@@UAEXXZ
	DD	FLAT:?SetMapMessage@CBaseDesk2@@UAEXJPBD@Z
CONST	ENDS
;	COMDAT ??_7CBaseDesk@@6B@
CONST	SEGMENT
??_7CBaseDesk@@6B@ DD FLAT:??_R4CBaseDesk@@6B@		; CBaseDesk::`vftable'
	DD	FLAT:?GetBasePath@CBaseDesk@@UAEPBDXZ
	DD	FLAT:?GetDeskHwnd@CBaseDesk@@UAEPAUHWND__@@XZ
	DD	FLAT:?GetUnknown@CBaseDesk@@UAEPAUIDispatch@@XZ
	DD	FLAT:?GetCtrlUnknown@CBaseDesk@@UAEPAUIUnknown@@PBD@Z
	DD	FLAT:?GetCtrlHwnd@CBaseDesk@@UAEPAUHWND__@@PBD@Z
	DD	FLAT:?GetSharedInterface@CBaseDesk@@UAEPAXXZ
	DD	FLAT:?InvokeEvent@CBaseDesk@@UAEHPAUHWND__@@PBD1@Z
	DD	FLAT:?InvokeEvent2@CBaseDesk@@UAEHPBD00@Z
	DD	FLAT:?SendKey@CBaseDesk@@UAEHPAUHWND__@@IHH@Z
	DD	FLAT:?GetLSharedData@CBaseDesk@@UAEPAXXZ
	DD	FLAT:?CallCommand@CBaseDesk@@UAEXPBD@Z
CONST	ENDS
;	COMDAT ??_C@_00CNPNBAHC@@
CONST	SEGMENT
??_C@_00CNPNBAHC@@ DB 00H				; `string'
CONST	ENDS
;	COMDAT xdata$x
xdata$x	SEGMENT
__unwindtable$??_GCLoaderAcctInput@@UAEPAXI@Z DD 0ffffffffH
	DD	FLAT:___std_terminate
__ehfuncinfo$??_GCLoaderAcctInput@@UAEPAXI@Z DD 019930522H
	DD	01H
	DD	FLAT:__unwindtable$??_GCLoaderAcctInput@@UAEPAXI@Z
	DD	2 DUP(00H)
	DD	2 DUP(00H)
	DD	00H
	DD	05H
xdata$x	ENDS
;	COMDAT xdata$x
xdata$x	SEGMENT
__unwindtable$?GetDataText@CLoaderAcctInput@@QAE?AV?$CStringT@DV?$StrTraitMFC_DLL@DV?$ChTraitsCRT@D@ATL@@@@@ATL@@XZ DD 0ffffffffH
	DD	FLAT:__unwindfunclet$?GetDataText@CLoaderAcctInput@@QAE?AV?$CStringT@DV?$StrTraitMFC_DLL@DV?$ChTraitsCRT@D@ATL@@@@@ATL@@XZ$1
__ehfuncinfo$?GetDataText@CLoaderAcctInput@@QAE?AV?$CStringT@DV?$StrTraitMFC_DLL@DV?$ChTraitsCRT@D@ATL@@@@@ATL@@XZ DD 019930522H
	DD	01H
	DD	FLAT:__unwindtable$?GetDataText@CLoaderAcctInput@@QAE?AV?$CStringT@DV?$StrTraitMFC_DLL@DV?$ChTraitsCRT@D@ATL@@@@@ATL@@XZ
	DD	2 DUP(00H)
	DD	2 DUP(00H)
	DD	00H
	DD	01H
xdata$x	ENDS
;	COMDAT xdata$x
xdata$x	SEGMENT
__unwindtable$?GetText@CLoaderAcctInput@@QAE?AV?$CStringT@DV?$StrTraitMFC_DLL@DV?$ChTraitsCRT@D@ATL@@@@@ATL@@XZ DD 0ffffffffH
	DD	FLAT:__unwindfunclet$?GetText@CLoaderAcctInput@@QAE?AV?$CStringT@DV?$StrTraitMFC_DLL@DV?$ChTraitsCRT@D@ATL@@@@@ATL@@XZ$1
__ehfuncinfo$?GetText@CLoaderAcctInput@@QAE?AV?$CStringT@DV?$StrTraitMFC_DLL@DV?$ChTraitsCRT@D@ATL@@@@@ATL@@XZ DD 019930522H
	DD	01H
	DD	FLAT:__unwindtable$?GetText@CLoaderAcctInput@@QAE?AV?$CStringT@DV?$StrTraitMFC_DLL@DV?$ChTraitsCRT@D@ATL@@@@@ATL@@XZ
	DD	2 DUP(00H)
	DD	2 DUP(00H)
	DD	00H
	DD	01H
xdata$x	ENDS
;	COMDAT xdata$x
xdata$x	SEGMENT
__ehfuncinfo$??1CLoaderAcctInput@@UAE@XZ DD 019930522H
	DD	00H
	DD	00H
	DD	2 DUP(00H)
	DD	2 DUP(00H)
	DD	00H
	DD	05H
xdata$x	ENDS
;	COMDAT xdata$x
xdata$x	SEGMENT
__ehfuncinfo$??0CLoaderAcctInput@@QAE@PAXPBD@Z DD 019930522H
	DD	05H
	DD	FLAT:__unwindtable$??0CLoaderAcctInput@@QAE@PAXPBD@Z
	DD	2 DUP(00H)
	DD	2 DUP(00H)
	DD	00H
	DD	01H
__unwindtable$??0CLoaderAcctInput@@QAE@PAXPBD@Z DD 0ffffffffH
	DD	FLAT:__unwindfunclet$??0CLoaderAcctInput@@QAE@PAXPBD@Z$0
	DD	00H
	DD	FLAT:__unwindfunclet$??0CLoaderAcctInput@@QAE@PAXPBD@Z$1
	DD	01H
	DD	FLAT:__unwindfunclet$??0CLoaderAcctInput@@QAE@PAXPBD@Z$2
	DD	02H
	DD	FLAT:__unwindfunclet$??0CLoaderAcctInput@@QAE@PAXPBD@Z$3
	DD	02H
	DD	FLAT:__unwindfunclet$??0CLoaderAcctInput@@QAE@PAXPBD@Z$4
xdata$x	ENDS
;	COMDAT xdata$x
xdata$x	SEGMENT
__unwindtable$?GetDir_DrfnBin@@YAXAAV?$CStringT@DV?$StrTraitMFC_DLL@DV?$ChTraitsCRT@D@ATL@@@@@ATL@@@Z DD 0ffffffffH
	DD	FLAT:__unwindfunclet$?GetDir_DrfnBin@@YAXAAV?$CStringT@DV?$StrTraitMFC_DLL@DV?$ChTraitsCRT@D@ATL@@@@@ATL@@@Z$0
	DD	00H
	DD	FLAT:__unwindfunclet$?GetDir_DrfnBin@@YAXAAV?$CStringT@DV?$StrTraitMFC_DLL@DV?$ChTraitsCRT@D@ATL@@@@@ATL@@@Z$1
	DD	00H
	DD	FLAT:__unwindfunclet$?GetDir_DrfnBin@@YAXAAV?$CStringT@DV?$StrTraitMFC_DLL@DV?$ChTraitsCRT@D@ATL@@@@@ATL@@@Z$2
__ehfuncinfo$?GetDir_DrfnBin@@YAXAAV?$CStringT@DV?$StrTraitMFC_DLL@DV?$ChTraitsCRT@D@ATL@@@@@ATL@@@Z DD 019930522H
	DD	03H
	DD	FLAT:__unwindtable$?GetDir_DrfnBin@@YAXAAV?$CStringT@DV?$StrTraitMFC_DLL@DV?$ChTraitsCRT@D@ATL@@@@@ATL@@@Z
	DD	2 DUP(00H)
	DD	2 DUP(00H)
	DD	00H
	DD	01H
xdata$x	ENDS
;	COMDAT xdata$x
xdata$x	SEGMENT
__unwindtable$?GetDir_DrfnRoot@@YAXAAV?$CStringT@DV?$StrTraitMFC_DLL@DV?$ChTraitsCRT@D@ATL@@@@@ATL@@@Z DD 0ffffffffH
	DD	FLAT:__unwindfunclet$?GetDir_DrfnRoot@@YAXAAV?$CStringT@DV?$StrTraitMFC_DLL@DV?$ChTraitsCRT@D@ATL@@@@@ATL@@@Z$0
	DD	00H
	DD	FLAT:__unwindfunclet$?GetDir_DrfnRoot@@YAXAAV?$CStringT@DV?$StrTraitMFC_DLL@DV?$ChTraitsCRT@D@ATL@@@@@ATL@@@Z$1
	DD	00H
	DD	FLAT:__unwindfunclet$?GetDir_DrfnRoot@@YAXAAV?$CStringT@DV?$StrTraitMFC_DLL@DV?$ChTraitsCRT@D@ATL@@@@@ATL@@@Z$2
__ehfuncinfo$?GetDir_DrfnRoot@@YAXAAV?$CStringT@DV?$StrTraitMFC_DLL@DV?$ChTraitsCRT@D@ATL@@@@@ATL@@@Z DD 019930522H
	DD	03H
	DD	FLAT:__unwindtable$?GetDir_DrfnRoot@@YAXAAV?$CStringT@DV?$StrTraitMFC_DLL@DV?$ChTraitsCRT@D@ATL@@@@@ATL@@@Z
	DD	2 DUP(00H)
	DD	2 DUP(00H)
	DD	00H
	DD	01H
xdata$x	ENDS
;	COMDAT xdata$x
xdata$x	SEGMENT
__unwindtable$??_GCExAcctInput@@UAEPAXI@Z DD 0ffffffffH
	DD	FLAT:___std_terminate
__ehfuncinfo$??_GCExAcctInput@@UAEPAXI@Z DD 019930522H
	DD	01H
	DD	FLAT:__unwindtable$??_GCExAcctInput@@UAEPAXI@Z
	DD	2 DUP(00H)
	DD	2 DUP(00H)
	DD	00H
	DD	05H
xdata$x	ENDS
;	COMDAT xdata$x
xdata$x	SEGMENT
__unwindtable$??1CExAcctInput@@UAE@XZ DD 0ffffffffH
	DD	FLAT:___std_terminate
__ehfuncinfo$??1CExAcctInput@@UAE@XZ DD 019930522H
	DD	01H
	DD	FLAT:__unwindtable$??1CExAcctInput@@UAE@XZ
	DD	2 DUP(00H)
	DD	2 DUP(00H)
	DD	00H
	DD	05H
xdata$x	ENDS
;	COMDAT xdata$x
xdata$x	SEGMENT
__ehfuncinfo$??1CX2000BaseDesk@CExAcctInput@@QAE@XZ DD 019930522H
	DD	00H
	DD	00H
	DD	2 DUP(00H)
	DD	2 DUP(00H)
	DD	00H
	DD	05H
xdata$x	ENDS
;	COMDAT xdata$x
xdata$x	SEGMENT
__unwindtable$?GetText@CExAcctInput@@QAE?AV?$CStringT@DV?$StrTraitMFC_DLL@DV?$ChTraitsCRT@D@ATL@@@@@ATL@@XZ DD 0ffffffffH
	DD	FLAT:__unwindfunclet$?GetText@CExAcctInput@@QAE?AV?$CStringT@DV?$StrTraitMFC_DLL@DV?$ChTraitsCRT@D@ATL@@@@@ATL@@XZ$2
__ehfuncinfo$?GetText@CExAcctInput@@QAE?AV?$CStringT@DV?$StrTraitMFC_DLL@DV?$ChTraitsCRT@D@ATL@@@@@ATL@@XZ DD 019930522H
	DD	01H
	DD	FLAT:__unwindtable$?GetText@CExAcctInput@@QAE?AV?$CStringT@DV?$StrTraitMFC_DLL@DV?$ChTraitsCRT@D@ATL@@@@@ATL@@XZ
	DD	2 DUP(00H)
	DD	2 DUP(00H)
	DD	00H
	DD	01H
xdata$x	ENDS
;	COMDAT xdata$x
xdata$x	SEGMENT
__unwindtable$?GetDataText@CExAcctInput@@QAE?AV?$CStringT@DV?$StrTraitMFC_DLL@DV?$ChTraitsCRT@D@ATL@@@@@ATL@@XZ DD 0ffffffffH
	DD	FLAT:__unwindfunclet$?GetDataText@CExAcctInput@@QAE?AV?$CStringT@DV?$StrTraitMFC_DLL@DV?$ChTraitsCRT@D@ATL@@@@@ATL@@XZ$2
__ehfuncinfo$?GetDataText@CExAcctInput@@QAE?AV?$CStringT@DV?$StrTraitMFC_DLL@DV?$ChTraitsCRT@D@ATL@@@@@ATL@@XZ DD 019930522H
	DD	01H
	DD	FLAT:__unwindtable$?GetDataText@CExAcctInput@@QAE?AV?$CStringT@DV?$StrTraitMFC_DLL@DV?$ChTraitsCRT@D@ATL@@@@@ATL@@XZ
	DD	2 DUP(00H)
	DD	2 DUP(00H)
	DD	00H
	DD	01H
xdata$x	ENDS
;	COMDAT xdata$x
xdata$x	SEGMENT
__unwindtable$??0CExAcctInput@@QAE@XZ DD 0ffffffffH
	DD	FLAT:__unwindfunclet$??0CExAcctInput@@QAE@XZ$0
	DD	00H
	DD	FLAT:__unwindfunclet$??0CExAcctInput@@QAE@XZ$1
__ehfuncinfo$??0CExAcctInput@@QAE@XZ DD 019930522H
	DD	02H
	DD	FLAT:__unwindtable$??0CExAcctInput@@QAE@XZ
	DD	2 DUP(00H)
	DD	2 DUP(00H)
	DD	00H
	DD	01H
xdata$x	ENDS
CRT$XCU	SEGMENT
?RMSG_INTERFACE$initializer$@@3P6AXXZA DD FLAT:??__ERMSG_INTERFACE@@YAXXZ ; RMSG_INTERFACE$initializer$
CRT$XCU	ENDS
CRT$XCU	SEGMENT
?RMSG_GETPCTRDATA$initializer$@@3P6AXXZA DD FLAT:??__ERMSG_GETPCTRDATA@@YAXXZ ; RMSG_GETPCTRDATA$initializer$
CRT$XCU	ENDS
CRT$XCU	SEGMENT
?RMSG_SETPCTRDATA$initializer$@@3P6AXXZA DD FLAT:??__ERMSG_SETPCTRDATA@@YAXXZ ; RMSG_SETPCTRDATA$initializer$
CRT$XCU	ENDS
; Function compile flags: /Ogtp
; File D:\git\src\IBK\IBK_DRFN\ProjSrc\SrcDrfn\Chart\ExControl\Include\LoadHelper.h
; File D:\git\src\IBK\IBK_DRFN\ProjSrc\SrcDrfn\Chart\ExControl\Include\BaseLoadHelper.h
;	COMDAT ??_GCLoaderAcctInput@@UAEPAXI@Z
_TEXT	SEGMENT
__$EHRec$ = -12						; size = 12
___flags$ = 8						; size = 4
??_GCLoaderAcctInput@@UAEPAXI@Z PROC			; CLoaderAcctInput::`scalar deleting destructor', COMDAT
; _this$ = ecx
  00000	55		 push	 ebp
  00001	8b ec		 mov	 ebp, esp
  00003	6a ff		 push	 -1
  00005	68 00 00 00 00	 push	 __ehhandler$??_GCLoaderAcctInput@@UAEPAXI@Z
  0000a	64 a1 00 00 00
	00		 mov	 eax, DWORD PTR fs:0
  00010	50		 push	 eax
  00011	56		 push	 esi
  00012	a1 00 00 00 00	 mov	 eax, DWORD PTR ___security_cookie
  00017	33 c5		 xor	 eax, ebp
  00019	50		 push	 eax
  0001a	8d 45 f4	 lea	 eax, DWORD PTR __$EHRec$[ebp]
  0001d	64 a3 00 00 00
	00		 mov	 DWORD PTR fs:0, eax
  00023	8b f1		 mov	 esi, ecx
; File D:\git\src\IBK\IBK_DRFN\ProjSrc\SrcDrfn\Chart\ExControl\Include\LoadHelper.h

; 1587 : 		if(m_hLib)

  00025	8b 46 04	 mov	 eax, DWORD PTR [esi+4]
  00028	c7 45 fc 00 00
	00 00		 mov	 DWORD PTR __$EHRec$[ebp+8], 0
  0002f	c7 06 00 00 00
	00		 mov	 DWORD PTR [esi], OFFSET ??_7CLoaderAcctInput@@6B@
  00035	85 c0		 test	 eax, eax
  00037	74 14		 je	 SHORT $LN5@scalar

; 1588 : 			pExitAcctInput(m_lpPointer);

  00039	ff b6 0c 01 00
	00		 push	 DWORD PTR [esi+268]
  0003f	8b 86 14 01 00
	00		 mov	 eax, DWORD PTR [esi+276]
  00045	ff d0		 call	 eax
  00047	8b 46 04	 mov	 eax, DWORD PTR [esi+4]
  0004a	83 c4 04	 add	 esp, 4
$LN5@scalar:
; File D:\git\src\IBK\IBK_DRFN\ProjSrc\SrcDrfn\Chart\ExControl\Include\BaseLoadHelper.h

; 13   : 	{

  0004d	c7 06 00 00 00
	00		 mov	 DWORD PTR [esi], OFFSET ??_7CExLoadLib@@6B@

; 53   : 		if(!m_hLib)

  00053	85 c0		 test	 eax, eax
  00055	74 0e		 je	 SHORT $LN10@scalar

; 54   : 			return TRUE;
; 55   : 
; 56   : 		BOOL bResult = ::FreeLibrary(m_hLib);

  00057	50		 push	 eax
  00058	ff 15 00 00 00
	00		 call	 DWORD PTR __imp__FreeLibrary@4

; 57   : 		
; 58   : 		m_hLib = NULL;

  0005e	c7 46 04 00 00
	00 00		 mov	 DWORD PTR [esi+4], 0
$LN10@scalar:
  00065	f6 45 08 01	 test	 BYTE PTR ___flags$[ebp], 1
  00069	74 0e		 je	 SHORT $LN13@scalar
  0006b	68 64 01 00 00	 push	 356			; 00000164H
  00070	56		 push	 esi
  00071	e8 00 00 00 00	 call	 ??3@YAXPAXI@Z		; operator delete
  00076	83 c4 08	 add	 esp, 8
$LN13@scalar:
  00079	8b c6		 mov	 eax, esi
  0007b	8b 4d f4	 mov	 ecx, DWORD PTR __$EHRec$[ebp]
  0007e	64 89 0d 00 00
	00 00		 mov	 DWORD PTR fs:0, ecx
  00085	59		 pop	 ecx
  00086	5e		 pop	 esi
  00087	8b e5		 mov	 esp, ebp
  00089	5d		 pop	 ebp
  0008a	c2 04 00	 ret	 4
  0008d	cc		 int	 3
  0008e	cc		 int	 3
  0008f	cc		 int	 3
  00090	cc		 int	 3
  00091	cc		 int	 3
_TEXT	ENDS
;	COMDAT text$x
text$x	SEGMENT
__ehhandler$??_GCLoaderAcctInput@@UAEPAXI@Z:
  00000	90		 npad	 1
  00001	90		 npad	 1
  00002	8b 54 24 08	 mov	 edx, DWORD PTR [esp+8]
  00006	8d 42 0c	 lea	 eax, DWORD PTR [edx+12]
  00009	8b 4a f8	 mov	 ecx, DWORD PTR [edx-8]
  0000c	33 c8		 xor	 ecx, eax
  0000e	e8 00 00 00 00	 call	 @__security_check_cookie@4
  00013	b8 00 00 00 00	 mov	 eax, OFFSET __ehfuncinfo$??_GCLoaderAcctInput@@UAEPAXI@Z
  00018	e9 00 00 00 00	 jmp	 ___CxxFrameHandler3
text$x	ENDS
??_GCLoaderAcctInput@@UAEPAXI@Z ENDP			; CLoaderAcctInput::`scalar deleting destructor'
; Function compile flags: /Ogtp
; File D:\git\src\IBK\IBK_DRFN\ProjSrc\SrcDrfn\Chart\ExControl\Include\LoadHelper.h
;	COMDAT ?LoadProcAddress@CLoaderAcctInput@@UAEHXZ
_TEXT	SEGMENT
?LoadProcAddress@CLoaderAcctInput@@UAEHXZ PROC		; CLoaderAcctInput::LoadProcAddress, COMDAT
; _this$ = ecx

; 1592 : 	{

  00000	57		 push	 edi
  00001	8b f9		 mov	 edi, ecx

; 1593 : 		if(!m_hLib)

  00003	8b 47 04	 mov	 eax, DWORD PTR [edi+4]
  00006	85 c0		 test	 eax, eax
  00008	75 02		 jne	 SHORT $LN2@LoadProcAd
  0000a	5f		 pop	 edi

; 1625 : 	}

  0000b	c3		 ret	 0
$LN2@LoadProcAd:
  0000c	56		 push	 esi

; 1594 : 		{
; 1595 : 			TRACE0("CLoaderAcctInput GetProcAddress에서 Load에러 발생");
; 1596 : 			return FALSE;
; 1597 : 		}
; 1598 : 
; 1599 : 		pActionControl	= (FpActionControl)::GetProcAddress(m_hLib, "Ex_ActionControl");

  0000d	8b 35 00 00 00
	00		 mov	 esi, DWORD PTR __imp__GetProcAddress@8
  00013	68 00 00 00 00	 push	 OFFSET ??_C@_0BB@JBDOCKKP@Ex_ActionControl@
  00018	50		 push	 eax
  00019	ff d6		 call	 esi

; 1600 : 		pExitAcctInput	= (FpExitAcctInput)::GetProcAddress(m_hLib, "Ex_ExitAcctInput");

  0001b	68 00 00 00 00	 push	 OFFSET ??_C@_0BB@BJKHGLJM@Ex_ExitAcctInput@
  00020	ff 77 04	 push	 DWORD PTR [edi+4]
  00023	89 87 10 01 00
	00		 mov	 DWORD PTR [edi+272], eax
  00029	ff d6		 call	 esi

; 1601 : 
; 1602 : 		pCreateAcctInputList	= (FpCreateAcctInputList)::GetProcAddress(m_hLib, "Ex_CreateAcctInputList");

  0002b	68 00 00 00 00	 push	 OFFSET ??_C@_0BH@GFLEPAJO@Ex_CreateAcctInputList@
  00030	ff 77 04	 push	 DWORD PTR [edi+4]
  00033	89 87 14 01 00
	00		 mov	 DWORD PTR [edi+276], eax
  00039	ff d6		 call	 esi

; 1603 : 		pCreateAcctInputArray	= (FpCreateAcctInputArray)::GetProcAddress(m_hLib, "Ex_CreateAcctInputArray");

  0003b	68 00 00 00 00	 push	 OFFSET ??_C@_0BI@OANAHLLP@Ex_CreateAcctInputArray@
  00040	ff 77 04	 push	 DWORD PTR [edi+4]
  00043	89 87 18 01 00
	00		 mov	 DWORD PTR [edi+280], eax
  00049	ff d6		 call	 esi

; 1604 : 		pCreateAcctInputString	= (FpCreateAcctInputString)::GetProcAddress(m_hLib, "Ex_CreateAcctInputString");

  0004b	68 00 00 00 00	 push	 OFFSET ??_C@_0BJ@ILEHHAOG@Ex_CreateAcctInputString@
  00050	ff 77 04	 push	 DWORD PTR [edi+4]
  00053	89 87 1c 01 00
	00		 mov	 DWORD PTR [edi+284], eax
  00059	ff d6		 call	 esi

; 1605 : 		pCreateAcctInputInt	= (FpCreateAcctInputInt)::GetProcAddress(m_hLib, "Ex_CreateAcctInputInt");

  0005b	68 00 00 00 00	 push	 OFFSET ??_C@_0BG@COJBJNAN@Ex_CreateAcctInputInt@
  00060	ff 77 04	 push	 DWORD PTR [edi+4]
  00063	89 87 20 01 00
	00		 mov	 DWORD PTR [edi+288], eax
  00069	ff d6		 call	 esi

; 1606 : 		pGetBase	= (FpGetBase)::GetProcAddress(m_hLib, "Ex_GetBase");

  0006b	68 00 00 00 00	 push	 OFFSET ??_C@_0L@POODIFLA@Ex_GetBase@
  00070	ff 77 04	 push	 DWORD PTR [edi+4]
  00073	89 87 24 01 00
	00		 mov	 DWORD PTR [edi+292], eax
  00079	ff d6		 call	 esi

; 1607 : 		pSetFocus	= (FpSetFocus)::GetProcAddress(m_hLib, "Ex_SetFocus");

  0007b	68 00 00 00 00	 push	 OFFSET ??_C@_0M@FGDPGBNJ@Ex_SetFocus@
  00080	ff 77 04	 push	 DWORD PTR [edi+4]
  00083	89 87 28 01 00
	00		 mov	 DWORD PTR [edi+296], eax
  00089	ff d6		 call	 esi

; 1608 : 		pGetHWnd	= (FpGetHWnd)::GetProcAddress(m_hLib, "Ex_GetHWnd");

  0008b	68 00 00 00 00	 push	 OFFSET ??_C@_0L@GMPGDLAO@Ex_GetHWnd@
  00090	ff 77 04	 push	 DWORD PTR [edi+4]
  00093	89 87 2c 01 00
	00		 mov	 DWORD PTR [edi+300], eax
  00099	ff d6		 call	 esi

; 1609 : 		pGetSafeHwnd	= (FpGetSafeHwnd)::GetProcAddress(m_hLib, "Ex_GetSafeHwnd");

  0009b	68 00 00 00 00	 push	 OFFSET ??_C@_0P@IGDEMOLK@Ex_GetSafeHwnd@
  000a0	ff 77 04	 push	 DWORD PTR [edi+4]
  000a3	89 87 30 01 00
	00		 mov	 DWORD PTR [edi+304], eax
  000a9	ff d6		 call	 esi

; 1610 : 
; 1611 : 		pSetText	= (FpSetText)::GetProcAddress(m_hLib, "Ex_SetText");

  000ab	68 00 00 00 00	 push	 OFFSET ??_C@_0L@DJFMIDOF@Ex_SetText@
  000b0	ff 77 04	 push	 DWORD PTR [edi+4]
  000b3	89 87 34 01 00
	00		 mov	 DWORD PTR [edi+308], eax
  000b9	ff d6		 call	 esi

; 1612 : 		pGetText	= (FpGetText_OCX)::GetProcAddress(m_hLib, "Ex_GetText");

  000bb	68 00 00 00 00	 push	 OFFSET ??_C@_0L@MBKNLMDE@Ex_GetText@
  000c0	ff 77 04	 push	 DWORD PTR [edi+4]
  000c3	89 87 38 01 00
	00		 mov	 DWORD PTR [edi+312], eax
  000c9	ff d6		 call	 esi

; 1613 : 		pGetDataText	= (FpGetDataText)::GetProcAddress(m_hLib, "Ex_GetDataText");

  000cb	68 00 00 00 00	 push	 OFFSET ??_C@_0P@CICMAGPH@Ex_GetDataText@
  000d0	ff 77 04	 push	 DWORD PTR [edi+4]
  000d3	89 87 3c 01 00
	00		 mov	 DWORD PTR [edi+316], eax
  000d9	ff d6		 call	 esi

; 1614 : 
; 1615 : 		pMoveWindow	= (FpMoveWindow)::GetProcAddress(m_hLib, "Ex_MoveWindow");

  000db	68 00 00 00 00	 push	 OFFSET ??_C@_0O@BLPOCJFK@Ex_MoveWindow@
  000e0	ff 77 04	 push	 DWORD PTR [edi+4]
  000e3	89 87 40 01 00
	00		 mov	 DWORD PTR [edi+320], eax
  000e9	ff d6		 call	 esi

; 1616 : 		pMoveWindow2	= (FpMoveWindow2)::GetProcAddress(m_hLib, "Ex_MoveWindow2");

  000eb	68 00 00 00 00	 push	 OFFSET ??_C@_0P@GGNFBCLC@Ex_MoveWindow2@
  000f0	ff 77 04	 push	 DWORD PTR [edi+4]
  000f3	89 87 44 01 00
	00		 mov	 DWORD PTR [edi+324], eax
  000f9	ff d6		 call	 esi

; 1617 : 		pSetWindowPos	= (FpSetWindowPos)::GetProcAddress(m_hLib, "Ex_SetWindowPos");

  000fb	68 00 00 00 00	 push	 OFFSET ??_C@_0BA@JKDHMPLL@Ex_SetWindowPos@
  00100	ff 77 04	 push	 DWORD PTR [edi+4]
  00103	89 87 48 01 00
	00		 mov	 DWORD PTR [edi+328], eax
  00109	ff d6		 call	 esi

; 1618 : 		pShowWindow	= (FpShowWindow)::GetProcAddress(m_hLib, "Ex_ShowWindow");

  0010b	68 00 00 00 00	 push	 OFFSET ??_C@_0O@DLFPBPJC@Ex_ShowWindow@
  00110	ff 77 04	 push	 DWORD PTR [edi+4]
  00113	89 87 4c 01 00
	00		 mov	 DWORD PTR [edi+332], eax
  00119	ff d6		 call	 esi

; 1619 : 		pGetWindowRect	= (FpGetWindowRect)::GetProcAddress(m_hLib, "Ex_GetWindowRect");

  0011b	68 00 00 00 00	 push	 OFFSET ??_C@_0BB@GBDPECDK@Ex_GetWindowRect@
  00120	ff 77 04	 push	 DWORD PTR [edi+4]
  00123	89 87 50 01 00
	00		 mov	 DWORD PTR [edi+336], eax
  00129	ff d6		 call	 esi

; 1620 : 		pGetClientRect	= (FpGetClientRect)::GetProcAddress(m_hLib, "Ex_GetClientRect");

  0012b	68 00 00 00 00	 push	 OFFSET ??_C@_0BB@BBBBCKHK@Ex_GetClientRect@
  00130	ff 77 04	 push	 DWORD PTR [edi+4]
  00133	89 87 54 01 00
	00		 mov	 DWORD PTR [edi+340], eax
  00139	ff d6		 call	 esi

; 1621 : 
; 1622 : 		pSetEnabled	= (FpSetEnabled)::GetProcAddress(m_hLib, "Ex_SetEnabled");

  0013b	68 00 00 00 00	 push	 OFFSET ??_C@_0O@JKEIHPMI@Ex_SetEnabled@
  00140	ff 77 04	 push	 DWORD PTR [edi+4]
  00143	89 87 58 01 00
	00		 mov	 DWORD PTR [edi+344], eax
  00149	ff d6		 call	 esi

; 1623 : 		pGetEnabled	= (FpGetEnabled)::GetProcAddress(m_hLib, "Ex_GetEnabled");

  0014b	68 00 00 00 00	 push	 OFFSET ??_C@_0O@IEGHMIIB@Ex_GetEnabled@
  00150	ff 77 04	 push	 DWORD PTR [edi+4]
  00153	89 87 5c 01 00
	00		 mov	 DWORD PTR [edi+348], eax
  00159	ff d6		 call	 esi
  0015b	89 87 60 01 00
	00		 mov	 DWORD PTR [edi+352], eax

; 1624 : 		return TRUE;

  00161	b8 01 00 00 00	 mov	 eax, 1
  00166	5e		 pop	 esi
  00167	5f		 pop	 edi

; 1625 : 	}

  00168	c3		 ret	 0
?LoadProcAddress@CLoaderAcctInput@@UAEHXZ ENDP		; CLoaderAcctInput::LoadProcAddress
_TEXT	ENDS
; Function compile flags: /Ogtp
; File D:\git\src\IBK\IBK_DRFN\ProjSrc\SrcDrfn\Chart\ExControl\Include\LoadHelper.h
; File D:\git\src\IBK\IBK_DRFN\ProjSrc\SrcDrfn\Chart\ExControl\Include\BaseLoadHelper.h
; File D:\git\src\IBK\IBK_DRFN\ProjSrc\SrcDrfn\Chart\ExControl\Include\LoadHelper.h
;	COMDAT ??1CLoaderAcctInput@@UAE@XZ
_TEXT	SEGMENT
__$EHRec$ = -12						; size = 12
??1CLoaderAcctInput@@UAE@XZ PROC			; CLoaderAcctInput::~CLoaderAcctInput, COMDAT
; _this$ = ecx

; 1586 : 	{

  00000	55		 push	 ebp
  00001	8b ec		 mov	 ebp, esp
  00003	6a ff		 push	 -1
  00005	68 00 00 00 00	 push	 __ehhandler$??1CLoaderAcctInput@@UAE@XZ
  0000a	64 a1 00 00 00
	00		 mov	 eax, DWORD PTR fs:0
  00010	50		 push	 eax
  00011	56		 push	 esi
  00012	a1 00 00 00 00	 mov	 eax, DWORD PTR ___security_cookie
  00017	33 c5		 xor	 eax, ebp
  00019	50		 push	 eax
  0001a	8d 45 f4	 lea	 eax, DWORD PTR __$EHRec$[ebp]
  0001d	64 a3 00 00 00
	00		 mov	 DWORD PTR fs:0, eax
  00023	8b f1		 mov	 esi, ecx

; 1587 : 		if(m_hLib)

  00025	8b 46 04	 mov	 eax, DWORD PTR [esi+4]
  00028	c7 06 00 00 00
	00		 mov	 DWORD PTR [esi], OFFSET ??_7CLoaderAcctInput@@6B@
  0002e	85 c0		 test	 eax, eax
  00030	74 14		 je	 SHORT $LN2@CLoaderAcc

; 1588 : 			pExitAcctInput(m_lpPointer);

  00032	ff b6 0c 01 00
	00		 push	 DWORD PTR [esi+268]
  00038	8b 86 14 01 00
	00		 mov	 eax, DWORD PTR [esi+276]
  0003e	ff d0		 call	 eax
  00040	8b 46 04	 mov	 eax, DWORD PTR [esi+4]
  00043	83 c4 04	 add	 esp, 4
$LN2@CLoaderAcc:
; File D:\git\src\IBK\IBK_DRFN\ProjSrc\SrcDrfn\Chart\ExControl\Include\BaseLoadHelper.h

; 13   : 	{

  00046	c7 06 00 00 00
	00		 mov	 DWORD PTR [esi], OFFSET ??_7CExLoadLib@@6B@

; 53   : 		if(!m_hLib)

  0004c	85 c0		 test	 eax, eax
  0004e	74 0e		 je	 SHORT $LN6@CLoaderAcc

; 54   : 			return TRUE;
; 55   : 
; 56   : 		BOOL bResult = ::FreeLibrary(m_hLib);

  00050	50		 push	 eax
  00051	ff 15 00 00 00
	00		 call	 DWORD PTR __imp__FreeLibrary@4

; 57   : 		
; 58   : 		m_hLib = NULL;

  00057	c7 46 04 00 00
	00 00		 mov	 DWORD PTR [esi+4], 0
$LN6@CLoaderAcc:
; File D:\git\src\IBK\IBK_DRFN\ProjSrc\SrcDrfn\Chart\ExControl\Include\LoadHelper.h

; 1589 : 	}

  0005e	8b 4d f4	 mov	 ecx, DWORD PTR __$EHRec$[ebp]
  00061	64 89 0d 00 00
	00 00		 mov	 DWORD PTR fs:0, ecx
  00068	59		 pop	 ecx
  00069	5e		 pop	 esi
  0006a	8b e5		 mov	 esp, ebp
  0006c	5d		 pop	 ebp
  0006d	c3		 ret	 0
  0006e	cc		 int	 3
  0006f	cc		 int	 3
  00070	cc		 int	 3
  00071	cc		 int	 3
  00072	cc		 int	 3
_TEXT	ENDS
;	COMDAT text$x
text$x	SEGMENT
__ehhandler$??1CLoaderAcctInput@@UAE@XZ:
  00000	90		 npad	 1
  00001	90		 npad	 1
  00002	8b 54 24 08	 mov	 edx, DWORD PTR [esp+8]
  00006	8d 42 0c	 lea	 eax, DWORD PTR [edx+12]
  00009	8b 4a f8	 mov	 ecx, DWORD PTR [edx-8]
  0000c	33 c8		 xor	 ecx, eax
  0000e	e8 00 00 00 00	 call	 @__security_check_cookie@4
  00013	b8 00 00 00 00	 mov	 eax, OFFSET __ehfuncinfo$??1CLoaderAcctInput@@UAE@XZ
  00018	e9 00 00 00 00	 jmp	 ___CxxFrameHandler3
text$x	ENDS
??1CLoaderAcctInput@@UAE@XZ ENDP			; CLoaderAcctInput::~CLoaderAcctInput
; Function compile flags: /Ogtp
; File D:\git\src\IBK\IBK_DRFN\ProjSrc\SrcDrfn\Chart\ExControl\Include\LoadHelper.h
; File D:\git\src\IBK\IBK_DRFN\ProjSrc\SrcDrfn\Chart\ExControl\Include\BaseLoadHelper.h
; File D:\git\src\IBK\IBK_DRFN\ProjSrc\SrcDrfn\Chart\ExControl\Include\LoadHelper.h
; File D:\git\src\IBK\IBK_DRFN\ProjSrc\SrcDrfn\ForSite\FS_Env.h
; File D:\git\src\IBK\IBK_DRFN\ProjSrc\SrcDrfn\Chart\ExControl\Include\LoadHelper.h
; File D:\git\src\IBK\IBK_DRFN\ProjSrc\SrcDrfn\Chart\ExControl\Include\BaseLoadHelper.h
; File D:\git\src\IBK\IBK_DRFN\ProjSrc\SrcDrfn\Chart\ExControl\Include\LoadHelper.h
; File D:\git\src\IBK\IBK_DRFN\ProjSrc\SrcDrfn\Chart\ExControl\Include\BaseLoadHelper.h
; File D:\git\src\IBK\IBK_DRFN\ProjSrc\SrcDrfn\Chart\ExControl\Include\LoadHelper.h
;	COMDAT ??0CLoaderAcctInput@@QAE@PAXPBD@Z
_TEXT	SEGMENT
_this$GSCopy$ = -292					; size = 4
_szDir$ = -288						; size = 4
_err$1$ = -284						; size = 4
$T2 = -284						; size = 4
$T3 = -284						; size = 4
_this$ = -284						; size = 4
__strRoot_$4 = -280					; size = 4
_szMsg$5 = -276						; size = 260
_szBuf$6 = -272						; size = 255
__$ArrayPad$7 = -16					; size = 4
__$EHRec$ = -12						; size = 12
_lpPointer$ = 8						; size = 4
_lpszRootPath$ = 12					; size = 4
??0CLoaderAcctInput@@QAE@PAXPBD@Z PROC			; CLoaderAcctInput::CLoaderAcctInput, COMDAT
; _this$ = ecx

; 1534 : 	CLoaderAcctInput(LPVOID lpPointer, LPCSTR lpszRootPath = NULL) 

  00000	55		 push	 ebp
  00001	8b ec		 mov	 ebp, esp
  00003	6a ff		 push	 -1
  00005	68 00 00 00 00	 push	 __ehhandler$??0CLoaderAcctInput@@QAE@PAXPBD@Z
  0000a	64 a1 00 00 00
	00		 mov	 eax, DWORD PTR fs:0
  00010	50		 push	 eax
  00011	81 ec 18 01 00
	00		 sub	 esp, 280		; 00000118H
  00017	a1 00 00 00 00	 mov	 eax, DWORD PTR ___security_cookie
  0001c	33 c5		 xor	 eax, ebp
  0001e	89 45 f0	 mov	 DWORD PTR __$ArrayPad$7[ebp], eax
  00021	53		 push	 ebx
  00022	56		 push	 esi
  00023	57		 push	 edi
  00024	50		 push	 eax
  00025	8d 45 f4	 lea	 eax, DWORD PTR __$EHRec$[ebp]
  00028	64 a3 00 00 00
	00		 mov	 DWORD PTR fs:0, eax
  0002e	8b f1		 mov	 esi, ecx
  00030	89 b5 e4 fe ff
	ff		 mov	 DWORD PTR _this$[ebp], esi
  00036	89 b5 dc fe ff
	ff		 mov	 DWORD PTR _this$GSCopy$[ebp], esi
; File D:\git\src\IBK\IBK_DRFN\ProjSrc\SrcDrfn\Chart\ExControl\Include\BaseLoadHelper.h

; 9    : 		m_hLib = NULL;

  0003c	c7 46 04 00 00
	00 00		 mov	 DWORD PTR [esi+4], 0
; File D:\git\src\IBK\IBK_DRFN\ProjSrc\SrcDrfn\Chart\ExControl\Include\LoadHelper.h

; 1550 : 		CString szDir;

  00043	8d 8d e0 fe ff
	ff		 lea	 ecx, DWORD PTR _szDir$[ebp]
  00049	c7 45 fc 00 00
	00 00		 mov	 DWORD PTR __$EHRec$[ebp+8], 0
  00050	c7 06 00 00 00
	00		 mov	 DWORD PTR [esi], OFFSET ??_7CLoaderAcctInput@@6B@
  00056	ff 15 00 00 00
	00		 call	 DWORD PTR __imp_??0?$CStringT@DV?$StrTraitMFC_DLL@DV?$ChTraitsCRT@D@ATL@@@@@ATL@@QAE@XZ
; File D:\git\src\IBK\IBK_DRFN\ProjSrc\SrcDrfn\ForSite\FS_Env.h

; 22   : 	CString	_strRoot_;

  0005c	8d 8d e8 fe ff
	ff		 lea	 ecx, DWORD PTR __strRoot_$4[ebp]
  00062	ff 15 00 00 00
	00		 call	 DWORD PTR __imp_??0?$CStringT@DV?$StrTraitMFC_DLL@DV?$ChTraitsCRT@D@ATL@@@@@ATL@@QAE@XZ

; 15   : 	::GetModuleFileName(NULL, szBuf, 255);

  00068	68 ff 00 00 00	 push	 255			; 000000ffH
  0006d	8d 85 f0 fe ff
	ff		 lea	 eax, DWORD PTR _szBuf$6[ebp]

; 22   : 	CString	_strRoot_;

  00073	c6 45 fc 02	 mov	 BYTE PTR __$EHRec$[ebp+8], 2

; 15   : 	::GetModuleFileName(NULL, szBuf, 255);

  00077	50		 push	 eax
  00078	6a 00		 push	 0
  0007a	ff 15 00 00 00
	00		 call	 DWORD PTR __imp__GetModuleFileNameA@12

; 16   : 	rString = szBuf;

  00080	8d 85 f0 fe ff
	ff		 lea	 eax, DWORD PTR _szBuf$6[ebp]
  00086	50		 push	 eax
  00087	8d 8d e8 fe ff
	ff		 lea	 ecx, DWORD PTR __strRoot_$4[ebp]
  0008d	ff 15 00 00 00
	00		 call	 DWORD PTR __imp_??4?$CStringT@DV?$StrTraitMFC_DLL@DV?$ChTraitsCRT@D@ATL@@@@@ATL@@QAEAAV01@PBD@Z

; 25   : 	int _loc_ = _strRoot_.ReverseFind('\\');

  00093	6a 5c		 push	 92			; 0000005cH
  00095	8d 8d e8 fe ff
	ff		 lea	 ecx, DWORD PTR __strRoot_$4[ebp]
  0009b	ff 15 00 00 00
	00		 call	 DWORD PTR __imp_?ReverseFind@?$CStringT@DV?$StrTraitMFC_DLL@DV?$ChTraitsCRT@D@ATL@@@@@ATL@@QBEHD@Z

; 26   : 	if( _loc_ > 0)

  000a1	85 c0		 test	 eax, eax
  000a3	7e 35		 jle	 SHORT $LN10@CLoaderAcc

; 27   : 		_strRoot_ = _strRoot_.Left(_loc_);

  000a5	50		 push	 eax
  000a6	8d 85 e4 fe ff
	ff		 lea	 eax, DWORD PTR $T3[ebp]
  000ac	50		 push	 eax
  000ad	8d 8d e8 fe ff
	ff		 lea	 ecx, DWORD PTR __strRoot_$4[ebp]
  000b3	ff 15 00 00 00
	00		 call	 DWORD PTR __imp_?Left@?$CStringT@DV?$StrTraitMFC_DLL@DV?$ChTraitsCRT@D@ATL@@@@@ATL@@QBE?AV12@H@Z
  000b9	50		 push	 eax
  000ba	8d 8d e8 fe ff
	ff		 lea	 ecx, DWORD PTR __strRoot_$4[ebp]
  000c0	c6 45 fc 03	 mov	 BYTE PTR __$EHRec$[ebp+8], 3
  000c4	ff 15 00 00 00
	00		 call	 DWORD PTR __imp_??4?$CStringT@DV?$StrTraitMFC_DLL@DV?$ChTraitsCRT@D@ATL@@@@@ATL@@QAEAAV01@ABV01@@Z
  000ca	8d 8d e4 fe ff
	ff		 lea	 ecx, DWORD PTR $T3[ebp]
  000d0	c6 45 fc 02	 mov	 BYTE PTR __$EHRec$[ebp+8], 2
  000d4	ff 15 00 00 00
	00		 call	 DWORD PTR __imp_??1?$CStringT@DV?$StrTraitMFC_DLL@DV?$ChTraitsCRT@D@ATL@@@@@ATL@@QAE@XZ
$LN10@CLoaderAcc:

; 28   : 	_loc_ = _strRoot_.ReverseFind('\\');

  000da	6a 5c		 push	 92			; 0000005cH
  000dc	8d 8d e8 fe ff
	ff		 lea	 ecx, DWORD PTR __strRoot_$4[ebp]
  000e2	ff 15 00 00 00
	00		 call	 DWORD PTR __imp_?ReverseFind@?$CStringT@DV?$StrTraitMFC_DLL@DV?$ChTraitsCRT@D@ATL@@@@@ATL@@QBEHD@Z

; 29   : 	if( _loc_ > 0)

  000e8	85 c0		 test	 eax, eax
  000ea	7e 35		 jle	 SHORT $LN11@CLoaderAcc

; 30   : 		_strRoot_ = _strRoot_.Left(_loc_);

  000ec	50		 push	 eax
  000ed	8d 85 e4 fe ff
	ff		 lea	 eax, DWORD PTR $T2[ebp]
  000f3	50		 push	 eax
  000f4	8d 8d e8 fe ff
	ff		 lea	 ecx, DWORD PTR __strRoot_$4[ebp]
  000fa	ff 15 00 00 00
	00		 call	 DWORD PTR __imp_?Left@?$CStringT@DV?$StrTraitMFC_DLL@DV?$ChTraitsCRT@D@ATL@@@@@ATL@@QBE?AV12@H@Z
  00100	50		 push	 eax
  00101	8d 8d e8 fe ff
	ff		 lea	 ecx, DWORD PTR __strRoot_$4[ebp]
  00107	c6 45 fc 04	 mov	 BYTE PTR __$EHRec$[ebp+8], 4
  0010b	ff 15 00 00 00
	00		 call	 DWORD PTR __imp_??4?$CStringT@DV?$StrTraitMFC_DLL@DV?$ChTraitsCRT@D@ATL@@@@@ATL@@QAEAAV01@ABV01@@Z
  00111	8d 8d e4 fe ff
	ff		 lea	 ecx, DWORD PTR $T2[ebp]
  00117	c6 45 fc 02	 mov	 BYTE PTR __$EHRec$[ebp+8], 2
  0011b	ff 15 00 00 00
	00		 call	 DWORD PTR __imp_??1?$CStringT@DV?$StrTraitMFC_DLL@DV?$ChTraitsCRT@D@ATL@@@@@ATL@@QAE@XZ
$LN11@CLoaderAcc:

; 31   : 	rString = _strRoot_;

  00121	8d 85 e8 fe ff
	ff		 lea	 eax, DWORD PTR __strRoot_$4[ebp]
  00127	50		 push	 eax
  00128	8d 8d e0 fe ff
	ff		 lea	 ecx, DWORD PTR _szDir$[ebp]
  0012e	ff 15 00 00 00
	00		 call	 DWORD PTR __imp_??4?$CStringT@DV?$StrTraitMFC_DLL@DV?$ChTraitsCRT@D@ATL@@@@@ATL@@QAEAAV01@ABV01@@Z

; 32   : }

  00134	8d 8d e8 fe ff
	ff		 lea	 ecx, DWORD PTR __strRoot_$4[ebp]
  0013a	c6 45 fc 01	 mov	 BYTE PTR __$EHRec$[ebp+8], 1
  0013e	ff 15 00 00 00
	00		 call	 DWORD PTR __imp_??1?$CStringT@DV?$StrTraitMFC_DLL@DV?$ChTraitsCRT@D@ATL@@@@@ATL@@QAE@XZ

; 47   : 	rString += "\\Dev";

  00144	68 00 00 00 00	 push	 OFFSET ??_C@_04OHDBDCPJ@?2Dev@
  00149	8d 8d e0 fe ff
	ff		 lea	 ecx, DWORD PTR _szDir$[ebp]
  0014f	ff 15 00 00 00
	00		 call	 DWORD PTR __imp_??Y?$CStringT@DV?$StrTraitMFC_DLL@DV?$ChTraitsCRT@D@ATL@@@@@ATL@@QAEAAV01@PBD@Z
; File D:\git\src\IBK\IBK_DRFN\ProjSrc\SrcDrfn\Chart\ExControl\Include\LoadHelper.h

; 1552 : 		::sprintf(m_szDllName, "%s\\%s", (LPCSTR)szDir, ACCTINPUT_DLL);

  00155	68 00 00 00 00	 push	 OFFSET ??_C@_0BA@MGIDAGLK@ExAcctInput?4dll@
  0015a	ff b5 e0 fe ff
	ff		 push	 DWORD PTR _szDir$[ebp]
  00160	8d 7e 08	 lea	 edi, DWORD PTR [esi+8]
  00163	68 00 00 00 00	 push	 OFFSET ??_C@_05BMGBEOOC@?$CFs?2?$CFs@
  00168	57		 push	 edi
  00169	e8 00 00 00 00	 call	 _sprintf

; 1553 : 		//<--Solomon-090829수정..
; 1554 : 
; 1555 : 		m_lpPointer = lpPointer;		// 초기화를 하기위해 임시로 저장

  0016e	8b 45 08	 mov	 eax, DWORD PTR _lpPointer$[ebp]
  00171	83 c4 10	 add	 esp, 16			; 00000010H
  00174	89 86 0c 01 00
	00		 mov	 DWORD PTR [esi+268], eax

; 1556 : 
; 1557 : 		pActionControl = NULL;

  0017a	c7 86 10 01 00
	00 00 00 00 00	 mov	 DWORD PTR [esi+272], 0

; 1558 : 		pExitAcctInput = NULL;

  00184	c7 86 14 01 00
	00 00 00 00 00	 mov	 DWORD PTR [esi+276], 0
; File D:\git\src\IBK\IBK_DRFN\ProjSrc\SrcDrfn\Chart\ExControl\Include\BaseLoadHelper.h

; 26   : 		hLib = ::LoadLibrary(m_szDllName);

  0018e	57		 push	 edi
; File D:\git\src\IBK\IBK_DRFN\ProjSrc\SrcDrfn\Chart\ExControl\Include\LoadHelper.h

; 1561 : 		pCreateAcctInputArray = NULL;

  0018f	c7 86 1c 01 00
	00 00 00 00 00	 mov	 DWORD PTR [esi+284], 0

; 1562 : 		pCreateAcctInputString = NULL;

  00199	c7 86 20 01 00
	00 00 00 00 00	 mov	 DWORD PTR [esi+288], 0

; 1563 : 		pCreateAcctInputList = NULL;

  001a3	c7 86 18 01 00
	00 00 00 00 00	 mov	 DWORD PTR [esi+280], 0

; 1564 : 		pGetBase = NULL;

  001ad	c7 86 28 01 00
	00 00 00 00 00	 mov	 DWORD PTR [esi+296], 0

; 1565 : 		pSetFocus = NULL;

  001b7	c7 86 2c 01 00
	00 00 00 00 00	 mov	 DWORD PTR [esi+300], 0

; 1566 : 		pGetHWnd = NULL;

  001c1	c7 86 30 01 00
	00 00 00 00 00	 mov	 DWORD PTR [esi+304], 0

; 1567 : 		pGetSafeHwnd = NULL;

  001cb	c7 86 34 01 00
	00 00 00 00 00	 mov	 DWORD PTR [esi+308], 0

; 1568 : 		pSetText = NULL;

  001d5	c7 86 38 01 00
	00 00 00 00 00	 mov	 DWORD PTR [esi+312], 0

; 1569 : 		pGetText = NULL;

  001df	c7 86 3c 01 00
	00 00 00 00 00	 mov	 DWORD PTR [esi+316], 0

; 1570 : 		pGetDataText = NULL;

  001e9	c7 86 40 01 00
	00 00 00 00 00	 mov	 DWORD PTR [esi+320], 0

; 1571 : 
; 1572 : 		pMoveWindow = NULL;

  001f3	c7 86 44 01 00
	00 00 00 00 00	 mov	 DWORD PTR [esi+324], 0

; 1573 : 		pMoveWindow2 = NULL;

  001fd	c7 86 48 01 00
	00 00 00 00 00	 mov	 DWORD PTR [esi+328], 0

; 1574 : 		pSetWindowPos = NULL;

  00207	c7 86 4c 01 00
	00 00 00 00 00	 mov	 DWORD PTR [esi+332], 0

; 1575 : 		pShowWindow = NULL;

  00211	c7 86 50 01 00
	00 00 00 00 00	 mov	 DWORD PTR [esi+336], 0

; 1576 : 		pGetWindowRect = NULL;

  0021b	c7 86 54 01 00
	00 00 00 00 00	 mov	 DWORD PTR [esi+340], 0

; 1577 : 		pGetClientRect = NULL;

  00225	c7 86 58 01 00
	00 00 00 00 00	 mov	 DWORD PTR [esi+344], 0

; 1578 : 
; 1579 : 		pSetEnabled = NULL;

  0022f	c7 86 5c 01 00
	00 00 00 00 00	 mov	 DWORD PTR [esi+348], 0

; 1580 : 		pGetEnabled = NULL;

  00239	c7 86 60 01 00
	00 00 00 00 00	 mov	 DWORD PTR [esi+352], 0
; File D:\git\src\IBK\IBK_DRFN\ProjSrc\SrcDrfn\Chart\ExControl\Include\BaseLoadHelper.h

; 26   : 		hLib = ::LoadLibrary(m_szDllName);

  00243	ff 15 00 00 00
	00		 call	 DWORD PTR __imp__LoadLibraryA@4
  00249	8b d8		 mov	 ebx, eax

; 27   : 
; 28   : 		DWORD err = GetLastError();

  0024b	ff 15 00 00 00
	00		 call	 DWORD PTR __imp__GetLastError@0
  00251	89 85 e4 fe ff
	ff		 mov	 DWORD PTR _err$1$[ebp], eax

; 29   : 
; 30   : 		if(!hLib) 

  00257	85 db		 test	 ebx, ebx
  00259	75 3d		 jne	 SHORT $LN21@CLoaderAcc

; 31   : 		{
; 32   : 			char szMsg[MAX_PATH] = {0, };

  0025b	68 04 01 00 00	 push	 260			; 00000104H
  00260	8d 85 ec fe ff
	ff		 lea	 eax, DWORD PTR _szMsg$5[ebp]
  00266	53		 push	 ebx
  00267	50		 push	 eax
  00268	e8 00 00 00 00	 call	 _memset

; 33   : 			::sprintf(szMsg, "DLL[%s]을 Load할 수 없습니다. [%d]", m_szDllName, err);

  0026d	ff b5 e4 fe ff
	ff		 push	 DWORD PTR _err$1$[ebp]
  00273	8d 85 ec fe ff
	ff		 lea	 eax, DWORD PTR _szMsg$5[ebp]
  00279	57		 push	 edi
  0027a	68 00 00 00 00	 push	 OFFSET ??_C@_0CD@INEDAMEN@DLL?$FL?$CFs?$FN?$MA?$LL?5Load?G?R?5?$LM?v?5?$LO?x?$LN?$MA?$LE?O?$LE?Y?4?5?$FL@
  0027f	50		 push	 eax
  00280	e8 00 00 00 00	 call	 _sprintf
  00285	83 c4 1c	 add	 esp, 28			; 0000001cH

; 34   : 			AfxMessageBox(szMsg);

  00288	8d 85 ec fe ff
	ff		 lea	 eax, DWORD PTR _szMsg$5[ebp]
  0028e	53		 push	 ebx
  0028f	53		 push	 ebx
  00290	50		 push	 eax
  00291	e8 00 00 00 00	 call	 ?AfxMessageBox@@YGHPBDII@Z ; AfxMessageBox

; 35   : 
; 36   : 			return NULL;

  00296	eb 32		 jmp	 SHORT $LN29@CLoaderAcc
$LN21@CLoaderAcc:

; 37   : 		}
; 38   : 
; 39   : 		m_hLib = hLib;
; 40   : 
; 41   : 		if(!LoadProcAddress()) 

  00298	8b 06		 mov	 eax, DWORD PTR [esi]
  0029a	8b ce		 mov	 ecx, esi
  0029c	89 5e 04	 mov	 DWORD PTR [esi+4], ebx
  0029f	8b 00		 mov	 eax, DWORD PTR [eax]
  002a1	3d 00 00 00 00	 cmp	 eax, OFFSET ?LoadProcAddress@CLoaderAcctInput@@UAEHXZ ; CLoaderAcctInput::LoadProcAddress
  002a6	75 07		 jne	 SHORT $LN25@CLoaderAcc
  002a8	e8 00 00 00 00	 call	 ?LoadProcAddress@CLoaderAcctInput@@UAEHXZ ; CLoaderAcctInput::LoadProcAddress
  002ad	eb 02		 jmp	 SHORT $LN24@CLoaderAcc
$LN25@CLoaderAcc:
  002af	ff d0		 call	 eax
$LN24@CLoaderAcc:
  002b1	85 c0		 test	 eax, eax
  002b3	75 15		 jne	 SHORT $LN29@CLoaderAcc

; 53   : 		if(!m_hLib)

  002b5	8b 4e 04	 mov	 ecx, DWORD PTR [esi+4]
  002b8	85 c9		 test	 ecx, ecx
  002ba	74 0e		 je	 SHORT $LN29@CLoaderAcc

; 54   : 			return TRUE;
; 55   : 
; 56   : 		BOOL bResult = ::FreeLibrary(m_hLib);

  002bc	51		 push	 ecx
  002bd	ff 15 00 00 00
	00		 call	 DWORD PTR __imp__FreeLibrary@4

; 57   : 		
; 58   : 		m_hLib = NULL;

  002c3	c7 46 04 00 00
	00 00		 mov	 DWORD PTR [esi+4], 0
$LN29@CLoaderAcc:
; File D:\git\src\IBK\IBK_DRFN\ProjSrc\SrcDrfn\Chart\ExControl\Include\LoadHelper.h

; 1583 : 	}

  002ca	8d 8d e0 fe ff
	ff		 lea	 ecx, DWORD PTR _szDir$[ebp]
  002d0	ff 15 00 00 00
	00		 call	 DWORD PTR __imp_??1?$CStringT@DV?$StrTraitMFC_DLL@DV?$ChTraitsCRT@D@ATL@@@@@ATL@@QAE@XZ
  002d6	8b c6		 mov	 eax, esi
  002d8	8b 4d f4	 mov	 ecx, DWORD PTR __$EHRec$[ebp]
  002db	64 89 0d 00 00
	00 00		 mov	 DWORD PTR fs:0, ecx
  002e2	59		 pop	 ecx
  002e3	5f		 pop	 edi
  002e4	5e		 pop	 esi
  002e5	5b		 pop	 ebx
  002e6	8b 4d f0	 mov	 ecx, DWORD PTR __$ArrayPad$7[ebp]
  002e9	33 cd		 xor	 ecx, ebp
  002eb	e8 00 00 00 00	 call	 @__security_check_cookie@4
  002f0	8b e5		 mov	 esp, ebp
  002f2	5d		 pop	 ebp
  002f3	c2 08 00	 ret	 8
_TEXT	ENDS
;	COMDAT text$x
text$x	SEGMENT
__unwindfunclet$??0CLoaderAcctInput@@QAE@PAXPBD@Z$0:
  00000	8b 8d dc fe ff
	ff		 mov	 ecx, DWORD PTR _this$GSCopy$[ebp]
  00006	e9 00 00 00 00	 jmp	 ??1CExLoadLib@@QAE@XZ	; CExLoadLib::~CExLoadLib
__unwindfunclet$??0CLoaderAcctInput@@QAE@PAXPBD@Z$1:
  0000b	8d 8d e0 fe ff
	ff		 lea	 ecx, DWORD PTR _szDir$[ebp]
  00011	ff 25 00 00 00
	00		 jmp	 DWORD PTR __imp_??1?$CStringT@DV?$StrTraitMFC_DLL@DV?$ChTraitsCRT@D@ATL@@@@@ATL@@QAE@XZ
__unwindfunclet$??0CLoaderAcctInput@@QAE@PAXPBD@Z$2:
  00017	8d 8d e8 fe ff
	ff		 lea	 ecx, DWORD PTR __strRoot_$4[ebp]
  0001d	ff 25 00 00 00
	00		 jmp	 DWORD PTR __imp_??1?$CStringT@DV?$StrTraitMFC_DLL@DV?$ChTraitsCRT@D@ATL@@@@@ATL@@QAE@XZ
__unwindfunclet$??0CLoaderAcctInput@@QAE@PAXPBD@Z$3:
  00023	8d 8d e4 fe ff
	ff		 lea	 ecx, DWORD PTR $T3[ebp]
  00029	ff 25 00 00 00
	00		 jmp	 DWORD PTR __imp_??1?$CStringT@DV?$StrTraitMFC_DLL@DV?$ChTraitsCRT@D@ATL@@@@@ATL@@QAE@XZ
__unwindfunclet$??0CLoaderAcctInput@@QAE@PAXPBD@Z$4:
  0002f	8d 8d e4 fe ff
	ff		 lea	 ecx, DWORD PTR $T2[ebp]
  00035	ff 25 00 00 00
	00		 jmp	 DWORD PTR __imp_??1?$CStringT@DV?$StrTraitMFC_DLL@DV?$ChTraitsCRT@D@ATL@@@@@ATL@@QAE@XZ
  0003b	cc		 int	 3
  0003c	cc		 int	 3
  0003d	cc		 int	 3
  0003e	cc		 int	 3
  0003f	cc		 int	 3
__ehhandler$??0CLoaderAcctInput@@QAE@PAXPBD@Z:
  00040	90		 npad	 1
  00041	90		 npad	 1
  00042	8b 54 24 08	 mov	 edx, DWORD PTR [esp+8]
  00046	8d 42 0c	 lea	 eax, DWORD PTR [edx+12]
  00049	8b 8a d8 fe ff
	ff		 mov	 ecx, DWORD PTR [edx-296]
  0004f	33 c8		 xor	 ecx, eax
  00051	e8 00 00 00 00	 call	 @__security_check_cookie@4
  00056	8b 4a fc	 mov	 ecx, DWORD PTR [edx-4]
  00059	33 c8		 xor	 ecx, eax
  0005b	e8 00 00 00 00	 call	 @__security_check_cookie@4
  00060	b8 00 00 00 00	 mov	 eax, OFFSET __ehfuncinfo$??0CLoaderAcctInput@@QAE@PAXPBD@Z
  00065	e9 00 00 00 00	 jmp	 ___CxxFrameHandler3
text$x	ENDS
??0CLoaderAcctInput@@QAE@PAXPBD@Z ENDP			; CLoaderAcctInput::CLoaderAcctInput
; Function compile flags: /Ogtp
; File D:\git\src\IBK\IBK_DRFN\ProjSrc\SrcDrfn\Chart\ExControl\Include\BaseLoadHelper.h
;	COMDAT ?LoadProcAddress@CExLoadLib@@UAEHXZ
_TEXT	SEGMENT
?LoadProcAddress@CExLoadLib@@UAEHXZ PROC		; CExLoadLib::LoadProcAddress, COMDAT
; _this$ = ecx

; 19   : 		ASSERT(FALSE); 
; 20   : 		return FALSE;

  00000	33 c0		 xor	 eax, eax

; 21   : 	}

  00002	c3		 ret	 0
?LoadProcAddress@CExLoadLib@@UAEHXZ ENDP		; CExLoadLib::LoadProcAddress
_TEXT	ENDS
; Function compile flags: /Ogtp
; File D:\git\src\IBK\IBK_DRFN\ProjSrc\SrcDrfn\Chart\ExControl\Include\BaseLoadHelper.h
;	COMDAT ??1CExLoadLib@@QAE@XZ
_TEXT	SEGMENT
??1CExLoadLib@@QAE@XZ PROC				; CExLoadLib::~CExLoadLib, COMDAT
; _this$ = ecx

; 13   : 	{

  00000	56		 push	 esi
  00001	8b f1		 mov	 esi, ecx

; 53   : 		if(!m_hLib)

  00003	8b 46 04	 mov	 eax, DWORD PTR [esi+4]

; 13   : 	{

  00006	c7 06 00 00 00
	00		 mov	 DWORD PTR [esi], OFFSET ??_7CExLoadLib@@6B@

; 53   : 		if(!m_hLib)

  0000c	85 c0		 test	 eax, eax
  0000e	74 0e		 je	 SHORT $LN3@CExLoadLib

; 54   : 			return TRUE;
; 55   : 
; 56   : 		BOOL bResult = ::FreeLibrary(m_hLib);

  00010	50		 push	 eax
  00011	ff 15 00 00 00
	00		 call	 DWORD PTR __imp__FreeLibrary@4

; 57   : 		
; 58   : 		m_hLib = NULL;

  00017	c7 46 04 00 00
	00 00		 mov	 DWORD PTR [esi+4], 0
$LN3@CExLoadLib:
  0001e	5e		 pop	 esi

; 14   : 		UnLoadLib();
; 15   : 	}

  0001f	c3		 ret	 0
??1CExLoadLib@@QAE@XZ ENDP				; CExLoadLib::~CExLoadLib
_TEXT	ENDS
; Function compile flags: /Ogtp
; File D:\git\src\IBK\IBK_DRFN\ProjSrc\SrcDrfn\Inc\IBaseDefine.h
;	COMDAT ??__ERMSG_SETPCTRDATA@@YAXXZ
text$di	SEGMENT
??__ERMSG_SETPCTRDATA@@YAXXZ PROC			; `dynamic initializer for 'RMSG_SETPCTRDATA'', COMDAT

; 172  : const UINT RMSG_SETPCTRDATA = ::RegisterWindowMessage("RMSG_SETPCTRDATA");

  00000	68 00 00 00 00	 push	 OFFSET ??_C@_0BB@JPACFCL@RMSG_SETPCTRDATA@
  00005	ff 15 00 00 00
	00		 call	 DWORD PTR __imp__RegisterWindowMessageA@4
  0000b	a3 00 00 00 00	 mov	 DWORD PTR ?RMSG_SETPCTRDATA@@3IB, eax
  00010	c3		 ret	 0
??__ERMSG_SETPCTRDATA@@YAXXZ ENDP			; `dynamic initializer for 'RMSG_SETPCTRDATA''
text$di	ENDS
; Function compile flags: /Ogtp
; File D:\git\src\IBK\IBK_DRFN\ProjSrc\SrcDrfn\Inc\IBaseDefine.h
;	COMDAT ??__ERMSG_GETPCTRDATA@@YAXXZ
text$di	SEGMENT
??__ERMSG_GETPCTRDATA@@YAXXZ PROC			; `dynamic initializer for 'RMSG_GETPCTRDATA'', COMDAT

; 171  : const UINT RMSG_GETPCTRDATA = ::RegisterWindowMessage("RMSG_GETPCTRDATA");

  00000	68 00 00 00 00	 push	 OFFSET ??_C@_0BB@GOOPDKI@RMSG_GETPCTRDATA@
  00005	ff 15 00 00 00
	00		 call	 DWORD PTR __imp__RegisterWindowMessageA@4
  0000b	a3 00 00 00 00	 mov	 DWORD PTR ?RMSG_GETPCTRDATA@@3IB, eax
  00010	c3		 ret	 0
??__ERMSG_GETPCTRDATA@@YAXXZ ENDP			; `dynamic initializer for 'RMSG_GETPCTRDATA''
text$di	ENDS
; Function compile flags: /Ogtp
; File D:\git\src\IBK\IBK_DRFN\ProjSrc\SrcDrfn\Inc\IBaseDefine.h
;	COMDAT ??__ERMSG_INTERFACE@@YAXXZ
text$di	SEGMENT
??__ERMSG_INTERFACE@@YAXXZ PROC				; `dynamic initializer for 'RMSG_INTERFACE'', COMDAT

; 170  : const UINT RMSG_INTERFACE = ::RegisterWindowMessage("RMSG_INTERFACE");

  00000	68 00 00 00 00	 push	 OFFSET ??_C@_0P@BKKCOCLK@RMSG_INTERFACE@
  00005	ff 15 00 00 00
	00		 call	 DWORD PTR __imp__RegisterWindowMessageA@4
  0000b	a3 00 00 00 00	 mov	 DWORD PTR ?RMSG_INTERFACE@@3IB, eax
  00010	c3		 ret	 0
??__ERMSG_INTERFACE@@YAXXZ ENDP				; `dynamic initializer for 'RMSG_INTERFACE''
text$di	ENDS
; Function compile flags: /Ogtp
; File D:\git\src\IBK\IBK_DRFN\ProjSrc\SrcDrfn\Chart\ExControl\ExAcctInput.cpp
; File D:\git\src\IBK\IBK_DRFN\ProjSrc\SrcDrfn\Inc\ExAcctInput.h
;	COMDAT ??_GCExAcctInput@@UAEPAXI@Z
_TEXT	SEGMENT
__$EHRec$ = -12						; size = 12
___flags$ = 8						; size = 4
??_GCExAcctInput@@UAEPAXI@Z PROC			; CExAcctInput::`scalar deleting destructor', COMDAT
; _this$ = ecx
  00000	55		 push	 ebp
  00001	8b ec		 mov	 ebp, esp
  00003	6a ff		 push	 -1
  00005	68 00 00 00 00	 push	 __ehhandler$??_GCExAcctInput@@UAEPAXI@Z
  0000a	64 a1 00 00 00
	00		 mov	 eax, DWORD PTR fs:0
  00010	50		 push	 eax
  00011	56		 push	 esi
  00012	a1 00 00 00 00	 mov	 eax, DWORD PTR ___security_cookie
  00017	33 c5		 xor	 eax, ebp
  00019	50		 push	 eax
  0001a	8d 45 f4	 lea	 eax, DWORD PTR __$EHRec$[ebp]
  0001d	64 a3 00 00 00
	00		 mov	 DWORD PTR fs:0, eax
  00023	8b f1		 mov	 esi, ecx
; File D:\git\src\IBK\IBK_DRFN\ProjSrc\SrcDrfn\Chart\ExControl\ExAcctInput.cpp

; 217  : 	delete m_pLoader;

  00025	8b 4e 04	 mov	 ecx, DWORD PTR [esi+4]
  00028	c7 06 00 00 00
	00		 mov	 DWORD PTR [esi], OFFSET ??_7CExAcctInput@@6B@
  0002e	85 c9		 test	 ecx, ecx
  00030	74 07		 je	 SHORT $LN6@scalar
  00032	8b 01		 mov	 eax, DWORD PTR [ecx]
  00034	6a 01		 push	 1
  00036	ff 50 04	 call	 DWORD PTR [eax+4]
$LN6@scalar:
; File D:\git\src\IBK\IBK_DRFN\ProjSrc\SrcDrfn\Inc\ExAcctInput.h

; 200  : 		~CX2000BaseDesk() { if(m_pDisp) m_pDisp->Release(); }

  00039	8b 4e 20	 mov	 ecx, DWORD PTR [esi+32]
  0003c	c7 45 fc 00 00
	00 00		 mov	 DWORD PTR __$EHRec$[ebp+8], 0
  00043	c7 46 10 00 00
	00 00		 mov	 DWORD PTR [esi+16], OFFSET ??_7CX2000BaseDesk@CExAcctInput@@6B@
  0004a	85 c9		 test	 ecx, ecx
  0004c	74 06		 je	 SHORT $LN10@scalar
  0004e	8b 01		 mov	 eax, DWORD PTR [ecx]
  00050	51		 push	 ecx
  00051	ff 50 08	 call	 DWORD PTR [eax+8]
$LN10@scalar:
  00054	8d 4e 14	 lea	 ecx, DWORD PTR [esi+20]
  00057	ff 15 00 00 00
	00		 call	 DWORD PTR __imp_??1?$CStringT@DV?$StrTraitMFC_DLL@DV?$ChTraitsCRT@D@ATL@@@@@ATL@@QAE@XZ
  0005d	f6 45 08 01	 test	 BYTE PTR ___flags$[ebp], 1
  00061	74 0b		 je	 SHORT $LN19@scalar
  00063	6a 28		 push	 40			; 00000028H
  00065	56		 push	 esi
  00066	e8 00 00 00 00	 call	 ??3@YAXPAXI@Z		; operator delete
  0006b	83 c4 08	 add	 esp, 8
$LN19@scalar:
  0006e	8b c6		 mov	 eax, esi
  00070	8b 4d f4	 mov	 ecx, DWORD PTR __$EHRec$[ebp]
  00073	64 89 0d 00 00
	00 00		 mov	 DWORD PTR fs:0, ecx
  0007a	59		 pop	 ecx
  0007b	5e		 pop	 esi
  0007c	8b e5		 mov	 esp, ebp
  0007e	5d		 pop	 ebp
  0007f	c2 04 00	 ret	 4
  00082	cc		 int	 3
  00083	cc		 int	 3
  00084	cc		 int	 3
  00085	cc		 int	 3
  00086	cc		 int	 3
_TEXT	ENDS
;	COMDAT text$x
text$x	SEGMENT
__ehhandler$??_GCExAcctInput@@UAEPAXI@Z:
  00000	90		 npad	 1
  00001	90		 npad	 1
  00002	8b 54 24 08	 mov	 edx, DWORD PTR [esp+8]
  00006	8d 42 0c	 lea	 eax, DWORD PTR [edx+12]
  00009	8b 4a f8	 mov	 ecx, DWORD PTR [edx-8]
  0000c	33 c8		 xor	 ecx, eax
  0000e	e8 00 00 00 00	 call	 @__security_check_cookie@4
  00013	b8 00 00 00 00	 mov	 eax, OFFSET __ehfuncinfo$??_GCExAcctInput@@UAEPAXI@Z
  00018	e9 00 00 00 00	 jmp	 ___CxxFrameHandler3
text$x	ENDS
??_GCExAcctInput@@UAEPAXI@Z ENDP			; CExAcctInput::`scalar deleting destructor'
; Function compile flags: /Ogtp
; File D:\git\src\IBK\IBK_DRFN\ProjSrc\SrcDrfn\Chart\ExControl\ExAcctInput.cpp
; File D:\git\src\IBK\IBK_DRFN\ProjSrc\SrcDrfn\Inc\ExAcctInput.h
; File D:\git\src\IBK\IBK_DRFN\ProjSrc\SrcDrfn\Chart\ExControl\ExAcctInput.cpp
;	COMDAT ??1CExAcctInput@@UAE@XZ
_TEXT	SEGMENT
__$EHRec$ = -12						; size = 12
??1CExAcctInput@@UAE@XZ PROC				; CExAcctInput::~CExAcctInput, COMDAT
; _this$ = ecx

; 216  : {

  00000	55		 push	 ebp
  00001	8b ec		 mov	 ebp, esp
  00003	6a ff		 push	 -1
  00005	68 00 00 00 00	 push	 __ehhandler$??1CExAcctInput@@UAE@XZ
  0000a	64 a1 00 00 00
	00		 mov	 eax, DWORD PTR fs:0
  00010	50		 push	 eax
  00011	56		 push	 esi
  00012	a1 00 00 00 00	 mov	 eax, DWORD PTR ___security_cookie
  00017	33 c5		 xor	 eax, ebp
  00019	50		 push	 eax
  0001a	8d 45 f4	 lea	 eax, DWORD PTR __$EHRec$[ebp]
  0001d	64 a3 00 00 00
	00		 mov	 DWORD PTR fs:0, eax
  00023	8b f1		 mov	 esi, ecx

; 217  : 	delete m_pLoader;

  00025	8b 4e 04	 mov	 ecx, DWORD PTR [esi+4]
  00028	c7 06 00 00 00
	00		 mov	 DWORD PTR [esi], OFFSET ??_7CExAcctInput@@6B@
  0002e	85 c9		 test	 ecx, ecx
  00030	74 07		 je	 SHORT $LN3@CExAcctInp
  00032	8b 01		 mov	 eax, DWORD PTR [ecx]
  00034	6a 01		 push	 1
  00036	ff 50 04	 call	 DWORD PTR [eax+4]
$LN3@CExAcctInp:
; File D:\git\src\IBK\IBK_DRFN\ProjSrc\SrcDrfn\Inc\ExAcctInput.h

; 200  : 		~CX2000BaseDesk() { if(m_pDisp) m_pDisp->Release(); }

  00039	8b 4e 20	 mov	 ecx, DWORD PTR [esi+32]
  0003c	c7 45 fc 00 00
	00 00		 mov	 DWORD PTR __$EHRec$[ebp+8], 0
  00043	c7 46 10 00 00
	00 00		 mov	 DWORD PTR [esi+16], OFFSET ??_7CX2000BaseDesk@CExAcctInput@@6B@
  0004a	85 c9		 test	 ecx, ecx
  0004c	74 06		 je	 SHORT $LN6@CExAcctInp
  0004e	8b 01		 mov	 eax, DWORD PTR [ecx]
  00050	51		 push	 ecx
  00051	ff 50 08	 call	 DWORD PTR [eax+8]
$LN6@CExAcctInp:
  00054	8d 4e 14	 lea	 ecx, DWORD PTR [esi+20]
  00057	ff 15 00 00 00
	00		 call	 DWORD PTR __imp_??1?$CStringT@DV?$StrTraitMFC_DLL@DV?$ChTraitsCRT@D@ATL@@@@@ATL@@QAE@XZ
; File D:\git\src\IBK\IBK_DRFN\ProjSrc\SrcDrfn\Chart\ExControl\ExAcctInput.cpp

; 218  : }

  0005d	8b 4d f4	 mov	 ecx, DWORD PTR __$EHRec$[ebp]
  00060	64 89 0d 00 00
	00 00		 mov	 DWORD PTR fs:0, ecx
  00067	59		 pop	 ecx
  00068	5e		 pop	 esi
  00069	8b e5		 mov	 esp, ebp
  0006b	5d		 pop	 ebp
  0006c	c3		 ret	 0
  0006d	cc		 int	 3
  0006e	cc		 int	 3
  0006f	cc		 int	 3
  00070	cc		 int	 3
  00071	cc		 int	 3
_TEXT	ENDS
;	COMDAT text$x
text$x	SEGMENT
__ehhandler$??1CExAcctInput@@UAE@XZ:
  00000	90		 npad	 1
  00001	90		 npad	 1
  00002	8b 54 24 08	 mov	 edx, DWORD PTR [esp+8]
  00006	8d 42 0c	 lea	 eax, DWORD PTR [edx+12]
  00009	8b 4a f8	 mov	 ecx, DWORD PTR [edx-8]
  0000c	33 c8		 xor	 ecx, eax
  0000e	e8 00 00 00 00	 call	 @__security_check_cookie@4
  00013	b8 00 00 00 00	 mov	 eax, OFFSET __ehfuncinfo$??1CExAcctInput@@UAE@XZ
  00018	e9 00 00 00 00	 jmp	 ___CxxFrameHandler3
text$x	ENDS
??1CExAcctInput@@UAE@XZ ENDP				; CExAcctInput::~CExAcctInput
; Function compile flags: /Ogtp
; File D:\git\src\IBK\IBK_DRFN\ProjSrc\SrcDrfn\Chart\ExControl\ExAcctInput.cpp
;	COMDAT ?SetMapMessage@CX2000BaseDesk@CExAcctInput@@UAEXJPBD@Z
_TEXT	SEGMENT
_lType$ = 8						; size = 4
_lpData$ = 12						; size = 4
?SetMapMessage@CX2000BaseDesk@CExAcctInput@@UAEXJPBD@Z PROC ; CExAcctInput::CX2000BaseDesk::SetMapMessage, COMDAT
; _this$ = ecx

; 198  : {

  00000	55		 push	 ebp
  00001	8b ec		 mov	 ebp, esp

; 199  : 	MYMETHOD_PROLOGUE(CExAcctInput, 2000BaseDesk)
; 200  : 
; 201  : 	pThis->m_pBaseDesk2->SetMapMessage(lType, lpData);

  00003	8b 49 14	 mov	 ecx, DWORD PTR [ecx+20]
  00006	8b 01		 mov	 eax, DWORD PTR [ecx]

; 202  : }

  00008	5d		 pop	 ebp

; 199  : 	MYMETHOD_PROLOGUE(CExAcctInput, 2000BaseDesk)
; 200  : 
; 201  : 	pThis->m_pBaseDesk2->SetMapMessage(lType, lpData);

  00009	ff 60 48	 jmp	 DWORD PTR [eax+72]
?SetMapMessage@CX2000BaseDesk@CExAcctInput@@UAEXJPBD@Z ENDP ; CExAcctInput::CX2000BaseDesk::SetMapMessage
_TEXT	ENDS
; Function compile flags: /Ogtp
; File D:\git\src\IBK\IBK_DRFN\ProjSrc\SrcDrfn\Chart\ExControl\ExAcctInput.cpp
;	COMDAT ?FP_vResizeCtrl@CX2000BaseDesk@CExAcctInput@@UAEXXZ
_TEXT	SEGMENT
?FP_vResizeCtrl@CX2000BaseDesk@CExAcctInput@@UAEXXZ PROC ; CExAcctInput::CX2000BaseDesk::FP_vResizeCtrl, COMDAT
; _this$ = ecx

; 191  : 	MYMETHOD_PROLOGUE(CExAcctInput, 2000BaseDesk)
; 192  : 	
; 193  : 	pThis->m_pBaseDesk2->FP_vResizeCtrl();

  00000	8b 49 14	 mov	 ecx, DWORD PTR [ecx+20]
  00003	8b 01		 mov	 eax, DWORD PTR [ecx]
  00005	ff 60 44	 jmp	 DWORD PTR [eax+68]
?FP_vResizeCtrl@CX2000BaseDesk@CExAcctInput@@UAEXXZ ENDP ; CExAcctInput::CX2000BaseDesk::FP_vResizeCtrl
_TEXT	ENDS
; Function compile flags: /Ogtp
; File D:\git\src\IBK\IBK_DRFN\ProjSrc\SrcDrfn\Chart\ExControl\ExAcctInput.cpp
;	COMDAT ?FP_nGetCtrlPos@CX2000BaseDesk@CExAcctInput@@UAEJXZ
_TEXT	SEGMENT
?FP_nGetCtrlPos@CX2000BaseDesk@CExAcctInput@@UAEJXZ PROC ; CExAcctInput::CX2000BaseDesk::FP_nGetCtrlPos, COMDAT
; _this$ = ecx

; 182  : 	MYMETHOD_PROLOGUE(CExAcctInput, 2000BaseDesk)
; 183  : 
; 184  : 	return pThis->m_pBaseDesk2->FP_nGetCtrlPos();

  00000	8b 49 14	 mov	 ecx, DWORD PTR [ecx+20]
  00003	8b 01		 mov	 eax, DWORD PTR [ecx]
  00005	ff 60 40	 jmp	 DWORD PTR [eax+64]
?FP_nGetCtrlPos@CX2000BaseDesk@CExAcctInput@@UAEJXZ ENDP ; CExAcctInput::CX2000BaseDesk::FP_nGetCtrlPos
_TEXT	ENDS
; Function compile flags: /Ogtp
; File D:\git\src\IBK\IBK_DRFN\ProjSrc\SrcDrfn\Chart\ExControl\ExAcctInput.cpp
;	COMDAT ?FP_vSendDebug@CX2000BaseDesk@CExAcctInput@@UAEXPBD00@Z
_TEXT	SEGMENT
_csSection$ = 8						; size = 4
_csKey$ = 12						; size = 4
_csValue$ = 16						; size = 4
?FP_vSendDebug@CX2000BaseDesk@CExAcctInput@@UAEXPBD00@Z PROC ; CExAcctInput::CX2000BaseDesk::FP_vSendDebug, COMDAT
; _this$ = ecx

; 170  : {

  00000	55		 push	 ebp
  00001	8b ec		 mov	 ebp, esp

; 171  : 	MYMETHOD_PROLOGUE(CExAcctInput, 2000BaseDesk)
; 172  : 
; 173  : 	pThis->m_pBaseDesk2->FP_vSendDebug(csSection, csKey, csValue);

  00003	8b 49 14	 mov	 ecx, DWORD PTR [ecx+20]
  00006	8b 01		 mov	 eax, DWORD PTR [ecx]

; 174  : }

  00008	5d		 pop	 ebp

; 171  : 	MYMETHOD_PROLOGUE(CExAcctInput, 2000BaseDesk)
; 172  : 
; 173  : 	pThis->m_pBaseDesk2->FP_vSendDebug(csSection, csKey, csValue);

  00009	ff 60 58	 jmp	 DWORD PTR [eax+88]
?FP_vSendDebug@CX2000BaseDesk@CExAcctInput@@UAEXPBD00@Z ENDP ; CExAcctInput::CX2000BaseDesk::FP_vSendDebug
_TEXT	ENDS
; Function compile flags: /Ogtp
; File D:\git\src\IBK\IBK_DRFN\ProjSrc\SrcDrfn\Chart\ExControl\ExAcctInput.cpp
;	COMDAT ?FP_sGetMyVBName@CX2000BaseDesk@CExAcctInput@@UAEPBDPAUHWND__@@@Z
_TEXT	SEGMENT
_hWnd$ = 8						; size = 4
?FP_sGetMyVBName@CX2000BaseDesk@CExAcctInput@@UAEPBDPAUHWND__@@@Z PROC ; CExAcctInput::CX2000BaseDesk::FP_sGetMyVBName, COMDAT
; _this$ = ecx

; 163  : {

  00000	55		 push	 ebp
  00001	8b ec		 mov	 ebp, esp

; 164  : 	MYMETHOD_PROLOGUE(CExAcctInput, 2000BaseDesk)
; 165  : 
; 166  : 	return pThis->m_pBaseDesk2->FP_sGetMyVBName(hWnd);

  00003	8b 49 14	 mov	 ecx, DWORD PTR [ecx+20]
  00006	8b 01		 mov	 eax, DWORD PTR [ecx]

; 167  : }

  00008	5d		 pop	 ebp

; 164  : 	MYMETHOD_PROLOGUE(CExAcctInput, 2000BaseDesk)
; 165  : 
; 166  : 	return pThis->m_pBaseDesk2->FP_sGetMyVBName(hWnd);

  00009	ff 60 54	 jmp	 DWORD PTR [eax+84]
?FP_sGetMyVBName@CX2000BaseDesk@CExAcctInput@@UAEPBDPAUHWND__@@@Z ENDP ; CExAcctInput::CX2000BaseDesk::FP_sGetMyVBName
_TEXT	ENDS
; Function compile flags: /Ogtp
; File D:\git\src\IBK\IBK_DRFN\ProjSrc\SrcDrfn\Chart\ExControl\ExAcctInput.cpp
;	COMDAT ?FP_vUnadviseDebug@CX2000BaseDesk@CExAcctInput@@UAEXPBDI@Z
_TEXT	SEGMENT
_sName$ = 8						; size = 4
_pMonitoringCommand$ = 12				; size = 4
?FP_vUnadviseDebug@CX2000BaseDesk@CExAcctInput@@UAEXPBDI@Z PROC ; CExAcctInput::CX2000BaseDesk::FP_vUnadviseDebug, COMDAT
; _this$ = ecx

; 156  : {

  00000	55		 push	 ebp
  00001	8b ec		 mov	 ebp, esp

; 157  : 	MYMETHOD_PROLOGUE(CExAcctInput, 2000BaseDesk)
; 158  : 
; 159  : 	pThis->m_pBaseDesk2->FP_vUnadviseDebug(sName, pMonitoringCommand);

  00003	8b 49 14	 mov	 ecx, DWORD PTR [ecx+20]
  00006	8b 01		 mov	 eax, DWORD PTR [ecx]

; 160  : }

  00008	5d		 pop	 ebp

; 157  : 	MYMETHOD_PROLOGUE(CExAcctInput, 2000BaseDesk)
; 158  : 
; 159  : 	pThis->m_pBaseDesk2->FP_vUnadviseDebug(sName, pMonitoringCommand);

  00009	ff 60 50	 jmp	 DWORD PTR [eax+80]
?FP_vUnadviseDebug@CX2000BaseDesk@CExAcctInput@@UAEXPBDI@Z ENDP ; CExAcctInput::CX2000BaseDesk::FP_vUnadviseDebug
_TEXT	ENDS
; Function compile flags: /Ogtp
; File D:\git\src\IBK\IBK_DRFN\ProjSrc\SrcDrfn\Chart\ExControl\ExAcctInput.cpp
;	COMDAT ?FP_vAdviseDebug@CX2000BaseDesk@CExAcctInput@@UAEHPBDI@Z
_TEXT	SEGMENT
_sName$ = 8						; size = 4
_pMonitoringCommand$ = 12				; size = 4
?FP_vAdviseDebug@CX2000BaseDesk@CExAcctInput@@UAEHPBDI@Z PROC ; CExAcctInput::CX2000BaseDesk::FP_vAdviseDebug, COMDAT
; _this$ = ecx

; 148  : {

  00000	55		 push	 ebp
  00001	8b ec		 mov	 ebp, esp

; 149  : 	MYMETHOD_PROLOGUE(CExAcctInput, 2000BaseDesk)
; 150  : 
; 151  : 	return pThis->m_pBaseDesk2->FP_vAdviseDebug(sName, pMonitoringCommand);

  00003	8b 49 14	 mov	 ecx, DWORD PTR [ecx+20]
  00006	8b 01		 mov	 eax, DWORD PTR [ecx]

; 152  : }

  00008	5d		 pop	 ebp

; 149  : 	MYMETHOD_PROLOGUE(CExAcctInput, 2000BaseDesk)
; 150  : 
; 151  : 	return pThis->m_pBaseDesk2->FP_vAdviseDebug(sName, pMonitoringCommand);

  00009	ff 60 4c	 jmp	 DWORD PTR [eax+76]
?FP_vAdviseDebug@CX2000BaseDesk@CExAcctInput@@UAEHPBDI@Z ENDP ; CExAcctInput::CX2000BaseDesk::FP_vAdviseDebug
_TEXT	ENDS
; Function compile flags: /Ogtp
; File D:\git\src\IBK\IBK_DRFN\ProjSrc\SrcDrfn\Chart\ExControl\ExAcctInput.cpp
;	COMDAT ?GetMainInfo@CX2000BaseDesk@CExAcctInput@@UAEJPBD@Z
_TEXT	SEGMENT
_szKey$ = 8						; size = 4
?GetMainInfo@CX2000BaseDesk@CExAcctInput@@UAEJPBD@Z PROC ; CExAcctInput::CX2000BaseDesk::GetMainInfo, COMDAT
; _this$ = ecx

; 137  : {

  00000	55		 push	 ebp
  00001	8b ec		 mov	 ebp, esp

; 138  : 	MYMETHOD_PROLOGUE(CExAcctInput, 2000BaseDesk)
; 139  : 		
; 140  : 	return pThis->m_pBaseDesk2->GetMainInfo(szKey);

  00003	8b 49 14	 mov	 ecx, DWORD PTR [ecx+20]
  00006	8b 01		 mov	 eax, DWORD PTR [ecx]

; 141  : }

  00008	5d		 pop	 ebp

; 138  : 	MYMETHOD_PROLOGUE(CExAcctInput, 2000BaseDesk)
; 139  : 		
; 140  : 	return pThis->m_pBaseDesk2->GetMainInfo(szKey);

  00009	ff 60 3c	 jmp	 DWORD PTR [eax+60]
?GetMainInfo@CX2000BaseDesk@CExAcctInput@@UAEJPBD@Z ENDP ; CExAcctInput::CX2000BaseDesk::GetMainInfo
_TEXT	ENDS
; Function compile flags: /Ogtp
; File D:\git\src\IBK\IBK_DRFN\ProjSrc\SrcDrfn\Chart\ExControl\ExAcctInput.cpp
;	COMDAT ?GetFrameInfo@CX2000BaseDesk@CExAcctInput@@UAEJPBD@Z
_TEXT	SEGMENT
_szKey$ = 8						; size = 4
?GetFrameInfo@CX2000BaseDesk@CExAcctInput@@UAEJPBD@Z PROC ; CExAcctInput::CX2000BaseDesk::GetFrameInfo, COMDAT
; _this$ = ecx

; 130  : {

  00000	55		 push	 ebp
  00001	8b ec		 mov	 ebp, esp

; 131  : 	MYMETHOD_PROLOGUE(CExAcctInput, 2000BaseDesk)
; 132  : 		
; 133  : 	return pThis->m_pBaseDesk2->GetFrameInfo(szKey);

  00003	8b 49 14	 mov	 ecx, DWORD PTR [ecx+20]
  00006	8b 01		 mov	 eax, DWORD PTR [ecx]

; 134  : }

  00008	5d		 pop	 ebp

; 131  : 	MYMETHOD_PROLOGUE(CExAcctInput, 2000BaseDesk)
; 132  : 		
; 133  : 	return pThis->m_pBaseDesk2->GetFrameInfo(szKey);

  00009	ff 60 38	 jmp	 DWORD PTR [eax+56]
?GetFrameInfo@CX2000BaseDesk@CExAcctInput@@UAEJPBD@Z ENDP ; CExAcctInput::CX2000BaseDesk::GetFrameInfo
_TEXT	ENDS
; Function compile flags: /Ogtp
; File D:\git\src\IBK\IBK_DRFN\ProjSrc\SrcDrfn\Chart\ExControl\ExAcctInput.cpp
;	COMDAT ?GetUserInfo@CX2000BaseDesk@CExAcctInput@@UAEJPBD@Z
_TEXT	SEGMENT
_szKey$ = 8						; size = 4
?GetUserInfo@CX2000BaseDesk@CExAcctInput@@UAEJPBD@Z PROC ; CExAcctInput::CX2000BaseDesk::GetUserInfo, COMDAT
; _this$ = ecx

; 123  : {

  00000	55		 push	 ebp
  00001	8b ec		 mov	 ebp, esp

; 124  : 	MYMETHOD_PROLOGUE(CExAcctInput, 2000BaseDesk)
; 125  : 		
; 126  : 	return pThis->m_pBaseDesk2->GetUserInfo(szKey);

  00003	8b 49 14	 mov	 ecx, DWORD PTR [ecx+20]
  00006	8b 01		 mov	 eax, DWORD PTR [ecx]

; 127  : }

  00008	5d		 pop	 ebp

; 124  : 	MYMETHOD_PROLOGUE(CExAcctInput, 2000BaseDesk)
; 125  : 		
; 126  : 	return pThis->m_pBaseDesk2->GetUserInfo(szKey);

  00009	ff 60 34	 jmp	 DWORD PTR [eax+52]
?GetUserInfo@CX2000BaseDesk@CExAcctInput@@UAEJPBD@Z ENDP ; CExAcctInput::CX2000BaseDesk::GetUserInfo
_TEXT	ENDS
; Function compile flags: /Ogtp
; File D:\git\src\IBK\IBK_DRFN\ProjSrc\SrcDrfn\Chart\ExControl\ExAcctInput.cpp
;	COMDAT ?GetDeskInfo@CX2000BaseDesk@CExAcctInput@@UAEJPBD@Z
_TEXT	SEGMENT
_szKey$ = 8						; size = 4
?GetDeskInfo@CX2000BaseDesk@CExAcctInput@@UAEJPBD@Z PROC ; CExAcctInput::CX2000BaseDesk::GetDeskInfo, COMDAT
; _this$ = ecx

; 116  : {

  00000	55		 push	 ebp
  00001	8b ec		 mov	 ebp, esp

; 117  : 	MYMETHOD_PROLOGUE(CExAcctInput, 2000BaseDesk)
; 118  : 
; 119  : 	return pThis->m_pBaseDesk2->GetDeskInfo(szKey);

  00003	8b 49 14	 mov	 ecx, DWORD PTR [ecx+20]
  00006	8b 01		 mov	 eax, DWORD PTR [ecx]

; 120  : }

  00008	5d		 pop	 ebp

; 117  : 	MYMETHOD_PROLOGUE(CExAcctInput, 2000BaseDesk)
; 118  : 
; 119  : 	return pThis->m_pBaseDesk2->GetDeskInfo(szKey);

  00009	ff 60 30	 jmp	 DWORD PTR [eax+48]
?GetDeskInfo@CX2000BaseDesk@CExAcctInput@@UAEJPBD@Z ENDP ; CExAcctInput::CX2000BaseDesk::GetDeskInfo
_TEXT	ENDS
; Function compile flags: /Ogtp
; File D:\git\src\IBK\IBK_DRFN\ProjSrc\SrcDrfn\Chart\ExControl\ExAcctInput.cpp
;	COMDAT ?GetUserColor@CX2000BaseDesk@CExAcctInput@@UAEKFPBDF@Z
_TEXT	SEGMENT
_nIndex$ = 8						; size = 2
_szName$ = 12						; size = 4
_nFlag$ = 16						; size = 2
?GetUserColor@CX2000BaseDesk@CExAcctInput@@UAEKFPBDF@Z PROC ; CExAcctInput::CX2000BaseDesk::GetUserColor, COMDAT
; _this$ = ecx

; 107  : {

  00000	55		 push	 ebp
  00001	8b ec		 mov	 ebp, esp

; 108  : 	MYMETHOD_PROLOGUE(CExAcctInput, 2000BaseDesk)
; 109  : 
; 110  : 	return pThis->m_pBaseDesk2->GetUserColor(nIndex, szName, nFlag);

  00003	8b 49 14	 mov	 ecx, DWORD PTR [ecx+20]
  00006	8b 01		 mov	 eax, DWORD PTR [ecx]

; 111  : }

  00008	5d		 pop	 ebp

; 108  : 	MYMETHOD_PROLOGUE(CExAcctInput, 2000BaseDesk)
; 109  : 
; 110  : 	return pThis->m_pBaseDesk2->GetUserColor(nIndex, szName, nFlag);

  00009	ff 60 2c	 jmp	 DWORD PTR [eax+44]
?GetUserColor@CX2000BaseDesk@CExAcctInput@@UAEKFPBDF@Z ENDP ; CExAcctInput::CX2000BaseDesk::GetUserColor
_TEXT	ENDS
; Function compile flags: /Ogtp
; File D:\git\src\IBK\IBK_DRFN\ProjSrc\SrcDrfn\Chart\ExControl\ExAcctInput.cpp
;	COMDAT ?CallCommand@CX2000BaseDesk@CExAcctInput@@UAEXPBD@Z
_TEXT	SEGMENT
__szCmd$ = 8						; size = 4
?CallCommand@CX2000BaseDesk@CExAcctInput@@UAEXPBD@Z PROC ; CExAcctInput::CX2000BaseDesk::CallCommand, COMDAT
; _this$ = ecx

; 99   : {

  00000	55		 push	 ebp
  00001	8b ec		 mov	 ebp, esp

; 100  : 	MYMETHOD_PROLOGUE(CExAcctInput, 2000BaseDesk)
; 101  : 
; 102  : 	pThis->m_pBaseDesk2->CallCommand(_szCmd);

  00003	8b 49 14	 mov	 ecx, DWORD PTR [ecx+20]
  00006	8b 01		 mov	 eax, DWORD PTR [ecx]

; 103  : }

  00008	5d		 pop	 ebp

; 100  : 	MYMETHOD_PROLOGUE(CExAcctInput, 2000BaseDesk)
; 101  : 
; 102  : 	pThis->m_pBaseDesk2->CallCommand(_szCmd);

  00009	ff 60 28	 jmp	 DWORD PTR [eax+40]
?CallCommand@CX2000BaseDesk@CExAcctInput@@UAEXPBD@Z ENDP ; CExAcctInput::CX2000BaseDesk::CallCommand
_TEXT	ENDS
; Function compile flags: /Ogtp
; File D:\git\src\IBK\IBK_DRFN\ProjSrc\SrcDrfn\Chart\ExControl\ExAcctInput.cpp
;	COMDAT ?GetLSharedData@CX2000BaseDesk@CExAcctInput@@UAEPAXXZ
_TEXT	SEGMENT
?GetLSharedData@CX2000BaseDesk@CExAcctInput@@UAEPAXXZ PROC ; CExAcctInput::CX2000BaseDesk::GetLSharedData, COMDAT
; _this$ = ecx

; 81   : 	MYMETHOD_PROLOGUE(CExAcctInput, 2000BaseDesk)
; 82   : 
; 83   : 	return pThis->m_pBaseDesk2->GetLSharedData();

  00000	8b 49 14	 mov	 ecx, DWORD PTR [ecx+20]
  00003	8b 01		 mov	 eax, DWORD PTR [ecx]
  00005	ff 60 24	 jmp	 DWORD PTR [eax+36]
?GetLSharedData@CX2000BaseDesk@CExAcctInput@@UAEPAXXZ ENDP ; CExAcctInput::CX2000BaseDesk::GetLSharedData
_TEXT	ENDS
; Function compile flags: /Ogtp
; File D:\git\src\IBK\IBK_DRFN\ProjSrc\SrcDrfn\Chart\ExControl\ExAcctInput.cpp
;	COMDAT ?SendKey@CX2000BaseDesk@CExAcctInput@@UAEHPAUHWND__@@IHH@Z
_TEXT	SEGMENT
__hWnd$ = 8						; size = 4
_nChar$ = 12						; size = 4
__bIsShift$ = 16					; size = 4
__bIsCtrl$ = 20						; size = 4
?SendKey@CX2000BaseDesk@CExAcctInput@@UAEHPAUHWND__@@IHH@Z PROC ; CExAcctInput::CX2000BaseDesk::SendKey, COMDAT
; _this$ = ecx

; 73   : {

  00000	55		 push	 ebp
  00001	8b ec		 mov	 ebp, esp

; 74   : 	MYMETHOD_PROLOGUE(CExAcctInput, 2000BaseDesk)
; 75   : 
; 76   : 	return pThis->m_pBaseDesk2->SendKey(_hWnd, nChar, _bIsShift, _bIsCtrl);

  00003	8b 49 14	 mov	 ecx, DWORD PTR [ecx+20]
  00006	8b 01		 mov	 eax, DWORD PTR [ecx]

; 77   : }

  00008	5d		 pop	 ebp

; 74   : 	MYMETHOD_PROLOGUE(CExAcctInput, 2000BaseDesk)
; 75   : 
; 76   : 	return pThis->m_pBaseDesk2->SendKey(_hWnd, nChar, _bIsShift, _bIsCtrl);

  00009	ff 60 20	 jmp	 DWORD PTR [eax+32]
?SendKey@CX2000BaseDesk@CExAcctInput@@UAEHPAUHWND__@@IHH@Z ENDP ; CExAcctInput::CX2000BaseDesk::SendKey
_TEXT	ENDS
; Function compile flags: /Ogtp
; File D:\git\src\IBK\IBK_DRFN\ProjSrc\SrcDrfn\Chart\ExControl\ExAcctInput.cpp
;	COMDAT ?InvokeEvent2@CX2000BaseDesk@CExAcctInput@@UAEHPBD00@Z
_TEXT	SEGMENT
__szCtrlName$ = 8					; size = 4
__szEventName$ = 12					; size = 4
__szParam$ = 16						; size = 4
?InvokeEvent2@CX2000BaseDesk@CExAcctInput@@UAEHPBD00@Z PROC ; CExAcctInput::CX2000BaseDesk::InvokeEvent2, COMDAT
; _this$ = ecx

; 66   : {

  00000	55		 push	 ebp
  00001	8b ec		 mov	 ebp, esp

; 67   : 	MYMETHOD_PROLOGUE(CExAcctInput, 2000BaseDesk)
; 68   : 
; 69   : 	return pThis->InvokeEvent(_szEventName, _szParam);

  00003	ff 75 10	 push	 DWORD PTR __szParam$[ebp]
  00006	8b 41 f0	 mov	 eax, DWORD PTR [ecx-16]
  00009	83 c1 f0	 add	 ecx, -16		; fffffff0H
  0000c	ff 75 0c	 push	 DWORD PTR __szEventName$[ebp]
  0000f	ff 10		 call	 DWORD PTR [eax]

; 70   : }

  00011	5d		 pop	 ebp
  00012	c2 0c 00	 ret	 12			; 0000000cH
?InvokeEvent2@CX2000BaseDesk@CExAcctInput@@UAEHPBD00@Z ENDP ; CExAcctInput::CX2000BaseDesk::InvokeEvent2
_TEXT	ENDS
; Function compile flags: /Ogtp
; File D:\git\src\IBK\IBK_DRFN\ProjSrc\SrcDrfn\Chart\ExControl\ExAcctInput.cpp
;	COMDAT ?InvokeEvent@CX2000BaseDesk@CExAcctInput@@UAEHPAUHWND__@@PBD1@Z
_TEXT	SEGMENT
__hWnd$ = 8						; size = 4
__szEventName$ = 12					; size = 4
__szParam$ = 16						; size = 4
?InvokeEvent@CX2000BaseDesk@CExAcctInput@@UAEHPAUHWND__@@PBD1@Z PROC ; CExAcctInput::CX2000BaseDesk::InvokeEvent, COMDAT
; _this$ = ecx

; 59   : {

  00000	55		 push	 ebp
  00001	8b ec		 mov	 ebp, esp

; 60   : 	MYMETHOD_PROLOGUE(CExAcctInput, 2000BaseDesk)
; 61   : 
; 62   : 	return pThis->InvokeEvent(_szEventName, _szParam);

  00003	ff 75 10	 push	 DWORD PTR __szParam$[ebp]
  00006	8b 41 f0	 mov	 eax, DWORD PTR [ecx-16]
  00009	83 c1 f0	 add	 ecx, -16		; fffffff0H
  0000c	ff 75 0c	 push	 DWORD PTR __szEventName$[ebp]
  0000f	ff 10		 call	 DWORD PTR [eax]

; 63   : }

  00011	5d		 pop	 ebp
  00012	c2 0c 00	 ret	 12			; 0000000cH
?InvokeEvent@CX2000BaseDesk@CExAcctInput@@UAEHPAUHWND__@@PBD1@Z ENDP ; CExAcctInput::CX2000BaseDesk::InvokeEvent
_TEXT	ENDS
; Function compile flags: /Ogtp
; File D:\git\src\IBK\IBK_DRFN\ProjSrc\SrcDrfn\Chart\ExControl\ExAcctInput.cpp
;	COMDAT ?GetSharedInterface@CX2000BaseDesk@CExAcctInput@@UAEPAXXZ
_TEXT	SEGMENT
?GetSharedInterface@CX2000BaseDesk@CExAcctInput@@UAEPAXXZ PROC ; CExAcctInput::CX2000BaseDesk::GetSharedInterface, COMDAT
; _this$ = ecx

; 53   : 	MYMETHOD_PROLOGUE(CExAcctInput, 2000BaseDesk)
; 54   : 
; 55   : 	return pThis->m_pBaseDesk2->GetSharedInterface();

  00000	8b 49 14	 mov	 ecx, DWORD PTR [ecx+20]
  00003	8b 01		 mov	 eax, DWORD PTR [ecx]
  00005	ff 60 14	 jmp	 DWORD PTR [eax+20]
?GetSharedInterface@CX2000BaseDesk@CExAcctInput@@UAEPAXXZ ENDP ; CExAcctInput::CX2000BaseDesk::GetSharedInterface
_TEXT	ENDS
; Function compile flags: /Ogtp
; File D:\git\src\IBK\IBK_DRFN\ProjSrc\SrcDrfn\Chart\ExControl\ExAcctInput.cpp
;	COMDAT ?GetCtrlHwnd@CX2000BaseDesk@CExAcctInput@@UAEPAUHWND__@@PBD@Z
_TEXT	SEGMENT
_szName$ = 8						; size = 4
?GetCtrlHwnd@CX2000BaseDesk@CExAcctInput@@UAEPAUHWND__@@PBD@Z PROC ; CExAcctInput::CX2000BaseDesk::GetCtrlHwnd, COMDAT
; _this$ = ecx

; 45   : {

  00000	55		 push	 ebp
  00001	8b ec		 mov	 ebp, esp

; 46   : 	MYMETHOD_PROLOGUE(CExAcctInput, 2000BaseDesk)
; 47   : 
; 48   : 	return pThis->m_pBaseDesk2->GetCtrlHwnd(szName);

  00003	8b 49 14	 mov	 ecx, DWORD PTR [ecx+20]
  00006	8b 01		 mov	 eax, DWORD PTR [ecx]

; 49   : }

  00008	5d		 pop	 ebp

; 46   : 	MYMETHOD_PROLOGUE(CExAcctInput, 2000BaseDesk)
; 47   : 
; 48   : 	return pThis->m_pBaseDesk2->GetCtrlHwnd(szName);

  00009	ff 60 10	 jmp	 DWORD PTR [eax+16]
?GetCtrlHwnd@CX2000BaseDesk@CExAcctInput@@UAEPAUHWND__@@PBD@Z ENDP ; CExAcctInput::CX2000BaseDesk::GetCtrlHwnd
_TEXT	ENDS
; Function compile flags: /Ogtp
; File D:\git\src\IBK\IBK_DRFN\ProjSrc\SrcDrfn\Chart\ExControl\ExAcctInput.cpp
;	COMDAT ?GetCtrlUnknown@CX2000BaseDesk@CExAcctInput@@UAEPAUIUnknown@@PBD@Z
_TEXT	SEGMENT
_szName$ = 8						; size = 4
?GetCtrlUnknown@CX2000BaseDesk@CExAcctInput@@UAEPAUIUnknown@@PBD@Z PROC ; CExAcctInput::CX2000BaseDesk::GetCtrlUnknown, COMDAT
; _this$ = ecx

; 38   : {

  00000	55		 push	 ebp
  00001	8b ec		 mov	 ebp, esp

; 39   : 	MYMETHOD_PROLOGUE(CExAcctInput, 2000BaseDesk)
; 40   : 
; 41   : 	return pThis->m_pBaseDesk2->GetCtrlUnknown(szName);

  00003	8b 49 14	 mov	 ecx, DWORD PTR [ecx+20]
  00006	8b 01		 mov	 eax, DWORD PTR [ecx]

; 42   : }

  00008	5d		 pop	 ebp

; 39   : 	MYMETHOD_PROLOGUE(CExAcctInput, 2000BaseDesk)
; 40   : 
; 41   : 	return pThis->m_pBaseDesk2->GetCtrlUnknown(szName);

  00009	ff 60 0c	 jmp	 DWORD PTR [eax+12]
?GetCtrlUnknown@CX2000BaseDesk@CExAcctInput@@UAEPAUIUnknown@@PBD@Z ENDP ; CExAcctInput::CX2000BaseDesk::GetCtrlUnknown
_TEXT	ENDS
; Function compile flags: /Ogtp
; File D:\git\src\IBK\IBK_DRFN\ProjSrc\SrcDrfn\Chart\ExControl\ExAcctInput.cpp
;	COMDAT ?GetUnknown@CX2000BaseDesk@CExAcctInput@@UAEPAUIDispatch@@XZ
_TEXT	SEGMENT
?GetUnknown@CX2000BaseDesk@CExAcctInput@@UAEPAUIDispatch@@XZ PROC ; CExAcctInput::CX2000BaseDesk::GetUnknown, COMDAT
; _this$ = ecx

; 32   : 	MYMETHOD_PROLOGUE(CExAcctInput, 2000BaseDesk)
; 33   : 
; 34   : 	return pThis->m_pBaseDesk2->GetUnknown();

  00000	8b 49 14	 mov	 ecx, DWORD PTR [ecx+20]
  00003	8b 01		 mov	 eax, DWORD PTR [ecx]
  00005	ff 60 08	 jmp	 DWORD PTR [eax+8]
?GetUnknown@CX2000BaseDesk@CExAcctInput@@UAEPAUIDispatch@@XZ ENDP ; CExAcctInput::CX2000BaseDesk::GetUnknown
_TEXT	ENDS
; Function compile flags: /Ogtp
; File D:\git\src\IBK\IBK_DRFN\ProjSrc\SrcDrfn\Chart\ExControl\ExAcctInput.cpp
;	COMDAT ?GetDeskHwnd@CX2000BaseDesk@CExAcctInput@@UAEPAUHWND__@@XZ
_TEXT	SEGMENT
?GetDeskHwnd@CX2000BaseDesk@CExAcctInput@@UAEPAUHWND__@@XZ PROC ; CExAcctInput::CX2000BaseDesk::GetDeskHwnd, COMDAT
; _this$ = ecx

; 25   : 	MYMETHOD_PROLOGUE(CExAcctInput, 2000BaseDesk)
; 26   : 	
; 27   : 	return pThis->m_pBaseDesk2->GetDeskHwnd();

  00000	8b 49 14	 mov	 ecx, DWORD PTR [ecx+20]
  00003	8b 01		 mov	 eax, DWORD PTR [ecx]
  00005	ff 60 04	 jmp	 DWORD PTR [eax+4]
?GetDeskHwnd@CX2000BaseDesk@CExAcctInput@@UAEPAUHWND__@@XZ ENDP ; CExAcctInput::CX2000BaseDesk::GetDeskHwnd
_TEXT	ENDS
; Function compile flags: /Ogtp
; File D:\git\src\IBK\IBK_DRFN\ProjSrc\SrcDrfn\Chart\ExControl\ExAcctInput.cpp
;	COMDAT ?GetBasePath@CX2000BaseDesk@CExAcctInput@@UAEPBDXZ
_TEXT	SEGMENT
?GetBasePath@CX2000BaseDesk@CExAcctInput@@UAEPBDXZ PROC	; CExAcctInput::CX2000BaseDesk::GetBasePath, COMDAT
; _this$ = ecx

; 16   : {

  00000	56		 push	 esi

; 17   : 	MYMETHOD_PROLOGUE(CExAcctInput, 2000BaseDesk)
; 18   : 
; 19   : 	m_szPath = pThis->m_pBaseDesk2->GetBasePath();

  00001	8b 71 14	 mov	 esi, DWORD PTR [ecx+20]
  00004	57		 push	 edi
  00005	8d 79 04	 lea	 edi, DWORD PTR [ecx+4]
  00008	8b ce		 mov	 ecx, esi
  0000a	8b 16		 mov	 edx, DWORD PTR [esi]
  0000c	ff 12		 call	 DWORD PTR [edx]
  0000e	50		 push	 eax
  0000f	8b cf		 mov	 ecx, edi
  00011	ff 15 00 00 00
	00		 call	 DWORD PTR __imp_??4?$CStringT@DV?$StrTraitMFC_DLL@DV?$ChTraitsCRT@D@ATL@@@@@ATL@@QAEAAV01@PBD@Z

; 20   : 	return m_szPath;

  00017	8b 07		 mov	 eax, DWORD PTR [edi]
  00019	5f		 pop	 edi
  0001a	5e		 pop	 esi

; 21   : }

  0001b	c3		 ret	 0
?GetBasePath@CX2000BaseDesk@CExAcctInput@@UAEPBDXZ ENDP	; CExAcctInput::CX2000BaseDesk::GetBasePath
_TEXT	ENDS
; Function compile flags: /Ogtp
; File D:\git\src\IBK\IBK_DRFN\ProjSrc\SrcDrfn\Inc\ExAcctInput.h
;	COMDAT ??1CX2000BaseDesk@CExAcctInput@@QAE@XZ
_TEXT	SEGMENT
__$EHRec$ = -12						; size = 12
??1CX2000BaseDesk@CExAcctInput@@QAE@XZ PROC		; CExAcctInput::CX2000BaseDesk::~CX2000BaseDesk, COMDAT
; _this$ = ecx

; 200  : 		~CX2000BaseDesk() { if(m_pDisp) m_pDisp->Release(); }

  00000	55		 push	 ebp
  00001	8b ec		 mov	 ebp, esp
  00003	6a ff		 push	 -1
  00005	68 00 00 00 00	 push	 __ehhandler$??1CX2000BaseDesk@CExAcctInput@@QAE@XZ
  0000a	64 a1 00 00 00
	00		 mov	 eax, DWORD PTR fs:0
  00010	50		 push	 eax
  00011	56		 push	 esi
  00012	a1 00 00 00 00	 mov	 eax, DWORD PTR ___security_cookie
  00017	33 c5		 xor	 eax, ebp
  00019	50		 push	 eax
  0001a	8d 45 f4	 lea	 eax, DWORD PTR __$EHRec$[ebp]
  0001d	64 a3 00 00 00
	00		 mov	 DWORD PTR fs:0, eax
  00023	8b f1		 mov	 esi, ecx
  00025	8b 4e 10	 mov	 ecx, DWORD PTR [esi+16]
  00028	c7 06 00 00 00
	00		 mov	 DWORD PTR [esi], OFFSET ??_7CX2000BaseDesk@CExAcctInput@@6B@
  0002e	85 c9		 test	 ecx, ecx
  00030	74 06		 je	 SHORT $LN2@CX2000Base
  00032	8b 01		 mov	 eax, DWORD PTR [ecx]
  00034	51		 push	 ecx
  00035	ff 50 08	 call	 DWORD PTR [eax+8]
$LN2@CX2000Base:
  00038	8d 4e 04	 lea	 ecx, DWORD PTR [esi+4]
  0003b	ff 15 00 00 00
	00		 call	 DWORD PTR __imp_??1?$CStringT@DV?$StrTraitMFC_DLL@DV?$ChTraitsCRT@D@ATL@@@@@ATL@@QAE@XZ
  00041	8b 4d f4	 mov	 ecx, DWORD PTR __$EHRec$[ebp]
  00044	64 89 0d 00 00
	00 00		 mov	 DWORD PTR fs:0, ecx
  0004b	59		 pop	 ecx
  0004c	5e		 pop	 esi
  0004d	8b e5		 mov	 esp, ebp
  0004f	5d		 pop	 ebp
  00050	c3		 ret	 0
  00051	cc		 int	 3
  00052	cc		 int	 3
  00053	cc		 int	 3
  00054	cc		 int	 3
  00055	cc		 int	 3
_TEXT	ENDS
;	COMDAT text$x
text$x	SEGMENT
__ehhandler$??1CX2000BaseDesk@CExAcctInput@@QAE@XZ:
  00000	90		 npad	 1
  00001	90		 npad	 1
  00002	8b 54 24 08	 mov	 edx, DWORD PTR [esp+8]
  00006	8d 42 0c	 lea	 eax, DWORD PTR [edx+12]
  00009	8b 4a f8	 mov	 ecx, DWORD PTR [edx-8]
  0000c	33 c8		 xor	 ecx, eax
  0000e	e8 00 00 00 00	 call	 @__security_check_cookie@4
  00013	b8 00 00 00 00	 mov	 eax, OFFSET __ehfuncinfo$??1CX2000BaseDesk@CExAcctInput@@QAE@XZ
  00018	e9 00 00 00 00	 jmp	 ___CxxFrameHandler3
text$x	ENDS
??1CX2000BaseDesk@CExAcctInput@@QAE@XZ ENDP		; CExAcctInput::CX2000BaseDesk::~CX2000BaseDesk
; Function compile flags: /Ogtp
; File D:\git\src\IBK\IBK_DRFN\ProjSrc\SrcDrfn\Chart\ExControl\ExAcctInput.cpp
; File D:\git\src\IBK\IBK_DRFN\ProjSrc\SrcDrfn\Chart\ExControl\Include\LoadHelper.h
; File D:\git\src\IBK\IBK_DRFN\ProjSrc\SrcDrfn\Chart\ExControl\ExAcctInput.cpp
; File D:\git\src\IBK\IBK_DRFN\ProjSrc\SrcDrfn\Chart\ExControl\Include\LoadHelper.h
; File D:\git\src\IBK\IBK_DRFN\ProjSrc\SrcDrfn\Chart\ExControl\ExAcctInput.cpp
;	COMDAT ?GetEnabled@CExAcctInput@@QAEHXZ
_TEXT	SEGMENT
?GetEnabled@CExAcctInput@@QAEHXZ PROC			; CExAcctInput::GetEnabled, COMDAT
; _this$ = ecx

; 488  : 	return m_pLoader->GetEnabled();

  00000	8b 41 04	 mov	 eax, DWORD PTR [ecx+4]
; File D:\git\src\IBK\IBK_DRFN\ProjSrc\SrcDrfn\Chart\ExControl\Include\LoadHelper.h

; 1825 : 		if(!m_hLib)

  00003	83 78 04 00	 cmp	 DWORD PTR [eax+4], 0
  00007	75 03		 jne	 SHORT $LN4@GetEnabled
; File D:\git\src\IBK\IBK_DRFN\ProjSrc\SrcDrfn\Chart\ExControl\ExAcctInput.cpp

; 488  : 	return m_pLoader->GetEnabled();

  00009	33 c0		 xor	 eax, eax

; 489  : }

  0000b	c3		 ret	 0
$LN4@GetEnabled:
; File D:\git\src\IBK\IBK_DRFN\ProjSrc\SrcDrfn\Chart\ExControl\Include\LoadHelper.h

; 1828 : 		return pGetEnabled(m_lpPointer);

  0000c	ff b0 0c 01 00
	00		 push	 DWORD PTR [eax+268]
  00012	8b 80 60 01 00
	00		 mov	 eax, DWORD PTR [eax+352]
  00018	ff d0		 call	 eax
  0001a	83 c4 04	 add	 esp, 4
; File D:\git\src\IBK\IBK_DRFN\ProjSrc\SrcDrfn\Chart\ExControl\ExAcctInput.cpp

; 489  : }

  0001d	c3		 ret	 0
?GetEnabled@CExAcctInput@@QAEHXZ ENDP			; CExAcctInput::GetEnabled
_TEXT	ENDS
; Function compile flags: /Ogtp
; File D:\git\src\IBK\IBK_DRFN\ProjSrc\SrcDrfn\Chart\ExControl\ExAcctInput.cpp
; File D:\git\src\IBK\IBK_DRFN\ProjSrc\SrcDrfn\Chart\ExControl\Include\LoadHelper.h
; File D:\git\src\IBK\IBK_DRFN\ProjSrc\SrcDrfn\Chart\ExControl\ExAcctInput.cpp
;	COMDAT ?SetEnabled@CExAcctInput@@QAEXH@Z
_TEXT	SEGMENT
_bEnable$ = 8						; size = 4
?SetEnabled@CExAcctInput@@QAEXH@Z PROC			; CExAcctInput::SetEnabled, COMDAT
; _this$ = ecx

; 482  : {

  00000	55		 push	 ebp
  00001	8b ec		 mov	 ebp, esp

; 483  : 	m_pLoader->SetEnabled(bEnable);

  00003	8b 41 04	 mov	 eax, DWORD PTR [ecx+4]
; File D:\git\src\IBK\IBK_DRFN\ProjSrc\SrcDrfn\Chart\ExControl\Include\LoadHelper.h

; 1817 : 		if(!m_hLib)

  00006	83 78 04 00	 cmp	 DWORD PTR [eax+4], 0
  0000a	74 14		 je	 SHORT $LN3@SetEnabled

; 1818 : 			return;
; 1819 : 
; 1820 : 		pSetEnabled(m_lpPointer, bEnable);

  0000c	ff 75 08	 push	 DWORD PTR _bEnable$[ebp]
  0000f	ff b0 0c 01 00
	00		 push	 DWORD PTR [eax+268]
  00015	8b 80 5c 01 00
	00		 mov	 eax, DWORD PTR [eax+348]
  0001b	ff d0		 call	 eax
  0001d	83 c4 08	 add	 esp, 8
$LN3@SetEnabled:
; File D:\git\src\IBK\IBK_DRFN\ProjSrc\SrcDrfn\Chart\ExControl\ExAcctInput.cpp

; 484  : }

  00020	5d		 pop	 ebp
  00021	c2 04 00	 ret	 4
?SetEnabled@CExAcctInput@@QAEXH@Z ENDP			; CExAcctInput::SetEnabled
_TEXT	ENDS
; Function compile flags: /Ogtp
; File D:\git\src\IBK\IBK_DRFN\ProjSrc\SrcDrfn\Chart\ExControl\ExAcctInput.cpp
; File D:\git\src\IBK\IBK_DRFN\ProjSrc\SrcDrfn\Chart\ExControl\Include\LoadHelper.h
; File D:\git\src\IBK\IBK_DRFN\ProjSrc\SrcDrfn\Chart\ExControl\ExAcctInput.cpp
;	COMDAT ?GetClientRect@CExAcctInput@@QAEXPAUtagRECT@@@Z
_TEXT	SEGMENT
_lpRect$ = 8						; size = 4
?GetClientRect@CExAcctInput@@QAEXPAUtagRECT@@@Z PROC	; CExAcctInput::GetClientRect, COMDAT
; _this$ = ecx

; 477  : {

  00000	55		 push	 ebp
  00001	8b ec		 mov	 ebp, esp

; 478  : 	m_pLoader->GetClientRect(lpRect);

  00003	8b 41 04	 mov	 eax, DWORD PTR [ecx+4]
; File D:\git\src\IBK\IBK_DRFN\ProjSrc\SrcDrfn\Chart\ExControl\Include\LoadHelper.h

; 1809 : 		if(!m_hLib)

  00006	83 78 04 00	 cmp	 DWORD PTR [eax+4], 0
  0000a	74 14		 je	 SHORT $LN3@GetClientR

; 1810 : 			return;
; 1811 : 
; 1812 : 		pGetClientRect(m_lpPointer, lpRect);

  0000c	ff 75 08	 push	 DWORD PTR _lpRect$[ebp]
  0000f	ff b0 0c 01 00
	00		 push	 DWORD PTR [eax+268]
  00015	8b 80 58 01 00
	00		 mov	 eax, DWORD PTR [eax+344]
  0001b	ff d0		 call	 eax
  0001d	83 c4 08	 add	 esp, 8
$LN3@GetClientR:
; File D:\git\src\IBK\IBK_DRFN\ProjSrc\SrcDrfn\Chart\ExControl\ExAcctInput.cpp

; 479  : }

  00020	5d		 pop	 ebp
  00021	c2 04 00	 ret	 4
?GetClientRect@CExAcctInput@@QAEXPAUtagRECT@@@Z ENDP	; CExAcctInput::GetClientRect
_TEXT	ENDS
; Function compile flags: /Ogtp
; File D:\git\src\IBK\IBK_DRFN\ProjSrc\SrcDrfn\Chart\ExControl\ExAcctInput.cpp
; File D:\git\src\IBK\IBK_DRFN\ProjSrc\SrcDrfn\Chart\ExControl\Include\LoadHelper.h
; File D:\git\src\IBK\IBK_DRFN\ProjSrc\SrcDrfn\Chart\ExControl\ExAcctInput.cpp
;	COMDAT ?GetWindowRect@CExAcctInput@@QAEXPAUtagRECT@@@Z
_TEXT	SEGMENT
_lpRect$ = 8						; size = 4
?GetWindowRect@CExAcctInput@@QAEXPAUtagRECT@@@Z PROC	; CExAcctInput::GetWindowRect, COMDAT
; _this$ = ecx

; 472  : {

  00000	55		 push	 ebp
  00001	8b ec		 mov	 ebp, esp

; 473  : 	m_pLoader->GetWindowRect(lpRect);

  00003	8b 41 04	 mov	 eax, DWORD PTR [ecx+4]
; File D:\git\src\IBK\IBK_DRFN\ProjSrc\SrcDrfn\Chart\ExControl\Include\LoadHelper.h

; 1801 : 		if(!m_hLib)

  00006	83 78 04 00	 cmp	 DWORD PTR [eax+4], 0
  0000a	74 14		 je	 SHORT $LN3@GetWindowR

; 1802 : 			return;
; 1803 : 
; 1804 : 		pGetWindowRect(m_lpPointer, lpRect);

  0000c	ff 75 08	 push	 DWORD PTR _lpRect$[ebp]
  0000f	ff b0 0c 01 00
	00		 push	 DWORD PTR [eax+268]
  00015	8b 80 54 01 00
	00		 mov	 eax, DWORD PTR [eax+340]
  0001b	ff d0		 call	 eax
  0001d	83 c4 08	 add	 esp, 8
$LN3@GetWindowR:
; File D:\git\src\IBK\IBK_DRFN\ProjSrc\SrcDrfn\Chart\ExControl\ExAcctInput.cpp

; 474  : }

  00020	5d		 pop	 ebp
  00021	c2 04 00	 ret	 4
?GetWindowRect@CExAcctInput@@QAEXPAUtagRECT@@@Z ENDP	; CExAcctInput::GetWindowRect
_TEXT	ENDS
; Function compile flags: /Ogtp
; File D:\git\src\IBK\IBK_DRFN\ProjSrc\SrcDrfn\Chart\ExControl\ExAcctInput.cpp
; File D:\git\src\IBK\IBK_DRFN\ProjSrc\SrcDrfn\Chart\ExControl\Include\LoadHelper.h
; File D:\git\src\IBK\IBK_DRFN\ProjSrc\SrcDrfn\Chart\ExControl\ExAcctInput.cpp
; File D:\git\src\IBK\IBK_DRFN\ProjSrc\SrcDrfn\Chart\ExControl\Include\LoadHelper.h
; File D:\git\src\IBK\IBK_DRFN\ProjSrc\SrcDrfn\Chart\ExControl\ExAcctInput.cpp
;	COMDAT ?ShowWindow@CExAcctInput@@QAEHH@Z
_TEXT	SEGMENT
_nCmdShow$ = 8						; size = 4
?ShowWindow@CExAcctInput@@QAEHH@Z PROC			; CExAcctInput::ShowWindow, COMDAT
; _this$ = ecx

; 467  : {

  00000	55		 push	 ebp
  00001	8b ec		 mov	 ebp, esp

; 468  : 	return m_pLoader->ShowWindow(nCmdShow);

  00003	8b 41 04	 mov	 eax, DWORD PTR [ecx+4]
; File D:\git\src\IBK\IBK_DRFN\ProjSrc\SrcDrfn\Chart\ExControl\Include\LoadHelper.h

; 1793 : 		if(!m_hLib)

  00006	83 78 04 00	 cmp	 DWORD PTR [eax+4], 0
  0000a	75 06		 jne	 SHORT $LN4@ShowWindow
; File D:\git\src\IBK\IBK_DRFN\ProjSrc\SrcDrfn\Chart\ExControl\ExAcctInput.cpp

; 468  : 	return m_pLoader->ShowWindow(nCmdShow);

  0000c	33 c0		 xor	 eax, eax

; 469  : }

  0000e	5d		 pop	 ebp
  0000f	c2 04 00	 ret	 4
$LN4@ShowWindow:
; File D:\git\src\IBK\IBK_DRFN\ProjSrc\SrcDrfn\Chart\ExControl\Include\LoadHelper.h

; 1796 : 		return pShowWindow(m_lpPointer, nCmdShow);

  00012	ff 75 08	 push	 DWORD PTR _nCmdShow$[ebp]
  00015	ff b0 0c 01 00
	00		 push	 DWORD PTR [eax+268]
  0001b	8b 80 50 01 00
	00		 mov	 eax, DWORD PTR [eax+336]
  00021	ff d0		 call	 eax
  00023	83 c4 08	 add	 esp, 8
; File D:\git\src\IBK\IBK_DRFN\ProjSrc\SrcDrfn\Chart\ExControl\ExAcctInput.cpp

; 469  : }

  00026	5d		 pop	 ebp
  00027	c2 04 00	 ret	 4
?ShowWindow@CExAcctInput@@QAEHH@Z ENDP			; CExAcctInput::ShowWindow
_TEXT	ENDS
; Function compile flags: /Ogtp
; File D:\git\src\IBK\IBK_DRFN\ProjSrc\SrcDrfn\Chart\ExControl\ExAcctInput.cpp
; File D:\git\src\IBK\IBK_DRFN\ProjSrc\SrcDrfn\Chart\ExControl\Include\LoadHelper.h
; File D:\git\src\IBK\IBK_DRFN\ProjSrc\SrcDrfn\Chart\ExControl\ExAcctInput.cpp
; File D:\git\src\IBK\IBK_DRFN\ProjSrc\SrcDrfn\Chart\ExControl\Include\LoadHelper.h
; File D:\git\src\IBK\IBK_DRFN\ProjSrc\SrcDrfn\Chart\ExControl\ExAcctInput.cpp
;	COMDAT ?SetWindowPos@CExAcctInput@@QAEHPBVCWnd@@HHHHI@Z
_TEXT	SEGMENT
_pWndInsertAfter$ = 8					; size = 4
_x$ = 12						; size = 4
_y$ = 16						; size = 4
_cx$ = 20						; size = 4
_cy$ = 24						; size = 4
_nFlags$ = 28						; size = 4
?SetWindowPos@CExAcctInput@@QAEHPBVCWnd@@HHHHI@Z PROC	; CExAcctInput::SetWindowPos, COMDAT
; _this$ = ecx

; 462  : {

  00000	55		 push	 ebp
  00001	8b ec		 mov	 ebp, esp

; 463  : 	return m_pLoader->SetWindowPos(pWndInsertAfter, x, y, cx, cy, nFlags);

  00003	8b 41 04	 mov	 eax, DWORD PTR [ecx+4]
; File D:\git\src\IBK\IBK_DRFN\ProjSrc\SrcDrfn\Chart\ExControl\Include\LoadHelper.h

; 1785 : 		if(!m_hLib)

  00006	83 78 04 00	 cmp	 DWORD PTR [eax+4], 0
  0000a	75 06		 jne	 SHORT $LN4@SetWindowP
; File D:\git\src\IBK\IBK_DRFN\ProjSrc\SrcDrfn\Chart\ExControl\ExAcctInput.cpp

; 463  : 	return m_pLoader->SetWindowPos(pWndInsertAfter, x, y, cx, cy, nFlags);

  0000c	33 c0		 xor	 eax, eax

; 464  : }

  0000e	5d		 pop	 ebp
  0000f	c2 18 00	 ret	 24			; 00000018H
$LN4@SetWindowP:
; File D:\git\src\IBK\IBK_DRFN\ProjSrc\SrcDrfn\Chart\ExControl\Include\LoadHelper.h

; 1788 : 		return pSetWindowPos(m_lpPointer, pWndInsertAfter, x, y, cx, cy, nFlags);

  00012	ff 75 1c	 push	 DWORD PTR _nFlags$[ebp]
  00015	ff 75 18	 push	 DWORD PTR _cy$[ebp]
  00018	ff 75 14	 push	 DWORD PTR _cx$[ebp]
  0001b	ff 75 10	 push	 DWORD PTR _y$[ebp]
  0001e	ff 75 0c	 push	 DWORD PTR _x$[ebp]
  00021	ff 75 08	 push	 DWORD PTR _pWndInsertAfter$[ebp]
  00024	ff b0 0c 01 00
	00		 push	 DWORD PTR [eax+268]
  0002a	8b 80 4c 01 00
	00		 mov	 eax, DWORD PTR [eax+332]
  00030	ff d0		 call	 eax
  00032	83 c4 1c	 add	 esp, 28			; 0000001cH
; File D:\git\src\IBK\IBK_DRFN\ProjSrc\SrcDrfn\Chart\ExControl\ExAcctInput.cpp

; 464  : }

  00035	5d		 pop	 ebp
  00036	c2 18 00	 ret	 24			; 00000018H
?SetWindowPos@CExAcctInput@@QAEHPBVCWnd@@HHHHI@Z ENDP	; CExAcctInput::SetWindowPos
_TEXT	ENDS
; Function compile flags: /Ogtp
; File D:\git\src\IBK\IBK_DRFN\ProjSrc\SrcDrfn\Chart\ExControl\ExAcctInput.cpp
; File D:\git\src\IBK\IBK_DRFN\ProjSrc\SrcDrfn\Chart\ExControl\Include\LoadHelper.h
; File D:\git\src\IBK\IBK_DRFN\ProjSrc\SrcDrfn\Chart\ExControl\ExAcctInput.cpp
;	COMDAT ?MoveWindow@CExAcctInput@@QAEXPBUtagRECT@@H@Z
_TEXT	SEGMENT
_lpRect$ = 8						; size = 4
_bRepaint$ = 12						; size = 4
?MoveWindow@CExAcctInput@@QAEXPBUtagRECT@@H@Z PROC	; CExAcctInput::MoveWindow, COMDAT
; _this$ = ecx

; 457  : {

  00000	55		 push	 ebp
  00001	8b ec		 mov	 ebp, esp

; 458  : 	m_pLoader->MoveWindow(lpRect, bRepaint);

  00003	8b 41 04	 mov	 eax, DWORD PTR [ecx+4]
; File D:\git\src\IBK\IBK_DRFN\ProjSrc\SrcDrfn\Chart\ExControl\Include\LoadHelper.h

; 1777 : 		if(!m_hLib)

  00006	83 78 04 00	 cmp	 DWORD PTR [eax+4], 0
  0000a	74 17		 je	 SHORT $LN3@MoveWindow

; 1778 : 			return;
; 1779 : 
; 1780 : 		pMoveWindow2(m_lpPointer, lpRect, bRepaint);

  0000c	ff 75 0c	 push	 DWORD PTR _bRepaint$[ebp]
  0000f	ff 75 08	 push	 DWORD PTR _lpRect$[ebp]
  00012	ff b0 0c 01 00
	00		 push	 DWORD PTR [eax+268]
  00018	8b 80 48 01 00
	00		 mov	 eax, DWORD PTR [eax+328]
  0001e	ff d0		 call	 eax
  00020	83 c4 0c	 add	 esp, 12			; 0000000cH
$LN3@MoveWindow:
; File D:\git\src\IBK\IBK_DRFN\ProjSrc\SrcDrfn\Chart\ExControl\ExAcctInput.cpp

; 459  : }

  00023	5d		 pop	 ebp
  00024	c2 08 00	 ret	 8
?MoveWindow@CExAcctInput@@QAEXPBUtagRECT@@H@Z ENDP	; CExAcctInput::MoveWindow
_TEXT	ENDS
; Function compile flags: /Ogtp
; File D:\git\src\IBK\IBK_DRFN\ProjSrc\SrcDrfn\Chart\ExControl\ExAcctInput.cpp
; File D:\git\src\IBK\IBK_DRFN\ProjSrc\SrcDrfn\Chart\ExControl\Include\LoadHelper.h
; File D:\git\src\IBK\IBK_DRFN\ProjSrc\SrcDrfn\Chart\ExControl\ExAcctInput.cpp
;	COMDAT ?MoveWindow@CExAcctInput@@QAEXHHHHH@Z
_TEXT	SEGMENT
_x$ = 8							; size = 4
_y$ = 12						; size = 4
_nWidth$ = 16						; size = 4
_nHeight$ = 20						; size = 4
_bRepaint$ = 24						; size = 4
?MoveWindow@CExAcctInput@@QAEXHHHHH@Z PROC		; CExAcctInput::MoveWindow, COMDAT
; _this$ = ecx

; 452  : {

  00000	55		 push	 ebp
  00001	8b ec		 mov	 ebp, esp

; 453  : 	m_pLoader->MoveWindow(x, y, nWidth, nHeight, bRepaint);

  00003	8b 41 04	 mov	 eax, DWORD PTR [ecx+4]
; File D:\git\src\IBK\IBK_DRFN\ProjSrc\SrcDrfn\Chart\ExControl\Include\LoadHelper.h

; 1769 : 		if(!m_hLib)

  00006	83 78 04 00	 cmp	 DWORD PTR [eax+4], 0
  0000a	74 20		 je	 SHORT $LN3@MoveWindow

; 1770 : 			return;
; 1771 : 
; 1772 : 		pMoveWindow(m_lpPointer, x, y, nWidth, nHeight, bRepaint);

  0000c	ff 75 18	 push	 DWORD PTR _bRepaint$[ebp]
  0000f	ff 75 14	 push	 DWORD PTR _nHeight$[ebp]
  00012	ff 75 10	 push	 DWORD PTR _nWidth$[ebp]
  00015	ff 75 0c	 push	 DWORD PTR _y$[ebp]
  00018	ff 75 08	 push	 DWORD PTR _x$[ebp]
  0001b	ff b0 0c 01 00
	00		 push	 DWORD PTR [eax+268]
  00021	8b 80 44 01 00
	00		 mov	 eax, DWORD PTR [eax+324]
  00027	ff d0		 call	 eax
  00029	83 c4 18	 add	 esp, 24			; 00000018H
$LN3@MoveWindow:
; File D:\git\src\IBK\IBK_DRFN\ProjSrc\SrcDrfn\Chart\ExControl\ExAcctInput.cpp

; 454  : }

  0002c	5d		 pop	 ebp
  0002d	c2 14 00	 ret	 20			; 00000014H
?MoveWindow@CExAcctInput@@QAEXHHHHH@Z ENDP		; CExAcctInput::MoveWindow
_TEXT	ENDS
; Function compile flags: /Ogtp
; File D:\git\src\IBK\IBK_DRFN\ProjSrc\SrcDrfn\Chart\ExControl\ExAcctInput.cpp
; File D:\git\src\IBK\IBK_DRFN\ProjSrc\SrcDrfn\Chart\ExControl\Include\LoadHelper.h
; File D:\git\src\IBK\IBK_DRFN\ProjSrc\SrcDrfn\Chart\ExControl\ExAcctInput.cpp
;	COMDAT ?GetText@CExAcctInput@@QAE?AV?$CStringT@DV?$StrTraitMFC_DLL@DV?$ChTraitsCRT@D@ATL@@@@@ATL@@XZ
_TEXT	SEGMENT
$T2 = -16						; size = 4
__$EHRec$ = -12						; size = 12
___$ReturnUdt$ = 8					; size = 4
?GetText@CExAcctInput@@QAE?AV?$CStringT@DV?$StrTraitMFC_DLL@DV?$ChTraitsCRT@D@ATL@@@@@ATL@@XZ PROC ; CExAcctInput::GetText, COMDAT
; _this$ = ecx

; 442  : {

  00000	55		 push	 ebp
  00001	8b ec		 mov	 ebp, esp
  00003	6a ff		 push	 -1
  00005	68 00 00 00 00	 push	 __ehhandler$?GetText@CExAcctInput@@QAE?AV?$CStringT@DV?$StrTraitMFC_DLL@DV?$ChTraitsCRT@D@ATL@@@@@ATL@@XZ
  0000a	64 a1 00 00 00
	00		 mov	 eax, DWORD PTR fs:0
  00010	50		 push	 eax
  00011	51		 push	 ecx
  00012	56		 push	 esi
  00013	a1 00 00 00 00	 mov	 eax, DWORD PTR ___security_cookie
  00018	33 c5		 xor	 eax, ebp
  0001a	50		 push	 eax
  0001b	8d 45 f4	 lea	 eax, DWORD PTR __$EHRec$[ebp]
  0001e	64 a3 00 00 00
	00		 mov	 DWORD PTR fs:0, eax

; 443  : 	return m_pLoader->GetText();

  00024	8b 41 04	 mov	 eax, DWORD PTR [ecx+4]
; File D:\git\src\IBK\IBK_DRFN\ProjSrc\SrcDrfn\Chart\ExControl\Include\LoadHelper.h

; 1745 : 		if(!m_hLib)

  00027	83 78 04 00	 cmp	 DWORD PTR [eax+4], 0
  0002b	75 10		 jne	 SHORT $LN6@GetText

; 1746 : 			return _T("");

  0002d	8b 4d 08	 mov	 ecx, DWORD PTR ___$ReturnUdt$[ebp]
  00030	68 00 00 00 00	 push	 OFFSET ??_C@_00CNPNBAHC@@
  00035	ff 15 00 00 00
	00		 call	 DWORD PTR __imp_??0?$CStringT@DV?$StrTraitMFC_DLL@DV?$ChTraitsCRT@D@ATL@@@@@ATL@@QAE@PBD@Z
  0003b	eb 2c		 jmp	 SHORT $LN12@GetText
$LN6@GetText:

; 1747 : 
; 1748 : 		return pGetText(m_lpPointer);

  0003d	ff b0 0c 01 00
	00		 push	 DWORD PTR [eax+268]
  00043	8b 80 3c 01 00
	00		 mov	 eax, DWORD PTR [eax+316]
  00049	8d 4d f0	 lea	 ecx, DWORD PTR $T2[ebp]
  0004c	51		 push	 ecx
  0004d	ff d0		 call	 eax
  0004f	8b 4d 08	 mov	 ecx, DWORD PTR ___$ReturnUdt$[ebp]
  00052	50		 push	 eax
  00053	c7 45 fc 00 00
	00 00		 mov	 DWORD PTR __$EHRec$[ebp+8], 0
  0005a	ff 15 00 00 00
	00		 call	 DWORD PTR __imp_??0?$CStringT@DV?$StrTraitMFC_DLL@DV?$ChTraitsCRT@D@ATL@@@@@ATL@@QAE@ABV01@@Z
  00060	8d 4d f0	 lea	 ecx, DWORD PTR $T2[ebp]
  00063	ff 15 00 00 00
	00		 call	 DWORD PTR __imp_??1?$CStringT@DV?$StrTraitMFC_DLL@DV?$ChTraitsCRT@D@ATL@@@@@ATL@@QAE@XZ
$LN12@GetText:
; File D:\git\src\IBK\IBK_DRFN\ProjSrc\SrcDrfn\Chart\ExControl\ExAcctInput.cpp

; 444  : }

  00069	8b 45 08	 mov	 eax, DWORD PTR ___$ReturnUdt$[ebp]
  0006c	8b 4d f4	 mov	 ecx, DWORD PTR __$EHRec$[ebp]
  0006f	64 89 0d 00 00
	00 00		 mov	 DWORD PTR fs:0, ecx
  00076	59		 pop	 ecx
  00077	5e		 pop	 esi
  00078	8b e5		 mov	 esp, ebp
  0007a	5d		 pop	 ebp
  0007b	c2 04 00	 ret	 4
_TEXT	ENDS
;	COMDAT text$x
text$x	SEGMENT
__unwindfunclet$?GetText@CExAcctInput@@QAE?AV?$CStringT@DV?$StrTraitMFC_DLL@DV?$ChTraitsCRT@D@ATL@@@@@ATL@@XZ$2:
  00000	8d 4d f0	 lea	 ecx, DWORD PTR $T2[ebp]
  00003	ff 25 00 00 00
	00		 jmp	 DWORD PTR __imp_??1?$CStringT@DV?$StrTraitMFC_DLL@DV?$ChTraitsCRT@D@ATL@@@@@ATL@@QAE@XZ
  00009	cc		 int	 3
  0000a	cc		 int	 3
  0000b	cc		 int	 3
  0000c	cc		 int	 3
  0000d	cc		 int	 3
__ehhandler$?GetText@CExAcctInput@@QAE?AV?$CStringT@DV?$StrTraitMFC_DLL@DV?$ChTraitsCRT@D@ATL@@@@@ATL@@XZ:
  0000e	90		 npad	 1
  0000f	90		 npad	 1
  00010	8b 54 24 08	 mov	 edx, DWORD PTR [esp+8]
  00014	8d 42 0c	 lea	 eax, DWORD PTR [edx+12]
  00017	8b 4a f4	 mov	 ecx, DWORD PTR [edx-12]
  0001a	33 c8		 xor	 ecx, eax
  0001c	e8 00 00 00 00	 call	 @__security_check_cookie@4
  00021	b8 00 00 00 00	 mov	 eax, OFFSET __ehfuncinfo$?GetText@CExAcctInput@@QAE?AV?$CStringT@DV?$StrTraitMFC_DLL@DV?$ChTraitsCRT@D@ATL@@@@@ATL@@XZ
  00026	e9 00 00 00 00	 jmp	 ___CxxFrameHandler3
text$x	ENDS
?GetText@CExAcctInput@@QAE?AV?$CStringT@DV?$StrTraitMFC_DLL@DV?$ChTraitsCRT@D@ATL@@@@@ATL@@XZ ENDP ; CExAcctInput::GetText
; Function compile flags: /Ogtp
; File D:\git\src\IBK\IBK_DRFN\ProjSrc\SrcDrfn\Chart\ExControl\ExAcctInput.cpp
; File D:\git\src\IBK\IBK_DRFN\ProjSrc\SrcDrfn\Chart\ExControl\Include\LoadHelper.h
; File D:\git\src\IBK\IBK_DRFN\ProjSrc\SrcDrfn\Chart\ExControl\ExAcctInput.cpp
;	COMDAT ?SetText@CExAcctInput@@QAEXPBD@Z
_TEXT	SEGMENT
_lpszText$ = 8						; size = 4
?SetText@CExAcctInput@@QAEXPBD@Z PROC			; CExAcctInput::SetText, COMDAT
; _this$ = ecx

; 447  : {

  00000	55		 push	 ebp
  00001	8b ec		 mov	 ebp, esp

; 448  : 	m_pLoader->SetText(lpszText);

  00003	8b 41 04	 mov	 eax, DWORD PTR [ecx+4]
; File D:\git\src\IBK\IBK_DRFN\ProjSrc\SrcDrfn\Chart\ExControl\Include\LoadHelper.h

; 1761 : 		if(!m_hLib)

  00006	83 78 04 00	 cmp	 DWORD PTR [eax+4], 0
  0000a	74 14		 je	 SHORT $LN3@SetText

; 1762 : 			return;
; 1763 : 
; 1764 : 		pSetText(m_lpPointer, lpszText);

  0000c	ff 75 08	 push	 DWORD PTR _lpszText$[ebp]
  0000f	ff b0 0c 01 00
	00		 push	 DWORD PTR [eax+268]
  00015	8b 80 38 01 00
	00		 mov	 eax, DWORD PTR [eax+312]
  0001b	ff d0		 call	 eax
  0001d	83 c4 08	 add	 esp, 8
$LN3@SetText:
; File D:\git\src\IBK\IBK_DRFN\ProjSrc\SrcDrfn\Chart\ExControl\ExAcctInput.cpp

; 449  : }

  00020	5d		 pop	 ebp
  00021	c2 04 00	 ret	 4
?SetText@CExAcctInput@@QAEXPBD@Z ENDP			; CExAcctInput::SetText
_TEXT	ENDS
; Function compile flags: /Ogtp
; File D:\git\src\IBK\IBK_DRFN\ProjSrc\SrcDrfn\Chart\ExControl\ExAcctInput.cpp
; File D:\git\src\IBK\IBK_DRFN\ProjSrc\SrcDrfn\Chart\ExControl\Include\LoadHelper.h
; File D:\git\src\IBK\IBK_DRFN\ProjSrc\SrcDrfn\Chart\ExControl\ExAcctInput.cpp
;	COMDAT ?GetDataText@CExAcctInput@@QAE?AV?$CStringT@DV?$StrTraitMFC_DLL@DV?$ChTraitsCRT@D@ATL@@@@@ATL@@XZ
_TEXT	SEGMENT
$T2 = -16						; size = 4
__$EHRec$ = -12						; size = 12
___$ReturnUdt$ = 8					; size = 4
?GetDataText@CExAcctInput@@QAE?AV?$CStringT@DV?$StrTraitMFC_DLL@DV?$ChTraitsCRT@D@ATL@@@@@ATL@@XZ PROC ; CExAcctInput::GetDataText, COMDAT
; _this$ = ecx

; 437  : {

  00000	55		 push	 ebp
  00001	8b ec		 mov	 ebp, esp
  00003	6a ff		 push	 -1
  00005	68 00 00 00 00	 push	 __ehhandler$?GetDataText@CExAcctInput@@QAE?AV?$CStringT@DV?$StrTraitMFC_DLL@DV?$ChTraitsCRT@D@ATL@@@@@ATL@@XZ
  0000a	64 a1 00 00 00
	00		 mov	 eax, DWORD PTR fs:0
  00010	50		 push	 eax
  00011	51		 push	 ecx
  00012	56		 push	 esi
  00013	a1 00 00 00 00	 mov	 eax, DWORD PTR ___security_cookie
  00018	33 c5		 xor	 eax, ebp
  0001a	50		 push	 eax
  0001b	8d 45 f4	 lea	 eax, DWORD PTR __$EHRec$[ebp]
  0001e	64 a3 00 00 00
	00		 mov	 DWORD PTR fs:0, eax

; 438  : 	return m_pLoader->GetDataText();

  00024	8b 41 04	 mov	 eax, DWORD PTR [ecx+4]
; File D:\git\src\IBK\IBK_DRFN\ProjSrc\SrcDrfn\Chart\ExControl\Include\LoadHelper.h

; 1753 : 		if(!m_hLib)

  00027	83 78 04 00	 cmp	 DWORD PTR [eax+4], 0
  0002b	75 10		 jne	 SHORT $LN6@GetDataTex

; 1754 : 			return _T("");

  0002d	8b 4d 08	 mov	 ecx, DWORD PTR ___$ReturnUdt$[ebp]
  00030	68 00 00 00 00	 push	 OFFSET ??_C@_00CNPNBAHC@@
  00035	ff 15 00 00 00
	00		 call	 DWORD PTR __imp_??0?$CStringT@DV?$StrTraitMFC_DLL@DV?$ChTraitsCRT@D@ATL@@@@@ATL@@QAE@PBD@Z
  0003b	eb 2c		 jmp	 SHORT $LN12@GetDataTex
$LN6@GetDataTex:

; 1755 : 
; 1756 : 		return pGetDataText(m_lpPointer);

  0003d	ff b0 0c 01 00
	00		 push	 DWORD PTR [eax+268]
  00043	8b 80 40 01 00
	00		 mov	 eax, DWORD PTR [eax+320]
  00049	8d 4d f0	 lea	 ecx, DWORD PTR $T2[ebp]
  0004c	51		 push	 ecx
  0004d	ff d0		 call	 eax
  0004f	8b 4d 08	 mov	 ecx, DWORD PTR ___$ReturnUdt$[ebp]
  00052	50		 push	 eax
  00053	c7 45 fc 00 00
	00 00		 mov	 DWORD PTR __$EHRec$[ebp+8], 0
  0005a	ff 15 00 00 00
	00		 call	 DWORD PTR __imp_??0?$CStringT@DV?$StrTraitMFC_DLL@DV?$ChTraitsCRT@D@ATL@@@@@ATL@@QAE@ABV01@@Z
  00060	8d 4d f0	 lea	 ecx, DWORD PTR $T2[ebp]
  00063	ff 15 00 00 00
	00		 call	 DWORD PTR __imp_??1?$CStringT@DV?$StrTraitMFC_DLL@DV?$ChTraitsCRT@D@ATL@@@@@ATL@@QAE@XZ
$LN12@GetDataTex:
; File D:\git\src\IBK\IBK_DRFN\ProjSrc\SrcDrfn\Chart\ExControl\ExAcctInput.cpp

; 439  : }

  00069	8b 45 08	 mov	 eax, DWORD PTR ___$ReturnUdt$[ebp]
  0006c	8b 4d f4	 mov	 ecx, DWORD PTR __$EHRec$[ebp]
  0006f	64 89 0d 00 00
	00 00		 mov	 DWORD PTR fs:0, ecx
  00076	59		 pop	 ecx
  00077	5e		 pop	 esi
  00078	8b e5		 mov	 esp, ebp
  0007a	5d		 pop	 ebp
  0007b	c2 04 00	 ret	 4
_TEXT	ENDS
;	COMDAT text$x
text$x	SEGMENT
__unwindfunclet$?GetDataText@CExAcctInput@@QAE?AV?$CStringT@DV?$StrTraitMFC_DLL@DV?$ChTraitsCRT@D@ATL@@@@@ATL@@XZ$2:
  00000	8d 4d f0	 lea	 ecx, DWORD PTR $T2[ebp]
  00003	ff 25 00 00 00
	00		 jmp	 DWORD PTR __imp_??1?$CStringT@DV?$StrTraitMFC_DLL@DV?$ChTraitsCRT@D@ATL@@@@@ATL@@QAE@XZ
  00009	cc		 int	 3
  0000a	cc		 int	 3
  0000b	cc		 int	 3
  0000c	cc		 int	 3
  0000d	cc		 int	 3
__ehhandler$?GetDataText@CExAcctInput@@QAE?AV?$CStringT@DV?$StrTraitMFC_DLL@DV?$ChTraitsCRT@D@ATL@@@@@ATL@@XZ:
  0000e	90		 npad	 1
  0000f	90		 npad	 1
  00010	8b 54 24 08	 mov	 edx, DWORD PTR [esp+8]
  00014	8d 42 0c	 lea	 eax, DWORD PTR [edx+12]
  00017	8b 4a f4	 mov	 ecx, DWORD PTR [edx-12]
  0001a	33 c8		 xor	 ecx, eax
  0001c	e8 00 00 00 00	 call	 @__security_check_cookie@4
  00021	b8 00 00 00 00	 mov	 eax, OFFSET __ehfuncinfo$?GetDataText@CExAcctInput@@QAE?AV?$CStringT@DV?$StrTraitMFC_DLL@DV?$ChTraitsCRT@D@ATL@@@@@ATL@@XZ
  00026	e9 00 00 00 00	 jmp	 ___CxxFrameHandler3
text$x	ENDS
?GetDataText@CExAcctInput@@QAE?AV?$CStringT@DV?$StrTraitMFC_DLL@DV?$ChTraitsCRT@D@ATL@@@@@ATL@@XZ ENDP ; CExAcctInput::GetDataText
; Function compile flags: /Ogtp
; File D:\git\src\IBK\IBK_DRFN\ProjSrc\SrcDrfn\Chart\ExControl\ExAcctInput.cpp
; File D:\git\src\IBK\IBK_DRFN\ProjSrc\SrcDrfn\Chart\ExControl\Include\LoadHelper.h
; File D:\git\src\IBK\IBK_DRFN\ProjSrc\SrcDrfn\Chart\ExControl\ExAcctInput.cpp
; File D:\git\src\IBK\IBK_DRFN\ProjSrc\SrcDrfn\Chart\ExControl\Include\LoadHelper.h
; File D:\git\src\IBK\IBK_DRFN\ProjSrc\SrcDrfn\Chart\ExControl\ExAcctInput.cpp
;	COMDAT ?GetSafeHwnd@CExAcctInput@@QAEPAUHWND__@@XZ
_TEXT	SEGMENT
?GetSafeHwnd@CExAcctInput@@QAEPAUHWND__@@XZ PROC	; CExAcctInput::GetSafeHwnd, COMDAT
; _this$ = ecx

; 433  : 	return m_pLoader->GetSafeHwnd();

  00000	8b 41 04	 mov	 eax, DWORD PTR [ecx+4]
; File D:\git\src\IBK\IBK_DRFN\ProjSrc\SrcDrfn\Chart\ExControl\Include\LoadHelper.h

; 1737 : 		if(!m_hLib)

  00003	83 78 04 00	 cmp	 DWORD PTR [eax+4], 0
  00007	75 03		 jne	 SHORT $LN4@GetSafeHwn
; File D:\git\src\IBK\IBK_DRFN\ProjSrc\SrcDrfn\Chart\ExControl\ExAcctInput.cpp

; 433  : 	return m_pLoader->GetSafeHwnd();

  00009	33 c0		 xor	 eax, eax

; 434  : }

  0000b	c3		 ret	 0
$LN4@GetSafeHwn:
; File D:\git\src\IBK\IBK_DRFN\ProjSrc\SrcDrfn\Chart\ExControl\Include\LoadHelper.h

; 1740 : 		return pGetSafeHwnd(m_lpPointer);

  0000c	ff b0 0c 01 00
	00		 push	 DWORD PTR [eax+268]
  00012	8b 80 34 01 00
	00		 mov	 eax, DWORD PTR [eax+308]
  00018	ff d0		 call	 eax
  0001a	83 c4 04	 add	 esp, 4
; File D:\git\src\IBK\IBK_DRFN\ProjSrc\SrcDrfn\Chart\ExControl\ExAcctInput.cpp

; 434  : }

  0001d	c3		 ret	 0
?GetSafeHwnd@CExAcctInput@@QAEPAUHWND__@@XZ ENDP	; CExAcctInput::GetSafeHwnd
_TEXT	ENDS
; Function compile flags: /Ogtp
; File D:\git\src\IBK\IBK_DRFN\ProjSrc\SrcDrfn\Chart\ExControl\ExAcctInput.cpp
; File D:\git\src\IBK\IBK_DRFN\ProjSrc\SrcDrfn\Chart\ExControl\Include\LoadHelper.h
; File D:\git\src\IBK\IBK_DRFN\ProjSrc\SrcDrfn\Chart\ExControl\ExAcctInput.cpp
; File D:\git\src\IBK\IBK_DRFN\ProjSrc\SrcDrfn\Chart\ExControl\Include\LoadHelper.h
; File D:\git\src\IBK\IBK_DRFN\ProjSrc\SrcDrfn\Chart\ExControl\ExAcctInput.cpp
;	COMDAT ?GetHWnd@CExAcctInput@@QAEIXZ
_TEXT	SEGMENT
?GetHWnd@CExAcctInput@@QAEIXZ PROC			; CExAcctInput::GetHWnd, COMDAT
; _this$ = ecx

; 428  : 	return m_pLoader->GetHWnd();

  00000	8b 41 04	 mov	 eax, DWORD PTR [ecx+4]
; File D:\git\src\IBK\IBK_DRFN\ProjSrc\SrcDrfn\Chart\ExControl\Include\LoadHelper.h

; 1729 : 		if(!m_hLib)

  00003	83 78 04 00	 cmp	 DWORD PTR [eax+4], 0
  00007	75 03		 jne	 SHORT $LN4@GetHWnd
; File D:\git\src\IBK\IBK_DRFN\ProjSrc\SrcDrfn\Chart\ExControl\ExAcctInput.cpp

; 428  : 	return m_pLoader->GetHWnd();

  00009	33 c0		 xor	 eax, eax

; 429  : }

  0000b	c3		 ret	 0
$LN4@GetHWnd:
; File D:\git\src\IBK\IBK_DRFN\ProjSrc\SrcDrfn\Chart\ExControl\Include\LoadHelper.h

; 1732 : 		return pGetHWnd(m_lpPointer);

  0000c	ff b0 0c 01 00
	00		 push	 DWORD PTR [eax+268]
  00012	8b 80 30 01 00
	00		 mov	 eax, DWORD PTR [eax+304]
  00018	ff d0		 call	 eax
  0001a	83 c4 04	 add	 esp, 4
; File D:\git\src\IBK\IBK_DRFN\ProjSrc\SrcDrfn\Chart\ExControl\ExAcctInput.cpp

; 429  : }

  0001d	c3		 ret	 0
?GetHWnd@CExAcctInput@@QAEIXZ ENDP			; CExAcctInput::GetHWnd
_TEXT	ENDS
; Function compile flags: /Ogtp
; File D:\git\src\IBK\IBK_DRFN\ProjSrc\SrcDrfn\Chart\ExControl\ExAcctInput.cpp
; File D:\git\src\IBK\IBK_DRFN\ProjSrc\SrcDrfn\Chart\ExControl\Include\LoadHelper.h
; File D:\git\src\IBK\IBK_DRFN\ProjSrc\SrcDrfn\Chart\ExControl\ExAcctInput.cpp
;	COMDAT ?SetFocus@CExAcctInput@@QAEXXZ
_TEXT	SEGMENT
?SetFocus@CExAcctInput@@QAEXXZ PROC			; CExAcctInput::SetFocus, COMDAT
; _this$ = ecx

; 423  : 	m_pLoader->SetFocus();

  00000	8b 41 04	 mov	 eax, DWORD PTR [ecx+4]
; File D:\git\src\IBK\IBK_DRFN\ProjSrc\SrcDrfn\Chart\ExControl\Include\LoadHelper.h

; 1721 : 		if(!m_hLib)

  00003	83 78 04 00	 cmp	 DWORD PTR [eax+4], 0
  00007	74 0f		 je	 SHORT $LN3@SetFocus

; 1722 : 			return;
; 1723 : 		
; 1724 : 		pSetFocus(m_lpPointer);

  00009	ff b0 0c 01 00
	00		 push	 DWORD PTR [eax+268]
  0000f	8b 80 2c 01 00
	00		 mov	 eax, DWORD PTR [eax+300]
  00015	ff d0		 call	 eax
  00017	59		 pop	 ecx
$LN3@SetFocus:
; File D:\git\src\IBK\IBK_DRFN\ProjSrc\SrcDrfn\Chart\ExControl\ExAcctInput.cpp

; 424  : }

  00018	c3		 ret	 0
?SetFocus@CExAcctInput@@QAEXXZ ENDP			; CExAcctInput::SetFocus
_TEXT	ENDS
; Function compile flags: /Ogtp
; File D:\git\src\IBK\IBK_DRFN\ProjSrc\SrcDrfn\Chart\ExControl\ExAcctInput.cpp
; File D:\git\src\IBK\IBK_DRFN\ProjSrc\SrcDrfn\Chart\ExControl\Include\LoadHelper.h
; File D:\git\src\IBK\IBK_DRFN\ProjSrc\SrcDrfn\Chart\ExControl\ExAcctInput.cpp
; File D:\git\src\IBK\IBK_DRFN\ProjSrc\SrcDrfn\Chart\ExControl\Include\LoadHelper.h
; File D:\git\src\IBK\IBK_DRFN\ProjSrc\SrcDrfn\Chart\ExControl\ExAcctInput.cpp
;	COMDAT ?GetBase@CExAcctInput@@QAEJPBD@Z
_TEXT	SEGMENT
_lpszKey$ = 8						; size = 4
?GetBase@CExAcctInput@@QAEJPBD@Z PROC			; CExAcctInput::GetBase, COMDAT
; _this$ = ecx

; 417  : {

  00000	55		 push	 ebp
  00001	8b ec		 mov	 ebp, esp

; 418  : 	return m_pLoader->GetBase(lpszKey);

  00003	8b 41 04	 mov	 eax, DWORD PTR [ecx+4]
; File D:\git\src\IBK\IBK_DRFN\ProjSrc\SrcDrfn\Chart\ExControl\Include\LoadHelper.h

; 1713 : 		if(!m_hLib)

  00006	83 78 04 00	 cmp	 DWORD PTR [eax+4], 0
  0000a	75 06		 jne	 SHORT $LN4@GetBase
; File D:\git\src\IBK\IBK_DRFN\ProjSrc\SrcDrfn\Chart\ExControl\ExAcctInput.cpp

; 418  : 	return m_pLoader->GetBase(lpszKey);

  0000c	33 c0		 xor	 eax, eax

; 419  : }

  0000e	5d		 pop	 ebp
  0000f	c2 04 00	 ret	 4
$LN4@GetBase:
; File D:\git\src\IBK\IBK_DRFN\ProjSrc\SrcDrfn\Chart\ExControl\Include\LoadHelper.h

; 1716 : 		return pGetBase(m_lpPointer, lpszKey);

  00012	ff 75 08	 push	 DWORD PTR _lpszKey$[ebp]
  00015	ff b0 0c 01 00
	00		 push	 DWORD PTR [eax+268]
  0001b	8b 80 28 01 00
	00		 mov	 eax, DWORD PTR [eax+296]
  00021	ff d0		 call	 eax
  00023	83 c4 08	 add	 esp, 8
; File D:\git\src\IBK\IBK_DRFN\ProjSrc\SrcDrfn\Chart\ExControl\ExAcctInput.cpp

; 419  : }

  00026	5d		 pop	 ebp
  00027	c2 04 00	 ret	 4
?GetBase@CExAcctInput@@QAEJPBD@Z ENDP			; CExAcctInput::GetBase
_TEXT	ENDS
; Function compile flags: /Ogtp
; File D:\git\src\IBK\IBK_DRFN\ProjSrc\SrcDrfn\Chart\ExControl\ExAcctInput.cpp
; File D:\git\src\IBK\IBK_DRFN\ProjSrc\SrcDrfn\Chart\ExControl\Include\LoadHelper.h
; File C:\Program Files (x86)\Microsoft Visual Studio\2019\Community\VC\Tools\MSVC\14.29.30133\atlmfc\include\afxwin2.inl
; File D:\git\src\IBK\IBK_DRFN\ProjSrc\SrcDrfn\Chart\ExControl\ExAcctInput.cpp
;	COMDAT ?InvokeEvent@CExAcctInput@@UAEHPBD0@Z
_TEXT	SEGMENT
_stEvent$ = -8						; size = 8
_lpszEventName$ = 8					; size = 4
_lpszParam$ = 12					; size = 4
?InvokeEvent@CExAcctInput@@UAEHPBD0@Z PROC		; CExAcctInput::InvokeEvent, COMDAT
; _this$ = ecx

; 224  : {

  00000	55		 push	 ebp
  00001	8b ec		 mov	 ebp, esp
  00003	83 ec 08	 sub	 esp, 8

; 225  : 	ST_CTRLEVENT stEvent;
; 226  : 	stEvent.lpszEventName = lpszEventName;

  00006	8b 45 08	 mov	 eax, DWORD PTR _lpszEventName$[ebp]
  00009	56		 push	 esi
  0000a	8b f1		 mov	 esi, ecx
  0000c	89 45 f8	 mov	 DWORD PTR _stEvent$[ebp], eax

; 227  : 	stEvent.lpszParam = lpszParam;

  0000f	8b 45 0c	 mov	 eax, DWORD PTR _lpszParam$[ebp]
  00012	89 45 fc	 mov	 DWORD PTR _stEvent$[ebp+4], eax

; 228  : 
; 229  : 	if(m_pParent)

  00015	8b 4e 08	 mov	 ecx, DWORD PTR [esi+8]
  00018	85 c9		 test	 ecx, ecx
  0001a	74 35		 je	 SHORT $LN11@InvokeEven

; 433  : 	return m_pLoader->GetSafeHwnd();

  0001c	8b 46 04	 mov	 eax, DWORD PTR [esi+4]
; File D:\git\src\IBK\IBK_DRFN\ProjSrc\SrcDrfn\Chart\ExControl\Include\LoadHelper.h

; 1737 : 		if(!m_hLib)

  0001f	83 78 04 00	 cmp	 DWORD PTR [eax+4], 0
  00023	75 04		 jne	 SHORT $LN7@InvokeEven

; 1738 : 			return 0;

  00025	33 c0		 xor	 eax, eax
  00027	eb 14		 jmp	 SHORT $LN6@InvokeEven
$LN7@InvokeEven:

; 1739 : 		
; 1740 : 		return pGetSafeHwnd(m_lpPointer);

  00029	ff b0 0c 01 00
	00		 push	 DWORD PTR [eax+268]
  0002f	8b 80 34 01 00
	00		 mov	 eax, DWORD PTR [eax+308]
  00035	ff d0		 call	 eax
  00037	8b 4e 08	 mov	 ecx, DWORD PTR [esi+8]
  0003a	83 c4 04	 add	 esp, 4
$LN6@InvokeEven:
; File C:\Program Files (x86)\Microsoft Visual Studio\2019\Community\VC\Tools\MSVC\14.29.30133\atlmfc\include\afxwin2.inl

; 32   : 	{ ASSERT(::IsWindow(m_hWnd)); return ::SendMessage(m_hWnd, message, wParam, lParam); }

  0003d	8d 55 f8	 lea	 edx, DWORD PTR _stEvent$[ebp]
  00040	52		 push	 edx
  00041	50		 push	 eax
  00042	ff 35 00 00 00
	00		 push	 DWORD PTR ?RMSG_EVENT_ACCTINPUT@@3IB
  00048	ff 71 20	 push	 DWORD PTR [ecx+32]
  0004b	ff 15 00 00 00
	00		 call	 DWORD PTR __imp__SendMessageA@16
$LN11@InvokeEven:
; File D:\git\src\IBK\IBK_DRFN\ProjSrc\SrcDrfn\Chart\ExControl\ExAcctInput.cpp

; 233  : }

  00051	b8 01 00 00 00	 mov	 eax, 1
  00056	5e		 pop	 esi
  00057	8b e5		 mov	 esp, ebp
  00059	5d		 pop	 ebp
  0005a	c2 08 00	 ret	 8
?InvokeEvent@CExAcctInput@@UAEHPBD0@Z ENDP		; CExAcctInput::InvokeEvent
_TEXT	ENDS
; Function compile flags: /Ogtp
; File D:\git\src\IBK\IBK_DRFN\ProjSrc\SrcDrfn\Chart\ExControl\ExAcctInput.cpp
; File C:\Program Files (x86)\Microsoft Visual Studio\2019\Community\VC\Tools\MSVC\14.29.30133\atlmfc\include\atltypes.h
; File D:\git\src\IBK\IBK_DRFN\ProjSrc\SrcDrfn\Chart\ExControl\ExAcctInput.cpp
; File C:\Program Files (x86)\Microsoft Visual Studio\2019\Community\VC\Tools\MSVC\14.29.30133\atlmfc\include\afxwin2.inl
; File D:\git\src\IBK\IBK_DRFN\ProjSrc\SrcDrfn\Chart\ExControl\ExAcctInput.cpp
; File D:\git\src\IBK\IBK_DRFN\ProjSrc\SrcDrfn\Chart\ExControl\Include\LoadHelper.h
; File D:\git\src\IBK\IBK_DRFN\ProjSrc\SrcDrfn\Chart\ExControl\ExAcctInput.cpp
; File C:\Program Files (x86)\Microsoft Visual Studio\2019\Community\VC\Tools\MSVC\14.29.30133\atlmfc\include\afxwin2.inl
; File D:\git\src\IBK\IBK_DRFN\ProjSrc\SrcDrfn\Chart\ExControl\ExAcctInput.cpp
; File D:\git\src\IBK\IBK_DRFN\ProjSrc\SrcDrfn\Chart\ExControl\Include\LoadHelper.h
; File D:\git\src\IBK\IBK_DRFN\ProjSrc\SrcDrfn\Chart\ExControl\ExAcctInput.cpp
; File D:\git\src\IBK\IBK_DRFN\ProjSrc\SrcDrfn\Chart\ExControl\Include\LoadHelper.h
; File D:\git\src\IBK\IBK_DRFN\ProjSrc\SrcDrfn\Chart\ExControl\ExAcctInput.cpp
; File D:\git\src\IBK\IBK_DRFN\ProjSrc\SrcDrfn\Chart\ExControl\Include\LoadHelper.h
; File D:\git\src\IBK\IBK_DRFN\ProjSrc\SrcDrfn\Chart\ExControl\ExAcctInput.cpp
;	COMDAT ?InitAcctInput@CExAcctInput@@QAEHPAVCDialog@@IPBDPAVCBaseDesk2@@@Z
_TEXT	SEGMENT
_lpszProperties$GSCopy$1$ = -28				; size = 4
_nID$GSCopy$1$ = -24					; size = 4
_rcControl$ = -20					; size = 16
__$ArrayPad$ = -4					; size = 4
_pParent$ = 8						; size = 4
_nID$ = 12						; size = 4
_lpszProperties$ = 16					; size = 4
_pBaseDesk$ = 20					; size = 4
?InitAcctInput@CExAcctInput@@QAEHPAVCDialog@@IPBDPAVCBaseDesk2@@@Z PROC ; CExAcctInput::InitAcctInput, COMDAT
; _this$ = ecx

; 331  : {

  00000	55		 push	 ebp
  00001	8b ec		 mov	 ebp, esp
  00003	83 ec 1c	 sub	 esp, 28			; 0000001cH
  00006	a1 00 00 00 00	 mov	 eax, DWORD PTR ___security_cookie
  0000b	33 c5		 xor	 eax, ebp
  0000d	89 45 fc	 mov	 DWORD PTR __$ArrayPad$[ebp], eax
  00010	8b 45 10	 mov	 eax, DWORD PTR _lpszProperties$[ebp]
  00013	0f 57 c0	 xorps	 xmm0, xmm0
  00016	53		 push	 ebx
  00017	8b 5d 0c	 mov	 ebx, DWORD PTR _nID$[ebp]
  0001a	56		 push	 esi
  0001b	8b 75 08	 mov	 esi, DWORD PTR _pParent$[ebp]
  0001e	57		 push	 edi
  0001f	8b f9		 mov	 edi, ecx
  00021	89 5d e8	 mov	 DWORD PTR _nID$GSCopy$1$[ebp], ebx

; 333  : 	pParent->GetDlgItem(nID)->GetWindowRect(rcControl);

  00024	53		 push	 ebx
  00025	8b ce		 mov	 ecx, esi
  00027	89 45 e4	 mov	 DWORD PTR _lpszProperties$GSCopy$1$[ebp], eax
; File C:\Program Files (x86)\Microsoft Visual Studio\2019\Community\VC\Tools\MSVC\14.29.30133\atlmfc\include\atltypes.h

; 528  : 	left = 0;

  0002a	0f 11 45 ec	 movups	 XMMWORD PTR _rcControl$[ebp], xmm0
; File D:\git\src\IBK\IBK_DRFN\ProjSrc\SrcDrfn\Chart\ExControl\ExAcctInput.cpp

; 333  : 	pParent->GetDlgItem(nID)->GetWindowRect(rcControl);

  0002e	e8 00 00 00 00	 call	 ?GetDlgItem@CWnd@@QBEPAV1@H@Z ; CWnd::GetDlgItem
; File C:\Program Files (x86)\Microsoft Visual Studio\2019\Community\VC\Tools\MSVC\14.29.30133\atlmfc\include\afxwin2.inl

; 84   : 	{ ASSERT(::IsWindow(m_hWnd)); ::GetWindowRect(m_hWnd, lpRect); }

  00033	8d 4d ec	 lea	 ecx, DWORD PTR _rcControl$[ebp]
  00036	51		 push	 ecx
  00037	ff 70 20	 push	 DWORD PTR [eax+32]
  0003a	ff 15 00 00 00
	00		 call	 DWORD PTR __imp__GetWindowRect@8
; File D:\git\src\IBK\IBK_DRFN\ProjSrc\SrcDrfn\Chart\ExControl\ExAcctInput.cpp

; 334  : 	pParent->ScreenToClient(rcControl);

  00040	8d 45 ec	 lea	 eax, DWORD PTR _rcControl$[ebp]
  00043	8b ce		 mov	 ecx, esi
  00045	50		 push	 eax
  00046	e8 00 00 00 00	 call	 ?ScreenToClient@CWnd@@QBEXPAUtagRECT@@@Z ; CWnd::ScreenToClient

; 335  : 
; 336  : 	pParent->GetDlgItem(nID)->ShowWindow(SW_HIDE);

  0004b	6a 00		 push	 0
  0004d	53		 push	 ebx
  0004e	8b ce		 mov	 ecx, esi
  00050	e8 00 00 00 00	 call	 ?GetDlgItem@CWnd@@QBEPAV1@H@Z ; CWnd::GetDlgItem
  00055	8b c8		 mov	 ecx, eax
  00057	e8 00 00 00 00	 call	 ?ShowWindow@CWnd@@QAEHH@Z ; CWnd::ShowWindow

; 343  : 	if(m_bCreated)

  0005c	83 7f 0c 00	 cmp	 DWORD PTR [edi+12], 0
  00060	74 1a		 je	 SHORT $LN16@InitAcctIn

; 344  : 		m_pLoader->ExitAcctInput();

  00062	8b 47 04	 mov	 eax, DWORD PTR [edi+4]
; File D:\git\src\IBK\IBK_DRFN\ProjSrc\SrcDrfn\Chart\ExControl\Include\LoadHelper.h

; 1669 : 		if(!m_hLib)

  00065	83 78 04 00	 cmp	 DWORD PTR [eax+4], 0
  00069	74 11		 je	 SHORT $LN16@InitAcctIn

; 1670 : 			return;
; 1671 : 
; 1672 : 		pExitAcctInput(m_lpPointer);

  0006b	ff b0 0c 01 00
	00		 push	 DWORD PTR [eax+268]
  00071	8b 80 14 01 00
	00		 mov	 eax, DWORD PTR [eax+276]
  00077	ff d0		 call	 eax
  00079	83 c4 04	 add	 esp, 4
$LN16@InitAcctIn:
; File D:\git\src\IBK\IBK_DRFN\ProjSrc\SrcDrfn\Chart\ExControl\ExAcctInput.cpp

; 346  : 	if(pBaseDesk)

  0007c	8b 4d 14	 mov	 ecx, DWORD PTR _pBaseDesk$[ebp]
  0007f	89 77 08	 mov	 DWORD PTR [edi+8], esi
  00082	85 c9		 test	 ecx, ecx
  00084	74 09		 je	 SHORT $LN11@InitAcctIn

; 347  : 	{
; 348  : 		m_pParent = pParent;
; 349  : 		m_bCreated = TRUE;

  00086	c7 47 0c 01 00
	00 00		 mov	 DWORD PTR [edi+12], 1

; 350  : 		SetMyBaseDesk2(pBaseDesk);
; 351  : 	}

  0008d	eb 56		 jmp	 SHORT $LN51@InitAcctIn
$LN11@InitAcctIn:

; 352  : 	else
; 353  : 	{
; 354  : 		m_pParent = pParent;
; 355  : 
; 356  : 		while(!pParent->IsKindOf(RUNTIME_CLASS(CExOCXDLL)))

  0008f	e8 00 00 00 00	 call	 ?GetThisClass@CExOCXDLL@@SGPAUCRuntimeClass@@XZ ; CExOCXDLL::GetThisClass
  00094	50		 push	 eax
  00095	8b ce		 mov	 ecx, esi
  00097	e8 00 00 00 00	 call	 ?IsKindOf@CObject@@QBEHPBUCRuntimeClass@@@Z ; CObject::IsKindOf
  0009c	85 c0		 test	 eax, eax
  0009e	75 38		 jne	 SHORT $LN9@InitAcctIn
  000a0	8b 1d 00 00 00
	00		 mov	 ebx, DWORD PTR __imp__IsWindow@4
$LL8@InitAcctIn:
; File C:\Program Files (x86)\Microsoft Visual Studio\2019\Community\VC\Tools\MSVC\14.29.30133\atlmfc\include\afxwin2.inl

; 213  : 	{ ASSERT(::IsWindow(m_hWnd)); return CWnd::FromHandle(::GetParent(m_hWnd)); }

  000a6	ff 76 20	 push	 DWORD PTR [esi+32]
  000a9	ff 15 00 00 00
	00		 call	 DWORD PTR __imp__GetParent@4
  000af	50		 push	 eax
  000b0	e8 00 00 00 00	 call	 ?FromHandle@CWnd@@SGPAV1@PAUHWND__@@@Z ; CWnd::FromHandle
; File D:\git\src\IBK\IBK_DRFN\ProjSrc\SrcDrfn\Chart\ExControl\ExAcctInput.cpp

; 358  : 			pParent = (CDialog*)pParent->GetParent();

  000b5	8b f0		 mov	 esi, eax

; 359  : 			if(!pParent || !IsWindow(pParent->GetSafeHwnd()))

  000b7	85 f6		 test	 esi, esi
  000b9	74 59		 je	 SHORT $LN36@InitAcctIn
  000bb	ff 76 20	 push	 DWORD PTR [esi+32]
  000be	ff d3		 call	 ebx
  000c0	85 c0		 test	 eax, eax
  000c2	74 50		 je	 SHORT $LN36@InitAcctIn

; 352  : 	else
; 353  : 	{
; 354  : 		m_pParent = pParent;
; 355  : 
; 356  : 		while(!pParent->IsKindOf(RUNTIME_CLASS(CExOCXDLL)))

  000c4	e8 00 00 00 00	 call	 ?GetThisClass@CExOCXDLL@@SGPAUCRuntimeClass@@XZ ; CExOCXDLL::GetThisClass
  000c9	50		 push	 eax
  000ca	8b ce		 mov	 ecx, esi
  000cc	e8 00 00 00 00	 call	 ?IsKindOf@CObject@@QBEHPBUCRuntimeClass@@@Z ; CObject::IsKindOf
  000d1	85 c0		 test	 eax, eax
  000d3	74 d1		 je	 SHORT $LL8@InitAcctIn

; 359  : 			if(!pParent || !IsWindow(pParent->GetSafeHwnd()))

  000d5	8b 5d e8	 mov	 ebx, DWORD PTR _nID$GSCopy$1$[ebp]
$LN9@InitAcctIn:

; 360  : 				return FALSE;
; 361  : 		}
; 362  : 
; 363  : 		m_bCreated = TRUE;

  000d8	c7 47 0c 01 00
	00 00		 mov	 DWORD PTR [edi+12], 1

; 237  : 	m_pBaseDesk2 = (CX2000BaseDesk*)pBaseDesk;

  000df	8b 8e f8 01 00
	00		 mov	 ecx, DWORD PTR [esi+504]
$LN51@InitAcctIn:

; 367  : 	LPVOID lpControl = m_pLoader->CreateAcctInput(m_pParent, &rcControl, nID, (long)&m_x2000BaseDesk, lpszProperties);

  000e5	89 4f 24	 mov	 DWORD PTR [edi+36], ecx
  000e8	8b 41 08	 mov	 eax, DWORD PTR [ecx+8]
  000eb	89 47 18	 mov	 DWORD PTR [edi+24], eax
  000ee	8b 41 0c	 mov	 eax, DWORD PTR [ecx+12]
  000f1	89 47 1c	 mov	 DWORD PTR [edi+28], eax
  000f4	8b 41 10	 mov	 eax, DWORD PTR [ecx+16]
  000f7	89 47 20	 mov	 DWORD PTR [edi+32], eax
  000fa	8d 41 04	 lea	 eax, DWORD PTR [ecx+4]
  000fd	50		 push	 eax
  000fe	8d 4f 14	 lea	 ecx, DWORD PTR [edi+20]
  00101	ff 15 00 00 00
	00		 call	 DWORD PTR __imp_??4?$CStringT@DV?$StrTraitMFC_DLL@DV?$ChTraitsCRT@D@ATL@@@@@ATL@@QAEAAV01@ABV01@@Z
  00107	8b 77 04	 mov	 esi, DWORD PTR [edi+4]
; File D:\git\src\IBK\IBK_DRFN\ProjSrc\SrcDrfn\Chart\ExControl\Include\LoadHelper.h

; 1695 : 		if(!m_hLib)

  0010a	83 7e 04 00	 cmp	 DWORD PTR [esi+4], 0
  0010e	75 19		 jne	 SHORT $LN30@InitAcctIn

; 1696 : 			return NULL;

  00110	33 db		 xor	 ebx, ebx
  00112	eb 40		 jmp	 SHORT $LN29@InitAcctIn
$LN36@InitAcctIn:
  00114	5f		 pop	 edi
; File D:\git\src\IBK\IBK_DRFN\ProjSrc\SrcDrfn\Chart\ExControl\ExAcctInput.cpp

; 339  : }

  00115	5e		 pop	 esi
  00116	33 c0		 xor	 eax, eax
  00118	5b		 pop	 ebx
  00119	8b 4d fc	 mov	 ecx, DWORD PTR __$ArrayPad$[ebp]
  0011c	33 cd		 xor	 ecx, ebp
  0011e	e8 00 00 00 00	 call	 @__security_check_cookie@4
  00123	8b e5		 mov	 esp, ebp
  00125	5d		 pop	 ebp
  00126	c2 10 00	 ret	 16			; 00000010H
$LN30@InitAcctIn:
; File D:\git\src\IBK\IBK_DRFN\ProjSrc\SrcDrfn\Chart\ExControl\Include\LoadHelper.h

; 1698 : 		m_lpPointer = pCreateAcctInputString(m_lpPointer, pWnd, pRect, nID, lBaseDesk, lpszProperties);

  00129	ff 75 e4	 push	 DWORD PTR _lpszProperties$GSCopy$1$[ebp]
; File D:\git\src\IBK\IBK_DRFN\ProjSrc\SrcDrfn\Chart\ExControl\ExAcctInput.cpp

; 367  : 	LPVOID lpControl = m_pLoader->CreateAcctInput(m_pParent, &rcControl, nID, (long)&m_x2000BaseDesk, lpszProperties);

  0012c	8d 47 10	 lea	 eax, DWORD PTR [edi+16]
; File D:\git\src\IBK\IBK_DRFN\ProjSrc\SrcDrfn\Chart\ExControl\Include\LoadHelper.h

; 1698 : 		m_lpPointer = pCreateAcctInputString(m_lpPointer, pWnd, pRect, nID, lBaseDesk, lpszProperties);

  0012f	50		 push	 eax
  00130	53		 push	 ebx
  00131	8d 45 ec	 lea	 eax, DWORD PTR _rcControl$[ebp]
  00134	50		 push	 eax
  00135	ff 77 08	 push	 DWORD PTR [edi+8]
  00138	8b 86 20 01 00
	00		 mov	 eax, DWORD PTR [esi+288]
  0013e	ff b6 0c 01 00
	00		 push	 DWORD PTR [esi+268]
  00144	ff d0		 call	 eax
  00146	8b d8		 mov	 ebx, eax
  00148	83 c4 18	 add	 esp, 24			; 00000018H
  0014b	89 9e 0c 01 00
	00		 mov	 DWORD PTR [esi+268], ebx

; 1699 : 		return m_lpPointer;

  00151	8b 77 04	 mov	 esi, DWORD PTR [edi+4]
$LN29@InitAcctIn:

; 1737 : 		if(!m_hLib)

  00154	83 7e 04 00	 cmp	 DWORD PTR [esi+4], 0
  00158	75 04		 jne	 SHORT $LN33@InitAcctIn

; 1738 : 			return 0;

  0015a	33 c0		 xor	 eax, eax
  0015c	eb 11		 jmp	 SHORT $LN32@InitAcctIn
$LN33@InitAcctIn:

; 1739 : 		
; 1740 : 		return pGetSafeHwnd(m_lpPointer);

  0015e	ff b6 0c 01 00
	00		 push	 DWORD PTR [esi+268]
  00164	8b 86 34 01 00
	00		 mov	 eax, DWORD PTR [esi+308]
  0016a	ff d0		 call	 eax
  0016c	83 c4 04	 add	 esp, 4
$LN32@InitAcctIn:
; File D:\git\src\IBK\IBK_DRFN\ProjSrc\SrcDrfn\Chart\ExControl\ExAcctInput.cpp

; 368  : 	::SetPermanentHandle((HANDLE)m_pLoader->GetSafeHwnd(), (CObject*)lpControl);

  0016f	53		 push	 ebx
  00170	50		 push	 eax
  00171	e8 00 00 00 00	 call	 ?SetPermanentHandle@@YAXPAXPAVCObject@@@Z ; SetPermanentHandle

; 339  : }

  00176	8b 4d fc	 mov	 ecx, DWORD PTR __$ArrayPad$[ebp]

; 368  : 	::SetPermanentHandle((HANDLE)m_pLoader->GetSafeHwnd(), (CObject*)lpControl);

  00179	83 c4 08	 add	 esp, 8

; 337  : 
; 338  : 	return InitAcctInput(pParent, rcControl, nID, lpszProperties, pBaseDesk);

  0017c	8b c3		 mov	 eax, ebx

; 339  : }

  0017e	33 cd		 xor	 ecx, ebp
  00180	5f		 pop	 edi
  00181	5e		 pop	 esi
  00182	5b		 pop	 ebx
  00183	e8 00 00 00 00	 call	 @__security_check_cookie@4
  00188	8b e5		 mov	 esp, ebp
  0018a	5d		 pop	 ebp
  0018b	c2 10 00	 ret	 16			; 00000010H
?InitAcctInput@CExAcctInput@@QAEHPAVCDialog@@IPBDPAVCBaseDesk2@@@Z ENDP ; CExAcctInput::InitAcctInput
_TEXT	ENDS
; Function compile flags: /Ogtp
; File D:\git\src\IBK\IBK_DRFN\ProjSrc\SrcDrfn\Chart\ExControl\ExAcctInput.cpp
; File D:\git\src\IBK\IBK_DRFN\ProjSrc\SrcDrfn\Chart\ExControl\Include\LoadHelper.h
; File D:\git\src\IBK\IBK_DRFN\ProjSrc\SrcDrfn\Chart\ExControl\ExAcctInput.cpp
; File C:\Program Files (x86)\Microsoft Visual Studio\2019\Community\VC\Tools\MSVC\14.29.30133\atlmfc\include\afxwin2.inl
; File D:\git\src\IBK\IBK_DRFN\ProjSrc\SrcDrfn\Chart\ExControl\ExAcctInput.cpp
; File D:\git\src\IBK\IBK_DRFN\ProjSrc\SrcDrfn\Chart\ExControl\Include\LoadHelper.h
; File D:\git\src\IBK\IBK_DRFN\ProjSrc\SrcDrfn\Chart\ExControl\ExAcctInput.cpp
; File D:\git\src\IBK\IBK_DRFN\ProjSrc\SrcDrfn\Chart\ExControl\Include\LoadHelper.h
; File D:\git\src\IBK\IBK_DRFN\ProjSrc\SrcDrfn\Chart\ExControl\ExAcctInput.cpp
; File D:\git\src\IBK\IBK_DRFN\ProjSrc\SrcDrfn\Chart\ExControl\Include\LoadHelper.h
; File D:\git\src\IBK\IBK_DRFN\ProjSrc\SrcDrfn\Chart\ExControl\ExAcctInput.cpp
; File D:\git\src\IBK\IBK_DRFN\ProjSrc\SrcDrfn\Chart\ExControl\Include\LoadHelper.h
; File D:\git\src\IBK\IBK_DRFN\ProjSrc\SrcDrfn\Chart\ExControl\ExAcctInput.cpp
;	COMDAT ?InitAcctInput@CExAcctInput@@QAEHPAVCDialog@@AAVCRect@@IPBDPAVCBaseDesk2@@@Z
_TEXT	SEGMENT
_pParent$ = 8						; size = 4
_rcControl$ = 12					; size = 4
_nID$ = 16						; size = 4
_lpszProperties$ = 20					; size = 4
_pBaseDesk$ = 24					; size = 4
?InitAcctInput@CExAcctInput@@QAEHPAVCDialog@@AAVCRect@@IPBDPAVCBaseDesk2@@@Z PROC ; CExAcctInput::InitAcctInput, COMDAT
; _this$ = ecx

; 342  : {

  00000	55		 push	 ebp
  00001	8b ec		 mov	 ebp, esp
  00003	53		 push	 ebx
  00004	56		 push	 esi
  00005	8b 75 08	 mov	 esi, DWORD PTR _pParent$[ebp]
  00008	57		 push	 edi
  00009	8b f9		 mov	 edi, ecx

; 343  : 	if(m_bCreated)

  0000b	83 7f 0c 00	 cmp	 DWORD PTR [edi+12], 0
  0000f	74 1a		 je	 SHORT $LN10@InitAcctIn

; 344  : 		m_pLoader->ExitAcctInput();

  00011	8b 47 04	 mov	 eax, DWORD PTR [edi+4]
; File D:\git\src\IBK\IBK_DRFN\ProjSrc\SrcDrfn\Chart\ExControl\Include\LoadHelper.h

; 1669 : 		if(!m_hLib)

  00014	83 78 04 00	 cmp	 DWORD PTR [eax+4], 0
  00018	74 11		 je	 SHORT $LN10@InitAcctIn

; 1670 : 			return;
; 1671 : 
; 1672 : 		pExitAcctInput(m_lpPointer);

  0001a	ff b0 0c 01 00
	00		 push	 DWORD PTR [eax+268]
  00020	8b 80 14 01 00
	00		 mov	 eax, DWORD PTR [eax+276]
  00026	ff d0		 call	 eax
  00028	83 c4 04	 add	 esp, 4
$LN10@InitAcctIn:
; File D:\git\src\IBK\IBK_DRFN\ProjSrc\SrcDrfn\Chart\ExControl\ExAcctInput.cpp

; 346  : 	if(pBaseDesk)

  0002b	8b 4d 18	 mov	 ecx, DWORD PTR _pBaseDesk$[ebp]
  0002e	89 77 08	 mov	 DWORD PTR [edi+8], esi
  00031	85 c9		 test	 ecx, ecx
  00033	74 09		 je	 SHORT $LN5@InitAcctIn

; 347  : 	{
; 348  : 		m_pParent = pParent;
; 349  : 		m_bCreated = TRUE;

  00035	c7 47 0c 01 00
	00 00		 mov	 DWORD PTR [edi+12], 1

; 350  : 		SetMyBaseDesk2(pBaseDesk);
; 351  : 	}

  0003c	eb 53		 jmp	 SHORT $LN33@InitAcctIn
$LN5@InitAcctIn:

; 352  : 	else
; 353  : 	{
; 354  : 		m_pParent = pParent;
; 355  : 
; 356  : 		while(!pParent->IsKindOf(RUNTIME_CLASS(CExOCXDLL)))

  0003e	e8 00 00 00 00	 call	 ?GetThisClass@CExOCXDLL@@SGPAUCRuntimeClass@@XZ ; CExOCXDLL::GetThisClass
  00043	50		 push	 eax
  00044	8b ce		 mov	 ecx, esi
  00046	e8 00 00 00 00	 call	 ?IsKindOf@CObject@@QBEHPBUCRuntimeClass@@@Z ; CObject::IsKindOf
  0004b	85 c0		 test	 eax, eax
  0004d	75 35		 jne	 SHORT $LN3@InitAcctIn
  0004f	8b 1d 00 00 00
	00		 mov	 ebx, DWORD PTR __imp__IsWindow@4
$LL2@InitAcctIn:
; File C:\Program Files (x86)\Microsoft Visual Studio\2019\Community\VC\Tools\MSVC\14.29.30133\atlmfc\include\afxwin2.inl

; 213  : 	{ ASSERT(::IsWindow(m_hWnd)); return CWnd::FromHandle(::GetParent(m_hWnd)); }

  00055	ff 76 20	 push	 DWORD PTR [esi+32]
  00058	ff 15 00 00 00
	00		 call	 DWORD PTR __imp__GetParent@4
  0005e	50		 push	 eax
  0005f	e8 00 00 00 00	 call	 ?FromHandle@CWnd@@SGPAV1@PAUHWND__@@@Z ; CWnd::FromHandle
; File D:\git\src\IBK\IBK_DRFN\ProjSrc\SrcDrfn\Chart\ExControl\ExAcctInput.cpp

; 358  : 			pParent = (CDialog*)pParent->GetParent();

  00064	8b f0		 mov	 esi, eax

; 359  : 			if(!pParent || !IsWindow(pParent->GetSafeHwnd()))

  00066	85 f6		 test	 esi, esi
  00068	74 56		 je	 SHORT $LN30@InitAcctIn
  0006a	ff 76 20	 push	 DWORD PTR [esi+32]
  0006d	ff d3		 call	 ebx
  0006f	85 c0		 test	 eax, eax
  00071	74 4d		 je	 SHORT $LN30@InitAcctIn

; 352  : 	else
; 353  : 	{
; 354  : 		m_pParent = pParent;
; 355  : 
; 356  : 		while(!pParent->IsKindOf(RUNTIME_CLASS(CExOCXDLL)))

  00073	e8 00 00 00 00	 call	 ?GetThisClass@CExOCXDLL@@SGPAUCRuntimeClass@@XZ ; CExOCXDLL::GetThisClass
  00078	50		 push	 eax
  00079	8b ce		 mov	 ecx, esi
  0007b	e8 00 00 00 00	 call	 ?IsKindOf@CObject@@QBEHPBUCRuntimeClass@@@Z ; CObject::IsKindOf
  00080	85 c0		 test	 eax, eax
  00082	74 d1		 je	 SHORT $LL2@InitAcctIn
$LN3@InitAcctIn:

; 360  : 				return FALSE;
; 361  : 		}
; 362  : 
; 363  : 		m_bCreated = TRUE;

  00084	c7 47 0c 01 00
	00 00		 mov	 DWORD PTR [edi+12], 1

; 237  : 	m_pBaseDesk2 = (CX2000BaseDesk*)pBaseDesk;

  0008b	8b 8e f8 01 00
	00		 mov	 ecx, DWORD PTR [esi+504]
$LN33@InitAcctIn:

; 367  : 	LPVOID lpControl = m_pLoader->CreateAcctInput(m_pParent, &rcControl, nID, (long)&m_x2000BaseDesk, lpszProperties);

  00091	89 4f 24	 mov	 DWORD PTR [edi+36], ecx
  00094	8b 41 08	 mov	 eax, DWORD PTR [ecx+8]
  00097	89 47 18	 mov	 DWORD PTR [edi+24], eax
  0009a	8b 41 0c	 mov	 eax, DWORD PTR [ecx+12]
  0009d	89 47 1c	 mov	 DWORD PTR [edi+28], eax
  000a0	8b 41 10	 mov	 eax, DWORD PTR [ecx+16]
  000a3	89 47 20	 mov	 DWORD PTR [edi+32], eax
  000a6	8d 41 04	 lea	 eax, DWORD PTR [ecx+4]
  000a9	50		 push	 eax
  000aa	8d 4f 14	 lea	 ecx, DWORD PTR [edi+20]
  000ad	ff 15 00 00 00
	00		 call	 DWORD PTR __imp_??4?$CStringT@DV?$StrTraitMFC_DLL@DV?$ChTraitsCRT@D@ATL@@@@@ATL@@QAEAAV01@ABV01@@Z
  000b3	8b 77 04	 mov	 esi, DWORD PTR [edi+4]
; File D:\git\src\IBK\IBK_DRFN\ProjSrc\SrcDrfn\Chart\ExControl\Include\LoadHelper.h

; 1695 : 		if(!m_hLib)

  000b6	83 7e 04 00	 cmp	 DWORD PTR [esi+4], 0
  000ba	75 0d		 jne	 SHORT $LN24@InitAcctIn

; 1696 : 			return NULL;

  000bc	33 db		 xor	 ebx, ebx
  000be	eb 35		 jmp	 SHORT $LN23@InitAcctIn
$LN30@InitAcctIn:
  000c0	5f		 pop	 edi
; File D:\git\src\IBK\IBK_DRFN\ProjSrc\SrcDrfn\Chart\ExControl\ExAcctInput.cpp

; 371  : }

  000c1	5e		 pop	 esi
  000c2	33 c0		 xor	 eax, eax
  000c4	5b		 pop	 ebx
  000c5	5d		 pop	 ebp
  000c6	c2 14 00	 ret	 20			; 00000014H
$LN24@InitAcctIn:
; File D:\git\src\IBK\IBK_DRFN\ProjSrc\SrcDrfn\Chart\ExControl\Include\LoadHelper.h

; 1698 : 		m_lpPointer = pCreateAcctInputString(m_lpPointer, pWnd, pRect, nID, lBaseDesk, lpszProperties);

  000c9	ff 75 14	 push	 DWORD PTR _lpszProperties$[ebp]
; File D:\git\src\IBK\IBK_DRFN\ProjSrc\SrcDrfn\Chart\ExControl\ExAcctInput.cpp

; 367  : 	LPVOID lpControl = m_pLoader->CreateAcctInput(m_pParent, &rcControl, nID, (long)&m_x2000BaseDesk, lpszProperties);

  000cc	8d 47 10	 lea	 eax, DWORD PTR [edi+16]
; File D:\git\src\IBK\IBK_DRFN\ProjSrc\SrcDrfn\Chart\ExControl\Include\LoadHelper.h

; 1698 : 		m_lpPointer = pCreateAcctInputString(m_lpPointer, pWnd, pRect, nID, lBaseDesk, lpszProperties);

  000cf	50		 push	 eax
  000d0	ff 75 10	 push	 DWORD PTR _nID$[ebp]
  000d3	8b 86 20 01 00
	00		 mov	 eax, DWORD PTR [esi+288]
  000d9	ff 75 0c	 push	 DWORD PTR _rcControl$[ebp]
  000dc	ff 77 08	 push	 DWORD PTR [edi+8]
  000df	ff b6 0c 01 00
	00		 push	 DWORD PTR [esi+268]
  000e5	ff d0		 call	 eax
  000e7	8b d8		 mov	 ebx, eax
  000e9	83 c4 18	 add	 esp, 24			; 00000018H
  000ec	89 9e 0c 01 00
	00		 mov	 DWORD PTR [esi+268], ebx

; 1699 : 		return m_lpPointer;

  000f2	8b 77 04	 mov	 esi, DWORD PTR [edi+4]
$LN23@InitAcctIn:

; 1737 : 		if(!m_hLib)

  000f5	83 7e 04 00	 cmp	 DWORD PTR [esi+4], 0
  000f9	75 15		 jne	 SHORT $LN27@InitAcctIn

; 1738 : 			return 0;

  000fb	33 c0		 xor	 eax, eax
; File D:\git\src\IBK\IBK_DRFN\ProjSrc\SrcDrfn\Chart\ExControl\ExAcctInput.cpp

; 368  : 	::SetPermanentHandle((HANDLE)m_pLoader->GetSafeHwnd(), (CObject*)lpControl);

  000fd	53		 push	 ebx
  000fe	50		 push	 eax
  000ff	e8 00 00 00 00	 call	 ?SetPermanentHandle@@YAXPAXPAVCObject@@@Z ; SetPermanentHandle
  00104	83 c4 08	 add	 esp, 8

; 369  : 	
; 370  : 	return (BOOL)lpControl;

  00107	8b c3		 mov	 eax, ebx
  00109	5f		 pop	 edi

; 371  : }

  0010a	5e		 pop	 esi
  0010b	5b		 pop	 ebx
  0010c	5d		 pop	 ebp
  0010d	c2 14 00	 ret	 20			; 00000014H
$LN27@InitAcctIn:
; File D:\git\src\IBK\IBK_DRFN\ProjSrc\SrcDrfn\Chart\ExControl\Include\LoadHelper.h

; 1740 : 		return pGetSafeHwnd(m_lpPointer);

  00110	ff b6 0c 01 00
	00		 push	 DWORD PTR [esi+268]
  00116	8b 8e 34 01 00
	00		 mov	 ecx, DWORD PTR [esi+308]
  0011c	ff d1		 call	 ecx
  0011e	83 c4 04	 add	 esp, 4
; File D:\git\src\IBK\IBK_DRFN\ProjSrc\SrcDrfn\Chart\ExControl\ExAcctInput.cpp

; 368  : 	::SetPermanentHandle((HANDLE)m_pLoader->GetSafeHwnd(), (CObject*)lpControl);

  00121	53		 push	 ebx
  00122	50		 push	 eax
  00123	e8 00 00 00 00	 call	 ?SetPermanentHandle@@YAXPAXPAVCObject@@@Z ; SetPermanentHandle
  00128	83 c4 08	 add	 esp, 8

; 369  : 	
; 370  : 	return (BOOL)lpControl;

  0012b	8b c3		 mov	 eax, ebx
  0012d	5f		 pop	 edi

; 371  : }

  0012e	5e		 pop	 esi
  0012f	5b		 pop	 ebx
  00130	5d		 pop	 ebp
  00131	c2 14 00	 ret	 20			; 00000014H
?InitAcctInput@CExAcctInput@@QAEHPAVCDialog@@AAVCRect@@IPBDPAVCBaseDesk2@@@Z ENDP ; CExAcctInput::InitAcctInput
_TEXT	ENDS
; Function compile flags: /Ogtp
; File D:\git\src\IBK\IBK_DRFN\ProjSrc\SrcDrfn\Chart\ExControl\ExAcctInput.cpp
; File C:\Program Files (x86)\Microsoft Visual Studio\2019\Community\VC\Tools\MSVC\14.29.30133\atlmfc\include\atltypes.h
; File D:\git\src\IBK\IBK_DRFN\ProjSrc\SrcDrfn\Chart\ExControl\ExAcctInput.cpp
; File C:\Program Files (x86)\Microsoft Visual Studio\2019\Community\VC\Tools\MSVC\14.29.30133\atlmfc\include\afxwin2.inl
; File D:\git\src\IBK\IBK_DRFN\ProjSrc\SrcDrfn\Chart\ExControl\ExAcctInput.cpp
; File D:\git\src\IBK\IBK_DRFN\ProjSrc\SrcDrfn\Chart\ExControl\Include\LoadHelper.h
; File D:\git\src\IBK\IBK_DRFN\ProjSrc\SrcDrfn\Chart\ExControl\ExAcctInput.cpp
; File C:\Program Files (x86)\Microsoft Visual Studio\2019\Community\VC\Tools\MSVC\14.29.30133\atlmfc\include\afxwin2.inl
; File D:\git\src\IBK\IBK_DRFN\ProjSrc\SrcDrfn\Chart\ExControl\ExAcctInput.cpp
; File D:\git\src\IBK\IBK_DRFN\ProjSrc\SrcDrfn\Chart\ExControl\Include\LoadHelper.h
; File D:\git\src\IBK\IBK_DRFN\ProjSrc\SrcDrfn\Chart\ExControl\ExAcctInput.cpp
; File D:\git\src\IBK\IBK_DRFN\ProjSrc\SrcDrfn\Chart\ExControl\Include\LoadHelper.h
; File D:\git\src\IBK\IBK_DRFN\ProjSrc\SrcDrfn\Chart\ExControl\ExAcctInput.cpp
; File D:\git\src\IBK\IBK_DRFN\ProjSrc\SrcDrfn\Chart\ExControl\Include\LoadHelper.h
; File D:\git\src\IBK\IBK_DRFN\ProjSrc\SrcDrfn\Chart\ExControl\ExAcctInput.cpp
;	COMDAT ?InitAcctInput@CExAcctInput@@QAEHPAVCDialog@@IPAPBDHPAVCBaseDesk2@@@Z
_TEXT	SEGMENT
_lpszProperties$GSCopy$1$ = -28				; size = 4
_nID$GSCopy$1$ = -24					; size = 4
_rcControl$ = -20					; size = 16
__$ArrayPad$ = -4					; size = 4
_pParent$ = 8						; size = 4
_nID$ = 12						; size = 4
_lpszProperties$ = 16					; size = 4
_nSize$ = 20						; size = 4
_pBaseDesk$ = 24					; size = 4
?InitAcctInput@CExAcctInput@@QAEHPAVCDialog@@IPAPBDHPAVCBaseDesk2@@@Z PROC ; CExAcctInput::InitAcctInput, COMDAT
; _this$ = ecx

; 288  : {

  00000	55		 push	 ebp
  00001	8b ec		 mov	 ebp, esp
  00003	83 ec 1c	 sub	 esp, 28			; 0000001cH
  00006	a1 00 00 00 00	 mov	 eax, DWORD PTR ___security_cookie
  0000b	33 c5		 xor	 eax, ebp
  0000d	89 45 fc	 mov	 DWORD PTR __$ArrayPad$[ebp], eax
  00010	8b 45 10	 mov	 eax, DWORD PTR _lpszProperties$[ebp]
  00013	0f 57 c0	 xorps	 xmm0, xmm0
  00016	53		 push	 ebx
  00017	8b 5d 0c	 mov	 ebx, DWORD PTR _nID$[ebp]
  0001a	56		 push	 esi
  0001b	8b 75 08	 mov	 esi, DWORD PTR _pParent$[ebp]
  0001e	57		 push	 edi
  0001f	8b f9		 mov	 edi, ecx
  00021	89 5d e8	 mov	 DWORD PTR _nID$GSCopy$1$[ebp], ebx

; 290  : 	pParent->GetDlgItem(nID)->GetWindowRect(rcControl);

  00024	53		 push	 ebx
  00025	8b ce		 mov	 ecx, esi
  00027	89 45 e4	 mov	 DWORD PTR _lpszProperties$GSCopy$1$[ebp], eax
; File C:\Program Files (x86)\Microsoft Visual Studio\2019\Community\VC\Tools\MSVC\14.29.30133\atlmfc\include\atltypes.h

; 528  : 	left = 0;

  0002a	0f 11 45 ec	 movups	 XMMWORD PTR _rcControl$[ebp], xmm0
; File D:\git\src\IBK\IBK_DRFN\ProjSrc\SrcDrfn\Chart\ExControl\ExAcctInput.cpp

; 290  : 	pParent->GetDlgItem(nID)->GetWindowRect(rcControl);

  0002e	e8 00 00 00 00	 call	 ?GetDlgItem@CWnd@@QBEPAV1@H@Z ; CWnd::GetDlgItem
; File C:\Program Files (x86)\Microsoft Visual Studio\2019\Community\VC\Tools\MSVC\14.29.30133\atlmfc\include\afxwin2.inl

; 84   : 	{ ASSERT(::IsWindow(m_hWnd)); ::GetWindowRect(m_hWnd, lpRect); }

  00033	8d 4d ec	 lea	 ecx, DWORD PTR _rcControl$[ebp]
  00036	51		 push	 ecx
  00037	ff 70 20	 push	 DWORD PTR [eax+32]
  0003a	ff 15 00 00 00
	00		 call	 DWORD PTR __imp__GetWindowRect@8
; File D:\git\src\IBK\IBK_DRFN\ProjSrc\SrcDrfn\Chart\ExControl\ExAcctInput.cpp

; 291  : 	pParent->ScreenToClient(rcControl);

  00040	8d 45 ec	 lea	 eax, DWORD PTR _rcControl$[ebp]
  00043	8b ce		 mov	 ecx, esi
  00045	50		 push	 eax
  00046	e8 00 00 00 00	 call	 ?ScreenToClient@CWnd@@QBEXPAUtagRECT@@@Z ; CWnd::ScreenToClient

; 292  : 
; 293  : 	pParent->GetDlgItem(nID)->ShowWindow(SW_HIDE);

  0004b	6a 00		 push	 0
  0004d	53		 push	 ebx
  0004e	8b ce		 mov	 ecx, esi
  00050	e8 00 00 00 00	 call	 ?GetDlgItem@CWnd@@QBEPAV1@H@Z ; CWnd::GetDlgItem
  00055	8b c8		 mov	 ecx, eax
  00057	e8 00 00 00 00	 call	 ?ShowWindow@CWnd@@QAEHH@Z ; CWnd::ShowWindow

; 300  : 	if(m_bCreated)

  0005c	83 7f 0c 00	 cmp	 DWORD PTR [edi+12], 0
  00060	74 1a		 je	 SHORT $LN16@InitAcctIn

; 301  : 		m_pLoader->ExitAcctInput();

  00062	8b 47 04	 mov	 eax, DWORD PTR [edi+4]
; File D:\git\src\IBK\IBK_DRFN\ProjSrc\SrcDrfn\Chart\ExControl\Include\LoadHelper.h

; 1669 : 		if(!m_hLib)

  00065	83 78 04 00	 cmp	 DWORD PTR [eax+4], 0
  00069	74 11		 je	 SHORT $LN16@InitAcctIn

; 1670 : 			return;
; 1671 : 
; 1672 : 		pExitAcctInput(m_lpPointer);

  0006b	ff b0 0c 01 00
	00		 push	 DWORD PTR [eax+268]
  00071	8b 80 14 01 00
	00		 mov	 eax, DWORD PTR [eax+276]
  00077	ff d0		 call	 eax
  00079	83 c4 04	 add	 esp, 4
$LN16@InitAcctIn:
; File D:\git\src\IBK\IBK_DRFN\ProjSrc\SrcDrfn\Chart\ExControl\ExAcctInput.cpp

; 303  : 	if(pBaseDesk)

  0007c	8b 4d 18	 mov	 ecx, DWORD PTR _pBaseDesk$[ebp]
  0007f	89 77 08	 mov	 DWORD PTR [edi+8], esi
  00082	85 c9		 test	 ecx, ecx
  00084	74 09		 je	 SHORT $LN11@InitAcctIn

; 304  : 	{
; 305  : 		m_pParent = pParent;
; 306  : 		m_bCreated = TRUE;

  00086	c7 47 0c 01 00
	00 00		 mov	 DWORD PTR [edi+12], 1

; 307  : 		SetMyBaseDesk2(pBaseDesk);
; 308  : 	}

  0008d	eb 56		 jmp	 SHORT $LN51@InitAcctIn
$LN11@InitAcctIn:

; 309  : 	else
; 310  : 	{
; 311  : 		m_pParent = pParent;
; 312  : 
; 313  : 		while(!pParent->IsKindOf(RUNTIME_CLASS(CExOCXDLL)))

  0008f	e8 00 00 00 00	 call	 ?GetThisClass@CExOCXDLL@@SGPAUCRuntimeClass@@XZ ; CExOCXDLL::GetThisClass
  00094	50		 push	 eax
  00095	8b ce		 mov	 ecx, esi
  00097	e8 00 00 00 00	 call	 ?IsKindOf@CObject@@QBEHPBUCRuntimeClass@@@Z ; CObject::IsKindOf
  0009c	85 c0		 test	 eax, eax
  0009e	75 38		 jne	 SHORT $LN9@InitAcctIn
  000a0	8b 1d 00 00 00
	00		 mov	 ebx, DWORD PTR __imp__IsWindow@4
$LL8@InitAcctIn:
; File C:\Program Files (x86)\Microsoft Visual Studio\2019\Community\VC\Tools\MSVC\14.29.30133\atlmfc\include\afxwin2.inl

; 213  : 	{ ASSERT(::IsWindow(m_hWnd)); return CWnd::FromHandle(::GetParent(m_hWnd)); }

  000a6	ff 76 20	 push	 DWORD PTR [esi+32]
  000a9	ff 15 00 00 00
	00		 call	 DWORD PTR __imp__GetParent@4
  000af	50		 push	 eax
  000b0	e8 00 00 00 00	 call	 ?FromHandle@CWnd@@SGPAV1@PAUHWND__@@@Z ; CWnd::FromHandle
; File D:\git\src\IBK\IBK_DRFN\ProjSrc\SrcDrfn\Chart\ExControl\ExAcctInput.cpp

; 315  : 			pParent = (CDialog*)pParent->GetParent();

  000b5	8b f0		 mov	 esi, eax

; 316  : 			if(!pParent || !IsWindow(pParent->GetSafeHwnd()))

  000b7	85 f6		 test	 esi, esi
  000b9	74 59		 je	 SHORT $LN36@InitAcctIn
  000bb	ff 76 20	 push	 DWORD PTR [esi+32]
  000be	ff d3		 call	 ebx
  000c0	85 c0		 test	 eax, eax
  000c2	74 50		 je	 SHORT $LN36@InitAcctIn

; 309  : 	else
; 310  : 	{
; 311  : 		m_pParent = pParent;
; 312  : 
; 313  : 		while(!pParent->IsKindOf(RUNTIME_CLASS(CExOCXDLL)))

  000c4	e8 00 00 00 00	 call	 ?GetThisClass@CExOCXDLL@@SGPAUCRuntimeClass@@XZ ; CExOCXDLL::GetThisClass
  000c9	50		 push	 eax
  000ca	8b ce		 mov	 ecx, esi
  000cc	e8 00 00 00 00	 call	 ?IsKindOf@CObject@@QBEHPBUCRuntimeClass@@@Z ; CObject::IsKindOf
  000d1	85 c0		 test	 eax, eax
  000d3	74 d1		 je	 SHORT $LL8@InitAcctIn

; 316  : 			if(!pParent || !IsWindow(pParent->GetSafeHwnd()))

  000d5	8b 5d e8	 mov	 ebx, DWORD PTR _nID$GSCopy$1$[ebp]
$LN9@InitAcctIn:

; 317  : 				return FALSE;
; 318  : 		}
; 319  : 
; 320  : 		m_bCreated = TRUE;

  000d8	c7 47 0c 01 00
	00 00		 mov	 DWORD PTR [edi+12], 1

; 237  : 	m_pBaseDesk2 = (CX2000BaseDesk*)pBaseDesk;

  000df	8b 8e f8 01 00
	00		 mov	 ecx, DWORD PTR [esi+504]
$LN51@InitAcctIn:

; 324  : 	LPVOID lpControl = m_pLoader->CreateAcctInput(m_pParent, &rcControl, nID, (long)&m_x2000BaseDesk, lpszProperties, nSize);

  000e5	89 4f 24	 mov	 DWORD PTR [edi+36], ecx
  000e8	8b 41 08	 mov	 eax, DWORD PTR [ecx+8]
  000eb	89 47 18	 mov	 DWORD PTR [edi+24], eax
  000ee	8b 41 0c	 mov	 eax, DWORD PTR [ecx+12]
  000f1	89 47 1c	 mov	 DWORD PTR [edi+28], eax
  000f4	8b 41 10	 mov	 eax, DWORD PTR [ecx+16]
  000f7	89 47 20	 mov	 DWORD PTR [edi+32], eax
  000fa	8d 41 04	 lea	 eax, DWORD PTR [ecx+4]
  000fd	50		 push	 eax
  000fe	8d 4f 14	 lea	 ecx, DWORD PTR [edi+20]
  00101	ff 15 00 00 00
	00		 call	 DWORD PTR __imp_??4?$CStringT@DV?$StrTraitMFC_DLL@DV?$ChTraitsCRT@D@ATL@@@@@ATL@@QAEAAV01@ABV01@@Z
  00107	8b 77 04	 mov	 esi, DWORD PTR [edi+4]
; File D:\git\src\IBK\IBK_DRFN\ProjSrc\SrcDrfn\Chart\ExControl\Include\LoadHelper.h

; 1686 : 		if(!m_hLib)

  0010a	83 7e 04 00	 cmp	 DWORD PTR [esi+4], 0
  0010e	75 19		 jne	 SHORT $LN30@InitAcctIn

; 1687 : 			return NULL;

  00110	33 db		 xor	 ebx, ebx
  00112	eb 43		 jmp	 SHORT $LN29@InitAcctIn
$LN36@InitAcctIn:
  00114	5f		 pop	 edi
; File D:\git\src\IBK\IBK_DRFN\ProjSrc\SrcDrfn\Chart\ExControl\ExAcctInput.cpp

; 296  : }

  00115	5e		 pop	 esi
  00116	33 c0		 xor	 eax, eax
  00118	5b		 pop	 ebx
  00119	8b 4d fc	 mov	 ecx, DWORD PTR __$ArrayPad$[ebp]
  0011c	33 cd		 xor	 ecx, ebp
  0011e	e8 00 00 00 00	 call	 @__security_check_cookie@4
  00123	8b e5		 mov	 esp, ebp
  00125	5d		 pop	 ebp
  00126	c2 14 00	 ret	 20			; 00000014H
$LN30@InitAcctIn:
; File D:\git\src\IBK\IBK_DRFN\ProjSrc\SrcDrfn\Chart\ExControl\Include\LoadHelper.h

; 1689 : 		m_lpPointer = pCreateAcctInputArray(m_lpPointer, pWnd, pRect, nID, lBaseDesk, lpszProperties, nSize);

  00129	ff 75 14	 push	 DWORD PTR _nSize$[ebp]
; File D:\git\src\IBK\IBK_DRFN\ProjSrc\SrcDrfn\Chart\ExControl\ExAcctInput.cpp

; 324  : 	LPVOID lpControl = m_pLoader->CreateAcctInput(m_pParent, &rcControl, nID, (long)&m_x2000BaseDesk, lpszProperties, nSize);

  0012c	8d 47 10	 lea	 eax, DWORD PTR [edi+16]
; File D:\git\src\IBK\IBK_DRFN\ProjSrc\SrcDrfn\Chart\ExControl\Include\LoadHelper.h

; 1689 : 		m_lpPointer = pCreateAcctInputArray(m_lpPointer, pWnd, pRect, nID, lBaseDesk, lpszProperties, nSize);

  0012f	ff 75 e4	 push	 DWORD PTR _lpszProperties$GSCopy$1$[ebp]
  00132	50		 push	 eax
  00133	53		 push	 ebx
  00134	8d 45 ec	 lea	 eax, DWORD PTR _rcControl$[ebp]
  00137	50		 push	 eax
  00138	ff 77 08	 push	 DWORD PTR [edi+8]
  0013b	8b 86 1c 01 00
	00		 mov	 eax, DWORD PTR [esi+284]
  00141	ff b6 0c 01 00
	00		 push	 DWORD PTR [esi+268]
  00147	ff d0		 call	 eax
  00149	8b d8		 mov	 ebx, eax
  0014b	83 c4 1c	 add	 esp, 28			; 0000001cH
  0014e	89 9e 0c 01 00
	00		 mov	 DWORD PTR [esi+268], ebx

; 1690 : 		return m_lpPointer;

  00154	8b 77 04	 mov	 esi, DWORD PTR [edi+4]
$LN29@InitAcctIn:

; 1737 : 		if(!m_hLib)

  00157	83 7e 04 00	 cmp	 DWORD PTR [esi+4], 0
  0015b	75 04		 jne	 SHORT $LN33@InitAcctIn

; 1738 : 			return 0;

  0015d	33 c0		 xor	 eax, eax
  0015f	eb 11		 jmp	 SHORT $LN32@InitAcctIn
$LN33@InitAcctIn:

; 1739 : 		
; 1740 : 		return pGetSafeHwnd(m_lpPointer);

  00161	ff b6 0c 01 00
	00		 push	 DWORD PTR [esi+268]
  00167	8b 86 34 01 00
	00		 mov	 eax, DWORD PTR [esi+308]
  0016d	ff d0		 call	 eax
  0016f	83 c4 04	 add	 esp, 4
$LN32@InitAcctIn:
; File D:\git\src\IBK\IBK_DRFN\ProjSrc\SrcDrfn\Chart\ExControl\ExAcctInput.cpp

; 325  : 	::SetPermanentHandle((HANDLE)m_pLoader->GetSafeHwnd(), (CObject*)lpControl);

  00172	53		 push	 ebx
  00173	50		 push	 eax
  00174	e8 00 00 00 00	 call	 ?SetPermanentHandle@@YAXPAXPAVCObject@@@Z ; SetPermanentHandle

; 296  : }

  00179	8b 4d fc	 mov	 ecx, DWORD PTR __$ArrayPad$[ebp]

; 325  : 	::SetPermanentHandle((HANDLE)m_pLoader->GetSafeHwnd(), (CObject*)lpControl);

  0017c	83 c4 08	 add	 esp, 8

; 294  : 
; 295  : 	return InitAcctInput(pParent, rcControl, nID, lpszProperties, nSize, pBaseDesk);

  0017f	8b c3		 mov	 eax, ebx

; 296  : }

  00181	33 cd		 xor	 ecx, ebp
  00183	5f		 pop	 edi
  00184	5e		 pop	 esi
  00185	5b		 pop	 ebx
  00186	e8 00 00 00 00	 call	 @__security_check_cookie@4
  0018b	8b e5		 mov	 esp, ebp
  0018d	5d		 pop	 ebp
  0018e	c2 14 00	 ret	 20			; 00000014H
?InitAcctInput@CExAcctInput@@QAEHPAVCDialog@@IPAPBDHPAVCBaseDesk2@@@Z ENDP ; CExAcctInput::InitAcctInput
_TEXT	ENDS
; Function compile flags: /Ogtp
; File D:\git\src\IBK\IBK_DRFN\ProjSrc\SrcDrfn\Chart\ExControl\ExAcctInput.cpp
; File D:\git\src\IBK\IBK_DRFN\ProjSrc\SrcDrfn\Chart\ExControl\Include\LoadHelper.h
; File D:\git\src\IBK\IBK_DRFN\ProjSrc\SrcDrfn\Chart\ExControl\ExAcctInput.cpp
; File C:\Program Files (x86)\Microsoft Visual Studio\2019\Community\VC\Tools\MSVC\14.29.30133\atlmfc\include\afxwin2.inl
; File D:\git\src\IBK\IBK_DRFN\ProjSrc\SrcDrfn\Chart\ExControl\ExAcctInput.cpp
; File D:\git\src\IBK\IBK_DRFN\ProjSrc\SrcDrfn\Chart\ExControl\Include\LoadHelper.h
; File D:\git\src\IBK\IBK_DRFN\ProjSrc\SrcDrfn\Chart\ExControl\ExAcctInput.cpp
; File D:\git\src\IBK\IBK_DRFN\ProjSrc\SrcDrfn\Chart\ExControl\Include\LoadHelper.h
; File D:\git\src\IBK\IBK_DRFN\ProjSrc\SrcDrfn\Chart\ExControl\ExAcctInput.cpp
; File D:\git\src\IBK\IBK_DRFN\ProjSrc\SrcDrfn\Chart\ExControl\Include\LoadHelper.h
; File D:\git\src\IBK\IBK_DRFN\ProjSrc\SrcDrfn\Chart\ExControl\ExAcctInput.cpp
; File D:\git\src\IBK\IBK_DRFN\ProjSrc\SrcDrfn\Chart\ExControl\Include\LoadHelper.h
; File D:\git\src\IBK\IBK_DRFN\ProjSrc\SrcDrfn\Chart\ExControl\ExAcctInput.cpp
;	COMDAT ?InitAcctInput@CExAcctInput@@QAEHPAVCDialog@@AAVCRect@@IPAPBDHPAVCBaseDesk2@@@Z
_TEXT	SEGMENT
_pParent$ = 8						; size = 4
_rcControl$ = 12					; size = 4
_nID$ = 16						; size = 4
_lpszProperties$ = 20					; size = 4
_nSize$ = 24						; size = 4
_pBaseDesk$ = 28					; size = 4
?InitAcctInput@CExAcctInput@@QAEHPAVCDialog@@AAVCRect@@IPAPBDHPAVCBaseDesk2@@@Z PROC ; CExAcctInput::InitAcctInput, COMDAT
; _this$ = ecx

; 299  : {

  00000	55		 push	 ebp
  00001	8b ec		 mov	 ebp, esp
  00003	53		 push	 ebx
  00004	56		 push	 esi
  00005	8b 75 08	 mov	 esi, DWORD PTR _pParent$[ebp]
  00008	57		 push	 edi
  00009	8b f9		 mov	 edi, ecx

; 300  : 	if(m_bCreated)

  0000b	83 7f 0c 00	 cmp	 DWORD PTR [edi+12], 0
  0000f	74 1a		 je	 SHORT $LN10@InitAcctIn

; 301  : 		m_pLoader->ExitAcctInput();

  00011	8b 47 04	 mov	 eax, DWORD PTR [edi+4]
; File D:\git\src\IBK\IBK_DRFN\ProjSrc\SrcDrfn\Chart\ExControl\Include\LoadHelper.h

; 1669 : 		if(!m_hLib)

  00014	83 78 04 00	 cmp	 DWORD PTR [eax+4], 0
  00018	74 11		 je	 SHORT $LN10@InitAcctIn

; 1670 : 			return;
; 1671 : 
; 1672 : 		pExitAcctInput(m_lpPointer);

  0001a	ff b0 0c 01 00
	00		 push	 DWORD PTR [eax+268]
  00020	8b 80 14 01 00
	00		 mov	 eax, DWORD PTR [eax+276]
  00026	ff d0		 call	 eax
  00028	83 c4 04	 add	 esp, 4
$LN10@InitAcctIn:
; File D:\git\src\IBK\IBK_DRFN\ProjSrc\SrcDrfn\Chart\ExControl\ExAcctInput.cpp

; 303  : 	if(pBaseDesk)

  0002b	8b 4d 1c	 mov	 ecx, DWORD PTR _pBaseDesk$[ebp]
  0002e	89 77 08	 mov	 DWORD PTR [edi+8], esi
  00031	85 c9		 test	 ecx, ecx
  00033	74 09		 je	 SHORT $LN5@InitAcctIn

; 304  : 	{
; 305  : 		m_pParent = pParent;
; 306  : 		m_bCreated = TRUE;

  00035	c7 47 0c 01 00
	00 00		 mov	 DWORD PTR [edi+12], 1

; 307  : 		SetMyBaseDesk2(pBaseDesk);
; 308  : 	}

  0003c	eb 53		 jmp	 SHORT $LN33@InitAcctIn
$LN5@InitAcctIn:

; 309  : 	else
; 310  : 	{
; 311  : 		m_pParent = pParent;
; 312  : 
; 313  : 		while(!pParent->IsKindOf(RUNTIME_CLASS(CExOCXDLL)))

  0003e	e8 00 00 00 00	 call	 ?GetThisClass@CExOCXDLL@@SGPAUCRuntimeClass@@XZ ; CExOCXDLL::GetThisClass
  00043	50		 push	 eax
  00044	8b ce		 mov	 ecx, esi
  00046	e8 00 00 00 00	 call	 ?IsKindOf@CObject@@QBEHPBUCRuntimeClass@@@Z ; CObject::IsKindOf
  0004b	85 c0		 test	 eax, eax
  0004d	75 35		 jne	 SHORT $LN3@InitAcctIn
  0004f	8b 1d 00 00 00
	00		 mov	 ebx, DWORD PTR __imp__IsWindow@4
$LL2@InitAcctIn:
; File C:\Program Files (x86)\Microsoft Visual Studio\2019\Community\VC\Tools\MSVC\14.29.30133\atlmfc\include\afxwin2.inl

; 213  : 	{ ASSERT(::IsWindow(m_hWnd)); return CWnd::FromHandle(::GetParent(m_hWnd)); }

  00055	ff 76 20	 push	 DWORD PTR [esi+32]
  00058	ff 15 00 00 00
	00		 call	 DWORD PTR __imp__GetParent@4
  0005e	50		 push	 eax
  0005f	e8 00 00 00 00	 call	 ?FromHandle@CWnd@@SGPAV1@PAUHWND__@@@Z ; CWnd::FromHandle
; File D:\git\src\IBK\IBK_DRFN\ProjSrc\SrcDrfn\Chart\ExControl\ExAcctInput.cpp

; 315  : 			pParent = (CDialog*)pParent->GetParent();

  00064	8b f0		 mov	 esi, eax

; 316  : 			if(!pParent || !IsWindow(pParent->GetSafeHwnd()))

  00066	85 f6		 test	 esi, esi
  00068	74 56		 je	 SHORT $LN30@InitAcctIn
  0006a	ff 76 20	 push	 DWORD PTR [esi+32]
  0006d	ff d3		 call	 ebx
  0006f	85 c0		 test	 eax, eax
  00071	74 4d		 je	 SHORT $LN30@InitAcctIn

; 309  : 	else
; 310  : 	{
; 311  : 		m_pParent = pParent;
; 312  : 
; 313  : 		while(!pParent->IsKindOf(RUNTIME_CLASS(CExOCXDLL)))

  00073	e8 00 00 00 00	 call	 ?GetThisClass@CExOCXDLL@@SGPAUCRuntimeClass@@XZ ; CExOCXDLL::GetThisClass
  00078	50		 push	 eax
  00079	8b ce		 mov	 ecx, esi
  0007b	e8 00 00 00 00	 call	 ?IsKindOf@CObject@@QBEHPBUCRuntimeClass@@@Z ; CObject::IsKindOf
  00080	85 c0		 test	 eax, eax
  00082	74 d1		 je	 SHORT $LL2@InitAcctIn
$LN3@InitAcctIn:

; 317  : 				return FALSE;
; 318  : 		}
; 319  : 
; 320  : 		m_bCreated = TRUE;

  00084	c7 47 0c 01 00
	00 00		 mov	 DWORD PTR [edi+12], 1

; 237  : 	m_pBaseDesk2 = (CX2000BaseDesk*)pBaseDesk;

  0008b	8b 8e f8 01 00
	00		 mov	 ecx, DWORD PTR [esi+504]
$LN33@InitAcctIn:

; 324  : 	LPVOID lpControl = m_pLoader->CreateAcctInput(m_pParent, &rcControl, nID, (long)&m_x2000BaseDesk, lpszProperties, nSize);

  00091	89 4f 24	 mov	 DWORD PTR [edi+36], ecx
  00094	8b 41 08	 mov	 eax, DWORD PTR [ecx+8]
  00097	89 47 18	 mov	 DWORD PTR [edi+24], eax
  0009a	8b 41 0c	 mov	 eax, DWORD PTR [ecx+12]
  0009d	89 47 1c	 mov	 DWORD PTR [edi+28], eax
  000a0	8b 41 10	 mov	 eax, DWORD PTR [ecx+16]
  000a3	89 47 20	 mov	 DWORD PTR [edi+32], eax
  000a6	8d 41 04	 lea	 eax, DWORD PTR [ecx+4]
  000a9	50		 push	 eax
  000aa	8d 4f 14	 lea	 ecx, DWORD PTR [edi+20]
  000ad	ff 15 00 00 00
	00		 call	 DWORD PTR __imp_??4?$CStringT@DV?$StrTraitMFC_DLL@DV?$ChTraitsCRT@D@ATL@@@@@ATL@@QAEAAV01@ABV01@@Z
  000b3	8b 77 04	 mov	 esi, DWORD PTR [edi+4]
; File D:\git\src\IBK\IBK_DRFN\ProjSrc\SrcDrfn\Chart\ExControl\Include\LoadHelper.h

; 1686 : 		if(!m_hLib)

  000b6	83 7e 04 00	 cmp	 DWORD PTR [esi+4], 0
  000ba	75 0d		 jne	 SHORT $LN24@InitAcctIn

; 1687 : 			return NULL;

  000bc	33 db		 xor	 ebx, ebx
  000be	eb 38		 jmp	 SHORT $LN23@InitAcctIn
$LN30@InitAcctIn:
  000c0	5f		 pop	 edi
; File D:\git\src\IBK\IBK_DRFN\ProjSrc\SrcDrfn\Chart\ExControl\ExAcctInput.cpp

; 328  : }

  000c1	5e		 pop	 esi
  000c2	33 c0		 xor	 eax, eax
  000c4	5b		 pop	 ebx
  000c5	5d		 pop	 ebp
  000c6	c2 18 00	 ret	 24			; 00000018H
$LN24@InitAcctIn:
; File D:\git\src\IBK\IBK_DRFN\ProjSrc\SrcDrfn\Chart\ExControl\Include\LoadHelper.h

; 1689 : 		m_lpPointer = pCreateAcctInputArray(m_lpPointer, pWnd, pRect, nID, lBaseDesk, lpszProperties, nSize);

  000c9	ff 75 18	 push	 DWORD PTR _nSize$[ebp]
; File D:\git\src\IBK\IBK_DRFN\ProjSrc\SrcDrfn\Chart\ExControl\ExAcctInput.cpp

; 324  : 	LPVOID lpControl = m_pLoader->CreateAcctInput(m_pParent, &rcControl, nID, (long)&m_x2000BaseDesk, lpszProperties, nSize);

  000cc	8d 47 10	 lea	 eax, DWORD PTR [edi+16]
; File D:\git\src\IBK\IBK_DRFN\ProjSrc\SrcDrfn\Chart\ExControl\Include\LoadHelper.h

; 1689 : 		m_lpPointer = pCreateAcctInputArray(m_lpPointer, pWnd, pRect, nID, lBaseDesk, lpszProperties, nSize);

  000cf	ff 75 14	 push	 DWORD PTR _lpszProperties$[ebp]
  000d2	50		 push	 eax
  000d3	ff 75 10	 push	 DWORD PTR _nID$[ebp]
  000d6	8b 86 1c 01 00
	00		 mov	 eax, DWORD PTR [esi+284]
  000dc	ff 75 0c	 push	 DWORD PTR _rcControl$[ebp]
  000df	ff 77 08	 push	 DWORD PTR [edi+8]
  000e2	ff b6 0c 01 00
	00		 push	 DWORD PTR [esi+268]
  000e8	ff d0		 call	 eax
  000ea	8b d8		 mov	 ebx, eax
  000ec	83 c4 1c	 add	 esp, 28			; 0000001cH
  000ef	89 9e 0c 01 00
	00		 mov	 DWORD PTR [esi+268], ebx

; 1690 : 		return m_lpPointer;

  000f5	8b 77 04	 mov	 esi, DWORD PTR [edi+4]
$LN23@InitAcctIn:

; 1737 : 		if(!m_hLib)

  000f8	83 7e 04 00	 cmp	 DWORD PTR [esi+4], 0
  000fc	75 15		 jne	 SHORT $LN27@InitAcctIn

; 1738 : 			return 0;

  000fe	33 c0		 xor	 eax, eax
; File D:\git\src\IBK\IBK_DRFN\ProjSrc\SrcDrfn\Chart\ExControl\ExAcctInput.cpp

; 325  : 	::SetPermanentHandle((HANDLE)m_pLoader->GetSafeHwnd(), (CObject*)lpControl);

  00100	53		 push	 ebx
  00101	50		 push	 eax
  00102	e8 00 00 00 00	 call	 ?SetPermanentHandle@@YAXPAXPAVCObject@@@Z ; SetPermanentHandle
  00107	83 c4 08	 add	 esp, 8

; 326  : 
; 327  : 	return (BOOL)lpControl;

  0010a	8b c3		 mov	 eax, ebx
  0010c	5f		 pop	 edi

; 328  : }

  0010d	5e		 pop	 esi
  0010e	5b		 pop	 ebx
  0010f	5d		 pop	 ebp
  00110	c2 18 00	 ret	 24			; 00000018H
$LN27@InitAcctIn:
; File D:\git\src\IBK\IBK_DRFN\ProjSrc\SrcDrfn\Chart\ExControl\Include\LoadHelper.h

; 1740 : 		return pGetSafeHwnd(m_lpPointer);

  00113	ff b6 0c 01 00
	00		 push	 DWORD PTR [esi+268]
  00119	8b 8e 34 01 00
	00		 mov	 ecx, DWORD PTR [esi+308]
  0011f	ff d1		 call	 ecx
  00121	83 c4 04	 add	 esp, 4
; File D:\git\src\IBK\IBK_DRFN\ProjSrc\SrcDrfn\Chart\ExControl\ExAcctInput.cpp

; 325  : 	::SetPermanentHandle((HANDLE)m_pLoader->GetSafeHwnd(), (CObject*)lpControl);

  00124	53		 push	 ebx
  00125	50		 push	 eax
  00126	e8 00 00 00 00	 call	 ?SetPermanentHandle@@YAXPAXPAVCObject@@@Z ; SetPermanentHandle
  0012b	83 c4 08	 add	 esp, 8

; 326  : 
; 327  : 	return (BOOL)lpControl;

  0012e	8b c3		 mov	 eax, ebx
  00130	5f		 pop	 edi

; 328  : }

  00131	5e		 pop	 esi
  00132	5b		 pop	 ebx
  00133	5d		 pop	 ebp
  00134	c2 18 00	 ret	 24			; 00000018H
?InitAcctInput@CExAcctInput@@QAEHPAVCDialog@@AAVCRect@@IPAPBDHPAVCBaseDesk2@@@Z ENDP ; CExAcctInput::InitAcctInput
_TEXT	ENDS
; Function compile flags: /Ogtp
; File D:\git\src\IBK\IBK_DRFN\ProjSrc\SrcDrfn\Chart\ExControl\ExAcctInput.cpp
; File C:\Program Files (x86)\Microsoft Visual Studio\2019\Community\VC\Tools\MSVC\14.29.30133\atlmfc\include\atltypes.h
; File D:\git\src\IBK\IBK_DRFN\ProjSrc\SrcDrfn\Chart\ExControl\ExAcctInput.cpp
; File C:\Program Files (x86)\Microsoft Visual Studio\2019\Community\VC\Tools\MSVC\14.29.30133\atlmfc\include\afxwin2.inl
; File D:\git\src\IBK\IBK_DRFN\ProjSrc\SrcDrfn\Chart\ExControl\ExAcctInput.cpp
; File D:\git\src\IBK\IBK_DRFN\ProjSrc\SrcDrfn\Chart\ExControl\Include\LoadHelper.h
; File D:\git\src\IBK\IBK_DRFN\ProjSrc\SrcDrfn\Chart\ExControl\ExAcctInput.cpp
; File C:\Program Files (x86)\Microsoft Visual Studio\2019\Community\VC\Tools\MSVC\14.29.30133\atlmfc\include\afxwin2.inl
; File D:\git\src\IBK\IBK_DRFN\ProjSrc\SrcDrfn\Chart\ExControl\ExAcctInput.cpp
; File D:\git\src\IBK\IBK_DRFN\ProjSrc\SrcDrfn\Chart\ExControl\Include\LoadHelper.h
; File D:\git\src\IBK\IBK_DRFN\ProjSrc\SrcDrfn\Chart\ExControl\ExAcctInput.cpp
; File D:\git\src\IBK\IBK_DRFN\ProjSrc\SrcDrfn\Chart\ExControl\Include\LoadHelper.h
; File D:\git\src\IBK\IBK_DRFN\ProjSrc\SrcDrfn\Chart\ExControl\ExAcctInput.cpp
; File D:\git\src\IBK\IBK_DRFN\ProjSrc\SrcDrfn\Chart\ExControl\Include\LoadHelper.h
; File D:\git\src\IBK\IBK_DRFN\ProjSrc\SrcDrfn\Chart\ExControl\ExAcctInput.cpp
;	COMDAT ?InitAcctInput@CExAcctInput@@QAEHPAVCDialog@@IPAVCStringList@@PAVCBaseDesk2@@@Z
_TEXT	SEGMENT
_pListProperty$GSCopy$1$ = -28				; size = 4
_nID$GSCopy$1$ = -24					; size = 4
_rcControl$ = -20					; size = 16
__$ArrayPad$ = -4					; size = 4
_pParent$ = 8						; size = 4
_nID$ = 12						; size = 4
_pListProperty$ = 16					; size = 4
_pBaseDesk$ = 20					; size = 4
?InitAcctInput@CExAcctInput@@QAEHPAVCDialog@@IPAVCStringList@@PAVCBaseDesk2@@@Z PROC ; CExAcctInput::InitAcctInput, COMDAT
; _this$ = ecx

; 245  : {

  00000	55		 push	 ebp
  00001	8b ec		 mov	 ebp, esp
  00003	83 ec 1c	 sub	 esp, 28			; 0000001cH
  00006	a1 00 00 00 00	 mov	 eax, DWORD PTR ___security_cookie
  0000b	33 c5		 xor	 eax, ebp
  0000d	89 45 fc	 mov	 DWORD PTR __$ArrayPad$[ebp], eax
  00010	8b 45 10	 mov	 eax, DWORD PTR _pListProperty$[ebp]
  00013	0f 57 c0	 xorps	 xmm0, xmm0
  00016	53		 push	 ebx
  00017	8b 5d 0c	 mov	 ebx, DWORD PTR _nID$[ebp]
  0001a	56		 push	 esi
  0001b	8b 75 08	 mov	 esi, DWORD PTR _pParent$[ebp]
  0001e	57		 push	 edi
  0001f	8b f9		 mov	 edi, ecx
  00021	89 5d e8	 mov	 DWORD PTR _nID$GSCopy$1$[ebp], ebx

; 247  : 	pParent->GetDlgItem(nID)->GetWindowRect(rcControl);

  00024	53		 push	 ebx
  00025	8b ce		 mov	 ecx, esi
  00027	89 45 e4	 mov	 DWORD PTR _pListProperty$GSCopy$1$[ebp], eax
; File C:\Program Files (x86)\Microsoft Visual Studio\2019\Community\VC\Tools\MSVC\14.29.30133\atlmfc\include\atltypes.h

; 528  : 	left = 0;

  0002a	0f 11 45 ec	 movups	 XMMWORD PTR _rcControl$[ebp], xmm0
; File D:\git\src\IBK\IBK_DRFN\ProjSrc\SrcDrfn\Chart\ExControl\ExAcctInput.cpp

; 247  : 	pParent->GetDlgItem(nID)->GetWindowRect(rcControl);

  0002e	e8 00 00 00 00	 call	 ?GetDlgItem@CWnd@@QBEPAV1@H@Z ; CWnd::GetDlgItem
; File C:\Program Files (x86)\Microsoft Visual Studio\2019\Community\VC\Tools\MSVC\14.29.30133\atlmfc\include\afxwin2.inl

; 84   : 	{ ASSERT(::IsWindow(m_hWnd)); ::GetWindowRect(m_hWnd, lpRect); }

  00033	8d 4d ec	 lea	 ecx, DWORD PTR _rcControl$[ebp]
  00036	51		 push	 ecx
  00037	ff 70 20	 push	 DWORD PTR [eax+32]
  0003a	ff 15 00 00 00
	00		 call	 DWORD PTR __imp__GetWindowRect@8
; File D:\git\src\IBK\IBK_DRFN\ProjSrc\SrcDrfn\Chart\ExControl\ExAcctInput.cpp

; 248  : 	pParent->ScreenToClient(rcControl);

  00040	8d 45 ec	 lea	 eax, DWORD PTR _rcControl$[ebp]
  00043	8b ce		 mov	 ecx, esi
  00045	50		 push	 eax
  00046	e8 00 00 00 00	 call	 ?ScreenToClient@CWnd@@QBEXPAUtagRECT@@@Z ; CWnd::ScreenToClient

; 249  : 	
; 250  : 	pParent->GetDlgItem(nID)->ShowWindow(SW_HIDE);

  0004b	6a 00		 push	 0
  0004d	53		 push	 ebx
  0004e	8b ce		 mov	 ecx, esi
  00050	e8 00 00 00 00	 call	 ?GetDlgItem@CWnd@@QBEPAV1@H@Z ; CWnd::GetDlgItem
  00055	8b c8		 mov	 ecx, eax
  00057	e8 00 00 00 00	 call	 ?ShowWindow@CWnd@@QAEHH@Z ; CWnd::ShowWindow

; 257  : 	if(m_bCreated)

  0005c	83 7f 0c 00	 cmp	 DWORD PTR [edi+12], 0
  00060	74 1a		 je	 SHORT $LN16@InitAcctIn

; 258  : 		m_pLoader->ExitAcctInput();

  00062	8b 47 04	 mov	 eax, DWORD PTR [edi+4]
; File D:\git\src\IBK\IBK_DRFN\ProjSrc\SrcDrfn\Chart\ExControl\Include\LoadHelper.h

; 1669 : 		if(!m_hLib)

  00065	83 78 04 00	 cmp	 DWORD PTR [eax+4], 0
  00069	74 11		 je	 SHORT $LN16@InitAcctIn

; 1670 : 			return;
; 1671 : 
; 1672 : 		pExitAcctInput(m_lpPointer);

  0006b	ff b0 0c 01 00
	00		 push	 DWORD PTR [eax+268]
  00071	8b 80 14 01 00
	00		 mov	 eax, DWORD PTR [eax+276]
  00077	ff d0		 call	 eax
  00079	83 c4 04	 add	 esp, 4
$LN16@InitAcctIn:
; File D:\git\src\IBK\IBK_DRFN\ProjSrc\SrcDrfn\Chart\ExControl\ExAcctInput.cpp

; 260  : 	if(pBaseDesk)

  0007c	8b 4d 14	 mov	 ecx, DWORD PTR _pBaseDesk$[ebp]
  0007f	89 77 08	 mov	 DWORD PTR [edi+8], esi
  00082	85 c9		 test	 ecx, ecx
  00084	74 09		 je	 SHORT $LN11@InitAcctIn

; 261  : 	{
; 262  : 		m_pParent = pParent;
; 263  : 		m_bCreated = TRUE;

  00086	c7 47 0c 01 00
	00 00		 mov	 DWORD PTR [edi+12], 1

; 264  : 		SetMyBaseDesk2(pBaseDesk);
; 265  : 	}

  0008d	eb 56		 jmp	 SHORT $LN51@InitAcctIn
$LN11@InitAcctIn:

; 266  : 	else
; 267  : 	{
; 268  : 		m_pParent = pParent;
; 269  : 
; 270  : 		while(!pParent->IsKindOf(RUNTIME_CLASS(CExOCXDLL)))

  0008f	e8 00 00 00 00	 call	 ?GetThisClass@CExOCXDLL@@SGPAUCRuntimeClass@@XZ ; CExOCXDLL::GetThisClass
  00094	50		 push	 eax
  00095	8b ce		 mov	 ecx, esi
  00097	e8 00 00 00 00	 call	 ?IsKindOf@CObject@@QBEHPBUCRuntimeClass@@@Z ; CObject::IsKindOf
  0009c	85 c0		 test	 eax, eax
  0009e	75 38		 jne	 SHORT $LN9@InitAcctIn
  000a0	8b 1d 00 00 00
	00		 mov	 ebx, DWORD PTR __imp__IsWindow@4
$LL8@InitAcctIn:
; File C:\Program Files (x86)\Microsoft Visual Studio\2019\Community\VC\Tools\MSVC\14.29.30133\atlmfc\include\afxwin2.inl

; 213  : 	{ ASSERT(::IsWindow(m_hWnd)); return CWnd::FromHandle(::GetParent(m_hWnd)); }

  000a6	ff 76 20	 push	 DWORD PTR [esi+32]
  000a9	ff 15 00 00 00
	00		 call	 DWORD PTR __imp__GetParent@4
  000af	50		 push	 eax
  000b0	e8 00 00 00 00	 call	 ?FromHandle@CWnd@@SGPAV1@PAUHWND__@@@Z ; CWnd::FromHandle
; File D:\git\src\IBK\IBK_DRFN\ProjSrc\SrcDrfn\Chart\ExControl\ExAcctInput.cpp

; 272  : 			pParent = (CDialog*)pParent->GetParent();

  000b5	8b f0		 mov	 esi, eax

; 273  : 			if(!pParent || !IsWindow(pParent->GetSafeHwnd()))

  000b7	85 f6		 test	 esi, esi
  000b9	74 59		 je	 SHORT $LN36@InitAcctIn
  000bb	ff 76 20	 push	 DWORD PTR [esi+32]
  000be	ff d3		 call	 ebx
  000c0	85 c0		 test	 eax, eax
  000c2	74 50		 je	 SHORT $LN36@InitAcctIn

; 266  : 	else
; 267  : 	{
; 268  : 		m_pParent = pParent;
; 269  : 
; 270  : 		while(!pParent->IsKindOf(RUNTIME_CLASS(CExOCXDLL)))

  000c4	e8 00 00 00 00	 call	 ?GetThisClass@CExOCXDLL@@SGPAUCRuntimeClass@@XZ ; CExOCXDLL::GetThisClass
  000c9	50		 push	 eax
  000ca	8b ce		 mov	 ecx, esi
  000cc	e8 00 00 00 00	 call	 ?IsKindOf@CObject@@QBEHPBUCRuntimeClass@@@Z ; CObject::IsKindOf
  000d1	85 c0		 test	 eax, eax
  000d3	74 d1		 je	 SHORT $LL8@InitAcctIn

; 273  : 			if(!pParent || !IsWindow(pParent->GetSafeHwnd()))

  000d5	8b 5d e8	 mov	 ebx, DWORD PTR _nID$GSCopy$1$[ebp]
$LN9@InitAcctIn:

; 274  : 				return FALSE;
; 275  : 		}
; 276  : 
; 277  : 		m_bCreated = TRUE;

  000d8	c7 47 0c 01 00
	00 00		 mov	 DWORD PTR [edi+12], 1

; 237  : 	m_pBaseDesk2 = (CX2000BaseDesk*)pBaseDesk;

  000df	8b 8e f8 01 00
	00		 mov	 ecx, DWORD PTR [esi+504]
$LN51@InitAcctIn:

; 281  : 	LPVOID lpControl = m_pLoader->CreateAcctInput(m_pParent, &rcControl, nID, (long)&m_x2000BaseDesk, pListProperty);

  000e5	89 4f 24	 mov	 DWORD PTR [edi+36], ecx
  000e8	8b 41 08	 mov	 eax, DWORD PTR [ecx+8]
  000eb	89 47 18	 mov	 DWORD PTR [edi+24], eax
  000ee	8b 41 0c	 mov	 eax, DWORD PTR [ecx+12]
  000f1	89 47 1c	 mov	 DWORD PTR [edi+28], eax
  000f4	8b 41 10	 mov	 eax, DWORD PTR [ecx+16]
  000f7	89 47 20	 mov	 DWORD PTR [edi+32], eax
  000fa	8d 41 04	 lea	 eax, DWORD PTR [ecx+4]
  000fd	50		 push	 eax
  000fe	8d 4f 14	 lea	 ecx, DWORD PTR [edi+20]
  00101	ff 15 00 00 00
	00		 call	 DWORD PTR __imp_??4?$CStringT@DV?$StrTraitMFC_DLL@DV?$ChTraitsCRT@D@ATL@@@@@ATL@@QAEAAV01@ABV01@@Z
  00107	8b 77 04	 mov	 esi, DWORD PTR [edi+4]
; File D:\git\src\IBK\IBK_DRFN\ProjSrc\SrcDrfn\Chart\ExControl\Include\LoadHelper.h

; 1677 : 		if(!m_hLib)

  0010a	83 7e 04 00	 cmp	 DWORD PTR [esi+4], 0
  0010e	75 19		 jne	 SHORT $LN30@InitAcctIn

; 1678 : 			return NULL;

  00110	33 db		 xor	 ebx, ebx
  00112	eb 40		 jmp	 SHORT $LN29@InitAcctIn
$LN36@InitAcctIn:
  00114	5f		 pop	 edi
; File D:\git\src\IBK\IBK_DRFN\ProjSrc\SrcDrfn\Chart\ExControl\ExAcctInput.cpp

; 253  : }

  00115	5e		 pop	 esi
  00116	33 c0		 xor	 eax, eax
  00118	5b		 pop	 ebx
  00119	8b 4d fc	 mov	 ecx, DWORD PTR __$ArrayPad$[ebp]
  0011c	33 cd		 xor	 ecx, ebp
  0011e	e8 00 00 00 00	 call	 @__security_check_cookie@4
  00123	8b e5		 mov	 esp, ebp
  00125	5d		 pop	 ebp
  00126	c2 10 00	 ret	 16			; 00000010H
$LN30@InitAcctIn:
; File D:\git\src\IBK\IBK_DRFN\ProjSrc\SrcDrfn\Chart\ExControl\Include\LoadHelper.h

; 1680 : 		m_lpPointer = pCreateAcctInputList(m_lpPointer, pWnd, pRect, nID, lBaseDesk, pListProperty);

  00129	ff 75 e4	 push	 DWORD PTR _pListProperty$GSCopy$1$[ebp]
; File D:\git\src\IBK\IBK_DRFN\ProjSrc\SrcDrfn\Chart\ExControl\ExAcctInput.cpp

; 281  : 	LPVOID lpControl = m_pLoader->CreateAcctInput(m_pParent, &rcControl, nID, (long)&m_x2000BaseDesk, pListProperty);

  0012c	8d 47 10	 lea	 eax, DWORD PTR [edi+16]
; File D:\git\src\IBK\IBK_DRFN\ProjSrc\SrcDrfn\Chart\ExControl\Include\LoadHelper.h

; 1680 : 		m_lpPointer = pCreateAcctInputList(m_lpPointer, pWnd, pRect, nID, lBaseDesk, pListProperty);

  0012f	50		 push	 eax
  00130	53		 push	 ebx
  00131	8d 45 ec	 lea	 eax, DWORD PTR _rcControl$[ebp]
  00134	50		 push	 eax
  00135	ff 77 08	 push	 DWORD PTR [edi+8]
  00138	8b 86 18 01 00
	00		 mov	 eax, DWORD PTR [esi+280]
  0013e	ff b6 0c 01 00
	00		 push	 DWORD PTR [esi+268]
  00144	ff d0		 call	 eax
  00146	8b d8		 mov	 ebx, eax
  00148	83 c4 18	 add	 esp, 24			; 00000018H
  0014b	89 9e 0c 01 00
	00		 mov	 DWORD PTR [esi+268], ebx

; 1681 : 		return m_lpPointer;

  00151	8b 77 04	 mov	 esi, DWORD PTR [edi+4]
$LN29@InitAcctIn:

; 1737 : 		if(!m_hLib)

  00154	83 7e 04 00	 cmp	 DWORD PTR [esi+4], 0
  00158	75 04		 jne	 SHORT $LN33@InitAcctIn

; 1738 : 			return 0;

  0015a	33 c0		 xor	 eax, eax
  0015c	eb 11		 jmp	 SHORT $LN32@InitAcctIn
$LN33@InitAcctIn:

; 1739 : 		
; 1740 : 		return pGetSafeHwnd(m_lpPointer);

  0015e	ff b6 0c 01 00
	00		 push	 DWORD PTR [esi+268]
  00164	8b 86 34 01 00
	00		 mov	 eax, DWORD PTR [esi+308]
  0016a	ff d0		 call	 eax
  0016c	83 c4 04	 add	 esp, 4
$LN32@InitAcctIn:
; File D:\git\src\IBK\IBK_DRFN\ProjSrc\SrcDrfn\Chart\ExControl\ExAcctInput.cpp

; 282  : 	::SetPermanentHandle((HANDLE)m_pLoader->GetSafeHwnd(), (CObject*)lpControl);

  0016f	53		 push	 ebx
  00170	50		 push	 eax
  00171	e8 00 00 00 00	 call	 ?SetPermanentHandle@@YAXPAXPAVCObject@@@Z ; SetPermanentHandle

; 253  : }

  00176	8b 4d fc	 mov	 ecx, DWORD PTR __$ArrayPad$[ebp]

; 282  : 	::SetPermanentHandle((HANDLE)m_pLoader->GetSafeHwnd(), (CObject*)lpControl);

  00179	83 c4 08	 add	 esp, 8

; 251  : 
; 252  : 	return InitAcctInput(pParent, rcControl, nID, pListProperty, pBaseDesk);

  0017c	8b c3		 mov	 eax, ebx

; 253  : }

  0017e	33 cd		 xor	 ecx, ebp
  00180	5f		 pop	 edi
  00181	5e		 pop	 esi
  00182	5b		 pop	 ebx
  00183	e8 00 00 00 00	 call	 @__security_check_cookie@4
  00188	8b e5		 mov	 esp, ebp
  0018a	5d		 pop	 ebp
  0018b	c2 10 00	 ret	 16			; 00000010H
?InitAcctInput@CExAcctInput@@QAEHPAVCDialog@@IPAVCStringList@@PAVCBaseDesk2@@@Z ENDP ; CExAcctInput::InitAcctInput
_TEXT	ENDS
; Function compile flags: /Ogtp
; File D:\git\src\IBK\IBK_DRFN\ProjSrc\SrcDrfn\Chart\ExControl\ExAcctInput.cpp
; File D:\git\src\IBK\IBK_DRFN\ProjSrc\SrcDrfn\Chart\ExControl\Include\LoadHelper.h
; File D:\git\src\IBK\IBK_DRFN\ProjSrc\SrcDrfn\Chart\ExControl\ExAcctInput.cpp
; File C:\Program Files (x86)\Microsoft Visual Studio\2019\Community\VC\Tools\MSVC\14.29.30133\atlmfc\include\afxwin2.inl
; File D:\git\src\IBK\IBK_DRFN\ProjSrc\SrcDrfn\Chart\ExControl\ExAcctInput.cpp
; File D:\git\src\IBK\IBK_DRFN\ProjSrc\SrcDrfn\Chart\ExControl\Include\LoadHelper.h
; File D:\git\src\IBK\IBK_DRFN\ProjSrc\SrcDrfn\Chart\ExControl\ExAcctInput.cpp
; File D:\git\src\IBK\IBK_DRFN\ProjSrc\SrcDrfn\Chart\ExControl\Include\LoadHelper.h
; File D:\git\src\IBK\IBK_DRFN\ProjSrc\SrcDrfn\Chart\ExControl\ExAcctInput.cpp
; File D:\git\src\IBK\IBK_DRFN\ProjSrc\SrcDrfn\Chart\ExControl\Include\LoadHelper.h
; File D:\git\src\IBK\IBK_DRFN\ProjSrc\SrcDrfn\Chart\ExControl\ExAcctInput.cpp
; File D:\git\src\IBK\IBK_DRFN\ProjSrc\SrcDrfn\Chart\ExControl\Include\LoadHelper.h
; File D:\git\src\IBK\IBK_DRFN\ProjSrc\SrcDrfn\Chart\ExControl\ExAcctInput.cpp
;	COMDAT ?InitAcctInput@CExAcctInput@@QAEHPAVCDialog@@AAVCRect@@IPAVCStringList@@PAVCBaseDesk2@@@Z
_TEXT	SEGMENT
_pParent$ = 8						; size = 4
_rcControl$ = 12					; size = 4
_nID$ = 16						; size = 4
_pListProperty$ = 20					; size = 4
_pBaseDesk$ = 24					; size = 4
?InitAcctInput@CExAcctInput@@QAEHPAVCDialog@@AAVCRect@@IPAVCStringList@@PAVCBaseDesk2@@@Z PROC ; CExAcctInput::InitAcctInput, COMDAT
; _this$ = ecx

; 256  : {

  00000	55		 push	 ebp
  00001	8b ec		 mov	 ebp, esp
  00003	53		 push	 ebx
  00004	56		 push	 esi
  00005	8b 75 08	 mov	 esi, DWORD PTR _pParent$[ebp]
  00008	57		 push	 edi
  00009	8b f9		 mov	 edi, ecx

; 257  : 	if(m_bCreated)

  0000b	83 7f 0c 00	 cmp	 DWORD PTR [edi+12], 0
  0000f	74 1a		 je	 SHORT $LN10@InitAcctIn

; 258  : 		m_pLoader->ExitAcctInput();

  00011	8b 47 04	 mov	 eax, DWORD PTR [edi+4]
; File D:\git\src\IBK\IBK_DRFN\ProjSrc\SrcDrfn\Chart\ExControl\Include\LoadHelper.h

; 1669 : 		if(!m_hLib)

  00014	83 78 04 00	 cmp	 DWORD PTR [eax+4], 0
  00018	74 11		 je	 SHORT $LN10@InitAcctIn

; 1670 : 			return;
; 1671 : 
; 1672 : 		pExitAcctInput(m_lpPointer);

  0001a	ff b0 0c 01 00
	00		 push	 DWORD PTR [eax+268]
  00020	8b 80 14 01 00
	00		 mov	 eax, DWORD PTR [eax+276]
  00026	ff d0		 call	 eax
  00028	83 c4 04	 add	 esp, 4
$LN10@InitAcctIn:
; File D:\git\src\IBK\IBK_DRFN\ProjSrc\SrcDrfn\Chart\ExControl\ExAcctInput.cpp

; 260  : 	if(pBaseDesk)

  0002b	8b 4d 18	 mov	 ecx, DWORD PTR _pBaseDesk$[ebp]
  0002e	89 77 08	 mov	 DWORD PTR [edi+8], esi
  00031	85 c9		 test	 ecx, ecx
  00033	74 09		 je	 SHORT $LN5@InitAcctIn

; 261  : 	{
; 262  : 		m_pParent = pParent;
; 263  : 		m_bCreated = TRUE;

  00035	c7 47 0c 01 00
	00 00		 mov	 DWORD PTR [edi+12], 1

; 264  : 		SetMyBaseDesk2(pBaseDesk);
; 265  : 	}

  0003c	eb 53		 jmp	 SHORT $LN33@InitAcctIn
$LN5@InitAcctIn:

; 266  : 	else
; 267  : 	{
; 268  : 		m_pParent = pParent;
; 269  : 
; 270  : 		while(!pParent->IsKindOf(RUNTIME_CLASS(CExOCXDLL)))

  0003e	e8 00 00 00 00	 call	 ?GetThisClass@CExOCXDLL@@SGPAUCRuntimeClass@@XZ ; CExOCXDLL::GetThisClass
  00043	50		 push	 eax
  00044	8b ce		 mov	 ecx, esi
  00046	e8 00 00 00 00	 call	 ?IsKindOf@CObject@@QBEHPBUCRuntimeClass@@@Z ; CObject::IsKindOf
  0004b	85 c0		 test	 eax, eax
  0004d	75 35		 jne	 SHORT $LN3@InitAcctIn
  0004f	8b 1d 00 00 00
	00		 mov	 ebx, DWORD PTR __imp__IsWindow@4
$LL2@InitAcctIn:
; File C:\Program Files (x86)\Microsoft Visual Studio\2019\Community\VC\Tools\MSVC\14.29.30133\atlmfc\include\afxwin2.inl

; 213  : 	{ ASSERT(::IsWindow(m_hWnd)); return CWnd::FromHandle(::GetParent(m_hWnd)); }

  00055	ff 76 20	 push	 DWORD PTR [esi+32]
  00058	ff 15 00 00 00
	00		 call	 DWORD PTR __imp__GetParent@4
  0005e	50		 push	 eax
  0005f	e8 00 00 00 00	 call	 ?FromHandle@CWnd@@SGPAV1@PAUHWND__@@@Z ; CWnd::FromHandle
; File D:\git\src\IBK\IBK_DRFN\ProjSrc\SrcDrfn\Chart\ExControl\ExAcctInput.cpp

; 272  : 			pParent = (CDialog*)pParent->GetParent();

  00064	8b f0		 mov	 esi, eax

; 273  : 			if(!pParent || !IsWindow(pParent->GetSafeHwnd()))

  00066	85 f6		 test	 esi, esi
  00068	74 56		 je	 SHORT $LN30@InitAcctIn
  0006a	ff 76 20	 push	 DWORD PTR [esi+32]
  0006d	ff d3		 call	 ebx
  0006f	85 c0		 test	 eax, eax
  00071	74 4d		 je	 SHORT $LN30@InitAcctIn

; 266  : 	else
; 267  : 	{
; 268  : 		m_pParent = pParent;
; 269  : 
; 270  : 		while(!pParent->IsKindOf(RUNTIME_CLASS(CExOCXDLL)))

  00073	e8 00 00 00 00	 call	 ?GetThisClass@CExOCXDLL@@SGPAUCRuntimeClass@@XZ ; CExOCXDLL::GetThisClass
  00078	50		 push	 eax
  00079	8b ce		 mov	 ecx, esi
  0007b	e8 00 00 00 00	 call	 ?IsKindOf@CObject@@QBEHPBUCRuntimeClass@@@Z ; CObject::IsKindOf
  00080	85 c0		 test	 eax, eax
  00082	74 d1		 je	 SHORT $LL2@InitAcctIn
$LN3@InitAcctIn:

; 274  : 				return FALSE;
; 275  : 		}
; 276  : 
; 277  : 		m_bCreated = TRUE;

  00084	c7 47 0c 01 00
	00 00		 mov	 DWORD PTR [edi+12], 1

; 237  : 	m_pBaseDesk2 = (CX2000BaseDesk*)pBaseDesk;

  0008b	8b 8e f8 01 00
	00		 mov	 ecx, DWORD PTR [esi+504]
$LN33@InitAcctIn:

; 281  : 	LPVOID lpControl = m_pLoader->CreateAcctInput(m_pParent, &rcControl, nID, (long)&m_x2000BaseDesk, pListProperty);

  00091	89 4f 24	 mov	 DWORD PTR [edi+36], ecx
  00094	8b 41 08	 mov	 eax, DWORD PTR [ecx+8]
  00097	89 47 18	 mov	 DWORD PTR [edi+24], eax
  0009a	8b 41 0c	 mov	 eax, DWORD PTR [ecx+12]
  0009d	89 47 1c	 mov	 DWORD PTR [edi+28], eax
  000a0	8b 41 10	 mov	 eax, DWORD PTR [ecx+16]
  000a3	89 47 20	 mov	 DWORD PTR [edi+32], eax
  000a6	8d 41 04	 lea	 eax, DWORD PTR [ecx+4]
  000a9	50		 push	 eax
  000aa	8d 4f 14	 lea	 ecx, DWORD PTR [edi+20]
  000ad	ff 15 00 00 00
	00		 call	 DWORD PTR __imp_??4?$CStringT@DV?$StrTraitMFC_DLL@DV?$ChTraitsCRT@D@ATL@@@@@ATL@@QAEAAV01@ABV01@@Z
  000b3	8b 77 04	 mov	 esi, DWORD PTR [edi+4]
; File D:\git\src\IBK\IBK_DRFN\ProjSrc\SrcDrfn\Chart\ExControl\Include\LoadHelper.h

; 1677 : 		if(!m_hLib)

  000b6	83 7e 04 00	 cmp	 DWORD PTR [esi+4], 0
  000ba	75 0d		 jne	 SHORT $LN24@InitAcctIn

; 1678 : 			return NULL;

  000bc	33 db		 xor	 ebx, ebx
  000be	eb 35		 jmp	 SHORT $LN23@InitAcctIn
$LN30@InitAcctIn:
  000c0	5f		 pop	 edi
; File D:\git\src\IBK\IBK_DRFN\ProjSrc\SrcDrfn\Chart\ExControl\ExAcctInput.cpp

; 285  : }

  000c1	5e		 pop	 esi
  000c2	33 c0		 xor	 eax, eax
  000c4	5b		 pop	 ebx
  000c5	5d		 pop	 ebp
  000c6	c2 14 00	 ret	 20			; 00000014H
$LN24@InitAcctIn:
; File D:\git\src\IBK\IBK_DRFN\ProjSrc\SrcDrfn\Chart\ExControl\Include\LoadHelper.h

; 1680 : 		m_lpPointer = pCreateAcctInputList(m_lpPointer, pWnd, pRect, nID, lBaseDesk, pListProperty);

  000c9	ff 75 14	 push	 DWORD PTR _pListProperty$[ebp]
; File D:\git\src\IBK\IBK_DRFN\ProjSrc\SrcDrfn\Chart\ExControl\ExAcctInput.cpp

; 281  : 	LPVOID lpControl = m_pLoader->CreateAcctInput(m_pParent, &rcControl, nID, (long)&m_x2000BaseDesk, pListProperty);

  000cc	8d 47 10	 lea	 eax, DWORD PTR [edi+16]
; File D:\git\src\IBK\IBK_DRFN\ProjSrc\SrcDrfn\Chart\ExControl\Include\LoadHelper.h

; 1680 : 		m_lpPointer = pCreateAcctInputList(m_lpPointer, pWnd, pRect, nID, lBaseDesk, pListProperty);

  000cf	50		 push	 eax
  000d0	ff 75 10	 push	 DWORD PTR _nID$[ebp]
  000d3	8b 86 18 01 00
	00		 mov	 eax, DWORD PTR [esi+280]
  000d9	ff 75 0c	 push	 DWORD PTR _rcControl$[ebp]
  000dc	ff 77 08	 push	 DWORD PTR [edi+8]
  000df	ff b6 0c 01 00
	00		 push	 DWORD PTR [esi+268]
  000e5	ff d0		 call	 eax
  000e7	8b d8		 mov	 ebx, eax
  000e9	83 c4 18	 add	 esp, 24			; 00000018H
  000ec	89 9e 0c 01 00
	00		 mov	 DWORD PTR [esi+268], ebx

; 1681 : 		return m_lpPointer;

  000f2	8b 77 04	 mov	 esi, DWORD PTR [edi+4]
$LN23@InitAcctIn:

; 1737 : 		if(!m_hLib)

  000f5	83 7e 04 00	 cmp	 DWORD PTR [esi+4], 0
  000f9	75 15		 jne	 SHORT $LN27@InitAcctIn

; 1738 : 			return 0;

  000fb	33 c0		 xor	 eax, eax
; File D:\git\src\IBK\IBK_DRFN\ProjSrc\SrcDrfn\Chart\ExControl\ExAcctInput.cpp

; 282  : 	::SetPermanentHandle((HANDLE)m_pLoader->GetSafeHwnd(), (CObject*)lpControl);

  000fd	53		 push	 ebx
  000fe	50		 push	 eax
  000ff	e8 00 00 00 00	 call	 ?SetPermanentHandle@@YAXPAXPAVCObject@@@Z ; SetPermanentHandle
  00104	83 c4 08	 add	 esp, 8

; 283  : 
; 284  : 	return (BOOL)lpControl;

  00107	8b c3		 mov	 eax, ebx
  00109	5f		 pop	 edi

; 285  : }

  0010a	5e		 pop	 esi
  0010b	5b		 pop	 ebx
  0010c	5d		 pop	 ebp
  0010d	c2 14 00	 ret	 20			; 00000014H
$LN27@InitAcctIn:
; File D:\git\src\IBK\IBK_DRFN\ProjSrc\SrcDrfn\Chart\ExControl\Include\LoadHelper.h

; 1740 : 		return pGetSafeHwnd(m_lpPointer);

  00110	ff b6 0c 01 00
	00		 push	 DWORD PTR [esi+268]
  00116	8b 8e 34 01 00
	00		 mov	 ecx, DWORD PTR [esi+308]
  0011c	ff d1		 call	 ecx
  0011e	83 c4 04	 add	 esp, 4
; File D:\git\src\IBK\IBK_DRFN\ProjSrc\SrcDrfn\Chart\ExControl\ExAcctInput.cpp

; 282  : 	::SetPermanentHandle((HANDLE)m_pLoader->GetSafeHwnd(), (CObject*)lpControl);

  00121	53		 push	 ebx
  00122	50		 push	 eax
  00123	e8 00 00 00 00	 call	 ?SetPermanentHandle@@YAXPAXPAVCObject@@@Z ; SetPermanentHandle
  00128	83 c4 08	 add	 esp, 8

; 283  : 
; 284  : 	return (BOOL)lpControl;

  0012b	8b c3		 mov	 eax, ebx
  0012d	5f		 pop	 edi

; 285  : }

  0012e	5e		 pop	 esi
  0012f	5b		 pop	 ebx
  00130	5d		 pop	 ebp
  00131	c2 14 00	 ret	 20			; 00000014H
?InitAcctInput@CExAcctInput@@QAEHPAVCDialog@@AAVCRect@@IPAVCStringList@@PAVCBaseDesk2@@@Z ENDP ; CExAcctInput::InitAcctInput
_TEXT	ENDS
; Function compile flags: /Ogtp
; File D:\git\src\IBK\IBK_DRFN\ProjSrc\SrcDrfn\Chart\ExControl\ExAcctInput.cpp
; File C:\Program Files (x86)\Microsoft Visual Studio\2019\Community\VC\Tools\MSVC\14.29.30133\atlmfc\include\atltypes.h
; File D:\git\src\IBK\IBK_DRFN\ProjSrc\SrcDrfn\Chart\ExControl\ExAcctInput.cpp
; File C:\Program Files (x86)\Microsoft Visual Studio\2019\Community\VC\Tools\MSVC\14.29.30133\atlmfc\include\afxwin2.inl
; File D:\git\src\IBK\IBK_DRFN\ProjSrc\SrcDrfn\Chart\ExControl\ExAcctInput.cpp
; File D:\git\src\IBK\IBK_DRFN\ProjSrc\SrcDrfn\Chart\ExControl\Include\LoadHelper.h
; File D:\git\src\IBK\IBK_DRFN\ProjSrc\SrcDrfn\Chart\ExControl\ExAcctInput.cpp
; File C:\Program Files (x86)\Microsoft Visual Studio\2019\Community\VC\Tools\MSVC\14.29.30133\atlmfc\include\afxwin2.inl
; File D:\git\src\IBK\IBK_DRFN\ProjSrc\SrcDrfn\Chart\ExControl\ExAcctInput.cpp
; File D:\git\src\IBK\IBK_DRFN\ProjSrc\SrcDrfn\Chart\ExControl\Include\LoadHelper.h
; File D:\git\src\IBK\IBK_DRFN\ProjSrc\SrcDrfn\Chart\ExControl\ExAcctInput.cpp
; File D:\git\src\IBK\IBK_DRFN\ProjSrc\SrcDrfn\Chart\ExControl\Include\LoadHelper.h
; File D:\git\src\IBK\IBK_DRFN\ProjSrc\SrcDrfn\Chart\ExControl\ExAcctInput.cpp
; File D:\git\src\IBK\IBK_DRFN\ProjSrc\SrcDrfn\Chart\ExControl\Include\LoadHelper.h
; File D:\git\src\IBK\IBK_DRFN\ProjSrc\SrcDrfn\Chart\ExControl\ExAcctInput.cpp
;	COMDAT ?InitAcctInput@CExAcctInput@@QAEHPAVCDialog@@IIPAVCBaseDesk2@@@Z
_TEXT	SEGMENT
_nID$GSCopy$1$ = -24					; size = 4
_rcControl$ = -20					; size = 16
__$ArrayPad$ = -4					; size = 4
_pParent$ = 8						; size = 4
_nID$ = 12						; size = 4
_nProperties$ = 16					; size = 4
_pBaseDesk$ = 20					; size = 4
?InitAcctInput@CExAcctInput@@QAEHPAVCDialog@@IIPAVCBaseDesk2@@@Z PROC ; CExAcctInput::InitAcctInput, COMDAT
; _this$ = ecx

; 374  : {

  00000	55		 push	 ebp
  00001	8b ec		 mov	 ebp, esp
  00003	83 ec 18	 sub	 esp, 24			; 00000018H
  00006	a1 00 00 00 00	 mov	 eax, DWORD PTR ___security_cookie
  0000b	33 c5		 xor	 eax, ebp
  0000d	89 45 fc	 mov	 DWORD PTR __$ArrayPad$[ebp], eax
  00010	53		 push	 ebx
  00011	8b 5d 0c	 mov	 ebx, DWORD PTR _nID$[ebp]
  00014	0f 57 c0	 xorps	 xmm0, xmm0
  00017	56		 push	 esi
  00018	8b 75 08	 mov	 esi, DWORD PTR _pParent$[ebp]
  0001b	57		 push	 edi
  0001c	8b f9		 mov	 edi, ecx
  0001e	89 5d e8	 mov	 DWORD PTR _nID$GSCopy$1$[ebp], ebx

; 376  : 	pParent->GetDlgItem(nID)->GetWindowRect(rcControl);

  00021	53		 push	 ebx
  00022	8b ce		 mov	 ecx, esi
; File C:\Program Files (x86)\Microsoft Visual Studio\2019\Community\VC\Tools\MSVC\14.29.30133\atlmfc\include\atltypes.h

; 528  : 	left = 0;

  00024	0f 11 45 ec	 movups	 XMMWORD PTR _rcControl$[ebp], xmm0
; File D:\git\src\IBK\IBK_DRFN\ProjSrc\SrcDrfn\Chart\ExControl\ExAcctInput.cpp

; 376  : 	pParent->GetDlgItem(nID)->GetWindowRect(rcControl);

  00028	e8 00 00 00 00	 call	 ?GetDlgItem@CWnd@@QBEPAV1@H@Z ; CWnd::GetDlgItem
; File C:\Program Files (x86)\Microsoft Visual Studio\2019\Community\VC\Tools\MSVC\14.29.30133\atlmfc\include\afxwin2.inl

; 84   : 	{ ASSERT(::IsWindow(m_hWnd)); ::GetWindowRect(m_hWnd, lpRect); }

  0002d	8d 4d ec	 lea	 ecx, DWORD PTR _rcControl$[ebp]
  00030	51		 push	 ecx
  00031	ff 70 20	 push	 DWORD PTR [eax+32]
  00034	ff 15 00 00 00
	00		 call	 DWORD PTR __imp__GetWindowRect@8
; File D:\git\src\IBK\IBK_DRFN\ProjSrc\SrcDrfn\Chart\ExControl\ExAcctInput.cpp

; 377  : 	pParent->ScreenToClient(rcControl);

  0003a	8d 45 ec	 lea	 eax, DWORD PTR _rcControl$[ebp]
  0003d	8b ce		 mov	 ecx, esi
  0003f	50		 push	 eax
  00040	e8 00 00 00 00	 call	 ?ScreenToClient@CWnd@@QBEXPAUtagRECT@@@Z ; CWnd::ScreenToClient

; 378  : 
; 379  : 	pParent->GetDlgItem(nID)->ShowWindow(SW_HIDE);

  00045	6a 00		 push	 0
  00047	53		 push	 ebx
  00048	8b ce		 mov	 ecx, esi
  0004a	e8 00 00 00 00	 call	 ?GetDlgItem@CWnd@@QBEPAV1@H@Z ; CWnd::GetDlgItem
  0004f	8b c8		 mov	 ecx, eax
  00051	e8 00 00 00 00	 call	 ?ShowWindow@CWnd@@QAEHH@Z ; CWnd::ShowWindow

; 386  : 	if(m_bCreated)

  00056	83 7f 0c 00	 cmp	 DWORD PTR [edi+12], 0
  0005a	74 1a		 je	 SHORT $LN16@InitAcctIn

; 387  : 		m_pLoader->ExitAcctInput();

  0005c	8b 47 04	 mov	 eax, DWORD PTR [edi+4]
; File D:\git\src\IBK\IBK_DRFN\ProjSrc\SrcDrfn\Chart\ExControl\Include\LoadHelper.h

; 1669 : 		if(!m_hLib)

  0005f	83 78 04 00	 cmp	 DWORD PTR [eax+4], 0
  00063	74 11		 je	 SHORT $LN16@InitAcctIn

; 1670 : 			return;
; 1671 : 
; 1672 : 		pExitAcctInput(m_lpPointer);

  00065	ff b0 0c 01 00
	00		 push	 DWORD PTR [eax+268]
  0006b	8b 80 14 01 00
	00		 mov	 eax, DWORD PTR [eax+276]
  00071	ff d0		 call	 eax
  00073	83 c4 04	 add	 esp, 4
$LN16@InitAcctIn:
; File D:\git\src\IBK\IBK_DRFN\ProjSrc\SrcDrfn\Chart\ExControl\ExAcctInput.cpp

; 389  : 	if(pBaseDesk)

  00076	8b 4d 14	 mov	 ecx, DWORD PTR _pBaseDesk$[ebp]
  00079	89 77 08	 mov	 DWORD PTR [edi+8], esi
  0007c	85 c9		 test	 ecx, ecx
  0007e	74 09		 je	 SHORT $LN11@InitAcctIn

; 390  : 	{
; 391  : 		m_pParent = pParent;
; 392  : 		m_bCreated = TRUE;

  00080	c7 47 0c 01 00
	00 00		 mov	 DWORD PTR [edi+12], 1

; 393  : 		SetMyBaseDesk2(pBaseDesk);
; 394  : 	}

  00087	eb 56		 jmp	 SHORT $LN51@InitAcctIn
$LN11@InitAcctIn:

; 395  : 	else
; 396  : 	{
; 397  : 		m_pParent = pParent;
; 398  : 
; 399  : 		while(!pParent->IsKindOf(RUNTIME_CLASS(CExOCXDLL)))

  00089	e8 00 00 00 00	 call	 ?GetThisClass@CExOCXDLL@@SGPAUCRuntimeClass@@XZ ; CExOCXDLL::GetThisClass
  0008e	50		 push	 eax
  0008f	8b ce		 mov	 ecx, esi
  00091	e8 00 00 00 00	 call	 ?IsKindOf@CObject@@QBEHPBUCRuntimeClass@@@Z ; CObject::IsKindOf
  00096	85 c0		 test	 eax, eax
  00098	75 38		 jne	 SHORT $LN9@InitAcctIn
  0009a	8b 1d 00 00 00
	00		 mov	 ebx, DWORD PTR __imp__IsWindow@4
$LL8@InitAcctIn:
; File C:\Program Files (x86)\Microsoft Visual Studio\2019\Community\VC\Tools\MSVC\14.29.30133\atlmfc\include\afxwin2.inl

; 213  : 	{ ASSERT(::IsWindow(m_hWnd)); return CWnd::FromHandle(::GetParent(m_hWnd)); }

  000a0	ff 76 20	 push	 DWORD PTR [esi+32]
  000a3	ff 15 00 00 00
	00		 call	 DWORD PTR __imp__GetParent@4
  000a9	50		 push	 eax
  000aa	e8 00 00 00 00	 call	 ?FromHandle@CWnd@@SGPAV1@PAUHWND__@@@Z ; CWnd::FromHandle
; File D:\git\src\IBK\IBK_DRFN\ProjSrc\SrcDrfn\Chart\ExControl\ExAcctInput.cpp

; 401  : 			pParent = (CDialog*)pParent->GetParent();

  000af	8b f0		 mov	 esi, eax

; 402  : 			if(!pParent || !IsWindow(pParent->GetSafeHwnd()))

  000b1	85 f6		 test	 esi, esi
  000b3	74 59		 je	 SHORT $LN36@InitAcctIn
  000b5	ff 76 20	 push	 DWORD PTR [esi+32]
  000b8	ff d3		 call	 ebx
  000ba	85 c0		 test	 eax, eax
  000bc	74 50		 je	 SHORT $LN36@InitAcctIn

; 395  : 	else
; 396  : 	{
; 397  : 		m_pParent = pParent;
; 398  : 
; 399  : 		while(!pParent->IsKindOf(RUNTIME_CLASS(CExOCXDLL)))

  000be	e8 00 00 00 00	 call	 ?GetThisClass@CExOCXDLL@@SGPAUCRuntimeClass@@XZ ; CExOCXDLL::GetThisClass
  000c3	50		 push	 eax
  000c4	8b ce		 mov	 ecx, esi
  000c6	e8 00 00 00 00	 call	 ?IsKindOf@CObject@@QBEHPBUCRuntimeClass@@@Z ; CObject::IsKindOf
  000cb	85 c0		 test	 eax, eax
  000cd	74 d1		 je	 SHORT $LL8@InitAcctIn

; 402  : 			if(!pParent || !IsWindow(pParent->GetSafeHwnd()))

  000cf	8b 5d e8	 mov	 ebx, DWORD PTR _nID$GSCopy$1$[ebp]
$LN9@InitAcctIn:

; 403  : 				return FALSE;
; 404  : 		}
; 405  : 
; 406  : 		m_bCreated = TRUE;

  000d2	c7 47 0c 01 00
	00 00		 mov	 DWORD PTR [edi+12], 1

; 237  : 	m_pBaseDesk2 = (CX2000BaseDesk*)pBaseDesk;

  000d9	8b 8e f8 01 00
	00		 mov	 ecx, DWORD PTR [esi+504]
$LN51@InitAcctIn:

; 410  : 	LPVOID lpControl = m_pLoader->CreateAcctInput(m_pParent, &rcControl, nID, (long)&m_x2000BaseDesk, nProperties);

  000df	89 4f 24	 mov	 DWORD PTR [edi+36], ecx
  000e2	8b 41 08	 mov	 eax, DWORD PTR [ecx+8]
  000e5	89 47 18	 mov	 DWORD PTR [edi+24], eax
  000e8	8b 41 0c	 mov	 eax, DWORD PTR [ecx+12]
  000eb	89 47 1c	 mov	 DWORD PTR [edi+28], eax
  000ee	8b 41 10	 mov	 eax, DWORD PTR [ecx+16]
  000f1	89 47 20	 mov	 DWORD PTR [edi+32], eax
  000f4	8d 41 04	 lea	 eax, DWORD PTR [ecx+4]
  000f7	50		 push	 eax
  000f8	8d 4f 14	 lea	 ecx, DWORD PTR [edi+20]
  000fb	ff 15 00 00 00
	00		 call	 DWORD PTR __imp_??4?$CStringT@DV?$StrTraitMFC_DLL@DV?$ChTraitsCRT@D@ATL@@@@@ATL@@QAEAAV01@ABV01@@Z
  00101	8b 77 04	 mov	 esi, DWORD PTR [edi+4]
; File D:\git\src\IBK\IBK_DRFN\ProjSrc\SrcDrfn\Chart\ExControl\Include\LoadHelper.h

; 1704 : 		if(!m_hLib)

  00104	83 7e 04 00	 cmp	 DWORD PTR [esi+4], 0
  00108	75 19		 jne	 SHORT $LN30@InitAcctIn

; 1705 : 			return NULL;

  0010a	33 db		 xor	 ebx, ebx
  0010c	eb 40		 jmp	 SHORT $LN29@InitAcctIn
$LN36@InitAcctIn:
  0010e	5f		 pop	 edi
; File D:\git\src\IBK\IBK_DRFN\ProjSrc\SrcDrfn\Chart\ExControl\ExAcctInput.cpp

; 382  : }

  0010f	5e		 pop	 esi
  00110	33 c0		 xor	 eax, eax
  00112	5b		 pop	 ebx
  00113	8b 4d fc	 mov	 ecx, DWORD PTR __$ArrayPad$[ebp]
  00116	33 cd		 xor	 ecx, ebp
  00118	e8 00 00 00 00	 call	 @__security_check_cookie@4
  0011d	8b e5		 mov	 esp, ebp
  0011f	5d		 pop	 ebp
  00120	c2 10 00	 ret	 16			; 00000010H
$LN30@InitAcctIn:
; File D:\git\src\IBK\IBK_DRFN\ProjSrc\SrcDrfn\Chart\ExControl\Include\LoadHelper.h

; 1707 : 		m_lpPointer = pCreateAcctInputInt(m_lpPointer, pWnd, pRect, nID, lBaseDesk, nProperties);

  00123	ff 75 10	 push	 DWORD PTR _nProperties$[ebp]
; File D:\git\src\IBK\IBK_DRFN\ProjSrc\SrcDrfn\Chart\ExControl\ExAcctInput.cpp

; 410  : 	LPVOID lpControl = m_pLoader->CreateAcctInput(m_pParent, &rcControl, nID, (long)&m_x2000BaseDesk, nProperties);

  00126	8d 47 10	 lea	 eax, DWORD PTR [edi+16]
; File D:\git\src\IBK\IBK_DRFN\ProjSrc\SrcDrfn\Chart\ExControl\Include\LoadHelper.h

; 1707 : 		m_lpPointer = pCreateAcctInputInt(m_lpPointer, pWnd, pRect, nID, lBaseDesk, nProperties);

  00129	50		 push	 eax
  0012a	53		 push	 ebx
  0012b	8d 45 ec	 lea	 eax, DWORD PTR _rcControl$[ebp]
  0012e	50		 push	 eax
  0012f	ff 77 08	 push	 DWORD PTR [edi+8]
  00132	8b 86 24 01 00
	00		 mov	 eax, DWORD PTR [esi+292]
  00138	ff b6 0c 01 00
	00		 push	 DWORD PTR [esi+268]
  0013e	ff d0		 call	 eax
  00140	8b d8		 mov	 ebx, eax
  00142	83 c4 18	 add	 esp, 24			; 00000018H
  00145	89 9e 0c 01 00
	00		 mov	 DWORD PTR [esi+268], ebx

; 1708 : 		return m_lpPointer;

  0014b	8b 77 04	 mov	 esi, DWORD PTR [edi+4]
$LN29@InitAcctIn:

; 1729 : 		if(!m_hLib)

  0014e	83 7e 04 00	 cmp	 DWORD PTR [esi+4], 0
  00152	75 04		 jne	 SHORT $LN33@InitAcctIn

; 1730 : 			return 0;

  00154	33 c0		 xor	 eax, eax
  00156	eb 11		 jmp	 SHORT $LN32@InitAcctIn
$LN33@InitAcctIn:

; 1731 : 		
; 1732 : 		return pGetHWnd(m_lpPointer);

  00158	ff b6 0c 01 00
	00		 push	 DWORD PTR [esi+268]
  0015e	8b 86 30 01 00
	00		 mov	 eax, DWORD PTR [esi+304]
  00164	ff d0		 call	 eax
  00166	83 c4 04	 add	 esp, 4
$LN32@InitAcctIn:
; File D:\git\src\IBK\IBK_DRFN\ProjSrc\SrcDrfn\Chart\ExControl\ExAcctInput.cpp

; 411  : 	::SetPermanentHandle((HANDLE)m_pLoader->GetHWnd(), (CObject*)lpControl);

  00169	53		 push	 ebx
  0016a	50		 push	 eax
  0016b	e8 00 00 00 00	 call	 ?SetPermanentHandle@@YAXPAXPAVCObject@@@Z ; SetPermanentHandle

; 382  : }

  00170	8b 4d fc	 mov	 ecx, DWORD PTR __$ArrayPad$[ebp]

; 411  : 	::SetPermanentHandle((HANDLE)m_pLoader->GetHWnd(), (CObject*)lpControl);

  00173	83 c4 08	 add	 esp, 8

; 380  : 
; 381  : 	return InitAcctInput(pParent, rcControl, nID, nProperties, pBaseDesk);

  00176	8b c3		 mov	 eax, ebx

; 382  : }

  00178	33 cd		 xor	 ecx, ebp
  0017a	5f		 pop	 edi
  0017b	5e		 pop	 esi
  0017c	5b		 pop	 ebx
  0017d	e8 00 00 00 00	 call	 @__security_check_cookie@4
  00182	8b e5		 mov	 esp, ebp
  00184	5d		 pop	 ebp
  00185	c2 10 00	 ret	 16			; 00000010H
?InitAcctInput@CExAcctInput@@QAEHPAVCDialog@@IIPAVCBaseDesk2@@@Z ENDP ; CExAcctInput::InitAcctInput
_TEXT	ENDS
; Function compile flags: /Ogtp
; File D:\git\src\IBK\IBK_DRFN\ProjSrc\SrcDrfn\Chart\ExControl\ExAcctInput.cpp
; File D:\git\src\IBK\IBK_DRFN\ProjSrc\SrcDrfn\Chart\ExControl\Include\LoadHelper.h
; File D:\git\src\IBK\IBK_DRFN\ProjSrc\SrcDrfn\Chart\ExControl\ExAcctInput.cpp
; File C:\Program Files (x86)\Microsoft Visual Studio\2019\Community\VC\Tools\MSVC\14.29.30133\atlmfc\include\afxwin2.inl
; File D:\git\src\IBK\IBK_DRFN\ProjSrc\SrcDrfn\Chart\ExControl\ExAcctInput.cpp
; File D:\git\src\IBK\IBK_DRFN\ProjSrc\SrcDrfn\Chart\ExControl\Include\LoadHelper.h
; File D:\git\src\IBK\IBK_DRFN\ProjSrc\SrcDrfn\Chart\ExControl\ExAcctInput.cpp
; File D:\git\src\IBK\IBK_DRFN\ProjSrc\SrcDrfn\Chart\ExControl\Include\LoadHelper.h
; File D:\git\src\IBK\IBK_DRFN\ProjSrc\SrcDrfn\Chart\ExControl\ExAcctInput.cpp
; File D:\git\src\IBK\IBK_DRFN\ProjSrc\SrcDrfn\Chart\ExControl\Include\LoadHelper.h
; File D:\git\src\IBK\IBK_DRFN\ProjSrc\SrcDrfn\Chart\ExControl\ExAcctInput.cpp
; File D:\git\src\IBK\IBK_DRFN\ProjSrc\SrcDrfn\Chart\ExControl\Include\LoadHelper.h
; File D:\git\src\IBK\IBK_DRFN\ProjSrc\SrcDrfn\Chart\ExControl\ExAcctInput.cpp
;	COMDAT ?InitAcctInput@CExAcctInput@@QAEHPAVCDialog@@AAVCRect@@IIPAVCBaseDesk2@@@Z
_TEXT	SEGMENT
_pParent$ = 8						; size = 4
_rcControl$ = 12					; size = 4
_nID$ = 16						; size = 4
_nProperties$ = 20					; size = 4
_pBaseDesk$ = 24					; size = 4
?InitAcctInput@CExAcctInput@@QAEHPAVCDialog@@AAVCRect@@IIPAVCBaseDesk2@@@Z PROC ; CExAcctInput::InitAcctInput, COMDAT
; _this$ = ecx

; 385  : {

  00000	55		 push	 ebp
  00001	8b ec		 mov	 ebp, esp
  00003	53		 push	 ebx
  00004	56		 push	 esi
  00005	8b 75 08	 mov	 esi, DWORD PTR _pParent$[ebp]
  00008	57		 push	 edi
  00009	8b f9		 mov	 edi, ecx

; 386  : 	if(m_bCreated)

  0000b	83 7f 0c 00	 cmp	 DWORD PTR [edi+12], 0
  0000f	74 1a		 je	 SHORT $LN10@InitAcctIn

; 387  : 		m_pLoader->ExitAcctInput();

  00011	8b 47 04	 mov	 eax, DWORD PTR [edi+4]
; File D:\git\src\IBK\IBK_DRFN\ProjSrc\SrcDrfn\Chart\ExControl\Include\LoadHelper.h

; 1669 : 		if(!m_hLib)

  00014	83 78 04 00	 cmp	 DWORD PTR [eax+4], 0
  00018	74 11		 je	 SHORT $LN10@InitAcctIn

; 1670 : 			return;
; 1671 : 
; 1672 : 		pExitAcctInput(m_lpPointer);

  0001a	ff b0 0c 01 00
	00		 push	 DWORD PTR [eax+268]
  00020	8b 80 14 01 00
	00		 mov	 eax, DWORD PTR [eax+276]
  00026	ff d0		 call	 eax
  00028	83 c4 04	 add	 esp, 4
$LN10@InitAcctIn:
; File D:\git\src\IBK\IBK_DRFN\ProjSrc\SrcDrfn\Chart\ExControl\ExAcctInput.cpp

; 389  : 	if(pBaseDesk)

  0002b	8b 4d 18	 mov	 ecx, DWORD PTR _pBaseDesk$[ebp]
  0002e	89 77 08	 mov	 DWORD PTR [edi+8], esi
  00031	85 c9		 test	 ecx, ecx
  00033	74 09		 je	 SHORT $LN5@InitAcctIn

; 390  : 	{
; 391  : 		m_pParent = pParent;
; 392  : 		m_bCreated = TRUE;

  00035	c7 47 0c 01 00
	00 00		 mov	 DWORD PTR [edi+12], 1

; 393  : 		SetMyBaseDesk2(pBaseDesk);
; 394  : 	}

  0003c	eb 53		 jmp	 SHORT $LN33@InitAcctIn
$LN5@InitAcctIn:

; 395  : 	else
; 396  : 	{
; 397  : 		m_pParent = pParent;
; 398  : 
; 399  : 		while(!pParent->IsKindOf(RUNTIME_CLASS(CExOCXDLL)))

  0003e	e8 00 00 00 00	 call	 ?GetThisClass@CExOCXDLL@@SGPAUCRuntimeClass@@XZ ; CExOCXDLL::GetThisClass
  00043	50		 push	 eax
  00044	8b ce		 mov	 ecx, esi
  00046	e8 00 00 00 00	 call	 ?IsKindOf@CObject@@QBEHPBUCRuntimeClass@@@Z ; CObject::IsKindOf
  0004b	85 c0		 test	 eax, eax
  0004d	75 35		 jne	 SHORT $LN3@InitAcctIn
  0004f	8b 1d 00 00 00
	00		 mov	 ebx, DWORD PTR __imp__IsWindow@4
$LL2@InitAcctIn:
; File C:\Program Files (x86)\Microsoft Visual Studio\2019\Community\VC\Tools\MSVC\14.29.30133\atlmfc\include\afxwin2.inl

; 213  : 	{ ASSERT(::IsWindow(m_hWnd)); return CWnd::FromHandle(::GetParent(m_hWnd)); }

  00055	ff 76 20	 push	 DWORD PTR [esi+32]
  00058	ff 15 00 00 00
	00		 call	 DWORD PTR __imp__GetParent@4
  0005e	50		 push	 eax
  0005f	e8 00 00 00 00	 call	 ?FromHandle@CWnd@@SGPAV1@PAUHWND__@@@Z ; CWnd::FromHandle
; File D:\git\src\IBK\IBK_DRFN\ProjSrc\SrcDrfn\Chart\ExControl\ExAcctInput.cpp

; 401  : 			pParent = (CDialog*)pParent->GetParent();

  00064	8b f0		 mov	 esi, eax

; 402  : 			if(!pParent || !IsWindow(pParent->GetSafeHwnd()))

  00066	85 f6		 test	 esi, esi
  00068	74 56		 je	 SHORT $LN30@InitAcctIn
  0006a	ff 76 20	 push	 DWORD PTR [esi+32]
  0006d	ff d3		 call	 ebx
  0006f	85 c0		 test	 eax, eax
  00071	74 4d		 je	 SHORT $LN30@InitAcctIn

; 395  : 	else
; 396  : 	{
; 397  : 		m_pParent = pParent;
; 398  : 
; 399  : 		while(!pParent->IsKindOf(RUNTIME_CLASS(CExOCXDLL)))

  00073	e8 00 00 00 00	 call	 ?GetThisClass@CExOCXDLL@@SGPAUCRuntimeClass@@XZ ; CExOCXDLL::GetThisClass
  00078	50		 push	 eax
  00079	8b ce		 mov	 ecx, esi
  0007b	e8 00 00 00 00	 call	 ?IsKindOf@CObject@@QBEHPBUCRuntimeClass@@@Z ; CObject::IsKindOf
  00080	85 c0		 test	 eax, eax
  00082	74 d1		 je	 SHORT $LL2@InitAcctIn
$LN3@InitAcctIn:

; 403  : 				return FALSE;
; 404  : 		}
; 405  : 
; 406  : 		m_bCreated = TRUE;

  00084	c7 47 0c 01 00
	00 00		 mov	 DWORD PTR [edi+12], 1

; 237  : 	m_pBaseDesk2 = (CX2000BaseDesk*)pBaseDesk;

  0008b	8b 8e f8 01 00
	00		 mov	 ecx, DWORD PTR [esi+504]
$LN33@InitAcctIn:

; 410  : 	LPVOID lpControl = m_pLoader->CreateAcctInput(m_pParent, &rcControl, nID, (long)&m_x2000BaseDesk, nProperties);

  00091	89 4f 24	 mov	 DWORD PTR [edi+36], ecx
  00094	8b 41 08	 mov	 eax, DWORD PTR [ecx+8]
  00097	89 47 18	 mov	 DWORD PTR [edi+24], eax
  0009a	8b 41 0c	 mov	 eax, DWORD PTR [ecx+12]
  0009d	89 47 1c	 mov	 DWORD PTR [edi+28], eax
  000a0	8b 41 10	 mov	 eax, DWORD PTR [ecx+16]
  000a3	89 47 20	 mov	 DWORD PTR [edi+32], eax
  000a6	8d 41 04	 lea	 eax, DWORD PTR [ecx+4]
  000a9	50		 push	 eax
  000aa	8d 4f 14	 lea	 ecx, DWORD PTR [edi+20]
  000ad	ff 15 00 00 00
	00		 call	 DWORD PTR __imp_??4?$CStringT@DV?$StrTraitMFC_DLL@DV?$ChTraitsCRT@D@ATL@@@@@ATL@@QAEAAV01@ABV01@@Z
  000b3	8b 77 04	 mov	 esi, DWORD PTR [edi+4]
; File D:\git\src\IBK\IBK_DRFN\ProjSrc\SrcDrfn\Chart\ExControl\Include\LoadHelper.h

; 1704 : 		if(!m_hLib)

  000b6	83 7e 04 00	 cmp	 DWORD PTR [esi+4], 0
  000ba	75 0d		 jne	 SHORT $LN24@InitAcctIn

; 1705 : 			return NULL;

  000bc	33 db		 xor	 ebx, ebx
  000be	eb 35		 jmp	 SHORT $LN23@InitAcctIn
$LN30@InitAcctIn:
  000c0	5f		 pop	 edi
; File D:\git\src\IBK\IBK_DRFN\ProjSrc\SrcDrfn\Chart\ExControl\ExAcctInput.cpp

; 414  : }

  000c1	5e		 pop	 esi
  000c2	33 c0		 xor	 eax, eax
  000c4	5b		 pop	 ebx
  000c5	5d		 pop	 ebp
  000c6	c2 14 00	 ret	 20			; 00000014H
$LN24@InitAcctIn:
; File D:\git\src\IBK\IBK_DRFN\ProjSrc\SrcDrfn\Chart\ExControl\Include\LoadHelper.h

; 1707 : 		m_lpPointer = pCreateAcctInputInt(m_lpPointer, pWnd, pRect, nID, lBaseDesk, nProperties);

  000c9	ff 75 14	 push	 DWORD PTR _nProperties$[ebp]
; File D:\git\src\IBK\IBK_DRFN\ProjSrc\SrcDrfn\Chart\ExControl\ExAcctInput.cpp

; 410  : 	LPVOID lpControl = m_pLoader->CreateAcctInput(m_pParent, &rcControl, nID, (long)&m_x2000BaseDesk, nProperties);

  000cc	8d 47 10	 lea	 eax, DWORD PTR [edi+16]
; File D:\git\src\IBK\IBK_DRFN\ProjSrc\SrcDrfn\Chart\ExControl\Include\LoadHelper.h

; 1707 : 		m_lpPointer = pCreateAcctInputInt(m_lpPointer, pWnd, pRect, nID, lBaseDesk, nProperties);

  000cf	50		 push	 eax
  000d0	ff 75 10	 push	 DWORD PTR _nID$[ebp]
  000d3	8b 86 24 01 00
	00		 mov	 eax, DWORD PTR [esi+292]
  000d9	ff 75 0c	 push	 DWORD PTR _rcControl$[ebp]
  000dc	ff 77 08	 push	 DWORD PTR [edi+8]
  000df	ff b6 0c 01 00
	00		 push	 DWORD PTR [esi+268]
  000e5	ff d0		 call	 eax
  000e7	8b d8		 mov	 ebx, eax
  000e9	83 c4 18	 add	 esp, 24			; 00000018H
  000ec	89 9e 0c 01 00
	00		 mov	 DWORD PTR [esi+268], ebx

; 1708 : 		return m_lpPointer;

  000f2	8b 77 04	 mov	 esi, DWORD PTR [edi+4]
$LN23@InitAcctIn:

; 1729 : 		if(!m_hLib)

  000f5	83 7e 04 00	 cmp	 DWORD PTR [esi+4], 0
  000f9	75 15		 jne	 SHORT $LN27@InitAcctIn

; 1730 : 			return 0;

  000fb	33 c0		 xor	 eax, eax
; File D:\git\src\IBK\IBK_DRFN\ProjSrc\SrcDrfn\Chart\ExControl\ExAcctInput.cpp

; 411  : 	::SetPermanentHandle((HANDLE)m_pLoader->GetHWnd(), (CObject*)lpControl);

  000fd	53		 push	 ebx
  000fe	50		 push	 eax
  000ff	e8 00 00 00 00	 call	 ?SetPermanentHandle@@YAXPAXPAVCObject@@@Z ; SetPermanentHandle
  00104	83 c4 08	 add	 esp, 8

; 412  : 	
; 413  : 	return (BOOL)lpControl;

  00107	8b c3		 mov	 eax, ebx
  00109	5f		 pop	 edi

; 414  : }

  0010a	5e		 pop	 esi
  0010b	5b		 pop	 ebx
  0010c	5d		 pop	 ebp
  0010d	c2 14 00	 ret	 20			; 00000014H
$LN27@InitAcctIn:
; File D:\git\src\IBK\IBK_DRFN\ProjSrc\SrcDrfn\Chart\ExControl\Include\LoadHelper.h

; 1732 : 		return pGetHWnd(m_lpPointer);

  00110	ff b6 0c 01 00
	00		 push	 DWORD PTR [esi+268]
  00116	8b 8e 30 01 00
	00		 mov	 ecx, DWORD PTR [esi+304]
  0011c	ff d1		 call	 ecx
  0011e	83 c4 04	 add	 esp, 4
; File D:\git\src\IBK\IBK_DRFN\ProjSrc\SrcDrfn\Chart\ExControl\ExAcctInput.cpp

; 411  : 	::SetPermanentHandle((HANDLE)m_pLoader->GetHWnd(), (CObject*)lpControl);

  00121	53		 push	 ebx
  00122	50		 push	 eax
  00123	e8 00 00 00 00	 call	 ?SetPermanentHandle@@YAXPAXPAVCObject@@@Z ; SetPermanentHandle
  00128	83 c4 08	 add	 esp, 8

; 412  : 	
; 413  : 	return (BOOL)lpControl;

  0012b	8b c3		 mov	 eax, ebx
  0012d	5f		 pop	 edi

; 414  : }

  0012e	5e		 pop	 esi
  0012f	5b		 pop	 ebx
  00130	5d		 pop	 ebp
  00131	c2 14 00	 ret	 20			; 00000014H
?InitAcctInput@CExAcctInput@@QAEHPAVCDialog@@AAVCRect@@IIPAVCBaseDesk2@@@Z ENDP ; CExAcctInput::InitAcctInput
_TEXT	ENDS
; Function compile flags: /Ogtp
; File D:\git\src\IBK\IBK_DRFN\ProjSrc\SrcDrfn\Chart\ExControl\ExAcctInput.cpp
;	COMDAT ?SetMyBaseDesk2@CExAcctInput@@IAEXPAVCBaseDesk2@@@Z
_TEXT	SEGMENT
_pBaseDesk$ = 8						; size = 4
?SetMyBaseDesk2@CExAcctInput@@IAEXPAVCBaseDesk2@@@Z PROC ; CExAcctInput::SetMyBaseDesk2, COMDAT
; _this$ = ecx

; 236  : {

  00000	55		 push	 ebp
  00001	8b ec		 mov	 ebp, esp

; 237  : 	m_pBaseDesk2 = (CX2000BaseDesk*)pBaseDesk;

  00003	8b 55 08	 mov	 edx, DWORD PTR _pBaseDesk$[ebp]
  00006	89 51 24	 mov	 DWORD PTR [ecx+36], edx

; 238  : 	m_x2000BaseDesk.m_hDeskHwnd = m_pBaseDesk2->m_hDeskHwnd;

  00009	8b 42 08	 mov	 eax, DWORD PTR [edx+8]
  0000c	89 41 18	 mov	 DWORD PTR [ecx+24], eax

; 239  : 	m_x2000BaseDesk.m_pDeskUnk = m_pBaseDesk2->m_pDeskUnk;

  0000f	8b 42 0c	 mov	 eax, DWORD PTR [edx+12]
  00012	89 41 1c	 mov	 DWORD PTR [ecx+28], eax

; 240  : 	m_x2000BaseDesk.m_pDisp = m_pBaseDesk2->m_pDisp;

  00015	8b 42 10	 mov	 eax, DWORD PTR [edx+16]
  00018	89 41 20	 mov	 DWORD PTR [ecx+32], eax

; 241  : 	m_x2000BaseDesk.m_szPath = m_pBaseDesk2->m_szPath;

  0001b	8d 42 04	 lea	 eax, DWORD PTR [edx+4]
  0001e	89 45 08	 mov	 DWORD PTR _pBaseDesk$[ebp], eax
  00021	83 c1 14	 add	 ecx, 20			; 00000014H

; 242  : }

  00024	5d		 pop	 ebp

; 241  : 	m_x2000BaseDesk.m_szPath = m_pBaseDesk2->m_szPath;

  00025	ff 25 00 00 00
	00		 jmp	 DWORD PTR __imp_??4?$CStringT@DV?$StrTraitMFC_DLL@DV?$ChTraitsCRT@D@ATL@@@@@ATL@@QAEAAV01@ABV01@@Z
?SetMyBaseDesk2@CExAcctInput@@IAEXPAVCBaseDesk2@@@Z ENDP ; CExAcctInput::SetMyBaseDesk2
_TEXT	ENDS
; Function compile flags: /Ogtp
; File D:\git\src\IBK\IBK_DRFN\ProjSrc\SrcDrfn\Chart\ExControl\ExAcctInput.cpp
; File D:\git\src\IBK\IBK_DRFN\ProjSrc\SrcDrfn\Inc\ExAcctInput.h
; File D:\git\src\IBK\IBK_DRFN\ProjSrc\SrcDrfn\Chart\ExControl\ExAcctInput.cpp
;	COMDAT ??0CExAcctInput@@QAE@XZ
_TEXT	SEGMENT
$T2 = -20						; size = 4
_this$ = -16						; size = 4
__$EHRec$ = -12						; size = 12
??0CExAcctInput@@QAE@XZ PROC				; CExAcctInput::CExAcctInput, COMDAT
; _this$ = ecx

; 209  : {

  00000	55		 push	 ebp
  00001	8b ec		 mov	 ebp, esp
  00003	6a ff		 push	 -1
  00005	68 00 00 00 00	 push	 __ehhandler$??0CExAcctInput@@QAE@XZ
  0000a	64 a1 00 00 00
	00		 mov	 eax, DWORD PTR fs:0
  00010	50		 push	 eax
  00011	83 ec 08	 sub	 esp, 8
  00014	56		 push	 esi
  00015	a1 00 00 00 00	 mov	 eax, DWORD PTR ___security_cookie
  0001a	33 c5		 xor	 eax, ebp
  0001c	50		 push	 eax
  0001d	8d 45 f4	 lea	 eax, DWORD PTR __$EHRec$[ebp]
  00020	64 a3 00 00 00
	00		 mov	 DWORD PTR fs:0, eax
  00026	8b f1		 mov	 esi, ecx
  00028	89 75 f0	 mov	 DWORD PTR _this$[ebp], esi
  0002b	c7 06 00 00 00
	00		 mov	 DWORD PTR [esi], OFFSET ??_7CExAcctInput@@6B@
  00031	8d 4e 14	 lea	 ecx, DWORD PTR [esi+20]
  00034	c7 46 10 00 00
	00 00		 mov	 DWORD PTR [esi+16], OFFSET ??_7CBaseDesk@@6B@
  0003b	ff 15 00 00 00
	00		 call	 DWORD PTR __imp_??0?$CStringT@DV?$StrTraitMFC_DLL@DV?$ChTraitsCRT@D@ATL@@@@@ATL@@QAE@XZ
; File D:\git\src\IBK\IBK_DRFN\ProjSrc\SrcDrfn\Inc\ExAcctInput.h

; 199  : 		CX2000BaseDesk() : m_pDisp(NULL) {}

  00041	c7 46 10 00 00
	00 00		 mov	 DWORD PTR [esi+16], OFFSET ??_7CX2000BaseDesk@CExAcctInput@@6B@
  00048	c7 46 20 00 00
	00 00		 mov	 DWORD PTR [esi+32], 0
; File D:\git\src\IBK\IBK_DRFN\ProjSrc\SrcDrfn\Chart\ExControl\ExAcctInput.cpp

; 210  : 	m_pLoader = new CLoaderAcctInput(this);

  0004f	68 64 01 00 00	 push	 356			; 00000164H
  00054	c7 45 fc 00 00
	00 00		 mov	 DWORD PTR __$EHRec$[ebp+8], 0
  0005b	e8 00 00 00 00	 call	 ??2@YAPAXI@Z		; operator new
  00060	83 c4 04	 add	 esp, 4
  00063	89 45 ec	 mov	 DWORD PTR $T2[ebp], eax
  00066	c6 45 fc 01	 mov	 BYTE PTR __$EHRec$[ebp+8], 1
  0006a	85 c0		 test	 eax, eax
  0006c	74 0c		 je	 SHORT $LN3@CExAcctInp
  0006e	6a 00		 push	 0
  00070	56		 push	 esi
  00071	8b c8		 mov	 ecx, eax
  00073	e8 00 00 00 00	 call	 ??0CLoaderAcctInput@@QAE@PAXPBD@Z ; CLoaderAcctInput::CLoaderAcctInput
  00078	eb 02		 jmp	 SHORT $LN4@CExAcctInp
$LN3@CExAcctInp:
  0007a	33 c0		 xor	 eax, eax
$LN4@CExAcctInp:
  0007c	89 46 04	 mov	 DWORD PTR [esi+4], eax

; 211  : 	m_bCreated = FALSE;
; 212  : 	m_pParent = NULL;
; 213  : }

  0007f	8b c6		 mov	 eax, esi
  00081	c7 46 0c 00 00
	00 00		 mov	 DWORD PTR [esi+12], 0
  00088	c7 46 08 00 00
	00 00		 mov	 DWORD PTR [esi+8], 0
  0008f	8b 4d f4	 mov	 ecx, DWORD PTR __$EHRec$[ebp]
  00092	64 89 0d 00 00
	00 00		 mov	 DWORD PTR fs:0, ecx
  00099	59		 pop	 ecx
  0009a	5e		 pop	 esi
  0009b	8b e5		 mov	 esp, ebp
  0009d	5d		 pop	 ebp
  0009e	c3		 ret	 0
_TEXT	ENDS
;	COMDAT text$x
text$x	SEGMENT
__unwindfunclet$??0CExAcctInput@@QAE@XZ$0:
  00000	8b 4d f0	 mov	 ecx, DWORD PTR _this$[ebp]
  00003	83 c1 10	 add	 ecx, 16			; 00000010H
  00006	e9 00 00 00 00	 jmp	 ??1CX2000BaseDesk@CExAcctInput@@QAE@XZ ; CExAcctInput::CX2000BaseDesk::~CX2000BaseDesk
__unwindfunclet$??0CExAcctInput@@QAE@XZ$1:
  0000b	68 64 01 00 00	 push	 356			; 00000164H
  00010	8b 45 ec	 mov	 eax, DWORD PTR $T2[ebp]
  00013	50		 push	 eax
  00014	e8 00 00 00 00	 call	 ??3@YAXPAXI@Z		; operator delete
  00019	83 c4 08	 add	 esp, 8
  0001c	c3		 ret	 0
  0001d	cc		 int	 3
  0001e	cc		 int	 3
  0001f	cc		 int	 3
  00020	cc		 int	 3
  00021	cc		 int	 3
__ehhandler$??0CExAcctInput@@QAE@XZ:
  00022	90		 npad	 1
  00023	90		 npad	 1
  00024	8b 54 24 08	 mov	 edx, DWORD PTR [esp+8]
  00028	8d 42 0c	 lea	 eax, DWORD PTR [edx+12]
  0002b	8b 4a f0	 mov	 ecx, DWORD PTR [edx-16]
  0002e	33 c8		 xor	 ecx, eax
  00030	e8 00 00 00 00	 call	 @__security_check_cookie@4
  00035	b8 00 00 00 00	 mov	 eax, OFFSET __ehfuncinfo$??0CExAcctInput@@QAE@XZ
  0003a	e9 00 00 00 00	 jmp	 ___CxxFrameHandler3
text$x	ENDS
??0CExAcctInput@@QAE@XZ ENDP				; CExAcctInput::CExAcctInput
; Function compile flags: /Ogtp
; File D:\git\src\IBK\IBK_DRFN\ProjSrc\SrcDrfn\inc\BaseDesk.h
;	COMDAT ?SetMapMessage@CBaseDesk2@@UAEXJPBD@Z
_TEXT	SEGMENT
_lType$ = 8						; size = 4
_lpData$ = 12						; size = 4
?SetMapMessage@CBaseDesk2@@UAEXJPBD@Z PROC		; CBaseDesk2::SetMapMessage, COMDAT
; _this$ = ecx

; 98   : 	virtual void SetMapMessage(long lType, LPCSTR lpData) {return;};

  00000	c2 08 00	 ret	 8
?SetMapMessage@CBaseDesk2@@UAEXJPBD@Z ENDP		; CBaseDesk2::SetMapMessage
_TEXT	ENDS
; Function compile flags: /Ogtp
; File D:\git\src\IBK\IBK_DRFN\ProjSrc\SrcDrfn\inc\BaseDesk.h
;	COMDAT ?FP_vResizeCtrl@CBaseDesk2@@UAEXXZ
_TEXT	SEGMENT
?FP_vResizeCtrl@CBaseDesk2@@UAEXXZ PROC			; CBaseDesk2::FP_vResizeCtrl, COMDAT
; _this$ = ecx

; 95   : 	virtual void FP_vResizeCtrl() {return;}

  00000	c2 00 00	 ret	 0
?FP_vResizeCtrl@CBaseDesk2@@UAEXXZ ENDP			; CBaseDesk2::FP_vResizeCtrl
_TEXT	ENDS
; Function compile flags: /Ogtp
; File D:\git\src\IBK\IBK_DRFN\ProjSrc\SrcDrfn\inc\BaseDesk.h
;	COMDAT ?FP_nGetCtrlPos@CBaseDesk2@@UAEJXZ
_TEXT	SEGMENT
?FP_nGetCtrlPos@CBaseDesk2@@UAEJXZ PROC			; CBaseDesk2::FP_nGetCtrlPos, COMDAT
; _this$ = ecx

; 92   : 	virtual long FP_nGetCtrlPos() {return 0;}

  00000	33 c0		 xor	 eax, eax
  00002	c3		 ret	 0
?FP_nGetCtrlPos@CBaseDesk2@@UAEJXZ ENDP			; CBaseDesk2::FP_nGetCtrlPos
_TEXT	ENDS
; Function compile flags: /Ogtp
; File D:\git\src\IBK\IBK_DRFN\ProjSrc\SrcDrfn\inc\BaseDesk.h
;	COMDAT ?GetMainInfo@CBaseDesk2@@UAEJPBD@Z
_TEXT	SEGMENT
_szKey$ = 8						; size = 4
?GetMainInfo@CBaseDesk2@@UAEJPBD@Z PROC			; CBaseDesk2::GetMainInfo, COMDAT
; _this$ = ecx

; 87   : 	virtual long GetMainInfo(LPCSTR szKey) { return NULL; }

  00000	33 c0		 xor	 eax, eax
  00002	c2 04 00	 ret	 4
?GetMainInfo@CBaseDesk2@@UAEJPBD@Z ENDP			; CBaseDesk2::GetMainInfo
_TEXT	ENDS
; Function compile flags: /Ogtp
; File D:\git\src\IBK\IBK_DRFN\ProjSrc\SrcDrfn\inc\BaseDesk.h
;	COMDAT ?GetFrameInfo@CBaseDesk2@@UAEJPBD@Z
_TEXT	SEGMENT
_szKey$ = 8						; size = 4
?GetFrameInfo@CBaseDesk2@@UAEJPBD@Z PROC		; CBaseDesk2::GetFrameInfo, COMDAT
; _this$ = ecx

; 82   : 	virtual long GetFrameInfo(LPCSTR szKey) { return NULL; }

  00000	33 c0		 xor	 eax, eax
  00002	c2 04 00	 ret	 4
?GetFrameInfo@CBaseDesk2@@UAEJPBD@Z ENDP		; CBaseDesk2::GetFrameInfo
_TEXT	ENDS
; Function compile flags: /Ogtp
; File D:\git\src\IBK\IBK_DRFN\ProjSrc\SrcDrfn\inc\BaseDesk.h
;	COMDAT ?GetUserInfo@CBaseDesk2@@UAEJPBD@Z
_TEXT	SEGMENT
_szKey$ = 8						; size = 4
?GetUserInfo@CBaseDesk2@@UAEJPBD@Z PROC			; CBaseDesk2::GetUserInfo, COMDAT
; _this$ = ecx

; 77   : 	virtual long GetUserInfo(LPCSTR szKey) { return NULL; }

  00000	33 c0		 xor	 eax, eax
  00002	c2 04 00	 ret	 4
?GetUserInfo@CBaseDesk2@@UAEJPBD@Z ENDP			; CBaseDesk2::GetUserInfo
_TEXT	ENDS
; Function compile flags: /Ogtp
; File D:\git\src\IBK\IBK_DRFN\ProjSrc\SrcDrfn\inc\BaseDesk.h
;	COMDAT ?GetDeskInfo@CBaseDesk2@@UAEJPBD@Z
_TEXT	SEGMENT
_szKey$ = 8						; size = 4
?GetDeskInfo@CBaseDesk2@@UAEJPBD@Z PROC			; CBaseDesk2::GetDeskInfo, COMDAT
; _this$ = ecx

; 72   : 	virtual long GetDeskInfo(LPCSTR szKey) { return NULL; }

  00000	33 c0		 xor	 eax, eax
  00002	c2 04 00	 ret	 4
?GetDeskInfo@CBaseDesk2@@UAEJPBD@Z ENDP			; CBaseDesk2::GetDeskInfo
_TEXT	ENDS
; Function compile flags: /Ogtp
; File D:\git\src\IBK\IBK_DRFN\ProjSrc\SrcDrfn\inc\BaseDesk.h
;	COMDAT ?GetUserColor@CBaseDesk2@@UAEKFPBDF@Z
_TEXT	SEGMENT
_nIndex$ = 8						; size = 2
_szName$ = 12						; size = 4
_nFlag$ = 16						; size = 2
?GetUserColor@CBaseDesk2@@UAEKFPBDF@Z PROC		; CBaseDesk2::GetUserColor, COMDAT
; _this$ = ecx

; 68   : 	virtual OLE_COLOR GetUserColor(short nIndex, LPCTSTR szName, short nFlag) { return RGB(0,0,0); }

  00000	33 c0		 xor	 eax, eax
  00002	c2 0c 00	 ret	 12			; 0000000cH
?GetUserColor@CBaseDesk2@@UAEKFPBDF@Z ENDP		; CBaseDesk2::GetUserColor
_TEXT	ENDS
; Function compile flags: /Ogtp
; File D:\git\src\IBK\IBK_DRFN\ProjSrc\SrcDrfn\inc\BaseDesk.h
;	COMDAT ?CallCommand@CBaseDesk@@UAEXPBD@Z
_TEXT	SEGMENT
__szCmd$ = 8						; size = 4
?CallCommand@CBaseDesk@@UAEXPBD@Z PROC			; CBaseDesk::CallCommand, COMDAT
; _this$ = ecx

; 51   : 	virtual void CallCommand(LPCSTR _szCmd) {}

  00000	c2 04 00	 ret	 4
?CallCommand@CBaseDesk@@UAEXPBD@Z ENDP			; CBaseDesk::CallCommand
_TEXT	ENDS
; Function compile flags: /Ogtp
; File D:\git\src\IBK\IBK_DRFN\ProjSrc\SrcDrfn\inc\BaseDesk.h
;	COMDAT ?GetLSharedData@CBaseDesk@@UAEPAXXZ
_TEXT	SEGMENT
?GetLSharedData@CBaseDesk@@UAEPAXXZ PROC		; CBaseDesk::GetLSharedData, COMDAT
; _this$ = ecx

; 48   : 	virtual LPVOID GetLSharedData() { return NULL; }

  00000	33 c0		 xor	 eax, eax
  00002	c3		 ret	 0
?GetLSharedData@CBaseDesk@@UAEPAXXZ ENDP		; CBaseDesk::GetLSharedData
_TEXT	ENDS
; Function compile flags: /Ogtp
; File D:\git\src\IBK\IBK_DRFN\ProjSrc\SrcDrfn\inc\BaseDesk.h
;	COMDAT ?SendKey@CBaseDesk@@UAEHPAUHWND__@@IHH@Z
_TEXT	SEGMENT
__hWnd$ = 8						; size = 4
_nChar$ = 12						; size = 4
__bIsShift$ = 16					; size = 4
__bIsCtrl$ = 20						; size = 4
?SendKey@CBaseDesk@@UAEHPAUHWND__@@IHH@Z PROC		; CBaseDesk::SendKey, COMDAT
; _this$ = ecx

; 45   : 	virtual BOOL SendKey(HWND _hWnd, UINT nChar, BOOL _bIsShift, BOOL _bIsCtrl) { return FALSE; }

  00000	33 c0		 xor	 eax, eax
  00002	c2 10 00	 ret	 16			; 00000010H
?SendKey@CBaseDesk@@UAEHPAUHWND__@@IHH@Z ENDP		; CBaseDesk::SendKey
_TEXT	ENDS
; Function compile flags: /Ogtp
; File D:\git\src\IBK\IBK_DRFN\ProjSrc\SrcDrfn\inc\BaseDesk.h
;	COMDAT ?InvokeEvent2@CBaseDesk@@UAEHPBD00@Z
_TEXT	SEGMENT
__szCtrlName$ = 8					; size = 4
__szEventName$ = 12					; size = 4
__szParam$ = 16						; size = 4
?InvokeEvent2@CBaseDesk@@UAEHPBD00@Z PROC		; CBaseDesk::InvokeEvent2, COMDAT
; _this$ = ecx

; 42   : 	virtual BOOL InvokeEvent2(LPCSTR _szCtrlName, LPCSTR _szEventName, LPCSTR _szParam) { return TRUE; }

  00000	b8 01 00 00 00	 mov	 eax, 1
  00005	c2 0c 00	 ret	 12			; 0000000cH
?InvokeEvent2@CBaseDesk@@UAEHPBD00@Z ENDP		; CBaseDesk::InvokeEvent2
_TEXT	ENDS
; Function compile flags: /Ogtp
; File D:\git\src\IBK\IBK_DRFN\ProjSrc\SrcDrfn\inc\BaseDesk.h
;	COMDAT ?InvokeEvent@CBaseDesk@@UAEHPAUHWND__@@PBD1@Z
_TEXT	SEGMENT
__hWnd$ = 8						; size = 4
__szEventName$ = 12					; size = 4
__szParam$ = 16						; size = 4
?InvokeEvent@CBaseDesk@@UAEHPAUHWND__@@PBD1@Z PROC	; CBaseDesk::InvokeEvent, COMDAT
; _this$ = ecx

; 35   : 	virtual BOOL InvokeEvent(HWND _hWnd, LPCSTR _szEventName, LPCSTR _szParam) { return TRUE; }

  00000	b8 01 00 00 00	 mov	 eax, 1
  00005	c2 0c 00	 ret	 12			; 0000000cH
?InvokeEvent@CBaseDesk@@UAEHPAUHWND__@@PBD1@Z ENDP	; CBaseDesk::InvokeEvent
_TEXT	ENDS
; Function compile flags: /Ogtp
; File D:\git\src\IBK\IBK_DRFN\ProjSrc\SrcDrfn\inc\BaseDesk.h
;	COMDAT ?GetSharedInterface@CBaseDesk@@UAEPAXXZ
_TEXT	SEGMENT
?GetSharedInterface@CBaseDesk@@UAEPAXXZ PROC		; CBaseDesk::GetSharedInterface, COMDAT
; _this$ = ecx

; 31   : 	virtual LPVOID GetSharedInterface() { return NULL; }

  00000	33 c0		 xor	 eax, eax
  00002	c3		 ret	 0
?GetSharedInterface@CBaseDesk@@UAEPAXXZ ENDP		; CBaseDesk::GetSharedInterface
_TEXT	ENDS
; Function compile flags: /Ogtp
; File D:\git\src\IBK\IBK_DRFN\ProjSrc\SrcDrfn\inc\BaseDesk.h
;	COMDAT ?GetCtrlHwnd@CBaseDesk@@UAEPAUHWND__@@PBD@Z
_TEXT	SEGMENT
_szName$ = 8						; size = 4
?GetCtrlHwnd@CBaseDesk@@UAEPAUHWND__@@PBD@Z PROC	; CBaseDesk::GetCtrlHwnd, COMDAT
; _this$ = ecx

; 28   : 	virtual HWND GetCtrlHwnd(LPCTSTR szName) { return NULL; }

  00000	33 c0		 xor	 eax, eax
  00002	c2 04 00	 ret	 4
?GetCtrlHwnd@CBaseDesk@@UAEPAUHWND__@@PBD@Z ENDP	; CBaseDesk::GetCtrlHwnd
_TEXT	ENDS
; Function compile flags: /Ogtp
; File D:\git\src\IBK\IBK_DRFN\ProjSrc\SrcDrfn\inc\BaseDesk.h
;	COMDAT ?GetCtrlUnknown@CBaseDesk@@UAEPAUIUnknown@@PBD@Z
_TEXT	SEGMENT
_szName$ = 8						; size = 4
?GetCtrlUnknown@CBaseDesk@@UAEPAUIUnknown@@PBD@Z PROC	; CBaseDesk::GetCtrlUnknown, COMDAT
; _this$ = ecx

; 25   : 	virtual LPUNKNOWN GetCtrlUnknown(LPCTSTR szName) { return NULL; }

  00000	33 c0		 xor	 eax, eax
  00002	c2 04 00	 ret	 4
?GetCtrlUnknown@CBaseDesk@@UAEPAUIUnknown@@PBD@Z ENDP	; CBaseDesk::GetCtrlUnknown
_TEXT	ENDS
; Function compile flags: /Ogtp
; File D:\git\src\IBK\IBK_DRFN\ProjSrc\SrcDrfn\inc\BaseDesk.h
;	COMDAT ?GetUnknown@CBaseDesk@@UAEPAUIDispatch@@XZ
_TEXT	SEGMENT
?GetUnknown@CBaseDesk@@UAEPAUIDispatch@@XZ PROC		; CBaseDesk::GetUnknown, COMDAT
; _this$ = ecx

; 22   : 	virtual LPDISPATCH GetUnknown() { ASSERT(FALSE); return NULL; }

  00000	33 c0		 xor	 eax, eax
  00002	c3		 ret	 0
?GetUnknown@CBaseDesk@@UAEPAUIDispatch@@XZ ENDP		; CBaseDesk::GetUnknown
_TEXT	ENDS
; Function compile flags: /Ogtp
; File D:\git\src\IBK\IBK_DRFN\ProjSrc\SrcDrfn\inc\BaseDesk.h
;	COMDAT ?GetDeskHwnd@CBaseDesk@@UAEPAUHWND__@@XZ
_TEXT	SEGMENT
?GetDeskHwnd@CBaseDesk@@UAEPAUHWND__@@XZ PROC		; CBaseDesk::GetDeskHwnd, COMDAT
; _this$ = ecx

; 19   : 	virtual HWND  GetDeskHwnd() { ASSERT(FALSE); return m_hDeskHwnd; }

  00000	8b 41 08	 mov	 eax, DWORD PTR [ecx+8]
  00003	c3		 ret	 0
?GetDeskHwnd@CBaseDesk@@UAEPAUHWND__@@XZ ENDP		; CBaseDesk::GetDeskHwnd
_TEXT	ENDS
; Function compile flags: /Ogtp
; File D:\git\src\IBK\IBK_DRFN\ProjSrc\SrcDrfn\inc\BaseDesk.h
;	COMDAT ?GetBasePath@CBaseDesk@@UAEPBDXZ
_TEXT	SEGMENT
?GetBasePath@CBaseDesk@@UAEPBDXZ PROC			; CBaseDesk::GetBasePath, COMDAT
; _this$ = ecx

; 16   : 	virtual LPCSTR GetBasePath() { ASSERT(FALSE); return NULL; }

  00000	33 c0		 xor	 eax, eax
  00002	c3		 ret	 0
?GetBasePath@CBaseDesk@@UAEPBDXZ ENDP			; CBaseDesk::GetBasePath
_TEXT	ENDS
; Function compile flags: /Ogtp
; File D:\git\src\IBK\IBK_DRFN\ProjSrc\SrcDrfn\inc\ExCommonHeader.h
;	COMDAT ??__ERMSG_EVENT_ACCTINPUT@@YAXXZ
text$di	SEGMENT
??__ERMSG_EVENT_ACCTINPUT@@YAXXZ PROC			; `dynamic initializer for 'RMSG_EVENT_ACCTINPUT'', COMDAT

; 99   : const UINT RMSG_EVENT_ACCTINPUT = ::RegisterWindowMessage(_T("RMSG_EVENT_ACCTINPUT"));

  00000	68 00 00 00 00	 push	 OFFSET ??_C@_0BF@LEGBOMJF@RMSG_EVENT_ACCTINPUT@
  00005	ff 15 00 00 00
	00		 call	 DWORD PTR __imp__RegisterWindowMessageA@4
  0000b	a3 00 00 00 00	 mov	 DWORD PTR ?RMSG_EVENT_ACCTINPUT@@3IB, eax
  00010	c3		 ret	 0
??__ERMSG_EVENT_ACCTINPUT@@YAXXZ ENDP			; `dynamic initializer for 'RMSG_EVENT_ACCTINPUT''
text$di	ENDS
; Function compile flags: /Ogtp
; File C:\Program Files (x86)\Windows Kits\10\Include\10.0.22000.0\ucrt\stdio.h
;	COMDAT _sprintf
_TEXT	SEGMENT
__Buffer$ = 8						; size = 4
__Format$ = 12						; size = 4
_sprintf PROC						; COMDAT

; 1771 :     {

  00000	55		 push	 ebp
  00001	8b ec		 mov	 ebp, esp

; 1392 :         int const _Result = __stdio_common_vsprintf(

  00003	8d 45 10	 lea	 eax, DWORD PTR __Format$[ebp+4]
  00006	50		 push	 eax
  00007	6a 00		 push	 0
  00009	ff 75 0c	 push	 DWORD PTR __Format$[ebp]
  0000c	6a ff		 push	 -1
  0000e	ff 75 08	 push	 DWORD PTR __Buffer$[ebp]
  00011	e8 00 00 00 00	 call	 ___local_stdio_printf_options
  00016	8b 08		 mov	 ecx, DWORD PTR [eax]
  00018	ff 70 04	 push	 DWORD PTR [eax+4]
  0001b	83 c9 01	 or	 ecx, 1
  0001e	51		 push	 ecx
  0001f	ff 15 00 00 00
	00		 call	 DWORD PTR __imp____stdio_common_vsprintf

; 1393 :             _CRT_INTERNAL_LOCAL_PRINTF_OPTIONS | _CRT_INTERNAL_PRINTF_LEGACY_VSPRINTF_NULL_TERMINATION,
; 1394 :             _Buffer, _BufferCount, _Format, _Locale, _ArgList);
; 1395 : 
; 1396 :         return _Result < 0 ? -1 : _Result;

  00025	83 c9 ff	 or	 ecx, -1
  00028	83 c4 1c	 add	 esp, 28			; 0000001cH
  0002b	85 c0		 test	 eax, eax
  0002d	0f 48 c1	 cmovs	 eax, ecx

; 1772 :         int _Result;
; 1773 :         va_list _ArgList;
; 1774 :         __crt_va_start(_ArgList, _Format);
; 1775 : 
; 1776 :         _Result = _vsprintf_l(_Buffer, _Format, NULL, _ArgList);
; 1777 : 
; 1778 :         __crt_va_end(_ArgList);
; 1779 :         return _Result;
; 1780 :     }

  00030	5d		 pop	 ebp
  00031	c3		 ret	 0
_sprintf ENDP
_TEXT	ENDS
; Function compile flags: /Ogtp
; File C:\Program Files (x86)\Windows Kits\10\Include\10.0.22000.0\ucrt\corecrt_stdio_config.h
;	COMDAT ___local_stdio_printf_options
_TEXT	SEGMENT
___local_stdio_printf_options PROC			; COMDAT

; 91   :         static unsigned __int64 _OptionsStorage;
; 92   :         return &_OptionsStorage;

  00000	b8 00 00 00 00	 mov	 eax, OFFSET ?_OptionsStorage@?1??__local_stdio_printf_options@@9@4_KA ; `__local_stdio_printf_options'::`2'::_OptionsStorage

; 93   :     }

  00005	c3		 ret	 0
___local_stdio_printf_options ENDP
_TEXT	ENDS
; Function compile flags: /Ogtp
; File D:\git\src\IBK\IBK_DRFN\ProjSrc\SrcDrfn\Chart\ExControl\ExAcctInput.cpp
;	COMDAT ?__empty_global_delete@@YAXPAXI@Z
_TEXT	SEGMENT
___formal$ = 8						; size = 4
___formal$ = 12						; size = 4
?__empty_global_delete@@YAXPAXI@Z PROC			; __empty_global_delete, COMDAT

  00000	c2 00 00	 ret	 0
?__empty_global_delete@@YAXPAXI@Z ENDP			; __empty_global_delete
_TEXT	ENDS
; Function compile flags: /Ogtp
; File D:\git\src\IBK\IBK_DRFN\ProjSrc\SrcDrfn\Chart\ExControl\ExAcctInput.cpp
;	COMDAT ?__empty_global_delete@@YAXPAX@Z
_TEXT	SEGMENT
___formal$ = 8						; size = 4
?__empty_global_delete@@YAXPAX@Z PROC			; __empty_global_delete, COMDAT

  00000	c2 00 00	 ret	 0
?__empty_global_delete@@YAXPAX@Z ENDP			; __empty_global_delete
_TEXT	ENDS
END
