; Listing generated by Microsoft (R) Optimizing Compiler Version 19.29.30145.0 

	TITLE	D:\git\src\IBK\IBK_DRFN\#DRfn-CS\_Obj\ExControl\ExBitmapButton.obj
	.686P
	.XMM
	include listing.inc
	.model	flat

INCLUDELIB MSVCRT
INCLUDELIB OLDNAMES

PUBLIC	?__empty_global_delete@@YAXPAX@Z		; __empty_global_delete
PUBLIC	?__empty_global_delete@@YAXPAXI@Z		; __empty_global_delete
PUBLIC	___local_stdio_printf_options
PUBLIC	_sprintf
PUBLIC	?Serialize@CObject@@UAEXAAVCArchive@@@Z		; CObject::Serialize
PUBLIC	?AssertValid@CObject@@UBEXXZ			; CObject::AssertValid
PUBLIC	?Dump@CObject@@UBEXAAVCDumpContext@@@Z		; CObject::Dump
PUBLIC	?DoDataExchange@CWnd@@MAEXPAVCDataExchange@@@Z	; CWnd::DoDataExchange
PUBLIC	?BeginModalState@CWnd@@UAEXXZ			; CWnd::BeginModalState
PUBLIC	?EndModalState@CWnd@@UAEXXZ			; CWnd::EndModalState
PUBLIC	??0CExBitmapButton@@QAE@XZ			; CExBitmapButton::CExBitmapButton
PUBLIC	?ActionControl@CExBitmapButton@@QAEJPAX@Z	; CExBitmapButton::ActionControl
PUBLIC	?SetBitmapFile@CExBitmapButton@@QAEHPBD00@Z	; CExBitmapButton::SetBitmapFile
PUBLIC	?DrawItem@CExBitmapButton@@UAEXPAUtagDRAWITEMSTRUCT@@@Z ; CExBitmapButton::DrawItem
PUBLIC	??1CExBitmapButton@@UAE@XZ			; CExBitmapButton::~CExBitmapButton
PUBLIC	?GetThisMessageMap@CExBitmapButton@@KGPBUAFX_MSGMAP@@XZ ; CExBitmapButton::GetThisMessageMap
PUBLIC	?GetMessageMap@CExBitmapButton@@MBEPBUAFX_MSGMAP@@XZ ; CExBitmapButton::GetMessageMap
PUBLIC	??_GCExBitmapButton@@UAEPAXI@Z			; CExBitmapButton::`scalar deleting destructor'
PUBLIC	??1CExLoadLib@@QAE@XZ				; CExLoadLib::~CExLoadLib
PUBLIC	?LoadProcAddress@CExLoadLib@@UAEHXZ		; CExLoadLib::LoadProcAddress
PUBLIC	??0CLoaderBitmapButton@@QAE@PAXPBD@Z		; CLoaderBitmapButton::CLoaderBitmapButton
PUBLIC	?LoadProcAddress@CLoaderBitmapButton@@UAEHXZ	; CLoaderBitmapButton::LoadProcAddress
PUBLIC	?_OptionsStorage@?1??__local_stdio_printf_options@@9@4_KA ; `__local_stdio_printf_options'::`2'::_OptionsStorage
PUBLIC	??_R0?AVCObject@@@8				; CObject `RTTI Type Descriptor'
PUBLIC	??_R3CObject@@8					; CObject::`RTTI Class Hierarchy Descriptor'
PUBLIC	??_R2CObject@@8					; CObject::`RTTI Base Class Array'
PUBLIC	??_R1A@?0A@EA@CObject@@8			; CObject::`RTTI Base Class Descriptor at (0,-1,0,64)'
PUBLIC	??_R1A@?0A@EA@CWnd@@8				; CWnd::`RTTI Base Class Descriptor at (0,-1,0,64)'
PUBLIC	??_R0?AVCWnd@@@8				; CWnd `RTTI Type Descriptor'
PUBLIC	??_R3CWnd@@8					; CWnd::`RTTI Class Hierarchy Descriptor'
PUBLIC	??_R2CWnd@@8					; CWnd::`RTTI Base Class Array'
PUBLIC	??_R1A@?0A@EA@CCmdTarget@@8			; CCmdTarget::`RTTI Base Class Descriptor at (0,-1,0,64)'
PUBLIC	??_R0?AVCCmdTarget@@@8				; CCmdTarget `RTTI Type Descriptor'
PUBLIC	??_R3CCmdTarget@@8				; CCmdTarget::`RTTI Class Hierarchy Descriptor'
PUBLIC	??_R2CCmdTarget@@8				; CCmdTarget::`RTTI Base Class Array'
PUBLIC	??_R0?AVCButton@@@8				; CButton `RTTI Type Descriptor'
PUBLIC	??_R3CButton@@8					; CButton::`RTTI Class Hierarchy Descriptor'
PUBLIC	??_R2CButton@@8					; CButton::`RTTI Base Class Array'
PUBLIC	??_R1A@?0A@EA@CButton@@8			; CButton::`RTTI Base Class Descriptor at (0,-1,0,64)'
PUBLIC	??_7CExBitmapButton@@6B@			; CExBitmapButton::`vftable'
PUBLIC	??_7CExLoadLib@@6B@				; CExLoadLib::`vftable'
PUBLIC	??_C@_0CD@INEDAMEN@DLL?$FL?$CFs?$FN?$MA?$LL?5Load?G?R?5?$LM?v?5?$LO?x?$LN?$MA?$LE?O?$LE?Y?4?5?$FL@ ; `string'
PUBLIC	??_C@_04OHDBDCPJ@?2Dev@				; `string'
PUBLIC	??_C@_0N@GEEODKHG@ExButton?4dll@		; `string'
PUBLIC	??_C@_05BMGBEOOC@?$CFs?2?$CFs@			; `string'
PUBLIC	??_C@_0BB@JBDOCKKP@Ex_ActionControl@		; `string'
PUBLIC	??_C@_0O@HJMOOLG@Ex_ExitButton@			; `string'
PUBLIC	??_7CLoaderBitmapButton@@6B@			; CLoaderBitmapButton::`vftable'
PUBLIC	??_C@_0BE@CCNLEPGC@Ex_InitBitmapButton@		; `string'
PUBLIC	??_C@_0BB@CNCIOLDC@Ex_SetBitmapFile@		; `string'
PUBLIC	??_C@_0BC@JKFDPFCL@Ex_DrawItemBitmap@		; `string'
PUBLIC	??_R4CLoaderBitmapButton@@6B@			; CLoaderBitmapButton::`RTTI Complete Object Locator'
PUBLIC	??_R0?AVCLoaderBitmapButton@@@8			; CLoaderBitmapButton `RTTI Type Descriptor'
PUBLIC	??_R3CLoaderBitmapButton@@8			; CLoaderBitmapButton::`RTTI Class Hierarchy Descriptor'
PUBLIC	??_R2CLoaderBitmapButton@@8			; CLoaderBitmapButton::`RTTI Base Class Array'
PUBLIC	??_R1A@?0A@EA@CLoaderBitmapButton@@8		; CLoaderBitmapButton::`RTTI Base Class Descriptor at (0,-1,0,64)'
PUBLIC	??_R1A@?0A@EA@CExLoadLib@@8			; CExLoadLib::`RTTI Base Class Descriptor at (0,-1,0,64)'
PUBLIC	??_R0?AVCExLoadLib@@@8				; CExLoadLib `RTTI Type Descriptor'
PUBLIC	??_R3CExLoadLib@@8				; CExLoadLib::`RTTI Class Hierarchy Descriptor'
PUBLIC	??_R2CExLoadLib@@8				; CExLoadLib::`RTTI Base Class Array'
PUBLIC	??_R4CExBitmapButton@@6B@			; CExBitmapButton::`RTTI Complete Object Locator'
PUBLIC	??_R0?AVCExBitmapButton@@@8			; CExBitmapButton `RTTI Type Descriptor'
PUBLIC	??_R3CExBitmapButton@@8				; CExBitmapButton::`RTTI Class Hierarchy Descriptor'
PUBLIC	??_R2CExBitmapButton@@8				; CExBitmapButton::`RTTI Base Class Array'
PUBLIC	??_R1A@?0A@EA@CExBitmapButton@@8		; CExBitmapButton::`RTTI Base Class Descriptor at (0,-1,0,64)'
PUBLIC	??_R1A@?0A@EA@CExButton@@8			; CExButton::`RTTI Base Class Descriptor at (0,-1,0,64)'
PUBLIC	??_R0?AVCExButton@@@8				; CExButton `RTTI Type Descriptor'
PUBLIC	??_R3CExButton@@8				; CExButton::`RTTI Class Hierarchy Descriptor'
PUBLIC	??_R2CExButton@@8				; CExButton::`RTTI Base Class Array'
PUBLIC	??_R4CExLoadLib@@6B@				; CExLoadLib::`RTTI Complete Object Locator'
EXTRN	??2@YAPAXI@Z:PROC				; operator new
EXTRN	??3@YAXPAX@Z:PROC				; operator delete
EXTRN	??3@YAXPAXI@Z:PROC				; operator delete
EXTRN	?__global_delete@@YAXPAXI@Z:PROC		; __global_delete
EXTRN	___std_terminate:PROC
EXTRN	__imp__GetLastError@0:PROC
EXTRN	__imp__FreeLibrary@4:PROC
EXTRN	__imp__GetModuleFileNameA@12:PROC
EXTRN	__imp__GetProcAddress@8:PROC
EXTRN	__imp__LoadLibraryA@4:PROC
EXTRN	__imp__EnableWindow@8:PROC
EXTRN	__imp____stdio_common_vsprintf:PROC
EXTRN	__imp_??0?$CStringT@DV?$StrTraitMFC_DLL@DV?$ChTraitsCRT@D@ATL@@@@@ATL@@QAE@XZ:PROC
EXTRN	__imp_??1?$CStringT@DV?$StrTraitMFC_DLL@DV?$ChTraitsCRT@D@ATL@@@@@ATL@@QAE@XZ:PROC
EXTRN	__imp_??4?$CStringT@DV?$StrTraitMFC_DLL@DV?$ChTraitsCRT@D@ATL@@@@@ATL@@QAEAAV01@ABV01@@Z:PROC
EXTRN	__imp_??4?$CStringT@DV?$StrTraitMFC_DLL@DV?$ChTraitsCRT@D@ATL@@@@@ATL@@QAEAAV01@PBD@Z:PROC
EXTRN	__imp_??Y?$CStringT@DV?$StrTraitMFC_DLL@DV?$ChTraitsCRT@D@ATL@@@@@ATL@@QAEAAV01@PBD@Z:PROC
EXTRN	__imp_?ReverseFind@?$CStringT@DV?$StrTraitMFC_DLL@DV?$ChTraitsCRT@D@ATL@@@@@ATL@@QBEHD@Z:PROC
EXTRN	__imp_?Left@?$CStringT@DV?$StrTraitMFC_DLL@DV?$ChTraitsCRT@D@ATL@@@@@ATL@@QBE?AV12@H@Z:PROC
EXTRN	?OnCmdMsg@CCmdTarget@@UAEHIHPAXPAUAFX_CMDHANDLERINFO@@@Z:PROC ; CCmdTarget::OnCmdMsg
EXTRN	?IsInvokeAllowed@CCmdTarget@@UAEHJ@Z:PROC	; CCmdTarget::IsInvokeAllowed
EXTRN	?GetDispatchIID@CCmdTarget@@UAEHPAU_GUID@@@Z:PROC ; CCmdTarget::GetDispatchIID
EXTRN	?GetTypeInfoCount@CCmdTarget@@UAEIXZ:PROC	; CCmdTarget::GetTypeInfoCount
EXTRN	?GetTypeLibCache@CCmdTarget@@UAEPAVCTypeLibCache@@XZ:PROC ; CCmdTarget::GetTypeLibCache
EXTRN	?GetTypeLib@CCmdTarget@@UAEJKPAPAUITypeLib@@@Z:PROC ; CCmdTarget::GetTypeLib
EXTRN	?GetCommandMap@CCmdTarget@@MBEPBUAFX_OLECMDMAP@@XZ:PROC ; CCmdTarget::GetCommandMap
EXTRN	?GetDispatchMap@CCmdTarget@@MBEPBUAFX_DISPMAP@@XZ:PROC ; CCmdTarget::GetDispatchMap
EXTRN	?GetConnectionMap@CCmdTarget@@MBEPBUAFX_CONNECTIONMAP@@XZ:PROC ; CCmdTarget::GetConnectionMap
EXTRN	?GetEventSinkMap@CCmdTarget@@MBEPBUAFX_EVENTSINKMAP@@XZ:PROC ; CCmdTarget::GetEventSinkMap
EXTRN	?OnCreateAggregates@CCmdTarget@@UAEHXZ:PROC	; CCmdTarget::OnCreateAggregates
EXTRN	?GetInterfaceHook@CCmdTarget@@UAEPAUIUnknown@@PBX@Z:PROC ; CCmdTarget::GetInterfaceHook
EXTRN	?GetExtraConnectionPoints@CCmdTarget@@MAEHPAVCPtrArray@@@Z:PROC ; CCmdTarget::GetExtraConnectionPoints
EXTRN	?GetConnectionHook@CCmdTarget@@MAEPAUIConnectionPoint@@ABU_GUID@@@Z:PROC ; CCmdTarget::GetConnectionHook
EXTRN	?Create@CWnd@@UAEHPBD0KABUtagRECT@@PAV1@IPAUCCreateContext@@@Z:PROC ; CWnd::Create
EXTRN	?CreateEx@CWnd@@UAEHKPBD0KHHHHPAUHWND__@@PAUHMENU__@@PAX@Z:PROC ; CWnd::CreateEx
EXTRN	?CreateEx@CWnd@@UAEHKPBD0KABUtagRECT@@PAV1@IPAX@Z:PROC ; CWnd::CreateEx
EXTRN	?DestroyWindow@CWnd@@UAEHXZ:PROC		; CWnd::DestroyWindow
EXTRN	?PreCreateWindow@CWnd@@UAEHAAUtagCREATESTRUCTA@@@Z:PROC ; CWnd::PreCreateWindow
EXTRN	?CalcWindowRect@CWnd@@UAEXPAUtagRECT@@I@Z:PROC	; CWnd::CalcWindowRect
EXTRN	?GetMenu@CWnd@@UBEPAVCMenu@@XZ:PROC		; CWnd::GetMenu
EXTRN	?SetMenu@CWnd@@UAEHPAVCMenu@@@Z:PROC		; CWnd::SetMenu
EXTRN	?OnToolHitTest@CWnd@@UBEHVCPoint@@PAUtagTOOLINFOA@@@Z:PROC ; CWnd::OnToolHitTest
EXTRN	?GetScrollBarCtrl@CWnd@@UBEPAVCScrollBar@@H@Z:PROC ; CWnd::GetScrollBarCtrl
EXTRN	?WinHelpA@CWnd@@UAEXKI@Z:PROC			; CWnd::WinHelpA
EXTRN	?HtmlHelpA@CWnd@@UAEXKI@Z:PROC			; CWnd::HtmlHelpA
EXTRN	?WinHelpInternal@CWnd@@UAEXKI@Z:PROC		; CWnd::WinHelpInternal
EXTRN	?ContinueModal@CWnd@@UAEHXZ:PROC		; CWnd::ContinueModal
EXTRN	?EndModalLoop@CWnd@@UAEXH@Z:PROC		; CWnd::EndModalLoop
EXTRN	?OnDrawIconicThumbnailOrLivePreview@CWnd@@UAEXAAVCDC@@VCRect@@VCSize@@HAAH@Z:PROC ; CWnd::OnDrawIconicThumbnailOrLivePreview
EXTRN	?GetInterfaceMap@CWnd@@MBEPBUAFX_INTERFACEMAP@@XZ:PROC ; CWnd::GetInterfaceMap
EXTRN	?EnsureStdObj@CWnd@@UAEJXZ:PROC			; CWnd::EnsureStdObj
EXTRN	?get_accParent@CWnd@@UAEJPAPAUIDispatch@@@Z:PROC ; CWnd::get_accParent
EXTRN	?get_accChildCount@CWnd@@UAEJPAJ@Z:PROC		; CWnd::get_accChildCount
EXTRN	?get_accChild@CWnd@@UAEJUtagVARIANT@@PAPAUIDispatch@@@Z:PROC ; CWnd::get_accChild
EXTRN	?get_accName@CWnd@@UAEJUtagVARIANT@@PAPA_W@Z:PROC ; CWnd::get_accName
EXTRN	?get_accValue@CWnd@@UAEJUtagVARIANT@@PAPA_W@Z:PROC ; CWnd::get_accValue
EXTRN	?get_accDescription@CWnd@@UAEJUtagVARIANT@@PAPA_W@Z:PROC ; CWnd::get_accDescription
EXTRN	?get_accRole@CWnd@@UAEJUtagVARIANT@@PAU2@@Z:PROC ; CWnd::get_accRole
EXTRN	?get_accState@CWnd@@UAEJUtagVARIANT@@PAU2@@Z:PROC ; CWnd::get_accState
EXTRN	?get_accHelp@CWnd@@UAEJUtagVARIANT@@PAPA_W@Z:PROC ; CWnd::get_accHelp
EXTRN	?get_accHelpTopic@CWnd@@UAEJPAPA_WUtagVARIANT@@PAJ@Z:PROC ; CWnd::get_accHelpTopic
EXTRN	?get_accKeyboardShortcut@CWnd@@UAEJUtagVARIANT@@PAPA_W@Z:PROC ; CWnd::get_accKeyboardShortcut
EXTRN	?get_accFocus@CWnd@@UAEJPAUtagVARIANT@@@Z:PROC	; CWnd::get_accFocus
EXTRN	?get_accSelection@CWnd@@UAEJPAUtagVARIANT@@@Z:PROC ; CWnd::get_accSelection
EXTRN	?get_accDefaultAction@CWnd@@UAEJUtagVARIANT@@PAPA_W@Z:PROC ; CWnd::get_accDefaultAction
EXTRN	?accSelect@CWnd@@UAEJJUtagVARIANT@@@Z:PROC	; CWnd::accSelect
EXTRN	?accLocation@CWnd@@UAEJPAJ000UtagVARIANT@@@Z:PROC ; CWnd::accLocation
EXTRN	?accNavigate@CWnd@@UAEJJUtagVARIANT@@PAU2@@Z:PROC ; CWnd::accNavigate
EXTRN	?accHitTest@CWnd@@UAEJJJPAUtagVARIANT@@@Z:PROC	; CWnd::accHitTest
EXTRN	?accDoDefaultAction@CWnd@@UAEJUtagVARIANT@@@Z:PROC ; CWnd::accDoDefaultAction
EXTRN	?put_accName@CWnd@@UAEJUtagVARIANT@@PA_W@Z:PROC	; CWnd::put_accName
EXTRN	?put_accValue@CWnd@@UAEJUtagVARIANT@@PA_W@Z:PROC ; CWnd::put_accValue
EXTRN	?SetProxy@CWnd@@UAEJPAUIAccessibleProxy@@@Z:PROC ; CWnd::SetProxy
EXTRN	?CreateAccessibleProxy@CWnd@@UAEJIJPAJ@Z:PROC	; CWnd::CreateAccessibleProxy
EXTRN	?OnCommand@CWnd@@MAEHIJ@Z:PROC			; CWnd::OnCommand
EXTRN	?OnNotify@CWnd@@MAEHIJPAJ@Z:PROC		; CWnd::OnNotify
EXTRN	?GetSuperWndProcAddr@CWnd@@MAEPAP6GJPAUHWND__@@IIJ@ZXZ:PROC ; CWnd::GetSuperWndProcAddr
EXTRN	?PreTranslateMessage@CWnd@@UAEHPAUtagMSG@@@Z:PROC ; CWnd::PreTranslateMessage
EXTRN	?OnAmbientProperty@CWnd@@UAEHPAVCOleControlSite@@JPAUtagVARIANT@@@Z:PROC ; CWnd::OnAmbientProperty
EXTRN	?WindowProc@CWnd@@MAEJIIJ@Z:PROC		; CWnd::WindowProc
EXTRN	?OnWndMsg@CWnd@@MAEHIIJPAJ@Z:PROC		; CWnd::OnWndMsg
EXTRN	?DefWindowProcA@CWnd@@MAEJIIJ@Z:PROC		; CWnd::DefWindowProcA
EXTRN	?PostNcDestroy@CWnd@@MAEXXZ:PROC		; CWnd::PostNcDestroy
EXTRN	?OnTouchInputs@CWnd@@MAEHIPAUtagTOUCHINPUT@@@Z:PROC ; CWnd::OnTouchInputs
EXTRN	?OnTouchInput@CWnd@@MAEHVCPoint@@HHPAUtagTOUCHINPUT@@@Z:PROC ; CWnd::OnTouchInput
EXTRN	?GetGestureStatus@CWnd@@MAEKVCPoint@@@Z:PROC	; CWnd::GetGestureStatus
EXTRN	?OnGestureZoom@CWnd@@MAEHVCPoint@@J@Z:PROC	; CWnd::OnGestureZoom
EXTRN	?OnGesturePan@CWnd@@MAEHVCPoint@@0@Z:PROC	; CWnd::OnGesturePan
EXTRN	?OnGestureRotate@CWnd@@MAEHVCPoint@@N@Z:PROC	; CWnd::OnGestureRotate
EXTRN	?OnGestureTwoFingerTap@CWnd@@MAEHVCPoint@@@Z:PROC ; CWnd::OnGestureTwoFingerTap
EXTRN	?OnGesturePressAndTap@CWnd@@MAEHVCPoint@@J@Z:PROC ; CWnd::OnGesturePressAndTap
EXTRN	?ResizeDynamicLayout@CWnd@@MAEXXZ:PROC		; CWnd::ResizeDynamicLayout
EXTRN	?CheckAutoCenter@CWnd@@UAEHXZ:PROC		; CWnd::CheckAutoCenter
EXTRN	?IsFrameWnd@CWnd@@UBEHXZ:PROC			; CWnd::IsFrameWnd
EXTRN	?OnFinalRelease@CWnd@@UAEXXZ:PROC		; CWnd::OnFinalRelease
EXTRN	?CreateControlContainer@CWnd@@MAEHPAPAVCOleControlContainer@@@Z:PROC ; CWnd::CreateControlContainer
EXTRN	?CreateControlSite@CWnd@@MAEHPAVCOleControlContainer@@PAPAVCOleControlSite@@IABU_GUID@@@Z:PROC ; CWnd::CreateControlSite
EXTRN	?SetOccDialogInfo@CWnd@@MAEHPAU_AFX_OCC_DIALOG_INFO@@@Z:PROC ; CWnd::SetOccDialogInfo
EXTRN	?GetOccDialogInfo@CWnd@@MAEPAU_AFX_OCC_DIALOG_INFO@@XZ:PROC ; CWnd::GetOccDialogInfo
EXTRN	?GetRuntimeClass@CButton@@UBEPAUCRuntimeClass@@XZ:PROC ; CButton::GetRuntimeClass
EXTRN	?Create@CButton@@UAEHPBDKABUtagRECT@@PAVCWnd@@I@Z:PROC ; CButton::Create
EXTRN	?OnChildNotify@CButton@@MAEHIIJPAJ@Z:PROC	; CButton::OnChildNotify
EXTRN	?AfxMessageBox@@YGHPBDII@Z:PROC			; AfxMessageBox
EXTRN	??0CExButton@@QAE@XZ:PROC			; CExButton::CExButton
EXTRN	?PreSubclassWindow@CExButton@@MAEXXZ:PROC	; CExButton::PreSubclassWindow
EXTRN	??1CExButton@@UAE@XZ:PROC			; CExButton::~CExButton
EXTRN	?GetThisMessageMap@CExButton@@KGPBUAFX_MSGMAP@@XZ:PROC ; CExButton::GetThisMessageMap
EXTRN	??_ECExBitmapButton@@UAEPAXI@Z:PROC		; CExBitmapButton::`vector deleting destructor'
EXTRN	@__security_check_cookie@4:PROC
EXTRN	___CxxFrameHandler3:PROC
EXTRN	_memset:PROC
EXTRN	??_7type_info@@6B@:QWORD			; type_info::`vftable'
EXTRN	___security_cookie:DWORD
;	COMDAT ?_OptionsStorage@?1??__local_stdio_printf_options@@9@4_KA
_BSS	SEGMENT
?_OptionsStorage@?1??__local_stdio_printf_options@@9@4_KA DQ 01H DUP (?) ; `__local_stdio_printf_options'::`2'::_OptionsStorage
_BSS	ENDS
;	COMDAT ??_R4CExLoadLib@@6B@
rdata$r	SEGMENT
??_R4CExLoadLib@@6B@ DD 00H				; CExLoadLib::`RTTI Complete Object Locator'
	DD	00H
	DD	00H
	DD	FLAT:??_R0?AVCExLoadLib@@@8
	DD	FLAT:??_R3CExLoadLib@@8
rdata$r	ENDS
;	COMDAT ??_R2CExButton@@8
rdata$r	SEGMENT
??_R2CExButton@@8 DD FLAT:??_R1A@?0A@EA@CExButton@@8	; CExButton::`RTTI Base Class Array'
	DD	FLAT:??_R1A@?0A@EA@CButton@@8
	DD	FLAT:??_R1A@?0A@EA@CWnd@@8
	DD	FLAT:??_R1A@?0A@EA@CCmdTarget@@8
	DD	FLAT:??_R1A@?0A@EA@CObject@@8
rdata$r	ENDS
;	COMDAT ??_R3CExButton@@8
rdata$r	SEGMENT
??_R3CExButton@@8 DD 00H				; CExButton::`RTTI Class Hierarchy Descriptor'
	DD	00H
	DD	05H
	DD	FLAT:??_R2CExButton@@8
rdata$r	ENDS
;	COMDAT ??_R0?AVCExButton@@@8
data$rs	SEGMENT
??_R0?AVCExButton@@@8 DD FLAT:??_7type_info@@6B@	; CExButton `RTTI Type Descriptor'
	DD	00H
	DB	'.?AVCExButton@@', 00H
data$rs	ENDS
;	COMDAT ??_R1A@?0A@EA@CExButton@@8
rdata$r	SEGMENT
??_R1A@?0A@EA@CExButton@@8 DD FLAT:??_R0?AVCExButton@@@8 ; CExButton::`RTTI Base Class Descriptor at (0,-1,0,64)'
	DD	04H
	DD	00H
	DD	0ffffffffH
	DD	00H
	DD	040H
	DD	FLAT:??_R3CExButton@@8
rdata$r	ENDS
;	COMDAT ??_R1A@?0A@EA@CExBitmapButton@@8
rdata$r	SEGMENT
??_R1A@?0A@EA@CExBitmapButton@@8 DD FLAT:??_R0?AVCExBitmapButton@@@8 ; CExBitmapButton::`RTTI Base Class Descriptor at (0,-1,0,64)'
	DD	05H
	DD	00H
	DD	0ffffffffH
	DD	00H
	DD	040H
	DD	FLAT:??_R3CExBitmapButton@@8
rdata$r	ENDS
;	COMDAT ??_R2CExBitmapButton@@8
rdata$r	SEGMENT
??_R2CExBitmapButton@@8 DD FLAT:??_R1A@?0A@EA@CExBitmapButton@@8 ; CExBitmapButton::`RTTI Base Class Array'
	DD	FLAT:??_R1A@?0A@EA@CExButton@@8
	DD	FLAT:??_R1A@?0A@EA@CButton@@8
	DD	FLAT:??_R1A@?0A@EA@CWnd@@8
	DD	FLAT:??_R1A@?0A@EA@CCmdTarget@@8
	DD	FLAT:??_R1A@?0A@EA@CObject@@8
rdata$r	ENDS
;	COMDAT ??_R3CExBitmapButton@@8
rdata$r	SEGMENT
??_R3CExBitmapButton@@8 DD 00H				; CExBitmapButton::`RTTI Class Hierarchy Descriptor'
	DD	00H
	DD	06H
	DD	FLAT:??_R2CExBitmapButton@@8
rdata$r	ENDS
;	COMDAT ??_R0?AVCExBitmapButton@@@8
data$rs	SEGMENT
??_R0?AVCExBitmapButton@@@8 DD FLAT:??_7type_info@@6B@	; CExBitmapButton `RTTI Type Descriptor'
	DD	00H
	DB	'.?AVCExBitmapButton@@', 00H
data$rs	ENDS
;	COMDAT ??_R4CExBitmapButton@@6B@
rdata$r	SEGMENT
??_R4CExBitmapButton@@6B@ DD 00H			; CExBitmapButton::`RTTI Complete Object Locator'
	DD	00H
	DD	00H
	DD	FLAT:??_R0?AVCExBitmapButton@@@8
	DD	FLAT:??_R3CExBitmapButton@@8
rdata$r	ENDS
;	COMDAT ??_R2CExLoadLib@@8
rdata$r	SEGMENT
??_R2CExLoadLib@@8 DD FLAT:??_R1A@?0A@EA@CExLoadLib@@8	; CExLoadLib::`RTTI Base Class Array'
rdata$r	ENDS
;	COMDAT ??_R3CExLoadLib@@8
rdata$r	SEGMENT
??_R3CExLoadLib@@8 DD 00H				; CExLoadLib::`RTTI Class Hierarchy Descriptor'
	DD	00H
	DD	01H
	DD	FLAT:??_R2CExLoadLib@@8
rdata$r	ENDS
;	COMDAT ??_R0?AVCExLoadLib@@@8
data$rs	SEGMENT
??_R0?AVCExLoadLib@@@8 DD FLAT:??_7type_info@@6B@	; CExLoadLib `RTTI Type Descriptor'
	DD	00H
	DB	'.?AVCExLoadLib@@', 00H
data$rs	ENDS
;	COMDAT ??_R1A@?0A@EA@CExLoadLib@@8
rdata$r	SEGMENT
??_R1A@?0A@EA@CExLoadLib@@8 DD FLAT:??_R0?AVCExLoadLib@@@8 ; CExLoadLib::`RTTI Base Class Descriptor at (0,-1,0,64)'
	DD	00H
	DD	00H
	DD	0ffffffffH
	DD	00H
	DD	040H
	DD	FLAT:??_R3CExLoadLib@@8
rdata$r	ENDS
;	COMDAT ??_R1A@?0A@EA@CLoaderBitmapButton@@8
rdata$r	SEGMENT
??_R1A@?0A@EA@CLoaderBitmapButton@@8 DD FLAT:??_R0?AVCLoaderBitmapButton@@@8 ; CLoaderBitmapButton::`RTTI Base Class Descriptor at (0,-1,0,64)'
	DD	01H
	DD	00H
	DD	0ffffffffH
	DD	00H
	DD	040H
	DD	FLAT:??_R3CLoaderBitmapButton@@8
rdata$r	ENDS
;	COMDAT ??_R2CLoaderBitmapButton@@8
rdata$r	SEGMENT
??_R2CLoaderBitmapButton@@8 DD FLAT:??_R1A@?0A@EA@CLoaderBitmapButton@@8 ; CLoaderBitmapButton::`RTTI Base Class Array'
	DD	FLAT:??_R1A@?0A@EA@CExLoadLib@@8
rdata$r	ENDS
;	COMDAT ??_R3CLoaderBitmapButton@@8
rdata$r	SEGMENT
??_R3CLoaderBitmapButton@@8 DD 00H			; CLoaderBitmapButton::`RTTI Class Hierarchy Descriptor'
	DD	00H
	DD	02H
	DD	FLAT:??_R2CLoaderBitmapButton@@8
rdata$r	ENDS
;	COMDAT ??_R0?AVCLoaderBitmapButton@@@8
data$rs	SEGMENT
??_R0?AVCLoaderBitmapButton@@@8 DD FLAT:??_7type_info@@6B@ ; CLoaderBitmapButton `RTTI Type Descriptor'
	DD	00H
	DB	'.?AVCLoaderBitmapButton@@', 00H
data$rs	ENDS
;	COMDAT ??_R4CLoaderBitmapButton@@6B@
rdata$r	SEGMENT
??_R4CLoaderBitmapButton@@6B@ DD 00H			; CLoaderBitmapButton::`RTTI Complete Object Locator'
	DD	00H
	DD	00H
	DD	FLAT:??_R0?AVCLoaderBitmapButton@@@8
	DD	FLAT:??_R3CLoaderBitmapButton@@8
rdata$r	ENDS
;	COMDAT ?messageMap@?1??GetThisMessageMap@CExBitmapButton@@KGPBUAFX_MSGMAP@@XZ@4U3@B
CONST	SEGMENT
?messageMap@?1??GetThisMessageMap@CExBitmapButton@@KGPBUAFX_MSGMAP@@XZ@4U3@B DD FLAT:?GetThisMessageMap@CExButton@@KGPBUAFX_MSGMAP@@XZ ; `CExBitmapButton::GetThisMessageMap'::`2'::messageMap
	DD	FLAT:?_messageEntries@?1??GetThisMessageMap@CExBitmapButton@@KGPBUAFX_MSGMAP@@XZ@4QBUAFX_MSGMAP_ENTRY@@B
CONST	ENDS
;	COMDAT ?_messageEntries@?1??GetThisMessageMap@CExBitmapButton@@KGPBUAFX_MSGMAP@@XZ@4QBUAFX_MSGMAP_ENTRY@@B
CONST	SEGMENT
?_messageEntries@?1??GetThisMessageMap@CExBitmapButton@@KGPBUAFX_MSGMAP@@XZ@4QBUAFX_MSGMAP_ENTRY@@B DD 00H ; `CExBitmapButton::GetThisMessageMap'::`2'::_messageEntries
	DD	00H
	DD	00H
	DD	00H
	DD	00H
	DD	00H
CONST	ENDS
;	COMDAT ??_C@_0BC@JKFDPFCL@Ex_DrawItemBitmap@
CONST	SEGMENT
??_C@_0BC@JKFDPFCL@Ex_DrawItemBitmap@ DB 'Ex_DrawItemBitmap', 00H ; `string'
CONST	ENDS
;	COMDAT ??_C@_0BB@CNCIOLDC@Ex_SetBitmapFile@
CONST	SEGMENT
??_C@_0BB@CNCIOLDC@Ex_SetBitmapFile@ DB 'Ex_SetBitmapFile', 00H ; `string'
CONST	ENDS
;	COMDAT ??_C@_0BE@CCNLEPGC@Ex_InitBitmapButton@
CONST	SEGMENT
??_C@_0BE@CCNLEPGC@Ex_InitBitmapButton@ DB 'Ex_InitBitmapButton', 00H ; `string'
CONST	ENDS
;	COMDAT ??_7CLoaderBitmapButton@@6B@
CONST	SEGMENT
??_7CLoaderBitmapButton@@6B@ DD FLAT:??_R4CLoaderBitmapButton@@6B@ ; CLoaderBitmapButton::`vftable'
	DD	FLAT:?LoadProcAddress@CLoaderBitmapButton@@UAEHXZ
CONST	ENDS
;	COMDAT ??_C@_0O@HJMOOLG@Ex_ExitButton@
CONST	SEGMENT
??_C@_0O@HJMOOLG@Ex_ExitButton@ DB 'Ex_ExitButton', 00H	; `string'
CONST	ENDS
;	COMDAT ??_C@_0BB@JBDOCKKP@Ex_ActionControl@
CONST	SEGMENT
??_C@_0BB@JBDOCKKP@Ex_ActionControl@ DB 'Ex_ActionControl', 00H ; `string'
CONST	ENDS
;	COMDAT ??_C@_05BMGBEOOC@?$CFs?2?$CFs@
CONST	SEGMENT
??_C@_05BMGBEOOC@?$CFs?2?$CFs@ DB '%s\%s', 00H		; `string'
CONST	ENDS
;	COMDAT ??_C@_0N@GEEODKHG@ExButton?4dll@
CONST	SEGMENT
??_C@_0N@GEEODKHG@ExButton?4dll@ DB 'ExButton.dll', 00H	; `string'
CONST	ENDS
;	COMDAT ??_C@_04OHDBDCPJ@?2Dev@
CONST	SEGMENT
??_C@_04OHDBDCPJ@?2Dev@ DB '\Dev', 00H			; `string'
CONST	ENDS
;	COMDAT ??_C@_0CD@INEDAMEN@DLL?$FL?$CFs?$FN?$MA?$LL?5Load?G?R?5?$LM?v?5?$LO?x?$LN?$MA?$LE?O?$LE?Y?4?5?$FL@
CONST	SEGMENT
??_C@_0CD@INEDAMEN@DLL?$FL?$CFs?$FN?$MA?$LL?5Load?G?R?5?$LM?v?5?$LO?x?$LN?$MA?$LE?O?$LE?Y?4?5?$FL@ DB 'D'
	DB	'LL[%s]', 0c0H, 0bbH, ' Load', 0c7H, 0d2H, ' ', 0bcH, 0f6H, ' '
	DB	0beH, 0f8H, 0bdH, 0c0H, 0b4H, 0cfH, 0b4H, 0d9H, '. [%d]', 00H ; `string'
CONST	ENDS
;	COMDAT ??_7CExLoadLib@@6B@
CONST	SEGMENT
??_7CExLoadLib@@6B@ DD FLAT:??_R4CExLoadLib@@6B@	; CExLoadLib::`vftable'
	DD	FLAT:?LoadProcAddress@CExLoadLib@@UAEHXZ
CONST	ENDS
;	COMDAT ??_7CExBitmapButton@@6B@
CONST	SEGMENT
??_7CExBitmapButton@@6B@ DD FLAT:??_R4CExBitmapButton@@6B@ ; CExBitmapButton::`vftable'
	DD	FLAT:?GetRuntimeClass@CButton@@UBEPAUCRuntimeClass@@XZ
	DD	FLAT:??_ECExBitmapButton@@UAEPAXI@Z
	DD	FLAT:?Serialize@CObject@@UAEXAAVCArchive@@@Z
	DD	FLAT:?AssertValid@CObject@@UBEXXZ
	DD	FLAT:?Dump@CObject@@UBEXAAVCDumpContext@@@Z
	DD	FLAT:?OnCmdMsg@CCmdTarget@@UAEHIHPAXPAUAFX_CMDHANDLERINFO@@@Z
	DD	FLAT:?OnFinalRelease@CWnd@@UAEXXZ
	DD	FLAT:?IsInvokeAllowed@CCmdTarget@@UAEHJ@Z
	DD	FLAT:?GetDispatchIID@CCmdTarget@@UAEHPAU_GUID@@@Z
	DD	FLAT:?GetTypeInfoCount@CCmdTarget@@UAEIXZ
	DD	FLAT:?GetTypeLibCache@CCmdTarget@@UAEPAVCTypeLibCache@@XZ
	DD	FLAT:?GetTypeLib@CCmdTarget@@UAEJKPAPAUITypeLib@@@Z
	DD	FLAT:?GetMessageMap@CExBitmapButton@@MBEPBUAFX_MSGMAP@@XZ
	DD	FLAT:?GetCommandMap@CCmdTarget@@MBEPBUAFX_OLECMDMAP@@XZ
	DD	FLAT:?GetDispatchMap@CCmdTarget@@MBEPBUAFX_DISPMAP@@XZ
	DD	FLAT:?GetConnectionMap@CCmdTarget@@MBEPBUAFX_CONNECTIONMAP@@XZ
	DD	FLAT:?GetInterfaceMap@CWnd@@MBEPBUAFX_INTERFACEMAP@@XZ
	DD	FLAT:?GetEventSinkMap@CCmdTarget@@MBEPBUAFX_EVENTSINKMAP@@XZ
	DD	FLAT:?OnCreateAggregates@CCmdTarget@@UAEHXZ
	DD	FLAT:?GetInterfaceHook@CCmdTarget@@UAEPAUIUnknown@@PBX@Z
	DD	FLAT:?GetExtraConnectionPoints@CCmdTarget@@MAEHPAVCPtrArray@@@Z
	DD	FLAT:?GetConnectionHook@CCmdTarget@@MAEPAUIConnectionPoint@@ABU_GUID@@@Z
	DD	FLAT:?PreSubclassWindow@CExButton@@MAEXXZ
	DD	FLAT:?Create@CWnd@@UAEHPBD0KABUtagRECT@@PAV1@IPAUCCreateContext@@@Z
	DD	FLAT:?CreateEx@CWnd@@UAEHKPBD0KABUtagRECT@@PAV1@IPAX@Z
	DD	FLAT:?CreateEx@CWnd@@UAEHKPBD0KHHHHPAUHWND__@@PAUHMENU__@@PAX@Z
	DD	FLAT:?DestroyWindow@CWnd@@UAEHXZ
	DD	FLAT:?PreCreateWindow@CWnd@@UAEHAAUtagCREATESTRUCTA@@@Z
	DD	FLAT:?CalcWindowRect@CWnd@@UAEXPAUtagRECT@@I@Z
	DD	FLAT:?GetMenu@CWnd@@UBEPAVCMenu@@XZ
	DD	FLAT:?SetMenu@CWnd@@UAEHPAVCMenu@@@Z
	DD	FLAT:?OnToolHitTest@CWnd@@UBEHVCPoint@@PAUtagTOOLINFOA@@@Z
	DD	FLAT:?GetScrollBarCtrl@CWnd@@UBEPAVCScrollBar@@H@Z
	DD	FLAT:?WinHelpA@CWnd@@UAEXKI@Z
	DD	FLAT:?HtmlHelpA@CWnd@@UAEXKI@Z
	DD	FLAT:?WinHelpInternal@CWnd@@UAEXKI@Z
	DD	FLAT:?ContinueModal@CWnd@@UAEHXZ
	DD	FLAT:?EndModalLoop@CWnd@@UAEXH@Z
	DD	FLAT:?OnDrawIconicThumbnailOrLivePreview@CWnd@@UAEXAAVCDC@@VCRect@@VCSize@@HAAH@Z
	DD	FLAT:?EnsureStdObj@CWnd@@UAEJXZ
	DD	FLAT:?get_accParent@CWnd@@UAEJPAPAUIDispatch@@@Z
	DD	FLAT:?get_accChildCount@CWnd@@UAEJPAJ@Z
	DD	FLAT:?get_accChild@CWnd@@UAEJUtagVARIANT@@PAPAUIDispatch@@@Z
	DD	FLAT:?get_accName@CWnd@@UAEJUtagVARIANT@@PAPA_W@Z
	DD	FLAT:?get_accValue@CWnd@@UAEJUtagVARIANT@@PAPA_W@Z
	DD	FLAT:?get_accDescription@CWnd@@UAEJUtagVARIANT@@PAPA_W@Z
	DD	FLAT:?get_accRole@CWnd@@UAEJUtagVARIANT@@PAU2@@Z
	DD	FLAT:?get_accState@CWnd@@UAEJUtagVARIANT@@PAU2@@Z
	DD	FLAT:?get_accHelp@CWnd@@UAEJUtagVARIANT@@PAPA_W@Z
	DD	FLAT:?get_accHelpTopic@CWnd@@UAEJPAPA_WUtagVARIANT@@PAJ@Z
	DD	FLAT:?get_accKeyboardShortcut@CWnd@@UAEJUtagVARIANT@@PAPA_W@Z
	DD	FLAT:?get_accFocus@CWnd@@UAEJPAUtagVARIANT@@@Z
	DD	FLAT:?get_accSelection@CWnd@@UAEJPAUtagVARIANT@@@Z
	DD	FLAT:?get_accDefaultAction@CWnd@@UAEJUtagVARIANT@@PAPA_W@Z
	DD	FLAT:?accSelect@CWnd@@UAEJJUtagVARIANT@@@Z
	DD	FLAT:?accLocation@CWnd@@UAEJPAJ000UtagVARIANT@@@Z
	DD	FLAT:?accNavigate@CWnd@@UAEJJUtagVARIANT@@PAU2@@Z
	DD	FLAT:?accHitTest@CWnd@@UAEJJJPAUtagVARIANT@@@Z
	DD	FLAT:?accDoDefaultAction@CWnd@@UAEJUtagVARIANT@@@Z
	DD	FLAT:?put_accName@CWnd@@UAEJUtagVARIANT@@PA_W@Z
	DD	FLAT:?put_accValue@CWnd@@UAEJUtagVARIANT@@PA_W@Z
	DD	FLAT:?SetProxy@CWnd@@UAEJPAUIAccessibleProxy@@@Z
	DD	FLAT:?CreateAccessibleProxy@CWnd@@UAEJIJPAJ@Z
	DD	FLAT:?OnCommand@CWnd@@MAEHIJ@Z
	DD	FLAT:?OnNotify@CWnd@@MAEHIJPAJ@Z
	DD	FLAT:?GetSuperWndProcAddr@CWnd@@MAEPAP6GJPAUHWND__@@IIJ@ZXZ
	DD	FLAT:?DoDataExchange@CWnd@@MAEXPAVCDataExchange@@@Z
	DD	FLAT:?BeginModalState@CWnd@@UAEXXZ
	DD	FLAT:?EndModalState@CWnd@@UAEXXZ
	DD	FLAT:?PreTranslateMessage@CWnd@@UAEHPAUtagMSG@@@Z
	DD	FLAT:?OnAmbientProperty@CWnd@@UAEHPAVCOleControlSite@@JPAUtagVARIANT@@@Z
	DD	FLAT:?WindowProc@CWnd@@MAEJIIJ@Z
	DD	FLAT:?OnWndMsg@CWnd@@MAEHIIJPAJ@Z
	DD	FLAT:?DefWindowProcA@CWnd@@MAEJIIJ@Z
	DD	FLAT:?PostNcDestroy@CWnd@@MAEXXZ
	DD	FLAT:?OnChildNotify@CButton@@MAEHIIJPAJ@Z
	DD	FLAT:?OnTouchInputs@CWnd@@MAEHIPAUtagTOUCHINPUT@@@Z
	DD	FLAT:?OnTouchInput@CWnd@@MAEHVCPoint@@HHPAUtagTOUCHINPUT@@@Z
	DD	FLAT:?GetGestureStatus@CWnd@@MAEKVCPoint@@@Z
	DD	FLAT:?OnGestureZoom@CWnd@@MAEHVCPoint@@J@Z
	DD	FLAT:?OnGesturePan@CWnd@@MAEHVCPoint@@0@Z
	DD	FLAT:?OnGestureRotate@CWnd@@MAEHVCPoint@@N@Z
	DD	FLAT:?OnGestureTwoFingerTap@CWnd@@MAEHVCPoint@@@Z
	DD	FLAT:?OnGesturePressAndTap@CWnd@@MAEHVCPoint@@J@Z
	DD	FLAT:?ResizeDynamicLayout@CWnd@@MAEXXZ
	DD	FLAT:?CheckAutoCenter@CWnd@@UAEHXZ
	DD	FLAT:?IsFrameWnd@CWnd@@UBEHXZ
	DD	FLAT:?CreateControlContainer@CWnd@@MAEHPAPAVCOleControlContainer@@@Z
	DD	FLAT:?CreateControlSite@CWnd@@MAEHPAVCOleControlContainer@@PAPAVCOleControlSite@@IABU_GUID@@@Z
	DD	FLAT:?SetOccDialogInfo@CWnd@@MAEHPAU_AFX_OCC_DIALOG_INFO@@@Z
	DD	FLAT:?GetOccDialogInfo@CWnd@@MAEPAU_AFX_OCC_DIALOG_INFO@@XZ
	DD	FLAT:?Create@CButton@@UAEHPBDKABUtagRECT@@PAVCWnd@@I@Z
	DD	FLAT:?DrawItem@CExBitmapButton@@UAEXPAUtagDRAWITEMSTRUCT@@@Z
CONST	ENDS
;	COMDAT ??_R1A@?0A@EA@CButton@@8
rdata$r	SEGMENT
??_R1A@?0A@EA@CButton@@8 DD FLAT:??_R0?AVCButton@@@8	; CButton::`RTTI Base Class Descriptor at (0,-1,0,64)'
	DD	03H
	DD	00H
	DD	0ffffffffH
	DD	00H
	DD	040H
	DD	FLAT:??_R3CButton@@8
rdata$r	ENDS
;	COMDAT ??_R2CButton@@8
rdata$r	SEGMENT
??_R2CButton@@8 DD FLAT:??_R1A@?0A@EA@CButton@@8	; CButton::`RTTI Base Class Array'
	DD	FLAT:??_R1A@?0A@EA@CWnd@@8
	DD	FLAT:??_R1A@?0A@EA@CCmdTarget@@8
	DD	FLAT:??_R1A@?0A@EA@CObject@@8
rdata$r	ENDS
;	COMDAT ??_R3CButton@@8
rdata$r	SEGMENT
??_R3CButton@@8 DD 00H					; CButton::`RTTI Class Hierarchy Descriptor'
	DD	00H
	DD	04H
	DD	FLAT:??_R2CButton@@8
rdata$r	ENDS
;	COMDAT ??_R0?AVCButton@@@8
data$rs	SEGMENT
??_R0?AVCButton@@@8 DD FLAT:??_7type_info@@6B@		; CButton `RTTI Type Descriptor'
	DD	00H
	DB	'.?AVCButton@@', 00H
data$rs	ENDS
;	COMDAT ??_R2CCmdTarget@@8
rdata$r	SEGMENT
??_R2CCmdTarget@@8 DD FLAT:??_R1A@?0A@EA@CCmdTarget@@8	; CCmdTarget::`RTTI Base Class Array'
	DD	FLAT:??_R1A@?0A@EA@CObject@@8
rdata$r	ENDS
;	COMDAT ??_R3CCmdTarget@@8
rdata$r	SEGMENT
??_R3CCmdTarget@@8 DD 00H				; CCmdTarget::`RTTI Class Hierarchy Descriptor'
	DD	00H
	DD	02H
	DD	FLAT:??_R2CCmdTarget@@8
rdata$r	ENDS
;	COMDAT ??_R0?AVCCmdTarget@@@8
data$rs	SEGMENT
??_R0?AVCCmdTarget@@@8 DD FLAT:??_7type_info@@6B@	; CCmdTarget `RTTI Type Descriptor'
	DD	00H
	DB	'.?AVCCmdTarget@@', 00H
data$rs	ENDS
;	COMDAT ??_R1A@?0A@EA@CCmdTarget@@8
rdata$r	SEGMENT
??_R1A@?0A@EA@CCmdTarget@@8 DD FLAT:??_R0?AVCCmdTarget@@@8 ; CCmdTarget::`RTTI Base Class Descriptor at (0,-1,0,64)'
	DD	01H
	DD	00H
	DD	0ffffffffH
	DD	00H
	DD	040H
	DD	FLAT:??_R3CCmdTarget@@8
rdata$r	ENDS
;	COMDAT ??_R2CWnd@@8
rdata$r	SEGMENT
??_R2CWnd@@8 DD	FLAT:??_R1A@?0A@EA@CWnd@@8		; CWnd::`RTTI Base Class Array'
	DD	FLAT:??_R1A@?0A@EA@CCmdTarget@@8
	DD	FLAT:??_R1A@?0A@EA@CObject@@8
rdata$r	ENDS
;	COMDAT ??_R3CWnd@@8
rdata$r	SEGMENT
??_R3CWnd@@8 DD	00H					; CWnd::`RTTI Class Hierarchy Descriptor'
	DD	00H
	DD	03H
	DD	FLAT:??_R2CWnd@@8
rdata$r	ENDS
;	COMDAT ??_R0?AVCWnd@@@8
data$rs	SEGMENT
??_R0?AVCWnd@@@8 DD FLAT:??_7type_info@@6B@		; CWnd `RTTI Type Descriptor'
	DD	00H
	DB	'.?AVCWnd@@', 00H
data$rs	ENDS
;	COMDAT ??_R1A@?0A@EA@CWnd@@8
rdata$r	SEGMENT
??_R1A@?0A@EA@CWnd@@8 DD FLAT:??_R0?AVCWnd@@@8		; CWnd::`RTTI Base Class Descriptor at (0,-1,0,64)'
	DD	02H
	DD	00H
	DD	0ffffffffH
	DD	00H
	DD	040H
	DD	FLAT:??_R3CWnd@@8
rdata$r	ENDS
;	COMDAT ??_R1A@?0A@EA@CObject@@8
rdata$r	SEGMENT
??_R1A@?0A@EA@CObject@@8 DD FLAT:??_R0?AVCObject@@@8	; CObject::`RTTI Base Class Descriptor at (0,-1,0,64)'
	DD	00H
	DD	00H
	DD	0ffffffffH
	DD	00H
	DD	040H
	DD	FLAT:??_R3CObject@@8
rdata$r	ENDS
;	COMDAT ??_R2CObject@@8
rdata$r	SEGMENT
??_R2CObject@@8 DD FLAT:??_R1A@?0A@EA@CObject@@8	; CObject::`RTTI Base Class Array'
rdata$r	ENDS
;	COMDAT ??_R3CObject@@8
rdata$r	SEGMENT
??_R3CObject@@8 DD 00H					; CObject::`RTTI Class Hierarchy Descriptor'
	DD	00H
	DD	01H
	DD	FLAT:??_R2CObject@@8
rdata$r	ENDS
;	COMDAT ??_R0?AVCObject@@@8
data$rs	SEGMENT
??_R0?AVCObject@@@8 DD FLAT:??_7type_info@@6B@		; CObject `RTTI Type Descriptor'
	DD	00H
	DB	'.?AVCObject@@', 00H
data$rs	ENDS
;	COMDAT xdata$x
xdata$x	SEGMENT
__unwindtable$??_GCLoaderBitmapButton@@QAEPAXI@Z DD 0ffffffffH
	DD	FLAT:___std_terminate
__ehfuncinfo$??_GCLoaderBitmapButton@@QAEPAXI@Z DD 019930522H
	DD	01H
	DD	FLAT:__unwindtable$??_GCLoaderBitmapButton@@QAEPAXI@Z
	DD	2 DUP(00H)
	DD	2 DUP(00H)
	DD	00H
	DD	05H
xdata$x	ENDS
;	COMDAT xdata$x
xdata$x	SEGMENT
__ehfuncinfo$??1CLoaderBitmapButton@@QAE@XZ DD 019930522H
	DD	00H
	DD	00H
	DD	2 DUP(00H)
	DD	2 DUP(00H)
	DD	00H
	DD	05H
xdata$x	ENDS
;	COMDAT xdata$x
xdata$x	SEGMENT
__ehfuncinfo$??0CLoaderBitmapButton@@QAE@PAXPBD@Z DD 019930522H
	DD	05H
	DD	FLAT:__unwindtable$??0CLoaderBitmapButton@@QAE@PAXPBD@Z
	DD	2 DUP(00H)
	DD	2 DUP(00H)
	DD	00H
	DD	01H
__unwindtable$??0CLoaderBitmapButton@@QAE@PAXPBD@Z DD 0ffffffffH
	DD	FLAT:__unwindfunclet$??0CLoaderBitmapButton@@QAE@PAXPBD@Z$0
	DD	00H
	DD	FLAT:__unwindfunclet$??0CLoaderBitmapButton@@QAE@PAXPBD@Z$1
	DD	01H
	DD	FLAT:__unwindfunclet$??0CLoaderBitmapButton@@QAE@PAXPBD@Z$2
	DD	02H
	DD	FLAT:__unwindfunclet$??0CLoaderBitmapButton@@QAE@PAXPBD@Z$3
	DD	02H
	DD	FLAT:__unwindfunclet$??0CLoaderBitmapButton@@QAE@PAXPBD@Z$4
xdata$x	ENDS
;	COMDAT xdata$x
xdata$x	SEGMENT
__unwindtable$?GetDir_DrfnBin@@YAXAAV?$CStringT@DV?$StrTraitMFC_DLL@DV?$ChTraitsCRT@D@ATL@@@@@ATL@@@Z DD 0ffffffffH
	DD	FLAT:__unwindfunclet$?GetDir_DrfnBin@@YAXAAV?$CStringT@DV?$StrTraitMFC_DLL@DV?$ChTraitsCRT@D@ATL@@@@@ATL@@@Z$0
	DD	00H
	DD	FLAT:__unwindfunclet$?GetDir_DrfnBin@@YAXAAV?$CStringT@DV?$StrTraitMFC_DLL@DV?$ChTraitsCRT@D@ATL@@@@@ATL@@@Z$1
	DD	00H
	DD	FLAT:__unwindfunclet$?GetDir_DrfnBin@@YAXAAV?$CStringT@DV?$StrTraitMFC_DLL@DV?$ChTraitsCRT@D@ATL@@@@@ATL@@@Z$2
__ehfuncinfo$?GetDir_DrfnBin@@YAXAAV?$CStringT@DV?$StrTraitMFC_DLL@DV?$ChTraitsCRT@D@ATL@@@@@ATL@@@Z DD 019930522H
	DD	03H
	DD	FLAT:__unwindtable$?GetDir_DrfnBin@@YAXAAV?$CStringT@DV?$StrTraitMFC_DLL@DV?$ChTraitsCRT@D@ATL@@@@@ATL@@@Z
	DD	2 DUP(00H)
	DD	2 DUP(00H)
	DD	00H
	DD	01H
xdata$x	ENDS
;	COMDAT xdata$x
xdata$x	SEGMENT
__unwindtable$?GetDir_DrfnRoot@@YAXAAV?$CStringT@DV?$StrTraitMFC_DLL@DV?$ChTraitsCRT@D@ATL@@@@@ATL@@@Z DD 0ffffffffH
	DD	FLAT:__unwindfunclet$?GetDir_DrfnRoot@@YAXAAV?$CStringT@DV?$StrTraitMFC_DLL@DV?$ChTraitsCRT@D@ATL@@@@@ATL@@@Z$0
	DD	00H
	DD	FLAT:__unwindfunclet$?GetDir_DrfnRoot@@YAXAAV?$CStringT@DV?$StrTraitMFC_DLL@DV?$ChTraitsCRT@D@ATL@@@@@ATL@@@Z$1
	DD	00H
	DD	FLAT:__unwindfunclet$?GetDir_DrfnRoot@@YAXAAV?$CStringT@DV?$StrTraitMFC_DLL@DV?$ChTraitsCRT@D@ATL@@@@@ATL@@@Z$2
__ehfuncinfo$?GetDir_DrfnRoot@@YAXAAV?$CStringT@DV?$StrTraitMFC_DLL@DV?$ChTraitsCRT@D@ATL@@@@@ATL@@@Z DD 019930522H
	DD	03H
	DD	FLAT:__unwindtable$?GetDir_DrfnRoot@@YAXAAV?$CStringT@DV?$StrTraitMFC_DLL@DV?$ChTraitsCRT@D@ATL@@@@@ATL@@@Z
	DD	2 DUP(00H)
	DD	2 DUP(00H)
	DD	00H
	DD	01H
xdata$x	ENDS
;	COMDAT xdata$x
xdata$x	SEGMENT
__unwindtable$??_GCExBitmapButton@@UAEPAXI@Z DD 0ffffffffH
	DD	FLAT:___std_terminate
__ehfuncinfo$??_GCExBitmapButton@@UAEPAXI@Z DD 019930522H
	DD	01H
	DD	FLAT:__unwindtable$??_GCExBitmapButton@@UAEPAXI@Z
	DD	2 DUP(00H)
	DD	2 DUP(00H)
	DD	00H
	DD	05H
xdata$x	ENDS
;	COMDAT xdata$x
xdata$x	SEGMENT
__unwindtable$??1CExBitmapButton@@UAE@XZ DD 0ffffffffH
	DD	FLAT:___std_terminate
__ehfuncinfo$??1CExBitmapButton@@UAE@XZ DD 019930522H
	DD	01H
	DD	FLAT:__unwindtable$??1CExBitmapButton@@UAE@XZ
	DD	2 DUP(00H)
	DD	2 DUP(00H)
	DD	00H
	DD	05H
xdata$x	ENDS
;	COMDAT xdata$x
xdata$x	SEGMENT
__unwindtable$??0CExBitmapButton@@QAE@XZ DD 0ffffffffH
	DD	FLAT:__unwindfunclet$??0CExBitmapButton@@QAE@XZ$0
	DD	00H
	DD	FLAT:__unwindfunclet$??0CExBitmapButton@@QAE@XZ$1
__ehfuncinfo$??0CExBitmapButton@@QAE@XZ DD 019930522H
	DD	02H
	DD	FLAT:__unwindtable$??0CExBitmapButton@@QAE@XZ
	DD	2 DUP(00H)
	DD	2 DUP(00H)
	DD	00H
	DD	01H
xdata$x	ENDS
; Function compile flags: /Ogtp
; File D:\git\src\IBK\IBK_DRFN\ProjSrc\SrcDrfn\Chart\ExControl\Include\LoadHelper.h
;	COMDAT ?LoadProcAddress@CLoaderBitmapButton@@UAEHXZ
_TEXT	SEGMENT
?LoadProcAddress@CLoaderBitmapButton@@UAEHXZ PROC	; CLoaderBitmapButton::LoadProcAddress, COMDAT
; _this$ = ecx

; 454  : 	{

  00000	57		 push	 edi
  00001	8b f9		 mov	 edi, ecx

; 455  : 		if(!m_hLib)

  00003	8b 47 04	 mov	 eax, DWORD PTR [edi+4]
  00006	85 c0		 test	 eax, eax
  00008	75 02		 jne	 SHORT $LN2@LoadProcAd
  0000a	5f		 pop	 edi

; 467  : 	}

  0000b	c3		 ret	 0
$LN2@LoadProcAd:
  0000c	56		 push	 esi

; 456  : 		{
; 457  : 			TRACE0("CLoaderBitmapButton GetProcAddress에서 Load에러 발생");
; 458  : 			return FALSE;
; 459  : 		}
; 460  : 
; 461  : 		pActionControl	= (FpActionControl)::GetProcAddress(m_hLib, "Ex_ActionControl");

  0000d	8b 35 00 00 00
	00		 mov	 esi, DWORD PTR __imp__GetProcAddress@8
  00013	68 00 00 00 00	 push	 OFFSET ??_C@_0BB@JBDOCKKP@Ex_ActionControl@
  00018	50		 push	 eax
  00019	ff d6		 call	 esi

; 462  : 		pInitBitmapButton	= (FpInitBitmapButton)::GetProcAddress(m_hLib, "Ex_InitBitmapButton");

  0001b	68 00 00 00 00	 push	 OFFSET ??_C@_0BE@CCNLEPGC@Ex_InitBitmapButton@
  00020	ff 77 04	 push	 DWORD PTR [edi+4]
  00023	89 87 10 01 00
	00		 mov	 DWORD PTR [edi+272], eax
  00029	ff d6		 call	 esi

; 463  : 		pExitButton	= (FpExitButton)::GetProcAddress(m_hLib, "Ex_ExitButton");

  0002b	68 00 00 00 00	 push	 OFFSET ??_C@_0O@HJMOOLG@Ex_ExitButton@
  00030	ff 77 04	 push	 DWORD PTR [edi+4]
  00033	89 87 14 01 00
	00		 mov	 DWORD PTR [edi+276], eax
  00039	ff d6		 call	 esi

; 464  : 		pSetBitmapFile	= (FpSetBitmapFile)::GetProcAddress(m_hLib, "Ex_SetBitmapFile");

  0003b	68 00 00 00 00	 push	 OFFSET ??_C@_0BB@CNCIOLDC@Ex_SetBitmapFile@
  00040	ff 77 04	 push	 DWORD PTR [edi+4]
  00043	89 87 18 01 00
	00		 mov	 DWORD PTR [edi+280], eax
  00049	ff d6		 call	 esi

; 465  : 		pDrawItemBitmap		= (FpDrawItemBitmap)::GetProcAddress(m_hLib, "Ex_DrawItemBitmap");

  0004b	68 00 00 00 00	 push	 OFFSET ??_C@_0BC@JKFDPFCL@Ex_DrawItemBitmap@
  00050	ff 77 04	 push	 DWORD PTR [edi+4]
  00053	89 87 1c 01 00
	00		 mov	 DWORD PTR [edi+284], eax
  00059	ff d6		 call	 esi
  0005b	89 87 20 01 00
	00		 mov	 DWORD PTR [edi+288], eax

; 466  : 		return TRUE;

  00061	b8 01 00 00 00	 mov	 eax, 1
  00066	5e		 pop	 esi
  00067	5f		 pop	 edi

; 467  : 	}

  00068	c3		 ret	 0
?LoadProcAddress@CLoaderBitmapButton@@UAEHXZ ENDP	; CLoaderBitmapButton::LoadProcAddress
_TEXT	ENDS
; Function compile flags: /Ogtp
; File D:\git\src\IBK\IBK_DRFN\ProjSrc\SrcDrfn\Chart\ExControl\Include\LoadHelper.h
; File D:\git\src\IBK\IBK_DRFN\ProjSrc\SrcDrfn\Chart\ExControl\Include\BaseLoadHelper.h
; File D:\git\src\IBK\IBK_DRFN\ProjSrc\SrcDrfn\Chart\ExControl\Include\LoadHelper.h
; File D:\git\src\IBK\IBK_DRFN\ProjSrc\SrcDrfn\ForSite\FS_Env.h
; File D:\git\src\IBK\IBK_DRFN\ProjSrc\SrcDrfn\Chart\ExControl\Include\LoadHelper.h
; File D:\git\src\IBK\IBK_DRFN\ProjSrc\SrcDrfn\Chart\ExControl\Include\BaseLoadHelper.h
; File D:\git\src\IBK\IBK_DRFN\ProjSrc\SrcDrfn\Chart\ExControl\Include\LoadHelper.h
;	COMDAT ??0CLoaderBitmapButton@@QAE@PAXPBD@Z
_TEXT	SEGMENT
_this$GSCopy$ = -296					; size = 4
_lpPointer$GSCopy$1$ = -292				; size = 4
_szDir$ = -288						; size = 4
_err$1$ = -284						; size = 4
$T2 = -284						; size = 4
$T3 = -284						; size = 4
_this$ = -284						; size = 4
__strRoot_$4 = -280					; size = 4
_szMsg$5 = -276						; size = 260
_szBuf$6 = -272						; size = 255
__$ArrayPad$7 = -16					; size = 4
__$EHRec$ = -12						; size = 12
_lpPointer$ = 8						; size = 4
_lpszRootPath$ = 12					; size = 4
??0CLoaderBitmapButton@@QAE@PAXPBD@Z PROC		; CLoaderBitmapButton::CLoaderBitmapButton, COMDAT
; _this$ = ecx

; 416  : 	CLoaderBitmapButton(LPVOID lpPointer, LPCSTR lpszRootPath = NULL) 

  00000	55		 push	 ebp
  00001	8b ec		 mov	 ebp, esp
  00003	6a ff		 push	 -1
  00005	68 00 00 00 00	 push	 __ehhandler$??0CLoaderBitmapButton@@QAE@PAXPBD@Z
  0000a	64 a1 00 00 00
	00		 mov	 eax, DWORD PTR fs:0
  00010	50		 push	 eax
  00011	81 ec 1c 01 00
	00		 sub	 esp, 284		; 0000011cH
  00017	a1 00 00 00 00	 mov	 eax, DWORD PTR ___security_cookie
  0001c	33 c5		 xor	 eax, ebp
  0001e	89 45 f0	 mov	 DWORD PTR __$ArrayPad$7[ebp], eax
  00021	53		 push	 ebx
  00022	56		 push	 esi
  00023	57		 push	 edi
  00024	50		 push	 eax
  00025	8d 45 f4	 lea	 eax, DWORD PTR __$EHRec$[ebp]
  00028	64 a3 00 00 00
	00		 mov	 DWORD PTR fs:0, eax
  0002e	8b f1		 mov	 esi, ecx
  00030	89 b5 e4 fe ff
	ff		 mov	 DWORD PTR _this$[ebp], esi
  00036	8b 45 08	 mov	 eax, DWORD PTR _lpPointer$[ebp]
  00039	89 b5 d8 fe ff
	ff		 mov	 DWORD PTR _this$GSCopy$[ebp], esi
  0003f	89 85 dc fe ff
	ff		 mov	 DWORD PTR _lpPointer$GSCopy$1$[ebp], eax
; File D:\git\src\IBK\IBK_DRFN\ProjSrc\SrcDrfn\Chart\ExControl\Include\BaseLoadHelper.h

; 9    : 		m_hLib = NULL;

  00045	c7 46 04 00 00
	00 00		 mov	 DWORD PTR [esi+4], 0
; File D:\git\src\IBK\IBK_DRFN\ProjSrc\SrcDrfn\Chart\ExControl\Include\LoadHelper.h

; 432  : 		CString szDir;

  0004c	8d 8d e0 fe ff
	ff		 lea	 ecx, DWORD PTR _szDir$[ebp]
  00052	c7 45 fc 00 00
	00 00		 mov	 DWORD PTR __$EHRec$[ebp+8], 0
  00059	c7 06 00 00 00
	00		 mov	 DWORD PTR [esi], OFFSET ??_7CLoaderBitmapButton@@6B@
  0005f	ff 15 00 00 00
	00		 call	 DWORD PTR __imp_??0?$CStringT@DV?$StrTraitMFC_DLL@DV?$ChTraitsCRT@D@ATL@@@@@ATL@@QAE@XZ
; File D:\git\src\IBK\IBK_DRFN\ProjSrc\SrcDrfn\ForSite\FS_Env.h

; 22   : 	CString	_strRoot_;

  00065	8d 8d e8 fe ff
	ff		 lea	 ecx, DWORD PTR __strRoot_$4[ebp]
  0006b	ff 15 00 00 00
	00		 call	 DWORD PTR __imp_??0?$CStringT@DV?$StrTraitMFC_DLL@DV?$ChTraitsCRT@D@ATL@@@@@ATL@@QAE@XZ

; 15   : 	::GetModuleFileName(NULL, szBuf, 255);

  00071	68 ff 00 00 00	 push	 255			; 000000ffH
  00076	8d 85 f0 fe ff
	ff		 lea	 eax, DWORD PTR _szBuf$6[ebp]

; 22   : 	CString	_strRoot_;

  0007c	c6 45 fc 02	 mov	 BYTE PTR __$EHRec$[ebp+8], 2

; 15   : 	::GetModuleFileName(NULL, szBuf, 255);

  00080	50		 push	 eax
  00081	6a 00		 push	 0
  00083	ff 15 00 00 00
	00		 call	 DWORD PTR __imp__GetModuleFileNameA@12

; 16   : 	rString = szBuf;

  00089	8d 85 f0 fe ff
	ff		 lea	 eax, DWORD PTR _szBuf$6[ebp]
  0008f	50		 push	 eax
  00090	8d 8d e8 fe ff
	ff		 lea	 ecx, DWORD PTR __strRoot_$4[ebp]
  00096	ff 15 00 00 00
	00		 call	 DWORD PTR __imp_??4?$CStringT@DV?$StrTraitMFC_DLL@DV?$ChTraitsCRT@D@ATL@@@@@ATL@@QAEAAV01@PBD@Z

; 25   : 	int _loc_ = _strRoot_.ReverseFind('\\');

  0009c	6a 5c		 push	 92			; 0000005cH
  0009e	8d 8d e8 fe ff
	ff		 lea	 ecx, DWORD PTR __strRoot_$4[ebp]
  000a4	ff 15 00 00 00
	00		 call	 DWORD PTR __imp_?ReverseFind@?$CStringT@DV?$StrTraitMFC_DLL@DV?$ChTraitsCRT@D@ATL@@@@@ATL@@QBEHD@Z

; 26   : 	if( _loc_ > 0)

  000aa	85 c0		 test	 eax, eax
  000ac	7e 35		 jle	 SHORT $LN10@CLoaderBit

; 27   : 		_strRoot_ = _strRoot_.Left(_loc_);

  000ae	50		 push	 eax
  000af	8d 85 e4 fe ff
	ff		 lea	 eax, DWORD PTR $T3[ebp]
  000b5	50		 push	 eax
  000b6	8d 8d e8 fe ff
	ff		 lea	 ecx, DWORD PTR __strRoot_$4[ebp]
  000bc	ff 15 00 00 00
	00		 call	 DWORD PTR __imp_?Left@?$CStringT@DV?$StrTraitMFC_DLL@DV?$ChTraitsCRT@D@ATL@@@@@ATL@@QBE?AV12@H@Z
  000c2	50		 push	 eax
  000c3	8d 8d e8 fe ff
	ff		 lea	 ecx, DWORD PTR __strRoot_$4[ebp]
  000c9	c6 45 fc 03	 mov	 BYTE PTR __$EHRec$[ebp+8], 3
  000cd	ff 15 00 00 00
	00		 call	 DWORD PTR __imp_??4?$CStringT@DV?$StrTraitMFC_DLL@DV?$ChTraitsCRT@D@ATL@@@@@ATL@@QAEAAV01@ABV01@@Z
  000d3	8d 8d e4 fe ff
	ff		 lea	 ecx, DWORD PTR $T3[ebp]
  000d9	c6 45 fc 02	 mov	 BYTE PTR __$EHRec$[ebp+8], 2
  000dd	ff 15 00 00 00
	00		 call	 DWORD PTR __imp_??1?$CStringT@DV?$StrTraitMFC_DLL@DV?$ChTraitsCRT@D@ATL@@@@@ATL@@QAE@XZ
$LN10@CLoaderBit:

; 28   : 	_loc_ = _strRoot_.ReverseFind('\\');

  000e3	6a 5c		 push	 92			; 0000005cH
  000e5	8d 8d e8 fe ff
	ff		 lea	 ecx, DWORD PTR __strRoot_$4[ebp]
  000eb	ff 15 00 00 00
	00		 call	 DWORD PTR __imp_?ReverseFind@?$CStringT@DV?$StrTraitMFC_DLL@DV?$ChTraitsCRT@D@ATL@@@@@ATL@@QBEHD@Z

; 29   : 	if( _loc_ > 0)

  000f1	85 c0		 test	 eax, eax
  000f3	7e 35		 jle	 SHORT $LN11@CLoaderBit

; 30   : 		_strRoot_ = _strRoot_.Left(_loc_);

  000f5	50		 push	 eax
  000f6	8d 85 e4 fe ff
	ff		 lea	 eax, DWORD PTR $T2[ebp]
  000fc	50		 push	 eax
  000fd	8d 8d e8 fe ff
	ff		 lea	 ecx, DWORD PTR __strRoot_$4[ebp]
  00103	ff 15 00 00 00
	00		 call	 DWORD PTR __imp_?Left@?$CStringT@DV?$StrTraitMFC_DLL@DV?$ChTraitsCRT@D@ATL@@@@@ATL@@QBE?AV12@H@Z
  00109	50		 push	 eax
  0010a	8d 8d e8 fe ff
	ff		 lea	 ecx, DWORD PTR __strRoot_$4[ebp]
  00110	c6 45 fc 04	 mov	 BYTE PTR __$EHRec$[ebp+8], 4
  00114	ff 15 00 00 00
	00		 call	 DWORD PTR __imp_??4?$CStringT@DV?$StrTraitMFC_DLL@DV?$ChTraitsCRT@D@ATL@@@@@ATL@@QAEAAV01@ABV01@@Z
  0011a	8d 8d e4 fe ff
	ff		 lea	 ecx, DWORD PTR $T2[ebp]
  00120	c6 45 fc 02	 mov	 BYTE PTR __$EHRec$[ebp+8], 2
  00124	ff 15 00 00 00
	00		 call	 DWORD PTR __imp_??1?$CStringT@DV?$StrTraitMFC_DLL@DV?$ChTraitsCRT@D@ATL@@@@@ATL@@QAE@XZ
$LN11@CLoaderBit:

; 31   : 	rString = _strRoot_;

  0012a	8d 85 e8 fe ff
	ff		 lea	 eax, DWORD PTR __strRoot_$4[ebp]
  00130	50		 push	 eax
  00131	8d 8d e0 fe ff
	ff		 lea	 ecx, DWORD PTR _szDir$[ebp]
  00137	ff 15 00 00 00
	00		 call	 DWORD PTR __imp_??4?$CStringT@DV?$StrTraitMFC_DLL@DV?$ChTraitsCRT@D@ATL@@@@@ATL@@QAEAAV01@ABV01@@Z

; 32   : }

  0013d	8d 8d e8 fe ff
	ff		 lea	 ecx, DWORD PTR __strRoot_$4[ebp]
  00143	c6 45 fc 01	 mov	 BYTE PTR __$EHRec$[ebp+8], 1
  00147	ff 15 00 00 00
	00		 call	 DWORD PTR __imp_??1?$CStringT@DV?$StrTraitMFC_DLL@DV?$ChTraitsCRT@D@ATL@@@@@ATL@@QAE@XZ

; 47   : 	rString += "\\Dev";

  0014d	68 00 00 00 00	 push	 OFFSET ??_C@_04OHDBDCPJ@?2Dev@
  00152	8d 8d e0 fe ff
	ff		 lea	 ecx, DWORD PTR _szDir$[ebp]
  00158	ff 15 00 00 00
	00		 call	 DWORD PTR __imp_??Y?$CStringT@DV?$StrTraitMFC_DLL@DV?$ChTraitsCRT@D@ATL@@@@@ATL@@QAEAAV01@PBD@Z
; File D:\git\src\IBK\IBK_DRFN\ProjSrc\SrcDrfn\Chart\ExControl\Include\LoadHelper.h

; 434  : 		::sprintf(m_szDllName, "%s\\%s", (LPCSTR)szDir, BUTTON_DLL);

  0015e	68 00 00 00 00	 push	 OFFSET ??_C@_0N@GEEODKHG@ExButton?4dll@
  00163	ff b5 e0 fe ff
	ff		 push	 DWORD PTR _szDir$[ebp]
  00169	8d 7e 08	 lea	 edi, DWORD PTR [esi+8]
  0016c	68 00 00 00 00	 push	 OFFSET ??_C@_05BMGBEOOC@?$CFs?2?$CFs@
  00171	57		 push	 edi
  00172	e8 00 00 00 00	 call	 _sprintf
  00177	83 c4 10	 add	 esp, 16			; 00000010H

; 435  : 		//<--Solomon-090829수정. 
; 436  : 
; 437  : 		pActionControl = NULL;

  0017a	c7 86 10 01 00
	00 00 00 00 00	 mov	 DWORD PTR [esi+272], 0

; 438  : 		pExitButton = NULL;

  00184	c7 86 18 01 00
	00 00 00 00 00	 mov	 DWORD PTR [esi+280], 0

; 439  : 		pSetBitmapFile = NULL;

  0018e	c7 86 1c 01 00
	00 00 00 00 00	 mov	 DWORD PTR [esi+284], 0

; 440  : 		pDrawItemBitmap = NULL;

  00198	c7 86 20 01 00
	00 00 00 00 00	 mov	 DWORD PTR [esi+288], 0
; File D:\git\src\IBK\IBK_DRFN\ProjSrc\SrcDrfn\Chart\ExControl\Include\BaseLoadHelper.h

; 26   : 		hLib = ::LoadLibrary(m_szDllName);

  001a2	57		 push	 edi
  001a3	ff 15 00 00 00
	00		 call	 DWORD PTR __imp__LoadLibraryA@4
  001a9	8b d8		 mov	 ebx, eax

; 27   : 
; 28   : 		DWORD err = GetLastError();

  001ab	ff 15 00 00 00
	00		 call	 DWORD PTR __imp__GetLastError@0
  001b1	89 85 e4 fe ff
	ff		 mov	 DWORD PTR _err$1$[ebp], eax

; 29   : 
; 30   : 		if(!hLib) 

  001b7	85 db		 test	 ebx, ebx
  001b9	75 3d		 jne	 SHORT $LN21@CLoaderBit

; 31   : 		{
; 32   : 			char szMsg[MAX_PATH] = {0, };

  001bb	68 04 01 00 00	 push	 260			; 00000104H
  001c0	8d 85 ec fe ff
	ff		 lea	 eax, DWORD PTR _szMsg$5[ebp]
  001c6	53		 push	 ebx
  001c7	50		 push	 eax
  001c8	e8 00 00 00 00	 call	 _memset

; 33   : 			::sprintf(szMsg, "DLL[%s]을 Load할 수 없습니다. [%d]", m_szDllName, err);

  001cd	ff b5 e4 fe ff
	ff		 push	 DWORD PTR _err$1$[ebp]
  001d3	8d 85 ec fe ff
	ff		 lea	 eax, DWORD PTR _szMsg$5[ebp]
  001d9	57		 push	 edi
  001da	68 00 00 00 00	 push	 OFFSET ??_C@_0CD@INEDAMEN@DLL?$FL?$CFs?$FN?$MA?$LL?5Load?G?R?5?$LM?v?5?$LO?x?$LN?$MA?$LE?O?$LE?Y?4?5?$FL@
  001df	50		 push	 eax
  001e0	e8 00 00 00 00	 call	 _sprintf
  001e5	83 c4 1c	 add	 esp, 28			; 0000001cH

; 34   : 			AfxMessageBox(szMsg);

  001e8	8d 85 ec fe ff
	ff		 lea	 eax, DWORD PTR _szMsg$5[ebp]
  001ee	53		 push	 ebx
  001ef	53		 push	 ebx
  001f0	50		 push	 eax
  001f1	e8 00 00 00 00	 call	 ?AfxMessageBox@@YGHPBDII@Z ; AfxMessageBox

; 35   : 
; 36   : 			return NULL;

  001f6	eb 32		 jmp	 SHORT $LN29@CLoaderBit
$LN21@CLoaderBit:

; 37   : 		}
; 38   : 
; 39   : 		m_hLib = hLib;
; 40   : 
; 41   : 		if(!LoadProcAddress()) 

  001f8	8b 06		 mov	 eax, DWORD PTR [esi]
  001fa	8b ce		 mov	 ecx, esi
  001fc	89 5e 04	 mov	 DWORD PTR [esi+4], ebx
  001ff	8b 00		 mov	 eax, DWORD PTR [eax]
  00201	3d 00 00 00 00	 cmp	 eax, OFFSET ?LoadProcAddress@CLoaderBitmapButton@@UAEHXZ ; CLoaderBitmapButton::LoadProcAddress
  00206	75 07		 jne	 SHORT $LN25@CLoaderBit
  00208	e8 00 00 00 00	 call	 ?LoadProcAddress@CLoaderBitmapButton@@UAEHXZ ; CLoaderBitmapButton::LoadProcAddress
  0020d	eb 02		 jmp	 SHORT $LN24@CLoaderBit
$LN25@CLoaderBit:
  0020f	ff d0		 call	 eax
$LN24@CLoaderBit:
  00211	85 c0		 test	 eax, eax
  00213	75 15		 jne	 SHORT $LN29@CLoaderBit

; 53   : 		if(!m_hLib)

  00215	8b 46 04	 mov	 eax, DWORD PTR [esi+4]
  00218	85 c0		 test	 eax, eax
  0021a	74 0e		 je	 SHORT $LN29@CLoaderBit

; 54   : 			return TRUE;
; 55   : 
; 56   : 		BOOL bResult = ::FreeLibrary(m_hLib);

  0021c	50		 push	 eax
  0021d	ff 15 00 00 00
	00		 call	 DWORD PTR __imp__FreeLibrary@4

; 57   : 		
; 58   : 		m_hLib = NULL;

  00223	c7 46 04 00 00
	00 00		 mov	 DWORD PTR [esi+4], 0
$LN29@CLoaderBit:
; File D:\git\src\IBK\IBK_DRFN\ProjSrc\SrcDrfn\Chart\ExControl\Include\LoadHelper.h

; 444  : 		m_lpPointer = pInitBitmapButton(lpPointer);

  0022a	ff b5 dc fe ff
	ff		 push	 DWORD PTR _lpPointer$GSCopy$1$[ebp]
  00230	8b 8e 14 01 00
	00		 mov	 ecx, DWORD PTR [esi+276]
  00236	ff d1		 call	 ecx
  00238	83 c4 04	 add	 esp, 4
  0023b	89 86 0c 01 00
	00		 mov	 DWORD PTR [esi+268], eax

; 445  : 	}

  00241	8d 8d e0 fe ff
	ff		 lea	 ecx, DWORD PTR _szDir$[ebp]
  00247	ff 15 00 00 00
	00		 call	 DWORD PTR __imp_??1?$CStringT@DV?$StrTraitMFC_DLL@DV?$ChTraitsCRT@D@ATL@@@@@ATL@@QAE@XZ
  0024d	8b c6		 mov	 eax, esi
  0024f	8b 4d f4	 mov	 ecx, DWORD PTR __$EHRec$[ebp]
  00252	64 89 0d 00 00
	00 00		 mov	 DWORD PTR fs:0, ecx
  00259	59		 pop	 ecx
  0025a	5f		 pop	 edi
  0025b	5e		 pop	 esi
  0025c	5b		 pop	 ebx
  0025d	8b 4d f0	 mov	 ecx, DWORD PTR __$ArrayPad$7[ebp]
  00260	33 cd		 xor	 ecx, ebp
  00262	e8 00 00 00 00	 call	 @__security_check_cookie@4
  00267	8b e5		 mov	 esp, ebp
  00269	5d		 pop	 ebp
  0026a	c2 08 00	 ret	 8
_TEXT	ENDS
;	COMDAT text$x
text$x	SEGMENT
__unwindfunclet$??0CLoaderBitmapButton@@QAE@PAXPBD@Z$0:
  00000	8b 8d d8 fe ff
	ff		 mov	 ecx, DWORD PTR _this$GSCopy$[ebp]
  00006	e9 00 00 00 00	 jmp	 ??1CExLoadLib@@QAE@XZ	; CExLoadLib::~CExLoadLib
__unwindfunclet$??0CLoaderBitmapButton@@QAE@PAXPBD@Z$1:
  0000b	8d 8d e0 fe ff
	ff		 lea	 ecx, DWORD PTR _szDir$[ebp]
  00011	ff 25 00 00 00
	00		 jmp	 DWORD PTR __imp_??1?$CStringT@DV?$StrTraitMFC_DLL@DV?$ChTraitsCRT@D@ATL@@@@@ATL@@QAE@XZ
__unwindfunclet$??0CLoaderBitmapButton@@QAE@PAXPBD@Z$2:
  00017	8d 8d e8 fe ff
	ff		 lea	 ecx, DWORD PTR __strRoot_$4[ebp]
  0001d	ff 25 00 00 00
	00		 jmp	 DWORD PTR __imp_??1?$CStringT@DV?$StrTraitMFC_DLL@DV?$ChTraitsCRT@D@ATL@@@@@ATL@@QAE@XZ
__unwindfunclet$??0CLoaderBitmapButton@@QAE@PAXPBD@Z$3:
  00023	8d 8d e4 fe ff
	ff		 lea	 ecx, DWORD PTR $T3[ebp]
  00029	ff 25 00 00 00
	00		 jmp	 DWORD PTR __imp_??1?$CStringT@DV?$StrTraitMFC_DLL@DV?$ChTraitsCRT@D@ATL@@@@@ATL@@QAE@XZ
__unwindfunclet$??0CLoaderBitmapButton@@QAE@PAXPBD@Z$4:
  0002f	8d 8d e4 fe ff
	ff		 lea	 ecx, DWORD PTR $T2[ebp]
  00035	ff 25 00 00 00
	00		 jmp	 DWORD PTR __imp_??1?$CStringT@DV?$StrTraitMFC_DLL@DV?$ChTraitsCRT@D@ATL@@@@@ATL@@QAE@XZ
  0003b	cc		 int	 3
  0003c	cc		 int	 3
  0003d	cc		 int	 3
  0003e	cc		 int	 3
  0003f	cc		 int	 3
__ehhandler$??0CLoaderBitmapButton@@QAE@PAXPBD@Z:
  00040	90		 npad	 1
  00041	90		 npad	 1
  00042	8b 54 24 08	 mov	 edx, DWORD PTR [esp+8]
  00046	8d 42 0c	 lea	 eax, DWORD PTR [edx+12]
  00049	8b 8a d4 fe ff
	ff		 mov	 ecx, DWORD PTR [edx-300]
  0004f	33 c8		 xor	 ecx, eax
  00051	e8 00 00 00 00	 call	 @__security_check_cookie@4
  00056	8b 4a fc	 mov	 ecx, DWORD PTR [edx-4]
  00059	33 c8		 xor	 ecx, eax
  0005b	e8 00 00 00 00	 call	 @__security_check_cookie@4
  00060	b8 00 00 00 00	 mov	 eax, OFFSET __ehfuncinfo$??0CLoaderBitmapButton@@QAE@PAXPBD@Z
  00065	e9 00 00 00 00	 jmp	 ___CxxFrameHandler3
text$x	ENDS
??0CLoaderBitmapButton@@QAE@PAXPBD@Z ENDP		; CLoaderBitmapButton::CLoaderBitmapButton
; Function compile flags: /Ogtp
; File D:\git\src\IBK\IBK_DRFN\ProjSrc\SrcDrfn\Chart\ExControl\Include\BaseLoadHelper.h
;	COMDAT ?LoadProcAddress@CExLoadLib@@UAEHXZ
_TEXT	SEGMENT
?LoadProcAddress@CExLoadLib@@UAEHXZ PROC		; CExLoadLib::LoadProcAddress, COMDAT
; _this$ = ecx

; 19   : 		ASSERT(FALSE); 
; 20   : 		return FALSE;

  00000	33 c0		 xor	 eax, eax

; 21   : 	}

  00002	c3		 ret	 0
?LoadProcAddress@CExLoadLib@@UAEHXZ ENDP		; CExLoadLib::LoadProcAddress
_TEXT	ENDS
; Function compile flags: /Ogtp
; File D:\git\src\IBK\IBK_DRFN\ProjSrc\SrcDrfn\Chart\ExControl\Include\BaseLoadHelper.h
;	COMDAT ??1CExLoadLib@@QAE@XZ
_TEXT	SEGMENT
??1CExLoadLib@@QAE@XZ PROC				; CExLoadLib::~CExLoadLib, COMDAT
; _this$ = ecx

; 13   : 	{

  00000	56		 push	 esi
  00001	8b f1		 mov	 esi, ecx

; 53   : 		if(!m_hLib)

  00003	8b 46 04	 mov	 eax, DWORD PTR [esi+4]

; 13   : 	{

  00006	c7 06 00 00 00
	00		 mov	 DWORD PTR [esi], OFFSET ??_7CExLoadLib@@6B@

; 53   : 		if(!m_hLib)

  0000c	85 c0		 test	 eax, eax
  0000e	74 0e		 je	 SHORT $LN3@CExLoadLib

; 54   : 			return TRUE;
; 55   : 
; 56   : 		BOOL bResult = ::FreeLibrary(m_hLib);

  00010	50		 push	 eax
  00011	ff 15 00 00 00
	00		 call	 DWORD PTR __imp__FreeLibrary@4

; 57   : 		
; 58   : 		m_hLib = NULL;

  00017	c7 46 04 00 00
	00 00		 mov	 DWORD PTR [esi+4], 0
$LN3@CExLoadLib:
  0001e	5e		 pop	 esi

; 14   : 		UnLoadLib();
; 15   : 	}

  0001f	c3		 ret	 0
??1CExLoadLib@@QAE@XZ ENDP				; CExLoadLib::~CExLoadLib
_TEXT	ENDS
; Function compile flags: /Ogtp
; File D:\git\src\IBK\IBK_DRFN\ProjSrc\SrcDrfn\Chart\ExControl\ExBitmapButton.cpp
; File D:\git\src\IBK\IBK_DRFN\ProjSrc\SrcDrfn\Chart\ExControl\Include\LoadHelper.h
; File D:\git\src\IBK\IBK_DRFN\ProjSrc\SrcDrfn\Chart\ExControl\Include\BaseLoadHelper.h
; File D:\git\src\IBK\IBK_DRFN\ProjSrc\SrcDrfn\Chart\ExControl\ExBitmapButton.cpp
; File C:\Program Files (x86)\Microsoft Visual Studio\2019\Community\VC\Tools\MSVC\14.29.30133\atlmfc\include\afx.inl
;	COMDAT ??_GCExBitmapButton@@UAEPAXI@Z
_TEXT	SEGMENT
__$EHRec$ = -12						; size = 12
___flags$ = 8						; size = 4
??_GCExBitmapButton@@UAEPAXI@Z PROC			; CExBitmapButton::`scalar deleting destructor', COMDAT
; _this$ = ecx
  00000	55		 push	 ebp
  00001	8b ec		 mov	 ebp, esp
  00003	6a ff		 push	 -1
  00005	68 00 00 00 00	 push	 __ehhandler$??_GCExBitmapButton@@UAEPAXI@Z
  0000a	64 a1 00 00 00
	00		 mov	 eax, DWORD PTR fs:0
  00010	50		 push	 eax
  00011	56		 push	 esi
  00012	57		 push	 edi
  00013	a1 00 00 00 00	 mov	 eax, DWORD PTR ___security_cookie
  00018	33 c5		 xor	 eax, ebp
  0001a	50		 push	 eax
  0001b	8d 45 f4	 lea	 eax, DWORD PTR __$EHRec$[ebp]
  0001e	64 a3 00 00 00
	00		 mov	 DWORD PTR fs:0, eax
  00024	8b f1		 mov	 esi, ecx
; File D:\git\src\IBK\IBK_DRFN\ProjSrc\SrcDrfn\Chart\ExControl\ExBitmapButton.cpp

; 24   : 	delete m_pLoader;

  00026	8b be 88 00 00
	00		 mov	 edi, DWORD PTR [esi+136]
  0002c	c7 06 00 00 00
	00		 mov	 DWORD PTR [esi], OFFSET ??_7CExBitmapButton@@6B@
  00032	85 ff		 test	 edi, edi
  00034	74 4e		 je	 SHORT $LN13@scalar
; File D:\git\src\IBK\IBK_DRFN\ProjSrc\SrcDrfn\Chart\ExControl\Include\LoadHelper.h

; 449  : 		if(m_hLib)

  00036	8b 47 04	 mov	 eax, DWORD PTR [edi+4]
  00039	c7 45 fc 00 00
	00 00		 mov	 DWORD PTR __$EHRec$[ebp+8], 0
  00040	c7 07 00 00 00
	00		 mov	 DWORD PTR [edi], OFFSET ??_7CLoaderBitmapButton@@6B@
  00046	85 c0		 test	 eax, eax
  00048	74 14		 je	 SHORT $LN16@scalar

; 450  : 			pExitButton(m_lpPointer);

  0004a	ff b7 0c 01 00
	00		 push	 DWORD PTR [edi+268]
  00050	8b 87 18 01 00
	00		 mov	 eax, DWORD PTR [edi+280]
  00056	ff d0		 call	 eax
  00058	8b 47 04	 mov	 eax, DWORD PTR [edi+4]
  0005b	83 c4 04	 add	 esp, 4
$LN16@scalar:
; File D:\git\src\IBK\IBK_DRFN\ProjSrc\SrcDrfn\Chart\ExControl\Include\BaseLoadHelper.h

; 13   : 	{

  0005e	c7 07 00 00 00
	00		 mov	 DWORD PTR [edi], OFFSET ??_7CExLoadLib@@6B@

; 53   : 		if(!m_hLib)

  00064	85 c0		 test	 eax, eax
  00066	74 0e		 je	 SHORT $LN21@scalar

; 54   : 			return TRUE;
; 55   : 
; 56   : 		BOOL bResult = ::FreeLibrary(m_hLib);

  00068	50		 push	 eax
  00069	ff 15 00 00 00
	00		 call	 DWORD PTR __imp__FreeLibrary@4

; 57   : 		
; 58   : 		m_hLib = NULL;

  0006f	c7 47 04 00 00
	00 00		 mov	 DWORD PTR [edi+4], 0
$LN21@scalar:
  00076	68 24 01 00 00	 push	 292			; 00000124H
  0007b	57		 push	 edi
  0007c	e8 00 00 00 00	 call	 ??3@YAXPAXI@Z		; operator delete
  00081	83 c4 08	 add	 esp, 8
$LN13@scalar:
; File D:\git\src\IBK\IBK_DRFN\ProjSrc\SrcDrfn\Chart\ExControl\ExBitmapButton.cpp

; 25   : }

  00084	8b ce		 mov	 ecx, esi
  00086	e8 00 00 00 00	 call	 ??1CExButton@@UAE@XZ	; CExButton::~CExButton
  0008b	8b 45 08	 mov	 eax, DWORD PTR ___flags$[ebp]
  0008e	a8 01		 test	 al, 1
  00090	74 1d		 je	 SHORT $LN26@scalar
  00092	a8 04		 test	 al, 4
  00094	75 0b		 jne	 SHORT $LN3@scalar
; File C:\Program Files (x86)\Microsoft Visual Studio\2019\Community\VC\Tools\MSVC\14.29.30133\atlmfc\include\afx.inl

; 112  : 	{ ::operator delete(p); }

  00096	56		 push	 esi
  00097	e8 00 00 00 00	 call	 ??3@YAXPAX@Z		; operator delete
  0009c	83 c4 04	 add	 esp, 4
  0009f	eb 0e		 jmp	 SHORT $LN26@scalar
$LN3@scalar:
  000a1	68 90 00 00 00	 push	 144			; 00000090H
  000a6	56		 push	 esi
  000a7	e8 00 00 00 00	 call	 ?__global_delete@@YAXPAXI@Z ; __global_delete
  000ac	83 c4 08	 add	 esp, 8
$LN26@scalar:
  000af	8b c6		 mov	 eax, esi
  000b1	8b 4d f4	 mov	 ecx, DWORD PTR __$EHRec$[ebp]
  000b4	64 89 0d 00 00
	00 00		 mov	 DWORD PTR fs:0, ecx
  000bb	59		 pop	 ecx
  000bc	5f		 pop	 edi
  000bd	5e		 pop	 esi
  000be	8b e5		 mov	 esp, ebp
  000c0	5d		 pop	 ebp
  000c1	c2 04 00	 ret	 4
  000c4	cc		 int	 3
  000c5	cc		 int	 3
  000c6	cc		 int	 3
  000c7	cc		 int	 3
  000c8	cc		 int	 3
_TEXT	ENDS
;	COMDAT text$x
text$x	SEGMENT
__ehhandler$??_GCExBitmapButton@@UAEPAXI@Z:
  00000	90		 npad	 1
  00001	90		 npad	 1
  00002	8b 54 24 08	 mov	 edx, DWORD PTR [esp+8]
  00006	8d 42 0c	 lea	 eax, DWORD PTR [edx+12]
  00009	8b 4a f4	 mov	 ecx, DWORD PTR [edx-12]
  0000c	33 c8		 xor	 ecx, eax
  0000e	e8 00 00 00 00	 call	 @__security_check_cookie@4
  00013	b8 00 00 00 00	 mov	 eax, OFFSET __ehfuncinfo$??_GCExBitmapButton@@UAEPAXI@Z
  00018	e9 00 00 00 00	 jmp	 ___CxxFrameHandler3
text$x	ENDS
??_GCExBitmapButton@@UAEPAXI@Z ENDP			; CExBitmapButton::`scalar deleting destructor'
; Function compile flags: /Ogtp
; File D:\git\src\IBK\IBK_DRFN\ProjSrc\SrcDrfn\Chart\ExControl\ExBitmapButton.cpp
;	COMDAT ?GetMessageMap@CExBitmapButton@@MBEPBUAFX_MSGMAP@@XZ
_TEXT	SEGMENT
?GetMessageMap@CExBitmapButton@@MBEPBUAFX_MSGMAP@@XZ PROC ; CExBitmapButton::GetMessageMap, COMDAT
; _this$ = ecx

; 28   : BEGIN_MESSAGE_MAP(CExBitmapButton, CExButton)

  00000	b8 00 00 00 00	 mov	 eax, OFFSET ?messageMap@?1??GetThisMessageMap@CExBitmapButton@@KGPBUAFX_MSGMAP@@XZ@4U3@B
  00005	c3		 ret	 0
?GetMessageMap@CExBitmapButton@@MBEPBUAFX_MSGMAP@@XZ ENDP ; CExBitmapButton::GetMessageMap
_TEXT	ENDS
; Function compile flags: /Ogtp
; File D:\git\src\IBK\IBK_DRFN\ProjSrc\SrcDrfn\Chart\ExControl\ExBitmapButton.cpp
;	COMDAT ?GetThisMessageMap@CExBitmapButton@@KGPBUAFX_MSGMAP@@XZ
_TEXT	SEGMENT
?GetThisMessageMap@CExBitmapButton@@KGPBUAFX_MSGMAP@@XZ PROC ; CExBitmapButton::GetThisMessageMap, COMDAT

; 29   : 	//{{AFX_MSG_MAP(CExBitmapButton)
; 30   : 		// NOTE - the ClassWizard will add and remove mapping macros here.
; 31   : 	//}}AFX_MSG_MAP
; 32   : END_MESSAGE_MAP()

  00000	b8 00 00 00 00	 mov	 eax, OFFSET ?messageMap@?1??GetThisMessageMap@CExBitmapButton@@KGPBUAFX_MSGMAP@@XZ@4U3@B
  00005	c3		 ret	 0
?GetThisMessageMap@CExBitmapButton@@KGPBUAFX_MSGMAP@@XZ ENDP ; CExBitmapButton::GetThisMessageMap
_TEXT	ENDS
; Function compile flags: /Ogtp
; File D:\git\src\IBK\IBK_DRFN\ProjSrc\SrcDrfn\Chart\ExControl\ExBitmapButton.cpp
; File D:\git\src\IBK\IBK_DRFN\ProjSrc\SrcDrfn\Chart\ExControl\Include\LoadHelper.h
; File D:\git\src\IBK\IBK_DRFN\ProjSrc\SrcDrfn\Chart\ExControl\Include\BaseLoadHelper.h
; File D:\git\src\IBK\IBK_DRFN\ProjSrc\SrcDrfn\Chart\ExControl\ExBitmapButton.cpp
;	COMDAT ??1CExBitmapButton@@UAE@XZ
_TEXT	SEGMENT
__$EHRec$ = -12						; size = 12
??1CExBitmapButton@@UAE@XZ PROC				; CExBitmapButton::~CExBitmapButton, COMDAT
; _this$ = ecx

; 23   : {

  00000	55		 push	 ebp
  00001	8b ec		 mov	 ebp, esp
  00003	6a ff		 push	 -1
  00005	68 00 00 00 00	 push	 __ehhandler$??1CExBitmapButton@@UAE@XZ
  0000a	64 a1 00 00 00
	00		 mov	 eax, DWORD PTR fs:0
  00010	50		 push	 eax
  00011	56		 push	 esi
  00012	57		 push	 edi
  00013	a1 00 00 00 00	 mov	 eax, DWORD PTR ___security_cookie
  00018	33 c5		 xor	 eax, ebp
  0001a	50		 push	 eax
  0001b	8d 45 f4	 lea	 eax, DWORD PTR __$EHRec$[ebp]
  0001e	64 a3 00 00 00
	00		 mov	 DWORD PTR fs:0, eax
  00024	8b f9		 mov	 edi, ecx

; 24   : 	delete m_pLoader;

  00026	8b b7 88 00 00
	00		 mov	 esi, DWORD PTR [edi+136]
  0002c	c7 07 00 00 00
	00		 mov	 DWORD PTR [edi], OFFSET ??_7CExBitmapButton@@6B@
  00032	85 f6		 test	 esi, esi
  00034	74 4e		 je	 SHORT $LN6@CExBitmapB
; File D:\git\src\IBK\IBK_DRFN\ProjSrc\SrcDrfn\Chart\ExControl\Include\LoadHelper.h

; 449  : 		if(m_hLib)

  00036	8b 46 04	 mov	 eax, DWORD PTR [esi+4]
  00039	c7 45 fc 00 00
	00 00		 mov	 DWORD PTR __$EHRec$[ebp+8], 0
  00040	c7 06 00 00 00
	00		 mov	 DWORD PTR [esi], OFFSET ??_7CLoaderBitmapButton@@6B@
  00046	85 c0		 test	 eax, eax
  00048	74 14		 je	 SHORT $LN9@CExBitmapB

; 450  : 			pExitButton(m_lpPointer);

  0004a	ff b6 0c 01 00
	00		 push	 DWORD PTR [esi+268]
  00050	8b 86 18 01 00
	00		 mov	 eax, DWORD PTR [esi+280]
  00056	ff d0		 call	 eax
  00058	8b 46 04	 mov	 eax, DWORD PTR [esi+4]
  0005b	83 c4 04	 add	 esp, 4
$LN9@CExBitmapB:
; File D:\git\src\IBK\IBK_DRFN\ProjSrc\SrcDrfn\Chart\ExControl\Include\BaseLoadHelper.h

; 13   : 	{

  0005e	c7 06 00 00 00
	00		 mov	 DWORD PTR [esi], OFFSET ??_7CExLoadLib@@6B@

; 53   : 		if(!m_hLib)

  00064	85 c0		 test	 eax, eax
  00066	74 0e		 je	 SHORT $LN14@CExBitmapB

; 54   : 			return TRUE;
; 55   : 
; 56   : 		BOOL bResult = ::FreeLibrary(m_hLib);

  00068	50		 push	 eax
  00069	ff 15 00 00 00
	00		 call	 DWORD PTR __imp__FreeLibrary@4

; 57   : 		
; 58   : 		m_hLib = NULL;

  0006f	c7 46 04 00 00
	00 00		 mov	 DWORD PTR [esi+4], 0
$LN14@CExBitmapB:
  00076	68 24 01 00 00	 push	 292			; 00000124H
  0007b	56		 push	 esi
  0007c	e8 00 00 00 00	 call	 ??3@YAXPAXI@Z		; operator delete
  00081	83 c4 08	 add	 esp, 8
$LN6@CExBitmapB:
; File D:\git\src\IBK\IBK_DRFN\ProjSrc\SrcDrfn\Chart\ExControl\ExBitmapButton.cpp

; 25   : }

  00084	8b cf		 mov	 ecx, edi
  00086	e8 00 00 00 00	 call	 ??1CExButton@@UAE@XZ	; CExButton::~CExButton
  0008b	8b 4d f4	 mov	 ecx, DWORD PTR __$EHRec$[ebp]
  0008e	64 89 0d 00 00
	00 00		 mov	 DWORD PTR fs:0, ecx
  00095	59		 pop	 ecx
  00096	5f		 pop	 edi
  00097	5e		 pop	 esi
  00098	8b e5		 mov	 esp, ebp
  0009a	5d		 pop	 ebp
  0009b	c3		 ret	 0
  0009c	cc		 int	 3
  0009d	cc		 int	 3
  0009e	cc		 int	 3
  0009f	cc		 int	 3
  000a0	cc		 int	 3
_TEXT	ENDS
;	COMDAT text$x
text$x	SEGMENT
__ehhandler$??1CExBitmapButton@@UAE@XZ:
  00000	90		 npad	 1
  00001	90		 npad	 1
  00002	8b 54 24 08	 mov	 edx, DWORD PTR [esp+8]
  00006	8d 42 0c	 lea	 eax, DWORD PTR [edx+12]
  00009	8b 4a f4	 mov	 ecx, DWORD PTR [edx-12]
  0000c	33 c8		 xor	 ecx, eax
  0000e	e8 00 00 00 00	 call	 @__security_check_cookie@4
  00013	b8 00 00 00 00	 mov	 eax, OFFSET __ehfuncinfo$??1CExBitmapButton@@UAE@XZ
  00018	e9 00 00 00 00	 jmp	 ___CxxFrameHandler3
text$x	ENDS
??1CExBitmapButton@@UAE@XZ ENDP				; CExBitmapButton::~CExBitmapButton
; Function compile flags: /Ogtp
; File D:\git\src\IBK\IBK_DRFN\ProjSrc\SrcDrfn\Chart\ExControl\ExBitmapButton.cpp
; File D:\git\src\IBK\IBK_DRFN\ProjSrc\SrcDrfn\Chart\ExControl\Include\LoadHelper.h
; File D:\git\src\IBK\IBK_DRFN\ProjSrc\SrcDrfn\Chart\ExControl\ExBitmapButton.cpp
;	COMDAT ?DrawItem@CExBitmapButton@@UAEXPAUtagDRAWITEMSTRUCT@@@Z
_TEXT	SEGMENT
_lpDrawItemStruct$ = 8					; size = 4
?DrawItem@CExBitmapButton@@UAEXPAUtagDRAWITEMSTRUCT@@@Z PROC ; CExBitmapButton::DrawItem, COMDAT
; _this$ = ecx

; 47   : {

  00000	55		 push	 ebp
  00001	8b ec		 mov	 ebp, esp

; 48   : 	m_pLoader->DrawItem(lpDrawItemStruct);

  00003	8b 81 88 00 00
	00		 mov	 eax, DWORD PTR [ecx+136]
; File D:\git\src\IBK\IBK_DRFN\ProjSrc\SrcDrfn\Chart\ExControl\Include\LoadHelper.h

; 499  : 		if(!m_hLib)

  00009	83 78 04 00	 cmp	 DWORD PTR [eax+4], 0
  0000d	74 14		 je	 SHORT $LN3@DrawItem

; 500  : 			return;
; 501  : 
; 502  : 		pDrawItemBitmap(m_lpPointer, lpDrawItemStruct);

  0000f	ff 75 08	 push	 DWORD PTR _lpDrawItemStruct$[ebp]
  00012	ff b0 0c 01 00
	00		 push	 DWORD PTR [eax+268]
  00018	8b 80 20 01 00
	00		 mov	 eax, DWORD PTR [eax+288]
  0001e	ff d0		 call	 eax
  00020	83 c4 08	 add	 esp, 8
$LN3@DrawItem:
; File D:\git\src\IBK\IBK_DRFN\ProjSrc\SrcDrfn\Chart\ExControl\ExBitmapButton.cpp

; 49   : }

  00023	5d		 pop	 ebp
  00024	c2 04 00	 ret	 4
?DrawItem@CExBitmapButton@@UAEXPAUtagDRAWITEMSTRUCT@@@Z ENDP ; CExBitmapButton::DrawItem
_TEXT	ENDS
; Function compile flags: /Ogtp
; File D:\git\src\IBK\IBK_DRFN\ProjSrc\SrcDrfn\Chart\ExControl\ExBitmapButton.cpp
; File D:\git\src\IBK\IBK_DRFN\ProjSrc\SrcDrfn\Chart\ExControl\Include\LoadHelper.h
; File D:\git\src\IBK\IBK_DRFN\ProjSrc\SrcDrfn\Chart\ExControl\ExBitmapButton.cpp
; File D:\git\src\IBK\IBK_DRFN\ProjSrc\SrcDrfn\Chart\ExControl\Include\LoadHelper.h
; File D:\git\src\IBK\IBK_DRFN\ProjSrc\SrcDrfn\Chart\ExControl\ExBitmapButton.cpp
;	COMDAT ?SetBitmapFile@CExBitmapButton@@QAEHPBD00@Z
_TEXT	SEGMENT
_lpszUp$ = 8						; size = 4
_lpszDown$ = 12						; size = 4
_lpszDis$ = 16						; size = 4
?SetBitmapFile@CExBitmapButton@@QAEHPBD00@Z PROC	; CExBitmapButton::SetBitmapFile, COMDAT
; _this$ = ecx

; 42   : {

  00000	55		 push	 ebp
  00001	8b ec		 mov	 ebp, esp

; 43   : 	return m_pLoader->SetBitmapFile(lpszUp, lpszDown, lpszDis);

  00003	8b 81 88 00 00
	00		 mov	 eax, DWORD PTR [ecx+136]
; File D:\git\src\IBK\IBK_DRFN\ProjSrc\SrcDrfn\Chart\ExControl\Include\LoadHelper.h

; 491  : 		if(!m_hLib)

  00009	83 78 04 00	 cmp	 DWORD PTR [eax+4], 0
  0000d	75 06		 jne	 SHORT $LN4@SetBitmapF
; File D:\git\src\IBK\IBK_DRFN\ProjSrc\SrcDrfn\Chart\ExControl\ExBitmapButton.cpp

; 43   : 	return m_pLoader->SetBitmapFile(lpszUp, lpszDown, lpszDis);

  0000f	33 c0		 xor	 eax, eax

; 44   : }

  00011	5d		 pop	 ebp
  00012	c2 0c 00	 ret	 12			; 0000000cH
$LN4@SetBitmapF:
; File D:\git\src\IBK\IBK_DRFN\ProjSrc\SrcDrfn\Chart\ExControl\Include\LoadHelper.h

; 494  : 		return pSetBitmapFile(m_lpPointer, lpszUp, lpszDown, lpszDis);

  00015	ff 75 10	 push	 DWORD PTR _lpszDis$[ebp]
  00018	ff 75 0c	 push	 DWORD PTR _lpszDown$[ebp]
  0001b	ff 75 08	 push	 DWORD PTR _lpszUp$[ebp]
  0001e	ff b0 0c 01 00
	00		 push	 DWORD PTR [eax+268]
  00024	8b 80 1c 01 00
	00		 mov	 eax, DWORD PTR [eax+284]
  0002a	ff d0		 call	 eax
  0002c	83 c4 10	 add	 esp, 16			; 00000010H
; File D:\git\src\IBK\IBK_DRFN\ProjSrc\SrcDrfn\Chart\ExControl\ExBitmapButton.cpp

; 44   : }

  0002f	5d		 pop	 ebp
  00030	c2 0c 00	 ret	 12			; 0000000cH
?SetBitmapFile@CExBitmapButton@@QAEHPBD00@Z ENDP	; CExBitmapButton::SetBitmapFile
_TEXT	ENDS
; Function compile flags: /Ogtp
; File D:\git\src\IBK\IBK_DRFN\ProjSrc\SrcDrfn\Chart\ExControl\ExBitmapButton.cpp
; File D:\git\src\IBK\IBK_DRFN\ProjSrc\SrcDrfn\Chart\ExControl\Include\LoadHelper.h
; File D:\git\src\IBK\IBK_DRFN\ProjSrc\SrcDrfn\Chart\ExControl\ExBitmapButton.cpp
; File D:\git\src\IBK\IBK_DRFN\ProjSrc\SrcDrfn\Chart\ExControl\Include\LoadHelper.h
; File D:\git\src\IBK\IBK_DRFN\ProjSrc\SrcDrfn\Chart\ExControl\ExBitmapButton.cpp
;	COMDAT ?ActionControl@CExBitmapButton@@QAEJPAX@Z
_TEXT	SEGMENT
_lpAction$ = 8						; size = 4
?ActionControl@CExBitmapButton@@QAEJPAX@Z PROC		; CExBitmapButton::ActionControl, COMDAT
; _this$ = ecx

; 37   : {

  00000	55		 push	 ebp
  00001	8b ec		 mov	 ebp, esp

; 38   : 	return m_pLoader->ActionControl(lpAction);

  00003	8b 81 88 00 00
	00		 mov	 eax, DWORD PTR [ecx+136]
; File D:\git\src\IBK\IBK_DRFN\ProjSrc\SrcDrfn\Chart\ExControl\Include\LoadHelper.h

; 483  : 		if(!m_hLib)

  00009	83 78 04 00	 cmp	 DWORD PTR [eax+4], 0
  0000d	75 06		 jne	 SHORT $LN4@ActionCont
; File D:\git\src\IBK\IBK_DRFN\ProjSrc\SrcDrfn\Chart\ExControl\ExBitmapButton.cpp

; 38   : 	return m_pLoader->ActionControl(lpAction);

  0000f	33 c0		 xor	 eax, eax

; 39   : }

  00011	5d		 pop	 ebp
  00012	c2 04 00	 ret	 4
$LN4@ActionCont:
; File D:\git\src\IBK\IBK_DRFN\ProjSrc\SrcDrfn\Chart\ExControl\Include\LoadHelper.h

; 486  : 		return pActionControl(m_lpPointer, lpAction);

  00015	ff 75 08	 push	 DWORD PTR _lpAction$[ebp]
  00018	ff b0 0c 01 00
	00		 push	 DWORD PTR [eax+268]
  0001e	8b 80 10 01 00
	00		 mov	 eax, DWORD PTR [eax+272]
  00024	ff d0		 call	 eax
  00026	83 c4 08	 add	 esp, 8
; File D:\git\src\IBK\IBK_DRFN\ProjSrc\SrcDrfn\Chart\ExControl\ExBitmapButton.cpp

; 39   : }

  00029	5d		 pop	 ebp
  0002a	c2 04 00	 ret	 4
?ActionControl@CExBitmapButton@@QAEJPAX@Z ENDP		; CExBitmapButton::ActionControl
_TEXT	ENDS
; Function compile flags: /Ogtp
; File D:\git\src\IBK\IBK_DRFN\ProjSrc\SrcDrfn\Chart\ExControl\ExBitmapButton.cpp
;	COMDAT ??0CExBitmapButton@@QAE@XZ
_TEXT	SEGMENT
$T2 = -20						; size = 4
_this$ = -16						; size = 4
__$EHRec$ = -12						; size = 12
??0CExBitmapButton@@QAE@XZ PROC				; CExBitmapButton::CExBitmapButton, COMDAT
; _this$ = ecx

; 18   : {

  00000	55		 push	 ebp
  00001	8b ec		 mov	 ebp, esp
  00003	6a ff		 push	 -1
  00005	68 00 00 00 00	 push	 __ehhandler$??0CExBitmapButton@@QAE@XZ
  0000a	64 a1 00 00 00
	00		 mov	 eax, DWORD PTR fs:0
  00010	50		 push	 eax
  00011	83 ec 08	 sub	 esp, 8
  00014	56		 push	 esi
  00015	a1 00 00 00 00	 mov	 eax, DWORD PTR ___security_cookie
  0001a	33 c5		 xor	 eax, ebp
  0001c	50		 push	 eax
  0001d	8d 45 f4	 lea	 eax, DWORD PTR __$EHRec$[ebp]
  00020	64 a3 00 00 00
	00		 mov	 DWORD PTR fs:0, eax
  00026	8b f1		 mov	 esi, ecx
  00028	89 75 f0	 mov	 DWORD PTR _this$[ebp], esi
  0002b	e8 00 00 00 00	 call	 ??0CExButton@@QAE@XZ	; CExButton::CExButton

; 19   : 	m_pLoader = new CLoaderBitmapButton(this);

  00030	68 24 01 00 00	 push	 292			; 00000124H
  00035	c7 45 fc 00 00
	00 00		 mov	 DWORD PTR __$EHRec$[ebp+8], 0
  0003c	c7 06 00 00 00
	00		 mov	 DWORD PTR [esi], OFFSET ??_7CExBitmapButton@@6B@
  00042	e8 00 00 00 00	 call	 ??2@YAPAXI@Z		; operator new
  00047	83 c4 04	 add	 esp, 4
  0004a	89 45 ec	 mov	 DWORD PTR $T2[ebp], eax
  0004d	c6 45 fc 01	 mov	 BYTE PTR __$EHRec$[ebp+8], 1
  00051	85 c0		 test	 eax, eax
  00053	74 22		 je	 SHORT $LN3@CExBitmapB
  00055	6a 00		 push	 0
  00057	56		 push	 esi
  00058	8b c8		 mov	 ecx, eax
  0005a	e8 00 00 00 00	 call	 ??0CLoaderBitmapButton@@QAE@PAXPBD@Z ; CLoaderBitmapButton::CLoaderBitmapButton
  0005f	89 86 88 00 00
	00		 mov	 DWORD PTR [esi+136], eax

; 20   : }

  00065	8b c6		 mov	 eax, esi
  00067	8b 4d f4	 mov	 ecx, DWORD PTR __$EHRec$[ebp]
  0006a	64 89 0d 00 00
	00 00		 mov	 DWORD PTR fs:0, ecx
  00071	59		 pop	 ecx
  00072	5e		 pop	 esi
  00073	8b e5		 mov	 esp, ebp
  00075	5d		 pop	 ebp
  00076	c3		 ret	 0
$LN3@CExBitmapB:

; 19   : 	m_pLoader = new CLoaderBitmapButton(this);

  00077	c7 86 88 00 00
	00 00 00 00 00	 mov	 DWORD PTR [esi+136], 0

; 20   : }

  00081	8b c6		 mov	 eax, esi
  00083	8b 4d f4	 mov	 ecx, DWORD PTR __$EHRec$[ebp]
  00086	64 89 0d 00 00
	00 00		 mov	 DWORD PTR fs:0, ecx
  0008d	59		 pop	 ecx
  0008e	5e		 pop	 esi
  0008f	8b e5		 mov	 esp, ebp
  00091	5d		 pop	 ebp
  00092	c3		 ret	 0
_TEXT	ENDS
;	COMDAT text$x
text$x	SEGMENT
__unwindfunclet$??0CExBitmapButton@@QAE@XZ$0:
  00000	8b 4d f0	 mov	 ecx, DWORD PTR _this$[ebp]
  00003	e9 00 00 00 00	 jmp	 ??1CExButton@@UAE@XZ	; CExButton::~CExButton
__unwindfunclet$??0CExBitmapButton@@QAE@XZ$1:
  00008	68 24 01 00 00	 push	 292			; 00000124H
  0000d	8b 45 ec	 mov	 eax, DWORD PTR $T2[ebp]
  00010	50		 push	 eax
  00011	e8 00 00 00 00	 call	 ??3@YAXPAXI@Z		; operator delete
  00016	83 c4 08	 add	 esp, 8
  00019	c3		 ret	 0
  0001a	cc		 int	 3
  0001b	cc		 int	 3
  0001c	cc		 int	 3
  0001d	cc		 int	 3
  0001e	cc		 int	 3
__ehhandler$??0CExBitmapButton@@QAE@XZ:
  0001f	90		 npad	 1
  00020	90		 npad	 1
  00021	8b 54 24 08	 mov	 edx, DWORD PTR [esp+8]
  00025	8d 42 0c	 lea	 eax, DWORD PTR [edx+12]
  00028	8b 4a f0	 mov	 ecx, DWORD PTR [edx-16]
  0002b	33 c8		 xor	 ecx, eax
  0002d	e8 00 00 00 00	 call	 @__security_check_cookie@4
  00032	b8 00 00 00 00	 mov	 eax, OFFSET __ehfuncinfo$??0CExBitmapButton@@QAE@XZ
  00037	e9 00 00 00 00	 jmp	 ___CxxFrameHandler3
text$x	ENDS
??0CExBitmapButton@@QAE@XZ ENDP				; CExBitmapButton::CExBitmapButton
; Function compile flags: /Ogtp
; File C:\Program Files (x86)\Microsoft Visual Studio\2019\Community\VC\Tools\MSVC\14.29.30133\atlmfc\include\afxwin2.inl
;	COMDAT ?EndModalState@CWnd@@UAEXXZ
_TEXT	SEGMENT
?EndModalState@CWnd@@UAEXXZ PROC			; CWnd::EndModalState, COMDAT
; _this$ = ecx

; 567  : 	{ ::EnableWindow(m_hWnd, TRUE); }

  00000	6a 01		 push	 1
  00002	ff 71 20	 push	 DWORD PTR [ecx+32]
  00005	ff 15 00 00 00
	00		 call	 DWORD PTR __imp__EnableWindow@8
  0000b	c3		 ret	 0
?EndModalState@CWnd@@UAEXXZ ENDP			; CWnd::EndModalState
_TEXT	ENDS
; Function compile flags: /Ogtp
; File C:\Program Files (x86)\Microsoft Visual Studio\2019\Community\VC\Tools\MSVC\14.29.30133\atlmfc\include\afxwin2.inl
;	COMDAT ?BeginModalState@CWnd@@UAEXXZ
_TEXT	SEGMENT
?BeginModalState@CWnd@@UAEXXZ PROC			; CWnd::BeginModalState, COMDAT
; _this$ = ecx

; 565  : 	{ ::EnableWindow(m_hWnd, FALSE); }

  00000	6a 00		 push	 0
  00002	ff 71 20	 push	 DWORD PTR [ecx+32]
  00005	ff 15 00 00 00
	00		 call	 DWORD PTR __imp__EnableWindow@8
  0000b	c3		 ret	 0
?BeginModalState@CWnd@@UAEXXZ ENDP			; CWnd::BeginModalState
_TEXT	ENDS
; Function compile flags: /Ogtp
; File C:\Program Files (x86)\Microsoft Visual Studio\2019\Community\VC\Tools\MSVC\14.29.30133\atlmfc\include\afxwin2.inl
;	COMDAT ?DoDataExchange@CWnd@@MAEXPAVCDataExchange@@@Z
_TEXT	SEGMENT
___formal$ = 8						; size = 4
?DoDataExchange@CWnd@@MAEXPAVCDataExchange@@@Z PROC	; CWnd::DoDataExchange, COMDAT
; _this$ = ecx

; 561  : 	{ } // default does nothing

  00000	c2 04 00	 ret	 4
?DoDataExchange@CWnd@@MAEXPAVCDataExchange@@@Z ENDP	; CWnd::DoDataExchange
_TEXT	ENDS
; Function compile flags: /Ogtp
; File C:\Program Files (x86)\Microsoft Visual Studio\2019\Community\VC\Tools\MSVC\14.29.30133\atlmfc\include\afx.inl
;	COMDAT ?Dump@CObject@@UBEXAAVCDumpContext@@@Z
_TEXT	SEGMENT
___formal$ = 8						; size = 4
?Dump@CObject@@UBEXAAVCDumpContext@@@Z PROC		; CObject::Dump, COMDAT
; _this$ = ecx

; 122  : 	{ /* no dumping in release builds */ }

  00000	c2 04 00	 ret	 4
?Dump@CObject@@UBEXAAVCDumpContext@@@Z ENDP		; CObject::Dump
_TEXT	ENDS
; Function compile flags: /Ogtp
; File C:\Program Files (x86)\Microsoft Visual Studio\2019\Community\VC\Tools\MSVC\14.29.30133\atlmfc\include\afx.inl
;	COMDAT ?AssertValid@CObject@@UBEXXZ
_TEXT	SEGMENT
?AssertValid@CObject@@UBEXXZ PROC			; CObject::AssertValid, COMDAT
; _this$ = ecx

; 120  : 	{ /* no asserts in release builds */ }

  00000	c2 00 00	 ret	 0
?AssertValid@CObject@@UBEXXZ ENDP			; CObject::AssertValid
_TEXT	ENDS
; Function compile flags: /Ogtp
; File C:\Program Files (x86)\Microsoft Visual Studio\2019\Community\VC\Tools\MSVC\14.29.30133\atlmfc\include\afx.inl
;	COMDAT ?Serialize@CObject@@UAEXAAVCArchive@@@Z
_TEXT	SEGMENT
___formal$ = 8						; size = 4
?Serialize@CObject@@UAEXAAVCArchive@@@Z PROC		; CObject::Serialize, COMDAT
; _this$ = ecx

; 106  : 	{ /* CObject does not serialize anything by default */ }

  00000	c2 04 00	 ret	 4
?Serialize@CObject@@UAEXAAVCArchive@@@Z ENDP		; CObject::Serialize
_TEXT	ENDS
; Function compile flags: /Ogtp
; File C:\Program Files (x86)\Windows Kits\10\Include\10.0.22000.0\ucrt\stdio.h
;	COMDAT _sprintf
_TEXT	SEGMENT
__Buffer$ = 8						; size = 4
__Format$ = 12						; size = 4
_sprintf PROC						; COMDAT

; 1771 :     {

  00000	55		 push	 ebp
  00001	8b ec		 mov	 ebp, esp

; 1392 :         int const _Result = __stdio_common_vsprintf(

  00003	8d 45 10	 lea	 eax, DWORD PTR __Format$[ebp+4]
  00006	50		 push	 eax
  00007	6a 00		 push	 0
  00009	ff 75 0c	 push	 DWORD PTR __Format$[ebp]
  0000c	6a ff		 push	 -1
  0000e	ff 75 08	 push	 DWORD PTR __Buffer$[ebp]
  00011	e8 00 00 00 00	 call	 ___local_stdio_printf_options
  00016	8b 08		 mov	 ecx, DWORD PTR [eax]
  00018	ff 70 04	 push	 DWORD PTR [eax+4]
  0001b	83 c9 01	 or	 ecx, 1
  0001e	51		 push	 ecx
  0001f	ff 15 00 00 00
	00		 call	 DWORD PTR __imp____stdio_common_vsprintf

; 1393 :             _CRT_INTERNAL_LOCAL_PRINTF_OPTIONS | _CRT_INTERNAL_PRINTF_LEGACY_VSPRINTF_NULL_TERMINATION,
; 1394 :             _Buffer, _BufferCount, _Format, _Locale, _ArgList);
; 1395 : 
; 1396 :         return _Result < 0 ? -1 : _Result;

  00025	83 c9 ff	 or	 ecx, -1
  00028	83 c4 1c	 add	 esp, 28			; 0000001cH
  0002b	85 c0		 test	 eax, eax
  0002d	0f 48 c1	 cmovs	 eax, ecx

; 1772 :         int _Result;
; 1773 :         va_list _ArgList;
; 1774 :         __crt_va_start(_ArgList, _Format);
; 1775 : 
; 1776 :         _Result = _vsprintf_l(_Buffer, _Format, NULL, _ArgList);
; 1777 : 
; 1778 :         __crt_va_end(_ArgList);
; 1779 :         return _Result;
; 1780 :     }

  00030	5d		 pop	 ebp
  00031	c3		 ret	 0
_sprintf ENDP
_TEXT	ENDS
; Function compile flags: /Ogtp
; File C:\Program Files (x86)\Windows Kits\10\Include\10.0.22000.0\ucrt\corecrt_stdio_config.h
;	COMDAT ___local_stdio_printf_options
_TEXT	SEGMENT
___local_stdio_printf_options PROC			; COMDAT

; 91   :         static unsigned __int64 _OptionsStorage;
; 92   :         return &_OptionsStorage;

  00000	b8 00 00 00 00	 mov	 eax, OFFSET ?_OptionsStorage@?1??__local_stdio_printf_options@@9@4_KA ; `__local_stdio_printf_options'::`2'::_OptionsStorage

; 93   :     }

  00005	c3		 ret	 0
___local_stdio_printf_options ENDP
_TEXT	ENDS
; Function compile flags: /Ogtp
; File D:\git\src\IBK\IBK_DRFN\ProjSrc\SrcDrfn\Chart\ExControl\ExBitmapButton.cpp
;	COMDAT ?__empty_global_delete@@YAXPAXI@Z
_TEXT	SEGMENT
___formal$ = 8						; size = 4
___formal$ = 12						; size = 4
?__empty_global_delete@@YAXPAXI@Z PROC			; __empty_global_delete, COMDAT

  00000	c2 00 00	 ret	 0
?__empty_global_delete@@YAXPAXI@Z ENDP			; __empty_global_delete
_TEXT	ENDS
; Function compile flags: /Ogtp
; File D:\git\src\IBK\IBK_DRFN\ProjSrc\SrcDrfn\Chart\ExControl\ExBitmapButton.cpp
;	COMDAT ?__empty_global_delete@@YAXPAX@Z
_TEXT	SEGMENT
___formal$ = 8						; size = 4
?__empty_global_delete@@YAXPAX@Z PROC			; __empty_global_delete, COMDAT

  00000	c2 00 00	 ret	 0
?__empty_global_delete@@YAXPAX@Z ENDP			; __empty_global_delete
_TEXT	ENDS
END
