; Listing generated by Microsoft (R) Optimizing Compiler Version 19.29.30145.0 

	TITLE	D:\git\src\IBK\IBK_DRFN\#DRfn-CS\_Obj\ExControl\ExDialog.obj
	.686P
	.XMM
	include listing.inc
	.model	flat

INCLUDELIB MSVCRT
INCLUDELIB OLDNAMES

PUBLIC	??_C@_0P@BKKCOCLK@RMSG_INTERFACE@		; `string'
PUBLIC	??_C@_0BB@GOOPDKI@RMSG_GETPCTRDATA@		; `string'
PUBLIC	??_C@_0BB@JPACFCL@RMSG_SETPCTRDATA@		; `string'
;	COMDAT ??_C@_0BB@JPACFCL@RMSG_SETPCTRDATA@
CONST	SEGMENT
??_C@_0BB@JPACFCL@RMSG_SETPCTRDATA@ DB 'RMSG_SETPCTRDATA', 00H ; `string'
CONST	ENDS
;	COMDAT ??_C@_0BB@GOOPDKI@RMSG_GETPCTRDATA@
CONST	SEGMENT
??_C@_0BB@GOOPDKI@RMSG_GETPCTRDATA@ DB 'RMSG_GETPCTRDATA', 00H ; `string'
CONST	ENDS
;	COMDAT ??_C@_0P@BKKCOCLK@RMSG_INTERFACE@
CONST	SEGMENT
??_C@_0P@BKKCOCLK@RMSG_INTERFACE@ DB 'RMSG_INTERFACE', 00H ; `string'
CONST	ENDS
PUBLIC	?__empty_global_delete@@YAXPAX@Z		; __empty_global_delete
PUBLIC	?__empty_global_delete@@YAXPAXI@Z		; __empty_global_delete
PUBLIC	___local_stdio_scanf_options
PUBLIC	_sscanf
PUBLIC	??1CObject@@UAE@XZ				; CObject::~CObject
PUBLIC	??3CObject@@SGXPAX@Z				; CObject::operator delete
PUBLIC	?Serialize@CObject@@UAEXAAVCArchive@@@Z		; CObject::Serialize
PUBLIC	?AssertValid@CObject@@UBEXXZ			; CObject::AssertValid
PUBLIC	?Dump@CObject@@UBEXAAVCDumpContext@@@Z		; CObject::Dump
PUBLIC	?_AfxInitManaged@@YAHXZ				; _AfxInitManaged
PUBLIC	?DoDataExchange@CWnd@@MAEXPAVCDataExchange@@@Z	; CWnd::DoDataExchange
PUBLIC	?BeginModalState@CWnd@@UAEXXZ			; CWnd::BeginModalState
PUBLIC	?EndModalState@CWnd@@UAEXXZ			; CWnd::EndModalState
PUBLIC	?Create@CDialog@@UAEHIPAVCWnd@@@Z		; CDialog::Create
PUBLIC	??1CLoadLib@@QAE@XZ				; CLoadLib::~CLoadLib
PUBLIC	?LoadProcAddress@CLoadLib@@UAEHXZ		; CLoadLib::LoadProcAddress
PUBLIC	??0CPCTrMngHelper@@QAE@XZ			; CPCTrMngHelper::CPCTrMngHelper
PUBLIC	?LoadProcAddress@CPCTrMngHelper@@UAEHXZ		; CPCTrMngHelper::LoadProcAddress
PUBLIC	?_GetBaseClass@CExDialog@@KGPAUCRuntimeClass@@XZ ; CExDialog::_GetBaseClass
PUBLIC	?GetThisClass@CExDialog@@SGPAUCRuntimeClass@@XZ	; CExDialog::GetThisClass
PUBLIC	?GetRuntimeClass@CExDialog@@UBEPAUCRuntimeClass@@XZ ; CExDialog::GetRuntimeClass
PUBLIC	?CreateObject@CExDialog@@SGPAVCObject@@XZ	; CExDialog::CreateObject
PUBLIC	??0CExDialog@@QAE@XZ				; CExDialog::CExDialog
PUBLIC	??0CExDialog@@QAE@IPAVCWnd@@I@Z			; CExDialog::CExDialog
PUBLIC	?SetBaseInterface@CExDialog@@QAEXI@Z		; CExDialog::SetBaseInterface
PUBLIC	?SetChangeSkinNotifyFunction@CExDialog@@QAEPAU__POSITION@@P6AXXZ@Z ; CExDialog::SetChangeSkinNotifyFunction
PUBLIC	?RemoveChangeSkinNotifyFunction@CExDialog@@QAEXPAU__POSITION@@@Z ; CExDialog::RemoveChangeSkinNotifyFunction
PUBLIC	?ReceiveData@CExDialog@@UAEJJPBD00PAXJ@Z	; CExDialog::ReceiveData
PUBLIC	?ReceiveRealData@CExDialog@@UAEJGPBDPAX@Z	; CExDialog::ReceiveRealData
PUBLIC	?StatusChange@CExDialog@@UAEJH@Z		; CExDialog::StatusChange
PUBLIC	?ReceiveMessage@CExDialog@@UAEJJPBD00@Z		; CExDialog::ReceiveMessage
PUBLIC	?ColorTableChanged@CExDialog@@UAEXXZ		; CExDialog::ColorTableChanged
PUBLIC	??0?$CList@P6AXXZP6AXXZ@@QAE@H@Z		; CList<void (__cdecl*)(void),void (__cdecl*)(void)>::CList<void (__cdecl*)(void),void (__cdecl*)(void)>
PUBLIC	?AddTail@?$CList@P6AXXZP6AXXZ@@QAEPAU__POSITION@@P6AXXZ@Z ; CList<void (__cdecl*)(void),void (__cdecl*)(void)>::AddTail
PUBLIC	?RemoveAll@?$CList@P6AXXZP6AXXZ@@QAEXXZ		; CList<void (__cdecl*)(void),void (__cdecl*)(void)>::RemoveAll
PUBLIC	?RemoveAt@?$CList@P6AXXZP6AXXZ@@QAEXPAU__POSITION@@@Z ; CList<void (__cdecl*)(void),void (__cdecl*)(void)>::RemoveAt
PUBLIC	?Find@?$CList@P6AXXZP6AXXZ@@QBEPAU__POSITION@@P6AXXZPAU2@@Z ; CList<void (__cdecl*)(void),void (__cdecl*)(void)>::Find
PUBLIC	?NewNode@?$CList@P6AXXZP6AXXZ@@IAEPAUCNode@1@PAU21@0@Z ; CList<void (__cdecl*)(void),void (__cdecl*)(void)>::NewNode
PUBLIC	?FreeNode@?$CList@P6AXXZP6AXXZ@@IAEXPAUCNode@1@@Z ; CList<void (__cdecl*)(void),void (__cdecl*)(void)>::FreeNode
PUBLIC	??1?$CList@P6AXXZP6AXXZ@@UAE@XZ			; CList<void (__cdecl*)(void),void (__cdecl*)(void)>::~CList<void (__cdecl*)(void),void (__cdecl*)(void)>
PUBLIC	?Serialize@?$CList@P6AXXZP6AXXZ@@UAEXAAVCArchive@@@Z ; CList<void (__cdecl*)(void),void (__cdecl*)(void)>::Serialize
PUBLIC	??_G?$CList@P6AXXZP6AXXZ@@UAEPAXI@Z		; CList<void (__cdecl*)(void),void (__cdecl*)(void)>::`scalar deleting destructor'
PUBLIC	?ReceiveData@CMyITrCommSite@CExDialog@@UAGJJPBD00PAXJ@Z ; CExDialog::CMyITrCommSite::ReceiveData
PUBLIC	?ReceiveRealData@CMyITrCommSite@CExDialog@@UAGJGPBDPAX@Z ; CExDialog::CMyITrCommSite::ReceiveRealData
PUBLIC	?StatusChange@CMyITrCommSite@CExDialog@@UAGJH@Z	; CExDialog::CMyITrCommSite::StatusChange
PUBLIC	?ReceiveMessage@CMyITrCommSite@CExDialog@@UAGJJPBD00@Z ; CExDialog::CMyITrCommSite::ReceiveMessage
PUBLIC	?ColorTableChanged@CMyISkinColorSite@CExDialog@@UAGXXZ ; CExDialog::CMyISkinColorSite::ColorTableChanged
PUBLIC	?OnInitDialog@CExDialog@@MAEHXZ			; CExDialog::OnInitDialog
PUBLIC	?OnSize@CExDialog@@IAEXIHH@Z			; CExDialog::OnSize
PUBLIC	?OnGetMinMaxInfo@CExDialog@@IAEXPAUtagMINMAXINFO@@@Z ; CExDialog::OnGetMinMaxInfo
PUBLIC	?OnDestroy@CExDialog@@IAEXXZ			; CExDialog::OnDestroy
PUBLIC	?OnEraseBkgnd@CExDialog@@IAEHPAVCDC@@@Z		; CExDialog::OnEraseBkgnd
PUBLIC	?OnCtlColor@CExDialog@@IAEPAUHBRUSH__@@PAVCDC@@PAVCWnd@@I@Z ; CExDialog::OnCtlColor
PUBLIC	?GetThisMessageMap@CExDialog@@KGPBUAFX_MSGMAP@@XZ ; CExDialog::GetThisMessageMap
PUBLIC	?GetMessageMap@CExDialog@@MBEPBUAFX_MSGMAP@@XZ	; CExDialog::GetMessageMap
PUBLIC	?NotifyToCtrlColorTableChanged@CExDialog@@IAEXXZ ; CExDialog::NotifyToCtrlColorTableChanged
PUBLIC	??_GCExDialog@@UAEPAXI@Z			; CExDialog::`scalar deleting destructor'
PUBLIC	??$CompareElements@P6AXXZP6AXXZ@@YGHPBQ6AXXZ0@Z	; CompareElements<void (__cdecl*)(void),void (__cdecl*)(void)>
PUBLIC	??$SerializeElements@P6AXXZ@@YGXAAVCArchive@@PAP6AXXZH@Z ; SerializeElements<void (__cdecl*)(void)>
PUBLIC	??_ECExDialog@@WKI@AEPAXI@Z			; [thunk]:CExDialog::`vector deleting destructor'
PUBLIC	?_OptionsStorage@?1??__local_stdio_scanf_options@@9@4_KA ; `__local_stdio_scanf_options'::`2'::_OptionsStorage
PUBLIC	??_R0?AVCObject@@@8				; CObject `RTTI Type Descriptor'
PUBLIC	??_R3CObject@@8					; CObject::`RTTI Class Hierarchy Descriptor'
PUBLIC	??_R2CObject@@8					; CObject::`RTTI Base Class Array'
PUBLIC	??_R1A@?0A@EA@CObject@@8			; CObject::`RTTI Base Class Descriptor at (0,-1,0,64)'
PUBLIC	??_R1A@?0A@EA@CWnd@@8				; CWnd::`RTTI Base Class Descriptor at (0,-1,0,64)'
PUBLIC	??_R0?AVCWnd@@@8				; CWnd `RTTI Type Descriptor'
PUBLIC	??_R3CWnd@@8					; CWnd::`RTTI Class Hierarchy Descriptor'
PUBLIC	??_R2CWnd@@8					; CWnd::`RTTI Base Class Array'
PUBLIC	??_R1A@?0A@EA@CCmdTarget@@8			; CCmdTarget::`RTTI Base Class Descriptor at (0,-1,0,64)'
PUBLIC	??_R0?AVCCmdTarget@@@8				; CCmdTarget `RTTI Type Descriptor'
PUBLIC	??_R3CCmdTarget@@8				; CCmdTarget::`RTTI Class Hierarchy Descriptor'
PUBLIC	??_R2CCmdTarget@@8				; CCmdTarget::`RTTI Base Class Array'
PUBLIC	??_R1A@?0A@EA@CDialog@@8			; CDialog::`RTTI Base Class Descriptor at (0,-1,0,64)'
PUBLIC	??_R0?AVCDialog@@@8				; CDialog `RTTI Type Descriptor'
PUBLIC	??_R3CDialog@@8					; CDialog::`RTTI Class Hierarchy Descriptor'
PUBLIC	??_R2CDialog@@8					; CDialog::`RTTI Base Class Array'
PUBLIC	??_C@_0M@CBBNGGHM@PcTrMng?4dll@			; `string'
PUBLIC	??_C@_06NDLAHCHE@?$CFs?$CF08X@			; `string'
PUBLIC	??_C@_02EMFKHFLK@?$CFX@				; `string'
PUBLIC	??_7CLoadLib@@6B@				; CLoadLib::`vftable'
PUBLIC	??_C@_0BO@HDGMHKJP@DLL?$FL?$CFs?$FN?$MA?$LL?5Load?G?R?5?$LM?v?5?$LO?x?$LN?$MA?$LE?O?$LE?Y?4@ ; `string'
PUBLIC	??_7CPCTrMngHelper@@6B@				; CPCTrMngHelper::`vftable'
PUBLIC	??_C@_0BB@FBHMIJGH@?2dev?2PcTrMng?4dll@		; `string'
PUBLIC	??_C@_0N@HGGCPMBP@GetInferface@			; `string'
PUBLIC	??_C@_0M@FLDHGJOE@GetPCTrData@			; `string'
PUBLIC	??_C@_0M@FECJLPGH@SetPCTrData@			; `string'
PUBLIC	??_C@_0BA@IJJLANBJ@NotifyPCTrState@		; `string'
PUBLIC	?classCExDialog@CExDialog@@2UCRuntimeClass@@B	; CExDialog::classCExDialog
PUBLIC	??_7?$CList@P6AXXZP6AXXZ@@6B@			; CList<void (__cdecl*)(void),void (__cdecl*)(void)>::`vftable'
PUBLIC	??_7CMyITrCommSite@CExDialog@@6B@		; CExDialog::CMyITrCommSite::`vftable'
PUBLIC	??_7CMyISkinColorSite@CExDialog@@6B@		; CExDialog::CMyISkinColorSite::`vftable'
PUBLIC	??_7CExDialog@@6BCDialog@@@			; CExDialog::`vftable'
PUBLIC	??_7CExDialog@@6BCExResize@@@			; CExDialog::`vftable'
PUBLIC	??_C@_09KBGCIPIE@CExDialog@			; `string'
PUBLIC	??_C@_0BD@CMCCCNBF@HANAROIGATEMANAGER@		; `string'
PUBLIC	??_R0?AUITrCommSite@@@8				; ITrCommSite `RTTI Type Descriptor'
PUBLIC	??_R3ITrCommSite@@8				; ITrCommSite::`RTTI Class Hierarchy Descriptor'
PUBLIC	??_R2ITrCommSite@@8				; ITrCommSite::`RTTI Base Class Array'
PUBLIC	??_R1A@?0A@EA@ITrCommSite@@8			; ITrCommSite::`RTTI Base Class Descriptor at (0,-1,0,64)'
PUBLIC	??_R0?AUISkinColorSite@@@8			; ISkinColorSite `RTTI Type Descriptor'
PUBLIC	??_R3ISkinColorSite@@8				; ISkinColorSite::`RTTI Class Hierarchy Descriptor'
PUBLIC	??_R2ISkinColorSite@@8				; ISkinColorSite::`RTTI Base Class Array'
PUBLIC	??_R1A@?0A@EA@ISkinColorSite@@8			; ISkinColorSite::`RTTI Base Class Descriptor at (0,-1,0,64)'
PUBLIC	??_R4CLoadLib@@6B@				; CLoadLib::`RTTI Complete Object Locator'
PUBLIC	??_R0?AVCLoadLib@@@8				; CLoadLib `RTTI Type Descriptor'
PUBLIC	??_R3CLoadLib@@8				; CLoadLib::`RTTI Class Hierarchy Descriptor'
PUBLIC	??_R2CLoadLib@@8				; CLoadLib::`RTTI Base Class Array'
PUBLIC	??_R1A@?0A@EA@CLoadLib@@8			; CLoadLib::`RTTI Base Class Descriptor at (0,-1,0,64)'
PUBLIC	??_R4CPCTrMngHelper@@6B@			; CPCTrMngHelper::`RTTI Complete Object Locator'
PUBLIC	??_R0?AVCPCTrMngHelper@@@8			; CPCTrMngHelper `RTTI Type Descriptor'
PUBLIC	??_R3CPCTrMngHelper@@8				; CPCTrMngHelper::`RTTI Class Hierarchy Descriptor'
PUBLIC	??_R2CPCTrMngHelper@@8				; CPCTrMngHelper::`RTTI Base Class Array'
PUBLIC	??_R1A@?0A@EA@CPCTrMngHelper@@8			; CPCTrMngHelper::`RTTI Base Class Descriptor at (0,-1,0,64)'
PUBLIC	??_R4CExDialog@@6BCDialog@@@			; CExDialog::`RTTI Complete Object Locator'
PUBLIC	??_R0?AVCExDialog@@@8				; CExDialog `RTTI Type Descriptor'
PUBLIC	??_R3CExDialog@@8				; CExDialog::`RTTI Class Hierarchy Descriptor'
PUBLIC	??_R2CExDialog@@8				; CExDialog::`RTTI Base Class Array'
PUBLIC	??_R1A@?0A@EA@CExDialog@@8			; CExDialog::`RTTI Base Class Descriptor at (0,-1,0,64)'
PUBLIC	??_R1KI@?0A@EA@CExResize@@8			; CExResize::`RTTI Base Class Descriptor at (168,-1,0,64)'
PUBLIC	??_R0?AVCExResize@@@8				; CExResize `RTTI Type Descriptor'
PUBLIC	??_R3CExResize@@8				; CExResize::`RTTI Class Hierarchy Descriptor'
PUBLIC	??_R2CExResize@@8				; CExResize::`RTTI Base Class Array'
PUBLIC	??_R1A@?0A@EA@CExResize@@8			; CExResize::`RTTI Base Class Descriptor at (0,-1,0,64)'
PUBLIC	??_R4CExDialog@@6BCExResize@@@			; CExDialog::`RTTI Complete Object Locator'
PUBLIC	??_R4?$CList@P6AXXZP6AXXZ@@6B@			; CList<void (__cdecl*)(void),void (__cdecl*)(void)>::`RTTI Complete Object Locator'
PUBLIC	??_R0?AV?$CList@P6AXXZP6AXXZ@@@8		; CList<void (__cdecl*)(void),void (__cdecl*)(void)> `RTTI Type Descriptor'
PUBLIC	??_R3?$CList@P6AXXZP6AXXZ@@8			; CList<void (__cdecl*)(void),void (__cdecl*)(void)>::`RTTI Class Hierarchy Descriptor'
PUBLIC	??_R2?$CList@P6AXXZP6AXXZ@@8			; CList<void (__cdecl*)(void),void (__cdecl*)(void)>::`RTTI Base Class Array'
PUBLIC	??_R1A@?0A@EA@?$CList@P6AXXZP6AXXZ@@8		; CList<void (__cdecl*)(void),void (__cdecl*)(void)>::`RTTI Base Class Descriptor at (0,-1,0,64)'
PUBLIC	??_R4CMyITrCommSite@CExDialog@@6B@		; CExDialog::CMyITrCommSite::`RTTI Complete Object Locator'
PUBLIC	??_R0?AVCMyITrCommSite@CExDialog@@@8		; CExDialog::CMyITrCommSite `RTTI Type Descriptor'
PUBLIC	??_R3CMyITrCommSite@CExDialog@@8		; CExDialog::CMyITrCommSite::`RTTI Class Hierarchy Descriptor'
PUBLIC	??_R2CMyITrCommSite@CExDialog@@8		; CExDialog::CMyITrCommSite::`RTTI Base Class Array'
PUBLIC	??_R1A@?0A@EA@CMyITrCommSite@CExDialog@@8	; CExDialog::CMyITrCommSite::`RTTI Base Class Descriptor at (0,-1,0,64)'
PUBLIC	??_R4CMyISkinColorSite@CExDialog@@6B@		; CExDialog::CMyISkinColorSite::`RTTI Complete Object Locator'
PUBLIC	??_R0?AVCMyISkinColorSite@CExDialog@@@8		; CExDialog::CMyISkinColorSite `RTTI Type Descriptor'
PUBLIC	??_R3CMyISkinColorSite@CExDialog@@8		; CExDialog::CMyISkinColorSite::`RTTI Class Hierarchy Descriptor'
PUBLIC	??_R2CMyISkinColorSite@CExDialog@@8		; CExDialog::CMyISkinColorSite::`RTTI Base Class Array'
PUBLIC	??_R1A@?0A@EA@CMyISkinColorSite@CExDialog@@8	; CExDialog::CMyISkinColorSite::`RTTI Base Class Descriptor at (0,-1,0,64)'
EXTRN	??2@YAPAXI@Z:PROC				; operator new
EXTRN	??3@YAXPAX@Z:PROC				; operator delete
EXTRN	??3@YAXPAXI@Z:PROC				; operator delete
EXTRN	?__global_delete@@YAXPAXI@Z:PROC		; __global_delete
EXTRN	___std_terminate:PROC
EXTRN	__imp__GetEnvironmentVariableA@12:PROC
EXTRN	__imp__GetModuleFileNameA@12:PROC
EXTRN	__imp__GetModuleHandleA@4:PROC
EXTRN	__imp__GetProcAddress@8:PROC
EXTRN	__imp__CreateSolidBrush@4:PROC
EXTRN	__imp__DeleteObject@4:PROC
EXTRN	__imp__RegisterWindowMessageA@4:PROC
EXTRN	__imp__EnableWindow@8:PROC
EXTRN	__imp__GetClientRect@8:PROC
EXTRN	__imp__FillRect@12:PROC
EXTRN	__imp__GetWindowLongA@8:PROC
EXTRN	__imp____stdio_common_vsscanf:PROC
EXTRN	?AfxThrowInvalidArgException@@YGXXZ:PROC	; AfxThrowInvalidArgException
EXTRN	?AfxThrowArchiveException@@YGXHPBD@Z:PROC	; AfxThrowArchiveException
EXTRN	?GetRuntimeClass@CObject@@UBEPAUCRuntimeClass@@XZ:PROC ; CObject::GetRuntimeClass
EXTRN	?IsKindOf@CObject@@QBEHPBUCRuntimeClass@@@Z:PROC ; CObject::IsKindOf
EXTRN	__imp_?Concatenate@?$CSimpleStringT@D$00@ATL@@KAXAAV12@PBDH1H@Z:PROC
EXTRN	__imp_??0?$CStringT@DV?$StrTraitMFC_DLL@DV?$ChTraitsCRT@D@ATL@@@@@ATL@@QAE@XZ:PROC
EXTRN	__imp_??0?$CStringT@DV?$StrTraitMFC_DLL@DV?$ChTraitsCRT@D@ATL@@@@@ATL@@QAE@PAUIAtlStringMgr@1@@Z:PROC
EXTRN	__imp_??0?$CStringT@DV?$StrTraitMFC_DLL@DV?$ChTraitsCRT@D@ATL@@@@@ATL@@QAE@ABV01@@Z:PROC
EXTRN	__imp_??0?$CStringT@DV?$StrTraitMFC_DLL@DV?$ChTraitsCRT@D@ATL@@@@@ATL@@QAE@PBD@Z:PROC
EXTRN	__imp_??1?$CStringT@DV?$StrTraitMFC_DLL@DV?$ChTraitsCRT@D@ATL@@@@@ATL@@QAE@XZ:PROC
EXTRN	__imp_??4?$CStringT@DV?$StrTraitMFC_DLL@DV?$ChTraitsCRT@D@ATL@@@@@ATL@@QAEAAV01@ABV01@@Z:PROC
EXTRN	__imp_?GetManager@?$CStringT@DV?$StrTraitMFC_DLL@DV?$ChTraitsCRT@D@ATL@@@@@ATL@@QBEPAUIAtlStringMgr@2@XZ:PROC
EXTRN	__imp_?ReverseFind@?$CStringT@DV?$StrTraitMFC_DLL@DV?$ChTraitsCRT@D@ATL@@@@@ATL@@QBEHD@Z:PROC
EXTRN	__imp_?Left@?$CStringT@DV?$StrTraitMFC_DLL@DV?$ChTraitsCRT@D@ATL@@@@@ATL@@QBE?AV12@H@Z:PROC
EXTRN	__imp_?Format@?$CStringT@DV?$StrTraitMFC_DLL@DV?$ChTraitsCRT@D@ATL@@@@@ATL@@QAAXPBDZZ:PROC
EXTRN	?Read@CArchive@@QAEIPAXI@Z:PROC			; CArchive::Read
EXTRN	?Write@CArchive@@QAEXPBXI@Z:PROC		; CArchive::Write
EXTRN	?ReadCount@CArchive@@QAEKXZ:PROC		; CArchive::ReadCount
EXTRN	?WriteCount@CArchive@@QAEXK@Z:PROC		; CArchive::WriteCount
EXTRN	??0AFX_MAINTAIN_STATE2@@QAE@PAVAFX_MODULE_STATE@@@Z:PROC ; AFX_MAINTAIN_STATE2::AFX_MAINTAIN_STATE2
EXTRN	??1AFX_MAINTAIN_STATE2@@QAE@XZ:PROC		; AFX_MAINTAIN_STATE2::~AFX_MAINTAIN_STATE2
EXTRN	?Create@CPlex@@SGPAU1@AAPAU1@II@Z:PROC		; CPlex::Create
EXTRN	?FreeDataChain@CPlex@@QAEXXZ:PROC		; CPlex::FreeDataChain
EXTRN	?IsInvokeAllowed@CCmdTarget@@UAEHJ@Z:PROC	; CCmdTarget::IsInvokeAllowed
EXTRN	?GetDispatchIID@CCmdTarget@@UAEHPAU_GUID@@@Z:PROC ; CCmdTarget::GetDispatchIID
EXTRN	?GetTypeInfoCount@CCmdTarget@@UAEIXZ:PROC	; CCmdTarget::GetTypeInfoCount
EXTRN	?GetTypeLibCache@CCmdTarget@@UAEPAVCTypeLibCache@@XZ:PROC ; CCmdTarget::GetTypeLibCache
EXTRN	?GetTypeLib@CCmdTarget@@UAEJKPAPAUITypeLib@@@Z:PROC ; CCmdTarget::GetTypeLib
EXTRN	?GetCommandMap@CCmdTarget@@MBEPBUAFX_OLECMDMAP@@XZ:PROC ; CCmdTarget::GetCommandMap
EXTRN	?GetDispatchMap@CCmdTarget@@MBEPBUAFX_DISPMAP@@XZ:PROC ; CCmdTarget::GetDispatchMap
EXTRN	?GetConnectionMap@CCmdTarget@@MBEPBUAFX_CONNECTIONMAP@@XZ:PROC ; CCmdTarget::GetConnectionMap
EXTRN	?GetEventSinkMap@CCmdTarget@@MBEPBUAFX_EVENTSINKMAP@@XZ:PROC ; CCmdTarget::GetEventSinkMap
EXTRN	?OnCreateAggregates@CCmdTarget@@UAEHXZ:PROC	; CCmdTarget::OnCreateAggregates
EXTRN	?GetInterfaceHook@CCmdTarget@@UAEPAUIUnknown@@PBX@Z:PROC ; CCmdTarget::GetInterfaceHook
EXTRN	?GetExtraConnectionPoints@CCmdTarget@@MAEHPAVCPtrArray@@@Z:PROC ; CCmdTarget::GetExtraConnectionPoints
EXTRN	?GetConnectionHook@CCmdTarget@@MAEPAUIConnectionPoint@@ABU_GUID@@@Z:PROC ; CCmdTarget::GetConnectionHook
EXTRN	?PreSubclassWindow@CWnd@@UAEXXZ:PROC		; CWnd::PreSubclassWindow
EXTRN	?Create@CWnd@@UAEHPBD0KABUtagRECT@@PAV1@IPAUCCreateContext@@@Z:PROC ; CWnd::Create
EXTRN	?CreateEx@CWnd@@UAEHKPBD0KHHHHPAUHWND__@@PAUHMENU__@@PAX@Z:PROC ; CWnd::CreateEx
EXTRN	?CreateEx@CWnd@@UAEHKPBD0KABUtagRECT@@PAV1@IPAX@Z:PROC ; CWnd::CreateEx
EXTRN	?DestroyWindow@CWnd@@UAEHXZ:PROC		; CWnd::DestroyWindow
EXTRN	?PreCreateWindow@CWnd@@UAEHAAUtagCREATESTRUCTA@@@Z:PROC ; CWnd::PreCreateWindow
EXTRN	?CalcWindowRect@CWnd@@UAEXPAUtagRECT@@I@Z:PROC	; CWnd::CalcWindowRect
EXTRN	?GetMenu@CWnd@@UBEPAVCMenu@@XZ:PROC		; CWnd::GetMenu
EXTRN	?SetMenu@CWnd@@UAEHPAVCMenu@@@Z:PROC		; CWnd::SetMenu
EXTRN	?EnableToolTips@CWnd@@QAEHH@Z:PROC		; CWnd::EnableToolTips
EXTRN	?OnToolHitTest@CWnd@@UBEHVCPoint@@PAUtagTOOLINFOA@@@Z:PROC ; CWnd::OnToolHitTest
EXTRN	?GetScrollBarCtrl@CWnd@@UBEPAVCScrollBar@@H@Z:PROC ; CWnd::GetScrollBarCtrl
EXTRN	?WinHelpA@CWnd@@UAEXKI@Z:PROC			; CWnd::WinHelpA
EXTRN	?HtmlHelpA@CWnd@@UAEXKI@Z:PROC			; CWnd::HtmlHelpA
EXTRN	?WinHelpInternal@CWnd@@UAEXKI@Z:PROC		; CWnd::WinHelpInternal
EXTRN	?ContinueModal@CWnd@@UAEHXZ:PROC		; CWnd::ContinueModal
EXTRN	?EndModalLoop@CWnd@@UAEXH@Z:PROC		; CWnd::EndModalLoop
EXTRN	?OnDrawIconicThumbnailOrLivePreview@CWnd@@UAEXAAVCDC@@VCRect@@VCSize@@HAAH@Z:PROC ; CWnd::OnDrawIconicThumbnailOrLivePreview
EXTRN	?GetInterfaceMap@CWnd@@MBEPBUAFX_INTERFACEMAP@@XZ:PROC ; CWnd::GetInterfaceMap
EXTRN	?EnsureStdObj@CWnd@@UAEJXZ:PROC			; CWnd::EnsureStdObj
EXTRN	?get_accParent@CWnd@@UAEJPAPAUIDispatch@@@Z:PROC ; CWnd::get_accParent
EXTRN	?get_accChildCount@CWnd@@UAEJPAJ@Z:PROC		; CWnd::get_accChildCount
EXTRN	?get_accChild@CWnd@@UAEJUtagVARIANT@@PAPAUIDispatch@@@Z:PROC ; CWnd::get_accChild
EXTRN	?get_accName@CWnd@@UAEJUtagVARIANT@@PAPA_W@Z:PROC ; CWnd::get_accName
EXTRN	?get_accValue@CWnd@@UAEJUtagVARIANT@@PAPA_W@Z:PROC ; CWnd::get_accValue
EXTRN	?get_accDescription@CWnd@@UAEJUtagVARIANT@@PAPA_W@Z:PROC ; CWnd::get_accDescription
EXTRN	?get_accRole@CWnd@@UAEJUtagVARIANT@@PAU2@@Z:PROC ; CWnd::get_accRole
EXTRN	?get_accState@CWnd@@UAEJUtagVARIANT@@PAU2@@Z:PROC ; CWnd::get_accState
EXTRN	?get_accHelp@CWnd@@UAEJUtagVARIANT@@PAPA_W@Z:PROC ; CWnd::get_accHelp
EXTRN	?get_accHelpTopic@CWnd@@UAEJPAPA_WUtagVARIANT@@PAJ@Z:PROC ; CWnd::get_accHelpTopic
EXTRN	?get_accKeyboardShortcut@CWnd@@UAEJUtagVARIANT@@PAPA_W@Z:PROC ; CWnd::get_accKeyboardShortcut
EXTRN	?get_accFocus@CWnd@@UAEJPAUtagVARIANT@@@Z:PROC	; CWnd::get_accFocus
EXTRN	?get_accSelection@CWnd@@UAEJPAUtagVARIANT@@@Z:PROC ; CWnd::get_accSelection
EXTRN	?get_accDefaultAction@CWnd@@UAEJUtagVARIANT@@PAPA_W@Z:PROC ; CWnd::get_accDefaultAction
EXTRN	?accSelect@CWnd@@UAEJJUtagVARIANT@@@Z:PROC	; CWnd::accSelect
EXTRN	?accLocation@CWnd@@UAEJPAJ000UtagVARIANT@@@Z:PROC ; CWnd::accLocation
EXTRN	?accNavigate@CWnd@@UAEJJUtagVARIANT@@PAU2@@Z:PROC ; CWnd::accNavigate
EXTRN	?accHitTest@CWnd@@UAEJJJPAUtagVARIANT@@@Z:PROC	; CWnd::accHitTest
EXTRN	?accDoDefaultAction@CWnd@@UAEJUtagVARIANT@@@Z:PROC ; CWnd::accDoDefaultAction
EXTRN	?put_accName@CWnd@@UAEJUtagVARIANT@@PA_W@Z:PROC	; CWnd::put_accName
EXTRN	?put_accValue@CWnd@@UAEJUtagVARIANT@@PA_W@Z:PROC ; CWnd::put_accValue
EXTRN	?SetProxy@CWnd@@UAEJPAUIAccessibleProxy@@@Z:PROC ; CWnd::SetProxy
EXTRN	?CreateAccessibleProxy@CWnd@@UAEJIJPAJ@Z:PROC	; CWnd::CreateAccessibleProxy
EXTRN	?OnCommand@CWnd@@MAEHIJ@Z:PROC			; CWnd::OnCommand
EXTRN	?OnNotify@CWnd@@MAEHIJPAJ@Z:PROC		; CWnd::OnNotify
EXTRN	?OnCtlColor@CWnd@@IAEPAUHBRUSH__@@PAVCDC@@PAV1@I@Z:PROC ; CWnd::OnCtlColor
EXTRN	?OnDestroy@CWnd@@IAEXXZ:PROC			; CWnd::OnDestroy
EXTRN	?GetSuperWndProcAddr@CWnd@@MAEPAP6GJPAUHWND__@@IIJ@ZXZ:PROC ; CWnd::GetSuperWndProcAddr
EXTRN	?OnAmbientProperty@CWnd@@UAEHPAVCOleControlSite@@JPAUtagVARIANT@@@Z:PROC ; CWnd::OnAmbientProperty
EXTRN	?WindowProc@CWnd@@MAEJIIJ@Z:PROC		; CWnd::WindowProc
EXTRN	?OnWndMsg@CWnd@@MAEHIIJPAJ@Z:PROC		; CWnd::OnWndMsg
EXTRN	?Default@CWnd@@IAEJXZ:PROC			; CWnd::Default
EXTRN	?DefWindowProcA@CWnd@@MAEJIIJ@Z:PROC		; CWnd::DefWindowProcA
EXTRN	?PostNcDestroy@CWnd@@MAEXXZ:PROC		; CWnd::PostNcDestroy
EXTRN	?OnChildNotify@CWnd@@MAEHIIJPAJ@Z:PROC		; CWnd::OnChildNotify
EXTRN	?OnTouchInputs@CWnd@@MAEHIPAUtagTOUCHINPUT@@@Z:PROC ; CWnd::OnTouchInputs
EXTRN	?OnTouchInput@CWnd@@MAEHVCPoint@@HHPAUtagTOUCHINPUT@@@Z:PROC ; CWnd::OnTouchInput
EXTRN	?GetGestureStatus@CWnd@@MAEKVCPoint@@@Z:PROC	; CWnd::GetGestureStatus
EXTRN	?OnGestureZoom@CWnd@@MAEHVCPoint@@J@Z:PROC	; CWnd::OnGestureZoom
EXTRN	?OnGesturePan@CWnd@@MAEHVCPoint@@0@Z:PROC	; CWnd::OnGesturePan
EXTRN	?OnGestureRotate@CWnd@@MAEHVCPoint@@N@Z:PROC	; CWnd::OnGestureRotate
EXTRN	?OnGestureTwoFingerTap@CWnd@@MAEHVCPoint@@@Z:PROC ; CWnd::OnGestureTwoFingerTap
EXTRN	?OnGesturePressAndTap@CWnd@@MAEHVCPoint@@J@Z:PROC ; CWnd::OnGesturePressAndTap
EXTRN	?ResizeDynamicLayout@CWnd@@MAEXXZ:PROC		; CWnd::ResizeDynamicLayout
EXTRN	?IsFrameWnd@CWnd@@UBEHXZ:PROC			; CWnd::IsFrameWnd
EXTRN	?OnFinalRelease@CWnd@@UAEXXZ:PROC		; CWnd::OnFinalRelease
EXTRN	?CreateControlContainer@CWnd@@MAEHPAPAVCOleControlContainer@@@Z:PROC ; CWnd::CreateControlContainer
EXTRN	?CreateControlSite@CWnd@@MAEHPAVCOleControlContainer@@PAPAVCOleControlSite@@IABU_GUID@@@Z:PROC ; CWnd::CreateControlSite
EXTRN	?GetThisClass@CDialog@@SGPAUCRuntimeClass@@XZ:PROC ; CDialog::GetThisClass
EXTRN	??0CDialog@@QAE@XZ:PROC				; CDialog::CDialog
EXTRN	?Create@CDialog@@UAEHPBDPAVCWnd@@@Z:PROC	; CDialog::Create
EXTRN	?CreateIndirect@CDialog@@UAEHPBUDLGTEMPLATE@@PAVCWnd@@PAX@Z:PROC ; CDialog::CreateIndirect
EXTRN	?CreateIndirect@CDialog@@UAEHPAXPAVCWnd@@@Z:PROC ; CDialog::CreateIndirect
EXTRN	??0CDialog@@QAE@IPAVCWnd@@@Z:PROC		; CDialog::CDialog
EXTRN	?DoModal@CDialog@@UAEHXZ:PROC			; CDialog::DoModal
EXTRN	?OnInitDialog@CDialog@@UAEHXZ:PROC		; CDialog::OnInitDialog
EXTRN	?OnSetFont@CDialog@@UAEXPAVCFont@@@Z:PROC	; CDialog::OnSetFont
EXTRN	?OnOK@CDialog@@MAEXXZ:PROC			; CDialog::OnOK
EXTRN	?OnCancel@CDialog@@MAEXXZ:PROC			; CDialog::OnCancel
EXTRN	??1CDialog@@UAE@XZ:PROC				; CDialog::~CDialog
EXTRN	?PreTranslateMessage@CDialog@@UAEHPAUtagMSG@@@Z:PROC ; CDialog::PreTranslateMessage
EXTRN	?OnCmdMsg@CDialog@@UAEHIHPAXPAUAFX_CMDHANDLERINFO@@@Z:PROC ; CDialog::OnCmdMsg
EXTRN	?CheckAutoCenter@CDialog@@UAEHXZ:PROC		; CDialog::CheckAutoCenter
EXTRN	?SetOccDialogInfo@CDialog@@MAEHPAU_AFX_OCC_DIALOG_INFO@@@Z:PROC ; CDialog::SetOccDialogInfo
EXTRN	?GetOccDialogInfo@CDialog@@MAEPAU_AFX_OCC_DIALOG_INFO@@XZ:PROC ; CDialog::GetOccDialogInfo
EXTRN	?PreInitDialog@CDialog@@MAEXXZ:PROC		; CDialog::PreInitDialog
EXTRN	?GetThisMessageMap@CDialog@@KGPBUAFX_MSGMAP@@XZ:PROC ; CDialog::GetThisMessageMap
EXTRN	?AfxMessageBox@@YGHPBDII@Z:PROC			; AfxMessageBox
EXTRN	?AfxLoadLibrary@@YGPAUHINSTANCE__@@PBD@Z:PROC	; AfxLoadLibrary
EXTRN	?AfxFreeLibrary@@YGHPAUHINSTANCE__@@@Z:PROC	; AfxFreeLibrary
EXTRN	?SetPermanentHandle@@YAXPAXPAVCObject@@@Z:PROC	; SetPermanentHandle
EXTRN	??0CExResize@@QAE@PAVCWnd@@I@Z:PROC		; CExResize::CExResize
EXTRN	??1CExResize@@UAE@XZ:PROC			; CExResize::~CExResize
EXTRN	?SavePlacement@CExResize@@QAEXPBD@Z:PROC	; CExResize::SavePlacement
EXTRN	?Init@CExResize@@IAEXXZ:PROC			; CExResize::Init
EXTRN	?Size@CExResize@@IAEXXZ:PROC			; CExResize::Size
EXTRN	?GetMinMaxInfo@CExResize@@IAEXPAUtagMINMAXINFO@@@Z:PROC ; CExResize::GetMinMaxInfo
EXTRN	?SetFlag@CExResize@@IAEXW4EFlags@1@@Z:PROC	; CExResize::SetFlag
EXTRN	??_E?$CList@P6AXXZP6AXXZ@@UAEPAXI@Z:PROC	; CList<void (__cdecl*)(void),void (__cdecl*)(void)>::`vector deleting destructor'
EXTRN	??_ECExDialog@@UAEPAXI@Z:PROC			; CExDialog::`vector deleting destructor'
EXTRN	?GetThisClass@CExStatic@@SGPAUCRuntimeClass@@XZ:PROC ; CExStatic::GetThisClass
EXTRN	?GetThisClass@CExCheckBox@@SGPAUCRuntimeClass@@XZ:PROC ; CExCheckBox::GetThisClass
EXTRN	@__security_check_cookie@4:PROC
EXTRN	___CxxFrameHandler3:PROC
EXTRN	??_7type_info@@6B@:QWORD			; type_info::`vftable'
EXTRN	___security_cookie:DWORD
;	COMDAT ?_OptionsStorage@?1??__local_stdio_scanf_options@@9@4_KA
_BSS	SEGMENT
?_OptionsStorage@?1??__local_stdio_scanf_options@@9@4_KA DQ 01H DUP (?) ; `__local_stdio_scanf_options'::`2'::_OptionsStorage
_BSS	ENDS
_BSS	SEGMENT
?RMSG_INTERFACE@@3IB DD 01H DUP (?)			; RMSG_INTERFACE
?RMSG_GETPCTRDATA@@3IB DD 01H DUP (?)			; RMSG_GETPCTRDATA
?RMSG_SETPCTRDATA@@3IB DD 01H DUP (?)			; RMSG_SETPCTRDATA
_BSS	ENDS
CRT$XCU	SEGMENT
?RMSG_INTERFACE$initializer$@@3P6AXXZA DD FLAT:??__ERMSG_INTERFACE@@YAXXZ ; RMSG_INTERFACE$initializer$
CRT$XCU	ENDS
;	COMDAT ??_R1A@?0A@EA@CMyISkinColorSite@CExDialog@@8
rdata$r	SEGMENT
??_R1A@?0A@EA@CMyISkinColorSite@CExDialog@@8 DD FLAT:??_R0?AVCMyISkinColorSite@CExDialog@@@8 ; CExDialog::CMyISkinColorSite::`RTTI Base Class Descriptor at (0,-1,0,64)'
	DD	01H
	DD	00H
	DD	0ffffffffH
	DD	00H
	DD	040H
	DD	FLAT:??_R3CMyISkinColorSite@CExDialog@@8
rdata$r	ENDS
;	COMDAT ??_R2CMyISkinColorSite@CExDialog@@8
rdata$r	SEGMENT
??_R2CMyISkinColorSite@CExDialog@@8 DD FLAT:??_R1A@?0A@EA@CMyISkinColorSite@CExDialog@@8 ; CExDialog::CMyISkinColorSite::`RTTI Base Class Array'
	DD	FLAT:??_R1A@?0A@EA@ISkinColorSite@@8
rdata$r	ENDS
;	COMDAT ??_R3CMyISkinColorSite@CExDialog@@8
rdata$r	SEGMENT
??_R3CMyISkinColorSite@CExDialog@@8 DD 00H		; CExDialog::CMyISkinColorSite::`RTTI Class Hierarchy Descriptor'
	DD	00H
	DD	02H
	DD	FLAT:??_R2CMyISkinColorSite@CExDialog@@8
rdata$r	ENDS
;	COMDAT ??_R0?AVCMyISkinColorSite@CExDialog@@@8
data$rs	SEGMENT
??_R0?AVCMyISkinColorSite@CExDialog@@@8 DD FLAT:??_7type_info@@6B@ ; CExDialog::CMyISkinColorSite `RTTI Type Descriptor'
	DD	00H
	DB	'.?AVCMyISkinColorSite@CExDialog@@', 00H
data$rs	ENDS
;	COMDAT ??_R4CMyISkinColorSite@CExDialog@@6B@
rdata$r	SEGMENT
??_R4CMyISkinColorSite@CExDialog@@6B@ DD 00H		; CExDialog::CMyISkinColorSite::`RTTI Complete Object Locator'
	DD	00H
	DD	00H
	DD	FLAT:??_R0?AVCMyISkinColorSite@CExDialog@@@8
	DD	FLAT:??_R3CMyISkinColorSite@CExDialog@@8
rdata$r	ENDS
;	COMDAT ??_R1A@?0A@EA@CMyITrCommSite@CExDialog@@8
rdata$r	SEGMENT
??_R1A@?0A@EA@CMyITrCommSite@CExDialog@@8 DD FLAT:??_R0?AVCMyITrCommSite@CExDialog@@@8 ; CExDialog::CMyITrCommSite::`RTTI Base Class Descriptor at (0,-1,0,64)'
	DD	01H
	DD	00H
	DD	0ffffffffH
	DD	00H
	DD	040H
	DD	FLAT:??_R3CMyITrCommSite@CExDialog@@8
rdata$r	ENDS
;	COMDAT ??_R2CMyITrCommSite@CExDialog@@8
rdata$r	SEGMENT
??_R2CMyITrCommSite@CExDialog@@8 DD FLAT:??_R1A@?0A@EA@CMyITrCommSite@CExDialog@@8 ; CExDialog::CMyITrCommSite::`RTTI Base Class Array'
	DD	FLAT:??_R1A@?0A@EA@ITrCommSite@@8
rdata$r	ENDS
;	COMDAT ??_R3CMyITrCommSite@CExDialog@@8
rdata$r	SEGMENT
??_R3CMyITrCommSite@CExDialog@@8 DD 00H			; CExDialog::CMyITrCommSite::`RTTI Class Hierarchy Descriptor'
	DD	00H
	DD	02H
	DD	FLAT:??_R2CMyITrCommSite@CExDialog@@8
rdata$r	ENDS
;	COMDAT ??_R0?AVCMyITrCommSite@CExDialog@@@8
data$rs	SEGMENT
??_R0?AVCMyITrCommSite@CExDialog@@@8 DD FLAT:??_7type_info@@6B@ ; CExDialog::CMyITrCommSite `RTTI Type Descriptor'
	DD	00H
	DB	'.?AVCMyITrCommSite@CExDialog@@', 00H
data$rs	ENDS
;	COMDAT ??_R4CMyITrCommSite@CExDialog@@6B@
rdata$r	SEGMENT
??_R4CMyITrCommSite@CExDialog@@6B@ DD 00H		; CExDialog::CMyITrCommSite::`RTTI Complete Object Locator'
	DD	00H
	DD	00H
	DD	FLAT:??_R0?AVCMyITrCommSite@CExDialog@@@8
	DD	FLAT:??_R3CMyITrCommSite@CExDialog@@8
rdata$r	ENDS
;	COMDAT ??_R1A@?0A@EA@?$CList@P6AXXZP6AXXZ@@8
rdata$r	SEGMENT
??_R1A@?0A@EA@?$CList@P6AXXZP6AXXZ@@8 DD FLAT:??_R0?AV?$CList@P6AXXZP6AXXZ@@@8 ; CList<void (__cdecl*)(void),void (__cdecl*)(void)>::`RTTI Base Class Descriptor at (0,-1,0,64)'
	DD	01H
	DD	00H
	DD	0ffffffffH
	DD	00H
	DD	040H
	DD	FLAT:??_R3?$CList@P6AXXZP6AXXZ@@8
rdata$r	ENDS
;	COMDAT ??_R2?$CList@P6AXXZP6AXXZ@@8
rdata$r	SEGMENT
??_R2?$CList@P6AXXZP6AXXZ@@8 DD FLAT:??_R1A@?0A@EA@?$CList@P6AXXZP6AXXZ@@8 ; CList<void (__cdecl*)(void),void (__cdecl*)(void)>::`RTTI Base Class Array'
	DD	FLAT:??_R1A@?0A@EA@CObject@@8
rdata$r	ENDS
;	COMDAT ??_R3?$CList@P6AXXZP6AXXZ@@8
rdata$r	SEGMENT
??_R3?$CList@P6AXXZP6AXXZ@@8 DD 00H			; CList<void (__cdecl*)(void),void (__cdecl*)(void)>::`RTTI Class Hierarchy Descriptor'
	DD	00H
	DD	02H
	DD	FLAT:??_R2?$CList@P6AXXZP6AXXZ@@8
rdata$r	ENDS
;	COMDAT ??_R0?AV?$CList@P6AXXZP6AXXZ@@@8
data$rs	SEGMENT
??_R0?AV?$CList@P6AXXZP6AXXZ@@@8 DD FLAT:??_7type_info@@6B@ ; CList<void (__cdecl*)(void),void (__cdecl*)(void)> `RTTI Type Descriptor'
	DD	00H
	DB	'.?AV?$CList@P6AXXZP6AXXZ@@', 00H
data$rs	ENDS
;	COMDAT ??_R4?$CList@P6AXXZP6AXXZ@@6B@
rdata$r	SEGMENT
??_R4?$CList@P6AXXZP6AXXZ@@6B@ DD 00H			; CList<void (__cdecl*)(void),void (__cdecl*)(void)>::`RTTI Complete Object Locator'
	DD	00H
	DD	00H
	DD	FLAT:??_R0?AV?$CList@P6AXXZP6AXXZ@@@8
	DD	FLAT:??_R3?$CList@P6AXXZP6AXXZ@@8
rdata$r	ENDS
;	COMDAT ??_R4CExDialog@@6BCExResize@@@
rdata$r	SEGMENT
??_R4CExDialog@@6BCExResize@@@ DD 00H			; CExDialog::`RTTI Complete Object Locator'
	DD	0a8H
	DD	00H
	DD	FLAT:??_R0?AVCExDialog@@@8
	DD	FLAT:??_R3CExDialog@@8
rdata$r	ENDS
;	COMDAT ??_R1A@?0A@EA@CExResize@@8
rdata$r	SEGMENT
??_R1A@?0A@EA@CExResize@@8 DD FLAT:??_R0?AVCExResize@@@8 ; CExResize::`RTTI Base Class Descriptor at (0,-1,0,64)'
	DD	00H
	DD	00H
	DD	0ffffffffH
	DD	00H
	DD	040H
	DD	FLAT:??_R3CExResize@@8
rdata$r	ENDS
;	COMDAT ??_R2CExResize@@8
rdata$r	SEGMENT
??_R2CExResize@@8 DD FLAT:??_R1A@?0A@EA@CExResize@@8	; CExResize::`RTTI Base Class Array'
rdata$r	ENDS
;	COMDAT ??_R3CExResize@@8
rdata$r	SEGMENT
??_R3CExResize@@8 DD 00H				; CExResize::`RTTI Class Hierarchy Descriptor'
	DD	00H
	DD	01H
	DD	FLAT:??_R2CExResize@@8
rdata$r	ENDS
;	COMDAT ??_R0?AVCExResize@@@8
data$rs	SEGMENT
??_R0?AVCExResize@@@8 DD FLAT:??_7type_info@@6B@	; CExResize `RTTI Type Descriptor'
	DD	00H
	DB	'.?AVCExResize@@', 00H
data$rs	ENDS
;	COMDAT ??_R1KI@?0A@EA@CExResize@@8
rdata$r	SEGMENT
??_R1KI@?0A@EA@CExResize@@8 DD FLAT:??_R0?AVCExResize@@@8 ; CExResize::`RTTI Base Class Descriptor at (168,-1,0,64)'
	DD	00H
	DD	0a8H
	DD	0ffffffffH
	DD	00H
	DD	040H
	DD	FLAT:??_R3CExResize@@8
rdata$r	ENDS
;	COMDAT ??_R1A@?0A@EA@CExDialog@@8
rdata$r	SEGMENT
??_R1A@?0A@EA@CExDialog@@8 DD FLAT:??_R0?AVCExDialog@@@8 ; CExDialog::`RTTI Base Class Descriptor at (0,-1,0,64)'
	DD	05H
	DD	00H
	DD	0ffffffffH
	DD	00H
	DD	040H
	DD	FLAT:??_R3CExDialog@@8
rdata$r	ENDS
;	COMDAT ??_R2CExDialog@@8
rdata$r	SEGMENT
??_R2CExDialog@@8 DD FLAT:??_R1A@?0A@EA@CExDialog@@8	; CExDialog::`RTTI Base Class Array'
	DD	FLAT:??_R1A@?0A@EA@CDialog@@8
	DD	FLAT:??_R1A@?0A@EA@CWnd@@8
	DD	FLAT:??_R1A@?0A@EA@CCmdTarget@@8
	DD	FLAT:??_R1A@?0A@EA@CObject@@8
	DD	FLAT:??_R1KI@?0A@EA@CExResize@@8
rdata$r	ENDS
;	COMDAT ??_R3CExDialog@@8
rdata$r	SEGMENT
??_R3CExDialog@@8 DD 00H				; CExDialog::`RTTI Class Hierarchy Descriptor'
	DD	01H
	DD	06H
	DD	FLAT:??_R2CExDialog@@8
rdata$r	ENDS
;	COMDAT ??_R0?AVCExDialog@@@8
data$rs	SEGMENT
??_R0?AVCExDialog@@@8 DD FLAT:??_7type_info@@6B@	; CExDialog `RTTI Type Descriptor'
	DD	00H
	DB	'.?AVCExDialog@@', 00H
data$rs	ENDS
;	COMDAT ??_R4CExDialog@@6BCDialog@@@
rdata$r	SEGMENT
??_R4CExDialog@@6BCDialog@@@ DD 00H			; CExDialog::`RTTI Complete Object Locator'
	DD	00H
	DD	00H
	DD	FLAT:??_R0?AVCExDialog@@@8
	DD	FLAT:??_R3CExDialog@@8
rdata$r	ENDS
;	COMDAT ??_R1A@?0A@EA@CPCTrMngHelper@@8
rdata$r	SEGMENT
??_R1A@?0A@EA@CPCTrMngHelper@@8 DD FLAT:??_R0?AVCPCTrMngHelper@@@8 ; CPCTrMngHelper::`RTTI Base Class Descriptor at (0,-1,0,64)'
	DD	01H
	DD	00H
	DD	0ffffffffH
	DD	00H
	DD	040H
	DD	FLAT:??_R3CPCTrMngHelper@@8
rdata$r	ENDS
;	COMDAT ??_R2CPCTrMngHelper@@8
rdata$r	SEGMENT
??_R2CPCTrMngHelper@@8 DD FLAT:??_R1A@?0A@EA@CPCTrMngHelper@@8 ; CPCTrMngHelper::`RTTI Base Class Array'
	DD	FLAT:??_R1A@?0A@EA@CLoadLib@@8
rdata$r	ENDS
;	COMDAT ??_R3CPCTrMngHelper@@8
rdata$r	SEGMENT
??_R3CPCTrMngHelper@@8 DD 00H				; CPCTrMngHelper::`RTTI Class Hierarchy Descriptor'
	DD	00H
	DD	02H
	DD	FLAT:??_R2CPCTrMngHelper@@8
rdata$r	ENDS
;	COMDAT ??_R0?AVCPCTrMngHelper@@@8
data$rs	SEGMENT
??_R0?AVCPCTrMngHelper@@@8 DD FLAT:??_7type_info@@6B@	; CPCTrMngHelper `RTTI Type Descriptor'
	DD	00H
	DB	'.?AVCPCTrMngHelper@@', 00H
data$rs	ENDS
;	COMDAT ??_R4CPCTrMngHelper@@6B@
rdata$r	SEGMENT
??_R4CPCTrMngHelper@@6B@ DD 00H				; CPCTrMngHelper::`RTTI Complete Object Locator'
	DD	00H
	DD	00H
	DD	FLAT:??_R0?AVCPCTrMngHelper@@@8
	DD	FLAT:??_R3CPCTrMngHelper@@8
rdata$r	ENDS
;	COMDAT ??_R1A@?0A@EA@CLoadLib@@8
rdata$r	SEGMENT
??_R1A@?0A@EA@CLoadLib@@8 DD FLAT:??_R0?AVCLoadLib@@@8	; CLoadLib::`RTTI Base Class Descriptor at (0,-1,0,64)'
	DD	00H
	DD	00H
	DD	0ffffffffH
	DD	00H
	DD	040H
	DD	FLAT:??_R3CLoadLib@@8
rdata$r	ENDS
;	COMDAT ??_R2CLoadLib@@8
rdata$r	SEGMENT
??_R2CLoadLib@@8 DD FLAT:??_R1A@?0A@EA@CLoadLib@@8	; CLoadLib::`RTTI Base Class Array'
rdata$r	ENDS
;	COMDAT ??_R3CLoadLib@@8
rdata$r	SEGMENT
??_R3CLoadLib@@8 DD 00H					; CLoadLib::`RTTI Class Hierarchy Descriptor'
	DD	00H
	DD	01H
	DD	FLAT:??_R2CLoadLib@@8
rdata$r	ENDS
;	COMDAT ??_R0?AVCLoadLib@@@8
data$rs	SEGMENT
??_R0?AVCLoadLib@@@8 DD FLAT:??_7type_info@@6B@		; CLoadLib `RTTI Type Descriptor'
	DD	00H
	DB	'.?AVCLoadLib@@', 00H
data$rs	ENDS
;	COMDAT ??_R4CLoadLib@@6B@
rdata$r	SEGMENT
??_R4CLoadLib@@6B@ DD 00H				; CLoadLib::`RTTI Complete Object Locator'
	DD	00H
	DD	00H
	DD	FLAT:??_R0?AVCLoadLib@@@8
	DD	FLAT:??_R3CLoadLib@@8
rdata$r	ENDS
;	COMDAT ??_R1A@?0A@EA@ISkinColorSite@@8
rdata$r	SEGMENT
??_R1A@?0A@EA@ISkinColorSite@@8 DD FLAT:??_R0?AUISkinColorSite@@@8 ; ISkinColorSite::`RTTI Base Class Descriptor at (0,-1,0,64)'
	DD	00H
	DD	00H
	DD	0ffffffffH
	DD	00H
	DD	040H
	DD	FLAT:??_R3ISkinColorSite@@8
rdata$r	ENDS
;	COMDAT ??_R2ISkinColorSite@@8
rdata$r	SEGMENT
??_R2ISkinColorSite@@8 DD FLAT:??_R1A@?0A@EA@ISkinColorSite@@8 ; ISkinColorSite::`RTTI Base Class Array'
rdata$r	ENDS
;	COMDAT ??_R3ISkinColorSite@@8
rdata$r	SEGMENT
??_R3ISkinColorSite@@8 DD 00H				; ISkinColorSite::`RTTI Class Hierarchy Descriptor'
	DD	00H
	DD	01H
	DD	FLAT:??_R2ISkinColorSite@@8
rdata$r	ENDS
;	COMDAT ??_R0?AUISkinColorSite@@@8
data$rs	SEGMENT
??_R0?AUISkinColorSite@@@8 DD FLAT:??_7type_info@@6B@	; ISkinColorSite `RTTI Type Descriptor'
	DD	00H
	DB	'.?AUISkinColorSite@@', 00H
data$rs	ENDS
;	COMDAT ??_R1A@?0A@EA@ITrCommSite@@8
rdata$r	SEGMENT
??_R1A@?0A@EA@ITrCommSite@@8 DD FLAT:??_R0?AUITrCommSite@@@8 ; ITrCommSite::`RTTI Base Class Descriptor at (0,-1,0,64)'
	DD	00H
	DD	00H
	DD	0ffffffffH
	DD	00H
	DD	040H
	DD	FLAT:??_R3ITrCommSite@@8
rdata$r	ENDS
;	COMDAT ??_R2ITrCommSite@@8
rdata$r	SEGMENT
??_R2ITrCommSite@@8 DD FLAT:??_R1A@?0A@EA@ITrCommSite@@8 ; ITrCommSite::`RTTI Base Class Array'
rdata$r	ENDS
;	COMDAT ??_R3ITrCommSite@@8
rdata$r	SEGMENT
??_R3ITrCommSite@@8 DD 00H				; ITrCommSite::`RTTI Class Hierarchy Descriptor'
	DD	00H
	DD	01H
	DD	FLAT:??_R2ITrCommSite@@8
rdata$r	ENDS
;	COMDAT ??_R0?AUITrCommSite@@@8
data$rs	SEGMENT
??_R0?AUITrCommSite@@@8 DD FLAT:??_7type_info@@6B@	; ITrCommSite `RTTI Type Descriptor'
	DD	00H
	DB	'.?AUITrCommSite@@', 00H
data$rs	ENDS
;	COMDAT ??_C@_0BD@CMCCCNBF@HANAROIGATEMANAGER@
CONST	SEGMENT
??_C@_0BD@CMCCCNBF@HANAROIGATEMANAGER@ DB 'HANAROIGATEMANAGER', 00H ; `string'
CONST	ENDS
;	COMDAT ?messageMap@?1??GetThisMessageMap@CExDialog@@KGPBUAFX_MSGMAP@@XZ@4U3@B
CONST	SEGMENT
?messageMap@?1??GetThisMessageMap@CExDialog@@KGPBUAFX_MSGMAP@@XZ@4U3@B DD FLAT:?GetThisMessageMap@CDialog@@KGPBUAFX_MSGMAP@@XZ ; `CExDialog::GetThisMessageMap'::`2'::messageMap
	DD	FLAT:?_messageEntries@?1??GetThisMessageMap@CExDialog@@KGPBUAFX_MSGMAP@@XZ@4QBUAFX_MSGMAP_ENTRY@@B
CONST	ENDS
;	COMDAT ?_messageEntries@?1??GetThisMessageMap@CExDialog@@KGPBUAFX_MSGMAP@@XZ@4QBUAFX_MSGMAP_ENTRY@@B
CONST	SEGMENT
?_messageEntries@?1??GetThisMessageMap@CExDialog@@KGPBUAFX_MSGMAP@@XZ@4QBUAFX_MSGMAP_ENTRY@@B DD 05H ; `CExDialog::GetThisMessageMap'::`2'::_messageEntries
	DD	00H
	DD	00H
	DD	00H
	DD	01aH
	DD	FLAT:?OnSize@CExDialog@@IAEXIHH@Z
	DD	024H
	DD	00H
	DD	00H
	DD	00H
	DD	02dH
	DD	FLAT:?OnGetMinMaxInfo@CExDialog@@IAEXPAUtagMINMAXINFO@@@Z
	DD	02H
	DD	00H
	DD	00H
	DD	00H
	DD	013H
	DD	FLAT:?OnDestroy@CExDialog@@IAEXXZ
	DD	014H
	DD	00H
	DD	00H
	DD	00H
	DD	01H
	DD	FLAT:?OnEraseBkgnd@CExDialog@@IAEHPAVCDC@@@Z
	DD	019H
	DD	00H
	DD	00H
	DD	00H
	DD	08H
	DD	FLAT:?OnCtlColor@CExDialog@@IAEPAUHBRUSH__@@PAVCDC@@PAVCWnd@@I@Z
	DD	00H
	DD	00H
	DD	00H
	DD	00H
	DD	00H
	DD	00H
CONST	ENDS
;	COMDAT ??_C@_09KBGCIPIE@CExDialog@
CONST	SEGMENT
??_C@_09KBGCIPIE@CExDialog@ DB 'CExDialog', 00H		; `string'
CONST	ENDS
;	COMDAT ??_7CExDialog@@6BCExResize@@@
CONST	SEGMENT
??_7CExDialog@@6BCExResize@@@ DD FLAT:??_R4CExDialog@@6BCExResize@@@ ; CExDialog::`vftable'
	DD	FLAT:??_ECExDialog@@WKI@AEPAXI@Z
CONST	ENDS
;	COMDAT ??_7CExDialog@@6BCDialog@@@
CONST	SEGMENT
??_7CExDialog@@6BCDialog@@@ DD FLAT:??_R4CExDialog@@6BCDialog@@@ ; CExDialog::`vftable'
	DD	FLAT:?GetRuntimeClass@CExDialog@@UBEPAUCRuntimeClass@@XZ
	DD	FLAT:??_ECExDialog@@UAEPAXI@Z
	DD	FLAT:?Serialize@CObject@@UAEXAAVCArchive@@@Z
	DD	FLAT:?AssertValid@CObject@@UBEXXZ
	DD	FLAT:?Dump@CObject@@UBEXAAVCDumpContext@@@Z
	DD	FLAT:?OnCmdMsg@CDialog@@UAEHIHPAXPAUAFX_CMDHANDLERINFO@@@Z
	DD	FLAT:?OnFinalRelease@CWnd@@UAEXXZ
	DD	FLAT:?IsInvokeAllowed@CCmdTarget@@UAEHJ@Z
	DD	FLAT:?GetDispatchIID@CCmdTarget@@UAEHPAU_GUID@@@Z
	DD	FLAT:?GetTypeInfoCount@CCmdTarget@@UAEIXZ
	DD	FLAT:?GetTypeLibCache@CCmdTarget@@UAEPAVCTypeLibCache@@XZ
	DD	FLAT:?GetTypeLib@CCmdTarget@@UAEJKPAPAUITypeLib@@@Z
	DD	FLAT:?GetMessageMap@CExDialog@@MBEPBUAFX_MSGMAP@@XZ
	DD	FLAT:?GetCommandMap@CCmdTarget@@MBEPBUAFX_OLECMDMAP@@XZ
	DD	FLAT:?GetDispatchMap@CCmdTarget@@MBEPBUAFX_DISPMAP@@XZ
	DD	FLAT:?GetConnectionMap@CCmdTarget@@MBEPBUAFX_CONNECTIONMAP@@XZ
	DD	FLAT:?GetInterfaceMap@CWnd@@MBEPBUAFX_INTERFACEMAP@@XZ
	DD	FLAT:?GetEventSinkMap@CCmdTarget@@MBEPBUAFX_EVENTSINKMAP@@XZ
	DD	FLAT:?OnCreateAggregates@CCmdTarget@@UAEHXZ
	DD	FLAT:?GetInterfaceHook@CCmdTarget@@UAEPAUIUnknown@@PBX@Z
	DD	FLAT:?GetExtraConnectionPoints@CCmdTarget@@MAEHPAVCPtrArray@@@Z
	DD	FLAT:?GetConnectionHook@CCmdTarget@@MAEPAUIConnectionPoint@@ABU_GUID@@@Z
	DD	FLAT:?PreSubclassWindow@CWnd@@UAEXXZ
	DD	FLAT:?Create@CWnd@@UAEHPBD0KABUtagRECT@@PAV1@IPAUCCreateContext@@@Z
	DD	FLAT:?CreateEx@CWnd@@UAEHKPBD0KABUtagRECT@@PAV1@IPAX@Z
	DD	FLAT:?CreateEx@CWnd@@UAEHKPBD0KHHHHPAUHWND__@@PAUHMENU__@@PAX@Z
	DD	FLAT:?DestroyWindow@CWnd@@UAEHXZ
	DD	FLAT:?PreCreateWindow@CWnd@@UAEHAAUtagCREATESTRUCTA@@@Z
	DD	FLAT:?CalcWindowRect@CWnd@@UAEXPAUtagRECT@@I@Z
	DD	FLAT:?GetMenu@CWnd@@UBEPAVCMenu@@XZ
	DD	FLAT:?SetMenu@CWnd@@UAEHPAVCMenu@@@Z
	DD	FLAT:?OnToolHitTest@CWnd@@UBEHVCPoint@@PAUtagTOOLINFOA@@@Z
	DD	FLAT:?GetScrollBarCtrl@CWnd@@UBEPAVCScrollBar@@H@Z
	DD	FLAT:?WinHelpA@CWnd@@UAEXKI@Z
	DD	FLAT:?HtmlHelpA@CWnd@@UAEXKI@Z
	DD	FLAT:?WinHelpInternal@CWnd@@UAEXKI@Z
	DD	FLAT:?ContinueModal@CWnd@@UAEHXZ
	DD	FLAT:?EndModalLoop@CWnd@@UAEXH@Z
	DD	FLAT:?OnDrawIconicThumbnailOrLivePreview@CWnd@@UAEXAAVCDC@@VCRect@@VCSize@@HAAH@Z
	DD	FLAT:?EnsureStdObj@CWnd@@UAEJXZ
	DD	FLAT:?get_accParent@CWnd@@UAEJPAPAUIDispatch@@@Z
	DD	FLAT:?get_accChildCount@CWnd@@UAEJPAJ@Z
	DD	FLAT:?get_accChild@CWnd@@UAEJUtagVARIANT@@PAPAUIDispatch@@@Z
	DD	FLAT:?get_accName@CWnd@@UAEJUtagVARIANT@@PAPA_W@Z
	DD	FLAT:?get_accValue@CWnd@@UAEJUtagVARIANT@@PAPA_W@Z
	DD	FLAT:?get_accDescription@CWnd@@UAEJUtagVARIANT@@PAPA_W@Z
	DD	FLAT:?get_accRole@CWnd@@UAEJUtagVARIANT@@PAU2@@Z
	DD	FLAT:?get_accState@CWnd@@UAEJUtagVARIANT@@PAU2@@Z
	DD	FLAT:?get_accHelp@CWnd@@UAEJUtagVARIANT@@PAPA_W@Z
	DD	FLAT:?get_accHelpTopic@CWnd@@UAEJPAPA_WUtagVARIANT@@PAJ@Z
	DD	FLAT:?get_accKeyboardShortcut@CWnd@@UAEJUtagVARIANT@@PAPA_W@Z
	DD	FLAT:?get_accFocus@CWnd@@UAEJPAUtagVARIANT@@@Z
	DD	FLAT:?get_accSelection@CWnd@@UAEJPAUtagVARIANT@@@Z
	DD	FLAT:?get_accDefaultAction@CWnd@@UAEJUtagVARIANT@@PAPA_W@Z
	DD	FLAT:?accSelect@CWnd@@UAEJJUtagVARIANT@@@Z
	DD	FLAT:?accLocation@CWnd@@UAEJPAJ000UtagVARIANT@@@Z
	DD	FLAT:?accNavigate@CWnd@@UAEJJUtagVARIANT@@PAU2@@Z
	DD	FLAT:?accHitTest@CWnd@@UAEJJJPAUtagVARIANT@@@Z
	DD	FLAT:?accDoDefaultAction@CWnd@@UAEJUtagVARIANT@@@Z
	DD	FLAT:?put_accName@CWnd@@UAEJUtagVARIANT@@PA_W@Z
	DD	FLAT:?put_accValue@CWnd@@UAEJUtagVARIANT@@PA_W@Z
	DD	FLAT:?SetProxy@CWnd@@UAEJPAUIAccessibleProxy@@@Z
	DD	FLAT:?CreateAccessibleProxy@CWnd@@UAEJIJPAJ@Z
	DD	FLAT:?OnCommand@CWnd@@MAEHIJ@Z
	DD	FLAT:?OnNotify@CWnd@@MAEHIJPAJ@Z
	DD	FLAT:?GetSuperWndProcAddr@CWnd@@MAEPAP6GJPAUHWND__@@IIJ@ZXZ
	DD	FLAT:?DoDataExchange@CWnd@@MAEXPAVCDataExchange@@@Z
	DD	FLAT:?BeginModalState@CWnd@@UAEXXZ
	DD	FLAT:?EndModalState@CWnd@@UAEXXZ
	DD	FLAT:?PreTranslateMessage@CDialog@@UAEHPAUtagMSG@@@Z
	DD	FLAT:?OnAmbientProperty@CWnd@@UAEHPAVCOleControlSite@@JPAUtagVARIANT@@@Z
	DD	FLAT:?WindowProc@CWnd@@MAEJIIJ@Z
	DD	FLAT:?OnWndMsg@CWnd@@MAEHIIJPAJ@Z
	DD	FLAT:?DefWindowProcA@CWnd@@MAEJIIJ@Z
	DD	FLAT:?PostNcDestroy@CWnd@@MAEXXZ
	DD	FLAT:?OnChildNotify@CWnd@@MAEHIIJPAJ@Z
	DD	FLAT:?OnTouchInputs@CWnd@@MAEHIPAUtagTOUCHINPUT@@@Z
	DD	FLAT:?OnTouchInput@CWnd@@MAEHVCPoint@@HHPAUtagTOUCHINPUT@@@Z
	DD	FLAT:?GetGestureStatus@CWnd@@MAEKVCPoint@@@Z
	DD	FLAT:?OnGestureZoom@CWnd@@MAEHVCPoint@@J@Z
	DD	FLAT:?OnGesturePan@CWnd@@MAEHVCPoint@@0@Z
	DD	FLAT:?OnGestureRotate@CWnd@@MAEHVCPoint@@N@Z
	DD	FLAT:?OnGestureTwoFingerTap@CWnd@@MAEHVCPoint@@@Z
	DD	FLAT:?OnGesturePressAndTap@CWnd@@MAEHVCPoint@@J@Z
	DD	FLAT:?ResizeDynamicLayout@CWnd@@MAEXXZ
	DD	FLAT:?CheckAutoCenter@CDialog@@UAEHXZ
	DD	FLAT:?IsFrameWnd@CWnd@@UBEHXZ
	DD	FLAT:?CreateControlContainer@CWnd@@MAEHPAPAVCOleControlContainer@@@Z
	DD	FLAT:?CreateControlSite@CWnd@@MAEHPAVCOleControlContainer@@PAPAVCOleControlSite@@IABU_GUID@@@Z
	DD	FLAT:?SetOccDialogInfo@CDialog@@MAEHPAU_AFX_OCC_DIALOG_INFO@@@Z
	DD	FLAT:?GetOccDialogInfo@CDialog@@MAEPAU_AFX_OCC_DIALOG_INFO@@XZ
	DD	FLAT:?Create@CDialog@@UAEHIPAVCWnd@@@Z
	DD	FLAT:?Create@CDialog@@UAEHPBDPAVCWnd@@@Z
	DD	FLAT:?CreateIndirect@CDialog@@UAEHPAXPAVCWnd@@@Z
	DD	FLAT:?CreateIndirect@CDialog@@UAEHPBUDLGTEMPLATE@@PAVCWnd@@PAX@Z
	DD	FLAT:?DoModal@CDialog@@UAEHXZ
	DD	FLAT:?OnInitDialog@CExDialog@@MAEHXZ
	DD	FLAT:?OnSetFont@CDialog@@UAEXPAVCFont@@@Z
	DD	FLAT:?OnOK@CDialog@@MAEXXZ
	DD	FLAT:?OnCancel@CDialog@@MAEXXZ
	DD	FLAT:?PreInitDialog@CDialog@@MAEXXZ
	DD	FLAT:?ReceiveData@CExDialog@@UAEJJPBD00PAXJ@Z
	DD	FLAT:?ReceiveRealData@CExDialog@@UAEJGPBDPAX@Z
	DD	FLAT:?StatusChange@CExDialog@@UAEJH@Z
	DD	FLAT:?ReceiveMessage@CExDialog@@UAEJJPBD00@Z
	DD	FLAT:?ColorTableChanged@CExDialog@@UAEXXZ
CONST	ENDS
;	COMDAT ??_7CMyISkinColorSite@CExDialog@@6B@
CONST	SEGMENT
??_7CMyISkinColorSite@CExDialog@@6B@ DD FLAT:??_R4CMyISkinColorSite@CExDialog@@6B@ ; CExDialog::CMyISkinColorSite::`vftable'
	DD	FLAT:?ColorTableChanged@CMyISkinColorSite@CExDialog@@UAGXXZ
CONST	ENDS
;	COMDAT ??_7CMyITrCommSite@CExDialog@@6B@
CONST	SEGMENT
??_7CMyITrCommSite@CExDialog@@6B@ DD FLAT:??_R4CMyITrCommSite@CExDialog@@6B@ ; CExDialog::CMyITrCommSite::`vftable'
	DD	FLAT:?ReceiveData@CMyITrCommSite@CExDialog@@UAGJJPBD00PAXJ@Z
	DD	FLAT:?ReceiveRealData@CMyITrCommSite@CExDialog@@UAGJGPBDPAX@Z
	DD	FLAT:?StatusChange@CMyITrCommSite@CExDialog@@UAGJH@Z
	DD	FLAT:?ReceiveMessage@CMyITrCommSite@CExDialog@@UAGJJPBD00@Z
CONST	ENDS
;	COMDAT ??_7?$CList@P6AXXZP6AXXZ@@6B@
CONST	SEGMENT
??_7?$CList@P6AXXZP6AXXZ@@6B@ DD FLAT:??_R4?$CList@P6AXXZP6AXXZ@@6B@ ; CList<void (__cdecl*)(void),void (__cdecl*)(void)>::`vftable'
	DD	FLAT:?GetRuntimeClass@CObject@@UBEPAUCRuntimeClass@@XZ
	DD	FLAT:??_E?$CList@P6AXXZP6AXXZ@@UAEPAXI@Z
	DD	FLAT:?Serialize@?$CList@P6AXXZP6AXXZ@@UAEXAAVCArchive@@@Z
	DD	FLAT:?AssertValid@CObject@@UBEXXZ
	DD	FLAT:?Dump@CObject@@UBEXAAVCDumpContext@@@Z
CONST	ENDS
;	COMDAT ?classCExDialog@CExDialog@@2UCRuntimeClass@@B
CONST	SEGMENT
?classCExDialog@CExDialog@@2UCRuntimeClass@@B DD FLAT:??_C@_09KBGCIPIE@CExDialog@ ; CExDialog::classCExDialog
	DD	01f8H
	DD	0ffffH
	DD	FLAT:?CreateObject@CExDialog@@SGPAVCObject@@XZ
	DD	FLAT:?_GetBaseClass@CExDialog@@KGPAUCRuntimeClass@@XZ
	DD	00H
	DD	00H
CONST	ENDS
;	COMDAT ??_C@_0BA@IJJLANBJ@NotifyPCTrState@
CONST	SEGMENT
??_C@_0BA@IJJLANBJ@NotifyPCTrState@ DB 'NotifyPCTrState', 00H ; `string'
CONST	ENDS
;	COMDAT ??_C@_0M@FECJLPGH@SetPCTrData@
CONST	SEGMENT
??_C@_0M@FECJLPGH@SetPCTrData@ DB 'SetPCTrData', 00H	; `string'
CONST	ENDS
;	COMDAT ??_C@_0M@FLDHGJOE@GetPCTrData@
CONST	SEGMENT
??_C@_0M@FLDHGJOE@GetPCTrData@ DB 'GetPCTrData', 00H	; `string'
CONST	ENDS
;	COMDAT ??_C@_0N@HGGCPMBP@GetInferface@
CONST	SEGMENT
??_C@_0N@HGGCPMBP@GetInferface@ DB 'GetInferface', 00H	; `string'
CONST	ENDS
;	COMDAT ??_C@_0BB@FBHMIJGH@?2dev?2PcTrMng?4dll@
CONST	SEGMENT
??_C@_0BB@FBHMIJGH@?2dev?2PcTrMng?4dll@ DB '\dev\PcTrMng.dll', 00H ; `string'
CONST	ENDS
;	COMDAT ??_7CPCTrMngHelper@@6B@
CONST	SEGMENT
??_7CPCTrMngHelper@@6B@ DD FLAT:??_R4CPCTrMngHelper@@6B@ ; CPCTrMngHelper::`vftable'
	DD	FLAT:?LoadProcAddress@CPCTrMngHelper@@UAEHXZ
CONST	ENDS
;	COMDAT ??_C@_0BO@HDGMHKJP@DLL?$FL?$CFs?$FN?$MA?$LL?5Load?G?R?5?$LM?v?5?$LO?x?$LN?$MA?$LE?O?$LE?Y?4@
CONST	SEGMENT
??_C@_0BO@HDGMHKJP@DLL?$FL?$CFs?$FN?$MA?$LL?5Load?G?R?5?$LM?v?5?$LO?x?$LN?$MA?$LE?O?$LE?Y?4@ DB 'D'
	DB	'LL[%s]', 0c0H, 0bbH, ' Load', 0c7H, 0d2H, ' ', 0bcH, 0f6H, ' '
	DB	0beH, 0f8H, 0bdH, 0c0H, 0b4H, 0cfH, 0b4H, 0d9H, '.', 00H ; `string'
CONST	ENDS
;	COMDAT ??_7CLoadLib@@6B@
CONST	SEGMENT
??_7CLoadLib@@6B@ DD FLAT:??_R4CLoadLib@@6B@		; CLoadLib::`vftable'
	DD	FLAT:?LoadProcAddress@CLoadLib@@UAEHXZ
CONST	ENDS
;	COMDAT ??_C@_02EMFKHFLK@?$CFX@
CONST	SEGMENT
??_C@_02EMFKHFLK@?$CFX@ DB '%X', 00H			; `string'
CONST	ENDS
;	COMDAT ??_C@_06NDLAHCHE@?$CFs?$CF08X@
CONST	SEGMENT
??_C@_06NDLAHCHE@?$CFs?$CF08X@ DB '%s%08X', 00H		; `string'
CONST	ENDS
;	COMDAT ??_C@_0M@CBBNGGHM@PcTrMng?4dll@
CONST	SEGMENT
??_C@_0M@CBBNGGHM@PcTrMng?4dll@ DB 'PcTrMng.dll', 00H	; `string'
CONST	ENDS
;	COMDAT ??_R2CDialog@@8
rdata$r	SEGMENT
??_R2CDialog@@8 DD FLAT:??_R1A@?0A@EA@CDialog@@8	; CDialog::`RTTI Base Class Array'
	DD	FLAT:??_R1A@?0A@EA@CWnd@@8
	DD	FLAT:??_R1A@?0A@EA@CCmdTarget@@8
	DD	FLAT:??_R1A@?0A@EA@CObject@@8
rdata$r	ENDS
;	COMDAT ??_R3CDialog@@8
rdata$r	SEGMENT
??_R3CDialog@@8 DD 00H					; CDialog::`RTTI Class Hierarchy Descriptor'
	DD	00H
	DD	04H
	DD	FLAT:??_R2CDialog@@8
rdata$r	ENDS
;	COMDAT ??_R0?AVCDialog@@@8
data$rs	SEGMENT
??_R0?AVCDialog@@@8 DD FLAT:??_7type_info@@6B@		; CDialog `RTTI Type Descriptor'
	DD	00H
	DB	'.?AVCDialog@@', 00H
data$rs	ENDS
;	COMDAT ??_R1A@?0A@EA@CDialog@@8
rdata$r	SEGMENT
??_R1A@?0A@EA@CDialog@@8 DD FLAT:??_R0?AVCDialog@@@8	; CDialog::`RTTI Base Class Descriptor at (0,-1,0,64)'
	DD	03H
	DD	00H
	DD	0ffffffffH
	DD	00H
	DD	040H
	DD	FLAT:??_R3CDialog@@8
rdata$r	ENDS
;	COMDAT ??_R2CCmdTarget@@8
rdata$r	SEGMENT
??_R2CCmdTarget@@8 DD FLAT:??_R1A@?0A@EA@CCmdTarget@@8	; CCmdTarget::`RTTI Base Class Array'
	DD	FLAT:??_R1A@?0A@EA@CObject@@8
rdata$r	ENDS
;	COMDAT ??_R3CCmdTarget@@8
rdata$r	SEGMENT
??_R3CCmdTarget@@8 DD 00H				; CCmdTarget::`RTTI Class Hierarchy Descriptor'
	DD	00H
	DD	02H
	DD	FLAT:??_R2CCmdTarget@@8
rdata$r	ENDS
;	COMDAT ??_R0?AVCCmdTarget@@@8
data$rs	SEGMENT
??_R0?AVCCmdTarget@@@8 DD FLAT:??_7type_info@@6B@	; CCmdTarget `RTTI Type Descriptor'
	DD	00H
	DB	'.?AVCCmdTarget@@', 00H
data$rs	ENDS
;	COMDAT ??_R1A@?0A@EA@CCmdTarget@@8
rdata$r	SEGMENT
??_R1A@?0A@EA@CCmdTarget@@8 DD FLAT:??_R0?AVCCmdTarget@@@8 ; CCmdTarget::`RTTI Base Class Descriptor at (0,-1,0,64)'
	DD	01H
	DD	00H
	DD	0ffffffffH
	DD	00H
	DD	040H
	DD	FLAT:??_R3CCmdTarget@@8
rdata$r	ENDS
;	COMDAT ??_R2CWnd@@8
rdata$r	SEGMENT
??_R2CWnd@@8 DD	FLAT:??_R1A@?0A@EA@CWnd@@8		; CWnd::`RTTI Base Class Array'
	DD	FLAT:??_R1A@?0A@EA@CCmdTarget@@8
	DD	FLAT:??_R1A@?0A@EA@CObject@@8
rdata$r	ENDS
;	COMDAT ??_R3CWnd@@8
rdata$r	SEGMENT
??_R3CWnd@@8 DD	00H					; CWnd::`RTTI Class Hierarchy Descriptor'
	DD	00H
	DD	03H
	DD	FLAT:??_R2CWnd@@8
rdata$r	ENDS
;	COMDAT ??_R0?AVCWnd@@@8
data$rs	SEGMENT
??_R0?AVCWnd@@@8 DD FLAT:??_7type_info@@6B@		; CWnd `RTTI Type Descriptor'
	DD	00H
	DB	'.?AVCWnd@@', 00H
data$rs	ENDS
;	COMDAT ??_R1A@?0A@EA@CWnd@@8
rdata$r	SEGMENT
??_R1A@?0A@EA@CWnd@@8 DD FLAT:??_R0?AVCWnd@@@8		; CWnd::`RTTI Base Class Descriptor at (0,-1,0,64)'
	DD	02H
	DD	00H
	DD	0ffffffffH
	DD	00H
	DD	040H
	DD	FLAT:??_R3CWnd@@8
rdata$r	ENDS
;	COMDAT ??_R1A@?0A@EA@CObject@@8
rdata$r	SEGMENT
??_R1A@?0A@EA@CObject@@8 DD FLAT:??_R0?AVCObject@@@8	; CObject::`RTTI Base Class Descriptor at (0,-1,0,64)'
	DD	00H
	DD	00H
	DD	0ffffffffH
	DD	00H
	DD	040H
	DD	FLAT:??_R3CObject@@8
rdata$r	ENDS
;	COMDAT ??_R2CObject@@8
rdata$r	SEGMENT
??_R2CObject@@8 DD FLAT:??_R1A@?0A@EA@CObject@@8	; CObject::`RTTI Base Class Array'
rdata$r	ENDS
;	COMDAT ??_R3CObject@@8
rdata$r	SEGMENT
??_R3CObject@@8 DD 00H					; CObject::`RTTI Class Hierarchy Descriptor'
	DD	00H
	DD	01H
	DD	FLAT:??_R2CObject@@8
rdata$r	ENDS
;	COMDAT ??_R0?AVCObject@@@8
data$rs	SEGMENT
??_R0?AVCObject@@@8 DD FLAT:??_7type_info@@6B@		; CObject `RTTI Type Descriptor'
	DD	00H
	DB	'.?AVCObject@@', 00H
data$rs	ENDS
;	COMDAT xdata$x
xdata$x	SEGMENT
__unwindtable$??_GCExDialog@@UAEPAXI@Z DD 0ffffffffH
	DD	FLAT:___std_terminate
__ehfuncinfo$??_GCExDialog@@UAEPAXI@Z DD 019930522H
	DD	01H
	DD	FLAT:__unwindtable$??_GCExDialog@@UAEPAXI@Z
	DD	2 DUP(00H)
	DD	2 DUP(00H)
	DD	00H
	DD	05H
xdata$x	ENDS
;	COMDAT xdata$x
xdata$x	SEGMENT
__unwindtable$??1CExDialog@@UAE@XZ DD 0ffffffffH
	DD	FLAT:___std_terminate
__ehfuncinfo$??1CExDialog@@UAE@XZ DD 019930522H
	DD	01H
	DD	FLAT:__unwindtable$??1CExDialog@@UAE@XZ
	DD	2 DUP(00H)
	DD	2 DUP(00H)
	DD	00H
	DD	05H
xdata$x	ENDS
;	COMDAT xdata$x
xdata$x	SEGMENT
__unwindtable$?OnDestroy@CExDialog@@IAEXXZ DD 0ffffffffH
	DD	FLAT:___std_terminate
__ehfuncinfo$?OnDestroy@CExDialog@@IAEXXZ DD 019930522H
	DD	01H
	DD	FLAT:__unwindtable$?OnDestroy@CExDialog@@IAEXXZ
	DD	2 DUP(00H)
	DD	2 DUP(00H)
	DD	00H
	DD	01H
xdata$x	ENDS
;	COMDAT xdata$x
xdata$x	SEGMENT
__unwindtable$?OnInitDialog@CExDialog@@MAEHXZ DD 0ffffffffH
	DD	FLAT:__unwindfunclet$?OnInitDialog@CExDialog@@MAEHXZ$0
	DD	0ffffffffH
	DD	FLAT:__unwindfunclet$?OnInitDialog@CExDialog@@MAEHXZ$1
__ehfuncinfo$?OnInitDialog@CExDialog@@MAEHXZ DD 019930522H
	DD	02H
	DD	FLAT:__unwindtable$?OnInitDialog@CExDialog@@MAEHXZ
	DD	2 DUP(00H)
	DD	2 DUP(00H)
	DD	00H
	DD	01H
xdata$x	ENDS
;	COMDAT xdata$x
xdata$x	SEGMENT
__unwindtable$??_G?$CList@P6AXXZP6AXXZ@@UAEPAXI@Z DD 0ffffffffH
	DD	FLAT:___std_terminate
__ehfuncinfo$??_G?$CList@P6AXXZP6AXXZ@@UAEPAXI@Z DD 019930522H
	DD	01H
	DD	FLAT:__unwindtable$??_G?$CList@P6AXXZP6AXXZ@@UAEPAXI@Z
	DD	2 DUP(00H)
	DD	2 DUP(00H)
	DD	00H
	DD	05H
xdata$x	ENDS
;	COMDAT xdata$x
xdata$x	SEGMENT
__ehfuncinfo$??1?$CList@P6AXXZP6AXXZ@@UAE@XZ DD 019930522H
	DD	00H
	DD	00H
	DD	2 DUP(00H)
	DD	2 DUP(00H)
	DD	00H
	DD	05H
xdata$x	ENDS
;	COMDAT xdata$x
xdata$x	SEGMENT
__unwindtable$??0CExDialog@@QAE@IPAVCWnd@@I@Z DD 0ffffffffH
	DD	FLAT:__unwindfunclet$??0CExDialog@@QAE@IPAVCWnd@@I@Z$0
__ehfuncinfo$??0CExDialog@@QAE@IPAVCWnd@@I@Z DD 019930522H
	DD	01H
	DD	FLAT:__unwindtable$??0CExDialog@@QAE@IPAVCWnd@@I@Z
	DD	2 DUP(00H)
	DD	2 DUP(00H)
	DD	00H
	DD	01H
xdata$x	ENDS
;	COMDAT xdata$x
xdata$x	SEGMENT
__unwindtable$??0CExDialog@@QAE@XZ DD 0ffffffffH
	DD	FLAT:__unwindfunclet$??0CExDialog@@QAE@XZ$0
__ehfuncinfo$??0CExDialog@@QAE@XZ DD 019930522H
	DD	01H
	DD	FLAT:__unwindtable$??0CExDialog@@QAE@XZ
	DD	2 DUP(00H)
	DD	2 DUP(00H)
	DD	00H
	DD	01H
xdata$x	ENDS
;	COMDAT xdata$x
xdata$x	SEGMENT
__unwindtable$?CreateObject@CExDialog@@SGPAVCObject@@XZ DD 0ffffffffH
	DD	FLAT:__unwindfunclet$?CreateObject@CExDialog@@SGPAVCObject@@XZ$0
	DD	00H
	DD	FLAT:__unwindfunclet$?CreateObject@CExDialog@@SGPAVCObject@@XZ$1
__ehfuncinfo$?CreateObject@CExDialog@@SGPAVCObject@@XZ DD 019930522H
	DD	02H
	DD	FLAT:__unwindtable$?CreateObject@CExDialog@@SGPAVCObject@@XZ
	DD	2 DUP(00H)
	DD	2 DUP(00H)
	DD	00H
	DD	01H
xdata$x	ENDS
;	COMDAT xdata$x
xdata$x	SEGMENT
__unwindtable$??_GCPCTrMngHelper@@QAEPAXI@Z DD 0ffffffffH
	DD	FLAT:___std_terminate
__ehfuncinfo$??_GCPCTrMngHelper@@QAEPAXI@Z DD 019930522H
	DD	01H
	DD	FLAT:__unwindtable$??_GCPCTrMngHelper@@QAEPAXI@Z
	DD	2 DUP(00H)
	DD	2 DUP(00H)
	DD	00H
	DD	05H
xdata$x	ENDS
;	COMDAT xdata$x
xdata$x	SEGMENT
__unwindtable$??1CPCTrMngHelper@@QAE@XZ DD 0ffffffffH
	DD	FLAT:___std_terminate
__ehfuncinfo$??1CPCTrMngHelper@@QAE@XZ DD 019930522H
	DD	01H
	DD	FLAT:__unwindtable$??1CPCTrMngHelper@@QAE@XZ
	DD	2 DUP(00H)
	DD	2 DUP(00H)
	DD	00H
	DD	05H
xdata$x	ENDS
;	COMDAT xdata$x
xdata$x	SEGMENT
__ehfuncinfo$??0CPCTrMngHelper@@QAE@XZ DD 019930522H
	DD	08H
	DD	FLAT:__unwindtable$??0CPCTrMngHelper@@QAE@XZ
	DD	2 DUP(00H)
	DD	2 DUP(00H)
	DD	00H
	DD	01H
__unwindtable$??0CPCTrMngHelper@@QAE@XZ DD 0ffffffffH
	DD	FLAT:__unwindfunclet$??0CPCTrMngHelper@@QAE@XZ$0
	DD	00H
	DD	FLAT:__unwindfunclet$??0CPCTrMngHelper@@QAE@XZ$1
	DD	01H
	DD	FLAT:__unwindfunclet$??0CPCTrMngHelper@@QAE@XZ$2
	DD	02H
	DD	FLAT:__unwindfunclet$??0CPCTrMngHelper@@QAE@XZ$3
	DD	02H
	DD	FLAT:__unwindfunclet$??0CPCTrMngHelper@@QAE@XZ$4
	DD	01H
	DD	FLAT:__unwindfunclet$??0CPCTrMngHelper@@QAE@XZ$6
	DD	01H
	DD	FLAT:__unwindfunclet$??0CPCTrMngHelper@@QAE@XZ$7
	DD	06H
	DD	FLAT:__unwindfunclet$??0CPCTrMngHelper@@QAE@XZ$8
xdata$x	ENDS
;	COMDAT xdata$x
xdata$x	SEGMENT
__unwindtable$?LoadLib@CLoadLib@@QAEPAUHINSTANCE__@@XZ DD 0ffffffffH
	DD	FLAT:__unwindfunclet$?LoadLib@CLoadLib@@QAEPAUHINSTANCE__@@XZ$0
	DD	00H
	DD	FLAT:__unwindfunclet$?LoadLib@CLoadLib@@QAEPAUHINSTANCE__@@XZ$1
__ehfuncinfo$?LoadLib@CLoadLib@@QAEPAUHINSTANCE__@@XZ DD 019930522H
	DD	02H
	DD	FLAT:__unwindtable$?LoadLib@CLoadLib@@QAEPAUHINSTANCE__@@XZ
	DD	2 DUP(00H)
	DD	2 DUP(00H)
	DD	00H
	DD	01H
xdata$x	ENDS
;	COMDAT xdata$x
xdata$x	SEGMENT
__ehfuncinfo$??1CLoadLib@@QAE@XZ DD 019930522H
	DD	00H
	DD	00H
	DD	2 DUP(00H)
	DD	2 DUP(00H)
	DD	00H
	DD	05H
xdata$x	ENDS
;	COMDAT xdata$x
xdata$x	SEGMENT
__unwindtable$??HATL@@YA?AV?$CStringT@DV?$StrTraitMFC_DLL@DV?$ChTraitsCRT@D@ATL@@@@@0@ABV10@PBD@Z DD 0ffffffffH
	DD	FLAT:__unwindfunclet$??HATL@@YA?AV?$CStringT@DV?$StrTraitMFC_DLL@DV?$ChTraitsCRT@D@ATL@@@@@0@ABV10@PBD@Z$0
__ehfuncinfo$??HATL@@YA?AV?$CStringT@DV?$StrTraitMFC_DLL@DV?$ChTraitsCRT@D@ATL@@@@@0@ABV10@PBD@Z DD 019930522H
	DD	01H
	DD	FLAT:__unwindtable$??HATL@@YA?AV?$CStringT@DV?$StrTraitMFC_DLL@DV?$ChTraitsCRT@D@ATL@@@@@0@ABV10@PBD@Z
	DD	2 DUP(00H)
	DD	2 DUP(00H)
	DD	00H
	DD	01H
xdata$x	ENDS
CRT$XCU	SEGMENT
?RMSG_GETPCTRDATA$initializer$@@3P6AXXZA DD FLAT:??__ERMSG_GETPCTRDATA@@YAXXZ ; RMSG_GETPCTRDATA$initializer$
CRT$XCU	ENDS
CRT$XCU	SEGMENT
?RMSG_SETPCTRDATA$initializer$@@3P6AXXZA DD FLAT:??__ERMSG_SETPCTRDATA@@YAXXZ ; RMSG_SETPCTRDATA$initializer$
CRT$XCU	ENDS
; Function compile flags: /Odsp
;	COMDAT ??_ECExDialog@@WKI@AEPAXI@Z
_TEXT	SEGMENT
??_ECExDialog@@WKI@AEPAXI@Z PROC			; [thunk]:CExDialog::`vector deleting destructor', COMDAT
  00000	81 e9 a8 00 00
	00		 sub	 ecx, 168		; 000000a8H
  00006	e9 00 00 00 00	 jmp	 ??_ECExDialog@@UAEPAXI@Z
??_ECExDialog@@WKI@AEPAXI@Z ENDP			; [thunk]:CExDialog::`vector deleting destructor'
_TEXT	ENDS
; Function compile flags: /Ogtp
; File C:\Program Files (x86)\Microsoft Visual Studio\2019\Community\VC\Tools\MSVC\14.29.30133\atlmfc\include\afxtempl.h
; File C:\Program Files (x86)\Microsoft Visual Studio\2019\Community\VC\Tools\MSVC\14.29.30133\atlmfc\include\afx.inl
; File C:\Program Files (x86)\Microsoft Visual Studio\2019\Community\VC\Tools\MSVC\14.29.30133\atlmfc\include\afxtempl.h
; File C:\Program Files (x86)\Microsoft Visual Studio\2019\Community\VC\Tools\MSVC\14.29.30133\atlmfc\include\afx.inl
; File C:\Program Files (x86)\Microsoft Visual Studio\2019\Community\VC\Tools\MSVC\14.29.30133\atlmfc\include\afxtempl.h
; File C:\Program Files (x86)\Microsoft Visual Studio\2019\Community\VC\Tools\MSVC\14.29.30133\atlmfc\include\afx.inl
; File C:\Program Files (x86)\Microsoft Visual Studio\2019\Community\VC\Tools\MSVC\14.29.30133\atlmfc\include\afxtempl.h
;	COMDAT ??$SerializeElements@P6AXXZ@@YGXAAVCArchive@@PAP6AXXZH@Z
_TEXT	SEGMENT
_ar$ = 8						; size = 4
_pElements$ = 12					; size = 4
_nCount$ = 16						; size = 4
??$SerializeElements@P6AXXZ@@YGXAAVCArchive@@PAP6AXXZH@Z PROC ; SerializeElements<void (__cdecl*)(void)>, COMDAT

; 67   : {

  00000	55		 push	 ebp
  00001	8b ec		 mov	 ebp, esp

; 68   : 	ENSURE(nCount == 0 || pElements != NULL);

  00003	8b 4d 0c	 mov	 ecx, DWORD PTR _pElements$[ebp]
  00006	53		 push	 ebx
  00007	56		 push	 esi
  00008	8b 75 10	 mov	 esi, DWORD PTR _nCount$[ebp]
  0000b	57		 push	 edi
  0000c	85 f6		 test	 esi, esi
  0000e	74 08		 je	 SHORT $LN2@SerializeE
  00010	85 c9		 test	 ecx, ecx
  00012	0f 84 89 00 00
	00		 je	 $LN34@SerializeE
$LN2@SerializeE:
; File C:\Program Files (x86)\Microsoft Visual Studio\2019\Community\VC\Tools\MSVC\14.29.30133\atlmfc\include\afx.inl

; 212  : 	{ return (m_nMode & CArchive::load) == 0; }

  00018	8b 55 08	 mov	 edx, DWORD PTR _ar$[ebp]
  0001b	8b 42 18	 mov	 eax, DWORD PTR [edx+24]
  0001e	f7 d0		 not	 eax
  00020	a8 01		 test	 al, 1
; File C:\Program Files (x86)\Microsoft Visual Studio\2019\Community\VC\Tools\MSVC\14.29.30133\atlmfc\include\afxtempl.h

; 73   : 	if (ar.IsStoring())

  00022	74 3c		 je	 SHORT $LN10@SerializeE

; 74   : 	{
; 75   : 		TYPE* pData;
; 76   : 		UINT_PTR nElementsLeft;
; 77   : 
; 78   : 		nElementsLeft = nCount;
; 79   : 		pData = pElements;
; 80   : 		while( nElementsLeft > 0 )

  00024	85 f6		 test	 esi, esi
  00026	74 31		 je	 SHORT $LN8@SerializeE
  00028	0f 1f 84 00 00
	00 00 00	 npad	 8
$LL5@SerializeE:

; 81   : 		{
; 82   : 			UINT nElementsToWrite;
; 83   : 
; 84   : 			nElementsToWrite = UINT(__min(nElementsLeft, INT_MAX/sizeof(TYPE)));

  00030	bb ff ff ff 1f	 mov	 ebx, 536870911		; 1fffffffH
  00035	3b f3		 cmp	 esi, ebx
  00037	0f 42 de	 cmovb	 ebx, esi

; 85   : 			ar.Write(pData, nElementsToWrite*sizeof(TYPE));

  0003a	8d 3c 9d 00 00
	00 00		 lea	 edi, DWORD PTR [ebx*4]
  00041	57		 push	 edi
  00042	51		 push	 ecx
  00043	8b ca		 mov	 ecx, edx
  00045	e8 00 00 00 00	 call	 ?Write@CArchive@@QAEXPBXI@Z ; CArchive::Write

; 86   : 			nElementsLeft -= nElementsToWrite;
; 87   : 			pData += nElementsToWrite;

  0004a	8b 4d 0c	 mov	 ecx, DWORD PTR _pElements$[ebp]
  0004d	8b 55 08	 mov	 edx, DWORD PTR _ar$[ebp]
  00050	03 cf		 add	 ecx, edi
  00052	89 4d 0c	 mov	 DWORD PTR _pElements$[ebp], ecx
  00055	2b f3		 sub	 esi, ebx
  00057	75 d7		 jne	 SHORT $LL5@SerializeE
$LN8@SerializeE:
  00059	5f		 pop	 edi

; 105  : 		}
; 106  : 	}
; 107  : }

  0005a	5e		 pop	 esi
  0005b	5b		 pop	 ebx
  0005c	5d		 pop	 ebp
  0005d	c2 0c 00	 ret	 12			; 0000000cH
$LN10@SerializeE:

; 97   : 		while( nElementsLeft > 0 )

  00060	85 f6		 test	 esi, esi
  00062	74 f5		 je	 SHORT $LN8@SerializeE
$LL7@SerializeE:

; 98   : 		{
; 99   : 			UINT nElementsToRead;
; 100  : 
; 101  : 			nElementsToRead = UINT(__min(nElementsLeft, INT_MAX/sizeof(TYPE)));

  00064	bf ff ff ff 1f	 mov	 edi, 536870911		; 1fffffffH
  00069	3b f7		 cmp	 esi, edi
  0006b	0f 42 fe	 cmovb	 edi, esi

; 102  : 			ar.EnsureRead(pData, nElementsToRead*sizeof(TYPE));

  0006e	8d 1c bd 00 00
	00 00		 lea	 ebx, DWORD PTR [edi*4]
; File C:\Program Files (x86)\Microsoft Visual Studio\2019\Community\VC\Tools\MSVC\14.29.30133\atlmfc\include\afx.inl

; 399  : 	UINT nRead=Read(lpBuf, nCount);

  00075	53		 push	 ebx
  00076	51		 push	 ecx
  00077	8b ca		 mov	 ecx, edx
  00079	e8 00 00 00 00	 call	 ?Read@CArchive@@QAEIPAXI@Z ; CArchive::Read

; 400  : 	if(nRead!=nCount)

  0007e	3b c3		 cmp	 eax, ebx
  00080	75 16		 jne	 SHORT $LN23@SerializeE
; File C:\Program Files (x86)\Microsoft Visual Studio\2019\Community\VC\Tools\MSVC\14.29.30133\atlmfc\include\afxtempl.h

; 97   : 		while( nElementsLeft > 0 )

  00082	8b 4d 0c	 mov	 ecx, DWORD PTR _pElements$[ebp]
  00085	8b 55 08	 mov	 edx, DWORD PTR _ar$[ebp]

; 103  : 			nElementsLeft -= nElementsToRead;
; 104  : 			pData += nElementsToRead;

  00088	03 cb		 add	 ecx, ebx
  0008a	89 4d 0c	 mov	 DWORD PTR _pElements$[ebp], ecx
  0008d	2b f7		 sub	 esi, edi
  0008f	75 d3		 jne	 SHORT $LL7@SerializeE

; 105  : 		}
; 106  : 	}
; 107  : }

  00091	5f		 pop	 edi
  00092	5e		 pop	 esi
  00093	5b		 pop	 ebx
  00094	5d		 pop	 ebp
  00095	c2 0c 00	 ret	 12			; 0000000cH
$LN23@SerializeE:
; File C:\Program Files (x86)\Microsoft Visual Studio\2019\Community\VC\Tools\MSVC\14.29.30133\atlmfc\include\afx.inl

; 402  : 		AfxThrowArchiveException(CArchiveException::endOfFile);

  00098	6a 00		 push	 0
  0009a	6a 03		 push	 3
  0009c	e8 00 00 00 00	 call	 ?AfxThrowArchiveException@@YGXHPBD@Z ; AfxThrowArchiveException
$LN34@SerializeE:
; File C:\Program Files (x86)\Microsoft Visual Studio\2019\Community\VC\Tools\MSVC\14.29.30133\atlmfc\include\afxtempl.h

; 68   : 	ENSURE(nCount == 0 || pElements != NULL);

  000a1	e8 00 00 00 00	 call	 ?AfxThrowInvalidArgException@@YGXXZ ; AfxThrowInvalidArgException
$LN32@SerializeE:
  000a6	cc		 int	 3
??$SerializeElements@P6AXXZ@@YGXAAVCArchive@@PAP6AXXZH@Z ENDP ; SerializeElements<void (__cdecl*)(void)>
_TEXT	ENDS
; Function compile flags: /Ogtp
; File C:\Program Files (x86)\Microsoft Visual Studio\2019\Community\VC\Tools\MSVC\14.29.30133\atlmfc\include\afxtempl.h
;	COMDAT ??$CompareElements@P6AXXZP6AXXZ@@YGHPBQ6AXXZ0@Z
_TEXT	SEGMENT
_pElement1$ = 8						; size = 4
_pElement2$ = 12					; size = 4
??$CompareElements@P6AXXZP6AXXZ@@YGHPBQ6AXXZ0@Z PROC	; CompareElements<void (__cdecl*)(void),void (__cdecl*)(void)>, COMDAT

; 151  : {

  00000	55		 push	 ebp
  00001	8b ec		 mov	 ebp, esp

; 152  : 	ENSURE(pElement1 != NULL && pElement2 != NULL);

  00003	8b 4d 08	 mov	 ecx, DWORD PTR _pElement1$[ebp]
  00006	85 c9		 test	 ecx, ecx
  00008	74 14		 je	 SHORT $LN7@CompareEle
  0000a	8b 55 0c	 mov	 edx, DWORD PTR _pElement2$[ebp]
  0000d	85 d2		 test	 edx, edx
  0000f	74 0d		 je	 SHORT $LN7@CompareEle

; 153  : 	ASSERT(AfxIsValidAddress(pElement1, sizeof(TYPE), FALSE));
; 154  : 	ASSERT(AfxIsValidAddress(pElement2, sizeof(ARG_TYPE), FALSE));
; 155  : 
; 156  : 	return *pElement1 == *pElement2;

  00011	8b 09		 mov	 ecx, DWORD PTR [ecx]
  00013	33 c0		 xor	 eax, eax
  00015	3b 0a		 cmp	 ecx, DWORD PTR [edx]
  00017	0f 94 c0	 sete	 al

; 157  : }

  0001a	5d		 pop	 ebp
  0001b	c2 08 00	 ret	 8
$LN7@CompareEle:

; 152  : 	ENSURE(pElement1 != NULL && pElement2 != NULL);

  0001e	e8 00 00 00 00	 call	 ?AfxThrowInvalidArgException@@YGXXZ ; AfxThrowInvalidArgException
$LN10@CompareEle:
  00023	cc		 int	 3
??$CompareElements@P6AXXZP6AXXZ@@YGHPBQ6AXXZ0@Z ENDP	; CompareElements<void (__cdecl*)(void),void (__cdecl*)(void)>
_TEXT	ENDS
; Function compile flags: /Ogtp
; File C:\Program Files (x86)\Microsoft Visual Studio\2019\Community\VC\Tools\MSVC\14.29.30133\atlmfc\include\afxtempl.h
; File C:\Program Files (x86)\Microsoft Visual Studio\2019\Community\VC\Tools\MSVC\14.29.30133\atlmfc\include\afx.inl
;	COMDAT ??_GCExDialog@@UAEPAXI@Z
_TEXT	SEGMENT
__$EHRec$ = -12						; size = 12
___flags$ = 8						; size = 4
??_GCExDialog@@UAEPAXI@Z PROC				; CExDialog::`scalar deleting destructor', COMDAT
; _this$ = ecx
  00000	55		 push	 ebp
  00001	8b ec		 mov	 ebp, esp
  00003	6a ff		 push	 -1
  00005	68 00 00 00 00	 push	 __ehhandler$??_GCExDialog@@UAEPAXI@Z
  0000a	64 a1 00 00 00
	00		 mov	 eax, DWORD PTR fs:0
  00010	50		 push	 eax
  00011	56		 push	 esi
  00012	a1 00 00 00 00	 mov	 eax, DWORD PTR ___security_cookie
  00017	33 c5		 xor	 eax, ebp
  00019	50		 push	 eax
  0001a	8d 45 f4	 lea	 eax, DWORD PTR __$EHRec$[ebp]
  0001d	64 a3 00 00 00
	00		 mov	 DWORD PTR fs:0, eax
  00023	8b f1		 mov	 esi, ecx
; File C:\Program Files (x86)\Microsoft Visual Studio\2019\Community\VC\Tools\MSVC\14.29.30133\atlmfc\include\afxtempl.h

; 872  : 	m_pBlocks->FreeDataChain();

  00025	8b 8e d8 01 00
	00		 mov	 ecx, DWORD PTR [esi+472]

; 878  : {

  0002b	c7 45 fc 00 00
	00 00		 mov	 DWORD PTR __$EHRec$[ebp+8], 0
  00032	c7 86 c4 01 00
	00 00 00 00 00	 mov	 DWORD PTR [esi+452], OFFSET ??_7?$CList@P6AXXZP6AXXZ@@6B@

; 870  : 	m_nCount = 0;

  0003c	c7 86 d0 01 00
	00 00 00 00 00	 mov	 DWORD PTR [esi+464], 0

; 871  : 	m_pNodeHead = m_pNodeTail = m_pNodeFree = NULL;

  00046	c7 86 d4 01 00
	00 00 00 00 00	 mov	 DWORD PTR [esi+468], 0
  00050	c7 86 cc 01 00
	00 00 00 00 00	 mov	 DWORD PTR [esi+460], 0
  0005a	c7 86 c8 01 00
	00 00 00 00 00	 mov	 DWORD PTR [esi+456], 0

; 872  : 	m_pBlocks->FreeDataChain();

  00064	e8 00 00 00 00	 call	 ?FreeDataChain@CPlex@@QAEXXZ ; CPlex::FreeDataChain
  00069	8d 8e a8 00 00
	00		 lea	 ecx, DWORD PTR [esi+168]

; 873  : 	m_pBlocks = NULL;

  0006f	c7 86 d8 01 00
	00 00 00 00 00	 mov	 DWORD PTR [esi+472], 0
  00079	e8 00 00 00 00	 call	 ??1CExResize@@UAE@XZ	; CExResize::~CExResize
  0007e	8b ce		 mov	 ecx, esi
  00080	e8 00 00 00 00	 call	 ??1CDialog@@UAE@XZ	; CDialog::~CDialog
  00085	8b 45 08	 mov	 eax, DWORD PTR ___flags$[ebp]
  00088	a8 01		 test	 al, 1
  0008a	74 2f		 je	 SHORT $LN25@scalar
  0008c	a8 04		 test	 al, 4
  0008e	75 1d		 jne	 SHORT $LN3@scalar
; File C:\Program Files (x86)\Microsoft Visual Studio\2019\Community\VC\Tools\MSVC\14.29.30133\atlmfc\include\afx.inl

; 112  : 	{ ::operator delete(p); }

  00090	56		 push	 esi
  00091	e8 00 00 00 00	 call	 ??3@YAXPAX@Z		; operator delete
  00096	83 c4 04	 add	 esp, 4
  00099	8b c6		 mov	 eax, esi
  0009b	8b 4d f4	 mov	 ecx, DWORD PTR __$EHRec$[ebp]
  0009e	64 89 0d 00 00
	00 00		 mov	 DWORD PTR fs:0, ecx
  000a5	59		 pop	 ecx
  000a6	5e		 pop	 esi
  000a7	8b e5		 mov	 esp, ebp
  000a9	5d		 pop	 ebp
  000aa	c2 04 00	 ret	 4
$LN3@scalar:
  000ad	68 f8 01 00 00	 push	 504			; 000001f8H
  000b2	56		 push	 esi
  000b3	e8 00 00 00 00	 call	 ?__global_delete@@YAXPAXI@Z ; __global_delete
  000b8	83 c4 08	 add	 esp, 8
$LN25@scalar:
  000bb	8b c6		 mov	 eax, esi
  000bd	8b 4d f4	 mov	 ecx, DWORD PTR __$EHRec$[ebp]
  000c0	64 89 0d 00 00
	00 00		 mov	 DWORD PTR fs:0, ecx
  000c7	59		 pop	 ecx
  000c8	5e		 pop	 esi
  000c9	8b e5		 mov	 esp, ebp
  000cb	5d		 pop	 ebp
  000cc	c2 04 00	 ret	 4
  000cf	cc		 int	 3
  000d0	cc		 int	 3
  000d1	cc		 int	 3
  000d2	cc		 int	 3
  000d3	cc		 int	 3
_TEXT	ENDS
;	COMDAT text$x
text$x	SEGMENT
__ehhandler$??_GCExDialog@@UAEPAXI@Z:
  00000	90		 npad	 1
  00001	90		 npad	 1
  00002	8b 54 24 08	 mov	 edx, DWORD PTR [esp+8]
  00006	8d 42 0c	 lea	 eax, DWORD PTR [edx+12]
  00009	8b 4a f8	 mov	 ecx, DWORD PTR [edx-8]
  0000c	33 c8		 xor	 ecx, eax
  0000e	e8 00 00 00 00	 call	 @__security_check_cookie@4
  00013	b8 00 00 00 00	 mov	 eax, OFFSET __ehfuncinfo$??_GCExDialog@@UAEPAXI@Z
  00018	e9 00 00 00 00	 jmp	 ___CxxFrameHandler3
text$x	ENDS
??_GCExDialog@@UAEPAXI@Z ENDP				; CExDialog::`scalar deleting destructor'
; Function compile flags: /Ogtp
; File D:\git\src\IBK\IBK_DRFN\ProjSrc\SrcDrfn\Chart\ExControl\ExDialog.cpp
; File C:\Program Files (x86)\Microsoft Visual Studio\2019\Community\VC\Tools\MSVC\14.29.30133\atlmfc\include\afxtempl.h
; File D:\git\src\IBK\IBK_DRFN\ProjSrc\SrcDrfn\Chart\ExControl\ExDialog.cpp
;	COMDAT ?NotifyToCtrlColorTableChanged@CExDialog@@IAEXXZ
_TEXT	SEGMENT
?NotifyToCtrlColorTableChanged@CExDialog@@IAEXXZ PROC	; CExDialog::NotifyToCtrlColorTableChanged, COMDAT
; _this$ = ecx

; 182  : {

  00000	56		 push	 esi

; 183  : 	POSITION pos = m_listChangeSkinNotify.GetHeadPosition();

  00001	8b b1 c8 01 00
	00		 mov	 esi, DWORD PTR [ecx+456]

; 184  : 	while(pos)

  00007	85 f6		 test	 esi, esi
  00009	74 10		 je	 SHORT $LN3@NotifyToCt
  0000b	0f 1f 44 00 00	 npad	 5
$LL2@NotifyToCt:

; 187  : 		pChangeSkinNotify();

  00010	8b 46 08	 mov	 eax, DWORD PTR [esi+8]
; File C:\Program Files (x86)\Microsoft Visual Studio\2019\Community\VC\Tools\MSVC\14.29.30133\atlmfc\include\afxtempl.h

; 813  : 		rPosition = (POSITION) pNode->pNext;

  00013	8b 36		 mov	 esi, DWORD PTR [esi]
; File D:\git\src\IBK\IBK_DRFN\ProjSrc\SrcDrfn\Chart\ExControl\ExDialog.cpp

; 187  : 		pChangeSkinNotify();

  00015	ff d0		 call	 eax
  00017	85 f6		 test	 esi, esi
  00019	75 f5		 jne	 SHORT $LL2@NotifyToCt
$LN3@NotifyToCt:
  0001b	5e		 pop	 esi

; 188  : 	}
; 189  : }

  0001c	c3		 ret	 0
?NotifyToCtrlColorTableChanged@CExDialog@@IAEXXZ ENDP	; CExDialog::NotifyToCtrlColorTableChanged
_TEXT	ENDS
; Function compile flags: /Ogtp
; File D:\git\src\IBK\IBK_DRFN\ProjSrc\SrcDrfn\Chart\ExControl\ExDialog.cpp
;	COMDAT ?GetMessageMap@CExDialog@@MBEPBUAFX_MSGMAP@@XZ
_TEXT	SEGMENT
?GetMessageMap@CExDialog@@MBEPBUAFX_MSGMAP@@XZ PROC	; CExDialog::GetMessageMap, COMDAT
; _this$ = ecx

; 50   : BEGIN_MESSAGE_MAP(CExDialog, CDialog)

  00000	b8 00 00 00 00	 mov	 eax, OFFSET ?messageMap@?1??GetThisMessageMap@CExDialog@@KGPBUAFX_MSGMAP@@XZ@4U3@B
  00005	c3		 ret	 0
?GetMessageMap@CExDialog@@MBEPBUAFX_MSGMAP@@XZ ENDP	; CExDialog::GetMessageMap
_TEXT	ENDS
; Function compile flags: /Ogtp
; File D:\git\src\IBK\IBK_DRFN\ProjSrc\SrcDrfn\Chart\ExControl\ExDialog.cpp
;	COMDAT ?GetThisMessageMap@CExDialog@@KGPBUAFX_MSGMAP@@XZ
_TEXT	SEGMENT
?GetThisMessageMap@CExDialog@@KGPBUAFX_MSGMAP@@XZ PROC	; CExDialog::GetThisMessageMap, COMDAT

; 51   : 	//{{AFX_MSG_MAP(CExDialog)
; 52   : 	ON_WM_SIZE()
; 53   : 	ON_WM_GETMINMAXINFO()
; 54   : 	ON_WM_DESTROY()
; 55   : 	ON_WM_ERASEBKGND()
; 56   : 	ON_WM_CTLCOLOR()
; 57   : 	//}}AFX_MSG_MAP
; 58   : END_MESSAGE_MAP()

  00000	b8 00 00 00 00	 mov	 eax, OFFSET ?messageMap@?1??GetThisMessageMap@CExDialog@@KGPBUAFX_MSGMAP@@XZ@4U3@B
  00005	c3		 ret	 0
?GetThisMessageMap@CExDialog@@KGPBUAFX_MSGMAP@@XZ ENDP	; CExDialog::GetThisMessageMap
_TEXT	ENDS
; Function compile flags: /Ogtp
; File D:\git\src\IBK\IBK_DRFN\ProjSrc\SrcDrfn\Chart\ExControl\ExDialog.cpp
;	COMDAT ?OnCtlColor@CExDialog@@IAEPAUHBRUSH__@@PAVCDC@@PAVCWnd@@I@Z
_TEXT	SEGMENT
_pDC$ = 8						; size = 4
_pWnd$ = 12						; size = 4
_nCtlColor$ = 16					; size = 4
?OnCtlColor@CExDialog@@IAEPAUHBRUSH__@@PAVCDC@@PAVCWnd@@I@Z PROC ; CExDialog::OnCtlColor, COMDAT
; _this$ = ecx

; 209  : {

  00000	55		 push	 ebp
  00001	8b ec		 mov	 ebp, esp

; 210  : 	HBRUSH hbr = NULL;
; 211  : 	
; 212  : 	if(nCtlColor == CTLCOLOR_STATIC)

  00003	8b 45 10	 mov	 eax, DWORD PTR _nCtlColor$[ebp]
  00006	56		 push	 esi
  00007	8b f1		 mov	 esi, ecx
  00009	57		 push	 edi
  0000a	83 f8 06	 cmp	 eax, 6
  0000d	75 5c		 jne	 SHORT $LN2@OnCtlColor

; 213  : 	{
; 214  : 		if(pWnd->IsKindOf(RUNTIME_CLASS(CExStatic)) || pWnd->IsKindOf(RUNTIME_CLASS(CExCheckBox)))

  0000f	e8 00 00 00 00	 call	 ?GetThisClass@CExStatic@@SGPAUCRuntimeClass@@XZ ; CExStatic::GetThisClass
  00014	8b 7d 0c	 mov	 edi, DWORD PTR _pWnd$[ebp]
  00017	8b cf		 mov	 ecx, edi
  00019	50		 push	 eax
  0001a	e8 00 00 00 00	 call	 ?IsKindOf@CObject@@QBEHPBUCRuntimeClass@@@Z ; CObject::IsKindOf
  0001f	85 c0		 test	 eax, eax
  00021	75 35		 jne	 SHORT $LN5@OnCtlColor
  00023	e8 00 00 00 00	 call	 ?GetThisClass@CExCheckBox@@SGPAUCRuntimeClass@@XZ ; CExCheckBox::GetThisClass
  00028	50		 push	 eax
  00029	8b cf		 mov	 ecx, edi
  0002b	e8 00 00 00 00	 call	 ?IsKindOf@CObject@@QBEHPBUCRuntimeClass@@@Z ; CObject::IsKindOf
  00030	85 c0		 test	 eax, eax
  00032	75 24		 jne	 SHORT $LN5@OnCtlColor

; 216  : 
; 217  : 		if(m_hBrBackground)

  00034	8b 86 ec 01 00
	00		 mov	 eax, DWORD PTR [esi+492]
  0003a	85 c0		 test	 eax, eax
  0003c	74 39		 je	 SHORT $LN1@OnCtlColor

; 218  : 			pDC->SetBkColor(m_clrBackground);

  0003e	8b 4d 08	 mov	 ecx, DWORD PTR _pDC$[ebp]
  00041	ff b6 f0 01 00
	00		 push	 DWORD PTR [esi+496]
  00047	8b 01		 mov	 eax, DWORD PTR [ecx]
  00049	ff 50 34	 call	 DWORD PTR [eax+52]
  0004c	8b 86 ec 01 00
	00		 mov	 eax, DWORD PTR [esi+492]
  00052	5f		 pop	 edi

; 224  : 
; 225  : 	return hbr;
; 226  : }

  00053	5e		 pop	 esi
  00054	5d		 pop	 ebp
  00055	c2 0c 00	 ret	 12			; 0000000cH
$LN5@OnCtlColor:

; 215  : 			return CDialog::OnCtlColor(pDC, pWnd, nCtlColor);

  00058	6a 06		 push	 6
  0005a	57		 push	 edi

; 224  : 
; 225  : 	return hbr;
; 226  : }

  0005b	ff 75 08	 push	 DWORD PTR _pDC$[ebp]
  0005e	8b ce		 mov	 ecx, esi
  00060	e8 00 00 00 00	 call	 ?OnCtlColor@CWnd@@IAEPAUHBRUSH__@@PAVCDC@@PAV1@I@Z ; CWnd::OnCtlColor
  00065	5f		 pop	 edi
  00066	5e		 pop	 esi
  00067	5d		 pop	 ebp
  00068	c2 0c 00	 ret	 12			; 0000000cH
$LN2@OnCtlColor:

; 219  : 
; 220  : 		hbr = m_hBrBackground;
; 221  : 	}
; 222  : 	else
; 223  : 		hbr = CDialog::OnCtlColor(pDC, pWnd, nCtlColor);

  0006b	50		 push	 eax
  0006c	ff 75 0c	 push	 DWORD PTR _pWnd$[ebp]

; 224  : 
; 225  : 	return hbr;
; 226  : }

  0006f	ff 75 08	 push	 DWORD PTR _pDC$[ebp]
  00072	e8 00 00 00 00	 call	 ?OnCtlColor@CWnd@@IAEPAUHBRUSH__@@PAVCDC@@PAV1@I@Z ; CWnd::OnCtlColor
$LN1@OnCtlColor:
  00077	5f		 pop	 edi
  00078	5e		 pop	 esi
  00079	5d		 pop	 ebp
  0007a	c2 0c 00	 ret	 12			; 0000000cH
?OnCtlColor@CExDialog@@IAEPAUHBRUSH__@@PAVCDC@@PAVCWnd@@I@Z ENDP ; CExDialog::OnCtlColor
_TEXT	ENDS
; Function compile flags: /Ogtp
; File D:\git\src\IBK\IBK_DRFN\ProjSrc\SrcDrfn\Chart\ExControl\ExDialog.cpp
; File C:\Program Files (x86)\Microsoft Visual Studio\2019\Community\VC\Tools\MSVC\14.29.30133\atlmfc\include\afxwin2.inl
; File C:\Program Files (x86)\Microsoft Visual Studio\2019\Community\VC\Tools\MSVC\14.29.30133\atlmfc\include\atltypes.h
; File C:\Program Files (x86)\Microsoft Visual Studio\2019\Community\VC\Tools\MSVC\14.29.30133\atlmfc\include\afxwin2.inl
; File C:\Program Files (x86)\Microsoft Visual Studio\2019\Community\VC\Tools\MSVC\14.29.30133\atlmfc\include\afxwin1.inl
; File D:\git\src\IBK\IBK_DRFN\ProjSrc\SrcDrfn\Chart\ExControl\ExDialog.cpp
; File C:\Program Files (x86)\Microsoft Visual Studio\2019\Community\VC\Tools\MSVC\14.29.30133\atlmfc\include\afxwin2.inl
; File D:\git\src\IBK\IBK_DRFN\ProjSrc\SrcDrfn\Chart\ExControl\ExDialog.cpp
;	COMDAT ?OnEraseBkgnd@CExDialog@@IAEHPAVCDC@@@Z
_TEXT	SEGMENT
_rcClient$1 = -20					; size = 16
__$ArrayPad$ = -4					; size = 4
_pDC$ = 8						; size = 4
?OnEraseBkgnd@CExDialog@@IAEHPAVCDC@@@Z PROC		; CExDialog::OnEraseBkgnd, COMDAT
; _this$ = ecx

; 229  : {

  00000	55		 push	 ebp
  00001	8b ec		 mov	 ebp, esp
  00003	83 ec 14	 sub	 esp, 20			; 00000014H
  00006	a1 00 00 00 00	 mov	 eax, DWORD PTR ___security_cookie
  0000b	33 c5		 xor	 eax, ebp
  0000d	89 45 fc	 mov	 DWORD PTR __$ArrayPad$[ebp], eax
  00010	56		 push	 esi
  00011	8b f1		 mov	 esi, ecx
  00013	57		 push	 edi
  00014	8b 7d 08	 mov	 edi, DWORD PTR _pDC$[ebp]

; 230  : 	if(m_hBrBackground)

  00017	83 be ec 01 00
	00 00		 cmp	 DWORD PTR [esi+492], 0
  0001e	74 47		 je	 SHORT $LN2@OnEraseBkg
; File C:\Program Files (x86)\Microsoft Visual Studio\2019\Community\VC\Tools\MSVC\14.29.30133\atlmfc\include\afxwin2.inl

; 86   : 	{ ASSERT(::IsWindow(m_hWnd)); ::GetClientRect(m_hWnd, lpRect); }

  00020	8d 45 ec	 lea	 eax, DWORD PTR _rcClient$1[ebp]
  00023	0f 57 c0	 xorps	 xmm0, xmm0
  00026	50		 push	 eax
  00027	ff 76 20	 push	 DWORD PTR [esi+32]
; File C:\Program Files (x86)\Microsoft Visual Studio\2019\Community\VC\Tools\MSVC\14.29.30133\atlmfc\include\atltypes.h

; 528  : 	left = 0;

  0002a	0f 11 45 ec	 movups	 XMMWORD PTR _rcClient$1[ebp], xmm0
; File C:\Program Files (x86)\Microsoft Visual Studio\2019\Community\VC\Tools\MSVC\14.29.30133\atlmfc\include\afxwin2.inl

; 86   : 	{ ASSERT(::IsWindow(m_hWnd)); ::GetClientRect(m_hWnd, lpRect); }

  0002e	ff 15 00 00 00
	00		 call	 DWORD PTR __imp__GetClientRect@8
; File C:\Program Files (x86)\Microsoft Visual Studio\2019\Community\VC\Tools\MSVC\14.29.30133\atlmfc\include\afxwin1.inl

; 316  : 	{ return this == NULL ? NULL : m_hDC; }

  00034	85 ff		 test	 edi, edi
  00036	75 04		 jne	 SHORT $LN10@OnEraseBkg
  00038	33 c0		 xor	 eax, eax
  0003a	eb 03		 jmp	 SHORT $LN11@OnEraseBkg
$LN10@OnEraseBkg:
  0003c	8b 47 04	 mov	 eax, DWORD PTR [edi+4]
$LN11@OnEraseBkg:
; File D:\git\src\IBK\IBK_DRFN\ProjSrc\SrcDrfn\Chart\ExControl\ExDialog.cpp

; 235  : 		::FillRect(pDC->GetSafeHdc(), rcClient, m_hBrBackground);

  0003f	ff b6 ec 01 00
	00		 push	 DWORD PTR [esi+492]
  00045	8d 4d ec	 lea	 ecx, DWORD PTR _rcClient$1[ebp]
  00048	51		 push	 ecx
  00049	50		 push	 eax
  0004a	ff 15 00 00 00
	00		 call	 DWORD PTR __imp__FillRect@12
  00050	5f		 pop	 edi

; 236  : 		return TRUE;

  00051	b8 01 00 00 00	 mov	 eax, 1

; 240  : }

  00056	5e		 pop	 esi
  00057	8b 4d fc	 mov	 ecx, DWORD PTR __$ArrayPad$[ebp]
  0005a	33 cd		 xor	 ecx, ebp
  0005c	e8 00 00 00 00	 call	 @__security_check_cookie@4
  00061	8b e5		 mov	 esp, ebp
  00063	5d		 pop	 ebp
  00064	c2 04 00	 ret	 4
$LN2@OnEraseBkg:
; File C:\Program Files (x86)\Microsoft Visual Studio\2019\Community\VC\Tools\MSVC\14.29.30133\atlmfc\include\afxwin2.inl

; 302  : 	{ return (BOOL)Default(); }

  00067	e8 00 00 00 00	 call	 ?Default@CWnd@@IAEJXZ	; CWnd::Default
; File D:\git\src\IBK\IBK_DRFN\ProjSrc\SrcDrfn\Chart\ExControl\ExDialog.cpp

; 240  : }

  0006c	8b 4d fc	 mov	 ecx, DWORD PTR __$ArrayPad$[ebp]
  0006f	5f		 pop	 edi
  00070	33 cd		 xor	 ecx, ebp
  00072	5e		 pop	 esi
  00073	e8 00 00 00 00	 call	 @__security_check_cookie@4
  00078	8b e5		 mov	 esp, ebp
  0007a	5d		 pop	 ebp
  0007b	c2 04 00	 ret	 4
?OnEraseBkgnd@CExDialog@@IAEHPAVCDC@@@Z ENDP		; CExDialog::OnEraseBkgnd
_TEXT	ENDS
; Function compile flags: /Ogtp
; File D:\git\src\IBK\IBK_DRFN\ProjSrc\SrcDrfn\Chart\ExControl\ExDialog.cpp
; File C:\Program Files (x86)\Microsoft Visual Studio\2019\Community\VC\Tools\MSVC\14.29.30133\atlmfc\include\atlsimpstr.h
; File D:\git\src\IBK\IBK_DRFN\ProjSrc\SrcDrfn\Chart\ExControl\ExDialog.cpp
; File D:\git\src\IBK\IBK_DRFN\ProjSrc\SrcDrfn\Inc\PcTrMngHelper.h
; File D:\git\src\IBK\IBK_DRFN\ProjSrc\SrcDrfn\Chart\ExControl\ExDialog.cpp
; File D:\git\src\IBK\IBK_DRFN\ProjSrc\SrcDrfn\Inc\LoadLib.h
; File D:\git\src\IBK\IBK_DRFN\ProjSrc\SrcDrfn\Chart\ExControl\ExDialog.cpp
;	COMDAT ?OnDestroy@CExDialog@@IAEXXZ
_TEXT	SEGMENT
__$EHRec$ = -12						; size = 12
?OnDestroy@CExDialog@@IAEXXZ PROC			; CExDialog::OnDestroy, COMDAT
; _this$ = ecx

; 97   : {

  00000	55		 push	 ebp
  00001	8b ec		 mov	 ebp, esp
  00003	6a ff		 push	 -1
  00005	68 00 00 00 00	 push	 __ehhandler$?OnDestroy@CExDialog@@IAEXXZ
  0000a	64 a1 00 00 00
	00		 mov	 eax, DWORD PTR fs:0
  00010	50		 push	 eax
  00011	56		 push	 esi
  00012	57		 push	 edi
  00013	a1 00 00 00 00	 mov	 eax, DWORD PTR ___security_cookie
  00018	33 c5		 xor	 eax, ebp
  0001a	50		 push	 eax
  0001b	8d 45 f4	 lea	 eax, DWORD PTR __$EHRec$[ebp]
  0001e	64 a3 00 00 00
	00		 mov	 DWORD PTR fs:0, eax
  00024	8b f1		 mov	 esi, ecx
; File C:\Program Files (x86)\Microsoft Visual Studio\2019\Community\VC\Tools\MSVC\14.29.30133\atlmfc\include\atlsimpstr.h

; 519  : 		return( GetData()->nDataLength );

  00026	8b 86 e8 00 00
	00		 mov	 eax, DWORD PTR [esi+232]

; 533  : 		return( GetLength() == 0 );

  0002c	83 78 f4 00	 cmp	 DWORD PTR [eax-12], 0
; File D:\git\src\IBK\IBK_DRFN\ProjSrc\SrcDrfn\Chart\ExControl\ExDialog.cpp

; 99   : 	if (!m_strSection.IsEmpty()) {

  00030	74 0c		 je	 SHORT $LN2@OnDestroy

; 100  : 		SavePlacement(m_strSection);

  00032	50		 push	 eax
  00033	8d 8e a8 00 00
	00		 lea	 ecx, DWORD PTR [esi+168]
  00039	e8 00 00 00 00	 call	 ?SavePlacement@CExResize@@QAEXPBD@Z ; CExResize::SavePlacement
$LN2@OnDestroy:

; 101  : 	}
; 102  : 
; 103  : 	if(m_hBrBackground)

  0003e	8b 86 ec 01 00
	00		 mov	 eax, DWORD PTR [esi+492]
  00044	85 c0		 test	 eax, eax
  00046	74 11		 je	 SHORT $LN3@OnDestroy

; 104  : 	{
; 105  : 		::DeleteObject(m_hBrBackground);

  00048	50		 push	 eax
  00049	ff 15 00 00 00
	00		 call	 DWORD PTR __imp__DeleteObject@4

; 106  : 		m_hBrBackground = NULL;

  0004f	c7 86 ec 01 00
	00 00 00 00 00	 mov	 DWORD PTR [esi+492], 0
$LN3@OnDestroy:

; 107  : 	}
; 108  : 
; 109  : 	if(m_pITrCommManager && m_pITrComm)

  00059	8b 8e a0 01 00
	00		 mov	 ecx, DWORD PTR [esi+416]
  0005f	85 c9		 test	 ecx, ecx
  00061	74 11		 je	 SHORT $LN4@OnDestroy
  00063	8b 96 b4 01 00
	00		 mov	 edx, DWORD PTR [esi+436]
  00069	85 d2		 test	 edx, edx
  0006b	74 07		 je	 SHORT $LN4@OnDestroy

; 110  : 		m_pITrCommManager->UnAdviseTrComm(m_pITrComm);

  0006d	8b 01		 mov	 eax, DWORD PTR [ecx]
  0006f	52		 push	 edx
  00070	51		 push	 ecx
  00071	ff 50 04	 call	 DWORD PTR [eax+4]
$LN4@OnDestroy:

; 111  : 
; 112  : 	if(m_pISkinColorManager && m_lSkinSiteKey)

  00074	8b 8e a4 01 00
	00		 mov	 ecx, DWORD PTR [esi+420]
  0007a	85 c9		 test	 ecx, ecx
  0007c	74 11		 je	 SHORT $LN5@OnDestroy
  0007e	8b 96 bc 01 00
	00		 mov	 edx, DWORD PTR [esi+444]
  00084	85 d2		 test	 edx, edx
  00086	74 07		 je	 SHORT $LN5@OnDestroy

; 113  : 		m_pISkinColorManager->UnadviseSite(m_lSkinSiteKey);

  00088	8b 01		 mov	 eax, DWORD PTR [ecx]
  0008a	52		 push	 edx
  0008b	51		 push	 ecx
  0008c	ff 50 14	 call	 DWORD PTR [eax+20]
$LN5@OnDestroy:

; 114  : 
; 115  : 	if(m_pIAUDrdsManager && m_pIDrdsLib)

  0008f	8b 8e a8 01 00
	00		 mov	 ecx, DWORD PTR [esi+424]
  00095	85 c9		 test	 ecx, ecx
  00097	74 11		 je	 SHORT $LN6@OnDestroy
  00099	8b 96 b8 01 00
	00		 mov	 edx, DWORD PTR [esi+440]
  0009f	85 d2		 test	 edx, edx
  000a1	74 07		 je	 SHORT $LN6@OnDestroy

; 116  : 		m_pIAUDrdsManager->UnadviseDrdsLib(m_pIDrdsLib);

  000a3	8b 01		 mov	 eax, DWORD PTR [ecx]
  000a5	52		 push	 edx
  000a6	51		 push	 ecx
  000a7	ff 50 04	 call	 DWORD PTR [eax+4]
$LN6@OnDestroy:

; 117  : 
; 118  : 	if(m_pPcTrHelper)

  000aa	8b be c0 01 00
	00		 mov	 edi, DWORD PTR [esi+448]
  000b0	85 ff		 test	 edi, edi
  000b2	74 5d		 je	 SHORT $LN7@OnDestroy
; File D:\git\src\IBK\IBK_DRFN\ProjSrc\SrcDrfn\Inc\PcTrMngHelper.h

; 81   : 		if(m_fpNotifyPCTrState) return m_fpNotifyPCTrState(wp, lp);

  000b4	8b 47 1c	 mov	 eax, DWORD PTR [edi+28]
  000b7	85 c0		 test	 eax, eax
  000b9	74 10		 je	 SHORT $LN34@OnDestroy
  000bb	6a 01		 push	 1
  000bd	6a 01		 push	 1
  000bf	ff d0		 call	 eax
  000c1	8b be c0 01 00
	00		 mov	 edi, DWORD PTR [esi+448]
; File D:\git\src\IBK\IBK_DRFN\ProjSrc\SrcDrfn\Chart\ExControl\ExDialog.cpp

; 121  : 		delete m_pPcTrHelper;

  000c7	85 ff		 test	 edi, edi
  000c9	74 3c		 je	 SHORT $LN23@OnDestroy
$LN34@OnDestroy:
; File D:\git\src\IBK\IBK_DRFN\ProjSrc\SrcDrfn\Inc\LoadLib.h

; 48   : 		if(!m_hLib)

  000cb	8b 47 04	 mov	 eax, DWORD PTR [edi+4]

; 18   : 	{

  000ce	c7 45 fc 00 00
	00 00		 mov	 DWORD PTR __$EHRec$[ebp+8], 0
  000d5	c7 07 00 00 00
	00		 mov	 DWORD PTR [edi], OFFSET ??_7CLoadLib@@6B@

; 48   : 		if(!m_hLib)

  000db	85 c0		 test	 eax, eax
  000dd	74 0d		 je	 SHORT $LN31@OnDestroy

; 49   : 			return TRUE;
; 50   : 
; 51   : 		BOOL bResult = AfxFreeLibrary(m_hLib);

  000df	50		 push	 eax
  000e0	e8 00 00 00 00	 call	 ?AfxFreeLibrary@@YGHPAUHINSTANCE__@@@Z ; AfxFreeLibrary

; 52   : 		m_hLib = NULL;

  000e5	c7 47 04 00 00
	00 00		 mov	 DWORD PTR [edi+4], 0
$LN31@OnDestroy:

; 20   : 	}

  000ec	8d 4f 08	 lea	 ecx, DWORD PTR [edi+8]
  000ef	ff 15 00 00 00
	00		 call	 DWORD PTR __imp_??1?$CStringT@DV?$StrTraitMFC_DLL@DV?$ChTraitsCRT@D@ATL@@@@@ATL@@QAE@XZ
  000f5	6a 20		 push	 32			; 00000020H
  000f7	57		 push	 edi
  000f8	c7 45 fc ff ff
	ff ff		 mov	 DWORD PTR __$EHRec$[ebp+8], -1
  000ff	e8 00 00 00 00	 call	 ??3@YAXPAXI@Z		; operator delete
  00104	83 c4 08	 add	 esp, 8
$LN23@OnDestroy:
; File D:\git\src\IBK\IBK_DRFN\ProjSrc\SrcDrfn\Chart\ExControl\ExDialog.cpp

; 122  : 		m_pPcTrHelper = NULL;

  00107	c7 86 c0 01 00
	00 00 00 00 00	 mov	 DWORD PTR [esi+448], 0
$LN7@OnDestroy:

; 123  : 	}
; 124  : 	CDialog::OnDestroy();

  00111	8b ce		 mov	 ecx, esi
  00113	e8 00 00 00 00	 call	 ?OnDestroy@CWnd@@IAEXXZ	; CWnd::OnDestroy

; 125  : }

  00118	8b 4d f4	 mov	 ecx, DWORD PTR __$EHRec$[ebp]
  0011b	64 89 0d 00 00
	00 00		 mov	 DWORD PTR fs:0, ecx
  00122	59		 pop	 ecx
  00123	5f		 pop	 edi
  00124	5e		 pop	 esi
  00125	8b e5		 mov	 esp, ebp
  00127	5d		 pop	 ebp
  00128	c3		 ret	 0
  00129	cc		 int	 3
  0012a	cc		 int	 3
  0012b	cc		 int	 3
  0012c	cc		 int	 3
  0012d	cc		 int	 3
_TEXT	ENDS
;	COMDAT text$x
text$x	SEGMENT
__ehhandler$?OnDestroy@CExDialog@@IAEXXZ:
  00000	90		 npad	 1
  00001	90		 npad	 1
  00002	8b 54 24 08	 mov	 edx, DWORD PTR [esp+8]
  00006	8d 42 0c	 lea	 eax, DWORD PTR [edx+12]
  00009	8b 4a f4	 mov	 ecx, DWORD PTR [edx-12]
  0000c	33 c8		 xor	 ecx, eax
  0000e	e8 00 00 00 00	 call	 @__security_check_cookie@4
  00013	b8 00 00 00 00	 mov	 eax, OFFSET __ehfuncinfo$?OnDestroy@CExDialog@@IAEXXZ
  00018	e9 00 00 00 00	 jmp	 ___CxxFrameHandler3
text$x	ENDS
?OnDestroy@CExDialog@@IAEXXZ ENDP			; CExDialog::OnDestroy
; Function compile flags: /Ogtp
; File D:\git\src\IBK\IBK_DRFN\ProjSrc\SrcDrfn\Chart\ExControl\ExDialog.cpp
;	COMDAT ?OnGetMinMaxInfo@CExDialog@@IAEXPAUtagMINMAXINFO@@@Z
_TEXT	SEGMENT
_pMMI$ = 8						; size = 4
?OnGetMinMaxInfo@CExDialog@@IAEXPAUtagMINMAXINFO@@@Z PROC ; CExDialog::OnGetMinMaxInfo, COMDAT
; _this$ = ecx

; 86   : {

  00000	55		 push	 ebp
  00001	8b ec		 mov	 ebp, esp

; 87   : 	CExResize::GetMinMaxInfo(pMMI);

  00003	81 c1 a8 00 00
	00		 add	 ecx, 168		; 000000a8H

; 88   : }

  00009	5d		 pop	 ebp

; 87   : 	CExResize::GetMinMaxInfo(pMMI);

  0000a	e9 00 00 00 00	 jmp	 ?GetMinMaxInfo@CExResize@@IAEXPAUtagMINMAXINFO@@@Z ; CExResize::GetMinMaxInfo
?OnGetMinMaxInfo@CExDialog@@IAEXPAUtagMINMAXINFO@@@Z ENDP ; CExDialog::OnGetMinMaxInfo
_TEXT	ENDS
; Function compile flags: /Ogtp
; File D:\git\src\IBK\IBK_DRFN\ProjSrc\SrcDrfn\Chart\ExControl\ExDialog.cpp
; File C:\Program Files (x86)\Microsoft Visual Studio\2019\Community\VC\Tools\MSVC\14.29.30133\atlmfc\include\afxwin2.inl
; File D:\git\src\IBK\IBK_DRFN\ProjSrc\SrcDrfn\Chart\ExControl\ExDialog.cpp
;	COMDAT ?OnSize@CExDialog@@IAEXIHH@Z
_TEXT	SEGMENT
_nType$ = 8						; size = 4
_cx$ = 12						; size = 4
_cy$ = 16						; size = 4
?OnSize@CExDialog@@IAEXIHH@Z PROC			; CExDialog::OnSize, COMDAT
; _this$ = ecx

; 91   : {

  00000	56		 push	 esi
  00001	8b f1		 mov	 esi, ecx
; File C:\Program Files (x86)\Microsoft Visual Studio\2019\Community\VC\Tools\MSVC\14.29.30133\atlmfc\include\afxwin2.inl

; 330  : 	{ Default(); }

  00003	e8 00 00 00 00	 call	 ?Default@CWnd@@IAEJXZ	; CWnd::Default
; File D:\git\src\IBK\IBK_DRFN\ProjSrc\SrcDrfn\Chart\ExControl\ExDialog.cpp

; 93   : 	CExResize::Size();

  00008	8d 8e a8 00 00
	00		 lea	 ecx, DWORD PTR [esi+168]
  0000e	e8 00 00 00 00	 call	 ?Size@CExResize@@IAEXXZ	; CExResize::Size
  00013	5e		 pop	 esi

; 94   : }

  00014	c2 0c 00	 ret	 12			; 0000000cH
?OnSize@CExDialog@@IAEXIHH@Z ENDP			; CExDialog::OnSize
_TEXT	ENDS
; Function compile flags: /Ogtp
; File D:\git\src\IBK\IBK_DRFN\ProjSrc\SrcDrfn\Chart\ExControl\ExDialog.cpp
;	COMDAT ?OnInitDialog@CExDialog@@MAEHXZ
_TEXT	SEGMENT
_szClipFormat$2 = -32					; size = 4
$T3 = -32						; size = 4
_aBufWnd$4 = -28					; size = 9
__$ArrayPad$ = -16					; size = 4
__$EHRec$ = -12						; size = 12
?OnInitDialog@CExDialog@@MAEHXZ PROC			; CExDialog::OnInitDialog, COMDAT
; _this$ = ecx

; 63   : {

  00000	55		 push	 ebp
  00001	8b ec		 mov	 ebp, esp
  00003	6a ff		 push	 -1
  00005	68 00 00 00 00	 push	 __ehhandler$?OnInitDialog@CExDialog@@MAEHXZ
  0000a	64 a1 00 00 00
	00		 mov	 eax, DWORD PTR fs:0
  00010	50		 push	 eax
  00011	83 ec 14	 sub	 esp, 20			; 00000014H
  00014	a1 00 00 00 00	 mov	 eax, DWORD PTR ___security_cookie
  00019	33 c5		 xor	 eax, ebp
  0001b	89 45 f0	 mov	 DWORD PTR __$ArrayPad$[ebp], eax
  0001e	56		 push	 esi
  0001f	57		 push	 edi
  00020	50		 push	 eax
  00021	8d 45 f4	 lea	 eax, DWORD PTR __$EHRec$[ebp]
  00024	64 a3 00 00 00
	00		 mov	 DWORD PTR fs:0, eax
  0002a	8b f9		 mov	 edi, ecx

; 64   : 	// Only show the resize grip if the frame is a resizing frame
; 65   : 	if ( !m_pPcTrHelper )

  0002c	83 bf c0 01 00
	00 00		 cmp	 DWORD PTR [edi+448], 0
  00033	75 30		 jne	 SHORT $LN2@OnInitDial

; 66   : 		m_pPcTrHelper = new CPCTrMngHelper;

  00035	6a 20		 push	 32			; 00000020H
  00037	e8 00 00 00 00	 call	 ??2@YAPAXI@Z		; operator new
  0003c	83 c4 04	 add	 esp, 4
  0003f	89 45 e0	 mov	 DWORD PTR $T3[ebp], eax
  00042	c7 45 fc 00 00
	00 00		 mov	 DWORD PTR __$EHRec$[ebp+8], 0
  00049	85 c0		 test	 eax, eax
  0004b	74 09		 je	 SHORT $LN5@OnInitDial
  0004d	8b c8		 mov	 ecx, eax
  0004f	e8 00 00 00 00	 call	 ??0CPCTrMngHelper@@QAE@XZ ; CPCTrMngHelper::CPCTrMngHelper
  00054	eb 02		 jmp	 SHORT $LN6@OnInitDial
$LN5@OnInitDial:
  00056	33 c0		 xor	 eax, eax
$LN6@OnInitDial:
  00058	c7 45 fc ff ff
	ff ff		 mov	 DWORD PTR __$EHRec$[ebp+8], -1
  0005f	89 87 c0 01 00
	00		 mov	 DWORD PTR [edi+448], eax
$LN2@OnInitDial:

; 67   : 	DWORD dwStyle = ::GetWindowLong(m_hWnd, GWL_STYLE);

  00065	6a f0		 push	 -16			; fffffff0H
  00067	ff 77 20	 push	 DWORD PTR [edi+32]
  0006a	ff 15 00 00 00
	00		 call	 DWORD PTR __imp__GetWindowLongA@8

; 68   : 	if ((dwStyle & WS_THICKFRAME) == 0) {

  00070	a9 00 00 04 00	 test	 eax, 262144		; 00040000H
  00075	75 0d		 jne	 SHORT $LN11@OnInitDial

; 69   : 		SetFlag(SZ_NOSIZEICON);

  00077	6a 01		 push	 1
  00079	8d 8f a8 00 00
	00		 lea	 ecx, DWORD PTR [edi+168]
  0007f	e8 00 00 00 00	 call	 ?SetFlag@CExResize@@IAEXW4EFlags@1@@Z ; CExResize::SetFlag
$LN11@OnInitDial:

; 70   : 	}
; 71   : 
; 72   : 	CDialog::OnInitDialog();

  00084	8b cf		 mov	 ecx, edi
  00086	e8 00 00 00 00	 call	 ?OnInitDialog@CDialog@@UAEHXZ ; CDialog::OnInitDialog

; 73   : 	CExResize::Init();

  0008b	8d 8f a8 00 00
	00		 lea	 ecx, DWORD PTR [edi+168]
  00091	e8 00 00 00 00	 call	 ?Init@CExResize@@IAEXXZ	; CExResize::Init

; 74   : 
; 75   : 	// Enable tool tips for this dialog
; 76   : 	EnableToolTips();

  00096	6a 01		 push	 1
  00098	8b cf		 mov	 ecx, edi
  0009a	e8 00 00 00 00	 call	 ?EnableToolTips@CWnd@@QAEHH@Z ; CWnd::EnableToolTips
  0009f	0f 57 c0	 xorps	 xmm0, xmm0

; 77   : 
; 78   : 	AfxGetIGateManager(m_pIGateManager);

  000a2	c7 87 9c 01 00
	00 00 00 00 00	 mov	 DWORD PTR [edi+412], 0
  000ac	8d b7 9c 01 00
	00		 lea	 esi, DWORD PTR [edi+412]
  000b2	66 0f d6 45 e4	 movq	 QWORD PTR _aBufWnd$4[ebp], xmm0
  000b7	8d 4d e0	 lea	 ecx, DWORD PTR _szClipFormat$2[ebp]
  000ba	c6 45 ec 00	 mov	 BYTE PTR _aBufWnd$4[ebp+8], 0
  000be	ff 15 00 00 00
	00		 call	 DWORD PTR __imp_??0?$CStringT@DV?$StrTraitMFC_DLL@DV?$ChTraitsCRT@D@ATL@@@@@ATL@@QAE@XZ
  000c4	68 00 00 00 00	 push	 OFFSET ??_C@_0M@CBBNGGHM@PcTrMng?4dll@
  000c9	c7 45 fc 01 00
	00 00		 mov	 DWORD PTR __$EHRec$[ebp+8], 1
  000d0	ff 15 00 00 00
	00		 call	 DWORD PTR __imp__GetModuleHandleA@4
  000d6	50		 push	 eax
  000d7	68 00 00 00 00	 push	 OFFSET ??_C@_0BD@CMCCCNBF@HANAROIGATEMANAGER@
  000dc	8d 45 e0	 lea	 eax, DWORD PTR _szClipFormat$2[ebp]
  000df	68 00 00 00 00	 push	 OFFSET ??_C@_06NDLAHCHE@?$CFs?$CF08X@
  000e4	50		 push	 eax
  000e5	ff 15 00 00 00
	00		 call	 DWORD PTR __imp_?Format@?$CStringT@DV?$StrTraitMFC_DLL@DV?$ChTraitsCRT@D@ATL@@@@@ATL@@QAAXPBDZZ
  000eb	83 c4 10	 add	 esp, 16			; 00000010H
  000ee	8d 45 e4	 lea	 eax, DWORD PTR _aBufWnd$4[ebp]
  000f1	6a 09		 push	 9
  000f3	50		 push	 eax
  000f4	ff 75 e0	 push	 DWORD PTR _szClipFormat$2[ebp]
  000f7	ff 15 00 00 00
	00		 call	 DWORD PTR __imp__GetEnvironmentVariableA@12
  000fd	56		 push	 esi
  000fe	8d 45 e4	 lea	 eax, DWORD PTR _aBufWnd$4[ebp]
  00101	68 00 00 00 00	 push	 OFFSET ??_C@_02EMFKHFLK@?$CFX@
  00106	50		 push	 eax
  00107	e8 00 00 00 00	 call	 _sscanf
  0010c	83 c4 0c	 add	 esp, 12			; 0000000cH
  0010f	c7 45 fc ff ff
	ff ff		 mov	 DWORD PTR __$EHRec$[ebp+8], -1
  00116	8d 4d e0	 lea	 ecx, DWORD PTR _szClipFormat$2[ebp]
  00119	ff 15 00 00 00
	00		 call	 DWORD PTR __imp_??1?$CStringT@DV?$StrTraitMFC_DLL@DV?$ChTraitsCRT@D@ATL@@@@@ATL@@QAE@XZ

; 79   : 
; 80   : 	::SetPermanentHandle(m_hWnd, this);

  0011f	57		 push	 edi
  00120	ff 77 20	 push	 DWORD PTR [edi+32]
  00123	e8 00 00 00 00	 call	 ?SetPermanentHandle@@YAXPAXPAVCObject@@@Z ; SetPermanentHandle
  00128	83 c4 08	 add	 esp, 8

; 81   : 
; 82   : 	return TRUE;

  0012b	b8 01 00 00 00	 mov	 eax, 1

; 83   : }

  00130	8b 4d f4	 mov	 ecx, DWORD PTR __$EHRec$[ebp]
  00133	64 89 0d 00 00
	00 00		 mov	 DWORD PTR fs:0, ecx
  0013a	59		 pop	 ecx
  0013b	5f		 pop	 edi
  0013c	5e		 pop	 esi
  0013d	8b 4d f0	 mov	 ecx, DWORD PTR __$ArrayPad$[ebp]
  00140	33 cd		 xor	 ecx, ebp
  00142	e8 00 00 00 00	 call	 @__security_check_cookie@4
  00147	8b e5		 mov	 esp, ebp
  00149	5d		 pop	 ebp
  0014a	c3		 ret	 0
_TEXT	ENDS
;	COMDAT text$x
text$x	SEGMENT
__unwindfunclet$?OnInitDialog@CExDialog@@MAEHXZ$0:
  00000	6a 20		 push	 32			; 00000020H
  00002	8b 45 e0	 mov	 eax, DWORD PTR $T3[ebp]
  00005	50		 push	 eax
  00006	e8 00 00 00 00	 call	 ??3@YAXPAXI@Z		; operator delete
  0000b	83 c4 08	 add	 esp, 8
  0000e	c3		 ret	 0
__unwindfunclet$?OnInitDialog@CExDialog@@MAEHXZ$1:
  0000f	8d 4d e0	 lea	 ecx, DWORD PTR _szClipFormat$2[ebp]
  00012	ff 25 00 00 00
	00		 jmp	 DWORD PTR __imp_??1?$CStringT@DV?$StrTraitMFC_DLL@DV?$ChTraitsCRT@D@ATL@@@@@ATL@@QAE@XZ
  00018	cc		 int	 3
  00019	cc		 int	 3
  0001a	cc		 int	 3
  0001b	cc		 int	 3
  0001c	cc		 int	 3
__ehhandler$?OnInitDialog@CExDialog@@MAEHXZ:
  0001d	90		 npad	 1
  0001e	90		 npad	 1
  0001f	8b 54 24 08	 mov	 edx, DWORD PTR [esp+8]
  00023	8d 42 0c	 lea	 eax, DWORD PTR [edx+12]
  00026	8b 4a e0	 mov	 ecx, DWORD PTR [edx-32]
  00029	33 c8		 xor	 ecx, eax
  0002b	e8 00 00 00 00	 call	 @__security_check_cookie@4
  00030	8b 4a fc	 mov	 ecx, DWORD PTR [edx-4]
  00033	33 c8		 xor	 ecx, eax
  00035	e8 00 00 00 00	 call	 @__security_check_cookie@4
  0003a	b8 00 00 00 00	 mov	 eax, OFFSET __ehfuncinfo$?OnInitDialog@CExDialog@@MAEHXZ
  0003f	e9 00 00 00 00	 jmp	 ___CxxFrameHandler3
text$x	ENDS
?OnInitDialog@CExDialog@@MAEHXZ ENDP			; CExDialog::OnInitDialog
; Function compile flags: /Ogtp
; File D:\git\src\IBK\IBK_DRFN\ProjSrc\SrcDrfn\Inc\ExDialog.h
; File D:\git\src\IBK\IBK_DRFN\ProjSrc\SrcDrfn\Chart\ExControl\ExDialog.cpp
; File C:\Program Files (x86)\Microsoft Visual Studio\2019\Community\VC\Tools\MSVC\14.29.30133\atlmfc\include\afxtempl.h
; File D:\git\src\IBK\IBK_DRFN\ProjSrc\SrcDrfn\Chart\ExControl\ExDialog.cpp
; File D:\git\src\IBK\IBK_DRFN\ProjSrc\SrcDrfn\Inc\ExDialog.h
;	COMDAT ?ColorTableChanged@CMyISkinColorSite@CExDialog@@UAGXXZ
_TEXT	SEGMENT
_this$ = 8						; size = 4
?ColorTableChanged@CMyISkinColorSite@CExDialog@@UAGXXZ PROC ; CExDialog::CMyISkinColorSite::ColorTableChanged, COMDAT

; 119  : 		{

  00000	55		 push	 ebp
  00001	8b ec		 mov	 ebp, esp
  00003	56		 push	 esi
  00004	57		 push	 edi

; 120  : 			MYMETHOD_PROLOGUE(CExDialog, MyISkinColorSite)

  00005	8b 7d 08	 mov	 edi, DWORD PTR _this$[ebp]
; File D:\git\src\IBK\IBK_DRFN\ProjSrc\SrcDrfn\Chart\ExControl\ExDialog.cpp

; 183  : 	POSITION pos = m_listChangeSkinNotify.GetHeadPosition();

  00008	8b 77 e4	 mov	 esi, DWORD PTR [edi-28]

; 184  : 	while(pos)

  0000b	85 f6		 test	 esi, esi
  0000d	74 0c		 je	 SHORT $LN5@ColorTable
  0000f	90		 npad	 1
$LL4@ColorTable:

; 187  : 		pChangeSkinNotify();

  00010	8b 46 08	 mov	 eax, DWORD PTR [esi+8]
; File C:\Program Files (x86)\Microsoft Visual Studio\2019\Community\VC\Tools\MSVC\14.29.30133\atlmfc\include\afxtempl.h

; 813  : 		rPosition = (POSITION) pNode->pNext;

  00013	8b 36		 mov	 esi, DWORD PTR [esi]
; File D:\git\src\IBK\IBK_DRFN\ProjSrc\SrcDrfn\Chart\ExControl\ExDialog.cpp

; 187  : 		pChangeSkinNotify();

  00015	ff d0		 call	 eax
  00017	85 f6		 test	 esi, esi
  00019	75 f5		 jne	 SHORT $LL4@ColorTable
$LN5@ColorTable:
; File D:\git\src\IBK\IBK_DRFN\ProjSrc\SrcDrfn\Inc\ExDialog.h

; 123  : 			pThis->ColorTableChanged();

  0001b	8b 87 1c fe ff
	ff		 mov	 eax, DWORD PTR [edi-484]
  00021	8d 8f 1c fe ff
	ff		 lea	 ecx, DWORD PTR [edi-484]
  00027	ff 90 a4 01 00
	00		 call	 DWORD PTR [eax+420]
  0002d	5f		 pop	 edi
  0002e	5e		 pop	 esi

; 124  : 		}

  0002f	5d		 pop	 ebp
  00030	c2 04 00	 ret	 4
?ColorTableChanged@CMyISkinColorSite@CExDialog@@UAGXXZ ENDP ; CExDialog::CMyISkinColorSite::ColorTableChanged
_TEXT	ENDS
; Function compile flags: /Ogtp
; File D:\git\src\IBK\IBK_DRFN\ProjSrc\SrcDrfn\Inc\ExDialog.h
;	COMDAT ?ReceiveMessage@CMyITrCommSite@CExDialog@@UAGJJPBD00@Z
_TEXT	SEGMENT
_this$ = 8						; size = 4
_dwKey$ = 12						; size = 4
_szTR$ = 16						; size = 4
_szMsgCode$ = 20					; size = 4
_szMessage$ = 24					; size = 4
?ReceiveMessage@CMyITrCommSite@CExDialog@@UAGJJPBD00@Z PROC ; CExDialog::CMyITrCommSite::ReceiveMessage, COMDAT

; 108  : 		{

  00000	55		 push	 ebp
  00001	8b ec		 mov	 ebp, esp

; 109  : 			MYMETHOD_PROLOGUE(CExDialog, MyITrCommSite)
; 110  : 			return pThis->ReceiveMessage(dwKey, szTR, szMsgCode, szMessage);

  00003	ff 75 18	 push	 DWORD PTR _szMessage$[ebp]
  00006	8b 4d 08	 mov	 ecx, DWORD PTR _this$[ebp]
  00009	ff 75 14	 push	 DWORD PTR _szMsgCode$[ebp]
  0000c	81 c1 20 fe ff
	ff		 add	 ecx, -480		; fffffe20H
  00012	ff 75 10	 push	 DWORD PTR _szTR$[ebp]
  00015	ff 75 0c	 push	 DWORD PTR _dwKey$[ebp]
  00018	8b 01		 mov	 eax, DWORD PTR [ecx]
  0001a	ff 90 a0 01 00
	00		 call	 DWORD PTR [eax+416]

; 111  : 		}

  00020	5d		 pop	 ebp
  00021	c2 14 00	 ret	 20			; 00000014H
?ReceiveMessage@CMyITrCommSite@CExDialog@@UAGJJPBD00@Z ENDP ; CExDialog::CMyITrCommSite::ReceiveMessage
_TEXT	ENDS
; Function compile flags: /Ogtp
; File D:\git\src\IBK\IBK_DRFN\ProjSrc\SrcDrfn\Inc\ExDialog.h
;	COMDAT ?StatusChange@CMyITrCommSite@CExDialog@@UAGJH@Z
_TEXT	SEGMENT
_this$ = 8						; size = 4
_nState$ = 12						; size = 4
?StatusChange@CMyITrCommSite@CExDialog@@UAGJH@Z PROC	; CExDialog::CMyITrCommSite::StatusChange, COMDAT

; 102  : 		{

  00000	55		 push	 ebp
  00001	8b ec		 mov	 ebp, esp

; 103  : 			MYMETHOD_PROLOGUE(CExDialog, MyITrCommSite)

  00003	8b 4d 08	 mov	 ecx, DWORD PTR _this$[ebp]

; 104  : 			return pThis->StatusChange(nState);

  00006	ff 75 0c	 push	 DWORD PTR _nState$[ebp]
  00009	81 c1 20 fe ff
	ff		 add	 ecx, -480		; fffffe20H
  0000f	8b 01		 mov	 eax, DWORD PTR [ecx]
  00011	ff 90 9c 01 00
	00		 call	 DWORD PTR [eax+412]

; 105  : 		}

  00017	5d		 pop	 ebp
  00018	c2 08 00	 ret	 8
?StatusChange@CMyITrCommSite@CExDialog@@UAGJH@Z ENDP	; CExDialog::CMyITrCommSite::StatusChange
_TEXT	ENDS
; Function compile flags: /Ogtp
; File D:\git\src\IBK\IBK_DRFN\ProjSrc\SrcDrfn\Inc\ExDialog.h
;	COMDAT ?ReceiveRealData@CMyITrCommSite@CExDialog@@UAGJGPBDPAX@Z
_TEXT	SEGMENT
__ctlState$ = -8					; size = 8
_this$ = 8						; size = 4
_wFID$ = 12						; size = 2
_szMainKey$ = 16					; size = 4
_pRealData$ = 20					; size = 4
?ReceiveRealData@CMyITrCommSite@CExDialog@@UAGJGPBDPAX@Z PROC ; CExDialog::CMyITrCommSite::ReceiveRealData, COMDAT

; 96   : 		{

  00000	55		 push	 ebp
  00001	8b ec		 mov	 ebp, esp
  00003	83 ec 08	 sub	 esp, 8

; 97   : 			METHOD_PROLOGUE(CExDialog, MyITrCommSite)

  00006	8d 4d f8	 lea	 ecx, DWORD PTR __ctlState$[ebp]
  00009	56		 push	 esi
  0000a	8b 75 08	 mov	 esi, DWORD PTR _this$[ebp]
  0000d	ff b6 3c fe ff
	ff		 push	 DWORD PTR [esi-452]
  00013	e8 00 00 00 00	 call	 ??0AFX_MAINTAIN_STATE2@@QAE@PAVAFX_MODULE_STATE@@@Z ; AFX_MAINTAIN_STATE2::AFX_MAINTAIN_STATE2

; 98   : 				return pThis->ReceiveRealData(wFID, szMainKey, pRealData);

  00018	ff 75 14	 push	 DWORD PTR _pRealData$[ebp]
  0001b	8b 86 20 fe ff
	ff		 mov	 eax, DWORD PTR [esi-480]
  00021	8d 8e 20 fe ff
	ff		 lea	 ecx, DWORD PTR [esi-480]
  00027	ff 75 10	 push	 DWORD PTR _szMainKey$[ebp]
  0002a	ff 75 0c	 push	 DWORD PTR _wFID$[ebp]
  0002d	ff 90 98 01 00
	00		 call	 DWORD PTR [eax+408]
  00033	8d 4d f8	 lea	 ecx, DWORD PTR __ctlState$[ebp]
  00036	8b f0		 mov	 esi, eax
  00038	e8 00 00 00 00	 call	 ??1AFX_MAINTAIN_STATE2@@QAE@XZ ; AFX_MAINTAIN_STATE2::~AFX_MAINTAIN_STATE2
  0003d	8b c6		 mov	 eax, esi
  0003f	5e		 pop	 esi

; 99   : 		}

  00040	8b e5		 mov	 esp, ebp
  00042	5d		 pop	 ebp
  00043	c2 10 00	 ret	 16			; 00000010H
?ReceiveRealData@CMyITrCommSite@CExDialog@@UAGJGPBDPAX@Z ENDP ; CExDialog::CMyITrCommSite::ReceiveRealData
_TEXT	ENDS
; Function compile flags: /Ogtp
; File D:\git\src\IBK\IBK_DRFN\ProjSrc\SrcDrfn\Inc\ExDialog.h
;	COMDAT ?ReceiveData@CMyITrCommSite@CExDialog@@UAGJJPBD00PAXJ@Z
_TEXT	SEGMENT
__ctlState$ = -8					; size = 8
_this$ = 8						; size = 4
_dwKey$ = 12						; size = 4
_szTR$ = 16						; size = 4
_szMsgCode$ = 20					; size = 4
_szMessage$ = 24					; size = 4
_aTRData$ = 28						; size = 4
_dwTRDateLen$ = 32					; size = 4
?ReceiveData@CMyITrCommSite@CExDialog@@UAGJJPBD00PAXJ@Z PROC ; CExDialog::CMyITrCommSite::ReceiveData, COMDAT

; 90   : 		{

  00000	55		 push	 ebp
  00001	8b ec		 mov	 ebp, esp
  00003	83 ec 08	 sub	 esp, 8

; 91   : 			METHOD_PROLOGUE(CExDialog, MyITrCommSite)

  00006	8d 4d f8	 lea	 ecx, DWORD PTR __ctlState$[ebp]
  00009	56		 push	 esi
  0000a	8b 75 08	 mov	 esi, DWORD PTR _this$[ebp]
  0000d	ff b6 3c fe ff
	ff		 push	 DWORD PTR [esi-452]
  00013	e8 00 00 00 00	 call	 ??0AFX_MAINTAIN_STATE2@@QAE@PAVAFX_MODULE_STATE@@@Z ; AFX_MAINTAIN_STATE2::AFX_MAINTAIN_STATE2

; 92   : 			return pThis->ReceiveData(dwKey, szTR, szMsgCode, szMessage, aTRData, dwTRDateLen);

  00018	ff 75 20	 push	 DWORD PTR _dwTRDateLen$[ebp]
  0001b	8b 86 20 fe ff
	ff		 mov	 eax, DWORD PTR [esi-480]
  00021	8d 8e 20 fe ff
	ff		 lea	 ecx, DWORD PTR [esi-480]
  00027	ff 75 1c	 push	 DWORD PTR _aTRData$[ebp]
  0002a	ff 75 18	 push	 DWORD PTR _szMessage$[ebp]
  0002d	ff 75 14	 push	 DWORD PTR _szMsgCode$[ebp]
  00030	ff 75 10	 push	 DWORD PTR _szTR$[ebp]
  00033	ff 75 0c	 push	 DWORD PTR _dwKey$[ebp]
  00036	ff 90 94 01 00
	00		 call	 DWORD PTR [eax+404]
  0003c	8d 4d f8	 lea	 ecx, DWORD PTR __ctlState$[ebp]
  0003f	8b f0		 mov	 esi, eax
  00041	e8 00 00 00 00	 call	 ??1AFX_MAINTAIN_STATE2@@QAE@XZ ; AFX_MAINTAIN_STATE2::~AFX_MAINTAIN_STATE2
  00046	8b c6		 mov	 eax, esi
  00048	5e		 pop	 esi

; 93   : 		}

  00049	8b e5		 mov	 esp, ebp
  0004b	5d		 pop	 ebp
  0004c	c2 1c 00	 ret	 28			; 0000001cH
?ReceiveData@CMyITrCommSite@CExDialog@@UAGJJPBD00PAXJ@Z ENDP ; CExDialog::CMyITrCommSite::ReceiveData
_TEXT	ENDS
; Function compile flags: /Ogtp
; File C:\Program Files (x86)\Microsoft Visual Studio\2019\Community\VC\Tools\MSVC\14.29.30133\atlmfc\include\afxtempl.h
; File C:\Program Files (x86)\Microsoft Visual Studio\2019\Community\VC\Tools\MSVC\14.29.30133\atlmfc\include\afx.inl
;	COMDAT ??_G?$CList@P6AXXZP6AXXZ@@UAEPAXI@Z
_TEXT	SEGMENT
__$EHRec$ = -12						; size = 12
___flags$ = 8						; size = 4
??_G?$CList@P6AXXZP6AXXZ@@UAEPAXI@Z PROC		; CList<void (__cdecl*)(void),void (__cdecl*)(void)>::`scalar deleting destructor', COMDAT
; _this$ = ecx
  00000	55		 push	 ebp
  00001	8b ec		 mov	 ebp, esp
  00003	6a ff		 push	 -1
  00005	68 00 00 00 00	 push	 __ehhandler$??_G?$CList@P6AXXZP6AXXZ@@UAEPAXI@Z
  0000a	64 a1 00 00 00
	00		 mov	 eax, DWORD PTR fs:0
  00010	50		 push	 eax
  00011	56		 push	 esi
  00012	a1 00 00 00 00	 mov	 eax, DWORD PTR ___security_cookie
  00017	33 c5		 xor	 eax, ebp
  00019	50		 push	 eax
  0001a	8d 45 f4	 lea	 eax, DWORD PTR __$EHRec$[ebp]
  0001d	64 a3 00 00 00
	00		 mov	 DWORD PTR fs:0, eax
  00023	8b f1		 mov	 esi, ecx
; File C:\Program Files (x86)\Microsoft Visual Studio\2019\Community\VC\Tools\MSVC\14.29.30133\atlmfc\include\afxtempl.h

; 872  : 	m_pBlocks->FreeDataChain();

  00025	8b 4e 14	 mov	 ecx, DWORD PTR [esi+20]

; 878  : {

  00028	c7 45 fc 00 00
	00 00		 mov	 DWORD PTR __$EHRec$[ebp+8], 0
  0002f	c7 06 00 00 00
	00		 mov	 DWORD PTR [esi], OFFSET ??_7?$CList@P6AXXZP6AXXZ@@6B@

; 870  : 	m_nCount = 0;

  00035	c7 46 0c 00 00
	00 00		 mov	 DWORD PTR [esi+12], 0

; 871  : 	m_pNodeHead = m_pNodeTail = m_pNodeFree = NULL;

  0003c	c7 46 10 00 00
	00 00		 mov	 DWORD PTR [esi+16], 0
  00043	c7 46 08 00 00
	00 00		 mov	 DWORD PTR [esi+8], 0
  0004a	c7 46 04 00 00
	00 00		 mov	 DWORD PTR [esi+4], 0

; 872  : 	m_pBlocks->FreeDataChain();

  00051	e8 00 00 00 00	 call	 ?FreeDataChain@CPlex@@QAEXXZ ; CPlex::FreeDataChain

; 873  : 	m_pBlocks = NULL;

  00056	8b 45 08	 mov	 eax, DWORD PTR ___flags$[ebp]
  00059	c7 46 14 00 00
	00 00		 mov	 DWORD PTR [esi+20], 0
  00060	a8 01		 test	 al, 1
  00062	74 2c		 je	 SHORT $LN22@scalar
  00064	a8 04		 test	 al, 4
  00066	75 1d		 jne	 SHORT $LN3@scalar
; File C:\Program Files (x86)\Microsoft Visual Studio\2019\Community\VC\Tools\MSVC\14.29.30133\atlmfc\include\afx.inl

; 112  : 	{ ::operator delete(p); }

  00068	56		 push	 esi
  00069	e8 00 00 00 00	 call	 ??3@YAXPAX@Z		; operator delete
  0006e	83 c4 04	 add	 esp, 4
  00071	8b c6		 mov	 eax, esi
  00073	8b 4d f4	 mov	 ecx, DWORD PTR __$EHRec$[ebp]
  00076	64 89 0d 00 00
	00 00		 mov	 DWORD PTR fs:0, ecx
  0007d	59		 pop	 ecx
  0007e	5e		 pop	 esi
  0007f	8b e5		 mov	 esp, ebp
  00081	5d		 pop	 ebp
  00082	c2 04 00	 ret	 4
$LN3@scalar:
  00085	6a 1c		 push	 28			; 0000001cH
  00087	56		 push	 esi
  00088	e8 00 00 00 00	 call	 ?__global_delete@@YAXPAXI@Z ; __global_delete
  0008d	83 c4 08	 add	 esp, 8
$LN22@scalar:
  00090	8b c6		 mov	 eax, esi
  00092	8b 4d f4	 mov	 ecx, DWORD PTR __$EHRec$[ebp]
  00095	64 89 0d 00 00
	00 00		 mov	 DWORD PTR fs:0, ecx
  0009c	59		 pop	 ecx
  0009d	5e		 pop	 esi
  0009e	8b e5		 mov	 esp, ebp
  000a0	5d		 pop	 ebp
  000a1	c2 04 00	 ret	 4
  000a4	cc		 int	 3
  000a5	cc		 int	 3
  000a6	cc		 int	 3
  000a7	cc		 int	 3
  000a8	cc		 int	 3
_TEXT	ENDS
;	COMDAT text$x
text$x	SEGMENT
__ehhandler$??_G?$CList@P6AXXZP6AXXZ@@UAEPAXI@Z:
  00000	90		 npad	 1
  00001	90		 npad	 1
  00002	8b 54 24 08	 mov	 edx, DWORD PTR [esp+8]
  00006	8d 42 0c	 lea	 eax, DWORD PTR [edx+12]
  00009	8b 4a f8	 mov	 ecx, DWORD PTR [edx-8]
  0000c	33 c8		 xor	 ecx, eax
  0000e	e8 00 00 00 00	 call	 @__security_check_cookie@4
  00013	b8 00 00 00 00	 mov	 eax, OFFSET __ehfuncinfo$??_G?$CList@P6AXXZP6AXXZ@@UAEPAXI@Z
  00018	e9 00 00 00 00	 jmp	 ___CxxFrameHandler3
text$x	ENDS
??_G?$CList@P6AXXZP6AXXZ@@UAEPAXI@Z ENDP		; CList<void (__cdecl*)(void),void (__cdecl*)(void)>::`scalar deleting destructor'
; Function compile flags: /Ogtp
; File C:\Program Files (x86)\Microsoft Visual Studio\2019\Community\VC\Tools\MSVC\14.29.30133\atlmfc\include\afxtempl.h
; File C:\Program Files (x86)\Microsoft Visual Studio\2019\Community\VC\Tools\MSVC\14.29.30133\atlmfc\include\afx.inl
; File C:\Program Files (x86)\Microsoft Visual Studio\2019\Community\VC\Tools\MSVC\14.29.30133\atlmfc\include\afxtempl.h
; File C:\Program Files (x86)\Microsoft Visual Studio\2019\Community\VC\Tools\MSVC\14.29.30133\atlmfc\include\afx.inl
; File C:\Program Files (x86)\Microsoft Visual Studio\2019\Community\VC\Tools\MSVC\14.29.30133\atlmfc\include\afxtempl.h
; File C:\Program Files (x86)\Microsoft Visual Studio\2019\Community\VC\Tools\MSVC\14.29.30133\atlmfc\include\afx.inl
; File C:\Program Files (x86)\Microsoft Visual Studio\2019\Community\VC\Tools\MSVC\14.29.30133\atlmfc\include\afxtempl.h
; File C:\Program Files (x86)\Microsoft Visual Studio\2019\Community\VC\Tools\MSVC\14.29.30133\atlmfc\include\afx.inl
; File C:\Program Files (x86)\Microsoft Visual Studio\2019\Community\VC\Tools\MSVC\14.29.30133\atlmfc\include\afxtempl.h
; File C:\Program Files (x86)\Microsoft Visual Studio\2019\Community\VC\Tools\MSVC\14.29.30133\atlmfc\include\afx.inl
; File C:\Program Files (x86)\Microsoft Visual Studio\2019\Community\VC\Tools\MSVC\14.29.30133\atlmfc\include\afxtempl.h
; File C:\Program Files (x86)\Microsoft Visual Studio\2019\Community\VC\Tools\MSVC\14.29.30133\atlmfc\include\afx.inl
; File C:\Program Files (x86)\Microsoft Visual Studio\2019\Community\VC\Tools\MSVC\14.29.30133\atlmfc\include\afxtempl.h
;	COMDAT ?Serialize@?$CList@P6AXXZP6AXXZ@@UAEXAAVCArchive@@@Z
_TEXT	SEGMENT
_nNewCount$1$ = -16					; size = 4
_newData$1 = -12					; size = 4
_pData$1$ = -8						; size = 4
_pNode$1$ = -8						; size = 4
_nElementsLeft$1$ = -4					; size = 4
_this$1$ = -4						; size = 4
_ar$ = 8						; size = 4
?Serialize@?$CList@P6AXXZP6AXXZ@@UAEXAAVCArchive@@@Z PROC ; CList<void (__cdecl*)(void),void (__cdecl*)(void)>::Serialize, COMDAT
; _this$ = ecx

; 1169 : {

  00000	55		 push	 ebp
  00001	8b ec		 mov	 ebp, esp
  00003	83 ec 10	 sub	 esp, 16			; 00000010H
  00006	53		 push	 ebx
  00007	8b d9		 mov	 ebx, ecx
; File C:\Program Files (x86)\Microsoft Visual Studio\2019\Community\VC\Tools\MSVC\14.29.30133\atlmfc\include\afx.inl

; 212  : 	{ return (m_nMode & CArchive::load) == 0; }

  00009	8b 4d 08	 mov	 ecx, DWORD PTR _ar$[ebp]
; File C:\Program Files (x86)\Microsoft Visual Studio\2019\Community\VC\Tools\MSVC\14.29.30133\atlmfc\include\afxtempl.h

; 1169 : {

  0000c	56		 push	 esi
  0000d	57		 push	 edi
  0000e	89 5d fc	 mov	 DWORD PTR _this$1$[ebp], ebx
; File C:\Program Files (x86)\Microsoft Visual Studio\2019\Community\VC\Tools\MSVC\14.29.30133\atlmfc\include\afx.inl

; 212  : 	{ return (m_nMode & CArchive::load) == 0; }

  00011	8b 41 18	 mov	 eax, DWORD PTR [ecx+24]
  00014	f7 d0		 not	 eax
  00016	a8 01		 test	 al, 1
; File C:\Program Files (x86)\Microsoft Visual Studio\2019\Community\VC\Tools\MSVC\14.29.30133\atlmfc\include\afxtempl.h

; 1174 : 	if (ar.IsStoring())

  00018	0f 84 ae 00 00
	00		 je	 $LN7@Serialize

; 1175 : 	{
; 1176 : 		ar.WriteCount(m_nCount);

  0001e	ff 73 0c	 push	 DWORD PTR [ebx+12]
  00021	e8 00 00 00 00	 call	 ?WriteCount@CArchive@@QAEXK@Z ; CArchive::WriteCount

; 1177 : 		for (CNode* pNode = m_pNodeHead; pNode != NULL; pNode = pNode->pNext)

  00026	8b 43 04	 mov	 eax, DWORD PTR [ebx+4]
  00029	89 45 f8	 mov	 DWORD PTR _pNode$1$[ebp], eax
  0002c	85 c0		 test	 eax, eax
  0002e	0f 84 43 01 00
	00		 je	 $LN68@Serialize
$LL4@Serialize:

; 1178 : 		{
; 1179 : 			ASSERT(AfxIsValidAddress(pNode, sizeof(CNode)));
; 1180 : 			TYPE* pData;
; 1181 : 			/*
; 1182 : 			 * in some cases the & operator might be overloaded, and we cannot use it to obtain
; 1183 : 			 * the address of a given object.  We then use the following trick to get the address
; 1184 : 			 */
; 1185 : 			pData = reinterpret_cast< TYPE* >( &reinterpret_cast< int& >( static_cast< TYPE& >( pNode->data ) ) );

  00034	8d 70 08	 lea	 esi, DWORD PTR [eax+8]

; 68   : 	ENSURE(nCount == 0 || pElements != NULL);

  00037	85 f6		 test	 esi, esi
  00039	0f 84 4a 01 00
	00		 je	 $LN60@Serialize
; File C:\Program Files (x86)\Microsoft Visual Studio\2019\Community\VC\Tools\MSVC\14.29.30133\atlmfc\include\afx.inl

; 212  : 	{ return (m_nMode & CArchive::load) == 0; }

  0003f	8b 4d 08	 mov	 ecx, DWORD PTR _ar$[ebp]
  00042	8b 41 18	 mov	 eax, DWORD PTR [ecx+24]
  00045	f7 d0		 not	 eax
  00047	a8 01		 test	 al, 1
; File C:\Program Files (x86)\Microsoft Visual Studio\2019\Community\VC\Tools\MSVC\14.29.30133\atlmfc\include\afxtempl.h

; 73   : 	if (ar.IsStoring())

  00049	74 33		 je	 SHORT $LN21@Serialize

; 74   : 	{
; 75   : 		TYPE* pData;
; 76   : 		UINT_PTR nElementsLeft;
; 77   : 
; 78   : 		nElementsLeft = nCount;

  0004b	b8 01 00 00 00	 mov	 eax, 1
  00050	89 45 fc	 mov	 DWORD PTR _nElementsLeft$1$[ebp], eax
$LL16@Serialize:

; 80   : 		while( nElementsLeft > 0 )
; 81   : 		{
; 82   : 			UINT nElementsToWrite;
; 83   : 
; 84   : 			nElementsToWrite = UINT(__min(nElementsLeft, INT_MAX/sizeof(TYPE)));

  00053	bb ff ff ff 1f	 mov	 ebx, 536870911		; 1fffffffH
  00058	3b c3		 cmp	 eax, ebx
  0005a	0f 42 d8	 cmovb	 ebx, eax

; 85   : 			ar.Write(pData, nElementsToWrite*sizeof(TYPE));

  0005d	8d 3c 9d 00 00
	00 00		 lea	 edi, DWORD PTR [ebx*4]
  00064	57		 push	 edi
  00065	56		 push	 esi
  00066	e8 00 00 00 00	 call	 ?Write@CArchive@@QAEXPBXI@Z ; CArchive::Write

; 86   : 			nElementsLeft -= nElementsToWrite;

  0006b	8b 45 fc	 mov	 eax, DWORD PTR _nElementsLeft$1$[ebp]

; 87   : 			pData += nElementsToWrite;

  0006e	03 f7		 add	 esi, edi
  00070	8b 4d 08	 mov	 ecx, DWORD PTR _ar$[ebp]
  00073	2b c3		 sub	 eax, ebx
  00075	89 45 fc	 mov	 DWORD PTR _nElementsLeft$1$[ebp], eax
  00078	85 c0		 test	 eax, eax
  0007a	75 d7		 jne	 SHORT $LL16@Serialize

; 88   : 		}
; 89   : 	}

  0007c	eb 35		 jmp	 SHORT $LN2@Serialize
$LN21@Serialize:

; 90   : 	else
; 91   : 	{
; 92   : 		TYPE* pData;
; 93   : 		UINT_PTR nElementsLeft;
; 94   : 
; 95   : 		nElementsLeft = nCount;

  0007e	bf 01 00 00 00	 mov	 edi, 1
$LL18@Serialize:

; 98   : 		{
; 99   : 			UINT nElementsToRead;
; 100  : 
; 101  : 			nElementsToRead = UINT(__min(nElementsLeft, INT_MAX/sizeof(TYPE)));

  00083	bb ff ff ff 1f	 mov	 ebx, 536870911		; 1fffffffH
  00088	3b fb		 cmp	 edi, ebx
  0008a	0f 42 df	 cmovb	 ebx, edi

; 102  : 			ar.EnsureRead(pData, nElementsToRead*sizeof(TYPE));

  0008d	8d 04 9d 00 00
	00 00		 lea	 eax, DWORD PTR [ebx*4]
; File C:\Program Files (x86)\Microsoft Visual Studio\2019\Community\VC\Tools\MSVC\14.29.30133\atlmfc\include\afx.inl

; 399  : 	UINT nRead=Read(lpBuf, nCount);

  00094	50		 push	 eax
  00095	56		 push	 esi
  00096	e8 00 00 00 00	 call	 ?Read@CArchive@@QAEIPAXI@Z ; CArchive::Read

; 400  : 	if(nRead!=nCount)

  0009b	8d 0c 9d 00 00
	00 00		 lea	 ecx, DWORD PTR [ebx*4]
  000a2	3b c1		 cmp	 eax, ecx
  000a4	0f 85 d6 00 00
	00		 jne	 $LN59@Serialize
; File C:\Program Files (x86)\Microsoft Visual Studio\2019\Community\VC\Tools\MSVC\14.29.30133\atlmfc\include\afxtempl.h

; 97   : 		while( nElementsLeft > 0 )

  000aa	03 f1		 add	 esi, ecx
  000ac	8b 4d 08	 mov	 ecx, DWORD PTR _ar$[ebp]

; 103  : 			nElementsLeft -= nElementsToRead;

  000af	2b fb		 sub	 edi, ebx
  000b1	75 d0		 jne	 SHORT $LL18@Serialize
$LN2@Serialize:

; 1177 : 		for (CNode* pNode = m_pNodeHead; pNode != NULL; pNode = pNode->pNext)

  000b3	8b 45 f8	 mov	 eax, DWORD PTR _pNode$1$[ebp]
  000b6	8b 00		 mov	 eax, DWORD PTR [eax]
  000b8	89 45 f8	 mov	 DWORD PTR _pNode$1$[ebp], eax
  000bb	85 c0		 test	 eax, eax
  000bd	0f 85 71 ff ff
	ff		 jne	 $LL4@Serialize

; 1197 : 		}
; 1198 : 	}
; 1199 : }

  000c3	5f		 pop	 edi
  000c4	5e		 pop	 esi
  000c5	5b		 pop	 ebx
  000c6	8b e5		 mov	 esp, ebp
  000c8	5d		 pop	 ebp
  000c9	c2 04 00	 ret	 4
$LN7@Serialize:

; 1186 : 			SerializeElements<TYPE>(ar, pData, 1);
; 1187 : 		}
; 1188 : 	}
; 1189 : 	else
; 1190 : 	{
; 1191 : 		DWORD_PTR nNewCount = ar.ReadCount();

  000cc	e8 00 00 00 00	 call	 ?ReadCount@CArchive@@QAEKXZ ; CArchive::ReadCount

; 1192 : 		while (nNewCount--)

  000d1	85 c0		 test	 eax, eax
  000d3	0f 84 9e 00 00
	00		 je	 $LN68@Serialize
  000d9	0f 1f 80 00 00
	00 00		 npad	 7
$LL5@Serialize:
  000e0	48		 dec	 eax
  000e1	89 45 f0	 mov	 DWORD PTR _nNewCount$1$[ebp], eax
; File C:\Program Files (x86)\Microsoft Visual Studio\2019\Community\VC\Tools\MSVC\14.29.30133\atlmfc\include\afx.inl

; 212  : 	{ return (m_nMode & CArchive::load) == 0; }

  000e4	8b 45 08	 mov	 eax, DWORD PTR _ar$[ebp]
  000e7	8b 48 18	 mov	 ecx, DWORD PTR [eax+24]
  000ea	f7 d1		 not	 ecx
  000ec	f6 c1 01	 test	 cl, 1
; File C:\Program Files (x86)\Microsoft Visual Studio\2019\Community\VC\Tools\MSVC\14.29.30133\atlmfc\include\afxtempl.h

; 73   : 	if (ar.IsStoring())

  000ef	74 3a		 je	 SHORT $LN42@Serialize

; 79   : 		pData = pElements;

  000f1	8d 4d f4	 lea	 ecx, DWORD PTR _newData$1[ebp]
  000f4	bb 01 00 00 00	 mov	 ebx, 1
  000f9	89 4d f8	 mov	 DWORD PTR _pData$1$[ebp], ecx
  000fc	0f 1f 40 00	 npad	 4
$LL37@Serialize:

; 80   : 		while( nElementsLeft > 0 )
; 81   : 		{
; 82   : 			UINT nElementsToWrite;
; 83   : 
; 84   : 			nElementsToWrite = UINT(__min(nElementsLeft, INT_MAX/sizeof(TYPE)));

  00100	bf ff ff ff 1f	 mov	 edi, 536870911		; 1fffffffH
  00105	3b df		 cmp	 ebx, edi
  00107	0f 42 fb	 cmovb	 edi, ebx

; 85   : 			ar.Write(pData, nElementsToWrite*sizeof(TYPE));

  0010a	8d 34 bd 00 00
	00 00		 lea	 esi, DWORD PTR [edi*4]
  00111	56		 push	 esi
  00112	51		 push	 ecx
  00113	8b c8		 mov	 ecx, eax
  00115	e8 00 00 00 00	 call	 ?Write@CArchive@@QAEXPBXI@Z ; CArchive::Write

; 87   : 			pData += nElementsToWrite;

  0011a	8b 4d f8	 mov	 ecx, DWORD PTR _pData$1$[ebp]
  0011d	8b 45 08	 mov	 eax, DWORD PTR _ar$[ebp]
  00120	03 ce		 add	 ecx, esi
  00122	89 4d f8	 mov	 DWORD PTR _pData$1$[ebp], ecx
  00125	2b df		 sub	 ebx, edi
  00127	75 d7		 jne	 SHORT $LL37@Serialize

; 88   : 		}
; 89   : 	}

  00129	eb 36		 jmp	 SHORT $LN40@Serialize
$LN42@Serialize:

; 90   : 	else
; 91   : 	{
; 92   : 		TYPE* pData;
; 93   : 		UINT_PTR nElementsLeft;
; 94   : 
; 95   : 		nElementsLeft = nCount;

  0012b	be 01 00 00 00	 mov	 esi, 1

; 96   : 		pData = pElements;

  00130	8d 5d f4	 lea	 ebx, DWORD PTR _newData$1[ebp]
$LL39@Serialize:

; 98   : 		{
; 99   : 			UINT nElementsToRead;
; 100  : 
; 101  : 			nElementsToRead = UINT(__min(nElementsLeft, INT_MAX/sizeof(TYPE)));

  00133	bf ff ff ff 1f	 mov	 edi, 536870911		; 1fffffffH
  00138	3b f7		 cmp	 esi, edi
  0013a	0f 42 fe	 cmovb	 edi, esi

; 102  : 			ar.EnsureRead(pData, nElementsToRead*sizeof(TYPE));

  0013d	8d 0c bd 00 00
	00 00		 lea	 ecx, DWORD PTR [edi*4]
; File C:\Program Files (x86)\Microsoft Visual Studio\2019\Community\VC\Tools\MSVC\14.29.30133\atlmfc\include\afx.inl

; 399  : 	UINT nRead=Read(lpBuf, nCount);

  00144	51		 push	 ecx
  00145	53		 push	 ebx
  00146	8b c8		 mov	 ecx, eax
  00148	e8 00 00 00 00	 call	 ?Read@CArchive@@QAEIPAXI@Z ; CArchive::Read

; 400  : 	if(nRead!=nCount)

  0014d	8d 0c bd 00 00
	00 00		 lea	 ecx, DWORD PTR [edi*4]
  00154	3b c1		 cmp	 eax, ecx
  00156	75 28		 jne	 SHORT $LN59@Serialize
; File C:\Program Files (x86)\Microsoft Visual Studio\2019\Community\VC\Tools\MSVC\14.29.30133\atlmfc\include\afxtempl.h

; 104  : 			pData += nElementsToRead;

  00158	8b 45 08	 mov	 eax, DWORD PTR _ar$[ebp]
  0015b	03 d9		 add	 ebx, ecx
  0015d	2b f7		 sub	 esi, edi
  0015f	75 d2		 jne	 SHORT $LL39@Serialize
$LN40@Serialize:

; 1193 : 		{
; 1194 : 			TYPE newData[1];
; 1195 : 			SerializeElements<TYPE>(ar, newData, 1);
; 1196 : 			AddTail(newData[0]);

  00161	ff 75 f4	 push	 DWORD PTR _newData$1[ebp]
  00164	8b 4d fc	 mov	 ecx, DWORD PTR _this$1$[ebp]
  00167	e8 00 00 00 00	 call	 ?AddTail@?$CList@P6AXXZP6AXXZ@@QAEPAU__POSITION@@P6AXXZ@Z ; CList<void (__cdecl*)(void),void (__cdecl*)(void)>::AddTail
  0016c	8b 45 f0	 mov	 eax, DWORD PTR _nNewCount$1$[ebp]
  0016f	85 c0		 test	 eax, eax
  00171	0f 85 69 ff ff
	ff		 jne	 $LL5@Serialize
$LN68@Serialize:
  00177	5f		 pop	 edi

; 1197 : 		}
; 1198 : 	}
; 1199 : }

  00178	5e		 pop	 esi
  00179	5b		 pop	 ebx
  0017a	8b e5		 mov	 esp, ebp
  0017c	5d		 pop	 ebp
  0017d	c2 04 00	 ret	 4
$LN59@Serialize:
  00180	6a 00		 push	 0
  00182	6a 03		 push	 3
  00184	e8 00 00 00 00	 call	 ?AfxThrowArchiveException@@YGXHPBD@Z ; AfxThrowArchiveException
$LN60@Serialize:

; 68   : 	ENSURE(nCount == 0 || pElements != NULL);

  00189	e8 00 00 00 00	 call	 ?AfxThrowInvalidArgException@@YGXXZ ; AfxThrowInvalidArgException
$LN85@Serialize:
  0018e	cc		 int	 3
?Serialize@?$CList@P6AXXZP6AXXZ@@UAEXAAVCArchive@@@Z ENDP ; CList<void (__cdecl*)(void),void (__cdecl*)(void)>::Serialize
_TEXT	ENDS
; Function compile flags: /Ogtp
; File C:\Program Files (x86)\Microsoft Visual Studio\2019\Community\VC\Tools\MSVC\14.29.30133\atlmfc\include\afxtempl.h
;	COMDAT ??1?$CList@P6AXXZP6AXXZ@@UAE@XZ
_TEXT	SEGMENT
__$EHRec$ = -12						; size = 12
??1?$CList@P6AXXZP6AXXZ@@UAE@XZ PROC			; CList<void (__cdecl*)(void),void (__cdecl*)(void)>::~CList<void (__cdecl*)(void),void (__cdecl*)(void)>, COMDAT
; _this$ = ecx

; 878  : {

  00000	55		 push	 ebp
  00001	8b ec		 mov	 ebp, esp
  00003	6a ff		 push	 -1
  00005	68 00 00 00 00	 push	 __ehhandler$??1?$CList@P6AXXZP6AXXZ@@UAE@XZ
  0000a	64 a1 00 00 00
	00		 mov	 eax, DWORD PTR fs:0
  00010	50		 push	 eax
  00011	56		 push	 esi
  00012	a1 00 00 00 00	 mov	 eax, DWORD PTR ___security_cookie
  00017	33 c5		 xor	 eax, ebp
  00019	50		 push	 eax
  0001a	8d 45 f4	 lea	 eax, DWORD PTR __$EHRec$[ebp]
  0001d	64 a3 00 00 00
	00		 mov	 DWORD PTR fs:0, eax
  00023	8b f1		 mov	 esi, ecx

; 872  : 	m_pBlocks->FreeDataChain();

  00025	8b 4e 14	 mov	 ecx, DWORD PTR [esi+20]

; 878  : {

  00028	c7 06 00 00 00
	00		 mov	 DWORD PTR [esi], OFFSET ??_7?$CList@P6AXXZP6AXXZ@@6B@

; 870  : 	m_nCount = 0;

  0002e	c7 46 0c 00 00
	00 00		 mov	 DWORD PTR [esi+12], 0

; 871  : 	m_pNodeHead = m_pNodeTail = m_pNodeFree = NULL;

  00035	c7 46 10 00 00
	00 00		 mov	 DWORD PTR [esi+16], 0
  0003c	c7 46 08 00 00
	00 00		 mov	 DWORD PTR [esi+8], 0
  00043	c7 46 04 00 00
	00 00		 mov	 DWORD PTR [esi+4], 0

; 872  : 	m_pBlocks->FreeDataChain();

  0004a	e8 00 00 00 00	 call	 ?FreeDataChain@CPlex@@QAEXXZ ; CPlex::FreeDataChain

; 873  : 	m_pBlocks = NULL;

  0004f	c7 46 14 00 00
	00 00		 mov	 DWORD PTR [esi+20], 0

; 879  : 	RemoveAll();
; 880  : 	ASSERT(m_nCount == 0);
; 881  : }

  00056	8b 4d f4	 mov	 ecx, DWORD PTR __$EHRec$[ebp]
  00059	64 89 0d 00 00
	00 00		 mov	 DWORD PTR fs:0, ecx
  00060	59		 pop	 ecx
  00061	5e		 pop	 esi
  00062	8b e5		 mov	 esp, ebp
  00064	5d		 pop	 ebp
  00065	c3		 ret	 0
  00066	cc		 int	 3
  00067	cc		 int	 3
  00068	cc		 int	 3
  00069	cc		 int	 3
  0006a	cc		 int	 3
_TEXT	ENDS
;	COMDAT text$x
text$x	SEGMENT
__ehhandler$??1?$CList@P6AXXZP6AXXZ@@UAE@XZ:
  00000	90		 npad	 1
  00001	90		 npad	 1
  00002	8b 54 24 08	 mov	 edx, DWORD PTR [esp+8]
  00006	8d 42 0c	 lea	 eax, DWORD PTR [edx+12]
  00009	8b 4a f8	 mov	 ecx, DWORD PTR [edx-8]
  0000c	33 c8		 xor	 ecx, eax
  0000e	e8 00 00 00 00	 call	 @__security_check_cookie@4
  00013	b8 00 00 00 00	 mov	 eax, OFFSET __ehfuncinfo$??1?$CList@P6AXXZP6AXXZ@@UAE@XZ
  00018	e9 00 00 00 00	 jmp	 ___CxxFrameHandler3
text$x	ENDS
??1?$CList@P6AXXZP6AXXZ@@UAE@XZ ENDP			; CList<void (__cdecl*)(void),void (__cdecl*)(void)>::~CList<void (__cdecl*)(void),void (__cdecl*)(void)>
; Function compile flags: /Ogtp
; File C:\Program Files (x86)\Microsoft Visual Studio\2019\Community\VC\Tools\MSVC\14.29.30133\atlmfc\include\afxtempl.h
;	COMDAT ?FreeNode@?$CList@P6AXXZP6AXXZ@@IAEXPAUCNode@1@@Z
_TEXT	SEGMENT
_pNode$ = 8						; size = 4
?FreeNode@?$CList@P6AXXZP6AXXZ@@IAEXPAUCNode@1@@Z PROC	; CList<void (__cdecl*)(void),void (__cdecl*)(void)>::FreeNode, COMDAT
; _this$ = ecx

; 936  : {

  00000	55		 push	 ebp
  00001	8b ec		 mov	 ebp, esp

; 937  : 	pNode->data.~TYPE();
; 938  : 	pNode->pNext = m_pNodeFree;

  00003	8b 55 08	 mov	 edx, DWORD PTR _pNode$[ebp]
  00006	56		 push	 esi
  00007	8b f1		 mov	 esi, ecx
  00009	8b 46 10	 mov	 eax, DWORD PTR [esi+16]
  0000c	89 02		 mov	 DWORD PTR [edx], eax

; 939  : 	m_pNodeFree = pNode;
; 940  : 	m_nCount--;

  0000e	83 46 0c ff	 add	 DWORD PTR [esi+12], -1
  00012	89 56 10	 mov	 DWORD PTR [esi+16], edx

; 941  : 	ASSERT(m_nCount >= 0);  // make sure we don't underflow
; 942  : 
; 943  : 	// if no more elements, cleanup completely
; 944  : 	if (m_nCount == 0)

  00015	75 2b		 jne	 SHORT $LN2@FreeNode

; 872  : 	m_pBlocks->FreeDataChain();

  00017	8b 4e 14	 mov	 ecx, DWORD PTR [esi+20]
  0001a	c7 46 0c 00 00
	00 00		 mov	 DWORD PTR [esi+12], 0
  00021	c7 46 10 00 00
	00 00		 mov	 DWORD PTR [esi+16], 0
  00028	c7 46 08 00 00
	00 00		 mov	 DWORD PTR [esi+8], 0
  0002f	c7 46 04 00 00
	00 00		 mov	 DWORD PTR [esi+4], 0
  00036	e8 00 00 00 00	 call	 ?FreeDataChain@CPlex@@QAEXXZ ; CPlex::FreeDataChain

; 873  : 	m_pBlocks = NULL;

  0003b	c7 46 14 00 00
	00 00		 mov	 DWORD PTR [esi+20], 0
$LN2@FreeNode:
  00042	5e		 pop	 esi

; 945  : 		RemoveAll();
; 946  : }

  00043	5d		 pop	 ebp
  00044	c2 04 00	 ret	 4
?FreeNode@?$CList@P6AXXZP6AXXZ@@IAEXPAUCNode@1@@Z ENDP	; CList<void (__cdecl*)(void),void (__cdecl*)(void)>::FreeNode
_TEXT	ENDS
; Function compile flags: /Ogtp
; File C:\Program Files (x86)\Microsoft Visual Studio\2019\Community\VC\Tools\MSVC\14.29.30133\atlmfc\include\afxtempl.h
;	COMDAT ?NewNode@?$CList@P6AXXZP6AXXZ@@IAEPAUCNode@1@PAU21@0@Z
_TEXT	SEGMENT
_pPrev$ = 8						; size = 4
_pNext$ = 12						; size = 4
?NewNode@?$CList@P6AXXZP6AXXZ@@IAEPAUCNode@1@PAU21@0@Z PROC ; CList<void (__cdecl*)(void),void (__cdecl*)(void)>::NewNode, COMDAT
; _this$ = ecx

; 901  : {

  00000	55		 push	 ebp
  00001	8b ec		 mov	 ebp, esp
  00003	56		 push	 esi
  00004	8b f1		 mov	 esi, ecx

; 902  : 	if (m_pNodeFree == NULL)

  00006	83 7e 10 00	 cmp	 DWORD PTR [esi+16], 0
  0000a	75 34		 jne	 SHORT $LN7@NewNode

; 903  : 	{
; 904  : 		// add another block
; 905  : 		CPlex* pNewBlock = CPlex::Create(m_pBlocks, m_nBlockSize,

  0000c	6a 0c		 push	 12			; 0000000cH
  0000e	ff 76 18	 push	 DWORD PTR [esi+24]
  00011	8d 46 14	 lea	 eax, DWORD PTR [esi+20]
  00014	50		 push	 eax
  00015	e8 00 00 00 00	 call	 ?Create@CPlex@@SGPAU1@AAPAU1@II@Z ; CPlex::Create

; 906  : 				 sizeof(CNode));
; 907  : 
; 908  : 		// chain them into free list
; 909  : 		CNode* pNode = (CNode*) pNewBlock->data();
; 910  : 		// free in reverse order to make it easier to debug
; 911  : 		pNode += m_nBlockSize - 1;

  0001a	8b 56 18	 mov	 edx, DWORD PTR [esi+24]
  0001d	83 c0 08	 add	 eax, 8
  00020	8d 0c 52	 lea	 ecx, DWORD PTR [edx+edx*2]
  00023	8d 04 88	 lea	 eax, DWORD PTR [eax+ecx*4]
  00026	83 c0 f4	 add	 eax, -12		; fffffff4H

; 912  : 		for (INT_PTR i = m_nBlockSize-1; i >= 0; i--, pNode--)

  00029	83 c2 ff	 add	 edx, -1
  0002c	78 12		 js	 SHORT $LN7@NewNode
  0002e	66 90		 npad	 2
$LL4@NewNode:

; 913  : 		{
; 914  : 			pNode->pNext = m_pNodeFree;

  00030	8b 4e 10	 mov	 ecx, DWORD PTR [esi+16]
  00033	89 08		 mov	 DWORD PTR [eax], ecx

; 915  : 			m_pNodeFree = pNode;

  00035	89 46 10	 mov	 DWORD PTR [esi+16], eax
  00038	83 e8 0c	 sub	 eax, 12			; 0000000cH
  0003b	83 ea 01	 sub	 edx, 1
  0003e	79 f0		 jns	 SHORT $LL4@NewNode
$LN7@NewNode:

; 916  : 		}
; 917  : 	}
; 918  : 	ENSURE(m_pNodeFree != NULL);  // we must have something

  00040	8b 46 10	 mov	 eax, DWORD PTR [esi+16]
  00043	85 c0		 test	 eax, eax
  00045	74 18		 je	 SHORT $LN17@NewNode

; 919  : 
; 920  : 	CList::CNode* pNode = m_pNodeFree;
; 921  : 	m_pNodeFree = m_pNodeFree->pNext;

  00047	8b 08		 mov	 ecx, DWORD PTR [eax]
  00049	89 4e 10	 mov	 DWORD PTR [esi+16], ecx

; 922  : 	pNode->pPrev = pPrev;

  0004c	8b 4d 08	 mov	 ecx, DWORD PTR _pPrev$[ebp]
  0004f	89 48 04	 mov	 DWORD PTR [eax+4], ecx

; 923  : 	pNode->pNext = pNext;

  00052	8b 4d 0c	 mov	 ecx, DWORD PTR _pNext$[ebp]
  00055	89 08		 mov	 DWORD PTR [eax], ecx

; 924  : 	m_nCount++;

  00057	ff 46 0c	 inc	 DWORD PTR [esi+12]

; 925  : 	ASSERT(m_nCount > 0);  // make sure we don't overflow
; 926  : 
; 927  : #pragma push_macro("new")
; 928  : #undef new
; 929  : 	::new( (void*)( &pNode->data ) ) TYPE;
; 930  : #pragma pop_macro("new")
; 931  : 	return pNode;

  0005a	5e		 pop	 esi

; 932  : }

  0005b	5d		 pop	 ebp
  0005c	c2 08 00	 ret	 8
$LN17@NewNode:

; 916  : 		}
; 917  : 	}
; 918  : 	ENSURE(m_pNodeFree != NULL);  // we must have something

  0005f	e8 00 00 00 00	 call	 ?AfxThrowInvalidArgException@@YGXXZ ; AfxThrowInvalidArgException
$LN15@NewNode:
  00064	cc		 int	 3
?NewNode@?$CList@P6AXXZP6AXXZ@@IAEPAUCNode@1@PAU21@0@Z ENDP ; CList<void (__cdecl*)(void),void (__cdecl*)(void)>::NewNode
_TEXT	ENDS
; Function compile flags: /Ogtp
; File C:\Program Files (x86)\Microsoft Visual Studio\2019\Community\VC\Tools\MSVC\14.29.30133\atlmfc\include\afxtempl.h
;	COMDAT ?Find@?$CList@P6AXXZP6AXXZ@@QBEPAU__POSITION@@P6AXXZPAU2@@Z
_TEXT	SEGMENT
_searchValue$ = 8					; size = 4
_startAfter$ = 12					; size = 4
?Find@?$CList@P6AXXZP6AXXZ@@QBEPAU__POSITION@@P6AXXZPAU2@@Z PROC ; CList<void (__cdecl*)(void),void (__cdecl*)(void)>::Find, COMDAT
; _this$ = ecx

; 1147 : {

  00000	55		 push	 ebp
  00001	8b ec		 mov	 ebp, esp
  00003	8b 45 0c	 mov	 eax, DWORD PTR _startAfter$[ebp]

; 1148 : 	ASSERT_VALID(this);
; 1149 : 
; 1150 : 	CNode* pNode = (CNode*) startAfter;
; 1151 : 	if (pNode == NULL)

  00006	85 c0		 test	 eax, eax
  00008	75 03		 jne	 SHORT $LN6@Find

; 1152 : 	{
; 1153 : 		pNode = m_pNodeHead;  // start at head

  0000a	8d 41 04	 lea	 eax, DWORD PTR [ecx+4]
$LN6@Find:

; 1154 : 	}
; 1155 : 	else
; 1156 : 	{
; 1157 : 		ASSERT(AfxIsValidAddress(pNode, sizeof(CNode)));
; 1158 : 		pNode = pNode->pNext;  // start after the one specified
; 1159 : 	}
; 1160 : 
; 1161 : 	for (; pNode != NULL; pNode = pNode->pNext)

  0000d	8b 00		 mov	 eax, DWORD PTR [eax]
  0000f	85 c0		 test	 eax, eax
  00011	74 14		 je	 SHORT $LN3@Find
  00013	8b 55 08	 mov	 edx, DWORD PTR _searchValue$[ebp]
$LL4@Find:

; 1162 : 		if (CompareElements<TYPE>(&pNode->data, &searchValue))

  00016	8d 48 08	 lea	 ecx, DWORD PTR [eax+8]

; 152  : 	ENSURE(pElement1 != NULL && pElement2 != NULL);

  00019	85 c9		 test	 ecx, ecx
  0001b	74 10		 je	 SHORT $LN19@Find

; 153  : 	ASSERT(AfxIsValidAddress(pElement1, sizeof(TYPE), FALSE));
; 154  : 	ASSERT(AfxIsValidAddress(pElement2, sizeof(ARG_TYPE), FALSE));
; 155  : 
; 156  : 	return *pElement1 == *pElement2;

  0001d	39 11		 cmp	 DWORD PTR [ecx], edx

; 1162 : 		if (CompareElements<TYPE>(&pNode->data, &searchValue))

  0001f	74 08		 je	 SHORT $LN1@Find

; 1154 : 	}
; 1155 : 	else
; 1156 : 	{
; 1157 : 		ASSERT(AfxIsValidAddress(pNode, sizeof(CNode)));
; 1158 : 		pNode = pNode->pNext;  // start after the one specified
; 1159 : 	}
; 1160 : 
; 1161 : 	for (; pNode != NULL; pNode = pNode->pNext)

  00021	8b 00		 mov	 eax, DWORD PTR [eax]
  00023	85 c0		 test	 eax, eax
  00025	75 ef		 jne	 SHORT $LL4@Find
$LN3@Find:

; 1163 : 			return (POSITION)pNode;
; 1164 : 	return NULL;

  00027	33 c0		 xor	 eax, eax
$LN1@Find:

; 1165 : }

  00029	5d		 pop	 ebp
  0002a	c2 08 00	 ret	 8
$LN19@Find:

; 152  : 	ENSURE(pElement1 != NULL && pElement2 != NULL);

  0002d	e8 00 00 00 00	 call	 ?AfxThrowInvalidArgException@@YGXXZ ; AfxThrowInvalidArgException
$LN26@Find:
  00032	cc		 int	 3
?Find@?$CList@P6AXXZP6AXXZ@@QBEPAU__POSITION@@P6AXXZPAU2@@Z ENDP ; CList<void (__cdecl*)(void),void (__cdecl*)(void)>::Find
_TEXT	ENDS
; Function compile flags: /Ogtp
; File C:\Program Files (x86)\Microsoft Visual Studio\2019\Community\VC\Tools\MSVC\14.29.30133\atlmfc\include\afxtempl.h
;	COMDAT ?RemoveAt@?$CList@P6AXXZP6AXXZ@@QAEXPAU__POSITION@@@Z
_TEXT	SEGMENT
_position$ = 8						; size = 4
?RemoveAt@?$CList@P6AXXZP6AXXZ@@QAEXPAU__POSITION@@@Z PROC ; CList<void (__cdecl*)(void),void (__cdecl*)(void)>::RemoveAt, COMDAT
; _this$ = ecx

; 1100 : {

  00000	55		 push	 ebp
  00001	8b ec		 mov	 ebp, esp
  00003	56		 push	 esi
  00004	8b f1		 mov	 esi, ecx

; 1101 : 	ASSERT_VALID(this);
; 1102 : 
; 1103 : 	CNode* pOldNode = (CNode*) position;
; 1104 : 	ASSERT(AfxIsValidAddress(pOldNode, sizeof(CNode)));
; 1105 : 
; 1106 : 	// remove pOldNode from list
; 1107 : 	if (pOldNode == m_pNodeHead)

  00006	8b 4d 08	 mov	 ecx, DWORD PTR _position$[ebp]
  00009	8b 11		 mov	 edx, DWORD PTR [ecx]
  0000b	3b 4e 04	 cmp	 ecx, DWORD PTR [esi+4]
  0000e	75 05		 jne	 SHORT $LN2@RemoveAt

; 1108 : 	{
; 1109 : 		m_pNodeHead = pOldNode->pNext;

  00010	89 56 04	 mov	 DWORD PTR [esi+4], edx

; 1110 : 	}

  00013	eb 05		 jmp	 SHORT $LN3@RemoveAt
$LN2@RemoveAt:

; 1111 : 	else
; 1112 : 	{
; 1113 : 		ASSERT(AfxIsValidAddress(pOldNode->pPrev, sizeof(CNode)));
; 1114 : 		pOldNode->pPrev->pNext = pOldNode->pNext;

  00015	8b 41 04	 mov	 eax, DWORD PTR [ecx+4]
  00018	89 10		 mov	 DWORD PTR [eax], edx
$LN3@RemoveAt:

; 1115 : 	}
; 1116 : 	if (pOldNode == m_pNodeTail)

  0001a	8b 51 04	 mov	 edx, DWORD PTR [ecx+4]
  0001d	3b 4e 08	 cmp	 ecx, DWORD PTR [esi+8]
  00020	75 05		 jne	 SHORT $LN4@RemoveAt

; 1117 : 	{
; 1118 : 		m_pNodeTail = pOldNode->pPrev;

  00022	89 56 08	 mov	 DWORD PTR [esi+8], edx

; 1119 : 	}

  00025	eb 05		 jmp	 SHORT $LN5@RemoveAt
$LN4@RemoveAt:

; 1120 : 	else
; 1121 : 	{
; 1122 : 		ASSERT(AfxIsValidAddress(pOldNode->pNext, sizeof(CNode)));
; 1123 : 		pOldNode->pNext->pPrev = pOldNode->pPrev;

  00027	8b 01		 mov	 eax, DWORD PTR [ecx]
  00029	89 50 04	 mov	 DWORD PTR [eax+4], edx
$LN5@RemoveAt:

; 938  : 	pNode->pNext = m_pNodeFree;

  0002c	8b 46 10	 mov	 eax, DWORD PTR [esi+16]
  0002f	89 01		 mov	 DWORD PTR [ecx], eax

; 939  : 	m_pNodeFree = pNode;
; 940  : 	m_nCount--;

  00031	83 46 0c ff	 add	 DWORD PTR [esi+12], -1
  00035	89 4e 10	 mov	 DWORD PTR [esi+16], ecx

; 941  : 	ASSERT(m_nCount >= 0);  // make sure we don't underflow
; 942  : 
; 943  : 	// if no more elements, cleanup completely
; 944  : 	if (m_nCount == 0)

  00038	75 2b		 jne	 SHORT $LN8@RemoveAt

; 872  : 	m_pBlocks->FreeDataChain();

  0003a	8b 4e 14	 mov	 ecx, DWORD PTR [esi+20]
  0003d	c7 46 0c 00 00
	00 00		 mov	 DWORD PTR [esi+12], 0
  00044	c7 46 10 00 00
	00 00		 mov	 DWORD PTR [esi+16], 0
  0004b	c7 46 08 00 00
	00 00		 mov	 DWORD PTR [esi+8], 0
  00052	c7 46 04 00 00
	00 00		 mov	 DWORD PTR [esi+4], 0
  00059	e8 00 00 00 00	 call	 ?FreeDataChain@CPlex@@QAEXXZ ; CPlex::FreeDataChain

; 873  : 	m_pBlocks = NULL;

  0005e	c7 46 14 00 00
	00 00		 mov	 DWORD PTR [esi+20], 0
$LN8@RemoveAt:
  00065	5e		 pop	 esi

; 1124 : 	}
; 1125 : 	FreeNode(pOldNode);
; 1126 : }

  00066	5d		 pop	 ebp
  00067	c2 04 00	 ret	 4
?RemoveAt@?$CList@P6AXXZP6AXXZ@@QAEXPAU__POSITION@@@Z ENDP ; CList<void (__cdecl*)(void),void (__cdecl*)(void)>::RemoveAt
_TEXT	ENDS
; Function compile flags: /Ogtp
; File C:\Program Files (x86)\Microsoft Visual Studio\2019\Community\VC\Tools\MSVC\14.29.30133\atlmfc\include\afxtempl.h
;	COMDAT ?RemoveAll@?$CList@P6AXXZP6AXXZ@@QAEXXZ
_TEXT	SEGMENT
?RemoveAll@?$CList@P6AXXZP6AXXZ@@QAEXXZ PROC		; CList<void (__cdecl*)(void),void (__cdecl*)(void)>::RemoveAll, COMDAT
; _this$ = ecx

; 862  : {

  00000	56		 push	 esi
  00001	8b f1		 mov	 esi, ecx

; 863  : 	ASSERT_VALID(this);
; 864  : 
; 865  : 	// destroy elements
; 866  : 	CNode* pNode;
; 867  : 	for (pNode = m_pNodeHead; pNode != NULL; pNode = pNode->pNext)
; 868  : 		pNode->data.~TYPE();
; 869  : 
; 870  : 	m_nCount = 0;
; 871  : 	m_pNodeHead = m_pNodeTail = m_pNodeFree = NULL;
; 872  : 	m_pBlocks->FreeDataChain();

  00003	8b 4e 14	 mov	 ecx, DWORD PTR [esi+20]
  00006	c7 46 0c 00 00
	00 00		 mov	 DWORD PTR [esi+12], 0
  0000d	c7 46 10 00 00
	00 00		 mov	 DWORD PTR [esi+16], 0
  00014	c7 46 08 00 00
	00 00		 mov	 DWORD PTR [esi+8], 0
  0001b	c7 46 04 00 00
	00 00		 mov	 DWORD PTR [esi+4], 0
  00022	e8 00 00 00 00	 call	 ?FreeDataChain@CPlex@@QAEXXZ ; CPlex::FreeDataChain

; 873  : 	m_pBlocks = NULL;

  00027	c7 46 14 00 00
	00 00		 mov	 DWORD PTR [esi+20], 0
  0002e	5e		 pop	 esi

; 874  : }

  0002f	c3		 ret	 0
?RemoveAll@?$CList@P6AXXZP6AXXZ@@QAEXXZ ENDP		; CList<void (__cdecl*)(void),void (__cdecl*)(void)>::RemoveAll
_TEXT	ENDS
; Function compile flags: /Ogtp
; File C:\Program Files (x86)\Microsoft Visual Studio\2019\Community\VC\Tools\MSVC\14.29.30133\atlmfc\include\afxtempl.h
;	COMDAT ?AddTail@?$CList@P6AXXZP6AXXZ@@QAEPAU__POSITION@@P6AXXZ@Z
_TEXT	SEGMENT
_newElement$ = 8					; size = 4
?AddTail@?$CList@P6AXXZP6AXXZ@@QAEPAU__POSITION@@P6AXXZ@Z PROC ; CList<void (__cdecl*)(void),void (__cdecl*)(void)>::AddTail, COMDAT
; _this$ = ecx

; 965  : {

  00000	55		 push	 ebp
  00001	8b ec		 mov	 ebp, esp
  00003	56		 push	 esi
  00004	8b f1		 mov	 esi, ecx
  00006	57		 push	 edi

; 902  : 	if (m_pNodeFree == NULL)

  00007	83 7e 10 00	 cmp	 DWORD PTR [esi+16], 0

; 966  : 	ASSERT_VALID(this);
; 967  : 
; 968  : 	CNode* pNewNode = NewNode(m_pNodeTail, NULL);

  0000b	8b 7e 08	 mov	 edi, DWORD PTR [esi+8]

; 902  : 	if (m_pNodeFree == NULL)

  0000e	75 32		 jne	 SHORT $LN11@AddTail

; 903  : 	{
; 904  : 		// add another block
; 905  : 		CPlex* pNewBlock = CPlex::Create(m_pBlocks, m_nBlockSize,

  00010	6a 0c		 push	 12			; 0000000cH
  00012	ff 76 18	 push	 DWORD PTR [esi+24]
  00015	8d 46 14	 lea	 eax, DWORD PTR [esi+20]
  00018	50		 push	 eax
  00019	e8 00 00 00 00	 call	 ?Create@CPlex@@SGPAU1@AAPAU1@II@Z ; CPlex::Create

; 906  : 				 sizeof(CNode));
; 907  : 
; 908  : 		// chain them into free list
; 909  : 		CNode* pNode = (CNode*) pNewBlock->data();
; 910  : 		// free in reverse order to make it easier to debug
; 911  : 		pNode += m_nBlockSize - 1;

  0001e	8b 56 18	 mov	 edx, DWORD PTR [esi+24]
  00021	83 c0 08	 add	 eax, 8
  00024	8d 4a ff	 lea	 ecx, DWORD PTR [edx-1]

; 912  : 		for (INT_PTR i = m_nBlockSize-1; i >= 0; i--, pNode--)

  00027	83 c2 ff	 add	 edx, -1
  0002a	8d 0c 49	 lea	 ecx, DWORD PTR [ecx+ecx*2]
  0002d	8d 0c 88	 lea	 ecx, DWORD PTR [eax+ecx*4]
  00030	78 10		 js	 SHORT $LN11@AddTail
$LL8@AddTail:

; 913  : 		{
; 914  : 			pNode->pNext = m_pNodeFree;

  00032	8b 46 10	 mov	 eax, DWORD PTR [esi+16]
  00035	89 01		 mov	 DWORD PTR [ecx], eax

; 915  : 			m_pNodeFree = pNode;

  00037	89 4e 10	 mov	 DWORD PTR [esi+16], ecx
  0003a	83 e9 0c	 sub	 ecx, 12			; 0000000cH
  0003d	83 ea 01	 sub	 edx, 1
  00040	79 f0		 jns	 SHORT $LL8@AddTail
$LN11@AddTail:

; 916  : 		}
; 917  : 	}
; 918  : 	ENSURE(m_pNodeFree != NULL);  // we must have something

  00042	8b 4e 10	 mov	 ecx, DWORD PTR [esi+16]
  00045	85 c9		 test	 ecx, ecx
  00047	74 39		 je	 SHORT $LN22@AddTail

; 919  : 
; 920  : 	CList::CNode* pNode = m_pNodeFree;
; 921  : 	m_pNodeFree = m_pNodeFree->pNext;

  00049	8b 01		 mov	 eax, DWORD PTR [ecx]
  0004b	89 46 10	 mov	 DWORD PTR [esi+16], eax

; 969  : 	pNewNode->data = newElement;

  0004e	8b 45 08	 mov	 eax, DWORD PTR _newElement$[ebp]

; 922  : 	pNode->pPrev = pPrev;

  00051	89 79 04	 mov	 DWORD PTR [ecx+4], edi

; 923  : 	pNode->pNext = pNext;

  00054	c7 01 00 00 00
	00		 mov	 DWORD PTR [ecx], 0

; 924  : 	m_nCount++;

  0005a	ff 46 0c	 inc	 DWORD PTR [esi+12]

; 969  : 	pNewNode->data = newElement;

  0005d	89 41 08	 mov	 DWORD PTR [ecx+8], eax

; 970  : 	if (m_pNodeTail != NULL)

  00060	8b 46 08	 mov	 eax, DWORD PTR [esi+8]
  00063	85 c0		 test	 eax, eax
  00065	74 0d		 je	 SHORT $LN2@AddTail

; 971  : 		m_pNodeTail->pNext = pNewNode;

  00067	89 08		 mov	 DWORD PTR [eax], ecx

; 972  : 	else
; 973  : 		m_pNodeHead = pNewNode;
; 974  : 	m_pNodeTail = pNewNode;
; 975  : 	return (POSITION) pNewNode;

  00069	8b c1		 mov	 eax, ecx
  0006b	5f		 pop	 edi
  0006c	89 4e 08	 mov	 DWORD PTR [esi+8], ecx
  0006f	5e		 pop	 esi

; 976  : }

  00070	5d		 pop	 ebp
  00071	c2 04 00	 ret	 4
$LN2@AddTail:

; 972  : 	else
; 973  : 		m_pNodeHead = pNewNode;
; 974  : 	m_pNodeTail = pNewNode;
; 975  : 	return (POSITION) pNewNode;

  00074	5f		 pop	 edi
  00075	89 4e 04	 mov	 DWORD PTR [esi+4], ecx
  00078	8b c1		 mov	 eax, ecx
  0007a	89 4e 08	 mov	 DWORD PTR [esi+8], ecx
  0007d	5e		 pop	 esi

; 976  : }

  0007e	5d		 pop	 ebp
  0007f	c2 04 00	 ret	 4
$LN22@AddTail:

; 918  : 	ENSURE(m_pNodeFree != NULL);  // we must have something

  00082	e8 00 00 00 00	 call	 ?AfxThrowInvalidArgException@@YGXXZ ; AfxThrowInvalidArgException
$LN20@AddTail:
  00087	cc		 int	 3
?AddTail@?$CList@P6AXXZP6AXXZ@@QAEPAU__POSITION@@P6AXXZ@Z ENDP ; CList<void (__cdecl*)(void),void (__cdecl*)(void)>::AddTail
_TEXT	ENDS
; Function compile flags: /Ogtp
; File C:\Program Files (x86)\Microsoft Visual Studio\2019\Community\VC\Tools\MSVC\14.29.30133\atlmfc\include\afxtempl.h
;	COMDAT ??0?$CList@P6AXXZP6AXXZ@@QAE@H@Z
_TEXT	SEGMENT
_nBlockSize$ = 8					; size = 4
??0?$CList@P6AXXZP6AXXZ@@QAE@H@Z PROC			; CList<void (__cdecl*)(void),void (__cdecl*)(void)>::CList<void (__cdecl*)(void),void (__cdecl*)(void)>, COMDAT
; _this$ = ecx

; 851  : {

  00000	55		 push	 ebp
  00001	8b ec		 mov	 ebp, esp

; 852  : 	ASSERT(nBlockSize > 0);
; 853  : 
; 854  : 	m_nCount = 0;
; 855  : 	m_pNodeHead = m_pNodeTail = m_pNodeFree = NULL;
; 856  : 	m_pBlocks = NULL;
; 857  : 	m_nBlockSize = nBlockSize;

  00003	8b 45 08	 mov	 eax, DWORD PTR _nBlockSize$[ebp]
  00006	89 41 18	 mov	 DWORD PTR [ecx+24], eax

; 858  : }

  00009	8b c1		 mov	 eax, ecx
  0000b	c7 01 00 00 00
	00		 mov	 DWORD PTR [ecx], OFFSET ??_7?$CList@P6AXXZP6AXXZ@@6B@
  00011	c7 41 0c 00 00
	00 00		 mov	 DWORD PTR [ecx+12], 0
  00018	c7 41 10 00 00
	00 00		 mov	 DWORD PTR [ecx+16], 0
  0001f	c7 41 08 00 00
	00 00		 mov	 DWORD PTR [ecx+8], 0
  00026	c7 41 04 00 00
	00 00		 mov	 DWORD PTR [ecx+4], 0
  0002d	c7 41 14 00 00
	00 00		 mov	 DWORD PTR [ecx+20], 0
  00034	5d		 pop	 ebp
  00035	c2 04 00	 ret	 4
??0?$CList@P6AXXZP6AXXZ@@QAE@H@Z ENDP			; CList<void (__cdecl*)(void),void (__cdecl*)(void)>::CList<void (__cdecl*)(void),void (__cdecl*)(void)>
_TEXT	ENDS
; Function compile flags: /Ogtp
; File D:\git\src\IBK\IBK_DRFN\ProjSrc\SrcDrfn\Inc\ExDialog.h
;	COMDAT ?ColorTableChanged@CExDialog@@UAEXXZ
_TEXT	SEGMENT
?ColorTableChanged@CExDialog@@UAEXXZ PROC		; CExDialog::ColorTableChanged, COMDAT
; _this$ = ecx

; 40   : 	virtual void ColorTableChanged() {}

  00000	c2 00 00	 ret	 0
?ColorTableChanged@CExDialog@@UAEXXZ ENDP		; CExDialog::ColorTableChanged
_TEXT	ENDS
; Function compile flags: /Ogtp
; File D:\git\src\IBK\IBK_DRFN\ProjSrc\SrcDrfn\Inc\ExDialog.h
;	COMDAT ?ReceiveMessage@CExDialog@@UAEJJPBD00@Z
_TEXT	SEGMENT
_dwKey$ = 8						; size = 4
_szTR$ = 12						; size = 4
_szMsgCode$ = 16					; size = 4
_szMessage$ = 20					; size = 4
?ReceiveMessage@CExDialog@@UAEJJPBD00@Z PROC		; CExDialog::ReceiveMessage, COMDAT
; _this$ = ecx

; 38   : 	virtual HRESULT ReceiveMessage(long dwKey, LPCSTR szTR, LPCSTR szMsgCode, LPCSTR szMessage) {return S_FALSE;}

  00000	b8 01 00 00 00	 mov	 eax, 1
  00005	c2 10 00	 ret	 16			; 00000010H
?ReceiveMessage@CExDialog@@UAEJJPBD00@Z ENDP		; CExDialog::ReceiveMessage
_TEXT	ENDS
; Function compile flags: /Ogtp
; File D:\git\src\IBK\IBK_DRFN\ProjSrc\SrcDrfn\Inc\ExDialog.h
;	COMDAT ?StatusChange@CExDialog@@UAEJH@Z
_TEXT	SEGMENT
_nState$ = 8						; size = 4
?StatusChange@CExDialog@@UAEJH@Z PROC			; CExDialog::StatusChange, COMDAT
; _this$ = ecx

; 37   : 	virtual HRESULT StatusChange(int nState) {return S_FALSE;}

  00000	b8 01 00 00 00	 mov	 eax, 1
  00005	c2 04 00	 ret	 4
?StatusChange@CExDialog@@UAEJH@Z ENDP			; CExDialog::StatusChange
_TEXT	ENDS
; Function compile flags: /Ogtp
; File D:\git\src\IBK\IBK_DRFN\ProjSrc\SrcDrfn\Inc\ExDialog.h
;	COMDAT ?ReceiveRealData@CExDialog@@UAEJGPBDPAX@Z
_TEXT	SEGMENT
_wFID$ = 8						; size = 2
_szMainKey$ = 12					; size = 4
_pRealData$ = 16					; size = 4
?ReceiveRealData@CExDialog@@UAEJGPBDPAX@Z PROC		; CExDialog::ReceiveRealData, COMDAT
; _this$ = ecx

; 36   : 	virtual	HRESULT ReceiveRealData(WORD wFID, LPCSTR szMainKey, void* pRealData) {return S_FALSE;}

  00000	b8 01 00 00 00	 mov	 eax, 1
  00005	c2 0c 00	 ret	 12			; 0000000cH
?ReceiveRealData@CExDialog@@UAEJGPBDPAX@Z ENDP		; CExDialog::ReceiveRealData
_TEXT	ENDS
; Function compile flags: /Ogtp
; File D:\git\src\IBK\IBK_DRFN\ProjSrc\SrcDrfn\Inc\ExDialog.h
;	COMDAT ?ReceiveData@CExDialog@@UAEJJPBD00PAXJ@Z
_TEXT	SEGMENT
_dwKey$ = 8						; size = 4
_szTR$ = 12						; size = 4
_szMsgCode$ = 16					; size = 4
_szMessage$ = 20					; size = 4
_aTRData$ = 24						; size = 4
_dwTRDateLen$ = 28					; size = 4
?ReceiveData@CExDialog@@UAEJJPBD00PAXJ@Z PROC		; CExDialog::ReceiveData, COMDAT
; _this$ = ecx

; 35   : 	virtual	HRESULT ReceiveData(long dwKey, LPCSTR szTR, LPCSTR szMsgCode, LPCSTR szMessage, LPVOID	aTRData, long dwTRDateLen) {return S_FALSE;}

  00000	b8 01 00 00 00	 mov	 eax, 1
  00005	c2 18 00	 ret	 24			; 00000018H
?ReceiveData@CExDialog@@UAEJJPBD00PAXJ@Z ENDP		; CExDialog::ReceiveData
_TEXT	ENDS
; Function compile flags: /Ogtp
; File D:\git\src\IBK\IBK_DRFN\ProjSrc\SrcDrfn\Chart\ExControl\ExDialog.cpp
; File C:\Program Files (x86)\Microsoft Visual Studio\2019\Community\VC\Tools\MSVC\14.29.30133\atlmfc\include\afxtempl.h
; File D:\git\src\IBK\IBK_DRFN\ProjSrc\SrcDrfn\Chart\ExControl\ExDialog.cpp
;	COMDAT ?RemoveChangeSkinNotifyFunction@CExDialog@@QAEXPAU__POSITION@@@Z
_TEXT	SEGMENT
_posFunction$ = 8					; size = 4
?RemoveChangeSkinNotifyFunction@CExDialog@@QAEXPAU__POSITION@@@Z PROC ; CExDialog::RemoveChangeSkinNotifyFunction, COMDAT
; _this$ = ecx

; 201  : {

  00000	55		 push	 ebp
  00001	8b ec		 mov	 ebp, esp
  00003	56		 push	 esi
  00004	8b f1		 mov	 esi, ecx

; 202  : 	if(!posFunction)

  00006	8b 4d 08	 mov	 ecx, DWORD PTR _posFunction$[ebp]
  00009	85 c9		 test	 ecx, ecx
  0000b	0f 84 83 00 00
	00		 je	 $LN11@RemoveChan
; File C:\Program Files (x86)\Microsoft Visual Studio\2019\Community\VC\Tools\MSVC\14.29.30133\atlmfc\include\afxtempl.h

; 1107 : 	if (pOldNode == m_pNodeHead)

  00011	8b 11		 mov	 edx, DWORD PTR [ecx]
  00013	3b 8e c8 01 00
	00		 cmp	 ecx, DWORD PTR [esi+456]
  00019	75 08		 jne	 SHORT $LN5@RemoveChan

; 1108 : 	{
; 1109 : 		m_pNodeHead = pOldNode->pNext;

  0001b	89 96 c8 01 00
	00		 mov	 DWORD PTR [esi+456], edx

; 1110 : 	}

  00021	eb 05		 jmp	 SHORT $LN6@RemoveChan
$LN5@RemoveChan:

; 1111 : 	else
; 1112 : 	{
; 1113 : 		ASSERT(AfxIsValidAddress(pOldNode->pPrev, sizeof(CNode)));
; 1114 : 		pOldNode->pPrev->pNext = pOldNode->pNext;

  00023	8b 41 04	 mov	 eax, DWORD PTR [ecx+4]
  00026	89 10		 mov	 DWORD PTR [eax], edx
$LN6@RemoveChan:

; 1115 : 	}
; 1116 : 	if (pOldNode == m_pNodeTail)

  00028	8b 51 04	 mov	 edx, DWORD PTR [ecx+4]
  0002b	3b 8e cc 01 00
	00		 cmp	 ecx, DWORD PTR [esi+460]
  00031	75 08		 jne	 SHORT $LN7@RemoveChan

; 1117 : 	{
; 1118 : 		m_pNodeTail = pOldNode->pPrev;

  00033	89 96 cc 01 00
	00		 mov	 DWORD PTR [esi+460], edx

; 1119 : 	}

  00039	eb 05		 jmp	 SHORT $LN8@RemoveChan
$LN7@RemoveChan:

; 1120 : 	else
; 1121 : 	{
; 1122 : 		ASSERT(AfxIsValidAddress(pOldNode->pNext, sizeof(CNode)));
; 1123 : 		pOldNode->pNext->pPrev = pOldNode->pPrev;

  0003b	8b 01		 mov	 eax, DWORD PTR [ecx]
  0003d	89 50 04	 mov	 DWORD PTR [eax+4], edx
$LN8@RemoveChan:

; 938  : 	pNode->pNext = m_pNodeFree;

  00040	8b 86 d4 01 00
	00		 mov	 eax, DWORD PTR [esi+468]
  00046	89 01		 mov	 DWORD PTR [ecx], eax

; 939  : 	m_pNodeFree = pNode;
; 940  : 	m_nCount--;

  00048	83 86 d0 01 00
	00 ff		 add	 DWORD PTR [esi+464], -1
  0004f	89 8e d4 01 00
	00		 mov	 DWORD PTR [esi+468], ecx

; 941  : 	ASSERT(m_nCount >= 0);  // make sure we don't underflow
; 942  : 
; 943  : 	// if no more elements, cleanup completely
; 944  : 	if (m_nCount == 0)

  00055	75 3d		 jne	 SHORT $LN11@RemoveChan

; 872  : 	m_pBlocks->FreeDataChain();

  00057	8b 8e d8 01 00
	00		 mov	 ecx, DWORD PTR [esi+472]
  0005d	c7 86 d0 01 00
	00 00 00 00 00	 mov	 DWORD PTR [esi+464], 0
  00067	c7 86 d4 01 00
	00 00 00 00 00	 mov	 DWORD PTR [esi+468], 0
  00071	c7 86 cc 01 00
	00 00 00 00 00	 mov	 DWORD PTR [esi+460], 0
  0007b	c7 86 c8 01 00
	00 00 00 00 00	 mov	 DWORD PTR [esi+456], 0
  00085	e8 00 00 00 00	 call	 ?FreeDataChain@CPlex@@QAEXXZ ; CPlex::FreeDataChain

; 873  : 	m_pBlocks = NULL;

  0008a	c7 86 d8 01 00
	00 00 00 00 00	 mov	 DWORD PTR [esi+472], 0
$LN11@RemoveChan:
  00094	5e		 pop	 esi
; File D:\git\src\IBK\IBK_DRFN\ProjSrc\SrcDrfn\Chart\ExControl\ExDialog.cpp

; 206  : }

  00095	5d		 pop	 ebp
  00096	c2 04 00	 ret	 4
?RemoveChangeSkinNotifyFunction@CExDialog@@QAEXPAU__POSITION@@@Z ENDP ; CExDialog::RemoveChangeSkinNotifyFunction
_TEXT	ENDS
; Function compile flags: /Ogtp
; File D:\git\src\IBK\IBK_DRFN\ProjSrc\SrcDrfn\Chart\ExControl\ExDialog.cpp
; File C:\Program Files (x86)\Microsoft Visual Studio\2019\Community\VC\Tools\MSVC\14.29.30133\atlmfc\include\afxtempl.h
; File D:\git\src\IBK\IBK_DRFN\ProjSrc\SrcDrfn\Chart\ExControl\ExDialog.cpp
; File C:\Program Files (x86)\Microsoft Visual Studio\2019\Community\VC\Tools\MSVC\14.29.30133\atlmfc\include\afxtempl.h
; File D:\git\src\IBK\IBK_DRFN\ProjSrc\SrcDrfn\Chart\ExControl\ExDialog.cpp
; File C:\Program Files (x86)\Microsoft Visual Studio\2019\Community\VC\Tools\MSVC\14.29.30133\atlmfc\include\afxtempl.h
; File D:\git\src\IBK\IBK_DRFN\ProjSrc\SrcDrfn\Chart\ExControl\ExDialog.cpp
;	COMDAT ?SetChangeSkinNotifyFunction@CExDialog@@QAEPAU__POSITION@@P6AXXZ@Z
_TEXT	SEGMENT
_pChangeSkinNotify$ = 8					; size = 4
?SetChangeSkinNotifyFunction@CExDialog@@QAEPAU__POSITION@@P6AXXZ@Z PROC ; CExDialog::SetChangeSkinNotifyFunction, COMDAT
; _this$ = ecx

; 192  : {

  00000	55		 push	 ebp
  00001	8b ec		 mov	 ebp, esp
; File C:\Program Files (x86)\Microsoft Visual Studio\2019\Community\VC\Tools\MSVC\14.29.30133\atlmfc\include\afxtempl.h

; 1153 : 		pNode = m_pNodeHead;  // start at head

  00003	8b 81 c8 01 00
	00		 mov	 eax, DWORD PTR [ecx+456]
; File D:\git\src\IBK\IBK_DRFN\ProjSrc\SrcDrfn\Chart\ExControl\ExDialog.cpp

; 192  : {

  00009	56		 push	 esi
; File C:\Program Files (x86)\Microsoft Visual Studio\2019\Community\VC\Tools\MSVC\14.29.30133\atlmfc\include\afxtempl.h

; 1161 : 	for (; pNode != NULL; pNode = pNode->pNext)

  0000a	8b 75 08	 mov	 esi, DWORD PTR _pChangeSkinNotify$[ebp]
  0000d	85 c0		 test	 eax, eax
  0000f	74 11		 je	 SHORT $LN2@SetChangeS
$LL7@SetChangeS:

; 1162 : 		if (CompareElements<TYPE>(&pNode->data, &searchValue))

  00011	8d 50 08	 lea	 edx, DWORD PTR [eax+8]

; 152  : 	ENSURE(pElement1 != NULL && pElement2 != NULL);

  00014	85 d2		 test	 edx, edx
  00016	74 24		 je	 SHORT $LN23@SetChangeS

; 153  : 	ASSERT(AfxIsValidAddress(pElement1, sizeof(TYPE), FALSE));
; 154  : 	ASSERT(AfxIsValidAddress(pElement2, sizeof(ARG_TYPE), FALSE));
; 155  : 
; 156  : 	return *pElement1 == *pElement2;

  00018	39 32		 cmp	 DWORD PTR [edx], esi

; 1162 : 		if (CompareElements<TYPE>(&pNode->data, &searchValue))

  0001a	74 17		 je	 SHORT $LN4@SetChangeS

; 1161 : 	for (; pNode != NULL; pNode = pNode->pNext)

  0001c	8b 00		 mov	 eax, DWORD PTR [eax]
  0001e	85 c0		 test	 eax, eax
  00020	75 ef		 jne	 SHORT $LL7@SetChangeS
$LN2@SetChangeS:
; File D:\git\src\IBK\IBK_DRFN\ProjSrc\SrcDrfn\Chart\ExControl\ExDialog.cpp

; 197  : 	return m_listChangeSkinNotify.AddTail(pChangeSkinNotify);

  00022	56		 push	 esi
  00023	81 c1 c4 01 00
	00		 add	 ecx, 452		; 000001c4H
  00029	e8 00 00 00 00	 call	 ?AddTail@?$CList@P6AXXZP6AXXZ@@QAEPAU__POSITION@@P6AXXZ@Z ; CList<void (__cdecl*)(void),void (__cdecl*)(void)>::AddTail
  0002e	5e		 pop	 esi

; 198  : }

  0002f	5d		 pop	 ebp
  00030	c2 04 00	 ret	 4
$LN4@SetChangeS:

; 193  : 	POSITION posReturn = m_listChangeSkinNotify.Find(pChangeSkinNotify);
; 194  : 	if(posReturn)

  00033	85 c0		 test	 eax, eax
  00035	74 eb		 je	 SHORT $LN2@SetChangeS
  00037	5e		 pop	 esi

; 198  : }

  00038	5d		 pop	 ebp
  00039	c2 04 00	 ret	 4
$LN23@SetChangeS:
; File C:\Program Files (x86)\Microsoft Visual Studio\2019\Community\VC\Tools\MSVC\14.29.30133\atlmfc\include\afxtempl.h

; 152  : 	ENSURE(pElement1 != NULL && pElement2 != NULL);

  0003c	e8 00 00 00 00	 call	 ?AfxThrowInvalidArgException@@YGXXZ ; AfxThrowInvalidArgException
$LN30@SetChangeS:
  00041	cc		 int	 3
?SetChangeSkinNotifyFunction@CExDialog@@QAEPAU__POSITION@@P6AXXZ@Z ENDP ; CExDialog::SetChangeSkinNotifyFunction
_TEXT	ENDS
; Function compile flags: /Ogtp
; File D:\git\src\IBK\IBK_DRFN\ProjSrc\SrcDrfn\Chart\ExControl\ExDialog.cpp
; File D:\git\src\IBK\IBK_DRFN\ProjSrc\SrcDrfn\Inc\ExDialog.h
; File D:\git\src\IBK\IBK_DRFN\ProjSrc\SrcDrfn\Chart\ExControl\ExDialog.cpp
;	COMDAT ?SetBaseInterface@CExDialog@@QAEXI@Z
_TEXT	SEGMENT
_nFlag$ = 8						; size = 4
?SetBaseInterface@CExDialog@@QAEXI@Z PROC		; CExDialog::SetBaseInterface, COMDAT
; _this$ = ecx

; 128  : {

  00000	55		 push	 ebp
  00001	8b ec		 mov	 ebp, esp
  00003	53		 push	 ebx

; 129  : 	if(!nFlag)

  00004	8b 5d 08	 mov	 ebx, DWORD PTR _nFlag$[ebp]
  00007	56		 push	 esi
  00008	8b f1		 mov	 esi, ecx
  0000a	85 db		 test	 ebx, ebx
  0000c	0f 84 d5 00 00
	00		 je	 $LN10@SetBaseInt

; 130  : 		return;
; 131  : 
; 132  : 	int nID = 0;
; 133  : 	if(nFlag & EXDLG_INTERFACE_TRCOMM)

  00012	f6 c3 02	 test	 bl, 2
  00015	74 2c		 je	 SHORT $LN3@SetBaseInt

; 134  : 	{
; 135  : 		nID = 2;
; 136  : 		m_pITrCommManager = (IAUTrCommManager*)m_pIGateManager->GetInterface(nID);

  00017	8b 86 9c 01 00
	00		 mov	 eax, DWORD PTR [esi+412]
  0001d	6a 00		 push	 0
  0001f	6a 02		 push	 2
  00021	50		 push	 eax
  00022	8b 08		 mov	 ecx, DWORD PTR [eax]
  00024	ff 11		 call	 DWORD PTR [ecx]
  00026	89 86 a0 01 00
	00		 mov	 DWORD PTR [esi+416], eax

; 137  : 		m_pITrComm = m_pITrCommManager->AdviseTrComm();

  0002c	50		 push	 eax
  0002d	8b 08		 mov	 ecx, DWORD PTR [eax]
  0002f	ff 11		 call	 DWORD PTR [ecx]
  00031	89 86 b4 01 00
	00		 mov	 DWORD PTR [esi+436], eax

; 138  : 		m_pITrComm->ChangeCallback(&m_xMyITrCommSite);

  00037	8d 8e e0 01 00
	00		 lea	 ecx, DWORD PTR [esi+480]
  0003d	51		 push	 ecx
  0003e	50		 push	 eax
  0003f	8b 10		 mov	 edx, DWORD PTR [eax]
  00041	ff 12		 call	 DWORD PTR [edx]
$LN3@SetBaseInt:

; 139  : 	}
; 140  : 
; 141  : 	if(nFlag & EXDLG_INTERFACE_PCTR)

  00043	f6 c3 08	 test	 bl, 8
  00046	74 15		 je	 SHORT $LN4@SetBaseInt

; 142  : 	{
; 143  : 		nID = 1;
; 144  : 		m_pIPCTRManager = (IPCTRManager*)m_pIGateManager->GetInterface(nID);

  00048	8b 86 9c 01 00
	00		 mov	 eax, DWORD PTR [esi+412]
  0004e	6a 00		 push	 0
  00050	6a 01		 push	 1
  00052	50		 push	 eax
  00053	8b 08		 mov	 ecx, DWORD PTR [eax]
  00055	ff 11		 call	 DWORD PTR [ecx]
  00057	89 86 98 01 00
	00		 mov	 DWORD PTR [esi+408], eax
$LN4@SetBaseInt:

; 145  : 	}
; 146  : 
; 147  : 	if(nFlag & EXDLG_INTERFACE_SKIN || nFlag & EXDLG_INTERFACE_DEFSKIN)

  0005d	f6 c3 84	 test	 bl, 132			; 00000084H
  00060	74 6b		 je	 SHORT $LN8@SetBaseInt

; 148  : 	{
; 149  : 		nID = 6;
; 150  : 		m_pISkinColorManager = (ISkinColorManager*)m_pIGateManager->GetInterface(nID);

  00062	8b 86 9c 01 00
	00		 mov	 eax, DWORD PTR [esi+412]
  00068	57		 push	 edi
  00069	6a 00		 push	 0
  0006b	6a 06		 push	 6
  0006d	8b 08		 mov	 ecx, DWORD PTR [eax]
  0006f	50		 push	 eax
  00070	ff 11		 call	 DWORD PTR [ecx]
  00072	8b c8		 mov	 ecx, eax
  00074	89 8e a4 01 00
	00		 mov	 DWORD PTR [esi+420], ecx

; 151  : 
; 152  : 		if(nFlag & EXDLG_INTERFACE_DEFSKIN)

  0007a	8b 11		 mov	 edx, DWORD PTR [ecx]
  0007c	84 db		 test	 bl, bl
  0007e	79 08		 jns	 SHORT $LN7@SetBaseInt

; 153  : 			SetBackgroundColor(m_pISkinColorManager->GetDefaultColor(1));

  00080	6a 01		 push	 1
  00082	51		 push	 ecx
  00083	ff 52 2c	 call	 DWORD PTR [edx+44]
  00086	eb 1e		 jmp	 SHORT $LN22@SetBaseInt
$LN7@SetBaseInt:

; 154  : 		else
; 155  : 		{
; 156  : 			m_lSkinSiteKey = m_pISkinColorManager->AdviseSite(&m_xMyISkinColorSite);

  00088	8d 86 e4 01 00
	00		 lea	 eax, DWORD PTR [esi+484]
  0008e	50		 push	 eax
  0008f	51		 push	 ecx
  00090	ff 52 10	 call	 DWORD PTR [edx+16]
  00093	89 86 bc 01 00
	00		 mov	 DWORD PTR [esi+444], eax

; 157  : 			SetBackgroundColor(m_pISkinColorManager->GetColor(1));

  00099	8b 86 a4 01 00
	00		 mov	 eax, DWORD PTR [esi+420]
  0009f	6a 01		 push	 1
  000a1	50		 push	 eax
  000a2	8b 08		 mov	 ecx, DWORD PTR [eax]
  000a4	ff 11		 call	 DWORD PTR [ecx]
$LN22@SetBaseInt:
; File D:\git\src\IBK\IBK_DRFN\ProjSrc\SrcDrfn\Inc\ExDialog.h

; 164  : 		::DeleteObject(m_hBrBackground);

  000a6	8b 8e ec 01 00
	00		 mov	 ecx, DWORD PTR [esi+492]
  000ac	8b f8		 mov	 edi, eax
  000ae	89 be f0 01 00
	00		 mov	 DWORD PTR [esi+496], edi
  000b4	85 c9		 test	 ecx, ecx
  000b6	74 07		 je	 SHORT $LN17@SetBaseInt
  000b8	51		 push	 ecx
  000b9	ff 15 00 00 00
	00		 call	 DWORD PTR __imp__DeleteObject@4
$LN17@SetBaseInt:

; 165  : 
; 166  : 	m_hBrBackground = ::CreateSolidBrush(clr);

  000bf	57		 push	 edi
  000c0	ff 15 00 00 00
	00		 call	 DWORD PTR __imp__CreateSolidBrush@4
  000c6	89 86 ec 01 00
	00		 mov	 DWORD PTR [esi+492], eax
  000cc	5f		 pop	 edi
$LN8@SetBaseInt:
; File D:\git\src\IBK\IBK_DRFN\ProjSrc\SrcDrfn\Chart\ExControl\ExDialog.cpp

; 168  : 	if(nFlag & EXDLG_INTERFACE_MASTER)

  000cd	f6 c3 20	 test	 bl, 32			; 00000020H
  000d0	74 15		 je	 SHORT $LN10@SetBaseInt

; 169  : 	{
; 170  : 		nID = 5;
; 171  : 		m_pIMasterDataManager = (IMasterDataManager*)m_pIGateManager->GetInterface(nID);

  000d2	8b 86 9c 01 00
	00		 mov	 eax, DWORD PTR [esi+412]
  000d8	6a 00		 push	 0
  000da	6a 05		 push	 5
  000dc	50		 push	 eax
  000dd	8b 08		 mov	 ecx, DWORD PTR [eax]
  000df	ff 11		 call	 DWORD PTR [ecx]
  000e1	89 86 ac 01 00
	00		 mov	 DWORD PTR [esi+428], eax
$LN10@SetBaseInt:

; 172  : 	}
; 173  : 
; 174  : 	if(nFlag & EXDLG_INTERFACE_GDI)
; 175  : 	{
; 176  : 		nID = 4;
; 177  : //		m_pGDIManager = (IAUGDIManager*)m_pIGateManager->GetInterface(nID);
; 178  : 	}
; 179  : }

  000e7	5e		 pop	 esi
  000e8	5b		 pop	 ebx
  000e9	5d		 pop	 ebp
  000ea	c2 04 00	 ret	 4
?SetBaseInterface@CExDialog@@QAEXI@Z ENDP		; CExDialog::SetBaseInterface
_TEXT	ENDS
; Function compile flags: /Ogtp
; File D:\git\src\IBK\IBK_DRFN\ProjSrc\SrcDrfn\Chart\ExControl\ExDialog.cpp
; File C:\Program Files (x86)\Microsoft Visual Studio\2019\Community\VC\Tools\MSVC\14.29.30133\atlmfc\include\afxtempl.h
; File D:\git\src\IBK\IBK_DRFN\ProjSrc\SrcDrfn\Chart\ExControl\ExDialog.cpp
;	COMDAT ??0CExDialog@@QAE@IPAVCWnd@@I@Z
_TEXT	SEGMENT
_this$ = -16						; size = 4
__$EHRec$ = -12						; size = 12
_nID$ = 8						; size = 4
_pParent$ = 12						; size = 4
_nFlags$ = 16						; size = 4
??0CExDialog@@QAE@IPAVCWnd@@I@Z PROC			; CExDialog::CExDialog, COMDAT
; _this$ = ecx

; 44   : {

  00000	55		 push	 ebp
  00001	8b ec		 mov	 ebp, esp
  00003	6a ff		 push	 -1
  00005	68 00 00 00 00	 push	 __ehhandler$??0CExDialog@@QAE@IPAVCWnd@@I@Z
  0000a	64 a1 00 00 00
	00		 mov	 eax, DWORD PTR fs:0
  00010	50		 push	 eax
  00011	51		 push	 ecx
  00012	53		 push	 ebx
  00013	56		 push	 esi
  00014	57		 push	 edi
  00015	a1 00 00 00 00	 mov	 eax, DWORD PTR ___security_cookie
  0001a	33 c5		 xor	 eax, ebp
  0001c	50		 push	 eax
  0001d	8d 45 f4	 lea	 eax, DWORD PTR __$EHRec$[ebp]
  00020	64 a3 00 00 00
	00		 mov	 DWORD PTR fs:0, eax
  00026	8b d9		 mov	 ebx, ecx
  00028	89 5d f0	 mov	 DWORD PTR _this$[ebp], ebx

; 37   : 	CDialog(nID, pParent),

  0002b	ff 75 0c	 push	 DWORD PTR _pParent$[ebp]
  0002e	8b 7d 08	 mov	 edi, DWORD PTR _nID$[ebp]
  00031	57		 push	 edi
  00032	e8 00 00 00 00	 call	 ??0CDialog@@QAE@IPAVCWnd@@@Z ; CDialog::CDialog

; 38   : 	CExResize(this, nFlags),

  00037	ff 75 10	 push	 DWORD PTR _nFlags$[ebp]
  0003a	8d 8b a8 00 00
	00		 lea	 ecx, DWORD PTR [ebx+168]
  00040	c7 45 fc 00 00
	00 00		 mov	 DWORD PTR __$EHRec$[ebp+8], 0
  00047	53		 push	 ebx
  00048	e8 00 00 00 00	 call	 ??0CExResize@@QAE@PAVCWnd@@I@Z ; CExResize::CExResize

; 44   : {

  0004d	c7 03 00 00 00
	00		 mov	 DWORD PTR [ebx], OFFSET ??_7CExDialog@@6BCDialog@@@

; 48   : }

  00053	8b c3		 mov	 eax, ebx
  00055	c7 83 a8 00 00
	00 00 00 00 00	 mov	 DWORD PTR [ebx+168], OFFSET ??_7CExDialog@@6BCExResize@@@
  0005f	c7 83 98 01 00
	00 00 00 00 00	 mov	 DWORD PTR [ebx+408], 0
  00069	c7 83 a0 01 00
	00 00 00 00 00	 mov	 DWORD PTR [ebx+416], 0
  00073	c7 83 a4 01 00
	00 00 00 00 00	 mov	 DWORD PTR [ebx+420], 0
  0007d	c7 83 a8 01 00
	00 00 00 00 00	 mov	 DWORD PTR [ebx+424], 0
  00087	c7 83 ac 01 00
	00 00 00 00 00	 mov	 DWORD PTR [ebx+428], 0
  00091	c7 83 b0 01 00
	00 00 00 00 00	 mov	 DWORD PTR [ebx+432], 0
  0009b	c7 83 b4 01 00
	00 00 00 00 00	 mov	 DWORD PTR [ebx+436], 0
  000a5	c7 83 b8 01 00
	00 00 00 00 00	 mov	 DWORD PTR [ebx+440], 0
  000af	c7 83 bc 01 00
	00 00 00 00 00	 mov	 DWORD PTR [ebx+444], 0
; File C:\Program Files (x86)\Microsoft Visual Studio\2019\Community\VC\Tools\MSVC\14.29.30133\atlmfc\include\afxtempl.h

; 851  : {

  000b9	c7 83 c4 01 00
	00 00 00 00 00	 mov	 DWORD PTR [ebx+452], OFFSET ??_7?$CList@P6AXXZP6AXXZ@@6B@

; 852  : 	ASSERT(nBlockSize > 0);
; 853  : 
; 854  : 	m_nCount = 0;

  000c3	c7 83 d0 01 00
	00 00 00 00 00	 mov	 DWORD PTR [ebx+464], 0

; 855  : 	m_pNodeHead = m_pNodeTail = m_pNodeFree = NULL;

  000cd	c7 83 d4 01 00
	00 00 00 00 00	 mov	 DWORD PTR [ebx+468], 0
  000d7	c7 83 cc 01 00
	00 00 00 00 00	 mov	 DWORD PTR [ebx+460], 0
  000e1	c7 83 c8 01 00
	00 00 00 00 00	 mov	 DWORD PTR [ebx+456], 0

; 856  : 	m_pBlocks = NULL;

  000eb	c7 83 d8 01 00
	00 00 00 00 00	 mov	 DWORD PTR [ebx+472], 0

; 857  : 	m_nBlockSize = nBlockSize;

  000f5	c7 83 dc 01 00
	00 0a 00 00 00	 mov	 DWORD PTR [ebx+476], 10	; 0000000aH
  000ff	c7 83 e0 01 00
	00 00 00 00 00	 mov	 DWORD PTR [ebx+480], OFFSET ??_7CMyITrCommSite@CExDialog@@6B@
  00109	c7 83 e4 01 00
	00 00 00 00 00	 mov	 DWORD PTR [ebx+484], OFFSET ??_7CMyISkinColorSite@CExDialog@@6B@
; File D:\git\src\IBK\IBK_DRFN\ProjSrc\SrcDrfn\Chart\ExControl\ExDialog.cpp

; 45   : 	m_nDialogID = nID;

  00113	89 bb e8 01 00
	00		 mov	 DWORD PTR [ebx+488], edi

; 46   : 	m_hBrBackground = NULL;

  00119	c7 83 ec 01 00
	00 00 00 00 00	 mov	 DWORD PTR [ebx+492], 0

; 47   : 	m_pPcTrHelper = NULL;

  00123	c7 83 c0 01 00
	00 00 00 00 00	 mov	 DWORD PTR [ebx+448], 0

; 48   : }

  0012d	8b 4d f4	 mov	 ecx, DWORD PTR __$EHRec$[ebp]
  00130	64 89 0d 00 00
	00 00		 mov	 DWORD PTR fs:0, ecx
  00137	59		 pop	 ecx
  00138	5f		 pop	 edi
  00139	5e		 pop	 esi
  0013a	5b		 pop	 ebx
  0013b	8b e5		 mov	 esp, ebp
  0013d	5d		 pop	 ebp
  0013e	c2 0c 00	 ret	 12			; 0000000cH
_TEXT	ENDS
;	COMDAT text$x
text$x	SEGMENT
__unwindfunclet$??0CExDialog@@QAE@IPAVCWnd@@I@Z$0:
  00000	8b 4d f0	 mov	 ecx, DWORD PTR _this$[ebp]
  00003	e9 00 00 00 00	 jmp	 ??1CDialog@@UAE@XZ	; CDialog::~CDialog
  00008	cc		 int	 3
  00009	cc		 int	 3
  0000a	cc		 int	 3
  0000b	cc		 int	 3
  0000c	cc		 int	 3
__ehhandler$??0CExDialog@@QAE@IPAVCWnd@@I@Z:
  0000d	90		 npad	 1
  0000e	90		 npad	 1
  0000f	8b 54 24 08	 mov	 edx, DWORD PTR [esp+8]
  00013	8d 42 0c	 lea	 eax, DWORD PTR [edx+12]
  00016	8b 4a ec	 mov	 ecx, DWORD PTR [edx-20]
  00019	33 c8		 xor	 ecx, eax
  0001b	e8 00 00 00 00	 call	 @__security_check_cookie@4
  00020	b8 00 00 00 00	 mov	 eax, OFFSET __ehfuncinfo$??0CExDialog@@QAE@IPAVCWnd@@I@Z
  00025	e9 00 00 00 00	 jmp	 ___CxxFrameHandler3
text$x	ENDS
??0CExDialog@@QAE@IPAVCWnd@@I@Z ENDP			; CExDialog::CExDialog
; Function compile flags: /Ogtp
; File D:\git\src\IBK\IBK_DRFN\ProjSrc\SrcDrfn\Chart\ExControl\ExDialog.cpp
; File C:\Program Files (x86)\Microsoft Visual Studio\2019\Community\VC\Tools\MSVC\14.29.30133\atlmfc\include\afxtempl.h
; File D:\git\src\IBK\IBK_DRFN\ProjSrc\SrcDrfn\Chart\ExControl\ExDialog.cpp
;	COMDAT ??0CExDialog@@QAE@XZ
_TEXT	SEGMENT
_this$ = -16						; size = 4
__$EHRec$ = -12						; size = 12
??0CExDialog@@QAE@XZ PROC				; CExDialog::CExDialog, COMDAT
; _this$ = ecx

; 31   : {

  00000	55		 push	 ebp
  00001	8b ec		 mov	 ebp, esp
  00003	6a ff		 push	 -1
  00005	68 00 00 00 00	 push	 __ehhandler$??0CExDialog@@QAE@XZ
  0000a	64 a1 00 00 00
	00		 mov	 eax, DWORD PTR fs:0
  00010	50		 push	 eax
  00011	51		 push	 ecx
  00012	56		 push	 esi
  00013	57		 push	 edi
  00014	a1 00 00 00 00	 mov	 eax, DWORD PTR ___security_cookie
  00019	33 c5		 xor	 eax, ebp
  0001b	50		 push	 eax
  0001c	8d 45 f4	 lea	 eax, DWORD PTR __$EHRec$[ebp]
  0001f	64 a3 00 00 00
	00		 mov	 DWORD PTR fs:0, eax
  00025	8b f9		 mov	 edi, ecx
  00027	89 7d f0	 mov	 DWORD PTR _this$[ebp], edi
  0002a	e8 00 00 00 00	 call	 ??0CDialog@@QAE@XZ	; CDialog::CDialog
  0002f	6a 00		 push	 0
  00031	6a 00		 push	 0
  00033	8d 8f a8 00 00
	00		 lea	 ecx, DWORD PTR [edi+168]
  00039	c7 45 fc 00 00
	00 00		 mov	 DWORD PTR __$EHRec$[ebp+8], 0
  00040	e8 00 00 00 00	 call	 ??0CExResize@@QAE@PAVCWnd@@I@Z ; CExResize::CExResize
  00045	c7 07 00 00 00
	00		 mov	 DWORD PTR [edi], OFFSET ??_7CExDialog@@6BCDialog@@@

; 34   : }

  0004b	8b c7		 mov	 eax, edi
  0004d	c7 87 a8 00 00
	00 00 00 00 00	 mov	 DWORD PTR [edi+168], OFFSET ??_7CExDialog@@6BCExResize@@@
  00057	c7 87 98 01 00
	00 00 00 00 00	 mov	 DWORD PTR [edi+408], 0
  00061	c7 87 a0 01 00
	00 00 00 00 00	 mov	 DWORD PTR [edi+416], 0
  0006b	c7 87 a4 01 00
	00 00 00 00 00	 mov	 DWORD PTR [edi+420], 0
  00075	c7 87 a8 01 00
	00 00 00 00 00	 mov	 DWORD PTR [edi+424], 0
  0007f	c7 87 ac 01 00
	00 00 00 00 00	 mov	 DWORD PTR [edi+428], 0
  00089	c7 87 b0 01 00
	00 00 00 00 00	 mov	 DWORD PTR [edi+432], 0
  00093	c7 87 b4 01 00
	00 00 00 00 00	 mov	 DWORD PTR [edi+436], 0
  0009d	c7 87 b8 01 00
	00 00 00 00 00	 mov	 DWORD PTR [edi+440], 0
  000a7	c7 87 bc 01 00
	00 00 00 00 00	 mov	 DWORD PTR [edi+444], 0
; File C:\Program Files (x86)\Microsoft Visual Studio\2019\Community\VC\Tools\MSVC\14.29.30133\atlmfc\include\afxtempl.h

; 851  : {

  000b1	c7 87 c4 01 00
	00 00 00 00 00	 mov	 DWORD PTR [edi+452], OFFSET ??_7?$CList@P6AXXZP6AXXZ@@6B@

; 852  : 	ASSERT(nBlockSize > 0);
; 853  : 
; 854  : 	m_nCount = 0;

  000bb	c7 87 d0 01 00
	00 00 00 00 00	 mov	 DWORD PTR [edi+464], 0

; 855  : 	m_pNodeHead = m_pNodeTail = m_pNodeFree = NULL;

  000c5	c7 87 d4 01 00
	00 00 00 00 00	 mov	 DWORD PTR [edi+468], 0
  000cf	c7 87 cc 01 00
	00 00 00 00 00	 mov	 DWORD PTR [edi+460], 0
  000d9	c7 87 c8 01 00
	00 00 00 00 00	 mov	 DWORD PTR [edi+456], 0

; 856  : 	m_pBlocks = NULL;

  000e3	c7 87 d8 01 00
	00 00 00 00 00	 mov	 DWORD PTR [edi+472], 0

; 857  : 	m_nBlockSize = nBlockSize;

  000ed	c7 87 dc 01 00
	00 0a 00 00 00	 mov	 DWORD PTR [edi+476], 10	; 0000000aH
  000f7	c7 87 e0 01 00
	00 00 00 00 00	 mov	 DWORD PTR [edi+480], OFFSET ??_7CMyITrCommSite@CExDialog@@6B@
  00101	c7 87 e4 01 00
	00 00 00 00 00	 mov	 DWORD PTR [edi+484], OFFSET ??_7CMyISkinColorSite@CExDialog@@6B@
; File D:\git\src\IBK\IBK_DRFN\ProjSrc\SrcDrfn\Chart\ExControl\ExDialog.cpp

; 32   : 	m_hBrBackground = NULL;

  0010b	c7 87 ec 01 00
	00 00 00 00 00	 mov	 DWORD PTR [edi+492], 0

; 33   : 	m_pPcTrHelper = NULL;

  00115	c7 87 c0 01 00
	00 00 00 00 00	 mov	 DWORD PTR [edi+448], 0

; 34   : }

  0011f	8b 4d f4	 mov	 ecx, DWORD PTR __$EHRec$[ebp]
  00122	64 89 0d 00 00
	00 00		 mov	 DWORD PTR fs:0, ecx
  00129	59		 pop	 ecx
  0012a	5f		 pop	 edi
  0012b	5e		 pop	 esi
  0012c	8b e5		 mov	 esp, ebp
  0012e	5d		 pop	 ebp
  0012f	c3		 ret	 0
_TEXT	ENDS
;	COMDAT text$x
text$x	SEGMENT
__unwindfunclet$??0CExDialog@@QAE@XZ$0:
  00000	8b 4d f0	 mov	 ecx, DWORD PTR _this$[ebp]
  00003	e9 00 00 00 00	 jmp	 ??1CDialog@@UAE@XZ	; CDialog::~CDialog
  00008	cc		 int	 3
  00009	cc		 int	 3
  0000a	cc		 int	 3
  0000b	cc		 int	 3
  0000c	cc		 int	 3
__ehhandler$??0CExDialog@@QAE@XZ:
  0000d	90		 npad	 1
  0000e	90		 npad	 1
  0000f	8b 54 24 08	 mov	 edx, DWORD PTR [esp+8]
  00013	8d 42 0c	 lea	 eax, DWORD PTR [edx+12]
  00016	8b 4a f0	 mov	 ecx, DWORD PTR [edx-16]
  00019	33 c8		 xor	 ecx, eax
  0001b	e8 00 00 00 00	 call	 @__security_check_cookie@4
  00020	b8 00 00 00 00	 mov	 eax, OFFSET __ehfuncinfo$??0CExDialog@@QAE@XZ
  00025	e9 00 00 00 00	 jmp	 ___CxxFrameHandler3
text$x	ENDS
??0CExDialog@@QAE@XZ ENDP				; CExDialog::CExDialog
; Function compile flags: /Ogtp
; File D:\git\src\IBK\IBK_DRFN\ProjSrc\SrcDrfn\Chart\ExControl\ExDialog.cpp
; File C:\Program Files (x86)\Microsoft Visual Studio\2019\Community\VC\Tools\MSVC\14.29.30133\atlmfc\include\afx.inl
; File D:\git\src\IBK\IBK_DRFN\ProjSrc\SrcDrfn\Chart\ExControl\ExDialog.cpp
; File C:\Program Files (x86)\Microsoft Visual Studio\2019\Community\VC\Tools\MSVC\14.29.30133\atlmfc\include\afx.inl
; File D:\git\src\IBK\IBK_DRFN\ProjSrc\SrcDrfn\Chart\ExControl\ExDialog.cpp
; File C:\Program Files (x86)\Microsoft Visual Studio\2019\Community\VC\Tools\MSVC\14.29.30133\atlmfc\include\afxtempl.h
; File D:\git\src\IBK\IBK_DRFN\ProjSrc\SrcDrfn\Chart\ExControl\ExDialog.cpp
;	COMDAT ?CreateObject@CExDialog@@SGPAVCObject@@XZ
_TEXT	SEGMENT
$T2 = -16						; size = 4
__$EHRec$ = -12						; size = 12
?CreateObject@CExDialog@@SGPAVCObject@@XZ PROC		; CExDialog::CreateObject, COMDAT

; 22   : IMPLEMENT_DYNCREATE(CExDialog, CDialog)

  00000	55		 push	 ebp
  00001	8b ec		 mov	 ebp, esp
  00003	6a ff		 push	 -1
  00005	68 00 00 00 00	 push	 __ehhandler$?CreateObject@CExDialog@@SGPAVCObject@@XZ
  0000a	64 a1 00 00 00
	00		 mov	 eax, DWORD PTR fs:0
  00010	50		 push	 eax
  00011	51		 push	 ecx
  00012	56		 push	 esi
  00013	57		 push	 edi
  00014	a1 00 00 00 00	 mov	 eax, DWORD PTR ___security_cookie
  00019	33 c5		 xor	 eax, ebp
  0001b	50		 push	 eax
  0001c	8d 45 f4	 lea	 eax, DWORD PTR __$EHRec$[ebp]
  0001f	64 a3 00 00 00
	00		 mov	 DWORD PTR fs:0, eax
; File C:\Program Files (x86)\Microsoft Visual Studio\2019\Community\VC\Tools\MSVC\14.29.30133\atlmfc\include\afx.inl

; 116  : 	{ return ::operator new(nSize); }

  00025	68 f8 01 00 00	 push	 504			; 000001f8H
  0002a	e8 00 00 00 00	 call	 ??2@YAPAXI@Z		; operator new
; File D:\git\src\IBK\IBK_DRFN\ProjSrc\SrcDrfn\Chart\ExControl\ExDialog.cpp

; 22   : IMPLEMENT_DYNCREATE(CExDialog, CDialog)

  0002f	8b f8		 mov	 edi, eax
; File C:\Program Files (x86)\Microsoft Visual Studio\2019\Community\VC\Tools\MSVC\14.29.30133\atlmfc\include\afx.inl

; 116  : 	{ return ::operator new(nSize); }

  00031	83 c4 04	 add	 esp, 4
; File D:\git\src\IBK\IBK_DRFN\ProjSrc\SrcDrfn\Chart\ExControl\ExDialog.cpp

; 22   : IMPLEMENT_DYNCREATE(CExDialog, CDialog)

  00034	89 7d f0	 mov	 DWORD PTR $T2[ebp], edi
  00037	c7 45 fc 00 00
	00 00		 mov	 DWORD PTR __$EHRec$[ebp+8], 0
  0003e	85 ff		 test	 edi, edi
  00040	0f 84 05 01 00
	00		 je	 $LN3@CreateObje

; 31   : {

  00046	8b cf		 mov	 ecx, edi
  00048	e8 00 00 00 00	 call	 ??0CDialog@@QAE@XZ	; CDialog::CDialog
  0004d	6a 00		 push	 0
  0004f	6a 00		 push	 0
  00051	8d 8f a8 00 00
	00		 lea	 ecx, DWORD PTR [edi+168]
  00057	c6 45 fc 01	 mov	 BYTE PTR __$EHRec$[ebp+8], 1
  0005b	e8 00 00 00 00	 call	 ??0CExResize@@QAE@PAVCWnd@@I@Z ; CExResize::CExResize
  00060	c7 07 00 00 00
	00		 mov	 DWORD PTR [edi], OFFSET ??_7CExDialog@@6BCDialog@@@

; 22   : IMPLEMENT_DYNCREATE(CExDialog, CDialog)

  00066	8b c7		 mov	 eax, edi

; 31   : {

  00068	c7 87 a8 00 00
	00 00 00 00 00	 mov	 DWORD PTR [edi+168], OFFSET ??_7CExDialog@@6BCExResize@@@

; 23   : 
; 24   : CExDialog::CExDialog()
; 25   : 	: CExResize(NULL, 0),
; 26   : 	m_pIPCTRManager(NULL),

  00072	c7 87 98 01 00
	00 00 00 00 00	 mov	 DWORD PTR [edi+408], 0

; 27   : 	m_pITrCommManager(NULL), m_pITrComm(NULL),

  0007c	c7 87 a0 01 00
	00 00 00 00 00	 mov	 DWORD PTR [edi+416], 0

; 28   : 	m_pISkinColorManager(NULL),	m_lSkinSiteKey(0),

  00086	c7 87 a4 01 00
	00 00 00 00 00	 mov	 DWORD PTR [edi+420], 0

; 29   : 	m_pIAUDrdsManager(NULL), m_pIDrdsLib(NULL),

  00090	c7 87 a8 01 00
	00 00 00 00 00	 mov	 DWORD PTR [edi+424], 0

; 30   : 	m_pIMasterDataManager(NULL), m_pGDIManager(NULL)

  0009a	c7 87 ac 01 00
	00 00 00 00 00	 mov	 DWORD PTR [edi+428], 0
  000a4	c7 87 b0 01 00
	00 00 00 00 00	 mov	 DWORD PTR [edi+432], 0

; 27   : 	m_pITrCommManager(NULL), m_pITrComm(NULL),

  000ae	c7 87 b4 01 00
	00 00 00 00 00	 mov	 DWORD PTR [edi+436], 0

; 29   : 	m_pIAUDrdsManager(NULL), m_pIDrdsLib(NULL),

  000b8	c7 87 b8 01 00
	00 00 00 00 00	 mov	 DWORD PTR [edi+440], 0

; 28   : 	m_pISkinColorManager(NULL),	m_lSkinSiteKey(0),

  000c2	c7 87 bc 01 00
	00 00 00 00 00	 mov	 DWORD PTR [edi+444], 0
; File C:\Program Files (x86)\Microsoft Visual Studio\2019\Community\VC\Tools\MSVC\14.29.30133\atlmfc\include\afxtempl.h

; 851  : {

  000cc	c7 87 c4 01 00
	00 00 00 00 00	 mov	 DWORD PTR [edi+452], OFFSET ??_7?$CList@P6AXXZP6AXXZ@@6B@

; 852  : 	ASSERT(nBlockSize > 0);
; 853  : 
; 854  : 	m_nCount = 0;

  000d6	c7 87 d0 01 00
	00 00 00 00 00	 mov	 DWORD PTR [edi+464], 0

; 855  : 	m_pNodeHead = m_pNodeTail = m_pNodeFree = NULL;

  000e0	c7 87 d4 01 00
	00 00 00 00 00	 mov	 DWORD PTR [edi+468], 0
  000ea	c7 87 cc 01 00
	00 00 00 00 00	 mov	 DWORD PTR [edi+460], 0
  000f4	c7 87 c8 01 00
	00 00 00 00 00	 mov	 DWORD PTR [edi+456], 0

; 856  : 	m_pBlocks = NULL;

  000fe	c7 87 d8 01 00
	00 00 00 00 00	 mov	 DWORD PTR [edi+472], 0

; 857  : 	m_nBlockSize = nBlockSize;

  00108	c7 87 dc 01 00
	00 0a 00 00 00	 mov	 DWORD PTR [edi+476], 10	; 0000000aH
  00112	c7 87 e0 01 00
	00 00 00 00 00	 mov	 DWORD PTR [edi+480], OFFSET ??_7CMyITrCommSite@CExDialog@@6B@
  0011c	c7 87 e4 01 00
	00 00 00 00 00	 mov	 DWORD PTR [edi+484], OFFSET ??_7CMyISkinColorSite@CExDialog@@6B@
; File D:\git\src\IBK\IBK_DRFN\ProjSrc\SrcDrfn\Chart\ExControl\ExDialog.cpp

; 32   : 	m_hBrBackground = NULL;

  00126	c7 87 ec 01 00
	00 00 00 00 00	 mov	 DWORD PTR [edi+492], 0

; 33   : 	m_pPcTrHelper = NULL;

  00130	c7 87 c0 01 00
	00 00 00 00 00	 mov	 DWORD PTR [edi+448], 0

; 22   : IMPLEMENT_DYNCREATE(CExDialog, CDialog)

  0013a	8b 4d f4	 mov	 ecx, DWORD PTR __$EHRec$[ebp]
  0013d	64 89 0d 00 00
	00 00		 mov	 DWORD PTR fs:0, ecx
  00144	59		 pop	 ecx
  00145	5f		 pop	 edi
  00146	5e		 pop	 esi
  00147	8b e5		 mov	 esp, ebp
  00149	5d		 pop	 ebp
  0014a	c3		 ret	 0
$LN3@CreateObje:
  0014b	33 c0		 xor	 eax, eax
  0014d	8b 4d f4	 mov	 ecx, DWORD PTR __$EHRec$[ebp]
  00150	64 89 0d 00 00
	00 00		 mov	 DWORD PTR fs:0, ecx
  00157	59		 pop	 ecx
  00158	5f		 pop	 edi
  00159	5e		 pop	 esi
  0015a	8b e5		 mov	 esp, ebp
  0015c	5d		 pop	 ebp
  0015d	c3		 ret	 0
_TEXT	ENDS
;	COMDAT text$x
text$x	SEGMENT
__unwindfunclet$?CreateObject@CExDialog@@SGPAVCObject@@XZ$0:
  00000	8b 45 f0	 mov	 eax, DWORD PTR $T2[ebp]
  00003	50		 push	 eax
  00004	e8 00 00 00 00	 call	 ??3CObject@@SGXPAX@Z	; CObject::operator delete
  00009	c3		 ret	 0
__unwindfunclet$?CreateObject@CExDialog@@SGPAVCObject@@XZ$1:
  0000a	8b 4d f0	 mov	 ecx, DWORD PTR $T2[ebp]
  0000d	e9 00 00 00 00	 jmp	 ??1CDialog@@UAE@XZ	; CDialog::~CDialog
  00012	cc		 int	 3
  00013	cc		 int	 3
  00014	cc		 int	 3
  00015	cc		 int	 3
  00016	cc		 int	 3
__ehhandler$?CreateObject@CExDialog@@SGPAVCObject@@XZ:
  00017	90		 npad	 1
  00018	90		 npad	 1
  00019	8b 54 24 08	 mov	 edx, DWORD PTR [esp+8]
  0001d	8d 42 0c	 lea	 eax, DWORD PTR [edx+12]
  00020	8b 4a f0	 mov	 ecx, DWORD PTR [edx-16]
  00023	33 c8		 xor	 ecx, eax
  00025	e8 00 00 00 00	 call	 @__security_check_cookie@4
  0002a	b8 00 00 00 00	 mov	 eax, OFFSET __ehfuncinfo$?CreateObject@CExDialog@@SGPAVCObject@@XZ
  0002f	e9 00 00 00 00	 jmp	 ___CxxFrameHandler3
text$x	ENDS
?CreateObject@CExDialog@@SGPAVCObject@@XZ ENDP		; CExDialog::CreateObject
; Function compile flags: /Ogtp
; File D:\git\src\IBK\IBK_DRFN\ProjSrc\SrcDrfn\Chart\ExControl\ExDialog.cpp
;	COMDAT ?GetRuntimeClass@CExDialog@@UBEPAUCRuntimeClass@@XZ
_TEXT	SEGMENT
?GetRuntimeClass@CExDialog@@UBEPAUCRuntimeClass@@XZ PROC ; CExDialog::GetRuntimeClass, COMDAT
; _this$ = ecx

; 22   : IMPLEMENT_DYNCREATE(CExDialog, CDialog)

  00000	b8 00 00 00 00	 mov	 eax, OFFSET ?classCExDialog@CExDialog@@2UCRuntimeClass@@B ; CExDialog::classCExDialog
  00005	c3		 ret	 0
?GetRuntimeClass@CExDialog@@UBEPAUCRuntimeClass@@XZ ENDP ; CExDialog::GetRuntimeClass
_TEXT	ENDS
; Function compile flags: /Ogtp
; File D:\git\src\IBK\IBK_DRFN\ProjSrc\SrcDrfn\Chart\ExControl\ExDialog.cpp
;	COMDAT ?GetThisClass@CExDialog@@SGPAUCRuntimeClass@@XZ
_TEXT	SEGMENT
?GetThisClass@CExDialog@@SGPAUCRuntimeClass@@XZ PROC	; CExDialog::GetThisClass, COMDAT

; 22   : IMPLEMENT_DYNCREATE(CExDialog, CDialog)

  00000	b8 00 00 00 00	 mov	 eax, OFFSET ?classCExDialog@CExDialog@@2UCRuntimeClass@@B ; CExDialog::classCExDialog
  00005	c3		 ret	 0
?GetThisClass@CExDialog@@SGPAUCRuntimeClass@@XZ ENDP	; CExDialog::GetThisClass
_TEXT	ENDS
; Function compile flags: /Ogtp
; File D:\git\src\IBK\IBK_DRFN\ProjSrc\SrcDrfn\Chart\ExControl\ExDialog.cpp
;	COMDAT ?_GetBaseClass@CExDialog@@KGPAUCRuntimeClass@@XZ
_TEXT	SEGMENT
?_GetBaseClass@CExDialog@@KGPAUCRuntimeClass@@XZ PROC	; CExDialog::_GetBaseClass, COMDAT

; 22   : IMPLEMENT_DYNCREATE(CExDialog, CDialog)

  00000	e9 00 00 00 00	 jmp	 ?GetThisClass@CDialog@@SGPAUCRuntimeClass@@XZ ; CDialog::GetThisClass
?_GetBaseClass@CExDialog@@KGPAUCRuntimeClass@@XZ ENDP	; CExDialog::_GetBaseClass
_TEXT	ENDS
; Function compile flags: /Ogtp
; File D:\git\src\IBK\IBK_DRFN\ProjSrc\SrcDrfn\Inc\PcTrMngHelper.h
;	COMDAT ?LoadProcAddress@CPCTrMngHelper@@UAEHXZ
_TEXT	SEGMENT
?LoadProcAddress@CPCTrMngHelper@@UAEHXZ PROC		; CPCTrMngHelper::LoadProcAddress, COMDAT
; _this$ = ecx

; 38   : 	{

  00000	57		 push	 edi
  00001	8b f9		 mov	 edi, ecx

; 39   : 		if(!m_hLib)

  00003	8b 47 04	 mov	 eax, DWORD PTR [edi+4]
  00006	85 c0		 test	 eax, eax
  00008	74 53		 je	 SHORT $LN4@LoadProcAd

; 40   : 			return FALSE;
; 41   : 		
; 42   : 		m_fpGetInferface	= (FpGetInferface)::GetProcAddress(m_hLib, "GetInferface");

  0000a	56		 push	 esi
  0000b	8b 35 00 00 00
	00		 mov	 esi, DWORD PTR __imp__GetProcAddress@8
  00011	68 00 00 00 00	 push	 OFFSET ??_C@_0N@HGGCPMBP@GetInferface@
  00016	50		 push	 eax
  00017	ff d6		 call	 esi

; 43   : 		m_fpGetPCTrData		= (FpGetPCTrData)::GetProcAddress(m_hLib, "GetPCTrData");

  00019	68 00 00 00 00	 push	 OFFSET ??_C@_0M@FLDHGJOE@GetPCTrData@
  0001e	ff 77 04	 push	 DWORD PTR [edi+4]
  00021	89 47 10	 mov	 DWORD PTR [edi+16], eax
  00024	ff d6		 call	 esi

; 44   : 		m_fpSetPCTrData		= (FpSetPCTrData)::GetProcAddress(m_hLib, "SetPCTrData");

  00026	68 00 00 00 00	 push	 OFFSET ??_C@_0M@FECJLPGH@SetPCTrData@
  0002b	ff 77 04	 push	 DWORD PTR [edi+4]
  0002e	89 47 14	 mov	 DWORD PTR [edi+20], eax
  00031	ff d6		 call	 esi

; 45   : 		m_fpNotifyPCTrState = (FpNotifyPCTrState)::GetProcAddress(m_hLib, "NotifyPCTrState");

  00033	68 00 00 00 00	 push	 OFFSET ??_C@_0BA@IJJLANBJ@NotifyPCTrState@
  00038	ff 77 04	 push	 DWORD PTR [edi+4]
  0003b	89 47 18	 mov	 DWORD PTR [edi+24], eax
  0003e	ff d6		 call	 esi

; 46   : 
; 47   : 		if( !m_fpGetPCTrData || !m_fpSetPCTrData || !m_fpGetInferface ) { // || !m_fpNotifyPCTrState) {

  00040	83 7f 14 00	 cmp	 DWORD PTR [edi+20], 0
  00044	89 47 1c	 mov	 DWORD PTR [edi+28], eax
  00047	5e		 pop	 esi
  00048	74 13		 je	 SHORT $LN4@LoadProcAd
  0004a	83 7f 18 00	 cmp	 DWORD PTR [edi+24], 0
  0004e	74 0d		 je	 SHORT $LN4@LoadProcAd
  00050	83 7f 10 00	 cmp	 DWORD PTR [edi+16], 0
  00054	74 07		 je	 SHORT $LN4@LoadProcAd

; 50   : 		}
; 51   : 		return TRUE;

  00056	b8 01 00 00 00	 mov	 eax, 1
  0005b	5f		 pop	 edi

; 52   : 	}

  0005c	c3		 ret	 0
$LN4@LoadProcAd:

; 48   : 			TRACE1("%s GetProcAddress Load ", m_szDllName);
; 49   : 			return FALSE;

  0005d	33 c0		 xor	 eax, eax
  0005f	5f		 pop	 edi

; 52   : 	}

  00060	c3		 ret	 0
?LoadProcAddress@CPCTrMngHelper@@UAEHXZ ENDP		; CPCTrMngHelper::LoadProcAddress
_TEXT	ENDS
; Function compile flags: /Ogtp
; File D:\git\src\IBK\IBK_DRFN\ProjSrc\SrcDrfn\Inc\PcTrMngHelper.h
; File D:\git\src\IBK\IBK_DRFN\ProjSrc\SrcDrfn\Inc\LoadLib.h
; File D:\git\src\IBK\IBK_DRFN\ProjSrc\SrcDrfn\Inc\PcTrMngHelper.h
; File D:\git\src\IBK\IBK_DRFN\ProjSrc\SrcDrfn\Inc\LoadLib.h
; File D:\git\src\IBK\IBK_DRFN\ProjSrc\SrcDrfn\Inc\PcTrMngHelper.h
; File C:\Program Files (x86)\Microsoft Visual Studio\2019\Community\VC\Tools\MSVC\14.29.30133\atlmfc\include\cstringt.h
; File D:\git\src\IBK\IBK_DRFN\ProjSrc\SrcDrfn\Inc\PcTrMngHelper.h
; File C:\Program Files (x86)\Microsoft Visual Studio\2019\Community\VC\Tools\MSVC\14.29.30133\atlmfc\include\cstringt.h
; File C:\Program Files (x86)\Microsoft Visual Studio\2019\Community\VC\Tools\MSVC\14.29.30133\atlmfc\include\atlsimpstr.h
; File C:\Program Files (x86)\Microsoft Visual Studio\2019\Community\VC\Tools\MSVC\14.29.30133\atlmfc\include\cstringt.h
; File D:\git\src\IBK\IBK_DRFN\ProjSrc\SrcDrfn\Inc\PcTrMngHelper.h
; File D:\git\src\IBK\IBK_DRFN\ProjSrc\SrcDrfn\Inc\LoadLib.h
; File D:\git\src\IBK\IBK_DRFN\ProjSrc\SrcDrfn\Inc\PcTrMngHelper.h
; File D:\git\src\IBK\IBK_DRFN\ProjSrc\SrcDrfn\Inc\LoadLib.h
; File D:\git\src\IBK\IBK_DRFN\ProjSrc\SrcDrfn\Inc\PcTrMngHelper.h
;	COMDAT ??0CPCTrMngHelper@@QAE@XZ
_TEXT	SEGMENT
_this$GSCopy$ = -288					; size = 4
_strBaseDir$ = -284					; size = 4
_msg$2 = -280						; size = 4
$T3 = -280						; size = 4
$T4 = -280						; size = 4
$T5 = -280						; size = 4
_this$ = -280						; size = 4
_szDllName$6 = -276					; size = 4
$T7 = -276						; size = 4
__strRoot_$8 = -276					; size = 4
__szBuf_$9 = -272					; size = 255
__$ArrayPad$ = -16					; size = 4
__$EHRec$ = -12						; size = 12
??0CPCTrMngHelper@@QAE@XZ PROC				; CPCTrMngHelper::CPCTrMngHelper, COMDAT
; _this$ = ecx

; 21   : 	CPCTrMngHelper () {

  00000	55		 push	 ebp
  00001	8b ec		 mov	 ebp, esp
  00003	6a ff		 push	 -1
  00005	68 00 00 00 00	 push	 __ehhandler$??0CPCTrMngHelper@@QAE@XZ
  0000a	64 a1 00 00 00
	00		 mov	 eax, DWORD PTR fs:0
  00010	50		 push	 eax
  00011	81 ec 14 01 00
	00		 sub	 esp, 276		; 00000114H
  00017	a1 00 00 00 00	 mov	 eax, DWORD PTR ___security_cookie
  0001c	33 c5		 xor	 eax, ebp
  0001e	89 45 f0	 mov	 DWORD PTR __$ArrayPad$[ebp], eax
  00021	56		 push	 esi
  00022	57		 push	 edi
  00023	50		 push	 eax
  00024	8d 45 f4	 lea	 eax, DWORD PTR __$EHRec$[ebp]
  00027	64 a3 00 00 00
	00		 mov	 DWORD PTR fs:0, eax
  0002d	8b f1		 mov	 esi, ecx
  0002f	89 b5 e8 fe ff
	ff		 mov	 DWORD PTR _this$[ebp], esi
  00035	89 b5 e0 fe ff
	ff		 mov	 DWORD PTR _this$GSCopy$[ebp], esi
; File D:\git\src\IBK\IBK_DRFN\ProjSrc\SrcDrfn\Inc\LoadLib.h

; 13   : 	CLoadLib() {

  0003b	8d 7e 08	 lea	 edi, DWORD PTR [esi+8]
; File D:\git\src\IBK\IBK_DRFN\ProjSrc\SrcDrfn\Inc\PcTrMngHelper.h

; 21   : 	CPCTrMngHelper () {

  0003e	c7 85 e8 fe ff
	ff 00 00 00 00	 mov	 DWORD PTR $T3[ebp], 0
; File D:\git\src\IBK\IBK_DRFN\ProjSrc\SrcDrfn\Inc\LoadLib.h

; 13   : 	CLoadLib() {

  00048	8b cf		 mov	 ecx, edi
  0004a	c7 06 00 00 00
	00		 mov	 DWORD PTR [esi], OFFSET ??_7CLoadLib@@6B@
  00050	ff 15 00 00 00
	00		 call	 DWORD PTR __imp_??0?$CStringT@DV?$StrTraitMFC_DLL@DV?$ChTraitsCRT@D@ATL@@@@@ATL@@QAE@XZ

; 14   : 		m_hLib = NULL;	

  00056	c7 46 04 00 00
	00 00		 mov	 DWORD PTR [esi+4], 0

; 15   : 		m_bLoadMsgShow = FALSE;

  0005d	c7 46 0c 00 00
	00 00		 mov	 DWORD PTR [esi+12], 0
; File D:\git\src\IBK\IBK_DRFN\ProjSrc\SrcDrfn\Inc\PcTrMngHelper.h

; 22   : 		CString strBaseDir;

  00064	8d 8d e4 fe ff
	ff		 lea	 ecx, DWORD PTR _strBaseDir$[ebp]
  0006a	c7 45 fc 00 00
	00 00		 mov	 DWORD PTR __$EHRec$[ebp+8], 0
  00071	c7 06 00 00 00
	00		 mov	 DWORD PTR [esi], OFFSET ??_7CPCTrMngHelper@@6B@
  00077	ff 15 00 00 00
	00		 call	 DWORD PTR __imp_??0?$CStringT@DV?$StrTraitMFC_DLL@DV?$ChTraitsCRT@D@ATL@@@@@ATL@@QAE@XZ

; 23   : 		GET_ROOT_DIR(strBaseDir);

  0007d	68 ff 00 00 00	 push	 255			; 000000ffH
  00082	8d 85 f0 fe ff
	ff		 lea	 eax, DWORD PTR __szBuf_$9[ebp]
  00088	c6 45 fc 01	 mov	 BYTE PTR __$EHRec$[ebp+8], 1
  0008c	50		 push	 eax
  0008d	6a 00		 push	 0
  0008f	ff 15 00 00 00
	00		 call	 DWORD PTR __imp__GetModuleFileNameA@12
  00095	8d 85 f0 fe ff
	ff		 lea	 eax, DWORD PTR __szBuf_$9[ebp]
  0009b	50		 push	 eax
  0009c	8d 8d ec fe ff
	ff		 lea	 ecx, DWORD PTR __strRoot_$8[ebp]
  000a2	ff 15 00 00 00
	00		 call	 DWORD PTR __imp_??0?$CStringT@DV?$StrTraitMFC_DLL@DV?$ChTraitsCRT@D@ATL@@@@@ATL@@QAE@PBD@Z
  000a8	6a 5c		 push	 92			; 0000005cH
  000aa	8d 8d ec fe ff
	ff		 lea	 ecx, DWORD PTR __strRoot_$8[ebp]
  000b0	c6 45 fc 02	 mov	 BYTE PTR __$EHRec$[ebp+8], 2
  000b4	ff 15 00 00 00
	00		 call	 DWORD PTR __imp_?ReverseFind@?$CStringT@DV?$StrTraitMFC_DLL@DV?$ChTraitsCRT@D@ATL@@@@@ATL@@QBEHD@Z
  000ba	85 c0		 test	 eax, eax
  000bc	7e 35		 jle	 SHORT $LN2@CPCTrMngHe
  000be	50		 push	 eax
  000bf	8d 85 e8 fe ff
	ff		 lea	 eax, DWORD PTR $T5[ebp]
  000c5	50		 push	 eax
  000c6	8d 8d ec fe ff
	ff		 lea	 ecx, DWORD PTR __strRoot_$8[ebp]
  000cc	ff 15 00 00 00
	00		 call	 DWORD PTR __imp_?Left@?$CStringT@DV?$StrTraitMFC_DLL@DV?$ChTraitsCRT@D@ATL@@@@@ATL@@QBE?AV12@H@Z
  000d2	50		 push	 eax
  000d3	8d 8d ec fe ff
	ff		 lea	 ecx, DWORD PTR __strRoot_$8[ebp]
  000d9	c6 45 fc 03	 mov	 BYTE PTR __$EHRec$[ebp+8], 3
  000dd	ff 15 00 00 00
	00		 call	 DWORD PTR __imp_??4?$CStringT@DV?$StrTraitMFC_DLL@DV?$ChTraitsCRT@D@ATL@@@@@ATL@@QAEAAV01@ABV01@@Z
  000e3	8d 8d e8 fe ff
	ff		 lea	 ecx, DWORD PTR $T5[ebp]
  000e9	c6 45 fc 02	 mov	 BYTE PTR __$EHRec$[ebp+8], 2
  000ed	ff 15 00 00 00
	00		 call	 DWORD PTR __imp_??1?$CStringT@DV?$StrTraitMFC_DLL@DV?$ChTraitsCRT@D@ATL@@@@@ATL@@QAE@XZ
$LN2@CPCTrMngHe:
  000f3	6a 5c		 push	 92			; 0000005cH
  000f5	8d 8d ec fe ff
	ff		 lea	 ecx, DWORD PTR __strRoot_$8[ebp]
  000fb	ff 15 00 00 00
	00		 call	 DWORD PTR __imp_?ReverseFind@?$CStringT@DV?$StrTraitMFC_DLL@DV?$ChTraitsCRT@D@ATL@@@@@ATL@@QBEHD@Z
  00101	85 c0		 test	 eax, eax
  00103	7e 35		 jle	 SHORT $LN3@CPCTrMngHe
  00105	50		 push	 eax
  00106	8d 85 e8 fe ff
	ff		 lea	 eax, DWORD PTR $T4[ebp]
  0010c	50		 push	 eax
  0010d	8d 8d ec fe ff
	ff		 lea	 ecx, DWORD PTR __strRoot_$8[ebp]
  00113	ff 15 00 00 00
	00		 call	 DWORD PTR __imp_?Left@?$CStringT@DV?$StrTraitMFC_DLL@DV?$ChTraitsCRT@D@ATL@@@@@ATL@@QBE?AV12@H@Z
  00119	50		 push	 eax
  0011a	8d 8d ec fe ff
	ff		 lea	 ecx, DWORD PTR __strRoot_$8[ebp]
  00120	c6 45 fc 04	 mov	 BYTE PTR __$EHRec$[ebp+8], 4
  00124	ff 15 00 00 00
	00		 call	 DWORD PTR __imp_??4?$CStringT@DV?$StrTraitMFC_DLL@DV?$ChTraitsCRT@D@ATL@@@@@ATL@@QAEAAV01@ABV01@@Z
  0012a	8d 8d e8 fe ff
	ff		 lea	 ecx, DWORD PTR $T4[ebp]
  00130	c6 45 fc 02	 mov	 BYTE PTR __$EHRec$[ebp+8], 2
  00134	ff 15 00 00 00
	00		 call	 DWORD PTR __imp_??1?$CStringT@DV?$StrTraitMFC_DLL@DV?$ChTraitsCRT@D@ATL@@@@@ATL@@QAE@XZ
$LN3@CPCTrMngHe:
  0013a	8d 85 ec fe ff
	ff		 lea	 eax, DWORD PTR __strRoot_$8[ebp]
  00140	50		 push	 eax
  00141	8d 8d e4 fe ff
	ff		 lea	 ecx, DWORD PTR _strBaseDir$[ebp]
  00147	ff 15 00 00 00
	00		 call	 DWORD PTR __imp_??4?$CStringT@DV?$StrTraitMFC_DLL@DV?$ChTraitsCRT@D@ATL@@@@@ATL@@QAEAAV01@ABV01@@Z
  0014d	8d 8d ec fe ff
	ff		 lea	 ecx, DWORD PTR __strRoot_$8[ebp]
  00153	ff 15 00 00 00
	00		 call	 DWORD PTR __imp_??1?$CStringT@DV?$StrTraitMFC_DLL@DV?$ChTraitsCRT@D@ATL@@@@@ATL@@QAE@XZ
; File C:\Program Files (x86)\Microsoft Visual Studio\2019\Community\VC\Tools\MSVC\14.29.30133\atlmfc\include\cstringt.h

; 2401 : 		CStringT strResult( str1.GetManager() );

  00159	8d 8d e4 fe ff
	ff		 lea	 ecx, DWORD PTR _strBaseDir$[ebp]
; File D:\git\src\IBK\IBK_DRFN\ProjSrc\SrcDrfn\Inc\PcTrMngHelper.h

; 25   : 		m_szDllName = strBaseDir + "\\dev\\PcTrMng.dll";

  0015f	c6 45 fc 05	 mov	 BYTE PTR __$EHRec$[ebp+8], 5
; File C:\Program Files (x86)\Microsoft Visual Studio\2019\Community\VC\Tools\MSVC\14.29.30133\atlmfc\include\cstringt.h

; 2401 : 		CStringT strResult( str1.GetManager() );

  00163	ff 15 00 00 00
	00		 call	 DWORD PTR __imp_?GetManager@?$CStringT@DV?$StrTraitMFC_DLL@DV?$ChTraitsCRT@D@ATL@@@@@ATL@@QBEPAUIAtlStringMgr@2@XZ
  00169	50		 push	 eax
  0016a	8d 8d ec fe ff
	ff		 lea	 ecx, DWORD PTR $T7[ebp]
  00170	ff 15 00 00 00
	00		 call	 DWORD PTR __imp_??0?$CStringT@DV?$StrTraitMFC_DLL@DV?$ChTraitsCRT@D@ATL@@@@@ATL@@QAE@PAUIAtlStringMgr@1@@Z
; File C:\Program Files (x86)\Microsoft Visual Studio\2019\Community\VC\Tools\MSVC\14.29.30133\atlmfc\include\atlsimpstr.h

; 519  : 		return( GetData()->nDataLength );

  00176	8b 85 e4 fe ff
	ff		 mov	 eax, DWORD PTR _strBaseDir$[ebp]
; File C:\Program Files (x86)\Microsoft Visual Studio\2019\Community\VC\Tools\MSVC\14.29.30133\atlmfc\include\cstringt.h

; 2403 : 		CThisSimpleString::Concatenate( strResult, str1, str1.GetLength(), psz2, CThisSimpleString::StringLength( psz2 ) );

  0017c	6a 10		 push	 16			; 00000010H
  0017e	68 00 00 00 00	 push	 OFFSET ??_C@_0BB@FBHMIJGH@?2dev?2PcTrMng?4dll@

; 2404 : 
; 2405 : 		return( strResult );

  00183	c7 85 e8 fe ff
	ff 01 00 00 00	 mov	 DWORD PTR $T3[ebp], 1
  0018d	ff 70 f4	 push	 DWORD PTR [eax-12]
  00190	50		 push	 eax
  00191	8d 85 ec fe ff
	ff		 lea	 eax, DWORD PTR $T7[ebp]
  00197	50		 push	 eax
  00198	ff 15 00 00 00
	00		 call	 DWORD PTR __imp_?Concatenate@?$CSimpleStringT@D$00@ATL@@KAXAAV12@PBDH1H@Z
  0019e	83 c4 14	 add	 esp, 20			; 00000014H
; File D:\git\src\IBK\IBK_DRFN\ProjSrc\SrcDrfn\Inc\PcTrMngHelper.h

; 25   : 		m_szDllName = strBaseDir + "\\dev\\PcTrMng.dll";

  001a1	8d 85 ec fe ff
	ff		 lea	 eax, DWORD PTR $T7[ebp]
  001a7	8b cf		 mov	 ecx, edi
  001a9	50		 push	 eax
  001aa	ff 15 00 00 00
	00		 call	 DWORD PTR __imp_??4?$CStringT@DV?$StrTraitMFC_DLL@DV?$ChTraitsCRT@D@ATL@@@@@ATL@@QAEAAV01@ABV01@@Z
  001b0	8d 8d ec fe ff
	ff		 lea	 ecx, DWORD PTR $T7[ebp]
  001b6	c6 45 fc 01	 mov	 BYTE PTR __$EHRec$[ebp+8], 1
  001ba	ff 15 00 00 00
	00		 call	 DWORD PTR __imp_??1?$CStringT@DV?$StrTraitMFC_DLL@DV?$ChTraitsCRT@D@ATL@@@@@ATL@@QAE@XZ
; File D:\git\src\IBK\IBK_DRFN\ProjSrc\SrcDrfn\Inc\LoadLib.h

; 26   : 		CString szDllName = m_szDllName;

  001c0	57		 push	 edi
  001c1	8d 8d ec fe ff
	ff		 lea	 ecx, DWORD PTR _szDllName$6[ebp]
; File D:\git\src\IBK\IBK_DRFN\ProjSrc\SrcDrfn\Inc\PcTrMngHelper.h

; 27   : 		m_fpGetInferface = NULL;

  001c7	c7 46 10 00 00
	00 00		 mov	 DWORD PTR [esi+16], 0

; 28   : 		m_fpGetPCTrData = NULL;

  001ce	c7 46 14 00 00
	00 00		 mov	 DWORD PTR [esi+20], 0

; 29   : 		m_fpSetPCTrData = NULL;

  001d5	c7 46 18 00 00
	00 00		 mov	 DWORD PTR [esi+24], 0

; 30   : 		m_fpNotifyPCTrState = NULL;

  001dc	c7 46 1c 00 00
	00 00		 mov	 DWORD PTR [esi+28], 0
; File D:\git\src\IBK\IBK_DRFN\ProjSrc\SrcDrfn\Inc\LoadLib.h

; 26   : 		CString szDllName = m_szDllName;

  001e3	ff 15 00 00 00
	00		 call	 DWORD PTR __imp_??0?$CStringT@DV?$StrTraitMFC_DLL@DV?$ChTraitsCRT@D@ATL@@@@@ATL@@QAE@ABV01@@Z

; 27   : 		HMODULE		hLib = NULL;
; 28   : 		//AfxMessageBox(szDllName);
; 29   : 		hLib = AfxLoadLibrary(szDllName);

  001e9	ff b5 ec fe ff
	ff		 push	 DWORD PTR _szDllName$6[ebp]
  001ef	c6 45 fc 06	 mov	 BYTE PTR __$EHRec$[ebp+8], 6
  001f3	e8 00 00 00 00	 call	 ?AfxLoadLibrary@@YGPAUHINSTANCE__@@PBD@Z ; AfxLoadLibrary

; 30   : 		if(hLib==NULL) {

  001f8	85 c0		 test	 eax, eax
  001fa	75 4e		 jne	 SHORT $LN27@CPCTrMngHe

; 31   : 			CString msg;

  001fc	8d 8d e8 fe ff
	ff		 lea	 ecx, DWORD PTR _msg$2[ebp]
  00202	ff 15 00 00 00
	00		 call	 DWORD PTR __imp_??0?$CStringT@DV?$StrTraitMFC_DLL@DV?$ChTraitsCRT@D@ATL@@@@@ATL@@QAE@XZ

; 32   : 			msg.Format("DLL[%s] Load  .", szDllName);

  00208	ff b5 ec fe ff
	ff		 push	 DWORD PTR _szDllName$6[ebp]
  0020e	8d 85 e8 fe ff
	ff		 lea	 eax, DWORD PTR _msg$2[ebp]
  00214	c6 45 fc 07	 mov	 BYTE PTR __$EHRec$[ebp+8], 7
  00218	68 00 00 00 00	 push	 OFFSET ??_C@_0BO@HDGMHKJP@DLL?$FL?$CFs?$FN?$MA?$LL?5Load?G?R?5?$LM?v?5?$LO?x?$LN?$MA?$LE?O?$LE?Y?4@
  0021d	50		 push	 eax
  0021e	ff 15 00 00 00
	00		 call	 DWORD PTR __imp_?Format@?$CStringT@DV?$StrTraitMFC_DLL@DV?$ChTraitsCRT@D@ATL@@@@@ATL@@QAAXPBDZZ
  00224	83 c4 0c	 add	 esp, 12			; 0000000cH

; 33   : 			if(m_bLoadMsgShow)

  00227	83 7e 0c 00	 cmp	 DWORD PTR [esi+12], 0
  0022b	74 0f		 je	 SHORT $LN28@CPCTrMngHe

; 34   : 				AfxMessageBox(msg);

  0022d	6a 00		 push	 0
  0022f	6a 00		 push	 0
  00231	ff b5 e8 fe ff
	ff		 push	 DWORD PTR _msg$2[ebp]
  00237	e8 00 00 00 00	 call	 ?AfxMessageBox@@YGHPBDII@Z ; AfxMessageBox
$LN28@CPCTrMngHe:

; 35   : 
; 36   : 			return NULL;

  0023c	8d 8d e8 fe ff
	ff		 lea	 ecx, DWORD PTR _msg$2[ebp]
  00242	ff 15 00 00 00
	00		 call	 DWORD PTR __imp_??1?$CStringT@DV?$StrTraitMFC_DLL@DV?$ChTraitsCRT@D@ATL@@@@@ATL@@QAE@XZ
  00248	eb 31		 jmp	 SHORT $LN29@CPCTrMngHe
$LN27@CPCTrMngHe:

; 37   : 		}
; 38   : 		m_hLib = hLib;

  0024a	89 46 04	 mov	 DWORD PTR [esi+4], eax

; 39   : 		if(!LoadProcAddress()) {

  0024d	8b ce		 mov	 ecx, esi
  0024f	8b 06		 mov	 eax, DWORD PTR [esi]
  00251	8b 00		 mov	 eax, DWORD PTR [eax]
  00253	3d 00 00 00 00	 cmp	 eax, OFFSET ?LoadProcAddress@CPCTrMngHelper@@UAEHXZ ; CPCTrMngHelper::LoadProcAddress
  00258	75 07		 jne	 SHORT $LN38@CPCTrMngHe
  0025a	e8 00 00 00 00	 call	 ?LoadProcAddress@CPCTrMngHelper@@UAEHXZ ; CPCTrMngHelper::LoadProcAddress
  0025f	eb 02		 jmp	 SHORT $LN37@CPCTrMngHe
$LN38@CPCTrMngHe:
  00261	ff d0		 call	 eax
$LN37@CPCTrMngHe:
  00263	85 c0		 test	 eax, eax
  00265	75 14		 jne	 SHORT $LN29@CPCTrMngHe

; 48   : 		if(!m_hLib)

  00267	8b 46 04	 mov	 eax, DWORD PTR [esi+4]
  0026a	85 c0		 test	 eax, eax
  0026c	74 0d		 je	 SHORT $LN29@CPCTrMngHe

; 49   : 			return TRUE;
; 50   : 
; 51   : 		BOOL bResult = AfxFreeLibrary(m_hLib);

  0026e	50		 push	 eax
  0026f	e8 00 00 00 00	 call	 ?AfxFreeLibrary@@YGHPAUHINSTANCE__@@@Z ; AfxFreeLibrary

; 52   : 		m_hLib = NULL;

  00274	c7 46 04 00 00
	00 00		 mov	 DWORD PTR [esi+4], 0
$LN29@CPCTrMngHe:
; File D:\git\src\IBK\IBK_DRFN\ProjSrc\SrcDrfn\Inc\PcTrMngHelper.h

; 33   : 	}

  0027b	8d 8d ec fe ff
	ff		 lea	 ecx, DWORD PTR _szDllName$6[ebp]
  00281	ff 15 00 00 00
	00		 call	 DWORD PTR __imp_??1?$CStringT@DV?$StrTraitMFC_DLL@DV?$ChTraitsCRT@D@ATL@@@@@ATL@@QAE@XZ
  00287	8d 8d e4 fe ff
	ff		 lea	 ecx, DWORD PTR _strBaseDir$[ebp]
  0028d	ff 15 00 00 00
	00		 call	 DWORD PTR __imp_??1?$CStringT@DV?$StrTraitMFC_DLL@DV?$ChTraitsCRT@D@ATL@@@@@ATL@@QAE@XZ
  00293	8b c6		 mov	 eax, esi
  00295	8b 4d f4	 mov	 ecx, DWORD PTR __$EHRec$[ebp]
  00298	64 89 0d 00 00
	00 00		 mov	 DWORD PTR fs:0, ecx
  0029f	59		 pop	 ecx
  002a0	5f		 pop	 edi
  002a1	5e		 pop	 esi
  002a2	8b 4d f0	 mov	 ecx, DWORD PTR __$ArrayPad$[ebp]
  002a5	33 cd		 xor	 ecx, ebp
  002a7	e8 00 00 00 00	 call	 @__security_check_cookie@4
  002ac	8b e5		 mov	 esp, ebp
  002ae	5d		 pop	 ebp
  002af	c3		 ret	 0
_TEXT	ENDS
;	COMDAT text$x
text$x	SEGMENT
__unwindfunclet$??0CPCTrMngHelper@@QAE@XZ$0:
  00000	8b 8d e0 fe ff
	ff		 mov	 ecx, DWORD PTR _this$GSCopy$[ebp]
  00006	e9 00 00 00 00	 jmp	 ??1CLoadLib@@QAE@XZ	; CLoadLib::~CLoadLib
__unwindfunclet$??0CPCTrMngHelper@@QAE@XZ$1:
  0000b	8d 8d e4 fe ff
	ff		 lea	 ecx, DWORD PTR _strBaseDir$[ebp]
  00011	ff 25 00 00 00
	00		 jmp	 DWORD PTR __imp_??1?$CStringT@DV?$StrTraitMFC_DLL@DV?$ChTraitsCRT@D@ATL@@@@@ATL@@QAE@XZ
__unwindfunclet$??0CPCTrMngHelper@@QAE@XZ$2:
  00017	8d 8d ec fe ff
	ff		 lea	 ecx, DWORD PTR __strRoot_$8[ebp]
  0001d	ff 25 00 00 00
	00		 jmp	 DWORD PTR __imp_??1?$CStringT@DV?$StrTraitMFC_DLL@DV?$ChTraitsCRT@D@ATL@@@@@ATL@@QAE@XZ
__unwindfunclet$??0CPCTrMngHelper@@QAE@XZ$3:
  00023	8d 8d e8 fe ff
	ff		 lea	 ecx, DWORD PTR $T5[ebp]
  00029	ff 25 00 00 00
	00		 jmp	 DWORD PTR __imp_??1?$CStringT@DV?$StrTraitMFC_DLL@DV?$ChTraitsCRT@D@ATL@@@@@ATL@@QAE@XZ
__unwindfunclet$??0CPCTrMngHelper@@QAE@XZ$4:
  0002f	8d 8d e8 fe ff
	ff		 lea	 ecx, DWORD PTR $T4[ebp]
  00035	ff 25 00 00 00
	00		 jmp	 DWORD PTR __imp_??1?$CStringT@DV?$StrTraitMFC_DLL@DV?$ChTraitsCRT@D@ATL@@@@@ATL@@QAE@XZ
__unwindfunclet$??0CPCTrMngHelper@@QAE@XZ$6:
  0003b	8b 85 e8 fe ff
	ff		 mov	 eax, DWORD PTR $T3[ebp]
  00041	83 e0 01	 and	 eax, 1
  00044	0f 84 13 00 00
	00		 je	 $LN16@CPCTrMngHe
  0004a	83 a5 e8 fe ff
	ff fe		 and	 DWORD PTR $T3[ebp], -2	; fffffffeH
  00051	8d 8d ec fe ff
	ff		 lea	 ecx, DWORD PTR $T7[ebp]
  00057	ff 25 00 00 00
	00		 jmp	 DWORD PTR __imp_??1?$CStringT@DV?$StrTraitMFC_DLL@DV?$ChTraitsCRT@D@ATL@@@@@ATL@@QAE@XZ
$LN16@CPCTrMngHe:
  0005d	c3		 ret	 0
__unwindfunclet$??0CPCTrMngHelper@@QAE@XZ$7:
  0005e	8d 8d ec fe ff
	ff		 lea	 ecx, DWORD PTR _szDllName$6[ebp]
  00064	ff 25 00 00 00
	00		 jmp	 DWORD PTR __imp_??1?$CStringT@DV?$StrTraitMFC_DLL@DV?$ChTraitsCRT@D@ATL@@@@@ATL@@QAE@XZ
__unwindfunclet$??0CPCTrMngHelper@@QAE@XZ$8:
  0006a	8d 8d e8 fe ff
	ff		 lea	 ecx, DWORD PTR _msg$2[ebp]
  00070	ff 25 00 00 00
	00		 jmp	 DWORD PTR __imp_??1?$CStringT@DV?$StrTraitMFC_DLL@DV?$ChTraitsCRT@D@ATL@@@@@ATL@@QAE@XZ
  00076	cc		 int	 3
  00077	cc		 int	 3
  00078	cc		 int	 3
  00079	cc		 int	 3
  0007a	cc		 int	 3
__ehhandler$??0CPCTrMngHelper@@QAE@XZ:
  0007b	90		 npad	 1
  0007c	90		 npad	 1
  0007d	8b 54 24 08	 mov	 edx, DWORD PTR [esp+8]
  00081	8d 42 0c	 lea	 eax, DWORD PTR [edx+12]
  00084	8b 8a e0 fe ff
	ff		 mov	 ecx, DWORD PTR [edx-288]
  0008a	33 c8		 xor	 ecx, eax
  0008c	e8 00 00 00 00	 call	 @__security_check_cookie@4
  00091	8b 4a fc	 mov	 ecx, DWORD PTR [edx-4]
  00094	33 c8		 xor	 ecx, eax
  00096	e8 00 00 00 00	 call	 @__security_check_cookie@4
  0009b	b8 00 00 00 00	 mov	 eax, OFFSET __ehfuncinfo$??0CPCTrMngHelper@@QAE@XZ
  000a0	e9 00 00 00 00	 jmp	 ___CxxFrameHandler3
text$x	ENDS
??0CPCTrMngHelper@@QAE@XZ ENDP				; CPCTrMngHelper::CPCTrMngHelper
; Function compile flags: /Ogtp
; File D:\git\src\IBK\IBK_DRFN\ProjSrc\SrcDrfn\Inc\LoadLib.h
;	COMDAT ?LoadProcAddress@CLoadLib@@UAEHXZ
_TEXT	SEGMENT
?LoadProcAddress@CLoadLib@@UAEHXZ PROC			; CLoadLib::LoadProcAddress, COMDAT
; _this$ = ecx

; 23   : 	virtual BOOL LoadProcAddress() { return TRUE;}

  00000	b8 01 00 00 00	 mov	 eax, 1
  00005	c3		 ret	 0
?LoadProcAddress@CLoadLib@@UAEHXZ ENDP			; CLoadLib::LoadProcAddress
_TEXT	ENDS
; Function compile flags: /Ogtp
; File D:\git\src\IBK\IBK_DRFN\ProjSrc\SrcDrfn\Inc\LoadLib.h
;	COMDAT ??1CLoadLib@@QAE@XZ
_TEXT	SEGMENT
__$EHRec$ = -12						; size = 12
??1CLoadLib@@QAE@XZ PROC				; CLoadLib::~CLoadLib, COMDAT
; _this$ = ecx

; 18   : 	{

  00000	55		 push	 ebp
  00001	8b ec		 mov	 ebp, esp
  00003	6a ff		 push	 -1
  00005	68 00 00 00 00	 push	 __ehhandler$??1CLoadLib@@QAE@XZ
  0000a	64 a1 00 00 00
	00		 mov	 eax, DWORD PTR fs:0
  00010	50		 push	 eax
  00011	56		 push	 esi
  00012	a1 00 00 00 00	 mov	 eax, DWORD PTR ___security_cookie
  00017	33 c5		 xor	 eax, ebp
  00019	50		 push	 eax
  0001a	8d 45 f4	 lea	 eax, DWORD PTR __$EHRec$[ebp]
  0001d	64 a3 00 00 00
	00		 mov	 DWORD PTR fs:0, eax
  00023	8b f1		 mov	 esi, ecx

; 48   : 		if(!m_hLib)

  00025	8b 46 04	 mov	 eax, DWORD PTR [esi+4]

; 18   : 	{

  00028	c7 06 00 00 00
	00		 mov	 DWORD PTR [esi], OFFSET ??_7CLoadLib@@6B@

; 48   : 		if(!m_hLib)

  0002e	85 c0		 test	 eax, eax
  00030	74 0d		 je	 SHORT $LN3@CLoadLib

; 49   : 			return TRUE;
; 50   : 
; 51   : 		BOOL bResult = AfxFreeLibrary(m_hLib);

  00032	50		 push	 eax
  00033	e8 00 00 00 00	 call	 ?AfxFreeLibrary@@YGHPAUHINSTANCE__@@@Z ; AfxFreeLibrary

; 52   : 		m_hLib = NULL;

  00038	c7 46 04 00 00
	00 00		 mov	 DWORD PTR [esi+4], 0
$LN3@CLoadLib:

; 19   : 		UnLoadLib();
; 20   : 	}

  0003f	8d 4e 08	 lea	 ecx, DWORD PTR [esi+8]
  00042	ff 15 00 00 00
	00		 call	 DWORD PTR __imp_??1?$CStringT@DV?$StrTraitMFC_DLL@DV?$ChTraitsCRT@D@ATL@@@@@ATL@@QAE@XZ
  00048	8b 4d f4	 mov	 ecx, DWORD PTR __$EHRec$[ebp]
  0004b	64 89 0d 00 00
	00 00		 mov	 DWORD PTR fs:0, ecx
  00052	59		 pop	 ecx
  00053	5e		 pop	 esi
  00054	8b e5		 mov	 esp, ebp
  00056	5d		 pop	 ebp
  00057	c3		 ret	 0
  00058	cc		 int	 3
  00059	cc		 int	 3
  0005a	cc		 int	 3
  0005b	cc		 int	 3
  0005c	cc		 int	 3
_TEXT	ENDS
;	COMDAT text$x
text$x	SEGMENT
__ehhandler$??1CLoadLib@@QAE@XZ:
  00000	90		 npad	 1
  00001	90		 npad	 1
  00002	8b 54 24 08	 mov	 edx, DWORD PTR [esp+8]
  00006	8d 42 0c	 lea	 eax, DWORD PTR [edx+12]
  00009	8b 4a f8	 mov	 ecx, DWORD PTR [edx-8]
  0000c	33 c8		 xor	 ecx, eax
  0000e	e8 00 00 00 00	 call	 @__security_check_cookie@4
  00013	b8 00 00 00 00	 mov	 eax, OFFSET __ehfuncinfo$??1CLoadLib@@QAE@XZ
  00018	e9 00 00 00 00	 jmp	 ___CxxFrameHandler3
text$x	ENDS
??1CLoadLib@@QAE@XZ ENDP				; CLoadLib::~CLoadLib
; Function compile flags: /Ogtp
; File D:\git\src\IBK\IBK_DRFN\ProjSrc\SrcDrfn\Inc\IBaseDefine.h
;	COMDAT ??__ERMSG_SETPCTRDATA@@YAXXZ
text$di	SEGMENT
??__ERMSG_SETPCTRDATA@@YAXXZ PROC			; `dynamic initializer for 'RMSG_SETPCTRDATA'', COMDAT

; 172  : const UINT RMSG_SETPCTRDATA = ::RegisterWindowMessage("RMSG_SETPCTRDATA");

  00000	68 00 00 00 00	 push	 OFFSET ??_C@_0BB@JPACFCL@RMSG_SETPCTRDATA@
  00005	ff 15 00 00 00
	00		 call	 DWORD PTR __imp__RegisterWindowMessageA@4
  0000b	a3 00 00 00 00	 mov	 DWORD PTR ?RMSG_SETPCTRDATA@@3IB, eax
  00010	c3		 ret	 0
??__ERMSG_SETPCTRDATA@@YAXXZ ENDP			; `dynamic initializer for 'RMSG_SETPCTRDATA''
text$di	ENDS
; Function compile flags: /Ogtp
; File D:\git\src\IBK\IBK_DRFN\ProjSrc\SrcDrfn\Inc\IBaseDefine.h
;	COMDAT ??__ERMSG_GETPCTRDATA@@YAXXZ
text$di	SEGMENT
??__ERMSG_GETPCTRDATA@@YAXXZ PROC			; `dynamic initializer for 'RMSG_GETPCTRDATA'', COMDAT

; 171  : const UINT RMSG_GETPCTRDATA = ::RegisterWindowMessage("RMSG_GETPCTRDATA");

  00000	68 00 00 00 00	 push	 OFFSET ??_C@_0BB@GOOPDKI@RMSG_GETPCTRDATA@
  00005	ff 15 00 00 00
	00		 call	 DWORD PTR __imp__RegisterWindowMessageA@4
  0000b	a3 00 00 00 00	 mov	 DWORD PTR ?RMSG_GETPCTRDATA@@3IB, eax
  00010	c3		 ret	 0
??__ERMSG_GETPCTRDATA@@YAXXZ ENDP			; `dynamic initializer for 'RMSG_GETPCTRDATA''
text$di	ENDS
; Function compile flags: /Ogtp
; File D:\git\src\IBK\IBK_DRFN\ProjSrc\SrcDrfn\Inc\IBaseDefine.h
;	COMDAT ??__ERMSG_INTERFACE@@YAXXZ
text$di	SEGMENT
??__ERMSG_INTERFACE@@YAXXZ PROC				; `dynamic initializer for 'RMSG_INTERFACE'', COMDAT

; 170  : const UINT RMSG_INTERFACE = ::RegisterWindowMessage("RMSG_INTERFACE");

  00000	68 00 00 00 00	 push	 OFFSET ??_C@_0P@BKKCOCLK@RMSG_INTERFACE@
  00005	ff 15 00 00 00
	00		 call	 DWORD PTR __imp__RegisterWindowMessageA@4
  0000b	a3 00 00 00 00	 mov	 DWORD PTR ?RMSG_INTERFACE@@3IB, eax
  00010	c3		 ret	 0
??__ERMSG_INTERFACE@@YAXXZ ENDP				; `dynamic initializer for 'RMSG_INTERFACE''
text$di	ENDS
; Function compile flags: /Ogtp
; File C:\Program Files (x86)\Microsoft Visual Studio\2019\Community\VC\Tools\MSVC\14.29.30133\atlmfc\include\afxwin2.inl
;	COMDAT ?Create@CDialog@@UAEHIPAVCWnd@@@Z
_TEXT	SEGMENT
_nIDTemplate$ = 8					; size = 4
_pParentWnd$ = 12					; size = 4
?Create@CDialog@@UAEHIPAVCWnd@@@Z PROC			; CDialog::Create, COMDAT
; _this$ = ecx

; 585  : 	{ return CDialog::Create(ATL_MAKEINTRESOURCE(nIDTemplate), pParentWnd); }

  00000	55		 push	 ebp
  00001	8b ec		 mov	 ebp, esp
  00003	0f b7 45 08	 movzx	 eax, WORD PTR _nIDTemplate$[ebp]
  00007	89 45 08	 mov	 DWORD PTR _nIDTemplate$[ebp], eax
  0000a	5d		 pop	 ebp
  0000b	e9 00 00 00 00	 jmp	 ?Create@CDialog@@UAEHPBDPAVCWnd@@@Z ; CDialog::Create
?Create@CDialog@@UAEHIPAVCWnd@@@Z ENDP			; CDialog::Create
_TEXT	ENDS
; Function compile flags: /Ogtp
; File C:\Program Files (x86)\Microsoft Visual Studio\2019\Community\VC\Tools\MSVC\14.29.30133\atlmfc\include\afxwin2.inl
;	COMDAT ?EndModalState@CWnd@@UAEXXZ
_TEXT	SEGMENT
?EndModalState@CWnd@@UAEXXZ PROC			; CWnd::EndModalState, COMDAT
; _this$ = ecx

; 567  : 	{ ::EnableWindow(m_hWnd, TRUE); }

  00000	6a 01		 push	 1
  00002	ff 71 20	 push	 DWORD PTR [ecx+32]
  00005	ff 15 00 00 00
	00		 call	 DWORD PTR __imp__EnableWindow@8
  0000b	c3		 ret	 0
?EndModalState@CWnd@@UAEXXZ ENDP			; CWnd::EndModalState
_TEXT	ENDS
; Function compile flags: /Ogtp
; File C:\Program Files (x86)\Microsoft Visual Studio\2019\Community\VC\Tools\MSVC\14.29.30133\atlmfc\include\afxwin2.inl
;	COMDAT ?BeginModalState@CWnd@@UAEXXZ
_TEXT	SEGMENT
?BeginModalState@CWnd@@UAEXXZ PROC			; CWnd::BeginModalState, COMDAT
; _this$ = ecx

; 565  : 	{ ::EnableWindow(m_hWnd, FALSE); }

  00000	6a 00		 push	 0
  00002	ff 71 20	 push	 DWORD PTR [ecx+32]
  00005	ff 15 00 00 00
	00		 call	 DWORD PTR __imp__EnableWindow@8
  0000b	c3		 ret	 0
?BeginModalState@CWnd@@UAEXXZ ENDP			; CWnd::BeginModalState
_TEXT	ENDS
; Function compile flags: /Ogtp
; File C:\Program Files (x86)\Microsoft Visual Studio\2019\Community\VC\Tools\MSVC\14.29.30133\atlmfc\include\afxwin2.inl
;	COMDAT ?DoDataExchange@CWnd@@MAEXPAVCDataExchange@@@Z
_TEXT	SEGMENT
___formal$ = 8						; size = 4
?DoDataExchange@CWnd@@MAEXPAVCDataExchange@@@Z PROC	; CWnd::DoDataExchange, COMDAT
; _this$ = ecx

; 561  : 	{ } // default does nothing

  00000	c2 04 00	 ret	 4
?DoDataExchange@CWnd@@MAEXPAVCDataExchange@@@Z ENDP	; CWnd::DoDataExchange
_TEXT	ENDS
; Function compile flags: /Ogtp
; File C:\Program Files (x86)\Microsoft Visual Studio\2019\Community\VC\Tools\MSVC\14.29.30133\atlmfc\include\afx.inl
;	COMDAT ?_AfxInitManaged@@YAHXZ
_TEXT	SEGMENT
?_AfxInitManaged@@YAHXZ PROC				; _AfxInitManaged, COMDAT

; 87   : 	return 0;

  00000	33 c0		 xor	 eax, eax

; 88   : }

  00002	c3		 ret	 0
?_AfxInitManaged@@YAHXZ ENDP				; _AfxInitManaged
_TEXT	ENDS
; Function compile flags: /Ogtp
; File C:\Program Files (x86)\Microsoft Visual Studio\2019\Community\VC\Tools\MSVC\14.29.30133\atlmfc\include\afx.inl
;	COMDAT ?Dump@CObject@@UBEXAAVCDumpContext@@@Z
_TEXT	SEGMENT
___formal$ = 8						; size = 4
?Dump@CObject@@UBEXAAVCDumpContext@@@Z PROC		; CObject::Dump, COMDAT
; _this$ = ecx

; 122  : 	{ /* no dumping in release builds */ }

  00000	c2 04 00	 ret	 4
?Dump@CObject@@UBEXAAVCDumpContext@@@Z ENDP		; CObject::Dump
_TEXT	ENDS
; Function compile flags: /Ogtp
; File C:\Program Files (x86)\Microsoft Visual Studio\2019\Community\VC\Tools\MSVC\14.29.30133\atlmfc\include\afx.inl
;	COMDAT ?AssertValid@CObject@@UBEXXZ
_TEXT	SEGMENT
?AssertValid@CObject@@UBEXXZ PROC			; CObject::AssertValid, COMDAT
; _this$ = ecx

; 120  : 	{ /* no asserts in release builds */ }

  00000	c2 00 00	 ret	 0
?AssertValid@CObject@@UBEXXZ ENDP			; CObject::AssertValid
_TEXT	ENDS
; Function compile flags: /Ogtp
; File C:\Program Files (x86)\Microsoft Visual Studio\2019\Community\VC\Tools\MSVC\14.29.30133\atlmfc\include\afx.inl
;	COMDAT ?Serialize@CObject@@UAEXAAVCArchive@@@Z
_TEXT	SEGMENT
___formal$ = 8						; size = 4
?Serialize@CObject@@UAEXAAVCArchive@@@Z PROC		; CObject::Serialize, COMDAT
; _this$ = ecx

; 106  : 	{ /* CObject does not serialize anything by default */ }

  00000	c2 04 00	 ret	 4
?Serialize@CObject@@UAEXAAVCArchive@@@Z ENDP		; CObject::Serialize
_TEXT	ENDS
; Function compile flags: /Ogtp
; File C:\Program Files (x86)\Microsoft Visual Studio\2019\Community\VC\Tools\MSVC\14.29.30133\atlmfc\include\afx.inl
;	COMDAT ??3CObject@@SGXPAX@Z
_TEXT	SEGMENT
_p$ = 8							; size = 4
??3CObject@@SGXPAX@Z PROC				; CObject::operator delete, COMDAT

; 112  : 	{ ::operator delete(p); }

  00000	55		 push	 ebp
  00001	8b ec		 mov	 ebp, esp
  00003	ff 75 08	 push	 DWORD PTR _p$[ebp]
  00006	e8 00 00 00 00	 call	 ??3@YAXPAX@Z		; operator delete
  0000b	83 c4 04	 add	 esp, 4
  0000e	5d		 pop	 ebp
  0000f	c2 04 00	 ret	 4
??3CObject@@SGXPAX@Z ENDP				; CObject::operator delete
_TEXT	ENDS
; Function compile flags: /Ogtp
; File C:\Program Files (x86)\Microsoft Visual Studio\2019\Community\VC\Tools\MSVC\14.29.30133\atlmfc\include\afx.inl
;	COMDAT ??1CObject@@UAE@XZ
_TEXT	SEGMENT
??1CObject@@UAE@XZ PROC					; CObject::~CObject, COMDAT
; _this$ = ecx

; 104  : 	{ }

  00000	c2 00 00	 ret	 0
??1CObject@@UAE@XZ ENDP					; CObject::~CObject
_TEXT	ENDS
; Function compile flags: /Ogtp
; File C:\Program Files (x86)\Windows Kits\10\Include\10.0.22000.0\ucrt\stdio.h
;	COMDAT _sscanf
_TEXT	SEGMENT
__Buffer$ = 8						; size = 4
__Format$ = 12						; size = 4
_sscanf	PROC						; COMDAT

; 2247 :     {

  00000	55		 push	 ebp
  00001	8b ec		 mov	 ebp, esp

; 2153 :         return __stdio_common_vsscanf(

  00003	8d 45 10	 lea	 eax, DWORD PTR __Format$[ebp+4]
  00006	50		 push	 eax
  00007	6a 00		 push	 0
  00009	ff 75 0c	 push	 DWORD PTR __Format$[ebp]
  0000c	6a ff		 push	 -1
  0000e	ff 75 08	 push	 DWORD PTR __Buffer$[ebp]
  00011	e8 00 00 00 00	 call	 ___local_stdio_scanf_options
  00016	ff 70 04	 push	 DWORD PTR [eax+4]
  00019	ff 30		 push	 DWORD PTR [eax]
  0001b	ff 15 00 00 00
	00		 call	 DWORD PTR __imp____stdio_common_vsscanf
  00021	83 c4 1c	 add	 esp, 28			; 0000001cH

; 2248 :         int _Result;
; 2249 :         va_list _ArgList;
; 2250 :         __crt_va_start(_ArgList, _Format);
; 2251 :         _Result = _vsscanf_l(_Buffer, _Format, NULL, _ArgList);
; 2252 :         __crt_va_end(_ArgList);
; 2253 :         return _Result;
; 2254 :     }

  00024	5d		 pop	 ebp
  00025	c3		 ret	 0
_sscanf	ENDP
_TEXT	ENDS
; Function compile flags: /Ogtp
; File C:\Program Files (x86)\Windows Kits\10\Include\10.0.22000.0\ucrt\corecrt_stdio_config.h
;	COMDAT ___local_stdio_scanf_options
_TEXT	SEGMENT
___local_stdio_scanf_options PROC			; COMDAT

; 101  :         static unsigned __int64 _OptionsStorage;
; 102  :         return &_OptionsStorage;

  00000	b8 00 00 00 00	 mov	 eax, OFFSET ?_OptionsStorage@?1??__local_stdio_scanf_options@@9@4_KA ; `__local_stdio_scanf_options'::`2'::_OptionsStorage

; 103  :     }

  00005	c3		 ret	 0
___local_stdio_scanf_options ENDP
_TEXT	ENDS
; Function compile flags: /Ogtp
; File D:\git\src\IBK\IBK_DRFN\ProjSrc\SrcDrfn\Chart\ExControl\ExDialog.cpp
;	COMDAT ?__empty_global_delete@@YAXPAXI@Z
_TEXT	SEGMENT
___formal$ = 8						; size = 4
___formal$ = 12						; size = 4
?__empty_global_delete@@YAXPAXI@Z PROC			; __empty_global_delete, COMDAT

  00000	c2 00 00	 ret	 0
?__empty_global_delete@@YAXPAXI@Z ENDP			; __empty_global_delete
_TEXT	ENDS
; Function compile flags: /Ogtp
; File D:\git\src\IBK\IBK_DRFN\ProjSrc\SrcDrfn\Chart\ExControl\ExDialog.cpp
;	COMDAT ?__empty_global_delete@@YAXPAX@Z
_TEXT	SEGMENT
___formal$ = 8						; size = 4
?__empty_global_delete@@YAXPAX@Z PROC			; __empty_global_delete, COMDAT

  00000	c2 00 00	 ret	 0
?__empty_global_delete@@YAXPAX@Z ENDP			; __empty_global_delete
_TEXT	ENDS
END
