; Listing generated by Microsoft (R) Optimizing Compiler Version 19.29.30145.0 

	TITLE	D:\git\src\IBK\IBK_DRFN\#DRfn-CS\_Obj\ExControl\ExDrawButton.obj
	.686P
	.XMM
	include listing.inc
	.model	flat

INCLUDELIB MSVCRT
INCLUDELIB OLDNAMES

PUBLIC	??_C@_0P@BKKCOCLK@RMSG_INTERFACE@		; `string'
PUBLIC	??_C@_0BB@GOOPDKI@RMSG_GETPCTRDATA@		; `string'
PUBLIC	??_C@_0BB@JPACFCL@RMSG_SETPCTRDATA@		; `string'
;	COMDAT ??_C@_0BB@JPACFCL@RMSG_SETPCTRDATA@
CONST	SEGMENT
??_C@_0BB@JPACFCL@RMSG_SETPCTRDATA@ DB 'RMSG_SETPCTRDATA', 00H ; `string'
CONST	ENDS
;	COMDAT ??_C@_0BB@GOOPDKI@RMSG_GETPCTRDATA@
CONST	SEGMENT
??_C@_0BB@GOOPDKI@RMSG_GETPCTRDATA@ DB 'RMSG_GETPCTRDATA', 00H ; `string'
CONST	ENDS
;	COMDAT ??_C@_0P@BKKCOCLK@RMSG_INTERFACE@
CONST	SEGMENT
??_C@_0P@BKKCOCLK@RMSG_INTERFACE@ DB 'RMSG_INTERFACE', 00H ; `string'
CONST	ENDS
PUBLIC	?__empty_global_delete@@YAXPAX@Z		; __empty_global_delete
PUBLIC	?__empty_global_delete@@YAXPAXI@Z		; __empty_global_delete
PUBLIC	___local_stdio_printf_options
PUBLIC	_sprintf
PUBLIC	?Serialize@CObject@@UAEXAAVCArchive@@@Z		; CObject::Serialize
PUBLIC	?AssertValid@CObject@@UBEXXZ			; CObject::AssertValid
PUBLIC	?Dump@CObject@@UBEXAAVCDumpContext@@@Z		; CObject::Dump
PUBLIC	?DoDataExchange@CWnd@@MAEXPAVCDataExchange@@@Z	; CWnd::DoDataExchange
PUBLIC	?BeginModalState@CWnd@@UAEXXZ			; CWnd::BeginModalState
PUBLIC	?EndModalState@CWnd@@UAEXXZ			; CWnd::EndModalState
PUBLIC	??0CExDrawButton@@QAE@H@Z			; CExDrawButton::CExDrawButton
PUBLIC	?ActionControl@CExDrawButton@@QAEJPAX@Z		; CExDrawButton::ActionControl
PUBLIC	?SetButtonColor@CExDrawButton@@QAEHI@Z		; CExDrawButton::SetButtonColor
PUBLIC	?SetIconImage@CExDrawButton@@QAEHVCSize@@PAUHICON__@@1I@Z ; CExDrawButton::SetIconImage
PUBLIC	?SetText@CExDrawButton@@QAEXPBD@Z		; CExDrawButton::SetText
PUBLIC	?GetText@CExDrawButton@@QAEPBDXZ		; CExDrawButton::GetText
PUBLIC	?UseToggleMode@CExDrawButton@@UAEXH@Z		; CExDrawButton::UseToggleMode
PUBLIC	?GetToggleState@CExDrawButton@@UAEHXZ		; CExDrawButton::GetToggleState
PUBLIC	?SetToggleState@CExDrawButton@@UAEXH@Z		; CExDrawButton::SetToggleState
PUBLIC	?ReleasePushed@CExDrawButton@@UAEXXZ		; CExDrawButton::ReleasePushed
PUBLIC	?AddToggleGroup@CExDrawButton@@QAAXPAV1@ZZ	; CExDrawButton::AddToggleGroup
PUBLIC	?DrawItem@CExDrawButton@@UAEXPAUtagDRAWITEMSTRUCT@@@Z ; CExDrawButton::DrawItem
PUBLIC	?PreSubclassWindow@CExDrawButton@@MAEXXZ	; CExDrawButton::PreSubclassWindow
PUBLIC	??1CExDrawButton@@UAE@XZ			; CExDrawButton::~CExDrawButton
PUBLIC	?OnDestroy@CExDrawButton@@IAEXXZ		; CExDrawButton::OnDestroy
PUBLIC	?OnClicked@CExDrawButton@@IAEHXZ		; CExDrawButton::OnClicked
PUBLIC	?GetThisMessageMap@CExDrawButton@@KGPBUAFX_MSGMAP@@XZ ; CExDrawButton::GetThisMessageMap
PUBLIC	?GetMessageMap@CExDrawButton@@MBEPBUAFX_MSGMAP@@XZ ; CExDrawButton::GetMessageMap
PUBLIC	??_GCExDrawButton@@UAEPAXI@Z			; CExDrawButton::`scalar deleting destructor'
PUBLIC	??1CExLoadLib@@QAE@XZ				; CExLoadLib::~CExLoadLib
PUBLIC	?LoadProcAddress@CExLoadLib@@UAEHXZ		; CExLoadLib::LoadProcAddress
PUBLIC	??0CLoaderDrawButton@@QAE@PAXH@Z		; CLoaderDrawButton::CLoaderDrawButton
PUBLIC	?LoadProcAddress@CLoaderDrawButton@@UAEHXZ	; CLoaderDrawButton::LoadProcAddress
PUBLIC	?_OptionsStorage@?1??__local_stdio_printf_options@@9@4_KA ; `__local_stdio_printf_options'::`2'::_OptionsStorage
PUBLIC	??_C@_00CNPNBAHC@@				; `string'
PUBLIC	??_R0?AVCObject@@@8				; CObject `RTTI Type Descriptor'
PUBLIC	??_R3CObject@@8					; CObject::`RTTI Class Hierarchy Descriptor'
PUBLIC	??_R2CObject@@8					; CObject::`RTTI Base Class Array'
PUBLIC	??_R1A@?0A@EA@CObject@@8			; CObject::`RTTI Base Class Descriptor at (0,-1,0,64)'
PUBLIC	??_R1A@?0A@EA@CWnd@@8				; CWnd::`RTTI Base Class Descriptor at (0,-1,0,64)'
PUBLIC	??_R0?AVCWnd@@@8				; CWnd `RTTI Type Descriptor'
PUBLIC	??_R3CWnd@@8					; CWnd::`RTTI Class Hierarchy Descriptor'
PUBLIC	??_R2CWnd@@8					; CWnd::`RTTI Base Class Array'
PUBLIC	??_R1A@?0A@EA@CCmdTarget@@8			; CCmdTarget::`RTTI Base Class Descriptor at (0,-1,0,64)'
PUBLIC	??_R0?AVCCmdTarget@@@8				; CCmdTarget `RTTI Type Descriptor'
PUBLIC	??_R3CCmdTarget@@8				; CCmdTarget::`RTTI Class Hierarchy Descriptor'
PUBLIC	??_R2CCmdTarget@@8				; CCmdTarget::`RTTI Base Class Array'
PUBLIC	??_R0?AVCButton@@@8				; CButton `RTTI Type Descriptor'
PUBLIC	??_R3CButton@@8					; CButton::`RTTI Class Hierarchy Descriptor'
PUBLIC	??_R2CButton@@8					; CButton::`RTTI Base Class Array'
PUBLIC	??_R1A@?0A@EA@CButton@@8			; CButton::`RTTI Base Class Descriptor at (0,-1,0,64)'
PUBLIC	??_7CExDrawButton@@6B@				; CExDrawButton::`vftable'
PUBLIC	??_7CExLoadLib@@6B@				; CExLoadLib::`vftable'
PUBLIC	??_C@_0CD@INEDAMEN@DLL?$FL?$CFs?$FN?$MA?$LL?5Load?G?R?5?$LM?v?5?$LO?x?$LN?$MA?$LE?O?$LE?Y?4?5?$FL@ ; `string'
PUBLIC	??_C@_04OHDBDCPJ@?2Dev@				; `string'
PUBLIC	??_7CLoaderDrawButton@@6B@			; CLoaderDrawButton::`vftable'
PUBLIC	??_C@_0N@GEEODKHG@ExButton?4dll@		; `string'
PUBLIC	??_C@_05BMGBEOOC@?$CFs?2?$CFs@			; `string'
PUBLIC	??_C@_0BB@JBDOCKKP@Ex_ActionControl@		; `string'
PUBLIC	??_C@_0BC@PGEAKCHE@Ex_InitDrawButton@		; `string'
PUBLIC	??_C@_0BD@LKOOKBPG@Ex_InitDrawButton2@		; `string'
PUBLIC	??_C@_0O@HJMOOLG@Ex_ExitButton@			; `string'
PUBLIC	??_C@_0BB@CHEHMADH@Ex_SetDrawButton@		; `string'
PUBLIC	??_C@_0BC@BNIJDNAL@Ex_DrawItemButton@		; `string'
PUBLIC	??_C@_0L@DJFMIDOF@Ex_SetText@			; `string'
PUBLIC	??_C@_0L@CNADMACE@Ex_SetIcon@			; `string'
PUBLIC	??_C@_0BJ@LGMPMCJG@Ex_GetSkinNotifyFunction@	; `string'
PUBLIC	??_C@_0CA@IAIBPFKD@Ex_PreSubclassWindow_DrawButton@ ; `string'
PUBLIC	??_C@_0BG@EAFAMFDC@Ex_GetText_DrawButton@	; `string'
PUBLIC	??_C@_0BM@HBHBHJMC@Ex_UseToggleMode_DrawButton@	; `string'
PUBLIC	??_C@_0BN@KABDCPCN@Ex_GetToggleState_DrawButton@ ; `string'
PUBLIC	??_C@_0BN@CANFOCIL@Ex_SetToggleState_DrawButton@ ; `string'
PUBLIC	??_C@_0BM@KGOCHHHE@Ex_ReleasePushed_DrawButton@	; `string'
PUBLIC	??_C@_0BI@HIINLFG@Ex_OnClicked_DrawButton@	; `string'
PUBLIC	??_C@_0BN@KLLBCGDD@Ex_AddToggleGroup_DrawButton@ ; `string'
PUBLIC	??_R4CLoaderDrawButton@@6B@			; CLoaderDrawButton::`RTTI Complete Object Locator'
PUBLIC	??_R0?AVCLoaderDrawButton@@@8			; CLoaderDrawButton `RTTI Type Descriptor'
PUBLIC	??_R3CLoaderDrawButton@@8			; CLoaderDrawButton::`RTTI Class Hierarchy Descriptor'
PUBLIC	??_R2CLoaderDrawButton@@8			; CLoaderDrawButton::`RTTI Base Class Array'
PUBLIC	??_R1A@?0A@EA@CLoaderDrawButton@@8		; CLoaderDrawButton::`RTTI Base Class Descriptor at (0,-1,0,64)'
PUBLIC	??_R1A@?0A@EA@CExLoadLib@@8			; CExLoadLib::`RTTI Base Class Descriptor at (0,-1,0,64)'
PUBLIC	??_R0?AVCExLoadLib@@@8				; CExLoadLib `RTTI Type Descriptor'
PUBLIC	??_R3CExLoadLib@@8				; CExLoadLib::`RTTI Class Hierarchy Descriptor'
PUBLIC	??_R2CExLoadLib@@8				; CExLoadLib::`RTTI Base Class Array'
PUBLIC	??_R4CExDrawButton@@6B@				; CExDrawButton::`RTTI Complete Object Locator'
PUBLIC	??_R0?AVCExDrawButton@@@8			; CExDrawButton `RTTI Type Descriptor'
PUBLIC	??_R3CExDrawButton@@8				; CExDrawButton::`RTTI Class Hierarchy Descriptor'
PUBLIC	??_R2CExDrawButton@@8				; CExDrawButton::`RTTI Base Class Array'
PUBLIC	??_R1A@?0A@EA@CExDrawButton@@8			; CExDrawButton::`RTTI Base Class Descriptor at (0,-1,0,64)'
PUBLIC	??_R1A@?0A@EA@CExButton@@8			; CExButton::`RTTI Base Class Descriptor at (0,-1,0,64)'
PUBLIC	??_R0?AVCExButton@@@8				; CExButton `RTTI Type Descriptor'
PUBLIC	??_R3CExButton@@8				; CExButton::`RTTI Class Hierarchy Descriptor'
PUBLIC	??_R2CExButton@@8				; CExButton::`RTTI Base Class Array'
PUBLIC	??_R4CExLoadLib@@6B@				; CExLoadLib::`RTTI Complete Object Locator'
EXTRN	??2@YAPAXI@Z:PROC				; operator new
EXTRN	??3@YAXPAX@Z:PROC				; operator delete
EXTRN	??3@YAXPAXI@Z:PROC				; operator delete
EXTRN	?__global_delete@@YAXPAXI@Z:PROC		; __global_delete
EXTRN	___std_terminate:PROC
EXTRN	__imp__GetLastError@0:PROC
EXTRN	__imp__FreeLibrary@4:PROC
EXTRN	__imp__GetModuleFileNameA@12:PROC
EXTRN	__imp__GetProcAddress@8:PROC
EXTRN	__imp__LoadLibraryA@4:PROC
EXTRN	__imp__RegisterWindowMessageA@4:PROC
EXTRN	__imp__EnableWindow@8:PROC
EXTRN	__imp____stdio_common_vsprintf:PROC
EXTRN	__imp_??0?$CStringT@DV?$StrTraitMFC_DLL@DV?$ChTraitsCRT@D@ATL@@@@@ATL@@QAE@XZ:PROC
EXTRN	__imp_??1?$CStringT@DV?$StrTraitMFC_DLL@DV?$ChTraitsCRT@D@ATL@@@@@ATL@@QAE@XZ:PROC
EXTRN	__imp_??4?$CStringT@DV?$StrTraitMFC_DLL@DV?$ChTraitsCRT@D@ATL@@@@@ATL@@QAEAAV01@ABV01@@Z:PROC
EXTRN	__imp_??4?$CStringT@DV?$StrTraitMFC_DLL@DV?$ChTraitsCRT@D@ATL@@@@@ATL@@QAEAAV01@PBD@Z:PROC
EXTRN	__imp_??Y?$CStringT@DV?$StrTraitMFC_DLL@DV?$ChTraitsCRT@D@ATL@@@@@ATL@@QAEAAV01@PBD@Z:PROC
EXTRN	__imp_?ReverseFind@?$CStringT@DV?$StrTraitMFC_DLL@DV?$ChTraitsCRT@D@ATL@@@@@ATL@@QBEHD@Z:PROC
EXTRN	__imp_?Left@?$CStringT@DV?$StrTraitMFC_DLL@DV?$ChTraitsCRT@D@ATL@@@@@ATL@@QBE?AV12@H@Z:PROC
EXTRN	?OnCmdMsg@CCmdTarget@@UAEHIHPAXPAUAFX_CMDHANDLERINFO@@@Z:PROC ; CCmdTarget::OnCmdMsg
EXTRN	?IsInvokeAllowed@CCmdTarget@@UAEHJ@Z:PROC	; CCmdTarget::IsInvokeAllowed
EXTRN	?GetDispatchIID@CCmdTarget@@UAEHPAU_GUID@@@Z:PROC ; CCmdTarget::GetDispatchIID
EXTRN	?GetTypeInfoCount@CCmdTarget@@UAEIXZ:PROC	; CCmdTarget::GetTypeInfoCount
EXTRN	?GetTypeLibCache@CCmdTarget@@UAEPAVCTypeLibCache@@XZ:PROC ; CCmdTarget::GetTypeLibCache
EXTRN	?GetTypeLib@CCmdTarget@@UAEJKPAPAUITypeLib@@@Z:PROC ; CCmdTarget::GetTypeLib
EXTRN	?GetCommandMap@CCmdTarget@@MBEPBUAFX_OLECMDMAP@@XZ:PROC ; CCmdTarget::GetCommandMap
EXTRN	?GetDispatchMap@CCmdTarget@@MBEPBUAFX_DISPMAP@@XZ:PROC ; CCmdTarget::GetDispatchMap
EXTRN	?GetConnectionMap@CCmdTarget@@MBEPBUAFX_CONNECTIONMAP@@XZ:PROC ; CCmdTarget::GetConnectionMap
EXTRN	?GetEventSinkMap@CCmdTarget@@MBEPBUAFX_EVENTSINKMAP@@XZ:PROC ; CCmdTarget::GetEventSinkMap
EXTRN	?OnCreateAggregates@CCmdTarget@@UAEHXZ:PROC	; CCmdTarget::OnCreateAggregates
EXTRN	?GetInterfaceHook@CCmdTarget@@UAEPAUIUnknown@@PBX@Z:PROC ; CCmdTarget::GetInterfaceHook
EXTRN	?GetExtraConnectionPoints@CCmdTarget@@MAEHPAVCPtrArray@@@Z:PROC ; CCmdTarget::GetExtraConnectionPoints
EXTRN	?GetConnectionHook@CCmdTarget@@MAEPAUIConnectionPoint@@ABU_GUID@@@Z:PROC ; CCmdTarget::GetConnectionHook
EXTRN	?Create@CWnd@@UAEHPBD0KABUtagRECT@@PAV1@IPAUCCreateContext@@@Z:PROC ; CWnd::Create
EXTRN	?CreateEx@CWnd@@UAEHKPBD0KHHHHPAUHWND__@@PAUHMENU__@@PAX@Z:PROC ; CWnd::CreateEx
EXTRN	?CreateEx@CWnd@@UAEHKPBD0KABUtagRECT@@PAV1@IPAX@Z:PROC ; CWnd::CreateEx
EXTRN	?DestroyWindow@CWnd@@UAEHXZ:PROC		; CWnd::DestroyWindow
EXTRN	?PreCreateWindow@CWnd@@UAEHAAUtagCREATESTRUCTA@@@Z:PROC ; CWnd::PreCreateWindow
EXTRN	?CalcWindowRect@CWnd@@UAEXPAUtagRECT@@I@Z:PROC	; CWnd::CalcWindowRect
EXTRN	?GetMenu@CWnd@@UBEPAVCMenu@@XZ:PROC		; CWnd::GetMenu
EXTRN	?SetMenu@CWnd@@UAEHPAVCMenu@@@Z:PROC		; CWnd::SetMenu
EXTRN	?OnToolHitTest@CWnd@@UBEHVCPoint@@PAUtagTOOLINFOA@@@Z:PROC ; CWnd::OnToolHitTest
EXTRN	?GetScrollBarCtrl@CWnd@@UBEPAVCScrollBar@@H@Z:PROC ; CWnd::GetScrollBarCtrl
EXTRN	?WinHelpA@CWnd@@UAEXKI@Z:PROC			; CWnd::WinHelpA
EXTRN	?HtmlHelpA@CWnd@@UAEXKI@Z:PROC			; CWnd::HtmlHelpA
EXTRN	?WinHelpInternal@CWnd@@UAEXKI@Z:PROC		; CWnd::WinHelpInternal
EXTRN	?ContinueModal@CWnd@@UAEHXZ:PROC		; CWnd::ContinueModal
EXTRN	?EndModalLoop@CWnd@@UAEXH@Z:PROC		; CWnd::EndModalLoop
EXTRN	?OnDrawIconicThumbnailOrLivePreview@CWnd@@UAEXAAVCDC@@VCRect@@VCSize@@HAAH@Z:PROC ; CWnd::OnDrawIconicThumbnailOrLivePreview
EXTRN	?GetInterfaceMap@CWnd@@MBEPBUAFX_INTERFACEMAP@@XZ:PROC ; CWnd::GetInterfaceMap
EXTRN	?EnsureStdObj@CWnd@@UAEJXZ:PROC			; CWnd::EnsureStdObj
EXTRN	?get_accParent@CWnd@@UAEJPAPAUIDispatch@@@Z:PROC ; CWnd::get_accParent
EXTRN	?get_accChildCount@CWnd@@UAEJPAJ@Z:PROC		; CWnd::get_accChildCount
EXTRN	?get_accChild@CWnd@@UAEJUtagVARIANT@@PAPAUIDispatch@@@Z:PROC ; CWnd::get_accChild
EXTRN	?get_accName@CWnd@@UAEJUtagVARIANT@@PAPA_W@Z:PROC ; CWnd::get_accName
EXTRN	?get_accValue@CWnd@@UAEJUtagVARIANT@@PAPA_W@Z:PROC ; CWnd::get_accValue
EXTRN	?get_accDescription@CWnd@@UAEJUtagVARIANT@@PAPA_W@Z:PROC ; CWnd::get_accDescription
EXTRN	?get_accRole@CWnd@@UAEJUtagVARIANT@@PAU2@@Z:PROC ; CWnd::get_accRole
EXTRN	?get_accState@CWnd@@UAEJUtagVARIANT@@PAU2@@Z:PROC ; CWnd::get_accState
EXTRN	?get_accHelp@CWnd@@UAEJUtagVARIANT@@PAPA_W@Z:PROC ; CWnd::get_accHelp
EXTRN	?get_accHelpTopic@CWnd@@UAEJPAPA_WUtagVARIANT@@PAJ@Z:PROC ; CWnd::get_accHelpTopic
EXTRN	?get_accKeyboardShortcut@CWnd@@UAEJUtagVARIANT@@PAPA_W@Z:PROC ; CWnd::get_accKeyboardShortcut
EXTRN	?get_accFocus@CWnd@@UAEJPAUtagVARIANT@@@Z:PROC	; CWnd::get_accFocus
EXTRN	?get_accSelection@CWnd@@UAEJPAUtagVARIANT@@@Z:PROC ; CWnd::get_accSelection
EXTRN	?get_accDefaultAction@CWnd@@UAEJUtagVARIANT@@PAPA_W@Z:PROC ; CWnd::get_accDefaultAction
EXTRN	?accSelect@CWnd@@UAEJJUtagVARIANT@@@Z:PROC	; CWnd::accSelect
EXTRN	?accLocation@CWnd@@UAEJPAJ000UtagVARIANT@@@Z:PROC ; CWnd::accLocation
EXTRN	?accNavigate@CWnd@@UAEJJUtagVARIANT@@PAU2@@Z:PROC ; CWnd::accNavigate
EXTRN	?accHitTest@CWnd@@UAEJJJPAUtagVARIANT@@@Z:PROC	; CWnd::accHitTest
EXTRN	?accDoDefaultAction@CWnd@@UAEJUtagVARIANT@@@Z:PROC ; CWnd::accDoDefaultAction
EXTRN	?put_accName@CWnd@@UAEJUtagVARIANT@@PA_W@Z:PROC	; CWnd::put_accName
EXTRN	?put_accValue@CWnd@@UAEJUtagVARIANT@@PA_W@Z:PROC ; CWnd::put_accValue
EXTRN	?SetProxy@CWnd@@UAEJPAUIAccessibleProxy@@@Z:PROC ; CWnd::SetProxy
EXTRN	?CreateAccessibleProxy@CWnd@@UAEJIJPAJ@Z:PROC	; CWnd::CreateAccessibleProxy
EXTRN	?OnCommand@CWnd@@MAEHIJ@Z:PROC			; CWnd::OnCommand
EXTRN	?OnNotify@CWnd@@MAEHIJPAJ@Z:PROC		; CWnd::OnNotify
EXTRN	?OnDestroy@CWnd@@IAEXXZ:PROC			; CWnd::OnDestroy
EXTRN	?GetSuperWndProcAddr@CWnd@@MAEPAP6GJPAUHWND__@@IIJ@ZXZ:PROC ; CWnd::GetSuperWndProcAddr
EXTRN	?PreTranslateMessage@CWnd@@UAEHPAUtagMSG@@@Z:PROC ; CWnd::PreTranslateMessage
EXTRN	?OnAmbientProperty@CWnd@@UAEHPAVCOleControlSite@@JPAUtagVARIANT@@@Z:PROC ; CWnd::OnAmbientProperty
EXTRN	?WindowProc@CWnd@@MAEJIIJ@Z:PROC		; CWnd::WindowProc
EXTRN	?OnWndMsg@CWnd@@MAEHIIJPAJ@Z:PROC		; CWnd::OnWndMsg
EXTRN	?DefWindowProcA@CWnd@@MAEJIIJ@Z:PROC		; CWnd::DefWindowProcA
EXTRN	?PostNcDestroy@CWnd@@MAEXXZ:PROC		; CWnd::PostNcDestroy
EXTRN	?OnTouchInputs@CWnd@@MAEHIPAUtagTOUCHINPUT@@@Z:PROC ; CWnd::OnTouchInputs
EXTRN	?OnTouchInput@CWnd@@MAEHVCPoint@@HHPAUtagTOUCHINPUT@@@Z:PROC ; CWnd::OnTouchInput
EXTRN	?GetGestureStatus@CWnd@@MAEKVCPoint@@@Z:PROC	; CWnd::GetGestureStatus
EXTRN	?OnGestureZoom@CWnd@@MAEHVCPoint@@J@Z:PROC	; CWnd::OnGestureZoom
EXTRN	?OnGesturePan@CWnd@@MAEHVCPoint@@0@Z:PROC	; CWnd::OnGesturePan
EXTRN	?OnGestureRotate@CWnd@@MAEHVCPoint@@N@Z:PROC	; CWnd::OnGestureRotate
EXTRN	?OnGestureTwoFingerTap@CWnd@@MAEHVCPoint@@@Z:PROC ; CWnd::OnGestureTwoFingerTap
EXTRN	?OnGesturePressAndTap@CWnd@@MAEHVCPoint@@J@Z:PROC ; CWnd::OnGesturePressAndTap
EXTRN	?ResizeDynamicLayout@CWnd@@MAEXXZ:PROC		; CWnd::ResizeDynamicLayout
EXTRN	?CheckAutoCenter@CWnd@@UAEHXZ:PROC		; CWnd::CheckAutoCenter
EXTRN	?IsFrameWnd@CWnd@@UBEHXZ:PROC			; CWnd::IsFrameWnd
EXTRN	?OnFinalRelease@CWnd@@UAEXXZ:PROC		; CWnd::OnFinalRelease
EXTRN	?CreateControlContainer@CWnd@@MAEHPAPAVCOleControlContainer@@@Z:PROC ; CWnd::CreateControlContainer
EXTRN	?CreateControlSite@CWnd@@MAEHPAVCOleControlContainer@@PAPAVCOleControlSite@@IABU_GUID@@@Z:PROC ; CWnd::CreateControlSite
EXTRN	?SetOccDialogInfo@CWnd@@MAEHPAU_AFX_OCC_DIALOG_INFO@@@Z:PROC ; CWnd::SetOccDialogInfo
EXTRN	?GetOccDialogInfo@CWnd@@MAEPAU_AFX_OCC_DIALOG_INFO@@XZ:PROC ; CWnd::GetOccDialogInfo
EXTRN	?GetRuntimeClass@CButton@@UBEPAUCRuntimeClass@@XZ:PROC ; CButton::GetRuntimeClass
EXTRN	?Create@CButton@@UAEHPBDKABUtagRECT@@PAVCWnd@@I@Z:PROC ; CButton::Create
EXTRN	?OnChildNotify@CButton@@MAEHIIJPAJ@Z:PROC	; CButton::OnChildNotify
EXTRN	?AfxMessageBox@@YGHPBDII@Z:PROC			; AfxMessageBox
EXTRN	??0CExButton@@QAE@XZ:PROC			; CExButton::CExButton
EXTRN	?PreSubclassWindow@CExButton@@MAEXXZ:PROC	; CExButton::PreSubclassWindow
EXTRN	??1CExButton@@UAE@XZ:PROC			; CExButton::~CExButton
EXTRN	?GetThisMessageMap@CExButton@@KGPBUAFX_MSGMAP@@XZ:PROC ; CExButton::GetThisMessageMap
EXTRN	??_ECExDrawButton@@UAEPAXI@Z:PROC		; CExDrawButton::`vector deleting destructor'
EXTRN	@__security_check_cookie@4:PROC
EXTRN	___CxxFrameHandler3:PROC
EXTRN	_memset:PROC
EXTRN	??_7type_info@@6B@:QWORD			; type_info::`vftable'
EXTRN	___security_cookie:DWORD
;	COMDAT ?_OptionsStorage@?1??__local_stdio_printf_options@@9@4_KA
_BSS	SEGMENT
?_OptionsStorage@?1??__local_stdio_printf_options@@9@4_KA DQ 01H DUP (?) ; `__local_stdio_printf_options'::`2'::_OptionsStorage
_BSS	ENDS
_BSS	SEGMENT
?RMSG_INTERFACE@@3IB DD 01H DUP (?)			; RMSG_INTERFACE
?RMSG_GETPCTRDATA@@3IB DD 01H DUP (?)			; RMSG_GETPCTRDATA
?RMSG_SETPCTRDATA@@3IB DD 01H DUP (?)			; RMSG_SETPCTRDATA
_BSS	ENDS
CRT$XCU	SEGMENT
?RMSG_INTERFACE$initializer$@@3P6AXXZA DD FLAT:??__ERMSG_INTERFACE@@YAXXZ ; RMSG_INTERFACE$initializer$
CRT$XCU	ENDS
;	COMDAT ??_R4CExLoadLib@@6B@
rdata$r	SEGMENT
??_R4CExLoadLib@@6B@ DD 00H				; CExLoadLib::`RTTI Complete Object Locator'
	DD	00H
	DD	00H
	DD	FLAT:??_R0?AVCExLoadLib@@@8
	DD	FLAT:??_R3CExLoadLib@@8
rdata$r	ENDS
;	COMDAT ??_R2CExButton@@8
rdata$r	SEGMENT
??_R2CExButton@@8 DD FLAT:??_R1A@?0A@EA@CExButton@@8	; CExButton::`RTTI Base Class Array'
	DD	FLAT:??_R1A@?0A@EA@CButton@@8
	DD	FLAT:??_R1A@?0A@EA@CWnd@@8
	DD	FLAT:??_R1A@?0A@EA@CCmdTarget@@8
	DD	FLAT:??_R1A@?0A@EA@CObject@@8
rdata$r	ENDS
;	COMDAT ??_R3CExButton@@8
rdata$r	SEGMENT
??_R3CExButton@@8 DD 00H				; CExButton::`RTTI Class Hierarchy Descriptor'
	DD	00H
	DD	05H
	DD	FLAT:??_R2CExButton@@8
rdata$r	ENDS
;	COMDAT ??_R0?AVCExButton@@@8
data$rs	SEGMENT
??_R0?AVCExButton@@@8 DD FLAT:??_7type_info@@6B@	; CExButton `RTTI Type Descriptor'
	DD	00H
	DB	'.?AVCExButton@@', 00H
data$rs	ENDS
;	COMDAT ??_R1A@?0A@EA@CExButton@@8
rdata$r	SEGMENT
??_R1A@?0A@EA@CExButton@@8 DD FLAT:??_R0?AVCExButton@@@8 ; CExButton::`RTTI Base Class Descriptor at (0,-1,0,64)'
	DD	04H
	DD	00H
	DD	0ffffffffH
	DD	00H
	DD	040H
	DD	FLAT:??_R3CExButton@@8
rdata$r	ENDS
;	COMDAT ??_R1A@?0A@EA@CExDrawButton@@8
rdata$r	SEGMENT
??_R1A@?0A@EA@CExDrawButton@@8 DD FLAT:??_R0?AVCExDrawButton@@@8 ; CExDrawButton::`RTTI Base Class Descriptor at (0,-1,0,64)'
	DD	05H
	DD	00H
	DD	0ffffffffH
	DD	00H
	DD	040H
	DD	FLAT:??_R3CExDrawButton@@8
rdata$r	ENDS
;	COMDAT ??_R2CExDrawButton@@8
rdata$r	SEGMENT
??_R2CExDrawButton@@8 DD FLAT:??_R1A@?0A@EA@CExDrawButton@@8 ; CExDrawButton::`RTTI Base Class Array'
	DD	FLAT:??_R1A@?0A@EA@CExButton@@8
	DD	FLAT:??_R1A@?0A@EA@CButton@@8
	DD	FLAT:??_R1A@?0A@EA@CWnd@@8
	DD	FLAT:??_R1A@?0A@EA@CCmdTarget@@8
	DD	FLAT:??_R1A@?0A@EA@CObject@@8
rdata$r	ENDS
;	COMDAT ??_R3CExDrawButton@@8
rdata$r	SEGMENT
??_R3CExDrawButton@@8 DD 00H				; CExDrawButton::`RTTI Class Hierarchy Descriptor'
	DD	00H
	DD	06H
	DD	FLAT:??_R2CExDrawButton@@8
rdata$r	ENDS
;	COMDAT ??_R0?AVCExDrawButton@@@8
data$rs	SEGMENT
??_R0?AVCExDrawButton@@@8 DD FLAT:??_7type_info@@6B@	; CExDrawButton `RTTI Type Descriptor'
	DD	00H
	DB	'.?AVCExDrawButton@@', 00H
data$rs	ENDS
;	COMDAT ??_R4CExDrawButton@@6B@
rdata$r	SEGMENT
??_R4CExDrawButton@@6B@ DD 00H				; CExDrawButton::`RTTI Complete Object Locator'
	DD	00H
	DD	00H
	DD	FLAT:??_R0?AVCExDrawButton@@@8
	DD	FLAT:??_R3CExDrawButton@@8
rdata$r	ENDS
;	COMDAT ??_R2CExLoadLib@@8
rdata$r	SEGMENT
??_R2CExLoadLib@@8 DD FLAT:??_R1A@?0A@EA@CExLoadLib@@8	; CExLoadLib::`RTTI Base Class Array'
rdata$r	ENDS
;	COMDAT ??_R3CExLoadLib@@8
rdata$r	SEGMENT
??_R3CExLoadLib@@8 DD 00H				; CExLoadLib::`RTTI Class Hierarchy Descriptor'
	DD	00H
	DD	01H
	DD	FLAT:??_R2CExLoadLib@@8
rdata$r	ENDS
;	COMDAT ??_R0?AVCExLoadLib@@@8
data$rs	SEGMENT
??_R0?AVCExLoadLib@@@8 DD FLAT:??_7type_info@@6B@	; CExLoadLib `RTTI Type Descriptor'
	DD	00H
	DB	'.?AVCExLoadLib@@', 00H
data$rs	ENDS
;	COMDAT ??_R1A@?0A@EA@CExLoadLib@@8
rdata$r	SEGMENT
??_R1A@?0A@EA@CExLoadLib@@8 DD FLAT:??_R0?AVCExLoadLib@@@8 ; CExLoadLib::`RTTI Base Class Descriptor at (0,-1,0,64)'
	DD	00H
	DD	00H
	DD	0ffffffffH
	DD	00H
	DD	040H
	DD	FLAT:??_R3CExLoadLib@@8
rdata$r	ENDS
;	COMDAT ??_R1A@?0A@EA@CLoaderDrawButton@@8
rdata$r	SEGMENT
??_R1A@?0A@EA@CLoaderDrawButton@@8 DD FLAT:??_R0?AVCLoaderDrawButton@@@8 ; CLoaderDrawButton::`RTTI Base Class Descriptor at (0,-1,0,64)'
	DD	01H
	DD	00H
	DD	0ffffffffH
	DD	00H
	DD	040H
	DD	FLAT:??_R3CLoaderDrawButton@@8
rdata$r	ENDS
;	COMDAT ??_R2CLoaderDrawButton@@8
rdata$r	SEGMENT
??_R2CLoaderDrawButton@@8 DD FLAT:??_R1A@?0A@EA@CLoaderDrawButton@@8 ; CLoaderDrawButton::`RTTI Base Class Array'
	DD	FLAT:??_R1A@?0A@EA@CExLoadLib@@8
rdata$r	ENDS
;	COMDAT ??_R3CLoaderDrawButton@@8
rdata$r	SEGMENT
??_R3CLoaderDrawButton@@8 DD 00H			; CLoaderDrawButton::`RTTI Class Hierarchy Descriptor'
	DD	00H
	DD	02H
	DD	FLAT:??_R2CLoaderDrawButton@@8
rdata$r	ENDS
;	COMDAT ??_R0?AVCLoaderDrawButton@@@8
data$rs	SEGMENT
??_R0?AVCLoaderDrawButton@@@8 DD FLAT:??_7type_info@@6B@ ; CLoaderDrawButton `RTTI Type Descriptor'
	DD	00H
	DB	'.?AVCLoaderDrawButton@@', 00H
data$rs	ENDS
;	COMDAT ??_R4CLoaderDrawButton@@6B@
rdata$r	SEGMENT
??_R4CLoaderDrawButton@@6B@ DD 00H			; CLoaderDrawButton::`RTTI Complete Object Locator'
	DD	00H
	DD	00H
	DD	FLAT:??_R0?AVCLoaderDrawButton@@@8
	DD	FLAT:??_R3CLoaderDrawButton@@8
rdata$r	ENDS
;	COMDAT ?messageMap@?1??GetThisMessageMap@CExDrawButton@@KGPBUAFX_MSGMAP@@XZ@4U3@B
CONST	SEGMENT
?messageMap@?1??GetThisMessageMap@CExDrawButton@@KGPBUAFX_MSGMAP@@XZ@4U3@B DD FLAT:?GetThisMessageMap@CExButton@@KGPBUAFX_MSGMAP@@XZ ; `CExDrawButton::GetThisMessageMap'::`2'::messageMap
	DD	FLAT:?_messageEntries@?1??GetThisMessageMap@CExDrawButton@@KGPBUAFX_MSGMAP@@XZ@4QBUAFX_MSGMAP_ENTRY@@B
CONST	ENDS
;	COMDAT ?_messageEntries@?1??GetThisMessageMap@CExDrawButton@@KGPBUAFX_MSGMAP@@XZ@4QBUAFX_MSGMAP_ENTRY@@B
CONST	SEGMENT
?_messageEntries@?1??GetThisMessageMap@CExDrawButton@@KGPBUAFX_MSGMAP@@XZ@4QBUAFX_MSGMAP_ENTRY@@B DD 0bd11H ; `CExDrawButton::GetThisMessageMap'::`2'::_messageEntries
	DD	00H
	DD	00H
	DD	00H
	DD	03bH
	DD	FLAT:?OnClicked@CExDrawButton@@IAEHXZ
	DD	00H
	DD	00H
	DD	00H
	DD	00H
	DD	00H
	DD	00H
CONST	ENDS
;	COMDAT ??_C@_0BN@KLLBCGDD@Ex_AddToggleGroup_DrawButton@
CONST	SEGMENT
??_C@_0BN@KLLBCGDD@Ex_AddToggleGroup_DrawButton@ DB 'Ex_AddToggleGroup_Dr'
	DB	'awButton', 00H				; `string'
CONST	ENDS
;	COMDAT ??_C@_0BI@HIINLFG@Ex_OnClicked_DrawButton@
CONST	SEGMENT
??_C@_0BI@HIINLFG@Ex_OnClicked_DrawButton@ DB 'Ex_OnClicked_DrawButton', 00H ; `string'
CONST	ENDS
;	COMDAT ??_C@_0BM@KGOCHHHE@Ex_ReleasePushed_DrawButton@
CONST	SEGMENT
??_C@_0BM@KGOCHHHE@Ex_ReleasePushed_DrawButton@ DB 'Ex_ReleasePushed_Draw'
	DB	'Button', 00H				; `string'
CONST	ENDS
;	COMDAT ??_C@_0BN@CANFOCIL@Ex_SetToggleState_DrawButton@
CONST	SEGMENT
??_C@_0BN@CANFOCIL@Ex_SetToggleState_DrawButton@ DB 'Ex_SetToggleState_Dr'
	DB	'awButton', 00H				; `string'
CONST	ENDS
;	COMDAT ??_C@_0BN@KABDCPCN@Ex_GetToggleState_DrawButton@
CONST	SEGMENT
??_C@_0BN@KABDCPCN@Ex_GetToggleState_DrawButton@ DB 'Ex_GetToggleState_Dr'
	DB	'awButton', 00H				; `string'
CONST	ENDS
;	COMDAT ??_C@_0BM@HBHBHJMC@Ex_UseToggleMode_DrawButton@
CONST	SEGMENT
??_C@_0BM@HBHBHJMC@Ex_UseToggleMode_DrawButton@ DB 'Ex_UseToggleMode_Draw'
	DB	'Button', 00H				; `string'
CONST	ENDS
;	COMDAT ??_C@_0BG@EAFAMFDC@Ex_GetText_DrawButton@
CONST	SEGMENT
??_C@_0BG@EAFAMFDC@Ex_GetText_DrawButton@ DB 'Ex_GetText_DrawButton', 00H ; `string'
CONST	ENDS
;	COMDAT ??_C@_0CA@IAIBPFKD@Ex_PreSubclassWindow_DrawButton@
CONST	SEGMENT
??_C@_0CA@IAIBPFKD@Ex_PreSubclassWindow_DrawButton@ DB 'Ex_PreSubclassWin'
	DB	'dow_DrawButton', 00H			; `string'
CONST	ENDS
;	COMDAT ??_C@_0BJ@LGMPMCJG@Ex_GetSkinNotifyFunction@
CONST	SEGMENT
??_C@_0BJ@LGMPMCJG@Ex_GetSkinNotifyFunction@ DB 'Ex_GetSkinNotifyFunction'
	DB	00H						; `string'
CONST	ENDS
;	COMDAT ??_C@_0L@CNADMACE@Ex_SetIcon@
CONST	SEGMENT
??_C@_0L@CNADMACE@Ex_SetIcon@ DB 'Ex_SetIcon', 00H	; `string'
CONST	ENDS
;	COMDAT ??_C@_0L@DJFMIDOF@Ex_SetText@
CONST	SEGMENT
??_C@_0L@DJFMIDOF@Ex_SetText@ DB 'Ex_SetText', 00H	; `string'
CONST	ENDS
;	COMDAT ??_C@_0BC@BNIJDNAL@Ex_DrawItemButton@
CONST	SEGMENT
??_C@_0BC@BNIJDNAL@Ex_DrawItemButton@ DB 'Ex_DrawItemButton', 00H ; `string'
CONST	ENDS
;	COMDAT ??_C@_0BB@CHEHMADH@Ex_SetDrawButton@
CONST	SEGMENT
??_C@_0BB@CHEHMADH@Ex_SetDrawButton@ DB 'Ex_SetDrawButton', 00H ; `string'
CONST	ENDS
;	COMDAT ??_C@_0O@HJMOOLG@Ex_ExitButton@
CONST	SEGMENT
??_C@_0O@HJMOOLG@Ex_ExitButton@ DB 'Ex_ExitButton', 00H	; `string'
CONST	ENDS
;	COMDAT ??_C@_0BD@LKOOKBPG@Ex_InitDrawButton2@
CONST	SEGMENT
??_C@_0BD@LKOOKBPG@Ex_InitDrawButton2@ DB 'Ex_InitDrawButton2', 00H ; `string'
CONST	ENDS
;	COMDAT ??_C@_0BC@PGEAKCHE@Ex_InitDrawButton@
CONST	SEGMENT
??_C@_0BC@PGEAKCHE@Ex_InitDrawButton@ DB 'Ex_InitDrawButton', 00H ; `string'
CONST	ENDS
;	COMDAT ??_C@_0BB@JBDOCKKP@Ex_ActionControl@
CONST	SEGMENT
??_C@_0BB@JBDOCKKP@Ex_ActionControl@ DB 'Ex_ActionControl', 00H ; `string'
CONST	ENDS
;	COMDAT ??_C@_05BMGBEOOC@?$CFs?2?$CFs@
CONST	SEGMENT
??_C@_05BMGBEOOC@?$CFs?2?$CFs@ DB '%s\%s', 00H		; `string'
CONST	ENDS
;	COMDAT ??_C@_0N@GEEODKHG@ExButton?4dll@
CONST	SEGMENT
??_C@_0N@GEEODKHG@ExButton?4dll@ DB 'ExButton.dll', 00H	; `string'
CONST	ENDS
;	COMDAT ??_7CLoaderDrawButton@@6B@
CONST	SEGMENT
??_7CLoaderDrawButton@@6B@ DD FLAT:??_R4CLoaderDrawButton@@6B@ ; CLoaderDrawButton::`vftable'
	DD	FLAT:?LoadProcAddress@CLoaderDrawButton@@UAEHXZ
CONST	ENDS
;	COMDAT ??_C@_04OHDBDCPJ@?2Dev@
CONST	SEGMENT
??_C@_04OHDBDCPJ@?2Dev@ DB '\Dev', 00H			; `string'
CONST	ENDS
;	COMDAT ??_C@_0CD@INEDAMEN@DLL?$FL?$CFs?$FN?$MA?$LL?5Load?G?R?5?$LM?v?5?$LO?x?$LN?$MA?$LE?O?$LE?Y?4?5?$FL@
CONST	SEGMENT
??_C@_0CD@INEDAMEN@DLL?$FL?$CFs?$FN?$MA?$LL?5Load?G?R?5?$LM?v?5?$LO?x?$LN?$MA?$LE?O?$LE?Y?4?5?$FL@ DB 'D'
	DB	'LL[%s]', 0c0H, 0bbH, ' Load', 0c7H, 0d2H, ' ', 0bcH, 0f6H, ' '
	DB	0beH, 0f8H, 0bdH, 0c0H, 0b4H, 0cfH, 0b4H, 0d9H, '. [%d]', 00H ; `string'
CONST	ENDS
;	COMDAT ??_7CExLoadLib@@6B@
CONST	SEGMENT
??_7CExLoadLib@@6B@ DD FLAT:??_R4CExLoadLib@@6B@	; CExLoadLib::`vftable'
	DD	FLAT:?LoadProcAddress@CExLoadLib@@UAEHXZ
CONST	ENDS
;	COMDAT ??_7CExDrawButton@@6B@
CONST	SEGMENT
??_7CExDrawButton@@6B@ DD FLAT:??_R4CExDrawButton@@6B@	; CExDrawButton::`vftable'
	DD	FLAT:?GetRuntimeClass@CButton@@UBEPAUCRuntimeClass@@XZ
	DD	FLAT:??_ECExDrawButton@@UAEPAXI@Z
	DD	FLAT:?Serialize@CObject@@UAEXAAVCArchive@@@Z
	DD	FLAT:?AssertValid@CObject@@UBEXXZ
	DD	FLAT:?Dump@CObject@@UBEXAAVCDumpContext@@@Z
	DD	FLAT:?OnCmdMsg@CCmdTarget@@UAEHIHPAXPAUAFX_CMDHANDLERINFO@@@Z
	DD	FLAT:?OnFinalRelease@CWnd@@UAEXXZ
	DD	FLAT:?IsInvokeAllowed@CCmdTarget@@UAEHJ@Z
	DD	FLAT:?GetDispatchIID@CCmdTarget@@UAEHPAU_GUID@@@Z
	DD	FLAT:?GetTypeInfoCount@CCmdTarget@@UAEIXZ
	DD	FLAT:?GetTypeLibCache@CCmdTarget@@UAEPAVCTypeLibCache@@XZ
	DD	FLAT:?GetTypeLib@CCmdTarget@@UAEJKPAPAUITypeLib@@@Z
	DD	FLAT:?GetMessageMap@CExDrawButton@@MBEPBUAFX_MSGMAP@@XZ
	DD	FLAT:?GetCommandMap@CCmdTarget@@MBEPBUAFX_OLECMDMAP@@XZ
	DD	FLAT:?GetDispatchMap@CCmdTarget@@MBEPBUAFX_DISPMAP@@XZ
	DD	FLAT:?GetConnectionMap@CCmdTarget@@MBEPBUAFX_CONNECTIONMAP@@XZ
	DD	FLAT:?GetInterfaceMap@CWnd@@MBEPBUAFX_INTERFACEMAP@@XZ
	DD	FLAT:?GetEventSinkMap@CCmdTarget@@MBEPBUAFX_EVENTSINKMAP@@XZ
	DD	FLAT:?OnCreateAggregates@CCmdTarget@@UAEHXZ
	DD	FLAT:?GetInterfaceHook@CCmdTarget@@UAEPAUIUnknown@@PBX@Z
	DD	FLAT:?GetExtraConnectionPoints@CCmdTarget@@MAEHPAVCPtrArray@@@Z
	DD	FLAT:?GetConnectionHook@CCmdTarget@@MAEPAUIConnectionPoint@@ABU_GUID@@@Z
	DD	FLAT:?PreSubclassWindow@CExDrawButton@@MAEXXZ
	DD	FLAT:?Create@CWnd@@UAEHPBD0KABUtagRECT@@PAV1@IPAUCCreateContext@@@Z
	DD	FLAT:?CreateEx@CWnd@@UAEHKPBD0KABUtagRECT@@PAV1@IPAX@Z
	DD	FLAT:?CreateEx@CWnd@@UAEHKPBD0KHHHHPAUHWND__@@PAUHMENU__@@PAX@Z
	DD	FLAT:?DestroyWindow@CWnd@@UAEHXZ
	DD	FLAT:?PreCreateWindow@CWnd@@UAEHAAUtagCREATESTRUCTA@@@Z
	DD	FLAT:?CalcWindowRect@CWnd@@UAEXPAUtagRECT@@I@Z
	DD	FLAT:?GetMenu@CWnd@@UBEPAVCMenu@@XZ
	DD	FLAT:?SetMenu@CWnd@@UAEHPAVCMenu@@@Z
	DD	FLAT:?OnToolHitTest@CWnd@@UBEHVCPoint@@PAUtagTOOLINFOA@@@Z
	DD	FLAT:?GetScrollBarCtrl@CWnd@@UBEPAVCScrollBar@@H@Z
	DD	FLAT:?WinHelpA@CWnd@@UAEXKI@Z
	DD	FLAT:?HtmlHelpA@CWnd@@UAEXKI@Z
	DD	FLAT:?WinHelpInternal@CWnd@@UAEXKI@Z
	DD	FLAT:?ContinueModal@CWnd@@UAEHXZ
	DD	FLAT:?EndModalLoop@CWnd@@UAEXH@Z
	DD	FLAT:?OnDrawIconicThumbnailOrLivePreview@CWnd@@UAEXAAVCDC@@VCRect@@VCSize@@HAAH@Z
	DD	FLAT:?EnsureStdObj@CWnd@@UAEJXZ
	DD	FLAT:?get_accParent@CWnd@@UAEJPAPAUIDispatch@@@Z
	DD	FLAT:?get_accChildCount@CWnd@@UAEJPAJ@Z
	DD	FLAT:?get_accChild@CWnd@@UAEJUtagVARIANT@@PAPAUIDispatch@@@Z
	DD	FLAT:?get_accName@CWnd@@UAEJUtagVARIANT@@PAPA_W@Z
	DD	FLAT:?get_accValue@CWnd@@UAEJUtagVARIANT@@PAPA_W@Z
	DD	FLAT:?get_accDescription@CWnd@@UAEJUtagVARIANT@@PAPA_W@Z
	DD	FLAT:?get_accRole@CWnd@@UAEJUtagVARIANT@@PAU2@@Z
	DD	FLAT:?get_accState@CWnd@@UAEJUtagVARIANT@@PAU2@@Z
	DD	FLAT:?get_accHelp@CWnd@@UAEJUtagVARIANT@@PAPA_W@Z
	DD	FLAT:?get_accHelpTopic@CWnd@@UAEJPAPA_WUtagVARIANT@@PAJ@Z
	DD	FLAT:?get_accKeyboardShortcut@CWnd@@UAEJUtagVARIANT@@PAPA_W@Z
	DD	FLAT:?get_accFocus@CWnd@@UAEJPAUtagVARIANT@@@Z
	DD	FLAT:?get_accSelection@CWnd@@UAEJPAUtagVARIANT@@@Z
	DD	FLAT:?get_accDefaultAction@CWnd@@UAEJUtagVARIANT@@PAPA_W@Z
	DD	FLAT:?accSelect@CWnd@@UAEJJUtagVARIANT@@@Z
	DD	FLAT:?accLocation@CWnd@@UAEJPAJ000UtagVARIANT@@@Z
	DD	FLAT:?accNavigate@CWnd@@UAEJJUtagVARIANT@@PAU2@@Z
	DD	FLAT:?accHitTest@CWnd@@UAEJJJPAUtagVARIANT@@@Z
	DD	FLAT:?accDoDefaultAction@CWnd@@UAEJUtagVARIANT@@@Z
	DD	FLAT:?put_accName@CWnd@@UAEJUtagVARIANT@@PA_W@Z
	DD	FLAT:?put_accValue@CWnd@@UAEJUtagVARIANT@@PA_W@Z
	DD	FLAT:?SetProxy@CWnd@@UAEJPAUIAccessibleProxy@@@Z
	DD	FLAT:?CreateAccessibleProxy@CWnd@@UAEJIJPAJ@Z
	DD	FLAT:?OnCommand@CWnd@@MAEHIJ@Z
	DD	FLAT:?OnNotify@CWnd@@MAEHIJPAJ@Z
	DD	FLAT:?GetSuperWndProcAddr@CWnd@@MAEPAP6GJPAUHWND__@@IIJ@ZXZ
	DD	FLAT:?DoDataExchange@CWnd@@MAEXPAVCDataExchange@@@Z
	DD	FLAT:?BeginModalState@CWnd@@UAEXXZ
	DD	FLAT:?EndModalState@CWnd@@UAEXXZ
	DD	FLAT:?PreTranslateMessage@CWnd@@UAEHPAUtagMSG@@@Z
	DD	FLAT:?OnAmbientProperty@CWnd@@UAEHPAVCOleControlSite@@JPAUtagVARIANT@@@Z
	DD	FLAT:?WindowProc@CWnd@@MAEJIIJ@Z
	DD	FLAT:?OnWndMsg@CWnd@@MAEHIIJPAJ@Z
	DD	FLAT:?DefWindowProcA@CWnd@@MAEJIIJ@Z
	DD	FLAT:?PostNcDestroy@CWnd@@MAEXXZ
	DD	FLAT:?OnChildNotify@CButton@@MAEHIIJPAJ@Z
	DD	FLAT:?OnTouchInputs@CWnd@@MAEHIPAUtagTOUCHINPUT@@@Z
	DD	FLAT:?OnTouchInput@CWnd@@MAEHVCPoint@@HHPAUtagTOUCHINPUT@@@Z
	DD	FLAT:?GetGestureStatus@CWnd@@MAEKVCPoint@@@Z
	DD	FLAT:?OnGestureZoom@CWnd@@MAEHVCPoint@@J@Z
	DD	FLAT:?OnGesturePan@CWnd@@MAEHVCPoint@@0@Z
	DD	FLAT:?OnGestureRotate@CWnd@@MAEHVCPoint@@N@Z
	DD	FLAT:?OnGestureTwoFingerTap@CWnd@@MAEHVCPoint@@@Z
	DD	FLAT:?OnGesturePressAndTap@CWnd@@MAEHVCPoint@@J@Z
	DD	FLAT:?ResizeDynamicLayout@CWnd@@MAEXXZ
	DD	FLAT:?CheckAutoCenter@CWnd@@UAEHXZ
	DD	FLAT:?IsFrameWnd@CWnd@@UBEHXZ
	DD	FLAT:?CreateControlContainer@CWnd@@MAEHPAPAVCOleControlContainer@@@Z
	DD	FLAT:?CreateControlSite@CWnd@@MAEHPAVCOleControlContainer@@PAPAVCOleControlSite@@IABU_GUID@@@Z
	DD	FLAT:?SetOccDialogInfo@CWnd@@MAEHPAU_AFX_OCC_DIALOG_INFO@@@Z
	DD	FLAT:?GetOccDialogInfo@CWnd@@MAEPAU_AFX_OCC_DIALOG_INFO@@XZ
	DD	FLAT:?Create@CButton@@UAEHPBDKABUtagRECT@@PAVCWnd@@I@Z
	DD	FLAT:?DrawItem@CExDrawButton@@UAEXPAUtagDRAWITEMSTRUCT@@@Z
	DD	FLAT:?UseToggleMode@CExDrawButton@@UAEXH@Z
	DD	FLAT:?GetToggleState@CExDrawButton@@UAEHXZ
	DD	FLAT:?SetToggleState@CExDrawButton@@UAEXH@Z
	DD	FLAT:?ReleasePushed@CExDrawButton@@UAEXXZ
CONST	ENDS
;	COMDAT ??_R1A@?0A@EA@CButton@@8
rdata$r	SEGMENT
??_R1A@?0A@EA@CButton@@8 DD FLAT:??_R0?AVCButton@@@8	; CButton::`RTTI Base Class Descriptor at (0,-1,0,64)'
	DD	03H
	DD	00H
	DD	0ffffffffH
	DD	00H
	DD	040H
	DD	FLAT:??_R3CButton@@8
rdata$r	ENDS
;	COMDAT ??_R2CButton@@8
rdata$r	SEGMENT
??_R2CButton@@8 DD FLAT:??_R1A@?0A@EA@CButton@@8	; CButton::`RTTI Base Class Array'
	DD	FLAT:??_R1A@?0A@EA@CWnd@@8
	DD	FLAT:??_R1A@?0A@EA@CCmdTarget@@8
	DD	FLAT:??_R1A@?0A@EA@CObject@@8
rdata$r	ENDS
;	COMDAT ??_R3CButton@@8
rdata$r	SEGMENT
??_R3CButton@@8 DD 00H					; CButton::`RTTI Class Hierarchy Descriptor'
	DD	00H
	DD	04H
	DD	FLAT:??_R2CButton@@8
rdata$r	ENDS
;	COMDAT ??_R0?AVCButton@@@8
data$rs	SEGMENT
??_R0?AVCButton@@@8 DD FLAT:??_7type_info@@6B@		; CButton `RTTI Type Descriptor'
	DD	00H
	DB	'.?AVCButton@@', 00H
data$rs	ENDS
;	COMDAT ??_R2CCmdTarget@@8
rdata$r	SEGMENT
??_R2CCmdTarget@@8 DD FLAT:??_R1A@?0A@EA@CCmdTarget@@8	; CCmdTarget::`RTTI Base Class Array'
	DD	FLAT:??_R1A@?0A@EA@CObject@@8
rdata$r	ENDS
;	COMDAT ??_R3CCmdTarget@@8
rdata$r	SEGMENT
??_R3CCmdTarget@@8 DD 00H				; CCmdTarget::`RTTI Class Hierarchy Descriptor'
	DD	00H
	DD	02H
	DD	FLAT:??_R2CCmdTarget@@8
rdata$r	ENDS
;	COMDAT ??_R0?AVCCmdTarget@@@8
data$rs	SEGMENT
??_R0?AVCCmdTarget@@@8 DD FLAT:??_7type_info@@6B@	; CCmdTarget `RTTI Type Descriptor'
	DD	00H
	DB	'.?AVCCmdTarget@@', 00H
data$rs	ENDS
;	COMDAT ??_R1A@?0A@EA@CCmdTarget@@8
rdata$r	SEGMENT
??_R1A@?0A@EA@CCmdTarget@@8 DD FLAT:??_R0?AVCCmdTarget@@@8 ; CCmdTarget::`RTTI Base Class Descriptor at (0,-1,0,64)'
	DD	01H
	DD	00H
	DD	0ffffffffH
	DD	00H
	DD	040H
	DD	FLAT:??_R3CCmdTarget@@8
rdata$r	ENDS
;	COMDAT ??_R2CWnd@@8
rdata$r	SEGMENT
??_R2CWnd@@8 DD	FLAT:??_R1A@?0A@EA@CWnd@@8		; CWnd::`RTTI Base Class Array'
	DD	FLAT:??_R1A@?0A@EA@CCmdTarget@@8
	DD	FLAT:??_R1A@?0A@EA@CObject@@8
rdata$r	ENDS
;	COMDAT ??_R3CWnd@@8
rdata$r	SEGMENT
??_R3CWnd@@8 DD	00H					; CWnd::`RTTI Class Hierarchy Descriptor'
	DD	00H
	DD	03H
	DD	FLAT:??_R2CWnd@@8
rdata$r	ENDS
;	COMDAT ??_R0?AVCWnd@@@8
data$rs	SEGMENT
??_R0?AVCWnd@@@8 DD FLAT:??_7type_info@@6B@		; CWnd `RTTI Type Descriptor'
	DD	00H
	DB	'.?AVCWnd@@', 00H
data$rs	ENDS
;	COMDAT ??_R1A@?0A@EA@CWnd@@8
rdata$r	SEGMENT
??_R1A@?0A@EA@CWnd@@8 DD FLAT:??_R0?AVCWnd@@@8		; CWnd::`RTTI Base Class Descriptor at (0,-1,0,64)'
	DD	02H
	DD	00H
	DD	0ffffffffH
	DD	00H
	DD	040H
	DD	FLAT:??_R3CWnd@@8
rdata$r	ENDS
;	COMDAT ??_R1A@?0A@EA@CObject@@8
rdata$r	SEGMENT
??_R1A@?0A@EA@CObject@@8 DD FLAT:??_R0?AVCObject@@@8	; CObject::`RTTI Base Class Descriptor at (0,-1,0,64)'
	DD	00H
	DD	00H
	DD	0ffffffffH
	DD	00H
	DD	040H
	DD	FLAT:??_R3CObject@@8
rdata$r	ENDS
;	COMDAT ??_R2CObject@@8
rdata$r	SEGMENT
??_R2CObject@@8 DD FLAT:??_R1A@?0A@EA@CObject@@8	; CObject::`RTTI Base Class Array'
rdata$r	ENDS
;	COMDAT ??_R3CObject@@8
rdata$r	SEGMENT
??_R3CObject@@8 DD 00H					; CObject::`RTTI Class Hierarchy Descriptor'
	DD	00H
	DD	01H
	DD	FLAT:??_R2CObject@@8
rdata$r	ENDS
;	COMDAT ??_R0?AVCObject@@@8
data$rs	SEGMENT
??_R0?AVCObject@@@8 DD FLAT:??_7type_info@@6B@		; CObject `RTTI Type Descriptor'
	DD	00H
	DB	'.?AVCObject@@', 00H
data$rs	ENDS
;	COMDAT ??_C@_00CNPNBAHC@@
CONST	SEGMENT
??_C@_00CNPNBAHC@@ DB 00H				; `string'
CONST	ENDS
;	COMDAT xdata$x
xdata$x	SEGMENT
__unwindtable$??_GCLoaderDrawButton@@QAEPAXI@Z DD 0ffffffffH
	DD	FLAT:___std_terminate
__ehfuncinfo$??_GCLoaderDrawButton@@QAEPAXI@Z DD 019930522H
	DD	01H
	DD	FLAT:__unwindtable$??_GCLoaderDrawButton@@QAEPAXI@Z
	DD	2 DUP(00H)
	DD	2 DUP(00H)
	DD	00H
	DD	05H
xdata$x	ENDS
;	COMDAT xdata$x
xdata$x	SEGMENT
__ehfuncinfo$??1CLoaderDrawButton@@QAE@XZ DD 019930522H
	DD	00H
	DD	00H
	DD	2 DUP(00H)
	DD	2 DUP(00H)
	DD	00H
	DD	05H
xdata$x	ENDS
;	COMDAT xdata$x
xdata$x	SEGMENT
__ehfuncinfo$??0CLoaderDrawButton@@QAE@PAXH@Z DD 019930522H
	DD	05H
	DD	FLAT:__unwindtable$??0CLoaderDrawButton@@QAE@PAXH@Z
	DD	2 DUP(00H)
	DD	2 DUP(00H)
	DD	00H
	DD	01H
__unwindtable$??0CLoaderDrawButton@@QAE@PAXH@Z DD 0ffffffffH
	DD	FLAT:__unwindfunclet$??0CLoaderDrawButton@@QAE@PAXH@Z$0
	DD	00H
	DD	FLAT:__unwindfunclet$??0CLoaderDrawButton@@QAE@PAXH@Z$1
	DD	01H
	DD	FLAT:__unwindfunclet$??0CLoaderDrawButton@@QAE@PAXH@Z$2
	DD	02H
	DD	FLAT:__unwindfunclet$??0CLoaderDrawButton@@QAE@PAXH@Z$3
	DD	02H
	DD	FLAT:__unwindfunclet$??0CLoaderDrawButton@@QAE@PAXH@Z$4
xdata$x	ENDS
;	COMDAT xdata$x
xdata$x	SEGMENT
__unwindtable$?GetDir_DrfnBin@@YAXAAV?$CStringT@DV?$StrTraitMFC_DLL@DV?$ChTraitsCRT@D@ATL@@@@@ATL@@@Z DD 0ffffffffH
	DD	FLAT:__unwindfunclet$?GetDir_DrfnBin@@YAXAAV?$CStringT@DV?$StrTraitMFC_DLL@DV?$ChTraitsCRT@D@ATL@@@@@ATL@@@Z$0
	DD	00H
	DD	FLAT:__unwindfunclet$?GetDir_DrfnBin@@YAXAAV?$CStringT@DV?$StrTraitMFC_DLL@DV?$ChTraitsCRT@D@ATL@@@@@ATL@@@Z$1
	DD	00H
	DD	FLAT:__unwindfunclet$?GetDir_DrfnBin@@YAXAAV?$CStringT@DV?$StrTraitMFC_DLL@DV?$ChTraitsCRT@D@ATL@@@@@ATL@@@Z$2
__ehfuncinfo$?GetDir_DrfnBin@@YAXAAV?$CStringT@DV?$StrTraitMFC_DLL@DV?$ChTraitsCRT@D@ATL@@@@@ATL@@@Z DD 019930522H
	DD	03H
	DD	FLAT:__unwindtable$?GetDir_DrfnBin@@YAXAAV?$CStringT@DV?$StrTraitMFC_DLL@DV?$ChTraitsCRT@D@ATL@@@@@ATL@@@Z
	DD	2 DUP(00H)
	DD	2 DUP(00H)
	DD	00H
	DD	01H
xdata$x	ENDS
;	COMDAT xdata$x
xdata$x	SEGMENT
__unwindtable$?GetDir_DrfnRoot@@YAXAAV?$CStringT@DV?$StrTraitMFC_DLL@DV?$ChTraitsCRT@D@ATL@@@@@ATL@@@Z DD 0ffffffffH
	DD	FLAT:__unwindfunclet$?GetDir_DrfnRoot@@YAXAAV?$CStringT@DV?$StrTraitMFC_DLL@DV?$ChTraitsCRT@D@ATL@@@@@ATL@@@Z$0
	DD	00H
	DD	FLAT:__unwindfunclet$?GetDir_DrfnRoot@@YAXAAV?$CStringT@DV?$StrTraitMFC_DLL@DV?$ChTraitsCRT@D@ATL@@@@@ATL@@@Z$1
	DD	00H
	DD	FLAT:__unwindfunclet$?GetDir_DrfnRoot@@YAXAAV?$CStringT@DV?$StrTraitMFC_DLL@DV?$ChTraitsCRT@D@ATL@@@@@ATL@@@Z$2
__ehfuncinfo$?GetDir_DrfnRoot@@YAXAAV?$CStringT@DV?$StrTraitMFC_DLL@DV?$ChTraitsCRT@D@ATL@@@@@ATL@@@Z DD 019930522H
	DD	03H
	DD	FLAT:__unwindtable$?GetDir_DrfnRoot@@YAXAAV?$CStringT@DV?$StrTraitMFC_DLL@DV?$ChTraitsCRT@D@ATL@@@@@ATL@@@Z
	DD	2 DUP(00H)
	DD	2 DUP(00H)
	DD	00H
	DD	01H
xdata$x	ENDS
;	COMDAT xdata$x
xdata$x	SEGMENT
__unwindtable$??_GCExDrawButton@@UAEPAXI@Z DD 0ffffffffH
	DD	FLAT:___std_terminate
__ehfuncinfo$??_GCExDrawButton@@UAEPAXI@Z DD 019930522H
	DD	01H
	DD	FLAT:__unwindtable$??_GCExDrawButton@@UAEPAXI@Z
	DD	2 DUP(00H)
	DD	2 DUP(00H)
	DD	00H
	DD	05H
xdata$x	ENDS
;	COMDAT xdata$x
xdata$x	SEGMENT
__unwindtable$??1CExDrawButton@@UAE@XZ DD 0ffffffffH
	DD	FLAT:___std_terminate
__ehfuncinfo$??1CExDrawButton@@UAE@XZ DD 019930522H
	DD	01H
	DD	FLAT:__unwindtable$??1CExDrawButton@@UAE@XZ
	DD	2 DUP(00H)
	DD	2 DUP(00H)
	DD	00H
	DD	05H
xdata$x	ENDS
;	COMDAT xdata$x
xdata$x	SEGMENT
__unwindtable$??0CExDrawButton@@QAE@H@Z DD 0ffffffffH
	DD	FLAT:__unwindfunclet$??0CExDrawButton@@QAE@H@Z$0
	DD	00H
	DD	FLAT:__unwindfunclet$??0CExDrawButton@@QAE@H@Z$1
__ehfuncinfo$??0CExDrawButton@@QAE@H@Z DD 019930522H
	DD	02H
	DD	FLAT:__unwindtable$??0CExDrawButton@@QAE@H@Z
	DD	2 DUP(00H)
	DD	2 DUP(00H)
	DD	00H
	DD	01H
xdata$x	ENDS
CRT$XCU	SEGMENT
?RMSG_GETPCTRDATA$initializer$@@3P6AXXZA DD FLAT:??__ERMSG_GETPCTRDATA@@YAXXZ ; RMSG_GETPCTRDATA$initializer$
CRT$XCU	ENDS
CRT$XCU	SEGMENT
?RMSG_SETPCTRDATA$initializer$@@3P6AXXZA DD FLAT:??__ERMSG_SETPCTRDATA@@YAXXZ ; RMSG_SETPCTRDATA$initializer$
CRT$XCU	ENDS
; Function compile flags: /Ogtp
; File D:\git\src\IBK\IBK_DRFN\ProjSrc\SrcDrfn\Chart\ExControl\Include\LoadHelper.h
;	COMDAT ?LoadProcAddress@CLoaderDrawButton@@UAEHXZ
_TEXT	SEGMENT
?LoadProcAddress@CLoaderDrawButton@@UAEHXZ PROC		; CLoaderDrawButton::LoadProcAddress, COMDAT
; _this$ = ecx

; 82   : 	{

  00000	57		 push	 edi
  00001	8b f9		 mov	 edi, ecx

; 83   : 		if(!m_hLib)

  00003	8b 47 04	 mov	 eax, DWORD PTR [edi+4]
  00006	85 c0		 test	 eax, eax
  00008	75 02		 jne	 SHORT $LN2@LoadProcAd
  0000a	5f		 pop	 edi

; 101  : 	}

  0000b	c3		 ret	 0
$LN2@LoadProcAd:
  0000c	56		 push	 esi

; 84   : 		{
; 85   : 			TRACE0("CLoaderDrawButton GetProcAddress에서 Load에러 발생");
; 86   : 			return FALSE;
; 87   : 		}
; 88   : 
; 89   : 		pActionControl	= (FpActionControl)::GetProcAddress(m_hLib, "Ex_ActionControl");

  0000d	8b 35 00 00 00
	00		 mov	 esi, DWORD PTR __imp__GetProcAddress@8
  00013	68 00 00 00 00	 push	 OFFSET ??_C@_0BB@JBDOCKKP@Ex_ActionControl@
  00018	50		 push	 eax
  00019	ff d6		 call	 esi

; 90   : 		pInitDrawButton	= (FpInitDrawButton)::GetProcAddress(m_hLib, "Ex_InitDrawButton");

  0001b	68 00 00 00 00	 push	 OFFSET ??_C@_0BC@PGEAKCHE@Ex_InitDrawButton@
  00020	ff 77 04	 push	 DWORD PTR [edi+4]
  00023	89 87 10 01 00
	00		 mov	 DWORD PTR [edi+272], eax
  00029	ff d6		 call	 esi

; 91   : 		pInitDrawButton2	= (FpInitDrawButton2)::GetProcAddress(m_hLib, "Ex_InitDrawButton2");

  0002b	68 00 00 00 00	 push	 OFFSET ??_C@_0BD@LKOOKBPG@Ex_InitDrawButton2@
  00030	ff 77 04	 push	 DWORD PTR [edi+4]
  00033	89 87 14 01 00
	00		 mov	 DWORD PTR [edi+276], eax
  00039	ff d6		 call	 esi

; 92   : 		pExitButton	= (FpExitButton)::GetProcAddress(m_hLib, "Ex_ExitButton");

  0003b	68 00 00 00 00	 push	 OFFSET ??_C@_0O@HJMOOLG@Ex_ExitButton@
  00040	ff 77 04	 push	 DWORD PTR [edi+4]
  00043	89 87 18 01 00
	00		 mov	 DWORD PTR [edi+280], eax
  00049	ff d6		 call	 esi

; 93   : 		pSetDrawButton		= (FpSetDrawButton)::GetProcAddress(m_hLib, "Ex_SetDrawButton");

  0004b	68 00 00 00 00	 push	 OFFSET ??_C@_0BB@CHEHMADH@Ex_SetDrawButton@
  00050	ff 77 04	 push	 DWORD PTR [edi+4]
  00053	89 87 1c 01 00
	00		 mov	 DWORD PTR [edi+284], eax
  00059	ff d6		 call	 esi

; 94   : 		pDrawItemButton		= (FpDrawItemButton)::GetProcAddress(m_hLib, "Ex_DrawItemButton");

  0005b	68 00 00 00 00	 push	 OFFSET ??_C@_0BC@BNIJDNAL@Ex_DrawItemButton@
  00060	ff 77 04	 push	 DWORD PTR [edi+4]
  00063	89 87 20 01 00
	00		 mov	 DWORD PTR [edi+288], eax
  00069	ff d6		 call	 esi

; 95   : 		pSetText		= (FpSetText)::GetProcAddress(m_hLib, "Ex_SetText");

  0006b	68 00 00 00 00	 push	 OFFSET ??_C@_0L@DJFMIDOF@Ex_SetText@
  00070	ff 77 04	 push	 DWORD PTR [edi+4]
  00073	89 87 24 01 00
	00		 mov	 DWORD PTR [edi+292], eax
  00079	ff d6		 call	 esi

; 96   : 		pSetIconImage		= (FpSetIconImage)::GetProcAddress(m_hLib, "Ex_SetIcon");

  0007b	68 00 00 00 00	 push	 OFFSET ??_C@_0L@CNADMACE@Ex_SetIcon@
  00080	ff 77 04	 push	 DWORD PTR [edi+4]
  00083	89 87 28 01 00
	00		 mov	 DWORD PTR [edi+296], eax
  00089	ff d6		 call	 esi

; 97   : 		pGetSkinNotifyFunction		= (FpGetSkinNotifyFunction)::GetProcAddress(m_hLib, "Ex_GetSkinNotifyFunction");

  0008b	68 00 00 00 00	 push	 OFFSET ??_C@_0BJ@LGMPMCJG@Ex_GetSkinNotifyFunction@
  00090	ff 77 04	 push	 DWORD PTR [edi+4]
  00093	89 87 2c 01 00
	00		 mov	 DWORD PTR [edi+300], eax
  00099	ff d6		 call	 esi

; 98   : 		pPreSubclassWindow_DrawButton		= (FpPreSubclassWindow_DrawButton)::GetProcAddress(m_hLib, "Ex_PreSubclassWindow_DrawButton");

  0009b	68 00 00 00 00	 push	 OFFSET ??_C@_0CA@IAIBPFKD@Ex_PreSubclassWindow_DrawButton@
  000a0	ff 77 04	 push	 DWORD PTR [edi+4]
  000a3	89 87 30 01 00
	00		 mov	 DWORD PTR [edi+304], eax
  000a9	ff d6		 call	 esi

; 99   : 		pGetText		= (FpGetText_Button)::GetProcAddress(m_hLib, "Ex_GetText_DrawButton");

  000ab	68 00 00 00 00	 push	 OFFSET ??_C@_0BG@EAFAMFDC@Ex_GetText_DrawButton@
  000b0	ff 77 04	 push	 DWORD PTR [edi+4]
  000b3	89 87 34 01 00
	00		 mov	 DWORD PTR [edi+308], eax
  000b9	ff d6		 call	 esi
  000bb	89 87 38 01 00
	00		 mov	 DWORD PTR [edi+312], eax

; 100  : 		return TRUE;

  000c1	b8 01 00 00 00	 mov	 eax, 1
  000c6	5e		 pop	 esi
  000c7	5f		 pop	 edi

; 101  : 	}

  000c8	c3		 ret	 0
?LoadProcAddress@CLoaderDrawButton@@UAEHXZ ENDP		; CLoaderDrawButton::LoadProcAddress
_TEXT	ENDS
; Function compile flags: /Ogtp
; File D:\git\src\IBK\IBK_DRFN\ProjSrc\SrcDrfn\Chart\ExControl\Include\LoadHelper.h
; File D:\git\src\IBK\IBK_DRFN\ProjSrc\SrcDrfn\Chart\ExControl\Include\BaseLoadHelper.h
; File D:\git\src\IBK\IBK_DRFN\ProjSrc\SrcDrfn\Chart\ExControl\Include\LoadHelper.h
; File D:\git\src\IBK\IBK_DRFN\ProjSrc\SrcDrfn\ForSite\FS_Env.h
; File D:\git\src\IBK\IBK_DRFN\ProjSrc\SrcDrfn\Chart\ExControl\Include\LoadHelper.h
; File D:\git\src\IBK\IBK_DRFN\ProjSrc\SrcDrfn\Chart\ExControl\Include\BaseLoadHelper.h
; File D:\git\src\IBK\IBK_DRFN\ProjSrc\SrcDrfn\Chart\ExControl\Include\LoadHelper.h
; File D:\git\src\IBK\IBK_DRFN\ProjSrc\SrcDrfn\Chart\ExControl\Include\BaseLoadHelper.h
; File D:\git\src\IBK\IBK_DRFN\ProjSrc\SrcDrfn\Chart\ExControl\Include\LoadHelper.h
;	COMDAT ??0CLoaderDrawButton@@QAE@PAXH@Z
_TEXT	SEGMENT
_this$GSCopy$ = -296					; size = 4
_lpPointer$GSCopy$1$ = -292				; size = 4
_szDir$ = -288						; size = 4
_hLib$1$ = -284						; size = 4
$T2 = -284						; size = 4
$T3 = -284						; size = 4
_this$ = -284						; size = 4
_err$1$ = -280						; size = 4
__strRoot_$4 = -280					; size = 4
_szMsg$5 = -276						; size = 260
_szBuf$6 = -272						; size = 255
__$ArrayPad$7 = -16					; size = 4
__$EHRec$ = -12						; size = 12
_lpPointer$ = 8						; size = 4
_bUseDefSkin$ = 12					; size = 4
??0CLoaderDrawButton@@QAE@PAXH@Z PROC			; CLoaderDrawButton::CLoaderDrawButton, COMDAT
; _this$ = ecx

; 31   : 	CLoaderDrawButton(LPVOID lpPointer, BOOL bUseDefSkin) 

  00000	55		 push	 ebp
  00001	8b ec		 mov	 ebp, esp
  00003	6a ff		 push	 -1
  00005	68 00 00 00 00	 push	 __ehhandler$??0CLoaderDrawButton@@QAE@PAXH@Z
  0000a	64 a1 00 00 00
	00		 mov	 eax, DWORD PTR fs:0
  00010	50		 push	 eax
  00011	81 ec 1c 01 00
	00		 sub	 esp, 284		; 0000011cH
  00017	a1 00 00 00 00	 mov	 eax, DWORD PTR ___security_cookie
  0001c	33 c5		 xor	 eax, ebp
  0001e	89 45 f0	 mov	 DWORD PTR __$ArrayPad$7[ebp], eax
  00021	53		 push	 ebx
  00022	56		 push	 esi
  00023	57		 push	 edi
  00024	50		 push	 eax
  00025	8d 45 f4	 lea	 eax, DWORD PTR __$EHRec$[ebp]
  00028	64 a3 00 00 00
	00		 mov	 DWORD PTR fs:0, eax
  0002e	8b f1		 mov	 esi, ecx
  00030	89 b5 e4 fe ff
	ff		 mov	 DWORD PTR _this$[ebp], esi
  00036	8b 45 08	 mov	 eax, DWORD PTR _lpPointer$[ebp]
  00039	8b 5d 0c	 mov	 ebx, DWORD PTR _bUseDefSkin$[ebp]
  0003c	89 b5 d8 fe ff
	ff		 mov	 DWORD PTR _this$GSCopy$[ebp], esi
  00042	89 85 dc fe ff
	ff		 mov	 DWORD PTR _lpPointer$GSCopy$1$[ebp], eax
; File D:\git\src\IBK\IBK_DRFN\ProjSrc\SrcDrfn\Chart\ExControl\Include\BaseLoadHelper.h

; 9    : 		m_hLib = NULL;

  00048	c7 46 04 00 00
	00 00		 mov	 DWORD PTR [esi+4], 0
; File D:\git\src\IBK\IBK_DRFN\ProjSrc\SrcDrfn\Chart\ExControl\Include\LoadHelper.h

; 42   : 		CString szDir;

  0004f	8d 8d e0 fe ff
	ff		 lea	 ecx, DWORD PTR _szDir$[ebp]
  00055	c7 45 fc 00 00
	00 00		 mov	 DWORD PTR __$EHRec$[ebp+8], 0
  0005c	c7 06 00 00 00
	00		 mov	 DWORD PTR [esi], OFFSET ??_7CLoaderDrawButton@@6B@
  00062	ff 15 00 00 00
	00		 call	 DWORD PTR __imp_??0?$CStringT@DV?$StrTraitMFC_DLL@DV?$ChTraitsCRT@D@ATL@@@@@ATL@@QAE@XZ
; File D:\git\src\IBK\IBK_DRFN\ProjSrc\SrcDrfn\ForSite\FS_Env.h

; 22   : 	CString	_strRoot_;

  00068	8d 8d e8 fe ff
	ff		 lea	 ecx, DWORD PTR __strRoot_$4[ebp]
  0006e	ff 15 00 00 00
	00		 call	 DWORD PTR __imp_??0?$CStringT@DV?$StrTraitMFC_DLL@DV?$ChTraitsCRT@D@ATL@@@@@ATL@@QAE@XZ

; 15   : 	::GetModuleFileName(NULL, szBuf, 255);

  00074	68 ff 00 00 00	 push	 255			; 000000ffH
  00079	8d 85 f0 fe ff
	ff		 lea	 eax, DWORD PTR _szBuf$6[ebp]

; 22   : 	CString	_strRoot_;

  0007f	c6 45 fc 02	 mov	 BYTE PTR __$EHRec$[ebp+8], 2

; 15   : 	::GetModuleFileName(NULL, szBuf, 255);

  00083	50		 push	 eax
  00084	6a 00		 push	 0
  00086	ff 15 00 00 00
	00		 call	 DWORD PTR __imp__GetModuleFileNameA@12

; 16   : 	rString = szBuf;

  0008c	8d 85 f0 fe ff
	ff		 lea	 eax, DWORD PTR _szBuf$6[ebp]
  00092	50		 push	 eax
  00093	8d 8d e8 fe ff
	ff		 lea	 ecx, DWORD PTR __strRoot_$4[ebp]
  00099	ff 15 00 00 00
	00		 call	 DWORD PTR __imp_??4?$CStringT@DV?$StrTraitMFC_DLL@DV?$ChTraitsCRT@D@ATL@@@@@ATL@@QAEAAV01@PBD@Z

; 25   : 	int _loc_ = _strRoot_.ReverseFind('\\');

  0009f	6a 5c		 push	 92			; 0000005cH
  000a1	8d 8d e8 fe ff
	ff		 lea	 ecx, DWORD PTR __strRoot_$4[ebp]
  000a7	ff 15 00 00 00
	00		 call	 DWORD PTR __imp_?ReverseFind@?$CStringT@DV?$StrTraitMFC_DLL@DV?$ChTraitsCRT@D@ATL@@@@@ATL@@QBEHD@Z

; 26   : 	if( _loc_ > 0)

  000ad	85 c0		 test	 eax, eax
  000af	7e 35		 jle	 SHORT $LN12@CLoaderDra

; 27   : 		_strRoot_ = _strRoot_.Left(_loc_);

  000b1	50		 push	 eax
  000b2	8d 85 e4 fe ff
	ff		 lea	 eax, DWORD PTR $T3[ebp]
  000b8	50		 push	 eax
  000b9	8d 8d e8 fe ff
	ff		 lea	 ecx, DWORD PTR __strRoot_$4[ebp]
  000bf	ff 15 00 00 00
	00		 call	 DWORD PTR __imp_?Left@?$CStringT@DV?$StrTraitMFC_DLL@DV?$ChTraitsCRT@D@ATL@@@@@ATL@@QBE?AV12@H@Z
  000c5	50		 push	 eax
  000c6	8d 8d e8 fe ff
	ff		 lea	 ecx, DWORD PTR __strRoot_$4[ebp]
  000cc	c6 45 fc 03	 mov	 BYTE PTR __$EHRec$[ebp+8], 3
  000d0	ff 15 00 00 00
	00		 call	 DWORD PTR __imp_??4?$CStringT@DV?$StrTraitMFC_DLL@DV?$ChTraitsCRT@D@ATL@@@@@ATL@@QAEAAV01@ABV01@@Z
  000d6	8d 8d e4 fe ff
	ff		 lea	 ecx, DWORD PTR $T3[ebp]
  000dc	c6 45 fc 02	 mov	 BYTE PTR __$EHRec$[ebp+8], 2
  000e0	ff 15 00 00 00
	00		 call	 DWORD PTR __imp_??1?$CStringT@DV?$StrTraitMFC_DLL@DV?$ChTraitsCRT@D@ATL@@@@@ATL@@QAE@XZ
$LN12@CLoaderDra:

; 28   : 	_loc_ = _strRoot_.ReverseFind('\\');

  000e6	6a 5c		 push	 92			; 0000005cH
  000e8	8d 8d e8 fe ff
	ff		 lea	 ecx, DWORD PTR __strRoot_$4[ebp]
  000ee	ff 15 00 00 00
	00		 call	 DWORD PTR __imp_?ReverseFind@?$CStringT@DV?$StrTraitMFC_DLL@DV?$ChTraitsCRT@D@ATL@@@@@ATL@@QBEHD@Z

; 29   : 	if( _loc_ > 0)

  000f4	85 c0		 test	 eax, eax
  000f6	7e 35		 jle	 SHORT $LN13@CLoaderDra

; 30   : 		_strRoot_ = _strRoot_.Left(_loc_);

  000f8	50		 push	 eax
  000f9	8d 85 e4 fe ff
	ff		 lea	 eax, DWORD PTR $T2[ebp]
  000ff	50		 push	 eax
  00100	8d 8d e8 fe ff
	ff		 lea	 ecx, DWORD PTR __strRoot_$4[ebp]
  00106	ff 15 00 00 00
	00		 call	 DWORD PTR __imp_?Left@?$CStringT@DV?$StrTraitMFC_DLL@DV?$ChTraitsCRT@D@ATL@@@@@ATL@@QBE?AV12@H@Z
  0010c	50		 push	 eax
  0010d	8d 8d e8 fe ff
	ff		 lea	 ecx, DWORD PTR __strRoot_$4[ebp]
  00113	c6 45 fc 04	 mov	 BYTE PTR __$EHRec$[ebp+8], 4
  00117	ff 15 00 00 00
	00		 call	 DWORD PTR __imp_??4?$CStringT@DV?$StrTraitMFC_DLL@DV?$ChTraitsCRT@D@ATL@@@@@ATL@@QAEAAV01@ABV01@@Z
  0011d	8d 8d e4 fe ff
	ff		 lea	 ecx, DWORD PTR $T2[ebp]
  00123	c6 45 fc 02	 mov	 BYTE PTR __$EHRec$[ebp+8], 2
  00127	ff 15 00 00 00
	00		 call	 DWORD PTR __imp_??1?$CStringT@DV?$StrTraitMFC_DLL@DV?$ChTraitsCRT@D@ATL@@@@@ATL@@QAE@XZ
$LN13@CLoaderDra:

; 31   : 	rString = _strRoot_;

  0012d	8d 85 e8 fe ff
	ff		 lea	 eax, DWORD PTR __strRoot_$4[ebp]
  00133	50		 push	 eax
  00134	8d 8d e0 fe ff
	ff		 lea	 ecx, DWORD PTR _szDir$[ebp]
  0013a	ff 15 00 00 00
	00		 call	 DWORD PTR __imp_??4?$CStringT@DV?$StrTraitMFC_DLL@DV?$ChTraitsCRT@D@ATL@@@@@ATL@@QAEAAV01@ABV01@@Z

; 32   : }

  00140	8d 8d e8 fe ff
	ff		 lea	 ecx, DWORD PTR __strRoot_$4[ebp]
  00146	c6 45 fc 01	 mov	 BYTE PTR __$EHRec$[ebp+8], 1
  0014a	ff 15 00 00 00
	00		 call	 DWORD PTR __imp_??1?$CStringT@DV?$StrTraitMFC_DLL@DV?$ChTraitsCRT@D@ATL@@@@@ATL@@QAE@XZ

; 47   : 	rString += "\\Dev";

  00150	68 00 00 00 00	 push	 OFFSET ??_C@_04OHDBDCPJ@?2Dev@
  00155	8d 8d e0 fe ff
	ff		 lea	 ecx, DWORD PTR _szDir$[ebp]
  0015b	ff 15 00 00 00
	00		 call	 DWORD PTR __imp_??Y?$CStringT@DV?$StrTraitMFC_DLL@DV?$ChTraitsCRT@D@ATL@@@@@ATL@@QAEAAV01@PBD@Z
; File D:\git\src\IBK\IBK_DRFN\ProjSrc\SrcDrfn\Chart\ExControl\Include\LoadHelper.h

; 44   : 		::sprintf(m_szDllName, "%s\\%s", (LPCSTR)szDir, BUTTON_DLL);

  00161	68 00 00 00 00	 push	 OFFSET ??_C@_0N@GEEODKHG@ExButton?4dll@
  00166	ff b5 e0 fe ff
	ff		 push	 DWORD PTR _szDir$[ebp]
  0016c	8d 7e 08	 lea	 edi, DWORD PTR [esi+8]
  0016f	68 00 00 00 00	 push	 OFFSET ??_C@_05BMGBEOOC@?$CFs?2?$CFs@
  00174	57		 push	 edi
  00175	e8 00 00 00 00	 call	 _sprintf
  0017a	83 c4 10	 add	 esp, 16			; 00000010H

; 45   : 		//<--Solomon-090829수정.
; 46   : 
; 47   : 		pActionControl = NULL;

  0017d	c7 86 10 01 00
	00 00 00 00 00	 mov	 DWORD PTR [esi+272], 0

; 48   : 		pInitDrawButton = NULL;

  00187	c7 86 14 01 00
	00 00 00 00 00	 mov	 DWORD PTR [esi+276], 0

; 49   : 		pInitDrawButton2 = NULL;

  00191	c7 86 18 01 00
	00 00 00 00 00	 mov	 DWORD PTR [esi+280], 0

; 50   : 		pExitButton = NULL;

  0019b	c7 86 1c 01 00
	00 00 00 00 00	 mov	 DWORD PTR [esi+284], 0
; File D:\git\src\IBK\IBK_DRFN\ProjSrc\SrcDrfn\Chart\ExControl\Include\BaseLoadHelper.h

; 26   : 		hLib = ::LoadLibrary(m_szDllName);

  001a5	57		 push	 edi
; File D:\git\src\IBK\IBK_DRFN\ProjSrc\SrcDrfn\Chart\ExControl\Include\LoadHelper.h

; 51   : 		pSetDrawButton = NULL;

  001a6	c7 86 20 01 00
	00 00 00 00 00	 mov	 DWORD PTR [esi+288], 0

; 52   : 		pDrawItemButton = NULL;

  001b0	c7 86 24 01 00
	00 00 00 00 00	 mov	 DWORD PTR [esi+292], 0

; 53   : 		pSetText = NULL;

  001ba	c7 86 28 01 00
	00 00 00 00 00	 mov	 DWORD PTR [esi+296], 0

; 54   : 		pSetIconImage = NULL;

  001c4	c7 86 2c 01 00
	00 00 00 00 00	 mov	 DWORD PTR [esi+300], 0

; 55   : 		pGetSkinNotifyFunction = NULL;

  001ce	c7 86 30 01 00
	00 00 00 00 00	 mov	 DWORD PTR [esi+304], 0

; 56   : 		pPreSubclassWindow_DrawButton = NULL;

  001d8	c7 86 34 01 00
	00 00 00 00 00	 mov	 DWORD PTR [esi+308], 0

; 57   : 		pGetText = NULL;

  001e2	c7 86 38 01 00
	00 00 00 00 00	 mov	 DWORD PTR [esi+312], 0

; 58   : 
; 59   : 		pUseToggleMode_DrawButton = NULL;

  001ec	c7 86 3c 01 00
	00 00 00 00 00	 mov	 DWORD PTR [esi+316], 0

; 60   : 		pGetToggleState_DrawButton = NULL;

  001f6	c7 86 40 01 00
	00 00 00 00 00	 mov	 DWORD PTR [esi+320], 0

; 61   : 		pSetToggleState_DrawButton = NULL;

  00200	c7 86 44 01 00
	00 00 00 00 00	 mov	 DWORD PTR [esi+324], 0

; 62   : 		pReleasePushed_DrawButton = NULL;

  0020a	c7 86 48 01 00
	00 00 00 00 00	 mov	 DWORD PTR [esi+328], 0

; 63   : 		pOnClicked_DrawButton = NULL;

  00214	c7 86 4c 01 00
	00 00 00 00 00	 mov	 DWORD PTR [esi+332], 0

; 64   : 
; 65   : 		pAddToggleGroup_DrawButton = NULL;

  0021e	c7 86 50 01 00
	00 00 00 00 00	 mov	 DWORD PTR [esi+336], 0
; File D:\git\src\IBK\IBK_DRFN\ProjSrc\SrcDrfn\Chart\ExControl\Include\BaseLoadHelper.h

; 26   : 		hLib = ::LoadLibrary(m_szDllName);

  00228	ff 15 00 00 00
	00		 call	 DWORD PTR __imp__LoadLibraryA@4
  0022e	89 85 e4 fe ff
	ff		 mov	 DWORD PTR _hLib$1$[ebp], eax

; 27   : 
; 28   : 		DWORD err = GetLastError();

  00234	ff 15 00 00 00
	00		 call	 DWORD PTR __imp__GetLastError@0
  0023a	89 85 e8 fe ff
	ff		 mov	 DWORD PTR _err$1$[ebp], eax

; 29   : 
; 30   : 		if(!hLib) 

  00240	8b 85 e4 fe ff
	ff		 mov	 eax, DWORD PTR _hLib$1$[ebp]
  00246	85 c0		 test	 eax, eax
  00248	75 3f		 jne	 SHORT $LN23@CLoaderDra

; 31   : 		{
; 32   : 			char szMsg[MAX_PATH] = {0, };

  0024a	68 04 01 00 00	 push	 260			; 00000104H
  0024f	50		 push	 eax
  00250	8d 85 ec fe ff
	ff		 lea	 eax, DWORD PTR _szMsg$5[ebp]
  00256	50		 push	 eax
  00257	e8 00 00 00 00	 call	 _memset

; 33   : 			::sprintf(szMsg, "DLL[%s]을 Load할 수 없습니다. [%d]", m_szDllName, err);

  0025c	ff b5 e8 fe ff
	ff		 push	 DWORD PTR _err$1$[ebp]
  00262	8d 85 ec fe ff
	ff		 lea	 eax, DWORD PTR _szMsg$5[ebp]
  00268	57		 push	 edi
  00269	68 00 00 00 00	 push	 OFFSET ??_C@_0CD@INEDAMEN@DLL?$FL?$CFs?$FN?$MA?$LL?5Load?G?R?5?$LM?v?5?$LO?x?$LN?$MA?$LE?O?$LE?Y?4?5?$FL@
  0026e	50		 push	 eax
  0026f	e8 00 00 00 00	 call	 _sprintf
  00274	83 c4 1c	 add	 esp, 28			; 0000001cH

; 34   : 			AfxMessageBox(szMsg);

  00277	8d 85 ec fe ff
	ff		 lea	 eax, DWORD PTR _szMsg$5[ebp]
  0027d	6a 00		 push	 0
  0027f	6a 00		 push	 0
  00281	50		 push	 eax
  00282	e8 00 00 00 00	 call	 ?AfxMessageBox@@YGHPBDII@Z ; AfxMessageBox

; 35   : 
; 36   : 			return NULL;

  00287	eb 32		 jmp	 SHORT $LN28@CLoaderDra
$LN23@CLoaderDra:

; 37   : 		}
; 38   : 
; 39   : 		m_hLib = hLib;

  00289	89 46 04	 mov	 DWORD PTR [esi+4], eax

; 40   : 
; 41   : 		if(!LoadProcAddress()) 

  0028c	8b ce		 mov	 ecx, esi
  0028e	8b 06		 mov	 eax, DWORD PTR [esi]
  00290	8b 00		 mov	 eax, DWORD PTR [eax]
  00292	3d 00 00 00 00	 cmp	 eax, OFFSET ?LoadProcAddress@CLoaderDrawButton@@UAEHXZ ; CLoaderDrawButton::LoadProcAddress
  00297	75 07		 jne	 SHORT $LN27@CLoaderDra
  00299	e8 00 00 00 00	 call	 ?LoadProcAddress@CLoaderDrawButton@@UAEHXZ ; CLoaderDrawButton::LoadProcAddress
  0029e	eb 02		 jmp	 SHORT $LN26@CLoaderDra
$LN27@CLoaderDra:
  002a0	ff d0		 call	 eax
$LN26@CLoaderDra:
  002a2	85 c0		 test	 eax, eax
  002a4	75 15		 jne	 SHORT $LN28@CLoaderDra

; 53   : 		if(!m_hLib)

  002a6	8b 46 04	 mov	 eax, DWORD PTR [esi+4]
  002a9	85 c0		 test	 eax, eax
  002ab	74 0e		 je	 SHORT $LN28@CLoaderDra

; 54   : 			return TRUE;
; 55   : 
; 56   : 		BOOL bResult = ::FreeLibrary(m_hLib);

  002ad	50		 push	 eax
  002ae	ff 15 00 00 00
	00		 call	 DWORD PTR __imp__FreeLibrary@4

; 57   : 		
; 58   : 		m_hLib = NULL;

  002b4	c7 46 04 00 00
	00 00		 mov	 DWORD PTR [esi+4], 0
$LN28@CLoaderDra:
; File D:\git\src\IBK\IBK_DRFN\ProjSrc\SrcDrfn\Chart\ExControl\Include\LoadHelper.h

; 69   : 		if(bUseDefSkin)

  002bb	85 db		 test	 ebx, ebx
  002bd	74 14		 je	 SHORT $LN2@CLoaderDra

; 70   : 			m_lpPointer = pInitDrawButton2(lpPointer, bUseDefSkin);

  002bf	8b 86 18 01 00
	00		 mov	 eax, DWORD PTR [esi+280]
  002c5	53		 push	 ebx
  002c6	ff b5 dc fe ff
	ff		 push	 DWORD PTR _lpPointer$GSCopy$1$[ebp]
  002cc	ff d0		 call	 eax
  002ce	83 c4 08	 add	 esp, 8
  002d1	eb 11		 jmp	 SHORT $LN3@CLoaderDra
$LN2@CLoaderDra:

; 71   : 		else
; 72   : 			m_lpPointer = pInitDrawButton(lpPointer);

  002d3	ff b5 dc fe ff
	ff		 push	 DWORD PTR _lpPointer$GSCopy$1$[ebp]
  002d9	8b 86 14 01 00
	00		 mov	 eax, DWORD PTR [esi+276]
  002df	ff d0		 call	 eax
  002e1	83 c4 04	 add	 esp, 4
$LN3@CLoaderDra:

; 73   : 	}

  002e4	8d 8d e0 fe ff
	ff		 lea	 ecx, DWORD PTR _szDir$[ebp]
  002ea	89 86 0c 01 00
	00		 mov	 DWORD PTR [esi+268], eax
  002f0	ff 15 00 00 00
	00		 call	 DWORD PTR __imp_??1?$CStringT@DV?$StrTraitMFC_DLL@DV?$ChTraitsCRT@D@ATL@@@@@ATL@@QAE@XZ
  002f6	8b c6		 mov	 eax, esi
  002f8	8b 4d f4	 mov	 ecx, DWORD PTR __$EHRec$[ebp]
  002fb	64 89 0d 00 00
	00 00		 mov	 DWORD PTR fs:0, ecx
  00302	59		 pop	 ecx
  00303	5f		 pop	 edi
  00304	5e		 pop	 esi
  00305	5b		 pop	 ebx
  00306	8b 4d f0	 mov	 ecx, DWORD PTR __$ArrayPad$7[ebp]
  00309	33 cd		 xor	 ecx, ebp
  0030b	e8 00 00 00 00	 call	 @__security_check_cookie@4
  00310	8b e5		 mov	 esp, ebp
  00312	5d		 pop	 ebp
  00313	c2 08 00	 ret	 8
_TEXT	ENDS
;	COMDAT text$x
text$x	SEGMENT
__unwindfunclet$??0CLoaderDrawButton@@QAE@PAXH@Z$0:
  00000	8b 8d d8 fe ff
	ff		 mov	 ecx, DWORD PTR _this$GSCopy$[ebp]
  00006	e9 00 00 00 00	 jmp	 ??1CExLoadLib@@QAE@XZ	; CExLoadLib::~CExLoadLib
__unwindfunclet$??0CLoaderDrawButton@@QAE@PAXH@Z$1:
  0000b	8d 8d e0 fe ff
	ff		 lea	 ecx, DWORD PTR _szDir$[ebp]
  00011	ff 25 00 00 00
	00		 jmp	 DWORD PTR __imp_??1?$CStringT@DV?$StrTraitMFC_DLL@DV?$ChTraitsCRT@D@ATL@@@@@ATL@@QAE@XZ
__unwindfunclet$??0CLoaderDrawButton@@QAE@PAXH@Z$2:
  00017	8d 8d e8 fe ff
	ff		 lea	 ecx, DWORD PTR __strRoot_$4[ebp]
  0001d	ff 25 00 00 00
	00		 jmp	 DWORD PTR __imp_??1?$CStringT@DV?$StrTraitMFC_DLL@DV?$ChTraitsCRT@D@ATL@@@@@ATL@@QAE@XZ
__unwindfunclet$??0CLoaderDrawButton@@QAE@PAXH@Z$3:
  00023	8d 8d e4 fe ff
	ff		 lea	 ecx, DWORD PTR $T3[ebp]
  00029	ff 25 00 00 00
	00		 jmp	 DWORD PTR __imp_??1?$CStringT@DV?$StrTraitMFC_DLL@DV?$ChTraitsCRT@D@ATL@@@@@ATL@@QAE@XZ
__unwindfunclet$??0CLoaderDrawButton@@QAE@PAXH@Z$4:
  0002f	8d 8d e4 fe ff
	ff		 lea	 ecx, DWORD PTR $T2[ebp]
  00035	ff 25 00 00 00
	00		 jmp	 DWORD PTR __imp_??1?$CStringT@DV?$StrTraitMFC_DLL@DV?$ChTraitsCRT@D@ATL@@@@@ATL@@QAE@XZ
  0003b	cc		 int	 3
  0003c	cc		 int	 3
  0003d	cc		 int	 3
  0003e	cc		 int	 3
  0003f	cc		 int	 3
__ehhandler$??0CLoaderDrawButton@@QAE@PAXH@Z:
  00040	90		 npad	 1
  00041	90		 npad	 1
  00042	8b 54 24 08	 mov	 edx, DWORD PTR [esp+8]
  00046	8d 42 0c	 lea	 eax, DWORD PTR [edx+12]
  00049	8b 8a d4 fe ff
	ff		 mov	 ecx, DWORD PTR [edx-300]
  0004f	33 c8		 xor	 ecx, eax
  00051	e8 00 00 00 00	 call	 @__security_check_cookie@4
  00056	8b 4a fc	 mov	 ecx, DWORD PTR [edx-4]
  00059	33 c8		 xor	 ecx, eax
  0005b	e8 00 00 00 00	 call	 @__security_check_cookie@4
  00060	b8 00 00 00 00	 mov	 eax, OFFSET __ehfuncinfo$??0CLoaderDrawButton@@QAE@PAXH@Z
  00065	e9 00 00 00 00	 jmp	 ___CxxFrameHandler3
text$x	ENDS
??0CLoaderDrawButton@@QAE@PAXH@Z ENDP			; CLoaderDrawButton::CLoaderDrawButton
; Function compile flags: /Ogtp
; File D:\git\src\IBK\IBK_DRFN\ProjSrc\SrcDrfn\Chart\ExControl\Include\BaseLoadHelper.h
;	COMDAT ?LoadProcAddress@CExLoadLib@@UAEHXZ
_TEXT	SEGMENT
?LoadProcAddress@CExLoadLib@@UAEHXZ PROC		; CExLoadLib::LoadProcAddress, COMDAT
; _this$ = ecx

; 19   : 		ASSERT(FALSE); 
; 20   : 		return FALSE;

  00000	33 c0		 xor	 eax, eax

; 21   : 	}

  00002	c3		 ret	 0
?LoadProcAddress@CExLoadLib@@UAEHXZ ENDP		; CExLoadLib::LoadProcAddress
_TEXT	ENDS
; Function compile flags: /Ogtp
; File D:\git\src\IBK\IBK_DRFN\ProjSrc\SrcDrfn\Chart\ExControl\Include\BaseLoadHelper.h
;	COMDAT ??1CExLoadLib@@QAE@XZ
_TEXT	SEGMENT
??1CExLoadLib@@QAE@XZ PROC				; CExLoadLib::~CExLoadLib, COMDAT
; _this$ = ecx

; 13   : 	{

  00000	56		 push	 esi
  00001	8b f1		 mov	 esi, ecx

; 53   : 		if(!m_hLib)

  00003	8b 46 04	 mov	 eax, DWORD PTR [esi+4]

; 13   : 	{

  00006	c7 06 00 00 00
	00		 mov	 DWORD PTR [esi], OFFSET ??_7CExLoadLib@@6B@

; 53   : 		if(!m_hLib)

  0000c	85 c0		 test	 eax, eax
  0000e	74 0e		 je	 SHORT $LN3@CExLoadLib

; 54   : 			return TRUE;
; 55   : 
; 56   : 		BOOL bResult = ::FreeLibrary(m_hLib);

  00010	50		 push	 eax
  00011	ff 15 00 00 00
	00		 call	 DWORD PTR __imp__FreeLibrary@4

; 57   : 		
; 58   : 		m_hLib = NULL;

  00017	c7 46 04 00 00
	00 00		 mov	 DWORD PTR [esi+4], 0
$LN3@CExLoadLib:
  0001e	5e		 pop	 esi

; 14   : 		UnLoadLib();
; 15   : 	}

  0001f	c3		 ret	 0
??1CExLoadLib@@QAE@XZ ENDP				; CExLoadLib::~CExLoadLib
_TEXT	ENDS
; Function compile flags: /Ogtp
; File D:\git\src\IBK\IBK_DRFN\ProjSrc\SrcDrfn\Chart\ExControl\ExDrawButton.cpp
; File D:\git\src\IBK\IBK_DRFN\ProjSrc\SrcDrfn\Chart\ExControl\Include\LoadHelper.h
; File D:\git\src\IBK\IBK_DRFN\ProjSrc\SrcDrfn\Chart\ExControl\Include\BaseLoadHelper.h
; File D:\git\src\IBK\IBK_DRFN\ProjSrc\SrcDrfn\Chart\ExControl\ExDrawButton.cpp
; File C:\Program Files (x86)\Microsoft Visual Studio\2019\Community\VC\Tools\MSVC\14.29.30133\atlmfc\include\afx.inl
;	COMDAT ??_GCExDrawButton@@UAEPAXI@Z
_TEXT	SEGMENT
__$EHRec$ = -12						; size = 12
___flags$ = 8						; size = 4
??_GCExDrawButton@@UAEPAXI@Z PROC			; CExDrawButton::`scalar deleting destructor', COMDAT
; _this$ = ecx
  00000	55		 push	 ebp
  00001	8b ec		 mov	 ebp, esp
  00003	6a ff		 push	 -1
  00005	68 00 00 00 00	 push	 __ehhandler$??_GCExDrawButton@@UAEPAXI@Z
  0000a	64 a1 00 00 00
	00		 mov	 eax, DWORD PTR fs:0
  00010	50		 push	 eax
  00011	56		 push	 esi
  00012	57		 push	 edi
  00013	a1 00 00 00 00	 mov	 eax, DWORD PTR ___security_cookie
  00018	33 c5		 xor	 eax, ebp
  0001a	50		 push	 eax
  0001b	8d 45 f4	 lea	 eax, DWORD PTR __$EHRec$[ebp]
  0001e	64 a3 00 00 00
	00		 mov	 DWORD PTR fs:0, eax
  00024	8b f1		 mov	 esi, ecx
; File D:\git\src\IBK\IBK_DRFN\ProjSrc\SrcDrfn\Chart\ExControl\ExDrawButton.cpp

; 26   : 	delete m_pLoader;

  00026	8b be 88 00 00
	00		 mov	 edi, DWORD PTR [esi+136]
  0002c	c7 06 00 00 00
	00		 mov	 DWORD PTR [esi], OFFSET ??_7CExDrawButton@@6B@
  00032	85 ff		 test	 edi, edi
  00034	74 4e		 je	 SHORT $LN13@scalar
; File D:\git\src\IBK\IBK_DRFN\ProjSrc\SrcDrfn\Chart\ExControl\Include\LoadHelper.h

; 77   : 		if(m_hLib)

  00036	8b 47 04	 mov	 eax, DWORD PTR [edi+4]
  00039	c7 45 fc 00 00
	00 00		 mov	 DWORD PTR __$EHRec$[ebp+8], 0
  00040	c7 07 00 00 00
	00		 mov	 DWORD PTR [edi], OFFSET ??_7CLoaderDrawButton@@6B@
  00046	85 c0		 test	 eax, eax
  00048	74 14		 je	 SHORT $LN16@scalar

; 78   : 			pExitButton(m_lpPointer);

  0004a	ff b7 0c 01 00
	00		 push	 DWORD PTR [edi+268]
  00050	8b 87 1c 01 00
	00		 mov	 eax, DWORD PTR [edi+284]
  00056	ff d0		 call	 eax
  00058	8b 47 04	 mov	 eax, DWORD PTR [edi+4]
  0005b	83 c4 04	 add	 esp, 4
$LN16@scalar:
; File D:\git\src\IBK\IBK_DRFN\ProjSrc\SrcDrfn\Chart\ExControl\Include\BaseLoadHelper.h

; 13   : 	{

  0005e	c7 07 00 00 00
	00		 mov	 DWORD PTR [edi], OFFSET ??_7CExLoadLib@@6B@

; 53   : 		if(!m_hLib)

  00064	85 c0		 test	 eax, eax
  00066	74 0e		 je	 SHORT $LN21@scalar

; 54   : 			return TRUE;
; 55   : 
; 56   : 		BOOL bResult = ::FreeLibrary(m_hLib);

  00068	50		 push	 eax
  00069	ff 15 00 00 00
	00		 call	 DWORD PTR __imp__FreeLibrary@4

; 57   : 		
; 58   : 		m_hLib = NULL;

  0006f	c7 47 04 00 00
	00 00		 mov	 DWORD PTR [edi+4], 0
$LN21@scalar:
  00076	68 54 01 00 00	 push	 340			; 00000154H
  0007b	57		 push	 edi
  0007c	e8 00 00 00 00	 call	 ??3@YAXPAXI@Z		; operator delete
  00081	83 c4 08	 add	 esp, 8
$LN13@scalar:
; File D:\git\src\IBK\IBK_DRFN\ProjSrc\SrcDrfn\Chart\ExControl\ExDrawButton.cpp

; 27   : }

  00084	8b ce		 mov	 ecx, esi
  00086	e8 00 00 00 00	 call	 ??1CExButton@@UAE@XZ	; CExButton::~CExButton
  0008b	8b 45 08	 mov	 eax, DWORD PTR ___flags$[ebp]
  0008e	a8 01		 test	 al, 1
  00090	74 1d		 je	 SHORT $LN26@scalar
  00092	a8 04		 test	 al, 4
  00094	75 0b		 jne	 SHORT $LN3@scalar
; File C:\Program Files (x86)\Microsoft Visual Studio\2019\Community\VC\Tools\MSVC\14.29.30133\atlmfc\include\afx.inl

; 112  : 	{ ::operator delete(p); }

  00096	56		 push	 esi
  00097	e8 00 00 00 00	 call	 ??3@YAXPAX@Z		; operator delete
  0009c	83 c4 04	 add	 esp, 4
  0009f	eb 0e		 jmp	 SHORT $LN26@scalar
$LN3@scalar:
  000a1	68 90 00 00 00	 push	 144			; 00000090H
  000a6	56		 push	 esi
  000a7	e8 00 00 00 00	 call	 ?__global_delete@@YAXPAXI@Z ; __global_delete
  000ac	83 c4 08	 add	 esp, 8
$LN26@scalar:
  000af	8b c6		 mov	 eax, esi
  000b1	8b 4d f4	 mov	 ecx, DWORD PTR __$EHRec$[ebp]
  000b4	64 89 0d 00 00
	00 00		 mov	 DWORD PTR fs:0, ecx
  000bb	59		 pop	 ecx
  000bc	5f		 pop	 edi
  000bd	5e		 pop	 esi
  000be	8b e5		 mov	 esp, ebp
  000c0	5d		 pop	 ebp
  000c1	c2 04 00	 ret	 4
  000c4	cc		 int	 3
  000c5	cc		 int	 3
  000c6	cc		 int	 3
  000c7	cc		 int	 3
  000c8	cc		 int	 3
_TEXT	ENDS
;	COMDAT text$x
text$x	SEGMENT
__ehhandler$??_GCExDrawButton@@UAEPAXI@Z:
  00000	90		 npad	 1
  00001	90		 npad	 1
  00002	8b 54 24 08	 mov	 edx, DWORD PTR [esp+8]
  00006	8d 42 0c	 lea	 eax, DWORD PTR [edx+12]
  00009	8b 4a f4	 mov	 ecx, DWORD PTR [edx-12]
  0000c	33 c8		 xor	 ecx, eax
  0000e	e8 00 00 00 00	 call	 @__security_check_cookie@4
  00013	b8 00 00 00 00	 mov	 eax, OFFSET __ehfuncinfo$??_GCExDrawButton@@UAEPAXI@Z
  00018	e9 00 00 00 00	 jmp	 ___CxxFrameHandler3
text$x	ENDS
??_GCExDrawButton@@UAEPAXI@Z ENDP			; CExDrawButton::`scalar deleting destructor'
; Function compile flags: /Ogtp
; File D:\git\src\IBK\IBK_DRFN\ProjSrc\SrcDrfn\Chart\ExControl\ExDrawButton.cpp
;	COMDAT ?GetMessageMap@CExDrawButton@@MBEPBUAFX_MSGMAP@@XZ
_TEXT	SEGMENT
?GetMessageMap@CExDrawButton@@MBEPBUAFX_MSGMAP@@XZ PROC	; CExDrawButton::GetMessageMap, COMDAT
; _this$ = ecx

; 30   : BEGIN_MESSAGE_MAP(CExDrawButton, CExButton)

  00000	b8 00 00 00 00	 mov	 eax, OFFSET ?messageMap@?1??GetThisMessageMap@CExDrawButton@@KGPBUAFX_MSGMAP@@XZ@4U3@B
  00005	c3		 ret	 0
?GetMessageMap@CExDrawButton@@MBEPBUAFX_MSGMAP@@XZ ENDP	; CExDrawButton::GetMessageMap
_TEXT	ENDS
; Function compile flags: /Ogtp
; File D:\git\src\IBK\IBK_DRFN\ProjSrc\SrcDrfn\Chart\ExControl\ExDrawButton.cpp
;	COMDAT ?GetThisMessageMap@CExDrawButton@@KGPBUAFX_MSGMAP@@XZ
_TEXT	SEGMENT
?GetThisMessageMap@CExDrawButton@@KGPBUAFX_MSGMAP@@XZ PROC ; CExDrawButton::GetThisMessageMap, COMDAT

; 31   : 	//{{AFX_MSG_MAP(CExDrawButton)
; 32   : 	ON_CONTROL_REFLECT_EX(BN_CLICKED, OnClicked)
; 33   : 	//}}AFX_MSG_MAP
; 34   : END_MESSAGE_MAP()

  00000	b8 00 00 00 00	 mov	 eax, OFFSET ?messageMap@?1??GetThisMessageMap@CExDrawButton@@KGPBUAFX_MSGMAP@@XZ@4U3@B
  00005	c3		 ret	 0
?GetThisMessageMap@CExDrawButton@@KGPBUAFX_MSGMAP@@XZ ENDP ; CExDrawButton::GetThisMessageMap
_TEXT	ENDS
; Function compile flags: /Ogtp
; File D:\git\src\IBK\IBK_DRFN\ProjSrc\SrcDrfn\Chart\ExControl\ExDrawButton.cpp
; File D:\git\src\IBK\IBK_DRFN\ProjSrc\SrcDrfn\Chart\ExControl\Include\LoadHelper.h
; File D:\git\src\IBK\IBK_DRFN\ProjSrc\SrcDrfn\Chart\ExControl\ExDrawButton.cpp
;	COMDAT ?OnClicked@CExDrawButton@@IAEHXZ
_TEXT	SEGMENT
?OnClicked@CExDrawButton@@IAEHXZ PROC			; CExDrawButton::OnClicked, COMDAT
; _this$ = ecx

; 107  : {

  00000	56		 push	 esi

; 108  : 	m_pLoader->OnClicked();

  00001	8b b1 88 00 00
	00		 mov	 esi, DWORD PTR [ecx+136]
; File D:\git\src\IBK\IBK_DRFN\ProjSrc\SrcDrfn\Chart\ExControl\Include\LoadHelper.h

; 253  : 		if(!m_hLib)

  00007	8b 4e 04	 mov	 ecx, DWORD PTR [esi+4]
  0000a	85 c9		 test	 ecx, ecx
  0000c	74 2b		 je	 SHORT $LN8@OnClicked

; 254  : 			return;
; 255  : 
; 256  : 		if(!pOnClicked_DrawButton)

  0000e	8b 86 4c 01 00
	00		 mov	 eax, DWORD PTR [esi+332]
  00014	85 c0		 test	 eax, eax
  00016	75 16		 jne	 SHORT $LN11@OnClicked

; 257  : 			pOnClicked_DrawButton = (FpOnClicked_DrawButton)::GetProcAddress(m_hLib, "Ex_OnClicked_DrawButton");

  00018	68 00 00 00 00	 push	 OFFSET ??_C@_0BI@HIINLFG@Ex_OnClicked_DrawButton@
  0001d	51		 push	 ecx
  0001e	ff 15 00 00 00
	00		 call	 DWORD PTR __imp__GetProcAddress@8
  00024	89 86 4c 01 00
	00		 mov	 DWORD PTR [esi+332], eax

; 258  : 
; 259  : 		if(!pOnClicked_DrawButton)

  0002a	85 c0		 test	 eax, eax
  0002c	74 0b		 je	 SHORT $LN8@OnClicked
$LN11@OnClicked:

; 260  : 			return;
; 261  : 
; 262  : 		pOnClicked_DrawButton(m_lpPointer);

  0002e	ff b6 0c 01 00
	00		 push	 DWORD PTR [esi+268]
  00034	ff d0		 call	 eax
  00036	83 c4 04	 add	 esp, 4
$LN8@OnClicked:
; File D:\git\src\IBK\IBK_DRFN\ProjSrc\SrcDrfn\Chart\ExControl\ExDrawButton.cpp

; 111  : }

  00039	33 c0		 xor	 eax, eax
  0003b	5e		 pop	 esi
  0003c	c3		 ret	 0
?OnClicked@CExDrawButton@@IAEHXZ ENDP			; CExDrawButton::OnClicked
_TEXT	ENDS
; Function compile flags: /Ogtp
; File D:\git\src\IBK\IBK_DRFN\ProjSrc\SrcDrfn\Chart\ExControl\ExDrawButton.cpp
;	COMDAT ?OnDestroy@CExDrawButton@@IAEXXZ
_TEXT	SEGMENT
?OnDestroy@CExDrawButton@@IAEXXZ PROC			; CExDrawButton::OnDestroy, COMDAT
; _this$ = ecx

; 60   : //	if(m_posChangedSkin)
; 61   : //	{
; 62   : //		((CExDialog*)GetParent())->RemoveChangeSkinNotifyFunction(m_posChangedSkin);
; 63   : //		m_posChangedSkin = NULL;
; 64   : //	}
; 65   : 
; 66   : 	CExButton::OnDestroy();	

  00000	e9 00 00 00 00	 jmp	 ?OnDestroy@CWnd@@IAEXXZ	; CWnd::OnDestroy
?OnDestroy@CExDrawButton@@IAEXXZ ENDP			; CExDrawButton::OnDestroy
_TEXT	ENDS
; Function compile flags: /Ogtp
; File D:\git\src\IBK\IBK_DRFN\ProjSrc\SrcDrfn\Chart\ExControl\ExDrawButton.cpp
; File D:\git\src\IBK\IBK_DRFN\ProjSrc\SrcDrfn\Chart\ExControl\Include\LoadHelper.h
; File D:\git\src\IBK\IBK_DRFN\ProjSrc\SrcDrfn\Chart\ExControl\Include\BaseLoadHelper.h
; File D:\git\src\IBK\IBK_DRFN\ProjSrc\SrcDrfn\Chart\ExControl\ExDrawButton.cpp
;	COMDAT ??1CExDrawButton@@UAE@XZ
_TEXT	SEGMENT
__$EHRec$ = -12						; size = 12
??1CExDrawButton@@UAE@XZ PROC				; CExDrawButton::~CExDrawButton, COMDAT
; _this$ = ecx

; 25   : {

  00000	55		 push	 ebp
  00001	8b ec		 mov	 ebp, esp
  00003	6a ff		 push	 -1
  00005	68 00 00 00 00	 push	 __ehhandler$??1CExDrawButton@@UAE@XZ
  0000a	64 a1 00 00 00
	00		 mov	 eax, DWORD PTR fs:0
  00010	50		 push	 eax
  00011	56		 push	 esi
  00012	57		 push	 edi
  00013	a1 00 00 00 00	 mov	 eax, DWORD PTR ___security_cookie
  00018	33 c5		 xor	 eax, ebp
  0001a	50		 push	 eax
  0001b	8d 45 f4	 lea	 eax, DWORD PTR __$EHRec$[ebp]
  0001e	64 a3 00 00 00
	00		 mov	 DWORD PTR fs:0, eax
  00024	8b f9		 mov	 edi, ecx

; 26   : 	delete m_pLoader;

  00026	8b b7 88 00 00
	00		 mov	 esi, DWORD PTR [edi+136]
  0002c	c7 07 00 00 00
	00		 mov	 DWORD PTR [edi], OFFSET ??_7CExDrawButton@@6B@
  00032	85 f6		 test	 esi, esi
  00034	74 4e		 je	 SHORT $LN6@CExDrawBut
; File D:\git\src\IBK\IBK_DRFN\ProjSrc\SrcDrfn\Chart\ExControl\Include\LoadHelper.h

; 77   : 		if(m_hLib)

  00036	8b 46 04	 mov	 eax, DWORD PTR [esi+4]
  00039	c7 45 fc 00 00
	00 00		 mov	 DWORD PTR __$EHRec$[ebp+8], 0
  00040	c7 06 00 00 00
	00		 mov	 DWORD PTR [esi], OFFSET ??_7CLoaderDrawButton@@6B@
  00046	85 c0		 test	 eax, eax
  00048	74 14		 je	 SHORT $LN9@CExDrawBut

; 78   : 			pExitButton(m_lpPointer);

  0004a	ff b6 0c 01 00
	00		 push	 DWORD PTR [esi+268]
  00050	8b 86 1c 01 00
	00		 mov	 eax, DWORD PTR [esi+284]
  00056	ff d0		 call	 eax
  00058	8b 46 04	 mov	 eax, DWORD PTR [esi+4]
  0005b	83 c4 04	 add	 esp, 4
$LN9@CExDrawBut:
; File D:\git\src\IBK\IBK_DRFN\ProjSrc\SrcDrfn\Chart\ExControl\Include\BaseLoadHelper.h

; 13   : 	{

  0005e	c7 06 00 00 00
	00		 mov	 DWORD PTR [esi], OFFSET ??_7CExLoadLib@@6B@

; 53   : 		if(!m_hLib)

  00064	85 c0		 test	 eax, eax
  00066	74 0e		 je	 SHORT $LN14@CExDrawBut

; 54   : 			return TRUE;
; 55   : 
; 56   : 		BOOL bResult = ::FreeLibrary(m_hLib);

  00068	50		 push	 eax
  00069	ff 15 00 00 00
	00		 call	 DWORD PTR __imp__FreeLibrary@4

; 57   : 		
; 58   : 		m_hLib = NULL;

  0006f	c7 46 04 00 00
	00 00		 mov	 DWORD PTR [esi+4], 0
$LN14@CExDrawBut:
  00076	68 54 01 00 00	 push	 340			; 00000154H
  0007b	56		 push	 esi
  0007c	e8 00 00 00 00	 call	 ??3@YAXPAXI@Z		; operator delete
  00081	83 c4 08	 add	 esp, 8
$LN6@CExDrawBut:
; File D:\git\src\IBK\IBK_DRFN\ProjSrc\SrcDrfn\Chart\ExControl\ExDrawButton.cpp

; 27   : }

  00084	8b cf		 mov	 ecx, edi
  00086	e8 00 00 00 00	 call	 ??1CExButton@@UAE@XZ	; CExButton::~CExButton
  0008b	8b 4d f4	 mov	 ecx, DWORD PTR __$EHRec$[ebp]
  0008e	64 89 0d 00 00
	00 00		 mov	 DWORD PTR fs:0, ecx
  00095	59		 pop	 ecx
  00096	5f		 pop	 edi
  00097	5e		 pop	 esi
  00098	8b e5		 mov	 esp, ebp
  0009a	5d		 pop	 ebp
  0009b	c3		 ret	 0
  0009c	cc		 int	 3
  0009d	cc		 int	 3
  0009e	cc		 int	 3
  0009f	cc		 int	 3
  000a0	cc		 int	 3
_TEXT	ENDS
;	COMDAT text$x
text$x	SEGMENT
__ehhandler$??1CExDrawButton@@UAE@XZ:
  00000	90		 npad	 1
  00001	90		 npad	 1
  00002	8b 54 24 08	 mov	 edx, DWORD PTR [esp+8]
  00006	8d 42 0c	 lea	 eax, DWORD PTR [edx+12]
  00009	8b 4a f4	 mov	 ecx, DWORD PTR [edx-12]
  0000c	33 c8		 xor	 ecx, eax
  0000e	e8 00 00 00 00	 call	 @__security_check_cookie@4
  00013	b8 00 00 00 00	 mov	 eax, OFFSET __ehfuncinfo$??1CExDrawButton@@UAE@XZ
  00018	e9 00 00 00 00	 jmp	 ___CxxFrameHandler3
text$x	ENDS
??1CExDrawButton@@UAE@XZ ENDP				; CExDrawButton::~CExDrawButton
; Function compile flags: /Ogtp
; File D:\git\src\IBK\IBK_DRFN\ProjSrc\SrcDrfn\Chart\ExControl\ExDrawButton.cpp
; File D:\git\src\IBK\IBK_DRFN\ProjSrc\SrcDrfn\Chart\ExControl\Include\LoadHelper.h
; File D:\git\src\IBK\IBK_DRFN\ProjSrc\SrcDrfn\Chart\ExControl\ExDrawButton.cpp
;	COMDAT ?PreSubclassWindow@CExDrawButton@@MAEXXZ
_TEXT	SEGMENT
?PreSubclassWindow@CExDrawButton@@MAEXXZ PROC		; CExDrawButton::PreSubclassWindow, COMDAT
; _this$ = ecx

; 75   : {

  00000	56		 push	 esi
  00001	8b f1		 mov	 esi, ecx

; 76   : 	CExButton::PreSubclassWindow();

  00003	e8 00 00 00 00	 call	 ?PreSubclassWindow@CExButton@@MAEXXZ ; CExButton::PreSubclassWindow

; 77   : 	
; 78   : 	m_pLoader->PreSubclassWindow();

  00008	8b 86 88 00 00
	00		 mov	 eax, DWORD PTR [esi+136]
  0000e	5e		 pop	 esi
; File D:\git\src\IBK\IBK_DRFN\ProjSrc\SrcDrfn\Chart\ExControl\Include\LoadHelper.h

; 181  : 		if(!m_hLib)

  0000f	83 78 04 00	 cmp	 DWORD PTR [eax+4], 0
  00013	74 0f		 je	 SHORT $LN3@PreSubclas

; 182  : 			return;
; 183  : 		
; 184  : 		pPreSubclassWindow_DrawButton(m_lpPointer);

  00015	ff b0 0c 01 00
	00		 push	 DWORD PTR [eax+268]
  0001b	8b 80 34 01 00
	00		 mov	 eax, DWORD PTR [eax+308]
  00021	ff d0		 call	 eax
  00023	59		 pop	 ecx
$LN3@PreSubclas:
; File D:\git\src\IBK\IBK_DRFN\ProjSrc\SrcDrfn\Chart\ExControl\ExDrawButton.cpp

; 79   : }

  00024	c3		 ret	 0
?PreSubclassWindow@CExDrawButton@@MAEXXZ ENDP		; CExDrawButton::PreSubclassWindow
_TEXT	ENDS
; Function compile flags: /Ogtp
; File D:\git\src\IBK\IBK_DRFN\ProjSrc\SrcDrfn\Chart\ExControl\ExDrawButton.cpp
; File D:\git\src\IBK\IBK_DRFN\ProjSrc\SrcDrfn\Chart\ExControl\Include\LoadHelper.h
; File D:\git\src\IBK\IBK_DRFN\ProjSrc\SrcDrfn\Chart\ExControl\ExDrawButton.cpp
;	COMDAT ?DrawItem@CExDrawButton@@UAEXPAUtagDRAWITEMSTRUCT@@@Z
_TEXT	SEGMENT
_lpDrawItemStruct$ = 8					; size = 4
?DrawItem@CExDrawButton@@UAEXPAUtagDRAWITEMSTRUCT@@@Z PROC ; CExDrawButton::DrawItem, COMDAT
; _this$ = ecx

; 54   : {

  00000	55		 push	 ebp
  00001	8b ec		 mov	 ebp, esp

; 55   : 	m_pLoader->DrawItemButton(lpDrawItemStruct);

  00003	8b 81 88 00 00
	00		 mov	 eax, DWORD PTR [ecx+136]
; File D:\git\src\IBK\IBK_DRFN\ProjSrc\SrcDrfn\Chart\ExControl\Include\LoadHelper.h

; 149  : 		if(!m_hLib)

  00009	83 78 04 00	 cmp	 DWORD PTR [eax+4], 0
  0000d	74 14		 je	 SHORT $LN3@DrawItem

; 150  : 			return;
; 151  : 
; 152  : 		pDrawItemButton(m_lpPointer, lpDrawItemStruct);

  0000f	ff 75 08	 push	 DWORD PTR _lpDrawItemStruct$[ebp]
  00012	ff b0 0c 01 00
	00		 push	 DWORD PTR [eax+268]
  00018	8b 80 24 01 00
	00		 mov	 eax, DWORD PTR [eax+292]
  0001e	ff d0		 call	 eax
  00020	83 c4 08	 add	 esp, 8
$LN3@DrawItem:
; File D:\git\src\IBK\IBK_DRFN\ProjSrc\SrcDrfn\Chart\ExControl\ExDrawButton.cpp

; 56   : }

  00023	5d		 pop	 ebp
  00024	c2 04 00	 ret	 4
?DrawItem@CExDrawButton@@UAEXPAUtagDRAWITEMSTRUCT@@@Z ENDP ; CExDrawButton::DrawItem
_TEXT	ENDS
; Function compile flags: /Ogtp
; File D:\git\src\IBK\IBK_DRFN\ProjSrc\SrcDrfn\Chart\ExControl\ExDrawButton.cpp
; File D:\git\src\IBK\IBK_DRFN\ProjSrc\SrcDrfn\Chart\ExControl\Include\LoadHelper.h
; File D:\git\src\IBK\IBK_DRFN\ProjSrc\SrcDrfn\Chart\ExControl\ExDrawButton.cpp
;	COMDAT ?AddToggleGroup@CExDrawButton@@QAAXPAV1@ZZ
_TEXT	SEGMENT
_this$ = 8						; size = 4
_pButton$ = 12						; size = 4
?AddToggleGroup@CExDrawButton@@QAAXPAV1@ZZ PROC		; CExDrawButton::AddToggleGroup, COMDAT

; 114  : {

  00000	55		 push	 ebp
  00001	8b ec		 mov	 ebp, esp

; 115  : 	va_list varToggle;
; 116  : 	va_start(varToggle, pButton);
; 117  : 	
; 118  : 	CExDrawButton* pAddButton = pButton;

  00003	8b 45 0c	 mov	 eax, DWORD PTR _pButton$[ebp]
  00006	85 c0		 test	 eax, eax

; 119  : 
; 120  : 	while(pAddButton)

  00008	74 5b		 je	 SHORT $LN3@AddToggleG

; 115  : 	va_list varToggle;
; 116  : 	va_start(varToggle, pButton);
; 117  : 	
; 118  : 	CExDrawButton* pAddButton = pButton;

  0000a	53		 push	 ebx
  0000b	56		 push	 esi
  0000c	57		 push	 edi
  0000d	8d 75 0c	 lea	 esi, DWORD PTR _pButton$[ebp]
$LL2@AddToggleG:

; 121  : 	{
; 122  : 		m_pLoader->AddToggleGroup(pAddButton->m_pLoader->m_lpPointer);

  00010	8b 80 88 00 00
	00		 mov	 eax, DWORD PTR [eax+136]
  00016	8b 98 0c 01 00
	00		 mov	 ebx, DWORD PTR [eax+268]
  0001c	8b 45 08	 mov	 eax, DWORD PTR _this$[ebp]
  0001f	8b b8 88 00 00
	00		 mov	 edi, DWORD PTR [eax+136]
; File D:\git\src\IBK\IBK_DRFN\ProjSrc\SrcDrfn\Chart\ExControl\Include\LoadHelper.h

; 267  : 		if(!m_hLib)

  00025	8b 4f 04	 mov	 ecx, DWORD PTR [edi+4]
  00028	85 c9		 test	 ecx, ecx
  0002a	74 2c		 je	 SHORT $LN5@AddToggleG

; 268  : 			return;
; 269  : 
; 270  : 		if(!pAddToggleGroup_DrawButton)

  0002c	8b 87 50 01 00
	00		 mov	 eax, DWORD PTR [edi+336]
  00032	85 c0		 test	 eax, eax
  00034	75 16		 jne	 SHORT $LN15@AddToggleG

; 271  : 			pAddToggleGroup_DrawButton = (FpAddToggleGroup_DrawButton)::GetProcAddress(m_hLib, "Ex_AddToggleGroup_DrawButton");

  00036	68 00 00 00 00	 push	 OFFSET ??_C@_0BN@KLLBCGDD@Ex_AddToggleGroup_DrawButton@
  0003b	51		 push	 ecx
  0003c	ff 15 00 00 00
	00		 call	 DWORD PTR __imp__GetProcAddress@8
  00042	89 87 50 01 00
	00		 mov	 DWORD PTR [edi+336], eax

; 272  : 
; 273  : 		if(!pAddToggleGroup_DrawButton)

  00048	85 c0		 test	 eax, eax
  0004a	74 0c		 je	 SHORT $LN5@AddToggleG
$LN15@AddToggleG:

; 274  : 			return;
; 275  : 
; 276  : 		pAddToggleGroup_DrawButton(m_lpPointer, lpAddPointer);

  0004c	53		 push	 ebx
  0004d	ff b7 0c 01 00
	00		 push	 DWORD PTR [edi+268]
  00053	ff d0		 call	 eax
  00055	83 c4 08	 add	 esp, 8
$LN5@AddToggleG:
; File D:\git\src\IBK\IBK_DRFN\ProjSrc\SrcDrfn\Chart\ExControl\ExDrawButton.cpp

; 123  : 		pAddButton = va_arg(varToggle, CExDrawButton*);

  00058	8b 46 04	 mov	 eax, DWORD PTR [esi+4]
  0005b	83 c6 04	 add	 esi, 4
  0005e	85 c0		 test	 eax, eax
  00060	75 ae		 jne	 SHORT $LL2@AddToggleG
  00062	5f		 pop	 edi
  00063	5e		 pop	 esi
  00064	5b		 pop	 ebx
$LN3@AddToggleG:

; 124  : 	}
; 125  : 
; 126  : 	va_end(varToggle);
; 127  : }

  00065	5d		 pop	 ebp
  00066	c3		 ret	 0
?AddToggleGroup@CExDrawButton@@QAAXPAV1@ZZ ENDP		; CExDrawButton::AddToggleGroup
_TEXT	ENDS
; Function compile flags: /Ogtp
; File D:\git\src\IBK\IBK_DRFN\ProjSrc\SrcDrfn\Chart\ExControl\ExDrawButton.cpp
; File D:\git\src\IBK\IBK_DRFN\ProjSrc\SrcDrfn\Chart\ExControl\Include\LoadHelper.h
; File D:\git\src\IBK\IBK_DRFN\ProjSrc\SrcDrfn\Chart\ExControl\ExDrawButton.cpp
;	COMDAT ?ReleasePushed@CExDrawButton@@UAEXXZ
_TEXT	SEGMENT
?ReleasePushed@CExDrawButton@@UAEXXZ PROC		; CExDrawButton::ReleasePushed, COMDAT
; _this$ = ecx

; 102  : {

  00000	56		 push	 esi

; 103  : 	m_pLoader->ReleasePushed();

  00001	8b b1 88 00 00
	00		 mov	 esi, DWORD PTR [ecx+136]
; File D:\git\src\IBK\IBK_DRFN\ProjSrc\SrcDrfn\Chart\ExControl\Include\LoadHelper.h

; 239  : 		if(!m_hLib)

  00007	8b 4e 04	 mov	 ecx, DWORD PTR [esi+4]
  0000a	85 c9		 test	 ecx, ecx
  0000c	74 2b		 je	 SHORT $LN3@ReleasePus

; 240  : 			return;
; 241  : 
; 242  : 		if(!pReleasePushed_DrawButton)

  0000e	8b 86 48 01 00
	00		 mov	 eax, DWORD PTR [esi+328]
  00014	85 c0		 test	 eax, eax
  00016	75 16		 jne	 SHORT $LN9@ReleasePus

; 243  : 			pReleasePushed_DrawButton = (FpReleasePushed_DrawButton)::GetProcAddress(m_hLib, "Ex_ReleasePushed_DrawButton");

  00018	68 00 00 00 00	 push	 OFFSET ??_C@_0BM@KGOCHHHE@Ex_ReleasePushed_DrawButton@
  0001d	51		 push	 ecx
  0001e	ff 15 00 00 00
	00		 call	 DWORD PTR __imp__GetProcAddress@8
  00024	89 86 48 01 00
	00		 mov	 DWORD PTR [esi+328], eax

; 244  : 
; 245  : 		if(!pReleasePushed_DrawButton)

  0002a	85 c0		 test	 eax, eax
  0002c	74 0b		 je	 SHORT $LN3@ReleasePus
$LN9@ReleasePus:

; 246  : 			return;
; 247  : 
; 248  : 		pReleasePushed_DrawButton(m_lpPointer);

  0002e	ff b6 0c 01 00
	00		 push	 DWORD PTR [esi+268]
  00034	ff d0		 call	 eax
  00036	83 c4 04	 add	 esp, 4
$LN3@ReleasePus:
  00039	5e		 pop	 esi
; File D:\git\src\IBK\IBK_DRFN\ProjSrc\SrcDrfn\Chart\ExControl\ExDrawButton.cpp

; 104  : }

  0003a	c3		 ret	 0
?ReleasePushed@CExDrawButton@@UAEXXZ ENDP		; CExDrawButton::ReleasePushed
_TEXT	ENDS
; Function compile flags: /Ogtp
; File D:\git\src\IBK\IBK_DRFN\ProjSrc\SrcDrfn\Chart\ExControl\ExDrawButton.cpp
; File D:\git\src\IBK\IBK_DRFN\ProjSrc\SrcDrfn\Chart\ExControl\Include\LoadHelper.h
; File D:\git\src\IBK\IBK_DRFN\ProjSrc\SrcDrfn\Chart\ExControl\ExDrawButton.cpp
;	COMDAT ?SetToggleState@CExDrawButton@@UAEXH@Z
_TEXT	SEGMENT
_bPush$ = 8						; size = 4
?SetToggleState@CExDrawButton@@UAEXH@Z PROC		; CExDrawButton::SetToggleState, COMDAT
; _this$ = ecx

; 97   : {

  00000	55		 push	 ebp
  00001	8b ec		 mov	 ebp, esp
  00003	56		 push	 esi

; 98   : 	m_pLoader->SetToggleState(bPush);

  00004	8b b1 88 00 00
	00		 mov	 esi, DWORD PTR [ecx+136]
; File D:\git\src\IBK\IBK_DRFN\ProjSrc\SrcDrfn\Chart\ExControl\Include\LoadHelper.h

; 225  : 		if(!m_hLib)

  0000a	8b 4e 04	 mov	 ecx, DWORD PTR [esi+4]
  0000d	85 c9		 test	 ecx, ecx
  0000f	74 2e		 je	 SHORT $LN3@SetToggleS

; 226  : 			return;
; 227  : 
; 228  : 		if(!pSetToggleState_DrawButton)

  00011	8b 86 44 01 00
	00		 mov	 eax, DWORD PTR [esi+324]
  00017	85 c0		 test	 eax, eax
  00019	75 16		 jne	 SHORT $LN9@SetToggleS

; 229  : 			pSetToggleState_DrawButton = (FpSetToggleState_DrawButton)::GetProcAddress(m_hLib, "Ex_SetToggleState_DrawButton");

  0001b	68 00 00 00 00	 push	 OFFSET ??_C@_0BN@CANFOCIL@Ex_SetToggleState_DrawButton@
  00020	51		 push	 ecx
  00021	ff 15 00 00 00
	00		 call	 DWORD PTR __imp__GetProcAddress@8
  00027	89 86 44 01 00
	00		 mov	 DWORD PTR [esi+324], eax

; 230  : 
; 231  : 		if(!pSetToggleState_DrawButton)

  0002d	85 c0		 test	 eax, eax
  0002f	74 0e		 je	 SHORT $LN3@SetToggleS
$LN9@SetToggleS:

; 232  : 			return;
; 233  : 
; 234  : 		pSetToggleState_DrawButton(m_lpPointer, bPush);

  00031	ff 75 08	 push	 DWORD PTR _bPush$[ebp]
  00034	ff b6 0c 01 00
	00		 push	 DWORD PTR [esi+268]
  0003a	ff d0		 call	 eax
  0003c	83 c4 08	 add	 esp, 8
$LN3@SetToggleS:
  0003f	5e		 pop	 esi
; File D:\git\src\IBK\IBK_DRFN\ProjSrc\SrcDrfn\Chart\ExControl\ExDrawButton.cpp

; 99   : }

  00040	5d		 pop	 ebp
  00041	c2 04 00	 ret	 4
?SetToggleState@CExDrawButton@@UAEXH@Z ENDP		; CExDrawButton::SetToggleState
_TEXT	ENDS
; Function compile flags: /Ogtp
; File D:\git\src\IBK\IBK_DRFN\ProjSrc\SrcDrfn\Chart\ExControl\ExDrawButton.cpp
; File D:\git\src\IBK\IBK_DRFN\ProjSrc\SrcDrfn\Chart\ExControl\Include\LoadHelper.h
; File D:\git\src\IBK\IBK_DRFN\ProjSrc\SrcDrfn\Chart\ExControl\ExDrawButton.cpp
; File D:\git\src\IBK\IBK_DRFN\ProjSrc\SrcDrfn\Chart\ExControl\Include\LoadHelper.h
; File D:\git\src\IBK\IBK_DRFN\ProjSrc\SrcDrfn\Chart\ExControl\ExDrawButton.cpp
;	COMDAT ?GetToggleState@CExDrawButton@@UAEHXZ
_TEXT	SEGMENT
?GetToggleState@CExDrawButton@@UAEHXZ PROC		; CExDrawButton::GetToggleState, COMDAT
; _this$ = ecx

; 92   : {

  00000	56		 push	 esi

; 93   : 	return m_pLoader->GetToggleState();

  00001	8b b1 88 00 00
	00		 mov	 esi, DWORD PTR [ecx+136]
; File D:\git\src\IBK\IBK_DRFN\ProjSrc\SrcDrfn\Chart\ExControl\Include\LoadHelper.h

; 211  : 		if(!m_hLib)

  00007	8b 4e 04	 mov	 ecx, DWORD PTR [esi+4]
  0000a	85 c9		 test	 ecx, ecx
  0000c	75 04		 jne	 SHORT $LN4@GetToggleS
$LN9@GetToggleS:
; File D:\git\src\IBK\IBK_DRFN\ProjSrc\SrcDrfn\Chart\ExControl\ExDrawButton.cpp

; 94   : }

  0000e	33 c0		 xor	 eax, eax
  00010	5e		 pop	 esi
  00011	c3		 ret	 0
$LN4@GetToggleS:
; File D:\git\src\IBK\IBK_DRFN\ProjSrc\SrcDrfn\Chart\ExControl\Include\LoadHelper.h

; 214  : 		if(!pGetToggleState_DrawButton)

  00012	8b 86 40 01 00
	00		 mov	 eax, DWORD PTR [esi+320]
  00018	85 c0		 test	 eax, eax
  0001a	75 16		 jne	 SHORT $LN6@GetToggleS

; 215  : 			pGetToggleState_DrawButton = (FpGetToggleState_DrawButton)::GetProcAddress(m_hLib, "Ex_GetToggleState_DrawButton");

  0001c	68 00 00 00 00	 push	 OFFSET ??_C@_0BN@KABDCPCN@Ex_GetToggleState_DrawButton@
  00021	51		 push	 ecx
  00022	ff 15 00 00 00
	00		 call	 DWORD PTR __imp__GetProcAddress@8
  00028	89 86 40 01 00
	00		 mov	 DWORD PTR [esi+320], eax

; 216  : 
; 217  : 		if(!pGetToggleState_DrawButton)

  0002e	85 c0		 test	 eax, eax
  00030	74 dc		 je	 SHORT $LN9@GetToggleS
$LN6@GetToggleS:

; 218  : 			return FALSE;
; 219  : 
; 220  : 		return pGetToggleState_DrawButton(m_lpPointer);

  00032	ff b6 0c 01 00
	00		 push	 DWORD PTR [esi+268]
  00038	ff d0		 call	 eax
  0003a	83 c4 04	 add	 esp, 4
  0003d	5e		 pop	 esi
; File D:\git\src\IBK\IBK_DRFN\ProjSrc\SrcDrfn\Chart\ExControl\ExDrawButton.cpp

; 94   : }

  0003e	c3		 ret	 0
?GetToggleState@CExDrawButton@@UAEHXZ ENDP		; CExDrawButton::GetToggleState
_TEXT	ENDS
; Function compile flags: /Ogtp
; File D:\git\src\IBK\IBK_DRFN\ProjSrc\SrcDrfn\Chart\ExControl\ExDrawButton.cpp
; File D:\git\src\IBK\IBK_DRFN\ProjSrc\SrcDrfn\Chart\ExControl\Include\LoadHelper.h
; File D:\git\src\IBK\IBK_DRFN\ProjSrc\SrcDrfn\Chart\ExControl\ExDrawButton.cpp
;	COMDAT ?UseToggleMode@CExDrawButton@@UAEXH@Z
_TEXT	SEGMENT
_bUse$ = 8						; size = 4
?UseToggleMode@CExDrawButton@@UAEXH@Z PROC		; CExDrawButton::UseToggleMode, COMDAT
; _this$ = ecx

; 87   : {

  00000	55		 push	 ebp
  00001	8b ec		 mov	 ebp, esp
  00003	56		 push	 esi

; 88   : 	m_pLoader->UseToggleMode(bUse);

  00004	8b b1 88 00 00
	00		 mov	 esi, DWORD PTR [ecx+136]
; File D:\git\src\IBK\IBK_DRFN\ProjSrc\SrcDrfn\Chart\ExControl\Include\LoadHelper.h

; 197  : 		if(!m_hLib)

  0000a	8b 4e 04	 mov	 ecx, DWORD PTR [esi+4]
  0000d	85 c9		 test	 ecx, ecx
  0000f	74 2e		 je	 SHORT $LN3@UseToggleM

; 198  : 			return;
; 199  : 
; 200  : 		if(!pUseToggleMode_DrawButton)

  00011	8b 86 3c 01 00
	00		 mov	 eax, DWORD PTR [esi+316]
  00017	85 c0		 test	 eax, eax
  00019	75 16		 jne	 SHORT $LN9@UseToggleM

; 201  : 			pUseToggleMode_DrawButton = (FpUseToggleMode_DrawButton)::GetProcAddress(m_hLib, "Ex_UseToggleMode_DrawButton");

  0001b	68 00 00 00 00	 push	 OFFSET ??_C@_0BM@HBHBHJMC@Ex_UseToggleMode_DrawButton@
  00020	51		 push	 ecx
  00021	ff 15 00 00 00
	00		 call	 DWORD PTR __imp__GetProcAddress@8
  00027	89 86 3c 01 00
	00		 mov	 DWORD PTR [esi+316], eax

; 202  : 
; 203  : 		if(!pUseToggleMode_DrawButton)

  0002d	85 c0		 test	 eax, eax
  0002f	74 0e		 je	 SHORT $LN3@UseToggleM
$LN9@UseToggleM:

; 204  : 			return;
; 205  : 
; 206  : 		pUseToggleMode_DrawButton(m_lpPointer, bUse);

  00031	ff 75 08	 push	 DWORD PTR _bUse$[ebp]
  00034	ff b6 0c 01 00
	00		 push	 DWORD PTR [esi+268]
  0003a	ff d0		 call	 eax
  0003c	83 c4 08	 add	 esp, 8
$LN3@UseToggleM:
  0003f	5e		 pop	 esi
; File D:\git\src\IBK\IBK_DRFN\ProjSrc\SrcDrfn\Chart\ExControl\ExDrawButton.cpp

; 89   : }

  00040	5d		 pop	 ebp
  00041	c2 04 00	 ret	 4
?UseToggleMode@CExDrawButton@@UAEXH@Z ENDP		; CExDrawButton::UseToggleMode
_TEXT	ENDS
; Function compile flags: /Ogtp
; File D:\git\src\IBK\IBK_DRFN\ProjSrc\SrcDrfn\Chart\ExControl\ExDrawButton.cpp
; File D:\git\src\IBK\IBK_DRFN\ProjSrc\SrcDrfn\Chart\ExControl\Include\LoadHelper.h
; File D:\git\src\IBK\IBK_DRFN\ProjSrc\SrcDrfn\Chart\ExControl\ExDrawButton.cpp
; File D:\git\src\IBK\IBK_DRFN\ProjSrc\SrcDrfn\Chart\ExControl\Include\LoadHelper.h
; File D:\git\src\IBK\IBK_DRFN\ProjSrc\SrcDrfn\Chart\ExControl\ExDrawButton.cpp
;	COMDAT ?GetText@CExDrawButton@@QAEPBDXZ
_TEXT	SEGMENT
?GetText@CExDrawButton@@QAEPBDXZ PROC			; CExDrawButton::GetText, COMDAT
; _this$ = ecx

; 83   : 	return m_pLoader->GetText();

  00000	8b 81 88 00 00
	00		 mov	 eax, DWORD PTR [ecx+136]
; File D:\git\src\IBK\IBK_DRFN\ProjSrc\SrcDrfn\Chart\ExControl\Include\LoadHelper.h

; 189  : 		if(!m_hLib)

  00006	83 78 04 00	 cmp	 DWORD PTR [eax+4], 0
  0000a	75 06		 jne	 SHORT $LN4@GetText
; File D:\git\src\IBK\IBK_DRFN\ProjSrc\SrcDrfn\Chart\ExControl\ExDrawButton.cpp

; 83   : 	return m_pLoader->GetText();

  0000c	b8 00 00 00 00	 mov	 eax, OFFSET ??_C@_00CNPNBAHC@@

; 84   : }

  00011	c3		 ret	 0
$LN4@GetText:
; File D:\git\src\IBK\IBK_DRFN\ProjSrc\SrcDrfn\Chart\ExControl\Include\LoadHelper.h

; 192  : 		return pGetText(m_lpPointer);

  00012	ff b0 0c 01 00
	00		 push	 DWORD PTR [eax+268]
  00018	8b 80 38 01 00
	00		 mov	 eax, DWORD PTR [eax+312]
  0001e	ff d0		 call	 eax
  00020	83 c4 04	 add	 esp, 4
; File D:\git\src\IBK\IBK_DRFN\ProjSrc\SrcDrfn\Chart\ExControl\ExDrawButton.cpp

; 84   : }

  00023	c3		 ret	 0
?GetText@CExDrawButton@@QAEPBDXZ ENDP			; CExDrawButton::GetText
_TEXT	ENDS
; Function compile flags: /Ogtp
; File D:\git\src\IBK\IBK_DRFN\ProjSrc\SrcDrfn\Chart\ExControl\ExDrawButton.cpp
; File D:\git\src\IBK\IBK_DRFN\ProjSrc\SrcDrfn\Chart\ExControl\Include\LoadHelper.h
; File D:\git\src\IBK\IBK_DRFN\ProjSrc\SrcDrfn\Chart\ExControl\ExDrawButton.cpp
;	COMDAT ?SetText@CExDrawButton@@QAEXPBD@Z
_TEXT	SEGMENT
_lpszText$ = 8						; size = 4
?SetText@CExDrawButton@@QAEXPBD@Z PROC			; CExDrawButton::SetText, COMDAT
; _this$ = ecx

; 49   : {

  00000	55		 push	 ebp
  00001	8b ec		 mov	 ebp, esp

; 50   : 	m_pLoader->SetText(lpszText);

  00003	8b 81 88 00 00
	00		 mov	 eax, DWORD PTR [ecx+136]
; File D:\git\src\IBK\IBK_DRFN\ProjSrc\SrcDrfn\Chart\ExControl\Include\LoadHelper.h

; 157  : 		if(!m_hLib)

  00009	83 78 04 00	 cmp	 DWORD PTR [eax+4], 0
  0000d	74 14		 je	 SHORT $LN3@SetText

; 158  : 			return;
; 159  : 
; 160  : 		pSetText(m_lpPointer, lpszText);

  0000f	ff 75 08	 push	 DWORD PTR _lpszText$[ebp]
  00012	ff b0 0c 01 00
	00		 push	 DWORD PTR [eax+268]
  00018	8b 80 28 01 00
	00		 mov	 eax, DWORD PTR [eax+296]
  0001e	ff d0		 call	 eax
  00020	83 c4 08	 add	 esp, 8
$LN3@SetText:
; File D:\git\src\IBK\IBK_DRFN\ProjSrc\SrcDrfn\Chart\ExControl\ExDrawButton.cpp

; 51   : }

  00023	5d		 pop	 ebp
  00024	c2 04 00	 ret	 4
?SetText@CExDrawButton@@QAEXPBD@Z ENDP			; CExDrawButton::SetText
_TEXT	ENDS
; Function compile flags: /Ogtp
; File D:\git\src\IBK\IBK_DRFN\ProjSrc\SrcDrfn\Chart\ExControl\ExDrawButton.cpp
; File D:\git\src\IBK\IBK_DRFN\ProjSrc\SrcDrfn\Chart\ExControl\Include\LoadHelper.h
; File D:\git\src\IBK\IBK_DRFN\ProjSrc\SrcDrfn\Chart\ExControl\ExDrawButton.cpp
; File D:\git\src\IBK\IBK_DRFN\ProjSrc\SrcDrfn\Chart\ExControl\Include\LoadHelper.h
; File D:\git\src\IBK\IBK_DRFN\ProjSrc\SrcDrfn\Chart\ExControl\ExDrawButton.cpp
;	COMDAT ?SetIconImage@CExDrawButton@@QAEHVCSize@@PAUHICON__@@1I@Z
_TEXT	SEGMENT
_size$ = 8						; size = 8
_hIcon$ = 16						; size = 4
_hIconPushed$ = 20					; size = 4
_nIconAlign$ = 24					; size = 4
?SetIconImage@CExDrawButton@@QAEHVCSize@@PAUHICON__@@1I@Z PROC ; CExDrawButton::SetIconImage, COMDAT
; _this$ = ecx

; 44   : {

  00000	55		 push	 ebp
  00001	8b ec		 mov	 ebp, esp

; 45   : 	return m_pLoader->SetIconImage(size, hIcon, hIconPushed, nIconAlign);

  00003	8b 81 88 00 00
	00		 mov	 eax, DWORD PTR [ecx+136]
; File D:\git\src\IBK\IBK_DRFN\ProjSrc\SrcDrfn\Chart\ExControl\Include\LoadHelper.h

; 165  : 		if(!m_hLib)

  00009	83 78 04 00	 cmp	 DWORD PTR [eax+4], 0
  0000d	75 06		 jne	 SHORT $LN4@SetIconIma
; File D:\git\src\IBK\IBK_DRFN\ProjSrc\SrcDrfn\Chart\ExControl\ExDrawButton.cpp

; 45   : 	return m_pLoader->SetIconImage(size, hIcon, hIconPushed, nIconAlign);

  0000f	33 c0		 xor	 eax, eax

; 46   : }

  00011	5d		 pop	 ebp
  00012	c2 14 00	 ret	 20			; 00000014H
$LN4@SetIconIma:
; File D:\git\src\IBK\IBK_DRFN\ProjSrc\SrcDrfn\Chart\ExControl\Include\LoadHelper.h

; 168  : 		return pSetIconImage(m_lpPointer, size, hIcon, hIconPushed, nIconAlign);

  00015	ff 75 18	 push	 DWORD PTR _nIconAlign$[ebp]
  00018	ff 75 14	 push	 DWORD PTR _hIconPushed$[ebp]
  0001b	ff 75 10	 push	 DWORD PTR _hIcon$[ebp]
  0001e	ff 75 0c	 push	 DWORD PTR _size$[ebp+4]
  00021	ff 75 08	 push	 DWORD PTR _size$[ebp]
  00024	ff b0 0c 01 00
	00		 push	 DWORD PTR [eax+268]
  0002a	8b 80 2c 01 00
	00		 mov	 eax, DWORD PTR [eax+300]
  00030	ff d0		 call	 eax
  00032	83 c4 18	 add	 esp, 24			; 00000018H
; File D:\git\src\IBK\IBK_DRFN\ProjSrc\SrcDrfn\Chart\ExControl\ExDrawButton.cpp

; 46   : }

  00035	5d		 pop	 ebp
  00036	c2 14 00	 ret	 20			; 00000014H
?SetIconImage@CExDrawButton@@QAEHVCSize@@PAUHICON__@@1I@Z ENDP ; CExDrawButton::SetIconImage
_TEXT	ENDS
; Function compile flags: /Ogtp
; File D:\git\src\IBK\IBK_DRFN\ProjSrc\SrcDrfn\Chart\ExControl\ExDrawButton.cpp
; File D:\git\src\IBK\IBK_DRFN\ProjSrc\SrcDrfn\Chart\ExControl\Include\LoadHelper.h
; File D:\git\src\IBK\IBK_DRFN\ProjSrc\SrcDrfn\Chart\ExControl\ExDrawButton.cpp
; File D:\git\src\IBK\IBK_DRFN\ProjSrc\SrcDrfn\Chart\ExControl\Include\LoadHelper.h
; File D:\git\src\IBK\IBK_DRFN\ProjSrc\SrcDrfn\Chart\ExControl\ExDrawButton.cpp
;	COMDAT ?SetButtonColor@CExDrawButton@@QAEHI@Z
_TEXT	SEGMENT
_nButton$ = 8						; size = 4
?SetButtonColor@CExDrawButton@@QAEHI@Z PROC		; CExDrawButton::SetButtonColor, COMDAT
; _this$ = ecx

; 70   : {

  00000	55		 push	 ebp
  00001	8b ec		 mov	 ebp, esp

; 71   : 	return m_pLoader->SetDrawButton(nButton);

  00003	8b 81 88 00 00
	00		 mov	 eax, DWORD PTR [ecx+136]
; File D:\git\src\IBK\IBK_DRFN\ProjSrc\SrcDrfn\Chart\ExControl\Include\LoadHelper.h

; 141  : 		if(!m_hLib)

  00009	83 78 04 00	 cmp	 DWORD PTR [eax+4], 0
  0000d	75 06		 jne	 SHORT $LN4@SetButtonC
; File D:\git\src\IBK\IBK_DRFN\ProjSrc\SrcDrfn\Chart\ExControl\ExDrawButton.cpp

; 71   : 	return m_pLoader->SetDrawButton(nButton);

  0000f	33 c0		 xor	 eax, eax

; 72   : }

  00011	5d		 pop	 ebp
  00012	c2 04 00	 ret	 4
$LN4@SetButtonC:
; File D:\git\src\IBK\IBK_DRFN\ProjSrc\SrcDrfn\Chart\ExControl\Include\LoadHelper.h

; 144  : 		return pSetDrawButton(m_lpPointer, nButton);

  00015	ff 75 08	 push	 DWORD PTR _nButton$[ebp]
  00018	ff b0 0c 01 00
	00		 push	 DWORD PTR [eax+268]
  0001e	8b 80 20 01 00
	00		 mov	 eax, DWORD PTR [eax+288]
  00024	ff d0		 call	 eax
  00026	83 c4 08	 add	 esp, 8
; File D:\git\src\IBK\IBK_DRFN\ProjSrc\SrcDrfn\Chart\ExControl\ExDrawButton.cpp

; 72   : }

  00029	5d		 pop	 ebp
  0002a	c2 04 00	 ret	 4
?SetButtonColor@CExDrawButton@@QAEHI@Z ENDP		; CExDrawButton::SetButtonColor
_TEXT	ENDS
; Function compile flags: /Ogtp
; File D:\git\src\IBK\IBK_DRFN\ProjSrc\SrcDrfn\Chart\ExControl\ExDrawButton.cpp
; File D:\git\src\IBK\IBK_DRFN\ProjSrc\SrcDrfn\Chart\ExControl\Include\LoadHelper.h
; File D:\git\src\IBK\IBK_DRFN\ProjSrc\SrcDrfn\Chart\ExControl\ExDrawButton.cpp
; File D:\git\src\IBK\IBK_DRFN\ProjSrc\SrcDrfn\Chart\ExControl\Include\LoadHelper.h
; File D:\git\src\IBK\IBK_DRFN\ProjSrc\SrcDrfn\Chart\ExControl\ExDrawButton.cpp
;	COMDAT ?ActionControl@CExDrawButton@@QAEJPAX@Z
_TEXT	SEGMENT
_lpAction$ = 8						; size = 4
?ActionControl@CExDrawButton@@QAEJPAX@Z PROC		; CExDrawButton::ActionControl, COMDAT
; _this$ = ecx

; 39   : {

  00000	55		 push	 ebp
  00001	8b ec		 mov	 ebp, esp

; 40   : 	return m_pLoader->ActionControl(lpAction);

  00003	8b 81 88 00 00
	00		 mov	 eax, DWORD PTR [ecx+136]
; File D:\git\src\IBK\IBK_DRFN\ProjSrc\SrcDrfn\Chart\ExControl\Include\LoadHelper.h

; 133  : 		if(!m_hLib)

  00009	83 78 04 00	 cmp	 DWORD PTR [eax+4], 0
  0000d	75 06		 jne	 SHORT $LN4@ActionCont
; File D:\git\src\IBK\IBK_DRFN\ProjSrc\SrcDrfn\Chart\ExControl\ExDrawButton.cpp

; 40   : 	return m_pLoader->ActionControl(lpAction);

  0000f	33 c0		 xor	 eax, eax

; 41   : }

  00011	5d		 pop	 ebp
  00012	c2 04 00	 ret	 4
$LN4@ActionCont:
; File D:\git\src\IBK\IBK_DRFN\ProjSrc\SrcDrfn\Chart\ExControl\Include\LoadHelper.h

; 136  : 		return pActionControl(m_lpPointer, lpAction);

  00015	ff 75 08	 push	 DWORD PTR _lpAction$[ebp]
  00018	ff b0 0c 01 00
	00		 push	 DWORD PTR [eax+268]
  0001e	8b 80 10 01 00
	00		 mov	 eax, DWORD PTR [eax+272]
  00024	ff d0		 call	 eax
  00026	83 c4 08	 add	 esp, 8
; File D:\git\src\IBK\IBK_DRFN\ProjSrc\SrcDrfn\Chart\ExControl\ExDrawButton.cpp

; 41   : }

  00029	5d		 pop	 ebp
  0002a	c2 04 00	 ret	 4
?ActionControl@CExDrawButton@@QAEJPAX@Z ENDP		; CExDrawButton::ActionControl
_TEXT	ENDS
; Function compile flags: /Ogtp
; File D:\git\src\IBK\IBK_DRFN\ProjSrc\SrcDrfn\Chart\ExControl\ExDrawButton.cpp
;	COMDAT ??0CExDrawButton@@QAE@H@Z
_TEXT	SEGMENT
$T2 = -20						; size = 4
_this$ = -16						; size = 4
__$EHRec$ = -12						; size = 12
_bUseDefSkin$ = 8					; size = 4
??0CExDrawButton@@QAE@H@Z PROC				; CExDrawButton::CExDrawButton, COMDAT
; _this$ = ecx

; 19   : {

  00000	55		 push	 ebp
  00001	8b ec		 mov	 ebp, esp
  00003	6a ff		 push	 -1
  00005	68 00 00 00 00	 push	 __ehhandler$??0CExDrawButton@@QAE@H@Z
  0000a	64 a1 00 00 00
	00		 mov	 eax, DWORD PTR fs:0
  00010	50		 push	 eax
  00011	83 ec 08	 sub	 esp, 8
  00014	56		 push	 esi
  00015	a1 00 00 00 00	 mov	 eax, DWORD PTR ___security_cookie
  0001a	33 c5		 xor	 eax, ebp
  0001c	50		 push	 eax
  0001d	8d 45 f4	 lea	 eax, DWORD PTR __$EHRec$[ebp]
  00020	64 a3 00 00 00
	00		 mov	 DWORD PTR fs:0, eax
  00026	8b f1		 mov	 esi, ecx
  00028	89 75 f0	 mov	 DWORD PTR _this$[ebp], esi
  0002b	e8 00 00 00 00	 call	 ??0CExButton@@QAE@XZ	; CExButton::CExButton

; 20   : 	m_pLoader = new CLoaderDrawButton(this, bUseDefSkin);

  00030	68 54 01 00 00	 push	 340			; 00000154H
  00035	c7 45 fc 00 00
	00 00		 mov	 DWORD PTR __$EHRec$[ebp+8], 0
  0003c	c7 06 00 00 00
	00		 mov	 DWORD PTR [esi], OFFSET ??_7CExDrawButton@@6B@
  00042	e8 00 00 00 00	 call	 ??2@YAPAXI@Z		; operator new
  00047	83 c4 04	 add	 esp, 4
  0004a	89 45 ec	 mov	 DWORD PTR $T2[ebp], eax
  0004d	c6 45 fc 01	 mov	 BYTE PTR __$EHRec$[ebp+8], 1
  00051	85 c0		 test	 eax, eax
  00053	74 0d		 je	 SHORT $LN3@CExDrawBut
  00055	ff 75 08	 push	 DWORD PTR _bUseDefSkin$[ebp]
  00058	8b c8		 mov	 ecx, eax
  0005a	56		 push	 esi
  0005b	e8 00 00 00 00	 call	 ??0CLoaderDrawButton@@QAE@PAXH@Z ; CLoaderDrawButton::CLoaderDrawButton
  00060	eb 02		 jmp	 SHORT $LN4@CExDrawBut
$LN3@CExDrawBut:
  00062	33 c0		 xor	 eax, eax
$LN4@CExDrawBut:
  00064	89 86 88 00 00
	00		 mov	 DWORD PTR [esi+136], eax

; 21   : 	m_posChangedSkin = NULL;
; 22   : }

  0006a	8b c6		 mov	 eax, esi
  0006c	c7 86 8c 00 00
	00 00 00 00 00	 mov	 DWORD PTR [esi+140], 0
  00076	8b 4d f4	 mov	 ecx, DWORD PTR __$EHRec$[ebp]
  00079	64 89 0d 00 00
	00 00		 mov	 DWORD PTR fs:0, ecx
  00080	59		 pop	 ecx
  00081	5e		 pop	 esi
  00082	8b e5		 mov	 esp, ebp
  00084	5d		 pop	 ebp
  00085	c2 04 00	 ret	 4
_TEXT	ENDS
;	COMDAT text$x
text$x	SEGMENT
__unwindfunclet$??0CExDrawButton@@QAE@H@Z$0:
  00000	8b 4d f0	 mov	 ecx, DWORD PTR _this$[ebp]
  00003	e9 00 00 00 00	 jmp	 ??1CExButton@@UAE@XZ	; CExButton::~CExButton
__unwindfunclet$??0CExDrawButton@@QAE@H@Z$1:
  00008	68 54 01 00 00	 push	 340			; 00000154H
  0000d	8b 45 ec	 mov	 eax, DWORD PTR $T2[ebp]
  00010	50		 push	 eax
  00011	e8 00 00 00 00	 call	 ??3@YAXPAXI@Z		; operator delete
  00016	83 c4 08	 add	 esp, 8
  00019	c3		 ret	 0
  0001a	cc		 int	 3
  0001b	cc		 int	 3
  0001c	cc		 int	 3
  0001d	cc		 int	 3
  0001e	cc		 int	 3
__ehhandler$??0CExDrawButton@@QAE@H@Z:
  0001f	90		 npad	 1
  00020	90		 npad	 1
  00021	8b 54 24 08	 mov	 edx, DWORD PTR [esp+8]
  00025	8d 42 0c	 lea	 eax, DWORD PTR [edx+12]
  00028	8b 4a f0	 mov	 ecx, DWORD PTR [edx-16]
  0002b	33 c8		 xor	 ecx, eax
  0002d	e8 00 00 00 00	 call	 @__security_check_cookie@4
  00032	b8 00 00 00 00	 mov	 eax, OFFSET __ehfuncinfo$??0CExDrawButton@@QAE@H@Z
  00037	e9 00 00 00 00	 jmp	 ___CxxFrameHandler3
text$x	ENDS
??0CExDrawButton@@QAE@H@Z ENDP				; CExDrawButton::CExDrawButton
; Function compile flags: /Ogtp
; File D:\git\src\IBK\IBK_DRFN\ProjSrc\SrcDrfn\Inc\IBaseDefine.h
;	COMDAT ??__ERMSG_SETPCTRDATA@@YAXXZ
text$di	SEGMENT
??__ERMSG_SETPCTRDATA@@YAXXZ PROC			; `dynamic initializer for 'RMSG_SETPCTRDATA'', COMDAT

; 172  : const UINT RMSG_SETPCTRDATA = ::RegisterWindowMessage("RMSG_SETPCTRDATA");

  00000	68 00 00 00 00	 push	 OFFSET ??_C@_0BB@JPACFCL@RMSG_SETPCTRDATA@
  00005	ff 15 00 00 00
	00		 call	 DWORD PTR __imp__RegisterWindowMessageA@4
  0000b	a3 00 00 00 00	 mov	 DWORD PTR ?RMSG_SETPCTRDATA@@3IB, eax
  00010	c3		 ret	 0
??__ERMSG_SETPCTRDATA@@YAXXZ ENDP			; `dynamic initializer for 'RMSG_SETPCTRDATA''
text$di	ENDS
; Function compile flags: /Ogtp
; File D:\git\src\IBK\IBK_DRFN\ProjSrc\SrcDrfn\Inc\IBaseDefine.h
;	COMDAT ??__ERMSG_GETPCTRDATA@@YAXXZ
text$di	SEGMENT
??__ERMSG_GETPCTRDATA@@YAXXZ PROC			; `dynamic initializer for 'RMSG_GETPCTRDATA'', COMDAT

; 171  : const UINT RMSG_GETPCTRDATA = ::RegisterWindowMessage("RMSG_GETPCTRDATA");

  00000	68 00 00 00 00	 push	 OFFSET ??_C@_0BB@GOOPDKI@RMSG_GETPCTRDATA@
  00005	ff 15 00 00 00
	00		 call	 DWORD PTR __imp__RegisterWindowMessageA@4
  0000b	a3 00 00 00 00	 mov	 DWORD PTR ?RMSG_GETPCTRDATA@@3IB, eax
  00010	c3		 ret	 0
??__ERMSG_GETPCTRDATA@@YAXXZ ENDP			; `dynamic initializer for 'RMSG_GETPCTRDATA''
text$di	ENDS
; Function compile flags: /Ogtp
; File D:\git\src\IBK\IBK_DRFN\ProjSrc\SrcDrfn\Inc\IBaseDefine.h
;	COMDAT ??__ERMSG_INTERFACE@@YAXXZ
text$di	SEGMENT
??__ERMSG_INTERFACE@@YAXXZ PROC				; `dynamic initializer for 'RMSG_INTERFACE'', COMDAT

; 170  : const UINT RMSG_INTERFACE = ::RegisterWindowMessage("RMSG_INTERFACE");

  00000	68 00 00 00 00	 push	 OFFSET ??_C@_0P@BKKCOCLK@RMSG_INTERFACE@
  00005	ff 15 00 00 00
	00		 call	 DWORD PTR __imp__RegisterWindowMessageA@4
  0000b	a3 00 00 00 00	 mov	 DWORD PTR ?RMSG_INTERFACE@@3IB, eax
  00010	c3		 ret	 0
??__ERMSG_INTERFACE@@YAXXZ ENDP				; `dynamic initializer for 'RMSG_INTERFACE''
text$di	ENDS
; Function compile flags: /Ogtp
; File C:\Program Files (x86)\Microsoft Visual Studio\2019\Community\VC\Tools\MSVC\14.29.30133\atlmfc\include\afxwin2.inl
;	COMDAT ?EndModalState@CWnd@@UAEXXZ
_TEXT	SEGMENT
?EndModalState@CWnd@@UAEXXZ PROC			; CWnd::EndModalState, COMDAT
; _this$ = ecx

; 567  : 	{ ::EnableWindow(m_hWnd, TRUE); }

  00000	6a 01		 push	 1
  00002	ff 71 20	 push	 DWORD PTR [ecx+32]
  00005	ff 15 00 00 00
	00		 call	 DWORD PTR __imp__EnableWindow@8
  0000b	c3		 ret	 0
?EndModalState@CWnd@@UAEXXZ ENDP			; CWnd::EndModalState
_TEXT	ENDS
; Function compile flags: /Ogtp
; File C:\Program Files (x86)\Microsoft Visual Studio\2019\Community\VC\Tools\MSVC\14.29.30133\atlmfc\include\afxwin2.inl
;	COMDAT ?BeginModalState@CWnd@@UAEXXZ
_TEXT	SEGMENT
?BeginModalState@CWnd@@UAEXXZ PROC			; CWnd::BeginModalState, COMDAT
; _this$ = ecx

; 565  : 	{ ::EnableWindow(m_hWnd, FALSE); }

  00000	6a 00		 push	 0
  00002	ff 71 20	 push	 DWORD PTR [ecx+32]
  00005	ff 15 00 00 00
	00		 call	 DWORD PTR __imp__EnableWindow@8
  0000b	c3		 ret	 0
?BeginModalState@CWnd@@UAEXXZ ENDP			; CWnd::BeginModalState
_TEXT	ENDS
; Function compile flags: /Ogtp
; File C:\Program Files (x86)\Microsoft Visual Studio\2019\Community\VC\Tools\MSVC\14.29.30133\atlmfc\include\afxwin2.inl
;	COMDAT ?DoDataExchange@CWnd@@MAEXPAVCDataExchange@@@Z
_TEXT	SEGMENT
___formal$ = 8						; size = 4
?DoDataExchange@CWnd@@MAEXPAVCDataExchange@@@Z PROC	; CWnd::DoDataExchange, COMDAT
; _this$ = ecx

; 561  : 	{ } // default does nothing

  00000	c2 04 00	 ret	 4
?DoDataExchange@CWnd@@MAEXPAVCDataExchange@@@Z ENDP	; CWnd::DoDataExchange
_TEXT	ENDS
; Function compile flags: /Ogtp
; File C:\Program Files (x86)\Microsoft Visual Studio\2019\Community\VC\Tools\MSVC\14.29.30133\atlmfc\include\afx.inl
;	COMDAT ?Dump@CObject@@UBEXAAVCDumpContext@@@Z
_TEXT	SEGMENT
___formal$ = 8						; size = 4
?Dump@CObject@@UBEXAAVCDumpContext@@@Z PROC		; CObject::Dump, COMDAT
; _this$ = ecx

; 122  : 	{ /* no dumping in release builds */ }

  00000	c2 04 00	 ret	 4
?Dump@CObject@@UBEXAAVCDumpContext@@@Z ENDP		; CObject::Dump
_TEXT	ENDS
; Function compile flags: /Ogtp
; File C:\Program Files (x86)\Microsoft Visual Studio\2019\Community\VC\Tools\MSVC\14.29.30133\atlmfc\include\afx.inl
;	COMDAT ?AssertValid@CObject@@UBEXXZ
_TEXT	SEGMENT
?AssertValid@CObject@@UBEXXZ PROC			; CObject::AssertValid, COMDAT
; _this$ = ecx

; 120  : 	{ /* no asserts in release builds */ }

  00000	c2 00 00	 ret	 0
?AssertValid@CObject@@UBEXXZ ENDP			; CObject::AssertValid
_TEXT	ENDS
; Function compile flags: /Ogtp
; File C:\Program Files (x86)\Microsoft Visual Studio\2019\Community\VC\Tools\MSVC\14.29.30133\atlmfc\include\afx.inl
;	COMDAT ?Serialize@CObject@@UAEXAAVCArchive@@@Z
_TEXT	SEGMENT
___formal$ = 8						; size = 4
?Serialize@CObject@@UAEXAAVCArchive@@@Z PROC		; CObject::Serialize, COMDAT
; _this$ = ecx

; 106  : 	{ /* CObject does not serialize anything by default */ }

  00000	c2 04 00	 ret	 4
?Serialize@CObject@@UAEXAAVCArchive@@@Z ENDP		; CObject::Serialize
_TEXT	ENDS
; Function compile flags: /Ogtp
; File C:\Program Files (x86)\Windows Kits\10\Include\10.0.22000.0\ucrt\stdio.h
;	COMDAT _sprintf
_TEXT	SEGMENT
__Buffer$ = 8						; size = 4
__Format$ = 12						; size = 4
_sprintf PROC						; COMDAT

; 1771 :     {

  00000	55		 push	 ebp
  00001	8b ec		 mov	 ebp, esp

; 1392 :         int const _Result = __stdio_common_vsprintf(

  00003	8d 45 10	 lea	 eax, DWORD PTR __Format$[ebp+4]
  00006	50		 push	 eax
  00007	6a 00		 push	 0
  00009	ff 75 0c	 push	 DWORD PTR __Format$[ebp]
  0000c	6a ff		 push	 -1
  0000e	ff 75 08	 push	 DWORD PTR __Buffer$[ebp]
  00011	e8 00 00 00 00	 call	 ___local_stdio_printf_options
  00016	8b 08		 mov	 ecx, DWORD PTR [eax]
  00018	ff 70 04	 push	 DWORD PTR [eax+4]
  0001b	83 c9 01	 or	 ecx, 1
  0001e	51		 push	 ecx
  0001f	ff 15 00 00 00
	00		 call	 DWORD PTR __imp____stdio_common_vsprintf

; 1393 :             _CRT_INTERNAL_LOCAL_PRINTF_OPTIONS | _CRT_INTERNAL_PRINTF_LEGACY_VSPRINTF_NULL_TERMINATION,
; 1394 :             _Buffer, _BufferCount, _Format, _Locale, _ArgList);
; 1395 : 
; 1396 :         return _Result < 0 ? -1 : _Result;

  00025	83 c9 ff	 or	 ecx, -1
  00028	83 c4 1c	 add	 esp, 28			; 0000001cH
  0002b	85 c0		 test	 eax, eax
  0002d	0f 48 c1	 cmovs	 eax, ecx

; 1772 :         int _Result;
; 1773 :         va_list _ArgList;
; 1774 :         __crt_va_start(_ArgList, _Format);
; 1775 : 
; 1776 :         _Result = _vsprintf_l(_Buffer, _Format, NULL, _ArgList);
; 1777 : 
; 1778 :         __crt_va_end(_ArgList);
; 1779 :         return _Result;
; 1780 :     }

  00030	5d		 pop	 ebp
  00031	c3		 ret	 0
_sprintf ENDP
_TEXT	ENDS
; Function compile flags: /Ogtp
; File C:\Program Files (x86)\Windows Kits\10\Include\10.0.22000.0\ucrt\corecrt_stdio_config.h
;	COMDAT ___local_stdio_printf_options
_TEXT	SEGMENT
___local_stdio_printf_options PROC			; COMDAT

; 91   :         static unsigned __int64 _OptionsStorage;
; 92   :         return &_OptionsStorage;

  00000	b8 00 00 00 00	 mov	 eax, OFFSET ?_OptionsStorage@?1??__local_stdio_printf_options@@9@4_KA ; `__local_stdio_printf_options'::`2'::_OptionsStorage

; 93   :     }

  00005	c3		 ret	 0
___local_stdio_printf_options ENDP
_TEXT	ENDS
; Function compile flags: /Ogtp
; File D:\git\src\IBK\IBK_DRFN\ProjSrc\SrcDrfn\Chart\ExControl\ExDrawButton.cpp
;	COMDAT ?__empty_global_delete@@YAXPAXI@Z
_TEXT	SEGMENT
___formal$ = 8						; size = 4
___formal$ = 12						; size = 4
?__empty_global_delete@@YAXPAXI@Z PROC			; __empty_global_delete, COMDAT

  00000	c2 00 00	 ret	 0
?__empty_global_delete@@YAXPAXI@Z ENDP			; __empty_global_delete
_TEXT	ENDS
; Function compile flags: /Ogtp
; File D:\git\src\IBK\IBK_DRFN\ProjSrc\SrcDrfn\Chart\ExControl\ExDrawButton.cpp
;	COMDAT ?__empty_global_delete@@YAXPAX@Z
_TEXT	SEGMENT
___formal$ = 8						; size = 4
?__empty_global_delete@@YAXPAX@Z PROC			; __empty_global_delete, COMDAT

  00000	c2 00 00	 ret	 0
?__empty_global_delete@@YAXPAX@Z ENDP			; __empty_global_delete
_TEXT	ENDS
END
