; Listing generated by Microsoft (R) Optimizing Compiler Version 19.29.30145.0 

	TITLE	D:\git\src\IBK\IBK_DRFN\#DRfn-CS\_Obj\ExControl\ExListCtrl.obj
	.686P
	.XMM
	include listing.inc
	.model	flat

INCLUDELIB MSVCRT
INCLUDELIB OLDNAMES

PUBLIC	?__empty_global_delete@@YAXPAX@Z		; __empty_global_delete
PUBLIC	?__empty_global_delete@@YAXPAXI@Z		; __empty_global_delete
PUBLIC	___local_stdio_printf_options
PUBLIC	_sprintf
PUBLIC	?Serialize@CObject@@UAEXAAVCArchive@@@Z		; CObject::Serialize
PUBLIC	?AssertValid@CObject@@UBEXXZ			; CObject::AssertValid
PUBLIC	?Dump@CObject@@UBEXAAVCDumpContext@@@Z		; CObject::Dump
PUBLIC	?DoDataExchange@CWnd@@MAEXPAVCDataExchange@@@Z	; CWnd::DoDataExchange
PUBLIC	?BeginModalState@CWnd@@UAEXXZ			; CWnd::BeginModalState
PUBLIC	?EndModalState@CWnd@@UAEXXZ			; CWnd::EndModalState
PUBLIC	??_GCListCtrl@@UAEPAXI@Z			; CListCtrl::`scalar deleting destructor'
PUBLIC	??0CExListCtrl@@QAE@H@Z				; CExListCtrl::CExListCtrl
PUBLIC	?DisableColumnSizing@CExListCtrl@@QAEXH@Z	; CExListCtrl::DisableColumnSizing
PUBLIC	?SetRowHeight@CExListCtrl@@QAEXH@Z		; CExListCtrl::SetRowHeight
PUBLIC	?SetAutoColSize@CExListCtrl@@QAEXH@Z		; CExListCtrl::SetAutoColSize
PUBLIC	?SetTwotoneRowColor@CExListCtrl@@QAEXH@Z	; CExListCtrl::SetTwotoneRowColor
PUBLIC	?PreSubclassWindow@CExListCtrl@@MAEXXZ		; CExListCtrl::PreSubclassWindow
PUBLIC	?OnNotify@CExListCtrl@@MAEHIJPAJ@Z		; CExListCtrl::OnNotify
PUBLIC	??1CExListCtrl@@UAE@XZ				; CExListCtrl::~CExListCtrl
PUBLIC	?DrawItem@CExListCtrl@@MAEXPAUtagDRAWITEMSTRUCT@@@Z ; CExListCtrl::DrawItem
PUBLIC	?OnDestroy@CExListCtrl@@IAEXXZ			; CExListCtrl::OnDestroy
PUBLIC	?OnEraseBkgnd@CExListCtrl@@IAEHPAVCDC@@@Z	; CExListCtrl::OnEraseBkgnd
PUBLIC	?GetThisMessageMap@CExListCtrl@@KGPBUAFX_MSGMAP@@XZ ; CExListCtrl::GetThisMessageMap
PUBLIC	?GetMessageMap@CExListCtrl@@MBEPBUAFX_MSGMAP@@XZ ; CExListCtrl::GetMessageMap
PUBLIC	??_GCExListCtrl@@UAEPAXI@Z			; CExListCtrl::`scalar deleting destructor'
PUBLIC	??1CExLoadLib@@QAE@XZ				; CExLoadLib::~CExLoadLib
PUBLIC	?LoadProcAddress@CExLoadLib@@UAEHXZ		; CExLoadLib::LoadProcAddress
PUBLIC	??0CLoaderListCtrl@@QAE@PAXH@Z			; CLoaderListCtrl::CLoaderListCtrl
PUBLIC	??1CLoaderListCtrl@@UAE@XZ			; CLoaderListCtrl::~CLoaderListCtrl
PUBLIC	?LoadProcAddress@CLoaderListCtrl@@UAEHXZ	; CLoaderListCtrl::LoadProcAddress
PUBLIC	??_GCLoaderListCtrl@@UAEPAXI@Z			; CLoaderListCtrl::`scalar deleting destructor'
PUBLIC	??_9CExListCtrl@@$BBGM@AE			; CExListCtrl::`vcall'{364}'
PUBLIC	?_OptionsStorage@?1??__local_stdio_printf_options@@9@4_KA ; `__local_stdio_printf_options'::`2'::_OptionsStorage
PUBLIC	??_7CListCtrl@@6B@				; CListCtrl::`vftable'
PUBLIC	??_R0?AVCObject@@@8				; CObject `RTTI Type Descriptor'
PUBLIC	??_R3CObject@@8					; CObject::`RTTI Class Hierarchy Descriptor'
PUBLIC	??_R2CObject@@8					; CObject::`RTTI Base Class Array'
PUBLIC	??_R1A@?0A@EA@CObject@@8			; CObject::`RTTI Base Class Descriptor at (0,-1,0,64)'
PUBLIC	??_R1A@?0A@EA@CWnd@@8				; CWnd::`RTTI Base Class Descriptor at (0,-1,0,64)'
PUBLIC	??_R0?AVCWnd@@@8				; CWnd `RTTI Type Descriptor'
PUBLIC	??_R3CWnd@@8					; CWnd::`RTTI Class Hierarchy Descriptor'
PUBLIC	??_R2CWnd@@8					; CWnd::`RTTI Base Class Array'
PUBLIC	??_R1A@?0A@EA@CCmdTarget@@8			; CCmdTarget::`RTTI Base Class Descriptor at (0,-1,0,64)'
PUBLIC	??_R0?AVCCmdTarget@@@8				; CCmdTarget `RTTI Type Descriptor'
PUBLIC	??_R3CCmdTarget@@8				; CCmdTarget::`RTTI Class Hierarchy Descriptor'
PUBLIC	??_R2CCmdTarget@@8				; CCmdTarget::`RTTI Base Class Array'
PUBLIC	??_R4CListCtrl@@6B@				; CListCtrl::`RTTI Complete Object Locator'
PUBLIC	??_R0?AVCListCtrl@@@8				; CListCtrl `RTTI Type Descriptor'
PUBLIC	??_R3CListCtrl@@8				; CListCtrl::`RTTI Class Hierarchy Descriptor'
PUBLIC	??_R2CListCtrl@@8				; CListCtrl::`RTTI Base Class Array'
PUBLIC	??_R1A@?0A@EA@CListCtrl@@8			; CListCtrl::`RTTI Base Class Descriptor at (0,-1,0,64)'
PUBLIC	??_7CExListCtrl@@6B@				; CExListCtrl::`vftable'
PUBLIC	??_7CExLoadLib@@6B@				; CExLoadLib::`vftable'
PUBLIC	??_C@_0CD@INEDAMEN@DLL?$FL?$CFs?$FN?$MA?$LL?5Load?G?R?5?$LM?v?5?$LO?x?$LN?$MA?$LE?O?$LE?Y?4?5?$FL@ ; `string'
PUBLIC	??_C@_04OHDBDCPJ@?2Dev@				; `string'
PUBLIC	??_C@_05BMGBEOOC@?$CFs?2?$CFs@			; `string'
PUBLIC	??_C@_0BB@JBDOCKKP@Ex_ActionControl@		; `string'
PUBLIC	??_C@_0BJ@LGMPMCJG@Ex_GetSkinNotifyFunction@	; `string'
PUBLIC	??_C@_0BA@IAGOHFI@Ex_OnEraseBkgnd@		; `string'
PUBLIC	??_7CLoaderListCtrl@@6B@			; CLoaderListCtrl::`vftable'
PUBLIC	??_C@_0P@ILDMLCBB@ExListCtrl?4dll@		; `string'
PUBLIC	??_C@_0BA@HGPEONMO@Ex_ExitListCtrl@		; `string'
PUBLIC	??_C@_0BA@PGLBMCJ@Ex_InitListCtrl@		; `string'
PUBLIC	??_C@_0BB@KPMNKHAB@Ex_InitListCtrl2@		; `string'
PUBLIC	??_C@_0BA@OGLJBKOA@Ex_OnDestroyPre@		; `string'
PUBLIC	??_C@_0BH@MCPBNOIE@Ex_DisableColumnSizing@	; `string'
PUBLIC	??_C@_0BE@DIEFKEEA@Ex_DrawItemListCtrl@		; `string'
PUBLIC	??_C@_0BN@PNBHFIMG@Ex_PreSubclassWindowListCtrl@ ; `string'
PUBLIC	??_C@_0BE@CACJKEIF@Ex_OnNotifyListCtrl@		; `string'
PUBLIC	??_C@_0BD@JBADKGIL@Ex_SetHeaderHeight@		; `string'
PUBLIC	??_C@_0BA@DNFEEOEC@Ex_SetRowHeight@		; `string'
PUBLIC	??_C@_0BC@GKDDFBPH@Ex_SetAutoColSize@		; `string'
PUBLIC	??_C@_0BG@BEPJAMBM@Ex_SetTwotoneRowColor@	; `string'
PUBLIC	??_R4CLoaderListCtrl@@6B@			; CLoaderListCtrl::`RTTI Complete Object Locator'
PUBLIC	??_R0?AVCLoaderListCtrl@@@8			; CLoaderListCtrl `RTTI Type Descriptor'
PUBLIC	??_R3CLoaderListCtrl@@8				; CLoaderListCtrl::`RTTI Class Hierarchy Descriptor'
PUBLIC	??_R2CLoaderListCtrl@@8				; CLoaderListCtrl::`RTTI Base Class Array'
PUBLIC	??_R1A@?0A@EA@CLoaderListCtrl@@8		; CLoaderListCtrl::`RTTI Base Class Descriptor at (0,-1,0,64)'
PUBLIC	??_R1A@?0A@EA@CExLoadLib@@8			; CExLoadLib::`RTTI Base Class Descriptor at (0,-1,0,64)'
PUBLIC	??_R0?AVCExLoadLib@@@8				; CExLoadLib `RTTI Type Descriptor'
PUBLIC	??_R3CExLoadLib@@8				; CExLoadLib::`RTTI Class Hierarchy Descriptor'
PUBLIC	??_R2CExLoadLib@@8				; CExLoadLib::`RTTI Base Class Array'
PUBLIC	??_R4CExListCtrl@@6B@				; CExListCtrl::`RTTI Complete Object Locator'
PUBLIC	??_R0?AVCExListCtrl@@@8				; CExListCtrl `RTTI Type Descriptor'
PUBLIC	??_R3CExListCtrl@@8				; CExListCtrl::`RTTI Class Hierarchy Descriptor'
PUBLIC	??_R2CExListCtrl@@8				; CExListCtrl::`RTTI Base Class Array'
PUBLIC	??_R1A@?0A@EA@CExListCtrl@@8			; CExListCtrl::`RTTI Base Class Descriptor at (0,-1,0,64)'
PUBLIC	??_R4CExLoadLib@@6B@				; CExLoadLib::`RTTI Complete Object Locator'
EXTRN	??2@YAPAXI@Z:PROC				; operator new
EXTRN	??3@YAXPAX@Z:PROC				; operator delete
EXTRN	??3@YAXPAXI@Z:PROC				; operator delete
EXTRN	?__global_delete@@YAXPAXI@Z:PROC		; __global_delete
EXTRN	___std_terminate:PROC
EXTRN	__imp__GetLastError@0:PROC
EXTRN	__imp__FreeLibrary@4:PROC
EXTRN	__imp__GetModuleFileNameA@12:PROC
EXTRN	__imp__GetProcAddress@8:PROC
EXTRN	__imp__LoadLibraryA@4:PROC
EXTRN	__imp__EnableWindow@8:PROC
EXTRN	__imp____stdio_common_vsprintf:PROC
EXTRN	__imp_??0?$CStringT@DV?$StrTraitMFC_DLL@DV?$ChTraitsCRT@D@ATL@@@@@ATL@@QAE@XZ:PROC
EXTRN	__imp_??1?$CStringT@DV?$StrTraitMFC_DLL@DV?$ChTraitsCRT@D@ATL@@@@@ATL@@QAE@XZ:PROC
EXTRN	__imp_??4?$CStringT@DV?$StrTraitMFC_DLL@DV?$ChTraitsCRT@D@ATL@@@@@ATL@@QAEAAV01@ABV01@@Z:PROC
EXTRN	__imp_??4?$CStringT@DV?$StrTraitMFC_DLL@DV?$ChTraitsCRT@D@ATL@@@@@ATL@@QAEAAV01@PBD@Z:PROC
EXTRN	__imp_??Y?$CStringT@DV?$StrTraitMFC_DLL@DV?$ChTraitsCRT@D@ATL@@@@@ATL@@QAEAAV01@PBD@Z:PROC
EXTRN	__imp_?ReverseFind@?$CStringT@DV?$StrTraitMFC_DLL@DV?$ChTraitsCRT@D@ATL@@@@@ATL@@QBEHD@Z:PROC
EXTRN	__imp_?Left@?$CStringT@DV?$StrTraitMFC_DLL@DV?$ChTraitsCRT@D@ATL@@@@@ATL@@QBE?AV12@H@Z:PROC
EXTRN	?OnCmdMsg@CCmdTarget@@UAEHIHPAXPAUAFX_CMDHANDLERINFO@@@Z:PROC ; CCmdTarget::OnCmdMsg
EXTRN	?IsInvokeAllowed@CCmdTarget@@UAEHJ@Z:PROC	; CCmdTarget::IsInvokeAllowed
EXTRN	?GetDispatchIID@CCmdTarget@@UAEHPAU_GUID@@@Z:PROC ; CCmdTarget::GetDispatchIID
EXTRN	?GetTypeInfoCount@CCmdTarget@@UAEIXZ:PROC	; CCmdTarget::GetTypeInfoCount
EXTRN	?GetTypeLibCache@CCmdTarget@@UAEPAVCTypeLibCache@@XZ:PROC ; CCmdTarget::GetTypeLibCache
EXTRN	?GetTypeLib@CCmdTarget@@UAEJKPAPAUITypeLib@@@Z:PROC ; CCmdTarget::GetTypeLib
EXTRN	?GetCommandMap@CCmdTarget@@MBEPBUAFX_OLECMDMAP@@XZ:PROC ; CCmdTarget::GetCommandMap
EXTRN	?GetDispatchMap@CCmdTarget@@MBEPBUAFX_DISPMAP@@XZ:PROC ; CCmdTarget::GetDispatchMap
EXTRN	?GetConnectionMap@CCmdTarget@@MBEPBUAFX_CONNECTIONMAP@@XZ:PROC ; CCmdTarget::GetConnectionMap
EXTRN	?GetEventSinkMap@CCmdTarget@@MBEPBUAFX_EVENTSINKMAP@@XZ:PROC ; CCmdTarget::GetEventSinkMap
EXTRN	?OnCreateAggregates@CCmdTarget@@UAEHXZ:PROC	; CCmdTarget::OnCreateAggregates
EXTRN	?GetInterfaceHook@CCmdTarget@@UAEPAUIUnknown@@PBX@Z:PROC ; CCmdTarget::GetInterfaceHook
EXTRN	?GetExtraConnectionPoints@CCmdTarget@@MAEHPAVCPtrArray@@@Z:PROC ; CCmdTarget::GetExtraConnectionPoints
EXTRN	?GetConnectionHook@CCmdTarget@@MAEPAUIConnectionPoint@@ABU_GUID@@@Z:PROC ; CCmdTarget::GetConnectionHook
EXTRN	??0CWnd@@QAE@XZ:PROC				; CWnd::CWnd
EXTRN	?PreSubclassWindow@CWnd@@UAEXXZ:PROC		; CWnd::PreSubclassWindow
EXTRN	?Create@CWnd@@UAEHPBD0KABUtagRECT@@PAV1@IPAUCCreateContext@@@Z:PROC ; CWnd::Create
EXTRN	?CreateEx@CWnd@@UAEHKPBD0KHHHHPAUHWND__@@PAUHMENU__@@PAX@Z:PROC ; CWnd::CreateEx
EXTRN	?CreateEx@CWnd@@UAEHKPBD0KABUtagRECT@@PAV1@IPAX@Z:PROC ; CWnd::CreateEx
EXTRN	?DestroyWindow@CWnd@@UAEHXZ:PROC		; CWnd::DestroyWindow
EXTRN	?PreCreateWindow@CWnd@@UAEHAAUtagCREATESTRUCTA@@@Z:PROC ; CWnd::PreCreateWindow
EXTRN	?CalcWindowRect@CWnd@@UAEXPAUtagRECT@@I@Z:PROC	; CWnd::CalcWindowRect
EXTRN	?GetMenu@CWnd@@UBEPAVCMenu@@XZ:PROC		; CWnd::GetMenu
EXTRN	?SetMenu@CWnd@@UAEHPAVCMenu@@@Z:PROC		; CWnd::SetMenu
EXTRN	?OnToolHitTest@CWnd@@UBEHVCPoint@@PAUtagTOOLINFOA@@@Z:PROC ; CWnd::OnToolHitTest
EXTRN	?GetScrollBarCtrl@CWnd@@UBEPAVCScrollBar@@H@Z:PROC ; CWnd::GetScrollBarCtrl
EXTRN	?WinHelpA@CWnd@@UAEXKI@Z:PROC			; CWnd::WinHelpA
EXTRN	?HtmlHelpA@CWnd@@UAEXKI@Z:PROC			; CWnd::HtmlHelpA
EXTRN	?WinHelpInternal@CWnd@@UAEXKI@Z:PROC		; CWnd::WinHelpInternal
EXTRN	?ContinueModal@CWnd@@UAEHXZ:PROC		; CWnd::ContinueModal
EXTRN	?EndModalLoop@CWnd@@UAEXH@Z:PROC		; CWnd::EndModalLoop
EXTRN	?OnDrawIconicThumbnailOrLivePreview@CWnd@@UAEXAAVCDC@@VCRect@@VCSize@@HAAH@Z:PROC ; CWnd::OnDrawIconicThumbnailOrLivePreview
EXTRN	?GetInterfaceMap@CWnd@@MBEPBUAFX_INTERFACEMAP@@XZ:PROC ; CWnd::GetInterfaceMap
EXTRN	?EnsureStdObj@CWnd@@UAEJXZ:PROC			; CWnd::EnsureStdObj
EXTRN	?get_accParent@CWnd@@UAEJPAPAUIDispatch@@@Z:PROC ; CWnd::get_accParent
EXTRN	?get_accChildCount@CWnd@@UAEJPAJ@Z:PROC		; CWnd::get_accChildCount
EXTRN	?get_accChild@CWnd@@UAEJUtagVARIANT@@PAPAUIDispatch@@@Z:PROC ; CWnd::get_accChild
EXTRN	?get_accName@CWnd@@UAEJUtagVARIANT@@PAPA_W@Z:PROC ; CWnd::get_accName
EXTRN	?get_accValue@CWnd@@UAEJUtagVARIANT@@PAPA_W@Z:PROC ; CWnd::get_accValue
EXTRN	?get_accDescription@CWnd@@UAEJUtagVARIANT@@PAPA_W@Z:PROC ; CWnd::get_accDescription
EXTRN	?get_accRole@CWnd@@UAEJUtagVARIANT@@PAU2@@Z:PROC ; CWnd::get_accRole
EXTRN	?get_accState@CWnd@@UAEJUtagVARIANT@@PAU2@@Z:PROC ; CWnd::get_accState
EXTRN	?get_accHelp@CWnd@@UAEJUtagVARIANT@@PAPA_W@Z:PROC ; CWnd::get_accHelp
EXTRN	?get_accHelpTopic@CWnd@@UAEJPAPA_WUtagVARIANT@@PAJ@Z:PROC ; CWnd::get_accHelpTopic
EXTRN	?get_accKeyboardShortcut@CWnd@@UAEJUtagVARIANT@@PAPA_W@Z:PROC ; CWnd::get_accKeyboardShortcut
EXTRN	?get_accFocus@CWnd@@UAEJPAUtagVARIANT@@@Z:PROC	; CWnd::get_accFocus
EXTRN	?get_accSelection@CWnd@@UAEJPAUtagVARIANT@@@Z:PROC ; CWnd::get_accSelection
EXTRN	?get_accDefaultAction@CWnd@@UAEJUtagVARIANT@@PAPA_W@Z:PROC ; CWnd::get_accDefaultAction
EXTRN	?accSelect@CWnd@@UAEJJUtagVARIANT@@@Z:PROC	; CWnd::accSelect
EXTRN	?accLocation@CWnd@@UAEJPAJ000UtagVARIANT@@@Z:PROC ; CWnd::accLocation
EXTRN	?accNavigate@CWnd@@UAEJJUtagVARIANT@@PAU2@@Z:PROC ; CWnd::accNavigate
EXTRN	?accHitTest@CWnd@@UAEJJJPAUtagVARIANT@@@Z:PROC	; CWnd::accHitTest
EXTRN	?accDoDefaultAction@CWnd@@UAEJUtagVARIANT@@@Z:PROC ; CWnd::accDoDefaultAction
EXTRN	?put_accName@CWnd@@UAEJUtagVARIANT@@PA_W@Z:PROC	; CWnd::put_accName
EXTRN	?put_accValue@CWnd@@UAEJUtagVARIANT@@PA_W@Z:PROC ; CWnd::put_accValue
EXTRN	?SetProxy@CWnd@@UAEJPAUIAccessibleProxy@@@Z:PROC ; CWnd::SetProxy
EXTRN	?CreateAccessibleProxy@CWnd@@UAEJIJPAJ@Z:PROC	; CWnd::CreateAccessibleProxy
EXTRN	?OnCommand@CWnd@@MAEHIJ@Z:PROC			; CWnd::OnCommand
EXTRN	?OnNotify@CWnd@@MAEHIJPAJ@Z:PROC		; CWnd::OnNotify
EXTRN	?GetSuperWndProcAddr@CWnd@@MAEPAP6GJPAUHWND__@@IIJ@ZXZ:PROC ; CWnd::GetSuperWndProcAddr
EXTRN	?PreTranslateMessage@CWnd@@UAEHPAUtagMSG@@@Z:PROC ; CWnd::PreTranslateMessage
EXTRN	?OnAmbientProperty@CWnd@@UAEHPAVCOleControlSite@@JPAUtagVARIANT@@@Z:PROC ; CWnd::OnAmbientProperty
EXTRN	?WindowProc@CWnd@@MAEJIIJ@Z:PROC		; CWnd::WindowProc
EXTRN	?OnWndMsg@CWnd@@MAEHIIJPAJ@Z:PROC		; CWnd::OnWndMsg
EXTRN	?DefWindowProcA@CWnd@@MAEJIIJ@Z:PROC		; CWnd::DefWindowProcA
EXTRN	?PostNcDestroy@CWnd@@MAEXXZ:PROC		; CWnd::PostNcDestroy
EXTRN	?OnTouchInputs@CWnd@@MAEHIPAUtagTOUCHINPUT@@@Z:PROC ; CWnd::OnTouchInputs
EXTRN	?OnTouchInput@CWnd@@MAEHVCPoint@@HHPAUtagTOUCHINPUT@@@Z:PROC ; CWnd::OnTouchInput
EXTRN	?GetGestureStatus@CWnd@@MAEKVCPoint@@@Z:PROC	; CWnd::GetGestureStatus
EXTRN	?OnGestureZoom@CWnd@@MAEHVCPoint@@J@Z:PROC	; CWnd::OnGestureZoom
EXTRN	?OnGesturePan@CWnd@@MAEHVCPoint@@0@Z:PROC	; CWnd::OnGesturePan
EXTRN	?OnGestureRotate@CWnd@@MAEHVCPoint@@N@Z:PROC	; CWnd::OnGestureRotate
EXTRN	?OnGestureTwoFingerTap@CWnd@@MAEHVCPoint@@@Z:PROC ; CWnd::OnGestureTwoFingerTap
EXTRN	?OnGesturePressAndTap@CWnd@@MAEHVCPoint@@J@Z:PROC ; CWnd::OnGesturePressAndTap
EXTRN	?ResizeDynamicLayout@CWnd@@MAEXXZ:PROC		; CWnd::ResizeDynamicLayout
EXTRN	?CheckAutoCenter@CWnd@@UAEHXZ:PROC		; CWnd::CheckAutoCenter
EXTRN	?IsFrameWnd@CWnd@@UBEHXZ:PROC			; CWnd::IsFrameWnd
EXTRN	?OnFinalRelease@CWnd@@UAEXXZ:PROC		; CWnd::OnFinalRelease
EXTRN	?CreateControlContainer@CWnd@@MAEHPAPAVCOleControlContainer@@@Z:PROC ; CWnd::CreateControlContainer
EXTRN	?CreateControlSite@CWnd@@MAEHPAVCOleControlContainer@@PAPAVCOleControlSite@@IABU_GUID@@@Z:PROC ; CWnd::CreateControlSite
EXTRN	?SetOccDialogInfo@CWnd@@MAEHPAU_AFX_OCC_DIALOG_INFO@@@Z:PROC ; CWnd::SetOccDialogInfo
EXTRN	?GetOccDialogInfo@CWnd@@MAEPAU_AFX_OCC_DIALOG_INFO@@XZ:PROC ; CWnd::GetOccDialogInfo
EXTRN	?AfxMessageBox@@YGHPBDII@Z:PROC			; AfxMessageBox
EXTRN	?GetRuntimeClass@CListCtrl@@UBEPAUCRuntimeClass@@XZ:PROC ; CListCtrl::GetRuntimeClass
EXTRN	?DrawItem@CListCtrl@@UAEXPAUtagDRAWITEMSTRUCT@@@Z:PROC ; CListCtrl::DrawItem
EXTRN	??1CListCtrl@@UAE@XZ:PROC			; CListCtrl::~CListCtrl
EXTRN	?OnChildNotify@CListCtrl@@MAEHIIJPAJ@Z:PROC	; CListCtrl::OnChildNotify
EXTRN	?GetThisMessageMap@CListCtrl@@KGPBUAFX_MSGMAP@@XZ:PROC ; CListCtrl::GetThisMessageMap
EXTRN	?GetMessageMap@CListCtrl@@MBEPBUAFX_MSGMAP@@XZ:PROC ; CListCtrl::GetMessageMap
EXTRN	??_ECListCtrl@@UAEPAXI@Z:PROC			; CListCtrl::`vector deleting destructor'
EXTRN	??_ECExListCtrl@@UAEPAXI@Z:PROC			; CExListCtrl::`vector deleting destructor'
EXTRN	??_ECLoaderListCtrl@@UAEPAXI@Z:PROC		; CLoaderListCtrl::`vector deleting destructor'
EXTRN	@__security_check_cookie@4:PROC
EXTRN	___CxxFrameHandler3:PROC
EXTRN	_memset:PROC
EXTRN	??_7type_info@@6B@:QWORD			; type_info::`vftable'
EXTRN	___security_cookie:DWORD
;	COMDAT ?_OptionsStorage@?1??__local_stdio_printf_options@@9@4_KA
_BSS	SEGMENT
?_OptionsStorage@?1??__local_stdio_printf_options@@9@4_KA DQ 01H DUP (?) ; `__local_stdio_printf_options'::`2'::_OptionsStorage
_BSS	ENDS
;	COMDAT ??_R4CExLoadLib@@6B@
rdata$r	SEGMENT
??_R4CExLoadLib@@6B@ DD 00H				; CExLoadLib::`RTTI Complete Object Locator'
	DD	00H
	DD	00H
	DD	FLAT:??_R0?AVCExLoadLib@@@8
	DD	FLAT:??_R3CExLoadLib@@8
rdata$r	ENDS
;	COMDAT ??_R1A@?0A@EA@CExListCtrl@@8
rdata$r	SEGMENT
??_R1A@?0A@EA@CExListCtrl@@8 DD FLAT:??_R0?AVCExListCtrl@@@8 ; CExListCtrl::`RTTI Base Class Descriptor at (0,-1,0,64)'
	DD	04H
	DD	00H
	DD	0ffffffffH
	DD	00H
	DD	040H
	DD	FLAT:??_R3CExListCtrl@@8
rdata$r	ENDS
;	COMDAT ??_R2CExListCtrl@@8
rdata$r	SEGMENT
??_R2CExListCtrl@@8 DD FLAT:??_R1A@?0A@EA@CExListCtrl@@8 ; CExListCtrl::`RTTI Base Class Array'
	DD	FLAT:??_R1A@?0A@EA@CListCtrl@@8
	DD	FLAT:??_R1A@?0A@EA@CWnd@@8
	DD	FLAT:??_R1A@?0A@EA@CCmdTarget@@8
	DD	FLAT:??_R1A@?0A@EA@CObject@@8
rdata$r	ENDS
;	COMDAT ??_R3CExListCtrl@@8
rdata$r	SEGMENT
??_R3CExListCtrl@@8 DD 00H				; CExListCtrl::`RTTI Class Hierarchy Descriptor'
	DD	00H
	DD	05H
	DD	FLAT:??_R2CExListCtrl@@8
rdata$r	ENDS
;	COMDAT ??_R0?AVCExListCtrl@@@8
data$rs	SEGMENT
??_R0?AVCExListCtrl@@@8 DD FLAT:??_7type_info@@6B@	; CExListCtrl `RTTI Type Descriptor'
	DD	00H
	DB	'.?AVCExListCtrl@@', 00H
data$rs	ENDS
;	COMDAT ??_R4CExListCtrl@@6B@
rdata$r	SEGMENT
??_R4CExListCtrl@@6B@ DD 00H				; CExListCtrl::`RTTI Complete Object Locator'
	DD	00H
	DD	00H
	DD	FLAT:??_R0?AVCExListCtrl@@@8
	DD	FLAT:??_R3CExListCtrl@@8
rdata$r	ENDS
;	COMDAT ??_R2CExLoadLib@@8
rdata$r	SEGMENT
??_R2CExLoadLib@@8 DD FLAT:??_R1A@?0A@EA@CExLoadLib@@8	; CExLoadLib::`RTTI Base Class Array'
rdata$r	ENDS
;	COMDAT ??_R3CExLoadLib@@8
rdata$r	SEGMENT
??_R3CExLoadLib@@8 DD 00H				; CExLoadLib::`RTTI Class Hierarchy Descriptor'
	DD	00H
	DD	01H
	DD	FLAT:??_R2CExLoadLib@@8
rdata$r	ENDS
;	COMDAT ??_R0?AVCExLoadLib@@@8
data$rs	SEGMENT
??_R0?AVCExLoadLib@@@8 DD FLAT:??_7type_info@@6B@	; CExLoadLib `RTTI Type Descriptor'
	DD	00H
	DB	'.?AVCExLoadLib@@', 00H
data$rs	ENDS
;	COMDAT ??_R1A@?0A@EA@CExLoadLib@@8
rdata$r	SEGMENT
??_R1A@?0A@EA@CExLoadLib@@8 DD FLAT:??_R0?AVCExLoadLib@@@8 ; CExLoadLib::`RTTI Base Class Descriptor at (0,-1,0,64)'
	DD	00H
	DD	00H
	DD	0ffffffffH
	DD	00H
	DD	040H
	DD	FLAT:??_R3CExLoadLib@@8
rdata$r	ENDS
;	COMDAT ??_R1A@?0A@EA@CLoaderListCtrl@@8
rdata$r	SEGMENT
??_R1A@?0A@EA@CLoaderListCtrl@@8 DD FLAT:??_R0?AVCLoaderListCtrl@@@8 ; CLoaderListCtrl::`RTTI Base Class Descriptor at (0,-1,0,64)'
	DD	01H
	DD	00H
	DD	0ffffffffH
	DD	00H
	DD	040H
	DD	FLAT:??_R3CLoaderListCtrl@@8
rdata$r	ENDS
;	COMDAT ??_R2CLoaderListCtrl@@8
rdata$r	SEGMENT
??_R2CLoaderListCtrl@@8 DD FLAT:??_R1A@?0A@EA@CLoaderListCtrl@@8 ; CLoaderListCtrl::`RTTI Base Class Array'
	DD	FLAT:??_R1A@?0A@EA@CExLoadLib@@8
rdata$r	ENDS
;	COMDAT ??_R3CLoaderListCtrl@@8
rdata$r	SEGMENT
??_R3CLoaderListCtrl@@8 DD 00H				; CLoaderListCtrl::`RTTI Class Hierarchy Descriptor'
	DD	00H
	DD	02H
	DD	FLAT:??_R2CLoaderListCtrl@@8
rdata$r	ENDS
;	COMDAT ??_R0?AVCLoaderListCtrl@@@8
data$rs	SEGMENT
??_R0?AVCLoaderListCtrl@@@8 DD FLAT:??_7type_info@@6B@	; CLoaderListCtrl `RTTI Type Descriptor'
	DD	00H
	DB	'.?AVCLoaderListCtrl@@', 00H
data$rs	ENDS
;	COMDAT ??_R4CLoaderListCtrl@@6B@
rdata$r	SEGMENT
??_R4CLoaderListCtrl@@6B@ DD 00H			; CLoaderListCtrl::`RTTI Complete Object Locator'
	DD	00H
	DD	00H
	DD	FLAT:??_R0?AVCLoaderListCtrl@@@8
	DD	FLAT:??_R3CLoaderListCtrl@@8
rdata$r	ENDS
;	COMDAT ?messageMap@?1??GetThisMessageMap@CExListCtrl@@KGPBUAFX_MSGMAP@@XZ@4U3@B
CONST	SEGMENT
?messageMap@?1??GetThisMessageMap@CExListCtrl@@KGPBUAFX_MSGMAP@@XZ@4U3@B DD FLAT:?GetThisMessageMap@CListCtrl@@KGPBUAFX_MSGMAP@@XZ ; `CExListCtrl::GetThisMessageMap'::`2'::messageMap
	DD	FLAT:?_messageEntries@?1??GetThisMessageMap@CExListCtrl@@KGPBUAFX_MSGMAP@@XZ@4QBUAFX_MSGMAP_ENTRY@@B
CONST	ENDS
;	COMDAT ?_messageEntries@?1??GetThisMessageMap@CExListCtrl@@KGPBUAFX_MSGMAP@@XZ@4QBUAFX_MSGMAP_ENTRY@@B
CONST	SEGMENT
?_messageEntries@?1??GetThisMessageMap@CExListCtrl@@KGPBUAFX_MSGMAP@@XZ@4QBUAFX_MSGMAP_ENTRY@@B DD 0bc2bH ; `CExListCtrl::GetThisMessageMap'::`2'::_messageEntries
	DD	00H
	DD	00H
	DD	00H
	DD	02dH
	DD	FLAT:??_9CExListCtrl@@$BBGM@AE
	DD	02H
	DD	00H
	DD	00H
	DD	00H
	DD	013H
	DD	FLAT:?OnDestroy@CExListCtrl@@IAEXXZ
	DD	014H
	DD	00H
	DD	00H
	DD	00H
	DD	01H
	DD	FLAT:?OnEraseBkgnd@CExListCtrl@@IAEHPAVCDC@@@Z
	DD	00H
	DD	00H
	DD	00H
	DD	00H
	DD	00H
	DD	00H
CONST	ENDS
;	COMDAT ??_C@_0BG@BEPJAMBM@Ex_SetTwotoneRowColor@
CONST	SEGMENT
??_C@_0BG@BEPJAMBM@Ex_SetTwotoneRowColor@ DB 'Ex_SetTwotoneRowColor', 00H ; `string'
CONST	ENDS
;	COMDAT ??_C@_0BC@GKDDFBPH@Ex_SetAutoColSize@
CONST	SEGMENT
??_C@_0BC@GKDDFBPH@Ex_SetAutoColSize@ DB 'Ex_SetAutoColSize', 00H ; `string'
CONST	ENDS
;	COMDAT ??_C@_0BA@DNFEEOEC@Ex_SetRowHeight@
CONST	SEGMENT
??_C@_0BA@DNFEEOEC@Ex_SetRowHeight@ DB 'Ex_SetRowHeight', 00H ; `string'
CONST	ENDS
;	COMDAT ??_C@_0BD@JBADKGIL@Ex_SetHeaderHeight@
CONST	SEGMENT
??_C@_0BD@JBADKGIL@Ex_SetHeaderHeight@ DB 'Ex_SetHeaderHeight', 00H ; `string'
CONST	ENDS
;	COMDAT ??_C@_0BE@CACJKEIF@Ex_OnNotifyListCtrl@
CONST	SEGMENT
??_C@_0BE@CACJKEIF@Ex_OnNotifyListCtrl@ DB 'Ex_OnNotifyListCtrl', 00H ; `string'
CONST	ENDS
;	COMDAT ??_C@_0BN@PNBHFIMG@Ex_PreSubclassWindowListCtrl@
CONST	SEGMENT
??_C@_0BN@PNBHFIMG@Ex_PreSubclassWindowListCtrl@ DB 'Ex_PreSubclassWindow'
	DB	'ListCtrl', 00H				; `string'
CONST	ENDS
;	COMDAT ??_C@_0BE@DIEFKEEA@Ex_DrawItemListCtrl@
CONST	SEGMENT
??_C@_0BE@DIEFKEEA@Ex_DrawItemListCtrl@ DB 'Ex_DrawItemListCtrl', 00H ; `string'
CONST	ENDS
;	COMDAT ??_C@_0BH@MCPBNOIE@Ex_DisableColumnSizing@
CONST	SEGMENT
??_C@_0BH@MCPBNOIE@Ex_DisableColumnSizing@ DB 'Ex_DisableColumnSizing', 00H ; `string'
CONST	ENDS
;	COMDAT ??_C@_0BA@OGLJBKOA@Ex_OnDestroyPre@
CONST	SEGMENT
??_C@_0BA@OGLJBKOA@Ex_OnDestroyPre@ DB 'Ex_OnDestroyPre', 00H ; `string'
CONST	ENDS
;	COMDAT ??_C@_0BB@KPMNKHAB@Ex_InitListCtrl2@
CONST	SEGMENT
??_C@_0BB@KPMNKHAB@Ex_InitListCtrl2@ DB 'Ex_InitListCtrl2', 00H ; `string'
CONST	ENDS
;	COMDAT ??_C@_0BA@PGLBMCJ@Ex_InitListCtrl@
CONST	SEGMENT
??_C@_0BA@PGLBMCJ@Ex_InitListCtrl@ DB 'Ex_InitListCtrl', 00H ; `string'
CONST	ENDS
;	COMDAT ??_C@_0BA@HGPEONMO@Ex_ExitListCtrl@
CONST	SEGMENT
??_C@_0BA@HGPEONMO@Ex_ExitListCtrl@ DB 'Ex_ExitListCtrl', 00H ; `string'
CONST	ENDS
;	COMDAT ??_C@_0P@ILDMLCBB@ExListCtrl?4dll@
CONST	SEGMENT
??_C@_0P@ILDMLCBB@ExListCtrl?4dll@ DB 'ExListCtrl.dll', 00H ; `string'
CONST	ENDS
;	COMDAT ??_7CLoaderListCtrl@@6B@
CONST	SEGMENT
??_7CLoaderListCtrl@@6B@ DD FLAT:??_R4CLoaderListCtrl@@6B@ ; CLoaderListCtrl::`vftable'
	DD	FLAT:?LoadProcAddress@CLoaderListCtrl@@UAEHXZ
	DD	FLAT:??_ECLoaderListCtrl@@UAEPAXI@Z
CONST	ENDS
;	COMDAT ??_C@_0BA@IAGOHFI@Ex_OnEraseBkgnd@
CONST	SEGMENT
??_C@_0BA@IAGOHFI@Ex_OnEraseBkgnd@ DB 'Ex_OnEraseBkgnd', 00H ; `string'
CONST	ENDS
;	COMDAT ??_C@_0BJ@LGMPMCJG@Ex_GetSkinNotifyFunction@
CONST	SEGMENT
??_C@_0BJ@LGMPMCJG@Ex_GetSkinNotifyFunction@ DB 'Ex_GetSkinNotifyFunction'
	DB	00H						; `string'
CONST	ENDS
;	COMDAT ??_C@_0BB@JBDOCKKP@Ex_ActionControl@
CONST	SEGMENT
??_C@_0BB@JBDOCKKP@Ex_ActionControl@ DB 'Ex_ActionControl', 00H ; `string'
CONST	ENDS
;	COMDAT ??_C@_05BMGBEOOC@?$CFs?2?$CFs@
CONST	SEGMENT
??_C@_05BMGBEOOC@?$CFs?2?$CFs@ DB '%s\%s', 00H		; `string'
CONST	ENDS
;	COMDAT ??_C@_04OHDBDCPJ@?2Dev@
CONST	SEGMENT
??_C@_04OHDBDCPJ@?2Dev@ DB '\Dev', 00H			; `string'
CONST	ENDS
;	COMDAT ??_C@_0CD@INEDAMEN@DLL?$FL?$CFs?$FN?$MA?$LL?5Load?G?R?5?$LM?v?5?$LO?x?$LN?$MA?$LE?O?$LE?Y?4?5?$FL@
CONST	SEGMENT
??_C@_0CD@INEDAMEN@DLL?$FL?$CFs?$FN?$MA?$LL?5Load?G?R?5?$LM?v?5?$LO?x?$LN?$MA?$LE?O?$LE?Y?4?5?$FL@ DB 'D'
	DB	'LL[%s]', 0c0H, 0bbH, ' Load', 0c7H, 0d2H, ' ', 0bcH, 0f6H, ' '
	DB	0beH, 0f8H, 0bdH, 0c0H, 0b4H, 0cfH, 0b4H, 0d9H, '. [%d]', 00H ; `string'
CONST	ENDS
;	COMDAT ??_7CExLoadLib@@6B@
CONST	SEGMENT
??_7CExLoadLib@@6B@ DD FLAT:??_R4CExLoadLib@@6B@	; CExLoadLib::`vftable'
	DD	FLAT:?LoadProcAddress@CExLoadLib@@UAEHXZ
CONST	ENDS
;	COMDAT ??_7CExListCtrl@@6B@
CONST	SEGMENT
??_7CExListCtrl@@6B@ DD FLAT:??_R4CExListCtrl@@6B@	; CExListCtrl::`vftable'
	DD	FLAT:?GetRuntimeClass@CListCtrl@@UBEPAUCRuntimeClass@@XZ
	DD	FLAT:??_ECExListCtrl@@UAEPAXI@Z
	DD	FLAT:?Serialize@CObject@@UAEXAAVCArchive@@@Z
	DD	FLAT:?AssertValid@CObject@@UBEXXZ
	DD	FLAT:?Dump@CObject@@UBEXAAVCDumpContext@@@Z
	DD	FLAT:?OnCmdMsg@CCmdTarget@@UAEHIHPAXPAUAFX_CMDHANDLERINFO@@@Z
	DD	FLAT:?OnFinalRelease@CWnd@@UAEXXZ
	DD	FLAT:?IsInvokeAllowed@CCmdTarget@@UAEHJ@Z
	DD	FLAT:?GetDispatchIID@CCmdTarget@@UAEHPAU_GUID@@@Z
	DD	FLAT:?GetTypeInfoCount@CCmdTarget@@UAEIXZ
	DD	FLAT:?GetTypeLibCache@CCmdTarget@@UAEPAVCTypeLibCache@@XZ
	DD	FLAT:?GetTypeLib@CCmdTarget@@UAEJKPAPAUITypeLib@@@Z
	DD	FLAT:?GetMessageMap@CExListCtrl@@MBEPBUAFX_MSGMAP@@XZ
	DD	FLAT:?GetCommandMap@CCmdTarget@@MBEPBUAFX_OLECMDMAP@@XZ
	DD	FLAT:?GetDispatchMap@CCmdTarget@@MBEPBUAFX_DISPMAP@@XZ
	DD	FLAT:?GetConnectionMap@CCmdTarget@@MBEPBUAFX_CONNECTIONMAP@@XZ
	DD	FLAT:?GetInterfaceMap@CWnd@@MBEPBUAFX_INTERFACEMAP@@XZ
	DD	FLAT:?GetEventSinkMap@CCmdTarget@@MBEPBUAFX_EVENTSINKMAP@@XZ
	DD	FLAT:?OnCreateAggregates@CCmdTarget@@UAEHXZ
	DD	FLAT:?GetInterfaceHook@CCmdTarget@@UAEPAUIUnknown@@PBX@Z
	DD	FLAT:?GetExtraConnectionPoints@CCmdTarget@@MAEHPAVCPtrArray@@@Z
	DD	FLAT:?GetConnectionHook@CCmdTarget@@MAEPAUIConnectionPoint@@ABU_GUID@@@Z
	DD	FLAT:?PreSubclassWindow@CExListCtrl@@MAEXXZ
	DD	FLAT:?Create@CWnd@@UAEHPBD0KABUtagRECT@@PAV1@IPAUCCreateContext@@@Z
	DD	FLAT:?CreateEx@CWnd@@UAEHKPBD0KABUtagRECT@@PAV1@IPAX@Z
	DD	FLAT:?CreateEx@CWnd@@UAEHKPBD0KHHHHPAUHWND__@@PAUHMENU__@@PAX@Z
	DD	FLAT:?DestroyWindow@CWnd@@UAEHXZ
	DD	FLAT:?PreCreateWindow@CWnd@@UAEHAAUtagCREATESTRUCTA@@@Z
	DD	FLAT:?CalcWindowRect@CWnd@@UAEXPAUtagRECT@@I@Z
	DD	FLAT:?GetMenu@CWnd@@UBEPAVCMenu@@XZ
	DD	FLAT:?SetMenu@CWnd@@UAEHPAVCMenu@@@Z
	DD	FLAT:?OnToolHitTest@CWnd@@UBEHVCPoint@@PAUtagTOOLINFOA@@@Z
	DD	FLAT:?GetScrollBarCtrl@CWnd@@UBEPAVCScrollBar@@H@Z
	DD	FLAT:?WinHelpA@CWnd@@UAEXKI@Z
	DD	FLAT:?HtmlHelpA@CWnd@@UAEXKI@Z
	DD	FLAT:?WinHelpInternal@CWnd@@UAEXKI@Z
	DD	FLAT:?ContinueModal@CWnd@@UAEHXZ
	DD	FLAT:?EndModalLoop@CWnd@@UAEXH@Z
	DD	FLAT:?OnDrawIconicThumbnailOrLivePreview@CWnd@@UAEXAAVCDC@@VCRect@@VCSize@@HAAH@Z
	DD	FLAT:?EnsureStdObj@CWnd@@UAEJXZ
	DD	FLAT:?get_accParent@CWnd@@UAEJPAPAUIDispatch@@@Z
	DD	FLAT:?get_accChildCount@CWnd@@UAEJPAJ@Z
	DD	FLAT:?get_accChild@CWnd@@UAEJUtagVARIANT@@PAPAUIDispatch@@@Z
	DD	FLAT:?get_accName@CWnd@@UAEJUtagVARIANT@@PAPA_W@Z
	DD	FLAT:?get_accValue@CWnd@@UAEJUtagVARIANT@@PAPA_W@Z
	DD	FLAT:?get_accDescription@CWnd@@UAEJUtagVARIANT@@PAPA_W@Z
	DD	FLAT:?get_accRole@CWnd@@UAEJUtagVARIANT@@PAU2@@Z
	DD	FLAT:?get_accState@CWnd@@UAEJUtagVARIANT@@PAU2@@Z
	DD	FLAT:?get_accHelp@CWnd@@UAEJUtagVARIANT@@PAPA_W@Z
	DD	FLAT:?get_accHelpTopic@CWnd@@UAEJPAPA_WUtagVARIANT@@PAJ@Z
	DD	FLAT:?get_accKeyboardShortcut@CWnd@@UAEJUtagVARIANT@@PAPA_W@Z
	DD	FLAT:?get_accFocus@CWnd@@UAEJPAUtagVARIANT@@@Z
	DD	FLAT:?get_accSelection@CWnd@@UAEJPAUtagVARIANT@@@Z
	DD	FLAT:?get_accDefaultAction@CWnd@@UAEJUtagVARIANT@@PAPA_W@Z
	DD	FLAT:?accSelect@CWnd@@UAEJJUtagVARIANT@@@Z
	DD	FLAT:?accLocation@CWnd@@UAEJPAJ000UtagVARIANT@@@Z
	DD	FLAT:?accNavigate@CWnd@@UAEJJUtagVARIANT@@PAU2@@Z
	DD	FLAT:?accHitTest@CWnd@@UAEJJJPAUtagVARIANT@@@Z
	DD	FLAT:?accDoDefaultAction@CWnd@@UAEJUtagVARIANT@@@Z
	DD	FLAT:?put_accName@CWnd@@UAEJUtagVARIANT@@PA_W@Z
	DD	FLAT:?put_accValue@CWnd@@UAEJUtagVARIANT@@PA_W@Z
	DD	FLAT:?SetProxy@CWnd@@UAEJPAUIAccessibleProxy@@@Z
	DD	FLAT:?CreateAccessibleProxy@CWnd@@UAEJIJPAJ@Z
	DD	FLAT:?OnCommand@CWnd@@MAEHIJ@Z
	DD	FLAT:?OnNotify@CExListCtrl@@MAEHIJPAJ@Z
	DD	FLAT:?GetSuperWndProcAddr@CWnd@@MAEPAP6GJPAUHWND__@@IIJ@ZXZ
	DD	FLAT:?DoDataExchange@CWnd@@MAEXPAVCDataExchange@@@Z
	DD	FLAT:?BeginModalState@CWnd@@UAEXXZ
	DD	FLAT:?EndModalState@CWnd@@UAEXXZ
	DD	FLAT:?PreTranslateMessage@CWnd@@UAEHPAUtagMSG@@@Z
	DD	FLAT:?OnAmbientProperty@CWnd@@UAEHPAVCOleControlSite@@JPAUtagVARIANT@@@Z
	DD	FLAT:?WindowProc@CWnd@@MAEJIIJ@Z
	DD	FLAT:?OnWndMsg@CWnd@@MAEHIIJPAJ@Z
	DD	FLAT:?DefWindowProcA@CWnd@@MAEJIIJ@Z
	DD	FLAT:?PostNcDestroy@CWnd@@MAEXXZ
	DD	FLAT:?OnChildNotify@CListCtrl@@MAEHIIJPAJ@Z
	DD	FLAT:?OnTouchInputs@CWnd@@MAEHIPAUtagTOUCHINPUT@@@Z
	DD	FLAT:?OnTouchInput@CWnd@@MAEHVCPoint@@HHPAUtagTOUCHINPUT@@@Z
	DD	FLAT:?GetGestureStatus@CWnd@@MAEKVCPoint@@@Z
	DD	FLAT:?OnGestureZoom@CWnd@@MAEHVCPoint@@J@Z
	DD	FLAT:?OnGesturePan@CWnd@@MAEHVCPoint@@0@Z
	DD	FLAT:?OnGestureRotate@CWnd@@MAEHVCPoint@@N@Z
	DD	FLAT:?OnGestureTwoFingerTap@CWnd@@MAEHVCPoint@@@Z
	DD	FLAT:?OnGesturePressAndTap@CWnd@@MAEHVCPoint@@J@Z
	DD	FLAT:?ResizeDynamicLayout@CWnd@@MAEXXZ
	DD	FLAT:?CheckAutoCenter@CWnd@@UAEHXZ
	DD	FLAT:?IsFrameWnd@CWnd@@UBEHXZ
	DD	FLAT:?CreateControlContainer@CWnd@@MAEHPAPAVCOleControlContainer@@@Z
	DD	FLAT:?CreateControlSite@CWnd@@MAEHPAVCOleControlContainer@@PAPAVCOleControlSite@@IABU_GUID@@@Z
	DD	FLAT:?SetOccDialogInfo@CWnd@@MAEHPAU_AFX_OCC_DIALOG_INFO@@@Z
	DD	FLAT:?GetOccDialogInfo@CWnd@@MAEPAU_AFX_OCC_DIALOG_INFO@@XZ
	DD	FLAT:?DrawItem@CExListCtrl@@MAEXPAUtagDRAWITEMSTRUCT@@@Z
CONST	ENDS
;	COMDAT ??_R1A@?0A@EA@CListCtrl@@8
rdata$r	SEGMENT
??_R1A@?0A@EA@CListCtrl@@8 DD FLAT:??_R0?AVCListCtrl@@@8 ; CListCtrl::`RTTI Base Class Descriptor at (0,-1,0,64)'
	DD	03H
	DD	00H
	DD	0ffffffffH
	DD	00H
	DD	040H
	DD	FLAT:??_R3CListCtrl@@8
rdata$r	ENDS
;	COMDAT ??_R2CListCtrl@@8
rdata$r	SEGMENT
??_R2CListCtrl@@8 DD FLAT:??_R1A@?0A@EA@CListCtrl@@8	; CListCtrl::`RTTI Base Class Array'
	DD	FLAT:??_R1A@?0A@EA@CWnd@@8
	DD	FLAT:??_R1A@?0A@EA@CCmdTarget@@8
	DD	FLAT:??_R1A@?0A@EA@CObject@@8
rdata$r	ENDS
;	COMDAT ??_R3CListCtrl@@8
rdata$r	SEGMENT
??_R3CListCtrl@@8 DD 00H				; CListCtrl::`RTTI Class Hierarchy Descriptor'
	DD	00H
	DD	04H
	DD	FLAT:??_R2CListCtrl@@8
rdata$r	ENDS
;	COMDAT ??_R0?AVCListCtrl@@@8
data$rs	SEGMENT
??_R0?AVCListCtrl@@@8 DD FLAT:??_7type_info@@6B@	; CListCtrl `RTTI Type Descriptor'
	DD	00H
	DB	'.?AVCListCtrl@@', 00H
data$rs	ENDS
;	COMDAT ??_R4CListCtrl@@6B@
rdata$r	SEGMENT
??_R4CListCtrl@@6B@ DD 00H				; CListCtrl::`RTTI Complete Object Locator'
	DD	00H
	DD	00H
	DD	FLAT:??_R0?AVCListCtrl@@@8
	DD	FLAT:??_R3CListCtrl@@8
rdata$r	ENDS
;	COMDAT ??_R2CCmdTarget@@8
rdata$r	SEGMENT
??_R2CCmdTarget@@8 DD FLAT:??_R1A@?0A@EA@CCmdTarget@@8	; CCmdTarget::`RTTI Base Class Array'
	DD	FLAT:??_R1A@?0A@EA@CObject@@8
rdata$r	ENDS
;	COMDAT ??_R3CCmdTarget@@8
rdata$r	SEGMENT
??_R3CCmdTarget@@8 DD 00H				; CCmdTarget::`RTTI Class Hierarchy Descriptor'
	DD	00H
	DD	02H
	DD	FLAT:??_R2CCmdTarget@@8
rdata$r	ENDS
;	COMDAT ??_R0?AVCCmdTarget@@@8
data$rs	SEGMENT
??_R0?AVCCmdTarget@@@8 DD FLAT:??_7type_info@@6B@	; CCmdTarget `RTTI Type Descriptor'
	DD	00H
	DB	'.?AVCCmdTarget@@', 00H
data$rs	ENDS
;	COMDAT ??_R1A@?0A@EA@CCmdTarget@@8
rdata$r	SEGMENT
??_R1A@?0A@EA@CCmdTarget@@8 DD FLAT:??_R0?AVCCmdTarget@@@8 ; CCmdTarget::`RTTI Base Class Descriptor at (0,-1,0,64)'
	DD	01H
	DD	00H
	DD	0ffffffffH
	DD	00H
	DD	040H
	DD	FLAT:??_R3CCmdTarget@@8
rdata$r	ENDS
;	COMDAT ??_R2CWnd@@8
rdata$r	SEGMENT
??_R2CWnd@@8 DD	FLAT:??_R1A@?0A@EA@CWnd@@8		; CWnd::`RTTI Base Class Array'
	DD	FLAT:??_R1A@?0A@EA@CCmdTarget@@8
	DD	FLAT:??_R1A@?0A@EA@CObject@@8
rdata$r	ENDS
;	COMDAT ??_R3CWnd@@8
rdata$r	SEGMENT
??_R3CWnd@@8 DD	00H					; CWnd::`RTTI Class Hierarchy Descriptor'
	DD	00H
	DD	03H
	DD	FLAT:??_R2CWnd@@8
rdata$r	ENDS
;	COMDAT ??_R0?AVCWnd@@@8
data$rs	SEGMENT
??_R0?AVCWnd@@@8 DD FLAT:??_7type_info@@6B@		; CWnd `RTTI Type Descriptor'
	DD	00H
	DB	'.?AVCWnd@@', 00H
data$rs	ENDS
;	COMDAT ??_R1A@?0A@EA@CWnd@@8
rdata$r	SEGMENT
??_R1A@?0A@EA@CWnd@@8 DD FLAT:??_R0?AVCWnd@@@8		; CWnd::`RTTI Base Class Descriptor at (0,-1,0,64)'
	DD	02H
	DD	00H
	DD	0ffffffffH
	DD	00H
	DD	040H
	DD	FLAT:??_R3CWnd@@8
rdata$r	ENDS
;	COMDAT ??_R1A@?0A@EA@CObject@@8
rdata$r	SEGMENT
??_R1A@?0A@EA@CObject@@8 DD FLAT:??_R0?AVCObject@@@8	; CObject::`RTTI Base Class Descriptor at (0,-1,0,64)'
	DD	00H
	DD	00H
	DD	0ffffffffH
	DD	00H
	DD	040H
	DD	FLAT:??_R3CObject@@8
rdata$r	ENDS
;	COMDAT ??_R2CObject@@8
rdata$r	SEGMENT
??_R2CObject@@8 DD FLAT:??_R1A@?0A@EA@CObject@@8	; CObject::`RTTI Base Class Array'
rdata$r	ENDS
;	COMDAT ??_R3CObject@@8
rdata$r	SEGMENT
??_R3CObject@@8 DD 00H					; CObject::`RTTI Class Hierarchy Descriptor'
	DD	00H
	DD	01H
	DD	FLAT:??_R2CObject@@8
rdata$r	ENDS
;	COMDAT ??_R0?AVCObject@@@8
data$rs	SEGMENT
??_R0?AVCObject@@@8 DD FLAT:??_7type_info@@6B@		; CObject `RTTI Type Descriptor'
	DD	00H
	DB	'.?AVCObject@@', 00H
data$rs	ENDS
;	COMDAT ??_7CListCtrl@@6B@
CONST	SEGMENT
??_7CListCtrl@@6B@ DD FLAT:??_R4CListCtrl@@6B@		; CListCtrl::`vftable'
	DD	FLAT:?GetRuntimeClass@CListCtrl@@UBEPAUCRuntimeClass@@XZ
	DD	FLAT:??_ECListCtrl@@UAEPAXI@Z
	DD	FLAT:?Serialize@CObject@@UAEXAAVCArchive@@@Z
	DD	FLAT:?AssertValid@CObject@@UBEXXZ
	DD	FLAT:?Dump@CObject@@UBEXAAVCDumpContext@@@Z
	DD	FLAT:?OnCmdMsg@CCmdTarget@@UAEHIHPAXPAUAFX_CMDHANDLERINFO@@@Z
	DD	FLAT:?OnFinalRelease@CWnd@@UAEXXZ
	DD	FLAT:?IsInvokeAllowed@CCmdTarget@@UAEHJ@Z
	DD	FLAT:?GetDispatchIID@CCmdTarget@@UAEHPAU_GUID@@@Z
	DD	FLAT:?GetTypeInfoCount@CCmdTarget@@UAEIXZ
	DD	FLAT:?GetTypeLibCache@CCmdTarget@@UAEPAVCTypeLibCache@@XZ
	DD	FLAT:?GetTypeLib@CCmdTarget@@UAEJKPAPAUITypeLib@@@Z
	DD	FLAT:?GetMessageMap@CListCtrl@@MBEPBUAFX_MSGMAP@@XZ
	DD	FLAT:?GetCommandMap@CCmdTarget@@MBEPBUAFX_OLECMDMAP@@XZ
	DD	FLAT:?GetDispatchMap@CCmdTarget@@MBEPBUAFX_DISPMAP@@XZ
	DD	FLAT:?GetConnectionMap@CCmdTarget@@MBEPBUAFX_CONNECTIONMAP@@XZ
	DD	FLAT:?GetInterfaceMap@CWnd@@MBEPBUAFX_INTERFACEMAP@@XZ
	DD	FLAT:?GetEventSinkMap@CCmdTarget@@MBEPBUAFX_EVENTSINKMAP@@XZ
	DD	FLAT:?OnCreateAggregates@CCmdTarget@@UAEHXZ
	DD	FLAT:?GetInterfaceHook@CCmdTarget@@UAEPAUIUnknown@@PBX@Z
	DD	FLAT:?GetExtraConnectionPoints@CCmdTarget@@MAEHPAVCPtrArray@@@Z
	DD	FLAT:?GetConnectionHook@CCmdTarget@@MAEPAUIConnectionPoint@@ABU_GUID@@@Z
	DD	FLAT:?PreSubclassWindow@CWnd@@UAEXXZ
	DD	FLAT:?Create@CWnd@@UAEHPBD0KABUtagRECT@@PAV1@IPAUCCreateContext@@@Z
	DD	FLAT:?CreateEx@CWnd@@UAEHKPBD0KABUtagRECT@@PAV1@IPAX@Z
	DD	FLAT:?CreateEx@CWnd@@UAEHKPBD0KHHHHPAUHWND__@@PAUHMENU__@@PAX@Z
	DD	FLAT:?DestroyWindow@CWnd@@UAEHXZ
	DD	FLAT:?PreCreateWindow@CWnd@@UAEHAAUtagCREATESTRUCTA@@@Z
	DD	FLAT:?CalcWindowRect@CWnd@@UAEXPAUtagRECT@@I@Z
	DD	FLAT:?GetMenu@CWnd@@UBEPAVCMenu@@XZ
	DD	FLAT:?SetMenu@CWnd@@UAEHPAVCMenu@@@Z
	DD	FLAT:?OnToolHitTest@CWnd@@UBEHVCPoint@@PAUtagTOOLINFOA@@@Z
	DD	FLAT:?GetScrollBarCtrl@CWnd@@UBEPAVCScrollBar@@H@Z
	DD	FLAT:?WinHelpA@CWnd@@UAEXKI@Z
	DD	FLAT:?HtmlHelpA@CWnd@@UAEXKI@Z
	DD	FLAT:?WinHelpInternal@CWnd@@UAEXKI@Z
	DD	FLAT:?ContinueModal@CWnd@@UAEHXZ
	DD	FLAT:?EndModalLoop@CWnd@@UAEXH@Z
	DD	FLAT:?OnDrawIconicThumbnailOrLivePreview@CWnd@@UAEXAAVCDC@@VCRect@@VCSize@@HAAH@Z
	DD	FLAT:?EnsureStdObj@CWnd@@UAEJXZ
	DD	FLAT:?get_accParent@CWnd@@UAEJPAPAUIDispatch@@@Z
	DD	FLAT:?get_accChildCount@CWnd@@UAEJPAJ@Z
	DD	FLAT:?get_accChild@CWnd@@UAEJUtagVARIANT@@PAPAUIDispatch@@@Z
	DD	FLAT:?get_accName@CWnd@@UAEJUtagVARIANT@@PAPA_W@Z
	DD	FLAT:?get_accValue@CWnd@@UAEJUtagVARIANT@@PAPA_W@Z
	DD	FLAT:?get_accDescription@CWnd@@UAEJUtagVARIANT@@PAPA_W@Z
	DD	FLAT:?get_accRole@CWnd@@UAEJUtagVARIANT@@PAU2@@Z
	DD	FLAT:?get_accState@CWnd@@UAEJUtagVARIANT@@PAU2@@Z
	DD	FLAT:?get_accHelp@CWnd@@UAEJUtagVARIANT@@PAPA_W@Z
	DD	FLAT:?get_accHelpTopic@CWnd@@UAEJPAPA_WUtagVARIANT@@PAJ@Z
	DD	FLAT:?get_accKeyboardShortcut@CWnd@@UAEJUtagVARIANT@@PAPA_W@Z
	DD	FLAT:?get_accFocus@CWnd@@UAEJPAUtagVARIANT@@@Z
	DD	FLAT:?get_accSelection@CWnd@@UAEJPAUtagVARIANT@@@Z
	DD	FLAT:?get_accDefaultAction@CWnd@@UAEJUtagVARIANT@@PAPA_W@Z
	DD	FLAT:?accSelect@CWnd@@UAEJJUtagVARIANT@@@Z
	DD	FLAT:?accLocation@CWnd@@UAEJPAJ000UtagVARIANT@@@Z
	DD	FLAT:?accNavigate@CWnd@@UAEJJUtagVARIANT@@PAU2@@Z
	DD	FLAT:?accHitTest@CWnd@@UAEJJJPAUtagVARIANT@@@Z
	DD	FLAT:?accDoDefaultAction@CWnd@@UAEJUtagVARIANT@@@Z
	DD	FLAT:?put_accName@CWnd@@UAEJUtagVARIANT@@PA_W@Z
	DD	FLAT:?put_accValue@CWnd@@UAEJUtagVARIANT@@PA_W@Z
	DD	FLAT:?SetProxy@CWnd@@UAEJPAUIAccessibleProxy@@@Z
	DD	FLAT:?CreateAccessibleProxy@CWnd@@UAEJIJPAJ@Z
	DD	FLAT:?OnCommand@CWnd@@MAEHIJ@Z
	DD	FLAT:?OnNotify@CWnd@@MAEHIJPAJ@Z
	DD	FLAT:?GetSuperWndProcAddr@CWnd@@MAEPAP6GJPAUHWND__@@IIJ@ZXZ
	DD	FLAT:?DoDataExchange@CWnd@@MAEXPAVCDataExchange@@@Z
	DD	FLAT:?BeginModalState@CWnd@@UAEXXZ
	DD	FLAT:?EndModalState@CWnd@@UAEXXZ
	DD	FLAT:?PreTranslateMessage@CWnd@@UAEHPAUtagMSG@@@Z
	DD	FLAT:?OnAmbientProperty@CWnd@@UAEHPAVCOleControlSite@@JPAUtagVARIANT@@@Z
	DD	FLAT:?WindowProc@CWnd@@MAEJIIJ@Z
	DD	FLAT:?OnWndMsg@CWnd@@MAEHIIJPAJ@Z
	DD	FLAT:?DefWindowProcA@CWnd@@MAEJIIJ@Z
	DD	FLAT:?PostNcDestroy@CWnd@@MAEXXZ
	DD	FLAT:?OnChildNotify@CListCtrl@@MAEHIIJPAJ@Z
	DD	FLAT:?OnTouchInputs@CWnd@@MAEHIPAUtagTOUCHINPUT@@@Z
	DD	FLAT:?OnTouchInput@CWnd@@MAEHVCPoint@@HHPAUtagTOUCHINPUT@@@Z
	DD	FLAT:?GetGestureStatus@CWnd@@MAEKVCPoint@@@Z
	DD	FLAT:?OnGestureZoom@CWnd@@MAEHVCPoint@@J@Z
	DD	FLAT:?OnGesturePan@CWnd@@MAEHVCPoint@@0@Z
	DD	FLAT:?OnGestureRotate@CWnd@@MAEHVCPoint@@N@Z
	DD	FLAT:?OnGestureTwoFingerTap@CWnd@@MAEHVCPoint@@@Z
	DD	FLAT:?OnGesturePressAndTap@CWnd@@MAEHVCPoint@@J@Z
	DD	FLAT:?ResizeDynamicLayout@CWnd@@MAEXXZ
	DD	FLAT:?CheckAutoCenter@CWnd@@UAEHXZ
	DD	FLAT:?IsFrameWnd@CWnd@@UBEHXZ
	DD	FLAT:?CreateControlContainer@CWnd@@MAEHPAPAVCOleControlContainer@@@Z
	DD	FLAT:?CreateControlSite@CWnd@@MAEHPAVCOleControlContainer@@PAPAVCOleControlSite@@IABU_GUID@@@Z
	DD	FLAT:?SetOccDialogInfo@CWnd@@MAEHPAU_AFX_OCC_DIALOG_INFO@@@Z
	DD	FLAT:?GetOccDialogInfo@CWnd@@MAEPAU_AFX_OCC_DIALOG_INFO@@XZ
	DD	FLAT:?DrawItem@CListCtrl@@UAEXPAUtagDRAWITEMSTRUCT@@@Z
CONST	ENDS
;	COMDAT xdata$x
xdata$x	SEGMENT
__unwindtable$??_GCLoaderListCtrl@@UAEPAXI@Z DD 0ffffffffH
	DD	FLAT:___std_terminate
__ehfuncinfo$??_GCLoaderListCtrl@@UAEPAXI@Z DD 019930522H
	DD	01H
	DD	FLAT:__unwindtable$??_GCLoaderListCtrl@@UAEPAXI@Z
	DD	2 DUP(00H)
	DD	2 DUP(00H)
	DD	00H
	DD	05H
xdata$x	ENDS
;	COMDAT xdata$x
xdata$x	SEGMENT
__ehfuncinfo$??1CLoaderListCtrl@@UAE@XZ DD 019930522H
	DD	00H
	DD	00H
	DD	2 DUP(00H)
	DD	2 DUP(00H)
	DD	00H
	DD	05H
xdata$x	ENDS
;	COMDAT xdata$x
xdata$x	SEGMENT
__ehfuncinfo$??0CLoaderListCtrl@@QAE@PAXH@Z DD 019930522H
	DD	05H
	DD	FLAT:__unwindtable$??0CLoaderListCtrl@@QAE@PAXH@Z
	DD	2 DUP(00H)
	DD	2 DUP(00H)
	DD	00H
	DD	01H
__unwindtable$??0CLoaderListCtrl@@QAE@PAXH@Z DD 0ffffffffH
	DD	FLAT:__unwindfunclet$??0CLoaderListCtrl@@QAE@PAXH@Z$0
	DD	00H
	DD	FLAT:__unwindfunclet$??0CLoaderListCtrl@@QAE@PAXH@Z$1
	DD	01H
	DD	FLAT:__unwindfunclet$??0CLoaderListCtrl@@QAE@PAXH@Z$2
	DD	02H
	DD	FLAT:__unwindfunclet$??0CLoaderListCtrl@@QAE@PAXH@Z$3
	DD	02H
	DD	FLAT:__unwindfunclet$??0CLoaderListCtrl@@QAE@PAXH@Z$4
xdata$x	ENDS
;	COMDAT xdata$x
xdata$x	SEGMENT
__unwindtable$?GetDir_DrfnBin@@YAXAAV?$CStringT@DV?$StrTraitMFC_DLL@DV?$ChTraitsCRT@D@ATL@@@@@ATL@@@Z DD 0ffffffffH
	DD	FLAT:__unwindfunclet$?GetDir_DrfnBin@@YAXAAV?$CStringT@DV?$StrTraitMFC_DLL@DV?$ChTraitsCRT@D@ATL@@@@@ATL@@@Z$0
	DD	00H
	DD	FLAT:__unwindfunclet$?GetDir_DrfnBin@@YAXAAV?$CStringT@DV?$StrTraitMFC_DLL@DV?$ChTraitsCRT@D@ATL@@@@@ATL@@@Z$1
	DD	00H
	DD	FLAT:__unwindfunclet$?GetDir_DrfnBin@@YAXAAV?$CStringT@DV?$StrTraitMFC_DLL@DV?$ChTraitsCRT@D@ATL@@@@@ATL@@@Z$2
__ehfuncinfo$?GetDir_DrfnBin@@YAXAAV?$CStringT@DV?$StrTraitMFC_DLL@DV?$ChTraitsCRT@D@ATL@@@@@ATL@@@Z DD 019930522H
	DD	03H
	DD	FLAT:__unwindtable$?GetDir_DrfnBin@@YAXAAV?$CStringT@DV?$StrTraitMFC_DLL@DV?$ChTraitsCRT@D@ATL@@@@@ATL@@@Z
	DD	2 DUP(00H)
	DD	2 DUP(00H)
	DD	00H
	DD	01H
xdata$x	ENDS
;	COMDAT xdata$x
xdata$x	SEGMENT
__unwindtable$?GetDir_DrfnRoot@@YAXAAV?$CStringT@DV?$StrTraitMFC_DLL@DV?$ChTraitsCRT@D@ATL@@@@@ATL@@@Z DD 0ffffffffH
	DD	FLAT:__unwindfunclet$?GetDir_DrfnRoot@@YAXAAV?$CStringT@DV?$StrTraitMFC_DLL@DV?$ChTraitsCRT@D@ATL@@@@@ATL@@@Z$0
	DD	00H
	DD	FLAT:__unwindfunclet$?GetDir_DrfnRoot@@YAXAAV?$CStringT@DV?$StrTraitMFC_DLL@DV?$ChTraitsCRT@D@ATL@@@@@ATL@@@Z$1
	DD	00H
	DD	FLAT:__unwindfunclet$?GetDir_DrfnRoot@@YAXAAV?$CStringT@DV?$StrTraitMFC_DLL@DV?$ChTraitsCRT@D@ATL@@@@@ATL@@@Z$2
__ehfuncinfo$?GetDir_DrfnRoot@@YAXAAV?$CStringT@DV?$StrTraitMFC_DLL@DV?$ChTraitsCRT@D@ATL@@@@@ATL@@@Z DD 019930522H
	DD	03H
	DD	FLAT:__unwindtable$?GetDir_DrfnRoot@@YAXAAV?$CStringT@DV?$StrTraitMFC_DLL@DV?$ChTraitsCRT@D@ATL@@@@@ATL@@@Z
	DD	2 DUP(00H)
	DD	2 DUP(00H)
	DD	00H
	DD	01H
xdata$x	ENDS
;	COMDAT xdata$x
xdata$x	SEGMENT
__unwindtable$??0CExListCtrl@@QAE@H@Z DD 0ffffffffH
	DD	FLAT:__unwindfunclet$??0CExListCtrl@@QAE@H@Z$0
	DD	00H
	DD	FLAT:__unwindfunclet$??0CExListCtrl@@QAE@H@Z$1
__ehfuncinfo$??0CExListCtrl@@QAE@H@Z DD 019930522H
	DD	02H
	DD	FLAT:__unwindtable$??0CExListCtrl@@QAE@H@Z
	DD	2 DUP(00H)
	DD	2 DUP(00H)
	DD	00H
	DD	01H
xdata$x	ENDS
; Function compile flags: /Odsp
;	COMDAT ??_9CExListCtrl@@$BBGM@AE
_TEXT	SEGMENT
??_9CExListCtrl@@$BBGM@AE PROC				; CExListCtrl::`vcall'{364}', COMDAT
  00000	8b 01		 mov	 eax, DWORD PTR [ecx]
  00002	ff a0 6c 01 00
	00		 jmp	 DWORD PTR [eax+364]
??_9CExListCtrl@@$BBGM@AE ENDP				; CExListCtrl::`vcall'{364}'
_TEXT	ENDS
; Function compile flags: /Ogtp
; File D:\git\src\IBK\IBK_DRFN\ProjSrc\SrcDrfn\Chart\ExControl\include\LoadHelper.h
; File D:\git\src\IBK\IBK_DRFN\ProjSrc\SrcDrfn\Chart\ExControl\include\BaseLoadHelper.h
;	COMDAT ??_GCLoaderListCtrl@@UAEPAXI@Z
_TEXT	SEGMENT
__$EHRec$ = -12						; size = 12
___flags$ = 8						; size = 4
??_GCLoaderListCtrl@@UAEPAXI@Z PROC			; CLoaderListCtrl::`scalar deleting destructor', COMDAT
; _this$ = ecx
  00000	55		 push	 ebp
  00001	8b ec		 mov	 ebp, esp
  00003	6a ff		 push	 -1
  00005	68 00 00 00 00	 push	 __ehhandler$??_GCLoaderListCtrl@@UAEPAXI@Z
  0000a	64 a1 00 00 00
	00		 mov	 eax, DWORD PTR fs:0
  00010	50		 push	 eax
  00011	56		 push	 esi
  00012	a1 00 00 00 00	 mov	 eax, DWORD PTR ___security_cookie
  00017	33 c5		 xor	 eax, ebp
  00019	50		 push	 eax
  0001a	8d 45 f4	 lea	 eax, DWORD PTR __$EHRec$[ebp]
  0001d	64 a3 00 00 00
	00		 mov	 DWORD PTR fs:0, eax
  00023	8b f1		 mov	 esi, ecx
; File D:\git\src\IBK\IBK_DRFN\ProjSrc\SrcDrfn\Chart\ExControl\include\LoadHelper.h

; 2958 : 		if(m_hLib)

  00025	8b 46 04	 mov	 eax, DWORD PTR [esi+4]
  00028	c7 45 fc 00 00
	00 00		 mov	 DWORD PTR __$EHRec$[ebp+8], 0
  0002f	c7 06 00 00 00
	00		 mov	 DWORD PTR [esi], OFFSET ??_7CLoaderListCtrl@@6B@
  00035	85 c0		 test	 eax, eax
  00037	74 14		 je	 SHORT $LN5@scalar

; 2959 : 			pExitListCtrl(m_lpPointer);

  00039	ff b6 0c 01 00
	00		 push	 DWORD PTR [esi+268]
  0003f	8b 86 14 01 00
	00		 mov	 eax, DWORD PTR [esi+276]
  00045	ff d0		 call	 eax
  00047	8b 46 04	 mov	 eax, DWORD PTR [esi+4]
  0004a	83 c4 04	 add	 esp, 4
$LN5@scalar:
; File D:\git\src\IBK\IBK_DRFN\ProjSrc\SrcDrfn\Chart\ExControl\include\BaseLoadHelper.h

; 13   : 	{

  0004d	c7 06 00 00 00
	00		 mov	 DWORD PTR [esi], OFFSET ??_7CExLoadLib@@6B@

; 53   : 		if(!m_hLib)

  00053	85 c0		 test	 eax, eax
  00055	74 0e		 je	 SHORT $LN10@scalar

; 54   : 			return TRUE;
; 55   : 
; 56   : 		BOOL bResult = ::FreeLibrary(m_hLib);

  00057	50		 push	 eax
  00058	ff 15 00 00 00
	00		 call	 DWORD PTR __imp__FreeLibrary@4

; 57   : 		
; 58   : 		m_hLib = NULL;

  0005e	c7 46 04 00 00
	00 00		 mov	 DWORD PTR [esi+4], 0
$LN10@scalar:
  00065	f6 45 08 01	 test	 BYTE PTR ___flags$[ebp], 1
  00069	74 0e		 je	 SHORT $LN13@scalar
  0006b	68 4c 01 00 00	 push	 332			; 0000014cH
  00070	56		 push	 esi
  00071	e8 00 00 00 00	 call	 ??3@YAXPAXI@Z		; operator delete
  00076	83 c4 08	 add	 esp, 8
$LN13@scalar:
  00079	8b c6		 mov	 eax, esi
  0007b	8b 4d f4	 mov	 ecx, DWORD PTR __$EHRec$[ebp]
  0007e	64 89 0d 00 00
	00 00		 mov	 DWORD PTR fs:0, ecx
  00085	59		 pop	 ecx
  00086	5e		 pop	 esi
  00087	8b e5		 mov	 esp, ebp
  00089	5d		 pop	 ebp
  0008a	c2 04 00	 ret	 4
  0008d	cc		 int	 3
  0008e	cc		 int	 3
  0008f	cc		 int	 3
  00090	cc		 int	 3
  00091	cc		 int	 3
_TEXT	ENDS
;	COMDAT text$x
text$x	SEGMENT
__ehhandler$??_GCLoaderListCtrl@@UAEPAXI@Z:
  00000	90		 npad	 1
  00001	90		 npad	 1
  00002	8b 54 24 08	 mov	 edx, DWORD PTR [esp+8]
  00006	8d 42 0c	 lea	 eax, DWORD PTR [edx+12]
  00009	8b 4a f8	 mov	 ecx, DWORD PTR [edx-8]
  0000c	33 c8		 xor	 ecx, eax
  0000e	e8 00 00 00 00	 call	 @__security_check_cookie@4
  00013	b8 00 00 00 00	 mov	 eax, OFFSET __ehfuncinfo$??_GCLoaderListCtrl@@UAEPAXI@Z
  00018	e9 00 00 00 00	 jmp	 ___CxxFrameHandler3
text$x	ENDS
??_GCLoaderListCtrl@@UAEPAXI@Z ENDP			; CLoaderListCtrl::`scalar deleting destructor'
; Function compile flags: /Ogtp
; File D:\git\src\IBK\IBK_DRFN\ProjSrc\SrcDrfn\Chart\ExControl\include\LoadHelper.h
;	COMDAT ?LoadProcAddress@CLoaderListCtrl@@UAEHXZ
_TEXT	SEGMENT
?LoadProcAddress@CLoaderListCtrl@@UAEHXZ PROC		; CLoaderListCtrl::LoadProcAddress, COMDAT
; _this$ = ecx

; 2963 : 	{

  00000	57		 push	 edi
  00001	8b f9		 mov	 edi, ecx

; 2964 : 		if(!m_hLib)

  00003	8b 47 04	 mov	 eax, DWORD PTR [edi+4]
  00006	85 c0		 test	 eax, eax
  00008	75 02		 jne	 SHORT $LN2@LoadProcAd
  0000a	5f		 pop	 edi

; 2987 : 	}

  0000b	c3		 ret	 0
$LN2@LoadProcAd:
  0000c	56		 push	 esi

; 2965 : 		{
; 2966 : 			TRACE0("CLoaderListCtrl GetProcAddress에서 Load에러 발생");
; 2967 : 			return FALSE;
; 2968 : 		}
; 2969 : 
; 2970 : 		pActionControl	= (FpActionControl)::GetProcAddress(m_hLib, "Ex_ActionControl");

  0000d	8b 35 00 00 00
	00		 mov	 esi, DWORD PTR __imp__GetProcAddress@8
  00013	68 00 00 00 00	 push	 OFFSET ??_C@_0BB@JBDOCKKP@Ex_ActionControl@
  00018	50		 push	 eax
  00019	ff d6		 call	 esi

; 2971 : 		pExitListCtrl	= (FpExitTabCtrl)::GetProcAddress(m_hLib, "Ex_ExitListCtrl");

  0001b	68 00 00 00 00	 push	 OFFSET ??_C@_0BA@HGPEONMO@Ex_ExitListCtrl@
  00020	ff 77 04	 push	 DWORD PTR [edi+4]
  00023	89 87 10 01 00
	00		 mov	 DWORD PTR [edi+272], eax
  00029	ff d6		 call	 esi

; 2972 : 		pOnEraseBkgnd	= (FpOnEraseBkgnd)::GetProcAddress(m_hLib, "Ex_OnEraseBkgnd");

  0002b	68 00 00 00 00	 push	 OFFSET ??_C@_0BA@IAGOHFI@Ex_OnEraseBkgnd@
  00030	ff 77 04	 push	 DWORD PTR [edi+4]
  00033	89 87 14 01 00
	00		 mov	 DWORD PTR [edi+276], eax
  00039	ff d6		 call	 esi

; 2973 : 		pInitListCtrl	= (FpInitListCtrl)::GetProcAddress(m_hLib, "Ex_InitListCtrl");

  0003b	68 00 00 00 00	 push	 OFFSET ??_C@_0BA@PGLBMCJ@Ex_InitListCtrl@
  00040	ff 77 04	 push	 DWORD PTR [edi+4]
  00043	89 87 18 01 00
	00		 mov	 DWORD PTR [edi+280], eax
  00049	ff d6		 call	 esi

; 2974 : 		pInitListCtrl2	= (FpInitListCtrl2)::GetProcAddress(m_hLib, "Ex_InitListCtrl2");

  0004b	68 00 00 00 00	 push	 OFFSET ??_C@_0BB@KPMNKHAB@Ex_InitListCtrl2@
  00050	ff 77 04	 push	 DWORD PTR [edi+4]
  00053	89 87 1c 01 00
	00		 mov	 DWORD PTR [edi+284], eax
  00059	ff d6		 call	 esi

; 2975 : 		pOnDestroyPre	= (FpOnDestroyPre)::GetProcAddress(m_hLib, "Ex_OnDestroyPre");

  0005b	68 00 00 00 00	 push	 OFFSET ??_C@_0BA@OGLJBKOA@Ex_OnDestroyPre@
  00060	ff 77 04	 push	 DWORD PTR [edi+4]
  00063	89 87 20 01 00
	00		 mov	 DWORD PTR [edi+288], eax
  00069	ff d6		 call	 esi

; 2976 : 		pDisableColumnSizing	= (FpDisableColumnSizing)::GetProcAddress(m_hLib, "Ex_DisableColumnSizing");

  0006b	68 00 00 00 00	 push	 OFFSET ??_C@_0BH@MCPBNOIE@Ex_DisableColumnSizing@
  00070	ff 77 04	 push	 DWORD PTR [edi+4]
  00073	89 87 24 01 00
	00		 mov	 DWORD PTR [edi+292], eax
  00079	ff d6		 call	 esi

; 2977 : 		pGetSkinNotifyFunction		= (FpGetSkinNotifyFunction)::GetProcAddress(m_hLib, "Ex_GetSkinNotifyFunction");

  0007b	68 00 00 00 00	 push	 OFFSET ??_C@_0BJ@LGMPMCJG@Ex_GetSkinNotifyFunction@
  00080	ff 77 04	 push	 DWORD PTR [edi+4]
  00083	89 87 28 01 00
	00		 mov	 DWORD PTR [edi+296], eax
  00089	ff d6		 call	 esi

; 2978 : 		pDrawItemListCtrl		= (FpDrawItemListCtrl)::GetProcAddress(m_hLib, "Ex_DrawItemListCtrl");

  0008b	68 00 00 00 00	 push	 OFFSET ??_C@_0BE@DIEFKEEA@Ex_DrawItemListCtrl@
  00090	ff 77 04	 push	 DWORD PTR [edi+4]
  00093	89 87 2c 01 00
	00		 mov	 DWORD PTR [edi+300], eax
  00099	ff d6		 call	 esi

; 2979 : 		pPreSubclassWindowListCtrl		= (FpPreSubclassWindowListCtrl)::GetProcAddress(m_hLib, "Ex_PreSubclassWindowListCtrl");

  0009b	68 00 00 00 00	 push	 OFFSET ??_C@_0BN@PNBHFIMG@Ex_PreSubclassWindowListCtrl@
  000a0	ff 77 04	 push	 DWORD PTR [edi+4]
  000a3	89 87 30 01 00
	00		 mov	 DWORD PTR [edi+304], eax
  000a9	ff d6		 call	 esi

; 2980 : 		pOnNotifyListCtrl		= (FpOnNotifyListCtrl)::GetProcAddress(m_hLib, "Ex_OnNotifyListCtrl");

  000ab	68 00 00 00 00	 push	 OFFSET ??_C@_0BE@CACJKEIF@Ex_OnNotifyListCtrl@
  000b0	ff 77 04	 push	 DWORD PTR [edi+4]
  000b3	89 87 34 01 00
	00		 mov	 DWORD PTR [edi+308], eax
  000b9	ff d6		 call	 esi

; 2981 : 		pSetHeaderHeight		= (FpSetHeaderHeight)::GetProcAddress(m_hLib, "Ex_SetHeaderHeight");

  000bb	68 00 00 00 00	 push	 OFFSET ??_C@_0BD@JBADKGIL@Ex_SetHeaderHeight@
  000c0	ff 77 04	 push	 DWORD PTR [edi+4]
  000c3	89 87 38 01 00
	00		 mov	 DWORD PTR [edi+312], eax
  000c9	ff d6		 call	 esi

; 2982 : 		pSetRowHeight		= (FpSetRowHeight)::GetProcAddress(m_hLib, "Ex_SetRowHeight");

  000cb	68 00 00 00 00	 push	 OFFSET ??_C@_0BA@DNFEEOEC@Ex_SetRowHeight@
  000d0	ff 77 04	 push	 DWORD PTR [edi+4]
  000d3	89 87 3c 01 00
	00		 mov	 DWORD PTR [edi+316], eax
  000d9	ff d6		 call	 esi

; 2983 : 		pSetAutoColSize		= (FpSetAutoColSize)::GetProcAddress(m_hLib, "Ex_SetAutoColSize");

  000db	68 00 00 00 00	 push	 OFFSET ??_C@_0BC@GKDDFBPH@Ex_SetAutoColSize@
  000e0	ff 77 04	 push	 DWORD PTR [edi+4]
  000e3	89 87 40 01 00
	00		 mov	 DWORD PTR [edi+320], eax
  000e9	ff d6		 call	 esi

; 2984 : 		pSetTwotoneRowColor		= (FpSetTwotoneRowColor)::GetProcAddress(m_hLib, "Ex_SetTwotoneRowColor");

  000eb	68 00 00 00 00	 push	 OFFSET ??_C@_0BG@BEPJAMBM@Ex_SetTwotoneRowColor@
  000f0	ff 77 04	 push	 DWORD PTR [edi+4]
  000f3	89 87 44 01 00
	00		 mov	 DWORD PTR [edi+324], eax
  000f9	ff d6		 call	 esi
  000fb	89 87 48 01 00
	00		 mov	 DWORD PTR [edi+328], eax

; 2985 : 
; 2986 : 		return TRUE;

  00101	b8 01 00 00 00	 mov	 eax, 1
  00106	5e		 pop	 esi
  00107	5f		 pop	 edi

; 2987 : 	}

  00108	c3		 ret	 0
?LoadProcAddress@CLoaderListCtrl@@UAEHXZ ENDP		; CLoaderListCtrl::LoadProcAddress
_TEXT	ENDS
; Function compile flags: /Ogtp
; File D:\git\src\IBK\IBK_DRFN\ProjSrc\SrcDrfn\Chart\ExControl\include\LoadHelper.h
; File D:\git\src\IBK\IBK_DRFN\ProjSrc\SrcDrfn\Chart\ExControl\include\BaseLoadHelper.h
; File D:\git\src\IBK\IBK_DRFN\ProjSrc\SrcDrfn\Chart\ExControl\include\LoadHelper.h
;	COMDAT ??1CLoaderListCtrl@@UAE@XZ
_TEXT	SEGMENT
__$EHRec$ = -12						; size = 12
??1CLoaderListCtrl@@UAE@XZ PROC				; CLoaderListCtrl::~CLoaderListCtrl, COMDAT
; _this$ = ecx

; 2957 : 	{

  00000	55		 push	 ebp
  00001	8b ec		 mov	 ebp, esp
  00003	6a ff		 push	 -1
  00005	68 00 00 00 00	 push	 __ehhandler$??1CLoaderListCtrl@@UAE@XZ
  0000a	64 a1 00 00 00
	00		 mov	 eax, DWORD PTR fs:0
  00010	50		 push	 eax
  00011	56		 push	 esi
  00012	a1 00 00 00 00	 mov	 eax, DWORD PTR ___security_cookie
  00017	33 c5		 xor	 eax, ebp
  00019	50		 push	 eax
  0001a	8d 45 f4	 lea	 eax, DWORD PTR __$EHRec$[ebp]
  0001d	64 a3 00 00 00
	00		 mov	 DWORD PTR fs:0, eax
  00023	8b f1		 mov	 esi, ecx

; 2958 : 		if(m_hLib)

  00025	8b 46 04	 mov	 eax, DWORD PTR [esi+4]
  00028	c7 06 00 00 00
	00		 mov	 DWORD PTR [esi], OFFSET ??_7CLoaderListCtrl@@6B@
  0002e	85 c0		 test	 eax, eax
  00030	74 14		 je	 SHORT $LN2@CLoaderLis

; 2959 : 			pExitListCtrl(m_lpPointer);

  00032	ff b6 0c 01 00
	00		 push	 DWORD PTR [esi+268]
  00038	8b 86 14 01 00
	00		 mov	 eax, DWORD PTR [esi+276]
  0003e	ff d0		 call	 eax
  00040	8b 46 04	 mov	 eax, DWORD PTR [esi+4]
  00043	83 c4 04	 add	 esp, 4
$LN2@CLoaderLis:
; File D:\git\src\IBK\IBK_DRFN\ProjSrc\SrcDrfn\Chart\ExControl\include\BaseLoadHelper.h

; 13   : 	{

  00046	c7 06 00 00 00
	00		 mov	 DWORD PTR [esi], OFFSET ??_7CExLoadLib@@6B@

; 53   : 		if(!m_hLib)

  0004c	85 c0		 test	 eax, eax
  0004e	74 0e		 je	 SHORT $LN6@CLoaderLis

; 54   : 			return TRUE;
; 55   : 
; 56   : 		BOOL bResult = ::FreeLibrary(m_hLib);

  00050	50		 push	 eax
  00051	ff 15 00 00 00
	00		 call	 DWORD PTR __imp__FreeLibrary@4

; 57   : 		
; 58   : 		m_hLib = NULL;

  00057	c7 46 04 00 00
	00 00		 mov	 DWORD PTR [esi+4], 0
$LN6@CLoaderLis:
; File D:\git\src\IBK\IBK_DRFN\ProjSrc\SrcDrfn\Chart\ExControl\include\LoadHelper.h

; 2960 : 	}

  0005e	8b 4d f4	 mov	 ecx, DWORD PTR __$EHRec$[ebp]
  00061	64 89 0d 00 00
	00 00		 mov	 DWORD PTR fs:0, ecx
  00068	59		 pop	 ecx
  00069	5e		 pop	 esi
  0006a	8b e5		 mov	 esp, ebp
  0006c	5d		 pop	 ebp
  0006d	c3		 ret	 0
  0006e	cc		 int	 3
  0006f	cc		 int	 3
  00070	cc		 int	 3
  00071	cc		 int	 3
  00072	cc		 int	 3
_TEXT	ENDS
;	COMDAT text$x
text$x	SEGMENT
__ehhandler$??1CLoaderListCtrl@@UAE@XZ:
  00000	90		 npad	 1
  00001	90		 npad	 1
  00002	8b 54 24 08	 mov	 edx, DWORD PTR [esp+8]
  00006	8d 42 0c	 lea	 eax, DWORD PTR [edx+12]
  00009	8b 4a f8	 mov	 ecx, DWORD PTR [edx-8]
  0000c	33 c8		 xor	 ecx, eax
  0000e	e8 00 00 00 00	 call	 @__security_check_cookie@4
  00013	b8 00 00 00 00	 mov	 eax, OFFSET __ehfuncinfo$??1CLoaderListCtrl@@UAE@XZ
  00018	e9 00 00 00 00	 jmp	 ___CxxFrameHandler3
text$x	ENDS
??1CLoaderListCtrl@@UAE@XZ ENDP				; CLoaderListCtrl::~CLoaderListCtrl
; Function compile flags: /Ogtp
; File D:\git\src\IBK\IBK_DRFN\ProjSrc\SrcDrfn\Chart\ExControl\include\LoadHelper.h
; File D:\git\src\IBK\IBK_DRFN\ProjSrc\SrcDrfn\Chart\ExControl\include\BaseLoadHelper.h
; File D:\git\src\IBK\IBK_DRFN\ProjSrc\SrcDrfn\Chart\ExControl\include\LoadHelper.h
; File D:\git\src\IBK\IBK_DRFN\ProjSrc\SrcDrfn\ForSite\FS_Env.h
; File D:\git\src\IBK\IBK_DRFN\ProjSrc\SrcDrfn\Chart\ExControl\include\LoadHelper.h
; File D:\git\src\IBK\IBK_DRFN\ProjSrc\SrcDrfn\Chart\ExControl\include\BaseLoadHelper.h
; File D:\git\src\IBK\IBK_DRFN\ProjSrc\SrcDrfn\Chart\ExControl\include\LoadHelper.h
; File D:\git\src\IBK\IBK_DRFN\ProjSrc\SrcDrfn\Chart\ExControl\include\BaseLoadHelper.h
; File D:\git\src\IBK\IBK_DRFN\ProjSrc\SrcDrfn\Chart\ExControl\include\LoadHelper.h
;	COMDAT ??0CLoaderListCtrl@@QAE@PAXH@Z
_TEXT	SEGMENT
_this$GSCopy$ = -296					; size = 4
_lpPointer$GSCopy$1$ = -292				; size = 4
_szDir$ = -288						; size = 4
_hLib$1$ = -284						; size = 4
$T2 = -284						; size = 4
$T3 = -284						; size = 4
_this$ = -284						; size = 4
_err$1$ = -280						; size = 4
__strRoot_$4 = -280					; size = 4
_szMsg$5 = -276						; size = 260
_szBuf$6 = -272						; size = 255
__$ArrayPad$7 = -16					; size = 4
__$EHRec$ = -12						; size = 12
_lpPointer$ = 8						; size = 4
_bUseDefSkin$ = 12					; size = 4
??0CLoaderListCtrl@@QAE@PAXH@Z PROC			; CLoaderListCtrl::CLoaderListCtrl, COMDAT
; _this$ = ecx

; 2916 : 	CLoaderListCtrl(LPVOID lpPointer, BOOL bUseDefSkin) 

  00000	55		 push	 ebp
  00001	8b ec		 mov	 ebp, esp
  00003	6a ff		 push	 -1
  00005	68 00 00 00 00	 push	 __ehhandler$??0CLoaderListCtrl@@QAE@PAXH@Z
  0000a	64 a1 00 00 00
	00		 mov	 eax, DWORD PTR fs:0
  00010	50		 push	 eax
  00011	81 ec 1c 01 00
	00		 sub	 esp, 284		; 0000011cH
  00017	a1 00 00 00 00	 mov	 eax, DWORD PTR ___security_cookie
  0001c	33 c5		 xor	 eax, ebp
  0001e	89 45 f0	 mov	 DWORD PTR __$ArrayPad$7[ebp], eax
  00021	53		 push	 ebx
  00022	56		 push	 esi
  00023	57		 push	 edi
  00024	50		 push	 eax
  00025	8d 45 f4	 lea	 eax, DWORD PTR __$EHRec$[ebp]
  00028	64 a3 00 00 00
	00		 mov	 DWORD PTR fs:0, eax
  0002e	8b f1		 mov	 esi, ecx
  00030	89 b5 e4 fe ff
	ff		 mov	 DWORD PTR _this$[ebp], esi
  00036	8b 45 08	 mov	 eax, DWORD PTR _lpPointer$[ebp]
  00039	8b 5d 0c	 mov	 ebx, DWORD PTR _bUseDefSkin$[ebp]
  0003c	89 b5 d8 fe ff
	ff		 mov	 DWORD PTR _this$GSCopy$[ebp], esi
  00042	89 85 dc fe ff
	ff		 mov	 DWORD PTR _lpPointer$GSCopy$1$[ebp], eax
; File D:\git\src\IBK\IBK_DRFN\ProjSrc\SrcDrfn\Chart\ExControl\include\BaseLoadHelper.h

; 9    : 		m_hLib = NULL;

  00048	c7 46 04 00 00
	00 00		 mov	 DWORD PTR [esi+4], 0
; File D:\git\src\IBK\IBK_DRFN\ProjSrc\SrcDrfn\Chart\ExControl\include\LoadHelper.h

; 2927 : 		CString szDir;

  0004f	8d 8d e0 fe ff
	ff		 lea	 ecx, DWORD PTR _szDir$[ebp]
  00055	c7 45 fc 00 00
	00 00		 mov	 DWORD PTR __$EHRec$[ebp+8], 0
  0005c	c7 06 00 00 00
	00		 mov	 DWORD PTR [esi], OFFSET ??_7CLoaderListCtrl@@6B@
  00062	ff 15 00 00 00
	00		 call	 DWORD PTR __imp_??0?$CStringT@DV?$StrTraitMFC_DLL@DV?$ChTraitsCRT@D@ATL@@@@@ATL@@QAE@XZ
; File D:\git\src\IBK\IBK_DRFN\ProjSrc\SrcDrfn\ForSite\FS_Env.h

; 22   : 	CString	_strRoot_;

  00068	8d 8d e8 fe ff
	ff		 lea	 ecx, DWORD PTR __strRoot_$4[ebp]
  0006e	ff 15 00 00 00
	00		 call	 DWORD PTR __imp_??0?$CStringT@DV?$StrTraitMFC_DLL@DV?$ChTraitsCRT@D@ATL@@@@@ATL@@QAE@XZ

; 15   : 	::GetModuleFileName(NULL, szBuf, 255);

  00074	68 ff 00 00 00	 push	 255			; 000000ffH
  00079	8d 85 f0 fe ff
	ff		 lea	 eax, DWORD PTR _szBuf$6[ebp]

; 22   : 	CString	_strRoot_;

  0007f	c6 45 fc 02	 mov	 BYTE PTR __$EHRec$[ebp+8], 2

; 15   : 	::GetModuleFileName(NULL, szBuf, 255);

  00083	50		 push	 eax
  00084	6a 00		 push	 0
  00086	ff 15 00 00 00
	00		 call	 DWORD PTR __imp__GetModuleFileNameA@12

; 16   : 	rString = szBuf;

  0008c	8d 85 f0 fe ff
	ff		 lea	 eax, DWORD PTR _szBuf$6[ebp]
  00092	50		 push	 eax
  00093	8d 8d e8 fe ff
	ff		 lea	 ecx, DWORD PTR __strRoot_$4[ebp]
  00099	ff 15 00 00 00
	00		 call	 DWORD PTR __imp_??4?$CStringT@DV?$StrTraitMFC_DLL@DV?$ChTraitsCRT@D@ATL@@@@@ATL@@QAEAAV01@PBD@Z

; 25   : 	int _loc_ = _strRoot_.ReverseFind('\\');

  0009f	6a 5c		 push	 92			; 0000005cH
  000a1	8d 8d e8 fe ff
	ff		 lea	 ecx, DWORD PTR __strRoot_$4[ebp]
  000a7	ff 15 00 00 00
	00		 call	 DWORD PTR __imp_?ReverseFind@?$CStringT@DV?$StrTraitMFC_DLL@DV?$ChTraitsCRT@D@ATL@@@@@ATL@@QBEHD@Z

; 26   : 	if( _loc_ > 0)

  000ad	85 c0		 test	 eax, eax
  000af	7e 35		 jle	 SHORT $LN12@CLoaderLis

; 27   : 		_strRoot_ = _strRoot_.Left(_loc_);

  000b1	50		 push	 eax
  000b2	8d 85 e4 fe ff
	ff		 lea	 eax, DWORD PTR $T3[ebp]
  000b8	50		 push	 eax
  000b9	8d 8d e8 fe ff
	ff		 lea	 ecx, DWORD PTR __strRoot_$4[ebp]
  000bf	ff 15 00 00 00
	00		 call	 DWORD PTR __imp_?Left@?$CStringT@DV?$StrTraitMFC_DLL@DV?$ChTraitsCRT@D@ATL@@@@@ATL@@QBE?AV12@H@Z
  000c5	50		 push	 eax
  000c6	8d 8d e8 fe ff
	ff		 lea	 ecx, DWORD PTR __strRoot_$4[ebp]
  000cc	c6 45 fc 03	 mov	 BYTE PTR __$EHRec$[ebp+8], 3
  000d0	ff 15 00 00 00
	00		 call	 DWORD PTR __imp_??4?$CStringT@DV?$StrTraitMFC_DLL@DV?$ChTraitsCRT@D@ATL@@@@@ATL@@QAEAAV01@ABV01@@Z
  000d6	8d 8d e4 fe ff
	ff		 lea	 ecx, DWORD PTR $T3[ebp]
  000dc	c6 45 fc 02	 mov	 BYTE PTR __$EHRec$[ebp+8], 2
  000e0	ff 15 00 00 00
	00		 call	 DWORD PTR __imp_??1?$CStringT@DV?$StrTraitMFC_DLL@DV?$ChTraitsCRT@D@ATL@@@@@ATL@@QAE@XZ
$LN12@CLoaderLis:

; 28   : 	_loc_ = _strRoot_.ReverseFind('\\');

  000e6	6a 5c		 push	 92			; 0000005cH
  000e8	8d 8d e8 fe ff
	ff		 lea	 ecx, DWORD PTR __strRoot_$4[ebp]
  000ee	ff 15 00 00 00
	00		 call	 DWORD PTR __imp_?ReverseFind@?$CStringT@DV?$StrTraitMFC_DLL@DV?$ChTraitsCRT@D@ATL@@@@@ATL@@QBEHD@Z

; 29   : 	if( _loc_ > 0)

  000f4	85 c0		 test	 eax, eax
  000f6	7e 35		 jle	 SHORT $LN13@CLoaderLis

; 30   : 		_strRoot_ = _strRoot_.Left(_loc_);

  000f8	50		 push	 eax
  000f9	8d 85 e4 fe ff
	ff		 lea	 eax, DWORD PTR $T2[ebp]
  000ff	50		 push	 eax
  00100	8d 8d e8 fe ff
	ff		 lea	 ecx, DWORD PTR __strRoot_$4[ebp]
  00106	ff 15 00 00 00
	00		 call	 DWORD PTR __imp_?Left@?$CStringT@DV?$StrTraitMFC_DLL@DV?$ChTraitsCRT@D@ATL@@@@@ATL@@QBE?AV12@H@Z
  0010c	50		 push	 eax
  0010d	8d 8d e8 fe ff
	ff		 lea	 ecx, DWORD PTR __strRoot_$4[ebp]
  00113	c6 45 fc 04	 mov	 BYTE PTR __$EHRec$[ebp+8], 4
  00117	ff 15 00 00 00
	00		 call	 DWORD PTR __imp_??4?$CStringT@DV?$StrTraitMFC_DLL@DV?$ChTraitsCRT@D@ATL@@@@@ATL@@QAEAAV01@ABV01@@Z
  0011d	8d 8d e4 fe ff
	ff		 lea	 ecx, DWORD PTR $T2[ebp]
  00123	c6 45 fc 02	 mov	 BYTE PTR __$EHRec$[ebp+8], 2
  00127	ff 15 00 00 00
	00		 call	 DWORD PTR __imp_??1?$CStringT@DV?$StrTraitMFC_DLL@DV?$ChTraitsCRT@D@ATL@@@@@ATL@@QAE@XZ
$LN13@CLoaderLis:

; 31   : 	rString = _strRoot_;

  0012d	8d 85 e8 fe ff
	ff		 lea	 eax, DWORD PTR __strRoot_$4[ebp]
  00133	50		 push	 eax
  00134	8d 8d e0 fe ff
	ff		 lea	 ecx, DWORD PTR _szDir$[ebp]
  0013a	ff 15 00 00 00
	00		 call	 DWORD PTR __imp_??4?$CStringT@DV?$StrTraitMFC_DLL@DV?$ChTraitsCRT@D@ATL@@@@@ATL@@QAEAAV01@ABV01@@Z

; 32   : }

  00140	8d 8d e8 fe ff
	ff		 lea	 ecx, DWORD PTR __strRoot_$4[ebp]
  00146	c6 45 fc 01	 mov	 BYTE PTR __$EHRec$[ebp+8], 1
  0014a	ff 15 00 00 00
	00		 call	 DWORD PTR __imp_??1?$CStringT@DV?$StrTraitMFC_DLL@DV?$ChTraitsCRT@D@ATL@@@@@ATL@@QAE@XZ

; 47   : 	rString += "\\Dev";

  00150	68 00 00 00 00	 push	 OFFSET ??_C@_04OHDBDCPJ@?2Dev@
  00155	8d 8d e0 fe ff
	ff		 lea	 ecx, DWORD PTR _szDir$[ebp]
  0015b	ff 15 00 00 00
	00		 call	 DWORD PTR __imp_??Y?$CStringT@DV?$StrTraitMFC_DLL@DV?$ChTraitsCRT@D@ATL@@@@@ATL@@QAEAAV01@PBD@Z
; File D:\git\src\IBK\IBK_DRFN\ProjSrc\SrcDrfn\Chart\ExControl\include\LoadHelper.h

; 2929 : 		::sprintf(m_szDllName, "%s\\%s", (LPCSTR)szDir, LISTCTRL_DLL);

  00161	68 00 00 00 00	 push	 OFFSET ??_C@_0P@ILDMLCBB@ExListCtrl?4dll@
  00166	ff b5 e0 fe ff
	ff		 push	 DWORD PTR _szDir$[ebp]
  0016c	8d 7e 08	 lea	 edi, DWORD PTR [esi+8]
  0016f	68 00 00 00 00	 push	 OFFSET ??_C@_05BMGBEOOC@?$CFs?2?$CFs@
  00174	57		 push	 edi
  00175	e8 00 00 00 00	 call	 _sprintf
  0017a	83 c4 10	 add	 esp, 16			; 00000010H

; 2930 : 		//<--Solomon-090829수정..
; 2931 : 
; 2932 : 		pActionControl = NULL;

  0017d	c7 86 10 01 00
	00 00 00 00 00	 mov	 DWORD PTR [esi+272], 0

; 2933 : 		pExitListCtrl = NULL;

  00187	c7 86 14 01 00
	00 00 00 00 00	 mov	 DWORD PTR [esi+276], 0

; 2934 : 		pOnEraseBkgnd = NULL;

  00191	c7 86 18 01 00
	00 00 00 00 00	 mov	 DWORD PTR [esi+280], 0

; 2935 : 		pInitListCtrl = NULL;

  0019b	c7 86 1c 01 00
	00 00 00 00 00	 mov	 DWORD PTR [esi+284], 0
; File D:\git\src\IBK\IBK_DRFN\ProjSrc\SrcDrfn\Chart\ExControl\include\BaseLoadHelper.h

; 26   : 		hLib = ::LoadLibrary(m_szDllName);

  001a5	57		 push	 edi
; File D:\git\src\IBK\IBK_DRFN\ProjSrc\SrcDrfn\Chart\ExControl\include\LoadHelper.h

; 2936 : 		pInitListCtrl2 = NULL;

  001a6	c7 86 20 01 00
	00 00 00 00 00	 mov	 DWORD PTR [esi+288], 0

; 2937 : 		pOnDestroyPre = NULL;

  001b0	c7 86 24 01 00
	00 00 00 00 00	 mov	 DWORD PTR [esi+292], 0

; 2938 : 		pDisableColumnSizing = NULL;

  001ba	c7 86 28 01 00
	00 00 00 00 00	 mov	 DWORD PTR [esi+296], 0

; 2939 : 		pGetSkinNotifyFunction = NULL;

  001c4	c7 86 2c 01 00
	00 00 00 00 00	 mov	 DWORD PTR [esi+300], 0

; 2940 : 		pDrawItemListCtrl = NULL;

  001ce	c7 86 30 01 00
	00 00 00 00 00	 mov	 DWORD PTR [esi+304], 0

; 2941 : 		pPreSubclassWindowListCtrl = NULL;

  001d8	c7 86 34 01 00
	00 00 00 00 00	 mov	 DWORD PTR [esi+308], 0

; 2942 : 		pOnNotifyListCtrl = NULL;

  001e2	c7 86 38 01 00
	00 00 00 00 00	 mov	 DWORD PTR [esi+312], 0

; 2943 : 		pSetHeaderHeight = NULL;

  001ec	c7 86 3c 01 00
	00 00 00 00 00	 mov	 DWORD PTR [esi+316], 0

; 2944 : 		pSetRowHeight = NULL;

  001f6	c7 86 40 01 00
	00 00 00 00 00	 mov	 DWORD PTR [esi+320], 0

; 2945 : 		pSetAutoColSize = NULL;

  00200	c7 86 44 01 00
	00 00 00 00 00	 mov	 DWORD PTR [esi+324], 0

; 2946 : 		pSetTwotoneRowColor = NULL;

  0020a	c7 86 48 01 00
	00 00 00 00 00	 mov	 DWORD PTR [esi+328], 0
; File D:\git\src\IBK\IBK_DRFN\ProjSrc\SrcDrfn\Chart\ExControl\include\BaseLoadHelper.h

; 26   : 		hLib = ::LoadLibrary(m_szDllName);

  00214	ff 15 00 00 00
	00		 call	 DWORD PTR __imp__LoadLibraryA@4
  0021a	89 85 e4 fe ff
	ff		 mov	 DWORD PTR _hLib$1$[ebp], eax

; 27   : 
; 28   : 		DWORD err = GetLastError();

  00220	ff 15 00 00 00
	00		 call	 DWORD PTR __imp__GetLastError@0
  00226	89 85 e8 fe ff
	ff		 mov	 DWORD PTR _err$1$[ebp], eax

; 29   : 
; 30   : 		if(!hLib) 

  0022c	8b 85 e4 fe ff
	ff		 mov	 eax, DWORD PTR _hLib$1$[ebp]
  00232	85 c0		 test	 eax, eax
  00234	75 3f		 jne	 SHORT $LN23@CLoaderLis

; 31   : 		{
; 32   : 			char szMsg[MAX_PATH] = {0, };

  00236	68 04 01 00 00	 push	 260			; 00000104H
  0023b	50		 push	 eax
  0023c	8d 85 ec fe ff
	ff		 lea	 eax, DWORD PTR _szMsg$5[ebp]
  00242	50		 push	 eax
  00243	e8 00 00 00 00	 call	 _memset

; 33   : 			::sprintf(szMsg, "DLL[%s]을 Load할 수 없습니다. [%d]", m_szDllName, err);

  00248	ff b5 e8 fe ff
	ff		 push	 DWORD PTR _err$1$[ebp]
  0024e	8d 85 ec fe ff
	ff		 lea	 eax, DWORD PTR _szMsg$5[ebp]
  00254	57		 push	 edi
  00255	68 00 00 00 00	 push	 OFFSET ??_C@_0CD@INEDAMEN@DLL?$FL?$CFs?$FN?$MA?$LL?5Load?G?R?5?$LM?v?5?$LO?x?$LN?$MA?$LE?O?$LE?Y?4?5?$FL@
  0025a	50		 push	 eax
  0025b	e8 00 00 00 00	 call	 _sprintf
  00260	83 c4 1c	 add	 esp, 28			; 0000001cH

; 34   : 			AfxMessageBox(szMsg);

  00263	8d 85 ec fe ff
	ff		 lea	 eax, DWORD PTR _szMsg$5[ebp]
  00269	6a 00		 push	 0
  0026b	6a 00		 push	 0
  0026d	50		 push	 eax
  0026e	e8 00 00 00 00	 call	 ?AfxMessageBox@@YGHPBDII@Z ; AfxMessageBox

; 35   : 
; 36   : 			return NULL;

  00273	eb 32		 jmp	 SHORT $LN28@CLoaderLis
$LN23@CLoaderLis:

; 37   : 		}
; 38   : 
; 39   : 		m_hLib = hLib;

  00275	89 46 04	 mov	 DWORD PTR [esi+4], eax

; 40   : 
; 41   : 		if(!LoadProcAddress()) 

  00278	8b ce		 mov	 ecx, esi
  0027a	8b 06		 mov	 eax, DWORD PTR [esi]
  0027c	8b 00		 mov	 eax, DWORD PTR [eax]
  0027e	3d 00 00 00 00	 cmp	 eax, OFFSET ?LoadProcAddress@CLoaderListCtrl@@UAEHXZ ; CLoaderListCtrl::LoadProcAddress
  00283	75 07		 jne	 SHORT $LN27@CLoaderLis
  00285	e8 00 00 00 00	 call	 ?LoadProcAddress@CLoaderListCtrl@@UAEHXZ ; CLoaderListCtrl::LoadProcAddress
  0028a	eb 02		 jmp	 SHORT $LN26@CLoaderLis
$LN27@CLoaderLis:
  0028c	ff d0		 call	 eax
$LN26@CLoaderLis:
  0028e	85 c0		 test	 eax, eax
  00290	75 15		 jne	 SHORT $LN28@CLoaderLis

; 53   : 		if(!m_hLib)

  00292	8b 46 04	 mov	 eax, DWORD PTR [esi+4]
  00295	85 c0		 test	 eax, eax
  00297	74 0e		 je	 SHORT $LN28@CLoaderLis

; 54   : 			return TRUE;
; 55   : 
; 56   : 		BOOL bResult = ::FreeLibrary(m_hLib);

  00299	50		 push	 eax
  0029a	ff 15 00 00 00
	00		 call	 DWORD PTR __imp__FreeLibrary@4

; 57   : 		
; 58   : 		m_hLib = NULL;

  002a0	c7 46 04 00 00
	00 00		 mov	 DWORD PTR [esi+4], 0
$LN28@CLoaderLis:
; File D:\git\src\IBK\IBK_DRFN\ProjSrc\SrcDrfn\Chart\ExControl\include\LoadHelper.h

; 2950 : 		if(bUseDefSkin)

  002a7	85 db		 test	 ebx, ebx
  002a9	74 14		 je	 SHORT $LN2@CLoaderLis

; 2951 : 			m_lpPointer = pInitListCtrl2(lpPointer, bUseDefSkin);

  002ab	8b 86 20 01 00
	00		 mov	 eax, DWORD PTR [esi+288]
  002b1	53		 push	 ebx
  002b2	ff b5 dc fe ff
	ff		 push	 DWORD PTR _lpPointer$GSCopy$1$[ebp]
  002b8	ff d0		 call	 eax
  002ba	83 c4 08	 add	 esp, 8
  002bd	eb 11		 jmp	 SHORT $LN3@CLoaderLis
$LN2@CLoaderLis:

; 2952 : 		else
; 2953 : 			m_lpPointer = pInitListCtrl(lpPointer);

  002bf	ff b5 dc fe ff
	ff		 push	 DWORD PTR _lpPointer$GSCopy$1$[ebp]
  002c5	8b 86 1c 01 00
	00		 mov	 eax, DWORD PTR [esi+284]
  002cb	ff d0		 call	 eax
  002cd	83 c4 04	 add	 esp, 4
$LN3@CLoaderLis:

; 2954 : 	}

  002d0	8d 8d e0 fe ff
	ff		 lea	 ecx, DWORD PTR _szDir$[ebp]
  002d6	89 86 0c 01 00
	00		 mov	 DWORD PTR [esi+268], eax
  002dc	ff 15 00 00 00
	00		 call	 DWORD PTR __imp_??1?$CStringT@DV?$StrTraitMFC_DLL@DV?$ChTraitsCRT@D@ATL@@@@@ATL@@QAE@XZ
  002e2	8b c6		 mov	 eax, esi
  002e4	8b 4d f4	 mov	 ecx, DWORD PTR __$EHRec$[ebp]
  002e7	64 89 0d 00 00
	00 00		 mov	 DWORD PTR fs:0, ecx
  002ee	59		 pop	 ecx
  002ef	5f		 pop	 edi
  002f0	5e		 pop	 esi
  002f1	5b		 pop	 ebx
  002f2	8b 4d f0	 mov	 ecx, DWORD PTR __$ArrayPad$7[ebp]
  002f5	33 cd		 xor	 ecx, ebp
  002f7	e8 00 00 00 00	 call	 @__security_check_cookie@4
  002fc	8b e5		 mov	 esp, ebp
  002fe	5d		 pop	 ebp
  002ff	c2 08 00	 ret	 8
_TEXT	ENDS
;	COMDAT text$x
text$x	SEGMENT
__unwindfunclet$??0CLoaderListCtrl@@QAE@PAXH@Z$0:
  00000	8b 8d d8 fe ff
	ff		 mov	 ecx, DWORD PTR _this$GSCopy$[ebp]
  00006	e9 00 00 00 00	 jmp	 ??1CExLoadLib@@QAE@XZ	; CExLoadLib::~CExLoadLib
__unwindfunclet$??0CLoaderListCtrl@@QAE@PAXH@Z$1:
  0000b	8d 8d e0 fe ff
	ff		 lea	 ecx, DWORD PTR _szDir$[ebp]
  00011	ff 25 00 00 00
	00		 jmp	 DWORD PTR __imp_??1?$CStringT@DV?$StrTraitMFC_DLL@DV?$ChTraitsCRT@D@ATL@@@@@ATL@@QAE@XZ
__unwindfunclet$??0CLoaderListCtrl@@QAE@PAXH@Z$2:
  00017	8d 8d e8 fe ff
	ff		 lea	 ecx, DWORD PTR __strRoot_$4[ebp]
  0001d	ff 25 00 00 00
	00		 jmp	 DWORD PTR __imp_??1?$CStringT@DV?$StrTraitMFC_DLL@DV?$ChTraitsCRT@D@ATL@@@@@ATL@@QAE@XZ
__unwindfunclet$??0CLoaderListCtrl@@QAE@PAXH@Z$3:
  00023	8d 8d e4 fe ff
	ff		 lea	 ecx, DWORD PTR $T3[ebp]
  00029	ff 25 00 00 00
	00		 jmp	 DWORD PTR __imp_??1?$CStringT@DV?$StrTraitMFC_DLL@DV?$ChTraitsCRT@D@ATL@@@@@ATL@@QAE@XZ
__unwindfunclet$??0CLoaderListCtrl@@QAE@PAXH@Z$4:
  0002f	8d 8d e4 fe ff
	ff		 lea	 ecx, DWORD PTR $T2[ebp]
  00035	ff 25 00 00 00
	00		 jmp	 DWORD PTR __imp_??1?$CStringT@DV?$StrTraitMFC_DLL@DV?$ChTraitsCRT@D@ATL@@@@@ATL@@QAE@XZ
  0003b	cc		 int	 3
  0003c	cc		 int	 3
  0003d	cc		 int	 3
  0003e	cc		 int	 3
  0003f	cc		 int	 3
__ehhandler$??0CLoaderListCtrl@@QAE@PAXH@Z:
  00040	90		 npad	 1
  00041	90		 npad	 1
  00042	8b 54 24 08	 mov	 edx, DWORD PTR [esp+8]
  00046	8d 42 0c	 lea	 eax, DWORD PTR [edx+12]
  00049	8b 8a d4 fe ff
	ff		 mov	 ecx, DWORD PTR [edx-300]
  0004f	33 c8		 xor	 ecx, eax
  00051	e8 00 00 00 00	 call	 @__security_check_cookie@4
  00056	8b 4a fc	 mov	 ecx, DWORD PTR [edx-4]
  00059	33 c8		 xor	 ecx, eax
  0005b	e8 00 00 00 00	 call	 @__security_check_cookie@4
  00060	b8 00 00 00 00	 mov	 eax, OFFSET __ehfuncinfo$??0CLoaderListCtrl@@QAE@PAXH@Z
  00065	e9 00 00 00 00	 jmp	 ___CxxFrameHandler3
text$x	ENDS
??0CLoaderListCtrl@@QAE@PAXH@Z ENDP			; CLoaderListCtrl::CLoaderListCtrl
; Function compile flags: /Ogtp
; File D:\git\src\IBK\IBK_DRFN\ProjSrc\SrcDrfn\Chart\ExControl\include\BaseLoadHelper.h
;	COMDAT ?LoadProcAddress@CExLoadLib@@UAEHXZ
_TEXT	SEGMENT
?LoadProcAddress@CExLoadLib@@UAEHXZ PROC		; CExLoadLib::LoadProcAddress, COMDAT
; _this$ = ecx

; 19   : 		ASSERT(FALSE); 
; 20   : 		return FALSE;

  00000	33 c0		 xor	 eax, eax

; 21   : 	}

  00002	c3		 ret	 0
?LoadProcAddress@CExLoadLib@@UAEHXZ ENDP		; CExLoadLib::LoadProcAddress
_TEXT	ENDS
; Function compile flags: /Ogtp
; File D:\git\src\IBK\IBK_DRFN\ProjSrc\SrcDrfn\Chart\ExControl\include\BaseLoadHelper.h
;	COMDAT ??1CExLoadLib@@QAE@XZ
_TEXT	SEGMENT
??1CExLoadLib@@QAE@XZ PROC				; CExLoadLib::~CExLoadLib, COMDAT
; _this$ = ecx

; 13   : 	{

  00000	56		 push	 esi
  00001	8b f1		 mov	 esi, ecx

; 53   : 		if(!m_hLib)

  00003	8b 46 04	 mov	 eax, DWORD PTR [esi+4]

; 13   : 	{

  00006	c7 06 00 00 00
	00		 mov	 DWORD PTR [esi], OFFSET ??_7CExLoadLib@@6B@

; 53   : 		if(!m_hLib)

  0000c	85 c0		 test	 eax, eax
  0000e	74 0e		 je	 SHORT $LN3@CExLoadLib

; 54   : 			return TRUE;
; 55   : 
; 56   : 		BOOL bResult = ::FreeLibrary(m_hLib);

  00010	50		 push	 eax
  00011	ff 15 00 00 00
	00		 call	 DWORD PTR __imp__FreeLibrary@4

; 57   : 		
; 58   : 		m_hLib = NULL;

  00017	c7 46 04 00 00
	00 00		 mov	 DWORD PTR [esi+4], 0
$LN3@CExLoadLib:
  0001e	5e		 pop	 esi

; 14   : 		UnLoadLib();
; 15   : 	}

  0001f	c3		 ret	 0
??1CExLoadLib@@QAE@XZ ENDP				; CExLoadLib::~CExLoadLib
_TEXT	ENDS
; Function compile flags: /Ogtp
; File D:\git\src\IBK\IBK_DRFN\ProjSrc\SrcDrfn\Chart\ExControl\ExListCtrl.cpp
; File C:\Program Files (x86)\Microsoft Visual Studio\2019\Community\VC\Tools\MSVC\14.29.30133\atlmfc\include\afx.inl
;	COMDAT ??_GCExListCtrl@@UAEPAXI@Z
_TEXT	SEGMENT
___flags$ = 8						; size = 4
??_GCExListCtrl@@UAEPAXI@Z PROC				; CExListCtrl::`scalar deleting destructor', COMDAT
; _this$ = ecx
  00000	55		 push	 ebp
  00001	8b ec		 mov	 ebp, esp
; File D:\git\src\IBK\IBK_DRFN\ProjSrc\SrcDrfn\Chart\ExControl\ExListCtrl.cpp

; 24   : {

  00003	56		 push	 esi
  00004	8b f1		 mov	 esi, ecx

; 25   : 	delete m_pLoader;

  00006	8b 8e 80 00 00
	00		 mov	 ecx, DWORD PTR [esi+128]
  0000c	c7 06 00 00 00
	00		 mov	 DWORD PTR [esi], OFFSET ??_7CExListCtrl@@6B@
  00012	85 c9		 test	 ecx, ecx
  00014	74 07		 je	 SHORT $LN9@scalar
  00016	8b 01		 mov	 eax, DWORD PTR [ecx]
  00018	6a 01		 push	 1
  0001a	ff 50 04	 call	 DWORD PTR [eax+4]
$LN9@scalar:

; 26   : }

  0001d	8b ce		 mov	 ecx, esi
  0001f	e8 00 00 00 00	 call	 ??1CListCtrl@@UAE@XZ	; CListCtrl::~CListCtrl
  00024	8b 45 08	 mov	 eax, DWORD PTR ___flags$[ebp]
  00027	a8 01		 test	 al, 1
  00029	74 22		 je	 SHORT $LN14@scalar
  0002b	a8 04		 test	 al, 4
  0002d	75 10		 jne	 SHORT $LN3@scalar
; File C:\Program Files (x86)\Microsoft Visual Studio\2019\Community\VC\Tools\MSVC\14.29.30133\atlmfc\include\afx.inl

; 112  : 	{ ::operator delete(p); }

  0002f	56		 push	 esi
  00030	e8 00 00 00 00	 call	 ??3@YAXPAX@Z		; operator delete
  00035	83 c4 04	 add	 esp, 4
  00038	8b c6		 mov	 eax, esi
  0003a	5e		 pop	 esi
  0003b	5d		 pop	 ebp
  0003c	c2 04 00	 ret	 4
$LN3@scalar:
  0003f	68 88 00 00 00	 push	 136			; 00000088H
  00044	56		 push	 esi
  00045	e8 00 00 00 00	 call	 ?__global_delete@@YAXPAXI@Z ; __global_delete
  0004a	83 c4 08	 add	 esp, 8
$LN14@scalar:
  0004d	8b c6		 mov	 eax, esi
  0004f	5e		 pop	 esi
  00050	5d		 pop	 ebp
  00051	c2 04 00	 ret	 4
??_GCExListCtrl@@UAEPAXI@Z ENDP				; CExListCtrl::`scalar deleting destructor'
_TEXT	ENDS
; Function compile flags: /Ogtp
; File D:\git\src\IBK\IBK_DRFN\ProjSrc\SrcDrfn\Chart\ExControl\ExListCtrl.cpp
;	COMDAT ?GetMessageMap@CExListCtrl@@MBEPBUAFX_MSGMAP@@XZ
_TEXT	SEGMENT
?GetMessageMap@CExListCtrl@@MBEPBUAFX_MSGMAP@@XZ PROC	; CExListCtrl::GetMessageMap, COMDAT
; _this$ = ecx

; 29   : BEGIN_MESSAGE_MAP(CExListCtrl, CListCtrl)

  00000	b8 00 00 00 00	 mov	 eax, OFFSET ?messageMap@?1??GetThisMessageMap@CExListCtrl@@KGPBUAFX_MSGMAP@@XZ@4U3@B
  00005	c3		 ret	 0
?GetMessageMap@CExListCtrl@@MBEPBUAFX_MSGMAP@@XZ ENDP	; CExListCtrl::GetMessageMap
_TEXT	ENDS
; Function compile flags: /Ogtp
; File D:\git\src\IBK\IBK_DRFN\ProjSrc\SrcDrfn\Chart\ExControl\ExListCtrl.cpp
;	COMDAT ?GetThisMessageMap@CExListCtrl@@KGPBUAFX_MSGMAP@@XZ
_TEXT	SEGMENT
?GetThisMessageMap@CExListCtrl@@KGPBUAFX_MSGMAP@@XZ PROC ; CExListCtrl::GetThisMessageMap, COMDAT

; 30   : 	//{{AFX_MSG_MAP(CExListCtrl)
; 31   : 	ON_WM_DRAWITEM_REFLECT()
; 32   : 	ON_WM_DESTROY()
; 33   : 	ON_WM_ERASEBKGND()
; 34   : 	//}}AFX_MSG_MAP
; 35   : END_MESSAGE_MAP()

  00000	b8 00 00 00 00	 mov	 eax, OFFSET ?messageMap@?1??GetThisMessageMap@CExListCtrl@@KGPBUAFX_MSGMAP@@XZ@4U3@B
  00005	c3		 ret	 0
?GetThisMessageMap@CExListCtrl@@KGPBUAFX_MSGMAP@@XZ ENDP ; CExListCtrl::GetThisMessageMap
_TEXT	ENDS
; Function compile flags: /Ogtp
; File D:\git\src\IBK\IBK_DRFN\ProjSrc\SrcDrfn\Chart\ExControl\ExListCtrl.cpp
; File D:\git\src\IBK\IBK_DRFN\ProjSrc\SrcDrfn\Chart\ExControl\include\LoadHelper.h
; File D:\git\src\IBK\IBK_DRFN\ProjSrc\SrcDrfn\Chart\ExControl\ExListCtrl.cpp
; File D:\git\src\IBK\IBK_DRFN\ProjSrc\SrcDrfn\Chart\ExControl\include\LoadHelper.h
; File D:\git\src\IBK\IBK_DRFN\ProjSrc\SrcDrfn\Chart\ExControl\ExListCtrl.cpp
;	COMDAT ?OnEraseBkgnd@CExListCtrl@@IAEHPAVCDC@@@Z
_TEXT	SEGMENT
_pDC$ = 8						; size = 4
?OnEraseBkgnd@CExListCtrl@@IAEHPAVCDC@@@Z PROC		; CExListCtrl::OnEraseBkgnd, COMDAT
; _this$ = ecx

; 40   : {

  00000	55		 push	 ebp
  00001	8b ec		 mov	 ebp, esp

; 41   : 	return m_pLoader->OnEraseBkgnd(pDC);

  00003	8b 81 80 00 00
	00		 mov	 eax, DWORD PTR [ecx+128]
; File D:\git\src\IBK\IBK_DRFN\ProjSrc\SrcDrfn\Chart\ExControl\include\LoadHelper.h

; 3021 : 		if(!m_hLib)

  00009	83 78 04 00	 cmp	 DWORD PTR [eax+4], 0
  0000d	75 06		 jne	 SHORT $LN4@OnEraseBkg
; File D:\git\src\IBK\IBK_DRFN\ProjSrc\SrcDrfn\Chart\ExControl\ExListCtrl.cpp

; 41   : 	return m_pLoader->OnEraseBkgnd(pDC);

  0000f	33 c0		 xor	 eax, eax

; 42   : }

  00011	5d		 pop	 ebp
  00012	c2 04 00	 ret	 4
$LN4@OnEraseBkg:
; File D:\git\src\IBK\IBK_DRFN\ProjSrc\SrcDrfn\Chart\ExControl\include\LoadHelper.h

; 3024 : 		return pOnEraseBkgnd(m_lpPointer, pDC);

  00015	ff 75 08	 push	 DWORD PTR _pDC$[ebp]
  00018	ff b0 0c 01 00
	00		 push	 DWORD PTR [eax+268]
  0001e	8b 80 18 01 00
	00		 mov	 eax, DWORD PTR [eax+280]
  00024	ff d0		 call	 eax
  00026	83 c4 08	 add	 esp, 8
; File D:\git\src\IBK\IBK_DRFN\ProjSrc\SrcDrfn\Chart\ExControl\ExListCtrl.cpp

; 42   : }

  00029	5d		 pop	 ebp
  0002a	c2 04 00	 ret	 4
?OnEraseBkgnd@CExListCtrl@@IAEHPAVCDC@@@Z ENDP		; CExListCtrl::OnEraseBkgnd
_TEXT	ENDS
; Function compile flags: /Ogtp
; File D:\git\src\IBK\IBK_DRFN\ProjSrc\SrcDrfn\Chart\ExControl\ExListCtrl.cpp
; File D:\git\src\IBK\IBK_DRFN\ProjSrc\SrcDrfn\Chart\ExControl\include\LoadHelper.h
; File D:\git\src\IBK\IBK_DRFN\ProjSrc\SrcDrfn\Chart\ExControl\ExListCtrl.cpp
;	COMDAT ?OnDestroy@CExListCtrl@@IAEXXZ
_TEXT	SEGMENT
?OnDestroy@CExListCtrl@@IAEXXZ PROC			; CExListCtrl::OnDestroy, COMDAT
; _this$ = ecx

; 46   : 	m_pLoader->OnDestroyPre();

  00000	8b 81 80 00 00
	00		 mov	 eax, DWORD PTR [ecx+128]
; File D:\git\src\IBK\IBK_DRFN\ProjSrc\SrcDrfn\Chart\ExControl\include\LoadHelper.h

; 3029 : 		if(!m_hLib)

  00006	83 78 04 00	 cmp	 DWORD PTR [eax+4], 0
  0000a	74 0f		 je	 SHORT $LN3@OnDestroy

; 3030 : 			return;
; 3031 : 
; 3032 : 		pOnDestroyPre(m_lpPointer);

  0000c	ff b0 0c 01 00
	00		 push	 DWORD PTR [eax+268]
  00012	8b 80 24 01 00
	00		 mov	 eax, DWORD PTR [eax+292]
  00018	ff d0		 call	 eax
  0001a	59		 pop	 ecx
$LN3@OnDestroy:
; File D:\git\src\IBK\IBK_DRFN\ProjSrc\SrcDrfn\Chart\ExControl\ExListCtrl.cpp

; 47   : }

  0001b	c3		 ret	 0
?OnDestroy@CExListCtrl@@IAEXXZ ENDP			; CExListCtrl::OnDestroy
_TEXT	ENDS
; Function compile flags: /Ogtp
; File D:\git\src\IBK\IBK_DRFN\ProjSrc\SrcDrfn\Chart\ExControl\ExListCtrl.cpp
; File D:\git\src\IBK\IBK_DRFN\ProjSrc\SrcDrfn\Chart\ExControl\include\LoadHelper.h
; File D:\git\src\IBK\IBK_DRFN\ProjSrc\SrcDrfn\Chart\ExControl\ExListCtrl.cpp
;	COMDAT ?DrawItem@CExListCtrl@@MAEXPAUtagDRAWITEMSTRUCT@@@Z
_TEXT	SEGMENT
_lpDrawItemStruct$ = 8					; size = 4
?DrawItem@CExListCtrl@@MAEXPAUtagDRAWITEMSTRUCT@@@Z PROC ; CExListCtrl::DrawItem, COMDAT
; _this$ = ecx

; 55   : {

  00000	55		 push	 ebp
  00001	8b ec		 mov	 ebp, esp

; 56   : 	m_pLoader->DrawItem(lpDrawItemStruct);

  00003	8b 81 80 00 00
	00		 mov	 eax, DWORD PTR [ecx+128]
; File D:\git\src\IBK\IBK_DRFN\ProjSrc\SrcDrfn\Chart\ExControl\include\LoadHelper.h

; 3045 : 		if(!m_hLib)

  00009	83 78 04 00	 cmp	 DWORD PTR [eax+4], 0
  0000d	74 14		 je	 SHORT $LN3@DrawItem

; 3046 : 			return;
; 3047 : 
; 3048 : 		pDrawItemListCtrl(m_lpPointer, lpDrawItemStruct);

  0000f	ff 75 08	 push	 DWORD PTR _lpDrawItemStruct$[ebp]
  00012	ff b0 0c 01 00
	00		 push	 DWORD PTR [eax+268]
  00018	8b 80 30 01 00
	00		 mov	 eax, DWORD PTR [eax+304]
  0001e	ff d0		 call	 eax
  00020	83 c4 08	 add	 esp, 8
$LN3@DrawItem:
; File D:\git\src\IBK\IBK_DRFN\ProjSrc\SrcDrfn\Chart\ExControl\ExListCtrl.cpp

; 57   : }

  00023	5d		 pop	 ebp
  00024	c2 04 00	 ret	 4
?DrawItem@CExListCtrl@@MAEXPAUtagDRAWITEMSTRUCT@@@Z ENDP ; CExListCtrl::DrawItem
_TEXT	ENDS
; Function compile flags: /Ogtp
; File D:\git\src\IBK\IBK_DRFN\ProjSrc\SrcDrfn\Chart\ExControl\ExListCtrl.cpp
;	COMDAT ??1CExListCtrl@@UAE@XZ
_TEXT	SEGMENT
??1CExListCtrl@@UAE@XZ PROC				; CExListCtrl::~CExListCtrl, COMDAT
; _this$ = ecx

; 24   : {

  00000	56		 push	 esi
  00001	8b f1		 mov	 esi, ecx

; 25   : 	delete m_pLoader;

  00003	8b 8e 80 00 00
	00		 mov	 ecx, DWORD PTR [esi+128]
  00009	c7 06 00 00 00
	00		 mov	 DWORD PTR [esi], OFFSET ??_7CExListCtrl@@6B@
  0000f	85 c9		 test	 ecx, ecx
  00011	74 07		 je	 SHORT $LN3@CExListCtr
  00013	8b 01		 mov	 eax, DWORD PTR [ecx]
  00015	6a 01		 push	 1
  00017	ff 50 04	 call	 DWORD PTR [eax+4]
$LN3@CExListCtr:

; 26   : }

  0001a	8b ce		 mov	 ecx, esi
  0001c	5e		 pop	 esi
  0001d	e9 00 00 00 00	 jmp	 ??1CListCtrl@@UAE@XZ	; CListCtrl::~CListCtrl
??1CExListCtrl@@UAE@XZ ENDP				; CExListCtrl::~CExListCtrl
_TEXT	ENDS
; Function compile flags: /Ogtp
; File D:\git\src\IBK\IBK_DRFN\ProjSrc\SrcDrfn\Chart\ExControl\ExListCtrl.cpp
; File D:\git\src\IBK\IBK_DRFN\ProjSrc\SrcDrfn\Chart\ExControl\include\LoadHelper.h
; File D:\git\src\IBK\IBK_DRFN\ProjSrc\SrcDrfn\Chart\ExControl\ExListCtrl.cpp
; File D:\git\src\IBK\IBK_DRFN\ProjSrc\SrcDrfn\Chart\ExControl\include\LoadHelper.h
; File D:\git\src\IBK\IBK_DRFN\ProjSrc\SrcDrfn\Chart\ExControl\ExListCtrl.cpp
;	COMDAT ?OnNotify@CExListCtrl@@MAEHIJPAJ@Z
_TEXT	SEGMENT
_wParam$ = 8						; size = 4
_lParam$ = 12						; size = 4
_pResult$ = 16						; size = 4
?OnNotify@CExListCtrl@@MAEHIJPAJ@Z PROC			; CExListCtrl::OnNotify, COMDAT
; _this$ = ecx

; 65   : {

  00000	55		 push	 ebp
  00001	8b ec		 mov	 ebp, esp

; 66   : 	return m_pLoader->OnNotify(wParam, lParam, pResult);

  00003	8b 81 80 00 00
	00		 mov	 eax, DWORD PTR [ecx+128]
; File D:\git\src\IBK\IBK_DRFN\ProjSrc\SrcDrfn\Chart\ExControl\include\LoadHelper.h

; 3069 : 		if(!m_hLib)

  00009	83 78 04 00	 cmp	 DWORD PTR [eax+4], 0
  0000d	75 06		 jne	 SHORT $LN4@OnNotify
; File D:\git\src\IBK\IBK_DRFN\ProjSrc\SrcDrfn\Chart\ExControl\ExListCtrl.cpp

; 66   : 	return m_pLoader->OnNotify(wParam, lParam, pResult);

  0000f	33 c0		 xor	 eax, eax

; 67   : }

  00011	5d		 pop	 ebp
  00012	c2 0c 00	 ret	 12			; 0000000cH
$LN4@OnNotify:
; File D:\git\src\IBK\IBK_DRFN\ProjSrc\SrcDrfn\Chart\ExControl\include\LoadHelper.h

; 3075 : 		return pOnNotifyListCtrl(m_lpPointer, wParam, lParam, pResult);

  00015	ff 75 10	 push	 DWORD PTR _pResult$[ebp]
  00018	ff 75 0c	 push	 DWORD PTR _lParam$[ebp]
  0001b	ff 75 08	 push	 DWORD PTR _wParam$[ebp]
  0001e	ff b0 0c 01 00
	00		 push	 DWORD PTR [eax+268]
  00024	8b 80 38 01 00
	00		 mov	 eax, DWORD PTR [eax+312]
  0002a	ff d0		 call	 eax
  0002c	83 c4 10	 add	 esp, 16			; 00000010H
; File D:\git\src\IBK\IBK_DRFN\ProjSrc\SrcDrfn\Chart\ExControl\ExListCtrl.cpp

; 67   : }

  0002f	5d		 pop	 ebp
  00030	c2 0c 00	 ret	 12			; 0000000cH
?OnNotify@CExListCtrl@@MAEHIJPAJ@Z ENDP			; CExListCtrl::OnNotify
_TEXT	ENDS
; Function compile flags: /Ogtp
; File D:\git\src\IBK\IBK_DRFN\ProjSrc\SrcDrfn\Chart\ExControl\ExListCtrl.cpp
; File D:\git\src\IBK\IBK_DRFN\ProjSrc\SrcDrfn\Chart\ExControl\include\LoadHelper.h
; File D:\git\src\IBK\IBK_DRFN\ProjSrc\SrcDrfn\Chart\ExControl\ExListCtrl.cpp
;	COMDAT ?PreSubclassWindow@CExListCtrl@@MAEXXZ
_TEXT	SEGMENT
?PreSubclassWindow@CExListCtrl@@MAEXXZ PROC		; CExListCtrl::PreSubclassWindow, COMDAT
; _this$ = ecx

; 61   : 	m_pLoader->PreSubclassWindow();

  00000	8b 81 80 00 00
	00		 mov	 eax, DWORD PTR [ecx+128]
; File D:\git\src\IBK\IBK_DRFN\ProjSrc\SrcDrfn\Chart\ExControl\include\LoadHelper.h

; 3053 : 		if(!m_hLib)

  00006	83 78 04 00	 cmp	 DWORD PTR [eax+4], 0
  0000a	74 0f		 je	 SHORT $LN3@PreSubclas

; 3054 : 			return;
; 3055 : 
; 3056 : 		pPreSubclassWindowListCtrl(m_lpPointer);

  0000c	ff b0 0c 01 00
	00		 push	 DWORD PTR [eax+268]
  00012	8b 80 34 01 00
	00		 mov	 eax, DWORD PTR [eax+308]
  00018	ff d0		 call	 eax
  0001a	59		 pop	 ecx
$LN3@PreSubclas:
; File D:\git\src\IBK\IBK_DRFN\ProjSrc\SrcDrfn\Chart\ExControl\ExListCtrl.cpp

; 62   : }

  0001b	c3		 ret	 0
?PreSubclassWindow@CExListCtrl@@MAEXXZ ENDP		; CExListCtrl::PreSubclassWindow
_TEXT	ENDS
; Function compile flags: /Ogtp
; File D:\git\src\IBK\IBK_DRFN\ProjSrc\SrcDrfn\Chart\ExControl\ExListCtrl.cpp
; File D:\git\src\IBK\IBK_DRFN\ProjSrc\SrcDrfn\Chart\ExControl\include\LoadHelper.h
; File D:\git\src\IBK\IBK_DRFN\ProjSrc\SrcDrfn\Chart\ExControl\ExListCtrl.cpp
;	COMDAT ?SetTwotoneRowColor@CExListCtrl@@QAEXH@Z
_TEXT	SEGMENT
_nRow$ = 8						; size = 4
?SetTwotoneRowColor@CExListCtrl@@QAEXH@Z PROC		; CExListCtrl::SetTwotoneRowColor, COMDAT
; _this$ = ecx

; 85   : {

  00000	55		 push	 ebp
  00001	8b ec		 mov	 ebp, esp

; 86   : 	m_pLoader->SetTwotoneRowColor(nRow);

  00003	8b 81 80 00 00
	00		 mov	 eax, DWORD PTR [ecx+128]
; File D:\git\src\IBK\IBK_DRFN\ProjSrc\SrcDrfn\Chart\ExControl\include\LoadHelper.h

; 3104 : 		if(!m_hLib)

  00009	83 78 04 00	 cmp	 DWORD PTR [eax+4], 0
  0000d	74 14		 je	 SHORT $LN3@SetTwotone

; 3105 : 			return;
; 3106 : 
; 3107 : 		pSetTwotoneRowColor(m_lpPointer, nRow);

  0000f	ff 75 08	 push	 DWORD PTR _nRow$[ebp]
  00012	ff b0 0c 01 00
	00		 push	 DWORD PTR [eax+268]
  00018	8b 80 48 01 00
	00		 mov	 eax, DWORD PTR [eax+328]
  0001e	ff d0		 call	 eax
  00020	83 c4 08	 add	 esp, 8
$LN3@SetTwotone:
; File D:\git\src\IBK\IBK_DRFN\ProjSrc\SrcDrfn\Chart\ExControl\ExListCtrl.cpp

; 87   : }

  00023	5d		 pop	 ebp
  00024	c2 04 00	 ret	 4
?SetTwotoneRowColor@CExListCtrl@@QAEXH@Z ENDP		; CExListCtrl::SetTwotoneRowColor
_TEXT	ENDS
; Function compile flags: /Ogtp
; File D:\git\src\IBK\IBK_DRFN\ProjSrc\SrcDrfn\Chart\ExControl\ExListCtrl.cpp
; File D:\git\src\IBK\IBK_DRFN\ProjSrc\SrcDrfn\Chart\ExControl\include\LoadHelper.h
; File D:\git\src\IBK\IBK_DRFN\ProjSrc\SrcDrfn\Chart\ExControl\ExListCtrl.cpp
;	COMDAT ?SetAutoColSize@CExListCtrl@@QAEXH@Z
_TEXT	SEGMENT
_bAutoSize$ = 8						; size = 4
?SetAutoColSize@CExListCtrl@@QAEXH@Z PROC		; CExListCtrl::SetAutoColSize, COMDAT
; _this$ = ecx

; 80   : {

  00000	55		 push	 ebp
  00001	8b ec		 mov	 ebp, esp

; 81   : 	m_pLoader->SetAutoColSize(bAutoSize);

  00003	8b 81 80 00 00
	00		 mov	 eax, DWORD PTR [ecx+128]
; File D:\git\src\IBK\IBK_DRFN\ProjSrc\SrcDrfn\Chart\ExControl\include\LoadHelper.h

; 3096 : 		if(!m_hLib)

  00009	83 78 04 00	 cmp	 DWORD PTR [eax+4], 0
  0000d	74 14		 je	 SHORT $LN3@SetAutoCol

; 3097 : 			return;
; 3098 : 
; 3099 : 		pSetAutoColSize(m_lpPointer, bAutoSize);

  0000f	ff 75 08	 push	 DWORD PTR _bAutoSize$[ebp]
  00012	ff b0 0c 01 00
	00		 push	 DWORD PTR [eax+268]
  00018	8b 80 44 01 00
	00		 mov	 eax, DWORD PTR [eax+324]
  0001e	ff d0		 call	 eax
  00020	83 c4 08	 add	 esp, 8
$LN3@SetAutoCol:
; File D:\git\src\IBK\IBK_DRFN\ProjSrc\SrcDrfn\Chart\ExControl\ExListCtrl.cpp

; 82   : }

  00023	5d		 pop	 ebp
  00024	c2 04 00	 ret	 4
?SetAutoColSize@CExListCtrl@@QAEXH@Z ENDP		; CExListCtrl::SetAutoColSize
_TEXT	ENDS
; Function compile flags: /Ogtp
; File D:\git\src\IBK\IBK_DRFN\ProjSrc\SrcDrfn\Chart\ExControl\ExListCtrl.cpp
; File D:\git\src\IBK\IBK_DRFN\ProjSrc\SrcDrfn\Chart\ExControl\include\LoadHelper.h
; File D:\git\src\IBK\IBK_DRFN\ProjSrc\SrcDrfn\Chart\ExControl\ExListCtrl.cpp
;	COMDAT ?SetRowHeight@CExListCtrl@@QAEXH@Z
_TEXT	SEGMENT
_nHeight$ = 8						; size = 4
?SetRowHeight@CExListCtrl@@QAEXH@Z PROC			; CExListCtrl::SetRowHeight, COMDAT
; _this$ = ecx

; 75   : {

  00000	55		 push	 ebp
  00001	8b ec		 mov	 ebp, esp

; 76   : 	m_pLoader->SetRowHeight(nHeight);

  00003	8b 81 80 00 00
	00		 mov	 eax, DWORD PTR [ecx+128]
; File D:\git\src\IBK\IBK_DRFN\ProjSrc\SrcDrfn\Chart\ExControl\include\LoadHelper.h

; 3088 : 		if(!m_hLib)

  00009	83 78 04 00	 cmp	 DWORD PTR [eax+4], 0
  0000d	74 14		 je	 SHORT $LN3@SetRowHeig

; 3089 : 			return;
; 3090 : 
; 3091 : 		pSetRowHeight(m_lpPointer, nHeight);

  0000f	ff 75 08	 push	 DWORD PTR _nHeight$[ebp]
  00012	ff b0 0c 01 00
	00		 push	 DWORD PTR [eax+268]
  00018	8b 80 40 01 00
	00		 mov	 eax, DWORD PTR [eax+320]
  0001e	ff d0		 call	 eax
  00020	83 c4 08	 add	 esp, 8
$LN3@SetRowHeig:
; File D:\git\src\IBK\IBK_DRFN\ProjSrc\SrcDrfn\Chart\ExControl\ExListCtrl.cpp

; 77   : }

  00023	5d		 pop	 ebp
  00024	c2 04 00	 ret	 4
?SetRowHeight@CExListCtrl@@QAEXH@Z ENDP			; CExListCtrl::SetRowHeight
_TEXT	ENDS
; Function compile flags: /Ogtp
; File D:\git\src\IBK\IBK_DRFN\ProjSrc\SrcDrfn\Chart\ExControl\ExListCtrl.cpp
; File D:\git\src\IBK\IBK_DRFN\ProjSrc\SrcDrfn\Chart\ExControl\include\LoadHelper.h
; File D:\git\src\IBK\IBK_DRFN\ProjSrc\SrcDrfn\Chart\ExControl\ExListCtrl.cpp
;	COMDAT ?DisableColumnSizing@CExListCtrl@@QAEXH@Z
_TEXT	SEGMENT
_bDisable$ = 8						; size = 4
?DisableColumnSizing@CExListCtrl@@QAEXH@Z PROC		; CExListCtrl::DisableColumnSizing, COMDAT
; _this$ = ecx

; 50   : {

  00000	55		 push	 ebp
  00001	8b ec		 mov	 ebp, esp

; 51   : 	m_pLoader->DisableColumnSizing(bDisable);

  00003	8b 81 80 00 00
	00		 mov	 eax, DWORD PTR [ecx+128]
; File D:\git\src\IBK\IBK_DRFN\ProjSrc\SrcDrfn\Chart\ExControl\include\LoadHelper.h

; 3037 : 		if(!m_hLib)

  00009	83 78 04 00	 cmp	 DWORD PTR [eax+4], 0
  0000d	74 14		 je	 SHORT $LN3@DisableCol

; 3038 : 			return;
; 3039 : 
; 3040 : 		pDisableColumnSizing(m_lpPointer, bDisable);

  0000f	ff 75 08	 push	 DWORD PTR _bDisable$[ebp]
  00012	ff b0 0c 01 00
	00		 push	 DWORD PTR [eax+268]
  00018	8b 80 28 01 00
	00		 mov	 eax, DWORD PTR [eax+296]
  0001e	ff d0		 call	 eax
  00020	83 c4 08	 add	 esp, 8
$LN3@DisableCol:
; File D:\git\src\IBK\IBK_DRFN\ProjSrc\SrcDrfn\Chart\ExControl\ExListCtrl.cpp

; 52   : }

  00023	5d		 pop	 ebp
  00024	c2 04 00	 ret	 4
?DisableColumnSizing@CExListCtrl@@QAEXH@Z ENDP		; CExListCtrl::DisableColumnSizing
_TEXT	ENDS
; Function compile flags: /Ogtp
; File D:\git\src\IBK\IBK_DRFN\ProjSrc\SrcDrfn\Chart\ExControl\ExListCtrl.cpp
; File C:\Program Files (x86)\Microsoft Visual Studio\2019\Community\VC\Tools\MSVC\14.29.30133\atlmfc\include\afxcmn.inl
; File D:\git\src\IBK\IBK_DRFN\ProjSrc\SrcDrfn\Chart\ExControl\ExListCtrl.cpp
;	COMDAT ??0CExListCtrl@@QAE@H@Z
_TEXT	SEGMENT
$T2 = -20						; size = 4
_this$ = -16						; size = 4
__$EHRec$ = -12						; size = 12
_bUseDefSkin$ = 8					; size = 4
??0CExListCtrl@@QAE@H@Z PROC				; CExListCtrl::CExListCtrl, COMDAT
; _this$ = ecx

; 19   : {

  00000	55		 push	 ebp
  00001	8b ec		 mov	 ebp, esp
  00003	6a ff		 push	 -1
  00005	68 00 00 00 00	 push	 __ehhandler$??0CExListCtrl@@QAE@H@Z
  0000a	64 a1 00 00 00
	00		 mov	 eax, DWORD PTR fs:0
  00010	50		 push	 eax
  00011	83 ec 08	 sub	 esp, 8
  00014	56		 push	 esi
  00015	a1 00 00 00 00	 mov	 eax, DWORD PTR ___security_cookie
  0001a	33 c5		 xor	 eax, ebp
  0001c	50		 push	 eax
  0001d	8d 45 f4	 lea	 eax, DWORD PTR __$EHRec$[ebp]
  00020	64 a3 00 00 00
	00		 mov	 DWORD PTR fs:0, eax
  00026	8b f1		 mov	 esi, ecx
  00028	89 75 f0	 mov	 DWORD PTR _this$[ebp], esi
; File C:\Program Files (x86)\Microsoft Visual Studio\2019\Community\VC\Tools\MSVC\14.29.30133\atlmfc\include\afxcmn.inl

; 141  : 	{ }

  0002b	e8 00 00 00 00	 call	 ??0CWnd@@QAE@XZ		; CWnd::CWnd
; File D:\git\src\IBK\IBK_DRFN\ProjSrc\SrcDrfn\Chart\ExControl\ExListCtrl.cpp

; 20   : 	m_pLoader = new CLoaderListCtrl(this, bUseDefSkin);

  00030	68 4c 01 00 00	 push	 332			; 0000014cH
  00035	c7 45 fc 00 00
	00 00		 mov	 DWORD PTR __$EHRec$[ebp+8], 0
  0003c	c7 06 00 00 00
	00		 mov	 DWORD PTR [esi], OFFSET ??_7CExListCtrl@@6B@
  00042	e8 00 00 00 00	 call	 ??2@YAPAXI@Z		; operator new
  00047	83 c4 04	 add	 esp, 4
  0004a	89 45 ec	 mov	 DWORD PTR $T2[ebp], eax
  0004d	c6 45 fc 01	 mov	 BYTE PTR __$EHRec$[ebp+8], 1
  00051	85 c0		 test	 eax, eax
  00053	74 25		 je	 SHORT $LN3@CExListCtr
  00055	ff 75 08	 push	 DWORD PTR _bUseDefSkin$[ebp]
  00058	8b c8		 mov	 ecx, eax
  0005a	56		 push	 esi
  0005b	e8 00 00 00 00	 call	 ??0CLoaderListCtrl@@QAE@PAXH@Z ; CLoaderListCtrl::CLoaderListCtrl
  00060	89 86 80 00 00
	00		 mov	 DWORD PTR [esi+128], eax

; 21   : }

  00066	8b c6		 mov	 eax, esi
  00068	8b 4d f4	 mov	 ecx, DWORD PTR __$EHRec$[ebp]
  0006b	64 89 0d 00 00
	00 00		 mov	 DWORD PTR fs:0, ecx
  00072	59		 pop	 ecx
  00073	5e		 pop	 esi
  00074	8b e5		 mov	 esp, ebp
  00076	5d		 pop	 ebp
  00077	c2 04 00	 ret	 4
$LN3@CExListCtr:

; 20   : 	m_pLoader = new CLoaderListCtrl(this, bUseDefSkin);

  0007a	c7 86 80 00 00
	00 00 00 00 00	 mov	 DWORD PTR [esi+128], 0

; 21   : }

  00084	8b c6		 mov	 eax, esi
  00086	8b 4d f4	 mov	 ecx, DWORD PTR __$EHRec$[ebp]
  00089	64 89 0d 00 00
	00 00		 mov	 DWORD PTR fs:0, ecx
  00090	59		 pop	 ecx
  00091	5e		 pop	 esi
  00092	8b e5		 mov	 esp, ebp
  00094	5d		 pop	 ebp
  00095	c2 04 00	 ret	 4
_TEXT	ENDS
;	COMDAT text$x
text$x	SEGMENT
__unwindfunclet$??0CExListCtrl@@QAE@H@Z$0:
  00000	8b 4d f0	 mov	 ecx, DWORD PTR _this$[ebp]
  00003	e9 00 00 00 00	 jmp	 ??1CListCtrl@@UAE@XZ	; CListCtrl::~CListCtrl
__unwindfunclet$??0CExListCtrl@@QAE@H@Z$1:
  00008	68 4c 01 00 00	 push	 332			; 0000014cH
  0000d	8b 45 ec	 mov	 eax, DWORD PTR $T2[ebp]
  00010	50		 push	 eax
  00011	e8 00 00 00 00	 call	 ??3@YAXPAXI@Z		; operator delete
  00016	83 c4 08	 add	 esp, 8
  00019	c3		 ret	 0
  0001a	cc		 int	 3
  0001b	cc		 int	 3
  0001c	cc		 int	 3
  0001d	cc		 int	 3
  0001e	cc		 int	 3
__ehhandler$??0CExListCtrl@@QAE@H@Z:
  0001f	90		 npad	 1
  00020	90		 npad	 1
  00021	8b 54 24 08	 mov	 edx, DWORD PTR [esp+8]
  00025	8d 42 0c	 lea	 eax, DWORD PTR [edx+12]
  00028	8b 4a f0	 mov	 ecx, DWORD PTR [edx-16]
  0002b	33 c8		 xor	 ecx, eax
  0002d	e8 00 00 00 00	 call	 @__security_check_cookie@4
  00032	b8 00 00 00 00	 mov	 eax, OFFSET __ehfuncinfo$??0CExListCtrl@@QAE@H@Z
  00037	e9 00 00 00 00	 jmp	 ___CxxFrameHandler3
text$x	ENDS
??0CExListCtrl@@QAE@H@Z ENDP				; CExListCtrl::CExListCtrl
; Function compile flags: /Ogtp
; File C:\Program Files (x86)\Microsoft Visual Studio\2019\Community\VC\Tools\MSVC\14.29.30133\atlmfc\include\afx.inl
;	COMDAT ??_GCListCtrl@@UAEPAXI@Z
_TEXT	SEGMENT
___flags$ = 8						; size = 4
??_GCListCtrl@@UAEPAXI@Z PROC				; CListCtrl::`scalar deleting destructor', COMDAT
; _this$ = ecx
  00000	55		 push	 ebp
  00001	8b ec		 mov	 ebp, esp
  00003	56		 push	 esi
  00004	8b f1		 mov	 esi, ecx
  00006	e8 00 00 00 00	 call	 ??1CListCtrl@@UAE@XZ	; CListCtrl::~CListCtrl
  0000b	8b 45 08	 mov	 eax, DWORD PTR ___flags$[ebp]
  0000e	a8 01		 test	 al, 1
  00010	74 22		 je	 SHORT $LN9@scalar
  00012	a8 04		 test	 al, 4
  00014	75 10		 jne	 SHORT $LN3@scalar

; 112  : 	{ ::operator delete(p); }

  00016	56		 push	 esi
  00017	e8 00 00 00 00	 call	 ??3@YAXPAX@Z		; operator delete
  0001c	83 c4 04	 add	 esp, 4
  0001f	8b c6		 mov	 eax, esi
  00021	5e		 pop	 esi
  00022	5d		 pop	 ebp
  00023	c2 04 00	 ret	 4
$LN3@scalar:
  00026	68 80 00 00 00	 push	 128			; 00000080H
  0002b	56		 push	 esi
  0002c	e8 00 00 00 00	 call	 ?__global_delete@@YAXPAXI@Z ; __global_delete
  00031	83 c4 08	 add	 esp, 8
$LN9@scalar:
  00034	8b c6		 mov	 eax, esi
  00036	5e		 pop	 esi
  00037	5d		 pop	 ebp
  00038	c2 04 00	 ret	 4
??_GCListCtrl@@UAEPAXI@Z ENDP				; CListCtrl::`scalar deleting destructor'
_TEXT	ENDS
; Function compile flags: /Ogtp
; File C:\Program Files (x86)\Microsoft Visual Studio\2019\Community\VC\Tools\MSVC\14.29.30133\atlmfc\include\afxwin2.inl
;	COMDAT ?EndModalState@CWnd@@UAEXXZ
_TEXT	SEGMENT
?EndModalState@CWnd@@UAEXXZ PROC			; CWnd::EndModalState, COMDAT
; _this$ = ecx

; 567  : 	{ ::EnableWindow(m_hWnd, TRUE); }

  00000	6a 01		 push	 1
  00002	ff 71 20	 push	 DWORD PTR [ecx+32]
  00005	ff 15 00 00 00
	00		 call	 DWORD PTR __imp__EnableWindow@8
  0000b	c3		 ret	 0
?EndModalState@CWnd@@UAEXXZ ENDP			; CWnd::EndModalState
_TEXT	ENDS
; Function compile flags: /Ogtp
; File C:\Program Files (x86)\Microsoft Visual Studio\2019\Community\VC\Tools\MSVC\14.29.30133\atlmfc\include\afxwin2.inl
;	COMDAT ?BeginModalState@CWnd@@UAEXXZ
_TEXT	SEGMENT
?BeginModalState@CWnd@@UAEXXZ PROC			; CWnd::BeginModalState, COMDAT
; _this$ = ecx

; 565  : 	{ ::EnableWindow(m_hWnd, FALSE); }

  00000	6a 00		 push	 0
  00002	ff 71 20	 push	 DWORD PTR [ecx+32]
  00005	ff 15 00 00 00
	00		 call	 DWORD PTR __imp__EnableWindow@8
  0000b	c3		 ret	 0
?BeginModalState@CWnd@@UAEXXZ ENDP			; CWnd::BeginModalState
_TEXT	ENDS
; Function compile flags: /Ogtp
; File C:\Program Files (x86)\Microsoft Visual Studio\2019\Community\VC\Tools\MSVC\14.29.30133\atlmfc\include\afxwin2.inl
;	COMDAT ?DoDataExchange@CWnd@@MAEXPAVCDataExchange@@@Z
_TEXT	SEGMENT
___formal$ = 8						; size = 4
?DoDataExchange@CWnd@@MAEXPAVCDataExchange@@@Z PROC	; CWnd::DoDataExchange, COMDAT
; _this$ = ecx

; 561  : 	{ } // default does nothing

  00000	c2 04 00	 ret	 4
?DoDataExchange@CWnd@@MAEXPAVCDataExchange@@@Z ENDP	; CWnd::DoDataExchange
_TEXT	ENDS
; Function compile flags: /Ogtp
; File C:\Program Files (x86)\Microsoft Visual Studio\2019\Community\VC\Tools\MSVC\14.29.30133\atlmfc\include\afx.inl
;	COMDAT ?Dump@CObject@@UBEXAAVCDumpContext@@@Z
_TEXT	SEGMENT
___formal$ = 8						; size = 4
?Dump@CObject@@UBEXAAVCDumpContext@@@Z PROC		; CObject::Dump, COMDAT
; _this$ = ecx

; 122  : 	{ /* no dumping in release builds */ }

  00000	c2 04 00	 ret	 4
?Dump@CObject@@UBEXAAVCDumpContext@@@Z ENDP		; CObject::Dump
_TEXT	ENDS
; Function compile flags: /Ogtp
; File C:\Program Files (x86)\Microsoft Visual Studio\2019\Community\VC\Tools\MSVC\14.29.30133\atlmfc\include\afx.inl
;	COMDAT ?AssertValid@CObject@@UBEXXZ
_TEXT	SEGMENT
?AssertValid@CObject@@UBEXXZ PROC			; CObject::AssertValid, COMDAT
; _this$ = ecx

; 120  : 	{ /* no asserts in release builds */ }

  00000	c2 00 00	 ret	 0
?AssertValid@CObject@@UBEXXZ ENDP			; CObject::AssertValid
_TEXT	ENDS
; Function compile flags: /Ogtp
; File C:\Program Files (x86)\Microsoft Visual Studio\2019\Community\VC\Tools\MSVC\14.29.30133\atlmfc\include\afx.inl
;	COMDAT ?Serialize@CObject@@UAEXAAVCArchive@@@Z
_TEXT	SEGMENT
___formal$ = 8						; size = 4
?Serialize@CObject@@UAEXAAVCArchive@@@Z PROC		; CObject::Serialize, COMDAT
; _this$ = ecx

; 106  : 	{ /* CObject does not serialize anything by default */ }

  00000	c2 04 00	 ret	 4
?Serialize@CObject@@UAEXAAVCArchive@@@Z ENDP		; CObject::Serialize
_TEXT	ENDS
; Function compile flags: /Ogtp
; File C:\Program Files (x86)\Windows Kits\10\Include\10.0.22000.0\ucrt\stdio.h
;	COMDAT _sprintf
_TEXT	SEGMENT
__Buffer$ = 8						; size = 4
__Format$ = 12						; size = 4
_sprintf PROC						; COMDAT

; 1771 :     {

  00000	55		 push	 ebp
  00001	8b ec		 mov	 ebp, esp

; 1392 :         int const _Result = __stdio_common_vsprintf(

  00003	8d 45 10	 lea	 eax, DWORD PTR __Format$[ebp+4]
  00006	50		 push	 eax
  00007	6a 00		 push	 0
  00009	ff 75 0c	 push	 DWORD PTR __Format$[ebp]
  0000c	6a ff		 push	 -1
  0000e	ff 75 08	 push	 DWORD PTR __Buffer$[ebp]
  00011	e8 00 00 00 00	 call	 ___local_stdio_printf_options
  00016	8b 08		 mov	 ecx, DWORD PTR [eax]
  00018	ff 70 04	 push	 DWORD PTR [eax+4]
  0001b	83 c9 01	 or	 ecx, 1
  0001e	51		 push	 ecx
  0001f	ff 15 00 00 00
	00		 call	 DWORD PTR __imp____stdio_common_vsprintf

; 1393 :             _CRT_INTERNAL_LOCAL_PRINTF_OPTIONS | _CRT_INTERNAL_PRINTF_LEGACY_VSPRINTF_NULL_TERMINATION,
; 1394 :             _Buffer, _BufferCount, _Format, _Locale, _ArgList);
; 1395 : 
; 1396 :         return _Result < 0 ? -1 : _Result;

  00025	83 c9 ff	 or	 ecx, -1
  00028	83 c4 1c	 add	 esp, 28			; 0000001cH
  0002b	85 c0		 test	 eax, eax
  0002d	0f 48 c1	 cmovs	 eax, ecx

; 1772 :         int _Result;
; 1773 :         va_list _ArgList;
; 1774 :         __crt_va_start(_ArgList, _Format);
; 1775 : 
; 1776 :         _Result = _vsprintf_l(_Buffer, _Format, NULL, _ArgList);
; 1777 : 
; 1778 :         __crt_va_end(_ArgList);
; 1779 :         return _Result;
; 1780 :     }

  00030	5d		 pop	 ebp
  00031	c3		 ret	 0
_sprintf ENDP
_TEXT	ENDS
; Function compile flags: /Ogtp
; File C:\Program Files (x86)\Windows Kits\10\Include\10.0.22000.0\ucrt\corecrt_stdio_config.h
;	COMDAT ___local_stdio_printf_options
_TEXT	SEGMENT
___local_stdio_printf_options PROC			; COMDAT

; 91   :         static unsigned __int64 _OptionsStorage;
; 92   :         return &_OptionsStorage;

  00000	b8 00 00 00 00	 mov	 eax, OFFSET ?_OptionsStorage@?1??__local_stdio_printf_options@@9@4_KA ; `__local_stdio_printf_options'::`2'::_OptionsStorage

; 93   :     }

  00005	c3		 ret	 0
___local_stdio_printf_options ENDP
_TEXT	ENDS
; Function compile flags: /Ogtp
; File D:\git\src\IBK\IBK_DRFN\ProjSrc\SrcDrfn\Chart\ExControl\ExListCtrl.cpp
;	COMDAT ?__empty_global_delete@@YAXPAXI@Z
_TEXT	SEGMENT
___formal$ = 8						; size = 4
___formal$ = 12						; size = 4
?__empty_global_delete@@YAXPAXI@Z PROC			; __empty_global_delete, COMDAT

  00000	c2 00 00	 ret	 0
?__empty_global_delete@@YAXPAXI@Z ENDP			; __empty_global_delete
_TEXT	ENDS
; Function compile flags: /Ogtp
; File D:\git\src\IBK\IBK_DRFN\ProjSrc\SrcDrfn\Chart\ExControl\ExListCtrl.cpp
;	COMDAT ?__empty_global_delete@@YAXPAX@Z
_TEXT	SEGMENT
___formal$ = 8						; size = 4
?__empty_global_delete@@YAXPAX@Z PROC			; __empty_global_delete, COMDAT

  00000	c2 00 00	 ret	 0
?__empty_global_delete@@YAXPAX@Z ENDP			; __empty_global_delete
_TEXT	ENDS
END
