; Listing generated by Microsoft (R) Optimizing Compiler Version 19.29.30145.0 

	TITLE	D:\git\src\IBK\IBK_DRFN\#DRfn-CS\_Obj\ExControl\ExMaskEdit.obj
	.686P
	.XMM
	include listing.inc
	.model	flat

INCLUDELIB MSVCRT
INCLUDELIB OLDNAMES

PUBLIC	?__empty_global_delete@@YAXPAX@Z		; __empty_global_delete
PUBLIC	?__empty_global_delete@@YAXPAXI@Z		; __empty_global_delete
PUBLIC	___local_stdio_printf_options
PUBLIC	_sprintf
PUBLIC	?Serialize@CObject@@UAEXAAVCArchive@@@Z		; CObject::Serialize
PUBLIC	?AssertValid@CObject@@UBEXXZ			; CObject::AssertValid
PUBLIC	?Dump@CObject@@UBEXAAVCDumpContext@@@Z		; CObject::Dump
PUBLIC	?DoDataExchange@CWnd@@MAEXPAVCDataExchange@@@Z	; CWnd::DoDataExchange
PUBLIC	?BeginModalState@CWnd@@UAEXXZ			; CWnd::BeginModalState
PUBLIC	?EndModalState@CWnd@@UAEXXZ			; CWnd::EndModalState
PUBLIC	??_GCEdit@@UAEPAXI@Z				; CEdit::`scalar deleting destructor'
PUBLIC	?_GetBaseClass@CExMaskEdit@@KGPAUCRuntimeClass@@XZ ; CExMaskEdit::_GetBaseClass
PUBLIC	?GetThisClass@CExMaskEdit@@SGPAUCRuntimeClass@@XZ ; CExMaskEdit::GetThisClass
PUBLIC	?GetRuntimeClass@CExMaskEdit@@UBEPAUCRuntimeClass@@XZ ; CExMaskEdit::GetRuntimeClass
PUBLIC	??0CExMaskEdit@@QAE@H@Z				; CExMaskEdit::CExMaskEdit
PUBLIC	?ActionControl@CExMaskEdit@@QAEJPAX@Z		; CExMaskEdit::ActionControl
PUBLIC	?CanOverType@CExMaskEdit@@QAEHXZ		; CExMaskEdit::CanOverType
PUBLIC	?CanUseMask@CExMaskEdit@@QAEHXZ			; CExMaskEdit::CanUseMask
PUBLIC	?IsModified@CExMaskEdit@@QAEHXZ			; CExMaskEdit::IsModified
PUBLIC	?PosInRange@CExMaskEdit@@QAEHH@Z		; CExMaskEdit::PosInRange
PUBLIC	?GetPromptChar@CExMaskEdit@@QAEDXZ		; CExMaskEdit::GetPromptChar
PUBLIC	?MaskClear@CExMaskEdit@@QAEXXZ			; CExMaskEdit::MaskClear
PUBLIC	?MaskCopy@CExMaskEdit@@QAEXXZ			; CExMaskEdit::MaskCopy
PUBLIC	?MaskCut@CExMaskEdit@@QAEXXZ			; CExMaskEdit::MaskCut
PUBLIC	?MaskPaste@CExMaskEdit@@QAEXXZ			; CExMaskEdit::MaskPaste
PUBLIC	?MaskSelectAll@CExMaskEdit@@QAEXXZ		; CExMaskEdit::MaskSelectAll
PUBLIC	?MaskUndo@CExMaskEdit@@QAEXXZ			; CExMaskEdit::MaskUndo
PUBLIC	?SetOverType@CExMaskEdit@@QAEXH@Z		; CExMaskEdit::SetOverType
PUBLIC	?SetPromptChar@CExMaskEdit@@QAEXD@Z		; CExMaskEdit::SetPromptChar
PUBLIC	?SetUseMask@CExMaskEdit@@QAEXH@Z		; CExMaskEdit::SetUseMask
PUBLIC	?SetEditMask@CExMaskEdit@@UAEXPBD00@Z		; CExMaskEdit::SetEditMask
PUBLIC	?CheckChar@CExMaskEdit@@UAEHAAIH@Z		; CExMaskEdit::CheckChar
PUBLIC	?ProcessMask@CExMaskEdit@@UAEHAAIH@Z		; CExMaskEdit::ProcessMask
PUBLIC	?PreTranslateMessage@CExMaskEdit@@UAEHPAUtagMSG@@@Z ; CExMaskEdit::PreTranslateMessage
PUBLIC	?PreSubclassWindow@CExMaskEdit@@MAEXXZ		; CExMaskEdit::PreSubclassWindow
PUBLIC	?CorrectPosition@CExMaskEdit@@MAEHAAHHH@Z	; CExMaskEdit::CorrectPosition
PUBLIC	?DeleteCharAt@CExMaskEdit@@MAEXH@Z		; CExMaskEdit::DeleteCharAt
PUBLIC	?InsertCharAt@CExMaskEdit@@MAEXHD@Z		; CExMaskEdit::InsertCharAt
PUBLIC	?CopyToClipboard@CExMaskEdit@@MAEHPBD@Z		; CExMaskEdit::CopyToClipboard
PUBLIC	?GetMaskedText@CExMaskEdit@@MAE?AV?$CStringT@DV?$StrTraitMFC_DLL@DV?$ChTraitsCRT@D@ATL@@@@@ATL@@H@Z ; CExMaskEdit::GetMaskedText
PUBLIC	?SelectionMade@CExMaskEdit@@MAEHXZ		; CExMaskEdit::SelectionMade
PUBLIC	??1CExMaskEdit@@UAE@XZ				; CExMaskEdit::~CExMaskEdit
PUBLIC	?OnPaint@CExMaskEdit@@IAEXXZ			; CExMaskEdit::OnPaint
PUBLIC	?OnKeyDown@CExMaskEdit@@IAEXIII@Z		; CExMaskEdit::OnKeyDown
PUBLIC	?OnChar@CExMaskEdit@@IAEXIII@Z			; CExMaskEdit::OnChar
PUBLIC	?OnLButtonDown@CExMaskEdit@@IAEXIVCPoint@@@Z	; CExMaskEdit::OnLButtonDown
PUBLIC	?OnSetFocus@CExMaskEdit@@IAEXPAVCWnd@@@Z	; CExMaskEdit::OnSetFocus
PUBLIC	?OnLButtonDblClk@CExMaskEdit@@IAEXIVCPoint@@@Z	; CExMaskEdit::OnLButtonDblClk
PUBLIC	?OnUpdateEditUndo@CExMaskEdit@@IAEXPAVCCmdUI@@@Z ; CExMaskEdit::OnUpdateEditUndo
PUBLIC	?OnCommand@CExMaskEdit@@MAEHIJ@Z		; CExMaskEdit::OnCommand
PUBLIC	?GetThisMessageMap@CExMaskEdit@@KGPBUAFX_MSGMAP@@XZ ; CExMaskEdit::GetThisMessageMap
PUBLIC	?GetMessageMap@CExMaskEdit@@MBEPBUAFX_MSGMAP@@XZ ; CExMaskEdit::GetMessageMap
PUBLIC	??_GCExMaskEdit@@UAEPAXI@Z			; CExMaskEdit::`scalar deleting destructor'
PUBLIC	??1CExLoadLib@@QAE@XZ				; CExLoadLib::~CExLoadLib
PUBLIC	?LoadProcAddress@CExLoadLib@@UAEHXZ		; CExLoadLib::LoadProcAddress
PUBLIC	??0CLoaderMaskEdit@@QAE@PAXH@Z			; CLoaderMaskEdit::CLoaderMaskEdit
PUBLIC	??1CLoaderMaskEdit@@UAE@XZ			; CLoaderMaskEdit::~CLoaderMaskEdit
PUBLIC	?LoadProcAddress@CLoaderMaskEdit@@UAEHXZ	; CLoaderMaskEdit::LoadProcAddress
PUBLIC	??_GCLoaderMaskEdit@@UAEPAXI@Z			; CLoaderMaskEdit::`scalar deleting destructor'
PUBLIC	?_OptionsStorage@?1??__local_stdio_printf_options@@9@4_KA ; `__local_stdio_printf_options'::`2'::_OptionsStorage
PUBLIC	??_C@_00CNPNBAHC@@				; `string'
PUBLIC	??_7CEdit@@6B@					; CEdit::`vftable'
PUBLIC	??_R0?AVCObject@@@8				; CObject `RTTI Type Descriptor'
PUBLIC	??_R3CObject@@8					; CObject::`RTTI Class Hierarchy Descriptor'
PUBLIC	??_R2CObject@@8					; CObject::`RTTI Base Class Array'
PUBLIC	??_R1A@?0A@EA@CObject@@8			; CObject::`RTTI Base Class Descriptor at (0,-1,0,64)'
PUBLIC	??_R1A@?0A@EA@CWnd@@8				; CWnd::`RTTI Base Class Descriptor at (0,-1,0,64)'
PUBLIC	??_R0?AVCWnd@@@8				; CWnd `RTTI Type Descriptor'
PUBLIC	??_R3CWnd@@8					; CWnd::`RTTI Class Hierarchy Descriptor'
PUBLIC	??_R2CWnd@@8					; CWnd::`RTTI Base Class Array'
PUBLIC	??_R1A@?0A@EA@CCmdTarget@@8			; CCmdTarget::`RTTI Base Class Descriptor at (0,-1,0,64)'
PUBLIC	??_R0?AVCCmdTarget@@@8				; CCmdTarget `RTTI Type Descriptor'
PUBLIC	??_R3CCmdTarget@@8				; CCmdTarget::`RTTI Class Hierarchy Descriptor'
PUBLIC	??_R2CCmdTarget@@8				; CCmdTarget::`RTTI Base Class Array'
PUBLIC	??_R4CEdit@@6B@					; CEdit::`RTTI Complete Object Locator'
PUBLIC	??_R0?AVCEdit@@@8				; CEdit `RTTI Type Descriptor'
PUBLIC	??_R3CEdit@@8					; CEdit::`RTTI Class Hierarchy Descriptor'
PUBLIC	??_R2CEdit@@8					; CEdit::`RTTI Base Class Array'
PUBLIC	??_R1A@?0A@EA@CEdit@@8				; CEdit::`RTTI Base Class Descriptor at (0,-1,0,64)'
PUBLIC	?classCExMaskEdit@CExMaskEdit@@2UCRuntimeClass@@B ; CExMaskEdit::classCExMaskEdit
PUBLIC	??_7CExMaskEdit@@6B@				; CExMaskEdit::`vftable'
PUBLIC	??_7CExLoadLib@@6B@				; CExLoadLib::`vftable'
PUBLIC	??_C@_0CD@INEDAMEN@DLL?$FL?$CFs?$FN?$MA?$LL?5Load?G?R?5?$LM?v?5?$LO?x?$LN?$MA?$LE?O?$LE?Y?4?5?$FL@ ; `string'
PUBLIC	??_C@_04OHDBDCPJ@?2Dev@				; `string'
PUBLIC	??_C@_05BMGBEOOC@?$CFs?2?$CFs@			; `string'
PUBLIC	??_C@_0BB@JBDOCKKP@Ex_ActionControl@		; `string'
PUBLIC	??_C@_0L@NKPAHHOE@ExEdit?4dll@			; `string'
PUBLIC	??_7CLoaderMaskEdit@@6B@			; CLoaderMaskEdit::`vftable'
PUBLIC	??_C@_0BA@GNBHJJBP@Ex_InitEditMask@		; `string'
PUBLIC	??_C@_0BB@GABFEOBN@Ex_InitEditMask2@		; `string'
PUBLIC	??_C@_0BA@BEIIGIPI@Ex_ExitEditMask@		; `string'
PUBLIC	??_C@_0P@OCGCHKO@Ex_SetEditMask@		; `string'
PUBLIC	??_C@_0BB@NFGBKDH@Ex_SetPromptChar@		; `string'
PUBLIC	??_C@_0P@FMLKIEAE@Ex_CanOverType@		; `string'
PUBLIC	??_C@_0O@MLFAPOKA@Ex_CanUseMask@		; `string'
PUBLIC	??_C@_0O@JMPIJBOO@Ex_IsModified@		; `string'
PUBLIC	??_C@_0O@FCJONDPB@Ex_PosInRange@		; `string'
PUBLIC	??_C@_0BB@HCEIKJEA@Ex_GetPromptChar@		; `string'
PUBLIC	??_C@_0N@JPPBINGK@Ex_MaskClear@			; `string'
PUBLIC	??_C@_0M@HKCBIJHK@Ex_MaskCopy@			; `string'
PUBLIC	??_C@_0L@BHNHPILB@Ex_MaskCut@			; `string'
PUBLIC	??_C@_0N@IIDPNEKA@Ex_MaskPaste@			; `string'
PUBLIC	??_C@_0BB@NPJJHHJA@Ex_MaskSelectAll@		; `string'
PUBLIC	??_C@_0M@CKIKDCEG@Ex_MaskUndo@			; `string'
PUBLIC	??_C@_0P@NAPHALFL@Ex_SetOverType@		; `string'
PUBLIC	??_C@_0O@FFKDFCPO@Ex_SetUseMask@		; `string'
PUBLIC	??_C@_0N@POKEJKBK@Ex_CheckChar@			; `string'
PUBLIC	??_C@_0P@MCNBFGIG@Ex_ProcessMask@		; `string'
PUBLIC	??_C@_0BH@GJNAJCHK@Ex_PreTranslateMessage@	; `string'
PUBLIC	??_C@_0BD@DJHOEFHP@Ex_CorrectPosition@		; `string'
PUBLIC	??_C@_0BA@KEIDGONC@Ex_DeleteCharAt@		; `string'
PUBLIC	??_C@_0BA@GMDINCJA@Ex_InsertCharAt@		; `string'
PUBLIC	??_C@_0BD@FJLAMJFG@Ex_CopyToClipboard@		; `string'
PUBLIC	??_C@_0BB@EBPLPEB@Ex_GetMaskedText@		; `string'
PUBLIC	??_C@_0BB@MOGHCEKH@Ex_SelectionMade@		; `string'
PUBLIC	??_C@_0BG@JGNACLFB@Ex_OnKeyDown_MaskEdit@	; `string'
PUBLIC	??_C@_0BD@JLKDCJKP@Ex_OnChar_MaskEdit@		; `string'
PUBLIC	??_C@_0BK@BOICKELO@Ex_OnLButtonDown_MaskEdit@	; `string'
PUBLIC	??_C@_0BH@EAIHNKFI@Ex_OnSetFocus_MaskEdit@	; `string'
PUBLIC	??_C@_0BM@OECEELFK@Ex_OnLButtonDblClk_MaskEdit@	; `string'
PUBLIC	??_C@_0BN@PGDECGEK@Ex_OnUpdateEditUndo_MaskEdit@ ; `string'
PUBLIC	??_C@_0BG@KAKHCAAO@Ex_OnCommand_MaskEdit@	; `string'
PUBLIC	??_C@_0BD@BDLIOCCF@Ex_OnPaintMaskEdit@		; `string'
PUBLIC	??_C@_0M@CFHLKGDL@CExMaskEdit@			; `string'
PUBLIC	??_R1A@?0A@EA@CExLoadLib@@8			; CExLoadLib::`RTTI Base Class Descriptor at (0,-1,0,64)'
PUBLIC	??_R0?AVCExLoadLib@@@8				; CExLoadLib `RTTI Type Descriptor'
PUBLIC	??_R3CExLoadLib@@8				; CExLoadLib::`RTTI Class Hierarchy Descriptor'
PUBLIC	??_R2CExLoadLib@@8				; CExLoadLib::`RTTI Base Class Array'
PUBLIC	??_R4CLoaderMaskEdit@@6B@			; CLoaderMaskEdit::`RTTI Complete Object Locator'
PUBLIC	??_R0?AVCLoaderMaskEdit@@@8			; CLoaderMaskEdit `RTTI Type Descriptor'
PUBLIC	??_R3CLoaderMaskEdit@@8				; CLoaderMaskEdit::`RTTI Class Hierarchy Descriptor'
PUBLIC	??_R2CLoaderMaskEdit@@8				; CLoaderMaskEdit::`RTTI Base Class Array'
PUBLIC	??_R1A@?0A@EA@CLoaderMaskEdit@@8		; CLoaderMaskEdit::`RTTI Base Class Descriptor at (0,-1,0,64)'
PUBLIC	??_R4CExMaskEdit@@6B@				; CExMaskEdit::`RTTI Complete Object Locator'
PUBLIC	??_R0?AVCExMaskEdit@@@8				; CExMaskEdit `RTTI Type Descriptor'
PUBLIC	??_R3CExMaskEdit@@8				; CExMaskEdit::`RTTI Class Hierarchy Descriptor'
PUBLIC	??_R2CExMaskEdit@@8				; CExMaskEdit::`RTTI Base Class Array'
PUBLIC	??_R1A@?0A@EA@CExMaskEdit@@8			; CExMaskEdit::`RTTI Base Class Descriptor at (0,-1,0,64)'
PUBLIC	??_R4CExLoadLib@@6B@				; CExLoadLib::`RTTI Complete Object Locator'
EXTRN	??2@YAPAXI@Z:PROC				; operator new
EXTRN	??3@YAXPAX@Z:PROC				; operator delete
EXTRN	??3@YAXPAXI@Z:PROC				; operator delete
EXTRN	?__global_delete@@YAXPAXI@Z:PROC		; __global_delete
EXTRN	___std_terminate:PROC
EXTRN	__imp__GetLastError@0:PROC
EXTRN	__imp__FreeLibrary@4:PROC
EXTRN	__imp__GetModuleFileNameA@12:PROC
EXTRN	__imp__GetProcAddress@8:PROC
EXTRN	__imp__LoadLibraryA@4:PROC
EXTRN	__imp__EnableWindow@8:PROC
EXTRN	__imp____stdio_common_vsprintf:PROC
EXTRN	__imp_??0?$CStringT@DV?$StrTraitMFC_DLL@DV?$ChTraitsCRT@D@ATL@@@@@ATL@@QAE@XZ:PROC
EXTRN	__imp_??0?$CStringT@DV?$StrTraitMFC_DLL@DV?$ChTraitsCRT@D@ATL@@@@@ATL@@QAE@PBD@Z:PROC
EXTRN	__imp_??1?$CStringT@DV?$StrTraitMFC_DLL@DV?$ChTraitsCRT@D@ATL@@@@@ATL@@QAE@XZ:PROC
EXTRN	__imp_??4?$CStringT@DV?$StrTraitMFC_DLL@DV?$ChTraitsCRT@D@ATL@@@@@ATL@@QAEAAV01@ABV01@@Z:PROC
EXTRN	__imp_??4?$CStringT@DV?$StrTraitMFC_DLL@DV?$ChTraitsCRT@D@ATL@@@@@ATL@@QAEAAV01@PBD@Z:PROC
EXTRN	__imp_??Y?$CStringT@DV?$StrTraitMFC_DLL@DV?$ChTraitsCRT@D@ATL@@@@@ATL@@QAEAAV01@PBD@Z:PROC
EXTRN	__imp_?ReverseFind@?$CStringT@DV?$StrTraitMFC_DLL@DV?$ChTraitsCRT@D@ATL@@@@@ATL@@QBEHD@Z:PROC
EXTRN	__imp_?Left@?$CStringT@DV?$StrTraitMFC_DLL@DV?$ChTraitsCRT@D@ATL@@@@@ATL@@QBE?AV12@H@Z:PROC
EXTRN	?OnCmdMsg@CCmdTarget@@UAEHIHPAXPAUAFX_CMDHANDLERINFO@@@Z:PROC ; CCmdTarget::OnCmdMsg
EXTRN	?IsInvokeAllowed@CCmdTarget@@UAEHJ@Z:PROC	; CCmdTarget::IsInvokeAllowed
EXTRN	?GetDispatchIID@CCmdTarget@@UAEHPAU_GUID@@@Z:PROC ; CCmdTarget::GetDispatchIID
EXTRN	?GetTypeInfoCount@CCmdTarget@@UAEIXZ:PROC	; CCmdTarget::GetTypeInfoCount
EXTRN	?GetTypeLibCache@CCmdTarget@@UAEPAVCTypeLibCache@@XZ:PROC ; CCmdTarget::GetTypeLibCache
EXTRN	?GetTypeLib@CCmdTarget@@UAEJKPAPAUITypeLib@@@Z:PROC ; CCmdTarget::GetTypeLib
EXTRN	?GetCommandMap@CCmdTarget@@MBEPBUAFX_OLECMDMAP@@XZ:PROC ; CCmdTarget::GetCommandMap
EXTRN	?GetDispatchMap@CCmdTarget@@MBEPBUAFX_DISPMAP@@XZ:PROC ; CCmdTarget::GetDispatchMap
EXTRN	?GetConnectionMap@CCmdTarget@@MBEPBUAFX_CONNECTIONMAP@@XZ:PROC ; CCmdTarget::GetConnectionMap
EXTRN	?GetEventSinkMap@CCmdTarget@@MBEPBUAFX_EVENTSINKMAP@@XZ:PROC ; CCmdTarget::GetEventSinkMap
EXTRN	?OnCreateAggregates@CCmdTarget@@UAEHXZ:PROC	; CCmdTarget::OnCreateAggregates
EXTRN	?GetInterfaceHook@CCmdTarget@@UAEPAUIUnknown@@PBX@Z:PROC ; CCmdTarget::GetInterfaceHook
EXTRN	?GetExtraConnectionPoints@CCmdTarget@@MAEHPAVCPtrArray@@@Z:PROC ; CCmdTarget::GetExtraConnectionPoints
EXTRN	?GetConnectionHook@CCmdTarget@@MAEPAUIConnectionPoint@@ABU_GUID@@@Z:PROC ; CCmdTarget::GetConnectionHook
EXTRN	??0CWnd@@QAE@XZ:PROC				; CWnd::CWnd
EXTRN	?PreSubclassWindow@CWnd@@UAEXXZ:PROC		; CWnd::PreSubclassWindow
EXTRN	?Create@CWnd@@UAEHPBD0KABUtagRECT@@PAV1@IPAUCCreateContext@@@Z:PROC ; CWnd::Create
EXTRN	?CreateEx@CWnd@@UAEHKPBD0KHHHHPAUHWND__@@PAUHMENU__@@PAX@Z:PROC ; CWnd::CreateEx
EXTRN	?CreateEx@CWnd@@UAEHKPBD0KABUtagRECT@@PAV1@IPAX@Z:PROC ; CWnd::CreateEx
EXTRN	?DestroyWindow@CWnd@@UAEHXZ:PROC		; CWnd::DestroyWindow
EXTRN	?PreCreateWindow@CWnd@@UAEHAAUtagCREATESTRUCTA@@@Z:PROC ; CWnd::PreCreateWindow
EXTRN	?CalcWindowRect@CWnd@@UAEXPAUtagRECT@@I@Z:PROC	; CWnd::CalcWindowRect
EXTRN	?GetMenu@CWnd@@UBEPAVCMenu@@XZ:PROC		; CWnd::GetMenu
EXTRN	?SetMenu@CWnd@@UAEHPAVCMenu@@@Z:PROC		; CWnd::SetMenu
EXTRN	?OnToolHitTest@CWnd@@UBEHVCPoint@@PAUtagTOOLINFOA@@@Z:PROC ; CWnd::OnToolHitTest
EXTRN	?GetScrollBarCtrl@CWnd@@UBEPAVCScrollBar@@H@Z:PROC ; CWnd::GetScrollBarCtrl
EXTRN	?WinHelpA@CWnd@@UAEXKI@Z:PROC			; CWnd::WinHelpA
EXTRN	?HtmlHelpA@CWnd@@UAEXKI@Z:PROC			; CWnd::HtmlHelpA
EXTRN	?WinHelpInternal@CWnd@@UAEXKI@Z:PROC		; CWnd::WinHelpInternal
EXTRN	?ContinueModal@CWnd@@UAEHXZ:PROC		; CWnd::ContinueModal
EXTRN	?EndModalLoop@CWnd@@UAEXH@Z:PROC		; CWnd::EndModalLoop
EXTRN	?OnDrawIconicThumbnailOrLivePreview@CWnd@@UAEXAAVCDC@@VCRect@@VCSize@@HAAH@Z:PROC ; CWnd::OnDrawIconicThumbnailOrLivePreview
EXTRN	?GetInterfaceMap@CWnd@@MBEPBUAFX_INTERFACEMAP@@XZ:PROC ; CWnd::GetInterfaceMap
EXTRN	?EnsureStdObj@CWnd@@UAEJXZ:PROC			; CWnd::EnsureStdObj
EXTRN	?get_accParent@CWnd@@UAEJPAPAUIDispatch@@@Z:PROC ; CWnd::get_accParent
EXTRN	?get_accChildCount@CWnd@@UAEJPAJ@Z:PROC		; CWnd::get_accChildCount
EXTRN	?get_accChild@CWnd@@UAEJUtagVARIANT@@PAPAUIDispatch@@@Z:PROC ; CWnd::get_accChild
EXTRN	?get_accName@CWnd@@UAEJUtagVARIANT@@PAPA_W@Z:PROC ; CWnd::get_accName
EXTRN	?get_accValue@CWnd@@UAEJUtagVARIANT@@PAPA_W@Z:PROC ; CWnd::get_accValue
EXTRN	?get_accDescription@CWnd@@UAEJUtagVARIANT@@PAPA_W@Z:PROC ; CWnd::get_accDescription
EXTRN	?get_accRole@CWnd@@UAEJUtagVARIANT@@PAU2@@Z:PROC ; CWnd::get_accRole
EXTRN	?get_accState@CWnd@@UAEJUtagVARIANT@@PAU2@@Z:PROC ; CWnd::get_accState
EXTRN	?get_accHelp@CWnd@@UAEJUtagVARIANT@@PAPA_W@Z:PROC ; CWnd::get_accHelp
EXTRN	?get_accHelpTopic@CWnd@@UAEJPAPA_WUtagVARIANT@@PAJ@Z:PROC ; CWnd::get_accHelpTopic
EXTRN	?get_accKeyboardShortcut@CWnd@@UAEJUtagVARIANT@@PAPA_W@Z:PROC ; CWnd::get_accKeyboardShortcut
EXTRN	?get_accFocus@CWnd@@UAEJPAUtagVARIANT@@@Z:PROC	; CWnd::get_accFocus
EXTRN	?get_accSelection@CWnd@@UAEJPAUtagVARIANT@@@Z:PROC ; CWnd::get_accSelection
EXTRN	?get_accDefaultAction@CWnd@@UAEJUtagVARIANT@@PAPA_W@Z:PROC ; CWnd::get_accDefaultAction
EXTRN	?accSelect@CWnd@@UAEJJUtagVARIANT@@@Z:PROC	; CWnd::accSelect
EXTRN	?accLocation@CWnd@@UAEJPAJ000UtagVARIANT@@@Z:PROC ; CWnd::accLocation
EXTRN	?accNavigate@CWnd@@UAEJJUtagVARIANT@@PAU2@@Z:PROC ; CWnd::accNavigate
EXTRN	?accHitTest@CWnd@@UAEJJJPAUtagVARIANT@@@Z:PROC	; CWnd::accHitTest
EXTRN	?accDoDefaultAction@CWnd@@UAEJUtagVARIANT@@@Z:PROC ; CWnd::accDoDefaultAction
EXTRN	?put_accName@CWnd@@UAEJUtagVARIANT@@PA_W@Z:PROC	; CWnd::put_accName
EXTRN	?put_accValue@CWnd@@UAEJUtagVARIANT@@PA_W@Z:PROC ; CWnd::put_accValue
EXTRN	?SetProxy@CWnd@@UAEJPAUIAccessibleProxy@@@Z:PROC ; CWnd::SetProxy
EXTRN	?CreateAccessibleProxy@CWnd@@UAEJIJPAJ@Z:PROC	; CWnd::CreateAccessibleProxy
EXTRN	?OnCommand@CWnd@@MAEHIJ@Z:PROC			; CWnd::OnCommand
EXTRN	?OnNotify@CWnd@@MAEHIJPAJ@Z:PROC		; CWnd::OnNotify
EXTRN	?GetSuperWndProcAddr@CWnd@@MAEPAP6GJPAUHWND__@@IIJ@ZXZ:PROC ; CWnd::GetSuperWndProcAddr
EXTRN	?PreTranslateMessage@CWnd@@UAEHPAUtagMSG@@@Z:PROC ; CWnd::PreTranslateMessage
EXTRN	?OnAmbientProperty@CWnd@@UAEHPAVCOleControlSite@@JPAUtagVARIANT@@@Z:PROC ; CWnd::OnAmbientProperty
EXTRN	?WindowProc@CWnd@@MAEJIIJ@Z:PROC		; CWnd::WindowProc
EXTRN	?OnWndMsg@CWnd@@MAEHIIJPAJ@Z:PROC		; CWnd::OnWndMsg
EXTRN	?Default@CWnd@@IAEJXZ:PROC			; CWnd::Default
EXTRN	?DefWindowProcA@CWnd@@MAEJIIJ@Z:PROC		; CWnd::DefWindowProcA
EXTRN	?PostNcDestroy@CWnd@@MAEXXZ:PROC		; CWnd::PostNcDestroy
EXTRN	?OnChildNotify@CWnd@@MAEHIIJPAJ@Z:PROC		; CWnd::OnChildNotify
EXTRN	?OnTouchInputs@CWnd@@MAEHIPAUtagTOUCHINPUT@@@Z:PROC ; CWnd::OnTouchInputs
EXTRN	?OnTouchInput@CWnd@@MAEHVCPoint@@HHPAUtagTOUCHINPUT@@@Z:PROC ; CWnd::OnTouchInput
EXTRN	?GetGestureStatus@CWnd@@MAEKVCPoint@@@Z:PROC	; CWnd::GetGestureStatus
EXTRN	?OnGestureZoom@CWnd@@MAEHVCPoint@@J@Z:PROC	; CWnd::OnGestureZoom
EXTRN	?OnGesturePan@CWnd@@MAEHVCPoint@@0@Z:PROC	; CWnd::OnGesturePan
EXTRN	?OnGestureRotate@CWnd@@MAEHVCPoint@@N@Z:PROC	; CWnd::OnGestureRotate
EXTRN	?OnGestureTwoFingerTap@CWnd@@MAEHVCPoint@@@Z:PROC ; CWnd::OnGestureTwoFingerTap
EXTRN	?OnGesturePressAndTap@CWnd@@MAEHVCPoint@@J@Z:PROC ; CWnd::OnGesturePressAndTap
EXTRN	?ResizeDynamicLayout@CWnd@@MAEXXZ:PROC		; CWnd::ResizeDynamicLayout
EXTRN	?CheckAutoCenter@CWnd@@UAEHXZ:PROC		; CWnd::CheckAutoCenter
EXTRN	?IsFrameWnd@CWnd@@UBEHXZ:PROC			; CWnd::IsFrameWnd
EXTRN	?OnFinalRelease@CWnd@@UAEXXZ:PROC		; CWnd::OnFinalRelease
EXTRN	?CreateControlContainer@CWnd@@MAEHPAPAVCOleControlContainer@@@Z:PROC ; CWnd::CreateControlContainer
EXTRN	?CreateControlSite@CWnd@@MAEHPAVCOleControlContainer@@PAPAVCOleControlSite@@IABU_GUID@@@Z:PROC ; CWnd::CreateControlSite
EXTRN	?SetOccDialogInfo@CWnd@@MAEHPAU_AFX_OCC_DIALOG_INFO@@@Z:PROC ; CWnd::SetOccDialogInfo
EXTRN	?GetOccDialogInfo@CWnd@@MAEPAU_AFX_OCC_DIALOG_INFO@@XZ:PROC ; CWnd::GetOccDialogInfo
EXTRN	?GetThisMessageMap@CWnd@@KGPBUAFX_MSGMAP@@XZ:PROC ; CWnd::GetThisMessageMap
EXTRN	?GetMessageMap@CWnd@@MBEPBUAFX_MSGMAP@@XZ:PROC	; CWnd::GetMessageMap
EXTRN	?GetThisClass@CEdit@@SGPAUCRuntimeClass@@XZ:PROC ; CEdit::GetThisClass
EXTRN	?GetRuntimeClass@CEdit@@UBEPAUCRuntimeClass@@XZ:PROC ; CEdit::GetRuntimeClass
EXTRN	??1CEdit@@UAE@XZ:PROC				; CEdit::~CEdit
EXTRN	??_ECEdit@@UAEPAXI@Z:PROC			; CEdit::`vector deleting destructor'
EXTRN	?AfxMessageBox@@YGHPBDII@Z:PROC			; AfxMessageBox
EXTRN	?SetPermanentHandle@@YAXPAXPAVCObject@@@Z:PROC	; SetPermanentHandle
EXTRN	??_ECExMaskEdit@@UAEPAXI@Z:PROC			; CExMaskEdit::`vector deleting destructor'
EXTRN	??_ECLoaderMaskEdit@@UAEPAXI@Z:PROC		; CLoaderMaskEdit::`vector deleting destructor'
EXTRN	@__security_check_cookie@4:PROC
EXTRN	___CxxFrameHandler3:PROC
EXTRN	_memset:PROC
EXTRN	??_7type_info@@6B@:QWORD			; type_info::`vftable'
EXTRN	___security_cookie:DWORD
;	COMDAT ?_OptionsStorage@?1??__local_stdio_printf_options@@9@4_KA
_BSS	SEGMENT
?_OptionsStorage@?1??__local_stdio_printf_options@@9@4_KA DQ 01H DUP (?) ; `__local_stdio_printf_options'::`2'::_OptionsStorage
_BSS	ENDS
;	COMDAT ??_R4CExLoadLib@@6B@
rdata$r	SEGMENT
??_R4CExLoadLib@@6B@ DD 00H				; CExLoadLib::`RTTI Complete Object Locator'
	DD	00H
	DD	00H
	DD	FLAT:??_R0?AVCExLoadLib@@@8
	DD	FLAT:??_R3CExLoadLib@@8
rdata$r	ENDS
;	COMDAT ??_R1A@?0A@EA@CExMaskEdit@@8
rdata$r	SEGMENT
??_R1A@?0A@EA@CExMaskEdit@@8 DD FLAT:??_R0?AVCExMaskEdit@@@8 ; CExMaskEdit::`RTTI Base Class Descriptor at (0,-1,0,64)'
	DD	04H
	DD	00H
	DD	0ffffffffH
	DD	00H
	DD	040H
	DD	FLAT:??_R3CExMaskEdit@@8
rdata$r	ENDS
;	COMDAT ??_R2CExMaskEdit@@8
rdata$r	SEGMENT
??_R2CExMaskEdit@@8 DD FLAT:??_R1A@?0A@EA@CExMaskEdit@@8 ; CExMaskEdit::`RTTI Base Class Array'
	DD	FLAT:??_R1A@?0A@EA@CEdit@@8
	DD	FLAT:??_R1A@?0A@EA@CWnd@@8
	DD	FLAT:??_R1A@?0A@EA@CCmdTarget@@8
	DD	FLAT:??_R1A@?0A@EA@CObject@@8
rdata$r	ENDS
;	COMDAT ??_R3CExMaskEdit@@8
rdata$r	SEGMENT
??_R3CExMaskEdit@@8 DD 00H				; CExMaskEdit::`RTTI Class Hierarchy Descriptor'
	DD	00H
	DD	05H
	DD	FLAT:??_R2CExMaskEdit@@8
rdata$r	ENDS
;	COMDAT ??_R0?AVCExMaskEdit@@@8
data$rs	SEGMENT
??_R0?AVCExMaskEdit@@@8 DD FLAT:??_7type_info@@6B@	; CExMaskEdit `RTTI Type Descriptor'
	DD	00H
	DB	'.?AVCExMaskEdit@@', 00H
data$rs	ENDS
;	COMDAT ??_R4CExMaskEdit@@6B@
rdata$r	SEGMENT
??_R4CExMaskEdit@@6B@ DD 00H				; CExMaskEdit::`RTTI Complete Object Locator'
	DD	00H
	DD	00H
	DD	FLAT:??_R0?AVCExMaskEdit@@@8
	DD	FLAT:??_R3CExMaskEdit@@8
rdata$r	ENDS
;	COMDAT ??_R1A@?0A@EA@CLoaderMaskEdit@@8
rdata$r	SEGMENT
??_R1A@?0A@EA@CLoaderMaskEdit@@8 DD FLAT:??_R0?AVCLoaderMaskEdit@@@8 ; CLoaderMaskEdit::`RTTI Base Class Descriptor at (0,-1,0,64)'
	DD	01H
	DD	00H
	DD	0ffffffffH
	DD	00H
	DD	040H
	DD	FLAT:??_R3CLoaderMaskEdit@@8
rdata$r	ENDS
;	COMDAT ??_R2CLoaderMaskEdit@@8
rdata$r	SEGMENT
??_R2CLoaderMaskEdit@@8 DD FLAT:??_R1A@?0A@EA@CLoaderMaskEdit@@8 ; CLoaderMaskEdit::`RTTI Base Class Array'
	DD	FLAT:??_R1A@?0A@EA@CExLoadLib@@8
rdata$r	ENDS
;	COMDAT ??_R3CLoaderMaskEdit@@8
rdata$r	SEGMENT
??_R3CLoaderMaskEdit@@8 DD 00H				; CLoaderMaskEdit::`RTTI Class Hierarchy Descriptor'
	DD	00H
	DD	02H
	DD	FLAT:??_R2CLoaderMaskEdit@@8
rdata$r	ENDS
;	COMDAT ??_R0?AVCLoaderMaskEdit@@@8
data$rs	SEGMENT
??_R0?AVCLoaderMaskEdit@@@8 DD FLAT:??_7type_info@@6B@	; CLoaderMaskEdit `RTTI Type Descriptor'
	DD	00H
	DB	'.?AVCLoaderMaskEdit@@', 00H
data$rs	ENDS
;	COMDAT ??_R4CLoaderMaskEdit@@6B@
rdata$r	SEGMENT
??_R4CLoaderMaskEdit@@6B@ DD 00H			; CLoaderMaskEdit::`RTTI Complete Object Locator'
	DD	00H
	DD	00H
	DD	FLAT:??_R0?AVCLoaderMaskEdit@@@8
	DD	FLAT:??_R3CLoaderMaskEdit@@8
rdata$r	ENDS
;	COMDAT ??_R2CExLoadLib@@8
rdata$r	SEGMENT
??_R2CExLoadLib@@8 DD FLAT:??_R1A@?0A@EA@CExLoadLib@@8	; CExLoadLib::`RTTI Base Class Array'
rdata$r	ENDS
;	COMDAT ??_R3CExLoadLib@@8
rdata$r	SEGMENT
??_R3CExLoadLib@@8 DD 00H				; CExLoadLib::`RTTI Class Hierarchy Descriptor'
	DD	00H
	DD	01H
	DD	FLAT:??_R2CExLoadLib@@8
rdata$r	ENDS
;	COMDAT ??_R0?AVCExLoadLib@@@8
data$rs	SEGMENT
??_R0?AVCExLoadLib@@@8 DD FLAT:??_7type_info@@6B@	; CExLoadLib `RTTI Type Descriptor'
	DD	00H
	DB	'.?AVCExLoadLib@@', 00H
data$rs	ENDS
;	COMDAT ??_R1A@?0A@EA@CExLoadLib@@8
rdata$r	SEGMENT
??_R1A@?0A@EA@CExLoadLib@@8 DD FLAT:??_R0?AVCExLoadLib@@@8 ; CExLoadLib::`RTTI Base Class Descriptor at (0,-1,0,64)'
	DD	00H
	DD	00H
	DD	0ffffffffH
	DD	00H
	DD	040H
	DD	FLAT:??_R3CExLoadLib@@8
rdata$r	ENDS
;	COMDAT ?messageMap@?1??GetThisMessageMap@CExMaskEdit@@KGPBUAFX_MSGMAP@@XZ@4U3@B
CONST	SEGMENT
?messageMap@?1??GetThisMessageMap@CExMaskEdit@@KGPBUAFX_MSGMAP@@XZ@4U3@B DD FLAT:?GetThisMessageMap@CWnd@@KGPBUAFX_MSGMAP@@XZ ; `CExMaskEdit::GetThisMessageMap'::`2'::messageMap
	DD	FLAT:?_messageEntries@?1??GetThisMessageMap@CExMaskEdit@@KGPBUAFX_MSGMAP@@XZ@4QBUAFX_MSGMAP_ENTRY@@B
CONST	ENDS
;	COMDAT ?_messageEntries@?1??GetThisMessageMap@CExMaskEdit@@KGPBUAFX_MSGMAP@@XZ@4QBUAFX_MSGMAP_ENTRY@@B
CONST	SEGMENT
?_messageEntries@?1??GetThisMessageMap@CExMaskEdit@@KGPBUAFX_MSGMAP@@XZ@4QBUAFX_MSGMAP_ENTRY@@B DD 0300H ; `CExMaskEdit::GetThisMessageMap'::`2'::_messageEntries
	DD	00H
	DD	00H
	DD	00H
	DD	013H
	DD	FLAT:?MaskCut@CExMaskEdit@@QAEXXZ
	DD	0302H
	DD	00H
	DD	00H
	DD	00H
	DD	013H
	DD	FLAT:?MaskPaste@CExMaskEdit@@QAEXXZ
	DD	0303H
	DD	00H
	DD	00H
	DD	00H
	DD	013H
	DD	FLAT:?MaskClear@CExMaskEdit@@QAEXXZ
	DD	0304H
	DD	00H
	DD	00H
	DD	00H
	DD	013H
	DD	FLAT:?MaskUndo@CExMaskEdit@@QAEXXZ
	DD	0301H
	DD	00H
	DD	00H
	DD	00H
	DD	013H
	DD	FLAT:?MaskCopy@CExMaskEdit@@QAEXXZ
	DD	0100H
	DD	00H
	DD	00H
	DD	00H
	DD	019H
	DD	FLAT:?OnKeyDown@CExMaskEdit@@IAEXIII@Z
	DD	0102H
	DD	00H
	DD	00H
	DD	00H
	DD	019H
	DD	FLAT:?OnChar@CExMaskEdit@@IAEXIII@Z
	DD	0201H
	DD	00H
	DD	00H
	DD	00H
	DD	036H
	DD	FLAT:?OnLButtonDown@CExMaskEdit@@IAEXIVCPoint@@@Z
	DD	07H
	DD	00H
	DD	00H
	DD	00H
	DD	024H
	DD	FLAT:?OnSetFocus@CExMaskEdit@@IAEXPAVCWnd@@@Z
	DD	0203H
	DD	00H
	DD	00H
	DD	00H
	DD	036H
	DD	FLAT:?OnLButtonDblClk@CExMaskEdit@@IAEXIVCPoint@@@Z
	DD	0fH
	DD	00H
	DD	00H
	DD	00H
	DD	013H
	DD	FLAT:?OnPaint@CExMaskEdit@@IAEXXZ
	DD	00H
	DD	00H
	DD	00H
	DD	00H
	DD	00H
	DD	00H
CONST	ENDS
;	COMDAT ??_C@_0M@CFHLKGDL@CExMaskEdit@
CONST	SEGMENT
??_C@_0M@CFHLKGDL@CExMaskEdit@ DB 'CExMaskEdit', 00H	; `string'
CONST	ENDS
;	COMDAT ??_C@_0BD@BDLIOCCF@Ex_OnPaintMaskEdit@
CONST	SEGMENT
??_C@_0BD@BDLIOCCF@Ex_OnPaintMaskEdit@ DB 'Ex_OnPaintMaskEdit', 00H ; `string'
CONST	ENDS
;	COMDAT ??_C@_0BG@KAKHCAAO@Ex_OnCommand_MaskEdit@
CONST	SEGMENT
??_C@_0BG@KAKHCAAO@Ex_OnCommand_MaskEdit@ DB 'Ex_OnCommand_MaskEdit', 00H ; `string'
CONST	ENDS
;	COMDAT ??_C@_0BN@PGDECGEK@Ex_OnUpdateEditUndo_MaskEdit@
CONST	SEGMENT
??_C@_0BN@PGDECGEK@Ex_OnUpdateEditUndo_MaskEdit@ DB 'Ex_OnUpdateEditUndo_'
	DB	'MaskEdit', 00H				; `string'
CONST	ENDS
;	COMDAT ??_C@_0BM@OECEELFK@Ex_OnLButtonDblClk_MaskEdit@
CONST	SEGMENT
??_C@_0BM@OECEELFK@Ex_OnLButtonDblClk_MaskEdit@ DB 'Ex_OnLButtonDblClk_Ma'
	DB	'skEdit', 00H				; `string'
CONST	ENDS
;	COMDAT ??_C@_0BH@EAIHNKFI@Ex_OnSetFocus_MaskEdit@
CONST	SEGMENT
??_C@_0BH@EAIHNKFI@Ex_OnSetFocus_MaskEdit@ DB 'Ex_OnSetFocus_MaskEdit', 00H ; `string'
CONST	ENDS
;	COMDAT ??_C@_0BK@BOICKELO@Ex_OnLButtonDown_MaskEdit@
CONST	SEGMENT
??_C@_0BK@BOICKELO@Ex_OnLButtonDown_MaskEdit@ DB 'Ex_OnLButtonDown_MaskEd'
	DB	'it', 00H					; `string'
CONST	ENDS
;	COMDAT ??_C@_0BD@JLKDCJKP@Ex_OnChar_MaskEdit@
CONST	SEGMENT
??_C@_0BD@JLKDCJKP@Ex_OnChar_MaskEdit@ DB 'Ex_OnChar_MaskEdit', 00H ; `string'
CONST	ENDS
;	COMDAT ??_C@_0BG@JGNACLFB@Ex_OnKeyDown_MaskEdit@
CONST	SEGMENT
??_C@_0BG@JGNACLFB@Ex_OnKeyDown_MaskEdit@ DB 'Ex_OnKeyDown_MaskEdit', 00H ; `string'
CONST	ENDS
;	COMDAT ??_C@_0BB@MOGHCEKH@Ex_SelectionMade@
CONST	SEGMENT
??_C@_0BB@MOGHCEKH@Ex_SelectionMade@ DB 'Ex_SelectionMade', 00H ; `string'
CONST	ENDS
;	COMDAT ??_C@_0BB@EBPLPEB@Ex_GetMaskedText@
CONST	SEGMENT
??_C@_0BB@EBPLPEB@Ex_GetMaskedText@ DB 'Ex_GetMaskedText', 00H ; `string'
CONST	ENDS
;	COMDAT ??_C@_0BD@FJLAMJFG@Ex_CopyToClipboard@
CONST	SEGMENT
??_C@_0BD@FJLAMJFG@Ex_CopyToClipboard@ DB 'Ex_CopyToClipboard', 00H ; `string'
CONST	ENDS
;	COMDAT ??_C@_0BA@GMDINCJA@Ex_InsertCharAt@
CONST	SEGMENT
??_C@_0BA@GMDINCJA@Ex_InsertCharAt@ DB 'Ex_InsertCharAt', 00H ; `string'
CONST	ENDS
;	COMDAT ??_C@_0BA@KEIDGONC@Ex_DeleteCharAt@
CONST	SEGMENT
??_C@_0BA@KEIDGONC@Ex_DeleteCharAt@ DB 'Ex_DeleteCharAt', 00H ; `string'
CONST	ENDS
;	COMDAT ??_C@_0BD@DJHOEFHP@Ex_CorrectPosition@
CONST	SEGMENT
??_C@_0BD@DJHOEFHP@Ex_CorrectPosition@ DB 'Ex_CorrectPosition', 00H ; `string'
CONST	ENDS
;	COMDAT ??_C@_0BH@GJNAJCHK@Ex_PreTranslateMessage@
CONST	SEGMENT
??_C@_0BH@GJNAJCHK@Ex_PreTranslateMessage@ DB 'Ex_PreTranslateMessage', 00H ; `string'
CONST	ENDS
;	COMDAT ??_C@_0P@MCNBFGIG@Ex_ProcessMask@
CONST	SEGMENT
??_C@_0P@MCNBFGIG@Ex_ProcessMask@ DB 'Ex_ProcessMask', 00H ; `string'
CONST	ENDS
;	COMDAT ??_C@_0N@POKEJKBK@Ex_CheckChar@
CONST	SEGMENT
??_C@_0N@POKEJKBK@Ex_CheckChar@ DB 'Ex_CheckChar', 00H	; `string'
CONST	ENDS
;	COMDAT ??_C@_0O@FFKDFCPO@Ex_SetUseMask@
CONST	SEGMENT
??_C@_0O@FFKDFCPO@Ex_SetUseMask@ DB 'Ex_SetUseMask', 00H ; `string'
CONST	ENDS
;	COMDAT ??_C@_0P@NAPHALFL@Ex_SetOverType@
CONST	SEGMENT
??_C@_0P@NAPHALFL@Ex_SetOverType@ DB 'Ex_SetOverType', 00H ; `string'
CONST	ENDS
;	COMDAT ??_C@_0M@CKIKDCEG@Ex_MaskUndo@
CONST	SEGMENT
??_C@_0M@CKIKDCEG@Ex_MaskUndo@ DB 'Ex_MaskUndo', 00H	; `string'
CONST	ENDS
;	COMDAT ??_C@_0BB@NPJJHHJA@Ex_MaskSelectAll@
CONST	SEGMENT
??_C@_0BB@NPJJHHJA@Ex_MaskSelectAll@ DB 'Ex_MaskSelectAll', 00H ; `string'
CONST	ENDS
;	COMDAT ??_C@_0N@IIDPNEKA@Ex_MaskPaste@
CONST	SEGMENT
??_C@_0N@IIDPNEKA@Ex_MaskPaste@ DB 'Ex_MaskPaste', 00H	; `string'
CONST	ENDS
;	COMDAT ??_C@_0L@BHNHPILB@Ex_MaskCut@
CONST	SEGMENT
??_C@_0L@BHNHPILB@Ex_MaskCut@ DB 'Ex_MaskCut', 00H	; `string'
CONST	ENDS
;	COMDAT ??_C@_0M@HKCBIJHK@Ex_MaskCopy@
CONST	SEGMENT
??_C@_0M@HKCBIJHK@Ex_MaskCopy@ DB 'Ex_MaskCopy', 00H	; `string'
CONST	ENDS
;	COMDAT ??_C@_0N@JPPBINGK@Ex_MaskClear@
CONST	SEGMENT
??_C@_0N@JPPBINGK@Ex_MaskClear@ DB 'Ex_MaskClear', 00H	; `string'
CONST	ENDS
;	COMDAT ??_C@_0BB@HCEIKJEA@Ex_GetPromptChar@
CONST	SEGMENT
??_C@_0BB@HCEIKJEA@Ex_GetPromptChar@ DB 'Ex_GetPromptChar', 00H ; `string'
CONST	ENDS
;	COMDAT ??_C@_0O@FCJONDPB@Ex_PosInRange@
CONST	SEGMENT
??_C@_0O@FCJONDPB@Ex_PosInRange@ DB 'Ex_PosInRange', 00H ; `string'
CONST	ENDS
;	COMDAT ??_C@_0O@JMPIJBOO@Ex_IsModified@
CONST	SEGMENT
??_C@_0O@JMPIJBOO@Ex_IsModified@ DB 'Ex_IsModified', 00H ; `string'
CONST	ENDS
;	COMDAT ??_C@_0O@MLFAPOKA@Ex_CanUseMask@
CONST	SEGMENT
??_C@_0O@MLFAPOKA@Ex_CanUseMask@ DB 'Ex_CanUseMask', 00H ; `string'
CONST	ENDS
;	COMDAT ??_C@_0P@FMLKIEAE@Ex_CanOverType@
CONST	SEGMENT
??_C@_0P@FMLKIEAE@Ex_CanOverType@ DB 'Ex_CanOverType', 00H ; `string'
CONST	ENDS
;	COMDAT ??_C@_0BB@NFGBKDH@Ex_SetPromptChar@
CONST	SEGMENT
??_C@_0BB@NFGBKDH@Ex_SetPromptChar@ DB 'Ex_SetPromptChar', 00H ; `string'
CONST	ENDS
;	COMDAT ??_C@_0P@OCGCHKO@Ex_SetEditMask@
CONST	SEGMENT
??_C@_0P@OCGCHKO@Ex_SetEditMask@ DB 'Ex_SetEditMask', 00H ; `string'
CONST	ENDS
;	COMDAT ??_C@_0BA@BEIIGIPI@Ex_ExitEditMask@
CONST	SEGMENT
??_C@_0BA@BEIIGIPI@Ex_ExitEditMask@ DB 'Ex_ExitEditMask', 00H ; `string'
CONST	ENDS
;	COMDAT ??_C@_0BB@GABFEOBN@Ex_InitEditMask2@
CONST	SEGMENT
??_C@_0BB@GABFEOBN@Ex_InitEditMask2@ DB 'Ex_InitEditMask2', 00H ; `string'
CONST	ENDS
;	COMDAT ??_C@_0BA@GNBHJJBP@Ex_InitEditMask@
CONST	SEGMENT
??_C@_0BA@GNBHJJBP@Ex_InitEditMask@ DB 'Ex_InitEditMask', 00H ; `string'
CONST	ENDS
;	COMDAT ??_7CLoaderMaskEdit@@6B@
CONST	SEGMENT
??_7CLoaderMaskEdit@@6B@ DD FLAT:??_R4CLoaderMaskEdit@@6B@ ; CLoaderMaskEdit::`vftable'
	DD	FLAT:?LoadProcAddress@CLoaderMaskEdit@@UAEHXZ
	DD	FLAT:??_ECLoaderMaskEdit@@UAEPAXI@Z
CONST	ENDS
;	COMDAT ??_C@_0L@NKPAHHOE@ExEdit?4dll@
CONST	SEGMENT
??_C@_0L@NKPAHHOE@ExEdit?4dll@ DB 'ExEdit.dll', 00H	; `string'
CONST	ENDS
;	COMDAT ??_C@_0BB@JBDOCKKP@Ex_ActionControl@
CONST	SEGMENT
??_C@_0BB@JBDOCKKP@Ex_ActionControl@ DB 'Ex_ActionControl', 00H ; `string'
CONST	ENDS
;	COMDAT ??_C@_05BMGBEOOC@?$CFs?2?$CFs@
CONST	SEGMENT
??_C@_05BMGBEOOC@?$CFs?2?$CFs@ DB '%s\%s', 00H		; `string'
CONST	ENDS
;	COMDAT ??_C@_04OHDBDCPJ@?2Dev@
CONST	SEGMENT
??_C@_04OHDBDCPJ@?2Dev@ DB '\Dev', 00H			; `string'
CONST	ENDS
;	COMDAT ??_C@_0CD@INEDAMEN@DLL?$FL?$CFs?$FN?$MA?$LL?5Load?G?R?5?$LM?v?5?$LO?x?$LN?$MA?$LE?O?$LE?Y?4?5?$FL@
CONST	SEGMENT
??_C@_0CD@INEDAMEN@DLL?$FL?$CFs?$FN?$MA?$LL?5Load?G?R?5?$LM?v?5?$LO?x?$LN?$MA?$LE?O?$LE?Y?4?5?$FL@ DB 'D'
	DB	'LL[%s]', 0c0H, 0bbH, ' Load', 0c7H, 0d2H, ' ', 0bcH, 0f6H, ' '
	DB	0beH, 0f8H, 0bdH, 0c0H, 0b4H, 0cfH, 0b4H, 0d9H, '. [%d]', 00H ; `string'
CONST	ENDS
;	COMDAT ??_7CExLoadLib@@6B@
CONST	SEGMENT
??_7CExLoadLib@@6B@ DD FLAT:??_R4CExLoadLib@@6B@	; CExLoadLib::`vftable'
	DD	FLAT:?LoadProcAddress@CExLoadLib@@UAEHXZ
CONST	ENDS
;	COMDAT ??_7CExMaskEdit@@6B@
CONST	SEGMENT
??_7CExMaskEdit@@6B@ DD FLAT:??_R4CExMaskEdit@@6B@	; CExMaskEdit::`vftable'
	DD	FLAT:?GetRuntimeClass@CExMaskEdit@@UBEPAUCRuntimeClass@@XZ
	DD	FLAT:??_ECExMaskEdit@@UAEPAXI@Z
	DD	FLAT:?Serialize@CObject@@UAEXAAVCArchive@@@Z
	DD	FLAT:?AssertValid@CObject@@UBEXXZ
	DD	FLAT:?Dump@CObject@@UBEXAAVCDumpContext@@@Z
	DD	FLAT:?OnCmdMsg@CCmdTarget@@UAEHIHPAXPAUAFX_CMDHANDLERINFO@@@Z
	DD	FLAT:?OnFinalRelease@CWnd@@UAEXXZ
	DD	FLAT:?IsInvokeAllowed@CCmdTarget@@UAEHJ@Z
	DD	FLAT:?GetDispatchIID@CCmdTarget@@UAEHPAU_GUID@@@Z
	DD	FLAT:?GetTypeInfoCount@CCmdTarget@@UAEIXZ
	DD	FLAT:?GetTypeLibCache@CCmdTarget@@UAEPAVCTypeLibCache@@XZ
	DD	FLAT:?GetTypeLib@CCmdTarget@@UAEJKPAPAUITypeLib@@@Z
	DD	FLAT:?GetMessageMap@CExMaskEdit@@MBEPBUAFX_MSGMAP@@XZ
	DD	FLAT:?GetCommandMap@CCmdTarget@@MBEPBUAFX_OLECMDMAP@@XZ
	DD	FLAT:?GetDispatchMap@CCmdTarget@@MBEPBUAFX_DISPMAP@@XZ
	DD	FLAT:?GetConnectionMap@CCmdTarget@@MBEPBUAFX_CONNECTIONMAP@@XZ
	DD	FLAT:?GetInterfaceMap@CWnd@@MBEPBUAFX_INTERFACEMAP@@XZ
	DD	FLAT:?GetEventSinkMap@CCmdTarget@@MBEPBUAFX_EVENTSINKMAP@@XZ
	DD	FLAT:?OnCreateAggregates@CCmdTarget@@UAEHXZ
	DD	FLAT:?GetInterfaceHook@CCmdTarget@@UAEPAUIUnknown@@PBX@Z
	DD	FLAT:?GetExtraConnectionPoints@CCmdTarget@@MAEHPAVCPtrArray@@@Z
	DD	FLAT:?GetConnectionHook@CCmdTarget@@MAEPAUIConnectionPoint@@ABU_GUID@@@Z
	DD	FLAT:?PreSubclassWindow@CExMaskEdit@@MAEXXZ
	DD	FLAT:?Create@CWnd@@UAEHPBD0KABUtagRECT@@PAV1@IPAUCCreateContext@@@Z
	DD	FLAT:?CreateEx@CWnd@@UAEHKPBD0KABUtagRECT@@PAV1@IPAX@Z
	DD	FLAT:?CreateEx@CWnd@@UAEHKPBD0KHHHHPAUHWND__@@PAUHMENU__@@PAX@Z
	DD	FLAT:?DestroyWindow@CWnd@@UAEHXZ
	DD	FLAT:?PreCreateWindow@CWnd@@UAEHAAUtagCREATESTRUCTA@@@Z
	DD	FLAT:?CalcWindowRect@CWnd@@UAEXPAUtagRECT@@I@Z
	DD	FLAT:?GetMenu@CWnd@@UBEPAVCMenu@@XZ
	DD	FLAT:?SetMenu@CWnd@@UAEHPAVCMenu@@@Z
	DD	FLAT:?OnToolHitTest@CWnd@@UBEHVCPoint@@PAUtagTOOLINFOA@@@Z
	DD	FLAT:?GetScrollBarCtrl@CWnd@@UBEPAVCScrollBar@@H@Z
	DD	FLAT:?WinHelpA@CWnd@@UAEXKI@Z
	DD	FLAT:?HtmlHelpA@CWnd@@UAEXKI@Z
	DD	FLAT:?WinHelpInternal@CWnd@@UAEXKI@Z
	DD	FLAT:?ContinueModal@CWnd@@UAEHXZ
	DD	FLAT:?EndModalLoop@CWnd@@UAEXH@Z
	DD	FLAT:?OnDrawIconicThumbnailOrLivePreview@CWnd@@UAEXAAVCDC@@VCRect@@VCSize@@HAAH@Z
	DD	FLAT:?EnsureStdObj@CWnd@@UAEJXZ
	DD	FLAT:?get_accParent@CWnd@@UAEJPAPAUIDispatch@@@Z
	DD	FLAT:?get_accChildCount@CWnd@@UAEJPAJ@Z
	DD	FLAT:?get_accChild@CWnd@@UAEJUtagVARIANT@@PAPAUIDispatch@@@Z
	DD	FLAT:?get_accName@CWnd@@UAEJUtagVARIANT@@PAPA_W@Z
	DD	FLAT:?get_accValue@CWnd@@UAEJUtagVARIANT@@PAPA_W@Z
	DD	FLAT:?get_accDescription@CWnd@@UAEJUtagVARIANT@@PAPA_W@Z
	DD	FLAT:?get_accRole@CWnd@@UAEJUtagVARIANT@@PAU2@@Z
	DD	FLAT:?get_accState@CWnd@@UAEJUtagVARIANT@@PAU2@@Z
	DD	FLAT:?get_accHelp@CWnd@@UAEJUtagVARIANT@@PAPA_W@Z
	DD	FLAT:?get_accHelpTopic@CWnd@@UAEJPAPA_WUtagVARIANT@@PAJ@Z
	DD	FLAT:?get_accKeyboardShortcut@CWnd@@UAEJUtagVARIANT@@PAPA_W@Z
	DD	FLAT:?get_accFocus@CWnd@@UAEJPAUtagVARIANT@@@Z
	DD	FLAT:?get_accSelection@CWnd@@UAEJPAUtagVARIANT@@@Z
	DD	FLAT:?get_accDefaultAction@CWnd@@UAEJUtagVARIANT@@PAPA_W@Z
	DD	FLAT:?accSelect@CWnd@@UAEJJUtagVARIANT@@@Z
	DD	FLAT:?accLocation@CWnd@@UAEJPAJ000UtagVARIANT@@@Z
	DD	FLAT:?accNavigate@CWnd@@UAEJJUtagVARIANT@@PAU2@@Z
	DD	FLAT:?accHitTest@CWnd@@UAEJJJPAUtagVARIANT@@@Z
	DD	FLAT:?accDoDefaultAction@CWnd@@UAEJUtagVARIANT@@@Z
	DD	FLAT:?put_accName@CWnd@@UAEJUtagVARIANT@@PA_W@Z
	DD	FLAT:?put_accValue@CWnd@@UAEJUtagVARIANT@@PA_W@Z
	DD	FLAT:?SetProxy@CWnd@@UAEJPAUIAccessibleProxy@@@Z
	DD	FLAT:?CreateAccessibleProxy@CWnd@@UAEJIJPAJ@Z
	DD	FLAT:?OnCommand@CExMaskEdit@@MAEHIJ@Z
	DD	FLAT:?OnNotify@CWnd@@MAEHIJPAJ@Z
	DD	FLAT:?GetSuperWndProcAddr@CWnd@@MAEPAP6GJPAUHWND__@@IIJ@ZXZ
	DD	FLAT:?DoDataExchange@CWnd@@MAEXPAVCDataExchange@@@Z
	DD	FLAT:?BeginModalState@CWnd@@UAEXXZ
	DD	FLAT:?EndModalState@CWnd@@UAEXXZ
	DD	FLAT:?PreTranslateMessage@CExMaskEdit@@UAEHPAUtagMSG@@@Z
	DD	FLAT:?OnAmbientProperty@CWnd@@UAEHPAVCOleControlSite@@JPAUtagVARIANT@@@Z
	DD	FLAT:?WindowProc@CWnd@@MAEJIIJ@Z
	DD	FLAT:?OnWndMsg@CWnd@@MAEHIIJPAJ@Z
	DD	FLAT:?DefWindowProcA@CWnd@@MAEJIIJ@Z
	DD	FLAT:?PostNcDestroy@CWnd@@MAEXXZ
	DD	FLAT:?OnChildNotify@CWnd@@MAEHIIJPAJ@Z
	DD	FLAT:?OnTouchInputs@CWnd@@MAEHIPAUtagTOUCHINPUT@@@Z
	DD	FLAT:?OnTouchInput@CWnd@@MAEHVCPoint@@HHPAUtagTOUCHINPUT@@@Z
	DD	FLAT:?GetGestureStatus@CWnd@@MAEKVCPoint@@@Z
	DD	FLAT:?OnGestureZoom@CWnd@@MAEHVCPoint@@J@Z
	DD	FLAT:?OnGesturePan@CWnd@@MAEHVCPoint@@0@Z
	DD	FLAT:?OnGestureRotate@CWnd@@MAEHVCPoint@@N@Z
	DD	FLAT:?OnGestureTwoFingerTap@CWnd@@MAEHVCPoint@@@Z
	DD	FLAT:?OnGesturePressAndTap@CWnd@@MAEHVCPoint@@J@Z
	DD	FLAT:?ResizeDynamicLayout@CWnd@@MAEXXZ
	DD	FLAT:?CheckAutoCenter@CWnd@@UAEHXZ
	DD	FLAT:?IsFrameWnd@CWnd@@UBEHXZ
	DD	FLAT:?CreateControlContainer@CWnd@@MAEHPAPAVCOleControlContainer@@@Z
	DD	FLAT:?CreateControlSite@CWnd@@MAEHPAVCOleControlContainer@@PAPAVCOleControlSite@@IABU_GUID@@@Z
	DD	FLAT:?SetOccDialogInfo@CWnd@@MAEHPAU_AFX_OCC_DIALOG_INFO@@@Z
	DD	FLAT:?GetOccDialogInfo@CWnd@@MAEPAU_AFX_OCC_DIALOG_INFO@@XZ
	DD	FLAT:?SetEditMask@CExMaskEdit@@UAEXPBD00@Z
	DD	FLAT:?CheckChar@CExMaskEdit@@UAEHAAIH@Z
	DD	FLAT:?ProcessMask@CExMaskEdit@@UAEHAAIH@Z
	DD	FLAT:?CorrectPosition@CExMaskEdit@@MAEHAAHHH@Z
	DD	FLAT:?DeleteCharAt@CExMaskEdit@@MAEXH@Z
	DD	FLAT:?InsertCharAt@CExMaskEdit@@MAEXHD@Z
	DD	FLAT:?CopyToClipboard@CExMaskEdit@@MAEHPBD@Z
	DD	FLAT:?GetMaskedText@CExMaskEdit@@MAE?AV?$CStringT@DV?$StrTraitMFC_DLL@DV?$ChTraitsCRT@D@ATL@@@@@ATL@@H@Z
	DD	FLAT:?SelectionMade@CExMaskEdit@@MAEHXZ
CONST	ENDS
;	COMDAT ?classCExMaskEdit@CExMaskEdit@@2UCRuntimeClass@@B
CONST	SEGMENT
?classCExMaskEdit@CExMaskEdit@@2UCRuntimeClass@@B DD FLAT:??_C@_0M@CFHLKGDL@CExMaskEdit@ ; CExMaskEdit::classCExMaskEdit
	DD	088H
	DD	0ffffH
	DD	00H
	DD	FLAT:?_GetBaseClass@CExMaskEdit@@KGPAUCRuntimeClass@@XZ
	DD	00H
	DD	00H
CONST	ENDS
;	COMDAT ??_R1A@?0A@EA@CEdit@@8
rdata$r	SEGMENT
??_R1A@?0A@EA@CEdit@@8 DD FLAT:??_R0?AVCEdit@@@8	; CEdit::`RTTI Base Class Descriptor at (0,-1,0,64)'
	DD	03H
	DD	00H
	DD	0ffffffffH
	DD	00H
	DD	040H
	DD	FLAT:??_R3CEdit@@8
rdata$r	ENDS
;	COMDAT ??_R2CEdit@@8
rdata$r	SEGMENT
??_R2CEdit@@8 DD FLAT:??_R1A@?0A@EA@CEdit@@8		; CEdit::`RTTI Base Class Array'
	DD	FLAT:??_R1A@?0A@EA@CWnd@@8
	DD	FLAT:??_R1A@?0A@EA@CCmdTarget@@8
	DD	FLAT:??_R1A@?0A@EA@CObject@@8
rdata$r	ENDS
;	COMDAT ??_R3CEdit@@8
rdata$r	SEGMENT
??_R3CEdit@@8 DD 00H					; CEdit::`RTTI Class Hierarchy Descriptor'
	DD	00H
	DD	04H
	DD	FLAT:??_R2CEdit@@8
rdata$r	ENDS
;	COMDAT ??_R0?AVCEdit@@@8
data$rs	SEGMENT
??_R0?AVCEdit@@@8 DD FLAT:??_7type_info@@6B@		; CEdit `RTTI Type Descriptor'
	DD	00H
	DB	'.?AVCEdit@@', 00H
data$rs	ENDS
;	COMDAT ??_R4CEdit@@6B@
rdata$r	SEGMENT
??_R4CEdit@@6B@ DD 00H					; CEdit::`RTTI Complete Object Locator'
	DD	00H
	DD	00H
	DD	FLAT:??_R0?AVCEdit@@@8
	DD	FLAT:??_R3CEdit@@8
rdata$r	ENDS
;	COMDAT ??_R2CCmdTarget@@8
rdata$r	SEGMENT
??_R2CCmdTarget@@8 DD FLAT:??_R1A@?0A@EA@CCmdTarget@@8	; CCmdTarget::`RTTI Base Class Array'
	DD	FLAT:??_R1A@?0A@EA@CObject@@8
rdata$r	ENDS
;	COMDAT ??_R3CCmdTarget@@8
rdata$r	SEGMENT
??_R3CCmdTarget@@8 DD 00H				; CCmdTarget::`RTTI Class Hierarchy Descriptor'
	DD	00H
	DD	02H
	DD	FLAT:??_R2CCmdTarget@@8
rdata$r	ENDS
;	COMDAT ??_R0?AVCCmdTarget@@@8
data$rs	SEGMENT
??_R0?AVCCmdTarget@@@8 DD FLAT:??_7type_info@@6B@	; CCmdTarget `RTTI Type Descriptor'
	DD	00H
	DB	'.?AVCCmdTarget@@', 00H
data$rs	ENDS
;	COMDAT ??_R1A@?0A@EA@CCmdTarget@@8
rdata$r	SEGMENT
??_R1A@?0A@EA@CCmdTarget@@8 DD FLAT:??_R0?AVCCmdTarget@@@8 ; CCmdTarget::`RTTI Base Class Descriptor at (0,-1,0,64)'
	DD	01H
	DD	00H
	DD	0ffffffffH
	DD	00H
	DD	040H
	DD	FLAT:??_R3CCmdTarget@@8
rdata$r	ENDS
;	COMDAT ??_R2CWnd@@8
rdata$r	SEGMENT
??_R2CWnd@@8 DD	FLAT:??_R1A@?0A@EA@CWnd@@8		; CWnd::`RTTI Base Class Array'
	DD	FLAT:??_R1A@?0A@EA@CCmdTarget@@8
	DD	FLAT:??_R1A@?0A@EA@CObject@@8
rdata$r	ENDS
;	COMDAT ??_R3CWnd@@8
rdata$r	SEGMENT
??_R3CWnd@@8 DD	00H					; CWnd::`RTTI Class Hierarchy Descriptor'
	DD	00H
	DD	03H
	DD	FLAT:??_R2CWnd@@8
rdata$r	ENDS
;	COMDAT ??_R0?AVCWnd@@@8
data$rs	SEGMENT
??_R0?AVCWnd@@@8 DD FLAT:??_7type_info@@6B@		; CWnd `RTTI Type Descriptor'
	DD	00H
	DB	'.?AVCWnd@@', 00H
data$rs	ENDS
;	COMDAT ??_R1A@?0A@EA@CWnd@@8
rdata$r	SEGMENT
??_R1A@?0A@EA@CWnd@@8 DD FLAT:??_R0?AVCWnd@@@8		; CWnd::`RTTI Base Class Descriptor at (0,-1,0,64)'
	DD	02H
	DD	00H
	DD	0ffffffffH
	DD	00H
	DD	040H
	DD	FLAT:??_R3CWnd@@8
rdata$r	ENDS
;	COMDAT ??_R1A@?0A@EA@CObject@@8
rdata$r	SEGMENT
??_R1A@?0A@EA@CObject@@8 DD FLAT:??_R0?AVCObject@@@8	; CObject::`RTTI Base Class Descriptor at (0,-1,0,64)'
	DD	00H
	DD	00H
	DD	0ffffffffH
	DD	00H
	DD	040H
	DD	FLAT:??_R3CObject@@8
rdata$r	ENDS
;	COMDAT ??_R2CObject@@8
rdata$r	SEGMENT
??_R2CObject@@8 DD FLAT:??_R1A@?0A@EA@CObject@@8	; CObject::`RTTI Base Class Array'
rdata$r	ENDS
;	COMDAT ??_R3CObject@@8
rdata$r	SEGMENT
??_R3CObject@@8 DD 00H					; CObject::`RTTI Class Hierarchy Descriptor'
	DD	00H
	DD	01H
	DD	FLAT:??_R2CObject@@8
rdata$r	ENDS
;	COMDAT ??_R0?AVCObject@@@8
data$rs	SEGMENT
??_R0?AVCObject@@@8 DD FLAT:??_7type_info@@6B@		; CObject `RTTI Type Descriptor'
	DD	00H
	DB	'.?AVCObject@@', 00H
data$rs	ENDS
;	COMDAT ??_7CEdit@@6B@
CONST	SEGMENT
??_7CEdit@@6B@ DD FLAT:??_R4CEdit@@6B@			; CEdit::`vftable'
	DD	FLAT:?GetRuntimeClass@CEdit@@UBEPAUCRuntimeClass@@XZ
	DD	FLAT:??_ECEdit@@UAEPAXI@Z
	DD	FLAT:?Serialize@CObject@@UAEXAAVCArchive@@@Z
	DD	FLAT:?AssertValid@CObject@@UBEXXZ
	DD	FLAT:?Dump@CObject@@UBEXAAVCDumpContext@@@Z
	DD	FLAT:?OnCmdMsg@CCmdTarget@@UAEHIHPAXPAUAFX_CMDHANDLERINFO@@@Z
	DD	FLAT:?OnFinalRelease@CWnd@@UAEXXZ
	DD	FLAT:?IsInvokeAllowed@CCmdTarget@@UAEHJ@Z
	DD	FLAT:?GetDispatchIID@CCmdTarget@@UAEHPAU_GUID@@@Z
	DD	FLAT:?GetTypeInfoCount@CCmdTarget@@UAEIXZ
	DD	FLAT:?GetTypeLibCache@CCmdTarget@@UAEPAVCTypeLibCache@@XZ
	DD	FLAT:?GetTypeLib@CCmdTarget@@UAEJKPAPAUITypeLib@@@Z
	DD	FLAT:?GetMessageMap@CWnd@@MBEPBUAFX_MSGMAP@@XZ
	DD	FLAT:?GetCommandMap@CCmdTarget@@MBEPBUAFX_OLECMDMAP@@XZ
	DD	FLAT:?GetDispatchMap@CCmdTarget@@MBEPBUAFX_DISPMAP@@XZ
	DD	FLAT:?GetConnectionMap@CCmdTarget@@MBEPBUAFX_CONNECTIONMAP@@XZ
	DD	FLAT:?GetInterfaceMap@CWnd@@MBEPBUAFX_INTERFACEMAP@@XZ
	DD	FLAT:?GetEventSinkMap@CCmdTarget@@MBEPBUAFX_EVENTSINKMAP@@XZ
	DD	FLAT:?OnCreateAggregates@CCmdTarget@@UAEHXZ
	DD	FLAT:?GetInterfaceHook@CCmdTarget@@UAEPAUIUnknown@@PBX@Z
	DD	FLAT:?GetExtraConnectionPoints@CCmdTarget@@MAEHPAVCPtrArray@@@Z
	DD	FLAT:?GetConnectionHook@CCmdTarget@@MAEPAUIConnectionPoint@@ABU_GUID@@@Z
	DD	FLAT:?PreSubclassWindow@CWnd@@UAEXXZ
	DD	FLAT:?Create@CWnd@@UAEHPBD0KABUtagRECT@@PAV1@IPAUCCreateContext@@@Z
	DD	FLAT:?CreateEx@CWnd@@UAEHKPBD0KABUtagRECT@@PAV1@IPAX@Z
	DD	FLAT:?CreateEx@CWnd@@UAEHKPBD0KHHHHPAUHWND__@@PAUHMENU__@@PAX@Z
	DD	FLAT:?DestroyWindow@CWnd@@UAEHXZ
	DD	FLAT:?PreCreateWindow@CWnd@@UAEHAAUtagCREATESTRUCTA@@@Z
	DD	FLAT:?CalcWindowRect@CWnd@@UAEXPAUtagRECT@@I@Z
	DD	FLAT:?GetMenu@CWnd@@UBEPAVCMenu@@XZ
	DD	FLAT:?SetMenu@CWnd@@UAEHPAVCMenu@@@Z
	DD	FLAT:?OnToolHitTest@CWnd@@UBEHVCPoint@@PAUtagTOOLINFOA@@@Z
	DD	FLAT:?GetScrollBarCtrl@CWnd@@UBEPAVCScrollBar@@H@Z
	DD	FLAT:?WinHelpA@CWnd@@UAEXKI@Z
	DD	FLAT:?HtmlHelpA@CWnd@@UAEXKI@Z
	DD	FLAT:?WinHelpInternal@CWnd@@UAEXKI@Z
	DD	FLAT:?ContinueModal@CWnd@@UAEHXZ
	DD	FLAT:?EndModalLoop@CWnd@@UAEXH@Z
	DD	FLAT:?OnDrawIconicThumbnailOrLivePreview@CWnd@@UAEXAAVCDC@@VCRect@@VCSize@@HAAH@Z
	DD	FLAT:?EnsureStdObj@CWnd@@UAEJXZ
	DD	FLAT:?get_accParent@CWnd@@UAEJPAPAUIDispatch@@@Z
	DD	FLAT:?get_accChildCount@CWnd@@UAEJPAJ@Z
	DD	FLAT:?get_accChild@CWnd@@UAEJUtagVARIANT@@PAPAUIDispatch@@@Z
	DD	FLAT:?get_accName@CWnd@@UAEJUtagVARIANT@@PAPA_W@Z
	DD	FLAT:?get_accValue@CWnd@@UAEJUtagVARIANT@@PAPA_W@Z
	DD	FLAT:?get_accDescription@CWnd@@UAEJUtagVARIANT@@PAPA_W@Z
	DD	FLAT:?get_accRole@CWnd@@UAEJUtagVARIANT@@PAU2@@Z
	DD	FLAT:?get_accState@CWnd@@UAEJUtagVARIANT@@PAU2@@Z
	DD	FLAT:?get_accHelp@CWnd@@UAEJUtagVARIANT@@PAPA_W@Z
	DD	FLAT:?get_accHelpTopic@CWnd@@UAEJPAPA_WUtagVARIANT@@PAJ@Z
	DD	FLAT:?get_accKeyboardShortcut@CWnd@@UAEJUtagVARIANT@@PAPA_W@Z
	DD	FLAT:?get_accFocus@CWnd@@UAEJPAUtagVARIANT@@@Z
	DD	FLAT:?get_accSelection@CWnd@@UAEJPAUtagVARIANT@@@Z
	DD	FLAT:?get_accDefaultAction@CWnd@@UAEJUtagVARIANT@@PAPA_W@Z
	DD	FLAT:?accSelect@CWnd@@UAEJJUtagVARIANT@@@Z
	DD	FLAT:?accLocation@CWnd@@UAEJPAJ000UtagVARIANT@@@Z
	DD	FLAT:?accNavigate@CWnd@@UAEJJUtagVARIANT@@PAU2@@Z
	DD	FLAT:?accHitTest@CWnd@@UAEJJJPAUtagVARIANT@@@Z
	DD	FLAT:?accDoDefaultAction@CWnd@@UAEJUtagVARIANT@@@Z
	DD	FLAT:?put_accName@CWnd@@UAEJUtagVARIANT@@PA_W@Z
	DD	FLAT:?put_accValue@CWnd@@UAEJUtagVARIANT@@PA_W@Z
	DD	FLAT:?SetProxy@CWnd@@UAEJPAUIAccessibleProxy@@@Z
	DD	FLAT:?CreateAccessibleProxy@CWnd@@UAEJIJPAJ@Z
	DD	FLAT:?OnCommand@CWnd@@MAEHIJ@Z
	DD	FLAT:?OnNotify@CWnd@@MAEHIJPAJ@Z
	DD	FLAT:?GetSuperWndProcAddr@CWnd@@MAEPAP6GJPAUHWND__@@IIJ@ZXZ
	DD	FLAT:?DoDataExchange@CWnd@@MAEXPAVCDataExchange@@@Z
	DD	FLAT:?BeginModalState@CWnd@@UAEXXZ
	DD	FLAT:?EndModalState@CWnd@@UAEXXZ
	DD	FLAT:?PreTranslateMessage@CWnd@@UAEHPAUtagMSG@@@Z
	DD	FLAT:?OnAmbientProperty@CWnd@@UAEHPAVCOleControlSite@@JPAUtagVARIANT@@@Z
	DD	FLAT:?WindowProc@CWnd@@MAEJIIJ@Z
	DD	FLAT:?OnWndMsg@CWnd@@MAEHIIJPAJ@Z
	DD	FLAT:?DefWindowProcA@CWnd@@MAEJIIJ@Z
	DD	FLAT:?PostNcDestroy@CWnd@@MAEXXZ
	DD	FLAT:?OnChildNotify@CWnd@@MAEHIIJPAJ@Z
	DD	FLAT:?OnTouchInputs@CWnd@@MAEHIPAUtagTOUCHINPUT@@@Z
	DD	FLAT:?OnTouchInput@CWnd@@MAEHVCPoint@@HHPAUtagTOUCHINPUT@@@Z
	DD	FLAT:?GetGestureStatus@CWnd@@MAEKVCPoint@@@Z
	DD	FLAT:?OnGestureZoom@CWnd@@MAEHVCPoint@@J@Z
	DD	FLAT:?OnGesturePan@CWnd@@MAEHVCPoint@@0@Z
	DD	FLAT:?OnGestureRotate@CWnd@@MAEHVCPoint@@N@Z
	DD	FLAT:?OnGestureTwoFingerTap@CWnd@@MAEHVCPoint@@@Z
	DD	FLAT:?OnGesturePressAndTap@CWnd@@MAEHVCPoint@@J@Z
	DD	FLAT:?ResizeDynamicLayout@CWnd@@MAEXXZ
	DD	FLAT:?CheckAutoCenter@CWnd@@UAEHXZ
	DD	FLAT:?IsFrameWnd@CWnd@@UBEHXZ
	DD	FLAT:?CreateControlContainer@CWnd@@MAEHPAPAVCOleControlContainer@@@Z
	DD	FLAT:?CreateControlSite@CWnd@@MAEHPAVCOleControlContainer@@PAPAVCOleControlSite@@IABU_GUID@@@Z
	DD	FLAT:?SetOccDialogInfo@CWnd@@MAEHPAU_AFX_OCC_DIALOG_INFO@@@Z
	DD	FLAT:?GetOccDialogInfo@CWnd@@MAEPAU_AFX_OCC_DIALOG_INFO@@XZ
CONST	ENDS
;	COMDAT ??_C@_00CNPNBAHC@@
CONST	SEGMENT
??_C@_00CNPNBAHC@@ DB 00H				; `string'
CONST	ENDS
;	COMDAT xdata$x
xdata$x	SEGMENT
__unwindtable$??_GCLoaderMaskEdit@@UAEPAXI@Z DD 0ffffffffH
	DD	FLAT:___std_terminate
__ehfuncinfo$??_GCLoaderMaskEdit@@UAEPAXI@Z DD 019930522H
	DD	01H
	DD	FLAT:__unwindtable$??_GCLoaderMaskEdit@@UAEPAXI@Z
	DD	2 DUP(00H)
	DD	2 DUP(00H)
	DD	00H
	DD	05H
xdata$x	ENDS
;	COMDAT xdata$x
xdata$x	SEGMENT
__ehfuncinfo$??1CLoaderMaskEdit@@UAE@XZ DD 019930522H
	DD	00H
	DD	00H
	DD	2 DUP(00H)
	DD	2 DUP(00H)
	DD	00H
	DD	05H
xdata$x	ENDS
;	COMDAT xdata$x
xdata$x	SEGMENT
__ehfuncinfo$??0CLoaderMaskEdit@@QAE@PAXH@Z DD 019930522H
	DD	05H
	DD	FLAT:__unwindtable$??0CLoaderMaskEdit@@QAE@PAXH@Z
	DD	2 DUP(00H)
	DD	2 DUP(00H)
	DD	00H
	DD	01H
__unwindtable$??0CLoaderMaskEdit@@QAE@PAXH@Z DD 0ffffffffH
	DD	FLAT:__unwindfunclet$??0CLoaderMaskEdit@@QAE@PAXH@Z$0
	DD	00H
	DD	FLAT:__unwindfunclet$??0CLoaderMaskEdit@@QAE@PAXH@Z$1
	DD	01H
	DD	FLAT:__unwindfunclet$??0CLoaderMaskEdit@@QAE@PAXH@Z$2
	DD	02H
	DD	FLAT:__unwindfunclet$??0CLoaderMaskEdit@@QAE@PAXH@Z$3
	DD	02H
	DD	FLAT:__unwindfunclet$??0CLoaderMaskEdit@@QAE@PAXH@Z$4
xdata$x	ENDS
;	COMDAT xdata$x
xdata$x	SEGMENT
__unwindtable$?GetDir_DrfnBin@@YAXAAV?$CStringT@DV?$StrTraitMFC_DLL@DV?$ChTraitsCRT@D@ATL@@@@@ATL@@@Z DD 0ffffffffH
	DD	FLAT:__unwindfunclet$?GetDir_DrfnBin@@YAXAAV?$CStringT@DV?$StrTraitMFC_DLL@DV?$ChTraitsCRT@D@ATL@@@@@ATL@@@Z$0
	DD	00H
	DD	FLAT:__unwindfunclet$?GetDir_DrfnBin@@YAXAAV?$CStringT@DV?$StrTraitMFC_DLL@DV?$ChTraitsCRT@D@ATL@@@@@ATL@@@Z$1
	DD	00H
	DD	FLAT:__unwindfunclet$?GetDir_DrfnBin@@YAXAAV?$CStringT@DV?$StrTraitMFC_DLL@DV?$ChTraitsCRT@D@ATL@@@@@ATL@@@Z$2
__ehfuncinfo$?GetDir_DrfnBin@@YAXAAV?$CStringT@DV?$StrTraitMFC_DLL@DV?$ChTraitsCRT@D@ATL@@@@@ATL@@@Z DD 019930522H
	DD	03H
	DD	FLAT:__unwindtable$?GetDir_DrfnBin@@YAXAAV?$CStringT@DV?$StrTraitMFC_DLL@DV?$ChTraitsCRT@D@ATL@@@@@ATL@@@Z
	DD	2 DUP(00H)
	DD	2 DUP(00H)
	DD	00H
	DD	01H
xdata$x	ENDS
;	COMDAT xdata$x
xdata$x	SEGMENT
__unwindtable$?GetDir_DrfnRoot@@YAXAAV?$CStringT@DV?$StrTraitMFC_DLL@DV?$ChTraitsCRT@D@ATL@@@@@ATL@@@Z DD 0ffffffffH
	DD	FLAT:__unwindfunclet$?GetDir_DrfnRoot@@YAXAAV?$CStringT@DV?$StrTraitMFC_DLL@DV?$ChTraitsCRT@D@ATL@@@@@ATL@@@Z$0
	DD	00H
	DD	FLAT:__unwindfunclet$?GetDir_DrfnRoot@@YAXAAV?$CStringT@DV?$StrTraitMFC_DLL@DV?$ChTraitsCRT@D@ATL@@@@@ATL@@@Z$1
	DD	00H
	DD	FLAT:__unwindfunclet$?GetDir_DrfnRoot@@YAXAAV?$CStringT@DV?$StrTraitMFC_DLL@DV?$ChTraitsCRT@D@ATL@@@@@ATL@@@Z$2
__ehfuncinfo$?GetDir_DrfnRoot@@YAXAAV?$CStringT@DV?$StrTraitMFC_DLL@DV?$ChTraitsCRT@D@ATL@@@@@ATL@@@Z DD 019930522H
	DD	03H
	DD	FLAT:__unwindtable$?GetDir_DrfnRoot@@YAXAAV?$CStringT@DV?$StrTraitMFC_DLL@DV?$ChTraitsCRT@D@ATL@@@@@ATL@@@Z
	DD	2 DUP(00H)
	DD	2 DUP(00H)
	DD	00H
	DD	01H
xdata$x	ENDS
;	COMDAT xdata$x
xdata$x	SEGMENT
__unwindtable$??0CExMaskEdit@@QAE@H@Z DD 0ffffffffH
	DD	FLAT:__unwindfunclet$??0CExMaskEdit@@QAE@H@Z$0
	DD	00H
	DD	FLAT:__unwindfunclet$??0CExMaskEdit@@QAE@H@Z$1
__ehfuncinfo$??0CExMaskEdit@@QAE@H@Z DD 019930522H
	DD	02H
	DD	FLAT:__unwindtable$??0CExMaskEdit@@QAE@H@Z
	DD	2 DUP(00H)
	DD	2 DUP(00H)
	DD	00H
	DD	01H
xdata$x	ENDS
; Function compile flags: /Ogtp
; File D:\git\src\IBK\IBK_DRFN\ProjSrc\SrcDrfn\Chart\ExControl\Include\LoadHelper.h
; File D:\git\src\IBK\IBK_DRFN\ProjSrc\SrcDrfn\Chart\ExControl\Include\BaseLoadHelper.h
;	COMDAT ??_GCLoaderMaskEdit@@UAEPAXI@Z
_TEXT	SEGMENT
__$EHRec$ = -12						; size = 12
___flags$ = 8						; size = 4
??_GCLoaderMaskEdit@@UAEPAXI@Z PROC			; CLoaderMaskEdit::`scalar deleting destructor', COMDAT
; _this$ = ecx
  00000	55		 push	 ebp
  00001	8b ec		 mov	 ebp, esp
  00003	6a ff		 push	 -1
  00005	68 00 00 00 00	 push	 __ehhandler$??_GCLoaderMaskEdit@@UAEPAXI@Z
  0000a	64 a1 00 00 00
	00		 mov	 eax, DWORD PTR fs:0
  00010	50		 push	 eax
  00011	56		 push	 esi
  00012	a1 00 00 00 00	 mov	 eax, DWORD PTR ___security_cookie
  00017	33 c5		 xor	 eax, ebp
  00019	50		 push	 eax
  0001a	8d 45 f4	 lea	 eax, DWORD PTR __$EHRec$[ebp]
  0001d	64 a3 00 00 00
	00		 mov	 DWORD PTR fs:0, eax
  00023	8b f1		 mov	 esi, ecx
; File D:\git\src\IBK\IBK_DRFN\ProjSrc\SrcDrfn\Chart\ExControl\Include\LoadHelper.h

; 1148 : 		if(m_hLib)

  00025	8b 46 04	 mov	 eax, DWORD PTR [esi+4]
  00028	c7 45 fc 00 00
	00 00		 mov	 DWORD PTR __$EHRec$[ebp+8], 0
  0002f	c7 06 00 00 00
	00		 mov	 DWORD PTR [esi], OFFSET ??_7CLoaderMaskEdit@@6B@
  00035	85 c0		 test	 eax, eax
  00037	74 14		 je	 SHORT $LN5@scalar

; 1149 : 			pExitEditMask(m_lpPointer);

  00039	ff b6 0c 01 00
	00		 push	 DWORD PTR [esi+268]
  0003f	8b 86 1c 01 00
	00		 mov	 eax, DWORD PTR [esi+284]
  00045	ff d0		 call	 eax
  00047	8b 46 04	 mov	 eax, DWORD PTR [esi+4]
  0004a	83 c4 04	 add	 esp, 4
$LN5@scalar:
; File D:\git\src\IBK\IBK_DRFN\ProjSrc\SrcDrfn\Chart\ExControl\Include\BaseLoadHelper.h

; 13   : 	{

  0004d	c7 06 00 00 00
	00		 mov	 DWORD PTR [esi], OFFSET ??_7CExLoadLib@@6B@

; 53   : 		if(!m_hLib)

  00053	85 c0		 test	 eax, eax
  00055	74 0e		 je	 SHORT $LN10@scalar

; 54   : 			return TRUE;
; 55   : 
; 56   : 		BOOL bResult = ::FreeLibrary(m_hLib);

  00057	50		 push	 eax
  00058	ff 15 00 00 00
	00		 call	 DWORD PTR __imp__FreeLibrary@4

; 57   : 		
; 58   : 		m_hLib = NULL;

  0005e	c7 46 04 00 00
	00 00		 mov	 DWORD PTR [esi+4], 0
$LN10@scalar:
  00065	f6 45 08 01	 test	 BYTE PTR ___flags$[ebp], 1
  00069	74 0e		 je	 SHORT $LN13@scalar
  0006b	68 a0 01 00 00	 push	 416			; 000001a0H
  00070	56		 push	 esi
  00071	e8 00 00 00 00	 call	 ??3@YAXPAXI@Z		; operator delete
  00076	83 c4 08	 add	 esp, 8
$LN13@scalar:
  00079	8b c6		 mov	 eax, esi
  0007b	8b 4d f4	 mov	 ecx, DWORD PTR __$EHRec$[ebp]
  0007e	64 89 0d 00 00
	00 00		 mov	 DWORD PTR fs:0, ecx
  00085	59		 pop	 ecx
  00086	5e		 pop	 esi
  00087	8b e5		 mov	 esp, ebp
  00089	5d		 pop	 ebp
  0008a	c2 04 00	 ret	 4
  0008d	cc		 int	 3
  0008e	cc		 int	 3
  0008f	cc		 int	 3
  00090	cc		 int	 3
  00091	cc		 int	 3
_TEXT	ENDS
;	COMDAT text$x
text$x	SEGMENT
__ehhandler$??_GCLoaderMaskEdit@@UAEPAXI@Z:
  00000	90		 npad	 1
  00001	90		 npad	 1
  00002	8b 54 24 08	 mov	 edx, DWORD PTR [esp+8]
  00006	8d 42 0c	 lea	 eax, DWORD PTR [edx+12]
  00009	8b 4a f8	 mov	 ecx, DWORD PTR [edx-8]
  0000c	33 c8		 xor	 ecx, eax
  0000e	e8 00 00 00 00	 call	 @__security_check_cookie@4
  00013	b8 00 00 00 00	 mov	 eax, OFFSET __ehfuncinfo$??_GCLoaderMaskEdit@@UAEPAXI@Z
  00018	e9 00 00 00 00	 jmp	 ___CxxFrameHandler3
text$x	ENDS
??_GCLoaderMaskEdit@@UAEPAXI@Z ENDP			; CLoaderMaskEdit::`scalar deleting destructor'
; Function compile flags: /Ogtp
; File D:\git\src\IBK\IBK_DRFN\ProjSrc\SrcDrfn\Chart\ExControl\Include\LoadHelper.h
;	COMDAT ?LoadProcAddress@CLoaderMaskEdit@@UAEHXZ
_TEXT	SEGMENT
?LoadProcAddress@CLoaderMaskEdit@@UAEHXZ PROC		; CLoaderMaskEdit::LoadProcAddress, COMDAT
; _this$ = ecx

; 1153 : 	{

  00000	57		 push	 edi
  00001	8b f9		 mov	 edi, ecx

; 1154 : 		if(!m_hLib)

  00003	8b 47 04	 mov	 eax, DWORD PTR [edi+4]
  00006	85 c0		 test	 eax, eax
  00008	75 02		 jne	 SHORT $LN2@LoadProcAd
  0000a	5f		 pop	 edi

; 1198 : 	}

  0000b	c3		 ret	 0
$LN2@LoadProcAd:
  0000c	56		 push	 esi

; 1155 : 		{
; 1156 : 			TRACE0("CLoaderMaskEdit GetProcAddress Load ");
; 1157 : 			return FALSE;
; 1158 : 		}
; 1159 : 
; 1160 : 		pActionControl	= (FpActionControl)::GetProcAddress(m_hLib, "Ex_ActionControl");

  0000d	8b 35 00 00 00
	00		 mov	 esi, DWORD PTR __imp__GetProcAddress@8
  00013	68 00 00 00 00	 push	 OFFSET ??_C@_0BB@JBDOCKKP@Ex_ActionControl@
  00018	50		 push	 eax
  00019	ff d6		 call	 esi

; 1161 : 		pInitEditMask	= (FpInitEditMask)::GetProcAddress(m_hLib, "Ex_InitEditMask");

  0001b	68 00 00 00 00	 push	 OFFSET ??_C@_0BA@GNBHJJBP@Ex_InitEditMask@
  00020	ff 77 04	 push	 DWORD PTR [edi+4]
  00023	89 87 10 01 00
	00		 mov	 DWORD PTR [edi+272], eax
  00029	ff d6		 call	 esi

; 1162 : 		pInitEditMask2	= (FpInitEditMask2)::GetProcAddress(m_hLib, "Ex_InitEditMask2");

  0002b	68 00 00 00 00	 push	 OFFSET ??_C@_0BB@GABFEOBN@Ex_InitEditMask2@
  00030	ff 77 04	 push	 DWORD PTR [edi+4]
  00033	89 87 14 01 00
	00		 mov	 DWORD PTR [edi+276], eax
  00039	ff d6		 call	 esi

; 1163 : 		pExitEditMask	= (FpExitEditMask)::GetProcAddress(m_hLib, "Ex_ExitEditMask");

  0003b	68 00 00 00 00	 push	 OFFSET ??_C@_0BA@BEIIGIPI@Ex_ExitEditMask@
  00040	ff 77 04	 push	 DWORD PTR [edi+4]
  00043	89 87 18 01 00
	00		 mov	 DWORD PTR [edi+280], eax
  00049	ff d6		 call	 esi

; 1164 : 		pSetEditMask	= (FpSetEditMask)::GetProcAddress(m_hLib, "Ex_SetEditMask");

  0004b	68 00 00 00 00	 push	 OFFSET ??_C@_0P@OCGCHKO@Ex_SetEditMask@
  00050	ff 77 04	 push	 DWORD PTR [edi+4]
  00053	89 87 1c 01 00
	00		 mov	 DWORD PTR [edi+284], eax
  00059	ff d6		 call	 esi

; 1165 : 		pSetPromptChar	= (FpSetPromptChar)::GetProcAddress(m_hLib, "Ex_SetPromptChar");

  0005b	68 00 00 00 00	 push	 OFFSET ??_C@_0BB@NFGBKDH@Ex_SetPromptChar@
  00060	ff 77 04	 push	 DWORD PTR [edi+4]
  00063	89 87 20 01 00
	00		 mov	 DWORD PTR [edi+288], eax
  00069	ff d6		 call	 esi

; 1166 : 		pCanOverType	= (FpCanOverType)::GetProcAddress(m_hLib, "Ex_CanOverType");

  0006b	68 00 00 00 00	 push	 OFFSET ??_C@_0P@FMLKIEAE@Ex_CanOverType@
  00070	ff 77 04	 push	 DWORD PTR [edi+4]
  00073	89 87 24 01 00
	00		 mov	 DWORD PTR [edi+292], eax
  00079	ff d6		 call	 esi

; 1167 : 		pCanUseMask	= (FpCanUseMask)::GetProcAddress(m_hLib, "Ex_CanUseMask");

  0007b	68 00 00 00 00	 push	 OFFSET ??_C@_0O@MLFAPOKA@Ex_CanUseMask@
  00080	ff 77 04	 push	 DWORD PTR [edi+4]
  00083	89 87 28 01 00
	00		 mov	 DWORD PTR [edi+296], eax
  00089	ff d6		 call	 esi

; 1168 : 		pIsModified	= (FpIsModified)::GetProcAddress(m_hLib, "Ex_IsModified");

  0008b	68 00 00 00 00	 push	 OFFSET ??_C@_0O@JMPIJBOO@Ex_IsModified@
  00090	ff 77 04	 push	 DWORD PTR [edi+4]
  00093	89 87 2c 01 00
	00		 mov	 DWORD PTR [edi+300], eax
  00099	ff d6		 call	 esi

; 1169 : 		pPosInRange	= (FpPosInRange)::GetProcAddress(m_hLib, "Ex_PosInRange");

  0009b	68 00 00 00 00	 push	 OFFSET ??_C@_0O@FCJONDPB@Ex_PosInRange@
  000a0	ff 77 04	 push	 DWORD PTR [edi+4]
  000a3	89 87 30 01 00
	00		 mov	 DWORD PTR [edi+304], eax
  000a9	ff d6		 call	 esi

; 1170 : 		pGetPromptChar	= (FpGetPromptChar)::GetProcAddress(m_hLib, "Ex_GetPromptChar");

  000ab	68 00 00 00 00	 push	 OFFSET ??_C@_0BB@HCEIKJEA@Ex_GetPromptChar@
  000b0	ff 77 04	 push	 DWORD PTR [edi+4]
  000b3	89 87 34 01 00
	00		 mov	 DWORD PTR [edi+308], eax
  000b9	ff d6		 call	 esi

; 1171 : 		pMaskClear	= (FpMaskClear)::GetProcAddress(m_hLib, "Ex_MaskClear");

  000bb	68 00 00 00 00	 push	 OFFSET ??_C@_0N@JPPBINGK@Ex_MaskClear@
  000c0	ff 77 04	 push	 DWORD PTR [edi+4]
  000c3	89 87 38 01 00
	00		 mov	 DWORD PTR [edi+312], eax
  000c9	ff d6		 call	 esi

; 1172 : 		pMaskCopy	= (FpMaskCopy)::GetProcAddress(m_hLib, "Ex_MaskCopy");

  000cb	68 00 00 00 00	 push	 OFFSET ??_C@_0M@HKCBIJHK@Ex_MaskCopy@
  000d0	ff 77 04	 push	 DWORD PTR [edi+4]
  000d3	89 87 3c 01 00
	00		 mov	 DWORD PTR [edi+316], eax
  000d9	ff d6		 call	 esi

; 1173 : 		pMaskCut	= (FpMaskCut)::GetProcAddress(m_hLib, "Ex_MaskCut");

  000db	68 00 00 00 00	 push	 OFFSET ??_C@_0L@BHNHPILB@Ex_MaskCut@
  000e0	ff 77 04	 push	 DWORD PTR [edi+4]
  000e3	89 87 40 01 00
	00		 mov	 DWORD PTR [edi+320], eax
  000e9	ff d6		 call	 esi

; 1174 : 		pMaskPaste	= (FpMaskPaste)::GetProcAddress(m_hLib, "Ex_MaskPaste");

  000eb	68 00 00 00 00	 push	 OFFSET ??_C@_0N@IIDPNEKA@Ex_MaskPaste@
  000f0	ff 77 04	 push	 DWORD PTR [edi+4]
  000f3	89 87 44 01 00
	00		 mov	 DWORD PTR [edi+324], eax
  000f9	ff d6		 call	 esi

; 1175 : 		pMaskSelectAll	= (FpMaskSelectAll)::GetProcAddress(m_hLib, "Ex_MaskSelectAll");

  000fb	68 00 00 00 00	 push	 OFFSET ??_C@_0BB@NPJJHHJA@Ex_MaskSelectAll@
  00100	ff 77 04	 push	 DWORD PTR [edi+4]
  00103	89 87 48 01 00
	00		 mov	 DWORD PTR [edi+328], eax
  00109	ff d6		 call	 esi

; 1176 : 		pMaskUndo	= (FpMaskUndo)::GetProcAddress(m_hLib, "Ex_MaskUndo");

  0010b	68 00 00 00 00	 push	 OFFSET ??_C@_0M@CKIKDCEG@Ex_MaskUndo@
  00110	ff 77 04	 push	 DWORD PTR [edi+4]
  00113	89 87 4c 01 00
	00		 mov	 DWORD PTR [edi+332], eax
  00119	ff d6		 call	 esi

; 1177 : 		pSetOverType	= (FpSetOverType)::GetProcAddress(m_hLib, "Ex_SetOverType");

  0011b	68 00 00 00 00	 push	 OFFSET ??_C@_0P@NAPHALFL@Ex_SetOverType@
  00120	ff 77 04	 push	 DWORD PTR [edi+4]
  00123	89 87 50 01 00
	00		 mov	 DWORD PTR [edi+336], eax
  00129	ff d6		 call	 esi

; 1178 : 		pSetUseMask	= (FpSetUseMask)::GetProcAddress(m_hLib, "Ex_SetUseMask");

  0012b	68 00 00 00 00	 push	 OFFSET ??_C@_0O@FFKDFCPO@Ex_SetUseMask@
  00130	ff 77 04	 push	 DWORD PTR [edi+4]
  00133	89 87 54 01 00
	00		 mov	 DWORD PTR [edi+340], eax
  00139	ff d6		 call	 esi

; 1179 : 		pCheckChar	= (FpCheckChar)::GetProcAddress(m_hLib, "Ex_CheckChar");

  0013b	68 00 00 00 00	 push	 OFFSET ??_C@_0N@POKEJKBK@Ex_CheckChar@
  00140	ff 77 04	 push	 DWORD PTR [edi+4]
  00143	89 87 58 01 00
	00		 mov	 DWORD PTR [edi+344], eax
  00149	ff d6		 call	 esi

; 1180 : 		pProcessMask	= (FpProcessMask)::GetProcAddress(m_hLib, "Ex_ProcessMask");

  0014b	68 00 00 00 00	 push	 OFFSET ??_C@_0P@MCNBFGIG@Ex_ProcessMask@
  00150	ff 77 04	 push	 DWORD PTR [edi+4]
  00153	89 87 5c 01 00
	00		 mov	 DWORD PTR [edi+348], eax
  00159	ff d6		 call	 esi

; 1181 : 		pPreTranslateMessage	= (FpPreTranslateMessage)::GetProcAddress(m_hLib, "Ex_PreTranslateMessage");

  0015b	68 00 00 00 00	 push	 OFFSET ??_C@_0BH@GJNAJCHK@Ex_PreTranslateMessage@
  00160	ff 77 04	 push	 DWORD PTR [edi+4]
  00163	89 87 60 01 00
	00		 mov	 DWORD PTR [edi+352], eax
  00169	ff d6		 call	 esi

; 1182 : 		pCorrectPosition	= (FpCorrectPosition)::GetProcAddress(m_hLib, "Ex_CorrectPosition");

  0016b	68 00 00 00 00	 push	 OFFSET ??_C@_0BD@DJHOEFHP@Ex_CorrectPosition@
  00170	ff 77 04	 push	 DWORD PTR [edi+4]
  00173	89 87 64 01 00
	00		 mov	 DWORD PTR [edi+356], eax
  00179	ff d6		 call	 esi

; 1183 : 		pDeleteCharAt	= (FpDeleteCharAt)::GetProcAddress(m_hLib, "Ex_DeleteCharAt");

  0017b	68 00 00 00 00	 push	 OFFSET ??_C@_0BA@KEIDGONC@Ex_DeleteCharAt@
  00180	ff 77 04	 push	 DWORD PTR [edi+4]
  00183	89 87 68 01 00
	00		 mov	 DWORD PTR [edi+360], eax
  00189	ff d6		 call	 esi

; 1184 : 		pInsertCharAt	= (FpInsertCharAt)::GetProcAddress(m_hLib, "Ex_InsertCharAt");

  0018b	68 00 00 00 00	 push	 OFFSET ??_C@_0BA@GMDINCJA@Ex_InsertCharAt@
  00190	ff 77 04	 push	 DWORD PTR [edi+4]
  00193	89 87 6c 01 00
	00		 mov	 DWORD PTR [edi+364], eax
  00199	ff d6		 call	 esi

; 1185 : 		pCopyToClipboard	= (FpCopyToClipboard)::GetProcAddress(m_hLib, "Ex_CopyToClipboard");

  0019b	68 00 00 00 00	 push	 OFFSET ??_C@_0BD@FJLAMJFG@Ex_CopyToClipboard@
  001a0	ff 77 04	 push	 DWORD PTR [edi+4]
  001a3	89 87 70 01 00
	00		 mov	 DWORD PTR [edi+368], eax
  001a9	ff d6		 call	 esi

; 1186 : 		pGetMaskedText	= (FpGetMaskedText)::GetProcAddress(m_hLib, "Ex_GetMaskedText");

  001ab	68 00 00 00 00	 push	 OFFSET ??_C@_0BB@EBPLPEB@Ex_GetMaskedText@
  001b0	ff 77 04	 push	 DWORD PTR [edi+4]
  001b3	89 87 74 01 00
	00		 mov	 DWORD PTR [edi+372], eax
  001b9	ff d6		 call	 esi

; 1187 : 		pSelectionMade	= (FpSelectionMade)::GetProcAddress(m_hLib, "Ex_SelectionMade");

  001bb	68 00 00 00 00	 push	 OFFSET ??_C@_0BB@MOGHCEKH@Ex_SelectionMade@
  001c0	ff 77 04	 push	 DWORD PTR [edi+4]
  001c3	89 87 78 01 00
	00		 mov	 DWORD PTR [edi+376], eax
  001c9	ff d6		 call	 esi

; 1188 : 		pOnKeyDown	= (FpOnKeyDown)::GetProcAddress(m_hLib, "Ex_OnKeyDown_MaskEdit");

  001cb	68 00 00 00 00	 push	 OFFSET ??_C@_0BG@JGNACLFB@Ex_OnKeyDown_MaskEdit@
  001d0	ff 77 04	 push	 DWORD PTR [edi+4]
  001d3	89 87 7c 01 00
	00		 mov	 DWORD PTR [edi+380], eax
  001d9	ff d6		 call	 esi

; 1189 : 		pOnChar	= (FpOnChar)::GetProcAddress(m_hLib, "Ex_OnChar_MaskEdit");

  001db	68 00 00 00 00	 push	 OFFSET ??_C@_0BD@JLKDCJKP@Ex_OnChar_MaskEdit@
  001e0	ff 77 04	 push	 DWORD PTR [edi+4]
  001e3	89 87 80 01 00
	00		 mov	 DWORD PTR [edi+384], eax
  001e9	ff d6		 call	 esi

; 1190 : 		pOnLButtonDown	= (FpOnLButtonDown)::GetProcAddress(m_hLib, "Ex_OnLButtonDown_MaskEdit");

  001eb	68 00 00 00 00	 push	 OFFSET ??_C@_0BK@BOICKELO@Ex_OnLButtonDown_MaskEdit@
  001f0	ff 77 04	 push	 DWORD PTR [edi+4]
  001f3	89 87 84 01 00
	00		 mov	 DWORD PTR [edi+388], eax
  001f9	ff d6		 call	 esi

; 1191 : 		pOnSetFocus	= (FpOnSetFocus)::GetProcAddress(m_hLib, "Ex_OnSetFocus_MaskEdit");

  001fb	68 00 00 00 00	 push	 OFFSET ??_C@_0BH@EAIHNKFI@Ex_OnSetFocus_MaskEdit@
  00200	ff 77 04	 push	 DWORD PTR [edi+4]
  00203	89 87 88 01 00
	00		 mov	 DWORD PTR [edi+392], eax
  00209	ff d6		 call	 esi

; 1192 : 		pOnLButtonDblClk	= (FpOnLButtonDblClk)::GetProcAddress(m_hLib, "Ex_OnLButtonDblClk_MaskEdit");

  0020b	68 00 00 00 00	 push	 OFFSET ??_C@_0BM@OECEELFK@Ex_OnLButtonDblClk_MaskEdit@
  00210	ff 77 04	 push	 DWORD PTR [edi+4]
  00213	89 87 8c 01 00
	00		 mov	 DWORD PTR [edi+396], eax
  00219	ff d6		 call	 esi

; 1193 : 		pOnUpdateEditUndo	= (FpOnUpdateEditUndo)::GetProcAddress(m_hLib, "Ex_OnUpdateEditUndo_MaskEdit");

  0021b	68 00 00 00 00	 push	 OFFSET ??_C@_0BN@PGDECGEK@Ex_OnUpdateEditUndo_MaskEdit@
  00220	ff 77 04	 push	 DWORD PTR [edi+4]
  00223	89 87 90 01 00
	00		 mov	 DWORD PTR [edi+400], eax
  00229	ff d6		 call	 esi

; 1194 : 		pOnCommand	= (FpOnCommand)::GetProcAddress(m_hLib, "Ex_OnCommand_MaskEdit");

  0022b	68 00 00 00 00	 push	 OFFSET ??_C@_0BG@KAKHCAAO@Ex_OnCommand_MaskEdit@
  00230	ff 77 04	 push	 DWORD PTR [edi+4]
  00233	89 87 94 01 00
	00		 mov	 DWORD PTR [edi+404], eax
  00239	ff d6		 call	 esi

; 1195 : 		pOnPaintEdit	= (FpOnPaintEdit)::GetProcAddress(m_hLib, "Ex_OnPaintMaskEdit");

  0023b	68 00 00 00 00	 push	 OFFSET ??_C@_0BD@BDLIOCCF@Ex_OnPaintMaskEdit@
  00240	ff 77 04	 push	 DWORD PTR [edi+4]
  00243	89 87 98 01 00
	00		 mov	 DWORD PTR [edi+408], eax
  00249	ff d6		 call	 esi
  0024b	89 87 9c 01 00
	00		 mov	 DWORD PTR [edi+412], eax

; 1196 : 
; 1197 : 		return TRUE;

  00251	b8 01 00 00 00	 mov	 eax, 1
  00256	5e		 pop	 esi
  00257	5f		 pop	 edi

; 1198 : 	}

  00258	c3		 ret	 0
?LoadProcAddress@CLoaderMaskEdit@@UAEHXZ ENDP		; CLoaderMaskEdit::LoadProcAddress
_TEXT	ENDS
; Function compile flags: /Ogtp
; File D:\git\src\IBK\IBK_DRFN\ProjSrc\SrcDrfn\Chart\ExControl\Include\LoadHelper.h
; File D:\git\src\IBK\IBK_DRFN\ProjSrc\SrcDrfn\Chart\ExControl\Include\BaseLoadHelper.h
; File D:\git\src\IBK\IBK_DRFN\ProjSrc\SrcDrfn\Chart\ExControl\Include\LoadHelper.h
;	COMDAT ??1CLoaderMaskEdit@@UAE@XZ
_TEXT	SEGMENT
__$EHRec$ = -12						; size = 12
??1CLoaderMaskEdit@@UAE@XZ PROC				; CLoaderMaskEdit::~CLoaderMaskEdit, COMDAT
; _this$ = ecx

; 1147 : 	{

  00000	55		 push	 ebp
  00001	8b ec		 mov	 ebp, esp
  00003	6a ff		 push	 -1
  00005	68 00 00 00 00	 push	 __ehhandler$??1CLoaderMaskEdit@@UAE@XZ
  0000a	64 a1 00 00 00
	00		 mov	 eax, DWORD PTR fs:0
  00010	50		 push	 eax
  00011	56		 push	 esi
  00012	a1 00 00 00 00	 mov	 eax, DWORD PTR ___security_cookie
  00017	33 c5		 xor	 eax, ebp
  00019	50		 push	 eax
  0001a	8d 45 f4	 lea	 eax, DWORD PTR __$EHRec$[ebp]
  0001d	64 a3 00 00 00
	00		 mov	 DWORD PTR fs:0, eax
  00023	8b f1		 mov	 esi, ecx

; 1148 : 		if(m_hLib)

  00025	8b 46 04	 mov	 eax, DWORD PTR [esi+4]
  00028	c7 06 00 00 00
	00		 mov	 DWORD PTR [esi], OFFSET ??_7CLoaderMaskEdit@@6B@
  0002e	85 c0		 test	 eax, eax
  00030	74 14		 je	 SHORT $LN2@CLoaderMas

; 1149 : 			pExitEditMask(m_lpPointer);

  00032	ff b6 0c 01 00
	00		 push	 DWORD PTR [esi+268]
  00038	8b 86 1c 01 00
	00		 mov	 eax, DWORD PTR [esi+284]
  0003e	ff d0		 call	 eax
  00040	8b 46 04	 mov	 eax, DWORD PTR [esi+4]
  00043	83 c4 04	 add	 esp, 4
$LN2@CLoaderMas:
; File D:\git\src\IBK\IBK_DRFN\ProjSrc\SrcDrfn\Chart\ExControl\Include\BaseLoadHelper.h

; 13   : 	{

  00046	c7 06 00 00 00
	00		 mov	 DWORD PTR [esi], OFFSET ??_7CExLoadLib@@6B@

; 53   : 		if(!m_hLib)

  0004c	85 c0		 test	 eax, eax
  0004e	74 0e		 je	 SHORT $LN6@CLoaderMas

; 54   : 			return TRUE;
; 55   : 
; 56   : 		BOOL bResult = ::FreeLibrary(m_hLib);

  00050	50		 push	 eax
  00051	ff 15 00 00 00
	00		 call	 DWORD PTR __imp__FreeLibrary@4

; 57   : 		
; 58   : 		m_hLib = NULL;

  00057	c7 46 04 00 00
	00 00		 mov	 DWORD PTR [esi+4], 0
$LN6@CLoaderMas:
; File D:\git\src\IBK\IBK_DRFN\ProjSrc\SrcDrfn\Chart\ExControl\Include\LoadHelper.h

; 1150 : 	}

  0005e	8b 4d f4	 mov	 ecx, DWORD PTR __$EHRec$[ebp]
  00061	64 89 0d 00 00
	00 00		 mov	 DWORD PTR fs:0, ecx
  00068	59		 pop	 ecx
  00069	5e		 pop	 esi
  0006a	8b e5		 mov	 esp, ebp
  0006c	5d		 pop	 ebp
  0006d	c3		 ret	 0
  0006e	cc		 int	 3
  0006f	cc		 int	 3
  00070	cc		 int	 3
  00071	cc		 int	 3
  00072	cc		 int	 3
_TEXT	ENDS
;	COMDAT text$x
text$x	SEGMENT
__ehhandler$??1CLoaderMaskEdit@@UAE@XZ:
  00000	90		 npad	 1
  00001	90		 npad	 1
  00002	8b 54 24 08	 mov	 edx, DWORD PTR [esp+8]
  00006	8d 42 0c	 lea	 eax, DWORD PTR [edx+12]
  00009	8b 4a f8	 mov	 ecx, DWORD PTR [edx-8]
  0000c	33 c8		 xor	 ecx, eax
  0000e	e8 00 00 00 00	 call	 @__security_check_cookie@4
  00013	b8 00 00 00 00	 mov	 eax, OFFSET __ehfuncinfo$??1CLoaderMaskEdit@@UAE@XZ
  00018	e9 00 00 00 00	 jmp	 ___CxxFrameHandler3
text$x	ENDS
??1CLoaderMaskEdit@@UAE@XZ ENDP				; CLoaderMaskEdit::~CLoaderMaskEdit
; Function compile flags: /Ogtp
; File D:\git\src\IBK\IBK_DRFN\ProjSrc\SrcDrfn\Chart\ExControl\Include\LoadHelper.h
; File D:\git\src\IBK\IBK_DRFN\ProjSrc\SrcDrfn\Chart\ExControl\Include\BaseLoadHelper.h
; File D:\git\src\IBK\IBK_DRFN\ProjSrc\SrcDrfn\Chart\ExControl\Include\LoadHelper.h
; File D:\git\src\IBK\IBK_DRFN\ProjSrc\SrcDrfn\ForSite\FS_Env.h
; File D:\git\src\IBK\IBK_DRFN\ProjSrc\SrcDrfn\Chart\ExControl\Include\LoadHelper.h
; File D:\git\src\IBK\IBK_DRFN\ProjSrc\SrcDrfn\Chart\ExControl\Include\BaseLoadHelper.h
; File D:\git\src\IBK\IBK_DRFN\ProjSrc\SrcDrfn\Chart\ExControl\Include\LoadHelper.h
; File D:\git\src\IBK\IBK_DRFN\ProjSrc\SrcDrfn\Chart\ExControl\Include\BaseLoadHelper.h
; File D:\git\src\IBK\IBK_DRFN\ProjSrc\SrcDrfn\Chart\ExControl\Include\LoadHelper.h
;	COMDAT ??0CLoaderMaskEdit@@QAE@PAXH@Z
_TEXT	SEGMENT
_this$GSCopy$ = -292					; size = 4
_szDir$ = -288						; size = 4
_hLib$1$ = -284						; size = 4
$T2 = -284						; size = 4
$T3 = -284						; size = 4
_this$ = -284						; size = 4
_err$1$ = -280						; size = 4
__strRoot_$4 = -280					; size = 4
_szMsg$5 = -276						; size = 260
_szBuf$6 = -272						; size = 255
__$ArrayPad$7 = -16					; size = 4
__$EHRec$ = -12						; size = 12
_lpPointer$ = 8						; size = 4
_bUseDefSkin$ = 12					; size = 4
??0CLoaderMaskEdit@@QAE@PAXH@Z PROC			; CLoaderMaskEdit::CLoaderMaskEdit, COMDAT
; _this$ = ecx

; 1083 : 	CLoaderMaskEdit(LPVOID lpPointer, BOOL bUseDefSkin)

  00000	55		 push	 ebp
  00001	8b ec		 mov	 ebp, esp
  00003	6a ff		 push	 -1
  00005	68 00 00 00 00	 push	 __ehhandler$??0CLoaderMaskEdit@@QAE@PAXH@Z
  0000a	64 a1 00 00 00
	00		 mov	 eax, DWORD PTR fs:0
  00010	50		 push	 eax
  00011	81 ec 18 01 00
	00		 sub	 esp, 280		; 00000118H
  00017	a1 00 00 00 00	 mov	 eax, DWORD PTR ___security_cookie
  0001c	33 c5		 xor	 eax, ebp
  0001e	89 45 f0	 mov	 DWORD PTR __$ArrayPad$7[ebp], eax
  00021	53		 push	 ebx
  00022	56		 push	 esi
  00023	57		 push	 edi
  00024	50		 push	 eax
  00025	8d 45 f4	 lea	 eax, DWORD PTR __$EHRec$[ebp]
  00028	64 a3 00 00 00
	00		 mov	 DWORD PTR fs:0, eax
  0002e	8b f1		 mov	 esi, ecx
  00030	89 b5 e4 fe ff
	ff		 mov	 DWORD PTR _this$[ebp], esi
  00036	8b 7d 0c	 mov	 edi, DWORD PTR _bUseDefSkin$[ebp]
  00039	89 b5 dc fe ff
	ff		 mov	 DWORD PTR _this$GSCopy$[ebp], esi
; File D:\git\src\IBK\IBK_DRFN\ProjSrc\SrcDrfn\Chart\ExControl\Include\BaseLoadHelper.h

; 9    : 		m_hLib = NULL;

  0003f	c7 46 04 00 00
	00 00		 mov	 DWORD PTR [esi+4], 0
; File D:\git\src\IBK\IBK_DRFN\ProjSrc\SrcDrfn\Chart\ExControl\Include\LoadHelper.h

; 1094 : 		CString szDir;

  00046	8d 8d e0 fe ff
	ff		 lea	 ecx, DWORD PTR _szDir$[ebp]
  0004c	c7 45 fc 00 00
	00 00		 mov	 DWORD PTR __$EHRec$[ebp+8], 0
  00053	c7 06 00 00 00
	00		 mov	 DWORD PTR [esi], OFFSET ??_7CLoaderMaskEdit@@6B@
  00059	ff 15 00 00 00
	00		 call	 DWORD PTR __imp_??0?$CStringT@DV?$StrTraitMFC_DLL@DV?$ChTraitsCRT@D@ATL@@@@@ATL@@QAE@XZ
; File D:\git\src\IBK\IBK_DRFN\ProjSrc\SrcDrfn\ForSite\FS_Env.h

; 22   : 	CString	_strRoot_;

  0005f	8d 8d e8 fe ff
	ff		 lea	 ecx, DWORD PTR __strRoot_$4[ebp]
  00065	ff 15 00 00 00
	00		 call	 DWORD PTR __imp_??0?$CStringT@DV?$StrTraitMFC_DLL@DV?$ChTraitsCRT@D@ATL@@@@@ATL@@QAE@XZ

; 15   : 	::GetModuleFileName(NULL, szBuf, 255);

  0006b	68 ff 00 00 00	 push	 255			; 000000ffH
  00070	8d 85 f0 fe ff
	ff		 lea	 eax, DWORD PTR _szBuf$6[ebp]

; 22   : 	CString	_strRoot_;

  00076	c6 45 fc 02	 mov	 BYTE PTR __$EHRec$[ebp+8], 2

; 15   : 	::GetModuleFileName(NULL, szBuf, 255);

  0007a	50		 push	 eax
  0007b	6a 00		 push	 0
  0007d	ff 15 00 00 00
	00		 call	 DWORD PTR __imp__GetModuleFileNameA@12

; 16   : 	rString = szBuf;

  00083	8d 85 f0 fe ff
	ff		 lea	 eax, DWORD PTR _szBuf$6[ebp]
  00089	50		 push	 eax
  0008a	8d 8d e8 fe ff
	ff		 lea	 ecx, DWORD PTR __strRoot_$4[ebp]
  00090	ff 15 00 00 00
	00		 call	 DWORD PTR __imp_??4?$CStringT@DV?$StrTraitMFC_DLL@DV?$ChTraitsCRT@D@ATL@@@@@ATL@@QAEAAV01@PBD@Z

; 25   : 	int _loc_ = _strRoot_.ReverseFind('\\');

  00096	6a 5c		 push	 92			; 0000005cH
  00098	8d 8d e8 fe ff
	ff		 lea	 ecx, DWORD PTR __strRoot_$4[ebp]
  0009e	ff 15 00 00 00
	00		 call	 DWORD PTR __imp_?ReverseFind@?$CStringT@DV?$StrTraitMFC_DLL@DV?$ChTraitsCRT@D@ATL@@@@@ATL@@QBEHD@Z

; 26   : 	if( _loc_ > 0)

  000a4	85 c0		 test	 eax, eax
  000a6	7e 35		 jle	 SHORT $LN12@CLoaderMas

; 27   : 		_strRoot_ = _strRoot_.Left(_loc_);

  000a8	50		 push	 eax
  000a9	8d 85 e4 fe ff
	ff		 lea	 eax, DWORD PTR $T3[ebp]
  000af	50		 push	 eax
  000b0	8d 8d e8 fe ff
	ff		 lea	 ecx, DWORD PTR __strRoot_$4[ebp]
  000b6	ff 15 00 00 00
	00		 call	 DWORD PTR __imp_?Left@?$CStringT@DV?$StrTraitMFC_DLL@DV?$ChTraitsCRT@D@ATL@@@@@ATL@@QBE?AV12@H@Z
  000bc	50		 push	 eax
  000bd	8d 8d e8 fe ff
	ff		 lea	 ecx, DWORD PTR __strRoot_$4[ebp]
  000c3	c6 45 fc 03	 mov	 BYTE PTR __$EHRec$[ebp+8], 3
  000c7	ff 15 00 00 00
	00		 call	 DWORD PTR __imp_??4?$CStringT@DV?$StrTraitMFC_DLL@DV?$ChTraitsCRT@D@ATL@@@@@ATL@@QAEAAV01@ABV01@@Z
  000cd	8d 8d e4 fe ff
	ff		 lea	 ecx, DWORD PTR $T3[ebp]
  000d3	c6 45 fc 02	 mov	 BYTE PTR __$EHRec$[ebp+8], 2
  000d7	ff 15 00 00 00
	00		 call	 DWORD PTR __imp_??1?$CStringT@DV?$StrTraitMFC_DLL@DV?$ChTraitsCRT@D@ATL@@@@@ATL@@QAE@XZ
$LN12@CLoaderMas:

; 28   : 	_loc_ = _strRoot_.ReverseFind('\\');

  000dd	6a 5c		 push	 92			; 0000005cH
  000df	8d 8d e8 fe ff
	ff		 lea	 ecx, DWORD PTR __strRoot_$4[ebp]
  000e5	ff 15 00 00 00
	00		 call	 DWORD PTR __imp_?ReverseFind@?$CStringT@DV?$StrTraitMFC_DLL@DV?$ChTraitsCRT@D@ATL@@@@@ATL@@QBEHD@Z

; 29   : 	if( _loc_ > 0)

  000eb	85 c0		 test	 eax, eax
  000ed	7e 35		 jle	 SHORT $LN13@CLoaderMas

; 30   : 		_strRoot_ = _strRoot_.Left(_loc_);

  000ef	50		 push	 eax
  000f0	8d 85 e4 fe ff
	ff		 lea	 eax, DWORD PTR $T2[ebp]
  000f6	50		 push	 eax
  000f7	8d 8d e8 fe ff
	ff		 lea	 ecx, DWORD PTR __strRoot_$4[ebp]
  000fd	ff 15 00 00 00
	00		 call	 DWORD PTR __imp_?Left@?$CStringT@DV?$StrTraitMFC_DLL@DV?$ChTraitsCRT@D@ATL@@@@@ATL@@QBE?AV12@H@Z
  00103	50		 push	 eax
  00104	8d 8d e8 fe ff
	ff		 lea	 ecx, DWORD PTR __strRoot_$4[ebp]
  0010a	c6 45 fc 04	 mov	 BYTE PTR __$EHRec$[ebp+8], 4
  0010e	ff 15 00 00 00
	00		 call	 DWORD PTR __imp_??4?$CStringT@DV?$StrTraitMFC_DLL@DV?$ChTraitsCRT@D@ATL@@@@@ATL@@QAEAAV01@ABV01@@Z
  00114	8d 8d e4 fe ff
	ff		 lea	 ecx, DWORD PTR $T2[ebp]
  0011a	c6 45 fc 02	 mov	 BYTE PTR __$EHRec$[ebp+8], 2
  0011e	ff 15 00 00 00
	00		 call	 DWORD PTR __imp_??1?$CStringT@DV?$StrTraitMFC_DLL@DV?$ChTraitsCRT@D@ATL@@@@@ATL@@QAE@XZ
$LN13@CLoaderMas:

; 31   : 	rString = _strRoot_;

  00124	8d 85 e8 fe ff
	ff		 lea	 eax, DWORD PTR __strRoot_$4[ebp]
  0012a	50		 push	 eax
  0012b	8d 8d e0 fe ff
	ff		 lea	 ecx, DWORD PTR _szDir$[ebp]
  00131	ff 15 00 00 00
	00		 call	 DWORD PTR __imp_??4?$CStringT@DV?$StrTraitMFC_DLL@DV?$ChTraitsCRT@D@ATL@@@@@ATL@@QAEAAV01@ABV01@@Z

; 32   : }

  00137	8d 8d e8 fe ff
	ff		 lea	 ecx, DWORD PTR __strRoot_$4[ebp]
  0013d	c6 45 fc 01	 mov	 BYTE PTR __$EHRec$[ebp+8], 1
  00141	ff 15 00 00 00
	00		 call	 DWORD PTR __imp_??1?$CStringT@DV?$StrTraitMFC_DLL@DV?$ChTraitsCRT@D@ATL@@@@@ATL@@QAE@XZ

; 47   : 	rString += "\\Dev";

  00147	68 00 00 00 00	 push	 OFFSET ??_C@_04OHDBDCPJ@?2Dev@
  0014c	8d 8d e0 fe ff
	ff		 lea	 ecx, DWORD PTR _szDir$[ebp]
  00152	ff 15 00 00 00
	00		 call	 DWORD PTR __imp_??Y?$CStringT@DV?$StrTraitMFC_DLL@DV?$ChTraitsCRT@D@ATL@@@@@ATL@@QAEAAV01@PBD@Z
; File D:\git\src\IBK\IBK_DRFN\ProjSrc\SrcDrfn\Chart\ExControl\Include\LoadHelper.h

; 1096 : 		::sprintf(m_szDllName, "%s\\%s", (LPCSTR)szDir, EDIT_DLL);

  00158	68 00 00 00 00	 push	 OFFSET ??_C@_0L@NKPAHHOE@ExEdit?4dll@
  0015d	ff b5 e0 fe ff
	ff		 push	 DWORD PTR _szDir$[ebp]
  00163	8d 5e 08	 lea	 ebx, DWORD PTR [esi+8]
  00166	68 00 00 00 00	 push	 OFFSET ??_C@_05BMGBEOOC@?$CFs?2?$CFs@
  0016b	53		 push	 ebx
  0016c	e8 00 00 00 00	 call	 _sprintf

; 1097 : 		//<--Solomon-090829..
; 1098 : 
; 1099 : 		m_lpPointer = lpPointer;		//    

  00171	8b 45 08	 mov	 eax, DWORD PTR _lpPointer$[ebp]
  00174	83 c4 10	 add	 esp, 16			; 00000010H
  00177	89 86 0c 01 00
	00		 mov	 DWORD PTR [esi+268], eax

; 1100 : 
; 1101 : 		pActionControl = NULL;

  0017d	c7 86 10 01 00
	00 00 00 00 00	 mov	 DWORD PTR [esi+272], 0

; 1102 : 		pExitEditMask = NULL;

  00187	c7 86 1c 01 00
	00 00 00 00 00	 mov	 DWORD PTR [esi+284], 0
; File D:\git\src\IBK\IBK_DRFN\ProjSrc\SrcDrfn\Chart\ExControl\Include\BaseLoadHelper.h

; 26   : 		hLib = ::LoadLibrary(m_szDllName);

  00191	53		 push	 ebx
; File D:\git\src\IBK\IBK_DRFN\ProjSrc\SrcDrfn\Chart\ExControl\Include\LoadHelper.h

; 1103 : 		pInitEditMask = NULL;

  00192	c7 86 14 01 00
	00 00 00 00 00	 mov	 DWORD PTR [esi+276], 0

; 1104 : 		pInitEditMask2 = NULL;

  0019c	c7 86 18 01 00
	00 00 00 00 00	 mov	 DWORD PTR [esi+280], 0

; 1105 : 		pSetEditMask = NULL;

  001a6	c7 86 20 01 00
	00 00 00 00 00	 mov	 DWORD PTR [esi+288], 0

; 1106 : 		pSetPromptChar = NULL;

  001b0	c7 86 24 01 00
	00 00 00 00 00	 mov	 DWORD PTR [esi+292], 0

; 1107 : 		pCanOverType = NULL;

  001ba	c7 86 28 01 00
	00 00 00 00 00	 mov	 DWORD PTR [esi+296], 0

; 1108 : 		pCanUseMask = NULL;

  001c4	c7 86 2c 01 00
	00 00 00 00 00	 mov	 DWORD PTR [esi+300], 0

; 1109 : 		pIsModified = NULL;

  001ce	c7 86 30 01 00
	00 00 00 00 00	 mov	 DWORD PTR [esi+304], 0

; 1110 : 		pPosInRange = NULL;

  001d8	c7 86 34 01 00
	00 00 00 00 00	 mov	 DWORD PTR [esi+308], 0

; 1111 : 		pGetPromptChar = NULL;

  001e2	c7 86 38 01 00
	00 00 00 00 00	 mov	 DWORD PTR [esi+312], 0

; 1112 : 		pMaskClear = NULL;

  001ec	c7 86 3c 01 00
	00 00 00 00 00	 mov	 DWORD PTR [esi+316], 0

; 1113 : 		pMaskCopy = NULL;

  001f6	c7 86 40 01 00
	00 00 00 00 00	 mov	 DWORD PTR [esi+320], 0

; 1114 : 		pMaskCut = NULL;

  00200	c7 86 44 01 00
	00 00 00 00 00	 mov	 DWORD PTR [esi+324], 0

; 1115 : 		pMaskPaste = NULL;

  0020a	c7 86 48 01 00
	00 00 00 00 00	 mov	 DWORD PTR [esi+328], 0

; 1116 : 		pMaskSelectAll = NULL;

  00214	c7 86 4c 01 00
	00 00 00 00 00	 mov	 DWORD PTR [esi+332], 0

; 1117 : 		pMaskUndo = NULL;

  0021e	c7 86 50 01 00
	00 00 00 00 00	 mov	 DWORD PTR [esi+336], 0

; 1118 : 		pSetOverType = NULL;

  00228	c7 86 54 01 00
	00 00 00 00 00	 mov	 DWORD PTR [esi+340], 0

; 1119 : 		pSetUseMask = NULL;

  00232	c7 86 58 01 00
	00 00 00 00 00	 mov	 DWORD PTR [esi+344], 0

; 1120 : 		pCheckChar = NULL;

  0023c	c7 86 5c 01 00
	00 00 00 00 00	 mov	 DWORD PTR [esi+348], 0

; 1121 : 		pProcessMask = NULL;

  00246	c7 86 60 01 00
	00 00 00 00 00	 mov	 DWORD PTR [esi+352], 0

; 1122 : 		pPreTranslateMessage = NULL;

  00250	c7 86 64 01 00
	00 00 00 00 00	 mov	 DWORD PTR [esi+356], 0

; 1123 : 		pCorrectPosition = NULL;

  0025a	c7 86 68 01 00
	00 00 00 00 00	 mov	 DWORD PTR [esi+360], 0

; 1124 : 		pDeleteCharAt = NULL;

  00264	c7 86 6c 01 00
	00 00 00 00 00	 mov	 DWORD PTR [esi+364], 0

; 1125 : 		pInsertCharAt = NULL;

  0026e	c7 86 70 01 00
	00 00 00 00 00	 mov	 DWORD PTR [esi+368], 0

; 1126 : 		pCopyToClipboard = NULL;

  00278	c7 86 74 01 00
	00 00 00 00 00	 mov	 DWORD PTR [esi+372], 0

; 1127 : 		pGetMaskedText = NULL;

  00282	c7 86 78 01 00
	00 00 00 00 00	 mov	 DWORD PTR [esi+376], 0

; 1128 : 		pSelectionMade = NULL;

  0028c	c7 86 7c 01 00
	00 00 00 00 00	 mov	 DWORD PTR [esi+380], 0

; 1129 : 		pOnKeyDown = NULL;

  00296	c7 86 80 01 00
	00 00 00 00 00	 mov	 DWORD PTR [esi+384], 0

; 1130 : 		pOnChar = NULL;

  002a0	c7 86 84 01 00
	00 00 00 00 00	 mov	 DWORD PTR [esi+388], 0

; 1131 : 		pOnLButtonDown = NULL;

  002aa	c7 86 88 01 00
	00 00 00 00 00	 mov	 DWORD PTR [esi+392], 0

; 1132 : 		pOnSetFocus = NULL;

  002b4	c7 86 8c 01 00
	00 00 00 00 00	 mov	 DWORD PTR [esi+396], 0

; 1133 : 		pOnLButtonDblClk = NULL;

  002be	c7 86 90 01 00
	00 00 00 00 00	 mov	 DWORD PTR [esi+400], 0

; 1134 : 		pOnUpdateEditUndo = NULL;

  002c8	c7 86 94 01 00
	00 00 00 00 00	 mov	 DWORD PTR [esi+404], 0

; 1135 : 		pOnCommand = NULL;

  002d2	c7 86 98 01 00
	00 00 00 00 00	 mov	 DWORD PTR [esi+408], 0

; 1136 : 		pOnPaintEdit = NULL;

  002dc	c7 86 9c 01 00
	00 00 00 00 00	 mov	 DWORD PTR [esi+412], 0
; File D:\git\src\IBK\IBK_DRFN\ProjSrc\SrcDrfn\Chart\ExControl\Include\BaseLoadHelper.h

; 26   : 		hLib = ::LoadLibrary(m_szDllName);

  002e6	ff 15 00 00 00
	00		 call	 DWORD PTR __imp__LoadLibraryA@4
  002ec	89 85 e4 fe ff
	ff		 mov	 DWORD PTR _hLib$1$[ebp], eax

; 27   : 
; 28   : 		DWORD err = GetLastError();

  002f2	ff 15 00 00 00
	00		 call	 DWORD PTR __imp__GetLastError@0
  002f8	89 85 e8 fe ff
	ff		 mov	 DWORD PTR _err$1$[ebp], eax

; 29   : 
; 30   : 		if(!hLib) 

  002fe	8b 85 e4 fe ff
	ff		 mov	 eax, DWORD PTR _hLib$1$[ebp]
  00304	85 c0		 test	 eax, eax
  00306	75 3f		 jne	 SHORT $LN23@CLoaderMas

; 31   : 		{
; 32   : 			char szMsg[MAX_PATH] = {0, };

  00308	68 04 01 00 00	 push	 260			; 00000104H
  0030d	50		 push	 eax
  0030e	8d 85 ec fe ff
	ff		 lea	 eax, DWORD PTR _szMsg$5[ebp]
  00314	50		 push	 eax
  00315	e8 00 00 00 00	 call	 _memset

; 33   : 			::sprintf(szMsg, "DLL[%s] Load  . [%d]", m_szDllName, err);

  0031a	ff b5 e8 fe ff
	ff		 push	 DWORD PTR _err$1$[ebp]
  00320	8d 85 ec fe ff
	ff		 lea	 eax, DWORD PTR _szMsg$5[ebp]
  00326	53		 push	 ebx
  00327	68 00 00 00 00	 push	 OFFSET ??_C@_0CD@INEDAMEN@DLL?$FL?$CFs?$FN?$MA?$LL?5Load?G?R?5?$LM?v?5?$LO?x?$LN?$MA?$LE?O?$LE?Y?4?5?$FL@
  0032c	50		 push	 eax
  0032d	e8 00 00 00 00	 call	 _sprintf
  00332	83 c4 1c	 add	 esp, 28			; 0000001cH

; 34   : 			AfxMessageBox(szMsg);

  00335	8d 85 ec fe ff
	ff		 lea	 eax, DWORD PTR _szMsg$5[ebp]
  0033b	6a 00		 push	 0
  0033d	6a 00		 push	 0
  0033f	50		 push	 eax
  00340	e8 00 00 00 00	 call	 ?AfxMessageBox@@YGHPBDII@Z ; AfxMessageBox

; 35   : 
; 36   : 			return NULL;

  00345	eb 32		 jmp	 SHORT $LN28@CLoaderMas
$LN23@CLoaderMas:

; 37   : 		}
; 38   : 
; 39   : 		m_hLib = hLib;

  00347	89 46 04	 mov	 DWORD PTR [esi+4], eax

; 40   : 
; 41   : 		if(!LoadProcAddress()) 

  0034a	8b ce		 mov	 ecx, esi
  0034c	8b 06		 mov	 eax, DWORD PTR [esi]
  0034e	8b 00		 mov	 eax, DWORD PTR [eax]
  00350	3d 00 00 00 00	 cmp	 eax, OFFSET ?LoadProcAddress@CLoaderMaskEdit@@UAEHXZ ; CLoaderMaskEdit::LoadProcAddress
  00355	75 07		 jne	 SHORT $LN27@CLoaderMas
  00357	e8 00 00 00 00	 call	 ?LoadProcAddress@CLoaderMaskEdit@@UAEHXZ ; CLoaderMaskEdit::LoadProcAddress
  0035c	eb 02		 jmp	 SHORT $LN26@CLoaderMas
$LN27@CLoaderMas:
  0035e	ff d0		 call	 eax
$LN26@CLoaderMas:
  00360	85 c0		 test	 eax, eax
  00362	75 15		 jne	 SHORT $LN28@CLoaderMas

; 53   : 		if(!m_hLib)

  00364	8b 46 04	 mov	 eax, DWORD PTR [esi+4]
  00367	85 c0		 test	 eax, eax
  00369	74 0e		 je	 SHORT $LN28@CLoaderMas

; 54   : 			return TRUE;
; 55   : 
; 56   : 		BOOL bResult = ::FreeLibrary(m_hLib);

  0036b	50		 push	 eax
  0036c	ff 15 00 00 00
	00		 call	 DWORD PTR __imp__FreeLibrary@4

; 57   : 		
; 58   : 		m_hLib = NULL;

  00372	c7 46 04 00 00
	00 00		 mov	 DWORD PTR [esi+4], 0
$LN28@CLoaderMas:
; File D:\git\src\IBK\IBK_DRFN\ProjSrc\SrcDrfn\Chart\ExControl\Include\LoadHelper.h

; 1140 : 		if(bUseDefSkin)

  00379	8b 86 0c 01 00
	00		 mov	 eax, DWORD PTR [esi+268]
  0037f	85 ff		 test	 edi, edi
  00381	74 0f		 je	 SHORT $LN2@CLoaderMas

; 1141 : 			m_lpPointer = pInitEditMask2(m_lpPointer, bUseDefSkin);

  00383	57		 push	 edi
  00384	50		 push	 eax
  00385	8b 86 18 01 00
	00		 mov	 eax, DWORD PTR [esi+280]
  0038b	ff d0		 call	 eax
  0038d	83 c4 08	 add	 esp, 8
  00390	eb 0c		 jmp	 SHORT $LN3@CLoaderMas
$LN2@CLoaderMas:

; 1142 : 		else
; 1143 : 			m_lpPointer = pInitEditMask(m_lpPointer);

  00392	8b 8e 14 01 00
	00		 mov	 ecx, DWORD PTR [esi+276]
  00398	50		 push	 eax
  00399	ff d1		 call	 ecx
  0039b	83 c4 04	 add	 esp, 4
$LN3@CLoaderMas:

; 1144 : 	}

  0039e	8d 8d e0 fe ff
	ff		 lea	 ecx, DWORD PTR _szDir$[ebp]
  003a4	89 86 0c 01 00
	00		 mov	 DWORD PTR [esi+268], eax
  003aa	ff 15 00 00 00
	00		 call	 DWORD PTR __imp_??1?$CStringT@DV?$StrTraitMFC_DLL@DV?$ChTraitsCRT@D@ATL@@@@@ATL@@QAE@XZ
  003b0	8b c6		 mov	 eax, esi
  003b2	8b 4d f4	 mov	 ecx, DWORD PTR __$EHRec$[ebp]
  003b5	64 89 0d 00 00
	00 00		 mov	 DWORD PTR fs:0, ecx
  003bc	59		 pop	 ecx
  003bd	5f		 pop	 edi
  003be	5e		 pop	 esi
  003bf	5b		 pop	 ebx
  003c0	8b 4d f0	 mov	 ecx, DWORD PTR __$ArrayPad$7[ebp]
  003c3	33 cd		 xor	 ecx, ebp
  003c5	e8 00 00 00 00	 call	 @__security_check_cookie@4
  003ca	8b e5		 mov	 esp, ebp
  003cc	5d		 pop	 ebp
  003cd	c2 08 00	 ret	 8
_TEXT	ENDS
;	COMDAT text$x
text$x	SEGMENT
__unwindfunclet$??0CLoaderMaskEdit@@QAE@PAXH@Z$0:
  00000	8b 8d dc fe ff
	ff		 mov	 ecx, DWORD PTR _this$GSCopy$[ebp]
  00006	e9 00 00 00 00	 jmp	 ??1CExLoadLib@@QAE@XZ	; CExLoadLib::~CExLoadLib
__unwindfunclet$??0CLoaderMaskEdit@@QAE@PAXH@Z$1:
  0000b	8d 8d e0 fe ff
	ff		 lea	 ecx, DWORD PTR _szDir$[ebp]
  00011	ff 25 00 00 00
	00		 jmp	 DWORD PTR __imp_??1?$CStringT@DV?$StrTraitMFC_DLL@DV?$ChTraitsCRT@D@ATL@@@@@ATL@@QAE@XZ
__unwindfunclet$??0CLoaderMaskEdit@@QAE@PAXH@Z$2:
  00017	8d 8d e8 fe ff
	ff		 lea	 ecx, DWORD PTR __strRoot_$4[ebp]
  0001d	ff 25 00 00 00
	00		 jmp	 DWORD PTR __imp_??1?$CStringT@DV?$StrTraitMFC_DLL@DV?$ChTraitsCRT@D@ATL@@@@@ATL@@QAE@XZ
__unwindfunclet$??0CLoaderMaskEdit@@QAE@PAXH@Z$3:
  00023	8d 8d e4 fe ff
	ff		 lea	 ecx, DWORD PTR $T3[ebp]
  00029	ff 25 00 00 00
	00		 jmp	 DWORD PTR __imp_??1?$CStringT@DV?$StrTraitMFC_DLL@DV?$ChTraitsCRT@D@ATL@@@@@ATL@@QAE@XZ
__unwindfunclet$??0CLoaderMaskEdit@@QAE@PAXH@Z$4:
  0002f	8d 8d e4 fe ff
	ff		 lea	 ecx, DWORD PTR $T2[ebp]
  00035	ff 25 00 00 00
	00		 jmp	 DWORD PTR __imp_??1?$CStringT@DV?$StrTraitMFC_DLL@DV?$ChTraitsCRT@D@ATL@@@@@ATL@@QAE@XZ
  0003b	cc		 int	 3
  0003c	cc		 int	 3
  0003d	cc		 int	 3
  0003e	cc		 int	 3
  0003f	cc		 int	 3
__ehhandler$??0CLoaderMaskEdit@@QAE@PAXH@Z:
  00040	90		 npad	 1
  00041	90		 npad	 1
  00042	8b 54 24 08	 mov	 edx, DWORD PTR [esp+8]
  00046	8d 42 0c	 lea	 eax, DWORD PTR [edx+12]
  00049	8b 8a d8 fe ff
	ff		 mov	 ecx, DWORD PTR [edx-296]
  0004f	33 c8		 xor	 ecx, eax
  00051	e8 00 00 00 00	 call	 @__security_check_cookie@4
  00056	8b 4a fc	 mov	 ecx, DWORD PTR [edx-4]
  00059	33 c8		 xor	 ecx, eax
  0005b	e8 00 00 00 00	 call	 @__security_check_cookie@4
  00060	b8 00 00 00 00	 mov	 eax, OFFSET __ehfuncinfo$??0CLoaderMaskEdit@@QAE@PAXH@Z
  00065	e9 00 00 00 00	 jmp	 ___CxxFrameHandler3
text$x	ENDS
??0CLoaderMaskEdit@@QAE@PAXH@Z ENDP			; CLoaderMaskEdit::CLoaderMaskEdit
; Function compile flags: /Ogtp
; File D:\git\src\IBK\IBK_DRFN\ProjSrc\SrcDrfn\Chart\ExControl\Include\BaseLoadHelper.h
;	COMDAT ?LoadProcAddress@CExLoadLib@@UAEHXZ
_TEXT	SEGMENT
?LoadProcAddress@CExLoadLib@@UAEHXZ PROC		; CExLoadLib::LoadProcAddress, COMDAT
; _this$ = ecx

; 19   : 		ASSERT(FALSE); 
; 20   : 		return FALSE;

  00000	33 c0		 xor	 eax, eax

; 21   : 	}

  00002	c3		 ret	 0
?LoadProcAddress@CExLoadLib@@UAEHXZ ENDP		; CExLoadLib::LoadProcAddress
_TEXT	ENDS
; Function compile flags: /Ogtp
; File D:\git\src\IBK\IBK_DRFN\ProjSrc\SrcDrfn\Chart\ExControl\Include\BaseLoadHelper.h
;	COMDAT ??1CExLoadLib@@QAE@XZ
_TEXT	SEGMENT
??1CExLoadLib@@QAE@XZ PROC				; CExLoadLib::~CExLoadLib, COMDAT
; _this$ = ecx

; 13   : 	{

  00000	56		 push	 esi
  00001	8b f1		 mov	 esi, ecx

; 53   : 		if(!m_hLib)

  00003	8b 46 04	 mov	 eax, DWORD PTR [esi+4]

; 13   : 	{

  00006	c7 06 00 00 00
	00		 mov	 DWORD PTR [esi], OFFSET ??_7CExLoadLib@@6B@

; 53   : 		if(!m_hLib)

  0000c	85 c0		 test	 eax, eax
  0000e	74 0e		 je	 SHORT $LN3@CExLoadLib

; 54   : 			return TRUE;
; 55   : 
; 56   : 		BOOL bResult = ::FreeLibrary(m_hLib);

  00010	50		 push	 eax
  00011	ff 15 00 00 00
	00		 call	 DWORD PTR __imp__FreeLibrary@4

; 57   : 		
; 58   : 		m_hLib = NULL;

  00017	c7 46 04 00 00
	00 00		 mov	 DWORD PTR [esi+4], 0
$LN3@CExLoadLib:
  0001e	5e		 pop	 esi

; 14   : 		UnLoadLib();
; 15   : 	}

  0001f	c3		 ret	 0
??1CExLoadLib@@QAE@XZ ENDP				; CExLoadLib::~CExLoadLib
_TEXT	ENDS
; Function compile flags: /Ogtp
; File D:\git\src\IBK\IBK_DRFN\ProjSrc\SrcDrfn\Chart\ExControl\ExMaskEdit.cpp
; File C:\Program Files (x86)\Microsoft Visual Studio\2019\Community\VC\Tools\MSVC\14.29.30133\atlmfc\include\afx.inl
;	COMDAT ??_GCExMaskEdit@@UAEPAXI@Z
_TEXT	SEGMENT
___flags$ = 8						; size = 4
??_GCExMaskEdit@@UAEPAXI@Z PROC				; CExMaskEdit::`scalar deleting destructor', COMDAT
; _this$ = ecx
  00000	55		 push	 ebp
  00001	8b ec		 mov	 ebp, esp
; File D:\git\src\IBK\IBK_DRFN\ProjSrc\SrcDrfn\Chart\ExControl\ExMaskEdit.cpp

; 39   : {

  00003	56		 push	 esi
  00004	8b f1		 mov	 esi, ecx

; 40   : 	delete m_pLoader;

  00006	8b 8e 80 00 00
	00		 mov	 ecx, DWORD PTR [esi+128]
  0000c	c7 06 00 00 00
	00		 mov	 DWORD PTR [esi], OFFSET ??_7CExMaskEdit@@6B@
  00012	85 c9		 test	 ecx, ecx
  00014	74 07		 je	 SHORT $LN9@scalar
  00016	8b 01		 mov	 eax, DWORD PTR [ecx]
  00018	6a 01		 push	 1
  0001a	ff 50 04	 call	 DWORD PTR [eax+4]
$LN9@scalar:

; 41   : }

  0001d	8b ce		 mov	 ecx, esi
  0001f	e8 00 00 00 00	 call	 ??1CEdit@@UAE@XZ	; CEdit::~CEdit
  00024	8b 45 08	 mov	 eax, DWORD PTR ___flags$[ebp]
  00027	a8 01		 test	 al, 1
  00029	74 22		 je	 SHORT $LN14@scalar
  0002b	a8 04		 test	 al, 4
  0002d	75 10		 jne	 SHORT $LN3@scalar
; File C:\Program Files (x86)\Microsoft Visual Studio\2019\Community\VC\Tools\MSVC\14.29.30133\atlmfc\include\afx.inl

; 112  : 	{ ::operator delete(p); }

  0002f	56		 push	 esi
  00030	e8 00 00 00 00	 call	 ??3@YAXPAX@Z		; operator delete
  00035	83 c4 04	 add	 esp, 4
  00038	8b c6		 mov	 eax, esi
  0003a	5e		 pop	 esi
  0003b	5d		 pop	 ebp
  0003c	c2 04 00	 ret	 4
$LN3@scalar:
  0003f	68 88 00 00 00	 push	 136			; 00000088H
  00044	56		 push	 esi
  00045	e8 00 00 00 00	 call	 ?__global_delete@@YAXPAXI@Z ; __global_delete
  0004a	83 c4 08	 add	 esp, 8
$LN14@scalar:
  0004d	8b c6		 mov	 eax, esi
  0004f	5e		 pop	 esi
  00050	5d		 pop	 ebp
  00051	c2 04 00	 ret	 4
??_GCExMaskEdit@@UAEPAXI@Z ENDP				; CExMaskEdit::`scalar deleting destructor'
_TEXT	ENDS
; Function compile flags: /Ogtp
; File D:\git\src\IBK\IBK_DRFN\ProjSrc\SrcDrfn\Chart\ExControl\ExMaskEdit.cpp
;	COMDAT ?GetMessageMap@CExMaskEdit@@MBEPBUAFX_MSGMAP@@XZ
_TEXT	SEGMENT
?GetMessageMap@CExMaskEdit@@MBEPBUAFX_MSGMAP@@XZ PROC	; CExMaskEdit::GetMessageMap, COMDAT
; _this$ = ecx

; 17   : BEGIN_MESSAGE_MAP(CExMaskEdit, CEdit)

  00000	b8 00 00 00 00	 mov	 eax, OFFSET ?messageMap@?1??GetThisMessageMap@CExMaskEdit@@KGPBUAFX_MSGMAP@@XZ@4U3@B
  00005	c3		 ret	 0
?GetMessageMap@CExMaskEdit@@MBEPBUAFX_MSGMAP@@XZ ENDP	; CExMaskEdit::GetMessageMap
_TEXT	ENDS
; Function compile flags: /Ogtp
; File D:\git\src\IBK\IBK_DRFN\ProjSrc\SrcDrfn\Chart\ExControl\ExMaskEdit.cpp
;	COMDAT ?GetThisMessageMap@CExMaskEdit@@KGPBUAFX_MSGMAP@@XZ
_TEXT	SEGMENT
?GetThisMessageMap@CExMaskEdit@@KGPBUAFX_MSGMAP@@XZ PROC ; CExMaskEdit::GetThisMessageMap, COMDAT

; 18   : 	//{{AFX_MSG_MAP(CExButton)
; 19   : 	ON_MESSAGE_VOID(WM_CUT, MaskCut)
; 20   : 	ON_MESSAGE_VOID(WM_PASTE, MaskPaste)
; 21   : 	ON_MESSAGE_VOID(WM_CLEAR, MaskClear)
; 22   : 	ON_MESSAGE_VOID(WM_UNDO, MaskUndo)
; 23   : 	ON_MESSAGE_VOID(WM_COPY, MaskCopy)
; 24   : 	ON_WM_KEYDOWN()
; 25   : 	ON_WM_CHAR()
; 26   : 	ON_WM_LBUTTONDOWN()
; 27   : 	ON_WM_SETFOCUS()
; 28   : 	ON_WM_LBUTTONDBLCLK()
; 29   : 	ON_WM_PAINT()
; 30   : 	//}}AFX_MSG_MAP
; 31   : END_MESSAGE_MAP()

  00000	b8 00 00 00 00	 mov	 eax, OFFSET ?messageMap@?1??GetThisMessageMap@CExMaskEdit@@KGPBUAFX_MSGMAP@@XZ@4U3@B
  00005	c3		 ret	 0
?GetThisMessageMap@CExMaskEdit@@KGPBUAFX_MSGMAP@@XZ ENDP ; CExMaskEdit::GetThisMessageMap
_TEXT	ENDS
; Function compile flags: /Ogtp
; File D:\git\src\IBK\IBK_DRFN\ProjSrc\SrcDrfn\Chart\ExControl\ExMaskEdit.cpp
; File D:\git\src\IBK\IBK_DRFN\ProjSrc\SrcDrfn\Chart\ExControl\Include\LoadHelper.h
; File D:\git\src\IBK\IBK_DRFN\ProjSrc\SrcDrfn\Chart\ExControl\ExMaskEdit.cpp
; File D:\git\src\IBK\IBK_DRFN\ProjSrc\SrcDrfn\Chart\ExControl\Include\LoadHelper.h
; File D:\git\src\IBK\IBK_DRFN\ProjSrc\SrcDrfn\Chart\ExControl\ExMaskEdit.cpp
;	COMDAT ?OnCommand@CExMaskEdit@@MAEHIJ@Z
_TEXT	SEGMENT
_wParam$ = 8						; size = 4
_lParam$ = 12						; size = 4
?OnCommand@CExMaskEdit@@MAEHIJ@Z PROC			; CExMaskEdit::OnCommand, COMDAT
; _this$ = ecx

; 212  : {

  00000	55		 push	 ebp
  00001	8b ec		 mov	 ebp, esp

; 213  : 	return m_pLoader->OnCommand(wParam, lParam);

  00003	8b 81 80 00 00
	00		 mov	 eax, DWORD PTR [ecx+128]
; File D:\git\src\IBK\IBK_DRFN\ProjSrc\SrcDrfn\Chart\ExControl\Include\LoadHelper.h

; 1493 : 		if(!m_hLib)

  00009	83 78 04 00	 cmp	 DWORD PTR [eax+4], 0
  0000d	75 06		 jne	 SHORT $LN4@OnCommand
; File D:\git\src\IBK\IBK_DRFN\ProjSrc\SrcDrfn\Chart\ExControl\ExMaskEdit.cpp

; 213  : 	return m_pLoader->OnCommand(wParam, lParam);

  0000f	33 c0		 xor	 eax, eax

; 214  : }

  00011	5d		 pop	 ebp
  00012	c2 08 00	 ret	 8
$LN4@OnCommand:
; File D:\git\src\IBK\IBK_DRFN\ProjSrc\SrcDrfn\Chart\ExControl\Include\LoadHelper.h

; 1496 : 		return pOnCommand(m_lpPointer, wParam, lParam);

  00015	ff 75 0c	 push	 DWORD PTR _lParam$[ebp]
  00018	ff 75 08	 push	 DWORD PTR _wParam$[ebp]
  0001b	ff b0 0c 01 00
	00		 push	 DWORD PTR [eax+268]
  00021	8b 80 98 01 00
	00		 mov	 eax, DWORD PTR [eax+408]
  00027	ff d0		 call	 eax
  00029	83 c4 0c	 add	 esp, 12			; 0000000cH
; File D:\git\src\IBK\IBK_DRFN\ProjSrc\SrcDrfn\Chart\ExControl\ExMaskEdit.cpp

; 214  : }

  0002c	5d		 pop	 ebp
  0002d	c2 08 00	 ret	 8
?OnCommand@CExMaskEdit@@MAEHIJ@Z ENDP			; CExMaskEdit::OnCommand
_TEXT	ENDS
; Function compile flags: /Ogtp
; File D:\git\src\IBK\IBK_DRFN\ProjSrc\SrcDrfn\Chart\ExControl\ExMaskEdit.cpp
; File D:\git\src\IBK\IBK_DRFN\ProjSrc\SrcDrfn\Chart\ExControl\Include\LoadHelper.h
; File D:\git\src\IBK\IBK_DRFN\ProjSrc\SrcDrfn\Chart\ExControl\ExMaskEdit.cpp
;	COMDAT ?OnUpdateEditUndo@CExMaskEdit@@IAEXPAVCCmdUI@@@Z
_TEXT	SEGMENT
_pCmdUI$ = 8						; size = 4
?OnUpdateEditUndo@CExMaskEdit@@IAEXPAVCCmdUI@@@Z PROC	; CExMaskEdit::OnUpdateEditUndo, COMDAT
; _this$ = ecx

; 207  : {

  00000	55		 push	 ebp
  00001	8b ec		 mov	 ebp, esp

; 208  : 	m_pLoader->OnUpdateEditUndo(pCmdUI);

  00003	8b 81 80 00 00
	00		 mov	 eax, DWORD PTR [ecx+128]
; File D:\git\src\IBK\IBK_DRFN\ProjSrc\SrcDrfn\Chart\ExControl\Include\LoadHelper.h

; 1485 : 		if(!m_hLib)

  00009	83 78 04 00	 cmp	 DWORD PTR [eax+4], 0
  0000d	74 14		 je	 SHORT $LN3@OnUpdateEd

; 1486 : 			return;
; 1487 : 
; 1488 : 		pOnUpdateEditUndo(m_lpPointer, pCmdUI);

  0000f	ff 75 08	 push	 DWORD PTR _pCmdUI$[ebp]
  00012	ff b0 0c 01 00
	00		 push	 DWORD PTR [eax+268]
  00018	8b 80 94 01 00
	00		 mov	 eax, DWORD PTR [eax+404]
  0001e	ff d0		 call	 eax
  00020	83 c4 08	 add	 esp, 8
$LN3@OnUpdateEd:
; File D:\git\src\IBK\IBK_DRFN\ProjSrc\SrcDrfn\Chart\ExControl\ExMaskEdit.cpp

; 209  : }

  00023	5d		 pop	 ebp
  00024	c2 04 00	 ret	 4
?OnUpdateEditUndo@CExMaskEdit@@IAEXPAVCCmdUI@@@Z ENDP	; CExMaskEdit::OnUpdateEditUndo
_TEXT	ENDS
; Function compile flags: /Ogtp
; File D:\git\src\IBK\IBK_DRFN\ProjSrc\SrcDrfn\Chart\ExControl\ExMaskEdit.cpp
; File D:\git\src\IBK\IBK_DRFN\ProjSrc\SrcDrfn\Chart\ExControl\Include\LoadHelper.h
; File D:\git\src\IBK\IBK_DRFN\ProjSrc\SrcDrfn\Chart\ExControl\ExMaskEdit.cpp
;	COMDAT ?OnLButtonDblClk@CExMaskEdit@@IAEXIVCPoint@@@Z
_TEXT	SEGMENT
_nFlags$ = 8						; size = 4
_point$ = 12						; size = 8
?OnLButtonDblClk@CExMaskEdit@@IAEXIVCPoint@@@Z PROC	; CExMaskEdit::OnLButtonDblClk, COMDAT
; _this$ = ecx

; 202  : {

  00000	55		 push	 ebp
  00001	8b ec		 mov	 ebp, esp

; 203  : 	m_pLoader->OnLButtonDblClk(nFlags, point);

  00003	8b 81 80 00 00
	00		 mov	 eax, DWORD PTR [ecx+128]
; File D:\git\src\IBK\IBK_DRFN\ProjSrc\SrcDrfn\Chart\ExControl\Include\LoadHelper.h

; 1477 : 		if(!m_hLib)

  00009	83 78 04 00	 cmp	 DWORD PTR [eax+4], 0
  0000d	74 1a		 je	 SHORT $LN3@OnLButtonD

; 1478 : 			return;
; 1479 : 
; 1480 : 		pOnLButtonDblClk(m_lpPointer, nFlags, point);

  0000f	ff 75 10	 push	 DWORD PTR _point$[ebp+4]
  00012	ff 75 0c	 push	 DWORD PTR _point$[ebp]
  00015	ff 75 08	 push	 DWORD PTR _nFlags$[ebp]
  00018	ff b0 0c 01 00
	00		 push	 DWORD PTR [eax+268]
  0001e	8b 80 90 01 00
	00		 mov	 eax, DWORD PTR [eax+400]
  00024	ff d0		 call	 eax
  00026	83 c4 10	 add	 esp, 16			; 00000010H
$LN3@OnLButtonD:
; File D:\git\src\IBK\IBK_DRFN\ProjSrc\SrcDrfn\Chart\ExControl\ExMaskEdit.cpp

; 204  : }

  00029	5d		 pop	 ebp
  0002a	c2 0c 00	 ret	 12			; 0000000cH
?OnLButtonDblClk@CExMaskEdit@@IAEXIVCPoint@@@Z ENDP	; CExMaskEdit::OnLButtonDblClk
_TEXT	ENDS
; Function compile flags: /Ogtp
; File D:\git\src\IBK\IBK_DRFN\ProjSrc\SrcDrfn\Chart\ExControl\ExMaskEdit.cpp
; File D:\git\src\IBK\IBK_DRFN\ProjSrc\SrcDrfn\Chart\ExControl\Include\LoadHelper.h
; File D:\git\src\IBK\IBK_DRFN\ProjSrc\SrcDrfn\Chart\ExControl\ExMaskEdit.cpp
;	COMDAT ?OnSetFocus@CExMaskEdit@@IAEXPAVCWnd@@@Z
_TEXT	SEGMENT
_pOldWnd$ = 8						; size = 4
?OnSetFocus@CExMaskEdit@@IAEXPAVCWnd@@@Z PROC		; CExMaskEdit::OnSetFocus, COMDAT
; _this$ = ecx

; 197  : {

  00000	55		 push	 ebp
  00001	8b ec		 mov	 ebp, esp

; 198  : 	m_pLoader->OnSetFocus(pOldWnd);

  00003	8b 81 80 00 00
	00		 mov	 eax, DWORD PTR [ecx+128]
; File D:\git\src\IBK\IBK_DRFN\ProjSrc\SrcDrfn\Chart\ExControl\Include\LoadHelper.h

; 1469 : 		if(!m_hLib)

  00009	83 78 04 00	 cmp	 DWORD PTR [eax+4], 0
  0000d	74 14		 je	 SHORT $LN3@OnSetFocus

; 1470 : 			return;
; 1471 : 
; 1472 : 		pOnSetFocus(m_lpPointer, pOldWnd);

  0000f	ff 75 08	 push	 DWORD PTR _pOldWnd$[ebp]
  00012	ff b0 0c 01 00
	00		 push	 DWORD PTR [eax+268]
  00018	8b 80 8c 01 00
	00		 mov	 eax, DWORD PTR [eax+396]
  0001e	ff d0		 call	 eax
  00020	83 c4 08	 add	 esp, 8
$LN3@OnSetFocus:
; File D:\git\src\IBK\IBK_DRFN\ProjSrc\SrcDrfn\Chart\ExControl\ExMaskEdit.cpp

; 199  : }

  00023	5d		 pop	 ebp
  00024	c2 04 00	 ret	 4
?OnSetFocus@CExMaskEdit@@IAEXPAVCWnd@@@Z ENDP		; CExMaskEdit::OnSetFocus
_TEXT	ENDS
; Function compile flags: /Ogtp
; File D:\git\src\IBK\IBK_DRFN\ProjSrc\SrcDrfn\Chart\ExControl\ExMaskEdit.cpp
; File D:\git\src\IBK\IBK_DRFN\ProjSrc\SrcDrfn\Chart\ExControl\Include\LoadHelper.h
; File D:\git\src\IBK\IBK_DRFN\ProjSrc\SrcDrfn\Chart\ExControl\ExMaskEdit.cpp
;	COMDAT ?OnLButtonDown@CExMaskEdit@@IAEXIVCPoint@@@Z
_TEXT	SEGMENT
_nFlags$ = 8						; size = 4
_point$ = 12						; size = 8
?OnLButtonDown@CExMaskEdit@@IAEXIVCPoint@@@Z PROC	; CExMaskEdit::OnLButtonDown, COMDAT
; _this$ = ecx

; 192  : {

  00000	55		 push	 ebp
  00001	8b ec		 mov	 ebp, esp

; 193  : 	m_pLoader->OnLButtonDown(nFlags, point);

  00003	8b 81 80 00 00
	00		 mov	 eax, DWORD PTR [ecx+128]
; File D:\git\src\IBK\IBK_DRFN\ProjSrc\SrcDrfn\Chart\ExControl\Include\LoadHelper.h

; 1461 : 		if(!m_hLib)

  00009	83 78 04 00	 cmp	 DWORD PTR [eax+4], 0
  0000d	74 1a		 je	 SHORT $LN3@OnLButtonD

; 1462 : 			return;
; 1463 : 
; 1464 : 		pOnLButtonDown(m_lpPointer, nFlags, point);

  0000f	ff 75 10	 push	 DWORD PTR _point$[ebp+4]
  00012	ff 75 0c	 push	 DWORD PTR _point$[ebp]
  00015	ff 75 08	 push	 DWORD PTR _nFlags$[ebp]
  00018	ff b0 0c 01 00
	00		 push	 DWORD PTR [eax+268]
  0001e	8b 80 88 01 00
	00		 mov	 eax, DWORD PTR [eax+392]
  00024	ff d0		 call	 eax
  00026	83 c4 10	 add	 esp, 16			; 00000010H
$LN3@OnLButtonD:
; File D:\git\src\IBK\IBK_DRFN\ProjSrc\SrcDrfn\Chart\ExControl\ExMaskEdit.cpp

; 194  : }

  00029	5d		 pop	 ebp
  0002a	c2 0c 00	 ret	 12			; 0000000cH
?OnLButtonDown@CExMaskEdit@@IAEXIVCPoint@@@Z ENDP	; CExMaskEdit::OnLButtonDown
_TEXT	ENDS
; Function compile flags: /Ogtp
; File D:\git\src\IBK\IBK_DRFN\ProjSrc\SrcDrfn\Chart\ExControl\ExMaskEdit.cpp
; File D:\git\src\IBK\IBK_DRFN\ProjSrc\SrcDrfn\Chart\ExControl\Include\LoadHelper.h
; File D:\git\src\IBK\IBK_DRFN\ProjSrc\SrcDrfn\Chart\ExControl\ExMaskEdit.cpp
;	COMDAT ?OnChar@CExMaskEdit@@IAEXIII@Z
_TEXT	SEGMENT
_nChar$ = 8						; size = 4
_nRepCnt$ = 12						; size = 4
_nFlags$ = 16						; size = 4
?OnChar@CExMaskEdit@@IAEXIII@Z PROC			; CExMaskEdit::OnChar, COMDAT
; _this$ = ecx

; 187  : {

  00000	55		 push	 ebp
  00001	8b ec		 mov	 ebp, esp

; 188  : 	m_pLoader->OnChar(nChar, nRepCnt, nFlags);

  00003	8b 81 80 00 00
	00		 mov	 eax, DWORD PTR [ecx+128]
; File D:\git\src\IBK\IBK_DRFN\ProjSrc\SrcDrfn\Chart\ExControl\Include\LoadHelper.h

; 1453 : 		if(!m_hLib)

  00009	83 78 04 00	 cmp	 DWORD PTR [eax+4], 0
  0000d	74 1a		 je	 SHORT $LN3@OnChar

; 1454 : 			return;
; 1455 : 
; 1456 : 		pOnChar(m_lpPointer, nChar, nRepCnt, nFlags);

  0000f	ff 75 10	 push	 DWORD PTR _nFlags$[ebp]
  00012	ff 75 0c	 push	 DWORD PTR _nRepCnt$[ebp]
  00015	ff 75 08	 push	 DWORD PTR _nChar$[ebp]
  00018	ff b0 0c 01 00
	00		 push	 DWORD PTR [eax+268]
  0001e	8b 80 84 01 00
	00		 mov	 eax, DWORD PTR [eax+388]
  00024	ff d0		 call	 eax
  00026	83 c4 10	 add	 esp, 16			; 00000010H
$LN3@OnChar:
; File D:\git\src\IBK\IBK_DRFN\ProjSrc\SrcDrfn\Chart\ExControl\ExMaskEdit.cpp

; 189  : }

  00029	5d		 pop	 ebp
  0002a	c2 0c 00	 ret	 12			; 0000000cH
?OnChar@CExMaskEdit@@IAEXIII@Z ENDP			; CExMaskEdit::OnChar
_TEXT	ENDS
; Function compile flags: /Ogtp
; File D:\git\src\IBK\IBK_DRFN\ProjSrc\SrcDrfn\Chart\ExControl\ExMaskEdit.cpp
; File D:\git\src\IBK\IBK_DRFN\ProjSrc\SrcDrfn\Chart\ExControl\Include\LoadHelper.h
; File D:\git\src\IBK\IBK_DRFN\ProjSrc\SrcDrfn\Chart\ExControl\ExMaskEdit.cpp
;	COMDAT ?OnKeyDown@CExMaskEdit@@IAEXIII@Z
_TEXT	SEGMENT
_nChar$ = 8						; size = 4
_nRepCnt$ = 12						; size = 4
_nFlags$ = 16						; size = 4
?OnKeyDown@CExMaskEdit@@IAEXIII@Z PROC			; CExMaskEdit::OnKeyDown, COMDAT
; _this$ = ecx

; 182  : {

  00000	55		 push	 ebp
  00001	8b ec		 mov	 ebp, esp

; 183  : 	m_pLoader->OnKeyDown(nChar, nRepCnt, nFlags);

  00003	8b 81 80 00 00
	00		 mov	 eax, DWORD PTR [ecx+128]
; File D:\git\src\IBK\IBK_DRFN\ProjSrc\SrcDrfn\Chart\ExControl\Include\LoadHelper.h

; 1445 : 		if(!m_hLib)

  00009	83 78 04 00	 cmp	 DWORD PTR [eax+4], 0
  0000d	74 1a		 je	 SHORT $LN3@OnKeyDown

; 1446 : 			return;
; 1447 : 
; 1448 : 		pOnKeyDown(m_lpPointer, nChar, nRepCnt, nFlags);

  0000f	ff 75 10	 push	 DWORD PTR _nFlags$[ebp]
  00012	ff 75 0c	 push	 DWORD PTR _nRepCnt$[ebp]
  00015	ff 75 08	 push	 DWORD PTR _nChar$[ebp]
  00018	ff b0 0c 01 00
	00		 push	 DWORD PTR [eax+268]
  0001e	8b 80 80 01 00
	00		 mov	 eax, DWORD PTR [eax+384]
  00024	ff d0		 call	 eax
  00026	83 c4 10	 add	 esp, 16			; 00000010H
$LN3@OnKeyDown:
; File D:\git\src\IBK\IBK_DRFN\ProjSrc\SrcDrfn\Chart\ExControl\ExMaskEdit.cpp

; 184  : }

  00029	5d		 pop	 ebp
  0002a	c2 0c 00	 ret	 12			; 0000000cH
?OnKeyDown@CExMaskEdit@@IAEXIII@Z ENDP			; CExMaskEdit::OnKeyDown
_TEXT	ENDS
; Function compile flags: /Ogtp
; File D:\git\src\IBK\IBK_DRFN\ProjSrc\SrcDrfn\Chart\ExControl\ExMaskEdit.cpp
; File D:\git\src\IBK\IBK_DRFN\ProjSrc\SrcDrfn\Chart\ExControl\Include\LoadHelper.h
; File D:\git\src\IBK\IBK_DRFN\ProjSrc\SrcDrfn\Chart\ExControl\ExMaskEdit.cpp
;	COMDAT ?OnPaint@CExMaskEdit@@IAEXXZ
_TEXT	SEGMENT
?OnPaint@CExMaskEdit@@IAEXXZ PROC			; CExMaskEdit::OnPaint, COMDAT
; _this$ = ecx

; 217  : {

  00000	56		 push	 esi
  00001	8b f1		 mov	 esi, ecx

; 218  : 	Default();

  00003	e8 00 00 00 00	 call	 ?Default@CWnd@@IAEJXZ	; CWnd::Default

; 219  : 	m_pLoader->OnPaint();

  00008	8b 86 80 00 00
	00		 mov	 eax, DWORD PTR [esi+128]
  0000e	5e		 pop	 esi
; File D:\git\src\IBK\IBK_DRFN\ProjSrc\SrcDrfn\Chart\ExControl\Include\LoadHelper.h

; 1501 : 		if(!m_hLib)

  0000f	83 78 04 00	 cmp	 DWORD PTR [eax+4], 0
  00013	74 0f		 je	 SHORT $LN3@OnPaint

; 1502 : 			return;
; 1503 : 
; 1504 : 		pOnPaintEdit(m_lpPointer);

  00015	ff b0 0c 01 00
	00		 push	 DWORD PTR [eax+268]
  0001b	8b 80 9c 01 00
	00		 mov	 eax, DWORD PTR [eax+412]
  00021	ff d0		 call	 eax
  00023	59		 pop	 ecx
$LN3@OnPaint:
; File D:\git\src\IBK\IBK_DRFN\ProjSrc\SrcDrfn\Chart\ExControl\ExMaskEdit.cpp

; 220  : }

  00024	c3		 ret	 0
?OnPaint@CExMaskEdit@@IAEXXZ ENDP			; CExMaskEdit::OnPaint
_TEXT	ENDS
; Function compile flags: /Ogtp
; File D:\git\src\IBK\IBK_DRFN\ProjSrc\SrcDrfn\Chart\ExControl\ExMaskEdit.cpp
;	COMDAT ??1CExMaskEdit@@UAE@XZ
_TEXT	SEGMENT
??1CExMaskEdit@@UAE@XZ PROC				; CExMaskEdit::~CExMaskEdit, COMDAT
; _this$ = ecx

; 39   : {

  00000	56		 push	 esi
  00001	8b f1		 mov	 esi, ecx

; 40   : 	delete m_pLoader;

  00003	8b 8e 80 00 00
	00		 mov	 ecx, DWORD PTR [esi+128]
  00009	c7 06 00 00 00
	00		 mov	 DWORD PTR [esi], OFFSET ??_7CExMaskEdit@@6B@
  0000f	85 c9		 test	 ecx, ecx
  00011	74 07		 je	 SHORT $LN3@CExMaskEdi
  00013	8b 01		 mov	 eax, DWORD PTR [ecx]
  00015	6a 01		 push	 1
  00017	ff 50 04	 call	 DWORD PTR [eax+4]
$LN3@CExMaskEdi:

; 41   : }

  0001a	8b ce		 mov	 ecx, esi
  0001c	5e		 pop	 esi
  0001d	e9 00 00 00 00	 jmp	 ??1CEdit@@UAE@XZ	; CEdit::~CEdit
??1CExMaskEdit@@UAE@XZ ENDP				; CExMaskEdit::~CExMaskEdit
_TEXT	ENDS
; Function compile flags: /Ogtp
; File D:\git\src\IBK\IBK_DRFN\ProjSrc\SrcDrfn\Chart\ExControl\ExMaskEdit.cpp
; File D:\git\src\IBK\IBK_DRFN\ProjSrc\SrcDrfn\Chart\ExControl\Include\LoadHelper.h
; File D:\git\src\IBK\IBK_DRFN\ProjSrc\SrcDrfn\Chart\ExControl\ExMaskEdit.cpp
; File D:\git\src\IBK\IBK_DRFN\ProjSrc\SrcDrfn\Chart\ExControl\Include\LoadHelper.h
; File D:\git\src\IBK\IBK_DRFN\ProjSrc\SrcDrfn\Chart\ExControl\ExMaskEdit.cpp
;	COMDAT ?SelectionMade@CExMaskEdit@@MAEHXZ
_TEXT	SEGMENT
?SelectionMade@CExMaskEdit@@MAEHXZ PROC			; CExMaskEdit::SelectionMade, COMDAT
; _this$ = ecx

; 178  : 	return m_pLoader->SelectionMade();

  00000	8b 81 80 00 00
	00		 mov	 eax, DWORD PTR [ecx+128]
; File D:\git\src\IBK\IBK_DRFN\ProjSrc\SrcDrfn\Chart\ExControl\Include\LoadHelper.h

; 1437 : 		if(!m_hLib)

  00006	83 78 04 00	 cmp	 DWORD PTR [eax+4], 0
  0000a	75 03		 jne	 SHORT $LN4@SelectionM
; File D:\git\src\IBK\IBK_DRFN\ProjSrc\SrcDrfn\Chart\ExControl\ExMaskEdit.cpp

; 178  : 	return m_pLoader->SelectionMade();

  0000c	33 c0		 xor	 eax, eax

; 179  : }

  0000e	c3		 ret	 0
$LN4@SelectionM:
; File D:\git\src\IBK\IBK_DRFN\ProjSrc\SrcDrfn\Chart\ExControl\Include\LoadHelper.h

; 1440 : 		return pSelectionMade(m_lpPointer);

  0000f	ff b0 0c 01 00
	00		 push	 DWORD PTR [eax+268]
  00015	8b 80 7c 01 00
	00		 mov	 eax, DWORD PTR [eax+380]
  0001b	ff d0		 call	 eax
  0001d	83 c4 04	 add	 esp, 4
; File D:\git\src\IBK\IBK_DRFN\ProjSrc\SrcDrfn\Chart\ExControl\ExMaskEdit.cpp

; 179  : }

  00020	c3		 ret	 0
?SelectionMade@CExMaskEdit@@MAEHXZ ENDP			; CExMaskEdit::SelectionMade
_TEXT	ENDS
; Function compile flags: /Ogtp
; File D:\git\src\IBK\IBK_DRFN\ProjSrc\SrcDrfn\Chart\ExControl\ExMaskEdit.cpp
; File D:\git\src\IBK\IBK_DRFN\ProjSrc\SrcDrfn\Chart\ExControl\Include\LoadHelper.h
; File D:\git\src\IBK\IBK_DRFN\ProjSrc\SrcDrfn\Chart\ExControl\ExMaskEdit.cpp
; File D:\git\src\IBK\IBK_DRFN\ProjSrc\SrcDrfn\Chart\ExControl\Include\LoadHelper.h
; File D:\git\src\IBK\IBK_DRFN\ProjSrc\SrcDrfn\Chart\ExControl\ExMaskEdit.cpp
; File D:\git\src\IBK\IBK_DRFN\ProjSrc\SrcDrfn\Chart\ExControl\Include\LoadHelper.h
; File D:\git\src\IBK\IBK_DRFN\ProjSrc\SrcDrfn\Chart\ExControl\ExMaskEdit.cpp
; File D:\git\src\IBK\IBK_DRFN\ProjSrc\SrcDrfn\Chart\ExControl\Include\LoadHelper.h
; File D:\git\src\IBK\IBK_DRFN\ProjSrc\SrcDrfn\Chart\ExControl\ExMaskEdit.cpp
;	COMDAT ?GetMaskedText@CExMaskEdit@@MAE?AV?$CStringT@DV?$StrTraitMFC_DLL@DV?$ChTraitsCRT@D@ATL@@@@@ATL@@H@Z
_TEXT	SEGMENT
___$ReturnUdt$ = 8					; size = 4
_nPos$ = 12						; size = 4
?GetMaskedText@CExMaskEdit@@MAE?AV?$CStringT@DV?$StrTraitMFC_DLL@DV?$ChTraitsCRT@D@ATL@@@@@ATL@@H@Z PROC ; CExMaskEdit::GetMaskedText, COMDAT
; _this$ = ecx

; 172  : {

  00000	55		 push	 ebp
  00001	8b ec		 mov	 ebp, esp

; 173  : 	return m_pLoader->GetMaskedText(nPos);

  00003	8b 81 80 00 00
	00		 mov	 eax, DWORD PTR [ecx+128]
  00009	56		 push	 esi
; File D:\git\src\IBK\IBK_DRFN\ProjSrc\SrcDrfn\Chart\ExControl\Include\LoadHelper.h

; 1429 : 		if(!m_hLib)

  0000a	83 78 04 00	 cmp	 DWORD PTR [eax+4], 0
  0000e	75 16		 jne	 SHORT $LN6@GetMaskedT
; File D:\git\src\IBK\IBK_DRFN\ProjSrc\SrcDrfn\Chart\ExControl\ExMaskEdit.cpp

; 174  : }

  00010	8b 4d 08	 mov	 ecx, DWORD PTR ___$ReturnUdt$[ebp]
; File D:\git\src\IBK\IBK_DRFN\ProjSrc\SrcDrfn\Chart\ExControl\Include\LoadHelper.h

; 1430 : 			return _T("");

  00013	68 00 00 00 00	 push	 OFFSET ??_C@_00CNPNBAHC@@
; File D:\git\src\IBK\IBK_DRFN\ProjSrc\SrcDrfn\Chart\ExControl\ExMaskEdit.cpp

; 174  : }

  00018	ff 15 00 00 00
	00		 call	 DWORD PTR __imp_??0?$CStringT@DV?$StrTraitMFC_DLL@DV?$ChTraitsCRT@D@ATL@@@@@ATL@@QAE@PBD@Z
  0001e	8b 45 08	 mov	 eax, DWORD PTR ___$ReturnUdt$[ebp]
  00021	5e		 pop	 esi
  00022	5d		 pop	 ebp
  00023	c2 08 00	 ret	 8
$LN6@GetMaskedT:
; File D:\git\src\IBK\IBK_DRFN\ProjSrc\SrcDrfn\Chart\ExControl\Include\LoadHelper.h

; 1432 : 		return pGetMaskedText(m_lpPointer, nPos);

  00026	ff 75 0c	 push	 DWORD PTR _nPos$[ebp]
  00029	ff b0 0c 01 00
	00		 push	 DWORD PTR [eax+268]
  0002f	8b 80 78 01 00
	00		 mov	 eax, DWORD PTR [eax+376]
  00035	ff d0		 call	 eax
; File D:\git\src\IBK\IBK_DRFN\ProjSrc\SrcDrfn\Chart\ExControl\ExMaskEdit.cpp

; 174  : }

  00037	8b 4d 08	 mov	 ecx, DWORD PTR ___$ReturnUdt$[ebp]
; File D:\git\src\IBK\IBK_DRFN\ProjSrc\SrcDrfn\Chart\ExControl\Include\LoadHelper.h

; 1432 : 		return pGetMaskedText(m_lpPointer, nPos);

  0003a	83 c4 08	 add	 esp, 8
  0003d	50		 push	 eax
; File D:\git\src\IBK\IBK_DRFN\ProjSrc\SrcDrfn\Chart\ExControl\ExMaskEdit.cpp

; 174  : }

  0003e	ff 15 00 00 00
	00		 call	 DWORD PTR __imp_??0?$CStringT@DV?$StrTraitMFC_DLL@DV?$ChTraitsCRT@D@ATL@@@@@ATL@@QAE@PBD@Z
  00044	8b 45 08	 mov	 eax, DWORD PTR ___$ReturnUdt$[ebp]
  00047	5e		 pop	 esi
  00048	5d		 pop	 ebp
  00049	c2 08 00	 ret	 8
?GetMaskedText@CExMaskEdit@@MAE?AV?$CStringT@DV?$StrTraitMFC_DLL@DV?$ChTraitsCRT@D@ATL@@@@@ATL@@H@Z ENDP ; CExMaskEdit::GetMaskedText
_TEXT	ENDS
; Function compile flags: /Ogtp
; File D:\git\src\IBK\IBK_DRFN\ProjSrc\SrcDrfn\Chart\ExControl\ExMaskEdit.cpp
; File D:\git\src\IBK\IBK_DRFN\ProjSrc\SrcDrfn\Chart\ExControl\Include\LoadHelper.h
; File D:\git\src\IBK\IBK_DRFN\ProjSrc\SrcDrfn\Chart\ExControl\ExMaskEdit.cpp
; File D:\git\src\IBK\IBK_DRFN\ProjSrc\SrcDrfn\Chart\ExControl\Include\LoadHelper.h
; File D:\git\src\IBK\IBK_DRFN\ProjSrc\SrcDrfn\Chart\ExControl\ExMaskEdit.cpp
;	COMDAT ?CopyToClipboard@CExMaskEdit@@MAEHPBD@Z
_TEXT	SEGMENT
_lpszText$ = 8						; size = 4
?CopyToClipboard@CExMaskEdit@@MAEHPBD@Z PROC		; CExMaskEdit::CopyToClipboard, COMDAT
; _this$ = ecx

; 167  : {

  00000	55		 push	 ebp
  00001	8b ec		 mov	 ebp, esp

; 168  : 	return m_pLoader->CopyToClipboard(lpszText);

  00003	8b 81 80 00 00
	00		 mov	 eax, DWORD PTR [ecx+128]
; File D:\git\src\IBK\IBK_DRFN\ProjSrc\SrcDrfn\Chart\ExControl\Include\LoadHelper.h

; 1421 : 		if(!m_hLib)

  00009	83 78 04 00	 cmp	 DWORD PTR [eax+4], 0
  0000d	75 06		 jne	 SHORT $LN4@CopyToClip
; File D:\git\src\IBK\IBK_DRFN\ProjSrc\SrcDrfn\Chart\ExControl\ExMaskEdit.cpp

; 168  : 	return m_pLoader->CopyToClipboard(lpszText);

  0000f	33 c0		 xor	 eax, eax

; 169  : }

  00011	5d		 pop	 ebp
  00012	c2 04 00	 ret	 4
$LN4@CopyToClip:
; File D:\git\src\IBK\IBK_DRFN\ProjSrc\SrcDrfn\Chart\ExControl\Include\LoadHelper.h

; 1424 : 		return pCopyToClipboard(m_lpPointer, lpszText);

  00015	ff 75 08	 push	 DWORD PTR _lpszText$[ebp]
  00018	ff b0 0c 01 00
	00		 push	 DWORD PTR [eax+268]
  0001e	8b 80 74 01 00
	00		 mov	 eax, DWORD PTR [eax+372]
  00024	ff d0		 call	 eax
  00026	83 c4 08	 add	 esp, 8
; File D:\git\src\IBK\IBK_DRFN\ProjSrc\SrcDrfn\Chart\ExControl\ExMaskEdit.cpp

; 169  : }

  00029	5d		 pop	 ebp
  0002a	c2 04 00	 ret	 4
?CopyToClipboard@CExMaskEdit@@MAEHPBD@Z ENDP		; CExMaskEdit::CopyToClipboard
_TEXT	ENDS
; Function compile flags: /Ogtp
; File D:\git\src\IBK\IBK_DRFN\ProjSrc\SrcDrfn\Chart\ExControl\ExMaskEdit.cpp
; File D:\git\src\IBK\IBK_DRFN\ProjSrc\SrcDrfn\Chart\ExControl\Include\LoadHelper.h
; File D:\git\src\IBK\IBK_DRFN\ProjSrc\SrcDrfn\Chart\ExControl\ExMaskEdit.cpp
;	COMDAT ?InsertCharAt@CExMaskEdit@@MAEXHD@Z
_TEXT	SEGMENT
_nPos$ = 8						; size = 4
_nChar$ = 12						; size = 1
?InsertCharAt@CExMaskEdit@@MAEXHD@Z PROC		; CExMaskEdit::InsertCharAt, COMDAT
; _this$ = ecx

; 162  : {

  00000	55		 push	 ebp
  00001	8b ec		 mov	 ebp, esp

; 163  : 	m_pLoader->InsertCharAt(nPos, nChar);

  00003	8b 81 80 00 00
	00		 mov	 eax, DWORD PTR [ecx+128]
; File D:\git\src\IBK\IBK_DRFN\ProjSrc\SrcDrfn\Chart\ExControl\Include\LoadHelper.h

; 1413 : 		if(!m_hLib)

  00009	83 78 04 00	 cmp	 DWORD PTR [eax+4], 0
  0000d	74 17		 je	 SHORT $LN3@InsertChar

; 1414 : 			return;
; 1415 : 
; 1416 : 		pInsertCharAt(m_lpPointer, nPos, nChar);

  0000f	ff 75 0c	 push	 DWORD PTR _nChar$[ebp]
  00012	ff 75 08	 push	 DWORD PTR _nPos$[ebp]
  00015	ff b0 0c 01 00
	00		 push	 DWORD PTR [eax+268]
  0001b	8b 80 70 01 00
	00		 mov	 eax, DWORD PTR [eax+368]
  00021	ff d0		 call	 eax
  00023	83 c4 0c	 add	 esp, 12			; 0000000cH
$LN3@InsertChar:
; File D:\git\src\IBK\IBK_DRFN\ProjSrc\SrcDrfn\Chart\ExControl\ExMaskEdit.cpp

; 164  : }

  00026	5d		 pop	 ebp
  00027	c2 08 00	 ret	 8
?InsertCharAt@CExMaskEdit@@MAEXHD@Z ENDP		; CExMaskEdit::InsertCharAt
_TEXT	ENDS
; Function compile flags: /Ogtp
; File D:\git\src\IBK\IBK_DRFN\ProjSrc\SrcDrfn\Chart\ExControl\ExMaskEdit.cpp
; File D:\git\src\IBK\IBK_DRFN\ProjSrc\SrcDrfn\Chart\ExControl\Include\LoadHelper.h
; File D:\git\src\IBK\IBK_DRFN\ProjSrc\SrcDrfn\Chart\ExControl\ExMaskEdit.cpp
;	COMDAT ?DeleteCharAt@CExMaskEdit@@MAEXH@Z
_TEXT	SEGMENT
_nPos$ = 8						; size = 4
?DeleteCharAt@CExMaskEdit@@MAEXH@Z PROC			; CExMaskEdit::DeleteCharAt, COMDAT
; _this$ = ecx

; 157  : {

  00000	55		 push	 ebp
  00001	8b ec		 mov	 ebp, esp

; 158  : 	m_pLoader->DeleteCharAt(nPos);

  00003	8b 81 80 00 00
	00		 mov	 eax, DWORD PTR [ecx+128]
; File D:\git\src\IBK\IBK_DRFN\ProjSrc\SrcDrfn\Chart\ExControl\Include\LoadHelper.h

; 1405 : 		if(!m_hLib)

  00009	83 78 04 00	 cmp	 DWORD PTR [eax+4], 0
  0000d	74 14		 je	 SHORT $LN3@DeleteChar

; 1406 : 			return;
; 1407 : 
; 1408 : 		pDeleteCharAt(m_lpPointer, nPos);

  0000f	ff 75 08	 push	 DWORD PTR _nPos$[ebp]
  00012	ff b0 0c 01 00
	00		 push	 DWORD PTR [eax+268]
  00018	8b 80 6c 01 00
	00		 mov	 eax, DWORD PTR [eax+364]
  0001e	ff d0		 call	 eax
  00020	83 c4 08	 add	 esp, 8
$LN3@DeleteChar:
; File D:\git\src\IBK\IBK_DRFN\ProjSrc\SrcDrfn\Chart\ExControl\ExMaskEdit.cpp

; 159  : }

  00023	5d		 pop	 ebp
  00024	c2 04 00	 ret	 4
?DeleteCharAt@CExMaskEdit@@MAEXH@Z ENDP			; CExMaskEdit::DeleteCharAt
_TEXT	ENDS
; Function compile flags: /Ogtp
; File D:\git\src\IBK\IBK_DRFN\ProjSrc\SrcDrfn\Chart\ExControl\ExMaskEdit.cpp
; File D:\git\src\IBK\IBK_DRFN\ProjSrc\SrcDrfn\Chart\ExControl\Include\LoadHelper.h
; File D:\git\src\IBK\IBK_DRFN\ProjSrc\SrcDrfn\Chart\ExControl\ExMaskEdit.cpp
; File D:\git\src\IBK\IBK_DRFN\ProjSrc\SrcDrfn\Chart\ExControl\Include\LoadHelper.h
; File D:\git\src\IBK\IBK_DRFN\ProjSrc\SrcDrfn\Chart\ExControl\ExMaskEdit.cpp
;	COMDAT ?CorrectPosition@CExMaskEdit@@MAEHAAHHH@Z
_TEXT	SEGMENT
_nPos$ = 8						; size = 4
_bForward$ = 12						; size = 4
_bBeep$ = 16						; size = 4
?CorrectPosition@CExMaskEdit@@MAEHAAHHH@Z PROC		; CExMaskEdit::CorrectPosition, COMDAT
; _this$ = ecx

; 152  : {

  00000	55		 push	 ebp
  00001	8b ec		 mov	 ebp, esp

; 153  : 	return m_pLoader->CorrectPosition(nPos, bForward, bBeep);

  00003	8b 81 80 00 00
	00		 mov	 eax, DWORD PTR [ecx+128]
; File D:\git\src\IBK\IBK_DRFN\ProjSrc\SrcDrfn\Chart\ExControl\Include\LoadHelper.h

; 1397 : 		if(!m_hLib)

  00009	83 78 04 00	 cmp	 DWORD PTR [eax+4], 0
  0000d	75 06		 jne	 SHORT $LN4@CorrectPos
; File D:\git\src\IBK\IBK_DRFN\ProjSrc\SrcDrfn\Chart\ExControl\ExMaskEdit.cpp

; 153  : 	return m_pLoader->CorrectPosition(nPos, bForward, bBeep);

  0000f	33 c0		 xor	 eax, eax

; 154  : }

  00011	5d		 pop	 ebp
  00012	c2 0c 00	 ret	 12			; 0000000cH
$LN4@CorrectPos:
; File D:\git\src\IBK\IBK_DRFN\ProjSrc\SrcDrfn\Chart\ExControl\Include\LoadHelper.h

; 1400 : 		return pCorrectPosition(m_lpPointer, nPos, bForward, bBeep);

  00015	ff 75 10	 push	 DWORD PTR _bBeep$[ebp]
  00018	ff 75 0c	 push	 DWORD PTR _bForward$[ebp]
  0001b	ff 75 08	 push	 DWORD PTR _nPos$[ebp]
  0001e	ff b0 0c 01 00
	00		 push	 DWORD PTR [eax+268]
  00024	8b 80 68 01 00
	00		 mov	 eax, DWORD PTR [eax+360]
  0002a	ff d0		 call	 eax
  0002c	83 c4 10	 add	 esp, 16			; 00000010H
; File D:\git\src\IBK\IBK_DRFN\ProjSrc\SrcDrfn\Chart\ExControl\ExMaskEdit.cpp

; 154  : }

  0002f	5d		 pop	 ebp
  00030	c2 0c 00	 ret	 12			; 0000000cH
?CorrectPosition@CExMaskEdit@@MAEHAAHHH@Z ENDP		; CExMaskEdit::CorrectPosition
_TEXT	ENDS
; Function compile flags: /Ogtp
; File D:\git\src\IBK\IBK_DRFN\ProjSrc\SrcDrfn\Chart\ExControl\ExMaskEdit.cpp
;	COMDAT ?PreSubclassWindow@CExMaskEdit@@MAEXXZ
_TEXT	SEGMENT
?PreSubclassWindow@CExMaskEdit@@MAEXXZ PROC		; CExMaskEdit::PreSubclassWindow, COMDAT
; _this$ = ecx

; 223  : {

  00000	56		 push	 esi
  00001	8b f1		 mov	 esi, ecx

; 224  : 	CEdit::PreSubclassWindow();

  00003	e8 00 00 00 00	 call	 ?PreSubclassWindow@CWnd@@UAEXXZ ; CWnd::PreSubclassWindow

; 225  : #ifndef _DEBUG
; 226  : 	SetPermanentHandle(m_hWnd, this);

  00008	56		 push	 esi
  00009	ff 76 20	 push	 DWORD PTR [esi+32]
  0000c	e8 00 00 00 00	 call	 ?SetPermanentHandle@@YAXPAXPAVCObject@@@Z ; SetPermanentHandle
  00011	83 c4 08	 add	 esp, 8
  00014	5e		 pop	 esi

; 227  : #endif
; 228  : }

  00015	c3		 ret	 0
?PreSubclassWindow@CExMaskEdit@@MAEXXZ ENDP		; CExMaskEdit::PreSubclassWindow
_TEXT	ENDS
; Function compile flags: /Ogtp
; File D:\git\src\IBK\IBK_DRFN\ProjSrc\SrcDrfn\Chart\ExControl\ExMaskEdit.cpp
;	COMDAT ?PreTranslateMessage@CExMaskEdit@@UAEHPAUtagMSG@@@Z
_TEXT	SEGMENT
_pMsg$ = 8						; size = 4
?PreTranslateMessage@CExMaskEdit@@UAEHPAUtagMSG@@@Z PROC ; CExMaskEdit::PreTranslateMessage, COMDAT
; _this$ = ecx

; 146  : {

  00000	55		 push	 ebp
  00001	8b ec		 mov	 ebp, esp

; 148  : //	return m_pLoader->PreTranslateMessage(pMsg);
; 149  : }

  00003	5d		 pop	 ebp

; 147  : 	return CEdit::PreTranslateMessage(pMsg);

  00004	e9 00 00 00 00	 jmp	 ?PreTranslateMessage@CWnd@@UAEHPAUtagMSG@@@Z ; CWnd::PreTranslateMessage
?PreTranslateMessage@CExMaskEdit@@UAEHPAUtagMSG@@@Z ENDP ; CExMaskEdit::PreTranslateMessage
_TEXT	ENDS
; Function compile flags: /Ogtp
; File D:\git\src\IBK\IBK_DRFN\ProjSrc\SrcDrfn\Chart\ExControl\ExMaskEdit.cpp
; File D:\git\src\IBK\IBK_DRFN\ProjSrc\SrcDrfn\Chart\ExControl\Include\LoadHelper.h
; File D:\git\src\IBK\IBK_DRFN\ProjSrc\SrcDrfn\Chart\ExControl\ExMaskEdit.cpp
; File D:\git\src\IBK\IBK_DRFN\ProjSrc\SrcDrfn\Chart\ExControl\Include\LoadHelper.h
; File D:\git\src\IBK\IBK_DRFN\ProjSrc\SrcDrfn\Chart\ExControl\ExMaskEdit.cpp
;	COMDAT ?ProcessMask@CExMaskEdit@@UAEHAAIH@Z
_TEXT	SEGMENT
_nChar$ = 8						; size = 4
_nEndPos$ = 12						; size = 4
?ProcessMask@CExMaskEdit@@UAEHAAIH@Z PROC		; CExMaskEdit::ProcessMask, COMDAT
; _this$ = ecx

; 141  : {

  00000	55		 push	 ebp
  00001	8b ec		 mov	 ebp, esp

; 142  : 	return m_pLoader->ProcessMask(nChar, nEndPos);

  00003	8b 81 80 00 00
	00		 mov	 eax, DWORD PTR [ecx+128]
; File D:\git\src\IBK\IBK_DRFN\ProjSrc\SrcDrfn\Chart\ExControl\Include\LoadHelper.h

; 1381 : 		if(!m_hLib)

  00009	83 78 04 00	 cmp	 DWORD PTR [eax+4], 0
  0000d	75 06		 jne	 SHORT $LN4@ProcessMas
; File D:\git\src\IBK\IBK_DRFN\ProjSrc\SrcDrfn\Chart\ExControl\ExMaskEdit.cpp

; 142  : 	return m_pLoader->ProcessMask(nChar, nEndPos);

  0000f	33 c0		 xor	 eax, eax

; 143  : }

  00011	5d		 pop	 ebp
  00012	c2 08 00	 ret	 8
$LN4@ProcessMas:
; File D:\git\src\IBK\IBK_DRFN\ProjSrc\SrcDrfn\Chart\ExControl\Include\LoadHelper.h

; 1384 : 		return pProcessMask(m_lpPointer, nChar, nEndPos);

  00015	ff 75 0c	 push	 DWORD PTR _nEndPos$[ebp]
  00018	ff 75 08	 push	 DWORD PTR _nChar$[ebp]
  0001b	ff b0 0c 01 00
	00		 push	 DWORD PTR [eax+268]
  00021	8b 80 60 01 00
	00		 mov	 eax, DWORD PTR [eax+352]
  00027	ff d0		 call	 eax
  00029	83 c4 0c	 add	 esp, 12			; 0000000cH
; File D:\git\src\IBK\IBK_DRFN\ProjSrc\SrcDrfn\Chart\ExControl\ExMaskEdit.cpp

; 143  : }

  0002c	5d		 pop	 ebp
  0002d	c2 08 00	 ret	 8
?ProcessMask@CExMaskEdit@@UAEHAAIH@Z ENDP		; CExMaskEdit::ProcessMask
_TEXT	ENDS
; Function compile flags: /Ogtp
; File D:\git\src\IBK\IBK_DRFN\ProjSrc\SrcDrfn\Chart\ExControl\ExMaskEdit.cpp
; File D:\git\src\IBK\IBK_DRFN\ProjSrc\SrcDrfn\Chart\ExControl\Include\LoadHelper.h
; File D:\git\src\IBK\IBK_DRFN\ProjSrc\SrcDrfn\Chart\ExControl\ExMaskEdit.cpp
; File D:\git\src\IBK\IBK_DRFN\ProjSrc\SrcDrfn\Chart\ExControl\Include\LoadHelper.h
; File D:\git\src\IBK\IBK_DRFN\ProjSrc\SrcDrfn\Chart\ExControl\ExMaskEdit.cpp
;	COMDAT ?CheckChar@CExMaskEdit@@UAEHAAIH@Z
_TEXT	SEGMENT
_nChar$ = 8						; size = 4
_bBeep$ = 12						; size = 4
?CheckChar@CExMaskEdit@@UAEHAAIH@Z PROC			; CExMaskEdit::CheckChar, COMDAT
; _this$ = ecx

; 136  : {

  00000	55		 push	 ebp
  00001	8b ec		 mov	 ebp, esp

; 137  : 	return m_pLoader->CheckChar(nChar, bBeep);

  00003	8b 81 80 00 00
	00		 mov	 eax, DWORD PTR [ecx+128]
; File D:\git\src\IBK\IBK_DRFN\ProjSrc\SrcDrfn\Chart\ExControl\Include\LoadHelper.h

; 1373 : 		if(!m_hLib)

  00009	83 78 04 00	 cmp	 DWORD PTR [eax+4], 0
  0000d	75 06		 jne	 SHORT $LN4@CheckChar
; File D:\git\src\IBK\IBK_DRFN\ProjSrc\SrcDrfn\Chart\ExControl\ExMaskEdit.cpp

; 137  : 	return m_pLoader->CheckChar(nChar, bBeep);

  0000f	33 c0		 xor	 eax, eax

; 138  : }

  00011	5d		 pop	 ebp
  00012	c2 08 00	 ret	 8
$LN4@CheckChar:
; File D:\git\src\IBK\IBK_DRFN\ProjSrc\SrcDrfn\Chart\ExControl\Include\LoadHelper.h

; 1376 : 		return pCheckChar(m_lpPointer, nChar, bBeep);

  00015	ff 75 0c	 push	 DWORD PTR _bBeep$[ebp]
  00018	ff 75 08	 push	 DWORD PTR _nChar$[ebp]
  0001b	ff b0 0c 01 00
	00		 push	 DWORD PTR [eax+268]
  00021	8b 80 5c 01 00
	00		 mov	 eax, DWORD PTR [eax+348]
  00027	ff d0		 call	 eax
  00029	83 c4 0c	 add	 esp, 12			; 0000000cH
; File D:\git\src\IBK\IBK_DRFN\ProjSrc\SrcDrfn\Chart\ExControl\ExMaskEdit.cpp

; 138  : }

  0002c	5d		 pop	 ebp
  0002d	c2 08 00	 ret	 8
?CheckChar@CExMaskEdit@@UAEHAAIH@Z ENDP			; CExMaskEdit::CheckChar
_TEXT	ENDS
; Function compile flags: /Ogtp
; File D:\git\src\IBK\IBK_DRFN\ProjSrc\SrcDrfn\Chart\ExControl\ExMaskEdit.cpp
; File D:\git\src\IBK\IBK_DRFN\ProjSrc\SrcDrfn\Chart\ExControl\Include\LoadHelper.h
; File D:\git\src\IBK\IBK_DRFN\ProjSrc\SrcDrfn\Chart\ExControl\ExMaskEdit.cpp
;	COMDAT ?SetEditMask@CExMaskEdit@@UAEXPBD00@Z
_TEXT	SEGMENT
_lpszMask$ = 8						; size = 4
_lpszLiteral$ = 12					; size = 4
_lpszDefault$ = 16					; size = 4
?SetEditMask@CExMaskEdit@@UAEXPBD00@Z PROC		; CExMaskEdit::SetEditMask, COMDAT
; _this$ = ecx

; 131  : {

  00000	55		 push	 ebp
  00001	8b ec		 mov	 ebp, esp

; 132  : 	m_pLoader->SetEditMask(lpszMask, lpszLiteral, lpszDefault);

  00003	8b 81 80 00 00
	00		 mov	 eax, DWORD PTR [ecx+128]
; File D:\git\src\IBK\IBK_DRFN\ProjSrc\SrcDrfn\Chart\ExControl\Include\LoadHelper.h

; 1253 : 		if(!m_hLib)

  00009	83 78 04 00	 cmp	 DWORD PTR [eax+4], 0
  0000d	74 1a		 je	 SHORT $LN3@SetEditMas

; 1254 : 			return FALSE;
; 1255 : 
; 1256 : 		return pSetEditMask(m_lpPointer, lpszMask, lpszLiteral, lpszDefault);

  0000f	ff 75 10	 push	 DWORD PTR _lpszDefault$[ebp]
  00012	ff 75 0c	 push	 DWORD PTR _lpszLiteral$[ebp]
  00015	ff 75 08	 push	 DWORD PTR _lpszMask$[ebp]
  00018	ff b0 0c 01 00
	00		 push	 DWORD PTR [eax+268]
  0001e	8b 80 20 01 00
	00		 mov	 eax, DWORD PTR [eax+288]
  00024	ff d0		 call	 eax
  00026	83 c4 10	 add	 esp, 16			; 00000010H
$LN3@SetEditMas:
; File D:\git\src\IBK\IBK_DRFN\ProjSrc\SrcDrfn\Chart\ExControl\ExMaskEdit.cpp

; 133  : }

  00029	5d		 pop	 ebp
  0002a	c2 0c 00	 ret	 12			; 0000000cH
?SetEditMask@CExMaskEdit@@UAEXPBD00@Z ENDP		; CExMaskEdit::SetEditMask
_TEXT	ENDS
; Function compile flags: /Ogtp
; File D:\git\src\IBK\IBK_DRFN\ProjSrc\SrcDrfn\Chart\ExControl\ExMaskEdit.cpp
; File D:\git\src\IBK\IBK_DRFN\ProjSrc\SrcDrfn\Chart\ExControl\Include\LoadHelper.h
; File D:\git\src\IBK\IBK_DRFN\ProjSrc\SrcDrfn\Chart\ExControl\ExMaskEdit.cpp
;	COMDAT ?SetUseMask@CExMaskEdit@@QAEXH@Z
_TEXT	SEGMENT
_bUseMask$ = 8						; size = 4
?SetUseMask@CExMaskEdit@@QAEXH@Z PROC			; CExMaskEdit::SetUseMask, COMDAT
; _this$ = ecx

; 49   : {

  00000	55		 push	 ebp
  00001	8b ec		 mov	 ebp, esp

; 50   : 	m_pLoader->SetUseMask(bUseMask);

  00003	8b 81 80 00 00
	00		 mov	 eax, DWORD PTR [ecx+128]
; File D:\git\src\IBK\IBK_DRFN\ProjSrc\SrcDrfn\Chart\ExControl\Include\LoadHelper.h

; 1365 : 		if(!m_hLib)

  00009	83 78 04 00	 cmp	 DWORD PTR [eax+4], 0
  0000d	74 14		 je	 SHORT $LN3@SetUseMask

; 1366 : 			return;
; 1367 : 
; 1368 : 		pSetUseMask(m_lpPointer, bUseMask);

  0000f	ff 75 08	 push	 DWORD PTR _bUseMask$[ebp]
  00012	ff b0 0c 01 00
	00		 push	 DWORD PTR [eax+268]
  00018	8b 80 58 01 00
	00		 mov	 eax, DWORD PTR [eax+344]
  0001e	ff d0		 call	 eax
  00020	83 c4 08	 add	 esp, 8
$LN3@SetUseMask:
; File D:\git\src\IBK\IBK_DRFN\ProjSrc\SrcDrfn\Chart\ExControl\ExMaskEdit.cpp

; 51   : }

  00023	5d		 pop	 ebp
  00024	c2 04 00	 ret	 4
?SetUseMask@CExMaskEdit@@QAEXH@Z ENDP			; CExMaskEdit::SetUseMask
_TEXT	ENDS
; Function compile flags: /Ogtp
; File D:\git\src\IBK\IBK_DRFN\ProjSrc\SrcDrfn\Chart\ExControl\ExMaskEdit.cpp
; File D:\git\src\IBK\IBK_DRFN\ProjSrc\SrcDrfn\Chart\ExControl\Include\LoadHelper.h
; File D:\git\src\IBK\IBK_DRFN\ProjSrc\SrcDrfn\Chart\ExControl\ExMaskEdit.cpp
;	COMDAT ?SetPromptChar@CExMaskEdit@@QAEXD@Z
_TEXT	SEGMENT
_ch$ = 8						; size = 1
?SetPromptChar@CExMaskEdit@@QAEXD@Z PROC		; CExMaskEdit::SetPromptChar, COMDAT
; _this$ = ecx

; 79   : {

  00000	55		 push	 ebp
  00001	8b ec		 mov	 ebp, esp

; 80   : 	m_pLoader->SetPromptChar(ch);

  00003	8b 81 80 00 00
	00		 mov	 eax, DWORD PTR [ecx+128]
; File D:\git\src\IBK\IBK_DRFN\ProjSrc\SrcDrfn\Chart\ExControl\Include\LoadHelper.h

; 1261 : 		if(!m_hLib)

  00009	83 78 04 00	 cmp	 DWORD PTR [eax+4], 0
  0000d	74 14		 je	 SHORT $LN3@SetPromptC

; 1262 : 			return;
; 1263 : 
; 1264 : 		pSetPromptChar(m_lpPointer, ch);

  0000f	ff 75 08	 push	 DWORD PTR _ch$[ebp]
  00012	ff b0 0c 01 00
	00		 push	 DWORD PTR [eax+268]
  00018	8b 80 24 01 00
	00		 mov	 eax, DWORD PTR [eax+292]
  0001e	ff d0		 call	 eax
  00020	83 c4 08	 add	 esp, 8
$LN3@SetPromptC:
; File D:\git\src\IBK\IBK_DRFN\ProjSrc\SrcDrfn\Chart\ExControl\ExMaskEdit.cpp

; 81   : }

  00023	5d		 pop	 ebp
  00024	c2 04 00	 ret	 4
?SetPromptChar@CExMaskEdit@@QAEXD@Z ENDP		; CExMaskEdit::SetPromptChar
_TEXT	ENDS
; Function compile flags: /Ogtp
; File D:\git\src\IBK\IBK_DRFN\ProjSrc\SrcDrfn\Chart\ExControl\ExMaskEdit.cpp
; File D:\git\src\IBK\IBK_DRFN\ProjSrc\SrcDrfn\Chart\ExControl\Include\LoadHelper.h
; File D:\git\src\IBK\IBK_DRFN\ProjSrc\SrcDrfn\Chart\ExControl\ExMaskEdit.cpp
;	COMDAT ?SetOverType@CExMaskEdit@@QAEXH@Z
_TEXT	SEGMENT
_bOverType$ = 8						; size = 4
?SetOverType@CExMaskEdit@@QAEXH@Z PROC			; CExMaskEdit::SetOverType, COMDAT
; _this$ = ecx

; 59   : {

  00000	55		 push	 ebp
  00001	8b ec		 mov	 ebp, esp

; 60   : 	m_pLoader->SetOverType(bOverType);

  00003	8b 81 80 00 00
	00		 mov	 eax, DWORD PTR [ecx+128]
; File D:\git\src\IBK\IBK_DRFN\ProjSrc\SrcDrfn\Chart\ExControl\Include\LoadHelper.h

; 1357 : 		if(!m_hLib)

  00009	83 78 04 00	 cmp	 DWORD PTR [eax+4], 0
  0000d	74 14		 je	 SHORT $LN3@SetOverTyp

; 1358 : 			return;
; 1359 : 
; 1360 : 		pSetOverType(m_lpPointer, bOverType);

  0000f	ff 75 08	 push	 DWORD PTR _bOverType$[ebp]
  00012	ff b0 0c 01 00
	00		 push	 DWORD PTR [eax+268]
  00018	8b 80 54 01 00
	00		 mov	 eax, DWORD PTR [eax+340]
  0001e	ff d0		 call	 eax
  00020	83 c4 08	 add	 esp, 8
$LN3@SetOverTyp:
; File D:\git\src\IBK\IBK_DRFN\ProjSrc\SrcDrfn\Chart\ExControl\ExMaskEdit.cpp

; 61   : }

  00023	5d		 pop	 ebp
  00024	c2 04 00	 ret	 4
?SetOverType@CExMaskEdit@@QAEXH@Z ENDP			; CExMaskEdit::SetOverType
_TEXT	ENDS
; Function compile flags: /Ogtp
; File D:\git\src\IBK\IBK_DRFN\ProjSrc\SrcDrfn\Chart\ExControl\ExMaskEdit.cpp
; File D:\git\src\IBK\IBK_DRFN\ProjSrc\SrcDrfn\Chart\ExControl\Include\LoadHelper.h
; File D:\git\src\IBK\IBK_DRFN\ProjSrc\SrcDrfn\Chart\ExControl\ExMaskEdit.cpp
;	COMDAT ?MaskUndo@CExMaskEdit@@QAEXXZ
_TEXT	SEGMENT
?MaskUndo@CExMaskEdit@@QAEXXZ PROC			; CExMaskEdit::MaskUndo, COMDAT
; _this$ = ecx

; 105  : 	m_pLoader->MaskUndo();

  00000	8b 81 80 00 00
	00		 mov	 eax, DWORD PTR [ecx+128]
; File D:\git\src\IBK\IBK_DRFN\ProjSrc\SrcDrfn\Chart\ExControl\Include\LoadHelper.h

; 1349 : 		if(!m_hLib)

  00006	83 78 04 00	 cmp	 DWORD PTR [eax+4], 0
  0000a	74 0f		 je	 SHORT $LN3@MaskUndo

; 1350 : 			return;
; 1351 : 
; 1352 : 		pMaskUndo(m_lpPointer);

  0000c	ff b0 0c 01 00
	00		 push	 DWORD PTR [eax+268]
  00012	8b 80 50 01 00
	00		 mov	 eax, DWORD PTR [eax+336]
  00018	ff d0		 call	 eax
  0001a	59		 pop	 ecx
$LN3@MaskUndo:
; File D:\git\src\IBK\IBK_DRFN\ProjSrc\SrcDrfn\Chart\ExControl\ExMaskEdit.cpp

; 106  : }

  0001b	c3		 ret	 0
?MaskUndo@CExMaskEdit@@QAEXXZ ENDP			; CExMaskEdit::MaskUndo
_TEXT	ENDS
; Function compile flags: /Ogtp
; File D:\git\src\IBK\IBK_DRFN\ProjSrc\SrcDrfn\Chart\ExControl\ExMaskEdit.cpp
; File D:\git\src\IBK\IBK_DRFN\ProjSrc\SrcDrfn\Chart\ExControl\Include\LoadHelper.h
; File D:\git\src\IBK\IBK_DRFN\ProjSrc\SrcDrfn\Chart\ExControl\ExMaskEdit.cpp
;	COMDAT ?MaskSelectAll@CExMaskEdit@@QAEXXZ
_TEXT	SEGMENT
?MaskSelectAll@CExMaskEdit@@QAEXXZ PROC			; CExMaskEdit::MaskSelectAll, COMDAT
; _this$ = ecx

; 110  : 	m_pLoader->MaskSelectAll();

  00000	8b 81 80 00 00
	00		 mov	 eax, DWORD PTR [ecx+128]
; File D:\git\src\IBK\IBK_DRFN\ProjSrc\SrcDrfn\Chart\ExControl\Include\LoadHelper.h

; 1341 : 		if(!m_hLib)

  00006	83 78 04 00	 cmp	 DWORD PTR [eax+4], 0
  0000a	74 0f		 je	 SHORT $LN3@MaskSelect

; 1342 : 			return;
; 1343 : 
; 1344 : 		pMaskSelectAll(m_lpPointer);

  0000c	ff b0 0c 01 00
	00		 push	 DWORD PTR [eax+268]
  00012	8b 80 4c 01 00
	00		 mov	 eax, DWORD PTR [eax+332]
  00018	ff d0		 call	 eax
  0001a	59		 pop	 ecx
$LN3@MaskSelect:
; File D:\git\src\IBK\IBK_DRFN\ProjSrc\SrcDrfn\Chart\ExControl\ExMaskEdit.cpp

; 111  : }

  0001b	c3		 ret	 0
?MaskSelectAll@CExMaskEdit@@QAEXXZ ENDP			; CExMaskEdit::MaskSelectAll
_TEXT	ENDS
; Function compile flags: /Ogtp
; File D:\git\src\IBK\IBK_DRFN\ProjSrc\SrcDrfn\Chart\ExControl\ExMaskEdit.cpp
; File D:\git\src\IBK\IBK_DRFN\ProjSrc\SrcDrfn\Chart\ExControl\Include\LoadHelper.h
; File D:\git\src\IBK\IBK_DRFN\ProjSrc\SrcDrfn\Chart\ExControl\ExMaskEdit.cpp
;	COMDAT ?MaskPaste@CExMaskEdit@@QAEXXZ
_TEXT	SEGMENT
?MaskPaste@CExMaskEdit@@QAEXXZ PROC			; CExMaskEdit::MaskPaste, COMDAT
; _this$ = ecx

; 95   : 	m_pLoader->MaskPaste();

  00000	8b 81 80 00 00
	00		 mov	 eax, DWORD PTR [ecx+128]
; File D:\git\src\IBK\IBK_DRFN\ProjSrc\SrcDrfn\Chart\ExControl\Include\LoadHelper.h

; 1333 : 		if(!m_hLib)

  00006	83 78 04 00	 cmp	 DWORD PTR [eax+4], 0
  0000a	74 0f		 je	 SHORT $LN3@MaskPaste

; 1334 : 			return;
; 1335 : 
; 1336 : 		pMaskPaste(m_lpPointer);

  0000c	ff b0 0c 01 00
	00		 push	 DWORD PTR [eax+268]
  00012	8b 80 48 01 00
	00		 mov	 eax, DWORD PTR [eax+328]
  00018	ff d0		 call	 eax
  0001a	59		 pop	 ecx
$LN3@MaskPaste:
; File D:\git\src\IBK\IBK_DRFN\ProjSrc\SrcDrfn\Chart\ExControl\ExMaskEdit.cpp

; 96   : }

  0001b	c3		 ret	 0
?MaskPaste@CExMaskEdit@@QAEXXZ ENDP			; CExMaskEdit::MaskPaste
_TEXT	ENDS
; Function compile flags: /Ogtp
; File D:\git\src\IBK\IBK_DRFN\ProjSrc\SrcDrfn\Chart\ExControl\ExMaskEdit.cpp
; File D:\git\src\IBK\IBK_DRFN\ProjSrc\SrcDrfn\Chart\ExControl\Include\LoadHelper.h
; File D:\git\src\IBK\IBK_DRFN\ProjSrc\SrcDrfn\Chart\ExControl\ExMaskEdit.cpp
;	COMDAT ?MaskCut@CExMaskEdit@@QAEXXZ
_TEXT	SEGMENT
?MaskCut@CExMaskEdit@@QAEXXZ PROC			; CExMaskEdit::MaskCut, COMDAT
; _this$ = ecx

; 85   : 	m_pLoader->MaskCut();

  00000	8b 81 80 00 00
	00		 mov	 eax, DWORD PTR [ecx+128]
; File D:\git\src\IBK\IBK_DRFN\ProjSrc\SrcDrfn\Chart\ExControl\Include\LoadHelper.h

; 1325 : 		if(!m_hLib)

  00006	83 78 04 00	 cmp	 DWORD PTR [eax+4], 0
  0000a	74 0f		 je	 SHORT $LN3@MaskCut

; 1326 : 			return;
; 1327 : 
; 1328 : 		pMaskCut(m_lpPointer);

  0000c	ff b0 0c 01 00
	00		 push	 DWORD PTR [eax+268]
  00012	8b 80 44 01 00
	00		 mov	 eax, DWORD PTR [eax+324]
  00018	ff d0		 call	 eax
  0001a	59		 pop	 ecx
$LN3@MaskCut:
; File D:\git\src\IBK\IBK_DRFN\ProjSrc\SrcDrfn\Chart\ExControl\ExMaskEdit.cpp

; 86   : }

  0001b	c3		 ret	 0
?MaskCut@CExMaskEdit@@QAEXXZ ENDP			; CExMaskEdit::MaskCut
_TEXT	ENDS
; Function compile flags: /Ogtp
; File D:\git\src\IBK\IBK_DRFN\ProjSrc\SrcDrfn\Chart\ExControl\ExMaskEdit.cpp
; File D:\git\src\IBK\IBK_DRFN\ProjSrc\SrcDrfn\Chart\ExControl\Include\LoadHelper.h
; File D:\git\src\IBK\IBK_DRFN\ProjSrc\SrcDrfn\Chart\ExControl\ExMaskEdit.cpp
;	COMDAT ?MaskCopy@CExMaskEdit@@QAEXXZ
_TEXT	SEGMENT
?MaskCopy@CExMaskEdit@@QAEXXZ PROC			; CExMaskEdit::MaskCopy, COMDAT
; _this$ = ecx

; 90   : 	m_pLoader->MaskCopy();

  00000	8b 81 80 00 00
	00		 mov	 eax, DWORD PTR [ecx+128]
; File D:\git\src\IBK\IBK_DRFN\ProjSrc\SrcDrfn\Chart\ExControl\Include\LoadHelper.h

; 1317 : 		if(!m_hLib)

  00006	83 78 04 00	 cmp	 DWORD PTR [eax+4], 0
  0000a	74 0f		 je	 SHORT $LN3@MaskCopy

; 1318 : 			return;
; 1319 : 
; 1320 : 		pMaskCopy(m_lpPointer);

  0000c	ff b0 0c 01 00
	00		 push	 DWORD PTR [eax+268]
  00012	8b 80 40 01 00
	00		 mov	 eax, DWORD PTR [eax+320]
  00018	ff d0		 call	 eax
  0001a	59		 pop	 ecx
$LN3@MaskCopy:
; File D:\git\src\IBK\IBK_DRFN\ProjSrc\SrcDrfn\Chart\ExControl\ExMaskEdit.cpp

; 91   : }

  0001b	c3		 ret	 0
?MaskCopy@CExMaskEdit@@QAEXXZ ENDP			; CExMaskEdit::MaskCopy
_TEXT	ENDS
; Function compile flags: /Ogtp
; File D:\git\src\IBK\IBK_DRFN\ProjSrc\SrcDrfn\Chart\ExControl\ExMaskEdit.cpp
; File D:\git\src\IBK\IBK_DRFN\ProjSrc\SrcDrfn\Chart\ExControl\Include\LoadHelper.h
; File D:\git\src\IBK\IBK_DRFN\ProjSrc\SrcDrfn\Chart\ExControl\ExMaskEdit.cpp
;	COMDAT ?MaskClear@CExMaskEdit@@QAEXXZ
_TEXT	SEGMENT
?MaskClear@CExMaskEdit@@QAEXXZ PROC			; CExMaskEdit::MaskClear, COMDAT
; _this$ = ecx

; 100  : 	m_pLoader->MaskClear();

  00000	8b 81 80 00 00
	00		 mov	 eax, DWORD PTR [ecx+128]
; File D:\git\src\IBK\IBK_DRFN\ProjSrc\SrcDrfn\Chart\ExControl\Include\LoadHelper.h

; 1309 : 		if(!m_hLib)

  00006	83 78 04 00	 cmp	 DWORD PTR [eax+4], 0
  0000a	74 0f		 je	 SHORT $LN3@MaskClear

; 1310 : 			return;
; 1311 : 
; 1312 : 		pMaskClear(m_lpPointer);

  0000c	ff b0 0c 01 00
	00		 push	 DWORD PTR [eax+268]
  00012	8b 80 3c 01 00
	00		 mov	 eax, DWORD PTR [eax+316]
  00018	ff d0		 call	 eax
  0001a	59		 pop	 ecx
$LN3@MaskClear:
; File D:\git\src\IBK\IBK_DRFN\ProjSrc\SrcDrfn\Chart\ExControl\ExMaskEdit.cpp

; 101  : }

  0001b	c3		 ret	 0
?MaskClear@CExMaskEdit@@QAEXXZ ENDP			; CExMaskEdit::MaskClear
_TEXT	ENDS
; Function compile flags: /Ogtp
; File D:\git\src\IBK\IBK_DRFN\ProjSrc\SrcDrfn\Chart\ExControl\ExMaskEdit.cpp
; File D:\git\src\IBK\IBK_DRFN\ProjSrc\SrcDrfn\Chart\ExControl\Include\LoadHelper.h
; File D:\git\src\IBK\IBK_DRFN\ProjSrc\SrcDrfn\Chart\ExControl\ExMaskEdit.cpp
; File D:\git\src\IBK\IBK_DRFN\ProjSrc\SrcDrfn\Chart\ExControl\Include\LoadHelper.h
; File D:\git\src\IBK\IBK_DRFN\ProjSrc\SrcDrfn\Chart\ExControl\ExMaskEdit.cpp
;	COMDAT ?GetPromptChar@CExMaskEdit@@QAEDXZ
_TEXT	SEGMENT
?GetPromptChar@CExMaskEdit@@QAEDXZ PROC			; CExMaskEdit::GetPromptChar, COMDAT
; _this$ = ecx

; 75   : 	return m_pLoader->GetPromptChar();

  00000	8b 81 80 00 00
	00		 mov	 eax, DWORD PTR [ecx+128]
; File D:\git\src\IBK\IBK_DRFN\ProjSrc\SrcDrfn\Chart\ExControl\Include\LoadHelper.h

; 1301 : 		if(!m_hLib)

  00006	83 78 04 00	 cmp	 DWORD PTR [eax+4], 0
  0000a	75 03		 jne	 SHORT $LN4@GetPromptC

; 1302 : 			return NULL;

  0000c	32 c0		 xor	 al, al
; File D:\git\src\IBK\IBK_DRFN\ProjSrc\SrcDrfn\Chart\ExControl\ExMaskEdit.cpp

; 76   : }

  0000e	c3		 ret	 0
$LN4@GetPromptC:
; File D:\git\src\IBK\IBK_DRFN\ProjSrc\SrcDrfn\Chart\ExControl\Include\LoadHelper.h

; 1304 : 		return pGetPromptChar(m_lpPointer);

  0000f	ff b0 0c 01 00
	00		 push	 DWORD PTR [eax+268]
  00015	8b 80 38 01 00
	00		 mov	 eax, DWORD PTR [eax+312]
  0001b	ff d0		 call	 eax
  0001d	83 c4 04	 add	 esp, 4
; File D:\git\src\IBK\IBK_DRFN\ProjSrc\SrcDrfn\Chart\ExControl\ExMaskEdit.cpp

; 76   : }

  00020	c3		 ret	 0
?GetPromptChar@CExMaskEdit@@QAEDXZ ENDP			; CExMaskEdit::GetPromptChar
_TEXT	ENDS
; Function compile flags: /Ogtp
; File D:\git\src\IBK\IBK_DRFN\ProjSrc\SrcDrfn\Chart\ExControl\ExMaskEdit.cpp
; File D:\git\src\IBK\IBK_DRFN\ProjSrc\SrcDrfn\Chart\ExControl\Include\LoadHelper.h
; File D:\git\src\IBK\IBK_DRFN\ProjSrc\SrcDrfn\Chart\ExControl\ExMaskEdit.cpp
; File D:\git\src\IBK\IBK_DRFN\ProjSrc\SrcDrfn\Chart\ExControl\Include\LoadHelper.h
; File D:\git\src\IBK\IBK_DRFN\ProjSrc\SrcDrfn\Chart\ExControl\ExMaskEdit.cpp
;	COMDAT ?PosInRange@CExMaskEdit@@QAEHH@Z
_TEXT	SEGMENT
_nPos$ = 8						; size = 4
?PosInRange@CExMaskEdit@@QAEHH@Z PROC			; CExMaskEdit::PosInRange, COMDAT
; _this$ = ecx

; 69   : {

  00000	55		 push	 ebp
  00001	8b ec		 mov	 ebp, esp

; 70   : 	return m_pLoader->PosInRange(nPos);

  00003	8b 81 80 00 00
	00		 mov	 eax, DWORD PTR [ecx+128]
; File D:\git\src\IBK\IBK_DRFN\ProjSrc\SrcDrfn\Chart\ExControl\Include\LoadHelper.h

; 1293 : 		if(!m_hLib)

  00009	83 78 04 00	 cmp	 DWORD PTR [eax+4], 0
  0000d	75 06		 jne	 SHORT $LN4@PosInRange
; File D:\git\src\IBK\IBK_DRFN\ProjSrc\SrcDrfn\Chart\ExControl\ExMaskEdit.cpp

; 70   : 	return m_pLoader->PosInRange(nPos);

  0000f	33 c0		 xor	 eax, eax

; 71   : }

  00011	5d		 pop	 ebp
  00012	c2 04 00	 ret	 4
$LN4@PosInRange:
; File D:\git\src\IBK\IBK_DRFN\ProjSrc\SrcDrfn\Chart\ExControl\Include\LoadHelper.h

; 1296 : 		return pPosInRange(m_lpPointer, nPos);

  00015	ff 75 08	 push	 DWORD PTR _nPos$[ebp]
  00018	ff b0 0c 01 00
	00		 push	 DWORD PTR [eax+268]
  0001e	8b 80 34 01 00
	00		 mov	 eax, DWORD PTR [eax+308]
  00024	ff d0		 call	 eax
  00026	83 c4 08	 add	 esp, 8
; File D:\git\src\IBK\IBK_DRFN\ProjSrc\SrcDrfn\Chart\ExControl\ExMaskEdit.cpp

; 71   : }

  00029	5d		 pop	 ebp
  0002a	c2 04 00	 ret	 4
?PosInRange@CExMaskEdit@@QAEHH@Z ENDP			; CExMaskEdit::PosInRange
_TEXT	ENDS
; Function compile flags: /Ogtp
; File D:\git\src\IBK\IBK_DRFN\ProjSrc\SrcDrfn\Chart\ExControl\ExMaskEdit.cpp
; File D:\git\src\IBK\IBK_DRFN\ProjSrc\SrcDrfn\Chart\ExControl\Include\LoadHelper.h
; File D:\git\src\IBK\IBK_DRFN\ProjSrc\SrcDrfn\Chart\ExControl\ExMaskEdit.cpp
; File D:\git\src\IBK\IBK_DRFN\ProjSrc\SrcDrfn\Chart\ExControl\Include\LoadHelper.h
; File D:\git\src\IBK\IBK_DRFN\ProjSrc\SrcDrfn\Chart\ExControl\ExMaskEdit.cpp
;	COMDAT ?IsModified@CExMaskEdit@@QAEHXZ
_TEXT	SEGMENT
?IsModified@CExMaskEdit@@QAEHXZ PROC			; CExMaskEdit::IsModified, COMDAT
; _this$ = ecx

; 115  : 	return m_pLoader->IsModified();

  00000	8b 81 80 00 00
	00		 mov	 eax, DWORD PTR [ecx+128]
; File D:\git\src\IBK\IBK_DRFN\ProjSrc\SrcDrfn\Chart\ExControl\Include\LoadHelper.h

; 1285 : 		if(!m_hLib)

  00006	83 78 04 00	 cmp	 DWORD PTR [eax+4], 0
  0000a	75 03		 jne	 SHORT $LN4@IsModified
; File D:\git\src\IBK\IBK_DRFN\ProjSrc\SrcDrfn\Chart\ExControl\ExMaskEdit.cpp

; 115  : 	return m_pLoader->IsModified();

  0000c	33 c0		 xor	 eax, eax

; 116  : }

  0000e	c3		 ret	 0
$LN4@IsModified:
; File D:\git\src\IBK\IBK_DRFN\ProjSrc\SrcDrfn\Chart\ExControl\Include\LoadHelper.h

; 1288 : 		return pIsModified(m_lpPointer);

  0000f	ff b0 0c 01 00
	00		 push	 DWORD PTR [eax+268]
  00015	8b 80 30 01 00
	00		 mov	 eax, DWORD PTR [eax+304]
  0001b	ff d0		 call	 eax
  0001d	83 c4 04	 add	 esp, 4
; File D:\git\src\IBK\IBK_DRFN\ProjSrc\SrcDrfn\Chart\ExControl\ExMaskEdit.cpp

; 116  : }

  00020	c3		 ret	 0
?IsModified@CExMaskEdit@@QAEHXZ ENDP			; CExMaskEdit::IsModified
_TEXT	ENDS
; Function compile flags: /Ogtp
; File D:\git\src\IBK\IBK_DRFN\ProjSrc\SrcDrfn\Chart\ExControl\ExMaskEdit.cpp
; File D:\git\src\IBK\IBK_DRFN\ProjSrc\SrcDrfn\Chart\ExControl\Include\LoadHelper.h
; File D:\git\src\IBK\IBK_DRFN\ProjSrc\SrcDrfn\Chart\ExControl\ExMaskEdit.cpp
; File D:\git\src\IBK\IBK_DRFN\ProjSrc\SrcDrfn\Chart\ExControl\Include\LoadHelper.h
; File D:\git\src\IBK\IBK_DRFN\ProjSrc\SrcDrfn\Chart\ExControl\ExMaskEdit.cpp
;	COMDAT ?CanUseMask@CExMaskEdit@@QAEHXZ
_TEXT	SEGMENT
?CanUseMask@CExMaskEdit@@QAEHXZ PROC			; CExMaskEdit::CanUseMask, COMDAT
; _this$ = ecx

; 55   : 	return m_pLoader->CanUseMask();

  00000	8b 81 80 00 00
	00		 mov	 eax, DWORD PTR [ecx+128]
; File D:\git\src\IBK\IBK_DRFN\ProjSrc\SrcDrfn\Chart\ExControl\Include\LoadHelper.h

; 1277 : 		if(!m_hLib)

  00006	83 78 04 00	 cmp	 DWORD PTR [eax+4], 0
  0000a	75 03		 jne	 SHORT $LN4@CanUseMask
; File D:\git\src\IBK\IBK_DRFN\ProjSrc\SrcDrfn\Chart\ExControl\ExMaskEdit.cpp

; 55   : 	return m_pLoader->CanUseMask();

  0000c	33 c0		 xor	 eax, eax

; 56   : }

  0000e	c3		 ret	 0
$LN4@CanUseMask:
; File D:\git\src\IBK\IBK_DRFN\ProjSrc\SrcDrfn\Chart\ExControl\Include\LoadHelper.h

; 1280 : 		return pCanUseMask(m_lpPointer);

  0000f	ff b0 0c 01 00
	00		 push	 DWORD PTR [eax+268]
  00015	8b 80 2c 01 00
	00		 mov	 eax, DWORD PTR [eax+300]
  0001b	ff d0		 call	 eax
  0001d	83 c4 04	 add	 esp, 4
; File D:\git\src\IBK\IBK_DRFN\ProjSrc\SrcDrfn\Chart\ExControl\ExMaskEdit.cpp

; 56   : }

  00020	c3		 ret	 0
?CanUseMask@CExMaskEdit@@QAEHXZ ENDP			; CExMaskEdit::CanUseMask
_TEXT	ENDS
; Function compile flags: /Ogtp
; File D:\git\src\IBK\IBK_DRFN\ProjSrc\SrcDrfn\Chart\ExControl\ExMaskEdit.cpp
; File D:\git\src\IBK\IBK_DRFN\ProjSrc\SrcDrfn\Chart\ExControl\Include\LoadHelper.h
; File D:\git\src\IBK\IBK_DRFN\ProjSrc\SrcDrfn\Chart\ExControl\ExMaskEdit.cpp
; File D:\git\src\IBK\IBK_DRFN\ProjSrc\SrcDrfn\Chart\ExControl\Include\LoadHelper.h
; File D:\git\src\IBK\IBK_DRFN\ProjSrc\SrcDrfn\Chart\ExControl\ExMaskEdit.cpp
;	COMDAT ?CanOverType@CExMaskEdit@@QAEHXZ
_TEXT	SEGMENT
?CanOverType@CExMaskEdit@@QAEHXZ PROC			; CExMaskEdit::CanOverType, COMDAT
; _this$ = ecx

; 65   : 	return m_pLoader->CanOverType();

  00000	8b 81 80 00 00
	00		 mov	 eax, DWORD PTR [ecx+128]
; File D:\git\src\IBK\IBK_DRFN\ProjSrc\SrcDrfn\Chart\ExControl\Include\LoadHelper.h

; 1269 : 		if(!m_hLib)

  00006	83 78 04 00	 cmp	 DWORD PTR [eax+4], 0
  0000a	75 03		 jne	 SHORT $LN4@CanOverTyp
; File D:\git\src\IBK\IBK_DRFN\ProjSrc\SrcDrfn\Chart\ExControl\ExMaskEdit.cpp

; 65   : 	return m_pLoader->CanOverType();

  0000c	33 c0		 xor	 eax, eax

; 66   : }

  0000e	c3		 ret	 0
$LN4@CanOverTyp:
; File D:\git\src\IBK\IBK_DRFN\ProjSrc\SrcDrfn\Chart\ExControl\Include\LoadHelper.h

; 1272 : 		return pCanOverType(m_lpPointer);

  0000f	ff b0 0c 01 00
	00		 push	 DWORD PTR [eax+268]
  00015	8b 80 28 01 00
	00		 mov	 eax, DWORD PTR [eax+296]
  0001b	ff d0		 call	 eax
  0001d	83 c4 04	 add	 esp, 4
; File D:\git\src\IBK\IBK_DRFN\ProjSrc\SrcDrfn\Chart\ExControl\ExMaskEdit.cpp

; 66   : }

  00020	c3		 ret	 0
?CanOverType@CExMaskEdit@@QAEHXZ ENDP			; CExMaskEdit::CanOverType
_TEXT	ENDS
; Function compile flags: /Ogtp
; File D:\git\src\IBK\IBK_DRFN\ProjSrc\SrcDrfn\Chart\ExControl\ExMaskEdit.cpp
; File D:\git\src\IBK\IBK_DRFN\ProjSrc\SrcDrfn\Chart\ExControl\Include\LoadHelper.h
; File D:\git\src\IBK\IBK_DRFN\ProjSrc\SrcDrfn\Chart\ExControl\ExMaskEdit.cpp
; File D:\git\src\IBK\IBK_DRFN\ProjSrc\SrcDrfn\Chart\ExControl\Include\LoadHelper.h
; File D:\git\src\IBK\IBK_DRFN\ProjSrc\SrcDrfn\Chart\ExControl\ExMaskEdit.cpp
;	COMDAT ?ActionControl@CExMaskEdit@@QAEJPAX@Z
_TEXT	SEGMENT
_lpAction$ = 8						; size = 4
?ActionControl@CExMaskEdit@@QAEJPAX@Z PROC		; CExMaskEdit::ActionControl, COMDAT
; _this$ = ecx

; 44   : {

  00000	55		 push	 ebp
  00001	8b ec		 mov	 ebp, esp

; 45   : 	return m_pLoader->ActionControl(lpAction);

  00003	8b 81 80 00 00
	00		 mov	 eax, DWORD PTR [ecx+128]
; File D:\git\src\IBK\IBK_DRFN\ProjSrc\SrcDrfn\Chart\ExControl\Include\LoadHelper.h

; 1245 : 		if(!m_hLib)

  00009	83 78 04 00	 cmp	 DWORD PTR [eax+4], 0
  0000d	75 06		 jne	 SHORT $LN4@ActionCont
; File D:\git\src\IBK\IBK_DRFN\ProjSrc\SrcDrfn\Chart\ExControl\ExMaskEdit.cpp

; 45   : 	return m_pLoader->ActionControl(lpAction);

  0000f	33 c0		 xor	 eax, eax

; 46   : }

  00011	5d		 pop	 ebp
  00012	c2 04 00	 ret	 4
$LN4@ActionCont:
; File D:\git\src\IBK\IBK_DRFN\ProjSrc\SrcDrfn\Chart\ExControl\Include\LoadHelper.h

; 1248 : 		return pActionControl(m_lpPointer, lpAction);

  00015	ff 75 08	 push	 DWORD PTR _lpAction$[ebp]
  00018	ff b0 0c 01 00
	00		 push	 DWORD PTR [eax+268]
  0001e	8b 80 10 01 00
	00		 mov	 eax, DWORD PTR [eax+272]
  00024	ff d0		 call	 eax
  00026	83 c4 08	 add	 esp, 8
; File D:\git\src\IBK\IBK_DRFN\ProjSrc\SrcDrfn\Chart\ExControl\ExMaskEdit.cpp

; 46   : }

  00029	5d		 pop	 ebp
  0002a	c2 04 00	 ret	 4
?ActionControl@CExMaskEdit@@QAEJPAX@Z ENDP		; CExMaskEdit::ActionControl
_TEXT	ENDS
; Function compile flags: /Ogtp
; File D:\git\src\IBK\IBK_DRFN\ProjSrc\SrcDrfn\Chart\ExControl\ExMaskEdit.cpp
; File C:\Program Files (x86)\Microsoft Visual Studio\2019\Community\VC\Tools\MSVC\14.29.30133\atlmfc\include\afxwin2.inl
; File D:\git\src\IBK\IBK_DRFN\ProjSrc\SrcDrfn\Chart\ExControl\ExMaskEdit.cpp
;	COMDAT ??0CExMaskEdit@@QAE@H@Z
_TEXT	SEGMENT
$T2 = -20						; size = 4
_this$ = -16						; size = 4
__$EHRec$ = -12						; size = 12
_bUseDefSkin$ = 8					; size = 4
??0CExMaskEdit@@QAE@H@Z PROC				; CExMaskEdit::CExMaskEdit, COMDAT
; _this$ = ecx

; 34   : {

  00000	55		 push	 ebp
  00001	8b ec		 mov	 ebp, esp
  00003	6a ff		 push	 -1
  00005	68 00 00 00 00	 push	 __ehhandler$??0CExMaskEdit@@QAE@H@Z
  0000a	64 a1 00 00 00
	00		 mov	 eax, DWORD PTR fs:0
  00010	50		 push	 eax
  00011	83 ec 08	 sub	 esp, 8
  00014	56		 push	 esi
  00015	a1 00 00 00 00	 mov	 eax, DWORD PTR ___security_cookie
  0001a	33 c5		 xor	 eax, ebp
  0001c	50		 push	 eax
  0001d	8d 45 f4	 lea	 eax, DWORD PTR __$EHRec$[ebp]
  00020	64 a3 00 00 00
	00		 mov	 DWORD PTR fs:0, eax
  00026	8b f1		 mov	 esi, ecx
  00028	89 75 f0	 mov	 DWORD PTR _this$[ebp], esi
; File C:\Program Files (x86)\Microsoft Visual Studio\2019\Community\VC\Tools\MSVC\14.29.30133\atlmfc\include\afxwin2.inl

; 851  : 	{ }

  0002b	e8 00 00 00 00	 call	 ??0CWnd@@QAE@XZ		; CWnd::CWnd
; File D:\git\src\IBK\IBK_DRFN\ProjSrc\SrcDrfn\Chart\ExControl\ExMaskEdit.cpp

; 35   : 	m_pLoader = new CLoaderMaskEdit(this, bUseDefSkin);

  00030	68 a0 01 00 00	 push	 416			; 000001a0H
  00035	c7 45 fc 00 00
	00 00		 mov	 DWORD PTR __$EHRec$[ebp+8], 0
  0003c	c7 06 00 00 00
	00		 mov	 DWORD PTR [esi], OFFSET ??_7CExMaskEdit@@6B@
  00042	e8 00 00 00 00	 call	 ??2@YAPAXI@Z		; operator new
  00047	83 c4 04	 add	 esp, 4
  0004a	89 45 ec	 mov	 DWORD PTR $T2[ebp], eax
  0004d	c6 45 fc 01	 mov	 BYTE PTR __$EHRec$[ebp+8], 1
  00051	85 c0		 test	 eax, eax
  00053	74 25		 je	 SHORT $LN3@CExMaskEdi
  00055	ff 75 08	 push	 DWORD PTR _bUseDefSkin$[ebp]
  00058	8b c8		 mov	 ecx, eax
  0005a	56		 push	 esi
  0005b	e8 00 00 00 00	 call	 ??0CLoaderMaskEdit@@QAE@PAXH@Z ; CLoaderMaskEdit::CLoaderMaskEdit
  00060	89 86 80 00 00
	00		 mov	 DWORD PTR [esi+128], eax

; 36   : }

  00066	8b c6		 mov	 eax, esi
  00068	8b 4d f4	 mov	 ecx, DWORD PTR __$EHRec$[ebp]
  0006b	64 89 0d 00 00
	00 00		 mov	 DWORD PTR fs:0, ecx
  00072	59		 pop	 ecx
  00073	5e		 pop	 esi
  00074	8b e5		 mov	 esp, ebp
  00076	5d		 pop	 ebp
  00077	c2 04 00	 ret	 4
$LN3@CExMaskEdi:

; 35   : 	m_pLoader = new CLoaderMaskEdit(this, bUseDefSkin);

  0007a	c7 86 80 00 00
	00 00 00 00 00	 mov	 DWORD PTR [esi+128], 0

; 36   : }

  00084	8b c6		 mov	 eax, esi
  00086	8b 4d f4	 mov	 ecx, DWORD PTR __$EHRec$[ebp]
  00089	64 89 0d 00 00
	00 00		 mov	 DWORD PTR fs:0, ecx
  00090	59		 pop	 ecx
  00091	5e		 pop	 esi
  00092	8b e5		 mov	 esp, ebp
  00094	5d		 pop	 ebp
  00095	c2 04 00	 ret	 4
_TEXT	ENDS
;	COMDAT text$x
text$x	SEGMENT
__unwindfunclet$??0CExMaskEdit@@QAE@H@Z$0:
  00000	8b 4d f0	 mov	 ecx, DWORD PTR _this$[ebp]
  00003	e9 00 00 00 00	 jmp	 ??1CEdit@@UAE@XZ	; CEdit::~CEdit
__unwindfunclet$??0CExMaskEdit@@QAE@H@Z$1:
  00008	68 a0 01 00 00	 push	 416			; 000001a0H
  0000d	8b 45 ec	 mov	 eax, DWORD PTR $T2[ebp]
  00010	50		 push	 eax
  00011	e8 00 00 00 00	 call	 ??3@YAXPAXI@Z		; operator delete
  00016	83 c4 08	 add	 esp, 8
  00019	c3		 ret	 0
  0001a	cc		 int	 3
  0001b	cc		 int	 3
  0001c	cc		 int	 3
  0001d	cc		 int	 3
  0001e	cc		 int	 3
__ehhandler$??0CExMaskEdit@@QAE@H@Z:
  0001f	90		 npad	 1
  00020	90		 npad	 1
  00021	8b 54 24 08	 mov	 edx, DWORD PTR [esp+8]
  00025	8d 42 0c	 lea	 eax, DWORD PTR [edx+12]
  00028	8b 4a f0	 mov	 ecx, DWORD PTR [edx-16]
  0002b	33 c8		 xor	 ecx, eax
  0002d	e8 00 00 00 00	 call	 @__security_check_cookie@4
  00032	b8 00 00 00 00	 mov	 eax, OFFSET __ehfuncinfo$??0CExMaskEdit@@QAE@H@Z
  00037	e9 00 00 00 00	 jmp	 ___CxxFrameHandler3
text$x	ENDS
??0CExMaskEdit@@QAE@H@Z ENDP				; CExMaskEdit::CExMaskEdit
; Function compile flags: /Ogtp
; File D:\git\src\IBK\IBK_DRFN\ProjSrc\SrcDrfn\Chart\ExControl\ExMaskEdit.cpp
;	COMDAT ?GetRuntimeClass@CExMaskEdit@@UBEPAUCRuntimeClass@@XZ
_TEXT	SEGMENT
?GetRuntimeClass@CExMaskEdit@@UBEPAUCRuntimeClass@@XZ PROC ; CExMaskEdit::GetRuntimeClass, COMDAT
; _this$ = ecx

; 15   : IMPLEMENT_DYNAMIC(CExMaskEdit, CEdit)

  00000	b8 00 00 00 00	 mov	 eax, OFFSET ?classCExMaskEdit@CExMaskEdit@@2UCRuntimeClass@@B ; CExMaskEdit::classCExMaskEdit
  00005	c3		 ret	 0
?GetRuntimeClass@CExMaskEdit@@UBEPAUCRuntimeClass@@XZ ENDP ; CExMaskEdit::GetRuntimeClass
_TEXT	ENDS
; Function compile flags: /Ogtp
; File D:\git\src\IBK\IBK_DRFN\ProjSrc\SrcDrfn\Chart\ExControl\ExMaskEdit.cpp
;	COMDAT ?GetThisClass@CExMaskEdit@@SGPAUCRuntimeClass@@XZ
_TEXT	SEGMENT
?GetThisClass@CExMaskEdit@@SGPAUCRuntimeClass@@XZ PROC	; CExMaskEdit::GetThisClass, COMDAT

; 15   : IMPLEMENT_DYNAMIC(CExMaskEdit, CEdit)

  00000	b8 00 00 00 00	 mov	 eax, OFFSET ?classCExMaskEdit@CExMaskEdit@@2UCRuntimeClass@@B ; CExMaskEdit::classCExMaskEdit
  00005	c3		 ret	 0
?GetThisClass@CExMaskEdit@@SGPAUCRuntimeClass@@XZ ENDP	; CExMaskEdit::GetThisClass
_TEXT	ENDS
; Function compile flags: /Ogtp
; File D:\git\src\IBK\IBK_DRFN\ProjSrc\SrcDrfn\Chart\ExControl\ExMaskEdit.cpp
;	COMDAT ?_GetBaseClass@CExMaskEdit@@KGPAUCRuntimeClass@@XZ
_TEXT	SEGMENT
?_GetBaseClass@CExMaskEdit@@KGPAUCRuntimeClass@@XZ PROC	; CExMaskEdit::_GetBaseClass, COMDAT

; 15   : IMPLEMENT_DYNAMIC(CExMaskEdit, CEdit)

  00000	e9 00 00 00 00	 jmp	 ?GetThisClass@CEdit@@SGPAUCRuntimeClass@@XZ ; CEdit::GetThisClass
?_GetBaseClass@CExMaskEdit@@KGPAUCRuntimeClass@@XZ ENDP	; CExMaskEdit::_GetBaseClass
_TEXT	ENDS
; Function compile flags: /Ogtp
; File C:\Program Files (x86)\Microsoft Visual Studio\2019\Community\VC\Tools\MSVC\14.29.30133\atlmfc\include\afx.inl
;	COMDAT ??_GCEdit@@UAEPAXI@Z
_TEXT	SEGMENT
___flags$ = 8						; size = 4
??_GCEdit@@UAEPAXI@Z PROC				; CEdit::`scalar deleting destructor', COMDAT
; _this$ = ecx
  00000	55		 push	 ebp
  00001	8b ec		 mov	 ebp, esp
  00003	56		 push	 esi
  00004	8b f1		 mov	 esi, ecx
  00006	e8 00 00 00 00	 call	 ??1CEdit@@UAE@XZ	; CEdit::~CEdit
  0000b	8b 45 08	 mov	 eax, DWORD PTR ___flags$[ebp]
  0000e	a8 01		 test	 al, 1
  00010	74 22		 je	 SHORT $LN9@scalar
  00012	a8 04		 test	 al, 4
  00014	75 10		 jne	 SHORT $LN3@scalar

; 112  : 	{ ::operator delete(p); }

  00016	56		 push	 esi
  00017	e8 00 00 00 00	 call	 ??3@YAXPAX@Z		; operator delete
  0001c	83 c4 04	 add	 esp, 4
  0001f	8b c6		 mov	 eax, esi
  00021	5e		 pop	 esi
  00022	5d		 pop	 ebp
  00023	c2 04 00	 ret	 4
$LN3@scalar:
  00026	68 80 00 00 00	 push	 128			; 00000080H
  0002b	56		 push	 esi
  0002c	e8 00 00 00 00	 call	 ?__global_delete@@YAXPAXI@Z ; __global_delete
  00031	83 c4 08	 add	 esp, 8
$LN9@scalar:
  00034	8b c6		 mov	 eax, esi
  00036	5e		 pop	 esi
  00037	5d		 pop	 ebp
  00038	c2 04 00	 ret	 4
??_GCEdit@@UAEPAXI@Z ENDP				; CEdit::`scalar deleting destructor'
_TEXT	ENDS
; Function compile flags: /Ogtp
; File C:\Program Files (x86)\Microsoft Visual Studio\2019\Community\VC\Tools\MSVC\14.29.30133\atlmfc\include\afxwin2.inl
;	COMDAT ?EndModalState@CWnd@@UAEXXZ
_TEXT	SEGMENT
?EndModalState@CWnd@@UAEXXZ PROC			; CWnd::EndModalState, COMDAT
; _this$ = ecx

; 567  : 	{ ::EnableWindow(m_hWnd, TRUE); }

  00000	6a 01		 push	 1
  00002	ff 71 20	 push	 DWORD PTR [ecx+32]
  00005	ff 15 00 00 00
	00		 call	 DWORD PTR __imp__EnableWindow@8
  0000b	c3		 ret	 0
?EndModalState@CWnd@@UAEXXZ ENDP			; CWnd::EndModalState
_TEXT	ENDS
; Function compile flags: /Ogtp
; File C:\Program Files (x86)\Microsoft Visual Studio\2019\Community\VC\Tools\MSVC\14.29.30133\atlmfc\include\afxwin2.inl
;	COMDAT ?BeginModalState@CWnd@@UAEXXZ
_TEXT	SEGMENT
?BeginModalState@CWnd@@UAEXXZ PROC			; CWnd::BeginModalState, COMDAT
; _this$ = ecx

; 565  : 	{ ::EnableWindow(m_hWnd, FALSE); }

  00000	6a 00		 push	 0
  00002	ff 71 20	 push	 DWORD PTR [ecx+32]
  00005	ff 15 00 00 00
	00		 call	 DWORD PTR __imp__EnableWindow@8
  0000b	c3		 ret	 0
?BeginModalState@CWnd@@UAEXXZ ENDP			; CWnd::BeginModalState
_TEXT	ENDS
; Function compile flags: /Ogtp
; File C:\Program Files (x86)\Microsoft Visual Studio\2019\Community\VC\Tools\MSVC\14.29.30133\atlmfc\include\afxwin2.inl
;	COMDAT ?DoDataExchange@CWnd@@MAEXPAVCDataExchange@@@Z
_TEXT	SEGMENT
___formal$ = 8						; size = 4
?DoDataExchange@CWnd@@MAEXPAVCDataExchange@@@Z PROC	; CWnd::DoDataExchange, COMDAT
; _this$ = ecx

; 561  : 	{ } // default does nothing

  00000	c2 04 00	 ret	 4
?DoDataExchange@CWnd@@MAEXPAVCDataExchange@@@Z ENDP	; CWnd::DoDataExchange
_TEXT	ENDS
; Function compile flags: /Ogtp
; File C:\Program Files (x86)\Microsoft Visual Studio\2019\Community\VC\Tools\MSVC\14.29.30133\atlmfc\include\afx.inl
;	COMDAT ?Dump@CObject@@UBEXAAVCDumpContext@@@Z
_TEXT	SEGMENT
___formal$ = 8						; size = 4
?Dump@CObject@@UBEXAAVCDumpContext@@@Z PROC		; CObject::Dump, COMDAT
; _this$ = ecx

; 122  : 	{ /* no dumping in release builds */ }

  00000	c2 04 00	 ret	 4
?Dump@CObject@@UBEXAAVCDumpContext@@@Z ENDP		; CObject::Dump
_TEXT	ENDS
; Function compile flags: /Ogtp
; File C:\Program Files (x86)\Microsoft Visual Studio\2019\Community\VC\Tools\MSVC\14.29.30133\atlmfc\include\afx.inl
;	COMDAT ?AssertValid@CObject@@UBEXXZ
_TEXT	SEGMENT
?AssertValid@CObject@@UBEXXZ PROC			; CObject::AssertValid, COMDAT
; _this$ = ecx

; 120  : 	{ /* no asserts in release builds */ }

  00000	c2 00 00	 ret	 0
?AssertValid@CObject@@UBEXXZ ENDP			; CObject::AssertValid
_TEXT	ENDS
; Function compile flags: /Ogtp
; File C:\Program Files (x86)\Microsoft Visual Studio\2019\Community\VC\Tools\MSVC\14.29.30133\atlmfc\include\afx.inl
;	COMDAT ?Serialize@CObject@@UAEXAAVCArchive@@@Z
_TEXT	SEGMENT
___formal$ = 8						; size = 4
?Serialize@CObject@@UAEXAAVCArchive@@@Z PROC		; CObject::Serialize, COMDAT
; _this$ = ecx

; 106  : 	{ /* CObject does not serialize anything by default */ }

  00000	c2 04 00	 ret	 4
?Serialize@CObject@@UAEXAAVCArchive@@@Z ENDP		; CObject::Serialize
_TEXT	ENDS
; Function compile flags: /Ogtp
; File C:\Program Files (x86)\Windows Kits\10\Include\10.0.22000.0\ucrt\stdio.h
;	COMDAT _sprintf
_TEXT	SEGMENT
__Buffer$ = 8						; size = 4
__Format$ = 12						; size = 4
_sprintf PROC						; COMDAT

; 1771 :     {

  00000	55		 push	 ebp
  00001	8b ec		 mov	 ebp, esp

; 1392 :         int const _Result = __stdio_common_vsprintf(

  00003	8d 45 10	 lea	 eax, DWORD PTR __Format$[ebp+4]
  00006	50		 push	 eax
  00007	6a 00		 push	 0
  00009	ff 75 0c	 push	 DWORD PTR __Format$[ebp]
  0000c	6a ff		 push	 -1
  0000e	ff 75 08	 push	 DWORD PTR __Buffer$[ebp]
  00011	e8 00 00 00 00	 call	 ___local_stdio_printf_options
  00016	8b 08		 mov	 ecx, DWORD PTR [eax]
  00018	ff 70 04	 push	 DWORD PTR [eax+4]
  0001b	83 c9 01	 or	 ecx, 1
  0001e	51		 push	 ecx
  0001f	ff 15 00 00 00
	00		 call	 DWORD PTR __imp____stdio_common_vsprintf

; 1393 :             _CRT_INTERNAL_LOCAL_PRINTF_OPTIONS | _CRT_INTERNAL_PRINTF_LEGACY_VSPRINTF_NULL_TERMINATION,
; 1394 :             _Buffer, _BufferCount, _Format, _Locale, _ArgList);
; 1395 : 
; 1396 :         return _Result < 0 ? -1 : _Result;

  00025	83 c9 ff	 or	 ecx, -1
  00028	83 c4 1c	 add	 esp, 28			; 0000001cH
  0002b	85 c0		 test	 eax, eax
  0002d	0f 48 c1	 cmovs	 eax, ecx

; 1772 :         int _Result;
; 1773 :         va_list _ArgList;
; 1774 :         __crt_va_start(_ArgList, _Format);
; 1775 : 
; 1776 :         _Result = _vsprintf_l(_Buffer, _Format, NULL, _ArgList);
; 1777 : 
; 1778 :         __crt_va_end(_ArgList);
; 1779 :         return _Result;
; 1780 :     }

  00030	5d		 pop	 ebp
  00031	c3		 ret	 0
_sprintf ENDP
_TEXT	ENDS
; Function compile flags: /Ogtp
; File C:\Program Files (x86)\Windows Kits\10\Include\10.0.22000.0\ucrt\corecrt_stdio_config.h
;	COMDAT ___local_stdio_printf_options
_TEXT	SEGMENT
___local_stdio_printf_options PROC			; COMDAT

; 91   :         static unsigned __int64 _OptionsStorage;
; 92   :         return &_OptionsStorage;

  00000	b8 00 00 00 00	 mov	 eax, OFFSET ?_OptionsStorage@?1??__local_stdio_printf_options@@9@4_KA ; `__local_stdio_printf_options'::`2'::_OptionsStorage

; 93   :     }

  00005	c3		 ret	 0
___local_stdio_printf_options ENDP
_TEXT	ENDS
; Function compile flags: /Ogtp
; File D:\git\src\IBK\IBK_DRFN\ProjSrc\SrcDrfn\Chart\ExControl\ExMaskEdit.cpp
;	COMDAT ?__empty_global_delete@@YAXPAXI@Z
_TEXT	SEGMENT
___formal$ = 8						; size = 4
___formal$ = 12						; size = 4
?__empty_global_delete@@YAXPAXI@Z PROC			; __empty_global_delete, COMDAT

  00000	c2 00 00	 ret	 0
?__empty_global_delete@@YAXPAXI@Z ENDP			; __empty_global_delete
_TEXT	ENDS
; Function compile flags: /Ogtp
; File D:\git\src\IBK\IBK_DRFN\ProjSrc\SrcDrfn\Chart\ExControl\ExMaskEdit.cpp
;	COMDAT ?__empty_global_delete@@YAXPAX@Z
_TEXT	SEGMENT
___formal$ = 8						; size = 4
?__empty_global_delete@@YAXPAX@Z PROC			; __empty_global_delete, COMDAT

  00000	c2 00 00	 ret	 0
?__empty_global_delete@@YAXPAX@Z ENDP			; __empty_global_delete
_TEXT	ENDS
END
