; Listing generated by Microsoft (R) Optimizing Compiler Version 19.29.30145.0 

	TITLE	D:\git\src\IBK\IBK_DRFN\#DRfn-CS\_Obj\ExControl\ExTabCtrl.obj
	.686P
	.XMM
	include listing.inc
	.model	flat

INCLUDELIB MSVCRT
INCLUDELIB OLDNAMES

PUBLIC	?__empty_global_delete@@YAXPAX@Z		; __empty_global_delete
PUBLIC	?__empty_global_delete@@YAXPAXI@Z		; __empty_global_delete
PUBLIC	___local_stdio_printf_options
PUBLIC	_sprintf
PUBLIC	?Serialize@CObject@@UAEXAAVCArchive@@@Z		; CObject::Serialize
PUBLIC	?AssertValid@CObject@@UBEXXZ			; CObject::AssertValid
PUBLIC	?Dump@CObject@@UBEXAAVCDumpContext@@@Z		; CObject::Dump
PUBLIC	?DoDataExchange@CWnd@@MAEXPAVCDataExchange@@@Z	; CWnd::DoDataExchange
PUBLIC	?BeginModalState@CWnd@@UAEXXZ			; CWnd::BeginModalState
PUBLIC	?EndModalState@CWnd@@UAEXXZ			; CWnd::EndModalState
PUBLIC	??_GCTabCtrl@@UAEPAXI@Z				; CTabCtrl::`scalar deleting destructor'
PUBLIC	??0CExTabCtrl@@QAE@H@Z				; CExTabCtrl::CExTabCtrl
PUBLIC	?InsertItem@CExTabCtrl@@QAEXHPADI@Z		; CExTabCtrl::InsertItem
PUBLIC	?InsertItem@CExTabCtrl@@QAEXHPADHI@Z		; CExTabCtrl::InsertItem
PUBLIC	?InsertItem@CExTabCtrl@@QAEXHPAUtagTCITEMA@@I@Z	; CExTabCtrl::InsertItem
PUBLIC	?AddChildControl@CExTabCtrl@@QAEXPAVCWnd@@@Z	; CExTabCtrl::AddChildControl
PUBLIC	?RemoveChildControl@CExTabCtrl@@QAEXPAVCWnd@@@Z	; CExTabCtrl::RemoveChildControl
PUBLIC	?SetTabColor@CExTabCtrl@@QAEXKKK@Z		; CExTabCtrl::SetTabColor
PUBLIC	?SetSTTabColor@CExTabCtrl@@QAEXJ@Z		; CExTabCtrl::SetSTTabColor
PUBLIC	?DrawItem@CExTabCtrl@@MAEXPAUtagDRAWITEMSTRUCT@@@Z ; CExTabCtrl::DrawItem
PUBLIC	?PreSubclassWindow@CExTabCtrl@@MAEXXZ		; CExTabCtrl::PreSubclassWindow
PUBLIC	?WindowProc@CExTabCtrl@@MAEJIIJ@Z		; CExTabCtrl::WindowProc
PUBLIC	??1CExTabCtrl@@UAE@XZ				; CExTabCtrl::~CExTabCtrl
PUBLIC	?OnMouseMove@CExTabCtrl@@IAEXIVCPoint@@@Z	; CExTabCtrl::OnMouseMove
PUBLIC	?OnEraseBkgnd@CExTabCtrl@@IAEHPAVCDC@@@Z	; CExTabCtrl::OnEraseBkgnd
PUBLIC	?OnPaint@CExTabCtrl@@IAEXXZ			; CExTabCtrl::OnPaint
PUBLIC	?OnHScroll@CExTabCtrl@@IAEXIIPAVCScrollBar@@@Z	; CExTabCtrl::OnHScroll
PUBLIC	?OnSelchange@CExTabCtrl@@IAEHPAUtagNMHDR@@PAJ@Z	; CExTabCtrl::OnSelchange
PUBLIC	?OnSelchanging@CExTabCtrl@@IAEHPAUtagNMHDR@@PAJ@Z ; CExTabCtrl::OnSelchanging
PUBLIC	?OnMouseLeave@CExTabCtrl@@IAEJIJ@Z		; CExTabCtrl::OnMouseLeave
PUBLIC	?OnKillFocus@CExTabCtrl@@IAEXPAVCWnd@@@Z	; CExTabCtrl::OnKillFocus
PUBLIC	?OnSetFocus@CExTabCtrl@@IAEXPAVCWnd@@@Z		; CExTabCtrl::OnSetFocus
PUBLIC	?OnSize@CExTabCtrl@@IAEXIHH@Z			; CExTabCtrl::OnSize
PUBLIC	?GetThisMessageMap@CExTabCtrl@@KGPBUAFX_MSGMAP@@XZ ; CExTabCtrl::GetThisMessageMap
PUBLIC	?GetMessageMap@CExTabCtrl@@MBEPBUAFX_MSGMAP@@XZ	; CExTabCtrl::GetMessageMap
PUBLIC	??_GCExTabCtrl@@UAEPAXI@Z			; CExTabCtrl::`scalar deleting destructor'
PUBLIC	??1CExLoadLib@@QAE@XZ				; CExLoadLib::~CExLoadLib
PUBLIC	?LoadProcAddress@CExLoadLib@@UAEHXZ		; CExLoadLib::LoadProcAddress
PUBLIC	??0CLoaderTabCtrl@@QAE@PAXH@Z			; CLoaderTabCtrl::CLoaderTabCtrl
PUBLIC	??1CLoaderTabCtrl@@UAE@XZ			; CLoaderTabCtrl::~CLoaderTabCtrl
PUBLIC	?LoadProcAddress@CLoaderTabCtrl@@UAEHXZ		; CLoaderTabCtrl::LoadProcAddress
PUBLIC	??_GCLoaderTabCtrl@@UAEPAXI@Z			; CLoaderTabCtrl::`scalar deleting destructor'
PUBLIC	?_OptionsStorage@?1??__local_stdio_printf_options@@9@4_KA ; `__local_stdio_printf_options'::`2'::_OptionsStorage
PUBLIC	??_7CTabCtrl@@6B@				; CTabCtrl::`vftable'
PUBLIC	??_R0?AVCObject@@@8				; CObject `RTTI Type Descriptor'
PUBLIC	??_R3CObject@@8					; CObject::`RTTI Class Hierarchy Descriptor'
PUBLIC	??_R2CObject@@8					; CObject::`RTTI Base Class Array'
PUBLIC	??_R1A@?0A@EA@CObject@@8			; CObject::`RTTI Base Class Descriptor at (0,-1,0,64)'
PUBLIC	??_R1A@?0A@EA@CWnd@@8				; CWnd::`RTTI Base Class Descriptor at (0,-1,0,64)'
PUBLIC	??_R0?AVCWnd@@@8				; CWnd `RTTI Type Descriptor'
PUBLIC	??_R3CWnd@@8					; CWnd::`RTTI Class Hierarchy Descriptor'
PUBLIC	??_R2CWnd@@8					; CWnd::`RTTI Base Class Array'
PUBLIC	??_R1A@?0A@EA@CCmdTarget@@8			; CCmdTarget::`RTTI Base Class Descriptor at (0,-1,0,64)'
PUBLIC	??_R0?AVCCmdTarget@@@8				; CCmdTarget `RTTI Type Descriptor'
PUBLIC	??_R3CCmdTarget@@8				; CCmdTarget::`RTTI Class Hierarchy Descriptor'
PUBLIC	??_R2CCmdTarget@@8				; CCmdTarget::`RTTI Base Class Array'
PUBLIC	??_R4CTabCtrl@@6B@				; CTabCtrl::`RTTI Complete Object Locator'
PUBLIC	??_R0?AVCTabCtrl@@@8				; CTabCtrl `RTTI Type Descriptor'
PUBLIC	??_R3CTabCtrl@@8				; CTabCtrl::`RTTI Class Hierarchy Descriptor'
PUBLIC	??_R2CTabCtrl@@8				; CTabCtrl::`RTTI Base Class Array'
PUBLIC	??_R1A@?0A@EA@CTabCtrl@@8			; CTabCtrl::`RTTI Base Class Descriptor at (0,-1,0,64)'
PUBLIC	??_7CExTabCtrl@@6B@				; CExTabCtrl::`vftable'
PUBLIC	??_7CExLoadLib@@6B@				; CExLoadLib::`vftable'
PUBLIC	??_C@_0CD@INEDAMEN@DLL?$FL?$CFs?$FN?$MA?$LL?5Load?G?R?5?$LM?v?5?$LO?x?$LN?$MA?$LE?O?$LE?Y?4?5?$FL@ ; `string'
PUBLIC	??_C@_04OHDBDCPJ@?2Dev@				; `string'
PUBLIC	??_C@_05BMGBEOOC@?$CFs?2?$CFs@			; `string'
PUBLIC	??_C@_0BB@JBDOCKKP@Ex_ActionControl@		; `string'
PUBLIC	??_C@_0L@LHMOODNH@Ex_OnPaint@			; `string'
PUBLIC	??_7CLoaderTabCtrl@@6B@				; CLoaderTabCtrl::`vftable'
PUBLIC	??_C@_0O@PJGIAFNO@ExTabCtrl?4dll@		; `string'
PUBLIC	??_C@_0BD@PFIIOLCG@Ex_InitTabCtrlDraw@		; `string'
PUBLIC	??_C@_0BE@DPIIFJGH@Ex_InitTabCtrlDraw2@		; `string'
PUBLIC	??_C@_0P@JGKCCBBH@Ex_ExitTabCtrl@		; `string'
PUBLIC	??_C@_0BF@NICANNDI@Ex_PreSubclassWindow@	; `string'
PUBLIC	??_C@_0BA@IAGOHFI@Ex_OnEraseBkgnd@		; `string'
PUBLIC	??_C@_0M@FJAIDIBP@Ex_DrawItem@			; `string'
PUBLIC	??_C@_0P@NKIDJLHI@Ex_InsertItem1@		; `string'
PUBLIC	??_C@_0P@PBKOMILL@Ex_InsertItem2@		; `string'
PUBLIC	??_C@_0P@OILFPJPK@Ex_InsertItem3@		; `string'
PUBLIC	??_C@_0P@GEIOBKAF@Ex_OnMouseMove@		; `string'
PUBLIC	??_C@_0N@GMMOFGKF@Ex_OnHScroll@			; `string'
PUBLIC	??_C@_0P@NBBKOIPH@Ex_OnSelchange@		; `string'
PUBLIC	??_C@_0BB@NHAPGINI@Ex_OnSelchanging@		; `string'
PUBLIC	??_C@_0BA@DKMGFMHM@Ex_OnMouseLeave@		; `string'
PUBLIC	??_C@_0P@IGNJGKCF@Ex_OnKillFocus@		; `string'
PUBLIC	??_C@_0O@LJPDFKAA@Ex_OnSetFocus@		; `string'
PUBLIC	??_C@_0O@GGJGHEIK@Ex_WindowProc@		; `string'
PUBLIC	??_C@_0BD@LJJNIPDN@Ex_AddChildControl@		; `string'
PUBLIC	??_C@_0BG@MBAJHBJI@Ex_RemoveChildControl@	; `string'
PUBLIC	??_C@_0P@CBFCELKC@Ex_SetTabColor@		; `string'
PUBLIC	??_C@_0BB@EFMPIGEL@Ex_SetSTTabColor@		; `string'
PUBLIC	??_C@_09FLFHMPIG@Ex_OnSize@			; `string'
PUBLIC	??_R4CLoaderTabCtrl@@6B@			; CLoaderTabCtrl::`RTTI Complete Object Locator'
PUBLIC	??_R0?AVCLoaderTabCtrl@@@8			; CLoaderTabCtrl `RTTI Type Descriptor'
PUBLIC	??_R3CLoaderTabCtrl@@8				; CLoaderTabCtrl::`RTTI Class Hierarchy Descriptor'
PUBLIC	??_R2CLoaderTabCtrl@@8				; CLoaderTabCtrl::`RTTI Base Class Array'
PUBLIC	??_R1A@?0A@EA@CLoaderTabCtrl@@8			; CLoaderTabCtrl::`RTTI Base Class Descriptor at (0,-1,0,64)'
PUBLIC	??_R1A@?0A@EA@CExLoadLib@@8			; CExLoadLib::`RTTI Base Class Descriptor at (0,-1,0,64)'
PUBLIC	??_R0?AVCExLoadLib@@@8				; CExLoadLib `RTTI Type Descriptor'
PUBLIC	??_R3CExLoadLib@@8				; CExLoadLib::`RTTI Class Hierarchy Descriptor'
PUBLIC	??_R2CExLoadLib@@8				; CExLoadLib::`RTTI Base Class Array'
PUBLIC	??_R4CExTabCtrl@@6B@				; CExTabCtrl::`RTTI Complete Object Locator'
PUBLIC	??_R0?AVCExTabCtrl@@@8				; CExTabCtrl `RTTI Type Descriptor'
PUBLIC	??_R3CExTabCtrl@@8				; CExTabCtrl::`RTTI Class Hierarchy Descriptor'
PUBLIC	??_R2CExTabCtrl@@8				; CExTabCtrl::`RTTI Base Class Array'
PUBLIC	??_R1A@?0A@EA@CExTabCtrl@@8			; CExTabCtrl::`RTTI Base Class Descriptor at (0,-1,0,64)'
PUBLIC	??_R4CExLoadLib@@6B@				; CExLoadLib::`RTTI Complete Object Locator'
EXTRN	??2@YAPAXI@Z:PROC				; operator new
EXTRN	??3@YAXPAX@Z:PROC				; operator delete
EXTRN	??3@YAXPAXI@Z:PROC				; operator delete
EXTRN	?__global_delete@@YAXPAXI@Z:PROC		; __global_delete
EXTRN	___std_terminate:PROC
EXTRN	__imp__GetLastError@0:PROC
EXTRN	__imp__FreeLibrary@4:PROC
EXTRN	__imp__GetModuleFileNameA@12:PROC
EXTRN	__imp__GetProcAddress@8:PROC
EXTRN	__imp__LoadLibraryA@4:PROC
EXTRN	__imp__EnableWindow@8:PROC
EXTRN	__imp____stdio_common_vsprintf:PROC
EXTRN	__imp_??0?$CStringT@DV?$StrTraitMFC_DLL@DV?$ChTraitsCRT@D@ATL@@@@@ATL@@QAE@XZ:PROC
EXTRN	__imp_??1?$CStringT@DV?$StrTraitMFC_DLL@DV?$ChTraitsCRT@D@ATL@@@@@ATL@@QAE@XZ:PROC
EXTRN	__imp_??4?$CStringT@DV?$StrTraitMFC_DLL@DV?$ChTraitsCRT@D@ATL@@@@@ATL@@QAEAAV01@ABV01@@Z:PROC
EXTRN	__imp_??4?$CStringT@DV?$StrTraitMFC_DLL@DV?$ChTraitsCRT@D@ATL@@@@@ATL@@QAEAAV01@PBD@Z:PROC
EXTRN	__imp_??Y?$CStringT@DV?$StrTraitMFC_DLL@DV?$ChTraitsCRT@D@ATL@@@@@ATL@@QAEAAV01@PBD@Z:PROC
EXTRN	__imp_?ReverseFind@?$CStringT@DV?$StrTraitMFC_DLL@DV?$ChTraitsCRT@D@ATL@@@@@ATL@@QBEHD@Z:PROC
EXTRN	__imp_?Left@?$CStringT@DV?$StrTraitMFC_DLL@DV?$ChTraitsCRT@D@ATL@@@@@ATL@@QBE?AV12@H@Z:PROC
EXTRN	??0CPaintDC@@QAE@PAVCWnd@@@Z:PROC		; CPaintDC::CPaintDC
EXTRN	??1CPaintDC@@UAE@XZ:PROC			; CPaintDC::~CPaintDC
EXTRN	?OnCmdMsg@CCmdTarget@@UAEHIHPAXPAUAFX_CMDHANDLERINFO@@@Z:PROC ; CCmdTarget::OnCmdMsg
EXTRN	?IsInvokeAllowed@CCmdTarget@@UAEHJ@Z:PROC	; CCmdTarget::IsInvokeAllowed
EXTRN	?GetDispatchIID@CCmdTarget@@UAEHPAU_GUID@@@Z:PROC ; CCmdTarget::GetDispatchIID
EXTRN	?GetTypeInfoCount@CCmdTarget@@UAEIXZ:PROC	; CCmdTarget::GetTypeInfoCount
EXTRN	?GetTypeLibCache@CCmdTarget@@UAEPAVCTypeLibCache@@XZ:PROC ; CCmdTarget::GetTypeLibCache
EXTRN	?GetTypeLib@CCmdTarget@@UAEJKPAPAUITypeLib@@@Z:PROC ; CCmdTarget::GetTypeLib
EXTRN	?GetCommandMap@CCmdTarget@@MBEPBUAFX_OLECMDMAP@@XZ:PROC ; CCmdTarget::GetCommandMap
EXTRN	?GetDispatchMap@CCmdTarget@@MBEPBUAFX_DISPMAP@@XZ:PROC ; CCmdTarget::GetDispatchMap
EXTRN	?GetConnectionMap@CCmdTarget@@MBEPBUAFX_CONNECTIONMAP@@XZ:PROC ; CCmdTarget::GetConnectionMap
EXTRN	?GetEventSinkMap@CCmdTarget@@MBEPBUAFX_EVENTSINKMAP@@XZ:PROC ; CCmdTarget::GetEventSinkMap
EXTRN	?OnCreateAggregates@CCmdTarget@@UAEHXZ:PROC	; CCmdTarget::OnCreateAggregates
EXTRN	?GetInterfaceHook@CCmdTarget@@UAEPAUIUnknown@@PBX@Z:PROC ; CCmdTarget::GetInterfaceHook
EXTRN	?GetExtraConnectionPoints@CCmdTarget@@MAEHPAVCPtrArray@@@Z:PROC ; CCmdTarget::GetExtraConnectionPoints
EXTRN	?GetConnectionHook@CCmdTarget@@MAEPAUIConnectionPoint@@ABU_GUID@@@Z:PROC ; CCmdTarget::GetConnectionHook
EXTRN	??0CWnd@@QAE@XZ:PROC				; CWnd::CWnd
EXTRN	?PreSubclassWindow@CWnd@@UAEXXZ:PROC		; CWnd::PreSubclassWindow
EXTRN	?Create@CWnd@@UAEHPBD0KABUtagRECT@@PAV1@IPAUCCreateContext@@@Z:PROC ; CWnd::Create
EXTRN	?CreateEx@CWnd@@UAEHKPBD0KHHHHPAUHWND__@@PAUHMENU__@@PAX@Z:PROC ; CWnd::CreateEx
EXTRN	?CreateEx@CWnd@@UAEHKPBD0KABUtagRECT@@PAV1@IPAX@Z:PROC ; CWnd::CreateEx
EXTRN	?DestroyWindow@CWnd@@UAEHXZ:PROC		; CWnd::DestroyWindow
EXTRN	?PreCreateWindow@CWnd@@UAEHAAUtagCREATESTRUCTA@@@Z:PROC ; CWnd::PreCreateWindow
EXTRN	?CalcWindowRect@CWnd@@UAEXPAUtagRECT@@I@Z:PROC	; CWnd::CalcWindowRect
EXTRN	?GetMenu@CWnd@@UBEPAVCMenu@@XZ:PROC		; CWnd::GetMenu
EXTRN	?SetMenu@CWnd@@UAEHPAVCMenu@@@Z:PROC		; CWnd::SetMenu
EXTRN	?OnToolHitTest@CWnd@@UBEHVCPoint@@PAUtagTOOLINFOA@@@Z:PROC ; CWnd::OnToolHitTest
EXTRN	?GetScrollBarCtrl@CWnd@@UBEPAVCScrollBar@@H@Z:PROC ; CWnd::GetScrollBarCtrl
EXTRN	?WinHelpA@CWnd@@UAEXKI@Z:PROC			; CWnd::WinHelpA
EXTRN	?HtmlHelpA@CWnd@@UAEXKI@Z:PROC			; CWnd::HtmlHelpA
EXTRN	?WinHelpInternal@CWnd@@UAEXKI@Z:PROC		; CWnd::WinHelpInternal
EXTRN	?ContinueModal@CWnd@@UAEHXZ:PROC		; CWnd::ContinueModal
EXTRN	?EndModalLoop@CWnd@@UAEXH@Z:PROC		; CWnd::EndModalLoop
EXTRN	?OnDrawIconicThumbnailOrLivePreview@CWnd@@UAEXAAVCDC@@VCRect@@VCSize@@HAAH@Z:PROC ; CWnd::OnDrawIconicThumbnailOrLivePreview
EXTRN	?GetInterfaceMap@CWnd@@MBEPBUAFX_INTERFACEMAP@@XZ:PROC ; CWnd::GetInterfaceMap
EXTRN	?EnsureStdObj@CWnd@@UAEJXZ:PROC			; CWnd::EnsureStdObj
EXTRN	?get_accParent@CWnd@@UAEJPAPAUIDispatch@@@Z:PROC ; CWnd::get_accParent
EXTRN	?get_accChildCount@CWnd@@UAEJPAJ@Z:PROC		; CWnd::get_accChildCount
EXTRN	?get_accChild@CWnd@@UAEJUtagVARIANT@@PAPAUIDispatch@@@Z:PROC ; CWnd::get_accChild
EXTRN	?get_accName@CWnd@@UAEJUtagVARIANT@@PAPA_W@Z:PROC ; CWnd::get_accName
EXTRN	?get_accValue@CWnd@@UAEJUtagVARIANT@@PAPA_W@Z:PROC ; CWnd::get_accValue
EXTRN	?get_accDescription@CWnd@@UAEJUtagVARIANT@@PAPA_W@Z:PROC ; CWnd::get_accDescription
EXTRN	?get_accRole@CWnd@@UAEJUtagVARIANT@@PAU2@@Z:PROC ; CWnd::get_accRole
EXTRN	?get_accState@CWnd@@UAEJUtagVARIANT@@PAU2@@Z:PROC ; CWnd::get_accState
EXTRN	?get_accHelp@CWnd@@UAEJUtagVARIANT@@PAPA_W@Z:PROC ; CWnd::get_accHelp
EXTRN	?get_accHelpTopic@CWnd@@UAEJPAPA_WUtagVARIANT@@PAJ@Z:PROC ; CWnd::get_accHelpTopic
EXTRN	?get_accKeyboardShortcut@CWnd@@UAEJUtagVARIANT@@PAPA_W@Z:PROC ; CWnd::get_accKeyboardShortcut
EXTRN	?get_accFocus@CWnd@@UAEJPAUtagVARIANT@@@Z:PROC	; CWnd::get_accFocus
EXTRN	?get_accSelection@CWnd@@UAEJPAUtagVARIANT@@@Z:PROC ; CWnd::get_accSelection
EXTRN	?get_accDefaultAction@CWnd@@UAEJUtagVARIANT@@PAPA_W@Z:PROC ; CWnd::get_accDefaultAction
EXTRN	?accSelect@CWnd@@UAEJJUtagVARIANT@@@Z:PROC	; CWnd::accSelect
EXTRN	?accLocation@CWnd@@UAEJPAJ000UtagVARIANT@@@Z:PROC ; CWnd::accLocation
EXTRN	?accNavigate@CWnd@@UAEJJUtagVARIANT@@PAU2@@Z:PROC ; CWnd::accNavigate
EXTRN	?accHitTest@CWnd@@UAEJJJPAUtagVARIANT@@@Z:PROC	; CWnd::accHitTest
EXTRN	?accDoDefaultAction@CWnd@@UAEJUtagVARIANT@@@Z:PROC ; CWnd::accDoDefaultAction
EXTRN	?put_accName@CWnd@@UAEJUtagVARIANT@@PA_W@Z:PROC	; CWnd::put_accName
EXTRN	?put_accValue@CWnd@@UAEJUtagVARIANT@@PA_W@Z:PROC ; CWnd::put_accValue
EXTRN	?SetProxy@CWnd@@UAEJPAUIAccessibleProxy@@@Z:PROC ; CWnd::SetProxy
EXTRN	?CreateAccessibleProxy@CWnd@@UAEJIJPAJ@Z:PROC	; CWnd::CreateAccessibleProxy
EXTRN	?OnCommand@CWnd@@MAEHIJ@Z:PROC			; CWnd::OnCommand
EXTRN	?OnNotify@CWnd@@MAEHIJPAJ@Z:PROC		; CWnd::OnNotify
EXTRN	?GetSuperWndProcAddr@CWnd@@MAEPAP6GJPAUHWND__@@IIJ@ZXZ:PROC ; CWnd::GetSuperWndProcAddr
EXTRN	?PreTranslateMessage@CWnd@@UAEHPAUtagMSG@@@Z:PROC ; CWnd::PreTranslateMessage
EXTRN	?OnAmbientProperty@CWnd@@UAEHPAVCOleControlSite@@JPAUtagVARIANT@@@Z:PROC ; CWnd::OnAmbientProperty
EXTRN	?WindowProc@CWnd@@MAEJIIJ@Z:PROC		; CWnd::WindowProc
EXTRN	?OnWndMsg@CWnd@@MAEHIIJPAJ@Z:PROC		; CWnd::OnWndMsg
EXTRN	?DefWindowProcA@CWnd@@MAEJIIJ@Z:PROC		; CWnd::DefWindowProcA
EXTRN	?PostNcDestroy@CWnd@@MAEXXZ:PROC		; CWnd::PostNcDestroy
EXTRN	?OnTouchInputs@CWnd@@MAEHIPAUtagTOUCHINPUT@@@Z:PROC ; CWnd::OnTouchInputs
EXTRN	?OnTouchInput@CWnd@@MAEHVCPoint@@HHPAUtagTOUCHINPUT@@@Z:PROC ; CWnd::OnTouchInput
EXTRN	?GetGestureStatus@CWnd@@MAEKVCPoint@@@Z:PROC	; CWnd::GetGestureStatus
EXTRN	?OnGestureZoom@CWnd@@MAEHVCPoint@@J@Z:PROC	; CWnd::OnGestureZoom
EXTRN	?OnGesturePan@CWnd@@MAEHVCPoint@@0@Z:PROC	; CWnd::OnGesturePan
EXTRN	?OnGestureRotate@CWnd@@MAEHVCPoint@@N@Z:PROC	; CWnd::OnGestureRotate
EXTRN	?OnGestureTwoFingerTap@CWnd@@MAEHVCPoint@@@Z:PROC ; CWnd::OnGestureTwoFingerTap
EXTRN	?OnGesturePressAndTap@CWnd@@MAEHVCPoint@@J@Z:PROC ; CWnd::OnGesturePressAndTap
EXTRN	?ResizeDynamicLayout@CWnd@@MAEXXZ:PROC		; CWnd::ResizeDynamicLayout
EXTRN	?CheckAutoCenter@CWnd@@UAEHXZ:PROC		; CWnd::CheckAutoCenter
EXTRN	?IsFrameWnd@CWnd@@UBEHXZ:PROC			; CWnd::IsFrameWnd
EXTRN	?OnFinalRelease@CWnd@@UAEXXZ:PROC		; CWnd::OnFinalRelease
EXTRN	?CreateControlContainer@CWnd@@MAEHPAPAVCOleControlContainer@@@Z:PROC ; CWnd::CreateControlContainer
EXTRN	?CreateControlSite@CWnd@@MAEHPAVCOleControlContainer@@PAPAVCOleControlSite@@IABU_GUID@@@Z:PROC ; CWnd::CreateControlSite
EXTRN	?SetOccDialogInfo@CWnd@@MAEHPAU_AFX_OCC_DIALOG_INFO@@@Z:PROC ; CWnd::SetOccDialogInfo
EXTRN	?GetOccDialogInfo@CWnd@@MAEPAU_AFX_OCC_DIALOG_INFO@@XZ:PROC ; CWnd::GetOccDialogInfo
EXTRN	?AfxMessageBox@@YGHPBDII@Z:PROC			; AfxMessageBox
EXTRN	?GetRuntimeClass@CTabCtrl@@UBEPAUCRuntimeClass@@XZ:PROC ; CTabCtrl::GetRuntimeClass
EXTRN	?Create@CTabCtrl@@UAEHKABUtagRECT@@PAVCWnd@@I@Z:PROC ; CTabCtrl::Create
EXTRN	?CreateEx@CTabCtrl@@UAEHKKABUtagRECT@@PAVCWnd@@I@Z:PROC ; CTabCtrl::CreateEx
EXTRN	?DrawItem@CTabCtrl@@UAEXPAUtagDRAWITEMSTRUCT@@@Z:PROC ; CTabCtrl::DrawItem
EXTRN	??1CTabCtrl@@UAE@XZ:PROC			; CTabCtrl::~CTabCtrl
EXTRN	?OnChildNotify@CTabCtrl@@MAEHIIJPAJ@Z:PROC	; CTabCtrl::OnChildNotify
EXTRN	?GetThisMessageMap@CTabCtrl@@KGPBUAFX_MSGMAP@@XZ:PROC ; CTabCtrl::GetThisMessageMap
EXTRN	?GetMessageMap@CTabCtrl@@MBEPBUAFX_MSGMAP@@XZ:PROC ; CTabCtrl::GetMessageMap
EXTRN	??_ECTabCtrl@@UAEPAXI@Z:PROC			; CTabCtrl::`vector deleting destructor'
EXTRN	??_ECExTabCtrl@@UAEPAXI@Z:PROC			; CExTabCtrl::`vector deleting destructor'
EXTRN	??_ECLoaderTabCtrl@@UAEPAXI@Z:PROC		; CLoaderTabCtrl::`vector deleting destructor'
EXTRN	@__security_check_cookie@4:PROC
EXTRN	___CxxFrameHandler3:PROC
EXTRN	_memset:PROC
EXTRN	??_7type_info@@6B@:QWORD			; type_info::`vftable'
EXTRN	___security_cookie:DWORD
;	COMDAT ?_OptionsStorage@?1??__local_stdio_printf_options@@9@4_KA
_BSS	SEGMENT
?_OptionsStorage@?1??__local_stdio_printf_options@@9@4_KA DQ 01H DUP (?) ; `__local_stdio_printf_options'::`2'::_OptionsStorage
_BSS	ENDS
;	COMDAT ??_R4CExLoadLib@@6B@
rdata$r	SEGMENT
??_R4CExLoadLib@@6B@ DD 00H				; CExLoadLib::`RTTI Complete Object Locator'
	DD	00H
	DD	00H
	DD	FLAT:??_R0?AVCExLoadLib@@@8
	DD	FLAT:??_R3CExLoadLib@@8
rdata$r	ENDS
;	COMDAT ??_R1A@?0A@EA@CExTabCtrl@@8
rdata$r	SEGMENT
??_R1A@?0A@EA@CExTabCtrl@@8 DD FLAT:??_R0?AVCExTabCtrl@@@8 ; CExTabCtrl::`RTTI Base Class Descriptor at (0,-1,0,64)'
	DD	04H
	DD	00H
	DD	0ffffffffH
	DD	00H
	DD	040H
	DD	FLAT:??_R3CExTabCtrl@@8
rdata$r	ENDS
;	COMDAT ??_R2CExTabCtrl@@8
rdata$r	SEGMENT
??_R2CExTabCtrl@@8 DD FLAT:??_R1A@?0A@EA@CExTabCtrl@@8	; CExTabCtrl::`RTTI Base Class Array'
	DD	FLAT:??_R1A@?0A@EA@CTabCtrl@@8
	DD	FLAT:??_R1A@?0A@EA@CWnd@@8
	DD	FLAT:??_R1A@?0A@EA@CCmdTarget@@8
	DD	FLAT:??_R1A@?0A@EA@CObject@@8
rdata$r	ENDS
;	COMDAT ??_R3CExTabCtrl@@8
rdata$r	SEGMENT
??_R3CExTabCtrl@@8 DD 00H				; CExTabCtrl::`RTTI Class Hierarchy Descriptor'
	DD	00H
	DD	05H
	DD	FLAT:??_R2CExTabCtrl@@8
rdata$r	ENDS
;	COMDAT ??_R0?AVCExTabCtrl@@@8
data$rs	SEGMENT
??_R0?AVCExTabCtrl@@@8 DD FLAT:??_7type_info@@6B@	; CExTabCtrl `RTTI Type Descriptor'
	DD	00H
	DB	'.?AVCExTabCtrl@@', 00H
data$rs	ENDS
;	COMDAT ??_R4CExTabCtrl@@6B@
rdata$r	SEGMENT
??_R4CExTabCtrl@@6B@ DD 00H				; CExTabCtrl::`RTTI Complete Object Locator'
	DD	00H
	DD	00H
	DD	FLAT:??_R0?AVCExTabCtrl@@@8
	DD	FLAT:??_R3CExTabCtrl@@8
rdata$r	ENDS
;	COMDAT ??_R2CExLoadLib@@8
rdata$r	SEGMENT
??_R2CExLoadLib@@8 DD FLAT:??_R1A@?0A@EA@CExLoadLib@@8	; CExLoadLib::`RTTI Base Class Array'
rdata$r	ENDS
;	COMDAT ??_R3CExLoadLib@@8
rdata$r	SEGMENT
??_R3CExLoadLib@@8 DD 00H				; CExLoadLib::`RTTI Class Hierarchy Descriptor'
	DD	00H
	DD	01H
	DD	FLAT:??_R2CExLoadLib@@8
rdata$r	ENDS
;	COMDAT ??_R0?AVCExLoadLib@@@8
data$rs	SEGMENT
??_R0?AVCExLoadLib@@@8 DD FLAT:??_7type_info@@6B@	; CExLoadLib `RTTI Type Descriptor'
	DD	00H
	DB	'.?AVCExLoadLib@@', 00H
data$rs	ENDS
;	COMDAT ??_R1A@?0A@EA@CExLoadLib@@8
rdata$r	SEGMENT
??_R1A@?0A@EA@CExLoadLib@@8 DD FLAT:??_R0?AVCExLoadLib@@@8 ; CExLoadLib::`RTTI Base Class Descriptor at (0,-1,0,64)'
	DD	00H
	DD	00H
	DD	0ffffffffH
	DD	00H
	DD	040H
	DD	FLAT:??_R3CExLoadLib@@8
rdata$r	ENDS
;	COMDAT ??_R1A@?0A@EA@CLoaderTabCtrl@@8
rdata$r	SEGMENT
??_R1A@?0A@EA@CLoaderTabCtrl@@8 DD FLAT:??_R0?AVCLoaderTabCtrl@@@8 ; CLoaderTabCtrl::`RTTI Base Class Descriptor at (0,-1,0,64)'
	DD	01H
	DD	00H
	DD	0ffffffffH
	DD	00H
	DD	040H
	DD	FLAT:??_R3CLoaderTabCtrl@@8
rdata$r	ENDS
;	COMDAT ??_R2CLoaderTabCtrl@@8
rdata$r	SEGMENT
??_R2CLoaderTabCtrl@@8 DD FLAT:??_R1A@?0A@EA@CLoaderTabCtrl@@8 ; CLoaderTabCtrl::`RTTI Base Class Array'
	DD	FLAT:??_R1A@?0A@EA@CExLoadLib@@8
rdata$r	ENDS
;	COMDAT ??_R3CLoaderTabCtrl@@8
rdata$r	SEGMENT
??_R3CLoaderTabCtrl@@8 DD 00H				; CLoaderTabCtrl::`RTTI Class Hierarchy Descriptor'
	DD	00H
	DD	02H
	DD	FLAT:??_R2CLoaderTabCtrl@@8
rdata$r	ENDS
;	COMDAT ??_R0?AVCLoaderTabCtrl@@@8
data$rs	SEGMENT
??_R0?AVCLoaderTabCtrl@@@8 DD FLAT:??_7type_info@@6B@	; CLoaderTabCtrl `RTTI Type Descriptor'
	DD	00H
	DB	'.?AVCLoaderTabCtrl@@', 00H
data$rs	ENDS
;	COMDAT ??_R4CLoaderTabCtrl@@6B@
rdata$r	SEGMENT
??_R4CLoaderTabCtrl@@6B@ DD 00H				; CLoaderTabCtrl::`RTTI Complete Object Locator'
	DD	00H
	DD	00H
	DD	FLAT:??_R0?AVCLoaderTabCtrl@@@8
	DD	FLAT:??_R3CLoaderTabCtrl@@8
rdata$r	ENDS
;	COMDAT ?messageMap@?1??GetThisMessageMap@CExTabCtrl@@KGPBUAFX_MSGMAP@@XZ@4U3@B
CONST	SEGMENT
?messageMap@?1??GetThisMessageMap@CExTabCtrl@@KGPBUAFX_MSGMAP@@XZ@4U3@B DD FLAT:?GetThisMessageMap@CTabCtrl@@KGPBUAFX_MSGMAP@@XZ ; `CExTabCtrl::GetThisMessageMap'::`2'::messageMap
	DD	FLAT:?_messageEntries@?1??GetThisMessageMap@CExTabCtrl@@KGPBUAFX_MSGMAP@@XZ@4QBUAFX_MSGMAP_ENTRY@@B
CONST	ENDS
;	COMDAT ?_messageEntries@?1??GetThisMessageMap@CExTabCtrl@@KGPBUAFX_MSGMAP@@XZ@4QBUAFX_MSGMAP_ENTRY@@B
CONST	SEGMENT
?_messageEntries@?1??GetThisMessageMap@CExTabCtrl@@KGPBUAFX_MSGMAP@@XZ@4QBUAFX_MSGMAP_ENTRY@@B DD 0200H ; `CExTabCtrl::GetThisMessageMap'::`2'::_messageEntries
	DD	00H
	DD	00H
	DD	00H
	DD	036H
	DD	FLAT:?OnMouseMove@CExTabCtrl@@IAEXIVCPoint@@@Z
	DD	014H
	DD	00H
	DD	00H
	DD	00H
	DD	01H
	DD	FLAT:?OnEraseBkgnd@CExTabCtrl@@IAEHPAVCDC@@@Z
	DD	0fH
	DD	00H
	DD	00H
	DD	00H
	DD	013H
	DD	FLAT:?OnPaint@CExTabCtrl@@IAEXXZ
	DD	0114H
	DD	00H
	DD	00H
	DD	00H
	DD	02bH
	DD	FLAT:?OnHScroll@CExTabCtrl@@IAEXIIPAVCScrollBar@@@Z
	DD	0bc4eH
	DD	0fdd9H
	DD	00H
	DD	00H
	DD	03fH
	DD	FLAT:?OnSelchange@CExTabCtrl@@IAEHPAUtagNMHDR@@PAJ@Z
	DD	0bc4eH
	DD	0fdd8H
	DD	00H
	DD	00H
	DD	03fH
	DD	FLAT:?OnSelchanging@CExTabCtrl@@IAEHPAUtagNMHDR@@PAJ@Z
	DD	02a3H
	DD	00H
	DD	00H
	DD	00H
	DD	0eH
	DD	FLAT:?OnMouseLeave@CExTabCtrl@@IAEJIJ@Z
	DD	08H
	DD	00H
	DD	00H
	DD	00H
	DD	024H
	DD	FLAT:?OnKillFocus@CExTabCtrl@@IAEXPAVCWnd@@@Z
	DD	07H
	DD	00H
	DD	00H
	DD	00H
	DD	024H
	DD	FLAT:?OnSetFocus@CExTabCtrl@@IAEXPAVCWnd@@@Z
	DD	05H
	DD	00H
	DD	00H
	DD	00H
	DD	01aH
	DD	FLAT:?OnSize@CExTabCtrl@@IAEXIHH@Z
	DD	00H
	DD	00H
	DD	00H
	DD	00H
	DD	00H
	DD	00H
CONST	ENDS
;	COMDAT ??_C@_09FLFHMPIG@Ex_OnSize@
CONST	SEGMENT
??_C@_09FLFHMPIG@Ex_OnSize@ DB 'Ex_OnSize', 00H		; `string'
CONST	ENDS
;	COMDAT ??_C@_0BB@EFMPIGEL@Ex_SetSTTabColor@
CONST	SEGMENT
??_C@_0BB@EFMPIGEL@Ex_SetSTTabColor@ DB 'Ex_SetSTTabColor', 00H ; `string'
CONST	ENDS
;	COMDAT ??_C@_0P@CBFCELKC@Ex_SetTabColor@
CONST	SEGMENT
??_C@_0P@CBFCELKC@Ex_SetTabColor@ DB 'Ex_SetTabColor', 00H ; `string'
CONST	ENDS
;	COMDAT ??_C@_0BG@MBAJHBJI@Ex_RemoveChildControl@
CONST	SEGMENT
??_C@_0BG@MBAJHBJI@Ex_RemoveChildControl@ DB 'Ex_RemoveChildControl', 00H ; `string'
CONST	ENDS
;	COMDAT ??_C@_0BD@LJJNIPDN@Ex_AddChildControl@
CONST	SEGMENT
??_C@_0BD@LJJNIPDN@Ex_AddChildControl@ DB 'Ex_AddChildControl', 00H ; `string'
CONST	ENDS
;	COMDAT ??_C@_0O@GGJGHEIK@Ex_WindowProc@
CONST	SEGMENT
??_C@_0O@GGJGHEIK@Ex_WindowProc@ DB 'Ex_WindowProc', 00H ; `string'
CONST	ENDS
;	COMDAT ??_C@_0O@LJPDFKAA@Ex_OnSetFocus@
CONST	SEGMENT
??_C@_0O@LJPDFKAA@Ex_OnSetFocus@ DB 'Ex_OnSetFocus', 00H ; `string'
CONST	ENDS
;	COMDAT ??_C@_0P@IGNJGKCF@Ex_OnKillFocus@
CONST	SEGMENT
??_C@_0P@IGNJGKCF@Ex_OnKillFocus@ DB 'Ex_OnKillFocus', 00H ; `string'
CONST	ENDS
;	COMDAT ??_C@_0BA@DKMGFMHM@Ex_OnMouseLeave@
CONST	SEGMENT
??_C@_0BA@DKMGFMHM@Ex_OnMouseLeave@ DB 'Ex_OnMouseLeave', 00H ; `string'
CONST	ENDS
;	COMDAT ??_C@_0BB@NHAPGINI@Ex_OnSelchanging@
CONST	SEGMENT
??_C@_0BB@NHAPGINI@Ex_OnSelchanging@ DB 'Ex_OnSelchanging', 00H ; `string'
CONST	ENDS
;	COMDAT ??_C@_0P@NBBKOIPH@Ex_OnSelchange@
CONST	SEGMENT
??_C@_0P@NBBKOIPH@Ex_OnSelchange@ DB 'Ex_OnSelchange', 00H ; `string'
CONST	ENDS
;	COMDAT ??_C@_0N@GMMOFGKF@Ex_OnHScroll@
CONST	SEGMENT
??_C@_0N@GMMOFGKF@Ex_OnHScroll@ DB 'Ex_OnHScroll', 00H	; `string'
CONST	ENDS
;	COMDAT ??_C@_0P@GEIOBKAF@Ex_OnMouseMove@
CONST	SEGMENT
??_C@_0P@GEIOBKAF@Ex_OnMouseMove@ DB 'Ex_OnMouseMove', 00H ; `string'
CONST	ENDS
;	COMDAT ??_C@_0P@OILFPJPK@Ex_InsertItem3@
CONST	SEGMENT
??_C@_0P@OILFPJPK@Ex_InsertItem3@ DB 'Ex_InsertItem3', 00H ; `string'
CONST	ENDS
;	COMDAT ??_C@_0P@PBKOMILL@Ex_InsertItem2@
CONST	SEGMENT
??_C@_0P@PBKOMILL@Ex_InsertItem2@ DB 'Ex_InsertItem2', 00H ; `string'
CONST	ENDS
;	COMDAT ??_C@_0P@NKIDJLHI@Ex_InsertItem1@
CONST	SEGMENT
??_C@_0P@NKIDJLHI@Ex_InsertItem1@ DB 'Ex_InsertItem1', 00H ; `string'
CONST	ENDS
;	COMDAT ??_C@_0M@FJAIDIBP@Ex_DrawItem@
CONST	SEGMENT
??_C@_0M@FJAIDIBP@Ex_DrawItem@ DB 'Ex_DrawItem', 00H	; `string'
CONST	ENDS
;	COMDAT ??_C@_0BA@IAGOHFI@Ex_OnEraseBkgnd@
CONST	SEGMENT
??_C@_0BA@IAGOHFI@Ex_OnEraseBkgnd@ DB 'Ex_OnEraseBkgnd', 00H ; `string'
CONST	ENDS
;	COMDAT ??_C@_0BF@NICANNDI@Ex_PreSubclassWindow@
CONST	SEGMENT
??_C@_0BF@NICANNDI@Ex_PreSubclassWindow@ DB 'Ex_PreSubclassWindow', 00H ; `string'
CONST	ENDS
;	COMDAT ??_C@_0P@JGKCCBBH@Ex_ExitTabCtrl@
CONST	SEGMENT
??_C@_0P@JGKCCBBH@Ex_ExitTabCtrl@ DB 'Ex_ExitTabCtrl', 00H ; `string'
CONST	ENDS
;	COMDAT ??_C@_0BE@DPIIFJGH@Ex_InitTabCtrlDraw2@
CONST	SEGMENT
??_C@_0BE@DPIIFJGH@Ex_InitTabCtrlDraw2@ DB 'Ex_InitTabCtrlDraw2', 00H ; `string'
CONST	ENDS
;	COMDAT ??_C@_0BD@PFIIOLCG@Ex_InitTabCtrlDraw@
CONST	SEGMENT
??_C@_0BD@PFIIOLCG@Ex_InitTabCtrlDraw@ DB 'Ex_InitTabCtrlDraw', 00H ; `string'
CONST	ENDS
;	COMDAT ??_C@_0O@PJGIAFNO@ExTabCtrl?4dll@
CONST	SEGMENT
??_C@_0O@PJGIAFNO@ExTabCtrl?4dll@ DB 'ExTabCtrl.dll', 00H ; `string'
CONST	ENDS
;	COMDAT ??_7CLoaderTabCtrl@@6B@
CONST	SEGMENT
??_7CLoaderTabCtrl@@6B@ DD FLAT:??_R4CLoaderTabCtrl@@6B@ ; CLoaderTabCtrl::`vftable'
	DD	FLAT:?LoadProcAddress@CLoaderTabCtrl@@UAEHXZ
	DD	FLAT:??_ECLoaderTabCtrl@@UAEPAXI@Z
CONST	ENDS
;	COMDAT ??_C@_0L@LHMOODNH@Ex_OnPaint@
CONST	SEGMENT
??_C@_0L@LHMOODNH@Ex_OnPaint@ DB 'Ex_OnPaint', 00H	; `string'
CONST	ENDS
;	COMDAT ??_C@_0BB@JBDOCKKP@Ex_ActionControl@
CONST	SEGMENT
??_C@_0BB@JBDOCKKP@Ex_ActionControl@ DB 'Ex_ActionControl', 00H ; `string'
CONST	ENDS
;	COMDAT ??_C@_05BMGBEOOC@?$CFs?2?$CFs@
CONST	SEGMENT
??_C@_05BMGBEOOC@?$CFs?2?$CFs@ DB '%s\%s', 00H		; `string'
CONST	ENDS
;	COMDAT ??_C@_04OHDBDCPJ@?2Dev@
CONST	SEGMENT
??_C@_04OHDBDCPJ@?2Dev@ DB '\Dev', 00H			; `string'
CONST	ENDS
;	COMDAT ??_C@_0CD@INEDAMEN@DLL?$FL?$CFs?$FN?$MA?$LL?5Load?G?R?5?$LM?v?5?$LO?x?$LN?$MA?$LE?O?$LE?Y?4?5?$FL@
CONST	SEGMENT
??_C@_0CD@INEDAMEN@DLL?$FL?$CFs?$FN?$MA?$LL?5Load?G?R?5?$LM?v?5?$LO?x?$LN?$MA?$LE?O?$LE?Y?4?5?$FL@ DB 'D'
	DB	'LL[%s]', 0c0H, 0bbH, ' Load', 0c7H, 0d2H, ' ', 0bcH, 0f6H, ' '
	DB	0beH, 0f8H, 0bdH, 0c0H, 0b4H, 0cfH, 0b4H, 0d9H, '. [%d]', 00H ; `string'
CONST	ENDS
;	COMDAT ??_7CExLoadLib@@6B@
CONST	SEGMENT
??_7CExLoadLib@@6B@ DD FLAT:??_R4CExLoadLib@@6B@	; CExLoadLib::`vftable'
	DD	FLAT:?LoadProcAddress@CExLoadLib@@UAEHXZ
CONST	ENDS
;	COMDAT ??_7CExTabCtrl@@6B@
CONST	SEGMENT
??_7CExTabCtrl@@6B@ DD FLAT:??_R4CExTabCtrl@@6B@	; CExTabCtrl::`vftable'
	DD	FLAT:?GetRuntimeClass@CTabCtrl@@UBEPAUCRuntimeClass@@XZ
	DD	FLAT:??_ECExTabCtrl@@UAEPAXI@Z
	DD	FLAT:?Serialize@CObject@@UAEXAAVCArchive@@@Z
	DD	FLAT:?AssertValid@CObject@@UBEXXZ
	DD	FLAT:?Dump@CObject@@UBEXAAVCDumpContext@@@Z
	DD	FLAT:?OnCmdMsg@CCmdTarget@@UAEHIHPAXPAUAFX_CMDHANDLERINFO@@@Z
	DD	FLAT:?OnFinalRelease@CWnd@@UAEXXZ
	DD	FLAT:?IsInvokeAllowed@CCmdTarget@@UAEHJ@Z
	DD	FLAT:?GetDispatchIID@CCmdTarget@@UAEHPAU_GUID@@@Z
	DD	FLAT:?GetTypeInfoCount@CCmdTarget@@UAEIXZ
	DD	FLAT:?GetTypeLibCache@CCmdTarget@@UAEPAVCTypeLibCache@@XZ
	DD	FLAT:?GetTypeLib@CCmdTarget@@UAEJKPAPAUITypeLib@@@Z
	DD	FLAT:?GetMessageMap@CExTabCtrl@@MBEPBUAFX_MSGMAP@@XZ
	DD	FLAT:?GetCommandMap@CCmdTarget@@MBEPBUAFX_OLECMDMAP@@XZ
	DD	FLAT:?GetDispatchMap@CCmdTarget@@MBEPBUAFX_DISPMAP@@XZ
	DD	FLAT:?GetConnectionMap@CCmdTarget@@MBEPBUAFX_CONNECTIONMAP@@XZ
	DD	FLAT:?GetInterfaceMap@CWnd@@MBEPBUAFX_INTERFACEMAP@@XZ
	DD	FLAT:?GetEventSinkMap@CCmdTarget@@MBEPBUAFX_EVENTSINKMAP@@XZ
	DD	FLAT:?OnCreateAggregates@CCmdTarget@@UAEHXZ
	DD	FLAT:?GetInterfaceHook@CCmdTarget@@UAEPAUIUnknown@@PBX@Z
	DD	FLAT:?GetExtraConnectionPoints@CCmdTarget@@MAEHPAVCPtrArray@@@Z
	DD	FLAT:?GetConnectionHook@CCmdTarget@@MAEPAUIConnectionPoint@@ABU_GUID@@@Z
	DD	FLAT:?PreSubclassWindow@CExTabCtrl@@MAEXXZ
	DD	FLAT:?Create@CWnd@@UAEHPBD0KABUtagRECT@@PAV1@IPAUCCreateContext@@@Z
	DD	FLAT:?CreateEx@CWnd@@UAEHKPBD0KABUtagRECT@@PAV1@IPAX@Z
	DD	FLAT:?CreateEx@CWnd@@UAEHKPBD0KHHHHPAUHWND__@@PAUHMENU__@@PAX@Z
	DD	FLAT:?DestroyWindow@CWnd@@UAEHXZ
	DD	FLAT:?PreCreateWindow@CWnd@@UAEHAAUtagCREATESTRUCTA@@@Z
	DD	FLAT:?CalcWindowRect@CWnd@@UAEXPAUtagRECT@@I@Z
	DD	FLAT:?GetMenu@CWnd@@UBEPAVCMenu@@XZ
	DD	FLAT:?SetMenu@CWnd@@UAEHPAVCMenu@@@Z
	DD	FLAT:?OnToolHitTest@CWnd@@UBEHVCPoint@@PAUtagTOOLINFOA@@@Z
	DD	FLAT:?GetScrollBarCtrl@CWnd@@UBEPAVCScrollBar@@H@Z
	DD	FLAT:?WinHelpA@CWnd@@UAEXKI@Z
	DD	FLAT:?HtmlHelpA@CWnd@@UAEXKI@Z
	DD	FLAT:?WinHelpInternal@CWnd@@UAEXKI@Z
	DD	FLAT:?ContinueModal@CWnd@@UAEHXZ
	DD	FLAT:?EndModalLoop@CWnd@@UAEXH@Z
	DD	FLAT:?OnDrawIconicThumbnailOrLivePreview@CWnd@@UAEXAAVCDC@@VCRect@@VCSize@@HAAH@Z
	DD	FLAT:?EnsureStdObj@CWnd@@UAEJXZ
	DD	FLAT:?get_accParent@CWnd@@UAEJPAPAUIDispatch@@@Z
	DD	FLAT:?get_accChildCount@CWnd@@UAEJPAJ@Z
	DD	FLAT:?get_accChild@CWnd@@UAEJUtagVARIANT@@PAPAUIDispatch@@@Z
	DD	FLAT:?get_accName@CWnd@@UAEJUtagVARIANT@@PAPA_W@Z
	DD	FLAT:?get_accValue@CWnd@@UAEJUtagVARIANT@@PAPA_W@Z
	DD	FLAT:?get_accDescription@CWnd@@UAEJUtagVARIANT@@PAPA_W@Z
	DD	FLAT:?get_accRole@CWnd@@UAEJUtagVARIANT@@PAU2@@Z
	DD	FLAT:?get_accState@CWnd@@UAEJUtagVARIANT@@PAU2@@Z
	DD	FLAT:?get_accHelp@CWnd@@UAEJUtagVARIANT@@PAPA_W@Z
	DD	FLAT:?get_accHelpTopic@CWnd@@UAEJPAPA_WUtagVARIANT@@PAJ@Z
	DD	FLAT:?get_accKeyboardShortcut@CWnd@@UAEJUtagVARIANT@@PAPA_W@Z
	DD	FLAT:?get_accFocus@CWnd@@UAEJPAUtagVARIANT@@@Z
	DD	FLAT:?get_accSelection@CWnd@@UAEJPAUtagVARIANT@@@Z
	DD	FLAT:?get_accDefaultAction@CWnd@@UAEJUtagVARIANT@@PAPA_W@Z
	DD	FLAT:?accSelect@CWnd@@UAEJJUtagVARIANT@@@Z
	DD	FLAT:?accLocation@CWnd@@UAEJPAJ000UtagVARIANT@@@Z
	DD	FLAT:?accNavigate@CWnd@@UAEJJUtagVARIANT@@PAU2@@Z
	DD	FLAT:?accHitTest@CWnd@@UAEJJJPAUtagVARIANT@@@Z
	DD	FLAT:?accDoDefaultAction@CWnd@@UAEJUtagVARIANT@@@Z
	DD	FLAT:?put_accName@CWnd@@UAEJUtagVARIANT@@PA_W@Z
	DD	FLAT:?put_accValue@CWnd@@UAEJUtagVARIANT@@PA_W@Z
	DD	FLAT:?SetProxy@CWnd@@UAEJPAUIAccessibleProxy@@@Z
	DD	FLAT:?CreateAccessibleProxy@CWnd@@UAEJIJPAJ@Z
	DD	FLAT:?OnCommand@CWnd@@MAEHIJ@Z
	DD	FLAT:?OnNotify@CWnd@@MAEHIJPAJ@Z
	DD	FLAT:?GetSuperWndProcAddr@CWnd@@MAEPAP6GJPAUHWND__@@IIJ@ZXZ
	DD	FLAT:?DoDataExchange@CWnd@@MAEXPAVCDataExchange@@@Z
	DD	FLAT:?BeginModalState@CWnd@@UAEXXZ
	DD	FLAT:?EndModalState@CWnd@@UAEXXZ
	DD	FLAT:?PreTranslateMessage@CWnd@@UAEHPAUtagMSG@@@Z
	DD	FLAT:?OnAmbientProperty@CWnd@@UAEHPAVCOleControlSite@@JPAUtagVARIANT@@@Z
	DD	FLAT:?WindowProc@CExTabCtrl@@MAEJIIJ@Z
	DD	FLAT:?OnWndMsg@CWnd@@MAEHIIJPAJ@Z
	DD	FLAT:?DefWindowProcA@CWnd@@MAEJIIJ@Z
	DD	FLAT:?PostNcDestroy@CWnd@@MAEXXZ
	DD	FLAT:?OnChildNotify@CTabCtrl@@MAEHIIJPAJ@Z
	DD	FLAT:?OnTouchInputs@CWnd@@MAEHIPAUtagTOUCHINPUT@@@Z
	DD	FLAT:?OnTouchInput@CWnd@@MAEHVCPoint@@HHPAUtagTOUCHINPUT@@@Z
	DD	FLAT:?GetGestureStatus@CWnd@@MAEKVCPoint@@@Z
	DD	FLAT:?OnGestureZoom@CWnd@@MAEHVCPoint@@J@Z
	DD	FLAT:?OnGesturePan@CWnd@@MAEHVCPoint@@0@Z
	DD	FLAT:?OnGestureRotate@CWnd@@MAEHVCPoint@@N@Z
	DD	FLAT:?OnGestureTwoFingerTap@CWnd@@MAEHVCPoint@@@Z
	DD	FLAT:?OnGesturePressAndTap@CWnd@@MAEHVCPoint@@J@Z
	DD	FLAT:?ResizeDynamicLayout@CWnd@@MAEXXZ
	DD	FLAT:?CheckAutoCenter@CWnd@@UAEHXZ
	DD	FLAT:?IsFrameWnd@CWnd@@UBEHXZ
	DD	FLAT:?CreateControlContainer@CWnd@@MAEHPAPAVCOleControlContainer@@@Z
	DD	FLAT:?CreateControlSite@CWnd@@MAEHPAVCOleControlContainer@@PAPAVCOleControlSite@@IABU_GUID@@@Z
	DD	FLAT:?SetOccDialogInfo@CWnd@@MAEHPAU_AFX_OCC_DIALOG_INFO@@@Z
	DD	FLAT:?GetOccDialogInfo@CWnd@@MAEPAU_AFX_OCC_DIALOG_INFO@@XZ
	DD	FLAT:?Create@CTabCtrl@@UAEHKABUtagRECT@@PAVCWnd@@I@Z
	DD	FLAT:?CreateEx@CTabCtrl@@UAEHKKABUtagRECT@@PAVCWnd@@I@Z
	DD	FLAT:?DrawItem@CExTabCtrl@@MAEXPAUtagDRAWITEMSTRUCT@@@Z
CONST	ENDS
;	COMDAT ??_R1A@?0A@EA@CTabCtrl@@8
rdata$r	SEGMENT
??_R1A@?0A@EA@CTabCtrl@@8 DD FLAT:??_R0?AVCTabCtrl@@@8	; CTabCtrl::`RTTI Base Class Descriptor at (0,-1,0,64)'
	DD	03H
	DD	00H
	DD	0ffffffffH
	DD	00H
	DD	040H
	DD	FLAT:??_R3CTabCtrl@@8
rdata$r	ENDS
;	COMDAT ??_R2CTabCtrl@@8
rdata$r	SEGMENT
??_R2CTabCtrl@@8 DD FLAT:??_R1A@?0A@EA@CTabCtrl@@8	; CTabCtrl::`RTTI Base Class Array'
	DD	FLAT:??_R1A@?0A@EA@CWnd@@8
	DD	FLAT:??_R1A@?0A@EA@CCmdTarget@@8
	DD	FLAT:??_R1A@?0A@EA@CObject@@8
rdata$r	ENDS
;	COMDAT ??_R3CTabCtrl@@8
rdata$r	SEGMENT
??_R3CTabCtrl@@8 DD 00H					; CTabCtrl::`RTTI Class Hierarchy Descriptor'
	DD	00H
	DD	04H
	DD	FLAT:??_R2CTabCtrl@@8
rdata$r	ENDS
;	COMDAT ??_R0?AVCTabCtrl@@@8
data$rs	SEGMENT
??_R0?AVCTabCtrl@@@8 DD FLAT:??_7type_info@@6B@		; CTabCtrl `RTTI Type Descriptor'
	DD	00H
	DB	'.?AVCTabCtrl@@', 00H
data$rs	ENDS
;	COMDAT ??_R4CTabCtrl@@6B@
rdata$r	SEGMENT
??_R4CTabCtrl@@6B@ DD 00H				; CTabCtrl::`RTTI Complete Object Locator'
	DD	00H
	DD	00H
	DD	FLAT:??_R0?AVCTabCtrl@@@8
	DD	FLAT:??_R3CTabCtrl@@8
rdata$r	ENDS
;	COMDAT ??_R2CCmdTarget@@8
rdata$r	SEGMENT
??_R2CCmdTarget@@8 DD FLAT:??_R1A@?0A@EA@CCmdTarget@@8	; CCmdTarget::`RTTI Base Class Array'
	DD	FLAT:??_R1A@?0A@EA@CObject@@8
rdata$r	ENDS
;	COMDAT ??_R3CCmdTarget@@8
rdata$r	SEGMENT
??_R3CCmdTarget@@8 DD 00H				; CCmdTarget::`RTTI Class Hierarchy Descriptor'
	DD	00H
	DD	02H
	DD	FLAT:??_R2CCmdTarget@@8
rdata$r	ENDS
;	COMDAT ??_R0?AVCCmdTarget@@@8
data$rs	SEGMENT
??_R0?AVCCmdTarget@@@8 DD FLAT:??_7type_info@@6B@	; CCmdTarget `RTTI Type Descriptor'
	DD	00H
	DB	'.?AVCCmdTarget@@', 00H
data$rs	ENDS
;	COMDAT ??_R1A@?0A@EA@CCmdTarget@@8
rdata$r	SEGMENT
??_R1A@?0A@EA@CCmdTarget@@8 DD FLAT:??_R0?AVCCmdTarget@@@8 ; CCmdTarget::`RTTI Base Class Descriptor at (0,-1,0,64)'
	DD	01H
	DD	00H
	DD	0ffffffffH
	DD	00H
	DD	040H
	DD	FLAT:??_R3CCmdTarget@@8
rdata$r	ENDS
;	COMDAT ??_R2CWnd@@8
rdata$r	SEGMENT
??_R2CWnd@@8 DD	FLAT:??_R1A@?0A@EA@CWnd@@8		; CWnd::`RTTI Base Class Array'
	DD	FLAT:??_R1A@?0A@EA@CCmdTarget@@8
	DD	FLAT:??_R1A@?0A@EA@CObject@@8
rdata$r	ENDS
;	COMDAT ??_R3CWnd@@8
rdata$r	SEGMENT
??_R3CWnd@@8 DD	00H					; CWnd::`RTTI Class Hierarchy Descriptor'
	DD	00H
	DD	03H
	DD	FLAT:??_R2CWnd@@8
rdata$r	ENDS
;	COMDAT ??_R0?AVCWnd@@@8
data$rs	SEGMENT
??_R0?AVCWnd@@@8 DD FLAT:??_7type_info@@6B@		; CWnd `RTTI Type Descriptor'
	DD	00H
	DB	'.?AVCWnd@@', 00H
data$rs	ENDS
;	COMDAT ??_R1A@?0A@EA@CWnd@@8
rdata$r	SEGMENT
??_R1A@?0A@EA@CWnd@@8 DD FLAT:??_R0?AVCWnd@@@8		; CWnd::`RTTI Base Class Descriptor at (0,-1,0,64)'
	DD	02H
	DD	00H
	DD	0ffffffffH
	DD	00H
	DD	040H
	DD	FLAT:??_R3CWnd@@8
rdata$r	ENDS
;	COMDAT ??_R1A@?0A@EA@CObject@@8
rdata$r	SEGMENT
??_R1A@?0A@EA@CObject@@8 DD FLAT:??_R0?AVCObject@@@8	; CObject::`RTTI Base Class Descriptor at (0,-1,0,64)'
	DD	00H
	DD	00H
	DD	0ffffffffH
	DD	00H
	DD	040H
	DD	FLAT:??_R3CObject@@8
rdata$r	ENDS
;	COMDAT ??_R2CObject@@8
rdata$r	SEGMENT
??_R2CObject@@8 DD FLAT:??_R1A@?0A@EA@CObject@@8	; CObject::`RTTI Base Class Array'
rdata$r	ENDS
;	COMDAT ??_R3CObject@@8
rdata$r	SEGMENT
??_R3CObject@@8 DD 00H					; CObject::`RTTI Class Hierarchy Descriptor'
	DD	00H
	DD	01H
	DD	FLAT:??_R2CObject@@8
rdata$r	ENDS
;	COMDAT ??_R0?AVCObject@@@8
data$rs	SEGMENT
??_R0?AVCObject@@@8 DD FLAT:??_7type_info@@6B@		; CObject `RTTI Type Descriptor'
	DD	00H
	DB	'.?AVCObject@@', 00H
data$rs	ENDS
;	COMDAT ??_7CTabCtrl@@6B@
CONST	SEGMENT
??_7CTabCtrl@@6B@ DD FLAT:??_R4CTabCtrl@@6B@		; CTabCtrl::`vftable'
	DD	FLAT:?GetRuntimeClass@CTabCtrl@@UBEPAUCRuntimeClass@@XZ
	DD	FLAT:??_ECTabCtrl@@UAEPAXI@Z
	DD	FLAT:?Serialize@CObject@@UAEXAAVCArchive@@@Z
	DD	FLAT:?AssertValid@CObject@@UBEXXZ
	DD	FLAT:?Dump@CObject@@UBEXAAVCDumpContext@@@Z
	DD	FLAT:?OnCmdMsg@CCmdTarget@@UAEHIHPAXPAUAFX_CMDHANDLERINFO@@@Z
	DD	FLAT:?OnFinalRelease@CWnd@@UAEXXZ
	DD	FLAT:?IsInvokeAllowed@CCmdTarget@@UAEHJ@Z
	DD	FLAT:?GetDispatchIID@CCmdTarget@@UAEHPAU_GUID@@@Z
	DD	FLAT:?GetTypeInfoCount@CCmdTarget@@UAEIXZ
	DD	FLAT:?GetTypeLibCache@CCmdTarget@@UAEPAVCTypeLibCache@@XZ
	DD	FLAT:?GetTypeLib@CCmdTarget@@UAEJKPAPAUITypeLib@@@Z
	DD	FLAT:?GetMessageMap@CTabCtrl@@MBEPBUAFX_MSGMAP@@XZ
	DD	FLAT:?GetCommandMap@CCmdTarget@@MBEPBUAFX_OLECMDMAP@@XZ
	DD	FLAT:?GetDispatchMap@CCmdTarget@@MBEPBUAFX_DISPMAP@@XZ
	DD	FLAT:?GetConnectionMap@CCmdTarget@@MBEPBUAFX_CONNECTIONMAP@@XZ
	DD	FLAT:?GetInterfaceMap@CWnd@@MBEPBUAFX_INTERFACEMAP@@XZ
	DD	FLAT:?GetEventSinkMap@CCmdTarget@@MBEPBUAFX_EVENTSINKMAP@@XZ
	DD	FLAT:?OnCreateAggregates@CCmdTarget@@UAEHXZ
	DD	FLAT:?GetInterfaceHook@CCmdTarget@@UAEPAUIUnknown@@PBX@Z
	DD	FLAT:?GetExtraConnectionPoints@CCmdTarget@@MAEHPAVCPtrArray@@@Z
	DD	FLAT:?GetConnectionHook@CCmdTarget@@MAEPAUIConnectionPoint@@ABU_GUID@@@Z
	DD	FLAT:?PreSubclassWindow@CWnd@@UAEXXZ
	DD	FLAT:?Create@CWnd@@UAEHPBD0KABUtagRECT@@PAV1@IPAUCCreateContext@@@Z
	DD	FLAT:?CreateEx@CWnd@@UAEHKPBD0KABUtagRECT@@PAV1@IPAX@Z
	DD	FLAT:?CreateEx@CWnd@@UAEHKPBD0KHHHHPAUHWND__@@PAUHMENU__@@PAX@Z
	DD	FLAT:?DestroyWindow@CWnd@@UAEHXZ
	DD	FLAT:?PreCreateWindow@CWnd@@UAEHAAUtagCREATESTRUCTA@@@Z
	DD	FLAT:?CalcWindowRect@CWnd@@UAEXPAUtagRECT@@I@Z
	DD	FLAT:?GetMenu@CWnd@@UBEPAVCMenu@@XZ
	DD	FLAT:?SetMenu@CWnd@@UAEHPAVCMenu@@@Z
	DD	FLAT:?OnToolHitTest@CWnd@@UBEHVCPoint@@PAUtagTOOLINFOA@@@Z
	DD	FLAT:?GetScrollBarCtrl@CWnd@@UBEPAVCScrollBar@@H@Z
	DD	FLAT:?WinHelpA@CWnd@@UAEXKI@Z
	DD	FLAT:?HtmlHelpA@CWnd@@UAEXKI@Z
	DD	FLAT:?WinHelpInternal@CWnd@@UAEXKI@Z
	DD	FLAT:?ContinueModal@CWnd@@UAEHXZ
	DD	FLAT:?EndModalLoop@CWnd@@UAEXH@Z
	DD	FLAT:?OnDrawIconicThumbnailOrLivePreview@CWnd@@UAEXAAVCDC@@VCRect@@VCSize@@HAAH@Z
	DD	FLAT:?EnsureStdObj@CWnd@@UAEJXZ
	DD	FLAT:?get_accParent@CWnd@@UAEJPAPAUIDispatch@@@Z
	DD	FLAT:?get_accChildCount@CWnd@@UAEJPAJ@Z
	DD	FLAT:?get_accChild@CWnd@@UAEJUtagVARIANT@@PAPAUIDispatch@@@Z
	DD	FLAT:?get_accName@CWnd@@UAEJUtagVARIANT@@PAPA_W@Z
	DD	FLAT:?get_accValue@CWnd@@UAEJUtagVARIANT@@PAPA_W@Z
	DD	FLAT:?get_accDescription@CWnd@@UAEJUtagVARIANT@@PAPA_W@Z
	DD	FLAT:?get_accRole@CWnd@@UAEJUtagVARIANT@@PAU2@@Z
	DD	FLAT:?get_accState@CWnd@@UAEJUtagVARIANT@@PAU2@@Z
	DD	FLAT:?get_accHelp@CWnd@@UAEJUtagVARIANT@@PAPA_W@Z
	DD	FLAT:?get_accHelpTopic@CWnd@@UAEJPAPA_WUtagVARIANT@@PAJ@Z
	DD	FLAT:?get_accKeyboardShortcut@CWnd@@UAEJUtagVARIANT@@PAPA_W@Z
	DD	FLAT:?get_accFocus@CWnd@@UAEJPAUtagVARIANT@@@Z
	DD	FLAT:?get_accSelection@CWnd@@UAEJPAUtagVARIANT@@@Z
	DD	FLAT:?get_accDefaultAction@CWnd@@UAEJUtagVARIANT@@PAPA_W@Z
	DD	FLAT:?accSelect@CWnd@@UAEJJUtagVARIANT@@@Z
	DD	FLAT:?accLocation@CWnd@@UAEJPAJ000UtagVARIANT@@@Z
	DD	FLAT:?accNavigate@CWnd@@UAEJJUtagVARIANT@@PAU2@@Z
	DD	FLAT:?accHitTest@CWnd@@UAEJJJPAUtagVARIANT@@@Z
	DD	FLAT:?accDoDefaultAction@CWnd@@UAEJUtagVARIANT@@@Z
	DD	FLAT:?put_accName@CWnd@@UAEJUtagVARIANT@@PA_W@Z
	DD	FLAT:?put_accValue@CWnd@@UAEJUtagVARIANT@@PA_W@Z
	DD	FLAT:?SetProxy@CWnd@@UAEJPAUIAccessibleProxy@@@Z
	DD	FLAT:?CreateAccessibleProxy@CWnd@@UAEJIJPAJ@Z
	DD	FLAT:?OnCommand@CWnd@@MAEHIJ@Z
	DD	FLAT:?OnNotify@CWnd@@MAEHIJPAJ@Z
	DD	FLAT:?GetSuperWndProcAddr@CWnd@@MAEPAP6GJPAUHWND__@@IIJ@ZXZ
	DD	FLAT:?DoDataExchange@CWnd@@MAEXPAVCDataExchange@@@Z
	DD	FLAT:?BeginModalState@CWnd@@UAEXXZ
	DD	FLAT:?EndModalState@CWnd@@UAEXXZ
	DD	FLAT:?PreTranslateMessage@CWnd@@UAEHPAUtagMSG@@@Z
	DD	FLAT:?OnAmbientProperty@CWnd@@UAEHPAVCOleControlSite@@JPAUtagVARIANT@@@Z
	DD	FLAT:?WindowProc@CWnd@@MAEJIIJ@Z
	DD	FLAT:?OnWndMsg@CWnd@@MAEHIIJPAJ@Z
	DD	FLAT:?DefWindowProcA@CWnd@@MAEJIIJ@Z
	DD	FLAT:?PostNcDestroy@CWnd@@MAEXXZ
	DD	FLAT:?OnChildNotify@CTabCtrl@@MAEHIIJPAJ@Z
	DD	FLAT:?OnTouchInputs@CWnd@@MAEHIPAUtagTOUCHINPUT@@@Z
	DD	FLAT:?OnTouchInput@CWnd@@MAEHVCPoint@@HHPAUtagTOUCHINPUT@@@Z
	DD	FLAT:?GetGestureStatus@CWnd@@MAEKVCPoint@@@Z
	DD	FLAT:?OnGestureZoom@CWnd@@MAEHVCPoint@@J@Z
	DD	FLAT:?OnGesturePan@CWnd@@MAEHVCPoint@@0@Z
	DD	FLAT:?OnGestureRotate@CWnd@@MAEHVCPoint@@N@Z
	DD	FLAT:?OnGestureTwoFingerTap@CWnd@@MAEHVCPoint@@@Z
	DD	FLAT:?OnGesturePressAndTap@CWnd@@MAEHVCPoint@@J@Z
	DD	FLAT:?ResizeDynamicLayout@CWnd@@MAEXXZ
	DD	FLAT:?CheckAutoCenter@CWnd@@UAEHXZ
	DD	FLAT:?IsFrameWnd@CWnd@@UBEHXZ
	DD	FLAT:?CreateControlContainer@CWnd@@MAEHPAPAVCOleControlContainer@@@Z
	DD	FLAT:?CreateControlSite@CWnd@@MAEHPAVCOleControlContainer@@PAPAVCOleControlSite@@IABU_GUID@@@Z
	DD	FLAT:?SetOccDialogInfo@CWnd@@MAEHPAU_AFX_OCC_DIALOG_INFO@@@Z
	DD	FLAT:?GetOccDialogInfo@CWnd@@MAEPAU_AFX_OCC_DIALOG_INFO@@XZ
	DD	FLAT:?Create@CTabCtrl@@UAEHKABUtagRECT@@PAVCWnd@@I@Z
	DD	FLAT:?CreateEx@CTabCtrl@@UAEHKKABUtagRECT@@PAVCWnd@@I@Z
	DD	FLAT:?DrawItem@CTabCtrl@@UAEXPAUtagDRAWITEMSTRUCT@@@Z
CONST	ENDS
;	COMDAT xdata$x
xdata$x	SEGMENT
__unwindtable$??_GCLoaderTabCtrl@@UAEPAXI@Z DD 0ffffffffH
	DD	FLAT:___std_terminate
__ehfuncinfo$??_GCLoaderTabCtrl@@UAEPAXI@Z DD 019930522H
	DD	01H
	DD	FLAT:__unwindtable$??_GCLoaderTabCtrl@@UAEPAXI@Z
	DD	2 DUP(00H)
	DD	2 DUP(00H)
	DD	00H
	DD	05H
xdata$x	ENDS
;	COMDAT xdata$x
xdata$x	SEGMENT
__ehfuncinfo$??1CLoaderTabCtrl@@UAE@XZ DD 019930522H
	DD	00H
	DD	00H
	DD	2 DUP(00H)
	DD	2 DUP(00H)
	DD	00H
	DD	05H
xdata$x	ENDS
;	COMDAT xdata$x
xdata$x	SEGMENT
__ehfuncinfo$??0CLoaderTabCtrl@@QAE@PAXH@Z DD 019930522H
	DD	05H
	DD	FLAT:__unwindtable$??0CLoaderTabCtrl@@QAE@PAXH@Z
	DD	2 DUP(00H)
	DD	2 DUP(00H)
	DD	00H
	DD	01H
__unwindtable$??0CLoaderTabCtrl@@QAE@PAXH@Z DD 0ffffffffH
	DD	FLAT:__unwindfunclet$??0CLoaderTabCtrl@@QAE@PAXH@Z$0
	DD	00H
	DD	FLAT:__unwindfunclet$??0CLoaderTabCtrl@@QAE@PAXH@Z$1
	DD	01H
	DD	FLAT:__unwindfunclet$??0CLoaderTabCtrl@@QAE@PAXH@Z$2
	DD	02H
	DD	FLAT:__unwindfunclet$??0CLoaderTabCtrl@@QAE@PAXH@Z$3
	DD	02H
	DD	FLAT:__unwindfunclet$??0CLoaderTabCtrl@@QAE@PAXH@Z$4
xdata$x	ENDS
;	COMDAT xdata$x
xdata$x	SEGMENT
__unwindtable$?GetDir_DrfnBin@@YAXAAV?$CStringT@DV?$StrTraitMFC_DLL@DV?$ChTraitsCRT@D@ATL@@@@@ATL@@@Z DD 0ffffffffH
	DD	FLAT:__unwindfunclet$?GetDir_DrfnBin@@YAXAAV?$CStringT@DV?$StrTraitMFC_DLL@DV?$ChTraitsCRT@D@ATL@@@@@ATL@@@Z$0
	DD	00H
	DD	FLAT:__unwindfunclet$?GetDir_DrfnBin@@YAXAAV?$CStringT@DV?$StrTraitMFC_DLL@DV?$ChTraitsCRT@D@ATL@@@@@ATL@@@Z$1
	DD	00H
	DD	FLAT:__unwindfunclet$?GetDir_DrfnBin@@YAXAAV?$CStringT@DV?$StrTraitMFC_DLL@DV?$ChTraitsCRT@D@ATL@@@@@ATL@@@Z$2
__ehfuncinfo$?GetDir_DrfnBin@@YAXAAV?$CStringT@DV?$StrTraitMFC_DLL@DV?$ChTraitsCRT@D@ATL@@@@@ATL@@@Z DD 019930522H
	DD	03H
	DD	FLAT:__unwindtable$?GetDir_DrfnBin@@YAXAAV?$CStringT@DV?$StrTraitMFC_DLL@DV?$ChTraitsCRT@D@ATL@@@@@ATL@@@Z
	DD	2 DUP(00H)
	DD	2 DUP(00H)
	DD	00H
	DD	01H
xdata$x	ENDS
;	COMDAT xdata$x
xdata$x	SEGMENT
__unwindtable$?GetDir_DrfnRoot@@YAXAAV?$CStringT@DV?$StrTraitMFC_DLL@DV?$ChTraitsCRT@D@ATL@@@@@ATL@@@Z DD 0ffffffffH
	DD	FLAT:__unwindfunclet$?GetDir_DrfnRoot@@YAXAAV?$CStringT@DV?$StrTraitMFC_DLL@DV?$ChTraitsCRT@D@ATL@@@@@ATL@@@Z$0
	DD	00H
	DD	FLAT:__unwindfunclet$?GetDir_DrfnRoot@@YAXAAV?$CStringT@DV?$StrTraitMFC_DLL@DV?$ChTraitsCRT@D@ATL@@@@@ATL@@@Z$1
	DD	00H
	DD	FLAT:__unwindfunclet$?GetDir_DrfnRoot@@YAXAAV?$CStringT@DV?$StrTraitMFC_DLL@DV?$ChTraitsCRT@D@ATL@@@@@ATL@@@Z$2
__ehfuncinfo$?GetDir_DrfnRoot@@YAXAAV?$CStringT@DV?$StrTraitMFC_DLL@DV?$ChTraitsCRT@D@ATL@@@@@ATL@@@Z DD 019930522H
	DD	03H
	DD	FLAT:__unwindtable$?GetDir_DrfnRoot@@YAXAAV?$CStringT@DV?$StrTraitMFC_DLL@DV?$ChTraitsCRT@D@ATL@@@@@ATL@@@Z
	DD	2 DUP(00H)
	DD	2 DUP(00H)
	DD	00H
	DD	01H
xdata$x	ENDS
;	COMDAT xdata$x
xdata$x	SEGMENT
__unwindtable$?OnPaint@CExTabCtrl@@IAEXXZ DD 0ffffffffH
	DD	FLAT:__unwindfunclet$?OnPaint@CExTabCtrl@@IAEXXZ$0
__ehfuncinfo$?OnPaint@CExTabCtrl@@IAEXXZ DD 019930522H
	DD	01H
	DD	FLAT:__unwindtable$?OnPaint@CExTabCtrl@@IAEXXZ
	DD	2 DUP(00H)
	DD	2 DUP(00H)
	DD	00H
	DD	01H
xdata$x	ENDS
;	COMDAT xdata$x
xdata$x	SEGMENT
__unwindtable$??0CExTabCtrl@@QAE@H@Z DD 0ffffffffH
	DD	FLAT:__unwindfunclet$??0CExTabCtrl@@QAE@H@Z$0
	DD	00H
	DD	FLAT:__unwindfunclet$??0CExTabCtrl@@QAE@H@Z$1
__ehfuncinfo$??0CExTabCtrl@@QAE@H@Z DD 019930522H
	DD	02H
	DD	FLAT:__unwindtable$??0CExTabCtrl@@QAE@H@Z
	DD	2 DUP(00H)
	DD	2 DUP(00H)
	DD	00H
	DD	01H
xdata$x	ENDS
; Function compile flags: /Ogtp
; File D:\git\src\IBK\IBK_DRFN\ProjSrc\SrcDrfn\Chart\ExControl\Include\LoadHelper.h
; File D:\git\src\IBK\IBK_DRFN\ProjSrc\SrcDrfn\Chart\ExControl\Include\BaseLoadHelper.h
;	COMDAT ??_GCLoaderTabCtrl@@UAEPAXI@Z
_TEXT	SEGMENT
__$EHRec$ = -12						; size = 12
___flags$ = 8						; size = 4
??_GCLoaderTabCtrl@@UAEPAXI@Z PROC			; CLoaderTabCtrl::`scalar deleting destructor', COMDAT
; _this$ = ecx
  00000	55		 push	 ebp
  00001	8b ec		 mov	 ebp, esp
  00003	6a ff		 push	 -1
  00005	68 00 00 00 00	 push	 __ehhandler$??_GCLoaderTabCtrl@@UAEPAXI@Z
  0000a	64 a1 00 00 00
	00		 mov	 eax, DWORD PTR fs:0
  00010	50		 push	 eax
  00011	56		 push	 esi
  00012	a1 00 00 00 00	 mov	 eax, DWORD PTR ___security_cookie
  00017	33 c5		 xor	 eax, ebp
  00019	50		 push	 eax
  0001a	8d 45 f4	 lea	 eax, DWORD PTR __$EHRec$[ebp]
  0001d	64 a3 00 00 00
	00		 mov	 DWORD PTR fs:0, eax
  00023	8b f1		 mov	 esi, ecx
; File D:\git\src\IBK\IBK_DRFN\ProjSrc\SrcDrfn\Chart\ExControl\Include\LoadHelper.h

; 2657 : 		if(m_hLib)

  00025	8b 46 04	 mov	 eax, DWORD PTR [esi+4]
  00028	c7 45 fc 00 00
	00 00		 mov	 DWORD PTR __$EHRec$[ebp+8], 0
  0002f	c7 06 00 00 00
	00		 mov	 DWORD PTR [esi], OFFSET ??_7CLoaderTabCtrl@@6B@
  00035	85 c0		 test	 eax, eax
  00037	74 14		 je	 SHORT $LN5@scalar

; 2658 : 			pExitTabCtrl(m_lpPointer);

  00039	ff b6 0c 01 00
	00		 push	 DWORD PTR [esi+268]
  0003f	8b 86 1c 01 00
	00		 mov	 eax, DWORD PTR [esi+284]
  00045	ff d0		 call	 eax
  00047	8b 46 04	 mov	 eax, DWORD PTR [esi+4]
  0004a	83 c4 04	 add	 esp, 4
$LN5@scalar:
; File D:\git\src\IBK\IBK_DRFN\ProjSrc\SrcDrfn\Chart\ExControl\Include\BaseLoadHelper.h

; 13   : 	{

  0004d	c7 06 00 00 00
	00		 mov	 DWORD PTR [esi], OFFSET ??_7CExLoadLib@@6B@

; 53   : 		if(!m_hLib)

  00053	85 c0		 test	 eax, eax
  00055	74 0e		 je	 SHORT $LN10@scalar

; 54   : 			return TRUE;
; 55   : 
; 56   : 		BOOL bResult = ::FreeLibrary(m_hLib);

  00057	50		 push	 eax
  00058	ff 15 00 00 00
	00		 call	 DWORD PTR __imp__FreeLibrary@4

; 57   : 		
; 58   : 		m_hLib = NULL;

  0005e	c7 46 04 00 00
	00 00		 mov	 DWORD PTR [esi+4], 0
$LN10@scalar:
  00065	f6 45 08 01	 test	 BYTE PTR ___flags$[ebp], 1
  00069	74 0e		 je	 SHORT $LN13@scalar
  0006b	68 70 01 00 00	 push	 368			; 00000170H
  00070	56		 push	 esi
  00071	e8 00 00 00 00	 call	 ??3@YAXPAXI@Z		; operator delete
  00076	83 c4 08	 add	 esp, 8
$LN13@scalar:
  00079	8b c6		 mov	 eax, esi
  0007b	8b 4d f4	 mov	 ecx, DWORD PTR __$EHRec$[ebp]
  0007e	64 89 0d 00 00
	00 00		 mov	 DWORD PTR fs:0, ecx
  00085	59		 pop	 ecx
  00086	5e		 pop	 esi
  00087	8b e5		 mov	 esp, ebp
  00089	5d		 pop	 ebp
  0008a	c2 04 00	 ret	 4
  0008d	cc		 int	 3
  0008e	cc		 int	 3
  0008f	cc		 int	 3
  00090	cc		 int	 3
  00091	cc		 int	 3
_TEXT	ENDS
;	COMDAT text$x
text$x	SEGMENT
__ehhandler$??_GCLoaderTabCtrl@@UAEPAXI@Z:
  00000	90		 npad	 1
  00001	90		 npad	 1
  00002	8b 54 24 08	 mov	 edx, DWORD PTR [esp+8]
  00006	8d 42 0c	 lea	 eax, DWORD PTR [edx+12]
  00009	8b 4a f8	 mov	 ecx, DWORD PTR [edx-8]
  0000c	33 c8		 xor	 ecx, eax
  0000e	e8 00 00 00 00	 call	 @__security_check_cookie@4
  00013	b8 00 00 00 00	 mov	 eax, OFFSET __ehfuncinfo$??_GCLoaderTabCtrl@@UAEPAXI@Z
  00018	e9 00 00 00 00	 jmp	 ___CxxFrameHandler3
text$x	ENDS
??_GCLoaderTabCtrl@@UAEPAXI@Z ENDP			; CLoaderTabCtrl::`scalar deleting destructor'
; Function compile flags: /Ogtp
; File D:\git\src\IBK\IBK_DRFN\ProjSrc\SrcDrfn\Chart\ExControl\Include\LoadHelper.h
;	COMDAT ?LoadProcAddress@CLoaderTabCtrl@@UAEHXZ
_TEXT	SEGMENT
?LoadProcAddress@CLoaderTabCtrl@@UAEHXZ PROC		; CLoaderTabCtrl::LoadProcAddress, COMDAT
; _this$ = ecx

; 2662 : 	{

  00000	57		 push	 edi
  00001	8b f9		 mov	 edi, ecx

; 2663 : 		if(!m_hLib)

  00003	8b 47 04	 mov	 eax, DWORD PTR [edi+4]
  00006	85 c0		 test	 eax, eax
  00008	75 02		 jne	 SHORT $LN2@LoadProcAd
  0000a	5f		 pop	 edi

; 2695 : 	}

  0000b	c3		 ret	 0
$LN2@LoadProcAd:
  0000c	56		 push	 esi

; 2664 : 		{
; 2665 : 			TRACE0("CLoaderTabCtrl GetProcAddress에서 Load에러 발생");
; 2666 : 			return FALSE;
; 2667 : 		}
; 2668 : 
; 2669 : 		pActionControl	= (FpActionControl)::GetProcAddress(m_hLib, "Ex_ActionControl");

  0000d	8b 35 00 00 00
	00		 mov	 esi, DWORD PTR __imp__GetProcAddress@8
  00013	68 00 00 00 00	 push	 OFFSET ??_C@_0BB@JBDOCKKP@Ex_ActionControl@
  00018	50		 push	 eax
  00019	ff d6		 call	 esi

; 2670 : 		pInitTabCtrl	= (FpInitTabCtrl)::GetProcAddress(m_hLib, "Ex_InitTabCtrlDraw");

  0001b	68 00 00 00 00	 push	 OFFSET ??_C@_0BD@PFIIOLCG@Ex_InitTabCtrlDraw@
  00020	ff 77 04	 push	 DWORD PTR [edi+4]
  00023	89 87 10 01 00
	00		 mov	 DWORD PTR [edi+272], eax
  00029	ff d6		 call	 esi

; 2671 : 		pInitTabCtrl2	= (FpInitTabCtrl2)::GetProcAddress(m_hLib, "Ex_InitTabCtrlDraw2");

  0002b	68 00 00 00 00	 push	 OFFSET ??_C@_0BE@DPIIFJGH@Ex_InitTabCtrlDraw2@
  00030	ff 77 04	 push	 DWORD PTR [edi+4]
  00033	89 87 14 01 00
	00		 mov	 DWORD PTR [edi+276], eax
  00039	ff d6		 call	 esi

; 2672 : 		pExitTabCtrl	= (FpExitTabCtrl)::GetProcAddress(m_hLib, "Ex_ExitTabCtrl");

  0003b	68 00 00 00 00	 push	 OFFSET ??_C@_0P@JGKCCBBH@Ex_ExitTabCtrl@
  00040	ff 77 04	 push	 DWORD PTR [edi+4]
  00043	89 87 18 01 00
	00		 mov	 DWORD PTR [edi+280], eax
  00049	ff d6		 call	 esi

; 2673 : 		pPreSubclassWindow	= (FpPreSubclassWindow)::GetProcAddress(m_hLib, "Ex_PreSubclassWindow");

  0004b	68 00 00 00 00	 push	 OFFSET ??_C@_0BF@NICANNDI@Ex_PreSubclassWindow@
  00050	ff 77 04	 push	 DWORD PTR [edi+4]
  00053	89 87 1c 01 00
	00		 mov	 DWORD PTR [edi+284], eax
  00059	ff d6		 call	 esi

; 2674 : 		pOnEraseBkgnd	= (FpOnEraseBkgnd)::GetProcAddress(m_hLib, "Ex_OnEraseBkgnd");

  0005b	68 00 00 00 00	 push	 OFFSET ??_C@_0BA@IAGOHFI@Ex_OnEraseBkgnd@
  00060	ff 77 04	 push	 DWORD PTR [edi+4]
  00063	89 87 20 01 00
	00		 mov	 DWORD PTR [edi+288], eax
  00069	ff d6		 call	 esi

; 2675 : 		pDrawItem	= (FpDrawItem)::GetProcAddress(m_hLib, "Ex_DrawItem");

  0006b	68 00 00 00 00	 push	 OFFSET ??_C@_0M@FJAIDIBP@Ex_DrawItem@
  00070	ff 77 04	 push	 DWORD PTR [edi+4]
  00073	89 87 24 01 00
	00		 mov	 DWORD PTR [edi+292], eax
  00079	ff d6		 call	 esi

; 2676 : 		pInsertItem1	= (FpInsertItem1)::GetProcAddress(m_hLib, "Ex_InsertItem1");

  0007b	68 00 00 00 00	 push	 OFFSET ??_C@_0P@NKIDJLHI@Ex_InsertItem1@
  00080	ff 77 04	 push	 DWORD PTR [edi+4]
  00083	89 87 28 01 00
	00		 mov	 DWORD PTR [edi+296], eax
  00089	ff d6		 call	 esi

; 2677 : 		pInsertItem2	= (FpInsertItem2)::GetProcAddress(m_hLib, "Ex_InsertItem2");

  0008b	68 00 00 00 00	 push	 OFFSET ??_C@_0P@PBKOMILL@Ex_InsertItem2@
  00090	ff 77 04	 push	 DWORD PTR [edi+4]
  00093	89 87 2c 01 00
	00		 mov	 DWORD PTR [edi+300], eax
  00099	ff d6		 call	 esi

; 2678 : 		pInsertItem3	= (FpInsertItem3)::GetProcAddress(m_hLib, "Ex_InsertItem3");

  0009b	68 00 00 00 00	 push	 OFFSET ??_C@_0P@OILFPJPK@Ex_InsertItem3@
  000a0	ff 77 04	 push	 DWORD PTR [edi+4]
  000a3	89 87 30 01 00
	00		 mov	 DWORD PTR [edi+304], eax
  000a9	ff d6		 call	 esi

; 2679 : 		pOnMouseMove	= (FpOnMouseMove)::GetProcAddress(m_hLib, "Ex_OnMouseMove");

  000ab	68 00 00 00 00	 push	 OFFSET ??_C@_0P@GEIOBKAF@Ex_OnMouseMove@
  000b0	ff 77 04	 push	 DWORD PTR [edi+4]
  000b3	89 87 34 01 00
	00		 mov	 DWORD PTR [edi+308], eax
  000b9	ff d6		 call	 esi

; 2680 : 		pOnPaint	= (FpOnPaint)::GetProcAddress(m_hLib, "Ex_OnPaint");

  000bb	68 00 00 00 00	 push	 OFFSET ??_C@_0L@LHMOODNH@Ex_OnPaint@
  000c0	ff 77 04	 push	 DWORD PTR [edi+4]
  000c3	89 87 38 01 00
	00		 mov	 DWORD PTR [edi+312], eax
  000c9	ff d6		 call	 esi

; 2681 : 		pOnHScroll	= (FpOnHScroll)::GetProcAddress(m_hLib, "Ex_OnHScroll");

  000cb	68 00 00 00 00	 push	 OFFSET ??_C@_0N@GMMOFGKF@Ex_OnHScroll@
  000d0	ff 77 04	 push	 DWORD PTR [edi+4]
  000d3	89 87 3c 01 00
	00		 mov	 DWORD PTR [edi+316], eax
  000d9	ff d6		 call	 esi

; 2682 : 		pOnSelchange	= (FpOnSelchange)::GetProcAddress(m_hLib, "Ex_OnSelchange");

  000db	68 00 00 00 00	 push	 OFFSET ??_C@_0P@NBBKOIPH@Ex_OnSelchange@
  000e0	ff 77 04	 push	 DWORD PTR [edi+4]
  000e3	89 87 40 01 00
	00		 mov	 DWORD PTR [edi+320], eax
  000e9	ff d6		 call	 esi

; 2683 : 		pOnSelchanging	= (FpOnSelchanging)::GetProcAddress(m_hLib, "Ex_OnSelchanging");

  000eb	68 00 00 00 00	 push	 OFFSET ??_C@_0BB@NHAPGINI@Ex_OnSelchanging@
  000f0	ff 77 04	 push	 DWORD PTR [edi+4]
  000f3	89 87 44 01 00
	00		 mov	 DWORD PTR [edi+324], eax
  000f9	ff d6		 call	 esi

; 2684 : 		pOnMouseLeave	= (FpOnMouseLeave)::GetProcAddress(m_hLib, "Ex_OnMouseLeave");

  000fb	68 00 00 00 00	 push	 OFFSET ??_C@_0BA@DKMGFMHM@Ex_OnMouseLeave@
  00100	ff 77 04	 push	 DWORD PTR [edi+4]
  00103	89 87 48 01 00
	00		 mov	 DWORD PTR [edi+328], eax
  00109	ff d6		 call	 esi

; 2685 : 		pOnKillFocus	= (FpOnKillFocus)::GetProcAddress(m_hLib, "Ex_OnKillFocus");

  0010b	68 00 00 00 00	 push	 OFFSET ??_C@_0P@IGNJGKCF@Ex_OnKillFocus@
  00110	ff 77 04	 push	 DWORD PTR [edi+4]
  00113	89 87 4c 01 00
	00		 mov	 DWORD PTR [edi+332], eax
  00119	ff d6		 call	 esi

; 2686 : 		pOnSetFocus	= (FpOnSetFocus)::GetProcAddress(m_hLib, "Ex_OnSetFocus");

  0011b	68 00 00 00 00	 push	 OFFSET ??_C@_0O@LJPDFKAA@Ex_OnSetFocus@
  00120	ff 77 04	 push	 DWORD PTR [edi+4]
  00123	89 87 50 01 00
	00		 mov	 DWORD PTR [edi+336], eax
  00129	ff d6		 call	 esi

; 2687 : 		pWindowProc	= (FpWindowProc)::GetProcAddress(m_hLib, "Ex_WindowProc");

  0012b	68 00 00 00 00	 push	 OFFSET ??_C@_0O@GGJGHEIK@Ex_WindowProc@
  00130	ff 77 04	 push	 DWORD PTR [edi+4]
  00133	89 87 54 01 00
	00		 mov	 DWORD PTR [edi+340], eax
  00139	ff d6		 call	 esi

; 2688 : 		pAddChildControl	= (FpAddChildControl)::GetProcAddress(m_hLib, "Ex_AddChildControl");

  0013b	68 00 00 00 00	 push	 OFFSET ??_C@_0BD@LJJNIPDN@Ex_AddChildControl@
  00140	ff 77 04	 push	 DWORD PTR [edi+4]
  00143	89 87 58 01 00
	00		 mov	 DWORD PTR [edi+344], eax
  00149	ff d6		 call	 esi

; 2689 : 		pRemoveChildControl	= (FpRemoveChildControl)::GetProcAddress(m_hLib, "Ex_RemoveChildControl");

  0014b	68 00 00 00 00	 push	 OFFSET ??_C@_0BG@MBAJHBJI@Ex_RemoveChildControl@
  00150	ff 77 04	 push	 DWORD PTR [edi+4]
  00153	89 87 5c 01 00
	00		 mov	 DWORD PTR [edi+348], eax
  00159	ff d6		 call	 esi

; 2690 : 		pSetTabColor	= (FpSetTabColor)::GetProcAddress(m_hLib, "Ex_SetTabColor");

  0015b	68 00 00 00 00	 push	 OFFSET ??_C@_0P@CBFCELKC@Ex_SetTabColor@
  00160	ff 77 04	 push	 DWORD PTR [edi+4]
  00163	89 87 60 01 00
	00		 mov	 DWORD PTR [edi+352], eax
  00169	ff d6		 call	 esi

; 2691 : 		pSetSTTabColor	= (FpSetSTTabColor)::GetProcAddress(m_hLib, "Ex_SetSTTabColor");

  0016b	68 00 00 00 00	 push	 OFFSET ??_C@_0BB@EFMPIGEL@Ex_SetSTTabColor@
  00170	ff 77 04	 push	 DWORD PTR [edi+4]
  00173	89 87 64 01 00
	00		 mov	 DWORD PTR [edi+356], eax
  00179	ff d6		 call	 esi

; 2692 : 		pOnSize	= (FpOnSize)::GetProcAddress(m_hLib, "Ex_OnSize");

  0017b	68 00 00 00 00	 push	 OFFSET ??_C@_09FLFHMPIG@Ex_OnSize@
  00180	ff 77 04	 push	 DWORD PTR [edi+4]
  00183	89 87 68 01 00
	00		 mov	 DWORD PTR [edi+360], eax
  00189	ff d6		 call	 esi
  0018b	89 87 6c 01 00
	00		 mov	 DWORD PTR [edi+364], eax

; 2693 : 
; 2694 : 		return TRUE;

  00191	b8 01 00 00 00	 mov	 eax, 1
  00196	5e		 pop	 esi
  00197	5f		 pop	 edi

; 2695 : 	}

  00198	c3		 ret	 0
?LoadProcAddress@CLoaderTabCtrl@@UAEHXZ ENDP		; CLoaderTabCtrl::LoadProcAddress
_TEXT	ENDS
; Function compile flags: /Ogtp
; File D:\git\src\IBK\IBK_DRFN\ProjSrc\SrcDrfn\Chart\ExControl\Include\LoadHelper.h
; File D:\git\src\IBK\IBK_DRFN\ProjSrc\SrcDrfn\Chart\ExControl\Include\BaseLoadHelper.h
; File D:\git\src\IBK\IBK_DRFN\ProjSrc\SrcDrfn\Chart\ExControl\Include\LoadHelper.h
;	COMDAT ??1CLoaderTabCtrl@@UAE@XZ
_TEXT	SEGMENT
__$EHRec$ = -12						; size = 12
??1CLoaderTabCtrl@@UAE@XZ PROC				; CLoaderTabCtrl::~CLoaderTabCtrl, COMDAT
; _this$ = ecx

; 2656 : 	{

  00000	55		 push	 ebp
  00001	8b ec		 mov	 ebp, esp
  00003	6a ff		 push	 -1
  00005	68 00 00 00 00	 push	 __ehhandler$??1CLoaderTabCtrl@@UAE@XZ
  0000a	64 a1 00 00 00
	00		 mov	 eax, DWORD PTR fs:0
  00010	50		 push	 eax
  00011	56		 push	 esi
  00012	a1 00 00 00 00	 mov	 eax, DWORD PTR ___security_cookie
  00017	33 c5		 xor	 eax, ebp
  00019	50		 push	 eax
  0001a	8d 45 f4	 lea	 eax, DWORD PTR __$EHRec$[ebp]
  0001d	64 a3 00 00 00
	00		 mov	 DWORD PTR fs:0, eax
  00023	8b f1		 mov	 esi, ecx

; 2657 : 		if(m_hLib)

  00025	8b 46 04	 mov	 eax, DWORD PTR [esi+4]
  00028	c7 06 00 00 00
	00		 mov	 DWORD PTR [esi], OFFSET ??_7CLoaderTabCtrl@@6B@
  0002e	85 c0		 test	 eax, eax
  00030	74 14		 je	 SHORT $LN2@CLoaderTab

; 2658 : 			pExitTabCtrl(m_lpPointer);

  00032	ff b6 0c 01 00
	00		 push	 DWORD PTR [esi+268]
  00038	8b 86 1c 01 00
	00		 mov	 eax, DWORD PTR [esi+284]
  0003e	ff d0		 call	 eax
  00040	8b 46 04	 mov	 eax, DWORD PTR [esi+4]
  00043	83 c4 04	 add	 esp, 4
$LN2@CLoaderTab:
; File D:\git\src\IBK\IBK_DRFN\ProjSrc\SrcDrfn\Chart\ExControl\Include\BaseLoadHelper.h

; 13   : 	{

  00046	c7 06 00 00 00
	00		 mov	 DWORD PTR [esi], OFFSET ??_7CExLoadLib@@6B@

; 53   : 		if(!m_hLib)

  0004c	85 c0		 test	 eax, eax
  0004e	74 0e		 je	 SHORT $LN6@CLoaderTab

; 54   : 			return TRUE;
; 55   : 
; 56   : 		BOOL bResult = ::FreeLibrary(m_hLib);

  00050	50		 push	 eax
  00051	ff 15 00 00 00
	00		 call	 DWORD PTR __imp__FreeLibrary@4

; 57   : 		
; 58   : 		m_hLib = NULL;

  00057	c7 46 04 00 00
	00 00		 mov	 DWORD PTR [esi+4], 0
$LN6@CLoaderTab:
; File D:\git\src\IBK\IBK_DRFN\ProjSrc\SrcDrfn\Chart\ExControl\Include\LoadHelper.h

; 2659 : 	}

  0005e	8b 4d f4	 mov	 ecx, DWORD PTR __$EHRec$[ebp]
  00061	64 89 0d 00 00
	00 00		 mov	 DWORD PTR fs:0, ecx
  00068	59		 pop	 ecx
  00069	5e		 pop	 esi
  0006a	8b e5		 mov	 esp, ebp
  0006c	5d		 pop	 ebp
  0006d	c3		 ret	 0
  0006e	cc		 int	 3
  0006f	cc		 int	 3
  00070	cc		 int	 3
  00071	cc		 int	 3
  00072	cc		 int	 3
_TEXT	ENDS
;	COMDAT text$x
text$x	SEGMENT
__ehhandler$??1CLoaderTabCtrl@@UAE@XZ:
  00000	90		 npad	 1
  00001	90		 npad	 1
  00002	8b 54 24 08	 mov	 edx, DWORD PTR [esp+8]
  00006	8d 42 0c	 lea	 eax, DWORD PTR [edx+12]
  00009	8b 4a f8	 mov	 ecx, DWORD PTR [edx-8]
  0000c	33 c8		 xor	 ecx, eax
  0000e	e8 00 00 00 00	 call	 @__security_check_cookie@4
  00013	b8 00 00 00 00	 mov	 eax, OFFSET __ehfuncinfo$??1CLoaderTabCtrl@@UAE@XZ
  00018	e9 00 00 00 00	 jmp	 ___CxxFrameHandler3
text$x	ENDS
??1CLoaderTabCtrl@@UAE@XZ ENDP				; CLoaderTabCtrl::~CLoaderTabCtrl
; Function compile flags: /Ogtp
; File D:\git\src\IBK\IBK_DRFN\ProjSrc\SrcDrfn\Chart\ExControl\Include\LoadHelper.h
; File D:\git\src\IBK\IBK_DRFN\ProjSrc\SrcDrfn\Chart\ExControl\Include\BaseLoadHelper.h
; File D:\git\src\IBK\IBK_DRFN\ProjSrc\SrcDrfn\Chart\ExControl\Include\LoadHelper.h
; File D:\git\src\IBK\IBK_DRFN\ProjSrc\SrcDrfn\ForSite\FS_Env.h
; File D:\git\src\IBK\IBK_DRFN\ProjSrc\SrcDrfn\Chart\ExControl\Include\LoadHelper.h
; File D:\git\src\IBK\IBK_DRFN\ProjSrc\SrcDrfn\Chart\ExControl\Include\BaseLoadHelper.h
; File D:\git\src\IBK\IBK_DRFN\ProjSrc\SrcDrfn\Chart\ExControl\Include\LoadHelper.h
; File D:\git\src\IBK\IBK_DRFN\ProjSrc\SrcDrfn\Chart\ExControl\Include\BaseLoadHelper.h
; File D:\git\src\IBK\IBK_DRFN\ProjSrc\SrcDrfn\Chart\ExControl\Include\LoadHelper.h
;	COMDAT ??0CLoaderTabCtrl@@QAE@PAXH@Z
_TEXT	SEGMENT
_this$GSCopy$ = -296					; size = 4
_lpPointer$GSCopy$1$ = -292				; size = 4
_szDir$ = -288						; size = 4
_hLib$1$ = -284						; size = 4
$T2 = -284						; size = 4
$T3 = -284						; size = 4
_this$ = -284						; size = 4
_err$1$ = -280						; size = 4
__strRoot_$4 = -280					; size = 4
_szMsg$5 = -276						; size = 260
_szBuf$6 = -272						; size = 255
__$ArrayPad$7 = -16					; size = 4
__$EHRec$ = -12						; size = 12
_lpPointer$ = 8						; size = 4
_bUseDefSkin$ = 12					; size = 4
??0CLoaderTabCtrl@@QAE@PAXH@Z PROC			; CLoaderTabCtrl::CLoaderTabCtrl, COMDAT
; _this$ = ecx

; 2606 : 	CLoaderTabCtrl(LPVOID lpPointer, BOOL bUseDefSkin) 

  00000	55		 push	 ebp
  00001	8b ec		 mov	 ebp, esp
  00003	6a ff		 push	 -1
  00005	68 00 00 00 00	 push	 __ehhandler$??0CLoaderTabCtrl@@QAE@PAXH@Z
  0000a	64 a1 00 00 00
	00		 mov	 eax, DWORD PTR fs:0
  00010	50		 push	 eax
  00011	81 ec 1c 01 00
	00		 sub	 esp, 284		; 0000011cH
  00017	a1 00 00 00 00	 mov	 eax, DWORD PTR ___security_cookie
  0001c	33 c5		 xor	 eax, ebp
  0001e	89 45 f0	 mov	 DWORD PTR __$ArrayPad$7[ebp], eax
  00021	53		 push	 ebx
  00022	56		 push	 esi
  00023	57		 push	 edi
  00024	50		 push	 eax
  00025	8d 45 f4	 lea	 eax, DWORD PTR __$EHRec$[ebp]
  00028	64 a3 00 00 00
	00		 mov	 DWORD PTR fs:0, eax
  0002e	8b f1		 mov	 esi, ecx
  00030	89 b5 e4 fe ff
	ff		 mov	 DWORD PTR _this$[ebp], esi
  00036	8b 45 08	 mov	 eax, DWORD PTR _lpPointer$[ebp]
  00039	8b 5d 0c	 mov	 ebx, DWORD PTR _bUseDefSkin$[ebp]
  0003c	89 b5 d8 fe ff
	ff		 mov	 DWORD PTR _this$GSCopy$[ebp], esi
  00042	89 85 dc fe ff
	ff		 mov	 DWORD PTR _lpPointer$GSCopy$1$[ebp], eax
; File D:\git\src\IBK\IBK_DRFN\ProjSrc\SrcDrfn\Chart\ExControl\Include\BaseLoadHelper.h

; 9    : 		m_hLib = NULL;

  00048	c7 46 04 00 00
	00 00		 mov	 DWORD PTR [esi+4], 0
; File D:\git\src\IBK\IBK_DRFN\ProjSrc\SrcDrfn\Chart\ExControl\Include\LoadHelper.h

; 2617 : 		CString szDir;

  0004f	8d 8d e0 fe ff
	ff		 lea	 ecx, DWORD PTR _szDir$[ebp]
  00055	c7 45 fc 00 00
	00 00		 mov	 DWORD PTR __$EHRec$[ebp+8], 0
  0005c	c7 06 00 00 00
	00		 mov	 DWORD PTR [esi], OFFSET ??_7CLoaderTabCtrl@@6B@
  00062	ff 15 00 00 00
	00		 call	 DWORD PTR __imp_??0?$CStringT@DV?$StrTraitMFC_DLL@DV?$ChTraitsCRT@D@ATL@@@@@ATL@@QAE@XZ
; File D:\git\src\IBK\IBK_DRFN\ProjSrc\SrcDrfn\ForSite\FS_Env.h

; 22   : 	CString	_strRoot_;

  00068	8d 8d e8 fe ff
	ff		 lea	 ecx, DWORD PTR __strRoot_$4[ebp]
  0006e	ff 15 00 00 00
	00		 call	 DWORD PTR __imp_??0?$CStringT@DV?$StrTraitMFC_DLL@DV?$ChTraitsCRT@D@ATL@@@@@ATL@@QAE@XZ

; 15   : 	::GetModuleFileName(NULL, szBuf, 255);

  00074	68 ff 00 00 00	 push	 255			; 000000ffH
  00079	8d 85 f0 fe ff
	ff		 lea	 eax, DWORD PTR _szBuf$6[ebp]

; 22   : 	CString	_strRoot_;

  0007f	c6 45 fc 02	 mov	 BYTE PTR __$EHRec$[ebp+8], 2

; 15   : 	::GetModuleFileName(NULL, szBuf, 255);

  00083	50		 push	 eax
  00084	6a 00		 push	 0
  00086	ff 15 00 00 00
	00		 call	 DWORD PTR __imp__GetModuleFileNameA@12

; 16   : 	rString = szBuf;

  0008c	8d 85 f0 fe ff
	ff		 lea	 eax, DWORD PTR _szBuf$6[ebp]
  00092	50		 push	 eax
  00093	8d 8d e8 fe ff
	ff		 lea	 ecx, DWORD PTR __strRoot_$4[ebp]
  00099	ff 15 00 00 00
	00		 call	 DWORD PTR __imp_??4?$CStringT@DV?$StrTraitMFC_DLL@DV?$ChTraitsCRT@D@ATL@@@@@ATL@@QAEAAV01@PBD@Z

; 25   : 	int _loc_ = _strRoot_.ReverseFind('\\');

  0009f	6a 5c		 push	 92			; 0000005cH
  000a1	8d 8d e8 fe ff
	ff		 lea	 ecx, DWORD PTR __strRoot_$4[ebp]
  000a7	ff 15 00 00 00
	00		 call	 DWORD PTR __imp_?ReverseFind@?$CStringT@DV?$StrTraitMFC_DLL@DV?$ChTraitsCRT@D@ATL@@@@@ATL@@QBEHD@Z

; 26   : 	if( _loc_ > 0)

  000ad	85 c0		 test	 eax, eax
  000af	7e 35		 jle	 SHORT $LN12@CLoaderTab

; 27   : 		_strRoot_ = _strRoot_.Left(_loc_);

  000b1	50		 push	 eax
  000b2	8d 85 e4 fe ff
	ff		 lea	 eax, DWORD PTR $T3[ebp]
  000b8	50		 push	 eax
  000b9	8d 8d e8 fe ff
	ff		 lea	 ecx, DWORD PTR __strRoot_$4[ebp]
  000bf	ff 15 00 00 00
	00		 call	 DWORD PTR __imp_?Left@?$CStringT@DV?$StrTraitMFC_DLL@DV?$ChTraitsCRT@D@ATL@@@@@ATL@@QBE?AV12@H@Z
  000c5	50		 push	 eax
  000c6	8d 8d e8 fe ff
	ff		 lea	 ecx, DWORD PTR __strRoot_$4[ebp]
  000cc	c6 45 fc 03	 mov	 BYTE PTR __$EHRec$[ebp+8], 3
  000d0	ff 15 00 00 00
	00		 call	 DWORD PTR __imp_??4?$CStringT@DV?$StrTraitMFC_DLL@DV?$ChTraitsCRT@D@ATL@@@@@ATL@@QAEAAV01@ABV01@@Z
  000d6	8d 8d e4 fe ff
	ff		 lea	 ecx, DWORD PTR $T3[ebp]
  000dc	c6 45 fc 02	 mov	 BYTE PTR __$EHRec$[ebp+8], 2
  000e0	ff 15 00 00 00
	00		 call	 DWORD PTR __imp_??1?$CStringT@DV?$StrTraitMFC_DLL@DV?$ChTraitsCRT@D@ATL@@@@@ATL@@QAE@XZ
$LN12@CLoaderTab:

; 28   : 	_loc_ = _strRoot_.ReverseFind('\\');

  000e6	6a 5c		 push	 92			; 0000005cH
  000e8	8d 8d e8 fe ff
	ff		 lea	 ecx, DWORD PTR __strRoot_$4[ebp]
  000ee	ff 15 00 00 00
	00		 call	 DWORD PTR __imp_?ReverseFind@?$CStringT@DV?$StrTraitMFC_DLL@DV?$ChTraitsCRT@D@ATL@@@@@ATL@@QBEHD@Z

; 29   : 	if( _loc_ > 0)

  000f4	85 c0		 test	 eax, eax
  000f6	7e 35		 jle	 SHORT $LN13@CLoaderTab

; 30   : 		_strRoot_ = _strRoot_.Left(_loc_);

  000f8	50		 push	 eax
  000f9	8d 85 e4 fe ff
	ff		 lea	 eax, DWORD PTR $T2[ebp]
  000ff	50		 push	 eax
  00100	8d 8d e8 fe ff
	ff		 lea	 ecx, DWORD PTR __strRoot_$4[ebp]
  00106	ff 15 00 00 00
	00		 call	 DWORD PTR __imp_?Left@?$CStringT@DV?$StrTraitMFC_DLL@DV?$ChTraitsCRT@D@ATL@@@@@ATL@@QBE?AV12@H@Z
  0010c	50		 push	 eax
  0010d	8d 8d e8 fe ff
	ff		 lea	 ecx, DWORD PTR __strRoot_$4[ebp]
  00113	c6 45 fc 04	 mov	 BYTE PTR __$EHRec$[ebp+8], 4
  00117	ff 15 00 00 00
	00		 call	 DWORD PTR __imp_??4?$CStringT@DV?$StrTraitMFC_DLL@DV?$ChTraitsCRT@D@ATL@@@@@ATL@@QAEAAV01@ABV01@@Z
  0011d	8d 8d e4 fe ff
	ff		 lea	 ecx, DWORD PTR $T2[ebp]
  00123	c6 45 fc 02	 mov	 BYTE PTR __$EHRec$[ebp+8], 2
  00127	ff 15 00 00 00
	00		 call	 DWORD PTR __imp_??1?$CStringT@DV?$StrTraitMFC_DLL@DV?$ChTraitsCRT@D@ATL@@@@@ATL@@QAE@XZ
$LN13@CLoaderTab:

; 31   : 	rString = _strRoot_;

  0012d	8d 85 e8 fe ff
	ff		 lea	 eax, DWORD PTR __strRoot_$4[ebp]
  00133	50		 push	 eax
  00134	8d 8d e0 fe ff
	ff		 lea	 ecx, DWORD PTR _szDir$[ebp]
  0013a	ff 15 00 00 00
	00		 call	 DWORD PTR __imp_??4?$CStringT@DV?$StrTraitMFC_DLL@DV?$ChTraitsCRT@D@ATL@@@@@ATL@@QAEAAV01@ABV01@@Z

; 32   : }

  00140	8d 8d e8 fe ff
	ff		 lea	 ecx, DWORD PTR __strRoot_$4[ebp]
  00146	c6 45 fc 01	 mov	 BYTE PTR __$EHRec$[ebp+8], 1
  0014a	ff 15 00 00 00
	00		 call	 DWORD PTR __imp_??1?$CStringT@DV?$StrTraitMFC_DLL@DV?$ChTraitsCRT@D@ATL@@@@@ATL@@QAE@XZ

; 47   : 	rString += "\\Dev";

  00150	68 00 00 00 00	 push	 OFFSET ??_C@_04OHDBDCPJ@?2Dev@
  00155	8d 8d e0 fe ff
	ff		 lea	 ecx, DWORD PTR _szDir$[ebp]
  0015b	ff 15 00 00 00
	00		 call	 DWORD PTR __imp_??Y?$CStringT@DV?$StrTraitMFC_DLL@DV?$ChTraitsCRT@D@ATL@@@@@ATL@@QAEAAV01@PBD@Z
; File D:\git\src\IBK\IBK_DRFN\ProjSrc\SrcDrfn\Chart\ExControl\Include\LoadHelper.h

; 2619 : 		::sprintf(m_szDllName, "%s\\%s", (LPCSTR)szDir, TABCTRL_DLL);

  00161	68 00 00 00 00	 push	 OFFSET ??_C@_0O@PJGIAFNO@ExTabCtrl?4dll@
  00166	ff b5 e0 fe ff
	ff		 push	 DWORD PTR _szDir$[ebp]
  0016c	8d 7e 08	 lea	 edi, DWORD PTR [esi+8]
  0016f	68 00 00 00 00	 push	 OFFSET ??_C@_05BMGBEOOC@?$CFs?2?$CFs@
  00174	57		 push	 edi
  00175	e8 00 00 00 00	 call	 _sprintf
  0017a	83 c4 10	 add	 esp, 16			; 00000010H

; 2620 : 		//<--Solomon-090829수정..
; 2621 : 
; 2622 : 		pInitTabCtrl = NULL;

  0017d	c7 86 14 01 00
	00 00 00 00 00	 mov	 DWORD PTR [esi+276], 0

; 2623 : 		pInitTabCtrl2 = NULL;

  00187	c7 86 18 01 00
	00 00 00 00 00	 mov	 DWORD PTR [esi+280], 0

; 2624 : 		pActionControl = NULL;

  00191	c7 86 10 01 00
	00 00 00 00 00	 mov	 DWORD PTR [esi+272], 0

; 2625 : 		pExitTabCtrl = NULL;

  0019b	c7 86 1c 01 00
	00 00 00 00 00	 mov	 DWORD PTR [esi+284], 0
; File D:\git\src\IBK\IBK_DRFN\ProjSrc\SrcDrfn\Chart\ExControl\Include\BaseLoadHelper.h

; 26   : 		hLib = ::LoadLibrary(m_szDllName);

  001a5	57		 push	 edi
; File D:\git\src\IBK\IBK_DRFN\ProjSrc\SrcDrfn\Chart\ExControl\Include\LoadHelper.h

; 2626 : 		pPreSubclassWindow = NULL;

  001a6	c7 86 20 01 00
	00 00 00 00 00	 mov	 DWORD PTR [esi+288], 0

; 2627 : 		pOnEraseBkgnd = NULL;

  001b0	c7 86 24 01 00
	00 00 00 00 00	 mov	 DWORD PTR [esi+292], 0

; 2628 : 		pDrawItem = NULL;

  001ba	c7 86 28 01 00
	00 00 00 00 00	 mov	 DWORD PTR [esi+296], 0

; 2629 : 		pInsertItem1 = NULL;

  001c4	c7 86 2c 01 00
	00 00 00 00 00	 mov	 DWORD PTR [esi+300], 0

; 2630 : 		pInsertItem2 = NULL;

  001ce	c7 86 30 01 00
	00 00 00 00 00	 mov	 DWORD PTR [esi+304], 0

; 2631 : 		pInsertItem3 = NULL;

  001d8	c7 86 34 01 00
	00 00 00 00 00	 mov	 DWORD PTR [esi+308], 0

; 2632 : 		pOnMouseMove = NULL;

  001e2	c7 86 38 01 00
	00 00 00 00 00	 mov	 DWORD PTR [esi+312], 0

; 2633 : 		pOnPaint = NULL;

  001ec	c7 86 3c 01 00
	00 00 00 00 00	 mov	 DWORD PTR [esi+316], 0

; 2634 : 		pOnHScroll = NULL;

  001f6	c7 86 40 01 00
	00 00 00 00 00	 mov	 DWORD PTR [esi+320], 0

; 2635 : 		pOnSelchange = NULL;

  00200	c7 86 44 01 00
	00 00 00 00 00	 mov	 DWORD PTR [esi+324], 0

; 2636 : 		pOnSelchanging = NULL;

  0020a	c7 86 48 01 00
	00 00 00 00 00	 mov	 DWORD PTR [esi+328], 0

; 2637 : 		pOnMouseLeave = NULL;

  00214	c7 86 4c 01 00
	00 00 00 00 00	 mov	 DWORD PTR [esi+332], 0

; 2638 : 		pOnKillFocus = NULL;

  0021e	c7 86 50 01 00
	00 00 00 00 00	 mov	 DWORD PTR [esi+336], 0

; 2639 : 		pOnSetFocus = NULL;

  00228	c7 86 54 01 00
	00 00 00 00 00	 mov	 DWORD PTR [esi+340], 0

; 2640 : 		pWindowProc = NULL;

  00232	c7 86 58 01 00
	00 00 00 00 00	 mov	 DWORD PTR [esi+344], 0

; 2641 : 		pAddChildControl = NULL;

  0023c	c7 86 5c 01 00
	00 00 00 00 00	 mov	 DWORD PTR [esi+348], 0

; 2642 : 		pRemoveChildControl = NULL;

  00246	c7 86 60 01 00
	00 00 00 00 00	 mov	 DWORD PTR [esi+352], 0

; 2643 : 		pSetTabColor = NULL;

  00250	c7 86 64 01 00
	00 00 00 00 00	 mov	 DWORD PTR [esi+356], 0

; 2644 : 		pSetSTTabColor = NULL;

  0025a	c7 86 68 01 00
	00 00 00 00 00	 mov	 DWORD PTR [esi+360], 0

; 2645 : 		pOnSize = NULL;

  00264	c7 86 6c 01 00
	00 00 00 00 00	 mov	 DWORD PTR [esi+364], 0
; File D:\git\src\IBK\IBK_DRFN\ProjSrc\SrcDrfn\Chart\ExControl\Include\BaseLoadHelper.h

; 26   : 		hLib = ::LoadLibrary(m_szDllName);

  0026e	ff 15 00 00 00
	00		 call	 DWORD PTR __imp__LoadLibraryA@4
  00274	89 85 e4 fe ff
	ff		 mov	 DWORD PTR _hLib$1$[ebp], eax

; 27   : 
; 28   : 		DWORD err = GetLastError();

  0027a	ff 15 00 00 00
	00		 call	 DWORD PTR __imp__GetLastError@0
  00280	89 85 e8 fe ff
	ff		 mov	 DWORD PTR _err$1$[ebp], eax

; 29   : 
; 30   : 		if(!hLib) 

  00286	8b 85 e4 fe ff
	ff		 mov	 eax, DWORD PTR _hLib$1$[ebp]
  0028c	85 c0		 test	 eax, eax
  0028e	75 3f		 jne	 SHORT $LN23@CLoaderTab

; 31   : 		{
; 32   : 			char szMsg[MAX_PATH] = {0, };

  00290	68 04 01 00 00	 push	 260			; 00000104H
  00295	50		 push	 eax
  00296	8d 85 ec fe ff
	ff		 lea	 eax, DWORD PTR _szMsg$5[ebp]
  0029c	50		 push	 eax
  0029d	e8 00 00 00 00	 call	 _memset

; 33   : 			::sprintf(szMsg, "DLL[%s]을 Load할 수 없습니다. [%d]", m_szDllName, err);

  002a2	ff b5 e8 fe ff
	ff		 push	 DWORD PTR _err$1$[ebp]
  002a8	8d 85 ec fe ff
	ff		 lea	 eax, DWORD PTR _szMsg$5[ebp]
  002ae	57		 push	 edi
  002af	68 00 00 00 00	 push	 OFFSET ??_C@_0CD@INEDAMEN@DLL?$FL?$CFs?$FN?$MA?$LL?5Load?G?R?5?$LM?v?5?$LO?x?$LN?$MA?$LE?O?$LE?Y?4?5?$FL@
  002b4	50		 push	 eax
  002b5	e8 00 00 00 00	 call	 _sprintf
  002ba	83 c4 1c	 add	 esp, 28			; 0000001cH

; 34   : 			AfxMessageBox(szMsg);

  002bd	8d 85 ec fe ff
	ff		 lea	 eax, DWORD PTR _szMsg$5[ebp]
  002c3	6a 00		 push	 0
  002c5	6a 00		 push	 0
  002c7	50		 push	 eax
  002c8	e8 00 00 00 00	 call	 ?AfxMessageBox@@YGHPBDII@Z ; AfxMessageBox

; 35   : 
; 36   : 			return NULL;

  002cd	eb 32		 jmp	 SHORT $LN28@CLoaderTab
$LN23@CLoaderTab:

; 37   : 		}
; 38   : 
; 39   : 		m_hLib = hLib;

  002cf	89 46 04	 mov	 DWORD PTR [esi+4], eax

; 40   : 
; 41   : 		if(!LoadProcAddress()) 

  002d2	8b ce		 mov	 ecx, esi
  002d4	8b 06		 mov	 eax, DWORD PTR [esi]
  002d6	8b 00		 mov	 eax, DWORD PTR [eax]
  002d8	3d 00 00 00 00	 cmp	 eax, OFFSET ?LoadProcAddress@CLoaderTabCtrl@@UAEHXZ ; CLoaderTabCtrl::LoadProcAddress
  002dd	75 07		 jne	 SHORT $LN27@CLoaderTab
  002df	e8 00 00 00 00	 call	 ?LoadProcAddress@CLoaderTabCtrl@@UAEHXZ ; CLoaderTabCtrl::LoadProcAddress
  002e4	eb 02		 jmp	 SHORT $LN26@CLoaderTab
$LN27@CLoaderTab:
  002e6	ff d0		 call	 eax
$LN26@CLoaderTab:
  002e8	85 c0		 test	 eax, eax
  002ea	75 15		 jne	 SHORT $LN28@CLoaderTab

; 53   : 		if(!m_hLib)

  002ec	8b 46 04	 mov	 eax, DWORD PTR [esi+4]
  002ef	85 c0		 test	 eax, eax
  002f1	74 0e		 je	 SHORT $LN28@CLoaderTab

; 54   : 			return TRUE;
; 55   : 
; 56   : 		BOOL bResult = ::FreeLibrary(m_hLib);

  002f3	50		 push	 eax
  002f4	ff 15 00 00 00
	00		 call	 DWORD PTR __imp__FreeLibrary@4

; 57   : 		
; 58   : 		m_hLib = NULL;

  002fa	c7 46 04 00 00
	00 00		 mov	 DWORD PTR [esi+4], 0
$LN28@CLoaderTab:
; File D:\git\src\IBK\IBK_DRFN\ProjSrc\SrcDrfn\Chart\ExControl\Include\LoadHelper.h

; 2649 : 		if(bUseDefSkin)

  00301	85 db		 test	 ebx, ebx
  00303	74 14		 je	 SHORT $LN2@CLoaderTab

; 2650 : 			m_lpPointer = pInitTabCtrl2(lpPointer, bUseDefSkin);

  00305	8b 86 18 01 00
	00		 mov	 eax, DWORD PTR [esi+280]
  0030b	53		 push	 ebx
  0030c	ff b5 dc fe ff
	ff		 push	 DWORD PTR _lpPointer$GSCopy$1$[ebp]
  00312	ff d0		 call	 eax
  00314	83 c4 08	 add	 esp, 8
  00317	eb 11		 jmp	 SHORT $LN3@CLoaderTab
$LN2@CLoaderTab:

; 2651 : 		else
; 2652 : 			m_lpPointer = pInitTabCtrl(lpPointer);

  00319	ff b5 dc fe ff
	ff		 push	 DWORD PTR _lpPointer$GSCopy$1$[ebp]
  0031f	8b 86 14 01 00
	00		 mov	 eax, DWORD PTR [esi+276]
  00325	ff d0		 call	 eax
  00327	83 c4 04	 add	 esp, 4
$LN3@CLoaderTab:

; 2653 : 	}

  0032a	8d 8d e0 fe ff
	ff		 lea	 ecx, DWORD PTR _szDir$[ebp]
  00330	89 86 0c 01 00
	00		 mov	 DWORD PTR [esi+268], eax
  00336	ff 15 00 00 00
	00		 call	 DWORD PTR __imp_??1?$CStringT@DV?$StrTraitMFC_DLL@DV?$ChTraitsCRT@D@ATL@@@@@ATL@@QAE@XZ
  0033c	8b c6		 mov	 eax, esi
  0033e	8b 4d f4	 mov	 ecx, DWORD PTR __$EHRec$[ebp]
  00341	64 89 0d 00 00
	00 00		 mov	 DWORD PTR fs:0, ecx
  00348	59		 pop	 ecx
  00349	5f		 pop	 edi
  0034a	5e		 pop	 esi
  0034b	5b		 pop	 ebx
  0034c	8b 4d f0	 mov	 ecx, DWORD PTR __$ArrayPad$7[ebp]
  0034f	33 cd		 xor	 ecx, ebp
  00351	e8 00 00 00 00	 call	 @__security_check_cookie@4
  00356	8b e5		 mov	 esp, ebp
  00358	5d		 pop	 ebp
  00359	c2 08 00	 ret	 8
_TEXT	ENDS
;	COMDAT text$x
text$x	SEGMENT
__unwindfunclet$??0CLoaderTabCtrl@@QAE@PAXH@Z$0:
  00000	8b 8d d8 fe ff
	ff		 mov	 ecx, DWORD PTR _this$GSCopy$[ebp]
  00006	e9 00 00 00 00	 jmp	 ??1CExLoadLib@@QAE@XZ	; CExLoadLib::~CExLoadLib
__unwindfunclet$??0CLoaderTabCtrl@@QAE@PAXH@Z$1:
  0000b	8d 8d e0 fe ff
	ff		 lea	 ecx, DWORD PTR _szDir$[ebp]
  00011	ff 25 00 00 00
	00		 jmp	 DWORD PTR __imp_??1?$CStringT@DV?$StrTraitMFC_DLL@DV?$ChTraitsCRT@D@ATL@@@@@ATL@@QAE@XZ
__unwindfunclet$??0CLoaderTabCtrl@@QAE@PAXH@Z$2:
  00017	8d 8d e8 fe ff
	ff		 lea	 ecx, DWORD PTR __strRoot_$4[ebp]
  0001d	ff 25 00 00 00
	00		 jmp	 DWORD PTR __imp_??1?$CStringT@DV?$StrTraitMFC_DLL@DV?$ChTraitsCRT@D@ATL@@@@@ATL@@QAE@XZ
__unwindfunclet$??0CLoaderTabCtrl@@QAE@PAXH@Z$3:
  00023	8d 8d e4 fe ff
	ff		 lea	 ecx, DWORD PTR $T3[ebp]
  00029	ff 25 00 00 00
	00		 jmp	 DWORD PTR __imp_??1?$CStringT@DV?$StrTraitMFC_DLL@DV?$ChTraitsCRT@D@ATL@@@@@ATL@@QAE@XZ
__unwindfunclet$??0CLoaderTabCtrl@@QAE@PAXH@Z$4:
  0002f	8d 8d e4 fe ff
	ff		 lea	 ecx, DWORD PTR $T2[ebp]
  00035	ff 25 00 00 00
	00		 jmp	 DWORD PTR __imp_??1?$CStringT@DV?$StrTraitMFC_DLL@DV?$ChTraitsCRT@D@ATL@@@@@ATL@@QAE@XZ
  0003b	cc		 int	 3
  0003c	cc		 int	 3
  0003d	cc		 int	 3
  0003e	cc		 int	 3
  0003f	cc		 int	 3
__ehhandler$??0CLoaderTabCtrl@@QAE@PAXH@Z:
  00040	90		 npad	 1
  00041	90		 npad	 1
  00042	8b 54 24 08	 mov	 edx, DWORD PTR [esp+8]
  00046	8d 42 0c	 lea	 eax, DWORD PTR [edx+12]
  00049	8b 8a d4 fe ff
	ff		 mov	 ecx, DWORD PTR [edx-300]
  0004f	33 c8		 xor	 ecx, eax
  00051	e8 00 00 00 00	 call	 @__security_check_cookie@4
  00056	8b 4a fc	 mov	 ecx, DWORD PTR [edx-4]
  00059	33 c8		 xor	 ecx, eax
  0005b	e8 00 00 00 00	 call	 @__security_check_cookie@4
  00060	b8 00 00 00 00	 mov	 eax, OFFSET __ehfuncinfo$??0CLoaderTabCtrl@@QAE@PAXH@Z
  00065	e9 00 00 00 00	 jmp	 ___CxxFrameHandler3
text$x	ENDS
??0CLoaderTabCtrl@@QAE@PAXH@Z ENDP			; CLoaderTabCtrl::CLoaderTabCtrl
; Function compile flags: /Ogtp
; File D:\git\src\IBK\IBK_DRFN\ProjSrc\SrcDrfn\Chart\ExControl\Include\BaseLoadHelper.h
;	COMDAT ?LoadProcAddress@CExLoadLib@@UAEHXZ
_TEXT	SEGMENT
?LoadProcAddress@CExLoadLib@@UAEHXZ PROC		; CExLoadLib::LoadProcAddress, COMDAT
; _this$ = ecx

; 19   : 		ASSERT(FALSE); 
; 20   : 		return FALSE;

  00000	33 c0		 xor	 eax, eax

; 21   : 	}

  00002	c3		 ret	 0
?LoadProcAddress@CExLoadLib@@UAEHXZ ENDP		; CExLoadLib::LoadProcAddress
_TEXT	ENDS
; Function compile flags: /Ogtp
; File D:\git\src\IBK\IBK_DRFN\ProjSrc\SrcDrfn\Chart\ExControl\Include\BaseLoadHelper.h
;	COMDAT ??1CExLoadLib@@QAE@XZ
_TEXT	SEGMENT
??1CExLoadLib@@QAE@XZ PROC				; CExLoadLib::~CExLoadLib, COMDAT
; _this$ = ecx

; 13   : 	{

  00000	56		 push	 esi
  00001	8b f1		 mov	 esi, ecx

; 53   : 		if(!m_hLib)

  00003	8b 46 04	 mov	 eax, DWORD PTR [esi+4]

; 13   : 	{

  00006	c7 06 00 00 00
	00		 mov	 DWORD PTR [esi], OFFSET ??_7CExLoadLib@@6B@

; 53   : 		if(!m_hLib)

  0000c	85 c0		 test	 eax, eax
  0000e	74 0e		 je	 SHORT $LN3@CExLoadLib

; 54   : 			return TRUE;
; 55   : 
; 56   : 		BOOL bResult = ::FreeLibrary(m_hLib);

  00010	50		 push	 eax
  00011	ff 15 00 00 00
	00		 call	 DWORD PTR __imp__FreeLibrary@4

; 57   : 		
; 58   : 		m_hLib = NULL;

  00017	c7 46 04 00 00
	00 00		 mov	 DWORD PTR [esi+4], 0
$LN3@CExLoadLib:
  0001e	5e		 pop	 esi

; 14   : 		UnLoadLib();
; 15   : 	}

  0001f	c3		 ret	 0
??1CExLoadLib@@QAE@XZ ENDP				; CExLoadLib::~CExLoadLib
_TEXT	ENDS
; Function compile flags: /Ogtp
; File D:\git\src\IBK\IBK_DRFN\ProjSrc\SrcDrfn\Chart\ExControl\ExTabCtrl.cpp
; File C:\Program Files (x86)\Microsoft Visual Studio\2019\Community\VC\Tools\MSVC\14.29.30133\atlmfc\include\afx.inl
;	COMDAT ??_GCExTabCtrl@@UAEPAXI@Z
_TEXT	SEGMENT
___flags$ = 8						; size = 4
??_GCExTabCtrl@@UAEPAXI@Z PROC				; CExTabCtrl::`scalar deleting destructor', COMDAT
; _this$ = ecx
  00000	55		 push	 ebp
  00001	8b ec		 mov	 ebp, esp
; File D:\git\src\IBK\IBK_DRFN\ProjSrc\SrcDrfn\Chart\ExControl\ExTabCtrl.cpp

; 24   : {

  00003	56		 push	 esi
  00004	8b f1		 mov	 esi, ecx

; 25   : 	delete m_pLoader;

  00006	8b 8e 80 00 00
	00		 mov	 ecx, DWORD PTR [esi+128]
  0000c	c7 06 00 00 00
	00		 mov	 DWORD PTR [esi], OFFSET ??_7CExTabCtrl@@6B@
  00012	85 c9		 test	 ecx, ecx
  00014	74 07		 je	 SHORT $LN9@scalar
  00016	8b 01		 mov	 eax, DWORD PTR [ecx]
  00018	6a 01		 push	 1
  0001a	ff 50 04	 call	 DWORD PTR [eax+4]
$LN9@scalar:

; 26   : }

  0001d	8b ce		 mov	 ecx, esi
  0001f	e8 00 00 00 00	 call	 ??1CTabCtrl@@UAE@XZ	; CTabCtrl::~CTabCtrl
  00024	8b 45 08	 mov	 eax, DWORD PTR ___flags$[ebp]
  00027	a8 01		 test	 al, 1
  00029	74 22		 je	 SHORT $LN14@scalar
  0002b	a8 04		 test	 al, 4
  0002d	75 10		 jne	 SHORT $LN3@scalar
; File C:\Program Files (x86)\Microsoft Visual Studio\2019\Community\VC\Tools\MSVC\14.29.30133\atlmfc\include\afx.inl

; 112  : 	{ ::operator delete(p); }

  0002f	56		 push	 esi
  00030	e8 00 00 00 00	 call	 ??3@YAXPAX@Z		; operator delete
  00035	83 c4 04	 add	 esp, 4
  00038	8b c6		 mov	 eax, esi
  0003a	5e		 pop	 esi
  0003b	5d		 pop	 ebp
  0003c	c2 04 00	 ret	 4
$LN3@scalar:
  0003f	68 88 00 00 00	 push	 136			; 00000088H
  00044	56		 push	 esi
  00045	e8 00 00 00 00	 call	 ?__global_delete@@YAXPAXI@Z ; __global_delete
  0004a	83 c4 08	 add	 esp, 8
$LN14@scalar:
  0004d	8b c6		 mov	 eax, esi
  0004f	5e		 pop	 esi
  00050	5d		 pop	 ebp
  00051	c2 04 00	 ret	 4
??_GCExTabCtrl@@UAEPAXI@Z ENDP				; CExTabCtrl::`scalar deleting destructor'
_TEXT	ENDS
; Function compile flags: /Ogtp
; File D:\git\src\IBK\IBK_DRFN\ProjSrc\SrcDrfn\Chart\ExControl\ExTabCtrl.cpp
;	COMDAT ?GetMessageMap@CExTabCtrl@@MBEPBUAFX_MSGMAP@@XZ
_TEXT	SEGMENT
?GetMessageMap@CExTabCtrl@@MBEPBUAFX_MSGMAP@@XZ PROC	; CExTabCtrl::GetMessageMap, COMDAT
; _this$ = ecx

; 29   : BEGIN_MESSAGE_MAP(CExTabCtrl, CTabCtrl)

  00000	b8 00 00 00 00	 mov	 eax, OFFSET ?messageMap@?1??GetThisMessageMap@CExTabCtrl@@KGPBUAFX_MSGMAP@@XZ@4U3@B
  00005	c3		 ret	 0
?GetMessageMap@CExTabCtrl@@MBEPBUAFX_MSGMAP@@XZ ENDP	; CExTabCtrl::GetMessageMap
_TEXT	ENDS
; Function compile flags: /Ogtp
; File D:\git\src\IBK\IBK_DRFN\ProjSrc\SrcDrfn\Chart\ExControl\ExTabCtrl.cpp
;	COMDAT ?GetThisMessageMap@CExTabCtrl@@KGPBUAFX_MSGMAP@@XZ
_TEXT	SEGMENT
?GetThisMessageMap@CExTabCtrl@@KGPBUAFX_MSGMAP@@XZ PROC	; CExTabCtrl::GetThisMessageMap, COMDAT

; 30   : 	//{{AFX_MSG_MAP(CExTabCtrl)
; 31   : 	ON_WM_MOUSEMOVE()
; 32   : 	ON_WM_ERASEBKGND()
; 33   : 	ON_WM_PAINT()
; 34   : 	ON_WM_HSCROLL()
; 35   : 	ON_NOTIFY_REFLECT_EX(TCN_SELCHANGE, OnSelchange)
; 36   : 	ON_NOTIFY_REFLECT_EX(TCN_SELCHANGING, OnSelchanging)
; 37   : 	ON_MESSAGE(WM_MOUSELEAVE,OnMouseLeave) 
; 38   : 	ON_WM_KILLFOCUS()
; 39   : 	ON_WM_SETFOCUS()
; 40   : 	ON_WM_SIZE()
; 41   : 	//}}AFX_MSG_MAP
; 42   : END_MESSAGE_MAP()

  00000	b8 00 00 00 00	 mov	 eax, OFFSET ?messageMap@?1??GetThisMessageMap@CExTabCtrl@@KGPBUAFX_MSGMAP@@XZ@4U3@B
  00005	c3		 ret	 0
?GetThisMessageMap@CExTabCtrl@@KGPBUAFX_MSGMAP@@XZ ENDP	; CExTabCtrl::GetThisMessageMap
_TEXT	ENDS
; Function compile flags: /Ogtp
; File D:\git\src\IBK\IBK_DRFN\ProjSrc\SrcDrfn\Chart\ExControl\ExTabCtrl.cpp
; File D:\git\src\IBK\IBK_DRFN\ProjSrc\SrcDrfn\Chart\ExControl\Include\LoadHelper.h
; File D:\git\src\IBK\IBK_DRFN\ProjSrc\SrcDrfn\Chart\ExControl\ExTabCtrl.cpp
;	COMDAT ?OnSize@CExTabCtrl@@IAEXIHH@Z
_TEXT	SEGMENT
_nType$ = 8						; size = 4
_cx$ = 12						; size = 4
_cy$ = 16						; size = 4
?OnSize@CExTabCtrl@@IAEXIHH@Z PROC			; CExTabCtrl::OnSize, COMDAT
; _this$ = ecx

; 144  : {

  00000	55		 push	 ebp
  00001	8b ec		 mov	 ebp, esp

; 145  : 	m_pLoader->OnSize(nType, cx, cy);

  00003	8b 81 80 00 00
	00		 mov	 eax, DWORD PTR [ecx+128]
; File D:\git\src\IBK\IBK_DRFN\ProjSrc\SrcDrfn\Chart\ExControl\Include\LoadHelper.h

; 2890 : 		if(!m_hLib)

  00009	83 78 04 00	 cmp	 DWORD PTR [eax+4], 0
  0000d	74 1a		 je	 SHORT $LN3@OnSize

; 2891 : 			return;
; 2892 : 
; 2893 : 		pOnSize(m_lpPointer, nType, cx, cy);

  0000f	ff 75 10	 push	 DWORD PTR _cy$[ebp]
  00012	ff 75 0c	 push	 DWORD PTR _cx$[ebp]
  00015	ff 75 08	 push	 DWORD PTR _nType$[ebp]
  00018	ff b0 0c 01 00
	00		 push	 DWORD PTR [eax+268]
  0001e	8b 80 6c 01 00
	00		 mov	 eax, DWORD PTR [eax+364]
  00024	ff d0		 call	 eax
  00026	83 c4 10	 add	 esp, 16			; 00000010H
$LN3@OnSize:
; File D:\git\src\IBK\IBK_DRFN\ProjSrc\SrcDrfn\Chart\ExControl\ExTabCtrl.cpp

; 146  : }

  00029	5d		 pop	 ebp
  0002a	c2 0c 00	 ret	 12			; 0000000cH
?OnSize@CExTabCtrl@@IAEXIHH@Z ENDP			; CExTabCtrl::OnSize
_TEXT	ENDS
; Function compile flags: /Ogtp
; File D:\git\src\IBK\IBK_DRFN\ProjSrc\SrcDrfn\Chart\ExControl\ExTabCtrl.cpp
; File D:\git\src\IBK\IBK_DRFN\ProjSrc\SrcDrfn\Chart\ExControl\Include\LoadHelper.h
; File D:\git\src\IBK\IBK_DRFN\ProjSrc\SrcDrfn\Chart\ExControl\ExTabCtrl.cpp
;	COMDAT ?OnSetFocus@CExTabCtrl@@IAEXPAVCWnd@@@Z
_TEXT	SEGMENT
_pOldWnd$ = 8						; size = 4
?OnSetFocus@CExTabCtrl@@IAEXPAVCWnd@@@Z PROC		; CExTabCtrl::OnSetFocus, COMDAT
; _this$ = ecx

; 114  : {

  00000	55		 push	 ebp
  00001	8b ec		 mov	 ebp, esp

; 115  : 	m_pLoader->OnSetFocus(pOldWnd);

  00003	8b 81 80 00 00
	00		 mov	 eax, DWORD PTR [ecx+128]
; File D:\git\src\IBK\IBK_DRFN\ProjSrc\SrcDrfn\Chart\ExControl\Include\LoadHelper.h

; 2842 : 		if(!m_hLib)

  00009	83 78 04 00	 cmp	 DWORD PTR [eax+4], 0
  0000d	74 14		 je	 SHORT $LN3@OnSetFocus

; 2843 : 			return;
; 2844 : 
; 2845 : 		pOnSetFocus(m_lpPointer, pOldWnd);

  0000f	ff 75 08	 push	 DWORD PTR _pOldWnd$[ebp]
  00012	ff b0 0c 01 00
	00		 push	 DWORD PTR [eax+268]
  00018	8b 80 54 01 00
	00		 mov	 eax, DWORD PTR [eax+340]
  0001e	ff d0		 call	 eax
  00020	83 c4 08	 add	 esp, 8
$LN3@OnSetFocus:
; File D:\git\src\IBK\IBK_DRFN\ProjSrc\SrcDrfn\Chart\ExControl\ExTabCtrl.cpp

; 116  : }

  00023	5d		 pop	 ebp
  00024	c2 04 00	 ret	 4
?OnSetFocus@CExTabCtrl@@IAEXPAVCWnd@@@Z ENDP		; CExTabCtrl::OnSetFocus
_TEXT	ENDS
; Function compile flags: /Ogtp
; File D:\git\src\IBK\IBK_DRFN\ProjSrc\SrcDrfn\Chart\ExControl\ExTabCtrl.cpp
; File D:\git\src\IBK\IBK_DRFN\ProjSrc\SrcDrfn\Chart\ExControl\Include\LoadHelper.h
; File D:\git\src\IBK\IBK_DRFN\ProjSrc\SrcDrfn\Chart\ExControl\ExTabCtrl.cpp
;	COMDAT ?OnKillFocus@CExTabCtrl@@IAEXPAVCWnd@@@Z
_TEXT	SEGMENT
_pNewWnd$ = 8						; size = 4
?OnKillFocus@CExTabCtrl@@IAEXPAVCWnd@@@Z PROC		; CExTabCtrl::OnKillFocus, COMDAT
; _this$ = ecx

; 109  : {

  00000	55		 push	 ebp
  00001	8b ec		 mov	 ebp, esp

; 110  : 	m_pLoader->OnKillFocus(pNewWnd);

  00003	8b 81 80 00 00
	00		 mov	 eax, DWORD PTR [ecx+128]
; File D:\git\src\IBK\IBK_DRFN\ProjSrc\SrcDrfn\Chart\ExControl\Include\LoadHelper.h

; 2834 : 		if(!m_hLib)

  00009	83 78 04 00	 cmp	 DWORD PTR [eax+4], 0
  0000d	74 14		 je	 SHORT $LN3@OnKillFocu

; 2835 : 			return;
; 2836 : 
; 2837 : 		pOnKillFocus(m_lpPointer, pNewWnd);

  0000f	ff 75 08	 push	 DWORD PTR _pNewWnd$[ebp]
  00012	ff b0 0c 01 00
	00		 push	 DWORD PTR [eax+268]
  00018	8b 80 50 01 00
	00		 mov	 eax, DWORD PTR [eax+336]
  0001e	ff d0		 call	 eax
  00020	83 c4 08	 add	 esp, 8
$LN3@OnKillFocu:
; File D:\git\src\IBK\IBK_DRFN\ProjSrc\SrcDrfn\Chart\ExControl\ExTabCtrl.cpp

; 111  : }

  00023	5d		 pop	 ebp
  00024	c2 04 00	 ret	 4
?OnKillFocus@CExTabCtrl@@IAEXPAVCWnd@@@Z ENDP		; CExTabCtrl::OnKillFocus
_TEXT	ENDS
; Function compile flags: /Ogtp
; File D:\git\src\IBK\IBK_DRFN\ProjSrc\SrcDrfn\Chart\ExControl\ExTabCtrl.cpp
; File D:\git\src\IBK\IBK_DRFN\ProjSrc\SrcDrfn\Chart\ExControl\Include\LoadHelper.h
; File D:\git\src\IBK\IBK_DRFN\ProjSrc\SrcDrfn\Chart\ExControl\ExTabCtrl.cpp
; File D:\git\src\IBK\IBK_DRFN\ProjSrc\SrcDrfn\Chart\ExControl\Include\LoadHelper.h
; File D:\git\src\IBK\IBK_DRFN\ProjSrc\SrcDrfn\Chart\ExControl\ExTabCtrl.cpp
;	COMDAT ?OnMouseLeave@CExTabCtrl@@IAEJIJ@Z
_TEXT	SEGMENT
_wParam$ = 8						; size = 4
_lParam$ = 12						; size = 4
?OnMouseLeave@CExTabCtrl@@IAEJIJ@Z PROC			; CExTabCtrl::OnMouseLeave, COMDAT
; _this$ = ecx

; 104  : {

  00000	55		 push	 ebp
  00001	8b ec		 mov	 ebp, esp

; 105  : 	return m_pLoader->OnMouseLeave(wParam, lParam);

  00003	8b 81 80 00 00
	00		 mov	 eax, DWORD PTR [ecx+128]
; File D:\git\src\IBK\IBK_DRFN\ProjSrc\SrcDrfn\Chart\ExControl\Include\LoadHelper.h

; 2826 : 		if(!m_hLib)

  00009	83 78 04 00	 cmp	 DWORD PTR [eax+4], 0
  0000d	75 06		 jne	 SHORT $LN4@OnMouseLea
; File D:\git\src\IBK\IBK_DRFN\ProjSrc\SrcDrfn\Chart\ExControl\ExTabCtrl.cpp

; 105  : 	return m_pLoader->OnMouseLeave(wParam, lParam);

  0000f	33 c0		 xor	 eax, eax

; 106  : }

  00011	5d		 pop	 ebp
  00012	c2 08 00	 ret	 8
$LN4@OnMouseLea:
; File D:\git\src\IBK\IBK_DRFN\ProjSrc\SrcDrfn\Chart\ExControl\Include\LoadHelper.h

; 2829 : 		return pOnMouseLeave(m_lpPointer, wParam, lParam);

  00015	ff 75 0c	 push	 DWORD PTR _lParam$[ebp]
  00018	ff 75 08	 push	 DWORD PTR _wParam$[ebp]
  0001b	ff b0 0c 01 00
	00		 push	 DWORD PTR [eax+268]
  00021	8b 80 4c 01 00
	00		 mov	 eax, DWORD PTR [eax+332]
  00027	ff d0		 call	 eax
  00029	83 c4 0c	 add	 esp, 12			; 0000000cH
; File D:\git\src\IBK\IBK_DRFN\ProjSrc\SrcDrfn\Chart\ExControl\ExTabCtrl.cpp

; 106  : }

  0002c	5d		 pop	 ebp
  0002d	c2 08 00	 ret	 8
?OnMouseLeave@CExTabCtrl@@IAEJIJ@Z ENDP			; CExTabCtrl::OnMouseLeave
_TEXT	ENDS
; Function compile flags: /Ogtp
; File D:\git\src\IBK\IBK_DRFN\ProjSrc\SrcDrfn\Chart\ExControl\ExTabCtrl.cpp
; File D:\git\src\IBK\IBK_DRFN\ProjSrc\SrcDrfn\Chart\ExControl\Include\LoadHelper.h
; File D:\git\src\IBK\IBK_DRFN\ProjSrc\SrcDrfn\Chart\ExControl\ExTabCtrl.cpp
; File D:\git\src\IBK\IBK_DRFN\ProjSrc\SrcDrfn\Chart\ExControl\Include\LoadHelper.h
; File D:\git\src\IBK\IBK_DRFN\ProjSrc\SrcDrfn\Chart\ExControl\ExTabCtrl.cpp
;	COMDAT ?OnSelchanging@CExTabCtrl@@IAEHPAUtagNMHDR@@PAJ@Z
_TEXT	SEGMENT
_pNMHDR$ = 8						; size = 4
_pResult$ = 12						; size = 4
?OnSelchanging@CExTabCtrl@@IAEHPAUtagNMHDR@@PAJ@Z PROC	; CExTabCtrl::OnSelchanging, COMDAT
; _this$ = ecx

; 99   : {

  00000	55		 push	 ebp
  00001	8b ec		 mov	 ebp, esp

; 100  : 	return m_pLoader->OnSelchanging(pNMHDR, pResult);

  00003	8b 81 80 00 00
	00		 mov	 eax, DWORD PTR [ecx+128]
; File D:\git\src\IBK\IBK_DRFN\ProjSrc\SrcDrfn\Chart\ExControl\Include\LoadHelper.h

; 2818 : 		if(!m_hLib)

  00009	83 78 04 00	 cmp	 DWORD PTR [eax+4], 0
  0000d	75 09		 jne	 SHORT $LN4@OnSelchang
; File D:\git\src\IBK\IBK_DRFN\ProjSrc\SrcDrfn\Chart\ExControl\ExTabCtrl.cpp

; 100  : 	return m_pLoader->OnSelchanging(pNMHDR, pResult);

  0000f	b8 01 00 00 00	 mov	 eax, 1

; 101  : }

  00014	5d		 pop	 ebp
  00015	c2 08 00	 ret	 8
$LN4@OnSelchang:
; File D:\git\src\IBK\IBK_DRFN\ProjSrc\SrcDrfn\Chart\ExControl\Include\LoadHelper.h

; 2821 : 		return pOnSelchanging(m_lpPointer, pNMHDR, pResult);

  00018	ff 75 0c	 push	 DWORD PTR _pResult$[ebp]
  0001b	ff 75 08	 push	 DWORD PTR _pNMHDR$[ebp]
  0001e	ff b0 0c 01 00
	00		 push	 DWORD PTR [eax+268]
  00024	8b 80 48 01 00
	00		 mov	 eax, DWORD PTR [eax+328]
  0002a	ff d0		 call	 eax
  0002c	83 c4 0c	 add	 esp, 12			; 0000000cH
; File D:\git\src\IBK\IBK_DRFN\ProjSrc\SrcDrfn\Chart\ExControl\ExTabCtrl.cpp

; 101  : }

  0002f	5d		 pop	 ebp
  00030	c2 08 00	 ret	 8
?OnSelchanging@CExTabCtrl@@IAEHPAUtagNMHDR@@PAJ@Z ENDP	; CExTabCtrl::OnSelchanging
_TEXT	ENDS
; Function compile flags: /Ogtp
; File D:\git\src\IBK\IBK_DRFN\ProjSrc\SrcDrfn\Chart\ExControl\ExTabCtrl.cpp
; File D:\git\src\IBK\IBK_DRFN\ProjSrc\SrcDrfn\Chart\ExControl\Include\LoadHelper.h
; File D:\git\src\IBK\IBK_DRFN\ProjSrc\SrcDrfn\Chart\ExControl\ExTabCtrl.cpp
; File D:\git\src\IBK\IBK_DRFN\ProjSrc\SrcDrfn\Chart\ExControl\Include\LoadHelper.h
; File D:\git\src\IBK\IBK_DRFN\ProjSrc\SrcDrfn\Chart\ExControl\ExTabCtrl.cpp
;	COMDAT ?OnSelchange@CExTabCtrl@@IAEHPAUtagNMHDR@@PAJ@Z
_TEXT	SEGMENT
_pNMHDR$ = 8						; size = 4
_pResult$ = 12						; size = 4
?OnSelchange@CExTabCtrl@@IAEHPAUtagNMHDR@@PAJ@Z PROC	; CExTabCtrl::OnSelchange, COMDAT
; _this$ = ecx

; 94   : {

  00000	55		 push	 ebp
  00001	8b ec		 mov	 ebp, esp

; 95   : 	return m_pLoader->OnSelchange(pNMHDR, pResult);

  00003	8b 81 80 00 00
	00		 mov	 eax, DWORD PTR [ecx+128]
; File D:\git\src\IBK\IBK_DRFN\ProjSrc\SrcDrfn\Chart\ExControl\Include\LoadHelper.h

; 2810 : 		if(!m_hLib)

  00009	83 78 04 00	 cmp	 DWORD PTR [eax+4], 0
  0000d	75 09		 jne	 SHORT $LN4@OnSelchang
; File D:\git\src\IBK\IBK_DRFN\ProjSrc\SrcDrfn\Chart\ExControl\ExTabCtrl.cpp

; 95   : 	return m_pLoader->OnSelchange(pNMHDR, pResult);

  0000f	b8 01 00 00 00	 mov	 eax, 1

; 96   : }

  00014	5d		 pop	 ebp
  00015	c2 08 00	 ret	 8
$LN4@OnSelchang:
; File D:\git\src\IBK\IBK_DRFN\ProjSrc\SrcDrfn\Chart\ExControl\Include\LoadHelper.h

; 2813 : 		return pOnSelchange(m_lpPointer, pNMHDR, pResult);

  00018	ff 75 0c	 push	 DWORD PTR _pResult$[ebp]
  0001b	ff 75 08	 push	 DWORD PTR _pNMHDR$[ebp]
  0001e	ff b0 0c 01 00
	00		 push	 DWORD PTR [eax+268]
  00024	8b 80 44 01 00
	00		 mov	 eax, DWORD PTR [eax+324]
  0002a	ff d0		 call	 eax
  0002c	83 c4 0c	 add	 esp, 12			; 0000000cH
; File D:\git\src\IBK\IBK_DRFN\ProjSrc\SrcDrfn\Chart\ExControl\ExTabCtrl.cpp

; 96   : }

  0002f	5d		 pop	 ebp
  00030	c2 08 00	 ret	 8
?OnSelchange@CExTabCtrl@@IAEHPAUtagNMHDR@@PAJ@Z ENDP	; CExTabCtrl::OnSelchange
_TEXT	ENDS
; Function compile flags: /Ogtp
; File D:\git\src\IBK\IBK_DRFN\ProjSrc\SrcDrfn\Chart\ExControl\ExTabCtrl.cpp
; File D:\git\src\IBK\IBK_DRFN\ProjSrc\SrcDrfn\Chart\ExControl\Include\LoadHelper.h
; File D:\git\src\IBK\IBK_DRFN\ProjSrc\SrcDrfn\Chart\ExControl\ExTabCtrl.cpp
;	COMDAT ?OnHScroll@CExTabCtrl@@IAEXIIPAVCScrollBar@@@Z
_TEXT	SEGMENT
_nSBCode$ = 8						; size = 4
_nPos$ = 12						; size = 4
_pScrollBar$ = 16					; size = 4
?OnHScroll@CExTabCtrl@@IAEXIIPAVCScrollBar@@@Z PROC	; CExTabCtrl::OnHScroll, COMDAT
; _this$ = ecx

; 89   : {

  00000	55		 push	 ebp
  00001	8b ec		 mov	 ebp, esp

; 90   : 	m_pLoader->OnHScroll(nSBCode, nPos, pScrollBar);

  00003	8b 81 80 00 00
	00		 mov	 eax, DWORD PTR [ecx+128]
; File D:\git\src\IBK\IBK_DRFN\ProjSrc\SrcDrfn\Chart\ExControl\Include\LoadHelper.h

; 2802 : 		if(!m_hLib)

  00009	83 78 04 00	 cmp	 DWORD PTR [eax+4], 0
  0000d	74 1a		 je	 SHORT $LN3@OnHScroll

; 2803 : 			return;
; 2804 : 
; 2805 : 		pOnHScroll(m_lpPointer, nSBCode, nPos, pScrollBar);

  0000f	ff 75 10	 push	 DWORD PTR _pScrollBar$[ebp]
  00012	ff 75 0c	 push	 DWORD PTR _nPos$[ebp]
  00015	ff 75 08	 push	 DWORD PTR _nSBCode$[ebp]
  00018	ff b0 0c 01 00
	00		 push	 DWORD PTR [eax+268]
  0001e	8b 80 40 01 00
	00		 mov	 eax, DWORD PTR [eax+320]
  00024	ff d0		 call	 eax
  00026	83 c4 10	 add	 esp, 16			; 00000010H
$LN3@OnHScroll:
; File D:\git\src\IBK\IBK_DRFN\ProjSrc\SrcDrfn\Chart\ExControl\ExTabCtrl.cpp

; 91   : }

  00029	5d		 pop	 ebp
  0002a	c2 0c 00	 ret	 12			; 0000000cH
?OnHScroll@CExTabCtrl@@IAEXIIPAVCScrollBar@@@Z ENDP	; CExTabCtrl::OnHScroll
_TEXT	ENDS
; Function compile flags: /Ogtp
; File D:\git\src\IBK\IBK_DRFN\ProjSrc\SrcDrfn\Chart\ExControl\ExTabCtrl.cpp
; File D:\git\src\IBK\IBK_DRFN\ProjSrc\SrcDrfn\Chart\ExControl\Include\LoadHelper.h
; File D:\git\src\IBK\IBK_DRFN\ProjSrc\SrcDrfn\Chart\ExControl\ExTabCtrl.cpp
;	COMDAT ?OnPaint@CExTabCtrl@@IAEXXZ
_TEXT	SEGMENT
_dc$ = -100						; size = 84
__$ArrayPad$ = -16					; size = 4
__$EHRec$ = -12						; size = 12
?OnPaint@CExTabCtrl@@IAEXXZ PROC			; CExTabCtrl::OnPaint, COMDAT
; _this$ = ecx

; 83   : {

  00000	55		 push	 ebp
  00001	8b ec		 mov	 ebp, esp
  00003	6a ff		 push	 -1
  00005	68 00 00 00 00	 push	 __ehhandler$?OnPaint@CExTabCtrl@@IAEXXZ
  0000a	64 a1 00 00 00
	00		 mov	 eax, DWORD PTR fs:0
  00010	50		 push	 eax
  00011	83 ec 58	 sub	 esp, 88			; 00000058H
  00014	a1 00 00 00 00	 mov	 eax, DWORD PTR ___security_cookie
  00019	33 c5		 xor	 eax, ebp
  0001b	89 45 f0	 mov	 DWORD PTR __$ArrayPad$[ebp], eax
  0001e	56		 push	 esi
  0001f	50		 push	 eax
  00020	8d 45 f4	 lea	 eax, DWORD PTR __$EHRec$[ebp]
  00023	64 a3 00 00 00
	00		 mov	 DWORD PTR fs:0, eax
  00029	8b f1		 mov	 esi, ecx

; 84   : 	CPaintDC dc(this);

  0002b	56		 push	 esi
  0002c	8d 4d 9c	 lea	 ecx, DWORD PTR _dc$[ebp]
  0002f	e8 00 00 00 00	 call	 ??0CPaintDC@@QAE@PAVCWnd@@@Z ; CPaintDC::CPaintDC

; 85   : 	m_pLoader->OnPaint(&dc);

  00034	8b 86 80 00 00
	00		 mov	 eax, DWORD PTR [esi+128]
  0003a	c7 45 fc 00 00
	00 00		 mov	 DWORD PTR __$EHRec$[ebp+8], 0
; File D:\git\src\IBK\IBK_DRFN\ProjSrc\SrcDrfn\Chart\ExControl\Include\LoadHelper.h

; 2794 : 		if(!m_hLib)

  00041	83 78 04 00	 cmp	 DWORD PTR [eax+4], 0
  00045	74 15		 je	 SHORT $LN4@OnPaint

; 2795 : 			return;
; 2796 : 
; 2797 : 		pOnPaint(m_lpPointer, pDC);

  00047	8d 4d 9c	 lea	 ecx, DWORD PTR _dc$[ebp]
  0004a	51		 push	 ecx
  0004b	ff b0 0c 01 00
	00		 push	 DWORD PTR [eax+268]
  00051	8b 80 3c 01 00
	00		 mov	 eax, DWORD PTR [eax+316]
  00057	ff d0		 call	 eax
  00059	83 c4 08	 add	 esp, 8
$LN4@OnPaint:
; File D:\git\src\IBK\IBK_DRFN\ProjSrc\SrcDrfn\Chart\ExControl\ExTabCtrl.cpp

; 86   : }

  0005c	8d 4d 9c	 lea	 ecx, DWORD PTR _dc$[ebp]
  0005f	e8 00 00 00 00	 call	 ??1CPaintDC@@UAE@XZ	; CPaintDC::~CPaintDC
  00064	8b 4d f4	 mov	 ecx, DWORD PTR __$EHRec$[ebp]
  00067	64 89 0d 00 00
	00 00		 mov	 DWORD PTR fs:0, ecx
  0006e	59		 pop	 ecx
  0006f	5e		 pop	 esi
  00070	8b 4d f0	 mov	 ecx, DWORD PTR __$ArrayPad$[ebp]
  00073	33 cd		 xor	 ecx, ebp
  00075	e8 00 00 00 00	 call	 @__security_check_cookie@4
  0007a	8b e5		 mov	 esp, ebp
  0007c	5d		 pop	 ebp
  0007d	c3		 ret	 0
_TEXT	ENDS
;	COMDAT text$x
text$x	SEGMENT
__unwindfunclet$?OnPaint@CExTabCtrl@@IAEXXZ$0:
  00000	8d 4d 9c	 lea	 ecx, DWORD PTR _dc$[ebp]
  00003	e9 00 00 00 00	 jmp	 ??1CPaintDC@@UAE@XZ	; CPaintDC::~CPaintDC
  00008	cc		 int	 3
  00009	cc		 int	 3
  0000a	cc		 int	 3
  0000b	cc		 int	 3
  0000c	cc		 int	 3
__ehhandler$?OnPaint@CExTabCtrl@@IAEXXZ:
  0000d	90		 npad	 1
  0000e	90		 npad	 1
  0000f	8b 54 24 08	 mov	 edx, DWORD PTR [esp+8]
  00013	8d 42 0c	 lea	 eax, DWORD PTR [edx+12]
  00016	8b 4a a0	 mov	 ecx, DWORD PTR [edx-96]
  00019	33 c8		 xor	 ecx, eax
  0001b	e8 00 00 00 00	 call	 @__security_check_cookie@4
  00020	8b 4a fc	 mov	 ecx, DWORD PTR [edx-4]
  00023	33 c8		 xor	 ecx, eax
  00025	e8 00 00 00 00	 call	 @__security_check_cookie@4
  0002a	b8 00 00 00 00	 mov	 eax, OFFSET __ehfuncinfo$?OnPaint@CExTabCtrl@@IAEXXZ
  0002f	e9 00 00 00 00	 jmp	 ___CxxFrameHandler3
text$x	ENDS
?OnPaint@CExTabCtrl@@IAEXXZ ENDP			; CExTabCtrl::OnPaint
; Function compile flags: /Ogtp
; File D:\git\src\IBK\IBK_DRFN\ProjSrc\SrcDrfn\Chart\ExControl\ExTabCtrl.cpp
; File D:\git\src\IBK\IBK_DRFN\ProjSrc\SrcDrfn\Chart\ExControl\Include\LoadHelper.h
; File D:\git\src\IBK\IBK_DRFN\ProjSrc\SrcDrfn\Chart\ExControl\ExTabCtrl.cpp
; File D:\git\src\IBK\IBK_DRFN\ProjSrc\SrcDrfn\Chart\ExControl\Include\LoadHelper.h
; File D:\git\src\IBK\IBK_DRFN\ProjSrc\SrcDrfn\Chart\ExControl\ExTabCtrl.cpp
;	COMDAT ?OnEraseBkgnd@CExTabCtrl@@IAEHPAVCDC@@@Z
_TEXT	SEGMENT
_pDC$ = 8						; size = 4
?OnEraseBkgnd@CExTabCtrl@@IAEHPAVCDC@@@Z PROC		; CExTabCtrl::OnEraseBkgnd, COMDAT
; _this$ = ecx

; 78   : {

  00000	55		 push	 ebp
  00001	8b ec		 mov	 ebp, esp

; 79   : 	return m_pLoader->OnEraseBkgnd(pDC);

  00003	8b 81 80 00 00
	00		 mov	 eax, DWORD PTR [ecx+128]
; File D:\git\src\IBK\IBK_DRFN\ProjSrc\SrcDrfn\Chart\ExControl\Include\LoadHelper.h

; 2746 : 		if(!m_hLib)

  00009	83 78 04 00	 cmp	 DWORD PTR [eax+4], 0
  0000d	75 06		 jne	 SHORT $LN4@OnEraseBkg
; File D:\git\src\IBK\IBK_DRFN\ProjSrc\SrcDrfn\Chart\ExControl\ExTabCtrl.cpp

; 79   : 	return m_pLoader->OnEraseBkgnd(pDC);

  0000f	33 c0		 xor	 eax, eax

; 80   : }

  00011	5d		 pop	 ebp
  00012	c2 04 00	 ret	 4
$LN4@OnEraseBkg:
; File D:\git\src\IBK\IBK_DRFN\ProjSrc\SrcDrfn\Chart\ExControl\Include\LoadHelper.h

; 2749 : 		return pOnEraseBkgnd(m_lpPointer, pDC);

  00015	ff 75 08	 push	 DWORD PTR _pDC$[ebp]
  00018	ff b0 0c 01 00
	00		 push	 DWORD PTR [eax+268]
  0001e	8b 80 24 01 00
	00		 mov	 eax, DWORD PTR [eax+292]
  00024	ff d0		 call	 eax
  00026	83 c4 08	 add	 esp, 8
; File D:\git\src\IBK\IBK_DRFN\ProjSrc\SrcDrfn\Chart\ExControl\ExTabCtrl.cpp

; 80   : }

  00029	5d		 pop	 ebp
  0002a	c2 04 00	 ret	 4
?OnEraseBkgnd@CExTabCtrl@@IAEHPAVCDC@@@Z ENDP		; CExTabCtrl::OnEraseBkgnd
_TEXT	ENDS
; Function compile flags: /Ogtp
; File D:\git\src\IBK\IBK_DRFN\ProjSrc\SrcDrfn\Chart\ExControl\ExTabCtrl.cpp
; File D:\git\src\IBK\IBK_DRFN\ProjSrc\SrcDrfn\Chart\ExControl\Include\LoadHelper.h
; File D:\git\src\IBK\IBK_DRFN\ProjSrc\SrcDrfn\Chart\ExControl\ExTabCtrl.cpp
;	COMDAT ?OnMouseMove@CExTabCtrl@@IAEXIVCPoint@@@Z
_TEXT	SEGMENT
_nFlags$ = 8						; size = 4
_point$ = 12						; size = 8
?OnMouseMove@CExTabCtrl@@IAEXIVCPoint@@@Z PROC		; CExTabCtrl::OnMouseMove, COMDAT
; _this$ = ecx

; 73   : {

  00000	55		 push	 ebp
  00001	8b ec		 mov	 ebp, esp

; 74   : 	m_pLoader->OnMouseMove(nFlags, point);

  00003	8b 81 80 00 00
	00		 mov	 eax, DWORD PTR [ecx+128]
; File D:\git\src\IBK\IBK_DRFN\ProjSrc\SrcDrfn\Chart\ExControl\Include\LoadHelper.h

; 2786 : 		if(!m_hLib)

  00009	83 78 04 00	 cmp	 DWORD PTR [eax+4], 0
  0000d	74 1a		 je	 SHORT $LN3@OnMouseMov

; 2787 : 			return;
; 2788 : 
; 2789 : 		pOnMouseMove(m_lpPointer, nFlags, point);

  0000f	ff 75 10	 push	 DWORD PTR _point$[ebp+4]
  00012	ff 75 0c	 push	 DWORD PTR _point$[ebp]
  00015	ff 75 08	 push	 DWORD PTR _nFlags$[ebp]
  00018	ff b0 0c 01 00
	00		 push	 DWORD PTR [eax+268]
  0001e	8b 80 38 01 00
	00		 mov	 eax, DWORD PTR [eax+312]
  00024	ff d0		 call	 eax
  00026	83 c4 10	 add	 esp, 16			; 00000010H
$LN3@OnMouseMov:
; File D:\git\src\IBK\IBK_DRFN\ProjSrc\SrcDrfn\Chart\ExControl\ExTabCtrl.cpp

; 75   : }

  00029	5d		 pop	 ebp
  0002a	c2 0c 00	 ret	 12			; 0000000cH
?OnMouseMove@CExTabCtrl@@IAEXIVCPoint@@@Z ENDP		; CExTabCtrl::OnMouseMove
_TEXT	ENDS
; Function compile flags: /Ogtp
; File D:\git\src\IBK\IBK_DRFN\ProjSrc\SrcDrfn\Chart\ExControl\ExTabCtrl.cpp
;	COMDAT ??1CExTabCtrl@@UAE@XZ
_TEXT	SEGMENT
??1CExTabCtrl@@UAE@XZ PROC				; CExTabCtrl::~CExTabCtrl, COMDAT
; _this$ = ecx

; 24   : {

  00000	56		 push	 esi
  00001	8b f1		 mov	 esi, ecx

; 25   : 	delete m_pLoader;

  00003	8b 8e 80 00 00
	00		 mov	 ecx, DWORD PTR [esi+128]
  00009	c7 06 00 00 00
	00		 mov	 DWORD PTR [esi], OFFSET ??_7CExTabCtrl@@6B@
  0000f	85 c9		 test	 ecx, ecx
  00011	74 07		 je	 SHORT $LN3@CExTabCtrl
  00013	8b 01		 mov	 eax, DWORD PTR [ecx]
  00015	6a 01		 push	 1
  00017	ff 50 04	 call	 DWORD PTR [eax+4]
$LN3@CExTabCtrl:

; 26   : }

  0001a	8b ce		 mov	 ecx, esi
  0001c	5e		 pop	 esi
  0001d	e9 00 00 00 00	 jmp	 ??1CTabCtrl@@UAE@XZ	; CTabCtrl::~CTabCtrl
??1CExTabCtrl@@UAE@XZ ENDP				; CExTabCtrl::~CExTabCtrl
_TEXT	ENDS
; Function compile flags: /Ogtp
; File D:\git\src\IBK\IBK_DRFN\ProjSrc\SrcDrfn\Chart\ExControl\ExTabCtrl.cpp
; File D:\git\src\IBK\IBK_DRFN\ProjSrc\SrcDrfn\Chart\ExControl\Include\LoadHelper.h
; File D:\git\src\IBK\IBK_DRFN\ProjSrc\SrcDrfn\Chart\ExControl\ExTabCtrl.cpp
; File D:\git\src\IBK\IBK_DRFN\ProjSrc\SrcDrfn\Chart\ExControl\Include\LoadHelper.h
; File D:\git\src\IBK\IBK_DRFN\ProjSrc\SrcDrfn\Chart\ExControl\ExTabCtrl.cpp
;	COMDAT ?WindowProc@CExTabCtrl@@MAEJIIJ@Z
_TEXT	SEGMENT
_message$ = 8						; size = 4
_wParam$ = 12						; size = 4
_lParam$ = 16						; size = 4
?WindowProc@CExTabCtrl@@MAEJIIJ@Z PROC			; CExTabCtrl::WindowProc, COMDAT
; _this$ = ecx

; 119  : {

  00000	55		 push	 ebp
  00001	8b ec		 mov	 ebp, esp

; 120  : 	return m_pLoader->WindowProc(message, wParam, lParam);

  00003	8b 81 80 00 00
	00		 mov	 eax, DWORD PTR [ecx+128]
; File D:\git\src\IBK\IBK_DRFN\ProjSrc\SrcDrfn\Chart\ExControl\Include\LoadHelper.h

; 2850 : 		if(!m_hLib)

  00009	83 78 04 00	 cmp	 DWORD PTR [eax+4], 0
  0000d	75 06		 jne	 SHORT $LN4@WindowProc
; File D:\git\src\IBK\IBK_DRFN\ProjSrc\SrcDrfn\Chart\ExControl\ExTabCtrl.cpp

; 120  : 	return m_pLoader->WindowProc(message, wParam, lParam);

  0000f	33 c0		 xor	 eax, eax

; 121  : }

  00011	5d		 pop	 ebp
  00012	c2 0c 00	 ret	 12			; 0000000cH
$LN4@WindowProc:
; File D:\git\src\IBK\IBK_DRFN\ProjSrc\SrcDrfn\Chart\ExControl\Include\LoadHelper.h

; 2853 : 		return pWindowProc(m_lpPointer, message, wParam, lParam);

  00015	ff 75 10	 push	 DWORD PTR _lParam$[ebp]
  00018	ff 75 0c	 push	 DWORD PTR _wParam$[ebp]
  0001b	ff 75 08	 push	 DWORD PTR _message$[ebp]
  0001e	ff b0 0c 01 00
	00		 push	 DWORD PTR [eax+268]
  00024	8b 80 58 01 00
	00		 mov	 eax, DWORD PTR [eax+344]
  0002a	ff d0		 call	 eax
  0002c	83 c4 10	 add	 esp, 16			; 00000010H
; File D:\git\src\IBK\IBK_DRFN\ProjSrc\SrcDrfn\Chart\ExControl\ExTabCtrl.cpp

; 121  : }

  0002f	5d		 pop	 ebp
  00030	c2 0c 00	 ret	 12			; 0000000cH
?WindowProc@CExTabCtrl@@MAEJIIJ@Z ENDP			; CExTabCtrl::WindowProc
_TEXT	ENDS
; Function compile flags: /Ogtp
; File D:\git\src\IBK\IBK_DRFN\ProjSrc\SrcDrfn\Chart\ExControl\ExTabCtrl.cpp
; File D:\git\src\IBK\IBK_DRFN\ProjSrc\SrcDrfn\Chart\ExControl\Include\LoadHelper.h
; File D:\git\src\IBK\IBK_DRFN\ProjSrc\SrcDrfn\Chart\ExControl\ExTabCtrl.cpp
;	COMDAT ?PreSubclassWindow@CExTabCtrl@@MAEXXZ
_TEXT	SEGMENT
?PreSubclassWindow@CExTabCtrl@@MAEXXZ PROC		; CExTabCtrl::PreSubclassWindow, COMDAT
; _this$ = ecx

; 64   : 	m_pLoader->PreSubclassWindow();

  00000	8b 81 80 00 00
	00		 mov	 eax, DWORD PTR [ecx+128]
; File D:\git\src\IBK\IBK_DRFN\ProjSrc\SrcDrfn\Chart\ExControl\Include\LoadHelper.h

; 2738 : 		if(!m_hLib)

  00006	83 78 04 00	 cmp	 DWORD PTR [eax+4], 0
  0000a	74 0f		 je	 SHORT $LN3@PreSubclas

; 2739 : 			return;
; 2740 : 
; 2741 : 		pPreSubclassWindow(m_lpPointer);

  0000c	ff b0 0c 01 00
	00		 push	 DWORD PTR [eax+268]
  00012	8b 80 20 01 00
	00		 mov	 eax, DWORD PTR [eax+288]
  00018	ff d0		 call	 eax
  0001a	59		 pop	 ecx
$LN3@PreSubclas:
; File D:\git\src\IBK\IBK_DRFN\ProjSrc\SrcDrfn\Chart\ExControl\ExTabCtrl.cpp

; 65   : }

  0001b	c3		 ret	 0
?PreSubclassWindow@CExTabCtrl@@MAEXXZ ENDP		; CExTabCtrl::PreSubclassWindow
_TEXT	ENDS
; Function compile flags: /Ogtp
; File D:\git\src\IBK\IBK_DRFN\ProjSrc\SrcDrfn\Chart\ExControl\ExTabCtrl.cpp
; File D:\git\src\IBK\IBK_DRFN\ProjSrc\SrcDrfn\Chart\ExControl\Include\LoadHelper.h
; File D:\git\src\IBK\IBK_DRFN\ProjSrc\SrcDrfn\Chart\ExControl\ExTabCtrl.cpp
;	COMDAT ?DrawItem@CExTabCtrl@@MAEXPAUtagDRAWITEMSTRUCT@@@Z
_TEXT	SEGMENT
_lpDrawItemStruct$ = 8					; size = 4
?DrawItem@CExTabCtrl@@MAEXPAUtagDRAWITEMSTRUCT@@@Z PROC	; CExTabCtrl::DrawItem, COMDAT
; _this$ = ecx

; 68   : {	

  00000	55		 push	 ebp
  00001	8b ec		 mov	 ebp, esp

; 69   : 	m_pLoader->DrawItem(lpDrawItemStruct);

  00003	8b 81 80 00 00
	00		 mov	 eax, DWORD PTR [ecx+128]
; File D:\git\src\IBK\IBK_DRFN\ProjSrc\SrcDrfn\Chart\ExControl\Include\LoadHelper.h

; 2754 : 		if(!m_hLib)

  00009	83 78 04 00	 cmp	 DWORD PTR [eax+4], 0
  0000d	74 14		 je	 SHORT $LN3@DrawItem

; 2755 : 			return;
; 2756 : 
; 2757 : 		pDrawItem(m_lpPointer, lpDrawItemStruct);

  0000f	ff 75 08	 push	 DWORD PTR _lpDrawItemStruct$[ebp]
  00012	ff b0 0c 01 00
	00		 push	 DWORD PTR [eax+268]
  00018	8b 80 28 01 00
	00		 mov	 eax, DWORD PTR [eax+296]
  0001e	ff d0		 call	 eax
  00020	83 c4 08	 add	 esp, 8
$LN3@DrawItem:
; File D:\git\src\IBK\IBK_DRFN\ProjSrc\SrcDrfn\Chart\ExControl\ExTabCtrl.cpp

; 70   : }

  00023	5d		 pop	 ebp
  00024	c2 04 00	 ret	 4
?DrawItem@CExTabCtrl@@MAEXPAUtagDRAWITEMSTRUCT@@@Z ENDP	; CExTabCtrl::DrawItem
_TEXT	ENDS
; Function compile flags: /Ogtp
; File D:\git\src\IBK\IBK_DRFN\ProjSrc\SrcDrfn\Chart\ExControl\ExTabCtrl.cpp
; File D:\git\src\IBK\IBK_DRFN\ProjSrc\SrcDrfn\Chart\ExControl\Include\LoadHelper.h
; File D:\git\src\IBK\IBK_DRFN\ProjSrc\SrcDrfn\Chart\ExControl\ExTabCtrl.cpp
;	COMDAT ?SetSTTabColor@CExTabCtrl@@QAEXJ@Z
_TEXT	SEGMENT
_lSTTabColor$ = 8					; size = 4
?SetSTTabColor@CExTabCtrl@@QAEXJ@Z PROC			; CExTabCtrl::SetSTTabColor, COMDAT
; _this$ = ecx

; 139  : {

  00000	55		 push	 ebp
  00001	8b ec		 mov	 ebp, esp

; 140  : 	m_pLoader->SetSTTabColor(lSTTabColor);

  00003	8b 81 80 00 00
	00		 mov	 eax, DWORD PTR [ecx+128]
; File D:\git\src\IBK\IBK_DRFN\ProjSrc\SrcDrfn\Chart\ExControl\Include\LoadHelper.h

; 2882 : 		if(!m_hLib)

  00009	83 78 04 00	 cmp	 DWORD PTR [eax+4], 0
  0000d	74 14		 je	 SHORT $LN3@SetSTTabCo

; 2883 : 			return;
; 2884 : 
; 2885 : 		pSetSTTabColor(m_lpPointer, lSTTabColor);

  0000f	ff 75 08	 push	 DWORD PTR _lSTTabColor$[ebp]
  00012	ff b0 0c 01 00
	00		 push	 DWORD PTR [eax+268]
  00018	8b 80 68 01 00
	00		 mov	 eax, DWORD PTR [eax+360]
  0001e	ff d0		 call	 eax
  00020	83 c4 08	 add	 esp, 8
$LN3@SetSTTabCo:
; File D:\git\src\IBK\IBK_DRFN\ProjSrc\SrcDrfn\Chart\ExControl\ExTabCtrl.cpp

; 141  : }

  00023	5d		 pop	 ebp
  00024	c2 04 00	 ret	 4
?SetSTTabColor@CExTabCtrl@@QAEXJ@Z ENDP			; CExTabCtrl::SetSTTabColor
_TEXT	ENDS
; Function compile flags: /Ogtp
; File D:\git\src\IBK\IBK_DRFN\ProjSrc\SrcDrfn\Chart\ExControl\ExTabCtrl.cpp
; File D:\git\src\IBK\IBK_DRFN\ProjSrc\SrcDrfn\Chart\ExControl\Include\LoadHelper.h
; File D:\git\src\IBK\IBK_DRFN\ProjSrc\SrcDrfn\Chart\ExControl\ExTabCtrl.cpp
;	COMDAT ?SetTabColor@CExTabCtrl@@QAEXKKK@Z
_TEXT	SEGMENT
_clrBkgrnd$ = 8						; size = 4
_clrActive$ = 12					; size = 4
_clrInactive$ = 16					; size = 4
?SetTabColor@CExTabCtrl@@QAEXKKK@Z PROC			; CExTabCtrl::SetTabColor, COMDAT
; _this$ = ecx

; 134  : {

  00000	55		 push	 ebp
  00001	8b ec		 mov	 ebp, esp

; 135  : 	m_pLoader->SetTabColor(clrBkgrnd, clrActive, clrInactive);

  00003	8b 81 80 00 00
	00		 mov	 eax, DWORD PTR [ecx+128]
; File D:\git\src\IBK\IBK_DRFN\ProjSrc\SrcDrfn\Chart\ExControl\Include\LoadHelper.h

; 2874 : 		if(!m_hLib)

  00009	83 78 04 00	 cmp	 DWORD PTR [eax+4], 0
  0000d	74 1a		 je	 SHORT $LN3@SetTabColo

; 2875 : 			return;
; 2876 : 
; 2877 : 		pSetTabColor(m_lpPointer, clrBkgrnd, clrActive, clrInactive);

  0000f	ff 75 10	 push	 DWORD PTR _clrInactive$[ebp]
  00012	ff 75 0c	 push	 DWORD PTR _clrActive$[ebp]
  00015	ff 75 08	 push	 DWORD PTR _clrBkgrnd$[ebp]
  00018	ff b0 0c 01 00
	00		 push	 DWORD PTR [eax+268]
  0001e	8b 80 64 01 00
	00		 mov	 eax, DWORD PTR [eax+356]
  00024	ff d0		 call	 eax
  00026	83 c4 10	 add	 esp, 16			; 00000010H
$LN3@SetTabColo:
; File D:\git\src\IBK\IBK_DRFN\ProjSrc\SrcDrfn\Chart\ExControl\ExTabCtrl.cpp

; 136  : }

  00029	5d		 pop	 ebp
  0002a	c2 0c 00	 ret	 12			; 0000000cH
?SetTabColor@CExTabCtrl@@QAEXKKK@Z ENDP			; CExTabCtrl::SetTabColor
_TEXT	ENDS
; Function compile flags: /Ogtp
; File D:\git\src\IBK\IBK_DRFN\ProjSrc\SrcDrfn\Chart\ExControl\ExTabCtrl.cpp
; File D:\git\src\IBK\IBK_DRFN\ProjSrc\SrcDrfn\Chart\ExControl\Include\LoadHelper.h
; File D:\git\src\IBK\IBK_DRFN\ProjSrc\SrcDrfn\Chart\ExControl\ExTabCtrl.cpp
;	COMDAT ?RemoveChildControl@CExTabCtrl@@QAEXPAVCWnd@@@Z
_TEXT	SEGMENT
_pControl$ = 8						; size = 4
?RemoveChildControl@CExTabCtrl@@QAEXPAVCWnd@@@Z PROC	; CExTabCtrl::RemoveChildControl, COMDAT
; _this$ = ecx

; 129  : {

  00000	55		 push	 ebp
  00001	8b ec		 mov	 ebp, esp

; 130  : 	m_pLoader->RemoveChildControl(pControl);

  00003	8b 81 80 00 00
	00		 mov	 eax, DWORD PTR [ecx+128]
; File D:\git\src\IBK\IBK_DRFN\ProjSrc\SrcDrfn\Chart\ExControl\Include\LoadHelper.h

; 2866 : 		if(!m_hLib)

  00009	83 78 04 00	 cmp	 DWORD PTR [eax+4], 0
  0000d	74 14		 je	 SHORT $LN3@RemoveChil

; 2867 : 			return;
; 2868 : 
; 2869 : 		pRemoveChildControl(m_lpPointer, pControl);

  0000f	ff 75 08	 push	 DWORD PTR _pControl$[ebp]
  00012	ff b0 0c 01 00
	00		 push	 DWORD PTR [eax+268]
  00018	8b 80 60 01 00
	00		 mov	 eax, DWORD PTR [eax+352]
  0001e	ff d0		 call	 eax
  00020	83 c4 08	 add	 esp, 8
$LN3@RemoveChil:
; File D:\git\src\IBK\IBK_DRFN\ProjSrc\SrcDrfn\Chart\ExControl\ExTabCtrl.cpp

; 131  : }

  00023	5d		 pop	 ebp
  00024	c2 04 00	 ret	 4
?RemoveChildControl@CExTabCtrl@@QAEXPAVCWnd@@@Z ENDP	; CExTabCtrl::RemoveChildControl
_TEXT	ENDS
; Function compile flags: /Ogtp
; File D:\git\src\IBK\IBK_DRFN\ProjSrc\SrcDrfn\Chart\ExControl\ExTabCtrl.cpp
; File D:\git\src\IBK\IBK_DRFN\ProjSrc\SrcDrfn\Chart\ExControl\Include\LoadHelper.h
; File D:\git\src\IBK\IBK_DRFN\ProjSrc\SrcDrfn\Chart\ExControl\ExTabCtrl.cpp
;	COMDAT ?AddChildControl@CExTabCtrl@@QAEXPAVCWnd@@@Z
_TEXT	SEGMENT
_pControl$ = 8						; size = 4
?AddChildControl@CExTabCtrl@@QAEXPAVCWnd@@@Z PROC	; CExTabCtrl::AddChildControl, COMDAT
; _this$ = ecx

; 124  : {

  00000	55		 push	 ebp
  00001	8b ec		 mov	 ebp, esp

; 125  : 	m_pLoader->AddChildControl(pControl);

  00003	8b 81 80 00 00
	00		 mov	 eax, DWORD PTR [ecx+128]
; File D:\git\src\IBK\IBK_DRFN\ProjSrc\SrcDrfn\Chart\ExControl\Include\LoadHelper.h

; 2858 : 		if(!m_hLib)

  00009	83 78 04 00	 cmp	 DWORD PTR [eax+4], 0
  0000d	74 14		 je	 SHORT $LN3@AddChildCo

; 2859 : 			return;
; 2860 : 
; 2861 : 		pAddChildControl(m_lpPointer, pControl);

  0000f	ff 75 08	 push	 DWORD PTR _pControl$[ebp]
  00012	ff b0 0c 01 00
	00		 push	 DWORD PTR [eax+268]
  00018	8b 80 5c 01 00
	00		 mov	 eax, DWORD PTR [eax+348]
  0001e	ff d0		 call	 eax
  00020	83 c4 08	 add	 esp, 8
$LN3@AddChildCo:
; File D:\git\src\IBK\IBK_DRFN\ProjSrc\SrcDrfn\Chart\ExControl\ExTabCtrl.cpp

; 126  : }

  00023	5d		 pop	 ebp
  00024	c2 04 00	 ret	 4
?AddChildControl@CExTabCtrl@@QAEXPAVCWnd@@@Z ENDP	; CExTabCtrl::AddChildControl
_TEXT	ENDS
; Function compile flags: /Ogtp
; File D:\git\src\IBK\IBK_DRFN\ProjSrc\SrcDrfn\Chart\ExControl\ExTabCtrl.cpp
; File D:\git\src\IBK\IBK_DRFN\ProjSrc\SrcDrfn\Chart\ExControl\Include\LoadHelper.h
; File D:\git\src\IBK\IBK_DRFN\ProjSrc\SrcDrfn\Chart\ExControl\ExTabCtrl.cpp
;	COMDAT ?InsertItem@CExTabCtrl@@QAEXHPAUtagTCITEMA@@I@Z
_TEXT	SEGMENT
_nItem$ = 8						; size = 4
_pTabCtrlItem$ = 12					; size = 4
_nTab$ = 16						; size = 4
?InsertItem@CExTabCtrl@@QAEXHPAUtagTCITEMA@@I@Z PROC	; CExTabCtrl::InsertItem, COMDAT
; _this$ = ecx

; 58   : {

  00000	55		 push	 ebp
  00001	8b ec		 mov	 ebp, esp

; 59   : 	m_pLoader->InsertItem(nItem, pTabCtrlItem, nTab);

  00003	8b 81 80 00 00
	00		 mov	 eax, DWORD PTR [ecx+128]
; File D:\git\src\IBK\IBK_DRFN\ProjSrc\SrcDrfn\Chart\ExControl\Include\LoadHelper.h

; 2778 : 		if(!m_hLib)

  00009	83 78 04 00	 cmp	 DWORD PTR [eax+4], 0
  0000d	74 1a		 je	 SHORT $LN3@InsertItem

; 2779 : 			return;
; 2780 : 
; 2781 : 		pInsertItem3(m_lpPointer, nItem, pTabCtrlItem, nTab);

  0000f	ff 75 10	 push	 DWORD PTR _nTab$[ebp]
  00012	ff 75 0c	 push	 DWORD PTR _pTabCtrlItem$[ebp]
  00015	ff 75 08	 push	 DWORD PTR _nItem$[ebp]
  00018	ff b0 0c 01 00
	00		 push	 DWORD PTR [eax+268]
  0001e	8b 80 34 01 00
	00		 mov	 eax, DWORD PTR [eax+308]
  00024	ff d0		 call	 eax
  00026	83 c4 10	 add	 esp, 16			; 00000010H
$LN3@InsertItem:
; File D:\git\src\IBK\IBK_DRFN\ProjSrc\SrcDrfn\Chart\ExControl\ExTabCtrl.cpp

; 60   : }

  00029	5d		 pop	 ebp
  0002a	c2 0c 00	 ret	 12			; 0000000cH
?InsertItem@CExTabCtrl@@QAEXHPAUtagTCITEMA@@I@Z ENDP	; CExTabCtrl::InsertItem
_TEXT	ENDS
; Function compile flags: /Ogtp
; File D:\git\src\IBK\IBK_DRFN\ProjSrc\SrcDrfn\Chart\ExControl\ExTabCtrl.cpp
; File D:\git\src\IBK\IBK_DRFN\ProjSrc\SrcDrfn\Chart\ExControl\Include\LoadHelper.h
; File D:\git\src\IBK\IBK_DRFN\ProjSrc\SrcDrfn\Chart\ExControl\ExTabCtrl.cpp
;	COMDAT ?InsertItem@CExTabCtrl@@QAEXHPADHI@Z
_TEXT	SEGMENT
_nItem$ = 8						; size = 4
_lpszItem$ = 12						; size = 4
_nImage$ = 16						; size = 4
_nTab$ = 20						; size = 4
?InsertItem@CExTabCtrl@@QAEXHPADHI@Z PROC		; CExTabCtrl::InsertItem, COMDAT
; _this$ = ecx

; 53   : {

  00000	55		 push	 ebp
  00001	8b ec		 mov	 ebp, esp

; 54   : 	m_pLoader->InsertItem(nItem, lpszItem, nItem, nTab);

  00003	8b 89 80 00 00
	00		 mov	 ecx, DWORD PTR [ecx+128]
; File D:\git\src\IBK\IBK_DRFN\ProjSrc\SrcDrfn\Chart\ExControl\Include\LoadHelper.h

; 2770 : 		if(!m_hLib)

  00009	83 79 04 00	 cmp	 DWORD PTR [ecx+4], 0
  0000d	74 1c		 je	 SHORT $LN3@InsertItem

; 2771 : 			return;
; 2772 : 
; 2773 : 		pInsertItem2(m_lpPointer, nItem, lpszItem, nImage, nTab);

  0000f	ff 75 14	 push	 DWORD PTR _nTab$[ebp]
  00012	8b 45 08	 mov	 eax, DWORD PTR _nItem$[ebp]
  00015	50		 push	 eax
  00016	ff 75 0c	 push	 DWORD PTR _lpszItem$[ebp]
  00019	50		 push	 eax
  0001a	ff b1 0c 01 00
	00		 push	 DWORD PTR [ecx+268]
  00020	8b 81 30 01 00
	00		 mov	 eax, DWORD PTR [ecx+304]
  00026	ff d0		 call	 eax
  00028	83 c4 14	 add	 esp, 20			; 00000014H
$LN3@InsertItem:
; File D:\git\src\IBK\IBK_DRFN\ProjSrc\SrcDrfn\Chart\ExControl\ExTabCtrl.cpp

; 55   : }

  0002b	5d		 pop	 ebp
  0002c	c2 10 00	 ret	 16			; 00000010H
?InsertItem@CExTabCtrl@@QAEXHPADHI@Z ENDP		; CExTabCtrl::InsertItem
_TEXT	ENDS
; Function compile flags: /Ogtp
; File D:\git\src\IBK\IBK_DRFN\ProjSrc\SrcDrfn\Chart\ExControl\ExTabCtrl.cpp
; File D:\git\src\IBK\IBK_DRFN\ProjSrc\SrcDrfn\Chart\ExControl\Include\LoadHelper.h
; File D:\git\src\IBK\IBK_DRFN\ProjSrc\SrcDrfn\Chart\ExControl\ExTabCtrl.cpp
;	COMDAT ?InsertItem@CExTabCtrl@@QAEXHPADI@Z
_TEXT	SEGMENT
_nItem$ = 8						; size = 4
_lpszItem$ = 12						; size = 4
_nTab$ = 16						; size = 4
?InsertItem@CExTabCtrl@@QAEXHPADI@Z PROC		; CExTabCtrl::InsertItem, COMDAT
; _this$ = ecx

; 48   : {

  00000	55		 push	 ebp
  00001	8b ec		 mov	 ebp, esp

; 49   : 	m_pLoader->InsertItem(nItem, lpszItem, nTab);

  00003	8b 81 80 00 00
	00		 mov	 eax, DWORD PTR [ecx+128]
; File D:\git\src\IBK\IBK_DRFN\ProjSrc\SrcDrfn\Chart\ExControl\Include\LoadHelper.h

; 2762 : 		if(!m_hLib)

  00009	83 78 04 00	 cmp	 DWORD PTR [eax+4], 0
  0000d	74 1a		 je	 SHORT $LN3@InsertItem

; 2763 : 			return;
; 2764 : 
; 2765 : 		pInsertItem1(m_lpPointer, nItem, lpszItem, nTab);

  0000f	ff 75 10	 push	 DWORD PTR _nTab$[ebp]
  00012	ff 75 0c	 push	 DWORD PTR _lpszItem$[ebp]
  00015	ff 75 08	 push	 DWORD PTR _nItem$[ebp]
  00018	ff b0 0c 01 00
	00		 push	 DWORD PTR [eax+268]
  0001e	8b 80 2c 01 00
	00		 mov	 eax, DWORD PTR [eax+300]
  00024	ff d0		 call	 eax
  00026	83 c4 10	 add	 esp, 16			; 00000010H
$LN3@InsertItem:
; File D:\git\src\IBK\IBK_DRFN\ProjSrc\SrcDrfn\Chart\ExControl\ExTabCtrl.cpp

; 50   : }

  00029	5d		 pop	 ebp
  0002a	c2 0c 00	 ret	 12			; 0000000cH
?InsertItem@CExTabCtrl@@QAEXHPADI@Z ENDP		; CExTabCtrl::InsertItem
_TEXT	ENDS
; Function compile flags: /Ogtp
; File D:\git\src\IBK\IBK_DRFN\ProjSrc\SrcDrfn\Chart\ExControl\ExTabCtrl.cpp
; File C:\Program Files (x86)\Microsoft Visual Studio\2019\Community\VC\Tools\MSVC\14.29.30133\atlmfc\include\afxcmn.inl
; File D:\git\src\IBK\IBK_DRFN\ProjSrc\SrcDrfn\Chart\ExControl\ExTabCtrl.cpp
;	COMDAT ??0CExTabCtrl@@QAE@H@Z
_TEXT	SEGMENT
$T2 = -20						; size = 4
_this$ = -16						; size = 4
__$EHRec$ = -12						; size = 12
_bUseDefSkin$ = 8					; size = 4
??0CExTabCtrl@@QAE@H@Z PROC				; CExTabCtrl::CExTabCtrl, COMDAT
; _this$ = ecx

; 19   : {

  00000	55		 push	 ebp
  00001	8b ec		 mov	 ebp, esp
  00003	6a ff		 push	 -1
  00005	68 00 00 00 00	 push	 __ehhandler$??0CExTabCtrl@@QAE@H@Z
  0000a	64 a1 00 00 00
	00		 mov	 eax, DWORD PTR fs:0
  00010	50		 push	 eax
  00011	83 ec 08	 sub	 esp, 8
  00014	56		 push	 esi
  00015	a1 00 00 00 00	 mov	 eax, DWORD PTR ___security_cookie
  0001a	33 c5		 xor	 eax, ebp
  0001c	50		 push	 eax
  0001d	8d 45 f4	 lea	 eax, DWORD PTR __$EHRec$[ebp]
  00020	64 a3 00 00 00
	00		 mov	 DWORD PTR fs:0, eax
  00026	8b f1		 mov	 esi, ecx
  00028	89 75 f0	 mov	 DWORD PTR _this$[ebp], esi
; File C:\Program Files (x86)\Microsoft Visual Studio\2019\Community\VC\Tools\MSVC\14.29.30133\atlmfc\include\afxcmn.inl

; 558  : 	{ }

  0002b	e8 00 00 00 00	 call	 ??0CWnd@@QAE@XZ		; CWnd::CWnd
; File D:\git\src\IBK\IBK_DRFN\ProjSrc\SrcDrfn\Chart\ExControl\ExTabCtrl.cpp

; 20   : 	m_pLoader = new CLoaderTabCtrl(this, bUseDefSkin);

  00030	68 70 01 00 00	 push	 368			; 00000170H
  00035	c7 45 fc 00 00
	00 00		 mov	 DWORD PTR __$EHRec$[ebp+8], 0
  0003c	c7 06 00 00 00
	00		 mov	 DWORD PTR [esi], OFFSET ??_7CExTabCtrl@@6B@
  00042	e8 00 00 00 00	 call	 ??2@YAPAXI@Z		; operator new
  00047	83 c4 04	 add	 esp, 4
  0004a	89 45 ec	 mov	 DWORD PTR $T2[ebp], eax
  0004d	c6 45 fc 01	 mov	 BYTE PTR __$EHRec$[ebp+8], 1
  00051	85 c0		 test	 eax, eax
  00053	74 25		 je	 SHORT $LN3@CExTabCtrl
  00055	ff 75 08	 push	 DWORD PTR _bUseDefSkin$[ebp]
  00058	8b c8		 mov	 ecx, eax
  0005a	56		 push	 esi
  0005b	e8 00 00 00 00	 call	 ??0CLoaderTabCtrl@@QAE@PAXH@Z ; CLoaderTabCtrl::CLoaderTabCtrl
  00060	89 86 80 00 00
	00		 mov	 DWORD PTR [esi+128], eax

; 21   : }

  00066	8b c6		 mov	 eax, esi
  00068	8b 4d f4	 mov	 ecx, DWORD PTR __$EHRec$[ebp]
  0006b	64 89 0d 00 00
	00 00		 mov	 DWORD PTR fs:0, ecx
  00072	59		 pop	 ecx
  00073	5e		 pop	 esi
  00074	8b e5		 mov	 esp, ebp
  00076	5d		 pop	 ebp
  00077	c2 04 00	 ret	 4
$LN3@CExTabCtrl:

; 20   : 	m_pLoader = new CLoaderTabCtrl(this, bUseDefSkin);

  0007a	c7 86 80 00 00
	00 00 00 00 00	 mov	 DWORD PTR [esi+128], 0

; 21   : }

  00084	8b c6		 mov	 eax, esi
  00086	8b 4d f4	 mov	 ecx, DWORD PTR __$EHRec$[ebp]
  00089	64 89 0d 00 00
	00 00		 mov	 DWORD PTR fs:0, ecx
  00090	59		 pop	 ecx
  00091	5e		 pop	 esi
  00092	8b e5		 mov	 esp, ebp
  00094	5d		 pop	 ebp
  00095	c2 04 00	 ret	 4
_TEXT	ENDS
;	COMDAT text$x
text$x	SEGMENT
__unwindfunclet$??0CExTabCtrl@@QAE@H@Z$0:
  00000	8b 4d f0	 mov	 ecx, DWORD PTR _this$[ebp]
  00003	e9 00 00 00 00	 jmp	 ??1CTabCtrl@@UAE@XZ	; CTabCtrl::~CTabCtrl
__unwindfunclet$??0CExTabCtrl@@QAE@H@Z$1:
  00008	68 70 01 00 00	 push	 368			; 00000170H
  0000d	8b 45 ec	 mov	 eax, DWORD PTR $T2[ebp]
  00010	50		 push	 eax
  00011	e8 00 00 00 00	 call	 ??3@YAXPAXI@Z		; operator delete
  00016	83 c4 08	 add	 esp, 8
  00019	c3		 ret	 0
  0001a	cc		 int	 3
  0001b	cc		 int	 3
  0001c	cc		 int	 3
  0001d	cc		 int	 3
  0001e	cc		 int	 3
__ehhandler$??0CExTabCtrl@@QAE@H@Z:
  0001f	90		 npad	 1
  00020	90		 npad	 1
  00021	8b 54 24 08	 mov	 edx, DWORD PTR [esp+8]
  00025	8d 42 0c	 lea	 eax, DWORD PTR [edx+12]
  00028	8b 4a f0	 mov	 ecx, DWORD PTR [edx-16]
  0002b	33 c8		 xor	 ecx, eax
  0002d	e8 00 00 00 00	 call	 @__security_check_cookie@4
  00032	b8 00 00 00 00	 mov	 eax, OFFSET __ehfuncinfo$??0CExTabCtrl@@QAE@H@Z
  00037	e9 00 00 00 00	 jmp	 ___CxxFrameHandler3
text$x	ENDS
??0CExTabCtrl@@QAE@H@Z ENDP				; CExTabCtrl::CExTabCtrl
; Function compile flags: /Ogtp
; File C:\Program Files (x86)\Microsoft Visual Studio\2019\Community\VC\Tools\MSVC\14.29.30133\atlmfc\include\afx.inl
;	COMDAT ??_GCTabCtrl@@UAEPAXI@Z
_TEXT	SEGMENT
___flags$ = 8						; size = 4
??_GCTabCtrl@@UAEPAXI@Z PROC				; CTabCtrl::`scalar deleting destructor', COMDAT
; _this$ = ecx
  00000	55		 push	 ebp
  00001	8b ec		 mov	 ebp, esp
  00003	56		 push	 esi
  00004	8b f1		 mov	 esi, ecx
  00006	e8 00 00 00 00	 call	 ??1CTabCtrl@@UAE@XZ	; CTabCtrl::~CTabCtrl
  0000b	8b 45 08	 mov	 eax, DWORD PTR ___flags$[ebp]
  0000e	a8 01		 test	 al, 1
  00010	74 22		 je	 SHORT $LN9@scalar
  00012	a8 04		 test	 al, 4
  00014	75 10		 jne	 SHORT $LN3@scalar

; 112  : 	{ ::operator delete(p); }

  00016	56		 push	 esi
  00017	e8 00 00 00 00	 call	 ??3@YAXPAX@Z		; operator delete
  0001c	83 c4 04	 add	 esp, 4
  0001f	8b c6		 mov	 eax, esi
  00021	5e		 pop	 esi
  00022	5d		 pop	 ebp
  00023	c2 04 00	 ret	 4
$LN3@scalar:
  00026	68 80 00 00 00	 push	 128			; 00000080H
  0002b	56		 push	 esi
  0002c	e8 00 00 00 00	 call	 ?__global_delete@@YAXPAXI@Z ; __global_delete
  00031	83 c4 08	 add	 esp, 8
$LN9@scalar:
  00034	8b c6		 mov	 eax, esi
  00036	5e		 pop	 esi
  00037	5d		 pop	 ebp
  00038	c2 04 00	 ret	 4
??_GCTabCtrl@@UAEPAXI@Z ENDP				; CTabCtrl::`scalar deleting destructor'
_TEXT	ENDS
; Function compile flags: /Ogtp
; File C:\Program Files (x86)\Microsoft Visual Studio\2019\Community\VC\Tools\MSVC\14.29.30133\atlmfc\include\afxwin2.inl
;	COMDAT ?EndModalState@CWnd@@UAEXXZ
_TEXT	SEGMENT
?EndModalState@CWnd@@UAEXXZ PROC			; CWnd::EndModalState, COMDAT
; _this$ = ecx

; 567  : 	{ ::EnableWindow(m_hWnd, TRUE); }

  00000	6a 01		 push	 1
  00002	ff 71 20	 push	 DWORD PTR [ecx+32]
  00005	ff 15 00 00 00
	00		 call	 DWORD PTR __imp__EnableWindow@8
  0000b	c3		 ret	 0
?EndModalState@CWnd@@UAEXXZ ENDP			; CWnd::EndModalState
_TEXT	ENDS
; Function compile flags: /Ogtp
; File C:\Program Files (x86)\Microsoft Visual Studio\2019\Community\VC\Tools\MSVC\14.29.30133\atlmfc\include\afxwin2.inl
;	COMDAT ?BeginModalState@CWnd@@UAEXXZ
_TEXT	SEGMENT
?BeginModalState@CWnd@@UAEXXZ PROC			; CWnd::BeginModalState, COMDAT
; _this$ = ecx

; 565  : 	{ ::EnableWindow(m_hWnd, FALSE); }

  00000	6a 00		 push	 0
  00002	ff 71 20	 push	 DWORD PTR [ecx+32]
  00005	ff 15 00 00 00
	00		 call	 DWORD PTR __imp__EnableWindow@8
  0000b	c3		 ret	 0
?BeginModalState@CWnd@@UAEXXZ ENDP			; CWnd::BeginModalState
_TEXT	ENDS
; Function compile flags: /Ogtp
; File C:\Program Files (x86)\Microsoft Visual Studio\2019\Community\VC\Tools\MSVC\14.29.30133\atlmfc\include\afxwin2.inl
;	COMDAT ?DoDataExchange@CWnd@@MAEXPAVCDataExchange@@@Z
_TEXT	SEGMENT
___formal$ = 8						; size = 4
?DoDataExchange@CWnd@@MAEXPAVCDataExchange@@@Z PROC	; CWnd::DoDataExchange, COMDAT
; _this$ = ecx

; 561  : 	{ } // default does nothing

  00000	c2 04 00	 ret	 4
?DoDataExchange@CWnd@@MAEXPAVCDataExchange@@@Z ENDP	; CWnd::DoDataExchange
_TEXT	ENDS
; Function compile flags: /Ogtp
; File C:\Program Files (x86)\Microsoft Visual Studio\2019\Community\VC\Tools\MSVC\14.29.30133\atlmfc\include\afx.inl
;	COMDAT ?Dump@CObject@@UBEXAAVCDumpContext@@@Z
_TEXT	SEGMENT
___formal$ = 8						; size = 4
?Dump@CObject@@UBEXAAVCDumpContext@@@Z PROC		; CObject::Dump, COMDAT
; _this$ = ecx

; 122  : 	{ /* no dumping in release builds */ }

  00000	c2 04 00	 ret	 4
?Dump@CObject@@UBEXAAVCDumpContext@@@Z ENDP		; CObject::Dump
_TEXT	ENDS
; Function compile flags: /Ogtp
; File C:\Program Files (x86)\Microsoft Visual Studio\2019\Community\VC\Tools\MSVC\14.29.30133\atlmfc\include\afx.inl
;	COMDAT ?AssertValid@CObject@@UBEXXZ
_TEXT	SEGMENT
?AssertValid@CObject@@UBEXXZ PROC			; CObject::AssertValid, COMDAT
; _this$ = ecx

; 120  : 	{ /* no asserts in release builds */ }

  00000	c2 00 00	 ret	 0
?AssertValid@CObject@@UBEXXZ ENDP			; CObject::AssertValid
_TEXT	ENDS
; Function compile flags: /Ogtp
; File C:\Program Files (x86)\Microsoft Visual Studio\2019\Community\VC\Tools\MSVC\14.29.30133\atlmfc\include\afx.inl
;	COMDAT ?Serialize@CObject@@UAEXAAVCArchive@@@Z
_TEXT	SEGMENT
___formal$ = 8						; size = 4
?Serialize@CObject@@UAEXAAVCArchive@@@Z PROC		; CObject::Serialize, COMDAT
; _this$ = ecx

; 106  : 	{ /* CObject does not serialize anything by default */ }

  00000	c2 04 00	 ret	 4
?Serialize@CObject@@UAEXAAVCArchive@@@Z ENDP		; CObject::Serialize
_TEXT	ENDS
; Function compile flags: /Ogtp
; File C:\Program Files (x86)\Windows Kits\10\Include\10.0.22000.0\ucrt\stdio.h
;	COMDAT _sprintf
_TEXT	SEGMENT
__Buffer$ = 8						; size = 4
__Format$ = 12						; size = 4
_sprintf PROC						; COMDAT

; 1771 :     {

  00000	55		 push	 ebp
  00001	8b ec		 mov	 ebp, esp

; 1392 :         int const _Result = __stdio_common_vsprintf(

  00003	8d 45 10	 lea	 eax, DWORD PTR __Format$[ebp+4]
  00006	50		 push	 eax
  00007	6a 00		 push	 0
  00009	ff 75 0c	 push	 DWORD PTR __Format$[ebp]
  0000c	6a ff		 push	 -1
  0000e	ff 75 08	 push	 DWORD PTR __Buffer$[ebp]
  00011	e8 00 00 00 00	 call	 ___local_stdio_printf_options
  00016	8b 08		 mov	 ecx, DWORD PTR [eax]
  00018	ff 70 04	 push	 DWORD PTR [eax+4]
  0001b	83 c9 01	 or	 ecx, 1
  0001e	51		 push	 ecx
  0001f	ff 15 00 00 00
	00		 call	 DWORD PTR __imp____stdio_common_vsprintf

; 1393 :             _CRT_INTERNAL_LOCAL_PRINTF_OPTIONS | _CRT_INTERNAL_PRINTF_LEGACY_VSPRINTF_NULL_TERMINATION,
; 1394 :             _Buffer, _BufferCount, _Format, _Locale, _ArgList);
; 1395 : 
; 1396 :         return _Result < 0 ? -1 : _Result;

  00025	83 c9 ff	 or	 ecx, -1
  00028	83 c4 1c	 add	 esp, 28			; 0000001cH
  0002b	85 c0		 test	 eax, eax
  0002d	0f 48 c1	 cmovs	 eax, ecx

; 1772 :         int _Result;
; 1773 :         va_list _ArgList;
; 1774 :         __crt_va_start(_ArgList, _Format);
; 1775 : 
; 1776 :         _Result = _vsprintf_l(_Buffer, _Format, NULL, _ArgList);
; 1777 : 
; 1778 :         __crt_va_end(_ArgList);
; 1779 :         return _Result;
; 1780 :     }

  00030	5d		 pop	 ebp
  00031	c3		 ret	 0
_sprintf ENDP
_TEXT	ENDS
; Function compile flags: /Ogtp
; File C:\Program Files (x86)\Windows Kits\10\Include\10.0.22000.0\ucrt\corecrt_stdio_config.h
;	COMDAT ___local_stdio_printf_options
_TEXT	SEGMENT
___local_stdio_printf_options PROC			; COMDAT

; 91   :         static unsigned __int64 _OptionsStorage;
; 92   :         return &_OptionsStorage;

  00000	b8 00 00 00 00	 mov	 eax, OFFSET ?_OptionsStorage@?1??__local_stdio_printf_options@@9@4_KA ; `__local_stdio_printf_options'::`2'::_OptionsStorage

; 93   :     }

  00005	c3		 ret	 0
___local_stdio_printf_options ENDP
_TEXT	ENDS
; Function compile flags: /Ogtp
; File D:\git\src\IBK\IBK_DRFN\ProjSrc\SrcDrfn\Chart\ExControl\ExTabCtrl.cpp
;	COMDAT ?__empty_global_delete@@YAXPAXI@Z
_TEXT	SEGMENT
___formal$ = 8						; size = 4
___formal$ = 12						; size = 4
?__empty_global_delete@@YAXPAXI@Z PROC			; __empty_global_delete, COMDAT

  00000	c2 00 00	 ret	 0
?__empty_global_delete@@YAXPAXI@Z ENDP			; __empty_global_delete
_TEXT	ENDS
; Function compile flags: /Ogtp
; File D:\git\src\IBK\IBK_DRFN\ProjSrc\SrcDrfn\Chart\ExControl\ExTabCtrl.cpp
;	COMDAT ?__empty_global_delete@@YAXPAX@Z
_TEXT	SEGMENT
___formal$ = 8						; size = 4
?__empty_global_delete@@YAXPAX@Z PROC			; __empty_global_delete, COMDAT

  00000	c2 00 00	 ret	 0
?__empty_global_delete@@YAXPAX@Z ENDP			; __empty_global_delete
_TEXT	ENDS
END
