; Listing generated by Microsoft (R) Optimizing Compiler Version 19.29.30145.0 

	TITLE	D:\git\src\IBK\IBK_DRFN\#DRfn-CS\_Obj\ExControl\ExToolTipCtrl.obj
	.686P
	.XMM
	include listing.inc
	.model	flat

INCLUDELIB MSVCRT
INCLUDELIB OLDNAMES

PUBLIC	?__empty_global_delete@@YAXPAX@Z		; __empty_global_delete
PUBLIC	?__empty_global_delete@@YAXPAXI@Z		; __empty_global_delete
PUBLIC	___local_stdio_printf_options
PUBLIC	_sprintf
PUBLIC	??0CExToolTipCtrl@@QAE@XZ			; CExToolTipCtrl::CExToolTipCtrl
PUBLIC	??1CExToolTipCtrl@@UAE@XZ			; CExToolTipCtrl::~CExToolTipCtrl
PUBLIC	?AddTool@CExToolTipCtrl@@QAEHPAVCWnd@@PBDPBUtagRECT@@I@Z ; CExToolTipCtrl::AddTool
PUBLIC	?AddTool@CExToolTipCtrl@@QAEHPAVCWnd@@IPBUtagRECT@@I@Z ; CExToolTipCtrl::AddTool
PUBLIC	?Activate@CExToolTipCtrl@@QAEXH@Z		; CExToolTipCtrl::Activate
PUBLIC	?UpdateTipText@CExToolTipCtrl@@QAEXPBDPAVCWnd@@I@Z ; CExToolTipCtrl::UpdateTipText
PUBLIC	?UpdateTipText@CExToolTipCtrl@@QAEXIPAVCWnd@@I@Z ; CExToolTipCtrl::UpdateTipText
PUBLIC	?RelayEvent@CExToolTipCtrl@@QAEXPAUtagMSG@@@Z	; CExToolTipCtrl::RelayEvent
PUBLIC	?GetSafeHwnd@CExToolTipCtrl@@QAEPAUHWND__@@XZ	; CExToolTipCtrl::GetSafeHwnd
PUBLIC	?Update@CExToolTipCtrl@@QAEXXZ			; CExToolTipCtrl::Update
PUBLIC	?DelTool@CExToolTipCtrl@@QAEXPAVCWnd@@I@Z	; CExToolTipCtrl::DelTool
PUBLIC	?FillInToolInfo@CExToolTipCtrl@@QAEXAAUtagTOOLINFOA@@PAVCWnd@@I@Z ; CExToolTipCtrl::FillInToolInfo
PUBLIC	?GetDelayTime@CExToolTipCtrl@@QAEHK@Z		; CExToolTipCtrl::GetDelayTime
PUBLIC	?GetMargin@CExToolTipCtrl@@QAEXPAUtagRECT@@@Z	; CExToolTipCtrl::GetMargin
PUBLIC	?GetMaxTipWidth@CExToolTipCtrl@@QAEHXZ		; CExToolTipCtrl::GetMaxTipWidth
PUBLIC	?GetText@CExToolTipCtrl@@QAEXAAV?$CStringT@DV?$StrTraitMFC_DLL@DV?$ChTraitsCRT@D@ATL@@@@@ATL@@PAVCWnd@@I@Z ; CExToolTipCtrl::GetText
PUBLIC	?GetTipBkColor@CExToolTipCtrl@@QAEKXZ		; CExToolTipCtrl::GetTipBkColor
PUBLIC	?GetTipTextColor@CExToolTipCtrl@@QAEKXZ		; CExToolTipCtrl::GetTipTextColor
PUBLIC	?GetToolCount@CExToolTipCtrl@@QAEHXZ		; CExToolTipCtrl::GetToolCount
PUBLIC	?GetToolInfo@CExToolTipCtrl@@QAEHAAVCToolInfo@@PAVCWnd@@I@Z ; CExToolTipCtrl::GetToolInfo
PUBLIC	?HitTest@CExToolTipCtrl@@QAEHPAVCWnd@@VCPoint@@PAUtagTOOLINFOA@@@Z ; CExToolTipCtrl::HitTest
PUBLIC	?Pop@CExToolTipCtrl@@QAEXXZ			; CExToolTipCtrl::Pop
PUBLIC	?SetDelayTime@CExToolTipCtrl@@QAEXI@Z		; CExToolTipCtrl::SetDelayTime
PUBLIC	?SetMargin@CExToolTipCtrl@@QAEXPAUtagRECT@@@Z	; CExToolTipCtrl::SetMargin
PUBLIC	?SetMaxTipWidth@CExToolTipCtrl@@QAEHH@Z		; CExToolTipCtrl::SetMaxTipWidth
PUBLIC	?SetTipBkColor@CExToolTipCtrl@@QAEXK@Z		; CExToolTipCtrl::SetTipBkColor
PUBLIC	?SetTipTextColor@CExToolTipCtrl@@QAEXK@Z	; CExToolTipCtrl::SetTipTextColor
PUBLIC	?SetToolInfo@CExToolTipCtrl@@QAEXPAUtagTOOLINFOA@@@Z ; CExToolTipCtrl::SetToolInfo
PUBLIC	?SetToolRect@CExToolTipCtrl@@QAEXPAVCWnd@@IPBUtagRECT@@@Z ; CExToolTipCtrl::SetToolRect
PUBLIC	??_GCExToolTipCtrl@@UAEPAXI@Z			; CExToolTipCtrl::`scalar deleting destructor'
PUBLIC	??1CExLoadLib@@QAE@XZ				; CExLoadLib::~CExLoadLib
PUBLIC	?LoadProcAddress@CExLoadLib@@UAEHXZ		; CExLoadLib::LoadProcAddress
PUBLIC	??0CLoaderToolTipCtrl@@QAE@PAXPBD@Z		; CLoaderToolTipCtrl::CLoaderToolTipCtrl
PUBLIC	?LoadProcAddress@CLoaderToolTipCtrl@@UAEHXZ	; CLoaderToolTipCtrl::LoadProcAddress
PUBLIC	?_OptionsStorage@?1??__local_stdio_printf_options@@9@4_KA ; `__local_stdio_printf_options'::`2'::_OptionsStorage
PUBLIC	??_7CExToolTipCtrl@@6B@				; CExToolTipCtrl::`vftable'
PUBLIC	??_7CExLoadLib@@6B@				; CExLoadLib::`vftable'
PUBLIC	??_C@_0CD@INEDAMEN@DLL?$FL?$CFs?$FN?$MA?$LL?5Load?G?R?5?$LM?v?5?$LO?x?$LN?$MA?$LE?O?$LE?Y?4?5?$FL@ ; `string'
PUBLIC	??_C@_04OHDBDCPJ@?2Dev@				; `string'
PUBLIC	??_C@_05BMGBEOOC@?$CFs?2?$CFs@			; `string'
PUBLIC	??_C@_0BB@JBDOCKKP@Ex_ActionControl@		; `string'
PUBLIC	??_C@_0P@IGDEMOLK@Ex_GetSafeHwnd@		; `string'
PUBLIC	??_C@_0L@MBKNLMDE@Ex_GetText@			; `string'
PUBLIC	??_7CLoaderToolTipCtrl@@6B@			; CLoaderToolTipCtrl::`vftable'
PUBLIC	??_C@_0BC@GLLAPPDM@ExToolTipCtrl?4dll@		; `string'
PUBLIC	??_C@_0BD@MHOODLBP@Ex_InitToolTipCtrl@		; `string'
PUBLIC	??_C@_0BD@GFEKDGK@Ex_ExitToolTipCtrl@		; `string'
PUBLIC	??_C@_0P@NIAMOCOM@Ex_SetToolRect@		; `string'
PUBLIC	??_C@_0P@LHMAMKAP@Ex_SetToolInfo@		; `string'
PUBLIC	??_C@_0BD@JJJNJLHP@Ex_SetTipTextColor@		; `string'
PUBLIC	??_C@_0BB@MMIFGJIJ@Ex_SetTipBkColor@		; `string'
PUBLIC	??_C@_0BC@PGBIFLNE@Ex_SetMaxTipWidth@		; `string'
PUBLIC	??_C@_0N@IKALCBDC@Ex_SetMargin@			; `string'
PUBLIC	??_C@_0BA@GBFGEMFO@Ex_SetDelayTime@		; `string'
PUBLIC	??_C@_06IOCLFHKA@Ex_Pop@			; `string'
PUBLIC	??_C@_0L@NDHICLAN@Ex_HitTest@			; `string'
PUBLIC	??_C@_0P@LINOBMIM@Ex_GetToolInfo@		; `string'
PUBLIC	??_C@_0BA@HAHADFHF@Ex_GetToolCount@		; `string'
PUBLIC	??_C@_0BD@KLILOJGG@Ex_GetTipTextColor@		; `string'
PUBLIC	??_C@_0BB@LDJLNKPO@Ex_GetTipBkColor@		; `string'
PUBLIC	??_C@_0BC@DIAGKBPI@Ex_GetMaxTipWidth@		; `string'
PUBLIC	??_C@_0N@KEEOAAKA@Ex_GetMargin@			; `string'
PUBLIC	??_C@_0BA@BFOIIABC@Ex_GetDelayTime@		; `string'
PUBLIC	??_C@_0BC@BHKMKKFH@Ex_FillInToolInfo@		; `string'
PUBLIC	??_C@_0L@FEGIPGOJ@Ex_DelTool@			; `string'
PUBLIC	??_C@_09HNAOAOJO@Ex_Update@			; `string'
PUBLIC	??_C@_0O@KBFJEKNF@Ex_RelayEvent@		; `string'
PUBLIC	??_C@_0P@JNLKAHPM@Ex_UpdateTipID@		; `string'
PUBLIC	??_C@_0BB@LHCCLINK@Ex_UpdateTipText@		; `string'
PUBLIC	??_C@_0M@DODPFHNC@Ex_Activate@			; `string'
PUBLIC	??_C@_0N@BCILLDBI@Ex_AddToolID@			; `string'
PUBLIC	??_C@_0P@EBDMHGJG@Ex_AddToolText@		; `string'
PUBLIC	??_R4CLoaderToolTipCtrl@@6B@			; CLoaderToolTipCtrl::`RTTI Complete Object Locator'
PUBLIC	??_R0?AVCLoaderToolTipCtrl@@@8			; CLoaderToolTipCtrl `RTTI Type Descriptor'
PUBLIC	??_R3CLoaderToolTipCtrl@@8			; CLoaderToolTipCtrl::`RTTI Class Hierarchy Descriptor'
PUBLIC	??_R2CLoaderToolTipCtrl@@8			; CLoaderToolTipCtrl::`RTTI Base Class Array'
PUBLIC	??_R1A@?0A@EA@CLoaderToolTipCtrl@@8		; CLoaderToolTipCtrl::`RTTI Base Class Descriptor at (0,-1,0,64)'
PUBLIC	??_R1A@?0A@EA@CExLoadLib@@8			; CExLoadLib::`RTTI Base Class Descriptor at (0,-1,0,64)'
PUBLIC	??_R0?AVCExLoadLib@@@8				; CExLoadLib `RTTI Type Descriptor'
PUBLIC	??_R3CExLoadLib@@8				; CExLoadLib::`RTTI Class Hierarchy Descriptor'
PUBLIC	??_R2CExLoadLib@@8				; CExLoadLib::`RTTI Base Class Array'
PUBLIC	??_R4CExToolTipCtrl@@6B@			; CExToolTipCtrl::`RTTI Complete Object Locator'
PUBLIC	??_R0?AVCExToolTipCtrl@@@8			; CExToolTipCtrl `RTTI Type Descriptor'
PUBLIC	??_R3CExToolTipCtrl@@8				; CExToolTipCtrl::`RTTI Class Hierarchy Descriptor'
PUBLIC	??_R2CExToolTipCtrl@@8				; CExToolTipCtrl::`RTTI Base Class Array'
PUBLIC	??_R1A@?0A@EA@CExToolTipCtrl@@8			; CExToolTipCtrl::`RTTI Base Class Descriptor at (0,-1,0,64)'
PUBLIC	??_R4CExLoadLib@@6B@				; CExLoadLib::`RTTI Complete Object Locator'
EXTRN	??2@YAPAXI@Z:PROC				; operator new
EXTRN	??3@YAXPAXI@Z:PROC				; operator delete
EXTRN	___std_terminate:PROC
EXTRN	__imp__GetLastError@0:PROC
EXTRN	__imp__FreeLibrary@4:PROC
EXTRN	__imp__GetModuleFileNameA@12:PROC
EXTRN	__imp__GetProcAddress@8:PROC
EXTRN	__imp__LoadLibraryA@4:PROC
EXTRN	__imp____stdio_common_vsprintf:PROC
EXTRN	__imp_??0?$CStringT@DV?$StrTraitMFC_DLL@DV?$ChTraitsCRT@D@ATL@@@@@ATL@@QAE@XZ:PROC
EXTRN	__imp_??1?$CStringT@DV?$StrTraitMFC_DLL@DV?$ChTraitsCRT@D@ATL@@@@@ATL@@QAE@XZ:PROC
EXTRN	__imp_??4?$CStringT@DV?$StrTraitMFC_DLL@DV?$ChTraitsCRT@D@ATL@@@@@ATL@@QAEAAV01@ABV01@@Z:PROC
EXTRN	__imp_??4?$CStringT@DV?$StrTraitMFC_DLL@DV?$ChTraitsCRT@D@ATL@@@@@ATL@@QAEAAV01@PBD@Z:PROC
EXTRN	__imp_??Y?$CStringT@DV?$StrTraitMFC_DLL@DV?$ChTraitsCRT@D@ATL@@@@@ATL@@QAEAAV01@PBD@Z:PROC
EXTRN	__imp_?ReverseFind@?$CStringT@DV?$StrTraitMFC_DLL@DV?$ChTraitsCRT@D@ATL@@@@@ATL@@QBEHD@Z:PROC
EXTRN	__imp_?Left@?$CStringT@DV?$StrTraitMFC_DLL@DV?$ChTraitsCRT@D@ATL@@@@@ATL@@QBE?AV12@H@Z:PROC
EXTRN	?AfxMessageBox@@YGHPBDII@Z:PROC			; AfxMessageBox
EXTRN	??_ECExToolTipCtrl@@UAEPAXI@Z:PROC		; CExToolTipCtrl::`vector deleting destructor'
EXTRN	@__security_check_cookie@4:PROC
EXTRN	___CxxFrameHandler3:PROC
EXTRN	_memset:PROC
EXTRN	??_7type_info@@6B@:QWORD			; type_info::`vftable'
EXTRN	___security_cookie:DWORD
;	COMDAT ?_OptionsStorage@?1??__local_stdio_printf_options@@9@4_KA
_BSS	SEGMENT
?_OptionsStorage@?1??__local_stdio_printf_options@@9@4_KA DQ 01H DUP (?) ; `__local_stdio_printf_options'::`2'::_OptionsStorage
_BSS	ENDS
;	COMDAT ??_R4CExLoadLib@@6B@
rdata$r	SEGMENT
??_R4CExLoadLib@@6B@ DD 00H				; CExLoadLib::`RTTI Complete Object Locator'
	DD	00H
	DD	00H
	DD	FLAT:??_R0?AVCExLoadLib@@@8
	DD	FLAT:??_R3CExLoadLib@@8
rdata$r	ENDS
;	COMDAT ??_R1A@?0A@EA@CExToolTipCtrl@@8
rdata$r	SEGMENT
??_R1A@?0A@EA@CExToolTipCtrl@@8 DD FLAT:??_R0?AVCExToolTipCtrl@@@8 ; CExToolTipCtrl::`RTTI Base Class Descriptor at (0,-1,0,64)'
	DD	00H
	DD	00H
	DD	0ffffffffH
	DD	00H
	DD	040H
	DD	FLAT:??_R3CExToolTipCtrl@@8
rdata$r	ENDS
;	COMDAT ??_R2CExToolTipCtrl@@8
rdata$r	SEGMENT
??_R2CExToolTipCtrl@@8 DD FLAT:??_R1A@?0A@EA@CExToolTipCtrl@@8 ; CExToolTipCtrl::`RTTI Base Class Array'
rdata$r	ENDS
;	COMDAT ??_R3CExToolTipCtrl@@8
rdata$r	SEGMENT
??_R3CExToolTipCtrl@@8 DD 00H				; CExToolTipCtrl::`RTTI Class Hierarchy Descriptor'
	DD	00H
	DD	01H
	DD	FLAT:??_R2CExToolTipCtrl@@8
rdata$r	ENDS
;	COMDAT ??_R0?AVCExToolTipCtrl@@@8
data$rs	SEGMENT
??_R0?AVCExToolTipCtrl@@@8 DD FLAT:??_7type_info@@6B@	; CExToolTipCtrl `RTTI Type Descriptor'
	DD	00H
	DB	'.?AVCExToolTipCtrl@@', 00H
data$rs	ENDS
;	COMDAT ??_R4CExToolTipCtrl@@6B@
rdata$r	SEGMENT
??_R4CExToolTipCtrl@@6B@ DD 00H				; CExToolTipCtrl::`RTTI Complete Object Locator'
	DD	00H
	DD	00H
	DD	FLAT:??_R0?AVCExToolTipCtrl@@@8
	DD	FLAT:??_R3CExToolTipCtrl@@8
rdata$r	ENDS
;	COMDAT ??_R2CExLoadLib@@8
rdata$r	SEGMENT
??_R2CExLoadLib@@8 DD FLAT:??_R1A@?0A@EA@CExLoadLib@@8	; CExLoadLib::`RTTI Base Class Array'
rdata$r	ENDS
;	COMDAT ??_R3CExLoadLib@@8
rdata$r	SEGMENT
??_R3CExLoadLib@@8 DD 00H				; CExLoadLib::`RTTI Class Hierarchy Descriptor'
	DD	00H
	DD	01H
	DD	FLAT:??_R2CExLoadLib@@8
rdata$r	ENDS
;	COMDAT ??_R0?AVCExLoadLib@@@8
data$rs	SEGMENT
??_R0?AVCExLoadLib@@@8 DD FLAT:??_7type_info@@6B@	; CExLoadLib `RTTI Type Descriptor'
	DD	00H
	DB	'.?AVCExLoadLib@@', 00H
data$rs	ENDS
;	COMDAT ??_R1A@?0A@EA@CExLoadLib@@8
rdata$r	SEGMENT
??_R1A@?0A@EA@CExLoadLib@@8 DD FLAT:??_R0?AVCExLoadLib@@@8 ; CExLoadLib::`RTTI Base Class Descriptor at (0,-1,0,64)'
	DD	00H
	DD	00H
	DD	0ffffffffH
	DD	00H
	DD	040H
	DD	FLAT:??_R3CExLoadLib@@8
rdata$r	ENDS
;	COMDAT ??_R1A@?0A@EA@CLoaderToolTipCtrl@@8
rdata$r	SEGMENT
??_R1A@?0A@EA@CLoaderToolTipCtrl@@8 DD FLAT:??_R0?AVCLoaderToolTipCtrl@@@8 ; CLoaderToolTipCtrl::`RTTI Base Class Descriptor at (0,-1,0,64)'
	DD	01H
	DD	00H
	DD	0ffffffffH
	DD	00H
	DD	040H
	DD	FLAT:??_R3CLoaderToolTipCtrl@@8
rdata$r	ENDS
;	COMDAT ??_R2CLoaderToolTipCtrl@@8
rdata$r	SEGMENT
??_R2CLoaderToolTipCtrl@@8 DD FLAT:??_R1A@?0A@EA@CLoaderToolTipCtrl@@8 ; CLoaderToolTipCtrl::`RTTI Base Class Array'
	DD	FLAT:??_R1A@?0A@EA@CExLoadLib@@8
rdata$r	ENDS
;	COMDAT ??_R3CLoaderToolTipCtrl@@8
rdata$r	SEGMENT
??_R3CLoaderToolTipCtrl@@8 DD 00H			; CLoaderToolTipCtrl::`RTTI Class Hierarchy Descriptor'
	DD	00H
	DD	02H
	DD	FLAT:??_R2CLoaderToolTipCtrl@@8
rdata$r	ENDS
;	COMDAT ??_R0?AVCLoaderToolTipCtrl@@@8
data$rs	SEGMENT
??_R0?AVCLoaderToolTipCtrl@@@8 DD FLAT:??_7type_info@@6B@ ; CLoaderToolTipCtrl `RTTI Type Descriptor'
	DD	00H
	DB	'.?AVCLoaderToolTipCtrl@@', 00H
data$rs	ENDS
;	COMDAT ??_R4CLoaderToolTipCtrl@@6B@
rdata$r	SEGMENT
??_R4CLoaderToolTipCtrl@@6B@ DD 00H			; CLoaderToolTipCtrl::`RTTI Complete Object Locator'
	DD	00H
	DD	00H
	DD	FLAT:??_R0?AVCLoaderToolTipCtrl@@@8
	DD	FLAT:??_R3CLoaderToolTipCtrl@@8
rdata$r	ENDS
;	COMDAT ??_C@_0P@EBDMHGJG@Ex_AddToolText@
CONST	SEGMENT
??_C@_0P@EBDMHGJG@Ex_AddToolText@ DB 'Ex_AddToolText', 00H ; `string'
CONST	ENDS
;	COMDAT ??_C@_0N@BCILLDBI@Ex_AddToolID@
CONST	SEGMENT
??_C@_0N@BCILLDBI@Ex_AddToolID@ DB 'Ex_AddToolID', 00H	; `string'
CONST	ENDS
;	COMDAT ??_C@_0M@DODPFHNC@Ex_Activate@
CONST	SEGMENT
??_C@_0M@DODPFHNC@Ex_Activate@ DB 'Ex_Activate', 00H	; `string'
CONST	ENDS
;	COMDAT ??_C@_0BB@LHCCLINK@Ex_UpdateTipText@
CONST	SEGMENT
??_C@_0BB@LHCCLINK@Ex_UpdateTipText@ DB 'Ex_UpdateTipText', 00H ; `string'
CONST	ENDS
;	COMDAT ??_C@_0P@JNLKAHPM@Ex_UpdateTipID@
CONST	SEGMENT
??_C@_0P@JNLKAHPM@Ex_UpdateTipID@ DB 'Ex_UpdateTipID', 00H ; `string'
CONST	ENDS
;	COMDAT ??_C@_0O@KBFJEKNF@Ex_RelayEvent@
CONST	SEGMENT
??_C@_0O@KBFJEKNF@Ex_RelayEvent@ DB 'Ex_RelayEvent', 00H ; `string'
CONST	ENDS
;	COMDAT ??_C@_09HNAOAOJO@Ex_Update@
CONST	SEGMENT
??_C@_09HNAOAOJO@Ex_Update@ DB 'Ex_Update', 00H		; `string'
CONST	ENDS
;	COMDAT ??_C@_0L@FEGIPGOJ@Ex_DelTool@
CONST	SEGMENT
??_C@_0L@FEGIPGOJ@Ex_DelTool@ DB 'Ex_DelTool', 00H	; `string'
CONST	ENDS
;	COMDAT ??_C@_0BC@BHKMKKFH@Ex_FillInToolInfo@
CONST	SEGMENT
??_C@_0BC@BHKMKKFH@Ex_FillInToolInfo@ DB 'Ex_FillInToolInfo', 00H ; `string'
CONST	ENDS
;	COMDAT ??_C@_0BA@BFOIIABC@Ex_GetDelayTime@
CONST	SEGMENT
??_C@_0BA@BFOIIABC@Ex_GetDelayTime@ DB 'Ex_GetDelayTime', 00H ; `string'
CONST	ENDS
;	COMDAT ??_C@_0N@KEEOAAKA@Ex_GetMargin@
CONST	SEGMENT
??_C@_0N@KEEOAAKA@Ex_GetMargin@ DB 'Ex_GetMargin', 00H	; `string'
CONST	ENDS
;	COMDAT ??_C@_0BC@DIAGKBPI@Ex_GetMaxTipWidth@
CONST	SEGMENT
??_C@_0BC@DIAGKBPI@Ex_GetMaxTipWidth@ DB 'Ex_GetMaxTipWidth', 00H ; `string'
CONST	ENDS
;	COMDAT ??_C@_0BB@LDJLNKPO@Ex_GetTipBkColor@
CONST	SEGMENT
??_C@_0BB@LDJLNKPO@Ex_GetTipBkColor@ DB 'Ex_GetTipBkColor', 00H ; `string'
CONST	ENDS
;	COMDAT ??_C@_0BD@KLILOJGG@Ex_GetTipTextColor@
CONST	SEGMENT
??_C@_0BD@KLILOJGG@Ex_GetTipTextColor@ DB 'Ex_GetTipTextColor', 00H ; `string'
CONST	ENDS
;	COMDAT ??_C@_0BA@HAHADFHF@Ex_GetToolCount@
CONST	SEGMENT
??_C@_0BA@HAHADFHF@Ex_GetToolCount@ DB 'Ex_GetToolCount', 00H ; `string'
CONST	ENDS
;	COMDAT ??_C@_0P@LINOBMIM@Ex_GetToolInfo@
CONST	SEGMENT
??_C@_0P@LINOBMIM@Ex_GetToolInfo@ DB 'Ex_GetToolInfo', 00H ; `string'
CONST	ENDS
;	COMDAT ??_C@_0L@NDHICLAN@Ex_HitTest@
CONST	SEGMENT
??_C@_0L@NDHICLAN@Ex_HitTest@ DB 'Ex_HitTest', 00H	; `string'
CONST	ENDS
;	COMDAT ??_C@_06IOCLFHKA@Ex_Pop@
CONST	SEGMENT
??_C@_06IOCLFHKA@Ex_Pop@ DB 'Ex_Pop', 00H		; `string'
CONST	ENDS
;	COMDAT ??_C@_0BA@GBFGEMFO@Ex_SetDelayTime@
CONST	SEGMENT
??_C@_0BA@GBFGEMFO@Ex_SetDelayTime@ DB 'Ex_SetDelayTime', 00H ; `string'
CONST	ENDS
;	COMDAT ??_C@_0N@IKALCBDC@Ex_SetMargin@
CONST	SEGMENT
??_C@_0N@IKALCBDC@Ex_SetMargin@ DB 'Ex_SetMargin', 00H	; `string'
CONST	ENDS
;	COMDAT ??_C@_0BC@PGBIFLNE@Ex_SetMaxTipWidth@
CONST	SEGMENT
??_C@_0BC@PGBIFLNE@Ex_SetMaxTipWidth@ DB 'Ex_SetMaxTipWidth', 00H ; `string'
CONST	ENDS
;	COMDAT ??_C@_0BB@MMIFGJIJ@Ex_SetTipBkColor@
CONST	SEGMENT
??_C@_0BB@MMIFGJIJ@Ex_SetTipBkColor@ DB 'Ex_SetTipBkColor', 00H ; `string'
CONST	ENDS
;	COMDAT ??_C@_0BD@JJJNJLHP@Ex_SetTipTextColor@
CONST	SEGMENT
??_C@_0BD@JJJNJLHP@Ex_SetTipTextColor@ DB 'Ex_SetTipTextColor', 00H ; `string'
CONST	ENDS
;	COMDAT ??_C@_0P@LHMAMKAP@Ex_SetToolInfo@
CONST	SEGMENT
??_C@_0P@LHMAMKAP@Ex_SetToolInfo@ DB 'Ex_SetToolInfo', 00H ; `string'
CONST	ENDS
;	COMDAT ??_C@_0P@NIAMOCOM@Ex_SetToolRect@
CONST	SEGMENT
??_C@_0P@NIAMOCOM@Ex_SetToolRect@ DB 'Ex_SetToolRect', 00H ; `string'
CONST	ENDS
;	COMDAT ??_C@_0BD@GFEKDGK@Ex_ExitToolTipCtrl@
CONST	SEGMENT
??_C@_0BD@GFEKDGK@Ex_ExitToolTipCtrl@ DB 'Ex_ExitToolTipCtrl', 00H ; `string'
CONST	ENDS
;	COMDAT ??_C@_0BD@MHOODLBP@Ex_InitToolTipCtrl@
CONST	SEGMENT
??_C@_0BD@MHOODLBP@Ex_InitToolTipCtrl@ DB 'Ex_InitToolTipCtrl', 00H ; `string'
CONST	ENDS
;	COMDAT ??_C@_0BC@GLLAPPDM@ExToolTipCtrl?4dll@
CONST	SEGMENT
??_C@_0BC@GLLAPPDM@ExToolTipCtrl?4dll@ DB 'ExToolTipCtrl.dll', 00H ; `string'
CONST	ENDS
;	COMDAT ??_7CLoaderToolTipCtrl@@6B@
CONST	SEGMENT
??_7CLoaderToolTipCtrl@@6B@ DD FLAT:??_R4CLoaderToolTipCtrl@@6B@ ; CLoaderToolTipCtrl::`vftable'
	DD	FLAT:?LoadProcAddress@CLoaderToolTipCtrl@@UAEHXZ
CONST	ENDS
;	COMDAT ??_C@_0L@MBKNLMDE@Ex_GetText@
CONST	SEGMENT
??_C@_0L@MBKNLMDE@Ex_GetText@ DB 'Ex_GetText', 00H	; `string'
CONST	ENDS
;	COMDAT ??_C@_0P@IGDEMOLK@Ex_GetSafeHwnd@
CONST	SEGMENT
??_C@_0P@IGDEMOLK@Ex_GetSafeHwnd@ DB 'Ex_GetSafeHwnd', 00H ; `string'
CONST	ENDS
;	COMDAT ??_C@_0BB@JBDOCKKP@Ex_ActionControl@
CONST	SEGMENT
??_C@_0BB@JBDOCKKP@Ex_ActionControl@ DB 'Ex_ActionControl', 00H ; `string'
CONST	ENDS
;	COMDAT ??_C@_05BMGBEOOC@?$CFs?2?$CFs@
CONST	SEGMENT
??_C@_05BMGBEOOC@?$CFs?2?$CFs@ DB '%s\%s', 00H		; `string'
CONST	ENDS
;	COMDAT ??_C@_04OHDBDCPJ@?2Dev@
CONST	SEGMENT
??_C@_04OHDBDCPJ@?2Dev@ DB '\Dev', 00H			; `string'
CONST	ENDS
;	COMDAT ??_C@_0CD@INEDAMEN@DLL?$FL?$CFs?$FN?$MA?$LL?5Load?G?R?5?$LM?v?5?$LO?x?$LN?$MA?$LE?O?$LE?Y?4?5?$FL@
CONST	SEGMENT
??_C@_0CD@INEDAMEN@DLL?$FL?$CFs?$FN?$MA?$LL?5Load?G?R?5?$LM?v?5?$LO?x?$LN?$MA?$LE?O?$LE?Y?4?5?$FL@ DB 'D'
	DB	'LL[%s]', 0c0H, 0bbH, ' Load', 0c7H, 0d2H, ' ', 0bcH, 0f6H, ' '
	DB	0beH, 0f8H, 0bdH, 0c0H, 0b4H, 0cfH, 0b4H, 0d9H, '. [%d]', 00H ; `string'
CONST	ENDS
;	COMDAT ??_7CExLoadLib@@6B@
CONST	SEGMENT
??_7CExLoadLib@@6B@ DD FLAT:??_R4CExLoadLib@@6B@	; CExLoadLib::`vftable'
	DD	FLAT:?LoadProcAddress@CExLoadLib@@UAEHXZ
CONST	ENDS
;	COMDAT ??_7CExToolTipCtrl@@6B@
CONST	SEGMENT
??_7CExToolTipCtrl@@6B@ DD FLAT:??_R4CExToolTipCtrl@@6B@ ; CExToolTipCtrl::`vftable'
	DD	FLAT:??_ECExToolTipCtrl@@UAEPAXI@Z
CONST	ENDS
;	COMDAT xdata$x
xdata$x	SEGMENT
__unwindtable$??_GCLoaderToolTipCtrl@@QAEPAXI@Z DD 0ffffffffH
	DD	FLAT:___std_terminate
__ehfuncinfo$??_GCLoaderToolTipCtrl@@QAEPAXI@Z DD 019930522H
	DD	01H
	DD	FLAT:__unwindtable$??_GCLoaderToolTipCtrl@@QAEPAXI@Z
	DD	2 DUP(00H)
	DD	2 DUP(00H)
	DD	00H
	DD	05H
xdata$x	ENDS
;	COMDAT xdata$x
xdata$x	SEGMENT
__ehfuncinfo$??1CLoaderToolTipCtrl@@QAE@XZ DD 019930522H
	DD	00H
	DD	00H
	DD	2 DUP(00H)
	DD	2 DUP(00H)
	DD	00H
	DD	05H
xdata$x	ENDS
;	COMDAT xdata$x
xdata$x	SEGMENT
__ehfuncinfo$??0CLoaderToolTipCtrl@@QAE@PAXPBD@Z DD 019930522H
	DD	05H
	DD	FLAT:__unwindtable$??0CLoaderToolTipCtrl@@QAE@PAXPBD@Z
	DD	2 DUP(00H)
	DD	2 DUP(00H)
	DD	00H
	DD	01H
__unwindtable$??0CLoaderToolTipCtrl@@QAE@PAXPBD@Z DD 0ffffffffH
	DD	FLAT:__unwindfunclet$??0CLoaderToolTipCtrl@@QAE@PAXPBD@Z$0
	DD	00H
	DD	FLAT:__unwindfunclet$??0CLoaderToolTipCtrl@@QAE@PAXPBD@Z$1
	DD	01H
	DD	FLAT:__unwindfunclet$??0CLoaderToolTipCtrl@@QAE@PAXPBD@Z$2
	DD	02H
	DD	FLAT:__unwindfunclet$??0CLoaderToolTipCtrl@@QAE@PAXPBD@Z$3
	DD	02H
	DD	FLAT:__unwindfunclet$??0CLoaderToolTipCtrl@@QAE@PAXPBD@Z$4
xdata$x	ENDS
;	COMDAT xdata$x
xdata$x	SEGMENT
__unwindtable$?GetDir_DrfnBin@@YAXAAV?$CStringT@DV?$StrTraitMFC_DLL@DV?$ChTraitsCRT@D@ATL@@@@@ATL@@@Z DD 0ffffffffH
	DD	FLAT:__unwindfunclet$?GetDir_DrfnBin@@YAXAAV?$CStringT@DV?$StrTraitMFC_DLL@DV?$ChTraitsCRT@D@ATL@@@@@ATL@@@Z$0
	DD	00H
	DD	FLAT:__unwindfunclet$?GetDir_DrfnBin@@YAXAAV?$CStringT@DV?$StrTraitMFC_DLL@DV?$ChTraitsCRT@D@ATL@@@@@ATL@@@Z$1
	DD	00H
	DD	FLAT:__unwindfunclet$?GetDir_DrfnBin@@YAXAAV?$CStringT@DV?$StrTraitMFC_DLL@DV?$ChTraitsCRT@D@ATL@@@@@ATL@@@Z$2
__ehfuncinfo$?GetDir_DrfnBin@@YAXAAV?$CStringT@DV?$StrTraitMFC_DLL@DV?$ChTraitsCRT@D@ATL@@@@@ATL@@@Z DD 019930522H
	DD	03H
	DD	FLAT:__unwindtable$?GetDir_DrfnBin@@YAXAAV?$CStringT@DV?$StrTraitMFC_DLL@DV?$ChTraitsCRT@D@ATL@@@@@ATL@@@Z
	DD	2 DUP(00H)
	DD	2 DUP(00H)
	DD	00H
	DD	01H
xdata$x	ENDS
;	COMDAT xdata$x
xdata$x	SEGMENT
__unwindtable$?GetDir_DrfnRoot@@YAXAAV?$CStringT@DV?$StrTraitMFC_DLL@DV?$ChTraitsCRT@D@ATL@@@@@ATL@@@Z DD 0ffffffffH
	DD	FLAT:__unwindfunclet$?GetDir_DrfnRoot@@YAXAAV?$CStringT@DV?$StrTraitMFC_DLL@DV?$ChTraitsCRT@D@ATL@@@@@ATL@@@Z$0
	DD	00H
	DD	FLAT:__unwindfunclet$?GetDir_DrfnRoot@@YAXAAV?$CStringT@DV?$StrTraitMFC_DLL@DV?$ChTraitsCRT@D@ATL@@@@@ATL@@@Z$1
	DD	00H
	DD	FLAT:__unwindfunclet$?GetDir_DrfnRoot@@YAXAAV?$CStringT@DV?$StrTraitMFC_DLL@DV?$ChTraitsCRT@D@ATL@@@@@ATL@@@Z$2
__ehfuncinfo$?GetDir_DrfnRoot@@YAXAAV?$CStringT@DV?$StrTraitMFC_DLL@DV?$ChTraitsCRT@D@ATL@@@@@ATL@@@Z DD 019930522H
	DD	03H
	DD	FLAT:__unwindtable$?GetDir_DrfnRoot@@YAXAAV?$CStringT@DV?$StrTraitMFC_DLL@DV?$ChTraitsCRT@D@ATL@@@@@ATL@@@Z
	DD	2 DUP(00H)
	DD	2 DUP(00H)
	DD	00H
	DD	01H
xdata$x	ENDS
;	COMDAT xdata$x
xdata$x	SEGMENT
__unwindtable$??_GCExToolTipCtrl@@UAEPAXI@Z DD 0ffffffffH
	DD	FLAT:___std_terminate
__ehfuncinfo$??_GCExToolTipCtrl@@UAEPAXI@Z DD 019930522H
	DD	01H
	DD	FLAT:__unwindtable$??_GCExToolTipCtrl@@UAEPAXI@Z
	DD	2 DUP(00H)
	DD	2 DUP(00H)
	DD	00H
	DD	05H
xdata$x	ENDS
;	COMDAT xdata$x
xdata$x	SEGMENT
__unwindtable$??1CExToolTipCtrl@@UAE@XZ DD 0ffffffffH
	DD	FLAT:___std_terminate
__ehfuncinfo$??1CExToolTipCtrl@@UAE@XZ DD 019930522H
	DD	01H
	DD	FLAT:__unwindtable$??1CExToolTipCtrl@@UAE@XZ
	DD	2 DUP(00H)
	DD	2 DUP(00H)
	DD	00H
	DD	05H
xdata$x	ENDS
;	COMDAT xdata$x
xdata$x	SEGMENT
__unwindtable$??0CExToolTipCtrl@@QAE@XZ DD 0ffffffffH
	DD	FLAT:__unwindfunclet$??0CExToolTipCtrl@@QAE@XZ$0
__ehfuncinfo$??0CExToolTipCtrl@@QAE@XZ DD 019930522H
	DD	01H
	DD	FLAT:__unwindtable$??0CExToolTipCtrl@@QAE@XZ
	DD	2 DUP(00H)
	DD	2 DUP(00H)
	DD	00H
	DD	01H
xdata$x	ENDS
; Function compile flags: /Ogtp
; File D:\git\src\IBK\IBK_DRFN\ProjSrc\SrcDrfn\Chart\ExControl\Include\LoadHelper.h
;	COMDAT ?LoadProcAddress@CLoaderToolTipCtrl@@UAEHXZ
_TEXT	SEGMENT
?LoadProcAddress@CLoaderToolTipCtrl@@UAEHXZ PROC	; CLoaderToolTipCtrl::LoadProcAddress, COMDAT
; _this$ = ecx

; 3211 : 	{

  00000	57		 push	 edi
  00001	8b f9		 mov	 edi, ecx

; 3212 : 		if(!m_hLib)

  00003	8b 47 04	 mov	 eax, DWORD PTR [edi+4]
  00006	85 c0		 test	 eax, eax
  00008	75 02		 jne	 SHORT $LN2@LoadProcAd
  0000a	5f		 pop	 edi

; 3249 : 	}

  0000b	c3		 ret	 0
$LN2@LoadProcAd:
  0000c	56		 push	 esi

; 3213 : 		{
; 3214 : 			TRACE0("CLoaderToolTipCtrl GetProcAddress에서 Load에러 발생");
; 3215 : 			return FALSE;
; 3216 : 		}
; 3217 : 
; 3218 : 		pActionControl	= (FpActionControl)::GetProcAddress(m_hLib, "Ex_ActionControl");

  0000d	8b 35 00 00 00
	00		 mov	 esi, DWORD PTR __imp__GetProcAddress@8
  00013	68 00 00 00 00	 push	 OFFSET ??_C@_0BB@JBDOCKKP@Ex_ActionControl@
  00018	50		 push	 eax
  00019	ff d6		 call	 esi

; 3219 : 		pInitToolTipCtrl	= (FpInitToolTipCtrl)::GetProcAddress(m_hLib, "Ex_InitToolTipCtrl");

  0001b	68 00 00 00 00	 push	 OFFSET ??_C@_0BD@MHOODLBP@Ex_InitToolTipCtrl@
  00020	ff 77 04	 push	 DWORD PTR [edi+4]
  00023	89 87 10 01 00
	00		 mov	 DWORD PTR [edi+272], eax
  00029	ff d6		 call	 esi

; 3220 : 		pExitToolTipCtrl	= (FpExitToolTipCtrl)::GetProcAddress(m_hLib, "Ex_ExitToolTipCtrl");

  0002b	68 00 00 00 00	 push	 OFFSET ??_C@_0BD@GFEKDGK@Ex_ExitToolTipCtrl@
  00030	ff 77 04	 push	 DWORD PTR [edi+4]
  00033	89 87 14 01 00
	00		 mov	 DWORD PTR [edi+276], eax
  00039	ff d6		 call	 esi

; 3221 : 		pSetToolRect		= (FpSetToolRect)::GetProcAddress(m_hLib, "Ex_SetToolRect");

  0003b	68 00 00 00 00	 push	 OFFSET ??_C@_0P@NIAMOCOM@Ex_SetToolRect@
  00040	ff 77 04	 push	 DWORD PTR [edi+4]
  00043	89 87 18 01 00
	00		 mov	 DWORD PTR [edi+280], eax
  00049	ff d6		 call	 esi

; 3222 : 		pSetToolInfo		= (FpSetToolInfo)::GetProcAddress(m_hLib, "Ex_SetToolInfo");

  0004b	68 00 00 00 00	 push	 OFFSET ??_C@_0P@LHMAMKAP@Ex_SetToolInfo@
  00050	ff 77 04	 push	 DWORD PTR [edi+4]
  00053	89 87 1c 01 00
	00		 mov	 DWORD PTR [edi+284], eax
  00059	ff d6		 call	 esi

; 3223 : 		pSetTipTextColor		= (FpSetTipTextColor)::GetProcAddress(m_hLib, "Ex_SetTipTextColor");

  0005b	68 00 00 00 00	 push	 OFFSET ??_C@_0BD@JJJNJLHP@Ex_SetTipTextColor@
  00060	ff 77 04	 push	 DWORD PTR [edi+4]
  00063	89 87 20 01 00
	00		 mov	 DWORD PTR [edi+288], eax
  00069	ff d6		 call	 esi

; 3224 : 		pSetTipBkColor		= (FpSetTipBkColor)::GetProcAddress(m_hLib, "Ex_SetTipBkColor");

  0006b	68 00 00 00 00	 push	 OFFSET ??_C@_0BB@MMIFGJIJ@Ex_SetTipBkColor@
  00070	ff 77 04	 push	 DWORD PTR [edi+4]
  00073	89 87 24 01 00
	00		 mov	 DWORD PTR [edi+292], eax
  00079	ff d6		 call	 esi

; 3225 : 		pSetMaxTipWidth		= (FpSetMaxTipWidth)::GetProcAddress(m_hLib, "Ex_SetMaxTipWidth");

  0007b	68 00 00 00 00	 push	 OFFSET ??_C@_0BC@PGBIFLNE@Ex_SetMaxTipWidth@
  00080	ff 77 04	 push	 DWORD PTR [edi+4]
  00083	89 87 28 01 00
	00		 mov	 DWORD PTR [edi+296], eax
  00089	ff d6		 call	 esi

; 3226 : 		pSetMargin		= (FpSetMargin)::GetProcAddress(m_hLib, "Ex_SetMargin");

  0008b	68 00 00 00 00	 push	 OFFSET ??_C@_0N@IKALCBDC@Ex_SetMargin@
  00090	ff 77 04	 push	 DWORD PTR [edi+4]
  00093	89 87 2c 01 00
	00		 mov	 DWORD PTR [edi+300], eax
  00099	ff d6		 call	 esi

; 3227 : 		pSetDelayTime		= (FpSetDelayTime)::GetProcAddress(m_hLib, "Ex_SetDelayTime");

  0009b	68 00 00 00 00	 push	 OFFSET ??_C@_0BA@GBFGEMFO@Ex_SetDelayTime@
  000a0	ff 77 04	 push	 DWORD PTR [edi+4]
  000a3	89 87 30 01 00
	00		 mov	 DWORD PTR [edi+304], eax
  000a9	ff d6		 call	 esi

; 3228 : 		pPop		= (FpPop)::GetProcAddress(m_hLib, "Ex_Pop");

  000ab	68 00 00 00 00	 push	 OFFSET ??_C@_06IOCLFHKA@Ex_Pop@
  000b0	ff 77 04	 push	 DWORD PTR [edi+4]
  000b3	89 87 34 01 00
	00		 mov	 DWORD PTR [edi+308], eax
  000b9	ff d6		 call	 esi

; 3229 : 		pHitTest		= (FpHitTest)::GetProcAddress(m_hLib, "Ex_HitTest");

  000bb	68 00 00 00 00	 push	 OFFSET ??_C@_0L@NDHICLAN@Ex_HitTest@
  000c0	ff 77 04	 push	 DWORD PTR [edi+4]
  000c3	89 87 38 01 00
	00		 mov	 DWORD PTR [edi+312], eax
  000c9	ff d6		 call	 esi

; 3230 : 		pGetToolInfo		= (FpGetToolInfo)::GetProcAddress(m_hLib, "Ex_GetToolInfo");

  000cb	68 00 00 00 00	 push	 OFFSET ??_C@_0P@LINOBMIM@Ex_GetToolInfo@
  000d0	ff 77 04	 push	 DWORD PTR [edi+4]
  000d3	89 87 3c 01 00
	00		 mov	 DWORD PTR [edi+316], eax
  000d9	ff d6		 call	 esi

; 3231 : 		pGetToolCount		= (FpGetToolCount)::GetProcAddress(m_hLib, "Ex_GetToolCount");

  000db	68 00 00 00 00	 push	 OFFSET ??_C@_0BA@HAHADFHF@Ex_GetToolCount@
  000e0	ff 77 04	 push	 DWORD PTR [edi+4]
  000e3	89 87 40 01 00
	00		 mov	 DWORD PTR [edi+320], eax
  000e9	ff d6		 call	 esi

; 3232 : 		pGetTipTextColor		= (FpGetTipTextColor)::GetProcAddress(m_hLib, "Ex_GetTipTextColor");

  000eb	68 00 00 00 00	 push	 OFFSET ??_C@_0BD@KLILOJGG@Ex_GetTipTextColor@
  000f0	ff 77 04	 push	 DWORD PTR [edi+4]
  000f3	89 87 44 01 00
	00		 mov	 DWORD PTR [edi+324], eax
  000f9	ff d6		 call	 esi

; 3233 : 		pGetTipBkColor		= (FpGetTipBkColor)::GetProcAddress(m_hLib, "Ex_GetTipBkColor");

  000fb	68 00 00 00 00	 push	 OFFSET ??_C@_0BB@LDJLNKPO@Ex_GetTipBkColor@
  00100	ff 77 04	 push	 DWORD PTR [edi+4]
  00103	89 87 48 01 00
	00		 mov	 DWORD PTR [edi+328], eax
  00109	ff d6		 call	 esi

; 3234 : 		pGetText		= (FpGetText)::GetProcAddress(m_hLib, "Ex_GetText");

  0010b	68 00 00 00 00	 push	 OFFSET ??_C@_0L@MBKNLMDE@Ex_GetText@
  00110	ff 77 04	 push	 DWORD PTR [edi+4]
  00113	89 87 4c 01 00
	00		 mov	 DWORD PTR [edi+332], eax
  00119	ff d6		 call	 esi

; 3235 : 		pGetMaxTipWidth		= (FpGetMaxTipWidth)::GetProcAddress(m_hLib, "Ex_GetMaxTipWidth");

  0011b	68 00 00 00 00	 push	 OFFSET ??_C@_0BC@DIAGKBPI@Ex_GetMaxTipWidth@
  00120	ff 77 04	 push	 DWORD PTR [edi+4]
  00123	89 87 50 01 00
	00		 mov	 DWORD PTR [edi+336], eax
  00129	ff d6		 call	 esi

; 3236 : 		pGetMargin		= (FpGetMargin)::GetProcAddress(m_hLib, "Ex_GetMargin");

  0012b	68 00 00 00 00	 push	 OFFSET ??_C@_0N@KEEOAAKA@Ex_GetMargin@
  00130	ff 77 04	 push	 DWORD PTR [edi+4]
  00133	89 87 54 01 00
	00		 mov	 DWORD PTR [edi+340], eax
  00139	ff d6		 call	 esi

; 3237 : 		pGetDelayTime		= (FpGetDelayTime)::GetProcAddress(m_hLib, "Ex_GetDelayTime");

  0013b	68 00 00 00 00	 push	 OFFSET ??_C@_0BA@BFOIIABC@Ex_GetDelayTime@
  00140	ff 77 04	 push	 DWORD PTR [edi+4]
  00143	89 87 58 01 00
	00		 mov	 DWORD PTR [edi+344], eax
  00149	ff d6		 call	 esi

; 3238 : 		pFillInToolInfo		= (FpFillInToolInfo)::GetProcAddress(m_hLib, "Ex_FillInToolInfo");

  0014b	68 00 00 00 00	 push	 OFFSET ??_C@_0BC@BHKMKKFH@Ex_FillInToolInfo@
  00150	ff 77 04	 push	 DWORD PTR [edi+4]
  00153	89 87 5c 01 00
	00		 mov	 DWORD PTR [edi+348], eax
  00159	ff d6		 call	 esi

; 3239 : 		pDelTool		= (FpDelTool)::GetProcAddress(m_hLib, "Ex_DelTool");

  0015b	68 00 00 00 00	 push	 OFFSET ??_C@_0L@FEGIPGOJ@Ex_DelTool@
  00160	ff 77 04	 push	 DWORD PTR [edi+4]
  00163	89 87 60 01 00
	00		 mov	 DWORD PTR [edi+352], eax
  00169	ff d6		 call	 esi

; 3240 : 		pUpdate		= (FpUpdate)::GetProcAddress(m_hLib, "Ex_Update");

  0016b	68 00 00 00 00	 push	 OFFSET ??_C@_09HNAOAOJO@Ex_Update@
  00170	ff 77 04	 push	 DWORD PTR [edi+4]
  00173	89 87 64 01 00
	00		 mov	 DWORD PTR [edi+356], eax
  00179	ff d6		 call	 esi

; 3241 : 		pGetSafeHwnd		= (FpGetSafeHwnd)::GetProcAddress(m_hLib, "Ex_GetSafeHwnd");

  0017b	68 00 00 00 00	 push	 OFFSET ??_C@_0P@IGDEMOLK@Ex_GetSafeHwnd@
  00180	ff 77 04	 push	 DWORD PTR [edi+4]
  00183	89 87 68 01 00
	00		 mov	 DWORD PTR [edi+360], eax
  00189	ff d6		 call	 esi

; 3242 : 		pRelayEvent		= (FpRelayEvent)::GetProcAddress(m_hLib, "Ex_RelayEvent");

  0018b	68 00 00 00 00	 push	 OFFSET ??_C@_0O@KBFJEKNF@Ex_RelayEvent@
  00190	ff 77 04	 push	 DWORD PTR [edi+4]
  00193	89 87 6c 01 00
	00		 mov	 DWORD PTR [edi+364], eax
  00199	ff d6		 call	 esi

; 3243 : 		pUpdateTipID		= (FpUpdateTipID)::GetProcAddress(m_hLib, "Ex_UpdateTipID");

  0019b	68 00 00 00 00	 push	 OFFSET ??_C@_0P@JNLKAHPM@Ex_UpdateTipID@
  001a0	ff 77 04	 push	 DWORD PTR [edi+4]
  001a3	89 87 70 01 00
	00		 mov	 DWORD PTR [edi+368], eax
  001a9	ff d6		 call	 esi

; 3244 : 		pUpdateTipText		= (FpUpdateTipText)::GetProcAddress(m_hLib, "Ex_UpdateTipText");

  001ab	68 00 00 00 00	 push	 OFFSET ??_C@_0BB@LHCCLINK@Ex_UpdateTipText@
  001b0	ff 77 04	 push	 DWORD PTR [edi+4]
  001b3	89 87 74 01 00
	00		 mov	 DWORD PTR [edi+372], eax
  001b9	ff d6		 call	 esi

; 3245 : 		pActivate		= (FpActivate)::GetProcAddress(m_hLib, "Ex_Activate");

  001bb	68 00 00 00 00	 push	 OFFSET ??_C@_0M@DODPFHNC@Ex_Activate@
  001c0	ff 77 04	 push	 DWORD PTR [edi+4]
  001c3	89 87 78 01 00
	00		 mov	 DWORD PTR [edi+376], eax
  001c9	ff d6		 call	 esi

; 3246 : 		pAddToolID		= (FpAddToolID)::GetProcAddress(m_hLib, "Ex_AddToolID");

  001cb	68 00 00 00 00	 push	 OFFSET ??_C@_0N@BCILLDBI@Ex_AddToolID@
  001d0	ff 77 04	 push	 DWORD PTR [edi+4]
  001d3	89 87 7c 01 00
	00		 mov	 DWORD PTR [edi+380], eax
  001d9	ff d6		 call	 esi

; 3247 : 		pAddToolText		= (FpAddToolText)::GetProcAddress(m_hLib, "Ex_AddToolText");

  001db	68 00 00 00 00	 push	 OFFSET ??_C@_0P@EBDMHGJG@Ex_AddToolText@
  001e0	ff 77 04	 push	 DWORD PTR [edi+4]
  001e3	89 87 80 01 00
	00		 mov	 DWORD PTR [edi+384], eax
  001e9	ff d6		 call	 esi
  001eb	89 87 84 01 00
	00		 mov	 DWORD PTR [edi+388], eax

; 3248 : 		return TRUE;

  001f1	b8 01 00 00 00	 mov	 eax, 1
  001f6	5e		 pop	 esi
  001f7	5f		 pop	 edi

; 3249 : 	}

  001f8	c3		 ret	 0
?LoadProcAddress@CLoaderToolTipCtrl@@UAEHXZ ENDP	; CLoaderToolTipCtrl::LoadProcAddress
_TEXT	ENDS
; Function compile flags: /Ogtp
; File D:\git\src\IBK\IBK_DRFN\ProjSrc\SrcDrfn\Chart\ExControl\Include\LoadHelper.h
; File D:\git\src\IBK\IBK_DRFN\ProjSrc\SrcDrfn\Chart\ExControl\Include\BaseLoadHelper.h
; File D:\git\src\IBK\IBK_DRFN\ProjSrc\SrcDrfn\Chart\ExControl\Include\LoadHelper.h
; File D:\git\src\IBK\IBK_DRFN\ProjSrc\SrcDrfn\ForSite\FS_Env.h
; File D:\git\src\IBK\IBK_DRFN\ProjSrc\SrcDrfn\Chart\ExControl\Include\LoadHelper.h
; File D:\git\src\IBK\IBK_DRFN\ProjSrc\SrcDrfn\Chart\ExControl\Include\BaseLoadHelper.h
; File D:\git\src\IBK\IBK_DRFN\ProjSrc\SrcDrfn\Chart\ExControl\Include\LoadHelper.h
; File D:\git\src\IBK\IBK_DRFN\ProjSrc\SrcDrfn\Chart\ExControl\Include\BaseLoadHelper.h
; File D:\git\src\IBK\IBK_DRFN\ProjSrc\SrcDrfn\Chart\ExControl\Include\LoadHelper.h
;	COMDAT ??0CLoaderToolTipCtrl@@QAE@PAXPBD@Z
_TEXT	SEGMENT
_this$GSCopy$ = -296					; size = 4
_lpPointer$GSCopy$1$ = -292				; size = 4
_szDir$ = -288						; size = 4
_err$1$ = -284						; size = 4
$T2 = -284						; size = 4
$T3 = -284						; size = 4
_this$ = -284						; size = 4
__strRoot_$4 = -280					; size = 4
_szMsg$5 = -276						; size = 260
_szBuf$6 = -272						; size = 255
__$ArrayPad$7 = -16					; size = 4
__$EHRec$ = -12						; size = 12
_lpPointer$ = 8						; size = 4
_lpszRootPath$ = 12					; size = 4
??0CLoaderToolTipCtrl@@QAE@PAXPBD@Z PROC		; CLoaderToolTipCtrl::CLoaderToolTipCtrl, COMDAT
; _this$ = ecx

; 3147 : 	CLoaderToolTipCtrl(LPVOID lpPointer, LPCSTR lpszRootPath = NULL) 

  00000	55		 push	 ebp
  00001	8b ec		 mov	 ebp, esp
  00003	6a ff		 push	 -1
  00005	68 00 00 00 00	 push	 __ehhandler$??0CLoaderToolTipCtrl@@QAE@PAXPBD@Z
  0000a	64 a1 00 00 00
	00		 mov	 eax, DWORD PTR fs:0
  00010	50		 push	 eax
  00011	81 ec 1c 01 00
	00		 sub	 esp, 284		; 0000011cH
  00017	a1 00 00 00 00	 mov	 eax, DWORD PTR ___security_cookie
  0001c	33 c5		 xor	 eax, ebp
  0001e	89 45 f0	 mov	 DWORD PTR __$ArrayPad$7[ebp], eax
  00021	53		 push	 ebx
  00022	56		 push	 esi
  00023	57		 push	 edi
  00024	50		 push	 eax
  00025	8d 45 f4	 lea	 eax, DWORD PTR __$EHRec$[ebp]
  00028	64 a3 00 00 00
	00		 mov	 DWORD PTR fs:0, eax
  0002e	8b f1		 mov	 esi, ecx
  00030	89 b5 e4 fe ff
	ff		 mov	 DWORD PTR _this$[ebp], esi
  00036	8b 45 08	 mov	 eax, DWORD PTR _lpPointer$[ebp]
  00039	89 b5 d8 fe ff
	ff		 mov	 DWORD PTR _this$GSCopy$[ebp], esi
  0003f	89 85 dc fe ff
	ff		 mov	 DWORD PTR _lpPointer$GSCopy$1$[ebp], eax
; File D:\git\src\IBK\IBK_DRFN\ProjSrc\SrcDrfn\Chart\ExControl\Include\BaseLoadHelper.h

; 9    : 		m_hLib = NULL;

  00045	c7 46 04 00 00
	00 00		 mov	 DWORD PTR [esi+4], 0
; File D:\git\src\IBK\IBK_DRFN\ProjSrc\SrcDrfn\Chart\ExControl\Include\LoadHelper.h

; 3163 : 		CString szDir;

  0004c	8d 8d e0 fe ff
	ff		 lea	 ecx, DWORD PTR _szDir$[ebp]
  00052	c7 45 fc 00 00
	00 00		 mov	 DWORD PTR __$EHRec$[ebp+8], 0
  00059	c7 06 00 00 00
	00		 mov	 DWORD PTR [esi], OFFSET ??_7CLoaderToolTipCtrl@@6B@
  0005f	ff 15 00 00 00
	00		 call	 DWORD PTR __imp_??0?$CStringT@DV?$StrTraitMFC_DLL@DV?$ChTraitsCRT@D@ATL@@@@@ATL@@QAE@XZ
; File D:\git\src\IBK\IBK_DRFN\ProjSrc\SrcDrfn\ForSite\FS_Env.h

; 22   : 	CString	_strRoot_;

  00065	8d 8d e8 fe ff
	ff		 lea	 ecx, DWORD PTR __strRoot_$4[ebp]
  0006b	ff 15 00 00 00
	00		 call	 DWORD PTR __imp_??0?$CStringT@DV?$StrTraitMFC_DLL@DV?$ChTraitsCRT@D@ATL@@@@@ATL@@QAE@XZ

; 15   : 	::GetModuleFileName(NULL, szBuf, 255);

  00071	68 ff 00 00 00	 push	 255			; 000000ffH
  00076	8d 85 f0 fe ff
	ff		 lea	 eax, DWORD PTR _szBuf$6[ebp]

; 22   : 	CString	_strRoot_;

  0007c	c6 45 fc 02	 mov	 BYTE PTR __$EHRec$[ebp+8], 2

; 15   : 	::GetModuleFileName(NULL, szBuf, 255);

  00080	50		 push	 eax
  00081	6a 00		 push	 0
  00083	ff 15 00 00 00
	00		 call	 DWORD PTR __imp__GetModuleFileNameA@12

; 16   : 	rString = szBuf;

  00089	8d 85 f0 fe ff
	ff		 lea	 eax, DWORD PTR _szBuf$6[ebp]
  0008f	50		 push	 eax
  00090	8d 8d e8 fe ff
	ff		 lea	 ecx, DWORD PTR __strRoot_$4[ebp]
  00096	ff 15 00 00 00
	00		 call	 DWORD PTR __imp_??4?$CStringT@DV?$StrTraitMFC_DLL@DV?$ChTraitsCRT@D@ATL@@@@@ATL@@QAEAAV01@PBD@Z

; 25   : 	int _loc_ = _strRoot_.ReverseFind('\\');

  0009c	6a 5c		 push	 92			; 0000005cH
  0009e	8d 8d e8 fe ff
	ff		 lea	 ecx, DWORD PTR __strRoot_$4[ebp]
  000a4	ff 15 00 00 00
	00		 call	 DWORD PTR __imp_?ReverseFind@?$CStringT@DV?$StrTraitMFC_DLL@DV?$ChTraitsCRT@D@ATL@@@@@ATL@@QBEHD@Z

; 26   : 	if( _loc_ > 0)

  000aa	85 c0		 test	 eax, eax
  000ac	7e 35		 jle	 SHORT $LN10@CLoaderToo

; 27   : 		_strRoot_ = _strRoot_.Left(_loc_);

  000ae	50		 push	 eax
  000af	8d 85 e4 fe ff
	ff		 lea	 eax, DWORD PTR $T3[ebp]
  000b5	50		 push	 eax
  000b6	8d 8d e8 fe ff
	ff		 lea	 ecx, DWORD PTR __strRoot_$4[ebp]
  000bc	ff 15 00 00 00
	00		 call	 DWORD PTR __imp_?Left@?$CStringT@DV?$StrTraitMFC_DLL@DV?$ChTraitsCRT@D@ATL@@@@@ATL@@QBE?AV12@H@Z
  000c2	50		 push	 eax
  000c3	8d 8d e8 fe ff
	ff		 lea	 ecx, DWORD PTR __strRoot_$4[ebp]
  000c9	c6 45 fc 03	 mov	 BYTE PTR __$EHRec$[ebp+8], 3
  000cd	ff 15 00 00 00
	00		 call	 DWORD PTR __imp_??4?$CStringT@DV?$StrTraitMFC_DLL@DV?$ChTraitsCRT@D@ATL@@@@@ATL@@QAEAAV01@ABV01@@Z
  000d3	8d 8d e4 fe ff
	ff		 lea	 ecx, DWORD PTR $T3[ebp]
  000d9	c6 45 fc 02	 mov	 BYTE PTR __$EHRec$[ebp+8], 2
  000dd	ff 15 00 00 00
	00		 call	 DWORD PTR __imp_??1?$CStringT@DV?$StrTraitMFC_DLL@DV?$ChTraitsCRT@D@ATL@@@@@ATL@@QAE@XZ
$LN10@CLoaderToo:

; 28   : 	_loc_ = _strRoot_.ReverseFind('\\');

  000e3	6a 5c		 push	 92			; 0000005cH
  000e5	8d 8d e8 fe ff
	ff		 lea	 ecx, DWORD PTR __strRoot_$4[ebp]
  000eb	ff 15 00 00 00
	00		 call	 DWORD PTR __imp_?ReverseFind@?$CStringT@DV?$StrTraitMFC_DLL@DV?$ChTraitsCRT@D@ATL@@@@@ATL@@QBEHD@Z

; 29   : 	if( _loc_ > 0)

  000f1	85 c0		 test	 eax, eax
  000f3	7e 35		 jle	 SHORT $LN11@CLoaderToo

; 30   : 		_strRoot_ = _strRoot_.Left(_loc_);

  000f5	50		 push	 eax
  000f6	8d 85 e4 fe ff
	ff		 lea	 eax, DWORD PTR $T2[ebp]
  000fc	50		 push	 eax
  000fd	8d 8d e8 fe ff
	ff		 lea	 ecx, DWORD PTR __strRoot_$4[ebp]
  00103	ff 15 00 00 00
	00		 call	 DWORD PTR __imp_?Left@?$CStringT@DV?$StrTraitMFC_DLL@DV?$ChTraitsCRT@D@ATL@@@@@ATL@@QBE?AV12@H@Z
  00109	50		 push	 eax
  0010a	8d 8d e8 fe ff
	ff		 lea	 ecx, DWORD PTR __strRoot_$4[ebp]
  00110	c6 45 fc 04	 mov	 BYTE PTR __$EHRec$[ebp+8], 4
  00114	ff 15 00 00 00
	00		 call	 DWORD PTR __imp_??4?$CStringT@DV?$StrTraitMFC_DLL@DV?$ChTraitsCRT@D@ATL@@@@@ATL@@QAEAAV01@ABV01@@Z
  0011a	8d 8d e4 fe ff
	ff		 lea	 ecx, DWORD PTR $T2[ebp]
  00120	c6 45 fc 02	 mov	 BYTE PTR __$EHRec$[ebp+8], 2
  00124	ff 15 00 00 00
	00		 call	 DWORD PTR __imp_??1?$CStringT@DV?$StrTraitMFC_DLL@DV?$ChTraitsCRT@D@ATL@@@@@ATL@@QAE@XZ
$LN11@CLoaderToo:

; 31   : 	rString = _strRoot_;

  0012a	8d 85 e8 fe ff
	ff		 lea	 eax, DWORD PTR __strRoot_$4[ebp]
  00130	50		 push	 eax
  00131	8d 8d e0 fe ff
	ff		 lea	 ecx, DWORD PTR _szDir$[ebp]
  00137	ff 15 00 00 00
	00		 call	 DWORD PTR __imp_??4?$CStringT@DV?$StrTraitMFC_DLL@DV?$ChTraitsCRT@D@ATL@@@@@ATL@@QAEAAV01@ABV01@@Z

; 32   : }

  0013d	8d 8d e8 fe ff
	ff		 lea	 ecx, DWORD PTR __strRoot_$4[ebp]
  00143	c6 45 fc 01	 mov	 BYTE PTR __$EHRec$[ebp+8], 1
  00147	ff 15 00 00 00
	00		 call	 DWORD PTR __imp_??1?$CStringT@DV?$StrTraitMFC_DLL@DV?$ChTraitsCRT@D@ATL@@@@@ATL@@QAE@XZ

; 47   : 	rString += "\\Dev";

  0014d	68 00 00 00 00	 push	 OFFSET ??_C@_04OHDBDCPJ@?2Dev@
  00152	8d 8d e0 fe ff
	ff		 lea	 ecx, DWORD PTR _szDir$[ebp]
  00158	ff 15 00 00 00
	00		 call	 DWORD PTR __imp_??Y?$CStringT@DV?$StrTraitMFC_DLL@DV?$ChTraitsCRT@D@ATL@@@@@ATL@@QAEAAV01@PBD@Z
; File D:\git\src\IBK\IBK_DRFN\ProjSrc\SrcDrfn\Chart\ExControl\Include\LoadHelper.h

; 3165 : 		::sprintf(m_szDllName, "%s\\%s", (LPCSTR)szDir, TOOLTIPCTRL_DLL);

  0015e	68 00 00 00 00	 push	 OFFSET ??_C@_0BC@GLLAPPDM@ExToolTipCtrl?4dll@
  00163	ff b5 e0 fe ff
	ff		 push	 DWORD PTR _szDir$[ebp]
  00169	8d 7e 08	 lea	 edi, DWORD PTR [esi+8]
  0016c	68 00 00 00 00	 push	 OFFSET ??_C@_05BMGBEOOC@?$CFs?2?$CFs@
  00171	57		 push	 edi
  00172	e8 00 00 00 00	 call	 _sprintf
  00177	83 c4 10	 add	 esp, 16			; 00000010H

; 3166 : 		//<--Solomon-090829수정..
; 3167 : 
; 3168 : 		pSetToolRect = NULL;

  0017a	c7 86 1c 01 00
	00 00 00 00 00	 mov	 DWORD PTR [esi+284], 0

; 3169 : 		pSetToolInfo = NULL;

  00184	c7 86 20 01 00
	00 00 00 00 00	 mov	 DWORD PTR [esi+288], 0

; 3170 : 		pSetTipTextColor = NULL;

  0018e	c7 86 24 01 00
	00 00 00 00 00	 mov	 DWORD PTR [esi+292], 0

; 3171 : 		pSetTipBkColor = NULL;

  00198	c7 86 28 01 00
	00 00 00 00 00	 mov	 DWORD PTR [esi+296], 0
; File D:\git\src\IBK\IBK_DRFN\ProjSrc\SrcDrfn\Chart\ExControl\Include\BaseLoadHelper.h

; 26   : 		hLib = ::LoadLibrary(m_szDllName);

  001a2	57		 push	 edi
; File D:\git\src\IBK\IBK_DRFN\ProjSrc\SrcDrfn\Chart\ExControl\Include\LoadHelper.h

; 3172 : 		pSetMaxTipWidth = NULL;

  001a3	c7 86 2c 01 00
	00 00 00 00 00	 mov	 DWORD PTR [esi+300], 0

; 3173 : 		pSetMargin = NULL;

  001ad	c7 86 30 01 00
	00 00 00 00 00	 mov	 DWORD PTR [esi+304], 0

; 3174 : 		pSetDelayTime = NULL;

  001b7	c7 86 34 01 00
	00 00 00 00 00	 mov	 DWORD PTR [esi+308], 0

; 3175 : 		pPop = NULL;

  001c1	c7 86 38 01 00
	00 00 00 00 00	 mov	 DWORD PTR [esi+312], 0

; 3176 : 		pHitTest = NULL;

  001cb	c7 86 3c 01 00
	00 00 00 00 00	 mov	 DWORD PTR [esi+316], 0

; 3177 : 		pGetToolInfo = NULL;

  001d5	c7 86 40 01 00
	00 00 00 00 00	 mov	 DWORD PTR [esi+320], 0

; 3178 : 		pGetToolCount = NULL;

  001df	c7 86 44 01 00
	00 00 00 00 00	 mov	 DWORD PTR [esi+324], 0

; 3179 : 		pGetTipTextColor = NULL;

  001e9	c7 86 48 01 00
	00 00 00 00 00	 mov	 DWORD PTR [esi+328], 0

; 3180 : 		pGetTipBkColor = NULL;

  001f3	c7 86 4c 01 00
	00 00 00 00 00	 mov	 DWORD PTR [esi+332], 0

; 3181 : 		pGetText = NULL;

  001fd	c7 86 50 01 00
	00 00 00 00 00	 mov	 DWORD PTR [esi+336], 0

; 3182 : 		pGetMaxTipWidth = NULL;

  00207	c7 86 54 01 00
	00 00 00 00 00	 mov	 DWORD PTR [esi+340], 0

; 3183 : 		pGetMargin = NULL;

  00211	c7 86 58 01 00
	00 00 00 00 00	 mov	 DWORD PTR [esi+344], 0

; 3184 : 		pGetDelayTime = NULL;

  0021b	c7 86 5c 01 00
	00 00 00 00 00	 mov	 DWORD PTR [esi+348], 0

; 3185 : 		pFillInToolInfo = NULL;

  00225	c7 86 60 01 00
	00 00 00 00 00	 mov	 DWORD PTR [esi+352], 0

; 3186 : 		pDelTool = NULL;

  0022f	c7 86 64 01 00
	00 00 00 00 00	 mov	 DWORD PTR [esi+356], 0

; 3187 : 		pUpdate = NULL;

  00239	c7 86 68 01 00
	00 00 00 00 00	 mov	 DWORD PTR [esi+360], 0

; 3188 : 		pGetSafeHwnd = NULL;

  00243	c7 86 6c 01 00
	00 00 00 00 00	 mov	 DWORD PTR [esi+364], 0

; 3189 : 		pRelayEvent = NULL;

  0024d	c7 86 70 01 00
	00 00 00 00 00	 mov	 DWORD PTR [esi+368], 0

; 3190 : 		pUpdateTipID = NULL;

  00257	c7 86 74 01 00
	00 00 00 00 00	 mov	 DWORD PTR [esi+372], 0

; 3191 : 		pUpdateTipText = NULL;

  00261	c7 86 78 01 00
	00 00 00 00 00	 mov	 DWORD PTR [esi+376], 0

; 3192 : 		pActivate = NULL;

  0026b	c7 86 7c 01 00
	00 00 00 00 00	 mov	 DWORD PTR [esi+380], 0

; 3193 : 		pAddToolID = NULL;

  00275	c7 86 80 01 00
	00 00 00 00 00	 mov	 DWORD PTR [esi+384], 0

; 3194 : 		pAddToolText = NULL;

  0027f	c7 86 84 01 00
	00 00 00 00 00	 mov	 DWORD PTR [esi+388], 0

; 3195 : 		pActionControl = NULL;

  00289	c7 86 10 01 00
	00 00 00 00 00	 mov	 DWORD PTR [esi+272], 0

; 3196 : 		pExitToolTipCtrl = NULL;

  00293	c7 86 18 01 00
	00 00 00 00 00	 mov	 DWORD PTR [esi+280], 0

; 3197 : 		pInitToolTipCtrl = NULL;

  0029d	c7 86 14 01 00
	00 00 00 00 00	 mov	 DWORD PTR [esi+276], 0
; File D:\git\src\IBK\IBK_DRFN\ProjSrc\SrcDrfn\Chart\ExControl\Include\BaseLoadHelper.h

; 26   : 		hLib = ::LoadLibrary(m_szDllName);

  002a7	ff 15 00 00 00
	00		 call	 DWORD PTR __imp__LoadLibraryA@4
  002ad	8b d8		 mov	 ebx, eax

; 27   : 
; 28   : 		DWORD err = GetLastError();

  002af	ff 15 00 00 00
	00		 call	 DWORD PTR __imp__GetLastError@0
  002b5	89 85 e4 fe ff
	ff		 mov	 DWORD PTR _err$1$[ebp], eax

; 29   : 
; 30   : 		if(!hLib) 

  002bb	85 db		 test	 ebx, ebx
  002bd	75 3d		 jne	 SHORT $LN21@CLoaderToo

; 31   : 		{
; 32   : 			char szMsg[MAX_PATH] = {0, };

  002bf	68 04 01 00 00	 push	 260			; 00000104H
  002c4	8d 85 ec fe ff
	ff		 lea	 eax, DWORD PTR _szMsg$5[ebp]
  002ca	53		 push	 ebx
  002cb	50		 push	 eax
  002cc	e8 00 00 00 00	 call	 _memset

; 33   : 			::sprintf(szMsg, "DLL[%s]을 Load할 수 없습니다. [%d]", m_szDllName, err);

  002d1	ff b5 e4 fe ff
	ff		 push	 DWORD PTR _err$1$[ebp]
  002d7	8d 85 ec fe ff
	ff		 lea	 eax, DWORD PTR _szMsg$5[ebp]
  002dd	57		 push	 edi
  002de	68 00 00 00 00	 push	 OFFSET ??_C@_0CD@INEDAMEN@DLL?$FL?$CFs?$FN?$MA?$LL?5Load?G?R?5?$LM?v?5?$LO?x?$LN?$MA?$LE?O?$LE?Y?4?5?$FL@
  002e3	50		 push	 eax
  002e4	e8 00 00 00 00	 call	 _sprintf
  002e9	83 c4 1c	 add	 esp, 28			; 0000001cH

; 34   : 			AfxMessageBox(szMsg);

  002ec	8d 85 ec fe ff
	ff		 lea	 eax, DWORD PTR _szMsg$5[ebp]
  002f2	53		 push	 ebx
  002f3	53		 push	 ebx
  002f4	50		 push	 eax
  002f5	e8 00 00 00 00	 call	 ?AfxMessageBox@@YGHPBDII@Z ; AfxMessageBox

; 35   : 
; 36   : 			return NULL;

  002fa	eb 32		 jmp	 SHORT $LN26@CLoaderToo
$LN21@CLoaderToo:

; 37   : 		}
; 38   : 
; 39   : 		m_hLib = hLib;
; 40   : 
; 41   : 		if(!LoadProcAddress()) 

  002fc	8b 06		 mov	 eax, DWORD PTR [esi]
  002fe	8b ce		 mov	 ecx, esi
  00300	89 5e 04	 mov	 DWORD PTR [esi+4], ebx
  00303	8b 00		 mov	 eax, DWORD PTR [eax]
  00305	3d 00 00 00 00	 cmp	 eax, OFFSET ?LoadProcAddress@CLoaderToolTipCtrl@@UAEHXZ ; CLoaderToolTipCtrl::LoadProcAddress
  0030a	75 07		 jne	 SHORT $LN25@CLoaderToo
  0030c	e8 00 00 00 00	 call	 ?LoadProcAddress@CLoaderToolTipCtrl@@UAEHXZ ; CLoaderToolTipCtrl::LoadProcAddress
  00311	eb 02		 jmp	 SHORT $LN24@CLoaderToo
$LN25@CLoaderToo:
  00313	ff d0		 call	 eax
$LN24@CLoaderToo:
  00315	85 c0		 test	 eax, eax
  00317	75 15		 jne	 SHORT $LN26@CLoaderToo

; 53   : 		if(!m_hLib)

  00319	8b 46 04	 mov	 eax, DWORD PTR [esi+4]
  0031c	85 c0		 test	 eax, eax
  0031e	74 0e		 je	 SHORT $LN26@CLoaderToo

; 54   : 			return TRUE;
; 55   : 
; 56   : 		BOOL bResult = ::FreeLibrary(m_hLib);

  00320	50		 push	 eax
  00321	ff 15 00 00 00
	00		 call	 DWORD PTR __imp__FreeLibrary@4

; 57   : 		
; 58   : 		m_hLib = NULL;

  00327	c7 46 04 00 00
	00 00		 mov	 DWORD PTR [esi+4], 0
$LN26@CLoaderToo:
; File D:\git\src\IBK\IBK_DRFN\ProjSrc\SrcDrfn\Chart\ExControl\Include\LoadHelper.h

; 3201 : 		m_lpPointer = pInitToolTipCtrl(lpPointer);

  0032e	ff b5 dc fe ff
	ff		 push	 DWORD PTR _lpPointer$GSCopy$1$[ebp]
  00334	8b 8e 14 01 00
	00		 mov	 ecx, DWORD PTR [esi+276]
  0033a	ff d1		 call	 ecx
  0033c	83 c4 04	 add	 esp, 4
  0033f	89 86 0c 01 00
	00		 mov	 DWORD PTR [esi+268], eax

; 3202 : 	}

  00345	8d 8d e0 fe ff
	ff		 lea	 ecx, DWORD PTR _szDir$[ebp]
  0034b	ff 15 00 00 00
	00		 call	 DWORD PTR __imp_??1?$CStringT@DV?$StrTraitMFC_DLL@DV?$ChTraitsCRT@D@ATL@@@@@ATL@@QAE@XZ
  00351	8b c6		 mov	 eax, esi
  00353	8b 4d f4	 mov	 ecx, DWORD PTR __$EHRec$[ebp]
  00356	64 89 0d 00 00
	00 00		 mov	 DWORD PTR fs:0, ecx
  0035d	59		 pop	 ecx
  0035e	5f		 pop	 edi
  0035f	5e		 pop	 esi
  00360	5b		 pop	 ebx
  00361	8b 4d f0	 mov	 ecx, DWORD PTR __$ArrayPad$7[ebp]
  00364	33 cd		 xor	 ecx, ebp
  00366	e8 00 00 00 00	 call	 @__security_check_cookie@4
  0036b	8b e5		 mov	 esp, ebp
  0036d	5d		 pop	 ebp
  0036e	c2 08 00	 ret	 8
_TEXT	ENDS
;	COMDAT text$x
text$x	SEGMENT
__unwindfunclet$??0CLoaderToolTipCtrl@@QAE@PAXPBD@Z$0:
  00000	8b 8d d8 fe ff
	ff		 mov	 ecx, DWORD PTR _this$GSCopy$[ebp]
  00006	e9 00 00 00 00	 jmp	 ??1CExLoadLib@@QAE@XZ	; CExLoadLib::~CExLoadLib
__unwindfunclet$??0CLoaderToolTipCtrl@@QAE@PAXPBD@Z$1:
  0000b	8d 8d e0 fe ff
	ff		 lea	 ecx, DWORD PTR _szDir$[ebp]
  00011	ff 25 00 00 00
	00		 jmp	 DWORD PTR __imp_??1?$CStringT@DV?$StrTraitMFC_DLL@DV?$ChTraitsCRT@D@ATL@@@@@ATL@@QAE@XZ
__unwindfunclet$??0CLoaderToolTipCtrl@@QAE@PAXPBD@Z$2:
  00017	8d 8d e8 fe ff
	ff		 lea	 ecx, DWORD PTR __strRoot_$4[ebp]
  0001d	ff 25 00 00 00
	00		 jmp	 DWORD PTR __imp_??1?$CStringT@DV?$StrTraitMFC_DLL@DV?$ChTraitsCRT@D@ATL@@@@@ATL@@QAE@XZ
__unwindfunclet$??0CLoaderToolTipCtrl@@QAE@PAXPBD@Z$3:
  00023	8d 8d e4 fe ff
	ff		 lea	 ecx, DWORD PTR $T3[ebp]
  00029	ff 25 00 00 00
	00		 jmp	 DWORD PTR __imp_??1?$CStringT@DV?$StrTraitMFC_DLL@DV?$ChTraitsCRT@D@ATL@@@@@ATL@@QAE@XZ
__unwindfunclet$??0CLoaderToolTipCtrl@@QAE@PAXPBD@Z$4:
  0002f	8d 8d e4 fe ff
	ff		 lea	 ecx, DWORD PTR $T2[ebp]
  00035	ff 25 00 00 00
	00		 jmp	 DWORD PTR __imp_??1?$CStringT@DV?$StrTraitMFC_DLL@DV?$ChTraitsCRT@D@ATL@@@@@ATL@@QAE@XZ
  0003b	cc		 int	 3
  0003c	cc		 int	 3
  0003d	cc		 int	 3
  0003e	cc		 int	 3
  0003f	cc		 int	 3
__ehhandler$??0CLoaderToolTipCtrl@@QAE@PAXPBD@Z:
  00040	90		 npad	 1
  00041	90		 npad	 1
  00042	8b 54 24 08	 mov	 edx, DWORD PTR [esp+8]
  00046	8d 42 0c	 lea	 eax, DWORD PTR [edx+12]
  00049	8b 8a d4 fe ff
	ff		 mov	 ecx, DWORD PTR [edx-300]
  0004f	33 c8		 xor	 ecx, eax
  00051	e8 00 00 00 00	 call	 @__security_check_cookie@4
  00056	8b 4a fc	 mov	 ecx, DWORD PTR [edx-4]
  00059	33 c8		 xor	 ecx, eax
  0005b	e8 00 00 00 00	 call	 @__security_check_cookie@4
  00060	b8 00 00 00 00	 mov	 eax, OFFSET __ehfuncinfo$??0CLoaderToolTipCtrl@@QAE@PAXPBD@Z
  00065	e9 00 00 00 00	 jmp	 ___CxxFrameHandler3
text$x	ENDS
??0CLoaderToolTipCtrl@@QAE@PAXPBD@Z ENDP		; CLoaderToolTipCtrl::CLoaderToolTipCtrl
; Function compile flags: /Ogtp
; File D:\git\src\IBK\IBK_DRFN\ProjSrc\SrcDrfn\Chart\ExControl\Include\BaseLoadHelper.h
;	COMDAT ?LoadProcAddress@CExLoadLib@@UAEHXZ
_TEXT	SEGMENT
?LoadProcAddress@CExLoadLib@@UAEHXZ PROC		; CExLoadLib::LoadProcAddress, COMDAT
; _this$ = ecx

; 19   : 		ASSERT(FALSE); 
; 20   : 		return FALSE;

  00000	33 c0		 xor	 eax, eax

; 21   : 	}

  00002	c3		 ret	 0
?LoadProcAddress@CExLoadLib@@UAEHXZ ENDP		; CExLoadLib::LoadProcAddress
_TEXT	ENDS
; Function compile flags: /Ogtp
; File D:\git\src\IBK\IBK_DRFN\ProjSrc\SrcDrfn\Chart\ExControl\Include\BaseLoadHelper.h
;	COMDAT ??1CExLoadLib@@QAE@XZ
_TEXT	SEGMENT
??1CExLoadLib@@QAE@XZ PROC				; CExLoadLib::~CExLoadLib, COMDAT
; _this$ = ecx

; 13   : 	{

  00000	56		 push	 esi
  00001	8b f1		 mov	 esi, ecx

; 53   : 		if(!m_hLib)

  00003	8b 46 04	 mov	 eax, DWORD PTR [esi+4]

; 13   : 	{

  00006	c7 06 00 00 00
	00		 mov	 DWORD PTR [esi], OFFSET ??_7CExLoadLib@@6B@

; 53   : 		if(!m_hLib)

  0000c	85 c0		 test	 eax, eax
  0000e	74 0e		 je	 SHORT $LN3@CExLoadLib

; 54   : 			return TRUE;
; 55   : 
; 56   : 		BOOL bResult = ::FreeLibrary(m_hLib);

  00010	50		 push	 eax
  00011	ff 15 00 00 00
	00		 call	 DWORD PTR __imp__FreeLibrary@4

; 57   : 		
; 58   : 		m_hLib = NULL;

  00017	c7 46 04 00 00
	00 00		 mov	 DWORD PTR [esi+4], 0
$LN3@CExLoadLib:
  0001e	5e		 pop	 esi

; 14   : 		UnLoadLib();
; 15   : 	}

  0001f	c3		 ret	 0
??1CExLoadLib@@QAE@XZ ENDP				; CExLoadLib::~CExLoadLib
_TEXT	ENDS
; Function compile flags: /Ogtp
; File D:\git\src\IBK\IBK_DRFN\ProjSrc\SrcDrfn\Chart\ExControl\ExToolTipCtrl.cpp
; File D:\git\src\IBK\IBK_DRFN\ProjSrc\SrcDrfn\Chart\ExControl\Include\LoadHelper.h
; File D:\git\src\IBK\IBK_DRFN\ProjSrc\SrcDrfn\Chart\ExControl\Include\BaseLoadHelper.h
;	COMDAT ??_GCExToolTipCtrl@@UAEPAXI@Z
_TEXT	SEGMENT
__$EHRec$ = -12						; size = 12
___flags$ = 8						; size = 4
??_GCExToolTipCtrl@@UAEPAXI@Z PROC			; CExToolTipCtrl::`scalar deleting destructor', COMDAT
; _this$ = ecx
  00000	55		 push	 ebp
  00001	8b ec		 mov	 ebp, esp
  00003	6a ff		 push	 -1
  00005	68 00 00 00 00	 push	 __ehhandler$??_GCExToolTipCtrl@@UAEPAXI@Z
  0000a	64 a1 00 00 00
	00		 mov	 eax, DWORD PTR fs:0
  00010	50		 push	 eax
  00011	56		 push	 esi
  00012	57		 push	 edi
  00013	a1 00 00 00 00	 mov	 eax, DWORD PTR ___security_cookie
  00018	33 c5		 xor	 eax, ebp
  0001a	50		 push	 eax
  0001b	8d 45 f4	 lea	 eax, DWORD PTR __$EHRec$[ebp]
  0001e	64 a3 00 00 00
	00		 mov	 DWORD PTR fs:0, eax
  00024	8b f9		 mov	 edi, ecx
; File D:\git\src\IBK\IBK_DRFN\ProjSrc\SrcDrfn\Chart\ExControl\ExToolTipCtrl.cpp

; 20   : 	delete m_pLoader;

  00026	8b 77 04	 mov	 esi, DWORD PTR [edi+4]
  00029	c7 07 00 00 00
	00		 mov	 DWORD PTR [edi], OFFSET ??_7CExToolTipCtrl@@6B@
  0002f	85 f6		 test	 esi, esi
  00031	74 4e		 je	 SHORT $LN9@scalar
; File D:\git\src\IBK\IBK_DRFN\ProjSrc\SrcDrfn\Chart\ExControl\Include\LoadHelper.h

; 3206 : 		if(m_hLib)

  00033	8b 46 04	 mov	 eax, DWORD PTR [esi+4]
  00036	c7 45 fc 00 00
	00 00		 mov	 DWORD PTR __$EHRec$[ebp+8], 0
  0003d	c7 06 00 00 00
	00		 mov	 DWORD PTR [esi], OFFSET ??_7CLoaderToolTipCtrl@@6B@
  00043	85 c0		 test	 eax, eax
  00045	74 14		 je	 SHORT $LN12@scalar

; 3207 : 			pExitToolTipCtrl(m_lpPointer);

  00047	ff b6 0c 01 00
	00		 push	 DWORD PTR [esi+268]
  0004d	8b 86 18 01 00
	00		 mov	 eax, DWORD PTR [esi+280]
  00053	ff d0		 call	 eax
  00055	8b 46 04	 mov	 eax, DWORD PTR [esi+4]
  00058	83 c4 04	 add	 esp, 4
$LN12@scalar:
; File D:\git\src\IBK\IBK_DRFN\ProjSrc\SrcDrfn\Chart\ExControl\Include\BaseLoadHelper.h

; 13   : 	{

  0005b	c7 06 00 00 00
	00		 mov	 DWORD PTR [esi], OFFSET ??_7CExLoadLib@@6B@

; 53   : 		if(!m_hLib)

  00061	85 c0		 test	 eax, eax
  00063	74 0e		 je	 SHORT $LN17@scalar

; 54   : 			return TRUE;
; 55   : 
; 56   : 		BOOL bResult = ::FreeLibrary(m_hLib);

  00065	50		 push	 eax
  00066	ff 15 00 00 00
	00		 call	 DWORD PTR __imp__FreeLibrary@4

; 57   : 		
; 58   : 		m_hLib = NULL;

  0006c	c7 46 04 00 00
	00 00		 mov	 DWORD PTR [esi+4], 0
$LN17@scalar:
  00073	68 88 01 00 00	 push	 392			; 00000188H
  00078	56		 push	 esi
  00079	e8 00 00 00 00	 call	 ??3@YAXPAXI@Z		; operator delete
  0007e	83 c4 08	 add	 esp, 8
$LN9@scalar:
  00081	f6 45 08 01	 test	 BYTE PTR ___flags$[ebp], 1
  00085	74 0b		 je	 SHORT $LN20@scalar
  00087	6a 08		 push	 8
  00089	57		 push	 edi
  0008a	e8 00 00 00 00	 call	 ??3@YAXPAXI@Z		; operator delete
  0008f	83 c4 08	 add	 esp, 8
$LN20@scalar:
  00092	8b c7		 mov	 eax, edi
  00094	8b 4d f4	 mov	 ecx, DWORD PTR __$EHRec$[ebp]
  00097	64 89 0d 00 00
	00 00		 mov	 DWORD PTR fs:0, ecx
  0009e	59		 pop	 ecx
  0009f	5f		 pop	 edi
  000a0	5e		 pop	 esi
  000a1	8b e5		 mov	 esp, ebp
  000a3	5d		 pop	 ebp
  000a4	c2 04 00	 ret	 4
  000a7	cc		 int	 3
  000a8	cc		 int	 3
  000a9	cc		 int	 3
  000aa	cc		 int	 3
  000ab	cc		 int	 3
_TEXT	ENDS
;	COMDAT text$x
text$x	SEGMENT
__ehhandler$??_GCExToolTipCtrl@@UAEPAXI@Z:
  00000	90		 npad	 1
  00001	90		 npad	 1
  00002	8b 54 24 08	 mov	 edx, DWORD PTR [esp+8]
  00006	8d 42 0c	 lea	 eax, DWORD PTR [edx+12]
  00009	8b 4a f4	 mov	 ecx, DWORD PTR [edx-12]
  0000c	33 c8		 xor	 ecx, eax
  0000e	e8 00 00 00 00	 call	 @__security_check_cookie@4
  00013	b8 00 00 00 00	 mov	 eax, OFFSET __ehfuncinfo$??_GCExToolTipCtrl@@UAEPAXI@Z
  00018	e9 00 00 00 00	 jmp	 ___CxxFrameHandler3
text$x	ENDS
??_GCExToolTipCtrl@@UAEPAXI@Z ENDP			; CExToolTipCtrl::`scalar deleting destructor'
; Function compile flags: /Ogtp
; File D:\git\src\IBK\IBK_DRFN\ProjSrc\SrcDrfn\Chart\ExControl\ExToolTipCtrl.cpp
; File D:\git\src\IBK\IBK_DRFN\ProjSrc\SrcDrfn\Chart\ExControl\Include\LoadHelper.h
; File D:\git\src\IBK\IBK_DRFN\ProjSrc\SrcDrfn\Chart\ExControl\ExToolTipCtrl.cpp
;	COMDAT ?SetToolRect@CExToolTipCtrl@@QAEXPAVCWnd@@IPBUtagRECT@@@Z
_TEXT	SEGMENT
_pWnd$ = 8						; size = 4
_nIDTool$ = 12						; size = 4
_lpRect$ = 16						; size = 4
?SetToolRect@CExToolTipCtrl@@QAEXPAVCWnd@@IPBUtagRECT@@@Z PROC ; CExToolTipCtrl::SetToolRect, COMDAT
; _this$ = ecx

; 154  : {

  00000	55		 push	 ebp
  00001	8b ec		 mov	 ebp, esp

; 155  : 	m_pLoader->SetToolRect(pWnd, nIDTool, lpRect);

  00003	8b 41 04	 mov	 eax, DWORD PTR [ecx+4]
; File D:\git\src\IBK\IBK_DRFN\ProjSrc\SrcDrfn\Chart\ExControl\Include\LoadHelper.h

; 3506 : 		if(!m_hLib)

  00006	83 78 04 00	 cmp	 DWORD PTR [eax+4], 0
  0000a	74 1a		 je	 SHORT $LN3@SetToolRec

; 3507 : 			return;
; 3508 : 
; 3509 : 		pSetToolRect(m_lpPointer, pWnd, nIDTool, lpRect);

  0000c	ff 75 10	 push	 DWORD PTR _lpRect$[ebp]
  0000f	ff 75 0c	 push	 DWORD PTR _nIDTool$[ebp]
  00012	ff 75 08	 push	 DWORD PTR _pWnd$[ebp]
  00015	ff b0 0c 01 00
	00		 push	 DWORD PTR [eax+268]
  0001b	8b 80 1c 01 00
	00		 mov	 eax, DWORD PTR [eax+284]
  00021	ff d0		 call	 eax
  00023	83 c4 10	 add	 esp, 16			; 00000010H
$LN3@SetToolRec:
; File D:\git\src\IBK\IBK_DRFN\ProjSrc\SrcDrfn\Chart\ExControl\ExToolTipCtrl.cpp

; 156  : }

  00026	5d		 pop	 ebp
  00027	c2 0c 00	 ret	 12			; 0000000cH
?SetToolRect@CExToolTipCtrl@@QAEXPAVCWnd@@IPBUtagRECT@@@Z ENDP ; CExToolTipCtrl::SetToolRect
_TEXT	ENDS
; Function compile flags: /Ogtp
; File D:\git\src\IBK\IBK_DRFN\ProjSrc\SrcDrfn\Chart\ExControl\ExToolTipCtrl.cpp
; File D:\git\src\IBK\IBK_DRFN\ProjSrc\SrcDrfn\Chart\ExControl\Include\LoadHelper.h
; File D:\git\src\IBK\IBK_DRFN\ProjSrc\SrcDrfn\Chart\ExControl\ExToolTipCtrl.cpp
;	COMDAT ?SetToolInfo@CExToolTipCtrl@@QAEXPAUtagTOOLINFOA@@@Z
_TEXT	SEGMENT
_lpToolInfo$ = 8					; size = 4
?SetToolInfo@CExToolTipCtrl@@QAEXPAUtagTOOLINFOA@@@Z PROC ; CExToolTipCtrl::SetToolInfo, COMDAT
; _this$ = ecx

; 149  : {

  00000	55		 push	 ebp
  00001	8b ec		 mov	 ebp, esp

; 150  : 	m_pLoader->SetToolInfo(lpToolInfo);

  00003	8b 41 04	 mov	 eax, DWORD PTR [ecx+4]
; File D:\git\src\IBK\IBK_DRFN\ProjSrc\SrcDrfn\Chart\ExControl\Include\LoadHelper.h

; 3498 : 		if(!m_hLib)

  00006	83 78 04 00	 cmp	 DWORD PTR [eax+4], 0
  0000a	74 14		 je	 SHORT $LN3@SetToolInf

; 3499 : 			return;
; 3500 : 
; 3501 : 		pSetToolInfo(m_lpPointer, lpToolInfo);

  0000c	ff 75 08	 push	 DWORD PTR _lpToolInfo$[ebp]
  0000f	ff b0 0c 01 00
	00		 push	 DWORD PTR [eax+268]
  00015	8b 80 20 01 00
	00		 mov	 eax, DWORD PTR [eax+288]
  0001b	ff d0		 call	 eax
  0001d	83 c4 08	 add	 esp, 8
$LN3@SetToolInf:
; File D:\git\src\IBK\IBK_DRFN\ProjSrc\SrcDrfn\Chart\ExControl\ExToolTipCtrl.cpp

; 151  : }

  00020	5d		 pop	 ebp
  00021	c2 04 00	 ret	 4
?SetToolInfo@CExToolTipCtrl@@QAEXPAUtagTOOLINFOA@@@Z ENDP ; CExToolTipCtrl::SetToolInfo
_TEXT	ENDS
; Function compile flags: /Ogtp
; File D:\git\src\IBK\IBK_DRFN\ProjSrc\SrcDrfn\Chart\ExControl\ExToolTipCtrl.cpp
; File D:\git\src\IBK\IBK_DRFN\ProjSrc\SrcDrfn\Chart\ExControl\Include\LoadHelper.h
; File D:\git\src\IBK\IBK_DRFN\ProjSrc\SrcDrfn\Chart\ExControl\ExToolTipCtrl.cpp
;	COMDAT ?SetTipTextColor@CExToolTipCtrl@@QAEXK@Z
_TEXT	SEGMENT
_clr$ = 8						; size = 4
?SetTipTextColor@CExToolTipCtrl@@QAEXK@Z PROC		; CExToolTipCtrl::SetTipTextColor, COMDAT
; _this$ = ecx

; 144  : {

  00000	55		 push	 ebp
  00001	8b ec		 mov	 ebp, esp

; 145  : 	m_pLoader->SetTipTextColor(clr);

  00003	8b 41 04	 mov	 eax, DWORD PTR [ecx+4]
; File D:\git\src\IBK\IBK_DRFN\ProjSrc\SrcDrfn\Chart\ExControl\Include\LoadHelper.h

; 3490 : 		if(!m_hLib)

  00006	83 78 04 00	 cmp	 DWORD PTR [eax+4], 0
  0000a	74 14		 je	 SHORT $LN3@SetTipText

; 3491 : 			return;
; 3492 : 
; 3493 : 		pSetTipTextColor(m_lpPointer, clr);

  0000c	ff 75 08	 push	 DWORD PTR _clr$[ebp]
  0000f	ff b0 0c 01 00
	00		 push	 DWORD PTR [eax+268]
  00015	8b 80 24 01 00
	00		 mov	 eax, DWORD PTR [eax+292]
  0001b	ff d0		 call	 eax
  0001d	83 c4 08	 add	 esp, 8
$LN3@SetTipText:
; File D:\git\src\IBK\IBK_DRFN\ProjSrc\SrcDrfn\Chart\ExControl\ExToolTipCtrl.cpp

; 146  : }

  00020	5d		 pop	 ebp
  00021	c2 04 00	 ret	 4
?SetTipTextColor@CExToolTipCtrl@@QAEXK@Z ENDP		; CExToolTipCtrl::SetTipTextColor
_TEXT	ENDS
; Function compile flags: /Ogtp
; File D:\git\src\IBK\IBK_DRFN\ProjSrc\SrcDrfn\Chart\ExControl\ExToolTipCtrl.cpp
; File D:\git\src\IBK\IBK_DRFN\ProjSrc\SrcDrfn\Chart\ExControl\Include\LoadHelper.h
; File D:\git\src\IBK\IBK_DRFN\ProjSrc\SrcDrfn\Chart\ExControl\ExToolTipCtrl.cpp
;	COMDAT ?SetTipBkColor@CExToolTipCtrl@@QAEXK@Z
_TEXT	SEGMENT
_clr$ = 8						; size = 4
?SetTipBkColor@CExToolTipCtrl@@QAEXK@Z PROC		; CExToolTipCtrl::SetTipBkColor, COMDAT
; _this$ = ecx

; 139  : {

  00000	55		 push	 ebp
  00001	8b ec		 mov	 ebp, esp

; 140  : 	m_pLoader->SetTipBkColor(clr);

  00003	8b 41 04	 mov	 eax, DWORD PTR [ecx+4]
; File D:\git\src\IBK\IBK_DRFN\ProjSrc\SrcDrfn\Chart\ExControl\Include\LoadHelper.h

; 3482 : 		if(!m_hLib)

  00006	83 78 04 00	 cmp	 DWORD PTR [eax+4], 0
  0000a	74 14		 je	 SHORT $LN3@SetTipBkCo

; 3483 : 			return;
; 3484 : 
; 3485 : 		pSetTipBkColor(m_lpPointer, clr);

  0000c	ff 75 08	 push	 DWORD PTR _clr$[ebp]
  0000f	ff b0 0c 01 00
	00		 push	 DWORD PTR [eax+268]
  00015	8b 80 28 01 00
	00		 mov	 eax, DWORD PTR [eax+296]
  0001b	ff d0		 call	 eax
  0001d	83 c4 08	 add	 esp, 8
$LN3@SetTipBkCo:
; File D:\git\src\IBK\IBK_DRFN\ProjSrc\SrcDrfn\Chart\ExControl\ExToolTipCtrl.cpp

; 141  : }

  00020	5d		 pop	 ebp
  00021	c2 04 00	 ret	 4
?SetTipBkColor@CExToolTipCtrl@@QAEXK@Z ENDP		; CExToolTipCtrl::SetTipBkColor
_TEXT	ENDS
; Function compile flags: /Ogtp
; File D:\git\src\IBK\IBK_DRFN\ProjSrc\SrcDrfn\Chart\ExControl\ExToolTipCtrl.cpp
; File D:\git\src\IBK\IBK_DRFN\ProjSrc\SrcDrfn\Chart\ExControl\Include\LoadHelper.h
; File D:\git\src\IBK\IBK_DRFN\ProjSrc\SrcDrfn\Chart\ExControl\ExToolTipCtrl.cpp
; File D:\git\src\IBK\IBK_DRFN\ProjSrc\SrcDrfn\Chart\ExControl\Include\LoadHelper.h
; File D:\git\src\IBK\IBK_DRFN\ProjSrc\SrcDrfn\Chart\ExControl\ExToolTipCtrl.cpp
;	COMDAT ?SetMaxTipWidth@CExToolTipCtrl@@QAEHH@Z
_TEXT	SEGMENT
_iWidth$ = 8						; size = 4
?SetMaxTipWidth@CExToolTipCtrl@@QAEHH@Z PROC		; CExToolTipCtrl::SetMaxTipWidth, COMDAT
; _this$ = ecx

; 134  : {

  00000	55		 push	 ebp
  00001	8b ec		 mov	 ebp, esp

; 135  : 	return m_pLoader->SetMaxTipWidth(iWidth);

  00003	8b 41 04	 mov	 eax, DWORD PTR [ecx+4]
; File D:\git\src\IBK\IBK_DRFN\ProjSrc\SrcDrfn\Chart\ExControl\Include\LoadHelper.h

; 3474 : 		if(!m_hLib)

  00006	83 78 04 00	 cmp	 DWORD PTR [eax+4], 0
  0000a	75 06		 jne	 SHORT $LN4@SetMaxTipW
; File D:\git\src\IBK\IBK_DRFN\ProjSrc\SrcDrfn\Chart\ExControl\ExToolTipCtrl.cpp

; 135  : 	return m_pLoader->SetMaxTipWidth(iWidth);

  0000c	33 c0		 xor	 eax, eax

; 136  : }

  0000e	5d		 pop	 ebp
  0000f	c2 04 00	 ret	 4
$LN4@SetMaxTipW:
; File D:\git\src\IBK\IBK_DRFN\ProjSrc\SrcDrfn\Chart\ExControl\Include\LoadHelper.h

; 3477 : 		return pSetMaxTipWidth(m_lpPointer, iWidth);

  00012	ff 75 08	 push	 DWORD PTR _iWidth$[ebp]
  00015	ff b0 0c 01 00
	00		 push	 DWORD PTR [eax+268]
  0001b	8b 80 2c 01 00
	00		 mov	 eax, DWORD PTR [eax+300]
  00021	ff d0		 call	 eax
  00023	83 c4 08	 add	 esp, 8
; File D:\git\src\IBK\IBK_DRFN\ProjSrc\SrcDrfn\Chart\ExControl\ExToolTipCtrl.cpp

; 136  : }

  00026	5d		 pop	 ebp
  00027	c2 04 00	 ret	 4
?SetMaxTipWidth@CExToolTipCtrl@@QAEHH@Z ENDP		; CExToolTipCtrl::SetMaxTipWidth
_TEXT	ENDS
; Function compile flags: /Ogtp
; File D:\git\src\IBK\IBK_DRFN\ProjSrc\SrcDrfn\Chart\ExControl\ExToolTipCtrl.cpp
; File D:\git\src\IBK\IBK_DRFN\ProjSrc\SrcDrfn\Chart\ExControl\Include\LoadHelper.h
; File D:\git\src\IBK\IBK_DRFN\ProjSrc\SrcDrfn\Chart\ExControl\ExToolTipCtrl.cpp
;	COMDAT ?SetMargin@CExToolTipCtrl@@QAEXPAUtagRECT@@@Z
_TEXT	SEGMENT
_lprc$ = 8						; size = 4
?SetMargin@CExToolTipCtrl@@QAEXPAUtagRECT@@@Z PROC	; CExToolTipCtrl::SetMargin, COMDAT
; _this$ = ecx

; 129  : {

  00000	55		 push	 ebp
  00001	8b ec		 mov	 ebp, esp

; 130  : 	m_pLoader->SetMargin(lprc);

  00003	8b 41 04	 mov	 eax, DWORD PTR [ecx+4]
; File D:\git\src\IBK\IBK_DRFN\ProjSrc\SrcDrfn\Chart\ExControl\Include\LoadHelper.h

; 3466 : 		if(!m_hLib)

  00006	83 78 04 00	 cmp	 DWORD PTR [eax+4], 0
  0000a	74 14		 je	 SHORT $LN3@SetMargin

; 3467 : 			return;
; 3468 : 
; 3469 : 		pSetMargin(m_lpPointer, lprc);

  0000c	ff 75 08	 push	 DWORD PTR _lprc$[ebp]
  0000f	ff b0 0c 01 00
	00		 push	 DWORD PTR [eax+268]
  00015	8b 80 30 01 00
	00		 mov	 eax, DWORD PTR [eax+304]
  0001b	ff d0		 call	 eax
  0001d	83 c4 08	 add	 esp, 8
$LN3@SetMargin:
; File D:\git\src\IBK\IBK_DRFN\ProjSrc\SrcDrfn\Chart\ExControl\ExToolTipCtrl.cpp

; 131  : }

  00020	5d		 pop	 ebp
  00021	c2 04 00	 ret	 4
?SetMargin@CExToolTipCtrl@@QAEXPAUtagRECT@@@Z ENDP	; CExToolTipCtrl::SetMargin
_TEXT	ENDS
; Function compile flags: /Ogtp
; File D:\git\src\IBK\IBK_DRFN\ProjSrc\SrcDrfn\Chart\ExControl\ExToolTipCtrl.cpp
; File D:\git\src\IBK\IBK_DRFN\ProjSrc\SrcDrfn\Chart\ExControl\Include\LoadHelper.h
; File D:\git\src\IBK\IBK_DRFN\ProjSrc\SrcDrfn\Chart\ExControl\ExToolTipCtrl.cpp
;	COMDAT ?SetDelayTime@CExToolTipCtrl@@QAEXI@Z
_TEXT	SEGMENT
_nDelay$ = 8						; size = 4
?SetDelayTime@CExToolTipCtrl@@QAEXI@Z PROC		; CExToolTipCtrl::SetDelayTime, COMDAT
; _this$ = ecx

; 124  : {

  00000	55		 push	 ebp
  00001	8b ec		 mov	 ebp, esp

; 125  : 	m_pLoader->SetDelayTime(nDelay);

  00003	8b 41 04	 mov	 eax, DWORD PTR [ecx+4]
; File D:\git\src\IBK\IBK_DRFN\ProjSrc\SrcDrfn\Chart\ExControl\Include\LoadHelper.h

; 3458 : 		if(!m_hLib)

  00006	83 78 04 00	 cmp	 DWORD PTR [eax+4], 0
  0000a	74 14		 je	 SHORT $LN3@SetDelayTi

; 3459 : 			return;
; 3460 : 
; 3461 : 		pSetDelayTime(m_lpPointer, nDelay);

  0000c	ff 75 08	 push	 DWORD PTR _nDelay$[ebp]
  0000f	ff b0 0c 01 00
	00		 push	 DWORD PTR [eax+268]
  00015	8b 80 34 01 00
	00		 mov	 eax, DWORD PTR [eax+308]
  0001b	ff d0		 call	 eax
  0001d	83 c4 08	 add	 esp, 8
$LN3@SetDelayTi:
; File D:\git\src\IBK\IBK_DRFN\ProjSrc\SrcDrfn\Chart\ExControl\ExToolTipCtrl.cpp

; 126  : }

  00020	5d		 pop	 ebp
  00021	c2 04 00	 ret	 4
?SetDelayTime@CExToolTipCtrl@@QAEXI@Z ENDP		; CExToolTipCtrl::SetDelayTime
_TEXT	ENDS
; Function compile flags: /Ogtp
; File D:\git\src\IBK\IBK_DRFN\ProjSrc\SrcDrfn\Chart\ExControl\ExToolTipCtrl.cpp
; File D:\git\src\IBK\IBK_DRFN\ProjSrc\SrcDrfn\Chart\ExControl\Include\LoadHelper.h
; File D:\git\src\IBK\IBK_DRFN\ProjSrc\SrcDrfn\Chart\ExControl\ExToolTipCtrl.cpp
;	COMDAT ?Pop@CExToolTipCtrl@@QAEXXZ
_TEXT	SEGMENT
?Pop@CExToolTipCtrl@@QAEXXZ PROC			; CExToolTipCtrl::Pop, COMDAT
; _this$ = ecx

; 120  : 	m_pLoader->Pop();

  00000	8b 41 04	 mov	 eax, DWORD PTR [ecx+4]
; File D:\git\src\IBK\IBK_DRFN\ProjSrc\SrcDrfn\Chart\ExControl\Include\LoadHelper.h

; 3450 : 		if(!m_hLib)

  00003	83 78 04 00	 cmp	 DWORD PTR [eax+4], 0
  00007	74 0f		 je	 SHORT $LN3@Pop

; 3451 : 			return;
; 3452 : 
; 3453 : 		pPop(m_lpPointer);

  00009	ff b0 0c 01 00
	00		 push	 DWORD PTR [eax+268]
  0000f	8b 80 38 01 00
	00		 mov	 eax, DWORD PTR [eax+312]
  00015	ff d0		 call	 eax
  00017	59		 pop	 ecx
$LN3@Pop:
; File D:\git\src\IBK\IBK_DRFN\ProjSrc\SrcDrfn\Chart\ExControl\ExToolTipCtrl.cpp

; 121  : }

  00018	c3		 ret	 0
?Pop@CExToolTipCtrl@@QAEXXZ ENDP			; CExToolTipCtrl::Pop
_TEXT	ENDS
; Function compile flags: /Ogtp
; File D:\git\src\IBK\IBK_DRFN\ProjSrc\SrcDrfn\Chart\ExControl\ExToolTipCtrl.cpp
; File D:\git\src\IBK\IBK_DRFN\ProjSrc\SrcDrfn\Chart\ExControl\Include\LoadHelper.h
; File D:\git\src\IBK\IBK_DRFN\ProjSrc\SrcDrfn\Chart\ExControl\ExToolTipCtrl.cpp
; File D:\git\src\IBK\IBK_DRFN\ProjSrc\SrcDrfn\Chart\ExControl\Include\LoadHelper.h
; File D:\git\src\IBK\IBK_DRFN\ProjSrc\SrcDrfn\Chart\ExControl\ExToolTipCtrl.cpp
;	COMDAT ?HitTest@CExToolTipCtrl@@QAEHPAVCWnd@@VCPoint@@PAUtagTOOLINFOA@@@Z
_TEXT	SEGMENT
_pWnd$ = 8						; size = 4
_pt$ = 12						; size = 8
_lpToolInfo$ = 20					; size = 4
?HitTest@CExToolTipCtrl@@QAEHPAVCWnd@@VCPoint@@PAUtagTOOLINFOA@@@Z PROC ; CExToolTipCtrl::HitTest, COMDAT
; _this$ = ecx

; 114  : {

  00000	55		 push	 ebp
  00001	8b ec		 mov	 ebp, esp

; 115  : 	return m_pLoader->HitTest(pWnd, pt, lpToolInfo);

  00003	8b 41 04	 mov	 eax, DWORD PTR [ecx+4]
; File D:\git\src\IBK\IBK_DRFN\ProjSrc\SrcDrfn\Chart\ExControl\Include\LoadHelper.h

; 3442 : 		if(!m_hLib)

  00006	83 78 04 00	 cmp	 DWORD PTR [eax+4], 0
  0000a	75 06		 jne	 SHORT $LN4@HitTest
; File D:\git\src\IBK\IBK_DRFN\ProjSrc\SrcDrfn\Chart\ExControl\ExToolTipCtrl.cpp

; 115  : 	return m_pLoader->HitTest(pWnd, pt, lpToolInfo);

  0000c	33 c0		 xor	 eax, eax

; 116  : }

  0000e	5d		 pop	 ebp
  0000f	c2 10 00	 ret	 16			; 00000010H
$LN4@HitTest:
; File D:\git\src\IBK\IBK_DRFN\ProjSrc\SrcDrfn\Chart\ExControl\Include\LoadHelper.h

; 3445 : 		return pHitTest(m_lpPointer, pWnd, pt, lpToolInfo);

  00012	ff 75 14	 push	 DWORD PTR _lpToolInfo$[ebp]
  00015	ff 75 10	 push	 DWORD PTR _pt$[ebp+4]
  00018	ff 75 0c	 push	 DWORD PTR _pt$[ebp]
  0001b	ff 75 08	 push	 DWORD PTR _pWnd$[ebp]
  0001e	ff b0 0c 01 00
	00		 push	 DWORD PTR [eax+268]
  00024	8b 80 3c 01 00
	00		 mov	 eax, DWORD PTR [eax+316]
  0002a	ff d0		 call	 eax
  0002c	83 c4 14	 add	 esp, 20			; 00000014H
; File D:\git\src\IBK\IBK_DRFN\ProjSrc\SrcDrfn\Chart\ExControl\ExToolTipCtrl.cpp

; 116  : }

  0002f	5d		 pop	 ebp
  00030	c2 10 00	 ret	 16			; 00000010H
?HitTest@CExToolTipCtrl@@QAEHPAVCWnd@@VCPoint@@PAUtagTOOLINFOA@@@Z ENDP ; CExToolTipCtrl::HitTest
_TEXT	ENDS
; Function compile flags: /Ogtp
; File D:\git\src\IBK\IBK_DRFN\ProjSrc\SrcDrfn\Chart\ExControl\ExToolTipCtrl.cpp
; File D:\git\src\IBK\IBK_DRFN\ProjSrc\SrcDrfn\Chart\ExControl\Include\LoadHelper.h
; File D:\git\src\IBK\IBK_DRFN\ProjSrc\SrcDrfn\Chart\ExControl\ExToolTipCtrl.cpp
; File D:\git\src\IBK\IBK_DRFN\ProjSrc\SrcDrfn\Chart\ExControl\Include\LoadHelper.h
; File D:\git\src\IBK\IBK_DRFN\ProjSrc\SrcDrfn\Chart\ExControl\ExToolTipCtrl.cpp
;	COMDAT ?GetToolInfo@CExToolTipCtrl@@QAEHAAVCToolInfo@@PAVCWnd@@I@Z
_TEXT	SEGMENT
_ToolInfo$ = 8						; size = 4
_pWnd$ = 12						; size = 4
_nIDTool$ = 16						; size = 4
?GetToolInfo@CExToolTipCtrl@@QAEHAAVCToolInfo@@PAVCWnd@@I@Z PROC ; CExToolTipCtrl::GetToolInfo, COMDAT
; _this$ = ecx

; 109  : {

  00000	55		 push	 ebp
  00001	8b ec		 mov	 ebp, esp

; 110  : 	return m_pLoader->GetToolInfo(ToolInfo, pWnd, nIDTool);

  00003	8b 41 04	 mov	 eax, DWORD PTR [ecx+4]
; File D:\git\src\IBK\IBK_DRFN\ProjSrc\SrcDrfn\Chart\ExControl\Include\LoadHelper.h

; 3434 : 		if(!m_hLib)

  00006	83 78 04 00	 cmp	 DWORD PTR [eax+4], 0
  0000a	75 06		 jne	 SHORT $LN4@GetToolInf
; File D:\git\src\IBK\IBK_DRFN\ProjSrc\SrcDrfn\Chart\ExControl\ExToolTipCtrl.cpp

; 110  : 	return m_pLoader->GetToolInfo(ToolInfo, pWnd, nIDTool);

  0000c	33 c0		 xor	 eax, eax

; 111  : }

  0000e	5d		 pop	 ebp
  0000f	c2 0c 00	 ret	 12			; 0000000cH
$LN4@GetToolInf:
; File D:\git\src\IBK\IBK_DRFN\ProjSrc\SrcDrfn\Chart\ExControl\Include\LoadHelper.h

; 3437 : 		return pGetToolInfo(m_lpPointer, ToolInfo, pWnd, nIDTool);

  00012	ff 75 10	 push	 DWORD PTR _nIDTool$[ebp]
  00015	ff 75 0c	 push	 DWORD PTR _pWnd$[ebp]
  00018	ff 75 08	 push	 DWORD PTR _ToolInfo$[ebp]
  0001b	ff b0 0c 01 00
	00		 push	 DWORD PTR [eax+268]
  00021	8b 80 40 01 00
	00		 mov	 eax, DWORD PTR [eax+320]
  00027	ff d0		 call	 eax
  00029	83 c4 10	 add	 esp, 16			; 00000010H
; File D:\git\src\IBK\IBK_DRFN\ProjSrc\SrcDrfn\Chart\ExControl\ExToolTipCtrl.cpp

; 111  : }

  0002c	5d		 pop	 ebp
  0002d	c2 0c 00	 ret	 12			; 0000000cH
?GetToolInfo@CExToolTipCtrl@@QAEHAAVCToolInfo@@PAVCWnd@@I@Z ENDP ; CExToolTipCtrl::GetToolInfo
_TEXT	ENDS
; Function compile flags: /Ogtp
; File D:\git\src\IBK\IBK_DRFN\ProjSrc\SrcDrfn\Chart\ExControl\ExToolTipCtrl.cpp
; File D:\git\src\IBK\IBK_DRFN\ProjSrc\SrcDrfn\Chart\ExControl\Include\LoadHelper.h
; File D:\git\src\IBK\IBK_DRFN\ProjSrc\SrcDrfn\Chart\ExControl\ExToolTipCtrl.cpp
; File D:\git\src\IBK\IBK_DRFN\ProjSrc\SrcDrfn\Chart\ExControl\Include\LoadHelper.h
; File D:\git\src\IBK\IBK_DRFN\ProjSrc\SrcDrfn\Chart\ExControl\ExToolTipCtrl.cpp
;	COMDAT ?GetToolCount@CExToolTipCtrl@@QAEHXZ
_TEXT	SEGMENT
?GetToolCount@CExToolTipCtrl@@QAEHXZ PROC		; CExToolTipCtrl::GetToolCount, COMDAT
; _this$ = ecx

; 105  : 	return m_pLoader->GetToolCount();

  00000	8b 41 04	 mov	 eax, DWORD PTR [ecx+4]
; File D:\git\src\IBK\IBK_DRFN\ProjSrc\SrcDrfn\Chart\ExControl\Include\LoadHelper.h

; 3426 : 		if(!m_hLib)

  00003	83 78 04 00	 cmp	 DWORD PTR [eax+4], 0
  00007	75 03		 jne	 SHORT $LN4@GetToolCou
; File D:\git\src\IBK\IBK_DRFN\ProjSrc\SrcDrfn\Chart\ExControl\ExToolTipCtrl.cpp

; 105  : 	return m_pLoader->GetToolCount();

  00009	33 c0		 xor	 eax, eax

; 106  : }

  0000b	c3		 ret	 0
$LN4@GetToolCou:
; File D:\git\src\IBK\IBK_DRFN\ProjSrc\SrcDrfn\Chart\ExControl\Include\LoadHelper.h

; 3429 : 		return pGetToolCount(m_lpPointer);

  0000c	ff b0 0c 01 00
	00		 push	 DWORD PTR [eax+268]
  00012	8b 80 44 01 00
	00		 mov	 eax, DWORD PTR [eax+324]
  00018	ff d0		 call	 eax
  0001a	83 c4 04	 add	 esp, 4
; File D:\git\src\IBK\IBK_DRFN\ProjSrc\SrcDrfn\Chart\ExControl\ExToolTipCtrl.cpp

; 106  : }

  0001d	c3		 ret	 0
?GetToolCount@CExToolTipCtrl@@QAEHXZ ENDP		; CExToolTipCtrl::GetToolCount
_TEXT	ENDS
; Function compile flags: /Ogtp
; File D:\git\src\IBK\IBK_DRFN\ProjSrc\SrcDrfn\Chart\ExControl\ExToolTipCtrl.cpp
; File D:\git\src\IBK\IBK_DRFN\ProjSrc\SrcDrfn\Chart\ExControl\Include\LoadHelper.h
; File D:\git\src\IBK\IBK_DRFN\ProjSrc\SrcDrfn\Chart\ExControl\ExToolTipCtrl.cpp
; File D:\git\src\IBK\IBK_DRFN\ProjSrc\SrcDrfn\Chart\ExControl\Include\LoadHelper.h
; File D:\git\src\IBK\IBK_DRFN\ProjSrc\SrcDrfn\Chart\ExControl\ExToolTipCtrl.cpp
;	COMDAT ?GetTipTextColor@CExToolTipCtrl@@QAEKXZ
_TEXT	SEGMENT
?GetTipTextColor@CExToolTipCtrl@@QAEKXZ PROC		; CExToolTipCtrl::GetTipTextColor, COMDAT
; _this$ = ecx

; 100  : 	return m_pLoader->GetTipTextColor();

  00000	8b 41 04	 mov	 eax, DWORD PTR [ecx+4]
; File D:\git\src\IBK\IBK_DRFN\ProjSrc\SrcDrfn\Chart\ExControl\Include\LoadHelper.h

; 3418 : 		if(!m_hLib)

  00003	83 78 04 00	 cmp	 DWORD PTR [eax+4], 0
  00007	75 03		 jne	 SHORT $LN4@GetTipText
; File D:\git\src\IBK\IBK_DRFN\ProjSrc\SrcDrfn\Chart\ExControl\ExToolTipCtrl.cpp

; 100  : 	return m_pLoader->GetTipTextColor();

  00009	33 c0		 xor	 eax, eax

; 101  : }

  0000b	c3		 ret	 0
$LN4@GetTipText:
; File D:\git\src\IBK\IBK_DRFN\ProjSrc\SrcDrfn\Chart\ExControl\Include\LoadHelper.h

; 3421 : 		return pGetTipTextColor(m_lpPointer);

  0000c	ff b0 0c 01 00
	00		 push	 DWORD PTR [eax+268]
  00012	8b 80 48 01 00
	00		 mov	 eax, DWORD PTR [eax+328]
  00018	ff d0		 call	 eax
  0001a	83 c4 04	 add	 esp, 4
; File D:\git\src\IBK\IBK_DRFN\ProjSrc\SrcDrfn\Chart\ExControl\ExToolTipCtrl.cpp

; 101  : }

  0001d	c3		 ret	 0
?GetTipTextColor@CExToolTipCtrl@@QAEKXZ ENDP		; CExToolTipCtrl::GetTipTextColor
_TEXT	ENDS
; Function compile flags: /Ogtp
; File D:\git\src\IBK\IBK_DRFN\ProjSrc\SrcDrfn\Chart\ExControl\ExToolTipCtrl.cpp
; File D:\git\src\IBK\IBK_DRFN\ProjSrc\SrcDrfn\Chart\ExControl\Include\LoadHelper.h
; File D:\git\src\IBK\IBK_DRFN\ProjSrc\SrcDrfn\Chart\ExControl\ExToolTipCtrl.cpp
; File D:\git\src\IBK\IBK_DRFN\ProjSrc\SrcDrfn\Chart\ExControl\Include\LoadHelper.h
; File D:\git\src\IBK\IBK_DRFN\ProjSrc\SrcDrfn\Chart\ExControl\ExToolTipCtrl.cpp
;	COMDAT ?GetTipBkColor@CExToolTipCtrl@@QAEKXZ
_TEXT	SEGMENT
?GetTipBkColor@CExToolTipCtrl@@QAEKXZ PROC		; CExToolTipCtrl::GetTipBkColor, COMDAT
; _this$ = ecx

; 95   : 	return m_pLoader->GetTipBkColor();

  00000	8b 41 04	 mov	 eax, DWORD PTR [ecx+4]
; File D:\git\src\IBK\IBK_DRFN\ProjSrc\SrcDrfn\Chart\ExControl\Include\LoadHelper.h

; 3410 : 		if(!m_hLib)

  00003	83 78 04 00	 cmp	 DWORD PTR [eax+4], 0
  00007	75 06		 jne	 SHORT $LN4@GetTipBkCo
; File D:\git\src\IBK\IBK_DRFN\ProjSrc\SrcDrfn\Chart\ExControl\ExToolTipCtrl.cpp

; 95   : 	return m_pLoader->GetTipBkColor();

  00009	b8 ff ff ff 00	 mov	 eax, 16777215		; 00ffffffH

; 96   : }

  0000e	c3		 ret	 0
$LN4@GetTipBkCo:
; File D:\git\src\IBK\IBK_DRFN\ProjSrc\SrcDrfn\Chart\ExControl\Include\LoadHelper.h

; 3413 : 		return pGetTipBkColor(m_lpPointer);

  0000f	ff b0 0c 01 00
	00		 push	 DWORD PTR [eax+268]
  00015	8b 80 4c 01 00
	00		 mov	 eax, DWORD PTR [eax+332]
  0001b	ff d0		 call	 eax
  0001d	83 c4 04	 add	 esp, 4
; File D:\git\src\IBK\IBK_DRFN\ProjSrc\SrcDrfn\Chart\ExControl\ExToolTipCtrl.cpp

; 96   : }

  00020	c3		 ret	 0
?GetTipBkColor@CExToolTipCtrl@@QAEKXZ ENDP		; CExToolTipCtrl::GetTipBkColor
_TEXT	ENDS
; Function compile flags: /Ogtp
; File D:\git\src\IBK\IBK_DRFN\ProjSrc\SrcDrfn\Chart\ExControl\ExToolTipCtrl.cpp
; File D:\git\src\IBK\IBK_DRFN\ProjSrc\SrcDrfn\Chart\ExControl\Include\LoadHelper.h
; File D:\git\src\IBK\IBK_DRFN\ProjSrc\SrcDrfn\Chart\ExControl\ExToolTipCtrl.cpp
;	COMDAT ?GetText@CExToolTipCtrl@@QAEXAAV?$CStringT@DV?$StrTraitMFC_DLL@DV?$ChTraitsCRT@D@ATL@@@@@ATL@@PAVCWnd@@I@Z
_TEXT	SEGMENT
_str$ = 8						; size = 4
_pWnd$ = 12						; size = 4
_nIDTool$ = 16						; size = 4
?GetText@CExToolTipCtrl@@QAEXAAV?$CStringT@DV?$StrTraitMFC_DLL@DV?$ChTraitsCRT@D@ATL@@@@@ATL@@PAVCWnd@@I@Z PROC ; CExToolTipCtrl::GetText, COMDAT
; _this$ = ecx

; 89   : {

  00000	55		 push	 ebp
  00001	8b ec		 mov	 ebp, esp

; 90   : 	m_pLoader->GetText(str, pWnd, nIDTool);

  00003	8b 41 04	 mov	 eax, DWORD PTR [ecx+4]
; File D:\git\src\IBK\IBK_DRFN\ProjSrc\SrcDrfn\Chart\ExControl\Include\LoadHelper.h

; 3402 : 		if(!m_hLib)

  00006	83 78 04 00	 cmp	 DWORD PTR [eax+4], 0
  0000a	74 1a		 je	 SHORT $LN3@GetText

; 3403 : 			return;
; 3404 : 
; 3405 : 		pGetText(m_lpPointer, str, pWnd, nIDTool);

  0000c	ff 75 10	 push	 DWORD PTR _nIDTool$[ebp]
  0000f	ff 75 0c	 push	 DWORD PTR _pWnd$[ebp]
  00012	ff 75 08	 push	 DWORD PTR _str$[ebp]
  00015	ff b0 0c 01 00
	00		 push	 DWORD PTR [eax+268]
  0001b	8b 80 50 01 00
	00		 mov	 eax, DWORD PTR [eax+336]
  00021	ff d0		 call	 eax
  00023	83 c4 10	 add	 esp, 16			; 00000010H
$LN3@GetText:
; File D:\git\src\IBK\IBK_DRFN\ProjSrc\SrcDrfn\Chart\ExControl\ExToolTipCtrl.cpp

; 91   : }

  00026	5d		 pop	 ebp
  00027	c2 0c 00	 ret	 12			; 0000000cH
?GetText@CExToolTipCtrl@@QAEXAAV?$CStringT@DV?$StrTraitMFC_DLL@DV?$ChTraitsCRT@D@ATL@@@@@ATL@@PAVCWnd@@I@Z ENDP ; CExToolTipCtrl::GetText
_TEXT	ENDS
; Function compile flags: /Ogtp
; File D:\git\src\IBK\IBK_DRFN\ProjSrc\SrcDrfn\Chart\ExControl\ExToolTipCtrl.cpp
; File D:\git\src\IBK\IBK_DRFN\ProjSrc\SrcDrfn\Chart\ExControl\Include\LoadHelper.h
; File D:\git\src\IBK\IBK_DRFN\ProjSrc\SrcDrfn\Chart\ExControl\ExToolTipCtrl.cpp
; File D:\git\src\IBK\IBK_DRFN\ProjSrc\SrcDrfn\Chart\ExControl\Include\LoadHelper.h
; File D:\git\src\IBK\IBK_DRFN\ProjSrc\SrcDrfn\Chart\ExControl\ExToolTipCtrl.cpp
;	COMDAT ?GetMaxTipWidth@CExToolTipCtrl@@QAEHXZ
_TEXT	SEGMENT
?GetMaxTipWidth@CExToolTipCtrl@@QAEHXZ PROC		; CExToolTipCtrl::GetMaxTipWidth, COMDAT
; _this$ = ecx

; 85   : 	return m_pLoader->GetMaxTipWidth();

  00000	8b 41 04	 mov	 eax, DWORD PTR [ecx+4]
; File D:\git\src\IBK\IBK_DRFN\ProjSrc\SrcDrfn\Chart\ExControl\Include\LoadHelper.h

; 3394 : 		if(!m_hLib)

  00003	83 78 04 00	 cmp	 DWORD PTR [eax+4], 0
  00007	75 03		 jne	 SHORT $LN4@GetMaxTipW
; File D:\git\src\IBK\IBK_DRFN\ProjSrc\SrcDrfn\Chart\ExControl\ExToolTipCtrl.cpp

; 85   : 	return m_pLoader->GetMaxTipWidth();

  00009	33 c0		 xor	 eax, eax

; 86   : }

  0000b	c3		 ret	 0
$LN4@GetMaxTipW:
; File D:\git\src\IBK\IBK_DRFN\ProjSrc\SrcDrfn\Chart\ExControl\Include\LoadHelper.h

; 3397 : 		return pGetMaxTipWidth(m_lpPointer);

  0000c	ff b0 0c 01 00
	00		 push	 DWORD PTR [eax+268]
  00012	8b 80 54 01 00
	00		 mov	 eax, DWORD PTR [eax+340]
  00018	ff d0		 call	 eax
  0001a	83 c4 04	 add	 esp, 4
; File D:\git\src\IBK\IBK_DRFN\ProjSrc\SrcDrfn\Chart\ExControl\ExToolTipCtrl.cpp

; 86   : }

  0001d	c3		 ret	 0
?GetMaxTipWidth@CExToolTipCtrl@@QAEHXZ ENDP		; CExToolTipCtrl::GetMaxTipWidth
_TEXT	ENDS
; Function compile flags: /Ogtp
; File D:\git\src\IBK\IBK_DRFN\ProjSrc\SrcDrfn\Chart\ExControl\ExToolTipCtrl.cpp
; File D:\git\src\IBK\IBK_DRFN\ProjSrc\SrcDrfn\Chart\ExControl\Include\LoadHelper.h
; File D:\git\src\IBK\IBK_DRFN\ProjSrc\SrcDrfn\Chart\ExControl\ExToolTipCtrl.cpp
;	COMDAT ?GetMargin@CExToolTipCtrl@@QAEXPAUtagRECT@@@Z
_TEXT	SEGMENT
_lprc$ = 8						; size = 4
?GetMargin@CExToolTipCtrl@@QAEXPAUtagRECT@@@Z PROC	; CExToolTipCtrl::GetMargin, COMDAT
; _this$ = ecx

; 79   : {

  00000	55		 push	 ebp
  00001	8b ec		 mov	 ebp, esp

; 80   : 	m_pLoader->GetMargin(lprc);

  00003	8b 41 04	 mov	 eax, DWORD PTR [ecx+4]
; File D:\git\src\IBK\IBK_DRFN\ProjSrc\SrcDrfn\Chart\ExControl\Include\LoadHelper.h

; 3386 : 		if(!m_hLib)

  00006	83 78 04 00	 cmp	 DWORD PTR [eax+4], 0
  0000a	74 14		 je	 SHORT $LN3@GetMargin

; 3387 : 			return;
; 3388 : 
; 3389 : 		pGetMargin(m_lpPointer, lprc);

  0000c	ff 75 08	 push	 DWORD PTR _lprc$[ebp]
  0000f	ff b0 0c 01 00
	00		 push	 DWORD PTR [eax+268]
  00015	8b 80 58 01 00
	00		 mov	 eax, DWORD PTR [eax+344]
  0001b	ff d0		 call	 eax
  0001d	83 c4 08	 add	 esp, 8
$LN3@GetMargin:
; File D:\git\src\IBK\IBK_DRFN\ProjSrc\SrcDrfn\Chart\ExControl\ExToolTipCtrl.cpp

; 81   : }

  00020	5d		 pop	 ebp
  00021	c2 04 00	 ret	 4
?GetMargin@CExToolTipCtrl@@QAEXPAUtagRECT@@@Z ENDP	; CExToolTipCtrl::GetMargin
_TEXT	ENDS
; Function compile flags: /Ogtp
; File D:\git\src\IBK\IBK_DRFN\ProjSrc\SrcDrfn\Chart\ExControl\ExToolTipCtrl.cpp
; File D:\git\src\IBK\IBK_DRFN\ProjSrc\SrcDrfn\Chart\ExControl\Include\LoadHelper.h
; File D:\git\src\IBK\IBK_DRFN\ProjSrc\SrcDrfn\Chart\ExControl\ExToolTipCtrl.cpp
; File D:\git\src\IBK\IBK_DRFN\ProjSrc\SrcDrfn\Chart\ExControl\Include\LoadHelper.h
; File D:\git\src\IBK\IBK_DRFN\ProjSrc\SrcDrfn\Chart\ExControl\ExToolTipCtrl.cpp
;	COMDAT ?GetDelayTime@CExToolTipCtrl@@QAEHK@Z
_TEXT	SEGMENT
_dwDuration$ = 8					; size = 4
?GetDelayTime@CExToolTipCtrl@@QAEHK@Z PROC		; CExToolTipCtrl::GetDelayTime, COMDAT
; _this$ = ecx

; 74   : {

  00000	55		 push	 ebp
  00001	8b ec		 mov	 ebp, esp

; 75   : 	return m_pLoader->GetDelayTime(dwDuration);

  00003	8b 41 04	 mov	 eax, DWORD PTR [ecx+4]
; File D:\git\src\IBK\IBK_DRFN\ProjSrc\SrcDrfn\Chart\ExControl\Include\LoadHelper.h

; 3378 : 		if(!m_hLib)

  00006	83 78 04 00	 cmp	 DWORD PTR [eax+4], 0
  0000a	75 06		 jne	 SHORT $LN4@GetDelayTi
; File D:\git\src\IBK\IBK_DRFN\ProjSrc\SrcDrfn\Chart\ExControl\ExToolTipCtrl.cpp

; 75   : 	return m_pLoader->GetDelayTime(dwDuration);

  0000c	33 c0		 xor	 eax, eax

; 76   : }

  0000e	5d		 pop	 ebp
  0000f	c2 04 00	 ret	 4
$LN4@GetDelayTi:
; File D:\git\src\IBK\IBK_DRFN\ProjSrc\SrcDrfn\Chart\ExControl\Include\LoadHelper.h

; 3381 : 		return pGetDelayTime(m_lpPointer, dwDuration);

  00012	ff 75 08	 push	 DWORD PTR _dwDuration$[ebp]
  00015	ff b0 0c 01 00
	00		 push	 DWORD PTR [eax+268]
  0001b	8b 80 5c 01 00
	00		 mov	 eax, DWORD PTR [eax+348]
  00021	ff d0		 call	 eax
  00023	83 c4 08	 add	 esp, 8
; File D:\git\src\IBK\IBK_DRFN\ProjSrc\SrcDrfn\Chart\ExControl\ExToolTipCtrl.cpp

; 76   : }

  00026	5d		 pop	 ebp
  00027	c2 04 00	 ret	 4
?GetDelayTime@CExToolTipCtrl@@QAEHK@Z ENDP		; CExToolTipCtrl::GetDelayTime
_TEXT	ENDS
; Function compile flags: /Ogtp
; File D:\git\src\IBK\IBK_DRFN\ProjSrc\SrcDrfn\Chart\ExControl\ExToolTipCtrl.cpp
; File D:\git\src\IBK\IBK_DRFN\ProjSrc\SrcDrfn\Chart\ExControl\Include\LoadHelper.h
; File D:\git\src\IBK\IBK_DRFN\ProjSrc\SrcDrfn\Chart\ExControl\ExToolTipCtrl.cpp
;	COMDAT ?FillInToolInfo@CExToolTipCtrl@@QAEXAAUtagTOOLINFOA@@PAVCWnd@@I@Z
_TEXT	SEGMENT
_ti$ = 8						; size = 4
_pWnd$ = 12						; size = 4
_nIDTool$ = 16						; size = 4
?FillInToolInfo@CExToolTipCtrl@@QAEXAAUtagTOOLINFOA@@PAVCWnd@@I@Z PROC ; CExToolTipCtrl::FillInToolInfo, COMDAT
; _this$ = ecx

; 69   : {

  00000	55		 push	 ebp
  00001	8b ec		 mov	 ebp, esp

; 70   : 	m_pLoader->FillInToolInfo(ti, pWnd, nIDTool);

  00003	8b 41 04	 mov	 eax, DWORD PTR [ecx+4]
; File D:\git\src\IBK\IBK_DRFN\ProjSrc\SrcDrfn\Chart\ExControl\Include\LoadHelper.h

; 3370 : 		if(!m_hLib)

  00006	83 78 04 00	 cmp	 DWORD PTR [eax+4], 0
  0000a	74 1a		 je	 SHORT $LN3@FillInTool

; 3371 : 			return;
; 3372 : 
; 3373 : 		pFillInToolInfo(m_lpPointer, ti, pWnd, nIDTool);

  0000c	ff 75 10	 push	 DWORD PTR _nIDTool$[ebp]
  0000f	ff 75 0c	 push	 DWORD PTR _pWnd$[ebp]
  00012	ff 75 08	 push	 DWORD PTR _ti$[ebp]
  00015	ff b0 0c 01 00
	00		 push	 DWORD PTR [eax+268]
  0001b	8b 80 60 01 00
	00		 mov	 eax, DWORD PTR [eax+352]
  00021	ff d0		 call	 eax
  00023	83 c4 10	 add	 esp, 16			; 00000010H
$LN3@FillInTool:
; File D:\git\src\IBK\IBK_DRFN\ProjSrc\SrcDrfn\Chart\ExControl\ExToolTipCtrl.cpp

; 71   : }

  00026	5d		 pop	 ebp
  00027	c2 0c 00	 ret	 12			; 0000000cH
?FillInToolInfo@CExToolTipCtrl@@QAEXAAUtagTOOLINFOA@@PAVCWnd@@I@Z ENDP ; CExToolTipCtrl::FillInToolInfo
_TEXT	ENDS
; Function compile flags: /Ogtp
; File D:\git\src\IBK\IBK_DRFN\ProjSrc\SrcDrfn\Chart\ExControl\ExToolTipCtrl.cpp
; File D:\git\src\IBK\IBK_DRFN\ProjSrc\SrcDrfn\Chart\ExControl\Include\LoadHelper.h
; File D:\git\src\IBK\IBK_DRFN\ProjSrc\SrcDrfn\Chart\ExControl\ExToolTipCtrl.cpp
;	COMDAT ?DelTool@CExToolTipCtrl@@QAEXPAVCWnd@@I@Z
_TEXT	SEGMENT
_pWnd$ = 8						; size = 4
_nIDTool$ = 12						; size = 4
?DelTool@CExToolTipCtrl@@QAEXPAVCWnd@@I@Z PROC		; CExToolTipCtrl::DelTool, COMDAT
; _this$ = ecx

; 64   : {

  00000	55		 push	 ebp
  00001	8b ec		 mov	 ebp, esp

; 65   : 	m_pLoader->DelTool(pWnd, nIDTool);

  00003	8b 41 04	 mov	 eax, DWORD PTR [ecx+4]
; File D:\git\src\IBK\IBK_DRFN\ProjSrc\SrcDrfn\Chart\ExControl\Include\LoadHelper.h

; 3362 : 		if(!m_hLib)

  00006	83 78 04 00	 cmp	 DWORD PTR [eax+4], 0
  0000a	74 17		 je	 SHORT $LN3@DelTool

; 3363 : 			return;
; 3364 : 
; 3365 : 		pDelTool(m_lpPointer, pWnd, nIDTool);

  0000c	ff 75 0c	 push	 DWORD PTR _nIDTool$[ebp]
  0000f	ff 75 08	 push	 DWORD PTR _pWnd$[ebp]
  00012	ff b0 0c 01 00
	00		 push	 DWORD PTR [eax+268]
  00018	8b 80 64 01 00
	00		 mov	 eax, DWORD PTR [eax+356]
  0001e	ff d0		 call	 eax
  00020	83 c4 0c	 add	 esp, 12			; 0000000cH
$LN3@DelTool:
; File D:\git\src\IBK\IBK_DRFN\ProjSrc\SrcDrfn\Chart\ExControl\ExToolTipCtrl.cpp

; 66   : }

  00023	5d		 pop	 ebp
  00024	c2 08 00	 ret	 8
?DelTool@CExToolTipCtrl@@QAEXPAVCWnd@@I@Z ENDP		; CExToolTipCtrl::DelTool
_TEXT	ENDS
; Function compile flags: /Ogtp
; File D:\git\src\IBK\IBK_DRFN\ProjSrc\SrcDrfn\Chart\ExControl\ExToolTipCtrl.cpp
; File D:\git\src\IBK\IBK_DRFN\ProjSrc\SrcDrfn\Chart\ExControl\Include\LoadHelper.h
; File D:\git\src\IBK\IBK_DRFN\ProjSrc\SrcDrfn\Chart\ExControl\ExToolTipCtrl.cpp
;	COMDAT ?Update@CExToolTipCtrl@@QAEXXZ
_TEXT	SEGMENT
?Update@CExToolTipCtrl@@QAEXXZ PROC			; CExToolTipCtrl::Update, COMDAT
; _this$ = ecx

; 60   : 	m_pLoader->Update();

  00000	8b 41 04	 mov	 eax, DWORD PTR [ecx+4]
; File D:\git\src\IBK\IBK_DRFN\ProjSrc\SrcDrfn\Chart\ExControl\Include\LoadHelper.h

; 3354 : 		if(!m_hLib)

  00003	83 78 04 00	 cmp	 DWORD PTR [eax+4], 0
  00007	74 0f		 je	 SHORT $LN3@Update

; 3355 : 			return;
; 3356 : 
; 3357 : 		pUpdate(m_lpPointer);

  00009	ff b0 0c 01 00
	00		 push	 DWORD PTR [eax+268]
  0000f	8b 80 68 01 00
	00		 mov	 eax, DWORD PTR [eax+360]
  00015	ff d0		 call	 eax
  00017	59		 pop	 ecx
$LN3@Update:
; File D:\git\src\IBK\IBK_DRFN\ProjSrc\SrcDrfn\Chart\ExControl\ExToolTipCtrl.cpp

; 61   : }

  00018	c3		 ret	 0
?Update@CExToolTipCtrl@@QAEXXZ ENDP			; CExToolTipCtrl::Update
_TEXT	ENDS
; Function compile flags: /Ogtp
; File D:\git\src\IBK\IBK_DRFN\ProjSrc\SrcDrfn\Chart\ExControl\ExToolTipCtrl.cpp
; File D:\git\src\IBK\IBK_DRFN\ProjSrc\SrcDrfn\Chart\ExControl\Include\LoadHelper.h
; File D:\git\src\IBK\IBK_DRFN\ProjSrc\SrcDrfn\Chart\ExControl\ExToolTipCtrl.cpp
; File D:\git\src\IBK\IBK_DRFN\ProjSrc\SrcDrfn\Chart\ExControl\Include\LoadHelper.h
; File D:\git\src\IBK\IBK_DRFN\ProjSrc\SrcDrfn\Chart\ExControl\ExToolTipCtrl.cpp
;	COMDAT ?GetSafeHwnd@CExToolTipCtrl@@QAEPAUHWND__@@XZ
_TEXT	SEGMENT
?GetSafeHwnd@CExToolTipCtrl@@QAEPAUHWND__@@XZ PROC	; CExToolTipCtrl::GetSafeHwnd, COMDAT
; _this$ = ecx

; 55   : 	return m_pLoader->GetSafeHwnd();

  00000	8b 41 04	 mov	 eax, DWORD PTR [ecx+4]
; File D:\git\src\IBK\IBK_DRFN\ProjSrc\SrcDrfn\Chart\ExControl\Include\LoadHelper.h

; 3346 : 		if(!m_hLib)

  00003	83 78 04 00	 cmp	 DWORD PTR [eax+4], 0
  00007	75 03		 jne	 SHORT $LN4@GetSafeHwn
; File D:\git\src\IBK\IBK_DRFN\ProjSrc\SrcDrfn\Chart\ExControl\ExToolTipCtrl.cpp

; 55   : 	return m_pLoader->GetSafeHwnd();

  00009	33 c0		 xor	 eax, eax

; 56   : }

  0000b	c3		 ret	 0
$LN4@GetSafeHwn:
; File D:\git\src\IBK\IBK_DRFN\ProjSrc\SrcDrfn\Chart\ExControl\Include\LoadHelper.h

; 3349 : 		return pGetSafeHwnd(m_lpPointer);

  0000c	ff b0 0c 01 00
	00		 push	 DWORD PTR [eax+268]
  00012	8b 80 6c 01 00
	00		 mov	 eax, DWORD PTR [eax+364]
  00018	ff d0		 call	 eax
  0001a	83 c4 04	 add	 esp, 4
; File D:\git\src\IBK\IBK_DRFN\ProjSrc\SrcDrfn\Chart\ExControl\ExToolTipCtrl.cpp

; 56   : }

  0001d	c3		 ret	 0
?GetSafeHwnd@CExToolTipCtrl@@QAEPAUHWND__@@XZ ENDP	; CExToolTipCtrl::GetSafeHwnd
_TEXT	ENDS
; Function compile flags: /Ogtp
; File D:\git\src\IBK\IBK_DRFN\ProjSrc\SrcDrfn\Chart\ExControl\ExToolTipCtrl.cpp
; File D:\git\src\IBK\IBK_DRFN\ProjSrc\SrcDrfn\Chart\ExControl\Include\LoadHelper.h
; File D:\git\src\IBK\IBK_DRFN\ProjSrc\SrcDrfn\Chart\ExControl\ExToolTipCtrl.cpp
;	COMDAT ?RelayEvent@CExToolTipCtrl@@QAEXPAUtagMSG@@@Z
_TEXT	SEGMENT
_lpMsg$ = 8						; size = 4
?RelayEvent@CExToolTipCtrl@@QAEXPAUtagMSG@@@Z PROC	; CExToolTipCtrl::RelayEvent, COMDAT
; _this$ = ecx

; 49   : {

  00000	55		 push	 ebp
  00001	8b ec		 mov	 ebp, esp

; 50   : 	m_pLoader->RelayEvent(lpMsg);

  00003	8b 41 04	 mov	 eax, DWORD PTR [ecx+4]
; File D:\git\src\IBK\IBK_DRFN\ProjSrc\SrcDrfn\Chart\ExControl\Include\LoadHelper.h

; 3338 : 		if(!m_hLib)

  00006	83 78 04 00	 cmp	 DWORD PTR [eax+4], 0
  0000a	74 14		 je	 SHORT $LN3@RelayEvent

; 3339 : 			return;
; 3340 : 
; 3341 : 		pRelayEvent(m_lpPointer, lpMsg);

  0000c	ff 75 08	 push	 DWORD PTR _lpMsg$[ebp]
  0000f	ff b0 0c 01 00
	00		 push	 DWORD PTR [eax+268]
  00015	8b 80 70 01 00
	00		 mov	 eax, DWORD PTR [eax+368]
  0001b	ff d0		 call	 eax
  0001d	83 c4 08	 add	 esp, 8
$LN3@RelayEvent:
; File D:\git\src\IBK\IBK_DRFN\ProjSrc\SrcDrfn\Chart\ExControl\ExToolTipCtrl.cpp

; 51   : }

  00020	5d		 pop	 ebp
  00021	c2 04 00	 ret	 4
?RelayEvent@CExToolTipCtrl@@QAEXPAUtagMSG@@@Z ENDP	; CExToolTipCtrl::RelayEvent
_TEXT	ENDS
; Function compile flags: /Ogtp
; File D:\git\src\IBK\IBK_DRFN\ProjSrc\SrcDrfn\Chart\ExControl\ExToolTipCtrl.cpp
; File D:\git\src\IBK\IBK_DRFN\ProjSrc\SrcDrfn\Chart\ExControl\Include\LoadHelper.h
; File D:\git\src\IBK\IBK_DRFN\ProjSrc\SrcDrfn\Chart\ExControl\ExToolTipCtrl.cpp
;	COMDAT ?UpdateTipText@CExToolTipCtrl@@QAEXIPAVCWnd@@I@Z
_TEXT	SEGMENT
_nIDText$ = 8						; size = 4
_pWnd$ = 12						; size = 4
_nIDTool$ = 16						; size = 4
?UpdateTipText@CExToolTipCtrl@@QAEXIPAVCWnd@@I@Z PROC	; CExToolTipCtrl::UpdateTipText, COMDAT
; _this$ = ecx

; 44   : {

  00000	55		 push	 ebp
  00001	8b ec		 mov	 ebp, esp

; 45   : 	m_pLoader->UpdateTipText(nIDText, pWnd, nIDTool);

  00003	8b 41 04	 mov	 eax, DWORD PTR [ecx+4]
; File D:\git\src\IBK\IBK_DRFN\ProjSrc\SrcDrfn\Chart\ExControl\Include\LoadHelper.h

; 3330 : 		if(!m_hLib)

  00006	83 78 04 00	 cmp	 DWORD PTR [eax+4], 0
  0000a	74 1a		 je	 SHORT $LN3@UpdateTipT

; 3331 : 			return;
; 3332 : 
; 3333 : 		pUpdateTipID(m_lpPointer, nIDText, pWnd, nIDTool);

  0000c	ff 75 10	 push	 DWORD PTR _nIDTool$[ebp]
  0000f	ff 75 0c	 push	 DWORD PTR _pWnd$[ebp]
  00012	ff 75 08	 push	 DWORD PTR _nIDText$[ebp]
  00015	ff b0 0c 01 00
	00		 push	 DWORD PTR [eax+268]
  0001b	8b 80 74 01 00
	00		 mov	 eax, DWORD PTR [eax+372]
  00021	ff d0		 call	 eax
  00023	83 c4 10	 add	 esp, 16			; 00000010H
$LN3@UpdateTipT:
; File D:\git\src\IBK\IBK_DRFN\ProjSrc\SrcDrfn\Chart\ExControl\ExToolTipCtrl.cpp

; 46   : }

  00026	5d		 pop	 ebp
  00027	c2 0c 00	 ret	 12			; 0000000cH
?UpdateTipText@CExToolTipCtrl@@QAEXIPAVCWnd@@I@Z ENDP	; CExToolTipCtrl::UpdateTipText
_TEXT	ENDS
; Function compile flags: /Ogtp
; File D:\git\src\IBK\IBK_DRFN\ProjSrc\SrcDrfn\Chart\ExControl\ExToolTipCtrl.cpp
; File D:\git\src\IBK\IBK_DRFN\ProjSrc\SrcDrfn\Chart\ExControl\Include\LoadHelper.h
; File D:\git\src\IBK\IBK_DRFN\ProjSrc\SrcDrfn\Chart\ExControl\ExToolTipCtrl.cpp
;	COMDAT ?UpdateTipText@CExToolTipCtrl@@QAEXPBDPAVCWnd@@I@Z
_TEXT	SEGMENT
_lpszText$ = 8						; size = 4
_pWnd$ = 12						; size = 4
_nIDTool$ = 16						; size = 4
?UpdateTipText@CExToolTipCtrl@@QAEXPBDPAVCWnd@@I@Z PROC	; CExToolTipCtrl::UpdateTipText, COMDAT
; _this$ = ecx

; 39   : {

  00000	55		 push	 ebp
  00001	8b ec		 mov	 ebp, esp

; 40   : 	m_pLoader->UpdateTipText(lpszText, pWnd, nIDTool);

  00003	8b 41 04	 mov	 eax, DWORD PTR [ecx+4]
; File D:\git\src\IBK\IBK_DRFN\ProjSrc\SrcDrfn\Chart\ExControl\Include\LoadHelper.h

; 3322 : 		if(!m_hLib)

  00006	83 78 04 00	 cmp	 DWORD PTR [eax+4], 0
  0000a	74 1a		 je	 SHORT $LN3@UpdateTipT

; 3323 : 			return;
; 3324 : 
; 3325 : 		pUpdateTipText(m_lpPointer, lpszText, pWnd, nIDTool);

  0000c	ff 75 10	 push	 DWORD PTR _nIDTool$[ebp]
  0000f	ff 75 0c	 push	 DWORD PTR _pWnd$[ebp]
  00012	ff 75 08	 push	 DWORD PTR _lpszText$[ebp]
  00015	ff b0 0c 01 00
	00		 push	 DWORD PTR [eax+268]
  0001b	8b 80 78 01 00
	00		 mov	 eax, DWORD PTR [eax+376]
  00021	ff d0		 call	 eax
  00023	83 c4 10	 add	 esp, 16			; 00000010H
$LN3@UpdateTipT:
; File D:\git\src\IBK\IBK_DRFN\ProjSrc\SrcDrfn\Chart\ExControl\ExToolTipCtrl.cpp

; 41   : }

  00026	5d		 pop	 ebp
  00027	c2 0c 00	 ret	 12			; 0000000cH
?UpdateTipText@CExToolTipCtrl@@QAEXPBDPAVCWnd@@I@Z ENDP	; CExToolTipCtrl::UpdateTipText
_TEXT	ENDS
; Function compile flags: /Ogtp
; File D:\git\src\IBK\IBK_DRFN\ProjSrc\SrcDrfn\Chart\ExControl\ExToolTipCtrl.cpp
; File D:\git\src\IBK\IBK_DRFN\ProjSrc\SrcDrfn\Chart\ExControl\Include\LoadHelper.h
; File D:\git\src\IBK\IBK_DRFN\ProjSrc\SrcDrfn\Chart\ExControl\ExToolTipCtrl.cpp
;	COMDAT ?Activate@CExToolTipCtrl@@QAEXH@Z
_TEXT	SEGMENT
_bActivate$ = 8						; size = 4
?Activate@CExToolTipCtrl@@QAEXH@Z PROC			; CExToolTipCtrl::Activate, COMDAT
; _this$ = ecx

; 34   : {

  00000	55		 push	 ebp
  00001	8b ec		 mov	 ebp, esp

; 35   : 	m_pLoader->Activate(bActivate);

  00003	8b 41 04	 mov	 eax, DWORD PTR [ecx+4]
; File D:\git\src\IBK\IBK_DRFN\ProjSrc\SrcDrfn\Chart\ExControl\Include\LoadHelper.h

; 3314 : 		if(!m_hLib)

  00006	83 78 04 00	 cmp	 DWORD PTR [eax+4], 0
  0000a	74 14		 je	 SHORT $LN3@Activate

; 3315 : 			return;
; 3316 : 
; 3317 : 		pActivate(m_lpPointer, bActivate);

  0000c	ff 75 08	 push	 DWORD PTR _bActivate$[ebp]
  0000f	ff b0 0c 01 00
	00		 push	 DWORD PTR [eax+268]
  00015	8b 80 7c 01 00
	00		 mov	 eax, DWORD PTR [eax+380]
  0001b	ff d0		 call	 eax
  0001d	83 c4 08	 add	 esp, 8
$LN3@Activate:
; File D:\git\src\IBK\IBK_DRFN\ProjSrc\SrcDrfn\Chart\ExControl\ExToolTipCtrl.cpp

; 36   : }

  00020	5d		 pop	 ebp
  00021	c2 04 00	 ret	 4
?Activate@CExToolTipCtrl@@QAEXH@Z ENDP			; CExToolTipCtrl::Activate
_TEXT	ENDS
; Function compile flags: /Ogtp
; File D:\git\src\IBK\IBK_DRFN\ProjSrc\SrcDrfn\Chart\ExControl\ExToolTipCtrl.cpp
; File D:\git\src\IBK\IBK_DRFN\ProjSrc\SrcDrfn\Chart\ExControl\Include\LoadHelper.h
; File D:\git\src\IBK\IBK_DRFN\ProjSrc\SrcDrfn\Chart\ExControl\ExToolTipCtrl.cpp
; File D:\git\src\IBK\IBK_DRFN\ProjSrc\SrcDrfn\Chart\ExControl\Include\LoadHelper.h
; File D:\git\src\IBK\IBK_DRFN\ProjSrc\SrcDrfn\Chart\ExControl\ExToolTipCtrl.cpp
;	COMDAT ?AddTool@CExToolTipCtrl@@QAEHPAVCWnd@@IPBUtagRECT@@I@Z
_TEXT	SEGMENT
_pWnd$ = 8						; size = 4
_nIDText$ = 12						; size = 4
_lpRectTool$ = 16					; size = 4
_nIDTool$ = 20						; size = 4
?AddTool@CExToolTipCtrl@@QAEHPAVCWnd@@IPBUtagRECT@@I@Z PROC ; CExToolTipCtrl::AddTool, COMDAT
; _this$ = ecx

; 29   : {

  00000	55		 push	 ebp
  00001	8b ec		 mov	 ebp, esp

; 30   : 	return m_pLoader->AddTool(pWnd, nIDText, lpRectTool, nIDTool);

  00003	8b 41 04	 mov	 eax, DWORD PTR [ecx+4]
; File D:\git\src\IBK\IBK_DRFN\ProjSrc\SrcDrfn\Chart\ExControl\Include\LoadHelper.h

; 3306 : 		if(!m_hLib)

  00006	83 78 04 00	 cmp	 DWORD PTR [eax+4], 0
  0000a	75 06		 jne	 SHORT $LN4@AddTool
; File D:\git\src\IBK\IBK_DRFN\ProjSrc\SrcDrfn\Chart\ExControl\ExToolTipCtrl.cpp

; 30   : 	return m_pLoader->AddTool(pWnd, nIDText, lpRectTool, nIDTool);

  0000c	33 c0		 xor	 eax, eax

; 31   : }

  0000e	5d		 pop	 ebp
  0000f	c2 10 00	 ret	 16			; 00000010H
$LN4@AddTool:
; File D:\git\src\IBK\IBK_DRFN\ProjSrc\SrcDrfn\Chart\ExControl\Include\LoadHelper.h

; 3309 : 		return pAddToolID(m_lpPointer, pWnd, nIDText, lpRectTool, nIDTool);

  00012	ff 75 14	 push	 DWORD PTR _nIDTool$[ebp]
  00015	ff 75 10	 push	 DWORD PTR _lpRectTool$[ebp]
  00018	ff 75 0c	 push	 DWORD PTR _nIDText$[ebp]
  0001b	ff 75 08	 push	 DWORD PTR _pWnd$[ebp]
  0001e	ff b0 0c 01 00
	00		 push	 DWORD PTR [eax+268]
  00024	8b 80 80 01 00
	00		 mov	 eax, DWORD PTR [eax+384]
  0002a	ff d0		 call	 eax
  0002c	83 c4 14	 add	 esp, 20			; 00000014H
; File D:\git\src\IBK\IBK_DRFN\ProjSrc\SrcDrfn\Chart\ExControl\ExToolTipCtrl.cpp

; 31   : }

  0002f	5d		 pop	 ebp
  00030	c2 10 00	 ret	 16			; 00000010H
?AddTool@CExToolTipCtrl@@QAEHPAVCWnd@@IPBUtagRECT@@I@Z ENDP ; CExToolTipCtrl::AddTool
_TEXT	ENDS
; Function compile flags: /Ogtp
; File D:\git\src\IBK\IBK_DRFN\ProjSrc\SrcDrfn\Chart\ExControl\ExToolTipCtrl.cpp
; File D:\git\src\IBK\IBK_DRFN\ProjSrc\SrcDrfn\Chart\ExControl\Include\LoadHelper.h
; File D:\git\src\IBK\IBK_DRFN\ProjSrc\SrcDrfn\Chart\ExControl\ExToolTipCtrl.cpp
; File D:\git\src\IBK\IBK_DRFN\ProjSrc\SrcDrfn\Chart\ExControl\Include\LoadHelper.h
; File D:\git\src\IBK\IBK_DRFN\ProjSrc\SrcDrfn\Chart\ExControl\ExToolTipCtrl.cpp
;	COMDAT ?AddTool@CExToolTipCtrl@@QAEHPAVCWnd@@PBDPBUtagRECT@@I@Z
_TEXT	SEGMENT
_pWnd$ = 8						; size = 4
_lpszText$ = 12						; size = 4
_lpRectTool$ = 16					; size = 4
_nIDTool$ = 20						; size = 4
?AddTool@CExToolTipCtrl@@QAEHPAVCWnd@@PBDPBUtagRECT@@I@Z PROC ; CExToolTipCtrl::AddTool, COMDAT
; _this$ = ecx

; 24   : {

  00000	55		 push	 ebp
  00001	8b ec		 mov	 ebp, esp

; 25   : 	return m_pLoader->AddTool(pWnd, lpszText, lpRectTool, nIDTool);

  00003	8b 41 04	 mov	 eax, DWORD PTR [ecx+4]
; File D:\git\src\IBK\IBK_DRFN\ProjSrc\SrcDrfn\Chart\ExControl\Include\LoadHelper.h

; 3298 : 		if(!m_hLib)

  00006	83 78 04 00	 cmp	 DWORD PTR [eax+4], 0
  0000a	75 06		 jne	 SHORT $LN4@AddTool
; File D:\git\src\IBK\IBK_DRFN\ProjSrc\SrcDrfn\Chart\ExControl\ExToolTipCtrl.cpp

; 25   : 	return m_pLoader->AddTool(pWnd, lpszText, lpRectTool, nIDTool);

  0000c	33 c0		 xor	 eax, eax

; 26   : }

  0000e	5d		 pop	 ebp
  0000f	c2 10 00	 ret	 16			; 00000010H
$LN4@AddTool:
; File D:\git\src\IBK\IBK_DRFN\ProjSrc\SrcDrfn\Chart\ExControl\Include\LoadHelper.h

; 3301 : 		return pAddToolText(m_lpPointer, pWnd, lpszText, lpRectTool, nIDTool);

  00012	ff 75 14	 push	 DWORD PTR _nIDTool$[ebp]
  00015	ff 75 10	 push	 DWORD PTR _lpRectTool$[ebp]
  00018	ff 75 0c	 push	 DWORD PTR _lpszText$[ebp]
  0001b	ff 75 08	 push	 DWORD PTR _pWnd$[ebp]
  0001e	ff b0 0c 01 00
	00		 push	 DWORD PTR [eax+268]
  00024	8b 80 84 01 00
	00		 mov	 eax, DWORD PTR [eax+388]
  0002a	ff d0		 call	 eax
  0002c	83 c4 14	 add	 esp, 20			; 00000014H
; File D:\git\src\IBK\IBK_DRFN\ProjSrc\SrcDrfn\Chart\ExControl\ExToolTipCtrl.cpp

; 26   : }

  0002f	5d		 pop	 ebp
  00030	c2 10 00	 ret	 16			; 00000010H
?AddTool@CExToolTipCtrl@@QAEHPAVCWnd@@PBDPBUtagRECT@@I@Z ENDP ; CExToolTipCtrl::AddTool
_TEXT	ENDS
; Function compile flags: /Ogtp
; File D:\git\src\IBK\IBK_DRFN\ProjSrc\SrcDrfn\Chart\ExControl\ExToolTipCtrl.cpp
; File D:\git\src\IBK\IBK_DRFN\ProjSrc\SrcDrfn\Chart\ExControl\Include\LoadHelper.h
; File D:\git\src\IBK\IBK_DRFN\ProjSrc\SrcDrfn\Chart\ExControl\Include\BaseLoadHelper.h
; File D:\git\src\IBK\IBK_DRFN\ProjSrc\SrcDrfn\Chart\ExControl\ExToolTipCtrl.cpp
;	COMDAT ??1CExToolTipCtrl@@UAE@XZ
_TEXT	SEGMENT
__$EHRec$ = -12						; size = 12
??1CExToolTipCtrl@@UAE@XZ PROC				; CExToolTipCtrl::~CExToolTipCtrl, COMDAT
; _this$ = ecx

; 19   : {

  00000	55		 push	 ebp
  00001	8b ec		 mov	 ebp, esp
  00003	6a ff		 push	 -1
  00005	68 00 00 00 00	 push	 __ehhandler$??1CExToolTipCtrl@@UAE@XZ
  0000a	64 a1 00 00 00
	00		 mov	 eax, DWORD PTR fs:0
  00010	50		 push	 eax
  00011	56		 push	 esi
  00012	a1 00 00 00 00	 mov	 eax, DWORD PTR ___security_cookie
  00017	33 c5		 xor	 eax, ebp
  00019	50		 push	 eax
  0001a	8d 45 f4	 lea	 eax, DWORD PTR __$EHRec$[ebp]
  0001d	64 a3 00 00 00
	00		 mov	 DWORD PTR fs:0, eax

; 20   : 	delete m_pLoader;

  00023	8b 71 04	 mov	 esi, DWORD PTR [ecx+4]
  00026	c7 01 00 00 00
	00		 mov	 DWORD PTR [ecx], OFFSET ??_7CExToolTipCtrl@@6B@
  0002c	85 f6		 test	 esi, esi
  0002e	74 4e		 je	 SHORT $LN6@CExToolTip
; File D:\git\src\IBK\IBK_DRFN\ProjSrc\SrcDrfn\Chart\ExControl\Include\LoadHelper.h

; 3206 : 		if(m_hLib)

  00030	8b 46 04	 mov	 eax, DWORD PTR [esi+4]
  00033	c7 45 fc 00 00
	00 00		 mov	 DWORD PTR __$EHRec$[ebp+8], 0
  0003a	c7 06 00 00 00
	00		 mov	 DWORD PTR [esi], OFFSET ??_7CLoaderToolTipCtrl@@6B@
  00040	85 c0		 test	 eax, eax
  00042	74 14		 je	 SHORT $LN9@CExToolTip

; 3207 : 			pExitToolTipCtrl(m_lpPointer);

  00044	ff b6 0c 01 00
	00		 push	 DWORD PTR [esi+268]
  0004a	8b 86 18 01 00
	00		 mov	 eax, DWORD PTR [esi+280]
  00050	ff d0		 call	 eax
  00052	8b 46 04	 mov	 eax, DWORD PTR [esi+4]
  00055	83 c4 04	 add	 esp, 4
$LN9@CExToolTip:
; File D:\git\src\IBK\IBK_DRFN\ProjSrc\SrcDrfn\Chart\ExControl\Include\BaseLoadHelper.h

; 13   : 	{

  00058	c7 06 00 00 00
	00		 mov	 DWORD PTR [esi], OFFSET ??_7CExLoadLib@@6B@

; 53   : 		if(!m_hLib)

  0005e	85 c0		 test	 eax, eax
  00060	74 0e		 je	 SHORT $LN14@CExToolTip

; 54   : 			return TRUE;
; 55   : 
; 56   : 		BOOL bResult = ::FreeLibrary(m_hLib);

  00062	50		 push	 eax
  00063	ff 15 00 00 00
	00		 call	 DWORD PTR __imp__FreeLibrary@4

; 57   : 		
; 58   : 		m_hLib = NULL;

  00069	c7 46 04 00 00
	00 00		 mov	 DWORD PTR [esi+4], 0
$LN14@CExToolTip:
  00070	68 88 01 00 00	 push	 392			; 00000188H
  00075	56		 push	 esi
  00076	e8 00 00 00 00	 call	 ??3@YAXPAXI@Z		; operator delete
  0007b	83 c4 08	 add	 esp, 8
$LN6@CExToolTip:
; File D:\git\src\IBK\IBK_DRFN\ProjSrc\SrcDrfn\Chart\ExControl\ExToolTipCtrl.cpp

; 21   : }

  0007e	8b 4d f4	 mov	 ecx, DWORD PTR __$EHRec$[ebp]
  00081	64 89 0d 00 00
	00 00		 mov	 DWORD PTR fs:0, ecx
  00088	59		 pop	 ecx
  00089	5e		 pop	 esi
  0008a	8b e5		 mov	 esp, ebp
  0008c	5d		 pop	 ebp
  0008d	c3		 ret	 0
  0008e	cc		 int	 3
  0008f	cc		 int	 3
  00090	cc		 int	 3
  00091	cc		 int	 3
  00092	cc		 int	 3
_TEXT	ENDS
;	COMDAT text$x
text$x	SEGMENT
__ehhandler$??1CExToolTipCtrl@@UAE@XZ:
  00000	90		 npad	 1
  00001	90		 npad	 1
  00002	8b 54 24 08	 mov	 edx, DWORD PTR [esp+8]
  00006	8d 42 0c	 lea	 eax, DWORD PTR [edx+12]
  00009	8b 4a f8	 mov	 ecx, DWORD PTR [edx-8]
  0000c	33 c8		 xor	 ecx, eax
  0000e	e8 00 00 00 00	 call	 @__security_check_cookie@4
  00013	b8 00 00 00 00	 mov	 eax, OFFSET __ehfuncinfo$??1CExToolTipCtrl@@UAE@XZ
  00018	e9 00 00 00 00	 jmp	 ___CxxFrameHandler3
text$x	ENDS
??1CExToolTipCtrl@@UAE@XZ ENDP				; CExToolTipCtrl::~CExToolTipCtrl
; Function compile flags: /Ogtp
; File D:\git\src\IBK\IBK_DRFN\ProjSrc\SrcDrfn\Chart\ExControl\ExToolTipCtrl.cpp
;	COMDAT ??0CExToolTipCtrl@@QAE@XZ
_TEXT	SEGMENT
$T2 = -16						; size = 4
__$EHRec$ = -12						; size = 12
??0CExToolTipCtrl@@QAE@XZ PROC				; CExToolTipCtrl::CExToolTipCtrl, COMDAT
; _this$ = ecx

; 14   : {

  00000	55		 push	 ebp
  00001	8b ec		 mov	 ebp, esp
  00003	6a ff		 push	 -1
  00005	68 00 00 00 00	 push	 __ehhandler$??0CExToolTipCtrl@@QAE@XZ
  0000a	64 a1 00 00 00
	00		 mov	 eax, DWORD PTR fs:0
  00010	50		 push	 eax
  00011	51		 push	 ecx
  00012	56		 push	 esi
  00013	a1 00 00 00 00	 mov	 eax, DWORD PTR ___security_cookie
  00018	33 c5		 xor	 eax, ebp
  0001a	50		 push	 eax
  0001b	8d 45 f4	 lea	 eax, DWORD PTR __$EHRec$[ebp]
  0001e	64 a3 00 00 00
	00		 mov	 DWORD PTR fs:0, eax
  00024	8b f1		 mov	 esi, ecx

; 15   : 	m_pLoader = new CLoaderToolTipCtrl(this);

  00026	68 88 01 00 00	 push	 392			; 00000188H
  0002b	c7 06 00 00 00
	00		 mov	 DWORD PTR [esi], OFFSET ??_7CExToolTipCtrl@@6B@
  00031	e8 00 00 00 00	 call	 ??2@YAPAXI@Z		; operator new
  00036	83 c4 04	 add	 esp, 4
  00039	89 45 f0	 mov	 DWORD PTR $T2[ebp], eax
  0003c	c7 45 fc 00 00
	00 00		 mov	 DWORD PTR __$EHRec$[ebp+8], 0
  00043	85 c0		 test	 eax, eax
  00045	74 1f		 je	 SHORT $LN3@CExToolTip
  00047	6a 00		 push	 0
  00049	56		 push	 esi
  0004a	8b c8		 mov	 ecx, eax
  0004c	e8 00 00 00 00	 call	 ??0CLoaderToolTipCtrl@@QAE@PAXPBD@Z ; CLoaderToolTipCtrl::CLoaderToolTipCtrl
  00051	89 46 04	 mov	 DWORD PTR [esi+4], eax

; 16   : }

  00054	8b c6		 mov	 eax, esi
  00056	8b 4d f4	 mov	 ecx, DWORD PTR __$EHRec$[ebp]
  00059	64 89 0d 00 00
	00 00		 mov	 DWORD PTR fs:0, ecx
  00060	59		 pop	 ecx
  00061	5e		 pop	 esi
  00062	8b e5		 mov	 esp, ebp
  00064	5d		 pop	 ebp
  00065	c3		 ret	 0
$LN3@CExToolTip:

; 15   : 	m_pLoader = new CLoaderToolTipCtrl(this);

  00066	c7 46 04 00 00
	00 00		 mov	 DWORD PTR [esi+4], 0

; 16   : }

  0006d	8b c6		 mov	 eax, esi
  0006f	8b 4d f4	 mov	 ecx, DWORD PTR __$EHRec$[ebp]
  00072	64 89 0d 00 00
	00 00		 mov	 DWORD PTR fs:0, ecx
  00079	59		 pop	 ecx
  0007a	5e		 pop	 esi
  0007b	8b e5		 mov	 esp, ebp
  0007d	5d		 pop	 ebp
  0007e	c3		 ret	 0
_TEXT	ENDS
;	COMDAT text$x
text$x	SEGMENT
__unwindfunclet$??0CExToolTipCtrl@@QAE@XZ$0:
  00000	68 88 01 00 00	 push	 392			; 00000188H
  00005	8b 45 f0	 mov	 eax, DWORD PTR $T2[ebp]
  00008	50		 push	 eax
  00009	e8 00 00 00 00	 call	 ??3@YAXPAXI@Z		; operator delete
  0000e	83 c4 08	 add	 esp, 8
  00011	c3		 ret	 0
  00012	cc		 int	 3
  00013	cc		 int	 3
  00014	cc		 int	 3
  00015	cc		 int	 3
  00016	cc		 int	 3
__ehhandler$??0CExToolTipCtrl@@QAE@XZ:
  00017	90		 npad	 1
  00018	90		 npad	 1
  00019	8b 54 24 08	 mov	 edx, DWORD PTR [esp+8]
  0001d	8d 42 0c	 lea	 eax, DWORD PTR [edx+12]
  00020	8b 4a f4	 mov	 ecx, DWORD PTR [edx-12]
  00023	33 c8		 xor	 ecx, eax
  00025	e8 00 00 00 00	 call	 @__security_check_cookie@4
  0002a	b8 00 00 00 00	 mov	 eax, OFFSET __ehfuncinfo$??0CExToolTipCtrl@@QAE@XZ
  0002f	e9 00 00 00 00	 jmp	 ___CxxFrameHandler3
text$x	ENDS
??0CExToolTipCtrl@@QAE@XZ ENDP				; CExToolTipCtrl::CExToolTipCtrl
; Function compile flags: /Ogtp
; File C:\Program Files (x86)\Windows Kits\10\Include\10.0.22000.0\ucrt\stdio.h
;	COMDAT _sprintf
_TEXT	SEGMENT
__Buffer$ = 8						; size = 4
__Format$ = 12						; size = 4
_sprintf PROC						; COMDAT

; 1771 :     {

  00000	55		 push	 ebp
  00001	8b ec		 mov	 ebp, esp

; 1392 :         int const _Result = __stdio_common_vsprintf(

  00003	8d 45 10	 lea	 eax, DWORD PTR __Format$[ebp+4]
  00006	50		 push	 eax
  00007	6a 00		 push	 0
  00009	ff 75 0c	 push	 DWORD PTR __Format$[ebp]
  0000c	6a ff		 push	 -1
  0000e	ff 75 08	 push	 DWORD PTR __Buffer$[ebp]
  00011	e8 00 00 00 00	 call	 ___local_stdio_printf_options
  00016	8b 08		 mov	 ecx, DWORD PTR [eax]
  00018	ff 70 04	 push	 DWORD PTR [eax+4]
  0001b	83 c9 01	 or	 ecx, 1
  0001e	51		 push	 ecx
  0001f	ff 15 00 00 00
	00		 call	 DWORD PTR __imp____stdio_common_vsprintf

; 1393 :             _CRT_INTERNAL_LOCAL_PRINTF_OPTIONS | _CRT_INTERNAL_PRINTF_LEGACY_VSPRINTF_NULL_TERMINATION,
; 1394 :             _Buffer, _BufferCount, _Format, _Locale, _ArgList);
; 1395 : 
; 1396 :         return _Result < 0 ? -1 : _Result;

  00025	83 c9 ff	 or	 ecx, -1
  00028	83 c4 1c	 add	 esp, 28			; 0000001cH
  0002b	85 c0		 test	 eax, eax
  0002d	0f 48 c1	 cmovs	 eax, ecx

; 1772 :         int _Result;
; 1773 :         va_list _ArgList;
; 1774 :         __crt_va_start(_ArgList, _Format);
; 1775 : 
; 1776 :         _Result = _vsprintf_l(_Buffer, _Format, NULL, _ArgList);
; 1777 : 
; 1778 :         __crt_va_end(_ArgList);
; 1779 :         return _Result;
; 1780 :     }

  00030	5d		 pop	 ebp
  00031	c3		 ret	 0
_sprintf ENDP
_TEXT	ENDS
; Function compile flags: /Ogtp
; File C:\Program Files (x86)\Windows Kits\10\Include\10.0.22000.0\ucrt\corecrt_stdio_config.h
;	COMDAT ___local_stdio_printf_options
_TEXT	SEGMENT
___local_stdio_printf_options PROC			; COMDAT

; 91   :         static unsigned __int64 _OptionsStorage;
; 92   :         return &_OptionsStorage;

  00000	b8 00 00 00 00	 mov	 eax, OFFSET ?_OptionsStorage@?1??__local_stdio_printf_options@@9@4_KA ; `__local_stdio_printf_options'::`2'::_OptionsStorage

; 93   :     }

  00005	c3		 ret	 0
___local_stdio_printf_options ENDP
_TEXT	ENDS
; Function compile flags: /Ogtp
; File D:\git\src\IBK\IBK_DRFN\ProjSrc\SrcDrfn\Chart\ExControl\ExToolTipCtrl.cpp
;	COMDAT ?__empty_global_delete@@YAXPAXI@Z
_TEXT	SEGMENT
___formal$ = 8						; size = 4
___formal$ = 12						; size = 4
?__empty_global_delete@@YAXPAXI@Z PROC			; __empty_global_delete, COMDAT

  00000	c2 00 00	 ret	 0
?__empty_global_delete@@YAXPAXI@Z ENDP			; __empty_global_delete
_TEXT	ENDS
; Function compile flags: /Ogtp
; File D:\git\src\IBK\IBK_DRFN\ProjSrc\SrcDrfn\Chart\ExControl\ExToolTipCtrl.cpp
;	COMDAT ?__empty_global_delete@@YAXPAX@Z
_TEXT	SEGMENT
___formal$ = 8						; size = 4
?__empty_global_delete@@YAXPAX@Z PROC			; __empty_global_delete, COMDAT

  00000	c2 00 00	 ret	 0
?__empty_global_delete@@YAXPAX@Z ENDP			; __empty_global_delete
_TEXT	ENDS
END
