; Listing generated by Microsoft (R) Optimizing Compiler Version 19.29.30145.0 

	TITLE	D:\git\src\IBK\IBK_DRFN\#DRfn-CS\_Obj\PacketData\PacketImplementation.obj
	.686P
	.XMM
	include listing.inc
	.model	flat

INCLUDELIB MSVCRT
INCLUDELIB OLDNAMES

PUBLIC	?__empty_global_delete@@YAXPAX@Z		; __empty_global_delete
PUBLIC	?__empty_global_delete@@YAXPAXI@Z		; __empty_global_delete
PUBLIC	??1CObject@@UAE@XZ				; CObject::~CObject
PUBLIC	?Serialize@CObject@@UAEXAAVCArchive@@@Z		; CObject::Serialize
PUBLIC	?AssertValid@CObject@@UBEXXZ			; CObject::AssertValid
PUBLIC	?Dump@CObject@@UBEXAAVCDumpContext@@@Z		; CObject::Dump
PUBLIC	??0?$CList@V?$CStringT@DV?$StrTraitMFC_DLL@DV?$ChTraitsCRT@D@ATL@@@@@ATL@@V12@@@QAE@H@Z ; CList<ATL::CStringT<char,StrTraitMFC_DLL<char,ATL::ChTraitsCRT<char> > >,ATL::CStringT<char,StrTraitMFC_DLL<char,ATL::ChTraitsCRT<char> > > >::CList<ATL::CStringT<char,StrTraitMFC_DLL<char,ATL::ChTraitsCRT<char> > >,ATL::CStringT<char,StrTraitMFC_DLL<char,ATL::ChTraitsCRT<char> > > >
PUBLIC	?RemoveHead@?$CList@V?$CStringT@DV?$StrTraitMFC_DLL@DV?$ChTraitsCRT@D@ATL@@@@@ATL@@V12@@@QAE?AV?$CStringT@DV?$StrTraitMFC_DLL@DV?$ChTraitsCRT@D@ATL@@@@@ATL@@XZ ; CList<ATL::CStringT<char,StrTraitMFC_DLL<char,ATL::ChTraitsCRT<char> > >,ATL::CStringT<char,StrTraitMFC_DLL<char,ATL::ChTraitsCRT<char> > > >::RemoveHead
PUBLIC	?AddHead@?$CList@V?$CStringT@DV?$StrTraitMFC_DLL@DV?$ChTraitsCRT@D@ATL@@@@@ATL@@V12@@@QAEPAU__POSITION@@V?$CStringT@DV?$StrTraitMFC_DLL@DV?$ChTraitsCRT@D@ATL@@@@@ATL@@@Z ; CList<ATL::CStringT<char,StrTraitMFC_DLL<char,ATL::ChTraitsCRT<char> > >,ATL::CStringT<char,StrTraitMFC_DLL<char,ATL::ChTraitsCRT<char> > > >::AddHead
PUBLIC	?AddTail@?$CList@V?$CStringT@DV?$StrTraitMFC_DLL@DV?$ChTraitsCRT@D@ATL@@@@@ATL@@V12@@@QAEPAU__POSITION@@V?$CStringT@DV?$StrTraitMFC_DLL@DV?$ChTraitsCRT@D@ATL@@@@@ATL@@@Z ; CList<ATL::CStringT<char,StrTraitMFC_DLL<char,ATL::ChTraitsCRT<char> > >,ATL::CStringT<char,StrTraitMFC_DLL<char,ATL::ChTraitsCRT<char> > > >::AddTail
PUBLIC	?RemoveAll@?$CList@V?$CStringT@DV?$StrTraitMFC_DLL@DV?$ChTraitsCRT@D@ATL@@@@@ATL@@V12@@@QAEXXZ ; CList<ATL::CStringT<char,StrTraitMFC_DLL<char,ATL::ChTraitsCRT<char> > >,ATL::CStringT<char,StrTraitMFC_DLL<char,ATL::ChTraitsCRT<char> > > >::RemoveAll
PUBLIC	?NewNode@?$CList@V?$CStringT@DV?$StrTraitMFC_DLL@DV?$ChTraitsCRT@D@ATL@@@@@ATL@@V12@@@IAEPAUCNode@1@PAU21@0@Z ; CList<ATL::CStringT<char,StrTraitMFC_DLL<char,ATL::ChTraitsCRT<char> > >,ATL::CStringT<char,StrTraitMFC_DLL<char,ATL::ChTraitsCRT<char> > > >::NewNode
PUBLIC	?FreeNode@?$CList@V?$CStringT@DV?$StrTraitMFC_DLL@DV?$ChTraitsCRT@D@ATL@@@@@ATL@@V12@@@IAEXPAUCNode@1@@Z ; CList<ATL::CStringT<char,StrTraitMFC_DLL<char,ATL::ChTraitsCRT<char> > >,ATL::CStringT<char,StrTraitMFC_DLL<char,ATL::ChTraitsCRT<char> > > >::FreeNode
PUBLIC	??1?$CList@V?$CStringT@DV?$StrTraitMFC_DLL@DV?$ChTraitsCRT@D@ATL@@@@@ATL@@V12@@@UAE@XZ ; CList<ATL::CStringT<char,StrTraitMFC_DLL<char,ATL::ChTraitsCRT<char> > >,ATL::CStringT<char,StrTraitMFC_DLL<char,ATL::ChTraitsCRT<char> > > >::~CList<ATL::CStringT<char,StrTraitMFC_DLL<char,ATL::ChTraitsCRT<char> > >,ATL::CStringT<char,StrTraitMFC_DLL<char,ATL::ChTraitsCRT<char> > > >
PUBLIC	?Serialize@?$CList@V?$CStringT@DV?$StrTraitMFC_DLL@DV?$ChTraitsCRT@D@ATL@@@@@ATL@@V12@@@UAEXAAVCArchive@@@Z ; CList<ATL::CStringT<char,StrTraitMFC_DLL<char,ATL::ChTraitsCRT<char> > >,ATL::CStringT<char,StrTraitMFC_DLL<char,ATL::ChTraitsCRT<char> > > >::Serialize
PUBLIC	??_G?$CList@V?$CStringT@DV?$StrTraitMFC_DLL@DV?$ChTraitsCRT@D@ATL@@@@@ATL@@V12@@@UAEPAXI@Z ; CList<ATL::CStringT<char,StrTraitMFC_DLL<char,ATL::ChTraitsCRT<char> > >,ATL::CStringT<char,StrTraitMFC_DLL<char,ATL::ChTraitsCRT<char> > > >::`scalar deleting destructor'
PUBLIC	?GetIndex@CBracket@@QBEHXZ			; CBracket::GetIndex
PUBLIC	?GetDate@CBracket@@QBEHXZ			; CBracket::GetDate
PUBLIC	?GetItem@CBracket@@QBEPBDXZ			; CBracket::GetItem
PUBLIC	??0CBracket@@QAE@ABV0@@Z			; CBracket::CBracket
PUBLIC	??4CBracket@@QAEAAV0@ABV0@@Z			; CBracket::operator=
PUBLIC	?GetPriceX100@CMPItem@@QBEHXZ			; CMPItem::GetPriceX100
PUBLIC	?GetVolume@CMPItem@@QBEKXZ			; CMPItem::GetVolume
PUBLIC	?GetBracketList@CMPItem@@QAEPAV?$CList@PAVCBracket@@PAV1@@@XZ ; CMPItem::GetBracketList
PUBLIC	?SetPrice@CMPItem@@QAEXH@Z			; CMPItem::SetPrice
PUBLIC	?AddVolume@CMPItem@@QAEXK@Z			; CMPItem::AddVolume
PUBLIC	?GetDate@CMProfile@@QBEHXZ			; CMProfile::GetDate
PUBLIC	?GetMPItemList@CMProfile@@QAEPAV?$CList@PAVCMPItem@@PAV1@@@XZ ; CMProfile::GetMPItemList
PUBLIC	?SetDate@CMProfile@@QAEXH@Z			; CMProfile::SetDate
PUBLIC	?IsEmpty@CMProfile@@QAEHXZ			; CMProfile::IsEmpty
PUBLIC	?GetLastPriceX100@CMProfile@@QBEHXZ		; CMProfile::GetLastPriceX100
PUBLIC	?SetLastPriceX100@CMProfile@@QAEXH@Z		; CMProfile::SetLastPriceX100
PUBLIC	?GetMarketProfileList@CMPPacket@@QAEPAV?$CList@PAVCMProfile@@PAV1@@@XZ ; CMPPacket::GetMarketProfileList
PUBLIC	?SetPriceUnitX100@CMPPacket@@QAEXH@Z		; CMPPacket::SetPriceUnitX100
PUBLIC	?GetPriceUnitX100@CMPPacket@@QBEHXZ		; CMPPacket::GetPriceUnitX100
PUBLIC	??0CPacketImplementation@@QAE@PAVCPacket@@PAVCPacketList@@V?$CStringT@DV?$StrTraitMFC_DLL@DV?$ChTraitsCRT@D@ATL@@@@@ATL@@222H_NH2@Z ; CPacketImplementation::CPacketImplementation
PUBLIC	??1CPacketImplementation@@UAE@XZ		; CPacketImplementation::~CPacketImplementation
PUBLIC	?RestoreMax@CPacketImplementation@@QAE_NXZ	; CPacketImplementation::RestoreMax
PUBLIC	?RestoreMin@CPacketImplementation@@QAE_NXZ	; CPacketImplementation::RestoreMin
PUBLIC	?RestoreMinMax@CPacketImplementation@@QAE_NXZ	; CPacketImplementation::RestoreMinMax
PUBLIC	?SetMax@CPacketImplementation@@QAE_NN@Z		; CPacketImplementation::SetMax
PUBLIC	?SetMin@CPacketImplementation@@QAE_NN@Z		; CPacketImplementation::SetMin
PUBLIC	?SetMinMax@CPacketImplementation@@QAE_NNN@Z	; CPacketImplementation::SetMinMax
PUBLIC	?SetMinMax@CPacketImplementation@@QAEHW4DATAINSERTTYPE@CPacketDataInfo@@VCPoint@@@Z ; CPacketImplementation::SetMinMax
PUBLIC	?GetMinMax@CPacketImplementation@@QAEHHHAAN0H@Z	; CPacketImplementation::GetMinMax
PUBLIC	?SetBaseData@CPacketImplementation@@QAEXABV?$CStringT@DV?$StrTraitMFC_DLL@DV?$ChTraitsCRT@D@ATL@@@@@ATL@@0H_N@Z ; CPacketImplementation::SetBaseData
PUBLIC	?SetYesOrNoBaseData@CPacketImplementation@@QAEX_N@Z ; CPacketImplementation::SetYesOrNoBaseData
PUBLIC	?SetAcceptFromServer@CPacketImplementation@@QAEX_N@Z ; CPacketImplementation::SetAcceptFromServer
PUBLIC	?IsTRData@CPacketImplementation@@QBE_NXZ	; CPacketImplementation::IsTRData
PUBLIC	?IsAcceptFromServer@CPacketImplementation@@QBE_NXZ ; CPacketImplementation::IsAcceptFromServer
PUBLIC	?IsZeroBasePacket@CPacketImplementation@@QBE_NXZ ; CPacketImplementation::IsZeroBasePacket
PUBLIC	?IsChangeRealData@CPacketImplementation@@QBE_NXZ ; CPacketImplementation::IsChangeRealData
PUBLIC	?GetLength@CPacketImplementation@@QAEHXZ	; CPacketImplementation::GetLength
PUBLIC	?GetCount@CPacketImplementation@@QBEHXZ		; CPacketImplementation::GetCount
PUBLIC	?GetDataCount@CPacketImplementation@@QAEHXZ	; CPacketImplementation::GetDataCount
PUBLIC	?GetMaxCount@CPacketImplementation@@QAEHXZ	; CPacketImplementation::GetMaxCount
PUBLIC	?GetFieldName@CPacketImplementation@@QAE?AV?$CStringT@DV?$StrTraitMFC_DLL@DV?$ChTraitsCRT@D@ATL@@@@@ATL@@XZ ; CPacketImplementation::GetFieldName
PUBLIC	?GetName@CPacketImplementation@@QAE?AV?$CStringT@DV?$StrTraitMFC_DLL@DV?$ChTraitsCRT@D@ATL@@@@@ATL@@XZ ; CPacketImplementation::GetName
PUBLIC	?GetPacketList@CPacketImplementation@@QAEPAVCPacketList@@XZ ; CPacketImplementation::GetPacketList
PUBLIC	?GetDatePacket@CPacketImplementation@@QAEPAVCPacket@@XZ ; CPacketImplementation::GetDatePacket
PUBLIC	?GetCommodityBondName@CPacketImplementation@@QBE?AW4COMMODITY_BOND_NAME@CPacketType@@XZ ; CPacketImplementation::GetCommodityBondName
PUBLIC	?SetCommodityBondName@CPacketImplementation@@QAEXW4COMMODITY_BOND_NAME@CPacketType@@@Z ; CPacketImplementation::SetCommodityBondName
PUBLIC	?GetIndexFromData@CPacketImplementation@@QAEHNV?$CStringT@DV?$StrTraitMFC_DLL@DV?$ChTraitsCRT@D@ATL@@@@@ATL@@@Z ; CPacketImplementation::GetIndexFromData
PUBLIC	?GetCurOrPrevIndexFromData@CPacketImplementation@@QBE_NNAAHAAN@Z ; CPacketImplementation::GetCurOrPrevIndexFromData
PUBLIC	?GetData@CPacketImplementation@@QBE_NHAAN@Z	; CPacketImplementation::GetData
PUBLIC	?GetData@CPacketImplementation@@QAENH@Z		; CPacketImplementation::GetData
PUBLIC	?GetStrData@CPacketImplementation@@QAE?AV?$CStringT@DV?$StrTraitMFC_DLL@DV?$ChTraitsCRT@D@ATL@@@@@ATL@@H@Z ; CPacketImplementation::GetStrData
PUBLIC	?GetDataPastandFuture@CPacketImplementation@@QAENH@Z ; CPacketImplementation::GetDataPastandFuture
PUBLIC	?GetDataPastandFuture@CPacketImplementation@@QAE_NHAAN@Z ; CPacketImplementation::GetDataPastandFuture
PUBLIC	?GetTimeInterval@CPacketImplementation@@QAEHXZ	; CPacketImplementation::GetTimeInterval
PUBLIC	?GetDateUnitType@CPacketImplementation@@QAEHXZ	; CPacketImplementation::GetDateUnitType
PUBLIC	?GetRealKeyName@CPacketImplementation@@QAE?AV?$CStringT@DV?$StrTraitMFC_DLL@DV?$ChTraitsCRT@D@ATL@@@@@ATL@@XZ ; CPacketImplementation::GetRealKeyName
PUBLIC	?GetRealFieldName@CPacketImplementation@@QAE?AV?$CStringT@DV?$StrTraitMFC_DLL@DV?$ChTraitsCRT@D@ATL@@@@@ATL@@XZ ; CPacketImplementation::GetRealFieldName
PUBLIC	?GetUseReal@CPacketImplementation@@QAE_NXZ	; CPacketImplementation::GetUseReal
PUBLIC	?IsUseStandardValue@CPacketImplementation@@QBE_NH@Z ; CPacketImplementation::IsUseStandardValue
PUBLIC	?GetStandardValue@CPacketImplementation@@QAENH@Z ; CPacketImplementation::GetStandardValue
PUBLIC	?GetStartPeriod@CPacketImplementation@@QAEHXZ	; CPacketImplementation::GetStartPeriod
PUBLIC	?SetRealDataGap@CPacketImplementation@@QAEXABN@Z ; CPacketImplementation::SetRealDataGap
PUBLIC	?GetRealDataGap@CPacketImplementation@@QBE_NAAN@Z ; CPacketImplementation::GetRealDataGap
PUBLIC	?GetType@CPacketImplementation@@QAE?AV?$CStringT@DV?$StrTraitMFC_DLL@DV?$ChTraitsCRT@D@ATL@@@@@ATL@@_N@Z ; CPacketImplementation::GetType
PUBLIC	?GetTypeFormatDouble@CPacketImplementation@@QAEN_N@Z ; CPacketImplementation::GetTypeFormatDouble
PUBLIC	?GetnumericDataList@CPacketImplementation@@QBEPBV?$CList@NN@@XZ ; CPacketImplementation::GetnumericDataList
PUBLIC	?GetnumericDataList@CPacketImplementation@@QAEPAV?$CList@NN@@XZ ; CPacketImplementation::GetnumericDataList
PUBLIC	?GetstrDataList@CPacketImplementation@@QAEPAV?$CList@V?$CStringT@DV?$StrTraitMFC_DLL@DV?$ChTraitsCRT@D@ATL@@@@@ATL@@V12@@@XZ ; CPacketImplementation::GetstrDataList
PUBLIC	?SetRealFieldName@CPacketImplementation@@QAEXV?$CStringT@DV?$StrTraitMFC_DLL@DV?$ChTraitsCRT@D@ATL@@@@@ATL@@0@Z ; CPacketImplementation::SetRealFieldName
PUBLIC	?SetBoundLimit@CPacketImplementation@@QAEXNN@Z	; CPacketImplementation::SetBoundLimit
PUBLIC	?SetStandardValue@CPacketImplementation@@QAEXPBD@Z ; CPacketImplementation::SetStandardValue
PUBLIC	?SetStartPeriod@CPacketImplementation@@QAEXH@Z	; CPacketImplementation::SetStartPeriod
PUBLIC	?SetName@CPacketImplementation@@QAEXV?$CStringT@DV?$StrTraitMFC_DLL@DV?$ChTraitsCRT@D@ATL@@@@@ATL@@@Z ; CPacketImplementation::SetName
PUBLIC	?SetType@CPacketImplementation@@QAEXABV?$CStringT@DV?$StrTraitMFC_DLL@DV?$ChTraitsCRT@D@ATL@@@@@ATL@@@Z ; CPacketImplementation::SetType
PUBLIC	?SetType@CPacketImplementation@@QAEXABV?$CStringT@DV?$StrTraitMFC_DLL@DV?$ChTraitsCRT@D@ATL@@@@@ATL@@0@Z ; CPacketImplementation::SetType
PUBLIC	?SetLength@CPacketImplementation@@QAEXH@Z	; CPacketImplementation::SetLength
PUBLIC	?ChangeData@CPacketImplementation@@QAEXAAV?$CList@NN@@@Z ; CPacketImplementation::ChangeData
PUBLIC	?ChangeData@CPacketImplementation@@QAEXAAV?$CList@V?$CStringT@DV?$StrTraitMFC_DLL@DV?$ChTraitsCRT@D@ATL@@@@@ATL@@V12@@@@Z ; CPacketImplementation::ChangeData
PUBLIC	?InsertData@CPacketImplementation@@QAEXV?$CStringT@DV?$StrTraitMFC_DLL@DV?$ChTraitsCRT@D@ATL@@@@@ATL@@@Z ; CPacketImplementation::InsertData
PUBLIC	?InsertData@CPacketImplementation@@QAEXJH@Z	; CPacketImplementation::InsertData
PUBLIC	?AppendData@CPacketImplementation@@QAEXJH@Z	; CPacketImplementation::AppendData
PUBLIC	?AppendData@CPacketImplementation@@QAEXABV?$CStringT@DV?$StrTraitMFC_DLL@DV?$ChTraitsCRT@D@ATL@@@@@ATL@@@Z ; CPacketImplementation::AppendData
PUBLIC	?AppendData@CPacketImplementation@@QAEXNH@Z	; CPacketImplementation::AppendData
PUBLIC	?AppendData@CPacketImplementation@@QAEXAAV?$CList@NN@@@Z ; CPacketImplementation::AppendData
PUBLIC	?AppendData@CPacketImplementation@@QAEXAAV?$CList@V?$CStringT@DV?$StrTraitMFC_DLL@DV?$ChTraitsCRT@D@ATL@@@@@ATL@@V12@@@@Z ; CPacketImplementation::AppendData
PUBLIC	?UpdateData@CPacketImplementation@@QAEXN@Z	; CPacketImplementation::UpdateData
PUBLIC	?UpdateData@CPacketImplementation@@QAEXNH_N@Z	; CPacketImplementation::UpdateData
PUBLIC	?UpdateData@CPacketImplementation@@QAEXABV?$CStringT@DV?$StrTraitMFC_DLL@DV?$ChTraitsCRT@D@ATL@@@@@ATL@@@Z ; CPacketImplementation::UpdateData
PUBLIC	?UpdateData@CPacketImplementation@@QAEXABV?$CStringT@DV?$StrTraitMFC_DLL@DV?$ChTraitsCRT@D@ATL@@@@@ATL@@H_N@Z ; CPacketImplementation::UpdateData
PUBLIC	?UpdateData@CPacketImplementation@@QAEXAAV?$CList@V?$CStringT@DV?$StrTraitMFC_DLL@DV?$ChTraitsCRT@D@ATL@@@@@ATL@@V12@@@VCPoint@@@Z ; CPacketImplementation::UpdateData
PUBLIC	?RemoveData@CPacketImplementation@@QAE_NHH@Z	; CPacketImplementation::RemoveData
PUBLIC	?RemoveBaseData@CPacketImplementation@@QAEHN@Z	; CPacketImplementation::RemoveBaseData
PUBLIC	?RemoveFictionData@CPacketImplementation@@QAEHN_N@Z ; CPacketImplementation::RemoveFictionData
PUBLIC	?ClearData@CPacketImplementation@@QAEH_N@Z	; CPacketImplementation::ClearData
PUBLIC	?Initialize@CPacketImplementation@@QAEX_N@Z	; CPacketImplementation::Initialize
PUBLIC	?AddTailTempList@CPacketImplementation@@QAEXABN@Z ; CPacketImplementation::AddTailTempList
PUBLIC	?RemoveAllTempList@CPacketImplementation@@QAEXXZ ; CPacketImplementation::RemoveAllTempList
PUBLIC	?SetTempListData@CPacketImplementation@@QAE_NHABN_N@Z ; CPacketImplementation::SetTempListData
PUBLIC	?GetTempListData@CPacketImplementation@@QBE_NHAAN@Z ; CPacketImplementation::GetTempListData
PUBLIC	?GetHeadTempListData@CPacketImplementation@@QBE_NAAN@Z ; CPacketImplementation::GetHeadTempListData
PUBLIC	?GetTailTempListData@CPacketImplementation@@QBE_NAAN@Z ; CPacketImplementation::GetTailTempListData
PUBLIC	?GetTempList@CPacketImplementation@@QBEPAV?$CList@NN@@XZ ; CPacketImplementation::GetTempList
PUBLIC	??0?$CList@NN@@QAE@H@Z				; CList<double,double>::CList<double,double>
PUBLIC	?RemoveHead@?$CList@NN@@QAENXZ			; CList<double,double>::RemoveHead
PUBLIC	?AddHead@?$CList@NN@@QAEPAU__POSITION@@N@Z	; CList<double,double>::AddHead
PUBLIC	?AddTail@?$CList@NN@@QAEPAU__POSITION@@N@Z	; CList<double,double>::AddTail
PUBLIC	?RemoveAll@?$CList@NN@@QAEXXZ			; CList<double,double>::RemoveAll
PUBLIC	?RemoveAt@?$CList@NN@@QAEXPAU__POSITION@@@Z	; CList<double,double>::RemoveAt
PUBLIC	?InsertBefore@?$CList@NN@@QAEPAU__POSITION@@PAU2@N@Z ; CList<double,double>::InsertBefore
PUBLIC	?FindIndex@?$CList@NN@@QBEPAU__POSITION@@H@Z	; CList<double,double>::FindIndex
PUBLIC	?NewNode@?$CList@NN@@IAEPAUCNode@1@PAU21@0@Z	; CList<double,double>::NewNode
PUBLIC	?FreeNode@?$CList@NN@@IAEXPAUCNode@1@@Z		; CList<double,double>::FreeNode
PUBLIC	??1?$CList@NN@@UAE@XZ				; CList<double,double>::~CList<double,double>
PUBLIC	?Serialize@?$CList@NN@@UAEXAAVCArchive@@@Z	; CList<double,double>::Serialize
PUBLIC	??_G?$CList@NN@@UAEPAXI@Z			; CList<double,double>::`scalar deleting destructor'
PUBLIC	?GetIndexOfFuture@CPacketImplementation@@AAEHN@Z ; CPacketImplementation::GetIndexOfFuture
PUBLIC	?GetIndexOfPast@CPacketImplementation@@AAEHN@Z	; CPacketImplementation::GetIndexOfPast
PUBLIC	?GetIndexInCaseTypeIsnotBun@CPacketImplementation@@AAEHN@Z ; CPacketImplementation::GetIndexInCaseTypeIsnotBun
PUBLIC	?GetIndexInCaseTypeIsnotBun_CurData@CPacketImplementation@@AAEHN@Z ; CPacketImplementation::GetIndexInCaseTypeIsnotBun_CurData
PUBLIC	?GetIndexInCaseTypeIsBun@CPacketImplementation@@AAEHNV?$CStringT@DV?$StrTraitMFC_DLL@DV?$ChTraitsCRT@D@ATL@@@@@ATL@@@Z ; CPacketImplementation::GetIndexInCaseTypeIsBun
PUBLIC	?GetIndexInCaseTypeIsBun_CurData@CPacketImplementation@@AAEHNV?$CStringT@DV?$StrTraitMFC_DLL@DV?$ChTraitsCRT@D@ATL@@@@@ATL@@@Z ; CPacketImplementation::GetIndexInCaseTypeIsBun_CurData
PUBLIC	?GetComparisionDatas@CPacketImplementation@@AAEXNAAH00@Z ; CPacketImplementation::GetComparisionDatas
PUBLIC	?GetCurOrPrevIndexFromData_Date@CPacketImplementation@@ABE_NABNAANAAH@Z ; CPacketImplementation::GetCurOrPrevIndexFromData_Date
PUBLIC	?FindPosition@CPacketImplementation@@ABEPAU__POSITION@@H@Z ; CPacketImplementation::FindPosition
PUBLIC	?FindStrPosition@CPacketImplementation@@ABEPAU__POSITION@@H@Z ; CPacketImplementation::FindStrPosition
PUBLIC	?RemoveDateData@CPacketImplementation@@AAEHN@Z	; CPacketImplementation::RemoveDateData
PUBLIC	?GetRealData_UpdateData@CPacketImplementation@@AAE_NABNAAN@Z ; CPacketImplementation::GetRealData_UpdateData
PUBLIC	?GetRealData_AppendData@CPacketImplementation@@AAENABN@Z ; CPacketImplementation::GetRealData_AppendData
PUBLIC	?IsDataInPacketType@CPacketImplementation@@ABE_NABN@Z ; CPacketImplementation::IsDataInPacketType
PUBLIC	?IsDataInPacketType_Date@CPacketImplementation@@ABE_NABN@Z ; CPacketImplementation::IsDataInPacketType_Date
PUBLIC	?IsDataInPacketType_Time@CPacketImplementation@@ABE_NABN@Z ; CPacketImplementation::IsDataInPacketType_Time
PUBLIC	?GetTypePartData@CPacketImplementation@@ABEHABNABV?$CStringT@DV?$StrTraitMFC_DLL@DV?$ChTraitsCRT@D@ATL@@@@@ATL@@@Z ; CPacketImplementation::GetTypePartData
PUBLIC	?AppendTrData@CPacketImplementation@@QAEXPBD@Z	; CPacketImplementation::AppendTrData
PUBLIC	?AppendTrData@CPacketImplementation@@QAEXN@Z	; CPacketImplementation::AppendTrData
PUBLIC	?InsertTrData@CPacketImplementation@@QAEXPBD@Z	; CPacketImplementation::InsertTrData
PUBLIC	?InsertTrData@CPacketImplementation@@QAEXN@Z	; CPacketImplementation::InsertTrData
PUBLIC	?SetExceptionValue@CPacketImplementation@@QAEXABN@Z ; CPacketImplementation::SetExceptionValue
PUBLIC	?SetContinueCode@CPacketImplementation@@QAEXABN@Z ; CPacketImplementation::SetContinueCode
PUBLIC	?GetScaleTypeFormatDouble@CPacketImplementation@@QAENXZ ; CPacketImplementation::GetScaleTypeFormatDouble
PUBLIC	?OffsetPacketData@CPacketImplementation@@QAEXN@Z ; CPacketImplementation::OffsetPacketData
PUBLIC	?ClearMinMax@CPacketImplementation@@QAEXXZ	; CPacketImplementation::ClearMinMax
PUBLIC	?UpdateMinMax@CPacketImplementation@@QAEXNH@Z	; CPacketImplementation::UpdateMinMax
PUBLIC	?ShiftData@CPacketImplementation@@QAEHJ@Z	; CPacketImplementation::ShiftData
PUBLIC	?CalcPacketTimeDiff@CPacketImplementation@@QAEXH@Z ; CPacketImplementation::CalcPacketTimeDiff
PUBLIC	?CalcTimeDiff@CPacketImplementation@@QAENNH@Z	; CPacketImplementation::CalcTimeDiff
PUBLIC	??_GCPacketImplementation@@UAEPAXI@Z		; CPacketImplementation::`scalar deleting destructor'
PUBLIC	??0CPacketList@@QAE@ABV0@@Z			; CPacketList::CPacketList
PUBLIC	??4CPacketList@@QAEAAV0@ABV0@@Z			; CPacketList::operator=
PUBLIC	??_GCPacketList@@UAEPAXI@Z			; CPacketList::`scalar deleting destructor'
PUBLIC	??_ECPacketList@@UAEPAXI@Z			; CPacketList::`vector deleting destructor'
PUBLIC	??$SerializeElements@N@@YGXAAVCArchive@@PANH@Z	; SerializeElements<double>
PUBLIC	??_C@_00CNPNBAHC@@				; `string'
PUBLIC	??_R0?AVCObject@@@8				; CObject `RTTI Type Descriptor'
PUBLIC	??_R3CObject@@8					; CObject::`RTTI Class Hierarchy Descriptor'
PUBLIC	??_R2CObject@@8					; CObject::`RTTI Base Class Array'
PUBLIC	??_R1A@?0A@EA@CObject@@8			; CObject::`RTTI Base Class Descriptor at (0,-1,0,64)'
PUBLIC	??_7?$CList@V?$CStringT@DV?$StrTraitMFC_DLL@DV?$ChTraitsCRT@D@ATL@@@@@ATL@@V12@@@6B@ ; CList<ATL::CStringT<char,StrTraitMFC_DLL<char,ATL::ChTraitsCRT<char> > >,ATL::CStringT<char,StrTraitMFC_DLL<char,ATL::ChTraitsCRT<char> > > >::`vftable'
PUBLIC	??_7?$CList@NN@@6B@				; CList<double,double>::`vftable'
PUBLIC	??_7CPacketImplementation@@6B@			; CPacketImplementation::`vftable'
PUBLIC	??_7CPacketList@@6B@				; CPacketList::`vftable'
PUBLIC	??_C@_01HIHLOKLC@1@				; `string'
PUBLIC	??_C@_01GBGANLPD@0@				; `string'
PUBLIC	??_C@_01LFCBOECM@?4@				; `string'
PUBLIC	??_C@_01CLKCMJKC@?5@				; `string'
PUBLIC	??_C@_0P@IMPIBBAB@YYYYMMDDHHMMSS@		; `string'
PUBLIC	??_C@_08KLIIINKM@MMDDHHMM@			; `string'
PUBLIC	??_C@_08JFMBEEDE@DDHHMMSS@			; `string'
PUBLIC	??_C@_04LCMPBGFC@YYYY@				; `string'
PUBLIC	??_C@_02IKKNFMP@YY@				; `string'
PUBLIC	??_C@_02DNCLAJDG@MM@				; `string'
PUBLIC	??_C@_02ODDIIJPA@DD@				; `string'
PUBLIC	??_C@_02PPNCLIJD@SS@				; `string'
PUBLIC	??_C@_02DHALJBCH@1?1@				; `string'
PUBLIC	??_C@_02EGJHDPJI@HH@				; `string'
PUBLIC	??_R4?$CList@V?$CStringT@DV?$StrTraitMFC_DLL@DV?$ChTraitsCRT@D@ATL@@@@@ATL@@V12@@@6B@ ; CList<ATL::CStringT<char,StrTraitMFC_DLL<char,ATL::ChTraitsCRT<char> > >,ATL::CStringT<char,StrTraitMFC_DLL<char,ATL::ChTraitsCRT<char> > > >::`RTTI Complete Object Locator'
PUBLIC	??_R0?AV?$CList@V?$CStringT@DV?$StrTraitMFC_DLL@DV?$ChTraitsCRT@D@ATL@@@@@ATL@@V12@@@@8 ; CList<ATL::CStringT<char,StrTraitMFC_DLL<char,ATL::ChTraitsCRT<char> > >,ATL::CStringT<char,StrTraitMFC_DLL<char,ATL::ChTraitsCRT<char> > > > `RTTI Type Descriptor'
PUBLIC	??_R3?$CList@V?$CStringT@DV?$StrTraitMFC_DLL@DV?$ChTraitsCRT@D@ATL@@@@@ATL@@V12@@@8 ; CList<ATL::CStringT<char,StrTraitMFC_DLL<char,ATL::ChTraitsCRT<char> > >,ATL::CStringT<char,StrTraitMFC_DLL<char,ATL::ChTraitsCRT<char> > > >::`RTTI Class Hierarchy Descriptor'
PUBLIC	??_R2?$CList@V?$CStringT@DV?$StrTraitMFC_DLL@DV?$ChTraitsCRT@D@ATL@@@@@ATL@@V12@@@8 ; CList<ATL::CStringT<char,StrTraitMFC_DLL<char,ATL::ChTraitsCRT<char> > >,ATL::CStringT<char,StrTraitMFC_DLL<char,ATL::ChTraitsCRT<char> > > >::`RTTI Base Class Array'
PUBLIC	??_R1A@?0A@EA@?$CList@V?$CStringT@DV?$StrTraitMFC_DLL@DV?$ChTraitsCRT@D@ATL@@@@@ATL@@V12@@@8 ; CList<ATL::CStringT<char,StrTraitMFC_DLL<char,ATL::ChTraitsCRT<char> > >,ATL::CStringT<char,StrTraitMFC_DLL<char,ATL::ChTraitsCRT<char> > > >::`RTTI Base Class Descriptor at (0,-1,0,64)'
PUBLIC	??_R4CPacketList@@6B@				; CPacketList::`RTTI Complete Object Locator'
PUBLIC	??_R0?AVCPacketList@@@8				; CPacketList `RTTI Type Descriptor'
PUBLIC	??_R3CPacketList@@8				; CPacketList::`RTTI Class Hierarchy Descriptor'
PUBLIC	??_R2CPacketList@@8				; CPacketList::`RTTI Base Class Array'
PUBLIC	??_R1A@?0A@EA@CPacketList@@8			; CPacketList::`RTTI Base Class Descriptor at (0,-1,0,64)'
PUBLIC	??_R4CPacketImplementation@@6B@			; CPacketImplementation::`RTTI Complete Object Locator'
PUBLIC	??_R0?AVCPacketImplementation@@@8		; CPacketImplementation `RTTI Type Descriptor'
PUBLIC	??_R3CPacketImplementation@@8			; CPacketImplementation::`RTTI Class Hierarchy Descriptor'
PUBLIC	??_R2CPacketImplementation@@8			; CPacketImplementation::`RTTI Base Class Array'
PUBLIC	??_R1A@?0A@EA@CPacketImplementation@@8		; CPacketImplementation::`RTTI Base Class Descriptor at (0,-1,0,64)'
PUBLIC	??_R4?$CList@NN@@6B@				; CList<double,double>::`RTTI Complete Object Locator'
PUBLIC	??_R0?AV?$CList@NN@@@8				; CList<double,double> `RTTI Type Descriptor'
PUBLIC	??_R3?$CList@NN@@8				; CList<double,double>::`RTTI Class Hierarchy Descriptor'
PUBLIC	??_R2?$CList@NN@@8				; CList<double,double>::`RTTI Base Class Array'
PUBLIC	??_R1A@?0A@EA@?$CList@NN@@8			; CList<double,double>::`RTTI Base Class Descriptor at (0,-1,0,64)'
PUBLIC	__real@0000000000000000
PUBLIC	__real@3ff0000000000000
PUBLIC	__real@7fefffffffffffff
PUBLIC	__real@ffefffffffffffff
PUBLIC	__real@fff0000000000000
PUBLIC	__xmm@7fefffffffffffffffefffffffffffff
PUBLIC	__xmm@7fffffffffffffff7fffffffffffffff
PUBLIC	__xmm@fff0000000000000fff0000000000000
EXTRN	??_L@YGXPAXIIP6EX0@Z1@Z:PROC			; `eh vector constructor iterator'
EXTRN	??_M@YGXPAXIIP6EX0@Z@Z:PROC			; `eh vector destructor iterator'
EXTRN	??3@YAXPAX@Z:PROC				; operator delete
EXTRN	??3@YAXPAXI@Z:PROC				; operator delete
EXTRN	?__global_delete@@YAXPAXI@Z:PROC		; __global_delete
EXTRN	??_V@YAXPAXI@Z:PROC				; operator delete[]
EXTRN	___report_rangecheckfailure:PROC
EXTRN	___std_terminate:PROC
EXTRN	_strchr:PROC
EXTRN	__imp__atof:PROC
EXTRN	__imp__atoi:PROC
EXTRN	?AfxThrowInvalidArgException@@YGXXZ:PROC	; AfxThrowInvalidArgException
EXTRN	?AfxThrowArchiveException@@YGXHPBD@Z:PROC	; AfxThrowArchiveException
EXTRN	?GetRuntimeClass@CObject@@UBEPAUCRuntimeClass@@XZ:PROC ; CObject::GetRuntimeClass
EXTRN	__imp_?GetBufferSetLength@?$CSimpleStringT@D$00@ATL@@QAEPADH@Z:PROC
EXTRN	__imp_??0?$CStringT@DV?$StrTraitMFC_DLL@DV?$ChTraitsCRT@D@ATL@@@@@ATL@@QAE@XZ:PROC
EXTRN	__imp_??0?$CStringT@DV?$StrTraitMFC_DLL@DV?$ChTraitsCRT@D@ATL@@@@@ATL@@QAE@ABV01@@Z:PROC
EXTRN	__imp_??0?$CStringT@DV?$StrTraitMFC_DLL@DV?$ChTraitsCRT@D@ATL@@@@@ATL@@QAE@PBD@Z:PROC
EXTRN	__imp_??1?$CStringT@DV?$StrTraitMFC_DLL@DV?$ChTraitsCRT@D@ATL@@@@@ATL@@QAE@XZ:PROC
EXTRN	__imp_??4?$CStringT@DV?$StrTraitMFC_DLL@DV?$ChTraitsCRT@D@ATL@@@@@ATL@@QAEAAV01@ABV01@@Z:PROC
EXTRN	__imp_?Compare@?$CStringT@DV?$StrTraitMFC_DLL@DV?$ChTraitsCRT@D@ATL@@@@@ATL@@QBEHPBD@Z:PROC
EXTRN	__imp_?Find@?$CStringT@DV?$StrTraitMFC_DLL@DV?$ChTraitsCRT@D@ATL@@@@@ATL@@QBEHPBDH@Z:PROC
EXTRN	__imp_?TrimRight@?$CStringT@DV?$StrTraitMFC_DLL@DV?$ChTraitsCRT@D@ATL@@@@@ATL@@QAEAAV12@XZ:PROC
EXTRN	__imp_?TrimLeft@?$CStringT@DV?$StrTraitMFC_DLL@DV?$ChTraitsCRT@D@ATL@@@@@ATL@@QAEAAV12@XZ:PROC
EXTRN	__imp_?TrimRight@?$CStringT@DV?$StrTraitMFC_DLL@DV?$ChTraitsCRT@D@ATL@@@@@ATL@@QAEAAV12@PBD@Z:PROC
EXTRN	__imp_?TrimLeft@?$CStringT@DV?$StrTraitMFC_DLL@DV?$ChTraitsCRT@D@ATL@@@@@ATL@@QAEAAV12@PBD@Z:PROC
EXTRN	__imp_?Mid@?$CStringT@DV?$StrTraitMFC_DLL@DV?$ChTraitsCRT@D@ATL@@@@@ATL@@QBE?AV12@HH@Z:PROC
EXTRN	__imp_?Right@?$CStringT@DV?$StrTraitMFC_DLL@DV?$ChTraitsCRT@D@ATL@@@@@ATL@@QBE?AV12@H@Z:PROC
EXTRN	__imp_?Left@?$CStringT@DV?$StrTraitMFC_DLL@DV?$ChTraitsCRT@D@ATL@@@@@ATL@@QBE?AV12@H@Z:PROC
EXTRN	?Read@CArchive@@QAEIPAXI@Z:PROC			; CArchive::Read
EXTRN	?Write@CArchive@@QAEXPBXI@Z:PROC		; CArchive::Write
EXTRN	?ReadCount@CArchive@@QAEKXZ:PROC		; CArchive::ReadCount
EXTRN	?WriteCount@CArchive@@QAEXK@Z:PROC		; CArchive::WriteCount
EXTRN	?Create@CPlex@@SGPAU1@AAPAU1@II@Z:PROC		; CPlex::Create
EXTRN	?FreeDataChain@CPlex@@QAEXXZ:PROC		; CPlex::FreeDataChain
EXTRN	??$SerializeElements@V?$CStringT@DV?$StrTraitMFC_DLL@DV?$ChTraitsCRT@D@ATL@@@@@ATL@@@@YGXAAVCArchive@@PAV?$CStringT@DV?$StrTraitMFC_DLL@DV?$ChTraitsCRT@D@ATL@@@@@ATL@@H@Z:PROC ; SerializeElements<ATL::CStringT<char,StrTraitMFC_DLL<char,ATL::ChTraitsCRT<char> > > >
EXTRN	??_E?$CList@V?$CStringT@DV?$StrTraitMFC_DLL@DV?$ChTraitsCRT@D@ATL@@@@@ATL@@V12@@@UAEPAXI@Z:PROC ; CList<ATL::CStringT<char,StrTraitMFC_DLL<char,ATL::ChTraitsCRT<char> > >,ATL::CStringT<char,StrTraitMFC_DLL<char,ATL::ChTraitsCRT<char> > > >::`vector deleting destructor'
EXTRN	??0CItemData@@QAE@_NABN@Z:PROC			; CItemData::CItemData
EXTRN	?Set@CItemData@@QAEX_NABN@Z:PROC		; CItemData::Set
EXTRN	?SetData@CItemData@@QAEXABN@Z:PROC		; CItemData::SetData
EXTRN	?IsUsing@CItemData@@QBE_NXZ:PROC		; CItemData::IsUsing
EXTRN	?GetData@CItemData@@QBENXZ:PROC			; CItemData::GetData
EXTRN	??_E?$CList@NN@@UAEPAXI@Z:PROC			; CList<double,double>::`vector deleting destructor'
EXTRN	??_ECPacketImplementation@@UAEPAXI@Z:PROC	; CPacketImplementation::`vector deleting destructor'
EXTRN	??1CPacketList@@UAE@XZ:PROC			; CPacketList::~CPacketList
EXTRN	?GetTimeInterval@CPacketList@@QAEHXZ:PROC	; CPacketList::GetTimeInterval
EXTRN	?GetStartTimeInTimeRangeOfLastData@CPacketList@@QAE_JXZ:PROC ; CPacketList::GetStartTimeInTimeRangeOfLastData
EXTRN	?GetMaxCount@CPacketList@@QAEHXZ:PROC		; CPacketList::GetMaxCount
EXTRN	?GetDateUnitType@CPacketList@@QAE?AW4HORZSCALEDRAWERTYPE@CScaleBaseData@@XZ:PROC ; CPacketList::GetDateUnitType
EXTRN	?GetBaseData@CPacketList@@QAEPAVCPacket@@V?$CStringT@DV?$StrTraitMFC_DLL@DV?$ChTraitsCRT@D@ATL@@@@@ATL@@_N@Z:PROC ; CPacketList::GetBaseData
EXTRN	?GetBaseTimeDifference@CPacketList@@QAEHXZ:PROC	; CPacketList::GetBaseTimeDifference
EXTRN	?SetBaseTimeDifference@CPacketList@@QAEXH@Z:PROC ; CPacketList::SetBaseTimeDifference
EXTRN	?IntToString@CDataConversion@@SA?AV?$CStringT@DV?$StrTraitMFC_DLL@DV?$ChTraitsCRT@D@ATL@@@@@ATL@@_JH@Z:PROC ; CDataConversion::IntToString
EXTRN	?CalcTimeFormat@CDataConversion@@SAHHHABV?$CStringT@DV?$StrTraitMFC_DLL@DV?$ChTraitsCRT@D@ATL@@@@@ATL@@_N@Z:PROC ; CDataConversion::CalcTimeFormat
EXTRN	?CalcTimeFormatforCharge@CDataConversion@@SAHHHABV?$CStringT@DV?$StrTraitMFC_DLL@DV?$ChTraitsCRT@D@ATL@@@@@ATL@@H_N@Z:PROC ; CDataConversion::CalcTimeFormatforCharge
EXTRN	?CalcDateFormat@CDataConversion@@SAHHHABV?$CStringT@DV?$StrTraitMFC_DLL@DV?$ChTraitsCRT@D@ATL@@@@@ATL@@HH@Z:PROC ; CDataConversion::CalcDateFormat
EXTRN	?CalcTimeDiff@CDataConversion@@SANNHHV?$CStringT@DV?$StrTraitMFC_DLL@DV?$ChTraitsCRT@D@ATL@@@@@ATL@@@Z:PROC ; CDataConversion::CalcTimeDiff
EXTRN	@__security_check_cookie@4:PROC
EXTRN	___CxxFrameHandler3:PROC
EXTRN	__alldiv:PROC
EXTRN	__alldvrm:PROC
EXTRN	__allmul:PROC
EXTRN	__dtol3:PROC
EXTRN	__ltod3:PROC
EXTRN	_memcpy:PROC
EXTRN	??_7type_info@@6B@:QWORD			; type_info::`vftable'
EXTRN	?g_iMetaTable@@3VIMetaTable@@A:BYTE		; g_iMetaTable
EXTRN	___security_cookie:DWORD
EXTRN	__fltused:DWORD
;	COMDAT __xmm@fff0000000000000fff0000000000000
CONST	SEGMENT
__xmm@fff0000000000000fff0000000000000 DB 00H, 00H, 00H, 00H, 00H, 00H, 0f0H
	DB	0ffH, 00H, 00H, 00H, 00H, 00H, 00H, 0f0H, 0ffH
CONST	ENDS
;	COMDAT __xmm@7fffffffffffffff7fffffffffffffff
CONST	SEGMENT
__xmm@7fffffffffffffff7fffffffffffffff DB 0ffH, 0ffH, 0ffH, 0ffH, 0ffH, 0ffH
	DB	0ffH, 07fH, 0ffH, 0ffH, 0ffH, 0ffH, 0ffH, 0ffH, 0ffH, 07fH
CONST	ENDS
;	COMDAT __xmm@7fefffffffffffffffefffffffffffff
CONST	SEGMENT
__xmm@7fefffffffffffffffefffffffffffff DB 0ffH, 0ffH, 0ffH, 0ffH, 0ffH, 0ffH
	DB	0efH, 0ffH, 0ffH, 0ffH, 0ffH, 0ffH, 0ffH, 0ffH, 0efH, 07fH
CONST	ENDS
;	COMDAT __real@fff0000000000000
CONST	SEGMENT
__real@fff0000000000000 DQ 0fff0000000000000r	; -inf
CONST	ENDS
;	COMDAT __real@ffefffffffffffff
CONST	SEGMENT
__real@ffefffffffffffff DQ 0ffefffffffffffffr	; -1.79769e+308
CONST	ENDS
;	COMDAT __real@7fefffffffffffff
CONST	SEGMENT
__real@7fefffffffffffff DQ 07fefffffffffffffr	; 1.79769e+308
CONST	ENDS
;	COMDAT __real@3ff0000000000000
CONST	SEGMENT
__real@3ff0000000000000 DQ 03ff0000000000000r	; 1
CONST	ENDS
;	COMDAT __real@0000000000000000
CONST	SEGMENT
__real@0000000000000000 DQ 00000000000000000r	; 0
CONST	ENDS
;	COMDAT ??_R1A@?0A@EA@?$CList@NN@@8
rdata$r	SEGMENT
??_R1A@?0A@EA@?$CList@NN@@8 DD FLAT:??_R0?AV?$CList@NN@@@8 ; CList<double,double>::`RTTI Base Class Descriptor at (0,-1,0,64)'
	DD	01H
	DD	00H
	DD	0ffffffffH
	DD	00H
	DD	040H
	DD	FLAT:??_R3?$CList@NN@@8
rdata$r	ENDS
;	COMDAT ??_R2?$CList@NN@@8
rdata$r	SEGMENT
??_R2?$CList@NN@@8 DD FLAT:??_R1A@?0A@EA@?$CList@NN@@8	; CList<double,double>::`RTTI Base Class Array'
	DD	FLAT:??_R1A@?0A@EA@CObject@@8
rdata$r	ENDS
;	COMDAT ??_R3?$CList@NN@@8
rdata$r	SEGMENT
??_R3?$CList@NN@@8 DD 00H				; CList<double,double>::`RTTI Class Hierarchy Descriptor'
	DD	00H
	DD	02H
	DD	FLAT:??_R2?$CList@NN@@8
rdata$r	ENDS
;	COMDAT ??_R0?AV?$CList@NN@@@8
data$rs	SEGMENT
??_R0?AV?$CList@NN@@@8 DD FLAT:??_7type_info@@6B@	; CList<double,double> `RTTI Type Descriptor'
	DD	00H
	DB	'.?AV?$CList@NN@@', 00H
data$rs	ENDS
;	COMDAT ??_R4?$CList@NN@@6B@
rdata$r	SEGMENT
??_R4?$CList@NN@@6B@ DD 00H				; CList<double,double>::`RTTI Complete Object Locator'
	DD	00H
	DD	00H
	DD	FLAT:??_R0?AV?$CList@NN@@@8
	DD	FLAT:??_R3?$CList@NN@@8
rdata$r	ENDS
;	COMDAT ??_R1A@?0A@EA@CPacketImplementation@@8
rdata$r	SEGMENT
??_R1A@?0A@EA@CPacketImplementation@@8 DD FLAT:??_R0?AVCPacketImplementation@@@8 ; CPacketImplementation::`RTTI Base Class Descriptor at (0,-1,0,64)'
	DD	00H
	DD	00H
	DD	0ffffffffH
	DD	00H
	DD	040H
	DD	FLAT:??_R3CPacketImplementation@@8
rdata$r	ENDS
;	COMDAT ??_R2CPacketImplementation@@8
rdata$r	SEGMENT
??_R2CPacketImplementation@@8 DD FLAT:??_R1A@?0A@EA@CPacketImplementation@@8 ; CPacketImplementation::`RTTI Base Class Array'
rdata$r	ENDS
;	COMDAT ??_R3CPacketImplementation@@8
rdata$r	SEGMENT
??_R3CPacketImplementation@@8 DD 00H			; CPacketImplementation::`RTTI Class Hierarchy Descriptor'
	DD	00H
	DD	01H
	DD	FLAT:??_R2CPacketImplementation@@8
rdata$r	ENDS
;	COMDAT ??_R0?AVCPacketImplementation@@@8
data$rs	SEGMENT
??_R0?AVCPacketImplementation@@@8 DD FLAT:??_7type_info@@6B@ ; CPacketImplementation `RTTI Type Descriptor'
	DD	00H
	DB	'.?AVCPacketImplementation@@', 00H
data$rs	ENDS
;	COMDAT ??_R4CPacketImplementation@@6B@
rdata$r	SEGMENT
??_R4CPacketImplementation@@6B@ DD 00H			; CPacketImplementation::`RTTI Complete Object Locator'
	DD	00H
	DD	00H
	DD	FLAT:??_R0?AVCPacketImplementation@@@8
	DD	FLAT:??_R3CPacketImplementation@@8
rdata$r	ENDS
;	COMDAT ??_R1A@?0A@EA@CPacketList@@8
rdata$r	SEGMENT
??_R1A@?0A@EA@CPacketList@@8 DD FLAT:??_R0?AVCPacketList@@@8 ; CPacketList::`RTTI Base Class Descriptor at (0,-1,0,64)'
	DD	00H
	DD	00H
	DD	0ffffffffH
	DD	00H
	DD	040H
	DD	FLAT:??_R3CPacketList@@8
rdata$r	ENDS
;	COMDAT ??_R2CPacketList@@8
rdata$r	SEGMENT
??_R2CPacketList@@8 DD FLAT:??_R1A@?0A@EA@CPacketList@@8 ; CPacketList::`RTTI Base Class Array'
rdata$r	ENDS
;	COMDAT ??_R3CPacketList@@8
rdata$r	SEGMENT
??_R3CPacketList@@8 DD 00H				; CPacketList::`RTTI Class Hierarchy Descriptor'
	DD	00H
	DD	01H
	DD	FLAT:??_R2CPacketList@@8
rdata$r	ENDS
;	COMDAT ??_R0?AVCPacketList@@@8
data$rs	SEGMENT
??_R0?AVCPacketList@@@8 DD FLAT:??_7type_info@@6B@	; CPacketList `RTTI Type Descriptor'
	DD	00H
	DB	'.?AVCPacketList@@', 00H
data$rs	ENDS
;	COMDAT ??_R4CPacketList@@6B@
rdata$r	SEGMENT
??_R4CPacketList@@6B@ DD 00H				; CPacketList::`RTTI Complete Object Locator'
	DD	00H
	DD	00H
	DD	FLAT:??_R0?AVCPacketList@@@8
	DD	FLAT:??_R3CPacketList@@8
rdata$r	ENDS
;	COMDAT ??_R1A@?0A@EA@?$CList@V?$CStringT@DV?$StrTraitMFC_DLL@DV?$ChTraitsCRT@D@ATL@@@@@ATL@@V12@@@8
rdata$r	SEGMENT
??_R1A@?0A@EA@?$CList@V?$CStringT@DV?$StrTraitMFC_DLL@DV?$ChTraitsCRT@D@ATL@@@@@ATL@@V12@@@8 DD FLAT:??_R0?AV?$CList@V?$CStringT@DV?$StrTraitMFC_DLL@DV?$ChTraitsCRT@D@ATL@@@@@ATL@@V12@@@@8 ; CList<ATL::CStringT<char,StrTraitMFC_DLL<char,ATL::ChTraitsCRT<char> > >,ATL::CStringT<char,StrTraitMFC_DLL<char,ATL::ChTraitsCRT<char> > > >::`RTTI Base Class Descriptor at (0,-1,0,64)'
	DD	01H
	DD	00H
	DD	0ffffffffH
	DD	00H
	DD	040H
	DD	FLAT:??_R3?$CList@V?$CStringT@DV?$StrTraitMFC_DLL@DV?$ChTraitsCRT@D@ATL@@@@@ATL@@V12@@@8
rdata$r	ENDS
;	COMDAT ??_R2?$CList@V?$CStringT@DV?$StrTraitMFC_DLL@DV?$ChTraitsCRT@D@ATL@@@@@ATL@@V12@@@8
rdata$r	SEGMENT
??_R2?$CList@V?$CStringT@DV?$StrTraitMFC_DLL@DV?$ChTraitsCRT@D@ATL@@@@@ATL@@V12@@@8 DD FLAT:??_R1A@?0A@EA@?$CList@V?$CStringT@DV?$StrTraitMFC_DLL@DV?$ChTraitsCRT@D@ATL@@@@@ATL@@V12@@@8 ; CList<ATL::CStringT<char,StrTraitMFC_DLL<char,ATL::ChTraitsCRT<char> > >,ATL::CStringT<char,StrTraitMFC_DLL<char,ATL::ChTraitsCRT<char> > > >::`RTTI Base Class Array'
	DD	FLAT:??_R1A@?0A@EA@CObject@@8
rdata$r	ENDS
;	COMDAT ??_R3?$CList@V?$CStringT@DV?$StrTraitMFC_DLL@DV?$ChTraitsCRT@D@ATL@@@@@ATL@@V12@@@8
rdata$r	SEGMENT
??_R3?$CList@V?$CStringT@DV?$StrTraitMFC_DLL@DV?$ChTraitsCRT@D@ATL@@@@@ATL@@V12@@@8 DD 00H ; CList<ATL::CStringT<char,StrTraitMFC_DLL<char,ATL::ChTraitsCRT<char> > >,ATL::CStringT<char,StrTraitMFC_DLL<char,ATL::ChTraitsCRT<char> > > >::`RTTI Class Hierarchy Descriptor'
	DD	00H
	DD	02H
	DD	FLAT:??_R2?$CList@V?$CStringT@DV?$StrTraitMFC_DLL@DV?$ChTraitsCRT@D@ATL@@@@@ATL@@V12@@@8
rdata$r	ENDS
;	COMDAT ??_R0?AV?$CList@V?$CStringT@DV?$StrTraitMFC_DLL@DV?$ChTraitsCRT@D@ATL@@@@@ATL@@V12@@@@8
data$rs	SEGMENT
??_R0?AV?$CList@V?$CStringT@DV?$StrTraitMFC_DLL@DV?$ChTraitsCRT@D@ATL@@@@@ATL@@V12@@@@8 DD FLAT:??_7type_info@@6B@ ; CList<ATL::CStringT<char,StrTraitMFC_DLL<char,ATL::ChTraitsCRT<char> > >,ATL::CStringT<char,StrTraitMFC_DLL<char,ATL::ChTraitsCRT<char> > > > `RTTI Type Descriptor'
	DD	00H
	DB	'.?AV?$CList@V?$CStringT@DV?$StrTraitMFC_DLL@DV?$ChTraits'
	DB	'CRT@D@ATL@@@@@ATL@@V12@@@', 00H
data$rs	ENDS
;	COMDAT ??_R4?$CList@V?$CStringT@DV?$StrTraitMFC_DLL@DV?$ChTraitsCRT@D@ATL@@@@@ATL@@V12@@@6B@
rdata$r	SEGMENT
??_R4?$CList@V?$CStringT@DV?$StrTraitMFC_DLL@DV?$ChTraitsCRT@D@ATL@@@@@ATL@@V12@@@6B@ DD 00H ; CList<ATL::CStringT<char,StrTraitMFC_DLL<char,ATL::ChTraitsCRT<char> > >,ATL::CStringT<char,StrTraitMFC_DLL<char,ATL::ChTraitsCRT<char> > > >::`RTTI Complete Object Locator'
	DD	00H
	DD	00H
	DD	FLAT:??_R0?AV?$CList@V?$CStringT@DV?$StrTraitMFC_DLL@DV?$ChTraitsCRT@D@ATL@@@@@ATL@@V12@@@@8
	DD	FLAT:??_R3?$CList@V?$CStringT@DV?$StrTraitMFC_DLL@DV?$ChTraitsCRT@D@ATL@@@@@ATL@@V12@@@8
rdata$r	ENDS
;	COMDAT ??_C@_02EGJHDPJI@HH@
CONST	SEGMENT
??_C@_02EGJHDPJI@HH@ DB 'HH', 00H			; `string'
CONST	ENDS
;	COMDAT ??_C@_02DHALJBCH@1?1@
CONST	SEGMENT
??_C@_02DHALJBCH@1?1@ DB '1/', 00H			; `string'
CONST	ENDS
;	COMDAT ??_C@_02PPNCLIJD@SS@
CONST	SEGMENT
??_C@_02PPNCLIJD@SS@ DB 'SS', 00H			; `string'
CONST	ENDS
;	COMDAT ??_C@_02ODDIIJPA@DD@
CONST	SEGMENT
??_C@_02ODDIIJPA@DD@ DB 'DD', 00H			; `string'
CONST	ENDS
;	COMDAT ??_C@_02DNCLAJDG@MM@
CONST	SEGMENT
??_C@_02DNCLAJDG@MM@ DB 'MM', 00H			; `string'
CONST	ENDS
;	COMDAT ??_C@_02IKKNFMP@YY@
CONST	SEGMENT
??_C@_02IKKNFMP@YY@ DB 'YY', 00H			; `string'
CONST	ENDS
;	COMDAT ??_C@_04LCMPBGFC@YYYY@
CONST	SEGMENT
??_C@_04LCMPBGFC@YYYY@ DB 'YYYY', 00H			; `string'
CONST	ENDS
;	COMDAT ??_C@_08JFMBEEDE@DDHHMMSS@
CONST	SEGMENT
??_C@_08JFMBEEDE@DDHHMMSS@ DB 'DDHHMMSS', 00H		; `string'
CONST	ENDS
;	COMDAT ??_C@_08KLIIINKM@MMDDHHMM@
CONST	SEGMENT
??_C@_08KLIIINKM@MMDDHHMM@ DB 'MMDDHHMM', 00H		; `string'
CONST	ENDS
;	COMDAT ??_C@_0P@IMPIBBAB@YYYYMMDDHHMMSS@
CONST	SEGMENT
??_C@_0P@IMPIBBAB@YYYYMMDDHHMMSS@ DB 'YYYYMMDDHHMMSS', 00H ; `string'
CONST	ENDS
;	COMDAT ??_C@_01CLKCMJKC@?5@
CONST	SEGMENT
??_C@_01CLKCMJKC@?5@ DB ' ', 00H			; `string'
CONST	ENDS
;	COMDAT ??_C@_01LFCBOECM@?4@
CONST	SEGMENT
??_C@_01LFCBOECM@?4@ DB '.', 00H			; `string'
CONST	ENDS
;	COMDAT ??_C@_01GBGANLPD@0@
CONST	SEGMENT
??_C@_01GBGANLPD@0@ DB '0', 00H				; `string'
CONST	ENDS
;	COMDAT ??_C@_01HIHLOKLC@1@
CONST	SEGMENT
??_C@_01HIHLOKLC@1@ DB '1', 00H				; `string'
CONST	ENDS
;	COMDAT ??_7CPacketList@@6B@
CONST	SEGMENT
??_7CPacketList@@6B@ DD FLAT:??_R4CPacketList@@6B@	; CPacketList::`vftable'
	DD	FLAT:??_ECPacketList@@UAEPAXI@Z
CONST	ENDS
;	COMDAT ??_7CPacketImplementation@@6B@
CONST	SEGMENT
??_7CPacketImplementation@@6B@ DD FLAT:??_R4CPacketImplementation@@6B@ ; CPacketImplementation::`vftable'
	DD	FLAT:??_ECPacketImplementation@@UAEPAXI@Z
CONST	ENDS
;	COMDAT ??_7?$CList@NN@@6B@
CONST	SEGMENT
??_7?$CList@NN@@6B@ DD FLAT:??_R4?$CList@NN@@6B@	; CList<double,double>::`vftable'
	DD	FLAT:?GetRuntimeClass@CObject@@UBEPAUCRuntimeClass@@XZ
	DD	FLAT:??_E?$CList@NN@@UAEPAXI@Z
	DD	FLAT:?Serialize@?$CList@NN@@UAEXAAVCArchive@@@Z
	DD	FLAT:?AssertValid@CObject@@UBEXXZ
	DD	FLAT:?Dump@CObject@@UBEXAAVCDumpContext@@@Z
CONST	ENDS
;	COMDAT ??_7?$CList@V?$CStringT@DV?$StrTraitMFC_DLL@DV?$ChTraitsCRT@D@ATL@@@@@ATL@@V12@@@6B@
CONST	SEGMENT
??_7?$CList@V?$CStringT@DV?$StrTraitMFC_DLL@DV?$ChTraitsCRT@D@ATL@@@@@ATL@@V12@@@6B@ DD FLAT:??_R4?$CList@V?$CStringT@DV?$StrTraitMFC_DLL@DV?$ChTraitsCRT@D@ATL@@@@@ATL@@V12@@@6B@ ; CList<ATL::CStringT<char,StrTraitMFC_DLL<char,ATL::ChTraitsCRT<char> > >,ATL::CStringT<char,StrTraitMFC_DLL<char,ATL::ChTraitsCRT<char> > > >::`vftable'
	DD	FLAT:?GetRuntimeClass@CObject@@UBEPAUCRuntimeClass@@XZ
	DD	FLAT:??_E?$CList@V?$CStringT@DV?$StrTraitMFC_DLL@DV?$ChTraitsCRT@D@ATL@@@@@ATL@@V12@@@UAEPAXI@Z
	DD	FLAT:?Serialize@?$CList@V?$CStringT@DV?$StrTraitMFC_DLL@DV?$ChTraitsCRT@D@ATL@@@@@ATL@@V12@@@UAEXAAVCArchive@@@Z
	DD	FLAT:?AssertValid@CObject@@UBEXXZ
	DD	FLAT:?Dump@CObject@@UBEXAAVCDumpContext@@@Z
CONST	ENDS
;	COMDAT ??_R1A@?0A@EA@CObject@@8
rdata$r	SEGMENT
??_R1A@?0A@EA@CObject@@8 DD FLAT:??_R0?AVCObject@@@8	; CObject::`RTTI Base Class Descriptor at (0,-1,0,64)'
	DD	00H
	DD	00H
	DD	0ffffffffH
	DD	00H
	DD	040H
	DD	FLAT:??_R3CObject@@8
rdata$r	ENDS
;	COMDAT ??_R2CObject@@8
rdata$r	SEGMENT
??_R2CObject@@8 DD FLAT:??_R1A@?0A@EA@CObject@@8	; CObject::`RTTI Base Class Array'
rdata$r	ENDS
;	COMDAT ??_R3CObject@@8
rdata$r	SEGMENT
??_R3CObject@@8 DD 00H					; CObject::`RTTI Class Hierarchy Descriptor'
	DD	00H
	DD	01H
	DD	FLAT:??_R2CObject@@8
rdata$r	ENDS
;	COMDAT ??_R0?AVCObject@@@8
data$rs	SEGMENT
??_R0?AVCObject@@@8 DD FLAT:??_7type_info@@6B@		; CObject `RTTI Type Descriptor'
	DD	00H
	DB	'.?AVCObject@@', 00H
data$rs	ENDS
;	COMDAT ??_C@_00CNPNBAHC@@
CONST	SEGMENT
??_C@_00CNPNBAHC@@ DB 00H				; `string'
CONST	ENDS
;	COMDAT xdata$x
xdata$x	SEGMENT
__ehfuncinfo$??_ECPacketList@@UAEPAXI@Z DD 019930522H
	DD	00H
	DD	00H
	DD	2 DUP(00H)
	DD	2 DUP(00H)
	DD	00H
	DD	05H
xdata$x	ENDS
;	COMDAT xdata$x
xdata$x	SEGMENT
__unwindtable$??_GCPacketImplementation@@UAEPAXI@Z DD 0ffffffffH
	DD	FLAT:___std_terminate
	DD	00H
	DD	FLAT:___std_terminate
	DD	00H
	DD	FLAT:___std_terminate
	DD	00H
	DD	FLAT:___std_terminate
__ehfuncinfo$??_GCPacketImplementation@@UAEPAXI@Z DD 019930522H
	DD	04H
	DD	FLAT:__unwindtable$??_GCPacketImplementation@@UAEPAXI@Z
	DD	2 DUP(00H)
	DD	2 DUP(00H)
	DD	00H
	DD	05H
xdata$x	ENDS
;	COMDAT xdata$x
xdata$x	SEGMENT
__unwindtable$?CalcTimeDiff@CPacketImplementation@@QAENNH@Z DD 0ffffffffH
	DD	FLAT:__unwindfunclet$?CalcTimeDiff@CPacketImplementation@@QAENNH@Z$0
__ehfuncinfo$?CalcTimeDiff@CPacketImplementation@@QAENNH@Z DD 019930522H
	DD	01H
	DD	FLAT:__unwindtable$?CalcTimeDiff@CPacketImplementation@@QAENNH@Z
	DD	2 DUP(00H)
	DD	2 DUP(00H)
	DD	00H
	DD	01H
xdata$x	ENDS
;	COMDAT xdata$x
xdata$x	SEGMENT
__unwindtable$?CalcPacketTimeDiff@CPacketImplementation@@QAEXH@Z DD 0ffffffffH
	DD	FLAT:__unwindfunclet$?CalcPacketTimeDiff@CPacketImplementation@@QAEXH@Z$0
__ehfuncinfo$?CalcPacketTimeDiff@CPacketImplementation@@QAEXH@Z DD 019930522H
	DD	01H
	DD	FLAT:__unwindtable$?CalcPacketTimeDiff@CPacketImplementation@@QAEXH@Z
	DD	2 DUP(00H)
	DD	2 DUP(00H)
	DD	00H
	DD	01H
xdata$x	ENDS
;	COMDAT xdata$x
xdata$x	SEGMENT
__unwindtable$?ShiftData@CPacketImplementation@@QAEHJ@Z DD 0ffffffffH
	DD	FLAT:__unwindfunclet$?ShiftData@CPacketImplementation@@QAEHJ@Z$1
__ehfuncinfo$?ShiftData@CPacketImplementation@@QAEHJ@Z DD 019930522H
	DD	01H
	DD	FLAT:__unwindtable$?ShiftData@CPacketImplementation@@QAEHJ@Z
	DD	2 DUP(00H)
	DD	2 DUP(00H)
	DD	00H
	DD	01H
xdata$x	ENDS
;	COMDAT xdata$x
xdata$x	SEGMENT
__ehfuncinfo$?GetScaleTypeFormatDouble@CPacketImplementation@@QAENXZ DD 019930522H
	DD	06H
	DD	FLAT:__unwindtable$?GetScaleTypeFormatDouble@CPacketImplementation@@QAENXZ
	DD	2 DUP(00H)
	DD	2 DUP(00H)
	DD	00H
	DD	01H
__unwindtable$?GetScaleTypeFormatDouble@CPacketImplementation@@QAENXZ DD 0ffffffffH
	DD	FLAT:__unwindfunclet$?GetScaleTypeFormatDouble@CPacketImplementation@@QAENXZ$0
	DD	00H
	DD	FLAT:__unwindfunclet$?GetScaleTypeFormatDouble@CPacketImplementation@@QAENXZ$1
	DD	01H
	DD	FLAT:__unwindfunclet$?GetScaleTypeFormatDouble@CPacketImplementation@@QAENXZ$2
	DD	00H
	DD	FLAT:__unwindfunclet$?GetScaleTypeFormatDouble@CPacketImplementation@@QAENXZ$3
	DD	00H
	DD	FLAT:__unwindfunclet$?GetScaleTypeFormatDouble@CPacketImplementation@@QAENXZ$4
	DD	00H
	DD	FLAT:__unwindfunclet$?GetScaleTypeFormatDouble@CPacketImplementation@@QAENXZ$5
xdata$x	ENDS
;	COMDAT xdata$x
xdata$x	SEGMENT
__unwindtable$?InsertTrData@CPacketImplementation@@QAEXPBD@Z DD 0ffffffffH
	DD	FLAT:__unwindfunclet$?InsertTrData@CPacketImplementation@@QAEXPBD@Z$1
__ehfuncinfo$?InsertTrData@CPacketImplementation@@QAEXPBD@Z DD 019930522H
	DD	01H
	DD	FLAT:__unwindtable$?InsertTrData@CPacketImplementation@@QAEXPBD@Z
	DD	2 DUP(00H)
	DD	2 DUP(00H)
	DD	00H
	DD	01H
xdata$x	ENDS
;	COMDAT xdata$x
xdata$x	SEGMENT
__unwindtable$?AppendTrData@CPacketImplementation@@QAEXPBD@Z DD 0ffffffffH
	DD	FLAT:__unwindfunclet$?AppendTrData@CPacketImplementation@@QAEXPBD@Z$1
__ehfuncinfo$?AppendTrData@CPacketImplementation@@QAEXPBD@Z DD 019930522H
	DD	01H
	DD	FLAT:__unwindtable$?AppendTrData@CPacketImplementation@@QAEXPBD@Z
	DD	2 DUP(00H)
	DD	2 DUP(00H)
	DD	00H
	DD	01H
xdata$x	ENDS
;	COMDAT xdata$x
xdata$x	SEGMENT
__unwindtable$?GetComparisionDatas@CPacketImplementation@@AAEXNAAH00@Z DD 0ffffffffH
	DD	FLAT:__unwindfunclet$?GetComparisionDatas@CPacketImplementation@@AAEXNAAH00@Z$0
	DD	00H
	DD	FLAT:__unwindfunclet$?GetComparisionDatas@CPacketImplementation@@AAEXNAAH00@Z$1
	DD	01H
	DD	FLAT:__unwindfunclet$?GetComparisionDatas@CPacketImplementation@@AAEXNAAH00@Z$2
__ehfuncinfo$?GetComparisionDatas@CPacketImplementation@@AAEXNAAH00@Z DD 019930522H
	DD	03H
	DD	FLAT:__unwindtable$?GetComparisionDatas@CPacketImplementation@@AAEXNAAH00@Z
	DD	2 DUP(00H)
	DD	2 DUP(00H)
	DD	00H
	DD	01H
xdata$x	ENDS
;	COMDAT xdata$x
xdata$x	SEGMENT
__unwindtable$?GetIndexInCaseTypeIsBun_CurData@CPacketImplementation@@AAEHNV?$CStringT@DV?$StrTraitMFC_DLL@DV?$ChTraitsCRT@D@ATL@@@@@ATL@@@Z DD 0ffffffffH
	DD	FLAT:__unwindfunclet$?GetIndexInCaseTypeIsBun_CurData@CPacketImplementation@@AAEHNV?$CStringT@DV?$StrTraitMFC_DLL@DV?$ChTraitsCRT@D@ATL@@@@@ATL@@@Z$0
	DD	00H
	DD	FLAT:__unwindfunclet$?GetIndexInCaseTypeIsBun_CurData@CPacketImplementation@@AAEHNV?$CStringT@DV?$StrTraitMFC_DLL@DV?$ChTraitsCRT@D@ATL@@@@@ATL@@@Z$1
__ehfuncinfo$?GetIndexInCaseTypeIsBun_CurData@CPacketImplementation@@AAEHNV?$CStringT@DV?$StrTraitMFC_DLL@DV?$ChTraitsCRT@D@ATL@@@@@ATL@@@Z DD 019930522H
	DD	02H
	DD	FLAT:__unwindtable$?GetIndexInCaseTypeIsBun_CurData@CPacketImplementation@@AAEHNV?$CStringT@DV?$StrTraitMFC_DLL@DV?$ChTraitsCRT@D@ATL@@@@@ATL@@@Z
	DD	2 DUP(00H)
	DD	2 DUP(00H)
	DD	00H
	DD	01H
xdata$x	ENDS
;	COMDAT xdata$x
xdata$x	SEGMENT
__unwindtable$?GetIndexInCaseTypeIsBun@CPacketImplementation@@AAEHNV?$CStringT@DV?$StrTraitMFC_DLL@DV?$ChTraitsCRT@D@ATL@@@@@ATL@@@Z DD 0ffffffffH
	DD	FLAT:__unwindfunclet$?GetIndexInCaseTypeIsBun@CPacketImplementation@@AAEHNV?$CStringT@DV?$StrTraitMFC_DLL@DV?$ChTraitsCRT@D@ATL@@@@@ATL@@@Z$0
__ehfuncinfo$?GetIndexInCaseTypeIsBun@CPacketImplementation@@AAEHNV?$CStringT@DV?$StrTraitMFC_DLL@DV?$ChTraitsCRT@D@ATL@@@@@ATL@@@Z DD 019930522H
	DD	01H
	DD	FLAT:__unwindtable$?GetIndexInCaseTypeIsBun@CPacketImplementation@@AAEHNV?$CStringT@DV?$StrTraitMFC_DLL@DV?$ChTraitsCRT@D@ATL@@@@@ATL@@@Z
	DD	2 DUP(00H)
	DD	2 DUP(00H)
	DD	00H
	DD	01H
xdata$x	ENDS
;	COMDAT xdata$x
xdata$x	SEGMENT
__unwindtable$??_G?$CList@NN@@UAEPAXI@Z DD 0ffffffffH
	DD	FLAT:___std_terminate
__ehfuncinfo$??_G?$CList@NN@@UAEPAXI@Z DD 019930522H
	DD	01H
	DD	FLAT:__unwindtable$??_G?$CList@NN@@UAEPAXI@Z
	DD	2 DUP(00H)
	DD	2 DUP(00H)
	DD	00H
	DD	05H
xdata$x	ENDS
;	COMDAT xdata$x
xdata$x	SEGMENT
__ehfuncinfo$??1?$CList@NN@@UAE@XZ DD 019930522H
	DD	00H
	DD	00H
	DD	2 DUP(00H)
	DD	2 DUP(00H)
	DD	00H
	DD	05H
xdata$x	ENDS
;	COMDAT xdata$x
xdata$x	SEGMENT
__unwindtable$?RemoveData@CPacketImplementation@@QAE_NHH@Z DD 0ffffffffH
	DD	FLAT:__unwindfunclet$?RemoveData@CPacketImplementation@@QAE_NHH@Z$1
__ehfuncinfo$?RemoveData@CPacketImplementation@@QAE_NHH@Z DD 019930522H
	DD	01H
	DD	FLAT:__unwindtable$?RemoveData@CPacketImplementation@@QAE_NHH@Z
	DD	2 DUP(00H)
	DD	2 DUP(00H)
	DD	00H
	DD	01H
xdata$x	ENDS
;	COMDAT xdata$x
xdata$x	SEGMENT
__unwindtable$?UpdateData@CPacketImplementation@@QAEXAAV?$CList@V?$CStringT@DV?$StrTraitMFC_DLL@DV?$ChTraitsCRT@D@ATL@@@@@ATL@@V12@@@VCPoint@@@Z DD 0ffffffffH
	DD	FLAT:__unwindfunclet$?UpdateData@CPacketImplementation@@QAEXAAV?$CList@V?$CStringT@DV?$StrTraitMFC_DLL@DV?$ChTraitsCRT@D@ATL@@@@@ATL@@V12@@@VCPoint@@@Z$2
	DD	00H
	DD	FLAT:__unwindfunclet$?UpdateData@CPacketImplementation@@QAEXAAV?$CList@V?$CStringT@DV?$StrTraitMFC_DLL@DV?$ChTraitsCRT@D@ATL@@@@@ATL@@V12@@@VCPoint@@@Z$4
	DD	0ffffffffH
	DD	FLAT:__unwindfunclet$?UpdateData@CPacketImplementation@@QAEXAAV?$CList@V?$CStringT@DV?$StrTraitMFC_DLL@DV?$ChTraitsCRT@D@ATL@@@@@ATL@@V12@@@VCPoint@@@Z$5
	DD	0ffffffffH
	DD	FLAT:__unwindfunclet$?UpdateData@CPacketImplementation@@QAEXAAV?$CList@V?$CStringT@DV?$StrTraitMFC_DLL@DV?$ChTraitsCRT@D@ATL@@@@@ATL@@V12@@@VCPoint@@@Z$6
__ehfuncinfo$?UpdateData@CPacketImplementation@@QAEXAAV?$CList@V?$CStringT@DV?$StrTraitMFC_DLL@DV?$ChTraitsCRT@D@ATL@@@@@ATL@@V12@@@VCPoint@@@Z DD 019930522H
	DD	04H
	DD	FLAT:__unwindtable$?UpdateData@CPacketImplementation@@QAEXAAV?$CList@V?$CStringT@DV?$StrTraitMFC_DLL@DV?$ChTraitsCRT@D@ATL@@@@@ATL@@V12@@@VCPoint@@@Z
	DD	2 DUP(00H)
	DD	2 DUP(00H)
	DD	00H
	DD	01H
xdata$x	ENDS
;	COMDAT xdata$x
xdata$x	SEGMENT
__unwindtable$?UpdateData@CPacketImplementation@@QAEXABV?$CStringT@DV?$StrTraitMFC_DLL@DV?$ChTraitsCRT@D@ATL@@@@@ATL@@H_N@Z DD 0ffffffffH
	DD	FLAT:__unwindfunclet$?UpdateData@CPacketImplementation@@QAEXABV?$CStringT@DV?$StrTraitMFC_DLL@DV?$ChTraitsCRT@D@ATL@@@@@ATL@@H_N@Z$2
__ehfuncinfo$?UpdateData@CPacketImplementation@@QAEXABV?$CStringT@DV?$StrTraitMFC_DLL@DV?$ChTraitsCRT@D@ATL@@@@@ATL@@H_N@Z DD 019930522H
	DD	01H
	DD	FLAT:__unwindtable$?UpdateData@CPacketImplementation@@QAEXABV?$CStringT@DV?$StrTraitMFC_DLL@DV?$ChTraitsCRT@D@ATL@@@@@ATL@@H_N@Z
	DD	2 DUP(00H)
	DD	2 DUP(00H)
	DD	00H
	DD	01H
xdata$x	ENDS
;	COMDAT xdata$x
xdata$x	SEGMENT
__unwindtable$?UpdateData@CPacketImplementation@@QAEXABV?$CStringT@DV?$StrTraitMFC_DLL@DV?$ChTraitsCRT@D@ATL@@@@@ATL@@@Z DD 0ffffffffH
	DD	FLAT:__unwindfunclet$?UpdateData@CPacketImplementation@@QAEXABV?$CStringT@DV?$StrTraitMFC_DLL@DV?$ChTraitsCRT@D@ATL@@@@@ATL@@@Z$1
__ehfuncinfo$?UpdateData@CPacketImplementation@@QAEXABV?$CStringT@DV?$StrTraitMFC_DLL@DV?$ChTraitsCRT@D@ATL@@@@@ATL@@@Z DD 019930522H
	DD	01H
	DD	FLAT:__unwindtable$?UpdateData@CPacketImplementation@@QAEXABV?$CStringT@DV?$StrTraitMFC_DLL@DV?$ChTraitsCRT@D@ATL@@@@@ATL@@@Z
	DD	2 DUP(00H)
	DD	2 DUP(00H)
	DD	00H
	DD	01H
xdata$x	ENDS
;	COMDAT xdata$x
xdata$x	SEGMENT
__unwindtable$?AppendData@CPacketImplementation@@QAEXAAV?$CList@V?$CStringT@DV?$StrTraitMFC_DLL@DV?$ChTraitsCRT@D@ATL@@@@@ATL@@V12@@@@Z DD 0ffffffffH
	DD	FLAT:__unwindfunclet$?AppendData@CPacketImplementation@@QAEXAAV?$CList@V?$CStringT@DV?$StrTraitMFC_DLL@DV?$ChTraitsCRT@D@ATL@@@@@ATL@@V12@@@@Z$0
	DD	00H
	DD	FLAT:__unwindfunclet$?AppendData@CPacketImplementation@@QAEXAAV?$CList@V?$CStringT@DV?$StrTraitMFC_DLL@DV?$ChTraitsCRT@D@ATL@@@@@ATL@@V12@@@@Z$2
__ehfuncinfo$?AppendData@CPacketImplementation@@QAEXAAV?$CList@V?$CStringT@DV?$StrTraitMFC_DLL@DV?$ChTraitsCRT@D@ATL@@@@@ATL@@V12@@@@Z DD 019930522H
	DD	02H
	DD	FLAT:__unwindtable$?AppendData@CPacketImplementation@@QAEXAAV?$CList@V?$CStringT@DV?$StrTraitMFC_DLL@DV?$ChTraitsCRT@D@ATL@@@@@ATL@@V12@@@@Z
	DD	2 DUP(00H)
	DD	2 DUP(00H)
	DD	00H
	DD	01H
xdata$x	ENDS
;	COMDAT xdata$x
xdata$x	SEGMENT
__unwindtable$?AppendData@CPacketImplementation@@QAEXABV?$CStringT@DV?$StrTraitMFC_DLL@DV?$ChTraitsCRT@D@ATL@@@@@ATL@@@Z DD 0ffffffffH
	DD	FLAT:__unwindfunclet$?AppendData@CPacketImplementation@@QAEXABV?$CStringT@DV?$StrTraitMFC_DLL@DV?$ChTraitsCRT@D@ATL@@@@@ATL@@@Z$1
__ehfuncinfo$?AppendData@CPacketImplementation@@QAEXABV?$CStringT@DV?$StrTraitMFC_DLL@DV?$ChTraitsCRT@D@ATL@@@@@ATL@@@Z DD 019930522H
	DD	01H
	DD	FLAT:__unwindtable$?AppendData@CPacketImplementation@@QAEXABV?$CStringT@DV?$StrTraitMFC_DLL@DV?$ChTraitsCRT@D@ATL@@@@@ATL@@@Z
	DD	2 DUP(00H)
	DD	2 DUP(00H)
	DD	00H
	DD	01H
xdata$x	ENDS
;	COMDAT xdata$x
xdata$x	SEGMENT
__unwindtable$?AppendData@CPacketImplementation@@QAEXJH@Z DD 0ffffffffH
	DD	FLAT:__unwindfunclet$?AppendData@CPacketImplementation@@QAEXJH@Z$0
__ehfuncinfo$?AppendData@CPacketImplementation@@QAEXJH@Z DD 019930522H
	DD	01H
	DD	FLAT:__unwindtable$?AppendData@CPacketImplementation@@QAEXJH@Z
	DD	2 DUP(00H)
	DD	2 DUP(00H)
	DD	00H
	DD	01H
xdata$x	ENDS
;	COMDAT xdata$x
xdata$x	SEGMENT
__unwindtable$?InsertData@CPacketImplementation@@QAEXJH@Z DD 0ffffffffH
	DD	FLAT:__unwindfunclet$?InsertData@CPacketImplementation@@QAEXJH@Z$0
__ehfuncinfo$?InsertData@CPacketImplementation@@QAEXJH@Z DD 019930522H
	DD	01H
	DD	FLAT:__unwindtable$?InsertData@CPacketImplementation@@QAEXJH@Z
	DD	2 DUP(00H)
	DD	2 DUP(00H)
	DD	00H
	DD	01H
xdata$x	ENDS
;	COMDAT xdata$x
xdata$x	SEGMENT
__unwindtable$?InsertData@CPacketImplementation@@QAEXV?$CStringT@DV?$StrTraitMFC_DLL@DV?$ChTraitsCRT@D@ATL@@@@@ATL@@@Z DD 0ffffffffH
	DD	FLAT:__unwindfunclet$?InsertData@CPacketImplementation@@QAEXV?$CStringT@DV?$StrTraitMFC_DLL@DV?$ChTraitsCRT@D@ATL@@@@@ATL@@@Z$0
	DD	00H
	DD	FLAT:__unwindfunclet$?InsertData@CPacketImplementation@@QAEXV?$CStringT@DV?$StrTraitMFC_DLL@DV?$ChTraitsCRT@D@ATL@@@@@ATL@@@Z$2
__ehfuncinfo$?InsertData@CPacketImplementation@@QAEXV?$CStringT@DV?$StrTraitMFC_DLL@DV?$ChTraitsCRT@D@ATL@@@@@ATL@@@Z DD 019930522H
	DD	02H
	DD	FLAT:__unwindtable$?InsertData@CPacketImplementation@@QAEXV?$CStringT@DV?$StrTraitMFC_DLL@DV?$ChTraitsCRT@D@ATL@@@@@ATL@@@Z
	DD	2 DUP(00H)
	DD	2 DUP(00H)
	DD	00H
	DD	01H
xdata$x	ENDS
;	COMDAT xdata$x
xdata$x	SEGMENT
__unwindtable$?ChangeData@CPacketImplementation@@QAEXAAV?$CList@V?$CStringT@DV?$StrTraitMFC_DLL@DV?$ChTraitsCRT@D@ATL@@@@@ATL@@V12@@@@Z DD 0ffffffffH
	DD	FLAT:__unwindfunclet$?ChangeData@CPacketImplementation@@QAEXAAV?$CList@V?$CStringT@DV?$StrTraitMFC_DLL@DV?$ChTraitsCRT@D@ATL@@@@@ATL@@V12@@@@Z$0
	DD	00H
	DD	FLAT:__unwindfunclet$?ChangeData@CPacketImplementation@@QAEXAAV?$CList@V?$CStringT@DV?$StrTraitMFC_DLL@DV?$ChTraitsCRT@D@ATL@@@@@ATL@@V12@@@@Z$2
__ehfuncinfo$?ChangeData@CPacketImplementation@@QAEXAAV?$CList@V?$CStringT@DV?$StrTraitMFC_DLL@DV?$ChTraitsCRT@D@ATL@@@@@ATL@@V12@@@@Z DD 019930522H
	DD	02H
	DD	FLAT:__unwindtable$?ChangeData@CPacketImplementation@@QAEXAAV?$CList@V?$CStringT@DV?$StrTraitMFC_DLL@DV?$ChTraitsCRT@D@ATL@@@@@ATL@@V12@@@@Z
	DD	2 DUP(00H)
	DD	2 DUP(00H)
	DD	00H
	DD	01H
xdata$x	ENDS
;	COMDAT xdata$x
xdata$x	SEGMENT
__unwindtable$?SetName@CPacketImplementation@@QAEXV?$CStringT@DV?$StrTraitMFC_DLL@DV?$ChTraitsCRT@D@ATL@@@@@ATL@@@Z DD 0ffffffffH
	DD	FLAT:__unwindfunclet$?SetName@CPacketImplementation@@QAEXV?$CStringT@DV?$StrTraitMFC_DLL@DV?$ChTraitsCRT@D@ATL@@@@@ATL@@@Z$0
__ehfuncinfo$?SetName@CPacketImplementation@@QAEXV?$CStringT@DV?$StrTraitMFC_DLL@DV?$ChTraitsCRT@D@ATL@@@@@ATL@@@Z DD 019930522H
	DD	01H
	DD	FLAT:__unwindtable$?SetName@CPacketImplementation@@QAEXV?$CStringT@DV?$StrTraitMFC_DLL@DV?$ChTraitsCRT@D@ATL@@@@@ATL@@@Z
	DD	2 DUP(00H)
	DD	2 DUP(00H)
	DD	00H
	DD	01H
xdata$x	ENDS
;	COMDAT xdata$x
xdata$x	SEGMENT
__unwindtable$?SetStandardValue@CPacketImplementation@@QAEXPBD@Z DD 0ffffffffH
	DD	FLAT:__unwindfunclet$?SetStandardValue@CPacketImplementation@@QAEXPBD@Z$0
__ehfuncinfo$?SetStandardValue@CPacketImplementation@@QAEXPBD@Z DD 019930522H
	DD	01H
	DD	FLAT:__unwindtable$?SetStandardValue@CPacketImplementation@@QAEXPBD@Z
	DD	2 DUP(00H)
	DD	2 DUP(00H)
	DD	00H
	DD	01H
xdata$x	ENDS
;	COMDAT xdata$x
xdata$x	SEGMENT
__unwindtable$?SetRealFieldName@CPacketImplementation@@QAEXV?$CStringT@DV?$StrTraitMFC_DLL@DV?$ChTraitsCRT@D@ATL@@@@@ATL@@0@Z DD 0ffffffffH
	DD	FLAT:__unwindfunclet$?SetRealFieldName@CPacketImplementation@@QAEXV?$CStringT@DV?$StrTraitMFC_DLL@DV?$ChTraitsCRT@D@ATL@@@@@ATL@@0@Z$0
	DD	00H
	DD	FLAT:__unwindfunclet$?SetRealFieldName@CPacketImplementation@@QAEXV?$CStringT@DV?$StrTraitMFC_DLL@DV?$ChTraitsCRT@D@ATL@@@@@ATL@@0@Z$1
__ehfuncinfo$?SetRealFieldName@CPacketImplementation@@QAEXV?$CStringT@DV?$StrTraitMFC_DLL@DV?$ChTraitsCRT@D@ATL@@@@@ATL@@0@Z DD 019930522H
	DD	02H
	DD	FLAT:__unwindtable$?SetRealFieldName@CPacketImplementation@@QAEXV?$CStringT@DV?$StrTraitMFC_DLL@DV?$ChTraitsCRT@D@ATL@@@@@ATL@@0@Z
	DD	2 DUP(00H)
	DD	2 DUP(00H)
	DD	00H
	DD	01H
xdata$x	ENDS
;	COMDAT xdata$x
xdata$x	SEGMENT
__ehfuncinfo$?GetTypeFormatDouble@CPacketImplementation@@QAEN_N@Z DD 019930522H
	DD	06H
	DD	FLAT:__unwindtable$?GetTypeFormatDouble@CPacketImplementation@@QAEN_N@Z
	DD	2 DUP(00H)
	DD	2 DUP(00H)
	DD	00H
	DD	01H
__unwindtable$?GetTypeFormatDouble@CPacketImplementation@@QAEN_N@Z DD 0ffffffffH
	DD	FLAT:__unwindfunclet$?GetTypeFormatDouble@CPacketImplementation@@QAEN_N@Z$0
	DD	00H
	DD	FLAT:__unwindfunclet$?GetTypeFormatDouble@CPacketImplementation@@QAEN_N@Z$1
	DD	01H
	DD	FLAT:__unwindfunclet$?GetTypeFormatDouble@CPacketImplementation@@QAEN_N@Z$2
	DD	00H
	DD	FLAT:__unwindfunclet$?GetTypeFormatDouble@CPacketImplementation@@QAEN_N@Z$3
	DD	00H
	DD	FLAT:__unwindfunclet$?GetTypeFormatDouble@CPacketImplementation@@QAEN_N@Z$4
	DD	00H
	DD	FLAT:__unwindfunclet$?GetTypeFormatDouble@CPacketImplementation@@QAEN_N@Z$5
xdata$x	ENDS
;	COMDAT voltbl
voltbl	SEGMENT
_volmd	DW	023cH
voltbl	ENDS
;	COMDAT xdata$x
xdata$x	SEGMENT
__unwindtable$?GetDataPastandFuture@CPacketImplementation@@QAENH@Z DD 0ffffffffH
	DD	FLAT:__unwindfunclet$?GetDataPastandFuture@CPacketImplementation@@QAENH@Z$0
__ehfuncinfo$?GetDataPastandFuture@CPacketImplementation@@QAENH@Z DD 019930522H
	DD	01H
	DD	FLAT:__unwindtable$?GetDataPastandFuture@CPacketImplementation@@QAENH@Z
	DD	2 DUP(00H)
	DD	2 DUP(00H)
	DD	00H
	DD	01H
xdata$x	ENDS
;	COMDAT xdata$x
xdata$x	SEGMENT
__unwindtable$?GetIndexFromData@CPacketImplementation@@QAEHNV?$CStringT@DV?$StrTraitMFC_DLL@DV?$ChTraitsCRT@D@ATL@@@@@ATL@@@Z DD 0ffffffffH
	DD	FLAT:__unwindfunclet$?GetIndexFromData@CPacketImplementation@@QAEHNV?$CStringT@DV?$StrTraitMFC_DLL@DV?$ChTraitsCRT@D@ATL@@@@@ATL@@@Z$0
	DD	00H
	DD	FLAT:__unwindfunclet$?GetIndexFromData@CPacketImplementation@@QAEHNV?$CStringT@DV?$StrTraitMFC_DLL@DV?$ChTraitsCRT@D@ATL@@@@@ATL@@@Z$2
__ehfuncinfo$?GetIndexFromData@CPacketImplementation@@QAEHNV?$CStringT@DV?$StrTraitMFC_DLL@DV?$ChTraitsCRT@D@ATL@@@@@ATL@@@Z DD 019930522H
	DD	02H
	DD	FLAT:__unwindtable$?GetIndexFromData@CPacketImplementation@@QAEHNV?$CStringT@DV?$StrTraitMFC_DLL@DV?$ChTraitsCRT@D@ATL@@@@@ATL@@@Z
	DD	2 DUP(00H)
	DD	2 DUP(00H)
	DD	00H
	DD	01H
xdata$x	ENDS
;	COMDAT xdata$x
xdata$x	SEGMENT
__unwindtable$??1CPacketImplementation@@UAE@XZ DD 0ffffffffH
	DD	FLAT:___std_terminate
	DD	0ffffffffH
	DD	FLAT:___std_terminate
	DD	0ffffffffH
	DD	FLAT:___std_terminate
__ehfuncinfo$??1CPacketImplementation@@UAE@XZ DD 019930522H
	DD	03H
	DD	FLAT:__unwindtable$??1CPacketImplementation@@UAE@XZ
	DD	2 DUP(00H)
	DD	2 DUP(00H)
	DD	00H
	DD	05H
xdata$x	ENDS
;	COMDAT xdata$x
xdata$x	SEGMENT
__ehfuncinfo$??0CPacketImplementation@@QAE@PAVCPacket@@PAVCPacketList@@V?$CStringT@DV?$StrTraitMFC_DLL@DV?$ChTraitsCRT@D@ATL@@@@@ATL@@222H_NH2@Z DD 019930522H
	DD	0fH
	DD	FLAT:__unwindtable$??0CPacketImplementation@@QAE@PAVCPacket@@PAVCPacketList@@V?$CStringT@DV?$StrTraitMFC_DLL@DV?$ChTraitsCRT@D@ATL@@@@@ATL@@222H_NH2@Z
	DD	2 DUP(00H)
	DD	2 DUP(00H)
	DD	00H
	DD	01H
__unwindtable$??0CPacketImplementation@@QAE@PAVCPacket@@PAVCPacketList@@V?$CStringT@DV?$StrTraitMFC_DLL@DV?$ChTraitsCRT@D@ATL@@@@@ATL@@222H_NH2@Z DD 0ffffffffH
	DD	FLAT:__unwindfunclet$??0CPacketImplementation@@QAE@PAVCPacket@@PAVCPacketList@@V?$CStringT@DV?$StrTraitMFC_DLL@DV?$ChTraitsCRT@D@ATL@@@@@ATL@@222H_NH2@Z$0
	DD	00H
	DD	FLAT:__unwindfunclet$??0CPacketImplementation@@QAE@PAVCPacket@@PAVCPacketList@@V?$CStringT@DV?$StrTraitMFC_DLL@DV?$ChTraitsCRT@D@ATL@@@@@ATL@@222H_NH2@Z$1
	DD	01H
	DD	FLAT:__unwindfunclet$??0CPacketImplementation@@QAE@PAVCPacket@@PAVCPacketList@@V?$CStringT@DV?$StrTraitMFC_DLL@DV?$ChTraitsCRT@D@ATL@@@@@ATL@@222H_NH2@Z$2
	DD	02H
	DD	FLAT:__unwindfunclet$??0CPacketImplementation@@QAE@PAVCPacket@@PAVCPacketList@@V?$CStringT@DV?$StrTraitMFC_DLL@DV?$ChTraitsCRT@D@ATL@@@@@ATL@@222H_NH2@Z$3
	DD	03H
	DD	FLAT:__unwindfunclet$??0CPacketImplementation@@QAE@PAVCPacket@@PAVCPacketList@@V?$CStringT@DV?$StrTraitMFC_DLL@DV?$ChTraitsCRT@D@ATL@@@@@ATL@@222H_NH2@Z$4
	DD	04H
	DD	FLAT:__unwindfunclet$??0CPacketImplementation@@QAE@PAVCPacket@@PAVCPacketList@@V?$CStringT@DV?$StrTraitMFC_DLL@DV?$ChTraitsCRT@D@ATL@@@@@ATL@@222H_NH2@Z$5
	DD	05H
	DD	FLAT:__unwindfunclet$??0CPacketImplementation@@QAE@PAVCPacket@@PAVCPacketList@@V?$CStringT@DV?$StrTraitMFC_DLL@DV?$ChTraitsCRT@D@ATL@@@@@ATL@@222H_NH2@Z$6
	DD	06H
	DD	FLAT:__unwindfunclet$??0CPacketImplementation@@QAE@PAVCPacket@@PAVCPacketList@@V?$CStringT@DV?$StrTraitMFC_DLL@DV?$ChTraitsCRT@D@ATL@@@@@ATL@@222H_NH2@Z$7
	DD	07H
	DD	FLAT:__unwindfunclet$??0CPacketImplementation@@QAE@PAVCPacket@@PAVCPacketList@@V?$CStringT@DV?$StrTraitMFC_DLL@DV?$ChTraitsCRT@D@ATL@@@@@ATL@@222H_NH2@Z$8
	DD	08H
	DD	FLAT:__unwindfunclet$??0CPacketImplementation@@QAE@PAVCPacket@@PAVCPacketList@@V?$CStringT@DV?$StrTraitMFC_DLL@DV?$ChTraitsCRT@D@ATL@@@@@ATL@@222H_NH2@Z$9
	DD	09H
	DD	FLAT:__unwindfunclet$??0CPacketImplementation@@QAE@PAVCPacket@@PAVCPacketList@@V?$CStringT@DV?$StrTraitMFC_DLL@DV?$ChTraitsCRT@D@ATL@@@@@ATL@@222H_NH2@Z$10
	DD	0aH
	DD	FLAT:__unwindfunclet$??0CPacketImplementation@@QAE@PAVCPacket@@PAVCPacketList@@V?$CStringT@DV?$StrTraitMFC_DLL@DV?$ChTraitsCRT@D@ATL@@@@@ATL@@222H_NH2@Z$11
	DD	0bH
	DD	FLAT:__unwindfunclet$??0CPacketImplementation@@QAE@PAVCPacket@@PAVCPacketList@@V?$CStringT@DV?$StrTraitMFC_DLL@DV?$ChTraitsCRT@D@ATL@@@@@ATL@@222H_NH2@Z$12
	DD	0cH
	DD	FLAT:__unwindfunclet$??0CPacketImplementation@@QAE@PAVCPacket@@PAVCPacketList@@V?$CStringT@DV?$StrTraitMFC_DLL@DV?$ChTraitsCRT@D@ATL@@@@@ATL@@222H_NH2@Z$13
	DD	0dH
	DD	FLAT:__unwindfunclet$??0CPacketImplementation@@QAE@PAVCPacket@@PAVCPacketList@@V?$CStringT@DV?$StrTraitMFC_DLL@DV?$ChTraitsCRT@D@ATL@@@@@ATL@@222H_NH2@Z$14
xdata$x	ENDS
;	COMDAT xdata$x
xdata$x	SEGMENT
__unwindtable$??_G?$CList@V?$CStringT@DV?$StrTraitMFC_DLL@DV?$ChTraitsCRT@D@ATL@@@@@ATL@@V12@@@UAEPAXI@Z DD 0ffffffffH
	DD	FLAT:___std_terminate
__ehfuncinfo$??_G?$CList@V?$CStringT@DV?$StrTraitMFC_DLL@DV?$ChTraitsCRT@D@ATL@@@@@ATL@@V12@@@UAEPAXI@Z DD 019930522H
	DD	01H
	DD	FLAT:__unwindtable$??_G?$CList@V?$CStringT@DV?$StrTraitMFC_DLL@DV?$ChTraitsCRT@D@ATL@@@@@ATL@@V12@@@UAEPAXI@Z
	DD	2 DUP(00H)
	DD	2 DUP(00H)
	DD	00H
	DD	05H
xdata$x	ENDS
;	COMDAT xdata$x
xdata$x	SEGMENT
__unwindtable$?Serialize@?$CList@V?$CStringT@DV?$StrTraitMFC_DLL@DV?$ChTraitsCRT@D@ATL@@@@@ATL@@V12@@@UAEXAAVCArchive@@@Z DD 0ffffffffH
	DD	FLAT:__unwindfunclet$?Serialize@?$CList@V?$CStringT@DV?$StrTraitMFC_DLL@DV?$ChTraitsCRT@D@ATL@@@@@ATL@@V12@@@UAEXAAVCArchive@@@Z$0
	DD	00H
	DD	FLAT:__unwindfunclet$?Serialize@?$CList@V?$CStringT@DV?$StrTraitMFC_DLL@DV?$ChTraitsCRT@D@ATL@@@@@ATL@@V12@@@UAEXAAVCArchive@@@Z$2
__ehfuncinfo$?Serialize@?$CList@V?$CStringT@DV?$StrTraitMFC_DLL@DV?$ChTraitsCRT@D@ATL@@@@@ATL@@V12@@@UAEXAAVCArchive@@@Z DD 019930522H
	DD	02H
	DD	FLAT:__unwindtable$?Serialize@?$CList@V?$CStringT@DV?$StrTraitMFC_DLL@DV?$ChTraitsCRT@D@ATL@@@@@ATL@@V12@@@UAEXAAVCArchive@@@Z
	DD	2 DUP(00H)
	DD	2 DUP(00H)
	DD	00H
	DD	01H
xdata$x	ENDS
;	COMDAT xdata$x
xdata$x	SEGMENT
__ehfuncinfo$??1?$CList@V?$CStringT@DV?$StrTraitMFC_DLL@DV?$ChTraitsCRT@D@ATL@@@@@ATL@@V12@@@UAE@XZ DD 019930522H
	DD	00H
	DD	00H
	DD	2 DUP(00H)
	DD	2 DUP(00H)
	DD	00H
	DD	05H
xdata$x	ENDS
;	COMDAT xdata$x
xdata$x	SEGMENT
__unwindtable$?SetAt@?$CList@V?$CStringT@DV?$StrTraitMFC_DLL@DV?$ChTraitsCRT@D@ATL@@@@@ATL@@V12@@@QAEXPAU__POSITION@@V?$CStringT@DV?$StrTraitMFC_DLL@DV?$ChTraitsCRT@D@ATL@@@@@ATL@@@Z DD 0ffffffffH
	DD	FLAT:__unwindfunclet$?SetAt@?$CList@V?$CStringT@DV?$StrTraitMFC_DLL@DV?$ChTraitsCRT@D@ATL@@@@@ATL@@V12@@@QAEXPAU__POSITION@@V?$CStringT@DV?$StrTraitMFC_DLL@DV?$ChTraitsCRT@D@ATL@@@@@ATL@@@Z$0
__ehfuncinfo$?SetAt@?$CList@V?$CStringT@DV?$StrTraitMFC_DLL@DV?$ChTraitsCRT@D@ATL@@@@@ATL@@V12@@@QAEXPAU__POSITION@@V?$CStringT@DV?$StrTraitMFC_DLL@DV?$ChTraitsCRT@D@ATL@@@@@ATL@@@Z DD 019930522H
	DD	01H
	DD	FLAT:__unwindtable$?SetAt@?$CList@V?$CStringT@DV?$StrTraitMFC_DLL@DV?$ChTraitsCRT@D@ATL@@@@@ATL@@V12@@@QAEXPAU__POSITION@@V?$CStringT@DV?$StrTraitMFC_DLL@DV?$ChTraitsCRT@D@ATL@@@@@ATL@@@Z
	DD	2 DUP(00H)
	DD	2 DUP(00H)
	DD	00H
	DD	01H
xdata$x	ENDS
;	COMDAT xdata$x
xdata$x	SEGMENT
__unwindtable$?AddTail@?$CList@V?$CStringT@DV?$StrTraitMFC_DLL@DV?$ChTraitsCRT@D@ATL@@@@@ATL@@V12@@@QAEPAU__POSITION@@V?$CStringT@DV?$StrTraitMFC_DLL@DV?$ChTraitsCRT@D@ATL@@@@@ATL@@@Z DD 0ffffffffH
	DD	FLAT:__unwindfunclet$?AddTail@?$CList@V?$CStringT@DV?$StrTraitMFC_DLL@DV?$ChTraitsCRT@D@ATL@@@@@ATL@@V12@@@QAEPAU__POSITION@@V?$CStringT@DV?$StrTraitMFC_DLL@DV?$ChTraitsCRT@D@ATL@@@@@ATL@@@Z$0
__ehfuncinfo$?AddTail@?$CList@V?$CStringT@DV?$StrTraitMFC_DLL@DV?$ChTraitsCRT@D@ATL@@@@@ATL@@V12@@@QAEPAU__POSITION@@V?$CStringT@DV?$StrTraitMFC_DLL@DV?$ChTraitsCRT@D@ATL@@@@@ATL@@@Z DD 019930522H
	DD	01H
	DD	FLAT:__unwindtable$?AddTail@?$CList@V?$CStringT@DV?$StrTraitMFC_DLL@DV?$ChTraitsCRT@D@ATL@@@@@ATL@@V12@@@QAEPAU__POSITION@@V?$CStringT@DV?$StrTraitMFC_DLL@DV?$ChTraitsCRT@D@ATL@@@@@ATL@@@Z
	DD	2 DUP(00H)
	DD	2 DUP(00H)
	DD	00H
	DD	01H
xdata$x	ENDS
;	COMDAT xdata$x
xdata$x	SEGMENT
__unwindtable$?AddHead@?$CList@V?$CStringT@DV?$StrTraitMFC_DLL@DV?$ChTraitsCRT@D@ATL@@@@@ATL@@V12@@@QAEPAU__POSITION@@V?$CStringT@DV?$StrTraitMFC_DLL@DV?$ChTraitsCRT@D@ATL@@@@@ATL@@@Z DD 0ffffffffH
	DD	FLAT:__unwindfunclet$?AddHead@?$CList@V?$CStringT@DV?$StrTraitMFC_DLL@DV?$ChTraitsCRT@D@ATL@@@@@ATL@@V12@@@QAEPAU__POSITION@@V?$CStringT@DV?$StrTraitMFC_DLL@DV?$ChTraitsCRT@D@ATL@@@@@ATL@@@Z$0
__ehfuncinfo$?AddHead@?$CList@V?$CStringT@DV?$StrTraitMFC_DLL@DV?$ChTraitsCRT@D@ATL@@@@@ATL@@V12@@@QAEPAU__POSITION@@V?$CStringT@DV?$StrTraitMFC_DLL@DV?$ChTraitsCRT@D@ATL@@@@@ATL@@@Z DD 019930522H
	DD	01H
	DD	FLAT:__unwindtable$?AddHead@?$CList@V?$CStringT@DV?$StrTraitMFC_DLL@DV?$ChTraitsCRT@D@ATL@@@@@ATL@@V12@@@QAEPAU__POSITION@@V?$CStringT@DV?$StrTraitMFC_DLL@DV?$ChTraitsCRT@D@ATL@@@@@ATL@@@Z
	DD	2 DUP(00H)
	DD	2 DUP(00H)
	DD	00H
	DD	01H
xdata$x	ENDS
;	COMDAT xdata$x
xdata$x	SEGMENT
__unwindtable$?RemoveHead@?$CList@V?$CStringT@DV?$StrTraitMFC_DLL@DV?$ChTraitsCRT@D@ATL@@@@@ATL@@V12@@@QAE?AV?$CStringT@DV?$StrTraitMFC_DLL@DV?$ChTraitsCRT@D@ATL@@@@@ATL@@XZ DD 0ffffffffH
	DD	FLAT:__unwindfunclet$?RemoveHead@?$CList@V?$CStringT@DV?$StrTraitMFC_DLL@DV?$ChTraitsCRT@D@ATL@@@@@ATL@@V12@@@QAE?AV?$CStringT@DV?$StrTraitMFC_DLL@DV?$ChTraitsCRT@D@ATL@@@@@ATL@@XZ$0
__ehfuncinfo$?RemoveHead@?$CList@V?$CStringT@DV?$StrTraitMFC_DLL@DV?$ChTraitsCRT@D@ATL@@@@@ATL@@V12@@@QAE?AV?$CStringT@DV?$StrTraitMFC_DLL@DV?$ChTraitsCRT@D@ATL@@@@@ATL@@XZ DD 019930522H
	DD	01H
	DD	FLAT:__unwindtable$?RemoveHead@?$CList@V?$CStringT@DV?$StrTraitMFC_DLL@DV?$ChTraitsCRT@D@ATL@@@@@ATL@@V12@@@QAE?AV?$CStringT@DV?$StrTraitMFC_DLL@DV?$ChTraitsCRT@D@ATL@@@@@ATL@@XZ
	DD	2 DUP(00H)
	DD	2 DUP(00H)
	DD	00H
	DD	01H
xdata$x	ENDS
; Function compile flags: /Ogtp
; File C:\Program Files (x86)\Microsoft Visual Studio\2019\Community\VC\Tools\MSVC\14.29.30133\atlmfc\include\afxtempl.h
; File C:\Program Files (x86)\Microsoft Visual Studio\2019\Community\VC\Tools\MSVC\14.29.30133\atlmfc\include\afx.inl
; File C:\Program Files (x86)\Microsoft Visual Studio\2019\Community\VC\Tools\MSVC\14.29.30133\atlmfc\include\afxtempl.h
; File C:\Program Files (x86)\Microsoft Visual Studio\2019\Community\VC\Tools\MSVC\14.29.30133\atlmfc\include\afx.inl
; File C:\Program Files (x86)\Microsoft Visual Studio\2019\Community\VC\Tools\MSVC\14.29.30133\atlmfc\include\afxtempl.h
; File C:\Program Files (x86)\Microsoft Visual Studio\2019\Community\VC\Tools\MSVC\14.29.30133\atlmfc\include\afx.inl
; File C:\Program Files (x86)\Microsoft Visual Studio\2019\Community\VC\Tools\MSVC\14.29.30133\atlmfc\include\afxtempl.h
;	COMDAT ??$SerializeElements@N@@YGXAAVCArchive@@PANH@Z
_TEXT	SEGMENT
_ar$ = 8						; size = 4
_pElements$ = 12					; size = 4
_nCount$ = 16						; size = 4
??$SerializeElements@N@@YGXAAVCArchive@@PANH@Z PROC	; SerializeElements<double>, COMDAT

; 67   : {

  00000	55		 push	 ebp
  00001	8b ec		 mov	 ebp, esp

; 68   : 	ENSURE(nCount == 0 || pElements != NULL);

  00003	8b 4d 0c	 mov	 ecx, DWORD PTR _pElements$[ebp]
  00006	53		 push	 ebx
  00007	56		 push	 esi
  00008	8b 75 10	 mov	 esi, DWORD PTR _nCount$[ebp]
  0000b	57		 push	 edi
  0000c	85 f6		 test	 esi, esi
  0000e	74 08		 je	 SHORT $LN2@SerializeE
  00010	85 c9		 test	 ecx, ecx
  00012	0f 84 89 00 00
	00		 je	 $LN34@SerializeE
$LN2@SerializeE:
; File C:\Program Files (x86)\Microsoft Visual Studio\2019\Community\VC\Tools\MSVC\14.29.30133\atlmfc\include\afx.inl

; 212  : 	{ return (m_nMode & CArchive::load) == 0; }

  00018	8b 55 08	 mov	 edx, DWORD PTR _ar$[ebp]
  0001b	8b 42 18	 mov	 eax, DWORD PTR [edx+24]
  0001e	f7 d0		 not	 eax
  00020	a8 01		 test	 al, 1
; File C:\Program Files (x86)\Microsoft Visual Studio\2019\Community\VC\Tools\MSVC\14.29.30133\atlmfc\include\afxtempl.h

; 73   : 	if (ar.IsStoring())

  00022	74 3c		 je	 SHORT $LN10@SerializeE

; 74   : 	{
; 75   : 		TYPE* pData;
; 76   : 		UINT_PTR nElementsLeft;
; 77   : 
; 78   : 		nElementsLeft = nCount;
; 79   : 		pData = pElements;
; 80   : 		while( nElementsLeft > 0 )

  00024	85 f6		 test	 esi, esi
  00026	74 31		 je	 SHORT $LN8@SerializeE
  00028	0f 1f 84 00 00
	00 00 00	 npad	 8
$LL5@SerializeE:

; 81   : 		{
; 82   : 			UINT nElementsToWrite;
; 83   : 
; 84   : 			nElementsToWrite = UINT(__min(nElementsLeft, INT_MAX/sizeof(TYPE)));

  00030	bb ff ff ff 0f	 mov	 ebx, 268435455		; 0fffffffH
  00035	3b f3		 cmp	 esi, ebx
  00037	0f 42 de	 cmovb	 ebx, esi

; 85   : 			ar.Write(pData, nElementsToWrite*sizeof(TYPE));

  0003a	8d 3c dd 00 00
	00 00		 lea	 edi, DWORD PTR [ebx*8]
  00041	57		 push	 edi
  00042	51		 push	 ecx
  00043	8b ca		 mov	 ecx, edx
  00045	e8 00 00 00 00	 call	 ?Write@CArchive@@QAEXPBXI@Z ; CArchive::Write

; 86   : 			nElementsLeft -= nElementsToWrite;
; 87   : 			pData += nElementsToWrite;

  0004a	8b 4d 0c	 mov	 ecx, DWORD PTR _pElements$[ebp]
  0004d	8b 55 08	 mov	 edx, DWORD PTR _ar$[ebp]
  00050	03 cf		 add	 ecx, edi
  00052	89 4d 0c	 mov	 DWORD PTR _pElements$[ebp], ecx
  00055	2b f3		 sub	 esi, ebx
  00057	75 d7		 jne	 SHORT $LL5@SerializeE
$LN8@SerializeE:
  00059	5f		 pop	 edi

; 105  : 		}
; 106  : 	}
; 107  : }

  0005a	5e		 pop	 esi
  0005b	5b		 pop	 ebx
  0005c	5d		 pop	 ebp
  0005d	c2 0c 00	 ret	 12			; 0000000cH
$LN10@SerializeE:

; 97   : 		while( nElementsLeft > 0 )

  00060	85 f6		 test	 esi, esi
  00062	74 f5		 je	 SHORT $LN8@SerializeE
$LL7@SerializeE:

; 98   : 		{
; 99   : 			UINT nElementsToRead;
; 100  : 
; 101  : 			nElementsToRead = UINT(__min(nElementsLeft, INT_MAX/sizeof(TYPE)));

  00064	bf ff ff ff 0f	 mov	 edi, 268435455		; 0fffffffH
  00069	3b f7		 cmp	 esi, edi
  0006b	0f 42 fe	 cmovb	 edi, esi

; 102  : 			ar.EnsureRead(pData, nElementsToRead*sizeof(TYPE));

  0006e	8d 1c fd 00 00
	00 00		 lea	 ebx, DWORD PTR [edi*8]
; File C:\Program Files (x86)\Microsoft Visual Studio\2019\Community\VC\Tools\MSVC\14.29.30133\atlmfc\include\afx.inl

; 399  : 	UINT nRead=Read(lpBuf, nCount);

  00075	53		 push	 ebx
  00076	51		 push	 ecx
  00077	8b ca		 mov	 ecx, edx
  00079	e8 00 00 00 00	 call	 ?Read@CArchive@@QAEIPAXI@Z ; CArchive::Read

; 400  : 	if(nRead!=nCount)

  0007e	3b c3		 cmp	 eax, ebx
  00080	75 16		 jne	 SHORT $LN23@SerializeE
; File C:\Program Files (x86)\Microsoft Visual Studio\2019\Community\VC\Tools\MSVC\14.29.30133\atlmfc\include\afxtempl.h

; 97   : 		while( nElementsLeft > 0 )

  00082	8b 4d 0c	 mov	 ecx, DWORD PTR _pElements$[ebp]
  00085	8b 55 08	 mov	 edx, DWORD PTR _ar$[ebp]

; 103  : 			nElementsLeft -= nElementsToRead;
; 104  : 			pData += nElementsToRead;

  00088	03 cb		 add	 ecx, ebx
  0008a	89 4d 0c	 mov	 DWORD PTR _pElements$[ebp], ecx
  0008d	2b f7		 sub	 esi, edi
  0008f	75 d3		 jne	 SHORT $LL7@SerializeE

; 105  : 		}
; 106  : 	}
; 107  : }

  00091	5f		 pop	 edi
  00092	5e		 pop	 esi
  00093	5b		 pop	 ebx
  00094	5d		 pop	 ebp
  00095	c2 0c 00	 ret	 12			; 0000000cH
$LN23@SerializeE:
; File C:\Program Files (x86)\Microsoft Visual Studio\2019\Community\VC\Tools\MSVC\14.29.30133\atlmfc\include\afx.inl

; 402  : 		AfxThrowArchiveException(CArchiveException::endOfFile);

  00098	6a 00		 push	 0
  0009a	6a 03		 push	 3
  0009c	e8 00 00 00 00	 call	 ?AfxThrowArchiveException@@YGXHPBD@Z ; AfxThrowArchiveException
$LN34@SerializeE:
; File C:\Program Files (x86)\Microsoft Visual Studio\2019\Community\VC\Tools\MSVC\14.29.30133\atlmfc\include\afxtempl.h

; 68   : 	ENSURE(nCount == 0 || pElements != NULL);

  000a1	e8 00 00 00 00	 call	 ?AfxThrowInvalidArgException@@YGXXZ ; AfxThrowInvalidArgException
$LN32@SerializeE:
  000a6	cc		 int	 3
??$SerializeElements@N@@YGXAAVCArchive@@PANH@Z ENDP	; SerializeElements<double>
_TEXT	ENDS
; Function compile flags: /Ogtp
;	COMDAT ??_ECPacketList@@UAEPAXI@Z
_TEXT	SEGMENT
__$EHRec$ = -12						; size = 12
___flags$ = 8						; size = 4
??_ECPacketList@@UAEPAXI@Z PROC				; CPacketList::`vector deleting destructor', COMDAT
; _this$ = ecx
  00000	55		 push	 ebp
  00001	8b ec		 mov	 ebp, esp
  00003	6a ff		 push	 -1
  00005	68 00 00 00 00	 push	 __ehhandler$??_ECPacketList@@UAEPAXI@Z
  0000a	64 a1 00 00 00
	00		 mov	 eax, DWORD PTR fs:0
  00010	50		 push	 eax
  00011	53		 push	 ebx
  00012	56		 push	 esi
  00013	57		 push	 edi
  00014	a1 00 00 00 00	 mov	 eax, DWORD PTR ___security_cookie
  00019	33 c5		 xor	 eax, ebp
  0001b	50		 push	 eax
  0001c	8d 45 f4	 lea	 eax, DWORD PTR __$EHRec$[ebp]
  0001f	64 a3 00 00 00
	00		 mov	 DWORD PTR fs:0, eax
  00025	8b f1		 mov	 esi, ecx
  00027	8b 45 08	 mov	 eax, DWORD PTR ___flags$[ebp]
  0002a	8b d8		 mov	 ebx, eax
  0002c	83 e3 01	 and	 ebx, 1
  0002f	a8 02		 test	 al, 2
  00031	74 40		 je	 SHORT $LN2@vector
  00033	68 00 00 00 00	 push	 OFFSET ??1CPacketList@@UAE@XZ ; CPacketList::~CPacketList
  00038	ff 76 fc	 push	 DWORD PTR [esi-4]
  0003b	8d 7e fc	 lea	 edi, DWORD PTR [esi-4]
  0003e	6a 08		 push	 8
  00040	56		 push	 esi
  00041	e8 00 00 00 00	 call	 ??_M@YGXPAXIIP6EX0@Z@Z
  00046	85 db		 test	 ebx, ebx
  00048	74 13		 je	 SHORT $LN3@vector
  0004a	8b 0f		 mov	 ecx, DWORD PTR [edi]
  0004c	8d 0c cd 04 00
	00 00		 lea	 ecx, DWORD PTR [ecx*8+4]
  00053	51		 push	 ecx
  00054	57		 push	 edi
  00055	e8 00 00 00 00	 call	 ??_V@YAXPAXI@Z		; operator delete[]
  0005a	83 c4 08	 add	 esp, 8
$LN3@vector:
  0005d	8b c7		 mov	 eax, edi
  0005f	8b 4d f4	 mov	 ecx, DWORD PTR __$EHRec$[ebp]
  00062	64 89 0d 00 00
	00 00		 mov	 DWORD PTR fs:0, ecx
  00069	59		 pop	 ecx
  0006a	5f		 pop	 edi
  0006b	5e		 pop	 esi
  0006c	5b		 pop	 ebx
  0006d	8b e5		 mov	 esp, ebp
  0006f	5d		 pop	 ebp
  00070	c2 04 00	 ret	 4
$LN2@vector:
  00073	e8 00 00 00 00	 call	 ??1CPacketList@@UAE@XZ	; CPacketList::~CPacketList
  00078	85 db		 test	 ebx, ebx
  0007a	74 0b		 je	 SHORT $LN4@vector
  0007c	6a 08		 push	 8
  0007e	56		 push	 esi
  0007f	e8 00 00 00 00	 call	 ??3@YAXPAXI@Z		; operator delete
  00084	83 c4 08	 add	 esp, 8
$LN4@vector:
  00087	8b c6		 mov	 eax, esi
  00089	8b 4d f4	 mov	 ecx, DWORD PTR __$EHRec$[ebp]
  0008c	64 89 0d 00 00
	00 00		 mov	 DWORD PTR fs:0, ecx
  00093	59		 pop	 ecx
  00094	5f		 pop	 edi
  00095	5e		 pop	 esi
  00096	5b		 pop	 ebx
  00097	8b e5		 mov	 esp, ebp
  00099	5d		 pop	 ebp
  0009a	c2 04 00	 ret	 4
  0009d	cc		 int	 3
  0009e	cc		 int	 3
  0009f	cc		 int	 3
  000a0	cc		 int	 3
  000a1	cc		 int	 3
_TEXT	ENDS
;	COMDAT text$x
text$x	SEGMENT
__ehhandler$??_ECPacketList@@UAEPAXI@Z:
  00000	90		 npad	 1
  00001	90		 npad	 1
  00002	8b 54 24 08	 mov	 edx, DWORD PTR [esp+8]
  00006	8d 42 0c	 lea	 eax, DWORD PTR [edx+12]
  00009	8b 4a f0	 mov	 ecx, DWORD PTR [edx-16]
  0000c	33 c8		 xor	 ecx, eax
  0000e	e8 00 00 00 00	 call	 @__security_check_cookie@4
  00013	b8 00 00 00 00	 mov	 eax, OFFSET __ehfuncinfo$??_ECPacketList@@UAEPAXI@Z
  00018	e9 00 00 00 00	 jmp	 ___CxxFrameHandler3
text$x	ENDS
??_ECPacketList@@UAEPAXI@Z ENDP				; CPacketList::`vector deleting destructor'
; Function compile flags: /Ogtp
;	COMDAT ??_GCPacketList@@UAEPAXI@Z
_TEXT	SEGMENT
___flags$ = 8						; size = 4
??_GCPacketList@@UAEPAXI@Z PROC				; CPacketList::`scalar deleting destructor', COMDAT
; _this$ = ecx
  00000	55		 push	 ebp
  00001	8b ec		 mov	 ebp, esp
  00003	56		 push	 esi
  00004	8b f1		 mov	 esi, ecx
  00006	e8 00 00 00 00	 call	 ??1CPacketList@@UAE@XZ	; CPacketList::~CPacketList
  0000b	f6 45 08 01	 test	 BYTE PTR ___flags$[ebp], 1
  0000f	74 0b		 je	 SHORT $LN4@scalar
  00011	6a 08		 push	 8
  00013	56		 push	 esi
  00014	e8 00 00 00 00	 call	 ??3@YAXPAXI@Z		; operator delete
  00019	83 c4 08	 add	 esp, 8
$LN4@scalar:
  0001c	8b c6		 mov	 eax, esi
  0001e	5e		 pop	 esi
  0001f	5d		 pop	 ebp
  00020	c2 04 00	 ret	 4
??_GCPacketList@@UAEPAXI@Z ENDP				; CPacketList::`scalar deleting destructor'
_TEXT	ENDS
; Function compile flags: /Ogtp
;	COMDAT ??4CPacketList@@QAEAAV0@ABV0@@Z
_TEXT	SEGMENT
___that$ = 8						; size = 4
??4CPacketList@@QAEAAV0@ABV0@@Z PROC			; CPacketList::operator=, COMDAT
; _this$ = ecx
  00000	55		 push	 ebp
  00001	8b ec		 mov	 ebp, esp
  00003	8b 45 08	 mov	 eax, DWORD PTR ___that$[ebp]
  00006	8b 40 04	 mov	 eax, DWORD PTR [eax+4]
  00009	89 41 04	 mov	 DWORD PTR [ecx+4], eax
  0000c	8b c1		 mov	 eax, ecx
  0000e	5d		 pop	 ebp
  0000f	c2 04 00	 ret	 4
??4CPacketList@@QAEAAV0@ABV0@@Z ENDP			; CPacketList::operator=
_TEXT	ENDS
; Function compile flags: /Ogtp
;	COMDAT ??0CPacketList@@QAE@ABV0@@Z
_TEXT	SEGMENT
___that$ = 8						; size = 4
??0CPacketList@@QAE@ABV0@@Z PROC			; CPacketList::CPacketList, COMDAT
; _this$ = ecx
  00000	55		 push	 ebp
  00001	8b ec		 mov	 ebp, esp
  00003	8b 45 08	 mov	 eax, DWORD PTR ___that$[ebp]
  00006	c7 01 00 00 00
	00		 mov	 DWORD PTR [ecx], OFFSET ??_7CPacketList@@6B@
  0000c	8b 40 04	 mov	 eax, DWORD PTR [eax+4]
  0000f	89 41 04	 mov	 DWORD PTR [ecx+4], eax
  00012	8b c1		 mov	 eax, ecx
  00014	5d		 pop	 ebp
  00015	c2 04 00	 ret	 4
??0CPacketList@@QAE@ABV0@@Z ENDP			; CPacketList::CPacketList
_TEXT	ENDS
; Function compile flags: /Ogtp
; File D:\git\src\IBK\IBK_DRFN\ProjSrc\SrcChartEx\ChartOCX\PacketData\PacketImplementation.cpp
; File C:\Program Files (x86)\Microsoft Visual Studio\2019\Community\VC\Tools\MSVC\14.29.30133\atlmfc\include\afxtempl.h
; File D:\git\src\IBK\IBK_DRFN\ProjSrc\SrcChartEx\ChartOCX\PacketData\PacketImplementation.cpp
; File C:\Program Files (x86)\Microsoft Visual Studio\2019\Community\VC\Tools\MSVC\14.29.30133\atlmfc\include\afxtempl.h
; File D:\git\src\IBK\IBK_DRFN\ProjSrc\SrcChartEx\ChartOCX\PacketData\PacketImplementation.cpp
; File C:\Program Files (x86)\Microsoft Visual Studio\2019\Community\VC\Tools\MSVC\14.29.30133\atlmfc\include\afxtempl.h
; File D:\git\src\IBK\IBK_DRFN\ProjSrc\SrcChartEx\ChartOCX\PacketData\PacketImplementation.cpp
; File C:\Program Files (x86)\Microsoft Visual Studio\2019\Community\VC\Tools\MSVC\14.29.30133\atlmfc\include\afxtempl.h
; File D:\git\src\IBK\IBK_DRFN\ProjSrc\SrcChartEx\ChartOCX\PacketData\PacketImplementation.cpp
; File C:\Program Files (x86)\Microsoft Visual Studio\2019\Community\VC\Tools\MSVC\14.29.30133\atlmfc\include\afxtempl.h
; File D:\git\src\IBK\IBK_DRFN\ProjSrc\SrcChartEx\ChartOCX\PacketData\PacketImplementation.cpp
; File C:\Program Files (x86)\Microsoft Visual Studio\2019\Community\VC\Tools\MSVC\14.29.30133\atlmfc\include\afxtempl.h
; File D:\git\src\IBK\IBK_DRFN\ProjSrc\SrcChartEx\ChartOCX\PacketData\PacketImplementation.cpp
; File C:\Program Files (x86)\Microsoft Visual Studio\2019\Community\VC\Tools\MSVC\14.29.30133\atlmfc\include\afxtempl.h
; File D:\git\src\IBK\IBK_DRFN\ProjSrc\SrcChartEx\ChartOCX\PacketData\PacketImplementation.cpp
;	COMDAT ??_GCPacketImplementation@@UAEPAXI@Z
_TEXT	SEGMENT
__$EHRec$ = -12						; size = 12
___flags$ = 8						; size = 4
??_GCPacketImplementation@@UAEPAXI@Z PROC		; CPacketImplementation::`scalar deleting destructor', COMDAT
; _this$ = ecx
  00000	55		 push	 ebp
  00001	8b ec		 mov	 ebp, esp
  00003	6a ff		 push	 -1
  00005	68 00 00 00 00	 push	 __ehhandler$??_GCPacketImplementation@@UAEPAXI@Z
  0000a	64 a1 00 00 00
	00		 mov	 eax, DWORD PTR fs:0
  00010	50		 push	 eax
  00011	56		 push	 esi
  00012	57		 push	 edi
  00013	a1 00 00 00 00	 mov	 eax, DWORD PTR ___security_cookie
  00018	33 c5		 xor	 eax, ebp
  0001a	50		 push	 eax
  0001b	8d 45 f4	 lea	 eax, DWORD PTR __$EHRec$[ebp]
  0001e	64 a3 00 00 00
	00		 mov	 DWORD PTR fs:0, eax
  00024	8b f9		 mov	 edi, ecx

; 65   : {

  00026	c7 07 00 00 00
	00		 mov	 DWORD PTR [edi], OFFSET ??_7CPacketImplementation@@6B@
; File C:\Program Files (x86)\Microsoft Visual Studio\2019\Community\VC\Tools\MSVC\14.29.30133\atlmfc\include\afxtempl.h

; 872  : 	m_pBlocks->FreeDataChain();

  0002c	8b 8f a8 00 00
	00		 mov	 ecx, DWORD PTR [edi+168]
; File D:\git\src\IBK\IBK_DRFN\ProjSrc\SrcChartEx\ChartOCX\PacketData\PacketImplementation.cpp

; 65   : {

  00032	c7 45 fc 00 00
	00 00		 mov	 DWORD PTR __$EHRec$[ebp+8], 0
; File C:\Program Files (x86)\Microsoft Visual Studio\2019\Community\VC\Tools\MSVC\14.29.30133\atlmfc\include\afxtempl.h

; 870  : 	m_nCount = 0;

  00039	c7 87 a0 00 00
	00 00 00 00 00	 mov	 DWORD PTR [edi+160], 0

; 871  : 	m_pNodeHead = m_pNodeTail = m_pNodeFree = NULL;

  00043	c7 87 a4 00 00
	00 00 00 00 00	 mov	 DWORD PTR [edi+164], 0
  0004d	c7 87 9c 00 00
	00 00 00 00 00	 mov	 DWORD PTR [edi+156], 0
  00057	c7 87 98 00 00
	00 00 00 00 00	 mov	 DWORD PTR [edi+152], 0

; 872  : 	m_pBlocks->FreeDataChain();

  00061	e8 00 00 00 00	 call	 ?FreeDataChain@CPlex@@QAEXXZ ; CPlex::FreeDataChain
; File D:\git\src\IBK\IBK_DRFN\ProjSrc\SrcChartEx\ChartOCX\PacketData\PacketImplementation.cpp

; 67   : 	m_lstrData.RemoveAll();

  00066	8d 8f b0 00 00
	00		 lea	 ecx, DWORD PTR [edi+176]
; File C:\Program Files (x86)\Microsoft Visual Studio\2019\Community\VC\Tools\MSVC\14.29.30133\atlmfc\include\afxtempl.h

; 873  : 	m_pBlocks = NULL;

  0006c	c7 87 a8 00 00
	00 00 00 00 00	 mov	 DWORD PTR [edi+168], 0
; File D:\git\src\IBK\IBK_DRFN\ProjSrc\SrcChartEx\ChartOCX\PacketData\PacketImplementation.cpp

; 67   : 	m_lstrData.RemoveAll();

  00076	e8 00 00 00 00	 call	 ?RemoveAll@?$CList@V?$CStringT@DV?$StrTraitMFC_DLL@DV?$ChTraitsCRT@D@ATL@@@@@ATL@@V12@@@QAEXXZ ; CList<ATL::CStringT<char,StrTraitMFC_DLL<char,ATL::ChTraitsCRT<char> > >,ATL::CStringT<char,StrTraitMFC_DLL<char,ATL::ChTraitsCRT<char> > > >::RemoveAll
; File C:\Program Files (x86)\Microsoft Visual Studio\2019\Community\VC\Tools\MSVC\14.29.30133\atlmfc\include\afxtempl.h

; 872  : 	m_pBlocks->FreeDataChain();

  0007b	8b 8f e4 00 00
	00		 mov	 ecx, DWORD PTR [edi+228]
  00081	c7 87 dc 00 00
	00 00 00 00 00	 mov	 DWORD PTR [edi+220], 0
  0008b	c7 87 e0 00 00
	00 00 00 00 00	 mov	 DWORD PTR [edi+224], 0
  00095	c7 87 d8 00 00
	00 00 00 00 00	 mov	 DWORD PTR [edi+216], 0
  0009f	c7 87 d4 00 00
	00 00 00 00 00	 mov	 DWORD PTR [edi+212], 0
  000a9	e8 00 00 00 00	 call	 ?FreeDataChain@CPlex@@QAEXXZ ; CPlex::FreeDataChain
; File D:\git\src\IBK\IBK_DRFN\ProjSrc\SrcChartEx\ChartOCX\PacketData\PacketImplementation.cpp

; 69   : }

  000ae	8d 8f 58 01 00
	00		 lea	 ecx, DWORD PTR [edi+344]
; File C:\Program Files (x86)\Microsoft Visual Studio\2019\Community\VC\Tools\MSVC\14.29.30133\atlmfc\include\afxtempl.h

; 873  : 	m_pBlocks = NULL;

  000b4	c7 87 e4 00 00
	00 00 00 00 00	 mov	 DWORD PTR [edi+228], 0
; File D:\git\src\IBK\IBK_DRFN\ProjSrc\SrcChartEx\ChartOCX\PacketData\PacketImplementation.cpp

; 69   : }

  000be	ff 15 00 00 00
	00		 call	 DWORD PTR __imp_??1?$CStringT@DV?$StrTraitMFC_DLL@DV?$ChTraitsCRT@D@ATL@@@@@ATL@@QAE@XZ
  000c4	8d 8f 0c 01 00
	00		 lea	 ecx, DWORD PTR [edi+268]
  000ca	ff 15 00 00 00
	00		 call	 DWORD PTR __imp_??1?$CStringT@DV?$StrTraitMFC_DLL@DV?$ChTraitsCRT@D@ATL@@@@@ATL@@QAE@XZ
; File C:\Program Files (x86)\Microsoft Visual Studio\2019\Community\VC\Tools\MSVC\14.29.30133\atlmfc\include\afxtempl.h

; 872  : 	m_pBlocks->FreeDataChain();

  000d0	8b 8f e4 00 00
	00		 mov	 ecx, DWORD PTR [edi+228]

; 878  : {

  000d6	c6 45 fc 01	 mov	 BYTE PTR __$EHRec$[ebp+8], 1
  000da	c7 87 d0 00 00
	00 00 00 00 00	 mov	 DWORD PTR [edi+208], OFFSET ??_7?$CList@NN@@6B@

; 870  : 	m_nCount = 0;

  000e4	c7 87 dc 00 00
	00 00 00 00 00	 mov	 DWORD PTR [edi+220], 0

; 871  : 	m_pNodeHead = m_pNodeTail = m_pNodeFree = NULL;

  000ee	c7 87 e0 00 00
	00 00 00 00 00	 mov	 DWORD PTR [edi+224], 0
  000f8	c7 87 d8 00 00
	00 00 00 00 00	 mov	 DWORD PTR [edi+216], 0
  00102	c7 87 d4 00 00
	00 00 00 00 00	 mov	 DWORD PTR [edi+212], 0

; 872  : 	m_pBlocks->FreeDataChain();

  0010c	e8 00 00 00 00	 call	 ?FreeDataChain@CPlex@@QAEXXZ ; CPlex::FreeDataChain

; 873  : 	m_pBlocks = NULL;

  00111	c7 87 e4 00 00
	00 00 00 00 00	 mov	 DWORD PTR [edi+228], 0

; 879  : 	RemoveAll();

  0011b	8d 8f b0 00 00
	00		 lea	 ecx, DWORD PTR [edi+176]
  00121	c6 45 fc 02	 mov	 BYTE PTR __$EHRec$[ebp+8], 2
  00125	c7 87 b0 00 00
	00 00 00 00 00	 mov	 DWORD PTR [edi+176], OFFSET ??_7?$CList@V?$CStringT@DV?$StrTraitMFC_DLL@DV?$ChTraitsCRT@D@ATL@@@@@ATL@@V12@@@6B@
  0012f	e8 00 00 00 00	 call	 ?RemoveAll@?$CList@V?$CStringT@DV?$StrTraitMFC_DLL@DV?$ChTraitsCRT@D@ATL@@@@@ATL@@V12@@@QAEXXZ ; CList<ATL::CStringT<char,StrTraitMFC_DLL<char,ATL::ChTraitsCRT<char> > >,ATL::CStringT<char,StrTraitMFC_DLL<char,ATL::ChTraitsCRT<char> > > >::RemoveAll

; 872  : 	m_pBlocks->FreeDataChain();

  00134	8b 8f a8 00 00
	00		 mov	 ecx, DWORD PTR [edi+168]

; 878  : {

  0013a	c6 45 fc 03	 mov	 BYTE PTR __$EHRec$[ebp+8], 3
  0013e	c7 87 94 00 00
	00 00 00 00 00	 mov	 DWORD PTR [edi+148], OFFSET ??_7?$CList@NN@@6B@

; 870  : 	m_nCount = 0;

  00148	c7 87 a0 00 00
	00 00 00 00 00	 mov	 DWORD PTR [edi+160], 0

; 871  : 	m_pNodeHead = m_pNodeTail = m_pNodeFree = NULL;

  00152	c7 87 a4 00 00
	00 00 00 00 00	 mov	 DWORD PTR [edi+164], 0
  0015c	c7 87 9c 00 00
	00 00 00 00 00	 mov	 DWORD PTR [edi+156], 0
  00166	c7 87 98 00 00
	00 00 00 00 00	 mov	 DWORD PTR [edi+152], 0

; 872  : 	m_pBlocks->FreeDataChain();

  00170	e8 00 00 00 00	 call	 ?FreeDataChain@CPlex@@QAEXXZ ; CPlex::FreeDataChain
; File D:\git\src\IBK\IBK_DRFN\ProjSrc\SrcChartEx\ChartOCX\PacketData\PacketImplementation.cpp

; 69   : }

  00175	8d 8f 90 00 00
	00		 lea	 ecx, DWORD PTR [edi+144]
; File C:\Program Files (x86)\Microsoft Visual Studio\2019\Community\VC\Tools\MSVC\14.29.30133\atlmfc\include\afxtempl.h

; 873  : 	m_pBlocks = NULL;

  0017b	c7 87 a8 00 00
	00 00 00 00 00	 mov	 DWORD PTR [edi+168], 0
; File D:\git\src\IBK\IBK_DRFN\ProjSrc\SrcChartEx\ChartOCX\PacketData\PacketImplementation.cpp

; 69   : }

  00185	ff 15 00 00 00
	00		 call	 DWORD PTR __imp_??1?$CStringT@DV?$StrTraitMFC_DLL@DV?$ChTraitsCRT@D@ATL@@@@@ATL@@QAE@XZ
  0018b	8d 8f 8c 00 00
	00		 lea	 ecx, DWORD PTR [edi+140]
  00191	ff 15 00 00 00
	00		 call	 DWORD PTR __imp_??1?$CStringT@DV?$StrTraitMFC_DLL@DV?$ChTraitsCRT@D@ATL@@@@@ATL@@QAE@XZ
  00197	8d 8f 88 00 00
	00		 lea	 ecx, DWORD PTR [edi+136]
  0019d	ff 15 00 00 00
	00		 call	 DWORD PTR __imp_??1?$CStringT@DV?$StrTraitMFC_DLL@DV?$ChTraitsCRT@D@ATL@@@@@ATL@@QAE@XZ
  001a3	8d 8f 84 00 00
	00		 lea	 ecx, DWORD PTR [edi+132]
  001a9	ff 15 00 00 00
	00		 call	 DWORD PTR __imp_??1?$CStringT@DV?$StrTraitMFC_DLL@DV?$ChTraitsCRT@D@ATL@@@@@ATL@@QAE@XZ
  001af	8d 4f 68	 lea	 ecx, DWORD PTR [edi+104]
  001b2	ff 15 00 00 00
	00		 call	 DWORD PTR __imp_??1?$CStringT@DV?$StrTraitMFC_DLL@DV?$ChTraitsCRT@D@ATL@@@@@ATL@@QAE@XZ
  001b8	8d 4f 64	 lea	 ecx, DWORD PTR [edi+100]
  001bb	ff 15 00 00 00
	00		 call	 DWORD PTR __imp_??1?$CStringT@DV?$StrTraitMFC_DLL@DV?$ChTraitsCRT@D@ATL@@@@@ATL@@QAE@XZ
  001c1	f6 45 08 01	 test	 BYTE PTR ___flags$[ebp], 1
  001c5	74 0e		 je	 SHORT $LN58@scalar
  001c7	68 60 01 00 00	 push	 352			; 00000160H
  001cc	57		 push	 edi
  001cd	e8 00 00 00 00	 call	 ??3@YAXPAXI@Z		; operator delete
  001d2	83 c4 08	 add	 esp, 8
$LN58@scalar:
  001d5	8b c7		 mov	 eax, edi
  001d7	8b 4d f4	 mov	 ecx, DWORD PTR __$EHRec$[ebp]
  001da	64 89 0d 00 00
	00 00		 mov	 DWORD PTR fs:0, ecx
  001e1	59		 pop	 ecx
  001e2	5f		 pop	 edi
  001e3	5e		 pop	 esi
  001e4	8b e5		 mov	 esp, ebp
  001e6	5d		 pop	 ebp
  001e7	c2 04 00	 ret	 4
  001ea	cc		 int	 3
  001eb	cc		 int	 3
  001ec	cc		 int	 3
  001ed	cc		 int	 3
  001ee	cc		 int	 3
_TEXT	ENDS
;	COMDAT text$x
text$x	SEGMENT
__ehhandler$??_GCPacketImplementation@@UAEPAXI@Z:
  00000	90		 npad	 1
  00001	90		 npad	 1
  00002	8b 54 24 08	 mov	 edx, DWORD PTR [esp+8]
  00006	8d 42 0c	 lea	 eax, DWORD PTR [edx+12]
  00009	8b 4a f4	 mov	 ecx, DWORD PTR [edx-12]
  0000c	33 c8		 xor	 ecx, eax
  0000e	e8 00 00 00 00	 call	 @__security_check_cookie@4
  00013	b8 00 00 00 00	 mov	 eax, OFFSET __ehfuncinfo$??_GCPacketImplementation@@UAEPAXI@Z
  00018	e9 00 00 00 00	 jmp	 ___CxxFrameHandler3
text$x	ENDS
??_GCPacketImplementation@@UAEPAXI@Z ENDP		; CPacketImplementation::`scalar deleting destructor'
; Function compile flags: /Ogtp
; File D:\git\src\IBK\IBK_DRFN\ProjSrc\SrcChartEx\ChartOCX\PacketData\PacketImplementation.cpp
;	COMDAT ?CalcTimeDiff@CPacketImplementation@@QAENNH@Z
_TEXT	SEGMENT
___$ReturnUdt$ = -20					; size = 4
$T2 = -16						; size = 4
__$EHRec$ = -12						; size = 12
_dData$ = 8						; size = 8
_nTimeDiff$ = 16					; size = 4
?CalcTimeDiff@CPacketImplementation@@QAENNH@Z PROC	; CPacketImplementation::CalcTimeDiff, COMDAT
; _this$ = ecx

; 1902 : {

  00000	55		 push	 ebp
  00001	8b ec		 mov	 ebp, esp
  00003	6a ff		 push	 -1
  00005	68 00 00 00 00	 push	 __ehhandler$?CalcTimeDiff@CPacketImplementation@@QAENNH@Z
  0000a	64 a1 00 00 00
	00		 mov	 eax, DWORD PTR fs:0
  00010	50		 push	 eax
  00011	83 ec 08	 sub	 esp, 8
  00014	56		 push	 esi
  00015	a1 00 00 00 00	 mov	 eax, DWORD PTR ___security_cookie
  0001a	33 c5		 xor	 eax, ebp
  0001c	50		 push	 eax
  0001d	8d 45 f4	 lea	 eax, DWORD PTR __$EHRec$[ebp]
  00020	64 a3 00 00 00
	00		 mov	 DWORD PTR fs:0, eax
  00026	8b f1		 mov	 esi, ecx

; 1903 : 	return CDataConversion::CalcTimeDiff(dData, nTimeDiff, m_pParentList->GetBaseTimeDifference(), GetType());

  00028	51		 push	 ecx
  00029	8b cc		 mov	 ecx, esp
  0002b	89 65 f0	 mov	 DWORD PTR $T2[ebp], esp

; 489  : 		return m_Type;

  0002e	8d 46 64	 lea	 eax, DWORD PTR [esi+100]

; 1903 : 	return CDataConversion::CalcTimeDiff(dData, nTimeDiff, m_pParentList->GetBaseTimeDifference(), GetType());

  00031	89 4d ec	 mov	 DWORD PTR ___$ReturnUdt$[ebp], ecx

; 489  : 		return m_Type;

  00034	50		 push	 eax
  00035	ff 15 00 00 00
	00		 call	 DWORD PTR __imp_??0?$CStringT@DV?$StrTraitMFC_DLL@DV?$ChTraitsCRT@D@ATL@@@@@ATL@@QAE@ABV01@@Z

; 1903 : 	return CDataConversion::CalcTimeDiff(dData, nTimeDiff, m_pParentList->GetBaseTimeDifference(), GetType());

  0003b	8b 8e cc 00 00
	00		 mov	 ecx, DWORD PTR [esi+204]
  00041	c7 45 fc 00 00
	00 00		 mov	 DWORD PTR __$EHRec$[ebp+8], 0
  00048	e8 00 00 00 00	 call	 ?GetBaseTimeDifference@CPacketList@@QAEHXZ ; CPacketList::GetBaseTimeDifference
  0004d	f2 0f 10 45 08	 movsd	 xmm0, QWORD PTR _dData$[ebp]
  00052	50		 push	 eax
  00053	ff 75 10	 push	 DWORD PTR _nTimeDiff$[ebp]
  00056	c7 45 fc ff ff
	ff ff		 mov	 DWORD PTR __$EHRec$[ebp+8], -1
  0005d	83 ec 08	 sub	 esp, 8
  00060	f2 0f 11 04 24	 movsd	 QWORD PTR [esp], xmm0
  00065	e8 00 00 00 00	 call	 ?CalcTimeDiff@CDataConversion@@SANNHHV?$CStringT@DV?$StrTraitMFC_DLL@DV?$ChTraitsCRT@D@ATL@@@@@ATL@@@Z ; CDataConversion::CalcTimeDiff
  0006a	83 c4 14	 add	 esp, 20			; 00000014H

; 1904 : }

  0006d	8b 4d f4	 mov	 ecx, DWORD PTR __$EHRec$[ebp]
  00070	64 89 0d 00 00
	00 00		 mov	 DWORD PTR fs:0, ecx
  00077	59		 pop	 ecx
  00078	5e		 pop	 esi
  00079	8b e5		 mov	 esp, ebp
  0007b	5d		 pop	 ebp
  0007c	c2 0c 00	 ret	 12			; 0000000cH
_TEXT	ENDS
;	COMDAT text$x
text$x	SEGMENT
__unwindfunclet$?CalcTimeDiff@CPacketImplementation@@QAENNH@Z$0:
  00000	8b 4d f0	 mov	 ecx, DWORD PTR $T2[ebp]
  00003	ff 25 00 00 00
	00		 jmp	 DWORD PTR __imp_??1?$CStringT@DV?$StrTraitMFC_DLL@DV?$ChTraitsCRT@D@ATL@@@@@ATL@@QAE@XZ
  00009	cc		 int	 3
  0000a	cc		 int	 3
  0000b	cc		 int	 3
  0000c	cc		 int	 3
  0000d	cc		 int	 3
__ehhandler$?CalcTimeDiff@CPacketImplementation@@QAENNH@Z:
  0000e	90		 npad	 1
  0000f	90		 npad	 1
  00010	8b 54 24 08	 mov	 edx, DWORD PTR [esp+8]
  00014	8d 42 0c	 lea	 eax, DWORD PTR [edx+12]
  00017	8b 4a f0	 mov	 ecx, DWORD PTR [edx-16]
  0001a	33 c8		 xor	 ecx, eax
  0001c	e8 00 00 00 00	 call	 @__security_check_cookie@4
  00021	b8 00 00 00 00	 mov	 eax, OFFSET __ehfuncinfo$?CalcTimeDiff@CPacketImplementation@@QAENNH@Z
  00026	e9 00 00 00 00	 jmp	 ___CxxFrameHandler3
text$x	ENDS
?CalcTimeDiff@CPacketImplementation@@QAENNH@Z ENDP	; CPacketImplementation::CalcTimeDiff
; Function compile flags: /Ogtp
; File D:\git\src\IBK\IBK_DRFN\ProjSrc\SrcChartEx\ChartOCX\PacketData\PacketImplementation.cpp
; File C:\Program Files (x86)\Microsoft Visual Studio\2019\Community\VC\Tools\MSVC\14.29.30133\atlmfc\include\afxtempl.h
; File D:\git\src\IBK\IBK_DRFN\ProjSrc\SrcChartEx\ChartOCX\PacketData\PacketImplementation.cpp
; File C:\Program Files (x86)\Microsoft Visual Studio\2019\Community\VC\Tools\MSVC\14.29.30133\atlmfc\include\afxtempl.h
; File D:\git\src\IBK\IBK_DRFN\ProjSrc\SrcChartEx\ChartOCX\PacketData\PacketImplementation.cpp
;	COMDAT ?CalcPacketTimeDiff@CPacketImplementation@@QAEXH@Z
_TEXT	SEGMENT
tv149 = -28						; size = 8
_lTime$1$ = -28						; size = 8
_strType$ = -16						; size = 4
__$EHRec$ = -12						; size = 12
_nBaseTimeDiff$1$ = 8					; size = 4
_nTimeDiff$ = 8						; size = 4
?CalcPacketTimeDiff@CPacketImplementation@@QAEXH@Z PROC	; CPacketImplementation::CalcPacketTimeDiff, COMDAT
; _this$ = ecx

; 1879 : {

  00000	55		 push	 ebp
  00001	8b ec		 mov	 ebp, esp
  00003	6a ff		 push	 -1
  00005	68 00 00 00 00	 push	 __ehhandler$?CalcPacketTimeDiff@CPacketImplementation@@QAEXH@Z
  0000a	64 a1 00 00 00
	00		 mov	 eax, DWORD PTR fs:0
  00010	50		 push	 eax
  00011	83 ec 10	 sub	 esp, 16			; 00000010H
  00014	53		 push	 ebx
  00015	56		 push	 esi
  00016	57		 push	 edi
  00017	a1 00 00 00 00	 mov	 eax, DWORD PTR ___security_cookie
  0001c	33 c5		 xor	 eax, ebp
  0001e	50		 push	 eax
  0001f	8d 45 f4	 lea	 eax, DWORD PTR __$EHRec$[ebp]
  00022	64 a3 00 00 00
	00		 mov	 DWORD PTR fs:0, eax
  00028	8b f9		 mov	 edi, ecx

; 489  : 		return m_Type;

  0002a	8d 47 64	 lea	 eax, DWORD PTR [edi+100]
  0002d	50		 push	 eax
  0002e	8d 4d f0	 lea	 ecx, DWORD PTR _strType$[ebp]
  00031	ff 15 00 00 00
	00		 call	 DWORD PTR __imp_??0?$CStringT@DV?$StrTraitMFC_DLL@DV?$ChTraitsCRT@D@ATL@@@@@ATL@@QAE@ABV01@@Z

; 1880 : 	CString strType = GetType();
; 1881 : 	int nTime = 0, nPosition;
; 1882 : 	if( (nPosition = strType.Find("HH")) < 0 )	// Packet       .

  00037	6a 00		 push	 0
  00039	68 00 00 00 00	 push	 OFFSET ??_C@_02EGJHDPJI@HH@
  0003e	8d 4d f0	 lea	 ecx, DWORD PTR _strType$[ebp]
  00041	c7 45 fc 00 00
	00 00		 mov	 DWORD PTR __$EHRec$[ebp+8], 0
  00048	ff 15 00 00 00
	00		 call	 DWORD PTR __imp_?Find@?$CStringT@DV?$StrTraitMFC_DLL@DV?$ChTraitsCRT@D@ATL@@@@@ATL@@QBEHPBDH@Z
  0004e	85 c0		 test	 eax, eax
  00050	78 7a		 js	 SHORT $LN3@CalcPacket

; 1883 : 		return;
; 1884 : 
; 1885 : 	int nOldTimeDiff = 0;
; 1886 : 	if(m_pParentList)

  00052	8b 8f cc 00 00
	00		 mov	 ecx, DWORD PTR [edi+204]
  00058	33 f6		 xor	 esi, esi
  0005a	85 c9		 test	 ecx, ecx
  0005c	74 0d		 je	 SHORT $LN5@CalcPacket

; 1887 : 		nOldTimeDiff = m_pParentList->GetBaseTimeDifference();

  0005e	e8 00 00 00 00	 call	 ?GetBaseTimeDifference@CPacketList@@QAEHXZ ; CPacketList::GetBaseTimeDifference
  00063	8b 8f cc 00 00
	00		 mov	 ecx, DWORD PTR [edi+204]
  00069	8b f0		 mov	 esi, eax
$LN5@CalcPacket:

; 1888 : 	m_pParentList->SetBaseTimeDifference(nTimeDiff);

  0006b	8b 5d 08	 mov	 ebx, DWORD PTR _nTimeDiff$[ebp]
  0006e	53		 push	 ebx
  0006f	e8 00 00 00 00	 call	 ?SetBaseTimeDifference@CPacketList@@QAEXH@Z ; CPacketList::SetBaseTimeDifference

; 1889 : 	int nBaseTimeDiff = nTimeDiff - nOldTimeDiff;
; 1890 : 
; 1891 : 	double lTime, newTime;
; 1892 : 	POSITION pos = m_lnData.GetHeadPosition(), prePos;

  00074	8b bf 98 00 00
	00		 mov	 edi, DWORD PTR [edi+152]
  0007a	8b c3		 mov	 eax, ebx
  0007c	2b c6		 sub	 eax, esi
  0007e	89 45 08	 mov	 DWORD PTR _nBaseTimeDiff$1$[ebp], eax

; 1893 : 	while( pos )

  00081	85 ff		 test	 edi, edi
  00083	74 47		 je	 SHORT $LN3@CalcPacket
$LL2@CalcPacket:
; File C:\Program Files (x86)\Microsoft Visual Studio\2019\Community\VC\Tools\MSVC\14.29.30133\atlmfc\include\afxtempl.h

; 811  : 	{ CNode* pNode = (CNode*) rPosition;

  00085	8b c7		 mov	 eax, edi
; File D:\git\src\IBK\IBK_DRFN\ProjSrc\SrcChartEx\ChartOCX\PacketData\PacketImplementation.cpp

; 1895 : 		prePos = pos;

  00087	8b f7		 mov	 esi, edi
; File C:\Program Files (x86)\Microsoft Visual Studio\2019\Community\VC\Tools\MSVC\14.29.30133\atlmfc\include\afxtempl.h

; 813  : 		rPosition = (POSITION) pNode->pNext;

  00089	8b 3f		 mov	 edi, DWORD PTR [edi]
; File D:\git\src\IBK\IBK_DRFN\ProjSrc\SrcChartEx\ChartOCX\PacketData\PacketImplementation.cpp

; 1897 : 		newTime = CDataConversion::CalcTimeDiff(lTime, nBaseTimeDiff, nTimeDiff, strType);

  0008b	51		 push	 ecx
  0008c	8b cc		 mov	 ecx, esp
  0008e	f2 0f 10 40 08	 movsd	 xmm0, QWORD PTR [eax+8]
  00093	8d 45 f0	 lea	 eax, DWORD PTR _strType$[ebp]
  00096	50		 push	 eax
  00097	f2 0f 11 45 e4	 movsd	 QWORD PTR _lTime$1$[ebp], xmm0
  0009c	ff 15 00 00 00
	00		 call	 DWORD PTR __imp_??0?$CStringT@DV?$StrTraitMFC_DLL@DV?$ChTraitsCRT@D@ATL@@@@@ATL@@QAE@ABV01@@Z
  000a2	f2 0f 10 45 e4	 movsd	 xmm0, QWORD PTR _lTime$1$[ebp]
  000a7	53		 push	 ebx
  000a8	ff 75 08	 push	 DWORD PTR _nBaseTimeDiff$1$[ebp]
  000ab	83 ec 08	 sub	 esp, 8
  000ae	f2 0f 11 04 24	 movsd	 QWORD PTR [esp], xmm0
  000b3	e8 00 00 00 00	 call	 ?CalcTimeDiff@CDataConversion@@SANNHHV?$CStringT@DV?$StrTraitMFC_DLL@DV?$ChTraitsCRT@D@ATL@@@@@ATL@@@Z ; CDataConversion::CalcTimeDiff
  000b8	dd 5d e4	 fstp	 QWORD PTR tv149[ebp]

; 1898 : 		m_lnData.SetAt(prePos, newTime);

  000bb	f2 0f 10 45 e4	 movsd	 xmm0, QWORD PTR tv149[ebp]
  000c0	83 c4 14	 add	 esp, 20			; 00000014H
  000c3	f2 0f 11 46 08	 movsd	 QWORD PTR [esi+8], xmm0
  000c8	85 ff		 test	 edi, edi
  000ca	75 b9		 jne	 SHORT $LL2@CalcPacket
$LN3@CalcPacket:

; 1899 : 	}
; 1900 : }

  000cc	8d 4d f0	 lea	 ecx, DWORD PTR _strType$[ebp]
  000cf	ff 15 00 00 00
	00		 call	 DWORD PTR __imp_??1?$CStringT@DV?$StrTraitMFC_DLL@DV?$ChTraitsCRT@D@ATL@@@@@ATL@@QAE@XZ
  000d5	8b 4d f4	 mov	 ecx, DWORD PTR __$EHRec$[ebp]
  000d8	64 89 0d 00 00
	00 00		 mov	 DWORD PTR fs:0, ecx
  000df	59		 pop	 ecx
  000e0	5f		 pop	 edi
  000e1	5e		 pop	 esi
  000e2	5b		 pop	 ebx
  000e3	8b e5		 mov	 esp, ebp
  000e5	5d		 pop	 ebp
  000e6	c2 04 00	 ret	 4
_TEXT	ENDS
;	COMDAT text$x
text$x	SEGMENT
__unwindfunclet$?CalcPacketTimeDiff@CPacketImplementation@@QAEXH@Z$0:
  00000	8d 4d f0	 lea	 ecx, DWORD PTR _strType$[ebp]
  00003	ff 25 00 00 00
	00		 jmp	 DWORD PTR __imp_??1?$CStringT@DV?$StrTraitMFC_DLL@DV?$ChTraitsCRT@D@ATL@@@@@ATL@@QAE@XZ
  00009	cc		 int	 3
  0000a	cc		 int	 3
  0000b	cc		 int	 3
  0000c	cc		 int	 3
  0000d	cc		 int	 3
__ehhandler$?CalcPacketTimeDiff@CPacketImplementation@@QAEXH@Z:
  0000e	90		 npad	 1
  0000f	90		 npad	 1
  00010	8b 54 24 08	 mov	 edx, DWORD PTR [esp+8]
  00014	8d 42 0c	 lea	 eax, DWORD PTR [edx+12]
  00017	8b 4a e0	 mov	 ecx, DWORD PTR [edx-32]
  0001a	33 c8		 xor	 ecx, eax
  0001c	e8 00 00 00 00	 call	 @__security_check_cookie@4
  00021	b8 00 00 00 00	 mov	 eax, OFFSET __ehfuncinfo$?CalcPacketTimeDiff@CPacketImplementation@@QAEXH@Z
  00026	e9 00 00 00 00	 jmp	 ___CxxFrameHandler3
text$x	ENDS
?CalcPacketTimeDiff@CPacketImplementation@@QAEXH@Z ENDP	; CPacketImplementation::CalcPacketTimeDiff
; Function compile flags: /Ogtp
; File D:\git\src\IBK\IBK_DRFN\ProjSrc\SrcChartEx\ChartOCX\PacketData\PacketImplementation.cpp
; File C:\Program Files (x86)\Microsoft Visual Studio\2019\Community\VC\Tools\MSVC\14.29.30133\atlmfc\include\cstringt.h
; File D:\git\src\IBK\IBK_DRFN\ProjSrc\SrcChartEx\ChartOCX\PacketData\PacketImplementation.cpp
; File C:\Program Files (x86)\Microsoft Visual Studio\2019\Community\VC\Tools\MSVC\14.29.30133\atlmfc\include\cstringt.h
; File D:\git\src\IBK\IBK_DRFN\ProjSrc\SrcChartEx\ChartOCX\PacketData\PacketImplementation.cpp
; File C:\Program Files (x86)\Microsoft Visual Studio\2019\Community\VC\Tools\MSVC\14.29.30133\atlmfc\include\afxtempl.h
; File D:\git\src\IBK\IBK_DRFN\ProjSrc\SrcChartEx\ChartOCX\PacketData\PacketImplementation.cpp
; File C:\Program Files (x86)\Microsoft Visual Studio\2019\Community\VC\Tools\MSVC\14.29.30133\atlmfc\include\afxtempl.h
; File D:\git\src\IBK\IBK_DRFN\ProjSrc\SrcChartEx\ChartOCX\PacketData\PacketImplementation.cpp
;	COMDAT ?ShiftData@CPacketImplementation@@QAEHJ@Z
_TEXT	SEGMENT
_this$1$ = -20						; size = 4
$T2 = -16						; size = 4
__$EHRec$ = -12						; size = 12
_p_szShiftCount$ = 8					; size = 4
?ShiftData@CPacketImplementation@@QAEHJ@Z PROC		; CPacketImplementation::ShiftData, COMDAT
; _this$ = ecx

; 1851 : {

  00000	55		 push	 ebp
  00001	8b ec		 mov	 ebp, esp
  00003	6a ff		 push	 -1
  00005	68 00 00 00 00	 push	 __ehhandler$?ShiftData@CPacketImplementation@@QAEHJ@Z
  0000a	64 a1 00 00 00
	00		 mov	 eax, DWORD PTR fs:0
  00010	50		 push	 eax
  00011	83 ec 08	 sub	 esp, 8
  00014	53		 push	 ebx
  00015	56		 push	 esi
  00016	57		 push	 edi
  00017	a1 00 00 00 00	 mov	 eax, DWORD PTR ___security_cookie
  0001c	33 c5		 xor	 eax, ebp
  0001e	50		 push	 eax
  0001f	8d 45 f4	 lea	 eax, DWORD PTR __$EHRec$[ebp]
  00022	64 a3 00 00 00
	00		 mov	 DWORD PTR fs:0, eax
  00028	8b d9		 mov	 ebx, ecx
  0002a	89 5d ec	 mov	 DWORD PTR _this$1$[ebp], ebx

; 1852 : 	if(m_Type == _MTEXT( C6_CHARACTER))

  0002d	a1 54 00 00 00	 mov	 eax, DWORD PTR ?g_iMetaTable@@3VIMetaTable@@A+84
  00032	8d 4b 64	 lea	 ecx, DWORD PTR [ebx+100]
; File C:\Program Files (x86)\Microsoft Visual Studio\2019\Community\VC\Tools\MSVC\14.29.30133\atlmfc\include\cstringt.h

; 2486 : 		return(str1.Compare(psz2) == 0);

  00035	ff b0 60 09 00
	00		 push	 DWORD PTR [eax+2400]
  0003b	ff 15 00 00 00
	00		 call	 DWORD PTR __imp_?Compare@?$CStringT@DV?$StrTraitMFC_DLL@DV?$ChTraitsCRT@D@ATL@@@@@ATL@@QBEHPBD@Z
; File D:\git\src\IBK\IBK_DRFN\ProjSrc\SrcChartEx\ChartOCX\PacketData\PacketImplementation.cpp

; 1853 : 			for( long i = 0; i < p_szShiftCount; i++) m_lstrData.AddHead( "");

  00041	8b 4d 08	 mov	 ecx, DWORD PTR _p_szShiftCount$[ebp]
  00044	85 c9		 test	 ecx, ecx
  00046	0f 8e b1 00 00
	00		 jle	 $LN6@ShiftData
; File C:\Program Files (x86)\Microsoft Visual Studio\2019\Community\VC\Tools\MSVC\14.29.30133\atlmfc\include\cstringt.h

; 2486 : 		return(str1.Compare(psz2) == 0);

  0004c	85 c0		 test	 eax, eax
; File D:\git\src\IBK\IBK_DRFN\ProjSrc\SrcChartEx\ChartOCX\PacketData\PacketImplementation.cpp

; 1852 : 	if(m_Type == _MTEXT( C6_CHARACTER))

  0004e	75 6c		 jne	 SHORT $LN8@ShiftData

; 1853 : 			for( long i = 0; i < p_szShiftCount; i++) m_lstrData.AddHead( "");

  00050	8d bb b0 00 00
	00		 lea	 edi, DWORD PTR [ebx+176]
  00056	8b d9		 mov	 ebx, ecx
  00058	0f 1f 84 00 00
	00 00 00	 npad	 8
$LL4@ShiftData:
  00060	68 00 00 00 00	 push	 OFFSET ??_C@_00CNPNBAHC@@
  00065	8d 4d f0	 lea	 ecx, DWORD PTR $T2[ebp]
  00068	ff 15 00 00 00
	00		 call	 DWORD PTR __imp_??0?$CStringT@DV?$StrTraitMFC_DLL@DV?$ChTraitsCRT@D@ATL@@@@@ATL@@QAE@PBD@Z
; File C:\Program Files (x86)\Microsoft Visual Studio\2019\Community\VC\Tools\MSVC\14.29.30133\atlmfc\include\afxtempl.h

; 953  : 	CNode* pNewNode = NewNode(NULL, m_pNodeHead);

  0006e	ff 77 04	 push	 DWORD PTR [edi+4]
  00071	8b cf		 mov	 ecx, edi
  00073	c7 45 fc 00 00
	00 00		 mov	 DWORD PTR __$EHRec$[ebp+8], 0
  0007a	6a 00		 push	 0
  0007c	e8 00 00 00 00	 call	 ?NewNode@?$CList@V?$CStringT@DV?$StrTraitMFC_DLL@DV?$ChTraitsCRT@D@ATL@@@@@ATL@@V12@@@IAEPAUCNode@1@PAU21@0@Z ; CList<ATL::CStringT<char,StrTraitMFC_DLL<char,ATL::ChTraitsCRT<char> > >,ATL::CStringT<char,StrTraitMFC_DLL<char,ATL::ChTraitsCRT<char> > > >::NewNode
  00081	8b f0		 mov	 esi, eax

; 954  : 	pNewNode->data = newElement;

  00083	8d 45 f0	 lea	 eax, DWORD PTR $T2[ebp]
  00086	50		 push	 eax
  00087	8d 4e 08	 lea	 ecx, DWORD PTR [esi+8]
  0008a	ff 15 00 00 00
	00		 call	 DWORD PTR __imp_??4?$CStringT@DV?$StrTraitMFC_DLL@DV?$ChTraitsCRT@D@ATL@@@@@ATL@@QAEAAV01@ABV01@@Z

; 955  : 	if (m_pNodeHead != NULL)

  00090	8b 47 04	 mov	 eax, DWORD PTR [edi+4]
  00093	85 c0		 test	 eax, eax
  00095	74 05		 je	 SHORT $LN15@ShiftData

; 956  : 		m_pNodeHead->pPrev = pNewNode;

  00097	89 70 04	 mov	 DWORD PTR [eax+4], esi
  0009a	eb 03		 jmp	 SHORT $LN16@ShiftData
$LN15@ShiftData:

; 957  : 	else
; 958  : 		m_pNodeTail = pNewNode;

  0009c	89 77 08	 mov	 DWORD PTR [edi+8], esi
$LN16@ShiftData:

; 960  : 	return (POSITION) pNewNode;

  0009f	8d 4d f0	 lea	 ecx, DWORD PTR $T2[ebp]
  000a2	89 77 04	 mov	 DWORD PTR [edi+4], esi
  000a5	c7 45 fc ff ff
	ff ff		 mov	 DWORD PTR __$EHRec$[ebp+8], -1
  000ac	ff 15 00 00 00
	00		 call	 DWORD PTR __imp_??1?$CStringT@DV?$StrTraitMFC_DLL@DV?$ChTraitsCRT@D@ATL@@@@@ATL@@QAE@XZ
; File D:\git\src\IBK\IBK_DRFN\ProjSrc\SrcChartEx\ChartOCX\PacketData\PacketImplementation.cpp

; 1853 : 			for( long i = 0; i < p_szShiftCount; i++) m_lstrData.AddHead( "");

  000b2	83 eb 01	 sub	 ebx, 1
  000b5	75 a9		 jne	 SHORT $LL4@ShiftData
  000b7	8b 5d ec	 mov	 ebx, DWORD PTR _this$1$[ebp]
  000ba	eb 3e		 jmp	 SHORT $LN32@ShiftData
$LN8@ShiftData:

; 1854 : 	else	for( long i = 0; i < p_szShiftCount; i++) m_lnData.AddHead( 0.0);

  000bc	8b 83 98 00 00
	00		 mov	 eax, DWORD PTR [ebx+152]
  000c2	8b f9		 mov	 edi, ecx
$LL7@ShiftData:
; File C:\Program Files (x86)\Microsoft Visual Studio\2019\Community\VC\Tools\MSVC\14.29.30133\atlmfc\include\afxtempl.h

; 953  : 	CNode* pNewNode = NewNode(NULL, m_pNodeHead);

  000c4	50		 push	 eax
  000c5	6a 00		 push	 0
  000c7	8d 8b 94 00 00
	00		 lea	 ecx, DWORD PTR [ebx+148]
  000cd	e8 00 00 00 00	 call	 ?NewNode@?$CList@NN@@IAEPAUCNode@1@PAU21@0@Z ; CList<double,double>::NewNode
  000d2	0f 57 c0	 xorps	 xmm0, xmm0

; 954  : 	pNewNode->data = newElement;

  000d5	f2 0f 11 40 08	 movsd	 QWORD PTR [eax+8], xmm0

; 955  : 	if (m_pNodeHead != NULL)

  000da	8b 8b 98 00 00
	00		 mov	 ecx, DWORD PTR [ebx+152]
  000e0	85 c9		 test	 ecx, ecx
  000e2	74 05		 je	 SHORT $LN20@ShiftData

; 956  : 		m_pNodeHead->pPrev = pNewNode;

  000e4	89 41 04	 mov	 DWORD PTR [ecx+4], eax
  000e7	eb 06		 jmp	 SHORT $LN21@ShiftData
$LN20@ShiftData:

; 957  : 	else
; 958  : 		m_pNodeTail = pNewNode;

  000e9	89 83 9c 00 00
	00		 mov	 DWORD PTR [ebx+156], eax
$LN21@ShiftData:

; 959  : 	m_pNodeHead = pNewNode;

  000ef	89 83 98 00 00
	00		 mov	 DWORD PTR [ebx+152], eax
; File D:\git\src\IBK\IBK_DRFN\ProjSrc\SrcChartEx\ChartOCX\PacketData\PacketImplementation.cpp

; 1854 : 	else	for( long i = 0; i < p_szShiftCount; i++) m_lnData.AddHead( 0.0);

  000f5	83 ef 01	 sub	 edi, 1
  000f8	75 ca		 jne	 SHORT $LL7@ShiftData
$LN32@ShiftData:

; 1855 : 	m_nStartPeriod += p_szShiftCount;

  000fa	8b 4d 08	 mov	 ecx, DWORD PTR _p_szShiftCount$[ebp]
$LN6@ShiftData:
  000fd	01 4b 24	 add	 DWORD PTR [ebx+36], ecx

; 1856 : 	return TRUE;

  00100	b8 01 00 00 00	 mov	 eax, 1

; 1857 : }

  00105	8b 4d f4	 mov	 ecx, DWORD PTR __$EHRec$[ebp]
  00108	64 89 0d 00 00
	00 00		 mov	 DWORD PTR fs:0, ecx
  0010f	59		 pop	 ecx
  00110	5f		 pop	 edi
  00111	5e		 pop	 esi
  00112	5b		 pop	 ebx
  00113	8b e5		 mov	 esp, ebp
  00115	5d		 pop	 ebp
  00116	c2 04 00	 ret	 4
_TEXT	ENDS
;	COMDAT text$x
text$x	SEGMENT
__unwindfunclet$?ShiftData@CPacketImplementation@@QAEHJ@Z$1:
  00000	8d 4d f0	 lea	 ecx, DWORD PTR $T2[ebp]
  00003	ff 25 00 00 00
	00		 jmp	 DWORD PTR __imp_??1?$CStringT@DV?$StrTraitMFC_DLL@DV?$ChTraitsCRT@D@ATL@@@@@ATL@@QAE@XZ
  00009	cc		 int	 3
  0000a	cc		 int	 3
  0000b	cc		 int	 3
  0000c	cc		 int	 3
  0000d	cc		 int	 3
__ehhandler$?ShiftData@CPacketImplementation@@QAEHJ@Z:
  0000e	90		 npad	 1
  0000f	90		 npad	 1
  00010	8b 54 24 08	 mov	 edx, DWORD PTR [esp+8]
  00014	8d 42 0c	 lea	 eax, DWORD PTR [edx+12]
  00017	8b 4a e8	 mov	 ecx, DWORD PTR [edx-24]
  0001a	33 c8		 xor	 ecx, eax
  0001c	e8 00 00 00 00	 call	 @__security_check_cookie@4
  00021	b8 00 00 00 00	 mov	 eax, OFFSET __ehfuncinfo$?ShiftData@CPacketImplementation@@QAEHJ@Z
  00026	e9 00 00 00 00	 jmp	 ___CxxFrameHandler3
text$x	ENDS
?ShiftData@CPacketImplementation@@QAEHJ@Z ENDP		; CPacketImplementation::ShiftData
; Function compile flags: /Ogtp
; File D:\git\src\IBK\IBK_DRFN\ProjSrc\SrcChartEx\ChartOCX\PacketData\PacketImplementation.cpp
;	COMDAT ?UpdateMinMax@CPacketImplementation@@QAEXNH@Z
_TEXT	SEGMENT
_p_dData$ = 8						; size = 8
_p_nIndex$ = 16						; size = 4
?UpdateMinMax@CPacketImplementation@@QAEXNH@Z PROC	; CPacketImplementation::UpdateMinMax, COMDAT
; _this$ = ecx

; 1811 : {

  00000	55		 push	 ebp
  00001	8b ec		 mov	 ebp, esp

; 1812 : 	if( p_nIndex < m_nStartIndex_Pre || m_nEndIndex_Pre + 1 < p_nIndex) return;

  00003	8b 55 10	 mov	 edx, DWORD PTR _p_nIndex$[ebp]
  00006	3b 91 2c 01 00
	00		 cmp	 edx, DWORD PTR [ecx+300]
  0000c	0f 8c 5f 01 00
	00		 jl	 $LN5@UpdateMinM
  00012	56		 push	 esi
  00013	57		 push	 edi
  00014	8b b9 30 01 00
	00		 mov	 edi, DWORD PTR [ecx+304]
  0001a	8d 77 01	 lea	 esi, DWORD PTR [edi+1]
  0001d	3b f2		 cmp	 esi, edx
  0001f	0f 8c 4a 01 00
	00		 jl	 $LN19@UpdateMinM

; 1813 : 
; 1814 : 	if( m_dPreMaxValue == -DBL_MAX
; 1815 : 		|| m_dPreMinValue == DBL_MAX)

  00025	f2 0f 10 a9 38
	01 00 00	 movsd	 xmm5, QWORD PTR [ecx+312]
  0002d	f2 0f 10 15 00
	00 00 00	 movsd	 xmm2, QWORD PTR __real@ffefffffffffffff
  00035	66 0f 2e ea	 ucomisd xmm5, xmm2
  00039	9f		 lahf
  0003a	f6 c4 44	 test	 ah, 68			; 00000044H
  0003d	0f 8b 2c 01 00
	00		 jnp	 $LN19@UpdateMinM
  00043	f2 0f 10 99 40
	01 00 00	 movsd	 xmm3, QWORD PTR [ecx+320]
  0004b	f2 0f 10 25 00
	00 00 00	 movsd	 xmm4, QWORD PTR __real@7fefffffffffffff
  00053	66 0f 2e dc	 ucomisd xmm3, xmm4
  00057	9f		 lahf
  00058	f6 c4 44	 test	 ah, 68			; 00000044H
  0005b	0f 8b 0e 01 00
	00		 jnp	 $LN19@UpdateMinM

; 1816 : 			return;
; 1817 : 
; 1818 : 	if( m_bWithoutZero_Pre && p_dData == 0) return;

  00061	83 b9 10 01 00
	00 00		 cmp	 DWORD PTR [ecx+272], 0
  00068	f2 0f 10 4d 08	 movsd	 xmm1, QWORD PTR _p_dData$[ebp]
  0006d	74 12		 je	 SHORT $LN6@UpdateMinM
  0006f	66 0f 2e 0d 00
	00 00 00	 ucomisd xmm1, QWORD PTR __real@0000000000000000
  00077	9f		 lahf
  00078	f6 c4 44	 test	 ah, 68			; 00000044H
  0007b	0f 8b ee 00 00
	00		 jnp	 $LN19@UpdateMinM
$LN6@UpdateMinM:

; 1819 : 	if( m_dContinueCode_Pre == p_dData) return;

  00081	f2 0f 10 81 18
	01 00 00	 movsd	 xmm0, QWORD PTR [ecx+280]
  00089	66 0f 2e c1	 ucomisd xmm0, xmm1
  0008d	9f		 lahf
  0008e	f6 c4 44	 test	 ah, 68			; 00000044H
  00091	0f 8b d8 00 00
	00		 jnp	 $LN19@UpdateMinM

; 1820 : 	if( m_dExceptionValue_Pre == p_dData) return;

  00097	f2 0f 10 81 20
	01 00 00	 movsd	 xmm0, QWORD PTR [ecx+288]
  0009f	66 0f 2e c1	 ucomisd xmm0, xmm1
  000a3	9f		 lahf
  000a4	f6 c4 44	 test	 ah, 68			; 00000044H
  000a7	0f 8b c2 00 00
	00		 jnp	 $LN19@UpdateMinM

; 1821 : 	if( p_nIndex < m_nStartPeriod_Pre) return;

  000ad	3b 91 28 01 00
	00		 cmp	 edx, DWORD PTR [ecx+296]
  000b3	0f 8c b6 00 00
	00		 jl	 $LN19@UpdateMinM

; 1822 : 
; 1823 : 	if( p_nIndex == m_nEndIndex_Pre)

  000b9	3b d7		 cmp	 edx, edi
  000bb	75 56		 jne	 SHORT $LN10@UpdateMinM

; 1824 : 	{
; 1825 : 		m_dPreMaxValue	= m_dPreMaxValueWithoutEnd;

  000bd	f2 0f 10 99 48
	01 00 00	 movsd	 xmm3, QWORD PTR [ecx+328]

; 1826 : 		m_dPreMinValue	= m_dPreMinValueWithoutEnd;
; 1827 : 		// (2009/6/2 - Seung-Won, Bae) Get min/max for only one data.
; 1828 : 		if( m_dPreMaxValue < p_dData || m_dPreMaxValue == -DBL_MAX) m_dPreMaxValue = p_dData;

  000c5	66 0f 2f cb	 comisd	 xmm1, xmm3
  000c9	f2 0f 10 81 50
	01 00 00	 movsd	 xmm0, QWORD PTR [ecx+336]
  000d1	f2 0f 11 99 38
	01 00 00	 movsd	 QWORD PTR [ecx+312], xmm3
  000d9	f2 0f 11 81 40
	01 00 00	 movsd	 QWORD PTR [ecx+320], xmm0
  000e1	77 0a		 ja	 SHORT $LN12@UpdateMinM
  000e3	66 0f 2e da	 ucomisd xmm3, xmm2
  000e7	9f		 lahf
  000e8	f6 c4 44	 test	 ah, 68			; 00000044H
  000eb	7a 08		 jp	 SHORT $LN11@UpdateMinM
$LN12@UpdateMinM:
  000ed	f2 0f 11 89 38
	01 00 00	 movsd	 QWORD PTR [ecx+312], xmm1
$LN11@UpdateMinM:

; 1829 : 		if( p_dData < m_dPreMinValue || m_dPreMinValue == -DBL_MAX) m_dPreMinValue = p_dData;

  000f5	66 0f 2f c1	 comisd	 xmm0, xmm1
  000f9	77 0a		 ja	 SHORT $LN14@UpdateMinM
  000fb	66 0f 2e c2	 ucomisd xmm0, xmm2
  000ff	9f		 lahf
  00100	f6 c4 44	 test	 ah, 68			; 00000044H
  00103	7a 6a		 jp	 SHORT $LN19@UpdateMinM
$LN14@UpdateMinM:
  00105	5f		 pop	 edi
  00106	f2 0f 11 89 40
	01 00 00	 movsd	 QWORD PTR [ecx+320], xmm1
  0010e	5e		 pop	 esi

; 1847 : }

  0010f	5d		 pop	 ebp
  00110	c2 0c 00	 ret	 12			; 0000000cH
$LN10@UpdateMinM:

; 1830 : 		return;
; 1831 : 	}
; 1832 : 
; 1833 : 	if( p_nIndex == m_nEndIndex_Pre + 1)

  00113	3b d6		 cmp	 edx, esi
  00115	75 38		 jne	 SHORT $LN15@UpdateMinM

; 1834 : 	{
; 1835 : 		m_dPreMaxValueWithoutEnd	= m_dPreMaxValue;
; 1836 : 		m_dPreMinValueWithoutEnd	= m_dPreMinValue;
; 1837 : 		if( m_dPreMaxValue < p_dData) m_dPreMaxValue = p_dData;

  00117	66 0f 2f cd	 comisd	 xmm1, xmm5
  0011b	f2 0f 11 a9 48
	01 00 00	 movsd	 QWORD PTR [ecx+328], xmm5
  00123	f2 0f 11 99 50
	01 00 00	 movsd	 QWORD PTR [ecx+336], xmm3
  0012b	76 08		 jbe	 SHORT $LN16@UpdateMinM
  0012d	f2 0f 11 89 38
	01 00 00	 movsd	 QWORD PTR [ecx+312], xmm1
$LN16@UpdateMinM:

; 1838 : 		if( p_dData < m_dPreMinValue) m_dPreMinValue = p_dData;

  00135	66 0f 2f d9	 comisd	 xmm3, xmm1
  00139	76 08		 jbe	 SHORT $LN17@UpdateMinM
  0013b	f2 0f 11 89 40
	01 00 00	 movsd	 QWORD PTR [ecx+320], xmm1
$LN17@UpdateMinM:
  00143	5f		 pop	 edi

; 1839 : 		m_nEndIndex_Pre = p_nIndex;

  00144	89 91 30 01 00
	00		 mov	 DWORD PTR [ecx+304], edx
  0014a	5e		 pop	 esi

; 1847 : }

  0014b	5d		 pop	 ebp
  0014c	c2 0c 00	 ret	 12			; 0000000cH
$LN15@UpdateMinM:

; 1840 : 		return;
; 1841 : 	}
; 1842 : 
; 1843 : 	m_dPreMaxValue				= -DBL_MAX;

  0014f	f2 0f 11 91 38
	01 00 00	 movsd	 QWORD PTR [ecx+312], xmm2

; 1844 : 	m_dPreMinValue				= DBL_MAX;

  00157	f2 0f 11 a1 40
	01 00 00	 movsd	 QWORD PTR [ecx+320], xmm4

; 1845 : 	m_dPreMaxValueWithoutEnd	= -DBL_MAX;

  0015f	f2 0f 11 91 48
	01 00 00	 movsd	 QWORD PTR [ecx+328], xmm2

; 1846 : 	m_dPreMinValueWithoutEnd	= DBL_MAX;

  00167	f2 0f 11 a1 50
	01 00 00	 movsd	 QWORD PTR [ecx+336], xmm4
$LN19@UpdateMinM:
  0016f	5f		 pop	 edi
  00170	5e		 pop	 esi
$LN5@UpdateMinM:

; 1847 : }

  00171	5d		 pop	 ebp
  00172	c2 0c 00	 ret	 12			; 0000000cH
?UpdateMinMax@CPacketImplementation@@QAEXNH@Z ENDP	; CPacketImplementation::UpdateMinMax
_TEXT	ENDS
; Function compile flags: /Ogtp
; File D:\git\src\IBK\IBK_DRFN\ProjSrc\SrcChartEx\ChartOCX\PacketData\PacketImplementation.cpp
;	COMDAT ?ClearMinMax@CPacketImplementation@@QAEXXZ
_TEXT	SEGMENT
?ClearMinMax@CPacketImplementation@@QAEXXZ PROC		; CPacketImplementation::ClearMinMax, COMDAT
; _this$ = ecx

; 1799 : 	m_bWithoutZero_Pre			= FALSE;
; 1800 : 	m_dContinueCode_Pre			= -HUGE_VAL;

  00000	0f 28 05 00 00
	00 00		 movaps	 xmm0, XMMWORD PTR __xmm@fff0000000000000fff0000000000000

; 1801 : 	m_dExceptionValue_Pre		= -HUGE_VAL;
; 1802 : 	m_nStartPeriod_Pre			= -1;
; 1803 : 	m_nStartIndex_Pre			= -1;
; 1804 : 	m_nEndIndex_Pre				= -1;
; 1805 : 	m_dPreMaxValue				= -DBL_MAX;

  00007	f2 0f 10 0d 00
	00 00 00	 movsd	 xmm1, QWORD PTR __real@ffefffffffffffff
  0000f	0f 11 81 18 01
	00 00		 movups	 XMMWORD PTR [ecx+280], xmm0
  00016	c7 81 10 01 00
	00 00 00 00 00	 mov	 DWORD PTR [ecx+272], 0

; 1806 : 	m_dPreMinValue				= DBL_MAX;

  00020	f2 0f 10 05 00
	00 00 00	 movsd	 xmm0, QWORD PTR __real@7fefffffffffffff
  00028	c7 81 28 01 00
	00 ff ff ff ff	 mov	 DWORD PTR [ecx+296], -1
  00032	c7 81 2c 01 00
	00 ff ff ff ff	 mov	 DWORD PTR [ecx+300], -1
  0003c	c7 81 30 01 00
	00 ff ff ff ff	 mov	 DWORD PTR [ecx+304], -1
  00046	f2 0f 11 89 38
	01 00 00	 movsd	 QWORD PTR [ecx+312], xmm1
  0004e	f2 0f 11 81 40
	01 00 00	 movsd	 QWORD PTR [ecx+320], xmm0

; 1807 : 	m_dPreMaxValueWithoutEnd	= -DBL_MAX;

  00056	f2 0f 11 89 48
	01 00 00	 movsd	 QWORD PTR [ecx+328], xmm1

; 1808 : 	m_dPreMinValueWithoutEnd	= DBL_MAX;

  0005e	f2 0f 11 81 50
	01 00 00	 movsd	 QWORD PTR [ecx+336], xmm0

; 1809 : }

  00066	c3		 ret	 0
?ClearMinMax@CPacketImplementation@@QAEXXZ ENDP		; CPacketImplementation::ClearMinMax
_TEXT	ENDS
; Function compile flags: /Ogtp
; File D:\git\src\IBK\IBK_DRFN\ProjSrc\SrcChartEx\ChartOCX\PacketData\PacketImplementation.cpp
; File C:\Program Files (x86)\Microsoft Visual Studio\2019\Community\VC\Tools\MSVC\14.29.30133\atlmfc\include\afxtempl.h
; File D:\git\src\IBK\IBK_DRFN\ProjSrc\SrcChartEx\ChartOCX\PacketData\PacketImplementation.cpp
; File C:\Program Files (x86)\Microsoft Visual Studio\2019\Community\VC\Tools\MSVC\14.29.30133\atlmfc\include\afxtempl.h
; File D:\git\src\IBK\IBK_DRFN\ProjSrc\SrcChartEx\ChartOCX\PacketData\PacketImplementation.cpp
;	COMDAT ?OffsetPacketData@CPacketImplementation@@QAEXN@Z
_TEXT	SEGMENT
_posTail$1$ = -4					; size = 4
_dData$ = 8						; size = 8
?OffsetPacketData@CPacketImplementation@@QAEXN@Z PROC	; CPacketImplementation::OffsetPacketData, COMDAT
; _this$ = ecx

; 1861 : {

  00000	55		 push	 ebp
  00001	8b ec		 mov	 ebp, esp
  00003	51		 push	 ecx
  00004	8b d1		 mov	 edx, ecx
  00006	56		 push	 esi

; 1862 : 	POSITION pos = m_lnData.GetHeadPosition();

  00007	8b b2 98 00 00
	00		 mov	 esi, DWORD PTR [edx+152]

; 1863 : 	POSITION posTail = m_lnData.GetTailPosition();

  0000d	8b 82 9c 00 00
	00		 mov	 eax, DWORD PTR [edx+156]
  00013	89 45 fc	 mov	 DWORD PTR _posTail$1$[ebp], eax

; 1864 : 	POSITION posCur = NULL;
; 1865 : 	while(pos)

  00016	85 f6		 test	 esi, esi
  00018	0f 84 8f 01 00
	00		 je	 $LN30@OffsetPack
  0001e	f2 0f 10 75 08	 movsd	 xmm6, QWORD PTR _dData$[ebp]
  00023	0f 57 ff	 xorps	 xmm7, xmm7
  00026	f2 0f 10 1d 00
	00 00 00	 movsd	 xmm3, QWORD PTR __real@ffefffffffffffff
  0002e	f2 0f 10 2d 00
	00 00 00	 movsd	 xmm5, QWORD PTR __real@7fefffffffffffff
  00036	53		 push	 ebx
  00037	57		 push	 edi
$LL2@OffsetPack:

; 1866 : 	{
; 1867 : 		if(posTail == pos) break;

  00038	3b c6		 cmp	 eax, esi
  0003a	0f 84 6b 01 00
	00		 je	 $LN31@OffsetPack
; File C:\Program Files (x86)\Microsoft Visual Studio\2019\Community\VC\Tools\MSVC\14.29.30133\atlmfc\include\afxtempl.h

; 811  : 	{ CNode* pNode = (CNode*) rPosition;

  00040	8b c6		 mov	 eax, esi
; File D:\git\src\IBK\IBK_DRFN\ProjSrc\SrcChartEx\ChartOCX\PacketData\PacketImplementation.cpp

; 1870 : 		double dPacketData = m_lnData.GetNext(pos) + dData;

  00042	0f 28 ce	 movaps	 xmm1, xmm6
  00045	8b ce		 mov	 ecx, esi
; File C:\Program Files (x86)\Microsoft Visual Studio\2019\Community\VC\Tools\MSVC\14.29.30133\atlmfc\include\afxtempl.h

; 813  : 		rPosition = (POSITION) pNode->pNext;

  00047	8b 36		 mov	 esi, DWORD PTR [esi]
; File D:\git\src\IBK\IBK_DRFN\ProjSrc\SrcChartEx\ChartOCX\PacketData\PacketImplementation.cpp

; 1870 : 		double dPacketData = m_lnData.GetNext(pos) + dData;

  00049	f2 0f 58 48 08	 addsd	 xmm1, QWORD PTR [eax+8]

; 1871 : 		m_lnData.SetAt(posCur, dPacketData);

  0004e	f2 0f 11 49 08	 movsd	 QWORD PTR [ecx+8], xmm1

; 1872 : 
; 1873 : 		UpdateMinMax( dPacketData, m_lnData.GetCount() - 1);

  00053	8b 8a a0 00 00
	00		 mov	 ecx, DWORD PTR [edx+160]
  00059	49		 dec	 ecx

; 1812 : 	if( p_nIndex < m_nStartIndex_Pre || m_nEndIndex_Pre + 1 < p_nIndex) return;

  0005a	3b 8a 2c 01 00
	00		 cmp	 ecx, DWORD PTR [edx+300]
  00060	0f 8c 3a 01 00
	00		 jl	 $LN12@OffsetPack
  00066	8b ba 30 01 00
	00		 mov	 edi, DWORD PTR [edx+304]
  0006c	8d 5f 01	 lea	 ebx, DWORD PTR [edi+1]
  0006f	3b d9		 cmp	 ebx, ecx
  00071	0f 8c 29 01 00
	00		 jl	 $LN12@OffsetPack

; 1813 : 
; 1814 : 	if( m_dPreMaxValue == -DBL_MAX
; 1815 : 		|| m_dPreMinValue == DBL_MAX)

  00077	f2 0f 10 a2 38
	01 00 00	 movsd	 xmm4, QWORD PTR [edx+312]
  0007f	66 0f 2e e3	 ucomisd xmm4, xmm3
  00083	9f		 lahf
  00084	f6 c4 44	 test	 ah, 68			; 00000044H
  00087	0f 8b 13 01 00
	00		 jnp	 $LN12@OffsetPack
  0008d	f2 0f 10 92 40
	01 00 00	 movsd	 xmm2, QWORD PTR [edx+320]
  00095	66 0f 2e d5	 ucomisd xmm2, xmm5
  00099	9f		 lahf
  0009a	f6 c4 44	 test	 ah, 68			; 00000044H
  0009d	0f 8b fd 00 00
	00		 jnp	 $LN12@OffsetPack

; 1816 : 			return;
; 1817 : 
; 1818 : 	if( m_bWithoutZero_Pre && p_dData == 0) return;

  000a3	83 ba 10 01 00
	00 00		 cmp	 DWORD PTR [edx+272], 0
  000aa	74 0e		 je	 SHORT $LN13@OffsetPack
  000ac	66 0f 2e cf	 ucomisd xmm1, xmm7
  000b0	9f		 lahf
  000b1	f6 c4 44	 test	 ah, 68			; 00000044H
  000b4	0f 8b e6 00 00
	00		 jnp	 $LN12@OffsetPack
$LN13@OffsetPack:

; 1819 : 	if( m_dContinueCode_Pre == p_dData) return;

  000ba	f2 0f 10 82 18
	01 00 00	 movsd	 xmm0, QWORD PTR [edx+280]
  000c2	66 0f 2e c1	 ucomisd xmm0, xmm1
  000c6	9f		 lahf
  000c7	f6 c4 44	 test	 ah, 68			; 00000044H
  000ca	0f 8b d0 00 00
	00		 jnp	 $LN12@OffsetPack

; 1820 : 	if( m_dExceptionValue_Pre == p_dData) return;

  000d0	f2 0f 10 82 20
	01 00 00	 movsd	 xmm0, QWORD PTR [edx+288]
  000d8	66 0f 2e c1	 ucomisd xmm0, xmm1
  000dc	9f		 lahf
  000dd	f6 c4 44	 test	 ah, 68			; 00000044H
  000e0	0f 8b ba 00 00
	00		 jnp	 $LN12@OffsetPack

; 1821 : 	if( p_nIndex < m_nStartPeriod_Pre) return;

  000e6	3b 8a 28 01 00
	00		 cmp	 ecx, DWORD PTR [edx+296]
  000ec	0f 8c ae 00 00
	00		 jl	 $LN12@OffsetPack

; 1822 : 
; 1823 : 	if( p_nIndex == m_nEndIndex_Pre)

  000f2	3b cf		 cmp	 ecx, edi
  000f4	75 52		 jne	 SHORT $LN17@OffsetPack

; 1824 : 	{
; 1825 : 		m_dPreMaxValue	= m_dPreMaxValueWithoutEnd;

  000f6	f2 0f 10 92 48
	01 00 00	 movsd	 xmm2, QWORD PTR [edx+328]

; 1826 : 		m_dPreMinValue	= m_dPreMinValueWithoutEnd;
; 1827 : 		// (2009/6/2 - Seung-Won, Bae) Get min/max for only one data.
; 1828 : 		if( m_dPreMaxValue < p_dData || m_dPreMaxValue == -DBL_MAX) m_dPreMaxValue = p_dData;

  000fe	66 0f 2f ca	 comisd	 xmm1, xmm2
  00102	f2 0f 10 82 50
	01 00 00	 movsd	 xmm0, QWORD PTR [edx+336]
  0010a	f2 0f 11 92 38
	01 00 00	 movsd	 QWORD PTR [edx+312], xmm2
  00112	f2 0f 11 82 40
	01 00 00	 movsd	 QWORD PTR [edx+320], xmm0
  0011a	77 0a		 ja	 SHORT $LN19@OffsetPack
  0011c	66 0f 2e d3	 ucomisd xmm2, xmm3
  00120	9f		 lahf
  00121	f6 c4 44	 test	 ah, 68			; 00000044H
  00124	7a 08		 jp	 SHORT $LN18@OffsetPack
$LN19@OffsetPack:
  00126	f2 0f 11 8a 38
	01 00 00	 movsd	 QWORD PTR [edx+312], xmm1
$LN18@OffsetPack:

; 1829 : 		if( p_dData < m_dPreMinValue || m_dPreMinValue == -DBL_MAX) m_dPreMinValue = p_dData;

  0012e	66 0f 2f c1	 comisd	 xmm0, xmm1
  00132	77 0a		 ja	 SHORT $LN21@OffsetPack
  00134	66 0f 2e c3	 ucomisd xmm0, xmm3
  00138	9f		 lahf
  00139	f6 c4 44	 test	 ah, 68			; 00000044H
  0013c	7a 62		 jp	 SHORT $LN12@OffsetPack
$LN21@OffsetPack:
  0013e	f2 0f 11 8a 40
	01 00 00	 movsd	 QWORD PTR [edx+320], xmm1

; 1830 : 		return;

  00146	eb 58		 jmp	 SHORT $LN12@OffsetPack
$LN17@OffsetPack:

; 1831 : 	}
; 1832 : 
; 1833 : 	if( p_nIndex == m_nEndIndex_Pre + 1)

  00148	3b cb		 cmp	 ecx, ebx
  0014a	75 34		 jne	 SHORT $LN22@OffsetPack

; 1834 : 	{
; 1835 : 		m_dPreMaxValueWithoutEnd	= m_dPreMaxValue;
; 1836 : 		m_dPreMinValueWithoutEnd	= m_dPreMinValue;
; 1837 : 		if( m_dPreMaxValue < p_dData) m_dPreMaxValue = p_dData;

  0014c	66 0f 2f cc	 comisd	 xmm1, xmm4
  00150	f2 0f 11 a2 48
	01 00 00	 movsd	 QWORD PTR [edx+328], xmm4
  00158	f2 0f 11 92 50
	01 00 00	 movsd	 QWORD PTR [edx+336], xmm2
  00160	76 08		 jbe	 SHORT $LN23@OffsetPack
  00162	f2 0f 11 8a 38
	01 00 00	 movsd	 QWORD PTR [edx+312], xmm1
$LN23@OffsetPack:

; 1838 : 		if( p_dData < m_dPreMinValue) m_dPreMinValue = p_dData;

  0016a	66 0f 2f d1	 comisd	 xmm2, xmm1
  0016e	76 08		 jbe	 SHORT $LN24@OffsetPack
  00170	f2 0f 11 8a 40
	01 00 00	 movsd	 QWORD PTR [edx+320], xmm1
$LN24@OffsetPack:

; 1839 : 		m_nEndIndex_Pre = p_nIndex;

  00178	89 8a 30 01 00
	00		 mov	 DWORD PTR [edx+304], ecx

; 1840 : 		return;

  0017e	eb 20		 jmp	 SHORT $LN12@OffsetPack
$LN22@OffsetPack:

; 1841 : 	}
; 1842 : 
; 1843 : 	m_dPreMaxValue				= -DBL_MAX;

  00180	f2 0f 11 9a 38
	01 00 00	 movsd	 QWORD PTR [edx+312], xmm3

; 1844 : 	m_dPreMinValue				= DBL_MAX;

  00188	f2 0f 11 aa 40
	01 00 00	 movsd	 QWORD PTR [edx+320], xmm5

; 1845 : 	m_dPreMaxValueWithoutEnd	= -DBL_MAX;

  00190	f2 0f 11 9a 48
	01 00 00	 movsd	 QWORD PTR [edx+328], xmm3

; 1846 : 	m_dPreMinValueWithoutEnd	= DBL_MAX;

  00198	f2 0f 11 aa 50
	01 00 00	 movsd	 QWORD PTR [edx+336], xmm5
$LN12@OffsetPack:

; 1864 : 	POSITION posCur = NULL;
; 1865 : 	while(pos)

  001a0	8b 45 fc	 mov	 eax, DWORD PTR _posTail$1$[ebp]
  001a3	85 f6		 test	 esi, esi
  001a5	0f 85 8d fe ff
	ff		 jne	 $LL2@OffsetPack
$LN31@OffsetPack:
  001ab	5f		 pop	 edi
  001ac	5b		 pop	 ebx
$LN30@OffsetPack:
  001ad	5e		 pop	 esi

; 1874 : 	}
; 1875 : }

  001ae	8b e5		 mov	 esp, ebp
  001b0	5d		 pop	 ebp
  001b1	c2 08 00	 ret	 8
?OffsetPacketData@CPacketImplementation@@QAEXN@Z ENDP	; CPacketImplementation::OffsetPacketData
_TEXT	ENDS
; Function compile flags: /Ogtp
; File D:\git\src\IBK\IBK_DRFN\ProjSrc\SrcChartEx\ChartOCX\PacketData\PacketImplementation.cpp
; File C:\Program Files (x86)\Microsoft Visual Studio\2019\Community\VC\Tools\MSVC\14.29.30133\atlmfc\include\cstringt.h
; File D:\git\src\IBK\IBK_DRFN\ProjSrc\SrcChartEx\ChartOCX\PacketData\PacketImplementation.cpp
; File C:\Program Files (x86)\Microsoft Visual Studio\2019\Community\VC\Tools\MSVC\14.29.30133\atlmfc\include\cstringt.h
; File D:\git\src\IBK\IBK_DRFN\ProjSrc\SrcChartEx\ChartOCX\PacketData\PacketImplementation.cpp
; File C:\Program Files (x86)\Microsoft Visual Studio\2019\Community\VC\Tools\MSVC\14.29.30133\atlmfc\include\cstringt.h
; File D:\git\src\IBK\IBK_DRFN\ProjSrc\SrcChartEx\ChartOCX\PacketData\PacketImplementation.cpp
; File C:\Program Files (x86)\Microsoft Visual Studio\2019\Community\VC\Tools\MSVC\14.29.30133\atlmfc\include\cstringt.h
; File D:\git\src\IBK\IBK_DRFN\ProjSrc\SrcChartEx\ChartOCX\PacketData\PacketImplementation.cpp
; File C:\Program Files (x86)\Microsoft Visual Studio\2019\Community\VC\Tools\MSVC\14.29.30133\atlmfc\include\cstringt.h
; File D:\git\src\IBK\IBK_DRFN\ProjSrc\SrcChartEx\ChartOCX\PacketData\PacketImplementation.cpp
; File C:\Program Files (x86)\Microsoft Visual Studio\2019\Community\VC\Tools\MSVC\14.29.30133\atlmfc\include\atlsimpstr.h
; File D:\git\src\IBK\IBK_DRFN\ProjSrc\SrcChartEx\ChartOCX\PacketData\PacketImplementation.cpp
; File C:\Program Files (x86)\Microsoft Visual Studio\2019\Community\VC\Tools\MSVC\14.29.30133\atlmfc\include\atlsimpstr.h
; File D:\git\src\IBK\IBK_DRFN\ProjSrc\SrcChartEx\ChartOCX\PacketData\PacketImplementation.cpp
; File C:\Program Files (x86)\Microsoft Visual Studio\2019\Community\VC\Tools\MSVC\14.29.30133\atlmfc\include\atlsimpstr.h
; File D:\git\src\IBK\IBK_DRFN\ProjSrc\SrcChartEx\ChartOCX\PacketData\PacketImplementation.cpp
; File C:\Program Files (x86)\Microsoft Visual Studio\2019\Community\VC\Tools\MSVC\14.29.30133\atlmfc\include\atlsimpstr.h
; File D:\git\src\IBK\IBK_DRFN\ProjSrc\SrcChartEx\ChartOCX\PacketData\PacketImplementation.cpp
; File C:\Program Files (x86)\Microsoft Visual Studio\2019\Community\VC\Tools\MSVC\14.29.30133\atlmfc\include\atlsimpstr.h
; File D:\git\src\IBK\IBK_DRFN\ProjSrc\SrcChartEx\ChartOCX\PacketData\PacketImplementation.cpp
;	COMDAT ?GetScaleTypeFormatDouble@CPacketImplementation@@QAENXZ
_TEXT	SEGMENT
_ret$1$ = -36						; size = 8
_ret$ = -36						; size = 8
$T2 = -32						; size = 4
$T3 = -32						; size = 4
$T4 = -32						; size = 4
$T5 = -32						; size = 4
$T6 = -28						; size = 4
$T7 = -24						; size = 4
_tmp$ = -20						; size = 4
$T8 = -13						; size = 1
__$EHRec$ = -12						; size = 12
?GetScaleTypeFormatDouble@CPacketImplementation@@QAENXZ PROC ; CPacketImplementation::GetScaleTypeFormatDouble, COMDAT
; _this$ = ecx

; 1765 : {

  00000	55		 push	 ebp
  00001	8b ec		 mov	 ebp, esp
  00003	6a ff		 push	 -1
  00005	68 00 00 00 00	 push	 __ehhandler$?GetScaleTypeFormatDouble@CPacketImplementation@@QAENXZ
  0000a	64 a1 00 00 00
	00		 mov	 eax, DWORD PTR fs:0
  00010	50		 push	 eax
  00011	83 ec 18	 sub	 esp, 24			; 00000018H
  00014	53		 push	 ebx
  00015	56		 push	 esi
  00016	a1 00 00 00 00	 mov	 eax, DWORD PTR ___security_cookie
  0001b	33 c5		 xor	 eax, ebp
  0001d	50		 push	 eax
  0001e	8d 45 f4	 lea	 eax, DWORD PTR __$EHRec$[ebp]
  00021	64 a3 00 00 00
	00		 mov	 DWORD PTR fs:0, eax
  00027	c7 45 e8 00 00
	00 00		 mov	 DWORD PTR $T7[ebp], 0

; 1766 : 	double ret = 1.0;
; 1767 : 
; 1768 : 	// 20080910 JS.Kim		8/32 .    	<<
; 1769 : 	if( m_strScaleType.Find("1/") >= 0 )

  0002e	8d b1 0c 01 00
	00		 lea	 esi, DWORD PTR [ecx+268]
  00034	f2 0f 10 05 00
	00 00 00	 movsd	 xmm0, QWORD PTR __real@3ff0000000000000
  0003c	8b ce		 mov	 ecx, esi
  0003e	6a 00		 push	 0
  00040	68 00 00 00 00	 push	 OFFSET ??_C@_02DHALJBCH@1?1@
  00045	f2 0f 11 45 dc	 movsd	 QWORD PTR _ret$[ebp], xmm0
  0004a	ff 15 00 00 00
	00		 call	 DWORD PTR __imp_?Find@?$CStringT@DV?$StrTraitMFC_DLL@DV?$ChTraitsCRT@D@ATL@@@@@ATL@@QBEHPBDH@Z
  00050	85 c0		 test	 eax, eax
  00052	78 13		 js	 SHORT $LN2@GetScaleTy

; 1770 : 		return ret;

  00054	d9 e8		 fld1

; 1792 : }

  00056	8b 4d f4	 mov	 ecx, DWORD PTR __$EHRec$[ebp]
  00059	64 89 0d 00 00
	00 00		 mov	 DWORD PTR fs:0, ecx
  00060	59		 pop	 ecx
  00061	5e		 pop	 esi
  00062	5b		 pop	 ebx
  00063	8b e5		 mov	 esp, ebp
  00065	5d		 pop	 ebp
  00066	c3		 ret	 0
$LN2@GetScaleTy:

; 1771 : 	//>>
; 1772 : 
; 1773 : 	CString tmp( m_strScaleType);

  00067	56		 push	 esi
  00068	8d 4d ec	 lea	 ecx, DWORD PTR _tmp$[ebp]
  0006b	ff 15 00 00 00
	00		 call	 DWORD PTR __imp_??0?$CStringT@DV?$StrTraitMFC_DLL@DV?$ChTraitsCRT@D@ATL@@@@@ATL@@QAE@ABV01@@Z

; 1774 : 
; 1775 : 	//  
; 1776 : 	int nfind1 = tmp.Find("1");

  00071	6a 00		 push	 0
  00073	68 00 00 00 00	 push	 OFFSET ??_C@_01HIHLOKLC@1@
  00078	8d 4d ec	 lea	 ecx, DWORD PTR _tmp$[ebp]
  0007b	c7 45 fc 00 00
	00 00		 mov	 DWORD PTR __$EHRec$[ebp+8], 0
  00082	ff 15 00 00 00
	00		 call	 DWORD PTR __imp_?Find@?$CStringT@DV?$StrTraitMFC_DLL@DV?$ChTraitsCRT@D@ATL@@@@@ATL@@QBEHPBDH@Z
  00088	8b f0		 mov	 esi, eax

; 1777 : 	if(nfind1 >= 0)	{

  0008a	85 f6		 test	 esi, esi
  0008c	0f 88 2a 01 00
	00		 js	 $LN38@GetScaleTy

; 1779 : 		if(tmp.Right(1) != "0" && tmp.Right(1) != "1")

  00092	6a 01		 push	 1
  00094	8d 45 e0	 lea	 eax, DWORD PTR $T5[ebp]
  00097	50		 push	 eax
  00098	8d 4d ec	 lea	 ecx, DWORD PTR _tmp$[ebp]
  0009b	ff 15 00 00 00
	00		 call	 DWORD PTR __imp_?Right@?$CStringT@DV?$StrTraitMFC_DLL@DV?$ChTraitsCRT@D@ATL@@@@@ATL@@QBE?AV12@H@Z
  000a1	bb 01 00 00 00	 mov	 ebx, 1
  000a6	c6 45 fc 01	 mov	 BYTE PTR __$EHRec$[ebp+8], 1
; File C:\Program Files (x86)\Microsoft Visual Studio\2019\Community\VC\Tools\MSVC\14.29.30133\atlmfc\include\cstringt.h

; 2567 : 		return( str1.Compare( psz2 ) != 0 );

  000aa	68 00 00 00 00	 push	 OFFSET ??_C@_01GBGANLPD@0@
  000af	8b c8		 mov	 ecx, eax
; File D:\git\src\IBK\IBK_DRFN\ProjSrc\SrcChartEx\ChartOCX\PacketData\PacketImplementation.cpp

; 1779 : 		if(tmp.Right(1) != "0" && tmp.Right(1) != "1")

  000b1	89 5d e8	 mov	 DWORD PTR $T7[ebp], ebx
; File C:\Program Files (x86)\Microsoft Visual Studio\2019\Community\VC\Tools\MSVC\14.29.30133\atlmfc\include\cstringt.h

; 2567 : 		return( str1.Compare( psz2 ) != 0 );

  000b4	ff 15 00 00 00
	00		 call	 DWORD PTR __imp_?Compare@?$CStringT@DV?$StrTraitMFC_DLL@DV?$ChTraitsCRT@D@ATL@@@@@ATL@@QBEHPBD@Z
  000ba	85 c0		 test	 eax, eax
; File D:\git\src\IBK\IBK_DRFN\ProjSrc\SrcChartEx\ChartOCX\PacketData\PacketImplementation.cpp

; 1779 : 		if(tmp.Right(1) != "0" && tmp.Right(1) != "1")

  000bc	74 32		 je	 SHORT $LN8@GetScaleTy
  000be	53		 push	 ebx
  000bf	8d 45 e4	 lea	 eax, DWORD PTR $T6[ebp]
  000c2	50		 push	 eax
  000c3	8d 4d ec	 lea	 ecx, DWORD PTR _tmp$[ebp]
  000c6	ff 15 00 00 00
	00		 call	 DWORD PTR __imp_?Right@?$CStringT@DV?$StrTraitMFC_DLL@DV?$ChTraitsCRT@D@ATL@@@@@ATL@@QBE?AV12@H@Z
  000cc	bb 03 00 00 00	 mov	 ebx, 3
  000d1	c7 45 fc 02 00
	00 00		 mov	 DWORD PTR __$EHRec$[ebp+8], 2
; File C:\Program Files (x86)\Microsoft Visual Studio\2019\Community\VC\Tools\MSVC\14.29.30133\atlmfc\include\cstringt.h

; 2567 : 		return( str1.Compare( psz2 ) != 0 );

  000d8	68 00 00 00 00	 push	 OFFSET ??_C@_01HIHLOKLC@1@
  000dd	8b c8		 mov	 ecx, eax
; File D:\git\src\IBK\IBK_DRFN\ProjSrc\SrcChartEx\ChartOCX\PacketData\PacketImplementation.cpp

; 1779 : 		if(tmp.Right(1) != "0" && tmp.Right(1) != "1")

  000df	89 5d e8	 mov	 DWORD PTR $T7[ebp], ebx
; File C:\Program Files (x86)\Microsoft Visual Studio\2019\Community\VC\Tools\MSVC\14.29.30133\atlmfc\include\cstringt.h

; 2567 : 		return( str1.Compare( psz2 ) != 0 );

  000e2	ff 15 00 00 00
	00		 call	 DWORD PTR __imp_?Compare@?$CStringT@DV?$StrTraitMFC_DLL@DV?$ChTraitsCRT@D@ATL@@@@@ATL@@QBEHPBD@Z
; File D:\git\src\IBK\IBK_DRFN\ProjSrc\SrcChartEx\ChartOCX\PacketData\PacketImplementation.cpp

; 1779 : 		if(tmp.Right(1) != "0" && tmp.Right(1) != "1")

  000e8	c6 45 f3 01	 mov	 BYTE PTR $T8[ebp], 1
; File C:\Program Files (x86)\Microsoft Visual Studio\2019\Community\VC\Tools\MSVC\14.29.30133\atlmfc\include\cstringt.h

; 2567 : 		return( str1.Compare( psz2 ) != 0 );

  000ec	85 c0		 test	 eax, eax
; File D:\git\src\IBK\IBK_DRFN\ProjSrc\SrcChartEx\ChartOCX\PacketData\PacketImplementation.cpp

; 1779 : 		if(tmp.Right(1) != "0" && tmp.Right(1) != "1")

  000ee	75 04		 jne	 SHORT $LN9@GetScaleTy
$LN8@GetScaleTy:
  000f0	c6 45 f3 00	 mov	 BYTE PTR $T8[ebp], 0
$LN9@GetScaleTy:
  000f4	f6 c3 02	 test	 bl, 2
  000f7	74 0c		 je	 SHORT $LN15@GetScaleTy
  000f9	8d 4d e4	 lea	 ecx, DWORD PTR $T6[ebp]
  000fc	83 e3 fd	 and	 ebx, -3			; fffffffdH
  000ff	ff 15 00 00 00
	00		 call	 DWORD PTR __imp_??1?$CStringT@DV?$StrTraitMFC_DLL@DV?$ChTraitsCRT@D@ATL@@@@@ATL@@QAE@XZ
$LN15@GetScaleTy:
  00105	c7 45 fc 00 00
	00 00		 mov	 DWORD PTR __$EHRec$[ebp+8], 0
  0010c	f6 c3 01	 test	 bl, 1
  0010f	74 09		 je	 SHORT $LN16@GetScaleTy
  00111	8d 4d e0	 lea	 ecx, DWORD PTR $T5[ebp]
  00114	ff 15 00 00 00
	00		 call	 DWORD PTR __imp_??1?$CStringT@DV?$StrTraitMFC_DLL@DV?$ChTraitsCRT@D@ATL@@@@@ATL@@QAE@XZ
$LN16@GetScaleTy:
  0011a	80 7d f3 00	 cmp	 BYTE PTR $T8[ebp], 0
  0011e	74 30		 je	 SHORT $LN4@GetScaleTy
; File C:\Program Files (x86)\Microsoft Visual Studio\2019\Community\VC\Tools\MSVC\14.29.30133\atlmfc\include\atlsimpstr.h

; 519  : 		return( GetData()->nDataLength );

  00120	8b 45 ec	 mov	 eax, DWORD PTR _tmp$[ebp]
; File D:\git\src\IBK\IBK_DRFN\ProjSrc\SrcChartEx\ChartOCX\PacketData\PacketImplementation.cpp

; 1780 : 			tmp = tmp.Left(tmp.GetLength() - 1);

  00123	8d 4d ec	 lea	 ecx, DWORD PTR _tmp$[ebp]
; File C:\Program Files (x86)\Microsoft Visual Studio\2019\Community\VC\Tools\MSVC\14.29.30133\atlmfc\include\atlsimpstr.h

; 519  : 		return( GetData()->nDataLength );

  00126	8b 40 f4	 mov	 eax, DWORD PTR [eax-12]
; File D:\git\src\IBK\IBK_DRFN\ProjSrc\SrcChartEx\ChartOCX\PacketData\PacketImplementation.cpp

; 1780 : 			tmp = tmp.Left(tmp.GetLength() - 1);

  00129	48		 dec	 eax
  0012a	50		 push	 eax
  0012b	8d 45 e0	 lea	 eax, DWORD PTR $T4[ebp]
  0012e	50		 push	 eax
  0012f	ff 15 00 00 00
	00		 call	 DWORD PTR __imp_?Left@?$CStringT@DV?$StrTraitMFC_DLL@DV?$ChTraitsCRT@D@ATL@@@@@ATL@@QBE?AV12@H@Z
  00135	50		 push	 eax
  00136	8d 4d ec	 lea	 ecx, DWORD PTR _tmp$[ebp]
  00139	c6 45 fc 03	 mov	 BYTE PTR __$EHRec$[ebp+8], 3
  0013d	ff 15 00 00 00
	00		 call	 DWORD PTR __imp_??4?$CStringT@DV?$StrTraitMFC_DLL@DV?$ChTraitsCRT@D@ATL@@@@@ATL@@QAEAAV01@ABV01@@Z
  00143	8d 4d e0	 lea	 ecx, DWORD PTR $T4[ebp]
  00146	c6 45 fc 00	 mov	 BYTE PTR __$EHRec$[ebp+8], 0
  0014a	ff 15 00 00 00
	00		 call	 DWORD PTR __imp_??1?$CStringT@DV?$StrTraitMFC_DLL@DV?$ChTraitsCRT@D@ATL@@@@@ATL@@QAE@XZ
$LN4@GetScaleTy:

; 1781 : 
; 1782 : 		int nfindp = tmp.Find(".");

  00150	6a 00		 push	 0
  00152	68 00 00 00 00	 push	 OFFSET ??_C@_01LFCBOECM@?4@
  00157	8d 4d ec	 lea	 ecx, DWORD PTR _tmp$[ebp]
  0015a	ff 15 00 00 00
	00		 call	 DWORD PTR __imp_?Find@?$CStringT@DV?$StrTraitMFC_DLL@DV?$ChTraitsCRT@D@ATL@@@@@ATL@@QBEHPBDH@Z

; 1783 : 		if(nfindp >= 0)

  00160	85 c0		 test	 eax, eax
  00162	78 1d		 js	 SHORT $LN5@GetScaleTy
; File C:\Program Files (x86)\Microsoft Visual Studio\2019\Community\VC\Tools\MSVC\14.29.30133\atlmfc\include\atlsimpstr.h

; 519  : 		return( GetData()->nDataLength );

  00164	8b 4d ec	 mov	 ecx, DWORD PTR _tmp$[ebp]
  00167	8b 49 f4	 mov	 ecx, DWORD PTR [ecx-12]
; File D:\git\src\IBK\IBK_DRFN\ProjSrc\SrcChartEx\ChartOCX\PacketData\PacketImplementation.cpp

; 1784 : 			tmp = tmp.Right(tmp.GetLength() - nfindp + 1);

  0016a	2b c8		 sub	 ecx, eax
  0016c	8d 45 e0	 lea	 eax, DWORD PTR $T3[ebp]
  0016f	41		 inc	 ecx
  00170	51		 push	 ecx
  00171	50		 push	 eax
  00172	8d 4d ec	 lea	 ecx, DWORD PTR _tmp$[ebp]
  00175	ff 15 00 00 00
	00		 call	 DWORD PTR __imp_?Right@?$CStringT@DV?$StrTraitMFC_DLL@DV?$ChTraitsCRT@D@ATL@@@@@ATL@@QBE?AV12@H@Z
  0017b	c6 45 fc 04	 mov	 BYTE PTR __$EHRec$[ebp+8], 4
  0017f	eb 1a		 jmp	 SHORT $LN40@GetScaleTy
$LN5@GetScaleTy:
; File C:\Program Files (x86)\Microsoft Visual Studio\2019\Community\VC\Tools\MSVC\14.29.30133\atlmfc\include\atlsimpstr.h

; 519  : 		return( GetData()->nDataLength );

  00181	8b 45 ec	 mov	 eax, DWORD PTR _tmp$[ebp]
; File D:\git\src\IBK\IBK_DRFN\ProjSrc\SrcChartEx\ChartOCX\PacketData\PacketImplementation.cpp

; 1786 : 			tmp = tmp.Right(tmp.GetLength() - nfind1);

  00184	8d 4d ec	 lea	 ecx, DWORD PTR _tmp$[ebp]
; File C:\Program Files (x86)\Microsoft Visual Studio\2019\Community\VC\Tools\MSVC\14.29.30133\atlmfc\include\atlsimpstr.h

; 519  : 		return( GetData()->nDataLength );

  00187	8b 40 f4	 mov	 eax, DWORD PTR [eax-12]
; File D:\git\src\IBK\IBK_DRFN\ProjSrc\SrcChartEx\ChartOCX\PacketData\PacketImplementation.cpp

; 1786 : 			tmp = tmp.Right(tmp.GetLength() - nfind1);

  0018a	2b c6		 sub	 eax, esi
  0018c	50		 push	 eax
  0018d	8d 45 e0	 lea	 eax, DWORD PTR $T2[ebp]
  00190	50		 push	 eax
  00191	ff 15 00 00 00
	00		 call	 DWORD PTR __imp_?Right@?$CStringT@DV?$StrTraitMFC_DLL@DV?$ChTraitsCRT@D@ATL@@@@@ATL@@QBE?AV12@H@Z
  00197	c6 45 fc 05	 mov	 BYTE PTR __$EHRec$[ebp+8], 5
$LN40@GetScaleTy:

; 1787 : 
; 1788 : 		ret = atof(tmp);

  0019b	50		 push	 eax
  0019c	8d 4d ec	 lea	 ecx, DWORD PTR _tmp$[ebp]
  0019f	ff 15 00 00 00
	00		 call	 DWORD PTR __imp_??4?$CStringT@DV?$StrTraitMFC_DLL@DV?$ChTraitsCRT@D@ATL@@@@@ATL@@QAEAAV01@ABV01@@Z
  001a5	8d 4d e0	 lea	 ecx, DWORD PTR $T2[ebp]
  001a8	ff 15 00 00 00
	00		 call	 DWORD PTR __imp_??1?$CStringT@DV?$StrTraitMFC_DLL@DV?$ChTraitsCRT@D@ATL@@@@@ATL@@QAE@XZ
  001ae	ff 75 ec	 push	 DWORD PTR _tmp$[ebp]
  001b1	ff 15 00 00 00
	00		 call	 DWORD PTR __imp__atof
  001b7	83 c4 04	 add	 esp, 4
  001ba	eb 03		 jmp	 SHORT $LN41@GetScaleTy
$LN38@GetScaleTy:

; 1777 : 	if(nfind1 >= 0)	{

  001bc	dd 45 dc	 fld	 QWORD PTR _ret$[ebp]
$LN41@GetScaleTy:

; 1789 : 	}
; 1790 : 
; 1791 : 	return ret;	

  001bf	8d 4d ec	 lea	 ecx, DWORD PTR _tmp$[ebp]
  001c2	dd 5d dc	 fstp	 QWORD PTR _ret$1$[ebp]
  001c5	ff 15 00 00 00
	00		 call	 DWORD PTR __imp_??1?$CStringT@DV?$StrTraitMFC_DLL@DV?$ChTraitsCRT@D@ATL@@@@@ATL@@QAE@XZ
  001cb	dd 45 dc	 fld	 QWORD PTR _ret$1$[ebp]

; 1792 : }

  001ce	8b 4d f4	 mov	 ecx, DWORD PTR __$EHRec$[ebp]
  001d1	64 89 0d 00 00
	00 00		 mov	 DWORD PTR fs:0, ecx
  001d8	59		 pop	 ecx
  001d9	5e		 pop	 esi
  001da	5b		 pop	 ebx
  001db	8b e5		 mov	 esp, ebp
  001dd	5d		 pop	 ebp
  001de	c3		 ret	 0
_TEXT	ENDS
;	COMDAT text$x
text$x	SEGMENT
__unwindfunclet$?GetScaleTypeFormatDouble@CPacketImplementation@@QAENXZ$0:
  00000	8d 4d ec	 lea	 ecx, DWORD PTR _tmp$[ebp]
  00003	ff 25 00 00 00
	00		 jmp	 DWORD PTR __imp_??1?$CStringT@DV?$StrTraitMFC_DLL@DV?$ChTraitsCRT@D@ATL@@@@@ATL@@QAE@XZ
__unwindfunclet$?GetScaleTypeFormatDouble@CPacketImplementation@@QAENXZ$1:
  00009	8b 45 e8	 mov	 eax, DWORD PTR $T7[ebp]
  0000c	83 e0 01	 and	 eax, 1
  0000f	0f 84 0d 00 00
	00		 je	 $LN12@GetScaleTy
  00015	83 65 e8 fe	 and	 DWORD PTR $T7[ebp], -2	; fffffffeH
  00019	8d 4d e0	 lea	 ecx, DWORD PTR $T5[ebp]
  0001c	ff 25 00 00 00
	00		 jmp	 DWORD PTR __imp_??1?$CStringT@DV?$StrTraitMFC_DLL@DV?$ChTraitsCRT@D@ATL@@@@@ATL@@QAE@XZ
$LN12@GetScaleTy:
  00022	c3		 ret	 0
__unwindfunclet$?GetScaleTypeFormatDouble@CPacketImplementation@@QAENXZ$2:
  00023	8b 45 e8	 mov	 eax, DWORD PTR $T7[ebp]
  00026	83 e0 02	 and	 eax, 2
  00029	0f 84 0d 00 00
	00		 je	 $LN14@GetScaleTy
  0002f	83 65 e8 fd	 and	 DWORD PTR $T7[ebp], -3	; fffffffdH
  00033	8d 4d e4	 lea	 ecx, DWORD PTR $T6[ebp]
  00036	ff 25 00 00 00
	00		 jmp	 DWORD PTR __imp_??1?$CStringT@DV?$StrTraitMFC_DLL@DV?$ChTraitsCRT@D@ATL@@@@@ATL@@QAE@XZ
$LN14@GetScaleTy:
  0003c	c3		 ret	 0
__unwindfunclet$?GetScaleTypeFormatDouble@CPacketImplementation@@QAENXZ$3:
  0003d	8d 4d e0	 lea	 ecx, DWORD PTR $T4[ebp]
  00040	ff 25 00 00 00
	00		 jmp	 DWORD PTR __imp_??1?$CStringT@DV?$StrTraitMFC_DLL@DV?$ChTraitsCRT@D@ATL@@@@@ATL@@QAE@XZ
__unwindfunclet$?GetScaleTypeFormatDouble@CPacketImplementation@@QAENXZ$4:
  00046	8d 4d e0	 lea	 ecx, DWORD PTR $T3[ebp]
  00049	ff 25 00 00 00
	00		 jmp	 DWORD PTR __imp_??1?$CStringT@DV?$StrTraitMFC_DLL@DV?$ChTraitsCRT@D@ATL@@@@@ATL@@QAE@XZ
__unwindfunclet$?GetScaleTypeFormatDouble@CPacketImplementation@@QAENXZ$5:
  0004f	8d 4d e0	 lea	 ecx, DWORD PTR $T2[ebp]
  00052	ff 25 00 00 00
	00		 jmp	 DWORD PTR __imp_??1?$CStringT@DV?$StrTraitMFC_DLL@DV?$ChTraitsCRT@D@ATL@@@@@ATL@@QAE@XZ
  00058	cc		 int	 3
  00059	cc		 int	 3
  0005a	cc		 int	 3
  0005b	cc		 int	 3
  0005c	cc		 int	 3
__ehhandler$?GetScaleTypeFormatDouble@CPacketImplementation@@QAENXZ:
  0005d	90		 npad	 1
  0005e	90		 npad	 1
  0005f	8b 54 24 08	 mov	 edx, DWORD PTR [esp+8]
  00063	8d 42 0c	 lea	 eax, DWORD PTR [edx+12]
  00066	8b 4a dc	 mov	 ecx, DWORD PTR [edx-36]
  00069	33 c8		 xor	 ecx, eax
  0006b	e8 00 00 00 00	 call	 @__security_check_cookie@4
  00070	b8 00 00 00 00	 mov	 eax, OFFSET __ehfuncinfo$?GetScaleTypeFormatDouble@CPacketImplementation@@QAENXZ
  00075	e9 00 00 00 00	 jmp	 ___CxxFrameHandler3
text$x	ENDS
?GetScaleTypeFormatDouble@CPacketImplementation@@QAENXZ ENDP ; CPacketImplementation::GetScaleTypeFormatDouble
; Function compile flags: /Ogtp
; File D:\git\src\IBK\IBK_DRFN\ProjSrc\SrcChartEx\ChartOCX\PacketData\PacketImplementation.cpp
;	COMDAT ?SetContinueCode@CPacketImplementation@@QAEXABN@Z
_TEXT	SEGMENT
_p_dContinueCode$ = 8					; size = 4
?SetContinueCode@CPacketImplementation@@QAEXABN@Z PROC	; CPacketImplementation::SetContinueCode, COMDAT
; _this$ = ecx

; 1757 : {

  00000	55		 push	 ebp
  00001	8b ec		 mov	 ebp, esp

; 1758 : 	m_dContinueCode = p_dContinueCode;

  00003	8b 45 08	 mov	 eax, DWORD PTR _p_dContinueCode$[ebp]
  00006	f2 0f 10 00	 movsd	 xmm0, QWORD PTR [eax]
  0000a	f2 0f 11 81 00
	01 00 00	 movsd	 QWORD PTR [ecx+256], xmm0

; 1759 : }

  00012	5d		 pop	 ebp
  00013	c2 04 00	 ret	 4
?SetContinueCode@CPacketImplementation@@QAEXABN@Z ENDP	; CPacketImplementation::SetContinueCode
_TEXT	ENDS
; Function compile flags: /Ogtp
; File D:\git\src\IBK\IBK_DRFN\ProjSrc\SrcChartEx\ChartOCX\PacketData\PacketImplementation.cpp
;	COMDAT ?SetExceptionValue@CPacketImplementation@@QAEXABN@Z
_TEXT	SEGMENT
_p_dExceptionValue$ = 8					; size = 4
?SetExceptionValue@CPacketImplementation@@QAEXABN@Z PROC ; CPacketImplementation::SetExceptionValue, COMDAT
; _this$ = ecx

; 1751 : {

  00000	55		 push	 ebp
  00001	8b ec		 mov	 ebp, esp

; 1752 : 	m_dExceptionValue = p_dExceptionValue;

  00003	8b 45 08	 mov	 eax, DWORD PTR _p_dExceptionValue$[ebp]
  00006	f2 0f 10 00	 movsd	 xmm0, QWORD PTR [eax]
  0000a	f2 0f 11 81 f8
	00 00 00	 movsd	 QWORD PTR [ecx+248], xmm0

; 1753 : }

  00012	5d		 pop	 ebp
  00013	c2 04 00	 ret	 4
?SetExceptionValue@CPacketImplementation@@QAEXABN@Z ENDP ; CPacketImplementation::SetExceptionValue
_TEXT	ENDS
; Function compile flags: /Ogtp
; File D:\git\src\IBK\IBK_DRFN\ProjSrc\SrcChartEx\ChartOCX\PacketData\PacketImplementation.cpp
; File C:\Program Files (x86)\Microsoft Visual Studio\2019\Community\VC\Tools\MSVC\14.29.30133\atlmfc\include\afxtempl.h
; File D:\git\src\IBK\IBK_DRFN\ProjSrc\SrcChartEx\ChartOCX\PacketData\PacketImplementation.cpp
; File C:\Program Files (x86)\Microsoft Visual Studio\2019\Community\VC\Tools\MSVC\14.29.30133\atlmfc\include\afxtempl.h
; File D:\git\src\IBK\IBK_DRFN\ProjSrc\SrcChartEx\ChartOCX\PacketData\PacketImplementation.cpp
;	COMDAT ?InsertTrData@CPacketImplementation@@QAEXN@Z
_TEXT	SEGMENT
_dData$ = 8						; size = 8
?InsertTrData@CPacketImplementation@@QAEXN@Z PROC	; CPacketImplementation::InsertTrData, COMDAT
; _this$ = ecx

; 1744 : {

  00000	55		 push	 ebp
  00001	8b ec		 mov	 ebp, esp
  00003	56		 push	 esi
  00004	8b f1		 mov	 esi, ecx
  00006	57		 push	 edi
; File C:\Program Files (x86)\Microsoft Visual Studio\2019\Community\VC\Tools\MSVC\14.29.30133\atlmfc\include\afxtempl.h

; 953  : 	CNode* pNewNode = NewNode(NULL, m_pNodeHead);

  00007	ff b6 98 00 00
	00		 push	 DWORD PTR [esi+152]
  0000d	8d 8e 94 00 00
	00		 lea	 ecx, DWORD PTR [esi+148]
  00013	6a 00		 push	 0
  00015	e8 00 00 00 00	 call	 ?NewNode@?$CList@NN@@IAEPAUCNode@1@PAU21@0@Z ; CList<double,double>::NewNode

; 954  : 	pNewNode->data = newElement;

  0001a	f2 0f 10 45 08	 movsd	 xmm0, QWORD PTR _dData$[ebp]
  0001f	f2 0f 11 40 08	 movsd	 QWORD PTR [eax+8], xmm0

; 955  : 	if (m_pNodeHead != NULL)

  00024	8b 8e 98 00 00
	00		 mov	 ecx, DWORD PTR [esi+152]
  0002a	85 c9		 test	 ecx, ecx
  0002c	74 05		 je	 SHORT $LN4@InsertTrDa

; 956  : 		m_pNodeHead->pPrev = pNewNode;

  0002e	89 41 04	 mov	 DWORD PTR [ecx+4], eax
  00031	eb 06		 jmp	 SHORT $LN5@InsertTrDa
$LN4@InsertTrDa:

; 957  : 	else
; 958  : 		m_pNodeTail = pNewNode;

  00033	89 86 9c 00 00
	00		 mov	 DWORD PTR [esi+156], eax
$LN5@InsertTrDa:
; File D:\git\src\IBK\IBK_DRFN\ProjSrc\SrcChartEx\ChartOCX\PacketData\PacketImplementation.cpp

; 1800 : 	m_dContinueCode_Pre			= -HUGE_VAL;

  00039	0f 28 05 00 00
	00 00		 movaps	 xmm0, XMMWORD PTR __xmm@fff0000000000000fff0000000000000

; 1801 : 	m_dExceptionValue_Pre		= -HUGE_VAL;
; 1802 : 	m_nStartPeriod_Pre			= -1;
; 1803 : 	m_nStartIndex_Pre			= -1;
; 1804 : 	m_nEndIndex_Pre				= -1;
; 1805 : 	m_dPreMaxValue				= -DBL_MAX;

  00040	f2 0f 10 0d 00
	00 00 00	 movsd	 xmm1, QWORD PTR __real@ffefffffffffffff
; File C:\Program Files (x86)\Microsoft Visual Studio\2019\Community\VC\Tools\MSVC\14.29.30133\atlmfc\include\afxtempl.h

; 959  : 	m_pNodeHead = pNewNode;

  00048	89 86 98 00 00
	00		 mov	 DWORD PTR [esi+152], eax
; File D:\git\src\IBK\IBK_DRFN\ProjSrc\SrcChartEx\ChartOCX\PacketData\PacketImplementation.cpp

; 1800 : 	m_dContinueCode_Pre			= -HUGE_VAL;

  0004e	0f 11 86 18 01
	00 00		 movups	 XMMWORD PTR [esi+280], xmm0

; 1806 : 	m_dPreMinValue				= DBL_MAX;
; 1807 : 	m_dPreMaxValueWithoutEnd	= -DBL_MAX;
; 1808 : 	m_dPreMinValueWithoutEnd	= DBL_MAX;

  00055	5f		 pop	 edi
  00056	f2 0f 10 05 00
	00 00 00	 movsd	 xmm0, QWORD PTR __real@7fefffffffffffff
  0005e	c7 86 10 01 00
	00 00 00 00 00	 mov	 DWORD PTR [esi+272], 0
  00068	c7 86 28 01 00
	00 ff ff ff ff	 mov	 DWORD PTR [esi+296], -1
  00072	c7 86 2c 01 00
	00 ff ff ff ff	 mov	 DWORD PTR [esi+300], -1
  0007c	c7 86 30 01 00
	00 ff ff ff ff	 mov	 DWORD PTR [esi+304], -1
  00086	f2 0f 11 8e 38
	01 00 00	 movsd	 QWORD PTR [esi+312], xmm1
  0008e	f2 0f 11 86 40
	01 00 00	 movsd	 QWORD PTR [esi+320], xmm0
  00096	f2 0f 11 8e 48
	01 00 00	 movsd	 QWORD PTR [esi+328], xmm1
  0009e	f2 0f 11 86 50
	01 00 00	 movsd	 QWORD PTR [esi+336], xmm0
  000a6	5e		 pop	 esi

; 1745 : 	m_lnData.AddHead( dData);
; 1746 : 	ClearMinMax();
; 1747 : }

  000a7	5d		 pop	 ebp
  000a8	c2 08 00	 ret	 8
?InsertTrData@CPacketImplementation@@QAEXN@Z ENDP	; CPacketImplementation::InsertTrData
_TEXT	ENDS
; Function compile flags: /Ogtp
; File D:\git\src\IBK\IBK_DRFN\ProjSrc\SrcChartEx\ChartOCX\PacketData\PacketImplementation.cpp
; File C:\Program Files (x86)\Microsoft Visual Studio\2019\Community\VC\Tools\MSVC\14.29.30133\atlmfc\include\afxtempl.h
; File D:\git\src\IBK\IBK_DRFN\ProjSrc\SrcChartEx\ChartOCX\PacketData\PacketImplementation.cpp
;	COMDAT ?InsertTrData@CPacketImplementation@@QAEXPBD@Z
_TEXT	SEGMENT
__$EHRec$ = -12						; size = 12
$T2 = 8							; size = 4
_p_szData$ = 8						; size = 4
?InsertTrData@CPacketImplementation@@QAEXPBD@Z PROC	; CPacketImplementation::InsertTrData, COMDAT
; _this$ = ecx

; 1740 : {

  00000	55		 push	 ebp
  00001	8b ec		 mov	 ebp, esp
  00003	6a ff		 push	 -1
  00005	68 00 00 00 00	 push	 __ehhandler$?InsertTrData@CPacketImplementation@@QAEXPBD@Z
  0000a	64 a1 00 00 00
	00		 mov	 eax, DWORD PTR fs:0
  00010	50		 push	 eax
  00011	56		 push	 esi
  00012	57		 push	 edi
  00013	a1 00 00 00 00	 mov	 eax, DWORD PTR ___security_cookie
  00018	33 c5		 xor	 eax, ebp
  0001a	50		 push	 eax
  0001b	8d 45 f4	 lea	 eax, DWORD PTR __$EHRec$[ebp]
  0001e	64 a3 00 00 00
	00		 mov	 DWORD PTR fs:0, eax
  00024	8b f9		 mov	 edi, ecx

; 1741 : 	m_lstrData.AddHead( p_szData);

  00026	ff 75 08	 push	 DWORD PTR _p_szData$[ebp]
  00029	8d 4d 08	 lea	 ecx, DWORD PTR $T2[ebp]
  0002c	ff 15 00 00 00
	00		 call	 DWORD PTR __imp_??0?$CStringT@DV?$StrTraitMFC_DLL@DV?$ChTraitsCRT@D@ATL@@@@@ATL@@QAE@PBD@Z
; File C:\Program Files (x86)\Microsoft Visual Studio\2019\Community\VC\Tools\MSVC\14.29.30133\atlmfc\include\afxtempl.h

; 953  : 	CNode* pNewNode = NewNode(NULL, m_pNodeHead);

  00032	ff b7 b4 00 00
	00		 push	 DWORD PTR [edi+180]
  00038	8d 8f b0 00 00
	00		 lea	 ecx, DWORD PTR [edi+176]
  0003e	c7 45 fc 00 00
	00 00		 mov	 DWORD PTR __$EHRec$[ebp+8], 0
  00045	6a 00		 push	 0
  00047	e8 00 00 00 00	 call	 ?NewNode@?$CList@V?$CStringT@DV?$StrTraitMFC_DLL@DV?$ChTraitsCRT@D@ATL@@@@@ATL@@V12@@@IAEPAUCNode@1@PAU21@0@Z ; CList<ATL::CStringT<char,StrTraitMFC_DLL<char,ATL::ChTraitsCRT<char> > >,ATL::CStringT<char,StrTraitMFC_DLL<char,ATL::ChTraitsCRT<char> > > >::NewNode
  0004c	8b f0		 mov	 esi, eax

; 954  : 	pNewNode->data = newElement;

  0004e	8d 45 08	 lea	 eax, DWORD PTR $T2[ebp]
  00051	50		 push	 eax
  00052	8d 4e 08	 lea	 ecx, DWORD PTR [esi+8]
  00055	ff 15 00 00 00
	00		 call	 DWORD PTR __imp_??4?$CStringT@DV?$StrTraitMFC_DLL@DV?$ChTraitsCRT@D@ATL@@@@@ATL@@QAEAAV01@ABV01@@Z

; 955  : 	if (m_pNodeHead != NULL)

  0005b	8b 87 b4 00 00
	00		 mov	 eax, DWORD PTR [edi+180]
  00061	85 c0		 test	 eax, eax
  00063	74 05		 je	 SHORT $LN5@InsertTrDa

; 956  : 		m_pNodeHead->pPrev = pNewNode;

  00065	89 70 04	 mov	 DWORD PTR [eax+4], esi
  00068	eb 06		 jmp	 SHORT $LN6@InsertTrDa
$LN5@InsertTrDa:

; 957  : 	else
; 958  : 		m_pNodeTail = pNewNode;

  0006a	89 b7 b8 00 00
	00		 mov	 DWORD PTR [edi+184], esi
$LN6@InsertTrDa:

; 959  : 	m_pNodeHead = pNewNode;
; 960  : 	return (POSITION) pNewNode;

  00070	8d 4d 08	 lea	 ecx, DWORD PTR $T2[ebp]
  00073	89 b7 b4 00 00
	00		 mov	 DWORD PTR [edi+180], esi
  00079	ff 15 00 00 00
	00		 call	 DWORD PTR __imp_??1?$CStringT@DV?$StrTraitMFC_DLL@DV?$ChTraitsCRT@D@ATL@@@@@ATL@@QAE@XZ
; File D:\git\src\IBK\IBK_DRFN\ProjSrc\SrcChartEx\ChartOCX\PacketData\PacketImplementation.cpp

; 1742 : }

  0007f	8b 4d f4	 mov	 ecx, DWORD PTR __$EHRec$[ebp]
  00082	64 89 0d 00 00
	00 00		 mov	 DWORD PTR fs:0, ecx
  00089	59		 pop	 ecx
  0008a	5f		 pop	 edi
  0008b	5e		 pop	 esi
  0008c	8b e5		 mov	 esp, ebp
  0008e	5d		 pop	 ebp
  0008f	c2 04 00	 ret	 4
_TEXT	ENDS
;	COMDAT text$x
text$x	SEGMENT
__unwindfunclet$?InsertTrData@CPacketImplementation@@QAEXPBD@Z$1:
  00000	8d 4d 08	 lea	 ecx, DWORD PTR $T2[ebp]
  00003	ff 25 00 00 00
	00		 jmp	 DWORD PTR __imp_??1?$CStringT@DV?$StrTraitMFC_DLL@DV?$ChTraitsCRT@D@ATL@@@@@ATL@@QAE@XZ
  00009	cc		 int	 3
  0000a	cc		 int	 3
  0000b	cc		 int	 3
  0000c	cc		 int	 3
  0000d	cc		 int	 3
__ehhandler$?InsertTrData@CPacketImplementation@@QAEXPBD@Z:
  0000e	90		 npad	 1
  0000f	90		 npad	 1
  00010	8b 54 24 08	 mov	 edx, DWORD PTR [esp+8]
  00014	8d 42 0c	 lea	 eax, DWORD PTR [edx+12]
  00017	8b 4a f4	 mov	 ecx, DWORD PTR [edx-12]
  0001a	33 c8		 xor	 ecx, eax
  0001c	e8 00 00 00 00	 call	 @__security_check_cookie@4
  00021	b8 00 00 00 00	 mov	 eax, OFFSET __ehfuncinfo$?InsertTrData@CPacketImplementation@@QAEXPBD@Z
  00026	e9 00 00 00 00	 jmp	 ___CxxFrameHandler3
text$x	ENDS
?InsertTrData@CPacketImplementation@@QAEXPBD@Z ENDP	; CPacketImplementation::InsertTrData
; Function compile flags: /Ogtp
; File D:\git\src\IBK\IBK_DRFN\ProjSrc\SrcChartEx\ChartOCX\PacketData\PacketImplementation.cpp
; File C:\Program Files (x86)\Microsoft Visual Studio\2019\Community\VC\Tools\MSVC\14.29.30133\atlmfc\include\afxtempl.h
; File D:\git\src\IBK\IBK_DRFN\ProjSrc\SrcChartEx\ChartOCX\PacketData\PacketImplementation.cpp
;	COMDAT ?AppendTrData@CPacketImplementation@@QAEXN@Z
_TEXT	SEGMENT
_dData$ = 8						; size = 8
?AppendTrData@CPacketImplementation@@QAEXN@Z PROC	; CPacketImplementation::AppendTrData, COMDAT
; _this$ = ecx

; 1735 : {

  00000	55		 push	 ebp
  00001	8b ec		 mov	 ebp, esp
  00003	56		 push	 esi
  00004	57		 push	 edi
  00005	8b f9		 mov	 edi, ecx
; File C:\Program Files (x86)\Microsoft Visual Studio\2019\Community\VC\Tools\MSVC\14.29.30133\atlmfc\include\afxtempl.h

; 968  : 	CNode* pNewNode = NewNode(m_pNodeTail, NULL);

  00007	6a 00		 push	 0
  00009	ff b7 9c 00 00
	00		 push	 DWORD PTR [edi+156]
  0000f	8d 8f 94 00 00
	00		 lea	 ecx, DWORD PTR [edi+148]
  00015	e8 00 00 00 00	 call	 ?NewNode@?$CList@NN@@IAEPAUCNode@1@PAU21@0@Z ; CList<double,double>::NewNode

; 969  : 	pNewNode->data = newElement;

  0001a	f2 0f 10 45 08	 movsd	 xmm0, QWORD PTR _dData$[ebp]
  0001f	f2 0f 11 40 08	 movsd	 QWORD PTR [eax+8], xmm0

; 970  : 	if (m_pNodeTail != NULL)

  00024	8b 8f 9c 00 00
	00		 mov	 ecx, DWORD PTR [edi+156]
  0002a	85 c9		 test	 ecx, ecx
  0002c	74 04		 je	 SHORT $LN4@AppendTrDa

; 971  : 		m_pNodeTail->pNext = pNewNode;

  0002e	89 01		 mov	 DWORD PTR [ecx], eax
  00030	eb 06		 jmp	 SHORT $LN5@AppendTrDa
$LN4@AppendTrDa:

; 972  : 	else
; 973  : 		m_pNodeHead = pNewNode;

  00032	89 87 98 00 00
	00		 mov	 DWORD PTR [edi+152], eax
$LN5@AppendTrDa:

; 974  : 	m_pNodeTail = pNewNode;

  00038	89 87 9c 00 00
	00		 mov	 DWORD PTR [edi+156], eax
; File D:\git\src\IBK\IBK_DRFN\ProjSrc\SrcChartEx\ChartOCX\PacketData\PacketImplementation.cpp

; 1737 : 	UpdateMinMax( dData, m_lnData.GetCount() - 1);

  0003e	8b cf		 mov	 ecx, edi
  00040	8b 87 a0 00 00
	00		 mov	 eax, DWORD PTR [edi+160]
  00046	48		 dec	 eax
  00047	50		 push	 eax
  00048	83 ec 08	 sub	 esp, 8
  0004b	f2 0f 11 04 24	 movsd	 QWORD PTR [esp], xmm0
  00050	e8 00 00 00 00	 call	 ?UpdateMinMax@CPacketImplementation@@QAEXNH@Z ; CPacketImplementation::UpdateMinMax
  00055	5f		 pop	 edi
  00056	5e		 pop	 esi

; 1738 : }

  00057	5d		 pop	 ebp
  00058	c2 08 00	 ret	 8
?AppendTrData@CPacketImplementation@@QAEXN@Z ENDP	; CPacketImplementation::AppendTrData
_TEXT	ENDS
; Function compile flags: /Ogtp
; File D:\git\src\IBK\IBK_DRFN\ProjSrc\SrcChartEx\ChartOCX\PacketData\PacketImplementation.cpp
; File C:\Program Files (x86)\Microsoft Visual Studio\2019\Community\VC\Tools\MSVC\14.29.30133\atlmfc\include\afxtempl.h
; File D:\git\src\IBK\IBK_DRFN\ProjSrc\SrcChartEx\ChartOCX\PacketData\PacketImplementation.cpp
;	COMDAT ?AppendTrData@CPacketImplementation@@QAEXPBD@Z
_TEXT	SEGMENT
__$EHRec$ = -12						; size = 12
$T2 = 8							; size = 4
_p_szData$ = 8						; size = 4
?AppendTrData@CPacketImplementation@@QAEXPBD@Z PROC	; CPacketImplementation::AppendTrData, COMDAT
; _this$ = ecx

; 1731 : {

  00000	55		 push	 ebp
  00001	8b ec		 mov	 ebp, esp
  00003	6a ff		 push	 -1
  00005	68 00 00 00 00	 push	 __ehhandler$?AppendTrData@CPacketImplementation@@QAEXPBD@Z
  0000a	64 a1 00 00 00
	00		 mov	 eax, DWORD PTR fs:0
  00010	50		 push	 eax
  00011	56		 push	 esi
  00012	57		 push	 edi
  00013	a1 00 00 00 00	 mov	 eax, DWORD PTR ___security_cookie
  00018	33 c5		 xor	 eax, ebp
  0001a	50		 push	 eax
  0001b	8d 45 f4	 lea	 eax, DWORD PTR __$EHRec$[ebp]
  0001e	64 a3 00 00 00
	00		 mov	 DWORD PTR fs:0, eax
  00024	8b f9		 mov	 edi, ecx

; 1732 : 	m_lstrData.AddTail( p_szData);

  00026	ff 75 08	 push	 DWORD PTR _p_szData$[ebp]
  00029	8d 4d 08	 lea	 ecx, DWORD PTR $T2[ebp]
  0002c	ff 15 00 00 00
	00		 call	 DWORD PTR __imp_??0?$CStringT@DV?$StrTraitMFC_DLL@DV?$ChTraitsCRT@D@ATL@@@@@ATL@@QAE@PBD@Z
; File C:\Program Files (x86)\Microsoft Visual Studio\2019\Community\VC\Tools\MSVC\14.29.30133\atlmfc\include\afxtempl.h

; 968  : 	CNode* pNewNode = NewNode(m_pNodeTail, NULL);

  00032	6a 00		 push	 0
  00034	ff b7 b8 00 00
	00		 push	 DWORD PTR [edi+184]
  0003a	8d 8f b0 00 00
	00		 lea	 ecx, DWORD PTR [edi+176]
  00040	c7 45 fc 00 00
	00 00		 mov	 DWORD PTR __$EHRec$[ebp+8], 0
  00047	e8 00 00 00 00	 call	 ?NewNode@?$CList@V?$CStringT@DV?$StrTraitMFC_DLL@DV?$ChTraitsCRT@D@ATL@@@@@ATL@@V12@@@IAEPAUCNode@1@PAU21@0@Z ; CList<ATL::CStringT<char,StrTraitMFC_DLL<char,ATL::ChTraitsCRT<char> > >,ATL::CStringT<char,StrTraitMFC_DLL<char,ATL::ChTraitsCRT<char> > > >::NewNode
  0004c	8b f0		 mov	 esi, eax

; 969  : 	pNewNode->data = newElement;

  0004e	8d 45 08	 lea	 eax, DWORD PTR $T2[ebp]
  00051	50		 push	 eax
  00052	8d 4e 08	 lea	 ecx, DWORD PTR [esi+8]
  00055	ff 15 00 00 00
	00		 call	 DWORD PTR __imp_??4?$CStringT@DV?$StrTraitMFC_DLL@DV?$ChTraitsCRT@D@ATL@@@@@ATL@@QAEAAV01@ABV01@@Z

; 970  : 	if (m_pNodeTail != NULL)

  0005b	8b 87 b8 00 00
	00		 mov	 eax, DWORD PTR [edi+184]
  00061	85 c0		 test	 eax, eax
  00063	74 04		 je	 SHORT $LN5@AppendTrDa

; 971  : 		m_pNodeTail->pNext = pNewNode;

  00065	89 30		 mov	 DWORD PTR [eax], esi
  00067	eb 06		 jmp	 SHORT $LN6@AppendTrDa
$LN5@AppendTrDa:

; 972  : 	else
; 973  : 		m_pNodeHead = pNewNode;

  00069	89 b7 b4 00 00
	00		 mov	 DWORD PTR [edi+180], esi
$LN6@AppendTrDa:

; 974  : 	m_pNodeTail = pNewNode;
; 975  : 	return (POSITION) pNewNode;

  0006f	8d 4d 08	 lea	 ecx, DWORD PTR $T2[ebp]
  00072	89 b7 b8 00 00
	00		 mov	 DWORD PTR [edi+184], esi
  00078	ff 15 00 00 00
	00		 call	 DWORD PTR __imp_??1?$CStringT@DV?$StrTraitMFC_DLL@DV?$ChTraitsCRT@D@ATL@@@@@ATL@@QAE@XZ
; File D:\git\src\IBK\IBK_DRFN\ProjSrc\SrcChartEx\ChartOCX\PacketData\PacketImplementation.cpp

; 1733 : }

  0007e	8b 4d f4	 mov	 ecx, DWORD PTR __$EHRec$[ebp]
  00081	64 89 0d 00 00
	00 00		 mov	 DWORD PTR fs:0, ecx
  00088	59		 pop	 ecx
  00089	5f		 pop	 edi
  0008a	5e		 pop	 esi
  0008b	8b e5		 mov	 esp, ebp
  0008d	5d		 pop	 ebp
  0008e	c2 04 00	 ret	 4
_TEXT	ENDS
;	COMDAT text$x
text$x	SEGMENT
__unwindfunclet$?AppendTrData@CPacketImplementation@@QAEXPBD@Z$1:
  00000	8d 4d 08	 lea	 ecx, DWORD PTR $T2[ebp]
  00003	ff 25 00 00 00
	00		 jmp	 DWORD PTR __imp_??1?$CStringT@DV?$StrTraitMFC_DLL@DV?$ChTraitsCRT@D@ATL@@@@@ATL@@QAE@XZ
  00009	cc		 int	 3
  0000a	cc		 int	 3
  0000b	cc		 int	 3
  0000c	cc		 int	 3
  0000d	cc		 int	 3
__ehhandler$?AppendTrData@CPacketImplementation@@QAEXPBD@Z:
  0000e	90		 npad	 1
  0000f	90		 npad	 1
  00010	8b 54 24 08	 mov	 edx, DWORD PTR [esp+8]
  00014	8d 42 0c	 lea	 eax, DWORD PTR [edx+12]
  00017	8b 4a f4	 mov	 ecx, DWORD PTR [edx-12]
  0001a	33 c8		 xor	 ecx, eax
  0001c	e8 00 00 00 00	 call	 @__security_check_cookie@4
  00021	b8 00 00 00 00	 mov	 eax, OFFSET __ehfuncinfo$?AppendTrData@CPacketImplementation@@QAEXPBD@Z
  00026	e9 00 00 00 00	 jmp	 ___CxxFrameHandler3
text$x	ENDS
?AppendTrData@CPacketImplementation@@QAEXPBD@Z ENDP	; CPacketImplementation::AppendTrData
; Function compile flags: /Ogtp
; File D:\git\src\IBK\IBK_DRFN\ProjSrc\SrcChartEx\ChartOCX\PacketData\PacketImplementation.cpp
; File C:\Program Files (x86)\Microsoft Visual Studio\2019\Community\VC\Tools\MSVC\14.29.30133\atlmfc\include\atlsimpstr.h
; File D:\git\src\IBK\IBK_DRFN\ProjSrc\SrcChartEx\ChartOCX\PacketData\PacketImplementation.cpp
;	COMDAT ?GetTypePartData@CPacketImplementation@@ABEHABNABV?$CStringT@DV?$StrTraitMFC_DLL@DV?$ChTraitsCRT@D@ATL@@@@@ATL@@@Z
_TEXT	SEGMENT
_dOrgData$ = 8						; size = 4
_strType$ = 12						; size = 4
?GetTypePartData@CPacketImplementation@@ABEHABNABV?$CStringT@DV?$StrTraitMFC_DLL@DV?$ChTraitsCRT@D@ATL@@@@@ATL@@@Z PROC ; CPacketImplementation::GetTypePartData, COMDAT
; _this$ = ecx

; 1646 : {

  00000	55		 push	 ebp
  00001	8b ec		 mov	 ebp, esp
; File C:\Program Files (x86)\Microsoft Visual Studio\2019\Community\VC\Tools\MSVC\14.29.30133\atlmfc\include\atlsimpstr.h

; 519  : 		return( GetData()->nDataLength );

  00003	8b 45 0c	 mov	 eax, DWORD PTR _strType$[ebp]
  00006	8b 10		 mov	 edx, DWORD PTR [eax]

; 533  : 		return( GetLength() == 0 );

  00008	83 7a f4 00	 cmp	 DWORD PTR [edx-12], 0
; File D:\git\src\IBK\IBK_DRFN\ProjSrc\SrcChartEx\ChartOCX\PacketData\PacketImplementation.cpp

; 1647 : 	if(strType.IsEmpty() || dOrgData <= 0)

  0000c	74 22		 je	 SHORT $LN6@GetTypePar
  0000e	8b 45 08	 mov	 eax, DWORD PTR _dOrgData$[ebp]
  00011	0f 57 c0	 xorps	 xmm0, xmm0
  00014	66 0f 2f 00	 comisd	 xmm0, QWORD PTR [eax]
  00018	73 16		 jae	 SHORT $LN6@GetTypePar

; 1649 : 
; 1650 : 	int nFindIndex = m_Type.Find(strType);

  0001a	6a 00		 push	 0
  0001c	52		 push	 edx
  0001d	83 c1 64	 add	 ecx, 100		; 00000064H
  00020	ff 15 00 00 00
	00		 call	 DWORD PTR __imp_?Find@?$CStringT@DV?$StrTraitMFC_DLL@DV?$ChTraitsCRT@D@ATL@@@@@ATL@@QBEHPBDH@Z

; 1651 : 	if(nFindIndex < 0)

  00026	85 c0		 test	 eax, eax
  00028	78 06		 js	 SHORT $LN6@GetTypePar

; 1652 : 		return -1;
; 1653 : 
; 1654 : 	return 0;

  0002a	33 c0		 xor	 eax, eax

; 1655 : 	int nTypeCount = m_Type.GetLength();
; 1656 : 	for(int i = m_Type.GetLength() -1; i > nFindIndex; i--)
; 1657 : 	{
; 1658 : 	}
; 1659 : 
; 1660 : 	return 0;
; 1661 : }

  0002c	5d		 pop	 ebp
  0002d	c2 08 00	 ret	 8
$LN6@GetTypePar:

; 1648 : 		return -1;

  00030	83 c8 ff	 or	 eax, -1

; 1655 : 	int nTypeCount = m_Type.GetLength();
; 1656 : 	for(int i = m_Type.GetLength() -1; i > nFindIndex; i--)
; 1657 : 	{
; 1658 : 	}
; 1659 : 
; 1660 : 	return 0;
; 1661 : }

  00033	5d		 pop	 ebp
  00034	c2 08 00	 ret	 8
?GetTypePartData@CPacketImplementation@@ABEHABNABV?$CStringT@DV?$StrTraitMFC_DLL@DV?$ChTraitsCRT@D@ATL@@@@@ATL@@@Z ENDP ; CPacketImplementation::GetTypePartData
_TEXT	ENDS
; Function compile flags: /Ogtp
; File D:\git\src\IBK\IBK_DRFN\ProjSrc\SrcChartEx\ChartOCX\PacketData\PacketImplementation.cpp
; File C:\Program Files (x86)\Microsoft Visual Studio\2019\Community\VC\Tools\MSVC\14.29.30133\atlmfc\include\atlsimpstr.h
; File D:\git\src\IBK\IBK_DRFN\ProjSrc\SrcChartEx\ChartOCX\PacketData\PacketImplementation.cpp
; File C:\Program Files (x86)\Microsoft Visual Studio\2019\Community\VC\Tools\MSVC\14.29.30133\atlmfc\include\atlsimpstr.h
; File D:\git\src\IBK\IBK_DRFN\ProjSrc\SrcChartEx\ChartOCX\PacketData\PacketImplementation.cpp
; File C:\Program Files (x86)\Microsoft Visual Studio\2019\Community\VC\Tools\MSVC\14.29.30133\atlmfc\include\atlsimpstr.h
; File D:\git\src\IBK\IBK_DRFN\ProjSrc\SrcChartEx\ChartOCX\PacketData\PacketImplementation.cpp
;	COMDAT ?IsDataInPacketType_Time@CPacketImplementation@@ABE_NABN@Z
_TEXT	SEGMENT
$T1 = -4						; size = 4
$T2 = 8							; size = 4
_dData$ = 8						; size = 4
?IsDataInPacketType_Time@CPacketImplementation@@ABE_NABN@Z PROC ; CPacketImplementation::IsDataInPacketType_Time, COMDAT
; _this$ = ecx

; 1638 : {

  00000	55		 push	 ebp
  00001	8b ec		 mov	 ebp, esp
  00003	51		 push	 ecx
  00004	56		 push	 esi
  00005	57		 push	 edi
  00006	8b f1		 mov	 esi, ecx

; 1639 : 	int nYear = GetTypePartData(dData, "SS");

  00008	8d 4d fc	 lea	 ecx, DWORD PTR $T1[ebp]
  0000b	68 00 00 00 00	 push	 OFFSET ??_C@_02PPNCLIJD@SS@
  00010	ff 15 00 00 00
	00		 call	 DWORD PTR __imp_??0?$CStringT@DV?$StrTraitMFC_DLL@DV?$ChTraitsCRT@D@ATL@@@@@ATL@@QAE@PBD@Z
; File C:\Program Files (x86)\Microsoft Visual Studio\2019\Community\VC\Tools\MSVC\14.29.30133\atlmfc\include\atlsimpstr.h

; 533  : 		return( GetLength() == 0 );

  00016	8b 45 fc	 mov	 eax, DWORD PTR $T1[ebp]
; File D:\git\src\IBK\IBK_DRFN\ProjSrc\SrcChartEx\ChartOCX\PacketData\PacketImplementation.cpp

; 1647 : 	if(strType.IsEmpty() || dOrgData <= 0)

  00019	8b 7d 08	 mov	 edi, DWORD PTR _dData$[ebp]
; File C:\Program Files (x86)\Microsoft Visual Studio\2019\Community\VC\Tools\MSVC\14.29.30133\atlmfc\include\atlsimpstr.h

; 533  : 		return( GetLength() == 0 );

  0001c	83 78 f4 00	 cmp	 DWORD PTR [eax-12], 0
; File D:\git\src\IBK\IBK_DRFN\ProjSrc\SrcChartEx\ChartOCX\PacketData\PacketImplementation.cpp

; 1647 : 	if(strType.IsEmpty() || dOrgData <= 0)

  00020	74 26		 je	 SHORT $LN11@IsDataInPa
  00022	0f 57 c0	 xorps	 xmm0, xmm0
  00025	66 0f 2f 07	 comisd	 xmm0, QWORD PTR [edi]
  00029	73 1d		 jae	 SHORT $LN11@IsDataInPa

; 1649 : 
; 1650 : 	int nFindIndex = m_Type.Find(strType);

  0002b	6a 00		 push	 0
  0002d	83 c6 64	 add	 esi, 100		; 00000064H
  00030	50		 push	 eax
  00031	8b ce		 mov	 ecx, esi
  00033	ff 15 00 00 00
	00		 call	 DWORD PTR __imp_?Find@?$CStringT@DV?$StrTraitMFC_DLL@DV?$ChTraitsCRT@D@ATL@@@@@ATL@@QBEHPBDH@Z

; 1651 : 	if(nFindIndex < 0)

  00039	8d 4d fc	 lea	 ecx, DWORD PTR $T1[ebp]
  0003c	85 c0		 test	 eax, eax
  0003e	79 42		 jns	 SHORT $LN12@IsDataInPa

; 1652 : 		return -1;

  00040	ff 15 00 00 00
	00		 call	 DWORD PTR __imp_??1?$CStringT@DV?$StrTraitMFC_DLL@DV?$ChTraitsCRT@D@ATL@@@@@ATL@@QAE@XZ
  00046	eb 0c		 jmp	 SHORT $LN54@IsDataInPa
$LN11@IsDataInPa:

; 1648 : 		return -1;

  00048	8d 4d fc	 lea	 ecx, DWORD PTR $T1[ebp]
  0004b	ff 15 00 00 00
	00		 call	 DWORD PTR __imp_??1?$CStringT@DV?$StrTraitMFC_DLL@DV?$ChTraitsCRT@D@ATL@@@@@ATL@@QAE@XZ
  00051	83 c6 64	 add	 esi, 100		; 00000064H
$LN54@IsDataInPa:

; 1640 : 	if(nYear < 0)
; 1641 : 		nYear = GetTypePartData(dData, "MM");

  00054	68 00 00 00 00	 push	 OFFSET ??_C@_02DNCLAJDG@MM@
  00059	8d 4d 08	 lea	 ecx, DWORD PTR $T2[ebp]
  0005c	ff 15 00 00 00
	00		 call	 DWORD PTR __imp_??0?$CStringT@DV?$StrTraitMFC_DLL@DV?$ChTraitsCRT@D@ATL@@@@@ATL@@QAE@PBD@Z
; File C:\Program Files (x86)\Microsoft Visual Studio\2019\Community\VC\Tools\MSVC\14.29.30133\atlmfc\include\atlsimpstr.h

; 533  : 		return( GetLength() == 0 );

  00062	8b 45 08	 mov	 eax, DWORD PTR $T2[ebp]
  00065	83 78 f4 00	 cmp	 DWORD PTR [eax-12], 0
; File D:\git\src\IBK\IBK_DRFN\ProjSrc\SrcChartEx\ChartOCX\PacketData\PacketImplementation.cpp

; 1647 : 	if(strType.IsEmpty() || dOrgData <= 0)

  00069	74 14		 je	 SHORT $LN36@IsDataInPa
  0006b	0f 57 c0	 xorps	 xmm0, xmm0
  0006e	66 0f 2f 07	 comisd	 xmm0, QWORD PTR [edi]
  00072	73 0b		 jae	 SHORT $LN36@IsDataInPa

; 1649 : 
; 1650 : 	int nFindIndex = m_Type.Find(strType);

  00074	6a 00		 push	 0
  00076	50		 push	 eax
  00077	8b ce		 mov	 ecx, esi
  00079	ff 15 00 00 00
	00		 call	 DWORD PTR __imp_?Find@?$CStringT@DV?$StrTraitMFC_DLL@DV?$ChTraitsCRT@D@ATL@@@@@ATL@@QBEHPBDH@Z
$LN36@IsDataInPa:

; 1640 : 	if(nYear < 0)
; 1641 : 		nYear = GetTypePartData(dData, "MM");

  0007f	8d 4d 08	 lea	 ecx, DWORD PTR $T2[ebp]
$LN12@IsDataInPa:

; 1642 : 	return true;
; 1643 : }

  00082	ff 15 00 00 00
	00		 call	 DWORD PTR __imp_??1?$CStringT@DV?$StrTraitMFC_DLL@DV?$ChTraitsCRT@D@ATL@@@@@ATL@@QAE@XZ
  00088	5f		 pop	 edi
  00089	b0 01		 mov	 al, 1
  0008b	5e		 pop	 esi
  0008c	8b e5		 mov	 esp, ebp
  0008e	5d		 pop	 ebp
  0008f	c2 04 00	 ret	 4
?IsDataInPacketType_Time@CPacketImplementation@@ABE_NABN@Z ENDP ; CPacketImplementation::IsDataInPacketType_Time
_TEXT	ENDS
; Function compile flags: /Ogtp
; File D:\git\src\IBK\IBK_DRFN\ProjSrc\SrcChartEx\ChartOCX\PacketData\PacketImplementation.cpp
; File C:\Program Files (x86)\Microsoft Visual Studio\2019\Community\VC\Tools\MSVC\14.29.30133\atlmfc\include\atlsimpstr.h
; File D:\git\src\IBK\IBK_DRFN\ProjSrc\SrcChartEx\ChartOCX\PacketData\PacketImplementation.cpp
; File C:\Program Files (x86)\Microsoft Visual Studio\2019\Community\VC\Tools\MSVC\14.29.30133\atlmfc\include\atlsimpstr.h
; File D:\git\src\IBK\IBK_DRFN\ProjSrc\SrcChartEx\ChartOCX\PacketData\PacketImplementation.cpp
; File C:\Program Files (x86)\Microsoft Visual Studio\2019\Community\VC\Tools\MSVC\14.29.30133\atlmfc\include\atlsimpstr.h
; File D:\git\src\IBK\IBK_DRFN\ProjSrc\SrcChartEx\ChartOCX\PacketData\PacketImplementation.cpp
; File C:\Program Files (x86)\Microsoft Visual Studio\2019\Community\VC\Tools\MSVC\14.29.30133\atlmfc\include\atlsimpstr.h
; File D:\git\src\IBK\IBK_DRFN\ProjSrc\SrcChartEx\ChartOCX\PacketData\PacketImplementation.cpp
; File C:\Program Files (x86)\Microsoft Visual Studio\2019\Community\VC\Tools\MSVC\14.29.30133\atlmfc\include\atlsimpstr.h
; File D:\git\src\IBK\IBK_DRFN\ProjSrc\SrcChartEx\ChartOCX\PacketData\PacketImplementation.cpp
;	COMDAT ?IsDataInPacketType_Date@CPacketImplementation@@ABE_NABN@Z
_TEXT	SEGMENT
$T1 = -4						; size = 4
$T2 = 8							; size = 4
$T3 = 8							; size = 4
$T4 = 8							; size = 4
_dData$ = 8						; size = 4
?IsDataInPacketType_Date@CPacketImplementation@@ABE_NABN@Z PROC ; CPacketImplementation::IsDataInPacketType_Date, COMDAT
; _this$ = ecx

; 1627 : {

  00000	55		 push	 ebp
  00001	8b ec		 mov	 ebp, esp
  00003	51		 push	 ecx
  00004	56		 push	 esi
  00005	57		 push	 edi
  00006	8b f1		 mov	 esi, ecx

; 1628 : 	int nYear = GetTypePartData(dData, "YYYY");

  00008	8d 4d fc	 lea	 ecx, DWORD PTR $T1[ebp]
  0000b	68 00 00 00 00	 push	 OFFSET ??_C@_04LCMPBGFC@YYYY@
  00010	ff 15 00 00 00
	00		 call	 DWORD PTR __imp_??0?$CStringT@DV?$StrTraitMFC_DLL@DV?$ChTraitsCRT@D@ATL@@@@@ATL@@QAE@PBD@Z
; File C:\Program Files (x86)\Microsoft Visual Studio\2019\Community\VC\Tools\MSVC\14.29.30133\atlmfc\include\atlsimpstr.h

; 533  : 		return( GetLength() == 0 );

  00016	8b 45 fc	 mov	 eax, DWORD PTR $T1[ebp]
; File D:\git\src\IBK\IBK_DRFN\ProjSrc\SrcChartEx\ChartOCX\PacketData\PacketImplementation.cpp

; 1647 : 	if(strType.IsEmpty() || dOrgData <= 0)

  00019	8b 7d 08	 mov	 edi, DWORD PTR _dData$[ebp]
; File C:\Program Files (x86)\Microsoft Visual Studio\2019\Community\VC\Tools\MSVC\14.29.30133\atlmfc\include\atlsimpstr.h

; 533  : 		return( GetLength() == 0 );

  0001c	83 78 f4 00	 cmp	 DWORD PTR [eax-12], 0
; File D:\git\src\IBK\IBK_DRFN\ProjSrc\SrcChartEx\ChartOCX\PacketData\PacketImplementation.cpp

; 1647 : 	if(strType.IsEmpty() || dOrgData <= 0)

  00020	74 26		 je	 SHORT $LN13@IsDataInPa
  00022	0f 57 c0	 xorps	 xmm0, xmm0
  00025	66 0f 2f 07	 comisd	 xmm0, QWORD PTR [edi]
  00029	73 1d		 jae	 SHORT $LN13@IsDataInPa

; 1649 : 
; 1650 : 	int nFindIndex = m_Type.Find(strType);

  0002b	6a 00		 push	 0
  0002d	83 c6 64	 add	 esi, 100		; 00000064H
  00030	50		 push	 eax
  00031	8b ce		 mov	 ecx, esi
  00033	ff 15 00 00 00
	00		 call	 DWORD PTR __imp_?Find@?$CStringT@DV?$StrTraitMFC_DLL@DV?$ChTraitsCRT@D@ATL@@@@@ATL@@QBEHPBDH@Z

; 1651 : 	if(nFindIndex < 0)

  00039	8d 4d fc	 lea	 ecx, DWORD PTR $T1[ebp]
  0003c	85 c0		 test	 eax, eax
  0003e	79 42		 jns	 SHORT $LN14@IsDataInPa

; 1652 : 		return -1;

  00040	ff 15 00 00 00
	00		 call	 DWORD PTR __imp_??1?$CStringT@DV?$StrTraitMFC_DLL@DV?$ChTraitsCRT@D@ATL@@@@@ATL@@QAE@XZ
  00046	eb 0c		 jmp	 SHORT $LN104@IsDataInPa
$LN13@IsDataInPa:

; 1648 : 		return -1;

  00048	8d 4d fc	 lea	 ecx, DWORD PTR $T1[ebp]
  0004b	ff 15 00 00 00
	00		 call	 DWORD PTR __imp_??1?$CStringT@DV?$StrTraitMFC_DLL@DV?$ChTraitsCRT@D@ATL@@@@@ATL@@QAE@XZ
  00051	83 c6 64	 add	 esi, 100		; 00000064H
$LN104@IsDataInPa:

; 1629 : 	if(nYear < 0)
; 1630 : 		nYear = GetTypePartData(dData, "YY");

  00054	68 00 00 00 00	 push	 OFFSET ??_C@_02IKKNFMP@YY@
  00059	8d 4d 08	 lea	 ecx, DWORD PTR $T4[ebp]
  0005c	ff 15 00 00 00
	00		 call	 DWORD PTR __imp_??0?$CStringT@DV?$StrTraitMFC_DLL@DV?$ChTraitsCRT@D@ATL@@@@@ATL@@QAE@PBD@Z
; File C:\Program Files (x86)\Microsoft Visual Studio\2019\Community\VC\Tools\MSVC\14.29.30133\atlmfc\include\atlsimpstr.h

; 533  : 		return( GetLength() == 0 );

  00062	8b 45 08	 mov	 eax, DWORD PTR $T4[ebp]
  00065	83 78 f4 00	 cmp	 DWORD PTR [eax-12], 0
; File D:\git\src\IBK\IBK_DRFN\ProjSrc\SrcChartEx\ChartOCX\PacketData\PacketImplementation.cpp

; 1647 : 	if(strType.IsEmpty() || dOrgData <= 0)

  00069	74 14		 je	 SHORT $LN38@IsDataInPa
  0006b	0f 57 c0	 xorps	 xmm0, xmm0
  0006e	66 0f 2f 07	 comisd	 xmm0, QWORD PTR [edi]
  00072	73 0b		 jae	 SHORT $LN38@IsDataInPa

; 1649 : 
; 1650 : 	int nFindIndex = m_Type.Find(strType);

  00074	6a 00		 push	 0
  00076	50		 push	 eax
  00077	8b ce		 mov	 ecx, esi
  00079	ff 15 00 00 00
	00		 call	 DWORD PTR __imp_?Find@?$CStringT@DV?$StrTraitMFC_DLL@DV?$ChTraitsCRT@D@ATL@@@@@ATL@@QBEHPBDH@Z
$LN38@IsDataInPa:

; 1629 : 	if(nYear < 0)
; 1630 : 		nYear = GetTypePartData(dData, "YY");

  0007f	8d 4d 08	 lea	 ecx, DWORD PTR $T4[ebp]
$LN14@IsDataInPa:

; 1631 : 	int nMonth = GetTypePartData(dData, "MM");

  00082	ff 15 00 00 00
	00		 call	 DWORD PTR __imp_??1?$CStringT@DV?$StrTraitMFC_DLL@DV?$ChTraitsCRT@D@ATL@@@@@ATL@@QAE@XZ
  00088	68 00 00 00 00	 push	 OFFSET ??_C@_02DNCLAJDG@MM@
  0008d	8d 4d 08	 lea	 ecx, DWORD PTR $T3[ebp]
  00090	ff 15 00 00 00
	00		 call	 DWORD PTR __imp_??0?$CStringT@DV?$StrTraitMFC_DLL@DV?$ChTraitsCRT@D@ATL@@@@@ATL@@QAE@PBD@Z
; File C:\Program Files (x86)\Microsoft Visual Studio\2019\Community\VC\Tools\MSVC\14.29.30133\atlmfc\include\atlsimpstr.h

; 533  : 		return( GetLength() == 0 );

  00096	8b 45 08	 mov	 eax, DWORD PTR $T3[ebp]
  00099	83 78 f4 00	 cmp	 DWORD PTR [eax-12], 0
; File D:\git\src\IBK\IBK_DRFN\ProjSrc\SrcChartEx\ChartOCX\PacketData\PacketImplementation.cpp

; 1647 : 	if(strType.IsEmpty() || dOrgData <= 0)

  0009d	74 14		 je	 SHORT $LN62@IsDataInPa
  0009f	0f 57 c0	 xorps	 xmm0, xmm0
  000a2	66 0f 2f 07	 comisd	 xmm0, QWORD PTR [edi]
  000a6	73 0b		 jae	 SHORT $LN62@IsDataInPa

; 1649 : 
; 1650 : 	int nFindIndex = m_Type.Find(strType);

  000a8	6a 00		 push	 0
  000aa	50		 push	 eax
  000ab	8b ce		 mov	 ecx, esi
  000ad	ff 15 00 00 00
	00		 call	 DWORD PTR __imp_?Find@?$CStringT@DV?$StrTraitMFC_DLL@DV?$ChTraitsCRT@D@ATL@@@@@ATL@@QBEHPBDH@Z
$LN62@IsDataInPa:

; 1631 : 	int nMonth = GetTypePartData(dData, "MM");

  000b3	8d 4d 08	 lea	 ecx, DWORD PTR $T3[ebp]
  000b6	ff 15 00 00 00
	00		 call	 DWORD PTR __imp_??1?$CStringT@DV?$StrTraitMFC_DLL@DV?$ChTraitsCRT@D@ATL@@@@@ATL@@QAE@XZ

; 1632 : 	int nDaily = GetTypePartData(dData, "DD");

  000bc	68 00 00 00 00	 push	 OFFSET ??_C@_02ODDIIJPA@DD@
  000c1	8d 4d 08	 lea	 ecx, DWORD PTR $T2[ebp]
  000c4	ff 15 00 00 00
	00		 call	 DWORD PTR __imp_??0?$CStringT@DV?$StrTraitMFC_DLL@DV?$ChTraitsCRT@D@ATL@@@@@ATL@@QAE@PBD@Z
; File C:\Program Files (x86)\Microsoft Visual Studio\2019\Community\VC\Tools\MSVC\14.29.30133\atlmfc\include\atlsimpstr.h

; 533  : 		return( GetLength() == 0 );

  000ca	8b 45 08	 mov	 eax, DWORD PTR $T2[ebp]
  000cd	83 78 f4 00	 cmp	 DWORD PTR [eax-12], 0
; File D:\git\src\IBK\IBK_DRFN\ProjSrc\SrcChartEx\ChartOCX\PacketData\PacketImplementation.cpp

; 1647 : 	if(strType.IsEmpty() || dOrgData <= 0)

  000d1	74 14		 je	 SHORT $LN86@IsDataInPa
  000d3	0f 57 c0	 xorps	 xmm0, xmm0
  000d6	66 0f 2f 07	 comisd	 xmm0, QWORD PTR [edi]
  000da	73 0b		 jae	 SHORT $LN86@IsDataInPa

; 1649 : 
; 1650 : 	int nFindIndex = m_Type.Find(strType);

  000dc	6a 00		 push	 0
  000de	50		 push	 eax
  000df	8b ce		 mov	 ecx, esi
  000e1	ff 15 00 00 00
	00		 call	 DWORD PTR __imp_?Find@?$CStringT@DV?$StrTraitMFC_DLL@DV?$ChTraitsCRT@D@ATL@@@@@ATL@@QBEHPBDH@Z
$LN86@IsDataInPa:

; 1632 : 	int nDaily = GetTypePartData(dData, "DD");

  000e7	8d 4d 08	 lea	 ecx, DWORD PTR $T2[ebp]
  000ea	ff 15 00 00 00
	00		 call	 DWORD PTR __imp_??1?$CStringT@DV?$StrTraitMFC_DLL@DV?$ChTraitsCRT@D@ATL@@@@@ATL@@QAE@XZ

; 1633 : 	return true;

  000f0	5f		 pop	 edi
  000f1	b0 01		 mov	 al, 1
  000f3	5e		 pop	 esi

; 1634 : }

  000f4	8b e5		 mov	 esp, ebp
  000f6	5d		 pop	 ebp
  000f7	c2 04 00	 ret	 4
?IsDataInPacketType_Date@CPacketImplementation@@ABE_NABN@Z ENDP ; CPacketImplementation::IsDataInPacketType_Date
_TEXT	ENDS
; Function compile flags: /Ogtp
; File D:\git\src\IBK\IBK_DRFN\ProjSrc\SrcChartEx\ChartOCX\PacketData\PacketImplementation.cpp
; File C:\Program Files (x86)\Microsoft Visual Studio\2019\Community\VC\Tools\MSVC\14.29.30133\atlmfc\include\atlsimpstr.h
; File D:\git\src\IBK\IBK_DRFN\ProjSrc\SrcChartEx\ChartOCX\PacketData\PacketImplementation.cpp
; File C:\Program Files (x86)\Microsoft Visual Studio\2019\Community\VC\Tools\MSVC\14.29.30133\atlmfc\include\atlsimpstr.h
; File D:\git\src\IBK\IBK_DRFN\ProjSrc\SrcChartEx\ChartOCX\PacketData\PacketImplementation.cpp
; File C:\Program Files (x86)\Microsoft Visual Studio\2019\Community\VC\Tools\MSVC\14.29.30133\atlmfc\include\atlsimpstr.h
; File D:\git\src\IBK\IBK_DRFN\ProjSrc\SrcChartEx\ChartOCX\PacketData\PacketImplementation.cpp
; File C:\Program Files (x86)\Microsoft Visual Studio\2019\Community\VC\Tools\MSVC\14.29.30133\atlmfc\include\atlsimpstr.h
; File D:\git\src\IBK\IBK_DRFN\ProjSrc\SrcChartEx\ChartOCX\PacketData\PacketImplementation.cpp
; File C:\Program Files (x86)\Microsoft Visual Studio\2019\Community\VC\Tools\MSVC\14.29.30133\atlmfc\include\atlsimpstr.h
; File D:\git\src\IBK\IBK_DRFN\ProjSrc\SrcChartEx\ChartOCX\PacketData\PacketImplementation.cpp
; File C:\Program Files (x86)\Microsoft Visual Studio\2019\Community\VC\Tools\MSVC\14.29.30133\atlmfc\include\atlsimpstr.h
; File D:\git\src\IBK\IBK_DRFN\ProjSrc\SrcChartEx\ChartOCX\PacketData\PacketImplementation.cpp
; File C:\Program Files (x86)\Microsoft Visual Studio\2019\Community\VC\Tools\MSVC\14.29.30133\atlmfc\include\atlsimpstr.h
; File D:\git\src\IBK\IBK_DRFN\ProjSrc\SrcChartEx\ChartOCX\PacketData\PacketImplementation.cpp
;	COMDAT ?IsDataInPacketType@CPacketImplementation@@ABE_NABN@Z
_TEXT	SEGMENT
$T1 = -12						; size = 4
$T2 = -8						; size = 4
$T3 = -4						; size = 4
$T4 = -4						; size = 4
$T5 = 8							; size = 4
$T6 = 8							; size = 4
_dData$ = 8						; size = 4
?IsDataInPacketType@CPacketImplementation@@ABE_NABN@Z PROC ; CPacketImplementation::IsDataInPacketType, COMDAT
; _this$ = ecx

; 1602 : {

  00000	55		 push	 ebp
  00001	8b ec		 mov	 ebp, esp

; 1603 : 	if(m_pParentList == NULL || m_Type.IsEmpty() || dData <= 0)

  00003	8b 91 cc 00 00
	00		 mov	 edx, DWORD PTR [ecx+204]
  00009	83 ec 0c	 sub	 esp, 12			; 0000000cH
  0000c	56		 push	 esi
  0000d	57		 push	 edi
  0000e	85 d2		 test	 edx, edx
  00010	0f 84 c1 01 00
	00		 je	 $LN3@IsDataInPa
; File C:\Program Files (x86)\Microsoft Visual Studio\2019\Community\VC\Tools\MSVC\14.29.30133\atlmfc\include\atlsimpstr.h

; 533  : 		return( GetLength() == 0 );

  00016	8b 41 64	 mov	 eax, DWORD PTR [ecx+100]

; 800  : 		return( reinterpret_cast< CStringData* >( m_pszData )-1 );

  00019	8d 71 64	 lea	 esi, DWORD PTR [ecx+100]

; 533  : 		return( GetLength() == 0 );

  0001c	83 78 f4 00	 cmp	 DWORD PTR [eax-12], 0
; File D:\git\src\IBK\IBK_DRFN\ProjSrc\SrcChartEx\ChartOCX\PacketData\PacketImplementation.cpp

; 1603 : 	if(m_pParentList == NULL || m_Type.IsEmpty() || dData <= 0)

  00020	0f 84 b1 01 00
	00		 je	 $LN3@IsDataInPa
  00026	8b 7d 08	 mov	 edi, DWORD PTR _dData$[ebp]
  00029	0f 57 c0	 xorps	 xmm0, xmm0
  0002c	66 0f 2f 07	 comisd	 xmm0, QWORD PTR [edi]
  00030	0f 83 a1 01 00
	00		 jae	 $LN3@IsDataInPa

; 1605 : 
; 1606 : 	CScaleBaseData::HORZSCALEDRAWERTYPE eDateUnitType = m_pParentList->GetDateUnitType();

  00036	8b ca		 mov	 ecx, edx
  00038	e8 00 00 00 00	 call	 ?GetDateUnitType@CPacketList@@QAE?AW4HORZSCALEDRAWERTYPE@CScaleBaseData@@XZ ; CPacketList::GetDateUnitType

; 1607 : 	// "", "", ""
; 1608 : 	if(eDateUnitType == CScaleBaseData::HORZ_DAILY || 
; 1609 : 		eDateUnitType == CScaleBaseData::HORZ_WEEKLEY || 

  0003d	83 f8 01	 cmp	 eax, 1
  00040	0f 84 ae 00 00
	00		 je	 $LN6@IsDataInPa
  00046	83 f8 02	 cmp	 eax, 2
  00049	0f 84 a5 00 00
	00		 je	 $LN6@IsDataInPa
  0004f	83 f8 03	 cmp	 eax, 3
  00052	0f 84 9c 00 00
	00		 je	 $LN6@IsDataInPa

; 1613 : 	}
; 1614 : 	// "", ""
; 1615 : 	else if(eDateUnitType == CScaleBaseData::HORZ_TIME_ONE || 
; 1616 : 		eDateUnitType == CScaleBaseData::HORZ_TIME_TWO || 

  00058	83 f8 04	 cmp	 eax, 4
  0005b	74 0e		 je	 SHORT $LN8@IsDataInPa
  0005d	83 f8 06	 cmp	 eax, 6
  00060	74 09		 je	 SHORT $LN8@IsDataInPa
  00062	83 f8 05	 cmp	 eax, 5
  00065	0f 85 6c 01 00
	00		 jne	 $LN3@IsDataInPa
$LN8@IsDataInPa:

; 1639 : 	int nYear = GetTypePartData(dData, "SS");

  0006b	68 00 00 00 00	 push	 OFFSET ??_C@_02PPNCLIJD@SS@
  00070	8d 4d 08	 lea	 ecx, DWORD PTR $T5[ebp]
  00073	ff 15 00 00 00
	00		 call	 DWORD PTR __imp_??0?$CStringT@DV?$StrTraitMFC_DLL@DV?$ChTraitsCRT@D@ATL@@@@@ATL@@QAE@PBD@Z
; File C:\Program Files (x86)\Microsoft Visual Studio\2019\Community\VC\Tools\MSVC\14.29.30133\atlmfc\include\atlsimpstr.h

; 533  : 		return( GetLength() == 0 );

  00079	8b 45 08	 mov	 eax, DWORD PTR $T5[ebp]
  0007c	83 78 f4 00	 cmp	 DWORD PTR [eax-12], 0
; File D:\git\src\IBK\IBK_DRFN\ProjSrc\SrcChartEx\ChartOCX\PacketData\PacketImplementation.cpp

; 1647 : 	if(strType.IsEmpty() || dOrgData <= 0)

  00080	74 2b		 je	 SHORT $LN129@IsDataInPa
  00082	0f 57 c0	 xorps	 xmm0, xmm0
  00085	66 0f 2f 07	 comisd	 xmm0, QWORD PTR [edi]
  00089	73 22		 jae	 SHORT $LN129@IsDataInPa

; 1649 : 
; 1650 : 	int nFindIndex = m_Type.Find(strType);

  0008b	6a 00		 push	 0
  0008d	50		 push	 eax
  0008e	8b ce		 mov	 ecx, esi
  00090	ff 15 00 00 00
	00		 call	 DWORD PTR __imp_?Find@?$CStringT@DV?$StrTraitMFC_DLL@DV?$ChTraitsCRT@D@ATL@@@@@ATL@@QBEHPBDH@Z

; 1651 : 	if(nFindIndex < 0)

  00096	8d 4d 08	 lea	 ecx, DWORD PTR $T5[ebp]
  00099	85 c0		 test	 eax, eax
  0009b	78 13		 js	 SHORT $LN174@IsDataInPa

; 1617 : 		eDateUnitType == CScaleBaseData::HORZ_TICK)
; 1618 : 	{
; 1619 : 		return IsDataInPacketType_Time(dData);

  0009d	ff 15 00 00 00
	00		 call	 DWORD PTR __imp_??1?$CStringT@DV?$StrTraitMFC_DLL@DV?$ChTraitsCRT@D@ATL@@@@@ATL@@QAE@XZ
  000a3	5f		 pop	 edi
  000a4	b0 01		 mov	 al, 1

; 1620 : 	}
; 1621 : 
; 1622 : 	return false;
; 1623 : }

  000a6	5e		 pop	 esi
  000a7	8b e5		 mov	 esp, ebp
  000a9	5d		 pop	 ebp
  000aa	c2 04 00	 ret	 4
$LN129@IsDataInPa:

; 1648 : 		return -1;

  000ad	8d 4d 08	 lea	 ecx, DWORD PTR $T5[ebp]
$LN174@IsDataInPa:

; 1641 : 		nYear = GetTypePartData(dData, "MM");

  000b0	ff 15 00 00 00
	00		 call	 DWORD PTR __imp_??1?$CStringT@DV?$StrTraitMFC_DLL@DV?$ChTraitsCRT@D@ATL@@@@@ATL@@QAE@XZ
  000b6	68 00 00 00 00	 push	 OFFSET ??_C@_02DNCLAJDG@MM@
  000bb	8d 4d fc	 lea	 ecx, DWORD PTR $T3[ebp]
  000be	ff 15 00 00 00
	00		 call	 DWORD PTR __imp_??0?$CStringT@DV?$StrTraitMFC_DLL@DV?$ChTraitsCRT@D@ATL@@@@@ATL@@QAE@PBD@Z
; File C:\Program Files (x86)\Microsoft Visual Studio\2019\Community\VC\Tools\MSVC\14.29.30133\atlmfc\include\atlsimpstr.h

; 533  : 		return( GetLength() == 0 );

  000c4	8b 45 fc	 mov	 eax, DWORD PTR $T3[ebp]
  000c7	83 78 f4 00	 cmp	 DWORD PTR [eax-12], 0
; File D:\git\src\IBK\IBK_DRFN\ProjSrc\SrcChartEx\ChartOCX\PacketData\PacketImplementation.cpp

; 1647 : 	if(strType.IsEmpty() || dOrgData <= 0)

  000cb	74 14		 je	 SHORT $LN154@IsDataInPa
  000cd	0f 57 c0	 xorps	 xmm0, xmm0
  000d0	66 0f 2f 07	 comisd	 xmm0, QWORD PTR [edi]
  000d4	73 0b		 jae	 SHORT $LN154@IsDataInPa

; 1649 : 
; 1650 : 	int nFindIndex = m_Type.Find(strType);

  000d6	6a 00		 push	 0
  000d8	50		 push	 eax
  000d9	8b ce		 mov	 ecx, esi
  000db	ff 15 00 00 00
	00		 call	 DWORD PTR __imp_?Find@?$CStringT@DV?$StrTraitMFC_DLL@DV?$ChTraitsCRT@D@ATL@@@@@ATL@@QBEHPBDH@Z
$LN154@IsDataInPa:

; 1641 : 		nYear = GetTypePartData(dData, "MM");

  000e1	8d 4d fc	 lea	 ecx, DWORD PTR $T3[ebp]

; 1617 : 		eDateUnitType == CScaleBaseData::HORZ_TICK)
; 1618 : 	{
; 1619 : 		return IsDataInPacketType_Time(dData);

  000e4	ff 15 00 00 00
	00		 call	 DWORD PTR __imp_??1?$CStringT@DV?$StrTraitMFC_DLL@DV?$ChTraitsCRT@D@ATL@@@@@ATL@@QAE@XZ
  000ea	5f		 pop	 edi
  000eb	b0 01		 mov	 al, 1

; 1620 : 	}
; 1621 : 
; 1622 : 	return false;
; 1623 : }

  000ed	5e		 pop	 esi
  000ee	8b e5		 mov	 esp, ebp
  000f0	5d		 pop	 ebp
  000f1	c2 04 00	 ret	 4
$LN6@IsDataInPa:

; 1628 : 	int nYear = GetTypePartData(dData, "YYYY");

  000f4	68 00 00 00 00	 push	 OFFSET ??_C@_04LCMPBGFC@YYYY@
  000f9	8d 4d 08	 lea	 ecx, DWORD PTR $T6[ebp]
  000fc	ff 15 00 00 00
	00		 call	 DWORD PTR __imp_??0?$CStringT@DV?$StrTraitMFC_DLL@DV?$ChTraitsCRT@D@ATL@@@@@ATL@@QAE@PBD@Z
; File C:\Program Files (x86)\Microsoft Visual Studio\2019\Community\VC\Tools\MSVC\14.29.30133\atlmfc\include\atlsimpstr.h

; 533  : 		return( GetLength() == 0 );

  00102	8b 45 08	 mov	 eax, DWORD PTR $T6[ebp]
  00105	83 78 f4 00	 cmp	 DWORD PTR [eax-12], 0
; File D:\git\src\IBK\IBK_DRFN\ProjSrc\SrcChartEx\ChartOCX\PacketData\PacketImplementation.cpp

; 1647 : 	if(strType.IsEmpty() || dOrgData <= 0)

  00109	74 1d		 je	 SHORT $LN28@IsDataInPa
  0010b	0f 57 c0	 xorps	 xmm0, xmm0
  0010e	66 0f 2f 07	 comisd	 xmm0, QWORD PTR [edi]
  00112	73 14		 jae	 SHORT $LN28@IsDataInPa

; 1649 : 
; 1650 : 	int nFindIndex = m_Type.Find(strType);

  00114	6a 00		 push	 0
  00116	50		 push	 eax
  00117	8b ce		 mov	 ecx, esi
  00119	ff 15 00 00 00
	00		 call	 DWORD PTR __imp_?Find@?$CStringT@DV?$StrTraitMFC_DLL@DV?$ChTraitsCRT@D@ATL@@@@@ATL@@QBEHPBDH@Z

; 1651 : 	if(nFindIndex < 0)

  0011f	8d 4d 08	 lea	 ecx, DWORD PTR $T6[ebp]
  00122	85 c0		 test	 eax, eax
  00124	78 05		 js	 SHORT $LN176@IsDataInPa

; 1652 : 		return -1;
; 1653 : 
; 1654 : 	return 0;

  00126	eb 37		 jmp	 SHORT $LN177@IsDataInPa
$LN28@IsDataInPa:

; 1648 : 		return -1;

  00128	8d 4d 08	 lea	 ecx, DWORD PTR $T6[ebp]
$LN176@IsDataInPa:

; 1630 : 		nYear = GetTypePartData(dData, "YY");

  0012b	ff 15 00 00 00
	00		 call	 DWORD PTR __imp_??1?$CStringT@DV?$StrTraitMFC_DLL@DV?$ChTraitsCRT@D@ATL@@@@@ATL@@QAE@XZ
  00131	68 00 00 00 00	 push	 OFFSET ??_C@_02IKKNFMP@YY@
  00136	8d 4d fc	 lea	 ecx, DWORD PTR $T4[ebp]
  00139	ff 15 00 00 00
	00		 call	 DWORD PTR __imp_??0?$CStringT@DV?$StrTraitMFC_DLL@DV?$ChTraitsCRT@D@ATL@@@@@ATL@@QAE@PBD@Z
; File C:\Program Files (x86)\Microsoft Visual Studio\2019\Community\VC\Tools\MSVC\14.29.30133\atlmfc\include\atlsimpstr.h

; 533  : 		return( GetLength() == 0 );

  0013f	8b 45 fc	 mov	 eax, DWORD PTR $T4[ebp]
  00142	83 78 f4 00	 cmp	 DWORD PTR [eax-12], 0
; File D:\git\src\IBK\IBK_DRFN\ProjSrc\SrcChartEx\ChartOCX\PacketData\PacketImplementation.cpp

; 1647 : 	if(strType.IsEmpty() || dOrgData <= 0)

  00146	74 14		 je	 SHORT $LN53@IsDataInPa
  00148	0f 57 c0	 xorps	 xmm0, xmm0
  0014b	66 0f 2f 07	 comisd	 xmm0, QWORD PTR [edi]
  0014f	73 0b		 jae	 SHORT $LN53@IsDataInPa

; 1649 : 
; 1650 : 	int nFindIndex = m_Type.Find(strType);

  00151	6a 00		 push	 0
  00153	50		 push	 eax
  00154	8b ce		 mov	 ecx, esi
  00156	ff 15 00 00 00
	00		 call	 DWORD PTR __imp_?Find@?$CStringT@DV?$StrTraitMFC_DLL@DV?$ChTraitsCRT@D@ATL@@@@@ATL@@QBEHPBDH@Z
$LN53@IsDataInPa:

; 1630 : 		nYear = GetTypePartData(dData, "YY");

  0015c	8d 4d fc	 lea	 ecx, DWORD PTR $T4[ebp]
$LN177@IsDataInPa:

; 1631 : 	int nMonth = GetTypePartData(dData, "MM");

  0015f	ff 15 00 00 00
	00		 call	 DWORD PTR __imp_??1?$CStringT@DV?$StrTraitMFC_DLL@DV?$ChTraitsCRT@D@ATL@@@@@ATL@@QAE@XZ
  00165	68 00 00 00 00	 push	 OFFSET ??_C@_02DNCLAJDG@MM@
  0016a	8d 4d f8	 lea	 ecx, DWORD PTR $T2[ebp]
  0016d	ff 15 00 00 00
	00		 call	 DWORD PTR __imp_??0?$CStringT@DV?$StrTraitMFC_DLL@DV?$ChTraitsCRT@D@ATL@@@@@ATL@@QAE@PBD@Z
; File C:\Program Files (x86)\Microsoft Visual Studio\2019\Community\VC\Tools\MSVC\14.29.30133\atlmfc\include\atlsimpstr.h

; 533  : 		return( GetLength() == 0 );

  00173	8b 45 f8	 mov	 eax, DWORD PTR $T2[ebp]
  00176	83 78 f4 00	 cmp	 DWORD PTR [eax-12], 0
; File D:\git\src\IBK\IBK_DRFN\ProjSrc\SrcChartEx\ChartOCX\PacketData\PacketImplementation.cpp

; 1647 : 	if(strType.IsEmpty() || dOrgData <= 0)

  0017a	74 14		 je	 SHORT $LN77@IsDataInPa
  0017c	0f 57 c0	 xorps	 xmm0, xmm0
  0017f	66 0f 2f 07	 comisd	 xmm0, QWORD PTR [edi]
  00183	73 0b		 jae	 SHORT $LN77@IsDataInPa

; 1649 : 
; 1650 : 	int nFindIndex = m_Type.Find(strType);

  00185	6a 00		 push	 0
  00187	50		 push	 eax
  00188	8b ce		 mov	 ecx, esi
  0018a	ff 15 00 00 00
	00		 call	 DWORD PTR __imp_?Find@?$CStringT@DV?$StrTraitMFC_DLL@DV?$ChTraitsCRT@D@ATL@@@@@ATL@@QBEHPBDH@Z
$LN77@IsDataInPa:

; 1631 : 	int nMonth = GetTypePartData(dData, "MM");

  00190	8d 4d f8	 lea	 ecx, DWORD PTR $T2[ebp]
  00193	ff 15 00 00 00
	00		 call	 DWORD PTR __imp_??1?$CStringT@DV?$StrTraitMFC_DLL@DV?$ChTraitsCRT@D@ATL@@@@@ATL@@QAE@XZ

; 1632 : 	int nDaily = GetTypePartData(dData, "DD");

  00199	68 00 00 00 00	 push	 OFFSET ??_C@_02ODDIIJPA@DD@
  0019e	8d 4d f4	 lea	 ecx, DWORD PTR $T1[ebp]
  001a1	ff 15 00 00 00
	00		 call	 DWORD PTR __imp_??0?$CStringT@DV?$StrTraitMFC_DLL@DV?$ChTraitsCRT@D@ATL@@@@@ATL@@QAE@PBD@Z
; File C:\Program Files (x86)\Microsoft Visual Studio\2019\Community\VC\Tools\MSVC\14.29.30133\atlmfc\include\atlsimpstr.h

; 533  : 		return( GetLength() == 0 );

  001a7	8b 45 f4	 mov	 eax, DWORD PTR $T1[ebp]
  001aa	83 78 f4 00	 cmp	 DWORD PTR [eax-12], 0
; File D:\git\src\IBK\IBK_DRFN\ProjSrc\SrcChartEx\ChartOCX\PacketData\PacketImplementation.cpp

; 1647 : 	if(strType.IsEmpty() || dOrgData <= 0)

  001ae	74 14		 je	 SHORT $LN101@IsDataInPa
  001b0	0f 57 c0	 xorps	 xmm0, xmm0
  001b3	66 0f 2f 07	 comisd	 xmm0, QWORD PTR [edi]
  001b7	73 0b		 jae	 SHORT $LN101@IsDataInPa

; 1649 : 
; 1650 : 	int nFindIndex = m_Type.Find(strType);

  001b9	6a 00		 push	 0
  001bb	50		 push	 eax
  001bc	8b ce		 mov	 ecx, esi
  001be	ff 15 00 00 00
	00		 call	 DWORD PTR __imp_?Find@?$CStringT@DV?$StrTraitMFC_DLL@DV?$ChTraitsCRT@D@ATL@@@@@ATL@@QBEHPBDH@Z
$LN101@IsDataInPa:

; 1632 : 	int nDaily = GetTypePartData(dData, "DD");

  001c4	8d 4d f4	 lea	 ecx, DWORD PTR $T1[ebp]
  001c7	ff 15 00 00 00
	00		 call	 DWORD PTR __imp_??1?$CStringT@DV?$StrTraitMFC_DLL@DV?$ChTraitsCRT@D@ATL@@@@@ATL@@QAE@XZ
  001cd	5f		 pop	 edi

; 1610 : 		eDateUnitType == CScaleBaseData::HORZ_MONTHLY)
; 1611 : 	{
; 1612 : 		return IsDataInPacketType_Date(dData);

  001ce	b0 01		 mov	 al, 1

; 1620 : 	}
; 1621 : 
; 1622 : 	return false;
; 1623 : }

  001d0	5e		 pop	 esi
  001d1	8b e5		 mov	 esp, ebp
  001d3	5d		 pop	 ebp
  001d4	c2 04 00	 ret	 4
$LN3@IsDataInPa:
  001d7	5f		 pop	 edi

; 1604 : 		return false;

  001d8	32 c0		 xor	 al, al

; 1620 : 	}
; 1621 : 
; 1622 : 	return false;
; 1623 : }

  001da	5e		 pop	 esi
  001db	8b e5		 mov	 esp, ebp
  001dd	5d		 pop	 ebp
  001de	c2 04 00	 ret	 4
?IsDataInPacketType@CPacketImplementation@@ABE_NABN@Z ENDP ; CPacketImplementation::IsDataInPacketType
_TEXT	ENDS
; Function compile flags: /Ogtp
; File D:\git\src\IBK\IBK_DRFN\ProjSrc\SrcChartEx\ChartOCX\PacketData\PacketImplementation.cpp
;	COMDAT ?GetRealData_AppendData@CPacketImplementation@@AAENABN@Z
_TEXT	SEGMENT
_dData2$ = -16						; size = 8
tv184 = -8						; size = 8
_dRealData$ = -8					; size = 8
_dData1$1 = -8						; size = 8
_dData$ = 8						; size = 4
?GetRealData_AppendData@CPacketImplementation@@AAENABN@Z PROC ; CPacketImplementation::GetRealData_AppendData, COMDAT
; _this$ = ecx

; 1546 : {

  00000	55		 push	 ebp
  00001	8b ec		 mov	 ebp, esp
  00003	83 ec 10	 sub	 esp, 16			; 00000010H
  00006	56		 push	 esi
  00007	8b f1		 mov	 esi, ecx

; 1547 : 	if(!IsChangeRealData())

  00009	e8 00 00 00 00	 call	 ?IsChangeRealData@CPacketImplementation@@QBE_NXZ ; CPacketImplementation::IsChangeRealData
  0000e	84 c0		 test	 al, al
  00010	75 0c		 jne	 SHORT $LN2@GetRealDat

; 1548 : 		return dData;

  00012	8b 45 08	 mov	 eax, DWORD PTR _dData$[ebp]
  00015	5e		 pop	 esi
  00016	dd 00		 fld	 QWORD PTR [eax]

; 1562 : }

  00018	8b e5		 mov	 esp, ebp
  0001a	5d		 pop	 ebp
  0001b	c2 04 00	 ret	 4
$LN2@GetRealDat:

; 1549 : 
; 1550 : 	// gap   ->    data gap  data list   .
; 1551 : 	if(!m_realDataGap.IsUsing())

  0001e	83 c6 70	 add	 esi, 112		; 00000070H
  00021	57		 push	 edi
  00022	8b ce		 mov	 ecx, esi
  00024	e8 00 00 00 00	 call	 ?IsUsing@CItemData@@QBE_NXZ ; CItemData::IsUsing
  00029	8b 7d 08	 mov	 edi, DWORD PTR _dData$[ebp]
  0002c	84 c0		 test	 al, al
  0002e	75 1d		 jne	 SHORT $LN3@GetRealDat

; 1552 : 	{
; 1553 : 		double dData1 = fabs( dData);

  00030	f2 0f 10 07	 movsd	 xmm0, QWORD PTR [edi]

; 1554 : 		m_realDataGap.Set(true, dData1);

  00034	8d 45 f8	 lea	 eax, DWORD PTR _dData1$1[ebp]
  00037	0f 54 05 00 00
	00 00		 andps	 xmm0, QWORD PTR __xmm@7fffffffffffffff7fffffffffffffff
  0003e	8b ce		 mov	 ecx, esi
  00040	50		 push	 eax
  00041	6a 01		 push	 1
  00043	f2 0f 11 45 f8	 movsd	 QWORD PTR _dData1$1[ebp], xmm0
  00048	e8 00 00 00 00	 call	 ?Set@CItemData@@QAEX_NABN@Z ; CItemData::Set
$LN3@GetRealDat:

; 1555 : 	}
; 1556 : 
; 1557 : 	// gap  
; 1558 : 	double dRealData = abs((int)dData - (int)m_realDataGap.GetData());

  0004d	8b ce		 mov	 ecx, esi
  0004f	e8 00 00 00 00	 call	 ?GetData@CItemData@@QBENXZ ; CItemData::GetData
  00054	f2 0f 10 0f	 movsd	 xmm1, QWORD PTR [edi]
  00058	dd 5d f8	 fstp	 QWORD PTR tv184[ebp]
  0005b	f2 0f 2c 4d f8	 cvttsd2si ecx, QWORD PTR tv184[ebp]
  00060	f2 0f 2c c1	 cvttsd2si eax, xmm1

; 1559 : 	double dData2 = fabs( dData);

  00064	0f 54 0d 00 00
	00 00		 andps	 xmm1, QWORD PTR __xmm@7fffffffffffffff7fffffffffffffff
  0006b	2b c1		 sub	 eax, ecx
  0006d	f2 0f 11 4d f0	 movsd	 QWORD PTR _dData2$[ebp], xmm1
  00072	99		 cdq

; 1560 : 	m_realDataGap.SetData( dData2);

  00073	8b ce		 mov	 ecx, esi
  00075	33 c2		 xor	 eax, edx
  00077	2b c2		 sub	 eax, edx
  00079	66 0f 6e c0	 movd	 xmm0, eax
  0007d	8d 45 f0	 lea	 eax, DWORD PTR _dData2$[ebp]
  00080	f3 0f e6 c0	 cvtdq2pd xmm0, xmm0
  00084	50		 push	 eax
  00085	f2 0f 11 45 f8	 movsd	 QWORD PTR _dRealData$[ebp], xmm0
  0008a	e8 00 00 00 00	 call	 ?SetData@CItemData@@QAEXABN@Z ; CItemData::SetData

; 1561 : 	return dRealData;

  0008f	dd 45 f8	 fld	 QWORD PTR _dRealData$[ebp]
  00092	5f		 pop	 edi
  00093	5e		 pop	 esi

; 1562 : }

  00094	8b e5		 mov	 esp, ebp
  00096	5d		 pop	 ebp
  00097	c2 04 00	 ret	 4
?GetRealData_AppendData@CPacketImplementation@@AAENABN@Z ENDP ; CPacketImplementation::GetRealData_AppendData
_TEXT	ENDS
; Function compile flags: /Ogtp
; File D:\git\src\IBK\IBK_DRFN\ProjSrc\SrcChartEx\ChartOCX\PacketData\PacketImplementation.cpp
; File C:\Program Files (x86)\Microsoft Visual Studio\2019\Community\VC\Tools\MSVC\14.29.30133\atlmfc\include\afxtempl.h
; File D:\git\src\IBK\IBK_DRFN\ProjSrc\SrcChartEx\ChartOCX\PacketData\PacketImplementation.cpp
; File C:\Program Files (x86)\Microsoft Visual Studio\2019\Community\VC\Tools\MSVC\14.29.30133\atlmfc\include\afxtempl.h
; File D:\git\src\IBK\IBK_DRFN\ProjSrc\SrcChartEx\ChartOCX\PacketData\PacketImplementation.cpp
;	COMDAT ?GetRealData_UpdateData@CPacketImplementation@@AAE_NABNAAN@Z
_TEXT	SEGMENT
_dData3$ = -24						; size = 8
tv236 = -16						; size = 8
tv193 = -16						; size = 8
_dData2$1 = -8						; size = 8
tv225 = -4						; size = 4
_dData$ = 8						; size = 4
_dRealData$ = 12					; size = 4
?GetRealData_UpdateData@CPacketImplementation@@AAE_NABNAAN@Z PROC ; CPacketImplementation::GetRealData_UpdateData, COMDAT
; _this$ = ecx

; 1520 : {

  00000	55		 push	 ebp
  00001	8b ec		 mov	 ebp, esp

; 1521 : 	dRealData = dData;

  00003	8b 45 08	 mov	 eax, DWORD PTR _dData$[ebp]
  00006	83 ec 18	 sub	 esp, 24			; 00000018H
  00009	f2 0f 10 00	 movsd	 xmm0, QWORD PTR [eax]
  0000d	8b 45 0c	 mov	 eax, DWORD PTR _dRealData$[ebp]
  00010	56		 push	 esi
  00011	8b f1		 mov	 esi, ecx
  00013	f2 0f 11 00	 movsd	 QWORD PTR [eax], xmm0

; 1522 : 	if(!IsChangeRealData())

  00017	e8 00 00 00 00	 call	 ?IsChangeRealData@CPacketImplementation@@QBE_NXZ ; CPacketImplementation::IsChangeRealData
  0001c	84 c0		 test	 al, al
  0001e	75 09		 jne	 SHORT $LN2@GetRealDat

; 1523 : 		return true;

  00020	b0 01		 mov	 al, 1
  00022	5e		 pop	 esi

; 1541 : }

  00023	8b e5		 mov	 esp, ebp
  00025	5d		 pop	 ebp
  00026	c2 08 00	 ret	 8
$LN2@GetRealDat:
  00029	57		 push	 edi

; 1524 : 
; 1525 : 	// gap   ->    data gap  data list   .
; 1526 : 	if(!m_realDataGap.IsUsing())

  0002a	8d 4e 70	 lea	 ecx, DWORD PTR [esi+112]
  0002d	e8 00 00 00 00	 call	 ?IsUsing@CItemData@@QBE_NXZ ; CItemData::IsUsing
  00032	84 c0		 test	 al, al
  00034	75 2b		 jne	 SHORT $LN3@GetRealDat

; 1527 : 	{
; 1528 : 		double dData2 = fabs( dData);

  00036	8b 45 08	 mov	 eax, DWORD PTR _dData$[ebp]

; 1529 : 		m_realDataGap.Set( true, dData2);

  00039	8d 4e 70	 lea	 ecx, DWORD PTR [esi+112]
  0003c	f2 0f 10 00	 movsd	 xmm0, QWORD PTR [eax]
  00040	8d 45 f8	 lea	 eax, DWORD PTR _dData2$1[ebp]
  00043	0f 54 05 00 00
	00 00		 andps	 xmm0, QWORD PTR __xmm@7fffffffffffffff7fffffffffffffff
  0004a	50		 push	 eax
  0004b	6a 01		 push	 1
  0004d	f2 0f 11 45 f8	 movsd	 QWORD PTR _dData2$1[ebp], xmm0
  00052	e8 00 00 00 00	 call	 ?Set@CItemData@@QAEX_NABN@Z ; CItemData::Set
  00057	5f		 pop	 edi

; 1530 : 		return false;

  00058	32 c0		 xor	 al, al
  0005a	5e		 pop	 esi

; 1541 : }

  0005b	8b e5		 mov	 esp, ebp
  0005d	5d		 pop	 ebp
  0005e	c2 08 00	 ret	 8
$LN3@GetRealDat:
; File C:\Program Files (x86)\Microsoft Visual Studio\2019\Community\VC\Tools\MSVC\14.29.30133\atlmfc\include\afxtempl.h

; 797  : 	{ ENSURE(m_pNodeTail != NULL);

  00061	8b 86 9c 00 00
	00		 mov	 eax, DWORD PTR [esi+156]
  00067	89 45 fc	 mov	 DWORD PTR tv225[ebp], eax
  0006a	85 c0		 test	 eax, eax
  0006c	74 66		 je	 SHORT $LN15@GetRealDat
; File D:\git\src\IBK\IBK_DRFN\ProjSrc\SrcChartEx\ChartOCX\PacketData\PacketImplementation.cpp

; 1536 : 	dRealData = (double)m_lnData.GetTail() + fabs((double)dData - (double)m_realDataGap.GetData());

  0006e	8b 45 08	 mov	 eax, DWORD PTR _dData$[ebp]
  00071	8d 4e 70	 lea	 ecx, DWORD PTR [esi+112]
  00074	f2 0f 10 00	 movsd	 xmm0, QWORD PTR [eax]
  00078	f2 0f 11 45 f0	 movsd	 QWORD PTR tv193[ebp], xmm0
  0007d	e8 00 00 00 00	 call	 ?GetData@CItemData@@QBENXZ ; CItemData::GetData
  00082	dc 6d f0	 fsubr	 QWORD PTR tv193[ebp]
  00085	8b 45 fc	 mov	 eax, DWORD PTR tv225[ebp]

; 1537 : 	//	------------<<<<
; 1538 : 	double dData3 = fabs(dData);
; 1539 : 	m_realDataGap.SetData( dData3);

  00088	8d 4e 70	 lea	 ecx, DWORD PTR [esi+112]
  0008b	dd 5d f0	 fstp	 QWORD PTR tv236[ebp]
  0008e	f2 0f 10 45 f0	 movsd	 xmm0, QWORD PTR tv236[ebp]
  00093	0f 54 05 00 00
	00 00		 andps	 xmm0, QWORD PTR __xmm@7fffffffffffffff7fffffffffffffff
  0009a	f2 0f 58 40 08	 addsd	 xmm0, QWORD PTR [eax+8]
  0009f	8b 45 0c	 mov	 eax, DWORD PTR _dRealData$[ebp]
  000a2	f2 0f 11 00	 movsd	 QWORD PTR [eax], xmm0
  000a6	8b 45 08	 mov	 eax, DWORD PTR _dData$[ebp]
  000a9	f2 0f 10 00	 movsd	 xmm0, QWORD PTR [eax]
  000ad	8d 45 e8	 lea	 eax, DWORD PTR _dData3$[ebp]
  000b0	0f 54 05 00 00
	00 00		 andps	 xmm0, QWORD PTR __xmm@7fffffffffffffff7fffffffffffffff
  000b7	50		 push	 eax
  000b8	f2 0f 11 45 e8	 movsd	 QWORD PTR _dData3$[ebp], xmm0
  000bd	e8 00 00 00 00	 call	 ?SetData@CItemData@@QAEXABN@Z ; CItemData::SetData

; 1540 : 	return (m_lnData.GetCount() > 0);

  000c2	83 be a0 00 00
	00 00		 cmp	 DWORD PTR [esi+160], 0
  000c9	5f		 pop	 edi
  000ca	0f 9f c0	 setg	 al
  000cd	5e		 pop	 esi

; 1541 : }

  000ce	8b e5		 mov	 esp, ebp
  000d0	5d		 pop	 ebp
  000d1	c2 08 00	 ret	 8
$LN15@GetRealDat:
; File C:\Program Files (x86)\Microsoft Visual Studio\2019\Community\VC\Tools\MSVC\14.29.30133\atlmfc\include\afxtempl.h

; 797  : 	{ ENSURE(m_pNodeTail != NULL);

  000d4	e8 00 00 00 00	 call	 ?AfxThrowInvalidArgException@@YGXXZ ; AfxThrowInvalidArgException
$LN13@GetRealDat:
  000d9	cc		 int	 3
?GetRealData_UpdateData@CPacketImplementation@@AAE_NABNAAN@Z ENDP ; CPacketImplementation::GetRealData_UpdateData
_TEXT	ENDS
; Function compile flags: /Ogtp
; File D:\git\src\IBK\IBK_DRFN\ProjSrc\SrcChartEx\ChartOCX\PacketData\PacketImplementation.cpp
; File C:\Program Files (x86)\Microsoft Visual Studio\2019\Community\VC\Tools\MSVC\14.29.30133\atlmfc\include\afxtempl.h
; File D:\git\src\IBK\IBK_DRFN\ProjSrc\SrcChartEx\ChartOCX\PacketData\PacketImplementation.cpp
; File C:\Program Files (x86)\Microsoft Visual Studio\2019\Community\VC\Tools\MSVC\14.29.30133\atlmfc\include\afxtempl.h
; File D:\git\src\IBK\IBK_DRFN\ProjSrc\SrcChartEx\ChartOCX\PacketData\PacketImplementation.cpp
; File C:\Program Files (x86)\Microsoft Visual Studio\2019\Community\VC\Tools\MSVC\14.29.30133\atlmfc\include\afxtempl.h
; File D:\git\src\IBK\IBK_DRFN\ProjSrc\SrcChartEx\ChartOCX\PacketData\PacketImplementation.cpp
;	COMDAT ?RemoveDateData@CPacketImplementation@@AAEHN@Z
_TEXT	SEGMENT
_dReallastDate$ = 8					; size = 8
?RemoveDateData@CPacketImplementation@@AAEHN@Z PROC	; CPacketImplementation::RemoveDateData, COMDAT
; _this$ = ecx

; 1244 : {

  00000	55		 push	 ebp
  00001	8b ec		 mov	 ebp, esp
  00003	53		 push	 ebx
  00004	56		 push	 esi
  00005	8b f1		 mov	 esi, ecx

; 1245 : 	int nDeleteCount = 0;

  00007	33 db		 xor	 ebx, ebx
  00009	57		 push	 edi

; 1246 : 	if(m_lnData.GetCount() > 0)	{

  0000a	39 9e a0 00 00
	00		 cmp	 DWORD PTR [esi+160], ebx
  00010	0f 8e 3b 01 00
	00		 jle	 $LN3@RemoveDate

; 1247 : 		POSITION pos = m_lnData.GetTailPosition();

  00016	8b be 9c 00 00
	00		 mov	 edi, DWORD PTR [esi+156]

; 1248 : 		while(pos)

  0001c	85 ff		 test	 edi, edi
  0001e	0f 84 2d 01 00
	00		 je	 $LN3@RemoveDate
  00024	f2 0f 10 4d 08	 movsd	 xmm1, QWORD PTR _dReallastDate$[ebp]
  00029	0f 1f 80 00 00
	00 00		 npad	 7
$LL2@RemoveDate:
; File C:\Program Files (x86)\Microsoft Visual Studio\2019\Community\VC\Tools\MSVC\14.29.30133\atlmfc\include\afxtempl.h

; 823  : 	{ CNode* pNode = (CNode*) rPosition;

  00030	8b c7		 mov	 eax, edi

; 825  : 		rPosition = (POSITION) pNode->pPrev;

  00032	8d 57 04	 lea	 edx, DWORD PTR [edi+4]
; File D:\git\src\IBK\IBK_DRFN\ProjSrc\SrcChartEx\ChartOCX\PacketData\PacketImplementation.cpp

; 1250 : 			POSITION temp = pos;

  00035	8b cf		 mov	 ecx, edi
; File C:\Program Files (x86)\Microsoft Visual Studio\2019\Community\VC\Tools\MSVC\14.29.30133\atlmfc\include\afxtempl.h

; 825  : 		rPosition = (POSITION) pNode->pPrev;

  00037	8b 3a		 mov	 edi, DWORD PTR [edx]
; File D:\git\src\IBK\IBK_DRFN\ProjSrc\SrcChartEx\ChartOCX\PacketData\PacketImplementation.cpp

; 1251 : 			double dData = m_lnData.GetPrev(pos);

  00039	f2 0f 10 40 08	 movsd	 xmm0, QWORD PTR [eax+8]

; 1252 : 			//dData fiction  .
; 1253 : 			//fiction  dData  .
; 1254 : 			if( dData < dReallastDate) return nDeleteCount;

  0003e	66 0f 2f c8	 comisd	 xmm1, xmm0
  00042	0f 87 09 01 00
	00		 ja	 $LN3@RemoveDate

; 1255 : 			if( dData > dReallastDate)

  00048	66 0f 2f c1	 comisd	 xmm0, xmm1
  0004c	0f 86 ed 00 00
	00		 jbe	 $LN6@RemoveDate
; File C:\Program Files (x86)\Microsoft Visual Studio\2019\Community\VC\Tools\MSVC\14.29.30133\atlmfc\include\afxtempl.h

; 1107 : 	if (pOldNode == m_pNodeHead)

  00052	8b 01		 mov	 eax, DWORD PTR [ecx]
  00054	3b 8e 98 00 00
	00		 cmp	 ecx, DWORD PTR [esi+152]
  0005a	75 08		 jne	 SHORT $LN13@RemoveDate

; 1108 : 	{
; 1109 : 		m_pNodeHead = pOldNode->pNext;

  0005c	89 86 98 00 00
	00		 mov	 DWORD PTR [esi+152], eax

; 1110 : 	}

  00062	eb 02		 jmp	 SHORT $LN14@RemoveDate
$LN13@RemoveDate:

; 1111 : 	else
; 1112 : 	{
; 1113 : 		ASSERT(AfxIsValidAddress(pOldNode->pPrev, sizeof(CNode)));
; 1114 : 		pOldNode->pPrev->pNext = pOldNode->pNext;

  00064	89 07		 mov	 DWORD PTR [edi], eax
$LN14@RemoveDate:

; 1115 : 	}
; 1116 : 	if (pOldNode == m_pNodeTail)

  00066	8b 12		 mov	 edx, DWORD PTR [edx]
  00068	3b 8e 9c 00 00
	00		 cmp	 ecx, DWORD PTR [esi+156]
  0006e	75 08		 jne	 SHORT $LN15@RemoveDate

; 1117 : 	{
; 1118 : 		m_pNodeTail = pOldNode->pPrev;

  00070	89 96 9c 00 00
	00		 mov	 DWORD PTR [esi+156], edx

; 1119 : 	}

  00076	eb 05		 jmp	 SHORT $LN16@RemoveDate
$LN15@RemoveDate:

; 1120 : 	else
; 1121 : 	{
; 1122 : 		ASSERT(AfxIsValidAddress(pOldNode->pNext, sizeof(CNode)));
; 1123 : 		pOldNode->pNext->pPrev = pOldNode->pPrev;

  00078	8b 01		 mov	 eax, DWORD PTR [ecx]
  0007a	89 50 04	 mov	 DWORD PTR [eax+4], edx
$LN16@RemoveDate:

; 938  : 	pNode->pNext = m_pNodeFree;

  0007d	8b 86 a4 00 00
	00		 mov	 eax, DWORD PTR [esi+164]
  00083	89 01		 mov	 DWORD PTR [ecx], eax

; 939  : 	m_pNodeFree = pNode;
; 940  : 	m_nCount--;

  00085	83 86 a0 00 00
	00 ff		 add	 DWORD PTR [esi+160], -1
  0008c	89 8e a4 00 00
	00		 mov	 DWORD PTR [esi+164], ecx

; 941  : 	ASSERT(m_nCount >= 0);  // make sure we don't underflow
; 942  : 
; 943  : 	// if no more elements, cleanup completely
; 944  : 	if (m_nCount == 0)

  00092	75 42		 jne	 SHORT $LN19@RemoveDate

; 872  : 	m_pBlocks->FreeDataChain();

  00094	8b 8e a8 00 00
	00		 mov	 ecx, DWORD PTR [esi+168]
  0009a	c7 86 a0 00 00
	00 00 00 00 00	 mov	 DWORD PTR [esi+160], 0
  000a4	c7 86 a4 00 00
	00 00 00 00 00	 mov	 DWORD PTR [esi+164], 0
  000ae	c7 86 9c 00 00
	00 00 00 00 00	 mov	 DWORD PTR [esi+156], 0
  000b8	c7 86 98 00 00
	00 00 00 00 00	 mov	 DWORD PTR [esi+152], 0
  000c2	e8 00 00 00 00	 call	 ?FreeDataChain@CPlex@@QAEXXZ ; CPlex::FreeDataChain
  000c7	f2 0f 10 4d 08	 movsd	 xmm1, QWORD PTR _dReallastDate$[ebp]

; 873  : 	m_pBlocks = NULL;

  000cc	c7 86 a8 00 00
	00 00 00 00 00	 mov	 DWORD PTR [esi+168], 0
$LN19@RemoveDate:
; File D:\git\src\IBK\IBK_DRFN\ProjSrc\SrcChartEx\ChartOCX\PacketData\PacketImplementation.cpp

; 1800 : 	m_dContinueCode_Pre			= -HUGE_VAL;

  000d6	0f 28 05 00 00
	00 00		 movaps	 xmm0, XMMWORD PTR __xmm@fff0000000000000fff0000000000000

; 1256 : 			{
; 1257 : 				m_lnData.RemoveAt(temp);
; 1258 : 				nDeleteCount++;

  000dd	43		 inc	 ebx

; 1806 : 	m_dPreMinValue				= DBL_MAX;

  000de	f2 0f 10 15 00
	00 00 00	 movsd	 xmm2, QWORD PTR __real@7fefffffffffffff
  000e6	0f 11 86 18 01
	00 00		 movups	 XMMWORD PTR [esi+280], xmm0
  000ed	c7 86 10 01 00
	00 00 00 00 00	 mov	 DWORD PTR [esi+272], 0
  000f7	f2 0f 10 05 00
	00 00 00	 movsd	 xmm0, QWORD PTR __real@ffefffffffffffff
  000ff	c7 86 28 01 00
	00 ff ff ff ff	 mov	 DWORD PTR [esi+296], -1
  00109	c7 86 2c 01 00
	00 ff ff ff ff	 mov	 DWORD PTR [esi+300], -1
  00113	c7 86 30 01 00
	00 ff ff ff ff	 mov	 DWORD PTR [esi+304], -1
  0011d	f2 0f 11 86 38
	01 00 00	 movsd	 QWORD PTR [esi+312], xmm0
  00125	f2 0f 11 96 40
	01 00 00	 movsd	 QWORD PTR [esi+320], xmm2

; 1807 : 	m_dPreMaxValueWithoutEnd	= -DBL_MAX;

  0012d	f2 0f 11 86 48
	01 00 00	 movsd	 QWORD PTR [esi+328], xmm0

; 1808 : 	m_dPreMinValueWithoutEnd	= DBL_MAX;

  00135	f2 0f 11 96 50
	01 00 00	 movsd	 QWORD PTR [esi+336], xmm2

; 1259 : 				ClearMinMax();
; 1260 : 			}

  0013d	eb 0a		 jmp	 SHORT $LN8@RemoveDate
$LN6@RemoveDate:

; 1261 : 			else if(dData == dReallastDate) 

  0013f	66 0f 2e c1	 ucomisd xmm0, xmm1
  00143	9f		 lahf
  00144	f6 c4 44	 test	 ah, 68			; 00000044H
  00147	7b 08		 jnp	 SHORT $LN3@RemoveDate
$LN8@RemoveDate:

; 1248 : 		while(pos)

  00149	85 ff		 test	 edi, edi
  0014b	0f 85 df fe ff
	ff		 jne	 $LL2@RemoveDate
$LN3@RemoveDate:
  00151	5f		 pop	 edi

; 1262 : 				return nDeleteCount;
; 1263 : 		}
; 1264 : 	}
; 1265 : 	return nDeleteCount;
; 1266 : }

  00152	5e		 pop	 esi
  00153	8b c3		 mov	 eax, ebx
  00155	5b		 pop	 ebx
  00156	5d		 pop	 ebp
  00157	c2 08 00	 ret	 8
?RemoveDateData@CPacketImplementation@@AAEHN@Z ENDP	; CPacketImplementation::RemoveDateData
_TEXT	ENDS
; Function compile flags: /Ogtp
; File D:\git\src\IBK\IBK_DRFN\ProjSrc\SrcChartEx\ChartOCX\PacketData\PacketImplementation.cpp
; File C:\Program Files (x86)\Microsoft Visual Studio\2019\Community\VC\Tools\MSVC\14.29.30133\atlmfc\include\afxtempl.h
; File D:\git\src\IBK\IBK_DRFN\ProjSrc\SrcChartEx\ChartOCX\PacketData\PacketImplementation.cpp
; File C:\Program Files (x86)\Microsoft Visual Studio\2019\Community\VC\Tools\MSVC\14.29.30133\atlmfc\include\afxtempl.h
; File D:\git\src\IBK\IBK_DRFN\ProjSrc\SrcChartEx\ChartOCX\PacketData\PacketImplementation.cpp
;	COMDAT ?FindStrPosition@CPacketImplementation@@ABEPAU__POSITION@@H@Z
_TEXT	SEGMENT
_nIndex$ = 8						; size = 4
?FindStrPosition@CPacketImplementation@@ABEPAU__POSITION@@H@Z PROC ; CPacketImplementation::FindStrPosition, COMDAT
; _this$ = ecx

; 1132 : {	

  00000	55		 push	 ebp
  00001	8b ec		 mov	 ebp, esp
  00003	56		 push	 esi
  00004	57		 push	 edi

; 1134 : 
; 1135 : 	if(nIndex < 0 || nIndex > nTailIndex)

  00005	8b 7d 08	 mov	 edi, DWORD PTR _nIndex$[ebp]
  00008	85 ff		 test	 edi, edi
  0000a	78 61		 js	 SHORT $LN7@FindStrPos

; 1133 : 	int nTailIndex = m_lstrData.GetCount() -1;

  0000c	8b b1 bc 00 00
	00		 mov	 esi, DWORD PTR [ecx+188]
  00012	4e		 dec	 esi

; 1134 : 
; 1135 : 	if(nIndex < 0 || nIndex > nTailIndex)

  00013	3b fe		 cmp	 edi, esi
  00015	7f 56		 jg	 SHORT $LN7@FindStrPos

; 1137 : 
; 1138 : 	if(nIndex > nTailIndex/2){

  00017	8b c6		 mov	 eax, esi
  00019	99		 cdq
  0001a	2b c2		 sub	 eax, edx
  0001c	d1 f8		 sar	 eax, 1
  0001e	3b f8		 cmp	 edi, eax
  00020	7e 2c		 jle	 SHORT $LN8@FindStrPos

; 1139 : 		int nCount = nTailIndex;
; 1140 : 		POSITION pos = m_lstrData.GetTailPosition();

  00022	8b 89 b8 00 00
	00		 mov	 ecx, DWORD PTR [ecx+184]

; 1141 : 		while(pos != NULL){

  00028	85 c9		 test	 ecx, ecx
  0002a	74 41		 je	 SHORT $LN7@FindStrPos
  0002c	0f 1f 40 00	 npad	 4
$LL2@FindStrPos:

; 1142 : 			if(nCount-- == nIndex)

  00030	8b c6		 mov	 eax, esi
  00032	4e		 dec	 esi
  00033	3b c7		 cmp	 eax, edi
  00035	74 0f		 je	 SHORT $LN19@FindStrPos
; File C:\Program Files (x86)\Microsoft Visual Studio\2019\Community\VC\Tools\MSVC\14.29.30133\atlmfc\include\afxtempl.h

; 831  : 		rPosition = (POSITION) pNode->pPrev;

  00037	8b 49 04	 mov	 ecx, DWORD PTR [ecx+4]
; File D:\git\src\IBK\IBK_DRFN\ProjSrc\SrcChartEx\ChartOCX\PacketData\PacketImplementation.cpp

; 1141 : 		while(pos != NULL){

  0003a	85 c9		 test	 ecx, ecx
  0003c	75 f2		 jne	 SHORT $LL2@FindStrPos

; 1136 : 		return NULL;

  0003e	5f		 pop	 edi
  0003f	33 c0		 xor	 eax, eax

; 1152 : 				return pos;
; 1153 : 			m_lstrData.GetNext(pos);
; 1154 : 		}
; 1155 : 	}
; 1156 : 
; 1157 : 	return NULL;
; 1158 : }

  00041	5e		 pop	 esi
  00042	5d		 pop	 ebp
  00043	c2 04 00	 ret	 4
$LN19@FindStrPos:
  00046	5f		 pop	 edi
  00047	8b c1		 mov	 eax, ecx
  00049	5e		 pop	 esi
  0004a	5d		 pop	 ebp
  0004b	c2 04 00	 ret	 4
$LN8@FindStrPos:

; 1143 : 				return pos;
; 1144 : 			m_lstrData.GetPrev(pos);
; 1145 : 		}
; 1146 : 	}
; 1147 : 	else{
; 1148 : 		int nCount = 0;
; 1149 : 		POSITION pos = m_lstrData.GetHeadPosition();

  0004e	8b 89 b4 00 00
	00		 mov	 ecx, DWORD PTR [ecx+180]
  00054	33 d2		 xor	 edx, edx

; 1150 : 		while(pos != NULL){

  00056	85 c9		 test	 ecx, ecx
  00058	74 13		 je	 SHORT $LN7@FindStrPos
  0005a	66 0f 1f 44 00
	00		 npad	 6
$LL4@FindStrPos:

; 1151 : 			if(nCount++ == nIndex)

  00060	8b c2		 mov	 eax, edx
  00062	42		 inc	 edx
  00063	3b c7		 cmp	 eax, edi
  00065	74 df		 je	 SHORT $LN19@FindStrPos
; File C:\Program Files (x86)\Microsoft Visual Studio\2019\Community\VC\Tools\MSVC\14.29.30133\atlmfc\include\afxtempl.h

; 819  : 		rPosition = (POSITION) pNode->pNext;

  00067	8b 09		 mov	 ecx, DWORD PTR [ecx]
; File D:\git\src\IBK\IBK_DRFN\ProjSrc\SrcChartEx\ChartOCX\PacketData\PacketImplementation.cpp

; 1150 : 		while(pos != NULL){

  00069	85 c9		 test	 ecx, ecx
  0006b	75 f3		 jne	 SHORT $LL4@FindStrPos
$LN7@FindStrPos:
  0006d	5f		 pop	 edi

; 1136 : 		return NULL;

  0006e	33 c0		 xor	 eax, eax

; 1152 : 				return pos;
; 1153 : 			m_lstrData.GetNext(pos);
; 1154 : 		}
; 1155 : 	}
; 1156 : 
; 1157 : 	return NULL;
; 1158 : }

  00070	5e		 pop	 esi
  00071	5d		 pop	 ebp
  00072	c2 04 00	 ret	 4
?FindStrPosition@CPacketImplementation@@ABEPAU__POSITION@@H@Z ENDP ; CPacketImplementation::FindStrPosition
_TEXT	ENDS
; Function compile flags: /Ogtp
; File D:\git\src\IBK\IBK_DRFN\ProjSrc\SrcChartEx\ChartOCX\PacketData\PacketImplementation.cpp
; File C:\Program Files (x86)\Microsoft Visual Studio\2019\Community\VC\Tools\MSVC\14.29.30133\atlmfc\include\afxtempl.h
; File D:\git\src\IBK\IBK_DRFN\ProjSrc\SrcChartEx\ChartOCX\PacketData\PacketImplementation.cpp
; File C:\Program Files (x86)\Microsoft Visual Studio\2019\Community\VC\Tools\MSVC\14.29.30133\atlmfc\include\afxtempl.h
; File D:\git\src\IBK\IBK_DRFN\ProjSrc\SrcChartEx\ChartOCX\PacketData\PacketImplementation.cpp
;	COMDAT ?FindPosition@CPacketImplementation@@ABEPAU__POSITION@@H@Z
_TEXT	SEGMENT
_nIndex$ = 8						; size = 4
?FindPosition@CPacketImplementation@@ABEPAU__POSITION@@H@Z PROC ; CPacketImplementation::FindPosition, COMDAT
; _this$ = ecx

; 1101 : {	

  00000	55		 push	 ebp
  00001	8b ec		 mov	 ebp, esp
  00003	56		 push	 esi
  00004	57		 push	 edi

; 1103 : 
; 1104 : 	if(nIndex < 0 || nIndex > nTailIndex)

  00005	8b 7d 08	 mov	 edi, DWORD PTR _nIndex$[ebp]
  00008	85 ff		 test	 edi, edi
  0000a	78 61		 js	 SHORT $LN7@FindPositi

; 1102 : 	int nTailIndex = m_lnData.GetCount() -1;

  0000c	8b b1 a0 00 00
	00		 mov	 esi, DWORD PTR [ecx+160]
  00012	4e		 dec	 esi

; 1103 : 
; 1104 : 	if(nIndex < 0 || nIndex > nTailIndex)

  00013	3b fe		 cmp	 edi, esi
  00015	7f 56		 jg	 SHORT $LN7@FindPositi

; 1106 : 
; 1107 : 	if(nIndex > nTailIndex/2){

  00017	8b c6		 mov	 eax, esi
  00019	99		 cdq
  0001a	2b c2		 sub	 eax, edx
  0001c	d1 f8		 sar	 eax, 1
  0001e	3b f8		 cmp	 edi, eax
  00020	7e 2c		 jle	 SHORT $LN8@FindPositi

; 1108 : 		int nCount = nTailIndex;
; 1109 : 		POSITION pos = m_lnData.GetTailPosition();

  00022	8b 89 9c 00 00
	00		 mov	 ecx, DWORD PTR [ecx+156]

; 1110 : 		while(pos != NULL){

  00028	85 c9		 test	 ecx, ecx
  0002a	74 41		 je	 SHORT $LN7@FindPositi
  0002c	0f 1f 40 00	 npad	 4
$LL2@FindPositi:

; 1111 : 			if(nCount-- == nIndex)

  00030	8b c6		 mov	 eax, esi
  00032	4e		 dec	 esi
  00033	3b c7		 cmp	 eax, edi
  00035	74 0f		 je	 SHORT $LN19@FindPositi
; File C:\Program Files (x86)\Microsoft Visual Studio\2019\Community\VC\Tools\MSVC\14.29.30133\atlmfc\include\afxtempl.h

; 831  : 		rPosition = (POSITION) pNode->pPrev;

  00037	8b 49 04	 mov	 ecx, DWORD PTR [ecx+4]
; File D:\git\src\IBK\IBK_DRFN\ProjSrc\SrcChartEx\ChartOCX\PacketData\PacketImplementation.cpp

; 1110 : 		while(pos != NULL){

  0003a	85 c9		 test	 ecx, ecx
  0003c	75 f2		 jne	 SHORT $LL2@FindPositi

; 1105 : 		return NULL;

  0003e	5f		 pop	 edi
  0003f	33 c0		 xor	 eax, eax

; 1121 : 				return pos;
; 1122 : 			m_lnData.GetNext(pos);
; 1123 : 		}
; 1124 : 	}
; 1125 : 
; 1126 : 	return NULL;
; 1127 : }

  00041	5e		 pop	 esi
  00042	5d		 pop	 ebp
  00043	c2 04 00	 ret	 4
$LN19@FindPositi:
  00046	5f		 pop	 edi
  00047	8b c1		 mov	 eax, ecx
  00049	5e		 pop	 esi
  0004a	5d		 pop	 ebp
  0004b	c2 04 00	 ret	 4
$LN8@FindPositi:

; 1112 : 				return pos;
; 1113 : 			m_lnData.GetPrev(pos);
; 1114 : 		}
; 1115 : 	}
; 1116 : 	else{
; 1117 : 		int nCount = 0;
; 1118 : 		POSITION pos = m_lnData.GetHeadPosition();

  0004e	8b 89 98 00 00
	00		 mov	 ecx, DWORD PTR [ecx+152]
  00054	33 d2		 xor	 edx, edx

; 1119 : 		while(pos != NULL){

  00056	85 c9		 test	 ecx, ecx
  00058	74 13		 je	 SHORT $LN7@FindPositi
  0005a	66 0f 1f 44 00
	00		 npad	 6
$LL4@FindPositi:

; 1120 : 			if(nCount++ == nIndex)

  00060	8b c2		 mov	 eax, edx
  00062	42		 inc	 edx
  00063	3b c7		 cmp	 eax, edi
  00065	74 df		 je	 SHORT $LN19@FindPositi
; File C:\Program Files (x86)\Microsoft Visual Studio\2019\Community\VC\Tools\MSVC\14.29.30133\atlmfc\include\afxtempl.h

; 819  : 		rPosition = (POSITION) pNode->pNext;

  00067	8b 09		 mov	 ecx, DWORD PTR [ecx]
; File D:\git\src\IBK\IBK_DRFN\ProjSrc\SrcChartEx\ChartOCX\PacketData\PacketImplementation.cpp

; 1119 : 		while(pos != NULL){

  00069	85 c9		 test	 ecx, ecx
  0006b	75 f3		 jne	 SHORT $LL4@FindPositi
$LN7@FindPositi:
  0006d	5f		 pop	 edi

; 1105 : 		return NULL;

  0006e	33 c0		 xor	 eax, eax

; 1121 : 				return pos;
; 1122 : 			m_lnData.GetNext(pos);
; 1123 : 		}
; 1124 : 	}
; 1125 : 
; 1126 : 	return NULL;
; 1127 : }

  00070	5e		 pop	 esi
  00071	5d		 pop	 ebp
  00072	c2 04 00	 ret	 4
?FindPosition@CPacketImplementation@@ABEPAU__POSITION@@H@Z ENDP ; CPacketImplementation::FindPosition
_TEXT	ENDS
; Function compile flags: /Ogtp
; File D:\git\src\IBK\IBK_DRFN\ProjSrc\SrcChartEx\ChartOCX\PacketData\PacketImplementation.cpp
; File C:\Program Files (x86)\Microsoft Visual Studio\2019\Community\VC\Tools\MSVC\14.29.30133\atlmfc\include\afxtempl.h
; File D:\git\src\IBK\IBK_DRFN\ProjSrc\SrcChartEx\ChartOCX\PacketData\PacketImplementation.cpp
; File C:\Program Files (x86)\Microsoft Visual Studio\2019\Community\VC\Tools\MSVC\14.29.30133\atlmfc\include\afxtempl.h
; File D:\git\src\IBK\IBK_DRFN\ProjSrc\SrcChartEx\ChartOCX\PacketData\PacketImplementation.cpp
; File C:\Program Files (x86)\Microsoft Visual Studio\2019\Community\VC\Tools\MSVC\14.29.30133\atlmfc\include\afxtempl.h
; File D:\git\src\IBK\IBK_DRFN\ProjSrc\SrcChartEx\ChartOCX\PacketData\PacketImplementation.cpp
; File C:\Program Files (x86)\Microsoft Visual Studio\2019\Community\VC\Tools\MSVC\14.29.30133\atlmfc\include\afxtempl.h
; File D:\git\src\IBK\IBK_DRFN\ProjSrc\SrcChartEx\ChartOCX\PacketData\PacketImplementation.cpp
;	COMDAT ?GetCurOrPrevIndexFromData_Date@CPacketImplementation@@ABE_NABNAANAAH@Z
_TEXT	SEGMENT
_dData$ = 8						; size = 4
_dCurOrPrevIndexData$ = 12				; size = 4
_nCurOrPrevIndex$ = 16					; size = 4
?GetCurOrPrevIndexFromData_Date@CPacketImplementation@@ABE_NABNAANAAH@Z PROC ; CPacketImplementation::GetCurOrPrevIndexFromData_Date, COMDAT
; _this$ = ecx

; 1005 : {

  00000	55		 push	 ebp
  00001	8b ec		 mov	 ebp, esp

; 1006 : 	if(m_lnData.GetCount() <= 0)

  00003	83 b9 a0 00 00
	00 00		 cmp	 DWORD PTR [ecx+160], 0
  0000a	7e 7b		 jle	 SHORT $LN44@GetCurOrPr
; File C:\Program Files (x86)\Microsoft Visual Studio\2019\Community\VC\Tools\MSVC\14.29.30133\atlmfc\include\afxtempl.h

; 793  : 	{ ENSURE(m_pNodeHead != NULL);

  0000c	8b 91 98 00 00
	00		 mov	 edx, DWORD PTR [ecx+152]
  00012	85 d2		 test	 edx, edx
  00014	0f 84 98 00 00
	00		 je	 $LN43@GetCurOrPr
; File D:\git\src\IBK\IBK_DRFN\ProjSrc\SrcChartEx\ChartOCX\PacketData\PacketImplementation.cpp

; 1010 : 	if(m_lnData.GetHead() > dData)

  0001a	8b 45 08	 mov	 eax, DWORD PTR _dData$[ebp]
  0001d	f2 0f 10 52 08	 movsd	 xmm2, QWORD PTR [edx+8]
  00022	f2 0f 10 08	 movsd	 xmm1, QWORD PTR [eax]
  00026	66 0f 2f d1	 comisd	 xmm2, xmm1
  0002a	77 5b		 ja	 SHORT $LN44@GetCurOrPr
; File C:\Program Files (x86)\Microsoft Visual Studio\2019\Community\VC\Tools\MSVC\14.29.30133\atlmfc\include\afxtempl.h

; 801  : 	{ ENSURE(m_pNodeTail != NULL);

  0002c	8b 81 9c 00 00
	00		 mov	 eax, DWORD PTR [ecx+156]
  00032	85 c0		 test	 eax, eax
  00034	0f 84 78 00 00
	00		 je	 $LN43@GetCurOrPr
; File D:\git\src\IBK\IBK_DRFN\ProjSrc\SrcChartEx\ChartOCX\PacketData\PacketImplementation.cpp

; 1012 : 	if(m_lnData.GetTail() < dData)

  0003a	f2 0f 10 40 08	 movsd	 xmm0, QWORD PTR [eax+8]
  0003f	66 0f 2f c8	 comisd	 xmm1, xmm0
  00043	76 19		 jbe	 SHORT $LN6@GetCurOrPr

; 1013 : 	{
; 1014 : 		dCurOrPrevIndexData = m_lnData.GetTail();

  00045	8b 45 0c	 mov	 eax, DWORD PTR _dCurOrPrevIndexData$[ebp]
  00048	f2 0f 11 00	 movsd	 QWORD PTR [eax], xmm0

; 1015 : 		nCurOrPrevIndex = m_lnData.GetCount() -1;

  0004c	8b 45 10	 mov	 eax, DWORD PTR _nCurOrPrevIndex$[ebp]
  0004f	8b 89 a0 00 00
	00		 mov	 ecx, DWORD PTR [ecx+160]
  00055	49		 dec	 ecx
  00056	89 08		 mov	 DWORD PTR [eax], ecx

; 1016 : 		return true;

  00058	b0 01		 mov	 al, 1

; 1044 : }

  0005a	5d		 pop	 ebp
  0005b	c2 0c 00	 ret	 12			; 0000000cH
$LN6@GetCurOrPr:

; 1017 : 	}
; 1018 : 
; 1019 : 	// data   
; 1020 : 	POSITION pos = m_lnData.GetHeadPosition();
; 1021 : 	int nIndex = 0;

  0005e	33 c9		 xor	 ecx, ecx
$LL2@GetCurOrPr:
; File C:\Program Files (x86)\Microsoft Visual Studio\2019\Community\VC\Tools\MSVC\14.29.30133\atlmfc\include\afxtempl.h

; 817  : 	{ CNode* pNode = (CNode*) rPosition;

  00060	8b c2		 mov	 eax, edx

; 818  : 		ASSERT(AfxIsValidAddress(pNode, sizeof(CNode)));
; 819  : 		rPosition = (POSITION) pNode->pNext;

  00062	8b 12		 mov	 edx, DWORD PTR [edx]
; File D:\git\src\IBK\IBK_DRFN\ProjSrc\SrcChartEx\ChartOCX\PacketData\PacketImplementation.cpp

; 1025 : 		double dCurData = m_lnData.GetNext(pos);

  00064	f2 0f 10 40 08	 movsd	 xmm0, QWORD PTR [eax+8]

; 1026 : 		if(dCurData == dData)

  00069	66 0f 2e c1	 ucomisd xmm0, xmm1
  0006d	9f		 lahf
  0006e	f6 c4 44	 test	 ah, 68			; 00000044H
  00071	7b 2d		 jnp	 SHORT $LN38@GetCurOrPr

; 1031 : 		}
; 1032 : 		
; 1033 : 		if(dCurData > dData && dPrevData < dData)

  00073	66 0f 2f c1	 comisd	 xmm0, xmm1
  00077	76 06		 jbe	 SHORT $LN8@GetCurOrPr
  00079	66 0f 2f ca	 comisd	 xmm1, xmm2
  0007d	77 0e		 ja	 SHORT $LN39@GetCurOrPr
$LN8@GetCurOrPr:

; 1038 : 		}
; 1039 : 
; 1040 : 		dPrevData = dCurData;
; 1041 : 		nIndex++;

  0007f	41		 inc	 ecx
  00080	0f 28 d0	 movaps	 xmm2, xmm0
  00083	85 d2		 test	 edx, edx
  00085	75 d9		 jne	 SHORT $LL2@GetCurOrPr
$LN44@GetCurOrPr:

; 1042 : 	}
; 1043 : 	return false;

  00087	32 c0		 xor	 al, al

; 1044 : }

  00089	5d		 pop	 ebp
  0008a	c2 0c 00	 ret	 12			; 0000000cH
$LN39@GetCurOrPr:

; 1034 : 		{
; 1035 : 			dCurOrPrevIndexData = dPrevData;

  0008d	8b 45 0c	 mov	 eax, DWORD PTR _dCurOrPrevIndexData$[ebp]

; 1036 : 			nCurOrPrevIndex = --nIndex;

  00090	49		 dec	 ecx
  00091	f2 0f 11 10	 movsd	 QWORD PTR [eax], xmm2
  00095	8b 45 10	 mov	 eax, DWORD PTR _nCurOrPrevIndex$[ebp]
  00098	89 08		 mov	 DWORD PTR [eax], ecx

; 1037 : 			return true;

  0009a	b0 01		 mov	 al, 1

; 1044 : }

  0009c	5d		 pop	 ebp
  0009d	c2 0c 00	 ret	 12			; 0000000cH
$LN38@GetCurOrPr:

; 1027 : 		{
; 1028 : 			dCurOrPrevIndexData = dCurData;

  000a0	8b 45 0c	 mov	 eax, DWORD PTR _dCurOrPrevIndexData$[ebp]
  000a3	f2 0f 11 00	 movsd	 QWORD PTR [eax], xmm0

; 1029 : 			nCurOrPrevIndex = nIndex;

  000a7	8b 45 10	 mov	 eax, DWORD PTR _nCurOrPrevIndex$[ebp]
  000aa	89 08		 mov	 DWORD PTR [eax], ecx

; 1030 : 			return true;

  000ac	b0 01		 mov	 al, 1

; 1044 : }

  000ae	5d		 pop	 ebp
  000af	c2 0c 00	 ret	 12			; 0000000cH
$LN43@GetCurOrPr:
; File C:\Program Files (x86)\Microsoft Visual Studio\2019\Community\VC\Tools\MSVC\14.29.30133\atlmfc\include\afxtempl.h

; 801  : 	{ ENSURE(m_pNodeTail != NULL);

  000b2	e8 00 00 00 00	 call	 ?AfxThrowInvalidArgException@@YGXXZ ; AfxThrowInvalidArgException
$LN45@GetCurOrPr:
  000b7	cc		 int	 3
?GetCurOrPrevIndexFromData_Date@CPacketImplementation@@ABE_NABNAANAAH@Z ENDP ; CPacketImplementation::GetCurOrPrevIndexFromData_Date
_TEXT	ENDS
; Function compile flags: /Ogtp
; File D:\git\src\IBK\IBK_DRFN\ProjSrc\SrcChartEx\ChartOCX\PacketData\PacketImplementation.cpp
; File C:\Program Files (x86)\Microsoft Visual Studio\2019\Community\VC\Tools\MSVC\14.29.30133\atlmfc\include\atlsimpstr.h
; File C:\Program Files (x86)\Microsoft Visual Studio\2019\Community\VC\Tools\MSVC\14.29.30133\atlmfc\include\afxtempl.h
; File D:\git\src\IBK\IBK_DRFN\ProjSrc\SrcChartEx\ChartOCX\PacketData\PacketImplementation.cpp
; File C:\Program Files (x86)\Microsoft Visual Studio\2019\Community\VC\Tools\MSVC\14.29.30133\atlmfc\include\afxtempl.h
; File D:\git\src\IBK\IBK_DRFN\ProjSrc\SrcChartEx\ChartOCX\PacketData\PacketImplementation.cpp
; File C:\Program Files (x86)\Microsoft Visual Studio\2019\Community\VC\Tools\MSVC\14.29.30133\atlmfc\include\afxtempl.h
; File D:\git\src\IBK\IBK_DRFN\ProjSrc\SrcChartEx\ChartOCX\PacketData\PacketImplementation.cpp
; File C:\Program Files (x86)\Microsoft Visual Studio\2019\Community\VC\Tools\MSVC\14.29.30133\atlmfc\include\afxtempl.h
; File D:\git\src\IBK\IBK_DRFN\ProjSrc\SrcChartEx\ChartOCX\PacketData\PacketImplementation.cpp
;	COMDAT ?GetComparisionDatas@CPacketImplementation@@AAEXNAAH00@Z
_TEXT	SEGMENT
_strTail$ = -24						; size = 4
_strHead$ = -20						; size = 4
_strData$ = -16						; size = 4
__$EHRec$ = -12						; size = 12
_dData$ = 8						; size = 8
$T2 = 12						; size = 4
_HeadNum$ = 16						; size = 4
$T3 = 20						; size = 4
$T4 = 20						; size = 4
$T5 = 20						; size = 4
$T6 = 20						; size = 4
$T7 = 20						; size = 4
_tailNum$ = 20						; size = 4
_dataNum$ = 24						; size = 4
?GetComparisionDatas@CPacketImplementation@@AAEXNAAH00@Z PROC ; CPacketImplementation::GetComparisionDatas, COMDAT
; _this$ = ecx

; 1496 : {

  00000	55		 push	 ebp
  00001	8b ec		 mov	 ebp, esp
  00003	6a ff		 push	 -1
  00005	68 00 00 00 00	 push	 __ehhandler$?GetComparisionDatas@CPacketImplementation@@AAEXNAAH00@Z
  0000a	64 a1 00 00 00
	00		 mov	 eax, DWORD PTR fs:0
  00010	50		 push	 eax
  00011	83 ec 0c	 sub	 esp, 12			; 0000000cH
  00014	53		 push	 ebx
  00015	56		 push	 esi
  00016	57		 push	 edi
  00017	a1 00 00 00 00	 mov	 eax, DWORD PTR ___security_cookie
  0001c	33 c5		 xor	 eax, ebp
  0001e	50		 push	 eax
  0001f	8d 45 f4	 lea	 eax, DWORD PTR __$EHRec$[ebp]
  00022	64 a3 00 00 00
	00		 mov	 DWORD PTR fs:0, eax
  00028	8b f1		 mov	 esi, ecx
; File C:\Program Files (x86)\Microsoft Visual Studio\2019\Community\VC\Tools\MSVC\14.29.30133\atlmfc\include\atlsimpstr.h

; 519  : 		return( GetData()->nDataLength );

  0002a	8b 46 64	 mov	 eax, DWORD PTR [esi+100]
  0002d	8b 78 f4	 mov	 edi, DWORD PTR [eax-12]
; File C:\Program Files (x86)\Microsoft Visual Studio\2019\Community\VC\Tools\MSVC\14.29.30133\atlmfc\include\afxtempl.h

; 797  : 	{ ENSURE(m_pNodeTail != NULL);

  00030	8b 86 9c 00 00
	00		 mov	 eax, DWORD PTR [esi+156]
  00036	85 c0		 test	 eax, eax
  00038	0f 84 6c 01 00
	00		 je	 $LN45@GetCompari
; File D:\git\src\IBK\IBK_DRFN\ProjSrc\SrcChartEx\ChartOCX\PacketData\PacketImplementation.cpp

; 1499 : 	CString strTail = CDataConversion::IntToString((int)m_lnData.GetTail(), nLength);

  0003e	f2 0f 2c 40 08	 cvttsd2si eax, QWORD PTR [eax+8]
  00043	57		 push	 edi
  00044	99		 cdq
  00045	52		 push	 edx
  00046	50		 push	 eax
  00047	8d 45 e8	 lea	 eax, DWORD PTR _strTail$[ebp]
  0004a	50		 push	 eax
  0004b	e8 00 00 00 00	 call	 ?IntToString@CDataConversion@@SA?AV?$CStringT@DV?$StrTraitMFC_DLL@DV?$ChTraitsCRT@D@ATL@@@@@ATL@@_JH@Z ; CDataConversion::IntToString
  00050	83 c4 10	 add	 esp, 16			; 00000010H
; File C:\Program Files (x86)\Microsoft Visual Studio\2019\Community\VC\Tools\MSVC\14.29.30133\atlmfc\include\afxtempl.h

; 789  : 	{ ENSURE(m_pNodeHead != NULL);

  00053	8b 86 98 00 00
	00		 mov	 eax, DWORD PTR [esi+152]
; File D:\git\src\IBK\IBK_DRFN\ProjSrc\SrcChartEx\ChartOCX\PacketData\PacketImplementation.cpp

; 1499 : 	CString strTail = CDataConversion::IntToString((int)m_lnData.GetTail(), nLength);

  00059	c7 45 fc 00 00
	00 00		 mov	 DWORD PTR __$EHRec$[ebp+8], 0
; File C:\Program Files (x86)\Microsoft Visual Studio\2019\Community\VC\Tools\MSVC\14.29.30133\atlmfc\include\afxtempl.h

; 789  : 	{ ENSURE(m_pNodeHead != NULL);

  00060	85 c0		 test	 eax, eax
  00062	0f 84 47 01 00
	00		 je	 $LN46@GetCompari
; File D:\git\src\IBK\IBK_DRFN\ProjSrc\SrcChartEx\ChartOCX\PacketData\PacketImplementation.cpp

; 1500 : 	CString strHead = CDataConversion::IntToString((int)m_lnData.GetHead(), nLength);

  00068	f2 0f 2c 40 08	 cvttsd2si eax, QWORD PTR [eax+8]
  0006d	57		 push	 edi
  0006e	99		 cdq
  0006f	52		 push	 edx
  00070	50		 push	 eax
  00071	8d 45 ec	 lea	 eax, DWORD PTR _strHead$[ebp]
  00074	50		 push	 eax
  00075	e8 00 00 00 00	 call	 ?IntToString@CDataConversion@@SA?AV?$CStringT@DV?$StrTraitMFC_DLL@DV?$ChTraitsCRT@D@ATL@@@@@ATL@@_JH@Z ; CDataConversion::IntToString

; 1501 : 	CString strData = CDataConversion::IntToString((int)dData, nLength);

  0007a	f2 0f 2c 45 08	 cvttsd2si eax, QWORD PTR _dData$[ebp]
  0007f	57		 push	 edi
  00080	c6 45 fc 01	 mov	 BYTE PTR __$EHRec$[ebp+8], 1
  00084	99		 cdq
  00085	52		 push	 edx
  00086	50		 push	 eax
  00087	8d 45 f0	 lea	 eax, DWORD PTR _strData$[ebp]
  0008a	50		 push	 eax
  0008b	e8 00 00 00 00	 call	 ?IntToString@CDataConversion@@SA?AV?$CStringT@DV?$StrTraitMFC_DLL@DV?$ChTraitsCRT@D@ATL@@@@@ATL@@_JH@Z ; CDataConversion::IntToString
  00090	83 c4 20	 add	 esp, 32			; 00000020H

; 1502 : 
; 1503 : 	tailNum = atoi(strTail.Left(2));

  00093	6a 02		 push	 2
  00095	8d 45 0c	 lea	 eax, DWORD PTR $T2[ebp]
  00098	c6 45 fc 02	 mov	 BYTE PTR __$EHRec$[ebp+8], 2
  0009c	50		 push	 eax
  0009d	8d 4d e8	 lea	 ecx, DWORD PTR _strTail$[ebp]
  000a0	ff 15 00 00 00
	00		 call	 DWORD PTR __imp_?Left@?$CStringT@DV?$StrTraitMFC_DLL@DV?$ChTraitsCRT@D@ATL@@@@@ATL@@QBE?AV12@H@Z
  000a6	8b 35 00 00 00
	00		 mov	 esi, DWORD PTR __imp__atoi
  000ac	ff 30		 push	 DWORD PTR [eax]
  000ae	ff d6		 call	 esi
  000b0	8b 7d 14	 mov	 edi, DWORD PTR _tailNum$[ebp]
  000b3	8d 4d 0c	 lea	 ecx, DWORD PTR $T2[ebp]
  000b6	83 c4 04	 add	 esp, 4
  000b9	89 07		 mov	 DWORD PTR [edi], eax
  000bb	ff 15 00 00 00
	00		 call	 DWORD PTR __imp_??1?$CStringT@DV?$StrTraitMFC_DLL@DV?$ChTraitsCRT@D@ATL@@@@@ATL@@QAE@XZ

; 1504 : 	HeadNum = atoi(strHead.Left(2));

  000c1	6a 02		 push	 2
  000c3	8d 45 14	 lea	 eax, DWORD PTR $T7[ebp]
  000c6	50		 push	 eax
  000c7	8d 4d ec	 lea	 ecx, DWORD PTR _strHead$[ebp]
  000ca	ff 15 00 00 00
	00		 call	 DWORD PTR __imp_?Left@?$CStringT@DV?$StrTraitMFC_DLL@DV?$ChTraitsCRT@D@ATL@@@@@ATL@@QBE?AV12@H@Z
  000d0	ff 30		 push	 DWORD PTR [eax]
  000d2	ff d6		 call	 esi
  000d4	8b 5d 10	 mov	 ebx, DWORD PTR _HeadNum$[ebp]
  000d7	8d 4d 14	 lea	 ecx, DWORD PTR $T7[ebp]
  000da	83 c4 04	 add	 esp, 4
  000dd	89 03		 mov	 DWORD PTR [ebx], eax
  000df	ff 15 00 00 00
	00		 call	 DWORD PTR __imp_??1?$CStringT@DV?$StrTraitMFC_DLL@DV?$ChTraitsCRT@D@ATL@@@@@ATL@@QAE@XZ

; 1505 : 	dataNum = atoi(strData.Left(2));

  000e5	6a 02		 push	 2
  000e7	8d 45 14	 lea	 eax, DWORD PTR $T6[ebp]
  000ea	50		 push	 eax
  000eb	8d 4d f0	 lea	 ecx, DWORD PTR _strData$[ebp]
  000ee	ff 15 00 00 00
	00		 call	 DWORD PTR __imp_?Left@?$CStringT@DV?$StrTraitMFC_DLL@DV?$ChTraitsCRT@D@ATL@@@@@ATL@@QBE?AV12@H@Z
  000f4	ff 30		 push	 DWORD PTR [eax]
  000f6	ff d6		 call	 esi
  000f8	8b 4d 18	 mov	 ecx, DWORD PTR _dataNum$[ebp]
  000fb	83 c4 04	 add	 esp, 4
  000fe	89 01		 mov	 DWORD PTR [ecx], eax
  00100	8d 4d 14	 lea	 ecx, DWORD PTR $T6[ebp]
  00103	ff 15 00 00 00
	00		 call	 DWORD PTR __imp_??1?$CStringT@DV?$StrTraitMFC_DLL@DV?$ChTraitsCRT@D@ATL@@@@@ATL@@QAE@XZ

; 1506 : 
; 1507 : 	//  
; 1508 : 	if(tailNum == HeadNum) {

  00109	8b 07		 mov	 eax, DWORD PTR [edi]
  0010b	3b 03		 cmp	 eax, DWORD PTR [ebx]
  0010d	75 6c		 jne	 SHORT $LN2@GetCompari

; 1509 : 		tailNum = atoi(strTail.Mid(2, 2));

  0010f	6a 02		 push	 2
  00111	6a 02		 push	 2
  00113	8d 45 14	 lea	 eax, DWORD PTR $T5[ebp]
  00116	50		 push	 eax
  00117	8d 4d e8	 lea	 ecx, DWORD PTR _strTail$[ebp]
  0011a	ff 15 00 00 00
	00		 call	 DWORD PTR __imp_?Mid@?$CStringT@DV?$StrTraitMFC_DLL@DV?$ChTraitsCRT@D@ATL@@@@@ATL@@QBE?AV12@HH@Z
  00120	ff 30		 push	 DWORD PTR [eax]
  00122	ff d6		 call	 esi
  00124	83 c4 04	 add	 esp, 4
  00127	89 07		 mov	 DWORD PTR [edi], eax
  00129	8d 4d 14	 lea	 ecx, DWORD PTR $T5[ebp]
  0012c	ff 15 00 00 00
	00		 call	 DWORD PTR __imp_??1?$CStringT@DV?$StrTraitMFC_DLL@DV?$ChTraitsCRT@D@ATL@@@@@ATL@@QAE@XZ

; 1510 : 		HeadNum = atoi(strHead.Mid(2, 2));

  00132	6a 02		 push	 2
  00134	6a 02		 push	 2
  00136	8d 45 14	 lea	 eax, DWORD PTR $T4[ebp]
  00139	50		 push	 eax
  0013a	8d 4d ec	 lea	 ecx, DWORD PTR _strHead$[ebp]
  0013d	ff 15 00 00 00
	00		 call	 DWORD PTR __imp_?Mid@?$CStringT@DV?$StrTraitMFC_DLL@DV?$ChTraitsCRT@D@ATL@@@@@ATL@@QBE?AV12@HH@Z
  00143	ff 30		 push	 DWORD PTR [eax]
  00145	ff d6		 call	 esi
  00147	83 c4 04	 add	 esp, 4
  0014a	89 03		 mov	 DWORD PTR [ebx], eax
  0014c	8d 4d 14	 lea	 ecx, DWORD PTR $T4[ebp]
  0014f	ff 15 00 00 00
	00		 call	 DWORD PTR __imp_??1?$CStringT@DV?$StrTraitMFC_DLL@DV?$ChTraitsCRT@D@ATL@@@@@ATL@@QAE@XZ

; 1511 : 		dataNum = atoi(strData.Mid(2, 2));

  00155	6a 02		 push	 2
  00157	6a 02		 push	 2
  00159	8d 45 14	 lea	 eax, DWORD PTR $T3[ebp]
  0015c	50		 push	 eax
  0015d	8d 4d f0	 lea	 ecx, DWORD PTR _strData$[ebp]
  00160	ff 15 00 00 00
	00		 call	 DWORD PTR __imp_?Mid@?$CStringT@DV?$StrTraitMFC_DLL@DV?$ChTraitsCRT@D@ATL@@@@@ATL@@QBE?AV12@HH@Z
  00166	ff 30		 push	 DWORD PTR [eax]
  00168	ff d6		 call	 esi
  0016a	8b 4d 18	 mov	 ecx, DWORD PTR _dataNum$[ebp]
  0016d	83 c4 04	 add	 esp, 4
  00170	89 01		 mov	 DWORD PTR [ecx], eax
  00172	8d 4d 14	 lea	 ecx, DWORD PTR $T3[ebp]
  00175	ff 15 00 00 00
	00		 call	 DWORD PTR __imp_??1?$CStringT@DV?$StrTraitMFC_DLL@DV?$ChTraitsCRT@D@ATL@@@@@ATL@@QAE@XZ
$LN2@GetCompari:

; 1513 : }

  0017b	8d 4d f0	 lea	 ecx, DWORD PTR _strData$[ebp]
  0017e	ff 15 00 00 00
	00		 call	 DWORD PTR __imp_??1?$CStringT@DV?$StrTraitMFC_DLL@DV?$ChTraitsCRT@D@ATL@@@@@ATL@@QAE@XZ
  00184	8d 4d ec	 lea	 ecx, DWORD PTR _strHead$[ebp]
  00187	ff 15 00 00 00
	00		 call	 DWORD PTR __imp_??1?$CStringT@DV?$StrTraitMFC_DLL@DV?$ChTraitsCRT@D@ATL@@@@@ATL@@QAE@XZ
  0018d	8d 4d e8	 lea	 ecx, DWORD PTR _strTail$[ebp]
  00190	ff 15 00 00 00
	00		 call	 DWORD PTR __imp_??1?$CStringT@DV?$StrTraitMFC_DLL@DV?$ChTraitsCRT@D@ATL@@@@@ATL@@QAE@XZ
  00196	8b 4d f4	 mov	 ecx, DWORD PTR __$EHRec$[ebp]
  00199	64 89 0d 00 00
	00 00		 mov	 DWORD PTR fs:0, ecx
  001a0	59		 pop	 ecx
  001a1	5f		 pop	 edi
  001a2	5e		 pop	 esi
  001a3	5b		 pop	 ebx
  001a4	8b e5		 mov	 esp, ebp
  001a6	5d		 pop	 ebp
  001a7	c2 14 00	 ret	 20			; 00000014H
$LN45@GetCompari:
; File C:\Program Files (x86)\Microsoft Visual Studio\2019\Community\VC\Tools\MSVC\14.29.30133\atlmfc\include\afxtempl.h

; 797  : 	{ ENSURE(m_pNodeTail != NULL);

  001aa	e8 00 00 00 00	 call	 ?AfxThrowInvalidArgException@@YGXXZ ; AfxThrowInvalidArgException
$LN46@GetCompari:

; 789  : 	{ ENSURE(m_pNodeHead != NULL);

  001af	e8 00 00 00 00	 call	 ?AfxThrowInvalidArgException@@YGXXZ ; AfxThrowInvalidArgException
$LN43@GetCompari:
  001b4	cc		 int	 3
_TEXT	ENDS
;	COMDAT text$x
text$x	SEGMENT
__unwindfunclet$?GetComparisionDatas@CPacketImplementation@@AAEXNAAH00@Z$0:
  00000	8d 4d e8	 lea	 ecx, DWORD PTR _strTail$[ebp]
  00003	ff 25 00 00 00
	00		 jmp	 DWORD PTR __imp_??1?$CStringT@DV?$StrTraitMFC_DLL@DV?$ChTraitsCRT@D@ATL@@@@@ATL@@QAE@XZ
__unwindfunclet$?GetComparisionDatas@CPacketImplementation@@AAEXNAAH00@Z$1:
  00009	8d 4d ec	 lea	 ecx, DWORD PTR _strHead$[ebp]
  0000c	ff 25 00 00 00
	00		 jmp	 DWORD PTR __imp_??1?$CStringT@DV?$StrTraitMFC_DLL@DV?$ChTraitsCRT@D@ATL@@@@@ATL@@QAE@XZ
__unwindfunclet$?GetComparisionDatas@CPacketImplementation@@AAEXNAAH00@Z$2:
  00012	8d 4d f0	 lea	 ecx, DWORD PTR _strData$[ebp]
  00015	ff 25 00 00 00
	00		 jmp	 DWORD PTR __imp_??1?$CStringT@DV?$StrTraitMFC_DLL@DV?$ChTraitsCRT@D@ATL@@@@@ATL@@QAE@XZ
  0001b	cc		 int	 3
  0001c	cc		 int	 3
  0001d	cc		 int	 3
  0001e	cc		 int	 3
  0001f	cc		 int	 3
__ehhandler$?GetComparisionDatas@CPacketImplementation@@AAEXNAAH00@Z:
  00020	90		 npad	 1
  00021	90		 npad	 1
  00022	8b 54 24 08	 mov	 edx, DWORD PTR [esp+8]
  00026	8d 42 0c	 lea	 eax, DWORD PTR [edx+12]
  00029	8b 4a e4	 mov	 ecx, DWORD PTR [edx-28]
  0002c	33 c8		 xor	 ecx, eax
  0002e	e8 00 00 00 00	 call	 @__security_check_cookie@4
  00033	b8 00 00 00 00	 mov	 eax, OFFSET __ehfuncinfo$?GetComparisionDatas@CPacketImplementation@@AAEXNAAH00@Z
  00038	e9 00 00 00 00	 jmp	 ___CxxFrameHandler3
text$x	ENDS
?GetComparisionDatas@CPacketImplementation@@AAEXNAAH00@Z ENDP ; CPacketImplementation::GetComparisionDatas
; Function compile flags: /Ogtp
; File D:\git\src\IBK\IBK_DRFN\ProjSrc\SrcChartEx\ChartOCX\PacketData\PacketImplementation.cpp
; File C:\Program Files (x86)\Microsoft Visual Studio\2019\Community\VC\Tools\MSVC\14.29.30133\atlmfc\include\atlsimpstr.h
; File D:\git\src\IBK\IBK_DRFN\ProjSrc\SrcChartEx\ChartOCX\PacketData\PacketImplementation.cpp
; File C:\Program Files (x86)\Microsoft Visual Studio\2019\Community\VC\Tools\MSVC\14.29.30133\atlmfc\include\atlsimpstr.h
; File D:\git\src\IBK\IBK_DRFN\ProjSrc\SrcChartEx\ChartOCX\PacketData\PacketImplementation.cpp
; File C:\Program Files (x86)\Microsoft Visual Studio\2019\Community\VC\Tools\MSVC\14.29.30133\atlmfc\include\cstringt.h
; File D:\git\src\IBK\IBK_DRFN\ProjSrc\SrcChartEx\ChartOCX\PacketData\PacketImplementation.cpp
; File C:\Program Files (x86)\Microsoft Visual Studio\2019\Community\VC\Tools\MSVC\14.29.30133\atlmfc\include\cstringt.h
; File D:\git\src\IBK\IBK_DRFN\ProjSrc\SrcChartEx\ChartOCX\PacketData\PacketImplementation.cpp
; File C:\Program Files (x86)\Microsoft Visual Studio\2019\Community\VC\Tools\MSVC\14.29.30133\atlmfc\include\cstringt.h
; File D:\git\src\IBK\IBK_DRFN\ProjSrc\SrcChartEx\ChartOCX\PacketData\PacketImplementation.cpp
; File C:\Program Files (x86)\Microsoft Visual Studio\2019\Community\VC\Tools\MSVC\14.29.30133\atlmfc\include\cstringt.h
; File D:\git\src\IBK\IBK_DRFN\ProjSrc\SrcChartEx\ChartOCX\PacketData\PacketImplementation.cpp
; File C:\Program Files (x86)\Microsoft Visual Studio\2019\Community\VC\Tools\MSVC\14.29.30133\atlmfc\include\afxtempl.h
; File D:\git\src\IBK\IBK_DRFN\ProjSrc\SrcChartEx\ChartOCX\PacketData\PacketImplementation.cpp
; File C:\Program Files (x86)\Microsoft Visual Studio\2019\Community\VC\Tools\MSVC\14.29.30133\atlmfc\include\afxtempl.h
; File D:\git\src\IBK\IBK_DRFN\ProjSrc\SrcChartEx\ChartOCX\PacketData\PacketImplementation.cpp
; File C:\Program Files (x86)\Microsoft Visual Studio\2019\Community\VC\Tools\MSVC\14.29.30133\atlmfc\include\afxtempl.h
; File D:\git\src\IBK\IBK_DRFN\ProjSrc\SrcChartEx\ChartOCX\PacketData\PacketImplementation.cpp
;	COMDAT ?GetIndexInCaseTypeIsBun_CurData@CPacketImplementation@@AAEHNV?$CStringT@DV?$StrTraitMFC_DLL@DV?$ChTraitsCRT@D@ATL@@@@@ATL@@@Z
_TEXT	SEGMENT
tv444 = -24						; size = 8
_dTimeData$1$ = -24					; size = 8
_strCurType$2 = -16					; size = 4
__$EHRec$ = -12						; size = 12
_dData$ = 8						; size = 8
_strType$ = 16						; size = 4
?GetIndexInCaseTypeIsBun_CurData@CPacketImplementation@@AAEHNV?$CStringT@DV?$StrTraitMFC_DLL@DV?$ChTraitsCRT@D@ATL@@@@@ATL@@@Z PROC ; CPacketImplementation::GetIndexInCaseTypeIsBun_CurData, COMDAT
; _this$ = ecx

; 1322 : {

  00000	55		 push	 ebp
  00001	8b ec		 mov	 ebp, esp
  00003	6a ff		 push	 -1
  00005	68 00 00 00 00	 push	 __ehhandler$?GetIndexInCaseTypeIsBun_CurData@CPacketImplementation@@AAEHNV?$CStringT@DV?$StrTraitMFC_DLL@DV?$ChTraitsCRT@D@ATL@@@@@ATL@@@Z
  0000a	64 a1 00 00 00
	00		 mov	 eax, DWORD PTR fs:0
  00010	50		 push	 eax
  00011	83 ec 0c	 sub	 esp, 12			; 0000000cH
  00014	56		 push	 esi
  00015	57		 push	 edi
  00016	a1 00 00 00 00	 mov	 eax, DWORD PTR ___security_cookie
  0001b	33 c5		 xor	 eax, ebp
  0001d	50		 push	 eax
  0001e	8d 45 f4	 lea	 eax, DWORD PTR __$EHRec$[ebp]
  00021	64 a3 00 00 00
	00		 mov	 DWORD PTR fs:0, eax
  00027	8b f9		 mov	 edi, ecx
; File C:\Program Files (x86)\Microsoft Visual Studio\2019\Community\VC\Tools\MSVC\14.29.30133\atlmfc\include\atlsimpstr.h

; 519  : 		return( GetData()->nDataLength );

  00029	8b 45 10	 mov	 eax, DWORD PTR _strType$[ebp]
; File D:\git\src\IBK\IBK_DRFN\ProjSrc\SrcChartEx\ChartOCX\PacketData\PacketImplementation.cpp

; 1323 : 	double dTimeData = dData;

  0002c	f2 0f 10 45 08	 movsd	 xmm0, QWORD PTR _dData$[ebp]
  00031	c7 45 fc 00 00
	00 00		 mov	 DWORD PTR __$EHRec$[ebp+8], 0
  00038	f2 0f 11 45 e8	 movsd	 QWORD PTR _dTimeData$1$[ebp], xmm0
; File C:\Program Files (x86)\Microsoft Visual Studio\2019\Community\VC\Tools\MSVC\14.29.30133\atlmfc\include\atlsimpstr.h

; 533  : 		return( GetLength() == 0 );

  0003d	83 78 f4 00	 cmp	 DWORD PTR [eax-12], 0
; File D:\git\src\IBK\IBK_DRFN\ProjSrc\SrcChartEx\ChartOCX\PacketData\PacketImplementation.cpp

; 1324 : 	if(!strType.IsEmpty())

  00041	0f 84 0a 01 00
	00		 je	 $LN4@GetIndexIn

; 489  : 		return m_Type;

  00047	8d 47 64	 lea	 eax, DWORD PTR [edi+100]
  0004a	50		 push	 eax
  0004b	8d 4d f0	 lea	 ecx, DWORD PTR _strCurType$2[ebp]
  0004e	ff 15 00 00 00
	00		 call	 DWORD PTR __imp_??0?$CStringT@DV?$StrTraitMFC_DLL@DV?$ChTraitsCRT@D@ATL@@@@@ATL@@QAE@ABV01@@Z
; File C:\Program Files (x86)\Microsoft Visual Studio\2019\Community\VC\Tools\MSVC\14.29.30133\atlmfc\include\cstringt.h

; 2560 : 		return( str1.Compare( str2 ) != 0 );

  00054	ff 75 10	 push	 DWORD PTR _strType$[ebp]
  00057	8d 4d f0	 lea	 ecx, DWORD PTR _strCurType$2[ebp]
; File D:\git\src\IBK\IBK_DRFN\ProjSrc\SrcChartEx\ChartOCX\PacketData\PacketImplementation.cpp

; 1326 : 		CString strCurType = GetType();

  0005a	c6 45 fc 01	 mov	 BYTE PTR __$EHRec$[ebp+8], 1
; File C:\Program Files (x86)\Microsoft Visual Studio\2019\Community\VC\Tools\MSVC\14.29.30133\atlmfc\include\cstringt.h

; 2560 : 		return( str1.Compare( str2 ) != 0 );

  0005e	ff 15 00 00 00
	00		 call	 DWORD PTR __imp_?Compare@?$CStringT@DV?$StrTraitMFC_DLL@DV?$ChTraitsCRT@D@ATL@@@@@ATL@@QBEHPBD@Z
  00064	85 c0		 test	 eax, eax
; File D:\git\src\IBK\IBK_DRFN\ProjSrc\SrcChartEx\ChartOCX\PacketData\PacketImplementation.cpp

; 1327 : 		if(strCurType != strType)

  00066	0f 84 93 00 00
	00		 je	 $LN8@GetIndexIn
; File C:\Program Files (x86)\Microsoft Visual Studio\2019\Community\VC\Tools\MSVC\14.29.30133\atlmfc\include\cstringt.h

; 2486 : 		return(str1.Compare(psz2) == 0);

  0006c	68 00 00 00 00	 push	 OFFSET ??_C@_08JFMBEEDE@DDHHMMSS@
  00071	8d 4d f0	 lea	 ecx, DWORD PTR _strCurType$2[ebp]
  00074	ff 15 00 00 00
	00		 call	 DWORD PTR __imp_?Compare@?$CStringT@DV?$StrTraitMFC_DLL@DV?$ChTraitsCRT@D@ATL@@@@@ATL@@QBEHPBD@Z
  0007a	85 c0		 test	 eax, eax
; File D:\git\src\IBK\IBK_DRFN\ProjSrc\SrcChartEx\ChartOCX\PacketData\PacketImplementation.cpp

; 1329 : 			if(strCurType == "DDHHMMSS")

  0007c	75 23		 jne	 SHORT $LN6@GetIndexIn

; 1330 : 			{
; 1331 : 				long lTimeData = (long)dTimeData;

  0007e	f2 0f 2c 4d 08	 cvttsd2si ecx, QWORD PTR _dData$[ebp]

; 1332 : 				long lTemp = lTimeData % 1000000;

  00083	b8 83 de 1b 43	 mov	 eax, 1125899907		; 431bde83H
  00088	f7 e9		 imul	 ecx
  0008a	c1 fa 12	 sar	 edx, 18			; 00000012H
  0008d	8b c2		 mov	 eax, edx
  0008f	c1 e8 1f	 shr	 eax, 31			; 0000001fH
  00092	03 c2		 add	 eax, edx
  00094	69 c0 40 42 0f
	00		 imul	 eax, eax, 1000000

; 1333 : 				lTemp *= 100;

  0009a	2b c8		 sub	 ecx, eax
  0009c	6b c1 64	 imul	 eax, ecx, 100

; 1334 : 
; 1335 : 				dTimeData = lTemp;
; 1336 : 			}

  0009f	eb 51		 jmp	 SHORT $LN64@GetIndexIn
$LN6@GetIndexIn:
; File C:\Program Files (x86)\Microsoft Visual Studio\2019\Community\VC\Tools\MSVC\14.29.30133\atlmfc\include\cstringt.h

; 2486 : 		return(str1.Compare(psz2) == 0);

  000a1	68 00 00 00 00	 push	 OFFSET ??_C@_08KLIIINKM@MMDDHHMM@
  000a6	8d 4d f0	 lea	 ecx, DWORD PTR _strCurType$2[ebp]
  000a9	ff 15 00 00 00
	00		 call	 DWORD PTR __imp_?Compare@?$CStringT@DV?$StrTraitMFC_DLL@DV?$ChTraitsCRT@D@ATL@@@@@ATL@@QBEHPBD@Z
  000af	85 c0		 test	 eax, eax
; File D:\git\src\IBK\IBK_DRFN\ProjSrc\SrcChartEx\ChartOCX\PacketData\PacketImplementation.cpp

; 1337 : 			else if(strCurType == "MMDDHHMM")

  000b1	75 4c		 jne	 SHORT $LN8@GetIndexIn

; 1338 : 			{
; 1339 : 				long lTimeData = (long)dTimeData;

  000b3	f2 0f 2c 75 08	 cvttsd2si esi, QWORD PTR _dData$[ebp]

; 1340 : 				long lTemp = lTimeData / 100;
; 1341 : 				long lMonth = (long)GetData(0) / 1000000;

  000b8	50		 push	 eax
  000b9	8b cf		 mov	 ecx, edi
  000bb	e8 00 00 00 00	 call	 ?GetData@CPacketImplementation@@QAENH@Z ; CPacketImplementation::GetData
  000c0	b8 83 de 1b 43	 mov	 eax, 1125899907		; 431bde83H
  000c5	dd 5d e8	 fstp	 QWORD PTR tv444[ebp]
  000c8	f2 0f 2c 4d e8	 cvttsd2si ecx, QWORD PTR tv444[ebp]
  000cd	f7 e9		 imul	 ecx
  000cf	c1 fa 12	 sar	 edx, 18			; 00000012H
  000d2	8b c2		 mov	 eax, edx
  000d4	c1 e8 1f	 shr	 eax, 31			; 0000001fH
  000d7	03 c2		 add	 eax, edx

; 1342 : 				lMonth *= 1000000;

  000d9	69 c8 40 42 0f
	00		 imul	 ecx, eax, 1000000
  000df	b8 1f 85 eb 51	 mov	 eax, 1374389535		; 51eb851fH
  000e4	f7 ee		 imul	 esi
  000e6	c1 fa 05	 sar	 edx, 5
  000e9	8b c2		 mov	 eax, edx
  000eb	c1 e8 1f	 shr	 eax, 31			; 0000001fH
  000ee	03 c2		 add	 eax, edx

; 1343 : 				lTemp += lMonth;

  000f0	03 c1		 add	 eax, ecx
$LN64@GetIndexIn:

; 826  : 	if(m_lnData.GetCount() <= 0)	return ERRORVALUE;

  000f2	66 0f 6e c0	 movd	 xmm0, eax
  000f6	f3 0f e6 c0	 cvtdq2pd xmm0, xmm0
  000fa	f2 0f 11 45 e8	 movsd	 QWORD PTR _dTimeData$1$[ebp], xmm0
$LN8@GetIndexIn:
  000ff	83 bf a0 00 00
	00 00		 cmp	 DWORD PTR [edi+160], 0
  00106	7f 0a		 jg	 SHORT $LN43@GetIndexIn
  00108	f2 0f 10 05 00
	00 00 00	 movsd	 xmm0, QWORD PTR __real@ffefffffffffffff
  00110	eb 1c		 jmp	 SHORT $LN42@GetIndexIn
$LN43@GetIndexIn:

; 827  : 	if(nIndex >= m_lnData.GetCount())	return ERRORVALUE;
; 828  : 
; 829  : 	POSITION pos = FindPosition(nIndex);

  00112	6a 00		 push	 0
  00114	8b cf		 mov	 ecx, edi
  00116	e8 00 00 00 00	 call	 ?FindPosition@CPacketImplementation@@ABEPAU__POSITION@@H@Z ; CPacketImplementation::FindPosition

; 830  : 	if(pos == NULL)

  0011b	85 c0		 test	 eax, eax
  0011d	75 0a		 jne	 SHORT $LN45@GetIndexIn

; 831  : 		return ERRORVALUE;

  0011f	f2 0f 10 05 00
	00 00 00	 movsd	 xmm0, QWORD PTR __real@ffefffffffffffff
  00127	eb 05		 jmp	 SHORT $LN42@GetIndexIn
$LN45@GetIndexIn:

; 832  : 
; 833  : 	return m_lnData.GetAt(pos);

  00129	f2 0f 10 40 08	 movsd	 xmm0, QWORD PTR [eax+8]
$LN42@GetIndexIn:

; 1344 : 	
; 1345 : 				dTimeData = lTemp;
; 1346 : 			}
; 1347 : 		}
; 1348 : 		
; 1349 : 		if(GetData(0) > dTimeData)

  0012e	66 0f 2f 45 e8	 comisd	 xmm0, QWORD PTR _dTimeData$1$[ebp]
  00133	76 0a		 jbe	 SHORT $LN9@GetIndexIn

; 1350 : 			dTimeData = dData;

  00135	f2 0f 10 45 08	 movsd	 xmm0, QWORD PTR _dData$[ebp]
  0013a	f2 0f 11 45 e8	 movsd	 QWORD PTR _dTimeData$1$[ebp], xmm0
$LN9@GetIndexIn:

; 1351 : 	}

  0013f	8d 4d f0	 lea	 ecx, DWORD PTR _strCurType$2[ebp]
  00142	c6 45 fc 00	 mov	 BYTE PTR __$EHRec$[ebp+8], 0
  00146	ff 15 00 00 00
	00		 call	 DWORD PTR __imp_??1?$CStringT@DV?$StrTraitMFC_DLL@DV?$ChTraitsCRT@D@ATL@@@@@ATL@@QAE@XZ
  0014c	f2 0f 10 45 e8	 movsd	 xmm0, QWORD PTR _dTimeData$1$[ebp]
$LN4@GetIndexIn:
; File C:\Program Files (x86)\Microsoft Visual Studio\2019\Community\VC\Tools\MSVC\14.29.30133\atlmfc\include\afxtempl.h

; 797  : 	{ ENSURE(m_pNodeTail != NULL);

  00151	8b 8f 9c 00 00
	00		 mov	 ecx, DWORD PTR [edi+156]
  00157	85 c9		 test	 ecx, ecx
  00159	74 67		 je	 SHORT $LN66@GetIndexIn
; File D:\git\src\IBK\IBK_DRFN\ProjSrc\SrcChartEx\ChartOCX\PacketData\PacketImplementation.cpp

; 1364 : 	if(dTimeData > dTail)

  0015b	f2 0f 10 49 08	 movsd	 xmm1, QWORD PTR [ecx+8]
  00160	66 0f 2f c1	 comisd	 xmm0, xmm1
  00164	77 31		 ja	 SHORT $LN61@GetIndexIn

; 1365 : 		return -1;
; 1366 : 	else if(dTimeData == dTail)

  00166	8b b7 a0 00 00
	00		 mov	 esi, DWORD PTR [edi+160]
  0016c	4e		 dec	 esi
  0016d	66 0f 2e c1	 ucomisd xmm0, xmm1
  00171	9f		 lahf
  00172	f6 c4 44	 test	 ah, 68			; 00000044H
  00175	7b 23		 jnp	 SHORT $LN21@GetIndexIn

; 1367 : 		return (m_lnData.GetCount() - 1);
; 1368 : 
; 1369 : 	//     ..
; 1370 : 	//       . 
; 1371 : 	//         .
; 1372 : 	//   index .
; 1373 : 	POSITION pos = m_lnData.GetTailPosition();
; 1374 : 	int nIndex = m_lnData.GetCount() - 1;

  00177	8b d6		 mov	 edx, esi
  00179	0f 1f 80 00 00
	00 00		 npad	 7
$LL2@GetIndexIn:

; 1379 : 		if((dPrev < dTimeData) && (dTimeData < dNext)) 

  00180	66 0f 2f 41 08	 comisd	 xmm0, QWORD PTR [ecx+8]
; File C:\Program Files (x86)\Microsoft Visual Studio\2019\Community\VC\Tools\MSVC\14.29.30133\atlmfc\include\afxtempl.h

; 823  : 	{ CNode* pNode = (CNode*) rPosition;

  00185	8d 01		 lea	 eax, DWORD PTR [ecx]

; 824  : 		ASSERT(AfxIsValidAddress(pNode, sizeof(CNode)));
; 825  : 		rPosition = (POSITION) pNode->pPrev;

  00187	8b 49 04	 mov	 ecx, DWORD PTR [ecx+4]
; File D:\git\src\IBK\IBK_DRFN\ProjSrc\SrcChartEx\ChartOCX\PacketData\PacketImplementation.cpp

; 1379 : 		if((dPrev < dTimeData) && (dTimeData < dNext)) 

  0018a	76 06		 jbe	 SHORT $LN13@GetIndexIn
  0018c	66 0f 2f c8	 comisd	 xmm1, xmm0
  00190	77 26		 ja	 SHORT $LN57@GetIndexIn
$LN13@GetIndexIn:

; 1382 : 		nIndex--;

  00192	4a		 dec	 edx
  00193	85 c9		 test	 ecx, ecx
  00195	75 e9		 jne	 SHORT $LL2@GetIndexIn
$LN61@GetIndexIn:

; 1383 : 	}
; 1384 : 
; 1385 : 	return -1;

  00197	83 ce ff	 or	 esi, -1
$LN21@GetIndexIn:
  0019a	8d 4d 10	 lea	 ecx, DWORD PTR _strType$[ebp]
  0019d	ff 15 00 00 00
	00		 call	 DWORD PTR __imp_??1?$CStringT@DV?$StrTraitMFC_DLL@DV?$ChTraitsCRT@D@ATL@@@@@ATL@@QAE@XZ
  001a3	8b c6		 mov	 eax, esi

; 1386 : }

  001a5	8b 4d f4	 mov	 ecx, DWORD PTR __$EHRec$[ebp]
  001a8	64 89 0d 00 00
	00 00		 mov	 DWORD PTR fs:0, ecx
  001af	59		 pop	 ecx
  001b0	5f		 pop	 edi
  001b1	5e		 pop	 esi
  001b2	8b e5		 mov	 esp, ebp
  001b4	5d		 pop	 ebp
  001b5	c2 0c 00	 ret	 12			; 0000000cH
$LN57@GetIndexIn:

; 1380 : //			return (dTimeData - dPrev) < (dNext - dTimeData) ? nIndex : nIndex++;
; 1381 : 			return min(nIndex + 1, m_lnData.GetCount() - 1);

  001b8	8d 42 01	 lea	 eax, DWORD PTR [edx+1]
  001bb	3b c6		 cmp	 eax, esi
  001bd	0f 4c f0	 cmovl	 esi, eax
  001c0	eb d8		 jmp	 SHORT $LN21@GetIndexIn
$LN66@GetIndexIn:
; File C:\Program Files (x86)\Microsoft Visual Studio\2019\Community\VC\Tools\MSVC\14.29.30133\atlmfc\include\afxtempl.h

; 797  : 	{ ENSURE(m_pNodeTail != NULL);

  001c2	e8 00 00 00 00	 call	 ?AfxThrowInvalidArgException@@YGXXZ ; AfxThrowInvalidArgException
$LN63@GetIndexIn:
  001c7	cc		 int	 3
_TEXT	ENDS
;	COMDAT text$x
text$x	SEGMENT
__unwindfunclet$?GetIndexInCaseTypeIsBun_CurData@CPacketImplementation@@AAEHNV?$CStringT@DV?$StrTraitMFC_DLL@DV?$ChTraitsCRT@D@ATL@@@@@ATL@@@Z$0:
  00000	8d 4d 10	 lea	 ecx, DWORD PTR _strType$[ebp]
  00003	ff 25 00 00 00
	00		 jmp	 DWORD PTR __imp_??1?$CStringT@DV?$StrTraitMFC_DLL@DV?$ChTraitsCRT@D@ATL@@@@@ATL@@QAE@XZ
__unwindfunclet$?GetIndexInCaseTypeIsBun_CurData@CPacketImplementation@@AAEHNV?$CStringT@DV?$StrTraitMFC_DLL@DV?$ChTraitsCRT@D@ATL@@@@@ATL@@@Z$1:
  00009	8d 4d f0	 lea	 ecx, DWORD PTR _strCurType$2[ebp]
  0000c	ff 25 00 00 00
	00		 jmp	 DWORD PTR __imp_??1?$CStringT@DV?$StrTraitMFC_DLL@DV?$ChTraitsCRT@D@ATL@@@@@ATL@@QAE@XZ
  00012	cc		 int	 3
  00013	cc		 int	 3
  00014	cc		 int	 3
  00015	cc		 int	 3
  00016	cc		 int	 3
__ehhandler$?GetIndexInCaseTypeIsBun_CurData@CPacketImplementation@@AAEHNV?$CStringT@DV?$StrTraitMFC_DLL@DV?$ChTraitsCRT@D@ATL@@@@@ATL@@@Z:
  00017	90		 npad	 1
  00018	90		 npad	 1
  00019	8b 54 24 08	 mov	 edx, DWORD PTR [esp+8]
  0001d	8d 42 0c	 lea	 eax, DWORD PTR [edx+12]
  00020	8b 4a e8	 mov	 ecx, DWORD PTR [edx-24]
  00023	33 c8		 xor	 ecx, eax
  00025	e8 00 00 00 00	 call	 @__security_check_cookie@4
  0002a	b8 00 00 00 00	 mov	 eax, OFFSET __ehfuncinfo$?GetIndexInCaseTypeIsBun_CurData@CPacketImplementation@@AAEHNV?$CStringT@DV?$StrTraitMFC_DLL@DV?$ChTraitsCRT@D@ATL@@@@@ATL@@@Z
  0002f	e9 00 00 00 00	 jmp	 ___CxxFrameHandler3
text$x	ENDS
?GetIndexInCaseTypeIsBun_CurData@CPacketImplementation@@AAEHNV?$CStringT@DV?$StrTraitMFC_DLL@DV?$ChTraitsCRT@D@ATL@@@@@ATL@@@Z ENDP ; CPacketImplementation::GetIndexInCaseTypeIsBun_CurData
; Function compile flags: /Ogtp
; File D:\git\src\IBK\IBK_DRFN\ProjSrc\SrcChartEx\ChartOCX\PacketData\PacketImplementation.cpp
;	COMDAT ?GetIndexInCaseTypeIsBun@CPacketImplementation@@AAEHNV?$CStringT@DV?$StrTraitMFC_DLL@DV?$ChTraitsCRT@D@ATL@@@@@ATL@@@Z
_TEXT	SEGMENT
_nTailNum$ = -24					; size = 4
_nDataNum$ = -20					; size = 4
_nHeadNum$ = -16					; size = 4
__$EHRec$ = -12						; size = 12
_dData$ = 8						; size = 8
_strType$ = 16						; size = 4
?GetIndexInCaseTypeIsBun@CPacketImplementation@@AAEHNV?$CStringT@DV?$StrTraitMFC_DLL@DV?$ChTraitsCRT@D@ATL@@@@@ATL@@@Z PROC ; CPacketImplementation::GetIndexInCaseTypeIsBun, COMDAT
; _this$ = ecx

; 1291 : {

  00000	55		 push	 ebp
  00001	8b ec		 mov	 ebp, esp
  00003	6a ff		 push	 -1
  00005	68 00 00 00 00	 push	 __ehhandler$?GetIndexInCaseTypeIsBun@CPacketImplementation@@AAEHNV?$CStringT@DV?$StrTraitMFC_DLL@DV?$ChTraitsCRT@D@ATL@@@@@ATL@@@Z
  0000a	64 a1 00 00 00
	00		 mov	 eax, DWORD PTR fs:0
  00010	50		 push	 eax
  00011	83 ec 0c	 sub	 esp, 12			; 0000000cH
  00014	56		 push	 esi
  00015	57		 push	 edi
  00016	a1 00 00 00 00	 mov	 eax, DWORD PTR ___security_cookie
  0001b	33 c5		 xor	 eax, ebp
  0001d	50		 push	 eax
  0001e	8d 45 f4	 lea	 eax, DWORD PTR __$EHRec$[ebp]
  00021	64 a3 00 00 00
	00		 mov	 DWORD PTR fs:0, eax
  00027	8b f9		 mov	 edi, ecx

; 1292 : 	if(m_lnData.GetCount() <= 0)

  00029	83 bf a0 00 00
	00 00		 cmp	 DWORD PTR [edi+160], 0
  00030	c7 45 fc 00 00
	00 00		 mov	 DWORD PTR __$EHRec$[ebp+8], 0
  00037	7f 08		 jg	 SHORT $LN2@GetIndexIn
  00039	83 ce ff	 or	 esi, -1
  0003c	e9 95 00 00 00	 jmp	 $LN11@GetIndexIn
$LN2@GetIndexIn:

; 1293 : 		//<<20100426_JS.Kim   -1  
; 1294 : 		//return 0;
; 1295 : 		return -1;
; 1296 : 		//>>
; 1297 : 
; 1298 : 	//
; 1299 : 	//    - ojtaso (20080811)
; 1300 : 	int nIndex = GetIndexInCaseTypeIsBun_CurData(dData, strType);

  00041	51		 push	 ecx
  00042	8d 45 10	 lea	 eax, DWORD PTR _strType$[ebp]
  00045	8b cc		 mov	 ecx, esp
  00047	50		 push	 eax
  00048	ff 15 00 00 00
	00		 call	 DWORD PTR __imp_??0?$CStringT@DV?$StrTraitMFC_DLL@DV?$ChTraitsCRT@D@ATL@@@@@ATL@@QAE@ABV01@@Z
  0004e	f2 0f 10 45 08	 movsd	 xmm0, QWORD PTR _dData$[ebp]
  00053	83 ec 08	 sub	 esp, 8
  00056	8b cf		 mov	 ecx, edi
  00058	f2 0f 11 04 24	 movsd	 QWORD PTR [esp], xmm0
  0005d	e8 00 00 00 00	 call	 ?GetIndexInCaseTypeIsBun_CurData@CPacketImplementation@@AAEHNV?$CStringT@DV?$StrTraitMFC_DLL@DV?$ChTraitsCRT@D@ATL@@@@@ATL@@@Z ; CPacketImplementation::GetIndexInCaseTypeIsBun_CurData
  00062	8b f0		 mov	 esi, eax

; 1301 : 	if(nIndex >= 0)

  00064	85 f6		 test	 esi, esi
  00066	79 6e		 jns	 SHORT $LN11@GetIndexIn

; 1302 : 		return nIndex;
; 1303 : 
; 1304 : 	int nTailNum = 0, nHeadNum = 0, nDataNum = 0;
; 1305 : 	GetComparisionDatas(dData, nHeadNum, nTailNum, nDataNum);

  00068	f2 0f 10 45 08	 movsd	 xmm0, QWORD PTR _dData$[ebp]
  0006d	8d 45 ec	 lea	 eax, DWORD PTR _nDataNum$[ebp]
  00070	50		 push	 eax
  00071	8d 45 e8	 lea	 eax, DWORD PTR _nTailNum$[ebp]
  00074	c7 45 e8 00 00
	00 00		 mov	 DWORD PTR _nTailNum$[ebp], 0
  0007b	50		 push	 eax
  0007c	8d 45 f0	 lea	 eax, DWORD PTR _nHeadNum$[ebp]
  0007f	c7 45 f0 00 00
	00 00		 mov	 DWORD PTR _nHeadNum$[ebp], 0
  00086	50		 push	 eax
  00087	83 ec 08	 sub	 esp, 8
  0008a	c7 45 ec 00 00
	00 00		 mov	 DWORD PTR _nDataNum$[ebp], 0
  00091	8b cf		 mov	 ecx, edi
  00093	f2 0f 11 04 24	 movsd	 QWORD PTR [esp], xmm0
  00098	e8 00 00 00 00	 call	 ?GetComparisionDatas@CPacketImplementation@@AAEXNAAH00@Z ; CPacketImplementation::GetComparisionDatas

; 1306 : 
; 1307 : 	//        
; 1308 : 	//
; 1309 : 	if(abs(nTailNum - nDataNum) <= abs(nHeadNum - nDataNum))

  0009d	8b 45 f0	 mov	 eax, DWORD PTR _nHeadNum$[ebp]
  000a0	83 ec 08	 sub	 esp, 8
  000a3	2b 45 ec	 sub	 eax, DWORD PTR _nDataNum$[ebp]
  000a6	8b cf		 mov	 ecx, edi
  000a8	f2 0f 10 45 08	 movsd	 xmm0, QWORD PTR _dData$[ebp]
  000ad	99		 cdq
  000ae	8b f0		 mov	 esi, eax
  000b0	f2 0f 11 04 24	 movsd	 QWORD PTR [esp], xmm0
  000b5	8b 45 e8	 mov	 eax, DWORD PTR _nTailNum$[ebp]
  000b8	33 f2		 xor	 esi, edx
  000ba	2b 45 ec	 sub	 eax, DWORD PTR _nDataNum$[ebp]
  000bd	2b f2		 sub	 esi, edx
  000bf	99		 cdq
  000c0	33 c2		 xor	 eax, edx
  000c2	2b c2		 sub	 eax, edx
  000c4	3b c6		 cmp	 eax, esi
  000c6	7f 07		 jg	 SHORT $LN4@GetIndexIn

; 1310 : 		return GetIndexOfFuture(dData);

  000c8	e8 00 00 00 00	 call	 ?GetIndexOfFuture@CPacketImplementation@@AAEHN@Z ; CPacketImplementation::GetIndexOfFuture
  000cd	eb 05		 jmp	 SHORT $LN14@GetIndexIn
$LN4@GetIndexIn:

; 1311 : 	else
; 1312 : 		return GetIndexOfPast(dData);

  000cf	e8 00 00 00 00	 call	 ?GetIndexOfPast@CPacketImplementation@@AAEHN@Z ; CPacketImplementation::GetIndexOfPast
$LN14@GetIndexIn:

; 1313 : 
; 1314 : 	//<<20100426_JS.Kim   -1  
; 1315 : 	//return 0;
; 1316 : 	return -1;

  000d4	8b f0		 mov	 esi, eax
$LN11@GetIndexIn:
  000d6	8d 4d 10	 lea	 ecx, DWORD PTR _strType$[ebp]
  000d9	ff 15 00 00 00
	00		 call	 DWORD PTR __imp_??1?$CStringT@DV?$StrTraitMFC_DLL@DV?$ChTraitsCRT@D@ATL@@@@@ATL@@QAE@XZ
  000df	8b c6		 mov	 eax, esi

; 1317 : 	//>>
; 1318 : }

  000e1	8b 4d f4	 mov	 ecx, DWORD PTR __$EHRec$[ebp]
  000e4	64 89 0d 00 00
	00 00		 mov	 DWORD PTR fs:0, ecx
  000eb	59		 pop	 ecx
  000ec	5f		 pop	 edi
  000ed	5e		 pop	 esi
  000ee	8b e5		 mov	 esp, ebp
  000f0	5d		 pop	 ebp
  000f1	c2 0c 00	 ret	 12			; 0000000cH
_TEXT	ENDS
;	COMDAT text$x
text$x	SEGMENT
__unwindfunclet$?GetIndexInCaseTypeIsBun@CPacketImplementation@@AAEHNV?$CStringT@DV?$StrTraitMFC_DLL@DV?$ChTraitsCRT@D@ATL@@@@@ATL@@@Z$0:
  00000	8d 4d 10	 lea	 ecx, DWORD PTR _strType$[ebp]
  00003	ff 25 00 00 00
	00		 jmp	 DWORD PTR __imp_??1?$CStringT@DV?$StrTraitMFC_DLL@DV?$ChTraitsCRT@D@ATL@@@@@ATL@@QAE@XZ
  00009	cc		 int	 3
  0000a	cc		 int	 3
  0000b	cc		 int	 3
  0000c	cc		 int	 3
  0000d	cc		 int	 3
__ehhandler$?GetIndexInCaseTypeIsBun@CPacketImplementation@@AAEHNV?$CStringT@DV?$StrTraitMFC_DLL@DV?$ChTraitsCRT@D@ATL@@@@@ATL@@@Z:
  0000e	90		 npad	 1
  0000f	90		 npad	 1
  00010	8b 54 24 08	 mov	 edx, DWORD PTR [esp+8]
  00014	8d 42 0c	 lea	 eax, DWORD PTR [edx+12]
  00017	8b 4a e8	 mov	 ecx, DWORD PTR [edx-24]
  0001a	33 c8		 xor	 ecx, eax
  0001c	e8 00 00 00 00	 call	 @__security_check_cookie@4
  00021	b8 00 00 00 00	 mov	 eax, OFFSET __ehfuncinfo$?GetIndexInCaseTypeIsBun@CPacketImplementation@@AAEHNV?$CStringT@DV?$StrTraitMFC_DLL@DV?$ChTraitsCRT@D@ATL@@@@@ATL@@@Z
  00026	e9 00 00 00 00	 jmp	 ___CxxFrameHandler3
text$x	ENDS
?GetIndexInCaseTypeIsBun@CPacketImplementation@@AAEHNV?$CStringT@DV?$StrTraitMFC_DLL@DV?$ChTraitsCRT@D@ATL@@@@@ATL@@@Z ENDP ; CPacketImplementation::GetIndexInCaseTypeIsBun
; Function compile flags: /Ogtp
; File D:\git\src\IBK\IBK_DRFN\ProjSrc\SrcChartEx\ChartOCX\PacketData\PacketImplementation.cpp
; File C:\Program Files (x86)\Microsoft Visual Studio\2019\Community\VC\Tools\MSVC\14.29.30133\atlmfc\include\afxtempl.h
; File D:\git\src\IBK\IBK_DRFN\ProjSrc\SrcChartEx\ChartOCX\PacketData\PacketImplementation.cpp
; File C:\Program Files (x86)\Microsoft Visual Studio\2019\Community\VC\Tools\MSVC\14.29.30133\atlmfc\include\afxtempl.h
; File D:\git\src\IBK\IBK_DRFN\ProjSrc\SrcChartEx\ChartOCX\PacketData\PacketImplementation.cpp
; File C:\Program Files (x86)\Microsoft Visual Studio\2019\Community\VC\Tools\MSVC\14.29.30133\atlmfc\include\afxtempl.h
; File D:\git\src\IBK\IBK_DRFN\ProjSrc\SrcChartEx\ChartOCX\PacketData\PacketImplementation.cpp
;	COMDAT ?GetIndexInCaseTypeIsnotBun_CurData@CPacketImplementation@@AAEHN@Z
_TEXT	SEGMENT
_dData$ = 8						; size = 8
?GetIndexInCaseTypeIsnotBun_CurData@CPacketImplementation@@AAEHN@Z PROC ; CPacketImplementation::GetIndexInCaseTypeIsnotBun_CurData, COMDAT
; _this$ = ecx

; 1413 : {

  00000	55		 push	 ebp
  00001	8b ec		 mov	 ebp, esp
; File C:\Program Files (x86)\Microsoft Visual Studio\2019\Community\VC\Tools\MSVC\14.29.30133\atlmfc\include\afxtempl.h

; 797  : 	{ ENSURE(m_pNodeTail != NULL);

  00003	8b 91 9c 00 00
	00		 mov	 edx, DWORD PTR [ecx+156]
  00009	85 d2		 test	 edx, edx
  0000b	74 45		 je	 SHORT $LN28@GetIndexIn
; File D:\git\src\IBK\IBK_DRFN\ProjSrc\SrcChartEx\ChartOCX\PacketData\PacketImplementation.cpp

; 1415 : 	if(dData > dTail)

  0000d	f2 0f 10 4a 08	 movsd	 xmm1, QWORD PTR [edx+8]
  00012	f2 0f 10 45 08	 movsd	 xmm0, QWORD PTR _dData$[ebp]
  00017	66 0f 2f c1	 comisd	 xmm0, xmm1
  0001b	77 2e		 ja	 SHORT $LN25@GetIndexIn

; 1416 : 		return -1;
; 1417 : 	else if(dData == dTail)

  0001d	8b 89 a0 00 00
	00		 mov	 ecx, DWORD PTR [ecx+160]
  00023	49		 dec	 ecx
  00024	66 0f 2e c1	 ucomisd xmm0, xmm1
  00028	9f		 lahf
  00029	f6 c4 44	 test	 ah, 68			; 00000044H
  0002c	7a 06		 jp	 SHORT $LL2@GetIndexIn
$LN21@GetIndexIn:

; 1436 : }

  0002e	8b c1		 mov	 eax, ecx
  00030	5d		 pop	 ebp
  00031	c2 08 00	 ret	 8
$LL2@GetIndexIn:

; 1430 : 		if((dPrev < dData) && (dData < dNext)) 

  00034	66 0f 2f 42 08	 comisd	 xmm0, QWORD PTR [edx+8]
; File C:\Program Files (x86)\Microsoft Visual Studio\2019\Community\VC\Tools\MSVC\14.29.30133\atlmfc\include\afxtempl.h

; 823  : 	{ CNode* pNode = (CNode*) rPosition;

  00039	8d 02		 lea	 eax, DWORD PTR [edx]

; 824  : 		ASSERT(AfxIsValidAddress(pNode, sizeof(CNode)));
; 825  : 		rPosition = (POSITION) pNode->pPrev;

  0003b	8b 52 04	 mov	 edx, DWORD PTR [edx+4]
; File D:\git\src\IBK\IBK_DRFN\ProjSrc\SrcChartEx\ChartOCX\PacketData\PacketImplementation.cpp

; 1430 : 		if((dPrev < dData) && (dData < dNext)) 

  0003e	76 06		 jbe	 SHORT $LN7@GetIndexIn
  00040	66 0f 2f c8	 comisd	 xmm1, xmm0
  00044	77 e8		 ja	 SHORT $LN21@GetIndexIn
$LN7@GetIndexIn:

; 1431 : 			return (dData - dPrev) < (dNext - dData) ? nIndex : nIndex++;
; 1432 : 		nIndex--;

  00046	49		 dec	 ecx
  00047	85 d2		 test	 edx, edx
  00049	75 e9		 jne	 SHORT $LL2@GetIndexIn
$LN25@GetIndexIn:

; 1433 : 	}
; 1434 : 
; 1435 : 	return -1;

  0004b	83 c8 ff	 or	 eax, -1

; 1436 : }

  0004e	5d		 pop	 ebp
  0004f	c2 08 00	 ret	 8
$LN28@GetIndexIn:
; File C:\Program Files (x86)\Microsoft Visual Studio\2019\Community\VC\Tools\MSVC\14.29.30133\atlmfc\include\afxtempl.h

; 797  : 	{ ENSURE(m_pNodeTail != NULL);

  00052	e8 00 00 00 00	 call	 ?AfxThrowInvalidArgException@@YGXXZ ; AfxThrowInvalidArgException
$LN26@GetIndexIn:
  00057	cc		 int	 3
?GetIndexInCaseTypeIsnotBun_CurData@CPacketImplementation@@AAEHN@Z ENDP ; CPacketImplementation::GetIndexInCaseTypeIsnotBun_CurData
_TEXT	ENDS
; Function compile flags: /Ogtp
; File D:\git\src\IBK\IBK_DRFN\ProjSrc\SrcChartEx\ChartOCX\PacketData\PacketImplementation.cpp
; File C:\Program Files (x86)\Microsoft Visual Studio\2019\Community\VC\Tools\MSVC\14.29.30133\atlmfc\include\afxtempl.h
; File D:\git\src\IBK\IBK_DRFN\ProjSrc\SrcChartEx\ChartOCX\PacketData\PacketImplementation.cpp
; File C:\Program Files (x86)\Microsoft Visual Studio\2019\Community\VC\Tools\MSVC\14.29.30133\atlmfc\include\afxtempl.h
; File D:\git\src\IBK\IBK_DRFN\ProjSrc\SrcChartEx\ChartOCX\PacketData\PacketImplementation.cpp
; File C:\Program Files (x86)\Microsoft Visual Studio\2019\Community\VC\Tools\MSVC\14.29.30133\atlmfc\include\afxtempl.h
; File D:\git\src\IBK\IBK_DRFN\ProjSrc\SrcChartEx\ChartOCX\PacketData\PacketImplementation.cpp
; File C:\Program Files (x86)\Microsoft Visual Studio\2019\Community\VC\Tools\MSVC\14.29.30133\atlmfc\include\afxtempl.h
; File D:\git\src\IBK\IBK_DRFN\ProjSrc\SrcChartEx\ChartOCX\PacketData\PacketImplementation.cpp
;	COMDAT ?GetIndexInCaseTypeIsnotBun@CPacketImplementation@@AAEHN@Z
_TEXT	SEGMENT
_dData$ = 8						; size = 8
?GetIndexInCaseTypeIsnotBun@CPacketImplementation@@AAEHN@Z PROC ; CPacketImplementation::GetIndexInCaseTypeIsnotBun, COMDAT
; _this$ = ecx

; 1390 : {

  00000	55		 push	 ebp
  00001	8b ec		 mov	 ebp, esp
  00003	56		 push	 esi
  00004	8b f1		 mov	 esi, ecx

; 1391 : 	if(m_lnData.GetCount() <= 0)

  00006	8b 96 a0 00 00
	00		 mov	 edx, DWORD PTR [esi+160]
  0000c	85 d2		 test	 edx, edx
  0000e	7f 07		 jg	 SHORT $LN2@GetIndexIn

; 1392 : 		return 0;

  00010	33 c0		 xor	 eax, eax
  00012	5e		 pop	 esi

; 1410 : }

  00013	5d		 pop	 ebp
  00014	c2 08 00	 ret	 8
$LN2@GetIndexIn:
; File C:\Program Files (x86)\Microsoft Visual Studio\2019\Community\VC\Tools\MSVC\14.29.30133\atlmfc\include\afxtempl.h

; 797  : 	{ ENSURE(m_pNodeTail != NULL);

  00017	8b 8e 9c 00 00
	00		 mov	 ecx, DWORD PTR [esi+156]
  0001d	85 c9		 test	 ecx, ecx
  0001f	0f 84 88 00 00
	00		 je	 $LN45@GetIndexIn
; File D:\git\src\IBK\IBK_DRFN\ProjSrc\SrcChartEx\ChartOCX\PacketData\PacketImplementation.cpp

; 1415 : 	if(dData > dTail)

  00025	f2 0f 10 51 08	 movsd	 xmm2, QWORD PTR [ecx+8]
  0002a	f2 0f 10 4d 08	 movsd	 xmm1, QWORD PTR _dData$[ebp]
  0002f	66 0f 2f ca	 comisd	 xmm1, xmm2
  00033	77 22		 ja	 SHORT $LN46@GetIndexIn

; 1416 : 		return -1;
; 1417 : 	else if(dData == dTail)

  00035	4a		 dec	 edx
  00036	66 0f 2e ca	 ucomisd xmm1, xmm2
  0003a	9f		 lahf
  0003b	f6 c4 44	 test	 ah, 68			; 00000044H
  0003e	7b 40		 jnp	 SHORT $LN41@GetIndexIn
$LL9@GetIndexIn:

; 1430 : 		if((dPrev < dData) && (dData < dNext)) 

  00040	66 0f 2f 49 08	 comisd	 xmm1, QWORD PTR [ecx+8]
; File C:\Program Files (x86)\Microsoft Visual Studio\2019\Community\VC\Tools\MSVC\14.29.30133\atlmfc\include\afxtempl.h

; 823  : 	{ CNode* pNode = (CNode*) rPosition;

  00045	8d 01		 lea	 eax, DWORD PTR [ecx]

; 824  : 		ASSERT(AfxIsValidAddress(pNode, sizeof(CNode)));
; 825  : 		rPosition = (POSITION) pNode->pPrev;

  00047	8b 49 04	 mov	 ecx, DWORD PTR [ecx+4]
; File D:\git\src\IBK\IBK_DRFN\ProjSrc\SrcChartEx\ChartOCX\PacketData\PacketImplementation.cpp

; 1430 : 		if((dPrev < dData) && (dData < dNext)) 

  0004a	76 06		 jbe	 SHORT $LN14@GetIndexIn
  0004c	66 0f 2f d1	 comisd	 xmm2, xmm1
  00050	77 2e		 ja	 SHORT $LN41@GetIndexIn
$LN14@GetIndexIn:

; 1431 : 			return (dData - dPrev) < (dNext - dData) ? nIndex : nIndex++;
; 1432 : 		nIndex--;

  00052	4a		 dec	 edx
  00053	85 c9		 test	 ecx, ecx
  00055	75 e9		 jne	 SHORT $LL9@GetIndexIn
$LN46@GetIndexIn:
; File C:\Program Files (x86)\Microsoft Visual Studio\2019\Community\VC\Tools\MSVC\14.29.30133\atlmfc\include\afxtempl.h

; 789  : 	{ ENSURE(m_pNodeHead != NULL);

  00057	8b 86 98 00 00
	00		 mov	 eax, DWORD PTR [esi+152]
  0005d	85 c0		 test	 eax, eax
  0005f	74 4c		 je	 SHORT $LN45@GetIndexIn
; File D:\git\src\IBK\IBK_DRFN\ProjSrc\SrcChartEx\ChartOCX\PacketData\PacketImplementation.cpp

; 1400 : 	if(m_lnData.GetHead() > dData)	

  00061	f2 0f 10 40 08	 movsd	 xmm0, QWORD PTR [eax+8]
  00066	66 0f 2f c1	 comisd	 xmm0, xmm1
  0006a	76 1f		 jbe	 SHORT $LN4@GetIndexIn

; 1401 : 		return GetIndexOfPast(dData);

  0006c	83 ec 08	 sub	 esp, 8
  0006f	8b ce		 mov	 ecx, esi
  00071	f2 0f 11 0c 24	 movsd	 QWORD PTR [esp], xmm1
  00076	e8 00 00 00 00	 call	 ?GetIndexOfPast@CPacketImplementation@@AAEHN@Z ; CPacketImplementation::GetIndexOfPast
  0007b	5e		 pop	 esi

; 1410 : }

  0007c	5d		 pop	 ebp
  0007d	c2 08 00	 ret	 8
$LN41@GetIndexIn:

; 1393 : 
; 1394 : 	//
; 1395 : 	int nIndex = GetIndexInCaseTypeIsnotBun_CurData(dData);
; 1396 : 	if(nIndex >= 0)

  00080	85 d2		 test	 edx, edx
  00082	78 d3		 js	 SHORT $LN46@GetIndexIn

; 1397 : 		return nIndex;

  00084	8b c2		 mov	 eax, edx
  00086	5e		 pop	 esi

; 1410 : }

  00087	5d		 pop	 ebp
  00088	c2 08 00	 ret	 8
$LN4@GetIndexIn:

; 1402 : 	//
; 1403 : 	else if(m_lnData.GetTail() < dData)	

  0008b	66 0f 2f ca	 comisd	 xmm1, xmm2
  0008f	76 14		 jbe	 SHORT $LN6@GetIndexIn

; 1404 : 		return GetIndexOfFuture(dData);

  00091	83 ec 08	 sub	 esp, 8
  00094	8b ce		 mov	 ecx, esi
  00096	f2 0f 11 0c 24	 movsd	 QWORD PTR [esp], xmm1
  0009b	e8 00 00 00 00	 call	 ?GetIndexOfFuture@CPacketImplementation@@AAEHN@Z ; CPacketImplementation::GetIndexOfFuture
  000a0	5e		 pop	 esi

; 1410 : }

  000a1	5d		 pop	 ebp
  000a2	c2 08 00	 ret	 8
$LN6@GetIndexIn:

; 1405 : 	
; 1406 : 	//<<20100426_JS.Kim   -1  
; 1407 : 	//return 0;
; 1408 : 	return -1;

  000a5	83 c8 ff	 or	 eax, -1
  000a8	5e		 pop	 esi

; 1410 : }

  000a9	5d		 pop	 ebp
  000aa	c2 08 00	 ret	 8
$LN45@GetIndexIn:
; File C:\Program Files (x86)\Microsoft Visual Studio\2019\Community\VC\Tools\MSVC\14.29.30133\atlmfc\include\afxtempl.h

; 789  : 	{ ENSURE(m_pNodeHead != NULL);

  000ad	e8 00 00 00 00	 call	 ?AfxThrowInvalidArgException@@YGXXZ ; AfxThrowInvalidArgException
$LN47@GetIndexIn:
  000b2	cc		 int	 3
?GetIndexInCaseTypeIsnotBun@CPacketImplementation@@AAEHN@Z ENDP ; CPacketImplementation::GetIndexInCaseTypeIsnotBun
_TEXT	ENDS
; Function compile flags: /Ogtp
; File D:\git\src\IBK\IBK_DRFN\ProjSrc\SrcChartEx\ChartOCX\PacketData\PacketImplementation.cpp
;	COMDAT ?GetIndexOfPast@CPacketImplementation@@AAEHN@Z
_TEXT	SEGMENT
_dCalcDate$1 = -8					; size = 8
_dData$ = 8						; size = 8
?GetIndexOfPast@CPacketImplementation@@AAEHN@Z PROC	; CPacketImplementation::GetIndexOfPast, COMDAT
; _this$ = ecx

; 1439 : {

  00000	55		 push	 ebp
  00001	8b ec		 mov	 ebp, esp
  00003	83 ec 08	 sub	 esp, 8

; 1440 : 	//sy 2004.12.01.
; 1441 : 	// packet type  dData   .
; 1442 : 	if(!IsDataInPacketType(dData))

  00006	8d 45 08	 lea	 eax, DWORD PTR _dData$[ebp]
  00009	56		 push	 esi
  0000a	57		 push	 edi
  0000b	50		 push	 eax
  0000c	8b f9		 mov	 edi, ecx
  0000e	e8 00 00 00 00	 call	 ?IsDataInPacketType@CPacketImplementation@@ABE_NABN@Z ; CPacketImplementation::IsDataInPacketType
  00013	84 c0		 test	 al, al
  00015	74 36		 je	 SHORT $LN3@GetIndexOf

; 1443 : 		//<<20100426_JS.Kim   -1  
; 1444 : 		//return 0;
; 1445 : 		return -1;
; 1446 : 		//>>
; 1447 : 
; 1448 : 	int j = -1;

  00017	83 ce ff	 or	 esi, -1
  0001a	66 0f 1f 44 00
	00		 npad	 6
$LL2@GetIndexOf:

; 1449 : 	//while(true)	{
; 1450 : 	while(j > -10000) //sy  
; 1451 : 	{
; 1452 : 		double dCalcDate = GetDataPastandFuture(j);

  00020	56		 push	 esi
  00021	8b cf		 mov	 ecx, edi
  00023	e8 00 00 00 00	 call	 ?GetDataPastandFuture@CPacketImplementation@@QAENH@Z ; CPacketImplementation::GetDataPastandFuture
  00028	dd 5d f8	 fstp	 QWORD PTR _dCalcDate$1[ebp]

; 1453 : 		if(dCalcDate <= 0)

  0002b	f2 0f 10 45 f8	 movsd	 xmm0, QWORD PTR _dCalcDate$1[ebp]
  00030	0f 57 c9	 xorps	 xmm1, xmm1
  00033	66 0f 2f c8	 comisd	 xmm1, xmm0
  00037	73 14		 jae	 SHORT $LN3@GetIndexOf

; 1454 : 			//<<20100426_JS.Kim   -1  
; 1455 : 			//return 0;
; 1456 : 			return -1;
; 1457 : 			//>>
; 1458 : 		if(dCalcDate <= dData)

  00039	f2 0f 10 4d 08	 movsd	 xmm1, QWORD PTR _dData$[ebp]
  0003e	66 0f 2f c8	 comisd	 xmm1, xmm0
  00042	73 14		 jae	 SHORT $LN10@GetIndexOf

; 1460 : 		j--;

  00044	4e		 dec	 esi
  00045	81 fe f0 d8 ff
	ff		 cmp	 esi, -10000		; ffffd8f0H
  0004b	7f d3		 jg	 SHORT $LL2@GetIndexOf
$LN3@GetIndexOf:
  0004d	5f		 pop	 edi

; 1461 : 	}
; 1462 : 	//<<20100426_JS.Kim   -1  
; 1463 : 	//return 0;
; 1464 : 	return -1;

  0004e	83 c8 ff	 or	 eax, -1

; 1465 : 	//>>
; 1466 : }

  00051	5e		 pop	 esi
  00052	8b e5		 mov	 esp, ebp
  00054	5d		 pop	 ebp
  00055	c2 08 00	 ret	 8
$LN10@GetIndexOf:
  00058	5f		 pop	 edi

; 1459 : 			return j;

  00059	8b c6		 mov	 eax, esi

; 1465 : 	//>>
; 1466 : }

  0005b	5e		 pop	 esi
  0005c	8b e5		 mov	 esp, ebp
  0005e	5d		 pop	 ebp
  0005f	c2 08 00	 ret	 8
?GetIndexOfPast@CPacketImplementation@@AAEHN@Z ENDP	; CPacketImplementation::GetIndexOfPast
_TEXT	ENDS
; Function compile flags: /Ogtp
; File D:\git\src\IBK\IBK_DRFN\ProjSrc\SrcChartEx\ChartOCX\PacketData\PacketImplementation.cpp
;	COMDAT ?GetIndexOfFuture@CPacketImplementation@@AAEHN@Z
_TEXT	SEGMENT
_dCalcDate$1 = -8					; size = 8
_dData$ = 8						; size = 8
?GetIndexOfFuture@CPacketImplementation@@AAEHN@Z PROC	; CPacketImplementation::GetIndexOfFuture, COMDAT
; _this$ = ecx

; 1469 : {

  00000	55		 push	 ebp
  00001	8b ec		 mov	 ebp, esp
  00003	83 ec 08	 sub	 esp, 8

; 1470 : 	//sy 2004.12.01.
; 1471 : 	// packet type  dData   .
; 1472 : 	if(!IsDataInPacketType(dData))

  00006	8d 45 08	 lea	 eax, DWORD PTR _dData$[ebp]
  00009	56		 push	 esi
  0000a	57		 push	 edi
  0000b	50		 push	 eax
  0000c	8b f9		 mov	 edi, ecx
  0000e	e8 00 00 00 00	 call	 ?IsDataInPacketType@CPacketImplementation@@ABE_NABN@Z ; CPacketImplementation::IsDataInPacketType
  00013	84 c0		 test	 al, al
  00015	74 52		 je	 SHORT $LN9@GetIndexOf

; 1473 : 		//<<20100426_JS.Kim   -1  
; 1474 : 		//return 0;
; 1475 : 		return -1;
; 1476 : 		//>>
; 1477 : 
; 1478 : 	int j = m_lnData.GetCount();

  00017	8b b7 a0 00 00
	00		 mov	 esi, DWORD PTR [edi+160]

; 1479 : 	//while(true)	{
; 1480 : 	while(j < 10000) //sy  

  0001d	81 fe 10 27 00
	00		 cmp	 esi, 10000		; 00002710H
  00023	7d 2f		 jge	 SHORT $LN3@GetIndexOf
$LL2@GetIndexOf:

; 1481 : 	{
; 1482 : 		double dCalcDate = GetDataPastandFuture(j);

  00025	56		 push	 esi
  00026	8b cf		 mov	 ecx, edi
  00028	e8 00 00 00 00	 call	 ?GetDataPastandFuture@CPacketImplementation@@QAENH@Z ; CPacketImplementation::GetDataPastandFuture
  0002d	dd 5d f8	 fstp	 QWORD PTR _dCalcDate$1[ebp]

; 1483 : 		if(dCalcDate <= 0)

  00030	f2 0f 10 45 f8	 movsd	 xmm0, QWORD PTR _dCalcDate$1[ebp]
  00035	0f 57 c9	 xorps	 xmm1, xmm1
  00038	66 0f 2f c8	 comisd	 xmm1, xmm0
  0003c	73 2b		 jae	 SHORT $LN9@GetIndexOf

; 1487 : 			//>>
; 1488 : 		if(dCalcDate >= dData)

  0003e	66 0f 2f 45 08	 comisd	 xmm0, QWORD PTR _dData$[ebp]
  00043	73 1a		 jae	 SHORT $LN10@GetIndexOf

; 1490 : 		j++;

  00045	46		 inc	 esi
  00046	81 fe 10 27 00
	00		 cmp	 esi, 10000		; 00002710H
  0004c	7c d7		 jl	 SHORT $LL2@GetIndexOf

; 1487 : 			//>>
; 1488 : 		if(dCalcDate >= dData)

  0004e	8b b7 a0 00 00
	00		 mov	 esi, DWORD PTR [edi+160]
$LN3@GetIndexOf:
  00054	5f		 pop	 edi

; 1491 : 	}
; 1492 : 	return m_lnData.GetCount() - 1;

  00055	8d 46 ff	 lea	 eax, DWORD PTR [esi-1]

; 1493 : }

  00058	5e		 pop	 esi
  00059	8b e5		 mov	 esp, ebp
  0005b	5d		 pop	 ebp
  0005c	c2 08 00	 ret	 8
$LN10@GetIndexOf:
  0005f	5f		 pop	 edi

; 1489 : 			return j;

  00060	8b c6		 mov	 eax, esi

; 1493 : }

  00062	5e		 pop	 esi
  00063	8b e5		 mov	 esp, ebp
  00065	5d		 pop	 ebp
  00066	c2 08 00	 ret	 8
$LN9@GetIndexOf:
  00069	5f		 pop	 edi

; 1484 : 			//<<20100426_JS.Kim   -1  
; 1485 : 			//return 0;
; 1486 : 			return -1;

  0006a	83 c8 ff	 or	 eax, -1

; 1493 : }

  0006d	5e		 pop	 esi
  0006e	8b e5		 mov	 esp, ebp
  00070	5d		 pop	 ebp
  00071	c2 08 00	 ret	 8
?GetIndexOfFuture@CPacketImplementation@@AAEHN@Z ENDP	; CPacketImplementation::GetIndexOfFuture
_TEXT	ENDS
; Function compile flags: /Ogtp
; File C:\Program Files (x86)\Microsoft Visual Studio\2019\Community\VC\Tools\MSVC\14.29.30133\atlmfc\include\afxtempl.h
; File C:\Program Files (x86)\Microsoft Visual Studio\2019\Community\VC\Tools\MSVC\14.29.30133\atlmfc\include\afx.inl
;	COMDAT ??_G?$CList@NN@@UAEPAXI@Z
_TEXT	SEGMENT
__$EHRec$ = -12						; size = 12
___flags$ = 8						; size = 4
??_G?$CList@NN@@UAEPAXI@Z PROC				; CList<double,double>::`scalar deleting destructor', COMDAT
; _this$ = ecx
  00000	55		 push	 ebp
  00001	8b ec		 mov	 ebp, esp
  00003	6a ff		 push	 -1
  00005	68 00 00 00 00	 push	 __ehhandler$??_G?$CList@NN@@UAEPAXI@Z
  0000a	64 a1 00 00 00
	00		 mov	 eax, DWORD PTR fs:0
  00010	50		 push	 eax
  00011	56		 push	 esi
  00012	a1 00 00 00 00	 mov	 eax, DWORD PTR ___security_cookie
  00017	33 c5		 xor	 eax, ebp
  00019	50		 push	 eax
  0001a	8d 45 f4	 lea	 eax, DWORD PTR __$EHRec$[ebp]
  0001d	64 a3 00 00 00
	00		 mov	 DWORD PTR fs:0, eax
  00023	8b f1		 mov	 esi, ecx
; File C:\Program Files (x86)\Microsoft Visual Studio\2019\Community\VC\Tools\MSVC\14.29.30133\atlmfc\include\afxtempl.h

; 872  : 	m_pBlocks->FreeDataChain();

  00025	8b 4e 14	 mov	 ecx, DWORD PTR [esi+20]

; 878  : {

  00028	c7 45 fc 00 00
	00 00		 mov	 DWORD PTR __$EHRec$[ebp+8], 0
  0002f	c7 06 00 00 00
	00		 mov	 DWORD PTR [esi], OFFSET ??_7?$CList@NN@@6B@

; 870  : 	m_nCount = 0;

  00035	c7 46 0c 00 00
	00 00		 mov	 DWORD PTR [esi+12], 0

; 871  : 	m_pNodeHead = m_pNodeTail = m_pNodeFree = NULL;

  0003c	c7 46 10 00 00
	00 00		 mov	 DWORD PTR [esi+16], 0
  00043	c7 46 08 00 00
	00 00		 mov	 DWORD PTR [esi+8], 0
  0004a	c7 46 04 00 00
	00 00		 mov	 DWORD PTR [esi+4], 0

; 872  : 	m_pBlocks->FreeDataChain();

  00051	e8 00 00 00 00	 call	 ?FreeDataChain@CPlex@@QAEXXZ ; CPlex::FreeDataChain

; 873  : 	m_pBlocks = NULL;

  00056	8b 45 08	 mov	 eax, DWORD PTR ___flags$[ebp]
  00059	c7 46 14 00 00
	00 00		 mov	 DWORD PTR [esi+20], 0
  00060	a8 01		 test	 al, 1
  00062	74 2c		 je	 SHORT $LN22@scalar
  00064	a8 04		 test	 al, 4
  00066	75 1d		 jne	 SHORT $LN3@scalar
; File C:\Program Files (x86)\Microsoft Visual Studio\2019\Community\VC\Tools\MSVC\14.29.30133\atlmfc\include\afx.inl

; 112  : 	{ ::operator delete(p); }

  00068	56		 push	 esi
  00069	e8 00 00 00 00	 call	 ??3@YAXPAX@Z		; operator delete
  0006e	83 c4 04	 add	 esp, 4
  00071	8b c6		 mov	 eax, esi
  00073	8b 4d f4	 mov	 ecx, DWORD PTR __$EHRec$[ebp]
  00076	64 89 0d 00 00
	00 00		 mov	 DWORD PTR fs:0, ecx
  0007d	59		 pop	 ecx
  0007e	5e		 pop	 esi
  0007f	8b e5		 mov	 esp, ebp
  00081	5d		 pop	 ebp
  00082	c2 04 00	 ret	 4
$LN3@scalar:
  00085	6a 1c		 push	 28			; 0000001cH
  00087	56		 push	 esi
  00088	e8 00 00 00 00	 call	 ?__global_delete@@YAXPAXI@Z ; __global_delete
  0008d	83 c4 08	 add	 esp, 8
$LN22@scalar:
  00090	8b c6		 mov	 eax, esi
  00092	8b 4d f4	 mov	 ecx, DWORD PTR __$EHRec$[ebp]
  00095	64 89 0d 00 00
	00 00		 mov	 DWORD PTR fs:0, ecx
  0009c	59		 pop	 ecx
  0009d	5e		 pop	 esi
  0009e	8b e5		 mov	 esp, ebp
  000a0	5d		 pop	 ebp
  000a1	c2 04 00	 ret	 4
  000a4	cc		 int	 3
  000a5	cc		 int	 3
  000a6	cc		 int	 3
  000a7	cc		 int	 3
  000a8	cc		 int	 3
_TEXT	ENDS
;	COMDAT text$x
text$x	SEGMENT
__ehhandler$??_G?$CList@NN@@UAEPAXI@Z:
  00000	90		 npad	 1
  00001	90		 npad	 1
  00002	8b 54 24 08	 mov	 edx, DWORD PTR [esp+8]
  00006	8d 42 0c	 lea	 eax, DWORD PTR [edx+12]
  00009	8b 4a f8	 mov	 ecx, DWORD PTR [edx-8]
  0000c	33 c8		 xor	 ecx, eax
  0000e	e8 00 00 00 00	 call	 @__security_check_cookie@4
  00013	b8 00 00 00 00	 mov	 eax, OFFSET __ehfuncinfo$??_G?$CList@NN@@UAEPAXI@Z
  00018	e9 00 00 00 00	 jmp	 ___CxxFrameHandler3
text$x	ENDS
??_G?$CList@NN@@UAEPAXI@Z ENDP				; CList<double,double>::`scalar deleting destructor'
; Function compile flags: /Ogtp
; File C:\Program Files (x86)\Microsoft Visual Studio\2019\Community\VC\Tools\MSVC\14.29.30133\atlmfc\include\afxtempl.h
; File C:\Program Files (x86)\Microsoft Visual Studio\2019\Community\VC\Tools\MSVC\14.29.30133\atlmfc\include\afx.inl
; File C:\Program Files (x86)\Microsoft Visual Studio\2019\Community\VC\Tools\MSVC\14.29.30133\atlmfc\include\afxtempl.h
; File C:\Program Files (x86)\Microsoft Visual Studio\2019\Community\VC\Tools\MSVC\14.29.30133\atlmfc\include\afx.inl
; File C:\Program Files (x86)\Microsoft Visual Studio\2019\Community\VC\Tools\MSVC\14.29.30133\atlmfc\include\afxtempl.h
; File C:\Program Files (x86)\Microsoft Visual Studio\2019\Community\VC\Tools\MSVC\14.29.30133\atlmfc\include\afx.inl
; File C:\Program Files (x86)\Microsoft Visual Studio\2019\Community\VC\Tools\MSVC\14.29.30133\atlmfc\include\afxtempl.h
; File C:\Program Files (x86)\Microsoft Visual Studio\2019\Community\VC\Tools\MSVC\14.29.30133\atlmfc\include\afx.inl
; File C:\Program Files (x86)\Microsoft Visual Studio\2019\Community\VC\Tools\MSVC\14.29.30133\atlmfc\include\afxtempl.h
; File C:\Program Files (x86)\Microsoft Visual Studio\2019\Community\VC\Tools\MSVC\14.29.30133\atlmfc\include\afx.inl
; File C:\Program Files (x86)\Microsoft Visual Studio\2019\Community\VC\Tools\MSVC\14.29.30133\atlmfc\include\afxtempl.h
; File C:\Program Files (x86)\Microsoft Visual Studio\2019\Community\VC\Tools\MSVC\14.29.30133\atlmfc\include\afx.inl
; File C:\Program Files (x86)\Microsoft Visual Studio\2019\Community\VC\Tools\MSVC\14.29.30133\atlmfc\include\afxtempl.h
;	COMDAT ?Serialize@?$CList@NN@@UAEXAAVCArchive@@@Z
_TEXT	SEGMENT
_newData$1 = -24					; size = 8
_nNewCount$1$ = -16					; size = 4
_newElement$1$ = -12					; size = 8
_pData$1$ = -8						; size = 4
_pData$1$ = -8						; size = 4
_pNode$1$ = -8						; size = 4
_nElementsLeft$1$ = -4					; size = 4
_this$1$ = -4						; size = 4
_ar$ = 8						; size = 4
?Serialize@?$CList@NN@@UAEXAAVCArchive@@@Z PROC		; CList<double,double>::Serialize, COMDAT
; _this$ = ecx

; 1169 : {

  00000	55		 push	 ebp
  00001	8b ec		 mov	 ebp, esp
  00003	83 ec 18	 sub	 esp, 24			; 00000018H
  00006	53		 push	 ebx
  00007	8b d9		 mov	 ebx, ecx
; File C:\Program Files (x86)\Microsoft Visual Studio\2019\Community\VC\Tools\MSVC\14.29.30133\atlmfc\include\afx.inl

; 212  : 	{ return (m_nMode & CArchive::load) == 0; }

  00009	8b 4d 08	 mov	 ecx, DWORD PTR _ar$[ebp]
; File C:\Program Files (x86)\Microsoft Visual Studio\2019\Community\VC\Tools\MSVC\14.29.30133\atlmfc\include\afxtempl.h

; 1169 : {

  0000c	56		 push	 esi
  0000d	57		 push	 edi
  0000e	89 5d fc	 mov	 DWORD PTR _this$1$[ebp], ebx
; File C:\Program Files (x86)\Microsoft Visual Studio\2019\Community\VC\Tools\MSVC\14.29.30133\atlmfc\include\afx.inl

; 212  : 	{ return (m_nMode & CArchive::load) == 0; }

  00011	8b 41 18	 mov	 eax, DWORD PTR [ecx+24]
  00014	f7 d0		 not	 eax
  00016	a8 01		 test	 al, 1
; File C:\Program Files (x86)\Microsoft Visual Studio\2019\Community\VC\Tools\MSVC\14.29.30133\atlmfc\include\afxtempl.h

; 1174 : 	if (ar.IsStoring())

  00018	0f 84 ae 00 00
	00		 je	 $LN7@Serialize

; 1175 : 	{
; 1176 : 		ar.WriteCount(m_nCount);

  0001e	ff 73 0c	 push	 DWORD PTR [ebx+12]
  00021	e8 00 00 00 00	 call	 ?WriteCount@CArchive@@QAEXK@Z ; CArchive::WriteCount

; 1177 : 		for (CNode* pNode = m_pNodeHead; pNode != NULL; pNode = pNode->pNext)

  00026	8b 43 04	 mov	 eax, DWORD PTR [ebx+4]
  00029	89 45 f8	 mov	 DWORD PTR _pNode$1$[ebp], eax
  0002c	85 c0		 test	 eax, eax
  0002e	0f 84 ca 01 00
	00		 je	 $LN86@Serialize
$LL4@Serialize:

; 1178 : 		{
; 1179 : 			ASSERT(AfxIsValidAddress(pNode, sizeof(CNode)));
; 1180 : 			TYPE* pData;
; 1181 : 			/*
; 1182 : 			 * in some cases the & operator might be overloaded, and we cannot use it to obtain
; 1183 : 			 * the address of a given object.  We then use the following trick to get the address
; 1184 : 			 */
; 1185 : 			pData = reinterpret_cast< TYPE* >( &reinterpret_cast< int& >( static_cast< TYPE& >( pNode->data ) ) );

  00034	8d 58 08	 lea	 ebx, DWORD PTR [eax+8]

; 68   : 	ENSURE(nCount == 0 || pElements != NULL);

  00037	85 db		 test	 ebx, ebx
  00039	0f 84 d1 01 00
	00		 je	 $LN76@Serialize
; File C:\Program Files (x86)\Microsoft Visual Studio\2019\Community\VC\Tools\MSVC\14.29.30133\atlmfc\include\afx.inl

; 212  : 	{ return (m_nMode & CArchive::load) == 0; }

  0003f	8b 4d 08	 mov	 ecx, DWORD PTR _ar$[ebp]
  00042	8b 41 18	 mov	 eax, DWORD PTR [ecx+24]
  00045	f7 d0		 not	 eax
  00047	a8 01		 test	 al, 1
; File C:\Program Files (x86)\Microsoft Visual Studio\2019\Community\VC\Tools\MSVC\14.29.30133\atlmfc\include\afxtempl.h

; 73   : 	if (ar.IsStoring())

  00049	74 33		 je	 SHORT $LN21@Serialize

; 74   : 	{
; 75   : 		TYPE* pData;
; 76   : 		UINT_PTR nElementsLeft;
; 77   : 
; 78   : 		nElementsLeft = nCount;

  0004b	b8 01 00 00 00	 mov	 eax, 1
  00050	89 45 fc	 mov	 DWORD PTR _nElementsLeft$1$[ebp], eax
$LL16@Serialize:

; 80   : 		while( nElementsLeft > 0 )
; 81   : 		{
; 82   : 			UINT nElementsToWrite;
; 83   : 
; 84   : 			nElementsToWrite = UINT(__min(nElementsLeft, INT_MAX/sizeof(TYPE)));

  00053	bf ff ff ff 0f	 mov	 edi, 268435455		; 0fffffffH
  00058	3b c7		 cmp	 eax, edi
  0005a	0f 42 f8	 cmovb	 edi, eax

; 85   : 			ar.Write(pData, nElementsToWrite*sizeof(TYPE));

  0005d	8d 34 fd 00 00
	00 00		 lea	 esi, DWORD PTR [edi*8]
  00064	56		 push	 esi
  00065	53		 push	 ebx
  00066	e8 00 00 00 00	 call	 ?Write@CArchive@@QAEXPBXI@Z ; CArchive::Write

; 86   : 			nElementsLeft -= nElementsToWrite;

  0006b	8b 45 fc	 mov	 eax, DWORD PTR _nElementsLeft$1$[ebp]

; 87   : 			pData += nElementsToWrite;

  0006e	03 de		 add	 ebx, esi
  00070	8b 4d 08	 mov	 ecx, DWORD PTR _ar$[ebp]
  00073	2b c7		 sub	 eax, edi
  00075	89 45 fc	 mov	 DWORD PTR _nElementsLeft$1$[ebp], eax
  00078	85 c0		 test	 eax, eax
  0007a	75 d7		 jne	 SHORT $LL16@Serialize

; 88   : 		}
; 89   : 	}

  0007c	eb 35		 jmp	 SHORT $LN2@Serialize
$LN21@Serialize:

; 90   : 	else
; 91   : 	{
; 92   : 		TYPE* pData;
; 93   : 		UINT_PTR nElementsLeft;
; 94   : 
; 95   : 		nElementsLeft = nCount;

  0007e	be 01 00 00 00	 mov	 esi, 1
$LL18@Serialize:

; 98   : 		{
; 99   : 			UINT nElementsToRead;
; 100  : 
; 101  : 			nElementsToRead = UINT(__min(nElementsLeft, INT_MAX/sizeof(TYPE)));

  00083	bf ff ff ff 0f	 mov	 edi, 268435455		; 0fffffffH
  00088	3b f7		 cmp	 esi, edi
  0008a	0f 42 fe	 cmovb	 edi, esi

; 102  : 			ar.EnsureRead(pData, nElementsToRead*sizeof(TYPE));

  0008d	8d 04 fd 00 00
	00 00		 lea	 eax, DWORD PTR [edi*8]
; File C:\Program Files (x86)\Microsoft Visual Studio\2019\Community\VC\Tools\MSVC\14.29.30133\atlmfc\include\afx.inl

; 399  : 	UINT nRead=Read(lpBuf, nCount);

  00094	50		 push	 eax
  00095	53		 push	 ebx
  00096	e8 00 00 00 00	 call	 ?Read@CArchive@@QAEIPAXI@Z ; CArchive::Read

; 400  : 	if(nRead!=nCount)

  0009b	8d 0c fd 00 00
	00 00		 lea	 ecx, DWORD PTR [edi*8]
  000a2	3b c1		 cmp	 eax, ecx
  000a4	0f 85 5d 01 00
	00		 jne	 $LN75@Serialize
; File C:\Program Files (x86)\Microsoft Visual Studio\2019\Community\VC\Tools\MSVC\14.29.30133\atlmfc\include\afxtempl.h

; 97   : 		while( nElementsLeft > 0 )

  000aa	03 d9		 add	 ebx, ecx
  000ac	8b 4d 08	 mov	 ecx, DWORD PTR _ar$[ebp]

; 103  : 			nElementsLeft -= nElementsToRead;

  000af	2b f7		 sub	 esi, edi
  000b1	75 d0		 jne	 SHORT $LL18@Serialize
$LN2@Serialize:

; 1177 : 		for (CNode* pNode = m_pNodeHead; pNode != NULL; pNode = pNode->pNext)

  000b3	8b 45 f8	 mov	 eax, DWORD PTR _pNode$1$[ebp]
  000b6	8b 00		 mov	 eax, DWORD PTR [eax]
  000b8	89 45 f8	 mov	 DWORD PTR _pNode$1$[ebp], eax
  000bb	85 c0		 test	 eax, eax
  000bd	0f 85 71 ff ff
	ff		 jne	 $LL4@Serialize

; 1197 : 		}
; 1198 : 	}
; 1199 : }

  000c3	5f		 pop	 edi
  000c4	5e		 pop	 esi
  000c5	5b		 pop	 ebx
  000c6	8b e5		 mov	 esp, ebp
  000c8	5d		 pop	 ebp
  000c9	c2 04 00	 ret	 4
$LN7@Serialize:

; 1186 : 			SerializeElements<TYPE>(ar, pData, 1);
; 1187 : 		}
; 1188 : 	}
; 1189 : 	else
; 1190 : 	{
; 1191 : 		DWORD_PTR nNewCount = ar.ReadCount();

  000cc	e8 00 00 00 00	 call	 ?ReadCount@CArchive@@QAEKXZ ; CArchive::ReadCount

; 1192 : 		while (nNewCount--)

  000d1	85 c0		 test	 eax, eax
  000d3	0f 84 25 01 00
	00		 je	 $LN86@Serialize
  000d9	0f 1f 80 00 00
	00 00		 npad	 7
$LL5@Serialize:
  000e0	48		 dec	 eax
  000e1	89 45 f0	 mov	 DWORD PTR _nNewCount$1$[ebp], eax
; File C:\Program Files (x86)\Microsoft Visual Studio\2019\Community\VC\Tools\MSVC\14.29.30133\atlmfc\include\afx.inl

; 212  : 	{ return (m_nMode & CArchive::load) == 0; }

  000e4	8b 45 08	 mov	 eax, DWORD PTR _ar$[ebp]
  000e7	8b 48 18	 mov	 ecx, DWORD PTR [eax+24]
  000ea	f7 d1		 not	 ecx
  000ec	f6 c1 01	 test	 cl, 1
; File C:\Program Files (x86)\Microsoft Visual Studio\2019\Community\VC\Tools\MSVC\14.29.30133\atlmfc\include\afxtempl.h

; 73   : 	if (ar.IsStoring())

  000ef	74 3d		 je	 SHORT $LN42@Serialize

; 79   : 		pData = pElements;

  000f1	8d 4d e8	 lea	 ecx, DWORD PTR _newData$1[ebp]
  000f4	bb 01 00 00 00	 mov	 ebx, 1
  000f9	89 4d f8	 mov	 DWORD PTR _pData$1$[ebp], ecx
  000fc	0f 1f 40 00	 npad	 4
$LL37@Serialize:

; 80   : 		while( nElementsLeft > 0 )
; 81   : 		{
; 82   : 			UINT nElementsToWrite;
; 83   : 
; 84   : 			nElementsToWrite = UINT(__min(nElementsLeft, INT_MAX/sizeof(TYPE)));

  00100	bf ff ff ff 0f	 mov	 edi, 268435455		; 0fffffffH
  00105	3b df		 cmp	 ebx, edi
  00107	0f 42 fb	 cmovb	 edi, ebx

; 85   : 			ar.Write(pData, nElementsToWrite*sizeof(TYPE));

  0010a	8d 34 fd 00 00
	00 00		 lea	 esi, DWORD PTR [edi*8]
  00111	56		 push	 esi
  00112	51		 push	 ecx
  00113	8b c8		 mov	 ecx, eax
  00115	e8 00 00 00 00	 call	 ?Write@CArchive@@QAEXPBXI@Z ; CArchive::Write

; 87   : 			pData += nElementsToWrite;

  0011a	8b 4d f8	 mov	 ecx, DWORD PTR _pData$1$[ebp]
  0011d	8b 45 08	 mov	 eax, DWORD PTR _ar$[ebp]
  00120	03 ce		 add	 ecx, esi
  00122	89 4d f8	 mov	 DWORD PTR _pData$1$[ebp], ecx
  00125	2b df		 sub	 ebx, edi
  00127	75 d7		 jne	 SHORT $LL37@Serialize

; 88   : 		}
; 89   : 	}

  00129	8b 5d fc	 mov	 ebx, DWORD PTR _this$1$[ebp]
  0012c	eb 4a		 jmp	 SHORT $LN40@Serialize
$LN42@Serialize:

; 96   : 		pData = pElements;

  0012e	8d 55 e8	 lea	 edx, DWORD PTR _newData$1[ebp]
  00131	be 01 00 00 00	 mov	 esi, 1
  00136	89 55 f8	 mov	 DWORD PTR _pData$1$[ebp], edx
  00139	0f 1f 80 00 00
	00 00		 npad	 7
$LL39@Serialize:

; 98   : 		{
; 99   : 			UINT nElementsToRead;
; 100  : 
; 101  : 			nElementsToRead = UINT(__min(nElementsLeft, INT_MAX/sizeof(TYPE)));

  00140	bf ff ff ff 0f	 mov	 edi, 268435455		; 0fffffffH
  00145	3b f7		 cmp	 esi, edi
  00147	0f 42 fe	 cmovb	 edi, esi

; 102  : 			ar.EnsureRead(pData, nElementsToRead*sizeof(TYPE));

  0014a	8d 0c fd 00 00
	00 00		 lea	 ecx, DWORD PTR [edi*8]
; File C:\Program Files (x86)\Microsoft Visual Studio\2019\Community\VC\Tools\MSVC\14.29.30133\atlmfc\include\afx.inl

; 399  : 	UINT nRead=Read(lpBuf, nCount);

  00151	51		 push	 ecx
  00152	52		 push	 edx
  00153	8b c8		 mov	 ecx, eax
  00155	e8 00 00 00 00	 call	 ?Read@CArchive@@QAEIPAXI@Z ; CArchive::Read

; 400  : 	if(nRead!=nCount)

  0015a	8d 0c fd 00 00
	00 00		 lea	 ecx, DWORD PTR [edi*8]
  00161	3b c1		 cmp	 eax, ecx
  00163	0f 85 9e 00 00
	00		 jne	 $LN75@Serialize
; File C:\Program Files (x86)\Microsoft Visual Studio\2019\Community\VC\Tools\MSVC\14.29.30133\atlmfc\include\afxtempl.h

; 97   : 		while( nElementsLeft > 0 )

  00169	8b 55 f8	 mov	 edx, DWORD PTR _pData$1$[ebp]
  0016c	8b 45 08	 mov	 eax, DWORD PTR _ar$[ebp]

; 104  : 			pData += nElementsToRead;

  0016f	03 d1		 add	 edx, ecx
  00171	89 55 f8	 mov	 DWORD PTR _pData$1$[ebp], edx
  00174	2b f7		 sub	 esi, edi
  00176	75 c8		 jne	 SHORT $LL39@Serialize
$LN40@Serialize:

; 902  : 	if (m_pNodeFree == NULL)

  00178	83 7b 10 00	 cmp	 DWORD PTR [ebx+16], 0

; 1193 : 		{
; 1194 : 			TYPE newData[1];
; 1195 : 			SerializeElements<TYPE>(ar, newData, 1);
; 1196 : 			AddTail(newData[0]);

  0017c	f2 0f 10 45 e8	 movsd	 xmm0, QWORD PTR _newData$1[ebp]

; 968  : 	CNode* pNewNode = NewNode(m_pNodeTail, NULL);

  00181	8b 73 08	 mov	 esi, DWORD PTR [ebx+8]

; 1193 : 		{
; 1194 : 			TYPE newData[1];
; 1195 : 			SerializeElements<TYPE>(ar, newData, 1);
; 1196 : 			AddTail(newData[0]);

  00184	f2 0f 11 45 f4	 movsd	 QWORD PTR _newElement$1$[ebp], xmm0

; 902  : 	if (m_pNodeFree == NULL)

  00189	75 3a		 jne	 SHORT $LN63@Serialize

; 903  : 	{
; 904  : 		// add another block
; 905  : 		CPlex* pNewBlock = CPlex::Create(m_pBlocks, m_nBlockSize,

  0018b	6a 10		 push	 16			; 00000010H
  0018d	ff 73 18	 push	 DWORD PTR [ebx+24]
  00190	8d 43 14	 lea	 eax, DWORD PTR [ebx+20]
  00193	50		 push	 eax
  00194	e8 00 00 00 00	 call	 ?Create@CPlex@@SGPAU1@AAPAU1@II@Z ; CPlex::Create

; 906  : 				 sizeof(CNode));
; 907  : 
; 908  : 		// chain them into free list
; 909  : 		CNode* pNode = (CNode*) pNewBlock->data();
; 910  : 		// free in reverse order to make it easier to debug
; 911  : 		pNode += m_nBlockSize - 1;

  00199	8b 53 18	 mov	 edx, DWORD PTR [ebx+24]
  0019c	83 c0 08	 add	 eax, 8
  0019f	8b ca		 mov	 ecx, edx
  001a1	c1 e1 04	 shl	 ecx, 4
  001a4	83 c1 f0	 add	 ecx, -16		; fffffff0H
  001a7	03 c8		 add	 ecx, eax

; 912  : 		for (INT_PTR i = m_nBlockSize-1; i >= 0; i--, pNode--)

  001a9	83 c2 ff	 add	 edx, -1
  001ac	78 12		 js	 SHORT $LN105@Serialize
  001ae	66 90		 npad	 2
$LL60@Serialize:

; 913  : 		{
; 914  : 			pNode->pNext = m_pNodeFree;

  001b0	8b 43 10	 mov	 eax, DWORD PTR [ebx+16]
  001b3	89 01		 mov	 DWORD PTR [ecx], eax

; 915  : 			m_pNodeFree = pNode;

  001b5	89 4b 10	 mov	 DWORD PTR [ebx+16], ecx
  001b8	83 e9 10	 sub	 ecx, 16			; 00000010H
  001bb	83 ea 01	 sub	 edx, 1
  001be	79 f0		 jns	 SHORT $LL60@Serialize
$LN105@Serialize:

; 916  : 		}
; 917  : 	}
; 918  : 	ENSURE(m_pNodeFree != NULL);  // we must have something

  001c0	f2 0f 10 45 f4	 movsd	 xmm0, QWORD PTR _newElement$1$[ebp]
$LN63@Serialize:
  001c5	8b 4b 10	 mov	 ecx, DWORD PTR [ebx+16]
  001c8	85 c9		 test	 ecx, ecx
  001ca	74 44		 je	 SHORT $LN76@Serialize

; 919  : 
; 920  : 	CList::CNode* pNode = m_pNodeFree;
; 921  : 	m_pNodeFree = m_pNodeFree->pNext;

  001cc	8b 01		 mov	 eax, DWORD PTR [ecx]
  001ce	89 43 10	 mov	 DWORD PTR [ebx+16], eax

; 922  : 	pNode->pPrev = pPrev;

  001d1	89 71 04	 mov	 DWORD PTR [ecx+4], esi

; 923  : 	pNode->pNext = pNext;

  001d4	c7 01 00 00 00
	00		 mov	 DWORD PTR [ecx], 0

; 924  : 	m_nCount++;

  001da	ff 43 0c	 inc	 DWORD PTR [ebx+12]

; 969  : 	pNewNode->data = newElement;

  001dd	f2 0f 11 41 08	 movsd	 QWORD PTR [ecx+8], xmm0

; 970  : 	if (m_pNodeTail != NULL)

  001e2	8b 43 08	 mov	 eax, DWORD PTR [ebx+8]
  001e5	85 c0		 test	 eax, eax
  001e7	74 04		 je	 SHORT $LN54@Serialize

; 971  : 		m_pNodeTail->pNext = pNewNode;

  001e9	89 08		 mov	 DWORD PTR [eax], ecx
  001eb	eb 03		 jmp	 SHORT $LN55@Serialize
$LN54@Serialize:

; 972  : 	else
; 973  : 		m_pNodeHead = pNewNode;

  001ed	89 4b 04	 mov	 DWORD PTR [ebx+4], ecx
$LN55@Serialize:

; 1192 : 		while (nNewCount--)

  001f0	8b 45 f0	 mov	 eax, DWORD PTR _nNewCount$1$[ebp]

; 974  : 	m_pNodeTail = pNewNode;

  001f3	89 4b 08	 mov	 DWORD PTR [ebx+8], ecx

; 1192 : 		while (nNewCount--)

  001f6	85 c0		 test	 eax, eax
  001f8	0f 85 e2 fe ff
	ff		 jne	 $LL5@Serialize
$LN86@Serialize:
  001fe	5f		 pop	 edi

; 1197 : 		}
; 1198 : 	}
; 1199 : }

  001ff	5e		 pop	 esi
  00200	5b		 pop	 ebx
  00201	8b e5		 mov	 esp, ebp
  00203	5d		 pop	 ebp
  00204	c2 04 00	 ret	 4
$LN75@Serialize:
  00207	6a 00		 push	 0
  00209	6a 03		 push	 3
  0020b	e8 00 00 00 00	 call	 ?AfxThrowArchiveException@@YGXHPBD@Z ; AfxThrowArchiveException
$LN76@Serialize:
  00210	e8 00 00 00 00	 call	 ?AfxThrowInvalidArgException@@YGXXZ ; AfxThrowInvalidArgException
$LN106@Serialize:
  00215	cc		 int	 3
?Serialize@?$CList@NN@@UAEXAAVCArchive@@@Z ENDP		; CList<double,double>::Serialize
_TEXT	ENDS
; Function compile flags: /Ogtp
; File C:\Program Files (x86)\Microsoft Visual Studio\2019\Community\VC\Tools\MSVC\14.29.30133\atlmfc\include\afxtempl.h
;	COMDAT ??1?$CList@NN@@UAE@XZ
_TEXT	SEGMENT
__$EHRec$ = -12						; size = 12
??1?$CList@NN@@UAE@XZ PROC				; CList<double,double>::~CList<double,double>, COMDAT
; _this$ = ecx

; 878  : {

  00000	55		 push	 ebp
  00001	8b ec		 mov	 ebp, esp
  00003	6a ff		 push	 -1
  00005	68 00 00 00 00	 push	 __ehhandler$??1?$CList@NN@@UAE@XZ
  0000a	64 a1 00 00 00
	00		 mov	 eax, DWORD PTR fs:0
  00010	50		 push	 eax
  00011	56		 push	 esi
  00012	a1 00 00 00 00	 mov	 eax, DWORD PTR ___security_cookie
  00017	33 c5		 xor	 eax, ebp
  00019	50		 push	 eax
  0001a	8d 45 f4	 lea	 eax, DWORD PTR __$EHRec$[ebp]
  0001d	64 a3 00 00 00
	00		 mov	 DWORD PTR fs:0, eax
  00023	8b f1		 mov	 esi, ecx

; 872  : 	m_pBlocks->FreeDataChain();

  00025	8b 4e 14	 mov	 ecx, DWORD PTR [esi+20]

; 878  : {

  00028	c7 06 00 00 00
	00		 mov	 DWORD PTR [esi], OFFSET ??_7?$CList@NN@@6B@

; 870  : 	m_nCount = 0;

  0002e	c7 46 0c 00 00
	00 00		 mov	 DWORD PTR [esi+12], 0

; 871  : 	m_pNodeHead = m_pNodeTail = m_pNodeFree = NULL;

  00035	c7 46 10 00 00
	00 00		 mov	 DWORD PTR [esi+16], 0
  0003c	c7 46 08 00 00
	00 00		 mov	 DWORD PTR [esi+8], 0
  00043	c7 46 04 00 00
	00 00		 mov	 DWORD PTR [esi+4], 0

; 872  : 	m_pBlocks->FreeDataChain();

  0004a	e8 00 00 00 00	 call	 ?FreeDataChain@CPlex@@QAEXXZ ; CPlex::FreeDataChain

; 873  : 	m_pBlocks = NULL;

  0004f	c7 46 14 00 00
	00 00		 mov	 DWORD PTR [esi+20], 0

; 879  : 	RemoveAll();
; 880  : 	ASSERT(m_nCount == 0);
; 881  : }

  00056	8b 4d f4	 mov	 ecx, DWORD PTR __$EHRec$[ebp]
  00059	64 89 0d 00 00
	00 00		 mov	 DWORD PTR fs:0, ecx
  00060	59		 pop	 ecx
  00061	5e		 pop	 esi
  00062	8b e5		 mov	 esp, ebp
  00064	5d		 pop	 ebp
  00065	c3		 ret	 0
  00066	cc		 int	 3
  00067	cc		 int	 3
  00068	cc		 int	 3
  00069	cc		 int	 3
  0006a	cc		 int	 3
_TEXT	ENDS
;	COMDAT text$x
text$x	SEGMENT
__ehhandler$??1?$CList@NN@@UAE@XZ:
  00000	90		 npad	 1
  00001	90		 npad	 1
  00002	8b 54 24 08	 mov	 edx, DWORD PTR [esp+8]
  00006	8d 42 0c	 lea	 eax, DWORD PTR [edx+12]
  00009	8b 4a f8	 mov	 ecx, DWORD PTR [edx-8]
  0000c	33 c8		 xor	 ecx, eax
  0000e	e8 00 00 00 00	 call	 @__security_check_cookie@4
  00013	b8 00 00 00 00	 mov	 eax, OFFSET __ehfuncinfo$??1?$CList@NN@@UAE@XZ
  00018	e9 00 00 00 00	 jmp	 ___CxxFrameHandler3
text$x	ENDS
??1?$CList@NN@@UAE@XZ ENDP				; CList<double,double>::~CList<double,double>
; Function compile flags: /Ogtp
; File C:\Program Files (x86)\Microsoft Visual Studio\2019\Community\VC\Tools\MSVC\14.29.30133\atlmfc\include\afxtempl.h
;	COMDAT ?FreeNode@?$CList@NN@@IAEXPAUCNode@1@@Z
_TEXT	SEGMENT
_pNode$ = 8						; size = 4
?FreeNode@?$CList@NN@@IAEXPAUCNode@1@@Z PROC		; CList<double,double>::FreeNode, COMDAT
; _this$ = ecx

; 936  : {

  00000	55		 push	 ebp
  00001	8b ec		 mov	 ebp, esp

; 937  : 	pNode->data.~TYPE();
; 938  : 	pNode->pNext = m_pNodeFree;

  00003	8b 55 08	 mov	 edx, DWORD PTR _pNode$[ebp]
  00006	56		 push	 esi
  00007	8b f1		 mov	 esi, ecx
  00009	8b 46 10	 mov	 eax, DWORD PTR [esi+16]
  0000c	89 02		 mov	 DWORD PTR [edx], eax

; 939  : 	m_pNodeFree = pNode;
; 940  : 	m_nCount--;

  0000e	83 46 0c ff	 add	 DWORD PTR [esi+12], -1
  00012	89 56 10	 mov	 DWORD PTR [esi+16], edx

; 941  : 	ASSERT(m_nCount >= 0);  // make sure we don't underflow
; 942  : 
; 943  : 	// if no more elements, cleanup completely
; 944  : 	if (m_nCount == 0)

  00015	75 2b		 jne	 SHORT $LN2@FreeNode

; 872  : 	m_pBlocks->FreeDataChain();

  00017	8b 4e 14	 mov	 ecx, DWORD PTR [esi+20]
  0001a	c7 46 0c 00 00
	00 00		 mov	 DWORD PTR [esi+12], 0
  00021	c7 46 10 00 00
	00 00		 mov	 DWORD PTR [esi+16], 0
  00028	c7 46 08 00 00
	00 00		 mov	 DWORD PTR [esi+8], 0
  0002f	c7 46 04 00 00
	00 00		 mov	 DWORD PTR [esi+4], 0
  00036	e8 00 00 00 00	 call	 ?FreeDataChain@CPlex@@QAEXXZ ; CPlex::FreeDataChain

; 873  : 	m_pBlocks = NULL;

  0003b	c7 46 14 00 00
	00 00		 mov	 DWORD PTR [esi+20], 0
$LN2@FreeNode:
  00042	5e		 pop	 esi

; 945  : 		RemoveAll();
; 946  : }

  00043	5d		 pop	 ebp
  00044	c2 04 00	 ret	 4
?FreeNode@?$CList@NN@@IAEXPAUCNode@1@@Z ENDP		; CList<double,double>::FreeNode
_TEXT	ENDS
; Function compile flags: /Ogtp
; File C:\Program Files (x86)\Microsoft Visual Studio\2019\Community\VC\Tools\MSVC\14.29.30133\atlmfc\include\afxtempl.h
;	COMDAT ?NewNode@?$CList@NN@@IAEPAUCNode@1@PAU21@0@Z
_TEXT	SEGMENT
_pPrev$ = 8						; size = 4
_pNext$ = 12						; size = 4
?NewNode@?$CList@NN@@IAEPAUCNode@1@PAU21@0@Z PROC	; CList<double,double>::NewNode, COMDAT
; _this$ = ecx

; 901  : {

  00000	55		 push	 ebp
  00001	8b ec		 mov	 ebp, esp
  00003	56		 push	 esi
  00004	8b f1		 mov	 esi, ecx

; 902  : 	if (m_pNodeFree == NULL)

  00006	83 7e 10 00	 cmp	 DWORD PTR [esi+16], 0
  0000a	75 34		 jne	 SHORT $LN7@NewNode

; 903  : 	{
; 904  : 		// add another block
; 905  : 		CPlex* pNewBlock = CPlex::Create(m_pBlocks, m_nBlockSize,

  0000c	6a 10		 push	 16			; 00000010H
  0000e	ff 76 18	 push	 DWORD PTR [esi+24]
  00011	8d 46 14	 lea	 eax, DWORD PTR [esi+20]
  00014	50		 push	 eax
  00015	e8 00 00 00 00	 call	 ?Create@CPlex@@SGPAU1@AAPAU1@II@Z ; CPlex::Create

; 906  : 				 sizeof(CNode));
; 907  : 
; 908  : 		// chain them into free list
; 909  : 		CNode* pNode = (CNode*) pNewBlock->data();
; 910  : 		// free in reverse order to make it easier to debug
; 911  : 		pNode += m_nBlockSize - 1;

  0001a	8b 56 18	 mov	 edx, DWORD PTR [esi+24]
  0001d	83 c0 08	 add	 eax, 8
  00020	8b ca		 mov	 ecx, edx
  00022	c1 e1 04	 shl	 ecx, 4
  00025	83 c1 f0	 add	 ecx, -16		; fffffff0H
  00028	03 c1		 add	 eax, ecx

; 912  : 		for (INT_PTR i = m_nBlockSize-1; i >= 0; i--, pNode--)

  0002a	83 c2 ff	 add	 edx, -1
  0002d	78 11		 js	 SHORT $LN7@NewNode
  0002f	90		 npad	 1
$LL4@NewNode:

; 913  : 		{
; 914  : 			pNode->pNext = m_pNodeFree;

  00030	8b 4e 10	 mov	 ecx, DWORD PTR [esi+16]
  00033	89 08		 mov	 DWORD PTR [eax], ecx

; 915  : 			m_pNodeFree = pNode;

  00035	89 46 10	 mov	 DWORD PTR [esi+16], eax
  00038	83 e8 10	 sub	 eax, 16			; 00000010H
  0003b	83 ea 01	 sub	 edx, 1
  0003e	79 f0		 jns	 SHORT $LL4@NewNode
$LN7@NewNode:

; 916  : 		}
; 917  : 	}
; 918  : 	ENSURE(m_pNodeFree != NULL);  // we must have something

  00040	8b 46 10	 mov	 eax, DWORD PTR [esi+16]
  00043	85 c0		 test	 eax, eax
  00045	74 18		 je	 SHORT $LN17@NewNode

; 919  : 
; 920  : 	CList::CNode* pNode = m_pNodeFree;
; 921  : 	m_pNodeFree = m_pNodeFree->pNext;

  00047	8b 08		 mov	 ecx, DWORD PTR [eax]
  00049	89 4e 10	 mov	 DWORD PTR [esi+16], ecx

; 922  : 	pNode->pPrev = pPrev;

  0004c	8b 4d 08	 mov	 ecx, DWORD PTR _pPrev$[ebp]
  0004f	89 48 04	 mov	 DWORD PTR [eax+4], ecx

; 923  : 	pNode->pNext = pNext;

  00052	8b 4d 0c	 mov	 ecx, DWORD PTR _pNext$[ebp]
  00055	89 08		 mov	 DWORD PTR [eax], ecx

; 924  : 	m_nCount++;

  00057	ff 46 0c	 inc	 DWORD PTR [esi+12]

; 925  : 	ASSERT(m_nCount > 0);  // make sure we don't overflow
; 926  : 
; 927  : #pragma push_macro("new")
; 928  : #undef new
; 929  : 	::new( (void*)( &pNode->data ) ) TYPE;
; 930  : #pragma pop_macro("new")
; 931  : 	return pNode;

  0005a	5e		 pop	 esi

; 932  : }

  0005b	5d		 pop	 ebp
  0005c	c2 08 00	 ret	 8
$LN17@NewNode:

; 916  : 		}
; 917  : 	}
; 918  : 	ENSURE(m_pNodeFree != NULL);  // we must have something

  0005f	e8 00 00 00 00	 call	 ?AfxThrowInvalidArgException@@YGXXZ ; AfxThrowInvalidArgException
$LN15@NewNode:
  00064	cc		 int	 3
?NewNode@?$CList@NN@@IAEPAUCNode@1@PAU21@0@Z ENDP	; CList<double,double>::NewNode
_TEXT	ENDS
; Function compile flags: /Ogtp
; File C:\Program Files (x86)\Microsoft Visual Studio\2019\Community\VC\Tools\MSVC\14.29.30133\atlmfc\include\afxtempl.h
;	COMDAT ?FindIndex@?$CList@NN@@QBEPAU__POSITION@@H@Z
_TEXT	SEGMENT
_nIndex$ = 8						; size = 4
?FindIndex@?$CList@NN@@QBEPAU__POSITION@@H@Z PROC	; CList<double,double>::FindIndex, COMDAT
; _this$ = ecx

; 1130 : {

  00000	55		 push	 ebp
  00001	8b ec		 mov	 ebp, esp

; 1131 : 	ASSERT_VALID(this);
; 1132 : 
; 1133 : 	if (nIndex >= m_nCount || nIndex < 0)

  00003	8b 55 08	 mov	 edx, DWORD PTR _nIndex$[ebp]
  00006	3b 51 0c	 cmp	 edx, DWORD PTR [ecx+12]
  00009	7d 14		 jge	 SHORT $LN5@FindIndex
  0000b	85 d2		 test	 edx, edx
  0000d	78 10		 js	 SHORT $LN5@FindIndex

; 1135 : 
; 1136 : 	CNode* pNode = m_pNodeHead;

  0000f	8b 41 04	 mov	 eax, DWORD PTR [ecx+4]

; 1137 : 	while (nIndex--)

  00012	74 0d		 je	 SHORT $LN1@FindIndex
$LL2@FindIndex:

; 1138 : 	{
; 1139 : 		ASSERT(AfxIsValidAddress(pNode, sizeof(CNode)));
; 1140 : 		pNode = pNode->pNext;

  00014	8b 00		 mov	 eax, DWORD PTR [eax]
  00016	83 ea 01	 sub	 edx, 1
  00019	75 f9		 jne	 SHORT $LL2@FindIndex

; 1141 : 	}
; 1142 : 	return (POSITION) pNode;
; 1143 : }

  0001b	5d		 pop	 ebp
  0001c	c2 04 00	 ret	 4
$LN5@FindIndex:

; 1134 : 		return NULL;  // went too far

  0001f	33 c0		 xor	 eax, eax
$LN1@FindIndex:

; 1141 : 	}
; 1142 : 	return (POSITION) pNode;
; 1143 : }

  00021	5d		 pop	 ebp
  00022	c2 04 00	 ret	 4
?FindIndex@?$CList@NN@@QBEPAU__POSITION@@H@Z ENDP	; CList<double,double>::FindIndex
_TEXT	ENDS
; Function compile flags: /Ogtp
; File C:\Program Files (x86)\Microsoft Visual Studio\2019\Community\VC\Tools\MSVC\14.29.30133\atlmfc\include\afxtempl.h
;	COMDAT ?InsertBefore@?$CList@NN@@QAEPAU__POSITION@@PAU2@N@Z
_TEXT	SEGMENT
_position$ = 8						; size = 4
_newElement$ = 12					; size = 8
?InsertBefore@?$CList@NN@@QAEPAU__POSITION@@PAU2@N@Z PROC ; CList<double,double>::InsertBefore, COMDAT
; _this$ = ecx

; 1045 : {

  00000	55		 push	 ebp
  00001	8b ec		 mov	 ebp, esp
  00003	56		 push	 esi
  00004	57		 push	 edi

; 1046 : 	ASSERT_VALID(this);
; 1047 : 
; 1048 : 	if (position == NULL)

  00005	8b 7d 08	 mov	 edi, DWORD PTR _position$[ebp]
  00008	8b f1		 mov	 esi, ecx
  0000a	85 ff		 test	 edi, edi
  0000c	75 32		 jne	 SHORT $LN2@InsertBefo

; 953  : 	CNode* pNewNode = NewNode(NULL, m_pNodeHead);

  0000e	ff 76 04	 push	 DWORD PTR [esi+4]
  00011	57		 push	 edi
  00012	e8 00 00 00 00	 call	 ?NewNode@?$CList@NN@@IAEPAUCNode@1@PAU21@0@Z ; CList<double,double>::NewNode

; 954  : 	pNewNode->data = newElement;

  00017	f2 0f 10 45 0c	 movsd	 xmm0, QWORD PTR _newElement$[ebp]
  0001c	f2 0f 11 40 08	 movsd	 QWORD PTR [eax+8], xmm0

; 955  : 	if (m_pNodeHead != NULL)

  00021	8b 4e 04	 mov	 ecx, DWORD PTR [esi+4]
  00024	85 c9		 test	 ecx, ecx
  00026	74 0c		 je	 SHORT $LN7@InsertBefo

; 956  : 		m_pNodeHead->pPrev = pNewNode;

  00028	89 41 04	 mov	 DWORD PTR [ecx+4], eax
  0002b	5f		 pop	 edi

; 959  : 	m_pNodeHead = pNewNode;

  0002c	89 46 04	 mov	 DWORD PTR [esi+4], eax

; 1067 : 	return (POSITION) pNewNode;
; 1068 : }

  0002f	5e		 pop	 esi
  00030	5d		 pop	 ebp
  00031	c2 0c 00	 ret	 12			; 0000000cH
$LN7@InsertBefo:
  00034	5f		 pop	 edi

; 958  : 		m_pNodeTail = pNewNode;

  00035	89 46 08	 mov	 DWORD PTR [esi+8], eax

; 959  : 	m_pNodeHead = pNewNode;

  00038	89 46 04	 mov	 DWORD PTR [esi+4], eax

; 1067 : 	return (POSITION) pNewNode;
; 1068 : }

  0003b	5e		 pop	 esi
  0003c	5d		 pop	 ebp
  0003d	c2 0c 00	 ret	 12			; 0000000cH
$LN2@InsertBefo:

; 1049 : 		return AddHead(newElement); // insert before nothing -> head of the list
; 1050 : 
; 1051 : 	// Insert it before position
; 1052 : 	CNode* pOldNode = (CNode*) position;
; 1053 : 	CNode* pNewNode = NewNode(pOldNode->pPrev, pOldNode);

  00040	57		 push	 edi
  00041	ff 77 04	 push	 DWORD PTR [edi+4]
  00044	e8 00 00 00 00	 call	 ?NewNode@?$CList@NN@@IAEPAUCNode@1@PAU21@0@Z ; CList<double,double>::NewNode

; 1054 : 	pNewNode->data = newElement;

  00049	f2 0f 10 45 0c	 movsd	 xmm0, QWORD PTR _newElement$[ebp]
  0004e	f2 0f 11 40 08	 movsd	 QWORD PTR [eax+8], xmm0

; 1055 : 
; 1056 : 	if (pOldNode->pPrev != NULL)

  00053	8b 4f 04	 mov	 ecx, DWORD PTR [edi+4]
  00056	85 c9		 test	 ecx, ecx
  00058	74 0b		 je	 SHORT $LN3@InsertBefo

; 1057 : 	{
; 1058 : 		ASSERT(AfxIsValidAddress(pOldNode->pPrev, sizeof(CNode)));
; 1059 : 		pOldNode->pPrev->pNext = pNewNode;

  0005a	89 01		 mov	 DWORD PTR [ecx], eax

; 1065 : 	}
; 1066 : 	pOldNode->pPrev = pNewNode;

  0005c	89 47 04	 mov	 DWORD PTR [edi+4], eax
  0005f	5f		 pop	 edi

; 1067 : 	return (POSITION) pNewNode;
; 1068 : }

  00060	5e		 pop	 esi
  00061	5d		 pop	 ebp
  00062	c2 0c 00	 ret	 12			; 0000000cH
$LN3@InsertBefo:

; 1060 : 	}
; 1061 : 	else
; 1062 : 	{
; 1063 : 		ASSERT(pOldNode == m_pNodeHead);
; 1064 : 		m_pNodeHead = pNewNode;

  00065	89 46 04	 mov	 DWORD PTR [esi+4], eax

; 1065 : 	}
; 1066 : 	pOldNode->pPrev = pNewNode;

  00068	89 47 04	 mov	 DWORD PTR [edi+4], eax
  0006b	5f		 pop	 edi

; 1067 : 	return (POSITION) pNewNode;
; 1068 : }

  0006c	5e		 pop	 esi
  0006d	5d		 pop	 ebp
  0006e	c2 0c 00	 ret	 12			; 0000000cH
?InsertBefore@?$CList@NN@@QAEPAU__POSITION@@PAU2@N@Z ENDP ; CList<double,double>::InsertBefore
_TEXT	ENDS
; Function compile flags: /Ogtp
; File C:\Program Files (x86)\Microsoft Visual Studio\2019\Community\VC\Tools\MSVC\14.29.30133\atlmfc\include\afxtempl.h
;	COMDAT ?RemoveAt@?$CList@NN@@QAEXPAU__POSITION@@@Z
_TEXT	SEGMENT
_position$ = 8						; size = 4
?RemoveAt@?$CList@NN@@QAEXPAU__POSITION@@@Z PROC	; CList<double,double>::RemoveAt, COMDAT
; _this$ = ecx

; 1100 : {

  00000	55		 push	 ebp
  00001	8b ec		 mov	 ebp, esp
  00003	56		 push	 esi
  00004	8b f1		 mov	 esi, ecx

; 1101 : 	ASSERT_VALID(this);
; 1102 : 
; 1103 : 	CNode* pOldNode = (CNode*) position;
; 1104 : 	ASSERT(AfxIsValidAddress(pOldNode, sizeof(CNode)));
; 1105 : 
; 1106 : 	// remove pOldNode from list
; 1107 : 	if (pOldNode == m_pNodeHead)

  00006	8b 4d 08	 mov	 ecx, DWORD PTR _position$[ebp]
  00009	8b 11		 mov	 edx, DWORD PTR [ecx]
  0000b	3b 4e 04	 cmp	 ecx, DWORD PTR [esi+4]
  0000e	75 05		 jne	 SHORT $LN2@RemoveAt

; 1108 : 	{
; 1109 : 		m_pNodeHead = pOldNode->pNext;

  00010	89 56 04	 mov	 DWORD PTR [esi+4], edx

; 1110 : 	}

  00013	eb 05		 jmp	 SHORT $LN3@RemoveAt
$LN2@RemoveAt:

; 1111 : 	else
; 1112 : 	{
; 1113 : 		ASSERT(AfxIsValidAddress(pOldNode->pPrev, sizeof(CNode)));
; 1114 : 		pOldNode->pPrev->pNext = pOldNode->pNext;

  00015	8b 41 04	 mov	 eax, DWORD PTR [ecx+4]
  00018	89 10		 mov	 DWORD PTR [eax], edx
$LN3@RemoveAt:

; 1115 : 	}
; 1116 : 	if (pOldNode == m_pNodeTail)

  0001a	8b 51 04	 mov	 edx, DWORD PTR [ecx+4]
  0001d	3b 4e 08	 cmp	 ecx, DWORD PTR [esi+8]
  00020	75 05		 jne	 SHORT $LN4@RemoveAt

; 1117 : 	{
; 1118 : 		m_pNodeTail = pOldNode->pPrev;

  00022	89 56 08	 mov	 DWORD PTR [esi+8], edx

; 1119 : 	}

  00025	eb 05		 jmp	 SHORT $LN5@RemoveAt
$LN4@RemoveAt:

; 1120 : 	else
; 1121 : 	{
; 1122 : 		ASSERT(AfxIsValidAddress(pOldNode->pNext, sizeof(CNode)));
; 1123 : 		pOldNode->pNext->pPrev = pOldNode->pPrev;

  00027	8b 01		 mov	 eax, DWORD PTR [ecx]
  00029	89 50 04	 mov	 DWORD PTR [eax+4], edx
$LN5@RemoveAt:

; 938  : 	pNode->pNext = m_pNodeFree;

  0002c	8b 46 10	 mov	 eax, DWORD PTR [esi+16]
  0002f	89 01		 mov	 DWORD PTR [ecx], eax

; 939  : 	m_pNodeFree = pNode;
; 940  : 	m_nCount--;

  00031	83 46 0c ff	 add	 DWORD PTR [esi+12], -1
  00035	89 4e 10	 mov	 DWORD PTR [esi+16], ecx

; 941  : 	ASSERT(m_nCount >= 0);  // make sure we don't underflow
; 942  : 
; 943  : 	// if no more elements, cleanup completely
; 944  : 	if (m_nCount == 0)

  00038	75 2b		 jne	 SHORT $LN8@RemoveAt

; 872  : 	m_pBlocks->FreeDataChain();

  0003a	8b 4e 14	 mov	 ecx, DWORD PTR [esi+20]
  0003d	c7 46 0c 00 00
	00 00		 mov	 DWORD PTR [esi+12], 0
  00044	c7 46 10 00 00
	00 00		 mov	 DWORD PTR [esi+16], 0
  0004b	c7 46 08 00 00
	00 00		 mov	 DWORD PTR [esi+8], 0
  00052	c7 46 04 00 00
	00 00		 mov	 DWORD PTR [esi+4], 0
  00059	e8 00 00 00 00	 call	 ?FreeDataChain@CPlex@@QAEXXZ ; CPlex::FreeDataChain

; 873  : 	m_pBlocks = NULL;

  0005e	c7 46 14 00 00
	00 00		 mov	 DWORD PTR [esi+20], 0
$LN8@RemoveAt:
  00065	5e		 pop	 esi

; 1124 : 	}
; 1125 : 	FreeNode(pOldNode);
; 1126 : }

  00066	5d		 pop	 ebp
  00067	c2 04 00	 ret	 4
?RemoveAt@?$CList@NN@@QAEXPAU__POSITION@@@Z ENDP	; CList<double,double>::RemoveAt
_TEXT	ENDS
; Function compile flags: /Ogtp
; File C:\Program Files (x86)\Microsoft Visual Studio\2019\Community\VC\Tools\MSVC\14.29.30133\atlmfc\include\afxtempl.h
;	COMDAT ?RemoveAll@?$CList@NN@@QAEXXZ
_TEXT	SEGMENT
?RemoveAll@?$CList@NN@@QAEXXZ PROC			; CList<double,double>::RemoveAll, COMDAT
; _this$ = ecx

; 862  : {

  00000	56		 push	 esi
  00001	8b f1		 mov	 esi, ecx

; 863  : 	ASSERT_VALID(this);
; 864  : 
; 865  : 	// destroy elements
; 866  : 	CNode* pNode;
; 867  : 	for (pNode = m_pNodeHead; pNode != NULL; pNode = pNode->pNext)
; 868  : 		pNode->data.~TYPE();
; 869  : 
; 870  : 	m_nCount = 0;
; 871  : 	m_pNodeHead = m_pNodeTail = m_pNodeFree = NULL;
; 872  : 	m_pBlocks->FreeDataChain();

  00003	8b 4e 14	 mov	 ecx, DWORD PTR [esi+20]
  00006	c7 46 0c 00 00
	00 00		 mov	 DWORD PTR [esi+12], 0
  0000d	c7 46 10 00 00
	00 00		 mov	 DWORD PTR [esi+16], 0
  00014	c7 46 08 00 00
	00 00		 mov	 DWORD PTR [esi+8], 0
  0001b	c7 46 04 00 00
	00 00		 mov	 DWORD PTR [esi+4], 0
  00022	e8 00 00 00 00	 call	 ?FreeDataChain@CPlex@@QAEXXZ ; CPlex::FreeDataChain

; 873  : 	m_pBlocks = NULL;

  00027	c7 46 14 00 00
	00 00		 mov	 DWORD PTR [esi+20], 0
  0002e	5e		 pop	 esi

; 874  : }

  0002f	c3		 ret	 0
?RemoveAll@?$CList@NN@@QAEXXZ ENDP			; CList<double,double>::RemoveAll
_TEXT	ENDS
; Function compile flags: /Ogtp
; File C:\Program Files (x86)\Microsoft Visual Studio\2019\Community\VC\Tools\MSVC\14.29.30133\atlmfc\include\afxtempl.h
;	COMDAT ?AddTail@?$CList@NN@@QAEPAU__POSITION@@N@Z
_TEXT	SEGMENT
_newElement$ = 8					; size = 8
?AddTail@?$CList@NN@@QAEPAU__POSITION@@N@Z PROC		; CList<double,double>::AddTail, COMDAT
; _this$ = ecx

; 965  : {

  00000	55		 push	 ebp
  00001	8b ec		 mov	 ebp, esp
  00003	56		 push	 esi
  00004	8b f1		 mov	 esi, ecx

; 966  : 	ASSERT_VALID(this);
; 967  : 
; 968  : 	CNode* pNewNode = NewNode(m_pNodeTail, NULL);

  00006	6a 00		 push	 0
  00008	ff 76 08	 push	 DWORD PTR [esi+8]
  0000b	e8 00 00 00 00	 call	 ?NewNode@?$CList@NN@@IAEPAUCNode@1@PAU21@0@Z ; CList<double,double>::NewNode

; 969  : 	pNewNode->data = newElement;

  00010	f2 0f 10 45 08	 movsd	 xmm0, QWORD PTR _newElement$[ebp]
  00015	f2 0f 11 40 08	 movsd	 QWORD PTR [eax+8], xmm0

; 970  : 	if (m_pNodeTail != NULL)

  0001a	8b 4e 08	 mov	 ecx, DWORD PTR [esi+8]
  0001d	85 c9		 test	 ecx, ecx
  0001f	74 0a		 je	 SHORT $LN2@AddTail

; 971  : 		m_pNodeTail->pNext = pNewNode;

  00021	89 01		 mov	 DWORD PTR [ecx], eax

; 974  : 	m_pNodeTail = pNewNode;
; 975  : 	return (POSITION) pNewNode;
; 976  : }

  00023	89 46 08	 mov	 DWORD PTR [esi+8], eax
  00026	5e		 pop	 esi
  00027	5d		 pop	 ebp
  00028	c2 08 00	 ret	 8
$LN2@AddTail:

; 972  : 	else
; 973  : 		m_pNodeHead = pNewNode;

  0002b	89 46 04	 mov	 DWORD PTR [esi+4], eax

; 974  : 	m_pNodeTail = pNewNode;
; 975  : 	return (POSITION) pNewNode;
; 976  : }

  0002e	89 46 08	 mov	 DWORD PTR [esi+8], eax
  00031	5e		 pop	 esi
  00032	5d		 pop	 ebp
  00033	c2 08 00	 ret	 8
?AddTail@?$CList@NN@@QAEPAU__POSITION@@N@Z ENDP		; CList<double,double>::AddTail
_TEXT	ENDS
; Function compile flags: /Ogtp
; File C:\Program Files (x86)\Microsoft Visual Studio\2019\Community\VC\Tools\MSVC\14.29.30133\atlmfc\include\afxtempl.h
;	COMDAT ?AddHead@?$CList@NN@@QAEPAU__POSITION@@N@Z
_TEXT	SEGMENT
_newElement$ = 8					; size = 8
?AddHead@?$CList@NN@@QAEPAU__POSITION@@N@Z PROC		; CList<double,double>::AddHead, COMDAT
; _this$ = ecx

; 950  : {

  00000	55		 push	 ebp
  00001	8b ec		 mov	 ebp, esp
  00003	56		 push	 esi
  00004	8b f1		 mov	 esi, ecx

; 951  : 	ASSERT_VALID(this);
; 952  : 
; 953  : 	CNode* pNewNode = NewNode(NULL, m_pNodeHead);

  00006	ff 76 04	 push	 DWORD PTR [esi+4]
  00009	6a 00		 push	 0
  0000b	e8 00 00 00 00	 call	 ?NewNode@?$CList@NN@@IAEPAUCNode@1@PAU21@0@Z ; CList<double,double>::NewNode

; 954  : 	pNewNode->data = newElement;

  00010	f2 0f 10 45 08	 movsd	 xmm0, QWORD PTR _newElement$[ebp]
  00015	f2 0f 11 40 08	 movsd	 QWORD PTR [eax+8], xmm0

; 955  : 	if (m_pNodeHead != NULL)

  0001a	8b 4e 04	 mov	 ecx, DWORD PTR [esi+4]
  0001d	85 c9		 test	 ecx, ecx
  0001f	74 0b		 je	 SHORT $LN2@AddHead

; 956  : 		m_pNodeHead->pPrev = pNewNode;

  00021	89 41 04	 mov	 DWORD PTR [ecx+4], eax

; 959  : 	m_pNodeHead = pNewNode;
; 960  : 	return (POSITION) pNewNode;
; 961  : }

  00024	89 46 04	 mov	 DWORD PTR [esi+4], eax
  00027	5e		 pop	 esi
  00028	5d		 pop	 ebp
  00029	c2 08 00	 ret	 8
$LN2@AddHead:

; 957  : 	else
; 958  : 		m_pNodeTail = pNewNode;

  0002c	89 46 08	 mov	 DWORD PTR [esi+8], eax

; 959  : 	m_pNodeHead = pNewNode;
; 960  : 	return (POSITION) pNewNode;
; 961  : }

  0002f	89 46 04	 mov	 DWORD PTR [esi+4], eax
  00032	5e		 pop	 esi
  00033	5d		 pop	 ebp
  00034	c2 08 00	 ret	 8
?AddHead@?$CList@NN@@QAEPAU__POSITION@@N@Z ENDP		; CList<double,double>::AddHead
_TEXT	ENDS
; Function compile flags: /Ogtp
; File C:\Program Files (x86)\Microsoft Visual Studio\2019\Community\VC\Tools\MSVC\14.29.30133\atlmfc\include\afxtempl.h
;	COMDAT ?RemoveHead@?$CList@NN@@QAENXZ
_TEXT	SEGMENT
_returnValue$ = -8					; size = 8
?RemoveHead@?$CList@NN@@QAENXZ PROC			; CList<double,double>::RemoveHead, COMDAT
; _this$ = ecx

; 1007 : {

  00000	55		 push	 ebp
  00001	8b ec		 mov	 ebp, esp
  00003	83 ec 08	 sub	 esp, 8
  00006	56		 push	 esi
  00007	8b f1		 mov	 esi, ecx

; 1008 : 	ASSERT_VALID(this);
; 1009 : 	ENSURE(m_pNodeHead != NULL);  // don't call on empty list !!!

  00009	8b 4e 04	 mov	 ecx, DWORD PTR [esi+4]
  0000c	85 c9		 test	 ecx, ecx
  0000e	74 64		 je	 SHORT $LN24@RemoveHead

; 1010 : 	ASSERT(AfxIsValidAddress(m_pNodeHead, sizeof(CNode)));
; 1011 : 
; 1012 : 	CNode* pOldNode = m_pNodeHead;
; 1013 : 	TYPE returnValue = pOldNode->data;

  00010	f2 0f 10 41 08	 movsd	 xmm0, QWORD PTR [ecx+8]

; 1014 : 
; 1015 : 	m_pNodeHead = pOldNode->pNext;

  00015	8b 01		 mov	 eax, DWORD PTR [ecx]
  00017	f2 0f 11 45 f8	 movsd	 QWORD PTR _returnValue$[ebp], xmm0
  0001c	89 46 04	 mov	 DWORD PTR [esi+4], eax

; 1016 : 	if (m_pNodeHead != NULL)

  0001f	85 c0		 test	 eax, eax
  00021	74 09		 je	 SHORT $LN6@RemoveHead

; 1017 : 		m_pNodeHead->pPrev = NULL;

  00023	c7 40 04 00 00
	00 00		 mov	 DWORD PTR [eax+4], 0
  0002a	eb 07		 jmp	 SHORT $LN7@RemoveHead
$LN6@RemoveHead:

; 1018 : 	else
; 1019 : 		m_pNodeTail = NULL;

  0002c	c7 46 08 00 00
	00 00		 mov	 DWORD PTR [esi+8], 0
$LN7@RemoveHead:

; 938  : 	pNode->pNext = m_pNodeFree;

  00033	8b 46 10	 mov	 eax, DWORD PTR [esi+16]
  00036	89 01		 mov	 DWORD PTR [ecx], eax

; 939  : 	m_pNodeFree = pNode;
; 940  : 	m_nCount--;

  00038	83 46 0c ff	 add	 DWORD PTR [esi+12], -1
  0003c	89 4e 10	 mov	 DWORD PTR [esi+16], ecx

; 941  : 	ASSERT(m_nCount >= 0);  // make sure we don't underflow
; 942  : 
; 943  : 	// if no more elements, cleanup completely
; 944  : 	if (m_nCount == 0)

  0003f	75 2b		 jne	 SHORT $LN10@RemoveHead

; 872  : 	m_pBlocks->FreeDataChain();

  00041	8b 4e 14	 mov	 ecx, DWORD PTR [esi+20]
  00044	c7 46 0c 00 00
	00 00		 mov	 DWORD PTR [esi+12], 0
  0004b	c7 46 10 00 00
	00 00		 mov	 DWORD PTR [esi+16], 0
  00052	c7 46 08 00 00
	00 00		 mov	 DWORD PTR [esi+8], 0
  00059	c7 46 04 00 00
	00 00		 mov	 DWORD PTR [esi+4], 0
  00060	e8 00 00 00 00	 call	 ?FreeDataChain@CPlex@@QAEXXZ ; CPlex::FreeDataChain

; 873  : 	m_pBlocks = NULL;

  00065	c7 46 14 00 00
	00 00		 mov	 DWORD PTR [esi+20], 0
$LN10@RemoveHead:

; 1020 : 	FreeNode(pOldNode);
; 1021 : 	return returnValue;

  0006c	dd 45 f8	 fld	 QWORD PTR _returnValue$[ebp]
  0006f	5e		 pop	 esi

; 1022 : }

  00070	8b e5		 mov	 esp, ebp
  00072	5d		 pop	 ebp
  00073	c3		 ret	 0
$LN24@RemoveHead:

; 1008 : 	ASSERT_VALID(this);
; 1009 : 	ENSURE(m_pNodeHead != NULL);  // don't call on empty list !!!

  00074	e8 00 00 00 00	 call	 ?AfxThrowInvalidArgException@@YGXXZ ; AfxThrowInvalidArgException
$LN22@RemoveHead:
  00079	cc		 int	 3
?RemoveHead@?$CList@NN@@QAENXZ ENDP			; CList<double,double>::RemoveHead
_TEXT	ENDS
; Function compile flags: /Ogtp
; File C:\Program Files (x86)\Microsoft Visual Studio\2019\Community\VC\Tools\MSVC\14.29.30133\atlmfc\include\afxtempl.h
;	COMDAT ??0?$CList@NN@@QAE@H@Z
_TEXT	SEGMENT
_nBlockSize$ = 8					; size = 4
??0?$CList@NN@@QAE@H@Z PROC				; CList<double,double>::CList<double,double>, COMDAT
; _this$ = ecx

; 851  : {

  00000	55		 push	 ebp
  00001	8b ec		 mov	 ebp, esp

; 852  : 	ASSERT(nBlockSize > 0);
; 853  : 
; 854  : 	m_nCount = 0;
; 855  : 	m_pNodeHead = m_pNodeTail = m_pNodeFree = NULL;
; 856  : 	m_pBlocks = NULL;
; 857  : 	m_nBlockSize = nBlockSize;

  00003	8b 45 08	 mov	 eax, DWORD PTR _nBlockSize$[ebp]
  00006	89 41 18	 mov	 DWORD PTR [ecx+24], eax

; 858  : }

  00009	8b c1		 mov	 eax, ecx
  0000b	c7 01 00 00 00
	00		 mov	 DWORD PTR [ecx], OFFSET ??_7?$CList@NN@@6B@
  00011	c7 41 0c 00 00
	00 00		 mov	 DWORD PTR [ecx+12], 0
  00018	c7 41 10 00 00
	00 00		 mov	 DWORD PTR [ecx+16], 0
  0001f	c7 41 08 00 00
	00 00		 mov	 DWORD PTR [ecx+8], 0
  00026	c7 41 04 00 00
	00 00		 mov	 DWORD PTR [ecx+4], 0
  0002d	c7 41 14 00 00
	00 00		 mov	 DWORD PTR [ecx+20], 0
  00034	5d		 pop	 ebp
  00035	c2 04 00	 ret	 4
??0?$CList@NN@@QAE@H@Z ENDP				; CList<double,double>::CList<double,double>
_TEXT	ENDS
; Function compile flags: /Ogtp
; File D:\git\src\IBK\IBK_DRFN\ProjSrc\SrcChartEx\ChartOCX\PacketData\PacketImplementation.cpp
;	COMDAT ?GetTempList@CPacketImplementation@@QBEPAV?$CList@NN@@XZ
_TEXT	SEGMENT
?GetTempList@CPacketImplementation@@QBEPAV?$CList@NN@@XZ PROC ; CPacketImplementation::GetTempList, COMDAT
; _this$ = ecx

; 1724 : 	return const_cast<CList<double, double>*>(&m_dTempDataList);

  00000	8d 81 d0 00 00
	00		 lea	 eax, DWORD PTR [ecx+208]

; 1725 : }

  00006	c3		 ret	 0
?GetTempList@CPacketImplementation@@QBEPAV?$CList@NN@@XZ ENDP ; CPacketImplementation::GetTempList
_TEXT	ENDS
; Function compile flags: /Ogtp
; File D:\git\src\IBK\IBK_DRFN\ProjSrc\SrcChartEx\ChartOCX\PacketData\PacketImplementation.cpp
; File C:\Program Files (x86)\Microsoft Visual Studio\2019\Community\VC\Tools\MSVC\14.29.30133\atlmfc\include\afxtempl.h
; File D:\git\src\IBK\IBK_DRFN\ProjSrc\SrcChartEx\ChartOCX\PacketData\PacketImplementation.cpp
; File C:\Program Files (x86)\Microsoft Visual Studio\2019\Community\VC\Tools\MSVC\14.29.30133\atlmfc\include\afxtempl.h
; File D:\git\src\IBK\IBK_DRFN\ProjSrc\SrcChartEx\ChartOCX\PacketData\PacketImplementation.cpp
;	COMDAT ?GetTailTempListData@CPacketImplementation@@QBE_NAAN@Z
_TEXT	SEGMENT
_dData$ = 8						; size = 4
?GetTailTempListData@CPacketImplementation@@QBE_NAAN@Z PROC ; CPacketImplementation::GetTailTempListData, COMDAT
; _this$ = ecx

; 1714 : {

  00000	55		 push	 ebp
  00001	8b ec		 mov	 ebp, esp

; 1715 : 	if(m_dTempDataList.GetCount() <= 0)

  00003	83 b9 dc 00 00
	00 00		 cmp	 DWORD PTR [ecx+220], 0
  0000a	7f 06		 jg	 SHORT $LN2@GetTailTem

; 1716 : 		return false;

  0000c	32 c0		 xor	 al, al

; 1720 : }

  0000e	5d		 pop	 ebp
  0000f	c2 04 00	 ret	 4
$LN2@GetTailTem:
; File C:\Program Files (x86)\Microsoft Visual Studio\2019\Community\VC\Tools\MSVC\14.29.30133\atlmfc\include\afxtempl.h

; 801  : 	{ ENSURE(m_pNodeTail != NULL);

  00012	8b 81 d8 00 00
	00		 mov	 eax, DWORD PTR [ecx+216]
  00018	85 c0		 test	 eax, eax
  0001a	74 12		 je	 SHORT $LN13@GetTailTem
; File D:\git\src\IBK\IBK_DRFN\ProjSrc\SrcChartEx\ChartOCX\PacketData\PacketImplementation.cpp

; 1718 : 	dData = m_dTempDataList.GetTail();

  0001c	f2 0f 10 40 08	 movsd	 xmm0, QWORD PTR [eax+8]
  00021	8b 45 08	 mov	 eax, DWORD PTR _dData$[ebp]
  00024	f2 0f 11 00	 movsd	 QWORD PTR [eax], xmm0

; 1719 : 	return true;

  00028	b0 01		 mov	 al, 1

; 1720 : }

  0002a	5d		 pop	 ebp
  0002b	c2 04 00	 ret	 4
$LN13@GetTailTem:
; File C:\Program Files (x86)\Microsoft Visual Studio\2019\Community\VC\Tools\MSVC\14.29.30133\atlmfc\include\afxtempl.h

; 801  : 	{ ENSURE(m_pNodeTail != NULL);

  0002e	e8 00 00 00 00	 call	 ?AfxThrowInvalidArgException@@YGXXZ ; AfxThrowInvalidArgException
$LN11@GetTailTem:
  00033	cc		 int	 3
?GetTailTempListData@CPacketImplementation@@QBE_NAAN@Z ENDP ; CPacketImplementation::GetTailTempListData
_TEXT	ENDS
; Function compile flags: /Ogtp
; File D:\git\src\IBK\IBK_DRFN\ProjSrc\SrcChartEx\ChartOCX\PacketData\PacketImplementation.cpp
; File C:\Program Files (x86)\Microsoft Visual Studio\2019\Community\VC\Tools\MSVC\14.29.30133\atlmfc\include\afxtempl.h
; File D:\git\src\IBK\IBK_DRFN\ProjSrc\SrcChartEx\ChartOCX\PacketData\PacketImplementation.cpp
; File C:\Program Files (x86)\Microsoft Visual Studio\2019\Community\VC\Tools\MSVC\14.29.30133\atlmfc\include\afxtempl.h
; File D:\git\src\IBK\IBK_DRFN\ProjSrc\SrcChartEx\ChartOCX\PacketData\PacketImplementation.cpp
;	COMDAT ?GetHeadTempListData@CPacketImplementation@@QBE_NAAN@Z
_TEXT	SEGMENT
_dData$ = 8						; size = 4
?GetHeadTempListData@CPacketImplementation@@QBE_NAAN@Z PROC ; CPacketImplementation::GetHeadTempListData, COMDAT
; _this$ = ecx

; 1705 : {

  00000	55		 push	 ebp
  00001	8b ec		 mov	 ebp, esp

; 1706 : 	if(m_dTempDataList.GetCount() <= 0)

  00003	83 b9 dc 00 00
	00 00		 cmp	 DWORD PTR [ecx+220], 0
  0000a	7f 06		 jg	 SHORT $LN2@GetHeadTem

; 1707 : 		return false;

  0000c	32 c0		 xor	 al, al

; 1711 : }

  0000e	5d		 pop	 ebp
  0000f	c2 04 00	 ret	 4
$LN2@GetHeadTem:
; File C:\Program Files (x86)\Microsoft Visual Studio\2019\Community\VC\Tools\MSVC\14.29.30133\atlmfc\include\afxtempl.h

; 793  : 	{ ENSURE(m_pNodeHead != NULL);

  00012	8b 81 d4 00 00
	00		 mov	 eax, DWORD PTR [ecx+212]
  00018	85 c0		 test	 eax, eax
  0001a	74 12		 je	 SHORT $LN13@GetHeadTem
; File D:\git\src\IBK\IBK_DRFN\ProjSrc\SrcChartEx\ChartOCX\PacketData\PacketImplementation.cpp

; 1709 : 	dData = m_dTempDataList.GetHead();

  0001c	f2 0f 10 40 08	 movsd	 xmm0, QWORD PTR [eax+8]
  00021	8b 45 08	 mov	 eax, DWORD PTR _dData$[ebp]
  00024	f2 0f 11 00	 movsd	 QWORD PTR [eax], xmm0

; 1710 : 	return true;

  00028	b0 01		 mov	 al, 1

; 1711 : }

  0002a	5d		 pop	 ebp
  0002b	c2 04 00	 ret	 4
$LN13@GetHeadTem:
; File C:\Program Files (x86)\Microsoft Visual Studio\2019\Community\VC\Tools\MSVC\14.29.30133\atlmfc\include\afxtempl.h

; 793  : 	{ ENSURE(m_pNodeHead != NULL);

  0002e	e8 00 00 00 00	 call	 ?AfxThrowInvalidArgException@@YGXXZ ; AfxThrowInvalidArgException
$LN11@GetHeadTem:
  00033	cc		 int	 3
?GetHeadTempListData@CPacketImplementation@@QBE_NAAN@Z ENDP ; CPacketImplementation::GetHeadTempListData
_TEXT	ENDS
; Function compile flags: /Ogtp
; File D:\git\src\IBK\IBK_DRFN\ProjSrc\SrcChartEx\ChartOCX\PacketData\PacketImplementation.cpp
; File C:\Program Files (x86)\Microsoft Visual Studio\2019\Community\VC\Tools\MSVC\14.29.30133\atlmfc\include\afxtempl.h
; File D:\git\src\IBK\IBK_DRFN\ProjSrc\SrcChartEx\ChartOCX\PacketData\PacketImplementation.cpp
;	COMDAT ?GetTempListData@CPacketImplementation@@QBE_NHAAN@Z
_TEXT	SEGMENT
_nIndex$ = 8						; size = 4
_dData$ = 12						; size = 4
?GetTempListData@CPacketImplementation@@QBE_NHAAN@Z PROC ; CPacketImplementation::GetTempListData, COMDAT
; _this$ = ecx

; 1695 : {

  00000	55		 push	 ebp
  00001	8b ec		 mov	 ebp, esp

; 1696 : 	POSITION pos = m_dTempDataList.FindIndex(nIndex);

  00003	8b 45 08	 mov	 eax, DWORD PTR _nIndex$[ebp]
; File C:\Program Files (x86)\Microsoft Visual Studio\2019\Community\VC\Tools\MSVC\14.29.30133\atlmfc\include\afxtempl.h

; 1133 : 	if (nIndex >= m_nCount || nIndex < 0)

  00006	3b 81 dc 00 00
	00		 cmp	 eax, DWORD PTR [ecx+220]
  0000c	7d 2f		 jge	 SHORT $LN15@GetTempLis
  0000e	85 c0		 test	 eax, eax
  00010	78 2b		 js	 SHORT $LN15@GetTempLis

; 1134 : 		return NULL;  // went too far
; 1135 : 
; 1136 : 	CNode* pNode = m_pNodeHead;

  00012	8b 89 d4 00 00
	00		 mov	 ecx, DWORD PTR [ecx+212]

; 1137 : 	while (nIndex--)

  00018	74 0d		 je	 SHORT $LN11@GetTempLis
  0001a	66 0f 1f 44 00
	00		 npad	 6
$LL5@GetTempLis:

; 1138 : 	{
; 1139 : 		ASSERT(AfxIsValidAddress(pNode, sizeof(CNode)));
; 1140 : 		pNode = pNode->pNext;

  00020	8b 09		 mov	 ecx, DWORD PTR [ecx]
  00022	83 e8 01	 sub	 eax, 1
  00025	75 f9		 jne	 SHORT $LL5@GetTempLis
$LN11@GetTempLis:
; File D:\git\src\IBK\IBK_DRFN\ProjSrc\SrcChartEx\ChartOCX\PacketData\PacketImplementation.cpp

; 1697 : 	if(pos == NULL)

  00027	85 c9		 test	 ecx, ecx
  00029	74 12		 je	 SHORT $LN15@GetTempLis

; 1699 : 
; 1700 : 	dData = m_dTempDataList.GetAt(pos);

  0002b	8b 45 0c	 mov	 eax, DWORD PTR _dData$[ebp]
  0002e	f2 0f 10 41 08	 movsd	 xmm0, QWORD PTR [ecx+8]
  00033	f2 0f 11 00	 movsd	 QWORD PTR [eax], xmm0

; 1701 : 	return true;

  00037	b0 01		 mov	 al, 1

; 1702 : }

  00039	5d		 pop	 ebp
  0003a	c2 08 00	 ret	 8
$LN15@GetTempLis:

; 1698 : 		return false;

  0003d	32 c0		 xor	 al, al

; 1702 : }

  0003f	5d		 pop	 ebp
  00040	c2 08 00	 ret	 8
?GetTempListData@CPacketImplementation@@QBE_NHAAN@Z ENDP ; CPacketImplementation::GetTempListData
_TEXT	ENDS
; Function compile flags: /Ogtp
; File D:\git\src\IBK\IBK_DRFN\ProjSrc\SrcChartEx\ChartOCX\PacketData\PacketImplementation.cpp
; File C:\Program Files (x86)\Microsoft Visual Studio\2019\Community\VC\Tools\MSVC\14.29.30133\atlmfc\include\afxtempl.h
; File D:\git\src\IBK\IBK_DRFN\ProjSrc\SrcChartEx\ChartOCX\PacketData\PacketImplementation.cpp
; File C:\Program Files (x86)\Microsoft Visual Studio\2019\Community\VC\Tools\MSVC\14.29.30133\atlmfc\include\afxtempl.h
; File D:\git\src\IBK\IBK_DRFN\ProjSrc\SrcChartEx\ChartOCX\PacketData\PacketImplementation.cpp
; File C:\Program Files (x86)\Microsoft Visual Studio\2019\Community\VC\Tools\MSVC\14.29.30133\atlmfc\include\afxtempl.h
; File D:\git\src\IBK\IBK_DRFN\ProjSrc\SrcChartEx\ChartOCX\PacketData\PacketImplementation.cpp
; File C:\Program Files (x86)\Microsoft Visual Studio\2019\Community\VC\Tools\MSVC\14.29.30133\atlmfc\include\afxtempl.h
; File D:\git\src\IBK\IBK_DRFN\ProjSrc\SrcChartEx\ChartOCX\PacketData\PacketImplementation.cpp
; File C:\Program Files (x86)\Microsoft Visual Studio\2019\Community\VC\Tools\MSVC\14.29.30133\atlmfc\include\afxtempl.h
; File D:\git\src\IBK\IBK_DRFN\ProjSrc\SrcChartEx\ChartOCX\PacketData\PacketImplementation.cpp
; File C:\Program Files (x86)\Microsoft Visual Studio\2019\Community\VC\Tools\MSVC\14.29.30133\atlmfc\include\afxtempl.h
; File D:\git\src\IBK\IBK_DRFN\ProjSrc\SrcChartEx\ChartOCX\PacketData\PacketImplementation.cpp
; File C:\Program Files (x86)\Microsoft Visual Studio\2019\Community\VC\Tools\MSVC\14.29.30133\atlmfc\include\afxtempl.h
; File D:\git\src\IBK\IBK_DRFN\ProjSrc\SrcChartEx\ChartOCX\PacketData\PacketImplementation.cpp
; File C:\Program Files (x86)\Microsoft Visual Studio\2019\Community\VC\Tools\MSVC\14.29.30133\atlmfc\include\afxtempl.h
; File D:\git\src\IBK\IBK_DRFN\ProjSrc\SrcChartEx\ChartOCX\PacketData\PacketImplementation.cpp
;	COMDAT ?SetTempListData@CPacketImplementation@@QAE_NHABN_N@Z
_TEXT	SEGMENT
_newElement$1$ = -8					; size = 8
_newElement$1$ = -8					; size = 8
_nIndex$ = 8						; size = 4
_dData$ = 12						; size = 4
_bIsAutoTail$ = 16					; size = 1
?SetTempListData@CPacketImplementation@@QAE_NHABN_N@Z PROC ; CPacketImplementation::SetTempListData, COMDAT
; _this$ = ecx

; 1677 : {

  00000	55		 push	 ebp
  00001	8b ec		 mov	 ebp, esp

; 1678 : 	POSITION pos = m_dTempDataList.FindIndex(nIndex);

  00003	8b 45 08	 mov	 eax, DWORD PTR _nIndex$[ebp]
  00006	83 ec 08	 sub	 esp, 8
  00009	56		 push	 esi
; File C:\Program Files (x86)\Microsoft Visual Studio\2019\Community\VC\Tools\MSVC\14.29.30133\atlmfc\include\afxtempl.h

; 1133 : 	if (nIndex >= m_nCount || nIndex < 0)

  0000a	3b 81 dc 00 00
	00		 cmp	 eax, DWORD PTR [ecx+220]
  00010	7d 67		 jge	 SHORT $LN2@SetTempLis
  00012	85 c0		 test	 eax, eax
  00014	78 63		 js	 SHORT $LN2@SetTempLis

; 1134 : 		return NULL;  // went too far
; 1135 : 
; 1136 : 	CNode* pNode = m_pNodeHead;

  00016	8b b1 d4 00 00
	00		 mov	 esi, DWORD PTR [ecx+212]

; 1137 : 	while (nIndex--)

  0001c	74 09		 je	 SHORT $LN27@SetTempLis
  0001e	66 90		 npad	 2
$LL6@SetTempLis:

; 1138 : 	{
; 1139 : 		ASSERT(AfxIsValidAddress(pNode, sizeof(CNode)));
; 1140 : 		pNode = pNode->pNext;

  00020	8b 36		 mov	 esi, DWORD PTR [esi]
  00022	83 e8 01	 sub	 eax, 1
  00025	75 f9		 jne	 SHORT $LL6@SetTempLis
$LN27@SetTempLis:
; File D:\git\src\IBK\IBK_DRFN\ProjSrc\SrcChartEx\ChartOCX\PacketData\PacketImplementation.cpp

; 1679 : 	if(pos != NULL)

  00027	85 f6		 test	 esi, esi
  00029	74 4e		 je	 SHORT $LN2@SetTempLis

; 1681 : 		m_dTempDataList.InsertBefore(pos, dData);

  0002b	8b 45 0c	 mov	 eax, DWORD PTR _dData$[ebp]
  0002e	57		 push	 edi
; File C:\Program Files (x86)\Microsoft Visual Studio\2019\Community\VC\Tools\MSVC\14.29.30133\atlmfc\include\afxtempl.h

; 1053 : 	CNode* pNewNode = NewNode(pOldNode->pPrev, pOldNode);

  0002f	56		 push	 esi
  00030	ff 76 04	 push	 DWORD PTR [esi+4]
; File D:\git\src\IBK\IBK_DRFN\ProjSrc\SrcChartEx\ChartOCX\PacketData\PacketImplementation.cpp

; 1681 : 		m_dTempDataList.InsertBefore(pos, dData);

  00033	f2 0f 10 00	 movsd	 xmm0, QWORD PTR [eax]
  00037	8d b9 d0 00 00
	00		 lea	 edi, DWORD PTR [ecx+208]
; File C:\Program Files (x86)\Microsoft Visual Studio\2019\Community\VC\Tools\MSVC\14.29.30133\atlmfc\include\afxtempl.h

; 1053 : 	CNode* pNewNode = NewNode(pOldNode->pPrev, pOldNode);

  0003d	8b cf		 mov	 ecx, edi
; File D:\git\src\IBK\IBK_DRFN\ProjSrc\SrcChartEx\ChartOCX\PacketData\PacketImplementation.cpp

; 1681 : 		m_dTempDataList.InsertBefore(pos, dData);

  0003f	f2 0f 11 45 f8	 movsd	 QWORD PTR _newElement$1$[ebp], xmm0
; File C:\Program Files (x86)\Microsoft Visual Studio\2019\Community\VC\Tools\MSVC\14.29.30133\atlmfc\include\afxtempl.h

; 1053 : 	CNode* pNewNode = NewNode(pOldNode->pPrev, pOldNode);

  00044	e8 00 00 00 00	 call	 ?NewNode@?$CList@NN@@IAEPAUCNode@1@PAU21@0@Z ; CList<double,double>::NewNode

; 1054 : 	pNewNode->data = newElement;

  00049	f2 0f 10 45 f8	 movsd	 xmm0, QWORD PTR _newElement$1$[ebp]
  0004e	f2 0f 11 40 08	 movsd	 QWORD PTR [eax+8], xmm0

; 1055 : 
; 1056 : 	if (pOldNode->pPrev != NULL)

  00053	8b 4e 04	 mov	 ecx, DWORD PTR [esi+4]
  00056	85 c9		 test	 ecx, ecx
  00058	74 0f		 je	 SHORT $LN13@SetTempLis

; 1057 : 	{
; 1058 : 		ASSERT(AfxIsValidAddress(pOldNode->pPrev, sizeof(CNode)));
; 1059 : 		pOldNode->pPrev->pNext = pNewNode;

  0005a	89 01		 mov	 DWORD PTR [ecx], eax

; 1065 : 	}
; 1066 : 	pOldNode->pPrev = pNewNode;

  0005c	89 46 04	 mov	 DWORD PTR [esi+4], eax
; File D:\git\src\IBK\IBK_DRFN\ProjSrc\SrcChartEx\ChartOCX\PacketData\PacketImplementation.cpp

; 1682 : 		return true;

  0005f	b0 01		 mov	 al, 1
  00061	5f		 pop	 edi
  00062	5e		 pop	 esi

; 1692 : }

  00063	8b e5		 mov	 esp, ebp
  00065	5d		 pop	 ebp
  00066	c2 0c 00	 ret	 12			; 0000000cH
$LN13@SetTempLis:
; File C:\Program Files (x86)\Microsoft Visual Studio\2019\Community\VC\Tools\MSVC\14.29.30133\atlmfc\include\afxtempl.h

; 1064 : 		m_pNodeHead = pNewNode;

  00069	89 47 04	 mov	 DWORD PTR [edi+4], eax

; 1065 : 	}
; 1066 : 	pOldNode->pPrev = pNewNode;

  0006c	89 46 04	 mov	 DWORD PTR [esi+4], eax
; File D:\git\src\IBK\IBK_DRFN\ProjSrc\SrcChartEx\ChartOCX\PacketData\PacketImplementation.cpp

; 1682 : 		return true;

  0006f	b0 01		 mov	 al, 1
  00071	5f		 pop	 edi
  00072	5e		 pop	 esi

; 1692 : }

  00073	8b e5		 mov	 esp, ebp
  00075	5d		 pop	 ebp
  00076	c2 0c 00	 ret	 12			; 0000000cH
$LN2@SetTempLis:

; 1683 : 	}
; 1684 : 
; 1685 : 	if(bIsAutoTail)

  00079	80 7d 10 00	 cmp	 BYTE PTR _bIsAutoTail$[ebp], 0
  0007d	74 4c		 je	 SHORT $LN3@SetTempLis

; 1667 : 	m_dTempDataList.AddTail(dData);

  0007f	8b 45 0c	 mov	 eax, DWORD PTR _dData$[ebp]
  00082	8d b1 d0 00 00
	00		 lea	 esi, DWORD PTR [ecx+208]
; File C:\Program Files (x86)\Microsoft Visual Studio\2019\Community\VC\Tools\MSVC\14.29.30133\atlmfc\include\afxtempl.h

; 968  : 	CNode* pNewNode = NewNode(m_pNodeTail, NULL);

  00088	6a 00		 push	 0
  0008a	ff 76 08	 push	 DWORD PTR [esi+8]
  0008d	8b ce		 mov	 ecx, esi
; File D:\git\src\IBK\IBK_DRFN\ProjSrc\SrcChartEx\ChartOCX\PacketData\PacketImplementation.cpp

; 1667 : 	m_dTempDataList.AddTail(dData);

  0008f	f2 0f 10 00	 movsd	 xmm0, QWORD PTR [eax]
  00093	f2 0f 11 45 f8	 movsd	 QWORD PTR _newElement$1$[ebp], xmm0
; File C:\Program Files (x86)\Microsoft Visual Studio\2019\Community\VC\Tools\MSVC\14.29.30133\atlmfc\include\afxtempl.h

; 968  : 	CNode* pNewNode = NewNode(m_pNodeTail, NULL);

  00098	e8 00 00 00 00	 call	 ?NewNode@?$CList@NN@@IAEPAUCNode@1@PAU21@0@Z ; CList<double,double>::NewNode

; 969  : 	pNewNode->data = newElement;

  0009d	f2 0f 10 45 f8	 movsd	 xmm0, QWORD PTR _newElement$1$[ebp]
  000a2	f2 0f 11 40 08	 movsd	 QWORD PTR [eax+8], xmm0

; 970  : 	if (m_pNodeTail != NULL)

  000a7	8b 4e 08	 mov	 ecx, DWORD PTR [esi+8]
  000aa	85 c9		 test	 ecx, ecx
  000ac	74 0e		 je	 SHORT $LN23@SetTempLis

; 971  : 		m_pNodeTail->pNext = pNewNode;

  000ae	89 01		 mov	 DWORD PTR [ecx], eax

; 974  : 	m_pNodeTail = pNewNode;

  000b0	89 46 08	 mov	 DWORD PTR [esi+8], eax
; File D:\git\src\IBK\IBK_DRFN\ProjSrc\SrcChartEx\ChartOCX\PacketData\PacketImplementation.cpp

; 1688 : 		return true;

  000b3	b0 01		 mov	 al, 1
  000b5	5e		 pop	 esi

; 1692 : }

  000b6	8b e5		 mov	 esp, ebp
  000b8	5d		 pop	 ebp
  000b9	c2 0c 00	 ret	 12			; 0000000cH
$LN23@SetTempLis:
; File C:\Program Files (x86)\Microsoft Visual Studio\2019\Community\VC\Tools\MSVC\14.29.30133\atlmfc\include\afxtempl.h

; 973  : 		m_pNodeHead = pNewNode;

  000bc	89 46 04	 mov	 DWORD PTR [esi+4], eax

; 974  : 	m_pNodeTail = pNewNode;

  000bf	89 46 08	 mov	 DWORD PTR [esi+8], eax
; File D:\git\src\IBK\IBK_DRFN\ProjSrc\SrcChartEx\ChartOCX\PacketData\PacketImplementation.cpp

; 1688 : 		return true;

  000c2	b0 01		 mov	 al, 1
  000c4	5e		 pop	 esi

; 1692 : }

  000c5	8b e5		 mov	 esp, ebp
  000c7	5d		 pop	 ebp
  000c8	c2 0c 00	 ret	 12			; 0000000cH
$LN3@SetTempLis:

; 1689 : 	}
; 1690 : 
; 1691 : 	return false;

  000cb	32 c0		 xor	 al, al
  000cd	5e		 pop	 esi

; 1692 : }

  000ce	8b e5		 mov	 esp, ebp
  000d0	5d		 pop	 ebp
  000d1	c2 0c 00	 ret	 12			; 0000000cH
?SetTempListData@CPacketImplementation@@QAE_NHABN_N@Z ENDP ; CPacketImplementation::SetTempListData
_TEXT	ENDS
; Function compile flags: /Ogtp
; File D:\git\src\IBK\IBK_DRFN\ProjSrc\SrcChartEx\ChartOCX\PacketData\PacketImplementation.cpp
; File C:\Program Files (x86)\Microsoft Visual Studio\2019\Community\VC\Tools\MSVC\14.29.30133\atlmfc\include\afxtempl.h
; File D:\git\src\IBK\IBK_DRFN\ProjSrc\SrcChartEx\ChartOCX\PacketData\PacketImplementation.cpp
;	COMDAT ?RemoveAllTempList@CPacketImplementation@@QAEXXZ
_TEXT	SEGMENT
?RemoveAllTempList@CPacketImplementation@@QAEXXZ PROC	; CPacketImplementation::RemoveAllTempList, COMDAT
; _this$ = ecx

; 1671 : {

  00000	56		 push	 esi
  00001	8b f1		 mov	 esi, ecx
; File C:\Program Files (x86)\Microsoft Visual Studio\2019\Community\VC\Tools\MSVC\14.29.30133\atlmfc\include\afxtempl.h

; 872  : 	m_pBlocks->FreeDataChain();

  00003	8b 8e e4 00 00
	00		 mov	 ecx, DWORD PTR [esi+228]
  00009	c7 86 dc 00 00
	00 00 00 00 00	 mov	 DWORD PTR [esi+220], 0
  00013	c7 86 e0 00 00
	00 00 00 00 00	 mov	 DWORD PTR [esi+224], 0
  0001d	c7 86 d8 00 00
	00 00 00 00 00	 mov	 DWORD PTR [esi+216], 0
  00027	c7 86 d4 00 00
	00 00 00 00 00	 mov	 DWORD PTR [esi+212], 0
  00031	e8 00 00 00 00	 call	 ?FreeDataChain@CPlex@@QAEXXZ ; CPlex::FreeDataChain

; 873  : 	m_pBlocks = NULL;

  00036	c7 86 e4 00 00
	00 00 00 00 00	 mov	 DWORD PTR [esi+228], 0
  00040	5e		 pop	 esi
; File D:\git\src\IBK\IBK_DRFN\ProjSrc\SrcChartEx\ChartOCX\PacketData\PacketImplementation.cpp

; 1673 : }

  00041	c3		 ret	 0
?RemoveAllTempList@CPacketImplementation@@QAEXXZ ENDP	; CPacketImplementation::RemoveAllTempList
_TEXT	ENDS
; Function compile flags: /Ogtp
; File D:\git\src\IBK\IBK_DRFN\ProjSrc\SrcChartEx\ChartOCX\PacketData\PacketImplementation.cpp
; File C:\Program Files (x86)\Microsoft Visual Studio\2019\Community\VC\Tools\MSVC\14.29.30133\atlmfc\include\afxtempl.h
; File D:\git\src\IBK\IBK_DRFN\ProjSrc\SrcChartEx\ChartOCX\PacketData\PacketImplementation.cpp
; File C:\Program Files (x86)\Microsoft Visual Studio\2019\Community\VC\Tools\MSVC\14.29.30133\atlmfc\include\afxtempl.h
; File D:\git\src\IBK\IBK_DRFN\ProjSrc\SrcChartEx\ChartOCX\PacketData\PacketImplementation.cpp
; File C:\Program Files (x86)\Microsoft Visual Studio\2019\Community\VC\Tools\MSVC\14.29.30133\atlmfc\include\afxtempl.h
; File D:\git\src\IBK\IBK_DRFN\ProjSrc\SrcChartEx\ChartOCX\PacketData\PacketImplementation.cpp
; File C:\Program Files (x86)\Microsoft Visual Studio\2019\Community\VC\Tools\MSVC\14.29.30133\atlmfc\include\afxtempl.h
; File D:\git\src\IBK\IBK_DRFN\ProjSrc\SrcChartEx\ChartOCX\PacketData\PacketImplementation.cpp
;	COMDAT ?AddTailTempList@CPacketImplementation@@QAEXABN@Z
_TEXT	SEGMENT
_newElement$1$ = -8					; size = 8
_dData$ = 8						; size = 4
?AddTailTempList@CPacketImplementation@@QAEXABN@Z PROC	; CPacketImplementation::AddTailTempList, COMDAT
; _this$ = ecx

; 1666 : {

  00000	55		 push	 ebp
  00001	8b ec		 mov	 ebp, esp
  00003	83 ec 08	 sub	 esp, 8

; 1667 : 	m_dTempDataList.AddTail(dData);

  00006	8b 45 08	 mov	 eax, DWORD PTR _dData$[ebp]
  00009	56		 push	 esi
  0000a	8d b1 d0 00 00
	00		 lea	 esi, DWORD PTR [ecx+208]
; File C:\Program Files (x86)\Microsoft Visual Studio\2019\Community\VC\Tools\MSVC\14.29.30133\atlmfc\include\afxtempl.h

; 968  : 	CNode* pNewNode = NewNode(m_pNodeTail, NULL);

  00010	6a 00		 push	 0
; File D:\git\src\IBK\IBK_DRFN\ProjSrc\SrcChartEx\ChartOCX\PacketData\PacketImplementation.cpp

; 1667 : 	m_dTempDataList.AddTail(dData);

  00012	f2 0f 10 00	 movsd	 xmm0, QWORD PTR [eax]
; File C:\Program Files (x86)\Microsoft Visual Studio\2019\Community\VC\Tools\MSVC\14.29.30133\atlmfc\include\afxtempl.h

; 968  : 	CNode* pNewNode = NewNode(m_pNodeTail, NULL);

  00016	8b ce		 mov	 ecx, esi
  00018	ff 76 08	 push	 DWORD PTR [esi+8]
; File D:\git\src\IBK\IBK_DRFN\ProjSrc\SrcChartEx\ChartOCX\PacketData\PacketImplementation.cpp

; 1667 : 	m_dTempDataList.AddTail(dData);

  0001b	f2 0f 11 45 f8	 movsd	 QWORD PTR _newElement$1$[ebp], xmm0
; File C:\Program Files (x86)\Microsoft Visual Studio\2019\Community\VC\Tools\MSVC\14.29.30133\atlmfc\include\afxtempl.h

; 968  : 	CNode* pNewNode = NewNode(m_pNodeTail, NULL);

  00020	e8 00 00 00 00	 call	 ?NewNode@?$CList@NN@@IAEPAUCNode@1@PAU21@0@Z ; CList<double,double>::NewNode

; 969  : 	pNewNode->data = newElement;

  00025	f2 0f 10 45 f8	 movsd	 xmm0, QWORD PTR _newElement$1$[ebp]
  0002a	f2 0f 11 40 08	 movsd	 QWORD PTR [eax+8], xmm0

; 970  : 	if (m_pNodeTail != NULL)

  0002f	8b 4e 08	 mov	 ecx, DWORD PTR [esi+8]
  00032	85 c9		 test	 ecx, ecx
  00034	74 0c		 je	 SHORT $LN4@AddTailTem

; 971  : 		m_pNodeTail->pNext = pNewNode;

  00036	89 01		 mov	 DWORD PTR [ecx], eax
; File D:\git\src\IBK\IBK_DRFN\ProjSrc\SrcChartEx\ChartOCX\PacketData\PacketImplementation.cpp

; 1668 : }

  00038	89 46 08	 mov	 DWORD PTR [esi+8], eax
  0003b	5e		 pop	 esi
  0003c	8b e5		 mov	 esp, ebp
  0003e	5d		 pop	 ebp
  0003f	c2 04 00	 ret	 4
$LN4@AddTailTem:
; File C:\Program Files (x86)\Microsoft Visual Studio\2019\Community\VC\Tools\MSVC\14.29.30133\atlmfc\include\afxtempl.h

; 973  : 		m_pNodeHead = pNewNode;

  00042	89 46 04	 mov	 DWORD PTR [esi+4], eax
; File D:\git\src\IBK\IBK_DRFN\ProjSrc\SrcChartEx\ChartOCX\PacketData\PacketImplementation.cpp

; 1668 : }

  00045	89 46 08	 mov	 DWORD PTR [esi+8], eax
  00048	5e		 pop	 esi
  00049	8b e5		 mov	 esp, ebp
  0004b	5d		 pop	 ebp
  0004c	c2 04 00	 ret	 4
?AddTailTempList@CPacketImplementation@@QAEXABN@Z ENDP	; CPacketImplementation::AddTailTempList
_TEXT	ENDS
; Function compile flags: /Ogtp
; File D:\git\src\IBK\IBK_DRFN\ProjSrc\SrcChartEx\ChartOCX\PacketData\PacketImplementation.cpp
; File C:\Program Files (x86)\Microsoft Visual Studio\2019\Community\VC\Tools\MSVC\14.29.30133\atlmfc\include\afxtempl.h
; File D:\git\src\IBK\IBK_DRFN\ProjSrc\SrcChartEx\ChartOCX\PacketData\PacketImplementation.cpp
; File C:\Program Files (x86)\Microsoft Visual Studio\2019\Community\VC\Tools\MSVC\14.29.30133\atlmfc\include\afxtempl.h
; File D:\git\src\IBK\IBK_DRFN\ProjSrc\SrcChartEx\ChartOCX\PacketData\PacketImplementation.cpp
; File C:\Program Files (x86)\Microsoft Visual Studio\2019\Community\VC\Tools\MSVC\14.29.30133\atlmfc\include\afxtempl.h
; File D:\git\src\IBK\IBK_DRFN\ProjSrc\SrcChartEx\ChartOCX\PacketData\PacketImplementation.cpp
;	COMDAT ?Initialize@CPacketImplementation@@QAEX_N@Z
_TEXT	SEGMENT
$T1 = -8						; size = 8
$T2 = -8						; size = 8
$T3 = -8						; size = 8
$T4 = -8						; size = 8
_bClearIncludingTR$ = 8					; size = 1
?Initialize@CPacketImplementation@@QAEX_N@Z PROC	; CPacketImplementation::Initialize, COMDAT
; _this$ = ecx

; 422  : {

  00000	55		 push	 ebp
  00001	8b ec		 mov	 ebp, esp
  00003	83 ec 08	 sub	 esp, 8
  00006	56		 push	 esi
  00007	8b f1		 mov	 esi, ecx

; 446  : 	if(m_bBaseData && !bClearIncludingTR)

  00009	80 7e 21 00	 cmp	 BYTE PTR [esi+33], 0
  0000d	74 0a		 je	 SHORT $LN4@Initialize
  0000f	80 7d 08 00	 cmp	 BYTE PTR _bClearIncludingTR$[ebp], 0
  00013	0f 84 8c 00 00
	00		 je	 $LN3@Initialize
$LN4@Initialize:
; File C:\Program Files (x86)\Microsoft Visual Studio\2019\Community\VC\Tools\MSVC\14.29.30133\atlmfc\include\afxtempl.h

; 872  : 	m_pBlocks->FreeDataChain();

  00019	8b 8e a8 00 00
	00		 mov	 ecx, DWORD PTR [esi+168]
  0001f	c7 86 a0 00 00
	00 00 00 00 00	 mov	 DWORD PTR [esi+160], 0
  00029	c7 86 a4 00 00
	00 00 00 00 00	 mov	 DWORD PTR [esi+164], 0
  00033	c7 86 9c 00 00
	00 00 00 00 00	 mov	 DWORD PTR [esi+156], 0
  0003d	c7 86 98 00 00
	00 00 00 00 00	 mov	 DWORD PTR [esi+152], 0
  00047	e8 00 00 00 00	 call	 ?FreeDataChain@CPlex@@QAEXXZ ; CPlex::FreeDataChain
; File D:\git\src\IBK\IBK_DRFN\ProjSrc\SrcChartEx\ChartOCX\PacketData\PacketImplementation.cpp

; 450  : 	m_lstrData.RemoveAll();

  0004c	8d 8e b0 00 00
	00		 lea	 ecx, DWORD PTR [esi+176]
; File C:\Program Files (x86)\Microsoft Visual Studio\2019\Community\VC\Tools\MSVC\14.29.30133\atlmfc\include\afxtempl.h

; 873  : 	m_pBlocks = NULL;

  00052	c7 86 a8 00 00
	00 00 00 00 00	 mov	 DWORD PTR [esi+168], 0
; File D:\git\src\IBK\IBK_DRFN\ProjSrc\SrcChartEx\ChartOCX\PacketData\PacketImplementation.cpp

; 450  : 	m_lstrData.RemoveAll();

  0005c	e8 00 00 00 00	 call	 ?RemoveAll@?$CList@V?$CStringT@DV?$StrTraitMFC_DLL@DV?$ChTraitsCRT@D@ATL@@@@@ATL@@V12@@@QAEXXZ ; CList<ATL::CStringT<char,StrTraitMFC_DLL<char,ATL::ChTraitsCRT<char> > >,ATL::CStringT<char,StrTraitMFC_DLL<char,ATL::ChTraitsCRT<char> > > >::RemoveAll
; File C:\Program Files (x86)\Microsoft Visual Studio\2019\Community\VC\Tools\MSVC\14.29.30133\atlmfc\include\afxtempl.h

; 872  : 	m_pBlocks->FreeDataChain();

  00061	8b 8e e4 00 00
	00		 mov	 ecx, DWORD PTR [esi+228]
  00067	c7 86 dc 00 00
	00 00 00 00 00	 mov	 DWORD PTR [esi+220], 0
  00071	c7 86 e0 00 00
	00 00 00 00 00	 mov	 DWORD PTR [esi+224], 0
  0007b	c7 86 d8 00 00
	00 00 00 00 00	 mov	 DWORD PTR [esi+216], 0
  00085	c7 86 d4 00 00
	00 00 00 00 00	 mov	 DWORD PTR [esi+212], 0
  0008f	e8 00 00 00 00	 call	 ?FreeDataChain@CPlex@@QAEXXZ ; CPlex::FreeDataChain

; 873  : 	m_pBlocks = NULL;

  00094	c7 86 e4 00 00
	00 00 00 00 00	 mov	 DWORD PTR [esi+228], 0
; File D:\git\src\IBK\IBK_DRFN\ProjSrc\SrcChartEx\ChartOCX\PacketData\PacketImplementation.cpp

; 458  : 	m_nStartPeriod = 0;

  0009e	c7 46 24 00 00
	00 00		 mov	 DWORD PTR [esi+36], 0
$LN3@Initialize:

; 1800 : 	m_dContinueCode_Pre			= -HUGE_VAL;

  000a5	0f 28 05 00 00
	00 00		 movaps	 xmm0, XMMWORD PTR __xmm@fff0000000000000fff0000000000000

; 423  : 	ClearData(bClearIncludingTR);
; 424  : 
; 425  : 	RestoreMinMax();
; 426  : 
; 427  : 	// (2009/1/17 - Seung-Won, Bae) Support Min/Max cache. Do not make Min/Max every time of updating data.
; 428  : 	//		Do not support Full Range Min/Max for collision with Pre-Min/Max.
; 429  : 	ClearMinMax();
; 430  : 
; 431  : 	m_standardValue.Set(false, 0.0);

  000ac	8d 45 f8	 lea	 eax, DWORD PTR $T4[ebp]

; 1805 : 	m_dPreMaxValue				= -DBL_MAX;

  000af	f2 0f 10 0d 00
	00 00 00	 movsd	 xmm1, QWORD PTR __real@ffefffffffffffff

; 423  : 	ClearData(bClearIncludingTR);
; 424  : 
; 425  : 	RestoreMinMax();
; 426  : 
; 427  : 	// (2009/1/17 - Seung-Won, Bae) Support Min/Max cache. Do not make Min/Max every time of updating data.
; 428  : 	//		Do not support Full Range Min/Max for collision with Pre-Min/Max.
; 429  : 	ClearMinMax();
; 430  : 
; 431  : 	m_standardValue.Set(false, 0.0);

  000b7	8d 4e 30	 lea	 ecx, DWORD PTR [esi+48]

; 1800 : 	m_dContinueCode_Pre			= -HUGE_VAL;

  000ba	0f 11 86 18 01
	00 00		 movups	 XMMWORD PTR [esi+280], xmm0

; 423  : 	ClearData(bClearIncludingTR);
; 424  : 
; 425  : 	RestoreMinMax();
; 426  : 
; 427  : 	// (2009/1/17 - Seung-Won, Bae) Support Min/Max cache. Do not make Min/Max every time of updating data.
; 428  : 	//		Do not support Full Range Min/Max for collision with Pre-Min/Max.
; 429  : 	ClearMinMax();
; 430  : 
; 431  : 	m_standardValue.Set(false, 0.0);

  000c1	50		 push	 eax

; 1806 : 	m_dPreMinValue				= DBL_MAX;

  000c2	f2 0f 10 05 00
	00 00 00	 movsd	 xmm0, QWORD PTR __real@7fefffffffffffff
  000ca	f2 0f 11 86 40
	01 00 00	 movsd	 QWORD PTR [esi+320], xmm0

; 1808 : 	m_dPreMinValueWithoutEnd	= DBL_MAX;

  000d2	f2 0f 11 86 50
	01 00 00	 movsd	 QWORD PTR [esi+336], xmm0
  000da	0f 57 c0	 xorps	 xmm0, xmm0

; 423  : 	ClearData(bClearIncludingTR);
; 424  : 
; 425  : 	RestoreMinMax();
; 426  : 
; 427  : 	// (2009/1/17 - Seung-Won, Bae) Support Min/Max cache. Do not make Min/Max every time of updating data.
; 428  : 	//		Do not support Full Range Min/Max for collision with Pre-Min/Max.
; 429  : 	ClearMinMax();
; 430  : 
; 431  : 	m_standardValue.Set(false, 0.0);

  000dd	6a 00		 push	 0

; 1193 : 	m_bUseBound = false;

  000df	c6 46 20 00	 mov	 BYTE PTR [esi+32], 0

; 1799 : 	m_bWithoutZero_Pre			= FALSE;

  000e3	c7 86 10 01 00
	00 00 00 00 00	 mov	 DWORD PTR [esi+272], 0

; 1801 : 	m_dExceptionValue_Pre		= -HUGE_VAL;
; 1802 : 	m_nStartPeriod_Pre			= -1;

  000ed	c7 86 28 01 00
	00 ff ff ff ff	 mov	 DWORD PTR [esi+296], -1

; 1803 : 	m_nStartIndex_Pre			= -1;

  000f7	c7 86 2c 01 00
	00 ff ff ff ff	 mov	 DWORD PTR [esi+300], -1

; 1804 : 	m_nEndIndex_Pre				= -1;

  00101	c7 86 30 01 00
	00 ff ff ff ff	 mov	 DWORD PTR [esi+304], -1

; 1805 : 	m_dPreMaxValue				= -DBL_MAX;

  0010b	f2 0f 11 8e 38
	01 00 00	 movsd	 QWORD PTR [esi+312], xmm1

; 1807 : 	m_dPreMaxValueWithoutEnd	= -DBL_MAX;

  00113	f2 0f 11 8e 48
	01 00 00	 movsd	 QWORD PTR [esi+328], xmm1

; 423  : 	ClearData(bClearIncludingTR);
; 424  : 
; 425  : 	RestoreMinMax();
; 426  : 
; 427  : 	// (2009/1/17 - Seung-Won, Bae) Support Min/Max cache. Do not make Min/Max every time of updating data.
; 428  : 	//		Do not support Full Range Min/Max for collision with Pre-Min/Max.
; 429  : 	ClearMinMax();
; 430  : 
; 431  : 	m_standardValue.Set(false, 0.0);

  0011b	f2 0f 11 45 f8	 movsd	 QWORD PTR $T4[ebp], xmm0
  00120	e8 00 00 00 00	 call	 ?Set@CItemData@@QAEX_NABN@Z ; CItemData::Set

; 432  : 	m_upperBaseValue.Set(false, 0.0);

  00125	8d 45 f8	 lea	 eax, DWORD PTR $T3[ebp]
  00128	0f 57 c0	 xorps	 xmm0, xmm0
  0012b	50		 push	 eax
  0012c	6a 00		 push	 0
  0012e	8d 4e 40	 lea	 ecx, DWORD PTR [esi+64]
  00131	f2 0f 11 45 f8	 movsd	 QWORD PTR $T3[ebp], xmm0
  00136	e8 00 00 00 00	 call	 ?Set@CItemData@@QAEX_NABN@Z ; CItemData::Set

; 433  : 	m_lowerBaseValue.Set(false, 0.0);

  0013b	8d 45 f8	 lea	 eax, DWORD PTR $T2[ebp]
  0013e	0f 57 c0	 xorps	 xmm0, xmm0
  00141	50		 push	 eax
  00142	6a 00		 push	 0
  00144	8d 4e 50	 lea	 ecx, DWORD PTR [esi+80]
  00147	f2 0f 11 45 f8	 movsd	 QWORD PTR $T2[ebp], xmm0
  0014c	e8 00 00 00 00	 call	 ?Set@CItemData@@QAEX_NABN@Z ; CItemData::Set

; 434  : 	m_realDataGap.Set(false, 0.0);

  00151	8d 45 f8	 lea	 eax, DWORD PTR $T1[ebp]
  00154	0f 57 c0	 xorps	 xmm0, xmm0
  00157	50		 push	 eax
  00158	6a 00		 push	 0
  0015a	8d 4e 70	 lea	 ecx, DWORD PTR [esi+112]
  0015d	f2 0f 11 45 f8	 movsd	 QWORD PTR $T1[ebp], xmm0
  00162	e8 00 00 00 00	 call	 ?Set@CItemData@@QAEX_NABN@Z ; CItemData::Set

; 435  : 
; 436  : 	m_nStartPeriod = 0;

  00167	c7 46 24 00 00
	00 00		 mov	 DWORD PTR [esi+36], 0

; 437  : 	m_bAcceptFromServer = false; //sy 2005.11.08.

  0016e	c6 46 22 00	 mov	 BYTE PTR [esi+34], 0
  00172	5e		 pop	 esi

; 438  : }

  00173	8b e5		 mov	 esp, ebp
  00175	5d		 pop	 ebp
  00176	c2 04 00	 ret	 4
?Initialize@CPacketImplementation@@QAEX_N@Z ENDP	; CPacketImplementation::Initialize
_TEXT	ENDS
; Function compile flags: /Ogtp
; File D:\git\src\IBK\IBK_DRFN\ProjSrc\SrcChartEx\ChartOCX\PacketData\PacketImplementation.cpp
; File C:\Program Files (x86)\Microsoft Visual Studio\2019\Community\VC\Tools\MSVC\14.29.30133\atlmfc\include\afxtempl.h
; File D:\git\src\IBK\IBK_DRFN\ProjSrc\SrcChartEx\ChartOCX\PacketData\PacketImplementation.cpp
; File C:\Program Files (x86)\Microsoft Visual Studio\2019\Community\VC\Tools\MSVC\14.29.30133\atlmfc\include\afxtempl.h
; File D:\git\src\IBK\IBK_DRFN\ProjSrc\SrcChartEx\ChartOCX\PacketData\PacketImplementation.cpp
; File C:\Program Files (x86)\Microsoft Visual Studio\2019\Community\VC\Tools\MSVC\14.29.30133\atlmfc\include\afxtempl.h
; File D:\git\src\IBK\IBK_DRFN\ProjSrc\SrcChartEx\ChartOCX\PacketData\PacketImplementation.cpp
; File C:\Program Files (x86)\Microsoft Visual Studio\2019\Community\VC\Tools\MSVC\14.29.30133\atlmfc\include\afxtempl.h
; File D:\git\src\IBK\IBK_DRFN\ProjSrc\SrcChartEx\ChartOCX\PacketData\PacketImplementation.cpp
;	COMDAT ?ClearData@CPacketImplementation@@QAEH_N@Z
_TEXT	SEGMENT
_bClearIncludingTR$ = 8					; size = 1
?ClearData@CPacketImplementation@@QAEH_N@Z PROC		; CPacketImplementation::ClearData, COMDAT
; _this$ = ecx

; 443  : {

  00000	55		 push	 ebp
  00001	8b ec		 mov	 ebp, esp
  00003	56		 push	 esi
  00004	8b f1		 mov	 esi, ecx

; 444  : 	//  .
; 445  : 	//m_bBaseData true 
; 446  : 	if(m_bBaseData && !bClearIncludingTR)

  00006	80 7e 21 00	 cmp	 BYTE PTR [esi+33], 0
  0000a	74 0d		 je	 SHORT $LN2@ClearData
  0000c	80 7d 08 00	 cmp	 BYTE PTR _bClearIncludingTR$[ebp], 0
  00010	75 07		 jne	 SHORT $LN2@ClearData

; 447  : 		return 0;

  00012	33 c0		 xor	 eax, eax
  00014	5e		 pop	 esi

; 461  : }

  00015	5d		 pop	 ebp
  00016	c2 04 00	 ret	 4
$LN2@ClearData:
; File C:\Program Files (x86)\Microsoft Visual Studio\2019\Community\VC\Tools\MSVC\14.29.30133\atlmfc\include\afxtempl.h

; 872  : 	m_pBlocks->FreeDataChain();

  00019	8b 8e a8 00 00
	00		 mov	 ecx, DWORD PTR [esi+168]
  0001f	c7 86 a0 00 00
	00 00 00 00 00	 mov	 DWORD PTR [esi+160], 0
  00029	c7 86 a4 00 00
	00 00 00 00 00	 mov	 DWORD PTR [esi+164], 0
  00033	c7 86 9c 00 00
	00 00 00 00 00	 mov	 DWORD PTR [esi+156], 0
  0003d	c7 86 98 00 00
	00 00 00 00 00	 mov	 DWORD PTR [esi+152], 0
  00047	e8 00 00 00 00	 call	 ?FreeDataChain@CPlex@@QAEXXZ ; CPlex::FreeDataChain
; File D:\git\src\IBK\IBK_DRFN\ProjSrc\SrcChartEx\ChartOCX\PacketData\PacketImplementation.cpp

; 450  : 	m_lstrData.RemoveAll();

  0004c	8d 8e b0 00 00
	00		 lea	 ecx, DWORD PTR [esi+176]
; File C:\Program Files (x86)\Microsoft Visual Studio\2019\Community\VC\Tools\MSVC\14.29.30133\atlmfc\include\afxtempl.h

; 873  : 	m_pBlocks = NULL;

  00052	c7 86 a8 00 00
	00 00 00 00 00	 mov	 DWORD PTR [esi+168], 0
; File D:\git\src\IBK\IBK_DRFN\ProjSrc\SrcChartEx\ChartOCX\PacketData\PacketImplementation.cpp

; 450  : 	m_lstrData.RemoveAll();

  0005c	e8 00 00 00 00	 call	 ?RemoveAll@?$CList@V?$CStringT@DV?$StrTraitMFC_DLL@DV?$ChTraitsCRT@D@ATL@@@@@ATL@@V12@@@QAEXXZ ; CList<ATL::CStringT<char,StrTraitMFC_DLL<char,ATL::ChTraitsCRT<char> > >,ATL::CStringT<char,StrTraitMFC_DLL<char,ATL::ChTraitsCRT<char> > > >::RemoveAll
; File C:\Program Files (x86)\Microsoft Visual Studio\2019\Community\VC\Tools\MSVC\14.29.30133\atlmfc\include\afxtempl.h

; 872  : 	m_pBlocks->FreeDataChain();

  00061	8b 8e e4 00 00
	00		 mov	 ecx, DWORD PTR [esi+228]
  00067	c7 86 dc 00 00
	00 00 00 00 00	 mov	 DWORD PTR [esi+220], 0
  00071	c7 86 e0 00 00
	00 00 00 00 00	 mov	 DWORD PTR [esi+224], 0
  0007b	c7 86 d8 00 00
	00 00 00 00 00	 mov	 DWORD PTR [esi+216], 0
  00085	c7 86 d4 00 00
	00 00 00 00 00	 mov	 DWORD PTR [esi+212], 0
  0008f	e8 00 00 00 00	 call	 ?FreeDataChain@CPlex@@QAEXXZ ; CPlex::FreeDataChain
; File D:\git\src\IBK\IBK_DRFN\ProjSrc\SrcChartEx\ChartOCX\PacketData\PacketImplementation.cpp

; 1800 : 	m_dContinueCode_Pre			= -HUGE_VAL;

  00094	0f 28 05 00 00
	00 00		 movaps	 xmm0, XMMWORD PTR __xmm@fff0000000000000fff0000000000000

; 459  : 
; 460  : 	return 1 ;

  0009b	b8 01 00 00 00	 mov	 eax, 1

; 1805 : 	m_dPreMaxValue				= -DBL_MAX;

  000a0	f2 0f 10 0d 00
	00 00 00	 movsd	 xmm1, QWORD PTR __real@ffefffffffffffff
; File C:\Program Files (x86)\Microsoft Visual Studio\2019\Community\VC\Tools\MSVC\14.29.30133\atlmfc\include\afxtempl.h

; 873  : 	m_pBlocks = NULL;

  000a8	c7 86 e4 00 00
	00 00 00 00 00	 mov	 DWORD PTR [esi+228], 0
; File D:\git\src\IBK\IBK_DRFN\ProjSrc\SrcChartEx\ChartOCX\PacketData\PacketImplementation.cpp

; 1800 : 	m_dContinueCode_Pre			= -HUGE_VAL;

  000b2	0f 11 86 18 01
	00 00		 movups	 XMMWORD PTR [esi+280], xmm0
  000b9	c7 86 10 01 00
	00 00 00 00 00	 mov	 DWORD PTR [esi+272], 0

; 1806 : 	m_dPreMinValue				= DBL_MAX;

  000c3	f2 0f 10 05 00
	00 00 00	 movsd	 xmm0, QWORD PTR __real@7fefffffffffffff
  000cb	c7 86 28 01 00
	00 ff ff ff ff	 mov	 DWORD PTR [esi+296], -1
  000d5	c7 86 2c 01 00
	00 ff ff ff ff	 mov	 DWORD PTR [esi+300], -1
  000df	c7 86 30 01 00
	00 ff ff ff ff	 mov	 DWORD PTR [esi+304], -1
  000e9	f2 0f 11 8e 38
	01 00 00	 movsd	 QWORD PTR [esi+312], xmm1
  000f1	f2 0f 11 86 40
	01 00 00	 movsd	 QWORD PTR [esi+320], xmm0

; 1807 : 	m_dPreMaxValueWithoutEnd	= -DBL_MAX;

  000f9	f2 0f 11 8e 48
	01 00 00	 movsd	 QWORD PTR [esi+328], xmm1

; 1808 : 	m_dPreMinValueWithoutEnd	= DBL_MAX;

  00101	f2 0f 11 86 50
	01 00 00	 movsd	 QWORD PTR [esi+336], xmm0

; 451  : 	RemoveAllTempList();
; 452  : 
; 453  : 	// (2009/1/17 - Seung-Won, Bae) Support Min/Max cache. Do not make Min/Max every time of updating data.
; 454  : 	//		Do not support Full Range Min/Max for collision with Pre-Min/Max.
; 455  : 	ClearMinMax();
; 456  : 
; 457  : 	// (2009/5/26 - Seung-Won, Bae) Clear start period with data.
; 458  : 	m_nStartPeriod = 0;

  00109	c7 46 24 00 00
	00 00		 mov	 DWORD PTR [esi+36], 0
  00110	5e		 pop	 esi

; 461  : }

  00111	5d		 pop	 ebp
  00112	c2 04 00	 ret	 4
?ClearData@CPacketImplementation@@QAEH_N@Z ENDP		; CPacketImplementation::ClearData
_TEXT	ENDS
; Function compile flags: /Ogtp
; File D:\git\src\IBK\IBK_DRFN\ProjSrc\SrcChartEx\ChartOCX\PacketData\PacketImplementation.cpp
; File C:\Program Files (x86)\Microsoft Visual Studio\2019\Community\VC\Tools\MSVC\14.29.30133\atlmfc\include\afxtempl.h
; File D:\git\src\IBK\IBK_DRFN\ProjSrc\SrcChartEx\ChartOCX\PacketData\PacketImplementation.cpp
; File C:\Program Files (x86)\Microsoft Visual Studio\2019\Community\VC\Tools\MSVC\14.29.30133\atlmfc\include\afxtempl.h
; File D:\git\src\IBK\IBK_DRFN\ProjSrc\SrcChartEx\ChartOCX\PacketData\PacketImplementation.cpp
; File C:\Program Files (x86)\Microsoft Visual Studio\2019\Community\VC\Tools\MSVC\14.29.30133\atlmfc\include\afxtempl.h
; File D:\git\src\IBK\IBK_DRFN\ProjSrc\SrcChartEx\ChartOCX\PacketData\PacketImplementation.cpp
; File C:\Program Files (x86)\Microsoft Visual Studio\2019\Community\VC\Tools\MSVC\14.29.30133\atlmfc\include\afxtempl.h
; File D:\git\src\IBK\IBK_DRFN\ProjSrc\SrcChartEx\ChartOCX\PacketData\PacketImplementation.cpp
;	COMDAT ?RemoveFictionData@CPacketImplementation@@QAEHN_N@Z
_TEXT	SEGMENT
_dReallastDate$ = 8					; size = 8
_bDate$ = 16						; size = 1
?RemoveFictionData@CPacketImplementation@@QAEHN_N@Z PROC ; CPacketImplementation::RemoveFictionData, COMDAT
; _this$ = ecx

; 1232 : {

  00000	55		 push	 ebp
  00001	8b ec		 mov	 ebp, esp
  00003	53		 push	 ebx
  00004	56		 push	 esi
  00005	8b f1		 mov	 esi, ecx

; 1233 : 	// 
; 1234 : 	//dReallastDate    .
; 1235 : 	if(bDate == true) 

  00007	33 db		 xor	 ebx, ebx
  00009	80 7d 10 01	 cmp	 BYTE PTR _bDate$[ebp], 1
  0000d	57		 push	 edi
  0000e	8b 86 a0 00 00
	00		 mov	 eax, DWORD PTR [esi+160]
  00014	0f 85 49 01 00
	00		 jne	 $LN2@RemoveFict

; 1246 : 	if(m_lnData.GetCount() > 0)	{

  0001a	85 c0		 test	 eax, eax
  0001c	0f 8e 66 02 00
	00		 jle	 $LN76@RemoveFict

; 1247 : 		POSITION pos = m_lnData.GetTailPosition();

  00022	8b be 9c 00 00
	00		 mov	 edi, DWORD PTR [esi+156]

; 1248 : 		while(pos)

  00028	85 ff		 test	 edi, edi
  0002a	0f 84 58 02 00
	00		 je	 $LN76@RemoveFict
  00030	f2 0f 10 4d 08	 movsd	 xmm1, QWORD PTR _dReallastDate$[ebp]
$LL6@RemoveFict:
; File C:\Program Files (x86)\Microsoft Visual Studio\2019\Community\VC\Tools\MSVC\14.29.30133\atlmfc\include\afxtempl.h

; 823  : 	{ CNode* pNode = (CNode*) rPosition;

  00035	8b c7		 mov	 eax, edi

; 825  : 		rPosition = (POSITION) pNode->pPrev;

  00037	8d 57 04	 lea	 edx, DWORD PTR [edi+4]
; File D:\git\src\IBK\IBK_DRFN\ProjSrc\SrcChartEx\ChartOCX\PacketData\PacketImplementation.cpp

; 1250 : 			POSITION temp = pos;

  0003a	8b cf		 mov	 ecx, edi
; File C:\Program Files (x86)\Microsoft Visual Studio\2019\Community\VC\Tools\MSVC\14.29.30133\atlmfc\include\afxtempl.h

; 825  : 		rPosition = (POSITION) pNode->pPrev;

  0003c	8b 3a		 mov	 edi, DWORD PTR [edx]
; File D:\git\src\IBK\IBK_DRFN\ProjSrc\SrcChartEx\ChartOCX\PacketData\PacketImplementation.cpp

; 1251 : 			double dData = m_lnData.GetPrev(pos);

  0003e	f2 0f 10 40 08	 movsd	 xmm0, QWORD PTR [eax+8]

; 1252 : 			//dData fiction  .
; 1253 : 			//fiction  dData  .
; 1254 : 			if( dData < dReallastDate) return nDeleteCount;

  00043	66 0f 2f c8	 comisd	 xmm1, xmm0
  00047	0f 87 3b 02 00
	00		 ja	 $LN76@RemoveFict

; 1255 : 			if( dData > dReallastDate)

  0004d	66 0f 2f c1	 comisd	 xmm0, xmm1
  00051	0f 86 ed 00 00
	00		 jbe	 $LN10@RemoveFict
; File C:\Program Files (x86)\Microsoft Visual Studio\2019\Community\VC\Tools\MSVC\14.29.30133\atlmfc\include\afxtempl.h

; 1107 : 	if (pOldNode == m_pNodeHead)

  00057	8b 01		 mov	 eax, DWORD PTR [ecx]
  00059	3b 8e 98 00 00
	00		 cmp	 ecx, DWORD PTR [esi+152]
  0005f	75 08		 jne	 SHORT $LN17@RemoveFict

; 1108 : 	{
; 1109 : 		m_pNodeHead = pOldNode->pNext;

  00061	89 86 98 00 00
	00		 mov	 DWORD PTR [esi+152], eax

; 1110 : 	}

  00067	eb 02		 jmp	 SHORT $LN18@RemoveFict
$LN17@RemoveFict:

; 1111 : 	else
; 1112 : 	{
; 1113 : 		ASSERT(AfxIsValidAddress(pOldNode->pPrev, sizeof(CNode)));
; 1114 : 		pOldNode->pPrev->pNext = pOldNode->pNext;

  00069	89 07		 mov	 DWORD PTR [edi], eax
$LN18@RemoveFict:

; 1115 : 	}
; 1116 : 	if (pOldNode == m_pNodeTail)

  0006b	8b 12		 mov	 edx, DWORD PTR [edx]
  0006d	3b 8e 9c 00 00
	00		 cmp	 ecx, DWORD PTR [esi+156]
  00073	75 08		 jne	 SHORT $LN19@RemoveFict

; 1117 : 	{
; 1118 : 		m_pNodeTail = pOldNode->pPrev;

  00075	89 96 9c 00 00
	00		 mov	 DWORD PTR [esi+156], edx

; 1119 : 	}

  0007b	eb 05		 jmp	 SHORT $LN20@RemoveFict
$LN19@RemoveFict:

; 1120 : 	else
; 1121 : 	{
; 1122 : 		ASSERT(AfxIsValidAddress(pOldNode->pNext, sizeof(CNode)));
; 1123 : 		pOldNode->pNext->pPrev = pOldNode->pPrev;

  0007d	8b 01		 mov	 eax, DWORD PTR [ecx]
  0007f	89 50 04	 mov	 DWORD PTR [eax+4], edx
$LN20@RemoveFict:

; 938  : 	pNode->pNext = m_pNodeFree;

  00082	8b 86 a4 00 00
	00		 mov	 eax, DWORD PTR [esi+164]
  00088	89 01		 mov	 DWORD PTR [ecx], eax

; 939  : 	m_pNodeFree = pNode;
; 940  : 	m_nCount--;

  0008a	83 86 a0 00 00
	00 ff		 add	 DWORD PTR [esi+160], -1
  00091	89 8e a4 00 00
	00		 mov	 DWORD PTR [esi+164], ecx

; 941  : 	ASSERT(m_nCount >= 0);  // make sure we don't underflow
; 942  : 
; 943  : 	// if no more elements, cleanup completely
; 944  : 	if (m_nCount == 0)

  00097	75 42		 jne	 SHORT $LN23@RemoveFict

; 872  : 	m_pBlocks->FreeDataChain();

  00099	8b 8e a8 00 00
	00		 mov	 ecx, DWORD PTR [esi+168]
  0009f	c7 86 a0 00 00
	00 00 00 00 00	 mov	 DWORD PTR [esi+160], 0
  000a9	c7 86 a4 00 00
	00 00 00 00 00	 mov	 DWORD PTR [esi+164], 0
  000b3	c7 86 9c 00 00
	00 00 00 00 00	 mov	 DWORD PTR [esi+156], 0
  000bd	c7 86 98 00 00
	00 00 00 00 00	 mov	 DWORD PTR [esi+152], 0
  000c7	e8 00 00 00 00	 call	 ?FreeDataChain@CPlex@@QAEXXZ ; CPlex::FreeDataChain
  000cc	f2 0f 10 4d 08	 movsd	 xmm1, QWORD PTR _dReallastDate$[ebp]

; 873  : 	m_pBlocks = NULL;

  000d1	c7 86 a8 00 00
	00 00 00 00 00	 mov	 DWORD PTR [esi+168], 0
$LN23@RemoveFict:
; File D:\git\src\IBK\IBK_DRFN\ProjSrc\SrcChartEx\ChartOCX\PacketData\PacketImplementation.cpp

; 1800 : 	m_dContinueCode_Pre			= -HUGE_VAL;

  000db	0f 28 05 00 00
	00 00		 movaps	 xmm0, XMMWORD PTR __xmm@fff0000000000000fff0000000000000

; 1258 : 				nDeleteCount++;

  000e2	43		 inc	 ebx

; 1806 : 	m_dPreMinValue				= DBL_MAX;

  000e3	f2 0f 10 15 00
	00 00 00	 movsd	 xmm2, QWORD PTR __real@7fefffffffffffff
  000eb	0f 11 86 18 01
	00 00		 movups	 XMMWORD PTR [esi+280], xmm0
  000f2	c7 86 10 01 00
	00 00 00 00 00	 mov	 DWORD PTR [esi+272], 0
  000fc	f2 0f 10 05 00
	00 00 00	 movsd	 xmm0, QWORD PTR __real@ffefffffffffffff
  00104	c7 86 28 01 00
	00 ff ff ff ff	 mov	 DWORD PTR [esi+296], -1
  0010e	c7 86 2c 01 00
	00 ff ff ff ff	 mov	 DWORD PTR [esi+300], -1
  00118	c7 86 30 01 00
	00 ff ff ff ff	 mov	 DWORD PTR [esi+304], -1
  00122	f2 0f 11 86 38
	01 00 00	 movsd	 QWORD PTR [esi+312], xmm0
  0012a	f2 0f 11 96 40
	01 00 00	 movsd	 QWORD PTR [esi+320], xmm2

; 1807 : 	m_dPreMaxValueWithoutEnd	= -DBL_MAX;

  00132	f2 0f 11 86 48
	01 00 00	 movsd	 QWORD PTR [esi+328], xmm0

; 1808 : 	m_dPreMinValueWithoutEnd	= DBL_MAX;

  0013a	f2 0f 11 96 50
	01 00 00	 movsd	 QWORD PTR [esi+336], xmm2

; 1260 : 			}

  00142	eb 0e		 jmp	 SHORT $LN12@RemoveFict
$LN10@RemoveFict:

; 1261 : 			else if(dData == dReallastDate) 

  00144	66 0f 2e c1	 ucomisd xmm0, xmm1
  00148	9f		 lahf
  00149	f6 c4 44	 test	 ah, 68			; 00000044H
  0014c	0f 8b 36 01 00
	00		 jnp	 $LN76@RemoveFict
$LN12@RemoveFict:

; 1248 : 		while(pos)

  00152	85 ff		 test	 edi, edi
  00154	0f 85 db fe ff
	ff		 jne	 $LL6@RemoveFict

; 1236 : 		return RemoveDateData(dReallastDate);
; 1237 : 	else  // dReallastDate   packet count.
; 1238 : 		return RemoveBaseData(dReallastDate);
; 1239 : 
; 1240 : 	return false;
; 1241 : }

  0015a	5f		 pop	 edi
  0015b	5e		 pop	 esi
  0015c	8b c3		 mov	 eax, ebx
  0015e	5b		 pop	 ebx
  0015f	5d		 pop	 ebp
  00160	c2 0c 00	 ret	 12			; 0000000cH
$LN2@RemoveFict:

; 1271 : 	if(m_lnData.GetCount() > 0)	{

  00163	85 c0		 test	 eax, eax
  00165	0f 8e b7 00 00
	00		 jle	 $LN77@RemoveFict

; 1272 : 		POSITION pos = m_lnData.GetTailPosition();

  0016b	8b be 9c 00 00
	00		 mov	 edi, DWORD PTR [esi+156]

; 1273 : 		while(pos) {

  00171	85 ff		 test	 edi, edi
  00173	0f 84 a9 00 00
	00		 je	 $LN77@RemoveFict
  00179	0f 1f 80 00 00
	00 00		 npad	 7
$LL33@RemoveFict:
  00180	66 0f 6e c3	 movd	 xmm0, ebx

; 1274 : 			if(nDeleteCount >= nCount)

  00184	f3 0f e6 c0	 cvtdq2pd xmm0, xmm0
  00188	66 0f 2f 45 08	 comisd	 xmm0, QWORD PTR _dReallastDate$[ebp]
  0018d	0f 83 8f 00 00
	00		 jae	 $LN77@RemoveFict

; 1275 : 				break;
; 1276 : 
; 1277 : 			POSITION temp = pos;

  00193	8b cf		 mov	 ecx, edi
; File C:\Program Files (x86)\Microsoft Visual Studio\2019\Community\VC\Tools\MSVC\14.29.30133\atlmfc\include\afxtempl.h

; 825  : 		rPosition = (POSITION) pNode->pPrev;

  00195	8d 57 04	 lea	 edx, DWORD PTR [edi+4]
  00198	8b 3a		 mov	 edi, DWORD PTR [edx]

; 1107 : 	if (pOldNode == m_pNodeHead)

  0019a	8b 01		 mov	 eax, DWORD PTR [ecx]
  0019c	3b 8e 98 00 00
	00		 cmp	 ecx, DWORD PTR [esi+152]
  001a2	75 08		 jne	 SHORT $LN41@RemoveFict

; 1108 : 	{
; 1109 : 		m_pNodeHead = pOldNode->pNext;

  001a4	89 86 98 00 00
	00		 mov	 DWORD PTR [esi+152], eax

; 1110 : 	}

  001aa	eb 02		 jmp	 SHORT $LN42@RemoveFict
$LN41@RemoveFict:

; 1111 : 	else
; 1112 : 	{
; 1113 : 		ASSERT(AfxIsValidAddress(pOldNode->pPrev, sizeof(CNode)));
; 1114 : 		pOldNode->pPrev->pNext = pOldNode->pNext;

  001ac	89 07		 mov	 DWORD PTR [edi], eax
$LN42@RemoveFict:

; 1115 : 	}
; 1116 : 	if (pOldNode == m_pNodeTail)

  001ae	8b 12		 mov	 edx, DWORD PTR [edx]
  001b0	3b 8e 9c 00 00
	00		 cmp	 ecx, DWORD PTR [esi+156]
  001b6	75 08		 jne	 SHORT $LN43@RemoveFict

; 1117 : 	{
; 1118 : 		m_pNodeTail = pOldNode->pPrev;

  001b8	89 96 9c 00 00
	00		 mov	 DWORD PTR [esi+156], edx

; 1119 : 	}

  001be	eb 05		 jmp	 SHORT $LN44@RemoveFict
$LN43@RemoveFict:

; 1120 : 	else
; 1121 : 	{
; 1122 : 		ASSERT(AfxIsValidAddress(pOldNode->pNext, sizeof(CNode)));
; 1123 : 		pOldNode->pNext->pPrev = pOldNode->pPrev;

  001c0	8b 01		 mov	 eax, DWORD PTR [ecx]
  001c2	89 50 04	 mov	 DWORD PTR [eax+4], edx
$LN44@RemoveFict:

; 938  : 	pNode->pNext = m_pNodeFree;

  001c5	8b 86 a4 00 00
	00		 mov	 eax, DWORD PTR [esi+164]
  001cb	89 01		 mov	 DWORD PTR [ecx], eax

; 939  : 	m_pNodeFree = pNode;
; 940  : 	m_nCount--;

  001cd	83 86 a0 00 00
	00 ff		 add	 DWORD PTR [esi+160], -1
  001d4	89 8e a4 00 00
	00		 mov	 DWORD PTR [esi+164], ecx

; 941  : 	ASSERT(m_nCount >= 0);  // make sure we don't underflow
; 942  : 
; 943  : 	// if no more elements, cleanup completely
; 944  : 	if (m_nCount == 0)

  001da	75 3d		 jne	 SHORT $LN47@RemoveFict

; 872  : 	m_pBlocks->FreeDataChain();

  001dc	8b 8e a8 00 00
	00		 mov	 ecx, DWORD PTR [esi+168]
  001e2	c7 86 a0 00 00
	00 00 00 00 00	 mov	 DWORD PTR [esi+160], 0
  001ec	c7 86 a4 00 00
	00 00 00 00 00	 mov	 DWORD PTR [esi+164], 0
  001f6	c7 86 9c 00 00
	00 00 00 00 00	 mov	 DWORD PTR [esi+156], 0
  00200	c7 86 98 00 00
	00 00 00 00 00	 mov	 DWORD PTR [esi+152], 0
  0020a	e8 00 00 00 00	 call	 ?FreeDataChain@CPlex@@QAEXXZ ; CPlex::FreeDataChain

; 873  : 	m_pBlocks = NULL;

  0020f	c7 86 a8 00 00
	00 00 00 00 00	 mov	 DWORD PTR [esi+168], 0
$LN47@RemoveFict:
; File D:\git\src\IBK\IBK_DRFN\ProjSrc\SrcChartEx\ChartOCX\PacketData\PacketImplementation.cpp

; 1281 : 			nDeleteCount++;

  00219	43		 inc	 ebx
  0021a	85 ff		 test	 edi, edi
  0021c	0f 85 5e ff ff
	ff		 jne	 $LL33@RemoveFict
$LN77@RemoveFict:

; 1800 : 	m_dContinueCode_Pre			= -HUGE_VAL;

  00222	0f 28 05 00 00
	00 00		 movaps	 xmm0, XMMWORD PTR __xmm@fff0000000000000fff0000000000000

; 1801 : 	m_dExceptionValue_Pre		= -HUGE_VAL;
; 1802 : 	m_nStartPeriod_Pre			= -1;
; 1803 : 	m_nStartIndex_Pre			= -1;
; 1804 : 	m_nEndIndex_Pre				= -1;
; 1805 : 	m_dPreMaxValue				= -DBL_MAX;

  00229	f2 0f 10 0d 00
	00 00 00	 movsd	 xmm1, QWORD PTR __real@ffefffffffffffff
  00231	0f 11 86 18 01
	00 00		 movups	 XMMWORD PTR [esi+280], xmm0
  00238	c7 86 10 01 00
	00 00 00 00 00	 mov	 DWORD PTR [esi+272], 0

; 1806 : 	m_dPreMinValue				= DBL_MAX;

  00242	f2 0f 10 05 00
	00 00 00	 movsd	 xmm0, QWORD PTR __real@7fefffffffffffff
  0024a	c7 86 28 01 00
	00 ff ff ff ff	 mov	 DWORD PTR [esi+296], -1
  00254	c7 86 2c 01 00
	00 ff ff ff ff	 mov	 DWORD PTR [esi+300], -1
  0025e	c7 86 30 01 00
	00 ff ff ff ff	 mov	 DWORD PTR [esi+304], -1
  00268	f2 0f 11 8e 38
	01 00 00	 movsd	 QWORD PTR [esi+312], xmm1
  00270	f2 0f 11 86 40
	01 00 00	 movsd	 QWORD PTR [esi+320], xmm0

; 1807 : 	m_dPreMaxValueWithoutEnd	= -DBL_MAX;

  00278	f2 0f 11 8e 48
	01 00 00	 movsd	 QWORD PTR [esi+328], xmm1

; 1808 : 	m_dPreMinValueWithoutEnd	= DBL_MAX;

  00280	f2 0f 11 86 50
	01 00 00	 movsd	 QWORD PTR [esi+336], xmm0
$LN76@RemoveFict:
  00288	5f		 pop	 edi

; 1236 : 		return RemoveDateData(dReallastDate);
; 1237 : 	else  // dReallastDate   packet count.
; 1238 : 		return RemoveBaseData(dReallastDate);
; 1239 : 
; 1240 : 	return false;
; 1241 : }

  00289	5e		 pop	 esi
  0028a	8b c3		 mov	 eax, ebx
  0028c	5b		 pop	 ebx
  0028d	5d		 pop	 ebp
  0028e	c2 0c 00	 ret	 12			; 0000000cH
?RemoveFictionData@CPacketImplementation@@QAEHN_N@Z ENDP ; CPacketImplementation::RemoveFictionData
_TEXT	ENDS
; Function compile flags: /Ogtp
; File D:\git\src\IBK\IBK_DRFN\ProjSrc\SrcChartEx\ChartOCX\PacketData\PacketImplementation.cpp
; File C:\Program Files (x86)\Microsoft Visual Studio\2019\Community\VC\Tools\MSVC\14.29.30133\atlmfc\include\afxtempl.h
; File D:\git\src\IBK\IBK_DRFN\ProjSrc\SrcChartEx\ChartOCX\PacketData\PacketImplementation.cpp
;	COMDAT ?RemoveBaseData@CPacketImplementation@@QAEHN@Z
_TEXT	SEGMENT
_nCount$ = 8						; size = 8
?RemoveBaseData@CPacketImplementation@@QAEHN@Z PROC	; CPacketImplementation::RemoveBaseData, COMDAT
; _this$ = ecx

; 1269 : {

  00000	55		 push	 ebp
  00001	8b ec		 mov	 ebp, esp
  00003	56		 push	 esi
  00004	8b f1		 mov	 esi, ecx
  00006	57		 push	 edi

; 1270 : 	int nDeleteCount = 0;

  00007	33 ff		 xor	 edi, edi

; 1271 : 	if(m_lnData.GetCount() > 0)	{

  00009	39 be a0 00 00
	00		 cmp	 DWORD PTR [esi+160], edi
  0000f	0f 8e be 00 00
	00		 jle	 $LN35@RemoveBase

; 1272 : 		POSITION pos = m_lnData.GetTailPosition();

  00015	53		 push	 ebx
  00016	8b 9e 9c 00 00
	00		 mov	 ebx, DWORD PTR [esi+156]

; 1273 : 		while(pos) {

  0001c	85 db		 test	 ebx, ebx
  0001e	0f 84 ae 00 00
	00		 je	 $LN36@RemoveBase
  00024	0f 1f 40 00 0f
	1f 84 00 00 00
	00 00		 npad	 12
$LL2@RemoveBase:
  00030	66 0f 6e c7	 movd	 xmm0, edi

; 1274 : 			if(nDeleteCount >= nCount)

  00034	f3 0f e6 c0	 cvtdq2pd xmm0, xmm0
  00038	66 0f 2f 45 08	 comisd	 xmm0, QWORD PTR _nCount$[ebp]
  0003d	0f 83 8f 00 00
	00		 jae	 $LN36@RemoveBase

; 1275 : 				break;
; 1276 : 
; 1277 : 			POSITION temp = pos;

  00043	8b cb		 mov	 ecx, ebx
; File C:\Program Files (x86)\Microsoft Visual Studio\2019\Community\VC\Tools\MSVC\14.29.30133\atlmfc\include\afxtempl.h

; 825  : 		rPosition = (POSITION) pNode->pPrev;

  00045	8d 53 04	 lea	 edx, DWORD PTR [ebx+4]
  00048	8b 1a		 mov	 ebx, DWORD PTR [edx]

; 1107 : 	if (pOldNode == m_pNodeHead)

  0004a	8b 01		 mov	 eax, DWORD PTR [ecx]
  0004c	3b 8e 98 00 00
	00		 cmp	 ecx, DWORD PTR [esi+152]
  00052	75 08		 jne	 SHORT $LN10@RemoveBase

; 1108 : 	{
; 1109 : 		m_pNodeHead = pOldNode->pNext;

  00054	89 86 98 00 00
	00		 mov	 DWORD PTR [esi+152], eax

; 1110 : 	}

  0005a	eb 02		 jmp	 SHORT $LN11@RemoveBase
$LN10@RemoveBase:

; 1111 : 	else
; 1112 : 	{
; 1113 : 		ASSERT(AfxIsValidAddress(pOldNode->pPrev, sizeof(CNode)));
; 1114 : 		pOldNode->pPrev->pNext = pOldNode->pNext;

  0005c	89 03		 mov	 DWORD PTR [ebx], eax
$LN11@RemoveBase:

; 1115 : 	}
; 1116 : 	if (pOldNode == m_pNodeTail)

  0005e	8b 12		 mov	 edx, DWORD PTR [edx]
  00060	3b 8e 9c 00 00
	00		 cmp	 ecx, DWORD PTR [esi+156]
  00066	75 08		 jne	 SHORT $LN12@RemoveBase

; 1117 : 	{
; 1118 : 		m_pNodeTail = pOldNode->pPrev;

  00068	89 96 9c 00 00
	00		 mov	 DWORD PTR [esi+156], edx

; 1119 : 	}

  0006e	eb 05		 jmp	 SHORT $LN13@RemoveBase
$LN12@RemoveBase:

; 1120 : 	else
; 1121 : 	{
; 1122 : 		ASSERT(AfxIsValidAddress(pOldNode->pNext, sizeof(CNode)));
; 1123 : 		pOldNode->pNext->pPrev = pOldNode->pPrev;

  00070	8b 01		 mov	 eax, DWORD PTR [ecx]
  00072	89 50 04	 mov	 DWORD PTR [eax+4], edx
$LN13@RemoveBase:

; 938  : 	pNode->pNext = m_pNodeFree;

  00075	8b 86 a4 00 00
	00		 mov	 eax, DWORD PTR [esi+164]
  0007b	89 01		 mov	 DWORD PTR [ecx], eax

; 939  : 	m_pNodeFree = pNode;
; 940  : 	m_nCount--;

  0007d	83 86 a0 00 00
	00 ff		 add	 DWORD PTR [esi+160], -1
  00084	89 8e a4 00 00
	00		 mov	 DWORD PTR [esi+164], ecx

; 941  : 	ASSERT(m_nCount >= 0);  // make sure we don't underflow
; 942  : 
; 943  : 	// if no more elements, cleanup completely
; 944  : 	if (m_nCount == 0)

  0008a	75 3d		 jne	 SHORT $LN16@RemoveBase

; 872  : 	m_pBlocks->FreeDataChain();

  0008c	8b 8e a8 00 00
	00		 mov	 ecx, DWORD PTR [esi+168]
  00092	c7 86 a0 00 00
	00 00 00 00 00	 mov	 DWORD PTR [esi+160], 0
  0009c	c7 86 a4 00 00
	00 00 00 00 00	 mov	 DWORD PTR [esi+164], 0
  000a6	c7 86 9c 00 00
	00 00 00 00 00	 mov	 DWORD PTR [esi+156], 0
  000b0	c7 86 98 00 00
	00 00 00 00 00	 mov	 DWORD PTR [esi+152], 0
  000ba	e8 00 00 00 00	 call	 ?FreeDataChain@CPlex@@QAEXXZ ; CPlex::FreeDataChain

; 873  : 	m_pBlocks = NULL;

  000bf	c7 86 a8 00 00
	00 00 00 00 00	 mov	 DWORD PTR [esi+168], 0
$LN16@RemoveBase:
; File D:\git\src\IBK\IBK_DRFN\ProjSrc\SrcChartEx\ChartOCX\PacketData\PacketImplementation.cpp

; 1281 : 			nDeleteCount++;

  000c9	47		 inc	 edi
  000ca	85 db		 test	 ebx, ebx
  000cc	0f 85 5e ff ff
	ff		 jne	 $LL2@RemoveBase
$LN36@RemoveBase:
  000d2	5b		 pop	 ebx
$LN35@RemoveBase:

; 1800 : 	m_dContinueCode_Pre			= -HUGE_VAL;

  000d3	0f 28 05 00 00
	00 00		 movaps	 xmm0, XMMWORD PTR __xmm@fff0000000000000fff0000000000000

; 1282 : 		}
; 1283 : 	}
; 1284 : 	ClearMinMax();
; 1285 : 	return nDeleteCount;

  000da	8b c7		 mov	 eax, edi

; 1805 : 	m_dPreMaxValue				= -DBL_MAX;

  000dc	f2 0f 10 0d 00
	00 00 00	 movsd	 xmm1, QWORD PTR __real@ffefffffffffffff
  000e4	0f 11 86 18 01
	00 00		 movups	 XMMWORD PTR [esi+280], xmm0

; 1282 : 		}
; 1283 : 	}
; 1284 : 	ClearMinMax();
; 1285 : 	return nDeleteCount;

  000eb	5f		 pop	 edi

; 1806 : 	m_dPreMinValue				= DBL_MAX;

  000ec	f2 0f 10 05 00
	00 00 00	 movsd	 xmm0, QWORD PTR __real@7fefffffffffffff
  000f4	c7 86 10 01 00
	00 00 00 00 00	 mov	 DWORD PTR [esi+272], 0
  000fe	c7 86 28 01 00
	00 ff ff ff ff	 mov	 DWORD PTR [esi+296], -1
  00108	c7 86 2c 01 00
	00 ff ff ff ff	 mov	 DWORD PTR [esi+300], -1
  00112	c7 86 30 01 00
	00 ff ff ff ff	 mov	 DWORD PTR [esi+304], -1
  0011c	f2 0f 11 8e 38
	01 00 00	 movsd	 QWORD PTR [esi+312], xmm1
  00124	f2 0f 11 86 40
	01 00 00	 movsd	 QWORD PTR [esi+320], xmm0

; 1807 : 	m_dPreMaxValueWithoutEnd	= -DBL_MAX;

  0012c	f2 0f 11 8e 48
	01 00 00	 movsd	 QWORD PTR [esi+328], xmm1

; 1808 : 	m_dPreMinValueWithoutEnd	= DBL_MAX;

  00134	f2 0f 11 86 50
	01 00 00	 movsd	 QWORD PTR [esi+336], xmm0

; 1282 : 		}
; 1283 : 	}
; 1284 : 	ClearMinMax();
; 1285 : 	return nDeleteCount;

  0013c	5e		 pop	 esi

; 1286 : }

  0013d	5d		 pop	 ebp
  0013e	c2 08 00	 ret	 8
?RemoveBaseData@CPacketImplementation@@QAEHN@Z ENDP	; CPacketImplementation::RemoveBaseData
_TEXT	ENDS
; Function compile flags: /Ogtp
; File D:\git\src\IBK\IBK_DRFN\ProjSrc\SrcChartEx\ChartOCX\PacketData\PacketImplementation.cpp
; File C:\Program Files (x86)\Microsoft Visual Studio\2019\Community\VC\Tools\MSVC\14.29.30133\atlmfc\include\cstringt.h
; File D:\git\src\IBK\IBK_DRFN\ProjSrc\SrcChartEx\ChartOCX\PacketData\PacketImplementation.cpp
; File C:\Program Files (x86)\Microsoft Visual Studio\2019\Community\VC\Tools\MSVC\14.29.30133\atlmfc\include\afxtempl.h
; File D:\git\src\IBK\IBK_DRFN\ProjSrc\SrcChartEx\ChartOCX\PacketData\PacketImplementation.cpp
; File C:\Program Files (x86)\Microsoft Visual Studio\2019\Community\VC\Tools\MSVC\14.29.30133\atlmfc\include\afxtempl.h
; File D:\git\src\IBK\IBK_DRFN\ProjSrc\SrcChartEx\ChartOCX\PacketData\PacketImplementation.cpp
; File C:\Program Files (x86)\Microsoft Visual Studio\2019\Community\VC\Tools\MSVC\14.29.30133\atlmfc\include\afxtempl.h
; File D:\git\src\IBK\IBK_DRFN\ProjSrc\SrcChartEx\ChartOCX\PacketData\PacketImplementation.cpp
; File C:\Program Files (x86)\Microsoft Visual Studio\2019\Community\VC\Tools\MSVC\14.29.30133\atlmfc\include\afxtempl.h
; File D:\git\src\IBK\IBK_DRFN\ProjSrc\SrcChartEx\ChartOCX\PacketData\PacketImplementation.cpp
;	COMDAT ?RemoveData@CPacketImplementation@@QAE_NHH@Z
_TEXT	SEGMENT
_nIntDataCount$1$ = -28					; size = 4
_nStrDataCount$1$ = -24					; size = 4
$T2 = -20						; size = 4
$T3 = -16						; size = 4
__$EHRec$ = -12						; size = 12
_i$1$ = 8						; size = 4
_nStart$ = 8						; size = 4
_nEnd$ = 12						; size = 4
?RemoveData@CPacketImplementation@@QAE_NHH@Z PROC	; CPacketImplementation::RemoveData, COMDAT
; _this$ = ecx

; 1073 : {

  00000	55		 push	 ebp
  00001	8b ec		 mov	 ebp, esp
  00003	6a ff		 push	 -1
  00005	68 00 00 00 00	 push	 __ehhandler$?RemoveData@CPacketImplementation@@QAE_NHH@Z
  0000a	64 a1 00 00 00
	00		 mov	 eax, DWORD PTR fs:0
  00010	50		 push	 eax
  00011	83 ec 10	 sub	 esp, 16			; 00000010H
  00014	53		 push	 ebx
  00015	56		 push	 esi
  00016	57		 push	 edi
  00017	a1 00 00 00 00	 mov	 eax, DWORD PTR ___security_cookie
  0001c	33 c5		 xor	 eax, ebp
  0001e	50		 push	 eax
  0001f	8d 45 f4	 lea	 eax, DWORD PTR __$EHRec$[ebp]
  00022	64 a3 00 00 00
	00		 mov	 DWORD PTR fs:0, eax
  00028	8b f1		 mov	 esi, ecx
  0002a	c7 45 f0 00 00
	00 00		 mov	 DWORD PTR $T3[ebp], 0

; 106  : 	if(m_Type == _MTEXT( C6_CHARACTER))

  00031	8d 4e 64	 lea	 ecx, DWORD PTR [esi+100]
  00034	a1 54 00 00 00	 mov	 eax, DWORD PTR ?g_iMetaTable@@3VIMetaTable@@A+84
; File C:\Program Files (x86)\Microsoft Visual Studio\2019\Community\VC\Tools\MSVC\14.29.30133\atlmfc\include\cstringt.h

; 2486 : 		return(str1.Compare(psz2) == 0);

  00039	ff b0 60 09 00
	00		 push	 DWORD PTR [eax+2400]
  0003f	ff 15 00 00 00
	00		 call	 DWORD PTR __imp_?Compare@?$CStringT@DV?$StrTraitMFC_DLL@DV?$ChTraitsCRT@D@ATL@@@@@ATL@@QBEHPBD@Z
  00045	85 c0		 test	 eax, eax
; File D:\git\src\IBK\IBK_DRFN\ProjSrc\SrcChartEx\ChartOCX\PacketData\PacketImplementation.cpp

; 106  : 	if(m_Type == _MTEXT( C6_CHARACTER))

  00047	75 08		 jne	 SHORT $LN18@RemoveData

; 107  : 		return m_lstrData.GetCount();

  00049	8b 86 bc 00 00
	00		 mov	 eax, DWORD PTR [esi+188]
  0004f	eb 06		 jmp	 SHORT $LN19@RemoveData
$LN18@RemoveData:

; 108  : 	else
; 109  : 		return m_lnData.GetCount();

  00051	8b 86 a0 00 00
	00		 mov	 eax, DWORD PTR [esi+160]
$LN19@RemoveData:

; 1074 : 	if(GetCount() < nEnd || nStart != 0)

  00057	8b 5d 0c	 mov	 ebx, DWORD PTR _nEnd$[ebp]
  0005a	3b c3		 cmp	 eax, ebx
  0005c	0f 8c 04 02 00
	00		 jl	 $LN9@RemoveData
  00062	83 7d 08 00	 cmp	 DWORD PTR _nStart$[ebp], 0
  00066	0f 85 fa 01 00
	00		 jne	 $LN9@RemoveData

; 1075 : 		return false;
; 1076 : 
; 1077 : 	// 
; 1078 : 	int nIntDataCount = m_lnData.GetCount();

  0006c	8b 86 a0 00 00
	00		 mov	 eax, DWORD PTR [esi+160]
  00072	89 45 e4	 mov	 DWORD PTR _nIntDataCount$1$[ebp], eax

; 1079 : 	if(nIntDataCount > 0)

  00075	85 c0		 test	 eax, eax
  00077	0f 8e 9d 00 00
	00		 jle	 $LN3@RemoveData

; 1081 : 		for(int i = nStart; i < nEnd; i++)

  0007d	33 ff		 xor	 edi, edi
  0007f	85 db		 test	 ebx, ebx
  00081	0f 8e 93 00 00
	00		 jle	 $LN3@RemoveData
  00087	66 0f 1f 84 00
	00 00 00 00	 npad	 9
$LL4@RemoveData:
; File C:\Program Files (x86)\Microsoft Visual Studio\2019\Community\VC\Tools\MSVC\14.29.30133\atlmfc\include\afxtempl.h

; 1009 : 	ENSURE(m_pNodeHead != NULL);  // don't call on empty list !!!

  00090	8b 8e 98 00 00
	00		 mov	 ecx, DWORD PTR [esi+152]
  00096	85 c9		 test	 ecx, ecx
  00098	0f 84 de 01 00
	00		 je	 $LN61@RemoveData

; 1014 : 
; 1015 : 	m_pNodeHead = pOldNode->pNext;

  0009e	8b 01		 mov	 eax, DWORD PTR [ecx]
  000a0	89 86 98 00 00
	00		 mov	 DWORD PTR [esi+152], eax

; 1016 : 	if (m_pNodeHead != NULL)

  000a6	85 c0		 test	 eax, eax
  000a8	74 09		 je	 SHORT $LN28@RemoveData

; 1017 : 		m_pNodeHead->pPrev = NULL;

  000aa	c7 40 04 00 00
	00 00		 mov	 DWORD PTR [eax+4], 0
  000b1	eb 0a		 jmp	 SHORT $LN29@RemoveData
$LN28@RemoveData:

; 1018 : 	else
; 1019 : 		m_pNodeTail = NULL;

  000b3	c7 86 9c 00 00
	00 00 00 00 00	 mov	 DWORD PTR [esi+156], 0
$LN29@RemoveData:

; 938  : 	pNode->pNext = m_pNodeFree;

  000bd	8b 86 a4 00 00
	00		 mov	 eax, DWORD PTR [esi+164]
  000c3	89 01		 mov	 DWORD PTR [ecx], eax

; 939  : 	m_pNodeFree = pNode;
; 940  : 	m_nCount--;

  000c5	83 86 a0 00 00
	00 ff		 add	 DWORD PTR [esi+160], -1
  000cc	89 8e a4 00 00
	00		 mov	 DWORD PTR [esi+164], ecx

; 941  : 	ASSERT(m_nCount >= 0);  // make sure we don't underflow
; 942  : 
; 943  : 	// if no more elements, cleanup completely
; 944  : 	if (m_nCount == 0)

  000d2	75 3d		 jne	 SHORT $LN2@RemoveData

; 872  : 	m_pBlocks->FreeDataChain();

  000d4	8b 8e a8 00 00
	00		 mov	 ecx, DWORD PTR [esi+168]
  000da	c7 86 a0 00 00
	00 00 00 00 00	 mov	 DWORD PTR [esi+160], 0
  000e4	c7 86 a4 00 00
	00 00 00 00 00	 mov	 DWORD PTR [esi+164], 0
  000ee	c7 86 9c 00 00
	00 00 00 00 00	 mov	 DWORD PTR [esi+156], 0
  000f8	c7 86 98 00 00
	00 00 00 00 00	 mov	 DWORD PTR [esi+152], 0
  00102	e8 00 00 00 00	 call	 ?FreeDataChain@CPlex@@QAEXXZ ; CPlex::FreeDataChain

; 873  : 	m_pBlocks = NULL;

  00107	c7 86 a8 00 00
	00 00 00 00 00	 mov	 DWORD PTR [esi+168], 0
$LN2@RemoveData:
; File D:\git\src\IBK\IBK_DRFN\ProjSrc\SrcChartEx\ChartOCX\PacketData\PacketImplementation.cpp

; 1081 : 		for(int i = nStart; i < nEnd; i++)

  00111	47		 inc	 edi
  00112	3b fb		 cmp	 edi, ebx
  00114	0f 8c 76 ff ff
	ff		 jl	 $LL4@RemoveData
$LN3@RemoveData:

; 1082 : 			m_lnData.RemoveHead();
; 1083 : 	}
; 1084 : 
; 1085 : 	// 
; 1086 : 	int nStrDataCount = m_lstrData.GetCount();

  0011a	8b 86 bc 00 00
	00		 mov	 eax, DWORD PTR [esi+188]
  00120	89 45 e8	 mov	 DWORD PTR _nStrDataCount$1$[ebp], eax

; 1087 : 	if(nStrDataCount > 0)

  00123	85 c0		 test	 eax, eax
  00125	0f 8e 92 00 00
	00		 jle	 $LN6@RemoveData

; 1088 : 	{
; 1089 : 		for(int i = nStart; i < nEnd; i++)

  0012b	c7 45 08 00 00
	00 00		 mov	 DWORD PTR _i$1$[ebp], 0
  00132	85 db		 test	 ebx, ebx
  00134	0f 8e 83 00 00
	00		 jle	 $LN6@RemoveData
  0013a	8d be b0 00 00
	00		 lea	 edi, DWORD PTR [esi+176]
$LL7@RemoveData:
; File C:\Program Files (x86)\Microsoft Visual Studio\2019\Community\VC\Tools\MSVC\14.29.30133\atlmfc\include\afxtempl.h

; 1009 : 	ENSURE(m_pNodeHead != NULL);  // don't call on empty list !!!

  00140	8b 5f 04	 mov	 ebx, DWORD PTR [edi+4]
; File D:\git\src\IBK\IBK_DRFN\ProjSrc\SrcChartEx\ChartOCX\PacketData\PacketImplementation.cpp

; 1090 : 			m_lstrData.RemoveHead();

  00143	c7 45 fc 00 00
	00 00		 mov	 DWORD PTR __$EHRec$[ebp+8], 0
; File C:\Program Files (x86)\Microsoft Visual Studio\2019\Community\VC\Tools\MSVC\14.29.30133\atlmfc\include\afxtempl.h

; 1009 : 	ENSURE(m_pNodeHead != NULL);  // don't call on empty list !!!

  0014a	85 db		 test	 ebx, ebx
  0014c	0f 84 2a 01 00
	00		 je	 $LN61@RemoveData

; 1010 : 	ASSERT(AfxIsValidAddress(m_pNodeHead, sizeof(CNode)));
; 1011 : 
; 1012 : 	CNode* pOldNode = m_pNodeHead;
; 1013 : 	TYPE returnValue = pOldNode->data;

  00152	8d 43 08	 lea	 eax, DWORD PTR [ebx+8]
  00155	50		 push	 eax
  00156	8d 4d ec	 lea	 ecx, DWORD PTR $T2[ebp]
  00159	ff 15 00 00 00
	00		 call	 DWORD PTR __imp_??0?$CStringT@DV?$StrTraitMFC_DLL@DV?$ChTraitsCRT@D@ATL@@@@@ATL@@QAE@ABV01@@Z

; 1020 : 	FreeNode(pOldNode);
; 1021 : 	return returnValue;

  0015f	83 4d f0 01	 or	 DWORD PTR $T3[ebp], 1
  00163	8b 03		 mov	 eax, DWORD PTR [ebx]
  00165	89 47 04	 mov	 DWORD PTR [edi+4], eax
  00168	85 c0		 test	 eax, eax
  0016a	74 09		 je	 SHORT $LN45@RemoveData

; 1017 : 		m_pNodeHead->pPrev = NULL;

  0016c	c7 40 04 00 00
	00 00		 mov	 DWORD PTR [eax+4], 0
  00173	eb 07		 jmp	 SHORT $LN46@RemoveData
$LN45@RemoveData:

; 1018 : 	else
; 1019 : 		m_pNodeTail = NULL;

  00175	c7 47 08 00 00
	00 00		 mov	 DWORD PTR [edi+8], 0
$LN46@RemoveData:

; 937  : 	pNode->data.~TYPE();

  0017c	8d 4b 08	 lea	 ecx, DWORD PTR [ebx+8]
  0017f	ff 15 00 00 00
	00		 call	 DWORD PTR __imp_??1?$CStringT@DV?$StrTraitMFC_DLL@DV?$ChTraitsCRT@D@ATL@@@@@ATL@@QAE@XZ

; 938  : 	pNode->pNext = m_pNodeFree;

  00185	8b 47 10	 mov	 eax, DWORD PTR [edi+16]
  00188	89 03		 mov	 DWORD PTR [ebx], eax

; 939  : 	m_pNodeFree = pNode;
; 940  : 	m_nCount--;

  0018a	83 47 0c ff	 add	 DWORD PTR [edi+12], -1
  0018e	89 5f 10	 mov	 DWORD PTR [edi+16], ebx

; 941  : 	ASSERT(m_nCount >= 0);  // make sure we don't underflow
; 942  : 
; 943  : 	// if no more elements, cleanup completely
; 944  : 	if (m_nCount == 0)

  00191	75 07		 jne	 SHORT $LN51@RemoveData

; 945  : 		RemoveAll();

  00193	8b cf		 mov	 ecx, edi
  00195	e8 00 00 00 00	 call	 ?RemoveAll@?$CList@V?$CStringT@DV?$StrTraitMFC_DLL@DV?$ChTraitsCRT@D@ATL@@@@@ATL@@V12@@@QAEXXZ ; CList<ATL::CStringT<char,StrTraitMFC_DLL<char,ATL::ChTraitsCRT<char> > >,ATL::CStringT<char,StrTraitMFC_DLL<char,ATL::ChTraitsCRT<char> > > >::RemoveAll
$LN51@RemoveData:
; File D:\git\src\IBK\IBK_DRFN\ProjSrc\SrcChartEx\ChartOCX\PacketData\PacketImplementation.cpp

; 1090 : 			m_lstrData.RemoveHead();

  0019a	83 65 f0 fe	 and	 DWORD PTR $T3[ebp], -2	; fffffffeH
  0019e	8d 4d ec	 lea	 ecx, DWORD PTR $T2[ebp]
  001a1	c7 45 fc ff ff
	ff ff		 mov	 DWORD PTR __$EHRec$[ebp+8], -1
  001a8	ff 15 00 00 00
	00		 call	 DWORD PTR __imp_??1?$CStringT@DV?$StrTraitMFC_DLL@DV?$ChTraitsCRT@D@ATL@@@@@ATL@@QAE@XZ
  001ae	8b 45 08	 mov	 eax, DWORD PTR _i$1$[ebp]
  001b1	40		 inc	 eax
  001b2	89 45 08	 mov	 DWORD PTR _i$1$[ebp], eax
  001b5	3b 45 0c	 cmp	 eax, DWORD PTR _nEnd$[ebp]
  001b8	7c 86		 jl	 SHORT $LL7@RemoveData
; File C:\Program Files (x86)\Microsoft Visual Studio\2019\Community\VC\Tools\MSVC\14.29.30133\atlmfc\include\afxtempl.h

; 1009 : 	ENSURE(m_pNodeHead != NULL);  // don't call on empty list !!!

  001ba	8b 45 e8	 mov	 eax, DWORD PTR _nStrDataCount$1$[ebp]
$LN6@RemoveData:
; File D:\git\src\IBK\IBK_DRFN\ProjSrc\SrcChartEx\ChartOCX\PacketData\PacketImplementation.cpp

; 1094 : 	if(nIntDataCount != m_lnData.GetCount())

  001bd	8b 4d e4	 mov	 ecx, DWORD PTR _nIntDataCount$1$[ebp]
  001c0	3b 8e a0 00 00
	00		 cmp	 ecx, DWORD PTR [esi+160]
  001c6	0f 84 7c 00 00
	00		 je	 $LN72@RemoveData

; 1800 : 	m_dContinueCode_Pre			= -HUGE_VAL;

  001cc	0f 28 05 00 00
	00 00		 movaps	 xmm0, XMMWORD PTR __xmm@fff0000000000000fff0000000000000

; 1095 : 		ClearMinMax();
; 1096 : 
; 1097 : 	return (nIntDataCount != m_lnData.GetCount() || nStrDataCount != m_lstrData.GetCount());

  001d3	b0 01		 mov	 al, 1

; 1805 : 	m_dPreMaxValue				= -DBL_MAX;

  001d5	f2 0f 10 0d 00
	00 00 00	 movsd	 xmm1, QWORD PTR __real@ffefffffffffffff
  001dd	0f 11 86 18 01
	00 00		 movups	 XMMWORD PTR [esi+280], xmm0
  001e4	c7 86 10 01 00
	00 00 00 00 00	 mov	 DWORD PTR [esi+272], 0

; 1806 : 	m_dPreMinValue				= DBL_MAX;

  001ee	f2 0f 10 05 00
	00 00 00	 movsd	 xmm0, QWORD PTR __real@7fefffffffffffff
  001f6	c7 86 28 01 00
	00 ff ff ff ff	 mov	 DWORD PTR [esi+296], -1
  00200	c7 86 2c 01 00
	00 ff ff ff ff	 mov	 DWORD PTR [esi+300], -1
  0020a	c7 86 30 01 00
	00 ff ff ff ff	 mov	 DWORD PTR [esi+304], -1
  00214	f2 0f 11 8e 38
	01 00 00	 movsd	 QWORD PTR [esi+312], xmm1
  0021c	f2 0f 11 86 40
	01 00 00	 movsd	 QWORD PTR [esi+320], xmm0

; 1807 : 	m_dPreMaxValueWithoutEnd	= -DBL_MAX;

  00224	f2 0f 11 8e 48
	01 00 00	 movsd	 QWORD PTR [esi+328], xmm1

; 1808 : 	m_dPreMinValueWithoutEnd	= DBL_MAX;

  0022c	f2 0f 11 86 50
	01 00 00	 movsd	 QWORD PTR [esi+336], xmm0

; 1098 : }

  00234	8b 4d f4	 mov	 ecx, DWORD PTR __$EHRec$[ebp]
  00237	64 89 0d 00 00
	00 00		 mov	 DWORD PTR fs:0, ecx
  0023e	59		 pop	 ecx
  0023f	5f		 pop	 edi
  00240	5e		 pop	 esi
  00241	5b		 pop	 ebx
  00242	8b e5		 mov	 esp, ebp
  00244	5d		 pop	 ebp
  00245	c2 08 00	 ret	 8
$LN72@RemoveData:

; 1095 : 		ClearMinMax();
; 1096 : 
; 1097 : 	return (nIntDataCount != m_lnData.GetCount() || nStrDataCount != m_lstrData.GetCount());

  00248	3b 86 bc 00 00
	00		 cmp	 eax, DWORD PTR [esi+188]
  0024e	74 16		 je	 SHORT $LN9@RemoveData
  00250	b0 01		 mov	 al, 1

; 1098 : }

  00252	8b 4d f4	 mov	 ecx, DWORD PTR __$EHRec$[ebp]
  00255	64 89 0d 00 00
	00 00		 mov	 DWORD PTR fs:0, ecx
  0025c	59		 pop	 ecx
  0025d	5f		 pop	 edi
  0025e	5e		 pop	 esi
  0025f	5b		 pop	 ebx
  00260	8b e5		 mov	 esp, ebp
  00262	5d		 pop	 ebp
  00263	c2 08 00	 ret	 8
$LN9@RemoveData:
  00266	32 c0		 xor	 al, al
  00268	8b 4d f4	 mov	 ecx, DWORD PTR __$EHRec$[ebp]
  0026b	64 89 0d 00 00
	00 00		 mov	 DWORD PTR fs:0, ecx
  00272	59		 pop	 ecx
  00273	5f		 pop	 edi
  00274	5e		 pop	 esi
  00275	5b		 pop	 ebx
  00276	8b e5		 mov	 esp, ebp
  00278	5d		 pop	 ebp
  00279	c2 08 00	 ret	 8
$LN61@RemoveData:
  0027c	e8 00 00 00 00	 call	 ?AfxThrowInvalidArgException@@YGXXZ ; AfxThrowInvalidArgException
$LN75@RemoveData:
  00281	cc		 int	 3
_TEXT	ENDS
;	COMDAT text$x
text$x	SEGMENT
__unwindfunclet$?RemoveData@CPacketImplementation@@QAE_NHH@Z$1:
  00000	8b 45 f0	 mov	 eax, DWORD PTR $T3[ebp]
  00003	83 e0 01	 and	 eax, 1
  00006	0f 84 0d 00 00
	00		 je	 $LN49@RemoveData
  0000c	83 65 f0 fe	 and	 DWORD PTR $T3[ebp], -2	; fffffffeH
  00010	8d 4d ec	 lea	 ecx, DWORD PTR $T2[ebp]
  00013	ff 25 00 00 00
	00		 jmp	 DWORD PTR __imp_??1?$CStringT@DV?$StrTraitMFC_DLL@DV?$ChTraitsCRT@D@ATL@@@@@ATL@@QAE@XZ
$LN49@RemoveData:
  00019	c3		 ret	 0
  0001a	cc		 int	 3
  0001b	cc		 int	 3
  0001c	cc		 int	 3
  0001d	cc		 int	 3
  0001e	cc		 int	 3
__ehhandler$?RemoveData@CPacketImplementation@@QAE_NHH@Z:
  0001f	90		 npad	 1
  00020	90		 npad	 1
  00021	8b 54 24 08	 mov	 edx, DWORD PTR [esp+8]
  00025	8d 42 0c	 lea	 eax, DWORD PTR [edx+12]
  00028	8b 4a e0	 mov	 ecx, DWORD PTR [edx-32]
  0002b	33 c8		 xor	 ecx, eax
  0002d	e8 00 00 00 00	 call	 @__security_check_cookie@4
  00032	b8 00 00 00 00	 mov	 eax, OFFSET __ehfuncinfo$?RemoveData@CPacketImplementation@@QAE_NHH@Z
  00037	e9 00 00 00 00	 jmp	 ___CxxFrameHandler3
text$x	ENDS
?RemoveData@CPacketImplementation@@QAE_NHH@Z ENDP	; CPacketImplementation::RemoveData
; Function compile flags: /Ogtp
; File D:\git\src\IBK\IBK_DRFN\ProjSrc\SrcChartEx\ChartOCX\PacketData\PacketImplementation.cpp
; File C:\Program Files (x86)\Microsoft Visual Studio\2019\Community\VC\Tools\MSVC\14.29.30133\atlmfc\include\afxtempl.h
; File D:\git\src\IBK\IBK_DRFN\ProjSrc\SrcChartEx\ChartOCX\PacketData\PacketImplementation.cpp
; File C:\Program Files (x86)\Microsoft Visual Studio\2019\Community\VC\Tools\MSVC\14.29.30133\atlmfc\include\cstringt.h
; File D:\git\src\IBK\IBK_DRFN\ProjSrc\SrcChartEx\ChartOCX\PacketData\PacketImplementation.cpp
; File C:\Program Files (x86)\Microsoft Visual Studio\2019\Community\VC\Tools\MSVC\14.29.30133\atlmfc\include\afxtempl.h
; File D:\git\src\IBK\IBK_DRFN\ProjSrc\SrcChartEx\ChartOCX\PacketData\PacketImplementation.cpp
; File C:\Program Files (x86)\Microsoft Visual Studio\2019\Community\VC\Tools\MSVC\14.29.30133\atlmfc\include\afxtempl.h
; File D:\git\src\IBK\IBK_DRFN\ProjSrc\SrcChartEx\ChartOCX\PacketData\PacketImplementation.cpp
; File C:\Program Files (x86)\Microsoft Visual Studio\2019\Community\VC\Tools\MSVC\14.29.30133\atlmfc\include\afxtempl.h
; File D:\git\src\IBK\IBK_DRFN\ProjSrc\SrcChartEx\ChartOCX\PacketData\PacketImplementation.cpp
; File C:\Program Files (x86)\Microsoft Visual Studio\2019\Community\VC\Tools\MSVC\14.29.30133\atlmfc\include\afxtempl.h
; File D:\git\src\IBK\IBK_DRFN\ProjSrc\SrcChartEx\ChartOCX\PacketData\PacketImplementation.cpp
; File C:\Program Files (x86)\Microsoft Visual Studio\2019\Community\VC\Tools\MSVC\14.29.30133\atlmfc\include\afxtempl.h
; File D:\git\src\IBK\IBK_DRFN\ProjSrc\SrcChartEx\ChartOCX\PacketData\PacketImplementation.cpp
; File C:\Program Files (x86)\Microsoft Visual Studio\2019\Community\VC\Tools\MSVC\14.29.30133\atlmfc\include\afxtempl.h
; File D:\git\src\IBK\IBK_DRFN\ProjSrc\SrcChartEx\ChartOCX\PacketData\PacketImplementation.cpp
; File C:\Program Files (x86)\Microsoft Visual Studio\2019\Community\VC\Tools\MSVC\14.29.30133\atlmfc\include\afxtempl.h
; File D:\git\src\IBK\IBK_DRFN\ProjSrc\SrcChartEx\ChartOCX\PacketData\PacketImplementation.cpp
; File C:\Program Files (x86)\Microsoft Visual Studio\2019\Community\VC\Tools\MSVC\14.29.30133\atlmfc\include\afxtempl.h
; File D:\git\src\IBK\IBK_DRFN\ProjSrc\SrcChartEx\ChartOCX\PacketData\PacketImplementation.cpp
; File C:\Program Files (x86)\Microsoft Visual Studio\2019\Community\VC\Tools\MSVC\14.29.30133\atlmfc\include\afxtempl.h
; File D:\git\src\IBK\IBK_DRFN\ProjSrc\SrcChartEx\ChartOCX\PacketData\PacketImplementation.cpp
; File C:\Program Files (x86)\Microsoft Visual Studio\2019\Community\VC\Tools\MSVC\14.29.30133\atlmfc\include\afxtempl.h
; File D:\git\src\IBK\IBK_DRFN\ProjSrc\SrcChartEx\ChartOCX\PacketData\PacketImplementation.cpp
;	COMDAT ?UpdateData@CPacketImplementation@@QAEXAAV?$CList@V?$CStringT@DV?$StrTraitMFC_DLL@DV?$ChTraitsCRT@D@ATL@@@@@ATL@@V12@@@VCPoint@@@Z
_TEXT	SEGMENT
_this$1$ = -20						; size = 4
$T2 = -20						; size = 4
_strData$3 = -16					; size = 4
__$EHRec$ = -12						; size = 12
$T4 = 8							; size = 4
$T5 = 8							; size = 4
_lsnewData$ = 8						; size = 4
_ptUpdateRange$ = 12					; size = 8
?UpdateData@CPacketImplementation@@QAEXAAV?$CList@V?$CStringT@DV?$StrTraitMFC_DLL@DV?$ChTraitsCRT@D@ATL@@@@@ATL@@V12@@@VCPoint@@@Z PROC ; CPacketImplementation::UpdateData, COMDAT
; _this$ = ecx

; 775  : {

  00000	55		 push	 ebp
  00001	8b ec		 mov	 ebp, esp
  00003	6a ff		 push	 -1
  00005	68 00 00 00 00	 push	 __ehhandler$?UpdateData@CPacketImplementation@@QAEXAAV?$CList@V?$CStringT@DV?$StrTraitMFC_DLL@DV?$ChTraitsCRT@D@ATL@@@@@ATL@@V12@@@VCPoint@@@Z
  0000a	64 a1 00 00 00
	00		 mov	 eax, DWORD PTR fs:0
  00010	50		 push	 eax
  00011	83 ec 08	 sub	 esp, 8
  00014	53		 push	 ebx
  00015	56		 push	 esi
  00016	57		 push	 edi
  00017	a1 00 00 00 00	 mov	 eax, DWORD PTR ___security_cookie
  0001c	33 c5		 xor	 eax, ebp
  0001e	50		 push	 eax
  0001f	8d 45 f4	 lea	 eax, DWORD PTR __$EHRec$[ebp]
  00022	64 a3 00 00 00
	00		 mov	 DWORD PTR fs:0, eax
  00028	8b d9		 mov	 ebx, ecx
  0002a	89 5d ec	 mov	 DWORD PTR _this$1$[ebp], ebx
; File C:\Program Files (x86)\Microsoft Visual Studio\2019\Community\VC\Tools\MSVC\14.29.30133\atlmfc\include\afxtempl.h

; 786  : 	{ return m_nCount == 0; }

  0002d	8b 75 08	 mov	 esi, DWORD PTR _lsnewData$[ebp]
  00030	83 7e 0c 00	 cmp	 DWORD PTR [esi+12], 0
; File D:\git\src\IBK\IBK_DRFN\ProjSrc\SrcChartEx\ChartOCX\PacketData\PacketImplementation.cpp

; 776  : 	if(lsnewData.IsEmpty())

  00034	0f 84 b3 01 00
	00		 je	 $LN5@UpdateData

; 106  : 	if(m_Type == _MTEXT( C6_CHARACTER))

  0003a	a1 54 00 00 00	 mov	 eax, DWORD PTR ?g_iMetaTable@@3VIMetaTable@@A+84
  0003f	8d 4b 64	 lea	 ecx, DWORD PTR [ebx+100]
; File C:\Program Files (x86)\Microsoft Visual Studio\2019\Community\VC\Tools\MSVC\14.29.30133\atlmfc\include\cstringt.h

; 2486 : 		return(str1.Compare(psz2) == 0);

  00042	ff b0 60 09 00
	00		 push	 DWORD PTR [eax+2400]
  00048	ff 15 00 00 00
	00		 call	 DWORD PTR __imp_?Compare@?$CStringT@DV?$StrTraitMFC_DLL@DV?$ChTraitsCRT@D@ATL@@@@@ATL@@QBEHPBD@Z
  0004e	85 c0		 test	 eax, eax
; File D:\git\src\IBK\IBK_DRFN\ProjSrc\SrcChartEx\ChartOCX\PacketData\PacketImplementation.cpp

; 106  : 	if(m_Type == _MTEXT( C6_CHARACTER))

  00050	75 08		 jne	 SHORT $LN15@UpdateData

; 107  : 		return m_lstrData.GetCount();

  00052	8b 83 bc 00 00
	00		 mov	 eax, DWORD PTR [ebx+188]
  00058	eb 06		 jmp	 SHORT $LN16@UpdateData
$LN15@UpdateData:

; 108  : 	else
; 109  : 		return m_lnData.GetCount();

  0005a	8b 83 a0 00 00
	00		 mov	 eax, DWORD PTR [ebx+160]
$LN16@UpdateData:

; 777  : 		return ;
; 778  : 
; 779  : 	if(GetCount() <= ptUpdateRange.x)

  00060	8b 4d 0c	 mov	 ecx, DWORD PTR _ptUpdateRange$[ebp]
  00063	3b c1		 cmp	 eax, ecx
  00065	0f 8f b2 00 00
	00		 jg	 $LN7@UpdateData
; File C:\Program Files (x86)\Microsoft Visual Studio\2019\Community\VC\Tools\MSVC\14.29.30133\atlmfc\include\afxtempl.h

; 786  : 	{ return m_nCount == 0; }

  0006b	83 7e 0c 00	 cmp	 DWORD PTR [esi+12], 0
; File D:\git\src\IBK\IBK_DRFN\ProjSrc\SrcChartEx\ChartOCX\PacketData\PacketImplementation.cpp

; 190  : 	if(lsnewData.IsEmpty())

  0006f	0f 84 78 01 00
	00		 je	 $LN5@UpdateData

; 191  : 		return ;
; 192  : 	POSITION pos = lsnewData.GetHeadPosition() ;

  00075	8b 5e 04	 mov	 ebx, DWORD PTR [esi+4]

; 193  : 	while(pos != NULL){

  00078	85 db		 test	 ebx, ebx
  0007a	0f 84 6d 01 00
	00		 je	 $LN5@UpdateData
  00080	8b 7d ec	 mov	 edi, DWORD PTR _this$1$[ebp]
$LL21@UpdateData:
; File C:\Program Files (x86)\Microsoft Visual Studio\2019\Community\VC\Tools\MSVC\14.29.30133\atlmfc\include\afxtempl.h

; 811  : 	{ CNode* pNode = (CNode*) rPosition;

  00083	8b c3		 mov	 eax, ebx
; File D:\git\src\IBK\IBK_DRFN\ProjSrc\SrcChartEx\ChartOCX\PacketData\PacketImplementation.cpp

; 194  : 		CString strData = lsnewData.GetNext(pos) ;

  00085	8d 4d f0	 lea	 ecx, DWORD PTR _strData$3[ebp]
; File C:\Program Files (x86)\Microsoft Visual Studio\2019\Community\VC\Tools\MSVC\14.29.30133\atlmfc\include\afxtempl.h

; 813  : 		rPosition = (POSITION) pNode->pNext;

  00088	8b 1b		 mov	 ebx, DWORD PTR [ebx]

; 814  : 		return pNode->data; }

  0008a	83 c0 08	 add	 eax, 8
; File D:\git\src\IBK\IBK_DRFN\ProjSrc\SrcChartEx\ChartOCX\PacketData\PacketImplementation.cpp

; 194  : 		CString strData = lsnewData.GetNext(pos) ;

  0008d	50		 push	 eax
  0008e	ff 15 00 00 00
	00		 call	 DWORD PTR __imp_??0?$CStringT@DV?$StrTraitMFC_DLL@DV?$ChTraitsCRT@D@ATL@@@@@ATL@@QAE@ABV01@@Z

; 195  : 		m_lstrData.AddTail(strData) ;

  00094	8d 45 f0	 lea	 eax, DWORD PTR _strData$3[ebp]
  00097	c7 45 fc 00 00
	00 00		 mov	 DWORD PTR __$EHRec$[ebp+8], 0
  0009e	50		 push	 eax
  0009f	8d 4d 08	 lea	 ecx, DWORD PTR $T5[ebp]
  000a2	ff 15 00 00 00
	00		 call	 DWORD PTR __imp_??0?$CStringT@DV?$StrTraitMFC_DLL@DV?$ChTraitsCRT@D@ATL@@@@@ATL@@QAE@ABV01@@Z
; File C:\Program Files (x86)\Microsoft Visual Studio\2019\Community\VC\Tools\MSVC\14.29.30133\atlmfc\include\afxtempl.h

; 968  : 	CNode* pNewNode = NewNode(m_pNodeTail, NULL);

  000a8	6a 00		 push	 0
  000aa	ff b7 b8 00 00
	00		 push	 DWORD PTR [edi+184]
  000b0	8d 8f b0 00 00
	00		 lea	 ecx, DWORD PTR [edi+176]
  000b6	c6 45 fc 01	 mov	 BYTE PTR __$EHRec$[ebp+8], 1
  000ba	e8 00 00 00 00	 call	 ?NewNode@?$CList@V?$CStringT@DV?$StrTraitMFC_DLL@DV?$ChTraitsCRT@D@ATL@@@@@ATL@@V12@@@IAEPAUCNode@1@PAU21@0@Z ; CList<ATL::CStringT<char,StrTraitMFC_DLL<char,ATL::ChTraitsCRT<char> > >,ATL::CStringT<char,StrTraitMFC_DLL<char,ATL::ChTraitsCRT<char> > > >::NewNode
  000bf	8b f0		 mov	 esi, eax

; 969  : 	pNewNode->data = newElement;

  000c1	8d 45 08	 lea	 eax, DWORD PTR $T5[ebp]
  000c4	50		 push	 eax
  000c5	8d 4e 08	 lea	 ecx, DWORD PTR [esi+8]
  000c8	ff 15 00 00 00
	00		 call	 DWORD PTR __imp_??4?$CStringT@DV?$StrTraitMFC_DLL@DV?$ChTraitsCRT@D@ATL@@@@@ATL@@QAEAAV01@ABV01@@Z

; 970  : 	if (m_pNodeTail != NULL)

  000ce	8b 87 b8 00 00
	00		 mov	 eax, DWORD PTR [edi+184]
  000d4	85 c0		 test	 eax, eax
  000d6	74 04		 je	 SHORT $LN32@UpdateData

; 971  : 		m_pNodeTail->pNext = pNewNode;

  000d8	89 30		 mov	 DWORD PTR [eax], esi
  000da	eb 06		 jmp	 SHORT $LN33@UpdateData
$LN32@UpdateData:

; 972  : 	else
; 973  : 		m_pNodeHead = pNewNode;

  000dc	89 b7 b4 00 00
	00		 mov	 DWORD PTR [edi+180], esi
$LN33@UpdateData:

; 974  : 	m_pNodeTail = pNewNode;
; 975  : 	return (POSITION) pNewNode;

  000e2	8d 4d 08	 lea	 ecx, DWORD PTR $T5[ebp]
  000e5	89 b7 b8 00 00
	00		 mov	 DWORD PTR [edi+184], esi
  000eb	ff 15 00 00 00
	00		 call	 DWORD PTR __imp_??1?$CStringT@DV?$StrTraitMFC_DLL@DV?$ChTraitsCRT@D@ATL@@@@@ATL@@QAE@XZ
; File D:\git\src\IBK\IBK_DRFN\ProjSrc\SrcChartEx\ChartOCX\PacketData\PacketImplementation.cpp

; 196  : 	}

  000f1	8d 4d f0	 lea	 ecx, DWORD PTR _strData$3[ebp]
  000f4	c7 45 fc ff ff
	ff ff		 mov	 DWORD PTR __$EHRec$[ebp+8], -1
  000fb	ff 15 00 00 00
	00		 call	 DWORD PTR __imp_??1?$CStringT@DV?$StrTraitMFC_DLL@DV?$ChTraitsCRT@D@ATL@@@@@ATL@@QAE@XZ
  00101	85 db		 test	 ebx, ebx
  00103	0f 85 7a ff ff
	ff		 jne	 $LL21@UpdateData

; 792  : 		}
; 793  : 	}
; 794  : 
; 795  : //	SetMinMax(CPacketDataInfo::REAL_APPEND, ptUpdateRange);
; 796  : }

  00109	8b 4d f4	 mov	 ecx, DWORD PTR __$EHRec$[ebp]
  0010c	64 89 0d 00 00
	00 00		 mov	 DWORD PTR fs:0, ecx
  00113	59		 pop	 ecx
  00114	5f		 pop	 edi
  00115	5e		 pop	 esi
  00116	5b		 pop	 ebx
  00117	8b e5		 mov	 esp, ebp
  00119	5d		 pop	 ebp
  0011a	c2 0c 00	 ret	 12			; 0000000cH
$LN7@UpdateData:

; 780  : 		AppendData(lsnewData);
; 781  : 	else	{
; 782  : 		POSITION pos = lsnewData.GetHeadPosition();

  0011d	8b 76 04	 mov	 esi, DWORD PTR [esi+4]

; 783  : //		POSITION pos_old = m_lnData.FindIndex(ptUpdateRange.x);
; 784  : 		POSITION pos_old = FindPosition(ptUpdateRange.x);

  00120	51		 push	 ecx
  00121	8b cb		 mov	 ecx, ebx
  00123	e8 00 00 00 00	 call	 ?FindPosition@CPacketImplementation@@ABEPAU__POSITION@@H@Z ; CPacketImplementation::FindPosition
  00128	8b f8		 mov	 edi, eax

; 786  : 		while(pos && pos_old)	{

  0012a	85 f6		 test	 esi, esi
  0012c	0f 84 bb 00 00
	00		 je	 $LN5@UpdateData
$LL2@UpdateData:
  00132	85 ff		 test	 edi, edi
  00134	74 4f		 je	 SHORT $LL4@UpdateData
; File C:\Program Files (x86)\Microsoft Visual Studio\2019\Community\VC\Tools\MSVC\14.29.30133\atlmfc\include\afxtempl.h

; 811  : 	{ CNode* pNode = (CNode*) rPosition;

  00136	8b c6		 mov	 eax, esi
; File D:\git\src\IBK\IBK_DRFN\ProjSrc\SrcChartEx\ChartOCX\PacketData\PacketImplementation.cpp

; 787  : 			m_lstrData.SetAt(pos_old, lsnewData.GetNext(pos));

  00138	8d 4d 08	 lea	 ecx, DWORD PTR $T4[ebp]
; File C:\Program Files (x86)\Microsoft Visual Studio\2019\Community\VC\Tools\MSVC\14.29.30133\atlmfc\include\afxtempl.h

; 813  : 		rPosition = (POSITION) pNode->pNext;

  0013b	8b 36		 mov	 esi, DWORD PTR [esi]

; 814  : 		return pNode->data; }

  0013d	83 c0 08	 add	 eax, 8
; File D:\git\src\IBK\IBK_DRFN\ProjSrc\SrcChartEx\ChartOCX\PacketData\PacketImplementation.cpp

; 787  : 			m_lstrData.SetAt(pos_old, lsnewData.GetNext(pos));

  00140	50		 push	 eax
  00141	ff 15 00 00 00
	00		 call	 DWORD PTR __imp_??0?$CStringT@DV?$StrTraitMFC_DLL@DV?$ChTraitsCRT@D@ATL@@@@@ATL@@QAE@ABV01@@Z
; File C:\Program Files (x86)\Microsoft Visual Studio\2019\Community\VC\Tools\MSVC\14.29.30133\atlmfc\include\afxtempl.h

; 847  : 		pNode->data = newElement; }

  00147	8d 45 08	 lea	 eax, DWORD PTR $T4[ebp]
  0014a	c7 45 fc 02 00
	00 00		 mov	 DWORD PTR __$EHRec$[ebp+8], 2
  00151	50		 push	 eax
  00152	8d 4f 08	 lea	 ecx, DWORD PTR [edi+8]
  00155	ff 15 00 00 00
	00		 call	 DWORD PTR __imp_??4?$CStringT@DV?$StrTraitMFC_DLL@DV?$ChTraitsCRT@D@ATL@@@@@ATL@@QAEAAV01@ABV01@@Z
  0015b	8d 4d 08	 lea	 ecx, DWORD PTR $T4[ebp]
  0015e	c7 45 fc ff ff
	ff ff		 mov	 DWORD PTR __$EHRec$[ebp+8], -1
  00165	ff 15 00 00 00
	00		 call	 DWORD PTR __imp_??1?$CStringT@DV?$StrTraitMFC_DLL@DV?$ChTraitsCRT@D@ATL@@@@@ATL@@QAE@XZ

; 813  : 		rPosition = (POSITION) pNode->pNext;

  0016b	8b 3f		 mov	 edi, DWORD PTR [edi]
; File D:\git\src\IBK\IBK_DRFN\ProjSrc\SrcChartEx\ChartOCX\PacketData\PacketImplementation.cpp

; 786  : 		while(pos && pos_old)	{

  0016d	85 f6		 test	 esi, esi
  0016f	75 c1		 jne	 SHORT $LL2@UpdateData

; 792  : 		}
; 793  : 	}
; 794  : 
; 795  : //	SetMinMax(CPacketDataInfo::REAL_APPEND, ptUpdateRange);
; 796  : }

  00171	8b 4d f4	 mov	 ecx, DWORD PTR __$EHRec$[ebp]
  00174	64 89 0d 00 00
	00 00		 mov	 DWORD PTR fs:0, ecx
  0017b	59		 pop	 ecx
  0017c	5f		 pop	 edi
  0017d	5e		 pop	 esi
  0017e	5b		 pop	 ebx
  0017f	8b e5		 mov	 esp, ebp
  00181	5d		 pop	 ebp
  00182	c2 0c 00	 ret	 12			; 0000000cH
$LL4@UpdateData:
; File C:\Program Files (x86)\Microsoft Visual Studio\2019\Community\VC\Tools\MSVC\14.29.30133\atlmfc\include\afxtempl.h

; 811  : 	{ CNode* pNode = (CNode*) rPosition;

  00185	8b c6		 mov	 eax, esi
; File D:\git\src\IBK\IBK_DRFN\ProjSrc\SrcChartEx\ChartOCX\PacketData\PacketImplementation.cpp

; 791  : 			m_lstrData.AddTail(lsnewData.GetNext(pos));

  00187	8d 4d ec	 lea	 ecx, DWORD PTR $T2[ebp]
; File C:\Program Files (x86)\Microsoft Visual Studio\2019\Community\VC\Tools\MSVC\14.29.30133\atlmfc\include\afxtempl.h

; 813  : 		rPosition = (POSITION) pNode->pNext;

  0018a	8b 36		 mov	 esi, DWORD PTR [esi]

; 814  : 		return pNode->data; }

  0018c	83 c0 08	 add	 eax, 8
; File D:\git\src\IBK\IBK_DRFN\ProjSrc\SrcChartEx\ChartOCX\PacketData\PacketImplementation.cpp

; 791  : 			m_lstrData.AddTail(lsnewData.GetNext(pos));

  0018f	50		 push	 eax
  00190	ff 15 00 00 00
	00		 call	 DWORD PTR __imp_??0?$CStringT@DV?$StrTraitMFC_DLL@DV?$ChTraitsCRT@D@ATL@@@@@ATL@@QAE@ABV01@@Z
; File C:\Program Files (x86)\Microsoft Visual Studio\2019\Community\VC\Tools\MSVC\14.29.30133\atlmfc\include\afxtempl.h

; 968  : 	CNode* pNewNode = NewNode(m_pNodeTail, NULL);

  00196	6a 00		 push	 0
  00198	ff b3 b8 00 00
	00		 push	 DWORD PTR [ebx+184]
  0019e	8d 8b b0 00 00
	00		 lea	 ecx, DWORD PTR [ebx+176]
  001a4	c7 45 fc 03 00
	00 00		 mov	 DWORD PTR __$EHRec$[ebp+8], 3
  001ab	e8 00 00 00 00	 call	 ?NewNode@?$CList@V?$CStringT@DV?$StrTraitMFC_DLL@DV?$ChTraitsCRT@D@ATL@@@@@ATL@@V12@@@IAEPAUCNode@1@PAU21@0@Z ; CList<ATL::CStringT<char,StrTraitMFC_DLL<char,ATL::ChTraitsCRT<char> > >,ATL::CStringT<char,StrTraitMFC_DLL<char,ATL::ChTraitsCRT<char> > > >::NewNode
  001b0	8b f8		 mov	 edi, eax

; 969  : 	pNewNode->data = newElement;

  001b2	8d 45 ec	 lea	 eax, DWORD PTR $T2[ebp]
  001b5	50		 push	 eax
  001b6	8d 4f 08	 lea	 ecx, DWORD PTR [edi+8]
  001b9	ff 15 00 00 00
	00		 call	 DWORD PTR __imp_??4?$CStringT@DV?$StrTraitMFC_DLL@DV?$ChTraitsCRT@D@ATL@@@@@ATL@@QAEAAV01@ABV01@@Z

; 970  : 	if (m_pNodeTail != NULL)

  001bf	8b 83 b8 00 00
	00		 mov	 eax, DWORD PTR [ebx+184]
  001c5	85 c0		 test	 eax, eax
  001c7	74 04		 je	 SHORT $LN46@UpdateData

; 971  : 		m_pNodeTail->pNext = pNewNode;

  001c9	89 38		 mov	 DWORD PTR [eax], edi
  001cb	eb 06		 jmp	 SHORT $LN47@UpdateData
$LN46@UpdateData:

; 972  : 	else
; 973  : 		m_pNodeHead = pNewNode;

  001cd	89 bb b4 00 00
	00		 mov	 DWORD PTR [ebx+180], edi
$LN47@UpdateData:

; 974  : 	m_pNodeTail = pNewNode;
; 975  : 	return (POSITION) pNewNode;

  001d3	8d 4d ec	 lea	 ecx, DWORD PTR $T2[ebp]
  001d6	89 bb b8 00 00
	00		 mov	 DWORD PTR [ebx+184], edi
  001dc	c7 45 fc ff ff
	ff ff		 mov	 DWORD PTR __$EHRec$[ebp+8], -1
  001e3	ff 15 00 00 00
	00		 call	 DWORD PTR __imp_??1?$CStringT@DV?$StrTraitMFC_DLL@DV?$ChTraitsCRT@D@ATL@@@@@ATL@@QAE@XZ
; File D:\git\src\IBK\IBK_DRFN\ProjSrc\SrcChartEx\ChartOCX\PacketData\PacketImplementation.cpp

; 790  : 		while(pos)	{

  001e9	85 f6		 test	 esi, esi
  001eb	75 98		 jne	 SHORT $LL4@UpdateData
$LN5@UpdateData:

; 792  : 		}
; 793  : 	}
; 794  : 
; 795  : //	SetMinMax(CPacketDataInfo::REAL_APPEND, ptUpdateRange);
; 796  : }

  001ed	8b 4d f4	 mov	 ecx, DWORD PTR __$EHRec$[ebp]
  001f0	64 89 0d 00 00
	00 00		 mov	 DWORD PTR fs:0, ecx
  001f7	59		 pop	 ecx
  001f8	5f		 pop	 edi
  001f9	5e		 pop	 esi
  001fa	5b		 pop	 ebx
  001fb	8b e5		 mov	 esp, ebp
  001fd	5d		 pop	 ebp
  001fe	c2 0c 00	 ret	 12			; 0000000cH
_TEXT	ENDS
;	COMDAT text$x
text$x	SEGMENT
__unwindfunclet$?UpdateData@CPacketImplementation@@QAEXAAV?$CList@V?$CStringT@DV?$StrTraitMFC_DLL@DV?$ChTraitsCRT@D@ATL@@@@@ATL@@V12@@@VCPoint@@@Z$2:
  00000	8d 4d f0	 lea	 ecx, DWORD PTR _strData$3[ebp]
  00003	ff 25 00 00 00
	00		 jmp	 DWORD PTR __imp_??1?$CStringT@DV?$StrTraitMFC_DLL@DV?$ChTraitsCRT@D@ATL@@@@@ATL@@QAE@XZ
__unwindfunclet$?UpdateData@CPacketImplementation@@QAEXAAV?$CList@V?$CStringT@DV?$StrTraitMFC_DLL@DV?$ChTraitsCRT@D@ATL@@@@@ATL@@V12@@@VCPoint@@@Z$4:
  00009	8d 4d 08	 lea	 ecx, DWORD PTR $T5[ebp]
  0000c	ff 25 00 00 00
	00		 jmp	 DWORD PTR __imp_??1?$CStringT@DV?$StrTraitMFC_DLL@DV?$ChTraitsCRT@D@ATL@@@@@ATL@@QAE@XZ
__unwindfunclet$?UpdateData@CPacketImplementation@@QAEXAAV?$CList@V?$CStringT@DV?$StrTraitMFC_DLL@DV?$ChTraitsCRT@D@ATL@@@@@ATL@@V12@@@VCPoint@@@Z$5:
  00012	8d 4d 08	 lea	 ecx, DWORD PTR $T4[ebp]
  00015	ff 25 00 00 00
	00		 jmp	 DWORD PTR __imp_??1?$CStringT@DV?$StrTraitMFC_DLL@DV?$ChTraitsCRT@D@ATL@@@@@ATL@@QAE@XZ
__unwindfunclet$?UpdateData@CPacketImplementation@@QAEXAAV?$CList@V?$CStringT@DV?$StrTraitMFC_DLL@DV?$ChTraitsCRT@D@ATL@@@@@ATL@@V12@@@VCPoint@@@Z$6:
  0001b	8d 4d ec	 lea	 ecx, DWORD PTR $T2[ebp]
  0001e	ff 25 00 00 00
	00		 jmp	 DWORD PTR __imp_??1?$CStringT@DV?$StrTraitMFC_DLL@DV?$ChTraitsCRT@D@ATL@@@@@ATL@@QAE@XZ
  00024	cc		 int	 3
  00025	cc		 int	 3
  00026	cc		 int	 3
  00027	cc		 int	 3
  00028	cc		 int	 3
__ehhandler$?UpdateData@CPacketImplementation@@QAEXAAV?$CList@V?$CStringT@DV?$StrTraitMFC_DLL@DV?$ChTraitsCRT@D@ATL@@@@@ATL@@V12@@@VCPoint@@@Z:
  00029	90		 npad	 1
  0002a	90		 npad	 1
  0002b	8b 54 24 08	 mov	 edx, DWORD PTR [esp+8]
  0002f	8d 42 0c	 lea	 eax, DWORD PTR [edx+12]
  00032	8b 4a e8	 mov	 ecx, DWORD PTR [edx-24]
  00035	33 c8		 xor	 ecx, eax
  00037	e8 00 00 00 00	 call	 @__security_check_cookie@4
  0003c	b8 00 00 00 00	 mov	 eax, OFFSET __ehfuncinfo$?UpdateData@CPacketImplementation@@QAEXAAV?$CList@V?$CStringT@DV?$StrTraitMFC_DLL@DV?$ChTraitsCRT@D@ATL@@@@@ATL@@V12@@@VCPoint@@@Z
  00041	e9 00 00 00 00	 jmp	 ___CxxFrameHandler3
text$x	ENDS
?UpdateData@CPacketImplementation@@QAEXAAV?$CList@V?$CStringT@DV?$StrTraitMFC_DLL@DV?$ChTraitsCRT@D@ATL@@@@@ATL@@V12@@@VCPoint@@@Z ENDP ; CPacketImplementation::UpdateData
; Function compile flags: /Ogtp
; File D:\git\src\IBK\IBK_DRFN\ProjSrc\SrcChartEx\ChartOCX\PacketData\PacketImplementation.cpp
; File C:\Program Files (x86)\Microsoft Visual Studio\2019\Community\VC\Tools\MSVC\14.29.30133\atlmfc\include\cstringt.h
; File D:\git\src\IBK\IBK_DRFN\ProjSrc\SrcChartEx\ChartOCX\PacketData\PacketImplementation.cpp
; File C:\Program Files (x86)\Microsoft Visual Studio\2019\Community\VC\Tools\MSVC\14.29.30133\atlmfc\include\cstringt.h
; File D:\git\src\IBK\IBK_DRFN\ProjSrc\SrcChartEx\ChartOCX\PacketData\PacketImplementation.cpp
; File C:\Program Files (x86)\Microsoft Visual Studio\2019\Community\VC\Tools\MSVC\14.29.30133\atlmfc\include\afxtempl.h
; File D:\git\src\IBK\IBK_DRFN\ProjSrc\SrcChartEx\ChartOCX\PacketData\PacketImplementation.cpp
;	COMDAT ?UpdateData@CPacketImplementation@@QAEXABV?$CStringT@DV?$StrTraitMFC_DLL@DV?$ChTraitsCRT@D@ATL@@@@@ATL@@H_N@Z
_TEXT	SEGMENT
__$EHRec$ = -12						; size = 12
$T2 = 8							; size = 4
_strData$ = 8						; size = 4
_nIndex$ = 12						; size = 4
_bIsCurrentData$ = 16					; size = 1
?UpdateData@CPacketImplementation@@QAEXABV?$CStringT@DV?$StrTraitMFC_DLL@DV?$ChTraitsCRT@D@ATL@@@@@ATL@@H_N@Z PROC ; CPacketImplementation::UpdateData, COMDAT
; _this$ = ecx

; 669  : {

  00000	55		 push	 ebp
  00001	8b ec		 mov	 ebp, esp
  00003	6a ff		 push	 -1
  00005	68 00 00 00 00	 push	 __ehhandler$?UpdateData@CPacketImplementation@@QAEXABV?$CStringT@DV?$StrTraitMFC_DLL@DV?$ChTraitsCRT@D@ATL@@@@@ATL@@H_N@Z
  0000a	64 a1 00 00 00
	00		 mov	 eax, DWORD PTR fs:0
  00010	50		 push	 eax
  00011	56		 push	 esi
  00012	57		 push	 edi
  00013	a1 00 00 00 00	 mov	 eax, DWORD PTR ___security_cookie
  00018	33 c5		 xor	 eax, ebp
  0001a	50		 push	 eax
  0001b	8d 45 f4	 lea	 eax, DWORD PTR __$EHRec$[ebp]
  0001e	64 a3 00 00 00
	00		 mov	 DWORD PTR fs:0, eax
  00024	8b f1		 mov	 esi, ecx

; 670  : 	if(nIndex < 0)

  00026	8b 7d 0c	 mov	 edi, DWORD PTR _nIndex$[ebp]
  00029	85 ff		 test	 edi, edi
  0002b	0f 88 9d 00 00
	00		 js	 $LN4@UpdateData

; 673  : 	if(m_Type == _MTEXT( C6_CHARACTER)){

  00031	a1 54 00 00 00	 mov	 eax, DWORD PTR ?g_iMetaTable@@3VIMetaTable@@A+84
  00036	8d 4e 64	 lea	 ecx, DWORD PTR [esi+100]
; File C:\Program Files (x86)\Microsoft Visual Studio\2019\Community\VC\Tools\MSVC\14.29.30133\atlmfc\include\cstringt.h

; 2486 : 		return(str1.Compare(psz2) == 0);

  00039	ff b0 60 09 00
	00		 push	 DWORD PTR [eax+2400]
  0003f	ff 15 00 00 00
	00		 call	 DWORD PTR __imp_?Compare@?$CStringT@DV?$StrTraitMFC_DLL@DV?$ChTraitsCRT@D@ATL@@@@@ATL@@QBEHPBD@Z
; File D:\git\src\IBK\IBK_DRFN\ProjSrc\SrcChartEx\ChartOCX\PacketData\PacketImplementation.cpp

; 673  : 	if(m_Type == _MTEXT( C6_CHARACTER)){

  00045	8b ce		 mov	 ecx, esi
; File C:\Program Files (x86)\Microsoft Visual Studio\2019\Community\VC\Tools\MSVC\14.29.30133\atlmfc\include\cstringt.h

; 2486 : 		return(str1.Compare(psz2) == 0);

  00047	85 c0		 test	 eax, eax
; File D:\git\src\IBK\IBK_DRFN\ProjSrc\SrcChartEx\ChartOCX\PacketData\PacketImplementation.cpp

; 673  : 	if(m_Type == _MTEXT( C6_CHARACTER)){

  00049	75 77		 jne	 SHORT $LN3@UpdateData

; 674  : 		POSITION pos = FindPosition(nIndex);

  0004b	57		 push	 edi
  0004c	e8 00 00 00 00	 call	 ?FindPosition@CPacketImplementation@@ABEPAU__POSITION@@H@Z ; CPacketImplementation::FindPosition
  00051	8b f8		 mov	 edi, eax

; 675  : 		if(pos == NULL){

  00053	85 ff		 test	 edi, edi
  00055	75 2f		 jne	 SHORT $LN5@UpdateData

; 676  : 			if(bIsCurrentData)

  00057	38 45 10	 cmp	 BYTE PTR _bIsCurrentData$[ebp], al
  0005a	75 72		 jne	 SHORT $LN4@UpdateData

; 677  : 				return;
; 678  : 			else 
; 679  : 				m_lstrData.AddTail(strData);

  0005c	51		 push	 ecx
  0005d	8b cc		 mov	 ecx, esp
  0005f	ff 75 08	 push	 DWORD PTR _strData$[ebp]
  00062	ff 15 00 00 00
	00		 call	 DWORD PTR __imp_??0?$CStringT@DV?$StrTraitMFC_DLL@DV?$ChTraitsCRT@D@ATL@@@@@ATL@@QAE@ABV01@@Z
  00068	8d 8e b0 00 00
	00		 lea	 ecx, DWORD PTR [esi+176]
  0006e	e8 00 00 00 00	 call	 ?AddTail@?$CList@V?$CStringT@DV?$StrTraitMFC_DLL@DV?$ChTraitsCRT@D@ATL@@@@@ATL@@V12@@@QAEPAU__POSITION@@V?$CStringT@DV?$StrTraitMFC_DLL@DV?$ChTraitsCRT@D@ATL@@@@@ATL@@@Z ; CList<ATL::CStringT<char,StrTraitMFC_DLL<char,ATL::ChTraitsCRT<char> > >,ATL::CStringT<char,StrTraitMFC_DLL<char,ATL::ChTraitsCRT<char> > > >::AddTail

; 686  : }

  00073	8b 4d f4	 mov	 ecx, DWORD PTR __$EHRec$[ebp]
  00076	64 89 0d 00 00
	00 00		 mov	 DWORD PTR fs:0, ecx
  0007d	59		 pop	 ecx
  0007e	5f		 pop	 edi
  0007f	5e		 pop	 esi
  00080	8b e5		 mov	 esp, ebp
  00082	5d		 pop	 ebp
  00083	c2 0c 00	 ret	 12			; 0000000cH
$LN5@UpdateData:

; 680  : 		}
; 681  : 		else
; 682  : 			m_lstrData.SetAt(pos, strData);

  00086	ff 75 08	 push	 DWORD PTR _strData$[ebp]
  00089	8d 4d 08	 lea	 ecx, DWORD PTR $T2[ebp]
  0008c	ff 15 00 00 00
	00		 call	 DWORD PTR __imp_??0?$CStringT@DV?$StrTraitMFC_DLL@DV?$ChTraitsCRT@D@ATL@@@@@ATL@@QAE@ABV01@@Z
; File C:\Program Files (x86)\Microsoft Visual Studio\2019\Community\VC\Tools\MSVC\14.29.30133\atlmfc\include\afxtempl.h

; 847  : 		pNode->data = newElement; }

  00092	8d 45 08	 lea	 eax, DWORD PTR $T2[ebp]
  00095	c7 45 fc 00 00
	00 00		 mov	 DWORD PTR __$EHRec$[ebp+8], 0
  0009c	50		 push	 eax
  0009d	8d 4f 08	 lea	 ecx, DWORD PTR [edi+8]
  000a0	ff 15 00 00 00
	00		 call	 DWORD PTR __imp_??4?$CStringT@DV?$StrTraitMFC_DLL@DV?$ChTraitsCRT@D@ATL@@@@@ATL@@QAEAAV01@ABV01@@Z
  000a6	8d 4d 08	 lea	 ecx, DWORD PTR $T2[ebp]
  000a9	ff 15 00 00 00
	00		 call	 DWORD PTR __imp_??1?$CStringT@DV?$StrTraitMFC_DLL@DV?$ChTraitsCRT@D@ATL@@@@@ATL@@QAE@XZ
; File D:\git\src\IBK\IBK_DRFN\ProjSrc\SrcChartEx\ChartOCX\PacketData\PacketImplementation.cpp

; 686  : }

  000af	8b 4d f4	 mov	 ecx, DWORD PTR __$EHRec$[ebp]
  000b2	64 89 0d 00 00
	00 00		 mov	 DWORD PTR fs:0, ecx
  000b9	59		 pop	 ecx
  000ba	5f		 pop	 edi
  000bb	5e		 pop	 esi
  000bc	8b e5		 mov	 esp, ebp
  000be	5d		 pop	 ebp
  000bf	c2 0c 00	 ret	 12			; 0000000cH
$LN3@UpdateData:

; 683  : 	}
; 684  : 	else
; 685  : 		UpdateData(strData, nIndex, bIsCurrentData);

  000c2	ff 75 10	 push	 DWORD PTR _bIsCurrentData$[ebp]
  000c5	57		 push	 edi
  000c6	ff 75 08	 push	 DWORD PTR _strData$[ebp]
  000c9	e8 00 00 00 00	 call	 ?UpdateData@CPacketImplementation@@QAEXABV?$CStringT@DV?$StrTraitMFC_DLL@DV?$ChTraitsCRT@D@ATL@@@@@ATL@@H_N@Z ; CPacketImplementation::UpdateData
$LN4@UpdateData:

; 686  : }

  000ce	8b 4d f4	 mov	 ecx, DWORD PTR __$EHRec$[ebp]
  000d1	64 89 0d 00 00
	00 00		 mov	 DWORD PTR fs:0, ecx
  000d8	59		 pop	 ecx
  000d9	5f		 pop	 edi
  000da	5e		 pop	 esi
  000db	8b e5		 mov	 esp, ebp
  000dd	5d		 pop	 ebp
  000de	c2 0c 00	 ret	 12			; 0000000cH
_TEXT	ENDS
;	COMDAT text$x
text$x	SEGMENT
__unwindfunclet$?UpdateData@CPacketImplementation@@QAEXABV?$CStringT@DV?$StrTraitMFC_DLL@DV?$ChTraitsCRT@D@ATL@@@@@ATL@@H_N@Z$2:
  00000	8d 4d 08	 lea	 ecx, DWORD PTR $T2[ebp]
  00003	ff 25 00 00 00
	00		 jmp	 DWORD PTR __imp_??1?$CStringT@DV?$StrTraitMFC_DLL@DV?$ChTraitsCRT@D@ATL@@@@@ATL@@QAE@XZ
  00009	cc		 int	 3
  0000a	cc		 int	 3
  0000b	cc		 int	 3
  0000c	cc		 int	 3
  0000d	cc		 int	 3
__ehhandler$?UpdateData@CPacketImplementation@@QAEXABV?$CStringT@DV?$StrTraitMFC_DLL@DV?$ChTraitsCRT@D@ATL@@@@@ATL@@H_N@Z:
  0000e	90		 npad	 1
  0000f	90		 npad	 1
  00010	8b 54 24 08	 mov	 edx, DWORD PTR [esp+8]
  00014	8d 42 0c	 lea	 eax, DWORD PTR [edx+12]
  00017	8b 4a f4	 mov	 ecx, DWORD PTR [edx-12]
  0001a	33 c8		 xor	 ecx, eax
  0001c	e8 00 00 00 00	 call	 @__security_check_cookie@4
  00021	b8 00 00 00 00	 mov	 eax, OFFSET __ehfuncinfo$?UpdateData@CPacketImplementation@@QAEXABV?$CStringT@DV?$StrTraitMFC_DLL@DV?$ChTraitsCRT@D@ATL@@@@@ATL@@H_N@Z
  00026	e9 00 00 00 00	 jmp	 ___CxxFrameHandler3
text$x	ENDS
?UpdateData@CPacketImplementation@@QAEXABV?$CStringT@DV?$StrTraitMFC_DLL@DV?$ChTraitsCRT@D@ATL@@@@@ATL@@H_N@Z ENDP ; CPacketImplementation::UpdateData
; Function compile flags: /Ogtp
; File D:\git\src\IBK\IBK_DRFN\ProjSrc\SrcChartEx\ChartOCX\PacketData\PacketImplementation.cpp
; File C:\Program Files (x86)\Microsoft Visual Studio\2019\Community\VC\Tools\MSVC\14.29.30133\atlmfc\include\cstringt.h
; File D:\git\src\IBK\IBK_DRFN\ProjSrc\SrcChartEx\ChartOCX\PacketData\PacketImplementation.cpp
; File C:\Program Files (x86)\Microsoft Visual Studio\2019\Community\VC\Tools\MSVC\14.29.30133\atlmfc\include\afxtempl.h
; File D:\git\src\IBK\IBK_DRFN\ProjSrc\SrcChartEx\ChartOCX\PacketData\PacketImplementation.cpp
; File C:\Program Files (x86)\Microsoft Visual Studio\2019\Community\VC\Tools\MSVC\14.29.30133\atlmfc\include\atlsimpstr.h
; File D:\git\src\IBK\IBK_DRFN\ProjSrc\SrcChartEx\ChartOCX\PacketData\PacketImplementation.cpp
;	COMDAT ?UpdateData@CPacketImplementation@@QAEXABV?$CStringT@DV?$StrTraitMFC_DLL@DV?$ChTraitsCRT@D@ATL@@@@@ATL@@@Z
_TEXT	SEGMENT
_value$2 = -20						; size = 8
__$EHRec$ = -12						; size = 12
$T3 = 8							; size = 4
_strData$ = 8						; size = 4
?UpdateData@CPacketImplementation@@QAEXABV?$CStringT@DV?$StrTraitMFC_DLL@DV?$ChTraitsCRT@D@ATL@@@@@ATL@@@Z PROC ; CPacketImplementation::UpdateData, COMDAT
; _this$ = ecx

; 646  : {

  00000	55		 push	 ebp
  00001	8b ec		 mov	 ebp, esp
  00003	6a ff		 push	 -1
  00005	68 00 00 00 00	 push	 __ehhandler$?UpdateData@CPacketImplementation@@QAEXABV?$CStringT@DV?$StrTraitMFC_DLL@DV?$ChTraitsCRT@D@ATL@@@@@ATL@@@Z
  0000a	64 a1 00 00 00
	00		 mov	 eax, DWORD PTR fs:0
  00010	50		 push	 eax
  00011	83 ec 08	 sub	 esp, 8
  00014	56		 push	 esi
  00015	57		 push	 edi
  00016	a1 00 00 00 00	 mov	 eax, DWORD PTR ___security_cookie
  0001b	33 c5		 xor	 eax, ebp
  0001d	50		 push	 eax
  0001e	8d 45 f4	 lea	 eax, DWORD PTR __$EHRec$[ebp]
  00021	64 a3 00 00 00
	00		 mov	 DWORD PTR fs:0, eax
  00027	8b f1		 mov	 esi, ecx

; 647  : 	if(m_Type == _MTEXT( C6_CHARACTER)){

  00029	a1 54 00 00 00	 mov	 eax, DWORD PTR ?g_iMetaTable@@3VIMetaTable@@A+84
  0002e	8d 4e 64	 lea	 ecx, DWORD PTR [esi+100]
; File C:\Program Files (x86)\Microsoft Visual Studio\2019\Community\VC\Tools\MSVC\14.29.30133\atlmfc\include\cstringt.h

; 2486 : 		return(str1.Compare(psz2) == 0);

  00031	ff b0 60 09 00
	00		 push	 DWORD PTR [eax+2400]
  00037	ff 15 00 00 00
	00		 call	 DWORD PTR __imp_?Compare@?$CStringT@DV?$StrTraitMFC_DLL@DV?$ChTraitsCRT@D@ATL@@@@@ATL@@QBEHPBD@Z
  0003d	85 c0		 test	 eax, eax
; File D:\git\src\IBK\IBK_DRFN\ProjSrc\SrcChartEx\ChartOCX\PacketData\PacketImplementation.cpp

; 647  : 	if(m_Type == _MTEXT( C6_CHARACTER)){

  0003f	75 46		 jne	 SHORT $LN2@UpdateData

; 648  : 		POSITION pos = m_lstrData.GetTailPosition();

  00041	8b b6 b8 00 00
	00		 mov	 esi, DWORD PTR [esi+184]

; 649  : 		if(!pos)	return;

  00047	85 f6		 test	 esi, esi
  00049	74 78		 je	 SHORT $LN3@UpdateData

; 650  : 		m_lstrData.SetAt(pos, strData);

  0004b	ff 75 08	 push	 DWORD PTR _strData$[ebp]
  0004e	8d 4d 08	 lea	 ecx, DWORD PTR $T3[ebp]
  00051	ff 15 00 00 00
	00		 call	 DWORD PTR __imp_??0?$CStringT@DV?$StrTraitMFC_DLL@DV?$ChTraitsCRT@D@ATL@@@@@ATL@@QAE@ABV01@@Z
; File C:\Program Files (x86)\Microsoft Visual Studio\2019\Community\VC\Tools\MSVC\14.29.30133\atlmfc\include\afxtempl.h

; 847  : 		pNode->data = newElement; }

  00057	8d 45 08	 lea	 eax, DWORD PTR $T3[ebp]
  0005a	c7 45 fc 00 00
	00 00		 mov	 DWORD PTR __$EHRec$[ebp+8], 0
  00061	50		 push	 eax
  00062	8d 4e 08	 lea	 ecx, DWORD PTR [esi+8]
  00065	ff 15 00 00 00
	00		 call	 DWORD PTR __imp_??4?$CStringT@DV?$StrTraitMFC_DLL@DV?$ChTraitsCRT@D@ATL@@@@@ATL@@QAEAAV01@ABV01@@Z
  0006b	8d 4d 08	 lea	 ecx, DWORD PTR $T3[ebp]
  0006e	ff 15 00 00 00
	00		 call	 DWORD PTR __imp_??1?$CStringT@DV?$StrTraitMFC_DLL@DV?$ChTraitsCRT@D@ATL@@@@@ATL@@QAE@XZ
; File D:\git\src\IBK\IBK_DRFN\ProjSrc\SrcChartEx\ChartOCX\PacketData\PacketImplementation.cpp

; 663  : }

  00074	8b 4d f4	 mov	 ecx, DWORD PTR __$EHRec$[ebp]
  00077	64 89 0d 00 00
	00 00		 mov	 DWORD PTR fs:0, ecx
  0007e	59		 pop	 ecx
  0007f	5f		 pop	 edi
  00080	5e		 pop	 esi
  00081	8b e5		 mov	 esp, ebp
  00083	5d		 pop	 ebp
  00084	c2 04 00	 ret	 4
$LN2@UpdateData:

; 651  : 	}
; 652  : 	else{
; 653  : 		POSITION pos = m_lnData.GetTailPosition();

  00087	8b be 9c 00 00
	00		 mov	 edi, DWORD PTR [esi+156]

; 654  : 		if(pos == NULL) return;

  0008d	85 ff		 test	 edi, edi
  0008f	74 32		 je	 SHORT $LN3@UpdateData
; File C:\Program Files (x86)\Microsoft Visual Studio\2019\Community\VC\Tools\MSVC\14.29.30133\atlmfc\include\atlsimpstr.h

; 377  : 		return( m_pszData );

  00091	8b 45 08	 mov	 eax, DWORD PTR _strData$[ebp]
; File D:\git\src\IBK\IBK_DRFN\ProjSrc\SrcChartEx\ChartOCX\PacketData\PacketImplementation.cpp

; 655  : 		double value = atof(strData);

  00094	ff 30		 push	 DWORD PTR [eax]
  00096	ff 15 00 00 00
	00		 call	 DWORD PTR __imp__atof
  0009c	dd 5d ec	 fstp	 QWORD PTR _value$2[ebp]

; 656  : 		double oldValue = m_lnData.GetAt(pos);
; 657  : 		m_lnData.SetAt( pos, value);

  0009f	f2 0f 10 45 ec	 movsd	 xmm0, QWORD PTR _value$2[ebp]
  000a4	83 c4 04	 add	 esp, 4
  000a7	f2 0f 11 47 08	 movsd	 QWORD PTR [edi+8], xmm0

; 658  : 
; 659  : 		// (2009/1/17 - Seung-Won, Bae) Support Min/Max cache. Do not make Min/Max every time of updating data.
; 660  : 		//		Do not support Full Range Min/Max for collision with Pre-Min/Max.
; 661  : 		UpdateMinMax( value, m_lnData.GetCount() - 1);

  000ac	8b ce		 mov	 ecx, esi
  000ae	8b 86 a0 00 00
	00		 mov	 eax, DWORD PTR [esi+160]
  000b4	48		 dec	 eax
  000b5	50		 push	 eax
  000b6	83 ec 08	 sub	 esp, 8
  000b9	f2 0f 11 04 24	 movsd	 QWORD PTR [esp], xmm0
  000be	e8 00 00 00 00	 call	 ?UpdateMinMax@CPacketImplementation@@QAEXNH@Z ; CPacketImplementation::UpdateMinMax
$LN3@UpdateData:

; 663  : }

  000c3	8b 4d f4	 mov	 ecx, DWORD PTR __$EHRec$[ebp]
  000c6	64 89 0d 00 00
	00 00		 mov	 DWORD PTR fs:0, ecx
  000cd	59		 pop	 ecx
  000ce	5f		 pop	 edi
  000cf	5e		 pop	 esi
  000d0	8b e5		 mov	 esp, ebp
  000d2	5d		 pop	 ebp
  000d3	c2 04 00	 ret	 4
_TEXT	ENDS
;	COMDAT text$x
text$x	SEGMENT
__unwindfunclet$?UpdateData@CPacketImplementation@@QAEXABV?$CStringT@DV?$StrTraitMFC_DLL@DV?$ChTraitsCRT@D@ATL@@@@@ATL@@@Z$1:
  00000	8d 4d 08	 lea	 ecx, DWORD PTR $T3[ebp]
  00003	ff 25 00 00 00
	00		 jmp	 DWORD PTR __imp_??1?$CStringT@DV?$StrTraitMFC_DLL@DV?$ChTraitsCRT@D@ATL@@@@@ATL@@QAE@XZ
  00009	cc		 int	 3
  0000a	cc		 int	 3
  0000b	cc		 int	 3
  0000c	cc		 int	 3
  0000d	cc		 int	 3
__ehhandler$?UpdateData@CPacketImplementation@@QAEXABV?$CStringT@DV?$StrTraitMFC_DLL@DV?$ChTraitsCRT@D@ATL@@@@@ATL@@@Z:
  0000e	90		 npad	 1
  0000f	90		 npad	 1
  00010	8b 54 24 08	 mov	 edx, DWORD PTR [esp+8]
  00014	8d 42 0c	 lea	 eax, DWORD PTR [edx+12]
  00017	8b 4a ec	 mov	 ecx, DWORD PTR [edx-20]
  0001a	33 c8		 xor	 ecx, eax
  0001c	e8 00 00 00 00	 call	 @__security_check_cookie@4
  00021	b8 00 00 00 00	 mov	 eax, OFFSET __ehfuncinfo$?UpdateData@CPacketImplementation@@QAEXABV?$CStringT@DV?$StrTraitMFC_DLL@DV?$ChTraitsCRT@D@ATL@@@@@ATL@@@Z
  00026	e9 00 00 00 00	 jmp	 ___CxxFrameHandler3
text$x	ENDS
?UpdateData@CPacketImplementation@@QAEXABV?$CStringT@DV?$StrTraitMFC_DLL@DV?$ChTraitsCRT@D@ATL@@@@@ATL@@@Z ENDP ; CPacketImplementation::UpdateData
; Function compile flags: /Ogtp
; File D:\git\src\IBK\IBK_DRFN\ProjSrc\SrcChartEx\ChartOCX\PacketData\PacketImplementation.cpp
; File C:\Program Files (x86)\Microsoft Visual Studio\2019\Community\VC\Tools\MSVC\14.29.30133\atlmfc\include\cstringt.h
; File D:\git\src\IBK\IBK_DRFN\ProjSrc\SrcChartEx\ChartOCX\PacketData\PacketImplementation.cpp
; File C:\Program Files (x86)\Microsoft Visual Studio\2019\Community\VC\Tools\MSVC\14.29.30133\atlmfc\include\afxtempl.h
; File D:\git\src\IBK\IBK_DRFN\ProjSrc\SrcChartEx\ChartOCX\PacketData\PacketImplementation.cpp
; File C:\Program Files (x86)\Microsoft Visual Studio\2019\Community\VC\Tools\MSVC\14.29.30133\atlmfc\include\cstringt.h
; File D:\git\src\IBK\IBK_DRFN\ProjSrc\SrcChartEx\ChartOCX\PacketData\PacketImplementation.cpp
; File C:\Program Files (x86)\Microsoft Visual Studio\2019\Community\VC\Tools\MSVC\14.29.30133\atlmfc\include\afxtempl.h
; File D:\git\src\IBK\IBK_DRFN\ProjSrc\SrcChartEx\ChartOCX\PacketData\PacketImplementation.cpp
;	COMDAT ?UpdateData@CPacketImplementation@@QAEXNH_N@Z
_TEXT	SEGMENT
_dData3$1 = -24						; size = 8
_dData2$2 = -16						; size = 8
tv354 = -8						; size = 8
_dRealData$1$ = -8					; size = 8
_nData$ = 8						; size = 8
_nIndex$ = 16						; size = 4
tv327 = 20						; size = 4
tv324 = 20						; size = 4
_bIsCurrentData$ = 20					; size = 1
?UpdateData@CPacketImplementation@@QAEXNH_N@Z PROC	; CPacketImplementation::UpdateData, COMDAT
; _this$ = ecx

; 717  : {

  00000	55		 push	 ebp
  00001	8b ec		 mov	 ebp, esp

; 718  : 	if(nIndex == -1) {	//2003.05.26 nykim

  00003	a1 54 00 00 00	 mov	 eax, DWORD PTR ?g_iMetaTable@@3VIMetaTable@@A+84
  00008	83 ec 18	 sub	 esp, 24			; 00000018H
  0000b	56		 push	 esi
  0000c	8b f1		 mov	 esi, ecx
  0000e	57		 push	 edi
  0000f	ff b0 60 09 00
	00		 push	 DWORD PTR [eax+2400]
  00015	8b 7d 10	 mov	 edi, DWORD PTR _nIndex$[ebp]
  00018	8d 4e 64	 lea	 ecx, DWORD PTR [esi+100]
  0001b	ff 15 00 00 00
	00		 call	 DWORD PTR __imp_?Compare@?$CStringT@DV?$StrTraitMFC_DLL@DV?$ChTraitsCRT@D@ATL@@@@@ATL@@QBEHPBD@Z
  00021	83 ff ff	 cmp	 edi, -1
  00024	0f 85 e9 00 00
	00		 jne	 $LN2@UpdateData
; File C:\Program Files (x86)\Microsoft Visual Studio\2019\Community\VC\Tools\MSVC\14.29.30133\atlmfc\include\cstringt.h

; 2486 : 		return(str1.Compare(psz2) == 0);

  0002a	85 c0		 test	 eax, eax
; File D:\git\src\IBK\IBK_DRFN\ProjSrc\SrcChartEx\ChartOCX\PacketData\PacketImplementation.cpp

; 690  : 	if(m_Type == _MTEXT( C6_CHARACTER))

  0002c	0f 84 37 01 00
	00		 je	 $LN5@UpdateData

; 691  : 		return;
; 692  : 
; 693  : 	POSITION pos = m_lnData.GetTailPosition();

  00032	8b be 9c 00 00
	00		 mov	 edi, DWORD PTR [esi+156]

; 694  : 	if(!pos)

  00038	85 ff		 test	 edi, edi
  0003a	0f 84 29 01 00
	00		 je	 $LN5@UpdateData

; 1521 : 	dRealData = dData;

  00040	f2 0f 10 45 08	 movsd	 xmm0, QWORD PTR _nData$[ebp]

; 1522 : 	if(!IsChangeRealData())

  00045	8b ce		 mov	 ecx, esi
  00047	f2 0f 11 45 f8	 movsd	 QWORD PTR _dRealData$1$[ebp], xmm0
  0004c	e8 00 00 00 00	 call	 ?IsChangeRealData@CPacketImplementation@@QBE_NXZ ; CPacketImplementation::IsChangeRealData
  00051	84 c0		 test	 al, al
  00053	0f 84 96 00 00
	00		 je	 $LN32@UpdateData

; 1523 : 		return true;
; 1524 : 
; 1525 : 	// gap   ->    data gap  data list   .
; 1526 : 	if(!m_realDataGap.IsUsing())

  00059	8d 46 70	 lea	 eax, DWORD PTR [esi+112]
  0005c	8b c8		 mov	 ecx, eax
  0005e	89 45 14	 mov	 DWORD PTR tv324[ebp], eax
  00061	e8 00 00 00 00	 call	 ?IsUsing@CItemData@@QBE_NXZ ; CItemData::IsUsing
  00066	84 c0		 test	 al, al
  00068	75 27		 jne	 SHORT $LN19@UpdateData

; 1527 : 	{
; 1528 : 		double dData2 = fabs( dData);

  0006a	f2 0f 10 45 08	 movsd	 xmm0, QWORD PTR _nData$[ebp]

; 1529 : 		m_realDataGap.Set( true, dData2);

  0006f	8d 45 f0	 lea	 eax, DWORD PTR _dData2$2[ebp]
  00072	0f 54 05 00 00
	00 00		 andps	 xmm0, QWORD PTR __xmm@7fffffffffffffff7fffffffffffffff
  00079	8b 4d 14	 mov	 ecx, DWORD PTR tv324[ebp]
  0007c	50		 push	 eax
  0007d	6a 01		 push	 1
  0007f	f2 0f 11 45 f0	 movsd	 QWORD PTR _dData2$2[ebp], xmm0
  00084	e8 00 00 00 00	 call	 ?Set@CItemData@@QAEX_NABN@Z ; CItemData::Set
  00089	5f		 pop	 edi

; 744  : }

  0008a	5e		 pop	 esi
  0008b	8b e5		 mov	 esp, ebp
  0008d	5d		 pop	 ebp
  0008e	c2 10 00	 ret	 16			; 00000010H
$LN19@UpdateData:
; File C:\Program Files (x86)\Microsoft Visual Studio\2019\Community\VC\Tools\MSVC\14.29.30133\atlmfc\include\afxtempl.h

; 797  : 	{ ENSURE(m_pNodeTail != NULL);

  00091	8b 86 9c 00 00
	00		 mov	 eax, DWORD PTR [esi+156]
  00097	89 45 14	 mov	 DWORD PTR tv327[ebp], eax
  0009a	85 c0		 test	 eax, eax
  0009c	0f 84 cf 00 00
	00		 je	 $LN36@UpdateData
; File D:\git\src\IBK\IBK_DRFN\ProjSrc\SrcChartEx\ChartOCX\PacketData\PacketImplementation.cpp

; 1536 : 	dRealData = (double)m_lnData.GetTail() + fabs((double)dData - (double)m_realDataGap.GetData());

  000a2	8d 4e 70	 lea	 ecx, DWORD PTR [esi+112]
  000a5	e8 00 00 00 00	 call	 ?GetData@CItemData@@QBENXZ ; CItemData::GetData
  000aa	dc 6d 08	 fsubr	 QWORD PTR _nData$[ebp]
  000ad	8b 45 14	 mov	 eax, DWORD PTR tv327[ebp]

; 1537 : 	//	------------<<<<
; 1538 : 	double dData3 = fabs(dData);
; 1539 : 	m_realDataGap.SetData( dData3);

  000b0	8d 4e 70	 lea	 ecx, DWORD PTR [esi+112]
  000b3	dd 5d f8	 fstp	 QWORD PTR tv354[ebp]
  000b6	f2 0f 10 45 f8	 movsd	 xmm0, QWORD PTR tv354[ebp]
  000bb	0f 54 05 00 00
	00 00		 andps	 xmm0, QWORD PTR __xmm@7fffffffffffffff7fffffffffffffff
  000c2	f2 0f 58 40 08	 addsd	 xmm0, QWORD PTR [eax+8]
  000c7	8d 45 e8	 lea	 eax, DWORD PTR _dData3$1[ebp]
  000ca	50		 push	 eax
  000cb	f2 0f 11 45 f8	 movsd	 QWORD PTR _dRealData$1$[ebp], xmm0
  000d0	f2 0f 10 45 08	 movsd	 xmm0, QWORD PTR _nData$[ebp]
  000d5	0f 54 05 00 00
	00 00		 andps	 xmm0, QWORD PTR __xmm@7fffffffffffffff7fffffffffffffff
  000dc	f2 0f 11 45 e8	 movsd	 QWORD PTR _dData3$1[ebp], xmm0
  000e1	e8 00 00 00 00	 call	 ?SetData@CItemData@@QAEXABN@Z ; CItemData::SetData

; 699  : 	if(!GetRealData_UpdateData(nData, dRealData))

  000e6	83 be a0 00 00
	00 00		 cmp	 DWORD PTR [esi+160], 0
  000ed	7e 7a		 jle	 SHORT $LN5@UpdateData
$LN32@UpdateData:

; 700  : 		return;
; 701  : 
; 702  : 	double oldValue = m_lnData.GetAt(pos);
; 703  : 	if(oldValue == nData)

  000ef	f2 0f 10 47 08	 movsd	 xmm0, QWORD PTR [edi+8]
  000f4	66 0f 2e 45 08	 ucomisd xmm0, QWORD PTR _nData$[ebp]
  000f9	9f		 lahf
  000fa	f6 c4 44	 test	 ah, 68			; 00000044H
  000fd	7b 6a		 jnp	 SHORT $LN5@UpdateData

; 704  : 		return;
; 705  : 
; 706  : 	m_lnData.SetAt(pos, dRealData);

  000ff	f2 0f 10 45 f8	 movsd	 xmm0, QWORD PTR _dRealData$1$[ebp]
  00104	f2 0f 11 47 08	 movsd	 QWORD PTR [edi+8], xmm0

; 707  : 
; 708  : 	// (2009/1/17 - Seung-Won, Bae) Support Min/Max cache. Do not make Min/Max every time of updating data.
; 709  : 	//		Do not support Full Range Min/Max for collision with Pre-Min/Max.
; 710  : 	UpdateMinMax( dRealData, m_lnData.GetCount() - 1);

  00109	8b 86 a0 00 00
	00		 mov	 eax, DWORD PTR [esi+160]
  0010f	48		 dec	 eax
  00110	50		 push	 eax

; 719  : 		UpdateData(nData);
; 720  : 		return;

  00111	eb 47		 jmp	 SHORT $LN34@UpdateData
$LN2@UpdateData:
; File C:\Program Files (x86)\Microsoft Visual Studio\2019\Community\VC\Tools\MSVC\14.29.30133\atlmfc\include\cstringt.h

; 2486 : 		return(str1.Compare(psz2) == 0);

  00113	85 c0		 test	 eax, eax
; File D:\git\src\IBK\IBK_DRFN\ProjSrc\SrcChartEx\ChartOCX\PacketData\PacketImplementation.cpp

; 723  : 	if(m_Type == _MTEXT( C6_CHARACTER))

  00115	74 52		 je	 SHORT $LN5@UpdateData

; 724  : 		return;
; 725  : 	
; 726  : 	POSITION pos = FindPosition(nIndex);

  00117	57		 push	 edi
  00118	8b ce		 mov	 ecx, esi
  0011a	e8 00 00 00 00	 call	 ?FindPosition@CPacketImplementation@@ABEPAU__POSITION@@H@Z ; CPacketImplementation::FindPosition

; 727  : 	if(pos == NULL)

  0011f	85 c0		 test	 eax, eax
  00121	75 2c		 jne	 SHORT $LN4@UpdateData

; 728  : 	{
; 729  : 		if( bIsCurrentData)	return;

  00123	38 45 14	 cmp	 BYTE PTR _bIsCurrentData$[ebp], al
  00126	75 41		 jne	 SHORT $LN5@UpdateData

; 730  : 		else				m_lnData.AddTail(nData);

  00128	f2 0f 10 45 08	 movsd	 xmm0, QWORD PTR _nData$[ebp]
  0012d	8d 8e 94 00 00
	00		 lea	 ecx, DWORD PTR [esi+148]
  00133	83 ec 08	 sub	 esp, 8
  00136	f2 0f 11 04 24	 movsd	 QWORD PTR [esp], xmm0
  0013b	e8 00 00 00 00	 call	 ?AddTail@?$CList@NN@@QAEPAU__POSITION@@N@Z ; CList<double,double>::AddTail

; 731  : 
; 732  : 		// (2009/1/17 - Seung-Won, Bae) Support Min/Max cache. Do not make Min/Max every time of updating data.
; 733  : 		//		Do not support Full Range Min/Max for collision with Pre-Min/Max.
; 734  : 		UpdateMinMax( nData, m_lnData.GetCount() - 1);

  00140	8b 86 a0 00 00
	00		 mov	 eax, DWORD PTR [esi+160]
  00146	f2 0f 10 45 08	 movsd	 xmm0, QWORD PTR _nData$[ebp]
  0014b	48		 dec	 eax
  0014c	50		 push	 eax

; 735  : 	}

  0014d	eb 0b		 jmp	 SHORT $LN34@UpdateData
$LN4@UpdateData:

; 736  : 	else
; 737  : 	{
; 738  : 		m_lnData.SetAt( pos, nData);

  0014f	f2 0f 10 45 08	 movsd	 xmm0, QWORD PTR _nData$[ebp]
  00154	f2 0f 11 40 08	 movsd	 QWORD PTR [eax+8], xmm0

; 739  : 
; 740  : 		// (2009/1/17 - Seung-Won, Bae) Support Min/Max cache. Do not make Min/Max every time of updating data.
; 741  : 		//		Do not support Full Range Min/Max for collision with Pre-Min/Max.
; 742  : 		UpdateMinMax( nData, nIndex);

  00159	57		 push	 edi
$LN34@UpdateData:

; 744  : }

  0015a	83 ec 08	 sub	 esp, 8
  0015d	8b ce		 mov	 ecx, esi
  0015f	f2 0f 11 04 24	 movsd	 QWORD PTR [esp], xmm0
  00164	e8 00 00 00 00	 call	 ?UpdateMinMax@CPacketImplementation@@QAEXNH@Z ; CPacketImplementation::UpdateMinMax
$LN5@UpdateData:
  00169	5f		 pop	 edi
  0016a	5e		 pop	 esi
  0016b	8b e5		 mov	 esp, ebp
  0016d	5d		 pop	 ebp
  0016e	c2 10 00	 ret	 16			; 00000010H
$LN36@UpdateData:
; File C:\Program Files (x86)\Microsoft Visual Studio\2019\Community\VC\Tools\MSVC\14.29.30133\atlmfc\include\afxtempl.h

; 797  : 	{ ENSURE(m_pNodeTail != NULL);

  00171	e8 00 00 00 00	 call	 ?AfxThrowInvalidArgException@@YGXXZ ; AfxThrowInvalidArgException
$LN33@UpdateData:
  00176	cc		 int	 3
?UpdateData@CPacketImplementation@@QAEXNH_N@Z ENDP	; CPacketImplementation::UpdateData
_TEXT	ENDS
; Function compile flags: /Ogtp
; File D:\git\src\IBK\IBK_DRFN\ProjSrc\SrcChartEx\ChartOCX\PacketData\PacketImplementation.cpp
; File C:\Program Files (x86)\Microsoft Visual Studio\2019\Community\VC\Tools\MSVC\14.29.30133\atlmfc\include\cstringt.h
; File D:\git\src\IBK\IBK_DRFN\ProjSrc\SrcChartEx\ChartOCX\PacketData\PacketImplementation.cpp
; File C:\Program Files (x86)\Microsoft Visual Studio\2019\Community\VC\Tools\MSVC\14.29.30133\atlmfc\include\cstringt.h
; File D:\git\src\IBK\IBK_DRFN\ProjSrc\SrcChartEx\ChartOCX\PacketData\PacketImplementation.cpp
; File C:\Program Files (x86)\Microsoft Visual Studio\2019\Community\VC\Tools\MSVC\14.29.30133\atlmfc\include\afxtempl.h
; File D:\git\src\IBK\IBK_DRFN\ProjSrc\SrcChartEx\ChartOCX\PacketData\PacketImplementation.cpp
; File C:\Program Files (x86)\Microsoft Visual Studio\2019\Community\VC\Tools\MSVC\14.29.30133\atlmfc\include\afxtempl.h
; File D:\git\src\IBK\IBK_DRFN\ProjSrc\SrcChartEx\ChartOCX\PacketData\PacketImplementation.cpp
;	COMDAT ?UpdateData@CPacketImplementation@@QAEXN@Z
_TEXT	SEGMENT
_dData3$1 = -32						; size = 8
tv248 = -24						; size = 8
_dData2$2 = -16						; size = 8
_dRealData$1$ = -8					; size = 8
tv232 = -4						; size = 4
tv229 = -4						; size = 4
_nData$ = 8						; size = 8
?UpdateData@CPacketImplementation@@QAEXN@Z PROC		; CPacketImplementation::UpdateData, COMDAT
; _this$ = ecx

; 689  : {

  00000	55		 push	 ebp
  00001	8b ec		 mov	 ebp, esp

; 690  : 	if(m_Type == _MTEXT( C6_CHARACTER))

  00003	a1 54 00 00 00	 mov	 eax, DWORD PTR ?g_iMetaTable@@3VIMetaTable@@A+84
  00008	83 ec 20	 sub	 esp, 32			; 00000020H
  0000b	56		 push	 esi
; File C:\Program Files (x86)\Microsoft Visual Studio\2019\Community\VC\Tools\MSVC\14.29.30133\atlmfc\include\cstringt.h

; 2486 : 		return(str1.Compare(psz2) == 0);

  0000c	ff b0 60 09 00
	00		 push	 DWORD PTR [eax+2400]
; File D:\git\src\IBK\IBK_DRFN\ProjSrc\SrcChartEx\ChartOCX\PacketData\PacketImplementation.cpp

; 689  : {

  00012	8b f1		 mov	 esi, ecx

; 690  : 	if(m_Type == _MTEXT( C6_CHARACTER))

  00014	8d 4e 64	 lea	 ecx, DWORD PTR [esi+100]
; File C:\Program Files (x86)\Microsoft Visual Studio\2019\Community\VC\Tools\MSVC\14.29.30133\atlmfc\include\cstringt.h

; 2486 : 		return(str1.Compare(psz2) == 0);

  00017	ff 15 00 00 00
	00		 call	 DWORD PTR __imp_?Compare@?$CStringT@DV?$StrTraitMFC_DLL@DV?$ChTraitsCRT@D@ATL@@@@@ATL@@QBEHPBD@Z
  0001d	85 c0		 test	 eax, eax
; File D:\git\src\IBK\IBK_DRFN\ProjSrc\SrcChartEx\ChartOCX\PacketData\PacketImplementation.cpp

; 690  : 	if(m_Type == _MTEXT( C6_CHARACTER))

  0001f	0f 84 f0 00 00
	00		 je	 $LN1@UpdateData

; 691  : 		return;
; 692  : 
; 693  : 	POSITION pos = m_lnData.GetTailPosition();

  00025	57		 push	 edi
  00026	8b be 9c 00 00
	00		 mov	 edi, DWORD PTR [esi+156]

; 694  : 	if(!pos)

  0002c	85 ff		 test	 edi, edi
  0002e	0f 84 e0 00 00
	00		 je	 $LN22@UpdateData

; 1521 : 	dRealData = dData;

  00034	f2 0f 10 45 08	 movsd	 xmm0, QWORD PTR _nData$[ebp]

; 1522 : 	if(!IsChangeRealData())

  00039	8b ce		 mov	 ecx, esi
  0003b	f2 0f 11 45 f8	 movsd	 QWORD PTR _dRealData$1$[ebp], xmm0
  00040	e8 00 00 00 00	 call	 ?IsChangeRealData@CPacketImplementation@@QBE_NXZ ; CPacketImplementation::IsChangeRealData
  00045	84 c0		 test	 al, al
  00047	0f 84 96 00 00
	00		 je	 $LN21@UpdateData

; 1523 : 		return true;
; 1524 : 
; 1525 : 	// gap   ->    data gap  data list   .
; 1526 : 	if(!m_realDataGap.IsUsing())

  0004d	8d 46 70	 lea	 eax, DWORD PTR [esi+112]
  00050	8b c8		 mov	 ecx, eax
  00052	89 45 fc	 mov	 DWORD PTR tv229[ebp], eax
  00055	e8 00 00 00 00	 call	 ?IsUsing@CItemData@@QBE_NXZ ; CItemData::IsUsing
  0005a	84 c0		 test	 al, al
  0005c	75 27		 jne	 SHORT $LN11@UpdateData

; 1527 : 	{
; 1528 : 		double dData2 = fabs( dData);

  0005e	f2 0f 10 45 08	 movsd	 xmm0, QWORD PTR _nData$[ebp]

; 1529 : 		m_realDataGap.Set( true, dData2);

  00063	8d 45 f0	 lea	 eax, DWORD PTR _dData2$2[ebp]
  00066	0f 54 05 00 00
	00 00		 andps	 xmm0, QWORD PTR __xmm@7fffffffffffffff7fffffffffffffff
  0006d	8b 4d fc	 mov	 ecx, DWORD PTR tv229[ebp]
  00070	50		 push	 eax
  00071	6a 01		 push	 1
  00073	f2 0f 11 45 f0	 movsd	 QWORD PTR _dData2$2[ebp], xmm0
  00078	e8 00 00 00 00	 call	 ?Set@CItemData@@QAEX_NABN@Z ; CItemData::Set
  0007d	5f		 pop	 edi
  0007e	5e		 pop	 esi

; 711  : }

  0007f	8b e5		 mov	 esp, ebp
  00081	5d		 pop	 ebp
  00082	c2 08 00	 ret	 8
$LN11@UpdateData:
; File C:\Program Files (x86)\Microsoft Visual Studio\2019\Community\VC\Tools\MSVC\14.29.30133\atlmfc\include\afxtempl.h

; 797  : 	{ ENSURE(m_pNodeTail != NULL);

  00085	8b 86 9c 00 00
	00		 mov	 eax, DWORD PTR [esi+156]
  0008b	89 45 fc	 mov	 DWORD PTR tv232[ebp], eax
  0008e	85 c0		 test	 eax, eax
  00090	0f 84 86 00 00
	00		 je	 $LN25@UpdateData
; File D:\git\src\IBK\IBK_DRFN\ProjSrc\SrcChartEx\ChartOCX\PacketData\PacketImplementation.cpp

; 1536 : 	dRealData = (double)m_lnData.GetTail() + fabs((double)dData - (double)m_realDataGap.GetData());

  00096	8d 4e 70	 lea	 ecx, DWORD PTR [esi+112]
  00099	e8 00 00 00 00	 call	 ?GetData@CItemData@@QBENXZ ; CItemData::GetData
  0009e	dc 6d 08	 fsubr	 QWORD PTR _nData$[ebp]
  000a1	8b 45 fc	 mov	 eax, DWORD PTR tv232[ebp]

; 1537 : 	//	------------<<<<
; 1538 : 	double dData3 = fabs(dData);
; 1539 : 	m_realDataGap.SetData( dData3);

  000a4	8d 4e 70	 lea	 ecx, DWORD PTR [esi+112]
  000a7	dd 5d e8	 fstp	 QWORD PTR tv248[ebp]
  000aa	f2 0f 10 45 e8	 movsd	 xmm0, QWORD PTR tv248[ebp]
  000af	0f 54 05 00 00
	00 00		 andps	 xmm0, QWORD PTR __xmm@7fffffffffffffff7fffffffffffffff
  000b6	f2 0f 58 40 08	 addsd	 xmm0, QWORD PTR [eax+8]
  000bb	8d 45 e0	 lea	 eax, DWORD PTR _dData3$1[ebp]
  000be	50		 push	 eax
  000bf	f2 0f 11 45 f8	 movsd	 QWORD PTR _dRealData$1$[ebp], xmm0
  000c4	f2 0f 10 45 08	 movsd	 xmm0, QWORD PTR _nData$[ebp]
  000c9	0f 54 05 00 00
	00 00		 andps	 xmm0, QWORD PTR __xmm@7fffffffffffffff7fffffffffffffff
  000d0	f2 0f 11 45 e0	 movsd	 QWORD PTR _dData3$1[ebp], xmm0
  000d5	e8 00 00 00 00	 call	 ?SetData@CItemData@@QAEXABN@Z ; CItemData::SetData

; 695  : 		return;
; 696  : 
; 697  : 	//sy 2003.3.19 ->   update data packet  .
; 698  : 	double dRealData = nData;
; 699  : 	if(!GetRealData_UpdateData(nData, dRealData))

  000da	83 be a0 00 00
	00 00		 cmp	 DWORD PTR [esi+160], 0
  000e1	7e 31		 jle	 SHORT $LN22@UpdateData
$LN21@UpdateData:

; 700  : 		return;
; 701  : 
; 702  : 	double oldValue = m_lnData.GetAt(pos);
; 703  : 	if(oldValue == nData)

  000e3	f2 0f 10 47 08	 movsd	 xmm0, QWORD PTR [edi+8]
  000e8	66 0f 2e 45 08	 ucomisd xmm0, QWORD PTR _nData$[ebp]
  000ed	9f		 lahf
  000ee	f6 c4 44	 test	 ah, 68			; 00000044H
  000f1	7b 21		 jnp	 SHORT $LN22@UpdateData

; 704  : 		return;
; 705  : 
; 706  : 	m_lnData.SetAt(pos, dRealData);

  000f3	f2 0f 10 45 f8	 movsd	 xmm0, QWORD PTR _dRealData$1$[ebp]

; 707  : 
; 708  : 	// (2009/1/17 - Seung-Won, Bae) Support Min/Max cache. Do not make Min/Max every time of updating data.
; 709  : 	//		Do not support Full Range Min/Max for collision with Pre-Min/Max.
; 710  : 	UpdateMinMax( dRealData, m_lnData.GetCount() - 1);

  000f8	8b ce		 mov	 ecx, esi
  000fa	f2 0f 11 47 08	 movsd	 QWORD PTR [edi+8], xmm0
  000ff	8b 86 a0 00 00
	00		 mov	 eax, DWORD PTR [esi+160]
  00105	48		 dec	 eax
  00106	50		 push	 eax
  00107	83 ec 08	 sub	 esp, 8
  0010a	f2 0f 11 04 24	 movsd	 QWORD PTR [esp], xmm0
  0010f	e8 00 00 00 00	 call	 ?UpdateMinMax@CPacketImplementation@@QAEXNH@Z ; CPacketImplementation::UpdateMinMax
$LN22@UpdateData:
  00114	5f		 pop	 edi
$LN1@UpdateData:
  00115	5e		 pop	 esi

; 711  : }

  00116	8b e5		 mov	 esp, ebp
  00118	5d		 pop	 ebp
  00119	c2 08 00	 ret	 8
$LN25@UpdateData:
; File C:\Program Files (x86)\Microsoft Visual Studio\2019\Community\VC\Tools\MSVC\14.29.30133\atlmfc\include\afxtempl.h

; 797  : 	{ ENSURE(m_pNodeTail != NULL);

  0011c	e8 00 00 00 00	 call	 ?AfxThrowInvalidArgException@@YGXXZ ; AfxThrowInvalidArgException
$LN23@UpdateData:
  00121	cc		 int	 3
?UpdateData@CPacketImplementation@@QAEXN@Z ENDP		; CPacketImplementation::UpdateData
_TEXT	ENDS
; Function compile flags: /Ogtp
; File D:\git\src\IBK\IBK_DRFN\ProjSrc\SrcChartEx\ChartOCX\PacketData\PacketImplementation.cpp
; File C:\Program Files (x86)\Microsoft Visual Studio\2019\Community\VC\Tools\MSVC\14.29.30133\atlmfc\include\afxtempl.h
; File D:\git\src\IBK\IBK_DRFN\ProjSrc\SrcChartEx\ChartOCX\PacketData\PacketImplementation.cpp
; File C:\Program Files (x86)\Microsoft Visual Studio\2019\Community\VC\Tools\MSVC\14.29.30133\atlmfc\include\afxtempl.h
; File D:\git\src\IBK\IBK_DRFN\ProjSrc\SrcChartEx\ChartOCX\PacketData\PacketImplementation.cpp
; File C:\Program Files (x86)\Microsoft Visual Studio\2019\Community\VC\Tools\MSVC\14.29.30133\atlmfc\include\afxtempl.h
; File D:\git\src\IBK\IBK_DRFN\ProjSrc\SrcChartEx\ChartOCX\PacketData\PacketImplementation.cpp
; File C:\Program Files (x86)\Microsoft Visual Studio\2019\Community\VC\Tools\MSVC\14.29.30133\atlmfc\include\afxtempl.h
; File D:\git\src\IBK\IBK_DRFN\ProjSrc\SrcChartEx\ChartOCX\PacketData\PacketImplementation.cpp
;	COMDAT ?AppendData@CPacketImplementation@@QAEXAAV?$CList@V?$CStringT@DV?$StrTraitMFC_DLL@DV?$ChTraitsCRT@D@ATL@@@@@ATL@@V12@@@@Z
_TEXT	SEGMENT
_strData$2 = -16					; size = 4
__$EHRec$ = -12						; size = 12
$T3 = 8							; size = 4
_lsnewData$ = 8						; size = 4
?AppendData@CPacketImplementation@@QAEXAAV?$CList@V?$CStringT@DV?$StrTraitMFC_DLL@DV?$ChTraitsCRT@D@ATL@@@@@ATL@@V12@@@@Z PROC ; CPacketImplementation::AppendData, COMDAT
; _this$ = ecx

; 189  : {

  00000	55		 push	 ebp
  00001	8b ec		 mov	 ebp, esp
  00003	6a ff		 push	 -1
  00005	68 00 00 00 00	 push	 __ehhandler$?AppendData@CPacketImplementation@@QAEXAAV?$CList@V?$CStringT@DV?$StrTraitMFC_DLL@DV?$ChTraitsCRT@D@ATL@@@@@ATL@@V12@@@@Z
  0000a	64 a1 00 00 00
	00		 mov	 eax, DWORD PTR fs:0
  00010	50		 push	 eax
  00011	51		 push	 ecx
  00012	53		 push	 ebx
  00013	56		 push	 esi
  00014	57		 push	 edi
  00015	a1 00 00 00 00	 mov	 eax, DWORD PTR ___security_cookie
  0001a	33 c5		 xor	 eax, ebp
  0001c	50		 push	 eax
  0001d	8d 45 f4	 lea	 eax, DWORD PTR __$EHRec$[ebp]
  00020	64 a3 00 00 00
	00		 mov	 DWORD PTR fs:0, eax
; File C:\Program Files (x86)\Microsoft Visual Studio\2019\Community\VC\Tools\MSVC\14.29.30133\atlmfc\include\afxtempl.h

; 786  : 	{ return m_nCount == 0; }

  00026	8b 5d 08	 mov	 ebx, DWORD PTR _lsnewData$[ebp]
  00029	83 7b 0c 00	 cmp	 DWORD PTR [ebx+12], 0
; File D:\git\src\IBK\IBK_DRFN\ProjSrc\SrcChartEx\ChartOCX\PacketData\PacketImplementation.cpp

; 190  : 	if(lsnewData.IsEmpty())

  0002d	0f 84 7f 00 00
	00		 je	 $LN3@AppendData

; 191  : 		return ;
; 192  : 	POSITION pos = lsnewData.GetHeadPosition() ;

  00033	8b 5b 04	 mov	 ebx, DWORD PTR [ebx+4]

; 193  : 	while(pos != NULL){

  00036	85 db		 test	 ebx, ebx
  00038	74 78		 je	 SHORT $LN3@AppendData
  0003a	8d b9 b0 00 00
	00		 lea	 edi, DWORD PTR [ecx+176]
$LL2@AppendData:
; File C:\Program Files (x86)\Microsoft Visual Studio\2019\Community\VC\Tools\MSVC\14.29.30133\atlmfc\include\afxtempl.h

; 811  : 	{ CNode* pNode = (CNode*) rPosition;

  00040	8b c3		 mov	 eax, ebx
; File D:\git\src\IBK\IBK_DRFN\ProjSrc\SrcChartEx\ChartOCX\PacketData\PacketImplementation.cpp

; 194  : 		CString strData = lsnewData.GetNext(pos) ;

  00042	8d 4d f0	 lea	 ecx, DWORD PTR _strData$2[ebp]
; File C:\Program Files (x86)\Microsoft Visual Studio\2019\Community\VC\Tools\MSVC\14.29.30133\atlmfc\include\afxtempl.h

; 813  : 		rPosition = (POSITION) pNode->pNext;

  00045	8b 1b		 mov	 ebx, DWORD PTR [ebx]

; 814  : 		return pNode->data; }

  00047	83 c0 08	 add	 eax, 8
; File D:\git\src\IBK\IBK_DRFN\ProjSrc\SrcChartEx\ChartOCX\PacketData\PacketImplementation.cpp

; 194  : 		CString strData = lsnewData.GetNext(pos) ;

  0004a	50		 push	 eax
  0004b	ff 15 00 00 00
	00		 call	 DWORD PTR __imp_??0?$CStringT@DV?$StrTraitMFC_DLL@DV?$ChTraitsCRT@D@ATL@@@@@ATL@@QAE@ABV01@@Z

; 195  : 		m_lstrData.AddTail(strData) ;

  00051	8d 45 f0	 lea	 eax, DWORD PTR _strData$2[ebp]
  00054	c7 45 fc 00 00
	00 00		 mov	 DWORD PTR __$EHRec$[ebp+8], 0
  0005b	50		 push	 eax
  0005c	8d 4d 08	 lea	 ecx, DWORD PTR $T3[ebp]
  0005f	ff 15 00 00 00
	00		 call	 DWORD PTR __imp_??0?$CStringT@DV?$StrTraitMFC_DLL@DV?$ChTraitsCRT@D@ATL@@@@@ATL@@QAE@ABV01@@Z
; File C:\Program Files (x86)\Microsoft Visual Studio\2019\Community\VC\Tools\MSVC\14.29.30133\atlmfc\include\afxtempl.h

; 968  : 	CNode* pNewNode = NewNode(m_pNodeTail, NULL);

  00065	6a 00		 push	 0
  00067	ff 77 08	 push	 DWORD PTR [edi+8]
  0006a	8b cf		 mov	 ecx, edi
  0006c	c6 45 fc 01	 mov	 BYTE PTR __$EHRec$[ebp+8], 1
  00070	e8 00 00 00 00	 call	 ?NewNode@?$CList@V?$CStringT@DV?$StrTraitMFC_DLL@DV?$ChTraitsCRT@D@ATL@@@@@ATL@@V12@@@IAEPAUCNode@1@PAU21@0@Z ; CList<ATL::CStringT<char,StrTraitMFC_DLL<char,ATL::ChTraitsCRT<char> > >,ATL::CStringT<char,StrTraitMFC_DLL<char,ATL::ChTraitsCRT<char> > > >::NewNode
  00075	8b f0		 mov	 esi, eax

; 969  : 	pNewNode->data = newElement;

  00077	8d 45 08	 lea	 eax, DWORD PTR $T3[ebp]
  0007a	50		 push	 eax
  0007b	8d 4e 08	 lea	 ecx, DWORD PTR [esi+8]
  0007e	ff 15 00 00 00
	00		 call	 DWORD PTR __imp_??4?$CStringT@DV?$StrTraitMFC_DLL@DV?$ChTraitsCRT@D@ATL@@@@@ATL@@QAEAAV01@ABV01@@Z

; 970  : 	if (m_pNodeTail != NULL)

  00084	8b 47 08	 mov	 eax, DWORD PTR [edi+8]
  00087	85 c0		 test	 eax, eax
  00089	74 04		 je	 SHORT $LN13@AppendData

; 971  : 		m_pNodeTail->pNext = pNewNode;

  0008b	89 30		 mov	 DWORD PTR [eax], esi
  0008d	eb 03		 jmp	 SHORT $LN14@AppendData
$LN13@AppendData:

; 972  : 	else
; 973  : 		m_pNodeHead = pNewNode;

  0008f	89 77 04	 mov	 DWORD PTR [edi+4], esi
$LN14@AppendData:

; 974  : 	m_pNodeTail = pNewNode;
; 975  : 	return (POSITION) pNewNode;

  00092	8d 4d 08	 lea	 ecx, DWORD PTR $T3[ebp]
  00095	89 77 08	 mov	 DWORD PTR [edi+8], esi
  00098	ff 15 00 00 00
	00		 call	 DWORD PTR __imp_??1?$CStringT@DV?$StrTraitMFC_DLL@DV?$ChTraitsCRT@D@ATL@@@@@ATL@@QAE@XZ
; File D:\git\src\IBK\IBK_DRFN\ProjSrc\SrcChartEx\ChartOCX\PacketData\PacketImplementation.cpp

; 196  : 	}

  0009e	8d 4d f0	 lea	 ecx, DWORD PTR _strData$2[ebp]
  000a1	c7 45 fc ff ff
	ff ff		 mov	 DWORD PTR __$EHRec$[ebp+8], -1
  000a8	ff 15 00 00 00
	00		 call	 DWORD PTR __imp_??1?$CStringT@DV?$StrTraitMFC_DLL@DV?$ChTraitsCRT@D@ATL@@@@@ATL@@QAE@XZ
  000ae	85 db		 test	 ebx, ebx
  000b0	75 8e		 jne	 SHORT $LL2@AppendData
$LN3@AppendData:

; 197  : }

  000b2	8b 4d f4	 mov	 ecx, DWORD PTR __$EHRec$[ebp]
  000b5	64 89 0d 00 00
	00 00		 mov	 DWORD PTR fs:0, ecx
  000bc	59		 pop	 ecx
  000bd	5f		 pop	 edi
  000be	5e		 pop	 esi
  000bf	5b		 pop	 ebx
  000c0	8b e5		 mov	 esp, ebp
  000c2	5d		 pop	 ebp
  000c3	c2 04 00	 ret	 4
_TEXT	ENDS
;	COMDAT text$x
text$x	SEGMENT
__unwindfunclet$?AppendData@CPacketImplementation@@QAEXAAV?$CList@V?$CStringT@DV?$StrTraitMFC_DLL@DV?$ChTraitsCRT@D@ATL@@@@@ATL@@V12@@@@Z$0:
  00000	8d 4d f0	 lea	 ecx, DWORD PTR _strData$2[ebp]
  00003	ff 25 00 00 00
	00		 jmp	 DWORD PTR __imp_??1?$CStringT@DV?$StrTraitMFC_DLL@DV?$ChTraitsCRT@D@ATL@@@@@ATL@@QAE@XZ
__unwindfunclet$?AppendData@CPacketImplementation@@QAEXAAV?$CList@V?$CStringT@DV?$StrTraitMFC_DLL@DV?$ChTraitsCRT@D@ATL@@@@@ATL@@V12@@@@Z$2:
  00009	8d 4d 08	 lea	 ecx, DWORD PTR $T3[ebp]
  0000c	ff 25 00 00 00
	00		 jmp	 DWORD PTR __imp_??1?$CStringT@DV?$StrTraitMFC_DLL@DV?$ChTraitsCRT@D@ATL@@@@@ATL@@QAE@XZ
  00012	cc		 int	 3
  00013	cc		 int	 3
  00014	cc		 int	 3
  00015	cc		 int	 3
  00016	cc		 int	 3
__ehhandler$?AppendData@CPacketImplementation@@QAEXAAV?$CList@V?$CStringT@DV?$StrTraitMFC_DLL@DV?$ChTraitsCRT@D@ATL@@@@@ATL@@V12@@@@Z:
  00017	90		 npad	 1
  00018	90		 npad	 1
  00019	8b 54 24 08	 mov	 edx, DWORD PTR [esp+8]
  0001d	8d 42 0c	 lea	 eax, DWORD PTR [edx+12]
  00020	8b 4a ec	 mov	 ecx, DWORD PTR [edx-20]
  00023	33 c8		 xor	 ecx, eax
  00025	e8 00 00 00 00	 call	 @__security_check_cookie@4
  0002a	b8 00 00 00 00	 mov	 eax, OFFSET __ehfuncinfo$?AppendData@CPacketImplementation@@QAEXAAV?$CList@V?$CStringT@DV?$StrTraitMFC_DLL@DV?$ChTraitsCRT@D@ATL@@@@@ATL@@V12@@@@Z
  0002f	e9 00 00 00 00	 jmp	 ___CxxFrameHandler3
text$x	ENDS
?AppendData@CPacketImplementation@@QAEXAAV?$CList@V?$CStringT@DV?$StrTraitMFC_DLL@DV?$ChTraitsCRT@D@ATL@@@@@ATL@@V12@@@@Z ENDP ; CPacketImplementation::AppendData
; Function compile flags: /Ogtp
; File D:\git\src\IBK\IBK_DRFN\ProjSrc\SrcChartEx\ChartOCX\PacketData\PacketImplementation.cpp
; File C:\Program Files (x86)\Microsoft Visual Studio\2019\Community\VC\Tools\MSVC\14.29.30133\atlmfc\include\afxtempl.h
; File D:\git\src\IBK\IBK_DRFN\ProjSrc\SrcChartEx\ChartOCX\PacketData\PacketImplementation.cpp
; File C:\Program Files (x86)\Microsoft Visual Studio\2019\Community\VC\Tools\MSVC\14.29.30133\atlmfc\include\afxtempl.h
; File D:\git\src\IBK\IBK_DRFN\ProjSrc\SrcChartEx\ChartOCX\PacketData\PacketImplementation.cpp
; File C:\Program Files (x86)\Microsoft Visual Studio\2019\Community\VC\Tools\MSVC\14.29.30133\atlmfc\include\afxtempl.h
; File D:\git\src\IBK\IBK_DRFN\ProjSrc\SrcChartEx\ChartOCX\PacketData\PacketImplementation.cpp
; File C:\Program Files (x86)\Microsoft Visual Studio\2019\Community\VC\Tools\MSVC\14.29.30133\atlmfc\include\afxtempl.h
; File D:\git\src\IBK\IBK_DRFN\ProjSrc\SrcChartEx\ChartOCX\PacketData\PacketImplementation.cpp
; File C:\Program Files (x86)\Microsoft Visual Studio\2019\Community\VC\Tools\MSVC\14.29.30133\atlmfc\include\afxtempl.h
; File D:\git\src\IBK\IBK_DRFN\ProjSrc\SrcChartEx\ChartOCX\PacketData\PacketImplementation.cpp
;	COMDAT ?AppendData@CPacketImplementation@@QAEXAAV?$CList@NN@@@Z
_TEXT	SEGMENT
_nData$1$ = -8						; size = 8
_pPrev$1$ = 8						; size = 4
_lsnewData$ = 8						; size = 4
?AppendData@CPacketImplementation@@QAEXAAV?$CList@NN@@@Z PROC ; CPacketImplementation::AppendData, COMDAT
; _this$ = ecx

; 175  : {

  00000	55		 push	 ebp
  00001	8b ec		 mov	 ebp, esp
  00003	83 ec 08	 sub	 esp, 8
  00006	53		 push	 ebx
; File C:\Program Files (x86)\Microsoft Visual Studio\2019\Community\VC\Tools\MSVC\14.29.30133\atlmfc\include\afxtempl.h

; 786  : 	{ return m_nCount == 0; }

  00007	8b 5d 08	 mov	 ebx, DWORD PTR _lsnewData$[ebp]
; File D:\git\src\IBK\IBK_DRFN\ProjSrc\SrcChartEx\ChartOCX\PacketData\PacketImplementation.cpp

; 175  : {

  0000a	56		 push	 esi
  0000b	8b f1		 mov	 esi, ecx
; File C:\Program Files (x86)\Microsoft Visual Studio\2019\Community\VC\Tools\MSVC\14.29.30133\atlmfc\include\afxtempl.h

; 786  : 	{ return m_nCount == 0; }

  0000d	83 7b 0c 00	 cmp	 DWORD PTR [ebx+12], 0
; File D:\git\src\IBK\IBK_DRFN\ProjSrc\SrcChartEx\ChartOCX\PacketData\PacketImplementation.cpp

; 176  : 	if(lsnewData.IsEmpty())

  00011	0f 84 3e 01 00
	00		 je	 $LN1@AppendData

; 177  : 		return ;
; 178  : 	POSITION pos = lsnewData.GetHeadPosition() ;

  00017	8b 5b 04	 mov	 ebx, DWORD PTR [ebx+4]

; 179  : 	while(pos != NULL)

  0001a	85 db		 test	 ebx, ebx
  0001c	0f 84 cd 00 00
	00		 je	 $LN40@AppendData
  00022	8b 96 9c 00 00
	00		 mov	 edx, DWORD PTR [esi+156]
  00028	57		 push	 edi
  00029	0f 1f 80 00 00
	00 00		 npad	 7
$LL2@AppendData:

; 181  : 		double nData = lsnewData.GetNext(pos) ;

  00030	f2 0f 10 43 08	 movsd	 xmm0, QWORD PTR [ebx+8]
; File C:\Program Files (x86)\Microsoft Visual Studio\2019\Community\VC\Tools\MSVC\14.29.30133\atlmfc\include\afxtempl.h

; 811  : 	{ CNode* pNode = (CNode*) rPosition;

  00035	8d 03		 lea	 eax, DWORD PTR [ebx]

; 812  : 		ASSERT(AfxIsValidAddress(pNode, sizeof(CNode)));
; 813  : 		rPosition = (POSITION) pNode->pNext;

  00037	8b 1b		 mov	 ebx, DWORD PTR [ebx]

; 968  : 	CNode* pNewNode = NewNode(m_pNodeTail, NULL);

  00039	89 55 08	 mov	 DWORD PTR _pPrev$1$[ebp], edx

; 902  : 	if (m_pNodeFree == NULL)

  0003c	8b 96 a4 00 00
	00		 mov	 edx, DWORD PTR [esi+164]
; File D:\git\src\IBK\IBK_DRFN\ProjSrc\SrcChartEx\ChartOCX\PacketData\PacketImplementation.cpp

; 181  : 		double nData = lsnewData.GetNext(pos) ;

  00042	f2 0f 11 45 f8	 movsd	 QWORD PTR _nData$1$[ebp], xmm0
; File C:\Program Files (x86)\Microsoft Visual Studio\2019\Community\VC\Tools\MSVC\14.29.30133\atlmfc\include\afxtempl.h

; 902  : 	if (m_pNodeFree == NULL)

  00047	85 d2		 test	 edx, edx
  00049	75 62		 jne	 SHORT $LN38@AppendData

; 903  : 	{
; 904  : 		// add another block
; 905  : 		CPlex* pNewBlock = CPlex::Create(m_pBlocks, m_nBlockSize,

  0004b	6a 10		 push	 16			; 00000010H
  0004d	ff b6 ac 00 00
	00		 push	 DWORD PTR [esi+172]
  00053	8d 86 a8 00 00
	00		 lea	 eax, DWORD PTR [esi+168]
  00059	50		 push	 eax
  0005a	e8 00 00 00 00	 call	 ?Create@CPlex@@SGPAU1@AAPAU1@II@Z ; CPlex::Create

; 906  : 				 sizeof(CNode));
; 907  : 
; 908  : 		// chain them into free list
; 909  : 		CNode* pNode = (CNode*) pNewBlock->data();
; 910  : 		// free in reverse order to make it easier to debug
; 911  : 		pNode += m_nBlockSize - 1;

  0005f	8b 96 ac 00 00
	00		 mov	 edx, DWORD PTR [esi+172]
  00065	83 c0 08	 add	 eax, 8
  00068	8b ca		 mov	 ecx, edx
  0006a	c1 e1 04	 shl	 ecx, 4
  0006d	83 c1 f0	 add	 ecx, -16		; fffffff0H

; 912  : 		for (INT_PTR i = m_nBlockSize-1; i >= 0; i--, pNode--)

  00070	8d 7a ff	 lea	 edi, DWORD PTR [edx-1]
  00073	03 c8		 add	 ecx, eax
  00075	85 ff		 test	 edi, edi
  00077	78 21		 js	 SHORT $LN39@AppendData
  00079	0f 1f 80 00 00
	00 00		 npad	 7
$LL17@AppendData:

; 913  : 		{
; 914  : 			pNode->pNext = m_pNodeFree;

  00080	8b 86 a4 00 00
	00		 mov	 eax, DWORD PTR [esi+164]
  00086	8b d1		 mov	 edx, ecx
  00088	89 01		 mov	 DWORD PTR [ecx], eax

; 915  : 			m_pNodeFree = pNode;

  0008a	89 8e a4 00 00
	00		 mov	 DWORD PTR [esi+164], ecx
  00090	83 e9 10	 sub	 ecx, 16			; 00000010H
  00093	83 ef 01	 sub	 edi, 1
  00096	79 e8		 jns	 SHORT $LL17@AppendData
  00098	eb 06		 jmp	 SHORT $LN20@AppendData
$LN39@AppendData:
  0009a	8b 96 a4 00 00
	00		 mov	 edx, DWORD PTR [esi+164]
$LN20@AppendData:

; 918  : 	ENSURE(m_pNodeFree != NULL);  // we must have something

  000a0	85 d2		 test	 edx, edx
  000a2	0f 84 b5 00 00
	00		 je	 $LN30@AppendData
  000a8	f2 0f 10 45 f8	 movsd	 xmm0, QWORD PTR _nData$1$[ebp]
$LN38@AppendData:

; 919  : 
; 920  : 	CList::CNode* pNode = m_pNodeFree;
; 921  : 	m_pNodeFree = m_pNodeFree->pNext;

  000ad	8b 02		 mov	 eax, DWORD PTR [edx]
  000af	89 86 a4 00 00
	00		 mov	 DWORD PTR [esi+164], eax

; 922  : 	pNode->pPrev = pPrev;

  000b5	8b 45 08	 mov	 eax, DWORD PTR _pPrev$1$[ebp]
  000b8	89 42 04	 mov	 DWORD PTR [edx+4], eax

; 923  : 	pNode->pNext = pNext;

  000bb	c7 02 00 00 00
	00		 mov	 DWORD PTR [edx], 0

; 924  : 	m_nCount++;

  000c1	ff 86 a0 00 00
	00		 inc	 DWORD PTR [esi+160]

; 969  : 	pNewNode->data = newElement;

  000c7	f2 0f 11 42 08	 movsd	 QWORD PTR [edx+8], xmm0

; 970  : 	if (m_pNodeTail != NULL)

  000cc	8b 86 9c 00 00
	00		 mov	 eax, DWORD PTR [esi+156]
  000d2	85 c0		 test	 eax, eax
  000d4	74 04		 je	 SHORT $LN11@AppendData

; 971  : 		m_pNodeTail->pNext = pNewNode;

  000d6	89 10		 mov	 DWORD PTR [eax], edx
  000d8	eb 06		 jmp	 SHORT $LN12@AppendData
$LN11@AppendData:

; 972  : 	else
; 973  : 		m_pNodeHead = pNewNode;

  000da	89 96 98 00 00
	00		 mov	 DWORD PTR [esi+152], edx
$LN12@AppendData:

; 974  : 	m_pNodeTail = pNewNode;

  000e0	89 96 9c 00 00
	00		 mov	 DWORD PTR [esi+156], edx
; File D:\git\src\IBK\IBK_DRFN\ProjSrc\SrcChartEx\ChartOCX\PacketData\PacketImplementation.cpp

; 179  : 	while(pos != NULL)

  000e6	85 db		 test	 ebx, ebx
  000e8	0f 85 42 ff ff
	ff		 jne	 $LL2@AppendData
  000ee	5f		 pop	 edi
$LN40@AppendData:

; 1800 : 	m_dContinueCode_Pre			= -HUGE_VAL;

  000ef	0f 28 05 00 00
	00 00		 movaps	 xmm0, XMMWORD PTR __xmm@fff0000000000000fff0000000000000

; 1801 : 	m_dExceptionValue_Pre		= -HUGE_VAL;
; 1802 : 	m_nStartPeriod_Pre			= -1;
; 1803 : 	m_nStartIndex_Pre			= -1;
; 1804 : 	m_nEndIndex_Pre				= -1;
; 1805 : 	m_dPreMaxValue				= -DBL_MAX;

  000f6	f2 0f 10 0d 00
	00 00 00	 movsd	 xmm1, QWORD PTR __real@ffefffffffffffff
  000fe	0f 11 86 18 01
	00 00		 movups	 XMMWORD PTR [esi+280], xmm0
  00105	c7 86 10 01 00
	00 00 00 00 00	 mov	 DWORD PTR [esi+272], 0

; 1806 : 	m_dPreMinValue				= DBL_MAX;

  0010f	f2 0f 10 05 00
	00 00 00	 movsd	 xmm0, QWORD PTR __real@7fefffffffffffff
  00117	c7 86 28 01 00
	00 ff ff ff ff	 mov	 DWORD PTR [esi+296], -1
  00121	c7 86 2c 01 00
	00 ff ff ff ff	 mov	 DWORD PTR [esi+300], -1
  0012b	c7 86 30 01 00
	00 ff ff ff ff	 mov	 DWORD PTR [esi+304], -1
  00135	f2 0f 11 8e 38
	01 00 00	 movsd	 QWORD PTR [esi+312], xmm1
  0013d	f2 0f 11 86 40
	01 00 00	 movsd	 QWORD PTR [esi+320], xmm0

; 1807 : 	m_dPreMaxValueWithoutEnd	= -DBL_MAX;

  00145	f2 0f 11 8e 48
	01 00 00	 movsd	 QWORD PTR [esi+328], xmm1

; 1808 : 	m_dPreMinValueWithoutEnd	= DBL_MAX;

  0014d	f2 0f 11 86 50
	01 00 00	 movsd	 QWORD PTR [esi+336], xmm0
$LN1@AppendData:
  00155	5e		 pop	 esi

; 185  : }

  00156	5b		 pop	 ebx
  00157	8b e5		 mov	 esp, ebp
  00159	5d		 pop	 ebp
  0015a	c2 04 00	 ret	 4
$LN30@AppendData:
; File C:\Program Files (x86)\Microsoft Visual Studio\2019\Community\VC\Tools\MSVC\14.29.30133\atlmfc\include\afxtempl.h

; 918  : 	ENSURE(m_pNodeFree != NULL);  // we must have something

  0015d	e8 00 00 00 00	 call	 ?AfxThrowInvalidArgException@@YGXXZ ; AfxThrowInvalidArgException
$LN42@AppendData:
  00162	cc		 int	 3
?AppendData@CPacketImplementation@@QAEXAAV?$CList@NN@@@Z ENDP ; CPacketImplementation::AppendData
_TEXT	ENDS
; Function compile flags: /Ogtp
; File D:\git\src\IBK\IBK_DRFN\ProjSrc\SrcChartEx\ChartOCX\PacketData\PacketImplementation.cpp
; File C:\Program Files (x86)\Microsoft Visual Studio\2019\Community\VC\Tools\MSVC\14.29.30133\atlmfc\include\cstringt.h
; File D:\git\src\IBK\IBK_DRFN\ProjSrc\SrcChartEx\ChartOCX\PacketData\PacketImplementation.cpp
; File C:\Program Files (x86)\Microsoft Visual Studio\2019\Community\VC\Tools\MSVC\14.29.30133\atlmfc\include\cstringt.h
; File D:\git\src\IBK\IBK_DRFN\ProjSrc\SrcChartEx\ChartOCX\PacketData\PacketImplementation.cpp
; File C:\Program Files (x86)\Microsoft Visual Studio\2019\Community\VC\Tools\MSVC\14.29.30133\atlmfc\include\afxtempl.h
; File D:\git\src\IBK\IBK_DRFN\ProjSrc\SrcChartEx\ChartOCX\PacketData\PacketImplementation.cpp
; File C:\Program Files (x86)\Microsoft Visual Studio\2019\Community\VC\Tools\MSVC\14.29.30133\atlmfc\include\cstringt.h
; File D:\git\src\IBK\IBK_DRFN\ProjSrc\SrcChartEx\ChartOCX\PacketData\PacketImplementation.cpp
; File C:\Program Files (x86)\Microsoft Visual Studio\2019\Community\VC\Tools\MSVC\14.29.30133\atlmfc\include\afxtempl.h
; File D:\git\src\IBK\IBK_DRFN\ProjSrc\SrcChartEx\ChartOCX\PacketData\PacketImplementation.cpp
; File C:\Program Files (x86)\Microsoft Visual Studio\2019\Community\VC\Tools\MSVC\14.29.30133\atlmfc\include\cstringt.h
; File D:\git\src\IBK\IBK_DRFN\ProjSrc\SrcChartEx\ChartOCX\PacketData\PacketImplementation.cpp
; File C:\Program Files (x86)\Microsoft Visual Studio\2019\Community\VC\Tools\MSVC\14.29.30133\atlmfc\include\afxtempl.h
; File D:\git\src\IBK\IBK_DRFN\ProjSrc\SrcChartEx\ChartOCX\PacketData\PacketImplementation.cpp
; File C:\Program Files (x86)\Microsoft Visual Studio\2019\Community\VC\Tools\MSVC\14.29.30133\atlmfc\include\afxtempl.h
; File D:\git\src\IBK\IBK_DRFN\ProjSrc\SrcChartEx\ChartOCX\PacketData\PacketImplementation.cpp
; File C:\Program Files (x86)\Microsoft Visual Studio\2019\Community\VC\Tools\MSVC\14.29.30133\atlmfc\include\afxtempl.h
; File D:\git\src\IBK\IBK_DRFN\ProjSrc\SrcChartEx\ChartOCX\PacketData\PacketImplementation.cpp
; File C:\Program Files (x86)\Microsoft Visual Studio\2019\Community\VC\Tools\MSVC\14.29.30133\atlmfc\include\afxtempl.h
; File D:\git\src\IBK\IBK_DRFN\ProjSrc\SrcChartEx\ChartOCX\PacketData\PacketImplementation.cpp
; File C:\Program Files (x86)\Microsoft Visual Studio\2019\Community\VC\Tools\MSVC\14.29.30133\atlmfc\include\afxtempl.h
; File D:\git\src\IBK\IBK_DRFN\ProjSrc\SrcChartEx\ChartOCX\PacketData\PacketImplementation.cpp
;	COMDAT ?AppendData@CPacketImplementation@@QAEXNH@Z
_TEXT	SEGMENT
_dData3$1 = -32						; size = 8
_dData2$2 = -24						; size = 8
tv649 = -16						; size = 8
tv622 = -16						; size = 8
_dRealData$1$ = -16					; size = 8
_dData1$3 = -16						; size = 8
_dData2$4 = -8						; size = 8
_dValue$5 = -8						; size = 8
_dValue$1$ = 8						; size = 8
_nData$ = 8						; size = 8
tv592 = 16						; size = 4
tv589 = 16						; size = 4
_nIndex$ = 16						; size = 4
?AppendData@CPacketImplementation@@QAEXNH@Z PROC	; CPacketImplementation::AppendData, COMDAT
; _this$ = ecx

; 126  : {

  00000	55		 push	 ebp
  00001	8b ec		 mov	 ebp, esp

; 127  : 	if(m_Type == _MTEXT( C6_CHARACTER))

  00003	a1 54 00 00 00	 mov	 eax, DWORD PTR ?g_iMetaTable@@3VIMetaTable@@A+84
  00008	83 ec 20	 sub	 esp, 32			; 00000020H
  0000b	56		 push	 esi
; File C:\Program Files (x86)\Microsoft Visual Studio\2019\Community\VC\Tools\MSVC\14.29.30133\atlmfc\include\cstringt.h

; 2486 : 		return(str1.Compare(psz2) == 0);

  0000c	ff b0 60 09 00
	00		 push	 DWORD PTR [eax+2400]
; File D:\git\src\IBK\IBK_DRFN\ProjSrc\SrcChartEx\ChartOCX\PacketData\PacketImplementation.cpp

; 126  : {

  00012	8b f1		 mov	 esi, ecx

; 127  : 	if(m_Type == _MTEXT( C6_CHARACTER))

  00014	8d 4e 64	 lea	 ecx, DWORD PTR [esi+100]
; File C:\Program Files (x86)\Microsoft Visual Studio\2019\Community\VC\Tools\MSVC\14.29.30133\atlmfc\include\cstringt.h

; 2486 : 		return(str1.Compare(psz2) == 0);

  00017	ff 15 00 00 00
	00		 call	 DWORD PTR __imp_?Compare@?$CStringT@DV?$StrTraitMFC_DLL@DV?$ChTraitsCRT@D@ATL@@@@@ATL@@QBEHPBD@Z
  0001d	85 c0		 test	 eax, eax
; File D:\git\src\IBK\IBK_DRFN\ProjSrc\SrcChartEx\ChartOCX\PacketData\PacketImplementation.cpp

; 127  : 	if(m_Type == _MTEXT( C6_CHARACTER))

  0001f	0f 84 ef 02 00
	00		 je	 $LN4@AppendData

; 128  : 		return;
; 129  : 
; 130  : 	//sy 2003.3.19 ->   update data packet  .
; 131  : 	if(nIndex < 0)

  00025	8b 45 10	 mov	 eax, DWORD PTR _nIndex$[ebp]
  00028	57		 push	 edi
  00029	85 c0		 test	 eax, eax
  0002b	0f 89 31 02 00
	00		 jns	 $LN3@AppendData

; 1547 : 	if(!IsChangeRealData())

  00031	8b ce		 mov	 ecx, esi
  00033	e8 00 00 00 00	 call	 ?IsChangeRealData@CPacketImplementation@@QBE_NXZ ; CPacketImplementation::IsChangeRealData
  00038	84 c0		 test	 al, al
  0003a	75 11		 jne	 SHORT $LN9@AppendData

; 1548 : 		return dData;

  0003c	f2 0f 10 45 08	 movsd	 xmm0, QWORD PTR _nData$[ebp]
  00041	f2 0f 11 45 08	 movsd	 QWORD PTR _dValue$1$[ebp], xmm0
  00046	f2 0f 11 45 f8	 movsd	 QWORD PTR _dValue$5[ebp], xmm0
  0004b	eb 7a		 jmp	 SHORT $LN8@AppendData
$LN9@AppendData:

; 1549 : 
; 1550 : 	// gap   ->    data gap  data list   .
; 1551 : 	if(!m_realDataGap.IsUsing())

  0004d	8d 4e 70	 lea	 ecx, DWORD PTR [esi+112]
  00050	e8 00 00 00 00	 call	 ?IsUsing@CItemData@@QBE_NXZ ; CItemData::IsUsing
  00055	84 c0		 test	 al, al
  00057	75 1f		 jne	 SHORT $LN10@AppendData

; 1552 : 	{
; 1553 : 		double dData1 = fabs( dData);

  00059	f2 0f 10 45 08	 movsd	 xmm0, QWORD PTR _nData$[ebp]

; 1554 : 		m_realDataGap.Set(true, dData1);

  0005e	8d 45 f0	 lea	 eax, DWORD PTR _dData1$3[ebp]
  00061	0f 54 05 00 00
	00 00		 andps	 xmm0, QWORD PTR __xmm@7fffffffffffffff7fffffffffffffff
  00068	8d 4e 70	 lea	 ecx, DWORD PTR [esi+112]
  0006b	50		 push	 eax
  0006c	6a 01		 push	 1
  0006e	f2 0f 11 45 f0	 movsd	 QWORD PTR _dData1$3[ebp], xmm0
  00073	e8 00 00 00 00	 call	 ?Set@CItemData@@QAEX_NABN@Z ; CItemData::Set
$LN10@AppendData:

; 1555 : 	}
; 1556 : 
; 1557 : 	// gap  
; 1558 : 	double dRealData = abs((int)dData - (int)m_realDataGap.GetData());

  00078	8d 4e 70	 lea	 ecx, DWORD PTR [esi+112]
  0007b	e8 00 00 00 00	 call	 ?GetData@CItemData@@QBENXZ ; CItemData::GetData
  00080	f2 0f 10 4d 08	 movsd	 xmm1, QWORD PTR _nData$[ebp]
  00085	dd 5d f0	 fstp	 QWORD PTR tv649[ebp]
  00088	f2 0f 2c 4d f0	 cvttsd2si ecx, QWORD PTR tv649[ebp]
  0008d	f2 0f 2c c1	 cvttsd2si eax, xmm1

; 1559 : 	double dData2 = fabs( dData);

  00091	0f 54 0d 00 00
	00 00		 andps	 xmm1, QWORD PTR __xmm@7fffffffffffffff7fffffffffffffff
  00098	2b c1		 sub	 eax, ecx
  0009a	f2 0f 11 4d f8	 movsd	 QWORD PTR _dData2$4[ebp], xmm1
  0009f	99		 cdq

; 1560 : 	m_realDataGap.SetData( dData2);

  000a0	8d 4e 70	 lea	 ecx, DWORD PTR [esi+112]
  000a3	33 c2		 xor	 eax, edx
  000a5	2b c2		 sub	 eax, edx
  000a7	66 0f 6e c0	 movd	 xmm0, eax
  000ab	8d 45 f8	 lea	 eax, DWORD PTR _dData2$4[ebp]
  000ae	f3 0f e6 c0	 cvtdq2pd xmm0, xmm0
  000b2	50		 push	 eax
  000b3	f2 0f 11 45 08	 movsd	 QWORD PTR _dValue$1$[ebp], xmm0
  000b8	e8 00 00 00 00	 call	 ?SetData@CItemData@@QAEXABN@Z ; CItemData::SetData

; 1561 : 	return dRealData;

  000bd	f2 0f 10 4d 08	 movsd	 xmm1, QWORD PTR _dValue$1$[ebp]
  000c2	f2 0f 11 4d f8	 movsd	 QWORD PTR _dValue$5[ebp], xmm1
$LN8@AppendData:
; File C:\Program Files (x86)\Microsoft Visual Studio\2019\Community\VC\Tools\MSVC\14.29.30133\atlmfc\include\afxtempl.h

; 968  : 	CNode* pNewNode = NewNode(m_pNodeTail, NULL);

  000c7	6a 00		 push	 0
  000c9	ff b6 9c 00 00
	00		 push	 DWORD PTR [esi+156]
  000cf	8d 8e 94 00 00
	00		 lea	 ecx, DWORD PTR [esi+148]
  000d5	e8 00 00 00 00	 call	 ?NewNode@?$CList@NN@@IAEPAUCNode@1@PAU21@0@Z ; CList<double,double>::NewNode

; 969  : 	pNewNode->data = newElement;

  000da	f2 0f 10 45 08	 movsd	 xmm0, QWORD PTR _dValue$1$[ebp]
  000df	f2 0f 11 40 08	 movsd	 QWORD PTR [eax+8], xmm0

; 970  : 	if (m_pNodeTail != NULL)

  000e4	8b 8e 9c 00 00
	00		 mov	 ecx, DWORD PTR [esi+156]
  000ea	85 c9		 test	 ecx, ecx
  000ec	74 04		 je	 SHORT $LN13@AppendData

; 971  : 		m_pNodeTail->pNext = pNewNode;

  000ee	89 01		 mov	 DWORD PTR [ecx], eax
  000f0	eb 06		 jmp	 SHORT $LN14@AppendData
$LN13@AppendData:

; 972  : 	else
; 973  : 		m_pNodeHead = pNewNode;

  000f2	89 86 98 00 00
	00		 mov	 DWORD PTR [esi+152], eax
$LN14@AppendData:

; 974  : 	m_pNodeTail = pNewNode;

  000f8	89 86 9c 00 00
	00		 mov	 DWORD PTR [esi+156], eax
; File D:\git\src\IBK\IBK_DRFN\ProjSrc\SrcChartEx\ChartOCX\PacketData\PacketImplementation.cpp

; 718  : 	if(nIndex == -1) {	//2003.05.26 nykim

  000fe	8d 4e 64	 lea	 ecx, DWORD PTR [esi+100]
  00101	a1 54 00 00 00	 mov	 eax, DWORD PTR ?g_iMetaTable@@3VIMetaTable@@A+84

; 132  : 	{
; 133  : 		double dValue = GetRealData_AppendData(nData);
; 134  : 		m_lnData.AddTail(dValue);
; 135  : 		UpdateData( dValue, m_lnData.GetCount() - 1);

  00106	8b be a0 00 00
	00		 mov	 edi, DWORD PTR [esi+160]
  0010c	4f		 dec	 edi

; 718  : 	if(nIndex == -1) {	//2003.05.26 nykim

  0010d	ff b0 60 09 00
	00		 push	 DWORD PTR [eax+2400]
  00113	ff 15 00 00 00
	00		 call	 DWORD PTR __imp_?Compare@?$CStringT@DV?$StrTraitMFC_DLL@DV?$ChTraitsCRT@D@ATL@@@@@ATL@@QBEHPBD@Z
  00119	83 ff ff	 cmp	 edi, -1
  0011c	0f 85 06 01 00
	00		 jne	 $LN17@AppendData
; File C:\Program Files (x86)\Microsoft Visual Studio\2019\Community\VC\Tools\MSVC\14.29.30133\atlmfc\include\cstringt.h

; 2486 : 		return(str1.Compare(psz2) == 0);

  00122	85 c0		 test	 eax, eax
; File D:\git\src\IBK\IBK_DRFN\ProjSrc\SrcChartEx\ChartOCX\PacketData\PacketImplementation.cpp

; 690  : 	if(m_Type == _MTEXT( C6_CHARACTER))

  00124	0f 84 e9 01 00
	00		 je	 $LN71@AppendData

; 691  : 		return;
; 692  : 
; 693  : 	POSITION pos = m_lnData.GetTailPosition();

  0012a	8b be 9c 00 00
	00		 mov	 edi, DWORD PTR [esi+156]

; 694  : 	if(!pos)

  00130	85 ff		 test	 edi, edi
  00132	0f 84 db 01 00
	00		 je	 $LN71@AppendData

; 1521 : 	dRealData = dData;

  00138	f2 0f 10 45 08	 movsd	 xmm0, QWORD PTR _dValue$1$[ebp]

; 1522 : 	if(!IsChangeRealData())

  0013d	8b ce		 mov	 ecx, esi
  0013f	f2 0f 11 45 f0	 movsd	 QWORD PTR _dRealData$1$[ebp], xmm0
  00144	e8 00 00 00 00	 call	 ?IsChangeRealData@CPacketImplementation@@QBE_NXZ ; CPacketImplementation::IsChangeRealData
  00149	84 c0		 test	 al, al
  0014b	0f 84 9a 00 00
	00		 je	 $LN68@AppendData

; 1523 : 		return true;
; 1524 : 
; 1525 : 	// gap   ->    data gap  data list   .
; 1526 : 	if(!m_realDataGap.IsUsing())

  00151	8d 46 70	 lea	 eax, DWORD PTR [esi+112]
  00154	8b c8		 mov	 ecx, eax
  00156	89 45 10	 mov	 DWORD PTR tv589[ebp], eax
  00159	e8 00 00 00 00	 call	 ?IsUsing@CItemData@@QBE_NXZ ; CItemData::IsUsing
  0015e	84 c0		 test	 al, al
  00160	75 27		 jne	 SHORT $LN34@AppendData

; 1527 : 	{
; 1528 : 		double dData2 = fabs( dData);

  00162	f2 0f 10 45 08	 movsd	 xmm0, QWORD PTR _dValue$1$[ebp]

; 1529 : 		m_realDataGap.Set( true, dData2);

  00167	8d 45 e8	 lea	 eax, DWORD PTR _dData2$2[ebp]
  0016a	0f 54 05 00 00
	00 00		 andps	 xmm0, QWORD PTR __xmm@7fffffffffffffff7fffffffffffffff
  00171	8b 4d 10	 mov	 ecx, DWORD PTR tv589[ebp]
  00174	50		 push	 eax
  00175	6a 01		 push	 1
  00177	f2 0f 11 45 e8	 movsd	 QWORD PTR _dData2$2[ebp], xmm0
  0017c	e8 00 00 00 00	 call	 ?Set@CItemData@@QAEX_NABN@Z ; CItemData::Set
  00181	5f		 pop	 edi
  00182	5e		 pop	 esi

; 142  : }

  00183	8b e5		 mov	 esp, ebp
  00185	5d		 pop	 ebp
  00186	c2 0c 00	 ret	 12			; 0000000cH
$LN34@AppendData:
; File C:\Program Files (x86)\Microsoft Visual Studio\2019\Community\VC\Tools\MSVC\14.29.30133\atlmfc\include\afxtempl.h

; 797  : 	{ ENSURE(m_pNodeTail != NULL);

  00189	8b 86 9c 00 00
	00		 mov	 eax, DWORD PTR [esi+156]
  0018f	89 45 10	 mov	 DWORD PTR tv592[ebp], eax
  00192	85 c0		 test	 eax, eax
  00194	0f 84 81 01 00
	00		 je	 $LN74@AppendData
; File D:\git\src\IBK\IBK_DRFN\ProjSrc\SrcChartEx\ChartOCX\PacketData\PacketImplementation.cpp

; 1536 : 	dRealData = (double)m_lnData.GetTail() + fabs((double)dData - (double)m_realDataGap.GetData());

  0019a	8d 4e 70	 lea	 ecx, DWORD PTR [esi+112]
  0019d	e8 00 00 00 00	 call	 ?GetData@CItemData@@QBENXZ ; CItemData::GetData
  001a2	dc 6d f8	 fsubr	 QWORD PTR _dValue$5[ebp]
  001a5	8b 45 10	 mov	 eax, DWORD PTR tv592[ebp]

; 1537 : 	//	------------<<<<
; 1538 : 	double dData3 = fabs(dData);
; 1539 : 	m_realDataGap.SetData( dData3);

  001a8	8d 4e 70	 lea	 ecx, DWORD PTR [esi+112]
  001ab	dd 5d f0	 fstp	 QWORD PTR tv622[ebp]
  001ae	f2 0f 10 45 f0	 movsd	 xmm0, QWORD PTR tv622[ebp]
  001b3	0f 54 05 00 00
	00 00		 andps	 xmm0, QWORD PTR __xmm@7fffffffffffffff7fffffffffffffff
  001ba	f2 0f 58 40 08	 addsd	 xmm0, QWORD PTR [eax+8]
  001bf	8d 45 e0	 lea	 eax, DWORD PTR _dData3$1[ebp]
  001c2	50		 push	 eax
  001c3	f2 0f 11 45 f0	 movsd	 QWORD PTR _dRealData$1$[ebp], xmm0
  001c8	f2 0f 10 45 08	 movsd	 xmm0, QWORD PTR _dValue$1$[ebp]
  001cd	0f 54 05 00 00
	00 00		 andps	 xmm0, QWORD PTR __xmm@7fffffffffffffff7fffffffffffffff
  001d4	f2 0f 11 45 e0	 movsd	 QWORD PTR _dData3$1[ebp], xmm0
  001d9	e8 00 00 00 00	 call	 ?SetData@CItemData@@QAEXABN@Z ; CItemData::SetData

; 699  : 	if(!GetRealData_UpdateData(nData, dRealData))

  001de	83 be a0 00 00
	00 00		 cmp	 DWORD PTR [esi+160], 0
  001e5	0f 8e 28 01 00
	00		 jle	 $LN71@AppendData
$LN68@AppendData:

; 700  : 		return;
; 701  : 
; 702  : 	double oldValue = m_lnData.GetAt(pos);
; 703  : 	if(oldValue == nData)

  001eb	f2 0f 10 47 08	 movsd	 xmm0, QWORD PTR [edi+8]
  001f0	66 0f 2e 45 08	 ucomisd xmm0, QWORD PTR _dValue$1$[ebp]
  001f5	9f		 lahf
  001f6	f6 c4 44	 test	 ah, 68			; 00000044H
  001f9	0f 8b 14 01 00
	00		 jnp	 $LN71@AppendData

; 704  : 		return;
; 705  : 
; 706  : 	m_lnData.SetAt(pos, dRealData);

  001ff	f2 0f 10 45 f0	 movsd	 xmm0, QWORD PTR _dRealData$1$[ebp]

; 707  : 
; 708  : 	// (2009/1/17 - Seung-Won, Bae) Support Min/Max cache. Do not make Min/Max every time of updating data.
; 709  : 	//		Do not support Full Range Min/Max for collision with Pre-Min/Max.
; 710  : 	UpdateMinMax( dRealData, m_lnData.GetCount() - 1);

  00204	8b ce		 mov	 ecx, esi
  00206	f2 0f 11 47 08	 movsd	 QWORD PTR [edi+8], xmm0
  0020b	8b 86 a0 00 00
	00		 mov	 eax, DWORD PTR [esi+160]
  00211	48		 dec	 eax
  00212	50		 push	 eax
  00213	83 ec 08	 sub	 esp, 8
  00216	f2 0f 11 04 24	 movsd	 QWORD PTR [esp], xmm0
  0021b	e8 00 00 00 00	 call	 ?UpdateMinMax@CPacketImplementation@@QAEXNH@Z ; CPacketImplementation::UpdateMinMax
  00220	5f		 pop	 edi
  00221	5e		 pop	 esi

; 142  : }

  00222	8b e5		 mov	 esp, ebp
  00224	5d		 pop	 ebp
  00225	c2 0c 00	 ret	 12			; 0000000cH
$LN17@AppendData:
; File C:\Program Files (x86)\Microsoft Visual Studio\2019\Community\VC\Tools\MSVC\14.29.30133\atlmfc\include\cstringt.h

; 2486 : 		return(str1.Compare(psz2) == 0);

  00228	85 c0		 test	 eax, eax
; File D:\git\src\IBK\IBK_DRFN\ProjSrc\SrcChartEx\ChartOCX\PacketData\PacketImplementation.cpp

; 723  : 	if(m_Type == _MTEXT( C6_CHARACTER))

  0022a	0f 84 e3 00 00
	00		 je	 $LN71@AppendData

; 724  : 		return;
; 725  : 	
; 726  : 	POSITION pos = FindPosition(nIndex);

  00230	57		 push	 edi
  00231	8b ce		 mov	 ecx, esi
  00233	e8 00 00 00 00	 call	 ?FindPosition@CPacketImplementation@@ABEPAU__POSITION@@H@Z ; CPacketImplementation::FindPosition

; 727  : 	if(pos == NULL)

  00238	85 c0		 test	 eax, eax
  0023a	0f 84 d3 00 00
	00		 je	 $LN71@AppendData

; 728  : 	{
; 729  : 		if( bIsCurrentData)	return;
; 730  : 		else				m_lnData.AddTail(nData);
; 731  : 
; 732  : 		// (2009/1/17 - Seung-Won, Bae) Support Min/Max cache. Do not make Min/Max every time of updating data.
; 733  : 		//		Do not support Full Range Min/Max for collision with Pre-Min/Max.
; 734  : 		UpdateMinMax( nData, m_lnData.GetCount() - 1);
; 735  : 	}
; 736  : 	else
; 737  : 	{
; 738  : 		m_lnData.SetAt( pos, nData);

  00240	f2 0f 10 45 08	 movsd	 xmm0, QWORD PTR _dValue$1$[ebp]

; 739  : 
; 740  : 		// (2009/1/17 - Seung-Won, Bae) Support Min/Max cache. Do not make Min/Max every time of updating data.
; 741  : 		//		Do not support Full Range Min/Max for collision with Pre-Min/Max.
; 742  : 		UpdateMinMax( nData, nIndex);

  00245	8b ce		 mov	 ecx, esi
  00247	57		 push	 edi
  00248	83 ec 08	 sub	 esp, 8
  0024b	f2 0f 11 40 08	 movsd	 QWORD PTR [eax+8], xmm0
  00250	f2 0f 11 04 24	 movsd	 QWORD PTR [esp], xmm0
  00255	e8 00 00 00 00	 call	 ?UpdateMinMax@CPacketImplementation@@QAEXNH@Z ; CPacketImplementation::UpdateMinMax
  0025a	5f		 pop	 edi
  0025b	5e		 pop	 esi

; 142  : }

  0025c	8b e5		 mov	 esp, ebp
  0025e	5d		 pop	 ebp
  0025f	c2 0c 00	 ret	 12			; 0000000cH
$LN3@AppendData:
; File C:\Program Files (x86)\Microsoft Visual Studio\2019\Community\VC\Tools\MSVC\14.29.30133\atlmfc\include\afxtempl.h

; 1133 : 	if (nIndex >= m_nCount || nIndex < 0)

  00262	3b 86 a0 00 00
	00		 cmp	 eax, DWORD PTR [esi+160]
  00268	7d 61		 jge	 SHORT $LN70@AppendData

; 1134 : 		return NULL;  // went too far
; 1135 : 
; 1136 : 	CNode* pNode = m_pNodeHead;

  0026a	8b be 98 00 00
	00		 mov	 edi, DWORD PTR [esi+152]

; 1137 : 	while (nIndex--)

  00270	85 c0		 test	 eax, eax
  00272	74 07		 je	 SHORT $LN64@AppendData
$LL49@AppendData:

; 1138 : 	{
; 1139 : 		ASSERT(AfxIsValidAddress(pNode, sizeof(CNode)));
; 1140 : 		pNode = pNode->pNext;

  00274	8b 3f		 mov	 edi, DWORD PTR [edi]
  00276	83 e8 01	 sub	 eax, 1
  00279	75 f9		 jne	 SHORT $LL49@AppendData
$LN64@AppendData:

; 1048 : 	if (position == NULL)

  0027b	85 ff		 test	 edi, edi
  0027d	74 4c		 je	 SHORT $LN70@AppendData

; 1049 : 		return AddHead(newElement); // insert before nothing -> head of the list
; 1050 : 
; 1051 : 	// Insert it before position
; 1052 : 	CNode* pOldNode = (CNode*) position;
; 1053 : 	CNode* pNewNode = NewNode(pOldNode->pPrev, pOldNode);

  0027f	57		 push	 edi
  00280	ff 77 04	 push	 DWORD PTR [edi+4]
  00283	8d 8e 94 00 00
	00		 lea	 ecx, DWORD PTR [esi+148]
  00289	e8 00 00 00 00	 call	 ?NewNode@?$CList@NN@@IAEPAUCNode@1@PAU21@0@Z ; CList<double,double>::NewNode

; 1054 : 	pNewNode->data = newElement;

  0028e	f2 0f 10 45 08	 movsd	 xmm0, QWORD PTR _nData$[ebp]
  00293	f2 0f 11 40 08	 movsd	 QWORD PTR [eax+8], xmm0

; 1055 : 
; 1056 : 	if (pOldNode->pPrev != NULL)

  00298	8b 4f 04	 mov	 ecx, DWORD PTR [edi+4]
  0029b	85 c9		 test	 ecx, ecx
  0029d	74 14		 je	 SHORT $LN56@AppendData

; 1057 : 	{
; 1058 : 		ASSERT(AfxIsValidAddress(pOldNode->pPrev, sizeof(CNode)));
; 1059 : 		pOldNode->pPrev->pNext = pNewNode;

  0029f	89 01		 mov	 DWORD PTR [ecx], eax
; File D:\git\src\IBK\IBK_DRFN\ProjSrc\SrcChartEx\ChartOCX\PacketData\PacketImplementation.cpp

; 140  : 		ClearMinMax();

  002a1	8b ce		 mov	 ecx, esi
  002a3	89 47 04	 mov	 DWORD PTR [edi+4], eax
  002a6	e8 00 00 00 00	 call	 ?ClearMinMax@CPacketImplementation@@QAEXXZ ; CPacketImplementation::ClearMinMax
  002ab	5f		 pop	 edi
  002ac	5e		 pop	 esi

; 142  : }

  002ad	8b e5		 mov	 esp, ebp
  002af	5d		 pop	 ebp
  002b0	c2 0c 00	 ret	 12			; 0000000cH
$LN56@AppendData:
; File C:\Program Files (x86)\Microsoft Visual Studio\2019\Community\VC\Tools\MSVC\14.29.30133\atlmfc\include\afxtempl.h

; 1064 : 		m_pNodeHead = pNewNode;

  002b3	89 86 98 00 00
	00		 mov	 DWORD PTR [esi+152], eax
; File D:\git\src\IBK\IBK_DRFN\ProjSrc\SrcChartEx\ChartOCX\PacketData\PacketImplementation.cpp

; 140  : 		ClearMinMax();

  002b9	8b ce		 mov	 ecx, esi
  002bb	89 47 04	 mov	 DWORD PTR [edi+4], eax
  002be	e8 00 00 00 00	 call	 ?ClearMinMax@CPacketImplementation@@QAEXXZ ; CPacketImplementation::ClearMinMax
  002c3	5f		 pop	 edi
  002c4	5e		 pop	 esi

; 142  : }

  002c5	8b e5		 mov	 esp, ebp
  002c7	5d		 pop	 ebp
  002c8	c2 0c 00	 ret	 12			; 0000000cH
$LN70@AppendData:
; File C:\Program Files (x86)\Microsoft Visual Studio\2019\Community\VC\Tools\MSVC\14.29.30133\atlmfc\include\afxtempl.h

; 953  : 	CNode* pNewNode = NewNode(NULL, m_pNodeHead);

  002cb	ff b6 98 00 00
	00		 push	 DWORD PTR [esi+152]
  002d1	8d be 94 00 00
	00		 lea	 edi, DWORD PTR [esi+148]
  002d7	6a 00		 push	 0
  002d9	8b cf		 mov	 ecx, edi
  002db	e8 00 00 00 00	 call	 ?NewNode@?$CList@NN@@IAEPAUCNode@1@PAU21@0@Z ; CList<double,double>::NewNode

; 954  : 	pNewNode->data = newElement;

  002e0	f2 0f 10 45 08	 movsd	 xmm0, QWORD PTR _nData$[ebp]
  002e5	f2 0f 11 40 08	 movsd	 QWORD PTR [eax+8], xmm0

; 955  : 	if (m_pNodeHead != NULL)

  002ea	8b 4f 04	 mov	 ecx, DWORD PTR [edi+4]
  002ed	85 c9		 test	 ecx, ecx
  002ef	74 15		 je	 SHORT $LN60@AppendData

; 956  : 		m_pNodeHead->pPrev = pNewNode;

  002f1	89 41 04	 mov	 DWORD PTR [ecx+4], eax
; File D:\git\src\IBK\IBK_DRFN\ProjSrc\SrcChartEx\ChartOCX\PacketData\PacketImplementation.cpp

; 140  : 		ClearMinMax();

  002f4	8b ce		 mov	 ecx, esi
  002f6	89 47 04	 mov	 DWORD PTR [edi+4], eax
  002f9	e8 00 00 00 00	 call	 ?ClearMinMax@CPacketImplementation@@QAEXXZ ; CPacketImplementation::ClearMinMax
  002fe	5f		 pop	 edi
  002ff	5e		 pop	 esi

; 142  : }

  00300	8b e5		 mov	 esp, ebp
  00302	5d		 pop	 ebp
  00303	c2 0c 00	 ret	 12			; 0000000cH
$LN60@AppendData:
; File C:\Program Files (x86)\Microsoft Visual Studio\2019\Community\VC\Tools\MSVC\14.29.30133\atlmfc\include\afxtempl.h

; 958  : 		m_pNodeTail = pNewNode;

  00306	89 47 08	 mov	 DWORD PTR [edi+8], eax
; File D:\git\src\IBK\IBK_DRFN\ProjSrc\SrcChartEx\ChartOCX\PacketData\PacketImplementation.cpp

; 140  : 		ClearMinMax();

  00309	8b ce		 mov	 ecx, esi
  0030b	89 47 04	 mov	 DWORD PTR [edi+4], eax
  0030e	e8 00 00 00 00	 call	 ?ClearMinMax@CPacketImplementation@@QAEXXZ ; CPacketImplementation::ClearMinMax
$LN71@AppendData:
  00313	5f		 pop	 edi
$LN4@AppendData:
  00314	5e		 pop	 esi

; 142  : }

  00315	8b e5		 mov	 esp, ebp
  00317	5d		 pop	 ebp
  00318	c2 0c 00	 ret	 12			; 0000000cH
$LN74@AppendData:
; File C:\Program Files (x86)\Microsoft Visual Studio\2019\Community\VC\Tools\MSVC\14.29.30133\atlmfc\include\afxtempl.h

; 797  : 	{ ENSURE(m_pNodeTail != NULL);

  0031b	e8 00 00 00 00	 call	 ?AfxThrowInvalidArgException@@YGXXZ ; AfxThrowInvalidArgException
$LN72@AppendData:
  00320	cc		 int	 3
?AppendData@CPacketImplementation@@QAEXNH@Z ENDP	; CPacketImplementation::AppendData
_TEXT	ENDS
; Function compile flags: /Ogtp
; File D:\git\src\IBK\IBK_DRFN\ProjSrc\SrcChartEx\ChartOCX\PacketData\PacketImplementation.cpp
; File C:\Program Files (x86)\Microsoft Visual Studio\2019\Community\VC\Tools\MSVC\14.29.30133\atlmfc\include\cstringt.h
; File D:\git\src\IBK\IBK_DRFN\ProjSrc\SrcChartEx\ChartOCX\PacketData\PacketImplementation.cpp
; File C:\Program Files (x86)\Microsoft Visual Studio\2019\Community\VC\Tools\MSVC\14.29.30133\atlmfc\include\afxtempl.h
; File D:\git\src\IBK\IBK_DRFN\ProjSrc\SrcChartEx\ChartOCX\PacketData\PacketImplementation.cpp
; File C:\Program Files (x86)\Microsoft Visual Studio\2019\Community\VC\Tools\MSVC\14.29.30133\atlmfc\include\afxtempl.h
; File D:\git\src\IBK\IBK_DRFN\ProjSrc\SrcChartEx\ChartOCX\PacketData\PacketImplementation.cpp
; File C:\Program Files (x86)\Microsoft Visual Studio\2019\Community\VC\Tools\MSVC\14.29.30133\atlmfc\include\atlsimpstr.h
; File D:\git\src\IBK\IBK_DRFN\ProjSrc\SrcChartEx\ChartOCX\PacketData\PacketImplementation.cpp
; File C:\Program Files (x86)\Microsoft Visual Studio\2019\Community\VC\Tools\MSVC\14.29.30133\atlmfc\include\afxtempl.h
; File D:\git\src\IBK\IBK_DRFN\ProjSrc\SrcChartEx\ChartOCX\PacketData\PacketImplementation.cpp
; File C:\Program Files (x86)\Microsoft Visual Studio\2019\Community\VC\Tools\MSVC\14.29.30133\atlmfc\include\afxtempl.h
; File D:\git\src\IBK\IBK_DRFN\ProjSrc\SrcChartEx\ChartOCX\PacketData\PacketImplementation.cpp
;	COMDAT ?AppendData@CPacketImplementation@@QAEXABV?$CStringT@DV?$StrTraitMFC_DLL@DV?$ChTraitsCRT@D@ATL@@@@@ATL@@@Z
_TEXT	SEGMENT
_value$2 = -20						; size = 8
__$EHRec$ = -12						; size = 12
$T3 = 8							; size = 4
_strData$ = 8						; size = 4
?AppendData@CPacketImplementation@@QAEXABV?$CStringT@DV?$StrTraitMFC_DLL@DV?$ChTraitsCRT@D@ATL@@@@@ATL@@@Z PROC ; CPacketImplementation::AppendData, COMDAT
; _this$ = ecx

; 145  : {

  00000	55		 push	 ebp
  00001	8b ec		 mov	 ebp, esp
  00003	6a ff		 push	 -1
  00005	68 00 00 00 00	 push	 __ehhandler$?AppendData@CPacketImplementation@@QAEXABV?$CStringT@DV?$StrTraitMFC_DLL@DV?$ChTraitsCRT@D@ATL@@@@@ATL@@@Z
  0000a	64 a1 00 00 00
	00		 mov	 eax, DWORD PTR fs:0
  00010	50		 push	 eax
  00011	83 ec 08	 sub	 esp, 8
  00014	56		 push	 esi
  00015	57		 push	 edi
  00016	a1 00 00 00 00	 mov	 eax, DWORD PTR ___security_cookie
  0001b	33 c5		 xor	 eax, ebp
  0001d	50		 push	 eax
  0001e	8d 45 f4	 lea	 eax, DWORD PTR __$EHRec$[ebp]
  00021	64 a3 00 00 00
	00		 mov	 DWORD PTR fs:0, eax
  00027	8b f1		 mov	 esi, ecx

; 146  : 	if(m_Type == _MTEXT( C6_CHARACTER))	{

  00029	a1 54 00 00 00	 mov	 eax, DWORD PTR ?g_iMetaTable@@3VIMetaTable@@A+84
  0002e	8d 4e 64	 lea	 ecx, DWORD PTR [esi+100]
; File C:\Program Files (x86)\Microsoft Visual Studio\2019\Community\VC\Tools\MSVC\14.29.30133\atlmfc\include\cstringt.h

; 2486 : 		return(str1.Compare(psz2) == 0);

  00031	ff b0 60 09 00
	00		 push	 DWORD PTR [eax+2400]
  00037	ff 15 00 00 00
	00		 call	 DWORD PTR __imp_?Compare@?$CStringT@DV?$StrTraitMFC_DLL@DV?$ChTraitsCRT@D@ATL@@@@@ATL@@QBEHPBD@Z
  0003d	85 c0		 test	 eax, eax
; File D:\git\src\IBK\IBK_DRFN\ProjSrc\SrcChartEx\ChartOCX\PacketData\PacketImplementation.cpp

; 146  : 	if(m_Type == _MTEXT( C6_CHARACTER))	{

  0003f	75 7e		 jne	 SHORT $LN2@AppendData

; 147  : 		m_lstrData.AddTail(strData) ;

  00041	ff 75 08	 push	 DWORD PTR _strData$[ebp]
  00044	8d 4d 08	 lea	 ecx, DWORD PTR $T3[ebp]
  00047	ff 15 00 00 00
	00		 call	 DWORD PTR __imp_??0?$CStringT@DV?$StrTraitMFC_DLL@DV?$ChTraitsCRT@D@ATL@@@@@ATL@@QAE@ABV01@@Z
  0004d	8d be b0 00 00
	00		 lea	 edi, DWORD PTR [esi+176]
; File C:\Program Files (x86)\Microsoft Visual Studio\2019\Community\VC\Tools\MSVC\14.29.30133\atlmfc\include\afxtempl.h

; 968  : 	CNode* pNewNode = NewNode(m_pNodeTail, NULL);

  00053	6a 00		 push	 0
  00055	ff 77 08	 push	 DWORD PTR [edi+8]
  00058	8b cf		 mov	 ecx, edi
  0005a	c7 45 fc 00 00
	00 00		 mov	 DWORD PTR __$EHRec$[ebp+8], 0
  00061	e8 00 00 00 00	 call	 ?NewNode@?$CList@V?$CStringT@DV?$StrTraitMFC_DLL@DV?$ChTraitsCRT@D@ATL@@@@@ATL@@V12@@@IAEPAUCNode@1@PAU21@0@Z ; CList<ATL::CStringT<char,StrTraitMFC_DLL<char,ATL::ChTraitsCRT<char> > >,ATL::CStringT<char,StrTraitMFC_DLL<char,ATL::ChTraitsCRT<char> > > >::NewNode
  00066	8b f0		 mov	 esi, eax

; 969  : 	pNewNode->data = newElement;

  00068	8d 45 08	 lea	 eax, DWORD PTR $T3[ebp]
  0006b	50		 push	 eax
  0006c	8d 4e 08	 lea	 ecx, DWORD PTR [esi+8]
  0006f	ff 15 00 00 00
	00		 call	 DWORD PTR __imp_??4?$CStringT@DV?$StrTraitMFC_DLL@DV?$ChTraitsCRT@D@ATL@@@@@ATL@@QAEAAV01@ABV01@@Z

; 970  : 	if (m_pNodeTail != NULL)

  00075	8b 47 08	 mov	 eax, DWORD PTR [edi+8]
  00078	85 c0		 test	 eax, eax
  0007a	74 21		 je	 SHORT $LN9@AppendData

; 971  : 		m_pNodeTail->pNext = pNewNode;

  0007c	89 30		 mov	 DWORD PTR [eax], esi

; 975  : 	return (POSITION) pNewNode;

  0007e	8d 4d 08	 lea	 ecx, DWORD PTR $T3[ebp]
  00081	89 77 08	 mov	 DWORD PTR [edi+8], esi
  00084	ff 15 00 00 00
	00		 call	 DWORD PTR __imp_??1?$CStringT@DV?$StrTraitMFC_DLL@DV?$ChTraitsCRT@D@ATL@@@@@ATL@@QAE@XZ
; File D:\git\src\IBK\IBK_DRFN\ProjSrc\SrcChartEx\ChartOCX\PacketData\PacketImplementation.cpp

; 155  : }

  0008a	8b 4d f4	 mov	 ecx, DWORD PTR __$EHRec$[ebp]
  0008d	64 89 0d 00 00
	00 00		 mov	 DWORD PTR fs:0, ecx
  00094	59		 pop	 ecx
  00095	5f		 pop	 edi
  00096	5e		 pop	 esi
  00097	8b e5		 mov	 esp, ebp
  00099	5d		 pop	 ebp
  0009a	c2 04 00	 ret	 4
$LN9@AppendData:
; File C:\Program Files (x86)\Microsoft Visual Studio\2019\Community\VC\Tools\MSVC\14.29.30133\atlmfc\include\afxtempl.h

; 975  : 	return (POSITION) pNewNode;

  0009d	8d 4d 08	 lea	 ecx, DWORD PTR $T3[ebp]
  000a0	89 77 04	 mov	 DWORD PTR [edi+4], esi
  000a3	89 77 08	 mov	 DWORD PTR [edi+8], esi
  000a6	ff 15 00 00 00
	00		 call	 DWORD PTR __imp_??1?$CStringT@DV?$StrTraitMFC_DLL@DV?$ChTraitsCRT@D@ATL@@@@@ATL@@QAE@XZ
; File D:\git\src\IBK\IBK_DRFN\ProjSrc\SrcChartEx\ChartOCX\PacketData\PacketImplementation.cpp

; 155  : }

  000ac	8b 4d f4	 mov	 ecx, DWORD PTR __$EHRec$[ebp]
  000af	64 89 0d 00 00
	00 00		 mov	 DWORD PTR fs:0, ecx
  000b6	59		 pop	 ecx
  000b7	5f		 pop	 edi
  000b8	5e		 pop	 esi
  000b9	8b e5		 mov	 esp, ebp
  000bb	5d		 pop	 ebp
  000bc	c2 04 00	 ret	 4
$LN2@AppendData:
; File C:\Program Files (x86)\Microsoft Visual Studio\2019\Community\VC\Tools\MSVC\14.29.30133\atlmfc\include\atlsimpstr.h

; 377  : 		return( m_pszData );

  000bf	8b 45 08	 mov	 eax, DWORD PTR _strData$[ebp]
; File D:\git\src\IBK\IBK_DRFN\ProjSrc\SrcChartEx\ChartOCX\PacketData\PacketImplementation.cpp

; 151  : 		double value = atof(strData);

  000c2	ff 30		 push	 DWORD PTR [eax]
  000c4	ff 15 00 00 00
	00		 call	 DWORD PTR __imp__atof
  000ca	83 c4 04	 add	 esp, 4
; File C:\Program Files (x86)\Microsoft Visual Studio\2019\Community\VC\Tools\MSVC\14.29.30133\atlmfc\include\afxtempl.h

; 968  : 	CNode* pNewNode = NewNode(m_pNodeTail, NULL);

  000cd	8d 8e 94 00 00
	00		 lea	 ecx, DWORD PTR [esi+148]
; File D:\git\src\IBK\IBK_DRFN\ProjSrc\SrcChartEx\ChartOCX\PacketData\PacketImplementation.cpp

; 151  : 		double value = atof(strData);

  000d3	dd 5d ec	 fstp	 QWORD PTR _value$2[ebp]
; File C:\Program Files (x86)\Microsoft Visual Studio\2019\Community\VC\Tools\MSVC\14.29.30133\atlmfc\include\afxtempl.h

; 968  : 	CNode* pNewNode = NewNode(m_pNodeTail, NULL);

  000d6	6a 00		 push	 0
  000d8	ff b6 9c 00 00
	00		 push	 DWORD PTR [esi+156]
  000de	e8 00 00 00 00	 call	 ?NewNode@?$CList@NN@@IAEPAUCNode@1@PAU21@0@Z ; CList<double,double>::NewNode

; 969  : 	pNewNode->data = newElement;

  000e3	f2 0f 10 45 ec	 movsd	 xmm0, QWORD PTR _value$2[ebp]
  000e8	f2 0f 11 40 08	 movsd	 QWORD PTR [eax+8], xmm0

; 970  : 	if (m_pNodeTail != NULL)

  000ed	8b 8e 9c 00 00
	00		 mov	 ecx, DWORD PTR [esi+156]
  000f3	85 c9		 test	 ecx, ecx
  000f5	74 04		 je	 SHORT $LN16@AppendData

; 971  : 		m_pNodeTail->pNext = pNewNode;

  000f7	89 01		 mov	 DWORD PTR [ecx], eax
  000f9	eb 06		 jmp	 SHORT $LN17@AppendData
$LN16@AppendData:

; 972  : 	else
; 973  : 		m_pNodeHead = pNewNode;

  000fb	89 86 98 00 00
	00		 mov	 DWORD PTR [esi+152], eax
$LN17@AppendData:

; 974  : 	m_pNodeTail = pNewNode;

  00101	89 86 9c 00 00
	00		 mov	 DWORD PTR [esi+156], eax
; File D:\git\src\IBK\IBK_DRFN\ProjSrc\SrcChartEx\ChartOCX\PacketData\PacketImplementation.cpp

; 153  : 		UpdateMinMax( value, m_lnData.GetCount() - 1);

  00107	8b ce		 mov	 ecx, esi
  00109	8b 86 a0 00 00
	00		 mov	 eax, DWORD PTR [esi+160]
  0010f	48		 dec	 eax
  00110	50		 push	 eax
  00111	83 ec 08	 sub	 esp, 8
  00114	f2 0f 11 04 24	 movsd	 QWORD PTR [esp], xmm0
  00119	e8 00 00 00 00	 call	 ?UpdateMinMax@CPacketImplementation@@QAEXNH@Z ; CPacketImplementation::UpdateMinMax

; 155  : }

  0011e	8b 4d f4	 mov	 ecx, DWORD PTR __$EHRec$[ebp]
  00121	64 89 0d 00 00
	00 00		 mov	 DWORD PTR fs:0, ecx
  00128	59		 pop	 ecx
  00129	5f		 pop	 edi
  0012a	5e		 pop	 esi
  0012b	8b e5		 mov	 esp, ebp
  0012d	5d		 pop	 ebp
  0012e	c2 04 00	 ret	 4
_TEXT	ENDS
;	COMDAT text$x
text$x	SEGMENT
__unwindfunclet$?AppendData@CPacketImplementation@@QAEXABV?$CStringT@DV?$StrTraitMFC_DLL@DV?$ChTraitsCRT@D@ATL@@@@@ATL@@@Z$1:
  00000	8d 4d 08	 lea	 ecx, DWORD PTR $T3[ebp]
  00003	ff 25 00 00 00
	00		 jmp	 DWORD PTR __imp_??1?$CStringT@DV?$StrTraitMFC_DLL@DV?$ChTraitsCRT@D@ATL@@@@@ATL@@QAE@XZ
  00009	cc		 int	 3
  0000a	cc		 int	 3
  0000b	cc		 int	 3
  0000c	cc		 int	 3
  0000d	cc		 int	 3
__ehhandler$?AppendData@CPacketImplementation@@QAEXABV?$CStringT@DV?$StrTraitMFC_DLL@DV?$ChTraitsCRT@D@ATL@@@@@ATL@@@Z:
  0000e	90		 npad	 1
  0000f	90		 npad	 1
  00010	8b 54 24 08	 mov	 edx, DWORD PTR [esp+8]
  00014	8d 42 0c	 lea	 eax, DWORD PTR [edx+12]
  00017	8b 4a ec	 mov	 ecx, DWORD PTR [edx-20]
  0001a	33 c8		 xor	 ecx, eax
  0001c	e8 00 00 00 00	 call	 @__security_check_cookie@4
  00021	b8 00 00 00 00	 mov	 eax, OFFSET __ehfuncinfo$?AppendData@CPacketImplementation@@QAEXABV?$CStringT@DV?$StrTraitMFC_DLL@DV?$ChTraitsCRT@D@ATL@@@@@ATL@@@Z
  00026	e9 00 00 00 00	 jmp	 ___CxxFrameHandler3
text$x	ENDS
?AppendData@CPacketImplementation@@QAEXABV?$CStringT@DV?$StrTraitMFC_DLL@DV?$ChTraitsCRT@D@ATL@@@@@ATL@@@Z ENDP ; CPacketImplementation::AppendData
; Function compile flags: /Ogtp
; File D:\git\src\IBK\IBK_DRFN\ProjSrc\SrcChartEx\ChartOCX\PacketData\PacketImplementation.cpp
; File C:\Program Files (x86)\Microsoft Visual Studio\2019\Community\VC\Tools\MSVC\14.29.30133\atlmfc\include\cstringt.h
; File D:\git\src\IBK\IBK_DRFN\ProjSrc\SrcChartEx\ChartOCX\PacketData\PacketImplementation.cpp
; File C:\Program Files (x86)\Microsoft Visual Studio\2019\Community\VC\Tools\MSVC\14.29.30133\atlmfc\include\afxtempl.h
; File D:\git\src\IBK\IBK_DRFN\ProjSrc\SrcChartEx\ChartOCX\PacketData\PacketImplementation.cpp
; File C:\Program Files (x86)\Microsoft Visual Studio\2019\Community\VC\Tools\MSVC\14.29.30133\atlmfc\include\afxtempl.h
; File D:\git\src\IBK\IBK_DRFN\ProjSrc\SrcChartEx\ChartOCX\PacketData\PacketImplementation.cpp
;	COMDAT ?AppendData@CPacketImplementation@@QAEXJH@Z
_TEXT	SEGMENT
_value$2 = -1052					; size = 8
_strData$ = -1044					; size = 4
_szData$ = -1040					; size = 1024
__$ArrayPad$ = -16					; size = 4
__$EHRec$ = -12						; size = 12
_pData$ = 8						; size = 4
_nDataLength$ = 12					; size = 4
?AppendData@CPacketImplementation@@QAEXJH@Z PROC	; CPacketImplementation::AppendData, COMDAT
; _this$ = ecx

; 158  : {

  00000	55		 push	 ebp
  00001	8b ec		 mov	 ebp, esp
  00003	6a ff		 push	 -1
  00005	68 00 00 00 00	 push	 __ehhandler$?AppendData@CPacketImplementation@@QAEXJH@Z
  0000a	64 a1 00 00 00
	00		 mov	 eax, DWORD PTR fs:0
  00010	50		 push	 eax
  00011	81 ec 10 04 00
	00		 sub	 esp, 1040		; 00000410H
  00017	a1 00 00 00 00	 mov	 eax, DWORD PTR ___security_cookie
  0001c	33 c5		 xor	 eax, ebp
  0001e	89 45 f0	 mov	 DWORD PTR __$ArrayPad$[ebp], eax
  00021	56		 push	 esi
  00022	57		 push	 edi
  00023	50		 push	 eax
  00024	8d 45 f4	 lea	 eax, DWORD PTR __$EHRec$[ebp]
  00027	64 a3 00 00 00
	00		 mov	 DWORD PTR fs:0, eax
  0002d	8b f1		 mov	 esi, ecx

; 159  : 	char szData[1024];
; 160  : 	memcpy(szData, (void*)pData, nDataLength) ;

  0002f	8b 7d 0c	 mov	 edi, DWORD PTR _nDataLength$[ebp]
  00032	8b 45 08	 mov	 eax, DWORD PTR _pData$[ebp]
  00035	57		 push	 edi
  00036	50		 push	 eax
  00037	8d 85 f0 fb ff
	ff		 lea	 eax, DWORD PTR _szData$[ebp]
  0003d	50		 push	 eax
  0003e	e8 00 00 00 00	 call	 _memcpy
  00043	83 c4 0c	 add	 esp, 12			; 0000000cH

; 161  : 	szData[nDataLength] = NULL ;

  00046	81 ff 00 04 00
	00		 cmp	 edi, 1024		; 00000400H
  0004c	0f 83 e6 00 00
	00		 jae	 $LN5@AppendData

; 162  : 	CString strData = szData ;

  00052	8d 85 f0 fb ff
	ff		 lea	 eax, DWORD PTR _szData$[ebp]
  00058	c6 84 3d f0 fb
	ff ff 00	 mov	 BYTE PTR _szData$[ebp+edi], 0
  00060	50		 push	 eax
  00061	8d 8d ec fb ff
	ff		 lea	 ecx, DWORD PTR _strData$[ebp]
  00067	ff 15 00 00 00
	00		 call	 DWORD PTR __imp_??0?$CStringT@DV?$StrTraitMFC_DLL@DV?$ChTraitsCRT@D@ATL@@@@@ATL@@QAE@PBD@Z

; 163  : 	if(m_Type == _MTEXT( C6_CHARACTER)){

  0006d	a1 54 00 00 00	 mov	 eax, DWORD PTR ?g_iMetaTable@@3VIMetaTable@@A+84
  00072	8d 4e 64	 lea	 ecx, DWORD PTR [esi+100]
  00075	c7 45 fc 00 00
	00 00		 mov	 DWORD PTR __$EHRec$[ebp+8], 0
; File C:\Program Files (x86)\Microsoft Visual Studio\2019\Community\VC\Tools\MSVC\14.29.30133\atlmfc\include\cstringt.h

; 2486 : 		return(str1.Compare(psz2) == 0);

  0007c	ff b0 60 09 00
	00		 push	 DWORD PTR [eax+2400]
  00082	ff 15 00 00 00
	00		 call	 DWORD PTR __imp_?Compare@?$CStringT@DV?$StrTraitMFC_DLL@DV?$ChTraitsCRT@D@ATL@@@@@ATL@@QBEHPBD@Z
  00088	85 c0		 test	 eax, eax
; File D:\git\src\IBK\IBK_DRFN\ProjSrc\SrcChartEx\ChartOCX\PacketData\PacketImplementation.cpp

; 163  : 	if(m_Type == _MTEXT( C6_CHARACTER)){

  0008a	75 1d		 jne	 SHORT $LN2@AppendData

; 164  : 		m_lstrData.AddTail(strData) ;

  0008c	51		 push	 ecx
  0008d	8d 85 ec fb ff
	ff		 lea	 eax, DWORD PTR _strData$[ebp]
  00093	8b cc		 mov	 ecx, esp
  00095	50		 push	 eax
  00096	ff 15 00 00 00
	00		 call	 DWORD PTR __imp_??0?$CStringT@DV?$StrTraitMFC_DLL@DV?$ChTraitsCRT@D@ATL@@@@@ATL@@QAE@ABV01@@Z
  0009c	8d 8e b0 00 00
	00		 lea	 ecx, DWORD PTR [esi+176]
  000a2	e8 00 00 00 00	 call	 ?AddTail@?$CList@V?$CStringT@DV?$StrTraitMFC_DLL@DV?$ChTraitsCRT@D@ATL@@@@@ATL@@V12@@@QAEPAU__POSITION@@V?$CStringT@DV?$StrTraitMFC_DLL@DV?$ChTraitsCRT@D@ATL@@@@@ATL@@@Z ; CList<ATL::CStringT<char,StrTraitMFC_DLL<char,ATL::ChTraitsCRT<char> > >,ATL::CStringT<char,StrTraitMFC_DLL<char,ATL::ChTraitsCRT<char> > > >::AddTail

; 165  : 	}

  000a7	eb 66		 jmp	 SHORT $LN3@AppendData
$LN2@AppendData:

; 168  : 		double value = atof(strData);

  000a9	ff b5 ec fb ff
	ff		 push	 DWORD PTR _strData$[ebp]
  000af	ff 15 00 00 00
	00		 call	 DWORD PTR __imp__atof
  000b5	83 c4 04	 add	 esp, 4
; File C:\Program Files (x86)\Microsoft Visual Studio\2019\Community\VC\Tools\MSVC\14.29.30133\atlmfc\include\afxtempl.h

; 968  : 	CNode* pNewNode = NewNode(m_pNodeTail, NULL);

  000b8	8d 8e 94 00 00
	00		 lea	 ecx, DWORD PTR [esi+148]
; File D:\git\src\IBK\IBK_DRFN\ProjSrc\SrcChartEx\ChartOCX\PacketData\PacketImplementation.cpp

; 168  : 		double value = atof(strData);

  000be	dd 9d e4 fb ff
	ff		 fstp	 QWORD PTR _value$2[ebp]
; File C:\Program Files (x86)\Microsoft Visual Studio\2019\Community\VC\Tools\MSVC\14.29.30133\atlmfc\include\afxtempl.h

; 968  : 	CNode* pNewNode = NewNode(m_pNodeTail, NULL);

  000c4	6a 00		 push	 0
  000c6	ff b6 9c 00 00
	00		 push	 DWORD PTR [esi+156]
  000cc	e8 00 00 00 00	 call	 ?NewNode@?$CList@NN@@IAEPAUCNode@1@PAU21@0@Z ; CList<double,double>::NewNode

; 969  : 	pNewNode->data = newElement;

  000d1	f2 0f 10 85 e4
	fb ff ff	 movsd	 xmm0, QWORD PTR _value$2[ebp]
  000d9	f2 0f 11 40 08	 movsd	 QWORD PTR [eax+8], xmm0

; 970  : 	if (m_pNodeTail != NULL)

  000de	8b 8e 9c 00 00
	00		 mov	 ecx, DWORD PTR [esi+156]
  000e4	85 c9		 test	 ecx, ecx
  000e6	74 04		 je	 SHORT $LN14@AppendData

; 971  : 		m_pNodeTail->pNext = pNewNode;

  000e8	89 01		 mov	 DWORD PTR [ecx], eax
  000ea	eb 06		 jmp	 SHORT $LN15@AppendData
$LN14@AppendData:

; 972  : 	else
; 973  : 		m_pNodeHead = pNewNode;

  000ec	89 86 98 00 00
	00		 mov	 DWORD PTR [esi+152], eax
$LN15@AppendData:

; 974  : 	m_pNodeTail = pNewNode;

  000f2	89 86 9c 00 00
	00		 mov	 DWORD PTR [esi+156], eax
; File D:\git\src\IBK\IBK_DRFN\ProjSrc\SrcChartEx\ChartOCX\PacketData\PacketImplementation.cpp

; 170  : 		UpdateMinMax( value, m_lnData.GetCount() - 1);

  000f8	8b ce		 mov	 ecx, esi
  000fa	8b 86 a0 00 00
	00		 mov	 eax, DWORD PTR [esi+160]
  00100	48		 dec	 eax
  00101	50		 push	 eax
  00102	83 ec 08	 sub	 esp, 8
  00105	f2 0f 11 04 24	 movsd	 QWORD PTR [esp], xmm0
  0010a	e8 00 00 00 00	 call	 ?UpdateMinMax@CPacketImplementation@@QAEXNH@Z ; CPacketImplementation::UpdateMinMax
$LN3@AppendData:

; 171  : 	}
; 172  : }

  0010f	8d 8d ec fb ff
	ff		 lea	 ecx, DWORD PTR _strData$[ebp]
  00115	ff 15 00 00 00
	00		 call	 DWORD PTR __imp_??1?$CStringT@DV?$StrTraitMFC_DLL@DV?$ChTraitsCRT@D@ATL@@@@@ATL@@QAE@XZ
  0011b	8b 4d f4	 mov	 ecx, DWORD PTR __$EHRec$[ebp]
  0011e	64 89 0d 00 00
	00 00		 mov	 DWORD PTR fs:0, ecx
  00125	59		 pop	 ecx
  00126	5f		 pop	 edi
  00127	5e		 pop	 esi
  00128	8b 4d f0	 mov	 ecx, DWORD PTR __$ArrayPad$[ebp]
  0012b	33 cd		 xor	 ecx, ebp
  0012d	e8 00 00 00 00	 call	 @__security_check_cookie@4
  00132	8b e5		 mov	 esp, ebp
  00134	5d		 pop	 ebp
  00135	c2 08 00	 ret	 8
$LN5@AppendData:

; 161  : 	szData[nDataLength] = NULL ;

  00138	e8 00 00 00 00	 call	 ___report_rangecheckfailure
$LN18@AppendData:
  0013d	cc		 int	 3
_TEXT	ENDS
;	COMDAT text$x
text$x	SEGMENT
__unwindfunclet$?AppendData@CPacketImplementation@@QAEXJH@Z$0:
  00000	8d 8d ec fb ff
	ff		 lea	 ecx, DWORD PTR _strData$[ebp]
  00006	ff 25 00 00 00
	00		 jmp	 DWORD PTR __imp_??1?$CStringT@DV?$StrTraitMFC_DLL@DV?$ChTraitsCRT@D@ATL@@@@@ATL@@QAE@XZ
  0000c	cc		 int	 3
  0000d	cc		 int	 3
  0000e	cc		 int	 3
  0000f	cc		 int	 3
  00010	cc		 int	 3
__ehhandler$?AppendData@CPacketImplementation@@QAEXJH@Z:
  00011	90		 npad	 1
  00012	90		 npad	 1
  00013	8b 54 24 08	 mov	 edx, DWORD PTR [esp+8]
  00017	8d 42 0c	 lea	 eax, DWORD PTR [edx+12]
  0001a	8b 8a e4 fb ff
	ff		 mov	 ecx, DWORD PTR [edx-1052]
  00020	33 c8		 xor	 ecx, eax
  00022	e8 00 00 00 00	 call	 @__security_check_cookie@4
  00027	8b 4a fc	 mov	 ecx, DWORD PTR [edx-4]
  0002a	33 c8		 xor	 ecx, eax
  0002c	e8 00 00 00 00	 call	 @__security_check_cookie@4
  00031	b8 00 00 00 00	 mov	 eax, OFFSET __ehfuncinfo$?AppendData@CPacketImplementation@@QAEXJH@Z
  00036	e9 00 00 00 00	 jmp	 ___CxxFrameHandler3
text$x	ENDS
?AppendData@CPacketImplementation@@QAEXJH@Z ENDP	; CPacketImplementation::AppendData
; Function compile flags: /Ogtp
; File D:\git\src\IBK\IBK_DRFN\ProjSrc\SrcChartEx\ChartOCX\PacketData\PacketImplementation.cpp
; File C:\Program Files (x86)\Microsoft Visual Studio\2019\Community\VC\Tools\MSVC\14.29.30133\atlmfc\include\cstringt.h
; File D:\git\src\IBK\IBK_DRFN\ProjSrc\SrcChartEx\ChartOCX\PacketData\PacketImplementation.cpp
; File C:\Program Files (x86)\Microsoft Visual Studio\2019\Community\VC\Tools\MSVC\14.29.30133\atlmfc\include\afxtempl.h
; File D:\git\src\IBK\IBK_DRFN\ProjSrc\SrcChartEx\ChartOCX\PacketData\PacketImplementation.cpp
; File C:\Program Files (x86)\Microsoft Visual Studio\2019\Community\VC\Tools\MSVC\14.29.30133\atlmfc\include\afxtempl.h
; File D:\git\src\IBK\IBK_DRFN\ProjSrc\SrcChartEx\ChartOCX\PacketData\PacketImplementation.cpp
; File C:\Program Files (x86)\Microsoft Visual Studio\2019\Community\VC\Tools\MSVC\14.29.30133\atlmfc\include\afxtempl.h
; File D:\git\src\IBK\IBK_DRFN\ProjSrc\SrcChartEx\ChartOCX\PacketData\PacketImplementation.cpp
;	COMDAT ?InsertData@CPacketImplementation@@QAEXJH@Z
_TEXT	SEGMENT
_value$2 = -1052					; size = 8
_strData$ = -1044					; size = 4
_szData$ = -1040					; size = 1024
__$ArrayPad$ = -16					; size = 4
__$EHRec$ = -12						; size = 12
_pData$ = 8						; size = 4
_nDataLength$ = 12					; size = 4
?InsertData@CPacketImplementation@@QAEXJH@Z PROC	; CPacketImplementation::InsertData, COMDAT
; _this$ = ecx

; 213  : {

  00000	55		 push	 ebp
  00001	8b ec		 mov	 ebp, esp
  00003	6a ff		 push	 -1
  00005	68 00 00 00 00	 push	 __ehhandler$?InsertData@CPacketImplementation@@QAEXJH@Z
  0000a	64 a1 00 00 00
	00		 mov	 eax, DWORD PTR fs:0
  00010	50		 push	 eax
  00011	81 ec 10 04 00
	00		 sub	 esp, 1040		; 00000410H
  00017	a1 00 00 00 00	 mov	 eax, DWORD PTR ___security_cookie
  0001c	33 c5		 xor	 eax, ebp
  0001e	89 45 f0	 mov	 DWORD PTR __$ArrayPad$[ebp], eax
  00021	56		 push	 esi
  00022	57		 push	 edi
  00023	50		 push	 eax
  00024	8d 45 f4	 lea	 eax, DWORD PTR __$EHRec$[ebp]
  00027	64 a3 00 00 00
	00		 mov	 DWORD PTR fs:0, eax
  0002d	8b f1		 mov	 esi, ecx

; 214  : 	char szData[1024] ;
; 215  : 	memcpy(szData, (void*)pData, nDataLength) ;

  0002f	8b 7d 0c	 mov	 edi, DWORD PTR _nDataLength$[ebp]
  00032	8b 45 08	 mov	 eax, DWORD PTR _pData$[ebp]
  00035	57		 push	 edi
  00036	50		 push	 eax
  00037	8d 85 f0 fb ff
	ff		 lea	 eax, DWORD PTR _szData$[ebp]
  0003d	50		 push	 eax
  0003e	e8 00 00 00 00	 call	 _memcpy
  00043	83 c4 0c	 add	 esp, 12			; 0000000cH

; 216  : 	szData[nDataLength] = NULL ;

  00046	81 ff 00 04 00
	00		 cmp	 edi, 1024		; 00000400H
  0004c	0f 83 d7 00 00
	00		 jae	 $LN5@InsertData

; 217  : 	CString strData = szData ;

  00052	8d 85 f0 fb ff
	ff		 lea	 eax, DWORD PTR _szData$[ebp]
  00058	c6 84 3d f0 fb
	ff ff 00	 mov	 BYTE PTR _szData$[ebp+edi], 0
  00060	50		 push	 eax
  00061	8d 8d ec fb ff
	ff		 lea	 ecx, DWORD PTR _strData$[ebp]
  00067	ff 15 00 00 00
	00		 call	 DWORD PTR __imp_??0?$CStringT@DV?$StrTraitMFC_DLL@DV?$ChTraitsCRT@D@ATL@@@@@ATL@@QAE@PBD@Z

; 218  : 	if(m_Type == _MTEXT( C6_CHARACTER)){

  0006d	a1 54 00 00 00	 mov	 eax, DWORD PTR ?g_iMetaTable@@3VIMetaTable@@A+84
  00072	8d 4e 64	 lea	 ecx, DWORD PTR [esi+100]
  00075	c7 45 fc 00 00
	00 00		 mov	 DWORD PTR __$EHRec$[ebp+8], 0
; File C:\Program Files (x86)\Microsoft Visual Studio\2019\Community\VC\Tools\MSVC\14.29.30133\atlmfc\include\cstringt.h

; 2486 : 		return(str1.Compare(psz2) == 0);

  0007c	ff b0 60 09 00
	00		 push	 DWORD PTR [eax+2400]
  00082	ff 15 00 00 00
	00		 call	 DWORD PTR __imp_?Compare@?$CStringT@DV?$StrTraitMFC_DLL@DV?$ChTraitsCRT@D@ATL@@@@@ATL@@QBEHPBD@Z
  00088	85 c0		 test	 eax, eax
; File D:\git\src\IBK\IBK_DRFN\ProjSrc\SrcChartEx\ChartOCX\PacketData\PacketImplementation.cpp

; 218  : 	if(m_Type == _MTEXT( C6_CHARACTER)){

  0008a	75 1d		 jne	 SHORT $LN2@InsertData

; 219  : 		m_lstrData.AddHead(strData) ;

  0008c	51		 push	 ecx
  0008d	8d 85 ec fb ff
	ff		 lea	 eax, DWORD PTR _strData$[ebp]
  00093	8b cc		 mov	 ecx, esp
  00095	50		 push	 eax
  00096	ff 15 00 00 00
	00		 call	 DWORD PTR __imp_??0?$CStringT@DV?$StrTraitMFC_DLL@DV?$ChTraitsCRT@D@ATL@@@@@ATL@@QAE@ABV01@@Z
  0009c	8d 8e b0 00 00
	00		 lea	 ecx, DWORD PTR [esi+176]
  000a2	e8 00 00 00 00	 call	 ?AddHead@?$CList@V?$CStringT@DV?$StrTraitMFC_DLL@DV?$ChTraitsCRT@D@ATL@@@@@ATL@@V12@@@QAEPAU__POSITION@@V?$CStringT@DV?$StrTraitMFC_DLL@DV?$ChTraitsCRT@D@ATL@@@@@ATL@@@Z ; CList<ATL::CStringT<char,StrTraitMFC_DLL<char,ATL::ChTraitsCRT<char> > >,ATL::CStringT<char,StrTraitMFC_DLL<char,ATL::ChTraitsCRT<char> > > >::AddHead

; 220  : 	}

  000a7	eb 57		 jmp	 SHORT $LN3@InsertData
$LN2@InsertData:

; 222  : 		double value = atof(strData);

  000a9	ff b5 ec fb ff
	ff		 push	 DWORD PTR _strData$[ebp]
  000af	ff 15 00 00 00
	00		 call	 DWORD PTR __imp__atof
  000b5	83 c4 04	 add	 esp, 4
; File C:\Program Files (x86)\Microsoft Visual Studio\2019\Community\VC\Tools\MSVC\14.29.30133\atlmfc\include\afxtempl.h

; 953  : 	CNode* pNewNode = NewNode(NULL, m_pNodeHead);

  000b8	8d 8e 94 00 00
	00		 lea	 ecx, DWORD PTR [esi+148]
; File D:\git\src\IBK\IBK_DRFN\ProjSrc\SrcChartEx\ChartOCX\PacketData\PacketImplementation.cpp

; 222  : 		double value = atof(strData);

  000be	dd 9d e4 fb ff
	ff		 fstp	 QWORD PTR _value$2[ebp]
; File C:\Program Files (x86)\Microsoft Visual Studio\2019\Community\VC\Tools\MSVC\14.29.30133\atlmfc\include\afxtempl.h

; 953  : 	CNode* pNewNode = NewNode(NULL, m_pNodeHead);

  000c4	ff b6 98 00 00
	00		 push	 DWORD PTR [esi+152]
  000ca	6a 00		 push	 0
  000cc	e8 00 00 00 00	 call	 ?NewNode@?$CList@NN@@IAEPAUCNode@1@PAU21@0@Z ; CList<double,double>::NewNode

; 954  : 	pNewNode->data = newElement;

  000d1	f2 0f 10 85 e4
	fb ff ff	 movsd	 xmm0, QWORD PTR _value$2[ebp]
  000d9	f2 0f 11 40 08	 movsd	 QWORD PTR [eax+8], xmm0

; 955  : 	if (m_pNodeHead != NULL)

  000de	8b 8e 98 00 00
	00		 mov	 ecx, DWORD PTR [esi+152]
  000e4	85 c9		 test	 ecx, ecx
  000e6	74 05		 je	 SHORT $LN14@InsertData

; 956  : 		m_pNodeHead->pPrev = pNewNode;

  000e8	89 41 04	 mov	 DWORD PTR [ecx+4], eax
  000eb	eb 06		 jmp	 SHORT $LN15@InsertData
$LN14@InsertData:

; 957  : 	else
; 958  : 		m_pNodeTail = pNewNode;

  000ed	89 86 9c 00 00
	00		 mov	 DWORD PTR [esi+156], eax
$LN15@InsertData:
; File D:\git\src\IBK\IBK_DRFN\ProjSrc\SrcChartEx\ChartOCX\PacketData\PacketImplementation.cpp

; 224  : 		ClearMinMax();

  000f3	8b ce		 mov	 ecx, esi
; File C:\Program Files (x86)\Microsoft Visual Studio\2019\Community\VC\Tools\MSVC\14.29.30133\atlmfc\include\afxtempl.h

; 959  : 	m_pNodeHead = pNewNode;

  000f5	89 86 98 00 00
	00		 mov	 DWORD PTR [esi+152], eax
; File D:\git\src\IBK\IBK_DRFN\ProjSrc\SrcChartEx\ChartOCX\PacketData\PacketImplementation.cpp

; 224  : 		ClearMinMax();

  000fb	e8 00 00 00 00	 call	 ?ClearMinMax@CPacketImplementation@@QAEXXZ ; CPacketImplementation::ClearMinMax
$LN3@InsertData:

; 225  : 	}
; 226  : }

  00100	8d 8d ec fb ff
	ff		 lea	 ecx, DWORD PTR _strData$[ebp]
  00106	ff 15 00 00 00
	00		 call	 DWORD PTR __imp_??1?$CStringT@DV?$StrTraitMFC_DLL@DV?$ChTraitsCRT@D@ATL@@@@@ATL@@QAE@XZ
  0010c	8b 4d f4	 mov	 ecx, DWORD PTR __$EHRec$[ebp]
  0010f	64 89 0d 00 00
	00 00		 mov	 DWORD PTR fs:0, ecx
  00116	59		 pop	 ecx
  00117	5f		 pop	 edi
  00118	5e		 pop	 esi
  00119	8b 4d f0	 mov	 ecx, DWORD PTR __$ArrayPad$[ebp]
  0011c	33 cd		 xor	 ecx, ebp
  0011e	e8 00 00 00 00	 call	 @__security_check_cookie@4
  00123	8b e5		 mov	 esp, ebp
  00125	5d		 pop	 ebp
  00126	c2 08 00	 ret	 8
$LN5@InsertData:

; 216  : 	szData[nDataLength] = NULL ;

  00129	e8 00 00 00 00	 call	 ___report_rangecheckfailure
$LN18@InsertData:
  0012e	cc		 int	 3
_TEXT	ENDS
;	COMDAT text$x
text$x	SEGMENT
__unwindfunclet$?InsertData@CPacketImplementation@@QAEXJH@Z$0:
  00000	8d 8d ec fb ff
	ff		 lea	 ecx, DWORD PTR _strData$[ebp]
  00006	ff 25 00 00 00
	00		 jmp	 DWORD PTR __imp_??1?$CStringT@DV?$StrTraitMFC_DLL@DV?$ChTraitsCRT@D@ATL@@@@@ATL@@QAE@XZ
  0000c	cc		 int	 3
  0000d	cc		 int	 3
  0000e	cc		 int	 3
  0000f	cc		 int	 3
  00010	cc		 int	 3
__ehhandler$?InsertData@CPacketImplementation@@QAEXJH@Z:
  00011	90		 npad	 1
  00012	90		 npad	 1
  00013	8b 54 24 08	 mov	 edx, DWORD PTR [esp+8]
  00017	8d 42 0c	 lea	 eax, DWORD PTR [edx+12]
  0001a	8b 8a e4 fb ff
	ff		 mov	 ecx, DWORD PTR [edx-1052]
  00020	33 c8		 xor	 ecx, eax
  00022	e8 00 00 00 00	 call	 @__security_check_cookie@4
  00027	8b 4a fc	 mov	 ecx, DWORD PTR [edx-4]
  0002a	33 c8		 xor	 ecx, eax
  0002c	e8 00 00 00 00	 call	 @__security_check_cookie@4
  00031	b8 00 00 00 00	 mov	 eax, OFFSET __ehfuncinfo$?InsertData@CPacketImplementation@@QAEXJH@Z
  00036	e9 00 00 00 00	 jmp	 ___CxxFrameHandler3
text$x	ENDS
?InsertData@CPacketImplementation@@QAEXJH@Z ENDP	; CPacketImplementation::InsertData
; Function compile flags: /Ogtp
; File D:\git\src\IBK\IBK_DRFN\ProjSrc\SrcChartEx\ChartOCX\PacketData\PacketImplementation.cpp
; File C:\Program Files (x86)\Microsoft Visual Studio\2019\Community\VC\Tools\MSVC\14.29.30133\atlmfc\include\cstringt.h
; File D:\git\src\IBK\IBK_DRFN\ProjSrc\SrcChartEx\ChartOCX\PacketData\PacketImplementation.cpp
; File C:\Program Files (x86)\Microsoft Visual Studio\2019\Community\VC\Tools\MSVC\14.29.30133\atlmfc\include\afxtempl.h
; File D:\git\src\IBK\IBK_DRFN\ProjSrc\SrcChartEx\ChartOCX\PacketData\PacketImplementation.cpp
; File C:\Program Files (x86)\Microsoft Visual Studio\2019\Community\VC\Tools\MSVC\14.29.30133\atlmfc\include\afxtempl.h
; File D:\git\src\IBK\IBK_DRFN\ProjSrc\SrcChartEx\ChartOCX\PacketData\PacketImplementation.cpp
; File C:\Program Files (x86)\Microsoft Visual Studio\2019\Community\VC\Tools\MSVC\14.29.30133\atlmfc\include\afxtempl.h
; File D:\git\src\IBK\IBK_DRFN\ProjSrc\SrcChartEx\ChartOCX\PacketData\PacketImplementation.cpp
; File C:\Program Files (x86)\Microsoft Visual Studio\2019\Community\VC\Tools\MSVC\14.29.30133\atlmfc\include\afxtempl.h
; File D:\git\src\IBK\IBK_DRFN\ProjSrc\SrcChartEx\ChartOCX\PacketData\PacketImplementation.cpp
; File C:\Program Files (x86)\Microsoft Visual Studio\2019\Community\VC\Tools\MSVC\14.29.30133\atlmfc\include\afxtempl.h
; File D:\git\src\IBK\IBK_DRFN\ProjSrc\SrcChartEx\ChartOCX\PacketData\PacketImplementation.cpp
;	COMDAT ?InsertData@CPacketImplementation@@QAEXV?$CStringT@DV?$StrTraitMFC_DLL@DV?$ChTraitsCRT@D@ATL@@@@@ATL@@@Z
_TEXT	SEGMENT
_value$2 = -20						; size = 8
$T3 = -16						; size = 4
__$EHRec$ = -12						; size = 12
_strData$ = 8						; size = 4
?InsertData@CPacketImplementation@@QAEXV?$CStringT@DV?$StrTraitMFC_DLL@DV?$ChTraitsCRT@D@ATL@@@@@ATL@@@Z PROC ; CPacketImplementation::InsertData, COMDAT
; _this$ = ecx

; 200  : {

  00000	55		 push	 ebp
  00001	8b ec		 mov	 ebp, esp
  00003	6a ff		 push	 -1
  00005	68 00 00 00 00	 push	 __ehhandler$?InsertData@CPacketImplementation@@QAEXV?$CStringT@DV?$StrTraitMFC_DLL@DV?$ChTraitsCRT@D@ATL@@@@@ATL@@@Z
  0000a	64 a1 00 00 00
	00		 mov	 eax, DWORD PTR fs:0
  00010	50		 push	 eax
  00011	83 ec 08	 sub	 esp, 8
  00014	56		 push	 esi
  00015	57		 push	 edi
  00016	a1 00 00 00 00	 mov	 eax, DWORD PTR ___security_cookie
  0001b	33 c5		 xor	 eax, ebp
  0001d	50		 push	 eax
  0001e	8d 45 f4	 lea	 eax, DWORD PTR __$EHRec$[ebp]
  00021	64 a3 00 00 00
	00		 mov	 DWORD PTR fs:0, eax
  00027	8b f1		 mov	 esi, ecx

; 201  : 	if(m_Type == _MTEXT( C6_CHARACTER)){

  00029	a1 54 00 00 00	 mov	 eax, DWORD PTR ?g_iMetaTable@@3VIMetaTable@@A+84
  0002e	8d 4e 64	 lea	 ecx, DWORD PTR [esi+100]
  00031	c7 45 fc 00 00
	00 00		 mov	 DWORD PTR __$EHRec$[ebp+8], 0
; File C:\Program Files (x86)\Microsoft Visual Studio\2019\Community\VC\Tools\MSVC\14.29.30133\atlmfc\include\cstringt.h

; 2486 : 		return(str1.Compare(psz2) == 0);

  00038	ff b0 60 09 00
	00		 push	 DWORD PTR [eax+2400]
  0003e	ff 15 00 00 00
	00		 call	 DWORD PTR __imp_?Compare@?$CStringT@DV?$StrTraitMFC_DLL@DV?$ChTraitsCRT@D@ATL@@@@@ATL@@QBEHPBD@Z
  00044	85 c0		 test	 eax, eax
; File D:\git\src\IBK\IBK_DRFN\ProjSrc\SrcChartEx\ChartOCX\PacketData\PacketImplementation.cpp

; 201  : 	if(m_Type == _MTEXT( C6_CHARACTER)){

  00046	75 61		 jne	 SHORT $LN2@InsertData

; 202  : 		m_lstrData.AddHead(strData) ;

  00048	8d 45 08	 lea	 eax, DWORD PTR _strData$[ebp]
  0004b	50		 push	 eax
  0004c	8d 4d f0	 lea	 ecx, DWORD PTR $T3[ebp]
  0004f	ff 15 00 00 00
	00		 call	 DWORD PTR __imp_??0?$CStringT@DV?$StrTraitMFC_DLL@DV?$ChTraitsCRT@D@ATL@@@@@ATL@@QAE@ABV01@@Z
  00055	8d be b0 00 00
	00		 lea	 edi, DWORD PTR [esi+176]
; File C:\Program Files (x86)\Microsoft Visual Studio\2019\Community\VC\Tools\MSVC\14.29.30133\atlmfc\include\afxtempl.h

; 953  : 	CNode* pNewNode = NewNode(NULL, m_pNodeHead);

  0005b	ff 77 04	 push	 DWORD PTR [edi+4]
  0005e	8b cf		 mov	 ecx, edi
  00060	c6 45 fc 01	 mov	 BYTE PTR __$EHRec$[ebp+8], 1
  00064	6a 00		 push	 0
  00066	e8 00 00 00 00	 call	 ?NewNode@?$CList@V?$CStringT@DV?$StrTraitMFC_DLL@DV?$ChTraitsCRT@D@ATL@@@@@ATL@@V12@@@IAEPAUCNode@1@PAU21@0@Z ; CList<ATL::CStringT<char,StrTraitMFC_DLL<char,ATL::ChTraitsCRT<char> > >,ATL::CStringT<char,StrTraitMFC_DLL<char,ATL::ChTraitsCRT<char> > > >::NewNode
  0006b	8b f0		 mov	 esi, eax

; 954  : 	pNewNode->data = newElement;

  0006d	8d 45 f0	 lea	 eax, DWORD PTR $T3[ebp]
  00070	50		 push	 eax
  00071	8d 4e 08	 lea	 ecx, DWORD PTR [esi+8]
  00074	ff 15 00 00 00
	00		 call	 DWORD PTR __imp_??4?$CStringT@DV?$StrTraitMFC_DLL@DV?$ChTraitsCRT@D@ATL@@@@@ATL@@QAEAAV01@ABV01@@Z

; 955  : 	if (m_pNodeHead != NULL)

  0007a	8b 47 04	 mov	 eax, DWORD PTR [edi+4]
  0007d	85 c0		 test	 eax, eax
  0007f	74 14		 je	 SHORT $LN10@InsertData

; 956  : 		m_pNodeHead->pPrev = pNewNode;

  00081	89 70 04	 mov	 DWORD PTR [eax+4], esi

; 960  : 	return (POSITION) pNewNode;

  00084	8d 4d f0	 lea	 ecx, DWORD PTR $T3[ebp]
  00087	89 77 04	 mov	 DWORD PTR [edi+4], esi
  0008a	ff 15 00 00 00
	00		 call	 DWORD PTR __imp_??1?$CStringT@DV?$StrTraitMFC_DLL@DV?$ChTraitsCRT@D@ATL@@@@@ATL@@QAE@XZ
; File D:\git\src\IBK\IBK_DRFN\ProjSrc\SrcChartEx\ChartOCX\PacketData\PacketImplementation.cpp

; 203  : 	}

  00090	e9 c1 00 00 00	 jmp	 $LN3@InsertData
$LN10@InsertData:
; File C:\Program Files (x86)\Microsoft Visual Studio\2019\Community\VC\Tools\MSVC\14.29.30133\atlmfc\include\afxtempl.h

; 960  : 	return (POSITION) pNewNode;

  00095	8d 4d f0	 lea	 ecx, DWORD PTR $T3[ebp]
  00098	89 77 08	 mov	 DWORD PTR [edi+8], esi
  0009b	89 77 04	 mov	 DWORD PTR [edi+4], esi
  0009e	ff 15 00 00 00
	00		 call	 DWORD PTR __imp_??1?$CStringT@DV?$StrTraitMFC_DLL@DV?$ChTraitsCRT@D@ATL@@@@@ATL@@QAE@XZ
; File D:\git\src\IBK\IBK_DRFN\ProjSrc\SrcChartEx\ChartOCX\PacketData\PacketImplementation.cpp

; 203  : 	}

  000a4	e9 ad 00 00 00	 jmp	 $LN3@InsertData
$LN2@InsertData:

; 206  : 		double value = atof(strData);

  000a9	ff 75 08	 push	 DWORD PTR _strData$[ebp]
  000ac	ff 15 00 00 00
	00		 call	 DWORD PTR __imp__atof
  000b2	83 c4 04	 add	 esp, 4
; File C:\Program Files (x86)\Microsoft Visual Studio\2019\Community\VC\Tools\MSVC\14.29.30133\atlmfc\include\afxtempl.h

; 953  : 	CNode* pNewNode = NewNode(NULL, m_pNodeHead);

  000b5	8d 8e 94 00 00
	00		 lea	 ecx, DWORD PTR [esi+148]
; File D:\git\src\IBK\IBK_DRFN\ProjSrc\SrcChartEx\ChartOCX\PacketData\PacketImplementation.cpp

; 206  : 		double value = atof(strData);

  000bb	dd 5d ec	 fstp	 QWORD PTR _value$2[ebp]
; File C:\Program Files (x86)\Microsoft Visual Studio\2019\Community\VC\Tools\MSVC\14.29.30133\atlmfc\include\afxtempl.h

; 953  : 	CNode* pNewNode = NewNode(NULL, m_pNodeHead);

  000be	ff b6 98 00 00
	00		 push	 DWORD PTR [esi+152]
  000c4	6a 00		 push	 0
  000c6	e8 00 00 00 00	 call	 ?NewNode@?$CList@NN@@IAEPAUCNode@1@PAU21@0@Z ; CList<double,double>::NewNode

; 954  : 	pNewNode->data = newElement;

  000cb	f2 0f 10 45 ec	 movsd	 xmm0, QWORD PTR _value$2[ebp]
  000d0	f2 0f 11 40 08	 movsd	 QWORD PTR [eax+8], xmm0

; 955  : 	if (m_pNodeHead != NULL)

  000d5	8b 8e 98 00 00
	00		 mov	 ecx, DWORD PTR [esi+152]
  000db	85 c9		 test	 ecx, ecx
  000dd	74 05		 je	 SHORT $LN17@InsertData

; 956  : 		m_pNodeHead->pPrev = pNewNode;

  000df	89 41 04	 mov	 DWORD PTR [ecx+4], eax
  000e2	eb 06		 jmp	 SHORT $LN18@InsertData
$LN17@InsertData:

; 957  : 	else
; 958  : 		m_pNodeTail = pNewNode;

  000e4	89 86 9c 00 00
	00		 mov	 DWORD PTR [esi+156], eax
$LN18@InsertData:
; File D:\git\src\IBK\IBK_DRFN\ProjSrc\SrcChartEx\ChartOCX\PacketData\PacketImplementation.cpp

; 1800 : 	m_dContinueCode_Pre			= -HUGE_VAL;

  000ea	0f 28 05 00 00
	00 00		 movaps	 xmm0, XMMWORD PTR __xmm@fff0000000000000fff0000000000000

; 1801 : 	m_dExceptionValue_Pre		= -HUGE_VAL;
; 1802 : 	m_nStartPeriod_Pre			= -1;
; 1803 : 	m_nStartIndex_Pre			= -1;
; 1804 : 	m_nEndIndex_Pre				= -1;
; 1805 : 	m_dPreMaxValue				= -DBL_MAX;

  000f1	f2 0f 10 0d 00
	00 00 00	 movsd	 xmm1, QWORD PTR __real@ffefffffffffffff
; File C:\Program Files (x86)\Microsoft Visual Studio\2019\Community\VC\Tools\MSVC\14.29.30133\atlmfc\include\afxtempl.h

; 959  : 	m_pNodeHead = pNewNode;

  000f9	89 86 98 00 00
	00		 mov	 DWORD PTR [esi+152], eax
; File D:\git\src\IBK\IBK_DRFN\ProjSrc\SrcChartEx\ChartOCX\PacketData\PacketImplementation.cpp

; 1800 : 	m_dContinueCode_Pre			= -HUGE_VAL;

  000ff	0f 11 86 18 01
	00 00		 movups	 XMMWORD PTR [esi+280], xmm0
  00106	c7 86 10 01 00
	00 00 00 00 00	 mov	 DWORD PTR [esi+272], 0

; 1806 : 	m_dPreMinValue				= DBL_MAX;

  00110	f2 0f 10 05 00
	00 00 00	 movsd	 xmm0, QWORD PTR __real@7fefffffffffffff
  00118	c7 86 28 01 00
	00 ff ff ff ff	 mov	 DWORD PTR [esi+296], -1
  00122	c7 86 2c 01 00
	00 ff ff ff ff	 mov	 DWORD PTR [esi+300], -1
  0012c	c7 86 30 01 00
	00 ff ff ff ff	 mov	 DWORD PTR [esi+304], -1
  00136	f2 0f 11 8e 38
	01 00 00	 movsd	 QWORD PTR [esi+312], xmm1
  0013e	f2 0f 11 86 40
	01 00 00	 movsd	 QWORD PTR [esi+320], xmm0

; 1807 : 	m_dPreMaxValueWithoutEnd	= -DBL_MAX;

  00146	f2 0f 11 8e 48
	01 00 00	 movsd	 QWORD PTR [esi+328], xmm1

; 1808 : 	m_dPreMinValueWithoutEnd	= DBL_MAX;

  0014e	f2 0f 11 86 50
	01 00 00	 movsd	 QWORD PTR [esi+336], xmm0
$LN3@InsertData:

; 207  : 		m_lnData.AddHead(value);
; 208  : 		ClearMinMax();
; 209  : 	}
; 210  : }

  00156	8d 4d 08	 lea	 ecx, DWORD PTR _strData$[ebp]
  00159	ff 15 00 00 00
	00		 call	 DWORD PTR __imp_??1?$CStringT@DV?$StrTraitMFC_DLL@DV?$ChTraitsCRT@D@ATL@@@@@ATL@@QAE@XZ
  0015f	8b 4d f4	 mov	 ecx, DWORD PTR __$EHRec$[ebp]
  00162	64 89 0d 00 00
	00 00		 mov	 DWORD PTR fs:0, ecx
  00169	59		 pop	 ecx
  0016a	5f		 pop	 edi
  0016b	5e		 pop	 esi
  0016c	8b e5		 mov	 esp, ebp
  0016e	5d		 pop	 ebp
  0016f	c2 04 00	 ret	 4
_TEXT	ENDS
;	COMDAT text$x
text$x	SEGMENT
__unwindfunclet$?InsertData@CPacketImplementation@@QAEXV?$CStringT@DV?$StrTraitMFC_DLL@DV?$ChTraitsCRT@D@ATL@@@@@ATL@@@Z$0:
  00000	8d 4d 08	 lea	 ecx, DWORD PTR _strData$[ebp]
  00003	ff 25 00 00 00
	00		 jmp	 DWORD PTR __imp_??1?$CStringT@DV?$StrTraitMFC_DLL@DV?$ChTraitsCRT@D@ATL@@@@@ATL@@QAE@XZ
__unwindfunclet$?InsertData@CPacketImplementation@@QAEXV?$CStringT@DV?$StrTraitMFC_DLL@DV?$ChTraitsCRT@D@ATL@@@@@ATL@@@Z$2:
  00009	8d 4d f0	 lea	 ecx, DWORD PTR $T3[ebp]
  0000c	ff 25 00 00 00
	00		 jmp	 DWORD PTR __imp_??1?$CStringT@DV?$StrTraitMFC_DLL@DV?$ChTraitsCRT@D@ATL@@@@@ATL@@QAE@XZ
  00012	cc		 int	 3
  00013	cc		 int	 3
  00014	cc		 int	 3
  00015	cc		 int	 3
  00016	cc		 int	 3
__ehhandler$?InsertData@CPacketImplementation@@QAEXV?$CStringT@DV?$StrTraitMFC_DLL@DV?$ChTraitsCRT@D@ATL@@@@@ATL@@@Z:
  00017	90		 npad	 1
  00018	90		 npad	 1
  00019	8b 54 24 08	 mov	 edx, DWORD PTR [esp+8]
  0001d	8d 42 0c	 lea	 eax, DWORD PTR [edx+12]
  00020	8b 4a ec	 mov	 ecx, DWORD PTR [edx-20]
  00023	33 c8		 xor	 ecx, eax
  00025	e8 00 00 00 00	 call	 @__security_check_cookie@4
  0002a	b8 00 00 00 00	 mov	 eax, OFFSET __ehfuncinfo$?InsertData@CPacketImplementation@@QAEXV?$CStringT@DV?$StrTraitMFC_DLL@DV?$ChTraitsCRT@D@ATL@@@@@ATL@@@Z
  0002f	e9 00 00 00 00	 jmp	 ___CxxFrameHandler3
text$x	ENDS
?InsertData@CPacketImplementation@@QAEXV?$CStringT@DV?$StrTraitMFC_DLL@DV?$ChTraitsCRT@D@ATL@@@@@ATL@@@Z ENDP ; CPacketImplementation::InsertData
; Function compile flags: /Ogtp
; File D:\git\src\IBK\IBK_DRFN\ProjSrc\SrcChartEx\ChartOCX\PacketData\PacketImplementation.cpp
; File C:\Program Files (x86)\Microsoft Visual Studio\2019\Community\VC\Tools\MSVC\14.29.30133\atlmfc\include\afxtempl.h
; File D:\git\src\IBK\IBK_DRFN\ProjSrc\SrcChartEx\ChartOCX\PacketData\PacketImplementation.cpp
; File C:\Program Files (x86)\Microsoft Visual Studio\2019\Community\VC\Tools\MSVC\14.29.30133\atlmfc\include\afxtempl.h
; File D:\git\src\IBK\IBK_DRFN\ProjSrc\SrcChartEx\ChartOCX\PacketData\PacketImplementation.cpp
; File C:\Program Files (x86)\Microsoft Visual Studio\2019\Community\VC\Tools\MSVC\14.29.30133\atlmfc\include\afxtempl.h
; File D:\git\src\IBK\IBK_DRFN\ProjSrc\SrcChartEx\ChartOCX\PacketData\PacketImplementation.cpp
; File C:\Program Files (x86)\Microsoft Visual Studio\2019\Community\VC\Tools\MSVC\14.29.30133\atlmfc\include\afxtempl.h
; File D:\git\src\IBK\IBK_DRFN\ProjSrc\SrcChartEx\ChartOCX\PacketData\PacketImplementation.cpp
;	COMDAT ?ChangeData@CPacketImplementation@@QAEXAAV?$CList@V?$CStringT@DV?$StrTraitMFC_DLL@DV?$ChTraitsCRT@D@ATL@@@@@ATL@@V12@@@@Z
_TEXT	SEGMENT
_strData$2 = -16					; size = 4
__$EHRec$ = -12						; size = 12
$T3 = 8							; size = 4
_lsnewData$ = 8						; size = 4
?ChangeData@CPacketImplementation@@QAEXAAV?$CList@V?$CStringT@DV?$StrTraitMFC_DLL@DV?$ChTraitsCRT@D@ATL@@@@@ATL@@V12@@@@Z PROC ; CPacketImplementation::ChangeData, COMDAT
; _this$ = ecx

; 253  : {

  00000	55		 push	 ebp
  00001	8b ec		 mov	 ebp, esp
  00003	6a ff		 push	 -1
  00005	68 00 00 00 00	 push	 __ehhandler$?ChangeData@CPacketImplementation@@QAEXAAV?$CList@V?$CStringT@DV?$StrTraitMFC_DLL@DV?$ChTraitsCRT@D@ATL@@@@@ATL@@V12@@@@Z
  0000a	64 a1 00 00 00
	00		 mov	 eax, DWORD PTR fs:0
  00010	50		 push	 eax
  00011	51		 push	 ecx
  00012	53		 push	 ebx
  00013	56		 push	 esi
  00014	57		 push	 edi
  00015	a1 00 00 00 00	 mov	 eax, DWORD PTR ___security_cookie
  0001a	33 c5		 xor	 eax, ebp
  0001c	50		 push	 eax
  0001d	8d 45 f4	 lea	 eax, DWORD PTR __$EHRec$[ebp]
  00020	64 a3 00 00 00
	00		 mov	 DWORD PTR fs:0, eax
  00026	8b f9		 mov	 edi, ecx
; File C:\Program Files (x86)\Microsoft Visual Studio\2019\Community\VC\Tools\MSVC\14.29.30133\atlmfc\include\afxtempl.h

; 786  : 	{ return m_nCount == 0; }

  00028	83 bf bc 00 00
	00 00		 cmp	 DWORD PTR [edi+188], 0
; File D:\git\src\IBK\IBK_DRFN\ProjSrc\SrcChartEx\ChartOCX\PacketData\PacketImplementation.cpp

; 254  : 	if(!m_lstrData.IsEmpty())

  0002f	74 0b		 je	 SHORT $LN4@ChangeData

; 255  : 		m_lstrData.RemoveAll() ;

  00031	8d 8f b0 00 00
	00		 lea	 ecx, DWORD PTR [edi+176]
  00037	e8 00 00 00 00	 call	 ?RemoveAll@?$CList@V?$CStringT@DV?$StrTraitMFC_DLL@DV?$ChTraitsCRT@D@ATL@@@@@ATL@@V12@@@QAEXXZ ; CList<ATL::CStringT<char,StrTraitMFC_DLL<char,ATL::ChTraitsCRT<char> > >,ATL::CStringT<char,StrTraitMFC_DLL<char,ATL::ChTraitsCRT<char> > > >::RemoveAll
$LN4@ChangeData:

; 256  : 
; 257  : 	POSITION pos = lsnewData.GetHeadPosition() ;

  0003c	8b 45 08	 mov	 eax, DWORD PTR _lsnewData$[ebp]
  0003f	8b 58 04	 mov	 ebx, DWORD PTR [eax+4]

; 258  : 	while(pos != NULL)	{

  00042	85 db		 test	 ebx, ebx
  00044	0f 84 8c 00 00
	00		 je	 $LN3@ChangeData
  0004a	66 0f 1f 44 00
	00		 npad	 6
$LL2@ChangeData:
; File C:\Program Files (x86)\Microsoft Visual Studio\2019\Community\VC\Tools\MSVC\14.29.30133\atlmfc\include\afxtempl.h

; 811  : 	{ CNode* pNode = (CNode*) rPosition;

  00050	8b c3		 mov	 eax, ebx
; File D:\git\src\IBK\IBK_DRFN\ProjSrc\SrcChartEx\ChartOCX\PacketData\PacketImplementation.cpp

; 259  : 		CString strData = lsnewData.GetNext(pos) ;

  00052	8d 4d f0	 lea	 ecx, DWORD PTR _strData$2[ebp]
; File C:\Program Files (x86)\Microsoft Visual Studio\2019\Community\VC\Tools\MSVC\14.29.30133\atlmfc\include\afxtempl.h

; 813  : 		rPosition = (POSITION) pNode->pNext;

  00055	8b 1b		 mov	 ebx, DWORD PTR [ebx]

; 814  : 		return pNode->data; }

  00057	83 c0 08	 add	 eax, 8
; File D:\git\src\IBK\IBK_DRFN\ProjSrc\SrcChartEx\ChartOCX\PacketData\PacketImplementation.cpp

; 259  : 		CString strData = lsnewData.GetNext(pos) ;

  0005a	50		 push	 eax
  0005b	ff 15 00 00 00
	00		 call	 DWORD PTR __imp_??0?$CStringT@DV?$StrTraitMFC_DLL@DV?$ChTraitsCRT@D@ATL@@@@@ATL@@QAE@ABV01@@Z

; 260  : 		m_lstrData.AddTail(strData) ;

  00061	8d 45 f0	 lea	 eax, DWORD PTR _strData$2[ebp]
  00064	c7 45 fc 00 00
	00 00		 mov	 DWORD PTR __$EHRec$[ebp+8], 0
  0006b	50		 push	 eax
  0006c	8d 4d 08	 lea	 ecx, DWORD PTR $T3[ebp]
  0006f	ff 15 00 00 00
	00		 call	 DWORD PTR __imp_??0?$CStringT@DV?$StrTraitMFC_DLL@DV?$ChTraitsCRT@D@ATL@@@@@ATL@@QAE@ABV01@@Z
; File C:\Program Files (x86)\Microsoft Visual Studio\2019\Community\VC\Tools\MSVC\14.29.30133\atlmfc\include\afxtempl.h

; 968  : 	CNode* pNewNode = NewNode(m_pNodeTail, NULL);

  00075	6a 00		 push	 0
  00077	ff b7 b8 00 00
	00		 push	 DWORD PTR [edi+184]
  0007d	8d 8f b0 00 00
	00		 lea	 ecx, DWORD PTR [edi+176]
  00083	c6 45 fc 01	 mov	 BYTE PTR __$EHRec$[ebp+8], 1
  00087	e8 00 00 00 00	 call	 ?NewNode@?$CList@V?$CStringT@DV?$StrTraitMFC_DLL@DV?$ChTraitsCRT@D@ATL@@@@@ATL@@V12@@@IAEPAUCNode@1@PAU21@0@Z ; CList<ATL::CStringT<char,StrTraitMFC_DLL<char,ATL::ChTraitsCRT<char> > >,ATL::CStringT<char,StrTraitMFC_DLL<char,ATL::ChTraitsCRT<char> > > >::NewNode
  0008c	8b f0		 mov	 esi, eax

; 969  : 	pNewNode->data = newElement;

  0008e	8d 45 08	 lea	 eax, DWORD PTR $T3[ebp]
  00091	50		 push	 eax
  00092	8d 4e 08	 lea	 ecx, DWORD PTR [esi+8]
  00095	ff 15 00 00 00
	00		 call	 DWORD PTR __imp_??4?$CStringT@DV?$StrTraitMFC_DLL@DV?$ChTraitsCRT@D@ATL@@@@@ATL@@QAEAAV01@ABV01@@Z

; 970  : 	if (m_pNodeTail != NULL)

  0009b	8b 87 b8 00 00
	00		 mov	 eax, DWORD PTR [edi+184]
  000a1	85 c0		 test	 eax, eax
  000a3	74 04		 je	 SHORT $LN13@ChangeData

; 971  : 		m_pNodeTail->pNext = pNewNode;

  000a5	89 30		 mov	 DWORD PTR [eax], esi
  000a7	eb 06		 jmp	 SHORT $LN14@ChangeData
$LN13@ChangeData:

; 972  : 	else
; 973  : 		m_pNodeHead = pNewNode;

  000a9	89 b7 b4 00 00
	00		 mov	 DWORD PTR [edi+180], esi
$LN14@ChangeData:

; 974  : 	m_pNodeTail = pNewNode;
; 975  : 	return (POSITION) pNewNode;

  000af	8d 4d 08	 lea	 ecx, DWORD PTR $T3[ebp]
  000b2	89 b7 b8 00 00
	00		 mov	 DWORD PTR [edi+184], esi
  000b8	ff 15 00 00 00
	00		 call	 DWORD PTR __imp_??1?$CStringT@DV?$StrTraitMFC_DLL@DV?$ChTraitsCRT@D@ATL@@@@@ATL@@QAE@XZ
; File D:\git\src\IBK\IBK_DRFN\ProjSrc\SrcChartEx\ChartOCX\PacketData\PacketImplementation.cpp

; 261  : 	}

  000be	8d 4d f0	 lea	 ecx, DWORD PTR _strData$2[ebp]
  000c1	c7 45 fc ff ff
	ff ff		 mov	 DWORD PTR __$EHRec$[ebp+8], -1
  000c8	ff 15 00 00 00
	00		 call	 DWORD PTR __imp_??1?$CStringT@DV?$StrTraitMFC_DLL@DV?$ChTraitsCRT@D@ATL@@@@@ATL@@QAE@XZ
  000ce	85 db		 test	 ebx, ebx
  000d0	0f 85 7a ff ff
	ff		 jne	 $LL2@ChangeData
$LN3@ChangeData:

; 262  : }

  000d6	8b 4d f4	 mov	 ecx, DWORD PTR __$EHRec$[ebp]
  000d9	64 89 0d 00 00
	00 00		 mov	 DWORD PTR fs:0, ecx
  000e0	59		 pop	 ecx
  000e1	5f		 pop	 edi
  000e2	5e		 pop	 esi
  000e3	5b		 pop	 ebx
  000e4	8b e5		 mov	 esp, ebp
  000e6	5d		 pop	 ebp
  000e7	c2 04 00	 ret	 4
_TEXT	ENDS
;	COMDAT text$x
text$x	SEGMENT
__unwindfunclet$?ChangeData@CPacketImplementation@@QAEXAAV?$CList@V?$CStringT@DV?$StrTraitMFC_DLL@DV?$ChTraitsCRT@D@ATL@@@@@ATL@@V12@@@@Z$0:
  00000	8d 4d f0	 lea	 ecx, DWORD PTR _strData$2[ebp]
  00003	ff 25 00 00 00
	00		 jmp	 DWORD PTR __imp_??1?$CStringT@DV?$StrTraitMFC_DLL@DV?$ChTraitsCRT@D@ATL@@@@@ATL@@QAE@XZ
__unwindfunclet$?ChangeData@CPacketImplementation@@QAEXAAV?$CList@V?$CStringT@DV?$StrTraitMFC_DLL@DV?$ChTraitsCRT@D@ATL@@@@@ATL@@V12@@@@Z$2:
  00009	8d 4d 08	 lea	 ecx, DWORD PTR $T3[ebp]
  0000c	ff 25 00 00 00
	00		 jmp	 DWORD PTR __imp_??1?$CStringT@DV?$StrTraitMFC_DLL@DV?$ChTraitsCRT@D@ATL@@@@@ATL@@QAE@XZ
  00012	cc		 int	 3
  00013	cc		 int	 3
  00014	cc		 int	 3
  00015	cc		 int	 3
  00016	cc		 int	 3
__ehhandler$?ChangeData@CPacketImplementation@@QAEXAAV?$CList@V?$CStringT@DV?$StrTraitMFC_DLL@DV?$ChTraitsCRT@D@ATL@@@@@ATL@@V12@@@@Z:
  00017	90		 npad	 1
  00018	90		 npad	 1
  00019	8b 54 24 08	 mov	 edx, DWORD PTR [esp+8]
  0001d	8d 42 0c	 lea	 eax, DWORD PTR [edx+12]
  00020	8b 4a ec	 mov	 ecx, DWORD PTR [edx-20]
  00023	33 c8		 xor	 ecx, eax
  00025	e8 00 00 00 00	 call	 @__security_check_cookie@4
  0002a	b8 00 00 00 00	 mov	 eax, OFFSET __ehfuncinfo$?ChangeData@CPacketImplementation@@QAEXAAV?$CList@V?$CStringT@DV?$StrTraitMFC_DLL@DV?$ChTraitsCRT@D@ATL@@@@@ATL@@V12@@@@Z
  0002f	e9 00 00 00 00	 jmp	 ___CxxFrameHandler3
text$x	ENDS
?ChangeData@CPacketImplementation@@QAEXAAV?$CList@V?$CStringT@DV?$StrTraitMFC_DLL@DV?$ChTraitsCRT@D@ATL@@@@@ATL@@V12@@@@Z ENDP ; CPacketImplementation::ChangeData
; Function compile flags: /Ogtp
; File D:\git\src\IBK\IBK_DRFN\ProjSrc\SrcChartEx\ChartOCX\PacketData\PacketImplementation.cpp
; File C:\Program Files (x86)\Microsoft Visual Studio\2019\Community\VC\Tools\MSVC\14.29.30133\atlmfc\include\afxtempl.h
; File D:\git\src\IBK\IBK_DRFN\ProjSrc\SrcChartEx\ChartOCX\PacketData\PacketImplementation.cpp
; File C:\Program Files (x86)\Microsoft Visual Studio\2019\Community\VC\Tools\MSVC\14.29.30133\atlmfc\include\afxtempl.h
; File D:\git\src\IBK\IBK_DRFN\ProjSrc\SrcChartEx\ChartOCX\PacketData\PacketImplementation.cpp
; File C:\Program Files (x86)\Microsoft Visual Studio\2019\Community\VC\Tools\MSVC\14.29.30133\atlmfc\include\afxtempl.h
; File D:\git\src\IBK\IBK_DRFN\ProjSrc\SrcChartEx\ChartOCX\PacketData\PacketImplementation.cpp
; File C:\Program Files (x86)\Microsoft Visual Studio\2019\Community\VC\Tools\MSVC\14.29.30133\atlmfc\include\afxtempl.h
; File D:\git\src\IBK\IBK_DRFN\ProjSrc\SrcChartEx\ChartOCX\PacketData\PacketImplementation.cpp
; File C:\Program Files (x86)\Microsoft Visual Studio\2019\Community\VC\Tools\MSVC\14.29.30133\atlmfc\include\afxtempl.h
; File D:\git\src\IBK\IBK_DRFN\ProjSrc\SrcChartEx\ChartOCX\PacketData\PacketImplementation.cpp
;	COMDAT ?ChangeData@CPacketImplementation@@QAEXAAV?$CList@NN@@@Z
_TEXT	SEGMENT
_nData$1$ = -8						; size = 8
_pPrev$1$ = 8						; size = 4
_lsnewData$ = 8						; size = 4
?ChangeData@CPacketImplementation@@QAEXAAV?$CList@NN@@@Z PROC ; CPacketImplementation::ChangeData, COMDAT
; _this$ = ecx

; 239  : {

  00000	55		 push	 ebp
  00001	8b ec		 mov	 ebp, esp
  00003	83 ec 08	 sub	 esp, 8
  00006	53		 push	 ebx
  00007	56		 push	 esi
  00008	8b f1		 mov	 esi, ecx
; File C:\Program Files (x86)\Microsoft Visual Studio\2019\Community\VC\Tools\MSVC\14.29.30133\atlmfc\include\afxtempl.h

; 786  : 	{ return m_nCount == 0; }

  0000a	83 be a0 00 00
	00 00		 cmp	 DWORD PTR [esi+160], 0
; File D:\git\src\IBK\IBK_DRFN\ProjSrc\SrcChartEx\ChartOCX\PacketData\PacketImplementation.cpp

; 240  : 	if(!m_lnData.IsEmpty())

  00011	74 3d		 je	 SHORT $LN49@ChangeData
; File C:\Program Files (x86)\Microsoft Visual Studio\2019\Community\VC\Tools\MSVC\14.29.30133\atlmfc\include\afxtempl.h

; 870  : 	m_nCount = 0;

  00013	c7 86 a0 00 00
	00 00 00 00 00	 mov	 DWORD PTR [esi+160], 0

; 871  : 	m_pNodeHead = m_pNodeTail = m_pNodeFree = NULL;
; 872  : 	m_pBlocks->FreeDataChain();

  0001d	8b 8e a8 00 00
	00		 mov	 ecx, DWORD PTR [esi+168]
  00023	c7 86 a4 00 00
	00 00 00 00 00	 mov	 DWORD PTR [esi+164], 0
  0002d	c7 86 9c 00 00
	00 00 00 00 00	 mov	 DWORD PTR [esi+156], 0
  00037	c7 86 98 00 00
	00 00 00 00 00	 mov	 DWORD PTR [esi+152], 0
  00041	e8 00 00 00 00	 call	 ?FreeDataChain@CPlex@@QAEXXZ ; CPlex::FreeDataChain

; 873  : 	m_pBlocks = NULL;

  00046	c7 86 a8 00 00
	00 00 00 00 00	 mov	 DWORD PTR [esi+168], 0
$LN49@ChangeData:
; File D:\git\src\IBK\IBK_DRFN\ProjSrc\SrcChartEx\ChartOCX\PacketData\PacketImplementation.cpp

; 243  : 	POSITION pos = lsnewData.GetHeadPosition() ;

  00050	8b 45 08	 mov	 eax, DWORD PTR _lsnewData$[ebp]
  00053	8b 58 04	 mov	 ebx, DWORD PTR [eax+4]

; 244  : 	while(pos != NULL)	{

  00056	85 db		 test	 ebx, ebx
  00058	0f 84 c1 00 00
	00		 je	 $LN52@ChangeData
  0005e	8b 96 9c 00 00
	00		 mov	 edx, DWORD PTR [esi+156]
  00064	57		 push	 edi
$LL2@ChangeData:

; 245  : 		double nData = lsnewData.GetNext(pos) ;

  00065	f2 0f 10 43 08	 movsd	 xmm0, QWORD PTR [ebx+8]
; File C:\Program Files (x86)\Microsoft Visual Studio\2019\Community\VC\Tools\MSVC\14.29.30133\atlmfc\include\afxtempl.h

; 811  : 	{ CNode* pNode = (CNode*) rPosition;

  0006a	8d 03		 lea	 eax, DWORD PTR [ebx]

; 812  : 		ASSERT(AfxIsValidAddress(pNode, sizeof(CNode)));
; 813  : 		rPosition = (POSITION) pNode->pNext;

  0006c	8b 1b		 mov	 ebx, DWORD PTR [ebx]

; 968  : 	CNode* pNewNode = NewNode(m_pNodeTail, NULL);

  0006e	89 55 08	 mov	 DWORD PTR _pPrev$1$[ebp], edx

; 902  : 	if (m_pNodeFree == NULL)

  00071	8b 96 a4 00 00
	00		 mov	 edx, DWORD PTR [esi+164]
; File D:\git\src\IBK\IBK_DRFN\ProjSrc\SrcChartEx\ChartOCX\PacketData\PacketImplementation.cpp

; 245  : 		double nData = lsnewData.GetNext(pos) ;

  00077	f2 0f 11 45 f8	 movsd	 QWORD PTR _nData$1$[ebp], xmm0
; File C:\Program Files (x86)\Microsoft Visual Studio\2019\Community\VC\Tools\MSVC\14.29.30133\atlmfc\include\afxtempl.h

; 902  : 	if (m_pNodeFree == NULL)

  0007c	85 d2		 test	 edx, edx
  0007e	75 5d		 jne	 SHORT $LN48@ChangeData

; 903  : 	{
; 904  : 		// add another block
; 905  : 		CPlex* pNewBlock = CPlex::Create(m_pBlocks, m_nBlockSize,

  00080	6a 10		 push	 16			; 00000010H
  00082	ff b6 ac 00 00
	00		 push	 DWORD PTR [esi+172]
  00088	8d 86 a8 00 00
	00		 lea	 eax, DWORD PTR [esi+168]
  0008e	50		 push	 eax
  0008f	e8 00 00 00 00	 call	 ?Create@CPlex@@SGPAU1@AAPAU1@II@Z ; CPlex::Create

; 906  : 				 sizeof(CNode));
; 907  : 
; 908  : 		// chain them into free list
; 909  : 		CNode* pNode = (CNode*) pNewBlock->data();
; 910  : 		// free in reverse order to make it easier to debug
; 911  : 		pNode += m_nBlockSize - 1;

  00094	8b 96 ac 00 00
	00		 mov	 edx, DWORD PTR [esi+172]
  0009a	83 c0 08	 add	 eax, 8
  0009d	8b ca		 mov	 ecx, edx
  0009f	c1 e1 04	 shl	 ecx, 4
  000a2	83 c1 f0	 add	 ecx, -16		; fffffff0H

; 912  : 		for (INT_PTR i = m_nBlockSize-1; i >= 0; i--, pNode--)

  000a5	8d 7a ff	 lea	 edi, DWORD PTR [edx-1]
  000a8	03 c8		 add	 ecx, eax
  000aa	85 ff		 test	 edi, edi
  000ac	78 1c		 js	 SHORT $LN50@ChangeData
  000ae	66 90		 npad	 2
$LL22@ChangeData:

; 913  : 		{
; 914  : 			pNode->pNext = m_pNodeFree;

  000b0	8b 86 a4 00 00
	00		 mov	 eax, DWORD PTR [esi+164]
  000b6	8b d1		 mov	 edx, ecx
  000b8	89 01		 mov	 DWORD PTR [ecx], eax

; 915  : 			m_pNodeFree = pNode;

  000ba	89 8e a4 00 00
	00		 mov	 DWORD PTR [esi+164], ecx
  000c0	83 e9 10	 sub	 ecx, 16			; 00000010H
  000c3	83 ef 01	 sub	 edi, 1
  000c6	79 e8		 jns	 SHORT $LL22@ChangeData
  000c8	eb 06		 jmp	 SHORT $LN25@ChangeData
$LN50@ChangeData:
  000ca	8b 96 a4 00 00
	00		 mov	 edx, DWORD PTR [esi+164]
$LN25@ChangeData:

; 918  : 	ENSURE(m_pNodeFree != NULL);  // we must have something

  000d0	85 d2		 test	 edx, edx
  000d2	0f 84 b5 00 00
	00		 je	 $LN36@ChangeData
  000d8	f2 0f 10 45 f8	 movsd	 xmm0, QWORD PTR _nData$1$[ebp]
$LN48@ChangeData:

; 919  : 
; 920  : 	CList::CNode* pNode = m_pNodeFree;
; 921  : 	m_pNodeFree = m_pNodeFree->pNext;

  000dd	8b 02		 mov	 eax, DWORD PTR [edx]
  000df	89 86 a4 00 00
	00		 mov	 DWORD PTR [esi+164], eax

; 922  : 	pNode->pPrev = pPrev;

  000e5	8b 45 08	 mov	 eax, DWORD PTR _pPrev$1$[ebp]
  000e8	89 42 04	 mov	 DWORD PTR [edx+4], eax

; 923  : 	pNode->pNext = pNext;

  000eb	c7 02 00 00 00
	00		 mov	 DWORD PTR [edx], 0

; 924  : 	m_nCount++;

  000f1	ff 86 a0 00 00
	00		 inc	 DWORD PTR [esi+160]

; 969  : 	pNewNode->data = newElement;

  000f7	f2 0f 11 42 08	 movsd	 QWORD PTR [edx+8], xmm0

; 970  : 	if (m_pNodeTail != NULL)

  000fc	8b 86 9c 00 00
	00		 mov	 eax, DWORD PTR [esi+156]
  00102	85 c0		 test	 eax, eax
  00104	74 04		 je	 SHORT $LN16@ChangeData

; 971  : 		m_pNodeTail->pNext = pNewNode;

  00106	89 10		 mov	 DWORD PTR [eax], edx
  00108	eb 06		 jmp	 SHORT $LN17@ChangeData
$LN16@ChangeData:

; 972  : 	else
; 973  : 		m_pNodeHead = pNewNode;

  0010a	89 96 98 00 00
	00		 mov	 DWORD PTR [esi+152], edx
$LN17@ChangeData:

; 974  : 	m_pNodeTail = pNewNode;

  00110	89 96 9c 00 00
	00		 mov	 DWORD PTR [esi+156], edx
; File D:\git\src\IBK\IBK_DRFN\ProjSrc\SrcChartEx\ChartOCX\PacketData\PacketImplementation.cpp

; 244  : 	while(pos != NULL)	{

  00116	85 db		 test	 ebx, ebx
  00118	0f 85 47 ff ff
	ff		 jne	 $LL2@ChangeData
  0011e	5f		 pop	 edi
$LN52@ChangeData:

; 1800 : 	m_dContinueCode_Pre			= -HUGE_VAL;

  0011f	0f 28 05 00 00
	00 00		 movaps	 xmm0, XMMWORD PTR __xmm@fff0000000000000fff0000000000000

; 1801 : 	m_dExceptionValue_Pre		= -HUGE_VAL;
; 1802 : 	m_nStartPeriod_Pre			= -1;
; 1803 : 	m_nStartIndex_Pre			= -1;
; 1804 : 	m_nEndIndex_Pre				= -1;
; 1805 : 	m_dPreMaxValue				= -DBL_MAX;

  00126	f2 0f 10 0d 00
	00 00 00	 movsd	 xmm1, QWORD PTR __real@ffefffffffffffff
  0012e	0f 11 86 18 01
	00 00		 movups	 XMMWORD PTR [esi+280], xmm0
  00135	c7 86 10 01 00
	00 00 00 00 00	 mov	 DWORD PTR [esi+272], 0

; 1806 : 	m_dPreMinValue				= DBL_MAX;

  0013f	f2 0f 10 05 00
	00 00 00	 movsd	 xmm0, QWORD PTR __real@7fefffffffffffff
  00147	c7 86 28 01 00
	00 ff ff ff ff	 mov	 DWORD PTR [esi+296], -1
  00151	c7 86 2c 01 00
	00 ff ff ff ff	 mov	 DWORD PTR [esi+300], -1
  0015b	c7 86 30 01 00
	00 ff ff ff ff	 mov	 DWORD PTR [esi+304], -1
  00165	f2 0f 11 8e 38
	01 00 00	 movsd	 QWORD PTR [esi+312], xmm1
  0016d	f2 0f 11 86 40
	01 00 00	 movsd	 QWORD PTR [esi+320], xmm0

; 1807 : 	m_dPreMaxValueWithoutEnd	= -DBL_MAX;

  00175	f2 0f 11 8e 48
	01 00 00	 movsd	 QWORD PTR [esi+328], xmm1

; 1808 : 	m_dPreMinValueWithoutEnd	= DBL_MAX;

  0017d	f2 0f 11 86 50
	01 00 00	 movsd	 QWORD PTR [esi+336], xmm0
  00185	5e		 pop	 esi
  00186	5b		 pop	 ebx

; 249  : }

  00187	8b e5		 mov	 esp, ebp
  00189	5d		 pop	 ebp
  0018a	c2 04 00	 ret	 4
$LN36@ChangeData:
; File C:\Program Files (x86)\Microsoft Visual Studio\2019\Community\VC\Tools\MSVC\14.29.30133\atlmfc\include\afxtempl.h

; 918  : 	ENSURE(m_pNodeFree != NULL);  // we must have something

  0018d	e8 00 00 00 00	 call	 ?AfxThrowInvalidArgException@@YGXXZ ; AfxThrowInvalidArgException
$LN54@ChangeData:
  00192	cc		 int	 3
?ChangeData@CPacketImplementation@@QAEXAAV?$CList@NN@@@Z ENDP ; CPacketImplementation::ChangeData
_TEXT	ENDS
; Function compile flags: /Ogtp
; File D:\git\src\IBK\IBK_DRFN\ProjSrc\SrcChartEx\ChartOCX\PacketData\PacketImplementation.cpp
;	COMDAT ?SetLength@CPacketImplementation@@QAEXH@Z
_TEXT	SEGMENT
_nLength$ = 8						; size = 4
?SetLength@CPacketImplementation@@QAEXH@Z PROC		; CPacketImplementation::SetLength, COMDAT
; _this$ = ecx

; 546  : {

  00000	55		 push	 ebp
  00001	8b ec		 mov	 ebp, esp

; 547  : 	m_nLength = nLength ;

  00003	8b 45 08	 mov	 eax, DWORD PTR _nLength$[ebp]
  00006	89 41 28	 mov	 DWORD PTR [ecx+40], eax

; 548  : }

  00009	5d		 pop	 ebp
  0000a	c2 04 00	 ret	 4
?SetLength@CPacketImplementation@@QAEXH@Z ENDP		; CPacketImplementation::SetLength
_TEXT	ENDS
; Function compile flags: /Ogtp
; File D:\git\src\IBK\IBK_DRFN\ProjSrc\SrcChartEx\ChartOCX\PacketData\PacketImplementation.cpp
;	COMDAT ?SetType@CPacketImplementation@@QAEXABV?$CStringT@DV?$StrTraitMFC_DLL@DV?$ChTraitsCRT@D@ATL@@@@@ATL@@0@Z
_TEXT	SEGMENT
_strFullType$ = 8					; size = 4
_strExpressionType$ = 12				; size = 4
?SetType@CPacketImplementation@@QAEXABV?$CStringT@DV?$StrTraitMFC_DLL@DV?$ChTraitsCRT@D@ATL@@@@@ATL@@0@Z PROC ; CPacketImplementation::SetType, COMDAT
; _this$ = ecx

; 561  : {

  00000	55		 push	 ebp
  00001	8b ec		 mov	 ebp, esp
  00003	56		 push	 esi
  00004	57		 push	 edi

; 562  : 	m_Type = strFullType;

  00005	ff 75 08	 push	 DWORD PTR _strFullType$[ebp]
  00008	8b f9		 mov	 edi, ecx
  0000a	8d 4f 64	 lea	 ecx, DWORD PTR [edi+100]
  0000d	ff 15 00 00 00
	00		 call	 DWORD PTR __imp_??4?$CStringT@DV?$StrTraitMFC_DLL@DV?$ChTraitsCRT@D@ATL@@@@@ATL@@QAEAAV01@ABV01@@Z

; 563  : 	m_Type.TrimLeft(" ");

  00013	68 00 00 00 00	 push	 OFFSET ??_C@_01CLKCMJKC@?5@
  00018	8d 4f 64	 lea	 ecx, DWORD PTR [edi+100]
  0001b	ff 15 00 00 00
	00		 call	 DWORD PTR __imp_?TrimLeft@?$CStringT@DV?$StrTraitMFC_DLL@DV?$ChTraitsCRT@D@ATL@@@@@ATL@@QAEAAV12@PBD@Z

; 564  : 	m_Type.TrimRight(" ");

  00021	68 00 00 00 00	 push	 OFFSET ??_C@_01CLKCMJKC@?5@
  00026	8d 4f 64	 lea	 ecx, DWORD PTR [edi+100]
  00029	ff 15 00 00 00
	00		 call	 DWORD PTR __imp_?TrimRight@?$CStringT@DV?$StrTraitMFC_DLL@DV?$ChTraitsCRT@D@ATL@@@@@ATL@@QAEAAV12@PBD@Z

; 565  : 	m_ExpressionType = strExpressionType;

  0002f	ff 75 0c	 push	 DWORD PTR _strExpressionType$[ebp]
  00032	8d 4f 68	 lea	 ecx, DWORD PTR [edi+104]
  00035	ff 15 00 00 00
	00		 call	 DWORD PTR __imp_??4?$CStringT@DV?$StrTraitMFC_DLL@DV?$ChTraitsCRT@D@ATL@@@@@ATL@@QAEAAV01@ABV01@@Z

; 566  : 	m_ExpressionType.TrimLeft(" ");

  0003b	68 00 00 00 00	 push	 OFFSET ??_C@_01CLKCMJKC@?5@
  00040	8d 4f 68	 lea	 ecx, DWORD PTR [edi+104]
  00043	ff 15 00 00 00
	00		 call	 DWORD PTR __imp_?TrimLeft@?$CStringT@DV?$StrTraitMFC_DLL@DV?$ChTraitsCRT@D@ATL@@@@@ATL@@QAEAAV12@PBD@Z

; 567  : 	m_ExpressionType.TrimRight(" ");

  00049	68 00 00 00 00	 push	 OFFSET ??_C@_01CLKCMJKC@?5@
  0004e	8d 4f 68	 lea	 ecx, DWORD PTR [edi+104]
  00051	ff 15 00 00 00
	00		 call	 DWORD PTR __imp_?TrimRight@?$CStringT@DV?$StrTraitMFC_DLL@DV?$ChTraitsCRT@D@ATL@@@@@ATL@@QAEAAV12@PBD@Z
  00057	5f		 pop	 edi
  00058	5e		 pop	 esi

; 568  : }

  00059	5d		 pop	 ebp
  0005a	c2 08 00	 ret	 8
?SetType@CPacketImplementation@@QAEXABV?$CStringT@DV?$StrTraitMFC_DLL@DV?$ChTraitsCRT@D@ATL@@@@@ATL@@0@Z ENDP ; CPacketImplementation::SetType
_TEXT	ENDS
; Function compile flags: /Ogtp
; File D:\git\src\IBK\IBK_DRFN\ProjSrc\SrcChartEx\ChartOCX\PacketData\PacketImplementation.cpp
;	COMDAT ?SetType@CPacketImplementation@@QAEXABV?$CStringT@DV?$StrTraitMFC_DLL@DV?$ChTraitsCRT@D@ATL@@@@@ATL@@@Z
_TEXT	SEGMENT
_strType$ = 8						; size = 4
?SetType@CPacketImplementation@@QAEXABV?$CStringT@DV?$StrTraitMFC_DLL@DV?$ChTraitsCRT@D@ATL@@@@@ATL@@@Z PROC ; CPacketImplementation::SetType, COMDAT
; _this$ = ecx

; 551  : {

  00000	55		 push	 ebp
  00001	8b ec		 mov	 ebp, esp
  00003	56		 push	 esi
  00004	57		 push	 edi

; 552  : 	m_Type = strType ;

  00005	ff 75 08	 push	 DWORD PTR _strType$[ebp]
  00008	8b f9		 mov	 edi, ecx
  0000a	8d 77 64	 lea	 esi, DWORD PTR [edi+100]
  0000d	8b ce		 mov	 ecx, esi
  0000f	ff 15 00 00 00
	00		 call	 DWORD PTR __imp_??4?$CStringT@DV?$StrTraitMFC_DLL@DV?$ChTraitsCRT@D@ATL@@@@@ATL@@QAEAAV01@ABV01@@Z

; 553  : 	m_Type.TrimLeft();

  00015	8b ce		 mov	 ecx, esi
  00017	ff 15 00 00 00
	00		 call	 DWORD PTR __imp_?TrimLeft@?$CStringT@DV?$StrTraitMFC_DLL@DV?$ChTraitsCRT@D@ATL@@@@@ATL@@QAEAAV12@XZ

; 554  : 	m_Type.TrimRight();

  0001d	8b ce		 mov	 ecx, esi
  0001f	ff 15 00 00 00
	00		 call	 DWORD PTR __imp_?TrimRight@?$CStringT@DV?$StrTraitMFC_DLL@DV?$ChTraitsCRT@D@ATL@@@@@ATL@@QAEAAV12@XZ

; 555  : 	m_ExpressionType = m_Type;

  00025	56		 push	 esi
  00026	8d 4f 68	 lea	 ecx, DWORD PTR [edi+104]
  00029	ff 15 00 00 00
	00		 call	 DWORD PTR __imp_??4?$CStringT@DV?$StrTraitMFC_DLL@DV?$ChTraitsCRT@D@ATL@@@@@ATL@@QAEAAV01@ABV01@@Z
  0002f	5f		 pop	 edi
  00030	5e		 pop	 esi

; 556  : }

  00031	5d		 pop	 ebp
  00032	c2 04 00	 ret	 4
?SetType@CPacketImplementation@@QAEXABV?$CStringT@DV?$StrTraitMFC_DLL@DV?$ChTraitsCRT@D@ATL@@@@@ATL@@@Z ENDP ; CPacketImplementation::SetType
_TEXT	ENDS
; Function compile flags: /Ogtp
; File D:\git\src\IBK\IBK_DRFN\ProjSrc\SrcChartEx\ChartOCX\PacketData\PacketImplementation.cpp
;	COMDAT ?SetName@CPacketImplementation@@QAEXV?$CStringT@DV?$StrTraitMFC_DLL@DV?$ChTraitsCRT@D@ATL@@@@@ATL@@@Z
_TEXT	SEGMENT
__$EHRec$ = -12						; size = 12
_strName$ = 8						; size = 4
?SetName@CPacketImplementation@@QAEXV?$CStringT@DV?$StrTraitMFC_DLL@DV?$ChTraitsCRT@D@ATL@@@@@ATL@@@Z PROC ; CPacketImplementation::SetName, COMDAT
; _this$ = ecx

; 576  : {

  00000	55		 push	 ebp
  00001	8b ec		 mov	 ebp, esp
  00003	6a ff		 push	 -1
  00005	68 00 00 00 00	 push	 __ehhandler$?SetName@CPacketImplementation@@QAEXV?$CStringT@DV?$StrTraitMFC_DLL@DV?$ChTraitsCRT@D@ATL@@@@@ATL@@@Z
  0000a	64 a1 00 00 00
	00		 mov	 eax, DWORD PTR fs:0
  00010	50		 push	 eax
  00011	a1 00 00 00 00	 mov	 eax, DWORD PTR ___security_cookie
  00016	33 c5		 xor	 eax, ebp
  00018	50		 push	 eax
  00019	8d 45 f4	 lea	 eax, DWORD PTR __$EHRec$[ebp]
  0001c	64 a3 00 00 00
	00		 mov	 DWORD PTR fs:0, eax

; 577  : 	m_Name = strName ;

  00022	8d 45 08	 lea	 eax, DWORD PTR _strName$[ebp]
  00025	c7 45 fc 00 00
	00 00		 mov	 DWORD PTR __$EHRec$[ebp+8], 0
  0002c	50		 push	 eax
  0002d	81 c1 88 00 00
	00		 add	 ecx, 136		; 00000088H
  00033	ff 15 00 00 00
	00		 call	 DWORD PTR __imp_??4?$CStringT@DV?$StrTraitMFC_DLL@DV?$ChTraitsCRT@D@ATL@@@@@ATL@@QAEAAV01@ABV01@@Z

; 578  : }

  00039	8d 4d 08	 lea	 ecx, DWORD PTR _strName$[ebp]
  0003c	ff 15 00 00 00
	00		 call	 DWORD PTR __imp_??1?$CStringT@DV?$StrTraitMFC_DLL@DV?$ChTraitsCRT@D@ATL@@@@@ATL@@QAE@XZ
  00042	8b 4d f4	 mov	 ecx, DWORD PTR __$EHRec$[ebp]
  00045	64 89 0d 00 00
	00 00		 mov	 DWORD PTR fs:0, ecx
  0004c	59		 pop	 ecx
  0004d	8b e5		 mov	 esp, ebp
  0004f	5d		 pop	 ebp
  00050	c2 04 00	 ret	 4
_TEXT	ENDS
;	COMDAT text$x
text$x	SEGMENT
__unwindfunclet$?SetName@CPacketImplementation@@QAEXV?$CStringT@DV?$StrTraitMFC_DLL@DV?$ChTraitsCRT@D@ATL@@@@@ATL@@@Z$0:
  00000	8d 4d 08	 lea	 ecx, DWORD PTR _strName$[ebp]
  00003	ff 25 00 00 00
	00		 jmp	 DWORD PTR __imp_??1?$CStringT@DV?$StrTraitMFC_DLL@DV?$ChTraitsCRT@D@ATL@@@@@ATL@@QAE@XZ
  00009	cc		 int	 3
  0000a	cc		 int	 3
  0000b	cc		 int	 3
  0000c	cc		 int	 3
  0000d	cc		 int	 3
__ehhandler$?SetName@CPacketImplementation@@QAEXV?$CStringT@DV?$StrTraitMFC_DLL@DV?$ChTraitsCRT@D@ATL@@@@@ATL@@@Z:
  0000e	90		 npad	 1
  0000f	90		 npad	 1
  00010	8b 54 24 08	 mov	 edx, DWORD PTR [esp+8]
  00014	8d 42 0c	 lea	 eax, DWORD PTR [edx+12]
  00017	8b 4a fc	 mov	 ecx, DWORD PTR [edx-4]
  0001a	33 c8		 xor	 ecx, eax
  0001c	e8 00 00 00 00	 call	 @__security_check_cookie@4
  00021	b8 00 00 00 00	 mov	 eax, OFFSET __ehfuncinfo$?SetName@CPacketImplementation@@QAEXV?$CStringT@DV?$StrTraitMFC_DLL@DV?$ChTraitsCRT@D@ATL@@@@@ATL@@@Z
  00026	e9 00 00 00 00	 jmp	 ___CxxFrameHandler3
text$x	ENDS
?SetName@CPacketImplementation@@QAEXV?$CStringT@DV?$StrTraitMFC_DLL@DV?$ChTraitsCRT@D@ATL@@@@@ATL@@@Z ENDP ; CPacketImplementation::SetName
; Function compile flags: /Ogtp
; File D:\git\src\IBK\IBK_DRFN\ProjSrc\SrcChartEx\ChartOCX\PacketData\PacketImplementation.cpp
;	COMDAT ?SetStartPeriod@CPacketImplementation@@QAEXH@Z
_TEXT	SEGMENT
_nStartPeriod$ = 8					; size = 4
?SetStartPeriod@CPacketImplementation@@QAEXH@Z PROC	; CPacketImplementation::SetStartPeriod, COMDAT
; _this$ = ecx

; 581  : {

  00000	55		 push	 ebp
  00001	8b ec		 mov	 ebp, esp

; 582  : 	m_nStartPeriod = nStartPeriod;

  00003	8b 45 08	 mov	 eax, DWORD PTR _nStartPeriod$[ebp]
  00006	89 41 24	 mov	 DWORD PTR [ecx+36], eax

; 583  : }

  00009	5d		 pop	 ebp
  0000a	c2 04 00	 ret	 4
?SetStartPeriod@CPacketImplementation@@QAEXH@Z ENDP	; CPacketImplementation::SetStartPeriod
_TEXT	ENDS
; Function compile flags: /Ogtp
; File D:\git\src\IBK\IBK_DRFN\ProjSrc\SrcChartEx\ChartOCX\PacketData\PacketImplementation.cpp
; File C:\Program Files (x86)\Windows Kits\10\Include\10.0.22000.0\ucrt\string.h
; File D:\git\src\IBK\IBK_DRFN\ProjSrc\SrcChartEx\ChartOCX\PacketData\PacketImplementation.cpp
; File C:\Program Files (x86)\Windows Kits\10\Include\10.0.22000.0\ucrt\string.h
; File D:\git\src\IBK\IBK_DRFN\ProjSrc\SrcChartEx\ChartOCX\PacketData\PacketImplementation.cpp
;	COMDAT ?SetStandardValue@CPacketImplementation@@QAEXPBD@Z
_TEXT	SEGMENT
$T2 = -24						; size = 8
$T3 = -24						; size = 8
_strValue$ = -16					; size = 4
__$EHRec$ = -12						; size = 12
_p_szValue$ = 8						; size = 4
?SetStandardValue@CPacketImplementation@@QAEXPBD@Z PROC	; CPacketImplementation::SetStandardValue, COMDAT
; _this$ = ecx

; 610  : {

  00000	55		 push	 ebp
  00001	8b ec		 mov	 ebp, esp
  00003	6a ff		 push	 -1
  00005	68 00 00 00 00	 push	 __ehhandler$?SetStandardValue@CPacketImplementation@@QAEXPBD@Z
  0000a	64 a1 00 00 00
	00		 mov	 eax, DWORD PTR fs:0
  00010	50		 push	 eax
  00011	83 ec 0c	 sub	 esp, 12			; 0000000cH
  00014	53		 push	 ebx
  00015	56		 push	 esi
  00016	57		 push	 edi
  00017	a1 00 00 00 00	 mov	 eax, DWORD PTR ___security_cookie
  0001c	33 c5		 xor	 eax, ebp
  0001e	50		 push	 eax
  0001f	8d 45 f4	 lea	 eax, DWORD PTR __$EHRec$[ebp]
  00022	64 a3 00 00 00
	00		 mov	 DWORD PTR fs:0, eax
  00028	8b d9		 mov	 ebx, ecx

; 611  : 	CString strValue;

  0002a	8d 4d f0	 lea	 ecx, DWORD PTR _strValue$[ebp]
  0002d	ff 15 00 00 00
	00		 call	 DWORD PTR __imp_??0?$CStringT@DV?$StrTraitMFC_DLL@DV?$ChTraitsCRT@D@ATL@@@@@ATL@@QAE@XZ

; 612  : 	char *szValue = strValue.GetBufferSetLength( strlen( p_szValue));

  00033	8b 75 08	 mov	 esi, DWORD PTR _p_szValue$[ebp]
  00036	8b d6		 mov	 edx, esi
  00038	c7 45 fc 00 00
	00 00		 mov	 DWORD PTR __$EHRec$[ebp+8], 0
  0003f	8d 4a 01	 lea	 ecx, DWORD PTR [edx+1]
$LL19@SetStandar:
  00042	8a 02		 mov	 al, BYTE PTR [edx]
  00044	42		 inc	 edx
  00045	84 c0		 test	 al, al
  00047	75 f9		 jne	 SHORT $LL19@SetStandar
  00049	2b d1		 sub	 edx, ecx
  0004b	8d 4d f0	 lea	 ecx, DWORD PTR _strValue$[ebp]
  0004e	52		 push	 edx
  0004f	ff 15 00 00 00
	00		 call	 DWORD PTR __imp_?GetBufferSetLength@?$CSimpleStringT@D$00@ATL@@QAEPADH@Z
  00055	8b f8		 mov	 edi, eax
  00057	8b d7		 mov	 edx, edi
  00059	2b d6		 sub	 edx, esi
  0005b	0f 1f 44 00 00	 npad	 5
$LL7@SetStandar:

; 613  : 	strcpy( szValue, p_szValue);

  00060	8a 0e		 mov	 cl, BYTE PTR [esi]
  00062	8d 76 01	 lea	 esi, DWORD PTR [esi+1]
  00065	88 4c 32 ff	 mov	 BYTE PTR [edx+esi-1], cl
  00069	84 c9		 test	 cl, cl
  0006b	75 f3		 jne	 SHORT $LL7@SetStandar
; File C:\Program Files (x86)\Windows Kits\10\Include\10.0.22000.0\ucrt\string.h

; 502  :         return const_cast<char*>(strchr(static_cast<char const*>(_String), _Ch));

  0006d	6a 2c		 push	 44			; 0000002cH
  0006f	57		 push	 edi
  00070	e8 00 00 00 00	 call	 _strchr
  00075	83 c4 08	 add	 esp, 8
; File D:\git\src\IBK\IBK_DRFN\ProjSrc\SrcChartEx\ChartOCX\PacketData\PacketImplementation.cpp

; 615  : 	char *szNext = strchr( szValue, ',');

  00078	8b f0		 mov	 esi, eax

; 616  : 	if( szNext) *szNext = '\0';

  0007a	57		 push	 edi
  0007b	85 f6		 test	 esi, esi
  0007d	74 67		 je	 SHORT $LN2@SetStandar
  0007f	c6 06 00	 mov	 BYTE PTR [esi], 0
  00082	ff 15 00 00 00
	00		 call	 DWORD PTR __imp__atof
  00088	83 c4 04	 add	 esp, 4
  0008b	8d 45 e8	 lea	 eax, DWORD PTR $T3[ebp]
  0008e	8d 4b 30	 lea	 ecx, DWORD PTR [ebx+48]
  00091	dd 5d e8	 fstp	 QWORD PTR $T3[ebp]
  00094	50		 push	 eax
  00095	6a 01		 push	 1
  00097	e8 00 00 00 00	 call	 ?Set@CItemData@@QAEX_NABN@Z ; CItemData::Set

; 618  : 	if( !szNext) return;
; 619  : 	szValue = szNext + 1;

  0009c	46		 inc	 esi
; File C:\Program Files (x86)\Windows Kits\10\Include\10.0.22000.0\ucrt\string.h

; 502  :         return const_cast<char*>(strchr(static_cast<char const*>(_String), _Ch));

  0009d	6a 2c		 push	 44			; 0000002cH
  0009f	56		 push	 esi
  000a0	e8 00 00 00 00	 call	 _strchr
  000a5	83 c4 08	 add	 esp, 8
; File D:\git\src\IBK\IBK_DRFN\ProjSrc\SrcChartEx\ChartOCX\PacketData\PacketImplementation.cpp

; 621  : 	szNext = strchr( szValue, ',');

  000a8	8b f8		 mov	 edi, eax

; 622  : 	if( szNext) *szNext = '\0';

  000aa	56		 push	 esi
  000ab	85 ff		 test	 edi, edi
  000ad	74 2c		 je	 SHORT $LN4@SetStandar
  000af	c6 07 00	 mov	 BYTE PTR [edi], 0
  000b2	ff 15 00 00 00
	00		 call	 DWORD PTR __imp__atof
  000b8	83 c4 04	 add	 esp, 4
  000bb	8d 45 e8	 lea	 eax, DWORD PTR $T2[ebp]
  000be	8d 4b 40	 lea	 ecx, DWORD PTR [ebx+64]
  000c1	dd 5d e8	 fstp	 QWORD PTR $T2[ebp]
  000c4	50		 push	 eax
  000c5	6a 01		 push	 1
  000c7	e8 00 00 00 00	 call	 ?Set@CItemData@@QAEX_NABN@Z ; CItemData::Set

; 624  : 	if( !szNext) return;
; 625  : 	szValue = szNext + 1;

  000cc	8d 47 01	 lea	 eax, DWORD PTR [edi+1]

; 626  : 
; 627  : 	m_lowerBaseValue.Set( true, atof( szValue));

  000cf	50		 push	 eax
  000d0	ff 15 00 00 00
	00		 call	 DWORD PTR __imp__atof
  000d6	8d 4b 50	 lea	 ecx, DWORD PTR [ebx+80]
  000d9	eb 14		 jmp	 SHORT $LN21@SetStandar
$LN4@SetStandar:

; 623  : 	m_upperBaseValue.Set( true, atof( szValue));

  000db	ff 15 00 00 00
	00		 call	 DWORD PTR __imp__atof
  000e1	8d 4b 40	 lea	 ecx, DWORD PTR [ebx+64]
  000e4	eb 09		 jmp	 SHORT $LN21@SetStandar
$LN2@SetStandar:

; 617  : 	m_standardValue.Set( true, atof( szValue));

  000e6	ff 15 00 00 00
	00		 call	 DWORD PTR __imp__atof
  000ec	8d 4b 30	 lea	 ecx, DWORD PTR [ebx+48]
$LN21@SetStandar:

; 628  : }

  000ef	83 c4 04	 add	 esp, 4
  000f2	8d 45 e8	 lea	 eax, DWORD PTR $T3[ebp]
  000f5	dd 5d e8	 fstp	 QWORD PTR $T3[ebp]
  000f8	50		 push	 eax
  000f9	6a 01		 push	 1
  000fb	e8 00 00 00 00	 call	 ?Set@CItemData@@QAEX_NABN@Z ; CItemData::Set
  00100	8d 4d f0	 lea	 ecx, DWORD PTR _strValue$[ebp]
  00103	ff 15 00 00 00
	00		 call	 DWORD PTR __imp_??1?$CStringT@DV?$StrTraitMFC_DLL@DV?$ChTraitsCRT@D@ATL@@@@@ATL@@QAE@XZ
  00109	8b 4d f4	 mov	 ecx, DWORD PTR __$EHRec$[ebp]
  0010c	64 89 0d 00 00
	00 00		 mov	 DWORD PTR fs:0, ecx
  00113	59		 pop	 ecx
  00114	5f		 pop	 edi
  00115	5e		 pop	 esi
  00116	5b		 pop	 ebx
  00117	8b e5		 mov	 esp, ebp
  00119	5d		 pop	 ebp
  0011a	c2 04 00	 ret	 4
_TEXT	ENDS
;	COMDAT text$x
text$x	SEGMENT
__unwindfunclet$?SetStandardValue@CPacketImplementation@@QAEXPBD@Z$0:
  00000	8d 4d f0	 lea	 ecx, DWORD PTR _strValue$[ebp]
  00003	ff 25 00 00 00
	00		 jmp	 DWORD PTR __imp_??1?$CStringT@DV?$StrTraitMFC_DLL@DV?$ChTraitsCRT@D@ATL@@@@@ATL@@QAE@XZ
  00009	cc		 int	 3
  0000a	cc		 int	 3
  0000b	cc		 int	 3
  0000c	cc		 int	 3
  0000d	cc		 int	 3
__ehhandler$?SetStandardValue@CPacketImplementation@@QAEXPBD@Z:
  0000e	90		 npad	 1
  0000f	90		 npad	 1
  00010	8b 54 24 08	 mov	 edx, DWORD PTR [esp+8]
  00014	8d 42 0c	 lea	 eax, DWORD PTR [edx+12]
  00017	8b 4a e4	 mov	 ecx, DWORD PTR [edx-28]
  0001a	33 c8		 xor	 ecx, eax
  0001c	e8 00 00 00 00	 call	 @__security_check_cookie@4
  00021	b8 00 00 00 00	 mov	 eax, OFFSET __ehfuncinfo$?SetStandardValue@CPacketImplementation@@QAEXPBD@Z
  00026	e9 00 00 00 00	 jmp	 ___CxxFrameHandler3
text$x	ENDS
?SetStandardValue@CPacketImplementation@@QAEXPBD@Z ENDP	; CPacketImplementation::SetStandardValue
; Function compile flags: /Ogtp
; File D:\git\src\IBK\IBK_DRFN\ProjSrc\SrcChartEx\ChartOCX\PacketData\PacketImplementation.cpp
;	COMDAT ?SetBoundLimit@CPacketImplementation@@QAEXNN@Z
_TEXT	SEGMENT
_nUpperBound$ = 8					; size = 8
_nLowerBound$ = 16					; size = 8
?SetBoundLimit@CPacketImplementation@@QAEXNN@Z PROC	; CPacketImplementation::SetBoundLimit, COMDAT
; _this$ = ecx

; 1048 : {

  00000	55		 push	 ebp
  00001	8b ec		 mov	 ebp, esp

; 1049 : 	m_bUseBound = true;
; 1050 : 	m_dMaxBound = nUpperBound;

  00003	f2 0f 10 45 08	 movsd	 xmm0, QWORD PTR _nUpperBound$[ebp]
  00008	f2 0f 11 41 10	 movsd	 QWORD PTR [ecx+16], xmm0

; 1051 : 	m_dMinBound = nLowerBound;

  0000d	f2 0f 10 45 10	 movsd	 xmm0, QWORD PTR _nLowerBound$[ebp]
  00012	c6 41 20 01	 mov	 BYTE PTR [ecx+32], 1
  00016	f2 0f 11 41 18	 movsd	 QWORD PTR [ecx+24], xmm0

; 1052 : }

  0001b	5d		 pop	 ebp
  0001c	c2 10 00	 ret	 16			; 00000010H
?SetBoundLimit@CPacketImplementation@@QAEXNN@Z ENDP	; CPacketImplementation::SetBoundLimit
_TEXT	ENDS
; Function compile flags: /Ogtp
; File D:\git\src\IBK\IBK_DRFN\ProjSrc\SrcChartEx\ChartOCX\PacketData\PacketImplementation.cpp
;	COMDAT ?SetRealFieldName@CPacketImplementation@@QAEXV?$CStringT@DV?$StrTraitMFC_DLL@DV?$ChTraitsCRT@D@ATL@@@@@ATL@@0@Z
_TEXT	SEGMENT
__$EHRec$ = -12						; size = 12
_strRealFieldName$ = 8					; size = 4
_strRealKeyName$ = 12					; size = 4
?SetRealFieldName@CPacketImplementation@@QAEXV?$CStringT@DV?$StrTraitMFC_DLL@DV?$ChTraitsCRT@D@ATL@@@@@ATL@@0@Z PROC ; CPacketImplementation::SetRealFieldName, COMDAT
; _this$ = ecx

; 94   : {

  00000	55		 push	 ebp
  00001	8b ec		 mov	 ebp, esp
  00003	6a ff		 push	 -1
  00005	68 00 00 00 00	 push	 __ehhandler$?SetRealFieldName@CPacketImplementation@@QAEXV?$CStringT@DV?$StrTraitMFC_DLL@DV?$ChTraitsCRT@D@ATL@@@@@ATL@@0@Z
  0000a	64 a1 00 00 00
	00		 mov	 eax, DWORD PTR fs:0
  00010	50		 push	 eax
  00011	56		 push	 esi
  00012	a1 00 00 00 00	 mov	 eax, DWORD PTR ___security_cookie
  00017	33 c5		 xor	 eax, ebp
  00019	50		 push	 eax
  0001a	8d 45 f4	 lea	 eax, DWORD PTR __$EHRec$[ebp]
  0001d	64 a3 00 00 00
	00		 mov	 DWORD PTR fs:0, eax
  00023	8b f1		 mov	 esi, ecx

; 95   : 	if(!strRealFieldName.IsEmpty())
; 96   : 		m_bUseReal = true ;
; 97   : 	else
; 98   : 		m_bUseReal = false ;
; 99   : 
; 100  : 	m_RealFieldName = strRealFieldName ;

  00025	8b 45 08	 mov	 eax, DWORD PTR _strRealFieldName$[ebp]
  00028	8d 8e 8c 00 00
	00		 lea	 ecx, DWORD PTR [esi+140]
  0002e	c7 45 fc 01 00
	00 00		 mov	 DWORD PTR __$EHRec$[ebp+8], 1
  00035	83 78 f4 00	 cmp	 DWORD PTR [eax-12], 0
  00039	0f 95 c0	 setne	 al
  0003c	88 46 60	 mov	 BYTE PTR [esi+96], al
  0003f	8d 45 08	 lea	 eax, DWORD PTR _strRealFieldName$[ebp]
  00042	50		 push	 eax
  00043	ff 15 00 00 00
	00		 call	 DWORD PTR __imp_??4?$CStringT@DV?$StrTraitMFC_DLL@DV?$ChTraitsCRT@D@ATL@@@@@ATL@@QAEAAV01@ABV01@@Z

; 101  : 	m_RealKeyName = strRealKeyName;

  00049	8d 45 0c	 lea	 eax, DWORD PTR _strRealKeyName$[ebp]
  0004c	50		 push	 eax
  0004d	8d 8e 90 00 00
	00		 lea	 ecx, DWORD PTR [esi+144]
  00053	ff 15 00 00 00
	00		 call	 DWORD PTR __imp_??4?$CStringT@DV?$StrTraitMFC_DLL@DV?$ChTraitsCRT@D@ATL@@@@@ATL@@QAEAAV01@ABV01@@Z

; 102  : }

  00059	8d 4d 08	 lea	 ecx, DWORD PTR _strRealFieldName$[ebp]
  0005c	ff 15 00 00 00
	00		 call	 DWORD PTR __imp_??1?$CStringT@DV?$StrTraitMFC_DLL@DV?$ChTraitsCRT@D@ATL@@@@@ATL@@QAE@XZ
  00062	8d 4d 0c	 lea	 ecx, DWORD PTR _strRealKeyName$[ebp]
  00065	ff 15 00 00 00
	00		 call	 DWORD PTR __imp_??1?$CStringT@DV?$StrTraitMFC_DLL@DV?$ChTraitsCRT@D@ATL@@@@@ATL@@QAE@XZ
  0006b	8b 4d f4	 mov	 ecx, DWORD PTR __$EHRec$[ebp]
  0006e	64 89 0d 00 00
	00 00		 mov	 DWORD PTR fs:0, ecx
  00075	59		 pop	 ecx
  00076	5e		 pop	 esi
  00077	8b e5		 mov	 esp, ebp
  00079	5d		 pop	 ebp
  0007a	c2 08 00	 ret	 8
_TEXT	ENDS
;	COMDAT text$x
text$x	SEGMENT
__unwindfunclet$?SetRealFieldName@CPacketImplementation@@QAEXV?$CStringT@DV?$StrTraitMFC_DLL@DV?$ChTraitsCRT@D@ATL@@@@@ATL@@0@Z$0:
  00000	8d 4d 0c	 lea	 ecx, DWORD PTR _strRealKeyName$[ebp]
  00003	ff 25 00 00 00
	00		 jmp	 DWORD PTR __imp_??1?$CStringT@DV?$StrTraitMFC_DLL@DV?$ChTraitsCRT@D@ATL@@@@@ATL@@QAE@XZ
__unwindfunclet$?SetRealFieldName@CPacketImplementation@@QAEXV?$CStringT@DV?$StrTraitMFC_DLL@DV?$ChTraitsCRT@D@ATL@@@@@ATL@@0@Z$1:
  00009	8d 4d 08	 lea	 ecx, DWORD PTR _strRealFieldName$[ebp]
  0000c	ff 25 00 00 00
	00		 jmp	 DWORD PTR __imp_??1?$CStringT@DV?$StrTraitMFC_DLL@DV?$ChTraitsCRT@D@ATL@@@@@ATL@@QAE@XZ
  00012	cc		 int	 3
  00013	cc		 int	 3
  00014	cc		 int	 3
  00015	cc		 int	 3
  00016	cc		 int	 3
__ehhandler$?SetRealFieldName@CPacketImplementation@@QAEXV?$CStringT@DV?$StrTraitMFC_DLL@DV?$ChTraitsCRT@D@ATL@@@@@ATL@@0@Z:
  00017	90		 npad	 1
  00018	90		 npad	 1
  00019	8b 54 24 08	 mov	 edx, DWORD PTR [esp+8]
  0001d	8d 42 0c	 lea	 eax, DWORD PTR [edx+12]
  00020	8b 4a f8	 mov	 ecx, DWORD PTR [edx-8]
  00023	33 c8		 xor	 ecx, eax
  00025	e8 00 00 00 00	 call	 @__security_check_cookie@4
  0002a	b8 00 00 00 00	 mov	 eax, OFFSET __ehfuncinfo$?SetRealFieldName@CPacketImplementation@@QAEXV?$CStringT@DV?$StrTraitMFC_DLL@DV?$ChTraitsCRT@D@ATL@@@@@ATL@@0@Z
  0002f	e9 00 00 00 00	 jmp	 ___CxxFrameHandler3
text$x	ENDS
?SetRealFieldName@CPacketImplementation@@QAEXV?$CStringT@DV?$StrTraitMFC_DLL@DV?$ChTraitsCRT@D@ATL@@@@@ATL@@0@Z ENDP ; CPacketImplementation::SetRealFieldName
; Function compile flags: /Ogtp
; File D:\git\src\IBK\IBK_DRFN\ProjSrc\SrcChartEx\ChartOCX\PacketData\PacketImplementation.cpp
; File C:\Program Files (x86)\Microsoft Visual Studio\2019\Community\VC\Tools\MSVC\14.29.30133\atlmfc\include\cstringt.h
; File D:\git\src\IBK\IBK_DRFN\ProjSrc\SrcChartEx\ChartOCX\PacketData\PacketImplementation.cpp
; File C:\Program Files (x86)\Microsoft Visual Studio\2019\Community\VC\Tools\MSVC\14.29.30133\atlmfc\include\cstringt.h
; File D:\git\src\IBK\IBK_DRFN\ProjSrc\SrcChartEx\ChartOCX\PacketData\PacketImplementation.cpp
;	COMDAT ?GetstrDataList@CPacketImplementation@@QAEPAV?$CList@V?$CStringT@DV?$StrTraitMFC_DLL@DV?$ChTraitsCRT@D@ATL@@@@@ATL@@V12@@@XZ
_TEXT	SEGMENT
?GetstrDataList@CPacketImplementation@@QAEPAV?$CList@V?$CStringT@DV?$StrTraitMFC_DLL@DV?$ChTraitsCRT@D@ATL@@@@@ATL@@V12@@@XZ PROC ; CPacketImplementation::GetstrDataList, COMDAT
; _this$ = ecx

; 477  : 	if(m_Type != _MTEXT( C6_CHARACTER) && m_lstrData.GetCount() <= 0)

  00000	a1 54 00 00 00	 mov	 eax, DWORD PTR ?g_iMetaTable@@3VIMetaTable@@A+84
  00005	56		 push	 esi
  00006	8b f1		 mov	 esi, ecx
; File C:\Program Files (x86)\Microsoft Visual Studio\2019\Community\VC\Tools\MSVC\14.29.30133\atlmfc\include\cstringt.h

; 2567 : 		return( str1.Compare( psz2 ) != 0 );

  00008	ff b0 60 09 00
	00		 push	 DWORD PTR [eax+2400]
; File D:\git\src\IBK\IBK_DRFN\ProjSrc\SrcChartEx\ChartOCX\PacketData\PacketImplementation.cpp

; 477  : 	if(m_Type != _MTEXT( C6_CHARACTER) && m_lstrData.GetCount() <= 0)

  0000e	8d 4e 64	 lea	 ecx, DWORD PTR [esi+100]
; File C:\Program Files (x86)\Microsoft Visual Studio\2019\Community\VC\Tools\MSVC\14.29.30133\atlmfc\include\cstringt.h

; 2567 : 		return( str1.Compare( psz2 ) != 0 );

  00011	ff 15 00 00 00
	00		 call	 DWORD PTR __imp_?Compare@?$CStringT@DV?$StrTraitMFC_DLL@DV?$ChTraitsCRT@D@ATL@@@@@ATL@@QBEHPBD@Z
  00017	85 c0		 test	 eax, eax
; File D:\git\src\IBK\IBK_DRFN\ProjSrc\SrcChartEx\ChartOCX\PacketData\PacketImplementation.cpp

; 477  : 	if(m_Type != _MTEXT( C6_CHARACTER) && m_lstrData.GetCount() <= 0)

  00019	74 0d		 je	 SHORT $LN2@GetstrData
  0001b	83 be bc 00 00
	00 00		 cmp	 DWORD PTR [esi+188], 0
  00022	7f 04		 jg	 SHORT $LN2@GetstrData

; 478  : 		return NULL;

  00024	33 c0		 xor	 eax, eax
  00026	5e		 pop	 esi

; 481  : }

  00027	c3		 ret	 0
$LN2@GetstrData:

; 479  : 
; 480  : 	return &m_lstrData ;

  00028	8d 86 b0 00 00
	00		 lea	 eax, DWORD PTR [esi+176]
  0002e	5e		 pop	 esi

; 481  : }

  0002f	c3		 ret	 0
?GetstrDataList@CPacketImplementation@@QAEPAV?$CList@V?$CStringT@DV?$StrTraitMFC_DLL@DV?$ChTraitsCRT@D@ATL@@@@@ATL@@V12@@@XZ ENDP ; CPacketImplementation::GetstrDataList
_TEXT	ENDS
; Function compile flags: /Ogtp
; File D:\git\src\IBK\IBK_DRFN\ProjSrc\SrcChartEx\ChartOCX\PacketData\PacketImplementation.cpp
; File C:\Program Files (x86)\Microsoft Visual Studio\2019\Community\VC\Tools\MSVC\14.29.30133\atlmfc\include\cstringt.h
; File D:\git\src\IBK\IBK_DRFN\ProjSrc\SrcChartEx\ChartOCX\PacketData\PacketImplementation.cpp
; File C:\Program Files (x86)\Microsoft Visual Studio\2019\Community\VC\Tools\MSVC\14.29.30133\atlmfc\include\cstringt.h
; File D:\git\src\IBK\IBK_DRFN\ProjSrc\SrcChartEx\ChartOCX\PacketData\PacketImplementation.cpp
;	COMDAT ?GetnumericDataList@CPacketImplementation@@QAEPAV?$CList@NN@@XZ
_TEXT	SEGMENT
?GetnumericDataList@CPacketImplementation@@QAEPAV?$CList@NN@@XZ PROC ; CPacketImplementation::GetnumericDataList, COMDAT
; _this$ = ecx

; 471  : 	if(m_Type == _MTEXT( C6_CHARACTER))	return NULL ;

  00000	a1 54 00 00 00	 mov	 eax, DWORD PTR ?g_iMetaTable@@3VIMetaTable@@A+84
  00005	56		 push	 esi
  00006	8b f1		 mov	 esi, ecx
; File C:\Program Files (x86)\Microsoft Visual Studio\2019\Community\VC\Tools\MSVC\14.29.30133\atlmfc\include\cstringt.h

; 2486 : 		return(str1.Compare(psz2) == 0);

  00008	ff b0 60 09 00
	00		 push	 DWORD PTR [eax+2400]
; File D:\git\src\IBK\IBK_DRFN\ProjSrc\SrcChartEx\ChartOCX\PacketData\PacketImplementation.cpp

; 471  : 	if(m_Type == _MTEXT( C6_CHARACTER))	return NULL ;

  0000e	8d 4e 64	 lea	 ecx, DWORD PTR [esi+100]
; File C:\Program Files (x86)\Microsoft Visual Studio\2019\Community\VC\Tools\MSVC\14.29.30133\atlmfc\include\cstringt.h

; 2486 : 		return(str1.Compare(psz2) == 0);

  00011	ff 15 00 00 00
	00		 call	 DWORD PTR __imp_?Compare@?$CStringT@DV?$StrTraitMFC_DLL@DV?$ChTraitsCRT@D@ATL@@@@@ATL@@QBEHPBD@Z
  00017	85 c0		 test	 eax, eax
; File D:\git\src\IBK\IBK_DRFN\ProjSrc\SrcChartEx\ChartOCX\PacketData\PacketImplementation.cpp

; 471  : 	if(m_Type == _MTEXT( C6_CHARACTER))	return NULL ;

  00019	75 02		 jne	 SHORT $LN2@Getnumeric
  0001b	5e		 pop	 esi

; 473  : }

  0001c	c3		 ret	 0
$LN2@Getnumeric:

; 472  : 	return &m_lnData ;

  0001d	8d 86 94 00 00
	00		 lea	 eax, DWORD PTR [esi+148]
  00023	5e		 pop	 esi

; 473  : }

  00024	c3		 ret	 0
?GetnumericDataList@CPacketImplementation@@QAEPAV?$CList@NN@@XZ ENDP ; CPacketImplementation::GetnumericDataList
_TEXT	ENDS
; Function compile flags: /Ogtp
; File D:\git\src\IBK\IBK_DRFN\ProjSrc\SrcChartEx\ChartOCX\PacketData\PacketImplementation.cpp
; File C:\Program Files (x86)\Microsoft Visual Studio\2019\Community\VC\Tools\MSVC\14.29.30133\atlmfc\include\cstringt.h
; File D:\git\src\IBK\IBK_DRFN\ProjSrc\SrcChartEx\ChartOCX\PacketData\PacketImplementation.cpp
; File C:\Program Files (x86)\Microsoft Visual Studio\2019\Community\VC\Tools\MSVC\14.29.30133\atlmfc\include\cstringt.h
; File D:\git\src\IBK\IBK_DRFN\ProjSrc\SrcChartEx\ChartOCX\PacketData\PacketImplementation.cpp
;	COMDAT ?GetnumericDataList@CPacketImplementation@@QBEPBV?$CList@NN@@XZ
_TEXT	SEGMENT
?GetnumericDataList@CPacketImplementation@@QBEPBV?$CList@NN@@XZ PROC ; CPacketImplementation::GetnumericDataList, COMDAT
; _this$ = ecx

; 465  : 	if(m_Type == _MTEXT( C6_CHARACTER))	return NULL ;

  00000	a1 54 00 00 00	 mov	 eax, DWORD PTR ?g_iMetaTable@@3VIMetaTable@@A+84
  00005	56		 push	 esi
  00006	8b f1		 mov	 esi, ecx
; File C:\Program Files (x86)\Microsoft Visual Studio\2019\Community\VC\Tools\MSVC\14.29.30133\atlmfc\include\cstringt.h

; 2486 : 		return(str1.Compare(psz2) == 0);

  00008	ff b0 60 09 00
	00		 push	 DWORD PTR [eax+2400]
; File D:\git\src\IBK\IBK_DRFN\ProjSrc\SrcChartEx\ChartOCX\PacketData\PacketImplementation.cpp

; 465  : 	if(m_Type == _MTEXT( C6_CHARACTER))	return NULL ;

  0000e	8d 4e 64	 lea	 ecx, DWORD PTR [esi+100]
; File C:\Program Files (x86)\Microsoft Visual Studio\2019\Community\VC\Tools\MSVC\14.29.30133\atlmfc\include\cstringt.h

; 2486 : 		return(str1.Compare(psz2) == 0);

  00011	ff 15 00 00 00
	00		 call	 DWORD PTR __imp_?Compare@?$CStringT@DV?$StrTraitMFC_DLL@DV?$ChTraitsCRT@D@ATL@@@@@ATL@@QBEHPBD@Z
  00017	85 c0		 test	 eax, eax
; File D:\git\src\IBK\IBK_DRFN\ProjSrc\SrcChartEx\ChartOCX\PacketData\PacketImplementation.cpp

; 465  : 	if(m_Type == _MTEXT( C6_CHARACTER))	return NULL ;

  00019	75 02		 jne	 SHORT $LN2@Getnumeric
  0001b	5e		 pop	 esi

; 467  : }

  0001c	c3		 ret	 0
$LN2@Getnumeric:

; 466  : 	return &m_lnData;

  0001d	8d 86 94 00 00
	00		 lea	 eax, DWORD PTR [esi+148]
  00023	5e		 pop	 esi

; 467  : }

  00024	c3		 ret	 0
?GetnumericDataList@CPacketImplementation@@QBEPBV?$CList@NN@@XZ ENDP ; CPacketImplementation::GetnumericDataList
_TEXT	ENDS
; Function compile flags: /Ogtp
; File D:\git\src\IBK\IBK_DRFN\ProjSrc\SrcChartEx\ChartOCX\PacketData\PacketImplementation.cpp
; File C:\Program Files (x86)\Microsoft Visual Studio\2019\Community\VC\Tools\MSVC\14.29.30133\atlmfc\include\cstringt.h
; File D:\git\src\IBK\IBK_DRFN\ProjSrc\SrcChartEx\ChartOCX\PacketData\PacketImplementation.cpp
; File C:\Program Files (x86)\Microsoft Visual Studio\2019\Community\VC\Tools\MSVC\14.29.30133\atlmfc\include\cstringt.h
; File D:\git\src\IBK\IBK_DRFN\ProjSrc\SrcChartEx\ChartOCX\PacketData\PacketImplementation.cpp
; File C:\Program Files (x86)\Microsoft Visual Studio\2019\Community\VC\Tools\MSVC\14.29.30133\atlmfc\include\cstringt.h
; File D:\git\src\IBK\IBK_DRFN\ProjSrc\SrcChartEx\ChartOCX\PacketData\PacketImplementation.cpp
; File C:\Program Files (x86)\Microsoft Visual Studio\2019\Community\VC\Tools\MSVC\14.29.30133\atlmfc\include\cstringt.h
; File D:\git\src\IBK\IBK_DRFN\ProjSrc\SrcChartEx\ChartOCX\PacketData\PacketImplementation.cpp
; File C:\Program Files (x86)\Microsoft Visual Studio\2019\Community\VC\Tools\MSVC\14.29.30133\atlmfc\include\cstringt.h
; File D:\git\src\IBK\IBK_DRFN\ProjSrc\SrcChartEx\ChartOCX\PacketData\PacketImplementation.cpp
; File C:\Program Files (x86)\Microsoft Visual Studio\2019\Community\VC\Tools\MSVC\14.29.30133\atlmfc\include\atlsimpstr.h
; File D:\git\src\IBK\IBK_DRFN\ProjSrc\SrcChartEx\ChartOCX\PacketData\PacketImplementation.cpp
; File C:\Program Files (x86)\Microsoft Visual Studio\2019\Community\VC\Tools\MSVC\14.29.30133\atlmfc\include\atlsimpstr.h
; File D:\git\src\IBK\IBK_DRFN\ProjSrc\SrcChartEx\ChartOCX\PacketData\PacketImplementation.cpp
; File C:\Program Files (x86)\Microsoft Visual Studio\2019\Community\VC\Tools\MSVC\14.29.30133\atlmfc\include\atlsimpstr.h
; File D:\git\src\IBK\IBK_DRFN\ProjSrc\SrcChartEx\ChartOCX\PacketData\PacketImplementation.cpp
; File C:\Program Files (x86)\Microsoft Visual Studio\2019\Community\VC\Tools\MSVC\14.29.30133\atlmfc\include\atlsimpstr.h
; File D:\git\src\IBK\IBK_DRFN\ProjSrc\SrcChartEx\ChartOCX\PacketData\PacketImplementation.cpp
; File C:\Program Files (x86)\Microsoft Visual Studio\2019\Community\VC\Tools\MSVC\14.29.30133\atlmfc\include\atlsimpstr.h
; File D:\git\src\IBK\IBK_DRFN\ProjSrc\SrcChartEx\ChartOCX\PacketData\PacketImplementation.cpp
;	COMDAT ?GetTypeFormatDouble@CPacketImplementation@@QAEN_N@Z
_TEXT	SEGMENT
_ret$1$ = -32						; size = 8
_ret$ = -32						; size = 8
$T2 = -28						; size = 4
$T3 = -24						; size = 4
$T4 = -20						; size = 4
_tmp$ = -16						; size = 4
__$EHRec$ = -12						; size = 12
$T5 = 8							; size = 4
$T6 = 8							; size = 4
$T7 = 8							; size = 4
_bIsFullType$ = 8					; size = 1
$T8 = 11						; size = 1
?GetTypeFormatDouble@CPacketImplementation@@QAEN_N@Z PROC ; CPacketImplementation::GetTypeFormatDouble, COMDAT
; _this$ = ecx

; 498  : {

  00000	55		 push	 ebp
  00001	8b ec		 mov	 ebp, esp
  00003	6a ff		 push	 -1
  00005	68 00 00 00 00	 push	 __ehhandler$?GetTypeFormatDouble@CPacketImplementation@@QAEN_N@Z
  0000a	64 a1 00 00 00
	00		 mov	 eax, DWORD PTR fs:0
  00010	50		 push	 eax
  00011	83 ec 14	 sub	 esp, 20			; 00000014H
  00014	53		 push	 ebx
  00015	56		 push	 esi
  00016	a1 00 00 00 00	 mov	 eax, DWORD PTR ___security_cookie
  0001b	33 c5		 xor	 eax, ebp
  0001d	50		 push	 eax
  0001e	8d 45 f4	 lea	 eax, DWORD PTR __$EHRec$[ebp]
  00021	64 a3 00 00 00
	00		 mov	 DWORD PTR fs:0, eax
  00027	8b f1		 mov	 esi, ecx
  00029	c7 45 ec 00 00
	00 00		 mov	 DWORD PTR $T4[ebp], 0

; 499  : 	double ret = 1.0;
; 500  : 	CString tmp;

  00030	8d 4d f0	 lea	 ecx, DWORD PTR _tmp$[ebp]
  00033	f2 0f 10 05 00
	00 00 00	 movsd	 xmm0, QWORD PTR __real@3ff0000000000000
  0003b	f2 0f 11 45 e0	 movsd	 QWORD PTR _ret$[ebp], xmm0
  00040	ff 15 00 00 00
	00		 call	 DWORD PTR __imp_??0?$CStringT@DV?$StrTraitMFC_DLL@DV?$ChTraitsCRT@D@ATL@@@@@ATL@@QAE@XZ

; 501  : 	
; 502  : 	if(bIsFullType)

  00046	80 7d 08 00	 cmp	 BYTE PTR _bIsFullType$[ebp], 0
  0004a	8d 4d f0	 lea	 ecx, DWORD PTR _tmp$[ebp]
  0004d	c7 45 fc 00 00
	00 00		 mov	 DWORD PTR __$EHRec$[ebp+8], 0

; 503  : 		tmp = m_Type;

  00054	8d 46 64	 lea	 eax, DWORD PTR [esi+100]
  00057	75 03		 jne	 SHORT $LN41@GetTypeFor

; 504  : 	else
; 505  : 		tmp = m_ExpressionType;

  00059	8d 46 68	 lea	 eax, DWORD PTR [esi+104]
$LN41@GetTypeFor:

; 506  : 
; 507  : 	//  
; 508  : 	int nfind1 = tmp.Find("1");

  0005c	50		 push	 eax
  0005d	ff 15 00 00 00
	00		 call	 DWORD PTR __imp_??4?$CStringT@DV?$StrTraitMFC_DLL@DV?$ChTraitsCRT@D@ATL@@@@@ATL@@QAEAAV01@ABV01@@Z
  00063	6a 00		 push	 0
  00065	68 00 00 00 00	 push	 OFFSET ??_C@_01HIHLOKLC@1@
  0006a	8d 4d f0	 lea	 ecx, DWORD PTR _tmp$[ebp]
  0006d	ff 15 00 00 00
	00		 call	 DWORD PTR __imp_?Find@?$CStringT@DV?$StrTraitMFC_DLL@DV?$ChTraitsCRT@D@ATL@@@@@ATL@@QBEHPBDH@Z
  00073	8b f0		 mov	 esi, eax

; 509  : 	if(nfind1 >= 0)	{

  00075	85 f6		 test	 esi, esi
  00077	0f 88 2a 01 00
	00		 js	 $LN39@GetTypeFor

; 511  : 		if(tmp.Right(1) != "0" && tmp.Right(1) != "1")

  0007d	6a 01		 push	 1
  0007f	8d 45 e4	 lea	 eax, DWORD PTR $T2[ebp]
  00082	50		 push	 eax
  00083	8d 4d f0	 lea	 ecx, DWORD PTR _tmp$[ebp]
  00086	ff 15 00 00 00
	00		 call	 DWORD PTR __imp_?Right@?$CStringT@DV?$StrTraitMFC_DLL@DV?$ChTraitsCRT@D@ATL@@@@@ATL@@QBE?AV12@H@Z
  0008c	bb 01 00 00 00	 mov	 ebx, 1
  00091	c6 45 fc 01	 mov	 BYTE PTR __$EHRec$[ebp+8], 1
; File C:\Program Files (x86)\Microsoft Visual Studio\2019\Community\VC\Tools\MSVC\14.29.30133\atlmfc\include\cstringt.h

; 2567 : 		return( str1.Compare( psz2 ) != 0 );

  00095	68 00 00 00 00	 push	 OFFSET ??_C@_01GBGANLPD@0@
  0009a	8b c8		 mov	 ecx, eax
; File D:\git\src\IBK\IBK_DRFN\ProjSrc\SrcChartEx\ChartOCX\PacketData\PacketImplementation.cpp

; 511  : 		if(tmp.Right(1) != "0" && tmp.Right(1) != "1")

  0009c	89 5d ec	 mov	 DWORD PTR $T4[ebp], ebx
; File C:\Program Files (x86)\Microsoft Visual Studio\2019\Community\VC\Tools\MSVC\14.29.30133\atlmfc\include\cstringt.h

; 2567 : 		return( str1.Compare( psz2 ) != 0 );

  0009f	ff 15 00 00 00
	00		 call	 DWORD PTR __imp_?Compare@?$CStringT@DV?$StrTraitMFC_DLL@DV?$ChTraitsCRT@D@ATL@@@@@ATL@@QBEHPBD@Z
  000a5	85 c0		 test	 eax, eax
; File D:\git\src\IBK\IBK_DRFN\ProjSrc\SrcChartEx\ChartOCX\PacketData\PacketImplementation.cpp

; 511  : 		if(tmp.Right(1) != "0" && tmp.Right(1) != "1")

  000a7	74 32		 je	 SHORT $LN9@GetTypeFor
  000a9	53		 push	 ebx
  000aa	8d 45 e8	 lea	 eax, DWORD PTR $T3[ebp]
  000ad	50		 push	 eax
  000ae	8d 4d f0	 lea	 ecx, DWORD PTR _tmp$[ebp]
  000b1	ff 15 00 00 00
	00		 call	 DWORD PTR __imp_?Right@?$CStringT@DV?$StrTraitMFC_DLL@DV?$ChTraitsCRT@D@ATL@@@@@ATL@@QBE?AV12@H@Z
  000b7	bb 03 00 00 00	 mov	 ebx, 3
  000bc	c7 45 fc 02 00
	00 00		 mov	 DWORD PTR __$EHRec$[ebp+8], 2
; File C:\Program Files (x86)\Microsoft Visual Studio\2019\Community\VC\Tools\MSVC\14.29.30133\atlmfc\include\cstringt.h

; 2567 : 		return( str1.Compare( psz2 ) != 0 );

  000c3	68 00 00 00 00	 push	 OFFSET ??_C@_01HIHLOKLC@1@
  000c8	8b c8		 mov	 ecx, eax
; File D:\git\src\IBK\IBK_DRFN\ProjSrc\SrcChartEx\ChartOCX\PacketData\PacketImplementation.cpp

; 511  : 		if(tmp.Right(1) != "0" && tmp.Right(1) != "1")

  000ca	89 5d ec	 mov	 DWORD PTR $T4[ebp], ebx
; File C:\Program Files (x86)\Microsoft Visual Studio\2019\Community\VC\Tools\MSVC\14.29.30133\atlmfc\include\cstringt.h

; 2567 : 		return( str1.Compare( psz2 ) != 0 );

  000cd	ff 15 00 00 00
	00		 call	 DWORD PTR __imp_?Compare@?$CStringT@DV?$StrTraitMFC_DLL@DV?$ChTraitsCRT@D@ATL@@@@@ATL@@QBEHPBD@Z
; File D:\git\src\IBK\IBK_DRFN\ProjSrc\SrcChartEx\ChartOCX\PacketData\PacketImplementation.cpp

; 511  : 		if(tmp.Right(1) != "0" && tmp.Right(1) != "1")

  000d3	c6 45 0b 01	 mov	 BYTE PTR $T8[ebp], 1
; File C:\Program Files (x86)\Microsoft Visual Studio\2019\Community\VC\Tools\MSVC\14.29.30133\atlmfc\include\cstringt.h

; 2567 : 		return( str1.Compare( psz2 ) != 0 );

  000d7	85 c0		 test	 eax, eax
; File D:\git\src\IBK\IBK_DRFN\ProjSrc\SrcChartEx\ChartOCX\PacketData\PacketImplementation.cpp

; 511  : 		if(tmp.Right(1) != "0" && tmp.Right(1) != "1")

  000d9	75 04		 jne	 SHORT $LN10@GetTypeFor
$LN9@GetTypeFor:
  000db	c6 45 0b 00	 mov	 BYTE PTR $T8[ebp], 0
$LN10@GetTypeFor:
  000df	f6 c3 02	 test	 bl, 2
  000e2	74 0c		 je	 SHORT $LN16@GetTypeFor
  000e4	8d 4d e8	 lea	 ecx, DWORD PTR $T3[ebp]
  000e7	83 e3 fd	 and	 ebx, -3			; fffffffdH
  000ea	ff 15 00 00 00
	00		 call	 DWORD PTR __imp_??1?$CStringT@DV?$StrTraitMFC_DLL@DV?$ChTraitsCRT@D@ATL@@@@@ATL@@QAE@XZ
$LN16@GetTypeFor:
  000f0	c7 45 fc 00 00
	00 00		 mov	 DWORD PTR __$EHRec$[ebp+8], 0
  000f7	f6 c3 01	 test	 bl, 1
  000fa	74 09		 je	 SHORT $LN17@GetTypeFor
  000fc	8d 4d e4	 lea	 ecx, DWORD PTR $T2[ebp]
  000ff	ff 15 00 00 00
	00		 call	 DWORD PTR __imp_??1?$CStringT@DV?$StrTraitMFC_DLL@DV?$ChTraitsCRT@D@ATL@@@@@ATL@@QAE@XZ
$LN17@GetTypeFor:
  00105	80 7d 0b 00	 cmp	 BYTE PTR $T8[ebp], 0
  00109	74 30		 je	 SHORT $LN5@GetTypeFor
; File C:\Program Files (x86)\Microsoft Visual Studio\2019\Community\VC\Tools\MSVC\14.29.30133\atlmfc\include\atlsimpstr.h

; 519  : 		return( GetData()->nDataLength );

  0010b	8b 45 f0	 mov	 eax, DWORD PTR _tmp$[ebp]
; File D:\git\src\IBK\IBK_DRFN\ProjSrc\SrcChartEx\ChartOCX\PacketData\PacketImplementation.cpp

; 512  : 			tmp = tmp.Left(tmp.GetLength() - 1);

  0010e	8d 4d f0	 lea	 ecx, DWORD PTR _tmp$[ebp]
; File C:\Program Files (x86)\Microsoft Visual Studio\2019\Community\VC\Tools\MSVC\14.29.30133\atlmfc\include\atlsimpstr.h

; 519  : 		return( GetData()->nDataLength );

  00111	8b 40 f4	 mov	 eax, DWORD PTR [eax-12]
; File D:\git\src\IBK\IBK_DRFN\ProjSrc\SrcChartEx\ChartOCX\PacketData\PacketImplementation.cpp

; 512  : 			tmp = tmp.Left(tmp.GetLength() - 1);

  00114	48		 dec	 eax
  00115	50		 push	 eax
  00116	8d 45 08	 lea	 eax, DWORD PTR $T7[ebp]
  00119	50		 push	 eax
  0011a	ff 15 00 00 00
	00		 call	 DWORD PTR __imp_?Left@?$CStringT@DV?$StrTraitMFC_DLL@DV?$ChTraitsCRT@D@ATL@@@@@ATL@@QBE?AV12@H@Z
  00120	50		 push	 eax
  00121	8d 4d f0	 lea	 ecx, DWORD PTR _tmp$[ebp]
  00124	c6 45 fc 03	 mov	 BYTE PTR __$EHRec$[ebp+8], 3
  00128	ff 15 00 00 00
	00		 call	 DWORD PTR __imp_??4?$CStringT@DV?$StrTraitMFC_DLL@DV?$ChTraitsCRT@D@ATL@@@@@ATL@@QAEAAV01@ABV01@@Z
  0012e	8d 4d 08	 lea	 ecx, DWORD PTR $T7[ebp]
  00131	c6 45 fc 00	 mov	 BYTE PTR __$EHRec$[ebp+8], 0
  00135	ff 15 00 00 00
	00		 call	 DWORD PTR __imp_??1?$CStringT@DV?$StrTraitMFC_DLL@DV?$ChTraitsCRT@D@ATL@@@@@ATL@@QAE@XZ
$LN5@GetTypeFor:

; 513  : 
; 514  : 		int nfindp = tmp.Find(".");

  0013b	6a 00		 push	 0
  0013d	68 00 00 00 00	 push	 OFFSET ??_C@_01LFCBOECM@?4@
  00142	8d 4d f0	 lea	 ecx, DWORD PTR _tmp$[ebp]
  00145	ff 15 00 00 00
	00		 call	 DWORD PTR __imp_?Find@?$CStringT@DV?$StrTraitMFC_DLL@DV?$ChTraitsCRT@D@ATL@@@@@ATL@@QBEHPBDH@Z

; 515  : 		if(nfindp >= 0)

  0014b	85 c0		 test	 eax, eax
  0014d	78 1d		 js	 SHORT $LN6@GetTypeFor
; File C:\Program Files (x86)\Microsoft Visual Studio\2019\Community\VC\Tools\MSVC\14.29.30133\atlmfc\include\atlsimpstr.h

; 519  : 		return( GetData()->nDataLength );

  0014f	8b 4d f0	 mov	 ecx, DWORD PTR _tmp$[ebp]
  00152	8b 49 f4	 mov	 ecx, DWORD PTR [ecx-12]
; File D:\git\src\IBK\IBK_DRFN\ProjSrc\SrcChartEx\ChartOCX\PacketData\PacketImplementation.cpp

; 516  : 			tmp = tmp.Right(tmp.GetLength() - nfindp + 1);

  00155	2b c8		 sub	 ecx, eax
  00157	8d 45 08	 lea	 eax, DWORD PTR $T6[ebp]
  0015a	41		 inc	 ecx
  0015b	51		 push	 ecx
  0015c	50		 push	 eax
  0015d	8d 4d f0	 lea	 ecx, DWORD PTR _tmp$[ebp]
  00160	ff 15 00 00 00
	00		 call	 DWORD PTR __imp_?Right@?$CStringT@DV?$StrTraitMFC_DLL@DV?$ChTraitsCRT@D@ATL@@@@@ATL@@QBE?AV12@H@Z
  00166	c6 45 fc 04	 mov	 BYTE PTR __$EHRec$[ebp+8], 4
  0016a	eb 1a		 jmp	 SHORT $LN42@GetTypeFor
$LN6@GetTypeFor:
; File C:\Program Files (x86)\Microsoft Visual Studio\2019\Community\VC\Tools\MSVC\14.29.30133\atlmfc\include\atlsimpstr.h

; 519  : 		return( GetData()->nDataLength );

  0016c	8b 45 f0	 mov	 eax, DWORD PTR _tmp$[ebp]
; File D:\git\src\IBK\IBK_DRFN\ProjSrc\SrcChartEx\ChartOCX\PacketData\PacketImplementation.cpp

; 518  : 			tmp = tmp.Right(tmp.GetLength() - nfind1);

  0016f	8d 4d f0	 lea	 ecx, DWORD PTR _tmp$[ebp]
; File C:\Program Files (x86)\Microsoft Visual Studio\2019\Community\VC\Tools\MSVC\14.29.30133\atlmfc\include\atlsimpstr.h

; 519  : 		return( GetData()->nDataLength );

  00172	8b 40 f4	 mov	 eax, DWORD PTR [eax-12]
; File D:\git\src\IBK\IBK_DRFN\ProjSrc\SrcChartEx\ChartOCX\PacketData\PacketImplementation.cpp

; 518  : 			tmp = tmp.Right(tmp.GetLength() - nfind1);

  00175	2b c6		 sub	 eax, esi
  00177	50		 push	 eax
  00178	8d 45 08	 lea	 eax, DWORD PTR $T5[ebp]
  0017b	50		 push	 eax
  0017c	ff 15 00 00 00
	00		 call	 DWORD PTR __imp_?Right@?$CStringT@DV?$StrTraitMFC_DLL@DV?$ChTraitsCRT@D@ATL@@@@@ATL@@QBE?AV12@H@Z
  00182	c6 45 fc 05	 mov	 BYTE PTR __$EHRec$[ebp+8], 5
$LN42@GetTypeFor:

; 519  : 
; 520  : 		ret = atof(tmp);

  00186	50		 push	 eax
  00187	8d 4d f0	 lea	 ecx, DWORD PTR _tmp$[ebp]
  0018a	ff 15 00 00 00
	00		 call	 DWORD PTR __imp_??4?$CStringT@DV?$StrTraitMFC_DLL@DV?$ChTraitsCRT@D@ATL@@@@@ATL@@QAEAAV01@ABV01@@Z
  00190	8d 4d 08	 lea	 ecx, DWORD PTR $T5[ebp]
  00193	ff 15 00 00 00
	00		 call	 DWORD PTR __imp_??1?$CStringT@DV?$StrTraitMFC_DLL@DV?$ChTraitsCRT@D@ATL@@@@@ATL@@QAE@XZ
  00199	ff 75 f0	 push	 DWORD PTR _tmp$[ebp]
  0019c	ff 15 00 00 00
	00		 call	 DWORD PTR __imp__atof
  001a2	83 c4 04	 add	 esp, 4
  001a5	eb 03		 jmp	 SHORT $LN43@GetTypeFor
$LN39@GetTypeFor:

; 509  : 	if(nfind1 >= 0)	{

  001a7	dd 45 e0	 fld	 QWORD PTR _ret$[ebp]
$LN43@GetTypeFor:

; 521  : 	}
; 522  : 
; 523  : 	return ret;	

  001aa	8d 4d f0	 lea	 ecx, DWORD PTR _tmp$[ebp]
  001ad	dd 5d e0	 fstp	 QWORD PTR _ret$1$[ebp]
  001b0	ff 15 00 00 00
	00		 call	 DWORD PTR __imp_??1?$CStringT@DV?$StrTraitMFC_DLL@DV?$ChTraitsCRT@D@ATL@@@@@ATL@@QAE@XZ
  001b6	dd 45 e0	 fld	 QWORD PTR _ret$1$[ebp]

; 524  : }

  001b9	8b 4d f4	 mov	 ecx, DWORD PTR __$EHRec$[ebp]
  001bc	64 89 0d 00 00
	00 00		 mov	 DWORD PTR fs:0, ecx
  001c3	59		 pop	 ecx
  001c4	5e		 pop	 esi
  001c5	5b		 pop	 ebx
  001c6	8b e5		 mov	 esp, ebp
  001c8	5d		 pop	 ebp
  001c9	c2 04 00	 ret	 4
_TEXT	ENDS
;	COMDAT text$x
text$x	SEGMENT
__unwindfunclet$?GetTypeFormatDouble@CPacketImplementation@@QAEN_N@Z$0:
  00000	8d 4d f0	 lea	 ecx, DWORD PTR _tmp$[ebp]
  00003	ff 25 00 00 00
	00		 jmp	 DWORD PTR __imp_??1?$CStringT@DV?$StrTraitMFC_DLL@DV?$ChTraitsCRT@D@ATL@@@@@ATL@@QAE@XZ
__unwindfunclet$?GetTypeFormatDouble@CPacketImplementation@@QAEN_N@Z$1:
  00009	8b 45 ec	 mov	 eax, DWORD PTR $T4[ebp]
  0000c	83 e0 01	 and	 eax, 1
  0000f	0f 84 0d 00 00
	00		 je	 $LN13@GetTypeFor
  00015	83 65 ec fe	 and	 DWORD PTR $T4[ebp], -2	; fffffffeH
  00019	8d 4d e4	 lea	 ecx, DWORD PTR $T2[ebp]
  0001c	ff 25 00 00 00
	00		 jmp	 DWORD PTR __imp_??1?$CStringT@DV?$StrTraitMFC_DLL@DV?$ChTraitsCRT@D@ATL@@@@@ATL@@QAE@XZ
$LN13@GetTypeFor:
  00022	c3		 ret	 0
__unwindfunclet$?GetTypeFormatDouble@CPacketImplementation@@QAEN_N@Z$2:
  00023	8b 45 ec	 mov	 eax, DWORD PTR $T4[ebp]
  00026	83 e0 02	 and	 eax, 2
  00029	0f 84 0d 00 00
	00		 je	 $LN15@GetTypeFor
  0002f	83 65 ec fd	 and	 DWORD PTR $T4[ebp], -3	; fffffffdH
  00033	8d 4d e8	 lea	 ecx, DWORD PTR $T3[ebp]
  00036	ff 25 00 00 00
	00		 jmp	 DWORD PTR __imp_??1?$CStringT@DV?$StrTraitMFC_DLL@DV?$ChTraitsCRT@D@ATL@@@@@ATL@@QAE@XZ
$LN15@GetTypeFor:
  0003c	c3		 ret	 0
__unwindfunclet$?GetTypeFormatDouble@CPacketImplementation@@QAEN_N@Z$3:
  0003d	8d 4d 08	 lea	 ecx, DWORD PTR $T7[ebp]
  00040	ff 25 00 00 00
	00		 jmp	 DWORD PTR __imp_??1?$CStringT@DV?$StrTraitMFC_DLL@DV?$ChTraitsCRT@D@ATL@@@@@ATL@@QAE@XZ
__unwindfunclet$?GetTypeFormatDouble@CPacketImplementation@@QAEN_N@Z$4:
  00046	8d 4d 08	 lea	 ecx, DWORD PTR $T6[ebp]
  00049	ff 25 00 00 00
	00		 jmp	 DWORD PTR __imp_??1?$CStringT@DV?$StrTraitMFC_DLL@DV?$ChTraitsCRT@D@ATL@@@@@ATL@@QAE@XZ
__unwindfunclet$?GetTypeFormatDouble@CPacketImplementation@@QAEN_N@Z$5:
  0004f	8d 4d 08	 lea	 ecx, DWORD PTR $T5[ebp]
  00052	ff 25 00 00 00
	00		 jmp	 DWORD PTR __imp_??1?$CStringT@DV?$StrTraitMFC_DLL@DV?$ChTraitsCRT@D@ATL@@@@@ATL@@QAE@XZ
  00058	cc		 int	 3
  00059	cc		 int	 3
  0005a	cc		 int	 3
  0005b	cc		 int	 3
  0005c	cc		 int	 3
__ehhandler$?GetTypeFormatDouble@CPacketImplementation@@QAEN_N@Z:
  0005d	90		 npad	 1
  0005e	90		 npad	 1
  0005f	8b 54 24 08	 mov	 edx, DWORD PTR [esp+8]
  00063	8d 42 0c	 lea	 eax, DWORD PTR [edx+12]
  00066	8b 4a e0	 mov	 ecx, DWORD PTR [edx-32]
  00069	33 c8		 xor	 ecx, eax
  0006b	e8 00 00 00 00	 call	 @__security_check_cookie@4
  00070	b8 00 00 00 00	 mov	 eax, OFFSET __ehfuncinfo$?GetTypeFormatDouble@CPacketImplementation@@QAEN_N@Z
  00075	e9 00 00 00 00	 jmp	 ___CxxFrameHandler3
text$x	ENDS
?GetTypeFormatDouble@CPacketImplementation@@QAEN_N@Z ENDP ; CPacketImplementation::GetTypeFormatDouble
; Function compile flags: /Ogtp
; File D:\git\src\IBK\IBK_DRFN\ProjSrc\SrcChartEx\ChartOCX\PacketData\PacketImplementation.cpp
;	COMDAT ?GetType@CPacketImplementation@@QAE?AV?$CStringT@DV?$StrTraitMFC_DLL@DV?$ChTraitsCRT@D@ATL@@@@@ATL@@_N@Z
_TEXT	SEGMENT
___$ReturnUdt$ = 8					; size = 4
_bIsFullType$ = 12					; size = 1
?GetType@CPacketImplementation@@QAE?AV?$CStringT@DV?$StrTraitMFC_DLL@DV?$ChTraitsCRT@D@ATL@@@@@ATL@@_N@Z PROC ; CPacketImplementation::GetType, COMDAT
; _this$ = ecx

; 487  : {

  00000	55		 push	 ebp
  00001	8b ec		 mov	 ebp, esp

; 488  : 	if(bIsFullType)

  00003	80 7d 0c 00	 cmp	 BYTE PTR _bIsFullType$[ebp], 0

; 489  : 		return m_Type;

  00007	8d 41 64	 lea	 eax, DWORD PTR [ecx+100]
  0000a	56		 push	 esi
  0000b	75 03		 jne	 SHORT $LN7@GetType

; 490  : 	else
; 491  : 		return m_ExpressionType;

  0000d	8d 41 68	 lea	 eax, DWORD PTR [ecx+104]
$LN7@GetType:

; 492  : }

  00010	8b 4d 08	 mov	 ecx, DWORD PTR ___$ReturnUdt$[ebp]
  00013	50		 push	 eax
  00014	ff 15 00 00 00
	00		 call	 DWORD PTR __imp_??0?$CStringT@DV?$StrTraitMFC_DLL@DV?$ChTraitsCRT@D@ATL@@@@@ATL@@QAE@ABV01@@Z
  0001a	8b 45 08	 mov	 eax, DWORD PTR ___$ReturnUdt$[ebp]
  0001d	5e		 pop	 esi
  0001e	5d		 pop	 ebp
  0001f	c2 08 00	 ret	 8
?GetType@CPacketImplementation@@QAE?AV?$CStringT@DV?$StrTraitMFC_DLL@DV?$ChTraitsCRT@D@ATL@@@@@ATL@@_N@Z ENDP ; CPacketImplementation::GetType
_TEXT	ENDS
; Function compile flags: /Ogtp
; File D:\git\src\IBK\IBK_DRFN\ProjSrc\SrcChartEx\ChartOCX\PacketData\PacketImplementation.cpp
;	COMDAT ?GetRealDataGap@CPacketImplementation@@QBE_NAAN@Z
_TEXT	SEGMENT
_dDataGap$ = 8						; size = 4
?GetRealDataGap@CPacketImplementation@@QBE_NAAN@Z PROC	; CPacketImplementation::GetRealDataGap, COMDAT
; _this$ = ecx

; 532  : {

  00000	55		 push	 ebp
  00001	8b ec		 mov	 ebp, esp
  00003	56		 push	 esi

; 533  : 	if(!m_realDataGap.IsUsing())

  00004	8d 71 70	 lea	 esi, DWORD PTR [ecx+112]
  00007	8b ce		 mov	 ecx, esi
  00009	e8 00 00 00 00	 call	 ?IsUsing@CItemData@@QBE_NXZ ; CItemData::IsUsing
  0000e	84 c0		 test	 al, al
  00010	75 05		 jne	 SHORT $LN2@GetRealDat
  00012	5e		 pop	 esi

; 538  : }

  00013	5d		 pop	 ebp
  00014	c2 04 00	 ret	 4
$LN2@GetRealDat:

; 534  : 		return false;
; 535  : 
; 536  : 	dDataGap = m_realDataGap.GetData();

  00017	8b ce		 mov	 ecx, esi
  00019	e8 00 00 00 00	 call	 ?GetData@CItemData@@QBENXZ ; CItemData::GetData
  0001e	8b 45 08	 mov	 eax, DWORD PTR _dDataGap$[ebp]
  00021	5e		 pop	 esi
  00022	dd 18		 fstp	 QWORD PTR [eax]

; 537  : 	return true;

  00024	b0 01		 mov	 al, 1

; 538  : }

  00026	5d		 pop	 ebp
  00027	c2 04 00	 ret	 4
?GetRealDataGap@CPacketImplementation@@QBE_NAAN@Z ENDP	; CPacketImplementation::GetRealDataGap
_TEXT	ENDS
; Function compile flags: /Ogtp
; File D:\git\src\IBK\IBK_DRFN\ProjSrc\SrcChartEx\ChartOCX\PacketData\PacketImplementation.cpp
;	COMDAT ?SetRealDataGap@CPacketImplementation@@QAEXABN@Z
_TEXT	SEGMENT
_p_dDataGap$ = 8					; size = 4
?SetRealDataGap@CPacketImplementation@@QAEXABN@Z PROC	; CPacketImplementation::SetRealDataGap, COMDAT
; _this$ = ecx

; 541  : {

  00000	55		 push	 ebp
  00001	8b ec		 mov	 ebp, esp

; 542  : 	m_realDataGap.Set( true, p_dDataGap);

  00003	ff 75 08	 push	 DWORD PTR _p_dDataGap$[ebp]
  00006	83 c1 70	 add	 ecx, 112		; 00000070H
  00009	6a 01		 push	 1
  0000b	e8 00 00 00 00	 call	 ?Set@CItemData@@QAEX_NABN@Z ; CItemData::Set

; 543  : }

  00010	5d		 pop	 ebp
  00011	c2 04 00	 ret	 4
?SetRealDataGap@CPacketImplementation@@QAEXABN@Z ENDP	; CPacketImplementation::SetRealDataGap
_TEXT	ENDS
; Function compile flags: /Ogtp
; File D:\git\src\IBK\IBK_DRFN\ProjSrc\SrcChartEx\ChartOCX\PacketData\PacketImplementation.cpp
;	COMDAT ?GetStartPeriod@CPacketImplementation@@QAEHXZ
_TEXT	SEGMENT
?GetStartPeriod@CPacketImplementation@@QAEHXZ PROC	; CPacketImplementation::GetStartPeriod, COMDAT
; _this$ = ecx

; 528  : 	return m_nStartPeriod ;

  00000	8b 41 24	 mov	 eax, DWORD PTR [ecx+36]

; 529  : }

  00003	c3		 ret	 0
?GetStartPeriod@CPacketImplementation@@QAEHXZ ENDP	; CPacketImplementation::GetStartPeriod
_TEXT	ENDS
; Function compile flags: /Ogtp
; File D:\git\src\IBK\IBK_DRFN\ProjSrc\SrcChartEx\ChartOCX\PacketData\PacketImplementation.cpp
;	COMDAT ?GetStandardValue@CPacketImplementation@@QAENH@Z
_TEXT	SEGMENT
_p_nType$ = 8						; size = 4
?GetStandardValue@CPacketImplementation@@QAENH@Z PROC	; CPacketImplementation::GetStandardValue, COMDAT
; _this$ = ecx

; 597  : {

  00000	55		 push	 ebp
  00001	8b ec		 mov	 ebp, esp
  00003	56		 push	 esi

; 587  : 	switch( p_nType)

  00004	8b 75 08	 mov	 esi, DWORD PTR _p_nType$[ebp]
  00007	8b c6		 mov	 eax, esi

; 597  : {

  00009	57		 push	 edi
  0000a	8b f9		 mov	 edi, ecx

; 587  : 	switch( p_nType)

  0000c	83 e8 00	 sub	 eax, 0
  0000f	74 18		 je	 SHORT $LN12@GetStandar
  00011	83 e8 01	 sub	 eax, 1
  00014	74 0c		 je	 SHORT $LN13@GetStandar
  00016	83 e8 01	 sub	 eax, 1
  00019	75 1f		 jne	 SHORT $LN16@GetStandar

; 591  : 		case 2: return m_lowerBaseValue.IsUsing();

  0001b	b8 50 00 00 00	 mov	 eax, 80			; 00000050H
  00020	eb 0c		 jmp	 SHORT $LN9@GetStandar
$LN13@GetStandar:

; 590  : 		case 1: return m_upperBaseValue.IsUsing();

  00022	b8 40 00 00 00	 mov	 eax, 64			; 00000040H
  00027	eb 05		 jmp	 SHORT $LN9@GetStandar
$LN12@GetStandar:

; 588  : 	{
; 589  : 		case 0:	return m_standardValue.IsUsing();

  00029	b8 30 00 00 00	 mov	 eax, 48			; 00000030H
$LN9@GetStandar:

; 598  : 	if( !IsUseStandardValue( p_nType)) return -HUGE_VAL;

  0002e	8d 0c 07	 lea	 ecx, DWORD PTR [edi+eax]
  00031	e8 00 00 00 00	 call	 ?IsUsing@CItemData@@QBE_NXZ ; CItemData::IsUsing
  00036	84 c0		 test	 al, al
  00038	75 0c		 jne	 SHORT $LN4@GetStandar
$LN16@GetStandar:

; 605  : 	}
; 606  : 	return -HUGE_VAL;
; 607  : }

  0003a	dd 05 00 00 00
	00		 fld	 QWORD PTR __real@fff0000000000000
  00040	5f		 pop	 edi
  00041	5e		 pop	 esi
  00042	5d		 pop	 ebp
  00043	c2 04 00	 ret	 4
$LN4@GetStandar:

; 599  : 
; 600  : 	switch( p_nType)

  00046	83 ee 00	 sub	 esi, 0
  00049	74 26		 je	 SHORT $LN5@GetStandar
  0004b	83 ee 01	 sub	 esi, 1
  0004e	74 13		 je	 SHORT $LN6@GetStandar
  00050	83 ee 01	 sub	 esi, 1
  00053	75 e5		 jne	 SHORT $LN16@GetStandar

; 604  : 		case 2: return m_lowerBaseValue.GetData();

  00055	8d 4f 50	 lea	 ecx, DWORD PTR [edi+80]

; 605  : 	}
; 606  : 	return -HUGE_VAL;
; 607  : }

  00058	e8 00 00 00 00	 call	 ?GetData@CItemData@@QBENXZ ; CItemData::GetData
  0005d	5f		 pop	 edi
  0005e	5e		 pop	 esi
  0005f	5d		 pop	 ebp
  00060	c2 04 00	 ret	 4
$LN6@GetStandar:

; 603  : 		case 1: return m_upperBaseValue.GetData();

  00063	8d 4f 40	 lea	 ecx, DWORD PTR [edi+64]

; 605  : 	}
; 606  : 	return -HUGE_VAL;
; 607  : }

  00066	e8 00 00 00 00	 call	 ?GetData@CItemData@@QBENXZ ; CItemData::GetData
  0006b	5f		 pop	 edi
  0006c	5e		 pop	 esi
  0006d	5d		 pop	 ebp
  0006e	c2 04 00	 ret	 4
$LN5@GetStandar:

; 601  : 	{
; 602  : 		case 0:	return m_standardValue.GetData();

  00071	8d 4f 30	 lea	 ecx, DWORD PTR [edi+48]

; 605  : 	}
; 606  : 	return -HUGE_VAL;
; 607  : }

  00074	e8 00 00 00 00	 call	 ?GetData@CItemData@@QBENXZ ; CItemData::GetData
  00079	5f		 pop	 edi
  0007a	5e		 pop	 esi
  0007b	5d		 pop	 ebp
  0007c	c2 04 00	 ret	 4
?GetStandardValue@CPacketImplementation@@QAENH@Z ENDP	; CPacketImplementation::GetStandardValue
_TEXT	ENDS
; Function compile flags: /Ogtp
; File D:\git\src\IBK\IBK_DRFN\ProjSrc\SrcChartEx\ChartOCX\PacketData\PacketImplementation.cpp
;	COMDAT ?IsUseStandardValue@CPacketImplementation@@QBE_NH@Z
_TEXT	SEGMENT
_p_nType$ = 8						; size = 4
?IsUseStandardValue@CPacketImplementation@@QBE_NH@Z PROC ; CPacketImplementation::IsUseStandardValue, COMDAT
; _this$ = ecx

; 586  : {

  00000	55		 push	 ebp
  00001	8b ec		 mov	 ebp, esp

; 587  : 	switch( p_nType)

  00003	8b 45 08	 mov	 eax, DWORD PTR _p_nType$[ebp]
  00006	83 e8 00	 sub	 eax, 0
  00009	74 28		 je	 SHORT $LN4@IsUseStand
  0000b	83 e8 01	 sub	 eax, 1
  0000e	74 17		 je	 SHORT $LN5@IsUseStand
  00010	83 e8 01	 sub	 eax, 1
  00013	74 06		 je	 SHORT $LN6@IsUseStand

; 592  : 	}
; 593  : 	return false;

  00015	32 c0		 xor	 al, al

; 594  : }

  00017	5d		 pop	 ebp
  00018	c2 04 00	 ret	 4
$LN6@IsUseStand:

; 591  : 		case 2: return m_lowerBaseValue.IsUsing();

  0001b	83 c1 50	 add	 ecx, 80			; 00000050H

; 594  : }

  0001e	e8 00 00 00 00	 call	 ?IsUsing@CItemData@@QBE_NXZ ; CItemData::IsUsing
  00023	5d		 pop	 ebp
  00024	c2 04 00	 ret	 4
$LN5@IsUseStand:

; 590  : 		case 1: return m_upperBaseValue.IsUsing();

  00027	83 c1 40	 add	 ecx, 64			; 00000040H

; 594  : }

  0002a	e8 00 00 00 00	 call	 ?IsUsing@CItemData@@QBE_NXZ ; CItemData::IsUsing
  0002f	5d		 pop	 ebp
  00030	c2 04 00	 ret	 4
$LN4@IsUseStand:

; 588  : 	{
; 589  : 		case 0:	return m_standardValue.IsUsing();

  00033	83 c1 30	 add	 ecx, 48			; 00000030H

; 594  : }

  00036	e8 00 00 00 00	 call	 ?IsUsing@CItemData@@QBE_NXZ ; CItemData::IsUsing
  0003b	5d		 pop	 ebp
  0003c	c2 04 00	 ret	 4
?IsUseStandardValue@CPacketImplementation@@QBE_NH@Z ENDP ; CPacketImplementation::IsUseStandardValue
_TEXT	ENDS
; Function compile flags: /Ogtp
; File D:\git\src\IBK\IBK_DRFN\ProjSrc\SrcChartEx\ChartOCX\PacketData\PacketImplementation.cpp
;	COMDAT ?GetUseReal@CPacketImplementation@@QAE_NXZ
_TEXT	SEGMENT
?GetUseReal@CPacketImplementation@@QAE_NXZ PROC		; CPacketImplementation::GetUseReal, COMDAT
; _this$ = ecx

; 632  : 	return m_bUseReal;	

  00000	8a 41 60	 mov	 al, BYTE PTR [ecx+96]

; 633  : }

  00003	c3		 ret	 0
?GetUseReal@CPacketImplementation@@QAE_NXZ ENDP		; CPacketImplementation::GetUseReal
_TEXT	ENDS
; Function compile flags: /Ogtp
; File D:\git\src\IBK\IBK_DRFN\ProjSrc\SrcChartEx\ChartOCX\PacketData\PacketImplementation.cpp
;	COMDAT ?GetRealFieldName@CPacketImplementation@@QAE?AV?$CStringT@DV?$StrTraitMFC_DLL@DV?$ChTraitsCRT@D@ATL@@@@@ATL@@XZ
_TEXT	SEGMENT
___$ReturnUdt$ = 8					; size = 4
?GetRealFieldName@CPacketImplementation@@QAE?AV?$CStringT@DV?$StrTraitMFC_DLL@DV?$ChTraitsCRT@D@ATL@@@@@ATL@@XZ PROC ; CPacketImplementation::GetRealFieldName, COMDAT
; _this$ = ecx

; 636  : {

  00000	55		 push	 ebp
  00001	8b ec		 mov	 ebp, esp

; 637  : 	return m_RealFieldName;

  00003	8d 81 8c 00 00
	00		 lea	 eax, DWORD PTR [ecx+140]
  00009	8b 4d 08	 mov	 ecx, DWORD PTR ___$ReturnUdt$[ebp]
  0000c	50		 push	 eax
  0000d	ff 15 00 00 00
	00		 call	 DWORD PTR __imp_??0?$CStringT@DV?$StrTraitMFC_DLL@DV?$ChTraitsCRT@D@ATL@@@@@ATL@@QAE@ABV01@@Z
  00013	8b 45 08	 mov	 eax, DWORD PTR ___$ReturnUdt$[ebp]

; 638  : }

  00016	5d		 pop	 ebp
  00017	c2 04 00	 ret	 4
?GetRealFieldName@CPacketImplementation@@QAE?AV?$CStringT@DV?$StrTraitMFC_DLL@DV?$ChTraitsCRT@D@ATL@@@@@ATL@@XZ ENDP ; CPacketImplementation::GetRealFieldName
_TEXT	ENDS
; Function compile flags: /Ogtp
; File D:\git\src\IBK\IBK_DRFN\ProjSrc\SrcChartEx\ChartOCX\PacketData\PacketImplementation.cpp
;	COMDAT ?GetRealKeyName@CPacketImplementation@@QAE?AV?$CStringT@DV?$StrTraitMFC_DLL@DV?$ChTraitsCRT@D@ATL@@@@@ATL@@XZ
_TEXT	SEGMENT
___$ReturnUdt$ = 8					; size = 4
?GetRealKeyName@CPacketImplementation@@QAE?AV?$CStringT@DV?$StrTraitMFC_DLL@DV?$ChTraitsCRT@D@ATL@@@@@ATL@@XZ PROC ; CPacketImplementation::GetRealKeyName, COMDAT
; _this$ = ecx

; 641  : {

  00000	55		 push	 ebp
  00001	8b ec		 mov	 ebp, esp

; 642  : 	return m_RealKeyName;

  00003	8d 81 90 00 00
	00		 lea	 eax, DWORD PTR [ecx+144]
  00009	8b 4d 08	 mov	 ecx, DWORD PTR ___$ReturnUdt$[ebp]
  0000c	50		 push	 eax
  0000d	ff 15 00 00 00
	00		 call	 DWORD PTR __imp_??0?$CStringT@DV?$StrTraitMFC_DLL@DV?$ChTraitsCRT@D@ATL@@@@@ATL@@QAE@ABV01@@Z
  00013	8b 45 08	 mov	 eax, DWORD PTR ___$ReturnUdt$[ebp]

; 643  : }

  00016	5d		 pop	 ebp
  00017	c2 04 00	 ret	 4
?GetRealKeyName@CPacketImplementation@@QAE?AV?$CStringT@DV?$StrTraitMFC_DLL@DV?$ChTraitsCRT@D@ATL@@@@@ATL@@XZ ENDP ; CPacketImplementation::GetRealKeyName
_TEXT	ENDS
; Function compile flags: /Ogtp
; File D:\git\src\IBK\IBK_DRFN\ProjSrc\SrcChartEx\ChartOCX\PacketData\PacketImplementation.cpp
;	COMDAT ?GetDateUnitType@CPacketImplementation@@QAEHXZ
_TEXT	SEGMENT
?GetDateUnitType@CPacketImplementation@@QAEHXZ PROC	; CPacketImplementation::GetDateUnitType, COMDAT
; _this$ = ecx

; 800  : 	if(m_pParentList)

  00000	8b 89 cc 00 00
	00		 mov	 ecx, DWORD PTR [ecx+204]
  00006	85 c9		 test	 ecx, ecx
  00008	0f 85 00 00 00
	00		 jne	 ?GetDateUnitType@CPacketList@@QAE?AW4HORZSCALEDRAWERTYPE@CScaleBaseData@@XZ ; CPacketList::GetDateUnitType

; 801  : 		return m_pParentList->GetDateUnitType();
; 802  : 	else
; 803  : 		return -1;

  0000e	83 c8 ff	 or	 eax, -1

; 804  : }

  00011	c3		 ret	 0
?GetDateUnitType@CPacketImplementation@@QAEHXZ ENDP	; CPacketImplementation::GetDateUnitType
_TEXT	ENDS
; Function compile flags: /Ogtp
; File D:\git\src\IBK\IBK_DRFN\ProjSrc\SrcChartEx\ChartOCX\PacketData\PacketImplementation.cpp
;	COMDAT ?GetTimeInterval@CPacketImplementation@@QAEHXZ
_TEXT	SEGMENT
?GetTimeInterval@CPacketImplementation@@QAEHXZ PROC	; CPacketImplementation::GetTimeInterval, COMDAT
; _this$ = ecx

; 808  : 	if(m_pParentList)

  00000	8b 89 cc 00 00
	00		 mov	 ecx, DWORD PTR [ecx+204]
  00006	85 c9		 test	 ecx, ecx
  00008	0f 85 00 00 00
	00		 jne	 ?GetTimeInterval@CPacketList@@QAEHXZ ; CPacketList::GetTimeInterval

; 809  : 		return m_pParentList->GetTimeInterval();
; 810  : 	else
; 811  : 		return -1;

  0000e	83 c8 ff	 or	 eax, -1

; 812  : }

  00011	c3		 ret	 0
?GetTimeInterval@CPacketImplementation@@QAEHXZ ENDP	; CPacketImplementation::GetTimeInterval
_TEXT	ENDS
; Function compile flags: /Ogtp
; File D:\git\src\IBK\IBK_DRFN\ProjSrc\SrcChartEx\ChartOCX\PacketData\PacketImplementation.cpp
;	COMDAT ?GetDataPastandFuture@CPacketImplementation@@QAE_NHAAN@Z
_TEXT	SEGMENT
tv81 = -8						; size = 8
_nIndex$ = 8						; size = 4
_dData$ = 12						; size = 4
?GetDataPastandFuture@CPacketImplementation@@QAE_NHAAN@Z PROC ; CPacketImplementation::GetDataPastandFuture, COMDAT
; _this$ = ecx

; 846  : {

  00000	55		 push	 ebp
  00001	8b ec		 mov	 ebp, esp
  00003	83 ec 08	 sub	 esp, 8
  00006	56		 push	 esi
  00007	8b f1		 mov	 esi, ecx

; 847  : 	if(m_lnData.GetCount() <= 0)

  00009	83 be a0 00 00
	00 00		 cmp	 DWORD PTR [esi+160], 0
  00010	7f 09		 jg	 SHORT $LN2@GetDataPas
$LN8@GetDataPas:

; 856  : }

  00012	32 c0		 xor	 al, al
  00014	5e		 pop	 esi
  00015	8b e5		 mov	 esp, ebp
  00017	5d		 pop	 ebp
  00018	c2 08 00	 ret	 8
$LN2@GetDataPas:

; 848  : 		return false;
; 849  : 
; 850  : 	// <>  
; 851  : 	if(m_Name.Find( _MTEXT( C0_DATE_TIME)) < 0)

  0001b	a1 54 00 00 00	 mov	 eax, DWORD PTR ?g_iMetaTable@@3VIMetaTable@@A+84
  00020	8d 8e 88 00 00
	00		 lea	 ecx, DWORD PTR [esi+136]
  00026	6a 00		 push	 0
  00028	ff 30		 push	 DWORD PTR [eax]
  0002a	ff 15 00 00 00
	00		 call	 DWORD PTR __imp_?Find@?$CStringT@DV?$StrTraitMFC_DLL@DV?$ChTraitsCRT@D@ATL@@@@@ATL@@QBEHPBDH@Z
  00030	8b ce		 mov	 ecx, esi
  00032	ff 75 08	 push	 DWORD PTR _nIndex$[ebp]
  00035	85 c0		 test	 eax, eax
  00037	79 1e		 jns	 SHORT $LN3@GetDataPas

; 816  : 	POSITION pos = FindPosition(nIndex);

  00039	e8 00 00 00 00	 call	 ?FindPosition@CPacketImplementation@@ABEPAU__POSITION@@H@Z ; CPacketImplementation::FindPosition

; 817  : 	if(pos == NULL)

  0003e	85 c0		 test	 eax, eax
  00040	74 d0		 je	 SHORT $LN8@GetDataPas

; 818  : 		return false;
; 819  : 
; 820  : 	dData = m_lnData.GetAt(pos);

  00042	f2 0f 10 40 08	 movsd	 xmm0, QWORD PTR [eax+8]
  00047	8b 45 0c	 mov	 eax, DWORD PTR _dData$[ebp]
  0004a	5e		 pop	 esi
  0004b	f2 0f 11 00	 movsd	 QWORD PTR [eax], xmm0

; 821  : 	return true;

  0004f	b0 01		 mov	 al, 1

; 856  : }

  00051	8b e5		 mov	 esp, ebp
  00053	5d		 pop	 ebp
  00054	c2 08 00	 ret	 8
$LN3@GetDataPas:

; 852  : 		return GetData(nIndex, dData);
; 853  : 
; 854  : 	dData = GetDataPastandFuture(nIndex);

  00057	e8 00 00 00 00	 call	 ?GetDataPastandFuture@CPacketImplementation@@QAENH@Z ; CPacketImplementation::GetDataPastandFuture
  0005c	8b 45 0c	 mov	 eax, DWORD PTR _dData$[ebp]
  0005f	dd 5d f8	 fstp	 QWORD PTR tv81[ebp]
  00062	f2 0f 10 45 f8	 movsd	 xmm0, QWORD PTR tv81[ebp]

; 855  : 	return (dData > 0);

  00067	66 0f 2f 05 00
	00 00 00	 comisd	 xmm0, QWORD PTR __real@0000000000000000
  0006f	5e		 pop	 esi
  00070	f2 0f 11 00	 movsd	 QWORD PTR [eax], xmm0
  00074	0f 97 c0	 seta	 al

; 856  : }

  00077	8b e5		 mov	 esp, ebp
  00079	5d		 pop	 ebp
  0007a	c2 08 00	 ret	 8
?GetDataPastandFuture@CPacketImplementation@@QAE_NHAAN@Z ENDP ; CPacketImplementation::GetDataPastandFuture
_TEXT	ENDS
; Function compile flags: /Ogtp
; File D:\git\src\IBK\IBK_DRFN\ProjSrc\SrcChartEx\ChartOCX\PacketData\PacketImplementation.cpp
; File C:\Program Files (x86)\Microsoft Visual Studio\2019\Community\VC\Tools\MSVC\14.29.30133\atlmfc\include\atlsimpstr.h
; File D:\git\src\IBK\IBK_DRFN\ProjSrc\SrcChartEx\ChartOCX\PacketData\PacketImplementation.cpp
; File C:\Program Files (x86)\Microsoft Visual Studio\2019\Community\VC\Tools\MSVC\14.29.30133\atlmfc\include\afxtempl.h
; File D:\git\src\IBK\IBK_DRFN\ProjSrc\SrcChartEx\ChartOCX\PacketData\PacketImplementation.cpp
; File C:\Program Files (x86)\Microsoft Visual Studio\2019\Community\VC\Tools\MSVC\14.29.30133\atlmfc\include\afxtempl.h
; File D:\git\src\IBK\IBK_DRFN\ProjSrc\SrcChartEx\ChartOCX\PacketData\PacketImplementation.cpp
; File C:\Program Files (x86)\Microsoft Visual Studio\2019\Community\VC\Tools\MSVC\14.29.30133\atlmfc\include\afxtempl.h
; File D:\git\src\IBK\IBK_DRFN\ProjSrc\SrcChartEx\ChartOCX\PacketData\PacketImplementation.cpp
; File C:\Program Files (x86)\Microsoft Visual Studio\2019\Community\VC\Tools\MSVC\14.29.30133\atlmfc\include\cstringt.h
; File D:\git\src\IBK\IBK_DRFN\ProjSrc\SrcChartEx\ChartOCX\PacketData\PacketImplementation.cpp
; File C:\Program Files (x86)\Microsoft Visual Studio\2019\Community\VC\Tools\MSVC\14.29.30133\atlmfc\include\cstringt.h
; File D:\git\src\IBK\IBK_DRFN\ProjSrc\SrcChartEx\ChartOCX\PacketData\PacketImplementation.cpp
; File C:\Program Files (x86)\Microsoft Visual Studio\2019\Community\VC\Tools\MSVC\14.29.30133\atlmfc\include\cstringt.h
; File D:\git\src\IBK\IBK_DRFN\ProjSrc\SrcChartEx\ChartOCX\PacketData\PacketImplementation.cpp
; File C:\Program Files (x86)\Microsoft Visual Studio\2019\Community\VC\Tools\MSVC\14.29.30133\atlmfc\include\afxtempl.h
; File D:\git\src\IBK\IBK_DRFN\ProjSrc\SrcChartEx\ChartOCX\PacketData\PacketImplementation.cpp
; File C:\Program Files (x86)\Microsoft Visual Studio\2019\Community\VC\Tools\MSVC\14.29.30133\atlmfc\include\afxtempl.h
; File D:\git\src\IBK\IBK_DRFN\ProjSrc\SrcChartEx\ChartOCX\PacketData\PacketImplementation.cpp
; File C:\Program Files (x86)\Microsoft Visual Studio\2019\Community\VC\Tools\MSVC\14.29.30133\atlmfc\include\afxtempl.h
; File D:\git\src\IBK\IBK_DRFN\ProjSrc\SrcChartEx\ChartOCX\PacketData\PacketImplementation.cpp
; File C:\Program Files (x86)\Microsoft Visual Studio\2019\Community\VC\Tools\MSVC\14.29.30133\atlmfc\include\afxtempl.h
; File D:\git\src\IBK\IBK_DRFN\ProjSrc\SrcChartEx\ChartOCX\PacketData\PacketImplementation.cpp
;	COMDAT ?GetDataPastandFuture@CPacketImplementation@@QAENH@Z
_TEXT	SEGMENT
tv748 = -40						; size = 8
tv736 = -40						; size = 8
tv609 = -40						; size = 8
tv603 = -40						; size = 8
tv594 = -40						; size = 8
tv583 = -40						; size = 8
tv575 = -40						; size = 8
tv552 = -40						; size = 8
tv551 = -40						; size = 8
tv550 = -40						; size = 8
tv528 = -40						; size = 8
_nYear$1$ = -36						; size = 4
_this$1$ = -32						; size = 4
_nBaseData$2 = -28					; size = 8
$T3 = -24						; size = 4
_nSec$1$ = -20						; size = 4
_nSec$2$ = -16						; size = 4
__$EHRec$ = -12						; size = 12
tv749 = 8						; size = 4
tv737 = 8						; size = 4
tv604 = 8						; size = 4
tv595 = 8						; size = 4
tv584 = 8						; size = 4
tv576 = 8						; size = 4
_nIndex$ = 8						; size = 4
?GetDataPastandFuture@CPacketImplementation@@QAENH@Z PROC ; CPacketImplementation::GetDataPastandFuture, COMDAT
; _this$ = ecx

; 861  : {

  00000	55		 push	 ebp
  00001	8b ec		 mov	 ebp, esp
  00003	6a ff		 push	 -1
  00005	68 00 00 00 00	 push	 __ehhandler$?GetDataPastandFuture@CPacketImplementation@@QAENH@Z
  0000a	64 a1 00 00 00
	00		 mov	 eax, DWORD PTR fs:0
  00010	50		 push	 eax
  00011	83 ec 1c	 sub	 esp, 28			; 0000001cH
  00014	53		 push	 ebx
  00015	56		 push	 esi
  00016	57		 push	 edi
  00017	a1 00 00 00 00	 mov	 eax, DWORD PTR ___security_cookie
  0001c	33 c5		 xor	 eax, ebp
  0001e	50		 push	 eax
  0001f	8d 45 f4	 lea	 eax, DWORD PTR __$EHRec$[ebp]
  00022	64 a3 00 00 00
	00		 mov	 DWORD PTR fs:0, eax
  00028	8b d9		 mov	 ebx, ecx
  0002a	89 5d e0	 mov	 DWORD PTR _this$1$[ebp], ebx

; 862  : 	if(m_Type.Find("1") >= 0 || m_Type.Find( _MTEXT( C6_CHARACTER)) >= 0 || m_Type.GetLength() == 0)

  0002d	6a 00		 push	 0
  0002f	8d 7b 64	 lea	 edi, DWORD PTR [ebx+100]
  00032	68 00 00 00 00	 push	 OFFSET ??_C@_01HIHLOKLC@1@
  00037	8b cf		 mov	 ecx, edi
  00039	ff 15 00 00 00
	00		 call	 DWORD PTR __imp_?Find@?$CStringT@DV?$StrTraitMFC_DLL@DV?$ChTraitsCRT@D@ATL@@@@@ATL@@QBEHPBDH@Z
  0003f	85 c0		 test	 eax, eax
  00041	0f 89 54 04 00
	00		 jns	 $LN3@GetDataPas
  00047	a1 54 00 00 00	 mov	 eax, DWORD PTR ?g_iMetaTable@@3VIMetaTable@@A+84
  0004c	8b cf		 mov	 ecx, edi
  0004e	6a 00		 push	 0
  00050	ff b0 60 09 00
	00		 push	 DWORD PTR [eax+2400]
  00056	ff 15 00 00 00
	00		 call	 DWORD PTR __imp_?Find@?$CStringT@DV?$StrTraitMFC_DLL@DV?$ChTraitsCRT@D@ATL@@@@@ATL@@QBEHPBDH@Z
  0005c	85 c0		 test	 eax, eax
  0005e	0f 89 37 04 00
	00		 jns	 $LN3@GetDataPas
; File C:\Program Files (x86)\Microsoft Visual Studio\2019\Community\VC\Tools\MSVC\14.29.30133\atlmfc\include\atlsimpstr.h

; 519  : 		return( GetData()->nDataLength );

  00064	8b 07		 mov	 eax, DWORD PTR [edi]
; File D:\git\src\IBK\IBK_DRFN\ProjSrc\SrcChartEx\ChartOCX\PacketData\PacketImplementation.cpp

; 862  : 	if(m_Type.Find("1") >= 0 || m_Type.Find( _MTEXT( C6_CHARACTER)) >= 0 || m_Type.GetLength() == 0)

  00066	83 78 f4 00	 cmp	 DWORD PTR [eax-12], 0
  0006a	0f 84 2b 04 00
	00		 je	 $LN3@GetDataPas

; 864  : 	if(m_lnData.GetCount() <= 0) return 0;

  00070	8b 83 a0 00 00
	00		 mov	 eax, DWORD PTR [ebx+160]
  00076	85 c0		 test	 eax, eax
  00078	0f 8e 1d 04 00
	00		 jle	 $LN3@GetDataPas

; 865  : 
; 866  : 	if(nIndex >= 0 && nIndex < m_lnData.GetCount())

  0007e	8b 75 08	 mov	 esi, DWORD PTR _nIndex$[ebp]
  00081	85 f6		 test	 esi, esi
  00083	0f 88 cd 02 00
	00		 js	 $LN6@GetDataPas
  00089	3b f0		 cmp	 esi, eax
  0008b	7d 1c		 jge	 SHORT $LN74@GetDataPas

; 867  : 		//return (int)GetData(nIndex);	
; 868  : 		return GetData(nIndex);			// 2011.01.06 by SYS >>  YYYY()  <<

  0008d	56		 push	 esi
  0008e	8b cb		 mov	 ecx, ebx
  00090	e8 00 00 00 00	 call	 ?GetData@CPacketImplementation@@QAENH@Z ; CPacketImplementation::GetData

; 961  : }

  00095	8b 4d f4	 mov	 ecx, DWORD PTR __$EHRec$[ebp]
  00098	64 89 0d 00 00
	00 00		 mov	 DWORD PTR fs:0, ecx
  0009f	59		 pop	 ecx
  000a0	5f		 pop	 edi
  000a1	5e		 pop	 esi
  000a2	5b		 pop	 ebx
  000a3	8b e5		 mov	 esp, ebp
  000a5	5d		 pop	 ebp
  000a6	c2 04 00	 ret	 4
$LN74@GetDataPas:

; 869  : 
; 870  : 	if(nIndex >= m_lnData.GetCount())
; 871  : 	{
; 872  : 		if(m_pParentList->GetDateUnitType() == CScaleBaseData::HORZ_TIME_TWO ||

  000a9	8b 8b cc 00 00
	00		 mov	 ecx, DWORD PTR [ebx+204]
  000af	e8 00 00 00 00	 call	 ?GetDateUnitType@CPacketList@@QAE?AW4HORZSCALEDRAWERTYPE@CScaleBaseData@@XZ ; CPacketList::GetDateUnitType
  000b4	83 f8 06	 cmp	 eax, 6
  000b7	0f 84 0f 01 00
	00		 je	 $LN10@GetDataPas
  000bd	8b 8b cc 00 00
	00		 mov	 ecx, DWORD PTR [ebx+204]
  000c3	e8 00 00 00 00	 call	 ?GetDateUnitType@CPacketList@@QAE?AW4HORZSCALEDRAWERTYPE@CScaleBaseData@@XZ ; CPacketList::GetDateUnitType
  000c8	83 f8 04	 cmp	 eax, 4
  000cb	0f 84 fb 00 00
	00		 je	 $LN10@GetDataPas

; 921  : 					nBaseIndex, m_Type, GetTimeInterval(), true);
; 922  : 			}
; 923  : 
; 924  : 			// 2011.01.06 by SYS <<
; 925  : 		}
; 926  : 		else if(m_pParentList->GetDateUnitType() == CScaleBaseData::HORZ_TICK)

  000d1	8b 8b cc 00 00
	00		 mov	 ecx, DWORD PTR [ebx+204]
  000d7	e8 00 00 00 00	 call	 ?GetDateUnitType@CPacketList@@QAE?AW4HORZSCALEDRAWERTYPE@CScaleBaseData@@XZ ; CPacketList::GetDateUnitType
  000dc	83 f8 05	 cmp	 eax, 5
  000df	75 65		 jne	 SHORT $LN14@GetDataPas

; 927  : 		{
; 928  : 			//sy  
; 929  : 			//nami 12.6
; 930  : 			int nDateIndex = nIndex - m_lnData.GetCount() + 1;

  000e1	2b b3 a0 00 00
	00		 sub	 esi, DWORD PTR [ebx+160]
  000e7	46		 inc	 esi

; 931  : 			//100    .    .
; 932  : 			if(nDateIndex >= 100)

  000e8	83 fe 64	 cmp	 esi, 100		; 00000064H
  000eb	7c 19		 jl	 SHORT $LN16@GetDataPas

; 933  : 			{
; 934  : 				int nBunmo = (nDateIndex / 60) * 100;

  000ed	b8 89 88 88 88	 mov	 eax, -2004318071	; 88888889H
  000f2	f7 ee		 imul	 esi
  000f4	03 d6		 add	 edx, esi
  000f6	c1 fa 05	 sar	 edx, 5
  000f9	8b c2		 mov	 eax, edx
  000fb	c1 e8 1f	 shr	 eax, 31			; 0000001fH
  000fe	03 c2		 add	 eax, edx

; 935  : 				int nBunja = nDateIndex % 60;

  00100	8d 04 80	 lea	 eax, DWORD PTR [eax+eax*4]

; 936  : 				nDateIndex = nBunmo + nBunja;

  00103	8d 34 c6	 lea	 esi, DWORD PTR [esi+eax*8]
$LN16@GetDataPas:
; File C:\Program Files (x86)\Microsoft Visual Studio\2019\Community\VC\Tools\MSVC\14.29.30133\atlmfc\include\afxtempl.h

; 797  : 	{ ENSURE(m_pNodeTail != NULL);

  00106	8b 83 9c 00 00
	00		 mov	 eax, DWORD PTR [ebx+156]
  0010c	85 c0		 test	 eax, eax
  0010e	0f 84 9d 03 00
	00		 je	 $LN75@GetDataPas
; File D:\git\src\IBK\IBK_DRFN\ProjSrc\SrcChartEx\ChartOCX\PacketData\PacketImplementation.cpp

; 938  : 			return CDataConversion::CalcTimeFormat((int)m_lnData.GetTail(), nDateIndex, m_Type, true);

  00114	f2 0f 2c 40 08	 cvttsd2si eax, QWORD PTR [eax+8]
  00119	6a 01		 push	 1
  0011b	57		 push	 edi
  0011c	56		 push	 esi
  0011d	50		 push	 eax
  0011e	e8 00 00 00 00	 call	 ?CalcTimeFormat@CDataConversion@@SAHHHABV?$CStringT@DV?$StrTraitMFC_DLL@DV?$ChTraitsCRT@D@ATL@@@@@ATL@@_N@Z ; CDataConversion::CalcTimeFormat
  00123	89 45 08	 mov	 DWORD PTR tv749[ebp], eax
  00126	83 c4 10	 add	 esp, 16			; 00000010H
  00129	db 45 08	 fild	 DWORD PTR tv749[ebp]
  0012c	dd 5d d8	 fstp	 QWORD PTR tv748[ebp]
  0012f	dd 45 d8	 fld	 QWORD PTR tv748[ebp]

; 961  : }

  00132	8b 4d f4	 mov	 ecx, DWORD PTR __$EHRec$[ebp]
  00135	64 89 0d 00 00
	00 00		 mov	 DWORD PTR fs:0, ecx
  0013c	59		 pop	 ecx
  0013d	5f		 pop	 edi
  0013e	5e		 pop	 esi
  0013f	5b		 pop	 ebx
  00140	8b e5		 mov	 esp, ebp
  00142	5d		 pop	 ebp
  00143	c2 04 00	 ret	 4
$LN14@GetDataPas:

; 939  : 		}
; 940  : 		else if(m_pParentList->GetDateUnitType() == CScaleBaseData::HORZ_TEXT 
; 941  : 			 || m_pParentList->GetDateUnitType() == CScaleBaseData::HORZ_NOTYPE)

  00146	8b 8b cc 00 00
	00		 mov	 ecx, DWORD PTR [ebx+204]
  0014c	e8 00 00 00 00	 call	 ?GetDateUnitType@CPacketList@@QAE?AW4HORZSCALEDRAWERTYPE@CScaleBaseData@@XZ ; CPacketList::GetDateUnitType
  00151	83 f8 07	 cmp	 eax, 7
  00154	0f 84 41 03 00
	00		 je	 $LN3@GetDataPas
  0015a	8b 8b cc 00 00
	00		 mov	 ecx, DWORD PTR [ebx+204]
  00160	e8 00 00 00 00	 call	 ?GetDateUnitType@CPacketList@@QAE?AW4HORZSCALEDRAWERTYPE@CScaleBaseData@@XZ ; CPacketList::GetDateUnitType
  00165	85 c0		 test	 eax, eax
  00167	0f 84 2e 03 00
	00		 je	 $LN3@GetDataPas
; File C:\Program Files (x86)\Microsoft Visual Studio\2019\Community\VC\Tools\MSVC\14.29.30133\atlmfc\include\afxtempl.h

; 797  : 	{ ENSURE(m_pNodeTail != NULL);

  0016d	8b 83 9c 00 00
	00		 mov	 eax, DWORD PTR [ebx+156]
  00173	85 c0		 test	 eax, eax
  00175	0f 84 36 03 00
	00		 je	 $LN75@GetDataPas
; File D:\git\src\IBK\IBK_DRFN\ProjSrc\SrcChartEx\ChartOCX\PacketData\PacketImplementation.cpp

; 944  : 			return CDataConversion::CalcDateFormat((int)m_lnData.GetTail(), (nIndex - m_lnData.GetCount() + 1), m_Type, GetDateUnitType(), GetTimeInterval());

  0017b	f2 0f 10 40 08	 movsd	 xmm0, QWORD PTR [eax+8]
  00180	8b cb		 mov	 ecx, ebx
  00182	f2 0f 11 45 d8	 movsd	 QWORD PTR tv550[ebp], xmm0
  00187	e8 00 00 00 00	 call	 ?GetTimeInterval@CPacketImplementation@@QAEHXZ ; CPacketImplementation::GetTimeInterval
  0018c	50		 push	 eax
  0018d	8b cb		 mov	 ecx, ebx
  0018f	e8 00 00 00 00	 call	 ?GetDateUnitType@CPacketImplementation@@QAEHXZ ; CPacketImplementation::GetDateUnitType
  00194	2b b3 a0 00 00
	00		 sub	 esi, DWORD PTR [ebx+160]
  0019a	50		 push	 eax
  0019b	f2 0f 2c 45 d8	 cvttsd2si eax, QWORD PTR tv550[ebp]
  001a0	57		 push	 edi
  001a1	46		 inc	 esi
  001a2	56		 push	 esi
  001a3	50		 push	 eax
  001a4	e8 00 00 00 00	 call	 ?CalcDateFormat@CDataConversion@@SAHHHABV?$CStringT@DV?$StrTraitMFC_DLL@DV?$ChTraitsCRT@D@ATL@@@@@ATL@@HH@Z ; CDataConversion::CalcDateFormat
  001a9	89 45 08	 mov	 DWORD PTR tv737[ebp], eax
  001ac	83 c4 14	 add	 esp, 20			; 00000014H
  001af	db 45 08	 fild	 DWORD PTR tv737[ebp]
  001b2	dd 5d d8	 fstp	 QWORD PTR tv736[ebp]
  001b5	dd 45 d8	 fld	 QWORD PTR tv736[ebp]

; 961  : }

  001b8	8b 4d f4	 mov	 ecx, DWORD PTR __$EHRec$[ebp]
  001bb	64 89 0d 00 00
	00 00		 mov	 DWORD PTR fs:0, ecx
  001c2	59		 pop	 ecx
  001c3	5f		 pop	 edi
  001c4	5e		 pop	 esi
  001c5	5b		 pop	 ebx
  001c6	8b e5		 mov	 esp, ebp
  001c8	5d		 pop	 ebp
  001c9	c2 04 00	 ret	 4
$LN10@GetDataPas:

; 873  : 			m_pParentList->GetDateUnitType() == CScaleBaseData::HORZ_TIME_ONE)
; 874  : 		{
; 875  : 			// (2006/7/11 - Seung-Won, Bae) Do not use prev data for calculating future time.
; 876  : 			//		Because the prev data is not exactly previous time data with few data.
; 877  : 			//		Use Real End Time of this term.
; 878  : 			/*
; 879  : 				//sy  
; 880  : 				//  real        
; 881  : 				//  data . 
; 882  : 				//ex)5  real   0, 5, 10, 12  10 .
; 883  : 				int nBaseData = (int)m_lnData.GetTail();
; 884  : 				int nBaseIndex = nIndex - m_lnData.GetCount() + 1;
; 885  : 				if(m_lnData.GetCount() > 1)
; 886  : 				{
; 887  : 					POSITION pos = m_lnData.GetTailPosition();
; 888  : 					if(pos != NULL)
; 889  : 						m_lnData.GetPrev(pos);
; 890  : 					if(pos != NULL)
; 891  : 						nBaseData = (int)m_lnData.GetPrev(pos);
; 892  : 
; 893  : 					nBaseIndex += 1;
; 894  : 				}
; 895  : 				//sy end
; 896  : 			*/
; 897  : 			// 2011.01.06 by SYS >>  YYYY() 
; 898  : 			__int64 nBaseData = m_pParentList->GetStartTimeInTimeRangeOfLastData();

  001cc	8b 8b cc 00 00
	00		 mov	 ecx, DWORD PTR [ebx+204]
  001d2	e8 00 00 00 00	 call	 ?GetStartTimeInTimeRangeOfLastData@CPacketList@@QAE_JXZ ; CPacketList::GetStartTimeInTimeRangeOfLastData
  001d7	8b ca		 mov	 ecx, edx
  001d9	89 45 f0	 mov	 DWORD PTR _nSec$2$[ebp], eax
  001dc	89 4d ec	 mov	 DWORD PTR _nSec$1$[ebp], ecx

; 899  : 			if( nBaseData < 0) 

  001df	85 c9		 test	 ecx, ecx
  001e1	7f 24		 jg	 SHORT $LN11@GetDataPas
  001e3	7c 04		 jl	 SHORT $LN76@GetDataPas
  001e5	85 c0		 test	 eax, eax
  001e7	73 1e		 jae	 SHORT $LN11@GetDataPas
$LN76@GetDataPas:
; File C:\Program Files (x86)\Microsoft Visual Studio\2019\Community\VC\Tools\MSVC\14.29.30133\atlmfc\include\afxtempl.h

; 797  : 	{ ENSURE(m_pNodeTail != NULL);

  001e9	8b 83 9c 00 00
	00		 mov	 eax, DWORD PTR [ebx+156]
  001ef	85 c0		 test	 eax, eax
  001f1	0f 84 ba 02 00
	00		 je	 $LN75@GetDataPas
; File D:\git\src\IBK\IBK_DRFN\ProjSrc\SrcChartEx\ChartOCX\PacketData\PacketImplementation.cpp

; 900  : 				nBaseData = (__int64)m_lnData.GetTail();

  001f7	f2 0f 10 40 08	 movsd	 xmm0, QWORD PTR [eax+8]
  001fc	e8 00 00 00 00	 call	 __dtol3
  00201	89 45 f0	 mov	 DWORD PTR _nSec$2$[ebp], eax
  00204	89 55 ec	 mov	 DWORD PTR _nSec$1$[ebp], edx
$LN11@GetDataPas:

; 901  : 			int nBaseIndex = nIndex - m_lnData.GetCount() + 1;

  00207	2b b3 a0 00 00
	00		 sub	 esi, DWORD PTR [ebx+160]
; File C:\Program Files (x86)\Microsoft Visual Studio\2019\Community\VC\Tools\MSVC\14.29.30133\atlmfc\include\cstringt.h

; 2486 : 		return(str1.Compare(psz2) == 0);

  0020d	8b cf		 mov	 ecx, edi
; File D:\git\src\IBK\IBK_DRFN\ProjSrc\SrcChartEx\ChartOCX\PacketData\PacketImplementation.cpp

; 901  : 			int nBaseIndex = nIndex - m_lnData.GetCount() + 1;

  0020f	46		 inc	 esi
; File C:\Program Files (x86)\Microsoft Visual Studio\2019\Community\VC\Tools\MSVC\14.29.30133\atlmfc\include\cstringt.h

; 2486 : 		return(str1.Compare(psz2) == 0);

  00210	68 00 00 00 00	 push	 OFFSET ??_C@_0P@IMPIBBAB@YYYYMMDDHHMMSS@
; File D:\git\src\IBK\IBK_DRFN\ProjSrc\SrcChartEx\ChartOCX\PacketData\PacketImplementation.cpp

; 901  : 			int nBaseIndex = nIndex - m_lnData.GetCount() + 1;

  00215	89 75 08	 mov	 DWORD PTR _nIndex$[ebp], esi
; File C:\Program Files (x86)\Microsoft Visual Studio\2019\Community\VC\Tools\MSVC\14.29.30133\atlmfc\include\cstringt.h

; 2486 : 		return(str1.Compare(psz2) == 0);

  00218	ff 15 00 00 00
	00		 call	 DWORD PTR __imp_?Compare@?$CStringT@DV?$StrTraitMFC_DLL@DV?$ChTraitsCRT@D@ATL@@@@@ATL@@QBEHPBD@Z
  0021e	85 c0		 test	 eax, eax
; File D:\git\src\IBK\IBK_DRFN\ProjSrc\SrcChartEx\ChartOCX\PacketData\PacketImplementation.cpp

; 903  : 			if (m_Type == "YYYYMMDDHHMMSS")

  00220	0f 85 f9 00 00
	00		 jne	 $LN12@GetDataPas

; 904  : 			{
; 905  : 				__int64 nYear	= nBaseData/10000000000;

  00226	53		 push	 ebx
  00227	6a 02		 push	 2
  00229	68 00 e4 0b 54	 push	 1410065408		; 540be400H
  0022e	ff 75 ec	 push	 DWORD PTR _nSec$1$[ebp]
  00231	ff 75 f0	 push	 DWORD PTR _nSec$2$[ebp]
  00234	e8 00 00 00 00	 call	 __alldvrm
  00239	8b f3		 mov	 esi, ebx
  0023b	5b		 pop	 ebx
  0023c	90		 npad	 1

; 906  : 				__int64 nSec	= nBaseData%100;

  0023d	6a 00		 push	 0
  0023f	6a 64		 push	 100			; 00000064H
  00241	ff 75 ec	 push	 DWORD PTR _nSec$1$[ebp]
  00244	8b f9		 mov	 edi, ecx
  00246	89 45 dc	 mov	 DWORD PTR _nYear$1$[ebp], eax
  00249	ff 75 f0	 push	 DWORD PTR _nSec$2$[ebp]
  0024c	8b da		 mov	 ebx, edx
  0024e	e8 00 00 00 00	 call	 __alldiv
  00253	6a 00		 push	 0
  00255	6a 64		 push	 100			; 00000064H
  00257	52		 push	 edx
  00258	50		 push	 eax
  00259	e8 00 00 00 00	 call	 __allmul
  0025e	8b 4d f0	 mov	 ecx, DWORD PTR _nSec$2$[ebp]
  00261	2b c8		 sub	 ecx, eax
  00263	8b 45 ec	 mov	 eax, DWORD PTR _nSec$1$[ebp]
  00266	89 4d f0	 mov	 DWORD PTR _nSec$2$[ebp], ecx
  00269	1b c2		 sbb	 eax, edx

; 907  : 				
; 908  : 				// MMDDHHMM  .
; 909  : 				nBaseData = (nBaseData%10000000000) - nSec;

  0026b	2b f9		 sub	 edi, ecx

; 910  : 				
; 911  : 				__int64 nValue = (__int64)CDataConversion::CalcTimeFormatforCharge((int)nBaseData, 

  0026d	68 00 00 00 00	 push	 OFFSET ??_C@_08KLIIINKM@MMDDHHMM@
  00272	1b f0		 sbb	 esi, eax
  00274	89 45 ec	 mov	 DWORD PTR _nSec$1$[ebp], eax
  00277	8d 4d e8	 lea	 ecx, DWORD PTR $T3[ebp]
  0027a	89 75 e8	 mov	 DWORD PTR _nBaseData$2[ebp+4], esi
  0027d	ff 15 00 00 00
	00		 call	 DWORD PTR __imp_??0?$CStringT@DV?$StrTraitMFC_DLL@DV?$ChTraitsCRT@D@ATL@@@@@ATL@@QAE@PBD@Z
  00283	8b 4d e0	 mov	 ecx, DWORD PTR _this$1$[ebp]
  00286	6a 01		 push	 1
  00288	c7 45 fc 00 00
	00 00		 mov	 DWORD PTR __$EHRec$[ebp+8], 0
  0028f	e8 00 00 00 00	 call	 ?GetTimeInterval@CPacketImplementation@@QAEHXZ ; CPacketImplementation::GetTimeInterval
  00294	50		 push	 eax
  00295	8d 45 e8	 lea	 eax, DWORD PTR $T3[ebp]
  00298	50		 push	 eax
  00299	ff 75 08	 push	 DWORD PTR _nIndex$[ebp]
  0029c	57		 push	 edi
  0029d	e8 00 00 00 00	 call	 ?CalcTimeFormatforCharge@CDataConversion@@SAHHHABV?$CStringT@DV?$StrTraitMFC_DLL@DV?$ChTraitsCRT@D@ATL@@@@@ATL@@H_N@Z ; CDataConversion::CalcTimeFormatforCharge
  002a2	83 c4 14	 add	 esp, 20			; 00000014H
  002a5	99		 cdq
  002a6	8d 4d e8	 lea	 ecx, DWORD PTR $T3[ebp]
  002a9	8b f8		 mov	 edi, eax
  002ab	8b f2		 mov	 esi, edx
  002ad	ff 15 00 00 00
	00		 call	 DWORD PTR __imp_??1?$CStringT@DV?$StrTraitMFC_DLL@DV?$ChTraitsCRT@D@ATL@@@@@ATL@@QAE@XZ

; 912  : 					nBaseIndex, "MMDDHHMM", GetTimeInterval(), true);
; 913  : 				
; 914  : 				// YYYYMMDDhhmmss  .
; 915  : 				double dValue = (double)(nYear*10000000000) + (nValue*100) + nSec;

  002b3	6a 02		 push	 2
  002b5	68 00 e4 0b 54	 push	 1410065408		; 540be400H
  002ba	53		 push	 ebx
  002bb	ff 75 dc	 push	 DWORD PTR _nYear$1$[ebp]
  002be	e8 00 00 00 00	 call	 __allmul
  002c3	8b c8		 mov	 ecx, eax
  002c5	e8 00 00 00 00	 call	 __ltod3
  002ca	6a 00		 push	 0
  002cc	6a 64		 push	 100			; 00000064H
  002ce	56		 push	 esi
  002cf	57		 push	 edi
  002d0	f2 0f 11 45 d8	 movsd	 QWORD PTR tv528[ebp], xmm0
  002d5	e8 00 00 00 00	 call	 __allmul
  002da	8b c8		 mov	 ecx, eax
  002dc	e8 00 00 00 00	 call	 __ltod3
  002e1	f2 0f 10 4d d8	 movsd	 xmm1, QWORD PTR tv528[ebp]
  002e6	8b 55 ec	 mov	 edx, DWORD PTR _nSec$1$[ebp]
  002e9	f2 0f 58 c8	 addsd	 xmm1, xmm0
  002ed	8b 4d f0	 mov	 ecx, DWORD PTR _nSec$2$[ebp]
  002f0	f2 0f 11 4d d8	 movsd	 QWORD PTR tv528[ebp], xmm1
  002f5	e8 00 00 00 00	 call	 __ltod3
  002fa	f2 0f 10 4d d8	 movsd	 xmm1, QWORD PTR tv528[ebp]
  002ff	f2 0f 58 c8	 addsd	 xmm1, xmm0

; 916  : 				return dValue;

  00303	f2 0f 11 4d d8	 movsd	 QWORD PTR tv609[ebp], xmm1
  00308	dd 45 d8	 fld	 QWORD PTR tv609[ebp]

; 961  : }

  0030b	8b 4d f4	 mov	 ecx, DWORD PTR __$EHRec$[ebp]
  0030e	64 89 0d 00 00
	00 00		 mov	 DWORD PTR fs:0, ecx
  00315	59		 pop	 ecx
  00316	5f		 pop	 edi
  00317	5e		 pop	 esi
  00318	5b		 pop	 ebx
  00319	8b e5		 mov	 esp, ebp
  0031b	5d		 pop	 ebp
  0031c	c2 04 00	 ret	 4
$LN12@GetDataPas:

; 917  : 			}
; 918  : 			else
; 919  : 			{
; 920  : 				return CDataConversion::CalcTimeFormatforCharge((int)nBaseData, 

  0031f	6a 01		 push	 1
  00321	8b cb		 mov	 ecx, ebx
  00323	e8 00 00 00 00	 call	 ?GetTimeInterval@CPacketImplementation@@QAEHXZ ; CPacketImplementation::GetTimeInterval
  00328	50		 push	 eax
  00329	57		 push	 edi
  0032a	56		 push	 esi
  0032b	ff 75 f0	 push	 DWORD PTR _nSec$2$[ebp]
  0032e	e8 00 00 00 00	 call	 ?CalcTimeFormatforCharge@CDataConversion@@SAHHHABV?$CStringT@DV?$StrTraitMFC_DLL@DV?$ChTraitsCRT@D@ATL@@@@@ATL@@H_N@Z ; CDataConversion::CalcTimeFormatforCharge
  00333	89 45 08	 mov	 DWORD PTR tv604[ebp], eax
  00336	83 c4 14	 add	 esp, 20			; 00000014H
  00339	db 45 08	 fild	 DWORD PTR tv604[ebp]
  0033c	dd 5d d8	 fstp	 QWORD PTR tv603[ebp]
  0033f	dd 45 d8	 fld	 QWORD PTR tv603[ebp]

; 961  : }

  00342	8b 4d f4	 mov	 ecx, DWORD PTR __$EHRec$[ebp]
  00345	64 89 0d 00 00
	00 00		 mov	 DWORD PTR fs:0, ecx
  0034c	59		 pop	 ecx
  0034d	5f		 pop	 edi
  0034e	5e		 pop	 esi
  0034f	5b		 pop	 ebx
  00350	8b e5		 mov	 esp, ebp
  00352	5d		 pop	 ebp
  00353	c2 04 00	 ret	 4
$LN6@GetDataPas:

; 945  : 	}
; 946  : 	else if(nIndex < 0)
; 947  : 	{
; 948  : 		if(m_pParentList->GetDateUnitType() == CScaleBaseData::HORZ_TIME_TWO || 

  00356	8b 8b cc 00 00
	00		 mov	 ecx, DWORD PTR [ebx+204]
  0035c	e8 00 00 00 00	 call	 ?GetDateUnitType@CPacketList@@QAE?AW4HORZSCALEDRAWERTYPE@CScaleBaseData@@XZ ; CPacketList::GetDateUnitType
  00361	83 f8 06	 cmp	 eax, 6
  00364	0f 84 e3 00 00
	00		 je	 $LN23@GetDataPas
  0036a	8b 8b cc 00 00
	00		 mov	 ecx, DWORD PTR [ebx+204]
  00370	e8 00 00 00 00	 call	 ?GetDateUnitType@CPacketList@@QAE?AW4HORZSCALEDRAWERTYPE@CScaleBaseData@@XZ ; CPacketList::GetDateUnitType
  00375	83 f8 04	 cmp	 eax, 4
  00378	0f 84 cf 00 00
	00		 je	 $LN23@GetDataPas

; 951  : 		else if(m_pParentList->GetDateUnitType() == CScaleBaseData::HORZ_TICK)

  0037e	8b 8b cc 00 00
	00		 mov	 ecx, DWORD PTR [ebx+204]
  00384	e8 00 00 00 00	 call	 ?GetDateUnitType@CPacketList@@QAE?AW4HORZSCALEDRAWERTYPE@CScaleBaseData@@XZ ; CPacketList::GetDateUnitType
  00389	83 f8 05	 cmp	 eax, 5
  0038c	75 40		 jne	 SHORT $LN24@GetDataPas
; File C:\Program Files (x86)\Microsoft Visual Studio\2019\Community\VC\Tools\MSVC\14.29.30133\atlmfc\include\afxtempl.h

; 789  : 	{ ENSURE(m_pNodeHead != NULL);

  0038e	8b 83 98 00 00
	00		 mov	 eax, DWORD PTR [ebx+152]
  00394	85 c0		 test	 eax, eax
  00396	0f 84 15 01 00
	00		 je	 $LN75@GetDataPas
; File D:\git\src\IBK\IBK_DRFN\ProjSrc\SrcChartEx\ChartOCX\PacketData\PacketImplementation.cpp

; 952  : 			return CDataConversion::CalcTimeFormat((int)m_lnData.GetHead(), nIndex, m_Type, true);

  0039c	f2 0f 2c 40 08	 cvttsd2si eax, QWORD PTR [eax+8]
  003a1	6a 01		 push	 1
  003a3	57		 push	 edi
  003a4	56		 push	 esi
  003a5	50		 push	 eax
  003a6	e8 00 00 00 00	 call	 ?CalcTimeFormat@CDataConversion@@SAHHHABV?$CStringT@DV?$StrTraitMFC_DLL@DV?$ChTraitsCRT@D@ATL@@@@@ATL@@_N@Z ; CDataConversion::CalcTimeFormat
  003ab	89 45 08	 mov	 DWORD PTR tv595[ebp], eax
  003ae	83 c4 10	 add	 esp, 16			; 00000010H
  003b1	db 45 08	 fild	 DWORD PTR tv595[ebp]
  003b4	dd 5d d8	 fstp	 QWORD PTR tv594[ebp]
  003b7	dd 45 d8	 fld	 QWORD PTR tv594[ebp]

; 961  : }

  003ba	8b 4d f4	 mov	 ecx, DWORD PTR __$EHRec$[ebp]
  003bd	64 89 0d 00 00
	00 00		 mov	 DWORD PTR fs:0, ecx
  003c4	59		 pop	 ecx
  003c5	5f		 pop	 edi
  003c6	5e		 pop	 esi
  003c7	5b		 pop	 ebx
  003c8	8b e5		 mov	 esp, ebp
  003ca	5d		 pop	 ebp
  003cb	c2 04 00	 ret	 4
$LN24@GetDataPas:

; 953  : 		else if(m_pParentList->GetDateUnitType() == CScaleBaseData::HORZ_TEXT 
; 954  : 			 || m_pParentList->GetDateUnitType() == CScaleBaseData::HORZ_NOTYPE)

  003ce	8b 8b cc 00 00
	00		 mov	 ecx, DWORD PTR [ebx+204]
  003d4	e8 00 00 00 00	 call	 ?GetDateUnitType@CPacketList@@QAE?AW4HORZSCALEDRAWERTYPE@CScaleBaseData@@XZ ; CPacketList::GetDateUnitType
  003d9	83 f8 07	 cmp	 eax, 7
  003dc	0f 84 b9 00 00
	00		 je	 $LN3@GetDataPas
  003e2	8b 8b cc 00 00
	00		 mov	 ecx, DWORD PTR [ebx+204]
  003e8	e8 00 00 00 00	 call	 ?GetDateUnitType@CPacketList@@QAE?AW4HORZSCALEDRAWERTYPE@CScaleBaseData@@XZ ; CPacketList::GetDateUnitType
  003ed	85 c0		 test	 eax, eax
  003ef	0f 84 a6 00 00
	00		 je	 $LN3@GetDataPas
; File C:\Program Files (x86)\Microsoft Visual Studio\2019\Community\VC\Tools\MSVC\14.29.30133\atlmfc\include\afxtempl.h

; 789  : 	{ ENSURE(m_pNodeHead != NULL);

  003f5	8b 83 98 00 00
	00		 mov	 eax, DWORD PTR [ebx+152]
  003fb	85 c0		 test	 eax, eax
  003fd	0f 84 ae 00 00
	00		 je	 $LN75@GetDataPas
; File D:\git\src\IBK\IBK_DRFN\ProjSrc\SrcChartEx\ChartOCX\PacketData\PacketImplementation.cpp

; 957  : 			return CDataConversion::CalcDateFormat((int)m_lnData.GetHead(), nIndex, m_Type, GetDateUnitType(), GetTimeInterval());

  00403	f2 0f 10 40 08	 movsd	 xmm0, QWORD PTR [eax+8]
  00408	8b cb		 mov	 ecx, ebx
  0040a	f2 0f 11 45 d8	 movsd	 QWORD PTR tv551[ebp], xmm0
  0040f	e8 00 00 00 00	 call	 ?GetTimeInterval@CPacketImplementation@@QAEHXZ ; CPacketImplementation::GetTimeInterval
  00414	50		 push	 eax
  00415	8b cb		 mov	 ecx, ebx
  00417	e8 00 00 00 00	 call	 ?GetDateUnitType@CPacketImplementation@@QAEHXZ ; CPacketImplementation::GetDateUnitType
  0041c	50		 push	 eax
  0041d	f2 0f 2c 45 d8	 cvttsd2si eax, QWORD PTR tv551[ebp]
  00422	57		 push	 edi
  00423	56		 push	 esi
  00424	50		 push	 eax
  00425	e8 00 00 00 00	 call	 ?CalcDateFormat@CDataConversion@@SAHHHABV?$CStringT@DV?$StrTraitMFC_DLL@DV?$ChTraitsCRT@D@ATL@@@@@ATL@@HH@Z ; CDataConversion::CalcDateFormat
  0042a	89 45 08	 mov	 DWORD PTR tv584[ebp], eax
  0042d	83 c4 14	 add	 esp, 20			; 00000014H
  00430	db 45 08	 fild	 DWORD PTR tv584[ebp]
  00433	dd 5d d8	 fstp	 QWORD PTR tv583[ebp]
  00436	dd 45 d8	 fld	 QWORD PTR tv583[ebp]

; 961  : }

  00439	8b 4d f4	 mov	 ecx, DWORD PTR __$EHRec$[ebp]
  0043c	64 89 0d 00 00
	00 00		 mov	 DWORD PTR fs:0, ecx
  00443	59		 pop	 ecx
  00444	5f		 pop	 edi
  00445	5e		 pop	 esi
  00446	5b		 pop	 ebx
  00447	8b e5		 mov	 esp, ebp
  00449	5d		 pop	 ebp
  0044a	c2 04 00	 ret	 4
$LN23@GetDataPas:
; File C:\Program Files (x86)\Microsoft Visual Studio\2019\Community\VC\Tools\MSVC\14.29.30133\atlmfc\include\afxtempl.h

; 789  : 	{ ENSURE(m_pNodeHead != NULL);

  0044d	8b 83 98 00 00
	00		 mov	 eax, DWORD PTR [ebx+152]
  00453	85 c0		 test	 eax, eax
  00455	74 5a		 je	 SHORT $LN75@GetDataPas
; File D:\git\src\IBK\IBK_DRFN\ProjSrc\SrcChartEx\ChartOCX\PacketData\PacketImplementation.cpp

; 950  : 			return CDataConversion::CalcTimeFormatforCharge((int)m_lnData.GetHead(), nIndex, m_Type, GetTimeInterval(), true);

  00457	f2 0f 10 40 08	 movsd	 xmm0, QWORD PTR [eax+8]
  0045c	8b cb		 mov	 ecx, ebx
  0045e	6a 01		 push	 1
  00460	f2 0f 11 45 d8	 movsd	 QWORD PTR tv552[ebp], xmm0
  00465	e8 00 00 00 00	 call	 ?GetTimeInterval@CPacketImplementation@@QAEHXZ ; CPacketImplementation::GetTimeInterval
  0046a	50		 push	 eax
  0046b	f2 0f 2c 45 d8	 cvttsd2si eax, QWORD PTR tv552[ebp]
  00470	57		 push	 edi
  00471	56		 push	 esi
  00472	50		 push	 eax
  00473	e8 00 00 00 00	 call	 ?CalcTimeFormatforCharge@CDataConversion@@SAHHHABV?$CStringT@DV?$StrTraitMFC_DLL@DV?$ChTraitsCRT@D@ATL@@@@@ATL@@H_N@Z ; CDataConversion::CalcTimeFormatforCharge
  00478	89 45 08	 mov	 DWORD PTR tv576[ebp], eax
  0047b	83 c4 14	 add	 esp, 20			; 00000014H
  0047e	db 45 08	 fild	 DWORD PTR tv576[ebp]
  00481	dd 5d d8	 fstp	 QWORD PTR tv575[ebp]
  00484	dd 45 d8	 fld	 QWORD PTR tv575[ebp]

; 961  : }

  00487	8b 4d f4	 mov	 ecx, DWORD PTR __$EHRec$[ebp]
  0048a	64 89 0d 00 00
	00 00		 mov	 DWORD PTR fs:0, ecx
  00491	59		 pop	 ecx
  00492	5f		 pop	 edi
  00493	5e		 pop	 esi
  00494	5b		 pop	 ebx
  00495	8b e5		 mov	 esp, ebp
  00497	5d		 pop	 ebp
  00498	c2 04 00	 ret	 4
$LN3@GetDataPas:

; 863  : 		return 0;

  0049b	d9 ee		 fldz

; 961  : }

  0049d	8b 4d f4	 mov	 ecx, DWORD PTR __$EHRec$[ebp]
  004a0	64 89 0d 00 00
	00 00		 mov	 DWORD PTR fs:0, ecx
  004a7	59		 pop	 ecx
  004a8	5f		 pop	 edi
  004a9	5e		 pop	 esi
  004aa	5b		 pop	 ebx
  004ab	8b e5		 mov	 esp, ebp
  004ad	5d		 pop	 ebp
  004ae	c2 04 00	 ret	 4
$LN75@GetDataPas:
; File C:\Program Files (x86)\Microsoft Visual Studio\2019\Community\VC\Tools\MSVC\14.29.30133\atlmfc\include\afxtempl.h

; 789  : 	{ ENSURE(m_pNodeHead != NULL);

  004b1	e8 00 00 00 00	 call	 ?AfxThrowInvalidArgException@@YGXXZ ; AfxThrowInvalidArgException
$LN78@GetDataPas:
  004b6	cc		 int	 3
_TEXT	ENDS
;	COMDAT text$x
text$x	SEGMENT
__unwindfunclet$?GetDataPastandFuture@CPacketImplementation@@QAENH@Z$0:
  00000	8d 4d e8	 lea	 ecx, DWORD PTR $T3[ebp]
  00003	ff 25 00 00 00
	00		 jmp	 DWORD PTR __imp_??1?$CStringT@DV?$StrTraitMFC_DLL@DV?$ChTraitsCRT@D@ATL@@@@@ATL@@QAE@XZ
  00009	cc		 int	 3
  0000a	cc		 int	 3
  0000b	cc		 int	 3
  0000c	cc		 int	 3
  0000d	cc		 int	 3
__ehhandler$?GetDataPastandFuture@CPacketImplementation@@QAENH@Z:
  0000e	90		 npad	 1
  0000f	90		 npad	 1
  00010	8b 54 24 08	 mov	 edx, DWORD PTR [esp+8]
  00014	8d 42 0c	 lea	 eax, DWORD PTR [edx+12]
  00017	8b 4a d4	 mov	 ecx, DWORD PTR [edx-44]
  0001a	33 c8		 xor	 ecx, eax
  0001c	e8 00 00 00 00	 call	 @__security_check_cookie@4
  00021	b8 00 00 00 00	 mov	 eax, OFFSET __ehfuncinfo$?GetDataPastandFuture@CPacketImplementation@@QAENH@Z
  00026	e9 00 00 00 00	 jmp	 ___CxxFrameHandler3
text$x	ENDS
?GetDataPastandFuture@CPacketImplementation@@QAENH@Z ENDP ; CPacketImplementation::GetDataPastandFuture
; Function compile flags: /Ogtp
; File D:\git\src\IBK\IBK_DRFN\ProjSrc\SrcChartEx\ChartOCX\PacketData\PacketImplementation.cpp
; File C:\Program Files (x86)\Microsoft Visual Studio\2019\Community\VC\Tools\MSVC\14.29.30133\atlmfc\include\afxtempl.h
; File D:\git\src\IBK\IBK_DRFN\ProjSrc\SrcChartEx\ChartOCX\PacketData\PacketImplementation.cpp
; File C:\Program Files (x86)\Microsoft Visual Studio\2019\Community\VC\Tools\MSVC\14.29.30133\atlmfc\include\afxtempl.h
; File D:\git\src\IBK\IBK_DRFN\ProjSrc\SrcChartEx\ChartOCX\PacketData\PacketImplementation.cpp
;	COMDAT ?GetStrData@CPacketImplementation@@QAE?AV?$CStringT@DV?$StrTraitMFC_DLL@DV?$ChTraitsCRT@D@ATL@@@@@ATL@@H@Z
_TEXT	SEGMENT
___$ReturnUdt$ = 8					; size = 4
_nIndex$ = 12						; size = 4
?GetStrData@CPacketImplementation@@QAE?AV?$CStringT@DV?$StrTraitMFC_DLL@DV?$ChTraitsCRT@D@ATL@@@@@ATL@@H@Z PROC ; CPacketImplementation::GetStrData, COMDAT
; _this$ = ecx

; 837  : {

  00000	55		 push	 ebp
  00001	8b ec		 mov	 ebp, esp
  00003	56		 push	 esi

; 838  : 	if(m_lstrData.GetCount() <= 0)	return "";

  00004	8b b1 bc 00 00
	00		 mov	 esi, DWORD PTR [ecx+188]
  0000a	57		 push	 edi
  0000b	85 f6		 test	 esi, esi
  0000d	7e 7c		 jle	 SHORT $LN33@GetStrData

; 839  : 	if(nIndex >= m_lstrData.GetCount())	return "";

  0000f	8b 7d 0c	 mov	 edi, DWORD PTR _nIndex$[ebp]
  00012	3b fe		 cmp	 edi, esi
  00014	7d 75		 jge	 SHORT $LN33@GetStrData

; 1133 : 	int nTailIndex = m_lstrData.GetCount() -1;

  00016	4e		 dec	 esi

; 1134 : 
; 1135 : 	if(nIndex < 0 || nIndex > nTailIndex)

  00017	85 ff		 test	 edi, edi
  00019	78 58		 js	 SHORT $LN13@GetStrData
  0001b	3b fe		 cmp	 edi, esi
  0001d	7f 54		 jg	 SHORT $LN13@GetStrData

; 1136 : 		return NULL;
; 1137 : 
; 1138 : 	if(nIndex > nTailIndex/2){

  0001f	8b c6		 mov	 eax, esi
  00021	99		 cdq
  00022	2b c2		 sub	 eax, edx
  00024	d1 f8		 sar	 eax, 1
  00026	3b f8		 cmp	 edi, eax
  00028	7e 30		 jle	 SHORT $LN14@GetStrData

; 1139 : 		int nCount = nTailIndex;
; 1140 : 		POSITION pos = m_lstrData.GetTailPosition();

  0002a	8b 81 b8 00 00
	00		 mov	 eax, DWORD PTR [ecx+184]

; 1141 : 		while(pos != NULL){

  00030	85 c0		 test	 eax, eax
  00032	74 3f		 je	 SHORT $LN13@GetStrData
$LL8@GetStrData:

; 1142 : 			if(nCount-- == nIndex)

  00034	8b ce		 mov	 ecx, esi
  00036	4e		 dec	 esi
  00037	3b cf		 cmp	 ecx, edi
  00039	74 3a		 je	 SHORT $LN7@GetStrData
; File C:\Program Files (x86)\Microsoft Visual Studio\2019\Community\VC\Tools\MSVC\14.29.30133\atlmfc\include\afxtempl.h

; 831  : 		rPosition = (POSITION) pNode->pPrev;

  0003b	8b 40 04	 mov	 eax, DWORD PTR [eax+4]
; File D:\git\src\IBK\IBK_DRFN\ProjSrc\SrcChartEx\ChartOCX\PacketData\PacketImplementation.cpp

; 1141 : 		while(pos != NULL){

  0003e	85 c0		 test	 eax, eax
  00040	75 f2		 jne	 SHORT $LL8@GetStrData

; 840  : 
; 841  : 	POSITION pos = FindStrPosition(nIndex);
; 842  : 	return m_lstrData.GetAt(pos);

  00042	8b 4d 08	 mov	 ecx, DWORD PTR ___$ReturnUdt$[ebp]
  00045	b8 08 00 00 00	 mov	 eax, 8
  0004a	50		 push	 eax
  0004b	ff 15 00 00 00
	00		 call	 DWORD PTR __imp_??0?$CStringT@DV?$StrTraitMFC_DLL@DV?$ChTraitsCRT@D@ATL@@@@@ATL@@QAE@ABV01@@Z

; 843  : }

  00051	8b 45 08	 mov	 eax, DWORD PTR ___$ReturnUdt$[ebp]
  00054	5f		 pop	 edi
  00055	5e		 pop	 esi
  00056	5d		 pop	 ebp
  00057	c2 08 00	 ret	 8
$LN14@GetStrData:

; 1149 : 		POSITION pos = m_lstrData.GetHeadPosition();

  0005a	8b 81 b4 00 00
	00		 mov	 eax, DWORD PTR [ecx+180]
  00060	33 d2		 xor	 edx, edx

; 1150 : 		while(pos != NULL){

  00062	85 c0		 test	 eax, eax
  00064	74 0d		 je	 SHORT $LN13@GetStrData
$LL10@GetStrData:

; 1151 : 			if(nCount++ == nIndex)

  00066	8b ca		 mov	 ecx, edx
  00068	42		 inc	 edx
  00069	3b cf		 cmp	 ecx, edi
  0006b	74 08		 je	 SHORT $LN7@GetStrData
; File C:\Program Files (x86)\Microsoft Visual Studio\2019\Community\VC\Tools\MSVC\14.29.30133\atlmfc\include\afxtempl.h

; 819  : 		rPosition = (POSITION) pNode->pNext;

  0006d	8b 00		 mov	 eax, DWORD PTR [eax]
; File D:\git\src\IBK\IBK_DRFN\ProjSrc\SrcChartEx\ChartOCX\PacketData\PacketImplementation.cpp

; 1150 : 		while(pos != NULL){

  0006f	85 c0		 test	 eax, eax
  00071	75 f3		 jne	 SHORT $LL10@GetStrData
$LN13@GetStrData:

; 840  : 
; 841  : 	POSITION pos = FindStrPosition(nIndex);
; 842  : 	return m_lstrData.GetAt(pos);

  00073	33 c0		 xor	 eax, eax
$LN7@GetStrData:
  00075	8b 4d 08	 mov	 ecx, DWORD PTR ___$ReturnUdt$[ebp]
  00078	83 c0 08	 add	 eax, 8
  0007b	50		 push	 eax
  0007c	ff 15 00 00 00
	00		 call	 DWORD PTR __imp_??0?$CStringT@DV?$StrTraitMFC_DLL@DV?$ChTraitsCRT@D@ATL@@@@@ATL@@QAE@ABV01@@Z

; 843  : }

  00082	8b 45 08	 mov	 eax, DWORD PTR ___$ReturnUdt$[ebp]
  00085	5f		 pop	 edi
  00086	5e		 pop	 esi
  00087	5d		 pop	 ebp
  00088	c2 08 00	 ret	 8
$LN33@GetStrData:

; 839  : 	if(nIndex >= m_lstrData.GetCount())	return "";

  0008b	8b 4d 08	 mov	 ecx, DWORD PTR ___$ReturnUdt$[ebp]
  0008e	68 00 00 00 00	 push	 OFFSET ??_C@_00CNPNBAHC@@
  00093	ff 15 00 00 00
	00		 call	 DWORD PTR __imp_??0?$CStringT@DV?$StrTraitMFC_DLL@DV?$ChTraitsCRT@D@ATL@@@@@ATL@@QAE@PBD@Z

; 843  : }

  00099	8b 45 08	 mov	 eax, DWORD PTR ___$ReturnUdt$[ebp]
  0009c	5f		 pop	 edi
  0009d	5e		 pop	 esi
  0009e	5d		 pop	 ebp
  0009f	c2 08 00	 ret	 8
?GetStrData@CPacketImplementation@@QAE?AV?$CStringT@DV?$StrTraitMFC_DLL@DV?$ChTraitsCRT@D@ATL@@@@@ATL@@H@Z ENDP ; CPacketImplementation::GetStrData
_TEXT	ENDS
; Function compile flags: /Ogtp
; File D:\git\src\IBK\IBK_DRFN\ProjSrc\SrcChartEx\ChartOCX\PacketData\PacketImplementation.cpp
;	COMDAT ?GetData@CPacketImplementation@@QAENH@Z
_TEXT	SEGMENT
_nIndex$ = 8						; size = 4
?GetData@CPacketImplementation@@QAENH@Z PROC		; CPacketImplementation::GetData, COMDAT
; _this$ = ecx

; 825  : {

  00000	55		 push	 ebp
  00001	8b ec		 mov	 ebp, esp

; 826  : 	if(m_lnData.GetCount() <= 0)	return ERRORVALUE;

  00003	8b 81 a0 00 00
	00		 mov	 eax, DWORD PTR [ecx+160]
  00009	85 c0		 test	 eax, eax
  0000b	7e 18		 jle	 SHORT $LN6@GetData

; 827  : 	if(nIndex >= m_lnData.GetCount())	return ERRORVALUE;

  0000d	8b 55 08	 mov	 edx, DWORD PTR _nIndex$[ebp]
  00010	3b d0		 cmp	 edx, eax
  00012	7d 11		 jge	 SHORT $LN6@GetData

; 828  : 
; 829  : 	POSITION pos = FindPosition(nIndex);

  00014	52		 push	 edx
  00015	e8 00 00 00 00	 call	 ?FindPosition@CPacketImplementation@@ABEPAU__POSITION@@H@Z ; CPacketImplementation::FindPosition

; 830  : 	if(pos == NULL)

  0001a	85 c0		 test	 eax, eax
  0001c	74 07		 je	 SHORT $LN6@GetData

; 832  : 
; 833  : 	return m_lnData.GetAt(pos);

  0001e	dd 40 08	 fld	 QWORD PTR [eax+8]

; 834  : }

  00021	5d		 pop	 ebp
  00022	c2 04 00	 ret	 4
$LN6@GetData:

; 831  : 		return ERRORVALUE;

  00025	dd 05 00 00 00
	00		 fld	 QWORD PTR __real@ffefffffffffffff

; 834  : }

  0002b	5d		 pop	 ebp
  0002c	c2 04 00	 ret	 4
?GetData@CPacketImplementation@@QAENH@Z ENDP		; CPacketImplementation::GetData
_TEXT	ENDS
; Function compile flags: /Ogtp
; File D:\git\src\IBK\IBK_DRFN\ProjSrc\SrcChartEx\ChartOCX\PacketData\PacketImplementation.cpp
;	COMDAT ?GetData@CPacketImplementation@@QBE_NHAAN@Z
_TEXT	SEGMENT
_nIndex$ = 8						; size = 4
_dData$ = 12						; size = 4
?GetData@CPacketImplementation@@QBE_NHAAN@Z PROC	; CPacketImplementation::GetData, COMDAT
; _this$ = ecx

; 815  : {

  00000	55		 push	 ebp
  00001	8b ec		 mov	 ebp, esp

; 816  : 	POSITION pos = FindPosition(nIndex);

  00003	ff 75 08	 push	 DWORD PTR _nIndex$[ebp]
  00006	e8 00 00 00 00	 call	 ?FindPosition@CPacketImplementation@@ABEPAU__POSITION@@H@Z ; CPacketImplementation::FindPosition

; 817  : 	if(pos == NULL)

  0000b	85 c0		 test	 eax, eax
  0000d	75 06		 jne	 SHORT $LN2@GetData

; 818  : 		return false;

  0000f	32 c0		 xor	 al, al

; 822  : }

  00011	5d		 pop	 ebp
  00012	c2 08 00	 ret	 8
$LN2@GetData:

; 819  : 
; 820  : 	dData = m_lnData.GetAt(pos);

  00015	f2 0f 10 40 08	 movsd	 xmm0, QWORD PTR [eax+8]
  0001a	8b 45 0c	 mov	 eax, DWORD PTR _dData$[ebp]
  0001d	f2 0f 11 00	 movsd	 QWORD PTR [eax], xmm0

; 821  : 	return true;

  00021	b0 01		 mov	 al, 1

; 822  : }

  00023	5d		 pop	 ebp
  00024	c2 08 00	 ret	 8
?GetData@CPacketImplementation@@QBE_NHAAN@Z ENDP	; CPacketImplementation::GetData
_TEXT	ENDS
; Function compile flags: /Ogtp
; File D:\git\src\IBK\IBK_DRFN\ProjSrc\SrcChartEx\ChartOCX\PacketData\PacketImplementation.cpp
; File C:\Program Files (x86)\Microsoft Visual Studio\2019\Community\VC\Tools\MSVC\14.29.30133\atlmfc\include\afxtempl.h
; File D:\git\src\IBK\IBK_DRFN\ProjSrc\SrcChartEx\ChartOCX\PacketData\PacketImplementation.cpp
; File C:\Program Files (x86)\Microsoft Visual Studio\2019\Community\VC\Tools\MSVC\14.29.30133\atlmfc\include\afxtempl.h
; File D:\git\src\IBK\IBK_DRFN\ProjSrc\SrcChartEx\ChartOCX\PacketData\PacketImplementation.cpp
; File C:\Program Files (x86)\Microsoft Visual Studio\2019\Community\VC\Tools\MSVC\14.29.30133\atlmfc\include\afxtempl.h
; File D:\git\src\IBK\IBK_DRFN\ProjSrc\SrcChartEx\ChartOCX\PacketData\PacketImplementation.cpp
; File C:\Program Files (x86)\Microsoft Visual Studio\2019\Community\VC\Tools\MSVC\14.29.30133\atlmfc\include\afxtempl.h
; File D:\git\src\IBK\IBK_DRFN\ProjSrc\SrcChartEx\ChartOCX\PacketData\PacketImplementation.cpp
;	COMDAT ?GetCurOrPrevIndexFromData@CPacketImplementation@@QBE_NNAAHAAN@Z
_TEXT	SEGMENT
_dData$ = 8						; size = 8
_nCurOrPrevIndex$ = 16					; size = 4
_dCurOrPrevIndexData$ = 20				; size = 4
?GetCurOrPrevIndexFromData@CPacketImplementation@@QBE_NNAAHAAN@Z PROC ; CPacketImplementation::GetCurOrPrevIndexFromData, COMDAT
; _this$ = ecx

; 994  : {

  00000	55		 push	 ebp
  00001	8b ec		 mov	 ebp, esp
  00003	56		 push	 esi

; 995  : 	dCurOrPrevIndexData = 0.0;

  00004	8b 75 14	 mov	 esi, DWORD PTR _dCurOrPrevIndexData$[ebp]
  00007	8b c1		 mov	 eax, ecx
  00009	57		 push	 edi

; 996  : 	nCurOrPrevIndex = -1;

  0000a	8b 7d 10	 mov	 edi, DWORD PTR _nCurOrPrevIndex$[ebp]
  0000d	0f 57 c0	 xorps	 xmm0, xmm0
  00010	f2 0f 11 06	 movsd	 QWORD PTR [esi], xmm0
  00014	c7 07 ff ff ff
	ff		 mov	 DWORD PTR [edi], -1

; 1006 : 	if(m_lnData.GetCount() <= 0)

  0001a	83 b8 a0 00 00
	00 00		 cmp	 DWORD PTR [eax+160], 0
  00021	7f 08		 jg	 SHORT $LN6@GetCurOrPr
$LN50@GetCurOrPr:

; 997  : 
; 998  : //	if(m_Name == "")
; 999  : 		return GetCurOrPrevIndexFromData_Date(dData, dCurOrPrevIndexData, nCurOrPrevIndex);

  00023	5f		 pop	 edi
  00024	32 c0		 xor	 al, al
  00026	5e		 pop	 esi

; 1002 : }

  00027	5d		 pop	 ebp
  00028	c2 10 00	 ret	 16			; 00000010H
$LN6@GetCurOrPr:
; File C:\Program Files (x86)\Microsoft Visual Studio\2019\Community\VC\Tools\MSVC\14.29.30133\atlmfc\include\afxtempl.h

; 793  : 	{ ENSURE(m_pNodeHead != NULL);

  0002b	8b 88 98 00 00
	00		 mov	 ecx, DWORD PTR [eax+152]
  00031	85 c9		 test	 ecx, ecx
  00033	0f 84 8a 00 00
	00		 je	 $LN46@GetCurOrPr
; File D:\git\src\IBK\IBK_DRFN\ProjSrc\SrcChartEx\ChartOCX\PacketData\PacketImplementation.cpp

; 1010 : 	if(m_lnData.GetHead() > dData)

  00039	f2 0f 10 51 08	 movsd	 xmm2, QWORD PTR [ecx+8]
  0003e	f2 0f 10 4d 08	 movsd	 xmm1, QWORD PTR _dData$[ebp]
  00043	66 0f 2f d1	 comisd	 xmm2, xmm1
  00047	77 da		 ja	 SHORT $LN50@GetCurOrPr
; File C:\Program Files (x86)\Microsoft Visual Studio\2019\Community\VC\Tools\MSVC\14.29.30133\atlmfc\include\afxtempl.h

; 801  : 	{ ENSURE(m_pNodeTail != NULL);

  00049	8b 90 9c 00 00
	00		 mov	 edx, DWORD PTR [eax+156]
  0004f	85 d2		 test	 edx, edx
  00051	74 70		 je	 SHORT $LN46@GetCurOrPr
; File D:\git\src\IBK\IBK_DRFN\ProjSrc\SrcChartEx\ChartOCX\PacketData\PacketImplementation.cpp

; 1012 : 	if(m_lnData.GetTail() < dData)

  00053	f2 0f 10 42 08	 movsd	 xmm0, QWORD PTR [edx+8]
  00058	66 0f 2f c8	 comisd	 xmm1, xmm0
  0005c	76 15		 jbe	 SHORT $LN8@GetCurOrPr

; 1013 : 	{
; 1014 : 		dCurOrPrevIndexData = m_lnData.GetTail();

  0005e	f2 0f 11 06	 movsd	 QWORD PTR [esi], xmm0

; 1015 : 		nCurOrPrevIndex = m_lnData.GetCount() -1;

  00062	8b 80 a0 00 00
	00		 mov	 eax, DWORD PTR [eax+160]
  00068	48		 dec	 eax
  00069	89 07		 mov	 DWORD PTR [edi], eax

; 997  : 
; 998  : //	if(m_Name == "")
; 999  : 		return GetCurOrPrevIndexFromData_Date(dData, dCurOrPrevIndexData, nCurOrPrevIndex);

  0006b	b0 01		 mov	 al, 1
  0006d	5f		 pop	 edi
  0006e	5e		 pop	 esi

; 1002 : }

  0006f	5d		 pop	 ebp
  00070	c2 10 00	 ret	 16			; 00000010H
$LN8@GetCurOrPr:

; 1021 : 	int nIndex = 0;

  00073	33 d2		 xor	 edx, edx
$LL4@GetCurOrPr:
; File C:\Program Files (x86)\Microsoft Visual Studio\2019\Community\VC\Tools\MSVC\14.29.30133\atlmfc\include\afxtempl.h

; 817  : 	{ CNode* pNode = (CNode*) rPosition;

  00075	8b c1		 mov	 eax, ecx

; 818  : 		ASSERT(AfxIsValidAddress(pNode, sizeof(CNode)));
; 819  : 		rPosition = (POSITION) pNode->pNext;

  00077	8b 09		 mov	 ecx, DWORD PTR [ecx]
; File D:\git\src\IBK\IBK_DRFN\ProjSrc\SrcChartEx\ChartOCX\PacketData\PacketImplementation.cpp

; 1025 : 		double dCurData = m_lnData.GetNext(pos);

  00079	f2 0f 10 40 08	 movsd	 xmm0, QWORD PTR [eax+8]

; 1026 : 		if(dCurData == dData)

  0007e	66 0f 2e c1	 ucomisd xmm0, xmm1
  00082	9f		 lahf
  00083	f6 c4 44	 test	 ah, 68			; 00000044H
  00086	7b 2d		 jnp	 SHORT $LN41@GetCurOrPr

; 1030 : 			return true;
; 1031 : 		}
; 1032 : 		
; 1033 : 		if(dCurData > dData && dPrevData < dData)

  00088	66 0f 2f c1	 comisd	 xmm0, xmm1
  0008c	76 06		 jbe	 SHORT $LN10@GetCurOrPr
  0008e	66 0f 2f ca	 comisd	 xmm1, xmm2
  00092	77 10		 ja	 SHORT $LN42@GetCurOrPr
$LN10@GetCurOrPr:

; 1037 : 			return true;
; 1038 : 		}
; 1039 : 
; 1040 : 		dPrevData = dCurData;
; 1041 : 		nIndex++;

  00094	42		 inc	 edx
  00095	0f 28 d0	 movaps	 xmm2, xmm0
  00098	85 c9		 test	 ecx, ecx
  0009a	75 d9		 jne	 SHORT $LL4@GetCurOrPr

; 997  : 
; 998  : //	if(m_Name == "")
; 999  : 		return GetCurOrPrevIndexFromData_Date(dData, dCurOrPrevIndexData, nCurOrPrevIndex);

  0009c	5f		 pop	 edi
  0009d	32 c0		 xor	 al, al
  0009f	5e		 pop	 esi

; 1002 : }

  000a0	5d		 pop	 ebp
  000a1	c2 10 00	 ret	 16			; 00000010H
$LN42@GetCurOrPr:

; 1036 : 			nCurOrPrevIndex = --nIndex;

  000a4	8d 42 ff	 lea	 eax, DWORD PTR [edx-1]
  000a7	f2 0f 11 16	 movsd	 QWORD PTR [esi], xmm2
  000ab	89 07		 mov	 DWORD PTR [edi], eax

; 997  : 
; 998  : //	if(m_Name == "")
; 999  : 		return GetCurOrPrevIndexFromData_Date(dData, dCurOrPrevIndexData, nCurOrPrevIndex);

  000ad	b0 01		 mov	 al, 1
  000af	5f		 pop	 edi
  000b0	5e		 pop	 esi

; 1002 : }

  000b1	5d		 pop	 ebp
  000b2	c2 10 00	 ret	 16			; 00000010H
$LN41@GetCurOrPr:

; 1028 : 			dCurOrPrevIndexData = dCurData;

  000b5	f2 0f 11 06	 movsd	 QWORD PTR [esi], xmm0

; 997  : 
; 998  : //	if(m_Name == "")
; 999  : 		return GetCurOrPrevIndexFromData_Date(dData, dCurOrPrevIndexData, nCurOrPrevIndex);

  000b9	b0 01		 mov	 al, 1

; 1029 : 			nCurOrPrevIndex = nIndex;

  000bb	89 17		 mov	 DWORD PTR [edi], edx

; 997  : 
; 998  : //	if(m_Name == "")
; 999  : 		return GetCurOrPrevIndexFromData_Date(dData, dCurOrPrevIndexData, nCurOrPrevIndex);

  000bd	5f		 pop	 edi
  000be	5e		 pop	 esi

; 1002 : }

  000bf	5d		 pop	 ebp
  000c0	c2 10 00	 ret	 16			; 00000010H
$LN46@GetCurOrPr:
; File C:\Program Files (x86)\Microsoft Visual Studio\2019\Community\VC\Tools\MSVC\14.29.30133\atlmfc\include\afxtempl.h

; 801  : 	{ ENSURE(m_pNodeTail != NULL);

  000c3	e8 00 00 00 00	 call	 ?AfxThrowInvalidArgException@@YGXXZ ; AfxThrowInvalidArgException
$LN48@GetCurOrPr:
  000c8	cc		 int	 3
?GetCurOrPrevIndexFromData@CPacketImplementation@@QBE_NNAAHAAN@Z ENDP ; CPacketImplementation::GetCurOrPrevIndexFromData
_TEXT	ENDS
; Function compile flags: /Ogtp
; File D:\git\src\IBK\IBK_DRFN\ProjSrc\SrcChartEx\ChartOCX\PacketData\PacketImplementation.cpp
; File C:\Program Files (x86)\Microsoft Visual Studio\2019\Community\VC\Tools\MSVC\14.29.30133\atlmfc\include\afxtempl.h
; File D:\git\src\IBK\IBK_DRFN\ProjSrc\SrcChartEx\ChartOCX\PacketData\PacketImplementation.cpp
; File C:\Program Files (x86)\Microsoft Visual Studio\2019\Community\VC\Tools\MSVC\14.29.30133\atlmfc\include\cstringt.h
; File D:\git\src\IBK\IBK_DRFN\ProjSrc\SrcChartEx\ChartOCX\PacketData\PacketImplementation.cpp
; File C:\Program Files (x86)\Microsoft Visual Studio\2019\Community\VC\Tools\MSVC\14.29.30133\atlmfc\include\afxtempl.h
; File D:\git\src\IBK\IBK_DRFN\ProjSrc\SrcChartEx\ChartOCX\PacketData\PacketImplementation.cpp
; File C:\Program Files (x86)\Microsoft Visual Studio\2019\Community\VC\Tools\MSVC\14.29.30133\atlmfc\include\afxtempl.h
; File D:\git\src\IBK\IBK_DRFN\ProjSrc\SrcChartEx\ChartOCX\PacketData\PacketImplementation.cpp
; File C:\Program Files (x86)\Microsoft Visual Studio\2019\Community\VC\Tools\MSVC\14.29.30133\atlmfc\include\afxtempl.h
; File D:\git\src\IBK\IBK_DRFN\ProjSrc\SrcChartEx\ChartOCX\PacketData\PacketImplementation.cpp
; File C:\Program Files (x86)\Microsoft Visual Studio\2019\Community\VC\Tools\MSVC\14.29.30133\atlmfc\include\afxtempl.h
; File D:\git\src\IBK\IBK_DRFN\ProjSrc\SrcChartEx\ChartOCX\PacketData\PacketImplementation.cpp
;	COMDAT ?GetIndexFromData@CPacketImplementation@@QAEHNV?$CStringT@DV?$StrTraitMFC_DLL@DV?$ChTraitsCRT@D@ATL@@@@@ATL@@@Z
_TEXT	SEGMENT
_nTailNum$2 = -28					; size = 4
_nDataNum$3 = -24					; size = 4
_nHeadNum$4 = -20					; size = 4
$T5 = -16						; size = 4
__$EHRec$ = -12						; size = 12
_nData$ = 8						; size = 8
_strType$ = 16						; size = 4
?GetIndexFromData@CPacketImplementation@@QAEHNV?$CStringT@DV?$StrTraitMFC_DLL@DV?$ChTraitsCRT@D@ATL@@@@@ATL@@@Z PROC ; CPacketImplementation::GetIndexFromData, COMDAT
; _this$ = ecx

; 965  : {

  00000	55		 push	 ebp
  00001	8b ec		 mov	 ebp, esp
  00003	6a ff		 push	 -1
  00005	68 00 00 00 00	 push	 __ehhandler$?GetIndexFromData@CPacketImplementation@@QAEHNV?$CStringT@DV?$StrTraitMFC_DLL@DV?$ChTraitsCRT@D@ATL@@@@@ATL@@@Z
  0000a	64 a1 00 00 00
	00		 mov	 eax, DWORD PTR fs:0
  00010	50		 push	 eax
  00011	83 ec 10	 sub	 esp, 16			; 00000010H
  00014	56		 push	 esi
  00015	57		 push	 edi
  00016	a1 00 00 00 00	 mov	 eax, DWORD PTR ___security_cookie
  0001b	33 c5		 xor	 eax, ebp
  0001d	50		 push	 eax
  0001e	8d 45 f4	 lea	 eax, DWORD PTR __$EHRec$[ebp]
  00021	64 a3 00 00 00
	00		 mov	 DWORD PTR fs:0, eax
  00027	8b f9		 mov	 edi, ecx

; 966  : 	if(m_lnData.GetCount() <= 0)	return -1;

  00029	83 bf a0 00 00
	00 00		 cmp	 DWORD PTR [edi+160], 0
  00030	c7 45 fc 00 00
	00 00		 mov	 DWORD PTR __$EHRec$[ebp+8], 0
  00037	0f 8e 38 01 00
	00		 jle	 $LN8@GetIndexFr

; 967  : 	
; 968  : 	POSITION pos = m_lnData.GetHeadPosition();

  0003d	8b 8f 98 00 00
	00		 mov	 ecx, DWORD PTR [edi+152]

; 969  : 	int nIndex = 0;

  00043	33 f6		 xor	 esi, esi

; 970  : 	while(pos)	{

  00045	85 c9		 test	 ecx, ecx
  00047	74 23		 je	 SHORT $LN3@GetIndexFr
  00049	f2 0f 10 4d 08	 movsd	 xmm1, QWORD PTR _nData$[ebp]
  0004e	66 90		 npad	 2
$LL2@GetIndexFr:

; 971  : 		if(m_lnData.GetNext(pos) == nData)

  00050	f2 0f 10 41 08	 movsd	 xmm0, QWORD PTR [ecx+8]
; File C:\Program Files (x86)\Microsoft Visual Studio\2019\Community\VC\Tools\MSVC\14.29.30133\atlmfc\include\afxtempl.h

; 811  : 	{ CNode* pNode = (CNode*) rPosition;

  00055	8d 01		 lea	 eax, DWORD PTR [ecx]

; 812  : 		ASSERT(AfxIsValidAddress(pNode, sizeof(CNode)));
; 813  : 		rPosition = (POSITION) pNode->pNext;

  00057	8b 09		 mov	 ecx, DWORD PTR [ecx]
; File D:\git\src\IBK\IBK_DRFN\ProjSrc\SrcChartEx\ChartOCX\PacketData\PacketImplementation.cpp

; 971  : 		if(m_lnData.GetNext(pos) == nData)

  00059	66 0f 2e c1	 ucomisd xmm0, xmm1
  0005d	9f		 lahf
  0005e	f6 c4 44	 test	 ah, 68			; 00000044H
  00061	0f 8b 11 01 00
	00		 jnp	 $LN16@GetIndexFr

; 972  : 			return nIndex;
; 973  : 		nIndex++;

  00067	46		 inc	 esi
  00068	85 c9		 test	 ecx, ecx
  0006a	75 e4		 jne	 SHORT $LL2@GetIndexFr
$LN3@GetIndexFr:

; 976  : 	if(m_Name == _MTEXT( C0_DATE_TIME))

  0006c	a1 54 00 00 00	 mov	 eax, DWORD PTR ?g_iMetaTable@@3VIMetaTable@@A+84
  00071	8d 8f 88 00 00
	00		 lea	 ecx, DWORD PTR [edi+136]
; File C:\Program Files (x86)\Microsoft Visual Studio\2019\Community\VC\Tools\MSVC\14.29.30133\atlmfc\include\cstringt.h

; 2486 : 		return(str1.Compare(psz2) == 0);

  00077	ff 30		 push	 DWORD PTR [eax]
  00079	ff 15 00 00 00
	00		 call	 DWORD PTR __imp_?Compare@?$CStringT@DV?$StrTraitMFC_DLL@DV?$ChTraitsCRT@D@ATL@@@@@ATL@@QBEHPBD@Z
  0007f	85 c0		 test	 eax, eax
; File D:\git\src\IBK\IBK_DRFN\ProjSrc\SrcChartEx\ChartOCX\PacketData\PacketImplementation.cpp

; 976  : 	if(m_Name == _MTEXT( C0_DATE_TIME))

  00081	0f 85 ee 00 00
	00		 jne	 $LN8@GetIndexFr

; 977  : 	{
; 978  : 		if(m_pParentList->GetDateUnitType() == CScaleBaseData::HORZ_TIME_TWO ||

  00087	8b 8f cc 00 00
	00		 mov	 ecx, DWORD PTR [edi+204]
  0008d	e8 00 00 00 00	 call	 ?GetDateUnitType@CPacketList@@QAE?AW4HORZSCALEDRAWERTYPE@CScaleBaseData@@XZ ; CPacketList::GetDateUnitType
  00092	83 f8 06	 cmp	 eax, 6
  00095	0f 84 b7 00 00
	00		 je	 $LN9@GetIndexFr
  0009b	8b 8f cc 00 00
	00		 mov	 ecx, DWORD PTR [edi+204]
  000a1	e8 00 00 00 00	 call	 ?GetDateUnitType@CPacketList@@QAE?AW4HORZSCALEDRAWERTYPE@CScaleBaseData@@XZ ; CPacketList::GetDateUnitType
  000a6	83 f8 04	 cmp	 eax, 4
  000a9	0f 84 a3 00 00
	00		 je	 $LN9@GetIndexFr

; 1391 : 	if(m_lnData.GetCount() <= 0)

  000af	8b b7 a0 00 00
	00		 mov	 esi, DWORD PTR [edi+160]
  000b5	85 f6		 test	 esi, esi
  000b7	7f 07		 jg	 SHORT $LN30@GetIndexFr

; 1392 : 		return 0;

  000b9	33 f6		 xor	 esi, esi
  000bb	e9 b8 00 00 00	 jmp	 $LN16@GetIndexFr
$LN30@GetIndexFr:
; File C:\Program Files (x86)\Microsoft Visual Studio\2019\Community\VC\Tools\MSVC\14.29.30133\atlmfc\include\afxtempl.h

; 797  : 	{ ENSURE(m_pNodeTail != NULL);

  000c0	8b 8f 9c 00 00
	00		 mov	 ecx, DWORD PTR [edi+156]
  000c6	85 c9		 test	 ecx, ecx
  000c8	0f 84 79 01 00
	00		 je	 $LN79@GetIndexFr
; File D:\git\src\IBK\IBK_DRFN\ProjSrc\SrcChartEx\ChartOCX\PacketData\PacketImplementation.cpp

; 1415 : 	if(dData > dTail)

  000ce	f2 0f 10 51 08	 movsd	 xmm2, QWORD PTR [ecx+8]
  000d3	f2 0f 10 4d 08	 movsd	 xmm1, QWORD PTR _nData$[ebp]
  000d8	66 0f 2f ca	 comisd	 xmm1, xmm2
  000dc	77 2f		 ja	 SHORT $LN80@GetIndexFr

; 1416 : 		return -1;
; 1417 : 	else if(dData == dTail)

  000de	4e		 dec	 esi
  000df	66 0f 2e ca	 ucomisd xmm1, xmm2
  000e3	9f		 lahf
  000e4	f6 c4 44	 test	 ah, 68			; 00000044H
  000e7	7b 20		 jnp	 SHORT $LN72@GetIndexFr
  000e9	0f 1f 80 00 00
	00 00		 npad	 7
$LL37@GetIndexFr:

; 1430 : 		if((dPrev < dData) && (dData < dNext)) 

  000f0	66 0f 2f 49 08	 comisd	 xmm1, QWORD PTR [ecx+8]
; File C:\Program Files (x86)\Microsoft Visual Studio\2019\Community\VC\Tools\MSVC\14.29.30133\atlmfc\include\afxtempl.h

; 823  : 	{ CNode* pNode = (CNode*) rPosition;

  000f5	8d 01		 lea	 eax, DWORD PTR [ecx]

; 824  : 		ASSERT(AfxIsValidAddress(pNode, sizeof(CNode)));
; 825  : 		rPosition = (POSITION) pNode->pPrev;

  000f7	8b 49 04	 mov	 ecx, DWORD PTR [ecx+4]
; File D:\git\src\IBK\IBK_DRFN\ProjSrc\SrcChartEx\ChartOCX\PacketData\PacketImplementation.cpp

; 1430 : 		if((dPrev < dData) && (dData < dNext)) 

  000fa	76 06		 jbe	 SHORT $LN42@GetIndexFr
  000fc	66 0f 2f d1	 comisd	 xmm2, xmm1
  00100	77 07		 ja	 SHORT $LN72@GetIndexFr
$LN42@GetIndexFr:

; 1431 : 			return (dData - dPrev) < (dNext - dData) ? nIndex : nIndex++;
; 1432 : 		nIndex--;

  00102	4e		 dec	 esi
  00103	85 c9		 test	 ecx, ecx
  00105	75 e9		 jne	 SHORT $LL37@GetIndexFr

; 1418 : 		return (m_lnData.GetCount() - 1);
; 1419 : 
; 1420 : 	//     ..
; 1421 : 	//       . 
; 1422 : 	//         .
; 1423 : 	//   index .
; 1424 : 	POSITION pos = m_lnData.GetTailPosition();
; 1425 : 	int nIndex = m_lnData.GetCount() - 1;
; 1426 : 	double dPrev = 0.0, dNext = 0.0;
; 1427 : 	while(pos)	{

  00107	eb 04		 jmp	 SHORT $LN80@GetIndexFr
$LN72@GetIndexFr:

; 1396 : 	if(nIndex >= 0)

  00109	85 f6		 test	 esi, esi
  0010b	79 6b		 jns	 SHORT $LN16@GetIndexFr
$LN80@GetIndexFr:
; File C:\Program Files (x86)\Microsoft Visual Studio\2019\Community\VC\Tools\MSVC\14.29.30133\atlmfc\include\afxtempl.h

; 789  : 	{ ENSURE(m_pNodeHead != NULL);

  0010d	8b 87 98 00 00
	00		 mov	 eax, DWORD PTR [edi+152]
  00113	85 c0		 test	 eax, eax
  00115	0f 84 2c 01 00
	00		 je	 $LN79@GetIndexFr
; File D:\git\src\IBK\IBK_DRFN\ProjSrc\SrcChartEx\ChartOCX\PacketData\PacketImplementation.cpp

; 1400 : 	if(m_lnData.GetHead() > dData)	

  0011b	f2 0f 10 40 08	 movsd	 xmm0, QWORD PTR [eax+8]
  00120	66 0f 2f c1	 comisd	 xmm0, xmm1
  00124	76 13		 jbe	 SHORT $LN32@GetIndexFr

; 1401 : 		return GetIndexOfPast(dData);

  00126	83 ec 08	 sub	 esp, 8
  00129	8b cf		 mov	 ecx, edi
  0012b	f2 0f 11 0c 24	 movsd	 QWORD PTR [esp], xmm1
  00130	e8 00 00 00 00	 call	 ?GetIndexOfPast@CPacketImplementation@@AAEHN@Z ; CPacketImplementation::GetIndexOfPast
  00135	8b f0		 mov	 esi, eax
  00137	eb 3f		 jmp	 SHORT $LN16@GetIndexFr
$LN32@GetIndexFr:

; 1402 : 	//
; 1403 : 	else if(m_lnData.GetTail() < dData)	

  00139	66 0f 2f ca	 comisd	 xmm1, xmm2
  0013d	76 36		 jbe	 SHORT $LN8@GetIndexFr

; 1404 : 		return GetIndexOfFuture(dData);

  0013f	83 ec 08	 sub	 esp, 8
  00142	8b cf		 mov	 ecx, edi
  00144	f2 0f 11 0c 24	 movsd	 QWORD PTR [esp], xmm1
  00149	e8 00 00 00 00	 call	 ?GetIndexOfFuture@CPacketImplementation@@AAEHN@Z ; CPacketImplementation::GetIndexOfFuture
  0014e	8b f0		 mov	 esi, eax

; 1405 : 	
; 1406 : 	//<<20100426_JS.Kim   -1  
; 1407 : 	//return 0;
; 1408 : 	return -1;

  00150	eb 26		 jmp	 SHORT $LN16@GetIndexFr
$LN9@GetIndexFr:

; 979  : 		   m_pParentList->GetDateUnitType() == CScaleBaseData::HORZ_TIME_ONE)	
; 980  : 			//    - ojtaso (20080811)
; 981  : 		    return GetIndexInCaseTypeIsBun(nData, strType);

  00152	8d 45 10	 lea	 eax, DWORD PTR _strType$[ebp]
  00155	50		 push	 eax
  00156	8d 4d f0	 lea	 ecx, DWORD PTR $T5[ebp]
  00159	ff 15 00 00 00
	00		 call	 DWORD PTR __imp_??0?$CStringT@DV?$StrTraitMFC_DLL@DV?$ChTraitsCRT@D@ATL@@@@@ATL@@QAE@ABV01@@Z

; 1292 : 	if(m_lnData.GetCount() <= 0)

  0015f	83 bf a0 00 00
	00 00		 cmp	 DWORD PTR [edi+160], 0
  00166	c6 45 fc 01	 mov	 BYTE PTR __$EHRec$[ebp+8], 1
  0016a	7f 2a		 jg	 SHORT $LN22@GetIndexFr

; 1293 : 		//<<20100426_JS.Kim   -1  
; 1294 : 		//return 0;
; 1295 : 		return -1;

  0016c	8d 4d f0	 lea	 ecx, DWORD PTR $T5[ebp]
  0016f	ff 15 00 00 00
	00		 call	 DWORD PTR __imp_??1?$CStringT@DV?$StrTraitMFC_DLL@DV?$ChTraitsCRT@D@ATL@@@@@ATL@@QAE@XZ
$LN8@GetIndexFr:

; 982  : 		else
; 983  : 			return GetIndexInCaseTypeIsnotBun(nData);
; 984  : 	}
; 985  : 
; 986  : 
; 987  : 	return -1;

  00175	83 ce ff	 or	 esi, -1
$LN16@GetIndexFr:
  00178	8d 4d 10	 lea	 ecx, DWORD PTR _strType$[ebp]
  0017b	ff 15 00 00 00
	00		 call	 DWORD PTR __imp_??1?$CStringT@DV?$StrTraitMFC_DLL@DV?$ChTraitsCRT@D@ATL@@@@@ATL@@QAE@XZ
  00181	8b c6		 mov	 eax, esi

; 988  : }

  00183	8b 4d f4	 mov	 ecx, DWORD PTR __$EHRec$[ebp]
  00186	64 89 0d 00 00
	00 00		 mov	 DWORD PTR fs:0, ecx
  0018d	59		 pop	 ecx
  0018e	5f		 pop	 edi
  0018f	5e		 pop	 esi
  00190	8b e5		 mov	 esp, ebp
  00192	5d		 pop	 ebp
  00193	c2 0c 00	 ret	 12			; 0000000cH
$LN22@GetIndexFr:

; 1300 : 	int nIndex = GetIndexInCaseTypeIsBun_CurData(dData, strType);

  00196	51		 push	 ecx
  00197	8d 45 f0	 lea	 eax, DWORD PTR $T5[ebp]
  0019a	8b cc		 mov	 ecx, esp
  0019c	50		 push	 eax
  0019d	ff 15 00 00 00
	00		 call	 DWORD PTR __imp_??0?$CStringT@DV?$StrTraitMFC_DLL@DV?$ChTraitsCRT@D@ATL@@@@@ATL@@QAE@ABV01@@Z
  001a3	f2 0f 10 45 08	 movsd	 xmm0, QWORD PTR _nData$[ebp]
  001a8	83 ec 08	 sub	 esp, 8
  001ab	8b cf		 mov	 ecx, edi
  001ad	f2 0f 11 04 24	 movsd	 QWORD PTR [esp], xmm0
  001b2	e8 00 00 00 00	 call	 ?GetIndexInCaseTypeIsBun_CurData@CPacketImplementation@@AAEHNV?$CStringT@DV?$StrTraitMFC_DLL@DV?$ChTraitsCRT@D@ATL@@@@@ATL@@@Z ; CPacketImplementation::GetIndexInCaseTypeIsBun_CurData
  001b7	8b f0		 mov	 esi, eax

; 1301 : 	if(nIndex >= 0)

  001b9	85 f6		 test	 esi, esi
  001bb	79 7c		 jns	 SHORT $LN84@GetIndexFr

; 1302 : 		return nIndex;
; 1303 : 
; 1304 : 	int nTailNum = 0, nHeadNum = 0, nDataNum = 0;
; 1305 : 	GetComparisionDatas(dData, nHeadNum, nTailNum, nDataNum);

  001bd	f2 0f 10 45 08	 movsd	 xmm0, QWORD PTR _nData$[ebp]
  001c2	8d 45 e8	 lea	 eax, DWORD PTR _nDataNum$3[ebp]
  001c5	50		 push	 eax
  001c6	8d 45 e4	 lea	 eax, DWORD PTR _nTailNum$2[ebp]
  001c9	c7 45 e4 00 00
	00 00		 mov	 DWORD PTR _nTailNum$2[ebp], 0
  001d0	50		 push	 eax
  001d1	8d 45 ec	 lea	 eax, DWORD PTR _nHeadNum$4[ebp]
  001d4	c7 45 ec 00 00
	00 00		 mov	 DWORD PTR _nHeadNum$4[ebp], 0
  001db	50		 push	 eax
  001dc	83 ec 08	 sub	 esp, 8
  001df	c7 45 e8 00 00
	00 00		 mov	 DWORD PTR _nDataNum$3[ebp], 0
  001e6	8b cf		 mov	 ecx, edi
  001e8	f2 0f 11 04 24	 movsd	 QWORD PTR [esp], xmm0
  001ed	e8 00 00 00 00	 call	 ?GetComparisionDatas@CPacketImplementation@@AAEXNAAH00@Z ; CPacketImplementation::GetComparisionDatas

; 1306 : 
; 1307 : 	//        
; 1308 : 	//
; 1309 : 	if(abs(nTailNum - nDataNum) <= abs(nHeadNum - nDataNum))

  001f2	8b 45 ec	 mov	 eax, DWORD PTR _nHeadNum$4[ebp]
  001f5	83 ec 08	 sub	 esp, 8
  001f8	2b 45 e8	 sub	 eax, DWORD PTR _nDataNum$3[ebp]
  001fb	8b cf		 mov	 ecx, edi
  001fd	f2 0f 10 45 08	 movsd	 xmm0, QWORD PTR _nData$[ebp]
  00202	99		 cdq
  00203	8b f0		 mov	 esi, eax
  00205	f2 0f 11 04 24	 movsd	 QWORD PTR [esp], xmm0
  0020a	8b 45 e4	 mov	 eax, DWORD PTR _nTailNum$2[ebp]
  0020d	33 f2		 xor	 esi, edx
  0020f	2b 45 e8	 sub	 eax, DWORD PTR _nDataNum$3[ebp]
  00212	2b f2		 sub	 esi, edx
  00214	99		 cdq
  00215	33 c2		 xor	 eax, edx
  00217	2b c2		 sub	 eax, edx
  00219	3b c6		 cmp	 eax, esi
  0021b	7f 15		 jg	 SHORT $LN24@GetIndexFr

; 1310 : 		return GetIndexOfFuture(dData);

  0021d	e8 00 00 00 00	 call	 ?GetIndexOfFuture@CPacketImplementation@@AAEHN@Z ; CPacketImplementation::GetIndexOfFuture
  00222	8d 4d f0	 lea	 ecx, DWORD PTR $T5[ebp]
  00225	8b f0		 mov	 esi, eax
  00227	ff 15 00 00 00
	00		 call	 DWORD PTR __imp_??1?$CStringT@DV?$StrTraitMFC_DLL@DV?$ChTraitsCRT@D@ATL@@@@@ATL@@QAE@XZ
  0022d	e9 46 ff ff ff	 jmp	 $LN16@GetIndexFr
$LN24@GetIndexFr:

; 1311 : 	else
; 1312 : 		return GetIndexOfPast(dData);

  00232	e8 00 00 00 00	 call	 ?GetIndexOfPast@CPacketImplementation@@AAEHN@Z ; CPacketImplementation::GetIndexOfPast
  00237	8b f0		 mov	 esi, eax
$LN84@GetIndexFr:

; 982  : 		else
; 983  : 			return GetIndexInCaseTypeIsnotBun(nData);
; 984  : 	}
; 985  : 
; 986  : 
; 987  : 	return -1;

  00239	8d 4d f0	 lea	 ecx, DWORD PTR $T5[ebp]
  0023c	ff 15 00 00 00
	00		 call	 DWORD PTR __imp_??1?$CStringT@DV?$StrTraitMFC_DLL@DV?$ChTraitsCRT@D@ATL@@@@@ATL@@QAE@XZ
  00242	e9 31 ff ff ff	 jmp	 $LN16@GetIndexFr
$LN79@GetIndexFr:
; File C:\Program Files (x86)\Microsoft Visual Studio\2019\Community\VC\Tools\MSVC\14.29.30133\atlmfc\include\afxtempl.h

; 789  : 	{ ENSURE(m_pNodeHead != NULL);

  00247	e8 00 00 00 00	 call	 ?AfxThrowInvalidArgException@@YGXXZ ; AfxThrowInvalidArgException
$LN82@GetIndexFr:
  0024c	cc		 int	 3
_TEXT	ENDS
;	COMDAT text$x
text$x	SEGMENT
__unwindfunclet$?GetIndexFromData@CPacketImplementation@@QAEHNV?$CStringT@DV?$StrTraitMFC_DLL@DV?$ChTraitsCRT@D@ATL@@@@@ATL@@@Z$0:
  00000	8d 4d 10	 lea	 ecx, DWORD PTR _strType$[ebp]
  00003	ff 25 00 00 00
	00		 jmp	 DWORD PTR __imp_??1?$CStringT@DV?$StrTraitMFC_DLL@DV?$ChTraitsCRT@D@ATL@@@@@ATL@@QAE@XZ
__unwindfunclet$?GetIndexFromData@CPacketImplementation@@QAEHNV?$CStringT@DV?$StrTraitMFC_DLL@DV?$ChTraitsCRT@D@ATL@@@@@ATL@@@Z$2:
  00009	8d 4d f0	 lea	 ecx, DWORD PTR $T5[ebp]
  0000c	ff 25 00 00 00
	00		 jmp	 DWORD PTR __imp_??1?$CStringT@DV?$StrTraitMFC_DLL@DV?$ChTraitsCRT@D@ATL@@@@@ATL@@QAE@XZ
  00012	cc		 int	 3
  00013	cc		 int	 3
  00014	cc		 int	 3
  00015	cc		 int	 3
  00016	cc		 int	 3
__ehhandler$?GetIndexFromData@CPacketImplementation@@QAEHNV?$CStringT@DV?$StrTraitMFC_DLL@DV?$ChTraitsCRT@D@ATL@@@@@ATL@@@Z:
  00017	90		 npad	 1
  00018	90		 npad	 1
  00019	8b 54 24 08	 mov	 edx, DWORD PTR [esp+8]
  0001d	8d 42 0c	 lea	 eax, DWORD PTR [edx+12]
  00020	8b 4a e4	 mov	 ecx, DWORD PTR [edx-28]
  00023	33 c8		 xor	 ecx, eax
  00025	e8 00 00 00 00	 call	 @__security_check_cookie@4
  0002a	b8 00 00 00 00	 mov	 eax, OFFSET __ehfuncinfo$?GetIndexFromData@CPacketImplementation@@QAEHNV?$CStringT@DV?$StrTraitMFC_DLL@DV?$ChTraitsCRT@D@ATL@@@@@ATL@@@Z
  0002f	e9 00 00 00 00	 jmp	 ___CxxFrameHandler3
text$x	ENDS
?GetIndexFromData@CPacketImplementation@@QAEHNV?$CStringT@DV?$StrTraitMFC_DLL@DV?$ChTraitsCRT@D@ATL@@@@@ATL@@@Z ENDP ; CPacketImplementation::GetIndexFromData
; Function compile flags: /Ogtp
; File D:\git\src\IBK\IBK_DRFN\ProjSrc\SrcChartEx\ChartOCX\PacketData\PacketImplementation.cpp
;	COMDAT ?SetCommodityBondName@CPacketImplementation@@QAEXW4COMMODITY_BOND_NAME@CPacketType@@@Z
_TEXT	SEGMENT
_eCommodityBondName$ = 8				; size = 4
?SetCommodityBondName@CPacketImplementation@@QAEXW4COMMODITY_BOND_NAME@CPacketType@@@Z PROC ; CPacketImplementation::SetCommodityBondName, COMDAT
; _this$ = ecx

; 1178 : {

  00000	55		 push	 ebp
  00001	8b ec		 mov	 ebp, esp

; 1179 : 	m_eCommodityBondName = eCommodityBondName;

  00003	8b 45 08	 mov	 eax, DWORD PTR _eCommodityBondName$[ebp]
  00006	89 81 80 00 00
	00		 mov	 DWORD PTR [ecx+128], eax

; 1180 : }

  0000c	5d		 pop	 ebp
  0000d	c2 04 00	 ret	 4
?SetCommodityBondName@CPacketImplementation@@QAEXW4COMMODITY_BOND_NAME@CPacketType@@@Z ENDP ; CPacketImplementation::SetCommodityBondName
_TEXT	ENDS
; Function compile flags: /Ogtp
; File D:\git\src\IBK\IBK_DRFN\ProjSrc\SrcChartEx\ChartOCX\PacketData\PacketImplementation.cpp
;	COMDAT ?GetCommodityBondName@CPacketImplementation@@QBE?AW4COMMODITY_BOND_NAME@CPacketType@@XZ
_TEXT	SEGMENT
?GetCommodityBondName@CPacketImplementation@@QBE?AW4COMMODITY_BOND_NAME@CPacketType@@XZ PROC ; CPacketImplementation::GetCommodityBondName, COMDAT
; _this$ = ecx

; 1174 : 	return m_eCommodityBondName;

  00000	8b 81 80 00 00
	00		 mov	 eax, DWORD PTR [ecx+128]

; 1175 : }

  00006	c3		 ret	 0
?GetCommodityBondName@CPacketImplementation@@QBE?AW4COMMODITY_BOND_NAME@CPacketType@@XZ ENDP ; CPacketImplementation::GetCommodityBondName
_TEXT	ENDS
; Function compile flags: /Ogtp
; File D:\git\src\IBK\IBK_DRFN\ProjSrc\SrcChartEx\ChartOCX\PacketData\PacketImplementation.cpp
; File C:\Program Files (x86)\Microsoft Visual Studio\2019\Community\VC\Tools\MSVC\14.29.30133\atlmfc\include\cstringt.h
; File D:\git\src\IBK\IBK_DRFN\ProjSrc\SrcChartEx\ChartOCX\PacketData\PacketImplementation.cpp
; File C:\Program Files (x86)\Microsoft Visual Studio\2019\Community\VC\Tools\MSVC\14.29.30133\atlmfc\include\cstringt.h
; File D:\git\src\IBK\IBK_DRFN\ProjSrc\SrcChartEx\ChartOCX\PacketData\PacketImplementation.cpp
;	COMDAT ?GetDatePacket@CPacketImplementation@@QAEPAVCPacket@@XZ
_TEXT	SEGMENT
?GetDatePacket@CPacketImplementation@@QAEPAVCPacket@@XZ PROC ; CPacketImplementation::GetDatePacket, COMDAT
; _this$ = ecx

; 1161 : {

  00000	55		 push	 ebp
  00001	8b ec		 mov	 ebp, esp
  00003	51		 push	 ecx

; 1162 : 	if(m_Name == _MTEXT( C0_DATE_TIME))

  00004	a1 54 00 00 00	 mov	 eax, DWORD PTR ?g_iMetaTable@@3VIMetaTable@@A+84
  00009	56		 push	 esi
  0000a	8b f1		 mov	 esi, ecx
; File C:\Program Files (x86)\Microsoft Visual Studio\2019\Community\VC\Tools\MSVC\14.29.30133\atlmfc\include\cstringt.h

; 2486 : 		return(str1.Compare(psz2) == 0);

  0000c	ff 30		 push	 DWORD PTR [eax]
; File D:\git\src\IBK\IBK_DRFN\ProjSrc\SrcChartEx\ChartOCX\PacketData\PacketImplementation.cpp

; 1162 : 	if(m_Name == _MTEXT( C0_DATE_TIME))

  0000e	8d 8e 88 00 00
	00		 lea	 ecx, DWORD PTR [esi+136]
; File C:\Program Files (x86)\Microsoft Visual Studio\2019\Community\VC\Tools\MSVC\14.29.30133\atlmfc\include\cstringt.h

; 2486 : 		return(str1.Compare(psz2) == 0);

  00014	ff 15 00 00 00
	00		 call	 DWORD PTR __imp_?Compare@?$CStringT@DV?$StrTraitMFC_DLL@DV?$ChTraitsCRT@D@ATL@@@@@ATL@@QBEHPBD@Z
  0001a	85 c0		 test	 eax, eax
; File D:\git\src\IBK\IBK_DRFN\ProjSrc\SrcChartEx\ChartOCX\PacketData\PacketImplementation.cpp

; 1162 : 	if(m_Name == _MTEXT( C0_DATE_TIME))

  0001c	75 08		 jne	 SHORT $LN2@GetDatePac

; 1163 : 		return m_pPacket;

  0001e	8b 46 08	 mov	 eax, DWORD PTR [esi+8]

; 1169 : }

  00021	5e		 pop	 esi
  00022	8b e5		 mov	 esp, ebp
  00024	5d		 pop	 ebp
  00025	c3		 ret	 0
$LN2@GetDatePac:

; 1164 : 	
; 1165 : 	if(m_pParentList)

  00026	83 be cc 00 00
	00 00		 cmp	 DWORD PTR [esi+204], 0
  0002d	74 22		 je	 SHORT $LN3@GetDatePac

; 1166 : 		return m_pParentList->GetBaseData( _MTEXT( C0_DATE_TIME));

  0002f	a1 54 00 00 00	 mov	 eax, DWORD PTR ?g_iMetaTable@@3VIMetaTable@@A+84
  00034	6a 01		 push	 1
  00036	51		 push	 ecx
  00037	8b cc		 mov	 ecx, esp
  00039	ff 30		 push	 DWORD PTR [eax]
  0003b	ff 15 00 00 00
	00		 call	 DWORD PTR __imp_??0?$CStringT@DV?$StrTraitMFC_DLL@DV?$ChTraitsCRT@D@ATL@@@@@ATL@@QAE@PBD@Z
  00041	8b 8e cc 00 00
	00		 mov	 ecx, DWORD PTR [esi+204]
  00047	e8 00 00 00 00	 call	 ?GetBaseData@CPacketList@@QAEPAVCPacket@@V?$CStringT@DV?$StrTraitMFC_DLL@DV?$ChTraitsCRT@D@ATL@@@@@ATL@@_N@Z ; CPacketList::GetBaseData

; 1169 : }

  0004c	5e		 pop	 esi
  0004d	8b e5		 mov	 esp, ebp
  0004f	5d		 pop	 ebp
  00050	c3		 ret	 0
$LN3@GetDatePac:

; 1167 : 
; 1168 : 	return NULL;

  00051	33 c0		 xor	 eax, eax

; 1169 : }

  00053	5e		 pop	 esi
  00054	8b e5		 mov	 esp, ebp
  00056	5d		 pop	 ebp
  00057	c3		 ret	 0
?GetDatePacket@CPacketImplementation@@QAEPAVCPacket@@XZ ENDP ; CPacketImplementation::GetDatePacket
_TEXT	ENDS
; Function compile flags: /Ogtp
; File D:\git\src\IBK\IBK_DRFN\ProjSrc\SrcChartEx\ChartOCX\PacketData\PacketImplementation.cpp
;	COMDAT ?GetPacketList@CPacketImplementation@@QAEPAVCPacketList@@XZ
_TEXT	SEGMENT
?GetPacketList@CPacketImplementation@@QAEPAVCPacketList@@XZ PROC ; CPacketImplementation::GetPacketList, COMDAT
; _this$ = ecx

; 1227 : 	return m_pParentList;

  00000	8b 81 cc 00 00
	00		 mov	 eax, DWORD PTR [ecx+204]

; 1228 : }

  00006	c3		 ret	 0
?GetPacketList@CPacketImplementation@@QAEPAVCPacketList@@XZ ENDP ; CPacketImplementation::GetPacketList
_TEXT	ENDS
; Function compile flags: /Ogtp
; File D:\git\src\IBK\IBK_DRFN\ProjSrc\SrcChartEx\ChartOCX\PacketData\PacketImplementation.cpp
;	COMDAT ?GetName@CPacketImplementation@@QAE?AV?$CStringT@DV?$StrTraitMFC_DLL@DV?$ChTraitsCRT@D@ATL@@@@@ATL@@XZ
_TEXT	SEGMENT
___$ReturnUdt$ = 8					; size = 4
?GetName@CPacketImplementation@@QAE?AV?$CStringT@DV?$StrTraitMFC_DLL@DV?$ChTraitsCRT@D@ATL@@@@@ATL@@XZ PROC ; CPacketImplementation::GetName, COMDAT
; _this$ = ecx

; 72   : {

  00000	55		 push	 ebp
  00001	8b ec		 mov	 ebp, esp

; 73   : 	return m_Name ;

  00003	8d 81 88 00 00
	00		 lea	 eax, DWORD PTR [ecx+136]
  00009	8b 4d 08	 mov	 ecx, DWORD PTR ___$ReturnUdt$[ebp]
  0000c	50		 push	 eax
  0000d	ff 15 00 00 00
	00		 call	 DWORD PTR __imp_??0?$CStringT@DV?$StrTraitMFC_DLL@DV?$ChTraitsCRT@D@ATL@@@@@ATL@@QAE@ABV01@@Z
  00013	8b 45 08	 mov	 eax, DWORD PTR ___$ReturnUdt$[ebp]

; 74   : }

  00016	5d		 pop	 ebp
  00017	c2 04 00	 ret	 4
?GetName@CPacketImplementation@@QAE?AV?$CStringT@DV?$StrTraitMFC_DLL@DV?$ChTraitsCRT@D@ATL@@@@@ATL@@XZ ENDP ; CPacketImplementation::GetName
_TEXT	ENDS
; Function compile flags: /Ogtp
; File D:\git\src\IBK\IBK_DRFN\ProjSrc\SrcChartEx\ChartOCX\PacketData\PacketImplementation.cpp
;	COMDAT ?GetFieldName@CPacketImplementation@@QAE?AV?$CStringT@DV?$StrTraitMFC_DLL@DV?$ChTraitsCRT@D@ATL@@@@@ATL@@XZ
_TEXT	SEGMENT
___$ReturnUdt$ = 8					; size = 4
?GetFieldName@CPacketImplementation@@QAE?AV?$CStringT@DV?$StrTraitMFC_DLL@DV?$ChTraitsCRT@D@ATL@@@@@ATL@@XZ PROC ; CPacketImplementation::GetFieldName, COMDAT
; _this$ = ecx

; 77   : {

  00000	55		 push	 ebp
  00001	8b ec		 mov	 ebp, esp

; 78   : 	return m_FieldName ;

  00003	8d 81 84 00 00
	00		 lea	 eax, DWORD PTR [ecx+132]
  00009	8b 4d 08	 mov	 ecx, DWORD PTR ___$ReturnUdt$[ebp]
  0000c	50		 push	 eax
  0000d	ff 15 00 00 00
	00		 call	 DWORD PTR __imp_??0?$CStringT@DV?$StrTraitMFC_DLL@DV?$ChTraitsCRT@D@ATL@@@@@ATL@@QAE@ABV01@@Z
  00013	8b 45 08	 mov	 eax, DWORD PTR ___$ReturnUdt$[ebp]

; 79   : }

  00016	5d		 pop	 ebp
  00017	c2 04 00	 ret	 4
?GetFieldName@CPacketImplementation@@QAE?AV?$CStringT@DV?$StrTraitMFC_DLL@DV?$ChTraitsCRT@D@ATL@@@@@ATL@@XZ ENDP ; CPacketImplementation::GetFieldName
_TEXT	ENDS
; Function compile flags: /Ogtp
; File D:\git\src\IBK\IBK_DRFN\ProjSrc\SrcChartEx\ChartOCX\PacketData\PacketImplementation.cpp
;	COMDAT ?GetMaxCount@CPacketImplementation@@QAEHXZ
_TEXT	SEGMENT
?GetMaxCount@CPacketImplementation@@QAEHXZ PROC		; CPacketImplementation::GetMaxCount, COMDAT
; _this$ = ecx

; 122  : 	return m_pParentList->GetMaxCount();

  00000	8b 89 cc 00 00
	00		 mov	 ecx, DWORD PTR [ecx+204]
  00006	e9 00 00 00 00	 jmp	 ?GetMaxCount@CPacketList@@QAEHXZ ; CPacketList::GetMaxCount
?GetMaxCount@CPacketImplementation@@QAEHXZ ENDP		; CPacketImplementation::GetMaxCount
_TEXT	ENDS
; Function compile flags: /Ogtp
; File D:\git\src\IBK\IBK_DRFN\ProjSrc\SrcChartEx\ChartOCX\PacketData\PacketImplementation.cpp
; File C:\Program Files (x86)\Microsoft Visual Studio\2019\Community\VC\Tools\MSVC\14.29.30133\atlmfc\include\cstringt.h
; File D:\git\src\IBK\IBK_DRFN\ProjSrc\SrcChartEx\ChartOCX\PacketData\PacketImplementation.cpp
; File C:\Program Files (x86)\Microsoft Visual Studio\2019\Community\VC\Tools\MSVC\14.29.30133\atlmfc\include\cstringt.h
; File D:\git\src\IBK\IBK_DRFN\ProjSrc\SrcChartEx\ChartOCX\PacketData\PacketImplementation.cpp
;	COMDAT ?GetDataCount@CPacketImplementation@@QAEHXZ
_TEXT	SEGMENT
?GetDataCount@CPacketImplementation@@QAEHXZ PROC	; CPacketImplementation::GetDataCount, COMDAT
; _this$ = ecx

; 114  : 	if(m_Type == _MTEXT( C6_CHARACTER))

  00000	a1 54 00 00 00	 mov	 eax, DWORD PTR ?g_iMetaTable@@3VIMetaTable@@A+84
  00005	56		 push	 esi
  00006	8b f1		 mov	 esi, ecx
; File C:\Program Files (x86)\Microsoft Visual Studio\2019\Community\VC\Tools\MSVC\14.29.30133\atlmfc\include\cstringt.h

; 2486 : 		return(str1.Compare(psz2) == 0);

  00008	ff b0 60 09 00
	00		 push	 DWORD PTR [eax+2400]
; File D:\git\src\IBK\IBK_DRFN\ProjSrc\SrcChartEx\ChartOCX\PacketData\PacketImplementation.cpp

; 114  : 	if(m_Type == _MTEXT( C6_CHARACTER))

  0000e	8d 4e 64	 lea	 ecx, DWORD PTR [esi+100]
; File C:\Program Files (x86)\Microsoft Visual Studio\2019\Community\VC\Tools\MSVC\14.29.30133\atlmfc\include\cstringt.h

; 2486 : 		return(str1.Compare(psz2) == 0);

  00011	ff 15 00 00 00
	00		 call	 DWORD PTR __imp_?Compare@?$CStringT@DV?$StrTraitMFC_DLL@DV?$ChTraitsCRT@D@ATL@@@@@ATL@@QBEHPBD@Z
  00017	85 c0		 test	 eax, eax
; File D:\git\src\IBK\IBK_DRFN\ProjSrc\SrcChartEx\ChartOCX\PacketData\PacketImplementation.cpp

; 114  : 	if(m_Type == _MTEXT( C6_CHARACTER))

  00019	75 0b		 jne	 SHORT $LN2@GetDataCou

; 115  : 		return m_lstrData.GetCount() - m_nStartPeriod;

  0001b	8b 86 bc 00 00
	00		 mov	 eax, DWORD PTR [esi+188]

; 118  : }

  00021	2b 46 24	 sub	 eax, DWORD PTR [esi+36]
  00024	5e		 pop	 esi
  00025	c3		 ret	 0
$LN2@GetDataCou:

; 116  : 	else
; 117  : 		return m_lnData.GetCount() - m_nStartPeriod;

  00026	8b 86 a0 00 00
	00		 mov	 eax, DWORD PTR [esi+160]

; 118  : }

  0002c	2b 46 24	 sub	 eax, DWORD PTR [esi+36]
  0002f	5e		 pop	 esi
  00030	c3		 ret	 0
?GetDataCount@CPacketImplementation@@QAEHXZ ENDP	; CPacketImplementation::GetDataCount
_TEXT	ENDS
; Function compile flags: /Ogtp
; File D:\git\src\IBK\IBK_DRFN\ProjSrc\SrcChartEx\ChartOCX\PacketData\PacketImplementation.cpp
; File C:\Program Files (x86)\Microsoft Visual Studio\2019\Community\VC\Tools\MSVC\14.29.30133\atlmfc\include\cstringt.h
; File D:\git\src\IBK\IBK_DRFN\ProjSrc\SrcChartEx\ChartOCX\PacketData\PacketImplementation.cpp
; File C:\Program Files (x86)\Microsoft Visual Studio\2019\Community\VC\Tools\MSVC\14.29.30133\atlmfc\include\cstringt.h
; File D:\git\src\IBK\IBK_DRFN\ProjSrc\SrcChartEx\ChartOCX\PacketData\PacketImplementation.cpp
;	COMDAT ?GetCount@CPacketImplementation@@QBEHXZ
_TEXT	SEGMENT
?GetCount@CPacketImplementation@@QBEHXZ PROC		; CPacketImplementation::GetCount, COMDAT
; _this$ = ecx

; 106  : 	if(m_Type == _MTEXT( C6_CHARACTER))

  00000	a1 54 00 00 00	 mov	 eax, DWORD PTR ?g_iMetaTable@@3VIMetaTable@@A+84
  00005	56		 push	 esi
  00006	8b f1		 mov	 esi, ecx
; File C:\Program Files (x86)\Microsoft Visual Studio\2019\Community\VC\Tools\MSVC\14.29.30133\atlmfc\include\cstringt.h

; 2486 : 		return(str1.Compare(psz2) == 0);

  00008	ff b0 60 09 00
	00		 push	 DWORD PTR [eax+2400]
; File D:\git\src\IBK\IBK_DRFN\ProjSrc\SrcChartEx\ChartOCX\PacketData\PacketImplementation.cpp

; 106  : 	if(m_Type == _MTEXT( C6_CHARACTER))

  0000e	8d 4e 64	 lea	 ecx, DWORD PTR [esi+100]
; File C:\Program Files (x86)\Microsoft Visual Studio\2019\Community\VC\Tools\MSVC\14.29.30133\atlmfc\include\cstringt.h

; 2486 : 		return(str1.Compare(psz2) == 0);

  00011	ff 15 00 00 00
	00		 call	 DWORD PTR __imp_?Compare@?$CStringT@DV?$StrTraitMFC_DLL@DV?$ChTraitsCRT@D@ATL@@@@@ATL@@QBEHPBD@Z
  00017	85 c0		 test	 eax, eax
; File D:\git\src\IBK\IBK_DRFN\ProjSrc\SrcChartEx\ChartOCX\PacketData\PacketImplementation.cpp

; 106  : 	if(m_Type == _MTEXT( C6_CHARACTER))

  00019	75 08		 jne	 SHORT $LN2@GetCount

; 107  : 		return m_lstrData.GetCount();

  0001b	8b 86 bc 00 00
	00		 mov	 eax, DWORD PTR [esi+188]
  00021	5e		 pop	 esi

; 110  : }

  00022	c3		 ret	 0
$LN2@GetCount:

; 108  : 	else
; 109  : 		return m_lnData.GetCount();

  00023	8b 86 a0 00 00
	00		 mov	 eax, DWORD PTR [esi+160]
  00029	5e		 pop	 esi

; 110  : }

  0002a	c3		 ret	 0
?GetCount@CPacketImplementation@@QBEHXZ ENDP		; CPacketImplementation::GetCount
_TEXT	ENDS
; Function compile flags: /Ogtp
; File D:\git\src\IBK\IBK_DRFN\ProjSrc\SrcChartEx\ChartOCX\PacketData\PacketImplementation.cpp
;	COMDAT ?GetLength@CPacketImplementation@@QAEHXZ
_TEXT	SEGMENT
?GetLength@CPacketImplementation@@QAEHXZ PROC		; CPacketImplementation::GetLength, COMDAT
; _this$ = ecx

; 235  : 	return m_nLength ;

  00000	8b 41 28	 mov	 eax, DWORD PTR [ecx+40]

; 236  : }

  00003	c3		 ret	 0
?GetLength@CPacketImplementation@@QAEHXZ ENDP		; CPacketImplementation::GetLength
_TEXT	ENDS
; Function compile flags: /Ogtp
; File D:\git\src\IBK\IBK_DRFN\ProjSrc\SrcChartEx\ChartOCX\PacketData\PacketImplementation.cpp
; File C:\Program Files (x86)\Microsoft Visual Studio\2019\Community\VC\Tools\MSVC\14.29.30133\atlmfc\include\atlsimpstr.h
; File D:\git\src\IBK\IBK_DRFN\ProjSrc\SrcChartEx\ChartOCX\PacketData\PacketImplementation.cpp
; File C:\Program Files (x86)\Microsoft Visual Studio\2019\Community\VC\Tools\MSVC\14.29.30133\atlmfc\include\cstringt.h
; File D:\git\src\IBK\IBK_DRFN\ProjSrc\SrcChartEx\ChartOCX\PacketData\PacketImplementation.cpp
; File C:\Program Files (x86)\Microsoft Visual Studio\2019\Community\VC\Tools\MSVC\14.29.30133\atlmfc\include\cstringt.h
; File D:\git\src\IBK\IBK_DRFN\ProjSrc\SrcChartEx\ChartOCX\PacketData\PacketImplementation.cpp
;	COMDAT ?IsChangeRealData@CPacketImplementation@@QBE_NXZ
_TEXT	SEGMENT
?IsChangeRealData@CPacketImplementation@@QBE_NXZ PROC	; CPacketImplementation::IsChangeRealData, COMDAT
; _this$ = ecx

; 1577 : {

  00000	56		 push	 esi
  00001	57		 push	 edi
  00002	8b f9		 mov	 edi, ecx
; File C:\Program Files (x86)\Microsoft Visual Studio\2019\Community\VC\Tools\MSVC\14.29.30133\atlmfc\include\atlsimpstr.h

; 533  : 		return( GetLength() == 0 );

  00004	8b 87 88 00 00
	00		 mov	 eax, DWORD PTR [edi+136]
  0000a	83 78 f4 00	 cmp	 DWORD PTR [eax-12], 0
; File D:\git\src\IBK\IBK_DRFN\ProjSrc\SrcChartEx\ChartOCX\PacketData\PacketImplementation.cpp

; 1567 : 	if(m_Name.IsEmpty())

  0000e	74 47		 je	 SHORT $LN19@IsChangeRe

; 1571 : 	return (m_Name == _MTEXT( C0_VOLUME) || m_Name == _MTEXT( C2_VOLUME_AMOUNT));

  00010	a1 54 00 00 00	 mov	 eax, DWORD PTR ?g_iMetaTable@@3VIMetaTable@@A+84
; File C:\Program Files (x86)\Microsoft Visual Studio\2019\Community\VC\Tools\MSVC\14.29.30133\atlmfc\include\cstringt.h

; 2486 : 		return(str1.Compare(psz2) == 0);

  00015	8d 8f 88 00 00
	00		 lea	 ecx, DWORD PTR [edi+136]
  0001b	ff 70 1c	 push	 DWORD PTR [eax+28]
  0001e	ff 15 00 00 00
	00		 call	 DWORD PTR __imp_?Compare@?$CStringT@DV?$StrTraitMFC_DLL@DV?$ChTraitsCRT@D@ATL@@@@@ATL@@QBEHPBD@Z
  00024	85 c0		 test	 eax, eax
; File D:\git\src\IBK\IBK_DRFN\ProjSrc\SrcChartEx\ChartOCX\PacketData\PacketImplementation.cpp

; 1571 : 	return (m_Name == _MTEXT( C0_VOLUME) || m_Name == _MTEXT( C2_VOLUME_AMOUNT));

  00026	74 1b		 je	 SHORT $LN2@IsChangeRe
  00028	a1 54 00 00 00	 mov	 eax, DWORD PTR ?g_iMetaTable@@3VIMetaTable@@A+84
; File C:\Program Files (x86)\Microsoft Visual Studio\2019\Community\VC\Tools\MSVC\14.29.30133\atlmfc\include\cstringt.h

; 2486 : 		return(str1.Compare(psz2) == 0);

  0002d	8d 8f 88 00 00
	00		 lea	 ecx, DWORD PTR [edi+136]
  00033	ff b0 a0 04 00
	00		 push	 DWORD PTR [eax+1184]
  00039	ff 15 00 00 00
	00		 call	 DWORD PTR __imp_?Compare@?$CStringT@DV?$StrTraitMFC_DLL@DV?$ChTraitsCRT@D@ATL@@@@@ATL@@QBEHPBD@Z
  0003f	85 c0		 test	 eax, eax
; File D:\git\src\IBK\IBK_DRFN\ProjSrc\SrcChartEx\ChartOCX\PacketData\PacketImplementation.cpp

; 1571 : 	return (m_Name == _MTEXT( C0_VOLUME) || m_Name == _MTEXT( C2_VOLUME_AMOUNT));

  00041	75 14		 jne	 SHORT $LN19@IsChangeRe
$LN2@IsChangeRe:

; 1581 : 
; 1582 : 	//    real data  .
; 1583 : 	return (m_pParentList->GetDateUnitType() != CScaleBaseData::HORZ_DAILY);

  00043	8b 8f cc 00 00
	00		 mov	 ecx, DWORD PTR [edi+204]
  00049	e8 00 00 00 00	 call	 ?GetDateUnitType@CPacketList@@QAE?AW4HORZSCALEDRAWERTYPE@CScaleBaseData@@XZ ; CPacketList::GetDateUnitType
  0004e	83 f8 01	 cmp	 eax, 1
  00051	5f		 pop	 edi
  00052	0f 95 c0	 setne	 al

; 1584 : }

  00055	5e		 pop	 esi
  00056	c3		 ret	 0
$LN19@IsChangeRe:
  00057	5f		 pop	 edi

; 1578 : 	// "", ""
; 1579 : 	if(!IsZeroBasePacket())
; 1580 : 		return false;

  00058	32 c0		 xor	 al, al

; 1584 : }

  0005a	5e		 pop	 esi
  0005b	c3		 ret	 0
?IsChangeRealData@CPacketImplementation@@QBE_NXZ ENDP	; CPacketImplementation::IsChangeRealData
_TEXT	ENDS
; Function compile flags: /Ogtp
; File D:\git\src\IBK\IBK_DRFN\ProjSrc\SrcChartEx\ChartOCX\PacketData\PacketImplementation.cpp
; File C:\Program Files (x86)\Microsoft Visual Studio\2019\Community\VC\Tools\MSVC\14.29.30133\atlmfc\include\atlsimpstr.h
; File D:\git\src\IBK\IBK_DRFN\ProjSrc\SrcChartEx\ChartOCX\PacketData\PacketImplementation.cpp
; File C:\Program Files (x86)\Microsoft Visual Studio\2019\Community\VC\Tools\MSVC\14.29.30133\atlmfc\include\atlsimpstr.h
; File D:\git\src\IBK\IBK_DRFN\ProjSrc\SrcChartEx\ChartOCX\PacketData\PacketImplementation.cpp
; File C:\Program Files (x86)\Microsoft Visual Studio\2019\Community\VC\Tools\MSVC\14.29.30133\atlmfc\include\cstringt.h
; File D:\git\src\IBK\IBK_DRFN\ProjSrc\SrcChartEx\ChartOCX\PacketData\PacketImplementation.cpp
; File C:\Program Files (x86)\Microsoft Visual Studio\2019\Community\VC\Tools\MSVC\14.29.30133\atlmfc\include\cstringt.h
; File D:\git\src\IBK\IBK_DRFN\ProjSrc\SrcChartEx\ChartOCX\PacketData\PacketImplementation.cpp
;	COMDAT ?IsZeroBasePacket@CPacketImplementation@@QBE_NXZ
_TEXT	SEGMENT
?IsZeroBasePacket@CPacketImplementation@@QBE_NXZ PROC	; CPacketImplementation::IsZeroBasePacket, COMDAT
; _this$ = ecx
; File C:\Program Files (x86)\Microsoft Visual Studio\2019\Community\VC\Tools\MSVC\14.29.30133\atlmfc\include\atlsimpstr.h

; 533  : 		return( GetLength() == 0 );

  00000	8b 81 88 00 00
	00		 mov	 eax, DWORD PTR [ecx+136]
; File D:\git\src\IBK\IBK_DRFN\ProjSrc\SrcChartEx\ChartOCX\PacketData\PacketImplementation.cpp

; 1566 : {

  00006	56		 push	 esi
; File C:\Program Files (x86)\Microsoft Visual Studio\2019\Community\VC\Tools\MSVC\14.29.30133\atlmfc\include\atlsimpstr.h

; 800  : 		return( reinterpret_cast< CStringData* >( m_pszData )-1 );

  00007	8d b1 88 00 00
	00		 lea	 esi, DWORD PTR [ecx+136]

; 533  : 		return( GetLength() == 0 );

  0000d	83 78 f4 00	 cmp	 DWORD PTR [eax-12], 0
; File D:\git\src\IBK\IBK_DRFN\ProjSrc\SrcChartEx\ChartOCX\PacketData\PacketImplementation.cpp

; 1567 : 	if(m_Name.IsEmpty())

  00011	75 04		 jne	 SHORT $LN2@IsZeroBase
$LN16@IsZeroBase:

; 1572 : }

  00013	32 c0		 xor	 al, al
  00015	5e		 pop	 esi
  00016	c3		 ret	 0
$LN2@IsZeroBase:

; 1571 : 	return (m_Name == _MTEXT( C0_VOLUME) || m_Name == _MTEXT( C2_VOLUME_AMOUNT));

  00017	a1 54 00 00 00	 mov	 eax, DWORD PTR ?g_iMetaTable@@3VIMetaTable@@A+84
; File C:\Program Files (x86)\Microsoft Visual Studio\2019\Community\VC\Tools\MSVC\14.29.30133\atlmfc\include\cstringt.h

; 2486 : 		return(str1.Compare(psz2) == 0);

  0001c	8b ce		 mov	 ecx, esi
  0001e	ff 70 1c	 push	 DWORD PTR [eax+28]
  00021	ff 15 00 00 00
	00		 call	 DWORD PTR __imp_?Compare@?$CStringT@DV?$StrTraitMFC_DLL@DV?$ChTraitsCRT@D@ATL@@@@@ATL@@QBEHPBD@Z
  00027	85 c0		 test	 eax, eax
; File D:\git\src\IBK\IBK_DRFN\ProjSrc\SrcChartEx\ChartOCX\PacketData\PacketImplementation.cpp

; 1571 : 	return (m_Name == _MTEXT( C0_VOLUME) || m_Name == _MTEXT( C2_VOLUME_AMOUNT));

  00029	74 17		 je	 SHORT $LN4@IsZeroBase
  0002b	a1 54 00 00 00	 mov	 eax, DWORD PTR ?g_iMetaTable@@3VIMetaTable@@A+84
; File C:\Program Files (x86)\Microsoft Visual Studio\2019\Community\VC\Tools\MSVC\14.29.30133\atlmfc\include\cstringt.h

; 2486 : 		return(str1.Compare(psz2) == 0);

  00030	8b ce		 mov	 ecx, esi
  00032	ff b0 a0 04 00
	00		 push	 DWORD PTR [eax+1184]
  00038	ff 15 00 00 00
	00		 call	 DWORD PTR __imp_?Compare@?$CStringT@DV?$StrTraitMFC_DLL@DV?$ChTraitsCRT@D@ATL@@@@@ATL@@QBEHPBD@Z
  0003e	85 c0		 test	 eax, eax
; File D:\git\src\IBK\IBK_DRFN\ProjSrc\SrcChartEx\ChartOCX\PacketData\PacketImplementation.cpp

; 1571 : 	return (m_Name == _MTEXT( C0_VOLUME) || m_Name == _MTEXT( C2_VOLUME_AMOUNT));

  00040	75 d1		 jne	 SHORT $LN16@IsZeroBase
$LN4@IsZeroBase:
  00042	b0 01		 mov	 al, 1
  00044	5e		 pop	 esi

; 1572 : }

  00045	c3		 ret	 0
?IsZeroBasePacket@CPacketImplementation@@QBE_NXZ ENDP	; CPacketImplementation::IsZeroBasePacket
_TEXT	ENDS
; Function compile flags: /Ogtp
; File D:\git\src\IBK\IBK_DRFN\ProjSrc\SrcChartEx\ChartOCX\PacketData\PacketImplementation.cpp
;	COMDAT ?IsAcceptFromServer@CPacketImplementation@@QBE_NXZ
_TEXT	SEGMENT
?IsAcceptFromServer@CPacketImplementation@@QBE_NXZ PROC	; CPacketImplementation::IsAcceptFromServer, COMDAT
; _this$ = ecx

; 84   : 	return m_bAcceptFromServer;

  00000	8a 41 22	 mov	 al, BYTE PTR [ecx+34]

; 85   : }

  00003	c3		 ret	 0
?IsAcceptFromServer@CPacketImplementation@@QBE_NXZ ENDP	; CPacketImplementation::IsAcceptFromServer
_TEXT	ENDS
; Function compile flags: /Ogtp
; File D:\git\src\IBK\IBK_DRFN\ProjSrc\SrcChartEx\ChartOCX\PacketData\PacketImplementation.cpp
;	COMDAT ?IsTRData@CPacketImplementation@@QBE_NXZ
_TEXT	SEGMENT
?IsTRData@CPacketImplementation@@QBE_NXZ PROC		; CPacketImplementation::IsTRData, COMDAT
; _this$ = ecx

; 230  : 	return m_bBaseData;

  00000	8a 41 21	 mov	 al, BYTE PTR [ecx+33]

; 231  : }

  00003	c3		 ret	 0
?IsTRData@CPacketImplementation@@QBE_NXZ ENDP		; CPacketImplementation::IsTRData
_TEXT	ENDS
; Function compile flags: /Ogtp
; File D:\git\src\IBK\IBK_DRFN\ProjSrc\SrcChartEx\ChartOCX\PacketData\PacketImplementation.cpp
;	COMDAT ?SetAcceptFromServer@CPacketImplementation@@QAEX_N@Z
_TEXT	SEGMENT
_bAcceptFromServer$ = 8					; size = 1
?SetAcceptFromServer@CPacketImplementation@@QAEX_N@Z PROC ; CPacketImplementation::SetAcceptFromServer, COMDAT
; _this$ = ecx

; 88   : {

  00000	55		 push	 ebp
  00001	8b ec		 mov	 ebp, esp

; 89   : 	m_bAcceptFromServer = bAcceptFromServer;

  00003	8a 45 08	 mov	 al, BYTE PTR _bAcceptFromServer$[ebp]
  00006	88 41 22	 mov	 BYTE PTR [ecx+34], al

; 90   : }

  00009	5d		 pop	 ebp
  0000a	c2 04 00	 ret	 4
?SetAcceptFromServer@CPacketImplementation@@QAEX_N@Z ENDP ; CPacketImplementation::SetAcceptFromServer
_TEXT	ENDS
; Function compile flags: /Ogtp
; File D:\git\src\IBK\IBK_DRFN\ProjSrc\SrcChartEx\ChartOCX\PacketData\PacketImplementation.cpp
;	COMDAT ?SetYesOrNoBaseData@CPacketImplementation@@QAEX_N@Z
_TEXT	SEGMENT
_bBaseData$ = 8						; size = 1
?SetYesOrNoBaseData@CPacketImplementation@@QAEX_N@Z PROC ; CPacketImplementation::SetYesOrNoBaseData, COMDAT
; _this$ = ecx

; 571  : {

  00000	55		 push	 ebp
  00001	8b ec		 mov	 ebp, esp

; 572  : 	m_bBaseData = bBaseData;

  00003	8a 45 08	 mov	 al, BYTE PTR _bBaseData$[ebp]
  00006	88 41 21	 mov	 BYTE PTR [ecx+33], al

; 573  : }

  00009	5d		 pop	 ebp
  0000a	c2 04 00	 ret	 4
?SetYesOrNoBaseData@CPacketImplementation@@QAEX_N@Z ENDP ; CPacketImplementation::SetYesOrNoBaseData
_TEXT	ENDS
; Function compile flags: /Ogtp
; File D:\git\src\IBK\IBK_DRFN\ProjSrc\SrcChartEx\ChartOCX\PacketData\PacketImplementation.cpp
;	COMDAT ?SetBaseData@CPacketImplementation@@QAEXABV?$CStringT@DV?$StrTraitMFC_DLL@DV?$ChTraitsCRT@D@ATL@@@@@ATL@@0H_N@Z
_TEXT	SEGMENT
_strType$ = 8						; size = 4
_strExpressionType$ = 12				; size = 4
_nStartPeriod$ = 16					; size = 4
_bIsAutoMinMax$ = 20					; size = 1
?SetBaseData@CPacketImplementation@@QAEXABV?$CStringT@DV?$StrTraitMFC_DLL@DV?$ChTraitsCRT@D@ATL@@@@@ATL@@0H_N@Z PROC ; CPacketImplementation::SetBaseData, COMDAT
; _this$ = ecx

; 1058 : {

  00000	55		 push	 ebp
  00001	8b ec		 mov	 ebp, esp
  00003	56		 push	 esi

; 1059 : 	m_Type = strType ;

  00004	ff 75 08	 push	 DWORD PTR _strType$[ebp]
  00007	8b f1		 mov	 esi, ecx
  00009	8d 4e 64	 lea	 ecx, DWORD PTR [esi+100]
  0000c	ff 15 00 00 00
	00		 call	 DWORD PTR __imp_??4?$CStringT@DV?$StrTraitMFC_DLL@DV?$ChTraitsCRT@D@ATL@@@@@ATL@@QAEAAV01@ABV01@@Z

; 1060 : 	m_ExpressionType = strExpressionType ;

  00012	ff 75 0c	 push	 DWORD PTR _strExpressionType$[ebp]
  00015	8d 4e 68	 lea	 ecx, DWORD PTR [esi+104]
  00018	ff 15 00 00 00
	00		 call	 DWORD PTR __imp_??4?$CStringT@DV?$StrTraitMFC_DLL@DV?$ChTraitsCRT@D@ATL@@@@@ATL@@QAEAAV01@ABV01@@Z

; 1061 : 
; 1062 : //	//sy 2005.06.16.   .
; 1063 : //	if(bIsAutoMinMax && m_nStartPeriod != nStartPeriod)
; 1064 : //	{
; 1065 : //		m_nStartPeriod = nStartPeriod;
; 1066 : //		ResetMinMax();
; 1067 : //	}
; 1068 : 	m_nStartPeriod = nStartPeriod;

  0001e	8b 45 10	 mov	 eax, DWORD PTR _nStartPeriod$[ebp]
  00021	89 46 24	 mov	 DWORD PTR [esi+36], eax
  00024	5e		 pop	 esi

; 1069 : }

  00025	5d		 pop	 ebp
  00026	c2 10 00	 ret	 16			; 00000010H
?SetBaseData@CPacketImplementation@@QAEXABV?$CStringT@DV?$StrTraitMFC_DLL@DV?$ChTraitsCRT@D@ATL@@@@@ATL@@0H_N@Z ENDP ; CPacketImplementation::SetBaseData
_TEXT	ENDS
; Function compile flags: /Ogtp
; File D:\git\src\IBK\IBK_DRFN\ProjSrc\SrcChartEx\ChartOCX\PacketData\PacketImplementation.cpp
; File C:\Program Files (x86)\Microsoft Visual Studio\2019\Community\VC\Tools\MSVC\14.29.30133\atlmfc\include\cstringt.h
; File D:\git\src\IBK\IBK_DRFN\ProjSrc\SrcChartEx\ChartOCX\PacketData\PacketImplementation.cpp
; File C:\Program Files (x86)\Microsoft Visual Studio\2019\Community\VC\Tools\MSVC\14.29.30133\atlmfc\include\cstringt.h
; File D:\git\src\IBK\IBK_DRFN\ProjSrc\SrcChartEx\ChartOCX\PacketData\PacketImplementation.cpp
; File C:\Program Files (x86)\Microsoft Visual Studio\2019\Community\VC\Tools\MSVC\14.29.30133\atlmfc\include\afxtempl.h
; File D:\git\src\IBK\IBK_DRFN\ProjSrc\SrcChartEx\ChartOCX\PacketData\PacketImplementation.cpp
; File C:\Program Files (x86)\Microsoft Visual Studio\2019\Community\VC\Tools\MSVC\14.29.30133\atlmfc\include\afxtempl.h
; File D:\git\src\IBK\IBK_DRFN\ProjSrc\SrcChartEx\ChartOCX\PacketData\PacketImplementation.cpp
; File C:\Program Files (x86)\Microsoft Visual Studio\2019\Community\VC\Tools\MSVC\14.29.30133\atlmfc\include\afxtempl.h
; File D:\git\src\IBK\IBK_DRFN\ProjSrc\SrcChartEx\ChartOCX\PacketData\PacketImplementation.cpp
; File C:\Program Files (x86)\Microsoft Visual Studio\2019\Community\VC\Tools\MSVC\14.29.30133\atlmfc\include\afxtempl.h
; File D:\git\src\IBK\IBK_DRFN\ProjSrc\SrcChartEx\ChartOCX\PacketData\PacketImplementation.cpp
;	COMDAT ?GetMinMax@CPacketImplementation@@QAEHHHAAN0H@Z
_TEXT	SEGMENT
_dMinWE$1$ = -32					; size = 8
_dMaxWE$1$ = -24					; size = 8
_dMin2$1$ = -16						; size = 8
_dMax2$1$ = -8						; size = 8
_nStart$ = 8						; size = 4
_nEnd$ = 12						; size = 4
_nMin$ = 16						; size = 4
_nMax$ = 20						; size = 4
_p_bWithoutZero$ = 24					; size = 4
?GetMinMax@CPacketImplementation@@QAEHHHAAN0H@Z PROC	; CPacketImplementation::GetMinMax, COMDAT
; _this$ = ecx

; 271  : {

  00000	55		 push	 ebp
  00001	8b ec		 mov	 ebp, esp

; 272  : 	if(m_Type == _MTEXT( C6_CHARACTER))

  00003	a1 54 00 00 00	 mov	 eax, DWORD PTR ?g_iMetaTable@@3VIMetaTable@@A+84
  00008	83 ec 20	 sub	 esp, 32			; 00000020H
  0000b	56		 push	 esi
; File C:\Program Files (x86)\Microsoft Visual Studio\2019\Community\VC\Tools\MSVC\14.29.30133\atlmfc\include\cstringt.h

; 2486 : 		return(str1.Compare(psz2) == 0);

  0000c	ff b0 60 09 00
	00		 push	 DWORD PTR [eax+2400]
; File D:\git\src\IBK\IBK_DRFN\ProjSrc\SrcChartEx\ChartOCX\PacketData\PacketImplementation.cpp

; 271  : {

  00012	8b f1		 mov	 esi, ecx

; 272  : 	if(m_Type == _MTEXT( C6_CHARACTER))

  00014	8d 4e 64	 lea	 ecx, DWORD PTR [esi+100]
; File C:\Program Files (x86)\Microsoft Visual Studio\2019\Community\VC\Tools\MSVC\14.29.30133\atlmfc\include\cstringt.h

; 2486 : 		return(str1.Compare(psz2) == 0);

  00017	ff 15 00 00 00
	00		 call	 DWORD PTR __imp_?Compare@?$CStringT@DV?$StrTraitMFC_DLL@DV?$ChTraitsCRT@D@ATL@@@@@ATL@@QBEHPBD@Z
  0001d	85 c0		 test	 eax, eax
; File D:\git\src\IBK\IBK_DRFN\ProjSrc\SrcChartEx\ChartOCX\PacketData\PacketImplementation.cpp

; 272  : 	if(m_Type == _MTEXT( C6_CHARACTER))

  0001f	75 0c		 jne	 SHORT $LN6@GetMinMax

; 273  : 		return -2 ;

  00021	b8 fe ff ff ff	 mov	 eax, -2			; fffffffeH
  00026	5e		 pop	 esi

; 407  : }

  00027	8b e5		 mov	 esp, ebp
  00029	5d		 pop	 ebp
  0002a	c2 14 00	 ret	 20			; 00000014H
$LN6@GetMinMax:
; File C:\Program Files (x86)\Microsoft Visual Studio\2019\Community\VC\Tools\MSVC\14.29.30133\atlmfc\include\afxtempl.h

; 786  : 	{ return m_nCount == 0; }

  0002d	8b 86 a0 00 00
	00		 mov	 eax, DWORD PTR [esi+160]
  00033	53		 push	 ebx
  00034	57		 push	 edi
  00035	85 c0		 test	 eax, eax
; File D:\git\src\IBK\IBK_DRFN\ProjSrc\SrcChartEx\ChartOCX\PacketData\PacketImplementation.cpp

; 275  : 	if(m_lnData.IsEmpty())

  00037	0f 84 f0 03 00
	00		 je	 $LN57@GetMinMax

; 276  : 		return -1 ;
; 277  : 
; 278  : 	if(nStart < 0)

  0003d	8b 7d 08	 mov	 edi, DWORD PTR _nStart$[ebp]
  00040	85 ff		 test	 edi, edi
  00042	0f 88 e5 03 00
	00		 js	 $LN57@GetMinMax

; 279  : 		return -1 ;
; 280  : 
; 281  : 	if(nEnd >= m_lnData.GetCount())

  00048	8b 5d 0c	 mov	 ebx, DWORD PTR _nEnd$[ebp]
  0004b	3b d8		 cmp	 ebx, eax
  0004d	7c 03		 jl	 SHORT $LN9@GetMinMax

; 282  : 		nEnd = m_lnData.GetCount() - 1 ;

  0004f	8d 58 ff	 lea	 ebx, DWORD PTR [eax-1]
$LN9@GetMinMax:

; 283  : 
; 284  : 	if(nStart > nEnd)

  00052	3b fb		 cmp	 edi, ebx
  00054	0f 8f d3 03 00
	00		 jg	 $LN57@GetMinMax

; 285  : 		return -1;
; 286  : 
; 287  : 	if(m_bUseBound)	{

  0005a	80 7e 20 00	 cmp	 BYTE PTR [esi+32], 0
  0005e	74 4f		 je	 SHORT $LN11@GetMinMax

; 288  : 		//sy 2003.10.28. min/max    
; 289  : 		if(-DBL_MAX == m_dMaxBound && DBL_MAX == m_dMinBound)

  00060	f2 0f 10 4e 10	 movsd	 xmm1, QWORD PTR [esi+16]
  00065	f2 0f 10 05 00
	00 00 00	 movsd	 xmm0, QWORD PTR __real@ffefffffffffffff
  0006d	66 0f 2e c1	 ucomisd xmm0, xmm1
  00071	9f		 lahf
  00072	f6 c4 44	 test	 ah, 68			; 00000044H
  00075	7a 17		 jp	 SHORT $LN55@GetMinMax
  00077	f2 0f 10 05 00
	00 00 00	 movsd	 xmm0, QWORD PTR __real@7fefffffffffffff
  0007f	66 0f 2e 46 18	 ucomisd xmm0, QWORD PTR [esi+24]
  00084	9f		 lahf
  00085	f6 c4 44	 test	 ah, 68			; 00000044H
  00088	0f 8b 9f 03 00
	00		 jnp	 $LN57@GetMinMax
$LN55@GetMinMax:

; 290  : 			return -1;
; 291  : 		nMax = m_dMaxBound;

  0008e	8b 45 14	 mov	 eax, DWORD PTR _nMax$[ebp]
  00091	5f		 pop	 edi
  00092	5b		 pop	 ebx
  00093	f2 0f 11 08	 movsd	 QWORD PTR [eax], xmm1

; 292  : 		nMin = m_dMinBound;

  00097	8b 45 10	 mov	 eax, DWORD PTR _nMin$[ebp]
  0009a	f2 0f 10 46 18	 movsd	 xmm0, QWORD PTR [esi+24]
  0009f	5e		 pop	 esi
  000a0	f2 0f 11 00	 movsd	 QWORD PTR [eax], xmm0

; 293  : 		return 1;

  000a4	b8 01 00 00 00	 mov	 eax, 1

; 407  : }

  000a9	8b e5		 mov	 esp, ebp
  000ab	5d		 pop	 ebp
  000ac	c2 14 00	 ret	 20			; 00000014H
$LN11@GetMinMax:

; 294  : 	}
; 295  : 
; 296  : 	//sy 2003.10.28. min/max    
; 297  : 	// (2007/2/7 - Seung-Won, Bae) Do not return in No Init. Calculate new Min/Max.
; 298  : 	// (2009/1/17 - Seung-Won, Bae) Support Min/Max cache. Do not make Min/Max every time of updating data.
; 299  : 	//		Do not support Full Range Min/Max for collision with Pre-Min/Max.
; 300  : 	if( ( m_bWithoutZero_Pre && p_bWithoutZero || !m_bWithoutZero_Pre && !p_bWithoutZero)
; 301  : 		&& m_dContinueCode_Pre == m_dContinueCode
; 302  : 		&& m_dExceptionValue_Pre == m_dExceptionValue
; 303  : 		&& ( m_nStartPeriod_Pre == m_nStartPeriod
; 304  : 			|| ( m_nStartPeriod_Pre <= m_nStartIndex_Pre
; 305  : 				&& m_nStartPeriod <= m_nStartIndex_Pre))
; 306  : 		&& ( m_nStartIndex_Pre == nStart

  000af	83 be 10 01 00
	00 00		 cmp	 DWORD PTR [esi+272], 0
  000b6	0f 84 22 02 00
	00		 je	 $LN54@GetMinMax
  000bc	83 7d 18 00	 cmp	 DWORD PTR _p_bWithoutZero$[ebp], 0
  000c0	0f 85 22 02 00
	00		 jne	 $LN14@GetMinMax
$LN20@GetMinMax:

; 328  : 		}
; 329  : 	}
; 330  : 
; 331  : 	// Ranged Min/Max
; 332  : 	double dMax2 = -DBL_MAX;
; 333  : 	double dMin2 = DBL_MAX;

  000c6	f2 0f 10 1d 00
	00 00 00	 movsd	 xmm3, QWORD PTR __real@7fefffffffffffff

; 334  : 	double dMaxWE = dMax2;
; 335  : 	double dMinWE = dMin2;
; 336  : 	double nValue;
; 337  : 	int i = nStart;
; 338  : 	// (2009/1/17 - Seung-Won, Bae) Use Pre Max/Min without-End Value.
; 339  : 	if( i == m_nStartIndex_Pre
; 340  : 		&& m_nEndIndex_Pre <= nEnd
; 341  : 		&& m_dPreMaxValueWithoutEnd != -DBL_MAX
; 342  : 		&& m_dPreMinValueWithoutEnd != DBL_MAX)

  000ce	8b c7		 mov	 eax, edi
  000d0	0f 28 c3	 movaps	 xmm0, xmm3
  000d3	f2 0f 10 15 00
	00 00 00	 movsd	 xmm2, QWORD PTR __real@ffefffffffffffff
  000db	0f 28 ca	 movaps	 xmm1, xmm2
  000de	f2 0f 11 45 f0	 movsd	 QWORD PTR _dMin2$1$[ebp], xmm0
  000e3	0f 28 c2	 movaps	 xmm0, xmm2
  000e6	f2 0f 11 4d f8	 movsd	 QWORD PTR _dMax2$1$[ebp], xmm1
  000eb	f2 0f 11 45 e8	 movsd	 QWORD PTR _dMaxWE$1$[ebp], xmm0
  000f0	0f 28 c3	 movaps	 xmm0, xmm3
  000f3	f2 0f 11 45 e0	 movsd	 QWORD PTR _dMinWE$1$[ebp], xmm0
  000f8	3b 86 2c 01 00
	00		 cmp	 eax, DWORD PTR [esi+300]
  000fe	75 3a		 jne	 SHORT $LN21@GetMinMax
  00100	8b 8e 30 01 00
	00		 mov	 ecx, DWORD PTR [esi+304]
  00106	3b cb		 cmp	 ecx, ebx
  00108	7f 30		 jg	 SHORT $LN21@GetMinMax
  0010a	f2 0f 10 8e 48
	01 00 00	 movsd	 xmm1, QWORD PTR [esi+328]
  00112	66 0f 2e ca	 ucomisd xmm1, xmm2
  00116	9f		 lahf
  00117	f6 c4 44	 test	 ah, 68			; 00000044H
  0011a	7b 1e		 jnp	 SHORT $LN21@GetMinMax
  0011c	f2 0f 10 86 50
	01 00 00	 movsd	 xmm0, QWORD PTR [esi+336]
  00124	66 0f 2e c3	 ucomisd xmm0, xmm3
  00128	9f		 lahf
  00129	f6 c4 44	 test	 ah, 68			; 00000044H
  0012c	7b 0c		 jnp	 SHORT $LN21@GetMinMax

; 343  : 	{
; 344  : 		dMax2 = m_dPreMaxValueWithoutEnd;

  0012e	f2 0f 11 4d f8	 movsd	 QWORD PTR _dMax2$1$[ebp], xmm1

; 345  : 		dMin2 = m_dPreMinValueWithoutEnd;
; 346  : 		i = m_nEndIndex_Pre;

  00133	8b f9		 mov	 edi, ecx
  00135	f2 0f 11 45 f0	 movsd	 QWORD PTR _dMin2$1$[ebp], xmm0
$LN21@GetMinMax:

; 347  : 	}
; 348  : 	POSITION pos = m_lnData.FindIndex( i);

  0013a	57		 push	 edi
  0013b	8d 8e 94 00 00
	00		 lea	 ecx, DWORD PTR [esi+148]
  00141	e8 00 00 00 00	 call	 ?FindIndex@?$CList@NN@@QBEPAU__POSITION@@H@Z ; CList<double,double>::FindIndex
  00146	8b d0		 mov	 edx, eax

; 349  : 	POSITION posBack = pos;

  00148	8b ca		 mov	 ecx, edx

; 350  : 	if( pos == NULL) return -1;

  0014a	85 d2		 test	 edx, edx
  0014c	0f 84 db 02 00
	00		 je	 $LN57@GetMinMax

; 366  : 
; 367  : 		// (2009/1/17 - Seung-Won, Bae) Support Min/Max cache. Do not make Min/Max every time of updating data.
; 368  : 		//		Do not support Full Range Min/Max for collision with Pre-Min/Max.
; 369  : 		dMaxWE = dMax2;
; 370  : 		dMinWE = dMin2;
; 371  : 
; 372  : 		// (2007/2/7 - Seung-Won, Bae) for Exception Value
; 373  : 		// (2007/2/22 - Seung-Won, Bae) for Continue Code
; 374  : 		// (2009/1/17 - Seung-Won, Bae) Add without-Zero option.
; 375  : 		if( nValue == m_dExceptionValue
; 376  : 			|| nValue == m_dContinueCode
; 377  : 			|| ( nValue == 0.0 && p_bWithoutZero))

  00152	f2 0f 10 2d 00
	00 00 00	 movsd	 xmm5, QWORD PTR __real@fff0000000000000
  0015a	0f 57 e4	 xorps	 xmm4, xmm4
  0015d	0f 1f 00	 npad	 3
$LL2@GetMinMax:

; 351  : 	while( pos && i <= nEnd)

  00160	3b fb		 cmp	 edi, ebx
  00162	0f 8f b9 00 00
	00		 jg	 $LN3@GetMinMax
; File C:\Program Files (x86)\Microsoft Visual Studio\2019\Community\VC\Tools\MSVC\14.29.30133\atlmfc\include\afxtempl.h

; 811  : 	{ CNode* pNode = (CNode*) rPosition;

  00168	8b c2		 mov	 eax, edx

; 812  : 		ASSERT(AfxIsValidAddress(pNode, sizeof(CNode)));
; 813  : 		rPosition = (POSITION) pNode->pNext;

  0016a	8b 12		 mov	 edx, DWORD PTR [edx]
; File D:\git\src\IBK\IBK_DRFN\ProjSrc\SrcChartEx\ChartOCX\PacketData\PacketImplementation.cpp

; 353  : 		nValue = m_lnData.GetNext(pos);

  0016c	f2 0f 10 48 08	 movsd	 xmm1, QWORD PTR [eax+8]

; 354  : 
; 355  : 		// (2007/2/22 - Seung-Won, Bae) for Continue Code
; 356  : 		if( i == nStart && nValue == m_dContinueCode && -HUGE_VAL != m_dContinueCode)

  00171	3b 7d 08	 cmp	 edi, DWORD PTR _nStart$[ebp]
  00174	75 42		 jne	 SHORT $LN58@GetMinMax
  00176	f2 0f 10 86 00
	01 00 00	 movsd	 xmm0, QWORD PTR [esi+256]
  0017e	66 0f 2e c8	 ucomisd xmm1, xmm0
  00182	9f		 lahf
  00183	f6 c4 44	 test	 ah, 68			; 00000044H
  00186	7a 30		 jp	 SHORT $LN58@GetMinMax
  00188	66 0f 2e e8	 ucomisd xmm5, xmm0
  0018c	9f		 lahf
  0018d	f6 c4 44	 test	 ah, 68			; 00000044H
  00190	7b 26		 jnp	 SHORT $LN58@GetMinMax
; File C:\Program Files (x86)\Microsoft Visual Studio\2019\Community\VC\Tools\MSVC\14.29.30133\atlmfc\include\afxtempl.h

; 825  : 		rPosition = (POSITION) pNode->pPrev;

  00192	8b 49 04	 mov	 ecx, DWORD PTR [ecx+4]
; File D:\git\src\IBK\IBK_DRFN\ProjSrc\SrcChartEx\ChartOCX\PacketData\PacketImplementation.cpp

; 360  : 			while( posBack && nValue == m_dContinueCode)

  00195	85 c9		 test	 ecx, ecx
  00197	74 1f		 je	 SHORT $LN58@GetMinMax
  00199	0f 1f 80 00 00
	00 00		 npad	 7
$LL4@GetMinMax:
  001a0	66 0f 2e c8	 ucomisd xmm1, xmm0
  001a4	9f		 lahf
  001a5	f6 c4 44	 test	 ah, 68			; 00000044H
  001a8	7a 0e		 jp	 SHORT $LN58@GetMinMax
; File C:\Program Files (x86)\Microsoft Visual Studio\2019\Community\VC\Tools\MSVC\14.29.30133\atlmfc\include\afxtempl.h

; 823  : 	{ CNode* pNode = (CNode*) rPosition;

  001aa	8b c1		 mov	 eax, ecx

; 825  : 		rPosition = (POSITION) pNode->pPrev;

  001ac	8b 49 04	 mov	 ecx, DWORD PTR [ecx+4]
; File D:\git\src\IBK\IBK_DRFN\ProjSrc\SrcChartEx\ChartOCX\PacketData\PacketImplementation.cpp

; 361  : 				nValue = m_lnData.GetPrev( posBack);

  001af	f2 0f 10 48 08	 movsd	 xmm1, QWORD PTR [eax+8]
  001b4	85 c9		 test	 ecx, ecx
  001b6	75 e8		 jne	 SHORT $LL4@GetMinMax
$LN58@GetMinMax:

; 362  : 		}
; 363  : 
; 364  : 		i++;

  001b8	47		 inc	 edi

; 365  : 		if( i <= m_nStartPeriod) continue;

  001b9	3b 7e 24	 cmp	 edi, DWORD PTR [esi+36]
  001bc	7e 5b		 jle	 SHORT $LN28@GetMinMax

; 366  : 
; 367  : 		// (2009/1/17 - Seung-Won, Bae) Support Min/Max cache. Do not make Min/Max every time of updating data.
; 368  : 		//		Do not support Full Range Min/Max for collision with Pre-Min/Max.
; 369  : 		dMaxWE = dMax2;
; 370  : 		dMinWE = dMin2;
; 371  : 
; 372  : 		// (2007/2/7 - Seung-Won, Bae) for Exception Value
; 373  : 		// (2007/2/22 - Seung-Won, Bae) for Continue Code
; 374  : 		// (2009/1/17 - Seung-Won, Bae) Add without-Zero option.
; 375  : 		if( nValue == m_dExceptionValue
; 376  : 			|| nValue == m_dContinueCode
; 377  : 			|| ( nValue == 0.0 && p_bWithoutZero))

  001be	66 0f 2e 8e f8
	00 00 00	 ucomisd xmm1, QWORD PTR [esi+248]
  001c6	f2 0f 10 5d f8	 movsd	 xmm3, QWORD PTR _dMax2$1$[ebp]
  001cb	f2 0f 10 55 f0	 movsd	 xmm2, QWORD PTR _dMin2$1$[ebp]
  001d0	9f		 lahf
  001d1	f2 0f 11 5d e8	 movsd	 QWORD PTR _dMaxWE$1$[ebp], xmm3
  001d6	f2 0f 11 55 e0	 movsd	 QWORD PTR _dMinWE$1$[ebp], xmm2
  001db	f6 c4 44	 test	 ah, 68			; 00000044H
  001de	7b 39		 jnp	 SHORT $LN28@GetMinMax
  001e0	66 0f 2e 8e 00
	01 00 00	 ucomisd xmm1, QWORD PTR [esi+256]
  001e8	9f		 lahf
  001e9	f6 c4 44	 test	 ah, 68			; 00000044H
  001ec	7b 2b		 jnp	 SHORT $LN28@GetMinMax
  001ee	66 0f 2e cc	 ucomisd xmm1, xmm4
  001f2	9f		 lahf
  001f3	f6 c4 44	 test	 ah, 68			; 00000044H
  001f6	7a 06		 jp	 SHORT $LN25@GetMinMax
  001f8	83 7d 18 00	 cmp	 DWORD PTR _p_bWithoutZero$[ebp], 0
  001fc	75 1b		 jne	 SHORT $LN28@GetMinMax
$LN25@GetMinMax:

; 378  : 				continue;
; 379  : 
; 380  : 		if( dMax2 < nValue) dMax2 = nValue;

  001fe	0f 28 c1	 movaps	 xmm0, xmm1

; 381  : 		if( nValue < dMin2) dMin2 = nValue;

  00201	f2 0f 5d ca	 minsd	 xmm1, xmm2
  00205	f2 0f 5f c3	 maxsd	 xmm0, xmm3
  00209	0f 28 d1	 movaps	 xmm2, xmm1
  0020c	0f 28 d8	 movaps	 xmm3, xmm0
  0020f	f2 0f 11 55 f0	 movsd	 QWORD PTR _dMin2$1$[ebp], xmm2
  00214	f2 0f 11 5d f8	 movsd	 QWORD PTR _dMax2$1$[ebp], xmm3
$LN28@GetMinMax:

; 351  : 	while( pos && i <= nEnd)

  00219	85 d2		 test	 edx, edx
  0021b	0f 85 3f ff ff
	ff		 jne	 $LL2@GetMinMax
$LN3@GetMinMax:

; 382  : 	}
; 383  : 
; 384  : 	if( dMax2 == -DBL_MAX || dMin2 == DBL_MAX) return 0;

  00221	f2 0f 10 4d f8	 movsd	 xmm1, QWORD PTR _dMax2$1$[ebp]
  00226	66 0f 2e 0d 00
	00 00 00	 ucomisd xmm1, QWORD PTR __real@ffefffffffffffff
  0022e	9f		 lahf
  0022f	f6 c4 44	 test	 ah, 68			; 00000044H
  00232	0f 8b ea 01 00
	00		 jnp	 $LN30@GetMinMax
  00238	f2 0f 10 45 f0	 movsd	 xmm0, QWORD PTR _dMin2$1$[ebp]
  0023d	66 0f 2e 05 00
	00 00 00	 ucomisd xmm0, QWORD PTR __real@7fefffffffffffff
  00245	9f		 lahf
  00246	f6 c4 44	 test	 ah, 68			; 00000044H
  00249	0f 8b d3 01 00
	00		 jnp	 $LN30@GetMinMax

; 385  : 	
; 386  : 	//{{ 2008.01.09 by LYH - Y      0  
; 387  : //	if(dMax2 ==0 && dMin2 == 0) return 0;
; 388  : 	//}}
; 389  : 	
; 390  : 	nMax = dMax2;

  0024f	8b 55 14	 mov	 edx, DWORD PTR _nMax$[ebp]

; 391  : 	nMin = dMin2;

  00252	8b 4d 10	 mov	 ecx, DWORD PTR _nMin$[ebp]

; 392  : 
; 393  : 	// (2009/1/17 - Seung-Won, Bae) Support Min/Max cache. Do not make Min/Max every time of updating data.
; 394  : 	//		Do not support Full Range Min/Max for collision with Pre-Min/Max.
; 395  : 	m_bWithoutZero_Pre			= p_bWithoutZero;

  00255	8b 45 18	 mov	 eax, DWORD PTR _p_bWithoutZero$[ebp]
  00258	5f		 pop	 edi
  00259	f2 0f 11 0a	 movsd	 QWORD PTR [edx], xmm1
  0025d	f2 0f 11 01	 movsd	 QWORD PTR [ecx], xmm0

; 396  : 	m_dContinueCode_Pre			= m_dContinueCode;

  00261	f2 0f 10 86 00
	01 00 00	 movsd	 xmm0, QWORD PTR [esi+256]
  00269	89 86 10 01 00
	00		 mov	 DWORD PTR [esi+272], eax

; 397  : 	m_dExceptionValue_Pre		= m_dExceptionValue;
; 398  : 	m_nStartPeriod_Pre			= m_nStartPeriod;

  0026f	8b 46 24	 mov	 eax, DWORD PTR [esi+36]
  00272	f2 0f 11 86 18
	01 00 00	 movsd	 QWORD PTR [esi+280], xmm0
  0027a	f2 0f 10 86 f8
	00 00 00	 movsd	 xmm0, QWORD PTR [esi+248]
  00282	89 86 28 01 00
	00		 mov	 DWORD PTR [esi+296], eax

; 399  : 	m_nStartIndex_Pre			= nStart;

  00288	8b 45 08	 mov	 eax, DWORD PTR _nStart$[ebp]
  0028b	f2 0f 11 86 20
	01 00 00	 movsd	 QWORD PTR [esi+288], xmm0
  00293	89 86 2c 01 00
	00		 mov	 DWORD PTR [esi+300], eax

; 400  : 	m_nEndIndex_Pre				= nEnd;
; 401  : 	m_dPreMaxValue				= nMax;
; 402  : 	m_dPreMinValue				= nMin;
; 403  : 	m_dPreMaxValueWithoutEnd	= dMaxWE;
; 404  : 	m_dPreMinValueWithoutEnd	= dMinWE;
; 405  : 
; 406  : 	return 1 ;

  00299	b8 01 00 00 00	 mov	 eax, 1
  0029e	89 9e 30 01 00
	00		 mov	 DWORD PTR [esi+304], ebx
  002a4	f2 0f 10 02	 movsd	 xmm0, QWORD PTR [edx]
  002a8	f2 0f 11 86 38
	01 00 00	 movsd	 QWORD PTR [esi+312], xmm0
  002b0	f2 0f 10 01	 movsd	 xmm0, QWORD PTR [ecx]
  002b4	f2 0f 11 86 40
	01 00 00	 movsd	 QWORD PTR [esi+320], xmm0
  002bc	f2 0f 10 45 e8	 movsd	 xmm0, QWORD PTR _dMaxWE$1$[ebp]
  002c1	f2 0f 11 86 48
	01 00 00	 movsd	 QWORD PTR [esi+328], xmm0
  002c9	f2 0f 10 45 e0	 movsd	 xmm0, QWORD PTR _dMinWE$1$[ebp]
  002ce	5b		 pop	 ebx
  002cf	f2 0f 11 86 50
	01 00 00	 movsd	 QWORD PTR [esi+336], xmm0
  002d7	5e		 pop	 esi

; 407  : }

  002d8	8b e5		 mov	 esp, ebp
  002da	5d		 pop	 ebp
  002db	c2 14 00	 ret	 20			; 00000014H
$LN54@GetMinMax:

; 294  : 	}
; 295  : 
; 296  : 	//sy 2003.10.28. min/max    
; 297  : 	// (2007/2/7 - Seung-Won, Bae) Do not return in No Init. Calculate new Min/Max.
; 298  : 	// (2009/1/17 - Seung-Won, Bae) Support Min/Max cache. Do not make Min/Max every time of updating data.
; 299  : 	//		Do not support Full Range Min/Max for collision with Pre-Min/Max.
; 300  : 	if( ( m_bWithoutZero_Pre && p_bWithoutZero || !m_bWithoutZero_Pre && !p_bWithoutZero)
; 301  : 		&& m_dContinueCode_Pre == m_dContinueCode
; 302  : 		&& m_dExceptionValue_Pre == m_dExceptionValue
; 303  : 		&& ( m_nStartPeriod_Pre == m_nStartPeriod
; 304  : 			|| ( m_nStartPeriod_Pre <= m_nStartIndex_Pre
; 305  : 				&& m_nStartPeriod <= m_nStartIndex_Pre))
; 306  : 		&& ( m_nStartIndex_Pre == nStart

  002de	83 7d 18 00	 cmp	 DWORD PTR _p_bWithoutZero$[ebp], 0
  002e2	0f 85 de fd ff
	ff		 jne	 $LN20@GetMinMax
$LN14@GetMinMax:
  002e8	f2 0f 10 86 18
	01 00 00	 movsd	 xmm0, QWORD PTR [esi+280]
  002f0	66 0f 2e 86 00
	01 00 00	 ucomisd xmm0, QWORD PTR [esi+256]
  002f8	9f		 lahf
  002f9	f6 c4 44	 test	 ah, 68			; 00000044H
  002fc	0f 8a c4 fd ff
	ff		 jp	 $LN20@GetMinMax
  00302	f2 0f 10 86 20
	01 00 00	 movsd	 xmm0, QWORD PTR [esi+288]
  0030a	66 0f 2e 86 f8
	00 00 00	 ucomisd xmm0, QWORD PTR [esi+248]
  00312	9f		 lahf
  00313	f6 c4 44	 test	 ah, 68			; 00000044H
  00316	0f 8a aa fd ff
	ff		 jp	 $LN20@GetMinMax
  0031c	8b 86 28 01 00
	00		 mov	 eax, DWORD PTR [esi+296]
  00322	8b 4e 24	 mov	 ecx, DWORD PTR [esi+36]
  00325	3b c1		 cmp	 eax, ecx
  00327	74 16		 je	 SHORT $LN56@GetMinMax
  00329	8b 96 2c 01 00
	00		 mov	 edx, DWORD PTR [esi+300]
  0032f	3b c2		 cmp	 eax, edx
  00331	0f 8f 8f fd ff
	ff		 jg	 $LN20@GetMinMax
  00337	3b ca		 cmp	 ecx, edx
  00339	0f 8f 87 fd ff
	ff		 jg	 $LN20@GetMinMax
$LN56@GetMinMax:
  0033f	8b 96 2c 01 00
	00		 mov	 edx, DWORD PTR [esi+300]
  00345	3b d7		 cmp	 edx, edi
  00347	74 18		 je	 SHORT $LN51@GetMinMax
  00349	3b c1		 cmp	 eax, ecx
  0034b	0f 85 75 fd ff
	ff		 jne	 $LN20@GetMinMax
  00351	3b d1		 cmp	 edx, ecx
  00353	0f 8f 6d fd ff
	ff		 jg	 $LN20@GetMinMax
  00359	3b f9		 cmp	 edi, ecx
  0035b	0f 8f 65 fd ff
	ff		 jg	 $LN20@GetMinMax
$LN51@GetMinMax:

; 307  : 			|| ( m_nStartPeriod_Pre == m_nStartPeriod
; 308  : 				&& m_nStartIndex_Pre <= m_nStartPeriod
; 309  : 				&& nStart <= m_nStartPeriod)))
; 310  : 	{
; 311  : 		if( nEnd == m_nEndIndex_Pre
; 312  : 			&& -DBL_MAX != m_dPreMaxValue
; 313  : 			&& DBL_MAX != m_dPreMinValue)

  00361	8b 96 30 01 00
	00		 mov	 edx, DWORD PTR [esi+304]
  00367	f2 0f 10 15 00
	00 00 00	 movsd	 xmm2, QWORD PTR __real@ffefffffffffffff
  0036f	f2 0f 10 1d 00
	00 00 00	 movsd	 xmm3, QWORD PTR __real@7fefffffffffffff
  00377	3b da		 cmp	 ebx, edx
  00379	75 4a		 jne	 SHORT $LN18@GetMinMax
  0037b	f2 0f 10 86 38
	01 00 00	 movsd	 xmm0, QWORD PTR [esi+312]
  00383	66 0f 2e d0	 ucomisd xmm2, xmm0
  00387	9f		 lahf
  00388	f6 c4 44	 test	 ah, 68			; 00000044H
  0038b	7b 38		 jnp	 SHORT $LN18@GetMinMax
  0038d	66 0f 2e 9e 40
	01 00 00	 ucomisd xmm3, QWORD PTR [esi+320]
  00395	9f		 lahf
  00396	f6 c4 44	 test	 ah, 68			; 00000044H
  00399	7b 2a		 jnp	 SHORT $LN18@GetMinMax

; 314  : 		{
; 315  : 			m_nStartPeriod_Pre = m_nStartPeriod;
; 316  : 			nMax = m_dPreMaxValue;

  0039b	8b 45 14	 mov	 eax, DWORD PTR _nMax$[ebp]
  0039e	89 8e 28 01 00
	00		 mov	 DWORD PTR [esi+296], ecx
  003a4	5f		 pop	 edi
  003a5	5b		 pop	 ebx
  003a6	f2 0f 11 00	 movsd	 QWORD PTR [eax], xmm0

; 317  : 			nMin = m_dPreMinValue; 

  003aa	8b 45 10	 mov	 eax, DWORD PTR _nMin$[ebp]
  003ad	f2 0f 10 86 40
	01 00 00	 movsd	 xmm0, QWORD PTR [esi+320]
  003b5	5e		 pop	 esi
  003b6	f2 0f 11 00	 movsd	 QWORD PTR [eax], xmm0

; 318  : 			return 1;

  003ba	b8 01 00 00 00	 mov	 eax, 1

; 407  : }

  003bf	8b e5		 mov	 esp, ebp
  003c1	5d		 pop	 ebp
  003c2	c2 14 00	 ret	 20			; 00000014H
$LN18@GetMinMax:

; 319  : 		}
; 320  : 		else if( nEnd == m_nEndIndex_Pre - 1
; 321  : 			&& -DBL_MAX != m_dPreMaxValueWithoutEnd
; 322  : 			&& DBL_MAX != m_dPreMinValueWithoutEnd)

  003c5	8d 42 ff	 lea	 eax, DWORD PTR [edx-1]
  003c8	3b d8		 cmp	 ebx, eax
  003ca	0f 85 f6 fc ff
	ff		 jne	 $LN20@GetMinMax
  003d0	f2 0f 10 86 48
	01 00 00	 movsd	 xmm0, QWORD PTR [esi+328]
  003d8	66 0f 2e d0	 ucomisd xmm2, xmm0
  003dc	9f		 lahf
  003dd	f6 c4 44	 test	 ah, 68			; 00000044H
  003e0	0f 8b e0 fc ff
	ff		 jnp	 $LN20@GetMinMax
  003e6	66 0f 2e 9e 50
	01 00 00	 ucomisd xmm3, QWORD PTR [esi+336]
  003ee	9f		 lahf
  003ef	f6 c4 44	 test	 ah, 68			; 00000044H
  003f2	0f 8b ce fc ff
	ff		 jnp	 $LN20@GetMinMax

; 323  : 		{
; 324  : 			m_nStartPeriod_Pre = m_nStartPeriod;
; 325  : 			nMax = m_dPreMaxValueWithoutEnd;

  003f8	8b 45 14	 mov	 eax, DWORD PTR _nMax$[ebp]
  003fb	89 8e 28 01 00
	00		 mov	 DWORD PTR [esi+296], ecx
  00401	5f		 pop	 edi
  00402	5b		 pop	 ebx
  00403	f2 0f 11 00	 movsd	 QWORD PTR [eax], xmm0

; 326  : 			nMin = m_dPreMinValueWithoutEnd; 

  00407	8b 45 10	 mov	 eax, DWORD PTR _nMin$[ebp]
  0040a	f2 0f 10 86 50
	01 00 00	 movsd	 xmm0, QWORD PTR [esi+336]
  00412	5e		 pop	 esi
  00413	f2 0f 11 00	 movsd	 QWORD PTR [eax], xmm0

; 327  : 			return 1;

  00417	b8 01 00 00 00	 mov	 eax, 1

; 407  : }

  0041c	8b e5		 mov	 esp, ebp
  0041e	5d		 pop	 ebp
  0041f	c2 14 00	 ret	 20			; 00000014H
$LN30@GetMinMax:
  00422	5f		 pop	 edi
  00423	5b		 pop	 ebx

; 382  : 	}
; 383  : 
; 384  : 	if( dMax2 == -DBL_MAX || dMin2 == DBL_MAX) return 0;

  00424	33 c0		 xor	 eax, eax
  00426	5e		 pop	 esi

; 407  : }

  00427	8b e5		 mov	 esp, ebp
  00429	5d		 pop	 ebp
  0042a	c2 14 00	 ret	 20			; 00000014H
$LN57@GetMinMax:
  0042d	5f		 pop	 edi
  0042e	5b		 pop	 ebx

; 350  : 	if( pos == NULL) return -1;

  0042f	83 c8 ff	 or	 eax, -1
  00432	5e		 pop	 esi

; 407  : }

  00433	8b e5		 mov	 esp, ebp
  00435	5d		 pop	 ebp
  00436	c2 14 00	 ret	 20			; 00000014H
?GetMinMax@CPacketImplementation@@QAEHHHAAN0H@Z ENDP	; CPacketImplementation::GetMinMax
_TEXT	ENDS
; Function compile flags: /Ogtp
; File D:\git\src\IBK\IBK_DRFN\ProjSrc\SrcChartEx\ChartOCX\PacketData\PacketImplementation.cpp
;	COMDAT ?SetMinMax@CPacketImplementation@@QAEHW4DATAINSERTTYPE@CPacketDataInfo@@VCPoint@@@Z
_TEXT	SEGMENT
_nInsertType$ = 8					; size = 4
_ptDataRange$ = 12					; size = 8
?SetMinMax@CPacketImplementation@@QAEHW4DATAINSERTTYPE@CPacketDataInfo@@VCPoint@@@Z PROC ; CPacketImplementation::SetMinMax, COMDAT
; _this$ = ecx

; 416  : 	return 1 ;

  00000	b8 01 00 00 00	 mov	 eax, 1

; 417  : }

  00005	c2 0c 00	 ret	 12			; 0000000cH
?SetMinMax@CPacketImplementation@@QAEHW4DATAINSERTTYPE@CPacketDataInfo@@VCPoint@@@Z ENDP ; CPacketImplementation::SetMinMax
_TEXT	ENDS
; Function compile flags: /Ogtp
; File D:\git\src\IBK\IBK_DRFN\ProjSrc\SrcChartEx\ChartOCX\PacketData\PacketImplementation.cpp
;	COMDAT ?SetMinMax@CPacketImplementation@@QAE_NNN@Z
_TEXT	SEGMENT
_nMin$ = 8						; size = 8
_nMax$ = 16						; size = 8
?SetMinMax@CPacketImplementation@@QAE_NNN@Z PROC	; CPacketImplementation::SetMinMax, COMDAT
; _this$ = ecx

; 1183 : {

  00000	55		 push	 ebp
  00001	8b ec		 mov	 ebp, esp

; 1184 : 	m_dMaxBound = nMax;

  00003	f2 0f 10 45 10	 movsd	 xmm0, QWORD PTR _nMax$[ebp]

; 1185 : 	m_dMinBound = nMin;
; 1186 : 	m_bUseBound = ( m_dMaxBound != -DBL_MAX && m_dMinBound != DBL_MAX);

  00008	66 0f 2e 05 00
	00 00 00	 ucomisd xmm0, QWORD PTR __real@ffefffffffffffff
  00010	f2 0f 10 4d 08	 movsd	 xmm1, QWORD PTR _nMin$[ebp]
  00015	f2 0f 11 41 10	 movsd	 QWORD PTR [ecx+16], xmm0
  0001a	9f		 lahf
  0001b	f2 0f 11 49 18	 movsd	 QWORD PTR [ecx+24], xmm1
  00020	f6 c4 44	 test	 ah, 68			; 00000044H
  00023	7b 17		 jnp	 SHORT $LN3@SetMinMax
  00025	66 0f 2e 0d 00
	00 00 00	 ucomisd xmm1, QWORD PTR __real@7fefffffffffffff
  0002d	9f		 lahf
  0002e	f6 c4 44	 test	 ah, 68			; 00000044H
  00031	7b 09		 jnp	 SHORT $LN3@SetMinMax
  00033	b0 01		 mov	 al, 1
  00035	88 41 20	 mov	 BYTE PTR [ecx+32], al

; 1189 : }

  00038	5d		 pop	 ebp
  00039	c2 10 00	 ret	 16			; 00000010H
$LN3@SetMinMax:

; 1185 : 	m_dMinBound = nMin;
; 1186 : 	m_bUseBound = ( m_dMaxBound != -DBL_MAX && m_dMinBound != DBL_MAX);

  0003c	32 c0		 xor	 al, al
  0003e	88 41 20	 mov	 BYTE PTR [ecx+32], al

; 1187 : 
; 1188 : 	return true;

  00041	b0 01		 mov	 al, 1

; 1189 : }

  00043	5d		 pop	 ebp
  00044	c2 10 00	 ret	 16			; 00000010H
?SetMinMax@CPacketImplementation@@QAE_NNN@Z ENDP	; CPacketImplementation::SetMinMax
_TEXT	ENDS
; Function compile flags: /Ogtp
; File D:\git\src\IBK\IBK_DRFN\ProjSrc\SrcChartEx\ChartOCX\PacketData\PacketImplementation.cpp
;	COMDAT ?SetMin@CPacketImplementation@@QAE_NN@Z
_TEXT	SEGMENT
_nMin$ = 8						; size = 8
?SetMin@CPacketImplementation@@QAE_NN@Z PROC		; CPacketImplementation::SetMin, COMDAT
; _this$ = ecx

; 1198 : {

  00000	55		 push	 ebp
  00001	8b ec		 mov	 ebp, esp

; 1199 : 	m_dMinBound = nMin;

  00003	f2 0f 10 45 08	 movsd	 xmm0, QWORD PTR _nMin$[ebp]

; 1200 : 	m_bUseBound = true;
; 1201 : 
; 1202 : 	return true;

  00008	b0 01		 mov	 al, 1
  0000a	f2 0f 11 41 18	 movsd	 QWORD PTR [ecx+24], xmm0
  0000f	c6 41 20 01	 mov	 BYTE PTR [ecx+32], 1

; 1203 : }

  00013	5d		 pop	 ebp
  00014	c2 08 00	 ret	 8
?SetMin@CPacketImplementation@@QAE_NN@Z ENDP		; CPacketImplementation::SetMin
_TEXT	ENDS
; Function compile flags: /Ogtp
; File D:\git\src\IBK\IBK_DRFN\ProjSrc\SrcChartEx\ChartOCX\PacketData\PacketImplementation.cpp
;	COMDAT ?SetMax@CPacketImplementation@@QAE_NN@Z
_TEXT	SEGMENT
_nMax$ = 8						; size = 8
?SetMax@CPacketImplementation@@QAE_NN@Z PROC		; CPacketImplementation::SetMax, COMDAT
; _this$ = ecx

; 1206 : {

  00000	55		 push	 ebp
  00001	8b ec		 mov	 ebp, esp

; 1207 : 	m_dMaxBound = nMax;

  00003	f2 0f 10 45 08	 movsd	 xmm0, QWORD PTR _nMax$[ebp]

; 1208 : 	m_bUseBound = true;
; 1209 : 
; 1210 : 	return true;

  00008	b0 01		 mov	 al, 1
  0000a	f2 0f 11 41 10	 movsd	 QWORD PTR [ecx+16], xmm0
  0000f	c6 41 20 01	 mov	 BYTE PTR [ecx+32], 1

; 1211 : }

  00013	5d		 pop	 ebp
  00014	c2 08 00	 ret	 8
?SetMax@CPacketImplementation@@QAE_NN@Z ENDP		; CPacketImplementation::SetMax
_TEXT	ENDS
; Function compile flags: /Ogtp
; File D:\git\src\IBK\IBK_DRFN\ProjSrc\SrcChartEx\ChartOCX\PacketData\PacketImplementation.cpp
;	COMDAT ?RestoreMinMax@CPacketImplementation@@QAE_NXZ
_TEXT	SEGMENT
?RestoreMinMax@CPacketImplementation@@QAE_NXZ PROC	; CPacketImplementation::RestoreMinMax, COMDAT
; _this$ = ecx

; 1193 : 	m_bUseBound = false;

  00000	c6 41 20 00	 mov	 BYTE PTR [ecx+32], 0

; 1194 : 	return true;

  00004	b0 01		 mov	 al, 1

; 1195 : }

  00006	c3		 ret	 0
?RestoreMinMax@CPacketImplementation@@QAE_NXZ ENDP	; CPacketImplementation::RestoreMinMax
_TEXT	ENDS
; Function compile flags: /Ogtp
; File D:\git\src\IBK\IBK_DRFN\ProjSrc\SrcChartEx\ChartOCX\PacketData\PacketImplementation.cpp
;	COMDAT ?RestoreMin@CPacketImplementation@@QAE_NXZ
_TEXT	SEGMENT
?RestoreMin@CPacketImplementation@@QAE_NXZ PROC		; CPacketImplementation::RestoreMin, COMDAT
; _this$ = ecx

; 1215 : 	m_bUseBound = false;

  00000	c6 41 20 00	 mov	 BYTE PTR [ecx+32], 0

; 1216 : 	return true;

  00004	b0 01		 mov	 al, 1

; 1217 : }

  00006	c3		 ret	 0
?RestoreMin@CPacketImplementation@@QAE_NXZ ENDP		; CPacketImplementation::RestoreMin
_TEXT	ENDS
; Function compile flags: /Ogtp
; File D:\git\src\IBK\IBK_DRFN\ProjSrc\SrcChartEx\ChartOCX\PacketData\PacketImplementation.cpp
;	COMDAT ?RestoreMax@CPacketImplementation@@QAE_NXZ
_TEXT	SEGMENT
?RestoreMax@CPacketImplementation@@QAE_NXZ PROC		; CPacketImplementation::RestoreMax, COMDAT
; _this$ = ecx

; 1221 : 	m_bUseBound = false;

  00000	c6 41 20 00	 mov	 BYTE PTR [ecx+32], 0

; 1222 : 	return true;

  00004	b0 01		 mov	 al, 1

; 1223 : }

  00006	c3		 ret	 0
?RestoreMax@CPacketImplementation@@QAE_NXZ ENDP		; CPacketImplementation::RestoreMax
_TEXT	ENDS
; Function compile flags: /Ogtp
; File D:\git\src\IBK\IBK_DRFN\ProjSrc\SrcChartEx\ChartOCX\PacketData\PacketImplementation.cpp
; File C:\Program Files (x86)\Microsoft Visual Studio\2019\Community\VC\Tools\MSVC\14.29.30133\atlmfc\include\afxtempl.h
; File D:\git\src\IBK\IBK_DRFN\ProjSrc\SrcChartEx\ChartOCX\PacketData\PacketImplementation.cpp
; File C:\Program Files (x86)\Microsoft Visual Studio\2019\Community\VC\Tools\MSVC\14.29.30133\atlmfc\include\afxtempl.h
; File D:\git\src\IBK\IBK_DRFN\ProjSrc\SrcChartEx\ChartOCX\PacketData\PacketImplementation.cpp
; File C:\Program Files (x86)\Microsoft Visual Studio\2019\Community\VC\Tools\MSVC\14.29.30133\atlmfc\include\afxtempl.h
; File D:\git\src\IBK\IBK_DRFN\ProjSrc\SrcChartEx\ChartOCX\PacketData\PacketImplementation.cpp
; File C:\Program Files (x86)\Microsoft Visual Studio\2019\Community\VC\Tools\MSVC\14.29.30133\atlmfc\include\afxtempl.h
; File D:\git\src\IBK\IBK_DRFN\ProjSrc\SrcChartEx\ChartOCX\PacketData\PacketImplementation.cpp
; File C:\Program Files (x86)\Microsoft Visual Studio\2019\Community\VC\Tools\MSVC\14.29.30133\atlmfc\include\afxtempl.h
; File D:\git\src\IBK\IBK_DRFN\ProjSrc\SrcChartEx\ChartOCX\PacketData\PacketImplementation.cpp
; File C:\Program Files (x86)\Microsoft Visual Studio\2019\Community\VC\Tools\MSVC\14.29.30133\atlmfc\include\afxtempl.h
; File D:\git\src\IBK\IBK_DRFN\ProjSrc\SrcChartEx\ChartOCX\PacketData\PacketImplementation.cpp
;	COMDAT ??1CPacketImplementation@@UAE@XZ
_TEXT	SEGMENT
__$EHRec$ = -12						; size = 12
??1CPacketImplementation@@UAE@XZ PROC			; CPacketImplementation::~CPacketImplementation, COMDAT
; _this$ = ecx

; 65   : {

  00000	55		 push	 ebp
  00001	8b ec		 mov	 ebp, esp
  00003	6a ff		 push	 -1
  00005	68 00 00 00 00	 push	 __ehhandler$??1CPacketImplementation@@UAE@XZ
  0000a	64 a1 00 00 00
	00		 mov	 eax, DWORD PTR fs:0
  00010	50		 push	 eax
  00011	56		 push	 esi
  00012	57		 push	 edi
  00013	a1 00 00 00 00	 mov	 eax, DWORD PTR ___security_cookie
  00018	33 c5		 xor	 eax, ebp
  0001a	50		 push	 eax
  0001b	8d 45 f4	 lea	 eax, DWORD PTR __$EHRec$[ebp]
  0001e	64 a3 00 00 00
	00		 mov	 DWORD PTR fs:0, eax
  00024	8b f9		 mov	 edi, ecx
  00026	c7 07 00 00 00
	00		 mov	 DWORD PTR [edi], OFFSET ??_7CPacketImplementation@@6B@
; File C:\Program Files (x86)\Microsoft Visual Studio\2019\Community\VC\Tools\MSVC\14.29.30133\atlmfc\include\afxtempl.h

; 872  : 	m_pBlocks->FreeDataChain();

  0002c	8b 8f a8 00 00
	00		 mov	 ecx, DWORD PTR [edi+168]
  00032	c7 87 a0 00 00
	00 00 00 00 00	 mov	 DWORD PTR [edi+160], 0
  0003c	c7 87 a4 00 00
	00 00 00 00 00	 mov	 DWORD PTR [edi+164], 0
  00046	c7 87 9c 00 00
	00 00 00 00 00	 mov	 DWORD PTR [edi+156], 0
  00050	c7 87 98 00 00
	00 00 00 00 00	 mov	 DWORD PTR [edi+152], 0
  0005a	e8 00 00 00 00	 call	 ?FreeDataChain@CPlex@@QAEXXZ ; CPlex::FreeDataChain
; File D:\git\src\IBK\IBK_DRFN\ProjSrc\SrcChartEx\ChartOCX\PacketData\PacketImplementation.cpp

; 67   : 	m_lstrData.RemoveAll();

  0005f	8d 8f b0 00 00
	00		 lea	 ecx, DWORD PTR [edi+176]
; File C:\Program Files (x86)\Microsoft Visual Studio\2019\Community\VC\Tools\MSVC\14.29.30133\atlmfc\include\afxtempl.h

; 873  : 	m_pBlocks = NULL;

  00065	c7 87 a8 00 00
	00 00 00 00 00	 mov	 DWORD PTR [edi+168], 0
; File D:\git\src\IBK\IBK_DRFN\ProjSrc\SrcChartEx\ChartOCX\PacketData\PacketImplementation.cpp

; 67   : 	m_lstrData.RemoveAll();

  0006f	e8 00 00 00 00	 call	 ?RemoveAll@?$CList@V?$CStringT@DV?$StrTraitMFC_DLL@DV?$ChTraitsCRT@D@ATL@@@@@ATL@@V12@@@QAEXXZ ; CList<ATL::CStringT<char,StrTraitMFC_DLL<char,ATL::ChTraitsCRT<char> > >,ATL::CStringT<char,StrTraitMFC_DLL<char,ATL::ChTraitsCRT<char> > > >::RemoveAll
; File C:\Program Files (x86)\Microsoft Visual Studio\2019\Community\VC\Tools\MSVC\14.29.30133\atlmfc\include\afxtempl.h

; 872  : 	m_pBlocks->FreeDataChain();

  00074	8b 8f e4 00 00
	00		 mov	 ecx, DWORD PTR [edi+228]
  0007a	c7 87 dc 00 00
	00 00 00 00 00	 mov	 DWORD PTR [edi+220], 0
  00084	c7 87 e0 00 00
	00 00 00 00 00	 mov	 DWORD PTR [edi+224], 0
  0008e	c7 87 d8 00 00
	00 00 00 00 00	 mov	 DWORD PTR [edi+216], 0
  00098	c7 87 d4 00 00
	00 00 00 00 00	 mov	 DWORD PTR [edi+212], 0
  000a2	e8 00 00 00 00	 call	 ?FreeDataChain@CPlex@@QAEXXZ ; CPlex::FreeDataChain
; File D:\git\src\IBK\IBK_DRFN\ProjSrc\SrcChartEx\ChartOCX\PacketData\PacketImplementation.cpp

; 69   : }

  000a7	8d 8f 58 01 00
	00		 lea	 ecx, DWORD PTR [edi+344]
; File C:\Program Files (x86)\Microsoft Visual Studio\2019\Community\VC\Tools\MSVC\14.29.30133\atlmfc\include\afxtempl.h

; 873  : 	m_pBlocks = NULL;

  000ad	c7 87 e4 00 00
	00 00 00 00 00	 mov	 DWORD PTR [edi+228], 0
; File D:\git\src\IBK\IBK_DRFN\ProjSrc\SrcChartEx\ChartOCX\PacketData\PacketImplementation.cpp

; 69   : }

  000b7	ff 15 00 00 00
	00		 call	 DWORD PTR __imp_??1?$CStringT@DV?$StrTraitMFC_DLL@DV?$ChTraitsCRT@D@ATL@@@@@ATL@@QAE@XZ
  000bd	8d 8f 0c 01 00
	00		 lea	 ecx, DWORD PTR [edi+268]
  000c3	ff 15 00 00 00
	00		 call	 DWORD PTR __imp_??1?$CStringT@DV?$StrTraitMFC_DLL@DV?$ChTraitsCRT@D@ATL@@@@@ATL@@QAE@XZ
; File C:\Program Files (x86)\Microsoft Visual Studio\2019\Community\VC\Tools\MSVC\14.29.30133\atlmfc\include\afxtempl.h

; 872  : 	m_pBlocks->FreeDataChain();

  000c9	8b 8f e4 00 00
	00		 mov	 ecx, DWORD PTR [edi+228]

; 878  : {

  000cf	c7 45 fc 00 00
	00 00		 mov	 DWORD PTR __$EHRec$[ebp+8], 0
  000d6	c7 87 d0 00 00
	00 00 00 00 00	 mov	 DWORD PTR [edi+208], OFFSET ??_7?$CList@NN@@6B@

; 870  : 	m_nCount = 0;

  000e0	c7 87 dc 00 00
	00 00 00 00 00	 mov	 DWORD PTR [edi+220], 0

; 871  : 	m_pNodeHead = m_pNodeTail = m_pNodeFree = NULL;

  000ea	c7 87 e0 00 00
	00 00 00 00 00	 mov	 DWORD PTR [edi+224], 0
  000f4	c7 87 d8 00 00
	00 00 00 00 00	 mov	 DWORD PTR [edi+216], 0
  000fe	c7 87 d4 00 00
	00 00 00 00 00	 mov	 DWORD PTR [edi+212], 0

; 872  : 	m_pBlocks->FreeDataChain();

  00108	e8 00 00 00 00	 call	 ?FreeDataChain@CPlex@@QAEXXZ ; CPlex::FreeDataChain

; 873  : 	m_pBlocks = NULL;

  0010d	c7 87 e4 00 00
	00 00 00 00 00	 mov	 DWORD PTR [edi+228], 0

; 879  : 	RemoveAll();

  00117	8d 8f b0 00 00
	00		 lea	 ecx, DWORD PTR [edi+176]
  0011d	c7 45 fc 01 00
	00 00		 mov	 DWORD PTR __$EHRec$[ebp+8], 1
  00124	c7 87 b0 00 00
	00 00 00 00 00	 mov	 DWORD PTR [edi+176], OFFSET ??_7?$CList@V?$CStringT@DV?$StrTraitMFC_DLL@DV?$ChTraitsCRT@D@ATL@@@@@ATL@@V12@@@6B@
  0012e	e8 00 00 00 00	 call	 ?RemoveAll@?$CList@V?$CStringT@DV?$StrTraitMFC_DLL@DV?$ChTraitsCRT@D@ATL@@@@@ATL@@V12@@@QAEXXZ ; CList<ATL::CStringT<char,StrTraitMFC_DLL<char,ATL::ChTraitsCRT<char> > >,ATL::CStringT<char,StrTraitMFC_DLL<char,ATL::ChTraitsCRT<char> > > >::RemoveAll

; 872  : 	m_pBlocks->FreeDataChain();

  00133	8b 8f a8 00 00
	00		 mov	 ecx, DWORD PTR [edi+168]

; 878  : {

  00139	c7 45 fc 02 00
	00 00		 mov	 DWORD PTR __$EHRec$[ebp+8], 2
  00140	c7 87 94 00 00
	00 00 00 00 00	 mov	 DWORD PTR [edi+148], OFFSET ??_7?$CList@NN@@6B@

; 870  : 	m_nCount = 0;

  0014a	c7 87 a0 00 00
	00 00 00 00 00	 mov	 DWORD PTR [edi+160], 0

; 871  : 	m_pNodeHead = m_pNodeTail = m_pNodeFree = NULL;

  00154	c7 87 a4 00 00
	00 00 00 00 00	 mov	 DWORD PTR [edi+164], 0
  0015e	c7 87 9c 00 00
	00 00 00 00 00	 mov	 DWORD PTR [edi+156], 0
  00168	c7 87 98 00 00
	00 00 00 00 00	 mov	 DWORD PTR [edi+152], 0

; 872  : 	m_pBlocks->FreeDataChain();

  00172	e8 00 00 00 00	 call	 ?FreeDataChain@CPlex@@QAEXXZ ; CPlex::FreeDataChain
; File D:\git\src\IBK\IBK_DRFN\ProjSrc\SrcChartEx\ChartOCX\PacketData\PacketImplementation.cpp

; 69   : }

  00177	8d 8f 90 00 00
	00		 lea	 ecx, DWORD PTR [edi+144]
; File C:\Program Files (x86)\Microsoft Visual Studio\2019\Community\VC\Tools\MSVC\14.29.30133\atlmfc\include\afxtempl.h

; 873  : 	m_pBlocks = NULL;

  0017d	c7 87 a8 00 00
	00 00 00 00 00	 mov	 DWORD PTR [edi+168], 0
; File D:\git\src\IBK\IBK_DRFN\ProjSrc\SrcChartEx\ChartOCX\PacketData\PacketImplementation.cpp

; 69   : }

  00187	ff 15 00 00 00
	00		 call	 DWORD PTR __imp_??1?$CStringT@DV?$StrTraitMFC_DLL@DV?$ChTraitsCRT@D@ATL@@@@@ATL@@QAE@XZ
  0018d	8d 8f 8c 00 00
	00		 lea	 ecx, DWORD PTR [edi+140]
  00193	ff 15 00 00 00
	00		 call	 DWORD PTR __imp_??1?$CStringT@DV?$StrTraitMFC_DLL@DV?$ChTraitsCRT@D@ATL@@@@@ATL@@QAE@XZ
  00199	8d 8f 88 00 00
	00		 lea	 ecx, DWORD PTR [edi+136]
  0019f	ff 15 00 00 00
	00		 call	 DWORD PTR __imp_??1?$CStringT@DV?$StrTraitMFC_DLL@DV?$ChTraitsCRT@D@ATL@@@@@ATL@@QAE@XZ
  001a5	8d 8f 84 00 00
	00		 lea	 ecx, DWORD PTR [edi+132]
  001ab	ff 15 00 00 00
	00		 call	 DWORD PTR __imp_??1?$CStringT@DV?$StrTraitMFC_DLL@DV?$ChTraitsCRT@D@ATL@@@@@ATL@@QAE@XZ
  001b1	8d 4f 68	 lea	 ecx, DWORD PTR [edi+104]
  001b4	ff 15 00 00 00
	00		 call	 DWORD PTR __imp_??1?$CStringT@DV?$StrTraitMFC_DLL@DV?$ChTraitsCRT@D@ATL@@@@@ATL@@QAE@XZ
  001ba	8d 4f 64	 lea	 ecx, DWORD PTR [edi+100]
  001bd	ff 15 00 00 00
	00		 call	 DWORD PTR __imp_??1?$CStringT@DV?$StrTraitMFC_DLL@DV?$ChTraitsCRT@D@ATL@@@@@ATL@@QAE@XZ
  001c3	8b 4d f4	 mov	 ecx, DWORD PTR __$EHRec$[ebp]
  001c6	64 89 0d 00 00
	00 00		 mov	 DWORD PTR fs:0, ecx
  001cd	59		 pop	 ecx
  001ce	5f		 pop	 edi
  001cf	5e		 pop	 esi
  001d0	8b e5		 mov	 esp, ebp
  001d2	5d		 pop	 ebp
  001d3	c3		 ret	 0
  001d4	cc		 int	 3
  001d5	cc		 int	 3
  001d6	cc		 int	 3
  001d7	cc		 int	 3
  001d8	cc		 int	 3
_TEXT	ENDS
;	COMDAT text$x
text$x	SEGMENT
__ehhandler$??1CPacketImplementation@@UAE@XZ:
  00000	90		 npad	 1
  00001	90		 npad	 1
  00002	8b 54 24 08	 mov	 edx, DWORD PTR [esp+8]
  00006	8d 42 0c	 lea	 eax, DWORD PTR [edx+12]
  00009	8b 4a f4	 mov	 ecx, DWORD PTR [edx-12]
  0000c	33 c8		 xor	 ecx, eax
  0000e	e8 00 00 00 00	 call	 @__security_check_cookie@4
  00013	b8 00 00 00 00	 mov	 eax, OFFSET __ehfuncinfo$??1CPacketImplementation@@UAE@XZ
  00018	e9 00 00 00 00	 jmp	 ___CxxFrameHandler3
text$x	ENDS
??1CPacketImplementation@@UAE@XZ ENDP			; CPacketImplementation::~CPacketImplementation
; Function compile flags: /Ogtp
; File D:\git\src\IBK\IBK_DRFN\ProjSrc\SrcChartEx\ChartOCX\PacketData\PacketImplementation.cpp
; File C:\Program Files (x86)\Microsoft Visual Studio\2019\Community\VC\Tools\MSVC\14.29.30133\atlmfc\include\afxtempl.h
; File D:\git\src\IBK\IBK_DRFN\ProjSrc\SrcChartEx\ChartOCX\PacketData\PacketImplementation.cpp
; File C:\Program Files (x86)\Microsoft Visual Studio\2019\Community\VC\Tools\MSVC\14.29.30133\atlmfc\include\afxtempl.h
; File D:\git\src\IBK\IBK_DRFN\ProjSrc\SrcChartEx\ChartOCX\PacketData\PacketImplementation.cpp
;	COMDAT ??0CPacketImplementation@@QAE@PAVCPacket@@PAVCPacketList@@V?$CStringT@DV?$StrTraitMFC_DLL@DV?$ChTraitsCRT@D@ATL@@@@@ATL@@222H_NH2@Z
_TEXT	SEGMENT
$T2 = -24						; size = 8
$T3 = -24						; size = 8
$T4 = -24						; size = 8
$T5 = -24						; size = 8
_this$ = -16						; size = 4
__$EHRec$ = -12						; size = 12
_pPacket$ = 8						; size = 4
_pParentList$ = 12					; size = 4
_strName$ = 16						; size = 4
_strFieldName$ = 20					; size = 4
_strType$ = 24						; size = 4
_szExpressionType$ = 28					; size = 4
_nDataLength$ = 32					; size = 4
_bUseReal$ = 36						; size = 1
_nStartPeriod$ = 40					; size = 4
_strRealFieldName$ = 44					; size = 4
??0CPacketImplementation@@QAE@PAVCPacket@@PAVCPacketList@@V?$CStringT@DV?$StrTraitMFC_DLL@DV?$ChTraitsCRT@D@ATL@@@@@ATL@@222H_NH2@Z PROC ; CPacketImplementation::CPacketImplementation, COMDAT
; _this$ = ecx

; 55   : {

  00000	55		 push	 ebp
  00001	8b ec		 mov	 ebp, esp
  00003	6a ff		 push	 -1
  00005	68 00 00 00 00	 push	 __ehhandler$??0CPacketImplementation@@QAE@PAVCPacket@@PAVCPacketList@@V?$CStringT@DV?$StrTraitMFC_DLL@DV?$ChTraitsCRT@D@ATL@@@@@ATL@@222H_NH2@Z
  0000a	64 a1 00 00 00
	00		 mov	 eax, DWORD PTR fs:0
  00010	50		 push	 eax
  00011	83 ec 0c	 sub	 esp, 12			; 0000000cH
  00014	56		 push	 esi
  00015	a1 00 00 00 00	 mov	 eax, DWORD PTR ___security_cookie
  0001a	33 c5		 xor	 eax, ebp
  0001c	50		 push	 eax
  0001d	8d 45 f4	 lea	 eax, DWORD PTR __$EHRec$[ebp]
  00020	64 a3 00 00 00
	00		 mov	 DWORD PTR fs:0, eax
  00026	8b f1		 mov	 esi, ecx
  00028	89 75 f0	 mov	 DWORD PTR _this$[ebp], esi

; 31   : 	m_pPacket(pPacket),

  0002b	8b 45 08	 mov	 eax, DWORD PTR _pPacket$[ebp]

; 41   : 	m_lnData(256),
; 42   : 	m_bBaseData(true),
; 43   : 	m_standardValue(false, 0), 

  0002e	8d 4e 30	 lea	 ecx, DWORD PTR [esi+48]
  00031	0f 28 05 00 00
	00 00		 movaps	 xmm0, XMMWORD PTR __xmm@7fefffffffffffffffefffffffffffff
  00038	89 46 08	 mov	 DWORD PTR [esi+8], eax
  0003b	8b 45 28	 mov	 eax, DWORD PTR _nStartPeriod$[ebp]
  0003e	89 46 24	 mov	 DWORD PTR [esi+36], eax
  00041	8b 45 20	 mov	 eax, DWORD PTR _nDataLength$[ebp]
  00044	89 46 28	 mov	 DWORD PTR [esi+40], eax
  00047	8d 45 e8	 lea	 eax, DWORD PTR $T5[ebp]
  0004a	0f 11 46 10	 movups	 XMMWORD PTR [esi+16], xmm0
  0004e	50		 push	 eax
  0004f	0f 57 c0	 xorps	 xmm0, xmm0
  00052	c7 45 fc 04 00
	00 00		 mov	 DWORD PTR __$EHRec$[ebp+8], 4
  00059	6a 00		 push	 0
  0005b	c7 06 00 00 00
	00		 mov	 DWORD PTR [esi], OFFSET ??_7CPacketImplementation@@6B@
  00061	66 c7 46 20 00
	01		 mov	 WORD PTR [esi+32], 256	; 00000100H
  00067	c6 46 22 00	 mov	 BYTE PTR [esi+34], 0
  0006b	f2 0f 11 45 e8	 movsd	 QWORD PTR $T5[ebp], xmm0
  00070	e8 00 00 00 00	 call	 ??0CItemData@@QAE@_NABN@Z ; CItemData::CItemData

; 44   : 	m_upperBaseValue(false, 0), 

  00075	8d 45 e8	 lea	 eax, DWORD PTR $T4[ebp]
  00078	0f 57 c0	 xorps	 xmm0, xmm0
  0007b	50		 push	 eax
  0007c	6a 00		 push	 0
  0007e	8d 4e 40	 lea	 ecx, DWORD PTR [esi+64]
  00081	f2 0f 11 45 e8	 movsd	 QWORD PTR $T4[ebp], xmm0
  00086	e8 00 00 00 00	 call	 ??0CItemData@@QAE@_NABN@Z ; CItemData::CItemData

; 45   : 	m_lowerBaseValue(false, 0), 

  0008b	8d 45 e8	 lea	 eax, DWORD PTR $T3[ebp]
  0008e	0f 57 c0	 xorps	 xmm0, xmm0
  00091	50		 push	 eax
  00092	6a 00		 push	 0
  00094	8d 4e 50	 lea	 ecx, DWORD PTR [esi+80]
  00097	f2 0f 11 45 e8	 movsd	 QWORD PTR $T3[ebp], xmm0
  0009c	e8 00 00 00 00	 call	 ??0CItemData@@QAE@_NABN@Z ; CItemData::CItemData

; 37   : 	m_nLength(nDataLength),
; 38   : 	m_bUseReal(bUseReal),

  000a1	8a 45 24	 mov	 al, BYTE PTR _bUseReal$[ebp]

; 35   : 	m_Type(strType),

  000a4	8d 4e 64	 lea	 ecx, DWORD PTR [esi+100]
  000a7	88 46 60	 mov	 BYTE PTR [esi+96], al
  000aa	8d 45 18	 lea	 eax, DWORD PTR _strType$[ebp]
  000ad	50		 push	 eax
  000ae	ff 15 00 00 00
	00		 call	 DWORD PTR __imp_??0?$CStringT@DV?$StrTraitMFC_DLL@DV?$ChTraitsCRT@D@ATL@@@@@ATL@@QAE@ABV01@@Z

; 36   : 	m_ExpressionType(szExpressionType),

  000b4	8d 45 1c	 lea	 eax, DWORD PTR _szExpressionType$[ebp]
  000b7	c6 45 fc 05	 mov	 BYTE PTR __$EHRec$[ebp+8], 5
  000bb	50		 push	 eax
  000bc	8d 4e 68	 lea	 ecx, DWORD PTR [esi+104]
  000bf	ff 15 00 00 00
	00		 call	 DWORD PTR __imp_??0?$CStringT@DV?$StrTraitMFC_DLL@DV?$ChTraitsCRT@D@ATL@@@@@ATL@@QAE@ABV01@@Z

; 46   : 	m_realDataGap(false, 0),

  000c5	8d 45 e8	 lea	 eax, DWORD PTR $T2[ebp]
  000c8	c6 45 fc 06	 mov	 BYTE PTR __$EHRec$[ebp+8], 6
  000cc	50		 push	 eax
  000cd	0f 57 c0	 xorps	 xmm0, xmm0
  000d0	8d 4e 70	 lea	 ecx, DWORD PTR [esi+112]
  000d3	6a 00		 push	 0
  000d5	f2 0f 11 45 e8	 movsd	 QWORD PTR $T2[ebp], xmm0
  000da	e8 00 00 00 00	 call	 ??0CItemData@@QAE@_NABN@Z ; CItemData::CItemData

; 34   : 	m_FieldName(strFieldName),

  000df	8d 45 14	 lea	 eax, DWORD PTR _strFieldName$[ebp]
  000e2	c7 86 80 00 00
	00 ff ff ff ff	 mov	 DWORD PTR [esi+128], -1
  000ec	50		 push	 eax
  000ed	8d 8e 84 00 00
	00		 lea	 ecx, DWORD PTR [esi+132]
  000f3	ff 15 00 00 00
	00		 call	 DWORD PTR __imp_??0?$CStringT@DV?$StrTraitMFC_DLL@DV?$ChTraitsCRT@D@ATL@@@@@ATL@@QAE@ABV01@@Z

; 33   : 	m_Name(strName),

  000f9	8d 45 10	 lea	 eax, DWORD PTR _strName$[ebp]
  000fc	c6 45 fc 07	 mov	 BYTE PTR __$EHRec$[ebp+8], 7
  00100	50		 push	 eax
  00101	8d 8e 88 00 00
	00		 lea	 ecx, DWORD PTR [esi+136]
  00107	ff 15 00 00 00
	00		 call	 DWORD PTR __imp_??0?$CStringT@DV?$StrTraitMFC_DLL@DV?$ChTraitsCRT@D@ATL@@@@@ATL@@QAE@ABV01@@Z

; 39   : 	m_nStartPeriod(nStartPeriod),
; 40   : 	m_RealFieldName(strRealFieldName),

  0010d	8d 45 2c	 lea	 eax, DWORD PTR _strRealFieldName$[ebp]
  00110	c6 45 fc 08	 mov	 BYTE PTR __$EHRec$[ebp+8], 8
  00114	50		 push	 eax
  00115	8d 8e 8c 00 00
	00		 lea	 ecx, DWORD PTR [esi+140]
  0011b	ff 15 00 00 00
	00		 call	 DWORD PTR __imp_??0?$CStringT@DV?$StrTraitMFC_DLL@DV?$ChTraitsCRT@D@ATL@@@@@ATL@@QAE@ABV01@@Z

; 55   : {

  00121	8d 8e 90 00 00
	00		 lea	 ecx, DWORD PTR [esi+144]
  00127	ff 15 00 00 00
	00		 call	 DWORD PTR __imp_??0?$CStringT@DV?$StrTraitMFC_DLL@DV?$ChTraitsCRT@D@ATL@@@@@ATL@@QAE@XZ
; File C:\Program Files (x86)\Microsoft Visual Studio\2019\Community\VC\Tools\MSVC\14.29.30133\atlmfc\include\afxtempl.h

; 851  : {

  0012d	c7 86 94 00 00
	00 00 00 00 00	 mov	 DWORD PTR [esi+148], OFFSET ??_7?$CList@NN@@6B@

; 852  : 	ASSERT(nBlockSize > 0);
; 853  : 
; 854  : 	m_nCount = 0;

  00137	c7 86 a0 00 00
	00 00 00 00 00	 mov	 DWORD PTR [esi+160], 0

; 855  : 	m_pNodeHead = m_pNodeTail = m_pNodeFree = NULL;

  00141	c7 86 a4 00 00
	00 00 00 00 00	 mov	 DWORD PTR [esi+164], 0
  0014b	c7 86 9c 00 00
	00 00 00 00 00	 mov	 DWORD PTR [esi+156], 0
  00155	c7 86 98 00 00
	00 00 00 00 00	 mov	 DWORD PTR [esi+152], 0

; 856  : 	m_pBlocks = NULL;

  0015f	c7 86 a8 00 00
	00 00 00 00 00	 mov	 DWORD PTR [esi+168], 0

; 857  : 	m_nBlockSize = nBlockSize;

  00169	c7 86 ac 00 00
	00 00 01 00 00	 mov	 DWORD PTR [esi+172], 256 ; 00000100H

; 851  : {

  00173	c7 86 b0 00 00
	00 00 00 00 00	 mov	 DWORD PTR [esi+176], OFFSET ??_7?$CList@V?$CStringT@DV?$StrTraitMFC_DLL@DV?$ChTraitsCRT@D@ATL@@@@@ATL@@V12@@@6B@

; 852  : 	ASSERT(nBlockSize > 0);
; 853  : 
; 854  : 	m_nCount = 0;

  0017d	c7 86 bc 00 00
	00 00 00 00 00	 mov	 DWORD PTR [esi+188], 0

; 855  : 	m_pNodeHead = m_pNodeTail = m_pNodeFree = NULL;

  00187	c7 86 c0 00 00
	00 00 00 00 00	 mov	 DWORD PTR [esi+192], 0
  00191	c7 86 b8 00 00
	00 00 00 00 00	 mov	 DWORD PTR [esi+184], 0
  0019b	c7 86 b4 00 00
	00 00 00 00 00	 mov	 DWORD PTR [esi+180], 0

; 856  : 	m_pBlocks = NULL;

  001a5	c7 86 c4 00 00
	00 00 00 00 00	 mov	 DWORD PTR [esi+196], 0

; 857  : 	m_nBlockSize = nBlockSize;

  001af	c7 86 c8 00 00
	00 0a 00 00 00	 mov	 DWORD PTR [esi+200], 10	; 0000000aH
; File D:\git\src\IBK\IBK_DRFN\ProjSrc\SrcChartEx\ChartOCX\PacketData\PacketImplementation.cpp

; 32   : 	m_pParentList(pParentList),

  001b9	8b 45 0c	 mov	 eax, DWORD PTR _pParentList$[ebp]
  001bc	89 86 cc 00 00
	00		 mov	 DWORD PTR [esi+204], eax
; File C:\Program Files (x86)\Microsoft Visual Studio\2019\Community\VC\Tools\MSVC\14.29.30133\atlmfc\include\afxtempl.h

; 851  : {

  001c2	c7 86 d0 00 00
	00 00 00 00 00	 mov	 DWORD PTR [esi+208], OFFSET ??_7?$CList@NN@@6B@

; 852  : 	ASSERT(nBlockSize > 0);
; 853  : 
; 854  : 	m_nCount = 0;

  001cc	c7 86 dc 00 00
	00 00 00 00 00	 mov	 DWORD PTR [esi+220], 0

; 855  : 	m_pNodeHead = m_pNodeTail = m_pNodeFree = NULL;

  001d6	c7 86 e0 00 00
	00 00 00 00 00	 mov	 DWORD PTR [esi+224], 0
  001e0	c7 86 d8 00 00
	00 00 00 00 00	 mov	 DWORD PTR [esi+216], 0
  001ea	c7 86 d4 00 00
	00 00 00 00 00	 mov	 DWORD PTR [esi+212], 0

; 856  : 	m_pBlocks = NULL;

  001f4	c7 86 e4 00 00
	00 00 00 00 00	 mov	 DWORD PTR [esi+228], 0

; 857  : 	m_nBlockSize = nBlockSize;

  001fe	c7 86 e8 00 00
	00 0a 00 00 00	 mov	 DWORD PTR [esi+232], 10	; 0000000aH
; File D:\git\src\IBK\IBK_DRFN\ProjSrc\SrcChartEx\ChartOCX\PacketData\PacketImplementation.cpp

; 52   : 	m_dExceptionValue( -HUGE_VAL),

  00208	0f 28 05 00 00
	00 00		 movaps	 xmm0, XMMWORD PTR __xmm@fff0000000000000fff0000000000000

; 55   : {

  0020f	8d 8e 0c 01 00
	00		 lea	 ecx, DWORD PTR [esi+268]
  00215	0f 11 86 f8 00
	00 00		 movups	 XMMWORD PTR [esi+248], xmm0
  0021c	ff 15 00 00 00
	00		 call	 DWORD PTR __imp_??0?$CStringT@DV?$StrTraitMFC_DLL@DV?$ChTraitsCRT@D@ATL@@@@@ATL@@QAE@XZ

; 53   : 	m_dContinueCode( -HUGE_VAL),
; 54   : 	m_strSubName("")				// 20100324_JS.Kim .FX	      

  00222	68 00 00 00 00	 push	 OFFSET ??_C@_00CNPNBAHC@@
  00227	8d 8e 58 01 00
	00		 lea	 ecx, DWORD PTR [esi+344]
  0022d	c6 45 fc 0e	 mov	 BYTE PTR __$EHRec$[ebp+8], 14 ; 0000000eH
  00231	ff 15 00 00 00
	00		 call	 DWORD PTR __imp_??0?$CStringT@DV?$StrTraitMFC_DLL@DV?$ChTraitsCRT@D@ATL@@@@@ATL@@QAE@PBD@Z

; 1800 : 	m_dContinueCode_Pre			= -HUGE_VAL;

  00237	0f 28 05 00 00
	00 00		 movaps	 xmm0, XMMWORD PTR __xmm@fff0000000000000fff0000000000000

; 58   : 
; 59   : 	// (2009/1/17 - Seung-Won, Bae) Support Min/Max cache. Do not make Min/Max every time of updating data.
; 60   : 	//		Do not support Full Range Min/Max for collision with Pre-Min/Max.
; 61   : 	ClearMinMax();
; 62   : } 

  0023e	8d 4d 10	 lea	 ecx, DWORD PTR _strName$[ebp]

; 1805 : 	m_dPreMaxValue				= -DBL_MAX;

  00241	f2 0f 10 0d 00
	00 00 00	 movsd	 xmm1, QWORD PTR __real@ffefffffffffffff
  00249	0f 11 86 18 01
	00 00		 movups	 XMMWORD PTR [esi+280], xmm0

; 56   : 	// (2007/2/21 - Seung-Won, Bae) Support Not-Auto Scale Type.
; 57   : 	m_bAutoScaleType = TRUE;

  00250	c7 86 08 01 00
	00 01 00 00 00	 mov	 DWORD PTR [esi+264], 1

; 1806 : 	m_dPreMinValue				= DBL_MAX;

  0025a	f2 0f 10 05 00
	00 00 00	 movsd	 xmm0, QWORD PTR __real@7fefffffffffffff
  00262	c7 86 10 01 00
	00 00 00 00 00	 mov	 DWORD PTR [esi+272], 0
  0026c	c7 86 28 01 00
	00 ff ff ff ff	 mov	 DWORD PTR [esi+296], -1
  00276	c7 86 2c 01 00
	00 ff ff ff ff	 mov	 DWORD PTR [esi+300], -1
  00280	c7 86 30 01 00
	00 ff ff ff ff	 mov	 DWORD PTR [esi+304], -1
  0028a	f2 0f 11 8e 38
	01 00 00	 movsd	 QWORD PTR [esi+312], xmm1
  00292	f2 0f 11 86 40
	01 00 00	 movsd	 QWORD PTR [esi+320], xmm0

; 1807 : 	m_dPreMaxValueWithoutEnd	= -DBL_MAX;

  0029a	f2 0f 11 8e 48
	01 00 00	 movsd	 QWORD PTR [esi+328], xmm1

; 1808 : 	m_dPreMinValueWithoutEnd	= DBL_MAX;

  002a2	f2 0f 11 86 50
	01 00 00	 movsd	 QWORD PTR [esi+336], xmm0

; 58   : 
; 59   : 	// (2009/1/17 - Seung-Won, Bae) Support Min/Max cache. Do not make Min/Max every time of updating data.
; 60   : 	//		Do not support Full Range Min/Max for collision with Pre-Min/Max.
; 61   : 	ClearMinMax();
; 62   : } 

  002aa	ff 15 00 00 00
	00		 call	 DWORD PTR __imp_??1?$CStringT@DV?$StrTraitMFC_DLL@DV?$ChTraitsCRT@D@ATL@@@@@ATL@@QAE@XZ
  002b0	8d 4d 14	 lea	 ecx, DWORD PTR _strFieldName$[ebp]
  002b3	ff 15 00 00 00
	00		 call	 DWORD PTR __imp_??1?$CStringT@DV?$StrTraitMFC_DLL@DV?$ChTraitsCRT@D@ATL@@@@@ATL@@QAE@XZ
  002b9	8d 4d 18	 lea	 ecx, DWORD PTR _strType$[ebp]
  002bc	ff 15 00 00 00
	00		 call	 DWORD PTR __imp_??1?$CStringT@DV?$StrTraitMFC_DLL@DV?$ChTraitsCRT@D@ATL@@@@@ATL@@QAE@XZ
  002c2	8d 4d 1c	 lea	 ecx, DWORD PTR _szExpressionType$[ebp]
  002c5	ff 15 00 00 00
	00		 call	 DWORD PTR __imp_??1?$CStringT@DV?$StrTraitMFC_DLL@DV?$ChTraitsCRT@D@ATL@@@@@ATL@@QAE@XZ
  002cb	8d 4d 2c	 lea	 ecx, DWORD PTR _strRealFieldName$[ebp]
  002ce	ff 15 00 00 00
	00		 call	 DWORD PTR __imp_??1?$CStringT@DV?$StrTraitMFC_DLL@DV?$ChTraitsCRT@D@ATL@@@@@ATL@@QAE@XZ
  002d4	8b c6		 mov	 eax, esi
  002d6	8b 4d f4	 mov	 ecx, DWORD PTR __$EHRec$[ebp]
  002d9	64 89 0d 00 00
	00 00		 mov	 DWORD PTR fs:0, ecx
  002e0	59		 pop	 ecx
  002e1	5e		 pop	 esi
  002e2	8b e5		 mov	 esp, ebp
  002e4	5d		 pop	 ebp
  002e5	c2 28 00	 ret	 40			; 00000028H
_TEXT	ENDS
;	COMDAT text$x
text$x	SEGMENT
__unwindfunclet$??0CPacketImplementation@@QAE@PAVCPacket@@PAVCPacketList@@V?$CStringT@DV?$StrTraitMFC_DLL@DV?$ChTraitsCRT@D@ATL@@@@@ATL@@222H_NH2@Z$0:
  00000	8d 4d 2c	 lea	 ecx, DWORD PTR _strRealFieldName$[ebp]
  00003	ff 25 00 00 00
	00		 jmp	 DWORD PTR __imp_??1?$CStringT@DV?$StrTraitMFC_DLL@DV?$ChTraitsCRT@D@ATL@@@@@ATL@@QAE@XZ
__unwindfunclet$??0CPacketImplementation@@QAE@PAVCPacket@@PAVCPacketList@@V?$CStringT@DV?$StrTraitMFC_DLL@DV?$ChTraitsCRT@D@ATL@@@@@ATL@@222H_NH2@Z$1:
  00009	8d 4d 1c	 lea	 ecx, DWORD PTR _szExpressionType$[ebp]
  0000c	ff 25 00 00 00
	00		 jmp	 DWORD PTR __imp_??1?$CStringT@DV?$StrTraitMFC_DLL@DV?$ChTraitsCRT@D@ATL@@@@@ATL@@QAE@XZ
__unwindfunclet$??0CPacketImplementation@@QAE@PAVCPacket@@PAVCPacketList@@V?$CStringT@DV?$StrTraitMFC_DLL@DV?$ChTraitsCRT@D@ATL@@@@@ATL@@222H_NH2@Z$2:
  00012	8d 4d 18	 lea	 ecx, DWORD PTR _strType$[ebp]
  00015	ff 25 00 00 00
	00		 jmp	 DWORD PTR __imp_??1?$CStringT@DV?$StrTraitMFC_DLL@DV?$ChTraitsCRT@D@ATL@@@@@ATL@@QAE@XZ
__unwindfunclet$??0CPacketImplementation@@QAE@PAVCPacket@@PAVCPacketList@@V?$CStringT@DV?$StrTraitMFC_DLL@DV?$ChTraitsCRT@D@ATL@@@@@ATL@@222H_NH2@Z$3:
  0001b	8d 4d 14	 lea	 ecx, DWORD PTR _strFieldName$[ebp]
  0001e	ff 25 00 00 00
	00		 jmp	 DWORD PTR __imp_??1?$CStringT@DV?$StrTraitMFC_DLL@DV?$ChTraitsCRT@D@ATL@@@@@ATL@@QAE@XZ
__unwindfunclet$??0CPacketImplementation@@QAE@PAVCPacket@@PAVCPacketList@@V?$CStringT@DV?$StrTraitMFC_DLL@DV?$ChTraitsCRT@D@ATL@@@@@ATL@@222H_NH2@Z$4:
  00024	8d 4d 10	 lea	 ecx, DWORD PTR _strName$[ebp]
  00027	ff 25 00 00 00
	00		 jmp	 DWORD PTR __imp_??1?$CStringT@DV?$StrTraitMFC_DLL@DV?$ChTraitsCRT@D@ATL@@@@@ATL@@QAE@XZ
__unwindfunclet$??0CPacketImplementation@@QAE@PAVCPacket@@PAVCPacketList@@V?$CStringT@DV?$StrTraitMFC_DLL@DV?$ChTraitsCRT@D@ATL@@@@@ATL@@222H_NH2@Z$5:
  0002d	8b 4d f0	 mov	 ecx, DWORD PTR _this$[ebp]
  00030	83 c1 64	 add	 ecx, 100		; 00000064H
  00033	ff 25 00 00 00
	00		 jmp	 DWORD PTR __imp_??1?$CStringT@DV?$StrTraitMFC_DLL@DV?$ChTraitsCRT@D@ATL@@@@@ATL@@QAE@XZ
__unwindfunclet$??0CPacketImplementation@@QAE@PAVCPacket@@PAVCPacketList@@V?$CStringT@DV?$StrTraitMFC_DLL@DV?$ChTraitsCRT@D@ATL@@@@@ATL@@222H_NH2@Z$6:
  00039	8b 4d f0	 mov	 ecx, DWORD PTR _this$[ebp]
  0003c	83 c1 68	 add	 ecx, 104		; 00000068H
  0003f	ff 25 00 00 00
	00		 jmp	 DWORD PTR __imp_??1?$CStringT@DV?$StrTraitMFC_DLL@DV?$ChTraitsCRT@D@ATL@@@@@ATL@@QAE@XZ
__unwindfunclet$??0CPacketImplementation@@QAE@PAVCPacket@@PAVCPacketList@@V?$CStringT@DV?$StrTraitMFC_DLL@DV?$ChTraitsCRT@D@ATL@@@@@ATL@@222H_NH2@Z$7:
  00045	8b 4d f0	 mov	 ecx, DWORD PTR _this$[ebp]
  00048	81 c1 84 00 00
	00		 add	 ecx, 132		; 00000084H
  0004e	ff 25 00 00 00
	00		 jmp	 DWORD PTR __imp_??1?$CStringT@DV?$StrTraitMFC_DLL@DV?$ChTraitsCRT@D@ATL@@@@@ATL@@QAE@XZ
__unwindfunclet$??0CPacketImplementation@@QAE@PAVCPacket@@PAVCPacketList@@V?$CStringT@DV?$StrTraitMFC_DLL@DV?$ChTraitsCRT@D@ATL@@@@@ATL@@222H_NH2@Z$8:
  00054	8b 4d f0	 mov	 ecx, DWORD PTR _this$[ebp]
  00057	81 c1 88 00 00
	00		 add	 ecx, 136		; 00000088H
  0005d	ff 25 00 00 00
	00		 jmp	 DWORD PTR __imp_??1?$CStringT@DV?$StrTraitMFC_DLL@DV?$ChTraitsCRT@D@ATL@@@@@ATL@@QAE@XZ
__unwindfunclet$??0CPacketImplementation@@QAE@PAVCPacket@@PAVCPacketList@@V?$CStringT@DV?$StrTraitMFC_DLL@DV?$ChTraitsCRT@D@ATL@@@@@ATL@@222H_NH2@Z$9:
  00063	8b 4d f0	 mov	 ecx, DWORD PTR _this$[ebp]
  00066	81 c1 8c 00 00
	00		 add	 ecx, 140		; 0000008cH
  0006c	ff 25 00 00 00
	00		 jmp	 DWORD PTR __imp_??1?$CStringT@DV?$StrTraitMFC_DLL@DV?$ChTraitsCRT@D@ATL@@@@@ATL@@QAE@XZ
__unwindfunclet$??0CPacketImplementation@@QAE@PAVCPacket@@PAVCPacketList@@V?$CStringT@DV?$StrTraitMFC_DLL@DV?$ChTraitsCRT@D@ATL@@@@@ATL@@222H_NH2@Z$10:
  00072	8b 4d f0	 mov	 ecx, DWORD PTR _this$[ebp]
  00075	81 c1 90 00 00
	00		 add	 ecx, 144		; 00000090H
  0007b	ff 25 00 00 00
	00		 jmp	 DWORD PTR __imp_??1?$CStringT@DV?$StrTraitMFC_DLL@DV?$ChTraitsCRT@D@ATL@@@@@ATL@@QAE@XZ
__unwindfunclet$??0CPacketImplementation@@QAE@PAVCPacket@@PAVCPacketList@@V?$CStringT@DV?$StrTraitMFC_DLL@DV?$ChTraitsCRT@D@ATL@@@@@ATL@@222H_NH2@Z$11:
  00081	8b 4d f0	 mov	 ecx, DWORD PTR _this$[ebp]
  00084	81 c1 94 00 00
	00		 add	 ecx, 148		; 00000094H
  0008a	e9 00 00 00 00	 jmp	 ??1?$CList@NN@@UAE@XZ	; CList<double,double>::~CList<double,double>
__unwindfunclet$??0CPacketImplementation@@QAE@PAVCPacket@@PAVCPacketList@@V?$CStringT@DV?$StrTraitMFC_DLL@DV?$ChTraitsCRT@D@ATL@@@@@ATL@@222H_NH2@Z$12:
  0008f	8b 4d f0	 mov	 ecx, DWORD PTR _this$[ebp]
  00092	81 c1 b0 00 00
	00		 add	 ecx, 176		; 000000b0H
  00098	e9 00 00 00 00	 jmp	 ??1?$CList@V?$CStringT@DV?$StrTraitMFC_DLL@DV?$ChTraitsCRT@D@ATL@@@@@ATL@@V12@@@UAE@XZ ; CList<ATL::CStringT<char,StrTraitMFC_DLL<char,ATL::ChTraitsCRT<char> > >,ATL::CStringT<char,StrTraitMFC_DLL<char,ATL::ChTraitsCRT<char> > > >::~CList<ATL::CStringT<char,StrTraitMFC_DLL<char,ATL::ChTraitsCRT<char> > >,ATL::CStringT<char,StrTraitMFC_DLL<char,ATL::ChTraitsCRT<char> > > >
__unwindfunclet$??0CPacketImplementation@@QAE@PAVCPacket@@PAVCPacketList@@V?$CStringT@DV?$StrTraitMFC_DLL@DV?$ChTraitsCRT@D@ATL@@@@@ATL@@222H_NH2@Z$13:
  0009d	8b 4d f0	 mov	 ecx, DWORD PTR _this$[ebp]
  000a0	81 c1 d0 00 00
	00		 add	 ecx, 208		; 000000d0H
  000a6	e9 00 00 00 00	 jmp	 ??1?$CList@NN@@UAE@XZ	; CList<double,double>::~CList<double,double>
__unwindfunclet$??0CPacketImplementation@@QAE@PAVCPacket@@PAVCPacketList@@V?$CStringT@DV?$StrTraitMFC_DLL@DV?$ChTraitsCRT@D@ATL@@@@@ATL@@222H_NH2@Z$14:
  000ab	8b 4d f0	 mov	 ecx, DWORD PTR _this$[ebp]
  000ae	81 c1 0c 01 00
	00		 add	 ecx, 268		; 0000010cH
  000b4	ff 25 00 00 00
	00		 jmp	 DWORD PTR __imp_??1?$CStringT@DV?$StrTraitMFC_DLL@DV?$ChTraitsCRT@D@ATL@@@@@ATL@@QAE@XZ
  000ba	cc		 int	 3
  000bb	cc		 int	 3
  000bc	cc		 int	 3
  000bd	cc		 int	 3
  000be	cc		 int	 3
__ehhandler$??0CPacketImplementation@@QAE@PAVCPacket@@PAVCPacketList@@V?$CStringT@DV?$StrTraitMFC_DLL@DV?$ChTraitsCRT@D@ATL@@@@@ATL@@222H_NH2@Z:
  000bf	90		 npad	 1
  000c0	90		 npad	 1
  000c1	8b 54 24 08	 mov	 edx, DWORD PTR [esp+8]
  000c5	8d 42 0c	 lea	 eax, DWORD PTR [edx+12]
  000c8	8b 4a ec	 mov	 ecx, DWORD PTR [edx-20]
  000cb	33 c8		 xor	 ecx, eax
  000cd	e8 00 00 00 00	 call	 @__security_check_cookie@4
  000d2	b8 00 00 00 00	 mov	 eax, OFFSET __ehfuncinfo$??0CPacketImplementation@@QAE@PAVCPacket@@PAVCPacketList@@V?$CStringT@DV?$StrTraitMFC_DLL@DV?$ChTraitsCRT@D@ATL@@@@@ATL@@222H_NH2@Z
  000d7	e9 00 00 00 00	 jmp	 ___CxxFrameHandler3
text$x	ENDS
??0CPacketImplementation@@QAE@PAVCPacket@@PAVCPacketList@@V?$CStringT@DV?$StrTraitMFC_DLL@DV?$ChTraitsCRT@D@ATL@@@@@ATL@@222H_NH2@Z ENDP ; CPacketImplementation::CPacketImplementation
; Function compile flags: /Ogtp
; File D:\git\src\IBK\IBK_DRFN\ProjSrc\SrcChartEx\ChartOCX\Include_Chart\Dll_Load\PacketBase.h
;	COMDAT ?GetPriceUnitX100@CMPPacket@@QBEHXZ
_TEXT	SEGMENT
?GetPriceUnitX100@CMPPacket@@QBEHXZ PROC		; CMPPacket::GetPriceUnitX100, COMDAT
; _this$ = ecx

; 365  : 	int		GetPriceUnitX100( void) const			{	return m_nPriceUnitX100;	}

  00000	8b 41 24	 mov	 eax, DWORD PTR [ecx+36]
  00003	c3		 ret	 0
?GetPriceUnitX100@CMPPacket@@QBEHXZ ENDP		; CMPPacket::GetPriceUnitX100
_TEXT	ENDS
; Function compile flags: /Ogtp
; File D:\git\src\IBK\IBK_DRFN\ProjSrc\SrcChartEx\ChartOCX\Include_Chart\Dll_Load\PacketBase.h
;	COMDAT ?SetPriceUnitX100@CMPPacket@@QAEXH@Z
_TEXT	SEGMENT
_p_nPriceUnitX100$ = 8					; size = 4
?SetPriceUnitX100@CMPPacket@@QAEXH@Z PROC		; CMPPacket::SetPriceUnitX100, COMDAT
; _this$ = ecx

; 364  : 	void	SetPriceUnitX100( int p_nPriceUnitX100)	{	m_nPriceUnitX100 = p_nPriceUnitX100;	}

  00000	55		 push	 ebp
  00001	8b ec		 mov	 ebp, esp
  00003	8b 45 08	 mov	 eax, DWORD PTR _p_nPriceUnitX100$[ebp]
  00006	89 41 24	 mov	 DWORD PTR [ecx+36], eax
  00009	5d		 pop	 ebp
  0000a	c2 04 00	 ret	 4
?SetPriceUnitX100@CMPPacket@@QAEXH@Z ENDP		; CMPPacket::SetPriceUnitX100
_TEXT	ENDS
; Function compile flags: /Ogtp
; File D:\git\src\IBK\IBK_DRFN\ProjSrc\SrcChartEx\ChartOCX\Include_Chart\Dll_Load\PacketBase.h
;	COMDAT ?GetMarketProfileList@CMPPacket@@QAEPAV?$CList@PAVCMProfile@@PAV1@@@XZ
_TEXT	SEGMENT
?GetMarketProfileList@CMPPacket@@QAEPAV?$CList@PAVCMProfile@@PAV1@@@XZ PROC ; CMPPacket::GetMarketProfileList, COMDAT
; _this$ = ecx

; 349  : 	CList< CMProfile*, CMProfile*>* GetMarketProfileList() { return &m_listMarketProfile; }

  00000	8d 41 08	 lea	 eax, DWORD PTR [ecx+8]
  00003	c3		 ret	 0
?GetMarketProfileList@CMPPacket@@QAEPAV?$CList@PAVCMProfile@@PAV1@@@XZ ENDP ; CMPPacket::GetMarketProfileList
_TEXT	ENDS
; Function compile flags: /Ogtp
; File D:\git\src\IBK\IBK_DRFN\ProjSrc\SrcChartEx\ChartOCX\Include_Chart\Dll_Load\PacketBase.h
;	COMDAT ?SetLastPriceX100@CMProfile@@QAEXH@Z
_TEXT	SEGMENT
_p_nLastPriceX100$ = 8					; size = 4
?SetLastPriceX100@CMProfile@@QAEXH@Z PROC		; CMProfile::SetLastPriceX100, COMDAT
; _this$ = ecx

; 327  : 	void	SetLastPriceX100( int p_nLastPriceX100)	{	m_nLastPriceX100 = p_nLastPriceX100;	}

  00000	55		 push	 ebp
  00001	8b ec		 mov	 ebp, esp
  00003	8b 45 08	 mov	 eax, DWORD PTR _p_nLastPriceX100$[ebp]
  00006	89 41 24	 mov	 DWORD PTR [ecx+36], eax
  00009	5d		 pop	 ebp
  0000a	c2 04 00	 ret	 4
?SetLastPriceX100@CMProfile@@QAEXH@Z ENDP		; CMProfile::SetLastPriceX100
_TEXT	ENDS
; Function compile flags: /Ogtp
; File D:\git\src\IBK\IBK_DRFN\ProjSrc\SrcChartEx\ChartOCX\Include_Chart\Dll_Load\PacketBase.h
;	COMDAT ?GetLastPriceX100@CMProfile@@QBEHXZ
_TEXT	SEGMENT
?GetLastPriceX100@CMProfile@@QBEHXZ PROC		; CMProfile::GetLastPriceX100, COMDAT
; _this$ = ecx

; 326  : 	int		GetLastPriceX100( void) const		{	return m_nLastPriceX100;				}

  00000	8b 41 24	 mov	 eax, DWORD PTR [ecx+36]
  00003	c3		 ret	 0
?GetLastPriceX100@CMProfile@@QBEHXZ ENDP		; CMProfile::GetLastPriceX100
_TEXT	ENDS
; Function compile flags: /Ogtp
; File D:\git\src\IBK\IBK_DRFN\ProjSrc\SrcChartEx\ChartOCX\Include_Chart\Dll_Load\PacketBase.h
; File C:\Program Files (x86)\Microsoft Visual Studio\2019\Community\VC\Tools\MSVC\14.29.30133\atlmfc\include\afxtempl.h
; File D:\git\src\IBK\IBK_DRFN\ProjSrc\SrcChartEx\ChartOCX\Include_Chart\Dll_Load\PacketBase.h
;	COMDAT ?IsEmpty@CMProfile@@QAEHXZ
_TEXT	SEGMENT
?IsEmpty@CMProfile@@QAEHXZ PROC				; CMProfile::IsEmpty, COMDAT
; _this$ = ecx
; File C:\Program Files (x86)\Microsoft Visual Studio\2019\Community\VC\Tools\MSVC\14.29.30133\atlmfc\include\afxtempl.h

; 786  : 	{ return m_nCount == 0; }

  00000	33 c0		 xor	 eax, eax
  00002	39 41 14	 cmp	 DWORD PTR [ecx+20], eax
  00005	0f 94 c0	 sete	 al
; File D:\git\src\IBK\IBK_DRFN\ProjSrc\SrcChartEx\ChartOCX\Include_Chart\Dll_Load\PacketBase.h

; 319  : 	BOOL	IsEmpty( void)	{	return m_listMPItem.IsEmpty();	}

  00008	c3		 ret	 0
?IsEmpty@CMProfile@@QAEHXZ ENDP				; CMProfile::IsEmpty
_TEXT	ENDS
; Function compile flags: /Ogtp
; File D:\git\src\IBK\IBK_DRFN\ProjSrc\SrcChartEx\ChartOCX\Include_Chart\Dll_Load\PacketBase.h
;	COMDAT ?SetDate@CMProfile@@QAEXH@Z
_TEXT	SEGMENT
_nDate$ = 8						; size = 4
?SetDate@CMProfile@@QAEXH@Z PROC			; CMProfile::SetDate, COMDAT
; _this$ = ecx

; 300  : 	void		SetDate(const int nDate)	{	m_nDate = nDate;	}

  00000	55		 push	 ebp
  00001	8b ec		 mov	 ebp, esp
  00003	8b 45 08	 mov	 eax, DWORD PTR _nDate$[ebp]
  00006	89 41 04	 mov	 DWORD PTR [ecx+4], eax
  00009	5d		 pop	 ebp
  0000a	c2 04 00	 ret	 4
?SetDate@CMProfile@@QAEXH@Z ENDP			; CMProfile::SetDate
_TEXT	ENDS
; Function compile flags: /Ogtp
; File D:\git\src\IBK\IBK_DRFN\ProjSrc\SrcChartEx\ChartOCX\Include_Chart\Dll_Load\PacketBase.h
;	COMDAT ?GetMPItemList@CMProfile@@QAEPAV?$CList@PAVCMPItem@@PAV1@@@XZ
_TEXT	SEGMENT
?GetMPItemList@CMProfile@@QAEPAV?$CList@PAVCMPItem@@PAV1@@@XZ PROC ; CMProfile::GetMPItemList, COMDAT
; _this$ = ecx

; 289  : 	CList<CMPItem*, CMPItem*>* GetMPItemList()	{	return &m_listMPItem; }

  00000	8d 41 08	 lea	 eax, DWORD PTR [ecx+8]
  00003	c3		 ret	 0
?GetMPItemList@CMProfile@@QAEPAV?$CList@PAVCMPItem@@PAV1@@@XZ ENDP ; CMProfile::GetMPItemList
_TEXT	ENDS
; Function compile flags: /Ogtp
; File D:\git\src\IBK\IBK_DRFN\ProjSrc\SrcChartEx\ChartOCX\Include_Chart\Dll_Load\PacketBase.h
;	COMDAT ?GetDate@CMProfile@@QBEHXZ
_TEXT	SEGMENT
?GetDate@CMProfile@@QBEHXZ PROC				; CMProfile::GetDate, COMDAT
; _this$ = ecx

; 288  : 	int			GetDate() const					{	return m_nDate;	}

  00000	8b 41 04	 mov	 eax, DWORD PTR [ecx+4]
  00003	c3		 ret	 0
?GetDate@CMProfile@@QBEHXZ ENDP				; CMProfile::GetDate
_TEXT	ENDS
; Function compile flags: /Ogtp
; File D:\git\src\IBK\IBK_DRFN\ProjSrc\SrcChartEx\ChartOCX\Include_Chart\Dll_Load\PacketBase.h
;	COMDAT ?AddVolume@CMPItem@@QAEXK@Z
_TEXT	SEGMENT
_dwVolume$ = 8						; size = 4
?AddVolume@CMPItem@@QAEXK@Z PROC			; CMPItem::AddVolume, COMDAT
; _this$ = ecx

; 269  : 	void	AddVolume(	DWORD	dwVolume)	{	m_dwVolume		+=	dwVolume;		}

  00000	55		 push	 ebp
  00001	8b ec		 mov	 ebp, esp
  00003	8b 45 08	 mov	 eax, DWORD PTR _dwVolume$[ebp]
  00006	01 41 04	 add	 DWORD PTR [ecx+4], eax
  00009	5d		 pop	 ebp
  0000a	c2 04 00	 ret	 4
?AddVolume@CMPItem@@QAEXK@Z ENDP			; CMPItem::AddVolume
_TEXT	ENDS
; Function compile flags: /Ogtp
; File D:\git\src\IBK\IBK_DRFN\ProjSrc\SrcChartEx\ChartOCX\Include_Chart\Dll_Load\PacketBase.h
;	COMDAT ?SetPrice@CMPItem@@QAEXH@Z
_TEXT	SEGMENT
_nPriceX100$ = 8					; size = 4
?SetPrice@CMPItem@@QAEXH@Z PROC				; CMPItem::SetPrice, COMDAT
; _this$ = ecx

; 268  : 	void	SetPrice(	int		nPriceX100)	{	m_nPriceX100	=	nPriceX100;		}

  00000	55		 push	 ebp
  00001	8b ec		 mov	 ebp, esp
  00003	8b 45 08	 mov	 eax, DWORD PTR _nPriceX100$[ebp]
  00006	89 01		 mov	 DWORD PTR [ecx], eax
  00008	5d		 pop	 ebp
  00009	c2 04 00	 ret	 4
?SetPrice@CMPItem@@QAEXH@Z ENDP				; CMPItem::SetPrice
_TEXT	ENDS
; Function compile flags: /Ogtp
; File D:\git\src\IBK\IBK_DRFN\ProjSrc\SrcChartEx\ChartOCX\Include_Chart\Dll_Load\PacketBase.h
;	COMDAT ?GetBracketList@CMPItem@@QAEPAV?$CList@PAVCBracket@@PAV1@@@XZ
_TEXT	SEGMENT
?GetBracketList@CMPItem@@QAEPAV?$CList@PAVCBracket@@PAV1@@@XZ PROC ; CMPItem::GetBracketList, COMDAT
; _this$ = ecx

; 266  : 	CList<CBracket*, CBracket*>* GetBracketList()	{ return &m_listBracket; }

  00000	8d 41 08	 lea	 eax, DWORD PTR [ecx+8]
  00003	c3		 ret	 0
?GetBracketList@CMPItem@@QAEPAV?$CList@PAVCBracket@@PAV1@@@XZ ENDP ; CMPItem::GetBracketList
_TEXT	ENDS
; Function compile flags: /Ogtp
; File D:\git\src\IBK\IBK_DRFN\ProjSrc\SrcChartEx\ChartOCX\Include_Chart\Dll_Load\PacketBase.h
;	COMDAT ?GetVolume@CMPItem@@QBEKXZ
_TEXT	SEGMENT
?GetVolume@CMPItem@@QBEKXZ PROC				; CMPItem::GetVolume, COMDAT
; _this$ = ecx

; 265  : 	DWORD	GetVolume()		const { return m_dwVolume;		}

  00000	8b 41 04	 mov	 eax, DWORD PTR [ecx+4]
  00003	c3		 ret	 0
?GetVolume@CMPItem@@QBEKXZ ENDP				; CMPItem::GetVolume
_TEXT	ENDS
; Function compile flags: /Ogtp
; File D:\git\src\IBK\IBK_DRFN\ProjSrc\SrcChartEx\ChartOCX\Include_Chart\Dll_Load\PacketBase.h
;	COMDAT ?GetPriceX100@CMPItem@@QBEHXZ
_TEXT	SEGMENT
?GetPriceX100@CMPItem@@QBEHXZ PROC			; CMPItem::GetPriceX100, COMDAT
; _this$ = ecx

; 264  : 	int		GetPriceX100()	const { return m_nPriceX100;	}

  00000	8b 01		 mov	 eax, DWORD PTR [ecx]
  00002	c3		 ret	 0
?GetPriceX100@CMPItem@@QBEHXZ ENDP			; CMPItem::GetPriceX100
_TEXT	ENDS
; Function compile flags: /Ogtp
;	COMDAT ??4CBracket@@QAEAAV0@ABV0@@Z
_TEXT	SEGMENT
___that$ = 8						; size = 4
??4CBracket@@QAEAAV0@ABV0@@Z PROC			; CBracket::operator=, COMDAT
; _this$ = ecx
  00000	55		 push	 ebp
  00001	8b ec		 mov	 ebp, esp
  00003	8b 55 08	 mov	 edx, DWORD PTR ___that$[ebp]
  00006	56		 push	 esi
  00007	8b f1		 mov	 esi, ecx
  00009	8b 02		 mov	 eax, DWORD PTR [edx]
  0000b	89 06		 mov	 DWORD PTR [esi], eax
  0000d	8d 4e 08	 lea	 ecx, DWORD PTR [esi+8]
  00010	8b 42 04	 mov	 eax, DWORD PTR [edx+4]
  00013	89 46 04	 mov	 DWORD PTR [esi+4], eax
  00016	8d 42 08	 lea	 eax, DWORD PTR [edx+8]
  00019	50		 push	 eax
  0001a	ff 15 00 00 00
	00		 call	 DWORD PTR __imp_??4?$CStringT@DV?$StrTraitMFC_DLL@DV?$ChTraitsCRT@D@ATL@@@@@ATL@@QAEAAV01@ABV01@@Z
  00020	8b c6		 mov	 eax, esi
  00022	5e		 pop	 esi
  00023	5d		 pop	 ebp
  00024	c2 04 00	 ret	 4
??4CBracket@@QAEAAV0@ABV0@@Z ENDP			; CBracket::operator=
_TEXT	ENDS
; Function compile flags: /Ogtp
;	COMDAT ??0CBracket@@QAE@ABV0@@Z
_TEXT	SEGMENT
_this$ = -4						; size = 4
___that$ = 8						; size = 4
??0CBracket@@QAE@ABV0@@Z PROC				; CBracket::CBracket, COMDAT
; _this$ = ecx
  00000	55		 push	 ebp
  00001	8b ec		 mov	 ebp, esp
  00003	51		 push	 ecx
  00004	8b 55 08	 mov	 edx, DWORD PTR ___that$[ebp]
  00007	56		 push	 esi
  00008	8b f1		 mov	 esi, ecx
  0000a	89 75 fc	 mov	 DWORD PTR _this$[ebp], esi
  0000d	8b 02		 mov	 eax, DWORD PTR [edx]
  0000f	89 06		 mov	 DWORD PTR [esi], eax
  00011	8d 4e 08	 lea	 ecx, DWORD PTR [esi+8]
  00014	8b 42 04	 mov	 eax, DWORD PTR [edx+4]
  00017	89 46 04	 mov	 DWORD PTR [esi+4], eax
  0001a	8d 42 08	 lea	 eax, DWORD PTR [edx+8]
  0001d	50		 push	 eax
  0001e	ff 15 00 00 00
	00		 call	 DWORD PTR __imp_??0?$CStringT@DV?$StrTraitMFC_DLL@DV?$ChTraitsCRT@D@ATL@@@@@ATL@@QAE@ABV01@@Z
  00024	8b c6		 mov	 eax, esi
  00026	5e		 pop	 esi
  00027	8b e5		 mov	 esp, ebp
  00029	5d		 pop	 ebp
  0002a	c2 04 00	 ret	 4
??0CBracket@@QAE@ABV0@@Z ENDP				; CBracket::CBracket
_TEXT	ENDS
; Function compile flags: /Ogtp
; File D:\git\src\IBK\IBK_DRFN\ProjSrc\SrcChartEx\ChartOCX\Include_Chart\Dll_Load\PacketBase.h
;	COMDAT ?GetItem@CBracket@@QBEPBDXZ
_TEXT	SEGMENT
?GetItem@CBracket@@QBEPBDXZ PROC			; CBracket::GetItem, COMDAT
; _this$ = ecx

; 251  : 	const char *	GetItem()	const	{	return m_szItem;	}

  00000	8b 41 08	 mov	 eax, DWORD PTR [ecx+8]
  00003	c3		 ret	 0
?GetItem@CBracket@@QBEPBDXZ ENDP			; CBracket::GetItem
_TEXT	ENDS
; Function compile flags: /Ogtp
; File D:\git\src\IBK\IBK_DRFN\ProjSrc\SrcChartEx\ChartOCX\Include_Chart\Dll_Load\PacketBase.h
;	COMDAT ?GetDate@CBracket@@QBEHXZ
_TEXT	SEGMENT
?GetDate@CBracket@@QBEHXZ PROC				; CBracket::GetDate, COMDAT
; _this$ = ecx

; 250  : 	int				GetDate()	const	{	return m_nDate;		}

  00000	8b 41 04	 mov	 eax, DWORD PTR [ecx+4]
  00003	c3		 ret	 0
?GetDate@CBracket@@QBEHXZ ENDP				; CBracket::GetDate
_TEXT	ENDS
; Function compile flags: /Ogtp
; File D:\git\src\IBK\IBK_DRFN\ProjSrc\SrcChartEx\ChartOCX\Include_Chart\Dll_Load\PacketBase.h
;	COMDAT ?GetIndex@CBracket@@QBEHXZ
_TEXT	SEGMENT
?GetIndex@CBracket@@QBEHXZ PROC				; CBracket::GetIndex, COMDAT
; _this$ = ecx

; 249  : 	int				GetIndex()	const	{	return m_nIndex;	}

  00000	8b 01		 mov	 eax, DWORD PTR [ecx]
  00002	c3		 ret	 0
?GetIndex@CBracket@@QBEHXZ ENDP				; CBracket::GetIndex
_TEXT	ENDS
; Function compile flags: /Ogtp
; File C:\Program Files (x86)\Microsoft Visual Studio\2019\Community\VC\Tools\MSVC\14.29.30133\atlmfc\include\afxtempl.h
; File C:\Program Files (x86)\Microsoft Visual Studio\2019\Community\VC\Tools\MSVC\14.29.30133\atlmfc\include\afx.inl
;	COMDAT ??_G?$CList@V?$CStringT@DV?$StrTraitMFC_DLL@DV?$ChTraitsCRT@D@ATL@@@@@ATL@@V12@@@UAEPAXI@Z
_TEXT	SEGMENT
__$EHRec$ = -12						; size = 12
___flags$ = 8						; size = 4
??_G?$CList@V?$CStringT@DV?$StrTraitMFC_DLL@DV?$ChTraitsCRT@D@ATL@@@@@ATL@@V12@@@UAEPAXI@Z PROC ; CList<ATL::CStringT<char,StrTraitMFC_DLL<char,ATL::ChTraitsCRT<char> > >,ATL::CStringT<char,StrTraitMFC_DLL<char,ATL::ChTraitsCRT<char> > > >::`scalar deleting destructor', COMDAT
; _this$ = ecx
  00000	55		 push	 ebp
  00001	8b ec		 mov	 ebp, esp
  00003	6a ff		 push	 -1
  00005	68 00 00 00 00	 push	 __ehhandler$??_G?$CList@V?$CStringT@DV?$StrTraitMFC_DLL@DV?$ChTraitsCRT@D@ATL@@@@@ATL@@V12@@@UAEPAXI@Z
  0000a	64 a1 00 00 00
	00		 mov	 eax, DWORD PTR fs:0
  00010	50		 push	 eax
  00011	56		 push	 esi
  00012	a1 00 00 00 00	 mov	 eax, DWORD PTR ___security_cookie
  00017	33 c5		 xor	 eax, ebp
  00019	50		 push	 eax
  0001a	8d 45 f4	 lea	 eax, DWORD PTR __$EHRec$[ebp]
  0001d	64 a3 00 00 00
	00		 mov	 DWORD PTR fs:0, eax
  00023	8b f1		 mov	 esi, ecx
; File C:\Program Files (x86)\Microsoft Visual Studio\2019\Community\VC\Tools\MSVC\14.29.30133\atlmfc\include\afxtempl.h

; 878  : {

  00025	c7 45 fc 00 00
	00 00		 mov	 DWORD PTR __$EHRec$[ebp+8], 0
  0002c	c7 06 00 00 00
	00		 mov	 DWORD PTR [esi], OFFSET ??_7?$CList@V?$CStringT@DV?$StrTraitMFC_DLL@DV?$ChTraitsCRT@D@ATL@@@@@ATL@@V12@@@6B@

; 879  : 	RemoveAll();

  00032	e8 00 00 00 00	 call	 ?RemoveAll@?$CList@V?$CStringT@DV?$StrTraitMFC_DLL@DV?$ChTraitsCRT@D@ATL@@@@@ATL@@V12@@@QAEXXZ ; CList<ATL::CStringT<char,StrTraitMFC_DLL<char,ATL::ChTraitsCRT<char> > >,ATL::CStringT<char,StrTraitMFC_DLL<char,ATL::ChTraitsCRT<char> > > >::RemoveAll
  00037	8b 45 08	 mov	 eax, DWORD PTR ___flags$[ebp]
  0003a	a8 01		 test	 al, 1
  0003c	74 2c		 je	 SHORT $LN12@scalar
  0003e	a8 04		 test	 al, 4
  00040	75 1d		 jne	 SHORT $LN3@scalar
; File C:\Program Files (x86)\Microsoft Visual Studio\2019\Community\VC\Tools\MSVC\14.29.30133\atlmfc\include\afx.inl

; 112  : 	{ ::operator delete(p); }

  00042	56		 push	 esi
  00043	e8 00 00 00 00	 call	 ??3@YAXPAX@Z		; operator delete
  00048	83 c4 04	 add	 esp, 4
  0004b	8b c6		 mov	 eax, esi
  0004d	8b 4d f4	 mov	 ecx, DWORD PTR __$EHRec$[ebp]
  00050	64 89 0d 00 00
	00 00		 mov	 DWORD PTR fs:0, ecx
  00057	59		 pop	 ecx
  00058	5e		 pop	 esi
  00059	8b e5		 mov	 esp, ebp
  0005b	5d		 pop	 ebp
  0005c	c2 04 00	 ret	 4
$LN3@scalar:
  0005f	6a 1c		 push	 28			; 0000001cH
  00061	56		 push	 esi
  00062	e8 00 00 00 00	 call	 ?__global_delete@@YAXPAXI@Z ; __global_delete
  00067	83 c4 08	 add	 esp, 8
$LN12@scalar:
  0006a	8b c6		 mov	 eax, esi
  0006c	8b 4d f4	 mov	 ecx, DWORD PTR __$EHRec$[ebp]
  0006f	64 89 0d 00 00
	00 00		 mov	 DWORD PTR fs:0, ecx
  00076	59		 pop	 ecx
  00077	5e		 pop	 esi
  00078	8b e5		 mov	 esp, ebp
  0007a	5d		 pop	 ebp
  0007b	c2 04 00	 ret	 4
  0007e	cc		 int	 3
  0007f	cc		 int	 3
  00080	cc		 int	 3
  00081	cc		 int	 3
  00082	cc		 int	 3
_TEXT	ENDS
;	COMDAT text$x
text$x	SEGMENT
__ehhandler$??_G?$CList@V?$CStringT@DV?$StrTraitMFC_DLL@DV?$ChTraitsCRT@D@ATL@@@@@ATL@@V12@@@UAEPAXI@Z:
  00000	90		 npad	 1
  00001	90		 npad	 1
  00002	8b 54 24 08	 mov	 edx, DWORD PTR [esp+8]
  00006	8d 42 0c	 lea	 eax, DWORD PTR [edx+12]
  00009	8b 4a f8	 mov	 ecx, DWORD PTR [edx-8]
  0000c	33 c8		 xor	 ecx, eax
  0000e	e8 00 00 00 00	 call	 @__security_check_cookie@4
  00013	b8 00 00 00 00	 mov	 eax, OFFSET __ehfuncinfo$??_G?$CList@V?$CStringT@DV?$StrTraitMFC_DLL@DV?$ChTraitsCRT@D@ATL@@@@@ATL@@V12@@@UAEPAXI@Z
  00018	e9 00 00 00 00	 jmp	 ___CxxFrameHandler3
text$x	ENDS
??_G?$CList@V?$CStringT@DV?$StrTraitMFC_DLL@DV?$ChTraitsCRT@D@ATL@@@@@ATL@@V12@@@UAEPAXI@Z ENDP ; CList<ATL::CStringT<char,StrTraitMFC_DLL<char,ATL::ChTraitsCRT<char> > >,ATL::CStringT<char,StrTraitMFC_DLL<char,ATL::ChTraitsCRT<char> > > >::`scalar deleting destructor'
; Function compile flags: /Ogtp
; File C:\Program Files (x86)\Microsoft Visual Studio\2019\Community\VC\Tools\MSVC\14.29.30133\atlmfc\include\afxtempl.h
; File C:\Program Files (x86)\Microsoft Visual Studio\2019\Community\VC\Tools\MSVC\14.29.30133\atlmfc\include\afx.inl
; File C:\Program Files (x86)\Microsoft Visual Studio\2019\Community\VC\Tools\MSVC\14.29.30133\atlmfc\include\afxtempl.h
; File C:\Program Files (x86)\Microsoft Visual Studio\2019\Community\VC\Tools\MSVC\14.29.30133\atlmfc\include\afx.inl
; File C:\Program Files (x86)\Microsoft Visual Studio\2019\Community\VC\Tools\MSVC\14.29.30133\atlmfc\include\afxtempl.h
;	COMDAT ?Serialize@?$CList@V?$CStringT@DV?$StrTraitMFC_DLL@DV?$ChTraitsCRT@D@ATL@@@@@ATL@@V12@@@UAEXAAVCArchive@@@Z
_TEXT	SEGMENT
_nNewCount$1$ = -20					; size = 4
$T2 = -16						; size = 4
__$EHRec$ = -12						; size = 12
_newData$3 = 8						; size = 4
_ar$ = 8						; size = 4
?Serialize@?$CList@V?$CStringT@DV?$StrTraitMFC_DLL@DV?$ChTraitsCRT@D@ATL@@@@@ATL@@V12@@@UAEXAAVCArchive@@@Z PROC ; CList<ATL::CStringT<char,StrTraitMFC_DLL<char,ATL::ChTraitsCRT<char> > >,ATL::CStringT<char,StrTraitMFC_DLL<char,ATL::ChTraitsCRT<char> > > >::Serialize, COMDAT
; _this$ = ecx

; 1169 : {

  00000	55		 push	 ebp
  00001	8b ec		 mov	 ebp, esp
  00003	6a ff		 push	 -1
  00005	68 00 00 00 00	 push	 __ehhandler$?Serialize@?$CList@V?$CStringT@DV?$StrTraitMFC_DLL@DV?$ChTraitsCRT@D@ATL@@@@@ATL@@V12@@@UAEXAAVCArchive@@@Z
  0000a	64 a1 00 00 00
	00		 mov	 eax, DWORD PTR fs:0
  00010	50		 push	 eax
  00011	83 ec 08	 sub	 esp, 8
  00014	53		 push	 ebx
  00015	56		 push	 esi
  00016	57		 push	 edi
  00017	a1 00 00 00 00	 mov	 eax, DWORD PTR ___security_cookie
  0001c	33 c5		 xor	 eax, ebp
  0001e	50		 push	 eax
  0001f	8d 45 f4	 lea	 eax, DWORD PTR __$EHRec$[ebp]
  00022	64 a3 00 00 00
	00		 mov	 DWORD PTR fs:0, eax
  00028	8b f9		 mov	 edi, ecx
; File C:\Program Files (x86)\Microsoft Visual Studio\2019\Community\VC\Tools\MSVC\14.29.30133\atlmfc\include\afx.inl

; 212  : 	{ return (m_nMode & CArchive::load) == 0; }

  0002a	8b 5d 08	 mov	 ebx, DWORD PTR _ar$[ebp]
; File C:\Program Files (x86)\Microsoft Visual Studio\2019\Community\VC\Tools\MSVC\14.29.30133\atlmfc\include\afxtempl.h

; 1174 : 	if (ar.IsStoring())

  0002d	8b cb		 mov	 ecx, ebx
; File C:\Program Files (x86)\Microsoft Visual Studio\2019\Community\VC\Tools\MSVC\14.29.30133\atlmfc\include\afx.inl

; 212  : 	{ return (m_nMode & CArchive::load) == 0; }

  0002f	8b 43 18	 mov	 eax, DWORD PTR [ebx+24]
  00032	f7 d0		 not	 eax
  00034	a8 01		 test	 al, 1
; File C:\Program Files (x86)\Microsoft Visual Studio\2019\Community\VC\Tools\MSVC\14.29.30133\atlmfc\include\afxtempl.h

; 1174 : 	if (ar.IsStoring())

  00036	74 3e		 je	 SHORT $LN7@Serialize

; 1175 : 	{
; 1176 : 		ar.WriteCount(m_nCount);

  00038	ff 77 0c	 push	 DWORD PTR [edi+12]
  0003b	e8 00 00 00 00	 call	 ?WriteCount@CArchive@@QAEXK@Z ; CArchive::WriteCount

; 1177 : 		for (CNode* pNode = m_pNodeHead; pNode != NULL; pNode = pNode->pNext)

  00040	8b 77 04	 mov	 esi, DWORD PTR [edi+4]
  00043	85 f6		 test	 esi, esi
  00045	0f 84 d3 00 00
	00		 je	 $LN22@Serialize
  0004b	0f 1f 44 00 00	 npad	 5
$LL4@Serialize:

; 1178 : 		{
; 1179 : 			ASSERT(AfxIsValidAddress(pNode, sizeof(CNode)));
; 1180 : 			TYPE* pData;
; 1181 : 			/*
; 1182 : 			 * in some cases the & operator might be overloaded, and we cannot use it to obtain
; 1183 : 			 * the address of a given object.  We then use the following trick to get the address
; 1184 : 			 */
; 1185 : 			pData = reinterpret_cast< TYPE* >( &reinterpret_cast< int& >( static_cast< TYPE& >( pNode->data ) ) );
; 1186 : 			SerializeElements<TYPE>(ar, pData, 1);

  00050	6a 01		 push	 1
  00052	8d 46 08	 lea	 eax, DWORD PTR [esi+8]
  00055	50		 push	 eax
  00056	53		 push	 ebx
  00057	e8 00 00 00 00	 call	 ??$SerializeElements@V?$CStringT@DV?$StrTraitMFC_DLL@DV?$ChTraitsCRT@D@ATL@@@@@ATL@@@@YGXAAVCArchive@@PAV?$CStringT@DV?$StrTraitMFC_DLL@DV?$ChTraitsCRT@D@ATL@@@@@ATL@@H@Z ; SerializeElements<ATL::CStringT<char,StrTraitMFC_DLL<char,ATL::ChTraitsCRT<char> > > >
  0005c	8b 36		 mov	 esi, DWORD PTR [esi]
  0005e	85 f6		 test	 esi, esi
  00060	75 ee		 jne	 SHORT $LL4@Serialize

; 1198 : 	}
; 1199 : }

  00062	8b 4d f4	 mov	 ecx, DWORD PTR __$EHRec$[ebp]
  00065	64 89 0d 00 00
	00 00		 mov	 DWORD PTR fs:0, ecx
  0006c	59		 pop	 ecx
  0006d	5f		 pop	 edi
  0006e	5e		 pop	 esi
  0006f	5b		 pop	 ebx
  00070	8b e5		 mov	 esp, ebp
  00072	5d		 pop	 ebp
  00073	c2 04 00	 ret	 4
$LN7@Serialize:

; 1187 : 		}
; 1188 : 	}
; 1189 : 	else
; 1190 : 	{
; 1191 : 		DWORD_PTR nNewCount = ar.ReadCount();

  00076	e8 00 00 00 00	 call	 ?ReadCount@CArchive@@QAEKXZ ; CArchive::ReadCount

; 1192 : 		while (nNewCount--)

  0007b	85 c0		 test	 eax, eax
  0007d	0f 84 9b 00 00
	00		 je	 $LN22@Serialize
$LL5@Serialize:

; 1193 : 		{
; 1194 : 			TYPE newData[1];

  00083	ff 35 00 00 00
	00		 push	 DWORD PTR __imp_??1?$CStringT@DV?$StrTraitMFC_DLL@DV?$ChTraitsCRT@D@ATL@@@@@ATL@@QAE@XZ
  00089	48		 dec	 eax
  0008a	ff 35 00 00 00
	00		 push	 DWORD PTR __imp_??0?$CStringT@DV?$StrTraitMFC_DLL@DV?$ChTraitsCRT@D@ATL@@@@@ATL@@QAE@XZ
  00090	89 45 ec	 mov	 DWORD PTR _nNewCount$1$[ebp], eax
  00093	8d 45 08	 lea	 eax, DWORD PTR _newData$3[ebp]
  00096	6a 01		 push	 1
  00098	6a 04		 push	 4
  0009a	50		 push	 eax
  0009b	e8 00 00 00 00	 call	 ??_L@YGXPAXIIP6EX0@Z1@Z

; 1195 : 			SerializeElements<TYPE>(ar, newData, 1);

  000a0	6a 01		 push	 1
  000a2	8d 45 08	 lea	 eax, DWORD PTR _newData$3[ebp]
  000a5	c7 45 fc 00 00
	00 00		 mov	 DWORD PTR __$EHRec$[ebp+8], 0
  000ac	50		 push	 eax
  000ad	53		 push	 ebx
  000ae	e8 00 00 00 00	 call	 ??$SerializeElements@V?$CStringT@DV?$StrTraitMFC_DLL@DV?$ChTraitsCRT@D@ATL@@@@@ATL@@@@YGXAAVCArchive@@PAV?$CStringT@DV?$StrTraitMFC_DLL@DV?$ChTraitsCRT@D@ATL@@@@@ATL@@H@Z ; SerializeElements<ATL::CStringT<char,StrTraitMFC_DLL<char,ATL::ChTraitsCRT<char> > > >

; 1196 : 			AddTail(newData[0]);

  000b3	8d 45 08	 lea	 eax, DWORD PTR _newData$3[ebp]
  000b6	50		 push	 eax
  000b7	8d 4d f0	 lea	 ecx, DWORD PTR $T2[ebp]
  000ba	ff 15 00 00 00
	00		 call	 DWORD PTR __imp_??0?$CStringT@DV?$StrTraitMFC_DLL@DV?$ChTraitsCRT@D@ATL@@@@@ATL@@QAE@ABV01@@Z

; 968  : 	CNode* pNewNode = NewNode(m_pNodeTail, NULL);

  000c0	6a 00		 push	 0
  000c2	ff 77 08	 push	 DWORD PTR [edi+8]
  000c5	8b cf		 mov	 ecx, edi
  000c7	c6 45 fc 01	 mov	 BYTE PTR __$EHRec$[ebp+8], 1
  000cb	e8 00 00 00 00	 call	 ?NewNode@?$CList@V?$CStringT@DV?$StrTraitMFC_DLL@DV?$ChTraitsCRT@D@ATL@@@@@ATL@@V12@@@IAEPAUCNode@1@PAU21@0@Z ; CList<ATL::CStringT<char,StrTraitMFC_DLL<char,ATL::ChTraitsCRT<char> > >,ATL::CStringT<char,StrTraitMFC_DLL<char,ATL::ChTraitsCRT<char> > > >::NewNode
  000d0	8b f0		 mov	 esi, eax

; 969  : 	pNewNode->data = newElement;

  000d2	8d 45 f0	 lea	 eax, DWORD PTR $T2[ebp]
  000d5	50		 push	 eax
  000d6	8d 4e 08	 lea	 ecx, DWORD PTR [esi+8]
  000d9	ff 15 00 00 00
	00		 call	 DWORD PTR __imp_??4?$CStringT@DV?$StrTraitMFC_DLL@DV?$ChTraitsCRT@D@ATL@@@@@ATL@@QAEAAV01@ABV01@@Z

; 970  : 	if (m_pNodeTail != NULL)

  000df	8b 47 08	 mov	 eax, DWORD PTR [edi+8]
  000e2	85 c0		 test	 eax, eax
  000e4	74 04		 je	 SHORT $LN15@Serialize

; 971  : 		m_pNodeTail->pNext = pNewNode;

  000e6	89 30		 mov	 DWORD PTR [eax], esi
  000e8	eb 03		 jmp	 SHORT $LN16@Serialize
$LN15@Serialize:

; 972  : 	else
; 973  : 		m_pNodeHead = pNewNode;

  000ea	89 77 04	 mov	 DWORD PTR [edi+4], esi
$LN16@Serialize:

; 974  : 	m_pNodeTail = pNewNode;
; 975  : 	return (POSITION) pNewNode;

  000ed	8d 4d f0	 lea	 ecx, DWORD PTR $T2[ebp]
  000f0	89 77 08	 mov	 DWORD PTR [edi+8], esi
  000f3	ff 15 00 00 00
	00		 call	 DWORD PTR __imp_??1?$CStringT@DV?$StrTraitMFC_DLL@DV?$ChTraitsCRT@D@ATL@@@@@ATL@@QAE@XZ

; 1197 : 		}

  000f9	ff 35 00 00 00
	00		 push	 DWORD PTR __imp_??1?$CStringT@DV?$StrTraitMFC_DLL@DV?$ChTraitsCRT@D@ATL@@@@@ATL@@QAE@XZ
  000ff	8d 45 08	 lea	 eax, DWORD PTR _newData$3[ebp]
  00102	c7 45 fc ff ff
	ff ff		 mov	 DWORD PTR __$EHRec$[ebp+8], -1
  00109	6a 01		 push	 1
  0010b	6a 04		 push	 4
  0010d	50		 push	 eax
  0010e	e8 00 00 00 00	 call	 ??_M@YGXPAXIIP6EX0@Z@Z
  00113	8b 45 ec	 mov	 eax, DWORD PTR _nNewCount$1$[ebp]
  00116	85 c0		 test	 eax, eax
  00118	0f 85 65 ff ff
	ff		 jne	 $LL5@Serialize
$LN22@Serialize:

; 1198 : 	}
; 1199 : }

  0011e	8b 4d f4	 mov	 ecx, DWORD PTR __$EHRec$[ebp]
  00121	64 89 0d 00 00
	00 00		 mov	 DWORD PTR fs:0, ecx
  00128	59		 pop	 ecx
  00129	5f		 pop	 edi
  0012a	5e		 pop	 esi
  0012b	5b		 pop	 ebx
  0012c	8b e5		 mov	 esp, ebp
  0012e	5d		 pop	 ebp
  0012f	c2 04 00	 ret	 4
_TEXT	ENDS
;	COMDAT text$x
text$x	SEGMENT
__unwindfunclet$?Serialize@?$CList@V?$CStringT@DV?$StrTraitMFC_DLL@DV?$ChTraitsCRT@D@ATL@@@@@ATL@@V12@@@UAEXAAVCArchive@@@Z$0:
  00000	a1 00 00 00 00	 mov	 eax, DWORD PTR __imp_??1?$CStringT@DV?$StrTraitMFC_DLL@DV?$ChTraitsCRT@D@ATL@@@@@ATL@@QAE@XZ
  00005	50		 push	 eax
  00006	6a 01		 push	 1
  00008	6a 04		 push	 4
  0000a	8d 45 08	 lea	 eax, DWORD PTR _newData$3[ebp]
  0000d	50		 push	 eax
  0000e	e8 00 00 00 00	 call	 ??_M@YGXPAXIIP6EX0@Z@Z
  00013	c3		 ret	 0
__unwindfunclet$?Serialize@?$CList@V?$CStringT@DV?$StrTraitMFC_DLL@DV?$ChTraitsCRT@D@ATL@@@@@ATL@@V12@@@UAEXAAVCArchive@@@Z$2:
  00014	8d 4d f0	 lea	 ecx, DWORD PTR $T2[ebp]
  00017	ff 25 00 00 00
	00		 jmp	 DWORD PTR __imp_??1?$CStringT@DV?$StrTraitMFC_DLL@DV?$ChTraitsCRT@D@ATL@@@@@ATL@@QAE@XZ
  0001d	cc		 int	 3
  0001e	cc		 int	 3
  0001f	cc		 int	 3
  00020	cc		 int	 3
  00021	cc		 int	 3
__ehhandler$?Serialize@?$CList@V?$CStringT@DV?$StrTraitMFC_DLL@DV?$ChTraitsCRT@D@ATL@@@@@ATL@@V12@@@UAEXAAVCArchive@@@Z:
  00022	90		 npad	 1
  00023	90		 npad	 1
  00024	8b 54 24 08	 mov	 edx, DWORD PTR [esp+8]
  00028	8d 42 0c	 lea	 eax, DWORD PTR [edx+12]
  0002b	8b 4a e8	 mov	 ecx, DWORD PTR [edx-24]
  0002e	33 c8		 xor	 ecx, eax
  00030	e8 00 00 00 00	 call	 @__security_check_cookie@4
  00035	b8 00 00 00 00	 mov	 eax, OFFSET __ehfuncinfo$?Serialize@?$CList@V?$CStringT@DV?$StrTraitMFC_DLL@DV?$ChTraitsCRT@D@ATL@@@@@ATL@@V12@@@UAEXAAVCArchive@@@Z
  0003a	e9 00 00 00 00	 jmp	 ___CxxFrameHandler3
text$x	ENDS
?Serialize@?$CList@V?$CStringT@DV?$StrTraitMFC_DLL@DV?$ChTraitsCRT@D@ATL@@@@@ATL@@V12@@@UAEXAAVCArchive@@@Z ENDP ; CList<ATL::CStringT<char,StrTraitMFC_DLL<char,ATL::ChTraitsCRT<char> > >,ATL::CStringT<char,StrTraitMFC_DLL<char,ATL::ChTraitsCRT<char> > > >::Serialize
; Function compile flags: /Ogtp
; File C:\Program Files (x86)\Microsoft Visual Studio\2019\Community\VC\Tools\MSVC\14.29.30133\atlmfc\include\afxtempl.h
;	COMDAT ??1?$CList@V?$CStringT@DV?$StrTraitMFC_DLL@DV?$ChTraitsCRT@D@ATL@@@@@ATL@@V12@@@UAE@XZ
_TEXT	SEGMENT
__$EHRec$ = -12						; size = 12
??1?$CList@V?$CStringT@DV?$StrTraitMFC_DLL@DV?$ChTraitsCRT@D@ATL@@@@@ATL@@V12@@@UAE@XZ PROC ; CList<ATL::CStringT<char,StrTraitMFC_DLL<char,ATL::ChTraitsCRT<char> > >,ATL::CStringT<char,StrTraitMFC_DLL<char,ATL::ChTraitsCRT<char> > > >::~CList<ATL::CStringT<char,StrTraitMFC_DLL<char,ATL::ChTraitsCRT<char> > >,ATL::CStringT<char,StrTraitMFC_DLL<char,ATL::ChTraitsCRT<char> > > >, COMDAT
; _this$ = ecx

; 878  : {

  00000	55		 push	 ebp
  00001	8b ec		 mov	 ebp, esp
  00003	6a ff		 push	 -1
  00005	68 00 00 00 00	 push	 __ehhandler$??1?$CList@V?$CStringT@DV?$StrTraitMFC_DLL@DV?$ChTraitsCRT@D@ATL@@@@@ATL@@V12@@@UAE@XZ
  0000a	64 a1 00 00 00
	00		 mov	 eax, DWORD PTR fs:0
  00010	50		 push	 eax
  00011	a1 00 00 00 00	 mov	 eax, DWORD PTR ___security_cookie
  00016	33 c5		 xor	 eax, ebp
  00018	50		 push	 eax
  00019	8d 45 f4	 lea	 eax, DWORD PTR __$EHRec$[ebp]
  0001c	64 a3 00 00 00
	00		 mov	 DWORD PTR fs:0, eax
  00022	c7 01 00 00 00
	00		 mov	 DWORD PTR [ecx], OFFSET ??_7?$CList@V?$CStringT@DV?$StrTraitMFC_DLL@DV?$ChTraitsCRT@D@ATL@@@@@ATL@@V12@@@6B@

; 879  : 	RemoveAll();

  00028	e8 00 00 00 00	 call	 ?RemoveAll@?$CList@V?$CStringT@DV?$StrTraitMFC_DLL@DV?$ChTraitsCRT@D@ATL@@@@@ATL@@V12@@@QAEXXZ ; CList<ATL::CStringT<char,StrTraitMFC_DLL<char,ATL::ChTraitsCRT<char> > >,ATL::CStringT<char,StrTraitMFC_DLL<char,ATL::ChTraitsCRT<char> > > >::RemoveAll

; 880  : 	ASSERT(m_nCount == 0);
; 881  : }

  0002d	8b 4d f4	 mov	 ecx, DWORD PTR __$EHRec$[ebp]
  00030	64 89 0d 00 00
	00 00		 mov	 DWORD PTR fs:0, ecx
  00037	59		 pop	 ecx
  00038	8b e5		 mov	 esp, ebp
  0003a	5d		 pop	 ebp
  0003b	c3		 ret	 0
  0003c	cc		 int	 3
  0003d	cc		 int	 3
  0003e	cc		 int	 3
  0003f	cc		 int	 3
  00040	cc		 int	 3
_TEXT	ENDS
;	COMDAT text$x
text$x	SEGMENT
__ehhandler$??1?$CList@V?$CStringT@DV?$StrTraitMFC_DLL@DV?$ChTraitsCRT@D@ATL@@@@@ATL@@V12@@@UAE@XZ:
  00000	90		 npad	 1
  00001	90		 npad	 1
  00002	8b 54 24 08	 mov	 edx, DWORD PTR [esp+8]
  00006	8d 42 0c	 lea	 eax, DWORD PTR [edx+12]
  00009	8b 4a fc	 mov	 ecx, DWORD PTR [edx-4]
  0000c	33 c8		 xor	 ecx, eax
  0000e	e8 00 00 00 00	 call	 @__security_check_cookie@4
  00013	b8 00 00 00 00	 mov	 eax, OFFSET __ehfuncinfo$??1?$CList@V?$CStringT@DV?$StrTraitMFC_DLL@DV?$ChTraitsCRT@D@ATL@@@@@ATL@@V12@@@UAE@XZ
  00018	e9 00 00 00 00	 jmp	 ___CxxFrameHandler3
text$x	ENDS
??1?$CList@V?$CStringT@DV?$StrTraitMFC_DLL@DV?$ChTraitsCRT@D@ATL@@@@@ATL@@V12@@@UAE@XZ ENDP ; CList<ATL::CStringT<char,StrTraitMFC_DLL<char,ATL::ChTraitsCRT<char> > >,ATL::CStringT<char,StrTraitMFC_DLL<char,ATL::ChTraitsCRT<char> > > >::~CList<ATL::CStringT<char,StrTraitMFC_DLL<char,ATL::ChTraitsCRT<char> > >,ATL::CStringT<char,StrTraitMFC_DLL<char,ATL::ChTraitsCRT<char> > > >
; Function compile flags: /Ogtp
; File C:\Program Files (x86)\Microsoft Visual Studio\2019\Community\VC\Tools\MSVC\14.29.30133\atlmfc\include\afxtempl.h
;	COMDAT ?FreeNode@?$CList@V?$CStringT@DV?$StrTraitMFC_DLL@DV?$ChTraitsCRT@D@ATL@@@@@ATL@@V12@@@IAEXPAUCNode@1@@Z
_TEXT	SEGMENT
_pNode$ = 8						; size = 4
?FreeNode@?$CList@V?$CStringT@DV?$StrTraitMFC_DLL@DV?$ChTraitsCRT@D@ATL@@@@@ATL@@V12@@@IAEXPAUCNode@1@@Z PROC ; CList<ATL::CStringT<char,StrTraitMFC_DLL<char,ATL::ChTraitsCRT<char> > >,ATL::CStringT<char,StrTraitMFC_DLL<char,ATL::ChTraitsCRT<char> > > >::FreeNode, COMDAT
; _this$ = ecx

; 936  : {

  00000	55		 push	 ebp
  00001	8b ec		 mov	 ebp, esp
  00003	56		 push	 esi

; 937  : 	pNode->data.~TYPE();

  00004	8b 75 08	 mov	 esi, DWORD PTR _pNode$[ebp]
  00007	57		 push	 edi
  00008	8b f9		 mov	 edi, ecx
  0000a	8d 4e 08	 lea	 ecx, DWORD PTR [esi+8]
  0000d	ff 15 00 00 00
	00		 call	 DWORD PTR __imp_??1?$CStringT@DV?$StrTraitMFC_DLL@DV?$ChTraitsCRT@D@ATL@@@@@ATL@@QAE@XZ

; 938  : 	pNode->pNext = m_pNodeFree;

  00013	8b 47 10	 mov	 eax, DWORD PTR [edi+16]
  00016	89 06		 mov	 DWORD PTR [esi], eax

; 939  : 	m_pNodeFree = pNode;
; 940  : 	m_nCount--;

  00018	83 47 0c ff	 add	 DWORD PTR [edi+12], -1
  0001c	89 77 10	 mov	 DWORD PTR [edi+16], esi

; 941  : 	ASSERT(m_nCount >= 0);  // make sure we don't underflow
; 942  : 
; 943  : 	// if no more elements, cleanup completely
; 944  : 	if (m_nCount == 0)

  0001f	75 07		 jne	 SHORT $LN2@FreeNode

; 945  : 		RemoveAll();

  00021	8b cf		 mov	 ecx, edi
  00023	e8 00 00 00 00	 call	 ?RemoveAll@?$CList@V?$CStringT@DV?$StrTraitMFC_DLL@DV?$ChTraitsCRT@D@ATL@@@@@ATL@@V12@@@QAEXXZ ; CList<ATL::CStringT<char,StrTraitMFC_DLL<char,ATL::ChTraitsCRT<char> > >,ATL::CStringT<char,StrTraitMFC_DLL<char,ATL::ChTraitsCRT<char> > > >::RemoveAll
$LN2@FreeNode:

; 946  : }

  00028	5f		 pop	 edi
  00029	5e		 pop	 esi
  0002a	5d		 pop	 ebp
  0002b	c2 04 00	 ret	 4
?FreeNode@?$CList@V?$CStringT@DV?$StrTraitMFC_DLL@DV?$ChTraitsCRT@D@ATL@@@@@ATL@@V12@@@IAEXPAUCNode@1@@Z ENDP ; CList<ATL::CStringT<char,StrTraitMFC_DLL<char,ATL::ChTraitsCRT<char> > >,ATL::CStringT<char,StrTraitMFC_DLL<char,ATL::ChTraitsCRT<char> > > >::FreeNode
_TEXT	ENDS
; Function compile flags: /Ogtp
; File C:\Program Files (x86)\Microsoft Visual Studio\2019\Community\VC\Tools\MSVC\14.29.30133\atlmfc\include\afxtempl.h
;	COMDAT ?NewNode@?$CList@V?$CStringT@DV?$StrTraitMFC_DLL@DV?$ChTraitsCRT@D@ATL@@@@@ATL@@V12@@@IAEPAUCNode@1@PAU21@0@Z
_TEXT	SEGMENT
_pPrev$ = 8						; size = 4
_pNext$ = 12						; size = 4
?NewNode@?$CList@V?$CStringT@DV?$StrTraitMFC_DLL@DV?$ChTraitsCRT@D@ATL@@@@@ATL@@V12@@@IAEPAUCNode@1@PAU21@0@Z PROC ; CList<ATL::CStringT<char,StrTraitMFC_DLL<char,ATL::ChTraitsCRT<char> > >,ATL::CStringT<char,StrTraitMFC_DLL<char,ATL::ChTraitsCRT<char> > > >::NewNode, COMDAT
; _this$ = ecx

; 901  : {

  00000	55		 push	 ebp
  00001	8b ec		 mov	 ebp, esp
  00003	56		 push	 esi
  00004	8b f1		 mov	 esi, ecx
  00006	57		 push	 edi

; 902  : 	if (m_pNodeFree == NULL)

  00007	83 7e 10 00	 cmp	 DWORD PTR [esi+16], 0
  0000b	75 33		 jne	 SHORT $LN7@NewNode

; 903  : 	{
; 904  : 		// add another block
; 905  : 		CPlex* pNewBlock = CPlex::Create(m_pBlocks, m_nBlockSize,

  0000d	6a 0c		 push	 12			; 0000000cH
  0000f	ff 76 18	 push	 DWORD PTR [esi+24]
  00012	8d 46 14	 lea	 eax, DWORD PTR [esi+20]
  00015	50		 push	 eax
  00016	e8 00 00 00 00	 call	 ?Create@CPlex@@SGPAU1@AAPAU1@II@Z ; CPlex::Create

; 906  : 				 sizeof(CNode));
; 907  : 
; 908  : 		// chain them into free list
; 909  : 		CNode* pNode = (CNode*) pNewBlock->data();
; 910  : 		// free in reverse order to make it easier to debug
; 911  : 		pNode += m_nBlockSize - 1;

  0001b	8b 56 18	 mov	 edx, DWORD PTR [esi+24]
  0001e	83 c0 08	 add	 eax, 8
  00021	8d 0c 52	 lea	 ecx, DWORD PTR [edx+edx*2]
  00024	8d 04 88	 lea	 eax, DWORD PTR [eax+ecx*4]
  00027	83 c0 f4	 add	 eax, -12		; fffffff4H

; 912  : 		for (INT_PTR i = m_nBlockSize-1; i >= 0; i--, pNode--)

  0002a	83 c2 ff	 add	 edx, -1
  0002d	78 11		 js	 SHORT $LN7@NewNode
  0002f	90		 npad	 1
$LL4@NewNode:

; 913  : 		{
; 914  : 			pNode->pNext = m_pNodeFree;

  00030	8b 4e 10	 mov	 ecx, DWORD PTR [esi+16]
  00033	89 08		 mov	 DWORD PTR [eax], ecx

; 915  : 			m_pNodeFree = pNode;

  00035	89 46 10	 mov	 DWORD PTR [esi+16], eax
  00038	83 e8 0c	 sub	 eax, 12			; 0000000cH
  0003b	83 ea 01	 sub	 edx, 1
  0003e	79 f0		 jns	 SHORT $LL4@NewNode
$LN7@NewNode:

; 916  : 		}
; 917  : 	}
; 918  : 	ENSURE(m_pNodeFree != NULL);  // we must have something

  00040	8b 7e 10	 mov	 edi, DWORD PTR [esi+16]
  00043	85 ff		 test	 edi, edi
  00045	74 24		 je	 SHORT $LN17@NewNode

; 919  : 
; 920  : 	CList::CNode* pNode = m_pNodeFree;
; 921  : 	m_pNodeFree = m_pNodeFree->pNext;

  00047	8b 07		 mov	 eax, DWORD PTR [edi]

; 922  : 	pNode->pPrev = pPrev;

  00049	8b 4d 08	 mov	 ecx, DWORD PTR _pPrev$[ebp]
  0004c	89 46 10	 mov	 DWORD PTR [esi+16], eax
  0004f	89 4f 04	 mov	 DWORD PTR [edi+4], ecx

; 923  : 	pNode->pNext = pNext;

  00052	8b 4d 0c	 mov	 ecx, DWORD PTR _pNext$[ebp]
  00055	89 0f		 mov	 DWORD PTR [edi], ecx

; 924  : 	m_nCount++;
; 925  : 	ASSERT(m_nCount > 0);  // make sure we don't overflow
; 926  : 
; 927  : #pragma push_macro("new")
; 928  : #undef new
; 929  : 	::new( (void*)( &pNode->data ) ) TYPE;

  00057	8d 4f 08	 lea	 ecx, DWORD PTR [edi+8]
  0005a	ff 46 0c	 inc	 DWORD PTR [esi+12]
  0005d	ff 15 00 00 00
	00		 call	 DWORD PTR __imp_??0?$CStringT@DV?$StrTraitMFC_DLL@DV?$ChTraitsCRT@D@ATL@@@@@ATL@@QAE@XZ

; 930  : #pragma pop_macro("new")
; 931  : 	return pNode;

  00063	8b c7		 mov	 eax, edi
  00065	5f		 pop	 edi
  00066	5e		 pop	 esi

; 932  : }

  00067	5d		 pop	 ebp
  00068	c2 08 00	 ret	 8
$LN17@NewNode:

; 916  : 		}
; 917  : 	}
; 918  : 	ENSURE(m_pNodeFree != NULL);  // we must have something

  0006b	e8 00 00 00 00	 call	 ?AfxThrowInvalidArgException@@YGXXZ ; AfxThrowInvalidArgException
$LN15@NewNode:
  00070	cc		 int	 3
?NewNode@?$CList@V?$CStringT@DV?$StrTraitMFC_DLL@DV?$ChTraitsCRT@D@ATL@@@@@ATL@@V12@@@IAEPAUCNode@1@PAU21@0@Z ENDP ; CList<ATL::CStringT<char,StrTraitMFC_DLL<char,ATL::ChTraitsCRT<char> > >,ATL::CStringT<char,StrTraitMFC_DLL<char,ATL::ChTraitsCRT<char> > > >::NewNode
_TEXT	ENDS
; Function compile flags: /Ogtp
; File C:\Program Files (x86)\Microsoft Visual Studio\2019\Community\VC\Tools\MSVC\14.29.30133\atlmfc\include\afxtempl.h
;	COMDAT ?RemoveAll@?$CList@V?$CStringT@DV?$StrTraitMFC_DLL@DV?$ChTraitsCRT@D@ATL@@@@@ATL@@V12@@@QAEXXZ
_TEXT	SEGMENT
?RemoveAll@?$CList@V?$CStringT@DV?$StrTraitMFC_DLL@DV?$ChTraitsCRT@D@ATL@@@@@ATL@@V12@@@QAEXXZ PROC ; CList<ATL::CStringT<char,StrTraitMFC_DLL<char,ATL::ChTraitsCRT<char> > >,ATL::CStringT<char,StrTraitMFC_DLL<char,ATL::ChTraitsCRT<char> > > >::RemoveAll, COMDAT
; _this$ = ecx

; 862  : {

  00000	56		 push	 esi
  00001	57		 push	 edi
  00002	8b f9		 mov	 edi, ecx

; 863  : 	ASSERT_VALID(this);
; 864  : 
; 865  : 	// destroy elements
; 866  : 	CNode* pNode;
; 867  : 	for (pNode = m_pNodeHead; pNode != NULL; pNode = pNode->pNext)

  00004	8b 77 04	 mov	 esi, DWORD PTR [edi+4]
  00007	85 f6		 test	 esi, esi
  00009	74 14		 je	 SHORT $LN3@RemoveAll
  0000b	0f 1f 44 00 00	 npad	 5
$LL4@RemoveAll:

; 868  : 		pNode->data.~TYPE();

  00010	8d 4e 08	 lea	 ecx, DWORD PTR [esi+8]
  00013	ff 15 00 00 00
	00		 call	 DWORD PTR __imp_??1?$CStringT@DV?$StrTraitMFC_DLL@DV?$ChTraitsCRT@D@ATL@@@@@ATL@@QAE@XZ
  00019	8b 36		 mov	 esi, DWORD PTR [esi]
  0001b	85 f6		 test	 esi, esi
  0001d	75 f1		 jne	 SHORT $LL4@RemoveAll
$LN3@RemoveAll:

; 869  : 
; 870  : 	m_nCount = 0;
; 871  : 	m_pNodeHead = m_pNodeTail = m_pNodeFree = NULL;
; 872  : 	m_pBlocks->FreeDataChain();

  0001f	8b 4f 14	 mov	 ecx, DWORD PTR [edi+20]
  00022	c7 47 0c 00 00
	00 00		 mov	 DWORD PTR [edi+12], 0
  00029	c7 47 10 00 00
	00 00		 mov	 DWORD PTR [edi+16], 0
  00030	c7 47 08 00 00
	00 00		 mov	 DWORD PTR [edi+8], 0
  00037	c7 47 04 00 00
	00 00		 mov	 DWORD PTR [edi+4], 0
  0003e	e8 00 00 00 00	 call	 ?FreeDataChain@CPlex@@QAEXXZ ; CPlex::FreeDataChain

; 873  : 	m_pBlocks = NULL;

  00043	c7 47 14 00 00
	00 00		 mov	 DWORD PTR [edi+20], 0
  0004a	5f		 pop	 edi
  0004b	5e		 pop	 esi

; 874  : }

  0004c	c3		 ret	 0
?RemoveAll@?$CList@V?$CStringT@DV?$StrTraitMFC_DLL@DV?$ChTraitsCRT@D@ATL@@@@@ATL@@V12@@@QAEXXZ ENDP ; CList<ATL::CStringT<char,StrTraitMFC_DLL<char,ATL::ChTraitsCRT<char> > >,ATL::CStringT<char,StrTraitMFC_DLL<char,ATL::ChTraitsCRT<char> > > >::RemoveAll
_TEXT	ENDS
; Function compile flags: /Ogtp
; File C:\Program Files (x86)\Microsoft Visual Studio\2019\Community\VC\Tools\MSVC\14.29.30133\atlmfc\include\afxtempl.h
;	COMDAT ?AddTail@?$CList@V?$CStringT@DV?$StrTraitMFC_DLL@DV?$ChTraitsCRT@D@ATL@@@@@ATL@@V12@@@QAEPAU__POSITION@@V?$CStringT@DV?$StrTraitMFC_DLL@DV?$ChTraitsCRT@D@ATL@@@@@ATL@@@Z
_TEXT	SEGMENT
__$EHRec$ = -12						; size = 12
_newElement$ = 8					; size = 4
?AddTail@?$CList@V?$CStringT@DV?$StrTraitMFC_DLL@DV?$ChTraitsCRT@D@ATL@@@@@ATL@@V12@@@QAEPAU__POSITION@@V?$CStringT@DV?$StrTraitMFC_DLL@DV?$ChTraitsCRT@D@ATL@@@@@ATL@@@Z PROC ; CList<ATL::CStringT<char,StrTraitMFC_DLL<char,ATL::ChTraitsCRT<char> > >,ATL::CStringT<char,StrTraitMFC_DLL<char,ATL::ChTraitsCRT<char> > > >::AddTail, COMDAT
; _this$ = ecx

; 965  : {

  00000	55		 push	 ebp
  00001	8b ec		 mov	 ebp, esp
  00003	6a ff		 push	 -1
  00005	68 00 00 00 00	 push	 __ehhandler$?AddTail@?$CList@V?$CStringT@DV?$StrTraitMFC_DLL@DV?$ChTraitsCRT@D@ATL@@@@@ATL@@V12@@@QAEPAU__POSITION@@V?$CStringT@DV?$StrTraitMFC_DLL@DV?$ChTraitsCRT@D@ATL@@@@@ATL@@@Z
  0000a	64 a1 00 00 00
	00		 mov	 eax, DWORD PTR fs:0
  00010	50		 push	 eax
  00011	56		 push	 esi
  00012	57		 push	 edi
  00013	a1 00 00 00 00	 mov	 eax, DWORD PTR ___security_cookie
  00018	33 c5		 xor	 eax, ebp
  0001a	50		 push	 eax
  0001b	8d 45 f4	 lea	 eax, DWORD PTR __$EHRec$[ebp]
  0001e	64 a3 00 00 00
	00		 mov	 DWORD PTR fs:0, eax
  00024	8b f9		 mov	 edi, ecx

; 966  : 	ASSERT_VALID(this);
; 967  : 
; 968  : 	CNode* pNewNode = NewNode(m_pNodeTail, NULL);

  00026	6a 00		 push	 0
  00028	ff 77 08	 push	 DWORD PTR [edi+8]
  0002b	c7 45 fc 00 00
	00 00		 mov	 DWORD PTR __$EHRec$[ebp+8], 0
  00032	e8 00 00 00 00	 call	 ?NewNode@?$CList@V?$CStringT@DV?$StrTraitMFC_DLL@DV?$ChTraitsCRT@D@ATL@@@@@ATL@@V12@@@IAEPAUCNode@1@PAU21@0@Z ; CList<ATL::CStringT<char,StrTraitMFC_DLL<char,ATL::ChTraitsCRT<char> > >,ATL::CStringT<char,StrTraitMFC_DLL<char,ATL::ChTraitsCRT<char> > > >::NewNode
  00037	8b f0		 mov	 esi, eax

; 969  : 	pNewNode->data = newElement;

  00039	8d 45 08	 lea	 eax, DWORD PTR _newElement$[ebp]
  0003c	50		 push	 eax
  0003d	8d 4e 08	 lea	 ecx, DWORD PTR [esi+8]
  00040	ff 15 00 00 00
	00		 call	 DWORD PTR __imp_??4?$CStringT@DV?$StrTraitMFC_DLL@DV?$ChTraitsCRT@D@ATL@@@@@ATL@@QAEAAV01@ABV01@@Z

; 970  : 	if (m_pNodeTail != NULL)

  00046	8b 47 08	 mov	 eax, DWORD PTR [edi+8]
  00049	85 c0		 test	 eax, eax
  0004b	74 04		 je	 SHORT $LN2@AddTail

; 971  : 		m_pNodeTail->pNext = pNewNode;

  0004d	89 30		 mov	 DWORD PTR [eax], esi
  0004f	eb 03		 jmp	 SHORT $LN3@AddTail
$LN2@AddTail:

; 972  : 	else
; 973  : 		m_pNodeHead = pNewNode;

  00051	89 77 04	 mov	 DWORD PTR [edi+4], esi
$LN3@AddTail:

; 974  : 	m_pNodeTail = pNewNode;
; 975  : 	return (POSITION) pNewNode;

  00054	8d 4d 08	 lea	 ecx, DWORD PTR _newElement$[ebp]
  00057	89 77 08	 mov	 DWORD PTR [edi+8], esi
  0005a	ff 15 00 00 00
	00		 call	 DWORD PTR __imp_??1?$CStringT@DV?$StrTraitMFC_DLL@DV?$ChTraitsCRT@D@ATL@@@@@ATL@@QAE@XZ
  00060	8b c6		 mov	 eax, esi

; 976  : }

  00062	8b 4d f4	 mov	 ecx, DWORD PTR __$EHRec$[ebp]
  00065	64 89 0d 00 00
	00 00		 mov	 DWORD PTR fs:0, ecx
  0006c	59		 pop	 ecx
  0006d	5f		 pop	 edi
  0006e	5e		 pop	 esi
  0006f	8b e5		 mov	 esp, ebp
  00071	5d		 pop	 ebp
  00072	c2 04 00	 ret	 4
_TEXT	ENDS
;	COMDAT text$x
text$x	SEGMENT
__unwindfunclet$?AddTail@?$CList@V?$CStringT@DV?$StrTraitMFC_DLL@DV?$ChTraitsCRT@D@ATL@@@@@ATL@@V12@@@QAEPAU__POSITION@@V?$CStringT@DV?$StrTraitMFC_DLL@DV?$ChTraitsCRT@D@ATL@@@@@ATL@@@Z$0:
  00000	8d 4d 08	 lea	 ecx, DWORD PTR _newElement$[ebp]
  00003	ff 25 00 00 00
	00		 jmp	 DWORD PTR __imp_??1?$CStringT@DV?$StrTraitMFC_DLL@DV?$ChTraitsCRT@D@ATL@@@@@ATL@@QAE@XZ
  00009	cc		 int	 3
  0000a	cc		 int	 3
  0000b	cc		 int	 3
  0000c	cc		 int	 3
  0000d	cc		 int	 3
__ehhandler$?AddTail@?$CList@V?$CStringT@DV?$StrTraitMFC_DLL@DV?$ChTraitsCRT@D@ATL@@@@@ATL@@V12@@@QAEPAU__POSITION@@V?$CStringT@DV?$StrTraitMFC_DLL@DV?$ChTraitsCRT@D@ATL@@@@@ATL@@@Z:
  0000e	90		 npad	 1
  0000f	90		 npad	 1
  00010	8b 54 24 08	 mov	 edx, DWORD PTR [esp+8]
  00014	8d 42 0c	 lea	 eax, DWORD PTR [edx+12]
  00017	8b 4a f4	 mov	 ecx, DWORD PTR [edx-12]
  0001a	33 c8		 xor	 ecx, eax
  0001c	e8 00 00 00 00	 call	 @__security_check_cookie@4
  00021	b8 00 00 00 00	 mov	 eax, OFFSET __ehfuncinfo$?AddTail@?$CList@V?$CStringT@DV?$StrTraitMFC_DLL@DV?$ChTraitsCRT@D@ATL@@@@@ATL@@V12@@@QAEPAU__POSITION@@V?$CStringT@DV?$StrTraitMFC_DLL@DV?$ChTraitsCRT@D@ATL@@@@@ATL@@@Z
  00026	e9 00 00 00 00	 jmp	 ___CxxFrameHandler3
text$x	ENDS
?AddTail@?$CList@V?$CStringT@DV?$StrTraitMFC_DLL@DV?$ChTraitsCRT@D@ATL@@@@@ATL@@V12@@@QAEPAU__POSITION@@V?$CStringT@DV?$StrTraitMFC_DLL@DV?$ChTraitsCRT@D@ATL@@@@@ATL@@@Z ENDP ; CList<ATL::CStringT<char,StrTraitMFC_DLL<char,ATL::ChTraitsCRT<char> > >,ATL::CStringT<char,StrTraitMFC_DLL<char,ATL::ChTraitsCRT<char> > > >::AddTail
; Function compile flags: /Ogtp
; File C:\Program Files (x86)\Microsoft Visual Studio\2019\Community\VC\Tools\MSVC\14.29.30133\atlmfc\include\afxtempl.h
;	COMDAT ?AddHead@?$CList@V?$CStringT@DV?$StrTraitMFC_DLL@DV?$ChTraitsCRT@D@ATL@@@@@ATL@@V12@@@QAEPAU__POSITION@@V?$CStringT@DV?$StrTraitMFC_DLL@DV?$ChTraitsCRT@D@ATL@@@@@ATL@@@Z
_TEXT	SEGMENT
__$EHRec$ = -12						; size = 12
_newElement$ = 8					; size = 4
?AddHead@?$CList@V?$CStringT@DV?$StrTraitMFC_DLL@DV?$ChTraitsCRT@D@ATL@@@@@ATL@@V12@@@QAEPAU__POSITION@@V?$CStringT@DV?$StrTraitMFC_DLL@DV?$ChTraitsCRT@D@ATL@@@@@ATL@@@Z PROC ; CList<ATL::CStringT<char,StrTraitMFC_DLL<char,ATL::ChTraitsCRT<char> > >,ATL::CStringT<char,StrTraitMFC_DLL<char,ATL::ChTraitsCRT<char> > > >::AddHead, COMDAT
; _this$ = ecx

; 950  : {

  00000	55		 push	 ebp
  00001	8b ec		 mov	 ebp, esp
  00003	6a ff		 push	 -1
  00005	68 00 00 00 00	 push	 __ehhandler$?AddHead@?$CList@V?$CStringT@DV?$StrTraitMFC_DLL@DV?$ChTraitsCRT@D@ATL@@@@@ATL@@V12@@@QAEPAU__POSITION@@V?$CStringT@DV?$StrTraitMFC_DLL@DV?$ChTraitsCRT@D@ATL@@@@@ATL@@@Z
  0000a	64 a1 00 00 00
	00		 mov	 eax, DWORD PTR fs:0
  00010	50		 push	 eax
  00011	56		 push	 esi
  00012	57		 push	 edi
  00013	a1 00 00 00 00	 mov	 eax, DWORD PTR ___security_cookie
  00018	33 c5		 xor	 eax, ebp
  0001a	50		 push	 eax
  0001b	8d 45 f4	 lea	 eax, DWORD PTR __$EHRec$[ebp]
  0001e	64 a3 00 00 00
	00		 mov	 DWORD PTR fs:0, eax
  00024	8b f9		 mov	 edi, ecx

; 951  : 	ASSERT_VALID(this);
; 952  : 
; 953  : 	CNode* pNewNode = NewNode(NULL, m_pNodeHead);

  00026	ff 77 04	 push	 DWORD PTR [edi+4]
  00029	c7 45 fc 00 00
	00 00		 mov	 DWORD PTR __$EHRec$[ebp+8], 0
  00030	6a 00		 push	 0
  00032	e8 00 00 00 00	 call	 ?NewNode@?$CList@V?$CStringT@DV?$StrTraitMFC_DLL@DV?$ChTraitsCRT@D@ATL@@@@@ATL@@V12@@@IAEPAUCNode@1@PAU21@0@Z ; CList<ATL::CStringT<char,StrTraitMFC_DLL<char,ATL::ChTraitsCRT<char> > >,ATL::CStringT<char,StrTraitMFC_DLL<char,ATL::ChTraitsCRT<char> > > >::NewNode
  00037	8b f0		 mov	 esi, eax

; 954  : 	pNewNode->data = newElement;

  00039	8d 45 08	 lea	 eax, DWORD PTR _newElement$[ebp]
  0003c	50		 push	 eax
  0003d	8d 4e 08	 lea	 ecx, DWORD PTR [esi+8]
  00040	ff 15 00 00 00
	00		 call	 DWORD PTR __imp_??4?$CStringT@DV?$StrTraitMFC_DLL@DV?$ChTraitsCRT@D@ATL@@@@@ATL@@QAEAAV01@ABV01@@Z

; 955  : 	if (m_pNodeHead != NULL)

  00046	8b 47 04	 mov	 eax, DWORD PTR [edi+4]
  00049	85 c0		 test	 eax, eax
  0004b	74 05		 je	 SHORT $LN2@AddHead

; 956  : 		m_pNodeHead->pPrev = pNewNode;

  0004d	89 70 04	 mov	 DWORD PTR [eax+4], esi
  00050	eb 03		 jmp	 SHORT $LN3@AddHead
$LN2@AddHead:

; 957  : 	else
; 958  : 		m_pNodeTail = pNewNode;

  00052	89 77 08	 mov	 DWORD PTR [edi+8], esi
$LN3@AddHead:

; 959  : 	m_pNodeHead = pNewNode;
; 960  : 	return (POSITION) pNewNode;

  00055	8d 4d 08	 lea	 ecx, DWORD PTR _newElement$[ebp]
  00058	89 77 04	 mov	 DWORD PTR [edi+4], esi
  0005b	ff 15 00 00 00
	00		 call	 DWORD PTR __imp_??1?$CStringT@DV?$StrTraitMFC_DLL@DV?$ChTraitsCRT@D@ATL@@@@@ATL@@QAE@XZ
  00061	8b c6		 mov	 eax, esi

; 961  : }

  00063	8b 4d f4	 mov	 ecx, DWORD PTR __$EHRec$[ebp]
  00066	64 89 0d 00 00
	00 00		 mov	 DWORD PTR fs:0, ecx
  0006d	59		 pop	 ecx
  0006e	5f		 pop	 edi
  0006f	5e		 pop	 esi
  00070	8b e5		 mov	 esp, ebp
  00072	5d		 pop	 ebp
  00073	c2 04 00	 ret	 4
_TEXT	ENDS
;	COMDAT text$x
text$x	SEGMENT
__unwindfunclet$?AddHead@?$CList@V?$CStringT@DV?$StrTraitMFC_DLL@DV?$ChTraitsCRT@D@ATL@@@@@ATL@@V12@@@QAEPAU__POSITION@@V?$CStringT@DV?$StrTraitMFC_DLL@DV?$ChTraitsCRT@D@ATL@@@@@ATL@@@Z$0:
  00000	8d 4d 08	 lea	 ecx, DWORD PTR _newElement$[ebp]
  00003	ff 25 00 00 00
	00		 jmp	 DWORD PTR __imp_??1?$CStringT@DV?$StrTraitMFC_DLL@DV?$ChTraitsCRT@D@ATL@@@@@ATL@@QAE@XZ
  00009	cc		 int	 3
  0000a	cc		 int	 3
  0000b	cc		 int	 3
  0000c	cc		 int	 3
  0000d	cc		 int	 3
__ehhandler$?AddHead@?$CList@V?$CStringT@DV?$StrTraitMFC_DLL@DV?$ChTraitsCRT@D@ATL@@@@@ATL@@V12@@@QAEPAU__POSITION@@V?$CStringT@DV?$StrTraitMFC_DLL@DV?$ChTraitsCRT@D@ATL@@@@@ATL@@@Z:
  0000e	90		 npad	 1
  0000f	90		 npad	 1
  00010	8b 54 24 08	 mov	 edx, DWORD PTR [esp+8]
  00014	8d 42 0c	 lea	 eax, DWORD PTR [edx+12]
  00017	8b 4a f4	 mov	 ecx, DWORD PTR [edx-12]
  0001a	33 c8		 xor	 ecx, eax
  0001c	e8 00 00 00 00	 call	 @__security_check_cookie@4
  00021	b8 00 00 00 00	 mov	 eax, OFFSET __ehfuncinfo$?AddHead@?$CList@V?$CStringT@DV?$StrTraitMFC_DLL@DV?$ChTraitsCRT@D@ATL@@@@@ATL@@V12@@@QAEPAU__POSITION@@V?$CStringT@DV?$StrTraitMFC_DLL@DV?$ChTraitsCRT@D@ATL@@@@@ATL@@@Z
  00026	e9 00 00 00 00	 jmp	 ___CxxFrameHandler3
text$x	ENDS
?AddHead@?$CList@V?$CStringT@DV?$StrTraitMFC_DLL@DV?$ChTraitsCRT@D@ATL@@@@@ATL@@V12@@@QAEPAU__POSITION@@V?$CStringT@DV?$StrTraitMFC_DLL@DV?$ChTraitsCRT@D@ATL@@@@@ATL@@@Z ENDP ; CList<ATL::CStringT<char,StrTraitMFC_DLL<char,ATL::ChTraitsCRT<char> > >,ATL::CStringT<char,StrTraitMFC_DLL<char,ATL::ChTraitsCRT<char> > > >::AddHead
; Function compile flags: /Ogtp
; File C:\Program Files (x86)\Microsoft Visual Studio\2019\Community\VC\Tools\MSVC\14.29.30133\atlmfc\include\afxtempl.h
;	COMDAT ?RemoveHead@?$CList@V?$CStringT@DV?$StrTraitMFC_DLL@DV?$ChTraitsCRT@D@ATL@@@@@ATL@@V12@@@QAE?AV?$CStringT@DV?$StrTraitMFC_DLL@DV?$ChTraitsCRT@D@ATL@@@@@ATL@@XZ
_TEXT	SEGMENT
$T2 = -16						; size = 4
__$EHRec$ = -12						; size = 12
___$ReturnUdt$ = 8					; size = 4
?RemoveHead@?$CList@V?$CStringT@DV?$StrTraitMFC_DLL@DV?$ChTraitsCRT@D@ATL@@@@@ATL@@V12@@@QAE?AV?$CStringT@DV?$StrTraitMFC_DLL@DV?$ChTraitsCRT@D@ATL@@@@@ATL@@XZ PROC ; CList<ATL::CStringT<char,StrTraitMFC_DLL<char,ATL::ChTraitsCRT<char> > >,ATL::CStringT<char,StrTraitMFC_DLL<char,ATL::ChTraitsCRT<char> > > >::RemoveHead, COMDAT
; _this$ = ecx

; 1007 : {

  00000	55		 push	 ebp
  00001	8b ec		 mov	 ebp, esp
  00003	6a ff		 push	 -1
  00005	68 00 00 00 00	 push	 __ehhandler$?RemoveHead@?$CList@V?$CStringT@DV?$StrTraitMFC_DLL@DV?$ChTraitsCRT@D@ATL@@@@@ATL@@V12@@@QAE?AV?$CStringT@DV?$StrTraitMFC_DLL@DV?$ChTraitsCRT@D@ATL@@@@@ATL@@XZ
  0000a	64 a1 00 00 00
	00		 mov	 eax, DWORD PTR fs:0
  00010	50		 push	 eax
  00011	51		 push	 ecx
  00012	53		 push	 ebx
  00013	56		 push	 esi
  00014	57		 push	 edi
  00015	a1 00 00 00 00	 mov	 eax, DWORD PTR ___security_cookie
  0001a	33 c5		 xor	 eax, ebp
  0001c	50		 push	 eax
  0001d	8d 45 f4	 lea	 eax, DWORD PTR __$EHRec$[ebp]
  00020	64 a3 00 00 00
	00		 mov	 DWORD PTR fs:0, eax
  00026	8b f1		 mov	 esi, ecx
  00028	c7 45 f0 00 00
	00 00		 mov	 DWORD PTR $T2[ebp], 0

; 1008 : 	ASSERT_VALID(this);
; 1009 : 	ENSURE(m_pNodeHead != NULL);  // don't call on empty list !!!

  0002f	8b 7e 04	 mov	 edi, DWORD PTR [esi+4]
  00032	c7 45 fc 00 00
	00 00		 mov	 DWORD PTR __$EHRec$[ebp+8], 0
  00039	85 ff		 test	 edi, edi
  0003b	74 6a		 je	 SHORT $LN20@RemoveHead

; 1010 : 	ASSERT(AfxIsValidAddress(m_pNodeHead, sizeof(CNode)));
; 1011 : 
; 1012 : 	CNode* pOldNode = m_pNodeHead;
; 1013 : 	TYPE returnValue = pOldNode->data;

  0003d	8b 5d 08	 mov	 ebx, DWORD PTR ___$ReturnUdt$[ebp]
  00040	8d 47 08	 lea	 eax, DWORD PTR [edi+8]
  00043	50		 push	 eax
  00044	8b cb		 mov	 ecx, ebx
  00046	ff 15 00 00 00
	00		 call	 DWORD PTR __imp_??0?$CStringT@DV?$StrTraitMFC_DLL@DV?$ChTraitsCRT@D@ATL@@@@@ATL@@QAE@ABV01@@Z

; 1020 : 	FreeNode(pOldNode);
; 1021 : 	return returnValue;

  0004c	8b 07		 mov	 eax, DWORD PTR [edi]
  0004e	c7 45 fc 00 00
	00 00		 mov	 DWORD PTR __$EHRec$[ebp+8], 0
  00055	c7 45 f0 01 00
	00 00		 mov	 DWORD PTR $T2[ebp], 1
  0005c	89 46 04	 mov	 DWORD PTR [esi+4], eax
  0005f	85 c0		 test	 eax, eax
  00061	74 09		 je	 SHORT $LN6@RemoveHead

; 1014 : 
; 1015 : 	m_pNodeHead = pOldNode->pNext;
; 1016 : 	if (m_pNodeHead != NULL)
; 1017 : 		m_pNodeHead->pPrev = NULL;

  00063	c7 40 04 00 00
	00 00		 mov	 DWORD PTR [eax+4], 0
  0006a	eb 07		 jmp	 SHORT $LN7@RemoveHead
$LN6@RemoveHead:

; 1018 : 	else
; 1019 : 		m_pNodeTail = NULL;

  0006c	c7 46 08 00 00
	00 00		 mov	 DWORD PTR [esi+8], 0
$LN7@RemoveHead:

; 937  : 	pNode->data.~TYPE();

  00073	8d 4f 08	 lea	 ecx, DWORD PTR [edi+8]
  00076	ff 15 00 00 00
	00		 call	 DWORD PTR __imp_??1?$CStringT@DV?$StrTraitMFC_DLL@DV?$ChTraitsCRT@D@ATL@@@@@ATL@@QAE@XZ

; 938  : 	pNode->pNext = m_pNodeFree;

  0007c	8b 46 10	 mov	 eax, DWORD PTR [esi+16]
  0007f	89 07		 mov	 DWORD PTR [edi], eax

; 939  : 	m_pNodeFree = pNode;
; 940  : 	m_nCount--;

  00081	83 46 0c ff	 add	 DWORD PTR [esi+12], -1
  00085	89 7e 10	 mov	 DWORD PTR [esi+16], edi

; 941  : 	ASSERT(m_nCount >= 0);  // make sure we don't underflow
; 942  : 
; 943  : 	// if no more elements, cleanup completely
; 944  : 	if (m_nCount == 0)

  00088	75 07		 jne	 SHORT $LN12@RemoveHead

; 945  : 		RemoveAll();

  0008a	8b ce		 mov	 ecx, esi
  0008c	e8 00 00 00 00	 call	 ?RemoveAll@?$CList@V?$CStringT@DV?$StrTraitMFC_DLL@DV?$ChTraitsCRT@D@ATL@@@@@ATL@@V12@@@QAEXXZ ; CList<ATL::CStringT<char,StrTraitMFC_DLL<char,ATL::ChTraitsCRT<char> > >,ATL::CStringT<char,StrTraitMFC_DLL<char,ATL::ChTraitsCRT<char> > > >::RemoveAll
$LN12@RemoveHead:

; 1020 : 	FreeNode(pOldNode);
; 1021 : 	return returnValue;

  00091	8b c3		 mov	 eax, ebx

; 1022 : }

  00093	8b 4d f4	 mov	 ecx, DWORD PTR __$EHRec$[ebp]
  00096	64 89 0d 00 00
	00 00		 mov	 DWORD PTR fs:0, ecx
  0009d	59		 pop	 ecx
  0009e	5f		 pop	 edi
  0009f	5e		 pop	 esi
  000a0	5b		 pop	 ebx
  000a1	8b e5		 mov	 esp, ebp
  000a3	5d		 pop	 ebp
  000a4	c2 04 00	 ret	 4
$LN20@RemoveHead:

; 1008 : 	ASSERT_VALID(this);
; 1009 : 	ENSURE(m_pNodeHead != NULL);  // don't call on empty list !!!

  000a7	e8 00 00 00 00	 call	 ?AfxThrowInvalidArgException@@YGXXZ ; AfxThrowInvalidArgException
$LN18@RemoveHead:
  000ac	cc		 int	 3
_TEXT	ENDS
;	COMDAT text$x
text$x	SEGMENT
__unwindfunclet$?RemoveHead@?$CList@V?$CStringT@DV?$StrTraitMFC_DLL@DV?$ChTraitsCRT@D@ATL@@@@@ATL@@V12@@@QAE?AV?$CStringT@DV?$StrTraitMFC_DLL@DV?$ChTraitsCRT@D@ATL@@@@@ATL@@XZ$0:
  00000	8b 45 f0	 mov	 eax, DWORD PTR $T2[ebp]
  00003	83 e0 01	 and	 eax, 1
  00006	0f 84 0d 00 00
	00		 je	 $LN10@RemoveHead
  0000c	83 65 f0 fe	 and	 DWORD PTR $T2[ebp], -2	; fffffffeH
  00010	8b 4d 08	 mov	 ecx, DWORD PTR ___$ReturnUdt$[ebp]
  00013	ff 25 00 00 00
	00		 jmp	 DWORD PTR __imp_??1?$CStringT@DV?$StrTraitMFC_DLL@DV?$ChTraitsCRT@D@ATL@@@@@ATL@@QAE@XZ
$LN10@RemoveHead:
  00019	c3		 ret	 0
  0001a	cc		 int	 3
  0001b	cc		 int	 3
  0001c	cc		 int	 3
  0001d	cc		 int	 3
  0001e	cc		 int	 3
__ehhandler$?RemoveHead@?$CList@V?$CStringT@DV?$StrTraitMFC_DLL@DV?$ChTraitsCRT@D@ATL@@@@@ATL@@V12@@@QAE?AV?$CStringT@DV?$StrTraitMFC_DLL@DV?$ChTraitsCRT@D@ATL@@@@@ATL@@XZ:
  0001f	90		 npad	 1
  00020	90		 npad	 1
  00021	8b 54 24 08	 mov	 edx, DWORD PTR [esp+8]
  00025	8d 42 0c	 lea	 eax, DWORD PTR [edx+12]
  00028	8b 4a ec	 mov	 ecx, DWORD PTR [edx-20]
  0002b	33 c8		 xor	 ecx, eax
  0002d	e8 00 00 00 00	 call	 @__security_check_cookie@4
  00032	b8 00 00 00 00	 mov	 eax, OFFSET __ehfuncinfo$?RemoveHead@?$CList@V?$CStringT@DV?$StrTraitMFC_DLL@DV?$ChTraitsCRT@D@ATL@@@@@ATL@@V12@@@QAE?AV?$CStringT@DV?$StrTraitMFC_DLL@DV?$ChTraitsCRT@D@ATL@@@@@ATL@@XZ
  00037	e9 00 00 00 00	 jmp	 ___CxxFrameHandler3
text$x	ENDS
?RemoveHead@?$CList@V?$CStringT@DV?$StrTraitMFC_DLL@DV?$ChTraitsCRT@D@ATL@@@@@ATL@@V12@@@QAE?AV?$CStringT@DV?$StrTraitMFC_DLL@DV?$ChTraitsCRT@D@ATL@@@@@ATL@@XZ ENDP ; CList<ATL::CStringT<char,StrTraitMFC_DLL<char,ATL::ChTraitsCRT<char> > >,ATL::CStringT<char,StrTraitMFC_DLL<char,ATL::ChTraitsCRT<char> > > >::RemoveHead
; Function compile flags: /Ogtp
; File C:\Program Files (x86)\Microsoft Visual Studio\2019\Community\VC\Tools\MSVC\14.29.30133\atlmfc\include\afxtempl.h
;	COMDAT ??0?$CList@V?$CStringT@DV?$StrTraitMFC_DLL@DV?$ChTraitsCRT@D@ATL@@@@@ATL@@V12@@@QAE@H@Z
_TEXT	SEGMENT
_nBlockSize$ = 8					; size = 4
??0?$CList@V?$CStringT@DV?$StrTraitMFC_DLL@DV?$ChTraitsCRT@D@ATL@@@@@ATL@@V12@@@QAE@H@Z PROC ; CList<ATL::CStringT<char,StrTraitMFC_DLL<char,ATL::ChTraitsCRT<char> > >,ATL::CStringT<char,StrTraitMFC_DLL<char,ATL::ChTraitsCRT<char> > > >::CList<ATL::CStringT<char,StrTraitMFC_DLL<char,ATL::ChTraitsCRT<char> > >,ATL::CStringT<char,StrTraitMFC_DLL<char,ATL::ChTraitsCRT<char> > > >, COMDAT
; _this$ = ecx

; 851  : {

  00000	55		 push	 ebp
  00001	8b ec		 mov	 ebp, esp

; 852  : 	ASSERT(nBlockSize > 0);
; 853  : 
; 854  : 	m_nCount = 0;
; 855  : 	m_pNodeHead = m_pNodeTail = m_pNodeFree = NULL;
; 856  : 	m_pBlocks = NULL;
; 857  : 	m_nBlockSize = nBlockSize;

  00003	8b 45 08	 mov	 eax, DWORD PTR _nBlockSize$[ebp]
  00006	89 41 18	 mov	 DWORD PTR [ecx+24], eax

; 858  : }

  00009	8b c1		 mov	 eax, ecx
  0000b	c7 01 00 00 00
	00		 mov	 DWORD PTR [ecx], OFFSET ??_7?$CList@V?$CStringT@DV?$StrTraitMFC_DLL@DV?$ChTraitsCRT@D@ATL@@@@@ATL@@V12@@@6B@
  00011	c7 41 0c 00 00
	00 00		 mov	 DWORD PTR [ecx+12], 0
  00018	c7 41 10 00 00
	00 00		 mov	 DWORD PTR [ecx+16], 0
  0001f	c7 41 08 00 00
	00 00		 mov	 DWORD PTR [ecx+8], 0
  00026	c7 41 04 00 00
	00 00		 mov	 DWORD PTR [ecx+4], 0
  0002d	c7 41 14 00 00
	00 00		 mov	 DWORD PTR [ecx+20], 0
  00034	5d		 pop	 ebp
  00035	c2 04 00	 ret	 4
??0?$CList@V?$CStringT@DV?$StrTraitMFC_DLL@DV?$ChTraitsCRT@D@ATL@@@@@ATL@@V12@@@QAE@H@Z ENDP ; CList<ATL::CStringT<char,StrTraitMFC_DLL<char,ATL::ChTraitsCRT<char> > >,ATL::CStringT<char,StrTraitMFC_DLL<char,ATL::ChTraitsCRT<char> > > >::CList<ATL::CStringT<char,StrTraitMFC_DLL<char,ATL::ChTraitsCRT<char> > >,ATL::CStringT<char,StrTraitMFC_DLL<char,ATL::ChTraitsCRT<char> > > >
_TEXT	ENDS
; Function compile flags: /Ogtp
; File C:\Program Files (x86)\Microsoft Visual Studio\2019\Community\VC\Tools\MSVC\14.29.30133\atlmfc\include\afx.inl
;	COMDAT ?Dump@CObject@@UBEXAAVCDumpContext@@@Z
_TEXT	SEGMENT
___formal$ = 8						; size = 4
?Dump@CObject@@UBEXAAVCDumpContext@@@Z PROC		; CObject::Dump, COMDAT
; _this$ = ecx

; 122  : 	{ /* no dumping in release builds */ }

  00000	c2 04 00	 ret	 4
?Dump@CObject@@UBEXAAVCDumpContext@@@Z ENDP		; CObject::Dump
_TEXT	ENDS
; Function compile flags: /Ogtp
; File C:\Program Files (x86)\Microsoft Visual Studio\2019\Community\VC\Tools\MSVC\14.29.30133\atlmfc\include\afx.inl
;	COMDAT ?AssertValid@CObject@@UBEXXZ
_TEXT	SEGMENT
?AssertValid@CObject@@UBEXXZ PROC			; CObject::AssertValid, COMDAT
; _this$ = ecx

; 120  : 	{ /* no asserts in release builds */ }

  00000	c2 00 00	 ret	 0
?AssertValid@CObject@@UBEXXZ ENDP			; CObject::AssertValid
_TEXT	ENDS
; Function compile flags: /Ogtp
; File C:\Program Files (x86)\Microsoft Visual Studio\2019\Community\VC\Tools\MSVC\14.29.30133\atlmfc\include\afx.inl
;	COMDAT ?Serialize@CObject@@UAEXAAVCArchive@@@Z
_TEXT	SEGMENT
___formal$ = 8						; size = 4
?Serialize@CObject@@UAEXAAVCArchive@@@Z PROC		; CObject::Serialize, COMDAT
; _this$ = ecx

; 106  : 	{ /* CObject does not serialize anything by default */ }

  00000	c2 04 00	 ret	 4
?Serialize@CObject@@UAEXAAVCArchive@@@Z ENDP		; CObject::Serialize
_TEXT	ENDS
; Function compile flags: /Ogtp
; File C:\Program Files (x86)\Microsoft Visual Studio\2019\Community\VC\Tools\MSVC\14.29.30133\atlmfc\include\afx.inl
;	COMDAT ??1CObject@@UAE@XZ
_TEXT	SEGMENT
??1CObject@@UAE@XZ PROC					; CObject::~CObject, COMDAT
; _this$ = ecx

; 104  : 	{ }

  00000	c2 00 00	 ret	 0
??1CObject@@UAE@XZ ENDP					; CObject::~CObject
_TEXT	ENDS
; Function compile flags: /Ogtp
; File D:\git\src\IBK\IBK_DRFN\ProjSrc\SrcChartEx\ChartOCX\PacketData\PacketImplementation.cpp
;	COMDAT ?__empty_global_delete@@YAXPAXI@Z
_TEXT	SEGMENT
___formal$ = 8						; size = 4
___formal$ = 12						; size = 4
?__empty_global_delete@@YAXPAXI@Z PROC			; __empty_global_delete, COMDAT

  00000	c2 00 00	 ret	 0
?__empty_global_delete@@YAXPAXI@Z ENDP			; __empty_global_delete
_TEXT	ENDS
; Function compile flags: /Ogtp
; File D:\git\src\IBK\IBK_DRFN\ProjSrc\SrcChartEx\ChartOCX\PacketData\PacketImplementation.cpp
;	COMDAT ?__empty_global_delete@@YAXPAX@Z
_TEXT	SEGMENT
___formal$ = 8						; size = 4
?__empty_global_delete@@YAXPAX@Z PROC			; __empty_global_delete, COMDAT

  00000	c2 00 00	 ret	 0
?__empty_global_delete@@YAXPAX@Z ENDP			; __empty_global_delete
_TEXT	ENDS
END
