; Listing generated by Microsoft (R) Optimizing Compiler Version 19.29.30145.0 

	TITLE	D:\git\src\IBK\IBK_DRFN\#DRfn-CS\_Obj\PacketData\PacketList.obj
	.686P
	.XMM
	include listing.inc
	.model	flat

INCLUDELIB MSVCRT
INCLUDELIB OLDNAMES

PUBLIC	?__empty_global_delete@@YAXPAX@Z		; __empty_global_delete
PUBLIC	?__empty_global_delete@@YAXPAXI@Z		; __empty_global_delete
PUBLIC	?GetIndex@CBracket@@QBEHXZ			; CBracket::GetIndex
PUBLIC	?GetDate@CBracket@@QBEHXZ			; CBracket::GetDate
PUBLIC	?GetItem@CBracket@@QBEPBDXZ			; CBracket::GetItem
PUBLIC	??0CBracket@@QAE@ABV0@@Z			; CBracket::CBracket
PUBLIC	??4CBracket@@QAEAAV0@ABV0@@Z			; CBracket::operator=
PUBLIC	?GetPriceX100@CMPItem@@QBEHXZ			; CMPItem::GetPriceX100
PUBLIC	?GetVolume@CMPItem@@QBEKXZ			; CMPItem::GetVolume
PUBLIC	?GetBracketList@CMPItem@@QAEPAV?$CList@PAVCBracket@@PAV1@@@XZ ; CMPItem::GetBracketList
PUBLIC	?SetPrice@CMPItem@@QAEXH@Z			; CMPItem::SetPrice
PUBLIC	?AddVolume@CMPItem@@QAEXK@Z			; CMPItem::AddVolume
PUBLIC	?GetDate@CMProfile@@QBEHXZ			; CMProfile::GetDate
PUBLIC	?GetMPItemList@CMProfile@@QAEPAV?$CList@PAVCMPItem@@PAV1@@@XZ ; CMProfile::GetMPItemList
PUBLIC	?SetDate@CMProfile@@QAEXH@Z			; CMProfile::SetDate
PUBLIC	?IsEmpty@CMProfile@@QAEHXZ			; CMProfile::IsEmpty
PUBLIC	?GetLastPriceX100@CMProfile@@QBEHXZ		; CMProfile::GetLastPriceX100
PUBLIC	?SetLastPriceX100@CMProfile@@QAEXH@Z		; CMProfile::SetLastPriceX100
PUBLIC	?GetMarketProfileList@CMPPacket@@QAEPAV?$CList@PAVCMProfile@@PAV1@@@XZ ; CMPPacket::GetMarketProfileList
PUBLIC	?SetPriceUnitX100@CMPPacket@@QAEXH@Z		; CMPPacket::SetPriceUnitX100
PUBLIC	?GetPriceUnitX100@CMPPacket@@QBEHXZ		; CMPPacket::GetPriceUnitX100
PUBLIC	??0CPacketList@@QAE@W4REALTYPE@CPacketType@@PAUIChartCtrl@@@Z ; CPacketList::CPacketList
PUBLIC	??0CPacketList@@QAE@V?$CStringT@DV?$StrTraitMFC_DLL@DV?$ChTraitsCRT@D@ATL@@@@@ATL@@W4REALTYPE@CPacketType@@PAUIChartCtrl@@@Z ; CPacketList::CPacketList
PUBLIC	??1CPacketList@@UAE@XZ				; CPacketList::~CPacketList
PUBLIC	?SetVersion@CPacketList@@QAEXN@Z		; CPacketList::SetVersion
PUBLIC	?SetPacketLengthCount@CPacketList@@QAEXH@Z	; CPacketList::SetPacketLengthCount
PUBLIC	?SetData@CPacketList@@QAE_NV?$CStringT@DV?$StrTraitMFC_DLL@DV?$ChTraitsCRT@D@ATL@@@@@ATL@@HN_N@Z ; CPacketList::SetData
PUBLIC	?GetRealType@CPacketList@@QBE?AW4REALTYPE@CPacketType@@XZ ; CPacketList::GetRealType
PUBLIC	?SetPacketData@CPacketList@@QAEXABV?$CStringT@DV?$StrTraitMFC_DLL@DV?$ChTraitsCRT@D@ATL@@@@@ATL@@JJ@Z ; CPacketList::SetPacketData
PUBLIC	?SetPacketData@CPacketList@@QAE_NABV?$CStringT@DV?$StrTraitMFC_DLL@DV?$ChTraitsCRT@D@ATL@@@@@ATL@@0PBDH@Z ; CPacketList::SetPacketData
PUBLIC	?AddPacket@CPacketList@@QAEXV?$CStringT@DV?$StrTraitMFC_DLL@DV?$ChTraitsCRT@D@ATL@@@@@ATL@@@Z ; CPacketList::AddPacket
PUBLIC	?RemovePacket@CPacketList@@QAE_NV?$CStringT@DV?$StrTraitMFC_DLL@DV?$ChTraitsCRT@D@ATL@@@@@ATL@@@Z ; CPacketList::RemovePacket
PUBLIC	?GetLastestRealIndex@CPacketList@@QAEHXZ	; CPacketList::GetLastestRealIndex
PUBLIC	?GetTimeInterval@CPacketList@@QAEHXZ		; CPacketList::GetTimeInterval
PUBLIC	?GetTimeIntervalWithSecond@CPacketList@@QAE_JXZ	; CPacketList::GetTimeIntervalWithSecond
PUBLIC	?GetStartTimeInTimeRangeOfLastData@CPacketList@@QAE_JXZ ; CPacketList::GetStartTimeInTimeRangeOfLastData
PUBLIC	?GetTotalTRIndex@CPacketList@@QBEHXZ		; CPacketList::GetTotalTRIndex
PUBLIC	?GetTotalTRCount@CPacketList@@QBEHXZ		; CPacketList::GetTotalTRCount
PUBLIC	?GetTRCount@CPacketList@@QBEHH@Z		; CPacketList::GetTRCount
PUBLIC	?GetRequestTRCount@CPacketList@@QBEHH@Z		; CPacketList::GetRequestTRCount
PUBLIC	?GetMaxCount@CPacketList@@QAEHXZ		; CPacketList::GetMaxCount
PUBLIC	?GetCount@CPacketList@@QAEHV?$CStringT@DV?$StrTraitMFC_DLL@DV?$ChTraitsCRT@D@ATL@@@@@ATL@@@Z ; CPacketList::GetCount
PUBLIC	?GetMaxCount@CPacketList@@QAEHV?$CStringT@DV?$StrTraitMFC_DLL@DV?$ChTraitsCRT@D@ATL@@@@@ATL@@ABV23@@Z ; CPacketList::GetMaxCount
PUBLIC	?GetMinMax@CPacketList@@QAEHHHV?$CStringT@DV?$StrTraitMFC_DLL@DV?$ChTraitsCRT@D@ATL@@@@@ATL@@AAN1@Z ; CPacketList::GetMinMax
PUBLIC	?GetAllPacketsMinMax@CPacketList@@QAE_NHHAAN0@Z	; CPacketList::GetAllPacketsMinMax
PUBLIC	?GetnumericDataList@CPacketList@@QAEPAV?$CList@NN@@PAVCPacket@@@Z ; CPacketList::GetnumericDataList
PUBLIC	?GetstrDataList@CPacketList@@QAEPAV?$CList@V?$CStringT@DV?$StrTraitMFC_DLL@DV?$ChTraitsCRT@D@ATL@@@@@ATL@@V12@@@PAVCPacket@@@Z ; CPacketList::GetstrDataList
PUBLIC	?GetPacketType@CPacketList@@QAE?AV?$CStringT@DV?$StrTraitMFC_DLL@DV?$ChTraitsCRT@D@ATL@@@@@ATL@@V23@_N@Z ; CPacketList::GetPacketType
PUBLIC	?GetPacketType@CPacketList@@QAE?AV?$CStringT@DV?$StrTraitMFC_DLL@DV?$ChTraitsCRT@D@ATL@@@@@ATL@@PAVCPacket@@_N@Z ; CPacketList::GetPacketType
PUBLIC	?GetStrDataFromIndex@CPacketList@@QAE?AV?$CStringT@DV?$StrTraitMFC_DLL@DV?$ChTraitsCRT@D@ATL@@@@@ATL@@V23@H@Z ; CPacketList::GetStrDataFromIndex
PUBLIC	?GetDataFromIndex@CPacketList@@QAENV?$CStringT@DV?$StrTraitMFC_DLL@DV?$ChTraitsCRT@D@ATL@@@@@ATL@@H@Z ; CPacketList::GetDataFromIndex
PUBLIC	?GetCurrentDate@CPacketList@@QAENXZ		; CPacketList::GetCurrentDate
PUBLIC	?GetDateUnitType@CPacketList@@QAE?AW4HORZSCALEDRAWERTYPE@CScaleBaseData@@XZ ; CPacketList::GetDateUnitType
PUBLIC	?GetDataInsertType@CPacketList@@QAE?AW4DATAINSERTTYPE@CPacketDataInfo@@XZ ; CPacketList::GetDataInsertType
PUBLIC	?GetRealKeyName@CPacketList@@QAEPAV?$CList@V?$CStringT@DV?$StrTraitMFC_DLL@DV?$ChTraitsCRT@D@ATL@@@@@ATL@@V12@@@XZ ; CPacketList::GetRealKeyName
PUBLIC	?GetPriceType@CPacketList@@QAE?AW4PRICETYPE@CPacketType@@XZ ; CPacketList::GetPriceType
PUBLIC	?UseRealData@CPacketList@@QAE_NXZ		; CPacketList::UseRealData
PUBLIC	?GetUseReal@CPacketList@@QAE_NXZ		; CPacketList::GetUseReal
PUBLIC	?FindKey@CPacketList@@QAE_NV?$CStringT@DV?$StrTraitMFC_DLL@DV?$ChTraitsCRT@D@ATL@@@@@ATL@@@Z ; CPacketList::FindKey
PUBLIC	?GetEndDate@CPacketList@@QAEHPAVCPacket@@@Z	; CPacketList::GetEndDate
PUBLIC	?GetStartDate@CPacketList@@QAEHXZ		; CPacketList::GetStartDate
PUBLIC	?GetUpdateRange@CPacketList@@QAE?AVCPoint@@XZ	; CPacketList::GetUpdateRange
PUBLIC	?GetPacketDataLength@CPacketList@@QAEHH@Z	; CPacketList::GetPacketDataLength
PUBLIC	?GetBaseData@CPacketList@@QAEPAVCPacket@@V?$CStringT@DV?$StrTraitMFC_DLL@DV?$ChTraitsCRT@D@ATL@@@@@ATL@@_N@Z ; CPacketList::GetBaseData
PUBLIC	?GetPacketList@CPacketList@@QBE_NABV?$CStringT@DV?$StrTraitMFC_DLL@DV?$ChTraitsCRT@D@ATL@@@@@ATL@@0AAV?$CList@PAVCPacket@@PAV1@@@@Z ; CPacketList::GetPacketList
PUBLIC	?GetTRPacketList@CPacketList@@QAEAAV?$CTypedPtrList@VCObList@@PAVCPacket@@@@XZ ; CPacketList::GetTRPacketList
PUBLIC	?GetTRPacketNames@CPacketList@@QBE?AV?$CStringT@DV?$StrTraitMFC_DLL@DV?$ChTraitsCRT@D@ATL@@@@@ATL@@ABV23@@Z ; CPacketList::GetTRPacketNames
PUBLIC	?SetUseRealData@CPacketList@@QAEX_N@Z		; CPacketList::SetUseRealData
PUBLIC	?SetHoldingPacketSize@CPacketList@@QAEXH@Z	; CPacketList::SetHoldingPacketSize
PUBLIC	?SetBasePacketName@CPacketList@@QAEXABV?$CStringT@DV?$StrTraitMFC_DLL@DV?$ChTraitsCRT@D@ATL@@@@@ATL@@@Z ; CPacketList::SetBasePacketName
PUBLIC	?SetDataInsertType@CPacketList@@QAEXW4DATAINSERTTYPE@CPacketDataInfo@@@Z ; CPacketList::SetDataInsertType
PUBLIC	?SetBaseData@CPacketList@@QAEHJHH@Z		; CPacketList::SetBaseData
PUBLIC	?SetBaseData@CPacketList@@QAEHV?$CStringT@DV?$StrTraitMFC_DLL@DV?$ChTraitsCRT@D@ATL@@@@@ATL@@HH@Z ; CPacketList::SetBaseData
PUBLIC	?RemoveFictionData@CPacketList@@QAE_NXZ		; CPacketList::RemoveFictionData
PUBLIC	?ClearIndicatorData@CPacketList@@QAE_NABV?$CStringT@DV?$StrTraitMFC_DLL@DV?$ChTraitsCRT@D@ATL@@@@@ATL@@@Z ; CPacketList::ClearIndicatorData
PUBLIC	?ClearDataAll@CPacketList@@QAEH_N@Z		; CPacketList::ClearDataAll
PUBLIC	?ClearData@CPacketList@@QAEHABV?$CStringT@DV?$StrTraitMFC_DLL@DV?$ChTraitsCRT@D@ATL@@@@@ATL@@0_N@Z ; CPacketList::ClearData
PUBLIC	?ClearAllIndicatorData@CPacketList@@QAE_N_N@Z	; CPacketList::ClearAllIndicatorData
PUBLIC	?DeleteOrClearPacket@CPacketList@@QAE_NABV?$CStringT@DV?$StrTraitMFC_DLL@DV?$ChTraitsCRT@D@ATL@@@@@ATL@@_N1@Z ; CPacketList::DeleteOrClearPacket
PUBLIC	?DeleteOrClearPacket@CPacketList@@QAE_NPAVCPacket@@_N1@Z ; CPacketList::DeleteOrClearPacket
PUBLIC	?SetItemData@CPacketList@@QAEXABV?$CStringT@DV?$StrTraitMFC_DLL@DV?$ChTraitsCRT@D@ATL@@@@@ATL@@0@Z ; CPacketList::SetItemData
PUBLIC	?GetItemData@CPacketList@@QBEXAAV?$CStringT@DV?$StrTraitMFC_DLL@DV?$ChTraitsCRT@D@ATL@@@@@ATL@@0@Z ; CPacketList::GetItemData
PUBLIC	?GetItemCode@CPacketList@@QBE?AV?$CStringT@DV?$StrTraitMFC_DLL@DV?$ChTraitsCRT@D@ATL@@@@@ATL@@XZ ; CPacketList::GetItemCode
PUBLIC	?GetItemName@CPacketList@@QBE?AV?$CStringT@DV?$StrTraitMFC_DLL@DV?$ChTraitsCRT@D@ATL@@@@@ATL@@XZ ; CPacketList::GetItemName
PUBLIC	?GetRemovePacketCountInRealData@CPacketList@@QBEHXZ ; CPacketList::GetRemovePacketCountInRealData
PUBLIC	?GetCommodityBondNameInBase@CPacketList@@QBE?AW4COMMODITY_BOND_NAME@CPacketType@@XZ ; CPacketList::GetCommodityBondNameInBase
PUBLIC	?SetHelpMessage@CPacketList@@QAE_NABV?$CStringT@DV?$StrTraitMFC_DLL@DV?$ChTraitsCRT@D@ATL@@@@@ATL@@_N@Z ; CPacketList::SetHelpMessage
PUBLIC	?SetHelpMessageRealDataRate@CPacketList@@QAE_NABV?$CStringT@DV?$StrTraitMFC_DLL@DV?$ChTraitsCRT@D@ATL@@@@@ATL@@_N@Z ; CPacketList::SetHelpMessageRealDataRate
PUBLIC	?GetHelpMessageItem@CPacketList@@QAEHPBDAAV?$CStringT@DV?$StrTraitMFC_DLL@DV?$ChTraitsCRT@D@ATL@@@@@ATL@@@Z ; CPacketList::GetHelpMessageItem
PUBLIC	?GetHelpMessageMap@CPacketList@@QAEPBVCMapStringToString@@XZ ; CPacketList::GetHelpMessageMap
PUBLIC	?SetBinTrHelpMsg@CPacketList@@QAEHPBD@Z		; CPacketList::SetBinTrHelpMsg
PUBLIC	?SetBinTrDoubleData@CPacketList@@QAEHPBDJPAN@Z	; CPacketList::SetBinTrDoubleData
PUBLIC	?SetBinTrStringData@CPacketList@@QAEHPBDJPAPBD@Z ; CPacketList::SetBinTrStringData
PUBLIC	?SetBinTrEnd@CPacketList@@QAEHXZ		; CPacketList::SetBinTrEnd
PUBLIC	?SetRQ@CPacketList@@QAEXPBD@Z			; CPacketList::SetRQ
PUBLIC	?GetRQ@CPacketList@@QAEPBDXZ			; CPacketList::GetRQ
PUBLIC	?OffsetPacketData@CPacketList@@QAEXNV?$CStringT@DV?$StrTraitMFC_DLL@DV?$ChTraitsCRT@D@ATL@@@@@ATL@@@Z ; CPacketList::OffsetPacketData
PUBLIC	?GetPacketOption@CPacketList@@QAE?AV?$CStringT@DV?$StrTraitMFC_DLL@DV?$ChTraitsCRT@D@ATL@@@@@ATL@@XZ ; CPacketList::GetPacketOption
PUBLIC	?ShiftPacket@CPacketList@@QAEHPBDJ@Z		; CPacketList::ShiftPacket
PUBLIC	?GetBaseTimeName@CPacketList@@QAE?AV?$CStringT@DV?$StrTraitMFC_DLL@DV?$ChTraitsCRT@D@ATL@@@@@ATL@@XZ ; CPacketList::GetBaseTimeName
PUBLIC	?GetBaseTimeDifference@CPacketList@@QAEHXZ	; CPacketList::GetBaseTimeDifference
PUBLIC	?SetBaseTimeDifference@CPacketList@@QAEXH@Z	; CPacketList::SetBaseTimeDifference
PUBLIC	?GetCalcDataTimeDifference@CPacketList@@QAEHXZ	; CPacketList::GetCalcDataTimeDifference
PUBLIC	?SetBaseTime@CPacketList@@QAEXV?$CStringT@DV?$StrTraitMFC_DLL@DV?$ChTraitsCRT@D@ATL@@@@@ATL@@H@Z ; CPacketList::SetBaseTime
PUBLIC	?GetOrgBaseTimeDifference@CPacketList@@QAEHXZ	; CPacketList::GetOrgBaseTimeDifference
PUBLIC	?SetOrgBaseTime@CPacketList@@QAEXXZ		; CPacketList::SetOrgBaseTime
PUBLIC	?GetCurrDateTime@CPacketList@@QBE_JXZ		; CPacketList::GetCurrDateTime
PUBLIC	?GetMarketTime@CPacketList@@QBE_NAAH0@Z		; CPacketList::GetMarketTime
PUBLIC	?GetMarketDayType@CPacketList@@QAE?AW4MARKETDAYTYPE@CPacketType@@XZ ; CPacketList::GetMarketDayType
PUBLIC	?SetRealData@CPacketList@@QAE_NPBDNAAHH@Z	; CPacketList::SetRealData
PUBLIC	?GetRealData_CloseTime@CPacketList@@QAE_NAB_JAA_J@Z ; CPacketList::GetRealData_CloseTime
PUBLIC	?PushNMTRState@CPacketList@@QAEXAB_J@Z		; CPacketList::PushNMTRState
PUBLIC	?PopNMTRState@CPacketList@@QAEXXZ		; CPacketList::PopNMTRState
PUBLIC	?GetLastClockAndRealTime@CPacketList@@QAEHAA_J0@Z ; CPacketList::GetLastClockAndRealTime
PUBLIC	?GetRealTimeType@CPacketList@@QAE?AV?$CStringT@DV?$StrTraitMFC_DLL@DV?$ChTraitsCRT@D@ATL@@@@@ATL@@XZ ; CPacketList::GetRealTimeType
PUBLIC	?GetOrgDataBeforeRate@CPacketList@@QAENPBDN@Z	; CPacketList::GetOrgDataBeforeRate
PUBLIC	?GetRealData_RealDateTime@CPacketList@@QAEXAAN@Z ; CPacketList::GetRealData_RealDateTime
PUBLIC	?ChangeChartMode@CPacketList@@QAEXH@Z		; CPacketList::ChangeChartMode
PUBLIC	??0CPacketList@@QAE@ABV0@@Z			; CPacketList::CPacketList
PUBLIC	??4CPacketList@@QAEAAV0@ABV0@@Z			; CPacketList::operator=
PUBLIC	??_GCPacketList@@UAEPAXI@Z			; CPacketList::`scalar deleting destructor'
PUBLIC	??_ECPacketList@@UAEPAXI@Z			; CPacketList::`vector deleting destructor'
PUBLIC	??_C@_00CNPNBAHC@@				; `string'
PUBLIC	??_7CPacketList@@6B@				; CPacketList::`vftable'
PUBLIC	??_R4CPacketList@@6B@				; CPacketList::`RTTI Complete Object Locator'
PUBLIC	??_R0?AVCPacketList@@@8				; CPacketList `RTTI Type Descriptor'
PUBLIC	??_R3CPacketList@@8				; CPacketList::`RTTI Class Hierarchy Descriptor'
PUBLIC	??_R2CPacketList@@8				; CPacketList::`RTTI Base Class Array'
PUBLIC	??_R1A@?0A@EA@CPacketList@@8			; CPacketList::`RTTI Base Class Descriptor at (0,-1,0,64)'
EXTRN	??_M@YGXPAXIIP6EX0@Z@Z:PROC			; `eh vector destructor iterator'
EXTRN	??2@YAPAXI@Z:PROC				; operator new
EXTRN	??3@YAXPAXI@Z:PROC				; operator delete
EXTRN	??_V@YAXPAXI@Z:PROC				; operator delete[]
EXTRN	__imp_??0?$CStringT@DV?$StrTraitMFC_DLL@DV?$ChTraitsCRT@D@ATL@@@@@ATL@@QAE@ABV01@@Z:PROC
EXTRN	__imp_??0?$CStringT@DV?$StrTraitMFC_DLL@DV?$ChTraitsCRT@D@ATL@@@@@ATL@@QAE@PBD@Z:PROC
EXTRN	__imp_??1?$CStringT@DV?$StrTraitMFC_DLL@DV?$ChTraitsCRT@D@ATL@@@@@ATL@@QAE@XZ:PROC
EXTRN	__imp_??4?$CStringT@DV?$StrTraitMFC_DLL@DV?$ChTraitsCRT@D@ATL@@@@@ATL@@QAEAAV01@ABV01@@Z:PROC
EXTRN	?LoadMetaTable@IMetaTable@@QAEXXZ:PROC		; IMetaTable::LoadMetaTable
EXTRN	??0CPacketListImplementation@@QAE@PAVCPacketList@@W4REALTYPE@CPacketType@@PAUIChartCtrl@@@Z:PROC ; CPacketListImplementation::CPacketListImplementation
EXTRN	??0CPacketListImplementation@@QAE@PAVCPacketList@@V?$CStringT@DV?$StrTraitMFC_DLL@DV?$ChTraitsCRT@D@ATL@@@@@ATL@@W4REALTYPE@CPacketType@@PAUIChartCtrl@@@Z:PROC ; CPacketListImplementation::CPacketListImplementation
EXTRN	?SetVersion@CPacketListImplementation@@QAEXN@Z:PROC ; CPacketListImplementation::SetVersion
EXTRN	?SetPacketLengthCount@CPacketListImplementation@@QAEXH@Z:PROC ; CPacketListImplementation::SetPacketLengthCount
EXTRN	?SetData@CPacketListImplementation@@QAE_NV?$CStringT@DV?$StrTraitMFC_DLL@DV?$ChTraitsCRT@D@ATL@@@@@ATL@@HN_N@Z:PROC ; CPacketListImplementation::SetData
EXTRN	?GetRealType@CPacketListImplementation@@QBE?AW4REALTYPE@CPacketType@@XZ:PROC ; CPacketListImplementation::GetRealType
EXTRN	?SetPacketData@CPacketListImplementation@@QAEXABV?$CStringT@DV?$StrTraitMFC_DLL@DV?$ChTraitsCRT@D@ATL@@@@@ATL@@JJ@Z:PROC ; CPacketListImplementation::SetPacketData
EXTRN	?SetPacketData@CPacketListImplementation@@QAE_NABV?$CStringT@DV?$StrTraitMFC_DLL@DV?$ChTraitsCRT@D@ATL@@@@@ATL@@0PBDH@Z:PROC ; CPacketListImplementation::SetPacketData
EXTRN	?AddPacket@CPacketListImplementation@@QAE?AV?$CStringT@DV?$StrTraitMFC_DLL@DV?$ChTraitsCRT@D@ATL@@@@@ATL@@V23@@Z:PROC ; CPacketListImplementation::AddPacket
EXTRN	?RemovePacket@CPacketListImplementation@@QAE_NV?$CStringT@DV?$StrTraitMFC_DLL@DV?$ChTraitsCRT@D@ATL@@@@@ATL@@@Z:PROC ; CPacketListImplementation::RemovePacket
EXTRN	?GetLastestRealIndex@CPacketListImplementation@@QAEHXZ:PROC ; CPacketListImplementation::GetLastestRealIndex
EXTRN	?GetTimeInterval@CPacketListImplementation@@QAEHXZ:PROC ; CPacketListImplementation::GetTimeInterval
EXTRN	?GetTimeIntervalWithSecond@CPacketListImplementation@@QAE_JXZ:PROC ; CPacketListImplementation::GetTimeIntervalWithSecond
EXTRN	?GetStartTimeInTimeRangeOfLastData@CPacketListImplementation@@QAE_JXZ:PROC ; CPacketListImplementation::GetStartTimeInTimeRangeOfLastData
EXTRN	?GetTotalTRIndex@CPacketListImplementation@@QBEHXZ:PROC ; CPacketListImplementation::GetTotalTRIndex
EXTRN	?GetTotalTRCount@CPacketListImplementation@@QBEHXZ:PROC ; CPacketListImplementation::GetTotalTRCount
EXTRN	?GetTRCount@CPacketListImplementation@@QBEHH@Z:PROC ; CPacketListImplementation::GetTRCount
EXTRN	?GetRequestTRCount@CPacketListImplementation@@QBEHH@Z:PROC ; CPacketListImplementation::GetRequestTRCount
EXTRN	?GetMaxCount@CPacketListImplementation@@QAEHXZ:PROC ; CPacketListImplementation::GetMaxCount
EXTRN	?GetCount@CPacketListImplementation@@QAEHV?$CStringT@DV?$StrTraitMFC_DLL@DV?$ChTraitsCRT@D@ATL@@@@@ATL@@@Z:PROC ; CPacketListImplementation::GetCount
EXTRN	?GetMaxCount@CPacketListImplementation@@QAEHV?$CStringT@DV?$StrTraitMFC_DLL@DV?$ChTraitsCRT@D@ATL@@@@@ATL@@ABV23@@Z:PROC ; CPacketListImplementation::GetMaxCount
EXTRN	?GetMinMax@CPacketListImplementation@@QAEHHHV?$CStringT@DV?$StrTraitMFC_DLL@DV?$ChTraitsCRT@D@ATL@@@@@ATL@@AAN1@Z:PROC ; CPacketListImplementation::GetMinMax
EXTRN	?GetAllPacketsMinMax@CPacketListImplementation@@QAE_NHHAAN0@Z:PROC ; CPacketListImplementation::GetAllPacketsMinMax
EXTRN	?GetnumericDataList@CPacketListImplementation@@QAEPAV?$CList@NN@@PAVCPacket@@@Z:PROC ; CPacketListImplementation::GetnumericDataList
EXTRN	?GetstrDataList@CPacketListImplementation@@QAEPAV?$CList@V?$CStringT@DV?$StrTraitMFC_DLL@DV?$ChTraitsCRT@D@ATL@@@@@ATL@@V12@@@PAVCPacket@@@Z:PROC ; CPacketListImplementation::GetstrDataList
EXTRN	?GetPacketType@CPacketListImplementation@@QAE?AV?$CStringT@DV?$StrTraitMFC_DLL@DV?$ChTraitsCRT@D@ATL@@@@@ATL@@V23@_N@Z:PROC ; CPacketListImplementation::GetPacketType
EXTRN	?GetPacketType@CPacketListImplementation@@QAE?AV?$CStringT@DV?$StrTraitMFC_DLL@DV?$ChTraitsCRT@D@ATL@@@@@ATL@@PAVCPacket@@_N@Z:PROC ; CPacketListImplementation::GetPacketType
EXTRN	?GetStrDataFromIndex@CPacketListImplementation@@QAE?AV?$CStringT@DV?$StrTraitMFC_DLL@DV?$ChTraitsCRT@D@ATL@@@@@ATL@@V23@H@Z:PROC ; CPacketListImplementation::GetStrDataFromIndex
EXTRN	?GetDataFromIndex@CPacketListImplementation@@QAENV?$CStringT@DV?$StrTraitMFC_DLL@DV?$ChTraitsCRT@D@ATL@@@@@ATL@@H@Z:PROC ; CPacketListImplementation::GetDataFromIndex
EXTRN	?GetCurrentDate@CPacketListImplementation@@QAENXZ:PROC ; CPacketListImplementation::GetCurrentDate
EXTRN	?GetDateUnitType@CPacketListImplementation@@QAE?AW4HORZSCALEDRAWERTYPE@CScaleBaseData@@XZ:PROC ; CPacketListImplementation::GetDateUnitType
EXTRN	?GetDataInsertType@CPacketListImplementation@@QAE?AW4DATAINSERTTYPE@CPacketDataInfo@@XZ:PROC ; CPacketListImplementation::GetDataInsertType
EXTRN	?GetUseReal@CPacketListImplementation@@QAE_NXZ:PROC ; CPacketListImplementation::GetUseReal
EXTRN	?FindKey@CPacketListImplementation@@QAE_NV?$CStringT@DV?$StrTraitMFC_DLL@DV?$ChTraitsCRT@D@ATL@@@@@ATL@@@Z:PROC ; CPacketListImplementation::FindKey
EXTRN	?GetEndDate@CPacketListImplementation@@QAEHPAVCPacket@@@Z:PROC ; CPacketListImplementation::GetEndDate
EXTRN	?GetStartDate@CPacketListImplementation@@QAEHXZ:PROC ; CPacketListImplementation::GetStartDate
EXTRN	?GetUpdateRange@CPacketListImplementation@@QAE?AVCPoint@@XZ:PROC ; CPacketListImplementation::GetUpdateRange
EXTRN	?GetPacketDataLength@CPacketListImplementation@@QAEHH@Z:PROC ; CPacketListImplementation::GetPacketDataLength
EXTRN	?GetBaseData@CPacketListImplementation@@QAEPAVCPacket@@ABV?$CStringT@DV?$StrTraitMFC_DLL@DV?$ChTraitsCRT@D@ATL@@@@@ATL@@_N@Z:PROC ; CPacketListImplementation::GetBaseData
EXTRN	?GetPacketList@CPacketListImplementation@@QBE_NABV?$CStringT@DV?$StrTraitMFC_DLL@DV?$ChTraitsCRT@D@ATL@@@@@ATL@@0AAV?$CList@PAVCPacket@@PAV1@@@@Z:PROC ; CPacketListImplementation::GetPacketList
EXTRN	?GetTRPacketList@CPacketListImplementation@@QAEAAV?$CTypedPtrList@VCObList@@PAVCPacket@@@@XZ:PROC ; CPacketListImplementation::GetTRPacketList
EXTRN	?GetTRPacketNames@CPacketListImplementation@@QBE?AV?$CStringT@DV?$StrTraitMFC_DLL@DV?$ChTraitsCRT@D@ATL@@@@@ATL@@ABV23@@Z:PROC ; CPacketListImplementation::GetTRPacketNames
EXTRN	?SetHoldingPacketSize@CPacketListImplementation@@QAEXH@Z:PROC ; CPacketListImplementation::SetHoldingPacketSize
EXTRN	?SetBasePacketName@CPacketListImplementation@@QAEXABV?$CStringT@DV?$StrTraitMFC_DLL@DV?$ChTraitsCRT@D@ATL@@@@@ATL@@@Z:PROC ; CPacketListImplementation::SetBasePacketName
EXTRN	?SetDataInsertType@CPacketListImplementation@@QAEXW4DATAINSERTTYPE@CPacketDataInfo@@@Z:PROC ; CPacketListImplementation::SetDataInsertType
EXTRN	?SetBaseData@CPacketListImplementation@@QAEHJHH@Z:PROC ; CPacketListImplementation::SetBaseData
EXTRN	?SetBaseData@CPacketListImplementation@@QAEHV?$CStringT@DV?$StrTraitMFC_DLL@DV?$ChTraitsCRT@D@ATL@@@@@ATL@@HH@Z:PROC ; CPacketListImplementation::SetBaseData
EXTRN	?RemoveFictionData@CPacketListImplementation@@QAE_NXZ:PROC ; CPacketListImplementation::RemoveFictionData
EXTRN	?ClearIndicatorData@CPacketListImplementation@@QAE_NABV?$CStringT@DV?$StrTraitMFC_DLL@DV?$ChTraitsCRT@D@ATL@@@@@ATL@@@Z:PROC ; CPacketListImplementation::ClearIndicatorData
EXTRN	?ClearDataAll@CPacketListImplementation@@QAEH_N@Z:PROC ; CPacketListImplementation::ClearDataAll
EXTRN	?ClearData@CPacketListImplementation@@QAEHABV?$CStringT@DV?$StrTraitMFC_DLL@DV?$ChTraitsCRT@D@ATL@@@@@ATL@@0_N@Z:PROC ; CPacketListImplementation::ClearData
EXTRN	?ClearAllIndicatorData@CPacketListImplementation@@QAE_N_N@Z:PROC ; CPacketListImplementation::ClearAllIndicatorData
EXTRN	?DeleteOrClearPacket@CPacketListImplementation@@QAE_NABV?$CStringT@DV?$StrTraitMFC_DLL@DV?$ChTraitsCRT@D@ATL@@@@@ATL@@_N1@Z:PROC ; CPacketListImplementation::DeleteOrClearPacket
EXTRN	?DeleteOrClearPacket@CPacketListImplementation@@QAE_NPAVCPacket@@_N1@Z:PROC ; CPacketListImplementation::DeleteOrClearPacket
EXTRN	?SetItemData@CPacketListImplementation@@QAEXABV?$CStringT@DV?$StrTraitMFC_DLL@DV?$ChTraitsCRT@D@ATL@@@@@ATL@@0@Z:PROC ; CPacketListImplementation::SetItemData
EXTRN	?GetItemData@CPacketListImplementation@@QBEXAAV?$CStringT@DV?$StrTraitMFC_DLL@DV?$ChTraitsCRT@D@ATL@@@@@ATL@@0@Z:PROC ; CPacketListImplementation::GetItemData
EXTRN	?GetItemCode@CPacketListImplementation@@QBE?AV?$CStringT@DV?$StrTraitMFC_DLL@DV?$ChTraitsCRT@D@ATL@@@@@ATL@@XZ:PROC ; CPacketListImplementation::GetItemCode
EXTRN	?GetItemName@CPacketListImplementation@@QBE?AV?$CStringT@DV?$StrTraitMFC_DLL@DV?$ChTraitsCRT@D@ATL@@@@@ATL@@XZ:PROC ; CPacketListImplementation::GetItemName
EXTRN	?GetRemovePacketCountInRealData@CPacketListImplementation@@QBEHXZ:PROC ; CPacketListImplementation::GetRemovePacketCountInRealData
EXTRN	?GetCommodityBondNameInBase@CPacketListImplementation@@QBE?AW4COMMODITY_BOND_NAME@CPacketType@@XZ:PROC ; CPacketListImplementation::GetCommodityBondNameInBase
EXTRN	?SetHelpMessage@CPacketListImplementation@@QAEHPBD_N@Z:PROC ; CPacketListImplementation::SetHelpMessage
EXTRN	?SetHelpMessageRealDataRate@CPacketListImplementation@@QAE_NABV?$CStringT@DV?$StrTraitMFC_DLL@DV?$ChTraitsCRT@D@ATL@@@@@ATL@@_N@Z:PROC ; CPacketListImplementation::SetHelpMessageRealDataRate
EXTRN	?GetHelpMessageItem@CPacketListImplementation@@QAEHPBDAAV?$CStringT@DV?$StrTraitMFC_DLL@DV?$ChTraitsCRT@D@ATL@@@@@ATL@@@Z:PROC ; CPacketListImplementation::GetHelpMessageItem
EXTRN	?SetBinTrHelpMsg@CPacketListImplementation@@QAEHPBD@Z:PROC ; CPacketListImplementation::SetBinTrHelpMsg
EXTRN	?SetBinTrDoubleData@CPacketListImplementation@@QAEHPBDJPAN@Z:PROC ; CPacketListImplementation::SetBinTrDoubleData
EXTRN	?SetBinTrStringData@CPacketListImplementation@@QAEHPBDJPAPBD@Z:PROC ; CPacketListImplementation::SetBinTrStringData
EXTRN	?SetBinTrEnd@CPacketListImplementation@@QAEHXZ:PROC ; CPacketListImplementation::SetBinTrEnd
EXTRN	?SetRQ@CPacketListImplementation@@QAEXPBD@Z:PROC ; CPacketListImplementation::SetRQ
EXTRN	?GetRQ@CPacketListImplementation@@QAEPBDXZ:PROC	; CPacketListImplementation::GetRQ
EXTRN	?OffsetPacketData@CPacketListImplementation@@QAEXNV?$CStringT@DV?$StrTraitMFC_DLL@DV?$ChTraitsCRT@D@ATL@@@@@ATL@@@Z:PROC ; CPacketListImplementation::OffsetPacketData
EXTRN	?ShiftPacket@CPacketListImplementation@@QAEHPBDJ@Z:PROC ; CPacketListImplementation::ShiftPacket
EXTRN	?GetOrgBaseTimeDifference@CPacketListImplementation@@QAEHXZ:PROC ; CPacketListImplementation::GetOrgBaseTimeDifference
EXTRN	?SetBaseTimeName@CPacketListImplementation@@QAEXV?$CStringT@DV?$StrTraitMFC_DLL@DV?$ChTraitsCRT@D@ATL@@@@@ATL@@@Z:PROC ; CPacketListImplementation::SetBaseTimeName
EXTRN	?GetBaseTimeName@CPacketListImplementation@@QAE?AV?$CStringT@DV?$StrTraitMFC_DLL@DV?$ChTraitsCRT@D@ATL@@@@@ATL@@XZ:PROC ; CPacketListImplementation::GetBaseTimeName
EXTRN	?SetBaseTimeDifference@CPacketListImplementation@@QAEXH@Z:PROC ; CPacketListImplementation::SetBaseTimeDifference
EXTRN	?GetBaseTimeDifference@CPacketListImplementation@@QAEHXZ:PROC ; CPacketListImplementation::GetBaseTimeDifference
EXTRN	?GetCalcDataTimeDifference@CPacketListImplementation@@QAEHXZ:PROC ; CPacketListImplementation::GetCalcDataTimeDifference
EXTRN	?GetCurrDateTime@CPacketListImplementation@@QBE_JXZ:PROC ; CPacketListImplementation::GetCurrDateTime
EXTRN	?GetMarketTime@CPacketListImplementation@@QBE_NAAH0@Z:PROC ; CPacketListImplementation::GetMarketTime
EXTRN	?CalcPacketTimeDiff@CPacketListImplementation@@QAEXH@Z:PROC ; CPacketListImplementation::CalcPacketTimeDiff
EXTRN	?GetMarketDayType@CPacketListImplementation@@QAE?AW4MARKETDAYTYPE@CPacketType@@XZ:PROC ; CPacketListImplementation::GetMarketDayType
EXTRN	?SetRealData@CPacketListImplementation@@QAE_NPBDNAAHH@Z:PROC ; CPacketListImplementation::SetRealData
EXTRN	?GetRealData_CloseTime@CPacketListImplementation@@QAE_NAB_JAA_J@Z:PROC ; CPacketListImplementation::GetRealData_CloseTime
EXTRN	?PushNMTRState@CPacketListImplementation@@QAEXAB_J@Z:PROC ; CPacketListImplementation::PushNMTRState
EXTRN	?PopNMTRState@CPacketListImplementation@@QAEXXZ:PROC ; CPacketListImplementation::PopNMTRState
EXTRN	?GetLastClockAndRealTime@CPacketListImplementation@@QAEHAA_J0@Z:PROC ; CPacketListImplementation::GetLastClockAndRealTime
EXTRN	?GetRealTimeType@CPacketListImplementation@@QAE?AV?$CStringT@DV?$StrTraitMFC_DLL@DV?$ChTraitsCRT@D@ATL@@@@@ATL@@XZ:PROC ; CPacketListImplementation::GetRealTimeType
EXTRN	?GetOrgDataBeforeRate@CPacketListImplementation@@QAENPBDN@Z:PROC ; CPacketListImplementation::GetOrgDataBeforeRate
EXTRN	?GetRealData_RealDateTime@CPacketListImplementation@@QAEXAAN@Z:PROC ; CPacketListImplementation::GetRealData_RealDateTime
EXTRN	?ChangeChartMode@CPacketListImplementation@@QAEXH@Z:PROC ; CPacketListImplementation::ChangeChartMode
EXTRN	@__security_check_cookie@4:PROC
EXTRN	___CxxFrameHandler3:PROC
EXTRN	??_7type_info@@6B@:QWORD			; type_info::`vftable'
EXTRN	?g_iMetaTable@@3VIMetaTable@@A:BYTE		; g_iMetaTable
EXTRN	___security_cookie:DWORD
EXTRN	__fltused:DWORD
;	COMDAT ??_R1A@?0A@EA@CPacketList@@8
rdata$r	SEGMENT
??_R1A@?0A@EA@CPacketList@@8 DD FLAT:??_R0?AVCPacketList@@@8 ; CPacketList::`RTTI Base Class Descriptor at (0,-1,0,64)'
	DD	00H
	DD	00H
	DD	0ffffffffH
	DD	00H
	DD	040H
	DD	FLAT:??_R3CPacketList@@8
rdata$r	ENDS
;	COMDAT ??_R2CPacketList@@8
rdata$r	SEGMENT
??_R2CPacketList@@8 DD FLAT:??_R1A@?0A@EA@CPacketList@@8 ; CPacketList::`RTTI Base Class Array'
rdata$r	ENDS
;	COMDAT ??_R3CPacketList@@8
rdata$r	SEGMENT
??_R3CPacketList@@8 DD 00H				; CPacketList::`RTTI Class Hierarchy Descriptor'
	DD	00H
	DD	01H
	DD	FLAT:??_R2CPacketList@@8
rdata$r	ENDS
;	COMDAT ??_R0?AVCPacketList@@@8
data$rs	SEGMENT
??_R0?AVCPacketList@@@8 DD FLAT:??_7type_info@@6B@	; CPacketList `RTTI Type Descriptor'
	DD	00H
	DB	'.?AVCPacketList@@', 00H
data$rs	ENDS
;	COMDAT ??_R4CPacketList@@6B@
rdata$r	SEGMENT
??_R4CPacketList@@6B@ DD 00H				; CPacketList::`RTTI Complete Object Locator'
	DD	00H
	DD	00H
	DD	FLAT:??_R0?AVCPacketList@@@8
	DD	FLAT:??_R3CPacketList@@8
rdata$r	ENDS
;	COMDAT ??_7CPacketList@@6B@
CONST	SEGMENT
??_7CPacketList@@6B@ DD FLAT:??_R4CPacketList@@6B@	; CPacketList::`vftable'
	DD	FLAT:??_ECPacketList@@UAEPAXI@Z
CONST	ENDS
;	COMDAT ??_C@_00CNPNBAHC@@
CONST	SEGMENT
??_C@_00CNPNBAHC@@ DB 00H				; `string'
CONST	ENDS
;	COMDAT xdata$x
xdata$x	SEGMENT
__ehfuncinfo$??_ECPacketList@@UAEPAXI@Z DD 019930522H
	DD	00H
	DD	00H
	DD	2 DUP(00H)
	DD	2 DUP(00H)
	DD	00H
	DD	05H
xdata$x	ENDS
;	COMDAT xdata$x
xdata$x	SEGMENT
__unwindtable$?SetBaseTime@CPacketList@@QAEXV?$CStringT@DV?$StrTraitMFC_DLL@DV?$ChTraitsCRT@D@ATL@@@@@ATL@@H@Z DD 0ffffffffH
	DD	FLAT:__unwindfunclet$?SetBaseTime@CPacketList@@QAEXV?$CStringT@DV?$StrTraitMFC_DLL@DV?$ChTraitsCRT@D@ATL@@@@@ATL@@H@Z$0
__ehfuncinfo$?SetBaseTime@CPacketList@@QAEXV?$CStringT@DV?$StrTraitMFC_DLL@DV?$ChTraitsCRT@D@ATL@@@@@ATL@@H@Z DD 019930522H
	DD	01H
	DD	FLAT:__unwindtable$?SetBaseTime@CPacketList@@QAEXV?$CStringT@DV?$StrTraitMFC_DLL@DV?$ChTraitsCRT@D@ATL@@@@@ATL@@H@Z
	DD	2 DUP(00H)
	DD	2 DUP(00H)
	DD	00H
	DD	01H
xdata$x	ENDS
;	COMDAT xdata$x
xdata$x	SEGMENT
__unwindtable$?OffsetPacketData@CPacketList@@QAEXNV?$CStringT@DV?$StrTraitMFC_DLL@DV?$ChTraitsCRT@D@ATL@@@@@ATL@@@Z DD 0ffffffffH
	DD	FLAT:__unwindfunclet$?OffsetPacketData@CPacketList@@QAEXNV?$CStringT@DV?$StrTraitMFC_DLL@DV?$ChTraitsCRT@D@ATL@@@@@ATL@@@Z$0
__ehfuncinfo$?OffsetPacketData@CPacketList@@QAEXNV?$CStringT@DV?$StrTraitMFC_DLL@DV?$ChTraitsCRT@D@ATL@@@@@ATL@@@Z DD 019930522H
	DD	01H
	DD	FLAT:__unwindtable$?OffsetPacketData@CPacketList@@QAEXNV?$CStringT@DV?$StrTraitMFC_DLL@DV?$ChTraitsCRT@D@ATL@@@@@ATL@@@Z
	DD	2 DUP(00H)
	DD	2 DUP(00H)
	DD	00H
	DD	01H
xdata$x	ENDS
;	COMDAT xdata$x
xdata$x	SEGMENT
__unwindtable$?SetBaseData@CPacketList@@QAEHV?$CStringT@DV?$StrTraitMFC_DLL@DV?$ChTraitsCRT@D@ATL@@@@@ATL@@HH@Z DD 0ffffffffH
	DD	FLAT:__unwindfunclet$?SetBaseData@CPacketList@@QAEHV?$CStringT@DV?$StrTraitMFC_DLL@DV?$ChTraitsCRT@D@ATL@@@@@ATL@@HH@Z$0
__ehfuncinfo$?SetBaseData@CPacketList@@QAEHV?$CStringT@DV?$StrTraitMFC_DLL@DV?$ChTraitsCRT@D@ATL@@@@@ATL@@HH@Z DD 019930522H
	DD	01H
	DD	FLAT:__unwindtable$?SetBaseData@CPacketList@@QAEHV?$CStringT@DV?$StrTraitMFC_DLL@DV?$ChTraitsCRT@D@ATL@@@@@ATL@@HH@Z
	DD	2 DUP(00H)
	DD	2 DUP(00H)
	DD	00H
	DD	01H
xdata$x	ENDS
;	COMDAT xdata$x
xdata$x	SEGMENT
__unwindtable$?GetBaseData@CPacketList@@QAEPAVCPacket@@V?$CStringT@DV?$StrTraitMFC_DLL@DV?$ChTraitsCRT@D@ATL@@@@@ATL@@_N@Z DD 0ffffffffH
	DD	FLAT:__unwindfunclet$?GetBaseData@CPacketList@@QAEPAVCPacket@@V?$CStringT@DV?$StrTraitMFC_DLL@DV?$ChTraitsCRT@D@ATL@@@@@ATL@@_N@Z$0
__ehfuncinfo$?GetBaseData@CPacketList@@QAEPAVCPacket@@V?$CStringT@DV?$StrTraitMFC_DLL@DV?$ChTraitsCRT@D@ATL@@@@@ATL@@_N@Z DD 019930522H
	DD	01H
	DD	FLAT:__unwindtable$?GetBaseData@CPacketList@@QAEPAVCPacket@@V?$CStringT@DV?$StrTraitMFC_DLL@DV?$ChTraitsCRT@D@ATL@@@@@ATL@@_N@Z
	DD	2 DUP(00H)
	DD	2 DUP(00H)
	DD	00H
	DD	01H
xdata$x	ENDS
;	COMDAT xdata$x
xdata$x	SEGMENT
__unwindtable$?FindKey@CPacketList@@QAE_NV?$CStringT@DV?$StrTraitMFC_DLL@DV?$ChTraitsCRT@D@ATL@@@@@ATL@@@Z DD 0ffffffffH
	DD	FLAT:__unwindfunclet$?FindKey@CPacketList@@QAE_NV?$CStringT@DV?$StrTraitMFC_DLL@DV?$ChTraitsCRT@D@ATL@@@@@ATL@@@Z$0
__ehfuncinfo$?FindKey@CPacketList@@QAE_NV?$CStringT@DV?$StrTraitMFC_DLL@DV?$ChTraitsCRT@D@ATL@@@@@ATL@@@Z DD 019930522H
	DD	01H
	DD	FLAT:__unwindtable$?FindKey@CPacketList@@QAE_NV?$CStringT@DV?$StrTraitMFC_DLL@DV?$ChTraitsCRT@D@ATL@@@@@ATL@@@Z
	DD	2 DUP(00H)
	DD	2 DUP(00H)
	DD	00H
	DD	01H
xdata$x	ENDS
;	COMDAT xdata$x
xdata$x	SEGMENT
__unwindtable$?GetDataFromIndex@CPacketList@@QAENV?$CStringT@DV?$StrTraitMFC_DLL@DV?$ChTraitsCRT@D@ATL@@@@@ATL@@H@Z DD 0ffffffffH
	DD	FLAT:__unwindfunclet$?GetDataFromIndex@CPacketList@@QAENV?$CStringT@DV?$StrTraitMFC_DLL@DV?$ChTraitsCRT@D@ATL@@@@@ATL@@H@Z$0
__ehfuncinfo$?GetDataFromIndex@CPacketList@@QAENV?$CStringT@DV?$StrTraitMFC_DLL@DV?$ChTraitsCRT@D@ATL@@@@@ATL@@H@Z DD 019930522H
	DD	01H
	DD	FLAT:__unwindtable$?GetDataFromIndex@CPacketList@@QAENV?$CStringT@DV?$StrTraitMFC_DLL@DV?$ChTraitsCRT@D@ATL@@@@@ATL@@H@Z
	DD	2 DUP(00H)
	DD	2 DUP(00H)
	DD	00H
	DD	01H
xdata$x	ENDS
;	COMDAT xdata$x
xdata$x	SEGMENT
__unwindtable$?GetStrDataFromIndex@CPacketList@@QAE?AV?$CStringT@DV?$StrTraitMFC_DLL@DV?$ChTraitsCRT@D@ATL@@@@@ATL@@V23@H@Z DD 0ffffffffH
	DD	FLAT:__unwindfunclet$?GetStrDataFromIndex@CPacketList@@QAE?AV?$CStringT@DV?$StrTraitMFC_DLL@DV?$ChTraitsCRT@D@ATL@@@@@ATL@@V23@H@Z$0
__ehfuncinfo$?GetStrDataFromIndex@CPacketList@@QAE?AV?$CStringT@DV?$StrTraitMFC_DLL@DV?$ChTraitsCRT@D@ATL@@@@@ATL@@V23@H@Z DD 019930522H
	DD	01H
	DD	FLAT:__unwindtable$?GetStrDataFromIndex@CPacketList@@QAE?AV?$CStringT@DV?$StrTraitMFC_DLL@DV?$ChTraitsCRT@D@ATL@@@@@ATL@@V23@H@Z
	DD	2 DUP(00H)
	DD	2 DUP(00H)
	DD	00H
	DD	01H
xdata$x	ENDS
;	COMDAT xdata$x
xdata$x	SEGMENT
__unwindtable$?GetPacketType@CPacketList@@QAE?AV?$CStringT@DV?$StrTraitMFC_DLL@DV?$ChTraitsCRT@D@ATL@@@@@ATL@@V23@_N@Z DD 0ffffffffH
	DD	FLAT:__unwindfunclet$?GetPacketType@CPacketList@@QAE?AV?$CStringT@DV?$StrTraitMFC_DLL@DV?$ChTraitsCRT@D@ATL@@@@@ATL@@V23@_N@Z$0
__ehfuncinfo$?GetPacketType@CPacketList@@QAE?AV?$CStringT@DV?$StrTraitMFC_DLL@DV?$ChTraitsCRT@D@ATL@@@@@ATL@@V23@_N@Z DD 019930522H
	DD	01H
	DD	FLAT:__unwindtable$?GetPacketType@CPacketList@@QAE?AV?$CStringT@DV?$StrTraitMFC_DLL@DV?$ChTraitsCRT@D@ATL@@@@@ATL@@V23@_N@Z
	DD	2 DUP(00H)
	DD	2 DUP(00H)
	DD	00H
	DD	01H
xdata$x	ENDS
;	COMDAT xdata$x
xdata$x	SEGMENT
__unwindtable$?GetMinMax@CPacketList@@QAEHHHV?$CStringT@DV?$StrTraitMFC_DLL@DV?$ChTraitsCRT@D@ATL@@@@@ATL@@AAN1@Z DD 0ffffffffH
	DD	FLAT:__unwindfunclet$?GetMinMax@CPacketList@@QAEHHHV?$CStringT@DV?$StrTraitMFC_DLL@DV?$ChTraitsCRT@D@ATL@@@@@ATL@@AAN1@Z$0
__ehfuncinfo$?GetMinMax@CPacketList@@QAEHHHV?$CStringT@DV?$StrTraitMFC_DLL@DV?$ChTraitsCRT@D@ATL@@@@@ATL@@AAN1@Z DD 019930522H
	DD	01H
	DD	FLAT:__unwindtable$?GetMinMax@CPacketList@@QAEHHHV?$CStringT@DV?$StrTraitMFC_DLL@DV?$ChTraitsCRT@D@ATL@@@@@ATL@@AAN1@Z
	DD	2 DUP(00H)
	DD	2 DUP(00H)
	DD	00H
	DD	01H
xdata$x	ENDS
;	COMDAT xdata$x
xdata$x	SEGMENT
__unwindtable$?GetMaxCount@CPacketList@@QAEHV?$CStringT@DV?$StrTraitMFC_DLL@DV?$ChTraitsCRT@D@ATL@@@@@ATL@@ABV23@@Z DD 0ffffffffH
	DD	FLAT:__unwindfunclet$?GetMaxCount@CPacketList@@QAEHV?$CStringT@DV?$StrTraitMFC_DLL@DV?$ChTraitsCRT@D@ATL@@@@@ATL@@ABV23@@Z$0
__ehfuncinfo$?GetMaxCount@CPacketList@@QAEHV?$CStringT@DV?$StrTraitMFC_DLL@DV?$ChTraitsCRT@D@ATL@@@@@ATL@@ABV23@@Z DD 019930522H
	DD	01H
	DD	FLAT:__unwindtable$?GetMaxCount@CPacketList@@QAEHV?$CStringT@DV?$StrTraitMFC_DLL@DV?$ChTraitsCRT@D@ATL@@@@@ATL@@ABV23@@Z
	DD	2 DUP(00H)
	DD	2 DUP(00H)
	DD	00H
	DD	01H
xdata$x	ENDS
;	COMDAT xdata$x
xdata$x	SEGMENT
__unwindtable$?GetCount@CPacketList@@QAEHV?$CStringT@DV?$StrTraitMFC_DLL@DV?$ChTraitsCRT@D@ATL@@@@@ATL@@@Z DD 0ffffffffH
	DD	FLAT:__unwindfunclet$?GetCount@CPacketList@@QAEHV?$CStringT@DV?$StrTraitMFC_DLL@DV?$ChTraitsCRT@D@ATL@@@@@ATL@@@Z$0
__ehfuncinfo$?GetCount@CPacketList@@QAEHV?$CStringT@DV?$StrTraitMFC_DLL@DV?$ChTraitsCRT@D@ATL@@@@@ATL@@@Z DD 019930522H
	DD	01H
	DD	FLAT:__unwindtable$?GetCount@CPacketList@@QAEHV?$CStringT@DV?$StrTraitMFC_DLL@DV?$ChTraitsCRT@D@ATL@@@@@ATL@@@Z
	DD	2 DUP(00H)
	DD	2 DUP(00H)
	DD	00H
	DD	01H
xdata$x	ENDS
;	COMDAT xdata$x
xdata$x	SEGMENT
__unwindtable$?RemovePacket@CPacketList@@QAE_NV?$CStringT@DV?$StrTraitMFC_DLL@DV?$ChTraitsCRT@D@ATL@@@@@ATL@@@Z DD 0ffffffffH
	DD	FLAT:__unwindfunclet$?RemovePacket@CPacketList@@QAE_NV?$CStringT@DV?$StrTraitMFC_DLL@DV?$ChTraitsCRT@D@ATL@@@@@ATL@@@Z$0
__ehfuncinfo$?RemovePacket@CPacketList@@QAE_NV?$CStringT@DV?$StrTraitMFC_DLL@DV?$ChTraitsCRT@D@ATL@@@@@ATL@@@Z DD 019930522H
	DD	01H
	DD	FLAT:__unwindtable$?RemovePacket@CPacketList@@QAE_NV?$CStringT@DV?$StrTraitMFC_DLL@DV?$ChTraitsCRT@D@ATL@@@@@ATL@@@Z
	DD	2 DUP(00H)
	DD	2 DUP(00H)
	DD	00H
	DD	01H
xdata$x	ENDS
;	COMDAT xdata$x
xdata$x	SEGMENT
__unwindtable$?AddPacket@CPacketList@@QAEXV?$CStringT@DV?$StrTraitMFC_DLL@DV?$ChTraitsCRT@D@ATL@@@@@ATL@@@Z DD 0ffffffffH
	DD	FLAT:__unwindfunclet$?AddPacket@CPacketList@@QAEXV?$CStringT@DV?$StrTraitMFC_DLL@DV?$ChTraitsCRT@D@ATL@@@@@ATL@@@Z$0
__ehfuncinfo$?AddPacket@CPacketList@@QAEXV?$CStringT@DV?$StrTraitMFC_DLL@DV?$ChTraitsCRT@D@ATL@@@@@ATL@@@Z DD 019930522H
	DD	01H
	DD	FLAT:__unwindtable$?AddPacket@CPacketList@@QAEXV?$CStringT@DV?$StrTraitMFC_DLL@DV?$ChTraitsCRT@D@ATL@@@@@ATL@@@Z
	DD	2 DUP(00H)
	DD	2 DUP(00H)
	DD	00H
	DD	01H
xdata$x	ENDS
;	COMDAT xdata$x
xdata$x	SEGMENT
__unwindtable$?SetData@CPacketList@@QAE_NV?$CStringT@DV?$StrTraitMFC_DLL@DV?$ChTraitsCRT@D@ATL@@@@@ATL@@HN_N@Z DD 0ffffffffH
	DD	FLAT:__unwindfunclet$?SetData@CPacketList@@QAE_NV?$CStringT@DV?$StrTraitMFC_DLL@DV?$ChTraitsCRT@D@ATL@@@@@ATL@@HN_N@Z$0
__ehfuncinfo$?SetData@CPacketList@@QAE_NV?$CStringT@DV?$StrTraitMFC_DLL@DV?$ChTraitsCRT@D@ATL@@@@@ATL@@HN_N@Z DD 019930522H
	DD	01H
	DD	FLAT:__unwindtable$?SetData@CPacketList@@QAE_NV?$CStringT@DV?$StrTraitMFC_DLL@DV?$ChTraitsCRT@D@ATL@@@@@ATL@@HN_N@Z
	DD	2 DUP(00H)
	DD	2 DUP(00H)
	DD	00H
	DD	01H
xdata$x	ENDS
;	COMDAT xdata$x
xdata$x	SEGMENT
__unwindtable$??0CPacketList@@QAE@V?$CStringT@DV?$StrTraitMFC_DLL@DV?$ChTraitsCRT@D@ATL@@@@@ATL@@W4REALTYPE@CPacketType@@PAUIChartCtrl@@@Z DD 0ffffffffH
	DD	FLAT:__unwindfunclet$??0CPacketList@@QAE@V?$CStringT@DV?$StrTraitMFC_DLL@DV?$ChTraitsCRT@D@ATL@@@@@ATL@@W4REALTYPE@CPacketType@@PAUIChartCtrl@@@Z$0
	DD	00H
	DD	FLAT:__unwindfunclet$??0CPacketList@@QAE@V?$CStringT@DV?$StrTraitMFC_DLL@DV?$ChTraitsCRT@D@ATL@@@@@ATL@@W4REALTYPE@CPacketType@@PAUIChartCtrl@@@Z$1
__ehfuncinfo$??0CPacketList@@QAE@V?$CStringT@DV?$StrTraitMFC_DLL@DV?$ChTraitsCRT@D@ATL@@@@@ATL@@W4REALTYPE@CPacketType@@PAUIChartCtrl@@@Z DD 019930522H
	DD	02H
	DD	FLAT:__unwindtable$??0CPacketList@@QAE@V?$CStringT@DV?$StrTraitMFC_DLL@DV?$ChTraitsCRT@D@ATL@@@@@ATL@@W4REALTYPE@CPacketType@@PAUIChartCtrl@@@Z
	DD	2 DUP(00H)
	DD	2 DUP(00H)
	DD	00H
	DD	01H
xdata$x	ENDS
;	COMDAT xdata$x
xdata$x	SEGMENT
__unwindtable$??0CPacketList@@QAE@W4REALTYPE@CPacketType@@PAUIChartCtrl@@@Z DD 0ffffffffH
	DD	FLAT:__unwindfunclet$??0CPacketList@@QAE@W4REALTYPE@CPacketType@@PAUIChartCtrl@@@Z$0
__ehfuncinfo$??0CPacketList@@QAE@W4REALTYPE@CPacketType@@PAUIChartCtrl@@@Z DD 019930522H
	DD	01H
	DD	FLAT:__unwindtable$??0CPacketList@@QAE@W4REALTYPE@CPacketType@@PAUIChartCtrl@@@Z
	DD	2 DUP(00H)
	DD	2 DUP(00H)
	DD	00H
	DD	01H
xdata$x	ENDS
; Function compile flags: /Ogtp
; File D:\git\src\IBK\IBK_DRFN\ProjSrc\SrcChartEx\ChartOCX\PacketData\PacketList.cpp
;	COMDAT ??_ECPacketList@@UAEPAXI@Z
_TEXT	SEGMENT
__$EHRec$ = -12						; size = 12
___flags$ = 8						; size = 4
??_ECPacketList@@UAEPAXI@Z PROC				; CPacketList::`vector deleting destructor', COMDAT
; _this$ = ecx
  00000	55		 push	 ebp
  00001	8b ec		 mov	 ebp, esp
  00003	6a ff		 push	 -1
  00005	68 00 00 00 00	 push	 __ehhandler$??_ECPacketList@@UAEPAXI@Z
  0000a	64 a1 00 00 00
	00		 mov	 eax, DWORD PTR fs:0
  00010	50		 push	 eax
  00011	53		 push	 ebx
  00012	56		 push	 esi
  00013	57		 push	 edi
  00014	a1 00 00 00 00	 mov	 eax, DWORD PTR ___security_cookie
  00019	33 c5		 xor	 eax, ebp
  0001b	50		 push	 eax
  0001c	8d 45 f4	 lea	 eax, DWORD PTR __$EHRec$[ebp]
  0001f	64 a3 00 00 00
	00		 mov	 DWORD PTR fs:0, eax
  00025	8b f1		 mov	 esi, ecx
  00027	8b 5d 08	 mov	 ebx, DWORD PTR ___flags$[ebp]
  0002a	f6 c3 02	 test	 bl, 2
  0002d	74 41		 je	 SHORT $LN2@vector
  0002f	68 00 00 00 00	 push	 OFFSET ??1CPacketList@@UAE@XZ ; CPacketList::~CPacketList
  00034	ff 76 fc	 push	 DWORD PTR [esi-4]
  00037	8d 7e fc	 lea	 edi, DWORD PTR [esi-4]
  0003a	6a 08		 push	 8
  0003c	56		 push	 esi
  0003d	e8 00 00 00 00	 call	 ??_M@YGXPAXIIP6EX0@Z@Z
  00042	f6 c3 01	 test	 bl, 1
  00045	74 13		 je	 SHORT $LN3@vector
  00047	8b 0f		 mov	 ecx, DWORD PTR [edi]
  00049	8d 0c cd 04 00
	00 00		 lea	 ecx, DWORD PTR [ecx*8+4]
  00050	51		 push	 ecx
  00051	57		 push	 edi
  00052	e8 00 00 00 00	 call	 ??_V@YAXPAXI@Z		; operator delete[]
  00057	83 c4 08	 add	 esp, 8
$LN3@vector:
  0005a	8b c7		 mov	 eax, edi
  0005c	8b 4d f4	 mov	 ecx, DWORD PTR __$EHRec$[ebp]
  0005f	64 89 0d 00 00
	00 00		 mov	 DWORD PTR fs:0, ecx
  00066	59		 pop	 ecx
  00067	5f		 pop	 edi
  00068	5e		 pop	 esi
  00069	5b		 pop	 ebx
  0006a	8b e5		 mov	 esp, ebp
  0006c	5d		 pop	 ebp
  0006d	c2 04 00	 ret	 4
$LN2@vector:

; 44   : 	if(m_pPacketListImple)

  00070	8b 4e 04	 mov	 ecx, DWORD PTR [esi+4]
  00073	c7 06 00 00 00
	00		 mov	 DWORD PTR [esi], OFFSET ??_7CPacketList@@6B@
  00079	85 c9		 test	 ecx, ecx
  0007b	74 06		 je	 SHORT $LN9@vector

; 45   : 		delete m_pPacketListImple;

  0007d	8b 01		 mov	 eax, DWORD PTR [ecx]
  0007f	6a 01		 push	 1
  00081	ff 10		 call	 DWORD PTR [eax]
$LN9@vector:
  00083	f6 c3 01	 test	 bl, 1
  00086	74 0b		 je	 SHORT $LN4@vector
  00088	6a 08		 push	 8
  0008a	56		 push	 esi
  0008b	e8 00 00 00 00	 call	 ??3@YAXPAXI@Z		; operator delete
  00090	83 c4 08	 add	 esp, 8
$LN4@vector:
  00093	8b c6		 mov	 eax, esi
  00095	8b 4d f4	 mov	 ecx, DWORD PTR __$EHRec$[ebp]
  00098	64 89 0d 00 00
	00 00		 mov	 DWORD PTR fs:0, ecx
  0009f	59		 pop	 ecx
  000a0	5f		 pop	 edi
  000a1	5e		 pop	 esi
  000a2	5b		 pop	 ebx
  000a3	8b e5		 mov	 esp, ebp
  000a5	5d		 pop	 ebp
  000a6	c2 04 00	 ret	 4
  000a9	cc		 int	 3
  000aa	cc		 int	 3
  000ab	cc		 int	 3
  000ac	cc		 int	 3
  000ad	cc		 int	 3
_TEXT	ENDS
;	COMDAT text$x
text$x	SEGMENT
__ehhandler$??_ECPacketList@@UAEPAXI@Z:
  00000	90		 npad	 1
  00001	90		 npad	 1
  00002	8b 54 24 08	 mov	 edx, DWORD PTR [esp+8]
  00006	8d 42 0c	 lea	 eax, DWORD PTR [edx+12]
  00009	8b 4a f0	 mov	 ecx, DWORD PTR [edx-16]
  0000c	33 c8		 xor	 ecx, eax
  0000e	e8 00 00 00 00	 call	 @__security_check_cookie@4
  00013	b8 00 00 00 00	 mov	 eax, OFFSET __ehfuncinfo$??_ECPacketList@@UAEPAXI@Z
  00018	e9 00 00 00 00	 jmp	 ___CxxFrameHandler3
text$x	ENDS
??_ECPacketList@@UAEPAXI@Z ENDP				; CPacketList::`vector deleting destructor'
; Function compile flags: /Ogtp
; File D:\git\src\IBK\IBK_DRFN\ProjSrc\SrcChartEx\ChartOCX\PacketData\PacketList.cpp
;	COMDAT ??_GCPacketList@@UAEPAXI@Z
_TEXT	SEGMENT
___flags$ = 8						; size = 4
??_GCPacketList@@UAEPAXI@Z PROC				; CPacketList::`scalar deleting destructor', COMDAT
; _this$ = ecx
  00000	55		 push	 ebp
  00001	8b ec		 mov	 ebp, esp

; 43   : {

  00003	56		 push	 esi
  00004	8b f1		 mov	 esi, ecx

; 44   : 	if(m_pPacketListImple)

  00006	8b 4e 04	 mov	 ecx, DWORD PTR [esi+4]
  00009	c7 06 00 00 00
	00		 mov	 DWORD PTR [esi], OFFSET ??_7CPacketList@@6B@
  0000f	85 c9		 test	 ecx, ecx
  00011	74 06		 je	 SHORT $LN7@scalar

; 45   : 		delete m_pPacketListImple;

  00013	8b 01		 mov	 eax, DWORD PTR [ecx]
  00015	6a 01		 push	 1
  00017	ff 10		 call	 DWORD PTR [eax]
$LN7@scalar:
  00019	f6 45 08 01	 test	 BYTE PTR ___flags$[ebp], 1
  0001d	74 0b		 je	 SHORT $LN9@scalar
  0001f	6a 08		 push	 8
  00021	56		 push	 esi
  00022	e8 00 00 00 00	 call	 ??3@YAXPAXI@Z		; operator delete
  00027	83 c4 08	 add	 esp, 8
$LN9@scalar:
  0002a	8b c6		 mov	 eax, esi
  0002c	5e		 pop	 esi
  0002d	5d		 pop	 ebp
  0002e	c2 04 00	 ret	 4
??_GCPacketList@@UAEPAXI@Z ENDP				; CPacketList::`scalar deleting destructor'
_TEXT	ENDS
; Function compile flags: /Ogtp
;	COMDAT ??4CPacketList@@QAEAAV0@ABV0@@Z
_TEXT	SEGMENT
___that$ = 8						; size = 4
??4CPacketList@@QAEAAV0@ABV0@@Z PROC			; CPacketList::operator=, COMDAT
; _this$ = ecx
  00000	55		 push	 ebp
  00001	8b ec		 mov	 ebp, esp
  00003	8b 45 08	 mov	 eax, DWORD PTR ___that$[ebp]
  00006	8b 40 04	 mov	 eax, DWORD PTR [eax+4]
  00009	89 41 04	 mov	 DWORD PTR [ecx+4], eax
  0000c	8b c1		 mov	 eax, ecx
  0000e	5d		 pop	 ebp
  0000f	c2 04 00	 ret	 4
??4CPacketList@@QAEAAV0@ABV0@@Z ENDP			; CPacketList::operator=
_TEXT	ENDS
; Function compile flags: /Ogtp
;	COMDAT ??0CPacketList@@QAE@ABV0@@Z
_TEXT	SEGMENT
___that$ = 8						; size = 4
??0CPacketList@@QAE@ABV0@@Z PROC			; CPacketList::CPacketList, COMDAT
; _this$ = ecx
  00000	55		 push	 ebp
  00001	8b ec		 mov	 ebp, esp
  00003	8b 45 08	 mov	 eax, DWORD PTR ___that$[ebp]
  00006	c7 01 00 00 00
	00		 mov	 DWORD PTR [ecx], OFFSET ??_7CPacketList@@6B@
  0000c	8b 40 04	 mov	 eax, DWORD PTR [eax+4]
  0000f	89 41 04	 mov	 DWORD PTR [ecx+4], eax
  00012	8b c1		 mov	 eax, ecx
  00014	5d		 pop	 ebp
  00015	c2 04 00	 ret	 4
??0CPacketList@@QAE@ABV0@@Z ENDP			; CPacketList::CPacketList
_TEXT	ENDS
; Function compile flags: /Ogtp
; File D:\git\src\IBK\IBK_DRFN\ProjSrc\SrcChartEx\ChartOCX\PacketData\PacketList.cpp
;	COMDAT ?ChangeChartMode@CPacketList@@QAEXH@Z
_TEXT	SEGMENT
_p_nChartMode$ = 8					; size = 4
?ChangeChartMode@CPacketList@@QAEXH@Z PROC		; CPacketList::ChangeChartMode, COMDAT
; _this$ = ecx

; 601  : {

  00000	55		 push	 ebp
  00001	8b ec		 mov	 ebp, esp

; 602  : 	m_pPacketListImple->ChangeChartMode( p_nChartMode);

  00003	8b 49 04	 mov	 ecx, DWORD PTR [ecx+4]

; 603  : }

  00006	5d		 pop	 ebp

; 602  : 	m_pPacketListImple->ChangeChartMode( p_nChartMode);

  00007	e9 00 00 00 00	 jmp	 ?ChangeChartMode@CPacketListImplementation@@QAEXH@Z ; CPacketListImplementation::ChangeChartMode
?ChangeChartMode@CPacketList@@QAEXH@Z ENDP		; CPacketList::ChangeChartMode
_TEXT	ENDS
; Function compile flags: /Ogtp
; File D:\git\src\IBK\IBK_DRFN\ProjSrc\SrcChartEx\ChartOCX\PacketData\PacketList.cpp
;	COMDAT ?GetRealData_RealDateTime@CPacketList@@QAEXAAN@Z
_TEXT	SEGMENT
_p_dData$ = 8						; size = 4
?GetRealData_RealDateTime@CPacketList@@QAEXAAN@Z PROC	; CPacketList::GetRealData_RealDateTime, COMDAT
; _this$ = ecx

; 594  : {

  00000	55		 push	 ebp
  00001	8b ec		 mov	 ebp, esp

; 595  : 	m_pPacketListImple->GetRealData_RealDateTime( p_dData);

  00003	8b 49 04	 mov	 ecx, DWORD PTR [ecx+4]

; 596  : }

  00006	5d		 pop	 ebp

; 595  : 	m_pPacketListImple->GetRealData_RealDateTime( p_dData);

  00007	e9 00 00 00 00	 jmp	 ?GetRealData_RealDateTime@CPacketListImplementation@@QAEXAAN@Z ; CPacketListImplementation::GetRealData_RealDateTime
?GetRealData_RealDateTime@CPacketList@@QAEXAAN@Z ENDP	; CPacketList::GetRealData_RealDateTime
_TEXT	ENDS
; Function compile flags: /Ogtp
; File D:\git\src\IBK\IBK_DRFN\ProjSrc\SrcChartEx\ChartOCX\PacketData\PacketList.cpp
;	COMDAT ?GetOrgDataBeforeRate@CPacketList@@QAENPBDN@Z
_TEXT	SEGMENT
_p_szPacketName$ = 8					; size = 4
_p_dRatedData$ = 12					; size = 8
?GetOrgDataBeforeRate@CPacketList@@QAENPBDN@Z PROC	; CPacketList::GetOrgDataBeforeRate, COMDAT
; _this$ = ecx

; 587  : {

  00000	55		 push	 ebp
  00001	8b ec		 mov	 ebp, esp

; 588  : 	return m_pPacketListImple->GetOrgDataBeforeRate( p_szPacketName, p_dRatedData);

  00003	f2 0f 10 45 0c	 movsd	 xmm0, QWORD PTR _p_dRatedData$[ebp]
  00008	83 ec 08	 sub	 esp, 8
  0000b	8b 49 04	 mov	 ecx, DWORD PTR [ecx+4]
  0000e	f2 0f 11 04 24	 movsd	 QWORD PTR [esp], xmm0
  00013	ff 75 08	 push	 DWORD PTR _p_szPacketName$[ebp]
  00016	e8 00 00 00 00	 call	 ?GetOrgDataBeforeRate@CPacketListImplementation@@QAENPBDN@Z ; CPacketListImplementation::GetOrgDataBeforeRate

; 589  : }

  0001b	5d		 pop	 ebp
  0001c	c2 0c 00	 ret	 12			; 0000000cH
?GetOrgDataBeforeRate@CPacketList@@QAENPBDN@Z ENDP	; CPacketList::GetOrgDataBeforeRate
_TEXT	ENDS
; Function compile flags: /Ogtp
; File D:\git\src\IBK\IBK_DRFN\ProjSrc\SrcChartEx\ChartOCX\PacketData\PacketList.cpp
;	COMDAT ?GetRealTimeType@CPacketList@@QAE?AV?$CStringT@DV?$StrTraitMFC_DLL@DV?$ChTraitsCRT@D@ATL@@@@@ATL@@XZ
_TEXT	SEGMENT
___$ReturnUdt$ = 8					; size = 4
?GetRealTimeType@CPacketList@@QAE?AV?$CStringT@DV?$StrTraitMFC_DLL@DV?$ChTraitsCRT@D@ATL@@@@@ATL@@XZ PROC ; CPacketList::GetRealTimeType, COMDAT
; _this$ = ecx

; 581  : {

  00000	55		 push	 ebp
  00001	8b ec		 mov	 ebp, esp

; 582  : 	return m_pPacketListImple->GetRealTimeType();

  00003	ff 75 08	 push	 DWORD PTR ___$ReturnUdt$[ebp]
  00006	8b 49 04	 mov	 ecx, DWORD PTR [ecx+4]
  00009	e8 00 00 00 00	 call	 ?GetRealTimeType@CPacketListImplementation@@QAE?AV?$CStringT@DV?$StrTraitMFC_DLL@DV?$ChTraitsCRT@D@ATL@@@@@ATL@@XZ ; CPacketListImplementation::GetRealTimeType
  0000e	8b 45 08	 mov	 eax, DWORD PTR ___$ReturnUdt$[ebp]

; 583  : }

  00011	5d		 pop	 ebp
  00012	c2 04 00	 ret	 4
?GetRealTimeType@CPacketList@@QAE?AV?$CStringT@DV?$StrTraitMFC_DLL@DV?$ChTraitsCRT@D@ATL@@@@@ATL@@XZ ENDP ; CPacketList::GetRealTimeType
_TEXT	ENDS
; Function compile flags: /Ogtp
; File D:\git\src\IBK\IBK_DRFN\ProjSrc\SrcChartEx\ChartOCX\PacketData\PacketList.cpp
;	COMDAT ?GetLastClockAndRealTime@CPacketList@@QAEHAA_J0@Z
_TEXT	SEGMENT
_p_nLastClockTime$ = 8					; size = 4
_p_nLastRealTime$ = 12					; size = 4
?GetLastClockAndRealTime@CPacketList@@QAEHAA_J0@Z PROC	; CPacketList::GetLastClockAndRealTime, COMDAT
; _this$ = ecx

; 575  : {

  00000	55		 push	 ebp
  00001	8b ec		 mov	 ebp, esp

; 576  : 	return m_pPacketListImple->GetLastClockAndRealTime( p_nLastClockTime, p_nLastRealTime);

  00003	8b 49 04	 mov	 ecx, DWORD PTR [ecx+4]

; 577  : }

  00006	5d		 pop	 ebp

; 576  : 	return m_pPacketListImple->GetLastClockAndRealTime( p_nLastClockTime, p_nLastRealTime);

  00007	e9 00 00 00 00	 jmp	 ?GetLastClockAndRealTime@CPacketListImplementation@@QAEHAA_J0@Z ; CPacketListImplementation::GetLastClockAndRealTime
?GetLastClockAndRealTime@CPacketList@@QAEHAA_J0@Z ENDP	; CPacketList::GetLastClockAndRealTime
_TEXT	ENDS
; Function compile flags: /Ogtp
; File D:\git\src\IBK\IBK_DRFN\ProjSrc\SrcChartEx\ChartOCX\PacketData\PacketList.cpp
;	COMDAT ?PopNMTRState@CPacketList@@QAEXXZ
_TEXT	SEGMENT
?PopNMTRState@CPacketList@@QAEXXZ PROC			; CPacketList::PopNMTRState, COMDAT
; _this$ = ecx

; 571  : 	m_pPacketListImple->PopNMTRState();

  00000	8b 49 04	 mov	 ecx, DWORD PTR [ecx+4]
  00003	e9 00 00 00 00	 jmp	 ?PopNMTRState@CPacketListImplementation@@QAEXXZ ; CPacketListImplementation::PopNMTRState
?PopNMTRState@CPacketList@@QAEXXZ ENDP			; CPacketList::PopNMTRState
_TEXT	ENDS
; Function compile flags: /Ogtp
; File D:\git\src\IBK\IBK_DRFN\ProjSrc\SrcChartEx\ChartOCX\PacketData\PacketList.cpp
;	COMDAT ?PushNMTRState@CPacketList@@QAEXAB_J@Z
_TEXT	SEGMENT
_p_nRealDataTime$ = 8					; size = 4
?PushNMTRState@CPacketList@@QAEXAB_J@Z PROC		; CPacketList::PushNMTRState, COMDAT
; _this$ = ecx

; 566  : {

  00000	55		 push	 ebp
  00001	8b ec		 mov	 ebp, esp

; 567  : 	m_pPacketListImple->PushNMTRState( p_nRealDataTime);

  00003	8b 49 04	 mov	 ecx, DWORD PTR [ecx+4]

; 568  : }

  00006	5d		 pop	 ebp

; 567  : 	m_pPacketListImple->PushNMTRState( p_nRealDataTime);

  00007	e9 00 00 00 00	 jmp	 ?PushNMTRState@CPacketListImplementation@@QAEXAB_J@Z ; CPacketListImplementation::PushNMTRState
?PushNMTRState@CPacketList@@QAEXAB_J@Z ENDP		; CPacketList::PushNMTRState
_TEXT	ENDS
; Function compile flags: /Ogtp
; File D:\git\src\IBK\IBK_DRFN\ProjSrc\SrcChartEx\ChartOCX\PacketData\PacketList.cpp
;	COMDAT ?GetRealData_CloseTime@CPacketList@@QAE_NAB_JAA_J@Z
_TEXT	SEGMENT
_p_nClock$ = 8						; size = 4
_p_nRealDataTime$ = 12					; size = 4
?GetRealData_CloseTime@CPacketList@@QAE_NAB_JAA_J@Z PROC ; CPacketList::GetRealData_CloseTime, COMDAT
; _this$ = ecx

; 562  : {

  00000	55		 push	 ebp
  00001	8b ec		 mov	 ebp, esp

; 563  : 	return m_pPacketListImple->GetRealData_CloseTime( p_nClock, p_nRealDataTime);

  00003	8b 49 04	 mov	 ecx, DWORD PTR [ecx+4]

; 564  : }

  00006	5d		 pop	 ebp

; 563  : 	return m_pPacketListImple->GetRealData_CloseTime( p_nClock, p_nRealDataTime);

  00007	e9 00 00 00 00	 jmp	 ?GetRealData_CloseTime@CPacketListImplementation@@QAE_NAB_JAA_J@Z ; CPacketListImplementation::GetRealData_CloseTime
?GetRealData_CloseTime@CPacketList@@QAE_NAB_JAA_J@Z ENDP ; CPacketList::GetRealData_CloseTime
_TEXT	ENDS
; Function compile flags: /Ogtp
; File D:\git\src\IBK\IBK_DRFN\ProjSrc\SrcChartEx\ChartOCX\PacketData\PacketList.cpp
;	COMDAT ?SetRealData@CPacketList@@QAE_NPBDNAAHH@Z
_TEXT	SEGMENT
_p_szPacketName$ = 8					; size = 4
_dData$ = 12						; size = 8
_p_nRemovePacketDataCount$ = 20				; size = 4
_nOption$ = 24						; size = 4
?SetRealData@CPacketList@@QAE_NPBDNAAHH@Z PROC		; CPacketList::SetRealData, COMDAT
; _this$ = ecx

; 558  : {

  00000	55		 push	 ebp
  00001	8b ec		 mov	 ebp, esp

; 559  : 	return m_pPacketListImple->SetRealData( p_szPacketName, dData, p_nRemovePacketDataCount, nOption);

  00003	ff 75 18	 push	 DWORD PTR _nOption$[ebp]
  00006	f2 0f 10 45 0c	 movsd	 xmm0, QWORD PTR _dData$[ebp]
  0000b	ff 75 14	 push	 DWORD PTR _p_nRemovePacketDataCount$[ebp]
  0000e	8b 49 04	 mov	 ecx, DWORD PTR [ecx+4]
  00011	83 ec 08	 sub	 esp, 8
  00014	f2 0f 11 04 24	 movsd	 QWORD PTR [esp], xmm0
  00019	ff 75 08	 push	 DWORD PTR _p_szPacketName$[ebp]
  0001c	e8 00 00 00 00	 call	 ?SetRealData@CPacketListImplementation@@QAE_NPBDNAAHH@Z ; CPacketListImplementation::SetRealData

; 560  : }

  00021	5d		 pop	 ebp
  00022	c2 14 00	 ret	 20			; 00000014H
?SetRealData@CPacketList@@QAE_NPBDNAAHH@Z ENDP		; CPacketList::SetRealData
_TEXT	ENDS
; Function compile flags: /Ogtp
; File D:\git\src\IBK\IBK_DRFN\ProjSrc\SrcChartEx\ChartOCX\PacketData\PacketList.cpp
;	COMDAT ?GetMarketDayType@CPacketList@@QAE?AW4MARKETDAYTYPE@CPacketType@@XZ
_TEXT	SEGMENT
?GetMarketDayType@CPacketList@@QAE?AW4MARKETDAYTYPE@CPacketType@@XZ PROC ; CPacketList::GetMarketDayType, COMDAT
; _this$ = ecx

; 552  : 	return m_pPacketListImple->GetMarketDayType();

  00000	8b 49 04	 mov	 ecx, DWORD PTR [ecx+4]
  00003	e9 00 00 00 00	 jmp	 ?GetMarketDayType@CPacketListImplementation@@QAE?AW4MARKETDAYTYPE@CPacketType@@XZ ; CPacketListImplementation::GetMarketDayType
?GetMarketDayType@CPacketList@@QAE?AW4MARKETDAYTYPE@CPacketType@@XZ ENDP ; CPacketList::GetMarketDayType
_TEXT	ENDS
; Function compile flags: /Ogtp
; File D:\git\src\IBK\IBK_DRFN\ProjSrc\SrcChartEx\ChartOCX\PacketData\PacketList.cpp
;	COMDAT ?GetMarketTime@CPacketList@@QBE_NAAH0@Z
_TEXT	SEGMENT
_nMarketStartTime$ = 8					; size = 4
_nMarketEndTime$ = 12					; size = 4
?GetMarketTime@CPacketList@@QBE_NAAH0@Z PROC		; CPacketList::GetMarketTime, COMDAT
; _this$ = ecx

; 538  : {

  00000	55		 push	 ebp
  00001	8b ec		 mov	 ebp, esp

; 539  : 	return m_pPacketListImple->GetMarketTime(nMarketStartTime, nMarketEndTime);

  00003	8b 49 04	 mov	 ecx, DWORD PTR [ecx+4]

; 540  : }

  00006	5d		 pop	 ebp

; 539  : 	return m_pPacketListImple->GetMarketTime(nMarketStartTime, nMarketEndTime);

  00007	e9 00 00 00 00	 jmp	 ?GetMarketTime@CPacketListImplementation@@QBE_NAAH0@Z ; CPacketListImplementation::GetMarketTime
?GetMarketTime@CPacketList@@QBE_NAAH0@Z ENDP		; CPacketList::GetMarketTime
_TEXT	ENDS
; Function compile flags: /Ogtp
; File D:\git\src\IBK\IBK_DRFN\ProjSrc\SrcChartEx\ChartOCX\PacketData\PacketList.cpp
;	COMDAT ?GetCurrDateTime@CPacketList@@QBE_JXZ
_TEXT	SEGMENT
?GetCurrDateTime@CPacketList@@QBE_JXZ PROC		; CPacketList::GetCurrDateTime, COMDAT
; _this$ = ecx

; 534  : 	return m_pPacketListImple->GetCurrDateTime();

  00000	8b 49 04	 mov	 ecx, DWORD PTR [ecx+4]
  00003	e9 00 00 00 00	 jmp	 ?GetCurrDateTime@CPacketListImplementation@@QBE_JXZ ; CPacketListImplementation::GetCurrDateTime
?GetCurrDateTime@CPacketList@@QBE_JXZ ENDP		; CPacketList::GetCurrDateTime
_TEXT	ENDS
; Function compile flags: /Ogtp
; File D:\git\src\IBK\IBK_DRFN\ProjSrc\SrcChartEx\ChartOCX\PacketData\PacketList.cpp
;	COMDAT ?SetOrgBaseTime@CPacketList@@QAEXXZ
_TEXT	SEGMENT
?SetOrgBaseTime@CPacketList@@QAEXXZ PROC		; CPacketList::SetOrgBaseTime, COMDAT
; _this$ = ecx

; 526  : {

  00000	55		 push	 ebp
  00001	8b ec		 mov	 ebp, esp
  00003	51		 push	 ecx
  00004	56		 push	 esi

; 527  : 	m_pPacketListImple->SetBaseTimeName("");

  00005	51		 push	 ecx
  00006	8b f1		 mov	 esi, ecx
  00008	8b cc		 mov	 ecx, esp
  0000a	68 00 00 00 00	 push	 OFFSET ??_C@_00CNPNBAHC@@
  0000f	ff 15 00 00 00
	00		 call	 DWORD PTR __imp_??0?$CStringT@DV?$StrTraitMFC_DLL@DV?$ChTraitsCRT@D@ATL@@@@@ATL@@QAE@PBD@Z
  00015	8b 4e 04	 mov	 ecx, DWORD PTR [esi+4]
  00018	e8 00 00 00 00	 call	 ?SetBaseTimeName@CPacketListImplementation@@QAEXV?$CStringT@DV?$StrTraitMFC_DLL@DV?$ChTraitsCRT@D@ATL@@@@@ATL@@@Z ; CPacketListImplementation::SetBaseTimeName

; 528  : 	m_pPacketListImple->CalcPacketTimeDiff(m_pPacketListImple->GetOrgBaseTimeDifference());

  0001d	8b 4e 04	 mov	 ecx, DWORD PTR [esi+4]
  00020	e8 00 00 00 00	 call	 ?GetOrgBaseTimeDifference@CPacketListImplementation@@QAEHXZ ; CPacketListImplementation::GetOrgBaseTimeDifference
  00025	8b 4e 04	 mov	 ecx, DWORD PTR [esi+4]
  00028	50		 push	 eax
  00029	e8 00 00 00 00	 call	 ?CalcPacketTimeDiff@CPacketListImplementation@@QAEXH@Z ; CPacketListImplementation::CalcPacketTimeDiff

; 529  : 	m_pPacketListImple->SetBaseTimeDifference(m_pPacketListImple->GetOrgBaseTimeDifference());

  0002e	8b 4e 04	 mov	 ecx, DWORD PTR [esi+4]
  00031	e8 00 00 00 00	 call	 ?GetOrgBaseTimeDifference@CPacketListImplementation@@QAEHXZ ; CPacketListImplementation::GetOrgBaseTimeDifference
  00036	8b 4e 04	 mov	 ecx, DWORD PTR [esi+4]
  00039	50		 push	 eax
  0003a	e8 00 00 00 00	 call	 ?SetBaseTimeDifference@CPacketListImplementation@@QAEXH@Z ; CPacketListImplementation::SetBaseTimeDifference

; 530  : }

  0003f	5e		 pop	 esi
  00040	8b e5		 mov	 esp, ebp
  00042	5d		 pop	 ebp
  00043	c3		 ret	 0
?SetOrgBaseTime@CPacketList@@QAEXXZ ENDP		; CPacketList::SetOrgBaseTime
_TEXT	ENDS
; Function compile flags: /Ogtp
; File D:\git\src\IBK\IBK_DRFN\ProjSrc\SrcChartEx\ChartOCX\PacketData\PacketList.cpp
;	COMDAT ?GetOrgBaseTimeDifference@CPacketList@@QAEHXZ
_TEXT	SEGMENT
?GetOrgBaseTimeDifference@CPacketList@@QAEHXZ PROC	; CPacketList::GetOrgBaseTimeDifference, COMDAT
; _this$ = ecx

; 522  : 	return m_pPacketListImple->GetOrgBaseTimeDifference();

  00000	8b 49 04	 mov	 ecx, DWORD PTR [ecx+4]
  00003	e9 00 00 00 00	 jmp	 ?GetOrgBaseTimeDifference@CPacketListImplementation@@QAEHXZ ; CPacketListImplementation::GetOrgBaseTimeDifference
?GetOrgBaseTimeDifference@CPacketList@@QAEHXZ ENDP	; CPacketList::GetOrgBaseTimeDifference
_TEXT	ENDS
; Function compile flags: /Ogtp
; File D:\git\src\IBK\IBK_DRFN\ProjSrc\SrcChartEx\ChartOCX\PacketData\PacketList.cpp
;	COMDAT ?SetBaseTime@CPacketList@@QAEXV?$CStringT@DV?$StrTraitMFC_DLL@DV?$ChTraitsCRT@D@ATL@@@@@ATL@@H@Z
_TEXT	SEGMENT
__$EHRec$ = -12						; size = 12
_strBaseTimeName$ = 8					; size = 4
_nBaseTimeDiff$ = 12					; size = 4
?SetBaseTime@CPacketList@@QAEXV?$CStringT@DV?$StrTraitMFC_DLL@DV?$ChTraitsCRT@D@ATL@@@@@ATL@@H@Z PROC ; CPacketList::SetBaseTime, COMDAT
; _this$ = ecx

; 514  : {

  00000	55		 push	 ebp
  00001	8b ec		 mov	 ebp, esp
  00003	6a ff		 push	 -1
  00005	68 00 00 00 00	 push	 __ehhandler$?SetBaseTime@CPacketList@@QAEXV?$CStringT@DV?$StrTraitMFC_DLL@DV?$ChTraitsCRT@D@ATL@@@@@ATL@@H@Z
  0000a	64 a1 00 00 00
	00		 mov	 eax, DWORD PTR fs:0
  00010	50		 push	 eax
  00011	51		 push	 ecx
  00012	57		 push	 edi
  00013	a1 00 00 00 00	 mov	 eax, DWORD PTR ___security_cookie
  00018	33 c5		 xor	 eax, ebp
  0001a	50		 push	 eax
  0001b	8d 45 f4	 lea	 eax, DWORD PTR __$EHRec$[ebp]
  0001e	64 a3 00 00 00
	00		 mov	 DWORD PTR fs:0, eax
  00024	8b f9		 mov	 edi, ecx

; 515  : 	m_pPacketListImple->SetBaseTimeName(strBaseTimeName);

  00026	51		 push	 ecx
  00027	8d 45 08	 lea	 eax, DWORD PTR _strBaseTimeName$[ebp]
  0002a	c7 45 fc 00 00
	00 00		 mov	 DWORD PTR __$EHRec$[ebp+8], 0
  00031	8b cc		 mov	 ecx, esp
  00033	50		 push	 eax
  00034	ff 15 00 00 00
	00		 call	 DWORD PTR __imp_??0?$CStringT@DV?$StrTraitMFC_DLL@DV?$ChTraitsCRT@D@ATL@@@@@ATL@@QAE@ABV01@@Z
  0003a	8b 4f 04	 mov	 ecx, DWORD PTR [edi+4]
  0003d	e8 00 00 00 00	 call	 ?SetBaseTimeName@CPacketListImplementation@@QAEXV?$CStringT@DV?$StrTraitMFC_DLL@DV?$ChTraitsCRT@D@ATL@@@@@ATL@@@Z ; CPacketListImplementation::SetBaseTimeName

; 516  : 	m_pPacketListImple->CalcPacketTimeDiff(nBaseTimeDiff);

  00042	ff 75 0c	 push	 DWORD PTR _nBaseTimeDiff$[ebp]
  00045	8b 4f 04	 mov	 ecx, DWORD PTR [edi+4]
  00048	e8 00 00 00 00	 call	 ?CalcPacketTimeDiff@CPacketListImplementation@@QAEXH@Z ; CPacketListImplementation::CalcPacketTimeDiff

; 517  : 	m_pPacketListImple->SetBaseTimeDifference(nBaseTimeDiff);

  0004d	ff 75 0c	 push	 DWORD PTR _nBaseTimeDiff$[ebp]
  00050	8b 4f 04	 mov	 ecx, DWORD PTR [edi+4]
  00053	e8 00 00 00 00	 call	 ?SetBaseTimeDifference@CPacketListImplementation@@QAEXH@Z ; CPacketListImplementation::SetBaseTimeDifference

; 518  : }

  00058	8d 4d 08	 lea	 ecx, DWORD PTR _strBaseTimeName$[ebp]
  0005b	ff 15 00 00 00
	00		 call	 DWORD PTR __imp_??1?$CStringT@DV?$StrTraitMFC_DLL@DV?$ChTraitsCRT@D@ATL@@@@@ATL@@QAE@XZ
  00061	8b 4d f4	 mov	 ecx, DWORD PTR __$EHRec$[ebp]
  00064	64 89 0d 00 00
	00 00		 mov	 DWORD PTR fs:0, ecx
  0006b	59		 pop	 ecx
  0006c	5f		 pop	 edi
  0006d	8b e5		 mov	 esp, ebp
  0006f	5d		 pop	 ebp
  00070	c2 08 00	 ret	 8
_TEXT	ENDS
;	COMDAT text$x
text$x	SEGMENT
__unwindfunclet$?SetBaseTime@CPacketList@@QAEXV?$CStringT@DV?$StrTraitMFC_DLL@DV?$ChTraitsCRT@D@ATL@@@@@ATL@@H@Z$0:
  00000	8d 4d 08	 lea	 ecx, DWORD PTR _strBaseTimeName$[ebp]
  00003	ff 25 00 00 00
	00		 jmp	 DWORD PTR __imp_??1?$CStringT@DV?$StrTraitMFC_DLL@DV?$ChTraitsCRT@D@ATL@@@@@ATL@@QAE@XZ
  00009	cc		 int	 3
  0000a	cc		 int	 3
  0000b	cc		 int	 3
  0000c	cc		 int	 3
  0000d	cc		 int	 3
__ehhandler$?SetBaseTime@CPacketList@@QAEXV?$CStringT@DV?$StrTraitMFC_DLL@DV?$ChTraitsCRT@D@ATL@@@@@ATL@@H@Z:
  0000e	90		 npad	 1
  0000f	90		 npad	 1
  00010	8b 54 24 08	 mov	 edx, DWORD PTR [esp+8]
  00014	8d 42 0c	 lea	 eax, DWORD PTR [edx+12]
  00017	8b 4a f4	 mov	 ecx, DWORD PTR [edx-12]
  0001a	33 c8		 xor	 ecx, eax
  0001c	e8 00 00 00 00	 call	 @__security_check_cookie@4
  00021	b8 00 00 00 00	 mov	 eax, OFFSET __ehfuncinfo$?SetBaseTime@CPacketList@@QAEXV?$CStringT@DV?$StrTraitMFC_DLL@DV?$ChTraitsCRT@D@ATL@@@@@ATL@@H@Z
  00026	e9 00 00 00 00	 jmp	 ___CxxFrameHandler3
text$x	ENDS
?SetBaseTime@CPacketList@@QAEXV?$CStringT@DV?$StrTraitMFC_DLL@DV?$ChTraitsCRT@D@ATL@@@@@ATL@@H@Z ENDP ; CPacketList::SetBaseTime
; Function compile flags: /Ogtp
; File D:\git\src\IBK\IBK_DRFN\ProjSrc\SrcChartEx\ChartOCX\PacketData\PacketList.cpp
;	COMDAT ?GetCalcDataTimeDifference@CPacketList@@QAEHXZ
_TEXT	SEGMENT
?GetCalcDataTimeDifference@CPacketList@@QAEHXZ PROC	; CPacketList::GetCalcDataTimeDifference, COMDAT
; _this$ = ecx

; 510  : 	return m_pPacketListImple->GetCalcDataTimeDifference();

  00000	8b 49 04	 mov	 ecx, DWORD PTR [ecx+4]
  00003	e9 00 00 00 00	 jmp	 ?GetCalcDataTimeDifference@CPacketListImplementation@@QAEHXZ ; CPacketListImplementation::GetCalcDataTimeDifference
?GetCalcDataTimeDifference@CPacketList@@QAEHXZ ENDP	; CPacketList::GetCalcDataTimeDifference
_TEXT	ENDS
; Function compile flags: /Ogtp
; File D:\git\src\IBK\IBK_DRFN\ProjSrc\SrcChartEx\ChartOCX\PacketData\PacketList.cpp
;	COMDAT ?SetBaseTimeDifference@CPacketList@@QAEXH@Z
_TEXT	SEGMENT
_nBaseTimeDiff$ = 8					; size = 4
?SetBaseTimeDifference@CPacketList@@QAEXH@Z PROC	; CPacketList::SetBaseTimeDifference, COMDAT
; _this$ = ecx

; 504  : {

  00000	55		 push	 ebp
  00001	8b ec		 mov	 ebp, esp

; 505  : 	m_pPacketListImple->SetBaseTimeDifference(nBaseTimeDiff);

  00003	8b 49 04	 mov	 ecx, DWORD PTR [ecx+4]

; 506  : }

  00006	5d		 pop	 ebp

; 505  : 	m_pPacketListImple->SetBaseTimeDifference(nBaseTimeDiff);

  00007	e9 00 00 00 00	 jmp	 ?SetBaseTimeDifference@CPacketListImplementation@@QAEXH@Z ; CPacketListImplementation::SetBaseTimeDifference
?SetBaseTimeDifference@CPacketList@@QAEXH@Z ENDP	; CPacketList::SetBaseTimeDifference
_TEXT	ENDS
; Function compile flags: /Ogtp
; File D:\git\src\IBK\IBK_DRFN\ProjSrc\SrcChartEx\ChartOCX\PacketData\PacketList.cpp
;	COMDAT ?GetBaseTimeDifference@CPacketList@@QAEHXZ
_TEXT	SEGMENT
?GetBaseTimeDifference@CPacketList@@QAEHXZ PROC		; CPacketList::GetBaseTimeDifference, COMDAT
; _this$ = ecx

; 500  : 	return m_pPacketListImple->GetBaseTimeDifference();

  00000	8b 49 04	 mov	 ecx, DWORD PTR [ecx+4]
  00003	e9 00 00 00 00	 jmp	 ?GetBaseTimeDifference@CPacketListImplementation@@QAEHXZ ; CPacketListImplementation::GetBaseTimeDifference
?GetBaseTimeDifference@CPacketList@@QAEHXZ ENDP		; CPacketList::GetBaseTimeDifference
_TEXT	ENDS
; Function compile flags: /Ogtp
; File D:\git\src\IBK\IBK_DRFN\ProjSrc\SrcChartEx\ChartOCX\PacketData\PacketList.cpp
;	COMDAT ?GetBaseTimeName@CPacketList@@QAE?AV?$CStringT@DV?$StrTraitMFC_DLL@DV?$ChTraitsCRT@D@ATL@@@@@ATL@@XZ
_TEXT	SEGMENT
___$ReturnUdt$ = 8					; size = 4
?GetBaseTimeName@CPacketList@@QAE?AV?$CStringT@DV?$StrTraitMFC_DLL@DV?$ChTraitsCRT@D@ATL@@@@@ATL@@XZ PROC ; CPacketList::GetBaseTimeName, COMDAT
; _this$ = ecx

; 492  : {

  00000	55		 push	 ebp
  00001	8b ec		 mov	 ebp, esp

; 493  : 	return m_pPacketListImple->GetBaseTimeName();

  00003	ff 75 08	 push	 DWORD PTR ___$ReturnUdt$[ebp]
  00006	8b 49 04	 mov	 ecx, DWORD PTR [ecx+4]
  00009	e8 00 00 00 00	 call	 ?GetBaseTimeName@CPacketListImplementation@@QAE?AV?$CStringT@DV?$StrTraitMFC_DLL@DV?$ChTraitsCRT@D@ATL@@@@@ATL@@XZ ; CPacketListImplementation::GetBaseTimeName
  0000e	8b 45 08	 mov	 eax, DWORD PTR ___$ReturnUdt$[ebp]

; 494  : }

  00011	5d		 pop	 ebp
  00012	c2 04 00	 ret	 4
?GetBaseTimeName@CPacketList@@QAE?AV?$CStringT@DV?$StrTraitMFC_DLL@DV?$ChTraitsCRT@D@ATL@@@@@ATL@@XZ ENDP ; CPacketList::GetBaseTimeName
_TEXT	ENDS
; Function compile flags: /Ogtp
; File D:\git\src\IBK\IBK_DRFN\ProjSrc\SrcChartEx\ChartOCX\PacketData\PacketList.cpp
;	COMDAT ?ShiftPacket@CPacketList@@QAEHPBDJ@Z
_TEXT	SEGMENT
_p_szPacketNames$ = 8					; size = 4
_p_szShiftCount$ = 12					; size = 4
?ShiftPacket@CPacketList@@QAEHPBDJ@Z PROC		; CPacketList::ShiftPacket, COMDAT
; _this$ = ecx

; 479  : {

  00000	55		 push	 ebp
  00001	8b ec		 mov	 ebp, esp

; 480  : 	return m_pPacketListImple->ShiftPacket( p_szPacketNames, p_szShiftCount);

  00003	8b 49 04	 mov	 ecx, DWORD PTR [ecx+4]

; 481  : }

  00006	5d		 pop	 ebp

; 480  : 	return m_pPacketListImple->ShiftPacket( p_szPacketNames, p_szShiftCount);

  00007	e9 00 00 00 00	 jmp	 ?ShiftPacket@CPacketListImplementation@@QAEHPBDJ@Z ; CPacketListImplementation::ShiftPacket
?ShiftPacket@CPacketList@@QAEHPBDJ@Z ENDP		; CPacketList::ShiftPacket
_TEXT	ENDS
; Function compile flags: /Ogtp
; File D:\git\src\IBK\IBK_DRFN\ProjSrc\SrcChartEx\ChartOCX\PacketData\PacketList.cpp
; File D:\git\src\IBK\IBK_DRFN\ProjSrc\SrcChartEx\ChartOCX\PacketData\PacketListImplementation.h
; File D:\git\src\IBK\IBK_DRFN\ProjSrc\SrcChartEx\ChartOCX\PacketData\PacketList.cpp
;	COMDAT ?GetPacketOption@CPacketList@@QAE?AV?$CStringT@DV?$StrTraitMFC_DLL@DV?$ChTraitsCRT@D@ATL@@@@@ATL@@XZ
_TEXT	SEGMENT
___$ReturnUdt$ = 8					; size = 4
?GetPacketOption@CPacketList@@QAE?AV?$CStringT@DV?$StrTraitMFC_DLL@DV?$ChTraitsCRT@D@ATL@@@@@ATL@@XZ PROC ; CPacketList::GetPacketOption, COMDAT
; _this$ = ecx

; 473  : {

  00000	55		 push	 ebp
  00001	8b ec		 mov	 ebp, esp
; File D:\git\src\IBK\IBK_DRFN\ProjSrc\SrcChartEx\ChartOCX\PacketData\PacketListImplementation.h

; 325  : 	CString		GetPacketOption( void)		{	return m_strPacketOption;	}

  00003	8b 41 04	 mov	 eax, DWORD PTR [ecx+4]
  00006	8b 4d 08	 mov	 ecx, DWORD PTR ___$ReturnUdt$[ebp]
  00009	05 bc 01 00 00	 add	 eax, 444		; 000001bcH
  0000e	50		 push	 eax
  0000f	ff 15 00 00 00
	00		 call	 DWORD PTR __imp_??0?$CStringT@DV?$StrTraitMFC_DLL@DV?$ChTraitsCRT@D@ATL@@@@@ATL@@QAE@ABV01@@Z
; File D:\git\src\IBK\IBK_DRFN\ProjSrc\SrcChartEx\ChartOCX\PacketData\PacketList.cpp

; 474  : 	return m_pPacketListImple->GetPacketOption();

  00015	8b 45 08	 mov	 eax, DWORD PTR ___$ReturnUdt$[ebp]

; 475  : }

  00018	5d		 pop	 ebp
  00019	c2 04 00	 ret	 4
?GetPacketOption@CPacketList@@QAE?AV?$CStringT@DV?$StrTraitMFC_DLL@DV?$ChTraitsCRT@D@ATL@@@@@ATL@@XZ ENDP ; CPacketList::GetPacketOption
_TEXT	ENDS
; Function compile flags: /Ogtp
; File D:\git\src\IBK\IBK_DRFN\ProjSrc\SrcChartEx\ChartOCX\PacketData\PacketList.cpp
;	COMDAT ?OffsetPacketData@CPacketList@@QAEXNV?$CStringT@DV?$StrTraitMFC_DLL@DV?$ChTraitsCRT@D@ATL@@@@@ATL@@@Z
_TEXT	SEGMENT
__$EHRec$ = -12						; size = 12
_dData$ = 8						; size = 8
_strPacketName$ = 16					; size = 4
?OffsetPacketData@CPacketList@@QAEXNV?$CStringT@DV?$StrTraitMFC_DLL@DV?$ChTraitsCRT@D@ATL@@@@@ATL@@@Z PROC ; CPacketList::OffsetPacketData, COMDAT
; _this$ = ecx

; 485  : {

  00000	55		 push	 ebp
  00001	8b ec		 mov	 ebp, esp
  00003	6a ff		 push	 -1
  00005	68 00 00 00 00	 push	 __ehhandler$?OffsetPacketData@CPacketList@@QAEXNV?$CStringT@DV?$StrTraitMFC_DLL@DV?$ChTraitsCRT@D@ATL@@@@@ATL@@@Z
  0000a	64 a1 00 00 00
	00		 mov	 eax, DWORD PTR fs:0
  00010	50		 push	 eax
  00011	51		 push	 ecx
  00012	56		 push	 esi
  00013	a1 00 00 00 00	 mov	 eax, DWORD PTR ___security_cookie
  00018	33 c5		 xor	 eax, ebp
  0001a	50		 push	 eax
  0001b	8d 45 f4	 lea	 eax, DWORD PTR __$EHRec$[ebp]
  0001e	64 a3 00 00 00
	00		 mov	 DWORD PTR fs:0, eax
  00024	8b f1		 mov	 esi, ecx

; 486  : 	m_pPacketListImple->OffsetPacketData(dData, strPacketName);

  00026	51		 push	 ecx
  00027	8d 45 10	 lea	 eax, DWORD PTR _strPacketName$[ebp]
  0002a	c7 45 fc 00 00
	00 00		 mov	 DWORD PTR __$EHRec$[ebp+8], 0
  00031	8b cc		 mov	 ecx, esp
  00033	50		 push	 eax
  00034	ff 15 00 00 00
	00		 call	 DWORD PTR __imp_??0?$CStringT@DV?$StrTraitMFC_DLL@DV?$ChTraitsCRT@D@ATL@@@@@ATL@@QAE@ABV01@@Z
  0003a	f2 0f 10 45 08	 movsd	 xmm0, QWORD PTR _dData$[ebp]
  0003f	83 ec 08	 sub	 esp, 8
  00042	8b 4e 04	 mov	 ecx, DWORD PTR [esi+4]
  00045	f2 0f 11 04 24	 movsd	 QWORD PTR [esp], xmm0
  0004a	e8 00 00 00 00	 call	 ?OffsetPacketData@CPacketListImplementation@@QAEXNV?$CStringT@DV?$StrTraitMFC_DLL@DV?$ChTraitsCRT@D@ATL@@@@@ATL@@@Z ; CPacketListImplementation::OffsetPacketData

; 487  : }

  0004f	8d 4d 10	 lea	 ecx, DWORD PTR _strPacketName$[ebp]
  00052	ff 15 00 00 00
	00		 call	 DWORD PTR __imp_??1?$CStringT@DV?$StrTraitMFC_DLL@DV?$ChTraitsCRT@D@ATL@@@@@ATL@@QAE@XZ
  00058	8b 4d f4	 mov	 ecx, DWORD PTR __$EHRec$[ebp]
  0005b	64 89 0d 00 00
	00 00		 mov	 DWORD PTR fs:0, ecx
  00062	59		 pop	 ecx
  00063	5e		 pop	 esi
  00064	8b e5		 mov	 esp, ebp
  00066	5d		 pop	 ebp
  00067	c2 0c 00	 ret	 12			; 0000000cH
_TEXT	ENDS
;	COMDAT text$x
text$x	SEGMENT
__unwindfunclet$?OffsetPacketData@CPacketList@@QAEXNV?$CStringT@DV?$StrTraitMFC_DLL@DV?$ChTraitsCRT@D@ATL@@@@@ATL@@@Z$0:
  00000	8d 4d 10	 lea	 ecx, DWORD PTR _strPacketName$[ebp]
  00003	ff 25 00 00 00
	00		 jmp	 DWORD PTR __imp_??1?$CStringT@DV?$StrTraitMFC_DLL@DV?$ChTraitsCRT@D@ATL@@@@@ATL@@QAE@XZ
  00009	cc		 int	 3
  0000a	cc		 int	 3
  0000b	cc		 int	 3
  0000c	cc		 int	 3
  0000d	cc		 int	 3
__ehhandler$?OffsetPacketData@CPacketList@@QAEXNV?$CStringT@DV?$StrTraitMFC_DLL@DV?$ChTraitsCRT@D@ATL@@@@@ATL@@@Z:
  0000e	90		 npad	 1
  0000f	90		 npad	 1
  00010	8b 54 24 08	 mov	 edx, DWORD PTR [esp+8]
  00014	8d 42 0c	 lea	 eax, DWORD PTR [edx+12]
  00017	8b 4a f4	 mov	 ecx, DWORD PTR [edx-12]
  0001a	33 c8		 xor	 ecx, eax
  0001c	e8 00 00 00 00	 call	 @__security_check_cookie@4
  00021	b8 00 00 00 00	 mov	 eax, OFFSET __ehfuncinfo$?OffsetPacketData@CPacketList@@QAEXNV?$CStringT@DV?$StrTraitMFC_DLL@DV?$ChTraitsCRT@D@ATL@@@@@ATL@@@Z
  00026	e9 00 00 00 00	 jmp	 ___CxxFrameHandler3
text$x	ENDS
?OffsetPacketData@CPacketList@@QAEXNV?$CStringT@DV?$StrTraitMFC_DLL@DV?$ChTraitsCRT@D@ATL@@@@@ATL@@@Z ENDP ; CPacketList::OffsetPacketData
; Function compile flags: /Ogtp
; File D:\git\src\IBK\IBK_DRFN\ProjSrc\SrcChartEx\ChartOCX\PacketData\PacketList.cpp
;	COMDAT ?GetRQ@CPacketList@@QAEPBDXZ
_TEXT	SEGMENT
?GetRQ@CPacketList@@QAEPBDXZ PROC			; CPacketList::GetRQ, COMDAT
; _this$ = ecx

; 468  : 	return m_pPacketListImple->GetRQ();

  00000	8b 49 04	 mov	 ecx, DWORD PTR [ecx+4]
  00003	e9 00 00 00 00	 jmp	 ?GetRQ@CPacketListImplementation@@QAEPBDXZ ; CPacketListImplementation::GetRQ
?GetRQ@CPacketList@@QAEPBDXZ ENDP			; CPacketList::GetRQ
_TEXT	ENDS
; Function compile flags: /Ogtp
; File D:\git\src\IBK\IBK_DRFN\ProjSrc\SrcChartEx\ChartOCX\PacketData\PacketList.cpp
;	COMDAT ?SetRQ@CPacketList@@QAEXPBD@Z
_TEXT	SEGMENT
_lpszRQ$ = 8						; size = 4
?SetRQ@CPacketList@@QAEXPBD@Z PROC			; CPacketList::SetRQ, COMDAT
; _this$ = ecx

; 461  : {

  00000	55		 push	 ebp
  00001	8b ec		 mov	 ebp, esp

; 462  : 	m_pPacketListImple->SetRQ(lpszRQ);

  00003	8b 49 04	 mov	 ecx, DWORD PTR [ecx+4]

; 463  : }

  00006	5d		 pop	 ebp

; 462  : 	m_pPacketListImple->SetRQ(lpszRQ);

  00007	e9 00 00 00 00	 jmp	 ?SetRQ@CPacketListImplementation@@QAEXPBD@Z ; CPacketListImplementation::SetRQ
?SetRQ@CPacketList@@QAEXPBD@Z ENDP			; CPacketList::SetRQ
_TEXT	ENDS
; Function compile flags: /Ogtp
; File D:\git\src\IBK\IBK_DRFN\ProjSrc\SrcChartEx\ChartOCX\PacketData\PacketList.cpp
;	COMDAT ?SetBinTrEnd@CPacketList@@QAEHXZ
_TEXT	SEGMENT
?SetBinTrEnd@CPacketList@@QAEHXZ PROC			; CPacketList::SetBinTrEnd, COMDAT
; _this$ = ecx

; 456  : 	return m_pPacketListImple->SetBinTrEnd();

  00000	8b 49 04	 mov	 ecx, DWORD PTR [ecx+4]
  00003	e9 00 00 00 00	 jmp	 ?SetBinTrEnd@CPacketListImplementation@@QAEHXZ ; CPacketListImplementation::SetBinTrEnd
?SetBinTrEnd@CPacketList@@QAEHXZ ENDP			; CPacketList::SetBinTrEnd
_TEXT	ENDS
; Function compile flags: /Ogtp
; File D:\git\src\IBK\IBK_DRFN\ProjSrc\SrcChartEx\ChartOCX\PacketData\PacketList.cpp
;	COMDAT ?SetBinTrStringData@CPacketList@@QAEHPBDJPAPBD@Z
_TEXT	SEGMENT
_p_szPacketName$ = 8					; size = 4
_p_nCount$ = 12						; size = 4
_p_pszData$ = 16					; size = 4
?SetBinTrStringData@CPacketList@@QAEHPBDJPAPBD@Z PROC	; CPacketList::SetBinTrStringData, COMDAT
; _this$ = ecx

; 451  : {

  00000	55		 push	 ebp
  00001	8b ec		 mov	 ebp, esp

; 452  : 	return m_pPacketListImple->SetBinTrStringData( p_szPacketName, p_nCount, p_pszData);

  00003	8b 49 04	 mov	 ecx, DWORD PTR [ecx+4]

; 453  : }

  00006	5d		 pop	 ebp

; 452  : 	return m_pPacketListImple->SetBinTrStringData( p_szPacketName, p_nCount, p_pszData);

  00007	e9 00 00 00 00	 jmp	 ?SetBinTrStringData@CPacketListImplementation@@QAEHPBDJPAPBD@Z ; CPacketListImplementation::SetBinTrStringData
?SetBinTrStringData@CPacketList@@QAEHPBDJPAPBD@Z ENDP	; CPacketList::SetBinTrStringData
_TEXT	ENDS
; Function compile flags: /Ogtp
; File D:\git\src\IBK\IBK_DRFN\ProjSrc\SrcChartEx\ChartOCX\PacketData\PacketList.cpp
;	COMDAT ?SetBinTrDoubleData@CPacketList@@QAEHPBDJPAN@Z
_TEXT	SEGMENT
_p_szPacketName$ = 8					; size = 4
_p_nCount$ = 12						; size = 4
_p_pdData$ = 16						; size = 4
?SetBinTrDoubleData@CPacketList@@QAEHPBDJPAN@Z PROC	; CPacketList::SetBinTrDoubleData, COMDAT
; _this$ = ecx

; 447  : {

  00000	55		 push	 ebp
  00001	8b ec		 mov	 ebp, esp

; 448  : 	return m_pPacketListImple->SetBinTrDoubleData( p_szPacketName, p_nCount, p_pdData);

  00003	8b 49 04	 mov	 ecx, DWORD PTR [ecx+4]

; 449  : }

  00006	5d		 pop	 ebp

; 448  : 	return m_pPacketListImple->SetBinTrDoubleData( p_szPacketName, p_nCount, p_pdData);

  00007	e9 00 00 00 00	 jmp	 ?SetBinTrDoubleData@CPacketListImplementation@@QAEHPBDJPAN@Z ; CPacketListImplementation::SetBinTrDoubleData
?SetBinTrDoubleData@CPacketList@@QAEHPBDJPAN@Z ENDP	; CPacketList::SetBinTrDoubleData
_TEXT	ENDS
; Function compile flags: /Ogtp
; File D:\git\src\IBK\IBK_DRFN\ProjSrc\SrcChartEx\ChartOCX\PacketData\PacketList.cpp
;	COMDAT ?SetBinTrHelpMsg@CPacketList@@QAEHPBD@Z
_TEXT	SEGMENT
_p_szHelpMessage$ = 8					; size = 4
?SetBinTrHelpMsg@CPacketList@@QAEHPBD@Z PROC		; CPacketList::SetBinTrHelpMsg, COMDAT
; _this$ = ecx

; 443  : {

  00000	55		 push	 ebp
  00001	8b ec		 mov	 ebp, esp

; 444  : 	return m_pPacketListImple->SetBinTrHelpMsg( p_szHelpMessage);

  00003	8b 49 04	 mov	 ecx, DWORD PTR [ecx+4]

; 445  : }

  00006	5d		 pop	 ebp

; 444  : 	return m_pPacketListImple->SetBinTrHelpMsg( p_szHelpMessage);

  00007	e9 00 00 00 00	 jmp	 ?SetBinTrHelpMsg@CPacketListImplementation@@QAEHPBD@Z ; CPacketListImplementation::SetBinTrHelpMsg
?SetBinTrHelpMsg@CPacketList@@QAEHPBD@Z ENDP		; CPacketList::SetBinTrHelpMsg
_TEXT	ENDS
; Function compile flags: /Ogtp
; File D:\git\src\IBK\IBK_DRFN\ProjSrc\SrcChartEx\ChartOCX\PacketData\PacketList.cpp
;	COMDAT ?GetHelpMessageMap@CPacketList@@QAEPBVCMapStringToString@@XZ
_TEXT	SEGMENT
?GetHelpMessageMap@CPacketList@@QAEPBVCMapStringToString@@XZ PROC ; CPacketList::GetHelpMessageMap, COMDAT
; _this$ = ecx

; 425  : 	return m_pPacketListImple->GetHelpMessageMap();

  00000	8b 41 04	 mov	 eax, DWORD PTR [ecx+4]
  00003	05 90 01 00 00	 add	 eax, 400		; 00000190H

; 426  : }

  00008	c3		 ret	 0
?GetHelpMessageMap@CPacketList@@QAEPBVCMapStringToString@@XZ ENDP ; CPacketList::GetHelpMessageMap
_TEXT	ENDS
; Function compile flags: /Ogtp
; File D:\git\src\IBK\IBK_DRFN\ProjSrc\SrcChartEx\ChartOCX\PacketData\PacketList.cpp
;	COMDAT ?GetHelpMessageItem@CPacketList@@QAEHPBDAAV?$CStringT@DV?$StrTraitMFC_DLL@DV?$ChTraitsCRT@D@ATL@@@@@ATL@@@Z
_TEXT	SEGMENT
_p_szMsgKey$ = 8					; size = 4
_p_strMsgValue$ = 12					; size = 4
?GetHelpMessageItem@CPacketList@@QAEHPBDAAV?$CStringT@DV?$StrTraitMFC_DLL@DV?$ChTraitsCRT@D@ATL@@@@@ATL@@@Z PROC ; CPacketList::GetHelpMessageItem, COMDAT
; _this$ = ecx

; 419  : {

  00000	55		 push	 ebp
  00001	8b ec		 mov	 ebp, esp

; 420  : 	return m_pPacketListImple->GetHelpMessageItem( p_szMsgKey, p_strMsgValue);

  00003	8b 49 04	 mov	 ecx, DWORD PTR [ecx+4]

; 421  : }

  00006	5d		 pop	 ebp

; 420  : 	return m_pPacketListImple->GetHelpMessageItem( p_szMsgKey, p_strMsgValue);

  00007	e9 00 00 00 00	 jmp	 ?GetHelpMessageItem@CPacketListImplementation@@QAEHPBDAAV?$CStringT@DV?$StrTraitMFC_DLL@DV?$ChTraitsCRT@D@ATL@@@@@ATL@@@Z ; CPacketListImplementation::GetHelpMessageItem
?GetHelpMessageItem@CPacketList@@QAEHPBDAAV?$CStringT@DV?$StrTraitMFC_DLL@DV?$ChTraitsCRT@D@ATL@@@@@ATL@@@Z ENDP ; CPacketList::GetHelpMessageItem
_TEXT	ENDS
; Function compile flags: /Ogtp
; File D:\git\src\IBK\IBK_DRFN\ProjSrc\SrcChartEx\ChartOCX\PacketData\PacketList.cpp
;	COMDAT ?SetHelpMessageRealDataRate@CPacketList@@QAE_NABV?$CStringT@DV?$StrTraitMFC_DLL@DV?$ChTraitsCRT@D@ATL@@@@@ATL@@_N@Z
_TEXT	SEGMENT
_strHelpMessage$ = 8					; size = 4
_bIsRemove$ = 12					; size = 1
?SetHelpMessageRealDataRate@CPacketList@@QAE_NABV?$CStringT@DV?$StrTraitMFC_DLL@DV?$ChTraitsCRT@D@ATL@@@@@ATL@@_N@Z PROC ; CPacketList::SetHelpMessageRealDataRate, COMDAT
; _this$ = ecx

; 436  : {

  00000	55		 push	 ebp
  00001	8b ec		 mov	 ebp, esp

; 437  : 	return m_pPacketListImple->SetHelpMessageRealDataRate(strHelpMessage, bIsRemove);

  00003	8b 49 04	 mov	 ecx, DWORD PTR [ecx+4]

; 438  : }

  00006	5d		 pop	 ebp

; 437  : 	return m_pPacketListImple->SetHelpMessageRealDataRate(strHelpMessage, bIsRemove);

  00007	e9 00 00 00 00	 jmp	 ?SetHelpMessageRealDataRate@CPacketListImplementation@@QAE_NABV?$CStringT@DV?$StrTraitMFC_DLL@DV?$ChTraitsCRT@D@ATL@@@@@ATL@@_N@Z ; CPacketListImplementation::SetHelpMessageRealDataRate
?SetHelpMessageRealDataRate@CPacketList@@QAE_NABV?$CStringT@DV?$StrTraitMFC_DLL@DV?$ChTraitsCRT@D@ATL@@@@@ATL@@_N@Z ENDP ; CPacketList::SetHelpMessageRealDataRate
_TEXT	ENDS
; Function compile flags: /Ogtp
; File D:\git\src\IBK\IBK_DRFN\ProjSrc\SrcChartEx\ChartOCX\PacketData\PacketList.cpp
; File C:\Program Files (x86)\Microsoft Visual Studio\2019\Community\VC\Tools\MSVC\14.29.30133\atlmfc\include\atlsimpstr.h
; File D:\git\src\IBK\IBK_DRFN\ProjSrc\SrcChartEx\ChartOCX\PacketData\PacketList.cpp
;	COMDAT ?SetHelpMessage@CPacketList@@QAE_NABV?$CStringT@DV?$StrTraitMFC_DLL@DV?$ChTraitsCRT@D@ATL@@@@@ATL@@_N@Z
_TEXT	SEGMENT
_strHelpMessage$ = 8					; size = 4
_bIsAllRemove$ = 12					; size = 1
?SetHelpMessage@CPacketList@@QAE_NABV?$CStringT@DV?$StrTraitMFC_DLL@DV?$ChTraitsCRT@D@ATL@@@@@ATL@@_N@Z PROC ; CPacketList::SetHelpMessage, COMDAT
; _this$ = ecx

; 431  : {

  00000	55		 push	 ebp
  00001	8b ec		 mov	 ebp, esp
; File C:\Program Files (x86)\Microsoft Visual Studio\2019\Community\VC\Tools\MSVC\14.29.30133\atlmfc\include\atlsimpstr.h

; 377  : 		return( m_pszData );

  00003	8b 45 08	 mov	 eax, DWORD PTR _strHelpMessage$[ebp]
; File D:\git\src\IBK\IBK_DRFN\ProjSrc\SrcChartEx\ChartOCX\PacketData\PacketList.cpp

; 432  : 	return (m_pPacketListImple->SetHelpMessage(strHelpMessage, bIsAllRemove) > 0);

  00006	ff 75 0c	 push	 DWORD PTR _bIsAllRemove$[ebp]
  00009	8b 49 04	 mov	 ecx, DWORD PTR [ecx+4]
  0000c	ff 30		 push	 DWORD PTR [eax]
  0000e	e8 00 00 00 00	 call	 ?SetHelpMessage@CPacketListImplementation@@QAEHPBD_N@Z ; CPacketListImplementation::SetHelpMessage
  00013	85 c0		 test	 eax, eax
  00015	0f 9f c0	 setg	 al

; 433  : }

  00018	5d		 pop	 ebp
  00019	c2 08 00	 ret	 8
?SetHelpMessage@CPacketList@@QAE_NABV?$CStringT@DV?$StrTraitMFC_DLL@DV?$ChTraitsCRT@D@ATL@@@@@ATL@@_N@Z ENDP ; CPacketList::SetHelpMessage
_TEXT	ENDS
; Function compile flags: /Ogtp
; File D:\git\src\IBK\IBK_DRFN\ProjSrc\SrcChartEx\ChartOCX\PacketData\PacketList.cpp
;	COMDAT ?GetCommodityBondNameInBase@CPacketList@@QBE?AW4COMMODITY_BOND_NAME@CPacketType@@XZ
_TEXT	SEGMENT
?GetCommodityBondNameInBase@CPacketList@@QBE?AW4COMMODITY_BOND_NAME@CPacketType@@XZ PROC ; CPacketList::GetCommodityBondNameInBase, COMDAT
; _this$ = ecx

; 361  : 	return m_pPacketListImple->GetCommodityBondNameInBase();

  00000	8b 49 04	 mov	 ecx, DWORD PTR [ecx+4]
  00003	e9 00 00 00 00	 jmp	 ?GetCommodityBondNameInBase@CPacketListImplementation@@QBE?AW4COMMODITY_BOND_NAME@CPacketType@@XZ ; CPacketListImplementation::GetCommodityBondNameInBase
?GetCommodityBondNameInBase@CPacketList@@QBE?AW4COMMODITY_BOND_NAME@CPacketType@@XZ ENDP ; CPacketList::GetCommodityBondNameInBase
_TEXT	ENDS
; Function compile flags: /Ogtp
; File D:\git\src\IBK\IBK_DRFN\ProjSrc\SrcChartEx\ChartOCX\PacketData\PacketList.cpp
;	COMDAT ?GetRemovePacketCountInRealData@CPacketList@@QBEHXZ
_TEXT	SEGMENT
?GetRemovePacketCountInRealData@CPacketList@@QBEHXZ PROC ; CPacketList::GetRemovePacketCountInRealData, COMDAT
; _this$ = ecx

; 414  : 	return m_pPacketListImple->GetRemovePacketCountInRealData();

  00000	8b 49 04	 mov	 ecx, DWORD PTR [ecx+4]
  00003	e9 00 00 00 00	 jmp	 ?GetRemovePacketCountInRealData@CPacketListImplementation@@QBEHXZ ; CPacketListImplementation::GetRemovePacketCountInRealData
?GetRemovePacketCountInRealData@CPacketList@@QBEHXZ ENDP ; CPacketList::GetRemovePacketCountInRealData
_TEXT	ENDS
; Function compile flags: /Ogtp
; File D:\git\src\IBK\IBK_DRFN\ProjSrc\SrcChartEx\ChartOCX\PacketData\PacketList.cpp
;	COMDAT ?GetItemName@CPacketList@@QBE?AV?$CStringT@DV?$StrTraitMFC_DLL@DV?$ChTraitsCRT@D@ATL@@@@@ATL@@XZ
_TEXT	SEGMENT
___$ReturnUdt$ = 8					; size = 4
?GetItemName@CPacketList@@QBE?AV?$CStringT@DV?$StrTraitMFC_DLL@DV?$ChTraitsCRT@D@ATL@@@@@ATL@@XZ PROC ; CPacketList::GetItemName, COMDAT
; _this$ = ecx

; 355  : {

  00000	55		 push	 ebp
  00001	8b ec		 mov	 ebp, esp

; 356  : 	return m_pPacketListImple->GetItemName();

  00003	ff 75 08	 push	 DWORD PTR ___$ReturnUdt$[ebp]
  00006	8b 49 04	 mov	 ecx, DWORD PTR [ecx+4]
  00009	e8 00 00 00 00	 call	 ?GetItemName@CPacketListImplementation@@QBE?AV?$CStringT@DV?$StrTraitMFC_DLL@DV?$ChTraitsCRT@D@ATL@@@@@ATL@@XZ ; CPacketListImplementation::GetItemName
  0000e	8b 45 08	 mov	 eax, DWORD PTR ___$ReturnUdt$[ebp]

; 357  : }

  00011	5d		 pop	 ebp
  00012	c2 04 00	 ret	 4
?GetItemName@CPacketList@@QBE?AV?$CStringT@DV?$StrTraitMFC_DLL@DV?$ChTraitsCRT@D@ATL@@@@@ATL@@XZ ENDP ; CPacketList::GetItemName
_TEXT	ENDS
; Function compile flags: /Ogtp
; File D:\git\src\IBK\IBK_DRFN\ProjSrc\SrcChartEx\ChartOCX\PacketData\PacketList.cpp
;	COMDAT ?GetItemCode@CPacketList@@QBE?AV?$CStringT@DV?$StrTraitMFC_DLL@DV?$ChTraitsCRT@D@ATL@@@@@ATL@@XZ
_TEXT	SEGMENT
___$ReturnUdt$ = 8					; size = 4
?GetItemCode@CPacketList@@QBE?AV?$CStringT@DV?$StrTraitMFC_DLL@DV?$ChTraitsCRT@D@ATL@@@@@ATL@@XZ PROC ; CPacketList::GetItemCode, COMDAT
; _this$ = ecx

; 350  : {

  00000	55		 push	 ebp
  00001	8b ec		 mov	 ebp, esp

; 351  : 	return m_pPacketListImple->GetItemCode();

  00003	ff 75 08	 push	 DWORD PTR ___$ReturnUdt$[ebp]
  00006	8b 49 04	 mov	 ecx, DWORD PTR [ecx+4]
  00009	e8 00 00 00 00	 call	 ?GetItemCode@CPacketListImplementation@@QBE?AV?$CStringT@DV?$StrTraitMFC_DLL@DV?$ChTraitsCRT@D@ATL@@@@@ATL@@XZ ; CPacketListImplementation::GetItemCode
  0000e	8b 45 08	 mov	 eax, DWORD PTR ___$ReturnUdt$[ebp]

; 352  : }

  00011	5d		 pop	 ebp
  00012	c2 04 00	 ret	 4
?GetItemCode@CPacketList@@QBE?AV?$CStringT@DV?$StrTraitMFC_DLL@DV?$ChTraitsCRT@D@ATL@@@@@ATL@@XZ ENDP ; CPacketList::GetItemCode
_TEXT	ENDS
; Function compile flags: /Ogtp
; File D:\git\src\IBK\IBK_DRFN\ProjSrc\SrcChartEx\ChartOCX\PacketData\PacketList.cpp
;	COMDAT ?GetItemData@CPacketList@@QBEXAAV?$CStringT@DV?$StrTraitMFC_DLL@DV?$ChTraitsCRT@D@ATL@@@@@ATL@@0@Z
_TEXT	SEGMENT
_strCode$ = 8						; size = 4
_strName$ = 12						; size = 4
?GetItemData@CPacketList@@QBEXAAV?$CStringT@DV?$StrTraitMFC_DLL@DV?$ChTraitsCRT@D@ATL@@@@@ATL@@0@Z PROC ; CPacketList::GetItemData, COMDAT
; _this$ = ecx

; 345  : {

  00000	55		 push	 ebp
  00001	8b ec		 mov	 ebp, esp

; 346  : 	m_pPacketListImple->GetItemData(strCode, strName);

  00003	8b 49 04	 mov	 ecx, DWORD PTR [ecx+4]

; 347  : }

  00006	5d		 pop	 ebp

; 346  : 	m_pPacketListImple->GetItemData(strCode, strName);

  00007	e9 00 00 00 00	 jmp	 ?GetItemData@CPacketListImplementation@@QBEXAAV?$CStringT@DV?$StrTraitMFC_DLL@DV?$ChTraitsCRT@D@ATL@@@@@ATL@@0@Z ; CPacketListImplementation::GetItemData
?GetItemData@CPacketList@@QBEXAAV?$CStringT@DV?$StrTraitMFC_DLL@DV?$ChTraitsCRT@D@ATL@@@@@ATL@@0@Z ENDP ; CPacketList::GetItemData
_TEXT	ENDS
; Function compile flags: /Ogtp
; File D:\git\src\IBK\IBK_DRFN\ProjSrc\SrcChartEx\ChartOCX\PacketData\PacketList.cpp
;	COMDAT ?SetItemData@CPacketList@@QAEXABV?$CStringT@DV?$StrTraitMFC_DLL@DV?$ChTraitsCRT@D@ATL@@@@@ATL@@0@Z
_TEXT	SEGMENT
_strCode$ = 8						; size = 4
_strName$ = 12						; size = 4
?SetItemData@CPacketList@@QAEXABV?$CStringT@DV?$StrTraitMFC_DLL@DV?$ChTraitsCRT@D@ATL@@@@@ATL@@0@Z PROC ; CPacketList::SetItemData, COMDAT
; _this$ = ecx

; 340  : {

  00000	55		 push	 ebp
  00001	8b ec		 mov	 ebp, esp

; 341  : 	m_pPacketListImple->SetItemData(strCode, strName);

  00003	8b 49 04	 mov	 ecx, DWORD PTR [ecx+4]

; 342  : }

  00006	5d		 pop	 ebp

; 341  : 	m_pPacketListImple->SetItemData(strCode, strName);

  00007	e9 00 00 00 00	 jmp	 ?SetItemData@CPacketListImplementation@@QAEXABV?$CStringT@DV?$StrTraitMFC_DLL@DV?$ChTraitsCRT@D@ATL@@@@@ATL@@0@Z ; CPacketListImplementation::SetItemData
?SetItemData@CPacketList@@QAEXABV?$CStringT@DV?$StrTraitMFC_DLL@DV?$ChTraitsCRT@D@ATL@@@@@ATL@@0@Z ENDP ; CPacketList::SetItemData
_TEXT	ENDS
; Function compile flags: /Ogtp
; File D:\git\src\IBK\IBK_DRFN\ProjSrc\SrcChartEx\ChartOCX\PacketData\PacketList.cpp
;	COMDAT ?DeleteOrClearPacket@CPacketList@@QAE_NPAVCPacket@@_N1@Z
_TEXT	SEGMENT
_pPacket$ = 8						; size = 4
_bIsDelete$ = 12					; size = 1
_bIsOnlyNoTRData$ = 16					; size = 1
?DeleteOrClearPacket@CPacketList@@QAE_NPAVCPacket@@_N1@Z PROC ; CPacketList::DeleteOrClearPacket, COMDAT
; _this$ = ecx

; 141  : {

  00000	55		 push	 ebp
  00001	8b ec		 mov	 ebp, esp

; 142  : 	return m_pPacketListImple->DeleteOrClearPacket(pPacket, bIsDelete, bIsOnlyNoTRData);

  00003	8b 49 04	 mov	 ecx, DWORD PTR [ecx+4]

; 143  : }

  00006	5d		 pop	 ebp

; 142  : 	return m_pPacketListImple->DeleteOrClearPacket(pPacket, bIsDelete, bIsOnlyNoTRData);

  00007	e9 00 00 00 00	 jmp	 ?DeleteOrClearPacket@CPacketListImplementation@@QAE_NPAVCPacket@@_N1@Z ; CPacketListImplementation::DeleteOrClearPacket
?DeleteOrClearPacket@CPacketList@@QAE_NPAVCPacket@@_N1@Z ENDP ; CPacketList::DeleteOrClearPacket
_TEXT	ENDS
; Function compile flags: /Ogtp
; File D:\git\src\IBK\IBK_DRFN\ProjSrc\SrcChartEx\ChartOCX\PacketData\PacketList.cpp
;	COMDAT ?DeleteOrClearPacket@CPacketList@@QAE_NABV?$CStringT@DV?$StrTraitMFC_DLL@DV?$ChTraitsCRT@D@ATL@@@@@ATL@@_N1@Z
_TEXT	SEGMENT
_strPacketName$ = 8					; size = 4
_bIsDelete$ = 12					; size = 1
_bIsOnlyNoTRData$ = 16					; size = 1
?DeleteOrClearPacket@CPacketList@@QAE_NABV?$CStringT@DV?$StrTraitMFC_DLL@DV?$ChTraitsCRT@D@ATL@@@@@ATL@@_N1@Z PROC ; CPacketList::DeleteOrClearPacket, COMDAT
; _this$ = ecx

; 136  : {

  00000	55		 push	 ebp
  00001	8b ec		 mov	 ebp, esp

; 137  : 	return m_pPacketListImple->DeleteOrClearPacket(strPacketName, bIsDelete, bIsOnlyNoTRData);

  00003	8b 49 04	 mov	 ecx, DWORD PTR [ecx+4]

; 138  : }

  00006	5d		 pop	 ebp

; 137  : 	return m_pPacketListImple->DeleteOrClearPacket(strPacketName, bIsDelete, bIsOnlyNoTRData);

  00007	e9 00 00 00 00	 jmp	 ?DeleteOrClearPacket@CPacketListImplementation@@QAE_NABV?$CStringT@DV?$StrTraitMFC_DLL@DV?$ChTraitsCRT@D@ATL@@@@@ATL@@_N1@Z ; CPacketListImplementation::DeleteOrClearPacket
?DeleteOrClearPacket@CPacketList@@QAE_NABV?$CStringT@DV?$StrTraitMFC_DLL@DV?$ChTraitsCRT@D@ATL@@@@@ATL@@_N1@Z ENDP ; CPacketList::DeleteOrClearPacket
_TEXT	ENDS
; Function compile flags: /Ogtp
; File D:\git\src\IBK\IBK_DRFN\ProjSrc\SrcChartEx\ChartOCX\PacketData\PacketList.cpp
;	COMDAT ?ClearAllIndicatorData@CPacketList@@QAE_N_N@Z
_TEXT	SEGMENT
_bOnlyData$ = 8						; size = 1
?ClearAllIndicatorData@CPacketList@@QAE_N_N@Z PROC	; CPacketList::ClearAllIndicatorData, COMDAT
; _this$ = ecx

; 131  : {

  00000	55		 push	 ebp
  00001	8b ec		 mov	 ebp, esp

; 132  : 	return m_pPacketListImple->ClearAllIndicatorData(bOnlyData);

  00003	8b 49 04	 mov	 ecx, DWORD PTR [ecx+4]

; 133  : }

  00006	5d		 pop	 ebp

; 132  : 	return m_pPacketListImple->ClearAllIndicatorData(bOnlyData);

  00007	e9 00 00 00 00	 jmp	 ?ClearAllIndicatorData@CPacketListImplementation@@QAE_N_N@Z ; CPacketListImplementation::ClearAllIndicatorData
?ClearAllIndicatorData@CPacketList@@QAE_N_N@Z ENDP	; CPacketList::ClearAllIndicatorData
_TEXT	ENDS
; Function compile flags: /Ogtp
; File D:\git\src\IBK\IBK_DRFN\ProjSrc\SrcChartEx\ChartOCX\PacketData\PacketList.cpp
;	COMDAT ?ClearData@CPacketList@@QAEHABV?$CStringT@DV?$StrTraitMFC_DLL@DV?$ChTraitsCRT@D@ATL@@@@@ATL@@0_N@Z
_TEXT	SEGMENT
_strPacketNames$ = 8					; size = 4
_strCompartName$ = 12					; size = 4
_bClearIncludingTR$ = 16				; size = 1
?ClearData@CPacketList@@QAEHABV?$CStringT@DV?$StrTraitMFC_DLL@DV?$ChTraitsCRT@D@ATL@@@@@ATL@@0_N@Z PROC ; CPacketList::ClearData, COMDAT
; _this$ = ecx

; 126  : {

  00000	55		 push	 ebp
  00001	8b ec		 mov	 ebp, esp

; 127  : 	return m_pPacketListImple->ClearData(strPacketNames, strCompartName, bClearIncludingTR);

  00003	8b 49 04	 mov	 ecx, DWORD PTR [ecx+4]

; 128  : }

  00006	5d		 pop	 ebp

; 127  : 	return m_pPacketListImple->ClearData(strPacketNames, strCompartName, bClearIncludingTR);

  00007	e9 00 00 00 00	 jmp	 ?ClearData@CPacketListImplementation@@QAEHABV?$CStringT@DV?$StrTraitMFC_DLL@DV?$ChTraitsCRT@D@ATL@@@@@ATL@@0_N@Z ; CPacketListImplementation::ClearData
?ClearData@CPacketList@@QAEHABV?$CStringT@DV?$StrTraitMFC_DLL@DV?$ChTraitsCRT@D@ATL@@@@@ATL@@0_N@Z ENDP ; CPacketList::ClearData
_TEXT	ENDS
; Function compile flags: /Ogtp
; File D:\git\src\IBK\IBK_DRFN\ProjSrc\SrcChartEx\ChartOCX\PacketData\PacketList.cpp
;	COMDAT ?ClearDataAll@CPacketList@@QAEH_N@Z
_TEXT	SEGMENT
_bClearAllData$ = 8					; size = 1
?ClearDataAll@CPacketList@@QAEH_N@Z PROC		; CPacketList::ClearDataAll, COMDAT
; _this$ = ecx

; 121  : {

  00000	55		 push	 ebp
  00001	8b ec		 mov	 ebp, esp

; 122  : 	return m_pPacketListImple->ClearDataAll(bClearAllData);

  00003	8b 49 04	 mov	 ecx, DWORD PTR [ecx+4]

; 123  : }

  00006	5d		 pop	 ebp

; 122  : 	return m_pPacketListImple->ClearDataAll(bClearAllData);

  00007	e9 00 00 00 00	 jmp	 ?ClearDataAll@CPacketListImplementation@@QAEH_N@Z ; CPacketListImplementation::ClearDataAll
?ClearDataAll@CPacketList@@QAEH_N@Z ENDP		; CPacketList::ClearDataAll
_TEXT	ENDS
; Function compile flags: /Ogtp
; File D:\git\src\IBK\IBK_DRFN\ProjSrc\SrcChartEx\ChartOCX\PacketData\PacketList.cpp
;	COMDAT ?ClearIndicatorData@CPacketList@@QAE_NABV?$CStringT@DV?$StrTraitMFC_DLL@DV?$ChTraitsCRT@D@ATL@@@@@ATL@@@Z
_TEXT	SEGMENT
_strName$ = 8						; size = 4
?ClearIndicatorData@CPacketList@@QAE_NABV?$CStringT@DV?$StrTraitMFC_DLL@DV?$ChTraitsCRT@D@ATL@@@@@ATL@@@Z PROC ; CPacketList::ClearIndicatorData, COMDAT
; _this$ = ecx

; 146  : {

  00000	55		 push	 ebp
  00001	8b ec		 mov	 ebp, esp

; 147  : 	return m_pPacketListImple->ClearIndicatorData(strName);

  00003	8b 49 04	 mov	 ecx, DWORD PTR [ecx+4]

; 148  : }

  00006	5d		 pop	 ebp

; 147  : 	return m_pPacketListImple->ClearIndicatorData(strName);

  00007	e9 00 00 00 00	 jmp	 ?ClearIndicatorData@CPacketListImplementation@@QAE_NABV?$CStringT@DV?$StrTraitMFC_DLL@DV?$ChTraitsCRT@D@ATL@@@@@ATL@@@Z ; CPacketListImplementation::ClearIndicatorData
?ClearIndicatorData@CPacketList@@QAE_NABV?$CStringT@DV?$StrTraitMFC_DLL@DV?$ChTraitsCRT@D@ATL@@@@@ATL@@@Z ENDP ; CPacketList::ClearIndicatorData
_TEXT	ENDS
; Function compile flags: /Ogtp
; File D:\git\src\IBK\IBK_DRFN\ProjSrc\SrcChartEx\ChartOCX\PacketData\PacketList.cpp
;	COMDAT ?RemoveFictionData@CPacketList@@QAE_NXZ
_TEXT	SEGMENT
?RemoveFictionData@CPacketList@@QAE_NXZ PROC		; CPacketList::RemoveFictionData, COMDAT
; _this$ = ecx

; 306  : 	return m_pPacketListImple->RemoveFictionData();

  00000	8b 49 04	 mov	 ecx, DWORD PTR [ecx+4]
  00003	e9 00 00 00 00	 jmp	 ?RemoveFictionData@CPacketListImplementation@@QAE_NXZ ; CPacketListImplementation::RemoveFictionData
?RemoveFictionData@CPacketList@@QAE_NXZ ENDP		; CPacketList::RemoveFictionData
_TEXT	ENDS
; Function compile flags: /Ogtp
; File D:\git\src\IBK\IBK_DRFN\ProjSrc\SrcChartEx\ChartOCX\PacketData\PacketList.cpp
;	COMDAT ?SetBaseData@CPacketList@@QAEHV?$CStringT@DV?$StrTraitMFC_DLL@DV?$ChTraitsCRT@D@ATL@@@@@ATL@@HH@Z
_TEXT	SEGMENT
__$EHRec$ = -12						; size = 12
_szData$ = 8						; size = 4
_nCount$ = 12						; size = 4
_nType$ = 16						; size = 4
?SetBaseData@CPacketList@@QAEHV?$CStringT@DV?$StrTraitMFC_DLL@DV?$ChTraitsCRT@D@ATL@@@@@ATL@@HH@Z PROC ; CPacketList::SetBaseData, COMDAT
; _this$ = ecx

; 54   : {

  00000	55		 push	 ebp
  00001	8b ec		 mov	 ebp, esp
  00003	6a ff		 push	 -1
  00005	68 00 00 00 00	 push	 __ehhandler$?SetBaseData@CPacketList@@QAEHV?$CStringT@DV?$StrTraitMFC_DLL@DV?$ChTraitsCRT@D@ATL@@@@@ATL@@HH@Z
  0000a	64 a1 00 00 00
	00		 mov	 eax, DWORD PTR fs:0
  00010	50		 push	 eax
  00011	56		 push	 esi
  00012	a1 00 00 00 00	 mov	 eax, DWORD PTR ___security_cookie
  00017	33 c5		 xor	 eax, ebp
  00019	50		 push	 eax
  0001a	8d 45 f4	 lea	 eax, DWORD PTR __$EHRec$[ebp]
  0001d	64 a3 00 00 00
	00		 mov	 DWORD PTR fs:0, eax
  00023	8b f1		 mov	 esi, ecx

; 55   : 	return m_pPacketListImple->SetBaseData(szData, nCount, nType);

  00025	ff 75 10	 push	 DWORD PTR _nType$[ebp]
  00028	8d 45 08	 lea	 eax, DWORD PTR _szData$[ebp]
  0002b	c7 45 fc 00 00
	00 00		 mov	 DWORD PTR __$EHRec$[ebp+8], 0
  00032	ff 75 0c	 push	 DWORD PTR _nCount$[ebp]
  00035	51		 push	 ecx
  00036	8b cc		 mov	 ecx, esp
  00038	50		 push	 eax
  00039	ff 15 00 00 00
	00		 call	 DWORD PTR __imp_??0?$CStringT@DV?$StrTraitMFC_DLL@DV?$ChTraitsCRT@D@ATL@@@@@ATL@@QAE@ABV01@@Z
  0003f	8b 4e 04	 mov	 ecx, DWORD PTR [esi+4]
  00042	e8 00 00 00 00	 call	 ?SetBaseData@CPacketListImplementation@@QAEHV?$CStringT@DV?$StrTraitMFC_DLL@DV?$ChTraitsCRT@D@ATL@@@@@ATL@@HH@Z ; CPacketListImplementation::SetBaseData
  00047	8d 4d 08	 lea	 ecx, DWORD PTR _szData$[ebp]
  0004a	8b f0		 mov	 esi, eax
  0004c	ff 15 00 00 00
	00		 call	 DWORD PTR __imp_??1?$CStringT@DV?$StrTraitMFC_DLL@DV?$ChTraitsCRT@D@ATL@@@@@ATL@@QAE@XZ
  00052	8b c6		 mov	 eax, esi

; 56   : }

  00054	8b 4d f4	 mov	 ecx, DWORD PTR __$EHRec$[ebp]
  00057	64 89 0d 00 00
	00 00		 mov	 DWORD PTR fs:0, ecx
  0005e	59		 pop	 ecx
  0005f	5e		 pop	 esi
  00060	8b e5		 mov	 esp, ebp
  00062	5d		 pop	 ebp
  00063	c2 0c 00	 ret	 12			; 0000000cH
_TEXT	ENDS
;	COMDAT text$x
text$x	SEGMENT
__unwindfunclet$?SetBaseData@CPacketList@@QAEHV?$CStringT@DV?$StrTraitMFC_DLL@DV?$ChTraitsCRT@D@ATL@@@@@ATL@@HH@Z$0:
  00000	8d 4d 08	 lea	 ecx, DWORD PTR _szData$[ebp]
  00003	ff 25 00 00 00
	00		 jmp	 DWORD PTR __imp_??1?$CStringT@DV?$StrTraitMFC_DLL@DV?$ChTraitsCRT@D@ATL@@@@@ATL@@QAE@XZ
  00009	cc		 int	 3
  0000a	cc		 int	 3
  0000b	cc		 int	 3
  0000c	cc		 int	 3
  0000d	cc		 int	 3
__ehhandler$?SetBaseData@CPacketList@@QAEHV?$CStringT@DV?$StrTraitMFC_DLL@DV?$ChTraitsCRT@D@ATL@@@@@ATL@@HH@Z:
  0000e	90		 npad	 1
  0000f	90		 npad	 1
  00010	8b 54 24 08	 mov	 edx, DWORD PTR [esp+8]
  00014	8d 42 0c	 lea	 eax, DWORD PTR [edx+12]
  00017	8b 4a f8	 mov	 ecx, DWORD PTR [edx-8]
  0001a	33 c8		 xor	 ecx, eax
  0001c	e8 00 00 00 00	 call	 @__security_check_cookie@4
  00021	b8 00 00 00 00	 mov	 eax, OFFSET __ehfuncinfo$?SetBaseData@CPacketList@@QAEHV?$CStringT@DV?$StrTraitMFC_DLL@DV?$ChTraitsCRT@D@ATL@@@@@ATL@@HH@Z
  00026	e9 00 00 00 00	 jmp	 ___CxxFrameHandler3
text$x	ENDS
?SetBaseData@CPacketList@@QAEHV?$CStringT@DV?$StrTraitMFC_DLL@DV?$ChTraitsCRT@D@ATL@@@@@ATL@@HH@Z ENDP ; CPacketList::SetBaseData
; Function compile flags: /Ogtp
; File D:\git\src\IBK\IBK_DRFN\ProjSrc\SrcChartEx\ChartOCX\PacketData\PacketList.cpp
;	COMDAT ?SetBaseData@CPacketList@@QAEHJHH@Z
_TEXT	SEGMENT
_pData$ = 8						; size = 4
_nCount$ = 12						; size = 4
_nType$ = 16						; size = 4
?SetBaseData@CPacketList@@QAEHJHH@Z PROC		; CPacketList::SetBaseData, COMDAT
; _this$ = ecx

; 49   : {

  00000	55		 push	 ebp
  00001	8b ec		 mov	 ebp, esp

; 50   : 	return m_pPacketListImple->SetBaseData(pData, nCount, nType);

  00003	8b 49 04	 mov	 ecx, DWORD PTR [ecx+4]

; 51   : }

  00006	5d		 pop	 ebp

; 50   : 	return m_pPacketListImple->SetBaseData(pData, nCount, nType);

  00007	e9 00 00 00 00	 jmp	 ?SetBaseData@CPacketListImplementation@@QAEHJHH@Z ; CPacketListImplementation::SetBaseData
?SetBaseData@CPacketList@@QAEHJHH@Z ENDP		; CPacketList::SetBaseData
_TEXT	ENDS
; Function compile flags: /Ogtp
; File D:\git\src\IBK\IBK_DRFN\ProjSrc\SrcChartEx\ChartOCX\PacketData\PacketList.cpp
;	COMDAT ?SetDataInsertType@CPacketList@@QAEXW4DATAINSERTTYPE@CPacketDataInfo@@@Z
_TEXT	SEGMENT
_nDataInsertType$ = 8					; size = 4
?SetDataInsertType@CPacketList@@QAEXW4DATAINSERTTYPE@CPacketDataInfo@@@Z PROC ; CPacketList::SetDataInsertType, COMDAT
; _this$ = ecx

; 177  : {

  00000	55		 push	 ebp
  00001	8b ec		 mov	 ebp, esp

; 178  : 	m_pPacketListImple->SetDataInsertType(nDataInsertType);

  00003	8b 49 04	 mov	 ecx, DWORD PTR [ecx+4]

; 179  : }

  00006	5d		 pop	 ebp

; 178  : 	m_pPacketListImple->SetDataInsertType(nDataInsertType);

  00007	e9 00 00 00 00	 jmp	 ?SetDataInsertType@CPacketListImplementation@@QAEXW4DATAINSERTTYPE@CPacketDataInfo@@@Z ; CPacketListImplementation::SetDataInsertType
?SetDataInsertType@CPacketList@@QAEXW4DATAINSERTTYPE@CPacketDataInfo@@@Z ENDP ; CPacketList::SetDataInsertType
_TEXT	ENDS
; Function compile flags: /Ogtp
; File D:\git\src\IBK\IBK_DRFN\ProjSrc\SrcChartEx\ChartOCX\PacketData\PacketList.cpp
;	COMDAT ?SetBasePacketName@CPacketList@@QAEXABV?$CStringT@DV?$StrTraitMFC_DLL@DV?$ChTraitsCRT@D@ATL@@@@@ATL@@@Z
_TEXT	SEGMENT
_szPacketName$ = 8					; size = 4
?SetBasePacketName@CPacketList@@QAEXABV?$CStringT@DV?$StrTraitMFC_DLL@DV?$ChTraitsCRT@D@ATL@@@@@ATL@@@Z PROC ; CPacketList::SetBasePacketName, COMDAT
; _this$ = ecx

; 315  : {

  00000	55		 push	 ebp
  00001	8b ec		 mov	 ebp, esp

; 316  : 	m_pPacketListImple->SetBasePacketName(szPacketName);

  00003	8b 49 04	 mov	 ecx, DWORD PTR [ecx+4]

; 317  : }

  00006	5d		 pop	 ebp

; 316  : 	m_pPacketListImple->SetBasePacketName(szPacketName);

  00007	e9 00 00 00 00	 jmp	 ?SetBasePacketName@CPacketListImplementation@@QAEXABV?$CStringT@DV?$StrTraitMFC_DLL@DV?$ChTraitsCRT@D@ATL@@@@@ATL@@@Z ; CPacketListImplementation::SetBasePacketName
?SetBasePacketName@CPacketList@@QAEXABV?$CStringT@DV?$StrTraitMFC_DLL@DV?$ChTraitsCRT@D@ATL@@@@@ATL@@@Z ENDP ; CPacketList::SetBasePacketName
_TEXT	ENDS
; Function compile flags: /Ogtp
; File D:\git\src\IBK\IBK_DRFN\ProjSrc\SrcChartEx\ChartOCX\PacketData\PacketList.cpp
;	COMDAT ?SetHoldingPacketSize@CPacketList@@QAEXH@Z
_TEXT	SEGMENT
_nSize$ = 8						; size = 4
?SetHoldingPacketSize@CPacketList@@QAEXH@Z PROC		; CPacketList::SetHoldingPacketSize, COMDAT
; _this$ = ecx

; 310  : {

  00000	55		 push	 ebp
  00001	8b ec		 mov	 ebp, esp

; 311  : 	m_pPacketListImple->SetHoldingPacketSize(nSize);

  00003	8b 49 04	 mov	 ecx, DWORD PTR [ecx+4]

; 312  : }

  00006	5d		 pop	 ebp

; 311  : 	m_pPacketListImple->SetHoldingPacketSize(nSize);

  00007	e9 00 00 00 00	 jmp	 ?SetHoldingPacketSize@CPacketListImplementation@@QAEXH@Z ; CPacketListImplementation::SetHoldingPacketSize
?SetHoldingPacketSize@CPacketList@@QAEXH@Z ENDP		; CPacketList::SetHoldingPacketSize
_TEXT	ENDS
; Function compile flags: /Ogtp
; File D:\git\src\IBK\IBK_DRFN\ProjSrc\SrcChartEx\ChartOCX\PacketData\PacketList.cpp
;	COMDAT ?SetUseRealData@CPacketList@@QAEX_N@Z
_TEXT	SEGMENT
_bUseRealData$ = 8					; size = 1
?SetUseRealData@CPacketList@@QAEX_N@Z PROC		; CPacketList::SetUseRealData, COMDAT
; _this$ = ecx

; 335  : {

  00000	55		 push	 ebp
  00001	8b ec		 mov	 ebp, esp

; 336  : 	m_pPacketListImple->SetUseRealData(bUseRealData);

  00003	8b 49 04	 mov	 ecx, DWORD PTR [ecx+4]
  00006	8a 45 08	 mov	 al, BYTE PTR _bUseRealData$[ebp]
  00009	88 81 80 01 00
	00		 mov	 BYTE PTR [ecx+384], al

; 337  : }

  0000f	5d		 pop	 ebp
  00010	c2 04 00	 ret	 4
?SetUseRealData@CPacketList@@QAEX_N@Z ENDP		; CPacketList::SetUseRealData
_TEXT	ENDS
; Function compile flags: /Ogtp
; File D:\git\src\IBK\IBK_DRFN\ProjSrc\SrcChartEx\ChartOCX\PacketData\PacketList.cpp
;	COMDAT ?GetTRPacketNames@CPacketList@@QBE?AV?$CStringT@DV?$StrTraitMFC_DLL@DV?$ChTraitsCRT@D@ATL@@@@@ATL@@ABV23@@Z
_TEXT	SEGMENT
___$ReturnUdt$ = 8					; size = 4
_strCompart$ = 12					; size = 4
?GetTRPacketNames@CPacketList@@QBE?AV?$CStringT@DV?$StrTraitMFC_DLL@DV?$ChTraitsCRT@D@ATL@@@@@ATL@@ABV23@@Z PROC ; CPacketList::GetTRPacketNames, COMDAT
; _this$ = ecx

; 295  : {

  00000	55		 push	 ebp
  00001	8b ec		 mov	 ebp, esp

; 296  : 	return m_pPacketListImple->GetTRPacketNames(strCompart);

  00003	ff 75 0c	 push	 DWORD PTR _strCompart$[ebp]
  00006	8b 49 04	 mov	 ecx, DWORD PTR [ecx+4]
  00009	ff 75 08	 push	 DWORD PTR ___$ReturnUdt$[ebp]
  0000c	e8 00 00 00 00	 call	 ?GetTRPacketNames@CPacketListImplementation@@QBE?AV?$CStringT@DV?$StrTraitMFC_DLL@DV?$ChTraitsCRT@D@ATL@@@@@ATL@@ABV23@@Z ; CPacketListImplementation::GetTRPacketNames
  00011	8b 45 08	 mov	 eax, DWORD PTR ___$ReturnUdt$[ebp]

; 297  : }

  00014	5d		 pop	 ebp
  00015	c2 08 00	 ret	 8
?GetTRPacketNames@CPacketList@@QBE?AV?$CStringT@DV?$StrTraitMFC_DLL@DV?$ChTraitsCRT@D@ATL@@@@@ATL@@ABV23@@Z ENDP ; CPacketList::GetTRPacketNames
_TEXT	ENDS
; Function compile flags: /Ogtp
; File D:\git\src\IBK\IBK_DRFN\ProjSrc\SrcChartEx\ChartOCX\PacketData\PacketList.cpp
;	COMDAT ?GetTRPacketList@CPacketList@@QAEAAV?$CTypedPtrList@VCObList@@PAVCPacket@@@@XZ
_TEXT	SEGMENT
?GetTRPacketList@CPacketList@@QAEAAV?$CTypedPtrList@VCObList@@PAVCPacket@@@@XZ PROC ; CPacketList::GetTRPacketList, COMDAT
; _this$ = ecx

; 284  : 	return m_pPacketListImple->GetTRPacketList();

  00000	8b 49 04	 mov	 ecx, DWORD PTR [ecx+4]
  00003	e9 00 00 00 00	 jmp	 ?GetTRPacketList@CPacketListImplementation@@QAEAAV?$CTypedPtrList@VCObList@@PAVCPacket@@@@XZ ; CPacketListImplementation::GetTRPacketList
?GetTRPacketList@CPacketList@@QAEAAV?$CTypedPtrList@VCObList@@PAVCPacket@@@@XZ ENDP ; CPacketList::GetTRPacketList
_TEXT	ENDS
; Function compile flags: /Ogtp
; File D:\git\src\IBK\IBK_DRFN\ProjSrc\SrcChartEx\ChartOCX\PacketData\PacketList.cpp
;	COMDAT ?GetPacketList@CPacketList@@QBE_NABV?$CStringT@DV?$StrTraitMFC_DLL@DV?$ChTraitsCRT@D@ATL@@@@@ATL@@0AAV?$CList@PAVCPacket@@PAV1@@@@Z
_TEXT	SEGMENT
_strPacketNames$ = 8					; size = 4
_strCompart$ = 12					; size = 4
_packetList$ = 16					; size = 4
?GetPacketList@CPacketList@@QBE_NABV?$CStringT@DV?$StrTraitMFC_DLL@DV?$ChTraitsCRT@D@ATL@@@@@ATL@@0AAV?$CList@PAVCPacket@@PAV1@@@@Z PROC ; CPacketList::GetPacketList, COMDAT
; _this$ = ecx

; 92   : {

  00000	55		 push	 ebp
  00001	8b ec		 mov	 ebp, esp

; 93   : 	return m_pPacketListImple->GetPacketList(strPacketNames, strCompart, packetList);

  00003	8b 49 04	 mov	 ecx, DWORD PTR [ecx+4]

; 94   : }

  00006	5d		 pop	 ebp

; 93   : 	return m_pPacketListImple->GetPacketList(strPacketNames, strCompart, packetList);

  00007	e9 00 00 00 00	 jmp	 ?GetPacketList@CPacketListImplementation@@QBE_NABV?$CStringT@DV?$StrTraitMFC_DLL@DV?$ChTraitsCRT@D@ATL@@@@@ATL@@0AAV?$CList@PAVCPacket@@PAV1@@@@Z ; CPacketListImplementation::GetPacketList
?GetPacketList@CPacketList@@QBE_NABV?$CStringT@DV?$StrTraitMFC_DLL@DV?$ChTraitsCRT@D@ATL@@@@@ATL@@0AAV?$CList@PAVCPacket@@PAV1@@@@Z ENDP ; CPacketList::GetPacketList
_TEXT	ENDS
; Function compile flags: /Ogtp
; File D:\git\src\IBK\IBK_DRFN\ProjSrc\SrcChartEx\ChartOCX\PacketData\PacketList.cpp
;	COMDAT ?GetBaseData@CPacketList@@QAEPAVCPacket@@V?$CStringT@DV?$StrTraitMFC_DLL@DV?$ChTraitsCRT@D@ATL@@@@@ATL@@_N@Z
_TEXT	SEGMENT
__$EHRec$ = -12						; size = 12
_strFunction$ = 8					; size = 4
_bCheckCurrentPacket$ = 12				; size = 1
?GetBaseData@CPacketList@@QAEPAVCPacket@@V?$CStringT@DV?$StrTraitMFC_DLL@DV?$ChTraitsCRT@D@ATL@@@@@ATL@@_N@Z PROC ; CPacketList::GetBaseData, COMDAT
; _this$ = ecx

; 87   : {

  00000	55		 push	 ebp
  00001	8b ec		 mov	 ebp, esp
  00003	6a ff		 push	 -1
  00005	68 00 00 00 00	 push	 __ehhandler$?GetBaseData@CPacketList@@QAEPAVCPacket@@V?$CStringT@DV?$StrTraitMFC_DLL@DV?$ChTraitsCRT@D@ATL@@@@@ATL@@_N@Z
  0000a	64 a1 00 00 00
	00		 mov	 eax, DWORD PTR fs:0
  00010	50		 push	 eax
  00011	56		 push	 esi
  00012	a1 00 00 00 00	 mov	 eax, DWORD PTR ___security_cookie
  00017	33 c5		 xor	 eax, ebp
  00019	50		 push	 eax
  0001a	8d 45 f4	 lea	 eax, DWORD PTR __$EHRec$[ebp]
  0001d	64 a3 00 00 00
	00		 mov	 DWORD PTR fs:0, eax

; 88   : 	return m_pPacketListImple->GetBaseData(strFunction, bCheckCurrentPacket);

  00023	ff 75 0c	 push	 DWORD PTR _bCheckCurrentPacket$[ebp]
  00026	8b 49 04	 mov	 ecx, DWORD PTR [ecx+4]
  00029	8d 45 08	 lea	 eax, DWORD PTR _strFunction$[ebp]
  0002c	50		 push	 eax
  0002d	c7 45 fc 00 00
	00 00		 mov	 DWORD PTR __$EHRec$[ebp+8], 0
  00034	e8 00 00 00 00	 call	 ?GetBaseData@CPacketListImplementation@@QAEPAVCPacket@@ABV?$CStringT@DV?$StrTraitMFC_DLL@DV?$ChTraitsCRT@D@ATL@@@@@ATL@@_N@Z ; CPacketListImplementation::GetBaseData
  00039	8d 4d 08	 lea	 ecx, DWORD PTR _strFunction$[ebp]
  0003c	8b f0		 mov	 esi, eax
  0003e	ff 15 00 00 00
	00		 call	 DWORD PTR __imp_??1?$CStringT@DV?$StrTraitMFC_DLL@DV?$ChTraitsCRT@D@ATL@@@@@ATL@@QAE@XZ
  00044	8b c6		 mov	 eax, esi

; 89   : }

  00046	8b 4d f4	 mov	 ecx, DWORD PTR __$EHRec$[ebp]
  00049	64 89 0d 00 00
	00 00		 mov	 DWORD PTR fs:0, ecx
  00050	59		 pop	 ecx
  00051	5e		 pop	 esi
  00052	8b e5		 mov	 esp, ebp
  00054	5d		 pop	 ebp
  00055	c2 08 00	 ret	 8
_TEXT	ENDS
;	COMDAT text$x
text$x	SEGMENT
__unwindfunclet$?GetBaseData@CPacketList@@QAEPAVCPacket@@V?$CStringT@DV?$StrTraitMFC_DLL@DV?$ChTraitsCRT@D@ATL@@@@@ATL@@_N@Z$0:
  00000	8d 4d 08	 lea	 ecx, DWORD PTR _strFunction$[ebp]
  00003	ff 25 00 00 00
	00		 jmp	 DWORD PTR __imp_??1?$CStringT@DV?$StrTraitMFC_DLL@DV?$ChTraitsCRT@D@ATL@@@@@ATL@@QAE@XZ
  00009	cc		 int	 3
  0000a	cc		 int	 3
  0000b	cc		 int	 3
  0000c	cc		 int	 3
  0000d	cc		 int	 3
__ehhandler$?GetBaseData@CPacketList@@QAEPAVCPacket@@V?$CStringT@DV?$StrTraitMFC_DLL@DV?$ChTraitsCRT@D@ATL@@@@@ATL@@_N@Z:
  0000e	90		 npad	 1
  0000f	90		 npad	 1
  00010	8b 54 24 08	 mov	 edx, DWORD PTR [esp+8]
  00014	8d 42 0c	 lea	 eax, DWORD PTR [edx+12]
  00017	8b 4a f8	 mov	 ecx, DWORD PTR [edx-8]
  0001a	33 c8		 xor	 ecx, eax
  0001c	e8 00 00 00 00	 call	 @__security_check_cookie@4
  00021	b8 00 00 00 00	 mov	 eax, OFFSET __ehfuncinfo$?GetBaseData@CPacketList@@QAEPAVCPacket@@V?$CStringT@DV?$StrTraitMFC_DLL@DV?$ChTraitsCRT@D@ATL@@@@@ATL@@_N@Z
  00026	e9 00 00 00 00	 jmp	 ___CxxFrameHandler3
text$x	ENDS
?GetBaseData@CPacketList@@QAEPAVCPacket@@V?$CStringT@DV?$StrTraitMFC_DLL@DV?$ChTraitsCRT@D@ATL@@@@@ATL@@_N@Z ENDP ; CPacketList::GetBaseData
; Function compile flags: /Ogtp
; File D:\git\src\IBK\IBK_DRFN\ProjSrc\SrcChartEx\ChartOCX\PacketData\PacketList.cpp
;	COMDAT ?GetPacketDataLength@CPacketList@@QAEHH@Z
_TEXT	SEGMENT
_nIndex$ = 8						; size = 4
?GetPacketDataLength@CPacketList@@QAEHH@Z PROC		; CPacketList::GetPacketDataLength, COMDAT
; _this$ = ecx

; 167  : {

  00000	55		 push	 ebp
  00001	8b ec		 mov	 ebp, esp

; 168  : 	return m_pPacketListImple->GetPacketDataLength(nIndex);

  00003	8b 49 04	 mov	 ecx, DWORD PTR [ecx+4]

; 169  : }

  00006	5d		 pop	 ebp

; 168  : 	return m_pPacketListImple->GetPacketDataLength(nIndex);

  00007	e9 00 00 00 00	 jmp	 ?GetPacketDataLength@CPacketListImplementation@@QAEHH@Z ; CPacketListImplementation::GetPacketDataLength
?GetPacketDataLength@CPacketList@@QAEHH@Z ENDP		; CPacketList::GetPacketDataLength
_TEXT	ENDS
; Function compile flags: /Ogtp
; File D:\git\src\IBK\IBK_DRFN\ProjSrc\SrcChartEx\ChartOCX\PacketData\PacketList.cpp
;	COMDAT ?GetUpdateRange@CPacketList@@QAE?AVCPoint@@XZ
_TEXT	SEGMENT
___$ReturnUdt$ = 8					; size = 4
?GetUpdateRange@CPacketList@@QAE?AVCPoint@@XZ PROC	; CPacketList::GetUpdateRange, COMDAT
; _this$ = ecx

; 234  : {

  00000	55		 push	 ebp
  00001	8b ec		 mov	 ebp, esp

; 235  : 	return m_pPacketListImple->GetUpdateRange();

  00003	ff 75 08	 push	 DWORD PTR ___$ReturnUdt$[ebp]
  00006	8b 49 04	 mov	 ecx, DWORD PTR [ecx+4]
  00009	e8 00 00 00 00	 call	 ?GetUpdateRange@CPacketListImplementation@@QAE?AVCPoint@@XZ ; CPacketListImplementation::GetUpdateRange
  0000e	8b 45 08	 mov	 eax, DWORD PTR ___$ReturnUdt$[ebp]

; 236  : }

  00011	5d		 pop	 ebp
  00012	c2 04 00	 ret	 4
?GetUpdateRange@CPacketList@@QAE?AVCPoint@@XZ ENDP	; CPacketList::GetUpdateRange
_TEXT	ENDS
; Function compile flags: /Ogtp
; File D:\git\src\IBK\IBK_DRFN\ProjSrc\SrcChartEx\ChartOCX\PacketData\PacketList.cpp
;	COMDAT ?GetStartDate@CPacketList@@QAEHXZ
_TEXT	SEGMENT
?GetStartDate@CPacketList@@QAEHXZ PROC			; CPacketList::GetStartDate, COMDAT
; _this$ = ecx

; 240  : 	return m_pPacketListImple->GetStartDate();

  00000	8b 49 04	 mov	 ecx, DWORD PTR [ecx+4]
  00003	e9 00 00 00 00	 jmp	 ?GetStartDate@CPacketListImplementation@@QAEHXZ ; CPacketListImplementation::GetStartDate
?GetStartDate@CPacketList@@QAEHXZ ENDP			; CPacketList::GetStartDate
_TEXT	ENDS
; Function compile flags: /Ogtp
; File D:\git\src\IBK\IBK_DRFN\ProjSrc\SrcChartEx\ChartOCX\PacketData\PacketList.cpp
;	COMDAT ?GetEndDate@CPacketList@@QAEHPAVCPacket@@@Z
_TEXT	SEGMENT
_pDatePacket$ = 8					; size = 4
?GetEndDate@CPacketList@@QAEHPAVCPacket@@@Z PROC	; CPacketList::GetEndDate, COMDAT
; _this$ = ecx

; 244  : {

  00000	55		 push	 ebp
  00001	8b ec		 mov	 ebp, esp

; 245  : 	return m_pPacketListImple->GetEndDate(pDatePacket);

  00003	8b 49 04	 mov	 ecx, DWORD PTR [ecx+4]

; 246  : }

  00006	5d		 pop	 ebp

; 245  : 	return m_pPacketListImple->GetEndDate(pDatePacket);

  00007	e9 00 00 00 00	 jmp	 ?GetEndDate@CPacketListImplementation@@QAEHPAVCPacket@@@Z ; CPacketListImplementation::GetEndDate
?GetEndDate@CPacketList@@QAEHPAVCPacket@@@Z ENDP	; CPacketList::GetEndDate
_TEXT	ENDS
; Function compile flags: /Ogtp
; File D:\git\src\IBK\IBK_DRFN\ProjSrc\SrcChartEx\ChartOCX\PacketData\PacketList.cpp
;	COMDAT ?FindKey@CPacketList@@QAE_NV?$CStringT@DV?$StrTraitMFC_DLL@DV?$ChTraitsCRT@D@ATL@@@@@ATL@@@Z
_TEXT	SEGMENT
__$EHRec$ = -12						; size = 12
_strKey$ = 8						; size = 4
?FindKey@CPacketList@@QAE_NV?$CStringT@DV?$StrTraitMFC_DLL@DV?$ChTraitsCRT@D@ATL@@@@@ATL@@@Z PROC ; CPacketList::FindKey, COMDAT
; _this$ = ecx

; 273  : {

  00000	55		 push	 ebp
  00001	8b ec		 mov	 ebp, esp
  00003	6a ff		 push	 -1
  00005	68 00 00 00 00	 push	 __ehhandler$?FindKey@CPacketList@@QAE_NV?$CStringT@DV?$StrTraitMFC_DLL@DV?$ChTraitsCRT@D@ATL@@@@@ATL@@@Z
  0000a	64 a1 00 00 00
	00		 mov	 eax, DWORD PTR fs:0
  00010	50		 push	 eax
  00011	51		 push	 ecx
  00012	53		 push	 ebx
  00013	56		 push	 esi
  00014	a1 00 00 00 00	 mov	 eax, DWORD PTR ___security_cookie
  00019	33 c5		 xor	 eax, ebp
  0001b	50		 push	 eax
  0001c	8d 45 f4	 lea	 eax, DWORD PTR __$EHRec$[ebp]
  0001f	64 a3 00 00 00
	00		 mov	 DWORD PTR fs:0, eax
  00025	8b f1		 mov	 esi, ecx

; 274  : 	return m_pPacketListImple->FindKey(strKey);

  00027	51		 push	 ecx
  00028	8d 45 08	 lea	 eax, DWORD PTR _strKey$[ebp]
  0002b	c7 45 fc 00 00
	00 00		 mov	 DWORD PTR __$EHRec$[ebp+8], 0
  00032	8b cc		 mov	 ecx, esp
  00034	50		 push	 eax
  00035	ff 15 00 00 00
	00		 call	 DWORD PTR __imp_??0?$CStringT@DV?$StrTraitMFC_DLL@DV?$ChTraitsCRT@D@ATL@@@@@ATL@@QAE@ABV01@@Z
  0003b	8b 4e 04	 mov	 ecx, DWORD PTR [esi+4]
  0003e	e8 00 00 00 00	 call	 ?FindKey@CPacketListImplementation@@QAE_NV?$CStringT@DV?$StrTraitMFC_DLL@DV?$ChTraitsCRT@D@ATL@@@@@ATL@@@Z ; CPacketListImplementation::FindKey
  00043	8d 4d 08	 lea	 ecx, DWORD PTR _strKey$[ebp]
  00046	8a d8		 mov	 bl, al
  00048	ff 15 00 00 00
	00		 call	 DWORD PTR __imp_??1?$CStringT@DV?$StrTraitMFC_DLL@DV?$ChTraitsCRT@D@ATL@@@@@ATL@@QAE@XZ
  0004e	8a c3		 mov	 al, bl

; 275  : }

  00050	8b 4d f4	 mov	 ecx, DWORD PTR __$EHRec$[ebp]
  00053	64 89 0d 00 00
	00 00		 mov	 DWORD PTR fs:0, ecx
  0005a	59		 pop	 ecx
  0005b	5e		 pop	 esi
  0005c	5b		 pop	 ebx
  0005d	8b e5		 mov	 esp, ebp
  0005f	5d		 pop	 ebp
  00060	c2 04 00	 ret	 4
_TEXT	ENDS
;	COMDAT text$x
text$x	SEGMENT
__unwindfunclet$?FindKey@CPacketList@@QAE_NV?$CStringT@DV?$StrTraitMFC_DLL@DV?$ChTraitsCRT@D@ATL@@@@@ATL@@@Z$0:
  00000	8d 4d 08	 lea	 ecx, DWORD PTR _strKey$[ebp]
  00003	ff 25 00 00 00
	00		 jmp	 DWORD PTR __imp_??1?$CStringT@DV?$StrTraitMFC_DLL@DV?$ChTraitsCRT@D@ATL@@@@@ATL@@QAE@XZ
  00009	cc		 int	 3
  0000a	cc		 int	 3
  0000b	cc		 int	 3
  0000c	cc		 int	 3
  0000d	cc		 int	 3
__ehhandler$?FindKey@CPacketList@@QAE_NV?$CStringT@DV?$StrTraitMFC_DLL@DV?$ChTraitsCRT@D@ATL@@@@@ATL@@@Z:
  0000e	90		 npad	 1
  0000f	90		 npad	 1
  00010	8b 54 24 08	 mov	 edx, DWORD PTR [esp+8]
  00014	8d 42 0c	 lea	 eax, DWORD PTR [edx+12]
  00017	8b 4a f0	 mov	 ecx, DWORD PTR [edx-16]
  0001a	33 c8		 xor	 ecx, eax
  0001c	e8 00 00 00 00	 call	 @__security_check_cookie@4
  00021	b8 00 00 00 00	 mov	 eax, OFFSET __ehfuncinfo$?FindKey@CPacketList@@QAE_NV?$CStringT@DV?$StrTraitMFC_DLL@DV?$ChTraitsCRT@D@ATL@@@@@ATL@@@Z
  00026	e9 00 00 00 00	 jmp	 ___CxxFrameHandler3
text$x	ENDS
?FindKey@CPacketList@@QAE_NV?$CStringT@DV?$StrTraitMFC_DLL@DV?$ChTraitsCRT@D@ATL@@@@@ATL@@@Z ENDP ; CPacketList::FindKey
; Function compile flags: /Ogtp
; File D:\git\src\IBK\IBK_DRFN\ProjSrc\SrcChartEx\ChartOCX\PacketData\PacketList.cpp
;	COMDAT ?GetUseReal@CPacketList@@QAE_NXZ
_TEXT	SEGMENT
?GetUseReal@CPacketList@@QAE_NXZ PROC			; CPacketList::GetUseReal, COMDAT
; _this$ = ecx

; 250  : 	return m_pPacketListImple->GetUseReal();

  00000	8b 49 04	 mov	 ecx, DWORD PTR [ecx+4]
  00003	e9 00 00 00 00	 jmp	 ?GetUseReal@CPacketListImplementation@@QAE_NXZ ; CPacketListImplementation::GetUseReal
?GetUseReal@CPacketList@@QAE_NXZ ENDP			; CPacketList::GetUseReal
_TEXT	ENDS
; Function compile flags: /Ogtp
; File D:\git\src\IBK\IBK_DRFN\ProjSrc\SrcChartEx\ChartOCX\PacketData\PacketList.cpp
;	COMDAT ?UseRealData@CPacketList@@QAE_NXZ
_TEXT	SEGMENT
?UseRealData@CPacketList@@QAE_NXZ PROC			; CPacketList::UseRealData, COMDAT
; _this$ = ecx

; 321  : 	return m_pPacketListImple->UseRealData();

  00000	8b 41 04	 mov	 eax, DWORD PTR [ecx+4]
  00003	8a 80 80 01 00
	00		 mov	 al, BYTE PTR [eax+384]

; 322  : }

  00009	c3		 ret	 0
?UseRealData@CPacketList@@QAE_NXZ ENDP			; CPacketList::UseRealData
_TEXT	ENDS
; Function compile flags: /Ogtp
; File D:\git\src\IBK\IBK_DRFN\ProjSrc\SrcChartEx\ChartOCX\PacketData\PacketList.cpp
;	COMDAT ?GetPriceType@CPacketList@@QAE?AW4PRICETYPE@CPacketType@@XZ
_TEXT	SEGMENT
?GetPriceType@CPacketList@@QAE?AW4PRICETYPE@CPacketType@@XZ PROC ; CPacketList::GetPriceType, COMDAT
; _this$ = ecx

; 331  : 	return m_pPacketListImple->GetPriceType();

  00000	8b 41 04	 mov	 eax, DWORD PTR [ecx+4]
  00003	8b 80 7c 01 00
	00		 mov	 eax, DWORD PTR [eax+380]

; 332  : }

  00009	c3		 ret	 0
?GetPriceType@CPacketList@@QAE?AW4PRICETYPE@CPacketType@@XZ ENDP ; CPacketList::GetPriceType
_TEXT	ENDS
; Function compile flags: /Ogtp
; File D:\git\src\IBK\IBK_DRFN\ProjSrc\SrcChartEx\ChartOCX\PacketData\PacketList.cpp
;	COMDAT ?GetRealKeyName@CPacketList@@QAEPAV?$CList@V?$CStringT@DV?$StrTraitMFC_DLL@DV?$ChTraitsCRT@D@ATL@@@@@ATL@@V12@@@XZ
_TEXT	SEGMENT
?GetRealKeyName@CPacketList@@QAEPAV?$CList@V?$CStringT@DV?$StrTraitMFC_DLL@DV?$ChTraitsCRT@D@ATL@@@@@ATL@@V12@@@XZ PROC ; CPacketList::GetRealKeyName, COMDAT
; _this$ = ecx

; 326  : 	return m_pPacketListImple->GetRealKeyName();

  00000	8b 41 04	 mov	 eax, DWORD PTR [ecx+4]
  00003	83 c0 50	 add	 eax, 80			; 00000050H

; 327  : }

  00006	c3		 ret	 0
?GetRealKeyName@CPacketList@@QAEPAV?$CList@V?$CStringT@DV?$StrTraitMFC_DLL@DV?$ChTraitsCRT@D@ATL@@@@@ATL@@V12@@@XZ ENDP ; CPacketList::GetRealKeyName
_TEXT	ENDS
; Function compile flags: /Ogtp
; File D:\git\src\IBK\IBK_DRFN\ProjSrc\SrcChartEx\ChartOCX\PacketData\PacketList.cpp
;	COMDAT ?GetDataInsertType@CPacketList@@QAE?AW4DATAINSERTTYPE@CPacketDataInfo@@XZ
_TEXT	SEGMENT
?GetDataInsertType@CPacketList@@QAE?AW4DATAINSERTTYPE@CPacketDataInfo@@XZ PROC ; CPacketList::GetDataInsertType, COMDAT
; _this$ = ecx

; 183  : 	return m_pPacketListImple->GetDataInsertType();

  00000	8b 49 04	 mov	 ecx, DWORD PTR [ecx+4]
  00003	e9 00 00 00 00	 jmp	 ?GetDataInsertType@CPacketListImplementation@@QAE?AW4DATAINSERTTYPE@CPacketDataInfo@@XZ ; CPacketListImplementation::GetDataInsertType
?GetDataInsertType@CPacketList@@QAE?AW4DATAINSERTTYPE@CPacketDataInfo@@XZ ENDP ; CPacketList::GetDataInsertType
_TEXT	ENDS
; Function compile flags: /Ogtp
; File D:\git\src\IBK\IBK_DRFN\ProjSrc\SrcChartEx\ChartOCX\PacketData\PacketList.cpp
;	COMDAT ?GetDateUnitType@CPacketList@@QAE?AW4HORZSCALEDRAWERTYPE@CScaleBaseData@@XZ
_TEXT	SEGMENT
?GetDateUnitType@CPacketList@@QAE?AW4HORZSCALEDRAWERTYPE@CScaleBaseData@@XZ PROC ; CPacketList::GetDateUnitType, COMDAT
; _this$ = ecx

; 230  : 	return m_pPacketListImple->GetDateUnitType();

  00000	8b 49 04	 mov	 ecx, DWORD PTR [ecx+4]
  00003	e9 00 00 00 00	 jmp	 ?GetDateUnitType@CPacketListImplementation@@QAE?AW4HORZSCALEDRAWERTYPE@CScaleBaseData@@XZ ; CPacketListImplementation::GetDateUnitType
?GetDateUnitType@CPacketList@@QAE?AW4HORZSCALEDRAWERTYPE@CScaleBaseData@@XZ ENDP ; CPacketList::GetDateUnitType
_TEXT	ENDS
; Function compile flags: /Ogtp
; File D:\git\src\IBK\IBK_DRFN\ProjSrc\SrcChartEx\ChartOCX\PacketData\PacketList.cpp
;	COMDAT ?GetCurrentDate@CPacketList@@QAENXZ
_TEXT	SEGMENT
?GetCurrentDate@CPacketList@@QAENXZ PROC		; CPacketList::GetCurrentDate, COMDAT
; _this$ = ecx

; 301  : 	return m_pPacketListImple->GetCurrentDate();

  00000	8b 49 04	 mov	 ecx, DWORD PTR [ecx+4]
  00003	e9 00 00 00 00	 jmp	 ?GetCurrentDate@CPacketListImplementation@@QAENXZ ; CPacketListImplementation::GetCurrentDate
?GetCurrentDate@CPacketList@@QAENXZ ENDP		; CPacketList::GetCurrentDate
_TEXT	ENDS
; Function compile flags: /Ogtp
; File D:\git\src\IBK\IBK_DRFN\ProjSrc\SrcChartEx\ChartOCX\PacketData\PacketList.cpp
;	COMDAT ?GetDataFromIndex@CPacketList@@QAENV?$CStringT@DV?$StrTraitMFC_DLL@DV?$ChTraitsCRT@D@ATL@@@@@ATL@@H@Z
_TEXT	SEGMENT
tv85 = -20						; size = 8
__$EHRec$ = -12						; size = 12
_strFunction$ = 8					; size = 4
_nIndex$ = 12						; size = 4
?GetDataFromIndex@CPacketList@@QAENV?$CStringT@DV?$StrTraitMFC_DLL@DV?$ChTraitsCRT@D@ATL@@@@@ATL@@H@Z PROC ; CPacketList::GetDataFromIndex, COMDAT
; _this$ = ecx

; 262  : {

  00000	55		 push	 ebp
  00001	8b ec		 mov	 ebp, esp
  00003	6a ff		 push	 -1
  00005	68 00 00 00 00	 push	 __ehhandler$?GetDataFromIndex@CPacketList@@QAENV?$CStringT@DV?$StrTraitMFC_DLL@DV?$ChTraitsCRT@D@ATL@@@@@ATL@@H@Z
  0000a	64 a1 00 00 00
	00		 mov	 eax, DWORD PTR fs:0
  00010	50		 push	 eax
  00011	83 ec 08	 sub	 esp, 8
  00014	56		 push	 esi
  00015	a1 00 00 00 00	 mov	 eax, DWORD PTR ___security_cookie
  0001a	33 c5		 xor	 eax, ebp
  0001c	50		 push	 eax
  0001d	8d 45 f4	 lea	 eax, DWORD PTR __$EHRec$[ebp]
  00020	64 a3 00 00 00
	00		 mov	 DWORD PTR fs:0, eax
  00026	8b f1		 mov	 esi, ecx

; 263  : 	return m_pPacketListImple->GetDataFromIndex(strFunction, nIndex);

  00028	ff 75 0c	 push	 DWORD PTR _nIndex$[ebp]
  0002b	8d 45 08	 lea	 eax, DWORD PTR _strFunction$[ebp]
  0002e	c7 45 fc 00 00
	00 00		 mov	 DWORD PTR __$EHRec$[ebp+8], 0
  00035	51		 push	 ecx
  00036	8b cc		 mov	 ecx, esp
  00038	50		 push	 eax
  00039	ff 15 00 00 00
	00		 call	 DWORD PTR __imp_??0?$CStringT@DV?$StrTraitMFC_DLL@DV?$ChTraitsCRT@D@ATL@@@@@ATL@@QAE@ABV01@@Z
  0003f	8b 4e 04	 mov	 ecx, DWORD PTR [esi+4]
  00042	e8 00 00 00 00	 call	 ?GetDataFromIndex@CPacketListImplementation@@QAENV?$CStringT@DV?$StrTraitMFC_DLL@DV?$ChTraitsCRT@D@ATL@@@@@ATL@@H@Z ; CPacketListImplementation::GetDataFromIndex
  00047	8d 4d 08	 lea	 ecx, DWORD PTR _strFunction$[ebp]
  0004a	dd 5d ec	 fstp	 QWORD PTR tv85[ebp]
  0004d	ff 15 00 00 00
	00		 call	 DWORD PTR __imp_??1?$CStringT@DV?$StrTraitMFC_DLL@DV?$ChTraitsCRT@D@ATL@@@@@ATL@@QAE@XZ
  00053	dd 45 ec	 fld	 QWORD PTR tv85[ebp]

; 264  : }

  00056	8b 4d f4	 mov	 ecx, DWORD PTR __$EHRec$[ebp]
  00059	64 89 0d 00 00
	00 00		 mov	 DWORD PTR fs:0, ecx
  00060	59		 pop	 ecx
  00061	5e		 pop	 esi
  00062	8b e5		 mov	 esp, ebp
  00064	5d		 pop	 ebp
  00065	c2 08 00	 ret	 8
_TEXT	ENDS
;	COMDAT text$x
text$x	SEGMENT
__unwindfunclet$?GetDataFromIndex@CPacketList@@QAENV?$CStringT@DV?$StrTraitMFC_DLL@DV?$ChTraitsCRT@D@ATL@@@@@ATL@@H@Z$0:
  00000	8d 4d 08	 lea	 ecx, DWORD PTR _strFunction$[ebp]
  00003	ff 25 00 00 00
	00		 jmp	 DWORD PTR __imp_??1?$CStringT@DV?$StrTraitMFC_DLL@DV?$ChTraitsCRT@D@ATL@@@@@ATL@@QAE@XZ
  00009	cc		 int	 3
  0000a	cc		 int	 3
  0000b	cc		 int	 3
  0000c	cc		 int	 3
  0000d	cc		 int	 3
__ehhandler$?GetDataFromIndex@CPacketList@@QAENV?$CStringT@DV?$StrTraitMFC_DLL@DV?$ChTraitsCRT@D@ATL@@@@@ATL@@H@Z:
  0000e	90		 npad	 1
  0000f	90		 npad	 1
  00010	8b 54 24 08	 mov	 edx, DWORD PTR [esp+8]
  00014	8d 42 0c	 lea	 eax, DWORD PTR [edx+12]
  00017	8b 4a f0	 mov	 ecx, DWORD PTR [edx-16]
  0001a	33 c8		 xor	 ecx, eax
  0001c	e8 00 00 00 00	 call	 @__security_check_cookie@4
  00021	b8 00 00 00 00	 mov	 eax, OFFSET __ehfuncinfo$?GetDataFromIndex@CPacketList@@QAENV?$CStringT@DV?$StrTraitMFC_DLL@DV?$ChTraitsCRT@D@ATL@@@@@ATL@@H@Z
  00026	e9 00 00 00 00	 jmp	 ___CxxFrameHandler3
text$x	ENDS
?GetDataFromIndex@CPacketList@@QAENV?$CStringT@DV?$StrTraitMFC_DLL@DV?$ChTraitsCRT@D@ATL@@@@@ATL@@H@Z ENDP ; CPacketList::GetDataFromIndex
; Function compile flags: /Ogtp
; File D:\git\src\IBK\IBK_DRFN\ProjSrc\SrcChartEx\ChartOCX\PacketData\PacketList.cpp
;	COMDAT ?GetStrDataFromIndex@CPacketList@@QAE?AV?$CStringT@DV?$StrTraitMFC_DLL@DV?$ChTraitsCRT@D@ATL@@@@@ATL@@V23@H@Z
_TEXT	SEGMENT
__$EHRec$ = -12						; size = 12
___$ReturnUdt$ = 8					; size = 4
_strFunction$ = 12					; size = 4
_nIndex$ = 16						; size = 4
?GetStrDataFromIndex@CPacketList@@QAE?AV?$CStringT@DV?$StrTraitMFC_DLL@DV?$ChTraitsCRT@D@ATL@@@@@ATL@@V23@H@Z PROC ; CPacketList::GetStrDataFromIndex, COMDAT
; _this$ = ecx

; 268  : {

  00000	55		 push	 ebp
  00001	8b ec		 mov	 ebp, esp
  00003	6a ff		 push	 -1
  00005	68 00 00 00 00	 push	 __ehhandler$?GetStrDataFromIndex@CPacketList@@QAE?AV?$CStringT@DV?$StrTraitMFC_DLL@DV?$ChTraitsCRT@D@ATL@@@@@ATL@@V23@H@Z
  0000a	64 a1 00 00 00
	00		 mov	 eax, DWORD PTR fs:0
  00010	50		 push	 eax
  00011	57		 push	 edi
  00012	a1 00 00 00 00	 mov	 eax, DWORD PTR ___security_cookie
  00017	33 c5		 xor	 eax, ebp
  00019	50		 push	 eax
  0001a	8d 45 f4	 lea	 eax, DWORD PTR __$EHRec$[ebp]
  0001d	64 a3 00 00 00
	00		 mov	 DWORD PTR fs:0, eax
  00023	8b f9		 mov	 edi, ecx

; 269  : 	return m_pPacketListImple->GetStrDataFromIndex(strFunction, nIndex);

  00025	ff 75 10	 push	 DWORD PTR _nIndex$[ebp]
  00028	8d 45 0c	 lea	 eax, DWORD PTR _strFunction$[ebp]
  0002b	c7 45 fc 00 00
	00 00		 mov	 DWORD PTR __$EHRec$[ebp+8], 0
  00032	51		 push	 ecx
  00033	8b cc		 mov	 ecx, esp
  00035	50		 push	 eax
  00036	ff 15 00 00 00
	00		 call	 DWORD PTR __imp_??0?$CStringT@DV?$StrTraitMFC_DLL@DV?$ChTraitsCRT@D@ATL@@@@@ATL@@QAE@ABV01@@Z
  0003c	ff 75 08	 push	 DWORD PTR ___$ReturnUdt$[ebp]
  0003f	8b 4f 04	 mov	 ecx, DWORD PTR [edi+4]
  00042	e8 00 00 00 00	 call	 ?GetStrDataFromIndex@CPacketListImplementation@@QAE?AV?$CStringT@DV?$StrTraitMFC_DLL@DV?$ChTraitsCRT@D@ATL@@@@@ATL@@V23@H@Z ; CPacketListImplementation::GetStrDataFromIndex
  00047	8d 4d 0c	 lea	 ecx, DWORD PTR _strFunction$[ebp]
  0004a	ff 15 00 00 00
	00		 call	 DWORD PTR __imp_??1?$CStringT@DV?$StrTraitMFC_DLL@DV?$ChTraitsCRT@D@ATL@@@@@ATL@@QAE@XZ
  00050	8b 45 08	 mov	 eax, DWORD PTR ___$ReturnUdt$[ebp]

; 270  : }

  00053	8b 4d f4	 mov	 ecx, DWORD PTR __$EHRec$[ebp]
  00056	64 89 0d 00 00
	00 00		 mov	 DWORD PTR fs:0, ecx
  0005d	59		 pop	 ecx
  0005e	5f		 pop	 edi
  0005f	8b e5		 mov	 esp, ebp
  00061	5d		 pop	 ebp
  00062	c2 0c 00	 ret	 12			; 0000000cH
_TEXT	ENDS
;	COMDAT text$x
text$x	SEGMENT
__unwindfunclet$?GetStrDataFromIndex@CPacketList@@QAE?AV?$CStringT@DV?$StrTraitMFC_DLL@DV?$ChTraitsCRT@D@ATL@@@@@ATL@@V23@H@Z$0:
  00000	8d 4d 0c	 lea	 ecx, DWORD PTR _strFunction$[ebp]
  00003	ff 25 00 00 00
	00		 jmp	 DWORD PTR __imp_??1?$CStringT@DV?$StrTraitMFC_DLL@DV?$ChTraitsCRT@D@ATL@@@@@ATL@@QAE@XZ
  00009	cc		 int	 3
  0000a	cc		 int	 3
  0000b	cc		 int	 3
  0000c	cc		 int	 3
  0000d	cc		 int	 3
__ehhandler$?GetStrDataFromIndex@CPacketList@@QAE?AV?$CStringT@DV?$StrTraitMFC_DLL@DV?$ChTraitsCRT@D@ATL@@@@@ATL@@V23@H@Z:
  0000e	90		 npad	 1
  0000f	90		 npad	 1
  00010	8b 54 24 08	 mov	 edx, DWORD PTR [esp+8]
  00014	8d 42 0c	 lea	 eax, DWORD PTR [edx+12]
  00017	8b 4a f8	 mov	 ecx, DWORD PTR [edx-8]
  0001a	33 c8		 xor	 ecx, eax
  0001c	e8 00 00 00 00	 call	 @__security_check_cookie@4
  00021	b8 00 00 00 00	 mov	 eax, OFFSET __ehfuncinfo$?GetStrDataFromIndex@CPacketList@@QAE?AV?$CStringT@DV?$StrTraitMFC_DLL@DV?$ChTraitsCRT@D@ATL@@@@@ATL@@V23@H@Z
  00026	e9 00 00 00 00	 jmp	 ___CxxFrameHandler3
text$x	ENDS
?GetStrDataFromIndex@CPacketList@@QAE?AV?$CStringT@DV?$StrTraitMFC_DLL@DV?$ChTraitsCRT@D@ATL@@@@@ATL@@V23@H@Z ENDP ; CPacketList::GetStrDataFromIndex
; Function compile flags: /Ogtp
; File D:\git\src\IBK\IBK_DRFN\ProjSrc\SrcChartEx\ChartOCX\PacketData\PacketList.cpp
;	COMDAT ?GetPacketType@CPacketList@@QAE?AV?$CStringT@DV?$StrTraitMFC_DLL@DV?$ChTraitsCRT@D@ATL@@@@@ATL@@PAVCPacket@@_N@Z
_TEXT	SEGMENT
___$ReturnUdt$ = 8					; size = 4
_pPacket$ = 12						; size = 4
_bIsFullType$ = 16					; size = 1
?GetPacketType@CPacketList@@QAE?AV?$CStringT@DV?$StrTraitMFC_DLL@DV?$ChTraitsCRT@D@ATL@@@@@ATL@@PAVCPacket@@_N@Z PROC ; CPacketList::GetPacketType, COMDAT
; _this$ = ecx

; 172  : {

  00000	55		 push	 ebp
  00001	8b ec		 mov	 ebp, esp

; 173  : 	return m_pPacketListImple->GetPacketType(pPacket, bIsFullType);

  00003	ff 75 10	 push	 DWORD PTR _bIsFullType$[ebp]
  00006	8b 49 04	 mov	 ecx, DWORD PTR [ecx+4]
  00009	ff 75 0c	 push	 DWORD PTR _pPacket$[ebp]
  0000c	ff 75 08	 push	 DWORD PTR ___$ReturnUdt$[ebp]
  0000f	e8 00 00 00 00	 call	 ?GetPacketType@CPacketListImplementation@@QAE?AV?$CStringT@DV?$StrTraitMFC_DLL@DV?$ChTraitsCRT@D@ATL@@@@@ATL@@PAVCPacket@@_N@Z ; CPacketListImplementation::GetPacketType
  00014	8b 45 08	 mov	 eax, DWORD PTR ___$ReturnUdt$[ebp]

; 174  : }

  00017	5d		 pop	 ebp
  00018	c2 0c 00	 ret	 12			; 0000000cH
?GetPacketType@CPacketList@@QAE?AV?$CStringT@DV?$StrTraitMFC_DLL@DV?$ChTraitsCRT@D@ATL@@@@@ATL@@PAVCPacket@@_N@Z ENDP ; CPacketList::GetPacketType
_TEXT	ENDS
; Function compile flags: /Ogtp
; File D:\git\src\IBK\IBK_DRFN\ProjSrc\SrcChartEx\ChartOCX\PacketData\PacketList.cpp
;	COMDAT ?GetPacketType@CPacketList@@QAE?AV?$CStringT@DV?$StrTraitMFC_DLL@DV?$ChTraitsCRT@D@ATL@@@@@ATL@@V23@_N@Z
_TEXT	SEGMENT
__$EHRec$ = -12						; size = 12
___$ReturnUdt$ = 8					; size = 4
_strPacketName$ = 12					; size = 4
_bIsFullType$ = 16					; size = 1
?GetPacketType@CPacketList@@QAE?AV?$CStringT@DV?$StrTraitMFC_DLL@DV?$ChTraitsCRT@D@ATL@@@@@ATL@@V23@_N@Z PROC ; CPacketList::GetPacketType, COMDAT
; _this$ = ecx

; 256  : {

  00000	55		 push	 ebp
  00001	8b ec		 mov	 ebp, esp
  00003	6a ff		 push	 -1
  00005	68 00 00 00 00	 push	 __ehhandler$?GetPacketType@CPacketList@@QAE?AV?$CStringT@DV?$StrTraitMFC_DLL@DV?$ChTraitsCRT@D@ATL@@@@@ATL@@V23@_N@Z
  0000a	64 a1 00 00 00
	00		 mov	 eax, DWORD PTR fs:0
  00010	50		 push	 eax
  00011	57		 push	 edi
  00012	a1 00 00 00 00	 mov	 eax, DWORD PTR ___security_cookie
  00017	33 c5		 xor	 eax, ebp
  00019	50		 push	 eax
  0001a	8d 45 f4	 lea	 eax, DWORD PTR __$EHRec$[ebp]
  0001d	64 a3 00 00 00
	00		 mov	 DWORD PTR fs:0, eax
  00023	8b f9		 mov	 edi, ecx

; 257  : 	return m_pPacketListImple->GetPacketType(strPacketName, bIsFullType);

  00025	ff 75 10	 push	 DWORD PTR _bIsFullType$[ebp]
  00028	8d 45 0c	 lea	 eax, DWORD PTR _strPacketName$[ebp]
  0002b	c7 45 fc 00 00
	00 00		 mov	 DWORD PTR __$EHRec$[ebp+8], 0
  00032	51		 push	 ecx
  00033	8b cc		 mov	 ecx, esp
  00035	50		 push	 eax
  00036	ff 15 00 00 00
	00		 call	 DWORD PTR __imp_??0?$CStringT@DV?$StrTraitMFC_DLL@DV?$ChTraitsCRT@D@ATL@@@@@ATL@@QAE@ABV01@@Z
  0003c	ff 75 08	 push	 DWORD PTR ___$ReturnUdt$[ebp]
  0003f	8b 4f 04	 mov	 ecx, DWORD PTR [edi+4]
  00042	e8 00 00 00 00	 call	 ?GetPacketType@CPacketListImplementation@@QAE?AV?$CStringT@DV?$StrTraitMFC_DLL@DV?$ChTraitsCRT@D@ATL@@@@@ATL@@V23@_N@Z ; CPacketListImplementation::GetPacketType
  00047	8d 4d 0c	 lea	 ecx, DWORD PTR _strPacketName$[ebp]
  0004a	ff 15 00 00 00
	00		 call	 DWORD PTR __imp_??1?$CStringT@DV?$StrTraitMFC_DLL@DV?$ChTraitsCRT@D@ATL@@@@@ATL@@QAE@XZ
  00050	8b 45 08	 mov	 eax, DWORD PTR ___$ReturnUdt$[ebp]

; 258  : }

  00053	8b 4d f4	 mov	 ecx, DWORD PTR __$EHRec$[ebp]
  00056	64 89 0d 00 00
	00 00		 mov	 DWORD PTR fs:0, ecx
  0005d	59		 pop	 ecx
  0005e	5f		 pop	 edi
  0005f	8b e5		 mov	 esp, ebp
  00061	5d		 pop	 ebp
  00062	c2 0c 00	 ret	 12			; 0000000cH
_TEXT	ENDS
;	COMDAT text$x
text$x	SEGMENT
__unwindfunclet$?GetPacketType@CPacketList@@QAE?AV?$CStringT@DV?$StrTraitMFC_DLL@DV?$ChTraitsCRT@D@ATL@@@@@ATL@@V23@_N@Z$0:
  00000	8d 4d 0c	 lea	 ecx, DWORD PTR _strPacketName$[ebp]
  00003	ff 25 00 00 00
	00		 jmp	 DWORD PTR __imp_??1?$CStringT@DV?$StrTraitMFC_DLL@DV?$ChTraitsCRT@D@ATL@@@@@ATL@@QAE@XZ
  00009	cc		 int	 3
  0000a	cc		 int	 3
  0000b	cc		 int	 3
  0000c	cc		 int	 3
  0000d	cc		 int	 3
__ehhandler$?GetPacketType@CPacketList@@QAE?AV?$CStringT@DV?$StrTraitMFC_DLL@DV?$ChTraitsCRT@D@ATL@@@@@ATL@@V23@_N@Z:
  0000e	90		 npad	 1
  0000f	90		 npad	 1
  00010	8b 54 24 08	 mov	 edx, DWORD PTR [esp+8]
  00014	8d 42 0c	 lea	 eax, DWORD PTR [edx+12]
  00017	8b 4a f8	 mov	 ecx, DWORD PTR [edx-8]
  0001a	33 c8		 xor	 ecx, eax
  0001c	e8 00 00 00 00	 call	 @__security_check_cookie@4
  00021	b8 00 00 00 00	 mov	 eax, OFFSET __ehfuncinfo$?GetPacketType@CPacketList@@QAE?AV?$CStringT@DV?$StrTraitMFC_DLL@DV?$ChTraitsCRT@D@ATL@@@@@ATL@@V23@_N@Z
  00026	e9 00 00 00 00	 jmp	 ___CxxFrameHandler3
text$x	ENDS
?GetPacketType@CPacketList@@QAE?AV?$CStringT@DV?$StrTraitMFC_DLL@DV?$ChTraitsCRT@D@ATL@@@@@ATL@@V23@_N@Z ENDP ; CPacketList::GetPacketType
; Function compile flags: /Ogtp
; File D:\git\src\IBK\IBK_DRFN\ProjSrc\SrcChartEx\ChartOCX\PacketData\PacketList.cpp
;	COMDAT ?GetstrDataList@CPacketList@@QAEPAV?$CList@V?$CStringT@DV?$StrTraitMFC_DLL@DV?$ChTraitsCRT@D@ATL@@@@@ATL@@V12@@@PAVCPacket@@@Z
_TEXT	SEGMENT
_pPacket$ = 8						; size = 4
?GetstrDataList@CPacketList@@QAEPAV?$CList@V?$CStringT@DV?$StrTraitMFC_DLL@DV?$ChTraitsCRT@D@ATL@@@@@ATL@@V12@@@PAVCPacket@@@Z PROC ; CPacketList::GetstrDataList, COMDAT
; _this$ = ecx

; 156  : {

  00000	55		 push	 ebp
  00001	8b ec		 mov	 ebp, esp

; 157  : 	return m_pPacketListImple->GetstrDataList(pPacket);

  00003	8b 49 04	 mov	 ecx, DWORD PTR [ecx+4]

; 158  : }

  00006	5d		 pop	 ebp

; 157  : 	return m_pPacketListImple->GetstrDataList(pPacket);

  00007	e9 00 00 00 00	 jmp	 ?GetstrDataList@CPacketListImplementation@@QAEPAV?$CList@V?$CStringT@DV?$StrTraitMFC_DLL@DV?$ChTraitsCRT@D@ATL@@@@@ATL@@V12@@@PAVCPacket@@@Z ; CPacketListImplementation::GetstrDataList
?GetstrDataList@CPacketList@@QAEPAV?$CList@V?$CStringT@DV?$StrTraitMFC_DLL@DV?$ChTraitsCRT@D@ATL@@@@@ATL@@V12@@@PAVCPacket@@@Z ENDP ; CPacketList::GetstrDataList
_TEXT	ENDS
; Function compile flags: /Ogtp
; File D:\git\src\IBK\IBK_DRFN\ProjSrc\SrcChartEx\ChartOCX\PacketData\PacketList.cpp
;	COMDAT ?GetnumericDataList@CPacketList@@QAEPAV?$CList@NN@@PAVCPacket@@@Z
_TEXT	SEGMENT
_pPacket$ = 8						; size = 4
?GetnumericDataList@CPacketList@@QAEPAV?$CList@NN@@PAVCPacket@@@Z PROC ; CPacketList::GetnumericDataList, COMDAT
; _this$ = ecx

; 151  : {

  00000	55		 push	 ebp
  00001	8b ec		 mov	 ebp, esp

; 152  : 	return m_pPacketListImple->GetnumericDataList(pPacket);

  00003	8b 49 04	 mov	 ecx, DWORD PTR [ecx+4]

; 153  : }

  00006	5d		 pop	 ebp

; 152  : 	return m_pPacketListImple->GetnumericDataList(pPacket);

  00007	e9 00 00 00 00	 jmp	 ?GetnumericDataList@CPacketListImplementation@@QAEPAV?$CList@NN@@PAVCPacket@@@Z ; CPacketListImplementation::GetnumericDataList
?GetnumericDataList@CPacketList@@QAEPAV?$CList@NN@@PAVCPacket@@@Z ENDP ; CPacketList::GetnumericDataList
_TEXT	ENDS
; Function compile flags: /Ogtp
; File D:\git\src\IBK\IBK_DRFN\ProjSrc\SrcChartEx\ChartOCX\PacketData\PacketList.cpp
;	COMDAT ?GetAllPacketsMinMax@CPacketList@@QAE_NHHAAN0@Z
_TEXT	SEGMENT
_nStart$ = 8						; size = 4
_nEnd$ = 12						; size = 4
_dMin$ = 16						; size = 4
_dMax$ = 20						; size = 4
?GetAllPacketsMinMax@CPacketList@@QAE_NHHAAN0@Z PROC	; CPacketList::GetAllPacketsMinMax, COMDAT
; _this$ = ecx

; 116  : {

  00000	55		 push	 ebp
  00001	8b ec		 mov	 ebp, esp

; 117  : 	return 	m_pPacketListImple->GetAllPacketsMinMax(nStart, nEnd, dMin, dMax);

  00003	8b 49 04	 mov	 ecx, DWORD PTR [ecx+4]

; 118  : }

  00006	5d		 pop	 ebp

; 117  : 	return 	m_pPacketListImple->GetAllPacketsMinMax(nStart, nEnd, dMin, dMax);

  00007	e9 00 00 00 00	 jmp	 ?GetAllPacketsMinMax@CPacketListImplementation@@QAE_NHHAAN0@Z ; CPacketListImplementation::GetAllPacketsMinMax
?GetAllPacketsMinMax@CPacketList@@QAE_NHHAAN0@Z ENDP	; CPacketList::GetAllPacketsMinMax
_TEXT	ENDS
; Function compile flags: /Ogtp
; File D:\git\src\IBK\IBK_DRFN\ProjSrc\SrcChartEx\ChartOCX\PacketData\PacketList.cpp
;	COMDAT ?GetMinMax@CPacketList@@QAEHHHV?$CStringT@DV?$StrTraitMFC_DLL@DV?$ChTraitsCRT@D@ATL@@@@@ATL@@AAN1@Z
_TEXT	SEGMENT
__$EHRec$ = -12						; size = 12
_nStart$ = 8						; size = 4
_nEnd$ = 12						; size = 4
_strPacketNameList$ = 16				; size = 4
_nMin$ = 20						; size = 4
_nMax$ = 24						; size = 4
?GetMinMax@CPacketList@@QAEHHHV?$CStringT@DV?$StrTraitMFC_DLL@DV?$ChTraitsCRT@D@ATL@@@@@ATL@@AAN1@Z PROC ; CPacketList::GetMinMax, COMDAT
; _this$ = ecx

; 111  : {

  00000	55		 push	 ebp
  00001	8b ec		 mov	 ebp, esp
  00003	6a ff		 push	 -1
  00005	68 00 00 00 00	 push	 __ehhandler$?GetMinMax@CPacketList@@QAEHHHV?$CStringT@DV?$StrTraitMFC_DLL@DV?$ChTraitsCRT@D@ATL@@@@@ATL@@AAN1@Z
  0000a	64 a1 00 00 00
	00		 mov	 eax, DWORD PTR fs:0
  00010	50		 push	 eax
  00011	56		 push	 esi
  00012	a1 00 00 00 00	 mov	 eax, DWORD PTR ___security_cookie
  00017	33 c5		 xor	 eax, ebp
  00019	50		 push	 eax
  0001a	8d 45 f4	 lea	 eax, DWORD PTR __$EHRec$[ebp]
  0001d	64 a3 00 00 00
	00		 mov	 DWORD PTR fs:0, eax
  00023	8b f1		 mov	 esi, ecx

; 112  : 	return 	m_pPacketListImple->GetMinMax(nStart, nEnd, strPacketNameList, nMin, nMax);

  00025	ff 75 18	 push	 DWORD PTR _nMax$[ebp]
  00028	8d 45 10	 lea	 eax, DWORD PTR _strPacketNameList$[ebp]
  0002b	c7 45 fc 00 00
	00 00		 mov	 DWORD PTR __$EHRec$[ebp+8], 0
  00032	ff 75 14	 push	 DWORD PTR _nMin$[ebp]
  00035	51		 push	 ecx
  00036	8b cc		 mov	 ecx, esp
  00038	50		 push	 eax
  00039	ff 15 00 00 00
	00		 call	 DWORD PTR __imp_??0?$CStringT@DV?$StrTraitMFC_DLL@DV?$ChTraitsCRT@D@ATL@@@@@ATL@@QAE@ABV01@@Z
  0003f	ff 75 0c	 push	 DWORD PTR _nEnd$[ebp]
  00042	8b 4e 04	 mov	 ecx, DWORD PTR [esi+4]
  00045	ff 75 08	 push	 DWORD PTR _nStart$[ebp]
  00048	e8 00 00 00 00	 call	 ?GetMinMax@CPacketListImplementation@@QAEHHHV?$CStringT@DV?$StrTraitMFC_DLL@DV?$ChTraitsCRT@D@ATL@@@@@ATL@@AAN1@Z ; CPacketListImplementation::GetMinMax
  0004d	8d 4d 10	 lea	 ecx, DWORD PTR _strPacketNameList$[ebp]
  00050	8b f0		 mov	 esi, eax
  00052	ff 15 00 00 00
	00		 call	 DWORD PTR __imp_??1?$CStringT@DV?$StrTraitMFC_DLL@DV?$ChTraitsCRT@D@ATL@@@@@ATL@@QAE@XZ
  00058	8b c6		 mov	 eax, esi

; 113  : }

  0005a	8b 4d f4	 mov	 ecx, DWORD PTR __$EHRec$[ebp]
  0005d	64 89 0d 00 00
	00 00		 mov	 DWORD PTR fs:0, ecx
  00064	59		 pop	 ecx
  00065	5e		 pop	 esi
  00066	8b e5		 mov	 esp, ebp
  00068	5d		 pop	 ebp
  00069	c2 14 00	 ret	 20			; 00000014H
_TEXT	ENDS
;	COMDAT text$x
text$x	SEGMENT
__unwindfunclet$?GetMinMax@CPacketList@@QAEHHHV?$CStringT@DV?$StrTraitMFC_DLL@DV?$ChTraitsCRT@D@ATL@@@@@ATL@@AAN1@Z$0:
  00000	8d 4d 10	 lea	 ecx, DWORD PTR _strPacketNameList$[ebp]
  00003	ff 25 00 00 00
	00		 jmp	 DWORD PTR __imp_??1?$CStringT@DV?$StrTraitMFC_DLL@DV?$ChTraitsCRT@D@ATL@@@@@ATL@@QAE@XZ
  00009	cc		 int	 3
  0000a	cc		 int	 3
  0000b	cc		 int	 3
  0000c	cc		 int	 3
  0000d	cc		 int	 3
__ehhandler$?GetMinMax@CPacketList@@QAEHHHV?$CStringT@DV?$StrTraitMFC_DLL@DV?$ChTraitsCRT@D@ATL@@@@@ATL@@AAN1@Z:
  0000e	90		 npad	 1
  0000f	90		 npad	 1
  00010	8b 54 24 08	 mov	 edx, DWORD PTR [esp+8]
  00014	8d 42 0c	 lea	 eax, DWORD PTR [edx+12]
  00017	8b 4a f8	 mov	 ecx, DWORD PTR [edx-8]
  0001a	33 c8		 xor	 ecx, eax
  0001c	e8 00 00 00 00	 call	 @__security_check_cookie@4
  00021	b8 00 00 00 00	 mov	 eax, OFFSET __ehfuncinfo$?GetMinMax@CPacketList@@QAEHHHV?$CStringT@DV?$StrTraitMFC_DLL@DV?$ChTraitsCRT@D@ATL@@@@@ATL@@AAN1@Z
  00026	e9 00 00 00 00	 jmp	 ___CxxFrameHandler3
text$x	ENDS
?GetMinMax@CPacketList@@QAEHHHV?$CStringT@DV?$StrTraitMFC_DLL@DV?$ChTraitsCRT@D@ATL@@@@@ATL@@AAN1@Z ENDP ; CPacketList::GetMinMax
; Function compile flags: /Ogtp
; File D:\git\src\IBK\IBK_DRFN\ProjSrc\SrcChartEx\ChartOCX\PacketData\PacketList.cpp
;	COMDAT ?GetMaxCount@CPacketList@@QAEHV?$CStringT@DV?$StrTraitMFC_DLL@DV?$ChTraitsCRT@D@ATL@@@@@ATL@@ABV23@@Z
_TEXT	SEGMENT
__$EHRec$ = -12						; size = 12
_strPacketNameList$ = 8					; size = 4
_strCompartName$ = 12					; size = 4
?GetMaxCount@CPacketList@@QAEHV?$CStringT@DV?$StrTraitMFC_DLL@DV?$ChTraitsCRT@D@ATL@@@@@ATL@@ABV23@@Z PROC ; CPacketList::GetMaxCount, COMDAT
; _this$ = ecx

; 162  : {

  00000	55		 push	 ebp
  00001	8b ec		 mov	 ebp, esp
  00003	6a ff		 push	 -1
  00005	68 00 00 00 00	 push	 __ehhandler$?GetMaxCount@CPacketList@@QAEHV?$CStringT@DV?$StrTraitMFC_DLL@DV?$ChTraitsCRT@D@ATL@@@@@ATL@@ABV23@@Z
  0000a	64 a1 00 00 00
	00		 mov	 eax, DWORD PTR fs:0
  00010	50		 push	 eax
  00011	56		 push	 esi
  00012	a1 00 00 00 00	 mov	 eax, DWORD PTR ___security_cookie
  00017	33 c5		 xor	 eax, ebp
  00019	50		 push	 eax
  0001a	8d 45 f4	 lea	 eax, DWORD PTR __$EHRec$[ebp]
  0001d	64 a3 00 00 00
	00		 mov	 DWORD PTR fs:0, eax
  00023	8b f1		 mov	 esi, ecx

; 163  : 	return m_pPacketListImple->GetMaxCount(strPacketNameList, strCompartName);

  00025	ff 75 0c	 push	 DWORD PTR _strCompartName$[ebp]
  00028	8d 45 08	 lea	 eax, DWORD PTR _strPacketNameList$[ebp]
  0002b	c7 45 fc 00 00
	00 00		 mov	 DWORD PTR __$EHRec$[ebp+8], 0
  00032	51		 push	 ecx
  00033	8b cc		 mov	 ecx, esp
  00035	50		 push	 eax
  00036	ff 15 00 00 00
	00		 call	 DWORD PTR __imp_??0?$CStringT@DV?$StrTraitMFC_DLL@DV?$ChTraitsCRT@D@ATL@@@@@ATL@@QAE@ABV01@@Z
  0003c	8b 4e 04	 mov	 ecx, DWORD PTR [esi+4]
  0003f	e8 00 00 00 00	 call	 ?GetMaxCount@CPacketListImplementation@@QAEHV?$CStringT@DV?$StrTraitMFC_DLL@DV?$ChTraitsCRT@D@ATL@@@@@ATL@@ABV23@@Z ; CPacketListImplementation::GetMaxCount
  00044	8d 4d 08	 lea	 ecx, DWORD PTR _strPacketNameList$[ebp]
  00047	8b f0		 mov	 esi, eax
  00049	ff 15 00 00 00
	00		 call	 DWORD PTR __imp_??1?$CStringT@DV?$StrTraitMFC_DLL@DV?$ChTraitsCRT@D@ATL@@@@@ATL@@QAE@XZ
  0004f	8b c6		 mov	 eax, esi

; 164  : }

  00051	8b 4d f4	 mov	 ecx, DWORD PTR __$EHRec$[ebp]
  00054	64 89 0d 00 00
	00 00		 mov	 DWORD PTR fs:0, ecx
  0005b	59		 pop	 ecx
  0005c	5e		 pop	 esi
  0005d	8b e5		 mov	 esp, ebp
  0005f	5d		 pop	 ebp
  00060	c2 08 00	 ret	 8
_TEXT	ENDS
;	COMDAT text$x
text$x	SEGMENT
__unwindfunclet$?GetMaxCount@CPacketList@@QAEHV?$CStringT@DV?$StrTraitMFC_DLL@DV?$ChTraitsCRT@D@ATL@@@@@ATL@@ABV23@@Z$0:
  00000	8d 4d 08	 lea	 ecx, DWORD PTR _strPacketNameList$[ebp]
  00003	ff 25 00 00 00
	00		 jmp	 DWORD PTR __imp_??1?$CStringT@DV?$StrTraitMFC_DLL@DV?$ChTraitsCRT@D@ATL@@@@@ATL@@QAE@XZ
  00009	cc		 int	 3
  0000a	cc		 int	 3
  0000b	cc		 int	 3
  0000c	cc		 int	 3
  0000d	cc		 int	 3
__ehhandler$?GetMaxCount@CPacketList@@QAEHV?$CStringT@DV?$StrTraitMFC_DLL@DV?$ChTraitsCRT@D@ATL@@@@@ATL@@ABV23@@Z:
  0000e	90		 npad	 1
  0000f	90		 npad	 1
  00010	8b 54 24 08	 mov	 edx, DWORD PTR [esp+8]
  00014	8d 42 0c	 lea	 eax, DWORD PTR [edx+12]
  00017	8b 4a f8	 mov	 ecx, DWORD PTR [edx-8]
  0001a	33 c8		 xor	 ecx, eax
  0001c	e8 00 00 00 00	 call	 @__security_check_cookie@4
  00021	b8 00 00 00 00	 mov	 eax, OFFSET __ehfuncinfo$?GetMaxCount@CPacketList@@QAEHV?$CStringT@DV?$StrTraitMFC_DLL@DV?$ChTraitsCRT@D@ATL@@@@@ATL@@ABV23@@Z
  00026	e9 00 00 00 00	 jmp	 ___CxxFrameHandler3
text$x	ENDS
?GetMaxCount@CPacketList@@QAEHV?$CStringT@DV?$StrTraitMFC_DLL@DV?$ChTraitsCRT@D@ATL@@@@@ATL@@ABV23@@Z ENDP ; CPacketList::GetMaxCount
; Function compile flags: /Ogtp
; File D:\git\src\IBK\IBK_DRFN\ProjSrc\SrcChartEx\ChartOCX\PacketData\PacketList.cpp
;	COMDAT ?GetCount@CPacketList@@QAEHV?$CStringT@DV?$StrTraitMFC_DLL@DV?$ChTraitsCRT@D@ATL@@@@@ATL@@@Z
_TEXT	SEGMENT
__$EHRec$ = -12						; size = 12
_strPacketName$ = 8					; size = 4
?GetCount@CPacketList@@QAEHV?$CStringT@DV?$StrTraitMFC_DLL@DV?$ChTraitsCRT@D@ATL@@@@@ATL@@@Z PROC ; CPacketList::GetCount, COMDAT
; _this$ = ecx

; 278  : {

  00000	55		 push	 ebp
  00001	8b ec		 mov	 ebp, esp
  00003	6a ff		 push	 -1
  00005	68 00 00 00 00	 push	 __ehhandler$?GetCount@CPacketList@@QAEHV?$CStringT@DV?$StrTraitMFC_DLL@DV?$ChTraitsCRT@D@ATL@@@@@ATL@@@Z
  0000a	64 a1 00 00 00
	00		 mov	 eax, DWORD PTR fs:0
  00010	50		 push	 eax
  00011	51		 push	 ecx
  00012	56		 push	 esi
  00013	a1 00 00 00 00	 mov	 eax, DWORD PTR ___security_cookie
  00018	33 c5		 xor	 eax, ebp
  0001a	50		 push	 eax
  0001b	8d 45 f4	 lea	 eax, DWORD PTR __$EHRec$[ebp]
  0001e	64 a3 00 00 00
	00		 mov	 DWORD PTR fs:0, eax
  00024	8b f1		 mov	 esi, ecx

; 279  : 	return m_pPacketListImple->GetCount(strPacketName);

  00026	51		 push	 ecx
  00027	8d 45 08	 lea	 eax, DWORD PTR _strPacketName$[ebp]
  0002a	c7 45 fc 00 00
	00 00		 mov	 DWORD PTR __$EHRec$[ebp+8], 0
  00031	8b cc		 mov	 ecx, esp
  00033	50		 push	 eax
  00034	ff 15 00 00 00
	00		 call	 DWORD PTR __imp_??0?$CStringT@DV?$StrTraitMFC_DLL@DV?$ChTraitsCRT@D@ATL@@@@@ATL@@QAE@ABV01@@Z
  0003a	8b 4e 04	 mov	 ecx, DWORD PTR [esi+4]
  0003d	e8 00 00 00 00	 call	 ?GetCount@CPacketListImplementation@@QAEHV?$CStringT@DV?$StrTraitMFC_DLL@DV?$ChTraitsCRT@D@ATL@@@@@ATL@@@Z ; CPacketListImplementation::GetCount
  00042	8d 4d 08	 lea	 ecx, DWORD PTR _strPacketName$[ebp]
  00045	8b f0		 mov	 esi, eax
  00047	ff 15 00 00 00
	00		 call	 DWORD PTR __imp_??1?$CStringT@DV?$StrTraitMFC_DLL@DV?$ChTraitsCRT@D@ATL@@@@@ATL@@QAE@XZ
  0004d	8b c6		 mov	 eax, esi

; 280  : }

  0004f	8b 4d f4	 mov	 ecx, DWORD PTR __$EHRec$[ebp]
  00052	64 89 0d 00 00
	00 00		 mov	 DWORD PTR fs:0, ecx
  00059	59		 pop	 ecx
  0005a	5e		 pop	 esi
  0005b	8b e5		 mov	 esp, ebp
  0005d	5d		 pop	 ebp
  0005e	c2 04 00	 ret	 4
_TEXT	ENDS
;	COMDAT text$x
text$x	SEGMENT
__unwindfunclet$?GetCount@CPacketList@@QAEHV?$CStringT@DV?$StrTraitMFC_DLL@DV?$ChTraitsCRT@D@ATL@@@@@ATL@@@Z$0:
  00000	8d 4d 08	 lea	 ecx, DWORD PTR _strPacketName$[ebp]
  00003	ff 25 00 00 00
	00		 jmp	 DWORD PTR __imp_??1?$CStringT@DV?$StrTraitMFC_DLL@DV?$ChTraitsCRT@D@ATL@@@@@ATL@@QAE@XZ
  00009	cc		 int	 3
  0000a	cc		 int	 3
  0000b	cc		 int	 3
  0000c	cc		 int	 3
  0000d	cc		 int	 3
__ehhandler$?GetCount@CPacketList@@QAEHV?$CStringT@DV?$StrTraitMFC_DLL@DV?$ChTraitsCRT@D@ATL@@@@@ATL@@@Z:
  0000e	90		 npad	 1
  0000f	90		 npad	 1
  00010	8b 54 24 08	 mov	 edx, DWORD PTR [esp+8]
  00014	8d 42 0c	 lea	 eax, DWORD PTR [edx+12]
  00017	8b 4a f4	 mov	 ecx, DWORD PTR [edx-12]
  0001a	33 c8		 xor	 ecx, eax
  0001c	e8 00 00 00 00	 call	 @__security_check_cookie@4
  00021	b8 00 00 00 00	 mov	 eax, OFFSET __ehfuncinfo$?GetCount@CPacketList@@QAEHV?$CStringT@DV?$StrTraitMFC_DLL@DV?$ChTraitsCRT@D@ATL@@@@@ATL@@@Z
  00026	e9 00 00 00 00	 jmp	 ___CxxFrameHandler3
text$x	ENDS
?GetCount@CPacketList@@QAEHV?$CStringT@DV?$StrTraitMFC_DLL@DV?$ChTraitsCRT@D@ATL@@@@@ATL@@@Z ENDP ; CPacketList::GetCount
; Function compile flags: /Ogtp
; File D:\git\src\IBK\IBK_DRFN\ProjSrc\SrcChartEx\ChartOCX\PacketData\PacketList.cpp
;	COMDAT ?GetMaxCount@CPacketList@@QAEHXZ
_TEXT	SEGMENT
?GetMaxCount@CPacketList@@QAEHXZ PROC			; CPacketList::GetMaxCount, COMDAT
; _this$ = ecx

; 188  : 	return m_pPacketListImple->GetMaxCount();

  00000	8b 49 04	 mov	 ecx, DWORD PTR [ecx+4]
  00003	e9 00 00 00 00	 jmp	 ?GetMaxCount@CPacketListImplementation@@QAEHXZ ; CPacketListImplementation::GetMaxCount
?GetMaxCount@CPacketList@@QAEHXZ ENDP			; CPacketList::GetMaxCount
_TEXT	ENDS
; Function compile flags: /Ogtp
; File D:\git\src\IBK\IBK_DRFN\ProjSrc\SrcChartEx\ChartOCX\PacketData\PacketList.cpp
;	COMDAT ?GetRequestTRCount@CPacketList@@QBEHH@Z
_TEXT	SEGMENT
_nCurTRCount$ = 8					; size = 4
?GetRequestTRCount@CPacketList@@QBEHH@Z PROC		; CPacketList::GetRequestTRCount, COMDAT
; _this$ = ecx

; 224  : {

  00000	55		 push	 ebp
  00001	8b ec		 mov	 ebp, esp

; 225  : 	return m_pPacketListImple->GetRequestTRCount(nCurTRCount);

  00003	8b 49 04	 mov	 ecx, DWORD PTR [ecx+4]

; 226  : }

  00006	5d		 pop	 ebp

; 225  : 	return m_pPacketListImple->GetRequestTRCount(nCurTRCount);

  00007	e9 00 00 00 00	 jmp	 ?GetRequestTRCount@CPacketListImplementation@@QBEHH@Z ; CPacketListImplementation::GetRequestTRCount
?GetRequestTRCount@CPacketList@@QBEHH@Z ENDP		; CPacketList::GetRequestTRCount
_TEXT	ENDS
; Function compile flags: /Ogtp
; File D:\git\src\IBK\IBK_DRFN\ProjSrc\SrcChartEx\ChartOCX\PacketData\PacketList.cpp
;	COMDAT ?GetTRCount@CPacketList@@QBEHH@Z
_TEXT	SEGMENT
_nTRIndex$ = 8						; size = 4
?GetTRCount@CPacketList@@QBEHH@Z PROC			; CPacketList::GetTRCount, COMDAT
; _this$ = ecx

; 219  : {

  00000	55		 push	 ebp
  00001	8b ec		 mov	 ebp, esp

; 220  : 	return m_pPacketListImple->GetTRCount(nTRIndex);

  00003	8b 49 04	 mov	 ecx, DWORD PTR [ecx+4]

; 221  : }

  00006	5d		 pop	 ebp

; 220  : 	return m_pPacketListImple->GetTRCount(nTRIndex);

  00007	e9 00 00 00 00	 jmp	 ?GetTRCount@CPacketListImplementation@@QBEHH@Z ; CPacketListImplementation::GetTRCount
?GetTRCount@CPacketList@@QBEHH@Z ENDP			; CPacketList::GetTRCount
_TEXT	ENDS
; Function compile flags: /Ogtp
; File D:\git\src\IBK\IBK_DRFN\ProjSrc\SrcChartEx\ChartOCX\PacketData\PacketList.cpp
;	COMDAT ?GetTotalTRCount@CPacketList@@QBEHXZ
_TEXT	SEGMENT
?GetTotalTRCount@CPacketList@@QBEHXZ PROC		; CPacketList::GetTotalTRCount, COMDAT
; _this$ = ecx

; 215  : 	return m_pPacketListImple->GetTotalTRCount();

  00000	8b 49 04	 mov	 ecx, DWORD PTR [ecx+4]
  00003	e9 00 00 00 00	 jmp	 ?GetTotalTRCount@CPacketListImplementation@@QBEHXZ ; CPacketListImplementation::GetTotalTRCount
?GetTotalTRCount@CPacketList@@QBEHXZ ENDP		; CPacketList::GetTotalTRCount
_TEXT	ENDS
; Function compile flags: /Ogtp
; File D:\git\src\IBK\IBK_DRFN\ProjSrc\SrcChartEx\ChartOCX\PacketData\PacketList.cpp
;	COMDAT ?GetTotalTRIndex@CPacketList@@QBEHXZ
_TEXT	SEGMENT
?GetTotalTRIndex@CPacketList@@QBEHXZ PROC		; CPacketList::GetTotalTRIndex, COMDAT
; _this$ = ecx

; 210  : 	return m_pPacketListImple->GetTotalTRIndex();

  00000	8b 49 04	 mov	 ecx, DWORD PTR [ecx+4]
  00003	e9 00 00 00 00	 jmp	 ?GetTotalTRIndex@CPacketListImplementation@@QBEHXZ ; CPacketListImplementation::GetTotalTRIndex
?GetTotalTRIndex@CPacketList@@QBEHXZ ENDP		; CPacketList::GetTotalTRIndex
_TEXT	ENDS
; Function compile flags: /Ogtp
; File D:\git\src\IBK\IBK_DRFN\ProjSrc\SrcChartEx\ChartOCX\PacketData\PacketList.cpp
;	COMDAT ?GetStartTimeInTimeRangeOfLastData@CPacketList@@QAE_JXZ
_TEXT	SEGMENT
?GetStartTimeInTimeRangeOfLastData@CPacketList@@QAE_JXZ PROC ; CPacketList::GetStartTimeInTimeRangeOfLastData, COMDAT
; _this$ = ecx

; 205  : 	return m_pPacketListImple->GetStartTimeInTimeRangeOfLastData();

  00000	8b 49 04	 mov	 ecx, DWORD PTR [ecx+4]
  00003	e9 00 00 00 00	 jmp	 ?GetStartTimeInTimeRangeOfLastData@CPacketListImplementation@@QAE_JXZ ; CPacketListImplementation::GetStartTimeInTimeRangeOfLastData
?GetStartTimeInTimeRangeOfLastData@CPacketList@@QAE_JXZ ENDP ; CPacketList::GetStartTimeInTimeRangeOfLastData
_TEXT	ENDS
; Function compile flags: /Ogtp
; File D:\git\src\IBK\IBK_DRFN\ProjSrc\SrcChartEx\ChartOCX\PacketData\PacketList.cpp
;	COMDAT ?GetTimeIntervalWithSecond@CPacketList@@QAE_JXZ
_TEXT	SEGMENT
?GetTimeIntervalWithSecond@CPacketList@@QAE_JXZ PROC	; CPacketList::GetTimeIntervalWithSecond, COMDAT
; _this$ = ecx

; 197  : 	return m_pPacketListImple->GetTimeIntervalWithSecond();

  00000	8b 49 04	 mov	 ecx, DWORD PTR [ecx+4]
  00003	e9 00 00 00 00	 jmp	 ?GetTimeIntervalWithSecond@CPacketListImplementation@@QAE_JXZ ; CPacketListImplementation::GetTimeIntervalWithSecond
?GetTimeIntervalWithSecond@CPacketList@@QAE_JXZ ENDP	; CPacketList::GetTimeIntervalWithSecond
_TEXT	ENDS
; Function compile flags: /Ogtp
; File D:\git\src\IBK\IBK_DRFN\ProjSrc\SrcChartEx\ChartOCX\PacketData\PacketList.cpp
;	COMDAT ?GetTimeInterval@CPacketList@@QAEHXZ
_TEXT	SEGMENT
?GetTimeInterval@CPacketList@@QAEHXZ PROC		; CPacketList::GetTimeInterval, COMDAT
; _this$ = ecx

; 193  : 	return m_pPacketListImple->GetTimeInterval();

  00000	8b 49 04	 mov	 ecx, DWORD PTR [ecx+4]
  00003	e9 00 00 00 00	 jmp	 ?GetTimeInterval@CPacketListImplementation@@QAEHXZ ; CPacketListImplementation::GetTimeInterval
?GetTimeInterval@CPacketList@@QAEHXZ ENDP		; CPacketList::GetTimeInterval
_TEXT	ENDS
; Function compile flags: /Ogtp
; File D:\git\src\IBK\IBK_DRFN\ProjSrc\SrcChartEx\ChartOCX\PacketData\PacketList.cpp
;	COMDAT ?GetLastestRealIndex@CPacketList@@QAEHXZ
_TEXT	SEGMENT
?GetLastestRealIndex@CPacketList@@QAEHXZ PROC		; CPacketList::GetLastestRealIndex, COMDAT
; _this$ = ecx

; 366  : 	return m_pPacketListImple->GetLastestRealIndex();

  00000	8b 49 04	 mov	 ecx, DWORD PTR [ecx+4]
  00003	e9 00 00 00 00	 jmp	 ?GetLastestRealIndex@CPacketListImplementation@@QAEHXZ ; CPacketListImplementation::GetLastestRealIndex
?GetLastestRealIndex@CPacketList@@QAEHXZ ENDP		; CPacketList::GetLastestRealIndex
_TEXT	ENDS
; Function compile flags: /Ogtp
; File D:\git\src\IBK\IBK_DRFN\ProjSrc\SrcChartEx\ChartOCX\PacketData\PacketList.cpp
;	COMDAT ?RemovePacket@CPacketList@@QAE_NV?$CStringT@DV?$StrTraitMFC_DLL@DV?$ChTraitsCRT@D@ATL@@@@@ATL@@@Z
_TEXT	SEGMENT
__$EHRec$ = -12						; size = 12
_szPacketName$ = 8					; size = 4
?RemovePacket@CPacketList@@QAE_NV?$CStringT@DV?$StrTraitMFC_DLL@DV?$ChTraitsCRT@D@ATL@@@@@ATL@@@Z PROC ; CPacketList::RemovePacket, COMDAT
; _this$ = ecx

; 375  : {

  00000	55		 push	 ebp
  00001	8b ec		 mov	 ebp, esp
  00003	6a ff		 push	 -1
  00005	68 00 00 00 00	 push	 __ehhandler$?RemovePacket@CPacketList@@QAE_NV?$CStringT@DV?$StrTraitMFC_DLL@DV?$ChTraitsCRT@D@ATL@@@@@ATL@@@Z
  0000a	64 a1 00 00 00
	00		 mov	 eax, DWORD PTR fs:0
  00010	50		 push	 eax
  00011	51		 push	 ecx
  00012	53		 push	 ebx
  00013	56		 push	 esi
  00014	a1 00 00 00 00	 mov	 eax, DWORD PTR ___security_cookie
  00019	33 c5		 xor	 eax, ebp
  0001b	50		 push	 eax
  0001c	8d 45 f4	 lea	 eax, DWORD PTR __$EHRec$[ebp]
  0001f	64 a3 00 00 00
	00		 mov	 DWORD PTR fs:0, eax
  00025	8b f1		 mov	 esi, ecx

; 376  : 	return m_pPacketListImple->RemovePacket(szPacketName);

  00027	51		 push	 ecx
  00028	8d 45 08	 lea	 eax, DWORD PTR _szPacketName$[ebp]
  0002b	c7 45 fc 00 00
	00 00		 mov	 DWORD PTR __$EHRec$[ebp+8], 0
  00032	8b cc		 mov	 ecx, esp
  00034	50		 push	 eax
  00035	ff 15 00 00 00
	00		 call	 DWORD PTR __imp_??0?$CStringT@DV?$StrTraitMFC_DLL@DV?$ChTraitsCRT@D@ATL@@@@@ATL@@QAE@ABV01@@Z
  0003b	8b 4e 04	 mov	 ecx, DWORD PTR [esi+4]
  0003e	e8 00 00 00 00	 call	 ?RemovePacket@CPacketListImplementation@@QAE_NV?$CStringT@DV?$StrTraitMFC_DLL@DV?$ChTraitsCRT@D@ATL@@@@@ATL@@@Z ; CPacketListImplementation::RemovePacket
  00043	8d 4d 08	 lea	 ecx, DWORD PTR _szPacketName$[ebp]
  00046	8a d8		 mov	 bl, al
  00048	ff 15 00 00 00
	00		 call	 DWORD PTR __imp_??1?$CStringT@DV?$StrTraitMFC_DLL@DV?$ChTraitsCRT@D@ATL@@@@@ATL@@QAE@XZ
  0004e	8a c3		 mov	 al, bl

; 377  : }

  00050	8b 4d f4	 mov	 ecx, DWORD PTR __$EHRec$[ebp]
  00053	64 89 0d 00 00
	00 00		 mov	 DWORD PTR fs:0, ecx
  0005a	59		 pop	 ecx
  0005b	5e		 pop	 esi
  0005c	5b		 pop	 ebx
  0005d	8b e5		 mov	 esp, ebp
  0005f	5d		 pop	 ebp
  00060	c2 04 00	 ret	 4
_TEXT	ENDS
;	COMDAT text$x
text$x	SEGMENT
__unwindfunclet$?RemovePacket@CPacketList@@QAE_NV?$CStringT@DV?$StrTraitMFC_DLL@DV?$ChTraitsCRT@D@ATL@@@@@ATL@@@Z$0:
  00000	8d 4d 08	 lea	 ecx, DWORD PTR _szPacketName$[ebp]
  00003	ff 25 00 00 00
	00		 jmp	 DWORD PTR __imp_??1?$CStringT@DV?$StrTraitMFC_DLL@DV?$ChTraitsCRT@D@ATL@@@@@ATL@@QAE@XZ
  00009	cc		 int	 3
  0000a	cc		 int	 3
  0000b	cc		 int	 3
  0000c	cc		 int	 3
  0000d	cc		 int	 3
__ehhandler$?RemovePacket@CPacketList@@QAE_NV?$CStringT@DV?$StrTraitMFC_DLL@DV?$ChTraitsCRT@D@ATL@@@@@ATL@@@Z:
  0000e	90		 npad	 1
  0000f	90		 npad	 1
  00010	8b 54 24 08	 mov	 edx, DWORD PTR [esp+8]
  00014	8d 42 0c	 lea	 eax, DWORD PTR [edx+12]
  00017	8b 4a f0	 mov	 ecx, DWORD PTR [edx-16]
  0001a	33 c8		 xor	 ecx, eax
  0001c	e8 00 00 00 00	 call	 @__security_check_cookie@4
  00021	b8 00 00 00 00	 mov	 eax, OFFSET __ehfuncinfo$?RemovePacket@CPacketList@@QAE_NV?$CStringT@DV?$StrTraitMFC_DLL@DV?$ChTraitsCRT@D@ATL@@@@@ATL@@@Z
  00026	e9 00 00 00 00	 jmp	 ___CxxFrameHandler3
text$x	ENDS
?RemovePacket@CPacketList@@QAE_NV?$CStringT@DV?$StrTraitMFC_DLL@DV?$ChTraitsCRT@D@ATL@@@@@ATL@@@Z ENDP ; CPacketList::RemovePacket
; Function compile flags: /Ogtp
; File D:\git\src\IBK\IBK_DRFN\ProjSrc\SrcChartEx\ChartOCX\PacketData\PacketList.cpp
;	COMDAT ?AddPacket@CPacketList@@QAEXV?$CStringT@DV?$StrTraitMFC_DLL@DV?$ChTraitsCRT@D@ATL@@@@@ATL@@@Z
_TEXT	SEGMENT
$T2 = -16						; size = 4
__$EHRec$ = -12						; size = 12
_szPacketOption$ = 8					; size = 4
?AddPacket@CPacketList@@QAEXV?$CStringT@DV?$StrTraitMFC_DLL@DV?$ChTraitsCRT@D@ATL@@@@@ATL@@@Z PROC ; CPacketList::AddPacket, COMDAT
; _this$ = ecx

; 370  : {

  00000	55		 push	 ebp
  00001	8b ec		 mov	 ebp, esp
  00003	6a ff		 push	 -1
  00005	68 00 00 00 00	 push	 __ehhandler$?AddPacket@CPacketList@@QAEXV?$CStringT@DV?$StrTraitMFC_DLL@DV?$ChTraitsCRT@D@ATL@@@@@ATL@@@Z
  0000a	64 a1 00 00 00
	00		 mov	 eax, DWORD PTR fs:0
  00010	50		 push	 eax
  00011	51		 push	 ecx
  00012	56		 push	 esi
  00013	a1 00 00 00 00	 mov	 eax, DWORD PTR ___security_cookie
  00018	33 c5		 xor	 eax, ebp
  0001a	50		 push	 eax
  0001b	8d 45 f4	 lea	 eax, DWORD PTR __$EHRec$[ebp]
  0001e	64 a3 00 00 00
	00		 mov	 DWORD PTR fs:0, eax
  00024	8b f1		 mov	 esi, ecx

; 371  : 	m_pPacketListImple->AddPacket(szPacketOption);

  00026	51		 push	 ecx
  00027	8d 45 08	 lea	 eax, DWORD PTR _szPacketOption$[ebp]
  0002a	c7 45 fc 00 00
	00 00		 mov	 DWORD PTR __$EHRec$[ebp+8], 0
  00031	8b cc		 mov	 ecx, esp
  00033	50		 push	 eax
  00034	ff 15 00 00 00
	00		 call	 DWORD PTR __imp_??0?$CStringT@DV?$StrTraitMFC_DLL@DV?$ChTraitsCRT@D@ATL@@@@@ATL@@QAE@ABV01@@Z
  0003a	8b 4e 04	 mov	 ecx, DWORD PTR [esi+4]
  0003d	8d 45 f0	 lea	 eax, DWORD PTR $T2[ebp]
  00040	50		 push	 eax
  00041	e8 00 00 00 00	 call	 ?AddPacket@CPacketListImplementation@@QAE?AV?$CStringT@DV?$StrTraitMFC_DLL@DV?$ChTraitsCRT@D@ATL@@@@@ATL@@V23@@Z ; CPacketListImplementation::AddPacket
  00046	8d 4d f0	 lea	 ecx, DWORD PTR $T2[ebp]
  00049	ff 15 00 00 00
	00		 call	 DWORD PTR __imp_??1?$CStringT@DV?$StrTraitMFC_DLL@DV?$ChTraitsCRT@D@ATL@@@@@ATL@@QAE@XZ

; 372  : }

  0004f	8d 4d 08	 lea	 ecx, DWORD PTR _szPacketOption$[ebp]
  00052	ff 15 00 00 00
	00		 call	 DWORD PTR __imp_??1?$CStringT@DV?$StrTraitMFC_DLL@DV?$ChTraitsCRT@D@ATL@@@@@ATL@@QAE@XZ
  00058	8b 4d f4	 mov	 ecx, DWORD PTR __$EHRec$[ebp]
  0005b	64 89 0d 00 00
	00 00		 mov	 DWORD PTR fs:0, ecx
  00062	59		 pop	 ecx
  00063	5e		 pop	 esi
  00064	8b e5		 mov	 esp, ebp
  00066	5d		 pop	 ebp
  00067	c2 04 00	 ret	 4
_TEXT	ENDS
;	COMDAT text$x
text$x	SEGMENT
__unwindfunclet$?AddPacket@CPacketList@@QAEXV?$CStringT@DV?$StrTraitMFC_DLL@DV?$ChTraitsCRT@D@ATL@@@@@ATL@@@Z$0:
  00000	8d 4d 08	 lea	 ecx, DWORD PTR _szPacketOption$[ebp]
  00003	ff 25 00 00 00
	00		 jmp	 DWORD PTR __imp_??1?$CStringT@DV?$StrTraitMFC_DLL@DV?$ChTraitsCRT@D@ATL@@@@@ATL@@QAE@XZ
  00009	cc		 int	 3
  0000a	cc		 int	 3
  0000b	cc		 int	 3
  0000c	cc		 int	 3
  0000d	cc		 int	 3
__ehhandler$?AddPacket@CPacketList@@QAEXV?$CStringT@DV?$StrTraitMFC_DLL@DV?$ChTraitsCRT@D@ATL@@@@@ATL@@@Z:
  0000e	90		 npad	 1
  0000f	90		 npad	 1
  00010	8b 54 24 08	 mov	 edx, DWORD PTR [esp+8]
  00014	8d 42 0c	 lea	 eax, DWORD PTR [edx+12]
  00017	8b 4a f4	 mov	 ecx, DWORD PTR [edx-12]
  0001a	33 c8		 xor	 ecx, eax
  0001c	e8 00 00 00 00	 call	 @__security_check_cookie@4
  00021	b8 00 00 00 00	 mov	 eax, OFFSET __ehfuncinfo$?AddPacket@CPacketList@@QAEXV?$CStringT@DV?$StrTraitMFC_DLL@DV?$ChTraitsCRT@D@ATL@@@@@ATL@@@Z
  00026	e9 00 00 00 00	 jmp	 ___CxxFrameHandler3
text$x	ENDS
?AddPacket@CPacketList@@QAEXV?$CStringT@DV?$StrTraitMFC_DLL@DV?$ChTraitsCRT@D@ATL@@@@@ATL@@@Z ENDP ; CPacketList::AddPacket
; Function compile flags: /Ogtp
; File D:\git\src\IBK\IBK_DRFN\ProjSrc\SrcChartEx\ChartOCX\PacketData\PacketList.cpp
;	COMDAT ?SetPacketData@CPacketList@@QAE_NABV?$CStringT@DV?$StrTraitMFC_DLL@DV?$ChTraitsCRT@D@ATL@@@@@ATL@@0PBDH@Z
_TEXT	SEGMENT
_strPacketName$ = 8					; size = 4
_strPacketType$ = 12					; size = 4
_pPacketData$ = 16					; size = 4
_nCount$ = 20						; size = 4
?SetPacketData@CPacketList@@QAE_NABV?$CStringT@DV?$StrTraitMFC_DLL@DV?$ChTraitsCRT@D@ATL@@@@@ATL@@0PBDH@Z PROC ; CPacketList::SetPacketData, COMDAT
; _this$ = ecx

; 387  : {

  00000	55		 push	 ebp
  00001	8b ec		 mov	 ebp, esp

; 388  : 	return m_pPacketListImple->SetPacketData(strPacketName, strPacketType, pPacketData, nCount);

  00003	8b 49 04	 mov	 ecx, DWORD PTR [ecx+4]

; 389  : }

  00006	5d		 pop	 ebp

; 388  : 	return m_pPacketListImple->SetPacketData(strPacketName, strPacketType, pPacketData, nCount);

  00007	e9 00 00 00 00	 jmp	 ?SetPacketData@CPacketListImplementation@@QAE_NABV?$CStringT@DV?$StrTraitMFC_DLL@DV?$ChTraitsCRT@D@ATL@@@@@ATL@@0PBDH@Z ; CPacketListImplementation::SetPacketData
?SetPacketData@CPacketList@@QAE_NABV?$CStringT@DV?$StrTraitMFC_DLL@DV?$ChTraitsCRT@D@ATL@@@@@ATL@@0PBDH@Z ENDP ; CPacketList::SetPacketData
_TEXT	ENDS
; Function compile flags: /Ogtp
; File D:\git\src\IBK\IBK_DRFN\ProjSrc\SrcChartEx\ChartOCX\PacketData\PacketList.cpp
;	COMDAT ?SetPacketData@CPacketList@@QAEXABV?$CStringT@DV?$StrTraitMFC_DLL@DV?$ChTraitsCRT@D@ATL@@@@@ATL@@JJ@Z
_TEXT	SEGMENT
_szPacketName$ = 8					; size = 4
_pData$ = 12						; size = 4
_lCount$ = 16						; size = 4
?SetPacketData@CPacketList@@QAEXABV?$CStringT@DV?$StrTraitMFC_DLL@DV?$ChTraitsCRT@D@ATL@@@@@ATL@@JJ@Z PROC ; CPacketList::SetPacketData, COMDAT
; _this$ = ecx

; 381  : {

  00000	55		 push	 ebp
  00001	8b ec		 mov	 ebp, esp

; 382  : 	m_pPacketListImple->SetPacketData(szPacketName, pData, lCount);

  00003	8b 49 04	 mov	 ecx, DWORD PTR [ecx+4]

; 383  : }

  00006	5d		 pop	 ebp

; 382  : 	m_pPacketListImple->SetPacketData(szPacketName, pData, lCount);

  00007	e9 00 00 00 00	 jmp	 ?SetPacketData@CPacketListImplementation@@QAEXABV?$CStringT@DV?$StrTraitMFC_DLL@DV?$ChTraitsCRT@D@ATL@@@@@ATL@@JJ@Z ; CPacketListImplementation::SetPacketData
?SetPacketData@CPacketList@@QAEXABV?$CStringT@DV?$StrTraitMFC_DLL@DV?$ChTraitsCRT@D@ATL@@@@@ATL@@JJ@Z ENDP ; CPacketList::SetPacketData
_TEXT	ENDS
; Function compile flags: /Ogtp
; File D:\git\src\IBK\IBK_DRFN\ProjSrc\SrcChartEx\ChartOCX\PacketData\PacketList.cpp
;	COMDAT ?GetRealType@CPacketList@@QBE?AW4REALTYPE@CPacketType@@XZ
_TEXT	SEGMENT
?GetRealType@CPacketList@@QBE?AW4REALTYPE@CPacketType@@XZ PROC ; CPacketList::GetRealType, COMDAT
; _this$ = ecx

; 408  : 	return m_pPacketListImple->GetRealType();

  00000	8b 49 04	 mov	 ecx, DWORD PTR [ecx+4]
  00003	e9 00 00 00 00	 jmp	 ?GetRealType@CPacketListImplementation@@QBE?AW4REALTYPE@CPacketType@@XZ ; CPacketListImplementation::GetRealType
?GetRealType@CPacketList@@QBE?AW4REALTYPE@CPacketType@@XZ ENDP ; CPacketList::GetRealType
_TEXT	ENDS
; Function compile flags: /Ogtp
; File D:\git\src\IBK\IBK_DRFN\ProjSrc\SrcChartEx\ChartOCX\PacketData\PacketList.cpp
;	COMDAT ?SetData@CPacketList@@QAE_NV?$CStringT@DV?$StrTraitMFC_DLL@DV?$ChTraitsCRT@D@ATL@@@@@ATL@@HN_N@Z
_TEXT	SEGMENT
__$EHRec$ = -12						; size = 12
_szPacketName$ = 8					; size = 4
_nIndex$ = 12						; size = 4
_dValue$ = 16						; size = 8
_IsByReal$ = 24						; size = 1
?SetData@CPacketList@@QAE_NV?$CStringT@DV?$StrTraitMFC_DLL@DV?$ChTraitsCRT@D@ATL@@@@@ATL@@HN_N@Z PROC ; CPacketList::SetData, COMDAT
; _this$ = ecx

; 392  : {

  00000	55		 push	 ebp
  00001	8b ec		 mov	 ebp, esp
  00003	6a ff		 push	 -1
  00005	68 00 00 00 00	 push	 __ehhandler$?SetData@CPacketList@@QAE_NV?$CStringT@DV?$StrTraitMFC_DLL@DV?$ChTraitsCRT@D@ATL@@@@@ATL@@HN_N@Z
  0000a	64 a1 00 00 00
	00		 mov	 eax, DWORD PTR fs:0
  00010	50		 push	 eax
  00011	53		 push	 ebx
  00012	56		 push	 esi
  00013	a1 00 00 00 00	 mov	 eax, DWORD PTR ___security_cookie
  00018	33 c5		 xor	 eax, ebp
  0001a	50		 push	 eax
  0001b	8d 45 f4	 lea	 eax, DWORD PTR __$EHRec$[ebp]
  0001e	64 a3 00 00 00
	00		 mov	 DWORD PTR fs:0, eax
  00024	8b f1		 mov	 esi, ecx

; 393  : 	return m_pPacketListImple->SetData(szPacketName, nIndex, dValue, IsByReal);

  00026	ff 75 18	 push	 DWORD PTR _IsByReal$[ebp]
  00029	f2 0f 10 45 10	 movsd	 xmm0, QWORD PTR _dValue$[ebp]
  0002e	8d 45 08	 lea	 eax, DWORD PTR _szPacketName$[ebp]
  00031	83 ec 08	 sub	 esp, 8
  00034	c7 45 fc 00 00
	00 00		 mov	 DWORD PTR __$EHRec$[ebp+8], 0
  0003b	f2 0f 11 04 24	 movsd	 QWORD PTR [esp], xmm0
  00040	ff 75 0c	 push	 DWORD PTR _nIndex$[ebp]
  00043	51		 push	 ecx
  00044	8b cc		 mov	 ecx, esp
  00046	50		 push	 eax
  00047	ff 15 00 00 00
	00		 call	 DWORD PTR __imp_??0?$CStringT@DV?$StrTraitMFC_DLL@DV?$ChTraitsCRT@D@ATL@@@@@ATL@@QAE@ABV01@@Z
  0004d	8b 4e 04	 mov	 ecx, DWORD PTR [esi+4]
  00050	e8 00 00 00 00	 call	 ?SetData@CPacketListImplementation@@QAE_NV?$CStringT@DV?$StrTraitMFC_DLL@DV?$ChTraitsCRT@D@ATL@@@@@ATL@@HN_N@Z ; CPacketListImplementation::SetData
  00055	8d 4d 08	 lea	 ecx, DWORD PTR _szPacketName$[ebp]
  00058	8a d8		 mov	 bl, al
  0005a	ff 15 00 00 00
	00		 call	 DWORD PTR __imp_??1?$CStringT@DV?$StrTraitMFC_DLL@DV?$ChTraitsCRT@D@ATL@@@@@ATL@@QAE@XZ
  00060	8a c3		 mov	 al, bl

; 394  : }

  00062	8b 4d f4	 mov	 ecx, DWORD PTR __$EHRec$[ebp]
  00065	64 89 0d 00 00
	00 00		 mov	 DWORD PTR fs:0, ecx
  0006c	59		 pop	 ecx
  0006d	5e		 pop	 esi
  0006e	5b		 pop	 ebx
  0006f	8b e5		 mov	 esp, ebp
  00071	5d		 pop	 ebp
  00072	c2 14 00	 ret	 20			; 00000014H
_TEXT	ENDS
;	COMDAT text$x
text$x	SEGMENT
__unwindfunclet$?SetData@CPacketList@@QAE_NV?$CStringT@DV?$StrTraitMFC_DLL@DV?$ChTraitsCRT@D@ATL@@@@@ATL@@HN_N@Z$0:
  00000	8d 4d 08	 lea	 ecx, DWORD PTR _szPacketName$[ebp]
  00003	ff 25 00 00 00
	00		 jmp	 DWORD PTR __imp_??1?$CStringT@DV?$StrTraitMFC_DLL@DV?$ChTraitsCRT@D@ATL@@@@@ATL@@QAE@XZ
  00009	cc		 int	 3
  0000a	cc		 int	 3
  0000b	cc		 int	 3
  0000c	cc		 int	 3
  0000d	cc		 int	 3
__ehhandler$?SetData@CPacketList@@QAE_NV?$CStringT@DV?$StrTraitMFC_DLL@DV?$ChTraitsCRT@D@ATL@@@@@ATL@@HN_N@Z:
  0000e	90		 npad	 1
  0000f	90		 npad	 1
  00010	8b 54 24 08	 mov	 edx, DWORD PTR [esp+8]
  00014	8d 42 0c	 lea	 eax, DWORD PTR [edx+12]
  00017	8b 4a f4	 mov	 ecx, DWORD PTR [edx-12]
  0001a	33 c8		 xor	 ecx, eax
  0001c	e8 00 00 00 00	 call	 @__security_check_cookie@4
  00021	b8 00 00 00 00	 mov	 eax, OFFSET __ehfuncinfo$?SetData@CPacketList@@QAE_NV?$CStringT@DV?$StrTraitMFC_DLL@DV?$ChTraitsCRT@D@ATL@@@@@ATL@@HN_N@Z
  00026	e9 00 00 00 00	 jmp	 ___CxxFrameHandler3
text$x	ENDS
?SetData@CPacketList@@QAE_NV?$CStringT@DV?$StrTraitMFC_DLL@DV?$ChTraitsCRT@D@ATL@@@@@ATL@@HN_N@Z ENDP ; CPacketList::SetData
; Function compile flags: /Ogtp
; File D:\git\src\IBK\IBK_DRFN\ProjSrc\SrcChartEx\ChartOCX\PacketData\PacketList.cpp
;	COMDAT ?SetPacketLengthCount@CPacketList@@QAEXH@Z
_TEXT	SEGMENT
_nLength$ = 8						; size = 4
?SetPacketLengthCount@CPacketList@@QAEXH@Z PROC		; CPacketList::SetPacketLengthCount, COMDAT
; _this$ = ecx

; 397  : {

  00000	55		 push	 ebp
  00001	8b ec		 mov	 ebp, esp

; 398  : 	m_pPacketListImple->SetPacketLengthCount(nLength);

  00003	8b 49 04	 mov	 ecx, DWORD PTR [ecx+4]

; 399  : }

  00006	5d		 pop	 ebp

; 398  : 	m_pPacketListImple->SetPacketLengthCount(nLength);

  00007	e9 00 00 00 00	 jmp	 ?SetPacketLengthCount@CPacketListImplementation@@QAEXH@Z ; CPacketListImplementation::SetPacketLengthCount
?SetPacketLengthCount@CPacketList@@QAEXH@Z ENDP		; CPacketList::SetPacketLengthCount
_TEXT	ENDS
; Function compile flags: /Ogtp
; File D:\git\src\IBK\IBK_DRFN\ProjSrc\SrcChartEx\ChartOCX\PacketData\PacketList.cpp
;	COMDAT ?SetVersion@CPacketList@@QAEXN@Z
_TEXT	SEGMENT
_dVersion$ = 8						; size = 8
?SetVersion@CPacketList@@QAEXN@Z PROC			; CPacketList::SetVersion, COMDAT
; _this$ = ecx

; 402  : {

  00000	55		 push	 ebp
  00001	8b ec		 mov	 ebp, esp

; 403  : 	m_pPacketListImple->SetVersion(dVersion);

  00003	f2 0f 10 45 08	 movsd	 xmm0, QWORD PTR _dVersion$[ebp]
  00008	83 ec 08	 sub	 esp, 8
  0000b	8b 49 04	 mov	 ecx, DWORD PTR [ecx+4]
  0000e	f2 0f 11 04 24	 movsd	 QWORD PTR [esp], xmm0
  00013	e8 00 00 00 00	 call	 ?SetVersion@CPacketListImplementation@@QAEXN@Z ; CPacketListImplementation::SetVersion

; 404  : }

  00018	5d		 pop	 ebp
  00019	c2 08 00	 ret	 8
?SetVersion@CPacketList@@QAEXN@Z ENDP			; CPacketList::SetVersion
_TEXT	ENDS
; Function compile flags: /Ogtp
; File D:\git\src\IBK\IBK_DRFN\ProjSrc\SrcChartEx\ChartOCX\PacketData\PacketList.cpp
;	COMDAT ??1CPacketList@@UAE@XZ
_TEXT	SEGMENT
??1CPacketList@@UAE@XZ PROC				; CPacketList::~CPacketList, COMDAT
; _this$ = ecx

; 43   : {

  00000	c7 01 00 00 00
	00		 mov	 DWORD PTR [ecx], OFFSET ??_7CPacketList@@6B@

; 44   : 	if(m_pPacketListImple)

  00006	8b 49 04	 mov	 ecx, DWORD PTR [ecx+4]
  00009	85 c9		 test	 ecx, ecx
  0000b	74 06		 je	 SHORT $LN4@CPacketLis

; 45   : 		delete m_pPacketListImple;

  0000d	8b 01		 mov	 eax, DWORD PTR [ecx]
  0000f	6a 01		 push	 1
  00011	ff 10		 call	 DWORD PTR [eax]
$LN4@CPacketLis:

; 46   : }

  00013	c3		 ret	 0
??1CPacketList@@UAE@XZ ENDP				; CPacketList::~CPacketList
_TEXT	ENDS
; Function compile flags: /Ogtp
; File D:\git\src\IBK\IBK_DRFN\ProjSrc\SrcChartEx\ChartOCX\PacketData\PacketList.cpp
;	COMDAT ??0CPacketList@@QAE@V?$CStringT@DV?$StrTraitMFC_DLL@DV?$ChTraitsCRT@D@ATL@@@@@ATL@@W4REALTYPE@CPacketType@@PAUIChartCtrl@@@Z
_TEXT	SEGMENT
$T2 = -16						; size = 4
__$EHRec$ = -12						; size = 12
_strPacketOption$ = 8					; size = 4
_eRealType$ = 12					; size = 4
_p_pIChartCtrl$ = 16					; size = 4
??0CPacketList@@QAE@V?$CStringT@DV?$StrTraitMFC_DLL@DV?$ChTraitsCRT@D@ATL@@@@@ATL@@W4REALTYPE@CPacketType@@PAUIChartCtrl@@@Z PROC ; CPacketList::CPacketList, COMDAT
; _this$ = ecx

; 35   : {

  00000	55		 push	 ebp
  00001	8b ec		 mov	 ebp, esp
  00003	6a ff		 push	 -1
  00005	68 00 00 00 00	 push	 __ehhandler$??0CPacketList@@QAE@V?$CStringT@DV?$StrTraitMFC_DLL@DV?$ChTraitsCRT@D@ATL@@@@@ATL@@W4REALTYPE@CPacketType@@PAUIChartCtrl@@@Z
  0000a	64 a1 00 00 00
	00		 mov	 eax, DWORD PTR fs:0
  00010	50		 push	 eax
  00011	51		 push	 ecx
  00012	56		 push	 esi
  00013	57		 push	 edi
  00014	a1 00 00 00 00	 mov	 eax, DWORD PTR ___security_cookie
  00019	33 c5		 xor	 eax, ebp
  0001b	50		 push	 eax
  0001c	8d 45 f4	 lea	 eax, DWORD PTR __$EHRec$[ebp]
  0001f	64 a3 00 00 00
	00		 mov	 DWORD PTR fs:0, eax
  00025	8b f1		 mov	 esi, ecx

; 36   : 	// (2008/1/20 - Seung-Won, Bae) for MultiLanguage.
; 37   : 	g_iMetaTable.LoadMetaTable();

  00027	b9 00 00 00 00	 mov	 ecx, OFFSET ?g_iMetaTable@@3VIMetaTable@@A ; g_iMetaTable
  0002c	c7 45 fc 00 00
	00 00		 mov	 DWORD PTR __$EHRec$[ebp+8], 0
  00033	c7 06 00 00 00
	00		 mov	 DWORD PTR [esi], OFFSET ??_7CPacketList@@6B@
  00039	e8 00 00 00 00	 call	 ?LoadMetaTable@IMetaTable@@QAEXXZ ; IMetaTable::LoadMetaTable

; 38   : 
; 39   : 	m_pPacketListImple = new CPacketListImplementation(this, strPacketOption, eRealType, p_pIChartCtrl);

  0003e	68 d0 01 00 00	 push	 464			; 000001d0H
  00043	e8 00 00 00 00	 call	 ??2@YAPAXI@Z		; operator new
  00048	8b f8		 mov	 edi, eax
  0004a	83 c4 04	 add	 esp, 4
  0004d	89 7d f0	 mov	 DWORD PTR $T2[ebp], edi
  00050	c6 45 fc 01	 mov	 BYTE PTR __$EHRec$[ebp+8], 1
  00054	85 ff		 test	 edi, edi
  00056	74 1d		 je	 SHORT $LN3@CPacketLis
  00058	ff 75 10	 push	 DWORD PTR _p_pIChartCtrl$[ebp]
  0005b	8d 45 08	 lea	 eax, DWORD PTR _strPacketOption$[ebp]
  0005e	ff 75 0c	 push	 DWORD PTR _eRealType$[ebp]
  00061	51		 push	 ecx
  00062	8b cc		 mov	 ecx, esp
  00064	50		 push	 eax
  00065	ff 15 00 00 00
	00		 call	 DWORD PTR __imp_??0?$CStringT@DV?$StrTraitMFC_DLL@DV?$ChTraitsCRT@D@ATL@@@@@ATL@@QAE@ABV01@@Z
  0006b	56		 push	 esi
  0006c	8b cf		 mov	 ecx, edi
  0006e	e8 00 00 00 00	 call	 ??0CPacketListImplementation@@QAE@PAVCPacketList@@V?$CStringT@DV?$StrTraitMFC_DLL@DV?$ChTraitsCRT@D@ATL@@@@@ATL@@W4REALTYPE@CPacketType@@PAUIChartCtrl@@@Z ; CPacketListImplementation::CPacketListImplementation
  00073	eb 02		 jmp	 SHORT $LN4@CPacketLis
$LN3@CPacketLis:
  00075	33 c0		 xor	 eax, eax
$LN4@CPacketLis:

; 40   : }

  00077	8d 4d 08	 lea	 ecx, DWORD PTR _strPacketOption$[ebp]
  0007a	89 46 04	 mov	 DWORD PTR [esi+4], eax
  0007d	ff 15 00 00 00
	00		 call	 DWORD PTR __imp_??1?$CStringT@DV?$StrTraitMFC_DLL@DV?$ChTraitsCRT@D@ATL@@@@@ATL@@QAE@XZ
  00083	8b c6		 mov	 eax, esi
  00085	8b 4d f4	 mov	 ecx, DWORD PTR __$EHRec$[ebp]
  00088	64 89 0d 00 00
	00 00		 mov	 DWORD PTR fs:0, ecx
  0008f	59		 pop	 ecx
  00090	5f		 pop	 edi
  00091	5e		 pop	 esi
  00092	8b e5		 mov	 esp, ebp
  00094	5d		 pop	 ebp
  00095	c2 0c 00	 ret	 12			; 0000000cH
_TEXT	ENDS
;	COMDAT text$x
text$x	SEGMENT
__unwindfunclet$??0CPacketList@@QAE@V?$CStringT@DV?$StrTraitMFC_DLL@DV?$ChTraitsCRT@D@ATL@@@@@ATL@@W4REALTYPE@CPacketType@@PAUIChartCtrl@@@Z$0:
  00000	8d 4d 08	 lea	 ecx, DWORD PTR _strPacketOption$[ebp]
  00003	ff 25 00 00 00
	00		 jmp	 DWORD PTR __imp_??1?$CStringT@DV?$StrTraitMFC_DLL@DV?$ChTraitsCRT@D@ATL@@@@@ATL@@QAE@XZ
__unwindfunclet$??0CPacketList@@QAE@V?$CStringT@DV?$StrTraitMFC_DLL@DV?$ChTraitsCRT@D@ATL@@@@@ATL@@W4REALTYPE@CPacketType@@PAUIChartCtrl@@@Z$1:
  00009	68 d0 01 00 00	 push	 464			; 000001d0H
  0000e	8b 45 f0	 mov	 eax, DWORD PTR $T2[ebp]
  00011	50		 push	 eax
  00012	e8 00 00 00 00	 call	 ??3@YAXPAXI@Z		; operator delete
  00017	83 c4 08	 add	 esp, 8
  0001a	c3		 ret	 0
  0001b	cc		 int	 3
  0001c	cc		 int	 3
  0001d	cc		 int	 3
  0001e	cc		 int	 3
  0001f	cc		 int	 3
__ehhandler$??0CPacketList@@QAE@V?$CStringT@DV?$StrTraitMFC_DLL@DV?$ChTraitsCRT@D@ATL@@@@@ATL@@W4REALTYPE@CPacketType@@PAUIChartCtrl@@@Z:
  00020	90		 npad	 1
  00021	90		 npad	 1
  00022	8b 54 24 08	 mov	 edx, DWORD PTR [esp+8]
  00026	8d 42 0c	 lea	 eax, DWORD PTR [edx+12]
  00029	8b 4a f0	 mov	 ecx, DWORD PTR [edx-16]
  0002c	33 c8		 xor	 ecx, eax
  0002e	e8 00 00 00 00	 call	 @__security_check_cookie@4
  00033	b8 00 00 00 00	 mov	 eax, OFFSET __ehfuncinfo$??0CPacketList@@QAE@V?$CStringT@DV?$StrTraitMFC_DLL@DV?$ChTraitsCRT@D@ATL@@@@@ATL@@W4REALTYPE@CPacketType@@PAUIChartCtrl@@@Z
  00038	e9 00 00 00 00	 jmp	 ___CxxFrameHandler3
text$x	ENDS
??0CPacketList@@QAE@V?$CStringT@DV?$StrTraitMFC_DLL@DV?$ChTraitsCRT@D@ATL@@@@@ATL@@W4REALTYPE@CPacketType@@PAUIChartCtrl@@@Z ENDP ; CPacketList::CPacketList
; Function compile flags: /Ogtp
; File D:\git\src\IBK\IBK_DRFN\ProjSrc\SrcChartEx\ChartOCX\PacketData\PacketList.cpp
;	COMDAT ??0CPacketList@@QAE@W4REALTYPE@CPacketType@@PAUIChartCtrl@@@Z
_TEXT	SEGMENT
$T2 = -16						; size = 4
__$EHRec$ = -12						; size = 12
_eRealType$ = 8						; size = 4
_p_pIChartCtrl$ = 12					; size = 4
??0CPacketList@@QAE@W4REALTYPE@CPacketType@@PAUIChartCtrl@@@Z PROC ; CPacketList::CPacketList, COMDAT
; _this$ = ecx

; 27   : {

  00000	55		 push	 ebp
  00001	8b ec		 mov	 ebp, esp
  00003	6a ff		 push	 -1
  00005	68 00 00 00 00	 push	 __ehhandler$??0CPacketList@@QAE@W4REALTYPE@CPacketType@@PAUIChartCtrl@@@Z
  0000a	64 a1 00 00 00
	00		 mov	 eax, DWORD PTR fs:0
  00010	50		 push	 eax
  00011	51		 push	 ecx
  00012	56		 push	 esi
  00013	a1 00 00 00 00	 mov	 eax, DWORD PTR ___security_cookie
  00018	33 c5		 xor	 eax, ebp
  0001a	50		 push	 eax
  0001b	8d 45 f4	 lea	 eax, DWORD PTR __$EHRec$[ebp]
  0001e	64 a3 00 00 00
	00		 mov	 DWORD PTR fs:0, eax
  00024	8b f1		 mov	 esi, ecx

; 28   : 	// (2008/1/20 - Seung-Won, Bae) for MultiLanguage.
; 29   : 	g_iMetaTable.LoadMetaTable();

  00026	b9 00 00 00 00	 mov	 ecx, OFFSET ?g_iMetaTable@@3VIMetaTable@@A ; g_iMetaTable
  0002b	c7 06 00 00 00
	00		 mov	 DWORD PTR [esi], OFFSET ??_7CPacketList@@6B@
  00031	e8 00 00 00 00	 call	 ?LoadMetaTable@IMetaTable@@QAEXXZ ; IMetaTable::LoadMetaTable

; 30   : 
; 31   : 	m_pPacketListImple = new CPacketListImplementation(this, eRealType, p_pIChartCtrl);

  00036	68 d0 01 00 00	 push	 464			; 000001d0H
  0003b	e8 00 00 00 00	 call	 ??2@YAPAXI@Z		; operator new
  00040	83 c4 04	 add	 esp, 4
  00043	89 45 f0	 mov	 DWORD PTR $T2[ebp], eax
  00046	c7 45 fc 00 00
	00 00		 mov	 DWORD PTR __$EHRec$[ebp+8], 0
  0004d	85 c0		 test	 eax, eax
  0004f	74 25		 je	 SHORT $LN3@CPacketLis
  00051	ff 75 0c	 push	 DWORD PTR _p_pIChartCtrl$[ebp]
  00054	8b c8		 mov	 ecx, eax
  00056	ff 75 08	 push	 DWORD PTR _eRealType$[ebp]
  00059	56		 push	 esi
  0005a	e8 00 00 00 00	 call	 ??0CPacketListImplementation@@QAE@PAVCPacketList@@W4REALTYPE@CPacketType@@PAUIChartCtrl@@@Z ; CPacketListImplementation::CPacketListImplementation
  0005f	89 46 04	 mov	 DWORD PTR [esi+4], eax

; 32   : }

  00062	8b c6		 mov	 eax, esi
  00064	8b 4d f4	 mov	 ecx, DWORD PTR __$EHRec$[ebp]
  00067	64 89 0d 00 00
	00 00		 mov	 DWORD PTR fs:0, ecx
  0006e	59		 pop	 ecx
  0006f	5e		 pop	 esi
  00070	8b e5		 mov	 esp, ebp
  00072	5d		 pop	 ebp
  00073	c2 08 00	 ret	 8
$LN3@CPacketLis:

; 30   : 
; 31   : 	m_pPacketListImple = new CPacketListImplementation(this, eRealType, p_pIChartCtrl);

  00076	c7 46 04 00 00
	00 00		 mov	 DWORD PTR [esi+4], 0

; 32   : }

  0007d	8b c6		 mov	 eax, esi
  0007f	8b 4d f4	 mov	 ecx, DWORD PTR __$EHRec$[ebp]
  00082	64 89 0d 00 00
	00 00		 mov	 DWORD PTR fs:0, ecx
  00089	59		 pop	 ecx
  0008a	5e		 pop	 esi
  0008b	8b e5		 mov	 esp, ebp
  0008d	5d		 pop	 ebp
  0008e	c2 08 00	 ret	 8
_TEXT	ENDS
;	COMDAT text$x
text$x	SEGMENT
__unwindfunclet$??0CPacketList@@QAE@W4REALTYPE@CPacketType@@PAUIChartCtrl@@@Z$0:
  00000	68 d0 01 00 00	 push	 464			; 000001d0H
  00005	8b 45 f0	 mov	 eax, DWORD PTR $T2[ebp]
  00008	50		 push	 eax
  00009	e8 00 00 00 00	 call	 ??3@YAXPAXI@Z		; operator delete
  0000e	83 c4 08	 add	 esp, 8
  00011	c3		 ret	 0
  00012	cc		 int	 3
  00013	cc		 int	 3
  00014	cc		 int	 3
  00015	cc		 int	 3
  00016	cc		 int	 3
__ehhandler$??0CPacketList@@QAE@W4REALTYPE@CPacketType@@PAUIChartCtrl@@@Z:
  00017	90		 npad	 1
  00018	90		 npad	 1
  00019	8b 54 24 08	 mov	 edx, DWORD PTR [esp+8]
  0001d	8d 42 0c	 lea	 eax, DWORD PTR [edx+12]
  00020	8b 4a f4	 mov	 ecx, DWORD PTR [edx-12]
  00023	33 c8		 xor	 ecx, eax
  00025	e8 00 00 00 00	 call	 @__security_check_cookie@4
  0002a	b8 00 00 00 00	 mov	 eax, OFFSET __ehfuncinfo$??0CPacketList@@QAE@W4REALTYPE@CPacketType@@PAUIChartCtrl@@@Z
  0002f	e9 00 00 00 00	 jmp	 ___CxxFrameHandler3
text$x	ENDS
??0CPacketList@@QAE@W4REALTYPE@CPacketType@@PAUIChartCtrl@@@Z ENDP ; CPacketList::CPacketList
; Function compile flags: /Ogtp
; File D:\git\src\IBK\IBK_DRFN\ProjSrc\SrcChartEx\ChartOCX\Include_Chart\Dll_Load\PacketBase.h
;	COMDAT ?GetPriceUnitX100@CMPPacket@@QBEHXZ
_TEXT	SEGMENT
?GetPriceUnitX100@CMPPacket@@QBEHXZ PROC		; CMPPacket::GetPriceUnitX100, COMDAT
; _this$ = ecx

; 365  : 	int		GetPriceUnitX100( void) const			{	return m_nPriceUnitX100;	}

  00000	8b 41 24	 mov	 eax, DWORD PTR [ecx+36]
  00003	c3		 ret	 0
?GetPriceUnitX100@CMPPacket@@QBEHXZ ENDP		; CMPPacket::GetPriceUnitX100
_TEXT	ENDS
; Function compile flags: /Ogtp
; File D:\git\src\IBK\IBK_DRFN\ProjSrc\SrcChartEx\ChartOCX\Include_Chart\Dll_Load\PacketBase.h
;	COMDAT ?SetPriceUnitX100@CMPPacket@@QAEXH@Z
_TEXT	SEGMENT
_p_nPriceUnitX100$ = 8					; size = 4
?SetPriceUnitX100@CMPPacket@@QAEXH@Z PROC		; CMPPacket::SetPriceUnitX100, COMDAT
; _this$ = ecx

; 364  : 	void	SetPriceUnitX100( int p_nPriceUnitX100)	{	m_nPriceUnitX100 = p_nPriceUnitX100;	}

  00000	55		 push	 ebp
  00001	8b ec		 mov	 ebp, esp
  00003	8b 45 08	 mov	 eax, DWORD PTR _p_nPriceUnitX100$[ebp]
  00006	89 41 24	 mov	 DWORD PTR [ecx+36], eax
  00009	5d		 pop	 ebp
  0000a	c2 04 00	 ret	 4
?SetPriceUnitX100@CMPPacket@@QAEXH@Z ENDP		; CMPPacket::SetPriceUnitX100
_TEXT	ENDS
; Function compile flags: /Ogtp
; File D:\git\src\IBK\IBK_DRFN\ProjSrc\SrcChartEx\ChartOCX\Include_Chart\Dll_Load\PacketBase.h
;	COMDAT ?GetMarketProfileList@CMPPacket@@QAEPAV?$CList@PAVCMProfile@@PAV1@@@XZ
_TEXT	SEGMENT
?GetMarketProfileList@CMPPacket@@QAEPAV?$CList@PAVCMProfile@@PAV1@@@XZ PROC ; CMPPacket::GetMarketProfileList, COMDAT
; _this$ = ecx

; 349  : 	CList< CMProfile*, CMProfile*>* GetMarketProfileList() { return &m_listMarketProfile; }

  00000	8d 41 08	 lea	 eax, DWORD PTR [ecx+8]
  00003	c3		 ret	 0
?GetMarketProfileList@CMPPacket@@QAEPAV?$CList@PAVCMProfile@@PAV1@@@XZ ENDP ; CMPPacket::GetMarketProfileList
_TEXT	ENDS
; Function compile flags: /Ogtp
; File D:\git\src\IBK\IBK_DRFN\ProjSrc\SrcChartEx\ChartOCX\Include_Chart\Dll_Load\PacketBase.h
;	COMDAT ?SetLastPriceX100@CMProfile@@QAEXH@Z
_TEXT	SEGMENT
_p_nLastPriceX100$ = 8					; size = 4
?SetLastPriceX100@CMProfile@@QAEXH@Z PROC		; CMProfile::SetLastPriceX100, COMDAT
; _this$ = ecx

; 327  : 	void	SetLastPriceX100( int p_nLastPriceX100)	{	m_nLastPriceX100 = p_nLastPriceX100;	}

  00000	55		 push	 ebp
  00001	8b ec		 mov	 ebp, esp
  00003	8b 45 08	 mov	 eax, DWORD PTR _p_nLastPriceX100$[ebp]
  00006	89 41 24	 mov	 DWORD PTR [ecx+36], eax
  00009	5d		 pop	 ebp
  0000a	c2 04 00	 ret	 4
?SetLastPriceX100@CMProfile@@QAEXH@Z ENDP		; CMProfile::SetLastPriceX100
_TEXT	ENDS
; Function compile flags: /Ogtp
; File D:\git\src\IBK\IBK_DRFN\ProjSrc\SrcChartEx\ChartOCX\Include_Chart\Dll_Load\PacketBase.h
;	COMDAT ?GetLastPriceX100@CMProfile@@QBEHXZ
_TEXT	SEGMENT
?GetLastPriceX100@CMProfile@@QBEHXZ PROC		; CMProfile::GetLastPriceX100, COMDAT
; _this$ = ecx

; 326  : 	int		GetLastPriceX100( void) const		{	return m_nLastPriceX100;				}

  00000	8b 41 24	 mov	 eax, DWORD PTR [ecx+36]
  00003	c3		 ret	 0
?GetLastPriceX100@CMProfile@@QBEHXZ ENDP		; CMProfile::GetLastPriceX100
_TEXT	ENDS
; Function compile flags: /Ogtp
; File D:\git\src\IBK\IBK_DRFN\ProjSrc\SrcChartEx\ChartOCX\Include_Chart\Dll_Load\PacketBase.h
; File C:\Program Files (x86)\Microsoft Visual Studio\2019\Community\VC\Tools\MSVC\14.29.30133\atlmfc\include\afxtempl.h
; File D:\git\src\IBK\IBK_DRFN\ProjSrc\SrcChartEx\ChartOCX\Include_Chart\Dll_Load\PacketBase.h
;	COMDAT ?IsEmpty@CMProfile@@QAEHXZ
_TEXT	SEGMENT
?IsEmpty@CMProfile@@QAEHXZ PROC				; CMProfile::IsEmpty, COMDAT
; _this$ = ecx
; File C:\Program Files (x86)\Microsoft Visual Studio\2019\Community\VC\Tools\MSVC\14.29.30133\atlmfc\include\afxtempl.h

; 786  : 	{ return m_nCount == 0; }

  00000	33 c0		 xor	 eax, eax
  00002	39 41 14	 cmp	 DWORD PTR [ecx+20], eax
  00005	0f 94 c0	 sete	 al
; File D:\git\src\IBK\IBK_DRFN\ProjSrc\SrcChartEx\ChartOCX\Include_Chart\Dll_Load\PacketBase.h

; 319  : 	BOOL	IsEmpty( void)	{	return m_listMPItem.IsEmpty();	}

  00008	c3		 ret	 0
?IsEmpty@CMProfile@@QAEHXZ ENDP				; CMProfile::IsEmpty
_TEXT	ENDS
; Function compile flags: /Ogtp
; File D:\git\src\IBK\IBK_DRFN\ProjSrc\SrcChartEx\ChartOCX\Include_Chart\Dll_Load\PacketBase.h
;	COMDAT ?SetDate@CMProfile@@QAEXH@Z
_TEXT	SEGMENT
_nDate$ = 8						; size = 4
?SetDate@CMProfile@@QAEXH@Z PROC			; CMProfile::SetDate, COMDAT
; _this$ = ecx

; 300  : 	void		SetDate(const int nDate)	{	m_nDate = nDate;	}

  00000	55		 push	 ebp
  00001	8b ec		 mov	 ebp, esp
  00003	8b 45 08	 mov	 eax, DWORD PTR _nDate$[ebp]
  00006	89 41 04	 mov	 DWORD PTR [ecx+4], eax
  00009	5d		 pop	 ebp
  0000a	c2 04 00	 ret	 4
?SetDate@CMProfile@@QAEXH@Z ENDP			; CMProfile::SetDate
_TEXT	ENDS
; Function compile flags: /Ogtp
; File D:\git\src\IBK\IBK_DRFN\ProjSrc\SrcChartEx\ChartOCX\Include_Chart\Dll_Load\PacketBase.h
;	COMDAT ?GetMPItemList@CMProfile@@QAEPAV?$CList@PAVCMPItem@@PAV1@@@XZ
_TEXT	SEGMENT
?GetMPItemList@CMProfile@@QAEPAV?$CList@PAVCMPItem@@PAV1@@@XZ PROC ; CMProfile::GetMPItemList, COMDAT
; _this$ = ecx

; 289  : 	CList<CMPItem*, CMPItem*>* GetMPItemList()	{	return &m_listMPItem; }

  00000	8d 41 08	 lea	 eax, DWORD PTR [ecx+8]
  00003	c3		 ret	 0
?GetMPItemList@CMProfile@@QAEPAV?$CList@PAVCMPItem@@PAV1@@@XZ ENDP ; CMProfile::GetMPItemList
_TEXT	ENDS
; Function compile flags: /Ogtp
; File D:\git\src\IBK\IBK_DRFN\ProjSrc\SrcChartEx\ChartOCX\Include_Chart\Dll_Load\PacketBase.h
;	COMDAT ?GetDate@CMProfile@@QBEHXZ
_TEXT	SEGMENT
?GetDate@CMProfile@@QBEHXZ PROC				; CMProfile::GetDate, COMDAT
; _this$ = ecx

; 288  : 	int			GetDate() const					{	return m_nDate;	}

  00000	8b 41 04	 mov	 eax, DWORD PTR [ecx+4]
  00003	c3		 ret	 0
?GetDate@CMProfile@@QBEHXZ ENDP				; CMProfile::GetDate
_TEXT	ENDS
; Function compile flags: /Ogtp
; File D:\git\src\IBK\IBK_DRFN\ProjSrc\SrcChartEx\ChartOCX\Include_Chart\Dll_Load\PacketBase.h
;	COMDAT ?AddVolume@CMPItem@@QAEXK@Z
_TEXT	SEGMENT
_dwVolume$ = 8						; size = 4
?AddVolume@CMPItem@@QAEXK@Z PROC			; CMPItem::AddVolume, COMDAT
; _this$ = ecx

; 269  : 	void	AddVolume(	DWORD	dwVolume)	{	m_dwVolume		+=	dwVolume;		}

  00000	55		 push	 ebp
  00001	8b ec		 mov	 ebp, esp
  00003	8b 45 08	 mov	 eax, DWORD PTR _dwVolume$[ebp]
  00006	01 41 04	 add	 DWORD PTR [ecx+4], eax
  00009	5d		 pop	 ebp
  0000a	c2 04 00	 ret	 4
?AddVolume@CMPItem@@QAEXK@Z ENDP			; CMPItem::AddVolume
_TEXT	ENDS
; Function compile flags: /Ogtp
; File D:\git\src\IBK\IBK_DRFN\ProjSrc\SrcChartEx\ChartOCX\Include_Chart\Dll_Load\PacketBase.h
;	COMDAT ?SetPrice@CMPItem@@QAEXH@Z
_TEXT	SEGMENT
_nPriceX100$ = 8					; size = 4
?SetPrice@CMPItem@@QAEXH@Z PROC				; CMPItem::SetPrice, COMDAT
; _this$ = ecx

; 268  : 	void	SetPrice(	int		nPriceX100)	{	m_nPriceX100	=	nPriceX100;		}

  00000	55		 push	 ebp
  00001	8b ec		 mov	 ebp, esp
  00003	8b 45 08	 mov	 eax, DWORD PTR _nPriceX100$[ebp]
  00006	89 01		 mov	 DWORD PTR [ecx], eax
  00008	5d		 pop	 ebp
  00009	c2 04 00	 ret	 4
?SetPrice@CMPItem@@QAEXH@Z ENDP				; CMPItem::SetPrice
_TEXT	ENDS
; Function compile flags: /Ogtp
; File D:\git\src\IBK\IBK_DRFN\ProjSrc\SrcChartEx\ChartOCX\Include_Chart\Dll_Load\PacketBase.h
;	COMDAT ?GetBracketList@CMPItem@@QAEPAV?$CList@PAVCBracket@@PAV1@@@XZ
_TEXT	SEGMENT
?GetBracketList@CMPItem@@QAEPAV?$CList@PAVCBracket@@PAV1@@@XZ PROC ; CMPItem::GetBracketList, COMDAT
; _this$ = ecx

; 266  : 	CList<CBracket*, CBracket*>* GetBracketList()	{ return &m_listBracket; }

  00000	8d 41 08	 lea	 eax, DWORD PTR [ecx+8]
  00003	c3		 ret	 0
?GetBracketList@CMPItem@@QAEPAV?$CList@PAVCBracket@@PAV1@@@XZ ENDP ; CMPItem::GetBracketList
_TEXT	ENDS
; Function compile flags: /Ogtp
; File D:\git\src\IBK\IBK_DRFN\ProjSrc\SrcChartEx\ChartOCX\Include_Chart\Dll_Load\PacketBase.h
;	COMDAT ?GetVolume@CMPItem@@QBEKXZ
_TEXT	SEGMENT
?GetVolume@CMPItem@@QBEKXZ PROC				; CMPItem::GetVolume, COMDAT
; _this$ = ecx

; 265  : 	DWORD	GetVolume()		const { return m_dwVolume;		}

  00000	8b 41 04	 mov	 eax, DWORD PTR [ecx+4]
  00003	c3		 ret	 0
?GetVolume@CMPItem@@QBEKXZ ENDP				; CMPItem::GetVolume
_TEXT	ENDS
; Function compile flags: /Ogtp
; File D:\git\src\IBK\IBK_DRFN\ProjSrc\SrcChartEx\ChartOCX\Include_Chart\Dll_Load\PacketBase.h
;	COMDAT ?GetPriceX100@CMPItem@@QBEHXZ
_TEXT	SEGMENT
?GetPriceX100@CMPItem@@QBEHXZ PROC			; CMPItem::GetPriceX100, COMDAT
; _this$ = ecx

; 264  : 	int		GetPriceX100()	const { return m_nPriceX100;	}

  00000	8b 01		 mov	 eax, DWORD PTR [ecx]
  00002	c3		 ret	 0
?GetPriceX100@CMPItem@@QBEHXZ ENDP			; CMPItem::GetPriceX100
_TEXT	ENDS
; Function compile flags: /Ogtp
;	COMDAT ??4CBracket@@QAEAAV0@ABV0@@Z
_TEXT	SEGMENT
___that$ = 8						; size = 4
??4CBracket@@QAEAAV0@ABV0@@Z PROC			; CBracket::operator=, COMDAT
; _this$ = ecx
  00000	55		 push	 ebp
  00001	8b ec		 mov	 ebp, esp
  00003	8b 55 08	 mov	 edx, DWORD PTR ___that$[ebp]
  00006	56		 push	 esi
  00007	8b f1		 mov	 esi, ecx
  00009	8b 02		 mov	 eax, DWORD PTR [edx]
  0000b	89 06		 mov	 DWORD PTR [esi], eax
  0000d	8d 4e 08	 lea	 ecx, DWORD PTR [esi+8]
  00010	8b 42 04	 mov	 eax, DWORD PTR [edx+4]
  00013	89 46 04	 mov	 DWORD PTR [esi+4], eax
  00016	8d 42 08	 lea	 eax, DWORD PTR [edx+8]
  00019	50		 push	 eax
  0001a	ff 15 00 00 00
	00		 call	 DWORD PTR __imp_??4?$CStringT@DV?$StrTraitMFC_DLL@DV?$ChTraitsCRT@D@ATL@@@@@ATL@@QAEAAV01@ABV01@@Z
  00020	8b c6		 mov	 eax, esi
  00022	5e		 pop	 esi
  00023	5d		 pop	 ebp
  00024	c2 04 00	 ret	 4
??4CBracket@@QAEAAV0@ABV0@@Z ENDP			; CBracket::operator=
_TEXT	ENDS
; Function compile flags: /Ogtp
;	COMDAT ??0CBracket@@QAE@ABV0@@Z
_TEXT	SEGMENT
_this$ = -4						; size = 4
___that$ = 8						; size = 4
??0CBracket@@QAE@ABV0@@Z PROC				; CBracket::CBracket, COMDAT
; _this$ = ecx
  00000	55		 push	 ebp
  00001	8b ec		 mov	 ebp, esp
  00003	51		 push	 ecx
  00004	8b 55 08	 mov	 edx, DWORD PTR ___that$[ebp]
  00007	56		 push	 esi
  00008	8b f1		 mov	 esi, ecx
  0000a	89 75 fc	 mov	 DWORD PTR _this$[ebp], esi
  0000d	8b 02		 mov	 eax, DWORD PTR [edx]
  0000f	89 06		 mov	 DWORD PTR [esi], eax
  00011	8d 4e 08	 lea	 ecx, DWORD PTR [esi+8]
  00014	8b 42 04	 mov	 eax, DWORD PTR [edx+4]
  00017	89 46 04	 mov	 DWORD PTR [esi+4], eax
  0001a	8d 42 08	 lea	 eax, DWORD PTR [edx+8]
  0001d	50		 push	 eax
  0001e	ff 15 00 00 00
	00		 call	 DWORD PTR __imp_??0?$CStringT@DV?$StrTraitMFC_DLL@DV?$ChTraitsCRT@D@ATL@@@@@ATL@@QAE@ABV01@@Z
  00024	8b c6		 mov	 eax, esi
  00026	5e		 pop	 esi
  00027	8b e5		 mov	 esp, ebp
  00029	5d		 pop	 ebp
  0002a	c2 04 00	 ret	 4
??0CBracket@@QAE@ABV0@@Z ENDP				; CBracket::CBracket
_TEXT	ENDS
; Function compile flags: /Ogtp
; File D:\git\src\IBK\IBK_DRFN\ProjSrc\SrcChartEx\ChartOCX\Include_Chart\Dll_Load\PacketBase.h
;	COMDAT ?GetItem@CBracket@@QBEPBDXZ
_TEXT	SEGMENT
?GetItem@CBracket@@QBEPBDXZ PROC			; CBracket::GetItem, COMDAT
; _this$ = ecx

; 251  : 	const char *	GetItem()	const	{	return m_szItem;	}

  00000	8b 41 08	 mov	 eax, DWORD PTR [ecx+8]
  00003	c3		 ret	 0
?GetItem@CBracket@@QBEPBDXZ ENDP			; CBracket::GetItem
_TEXT	ENDS
; Function compile flags: /Ogtp
; File D:\git\src\IBK\IBK_DRFN\ProjSrc\SrcChartEx\ChartOCX\Include_Chart\Dll_Load\PacketBase.h
;	COMDAT ?GetDate@CBracket@@QBEHXZ
_TEXT	SEGMENT
?GetDate@CBracket@@QBEHXZ PROC				; CBracket::GetDate, COMDAT
; _this$ = ecx

; 250  : 	int				GetDate()	const	{	return m_nDate;		}

  00000	8b 41 04	 mov	 eax, DWORD PTR [ecx+4]
  00003	c3		 ret	 0
?GetDate@CBracket@@QBEHXZ ENDP				; CBracket::GetDate
_TEXT	ENDS
; Function compile flags: /Ogtp
; File D:\git\src\IBK\IBK_DRFN\ProjSrc\SrcChartEx\ChartOCX\Include_Chart\Dll_Load\PacketBase.h
;	COMDAT ?GetIndex@CBracket@@QBEHXZ
_TEXT	SEGMENT
?GetIndex@CBracket@@QBEHXZ PROC				; CBracket::GetIndex, COMDAT
; _this$ = ecx

; 249  : 	int				GetIndex()	const	{	return m_nIndex;	}

  00000	8b 01		 mov	 eax, DWORD PTR [ecx]
  00002	c3		 ret	 0
?GetIndex@CBracket@@QBEHXZ ENDP				; CBracket::GetIndex
_TEXT	ENDS
; Function compile flags: /Ogtp
; File D:\git\src\IBK\IBK_DRFN\ProjSrc\SrcChartEx\ChartOCX\PacketData\PacketList.cpp
;	COMDAT ?__empty_global_delete@@YAXPAXI@Z
_TEXT	SEGMENT
___formal$ = 8						; size = 4
___formal$ = 12						; size = 4
?__empty_global_delete@@YAXPAXI@Z PROC			; __empty_global_delete, COMDAT

  00000	c2 00 00	 ret	 0
?__empty_global_delete@@YAXPAXI@Z ENDP			; __empty_global_delete
_TEXT	ENDS
; Function compile flags: /Ogtp
; File D:\git\src\IBK\IBK_DRFN\ProjSrc\SrcChartEx\ChartOCX\PacketData\PacketList.cpp
;	COMDAT ?__empty_global_delete@@YAXPAX@Z
_TEXT	SEGMENT
___formal$ = 8						; size = 4
?__empty_global_delete@@YAXPAX@Z PROC			; __empty_global_delete, COMDAT

  00000	c2 00 00	 ret	 0
?__empty_global_delete@@YAXPAX@Z ENDP			; __empty_global_delete
_TEXT	ENDS
END
