; Listing generated by Microsoft (R) Optimizing Compiler Version 19.29.30145.0 

	TITLE	D:\git\src\IBK\IBK_DRFN\#DRfn-CS\_Obj\PacketData\RealModuleCenter.obj
	.686P
	.XMM
	include listing.inc
	.model	flat

INCLUDELIB MSVCRT
INCLUDELIB OLDNAMES

PUBLIC	?__empty_global_delete@@YAXPAX@Z		; __empty_global_delete
PUBLIC	?__empty_global_delete@@YAXPAXI@Z		; __empty_global_delete
PUBLIC	??1CDateData@@QAE@XZ				; CDateData::~CDateData
PUBLIC	??0CRealModuleCenter@@QAE@W4REALTYPE@CPacketType@@PAUIChartCtrl@@PAV?$CTypedPtrList@VCObList@@PAVCPacket@@@@@Z ; CRealModuleCenter::CRealModuleCenter
PUBLIC	??1CRealModuleCenter@@UAE@XZ			; CRealModuleCenter::~CRealModuleCenter
PUBLIC	?SetRealBasePacket@CRealModuleCenter@@QAEXPAVCPacket@@@Z ; CRealModuleCenter::SetRealBasePacket
PUBLIC	?SetUpdateOrAppendIndex@CRealModuleCenter@@QAEXH@Z ; CRealModuleCenter::SetUpdateOrAppendIndex
PUBLIC	?GetUpdateOrAppendIndex@CRealModuleCenter@@QBEHXZ ; CRealModuleCenter::GetUpdateOrAppendIndex
PUBLIC	?SetUpdateRangeOffset@CRealModuleCenter@@QAEXHH@Z ; CRealModuleCenter::SetUpdateRangeOffset
PUBLIC	?SetPacketMinMaxAndUpdateRage@CRealModuleCenter@@QAEXPAVCPacket@@@Z ; CRealModuleCenter::SetPacketMinMaxAndUpdateRage
PUBLIC	?GetUpdateRange@CRealModuleCenter@@QBE?AVCPoint@@XZ ; CRealModuleCenter::GetUpdateRange
PUBLIC	?SetRealDataModuleAndData@CRealModuleCenter@@QAE_N_NABV?$CStringT@DV?$StrTraitMFC_DLL@DV?$ChTraitsCRT@D@ATL@@@@@ATL@@0@Z ; CRealModuleCenter::SetRealDataModuleAndData
PUBLIC	?SetAddTimeInterval@CRealModuleCenter@@QAEXH@Z	; CRealModuleCenter::SetAddTimeInterval
PUBLIC	?SetDateUnitType@CRealModuleCenter@@QAEXW4HORZSCALEDRAWERTYPE@CScaleBaseData@@@Z ; CRealModuleCenter::SetDateUnitType
PUBLIC	?GetDateUnitType@CRealModuleCenter@@QBE?AW4HORZSCALEDRAWERTYPE@CScaleBaseData@@XZ ; CRealModuleCenter::GetDateUnitType
PUBLIC	?SetTimeInterval@CRealModuleCenter@@QAEXH@Z	; CRealModuleCenter::SetTimeInterval
PUBLIC	?GetTimeInterval@CRealModuleCenter@@QBEHXZ	; CRealModuleCenter::GetTimeInterval
PUBLIC	?GetTimeIntervalWithSecond@CRealModuleCenter@@QAE_JXZ ; CRealModuleCenter::GetTimeIntervalWithSecond
PUBLIC	?SetAppendOrUpdateData_DataInDate@CRealModuleCenter@@QAE_NPAVCPacket@@HABNAAN@Z ; CRealModuleCenter::SetAppendOrUpdateData_DataInDate
PUBLIC	?SetAppendData@CRealModuleCenter@@QAE_NPAVCPacket@@HABN1@Z ; CRealModuleCenter::SetAppendData
PUBLIC	?SetUpdateData_Compare@CRealModuleCenter@@QAE_NPAVCPacket@@HABN_N@Z ; CRealModuleCenter::SetUpdateData_Compare
PUBLIC	?SetRealData@CRealModuleCenter@@QAE_NPAVCPacket@@NHAAH@Z ; CRealModuleCenter::SetRealData
PUBLIC	?GetRealData_CloseTime@CRealModuleCenter@@QAE_NPAVCPacket@@AB_JAA_J@Z ; CRealModuleCenter::GetRealData_CloseTime
PUBLIC	?SetCurrentDate@CRealModuleCenter@@QAEXABV?$CStringT@DV?$StrTraitMFC_DLL@DV?$ChTraitsCRT@D@ATL@@@@@ATL@@@Z ; CRealModuleCenter::SetCurrentDate
PUBLIC	?SetMarketTime@CRealModuleCenter@@QAEXABV?$CStringT@DV?$StrTraitMFC_DLL@DV?$ChTraitsCRT@D@ATL@@@@@ATL@@@Z ; CRealModuleCenter::SetMarketTime
PUBLIC	?GetMarketTime@CRealModuleCenter@@QBE_NAAH0@Z	; CRealModuleCenter::GetMarketTime
PUBLIC	?GetRealData_RealDateTime@CRealModuleCenter@@QBEXAAN@Z ; CRealModuleCenter::GetRealData_RealDateTime
PUBLIC	?GetRealType@CRealModuleCenter@@QBE?AW4REALTYPE@CPacketType@@XZ ; CRealModuleCenter::GetRealType
PUBLIC	?GetStartTimeInTimeRangeOfLastData@CRealModuleCenter@@QAE_JXZ ; CRealModuleCenter::GetStartTimeInTimeRangeOfLastData
PUBLIC	?SetCurrDateTime@CRealModuleCenter@@QAEXABV?$CStringT@DV?$StrTraitMFC_DLL@DV?$ChTraitsCRT@D@ATL@@@@@ATL@@@Z ; CRealModuleCenter::SetCurrDateTime
PUBLIC	?GetCurrDateTime@CRealModuleCenter@@QBE_JXZ	; CRealModuleCenter::GetCurrDateTime
PUBLIC	?GetMarketDayType@CRealModuleCenter@@QAE?AW4MARKETDAYTYPE@CPacketType@@XZ ; CRealModuleCenter::GetMarketDayType
PUBLIC	?SetRealTimeType@CRealModuleCenter@@QAEXABV?$CStringT@DV?$StrTraitMFC_DLL@DV?$ChTraitsCRT@D@ATL@@@@@ATL@@@Z ; CRealModuleCenter::SetRealTimeType
PUBLIC	?InitializeHelpMessage@CRealModuleCenter@@QAEXXZ ; CRealModuleCenter::InitializeHelpMessage
PUBLIC	?InitializeTRPart@CRealModuleCenter@@QAEXPAVCPacket@@0000@Z ; CRealModuleCenter::InitializeTRPart
PUBLIC	?GetOrgDataBeforeRate@CRealModuleCenter@@QAENPBDN@Z ; CRealModuleCenter::GetOrgDataBeforeRate
PUBLIC	?SetTimeDiffInfo@CRealModuleCenter@@QAEXABH0@Z	; CRealModuleCenter::SetTimeDiffInfo
PUBLIC	?SetLastRealTime@CRealModuleCenter@@IAEXAB_J@Z	; CRealModuleCenter::SetLastRealTime
PUBLIC	?PushNMTRState@CRealModuleCenter@@QAEX_J@Z	; CRealModuleCenter::PushNMTRState
PUBLIC	?PopNMTRState@CRealModuleCenter@@QAEXXZ		; CRealModuleCenter::PopNMTRState
PUBLIC	?GetLastClockAndRealTime@CRealModuleCenter@@QAEHAA_J0@Z ; CRealModuleCenter::GetLastClockAndRealTime
PUBLIC	?SetNewRangeStartTime@CRealModuleCenter@@QAEXABV?$CStringT@DV?$StrTraitMFC_DLL@DV?$ChTraitsCRT@D@ATL@@@@@ATL@@@Z ; CRealModuleCenter::SetNewRangeStartTime
PUBLIC	??_GCRealModuleCenter@@UAEPAXI@Z		; CRealModuleCenter::`scalar deleting destructor'
PUBLIC	?GetIndex@CBracket@@QBEHXZ			; CBracket::GetIndex
PUBLIC	?GetDate@CBracket@@QBEHXZ			; CBracket::GetDate
PUBLIC	?GetItem@CBracket@@QBEPBDXZ			; CBracket::GetItem
PUBLIC	??0CBracket@@QAE@ABV0@@Z			; CBracket::CBracket
PUBLIC	??4CBracket@@QAEAAV0@ABV0@@Z			; CBracket::operator=
PUBLIC	?GetPriceX100@CMPItem@@QBEHXZ			; CMPItem::GetPriceX100
PUBLIC	?GetVolume@CMPItem@@QBEKXZ			; CMPItem::GetVolume
PUBLIC	?GetBracketList@CMPItem@@QAEPAV?$CList@PAVCBracket@@PAV1@@@XZ ; CMPItem::GetBracketList
PUBLIC	?SetPrice@CMPItem@@QAEXH@Z			; CMPItem::SetPrice
PUBLIC	?AddVolume@CMPItem@@QAEXK@Z			; CMPItem::AddVolume
PUBLIC	?GetDate@CMProfile@@QBEHXZ			; CMProfile::GetDate
PUBLIC	?GetMPItemList@CMProfile@@QAEPAV?$CList@PAVCMPItem@@PAV1@@@XZ ; CMProfile::GetMPItemList
PUBLIC	?SetDate@CMProfile@@QAEXH@Z			; CMProfile::SetDate
PUBLIC	?IsEmpty@CMProfile@@QAEHXZ			; CMProfile::IsEmpty
PUBLIC	?GetLastPriceX100@CMProfile@@QBEHXZ		; CMProfile::GetLastPriceX100
PUBLIC	?SetLastPriceX100@CMProfile@@QAEXH@Z		; CMProfile::SetLastPriceX100
PUBLIC	?GetMarketProfileList@CMPPacket@@QAEPAV?$CList@PAVCMProfile@@PAV1@@@XZ ; CMPPacket::GetMarketProfileList
PUBLIC	?SetPriceUnitX100@CMPPacket@@QAEXH@Z		; CMPPacket::SetPriceUnitX100
PUBLIC	?GetPriceUnitX100@CMPPacket@@QBEHXZ		; CMPPacket::GetPriceUnitX100
PUBLIC	??_7CRealModuleCenter@@6B@			; CRealModuleCenter::`vftable'
PUBLIC	??_C@_06MAANBBPI@HHMMSS@			; `string'
PUBLIC	??_C@_0L@PHFILLDG@_BuyClose_@			; `string'
PUBLIC	??_C@_0M@DKEGEIMD@_SellClose_@			; `string'
PUBLIC	??_C@_01DNKMNLPK@?$HM@				; `string'
PUBLIC	??_R4CRealModuleCenter@@6B@			; CRealModuleCenter::`RTTI Complete Object Locator'
PUBLIC	??_R0?AVCRealModuleCenter@@@8			; CRealModuleCenter `RTTI Type Descriptor'
PUBLIC	??_R3CRealModuleCenter@@8			; CRealModuleCenter::`RTTI Class Hierarchy Descriptor'
PUBLIC	??_R2CRealModuleCenter@@8			; CRealModuleCenter::`RTTI Base Class Array'
PUBLIC	??_R1A@?0A@EA@CRealModuleCenter@@8		; CRealModuleCenter::`RTTI Base Class Descriptor at (0,-1,0,64)'
PUBLIC	__real@412e848000000000
EXTRN	??2@YAPAXI@Z:PROC				; operator new
EXTRN	??3@YAXPAXI@Z:PROC				; operator delete
EXTRN	__imp__GetLocalTime@4:PROC
EXTRN	__imp__atoi:PROC
EXTRN	?AfxThrowInvalidArgException@@YGXXZ:PROC	; AfxThrowInvalidArgException
EXTRN	__imp_?Empty@?$CSimpleStringT@D$00@ATL@@QAEXXZ:PROC
EXTRN	__imp_??0?$CStringT@DV?$StrTraitMFC_DLL@DV?$ChTraitsCRT@D@ATL@@@@@ATL@@QAE@XZ:PROC
EXTRN	__imp_??0?$CStringT@DV?$StrTraitMFC_DLL@DV?$ChTraitsCRT@D@ATL@@@@@ATL@@QAE@ABV01@@Z:PROC
EXTRN	__imp_??0?$CStringT@DV?$StrTraitMFC_DLL@DV?$ChTraitsCRT@D@ATL@@@@@ATL@@QAE@PBD@Z:PROC
EXTRN	__imp_??1?$CStringT@DV?$StrTraitMFC_DLL@DV?$ChTraitsCRT@D@ATL@@@@@ATL@@QAE@XZ:PROC
EXTRN	__imp_??4?$CStringT@DV?$StrTraitMFC_DLL@DV?$ChTraitsCRT@D@ATL@@@@@ATL@@QAEAAV01@ABV01@@Z:PROC
EXTRN	__imp_??4?$CStringT@DV?$StrTraitMFC_DLL@DV?$ChTraitsCRT@D@ATL@@@@@ATL@@QAEAAV01@PBD@Z:PROC
EXTRN	__imp_??Y?$CStringT@DV?$StrTraitMFC_DLL@DV?$ChTraitsCRT@D@ATL@@@@@ATL@@QAEAAV01@PBD@Z:PROC
EXTRN	__imp_?Compare@?$CStringT@DV?$StrTraitMFC_DLL@DV?$ChTraitsCRT@D@ATL@@@@@ATL@@QBEHPBD@Z:PROC
EXTRN	__imp_?Find@?$CStringT@DV?$StrTraitMFC_DLL@DV?$ChTraitsCRT@D@ATL@@@@@ATL@@QBEHPBDH@Z:PROC
EXTRN	__imp_?Mid@?$CStringT@DV?$StrTraitMFC_DLL@DV?$ChTraitsCRT@D@ATL@@@@@ATL@@QBE?AV12@H@Z:PROC
EXTRN	__imp_?Left@?$CStringT@DV?$StrTraitMFC_DLL@DV?$ChTraitsCRT@D@ATL@@@@@ATL@@QBE?AV12@H@Z:PROC
EXTRN	??0CDateData@@QAE@XZ:PROC			; CDateData::CDateData
EXTRN	?SetDate@CDateData@@QAEXXZ:PROC			; CDateData::SetDate
EXTRN	?SetDate@CDateData@@QAEXABV?$CStringT@DV?$StrTraitMFC_DLL@DV?$ChTraitsCRT@D@ATL@@@@@ATL@@@Z:PROC ; CDateData::SetDate
EXTRN	?SetPacketType@CDateData@@QAEXABV?$CStringT@DV?$StrTraitMFC_DLL@DV?$ChTraitsCRT@D@ATL@@@@@ATL@@@Z:PROC ; CDateData::SetPacketType
EXTRN	?GetTimeFromServer@CTimeData@@QBEHXZ:PROC	; CTimeData::GetTimeFromServer
EXTRN	??0CMarketTimeData@@QAE@XZ:PROC			; CMarketTimeData::CMarketTimeData
EXTRN	?SetMarketStartTime@CMarketTimeData@@QAEXH_N@Z:PROC ; CMarketTimeData::SetMarketStartTime
EXTRN	?SetMarketEndTime@CMarketTimeData@@QAEXH_N@Z:PROC ; CMarketTimeData::SetMarketEndTime
EXTRN	?GetMarketTime@CMarketTimeData@@QBE_NAAH0@Z:PROC ; CMarketTimeData::GetMarketTime
EXTRN	?GetMarketStartTime@CMarketTimeData@@QBE_NAAV?$CStringT@DV?$StrTraitMFC_DLL@DV?$ChTraitsCRT@D@ATL@@@@@ATL@@@Z:PROC ; CMarketTimeData::GetMarketStartTime
EXTRN	??0CRealDataModule@@QAE@PAUHWND__@@W4REALDATAMODULETYPE@0@@Z:PROC ; CRealDataModule::CRealDataModule
EXTRN	??1CRealDataModule@@UAE@XZ:PROC			; CRealDataModule::~CRealDataModule
EXTRN	?SetRealDataModuleType@CRealDataModule@@QAEXW4REALDATAMODULETYPE@1@ABV?$CStringT@DV?$StrTraitMFC_DLL@DV?$ChTraitsCRT@D@ATL@@@@@ATL@@@Z:PROC ; CRealDataModule::SetRealDataModuleType
EXTRN	?SetRealDataModuleType@CRealDataModule@@QAE_NW4REALDATAMODULETYPE@1@@Z:PROC ; CRealDataModule::SetRealDataModuleType
EXTRN	?ChangeExchangeRateData_Percent@CRealDataModule@@QAEXXZ:PROC ; CRealDataModule::ChangeExchangeRateData_Percent
EXTRN	?ChangeRealDataModuleAndData@CRealDataModule@@QAE_NABV?$CStringT@DV?$StrTraitMFC_DLL@DV?$ChTraitsCRT@D@ATL@@@@@ATL@@@Z:PROC ; CRealDataModule::ChangeRealDataModuleAndData
EXTRN	?GetRealData@CRealDataModule@@QBENABV?$CStringT@DV?$StrTraitMFC_DLL@DV?$ChTraitsCRT@D@ATL@@@@@ATL@@ABN@Z:PROC ; CRealDataModule::GetRealData
EXTRN	?GetOrgData@CRealDataModule@@QBENABV?$CStringT@DV?$StrTraitMFC_DLL@DV?$ChTraitsCRT@D@ATL@@@@@ATL@@ABN@Z:PROC ; CRealDataModule::GetOrgData
EXTRN	?OnInitTR@CTimeRealDataModuleBase@@QAEXAB_JABHABV?$CStringT@DV?$StrTraitMFC_DLL@DV?$ChTraitsCRT@D@ATL@@@@@ATL@@@Z:PROC ; CTimeRealDataModuleBase::OnInitTR
EXTRN	??0CTickRealDataModule@@QAE@AAVCMarketTimeData@@ABV?$CStringT@DV?$StrTraitMFC_DLL@DV?$ChTraitsCRT@D@ATL@@@@@ATL@@HHW4HORZSCALEDRAWERTYPE@CScaleBaseData@@@Z:PROC ; CTickRealDataModule::CTickRealDataModule
EXTRN	??0CDateRealDataModule@@QAE@AAVCMarketTimeData@@ABV?$CStringT@DV?$StrTraitMFC_DLL@DV?$ChTraitsCRT@D@ATL@@@@@ATL@@W4HORZSCALEDRAWERTYPE@CScaleBaseData@@H@Z:PROC ; CDateRealDataModule::CDateRealDataModule
EXTRN	??0CWeekRealDataModule@@QAE@AAVCMarketTimeData@@ABV?$CStringT@DV?$StrTraitMFC_DLL@DV?$ChTraitsCRT@D@ATL@@@@@ATL@@W4HORZSCALEDRAWERTYPE@CScaleBaseData@@@Z:PROC ; CWeekRealDataModule::CWeekRealDataModule
EXTRN	??0CFloorTimeRealDataModule@@QAE@ABVCDateData@@AAVCMarketTimeData@@ABV?$CStringT@DV?$StrTraitMFC_DLL@DV?$ChTraitsCRT@D@ATL@@@@@ATL@@H2W4HORZSCALEDRAWERTYPE@CScaleBaseData@@@Z:PROC ; CFloorTimeRealDataModule::CFloorTimeRealDataModule
EXTRN	??0CCeilingTimeRealDataModule@@QAE@ABVCDateData@@AAVCMarketTimeData@@ABV?$CStringT@DV?$StrTraitMFC_DLL@DV?$ChTraitsCRT@D@ATL@@@@@ATL@@H2W4HORZSCALEDRAWERTYPE@CScaleBaseData@@@Z:PROC ; CCeilingTimeRealDataModule::CCeilingTimeRealDataModule
EXTRN	??0CCeiling2TimeRealDataModule@@QAE@ABVCDateData@@AAVCMarketTimeData@@ABV?$CStringT@DV?$StrTraitMFC_DLL@DV?$ChTraitsCRT@D@ATL@@@@@ATL@@H2W4HORZSCALEDRAWERTYPE@CScaleBaseData@@@Z:PROC ; CCeiling2TimeRealDataModule::CCeiling2TimeRealDataModule
EXTRN	??_ECRealModuleCenter@@UAEPAXI@Z:PROC		; CRealModuleCenter::`vector deleting destructor'
EXTRN	?IsSpecialTime@IMetaTable@@QAEHH@Z:PROC		; IMetaTable::IsSpecialTime
EXTRN	?IsChangeRealData@CPacket@@QBE_NXZ:PROC		; CPacket::IsChangeRealData
EXTRN	?GetName@CPacket@@QAE?AV?$CStringT@DV?$StrTraitMFC_DLL@DV?$ChTraitsCRT@D@ATL@@@@@ATL@@XZ:PROC ; CPacket::GetName
EXTRN	?GetRealDataGap@CPacket@@QBE_NAAN@Z:PROC	; CPacket::GetRealDataGap
EXTRN	?GetType@CPacket@@QAE?AV?$CStringT@DV?$StrTraitMFC_DLL@DV?$ChTraitsCRT@D@ATL@@@@@ATL@@_N@Z:PROC ; CPacket::GetType
EXTRN	?GetnumericDataList@CPacket@@QAEPAV?$CList@NN@@XZ:PROC ; CPacket::GetnumericDataList
EXTRN	?AppendData@CPacket@@QAEXNH@Z:PROC		; CPacket::AppendData
EXTRN	?UpdateData@CPacket@@QAEXN@Z:PROC		; CPacket::UpdateData
EXTRN	?UpdateData@CPacket@@QAEXNH_N@Z:PROC		; CPacket::UpdateData
EXTRN	?RemoveBaseData@CPacket@@QAE_NH@Z:PROC		; CPacket::RemoveBaseData
EXTRN	?GetStringData@CDataConversion@@SA?AV?$CStringT@DV?$StrTraitMFC_DLL@DV?$ChTraitsCRT@D@ATL@@@@@ATL@@AAV23@ABV23@_N@Z:PROC ; CDataConversion::GetStringData
EXTRN	?CalcTimeSum@CDataConversion@@SA_J_J0H@Z:PROC	; CDataConversion::CalcTimeSum
EXTRN	@__security_check_cookie@4:PROC
EXTRN	___CxxFrameHandler3:PROC
EXTRN	__alldiv:PROC
EXTRN	__allrem:PROC
EXTRN	__dtol3:PROC
EXTRN	__ltod3:PROC
EXTRN	??_7type_info@@6B@:QWORD			; type_info::`vftable'
EXTRN	?g_iMetaTable@@3VIMetaTable@@A:BYTE		; g_iMetaTable
EXTRN	___security_cookie:DWORD
EXTRN	__fltused:DWORD
;	COMDAT __real@412e848000000000
CONST	SEGMENT
__real@412e848000000000 DQ 0412e848000000000r	; 1e+06
CONST	ENDS
;	COMDAT ??_R1A@?0A@EA@CRealModuleCenter@@8
rdata$r	SEGMENT
??_R1A@?0A@EA@CRealModuleCenter@@8 DD FLAT:??_R0?AVCRealModuleCenter@@@8 ; CRealModuleCenter::`RTTI Base Class Descriptor at (0,-1,0,64)'
	DD	00H
	DD	00H
	DD	0ffffffffH
	DD	00H
	DD	040H
	DD	FLAT:??_R3CRealModuleCenter@@8
rdata$r	ENDS
;	COMDAT ??_R2CRealModuleCenter@@8
rdata$r	SEGMENT
??_R2CRealModuleCenter@@8 DD FLAT:??_R1A@?0A@EA@CRealModuleCenter@@8 ; CRealModuleCenter::`RTTI Base Class Array'
rdata$r	ENDS
;	COMDAT ??_R3CRealModuleCenter@@8
rdata$r	SEGMENT
??_R3CRealModuleCenter@@8 DD 00H			; CRealModuleCenter::`RTTI Class Hierarchy Descriptor'
	DD	00H
	DD	01H
	DD	FLAT:??_R2CRealModuleCenter@@8
rdata$r	ENDS
;	COMDAT ??_R0?AVCRealModuleCenter@@@8
data$rs	SEGMENT
??_R0?AVCRealModuleCenter@@@8 DD FLAT:??_7type_info@@6B@ ; CRealModuleCenter `RTTI Type Descriptor'
	DD	00H
	DB	'.?AVCRealModuleCenter@@', 00H
data$rs	ENDS
;	COMDAT ??_R4CRealModuleCenter@@6B@
rdata$r	SEGMENT
??_R4CRealModuleCenter@@6B@ DD 00H			; CRealModuleCenter::`RTTI Complete Object Locator'
	DD	00H
	DD	00H
	DD	FLAT:??_R0?AVCRealModuleCenter@@@8
	DD	FLAT:??_R3CRealModuleCenter@@8
rdata$r	ENDS
;	COMDAT ??_C@_01DNKMNLPK@?$HM@
CONST	SEGMENT
??_C@_01DNKMNLPK@?$HM@ DB '|', 00H			; `string'
CONST	ENDS
;	COMDAT ??_C@_0M@DKEGEIMD@_SellClose_@
CONST	SEGMENT
??_C@_0M@DKEGEIMD@_SellClose_@ DB '_SellClose_', 00H	; `string'
CONST	ENDS
;	COMDAT ??_C@_0L@PHFILLDG@_BuyClose_@
CONST	SEGMENT
??_C@_0L@PHFILLDG@_BuyClose_@ DB '_BuyClose_', 00H	; `string'
CONST	ENDS
;	COMDAT ??_C@_06MAANBBPI@HHMMSS@
CONST	SEGMENT
??_C@_06MAANBBPI@HHMMSS@ DB 'HHMMSS', 00H		; `string'
CONST	ENDS
;	COMDAT ??_7CRealModuleCenter@@6B@
CONST	SEGMENT
??_7CRealModuleCenter@@6B@ DD FLAT:??_R4CRealModuleCenter@@6B@ ; CRealModuleCenter::`vftable'
	DD	FLAT:??_ECRealModuleCenter@@UAEPAXI@Z
CONST	ENDS
;	COMDAT xdata$x
xdata$x	SEGMENT
__unwindtable$?GetOrgDataBeforeRate@CRealModuleCenter@@QAENPBDN@Z DD 0ffffffffH
	DD	FLAT:__unwindfunclet$?GetOrgDataBeforeRate@CRealModuleCenter@@QAENPBDN@Z$0
__ehfuncinfo$?GetOrgDataBeforeRate@CRealModuleCenter@@QAENPBDN@Z DD 019930522H
	DD	01H
	DD	FLAT:__unwindtable$?GetOrgDataBeforeRate@CRealModuleCenter@@QAENPBDN@Z
	DD	2 DUP(00H)
	DD	2 DUP(00H)
	DD	00H
	DD	01H
xdata$x	ENDS
;	COMDAT xdata$x
xdata$x	SEGMENT
__ehfuncinfo$?InitializeTRPart@CRealModuleCenter@@QAEXPAVCPacket@@0000@Z DD 019930522H
	DD	014H
	DD	FLAT:__unwindtable$?InitializeTRPart@CRealModuleCenter@@QAEXPAVCPacket@@0000@Z
	DD	2 DUP(00H)
	DD	2 DUP(00H)
	DD	00H
	DD	01H
__unwindtable$?InitializeTRPart@CRealModuleCenter@@QAEXPAVCPacket@@0000@Z DD 0ffffffffH
	DD	FLAT:__unwindfunclet$?InitializeTRPart@CRealModuleCenter@@QAEXPAVCPacket@@0000@Z$0
	DD	0ffffffffH
	DD	FLAT:__unwindfunclet$?InitializeTRPart@CRealModuleCenter@@QAEXPAVCPacket@@0000@Z$2
	DD	01H
	DD	FLAT:__unwindfunclet$?InitializeTRPart@CRealModuleCenter@@QAEXPAVCPacket@@0000@Z$3
	DD	02H
	DD	FLAT:__unwindfunclet$?InitializeTRPart@CRealModuleCenter@@QAEXPAVCPacket@@0000@Z$4
	DD	01H
	DD	FLAT:__unwindfunclet$?InitializeTRPart@CRealModuleCenter@@QAEXPAVCPacket@@0000@Z$4
	DD	01H
	DD	FLAT:__unwindfunclet$?InitializeTRPart@CRealModuleCenter@@QAEXPAVCPacket@@0000@Z$5
	DD	05H
	DD	FLAT:__unwindfunclet$?InitializeTRPart@CRealModuleCenter@@QAEXPAVCPacket@@0000@Z$6
	DD	01H
	DD	FLAT:__unwindfunclet$?InitializeTRPart@CRealModuleCenter@@QAEXPAVCPacket@@0000@Z$6
	DD	01H
	DD	FLAT:__unwindfunclet$?InitializeTRPart@CRealModuleCenter@@QAEXPAVCPacket@@0000@Z$7
	DD	08H
	DD	FLAT:__unwindfunclet$?InitializeTRPart@CRealModuleCenter@@QAEXPAVCPacket@@0000@Z$8
	DD	01H
	DD	FLAT:__unwindfunclet$?InitializeTRPart@CRealModuleCenter@@QAEXPAVCPacket@@0000@Z$8
	DD	01H
	DD	FLAT:__unwindfunclet$?InitializeTRPart@CRealModuleCenter@@QAEXPAVCPacket@@0000@Z$9
	DD	0bH
	DD	FLAT:__unwindfunclet$?InitializeTRPart@CRealModuleCenter@@QAEXPAVCPacket@@0000@Z$10
	DD	01H
	DD	FLAT:__unwindfunclet$?InitializeTRPart@CRealModuleCenter@@QAEXPAVCPacket@@0000@Z$10
	DD	01H
	DD	FLAT:__unwindfunclet$?InitializeTRPart@CRealModuleCenter@@QAEXPAVCPacket@@0000@Z$11
	DD	0eH
	DD	FLAT:__unwindfunclet$?InitializeTRPart@CRealModuleCenter@@QAEXPAVCPacket@@0000@Z$12
	DD	01H
	DD	FLAT:__unwindfunclet$?InitializeTRPart@CRealModuleCenter@@QAEXPAVCPacket@@0000@Z$12
	DD	01H
	DD	FLAT:__unwindfunclet$?InitializeTRPart@CRealModuleCenter@@QAEXPAVCPacket@@0000@Z$13
	DD	011H
	DD	FLAT:__unwindfunclet$?InitializeTRPart@CRealModuleCenter@@QAEXPAVCPacket@@0000@Z$14
	DD	01H
	DD	FLAT:__unwindfunclet$?InitializeTRPart@CRealModuleCenter@@QAEXPAVCPacket@@0000@Z$14
xdata$x	ENDS
;	COMDAT xdata$x
xdata$x	SEGMENT
__unwindtable$?SetCurrDateTime@CRealModuleCenter@@QAEXABV?$CStringT@DV?$StrTraitMFC_DLL@DV?$ChTraitsCRT@D@ATL@@@@@ATL@@@Z DD 0ffffffffH
	DD	FLAT:__unwindfunclet$?SetCurrDateTime@CRealModuleCenter@@QAEXABV?$CStringT@DV?$StrTraitMFC_DLL@DV?$ChTraitsCRT@D@ATL@@@@@ATL@@@Z$1
__ehfuncinfo$?SetCurrDateTime@CRealModuleCenter@@QAEXABV?$CStringT@DV?$StrTraitMFC_DLL@DV?$ChTraitsCRT@D@ATL@@@@@ATL@@@Z DD 019930522H
	DD	01H
	DD	FLAT:__unwindtable$?SetCurrDateTime@CRealModuleCenter@@QAEXABV?$CStringT@DV?$StrTraitMFC_DLL@DV?$ChTraitsCRT@D@ATL@@@@@ATL@@@Z
	DD	2 DUP(00H)
	DD	2 DUP(00H)
	DD	00H
	DD	01H
xdata$x	ENDS
;	COMDAT xdata$x
xdata$x	SEGMENT
__unwindtable$?SetMarketTime@CRealModuleCenter@@QAEXABV?$CStringT@DV?$StrTraitMFC_DLL@DV?$ChTraitsCRT@D@ATL@@@@@ATL@@@Z DD 0ffffffffH
	DD	FLAT:__unwindfunclet$?SetMarketTime@CRealModuleCenter@@QAEXABV?$CStringT@DV?$StrTraitMFC_DLL@DV?$ChTraitsCRT@D@ATL@@@@@ATL@@@Z$0
	DD	00H
	DD	FLAT:__unwindfunclet$?SetMarketTime@CRealModuleCenter@@QAEXABV?$CStringT@DV?$StrTraitMFC_DLL@DV?$ChTraitsCRT@D@ATL@@@@@ATL@@@Z$1
	DD	01H
	DD	FLAT:__unwindfunclet$?SetMarketTime@CRealModuleCenter@@QAEXABV?$CStringT@DV?$StrTraitMFC_DLL@DV?$ChTraitsCRT@D@ATL@@@@@ATL@@@Z$2
	DD	00H
	DD	FLAT:__unwindfunclet$?SetMarketTime@CRealModuleCenter@@QAEXABV?$CStringT@DV?$StrTraitMFC_DLL@DV?$ChTraitsCRT@D@ATL@@@@@ATL@@@Z$2
__ehfuncinfo$?SetMarketTime@CRealModuleCenter@@QAEXABV?$CStringT@DV?$StrTraitMFC_DLL@DV?$ChTraitsCRT@D@ATL@@@@@ATL@@@Z DD 019930522H
	DD	04H
	DD	FLAT:__unwindtable$?SetMarketTime@CRealModuleCenter@@QAEXABV?$CStringT@DV?$StrTraitMFC_DLL@DV?$ChTraitsCRT@D@ATL@@@@@ATL@@@Z
	DD	2 DUP(00H)
	DD	2 DUP(00H)
	DD	00H
	DD	01H
xdata$x	ENDS
;	COMDAT xdata$x
xdata$x	SEGMENT
__unwindtable$?SetRealData@CRealModuleCenter@@QAE_NPAVCPacket@@NHAAH@Z DD 0ffffffffH
	DD	FLAT:__unwindfunclet$?SetRealData@CRealModuleCenter@@QAE_NPAVCPacket@@NHAAH@Z$0
__ehfuncinfo$?SetRealData@CRealModuleCenter@@QAE_NPAVCPacket@@NHAAH@Z DD 019930522H
	DD	01H
	DD	FLAT:__unwindtable$?SetRealData@CRealModuleCenter@@QAE_NPAVCPacket@@NHAAH@Z
	DD	2 DUP(00H)
	DD	2 DUP(00H)
	DD	00H
	DD	01H
xdata$x	ENDS
;	COMDAT xdata$x
xdata$x	SEGMENT
__unwindtable$??0CRealModuleCenter@@QAE@W4REALTYPE@CPacketType@@PAUIChartCtrl@@PAV?$CTypedPtrList@VCObList@@PAVCPacket@@@@@Z DD 0ffffffffH
	DD	FLAT:__unwindfunclet$??0CRealModuleCenter@@QAE@W4REALTYPE@CPacketType@@PAUIChartCtrl@@PAV?$CTypedPtrList@VCObList@@PAVCPacket@@@@@Z$0
	DD	00H
	DD	FLAT:__unwindfunclet$??0CRealModuleCenter@@QAE@W4REALTYPE@CPacketType@@PAUIChartCtrl@@PAV?$CTypedPtrList@VCObList@@PAVCPacket@@@@@Z$1
	DD	01H
	DD	FLAT:__unwindfunclet$??0CRealModuleCenter@@QAE@W4REALTYPE@CPacketType@@PAUIChartCtrl@@PAV?$CTypedPtrList@VCObList@@PAVCPacket@@@@@Z$2
	DD	02H
	DD	FLAT:__unwindfunclet$??0CRealModuleCenter@@QAE@W4REALTYPE@CPacketType@@PAUIChartCtrl@@PAV?$CTypedPtrList@VCObList@@PAVCPacket@@@@@Z$3
__ehfuncinfo$??0CRealModuleCenter@@QAE@W4REALTYPE@CPacketType@@PAUIChartCtrl@@PAV?$CTypedPtrList@VCObList@@PAVCPacket@@@@@Z DD 019930522H
	DD	04H
	DD	FLAT:__unwindtable$??0CRealModuleCenter@@QAE@W4REALTYPE@CPacketType@@PAUIChartCtrl@@PAV?$CTypedPtrList@VCObList@@PAVCPacket@@@@@Z
	DD	2 DUP(00H)
	DD	2 DUP(00H)
	DD	00H
	DD	01H
xdata$x	ENDS
; Function compile flags: /Ogtp
; File D:\git\src\IBK\IBK_DRFN\ProjSrc\SrcChartEx\ChartOCX\Include_Chart\Dll_Load\PacketBase.h
;	COMDAT ?GetPriceUnitX100@CMPPacket@@QBEHXZ
_TEXT	SEGMENT
?GetPriceUnitX100@CMPPacket@@QBEHXZ PROC		; CMPPacket::GetPriceUnitX100, COMDAT
; _this$ = ecx

; 365  : 	int		GetPriceUnitX100( void) const			{	return m_nPriceUnitX100;	}

  00000	8b 41 24	 mov	 eax, DWORD PTR [ecx+36]
  00003	c3		 ret	 0
?GetPriceUnitX100@CMPPacket@@QBEHXZ ENDP		; CMPPacket::GetPriceUnitX100
_TEXT	ENDS
; Function compile flags: /Ogtp
; File D:\git\src\IBK\IBK_DRFN\ProjSrc\SrcChartEx\ChartOCX\Include_Chart\Dll_Load\PacketBase.h
;	COMDAT ?SetPriceUnitX100@CMPPacket@@QAEXH@Z
_TEXT	SEGMENT
_p_nPriceUnitX100$ = 8					; size = 4
?SetPriceUnitX100@CMPPacket@@QAEXH@Z PROC		; CMPPacket::SetPriceUnitX100, COMDAT
; _this$ = ecx

; 364  : 	void	SetPriceUnitX100( int p_nPriceUnitX100)	{	m_nPriceUnitX100 = p_nPriceUnitX100;	}

  00000	55		 push	 ebp
  00001	8b ec		 mov	 ebp, esp
  00003	8b 45 08	 mov	 eax, DWORD PTR _p_nPriceUnitX100$[ebp]
  00006	89 41 24	 mov	 DWORD PTR [ecx+36], eax
  00009	5d		 pop	 ebp
  0000a	c2 04 00	 ret	 4
?SetPriceUnitX100@CMPPacket@@QAEXH@Z ENDP		; CMPPacket::SetPriceUnitX100
_TEXT	ENDS
; Function compile flags: /Ogtp
; File D:\git\src\IBK\IBK_DRFN\ProjSrc\SrcChartEx\ChartOCX\Include_Chart\Dll_Load\PacketBase.h
;	COMDAT ?GetMarketProfileList@CMPPacket@@QAEPAV?$CList@PAVCMProfile@@PAV1@@@XZ
_TEXT	SEGMENT
?GetMarketProfileList@CMPPacket@@QAEPAV?$CList@PAVCMProfile@@PAV1@@@XZ PROC ; CMPPacket::GetMarketProfileList, COMDAT
; _this$ = ecx

; 349  : 	CList< CMProfile*, CMProfile*>* GetMarketProfileList() { return &m_listMarketProfile; }

  00000	8d 41 08	 lea	 eax, DWORD PTR [ecx+8]
  00003	c3		 ret	 0
?GetMarketProfileList@CMPPacket@@QAEPAV?$CList@PAVCMProfile@@PAV1@@@XZ ENDP ; CMPPacket::GetMarketProfileList
_TEXT	ENDS
; Function compile flags: /Ogtp
; File D:\git\src\IBK\IBK_DRFN\ProjSrc\SrcChartEx\ChartOCX\Include_Chart\Dll_Load\PacketBase.h
;	COMDAT ?SetLastPriceX100@CMProfile@@QAEXH@Z
_TEXT	SEGMENT
_p_nLastPriceX100$ = 8					; size = 4
?SetLastPriceX100@CMProfile@@QAEXH@Z PROC		; CMProfile::SetLastPriceX100, COMDAT
; _this$ = ecx

; 327  : 	void	SetLastPriceX100( int p_nLastPriceX100)	{	m_nLastPriceX100 = p_nLastPriceX100;	}

  00000	55		 push	 ebp
  00001	8b ec		 mov	 ebp, esp
  00003	8b 45 08	 mov	 eax, DWORD PTR _p_nLastPriceX100$[ebp]
  00006	89 41 24	 mov	 DWORD PTR [ecx+36], eax
  00009	5d		 pop	 ebp
  0000a	c2 04 00	 ret	 4
?SetLastPriceX100@CMProfile@@QAEXH@Z ENDP		; CMProfile::SetLastPriceX100
_TEXT	ENDS
; Function compile flags: /Ogtp
; File D:\git\src\IBK\IBK_DRFN\ProjSrc\SrcChartEx\ChartOCX\Include_Chart\Dll_Load\PacketBase.h
;	COMDAT ?GetLastPriceX100@CMProfile@@QBEHXZ
_TEXT	SEGMENT
?GetLastPriceX100@CMProfile@@QBEHXZ PROC		; CMProfile::GetLastPriceX100, COMDAT
; _this$ = ecx

; 326  : 	int		GetLastPriceX100( void) const		{	return m_nLastPriceX100;				}

  00000	8b 41 24	 mov	 eax, DWORD PTR [ecx+36]
  00003	c3		 ret	 0
?GetLastPriceX100@CMProfile@@QBEHXZ ENDP		; CMProfile::GetLastPriceX100
_TEXT	ENDS
; Function compile flags: /Ogtp
; File D:\git\src\IBK\IBK_DRFN\ProjSrc\SrcChartEx\ChartOCX\Include_Chart\Dll_Load\PacketBase.h
; File C:\Program Files (x86)\Microsoft Visual Studio\2019\Community\VC\Tools\MSVC\14.29.30133\atlmfc\include\afxtempl.h
; File D:\git\src\IBK\IBK_DRFN\ProjSrc\SrcChartEx\ChartOCX\Include_Chart\Dll_Load\PacketBase.h
;	COMDAT ?IsEmpty@CMProfile@@QAEHXZ
_TEXT	SEGMENT
?IsEmpty@CMProfile@@QAEHXZ PROC				; CMProfile::IsEmpty, COMDAT
; _this$ = ecx
; File C:\Program Files (x86)\Microsoft Visual Studio\2019\Community\VC\Tools\MSVC\14.29.30133\atlmfc\include\afxtempl.h

; 786  : 	{ return m_nCount == 0; }

  00000	33 c0		 xor	 eax, eax
  00002	39 41 14	 cmp	 DWORD PTR [ecx+20], eax
  00005	0f 94 c0	 sete	 al
; File D:\git\src\IBK\IBK_DRFN\ProjSrc\SrcChartEx\ChartOCX\Include_Chart\Dll_Load\PacketBase.h

; 319  : 	BOOL	IsEmpty( void)	{	return m_listMPItem.IsEmpty();	}

  00008	c3		 ret	 0
?IsEmpty@CMProfile@@QAEHXZ ENDP				; CMProfile::IsEmpty
_TEXT	ENDS
; Function compile flags: /Ogtp
; File D:\git\src\IBK\IBK_DRFN\ProjSrc\SrcChartEx\ChartOCX\Include_Chart\Dll_Load\PacketBase.h
;	COMDAT ?SetDate@CMProfile@@QAEXH@Z
_TEXT	SEGMENT
_nDate$ = 8						; size = 4
?SetDate@CMProfile@@QAEXH@Z PROC			; CMProfile::SetDate, COMDAT
; _this$ = ecx

; 300  : 	void		SetDate(const int nDate)	{	m_nDate = nDate;	}

  00000	55		 push	 ebp
  00001	8b ec		 mov	 ebp, esp
  00003	8b 45 08	 mov	 eax, DWORD PTR _nDate$[ebp]
  00006	89 41 04	 mov	 DWORD PTR [ecx+4], eax
  00009	5d		 pop	 ebp
  0000a	c2 04 00	 ret	 4
?SetDate@CMProfile@@QAEXH@Z ENDP			; CMProfile::SetDate
_TEXT	ENDS
; Function compile flags: /Ogtp
; File D:\git\src\IBK\IBK_DRFN\ProjSrc\SrcChartEx\ChartOCX\Include_Chart\Dll_Load\PacketBase.h
;	COMDAT ?GetMPItemList@CMProfile@@QAEPAV?$CList@PAVCMPItem@@PAV1@@@XZ
_TEXT	SEGMENT
?GetMPItemList@CMProfile@@QAEPAV?$CList@PAVCMPItem@@PAV1@@@XZ PROC ; CMProfile::GetMPItemList, COMDAT
; _this$ = ecx

; 289  : 	CList<CMPItem*, CMPItem*>* GetMPItemList()	{	return &m_listMPItem; }

  00000	8d 41 08	 lea	 eax, DWORD PTR [ecx+8]
  00003	c3		 ret	 0
?GetMPItemList@CMProfile@@QAEPAV?$CList@PAVCMPItem@@PAV1@@@XZ ENDP ; CMProfile::GetMPItemList
_TEXT	ENDS
; Function compile flags: /Ogtp
; File D:\git\src\IBK\IBK_DRFN\ProjSrc\SrcChartEx\ChartOCX\Include_Chart\Dll_Load\PacketBase.h
;	COMDAT ?GetDate@CMProfile@@QBEHXZ
_TEXT	SEGMENT
?GetDate@CMProfile@@QBEHXZ PROC				; CMProfile::GetDate, COMDAT
; _this$ = ecx

; 288  : 	int			GetDate() const					{	return m_nDate;	}

  00000	8b 41 04	 mov	 eax, DWORD PTR [ecx+4]
  00003	c3		 ret	 0
?GetDate@CMProfile@@QBEHXZ ENDP				; CMProfile::GetDate
_TEXT	ENDS
; Function compile flags: /Ogtp
; File D:\git\src\IBK\IBK_DRFN\ProjSrc\SrcChartEx\ChartOCX\Include_Chart\Dll_Load\PacketBase.h
;	COMDAT ?AddVolume@CMPItem@@QAEXK@Z
_TEXT	SEGMENT
_dwVolume$ = 8						; size = 4
?AddVolume@CMPItem@@QAEXK@Z PROC			; CMPItem::AddVolume, COMDAT
; _this$ = ecx

; 269  : 	void	AddVolume(	DWORD	dwVolume)	{	m_dwVolume		+=	dwVolume;		}

  00000	55		 push	 ebp
  00001	8b ec		 mov	 ebp, esp
  00003	8b 45 08	 mov	 eax, DWORD PTR _dwVolume$[ebp]
  00006	01 41 04	 add	 DWORD PTR [ecx+4], eax
  00009	5d		 pop	 ebp
  0000a	c2 04 00	 ret	 4
?AddVolume@CMPItem@@QAEXK@Z ENDP			; CMPItem::AddVolume
_TEXT	ENDS
; Function compile flags: /Ogtp
; File D:\git\src\IBK\IBK_DRFN\ProjSrc\SrcChartEx\ChartOCX\Include_Chart\Dll_Load\PacketBase.h
;	COMDAT ?SetPrice@CMPItem@@QAEXH@Z
_TEXT	SEGMENT
_nPriceX100$ = 8					; size = 4
?SetPrice@CMPItem@@QAEXH@Z PROC				; CMPItem::SetPrice, COMDAT
; _this$ = ecx

; 268  : 	void	SetPrice(	int		nPriceX100)	{	m_nPriceX100	=	nPriceX100;		}

  00000	55		 push	 ebp
  00001	8b ec		 mov	 ebp, esp
  00003	8b 45 08	 mov	 eax, DWORD PTR _nPriceX100$[ebp]
  00006	89 01		 mov	 DWORD PTR [ecx], eax
  00008	5d		 pop	 ebp
  00009	c2 04 00	 ret	 4
?SetPrice@CMPItem@@QAEXH@Z ENDP				; CMPItem::SetPrice
_TEXT	ENDS
; Function compile flags: /Ogtp
; File D:\git\src\IBK\IBK_DRFN\ProjSrc\SrcChartEx\ChartOCX\Include_Chart\Dll_Load\PacketBase.h
;	COMDAT ?GetBracketList@CMPItem@@QAEPAV?$CList@PAVCBracket@@PAV1@@@XZ
_TEXT	SEGMENT
?GetBracketList@CMPItem@@QAEPAV?$CList@PAVCBracket@@PAV1@@@XZ PROC ; CMPItem::GetBracketList, COMDAT
; _this$ = ecx

; 266  : 	CList<CBracket*, CBracket*>* GetBracketList()	{ return &m_listBracket; }

  00000	8d 41 08	 lea	 eax, DWORD PTR [ecx+8]
  00003	c3		 ret	 0
?GetBracketList@CMPItem@@QAEPAV?$CList@PAVCBracket@@PAV1@@@XZ ENDP ; CMPItem::GetBracketList
_TEXT	ENDS
; Function compile flags: /Ogtp
; File D:\git\src\IBK\IBK_DRFN\ProjSrc\SrcChartEx\ChartOCX\Include_Chart\Dll_Load\PacketBase.h
;	COMDAT ?GetVolume@CMPItem@@QBEKXZ
_TEXT	SEGMENT
?GetVolume@CMPItem@@QBEKXZ PROC				; CMPItem::GetVolume, COMDAT
; _this$ = ecx

; 265  : 	DWORD	GetVolume()		const { return m_dwVolume;		}

  00000	8b 41 04	 mov	 eax, DWORD PTR [ecx+4]
  00003	c3		 ret	 0
?GetVolume@CMPItem@@QBEKXZ ENDP				; CMPItem::GetVolume
_TEXT	ENDS
; Function compile flags: /Ogtp
; File D:\git\src\IBK\IBK_DRFN\ProjSrc\SrcChartEx\ChartOCX\Include_Chart\Dll_Load\PacketBase.h
;	COMDAT ?GetPriceX100@CMPItem@@QBEHXZ
_TEXT	SEGMENT
?GetPriceX100@CMPItem@@QBEHXZ PROC			; CMPItem::GetPriceX100, COMDAT
; _this$ = ecx

; 264  : 	int		GetPriceX100()	const { return m_nPriceX100;	}

  00000	8b 01		 mov	 eax, DWORD PTR [ecx]
  00002	c3		 ret	 0
?GetPriceX100@CMPItem@@QBEHXZ ENDP			; CMPItem::GetPriceX100
_TEXT	ENDS
; Function compile flags: /Ogtp
;	COMDAT ??4CBracket@@QAEAAV0@ABV0@@Z
_TEXT	SEGMENT
___that$ = 8						; size = 4
??4CBracket@@QAEAAV0@ABV0@@Z PROC			; CBracket::operator=, COMDAT
; _this$ = ecx
  00000	55		 push	 ebp
  00001	8b ec		 mov	 ebp, esp
  00003	8b 55 08	 mov	 edx, DWORD PTR ___that$[ebp]
  00006	56		 push	 esi
  00007	8b f1		 mov	 esi, ecx
  00009	8b 02		 mov	 eax, DWORD PTR [edx]
  0000b	89 06		 mov	 DWORD PTR [esi], eax
  0000d	8d 4e 08	 lea	 ecx, DWORD PTR [esi+8]
  00010	8b 42 04	 mov	 eax, DWORD PTR [edx+4]
  00013	89 46 04	 mov	 DWORD PTR [esi+4], eax
  00016	8d 42 08	 lea	 eax, DWORD PTR [edx+8]
  00019	50		 push	 eax
  0001a	ff 15 00 00 00
	00		 call	 DWORD PTR __imp_??4?$CStringT@DV?$StrTraitMFC_DLL@DV?$ChTraitsCRT@D@ATL@@@@@ATL@@QAEAAV01@ABV01@@Z
  00020	8b c6		 mov	 eax, esi
  00022	5e		 pop	 esi
  00023	5d		 pop	 ebp
  00024	c2 04 00	 ret	 4
??4CBracket@@QAEAAV0@ABV0@@Z ENDP			; CBracket::operator=
_TEXT	ENDS
; Function compile flags: /Ogtp
;	COMDAT ??0CBracket@@QAE@ABV0@@Z
_TEXT	SEGMENT
_this$ = -4						; size = 4
___that$ = 8						; size = 4
??0CBracket@@QAE@ABV0@@Z PROC				; CBracket::CBracket, COMDAT
; _this$ = ecx
  00000	55		 push	 ebp
  00001	8b ec		 mov	 ebp, esp
  00003	51		 push	 ecx
  00004	8b 55 08	 mov	 edx, DWORD PTR ___that$[ebp]
  00007	56		 push	 esi
  00008	8b f1		 mov	 esi, ecx
  0000a	89 75 fc	 mov	 DWORD PTR _this$[ebp], esi
  0000d	8b 02		 mov	 eax, DWORD PTR [edx]
  0000f	89 06		 mov	 DWORD PTR [esi], eax
  00011	8d 4e 08	 lea	 ecx, DWORD PTR [esi+8]
  00014	8b 42 04	 mov	 eax, DWORD PTR [edx+4]
  00017	89 46 04	 mov	 DWORD PTR [esi+4], eax
  0001a	8d 42 08	 lea	 eax, DWORD PTR [edx+8]
  0001d	50		 push	 eax
  0001e	ff 15 00 00 00
	00		 call	 DWORD PTR __imp_??0?$CStringT@DV?$StrTraitMFC_DLL@DV?$ChTraitsCRT@D@ATL@@@@@ATL@@QAE@ABV01@@Z
  00024	8b c6		 mov	 eax, esi
  00026	5e		 pop	 esi
  00027	8b e5		 mov	 esp, ebp
  00029	5d		 pop	 ebp
  0002a	c2 04 00	 ret	 4
??0CBracket@@QAE@ABV0@@Z ENDP				; CBracket::CBracket
_TEXT	ENDS
; Function compile flags: /Ogtp
; File D:\git\src\IBK\IBK_DRFN\ProjSrc\SrcChartEx\ChartOCX\Include_Chart\Dll_Load\PacketBase.h
;	COMDAT ?GetItem@CBracket@@QBEPBDXZ
_TEXT	SEGMENT
?GetItem@CBracket@@QBEPBDXZ PROC			; CBracket::GetItem, COMDAT
; _this$ = ecx

; 251  : 	const char *	GetItem()	const	{	return m_szItem;	}

  00000	8b 41 08	 mov	 eax, DWORD PTR [ecx+8]
  00003	c3		 ret	 0
?GetItem@CBracket@@QBEPBDXZ ENDP			; CBracket::GetItem
_TEXT	ENDS
; Function compile flags: /Ogtp
; File D:\git\src\IBK\IBK_DRFN\ProjSrc\SrcChartEx\ChartOCX\Include_Chart\Dll_Load\PacketBase.h
;	COMDAT ?GetDate@CBracket@@QBEHXZ
_TEXT	SEGMENT
?GetDate@CBracket@@QBEHXZ PROC				; CBracket::GetDate, COMDAT
; _this$ = ecx

; 250  : 	int				GetDate()	const	{	return m_nDate;		}

  00000	8b 41 04	 mov	 eax, DWORD PTR [ecx+4]
  00003	c3		 ret	 0
?GetDate@CBracket@@QBEHXZ ENDP				; CBracket::GetDate
_TEXT	ENDS
; Function compile flags: /Ogtp
; File D:\git\src\IBK\IBK_DRFN\ProjSrc\SrcChartEx\ChartOCX\Include_Chart\Dll_Load\PacketBase.h
;	COMDAT ?GetIndex@CBracket@@QBEHXZ
_TEXT	SEGMENT
?GetIndex@CBracket@@QBEHXZ PROC				; CBracket::GetIndex, COMDAT
; _this$ = ecx

; 249  : 	int				GetIndex()	const	{	return m_nIndex;	}

  00000	8b 01		 mov	 eax, DWORD PTR [ecx]
  00002	c3		 ret	 0
?GetIndex@CBracket@@QBEHXZ ENDP				; CBracket::GetIndex
_TEXT	ENDS
; Function compile flags: /Ogtp
; File D:\git\src\IBK\IBK_DRFN\ProjSrc\SrcChartEx\ChartOCX\PacketData\RealModuleCenter.cpp
;	COMDAT ??_GCRealModuleCenter@@UAEPAXI@Z
_TEXT	SEGMENT
___flags$ = 8						; size = 4
??_GCRealModuleCenter@@UAEPAXI@Z PROC			; CRealModuleCenter::`scalar deleting destructor', COMDAT
; _this$ = ecx
  00000	55		 push	 ebp
  00001	8b ec		 mov	 ebp, esp

; 73   : {

  00003	57		 push	 edi
  00004	8b f9		 mov	 edi, ecx

; 74   : 	delete m_pTimeRealDataModule;

  00006	8b 4f 68	 mov	 ecx, DWORD PTR [edi+104]
  00009	c7 07 00 00 00
	00		 mov	 DWORD PTR [edi], OFFSET ??_7CRealModuleCenter@@6B@
  0000f	85 c9		 test	 ecx, ecx
  00011	74 06		 je	 SHORT $LN6@scalar
  00013	8b 01		 mov	 eax, DWORD PTR [ecx]
  00015	6a 01		 push	 1
  00017	ff 10		 call	 DWORD PTR [eax]
$LN6@scalar:
  00019	56		 push	 esi

; 75   : }

  0001a	8d 8f b4 00 00
	00		 lea	 ecx, DWORD PTR [edi+180]
  00020	ff 15 00 00 00
	00		 call	 DWORD PTR __imp_??1?$CStringT@DV?$StrTraitMFC_DLL@DV?$ChTraitsCRT@D@ATL@@@@@ATL@@QAE@XZ
  00026	8d 4f 74	 lea	 ecx, DWORD PTR [edi+116]
  00029	ff 15 00 00 00
	00		 call	 DWORD PTR __imp_??1?$CStringT@DV?$StrTraitMFC_DLL@DV?$ChTraitsCRT@D@ATL@@@@@ATL@@QAE@XZ
  0002f	8d 4f 4c	 lea	 ecx, DWORD PTR [edi+76]
  00032	ff 15 00 00 00
	00		 call	 DWORD PTR __imp_??1?$CStringT@DV?$StrTraitMFC_DLL@DV?$ChTraitsCRT@D@ATL@@@@@ATL@@QAE@XZ
  00038	8d 4f 44	 lea	 ecx, DWORD PTR [edi+68]
  0003b	ff 15 00 00 00
	00		 call	 DWORD PTR __imp_??1?$CStringT@DV?$StrTraitMFC_DLL@DV?$ChTraitsCRT@D@ATL@@@@@ATL@@QAE@XZ
  00041	8d 4f 18	 lea	 ecx, DWORD PTR [edi+24]
  00044	e8 00 00 00 00	 call	 ??1CRealDataModule@@UAE@XZ ; CRealDataModule::~CRealDataModule
  00049	f6 45 08 01	 test	 BYTE PTR ___flags$[ebp], 1
  0004d	5e		 pop	 esi
  0004e	74 0e		 je	 SHORT $LN12@scalar
  00050	68 b8 00 00 00	 push	 184			; 000000b8H
  00055	57		 push	 edi
  00056	e8 00 00 00 00	 call	 ??3@YAXPAXI@Z		; operator delete
  0005b	83 c4 08	 add	 esp, 8
$LN12@scalar:
  0005e	8b c7		 mov	 eax, edi
  00060	5f		 pop	 edi
  00061	5d		 pop	 ebp
  00062	c2 04 00	 ret	 4
??_GCRealModuleCenter@@UAEPAXI@Z ENDP			; CRealModuleCenter::`scalar deleting destructor'
_TEXT	ENDS
; Function compile flags: /Ogtp
; File D:\git\src\IBK\IBK_DRFN\ProjSrc\SrcChartEx\ChartOCX\PacketData\RealModuleCenter.cpp
; File C:\Program Files (x86)\Microsoft Visual Studio\2019\Community\VC\Tools\MSVC\14.29.30133\atlmfc\include\atlsimpstr.h
; File D:\git\src\IBK\IBK_DRFN\ProjSrc\SrcChartEx\ChartOCX\PacketData\RealModuleCenter.cpp
;	COMDAT ?SetNewRangeStartTime@CRealModuleCenter@@QAEXABV?$CStringT@DV?$StrTraitMFC_DLL@DV?$ChTraitsCRT@D@ATL@@@@@ATL@@@Z
_TEXT	SEGMENT
_p_strTime$ = 8						; size = 4
?SetNewRangeStartTime@CRealModuleCenter@@QAEXABV?$CStringT@DV?$StrTraitMFC_DLL@DV?$ChTraitsCRT@D@ATL@@@@@ATL@@@Z PROC ; CRealModuleCenter::SetNewRangeStartTime, COMDAT
; _this$ = ecx

; 834  : {

  00000	55		 push	 ebp
  00001	8b ec		 mov	 ebp, esp
; File C:\Program Files (x86)\Microsoft Visual Studio\2019\Community\VC\Tools\MSVC\14.29.30133\atlmfc\include\atlsimpstr.h

; 377  : 		return( m_pszData );

  00003	8b 45 08	 mov	 eax, DWORD PTR _p_strTime$[ebp]
; File D:\git\src\IBK\IBK_DRFN\ProjSrc\SrcChartEx\ChartOCX\PacketData\RealModuleCenter.cpp

; 834  : {

  00006	56		 push	 esi
  00007	8b f1		 mov	 esi, ecx

; 835  : 	m_nNewRangeStartTime = atoi( p_strTime);

  00009	ff 30		 push	 DWORD PTR [eax]
  0000b	ff 15 00 00 00
	00		 call	 DWORD PTR __imp__atoi
  00011	83 c4 04	 add	 esp, 4
  00014	89 86 b0 00 00
	00		 mov	 DWORD PTR [esi+176], eax
  0001a	5e		 pop	 esi

; 836  : }

  0001b	5d		 pop	 ebp
  0001c	c2 04 00	 ret	 4
?SetNewRangeStartTime@CRealModuleCenter@@QAEXABV?$CStringT@DV?$StrTraitMFC_DLL@DV?$ChTraitsCRT@D@ATL@@@@@ATL@@@Z ENDP ; CRealModuleCenter::SetNewRangeStartTime
_TEXT	ENDS
; Function compile flags: /Ogtp
; File D:\git\src\IBK\IBK_DRFN\ProjSrc\SrcChartEx\ChartOCX\PacketData\RealModuleCenter.cpp
;	COMDAT ?GetLastClockAndRealTime@CRealModuleCenter@@QAEHAA_J0@Z
_TEXT	SEGMENT
_p_nLastClockTime$ = 8					; size = 4
_p_nLastRealTime$ = 12					; size = 4
?GetLastClockAndRealTime@CRealModuleCenter@@QAEHAA_J0@Z PROC ; CRealModuleCenter::GetLastClockAndRealTime, COMDAT
; _this$ = ecx

; 826  : {

  00000	55		 push	 ebp
  00001	8b ec		 mov	 ebp, esp

; 827  : 	p_nLastClockTime = m_nLastClockTime;

  00003	8b 45 08	 mov	 eax, DWORD PTR _p_nLastClockTime$[ebp]
  00006	8b 91 90 00 00
	00		 mov	 edx, DWORD PTR [ecx+144]
  0000c	56		 push	 esi
  0000d	8b b1 94 00 00
	00		 mov	 esi, DWORD PTR [ecx+148]
  00013	89 70 04	 mov	 DWORD PTR [eax+4], esi
  00016	89 10		 mov	 DWORD PTR [eax], edx

; 828  : 	p_nLastRealTime = m_nLastRealTime;

  00018	8b 45 0c	 mov	 eax, DWORD PTR _p_nLastRealTime$[ebp]
  0001b	8b 91 98 00 00
	00		 mov	 edx, DWORD PTR [ecx+152]
  00021	8b 89 9c 00 00
	00		 mov	 ecx, DWORD PTR [ecx+156]

; 829  : 	return TRUE;

  00027	5e		 pop	 esi
  00028	89 10		 mov	 DWORD PTR [eax], edx
  0002a	89 48 04	 mov	 DWORD PTR [eax+4], ecx
  0002d	b8 01 00 00 00	 mov	 eax, 1

; 830  : }

  00032	5d		 pop	 ebp
  00033	c2 08 00	 ret	 8
?GetLastClockAndRealTime@CRealModuleCenter@@QAEHAA_J0@Z ENDP ; CRealModuleCenter::GetLastClockAndRealTime
_TEXT	ENDS
; Function compile flags: /Ogtp
; File D:\git\src\IBK\IBK_DRFN\ProjSrc\SrcChartEx\ChartOCX\PacketData\RealModuleCenter.cpp
;	COMDAT ?PopNMTRState@CRealModuleCenter@@QAEXXZ
_TEXT	SEGMENT
?PopNMTRState@CRealModuleCenter@@QAEXXZ PROC		; CRealModuleCenter::PopNMTRState, COMDAT
; _this$ = ecx

; 819  : 	m_pTimeRealDataModule->PopNMTRState();

  00000	8b 51 68	 mov	 edx, DWORD PTR [ecx+104]
  00003	8b 42 44	 mov	 eax, DWORD PTR [edx+68]
  00006	89 42 40	 mov	 DWORD PTR [edx+64], eax

; 820  : 	m_nLastRealTime = m_nLastRealTimeBackup;

  00009	8b 81 a8 00 00
	00		 mov	 eax, DWORD PTR [ecx+168]
  0000f	8b 91 ac 00 00
	00		 mov	 edx, DWORD PTR [ecx+172]
  00015	89 81 98 00 00
	00		 mov	 DWORD PTR [ecx+152], eax
  0001b	89 91 9c 00 00
	00		 mov	 DWORD PTR [ecx+156], edx

; 821  : 	m_bOnClockedData = FALSE;

  00021	c7 81 a4 00 00
	00 00 00 00 00	 mov	 DWORD PTR [ecx+164], 0

; 822  : }

  0002b	c3		 ret	 0
?PopNMTRState@CRealModuleCenter@@QAEXXZ ENDP		; CRealModuleCenter::PopNMTRState
_TEXT	ENDS
; Function compile flags: /Ogtp
; File D:\git\src\IBK\IBK_DRFN\ProjSrc\SrcChartEx\ChartOCX\PacketData\RealModuleCenter.cpp
; File D:\git\src\IBK\IBK_DRFN\ProjSrc\SrcChartEx\ChartOCX\PacketData\TimeRealDataModule.h
; File D:\git\src\IBK\IBK_DRFN\ProjSrc\SrcChartEx\ChartOCX\PacketData\RealModuleCenter.cpp
;	COMDAT ?PushNMTRState@CRealModuleCenter@@QAEX_J@Z
_TEXT	SEGMENT
_p_nRealDataTime$2$ = -8				; size = 4
$T1 = -4						; size = 4
_p_nRealDataTime$ = 8					; size = 8
?PushNMTRState@CRealModuleCenter@@QAEX_J@Z PROC		; CRealModuleCenter::PushNMTRState, COMDAT
; _this$ = ecx

; 801  : {

  00000	55		 push	 ebp
  00001	8b ec		 mov	 ebp, esp
  00003	83 ec 08	 sub	 esp, 8
  00006	53		 push	 ebx
  00007	56		 push	 esi
  00008	8b f1		 mov	 esi, ecx
  0000a	57		 push	 edi

; 802  : 	m_bOnClockedData = TRUE;
; 803  : 	m_nLastRealTimeBackup = m_nLastRealTime;

  0000b	8b 86 9c 00 00
	00		 mov	 eax, DWORD PTR [esi+156]

; 804  : 	if( CChartInfo::HTS == m_nChartModeSetting || CChartInfo::KRX_CME == m_nChartModeSetting)

  00011	8b 4e 7c	 mov	 ecx, DWORD PTR [esi+124]
  00014	8b 9e 98 00 00
	00		 mov	 ebx, DWORD PTR [esi+152]
  0001a	c7 86 a4 00 00
	00 01 00 00 00	 mov	 DWORD PTR [esi+164], 1
  00024	89 45 fc	 mov	 DWORD PTR $T1[ebp], eax
  00027	89 9e a8 00 00
	00		 mov	 DWORD PTR [esi+168], ebx
  0002d	89 86 ac 00 00
	00		 mov	 DWORD PTR [esi+172], eax
  00033	83 f9 01	 cmp	 ecx, 1
  00036	74 32		 je	 SHORT $LN13@PushNMTRSt
  00038	83 f9 04	 cmp	 ecx, 4
  0003b	74 0b		 je	 SHORT $LN10@PushNMTRSt

; 813  : 	}
; 814  : 	else m_nLastRealTime = p_nRealDataTime;

  0003d	8b 5d 08	 mov	 ebx, DWORD PTR _p_nRealDataTime$[ebp]
  00040	8b 45 0c	 mov	 eax, DWORD PTR _p_nRealDataTime$[ebp+4]
  00043	e9 8c 00 00 00	 jmp	 $LN3@PushNMTRSt
$LN10@PushNMTRSt:

; 805  : 	{
; 806  : 		// (2009/12/2 - Seung-Won, Bae) for 31 Hour.
; 807  : 		if( CChartInfo::KRX_CME == m_nChartModeSetting && 240000 <= p_nRealDataTime)

  00048	8b 4d 0c	 mov	 ecx, DWORD PTR _p_nRealDataTime$[ebp+4]
  0004b	8b 7d 08	 mov	 edi, DWORD PTR _p_nRealDataTime$[ebp]
  0004e	89 4d f8	 mov	 DWORD PTR _p_nRealDataTime$2$[ebp], ecx
  00051	85 c9		 test	 ecx, ecx
  00053	7c 1e		 jl	 SHORT $LN5@PushNMTRSt
  00055	7f 08		 jg	 SHORT $LN11@PushNMTRSt
  00057	81 ff 80 a9 03
	00		 cmp	 edi, 240000		; 0003a980H
  0005d	72 14		 jb	 SHORT $LN5@PushNMTRSt
$LN11@PushNMTRSt:

; 808  : 			p_nRealDataTime -= 240000;

  0005f	81 c7 80 56 fc
	ff		 add	 edi, -240000		; fffc5680H
  00065	83 d1 ff	 adc	 ecx, -1
  00068	eb 06		 jmp	 SHORT $LN17@PushNMTRSt
$LN13@PushNMTRSt:

; 804  : 	if( CChartInfo::HTS == m_nChartModeSetting || CChartInfo::KRX_CME == m_nChartModeSetting)

  0006a	8b 4d 0c	 mov	 ecx, DWORD PTR _p_nRealDataTime$[ebp+4]
  0006d	8b 7d 08	 mov	 edi, DWORD PTR _p_nRealDataTime$[ebp]
$LN17@PushNMTRSt:

; 809  : 
; 810  : 		if( m_nLastRealTime % 1000000 < p_nRealDataTime)

  00070	89 4d f8	 mov	 DWORD PTR _p_nRealDataTime$2$[ebp], ecx
$LN5@PushNMTRSt:
  00073	6a 00		 push	 0
  00075	68 40 42 0f 00	 push	 1000000			; 000f4240H
  0007a	50		 push	 eax
  0007b	53		 push	 ebx
  0007c	e8 00 00 00 00	 call	 __allrem
  00081	3b 55 f8	 cmp	 edx, DWORD PTR _p_nRealDataTime$2$[ebp]
  00084	7f 31		 jg	 SHORT $LN16@PushNMTRSt
  00086	7c 04		 jl	 SHORT $LN12@PushNMTRSt
  00088	3b c7		 cmp	 eax, edi
  0008a	73 2b		 jae	 SHORT $LN16@PushNMTRSt
$LN12@PushNMTRSt:

; 811  : 			m_nLastRealTime = CDataConversion::CalcTimeSum( m_nLastRealTime, -1000000);

  0008c	8b 45 fc	 mov	 eax, DWORD PTR $T1[ebp]
  0008f	6a 00		 push	 0
  00091	6a ff		 push	 -1
  00093	68 c0 bd f0 ff	 push	 -1000000		; fff0bdc0H
  00098	50		 push	 eax
  00099	53		 push	 ebx
  0009a	e8 00 00 00 00	 call	 ?CalcTimeSum@CDataConversion@@SA_J_J0H@Z ; CDataConversion::CalcTimeSum
  0009f	89 86 98 00 00
	00		 mov	 DWORD PTR [esi+152], eax
  000a5	8b d8		 mov	 ebx, eax
  000a7	8b c2		 mov	 eax, edx
  000a9	89 96 9c 00 00
	00		 mov	 DWORD PTR [esi+156], edx
  000af	83 c4 14	 add	 esp, 20			; 00000014H
  000b2	89 45 fc	 mov	 DWORD PTR $T1[ebp], eax
  000b5	eb 03		 jmp	 SHORT $LN6@PushNMTRSt
$LN16@PushNMTRSt:

; 812  : 		m_nLastRealTime += p_nRealDataTime - m_nLastRealTime % 1000000;

  000b7	8b 45 fc	 mov	 eax, DWORD PTR $T1[ebp]
$LN6@PushNMTRSt:
  000ba	6a 00		 push	 0
  000bc	68 40 42 0f 00	 push	 1000000			; 000f4240H
  000c1	50		 push	 eax
  000c2	53		 push	 ebx
  000c3	e8 00 00 00 00	 call	 __allrem
  000c8	2b d8		 sub	 ebx, eax
  000ca	8b 45 fc	 mov	 eax, DWORD PTR $T1[ebp]
  000cd	1b c2		 sbb	 eax, edx
  000cf	03 df		 add	 ebx, edi
  000d1	13 45 f8	 adc	 eax, DWORD PTR _p_nRealDataTime$2$[ebp]
$LN3@PushNMTRSt:

; 815  : 	m_pTimeRealDataModule->PushNMTRState();

  000d4	8b 4e 68	 mov	 ecx, DWORD PTR [esi+104]
  000d7	89 9e 98 00 00
	00		 mov	 DWORD PTR [esi+152], ebx
  000dd	89 86 9c 00 00
	00		 mov	 DWORD PTR [esi+156], eax
; File D:\git\src\IBK\IBK_DRFN\ProjSrc\SrcChartEx\ChartOCX\PacketData\TimeRealDataModule.h

; 95   : 	void			PushNMTRState( void)	{	m_nClockedDataCountBackup = m_nClockedDataCount;	m_nClockedDataCount = 0;	}

  000e3	5f		 pop	 edi
  000e4	8b 41 40	 mov	 eax, DWORD PTR [ecx+64]
  000e7	5e		 pop	 esi
  000e8	89 41 44	 mov	 DWORD PTR [ecx+68], eax
  000eb	c7 41 40 00 00
	00 00		 mov	 DWORD PTR [ecx+64], 0
  000f2	5b		 pop	 ebx
; File D:\git\src\IBK\IBK_DRFN\ProjSrc\SrcChartEx\ChartOCX\PacketData\RealModuleCenter.cpp

; 816  : }

  000f3	8b e5		 mov	 esp, ebp
  000f5	5d		 pop	 ebp
  000f6	c2 08 00	 ret	 8
?PushNMTRState@CRealModuleCenter@@QAEX_J@Z ENDP		; CRealModuleCenter::PushNMTRState
_TEXT	ENDS
; Function compile flags: /Ogtp
; File D:\git\src\IBK\IBK_DRFN\ProjSrc\SrcChartEx\ChartOCX\PacketData\RealModuleCenter.cpp
;	COMDAT ?SetLastRealTime@CRealModuleCenter@@IAEXAB_J@Z
_TEXT	SEGMENT
_p_nRealTime$ = 8					; size = 4
?SetLastRealTime@CRealModuleCenter@@IAEXAB_J@Z PROC	; CRealModuleCenter::SetLastRealTime, COMDAT
; _this$ = ecx

; 794  : {

  00000	55		 push	 ebp
  00001	8b ec		 mov	 ebp, esp

; 795  : 	m_nLastClockTime = m_nClock;

  00003	8b 81 88 00 00
	00		 mov	 eax, DWORD PTR [ecx+136]
  00009	8b 91 8c 00 00
	00		 mov	 edx, DWORD PTR [ecx+140]
  0000f	89 81 90 00 00
	00		 mov	 DWORD PTR [ecx+144], eax

; 796  : 	m_nLastRealTime = p_nRealTime;

  00015	8b 45 08	 mov	 eax, DWORD PTR _p_nRealTime$[ebp]
  00018	89 91 94 00 00
	00		 mov	 DWORD PTR [ecx+148], edx
  0001e	8b 10		 mov	 edx, DWORD PTR [eax]
  00020	8b 40 04	 mov	 eax, DWORD PTR [eax+4]
  00023	89 91 98 00 00
	00		 mov	 DWORD PTR [ecx+152], edx
  00029	89 81 9c 00 00
	00		 mov	 DWORD PTR [ecx+156], eax

; 797  : }

  0002f	5d		 pop	 ebp
  00030	c2 04 00	 ret	 4
?SetLastRealTime@CRealModuleCenter@@IAEXAB_J@Z ENDP	; CRealModuleCenter::SetLastRealTime
_TEXT	ENDS
; Function compile flags: /Ogtp
; File D:\git\src\IBK\IBK_DRFN\ProjSrc\SrcChartEx\ChartOCX\PacketData\RealModuleCenter.cpp
;	COMDAT ?SetTimeDiffInfo@CRealModuleCenter@@QAEXABH0@Z
_TEXT	SEGMENT
_p_nOrgBaseTimeDiff$ = 8				; size = 4
_p_nBaseTimeDiff$ = 12					; size = 4
?SetTimeDiffInfo@CRealModuleCenter@@QAEXABH0@Z PROC	; CRealModuleCenter::SetTimeDiffInfo, COMDAT
; _this$ = ecx

; 785  : {

  00000	55		 push	 ebp
  00001	8b ec		 mov	 ebp, esp

; 786  : 	m_nOrgBaseTimeDiff = p_nOrgBaseTimeDiff;

  00003	8b 45 08	 mov	 eax, DWORD PTR _p_nOrgBaseTimeDiff$[ebp]
  00006	8b 10		 mov	 edx, DWORD PTR [eax]

; 787  : 	m_nBaseTimeDiff	= p_nBaseTimeDiff;

  00008	8b 45 0c	 mov	 eax, DWORD PTR _p_nBaseTimeDiff$[ebp]
  0000b	89 91 80 00 00
	00		 mov	 DWORD PTR [ecx+128], edx
  00011	8b 00		 mov	 eax, DWORD PTR [eax]
  00013	89 81 84 00 00
	00		 mov	 DWORD PTR [ecx+132], eax

; 788  : 	if( m_pTimeRealDataModule) m_pTimeRealDataModule->SetRealTimeDiff( ( m_nBaseTimeDiff - m_nOrgBaseTimeDiff) * 10000);

  00019	8b 49 68	 mov	 ecx, DWORD PTR [ecx+104]
  0001c	85 c9		 test	 ecx, ecx
  0001e	74 0f		 je	 SHORT $LN2@SetTimeDif
  00020	2b c2		 sub	 eax, edx
  00022	69 c0 10 27 00
	00		 imul	 eax, eax, 10000
  00028	99		 cdq
  00029	89 41 48	 mov	 DWORD PTR [ecx+72], eax
  0002c	89 51 4c	 mov	 DWORD PTR [ecx+76], edx
$LN2@SetTimeDif:

; 789  : }

  0002f	5d		 pop	 ebp
  00030	c2 08 00	 ret	 8
?SetTimeDiffInfo@CRealModuleCenter@@QAEXABH0@Z ENDP	; CRealModuleCenter::SetTimeDiffInfo
_TEXT	ENDS
; Function compile flags: /Ogtp
; File D:\git\src\IBK\IBK_DRFN\ProjSrc\SrcChartEx\ChartOCX\PacketData\RealModuleCenter.cpp
;	COMDAT ?GetOrgDataBeforeRate@CRealModuleCenter@@QAENPBDN@Z
_TEXT	SEGMENT
$T2 = -20						; size = 8
__$EHRec$ = -12						; size = 12
$T3 = 8							; size = 4
_p_szPacketName$ = 8					; size = 4
_p_dRatedData$ = 12					; size = 8
?GetOrgDataBeforeRate@CRealModuleCenter@@QAENPBDN@Z PROC ; CRealModuleCenter::GetOrgDataBeforeRate, COMDAT
; _this$ = ecx

; 761  : {

  00000	55		 push	 ebp
  00001	8b ec		 mov	 ebp, esp
  00003	6a ff		 push	 -1
  00005	68 00 00 00 00	 push	 __ehhandler$?GetOrgDataBeforeRate@CRealModuleCenter@@QAENPBDN@Z
  0000a	64 a1 00 00 00
	00		 mov	 eax, DWORD PTR fs:0
  00010	50		 push	 eax
  00011	83 ec 08	 sub	 esp, 8
  00014	56		 push	 esi
  00015	a1 00 00 00 00	 mov	 eax, DWORD PTR ___security_cookie
  0001a	33 c5		 xor	 eax, ebp
  0001c	50		 push	 eax
  0001d	8d 45 f4	 lea	 eax, DWORD PTR __$EHRec$[ebp]
  00020	64 a3 00 00 00
	00		 mov	 DWORD PTR fs:0, eax
  00026	8b f1		 mov	 esi, ecx

; 762  : 	return m_realDataModule.GetOrgData( p_szPacketName, p_dRatedData);

  00028	ff 75 08	 push	 DWORD PTR _p_szPacketName$[ebp]
  0002b	8d 4d 08	 lea	 ecx, DWORD PTR $T3[ebp]
  0002e	ff 15 00 00 00
	00		 call	 DWORD PTR __imp_??0?$CStringT@DV?$StrTraitMFC_DLL@DV?$ChTraitsCRT@D@ATL@@@@@ATL@@QAE@PBD@Z
  00034	8d 45 0c	 lea	 eax, DWORD PTR _p_dRatedData$[ebp]
  00037	c7 45 fc 00 00
	00 00		 mov	 DWORD PTR __$EHRec$[ebp+8], 0
  0003e	50		 push	 eax
  0003f	8d 45 08	 lea	 eax, DWORD PTR $T3[ebp]
  00042	50		 push	 eax
  00043	8d 4e 18	 lea	 ecx, DWORD PTR [esi+24]
  00046	e8 00 00 00 00	 call	 ?GetOrgData@CRealDataModule@@QBENABV?$CStringT@DV?$StrTraitMFC_DLL@DV?$ChTraitsCRT@D@ATL@@@@@ATL@@ABN@Z ; CRealDataModule::GetOrgData
  0004b	8d 4d 08	 lea	 ecx, DWORD PTR $T3[ebp]
  0004e	dd 5d ec	 fstp	 QWORD PTR $T2[ebp]
  00051	ff 15 00 00 00
	00		 call	 DWORD PTR __imp_??1?$CStringT@DV?$StrTraitMFC_DLL@DV?$ChTraitsCRT@D@ATL@@@@@ATL@@QAE@XZ
  00057	dd 45 ec	 fld	 QWORD PTR $T2[ebp]

; 763  : }

  0005a	8b 4d f4	 mov	 ecx, DWORD PTR __$EHRec$[ebp]
  0005d	64 89 0d 00 00
	00 00		 mov	 DWORD PTR fs:0, ecx
  00064	59		 pop	 ecx
  00065	5e		 pop	 esi
  00066	8b e5		 mov	 esp, ebp
  00068	5d		 pop	 ebp
  00069	c2 0c 00	 ret	 12			; 0000000cH
_TEXT	ENDS
;	COMDAT text$x
text$x	SEGMENT
__unwindfunclet$?GetOrgDataBeforeRate@CRealModuleCenter@@QAENPBDN@Z$0:
  00000	8d 4d 08	 lea	 ecx, DWORD PTR $T3[ebp]
  00003	ff 25 00 00 00
	00		 jmp	 DWORD PTR __imp_??1?$CStringT@DV?$StrTraitMFC_DLL@DV?$ChTraitsCRT@D@ATL@@@@@ATL@@QAE@XZ
  00009	cc		 int	 3
  0000a	cc		 int	 3
  0000b	cc		 int	 3
  0000c	cc		 int	 3
  0000d	cc		 int	 3
__ehhandler$?GetOrgDataBeforeRate@CRealModuleCenter@@QAENPBDN@Z:
  0000e	90		 npad	 1
  0000f	90		 npad	 1
  00010	8b 54 24 08	 mov	 edx, DWORD PTR [esp+8]
  00014	8d 42 0c	 lea	 eax, DWORD PTR [edx+12]
  00017	8b 4a f0	 mov	 ecx, DWORD PTR [edx-16]
  0001a	33 c8		 xor	 ecx, eax
  0001c	e8 00 00 00 00	 call	 @__security_check_cookie@4
  00021	b8 00 00 00 00	 mov	 eax, OFFSET __ehfuncinfo$?GetOrgDataBeforeRate@CRealModuleCenter@@QAENPBDN@Z
  00026	e9 00 00 00 00	 jmp	 ___CxxFrameHandler3
text$x	ENDS
?GetOrgDataBeforeRate@CRealModuleCenter@@QAENPBDN@Z ENDP ; CRealModuleCenter::GetOrgDataBeforeRate
; Function compile flags: /Ogtp
; File D:\git\src\IBK\IBK_DRFN\ProjSrc\SrcChartEx\ChartOCX\PacketData\RealModuleCenter.cpp
; File C:\Program Files (x86)\Microsoft Visual Studio\2019\Community\VC\Tools\MSVC\14.29.30133\atlmfc\include\afxtempl.h
; File D:\git\src\IBK\IBK_DRFN\ProjSrc\SrcChartEx\ChartOCX\PacketData\RealModuleCenter.cpp
; File C:\Program Files (x86)\Microsoft Visual Studio\2019\Community\VC\Tools\MSVC\14.29.30133\atlmfc\include\afxtempl.h
; File D:\git\src\IBK\IBK_DRFN\ProjSrc\SrcChartEx\ChartOCX\PacketData\RealModuleCenter.cpp
;	COMDAT ?InitializeTRPart@CRealModuleCenter@@QAEXPAVCPacket@@0000@Z
_TEXT	SEGMENT
_nMarketStartTime$ = -68				; size = 4
tv799 = -60						; size = 4
_nMarketEndTime$ = -56					; size = 4
$T2 = -52						; size = 8
$T3 = -48						; size = 4
$T4 = -48						; size = 4
$T5 = -48						; size = 4
$T6 = -48						; size = 4
$T7 = -48						; size = 4
$T8 = -48						; size = 4
_strMarketStartTime$ = -44				; size = 4
$T9 = -40						; size = 4
$T10 = -40						; size = 4
$T11 = -40						; size = 4
$T12 = -40						; size = 4
$T13 = -40						; size = 4
$T14 = -40						; size = 4
$T15 = -36						; size = 4
$T16 = -36						; size = 4
$T17 = -36						; size = 4
_st$18 = -32						; size = 16
__$ArrayPad$ = -16					; size = 4
__$EHRec$ = -12						; size = 12
_p_pOpenPacket$ = 8					; size = 4
_p_pHighPacket$ = 12					; size = 4
_p_pLowPacket$ = 16					; size = 4
_p_pClosePacket$ = 20					; size = 4
_p_pVolumePacket$ = 24					; size = 4
?InitializeTRPart@CRealModuleCenter@@QAEXPAVCPacket@@0000@Z PROC ; CRealModuleCenter::InitializeTRPart, COMDAT
; _this$ = ecx

; 634  : {

  00000	55		 push	 ebp
  00001	8b ec		 mov	 ebp, esp
  00003	6a ff		 push	 -1
  00005	68 00 00 00 00	 push	 __ehhandler$?InitializeTRPart@CRealModuleCenter@@QAEXPAVCPacket@@0000@Z
  0000a	64 a1 00 00 00
	00		 mov	 eax, DWORD PTR fs:0
  00010	50		 push	 eax
  00011	83 ec 38	 sub	 esp, 56			; 00000038H
  00014	a1 00 00 00 00	 mov	 eax, DWORD PTR ___security_cookie
  00019	33 c5		 xor	 eax, ebp
  0001b	89 45 f0	 mov	 DWORD PTR __$ArrayPad$[ebp], eax
  0001e	53		 push	 ebx
  0001f	56		 push	 esi
  00020	57		 push	 edi
  00021	50		 push	 eax
  00022	8d 45 f4	 lea	 eax, DWORD PTR __$EHRec$[ebp]
  00025	64 a3 00 00 00
	00		 mov	 DWORD PTR fs:0, eax
  0002b	8b f9		 mov	 edi, ecx
  0002d	33 db		 xor	 ebx, ebx

; 635  : 	// (2009/11/1 - Seung-Won, Bae) Support Last Real Time.
; 636  : 	m_nLastRealTime = -1;

  0002f	8d 87 98 00 00
	00		 lea	 eax, DWORD PTR [edi+152]
  00035	89 5d dc	 mov	 DWORD PTR $T15[ebp], ebx
  00038	89 45 c4	 mov	 DWORD PTR tv799[ebp], eax
  0003b	c7 00 ff ff ff
	ff		 mov	 DWORD PTR [eax], -1
  00041	c7 40 04 ff ff
	ff ff		 mov	 DWORD PTR [eax+4], -1

; 637  : 	if( 0 <= m_nBasisTime) SetLastRealTime( (__int64)m_dateData.GetFullDate() * 1000000 + (__int64)m_nBasisTime);

  00048	39 5f 6c	 cmp	 DWORD PTR [edi+108], ebx
  0004b	0f 8c 50 01 00
	00		 jl	 $LN6@Initialize
  00051	8b 47 48	 mov	 eax, DWORD PTR [edi+72]
  00054	b9 40 42 0f 00	 mov	 ecx, 1000000		; 000f4240H
  00059	f7 e9		 imul	 ecx
  0005b	8b f0		 mov	 esi, eax
  0005d	8b ca		 mov	 ecx, edx
  0005f	8b 47 6c	 mov	 eax, DWORD PTR [edi+108]
  00062	99		 cdq
  00063	03 f0		 add	 esi, eax
  00065	13 ca		 adc	 ecx, edx
$LN83@Initialize:

; 648  : 		SetLastRealTime( nLocalTime);
; 649  : 	}
; 650  : 
; 651  : 	// (2009/10/21 - Seung-Won, Bae) Comment. 1  0    Type .
; 652  : 	int nMarketStartTime = -1, nMarketEndTime = -1;

  00067	8b d1		 mov	 edx, ecx
$LN8@Initialize:
  00069	8b 8f 8c 00 00
	00		 mov	 ecx, DWORD PTR [edi+140]
  0006f	8b 87 88 00 00
	00		 mov	 eax, DWORD PTR [edi+136]
  00075	89 87 90 00 00
	00		 mov	 DWORD PTR [edi+144], eax
  0007b	89 8f 94 00 00
	00		 mov	 DWORD PTR [edi+148], ecx

; 653  : 	if( m_marketTimeData.GetMarketTime( nMarketStartTime, nMarketEndTime))

  00081	8d 4d c8	 lea	 ecx, DWORD PTR _nMarketEndTime$[ebp]
  00084	51		 push	 ecx
  00085	89 b7 98 00 00
	00		 mov	 DWORD PTR [edi+152], esi
  0008b	8d 4d bc	 lea	 ecx, DWORD PTR _nMarketStartTime$[ebp]
  0008e	89 97 9c 00 00
	00		 mov	 DWORD PTR [edi+156], edx
  00094	51		 push	 ecx
  00095	8d 4f 58	 lea	 ecx, DWORD PTR [edi+88]
  00098	c7 45 bc ff ff
	ff ff		 mov	 DWORD PTR _nMarketStartTime$[ebp], -1
  0009f	c7 45 c8 ff ff
	ff ff		 mov	 DWORD PTR _nMarketEndTime$[ebp], -1
  000a6	e8 00 00 00 00	 call	 ?GetMarketTime@CMarketTimeData@@QBE_NAAH0@Z ; CMarketTimeData::GetMarketTime
  000ab	84 c0		 test	 al, al
  000ad	8b 45 bc	 mov	 eax, DWORD PTR _nMarketStartTime$[ebp]
  000b0	74 0c		 je	 SHORT $LN10@Initialize

; 654  : 		if( nMarketEndTime <= nMarketStartTime)

  000b2	39 45 c8	 cmp	 DWORD PTR _nMarketEndTime$[ebp], eax
  000b5	7f 07		 jg	 SHORT $LN10@Initialize

; 655  : 			m_nMarketDayType = CPacketType::WITH_NEXT_DAY;

  000b7	c7 47 70 01 00
	00 00		 mov	 DWORD PTR [edi+112], 1
$LN10@Initialize:

; 656  : 
; 657  : 	// (2009/11/23 - Seung-Won, Bae) for HTS default value.
; 658  : 	if( CChartInfo::HTS == m_nChartModeSetting && 0 == m_nNewRangeStartTime)

  000be	83 7f 7c 01	 cmp	 DWORD PTR [edi+124], 1
  000c2	75 0e		 jne	 SHORT $LN11@Initialize
  000c4	39 9f b0 00 00
	00		 cmp	 DWORD PTR [edi+176], ebx
  000ca	75 06		 jne	 SHORT $LN11@Initialize

; 659  : 		m_nNewRangeStartTime = nMarketStartTime;

  000cc	89 87 b0 00 00
	00		 mov	 DWORD PTR [edi+176], eax
$LN11@Initialize:

; 660  : 
; 661  : 	// (2009/10/19 - Seung-Won, Bae) Real Data Processing Interface.
; 662  : 	m_pOpenPacket	= p_pOpenPacket;

  000d2	8b 45 08	 mov	 eax, DWORD PTR _p_pOpenPacket$[ebp]

; 663  : 	m_pHighPacket	= p_pHighPacket;
; 664  : 	m_pLowPacket	= p_pLowPacket;
; 665  : 	m_pClosePacket	= p_pClosePacket;
; 666  : 	m_pVolumePacket	= p_pVolumePacket;
; 667  : 
; 668  : 	if( !m_pRealBasePacket) return;

  000d5	8b 4f 08	 mov	 ecx, DWORD PTR [edi+8]
  000d8	89 47 30	 mov	 DWORD PTR [edi+48], eax
  000db	8b 45 0c	 mov	 eax, DWORD PTR _p_pHighPacket$[ebp]
  000de	89 47 34	 mov	 DWORD PTR [edi+52], eax
  000e1	8b 45 10	 mov	 eax, DWORD PTR _p_pLowPacket$[ebp]
  000e4	89 47 38	 mov	 DWORD PTR [edi+56], eax
  000e7	8b 45 14	 mov	 eax, DWORD PTR _p_pClosePacket$[ebp]
  000ea	89 47 3c	 mov	 DWORD PTR [edi+60], eax
  000ed	8b 45 18	 mov	 eax, DWORD PTR _p_pVolumePacket$[ebp]
  000f0	89 47 40	 mov	 DWORD PTR [edi+64], eax
  000f3	85 c9		 test	 ecx, ecx
  000f5	0f 84 a6 03 00
	00		 je	 $LN1@Initialize

; 669  : 
; 670  : 	// (2009/10/21 - Seung-Won, Bae) Comment.  PacketType   Format  Date  .
; 671  : 	m_dateData.SetPacketType( m_pRealBasePacket->GetType());

  000fb	6a 01		 push	 1
  000fd	8d 45 dc	 lea	 eax, DWORD PTR $T17[ebp]
  00100	50		 push	 eax
  00101	e8 00 00 00 00	 call	 ?GetType@CPacket@@QAE?AV?$CStringT@DV?$StrTraitMFC_DLL@DV?$ChTraitsCRT@D@ATL@@@@@ATL@@_N@Z ; CPacket::GetType
  00106	8d 4f 44	 lea	 ecx, DWORD PTR [edi+68]
  00109	c7 45 fc 00 00
	00 00		 mov	 DWORD PTR __$EHRec$[ebp+8], 0
  00110	50		 push	 eax
  00111	e8 00 00 00 00	 call	 ?SetPacketType@CDateData@@QAEXABV?$CStringT@DV?$StrTraitMFC_DLL@DV?$ChTraitsCRT@D@ATL@@@@@ATL@@@Z ; CDateData::SetPacketType
  00116	8d 4d dc	 lea	 ecx, DWORD PTR $T17[ebp]
  00119	c7 45 fc ff ff
	ff ff		 mov	 DWORD PTR __$EHRec$[ebp+8], -1
  00120	ff 15 00 00 00
	00		 call	 DWORD PTR __imp_??1?$CStringT@DV?$StrTraitMFC_DLL@DV?$ChTraitsCRT@D@ATL@@@@@ATL@@QAE@XZ

; 672  : 
; 673  : 	if( m_pRealBasePacket->GetName().Find( _MTEXT( C0_DATE_TIME)) < 0) return;

  00126	8b 4f 08	 mov	 ecx, DWORD PTR [edi+8]
  00129	8d 45 dc	 lea	 eax, DWORD PTR $T16[ebp]
  0012c	50		 push	 eax
  0012d	e8 00 00 00 00	 call	 ?GetName@CPacket@@QAE?AV?$CStringT@DV?$StrTraitMFC_DLL@DV?$ChTraitsCRT@D@ATL@@@@@ATL@@XZ ; CPacket::GetName
  00132	8b 0d 54 00 00
	00		 mov	 ecx, DWORD PTR ?g_iMetaTable@@3VIMetaTable@@A+84
  00138	6a 00		 push	 0
  0013a	ff 31		 push	 DWORD PTR [ecx]
  0013c	8b c8		 mov	 ecx, eax
  0013e	ff 15 00 00 00
	00		 call	 DWORD PTR __imp_?Find@?$CStringT@DV?$StrTraitMFC_DLL@DV?$ChTraitsCRT@D@ATL@@@@@ATL@@QBEHPBDH@Z
  00144	8d 4d dc	 lea	 ecx, DWORD PTR $T16[ebp]
  00147	8b f0		 mov	 esi, eax
  00149	ff 15 00 00 00
	00		 call	 DWORD PTR __imp_??1?$CStringT@DV?$StrTraitMFC_DLL@DV?$ChTraitsCRT@D@ATL@@@@@ATL@@QAE@XZ
  0014f	85 f6		 test	 esi, esi
  00151	0f 88 4a 03 00
	00		 js	 $LN1@Initialize

; 674  : 
; 675  : 	//sy 2005.01.28. ->    .
; 676  : 	CString strMarketStartTime;

  00157	8d 4d d4	 lea	 ecx, DWORD PTR _strMarketStartTime$[ebp]
  0015a	ff 15 00 00 00
	00		 call	 DWORD PTR __imp_??0?$CStringT@DV?$StrTraitMFC_DLL@DV?$ChTraitsCRT@D@ATL@@@@@ATL@@QAE@XZ

; 677  : 	if( !m_marketTimeData.GetMarketStartTime( strMarketStartTime)) strMarketStartTime.Empty();

  00160	8d 45 d4	 lea	 eax, DWORD PTR _strMarketStartTime$[ebp]
  00163	c7 45 fc 01 00
	00 00		 mov	 DWORD PTR __$EHRec$[ebp+8], 1
  0016a	50		 push	 eax
  0016b	8d 4f 58	 lea	 ecx, DWORD PTR [edi+88]
  0016e	e8 00 00 00 00	 call	 ?GetMarketStartTime@CMarketTimeData@@QBE_NAAV?$CStringT@DV?$StrTraitMFC_DLL@DV?$ChTraitsCRT@D@ATL@@@@@ATL@@@Z ; CMarketTimeData::GetMarketStartTime
  00173	84 c0		 test	 al, al
  00175	75 09		 jne	 SHORT $LN14@Initialize
  00177	8d 4d d4	 lea	 ecx, DWORD PTR _strMarketStartTime$[ebp]
  0017a	ff 15 00 00 00
	00		 call	 DWORD PTR __imp_?Empty@?$CSimpleStringT@D$00@ATL@@QAEXXZ
$LN14@Initialize:

; 678  : 
; 679  : 	if( m_pTimeRealDataModule) delete m_pTimeRealDataModule;

  00180	8b 4f 68	 mov	 ecx, DWORD PTR [edi+104]
  00183	85 c9		 test	 ecx, ecx
  00185	74 06		 je	 SHORT $LN30@Initialize
  00187	8b 01		 mov	 eax, DWORD PTR [ecx]
  00189	6a 01		 push	 1
  0018b	ff 10		 call	 DWORD PTR [eax]
$LN30@Initialize:

; 680  : 
; 681  : 	// 2011.02.18 by SYS >>  YYYY()  : / 14Byte  (YYYYMMDDhhmmss)
; 682  : // 	switch( m_eDateUnitType)
; 683  : // 	{
; 684  : // 		// /
; 685  : // 		case CScaleBaseData::HORZ_MONTHLY:
; 686  : // 		case CScaleBaseData::HORZ_DAILY:	m_pTimeRealDataModule = new CDateRealDataModule( m_marketTimeData, m_pRealBasePacket->GetType(), CScaleBaseData::HORZ_MONTHLY == m_eDateUnitType);
; 687  : // 											break;
; 688  : // 		// 
; 689  : // 		case CScaleBaseData::HORZ_WEEKLEY:	m_pTimeRealDataModule = new CWeekRealDataModule( m_marketTimeData, m_pRealBasePacket->GetType());
; 690  : // 											break;
; 691  : // 		// ()
; 692  : // 		case CScaleBaseData::HORZ_TIME_TWO:
; 693  : // 		case CScaleBaseData::HORZ_TIME_ONE:	
; 694  : // 			switch( m_eRealType)
; 695  : // 			{
; 696  : // 				// . 09:01:00 ~ 09:01:59 -> 09:01
; 697  : // 				case CPacketType::FLOOR:	m_pTimeRealDataModule = new CFloorTimeRealDataModule( m_dateData, m_marketTimeData, m_pRealBasePacket->GetType(), m_nTimeInterval, strMarketStartTime);
; 698  : // 											break;
; 699  : // 				// . 09:00:01 ~ 09:01:00 -> 
; 700  : // 				default:
; 701  : // 				case CPacketType::CEILING:	m_pTimeRealDataModule = new CCeilingTimeRealDataModule( m_dateData, m_marketTimeData, m_pRealBasePacket->GetType(), m_nTimeInterval, strMarketStartTime);
; 702  : // 											break;
; 703  : // 				// . 09:00:00 ~ 09:00:59 -> 09:01 (KOSCOM)	// (2009/6/15 - Seung-Won, Bae) Koscom is new ceiling type.
; 704  : // 				case CPacketType::CEILING2:	m_pTimeRealDataModule = new CCeiling2TimeRealDataModule( m_dateData, m_marketTimeData, m_pRealBasePacket->GetType(), m_nTimeInterval, strMarketStartTime);
; 705  : // 											break;
; 706  : // 			}
; 707  : // 			break;
; 708  : // 		// 
; 709  : // 		default:
; 710  : // 		case CScaleBaseData::HORZ_TICK:		m_pTimeRealDataModule = new CTickRealDataModule( m_marketTimeData, m_pRealBasePacket->GetType(), m_nTimeInterval, m_nAddTimeInterval);
; 711  : // 											break;
; 712  : // 	}
; 713  : 	
; 714  : 	switch( m_eDateUnitType)

  0018d	8b 47 28	 mov	 eax, DWORD PTR [edi+40]
  00190	48		 dec	 eax
  00191	83 f8 05	 cmp	 eax, 5
  00194	0f 87 2d 02 00
	00		 ja	 $LN25@Initialize
  0019a	ff 24 85 00 00
	00 00		 jmp	 DWORD PTR $LN82@Initialize[eax*4]
$LN6@Initialize:

; 638  : 	else
; 639  : 	{
; 640  : 		SYSTEMTIME st;
; 641  : 		GetLocalTime( &st);

  001a1	8d 45 e0	 lea	 eax, DWORD PTR _st$18[ebp]
  001a4	50		 push	 eax
  001a5	ff 15 00 00 00
	00		 call	 DWORD PTR __imp__GetLocalTime@4

; 642  : 		//>>20100221_JS.Kim	PC     DATE .
; 643  : 		//__int64 nLocalTime = st.wYear * 10000000000 + st.wMonth * 100000000 + st.wDay * 1000000 + st.wHour * 10000 + st.wMinute * 100 + st.wSecond;
; 644  : 		__int64 nLocalTime = (__int64)m_dateData.GetFullDate() * 1000000 + st.wHour * 10000 + st.wMinute * 100 + st.wSecond;

  001ab	0f b7 45 e8	 movzx	 eax, WORD PTR _st$18[ebp+8]
  001af	33 c9		 xor	 ecx, ecx
  001b1	69 f0 10 27 00
	00		 imul	 esi, eax, 10000
  001b7	ba 40 42 0f 00	 mov	 edx, 1000000		; 000f4240H
  001bc	0f b7 45 ea	 movzx	 eax, WORD PTR _st$18[ebp+10]
  001c0	6b c0 64	 imul	 eax, eax, 100
  001c3	03 f0		 add	 esi, eax
  001c5	8b 47 48	 mov	 eax, DWORD PTR [edi+72]
  001c8	13 c9		 adc	 ecx, ecx
  001ca	f7 ea		 imul	 edx
  001cc	03 f0		 add	 esi, eax
  001ce	0f b7 45 ec	 movzx	 eax, WORD PTR _st$18[ebp+12]
  001d2	13 ca		 adc	 ecx, edx
  001d4	99		 cdq
  001d5	03 f0		 add	 esi, eax
  001d7	13 ca		 adc	 ecx, edx

; 645  : 		//<<
; 646  : 		if( CChartInfo::WORLD_ON == m_nChartModeSetting)

  001d9	83 7f 7c 03	 cmp	 DWORD PTR [edi+124], 3
  001dd	0f 85 84 fe ff
	ff		 jne	 $LN83@Initialize

; 647  : 			nLocalTime = CDataConversion::CalcTimeSum( nLocalTime, ( m_nOrgBaseTimeDiff - 9) * 10000);

  001e3	8b 87 80 00 00
	00		 mov	 eax, DWORD PTR [edi+128]
  001e9	83 e8 09	 sub	 eax, 9
  001ec	69 c0 10 27 00
	00		 imul	 eax, eax, 10000
  001f2	6a 00		 push	 0
  001f4	99		 cdq
  001f5	52		 push	 edx
  001f6	50		 push	 eax
  001f7	51		 push	 ecx
  001f8	56		 push	 esi
  001f9	e8 00 00 00 00	 call	 ?CalcTimeSum@CDataConversion@@SA_J_J0H@Z ; CDataConversion::CalcTimeSum
  001fe	83 c4 14	 add	 esp, 20			; 00000014H
  00201	8b f0		 mov	 esi, eax
  00203	e9 61 fe ff ff	 jmp	 $LN8@Initialize
$LN16@Initialize:

; 715  : 	{
; 716  : 		// /
; 717  : 		case CScaleBaseData::HORZ_MONTHLY:
; 718  : 		case CScaleBaseData::HORZ_DAILY:	m_pTimeRealDataModule = new CDateRealDataModule( m_marketTimeData, m_pRealBasePacket->GetType(), m_eDateUnitType, CScaleBaseData::HORZ_MONTHLY == m_eDateUnitType);

  00208	68 a8 00 00 00	 push	 168			; 000000a8H
  0020d	e8 00 00 00 00	 call	 ??2@YAPAXI@Z		; operator new
  00212	8b f0		 mov	 esi, eax
  00214	83 c4 04	 add	 esp, 4
  00217	89 75 d0	 mov	 DWORD PTR $T8[ebp], esi
  0021a	c6 45 fc 02	 mov	 BYTE PTR __$EHRec$[ebp+8], 2
  0021e	85 f6		 test	 esi, esi
  00220	74 33		 je	 SHORT $LN32@Initialize
  00222	8b 4f 08	 mov	 ecx, DWORD PTR [edi+8]
  00225	8d 45 d8	 lea	 eax, DWORD PTR $T14[ebp]
  00228	6a 01		 push	 1
  0022a	50		 push	 eax
  0022b	e8 00 00 00 00	 call	 ?GetType@CPacket@@QAE?AV?$CStringT@DV?$StrTraitMFC_DLL@DV?$ChTraitsCRT@D@ATL@@@@@ATL@@_N@Z ; CPacket::GetType
  00230	8b 57 28	 mov	 edx, DWORD PTR [edi+40]
  00233	33 c9		 xor	 ecx, ecx
  00235	83 cb 01	 or	 ebx, 1
  00238	c6 45 fc 03	 mov	 BYTE PTR __$EHRec$[ebp+8], 3
  0023c	83 fa 03	 cmp	 edx, 3
  0023f	89 5d dc	 mov	 DWORD PTR $T15[ebp], ebx
  00242	0f 94 c1	 sete	 cl
  00245	51		 push	 ecx
  00246	52		 push	 edx
  00247	50		 push	 eax
  00248	8d 47 58	 lea	 eax, DWORD PTR [edi+88]
  0024b	8b ce		 mov	 ecx, esi
  0024d	50		 push	 eax
  0024e	e8 00 00 00 00	 call	 ??0CDateRealDataModule@@QAE@AAVCMarketTimeData@@ABV?$CStringT@DV?$StrTraitMFC_DLL@DV?$ChTraitsCRT@D@ATL@@@@@ATL@@W4HORZSCALEDRAWERTYPE@CScaleBaseData@@H@Z ; CDateRealDataModule::CDateRealDataModule
  00253	eb 02		 jmp	 SHORT $LN33@Initialize
$LN32@Initialize:
  00255	33 c0		 xor	 eax, eax
$LN33@Initialize:
  00257	f6 c3 01	 test	 bl, 1

; 719  : 											break;

  0025a	e9 b6 01 00 00	 jmp	 $LN87@Initialize
$LN18@Initialize:

; 720  : 		// 
; 721  : 		case CScaleBaseData::HORZ_WEEKLEY:	m_pTimeRealDataModule = new CWeekRealDataModule( m_marketTimeData, m_pRealBasePacket->GetType(), m_eDateUnitType);

  0025f	68 a0 00 00 00	 push	 160			; 000000a0H
  00264	e8 00 00 00 00	 call	 ??2@YAPAXI@Z		; operator new
  00269	8b f0		 mov	 esi, eax
  0026b	83 c4 04	 add	 esp, 4
  0026e	89 75 d0	 mov	 DWORD PTR $T7[ebp], esi
  00271	c6 45 fc 05	 mov	 BYTE PTR __$EHRec$[ebp+8], 5
  00275	85 f6		 test	 esi, esi
  00277	74 29		 je	 SHORT $LN34@Initialize
  00279	8b 4f 08	 mov	 ecx, DWORD PTR [edi+8]
  0027c	8d 45 d8	 lea	 eax, DWORD PTR $T13[ebp]
  0027f	6a 01		 push	 1
  00281	50		 push	 eax
  00282	e8 00 00 00 00	 call	 ?GetType@CPacket@@QAE?AV?$CStringT@DV?$StrTraitMFC_DLL@DV?$ChTraitsCRT@D@ATL@@@@@ATL@@_N@Z ; CPacket::GetType
  00287	ff 77 28	 push	 DWORD PTR [edi+40]
  0028a	83 cb 02	 or	 ebx, 2
  0028d	c6 45 fc 06	 mov	 BYTE PTR __$EHRec$[ebp+8], 6
  00291	50		 push	 eax
  00292	8d 47 58	 lea	 eax, DWORD PTR [edi+88]
  00295	89 5d dc	 mov	 DWORD PTR $T15[ebp], ebx
  00298	50		 push	 eax
  00299	8b ce		 mov	 ecx, esi
  0029b	e8 00 00 00 00	 call	 ??0CWeekRealDataModule@@QAE@AAVCMarketTimeData@@ABV?$CStringT@DV?$StrTraitMFC_DLL@DV?$ChTraitsCRT@D@ATL@@@@@ATL@@W4HORZSCALEDRAWERTYPE@CScaleBaseData@@@Z ; CWeekRealDataModule::CWeekRealDataModule
  002a0	eb 02		 jmp	 SHORT $LN35@Initialize
$LN34@Initialize:
  002a2	33 c0		 xor	 eax, eax
$LN35@Initialize:
  002a4	f6 c3 02	 test	 bl, 2

; 722  : 											break;

  002a7	e9 69 01 00 00	 jmp	 $LN87@Initialize
$LN19@Initialize:

; 723  : 		// ()
; 724  : 		case CScaleBaseData::HORZ_TIME_TWO:
; 725  : 		case CScaleBaseData::HORZ_TIME_ONE:	
; 726  : 			switch( m_eRealType)

  002ac	8b 47 78	 mov	 eax, DWORD PTR [edi+120]
  002af	83 e8 00	 sub	 eax, 0
  002b2	0f 84 ba 00 00
	00		 je	 $LN21@Initialize
  002b8	83 e8 01	 sub	 eax, 1
  002bb	74 5d		 je	 SHORT $LN22@Initialize
  002bd	83 e8 01	 sub	 eax, 1
  002c0	75 58		 jne	 SHORT $LN22@Initialize

; 735  : 				// . 09:00:00 ~ 09:00:59 -> 09:01 (KOSCOM)	// (2009/6/15 - Seung-Won, Bae) Koscom is new ceiling type.
; 736  : 				case CPacketType::CEILING2:	m_pTimeRealDataModule = new CCeiling2TimeRealDataModule( m_dateData, m_marketTimeData, m_pRealBasePacket->GetType(), m_nTimeInterval, strMarketStartTime, m_eDateUnitType);

  002c2	68 c8 00 00 00	 push	 200			; 000000c8H
  002c7	e8 00 00 00 00	 call	 ??2@YAPAXI@Z		; operator new
  002cc	8b f0		 mov	 esi, eax
  002ce	83 c4 04	 add	 esp, 4
  002d1	89 75 d0	 mov	 DWORD PTR $T4[ebp], esi
  002d4	c6 45 fc 0e	 mov	 BYTE PTR __$EHRec$[ebp+8], 14 ; 0000000eH
  002d8	85 f6		 test	 esi, esi
  002da	74 34		 je	 SHORT $LN40@Initialize
  002dc	8b 4f 08	 mov	 ecx, DWORD PTR [edi+8]
  002df	8d 45 d8	 lea	 eax, DWORD PTR $T10[ebp]
  002e2	6a 01		 push	 1
  002e4	50		 push	 eax
  002e5	e8 00 00 00 00	 call	 ?GetType@CPacket@@QAE?AV?$CStringT@DV?$StrTraitMFC_DLL@DV?$ChTraitsCRT@D@ATL@@@@@ATL@@_N@Z ; CPacket::GetType
  002ea	ff 77 28	 push	 DWORD PTR [edi+40]
  002ed	8d 4d d4	 lea	 ecx, DWORD PTR _strMarketStartTime$[ebp]
  002f0	c6 45 fc 0f	 mov	 BYTE PTR __$EHRec$[ebp+8], 15 ; 0000000fH
  002f4	51		 push	 ecx
  002f5	ff 77 2c	 push	 DWORD PTR [edi+44]
  002f8	83 cb 10	 or	 ebx, 16			; 00000010H
  002fb	8b ce		 mov	 ecx, esi
  002fd	50		 push	 eax
  002fe	8d 47 58	 lea	 eax, DWORD PTR [edi+88]
  00301	89 5d dc	 mov	 DWORD PTR $T15[ebp], ebx
  00304	50		 push	 eax
  00305	8d 47 44	 lea	 eax, DWORD PTR [edi+68]
  00308	50		 push	 eax
  00309	e8 00 00 00 00	 call	 ??0CCeiling2TimeRealDataModule@@QAE@ABVCDateData@@AAVCMarketTimeData@@ABV?$CStringT@DV?$StrTraitMFC_DLL@DV?$ChTraitsCRT@D@ATL@@@@@ATL@@H2W4HORZSCALEDRAWERTYPE@CScaleBaseData@@@Z ; CCeiling2TimeRealDataModule::CCeiling2TimeRealDataModule
  0030e	eb 02		 jmp	 SHORT $LN41@Initialize
$LN40@Initialize:
  00310	33 c0		 xor	 eax, eax
$LN41@Initialize:
  00312	f6 c3 10	 test	 bl, 16			; 00000010H
  00315	e9 fb 00 00 00	 jmp	 $LN87@Initialize
$LN22@Initialize:

; 730  : 											break;
; 731  : 				// . 09:00:01 ~ 09:01:00 -> 
; 732  : 				default:
; 733  : 				case CPacketType::CEILING:	m_pTimeRealDataModule = new CCeilingTimeRealDataModule( m_dateData, m_marketTimeData, m_pRealBasePacket->GetType(), m_nTimeInterval, strMarketStartTime, m_eDateUnitType);

  0031a	68 c8 00 00 00	 push	 200			; 000000c8H
  0031f	e8 00 00 00 00	 call	 ??2@YAPAXI@Z		; operator new
  00324	8b f0		 mov	 esi, eax
  00326	83 c4 04	 add	 esp, 4
  00329	89 75 d0	 mov	 DWORD PTR $T5[ebp], esi
  0032c	c6 45 fc 0b	 mov	 BYTE PTR __$EHRec$[ebp+8], 11 ; 0000000bH
  00330	85 f6		 test	 esi, esi
  00332	74 34		 je	 SHORT $LN38@Initialize
  00334	8b 4f 08	 mov	 ecx, DWORD PTR [edi+8]
  00337	8d 45 d8	 lea	 eax, DWORD PTR $T11[ebp]
  0033a	6a 01		 push	 1
  0033c	50		 push	 eax
  0033d	e8 00 00 00 00	 call	 ?GetType@CPacket@@QAE?AV?$CStringT@DV?$StrTraitMFC_DLL@DV?$ChTraitsCRT@D@ATL@@@@@ATL@@_N@Z ; CPacket::GetType
  00342	ff 77 28	 push	 DWORD PTR [edi+40]
  00345	8d 4d d4	 lea	 ecx, DWORD PTR _strMarketStartTime$[ebp]
  00348	c6 45 fc 0c	 mov	 BYTE PTR __$EHRec$[ebp+8], 12 ; 0000000cH
  0034c	51		 push	 ecx
  0034d	ff 77 2c	 push	 DWORD PTR [edi+44]
  00350	83 cb 08	 or	 ebx, 8
  00353	8b ce		 mov	 ecx, esi
  00355	50		 push	 eax
  00356	8d 47 58	 lea	 eax, DWORD PTR [edi+88]
  00359	89 5d dc	 mov	 DWORD PTR $T15[ebp], ebx
  0035c	50		 push	 eax
  0035d	8d 47 44	 lea	 eax, DWORD PTR [edi+68]
  00360	50		 push	 eax
  00361	e8 00 00 00 00	 call	 ??0CCeilingTimeRealDataModule@@QAE@ABVCDateData@@AAVCMarketTimeData@@ABV?$CStringT@DV?$StrTraitMFC_DLL@DV?$ChTraitsCRT@D@ATL@@@@@ATL@@H2W4HORZSCALEDRAWERTYPE@CScaleBaseData@@@Z ; CCeilingTimeRealDataModule::CCeilingTimeRealDataModule
  00366	eb 02		 jmp	 SHORT $LN39@Initialize
$LN38@Initialize:
  00368	33 c0		 xor	 eax, eax
$LN39@Initialize:
  0036a	f6 c3 08	 test	 bl, 8

; 734  : 											break;

  0036d	e9 a3 00 00 00	 jmp	 $LN87@Initialize
$LN21@Initialize:

; 727  : 			{
; 728  : 				// . 09:01:00 ~ 09:01:59 -> 09:01
; 729  : 				case CPacketType::FLOOR:	m_pTimeRealDataModule = new CFloorTimeRealDataModule( m_dateData, m_marketTimeData, m_pRealBasePacket->GetType(), m_nTimeInterval, strMarketStartTime, m_eDateUnitType);

  00372	68 c8 00 00 00	 push	 200			; 000000c8H
  00377	e8 00 00 00 00	 call	 ??2@YAPAXI@Z		; operator new
  0037c	8b f0		 mov	 esi, eax
  0037e	83 c4 04	 add	 esp, 4
  00381	89 75 d0	 mov	 DWORD PTR $T6[ebp], esi
  00384	c6 45 fc 08	 mov	 BYTE PTR __$EHRec$[ebp+8], 8
  00388	85 f6		 test	 esi, esi
  0038a	74 34		 je	 SHORT $LN36@Initialize
  0038c	8b 4f 08	 mov	 ecx, DWORD PTR [edi+8]
  0038f	8d 45 d8	 lea	 eax, DWORD PTR $T12[ebp]
  00392	6a 01		 push	 1
  00394	50		 push	 eax
  00395	e8 00 00 00 00	 call	 ?GetType@CPacket@@QAE?AV?$CStringT@DV?$StrTraitMFC_DLL@DV?$ChTraitsCRT@D@ATL@@@@@ATL@@_N@Z ; CPacket::GetType
  0039a	ff 77 28	 push	 DWORD PTR [edi+40]
  0039d	8d 4d d4	 lea	 ecx, DWORD PTR _strMarketStartTime$[ebp]
  003a0	c6 45 fc 09	 mov	 BYTE PTR __$EHRec$[ebp+8], 9
  003a4	51		 push	 ecx
  003a5	ff 77 2c	 push	 DWORD PTR [edi+44]
  003a8	83 cb 04	 or	 ebx, 4
  003ab	8b ce		 mov	 ecx, esi
  003ad	50		 push	 eax
  003ae	8d 47 58	 lea	 eax, DWORD PTR [edi+88]
  003b1	89 5d dc	 mov	 DWORD PTR $T15[ebp], ebx
  003b4	50		 push	 eax
  003b5	8d 47 44	 lea	 eax, DWORD PTR [edi+68]
  003b8	50		 push	 eax
  003b9	e8 00 00 00 00	 call	 ??0CFloorTimeRealDataModule@@QAE@ABVCDateData@@AAVCMarketTimeData@@ABV?$CStringT@DV?$StrTraitMFC_DLL@DV?$ChTraitsCRT@D@ATL@@@@@ATL@@H2W4HORZSCALEDRAWERTYPE@CScaleBaseData@@@Z ; CFloorTimeRealDataModule::CFloorTimeRealDataModule
  003be	eb 02		 jmp	 SHORT $LN37@Initialize
$LN36@Initialize:
  003c0	33 c0		 xor	 eax, eax
$LN37@Initialize:
  003c2	f6 c3 04	 test	 bl, 4

; 737  : 											break;
; 738  : 			}
; 739  : 			break;

  003c5	eb 4e		 jmp	 SHORT $LN87@Initialize
$LN25@Initialize:

; 740  : 		// 
; 741  : 		default:
; 742  : 		case CScaleBaseData::HORZ_TICK:		m_pTimeRealDataModule = new CTickRealDataModule( m_marketTimeData, m_pRealBasePacket->GetType(), m_nTimeInterval, m_nAddTimeInterval, m_eDateUnitType);

  003c7	68 b0 00 00 00	 push	 176			; 000000b0H
  003cc	e8 00 00 00 00	 call	 ??2@YAPAXI@Z		; operator new
  003d1	8b f0		 mov	 esi, eax
  003d3	83 c4 04	 add	 esp, 4
  003d6	89 75 d0	 mov	 DWORD PTR $T3[ebp], esi
  003d9	c6 45 fc 11	 mov	 BYTE PTR __$EHRec$[ebp+8], 17 ; 00000011H
  003dd	85 f6		 test	 esi, esi
  003df	74 2f		 je	 SHORT $LN42@Initialize
  003e1	8b 4f 08	 mov	 ecx, DWORD PTR [edi+8]
  003e4	8d 45 d8	 lea	 eax, DWORD PTR $T9[ebp]
  003e7	6a 01		 push	 1
  003e9	50		 push	 eax
  003ea	e8 00 00 00 00	 call	 ?GetType@CPacket@@QAE?AV?$CStringT@DV?$StrTraitMFC_DLL@DV?$ChTraitsCRT@D@ATL@@@@@ATL@@_N@Z ; CPacket::GetType
  003ef	ff 77 28	 push	 DWORD PTR [edi+40]
  003f2	83 cb 20	 or	 ebx, 32			; 00000020H
  003f5	c6 45 fc 12	 mov	 BYTE PTR __$EHRec$[ebp+8], 18 ; 00000012H
  003f9	ff 77 24	 push	 DWORD PTR [edi+36]
  003fc	8b ce		 mov	 ecx, esi
  003fe	89 5d dc	 mov	 DWORD PTR $T15[ebp], ebx
  00401	ff 77 2c	 push	 DWORD PTR [edi+44]
  00404	50		 push	 eax
  00405	8d 47 58	 lea	 eax, DWORD PTR [edi+88]
  00408	50		 push	 eax
  00409	e8 00 00 00 00	 call	 ??0CTickRealDataModule@@QAE@AAVCMarketTimeData@@ABV?$CStringT@DV?$StrTraitMFC_DLL@DV?$ChTraitsCRT@D@ATL@@@@@ATL@@HHW4HORZSCALEDRAWERTYPE@CScaleBaseData@@@Z ; CTickRealDataModule::CTickRealDataModule
  0040e	eb 02		 jmp	 SHORT $LN43@Initialize
$LN42@Initialize:
  00410	33 c0		 xor	 eax, eax
$LN43@Initialize:
  00412	f6 c3 20	 test	 bl, 32			; 00000020H
$LN87@Initialize:

; 743  : 											break;
; 744  : 	}
; 745  : 	// 2011.02.18 by SYS <<
; 746  : 
; 747  : 	// (2009/10/27 - Seung-Won, Bae) for Real Data Type.
; 748  : 	m_pTimeRealDataModule->SetChartMode( m_nChartModeSetting);

  00415	c7 45 fc 01 00
	00 00		 mov	 DWORD PTR __$EHRec$[ebp+8], 1
  0041c	89 47 68	 mov	 DWORD PTR [edi+104], eax
  0041f	74 09		 je	 SHORT $LN70@Initialize
  00421	8d 4d d8	 lea	 ecx, DWORD PTR $T9[ebp]
  00424	ff 15 00 00 00
	00		 call	 DWORD PTR __imp_??1?$CStringT@DV?$StrTraitMFC_DLL@DV?$ChTraitsCRT@D@ATL@@@@@ATL@@QAE@XZ
$LN70@Initialize:
  0042a	8b 4f 68	 mov	 ecx, DWORD PTR [edi+104]
  0042d	8b 47 7c	 mov	 eax, DWORD PTR [edi+124]
  00430	89 41 58	 mov	 DWORD PTR [ecx+88], eax

; 749  : 
; 750  : 	m_pTimeRealDataModule->OnInitTR( ( m_nBaseTimeDiff - m_nOrgBaseTimeDiff) * 10000, m_nNewRangeStartTime, m_strMarketDayInfo);

  00433	8b 87 84 00 00
	00		 mov	 eax, DWORD PTR [edi+132]
  00439	2b 87 80 00 00
	00		 sub	 eax, DWORD PTR [edi+128]
  0043f	8b 4f 68	 mov	 ecx, DWORD PTR [edi+104]
  00442	69 c0 10 27 00
	00		 imul	 eax, eax, 10000
  00448	99		 cdq
  00449	89 45 cc	 mov	 DWORD PTR $T2[ebp], eax
  0044c	8d 87 b4 00 00
	00		 lea	 eax, DWORD PTR [edi+180]
  00452	50		 push	 eax
  00453	8d 87 b0 00 00
	00		 lea	 eax, DWORD PTR [edi+176]
  00459	89 55 d0	 mov	 DWORD PTR $T2[ebp+4], edx
  0045c	50		 push	 eax
  0045d	8d 45 cc	 lea	 eax, DWORD PTR $T2[ebp]
  00460	50		 push	 eax
  00461	e8 00 00 00 00	 call	 ?OnInitTR@CTimeRealDataModuleBase@@QAEXAB_JABHABV?$CStringT@DV?$StrTraitMFC_DLL@DV?$ChTraitsCRT@D@ATL@@@@@ATL@@@Z ; CTimeRealDataModuleBase::OnInitTR

; 751  : 
; 752  : 	double dTailData = -1;
; 753  : 	CList< double, double>* pDataList = m_pRealBasePacket->GetnumericDataList();

  00466	8b 4f 08	 mov	 ecx, DWORD PTR [edi+8]
  00469	e8 00 00 00 00	 call	 ?GetnumericDataList@CPacket@@QAEPAV?$CList@NN@@XZ ; CPacket::GetnumericDataList

; 754  : 	if( pDataList) if( 0 < pDataList->GetCount())

  0046e	85 c0		 test	 eax, eax
  00470	74 26		 je	 SHORT $LN28@Initialize
  00472	83 78 0c 00	 cmp	 DWORD PTR [eax+12], 0
  00476	7e 20		 jle	 SHORT $LN28@Initialize
; File C:\Program Files (x86)\Microsoft Visual Studio\2019\Community\VC\Tools\MSVC\14.29.30133\atlmfc\include\afxtempl.h

; 797  : 	{ ENSURE(m_pNodeTail != NULL);

  00478	8b 40 08	 mov	 eax, DWORD PTR [eax+8]
  0047b	85 c0		 test	 eax, eax
  0047d	74 40		 je	 SHORT $LN89@Initialize
; File D:\git\src\IBK\IBK_DRFN\ProjSrc\SrcChartEx\ChartOCX\PacketData\RealModuleCenter.cpp

; 755  : 		m_pTimeRealDataModule->SetTimeRange_TRPart( m_nLastRealTime, ( __int64)pDataList->GetTail());

  0047f	8b 7f 68	 mov	 edi, DWORD PTR [edi+104]
  00482	f2 0f 10 40 08	 movsd	 xmm0, QWORD PTR [eax+8]
  00487	8b 37		 mov	 esi, DWORD PTR [edi]
  00489	e8 00 00 00 00	 call	 __dtol3
  0048e	52		 push	 edx
  0048f	50		 push	 eax
  00490	ff 75 c4	 push	 DWORD PTR tv799[ebp]
  00493	8b cf		 mov	 ecx, edi
  00495	ff 56 04	 call	 DWORD PTR [esi+4]
$LN28@Initialize:

; 756  : }

  00498	8d 4d d4	 lea	 ecx, DWORD PTR _strMarketStartTime$[ebp]
  0049b	ff 15 00 00 00
	00		 call	 DWORD PTR __imp_??1?$CStringT@DV?$StrTraitMFC_DLL@DV?$ChTraitsCRT@D@ATL@@@@@ATL@@QAE@XZ
$LN1@Initialize:
  004a1	8b 4d f4	 mov	 ecx, DWORD PTR __$EHRec$[ebp]
  004a4	64 89 0d 00 00
	00 00		 mov	 DWORD PTR fs:0, ecx
  004ab	59		 pop	 ecx
  004ac	5f		 pop	 edi
  004ad	5e		 pop	 esi
  004ae	5b		 pop	 ebx
  004af	8b 4d f0	 mov	 ecx, DWORD PTR __$ArrayPad$[ebp]
  004b2	33 cd		 xor	 ecx, ebp
  004b4	e8 00 00 00 00	 call	 @__security_check_cookie@4
  004b9	8b e5		 mov	 esp, ebp
  004bb	5d		 pop	 ebp
  004bc	c2 14 00	 ret	 20			; 00000014H
$LN89@Initialize:
; File C:\Program Files (x86)\Microsoft Visual Studio\2019\Community\VC\Tools\MSVC\14.29.30133\atlmfc\include\afxtempl.h

; 797  : 	{ ENSURE(m_pNodeTail != NULL);

  004bf	e8 00 00 00 00	 call	 ?AfxThrowInvalidArgException@@YGXXZ ; AfxThrowInvalidArgException
$LN85@Initialize:
$LN82@Initialize:
; File D:\git\src\IBK\IBK_DRFN\ProjSrc\SrcChartEx\ChartOCX\PacketData\RealModuleCenter.cpp

; 756  : }

  004c4	00 00 00 00	 DD	 $LN16@Initialize
  004c8	00 00 00 00	 DD	 $LN18@Initialize
  004cc	00 00 00 00	 DD	 $LN16@Initialize
  004d0	00 00 00 00	 DD	 $LN19@Initialize
  004d4	00 00 00 00	 DD	 $LN25@Initialize
  004d8	00 00 00 00	 DD	 $LN19@Initialize
_TEXT	ENDS
;	COMDAT text$x
text$x	SEGMENT
__unwindfunclet$?InitializeTRPart@CRealModuleCenter@@QAEXPAVCPacket@@0000@Z$0:
  00000	8d 4d dc	 lea	 ecx, DWORD PTR $T17[ebp]
  00003	ff 25 00 00 00
	00		 jmp	 DWORD PTR __imp_??1?$CStringT@DV?$StrTraitMFC_DLL@DV?$ChTraitsCRT@D@ATL@@@@@ATL@@QAE@XZ
__unwindfunclet$?InitializeTRPart@CRealModuleCenter@@QAEXPAVCPacket@@0000@Z$2:
  00009	8d 4d d4	 lea	 ecx, DWORD PTR _strMarketStartTime$[ebp]
  0000c	ff 25 00 00 00
	00		 jmp	 DWORD PTR __imp_??1?$CStringT@DV?$StrTraitMFC_DLL@DV?$ChTraitsCRT@D@ATL@@@@@ATL@@QAE@XZ
__unwindfunclet$?InitializeTRPart@CRealModuleCenter@@QAEXPAVCPacket@@0000@Z$3:
  00012	68 a8 00 00 00	 push	 168			; 000000a8H
  00017	8b 45 d0	 mov	 eax, DWORD PTR $T8[ebp]
  0001a	50		 push	 eax
  0001b	e8 00 00 00 00	 call	 ??3@YAXPAXI@Z		; operator delete
  00020	83 c4 08	 add	 esp, 8
  00023	c3		 ret	 0
__unwindfunclet$?InitializeTRPart@CRealModuleCenter@@QAEXPAVCPacket@@0000@Z$4:
  00024	8b 45 dc	 mov	 eax, DWORD PTR $T15[ebp]
  00027	83 e0 01	 and	 eax, 1
  0002a	0f 84 0d 00 00
	00		 je	 $LN49@Initialize
  00030	83 65 dc fe	 and	 DWORD PTR $T15[ebp], -2	; fffffffeH
  00034	8d 4d d8	 lea	 ecx, DWORD PTR $T14[ebp]
  00037	ff 25 00 00 00
	00		 jmp	 DWORD PTR __imp_??1?$CStringT@DV?$StrTraitMFC_DLL@DV?$ChTraitsCRT@D@ATL@@@@@ATL@@QAE@XZ
$LN49@Initialize:
  0003d	c3		 ret	 0
__unwindfunclet$?InitializeTRPart@CRealModuleCenter@@QAEXPAVCPacket@@0000@Z$5:
  0003e	68 a0 00 00 00	 push	 160			; 000000a0H
  00043	8b 45 d0	 mov	 eax, DWORD PTR $T7[ebp]
  00046	50		 push	 eax
  00047	e8 00 00 00 00	 call	 ??3@YAXPAXI@Z		; operator delete
  0004c	83 c4 08	 add	 esp, 8
  0004f	c3		 ret	 0
__unwindfunclet$?InitializeTRPart@CRealModuleCenter@@QAEXPAVCPacket@@0000@Z$6:
  00050	8b 45 dc	 mov	 eax, DWORD PTR $T15[ebp]
  00053	83 e0 02	 and	 eax, 2
  00056	0f 84 0d 00 00
	00		 je	 $LN53@Initialize
  0005c	83 65 dc fd	 and	 DWORD PTR $T15[ebp], -3	; fffffffdH
  00060	8d 4d d8	 lea	 ecx, DWORD PTR $T13[ebp]
  00063	ff 25 00 00 00
	00		 jmp	 DWORD PTR __imp_??1?$CStringT@DV?$StrTraitMFC_DLL@DV?$ChTraitsCRT@D@ATL@@@@@ATL@@QAE@XZ
$LN53@Initialize:
  00069	c3		 ret	 0
__unwindfunclet$?InitializeTRPart@CRealModuleCenter@@QAEXPAVCPacket@@0000@Z$11:
  0006a	68 c8 00 00 00	 push	 200			; 000000c8H
  0006f	8b 45 d0	 mov	 eax, DWORD PTR $T4[ebp]
  00072	50		 push	 eax
  00073	e8 00 00 00 00	 call	 ??3@YAXPAXI@Z		; operator delete
  00078	83 c4 08	 add	 esp, 8
  0007b	c3		 ret	 0
__unwindfunclet$?InitializeTRPart@CRealModuleCenter@@QAEXPAVCPacket@@0000@Z$12:
  0007c	8b 45 dc	 mov	 eax, DWORD PTR $T15[ebp]
  0007f	83 e0 10	 and	 eax, 16			; 00000010H
  00082	0f 84 0d 00 00
	00		 je	 $LN65@Initialize
  00088	83 65 dc ef	 and	 DWORD PTR $T15[ebp], -17 ; ffffffefH
  0008c	8d 4d d8	 lea	 ecx, DWORD PTR $T10[ebp]
  0008f	ff 25 00 00 00
	00		 jmp	 DWORD PTR __imp_??1?$CStringT@DV?$StrTraitMFC_DLL@DV?$ChTraitsCRT@D@ATL@@@@@ATL@@QAE@XZ
$LN65@Initialize:
  00095	c3		 ret	 0
__unwindfunclet$?InitializeTRPart@CRealModuleCenter@@QAEXPAVCPacket@@0000@Z$9:
  00096	68 c8 00 00 00	 push	 200			; 000000c8H
  0009b	8b 45 d0	 mov	 eax, DWORD PTR $T5[ebp]
  0009e	50		 push	 eax
  0009f	e8 00 00 00 00	 call	 ??3@YAXPAXI@Z		; operator delete
  000a4	83 c4 08	 add	 esp, 8
  000a7	c3		 ret	 0
__unwindfunclet$?InitializeTRPart@CRealModuleCenter@@QAEXPAVCPacket@@0000@Z$10:
  000a8	8b 45 dc	 mov	 eax, DWORD PTR $T15[ebp]
  000ab	83 e0 08	 and	 eax, 8
  000ae	0f 84 0d 00 00
	00		 je	 $LN61@Initialize
  000b4	83 65 dc f7	 and	 DWORD PTR $T15[ebp], -9	; fffffff7H
  000b8	8d 4d d8	 lea	 ecx, DWORD PTR $T11[ebp]
  000bb	ff 25 00 00 00
	00		 jmp	 DWORD PTR __imp_??1?$CStringT@DV?$StrTraitMFC_DLL@DV?$ChTraitsCRT@D@ATL@@@@@ATL@@QAE@XZ
$LN61@Initialize:
  000c1	c3		 ret	 0
__unwindfunclet$?InitializeTRPart@CRealModuleCenter@@QAEXPAVCPacket@@0000@Z$7:
  000c2	68 c8 00 00 00	 push	 200			; 000000c8H
  000c7	8b 45 d0	 mov	 eax, DWORD PTR $T6[ebp]
  000ca	50		 push	 eax
  000cb	e8 00 00 00 00	 call	 ??3@YAXPAXI@Z		; operator delete
  000d0	83 c4 08	 add	 esp, 8
  000d3	c3		 ret	 0
__unwindfunclet$?InitializeTRPart@CRealModuleCenter@@QAEXPAVCPacket@@0000@Z$8:
  000d4	8b 45 dc	 mov	 eax, DWORD PTR $T15[ebp]
  000d7	83 e0 04	 and	 eax, 4
  000da	0f 84 0d 00 00
	00		 je	 $LN57@Initialize
  000e0	83 65 dc fb	 and	 DWORD PTR $T15[ebp], -5	; fffffffbH
  000e4	8d 4d d8	 lea	 ecx, DWORD PTR $T12[ebp]
  000e7	ff 25 00 00 00
	00		 jmp	 DWORD PTR __imp_??1?$CStringT@DV?$StrTraitMFC_DLL@DV?$ChTraitsCRT@D@ATL@@@@@ATL@@QAE@XZ
$LN57@Initialize:
  000ed	c3		 ret	 0
__unwindfunclet$?InitializeTRPart@CRealModuleCenter@@QAEXPAVCPacket@@0000@Z$13:
  000ee	68 b0 00 00 00	 push	 176			; 000000b0H
  000f3	8b 45 d0	 mov	 eax, DWORD PTR $T3[ebp]
  000f6	50		 push	 eax
  000f7	e8 00 00 00 00	 call	 ??3@YAXPAXI@Z		; operator delete
  000fc	83 c4 08	 add	 esp, 8
  000ff	c3		 ret	 0
__unwindfunclet$?InitializeTRPart@CRealModuleCenter@@QAEXPAVCPacket@@0000@Z$14:
  00100	8b 45 dc	 mov	 eax, DWORD PTR $T15[ebp]
  00103	83 e0 20	 and	 eax, 32			; 00000020H
  00106	0f 84 0d 00 00
	00		 je	 $LN69@Initialize
  0010c	83 65 dc df	 and	 DWORD PTR $T15[ebp], -33 ; ffffffdfH
  00110	8d 4d d8	 lea	 ecx, DWORD PTR $T9[ebp]
  00113	ff 25 00 00 00
	00		 jmp	 DWORD PTR __imp_??1?$CStringT@DV?$StrTraitMFC_DLL@DV?$ChTraitsCRT@D@ATL@@@@@ATL@@QAE@XZ
$LN69@Initialize:
  00119	c3		 ret	 0
  0011a	cc		 int	 3
  0011b	cc		 int	 3
  0011c	cc		 int	 3
  0011d	cc		 int	 3
  0011e	cc		 int	 3
__ehhandler$?InitializeTRPart@CRealModuleCenter@@QAEXPAVCPacket@@0000@Z:
  0011f	90		 npad	 1
  00120	90		 npad	 1
  00121	8b 54 24 08	 mov	 edx, DWORD PTR [esp+8]
  00125	8d 42 0c	 lea	 eax, DWORD PTR [edx+12]
  00128	8b 4a b8	 mov	 ecx, DWORD PTR [edx-72]
  0012b	33 c8		 xor	 ecx, eax
  0012d	e8 00 00 00 00	 call	 @__security_check_cookie@4
  00132	8b 4a fc	 mov	 ecx, DWORD PTR [edx-4]
  00135	33 c8		 xor	 ecx, eax
  00137	e8 00 00 00 00	 call	 @__security_check_cookie@4
  0013c	b8 00 00 00 00	 mov	 eax, OFFSET __ehfuncinfo$?InitializeTRPart@CRealModuleCenter@@QAEXPAVCPacket@@0000@Z
  00141	e9 00 00 00 00	 jmp	 ___CxxFrameHandler3
text$x	ENDS
?InitializeTRPart@CRealModuleCenter@@QAEXPAVCPacket@@0000@Z ENDP ; CRealModuleCenter::InitializeTRPart
; Function compile flags: /Ogtp
; File D:\git\src\IBK\IBK_DRFN\ProjSrc\SrcChartEx\ChartOCX\PacketData\RealModuleCenter.cpp
;	COMDAT ?InitializeHelpMessage@CRealModuleCenter@@QAEXXZ
_TEXT	SEGMENT
?InitializeHelpMessage@CRealModuleCenter@@QAEXXZ PROC	; CRealModuleCenter::InitializeHelpMessage, COMDAT
; _this$ = ecx

; 588  : {

  00000	56		 push	 esi
  00001	8b f1		 mov	 esi, ecx

; 589  : 	// (2009/11/16 - Seung-Won, Bae) Base Time of N-Minite
; 590  : 	m_nNewRangeStartTime = 0;

  00003	33 c0		 xor	 eax, eax

; 591  : 
; 592  : 	//0000603: FX 240                  
; 593  : 	if(CChartInfo::FX == m_nChartModeSetting)

  00005	b9 50 c3 00 00	 mov	 ecx, 50000		; 0000c350H

; 594  : 		m_nNewRangeStartTime = 50000;	//5 .
; 595  : 
; 596  : 	// (2009/10/19 - Seung-Won, Bae) Comment.    DTI
; 597  : 	m_nUpdateOrAppendIndex = -1;
; 598  : 
; 599  : 	// (2009/10/19 - Seung-Won, Bae) Comment.  Real  DTI Range?
; 600  : 	//		  CMainChartFormulateImplementation::GetDataPoint() .
; 601  : 	//			( range   start   .)
; 602  : 	m_ptUpdateRange = CPoint(-1, -1);
; 603  : 
; 604  : 	// (2009/10/19 - Seung-Won, Bae) Comment. Real Data  Logic Class.
; 605  : 	//		 RDC  . ER  RDC = 100 / ER      RDC  .
; 606  : 	m_realDataModule.SetRealDataModuleType( CRealDataModule::BASE_TYPE);

  0000a	6a 00		 push	 0
  0000c	83 7e 7c 02	 cmp	 DWORD PTR [esi+124], 2
  00010	c7 46 0c ff ff
	ff ff		 mov	 DWORD PTR [esi+12], -1
  00017	0f 44 c1	 cmove	 eax, ecx
  0001a	c7 46 10 ff ff
	ff ff		 mov	 DWORD PTR [esi+16], -1
  00021	8d 4e 18	 lea	 ecx, DWORD PTR [esi+24]
  00024	89 86 b0 00 00
	00		 mov	 DWORD PTR [esi+176], eax
  0002a	c7 46 14 ff ff
	ff ff		 mov	 DWORD PTR [esi+20], -1
  00031	e8 00 00 00 00	 call	 ?SetRealDataModuleType@CRealDataModule@@QAE_NW4REALDATAMODULETYPE@1@@Z ; CRealDataModule::SetRealDataModuleType

; 607  : 
; 608  : 	// (2009/10/20 - Seung-Won, Bae) N    Tick  ( UTEC  )
; 609  : 	m_nAddTimeInterval = 0;
; 610  : 
; 611  : 	// (2009/10/19 - Seung-Won, Bae) Comment. UD  () .
; 612  : 	//     
; 613  : 	m_eDateUnitType = CScaleBaseData::HORZ_DAILY;
; 614  : 
; 615  : 	// (2009/10/20 - Seung-Won, Bae) UT  1   UD .
; 616  : 	m_nTimeInterval = 1;
; 617  : 
; 618  : 	// (2009/10/20 - Seung-Won, Bae) Comment.     .
; 619  : 	//		 PC  .
; 620  : 	m_dateData.SetDate();

  00036	8d 4e 44	 lea	 ecx, DWORD PTR [esi+68]
  00039	c7 46 24 00 00
	00 00		 mov	 DWORD PTR [esi+36], 0
  00040	c7 46 28 01 00
	00 00		 mov	 DWORD PTR [esi+40], 1
  00047	c7 46 2c 01 00
	00 00		 mov	 DWORD PTR [esi+44], 1
  0004e	e8 00 00 00 00	 call	 ?SetDate@CDateData@@QAEXXZ ; CDateData::SetDate

; 621  : 
; 622  : 	// (2009/10/21 - Seung-Won, Bae) Comment.      ,
; 623  : 	//		  / . (?)
; 624  : 	m_nBasisTime = -1;

  00053	c7 46 6c ff ff
	ff ff		 mov	 DWORD PTR [esi+108], -1

; 625  : 
; 626  : 	// (2009/10/21 - Seung-Won, Bae) Comment. 1  0    Type .
; 627  : 	m_nMarketDayType = CPacketType::TODAY_ONLY;	//20081029 JS.Kim
; 628  : 
; 629  : 	// (2009/11/16 - Seung-Won, Bae) Check for Market Days
; 630  : 	m_strMarketDayInfo.Empty();

  0005a	8d 8e b4 00 00
	00		 lea	 ecx, DWORD PTR [esi+180]
  00060	c7 46 70 00 00
	00 00		 mov	 DWORD PTR [esi+112], 0
  00067	5e		 pop	 esi
  00068	ff 25 00 00 00
	00		 jmp	 DWORD PTR __imp_?Empty@?$CSimpleStringT@D$00@ATL@@QAEXXZ
?InitializeHelpMessage@CRealModuleCenter@@QAEXXZ ENDP	; CRealModuleCenter::InitializeHelpMessage
_TEXT	ENDS
; Function compile flags: /Ogtp
; File D:\git\src\IBK\IBK_DRFN\ProjSrc\SrcChartEx\ChartOCX\PacketData\RealModuleCenter.cpp
;	COMDAT ?SetRealTimeType@CRealModuleCenter@@QAEXABV?$CStringT@DV?$StrTraitMFC_DLL@DV?$ChTraitsCRT@D@ATL@@@@@ATL@@@Z
_TEXT	SEGMENT
_strData$ = 8						; size = 4
?SetRealTimeType@CRealModuleCenter@@QAEXABV?$CStringT@DV?$StrTraitMFC_DLL@DV?$ChTraitsCRT@D@ATL@@@@@ATL@@@Z PROC ; CRealModuleCenter::SetRealTimeType, COMDAT
; _this$ = ecx

; 580  : {

  00000	55		 push	 ebp
  00001	8b ec		 mov	 ebp, esp

; 581  : 	m_strRealTimeType = strData;

  00003	83 c1 74	 add	 ecx, 116		; 00000074H

; 582  : }

  00006	5d		 pop	 ebp

; 581  : 	m_strRealTimeType = strData;

  00007	ff 25 00 00 00
	00		 jmp	 DWORD PTR __imp_??4?$CStringT@DV?$StrTraitMFC_DLL@DV?$ChTraitsCRT@D@ATL@@@@@ATL@@QAEAAV01@ABV01@@Z
?SetRealTimeType@CRealModuleCenter@@QAEXABV?$CStringT@DV?$StrTraitMFC_DLL@DV?$ChTraitsCRT@D@ATL@@@@@ATL@@@Z ENDP ; CRealModuleCenter::SetRealTimeType
_TEXT	ENDS
; Function compile flags: /Ogtp
; File D:\git\src\IBK\IBK_DRFN\ProjSrc\SrcChartEx\ChartOCX\PacketData\RealModuleCenter.cpp
;	COMDAT ?GetMarketDayType@CRealModuleCenter@@QAE?AW4MARKETDAYTYPE@CPacketType@@XZ
_TEXT	SEGMENT
?GetMarketDayType@CRealModuleCenter@@QAE?AW4MARKETDAYTYPE@CPacketType@@XZ PROC ; CRealModuleCenter::GetMarketDayType, COMDAT
; _this$ = ecx

; 572  : 	return m_nMarketDayType;

  00000	8b 41 70	 mov	 eax, DWORD PTR [ecx+112]

; 573  : }

  00003	c3		 ret	 0
?GetMarketDayType@CRealModuleCenter@@QAE?AW4MARKETDAYTYPE@CPacketType@@XZ ENDP ; CRealModuleCenter::GetMarketDayType
_TEXT	ENDS
; Function compile flags: /Ogtp
; File D:\git\src\IBK\IBK_DRFN\ProjSrc\SrcChartEx\ChartOCX\PacketData\RealModuleCenter.cpp
;	COMDAT ?GetCurrDateTime@CRealModuleCenter@@QBE_JXZ
_TEXT	SEGMENT
?GetCurrDateTime@CRealModuleCenter@@QBE_JXZ PROC	; CRealModuleCenter::GetCurrDateTime, COMDAT
; _this$ = ecx

; 562  : {

  00000	57		 push	 edi

; 563  : 	if( m_nBasisTime < 0) return -1;

  00001	8b 79 6c	 mov	 edi, DWORD PTR [ecx+108]
  00004	85 ff		 test	 edi, edi
  00006	79 07		 jns	 SHORT $LN2@GetCurrDat
  00008	83 c8 ff	 or	 eax, -1
  0000b	0b d0		 or	 edx, eax
  0000d	5f		 pop	 edi

; 566  : }

  0000e	c3		 ret	 0
$LN2@GetCurrDat:

; 564  : 
; 565  : 	return (__int64)m_dateData.GetFullDate() * 1000000 + (__int64)m_nBasisTime;

  0000f	8b 41 48	 mov	 eax, DWORD PTR [ecx+72]
  00012	b9 40 42 0f 00	 mov	 ecx, 1000000		; 000f4240H
  00017	f7 e9		 imul	 ecx
  00019	56		 push	 esi
  0001a	8b c8		 mov	 ecx, eax
  0001c	8b f2		 mov	 esi, edx
  0001e	8b c7		 mov	 eax, edi
  00020	99		 cdq
  00021	03 c1		 add	 eax, ecx
  00023	13 d6		 adc	 edx, esi
  00025	5e		 pop	 esi
  00026	5f		 pop	 edi

; 566  : }

  00027	c3		 ret	 0
?GetCurrDateTime@CRealModuleCenter@@QBE_JXZ ENDP	; CRealModuleCenter::GetCurrDateTime
_TEXT	ENDS
; Function compile flags: /Ogtp
; File D:\git\src\IBK\IBK_DRFN\ProjSrc\SrcChartEx\ChartOCX\PacketData\RealModuleCenter.cpp
; File C:\Program Files (x86)\Microsoft Visual Studio\2019\Community\VC\Tools\MSVC\14.29.30133\atlmfc\include\atlsimpstr.h
; File D:\git\src\IBK\IBK_DRFN\ProjSrc\SrcChartEx\ChartOCX\PacketData\RealModuleCenter.cpp
; File C:\Program Files (x86)\Microsoft Visual Studio\2019\Community\VC\Tools\MSVC\14.29.30133\atlmfc\include\atlsimpstr.h
; File D:\git\src\IBK\IBK_DRFN\ProjSrc\SrcChartEx\ChartOCX\PacketData\RealModuleCenter.cpp
; File C:\Program Files (x86)\Microsoft Visual Studio\2019\Community\VC\Tools\MSVC\14.29.30133\atlmfc\include\atlsimpstr.h
; File D:\git\src\IBK\IBK_DRFN\ProjSrc\SrcChartEx\ChartOCX\PacketData\RealModuleCenter.cpp
;	COMDAT ?SetCurrDateTime@CRealModuleCenter@@QAEXABV?$CStringT@DV?$StrTraitMFC_DLL@DV?$ChTraitsCRT@D@ATL@@@@@ATL@@@Z
_TEXT	SEGMENT
$T2 = -36						; size = 4
$T3 = -36						; size = 4
_st$4 = -32						; size = 16
__$ArrayPad$ = -16					; size = 4
__$EHRec$ = -12						; size = 12
_strData$ = 8						; size = 4
?SetCurrDateTime@CRealModuleCenter@@QAEXABV?$CStringT@DV?$StrTraitMFC_DLL@DV?$ChTraitsCRT@D@ATL@@@@@ATL@@@Z PROC ; CRealModuleCenter::SetCurrDateTime, COMDAT
; _this$ = ecx

; 515  : {

  00000	55		 push	 ebp
  00001	8b ec		 mov	 ebp, esp
  00003	6a ff		 push	 -1
  00005	68 00 00 00 00	 push	 __ehhandler$?SetCurrDateTime@CRealModuleCenter@@QAEXABV?$CStringT@DV?$StrTraitMFC_DLL@DV?$ChTraitsCRT@D@ATL@@@@@ATL@@@Z
  0000a	64 a1 00 00 00
	00		 mov	 eax, DWORD PTR fs:0
  00010	50		 push	 eax
  00011	83 ec 18	 sub	 esp, 24			; 00000018H
  00014	a1 00 00 00 00	 mov	 eax, DWORD PTR ___security_cookie
  00019	33 c5		 xor	 eax, ebp
  0001b	89 45 f0	 mov	 DWORD PTR __$ArrayPad$[ebp], eax
  0001e	53		 push	 ebx
  0001f	56		 push	 esi
  00020	57		 push	 edi
  00021	50		 push	 eax
  00022	8d 45 f4	 lea	 eax, DWORD PTR __$EHRec$[ebp]
  00025	64 a3 00 00 00
	00		 mov	 DWORD PTR fs:0, eax
  0002b	8b f9		 mov	 edi, ecx
  0002d	8b 75 08	 mov	 esi, DWORD PTR _strData$[ebp]
; File C:\Program Files (x86)\Microsoft Visual Studio\2019\Community\VC\Tools\MSVC\14.29.30133\atlmfc\include\atlsimpstr.h

; 519  : 		return( GetData()->nDataLength );

  00030	8b 06		 mov	 eax, DWORD PTR [esi]
  00032	8b 40 f4	 mov	 eax, DWORD PTR [eax-12]

; 533  : 		return( GetLength() == 0 );

  00035	85 c0		 test	 eax, eax
; File D:\git\src\IBK\IBK_DRFN\ProjSrc\SrcChartEx\ChartOCX\PacketData\RealModuleCenter.cpp

; 516  : 	if( strData.IsEmpty() )	return;

  00037	0f 84 46 01 00
	00		 je	 $LN5@SetCurrDat

; 517  : 
; 518  : 	if( strData.GetLength() > 8 )

  0003d	83 f8 08	 cmp	 eax, 8
  00040	7e 25		 jle	 SHORT $LN3@SetCurrDat

; 519  : 		m_nBasisTime = atoi(strData.Mid(8));

  00042	6a 08		 push	 8
  00044	8d 45 dc	 lea	 eax, DWORD PTR $T3[ebp]
  00047	8b ce		 mov	 ecx, esi
  00049	50		 push	 eax
  0004a	ff 15 00 00 00
	00		 call	 DWORD PTR __imp_?Mid@?$CStringT@DV?$StrTraitMFC_DLL@DV?$ChTraitsCRT@D@ATL@@@@@ATL@@QBE?AV12@H@Z
  00050	ff 30		 push	 DWORD PTR [eax]
  00052	ff 15 00 00 00
	00		 call	 DWORD PTR __imp__atoi
  00058	83 c4 04	 add	 esp, 4
  0005b	89 47 6c	 mov	 DWORD PTR [edi+108], eax
  0005e	8d 4d dc	 lea	 ecx, DWORD PTR $T3[ebp]
  00061	ff 15 00 00 00
	00		 call	 DWORD PTR __imp_??1?$CStringT@DV?$StrTraitMFC_DLL@DV?$ChTraitsCRT@D@ATL@@@@@ATL@@QAE@XZ
$LN3@SetCurrDat:

; 527  : 	SetCurrentDate(strData.Left(8));

  00067	6a 08		 push	 8
  00069	8d 45 dc	 lea	 eax, DWORD PTR $T2[ebp]
  0006c	8b ce		 mov	 ecx, esi
  0006e	50		 push	 eax
  0006f	ff 15 00 00 00
	00		 call	 DWORD PTR __imp_?Left@?$CStringT@DV?$StrTraitMFC_DLL@DV?$ChTraitsCRT@D@ATL@@@@@ATL@@QBE?AV12@H@Z
; File C:\Program Files (x86)\Microsoft Visual Studio\2019\Community\VC\Tools\MSVC\14.29.30133\atlmfc\include\atlsimpstr.h

; 519  : 		return( GetData()->nDataLength );

  00075	8b 08		 mov	 ecx, DWORD PTR [eax]
; File D:\git\src\IBK\IBK_DRFN\ProjSrc\SrcChartEx\ChartOCX\PacketData\RealModuleCenter.cpp

; 527  : 	SetCurrentDate(strData.Left(8));

  00077	c7 45 fc 00 00
	00 00		 mov	 DWORD PTR __$EHRec$[ebp+8], 0
; File C:\Program Files (x86)\Microsoft Visual Studio\2019\Community\VC\Tools\MSVC\14.29.30133\atlmfc\include\atlsimpstr.h

; 533  : 		return( GetLength() == 0 );

  0007e	83 79 f4 00	 cmp	 DWORD PTR [ecx-12], 0
; File D:\git\src\IBK\IBK_DRFN\ProjSrc\SrcChartEx\ChartOCX\PacketData\RealModuleCenter.cpp

; 455  : 	if( strData.IsEmpty())	m_dateData.SetDate();	// PC  .

  00082	8d 4f 44	 lea	 ecx, DWORD PTR [edi+68]
  00085	75 07		 jne	 SHORT $LN23@SetCurrDat
  00087	e8 00 00 00 00	 call	 ?SetDate@CDateData@@QAEXXZ ; CDateData::SetDate
  0008c	eb 06		 jmp	 SHORT $LN24@SetCurrDat
$LN23@SetCurrDat:

; 456  : 	else					m_dateData.SetDate(strData);

  0008e	50		 push	 eax
  0008f	e8 00 00 00 00	 call	 ?SetDate@CDateData@@QAEXABV?$CStringT@DV?$StrTraitMFC_DLL@DV?$ChTraitsCRT@D@ATL@@@@@ATL@@@Z ; CDateData::SetDate
$LN24@SetCurrDat:

; 527  : 	SetCurrentDate(strData.Left(8));

  00094	8d 4d dc	 lea	 ecx, DWORD PTR $T2[ebp]
  00097	c7 45 fc ff ff
	ff ff		 mov	 DWORD PTR __$EHRec$[ebp+8], -1
  0009e	ff 15 00 00 00
	00		 call	 DWORD PTR __imp_??1?$CStringT@DV?$StrTraitMFC_DLL@DV?$ChTraitsCRT@D@ATL@@@@@ATL@@QAE@XZ

; 528  : 
; 529  : 	//>>20100222_JS.Kim		==>  CRealModuleCenter::InitializeTRPart() Call   .
; 530  : 	m_nLastRealTime = -1;
; 531  : 	if( 0 <= m_nBasisTime) SetLastRealTime( (__int64)m_dateData.GetFullDate() * 1000000 + (__int64)m_nBasisTime);

  000a4	8b 5f 6c	 mov	 ebx, DWORD PTR [edi+108]
  000a7	c7 87 98 00 00
	00 ff ff ff ff	 mov	 DWORD PTR [edi+152], -1
  000b1	c7 87 9c 00 00
	00 ff ff ff ff	 mov	 DWORD PTR [edi+156], -1
  000bb	85 db		 test	 ebx, ebx
  000bd	78 3e		 js	 SHORT $LN4@SetCurrDat

; 795  : 	m_nLastClockTime = m_nClock;

  000bf	8b 8f 88 00 00
	00		 mov	 ecx, DWORD PTR [edi+136]
  000c5	8b 97 8c 00 00
	00		 mov	 edx, DWORD PTR [edi+140]

; 528  : 
; 529  : 	//>>20100222_JS.Kim		==>  CRealModuleCenter::InitializeTRPart() Call   .
; 530  : 	m_nLastRealTime = -1;
; 531  : 	if( 0 <= m_nBasisTime) SetLastRealTime( (__int64)m_dateData.GetFullDate() * 1000000 + (__int64)m_nBasisTime);

  000cb	8b 47 48	 mov	 eax, DWORD PTR [edi+72]

; 795  : 	m_nLastClockTime = m_nClock;

  000ce	89 8f 90 00 00
	00		 mov	 DWORD PTR [edi+144], ecx

; 528  : 
; 529  : 	//>>20100222_JS.Kim		==>  CRealModuleCenter::InitializeTRPart() Call   .
; 530  : 	m_nLastRealTime = -1;
; 531  : 	if( 0 <= m_nBasisTime) SetLastRealTime( (__int64)m_dateData.GetFullDate() * 1000000 + (__int64)m_nBasisTime);

  000d4	b9 40 42 0f 00	 mov	 ecx, 1000000		; 000f4240H

; 795  : 	m_nLastClockTime = m_nClock;

  000d9	89 97 94 00 00
	00		 mov	 DWORD PTR [edi+148], edx

; 528  : 
; 529  : 	//>>20100222_JS.Kim		==>  CRealModuleCenter::InitializeTRPart() Call   .
; 530  : 	m_nLastRealTime = -1;
; 531  : 	if( 0 <= m_nBasisTime) SetLastRealTime( (__int64)m_dateData.GetFullDate() * 1000000 + (__int64)m_nBasisTime);

  000df	f7 e9		 imul	 ecx
  000e1	8b c8		 mov	 ecx, eax
  000e3	8b f2		 mov	 esi, edx
  000e5	8b c3		 mov	 eax, ebx
  000e7	99		 cdq
  000e8	03 c8		 add	 ecx, eax

; 796  : 	m_nLastRealTime = p_nRealTime;

  000ea	89 8f 98 00 00
	00		 mov	 DWORD PTR [edi+152], ecx

; 528  : 
; 529  : 	//>>20100222_JS.Kim		==>  CRealModuleCenter::InitializeTRPart() Call   .
; 530  : 	m_nLastRealTime = -1;
; 531  : 	if( 0 <= m_nBasisTime) SetLastRealTime( (__int64)m_dateData.GetFullDate() * 1000000 + (__int64)m_nBasisTime);

  000f0	13 f2		 adc	 esi, edx

; 796  : 	m_nLastRealTime = p_nRealTime;

  000f2	89 b7 9c 00 00
	00		 mov	 DWORD PTR [edi+156], esi

; 528  : 
; 529  : 	//>>20100222_JS.Kim		==>  CRealModuleCenter::InitializeTRPart() Call   .
; 530  : 	m_nLastRealTime = -1;
; 531  : 	if( 0 <= m_nBasisTime) SetLastRealTime( (__int64)m_dateData.GetFullDate() * 1000000 + (__int64)m_nBasisTime);

  000f8	e9 86 00 00 00	 jmp	 $LN5@SetCurrDat
$LN4@SetCurrDat:

; 532  : 	else
; 533  : 	{
; 534  : 		SYSTEMTIME st;
; 535  : 		GetLocalTime( &st);

  000fd	8d 45 e0	 lea	 eax, DWORD PTR _st$4[ebp]
  00100	50		 push	 eax
  00101	ff 15 00 00 00
	00		 call	 DWORD PTR __imp__GetLocalTime@4

; 536  : 		__int64 nLocalTime = (__int64)m_dateData.GetFullDate() * 1000000 + st.wHour * 10000 + st.wMinute * 100 + st.wSecond;

  00107	0f b7 45 e8	 movzx	 eax, WORD PTR _st$4[ebp+8]
  0010b	33 c9		 xor	 ecx, ecx
  0010d	69 d8 10 27 00
	00		 imul	 ebx, eax, 10000
  00113	ba 40 42 0f 00	 mov	 edx, 1000000		; 000f4240H
  00118	0f b7 45 ea	 movzx	 eax, WORD PTR _st$4[ebp+10]
  0011c	6b c0 64	 imul	 eax, eax, 100
  0011f	03 d8		 add	 ebx, eax
  00121	8b 47 48	 mov	 eax, DWORD PTR [edi+72]
  00124	13 c9		 adc	 ecx, ecx
  00126	f7 ea		 imul	 edx
  00128	03 d8		 add	 ebx, eax
  0012a	0f b7 45 ec	 movzx	 eax, WORD PTR _st$4[ebp+12]
  0012e	13 ca		 adc	 ecx, edx
  00130	99		 cdq
  00131	03 d8		 add	 ebx, eax
  00133	13 ca		 adc	 ecx, edx

; 537  : 		if( CChartInfo::WORLD_ON == m_nChartModeSetting)

  00135	83 7f 7c 03	 cmp	 DWORD PTR [edi+124], 3
  00139	75 22		 jne	 SHORT $LN36@SetCurrDat

; 538  : 			nLocalTime = CDataConversion::CalcTimeSum( nLocalTime, ( m_nOrgBaseTimeDiff - 9) * 10000);

  0013b	8b 87 80 00 00
	00		 mov	 eax, DWORD PTR [edi+128]
  00141	83 e8 09	 sub	 eax, 9
  00144	69 c0 10 27 00
	00		 imul	 eax, eax, 10000
  0014a	6a 00		 push	 0
  0014c	99		 cdq
  0014d	52		 push	 edx
  0014e	50		 push	 eax
  0014f	51		 push	 ecx
  00150	53		 push	 ebx
  00151	e8 00 00 00 00	 call	 ?CalcTimeSum@CDataConversion@@SA_J_J0H@Z ; CDataConversion::CalcTimeSum
  00156	83 c4 14	 add	 esp, 20			; 00000014H
  00159	8b d8		 mov	 ebx, eax
  0015b	eb 02		 jmp	 SHORT $LN6@SetCurrDat
$LN36@SetCurrDat:

; 537  : 		if( CChartInfo::WORLD_ON == m_nChartModeSetting)

  0015d	8b d1		 mov	 edx, ecx
$LN6@SetCurrDat:

; 795  : 	m_nLastClockTime = m_nClock;

  0015f	8b 8f 88 00 00
	00		 mov	 ecx, DWORD PTR [edi+136]
  00165	8b b7 8c 00 00
	00		 mov	 esi, DWORD PTR [edi+140]
  0016b	89 8f 90 00 00
	00		 mov	 DWORD PTR [edi+144], ecx
  00171	89 b7 94 00 00
	00		 mov	 DWORD PTR [edi+148], esi

; 796  : 	m_nLastRealTime = p_nRealTime;

  00177	89 9f 98 00 00
	00		 mov	 DWORD PTR [edi+152], ebx
  0017d	89 97 9c 00 00
	00		 mov	 DWORD PTR [edi+156], edx
$LN5@SetCurrDat:

; 539  : 		SetLastRealTime( nLocalTime);
; 540  : 	}
; 541  : 	//<<
; 542  : // 	if( strData.GetLength() > 8 )
; 543  : // 	{
; 544  : // 		// vntsorl:[0000684]   200  19    
; 545  : // 		m_nBasisTime = atoi(strData.Mid(8));
; 546  : // 		
; 547  : // 		if((m_eRealType == CPacketType::CEILING || m_eRealType == CPacketType::CEILING2) && 
; 548  : // 			m_nTimeInterval > 1)
; 549  : // 		{
; 550  : // 			int nTimeDiff = (m_nTimeInterval / 100) * 10000 + (m_nTimeInterval % 100) * 100 - 1;
; 551  : // 			m_nBasisTime -= nTimeDiff;
; 552  : // 			if( m_nBasisTime < 0)
; 553  : // 				m_nBasisTime = 0;
; 554  : // 		}
; 555  : // 	}
; 556  : // 	
; 557  : // 	SetCurrentDate(strData.Left(8));
; 558  : 
; 559  : }

  00183	8b 4d f4	 mov	 ecx, DWORD PTR __$EHRec$[ebp]
  00186	64 89 0d 00 00
	00 00		 mov	 DWORD PTR fs:0, ecx
  0018d	59		 pop	 ecx
  0018e	5f		 pop	 edi
  0018f	5e		 pop	 esi
  00190	5b		 pop	 ebx
  00191	8b 4d f0	 mov	 ecx, DWORD PTR __$ArrayPad$[ebp]
  00194	33 cd		 xor	 ecx, ebp
  00196	e8 00 00 00 00	 call	 @__security_check_cookie@4
  0019b	8b e5		 mov	 esp, ebp
  0019d	5d		 pop	 ebp
  0019e	c2 04 00	 ret	 4
_TEXT	ENDS
;	COMDAT text$x
text$x	SEGMENT
__unwindfunclet$?SetCurrDateTime@CRealModuleCenter@@QAEXABV?$CStringT@DV?$StrTraitMFC_DLL@DV?$ChTraitsCRT@D@ATL@@@@@ATL@@@Z$1:
  00000	8d 4d dc	 lea	 ecx, DWORD PTR $T2[ebp]
  00003	ff 25 00 00 00
	00		 jmp	 DWORD PTR __imp_??1?$CStringT@DV?$StrTraitMFC_DLL@DV?$ChTraitsCRT@D@ATL@@@@@ATL@@QAE@XZ
  00009	cc		 int	 3
  0000a	cc		 int	 3
  0000b	cc		 int	 3
  0000c	cc		 int	 3
  0000d	cc		 int	 3
__ehhandler$?SetCurrDateTime@CRealModuleCenter@@QAEXABV?$CStringT@DV?$StrTraitMFC_DLL@DV?$ChTraitsCRT@D@ATL@@@@@ATL@@@Z:
  0000e	90		 npad	 1
  0000f	90		 npad	 1
  00010	8b 54 24 08	 mov	 edx, DWORD PTR [esp+8]
  00014	8d 42 0c	 lea	 eax, DWORD PTR [edx+12]
  00017	8b 4a d8	 mov	 ecx, DWORD PTR [edx-40]
  0001a	33 c8		 xor	 ecx, eax
  0001c	e8 00 00 00 00	 call	 @__security_check_cookie@4
  00021	8b 4a fc	 mov	 ecx, DWORD PTR [edx-4]
  00024	33 c8		 xor	 ecx, eax
  00026	e8 00 00 00 00	 call	 @__security_check_cookie@4
  0002b	b8 00 00 00 00	 mov	 eax, OFFSET __ehfuncinfo$?SetCurrDateTime@CRealModuleCenter@@QAEXABV?$CStringT@DV?$StrTraitMFC_DLL@DV?$ChTraitsCRT@D@ATL@@@@@ATL@@@Z
  00030	e9 00 00 00 00	 jmp	 ___CxxFrameHandler3
text$x	ENDS
?SetCurrDateTime@CRealModuleCenter@@QAEXABV?$CStringT@DV?$StrTraitMFC_DLL@DV?$ChTraitsCRT@D@ATL@@@@@ATL@@@Z ENDP ; CRealModuleCenter::SetCurrDateTime
; Function compile flags: /Ogtp
; File D:\git\src\IBK\IBK_DRFN\ProjSrc\SrcChartEx\ChartOCX\PacketData\RealModuleCenter.cpp
;	COMDAT ?GetStartTimeInTimeRangeOfLastData@CRealModuleCenter@@QAE_JXZ
_TEXT	SEGMENT
?GetStartTimeInTimeRangeOfLastData@CRealModuleCenter@@QAE_JXZ PROC ; CRealModuleCenter::GetStartTimeInTimeRangeOfLastData, COMDAT
; _this$ = ecx

; 505  : 	if( !m_pTimeRealDataModule) return -1;

  00000	8b 49 68	 mov	 ecx, DWORD PTR [ecx+104]
  00003	85 c9		 test	 ecx, ecx
  00005	75 06		 jne	 SHORT $LN2@GetStartTi
  00007	83 c8 ff	 or	 eax, -1
  0000a	0b d0		 or	 edx, eax

; 507  : }

  0000c	c3		 ret	 0
$LN2@GetStartTi:

; 506  : 	return m_pTimeRealDataModule->GetTimeRangeStartWithPacketType();

  0000d	8b 01		 mov	 eax, DWORD PTR [ecx]
  0000f	8b 40 0c	 mov	 eax, DWORD PTR [eax+12]
  00012	ff e0		 jmp	 eax
?GetStartTimeInTimeRangeOfLastData@CRealModuleCenter@@QAE_JXZ ENDP ; CRealModuleCenter::GetStartTimeInTimeRangeOfLastData
_TEXT	ENDS
; Function compile flags: /Ogtp
; File D:\git\src\IBK\IBK_DRFN\ProjSrc\SrcChartEx\ChartOCX\PacketData\RealModuleCenter.cpp
;	COMDAT ?GetRealType@CRealModuleCenter@@QBE?AW4REALTYPE@CPacketType@@XZ
_TEXT	SEGMENT
?GetRealType@CRealModuleCenter@@QBE?AW4REALTYPE@CPacketType@@XZ PROC ; CRealModuleCenter::GetRealType, COMDAT
; _this$ = ecx

; 500  : 	return m_eRealType;

  00000	8b 41 78	 mov	 eax, DWORD PTR [ecx+120]

; 501  : }

  00003	c3		 ret	 0
?GetRealType@CRealModuleCenter@@QBE?AW4REALTYPE@CPacketType@@XZ ENDP ; CRealModuleCenter::GetRealType
_TEXT	ENDS
; Function compile flags: /Ogtp
; File D:\git\src\IBK\IBK_DRFN\ProjSrc\SrcChartEx\ChartOCX\PacketData\RealModuleCenter.cpp
; File D:\git\src\IBK\IBK_DRFN\ProjSrc\SrcChartEx\ChartOCX\PacketData\PacketBaseData.h
; File D:\git\src\IBK\IBK_DRFN\ProjSrc\SrcChartEx\ChartOCX\PacketData\RealModuleCenter.cpp
;	COMDAT ?GetRealData_RealDateTime@CRealModuleCenter@@QBEXAAN@Z
_TEXT	SEGMENT
tv197 = -8						; size = 4
_nMarketEndTime$ = -4					; size = 4
_nMarketStartTime$ = 8					; size = 4
_p_dData$ = 8						; size = 4
?GetRealData_RealDateTime@CRealModuleCenter@@QBEXAAN@Z PROC ; CRealModuleCenter::GetRealData_RealDateTime, COMDAT
; _this$ = ecx

; 768  : {

  00000	55		 push	 ebp
  00001	8b ec		 mov	 ebp, esp

; 769  : 	// (2009/12/11 - Seung-Won, Bae) for No Date Real Time.
; 770  : 	if( p_dData < 1000000) return;

  00003	f2 0f 10 05 00
	00 00 00	 movsd	 xmm0, QWORD PTR __real@412e848000000000
  0000b	83 ec 08	 sub	 esp, 8
  0000e	53		 push	 ebx
  0000f	8b 5d 08	 mov	 ebx, DWORD PTR _p_dData$[ebp]
  00012	66 0f 2f 03	 comisd	 xmm0, QWORD PTR [ebx]
  00016	0f 87 8b 00 00
	00		 ja	 $LN1@GetRealDat

; 772  : 	if( !m_marketTimeData.IsReverseTime()) return;

  0001c	56		 push	 esi
  0001d	57		 push	 edi
  0001e	8d 79 58	 lea	 edi, DWORD PTR [ecx+88]
; File D:\git\src\IBK\IBK_DRFN\ProjSrc\SrcChartEx\ChartOCX\PacketData\PacketBaseData.h

; 123  : 	bool	IsReverseTime( void) const		{	return m_endTime.GetTimeFromServer() <= m_startTime.GetTimeFromServer();		}

  00021	8d 4f 08	 lea	 ecx, DWORD PTR [edi+8]
  00024	e8 00 00 00 00	 call	 ?GetTimeFromServer@CTimeData@@QBEHXZ ; CTimeData::GetTimeFromServer
  00029	8b cf		 mov	 ecx, edi
  0002b	8b f0		 mov	 esi, eax
  0002d	e8 00 00 00 00	 call	 ?GetTimeFromServer@CTimeData@@QBEHXZ ; CTimeData::GetTimeFromServer
  00032	3b f0		 cmp	 esi, eax
; File D:\git\src\IBK\IBK_DRFN\ProjSrc\SrcChartEx\ChartOCX\PacketData\RealModuleCenter.cpp

; 772  : 	if( !m_marketTimeData.IsReverseTime()) return;

  00034	7f 6f		 jg	 SHORT $LN10@GetRealDat

; 773  : 
; 774  : 	// X ScaleManager   Scale   / .
; 775  : 	int nMarketStartTime = -1, nMarketEndTime = -1;
; 776  : 	if( !m_marketTimeData.GetMarketTime( nMarketStartTime, nMarketEndTime)) return;

  00036	8d 45 fc	 lea	 eax, DWORD PTR _nMarketEndTime$[ebp]
  00039	c7 45 08 ff ff
	ff ff		 mov	 DWORD PTR _nMarketStartTime$[ebp], -1
  00040	50		 push	 eax
  00041	8d 45 08	 lea	 eax, DWORD PTR _nMarketStartTime$[ebp]
  00044	c7 45 fc ff ff
	ff ff		 mov	 DWORD PTR _nMarketEndTime$[ebp], -1
  0004b	50		 push	 eax
  0004c	8b cf		 mov	 ecx, edi
  0004e	e8 00 00 00 00	 call	 ?GetMarketTime@CMarketTimeData@@QBE_NAAH0@Z ; CMarketTimeData::GetMarketTime
  00053	84 c0		 test	 al, al
  00055	74 4e		 je	 SHORT $LN10@GetRealDat

; 777  : 
; 778  : 	if( __int64( p_dData) % 1000000 < nMarketStartTime) return;

  00057	f2 0f 10 03	 movsd	 xmm0, QWORD PTR [ebx]
  0005b	e8 00 00 00 00	 call	 __dtol3
  00060	6a 00		 push	 0
  00062	68 40 42 0f 00	 push	 1000000			; 000f4240H
  00067	8b fa		 mov	 edi, edx
  00069	89 45 f8	 mov	 DWORD PTR tv197[ebp], eax
  0006c	57		 push	 edi
  0006d	50		 push	 eax
  0006e	e8 00 00 00 00	 call	 __allrem
  00073	8b f0		 mov	 esi, eax
  00075	8b ca		 mov	 ecx, edx
  00077	8b 45 08	 mov	 eax, DWORD PTR _nMarketStartTime$[ebp]
  0007a	99		 cdq
  0007b	3b ca		 cmp	 ecx, edx
  0007d	7c 26		 jl	 SHORT $LN10@GetRealDat
  0007f	7f 04		 jg	 SHORT $LN9@GetRealDat
  00081	3b f0		 cmp	 esi, eax
  00083	72 20		 jb	 SHORT $LN10@GetRealDat
$LN9@GetRealDat:

; 779  : 	p_dData = ( double)CDataConversion::CalcTimeSum( ( __int64)p_dData, -1000000);

  00085	6a 00		 push	 0
  00087	6a ff		 push	 -1
  00089	68 c0 bd f0 ff	 push	 -1000000		; fff0bdc0H
  0008e	57		 push	 edi
  0008f	ff 75 f8	 push	 DWORD PTR tv197[ebp]
  00092	e8 00 00 00 00	 call	 ?CalcTimeSum@CDataConversion@@SA_J_J0H@Z ; CDataConversion::CalcTimeSum
  00097	83 c4 14	 add	 esp, 20			; 00000014H
  0009a	8b c8		 mov	 ecx, eax
  0009c	e8 00 00 00 00	 call	 __ltod3
  000a1	f2 0f 11 03	 movsd	 QWORD PTR [ebx], xmm0
$LN10@GetRealDat:
  000a5	5f		 pop	 edi
  000a6	5e		 pop	 esi
$LN1@GetRealDat:
  000a7	5b		 pop	 ebx

; 780  : }

  000a8	8b e5		 mov	 esp, ebp
  000aa	5d		 pop	 ebp
  000ab	c2 04 00	 ret	 4
?GetRealData_RealDateTime@CRealModuleCenter@@QBEXAAN@Z ENDP ; CRealModuleCenter::GetRealData_RealDateTime
_TEXT	ENDS
; Function compile flags: /Ogtp
; File D:\git\src\IBK\IBK_DRFN\ProjSrc\SrcChartEx\ChartOCX\PacketData\RealModuleCenter.cpp
;	COMDAT ?GetMarketTime@CRealModuleCenter@@QBE_NAAH0@Z
_TEXT	SEGMENT
_nMarketStartTime$ = 8					; size = 4
_nMarketEndTime$ = 12					; size = 4
?GetMarketTime@CRealModuleCenter@@QBE_NAAH0@Z PROC	; CRealModuleCenter::GetMarketTime, COMDAT
; _this$ = ecx

; 491  : {

  00000	55		 push	 ebp
  00001	8b ec		 mov	 ebp, esp

; 492  : 	return m_marketTimeData.GetMarketTime(nMarketStartTime, nMarketEndTime);

  00003	83 c1 58	 add	 ecx, 88			; 00000058H

; 493  : }

  00006	5d		 pop	 ebp

; 492  : 	return m_marketTimeData.GetMarketTime(nMarketStartTime, nMarketEndTime);

  00007	e9 00 00 00 00	 jmp	 ?GetMarketTime@CMarketTimeData@@QBE_NAAH0@Z ; CMarketTimeData::GetMarketTime
?GetMarketTime@CRealModuleCenter@@QBE_NAAH0@Z ENDP	; CRealModuleCenter::GetMarketTime
_TEXT	ENDS
; Function compile flags: /Ogtp
; File D:\git\src\IBK\IBK_DRFN\ProjSrc\SrcChartEx\ChartOCX\PacketData\RealModuleCenter.cpp
; File C:\Program Files (x86)\Microsoft Visual Studio\2019\Community\VC\Tools\MSVC\14.29.30133\atlmfc\include\atlsimpstr.h
; File D:\git\src\IBK\IBK_DRFN\ProjSrc\SrcChartEx\ChartOCX\PacketData\RealModuleCenter.cpp
; File C:\Program Files (x86)\Microsoft Visual Studio\2019\Community\VC\Tools\MSVC\14.29.30133\atlmfc\include\atlsimpstr.h
; File D:\git\src\IBK\IBK_DRFN\ProjSrc\SrcChartEx\ChartOCX\PacketData\RealModuleCenter.cpp
;	COMDAT ?SetMarketTime@CRealModuleCenter@@QAEXABV?$CStringT@DV?$StrTraitMFC_DLL@DV?$ChTraitsCRT@D@ATL@@@@@ATL@@@Z
_TEXT	SEGMENT
_strStartTime$ = -20					; size = 4
$T2 = -16						; size = 4
__$EHRec$ = -12						; size = 12
_strEndTime$ = 8					; size = 4
_strData$ = 8						; size = 4
?SetMarketTime@CRealModuleCenter@@QAEXABV?$CStringT@DV?$StrTraitMFC_DLL@DV?$ChTraitsCRT@D@ATL@@@@@ATL@@@Z PROC ; CRealModuleCenter::SetMarketTime, COMDAT
; _this$ = ecx

; 469  : {

  00000	55		 push	 ebp
  00001	8b ec		 mov	 ebp, esp
  00003	6a ff		 push	 -1
  00005	68 00 00 00 00	 push	 __ehhandler$?SetMarketTime@CRealModuleCenter@@QAEXABV?$CStringT@DV?$StrTraitMFC_DLL@DV?$ChTraitsCRT@D@ATL@@@@@ATL@@@Z
  0000a	64 a1 00 00 00
	00		 mov	 eax, DWORD PTR fs:0
  00010	50		 push	 eax
  00011	83 ec 08	 sub	 esp, 8
  00014	56		 push	 esi
  00015	a1 00 00 00 00	 mov	 eax, DWORD PTR ___security_cookie
  0001a	33 c5		 xor	 eax, ebp
  0001c	50		 push	 eax
  0001d	8d 45 f4	 lea	 eax, DWORD PTR __$EHRec$[ebp]
  00020	64 a3 00 00 00
	00		 mov	 DWORD PTR fs:0, eax
  00026	8b f1		 mov	 esi, ecx

; 470  : 	CString strEndTime = strData;

  00028	ff 75 08	 push	 DWORD PTR _strData$[ebp]
  0002b	8d 4d 08	 lea	 ecx, DWORD PTR _strEndTime$[ebp]
  0002e	ff 15 00 00 00
	00		 call	 DWORD PTR __imp_??0?$CStringT@DV?$StrTraitMFC_DLL@DV?$ChTraitsCRT@D@ATL@@@@@ATL@@QAE@ABV01@@Z

; 471  : 	if(strEndTime.Find("|") < 0)

  00034	6a 00		 push	 0
  00036	68 00 00 00 00	 push	 OFFSET ??_C@_01DNKMNLPK@?$HM@
  0003b	8d 4d 08	 lea	 ecx, DWORD PTR _strEndTime$[ebp]
  0003e	c7 45 fc 00 00
	00 00		 mov	 DWORD PTR __$EHRec$[ebp+8], 0
  00045	ff 15 00 00 00
	00		 call	 DWORD PTR __imp_?Find@?$CStringT@DV?$StrTraitMFC_DLL@DV?$ChTraitsCRT@D@ATL@@@@@ATL@@QBEHPBDH@Z
  0004b	85 c0		 test	 eax, eax
  0004d	79 0e		 jns	 SHORT $LN2@SetMarketT

; 472  : 		strEndTime += "|";

  0004f	68 00 00 00 00	 push	 OFFSET ??_C@_01DNKMNLPK@?$HM@
  00054	8d 4d 08	 lea	 ecx, DWORD PTR _strEndTime$[ebp]
  00057	ff 15 00 00 00
	00		 call	 DWORD PTR __imp_??Y?$CStringT@DV?$StrTraitMFC_DLL@DV?$ChTraitsCRT@D@ATL@@@@@ATL@@QAEAAV01@PBD@Z
$LN2@SetMarketT:

; 473  : 
; 474  : 	CString strStartTime = CDataConversion::GetStringData(strEndTime, "|");

  0005d	68 00 00 00 00	 push	 OFFSET ??_C@_01DNKMNLPK@?$HM@
  00062	8d 4d f0	 lea	 ecx, DWORD PTR $T2[ebp]
  00065	ff 15 00 00 00
	00		 call	 DWORD PTR __imp_??0?$CStringT@DV?$StrTraitMFC_DLL@DV?$ChTraitsCRT@D@ATL@@@@@ATL@@QAE@PBD@Z
  0006b	6a 01		 push	 1
  0006d	8d 45 f0	 lea	 eax, DWORD PTR $T2[ebp]
  00070	c6 45 fc 01	 mov	 BYTE PTR __$EHRec$[ebp+8], 1
  00074	50		 push	 eax
  00075	8d 45 08	 lea	 eax, DWORD PTR _strEndTime$[ebp]
  00078	50		 push	 eax
  00079	8d 45 ec	 lea	 eax, DWORD PTR _strStartTime$[ebp]
  0007c	50		 push	 eax
  0007d	e8 00 00 00 00	 call	 ?GetStringData@CDataConversion@@SA?AV?$CStringT@DV?$StrTraitMFC_DLL@DV?$ChTraitsCRT@D@ATL@@@@@ATL@@AAV23@ABV23@_N@Z ; CDataConversion::GetStringData
  00082	83 c4 10	 add	 esp, 16			; 00000010H
  00085	8d 4d f0	 lea	 ecx, DWORD PTR $T2[ebp]
  00088	c6 45 fc 03	 mov	 BYTE PTR __$EHRec$[ebp+8], 3
  0008c	ff 15 00 00 00
	00		 call	 DWORD PTR __imp_??1?$CStringT@DV?$StrTraitMFC_DLL@DV?$ChTraitsCRT@D@ATL@@@@@ATL@@QAE@XZ
; File C:\Program Files (x86)\Microsoft Visual Studio\2019\Community\VC\Tools\MSVC\14.29.30133\atlmfc\include\atlsimpstr.h

; 533  : 		return( GetLength() == 0 );

  00092	8b 45 ec	 mov	 eax, DWORD PTR _strStartTime$[ebp]
  00095	83 78 f4 00	 cmp	 DWORD PTR [eax-12], 0
; File D:\git\src\IBK\IBK_DRFN\ProjSrc\SrcChartEx\ChartOCX\PacketData\RealModuleCenter.cpp

; 475  : 	if(!strStartTime.IsEmpty())

  00099	74 19		 je	 SHORT $LN4@SetMarketT

; 476  : 	{
; 477  : 		int nTime = atoi(strStartTime);

  0009b	50		 push	 eax
  0009c	ff 15 00 00 00
	00		 call	 DWORD PTR __imp__atoi
  000a2	83 c4 04	 add	 esp, 4

; 478  : 		if(nTime > 0)

  000a5	85 c0		 test	 eax, eax
  000a7	7e 0b		 jle	 SHORT $LN4@SetMarketT

; 479  : 			m_marketTimeData.SetMarketStartTime(nTime, true);

  000a9	6a 01		 push	 1
  000ab	50		 push	 eax
  000ac	8d 4e 58	 lea	 ecx, DWORD PTR [esi+88]
  000af	e8 00 00 00 00	 call	 ?SetMarketStartTime@CMarketTimeData@@QAEXH_N@Z ; CMarketTimeData::SetMarketStartTime
$LN4@SetMarketT:
; File C:\Program Files (x86)\Microsoft Visual Studio\2019\Community\VC\Tools\MSVC\14.29.30133\atlmfc\include\atlsimpstr.h

; 533  : 		return( GetLength() == 0 );

  000b4	8b 45 08	 mov	 eax, DWORD PTR _strEndTime$[ebp]
  000b7	83 78 f4 00	 cmp	 DWORD PTR [eax-12], 0
; File D:\git\src\IBK\IBK_DRFN\ProjSrc\SrcChartEx\ChartOCX\PacketData\RealModuleCenter.cpp

; 482  : 	if(!strEndTime.IsEmpty())

  000bb	74 19		 je	 SHORT $LN6@SetMarketT

; 483  : 	{
; 484  : 		int nTime = atoi(strEndTime);

  000bd	50		 push	 eax
  000be	ff 15 00 00 00
	00		 call	 DWORD PTR __imp__atoi
  000c4	83 c4 04	 add	 esp, 4

; 485  : 		if(nTime > 0)

  000c7	85 c0		 test	 eax, eax
  000c9	7e 0b		 jle	 SHORT $LN6@SetMarketT

; 486  : 			m_marketTimeData.SetMarketEndTime(nTime, true);

  000cb	6a 01		 push	 1
  000cd	50		 push	 eax
  000ce	8d 4e 58	 lea	 ecx, DWORD PTR [esi+88]
  000d1	e8 00 00 00 00	 call	 ?SetMarketEndTime@CMarketTimeData@@QAEXH_N@Z ; CMarketTimeData::SetMarketEndTime
$LN6@SetMarketT:

; 487  : 	}
; 488  : }

  000d6	8d 4d ec	 lea	 ecx, DWORD PTR _strStartTime$[ebp]
  000d9	ff 15 00 00 00
	00		 call	 DWORD PTR __imp_??1?$CStringT@DV?$StrTraitMFC_DLL@DV?$ChTraitsCRT@D@ATL@@@@@ATL@@QAE@XZ
  000df	8d 4d 08	 lea	 ecx, DWORD PTR _strEndTime$[ebp]
  000e2	ff 15 00 00 00
	00		 call	 DWORD PTR __imp_??1?$CStringT@DV?$StrTraitMFC_DLL@DV?$ChTraitsCRT@D@ATL@@@@@ATL@@QAE@XZ
  000e8	8b 4d f4	 mov	 ecx, DWORD PTR __$EHRec$[ebp]
  000eb	64 89 0d 00 00
	00 00		 mov	 DWORD PTR fs:0, ecx
  000f2	59		 pop	 ecx
  000f3	5e		 pop	 esi
  000f4	8b e5		 mov	 esp, ebp
  000f6	5d		 pop	 ebp
  000f7	c2 04 00	 ret	 4
_TEXT	ENDS
;	COMDAT text$x
text$x	SEGMENT
__unwindfunclet$?SetMarketTime@CRealModuleCenter@@QAEXABV?$CStringT@DV?$StrTraitMFC_DLL@DV?$ChTraitsCRT@D@ATL@@@@@ATL@@@Z$0:
  00000	8d 4d 08	 lea	 ecx, DWORD PTR _strEndTime$[ebp]
  00003	ff 25 00 00 00
	00		 jmp	 DWORD PTR __imp_??1?$CStringT@DV?$StrTraitMFC_DLL@DV?$ChTraitsCRT@D@ATL@@@@@ATL@@QAE@XZ
__unwindfunclet$?SetMarketTime@CRealModuleCenter@@QAEXABV?$CStringT@DV?$StrTraitMFC_DLL@DV?$ChTraitsCRT@D@ATL@@@@@ATL@@@Z$1:
  00009	8d 4d f0	 lea	 ecx, DWORD PTR $T2[ebp]
  0000c	ff 25 00 00 00
	00		 jmp	 DWORD PTR __imp_??1?$CStringT@DV?$StrTraitMFC_DLL@DV?$ChTraitsCRT@D@ATL@@@@@ATL@@QAE@XZ
__unwindfunclet$?SetMarketTime@CRealModuleCenter@@QAEXABV?$CStringT@DV?$StrTraitMFC_DLL@DV?$ChTraitsCRT@D@ATL@@@@@ATL@@@Z$2:
  00012	8d 4d ec	 lea	 ecx, DWORD PTR _strStartTime$[ebp]
  00015	ff 25 00 00 00
	00		 jmp	 DWORD PTR __imp_??1?$CStringT@DV?$StrTraitMFC_DLL@DV?$ChTraitsCRT@D@ATL@@@@@ATL@@QAE@XZ
  0001b	cc		 int	 3
  0001c	cc		 int	 3
  0001d	cc		 int	 3
  0001e	cc		 int	 3
  0001f	cc		 int	 3
__ehhandler$?SetMarketTime@CRealModuleCenter@@QAEXABV?$CStringT@DV?$StrTraitMFC_DLL@DV?$ChTraitsCRT@D@ATL@@@@@ATL@@@Z:
  00020	90		 npad	 1
  00021	90		 npad	 1
  00022	8b 54 24 08	 mov	 edx, DWORD PTR [esp+8]
  00026	8d 42 0c	 lea	 eax, DWORD PTR [edx+12]
  00029	8b 4a f0	 mov	 ecx, DWORD PTR [edx-16]
  0002c	33 c8		 xor	 ecx, eax
  0002e	e8 00 00 00 00	 call	 @__security_check_cookie@4
  00033	b8 00 00 00 00	 mov	 eax, OFFSET __ehfuncinfo$?SetMarketTime@CRealModuleCenter@@QAEXABV?$CStringT@DV?$StrTraitMFC_DLL@DV?$ChTraitsCRT@D@ATL@@@@@ATL@@@Z
  00038	e9 00 00 00 00	 jmp	 ___CxxFrameHandler3
text$x	ENDS
?SetMarketTime@CRealModuleCenter@@QAEXABV?$CStringT@DV?$StrTraitMFC_DLL@DV?$ChTraitsCRT@D@ATL@@@@@ATL@@@Z ENDP ; CRealModuleCenter::SetMarketTime
; Function compile flags: /Ogtp
; File D:\git\src\IBK\IBK_DRFN\ProjSrc\SrcChartEx\ChartOCX\PacketData\RealModuleCenter.cpp
; File C:\Program Files (x86)\Microsoft Visual Studio\2019\Community\VC\Tools\MSVC\14.29.30133\atlmfc\include\atlsimpstr.h
; File D:\git\src\IBK\IBK_DRFN\ProjSrc\SrcChartEx\ChartOCX\PacketData\RealModuleCenter.cpp
;	COMDAT ?SetCurrentDate@CRealModuleCenter@@QAEXABV?$CStringT@DV?$StrTraitMFC_DLL@DV?$ChTraitsCRT@D@ATL@@@@@ATL@@@Z
_TEXT	SEGMENT
_strData$ = 8						; size = 4
?SetCurrentDate@CRealModuleCenter@@QAEXABV?$CStringT@DV?$StrTraitMFC_DLL@DV?$ChTraitsCRT@D@ATL@@@@@ATL@@@Z PROC ; CRealModuleCenter::SetCurrentDate, COMDAT
; _this$ = ecx

; 452  : {

  00000	55		 push	 ebp
  00001	8b ec		 mov	 ebp, esp
; File C:\Program Files (x86)\Microsoft Visual Studio\2019\Community\VC\Tools\MSVC\14.29.30133\atlmfc\include\atlsimpstr.h

; 533  : 		return( GetLength() == 0 );

  00003	8b 55 08	 mov	 edx, DWORD PTR _strData$[ebp]
  00006	83 c1 44	 add	 ecx, 68			; 00000044H
  00009	8b 02		 mov	 eax, DWORD PTR [edx]
  0000b	83 78 f4 00	 cmp	 DWORD PTR [eax-12], 0
; File D:\git\src\IBK\IBK_DRFN\ProjSrc\SrcChartEx\ChartOCX\PacketData\RealModuleCenter.cpp

; 455  : 	if( strData.IsEmpty())	m_dateData.SetDate();	// PC  .

  0000f	75 09		 jne	 SHORT $LN2@SetCurrent
  00011	e8 00 00 00 00	 call	 ?SetDate@CDateData@@QAEXXZ ; CDateData::SetDate

; 457  : 
; 458  : // (2009/10/20 - Seung-Won, Bae) It will be done on CRealModuleCenter::InitializeTRPart()
; 459  : //    -> real   .
; 460  : //	if( strOldDate != m_dateData.GetDate())
; 461  : //		SetRealTimeModuleData();
; 462  : }

  00016	5d		 pop	 ebp
  00017	c2 04 00	 ret	 4
$LN2@SetCurrent:

; 456  : 	else					m_dateData.SetDate(strData);

  0001a	89 55 08	 mov	 DWORD PTR _strData$[ebp], edx

; 457  : 
; 458  : // (2009/10/20 - Seung-Won, Bae) It will be done on CRealModuleCenter::InitializeTRPart()
; 459  : //    -> real   .
; 460  : //	if( strOldDate != m_dateData.GetDate())
; 461  : //		SetRealTimeModuleData();
; 462  : }

  0001d	5d		 pop	 ebp

; 456  : 	else					m_dateData.SetDate(strData);

  0001e	e9 00 00 00 00	 jmp	 ?SetDate@CDateData@@QAEXABV?$CStringT@DV?$StrTraitMFC_DLL@DV?$ChTraitsCRT@D@ATL@@@@@ATL@@@Z ; CDateData::SetDate
?SetCurrentDate@CRealModuleCenter@@QAEXABV?$CStringT@DV?$StrTraitMFC_DLL@DV?$ChTraitsCRT@D@ATL@@@@@ATL@@@Z ENDP ; CRealModuleCenter::SetCurrentDate
_TEXT	ENDS
; Function compile flags: /Ogtp
; File D:\git\src\IBK\IBK_DRFN\ProjSrc\SrcChartEx\ChartOCX\PacketData\RealModuleCenter.cpp
;	COMDAT ?GetRealData_CloseTime@CRealModuleCenter@@QAE_NPAVCPacket@@AB_JAA_J@Z
_TEXT	SEGMENT
_pPacket$ = 8						; size = 4
_p_nClock$ = 12						; size = 4
_p_nRealDataTime$ = 16					; size = 4
?GetRealData_CloseTime@CRealModuleCenter@@QAE_NPAVCPacket@@AB_JAA_J@Z PROC ; CRealModuleCenter::GetRealData_CloseTime, COMDAT
; _this$ = ecx

; 410  : {

  00000	55		 push	 ebp
  00001	8b ec		 mov	 ebp, esp

; 411  : 	m_nClock = p_nClock;

  00003	8b 45 0c	 mov	 eax, DWORD PTR _p_nClock$[ebp]
  00006	53		 push	 ebx
  00007	8b d9		 mov	 ebx, ecx
  00009	56		 push	 esi
  0000a	8b 08		 mov	 ecx, DWORD PTR [eax]
  0000c	8b 40 04	 mov	 eax, DWORD PTR [eax+4]

; 412  : 	if( m_nLastClockTime < 0) m_nLastClockTime = m_nClock;

  0000f	83 bb 94 00 00
	00 00		 cmp	 DWORD PTR [ebx+148], 0
  00016	89 8b 88 00 00
	00		 mov	 DWORD PTR [ebx+136], ecx
  0001c	89 83 8c 00 00
	00		 mov	 DWORD PTR [ebx+140], eax
  00022	7f 17		 jg	 SHORT $LN2@GetRealDat
  00024	7c 09		 jl	 SHORT $LN14@GetRealDat
  00026	83 bb 90 00 00
	00 00		 cmp	 DWORD PTR [ebx+144], 0
  0002d	73 0c		 jae	 SHORT $LN2@GetRealDat
$LN14@GetRealDat:
  0002f	89 8b 90 00 00
	00		 mov	 DWORD PTR [ebx+144], ecx
  00035	89 83 94 00 00
	00		 mov	 DWORD PTR [ebx+148], eax
$LN2@GetRealDat:

; 413  : 	if( m_nLastRealTime < 0) return false;

  0003b	8b b3 9c 00 00
	00		 mov	 esi, DWORD PTR [ebx+156]
  00041	8b 93 98 00 00
	00		 mov	 edx, DWORD PTR [ebx+152]
  00047	85 f6		 test	 esi, esi
  00049	0f 8c 1e 01 00
	00		 jl	 $LN13@GetRealDat
  0004f	7f 08		 jg	 SHORT $LN15@GetRealDat
  00051	85 d2		 test	 edx, edx
  00053	0f 82 14 01 00
	00		 jb	 $LN13@GetRealDat
$LN15@GetRealDat:

; 414  : 	if( m_nClock == m_nLastRealTime) return false;

  00059	3b ca		 cmp	 ecx, edx
  0005b	75 08		 jne	 SHORT $LN16@GetRealDat
  0005d	3b c6		 cmp	 eax, esi
  0005f	0f 84 08 01 00
	00		 je	 $LN13@GetRealDat
$LN16@GetRealDat:

; 415  : //	20121017  (5  )       ---->>>>
; 416  : //	if( m_nClock % 5) return false;
; 417  : //	---------<<<<<<
; 418  : 
; 419  : 	//2012-1012 by alzioyes.
; 420  : 	if( !m_pIChartCtrl->GetNormalizedMinuteTimeRule()) return false;

  00065	8b 8b a0 00 00
	00		 mov	 ecx, DWORD PTR [ebx+160]
  0006b	8b 01		 mov	 eax, DWORD PTR [ecx]
  0006d	ff 90 ec 00 00
	00		 call	 DWORD PTR [eax+236]
  00073	85 c0		 test	 eax, eax
  00075	0f 84 f2 00 00
	00		 je	 $LN13@GetRealDat

; 421  : 
; 422  : 	m_nLastRealTime = CDataConversion::CalcTimeSum( m_nLastRealTime, m_nClock - m_nLastClockTime, TRUE);

  0007b	8b 8b 88 00 00
	00		 mov	 ecx, DWORD PTR [ebx+136]
  00081	2b 8b 90 00 00
	00		 sub	 ecx, DWORD PTR [ebx+144]
  00087	8b 83 8c 00 00
	00		 mov	 eax, DWORD PTR [ebx+140]
  0008d	1b 83 94 00 00
	00		 sbb	 eax, DWORD PTR [ebx+148]
  00093	6a 01		 push	 1
  00095	50		 push	 eax
  00096	51		 push	 ecx
  00097	ff b3 9c 00 00
	00		 push	 DWORD PTR [ebx+156]
  0009d	ff b3 98 00 00
	00		 push	 DWORD PTR [ebx+152]
  000a3	e8 00 00 00 00	 call	 ?CalcTimeSum@CDataConversion@@SA_J_J0H@Z ; CDataConversion::CalcTimeSum

; 423  : 	m_nLastClockTime = m_nClock;

  000a8	8b 8b 8c 00 00
	00		 mov	 ecx, DWORD PTR [ebx+140]
  000ae	83 c4 14	 add	 esp, 20			; 00000014H

; 424  : 
; 425  : 	// Caution! the Clock must be faster than real time not to omit the empty candle.
; 426  : 	//	So the empty candle will be closed before 5 sec of real time.
; 427  : 	p_nRealDataTime = CDataConversion::CalcTimeSum( m_nLastRealTime, 5 - ( m_nLastRealTime % 5));

  000b1	8b f2		 mov	 esi, edx
  000b3	89 83 98 00 00
	00		 mov	 DWORD PTR [ebx+152], eax
  000b9	8b 83 88 00 00
	00		 mov	 eax, DWORD PTR [ebx+136]
  000bf	89 93 9c 00 00
	00		 mov	 DWORD PTR [ebx+156], edx
  000c5	6a 00		 push	 0
  000c7	6a 00		 push	 0
  000c9	6a 05		 push	 5
  000cb	56		 push	 esi
  000cc	ff b3 98 00 00
	00		 push	 DWORD PTR [ebx+152]
  000d2	89 83 90 00 00
	00		 mov	 DWORD PTR [ebx+144], eax
  000d8	89 8b 94 00 00
	00		 mov	 DWORD PTR [ebx+148], ecx
  000de	e8 00 00 00 00	 call	 __allrem
  000e3	b9 05 00 00 00	 mov	 ecx, 5
  000e8	2b c8		 sub	 ecx, eax
  000ea	b8 00 00 00 00	 mov	 eax, 0
  000ef	1b c2		 sbb	 eax, edx
  000f1	50		 push	 eax
  000f2	51		 push	 ecx
  000f3	56		 push	 esi
  000f4	ff b3 98 00 00
	00		 push	 DWORD PTR [ebx+152]
  000fa	e8 00 00 00 00	 call	 ?CalcTimeSum@CDataConversion@@SA_J_J0H@Z ; CDataConversion::CalcTimeSum
  000ff	8b 75 10	 mov	 esi, DWORD PTR _p_nRealDataTime$[ebp]
  00102	83 c4 14	 add	 esp, 20			; 00000014H
  00105	89 06		 mov	 DWORD PTR [esi], eax
  00107	89 56 04	 mov	 DWORD PTR [esi+4], edx

; 428  : 
; 429  : 	TRACE( "CLOCK:%I64d\r\n", p_nRealDataTime);
; 430  : 
; 431  : 	if( !m_pTimeRealDataModule->GetRealData_CloseTime( pPacket, p_nRealDataTime)) return false;

  0010a	8b 4b 68	 mov	 ecx, DWORD PTR [ebx+104]
  0010d	56		 push	 esi
  0010e	ff 75 08	 push	 DWORD PTR _pPacket$[ebp]
  00111	8b 01		 mov	 eax, DWORD PTR [ecx]
  00113	8b 40 10	 mov	 eax, DWORD PTR [eax+16]
  00116	ff d0		 call	 eax
  00118	84 c0		 test	 al, al
  0011a	74 51		 je	 SHORT $LN13@GetRealDat

; 432  : 
; 433  : 	if( CChartInfo::HTS == m_nChartModeSetting || CChartInfo::KRX_CME == m_nChartModeSetting)

  0011c	8b 43 7c	 mov	 eax, DWORD PTR [ebx+124]
  0011f	83 f8 01	 cmp	 eax, 1
  00122	74 05		 je	 SHORT $LN8@GetRealDat
  00124	83 f8 04	 cmp	 eax, 4
  00127	75 3c		 jne	 SHORT $LN9@GetRealDat
$LN8@GetRealDat:

; 434  : 		p_nRealDataTime %= 1000000;

  00129	6a 00		 push	 0
  0012b	68 40 42 0f 00	 push	 1000000			; 000f4240H
  00130	ff 76 04	 push	 DWORD PTR [esi+4]
  00133	ff 36		 push	 DWORD PTR [esi]
  00135	e8 00 00 00 00	 call	 __allrem
  0013a	89 06		 mov	 DWORD PTR [esi], eax
  0013c	89 56 04	 mov	 DWORD PTR [esi+4], edx
  0013f	8b 43 7c	 mov	 eax, DWORD PTR [ebx+124]

; 435  : 	// (2009/12/2 - Seung-Won, Bae) for 31 Hour.
; 436  : 	if( CChartInfo::KRX_CME == m_nChartModeSetting && p_nRealDataTime < 70000)

  00142	83 f8 04	 cmp	 eax, 4
  00145	75 1e		 jne	 SHORT $LN9@GetRealDat
  00147	8b 06		 mov	 eax, DWORD PTR [esi]
  00149	8b ca		 mov	 ecx, edx
  0014b	85 c9		 test	 ecx, ecx
  0014d	7f 16		 jg	 SHORT $LN9@GetRealDat
  0014f	7c 07		 jl	 SHORT $LN17@GetRealDat
  00151	3d 70 11 01 00	 cmp	 eax, 70000		; 00011170H
  00156	73 0d		 jae	 SHORT $LN9@GetRealDat
$LN17@GetRealDat:

; 437  : 		p_nRealDataTime += 240000;

  00158	05 80 a9 03 00	 add	 eax, 240000		; 0003a980H
  0015d	89 06		 mov	 DWORD PTR [esi], eax
  0015f	83 d1 00	 adc	 ecx, 0
  00162	89 4e 04	 mov	 DWORD PTR [esi+4], ecx
$LN9@GetRealDat:

; 438  : 		
; 439  : 	return true;

  00165	5e		 pop	 esi
  00166	b0 01		 mov	 al, 1

; 440  : }

  00168	5b		 pop	 ebx
  00169	5d		 pop	 ebp
  0016a	c2 0c 00	 ret	 12			; 0000000cH
$LN13@GetRealDat:
  0016d	5e		 pop	 esi

; 428  : 
; 429  : 	TRACE( "CLOCK:%I64d\r\n", p_nRealDataTime);
; 430  : 
; 431  : 	if( !m_pTimeRealDataModule->GetRealData_CloseTime( pPacket, p_nRealDataTime)) return false;

  0016e	32 c0		 xor	 al, al

; 440  : }

  00170	5b		 pop	 ebx
  00171	5d		 pop	 ebp
  00172	c2 0c 00	 ret	 12			; 0000000cH
?GetRealData_CloseTime@CRealModuleCenter@@QAE_NPAVCPacket@@AB_JAA_J@Z ENDP ; CRealModuleCenter::GetRealData_CloseTime
_TEXT	ENDS
; Function compile flags: /Ogtp
; File D:\git\src\IBK\IBK_DRFN\ProjSrc\SrcChartEx\ChartOCX\PacketData\RealModuleCenter.cpp
; File C:\Program Files (x86)\Microsoft Visual Studio\2019\Community\VC\Tools\MSVC\14.29.30133\atlmfc\include\cstringt.h
; File D:\git\src\IBK\IBK_DRFN\ProjSrc\SrcChartEx\ChartOCX\PacketData\RealModuleCenter.cpp
; File C:\Program Files (x86)\Microsoft Visual Studio\2019\Community\VC\Tools\MSVC\14.29.30133\atlmfc\include\cstringt.h
; File D:\git\src\IBK\IBK_DRFN\ProjSrc\SrcChartEx\ChartOCX\PacketData\RealModuleCenter.cpp
; File C:\Program Files (x86)\Microsoft Visual Studio\2019\Community\VC\Tools\MSVC\14.29.30133\atlmfc\include\cstringt.h
; File D:\git\src\IBK\IBK_DRFN\ProjSrc\SrcChartEx\ChartOCX\PacketData\RealModuleCenter.cpp
; File C:\Program Files (x86)\Microsoft Visual Studio\2019\Community\VC\Tools\MSVC\14.29.30133\atlmfc\include\cstringt.h
; File D:\git\src\IBK\IBK_DRFN\ProjSrc\SrcChartEx\ChartOCX\PacketData\RealModuleCenter.cpp
; File C:\Program Files (x86)\Microsoft Visual Studio\2019\Community\VC\Tools\MSVC\14.29.30133\atlmfc\include\afxtempl.h
; File D:\git\src\IBK\IBK_DRFN\ProjSrc\SrcChartEx\ChartOCX\PacketData\RealModuleCenter.cpp
;	COMDAT ?SetRealData@CRealModuleCenter@@QAE_NPAVCPacket@@NHAAH@Z
_TEXT	SEGMENT
_dPrevData$2 = -36					; size = 8
_nRealData$3 = -36					; size = 8
_dPrevData$4 = -36					; size = 8
_dRealData$ = -28					; size = 8
tv520 = -24						; size = 4
_bSpecialTime$1$ = -20					; size = 4
$T5 = -16						; size = 4
__$EHRec$ = -12						; size = 12
_strPacketName$ = 8					; size = 4
_pPacket$ = 8						; size = 4
_dData$ = 12						; size = 8
$T6 = 20						; size = 4
_nOption$ = 20						; size = 4
_p_nRemovePacketDataCount$ = 24				; size = 4
?SetRealData@CRealModuleCenter@@QAE_NPAVCPacket@@NHAAH@Z PROC ; CRealModuleCenter::SetRealData, COMDAT
; _this$ = ecx

; 252  : {

  00000	55		 push	 ebp
  00001	8b ec		 mov	 ebp, esp
  00003	6a ff		 push	 -1
  00005	68 00 00 00 00	 push	 __ehhandler$?SetRealData@CRealModuleCenter@@QAE_NPAVCPacket@@NHAAH@Z
  0000a	64 a1 00 00 00
	00		 mov	 eax, DWORD PTR fs:0
  00010	50		 push	 eax
  00011	83 ec 18	 sub	 esp, 24			; 00000018H
  00014	53		 push	 ebx
  00015	56		 push	 esi
  00016	57		 push	 edi
  00017	a1 00 00 00 00	 mov	 eax, DWORD PTR ___security_cookie
  0001c	33 c5		 xor	 eax, ebp
  0001e	50		 push	 eax
  0001f	8d 45 f4	 lea	 eax, DWORD PTR __$EHRec$[ebp]
  00022	64 a3 00 00 00
	00		 mov	 DWORD PTR fs:0, eax
  00028	8b f9		 mov	 edi, ecx

; 253  : 	if(pPacket == NULL) return false;

  0002a	8b 5d 08	 mov	 ebx, DWORD PTR _pPacket$[ebp]
  0002d	85 db		 test	 ebx, ebx
  0002f	75 16		 jne	 SHORT $LN4@SetRealDat
  00031	32 c0		 xor	 al, al

; 407  : }

  00033	8b 4d f4	 mov	 ecx, DWORD PTR __$EHRec$[ebp]
  00036	64 89 0d 00 00
	00 00		 mov	 DWORD PTR fs:0, ecx
  0003d	59		 pop	 ecx
  0003e	5f		 pop	 edi
  0003f	5e		 pop	 esi
  00040	5b		 pop	 ebx
  00041	8b e5		 mov	 esp, ebp
  00043	5d		 pop	 ebp
  00044	c2 14 00	 ret	 20			; 00000014H
$LN4@SetRealDat:

; 254  : 
; 255  : 	// 0. nOption   Update(1),  Append(2) .
; 256  : 	if( 0 != nOption)

  00047	8b 45 14	 mov	 eax, DWORD PTR _nOption$[ebp]
  0004a	85 c0		 test	 eax, eax
  0004c	74 70		 je	 SHORT $LN5@SetRealDat

; 257  : 	{
; 258  : 		//update
; 259  : 		if(			nOption == 1)	pPacket->UpdateData(dData);

  0004e	83 f8 01	 cmp	 eax, 1
  00051	75 32		 jne	 SHORT $LN6@SetRealDat
  00053	f2 0f 10 45 0c	 movsd	 xmm0, QWORD PTR _dData$[ebp]
  00058	83 ec 08	 sub	 esp, 8
  0005b	8b cb		 mov	 ecx, ebx
  0005d	f2 0f 11 04 24	 movsd	 QWORD PTR [esp], xmm0
  00062	e8 00 00 00 00	 call	 ?UpdateData@CPacket@@QAEXN@Z ; CPacket::UpdateData

; 262  : 		//min, max setting 
; 263  : 		SetPacketMinMaxAndUpdateRage(pPacket);

  00067	53		 push	 ebx
  00068	8b cf		 mov	 ecx, edi
  0006a	e8 00 00 00 00	 call	 ?SetPacketMinMaxAndUpdateRage@CRealModuleCenter@@QAEXPAVCPacket@@@Z ; CRealModuleCenter::SetPacketMinMaxAndUpdateRage

; 264  : 		return true;

  0006f	b0 01		 mov	 al, 1

; 407  : }

  00071	8b 4d f4	 mov	 ecx, DWORD PTR __$EHRec$[ebp]
  00074	64 89 0d 00 00
	00 00		 mov	 DWORD PTR fs:0, ecx
  0007b	59		 pop	 ecx
  0007c	5f		 pop	 edi
  0007d	5e		 pop	 esi
  0007e	5b		 pop	 ebx
  0007f	8b e5		 mov	 esp, ebp
  00081	5d		 pop	 ebp
  00082	c2 14 00	 ret	 20			; 00000014H
$LN6@SetRealDat:

; 260  : 		//append
; 261  : 		else if(	nOption == 2)	pPacket->AppendData(dData);

  00085	83 f8 02	 cmp	 eax, 2
  00088	75 16		 jne	 SHORT $LN8@SetRealDat
  0008a	f2 0f 10 45 0c	 movsd	 xmm0, QWORD PTR _dData$[ebp]
  0008f	8b cb		 mov	 ecx, ebx
  00091	6a ff		 push	 -1
  00093	83 ec 08	 sub	 esp, 8
  00096	f2 0f 11 04 24	 movsd	 QWORD PTR [esp], xmm0
  0009b	e8 00 00 00 00	 call	 ?AppendData@CPacket@@QAEXNH@Z ; CPacket::AppendData
$LN8@SetRealDat:

; 262  : 		//min, max setting 
; 263  : 		SetPacketMinMaxAndUpdateRage(pPacket);

  000a0	53		 push	 ebx
  000a1	8b cf		 mov	 ecx, edi
  000a3	e8 00 00 00 00	 call	 ?SetPacketMinMaxAndUpdateRage@CRealModuleCenter@@QAEXPAVCPacket@@@Z ; CRealModuleCenter::SetPacketMinMaxAndUpdateRage

; 264  : 		return true;

  000a8	b0 01		 mov	 al, 1

; 407  : }

  000aa	8b 4d f4	 mov	 ecx, DWORD PTR __$EHRec$[ebp]
  000ad	64 89 0d 00 00
	00 00		 mov	 DWORD PTR fs:0, ecx
  000b4	59		 pop	 ecx
  000b5	5f		 pop	 edi
  000b6	5e		 pop	 esi
  000b7	5b		 pop	 ebx
  000b8	8b e5		 mov	 esp, ebp
  000ba	5d		 pop	 ebp
  000bb	c2 14 00	 ret	 20			; 00000014H
$LN5@SetRealDat:

; 265  : 	}
; 266  : 
; 267  : 	// 1.    . (RDC   .)
; 268  : 	CString strPacketName = pPacket->GetName();

  000be	8d 45 08	 lea	 eax, DWORD PTR _strPacketName$[ebp]
  000c1	8b cb		 mov	 ecx, ebx
  000c3	50		 push	 eax
  000c4	e8 00 00 00 00	 call	 ?GetName@CPacket@@QAE?AV?$CStringT@DV?$StrTraitMFC_DLL@DV?$ChTraitsCRT@D@ATL@@@@@ATL@@XZ ; CPacket::GetName

; 269  : 	double dRealData = m_realDataModule.GetRealData( strPacketName, dData);

  000c9	8d 45 0c	 lea	 eax, DWORD PTR _dData$[ebp]
  000cc	c7 45 fc 00 00
	00 00		 mov	 DWORD PTR __$EHRec$[ebp+8], 0
  000d3	50		 push	 eax
  000d4	8d 45 08	 lea	 eax, DWORD PTR _strPacketName$[ebp]
  000d7	50		 push	 eax
  000d8	8d 4f 18	 lea	 ecx, DWORD PTR [edi+24]
  000db	e8 00 00 00 00	 call	 ?GetRealData@CRealDataModule@@QBENABV?$CStringT@DV?$StrTraitMFC_DLL@DV?$ChTraitsCRT@D@ATL@@@@@ATL@@ABN@Z ; CRealDataModule::GetRealData

; 274  : 	if( strPacketName == _MTEXT( C0_CLOSE) || strPacketName == "_BuyClose_" || strPacketName == "_SellClose_")

  000e0	a1 54 00 00 00	 mov	 eax, DWORD PTR ?g_iMetaTable@@3VIMetaTable@@A+84
; File C:\Program Files (x86)\Microsoft Visual Studio\2019\Community\VC\Tools\MSVC\14.29.30133\atlmfc\include\cstringt.h

; 2486 : 		return(str1.Compare(psz2) == 0);

  000e5	8d 4d 08	 lea	 ecx, DWORD PTR _strPacketName$[ebp]
; File D:\git\src\IBK\IBK_DRFN\ProjSrc\SrcChartEx\ChartOCX\PacketData\RealModuleCenter.cpp

; 269  : 	double dRealData = m_realDataModule.GetRealData( strPacketName, dData);

  000e8	dd 5d e4	 fstp	 QWORD PTR _dRealData$[ebp]
; File C:\Program Files (x86)\Microsoft Visual Studio\2019\Community\VC\Tools\MSVC\14.29.30133\atlmfc\include\cstringt.h

; 2486 : 		return(str1.Compare(psz2) == 0);

  000eb	ff 70 14	 push	 DWORD PTR [eax+20]
  000ee	ff 15 00 00 00
	00		 call	 DWORD PTR __imp_?Compare@?$CStringT@DV?$StrTraitMFC_DLL@DV?$ChTraitsCRT@D@ATL@@@@@ATL@@QBEHPBD@Z
  000f4	85 c0		 test	 eax, eax
; File D:\git\src\IBK\IBK_DRFN\ProjSrc\SrcChartEx\ChartOCX\PacketData\RealModuleCenter.cpp

; 274  : 	if( strPacketName == _MTEXT( C0_CLOSE) || strPacketName == "_BuyClose_" || strPacketName == "_SellClose_")

  000f6	0f 84 de 02 00
	00		 je	 $LN10@SetRealDat
; File C:\Program Files (x86)\Microsoft Visual Studio\2019\Community\VC\Tools\MSVC\14.29.30133\atlmfc\include\cstringt.h

; 2486 : 		return(str1.Compare(psz2) == 0);

  000fc	68 00 00 00 00	 push	 OFFSET ??_C@_0L@PHFILLDG@_BuyClose_@
  00101	8d 4d 08	 lea	 ecx, DWORD PTR _strPacketName$[ebp]
  00104	ff 15 00 00 00
	00		 call	 DWORD PTR __imp_?Compare@?$CStringT@DV?$StrTraitMFC_DLL@DV?$ChTraitsCRT@D@ATL@@@@@ATL@@QBEHPBD@Z
  0010a	85 c0		 test	 eax, eax
; File D:\git\src\IBK\IBK_DRFN\ProjSrc\SrcChartEx\ChartOCX\PacketData\RealModuleCenter.cpp

; 274  : 	if( strPacketName == _MTEXT( C0_CLOSE) || strPacketName == "_BuyClose_" || strPacketName == "_SellClose_")

  0010c	0f 84 c8 02 00
	00		 je	 $LN10@SetRealDat
; File C:\Program Files (x86)\Microsoft Visual Studio\2019\Community\VC\Tools\MSVC\14.29.30133\atlmfc\include\cstringt.h

; 2486 : 		return(str1.Compare(psz2) == 0);

  00112	68 00 00 00 00	 push	 OFFSET ??_C@_0M@DKEGEIMD@_SellClose_@
  00117	8d 4d 08	 lea	 ecx, DWORD PTR _strPacketName$[ebp]
  0011a	ff 15 00 00 00
	00		 call	 DWORD PTR __imp_?Compare@?$CStringT@DV?$StrTraitMFC_DLL@DV?$ChTraitsCRT@D@ATL@@@@@ATL@@QBEHPBD@Z
  00120	85 c0		 test	 eax, eax
; File D:\git\src\IBK\IBK_DRFN\ProjSrc\SrcChartEx\ChartOCX\PacketData\RealModuleCenter.cpp

; 274  : 	if( strPacketName == _MTEXT( C0_CLOSE) || strPacketName == "_BuyClose_" || strPacketName == "_SellClose_")

  00122	0f 84 b2 02 00
	00		 je	 $LN10@SetRealDat

; 296  : 		}
; 297  : 		
; 298  : 		return true;
; 299  : 	}
; 300  : 
; 301  : 	// 3.  
; 302  : 	// ""  packet : "", "MP_"
; 303  : 	if( 0 <= strPacketName.Find( _MTEXT( C0_DATE_TIME)))

  00128	a1 54 00 00 00	 mov	 eax, DWORD PTR ?g_iMetaTable@@3VIMetaTable@@A+84
  0012d	8d 4d 08	 lea	 ecx, DWORD PTR _strPacketName$[ebp]
  00130	6a 00		 push	 0
  00132	ff 30		 push	 DWORD PTR [eax]
  00134	ff 15 00 00 00
	00		 call	 DWORD PTR __imp_?Find@?$CStringT@DV?$StrTraitMFC_DLL@DV?$ChTraitsCRT@D@ATL@@@@@ATL@@QBEHPBDH@Z
  0013a	85 c0		 test	 eax, eax
  0013c	0f 88 ad 01 00
	00		 js	 $LN21@SetRealDat

; 304  : 	{
; 305  : 		__int64 nRealData = ( __int64)dRealData;

  00142	f2 0f 10 45 e4	 movsd	 xmm0, QWORD PTR _dRealData$[ebp]
  00147	e8 00 00 00 00	 call	 __dtol3

; 306  : 
; 307  : 		// (2009/12/11 - Seung-Won, Bae) Check Special Time
; 308  : 		BOOL bSpecialTime = g_iMetaTable.IsSpecialTime( int( nRealData % 1000000));

  0014c	6a 00		 push	 0
  0014e	68 40 42 0f 00	 push	 1000000			; 000f4240H
  00153	8b f0		 mov	 esi, eax
  00155	89 55 e0	 mov	 DWORD PTR _nRealData$3[ebp+4], edx
  00158	52		 push	 edx
  00159	56		 push	 esi
  0015a	89 75 dc	 mov	 DWORD PTR _nRealData$3[ebp], esi
  0015d	e8 00 00 00 00	 call	 __alldiv
  00162	69 c0 40 42 0f
	00		 imul	 eax, eax, 1000000
  00168	b9 00 00 00 00	 mov	 ecx, OFFSET ?g_iMetaTable@@3VIMetaTable@@A ; g_iMetaTable
  0016d	2b f0		 sub	 esi, eax
  0016f	56		 push	 esi
  00170	e8 00 00 00 00	 call	 ?IsSpecialTime@IMetaTable@@QAEHH@Z ; IMetaTable::IsSpecialTime

; 309  : 
; 310  : 		// (2009/10/27 - Seung-Won, Bae) for Real Data Type.
; 311  : 		if( nRealData < 1000000)

  00175	8b 55 e0	 mov	 edx, DWORD PTR _nRealData$3[ebp+4]
  00178	8b 75 dc	 mov	 esi, DWORD PTR _nRealData$3[ebp]
  0017b	89 45 ec	 mov	 DWORD PTR _bSpecialTime$1$[ebp], eax
  0017e	85 d2		 test	 edx, edx
  00180	0f 8f be 00 00
	00		 jg	 $LN22@SetRealDat
  00186	7c 0c		 jl	 SHORT $LN68@SetRealDat
  00188	81 fe 40 42 0f
	00		 cmp	 esi, 1000000		; 000f4240H
  0018e	0f 83 b0 00 00
	00		 jae	 $LN22@SetRealDat
$LN68@SetRealDat:

; 312  : 		{
; 313  : 			if( nRealData + 10000 < m_nLastRealTime % 1000000 && !bSpecialTime)

  00194	8b 87 9c 00 00
	00		 mov	 eax, DWORD PTR [edi+156]
  0019a	8b 8f 98 00 00
	00		 mov	 ecx, DWORD PTR [edi+152]
  001a0	6a 00		 push	 0
  001a2	68 40 42 0f 00	 push	 1000000			; 000f4240H
  001a7	50		 push	 eax
  001a8	51		 push	 ecx
  001a9	89 4d 14	 mov	 DWORD PTR $T6[ebp], ecx
  001ac	89 45 f0	 mov	 DWORD PTR $T5[ebp], eax
  001af	e8 00 00 00 00	 call	 __allrem
  001b4	8b ce		 mov	 ecx, esi
  001b6	81 c1 10 27 00
	00		 add	 ecx, 10000		; 00002710H
  001bc	89 4d e8	 mov	 DWORD PTR tv520[ebp], ecx
  001bf	8b 4d e0	 mov	 ecx, DWORD PTR _nRealData$3[ebp+4]
  001c2	83 d1 00	 adc	 ecx, 0
  001c5	3b ca		 cmp	 ecx, edx
  001c7	7f 4d		 jg	 SHORT $LN72@SetRealDat
  001c9	7c 05		 jl	 SHORT $LN69@SetRealDat
  001cb	39 45 e8	 cmp	 DWORD PTR tv520[ebp], eax
  001ce	73 46		 jae	 SHORT $LN72@SetRealDat
$LN69@SetRealDat:
  001d0	83 7d ec 00	 cmp	 DWORD PTR _bSpecialTime$1$[ebp], 0
  001d4	8b 97 9c 00 00
	00		 mov	 edx, DWORD PTR [edi+156]
  001da	8b ca		 mov	 ecx, edx
  001dc	8b 87 98 00 00
	00		 mov	 eax, DWORD PTR [edi+152]
  001e2	89 45 14	 mov	 DWORD PTR $T6[ebp], eax
  001e5	89 4d f0	 mov	 DWORD PTR $T5[ebp], ecx
  001e8	75 32		 jne	 SHORT $LN23@SetRealDat

; 314  : 				m_nLastRealTime = CDataConversion::CalcTimeSum( m_nLastRealTime, 1000000);

  001ea	6a 00		 push	 0
  001ec	6a 00		 push	 0
  001ee	68 40 42 0f 00	 push	 1000000			; 000f4240H
  001f3	52		 push	 edx
  001f4	50		 push	 eax
  001f5	e8 00 00 00 00	 call	 ?CalcTimeSum@CDataConversion@@SA_J_J0H@Z ; CDataConversion::CalcTimeSum
  001fa	8b 75 dc	 mov	 esi, DWORD PTR _nRealData$3[ebp]
  001fd	8b ca		 mov	 ecx, edx
  001ff	83 c4 14	 add	 esp, 20			; 00000014H
  00202	89 87 98 00 00
	00		 mov	 DWORD PTR [edi+152], eax
  00208	89 97 9c 00 00
	00		 mov	 DWORD PTR [edi+156], edx
  0020e	89 45 14	 mov	 DWORD PTR $T6[ebp], eax
  00211	89 4d f0	 mov	 DWORD PTR $T5[ebp], ecx
  00214	eb 06		 jmp	 SHORT $LN23@SetRealDat
$LN72@SetRealDat:

; 315  : 			nRealData += m_nLastRealTime - ( m_nLastRealTime % 1000000);

  00216	8b 4d f0	 mov	 ecx, DWORD PTR $T5[ebp]
  00219	8b 45 14	 mov	 eax, DWORD PTR $T6[ebp]
$LN23@SetRealDat:
  0021c	6a 00		 push	 0
  0021e	68 40 42 0f 00	 push	 1000000			; 000f4240H
  00223	51		 push	 ecx
  00224	50		 push	 eax
  00225	e8 00 00 00 00	 call	 __allrem
  0022a	8b 4d 14	 mov	 ecx, DWORD PTR $T6[ebp]
  0022d	2b c8		 sub	 ecx, eax
  0022f	8b 45 f0	 mov	 eax, DWORD PTR $T5[ebp]
  00232	1b c2		 sbb	 eax, edx
  00234	8b 55 e0	 mov	 edx, DWORD PTR _nRealData$3[ebp+4]
  00237	03 f1		 add	 esi, ecx
  00239	89 75 dc	 mov	 DWORD PTR _nRealData$3[ebp], esi
  0023c	13 d0		 adc	 edx, eax
  0023e	8b 45 ec	 mov	 eax, DWORD PTR _bSpecialTime$1$[ebp]
  00241	89 55 e0	 mov	 DWORD PTR _nRealData$3[ebp+4], edx
$LN22@SetRealDat:

; 316  : 		}
; 317  : 
; 318  : 		if( !m_bOnClockedData && !bSpecialTime) SetLastRealTime( nRealData);

  00244	83 bf a4 00 00
	00 00		 cmp	 DWORD PTR [edi+164], 0
  0024b	75 28		 jne	 SHORT $LN24@SetRealDat
  0024d	85 c0		 test	 eax, eax
  0024f	75 24		 jne	 SHORT $LN24@SetRealDat

; 795  : 	m_nLastClockTime = m_nClock;

  00251	8b 87 88 00 00
	00		 mov	 eax, DWORD PTR [edi+136]
  00257	8b 8f 8c 00 00
	00		 mov	 ecx, DWORD PTR [edi+140]
  0025d	89 87 90 00 00
	00		 mov	 DWORD PTR [edi+144], eax
  00263	89 8f 94 00 00
	00		 mov	 DWORD PTR [edi+148], ecx

; 796  : 	m_nLastRealTime = p_nRealTime;

  00269	89 b7 98 00 00
	00		 mov	 DWORD PTR [edi+152], esi
  0026f	89 97 9c 00 00
	00		 mov	 DWORD PTR [edi+156], edx
$LN24@SetRealDat:

; 319  : 
; 320  : 		TRACE( "\r\nRealTime : %I64d", nRealData);
; 321  : 
; 322  : 		//>>20100520_JS.Kim.		     
; 323  : 		////@Solomon:100114-JunokLee
; 324  : 		//int nDeleteCount = -1;
; 325  : 		//if(m_pTimeRealDataModule) m_pTimeRealDataModule->SetRealData( pPacket, nRealData);
; 326  : 		//if( nDeleteCount < 0) false;
; 327  : 		if(!m_pTimeRealDataModule) return false;

  00275	8b 4f 68	 mov	 ecx, DWORD PTR [edi+104]
  00278	85 c9		 test	 ecx, ecx
  0027a	0f 84 c5 00 00
	00		 je	 $LN74@SetRealDat

; 328  : 
; 329  : 		int nDeleteCount = m_pTimeRealDataModule->SetRealData( pPacket, nRealData);

  00280	8b 01		 mov	 eax, DWORD PTR [ecx]
  00282	8d 55 dc	 lea	 edx, DWORD PTR _nRealData$3[ebp]
  00285	52		 push	 edx
  00286	53		 push	 ebx
  00287	ff 50 08	 call	 DWORD PTR [eax+8]
  0028a	8b f0		 mov	 esi, eax

; 330  : 		if( nDeleteCount < 0) return false;

  0028c	85 f6		 test	 esi, esi
  0028e	0f 88 b1 00 00
	00		 js	 $LN74@SetRealDat

; 331  : 		//<<
; 332  : 
; 333  : 		SetPacketMinMaxAndUpdateRage( pPacket);

  00294	53		 push	 ebx
  00295	8b cf		 mov	 ecx, edi
  00297	e8 00 00 00 00	 call	 ?SetPacketMinMaxAndUpdateRage@CRealModuleCenter@@QAEXPAVCPacket@@@Z ; CRealModuleCenter::SetPacketMinMaxAndUpdateRage

; 334  : 
; 335  : 		if( 0 < nDeleteCount)

  0029c	85 f6		 test	 esi, esi
  0029e	0f 8e 01 02 00
	00		 jle	 $LN20@SetRealDat

; 336  : 		{
; 337  : 			if( m_pOpenPacket)		m_pOpenPacket->RemoveBaseData(		nDeleteCount);

  002a4	8b 4f 30	 mov	 ecx, DWORD PTR [edi+48]
  002a7	85 c9		 test	 ecx, ecx
  002a9	74 06		 je	 SHORT $LN28@SetRealDat
  002ab	56		 push	 esi
  002ac	e8 00 00 00 00	 call	 ?RemoveBaseData@CPacket@@QAE_NH@Z ; CPacket::RemoveBaseData
$LN28@SetRealDat:

; 338  : 			if( m_pHighPacket)		m_pHighPacket->RemoveBaseData(		nDeleteCount);

  002b1	8b 4f 34	 mov	 ecx, DWORD PTR [edi+52]
  002b4	85 c9		 test	 ecx, ecx
  002b6	74 06		 je	 SHORT $LN29@SetRealDat
  002b8	56		 push	 esi
  002b9	e8 00 00 00 00	 call	 ?RemoveBaseData@CPacket@@QAE_NH@Z ; CPacket::RemoveBaseData
$LN29@SetRealDat:

; 339  : 			if( m_pLowPacket)		m_pLowPacket->RemoveBaseData(		nDeleteCount);

  002be	8b 4f 38	 mov	 ecx, DWORD PTR [edi+56]
  002c1	85 c9		 test	 ecx, ecx
  002c3	74 06		 je	 SHORT $LN30@SetRealDat
  002c5	56		 push	 esi
  002c6	e8 00 00 00 00	 call	 ?RemoveBaseData@CPacket@@QAE_NH@Z ; CPacket::RemoveBaseData
$LN30@SetRealDat:

; 340  : 			if( m_pClosePacket)		m_pClosePacket->RemoveBaseData(		nDeleteCount);

  002cb	8b 4f 3c	 mov	 ecx, DWORD PTR [edi+60]
  002ce	85 c9		 test	 ecx, ecx
  002d0	74 06		 je	 SHORT $LN31@SetRealDat
  002d2	56		 push	 esi
  002d3	e8 00 00 00 00	 call	 ?RemoveBaseData@CPacket@@QAE_NH@Z ; CPacket::RemoveBaseData
$LN31@SetRealDat:

; 341  : 			if( m_pVolumePacket)	m_pVolumePacket->RemoveBaseData(	nDeleteCount);

  002d8	8b 4f 40	 mov	 ecx, DWORD PTR [edi+64]
  002db	85 c9		 test	 ecx, ecx
  002dd	74 06		 je	 SHORT $LN32@SetRealDat
  002df	56		 push	 esi
  002e0	e8 00 00 00 00	 call	 ?RemoveBaseData@CPacket@@QAE_NH@Z ; CPacket::RemoveBaseData
$LN32@SetRealDat:

; 342  : 
; 343  : 			p_nRemovePacketDataCount += nDeleteCount;

  002e5	8b 45 18	 mov	 eax, DWORD PTR _p_nRemovePacketDataCount$[ebp]
  002e8	01 30		 add	 DWORD PTR [eax], esi

; 344  : 		}
; 345  : 		return true;

  002ea	e9 b6 01 00 00	 jmp	 $LN20@SetRealDat
$LN21@SetRealDat:

; 346  : 	}
; 347  : 
; 348  : 	// 4.  Packet 
; 349  : 	//		   Update  Insert Index (m_nUpdateOrAppendIndex) .
; 350  : 	if( pPacket == m_pRealBasePacket)

  002ef	8b 4f 08	 mov	 ecx, DWORD PTR [edi+8]
  002f2	3b d9		 cmp	 ebx, ecx
  002f4	75 76		 jne	 SHORT $LN33@SetRealDat

; 351  : 	{
; 352  : 		m_nUpdateOrAppendIndex = -1;
; 353  : 		int nIndex = 0;
; 354  : 		CList<double, double>* pDataList = pPacket->GetnumericDataList();

  002f6	8b cb		 mov	 ecx, ebx
  002f8	c7 47 0c ff ff
	ff ff		 mov	 DWORD PTR [edi+12], -1
  002ff	33 f6		 xor	 esi, esi
  00301	e8 00 00 00 00	 call	 ?GetnumericDataList@CPacket@@QAEPAV?$CList@NN@@XZ ; CPacket::GetnumericDataList

; 355  : 		if( !pDataList) return false;

  00306	85 c0		 test	 eax, eax
  00308	74 3b		 je	 SHORT $LN74@SetRealDat

; 356  : 
; 357  : 		POSITION pos = pDataList->GetHeadPosition();

  0030a	8b 48 04	 mov	 ecx, DWORD PTR [eax+4]

; 358  : 		while(pos != NULL)

  0030d	f2 0f 10 4d e4	 movsd	 xmm1, QWORD PTR _dRealData$[ebp]
  00312	85 c9		 test	 ecx, ecx
  00314	74 1e		 je	 SHORT $LN3@SetRealDat
$LL2@SetRealDat:

; 359  : 		{
; 360  : 			double dOrgData = pDataList->GetNext(pos);

  00316	f2 0f 10 41 08	 movsd	 xmm0, QWORD PTR [ecx+8]
; File C:\Program Files (x86)\Microsoft Visual Studio\2019\Community\VC\Tools\MSVC\14.29.30133\atlmfc\include\afxtempl.h

; 811  : 	{ CNode* pNode = (CNode*) rPosition;

  0031b	8d 01		 lea	 eax, DWORD PTR [ecx]

; 812  : 		ASSERT(AfxIsValidAddress(pNode, sizeof(CNode)));
; 813  : 		rPosition = (POSITION) pNode->pNext;

  0031d	8b 09		 mov	 ecx, DWORD PTR [ecx]
; File D:\git\src\IBK\IBK_DRFN\ProjSrc\SrcChartEx\ChartOCX\PacketData\RealModuleCenter.cpp

; 361  : 			if( dRealData == dOrgData) //Update

  0031f	66 0f 2e c8	 ucomisd xmm1, xmm0
  00323	9f		 lahf
  00324	f6 c4 44	 test	 ah, 68			; 00000044H
  00327	7b 3b		 jnp	 SHORT $LN63@SetRealDat

; 365  : 			}
; 366  : 			else if( dRealData < dOrgData) //Insert

  00329	66 0f 2f c1	 comisd	 xmm0, xmm1
  0032d	77 1d		 ja	 SHORT $LN64@SetRealDat

; 371  : 			}
; 372  : 			nIndex++;

  0032f	46		 inc	 esi
  00330	85 c9		 test	 ecx, ecx
  00332	75 e2		 jne	 SHORT $LL2@SetRealDat
$LN3@SetRealDat:

; 373  : 		}
; 374  : 
; 375  : 		//AddTail
; 376  : 		pPacket->AppendData(dRealData);

  00334	6a ff		 push	 -1
  00336	83 ec 08	 sub	 esp, 8
  00339	8b cb		 mov	 ecx, ebx
  0033b	f2 0f 11 0c 24	 movsd	 QWORD PTR [esp], xmm1
  00340	e8 00 00 00 00	 call	 ?AppendData@CPacket@@QAEXNH@Z ; CPacket::AppendData
$LN74@SetRealDat:

; 405  : 	}
; 406  : 	return true;

  00345	32 db		 xor	 bl, bl
  00347	e9 5b 01 00 00	 jmp	 $LN44@SetRealDat
$LN64@SetRealDat:

; 367  : 			{
; 368  : 				m_nUpdateOrAppendIndex = nIndex;
; 369  : 				pPacket->AppendData( dRealData, m_nUpdateOrAppendIndex);

  0034c	56		 push	 esi
  0034d	83 ec 08	 sub	 esp, 8
  00350	89 77 0c	 mov	 DWORD PTR [edi+12], esi
  00353	8b cb		 mov	 ecx, ebx
  00355	f2 0f 11 0c 24	 movsd	 QWORD PTR [esp], xmm1
  0035a	e8 00 00 00 00	 call	 ?AppendData@CPacket@@QAEXNH@Z ; CPacket::AppendData

; 370  : 				return true;

  0035f	e9 41 01 00 00	 jmp	 $LN20@SetRealDat
$LN63@SetRealDat:

; 362  : 			{
; 363  : 				m_nUpdateOrAppendIndex = nIndex;

  00364	89 77 0c	 mov	 DWORD PTR [edi+12], esi

; 364  : 				return true;

  00367	e9 39 01 00 00	 jmp	 $LN20@SetRealDat
$LN33@SetRealDat:

; 377  : 		return false;
; 378  : 	}
; 379  : 
; 380  : 	// 5.  Packet 
; 381  : 	if( m_pRealBasePacket)

  0036c	85 c9		 test	 ecx, ecx
  0036e	74 23		 je	 SHORT $LN38@SetRealDat

; 382  : 	{
; 383  : 		double dPrevData = 0;
; 384  : 		SetAppendOrUpdateData_DataInDate( pPacket, m_pRealBasePacket->GetCount(), dRealData, dPrevData);

  00370	8d 45 dc	 lea	 eax, DWORD PTR _dPrevData$2[ebp]
  00373	0f 57 c0	 xorps	 xmm0, xmm0
  00376	50		 push	 eax
  00377	8d 45 e4	 lea	 eax, DWORD PTR _dRealData$[ebp]
  0037a	f2 0f 11 45 dc	 movsd	 QWORD PTR _dPrevData$2[ebp], xmm0
  0037f	50		 push	 eax
  00380	8b 01		 mov	 eax, DWORD PTR [ecx]
  00382	ff 50 14	 call	 DWORD PTR [eax+20]
  00385	50		 push	 eax
  00386	53		 push	 ebx
  00387	8b cf		 mov	 ecx, edi
  00389	e8 00 00 00 00	 call	 ?SetAppendOrUpdateData_DataInDate@CRealModuleCenter@@QAE_NPAVCPacket@@HABNAAN@Z ; CRealModuleCenter::SetAppendOrUpdateData_DataInDate

; 385  : 	}

  0038e	e9 12 01 00 00	 jmp	 $LN20@SetRealDat
$LN38@SetRealDat:

; 386  : 	else
; 387  : 	{
; 388  : 		if( m_nUpdateOrAppendIndex >= -1)

  00393	8b 47 0c	 mov	 eax, DWORD PTR [edi+12]
  00396	8b cb		 mov	 ecx, ebx
  00398	f2 0f 10 45 e4	 movsd	 xmm0, QWORD PTR _dRealData$[ebp]
  0039d	83 f8 ff	 cmp	 eax, -1
  003a0	7c 1b		 jl	 SHORT $LN40@SetRealDat

; 389  : 		{
; 390  : 			// (2009/10/20 - Seung-Won, Bae) m_nUpdateOrAppendIndex  Packet     .
; 391  : 			//	      -1 , -1  ?
; 392  : 			ASSERT( m_nUpdateOrAppendIndex == -1);
; 393  : 
; 394  : 			pPacket->AppendData( dRealData, m_nUpdateOrAppendIndex);

  003a2	50		 push	 eax
  003a3	83 ec 08	 sub	 esp, 8
  003a6	f2 0f 11 04 24	 movsd	 QWORD PTR [esp], xmm0
  003ab	e8 00 00 00 00	 call	 ?AppendData@CPacket@@QAEXNH@Z ; CPacket::AppendData

; 403  : 		}
; 404  : 		SetPacketMinMaxAndUpdateRage(pPacket);

  003b0	53		 push	 ebx
  003b1	8b cf		 mov	 ecx, edi
  003b3	e8 00 00 00 00	 call	 ?SetPacketMinMaxAndUpdateRage@CRealModuleCenter@@QAEXPAVCPacket@@@Z ; CRealModuleCenter::SetPacketMinMaxAndUpdateRage

; 405  : 	}
; 406  : 	return true;

  003b8	e9 e8 00 00 00	 jmp	 $LN20@SetRealDat
$LN40@SetRealDat:

; 395  : 		}
; 396  : 		else
; 397  : 		{
; 398  : 			// (2009/10/20 - Seung-Won, Bae) m_nUpdateOrAppendIndex  Packet     .
; 399  : 			//	      -1 , -1   ?
; 400  : 			ASSERT( FALSE);
; 401  : 
; 402  : 			pPacket->UpdateData( dRealData, m_nUpdateOrAppendIndex);

  003bd	6a 01		 push	 1
  003bf	50		 push	 eax
  003c0	83 ec 08	 sub	 esp, 8
  003c3	f2 0f 11 04 24	 movsd	 QWORD PTR [esp], xmm0
  003c8	e8 00 00 00 00	 call	 ?UpdateData@CPacket@@QAEXNH_N@Z ; CPacket::UpdateData

; 403  : 		}
; 404  : 		SetPacketMinMaxAndUpdateRage(pPacket);

  003cd	53		 push	 ebx
  003ce	8b cf		 mov	 ecx, edi
  003d0	e8 00 00 00 00	 call	 ?SetPacketMinMaxAndUpdateRage@CRealModuleCenter@@QAEXPAVCPacket@@@Z ; CRealModuleCenter::SetPacketMinMaxAndUpdateRage

; 405  : 	}
; 406  : 	return true;

  003d5	e9 cb 00 00 00	 jmp	 $LN20@SetRealDat
$LN10@SetRealDat:

; 275  : 	//>>
; 276  : 	{
; 277  : 		// // 
; 278  : 		double dPrevData = dRealData;

  003da	f2 0f 10 45 e4	 movsd	 xmm0, QWORD PTR _dRealData$[ebp]

; 279  : 		if( m_pRealBasePacket) SetAppendOrUpdateData_DataInDate( pPacket, m_pRealBasePacket->GetCount(), dRealData, dPrevData);

  003df	8b 4f 08	 mov	 ecx, DWORD PTR [edi+8]
  003e2	f2 0f 11 45 dc	 movsd	 QWORD PTR _dPrevData$4[ebp], xmm0
  003e7	85 c9		 test	 ecx, ecx
  003e9	74 16		 je	 SHORT $LN11@SetRealDat
  003eb	8d 45 dc	 lea	 eax, DWORD PTR _dPrevData$4[ebp]
  003ee	50		 push	 eax
  003ef	8d 45 e4	 lea	 eax, DWORD PTR _dRealData$[ebp]
  003f2	50		 push	 eax
  003f3	8b 01		 mov	 eax, DWORD PTR [ecx]
  003f5	ff 50 14	 call	 DWORD PTR [eax+20]
  003f8	50		 push	 eax
  003f9	53		 push	 ebx
  003fa	8b cf		 mov	 ecx, edi
  003fc	e8 00 00 00 00	 call	 ?SetAppendOrUpdateData_DataInDate@CRealModuleCenter@@QAE_NPAVCPacket@@HABNAAN@Z ; CRealModuleCenter::SetAppendOrUpdateData_DataInDate
$LN11@SetRealDat:

; 280  : 		// //       SetAppendOrUpdateData_DataInDate()  .
; 281  : 		int nCloseCount = pPacket->GetCount();

  00401	8b 03		 mov	 eax, DWORD PTR [ebx]
  00403	8b cb		 mov	 ecx, ebx
  00405	ff 50 14	 call	 DWORD PTR [eax+20]
  00408	8b f0		 mov	 esi, eax

; 282  : 		if( 0 < nCloseCount)

  0040a	85 f6		 test	 esi, esi
  0040c	0f 8e 93 00 00
	00		 jle	 $LN20@SetRealDat

; 283  : 		{
; 284  : 			if( m_pOpenPacket) if( m_pOpenPacket->GetnumericDataList())

  00412	8b 4f 30	 mov	 ecx, DWORD PTR [edi+48]
  00415	85 c9		 test	 ecx, ecx
  00417	74 1c		 je	 SHORT $LN14@SetRealDat
  00419	e8 00 00 00 00	 call	 ?GetnumericDataList@CPacket@@QAEPAV?$CList@NN@@XZ ; CPacket::GetnumericDataList
  0041e	85 c0		 test	 eax, eax
  00420	74 13		 je	 SHORT $LN14@SetRealDat

; 285  : 				SetAppendData( m_pOpenPacket, nCloseCount, dRealData, dPrevData);

  00422	8d 45 dc	 lea	 eax, DWORD PTR _dPrevData$4[ebp]
  00425	8b cf		 mov	 ecx, edi
  00427	50		 push	 eax
  00428	8d 45 e4	 lea	 eax, DWORD PTR _dRealData$[ebp]
  0042b	50		 push	 eax
  0042c	56		 push	 esi
  0042d	ff 77 30	 push	 DWORD PTR [edi+48]
  00430	e8 00 00 00 00	 call	 ?SetAppendData@CRealModuleCenter@@QAE_NPAVCPacket@@HABN1@Z ; CRealModuleCenter::SetAppendData
$LN14@SetRealDat:

; 286  : 
; 287  : 			if( m_pHighPacket)

  00435	8b 4f 34	 mov	 ecx, DWORD PTR [edi+52]
  00438	85 c9		 test	 ecx, ecx
  0043a	74 31		 je	 SHORT $LN17@SetRealDat

; 288  : 				if( m_pHighPacket->GetnumericDataList())

  0043c	e8 00 00 00 00	 call	 ?GetnumericDataList@CPacket@@QAEPAV?$CList@NN@@XZ ; CPacket::GetnumericDataList
  00441	85 c0		 test	 eax, eax
  00443	74 28		 je	 SHORT $LN17@SetRealDat

; 289  : 					if( !SetAppendData( m_pHighPacket, nCloseCount, dRealData, dPrevData))

  00445	8d 45 dc	 lea	 eax, DWORD PTR _dPrevData$4[ebp]
  00448	8b cf		 mov	 ecx, edi
  0044a	50		 push	 eax
  0044b	8d 45 e4	 lea	 eax, DWORD PTR _dRealData$[ebp]
  0044e	50		 push	 eax
  0044f	56		 push	 esi
  00450	ff 77 34	 push	 DWORD PTR [edi+52]
  00453	e8 00 00 00 00	 call	 ?SetAppendData@CRealModuleCenter@@QAE_NPAVCPacket@@HABN1@Z ; CRealModuleCenter::SetAppendData
  00458	84 c0		 test	 al, al
  0045a	75 11		 jne	 SHORT $LN17@SetRealDat

; 290  : 						SetUpdateData_Compare( m_pHighPacket, nCloseCount, dRealData, false);

  0045c	6a 00		 push	 0
  0045e	8d 45 e4	 lea	 eax, DWORD PTR _dRealData$[ebp]
  00461	8b cf		 mov	 ecx, edi
  00463	50		 push	 eax
  00464	56		 push	 esi
  00465	ff 77 34	 push	 DWORD PTR [edi+52]
  00468	e8 00 00 00 00	 call	 ?SetUpdateData_Compare@CRealModuleCenter@@QAE_NPAVCPacket@@HABN_N@Z ; CRealModuleCenter::SetUpdateData_Compare
$LN17@SetRealDat:

; 291  : 
; 292  : 			if( m_pLowPacket)

  0046d	8b 4f 38	 mov	 ecx, DWORD PTR [edi+56]
  00470	85 c9		 test	 ecx, ecx
  00472	74 31		 je	 SHORT $LN20@SetRealDat

; 293  : 				if( m_pLowPacket->GetnumericDataList())

  00474	e8 00 00 00 00	 call	 ?GetnumericDataList@CPacket@@QAEPAV?$CList@NN@@XZ ; CPacket::GetnumericDataList
  00479	85 c0		 test	 eax, eax
  0047b	74 28		 je	 SHORT $LN20@SetRealDat

; 294  : 					if( !SetAppendData( m_pLowPacket, nCloseCount, dRealData, dPrevData))

  0047d	8d 45 dc	 lea	 eax, DWORD PTR _dPrevData$4[ebp]
  00480	8b cf		 mov	 ecx, edi
  00482	50		 push	 eax
  00483	8d 45 e4	 lea	 eax, DWORD PTR _dRealData$[ebp]
  00486	50		 push	 eax
  00487	56		 push	 esi
  00488	ff 77 38	 push	 DWORD PTR [edi+56]
  0048b	e8 00 00 00 00	 call	 ?SetAppendData@CRealModuleCenter@@QAE_NPAVCPacket@@HABN1@Z ; CRealModuleCenter::SetAppendData
  00490	84 c0		 test	 al, al
  00492	75 11		 jne	 SHORT $LN20@SetRealDat

; 295  : 						SetUpdateData_Compare( m_pLowPacket, nCloseCount, dRealData, true);

  00494	6a 01		 push	 1
  00496	8d 45 e4	 lea	 eax, DWORD PTR _dRealData$[ebp]
  00499	8b cf		 mov	 ecx, edi
  0049b	50		 push	 eax
  0049c	56		 push	 esi
  0049d	ff 77 38	 push	 DWORD PTR [edi+56]
  004a0	e8 00 00 00 00	 call	 ?SetUpdateData_Compare@CRealModuleCenter@@QAE_NPAVCPacket@@HABN_N@Z ; CRealModuleCenter::SetUpdateData_Compare
$LN20@SetRealDat:

; 405  : 	}
; 406  : 	return true;

  004a5	b3 01		 mov	 bl, 1
$LN44@SetRealDat:
  004a7	8d 4d 08	 lea	 ecx, DWORD PTR _strPacketName$[ebp]
  004aa	ff 15 00 00 00
	00		 call	 DWORD PTR __imp_??1?$CStringT@DV?$StrTraitMFC_DLL@DV?$ChTraitsCRT@D@ATL@@@@@ATL@@QAE@XZ
  004b0	8a c3		 mov	 al, bl

; 407  : }

  004b2	8b 4d f4	 mov	 ecx, DWORD PTR __$EHRec$[ebp]
  004b5	64 89 0d 00 00
	00 00		 mov	 DWORD PTR fs:0, ecx
  004bc	59		 pop	 ecx
  004bd	5f		 pop	 edi
  004be	5e		 pop	 esi
  004bf	5b		 pop	 ebx
  004c0	8b e5		 mov	 esp, ebp
  004c2	5d		 pop	 ebp
  004c3	c2 14 00	 ret	 20			; 00000014H
_TEXT	ENDS
;	COMDAT text$x
text$x	SEGMENT
__unwindfunclet$?SetRealData@CRealModuleCenter@@QAE_NPAVCPacket@@NHAAH@Z$0:
  00000	8d 4d 08	 lea	 ecx, DWORD PTR _strPacketName$[ebp]
  00003	ff 25 00 00 00
	00		 jmp	 DWORD PTR __imp_??1?$CStringT@DV?$StrTraitMFC_DLL@DV?$ChTraitsCRT@D@ATL@@@@@ATL@@QAE@XZ
  00009	cc		 int	 3
  0000a	cc		 int	 3
  0000b	cc		 int	 3
  0000c	cc		 int	 3
  0000d	cc		 int	 3
__ehhandler$?SetRealData@CRealModuleCenter@@QAE_NPAVCPacket@@NHAAH@Z:
  0000e	90		 npad	 1
  0000f	90		 npad	 1
  00010	8b 54 24 08	 mov	 edx, DWORD PTR [esp+8]
  00014	8d 42 0c	 lea	 eax, DWORD PTR [edx+12]
  00017	8b 4a d8	 mov	 ecx, DWORD PTR [edx-40]
  0001a	33 c8		 xor	 ecx, eax
  0001c	e8 00 00 00 00	 call	 @__security_check_cookie@4
  00021	b8 00 00 00 00	 mov	 eax, OFFSET __ehfuncinfo$?SetRealData@CRealModuleCenter@@QAE_NPAVCPacket@@NHAAH@Z
  00026	e9 00 00 00 00	 jmp	 ___CxxFrameHandler3
text$x	ENDS
?SetRealData@CRealModuleCenter@@QAE_NPAVCPacket@@NHAAH@Z ENDP ; CRealModuleCenter::SetRealData
; Function compile flags: /Ogtp
; File D:\git\src\IBK\IBK_DRFN\ProjSrc\SrcChartEx\ChartOCX\PacketData\RealModuleCenter.cpp
; File C:\Program Files (x86)\Microsoft Visual Studio\2019\Community\VC\Tools\MSVC\14.29.30133\atlmfc\include\afxtempl.h
; File D:\git\src\IBK\IBK_DRFN\ProjSrc\SrcChartEx\ChartOCX\PacketData\RealModuleCenter.cpp
; File C:\Program Files (x86)\Microsoft Visual Studio\2019\Community\VC\Tools\MSVC\14.29.30133\atlmfc\include\afxtempl.h
; File D:\git\src\IBK\IBK_DRFN\ProjSrc\SrcChartEx\ChartOCX\PacketData\RealModuleCenter.cpp
;	COMDAT ?SetUpdateData_Compare@CRealModuleCenter@@QAE_NPAVCPacket@@HABN_N@Z
_TEXT	SEGMENT
_pPacket$ = 8						; size = 4
_nBaseCount$ = 12					; size = 4
_dData$ = 16						; size = 4
_bLowCheck$ = 20					; size = 1
?SetUpdateData_Compare@CRealModuleCenter@@QAE_NPAVCPacket@@HABN_N@Z PROC ; CRealModuleCenter::SetUpdateData_Compare, COMDAT
; _this$ = ecx

; 238  : {

  00000	55		 push	 ebp
  00001	8b ec		 mov	 ebp, esp
  00003	53		 push	 ebx
  00004	56		 push	 esi

; 239  : 	if( pPacket->GetCount() < nBaseCount) return false;

  00005	8b 75 08	 mov	 esi, DWORD PTR _pPacket$[ebp]
  00008	8b d9		 mov	 ebx, ecx
  0000a	57		 push	 edi
  0000b	8b 7d 10	 mov	 edi, DWORD PTR _dData$[ebp]
  0000e	8b ce		 mov	 ecx, esi
  00010	8b 06		 mov	 eax, DWORD PTR [esi]
  00012	ff 50 14	 call	 DWORD PTR [eax+20]
  00015	3b 45 0c	 cmp	 eax, DWORD PTR _nBaseCount$[ebp]
  00018	7c 49		 jl	 SHORT $LN4@SetUpdateD

; 241  : 	double dTailData = pPacket->GetnumericDataList()->GetTail();

  0001a	8b ce		 mov	 ecx, esi
  0001c	e8 00 00 00 00	 call	 ?GetnumericDataList@CPacket@@QAEPAV?$CList@NN@@XZ ; CPacket::GetnumericDataList
; File C:\Program Files (x86)\Microsoft Visual Studio\2019\Community\VC\Tools\MSVC\14.29.30133\atlmfc\include\afxtempl.h

; 797  : 	{ ENSURE(m_pNodeTail != NULL);

  00021	8b 40 08	 mov	 eax, DWORD PTR [eax+8]
  00024	85 c0		 test	 eax, eax
  00026	74 44		 je	 SHORT $LN20@SetUpdateD
; File D:\git\src\IBK\IBK_DRFN\ProjSrc\SrcChartEx\ChartOCX\PacketData\RealModuleCenter.cpp

; 241  : 	double dTailData = pPacket->GetnumericDataList()->GetTail();

  00028	80 7d 14 00	 cmp	 BYTE PTR _bLowCheck$[ebp], 0
  0002c	f2 0f 10 48 08	 movsd	 xmm1, QWORD PTR [eax+8]
  00031	f2 0f 10 07	 movsd	 xmm0, QWORD PTR [edi]

; 242  : 	// (bLowCheck : true), (bLowCheck : false)  
; 243  : 	if( bLowCheck && (dTailData <= dData) || !bLowCheck && (dTailData >= dData))

  00035	74 06		 je	 SHORT $LN16@SetUpdateD
  00037	66 0f 2f c1	 comisd	 xmm0, xmm1
  0003b	eb 04		 jmp	 SHORT $LN18@SetUpdateD
$LN16@SetUpdateD:
  0003d	66 0f 2f c8	 comisd	 xmm1, xmm0
$LN18@SetUpdateD:

; 244  : 		return false;
; 245  : 
; 246  : 	pPacket->UpdateData(dData);

  00041	73 20		 jae	 SHORT $LN4@SetUpdateD
  00043	83 ec 08	 sub	 esp, 8
  00046	8b ce		 mov	 ecx, esi
  00048	f2 0f 11 04 24	 movsd	 QWORD PTR [esp], xmm0
  0004d	e8 00 00 00 00	 call	 ?UpdateData@CPacket@@QAEXN@Z ; CPacket::UpdateData

; 247  : 	SetPacketMinMaxAndUpdateRage(pPacket);

  00052	56		 push	 esi
  00053	8b cb		 mov	 ecx, ebx
  00055	e8 00 00 00 00	 call	 ?SetPacketMinMaxAndUpdateRage@CRealModuleCenter@@QAEXPAVCPacket@@@Z ; CRealModuleCenter::SetPacketMinMaxAndUpdateRage
  0005a	5f		 pop	 edi

; 249  : }

  0005b	5e		 pop	 esi
  0005c	b0 01		 mov	 al, 1
  0005e	5b		 pop	 ebx
  0005f	5d		 pop	 ebp
  00060	c2 10 00	 ret	 16			; 00000010H
$LN4@SetUpdateD:
  00063	5f		 pop	 edi
  00064	5e		 pop	 esi
  00065	32 c0		 xor	 al, al
  00067	5b		 pop	 ebx
  00068	5d		 pop	 ebp
  00069	c2 10 00	 ret	 16			; 00000010H
$LN20@SetUpdateD:
; File C:\Program Files (x86)\Microsoft Visual Studio\2019\Community\VC\Tools\MSVC\14.29.30133\atlmfc\include\afxtempl.h

; 797  : 	{ ENSURE(m_pNodeTail != NULL);

  0006c	e8 00 00 00 00	 call	 ?AfxThrowInvalidArgException@@YGXXZ ; AfxThrowInvalidArgException
$LN17@SetUpdateD:
  00071	cc		 int	 3
?SetUpdateData_Compare@CRealModuleCenter@@QAE_NPAVCPacket@@HABN_N@Z ENDP ; CRealModuleCenter::SetUpdateData_Compare
_TEXT	ENDS
; Function compile flags: /Ogtp
; File D:\git\src\IBK\IBK_DRFN\ProjSrc\SrcChartEx\ChartOCX\PacketData\RealModuleCenter.cpp
;	COMDAT ?SetAppendData@CRealModuleCenter@@QAE_NPAVCPacket@@HABN1@Z
_TEXT	SEGMENT
_this$1$ = -4						; size = 4
_pPacket$ = 8						; size = 4
_nBaseCount$ = 12					; size = 4
_dData$ = 16						; size = 4
_dPrevData$ = 20					; size = 4
?SetAppendData@CRealModuleCenter@@QAE_NPAVCPacket@@HABN1@Z PROC ; CRealModuleCenter::SetAppendData, COMDAT
; _this$ = ecx

; 222  : {

  00000	55		 push	 ebp
  00001	8b ec		 mov	 ebp, esp
  00003	51		 push	 ecx
  00004	53		 push	 ebx
  00005	56		 push	 esi
  00006	57		 push	 edi

; 223  : 	if( !pPacket) return false;

  00007	8b 7d 08	 mov	 edi, DWORD PTR _pPacket$[ebp]
  0000a	8b d9		 mov	 ebx, ecx
  0000c	89 5d fc	 mov	 DWORD PTR _this$1$[ebp], ebx
  0000f	85 ff		 test	 edi, edi
  00011	0f 84 b7 00 00
	00		 je	 $LN7@SetAppendD

; 224  : 
; 225  : 	int nCount = pPacket->GetCount();

  00017	8b 07		 mov	 eax, DWORD PTR [edi]
  00019	8b cf		 mov	 ecx, edi
  0001b	ff 50 14	 call	 DWORD PTR [eax+20]

; 226  : 	if( nBaseCount <= 0 || nBaseCount <= nCount) return false;

  0001e	8b 75 0c	 mov	 esi, DWORD PTR _nBaseCount$[ebp]
  00021	85 f6		 test	 esi, esi
  00023	0f 8e a5 00 00
	00		 jle	 $LN7@SetAppendD
  00029	3b f0		 cmp	 esi, eax
  0002b	0f 8e 9d 00 00
	00		 jle	 $LN7@SetAppendD

; 227  : 
; 228  : 	// Base( or )   . Base=data
; 229  : 	for( int nIndex = ( nCount < 0 ? 0 : nCount); nIndex < ( nBaseCount - 1); nIndex++)

  00031	33 c9		 xor	 ecx, ecx
  00033	4e		 dec	 esi
  00034	85 c0		 test	 eax, eax
  00036	0f 48 c1	 cmovs	 eax, ecx
  00039	3b c6		 cmp	 eax, esi
  0003b	7d 22		 jge	 SHORT $LN3@SetAppendD
  0003d	8b 5d 14	 mov	 ebx, DWORD PTR _dPrevData$[ebp]
  00040	2b f0		 sub	 esi, eax
$LL4@SetAppendD:

; 230  : 		pPacket->AppendData( dPrevData);

  00042	f2 0f 10 03	 movsd	 xmm0, QWORD PTR [ebx]
  00046	8b cf		 mov	 ecx, edi
  00048	6a ff		 push	 -1
  0004a	83 ec 08	 sub	 esp, 8
  0004d	f2 0f 11 04 24	 movsd	 QWORD PTR [esp], xmm0
  00052	e8 00 00 00 00	 call	 ?AppendData@CPacket@@QAEXNH@Z ; CPacket::AppendData
  00057	83 ee 01	 sub	 esi, 1
  0005a	75 e6		 jne	 SHORT $LL4@SetAppendD
  0005c	8b 5d fc	 mov	 ebx, DWORD PTR _this$1$[ebp]
$LN3@SetAppendD:

; 231  : 
; 232  : 	pPacket->AppendData(dData);

  0005f	8b 45 10	 mov	 eax, DWORD PTR _dData$[ebp]
  00062	8b cf		 mov	 ecx, edi
  00064	6a ff		 push	 -1
  00066	83 ec 08	 sub	 esp, 8
  00069	f2 0f 10 00	 movsd	 xmm0, QWORD PTR [eax]
  0006d	f2 0f 11 04 24	 movsd	 QWORD PTR [esp], xmm0
  00072	e8 00 00 00 00	 call	 ?AppendData@CPacket@@QAEXNH@Z ; CPacket::AppendData

; 114  : 	int nDataCount = pPacket->GetCount();

  00077	8b 07		 mov	 eax, DWORD PTR [edi]
  00079	8b cf		 mov	 ecx, edi
  0007b	ff 50 14	 call	 DWORD PTR [eax+20]

; 115  : 	// data  
; 116  : 	if(nDataCount <= 0)

  0007e	85 c0		 test	 eax, eax
  00080	7f 19		 jg	 SHORT $LN10@SetAppendD

; 235  : }

  00082	5f		 pop	 edi
  00083	5e		 pop	 esi

; 117  : 		m_ptUpdateRange = CPoint(-1, -1);

  00084	c7 43 10 ff ff
	ff ff		 mov	 DWORD PTR [ebx+16], -1

; 233  : 	SetPacketMinMaxAndUpdateRage(pPacket);
; 234  : 	return true;

  0008b	b0 01		 mov	 al, 1

; 117  : 		m_ptUpdateRange = CPoint(-1, -1);

  0008d	c7 43 14 ff ff
	ff ff		 mov	 DWORD PTR [ebx+20], -1

; 235  : }

  00094	5b		 pop	 ebx
  00095	8b e5		 mov	 esp, ebp
  00097	5d		 pop	 ebp
  00098	c2 10 00	 ret	 16			; 00000010H
$LN10@SetAppendD:

; 119  : 	else if(nDataCount == 1)

  0009b	83 f8 01	 cmp	 eax, 1
  0009e	75 19		 jne	 SHORT $LN12@SetAppendD

; 235  : }

  000a0	5f		 pop	 edi
  000a1	5e		 pop	 esi

; 120  : 		m_ptUpdateRange = CPoint(0, 0);

  000a2	c7 43 10 00 00
	00 00		 mov	 DWORD PTR [ebx+16], 0

; 233  : 	SetPacketMinMaxAndUpdateRage(pPacket);
; 234  : 	return true;

  000a9	8a c0		 mov	 al, al

; 120  : 		m_ptUpdateRange = CPoint(0, 0);

  000ab	c7 43 14 00 00
	00 00		 mov	 DWORD PTR [ebx+20], 0

; 235  : }

  000b2	5b		 pop	 ebx
  000b3	8b e5		 mov	 esp, ebp
  000b5	5d		 pop	 ebp
  000b6	c2 10 00	 ret	 16			; 00000010H
$LN12@SetAppendD:

; 123  : 		m_ptUpdateRange = CPoint(nDataCount - 2, nDataCount - 1);

  000b9	8d 48 fe	 lea	 ecx, DWORD PTR [eax-2]
  000bc	48		 dec	 eax
  000bd	5f		 pop	 edi
  000be	89 43 14	 mov	 DWORD PTR [ebx+20], eax

; 233  : 	SetPacketMinMaxAndUpdateRage(pPacket);
; 234  : 	return true;

  000c1	b0 01		 mov	 al, 1

; 235  : }

  000c3	5e		 pop	 esi

; 123  : 		m_ptUpdateRange = CPoint(nDataCount - 2, nDataCount - 1);

  000c4	89 4b 10	 mov	 DWORD PTR [ebx+16], ecx

; 235  : }

  000c7	5b		 pop	 ebx
  000c8	8b e5		 mov	 esp, ebp
  000ca	5d		 pop	 ebp
  000cb	c2 10 00	 ret	 16			; 00000010H
$LN7@SetAppendD:
  000ce	5f		 pop	 edi
  000cf	5e		 pop	 esi
  000d0	32 c0		 xor	 al, al
  000d2	5b		 pop	 ebx
  000d3	8b e5		 mov	 esp, ebp
  000d5	5d		 pop	 ebp
  000d6	c2 10 00	 ret	 16			; 00000010H
?SetAppendData@CRealModuleCenter@@QAE_NPAVCPacket@@HABN1@Z ENDP ; CRealModuleCenter::SetAppendData
_TEXT	ENDS
; Function compile flags: /Ogtp
; File D:\git\src\IBK\IBK_DRFN\ProjSrc\SrcChartEx\ChartOCX\PacketData\RealModuleCenter.cpp
;	COMDAT ?SetAppendOrUpdateData_DataInDate@CRealModuleCenter@@QAE_NPAVCPacket@@HABNAAN@Z
_TEXT	SEGMENT
_this$1$ = -4						; size = 4
_pPacket$ = 8						; size = 4
_nBaseCount$ = 12					; size = 4
_dData$ = 16						; size = 4
_dPrevData$ = 20					; size = 4
?SetAppendOrUpdateData_DataInDate@CRealModuleCenter@@QAE_NPAVCPacket@@HABNAAN@Z PROC ; CRealModuleCenter::SetAppendOrUpdateData_DataInDate, COMDAT
; _this$ = ecx

; 189  : {

  00000	55		 push	 ebp
  00001	8b ec		 mov	 ebp, esp
  00003	51		 push	 ecx
  00004	53		 push	 ebx
  00005	56		 push	 esi

; 190  : 	if( !pPacket) return false;

  00006	8b 75 08	 mov	 esi, DWORD PTR _pPacket$[ebp]
  00009	57		 push	 edi
  0000a	8b f9		 mov	 edi, ecx
  0000c	89 7d fc	 mov	 DWORD PTR _this$1$[ebp], edi
  0000f	85 f6		 test	 esi, esi
  00011	0f 84 a8 00 00
	00		 je	 $LN9@SetAppendO

; 191  : 
; 192  : 	// Base count > Data count -> Data append
; 193  : 	if( 0 < nBaseCount && pPacket->GetCount() < nBaseCount)

  00017	8b 5d 0c	 mov	 ebx, DWORD PTR _nBaseCount$[ebp]
  0001a	85 db		 test	 ebx, ebx
  0001c	7e 62		 jle	 SHORT $LN7@SetAppendO
  0001e	8b 06		 mov	 eax, DWORD PTR [esi]
  00020	8b ce		 mov	 ecx, esi
  00022	ff 50 14	 call	 DWORD PTR [eax+20]
  00025	3b c3		 cmp	 eax, ebx
  00027	7d 57		 jge	 SHORT $LN7@SetAppendO

; 194  : 	{
; 195  : 		dPrevData = dData;

  00029	8b 45 10	 mov	 eax, DWORD PTR _dData$[ebp]

; 196  : 		// real data    -> "", ""
; 197  : 		if( pPacket->IsChangeRealData())

  0002c	8b ce		 mov	 ecx, esi
  0002e	8b 7d 14	 mov	 edi, DWORD PTR _dPrevData$[ebp]
  00031	f2 0f 10 00	 movsd	 xmm0, QWORD PTR [eax]
  00035	f2 0f 11 07	 movsd	 QWORD PTR [edi], xmm0
  00039	e8 00 00 00 00	 call	 ?IsChangeRealData@CPacket@@QBE_NXZ ; CPacket::IsChangeRealData
  0003e	8b ce		 mov	 ecx, esi
  00040	84 c0		 test	 al, al
  00042	74 0f		 je	 SHORT $LN4@SetAppendO

; 198  : 		{
; 199  : 			dPrevData = 0.0;
; 200  : 			pPacket->GetRealDataGap( dPrevData);

  00044	0f 57 c0	 xorps	 xmm0, xmm0
  00047	57		 push	 edi
  00048	f2 0f 11 07	 movsd	 QWORD PTR [edi], xmm0
  0004c	e8 00 00 00 00	 call	 ?GetRealDataGap@CPacket@@QBE_NAAN@Z ; CPacket::GetRealDataGap

; 201  : 		}

  00051	eb 19		 jmp	 SHORT $LN6@SetAppendO
$LN4@SetAppendO:

; 202  : 		else
; 203  : 		{
; 204  : 			CList<double, double>* pDataList = pPacket->GetnumericDataList();

  00053	e8 00 00 00 00	 call	 ?GetnumericDataList@CPacket@@QAEPAV?$CList@NN@@XZ ; CPacket::GetnumericDataList

; 205  : 			if( pDataList != NULL && pDataList->GetTailPosition() != NULL)

  00058	85 c0		 test	 eax, eax
  0005a	74 10		 je	 SHORT $LN6@SetAppendO
  0005c	8b 40 08	 mov	 eax, DWORD PTR [eax+8]
  0005f	85 c0		 test	 eax, eax
  00061	74 09		 je	 SHORT $LN6@SetAppendO

; 206  : 				dPrevData = pDataList->GetTail();

  00063	f2 0f 10 40 08	 movsd	 xmm0, QWORD PTR [eax+8]
  00068	f2 0f 11 07	 movsd	 QWORD PTR [edi], xmm0
$LN6@SetAppendO:

; 207  : 		}
; 208  : 
; 209  : 		if( SetAppendData(pPacket, nBaseCount, dData, dPrevData)) return true;

  0006c	57		 push	 edi
  0006d	ff 75 10	 push	 DWORD PTR _dData$[ebp]
  00070	8b 7d fc	 mov	 edi, DWORD PTR _this$1$[ebp]
  00073	8b cf		 mov	 ecx, edi
  00075	53		 push	 ebx
  00076	56		 push	 esi
  00077	e8 00 00 00 00	 call	 ?SetAppendData@CRealModuleCenter@@QAE_NPAVCPacket@@HABN1@Z ; CRealModuleCenter::SetAppendData
  0007c	84 c0		 test	 al, al
  0007e	75 34		 jne	 SHORT $LN18@SetAppendO
$LN7@SetAppendO:

; 210  : 	}
; 211  : 
; 212  : 	// Base count <= Data count -> Data update
; 213  : 	if( m_nUpdateOrAppendIndex < -1 || pPacket->GetCount() < nBaseCount)

  00080	83 7f 0c ff	 cmp	 DWORD PTR [edi+12], -1
  00084	7c 39		 jl	 SHORT $LN9@SetAppendO
  00086	8b 06		 mov	 eax, DWORD PTR [esi]
  00088	8b ce		 mov	 ecx, esi
  0008a	ff 50 14	 call	 DWORD PTR [eax+20]
  0008d	3b c3		 cmp	 eax, ebx
  0008f	7c 2e		 jl	 SHORT $LN9@SetAppendO

; 214  : 		return false;
; 215  : 
; 216  : 	pPacket->UpdateData( dData, m_nUpdateOrAppendIndex);

  00091	8b 45 10	 mov	 eax, DWORD PTR _dData$[ebp]
  00094	8b ce		 mov	 ecx, esi
  00096	6a 01		 push	 1
  00098	ff 77 0c	 push	 DWORD PTR [edi+12]
  0009b	f2 0f 10 00	 movsd	 xmm0, QWORD PTR [eax]
  0009f	83 ec 08	 sub	 esp, 8
  000a2	f2 0f 11 04 24	 movsd	 QWORD PTR [esp], xmm0
  000a7	e8 00 00 00 00	 call	 ?UpdateData@CPacket@@QAEXNH_N@Z ; CPacket::UpdateData

; 217  : 	SetPacketMinMaxAndUpdateRage(pPacket);

  000ac	56		 push	 esi
  000ad	8b cf		 mov	 ecx, edi
  000af	e8 00 00 00 00	 call	 ?SetPacketMinMaxAndUpdateRage@CRealModuleCenter@@QAEXPAVCPacket@@@Z ; CRealModuleCenter::SetPacketMinMaxAndUpdateRage
$LN18@SetAppendO:

; 218  : 	return true;
; 219  : }

  000b4	5f		 pop	 edi
  000b5	5e		 pop	 esi
  000b6	b0 01		 mov	 al, 1
  000b8	5b		 pop	 ebx
  000b9	8b e5		 mov	 esp, ebp
  000bb	5d		 pop	 ebp
  000bc	c2 10 00	 ret	 16			; 00000010H
$LN9@SetAppendO:
  000bf	5f		 pop	 edi
  000c0	5e		 pop	 esi
  000c1	32 c0		 xor	 al, al
  000c3	5b		 pop	 ebx
  000c4	8b e5		 mov	 esp, ebp
  000c6	5d		 pop	 ebp
  000c7	c2 10 00	 ret	 16			; 00000010H
?SetAppendOrUpdateData_DataInDate@CRealModuleCenter@@QAE_NPAVCPacket@@HABNAAN@Z ENDP ; CRealModuleCenter::SetAppendOrUpdateData_DataInDate
_TEXT	ENDS
; Function compile flags: /Ogtp
; File D:\git\src\IBK\IBK_DRFN\ProjSrc\SrcChartEx\ChartOCX\PacketData\RealModuleCenter.cpp
;	COMDAT ?GetTimeIntervalWithSecond@CRealModuleCenter@@QAE_JXZ
_TEXT	SEGMENT
?GetTimeIntervalWithSecond@CRealModuleCenter@@QAE_JXZ PROC ; CRealModuleCenter::GetTimeIntervalWithSecond, COMDAT
; _this$ = ecx

; 182  : 	return m_pTimeRealDataModule->GetTimeIntervalWithSecond();

  00000	8b 49 68	 mov	 ecx, DWORD PTR [ecx+104]
  00003	8b 01		 mov	 eax, DWORD PTR [ecx]
  00005	8b 40 14	 mov	 eax, DWORD PTR [eax+20]
  00008	ff e0		 jmp	 eax
?GetTimeIntervalWithSecond@CRealModuleCenter@@QAE_JXZ ENDP ; CRealModuleCenter::GetTimeIntervalWithSecond
_TEXT	ENDS
; Function compile flags: /Ogtp
; File D:\git\src\IBK\IBK_DRFN\ProjSrc\SrcChartEx\ChartOCX\PacketData\RealModuleCenter.cpp
;	COMDAT ?GetTimeInterval@CRealModuleCenter@@QBEHXZ
_TEXT	SEGMENT
?GetTimeInterval@CRealModuleCenter@@QBEHXZ PROC		; CRealModuleCenter::GetTimeInterval, COMDAT
; _this$ = ecx

; 178  : 	return m_nTimeInterval;

  00000	8b 41 2c	 mov	 eax, DWORD PTR [ecx+44]

; 179  : }

  00003	c3		 ret	 0
?GetTimeInterval@CRealModuleCenter@@QBEHXZ ENDP		; CRealModuleCenter::GetTimeInterval
_TEXT	ENDS
; Function compile flags: /Ogtp
; File D:\git\src\IBK\IBK_DRFN\ProjSrc\SrcChartEx\ChartOCX\PacketData\RealModuleCenter.cpp
;	COMDAT ?SetTimeInterval@CRealModuleCenter@@QAEXH@Z
_TEXT	SEGMENT
_nTimeInterval$ = 8					; size = 4
?SetTimeInterval@CRealModuleCenter@@QAEXH@Z PROC	; CRealModuleCenter::SetTimeInterval, COMDAT
; _this$ = ecx

; 168  : {

  00000	55		 push	 ebp
  00001	8b ec		 mov	 ebp, esp

; 169  : 	//>> 20091214_JS.Kim  .   .   UT 0  TimeRange     
; 170  : 	if( nTimeInterval <= 0 )
; 171  : 		m_nTimeInterval = 1;
; 172  : 	else
; 173  : 	//<<
; 174  : 		m_nTimeInterval = nTimeInterval;
; 175  : }

  00003	8b 45 08	 mov	 eax, DWORD PTR _nTimeInterval$[ebp]
  00006	ba 01 00 00 00	 mov	 edx, 1
  0000b	85 c0		 test	 eax, eax
  0000d	0f 4f d0	 cmovg	 edx, eax
  00010	89 51 2c	 mov	 DWORD PTR [ecx+44], edx
  00013	5d		 pop	 ebp
  00014	c2 04 00	 ret	 4
?SetTimeInterval@CRealModuleCenter@@QAEXH@Z ENDP	; CRealModuleCenter::SetTimeInterval
_TEXT	ENDS
; Function compile flags: /Ogtp
; File D:\git\src\IBK\IBK_DRFN\ProjSrc\SrcChartEx\ChartOCX\PacketData\RealModuleCenter.cpp
;	COMDAT ?GetDateUnitType@CRealModuleCenter@@QBE?AW4HORZSCALEDRAWERTYPE@CScaleBaseData@@XZ
_TEXT	SEGMENT
?GetDateUnitType@CRealModuleCenter@@QBE?AW4HORZSCALEDRAWERTYPE@CScaleBaseData@@XZ PROC ; CRealModuleCenter::GetDateUnitType, COMDAT
; _this$ = ecx

; 162  : 	return m_eDateUnitType;

  00000	8b 41 28	 mov	 eax, DWORD PTR [ecx+40]

; 163  : }

  00003	c3		 ret	 0
?GetDateUnitType@CRealModuleCenter@@QBE?AW4HORZSCALEDRAWERTYPE@CScaleBaseData@@XZ ENDP ; CRealModuleCenter::GetDateUnitType
_TEXT	ENDS
; Function compile flags: /Ogtp
; File D:\git\src\IBK\IBK_DRFN\ProjSrc\SrcChartEx\ChartOCX\PacketData\RealModuleCenter.cpp
;	COMDAT ?SetDateUnitType@CRealModuleCenter@@QAEXW4HORZSCALEDRAWERTYPE@CScaleBaseData@@@Z
_TEXT	SEGMENT
_eDateUnitType$ = 8					; size = 4
?SetDateUnitType@CRealModuleCenter@@QAEXW4HORZSCALEDRAWERTYPE@CScaleBaseData@@@Z PROC ; CRealModuleCenter::SetDateUnitType, COMDAT
; _this$ = ecx

; 157  : {

  00000	55		 push	 ebp
  00001	8b ec		 mov	 ebp, esp

; 158  : 	m_eDateUnitType = eDateUnitType;

  00003	8b 45 08	 mov	 eax, DWORD PTR _eDateUnitType$[ebp]
  00006	89 41 28	 mov	 DWORD PTR [ecx+40], eax

; 159  : }

  00009	5d		 pop	 ebp
  0000a	c2 04 00	 ret	 4
?SetDateUnitType@CRealModuleCenter@@QAEXW4HORZSCALEDRAWERTYPE@CScaleBaseData@@@Z ENDP ; CRealModuleCenter::SetDateUnitType
_TEXT	ENDS
; Function compile flags: /Ogtp
; File D:\git\src\IBK\IBK_DRFN\ProjSrc\SrcChartEx\ChartOCX\PacketData\RealModuleCenter.cpp
;	COMDAT ?SetAddTimeInterval@CRealModuleCenter@@QAEXH@Z
_TEXT	SEGMENT
_nData$ = 8						; size = 4
?SetAddTimeInterval@CRealModuleCenter@@QAEXH@Z PROC	; CRealModuleCenter::SetAddTimeInterval, COMDAT
; _this$ = ecx

; 148  : {

  00000	55		 push	 ebp
  00001	8b ec		 mov	 ebp, esp

; 149  : 	//sy 2005.07.28. n    .
; 150  : 	if( nData < 0)	m_nAddTimeInterval = 0;
; 151  : 	else			m_nAddTimeInterval = nData;
; 152  : }

  00003	8b 45 08	 mov	 eax, DWORD PTR _nData$[ebp]
  00006	33 d2		 xor	 edx, edx
  00008	85 c0		 test	 eax, eax
  0000a	0f 49 d0	 cmovns	 edx, eax
  0000d	89 51 24	 mov	 DWORD PTR [ecx+36], edx
  00010	5d		 pop	 ebp
  00011	c2 04 00	 ret	 4
?SetAddTimeInterval@CRealModuleCenter@@QAEXH@Z ENDP	; CRealModuleCenter::SetAddTimeInterval
_TEXT	ENDS
; Function compile flags: /Ogtp
; File D:\git\src\IBK\IBK_DRFN\ProjSrc\SrcChartEx\ChartOCX\PacketData\RealModuleCenter.cpp
;	COMDAT ?SetRealDataModuleAndData@CRealModuleCenter@@QAE_N_NABV?$CStringT@DV?$StrTraitMFC_DLL@DV?$ChTraitsCRT@D@ATL@@@@@ATL@@0@Z
_TEXT	SEGMENT
_bIsRemove$ = 8						; size = 1
_strModuleHelpMsg$ = 12					; size = 4
_bIsExchangeRate_Percent$ = 16				; size = 1
?SetRealDataModuleAndData@CRealModuleCenter@@QAE_N_NABV?$CStringT@DV?$StrTraitMFC_DLL@DV?$ChTraitsCRT@D@ATL@@@@@ATL@@0@Z PROC ; CRealModuleCenter::SetRealDataModuleAndData, COMDAT
; _this$ = ecx

; 135  : {

  00000	55		 push	 ebp
  00001	8b ec		 mov	 ebp, esp

; 136  : 	//    
; 137  : 	if( !bIsRemove) return m_realDataModule.ChangeRealDataModuleAndData(strModuleHelpMsg);

  00003	80 7d 08 00	 cmp	 BYTE PTR _bIsRemove$[ebp], 0
  00007	56		 push	 esi
  00008	ff 75 0c	 push	 DWORD PTR _strModuleHelpMsg$[ebp]
  0000b	8d 71 18	 lea	 esi, DWORD PTR [ecx+24]
  0000e	8b ce		 mov	 ecx, esi
  00010	75 0a		 jne	 SHORT $LN2@SetRealDat
  00012	e8 00 00 00 00	 call	 ?ChangeRealDataModuleAndData@CRealDataModule@@QAE_NABV?$CStringT@DV?$StrTraitMFC_DLL@DV?$ChTraitsCRT@D@ATL@@@@@ATL@@@Z ; CRealDataModule::ChangeRealDataModuleAndData
  00017	5e		 pop	 esi

; 143  : }

  00018	5d		 pop	 ebp
  00019	c2 0c 00	 ret	 12			; 0000000cH
$LN2@SetRealDat:

; 138  : 
; 139  : 	m_realDataModule.SetRealDataModuleType( CRealDataModule::RATE_TYPE, strModuleHelpMsg);

  0001c	6a 01		 push	 1
  0001e	e8 00 00 00 00	 call	 ?SetRealDataModuleType@CRealDataModule@@QAEXW4REALDATAMODULETYPE@1@ABV?$CStringT@DV?$StrTraitMFC_DLL@DV?$ChTraitsCRT@D@ATL@@@@@ATL@@@Z ; CRealDataModule::SetRealDataModuleType

; 140  : 	//   .
; 141  : 	if( bIsExchangeRate_Percent) m_realDataModule.ChangeExchangeRateData_Percent();

  00023	80 7d 10 00	 cmp	 BYTE PTR _bIsExchangeRate_Percent$[ebp], 0
  00027	74 07		 je	 SHORT $LN3@SetRealDat
  00029	8b ce		 mov	 ecx, esi
  0002b	e8 00 00 00 00	 call	 ?ChangeExchangeRateData_Percent@CRealDataModule@@QAEXXZ ; CRealDataModule::ChangeExchangeRateData_Percent
$LN3@SetRealDat:

; 142  : 	return true;

  00030	b0 01		 mov	 al, 1
  00032	5e		 pop	 esi

; 143  : }

  00033	5d		 pop	 ebp
  00034	c2 0c 00	 ret	 12			; 0000000cH
?SetRealDataModuleAndData@CRealModuleCenter@@QAE_N_NABV?$CStringT@DV?$StrTraitMFC_DLL@DV?$ChTraitsCRT@D@ATL@@@@@ATL@@0@Z ENDP ; CRealModuleCenter::SetRealDataModuleAndData
_TEXT	ENDS
; Function compile flags: /Ogtp
; File D:\git\src\IBK\IBK_DRFN\ProjSrc\SrcChartEx\ChartOCX\PacketData\RealModuleCenter.cpp
;	COMDAT ?GetUpdateRange@CRealModuleCenter@@QBE?AVCPoint@@XZ
_TEXT	SEGMENT
___$ReturnUdt$ = 8					; size = 4
?GetUpdateRange@CRealModuleCenter@@QBE?AVCPoint@@XZ PROC ; CRealModuleCenter::GetUpdateRange, COMDAT
; _this$ = ecx

; 126  : {

  00000	55		 push	 ebp
  00001	8b ec		 mov	 ebp, esp

; 127  : 	return m_ptUpdateRange;

  00003	8b 45 08	 mov	 eax, DWORD PTR ___$ReturnUdt$[ebp]
  00006	8b 51 10	 mov	 edx, DWORD PTR [ecx+16]
  00009	8b 49 14	 mov	 ecx, DWORD PTR [ecx+20]
  0000c	89 10		 mov	 DWORD PTR [eax], edx
  0000e	89 48 04	 mov	 DWORD PTR [eax+4], ecx

; 128  : }

  00011	5d		 pop	 ebp
  00012	c2 04 00	 ret	 4
?GetUpdateRange@CRealModuleCenter@@QBE?AVCPoint@@XZ ENDP ; CRealModuleCenter::GetUpdateRange
_TEXT	ENDS
; Function compile flags: /Ogtp
; File D:\git\src\IBK\IBK_DRFN\ProjSrc\SrcChartEx\ChartOCX\PacketData\RealModuleCenter.cpp
;	COMDAT ?SetPacketMinMaxAndUpdateRage@CRealModuleCenter@@QAEXPAVCPacket@@@Z
_TEXT	SEGMENT
_pPacket$ = 8						; size = 4
?SetPacketMinMaxAndUpdateRage@CRealModuleCenter@@QAEXPAVCPacket@@@Z PROC ; CRealModuleCenter::SetPacketMinMaxAndUpdateRage, COMDAT
; _this$ = ecx

; 111  : {

  00000	55		 push	 ebp
  00001	8b ec		 mov	 ebp, esp
  00003	56		 push	 esi
  00004	8b f1		 mov	 esi, ecx

; 112  : 	assert(pPacket != NULL);
; 113  : 
; 114  : 	int nDataCount = pPacket->GetCount();

  00006	8b 4d 08	 mov	 ecx, DWORD PTR _pPacket$[ebp]
  00009	8b 01		 mov	 eax, DWORD PTR [ecx]
  0000b	ff 50 14	 call	 DWORD PTR [eax+20]

; 115  : 	// data  
; 116  : 	if(nDataCount <= 0)

  0000e	85 c0		 test	 eax, eax
  00010	7f 13		 jg	 SHORT $LN2@SetPacketM

; 117  : 		m_ptUpdateRange = CPoint(-1, -1);

  00012	c7 46 10 ff ff
	ff ff		 mov	 DWORD PTR [esi+16], -1
  00019	c7 46 14 ff ff
	ff ff		 mov	 DWORD PTR [esi+20], -1
  00020	5e		 pop	 esi

; 124  : }

  00021	5d		 pop	 ebp
  00022	c2 04 00	 ret	 4
$LN2@SetPacketM:

; 118  : 	// data  1
; 119  : 	else if(nDataCount == 1)

  00025	83 f8 01	 cmp	 eax, 1
  00028	75 13		 jne	 SHORT $LN4@SetPacketM

; 120  : 		m_ptUpdateRange = CPoint(0, 0);

  0002a	c7 46 10 00 00
	00 00		 mov	 DWORD PTR [esi+16], 0
  00031	c7 46 14 00 00
	00 00		 mov	 DWORD PTR [esi+20], 0
  00038	5e		 pop	 esi

; 124  : }

  00039	5d		 pop	 ebp
  0003a	c2 04 00	 ret	 4
$LN4@SetPacketM:

; 121  : 	// data  2 
; 122  : 	else
; 123  : 		m_ptUpdateRange = CPoint(nDataCount - 2, nDataCount - 1);

  0003d	8d 48 fe	 lea	 ecx, DWORD PTR [eax-2]
  00040	48		 dec	 eax
  00041	89 4e 10	 mov	 DWORD PTR [esi+16], ecx
  00044	89 46 14	 mov	 DWORD PTR [esi+20], eax
  00047	5e		 pop	 esi

; 124  : }

  00048	5d		 pop	 ebp
  00049	c2 04 00	 ret	 4
?SetPacketMinMaxAndUpdateRage@CRealModuleCenter@@QAEXPAVCPacket@@@Z ENDP ; CRealModuleCenter::SetPacketMinMaxAndUpdateRage
_TEXT	ENDS
; Function compile flags: /Ogtp
; File D:\git\src\IBK\IBK_DRFN\ProjSrc\SrcChartEx\ChartOCX\PacketData\RealModuleCenter.cpp
; File C:\Program Files (x86)\Microsoft Visual Studio\2019\Community\VC\Tools\MSVC\14.29.30133\atlmfc\include\atltypes.h
; File D:\git\src\IBK\IBK_DRFN\ProjSrc\SrcChartEx\ChartOCX\PacketData\RealModuleCenter.cpp
;	COMDAT ?SetUpdateRangeOffset@CRealModuleCenter@@QAEXHH@Z
_TEXT	SEGMENT
_nStart$ = 8						; size = 4
_nEnd$ = 12						; size = 4
?SetUpdateRangeOffset@CRealModuleCenter@@QAEXHH@Z PROC	; CRealModuleCenter::SetUpdateRangeOffset, COMDAT
; _this$ = ecx

; 106  : {

  00000	55		 push	 ebp
  00001	8b ec		 mov	 ebp, esp
; File C:\Program Files (x86)\Microsoft Visual Studio\2019\Community\VC\Tools\MSVC\14.29.30133\atlmfc\include\atltypes.h

; 432  : 	x += xOffset;

  00003	8b 45 08	 mov	 eax, DWORD PTR _nStart$[ebp]
  00006	01 41 10	 add	 DWORD PTR [ecx+16], eax

; 433  : 	y += yOffset;

  00009	8b 45 0c	 mov	 eax, DWORD PTR _nEnd$[ebp]
  0000c	01 41 14	 add	 DWORD PTR [ecx+20], eax
; File D:\git\src\IBK\IBK_DRFN\ProjSrc\SrcChartEx\ChartOCX\PacketData\RealModuleCenter.cpp

; 108  : }

  0000f	5d		 pop	 ebp
  00010	c2 08 00	 ret	 8
?SetUpdateRangeOffset@CRealModuleCenter@@QAEXHH@Z ENDP	; CRealModuleCenter::SetUpdateRangeOffset
_TEXT	ENDS
; Function compile flags: /Ogtp
; File D:\git\src\IBK\IBK_DRFN\ProjSrc\SrcChartEx\ChartOCX\PacketData\RealModuleCenter.cpp
;	COMDAT ?GetUpdateOrAppendIndex@CRealModuleCenter@@QBEHXZ
_TEXT	SEGMENT
?GetUpdateOrAppendIndex@CRealModuleCenter@@QBEHXZ PROC	; CRealModuleCenter::GetUpdateOrAppendIndex, COMDAT
; _this$ = ecx

; 97   : 	return m_nUpdateOrAppendIndex;

  00000	8b 41 0c	 mov	 eax, DWORD PTR [ecx+12]

; 98   : }

  00003	c3		 ret	 0
?GetUpdateOrAppendIndex@CRealModuleCenter@@QBEHXZ ENDP	; CRealModuleCenter::GetUpdateOrAppendIndex
_TEXT	ENDS
; Function compile flags: /Ogtp
; File D:\git\src\IBK\IBK_DRFN\ProjSrc\SrcChartEx\ChartOCX\PacketData\RealModuleCenter.cpp
;	COMDAT ?SetUpdateOrAppendIndex@CRealModuleCenter@@QAEXH@Z
_TEXT	SEGMENT
_nUpdateOrAppendIndex$ = 8				; size = 4
?SetUpdateOrAppendIndex@CRealModuleCenter@@QAEXH@Z PROC	; CRealModuleCenter::SetUpdateOrAppendIndex, COMDAT
; _this$ = ecx

; 92   : {

  00000	55		 push	 ebp
  00001	8b ec		 mov	 ebp, esp

; 93   : 	m_nUpdateOrAppendIndex = nUpdateOrAppendIndex;

  00003	8b 45 08	 mov	 eax, DWORD PTR _nUpdateOrAppendIndex$[ebp]
  00006	89 41 0c	 mov	 DWORD PTR [ecx+12], eax

; 94   : }

  00009	5d		 pop	 ebp
  0000a	c2 04 00	 ret	 4
?SetUpdateOrAppendIndex@CRealModuleCenter@@QAEXH@Z ENDP	; CRealModuleCenter::SetUpdateOrAppendIndex
_TEXT	ENDS
; Function compile flags: /Ogtp
; File D:\git\src\IBK\IBK_DRFN\ProjSrc\SrcChartEx\ChartOCX\PacketData\RealModuleCenter.cpp
;	COMDAT ?SetRealBasePacket@CRealModuleCenter@@QAEXPAVCPacket@@@Z
_TEXT	SEGMENT
_pPacket$ = 8						; size = 4
?SetRealBasePacket@CRealModuleCenter@@QAEXPAVCPacket@@@Z PROC ; CRealModuleCenter::SetRealBasePacket, COMDAT
; _this$ = ecx

; 83   : {

  00000	55		 push	 ebp
  00001	8b ec		 mov	 ebp, esp

; 84   : 	m_pRealBasePacket = pPacket;

  00003	8b 45 08	 mov	 eax, DWORD PTR _pPacket$[ebp]
  00006	89 41 08	 mov	 DWORD PTR [ecx+8], eax

; 85   : }

  00009	5d		 pop	 ebp
  0000a	c2 04 00	 ret	 4
?SetRealBasePacket@CRealModuleCenter@@QAEXPAVCPacket@@@Z ENDP ; CRealModuleCenter::SetRealBasePacket
_TEXT	ENDS
; Function compile flags: /Ogtp
; File D:\git\src\IBK\IBK_DRFN\ProjSrc\SrcChartEx\ChartOCX\PacketData\RealModuleCenter.cpp
;	COMDAT ??1CRealModuleCenter@@UAE@XZ
_TEXT	SEGMENT
??1CRealModuleCenter@@UAE@XZ PROC			; CRealModuleCenter::~CRealModuleCenter, COMDAT
; _this$ = ecx

; 73   : {

  00000	56		 push	 esi
  00001	57		 push	 edi
  00002	8b f9		 mov	 edi, ecx

; 74   : 	delete m_pTimeRealDataModule;

  00004	8b 4f 68	 mov	 ecx, DWORD PTR [edi+104]
  00007	c7 07 00 00 00
	00		 mov	 DWORD PTR [edi], OFFSET ??_7CRealModuleCenter@@6B@
  0000d	85 c9		 test	 ecx, ecx
  0000f	74 06		 je	 SHORT $LN3@CRealModul
  00011	8b 01		 mov	 eax, DWORD PTR [ecx]
  00013	6a 01		 push	 1
  00015	ff 10		 call	 DWORD PTR [eax]
$LN3@CRealModul:

; 75   : }

  00017	8d 8f b4 00 00
	00		 lea	 ecx, DWORD PTR [edi+180]
  0001d	ff 15 00 00 00
	00		 call	 DWORD PTR __imp_??1?$CStringT@DV?$StrTraitMFC_DLL@DV?$ChTraitsCRT@D@ATL@@@@@ATL@@QAE@XZ
  00023	8d 4f 74	 lea	 ecx, DWORD PTR [edi+116]
  00026	ff 15 00 00 00
	00		 call	 DWORD PTR __imp_??1?$CStringT@DV?$StrTraitMFC_DLL@DV?$ChTraitsCRT@D@ATL@@@@@ATL@@QAE@XZ
  0002c	8d 4f 4c	 lea	 ecx, DWORD PTR [edi+76]
  0002f	ff 15 00 00 00
	00		 call	 DWORD PTR __imp_??1?$CStringT@DV?$StrTraitMFC_DLL@DV?$ChTraitsCRT@D@ATL@@@@@ATL@@QAE@XZ
  00035	8d 4f 44	 lea	 ecx, DWORD PTR [edi+68]
  00038	ff 15 00 00 00
	00		 call	 DWORD PTR __imp_??1?$CStringT@DV?$StrTraitMFC_DLL@DV?$ChTraitsCRT@D@ATL@@@@@ATL@@QAE@XZ
  0003e	8d 4f 18	 lea	 ecx, DWORD PTR [edi+24]
  00041	5f		 pop	 edi
  00042	5e		 pop	 esi
  00043	e9 00 00 00 00	 jmp	 ??1CRealDataModule@@UAE@XZ ; CRealDataModule::~CRealDataModule
??1CRealModuleCenter@@UAE@XZ ENDP			; CRealModuleCenter::~CRealModuleCenter
_TEXT	ENDS
; Function compile flags: /Ogtp
; File D:\git\src\IBK\IBK_DRFN\ProjSrc\SrcChartEx\ChartOCX\PacketData\RealModuleCenter.cpp
; File C:\Program Files (x86)\Microsoft Visual Studio\2019\Community\VC\Tools\MSVC\14.29.30133\atlmfc\include\atltypes.h
; File D:\git\src\IBK\IBK_DRFN\ProjSrc\SrcChartEx\ChartOCX\PacketData\RealModuleCenter.cpp
;	COMDAT ??0CRealModuleCenter@@QAE@W4REALTYPE@CPacketType@@PAUIChartCtrl@@PAV?$CTypedPtrList@VCObList@@PAVCPacket@@@@@Z
_TEXT	SEGMENT
_this$ = -16						; size = 4
__$EHRec$ = -12						; size = 12
_eRealType$ = 8						; size = 4
_p_pIChartCtrl$ = 12					; size = 4
_pPacketList$ = 16					; size = 4
??0CRealModuleCenter@@QAE@W4REALTYPE@CPacketType@@PAUIChartCtrl@@PAV?$CTypedPtrList@VCObList@@PAVCPacket@@@@@Z PROC ; CRealModuleCenter::CRealModuleCenter, COMDAT
; _this$ = ecx

; 30   : {

  00000	55		 push	 ebp
  00001	8b ec		 mov	 ebp, esp
  00003	6a ff		 push	 -1
  00005	68 00 00 00 00	 push	 __ehhandler$??0CRealModuleCenter@@QAE@W4REALTYPE@CPacketType@@PAUIChartCtrl@@PAV?$CTypedPtrList@VCObList@@PAVCPacket@@@@@Z
  0000a	64 a1 00 00 00
	00		 mov	 eax, DWORD PTR fs:0
  00010	50		 push	 eax
  00011	51		 push	 ecx
  00012	53		 push	 ebx
  00013	56		 push	 esi
  00014	57		 push	 edi
  00015	a1 00 00 00 00	 mov	 eax, DWORD PTR ___security_cookie
  0001a	33 c5		 xor	 eax, ebp
  0001c	50		 push	 eax
  0001d	8d 45 f4	 lea	 eax, DWORD PTR __$EHRec$[ebp]
  00020	64 a3 00 00 00
	00		 mov	 DWORD PTR fs:0, eax
  00026	8b d9		 mov	 ebx, ecx
  00028	89 5d f0	 mov	 DWORD PTR _this$[ebp], ebx

; 29   : 	m_realDataModule( p_pIChartCtrl->GetSafeHwnd())

  0002b	8b 7d 0c	 mov	 edi, DWORD PTR _p_pIChartCtrl$[ebp]
  0002e	8b cf		 mov	 ecx, edi
  00030	c7 03 00 00 00
	00		 mov	 DWORD PTR [ebx], OFFSET ??_7CRealModuleCenter@@6B@
; File C:\Program Files (x86)\Microsoft Visual Studio\2019\Community\VC\Tools\MSVC\14.29.30133\atlmfc\include\atltypes.h

; 400  : 	x = 0;

  00036	c7 43 10 00 00
	00 00		 mov	 DWORD PTR [ebx+16], 0

; 401  : 	y = 0;

  0003d	c7 43 14 00 00
	00 00		 mov	 DWORD PTR [ebx+20], 0
; File D:\git\src\IBK\IBK_DRFN\ProjSrc\SrcChartEx\ChartOCX\PacketData\RealModuleCenter.cpp

; 29   : 	m_realDataModule( p_pIChartCtrl->GetSafeHwnd())

  00044	8b 07		 mov	 eax, DWORD PTR [edi]
  00046	6a 00		 push	 0
  00048	ff 90 9c 03 00
	00		 call	 DWORD PTR [eax+924]
  0004e	50		 push	 eax
  0004f	8d 4b 18	 lea	 ecx, DWORD PTR [ebx+24]
  00052	e8 00 00 00 00	 call	 ??0CRealDataModule@@QAE@PAUHWND__@@W4REALDATAMODULETYPE@0@@Z ; CRealDataModule::CRealDataModule

; 30   : {

  00057	8d 4b 44	 lea	 ecx, DWORD PTR [ebx+68]
  0005a	c7 45 fc 00 00
	00 00		 mov	 DWORD PTR __$EHRec$[ebp+8], 0
  00061	e8 00 00 00 00	 call	 ??0CDateData@@QAE@XZ	; CDateData::CDateData
  00066	8d 4b 58	 lea	 ecx, DWORD PTR [ebx+88]
  00069	c6 45 fc 01	 mov	 BYTE PTR __$EHRec$[ebp+8], 1
  0006d	e8 00 00 00 00	 call	 ??0CMarketTimeData@@QAE@XZ ; CMarketTimeData::CMarketTimeData
  00072	8d 4b 74	 lea	 ecx, DWORD PTR [ebx+116]
  00075	ff 15 00 00 00
	00		 call	 DWORD PTR __imp_??0?$CStringT@DV?$StrTraitMFC_DLL@DV?$ChTraitsCRT@D@ATL@@@@@ATL@@QAE@XZ
  0007b	8d 8b b4 00 00
	00		 lea	 ecx, DWORD PTR [ebx+180]
  00081	ff 15 00 00 00
	00		 call	 DWORD PTR __imp_??0?$CStringT@DV?$StrTraitMFC_DLL@DV?$ChTraitsCRT@D@ATL@@@@@ATL@@QAE@XZ

; 31   : 	// (2009/11/4 - Seung-Won, Bae) Backup to receive NMTR Data.
; 32   : 	m_pIChartCtrl = p_pIChartCtrl;

  00087	89 bb a0 00 00
	00		 mov	 DWORD PTR [ebx+160], edi

; 33   : 
; 34   : 	// (2009/10/27 - Seung-Won, Bae) for Real Data Type.
; 35   : 	m_nChartModeSetting = p_pIChartCtrl->GetChartMode();

  0008d	8b cf		 mov	 ecx, edi
  0008f	8b 07		 mov	 eax, DWORD PTR [edi]
  00091	c6 45 fc 03	 mov	 BYTE PTR __$EHRec$[ebp+8], 3
  00095	ff 90 0c 03 00
	00		 call	 DWORD PTR [eax+780]

; 36   : 
; 37   : 	// (2009/10/19 - Seung-Won, Bae) Real Data Processing Interface.
; 38   : 	m_pOpenPacket	= NULL;
; 39   : 	m_pHighPacket	= NULL;
; 40   : 	m_pLowPacket	= NULL;
; 41   : 	m_pClosePacket	= NULL;
; 42   : 	m_pVolumePacket	= NULL;
; 43   : 	m_bOnClockedData = FALSE;
; 44   : 
; 45   : 	// (2009/10/19 - Seung-Won, Bae) comment.
; 46   : 	//	Base Packet  - PacketList    AddPacket  CPacketListImplementation::m_PacketList
; 47   : 	//		Packet   C0_DATE_TIME Packet ()  .
; 48   : 	//	  CPacketList::SetBasePacketName()    . (.)
; 49   : 	m_pRealBasePacket = NULL;
; 50   : 
; 51   : 	// (2009/10/20 - Seung-Won, Bae) Comment.   Logic Class .
; 52   : 	m_pTimeRealDataModule = NULL;
; 53   : 
; 54   : 	// (2009/10/21 - Seung-Won, Bae) Comment.  Data Packet Type .
; 55   : 	m_strRealTimeType = "HHMMSS";

  0009b	68 00 00 00 00	 push	 OFFSET ??_C@_06MAANBBPI@HHMMSS@
  000a0	8d 4b 74	 lea	 ecx, DWORD PTR [ebx+116]
  000a3	89 43 7c	 mov	 DWORD PTR [ebx+124], eax
  000a6	c7 43 30 00 00
	00 00		 mov	 DWORD PTR [ebx+48], 0
  000ad	c7 43 34 00 00
	00 00		 mov	 DWORD PTR [ebx+52], 0
  000b4	c7 43 38 00 00
	00 00		 mov	 DWORD PTR [ebx+56], 0
  000bb	c7 43 3c 00 00
	00 00		 mov	 DWORD PTR [ebx+60], 0
  000c2	c7 43 40 00 00
	00 00		 mov	 DWORD PTR [ebx+64], 0
  000c9	c7 83 a4 00 00
	00 00 00 00 00	 mov	 DWORD PTR [ebx+164], 0
  000d3	c7 43 08 00 00
	00 00		 mov	 DWORD PTR [ebx+8], 0
  000da	c7 43 68 00 00
	00 00		 mov	 DWORD PTR [ebx+104], 0
  000e1	ff 15 00 00 00
	00		 call	 DWORD PTR __imp_??4?$CStringT@DV?$StrTraitMFC_DLL@DV?$ChTraitsCRT@D@ATL@@@@@ATL@@QAEAAV01@PBD@Z

; 593  : 	if(CChartInfo::FX == m_nChartModeSetting)

  000e7	83 7b 7c 02	 cmp	 DWORD PTR [ebx+124], 2

; 56   : 
; 57   : 	// (2009/10/22 - Seung-Won, Bae) Comment. X Scale Manager  Merge     .
; 58   : 	m_eRealType = eRealType;

  000eb	8b 45 08	 mov	 eax, DWORD PTR _eRealType$[ebp]
  000ee	89 43 78	 mov	 DWORD PTR [ebx+120], eax

; 59   : 
; 60   : 	// 20080925 JS.Kim	   Scale 
; 61   : 	m_nOrgBaseTimeDiff = 0;

  000f1	c7 83 80 00 00
	00 00 00 00 00	 mov	 DWORD PTR [ebx+128], 0

; 62   : 	m_nBaseTimeDiff = 0;

  000fb	c7 83 84 00 00
	00 00 00 00 00	 mov	 DWORD PTR [ebx+132], 0

; 63   : 
; 64   : 	// (2009/11/1 - Seung-Won, Bae) Support Last Real Time.
; 65   : 	m_nClock = -1;

  00105	c7 83 88 00 00
	00 ff ff ff ff	 mov	 DWORD PTR [ebx+136], -1
  0010f	c7 83 8c 00 00
	00 ff ff ff ff	 mov	 DWORD PTR [ebx+140], -1

; 66   : 	m_nLastClockTime = -1;

  00119	c7 83 90 00 00
	00 ff ff ff ff	 mov	 DWORD PTR [ebx+144], -1
  00123	c7 83 94 00 00
	00 ff ff ff ff	 mov	 DWORD PTR [ebx+148], -1

; 67   : 	m_nLastRealTime = -1;

  0012d	c7 83 98 00 00
	00 ff ff ff ff	 mov	 DWORD PTR [ebx+152], -1
  00137	c7 83 9c 00 00
	00 ff ff ff ff	 mov	 DWORD PTR [ebx+156], -1

; 590  : 	m_nNewRangeStartTime = 0;

  00141	c7 83 b0 00 00
	00 00 00 00 00	 mov	 DWORD PTR [ebx+176], 0

; 591  : 
; 592  : 	//0000603: FX 240                  
; 593  : 	if(CChartInfo::FX == m_nChartModeSetting)

  0014b	75 0a		 jne	 SHORT $LN10@CRealModul

; 594  : 		m_nNewRangeStartTime = 50000;	//5 .

  0014d	c7 83 b0 00 00
	00 50 c3 00 00	 mov	 DWORD PTR [ebx+176], 50000 ; 0000c350H
$LN10@CRealModul:

; 595  : 
; 596  : 	// (2009/10/19 - Seung-Won, Bae) Comment.    DTI
; 597  : 	m_nUpdateOrAppendIndex = -1;
; 598  : 
; 599  : 	// (2009/10/19 - Seung-Won, Bae) Comment.  Real  DTI Range?
; 600  : 	//		  CMainChartFormulateImplementation::GetDataPoint() .
; 601  : 	//			( range   start   .)
; 602  : 	m_ptUpdateRange = CPoint(-1, -1);
; 603  : 
; 604  : 	// (2009/10/19 - Seung-Won, Bae) Comment. Real Data  Logic Class.
; 605  : 	//		 RDC  . ER  RDC = 100 / ER      RDC  .
; 606  : 	m_realDataModule.SetRealDataModuleType( CRealDataModule::BASE_TYPE);

  00157	6a 00		 push	 0
  00159	8d 4b 18	 lea	 ecx, DWORD PTR [ebx+24]
  0015c	c7 43 0c ff ff
	ff ff		 mov	 DWORD PTR [ebx+12], -1
  00163	c7 43 10 ff ff
	ff ff		 mov	 DWORD PTR [ebx+16], -1
  0016a	c7 43 14 ff ff
	ff ff		 mov	 DWORD PTR [ebx+20], -1
  00171	e8 00 00 00 00	 call	 ?SetRealDataModuleType@CRealDataModule@@QAE_NW4REALDATAMODULETYPE@1@@Z ; CRealDataModule::SetRealDataModuleType

; 607  : 
; 608  : 	// (2009/10/20 - Seung-Won, Bae) N    Tick  ( UTEC  )
; 609  : 	m_nAddTimeInterval = 0;
; 610  : 
; 611  : 	// (2009/10/19 - Seung-Won, Bae) Comment. UD  () .
; 612  : 	//     
; 613  : 	m_eDateUnitType = CScaleBaseData::HORZ_DAILY;
; 614  : 
; 615  : 	// (2009/10/20 - Seung-Won, Bae) UT  1   UD .
; 616  : 	m_nTimeInterval = 1;
; 617  : 
; 618  : 	// (2009/10/20 - Seung-Won, Bae) Comment.     .
; 619  : 	//		 PC  .
; 620  : 	m_dateData.SetDate();

  00176	8d 4b 44	 lea	 ecx, DWORD PTR [ebx+68]
  00179	c7 43 24 00 00
	00 00		 mov	 DWORD PTR [ebx+36], 0
  00180	c7 43 28 01 00
	00 00		 mov	 DWORD PTR [ebx+40], 1
  00187	c7 43 2c 01 00
	00 00		 mov	 DWORD PTR [ebx+44], 1
  0018e	e8 00 00 00 00	 call	 ?SetDate@CDateData@@QAEXXZ ; CDateData::SetDate

; 621  : 
; 622  : 	// (2009/10/21 - Seung-Won, Bae) Comment.      ,
; 623  : 	//		  / . (?)
; 624  : 	m_nBasisTime = -1;
; 625  : 
; 626  : 	// (2009/10/21 - Seung-Won, Bae) Comment. 1  0    Type .
; 627  : 	m_nMarketDayType = CPacketType::TODAY_ONLY;	//20081029 JS.Kim
; 628  : 
; 629  : 	// (2009/11/16 - Seung-Won, Bae) Check for Market Days
; 630  : 	m_strMarketDayInfo.Empty();

  00193	8d 8b b4 00 00
	00		 lea	 ecx, DWORD PTR [ebx+180]
  00199	c7 43 6c ff ff
	ff ff		 mov	 DWORD PTR [ebx+108], -1
  001a0	c7 43 70 00 00
	00 00		 mov	 DWORD PTR [ebx+112], 0
  001a7	ff 15 00 00 00
	00		 call	 DWORD PTR __imp_?Empty@?$CSimpleStringT@D$00@ATL@@QAEXXZ

; 68   : 
; 69   : 	InitializeHelpMessage();
; 70   : }

  001ad	8b c3		 mov	 eax, ebx
  001af	8b 4d f4	 mov	 ecx, DWORD PTR __$EHRec$[ebp]
  001b2	64 89 0d 00 00
	00 00		 mov	 DWORD PTR fs:0, ecx
  001b9	59		 pop	 ecx
  001ba	5f		 pop	 edi
  001bb	5e		 pop	 esi
  001bc	5b		 pop	 ebx
  001bd	8b e5		 mov	 esp, ebp
  001bf	5d		 pop	 ebp
  001c0	c2 0c 00	 ret	 12			; 0000000cH
_TEXT	ENDS
;	COMDAT text$x
text$x	SEGMENT
__unwindfunclet$??0CRealModuleCenter@@QAE@W4REALTYPE@CPacketType@@PAUIChartCtrl@@PAV?$CTypedPtrList@VCObList@@PAVCPacket@@@@@Z$0:
  00000	8b 4d f0	 mov	 ecx, DWORD PTR _this$[ebp]
  00003	83 c1 18	 add	 ecx, 24			; 00000018H
  00006	e9 00 00 00 00	 jmp	 ??1CRealDataModule@@UAE@XZ ; CRealDataModule::~CRealDataModule
__unwindfunclet$??0CRealModuleCenter@@QAE@W4REALTYPE@CPacketType@@PAUIChartCtrl@@PAV?$CTypedPtrList@VCObList@@PAVCPacket@@@@@Z$1:
  0000b	8b 4d f0	 mov	 ecx, DWORD PTR _this$[ebp]
  0000e	83 c1 44	 add	 ecx, 68			; 00000044H
  00011	e9 00 00 00 00	 jmp	 ??1CDateData@@QAE@XZ
__unwindfunclet$??0CRealModuleCenter@@QAE@W4REALTYPE@CPacketType@@PAUIChartCtrl@@PAV?$CTypedPtrList@VCObList@@PAVCPacket@@@@@Z$2:
  00016	8b 4d f0	 mov	 ecx, DWORD PTR _this$[ebp]
  00019	83 c1 74	 add	 ecx, 116		; 00000074H
  0001c	ff 25 00 00 00
	00		 jmp	 DWORD PTR __imp_??1?$CStringT@DV?$StrTraitMFC_DLL@DV?$ChTraitsCRT@D@ATL@@@@@ATL@@QAE@XZ
__unwindfunclet$??0CRealModuleCenter@@QAE@W4REALTYPE@CPacketType@@PAUIChartCtrl@@PAV?$CTypedPtrList@VCObList@@PAVCPacket@@@@@Z$3:
  00022	8b 4d f0	 mov	 ecx, DWORD PTR _this$[ebp]
  00025	81 c1 b4 00 00
	00		 add	 ecx, 180		; 000000b4H
  0002b	ff 25 00 00 00
	00		 jmp	 DWORD PTR __imp_??1?$CStringT@DV?$StrTraitMFC_DLL@DV?$ChTraitsCRT@D@ATL@@@@@ATL@@QAE@XZ
  00031	cc		 int	 3
  00032	cc		 int	 3
  00033	cc		 int	 3
  00034	cc		 int	 3
  00035	cc		 int	 3
__ehhandler$??0CRealModuleCenter@@QAE@W4REALTYPE@CPacketType@@PAUIChartCtrl@@PAV?$CTypedPtrList@VCObList@@PAVCPacket@@@@@Z:
  00036	90		 npad	 1
  00037	90		 npad	 1
  00038	8b 54 24 08	 mov	 edx, DWORD PTR [esp+8]
  0003c	8d 42 0c	 lea	 eax, DWORD PTR [edx+12]
  0003f	8b 4a ec	 mov	 ecx, DWORD PTR [edx-20]
  00042	33 c8		 xor	 ecx, eax
  00044	e8 00 00 00 00	 call	 @__security_check_cookie@4
  00049	b8 00 00 00 00	 mov	 eax, OFFSET __ehfuncinfo$??0CRealModuleCenter@@QAE@W4REALTYPE@CPacketType@@PAUIChartCtrl@@PAV?$CTypedPtrList@VCObList@@PAVCPacket@@@@@Z
  0004e	e9 00 00 00 00	 jmp	 ___CxxFrameHandler3
text$x	ENDS
??0CRealModuleCenter@@QAE@W4REALTYPE@CPacketType@@PAUIChartCtrl@@PAV?$CTypedPtrList@VCObList@@PAVCPacket@@@@@Z ENDP ; CRealModuleCenter::CRealModuleCenter
; Function compile flags: /Ogtp
;	COMDAT ??1CDateData@@QAE@XZ
_TEXT	SEGMENT
??1CDateData@@QAE@XZ PROC				; CDateData::~CDateData, COMDAT
; _this$ = ecx
  00000	56		 push	 esi
  00001	8b f1		 mov	 esi, ecx
  00003	8d 4e 08	 lea	 ecx, DWORD PTR [esi+8]
  00006	ff 15 00 00 00
	00		 call	 DWORD PTR __imp_??1?$CStringT@DV?$StrTraitMFC_DLL@DV?$ChTraitsCRT@D@ATL@@@@@ATL@@QAE@XZ
  0000c	8b ce		 mov	 ecx, esi
  0000e	5e		 pop	 esi
  0000f	ff 25 00 00 00
	00		 jmp	 DWORD PTR __imp_??1?$CStringT@DV?$StrTraitMFC_DLL@DV?$ChTraitsCRT@D@ATL@@@@@ATL@@QAE@XZ
??1CDateData@@QAE@XZ ENDP				; CDateData::~CDateData
_TEXT	ENDS
; Function compile flags: /Ogtp
; File D:\git\src\IBK\IBK_DRFN\ProjSrc\SrcChartEx\ChartOCX\PacketData\RealModuleCenter.cpp
;	COMDAT ?__empty_global_delete@@YAXPAXI@Z
_TEXT	SEGMENT
___formal$ = 8						; size = 4
___formal$ = 12						; size = 4
?__empty_global_delete@@YAXPAXI@Z PROC			; __empty_global_delete, COMDAT

  00000	c2 00 00	 ret	 0
?__empty_global_delete@@YAXPAXI@Z ENDP			; __empty_global_delete
_TEXT	ENDS
; Function compile flags: /Ogtp
; File D:\git\src\IBK\IBK_DRFN\ProjSrc\SrcChartEx\ChartOCX\PacketData\RealModuleCenter.cpp
;	COMDAT ?__empty_global_delete@@YAXPAX@Z
_TEXT	SEGMENT
___formal$ = 8						; size = 4
?__empty_global_delete@@YAXPAX@Z PROC			; __empty_global_delete, COMDAT

  00000	c2 00 00	 ret	 0
?__empty_global_delete@@YAXPAX@Z ENDP			; __empty_global_delete
_TEXT	ENDS
END
