; Listing generated by Microsoft (R) Optimizing Compiler Version 19.29.30145.0 

	TITLE	D:\git\src\IBK\IBK_DRFN\#DRfn-CS\_Obj\PacketData\TimeRealDataModule.obj
	.686P
	.XMM
	include listing.inc
	.model	flat

INCLUDELIB MSVCRT
INCLUDELIB OLDNAMES

PUBLIC	?__empty_global_delete@@YAXPAX@Z		; __empty_global_delete
PUBLIC	?__empty_global_delete@@YAXPAXI@Z		; __empty_global_delete
PUBLIC	??0CTimeRealDataModuleBase@@QAE@AAVCMarketTimeData@@ABV?$CStringT@DV?$StrTraitMFC_DLL@DV?$ChTraitsCRT@D@ATL@@@@@ATL@@W4HORZSCALEDRAWERTYPE@CScaleBaseData@@@Z ; CTimeRealDataModuleBase::CTimeRealDataModuleBase
PUBLIC	??1CTimeRealDataModuleBase@@UAE@XZ		; CTimeRealDataModuleBase::~CTimeRealDataModuleBase
PUBLIC	?SetTimeRange_TRPart@CTimeRealDataModuleBase@@UAEHAB_J_J@Z ; CTimeRealDataModuleBase::SetTimeRange_TRPart
PUBLIC	?SetRealData@CTimeRealDataModuleBase@@UAEHPAVCPacket@@AB_J@Z ; CTimeRealDataModuleBase::SetRealData
PUBLIC	?GetTimeRangeStartWithPacketType@CTimeRealDataModuleBase@@UBE_JXZ ; CTimeRealDataModuleBase::GetTimeRangeStartWithPacketType
PUBLIC	?GetRealData_CloseTime@CTimeRealDataModuleBase@@UAE_NPAVCPacket@@AA_J@Z ; CTimeRealDataModuleBase::GetRealData_CloseTime
PUBLIC	?OnInitTR@CTimeRealDataModuleBase@@QAEXAB_JABHABV?$CStringT@DV?$StrTraitMFC_DLL@DV?$ChTraitsCRT@D@ATL@@@@@ATL@@@Z ; CTimeRealDataModuleBase::OnInitTR
PUBLIC	?GetMarketDate_DateTime@CTimeRealDataModuleBase@@QBEXAA_J@Z ; CTimeRealDataModuleBase::GetMarketDate_DateTime
PUBLIC	?GetTimeIntervalWithSecond@CTimeRealDataModuleBase@@UAE_JXZ ; CTimeRealDataModuleBase::GetTimeIntervalWithSecond
PUBLIC	?IsMarketDay@CTimeRealDataModuleBase@@QAEHH@Z	; CTimeRealDataModuleBase::IsMarketDay
PUBLIC	??_GCTimeRealDataModuleBase@@UAEPAXI@Z		; CTimeRealDataModuleBase::`scalar deleting destructor'
PUBLIC	??0CTickRealDataModule@@QAE@AAVCMarketTimeData@@ABV?$CStringT@DV?$StrTraitMFC_DLL@DV?$ChTraitsCRT@D@ATL@@@@@ATL@@HHW4HORZSCALEDRAWERTYPE@CScaleBaseData@@@Z ; CTickRealDataModule::CTickRealDataModule
PUBLIC	??1CTickRealDataModule@@UAE@XZ			; CTickRealDataModule::~CTickRealDataModule
PUBLIC	?SetRealData@CTickRealDataModule@@MAEHPAVCPacket@@AB_J@Z ; CTickRealDataModule::SetRealData
PUBLIC	?GetTimeIntervalWithSecond@CTickRealDataModule@@MAE_JXZ ; CTickRealDataModule::GetTimeIntervalWithSecond
PUBLIC	??_GCTickRealDataModule@@UAEPAXI@Z		; CTickRealDataModule::`scalar deleting destructor'
PUBLIC	??0CDateRealDataModule@@QAE@AAVCMarketTimeData@@ABV?$CStringT@DV?$StrTraitMFC_DLL@DV?$ChTraitsCRT@D@ATL@@@@@ATL@@W4HORZSCALEDRAWERTYPE@CScaleBaseData@@H@Z ; CDateRealDataModule::CDateRealDataModule
PUBLIC	??1CDateRealDataModule@@UAE@XZ			; CDateRealDataModule::~CDateRealDataModule
PUBLIC	?SetRealData@CDateRealDataModule@@MAEHPAVCPacket@@AB_J@Z ; CDateRealDataModule::SetRealData
PUBLIC	?GetRealData_CloseTime@CDateRealDataModule@@MAE_NPAVCPacket@@AA_J@Z ; CDateRealDataModule::GetRealData_CloseTime
PUBLIC	?GetTimeIntervalWithSecond@CDateRealDataModule@@MAE_JXZ ; CDateRealDataModule::GetTimeIntervalWithSecond
PUBLIC	??_GCDateRealDataModule@@UAEPAXI@Z		; CDateRealDataModule::`scalar deleting destructor'
PUBLIC	??0CWeekRealDataModule@@QAE@AAVCMarketTimeData@@ABV?$CStringT@DV?$StrTraitMFC_DLL@DV?$ChTraitsCRT@D@ATL@@@@@ATL@@W4HORZSCALEDRAWERTYPE@CScaleBaseData@@@Z ; CWeekRealDataModule::CWeekRealDataModule
PUBLIC	??1CWeekRealDataModule@@UAE@XZ			; CWeekRealDataModule::~CWeekRealDataModule
PUBLIC	?SetTimeRange_TRPart@CWeekRealDataModule@@MAEHAB_J_J@Z ; CWeekRealDataModule::SetTimeRange_TRPart
PUBLIC	?SetRealData@CWeekRealDataModule@@MAEHPAVCPacket@@AB_J@Z ; CWeekRealDataModule::SetRealData
PUBLIC	?GetLastMondayDate@CWeekRealDataModule@@IAEH_J@Z ; CWeekRealDataModule::GetLastMondayDate
PUBLIC	?GetRealData_CloseTime@CWeekRealDataModule@@MAE_NPAVCPacket@@AA_J@Z ; CWeekRealDataModule::GetRealData_CloseTime
PUBLIC	?GetTimeIntervalWithSecond@CWeekRealDataModule@@MAE_JXZ ; CWeekRealDataModule::GetTimeIntervalWithSecond
PUBLIC	??_GCWeekRealDataModule@@UAEPAXI@Z		; CWeekRealDataModule::`scalar deleting destructor'
PUBLIC	??0CTimeRealDataModule@@QAE@ABVCDateData@@AAVCMarketTimeData@@ABV?$CStringT@DV?$StrTraitMFC_DLL@DV?$ChTraitsCRT@D@ATL@@@@@ATL@@H2W4HORZSCALEDRAWERTYPE@CScaleBaseData@@@Z ; CTimeRealDataModule::CTimeRealDataModule
PUBLIC	??1CTimeRealDataModule@@UAE@XZ			; CTimeRealDataModule::~CTimeRealDataModule
PUBLIC	?GetTimeRangeStartWithPacketType@CTimeRealDataModule@@MBE_JXZ ; CTimeRealDataModule::GetTimeRangeStartWithPacketType
PUBLIC	?SetTimeRange_TRPart@CTimeRealDataModule@@MAEHAB_J_J@Z ; CTimeRealDataModule::SetTimeRange_TRPart
PUBLIC	?SetRealData@CTimeRealDataModule@@MAEHPAVCPacket@@AB_J@Z ; CTimeRealDataModule::SetRealData
PUBLIC	?SetRealData_AppendOrUpdate2@CTimeRealDataModule@@IAEHPAVCPacket@@AB_J11@Z ; CTimeRealDataModule::SetRealData_AppendOrUpdate2
PUBLIC	?GetRealData_CloseTime@CTimeRealDataModule@@MAE_NPAVCPacket@@AA_J@Z ; CTimeRealDataModule::GetRealData_CloseTime
PUBLIC	?GetRealData_CloseTime_AppendOrUpdate2@CTimeRealDataModule@@IAE_NPAVCPacket@@AB_J1AA_J@Z ; CTimeRealDataModule::GetRealData_CloseTime_AppendOrUpdate2
PUBLIC	?GetNextIntervalWithoutOffTime@CTimeRealDataModule@@IAEHAA_J0H@Z ; CTimeRealDataModule::GetNextIntervalWithoutOffTime
PUBLIC	?GetPrevIntervalWithoutOffTime@CTimeRealDataModule@@IAEXAA_J0H@Z ; CTimeRealDataModule::GetPrevIntervalWithoutOffTime
PUBLIC	?IsOnMarketTimeRange@CTimeRealDataModule@@IAEHAB_J0ABH111@Z ; CTimeRealDataModule::IsOnMarketTimeRange
PUBLIC	?IsOnMarketDay@CTimeRealDataModule@@IAEH_J@Z	; CTimeRealDataModule::IsOnMarketDay
PUBLIC	?GetTimeIntervalWithSecond@CTimeRealDataModule@@MAE_JXZ ; CTimeRealDataModule::GetTimeIntervalWithSecond
PUBLIC	??_GCTimeRealDataModule@@UAEPAXI@Z		; CTimeRealDataModule::`scalar deleting destructor'
PUBLIC	??0CFloorTimeRealDataModule@@QAE@ABVCDateData@@AAVCMarketTimeData@@ABV?$CStringT@DV?$StrTraitMFC_DLL@DV?$ChTraitsCRT@D@ATL@@@@@ATL@@H2W4HORZSCALEDRAWERTYPE@CScaleBaseData@@@Z ; CFloorTimeRealDataModule::CFloorTimeRealDataModule
PUBLIC	?GetRealType@CFloorTimeRealDataModule@@MBE?AW4REALTYPE@CPacketType@@XZ ; CFloorTimeRealDataModule::GetRealType
PUBLIC	?IsTimeAdd@CFloorTimeRealDataModule@@MBE_NAB_J0@Z ; CFloorTimeRealDataModule::IsTimeAdd
PUBLIC	?SetRealData_AppendOrUpdate@CFloorTimeRealDataModule@@MAEHPAVCPacket@@AB_J11@Z ; CFloorTimeRealDataModule::SetRealData_AppendOrUpdate
PUBLIC	?GetCloseTime@CFloorTimeRealDataModule@@MBE_JAB_J0@Z ; CFloorTimeRealDataModule::GetCloseTime
PUBLIC	?GetRealData_CloseTime_AppendOrUpdate@CFloorTimeRealDataModule@@MAE_NPAVCPacket@@AB_J1AA_J@Z ; CFloorTimeRealDataModule::GetRealData_CloseTime_AppendOrUpdate
PUBLIC	??_GCFloorTimeRealDataModule@@UAEPAXI@Z		; CFloorTimeRealDataModule::`scalar deleting destructor'
PUBLIC	??0CCeilingTimeRealDataModule@@QAE@ABVCDateData@@AAVCMarketTimeData@@ABV?$CStringT@DV?$StrTraitMFC_DLL@DV?$ChTraitsCRT@D@ATL@@@@@ATL@@H2W4HORZSCALEDRAWERTYPE@CScaleBaseData@@@Z ; CCeilingTimeRealDataModule::CCeilingTimeRealDataModule
PUBLIC	?GetRealType@CCeilingTimeRealDataModule@@MBE?AW4REALTYPE@CPacketType@@XZ ; CCeilingTimeRealDataModule::GetRealType
PUBLIC	?IsTimeAdd@CCeilingTimeRealDataModule@@MBE_NAB_J0@Z ; CCeilingTimeRealDataModule::IsTimeAdd
PUBLIC	?SetRealData_AppendOrUpdate@CCeilingTimeRealDataModule@@MAEHPAVCPacket@@AB_J11@Z ; CCeilingTimeRealDataModule::SetRealData_AppendOrUpdate
PUBLIC	?GetCloseTime@CCeilingTimeRealDataModule@@MBE_JAB_J0@Z ; CCeilingTimeRealDataModule::GetCloseTime
PUBLIC	?GetRealData_CloseTime_AppendOrUpdate@CCeilingTimeRealDataModule@@MAE_NPAVCPacket@@AB_J1AA_J@Z ; CCeilingTimeRealDataModule::GetRealData_CloseTime_AppendOrUpdate
PUBLIC	??_GCCeilingTimeRealDataModule@@UAEPAXI@Z	; CCeilingTimeRealDataModule::`scalar deleting destructor'
PUBLIC	??0CCeiling2TimeRealDataModule@@QAE@ABVCDateData@@AAVCMarketTimeData@@ABV?$CStringT@DV?$StrTraitMFC_DLL@DV?$ChTraitsCRT@D@ATL@@@@@ATL@@H2W4HORZSCALEDRAWERTYPE@CScaleBaseData@@@Z ; CCeiling2TimeRealDataModule::CCeiling2TimeRealDataModule
PUBLIC	?GetRealType@CCeiling2TimeRealDataModule@@MBE?AW4REALTYPE@CPacketType@@XZ ; CCeiling2TimeRealDataModule::GetRealType
PUBLIC	?IsTimeAdd@CCeiling2TimeRealDataModule@@MBE_NAB_J0@Z ; CCeiling2TimeRealDataModule::IsTimeAdd
PUBLIC	?SetRealData_AppendOrUpdate@CCeiling2TimeRealDataModule@@MAEHPAVCPacket@@AB_J11@Z ; CCeiling2TimeRealDataModule::SetRealData_AppendOrUpdate
PUBLIC	?GetCloseTime@CCeiling2TimeRealDataModule@@MBE_JAB_J0@Z ; CCeiling2TimeRealDataModule::GetCloseTime
PUBLIC	?GetRealData_CloseTime_AppendOrUpdate@CCeiling2TimeRealDataModule@@MAE_NPAVCPacket@@AB_J1AA_J@Z ; CCeiling2TimeRealDataModule::GetRealData_CloseTime_AppendOrUpdate
PUBLIC	??_GCCeiling2TimeRealDataModule@@UAEPAXI@Z	; CCeiling2TimeRealDataModule::`scalar deleting destructor'
PUBLIC	?GetIndex@CBracket@@QBEHXZ			; CBracket::GetIndex
PUBLIC	?GetDate@CBracket@@QBEHXZ			; CBracket::GetDate
PUBLIC	?GetItem@CBracket@@QBEPBDXZ			; CBracket::GetItem
PUBLIC	??0CBracket@@QAE@ABV0@@Z			; CBracket::CBracket
PUBLIC	??4CBracket@@QAEAAV0@ABV0@@Z			; CBracket::operator=
PUBLIC	?GetPriceX100@CMPItem@@QBEHXZ			; CMPItem::GetPriceX100
PUBLIC	?GetVolume@CMPItem@@QBEKXZ			; CMPItem::GetVolume
PUBLIC	?GetBracketList@CMPItem@@QAEPAV?$CList@PAVCBracket@@PAV1@@@XZ ; CMPItem::GetBracketList
PUBLIC	?SetPrice@CMPItem@@QAEXH@Z			; CMPItem::SetPrice
PUBLIC	?AddVolume@CMPItem@@QAEXK@Z			; CMPItem::AddVolume
PUBLIC	?GetDate@CMProfile@@QBEHXZ			; CMProfile::GetDate
PUBLIC	?GetMPItemList@CMProfile@@QAEPAV?$CList@PAVCMPItem@@PAV1@@@XZ ; CMProfile::GetMPItemList
PUBLIC	?SetDate@CMProfile@@QAEXH@Z			; CMProfile::SetDate
PUBLIC	?IsEmpty@CMProfile@@QAEHXZ			; CMProfile::IsEmpty
PUBLIC	?GetLastPriceX100@CMProfile@@QBEHXZ		; CMProfile::GetLastPriceX100
PUBLIC	?SetLastPriceX100@CMProfile@@QAEXH@Z		; CMProfile::SetLastPriceX100
PUBLIC	?GetMarketProfileList@CMPPacket@@QAEPAV?$CList@PAVCMProfile@@PAV1@@@XZ ; CMPPacket::GetMarketProfileList
PUBLIC	?SetPriceUnitX100@CMPPacket@@QAEXH@Z		; CMPPacket::SetPriceUnitX100
PUBLIC	?GetPriceUnitX100@CMPPacket@@QBEHXZ		; CMPPacket::GetPriceUnitX100
PUBLIC	??_7CTimeRealDataModuleBase@@6B@		; CTimeRealDataModuleBase::`vftable'
PUBLIC	??_7CTickRealDataModule@@6B@			; CTickRealDataModule::`vftable'
PUBLIC	??_7CDateRealDataModule@@6B@			; CDateRealDataModule::`vftable'
PUBLIC	??_7CWeekRealDataModule@@6B@			; CWeekRealDataModule::`vftable'
PUBLIC	??_7CTimeRealDataModule@@6B@			; CTimeRealDataModule::`vftable'
PUBLIC	??_7CFloorTimeRealDataModule@@6B@		; CFloorTimeRealDataModule::`vftable'
PUBLIC	??_7CCeilingTimeRealDataModule@@6B@		; CCeilingTimeRealDataModule::`vftable'
PUBLIC	??_7CCeiling2TimeRealDataModule@@6B@		; CCeiling2TimeRealDataModule::`vftable'
PUBLIC	??_C@_0P@IMPIBBAB@YYYYMMDDHHMMSS@		; `string'
PUBLIC	??_R4CTimeRealDataModuleBase@@6B@		; CTimeRealDataModuleBase::`RTTI Complete Object Locator'
PUBLIC	??_R0?AVCTimeRealDataModuleBase@@@8		; CTimeRealDataModuleBase `RTTI Type Descriptor'
PUBLIC	??_R3CTimeRealDataModuleBase@@8			; CTimeRealDataModuleBase::`RTTI Class Hierarchy Descriptor'
PUBLIC	??_R2CTimeRealDataModuleBase@@8			; CTimeRealDataModuleBase::`RTTI Base Class Array'
PUBLIC	??_R1A@?0A@EA@CTimeRealDataModuleBase@@8	; CTimeRealDataModuleBase::`RTTI Base Class Descriptor at (0,-1,0,64)'
PUBLIC	??_R4CTickRealDataModule@@6B@			; CTickRealDataModule::`RTTI Complete Object Locator'
PUBLIC	??_R0?AVCTickRealDataModule@@@8			; CTickRealDataModule `RTTI Type Descriptor'
PUBLIC	??_R3CTickRealDataModule@@8			; CTickRealDataModule::`RTTI Class Hierarchy Descriptor'
PUBLIC	??_R2CTickRealDataModule@@8			; CTickRealDataModule::`RTTI Base Class Array'
PUBLIC	??_R1A@?0A@EA@CTickRealDataModule@@8		; CTickRealDataModule::`RTTI Base Class Descriptor at (0,-1,0,64)'
PUBLIC	??_R4CDateRealDataModule@@6B@			; CDateRealDataModule::`RTTI Complete Object Locator'
PUBLIC	??_R0?AVCDateRealDataModule@@@8			; CDateRealDataModule `RTTI Type Descriptor'
PUBLIC	??_R3CDateRealDataModule@@8			; CDateRealDataModule::`RTTI Class Hierarchy Descriptor'
PUBLIC	??_R2CDateRealDataModule@@8			; CDateRealDataModule::`RTTI Base Class Array'
PUBLIC	??_R1A@?0A@EA@CDateRealDataModule@@8		; CDateRealDataModule::`RTTI Base Class Descriptor at (0,-1,0,64)'
PUBLIC	??_R4CWeekRealDataModule@@6B@			; CWeekRealDataModule::`RTTI Complete Object Locator'
PUBLIC	??_R0?AVCWeekRealDataModule@@@8			; CWeekRealDataModule `RTTI Type Descriptor'
PUBLIC	??_R3CWeekRealDataModule@@8			; CWeekRealDataModule::`RTTI Class Hierarchy Descriptor'
PUBLIC	??_R2CWeekRealDataModule@@8			; CWeekRealDataModule::`RTTI Base Class Array'
PUBLIC	??_R1A@?0A@EA@CWeekRealDataModule@@8		; CWeekRealDataModule::`RTTI Base Class Descriptor at (0,-1,0,64)'
PUBLIC	??_R4CTimeRealDataModule@@6B@			; CTimeRealDataModule::`RTTI Complete Object Locator'
PUBLIC	??_R0?AVCTimeRealDataModule@@@8			; CTimeRealDataModule `RTTI Type Descriptor'
PUBLIC	??_R3CTimeRealDataModule@@8			; CTimeRealDataModule::`RTTI Class Hierarchy Descriptor'
PUBLIC	??_R2CTimeRealDataModule@@8			; CTimeRealDataModule::`RTTI Base Class Array'
PUBLIC	??_R1A@?0A@EA@CTimeRealDataModule@@8		; CTimeRealDataModule::`RTTI Base Class Descriptor at (0,-1,0,64)'
PUBLIC	??_R4CFloorTimeRealDataModule@@6B@		; CFloorTimeRealDataModule::`RTTI Complete Object Locator'
PUBLIC	??_R0?AVCFloorTimeRealDataModule@@@8		; CFloorTimeRealDataModule `RTTI Type Descriptor'
PUBLIC	??_R3CFloorTimeRealDataModule@@8		; CFloorTimeRealDataModule::`RTTI Class Hierarchy Descriptor'
PUBLIC	??_R2CFloorTimeRealDataModule@@8		; CFloorTimeRealDataModule::`RTTI Base Class Array'
PUBLIC	??_R1A@?0A@EA@CFloorTimeRealDataModule@@8	; CFloorTimeRealDataModule::`RTTI Base Class Descriptor at (0,-1,0,64)'
PUBLIC	??_R4CCeilingTimeRealDataModule@@6B@		; CCeilingTimeRealDataModule::`RTTI Complete Object Locator'
PUBLIC	??_R0?AVCCeilingTimeRealDataModule@@@8		; CCeilingTimeRealDataModule `RTTI Type Descriptor'
PUBLIC	??_R3CCeilingTimeRealDataModule@@8		; CCeilingTimeRealDataModule::`RTTI Class Hierarchy Descriptor'
PUBLIC	??_R2CCeilingTimeRealDataModule@@8		; CCeilingTimeRealDataModule::`RTTI Base Class Array'
PUBLIC	??_R1A@?0A@EA@CCeilingTimeRealDataModule@@8	; CCeilingTimeRealDataModule::`RTTI Base Class Descriptor at (0,-1,0,64)'
PUBLIC	??_R4CCeiling2TimeRealDataModule@@6B@		; CCeiling2TimeRealDataModule::`RTTI Complete Object Locator'
PUBLIC	??_R0?AVCCeiling2TimeRealDataModule@@@8		; CCeiling2TimeRealDataModule `RTTI Type Descriptor'
PUBLIC	??_R3CCeiling2TimeRealDataModule@@8		; CCeiling2TimeRealDataModule::`RTTI Class Hierarchy Descriptor'
PUBLIC	??_R2CCeiling2TimeRealDataModule@@8		; CCeiling2TimeRealDataModule::`RTTI Base Class Array'
PUBLIC	??_R1A@?0A@EA@CCeiling2TimeRealDataModule@@8	; CCeiling2TimeRealDataModule::`RTTI Base Class Descriptor at (0,-1,0,64)'
EXTRN	__purecall:PROC
EXTRN	??3@YAXPAXI@Z:PROC				; operator delete
EXTRN	_strchr:PROC
EXTRN	__imp__atoi:PROC
EXTRN	__imp__atol:PROC
EXTRN	__imp___mktime64:PROC
EXTRN	?AfxThrowInvalidArgException@@YGXXZ:PROC	; AfxThrowInvalidArgException
EXTRN	__imp_?GetBufferSetLength@?$CSimpleStringT@D$00@ATL@@QAEPADH@Z:PROC
EXTRN	__imp_??0?$CStringT@DV?$StrTraitMFC_DLL@DV?$ChTraitsCRT@D@ATL@@@@@ATL@@QAE@XZ:PROC
EXTRN	__imp_??0?$CStringT@DV?$StrTraitMFC_DLL@DV?$ChTraitsCRT@D@ATL@@@@@ATL@@QAE@ABV01@@Z:PROC
EXTRN	__imp_??1?$CStringT@DV?$StrTraitMFC_DLL@DV?$ChTraitsCRT@D@ATL@@@@@ATL@@QAE@XZ:PROC
EXTRN	__imp_??4?$CStringT@DV?$StrTraitMFC_DLL@DV?$ChTraitsCRT@D@ATL@@@@@ATL@@QAEAAV01@ABV01@@Z:PROC
EXTRN	__imp_?Compare@?$CStringT@DV?$StrTraitMFC_DLL@DV?$ChTraitsCRT@D@ATL@@@@@ATL@@QBEHPBD@Z:PROC
EXTRN	??0CMapPtrToPtr@@QAE@H@Z:PROC			; CMapPtrToPtr::CMapPtrToPtr
EXTRN	?Lookup@CMapPtrToPtr@@QBEHPAXAAPAX@Z:PROC	; CMapPtrToPtr::Lookup
EXTRN	??ACMapPtrToPtr@@QAEAAPAXPAX@Z:PROC		; CMapPtrToPtr::operator[]
EXTRN	?RemoveAll@CMapPtrToPtr@@QAEXXZ:PROC		; CMapPtrToPtr::RemoveAll
EXTRN	??1CMapPtrToPtr@@UAE@XZ:PROC			; CMapPtrToPtr::~CMapPtrToPtr
EXTRN	??0CTimeTypeConvert@@QAE@XZ:PROC		; CTimeTypeConvert::CTimeTypeConvert
EXTRN	??1CTimeTypeConvert@@UAE@XZ:PROC		; CTimeTypeConvert::~CTimeTypeConvert
EXTRN	?SetPacketType@CTimeTypeConvert@@QAEXPBD@Z:PROC	; CTimeTypeConvert::SetPacketType
EXTRN	?GetPacketTypeTime@CTimeTypeConvert@@QBE_J_JH@Z:PROC ; CTimeTypeConvert::GetPacketTypeTime
EXTRN	?GetTimeFromServer@CTimeData@@QBEHXZ:PROC	; CTimeData::GetTimeFromServer
EXTRN	?GetMarketTime@CMarketTimeData@@QBE_NAAH0@Z:PROC ; CMarketTimeData::GetMarketTime
EXTRN	??_ECTimeRealDataModuleBase@@UAEPAXI@Z:PROC	; CTimeRealDataModuleBase::`vector deleting destructor'
EXTRN	??_ECTickRealDataModule@@UAEPAXI@Z:PROC		; CTickRealDataModule::`vector deleting destructor'
EXTRN	??_ECDateRealDataModule@@UAEPAXI@Z:PROC		; CDateRealDataModule::`vector deleting destructor'
EXTRN	??_ECWeekRealDataModule@@UAEPAXI@Z:PROC		; CWeekRealDataModule::`vector deleting destructor'
EXTRN	??_ECTimeRealDataModule@@UAEPAXI@Z:PROC		; CTimeRealDataModule::`vector deleting destructor'
EXTRN	??_ECFloorTimeRealDataModule@@UAEPAXI@Z:PROC	; CFloorTimeRealDataModule::`vector deleting destructor'
EXTRN	??_ECCeilingTimeRealDataModule@@UAEPAXI@Z:PROC	; CCeilingTimeRealDataModule::`vector deleting destructor'
EXTRN	??_ECCeiling2TimeRealDataModule@@UAEPAXI@Z:PROC	; CCeiling2TimeRealDataModule::`vector deleting destructor'
EXTRN	?GetnumericDataList@CPacket@@QAEPAV?$CList@NN@@XZ:PROC ; CPacket::GetnumericDataList
EXTRN	?AppendData@CPacket@@QAEXNH@Z:PROC		; CPacket::AppendData
EXTRN	?UpdateData@CPacket@@QAEXN@Z:PROC		; CPacket::UpdateData
EXTRN	?RemoveBaseData@CPacket@@QAE_NH@Z:PROC		; CPacket::RemoveBaseData
EXTRN	?IsSpecialTime@IMetaTable@@QAEHH@Z:PROC		; IMetaTable::IsSpecialTime
EXTRN	?CalcTimeSum@CDataConversion@@SA_J_J0H@Z:PROC	; CDataConversion::CalcTimeSum
EXTRN	?GetSecond@CDataConversion@@SA_J_JH@Z:PROC	; CDataConversion::GetSecond
EXTRN	@__security_check_cookie@4:PROC
EXTRN	___CxxFrameHandler3:PROC
EXTRN	__alldiv:PROC
EXTRN	__allmul:PROC
EXTRN	__allrem:PROC
EXTRN	__dtol3:PROC
EXTRN	__ltod3:PROC
EXTRN	??_7type_info@@6B@:QWORD			; type_info::`vftable'
EXTRN	?g_iMetaTable@@3VIMetaTable@@A:BYTE		; g_iMetaTable
EXTRN	___security_cookie:DWORD
EXTRN	__fltused:DWORD
;	COMDAT ??_R1A@?0A@EA@CCeiling2TimeRealDataModule@@8
rdata$r	SEGMENT
??_R1A@?0A@EA@CCeiling2TimeRealDataModule@@8 DD FLAT:??_R0?AVCCeiling2TimeRealDataModule@@@8 ; CCeiling2TimeRealDataModule::`RTTI Base Class Descriptor at (0,-1,0,64)'
	DD	03H
	DD	00H
	DD	0ffffffffH
	DD	00H
	DD	040H
	DD	FLAT:??_R3CCeiling2TimeRealDataModule@@8
rdata$r	ENDS
;	COMDAT ??_R2CCeiling2TimeRealDataModule@@8
rdata$r	SEGMENT
??_R2CCeiling2TimeRealDataModule@@8 DD FLAT:??_R1A@?0A@EA@CCeiling2TimeRealDataModule@@8 ; CCeiling2TimeRealDataModule::`RTTI Base Class Array'
	DD	FLAT:??_R1A@?0A@EA@CCeilingTimeRealDataModule@@8
	DD	FLAT:??_R1A@?0A@EA@CTimeRealDataModule@@8
	DD	FLAT:??_R1A@?0A@EA@CTimeRealDataModuleBase@@8
rdata$r	ENDS
;	COMDAT ??_R3CCeiling2TimeRealDataModule@@8
rdata$r	SEGMENT
??_R3CCeiling2TimeRealDataModule@@8 DD 00H		; CCeiling2TimeRealDataModule::`RTTI Class Hierarchy Descriptor'
	DD	00H
	DD	04H
	DD	FLAT:??_R2CCeiling2TimeRealDataModule@@8
rdata$r	ENDS
;	COMDAT ??_R0?AVCCeiling2TimeRealDataModule@@@8
data$rs	SEGMENT
??_R0?AVCCeiling2TimeRealDataModule@@@8 DD FLAT:??_7type_info@@6B@ ; CCeiling2TimeRealDataModule `RTTI Type Descriptor'
	DD	00H
	DB	'.?AVCCeiling2TimeRealDataModule@@', 00H
data$rs	ENDS
;	COMDAT ??_R4CCeiling2TimeRealDataModule@@6B@
rdata$r	SEGMENT
??_R4CCeiling2TimeRealDataModule@@6B@ DD 00H		; CCeiling2TimeRealDataModule::`RTTI Complete Object Locator'
	DD	00H
	DD	00H
	DD	FLAT:??_R0?AVCCeiling2TimeRealDataModule@@@8
	DD	FLAT:??_R3CCeiling2TimeRealDataModule@@8
rdata$r	ENDS
;	COMDAT ??_R1A@?0A@EA@CCeilingTimeRealDataModule@@8
rdata$r	SEGMENT
??_R1A@?0A@EA@CCeilingTimeRealDataModule@@8 DD FLAT:??_R0?AVCCeilingTimeRealDataModule@@@8 ; CCeilingTimeRealDataModule::`RTTI Base Class Descriptor at (0,-1,0,64)'
	DD	02H
	DD	00H
	DD	0ffffffffH
	DD	00H
	DD	040H
	DD	FLAT:??_R3CCeilingTimeRealDataModule@@8
rdata$r	ENDS
;	COMDAT ??_R2CCeilingTimeRealDataModule@@8
rdata$r	SEGMENT
??_R2CCeilingTimeRealDataModule@@8 DD FLAT:??_R1A@?0A@EA@CCeilingTimeRealDataModule@@8 ; CCeilingTimeRealDataModule::`RTTI Base Class Array'
	DD	FLAT:??_R1A@?0A@EA@CTimeRealDataModule@@8
	DD	FLAT:??_R1A@?0A@EA@CTimeRealDataModuleBase@@8
rdata$r	ENDS
;	COMDAT ??_R3CCeilingTimeRealDataModule@@8
rdata$r	SEGMENT
??_R3CCeilingTimeRealDataModule@@8 DD 00H		; CCeilingTimeRealDataModule::`RTTI Class Hierarchy Descriptor'
	DD	00H
	DD	03H
	DD	FLAT:??_R2CCeilingTimeRealDataModule@@8
rdata$r	ENDS
;	COMDAT ??_R0?AVCCeilingTimeRealDataModule@@@8
data$rs	SEGMENT
??_R0?AVCCeilingTimeRealDataModule@@@8 DD FLAT:??_7type_info@@6B@ ; CCeilingTimeRealDataModule `RTTI Type Descriptor'
	DD	00H
	DB	'.?AVCCeilingTimeRealDataModule@@', 00H
data$rs	ENDS
;	COMDAT ??_R4CCeilingTimeRealDataModule@@6B@
rdata$r	SEGMENT
??_R4CCeilingTimeRealDataModule@@6B@ DD 00H		; CCeilingTimeRealDataModule::`RTTI Complete Object Locator'
	DD	00H
	DD	00H
	DD	FLAT:??_R0?AVCCeilingTimeRealDataModule@@@8
	DD	FLAT:??_R3CCeilingTimeRealDataModule@@8
rdata$r	ENDS
;	COMDAT ??_R1A@?0A@EA@CFloorTimeRealDataModule@@8
rdata$r	SEGMENT
??_R1A@?0A@EA@CFloorTimeRealDataModule@@8 DD FLAT:??_R0?AVCFloorTimeRealDataModule@@@8 ; CFloorTimeRealDataModule::`RTTI Base Class Descriptor at (0,-1,0,64)'
	DD	02H
	DD	00H
	DD	0ffffffffH
	DD	00H
	DD	040H
	DD	FLAT:??_R3CFloorTimeRealDataModule@@8
rdata$r	ENDS
;	COMDAT ??_R2CFloorTimeRealDataModule@@8
rdata$r	SEGMENT
??_R2CFloorTimeRealDataModule@@8 DD FLAT:??_R1A@?0A@EA@CFloorTimeRealDataModule@@8 ; CFloorTimeRealDataModule::`RTTI Base Class Array'
	DD	FLAT:??_R1A@?0A@EA@CTimeRealDataModule@@8
	DD	FLAT:??_R1A@?0A@EA@CTimeRealDataModuleBase@@8
rdata$r	ENDS
;	COMDAT ??_R3CFloorTimeRealDataModule@@8
rdata$r	SEGMENT
??_R3CFloorTimeRealDataModule@@8 DD 00H			; CFloorTimeRealDataModule::`RTTI Class Hierarchy Descriptor'
	DD	00H
	DD	03H
	DD	FLAT:??_R2CFloorTimeRealDataModule@@8
rdata$r	ENDS
;	COMDAT ??_R0?AVCFloorTimeRealDataModule@@@8
data$rs	SEGMENT
??_R0?AVCFloorTimeRealDataModule@@@8 DD FLAT:??_7type_info@@6B@ ; CFloorTimeRealDataModule `RTTI Type Descriptor'
	DD	00H
	DB	'.?AVCFloorTimeRealDataModule@@', 00H
data$rs	ENDS
;	COMDAT ??_R4CFloorTimeRealDataModule@@6B@
rdata$r	SEGMENT
??_R4CFloorTimeRealDataModule@@6B@ DD 00H		; CFloorTimeRealDataModule::`RTTI Complete Object Locator'
	DD	00H
	DD	00H
	DD	FLAT:??_R0?AVCFloorTimeRealDataModule@@@8
	DD	FLAT:??_R3CFloorTimeRealDataModule@@8
rdata$r	ENDS
;	COMDAT ??_R1A@?0A@EA@CTimeRealDataModule@@8
rdata$r	SEGMENT
??_R1A@?0A@EA@CTimeRealDataModule@@8 DD FLAT:??_R0?AVCTimeRealDataModule@@@8 ; CTimeRealDataModule::`RTTI Base Class Descriptor at (0,-1,0,64)'
	DD	01H
	DD	00H
	DD	0ffffffffH
	DD	00H
	DD	040H
	DD	FLAT:??_R3CTimeRealDataModule@@8
rdata$r	ENDS
;	COMDAT ??_R2CTimeRealDataModule@@8
rdata$r	SEGMENT
??_R2CTimeRealDataModule@@8 DD FLAT:??_R1A@?0A@EA@CTimeRealDataModule@@8 ; CTimeRealDataModule::`RTTI Base Class Array'
	DD	FLAT:??_R1A@?0A@EA@CTimeRealDataModuleBase@@8
rdata$r	ENDS
;	COMDAT ??_R3CTimeRealDataModule@@8
rdata$r	SEGMENT
??_R3CTimeRealDataModule@@8 DD 00H			; CTimeRealDataModule::`RTTI Class Hierarchy Descriptor'
	DD	00H
	DD	02H
	DD	FLAT:??_R2CTimeRealDataModule@@8
rdata$r	ENDS
;	COMDAT ??_R0?AVCTimeRealDataModule@@@8
data$rs	SEGMENT
??_R0?AVCTimeRealDataModule@@@8 DD FLAT:??_7type_info@@6B@ ; CTimeRealDataModule `RTTI Type Descriptor'
	DD	00H
	DB	'.?AVCTimeRealDataModule@@', 00H
data$rs	ENDS
;	COMDAT ??_R4CTimeRealDataModule@@6B@
rdata$r	SEGMENT
??_R4CTimeRealDataModule@@6B@ DD 00H			; CTimeRealDataModule::`RTTI Complete Object Locator'
	DD	00H
	DD	00H
	DD	FLAT:??_R0?AVCTimeRealDataModule@@@8
	DD	FLAT:??_R3CTimeRealDataModule@@8
rdata$r	ENDS
;	COMDAT ??_R1A@?0A@EA@CWeekRealDataModule@@8
rdata$r	SEGMENT
??_R1A@?0A@EA@CWeekRealDataModule@@8 DD FLAT:??_R0?AVCWeekRealDataModule@@@8 ; CWeekRealDataModule::`RTTI Base Class Descriptor at (0,-1,0,64)'
	DD	01H
	DD	00H
	DD	0ffffffffH
	DD	00H
	DD	040H
	DD	FLAT:??_R3CWeekRealDataModule@@8
rdata$r	ENDS
;	COMDAT ??_R2CWeekRealDataModule@@8
rdata$r	SEGMENT
??_R2CWeekRealDataModule@@8 DD FLAT:??_R1A@?0A@EA@CWeekRealDataModule@@8 ; CWeekRealDataModule::`RTTI Base Class Array'
	DD	FLAT:??_R1A@?0A@EA@CTimeRealDataModuleBase@@8
rdata$r	ENDS
;	COMDAT ??_R3CWeekRealDataModule@@8
rdata$r	SEGMENT
??_R3CWeekRealDataModule@@8 DD 00H			; CWeekRealDataModule::`RTTI Class Hierarchy Descriptor'
	DD	00H
	DD	02H
	DD	FLAT:??_R2CWeekRealDataModule@@8
rdata$r	ENDS
;	COMDAT ??_R0?AVCWeekRealDataModule@@@8
data$rs	SEGMENT
??_R0?AVCWeekRealDataModule@@@8 DD FLAT:??_7type_info@@6B@ ; CWeekRealDataModule `RTTI Type Descriptor'
	DD	00H
	DB	'.?AVCWeekRealDataModule@@', 00H
data$rs	ENDS
;	COMDAT ??_R4CWeekRealDataModule@@6B@
rdata$r	SEGMENT
??_R4CWeekRealDataModule@@6B@ DD 00H			; CWeekRealDataModule::`RTTI Complete Object Locator'
	DD	00H
	DD	00H
	DD	FLAT:??_R0?AVCWeekRealDataModule@@@8
	DD	FLAT:??_R3CWeekRealDataModule@@8
rdata$r	ENDS
;	COMDAT ??_R1A@?0A@EA@CDateRealDataModule@@8
rdata$r	SEGMENT
??_R1A@?0A@EA@CDateRealDataModule@@8 DD FLAT:??_R0?AVCDateRealDataModule@@@8 ; CDateRealDataModule::`RTTI Base Class Descriptor at (0,-1,0,64)'
	DD	01H
	DD	00H
	DD	0ffffffffH
	DD	00H
	DD	040H
	DD	FLAT:??_R3CDateRealDataModule@@8
rdata$r	ENDS
;	COMDAT ??_R2CDateRealDataModule@@8
rdata$r	SEGMENT
??_R2CDateRealDataModule@@8 DD FLAT:??_R1A@?0A@EA@CDateRealDataModule@@8 ; CDateRealDataModule::`RTTI Base Class Array'
	DD	FLAT:??_R1A@?0A@EA@CTimeRealDataModuleBase@@8
rdata$r	ENDS
;	COMDAT ??_R3CDateRealDataModule@@8
rdata$r	SEGMENT
??_R3CDateRealDataModule@@8 DD 00H			; CDateRealDataModule::`RTTI Class Hierarchy Descriptor'
	DD	00H
	DD	02H
	DD	FLAT:??_R2CDateRealDataModule@@8
rdata$r	ENDS
;	COMDAT ??_R0?AVCDateRealDataModule@@@8
data$rs	SEGMENT
??_R0?AVCDateRealDataModule@@@8 DD FLAT:??_7type_info@@6B@ ; CDateRealDataModule `RTTI Type Descriptor'
	DD	00H
	DB	'.?AVCDateRealDataModule@@', 00H
data$rs	ENDS
;	COMDAT ??_R4CDateRealDataModule@@6B@
rdata$r	SEGMENT
??_R4CDateRealDataModule@@6B@ DD 00H			; CDateRealDataModule::`RTTI Complete Object Locator'
	DD	00H
	DD	00H
	DD	FLAT:??_R0?AVCDateRealDataModule@@@8
	DD	FLAT:??_R3CDateRealDataModule@@8
rdata$r	ENDS
;	COMDAT ??_R1A@?0A@EA@CTickRealDataModule@@8
rdata$r	SEGMENT
??_R1A@?0A@EA@CTickRealDataModule@@8 DD FLAT:??_R0?AVCTickRealDataModule@@@8 ; CTickRealDataModule::`RTTI Base Class Descriptor at (0,-1,0,64)'
	DD	01H
	DD	00H
	DD	0ffffffffH
	DD	00H
	DD	040H
	DD	FLAT:??_R3CTickRealDataModule@@8
rdata$r	ENDS
;	COMDAT ??_R2CTickRealDataModule@@8
rdata$r	SEGMENT
??_R2CTickRealDataModule@@8 DD FLAT:??_R1A@?0A@EA@CTickRealDataModule@@8 ; CTickRealDataModule::`RTTI Base Class Array'
	DD	FLAT:??_R1A@?0A@EA@CTimeRealDataModuleBase@@8
rdata$r	ENDS
;	COMDAT ??_R3CTickRealDataModule@@8
rdata$r	SEGMENT
??_R3CTickRealDataModule@@8 DD 00H			; CTickRealDataModule::`RTTI Class Hierarchy Descriptor'
	DD	00H
	DD	02H
	DD	FLAT:??_R2CTickRealDataModule@@8
rdata$r	ENDS
;	COMDAT ??_R0?AVCTickRealDataModule@@@8
data$rs	SEGMENT
??_R0?AVCTickRealDataModule@@@8 DD FLAT:??_7type_info@@6B@ ; CTickRealDataModule `RTTI Type Descriptor'
	DD	00H
	DB	'.?AVCTickRealDataModule@@', 00H
data$rs	ENDS
;	COMDAT ??_R4CTickRealDataModule@@6B@
rdata$r	SEGMENT
??_R4CTickRealDataModule@@6B@ DD 00H			; CTickRealDataModule::`RTTI Complete Object Locator'
	DD	00H
	DD	00H
	DD	FLAT:??_R0?AVCTickRealDataModule@@@8
	DD	FLAT:??_R3CTickRealDataModule@@8
rdata$r	ENDS
;	COMDAT ??_R1A@?0A@EA@CTimeRealDataModuleBase@@8
rdata$r	SEGMENT
??_R1A@?0A@EA@CTimeRealDataModuleBase@@8 DD FLAT:??_R0?AVCTimeRealDataModuleBase@@@8 ; CTimeRealDataModuleBase::`RTTI Base Class Descriptor at (0,-1,0,64)'
	DD	00H
	DD	00H
	DD	0ffffffffH
	DD	00H
	DD	040H
	DD	FLAT:??_R3CTimeRealDataModuleBase@@8
rdata$r	ENDS
;	COMDAT ??_R2CTimeRealDataModuleBase@@8
rdata$r	SEGMENT
??_R2CTimeRealDataModuleBase@@8 DD FLAT:??_R1A@?0A@EA@CTimeRealDataModuleBase@@8 ; CTimeRealDataModuleBase::`RTTI Base Class Array'
rdata$r	ENDS
;	COMDAT ??_R3CTimeRealDataModuleBase@@8
rdata$r	SEGMENT
??_R3CTimeRealDataModuleBase@@8 DD 00H			; CTimeRealDataModuleBase::`RTTI Class Hierarchy Descriptor'
	DD	00H
	DD	01H
	DD	FLAT:??_R2CTimeRealDataModuleBase@@8
rdata$r	ENDS
;	COMDAT ??_R0?AVCTimeRealDataModuleBase@@@8
data$rs	SEGMENT
??_R0?AVCTimeRealDataModuleBase@@@8 DD FLAT:??_7type_info@@6B@ ; CTimeRealDataModuleBase `RTTI Type Descriptor'
	DD	00H
	DB	'.?AVCTimeRealDataModuleBase@@', 00H
data$rs	ENDS
;	COMDAT ??_R4CTimeRealDataModuleBase@@6B@
rdata$r	SEGMENT
??_R4CTimeRealDataModuleBase@@6B@ DD 00H		; CTimeRealDataModuleBase::`RTTI Complete Object Locator'
	DD	00H
	DD	00H
	DD	FLAT:??_R0?AVCTimeRealDataModuleBase@@@8
	DD	FLAT:??_R3CTimeRealDataModuleBase@@8
rdata$r	ENDS
;	COMDAT ??_C@_0P@IMPIBBAB@YYYYMMDDHHMMSS@
CONST	SEGMENT
??_C@_0P@IMPIBBAB@YYYYMMDDHHMMSS@ DB 'YYYYMMDDHHMMSS', 00H ; `string'
CONST	ENDS
;	COMDAT ??_7CCeiling2TimeRealDataModule@@6B@
CONST	SEGMENT
??_7CCeiling2TimeRealDataModule@@6B@ DD FLAT:??_R4CCeiling2TimeRealDataModule@@6B@ ; CCeiling2TimeRealDataModule::`vftable'
	DD	FLAT:??_ECCeiling2TimeRealDataModule@@UAEPAXI@Z
	DD	FLAT:?SetTimeRange_TRPart@CTimeRealDataModule@@MAEHAB_J_J@Z
	DD	FLAT:?SetRealData@CTimeRealDataModule@@MAEHPAVCPacket@@AB_J@Z
	DD	FLAT:?GetTimeRangeStartWithPacketType@CTimeRealDataModule@@MBE_JXZ
	DD	FLAT:?GetRealData_CloseTime@CTimeRealDataModule@@MAE_NPAVCPacket@@AA_J@Z
	DD	FLAT:?GetTimeIntervalWithSecond@CTimeRealDataModule@@MAE_JXZ
	DD	FLAT:?GetRealType@CCeiling2TimeRealDataModule@@MBE?AW4REALTYPE@CPacketType@@XZ
	DD	FLAT:?IsTimeAdd@CCeiling2TimeRealDataModule@@MBE_NAB_J0@Z
	DD	FLAT:?SetRealData_AppendOrUpdate@CCeiling2TimeRealDataModule@@MAEHPAVCPacket@@AB_J11@Z
	DD	FLAT:?GetCloseTime@CCeiling2TimeRealDataModule@@MBE_JAB_J0@Z
	DD	FLAT:?GetRealData_CloseTime_AppendOrUpdate@CCeiling2TimeRealDataModule@@MAE_NPAVCPacket@@AB_J1AA_J@Z
CONST	ENDS
;	COMDAT ??_7CCeilingTimeRealDataModule@@6B@
CONST	SEGMENT
??_7CCeilingTimeRealDataModule@@6B@ DD FLAT:??_R4CCeilingTimeRealDataModule@@6B@ ; CCeilingTimeRealDataModule::`vftable'
	DD	FLAT:??_ECCeilingTimeRealDataModule@@UAEPAXI@Z
	DD	FLAT:?SetTimeRange_TRPart@CTimeRealDataModule@@MAEHAB_J_J@Z
	DD	FLAT:?SetRealData@CTimeRealDataModule@@MAEHPAVCPacket@@AB_J@Z
	DD	FLAT:?GetTimeRangeStartWithPacketType@CTimeRealDataModule@@MBE_JXZ
	DD	FLAT:?GetRealData_CloseTime@CTimeRealDataModule@@MAE_NPAVCPacket@@AA_J@Z
	DD	FLAT:?GetTimeIntervalWithSecond@CTimeRealDataModule@@MAE_JXZ
	DD	FLAT:?GetRealType@CCeilingTimeRealDataModule@@MBE?AW4REALTYPE@CPacketType@@XZ
	DD	FLAT:?IsTimeAdd@CCeilingTimeRealDataModule@@MBE_NAB_J0@Z
	DD	FLAT:?SetRealData_AppendOrUpdate@CCeilingTimeRealDataModule@@MAEHPAVCPacket@@AB_J11@Z
	DD	FLAT:?GetCloseTime@CCeilingTimeRealDataModule@@MBE_JAB_J0@Z
	DD	FLAT:?GetRealData_CloseTime_AppendOrUpdate@CCeilingTimeRealDataModule@@MAE_NPAVCPacket@@AB_J1AA_J@Z
CONST	ENDS
;	COMDAT ??_7CFloorTimeRealDataModule@@6B@
CONST	SEGMENT
??_7CFloorTimeRealDataModule@@6B@ DD FLAT:??_R4CFloorTimeRealDataModule@@6B@ ; CFloorTimeRealDataModule::`vftable'
	DD	FLAT:??_ECFloorTimeRealDataModule@@UAEPAXI@Z
	DD	FLAT:?SetTimeRange_TRPart@CTimeRealDataModule@@MAEHAB_J_J@Z
	DD	FLAT:?SetRealData@CTimeRealDataModule@@MAEHPAVCPacket@@AB_J@Z
	DD	FLAT:?GetTimeRangeStartWithPacketType@CTimeRealDataModule@@MBE_JXZ
	DD	FLAT:?GetRealData_CloseTime@CTimeRealDataModule@@MAE_NPAVCPacket@@AA_J@Z
	DD	FLAT:?GetTimeIntervalWithSecond@CTimeRealDataModule@@MAE_JXZ
	DD	FLAT:?GetRealType@CFloorTimeRealDataModule@@MBE?AW4REALTYPE@CPacketType@@XZ
	DD	FLAT:?IsTimeAdd@CFloorTimeRealDataModule@@MBE_NAB_J0@Z
	DD	FLAT:?SetRealData_AppendOrUpdate@CFloorTimeRealDataModule@@MAEHPAVCPacket@@AB_J11@Z
	DD	FLAT:?GetCloseTime@CFloorTimeRealDataModule@@MBE_JAB_J0@Z
	DD	FLAT:?GetRealData_CloseTime_AppendOrUpdate@CFloorTimeRealDataModule@@MAE_NPAVCPacket@@AB_J1AA_J@Z
CONST	ENDS
;	COMDAT ??_7CTimeRealDataModule@@6B@
CONST	SEGMENT
??_7CTimeRealDataModule@@6B@ DD FLAT:??_R4CTimeRealDataModule@@6B@ ; CTimeRealDataModule::`vftable'
	DD	FLAT:??_ECTimeRealDataModule@@UAEPAXI@Z
	DD	FLAT:?SetTimeRange_TRPart@CTimeRealDataModule@@MAEHAB_J_J@Z
	DD	FLAT:?SetRealData@CTimeRealDataModule@@MAEHPAVCPacket@@AB_J@Z
	DD	FLAT:?GetTimeRangeStartWithPacketType@CTimeRealDataModule@@MBE_JXZ
	DD	FLAT:?GetRealData_CloseTime@CTimeRealDataModule@@MAE_NPAVCPacket@@AA_J@Z
	DD	FLAT:?GetTimeIntervalWithSecond@CTimeRealDataModule@@MAE_JXZ
	DD	FLAT:__purecall
	DD	FLAT:__purecall
	DD	FLAT:__purecall
	DD	FLAT:__purecall
	DD	FLAT:__purecall
CONST	ENDS
;	COMDAT ??_7CWeekRealDataModule@@6B@
CONST	SEGMENT
??_7CWeekRealDataModule@@6B@ DD FLAT:??_R4CWeekRealDataModule@@6B@ ; CWeekRealDataModule::`vftable'
	DD	FLAT:??_ECWeekRealDataModule@@UAEPAXI@Z
	DD	FLAT:?SetTimeRange_TRPart@CWeekRealDataModule@@MAEHAB_J_J@Z
	DD	FLAT:?SetRealData@CWeekRealDataModule@@MAEHPAVCPacket@@AB_J@Z
	DD	FLAT:?GetTimeRangeStartWithPacketType@CTimeRealDataModuleBase@@UBE_JXZ
	DD	FLAT:?GetRealData_CloseTime@CWeekRealDataModule@@MAE_NPAVCPacket@@AA_J@Z
	DD	FLAT:?GetTimeIntervalWithSecond@CWeekRealDataModule@@MAE_JXZ
CONST	ENDS
;	COMDAT ??_7CDateRealDataModule@@6B@
CONST	SEGMENT
??_7CDateRealDataModule@@6B@ DD FLAT:??_R4CDateRealDataModule@@6B@ ; CDateRealDataModule::`vftable'
	DD	FLAT:??_ECDateRealDataModule@@UAEPAXI@Z
	DD	FLAT:?SetTimeRange_TRPart@CTimeRealDataModuleBase@@UAEHAB_J_J@Z
	DD	FLAT:?SetRealData@CDateRealDataModule@@MAEHPAVCPacket@@AB_J@Z
	DD	FLAT:?GetTimeRangeStartWithPacketType@CTimeRealDataModuleBase@@UBE_JXZ
	DD	FLAT:?GetRealData_CloseTime@CDateRealDataModule@@MAE_NPAVCPacket@@AA_J@Z
	DD	FLAT:?GetTimeIntervalWithSecond@CDateRealDataModule@@MAE_JXZ
CONST	ENDS
;	COMDAT ??_7CTickRealDataModule@@6B@
CONST	SEGMENT
??_7CTickRealDataModule@@6B@ DD FLAT:??_R4CTickRealDataModule@@6B@ ; CTickRealDataModule::`vftable'
	DD	FLAT:??_ECTickRealDataModule@@UAEPAXI@Z
	DD	FLAT:?SetTimeRange_TRPart@CTimeRealDataModuleBase@@UAEHAB_J_J@Z
	DD	FLAT:?SetRealData@CTickRealDataModule@@MAEHPAVCPacket@@AB_J@Z
	DD	FLAT:?GetTimeRangeStartWithPacketType@CTimeRealDataModuleBase@@UBE_JXZ
	DD	FLAT:?GetRealData_CloseTime@CTimeRealDataModuleBase@@UAE_NPAVCPacket@@AA_J@Z
	DD	FLAT:?GetTimeIntervalWithSecond@CTickRealDataModule@@MAE_JXZ
CONST	ENDS
;	COMDAT ??_7CTimeRealDataModuleBase@@6B@
CONST	SEGMENT
??_7CTimeRealDataModuleBase@@6B@ DD FLAT:??_R4CTimeRealDataModuleBase@@6B@ ; CTimeRealDataModuleBase::`vftable'
	DD	FLAT:??_ECTimeRealDataModuleBase@@UAEPAXI@Z
	DD	FLAT:?SetTimeRange_TRPart@CTimeRealDataModuleBase@@UAEHAB_J_J@Z
	DD	FLAT:?SetRealData@CTimeRealDataModuleBase@@UAEHPAVCPacket@@AB_J@Z
	DD	FLAT:?GetTimeRangeStartWithPacketType@CTimeRealDataModuleBase@@UBE_JXZ
	DD	FLAT:?GetRealData_CloseTime@CTimeRealDataModuleBase@@UAE_NPAVCPacket@@AA_J@Z
	DD	FLAT:?GetTimeIntervalWithSecond@CTimeRealDataModuleBase@@UAE_JXZ
CONST	ENDS
;	COMDAT xdata$x
xdata$x	SEGMENT
__unwindtable$??0CTimeRealDataModule@@QAE@ABVCDateData@@AAVCMarketTimeData@@ABV?$CStringT@DV?$StrTraitMFC_DLL@DV?$ChTraitsCRT@D@ATL@@@@@ATL@@H2W4HORZSCALEDRAWERTYPE@CScaleBaseData@@@Z DD 0ffffffffH
	DD	FLAT:__unwindfunclet$??0CTimeRealDataModule@@QAE@ABVCDateData@@AAVCMarketTimeData@@ABV?$CStringT@DV?$StrTraitMFC_DLL@DV?$ChTraitsCRT@D@ATL@@@@@ATL@@H2W4HORZSCALEDRAWERTYPE@CScaleBaseData@@@Z$0
	DD	00H
	DD	FLAT:__unwindfunclet$??0CTimeRealDataModule@@QAE@ABVCDateData@@AAVCMarketTimeData@@ABV?$CStringT@DV?$StrTraitMFC_DLL@DV?$ChTraitsCRT@D@ATL@@@@@ATL@@H2W4HORZSCALEDRAWERTYPE@CScaleBaseData@@@Z$1
__ehfuncinfo$??0CTimeRealDataModule@@QAE@ABVCDateData@@AAVCMarketTimeData@@ABV?$CStringT@DV?$StrTraitMFC_DLL@DV?$ChTraitsCRT@D@ATL@@@@@ATL@@H2W4HORZSCALEDRAWERTYPE@CScaleBaseData@@@Z DD 019930522H
	DD	02H
	DD	FLAT:__unwindtable$??0CTimeRealDataModule@@QAE@ABVCDateData@@AAVCMarketTimeData@@ABV?$CStringT@DV?$StrTraitMFC_DLL@DV?$ChTraitsCRT@D@ATL@@@@@ATL@@H2W4HORZSCALEDRAWERTYPE@CScaleBaseData@@@Z
	DD	2 DUP(00H)
	DD	2 DUP(00H)
	DD	00H
	DD	01H
xdata$x	ENDS
;	COMDAT xdata$x
xdata$x	SEGMENT
__unwindtable$?OnInitTR@CTimeRealDataModuleBase@@QAEXAB_JABHABV?$CStringT@DV?$StrTraitMFC_DLL@DV?$ChTraitsCRT@D@ATL@@@@@ATL@@@Z DD 0ffffffffH
	DD	FLAT:__unwindfunclet$?OnInitTR@CTimeRealDataModuleBase@@QAEXAB_JABHABV?$CStringT@DV?$StrTraitMFC_DLL@DV?$ChTraitsCRT@D@ATL@@@@@ATL@@@Z$0
__ehfuncinfo$?OnInitTR@CTimeRealDataModuleBase@@QAEXAB_JABHABV?$CStringT@DV?$StrTraitMFC_DLL@DV?$ChTraitsCRT@D@ATL@@@@@ATL@@@Z DD 019930522H
	DD	01H
	DD	FLAT:__unwindtable$?OnInitTR@CTimeRealDataModuleBase@@QAEXAB_JABHABV?$CStringT@DV?$StrTraitMFC_DLL@DV?$ChTraitsCRT@D@ATL@@@@@ATL@@@Z
	DD	2 DUP(00H)
	DD	2 DUP(00H)
	DD	00H
	DD	01H
xdata$x	ENDS
;	COMDAT xdata$x
xdata$x	SEGMENT
__unwindtable$??0CTimeRealDataModuleBase@@QAE@AAVCMarketTimeData@@ABV?$CStringT@DV?$StrTraitMFC_DLL@DV?$ChTraitsCRT@D@ATL@@@@@ATL@@W4HORZSCALEDRAWERTYPE@CScaleBaseData@@@Z DD 0ffffffffH
	DD	FLAT:__unwindfunclet$??0CTimeRealDataModuleBase@@QAE@AAVCMarketTimeData@@ABV?$CStringT@DV?$StrTraitMFC_DLL@DV?$ChTraitsCRT@D@ATL@@@@@ATL@@W4HORZSCALEDRAWERTYPE@CScaleBaseData@@@Z$0
	DD	00H
	DD	FLAT:__unwindfunclet$??0CTimeRealDataModuleBase@@QAE@AAVCMarketTimeData@@ABV?$CStringT@DV?$StrTraitMFC_DLL@DV?$ChTraitsCRT@D@ATL@@@@@ATL@@W4HORZSCALEDRAWERTYPE@CScaleBaseData@@@Z$1
	DD	01H
	DD	FLAT:__unwindfunclet$??0CTimeRealDataModuleBase@@QAE@AAVCMarketTimeData@@ABV?$CStringT@DV?$StrTraitMFC_DLL@DV?$ChTraitsCRT@D@ATL@@@@@ATL@@W4HORZSCALEDRAWERTYPE@CScaleBaseData@@@Z$2
__ehfuncinfo$??0CTimeRealDataModuleBase@@QAE@AAVCMarketTimeData@@ABV?$CStringT@DV?$StrTraitMFC_DLL@DV?$ChTraitsCRT@D@ATL@@@@@ATL@@W4HORZSCALEDRAWERTYPE@CScaleBaseData@@@Z DD 019930522H
	DD	03H
	DD	FLAT:__unwindtable$??0CTimeRealDataModuleBase@@QAE@AAVCMarketTimeData@@ABV?$CStringT@DV?$StrTraitMFC_DLL@DV?$ChTraitsCRT@D@ATL@@@@@ATL@@W4HORZSCALEDRAWERTYPE@CScaleBaseData@@@Z
	DD	2 DUP(00H)
	DD	2 DUP(00H)
	DD	00H
	DD	01H
xdata$x	ENDS
; Function compile flags: /Ogtp
; File D:\git\src\IBK\IBK_DRFN\ProjSrc\SrcChartEx\ChartOCX\Include_Chart\DLL_Load\PacketBase.h
;	COMDAT ?GetPriceUnitX100@CMPPacket@@QBEHXZ
_TEXT	SEGMENT
?GetPriceUnitX100@CMPPacket@@QBEHXZ PROC		; CMPPacket::GetPriceUnitX100, COMDAT
; _this$ = ecx

; 365  : 	int		GetPriceUnitX100( void) const			{	return m_nPriceUnitX100;	}

  00000	8b 41 24	 mov	 eax, DWORD PTR [ecx+36]
  00003	c3		 ret	 0
?GetPriceUnitX100@CMPPacket@@QBEHXZ ENDP		; CMPPacket::GetPriceUnitX100
_TEXT	ENDS
; Function compile flags: /Ogtp
; File D:\git\src\IBK\IBK_DRFN\ProjSrc\SrcChartEx\ChartOCX\Include_Chart\DLL_Load\PacketBase.h
;	COMDAT ?SetPriceUnitX100@CMPPacket@@QAEXH@Z
_TEXT	SEGMENT
_p_nPriceUnitX100$ = 8					; size = 4
?SetPriceUnitX100@CMPPacket@@QAEXH@Z PROC		; CMPPacket::SetPriceUnitX100, COMDAT
; _this$ = ecx

; 364  : 	void	SetPriceUnitX100( int p_nPriceUnitX100)	{	m_nPriceUnitX100 = p_nPriceUnitX100;	}

  00000	55		 push	 ebp
  00001	8b ec		 mov	 ebp, esp
  00003	8b 45 08	 mov	 eax, DWORD PTR _p_nPriceUnitX100$[ebp]
  00006	89 41 24	 mov	 DWORD PTR [ecx+36], eax
  00009	5d		 pop	 ebp
  0000a	c2 04 00	 ret	 4
?SetPriceUnitX100@CMPPacket@@QAEXH@Z ENDP		; CMPPacket::SetPriceUnitX100
_TEXT	ENDS
; Function compile flags: /Ogtp
; File D:\git\src\IBK\IBK_DRFN\ProjSrc\SrcChartEx\ChartOCX\Include_Chart\DLL_Load\PacketBase.h
;	COMDAT ?GetMarketProfileList@CMPPacket@@QAEPAV?$CList@PAVCMProfile@@PAV1@@@XZ
_TEXT	SEGMENT
?GetMarketProfileList@CMPPacket@@QAEPAV?$CList@PAVCMProfile@@PAV1@@@XZ PROC ; CMPPacket::GetMarketProfileList, COMDAT
; _this$ = ecx

; 349  : 	CList< CMProfile*, CMProfile*>* GetMarketProfileList() { return &m_listMarketProfile; }

  00000	8d 41 08	 lea	 eax, DWORD PTR [ecx+8]
  00003	c3		 ret	 0
?GetMarketProfileList@CMPPacket@@QAEPAV?$CList@PAVCMProfile@@PAV1@@@XZ ENDP ; CMPPacket::GetMarketProfileList
_TEXT	ENDS
; Function compile flags: /Ogtp
; File D:\git\src\IBK\IBK_DRFN\ProjSrc\SrcChartEx\ChartOCX\Include_Chart\DLL_Load\PacketBase.h
;	COMDAT ?SetLastPriceX100@CMProfile@@QAEXH@Z
_TEXT	SEGMENT
_p_nLastPriceX100$ = 8					; size = 4
?SetLastPriceX100@CMProfile@@QAEXH@Z PROC		; CMProfile::SetLastPriceX100, COMDAT
; _this$ = ecx

; 327  : 	void	SetLastPriceX100( int p_nLastPriceX100)	{	m_nLastPriceX100 = p_nLastPriceX100;	}

  00000	55		 push	 ebp
  00001	8b ec		 mov	 ebp, esp
  00003	8b 45 08	 mov	 eax, DWORD PTR _p_nLastPriceX100$[ebp]
  00006	89 41 24	 mov	 DWORD PTR [ecx+36], eax
  00009	5d		 pop	 ebp
  0000a	c2 04 00	 ret	 4
?SetLastPriceX100@CMProfile@@QAEXH@Z ENDP		; CMProfile::SetLastPriceX100
_TEXT	ENDS
; Function compile flags: /Ogtp
; File D:\git\src\IBK\IBK_DRFN\ProjSrc\SrcChartEx\ChartOCX\Include_Chart\DLL_Load\PacketBase.h
;	COMDAT ?GetLastPriceX100@CMProfile@@QBEHXZ
_TEXT	SEGMENT
?GetLastPriceX100@CMProfile@@QBEHXZ PROC		; CMProfile::GetLastPriceX100, COMDAT
; _this$ = ecx

; 326  : 	int		GetLastPriceX100( void) const		{	return m_nLastPriceX100;				}

  00000	8b 41 24	 mov	 eax, DWORD PTR [ecx+36]
  00003	c3		 ret	 0
?GetLastPriceX100@CMProfile@@QBEHXZ ENDP		; CMProfile::GetLastPriceX100
_TEXT	ENDS
; Function compile flags: /Ogtp
; File D:\git\src\IBK\IBK_DRFN\ProjSrc\SrcChartEx\ChartOCX\Include_Chart\DLL_Load\PacketBase.h
; File C:\Program Files (x86)\Microsoft Visual Studio\2019\Community\VC\Tools\MSVC\14.29.30133\atlmfc\include\afxtempl.h
; File D:\git\src\IBK\IBK_DRFN\ProjSrc\SrcChartEx\ChartOCX\Include_Chart\DLL_Load\PacketBase.h
;	COMDAT ?IsEmpty@CMProfile@@QAEHXZ
_TEXT	SEGMENT
?IsEmpty@CMProfile@@QAEHXZ PROC				; CMProfile::IsEmpty, COMDAT
; _this$ = ecx
; File C:\Program Files (x86)\Microsoft Visual Studio\2019\Community\VC\Tools\MSVC\14.29.30133\atlmfc\include\afxtempl.h

; 786  : 	{ return m_nCount == 0; }

  00000	33 c0		 xor	 eax, eax
  00002	39 41 14	 cmp	 DWORD PTR [ecx+20], eax
  00005	0f 94 c0	 sete	 al
; File D:\git\src\IBK\IBK_DRFN\ProjSrc\SrcChartEx\ChartOCX\Include_Chart\DLL_Load\PacketBase.h

; 319  : 	BOOL	IsEmpty( void)	{	return m_listMPItem.IsEmpty();	}

  00008	c3		 ret	 0
?IsEmpty@CMProfile@@QAEHXZ ENDP				; CMProfile::IsEmpty
_TEXT	ENDS
; Function compile flags: /Ogtp
; File D:\git\src\IBK\IBK_DRFN\ProjSrc\SrcChartEx\ChartOCX\Include_Chart\DLL_Load\PacketBase.h
;	COMDAT ?SetDate@CMProfile@@QAEXH@Z
_TEXT	SEGMENT
_nDate$ = 8						; size = 4
?SetDate@CMProfile@@QAEXH@Z PROC			; CMProfile::SetDate, COMDAT
; _this$ = ecx

; 300  : 	void		SetDate(const int nDate)	{	m_nDate = nDate;	}

  00000	55		 push	 ebp
  00001	8b ec		 mov	 ebp, esp
  00003	8b 45 08	 mov	 eax, DWORD PTR _nDate$[ebp]
  00006	89 41 04	 mov	 DWORD PTR [ecx+4], eax
  00009	5d		 pop	 ebp
  0000a	c2 04 00	 ret	 4
?SetDate@CMProfile@@QAEXH@Z ENDP			; CMProfile::SetDate
_TEXT	ENDS
; Function compile flags: /Ogtp
; File D:\git\src\IBK\IBK_DRFN\ProjSrc\SrcChartEx\ChartOCX\Include_Chart\DLL_Load\PacketBase.h
;	COMDAT ?GetMPItemList@CMProfile@@QAEPAV?$CList@PAVCMPItem@@PAV1@@@XZ
_TEXT	SEGMENT
?GetMPItemList@CMProfile@@QAEPAV?$CList@PAVCMPItem@@PAV1@@@XZ PROC ; CMProfile::GetMPItemList, COMDAT
; _this$ = ecx

; 289  : 	CList<CMPItem*, CMPItem*>* GetMPItemList()	{	return &m_listMPItem; }

  00000	8d 41 08	 lea	 eax, DWORD PTR [ecx+8]
  00003	c3		 ret	 0
?GetMPItemList@CMProfile@@QAEPAV?$CList@PAVCMPItem@@PAV1@@@XZ ENDP ; CMProfile::GetMPItemList
_TEXT	ENDS
; Function compile flags: /Ogtp
; File D:\git\src\IBK\IBK_DRFN\ProjSrc\SrcChartEx\ChartOCX\Include_Chart\DLL_Load\PacketBase.h
;	COMDAT ?GetDate@CMProfile@@QBEHXZ
_TEXT	SEGMENT
?GetDate@CMProfile@@QBEHXZ PROC				; CMProfile::GetDate, COMDAT
; _this$ = ecx

; 288  : 	int			GetDate() const					{	return m_nDate;	}

  00000	8b 41 04	 mov	 eax, DWORD PTR [ecx+4]
  00003	c3		 ret	 0
?GetDate@CMProfile@@QBEHXZ ENDP				; CMProfile::GetDate
_TEXT	ENDS
; Function compile flags: /Ogtp
; File D:\git\src\IBK\IBK_DRFN\ProjSrc\SrcChartEx\ChartOCX\Include_Chart\DLL_Load\PacketBase.h
;	COMDAT ?AddVolume@CMPItem@@QAEXK@Z
_TEXT	SEGMENT
_dwVolume$ = 8						; size = 4
?AddVolume@CMPItem@@QAEXK@Z PROC			; CMPItem::AddVolume, COMDAT
; _this$ = ecx

; 269  : 	void	AddVolume(	DWORD	dwVolume)	{	m_dwVolume		+=	dwVolume;		}

  00000	55		 push	 ebp
  00001	8b ec		 mov	 ebp, esp
  00003	8b 45 08	 mov	 eax, DWORD PTR _dwVolume$[ebp]
  00006	01 41 04	 add	 DWORD PTR [ecx+4], eax
  00009	5d		 pop	 ebp
  0000a	c2 04 00	 ret	 4
?AddVolume@CMPItem@@QAEXK@Z ENDP			; CMPItem::AddVolume
_TEXT	ENDS
; Function compile flags: /Ogtp
; File D:\git\src\IBK\IBK_DRFN\ProjSrc\SrcChartEx\ChartOCX\Include_Chart\DLL_Load\PacketBase.h
;	COMDAT ?SetPrice@CMPItem@@QAEXH@Z
_TEXT	SEGMENT
_nPriceX100$ = 8					; size = 4
?SetPrice@CMPItem@@QAEXH@Z PROC				; CMPItem::SetPrice, COMDAT
; _this$ = ecx

; 268  : 	void	SetPrice(	int		nPriceX100)	{	m_nPriceX100	=	nPriceX100;		}

  00000	55		 push	 ebp
  00001	8b ec		 mov	 ebp, esp
  00003	8b 45 08	 mov	 eax, DWORD PTR _nPriceX100$[ebp]
  00006	89 01		 mov	 DWORD PTR [ecx], eax
  00008	5d		 pop	 ebp
  00009	c2 04 00	 ret	 4
?SetPrice@CMPItem@@QAEXH@Z ENDP				; CMPItem::SetPrice
_TEXT	ENDS
; Function compile flags: /Ogtp
; File D:\git\src\IBK\IBK_DRFN\ProjSrc\SrcChartEx\ChartOCX\Include_Chart\DLL_Load\PacketBase.h
;	COMDAT ?GetBracketList@CMPItem@@QAEPAV?$CList@PAVCBracket@@PAV1@@@XZ
_TEXT	SEGMENT
?GetBracketList@CMPItem@@QAEPAV?$CList@PAVCBracket@@PAV1@@@XZ PROC ; CMPItem::GetBracketList, COMDAT
; _this$ = ecx

; 266  : 	CList<CBracket*, CBracket*>* GetBracketList()	{ return &m_listBracket; }

  00000	8d 41 08	 lea	 eax, DWORD PTR [ecx+8]
  00003	c3		 ret	 0
?GetBracketList@CMPItem@@QAEPAV?$CList@PAVCBracket@@PAV1@@@XZ ENDP ; CMPItem::GetBracketList
_TEXT	ENDS
; Function compile flags: /Ogtp
; File D:\git\src\IBK\IBK_DRFN\ProjSrc\SrcChartEx\ChartOCX\Include_Chart\DLL_Load\PacketBase.h
;	COMDAT ?GetVolume@CMPItem@@QBEKXZ
_TEXT	SEGMENT
?GetVolume@CMPItem@@QBEKXZ PROC				; CMPItem::GetVolume, COMDAT
; _this$ = ecx

; 265  : 	DWORD	GetVolume()		const { return m_dwVolume;		}

  00000	8b 41 04	 mov	 eax, DWORD PTR [ecx+4]
  00003	c3		 ret	 0
?GetVolume@CMPItem@@QBEKXZ ENDP				; CMPItem::GetVolume
_TEXT	ENDS
; Function compile flags: /Ogtp
; File D:\git\src\IBK\IBK_DRFN\ProjSrc\SrcChartEx\ChartOCX\Include_Chart\DLL_Load\PacketBase.h
;	COMDAT ?GetPriceX100@CMPItem@@QBEHXZ
_TEXT	SEGMENT
?GetPriceX100@CMPItem@@QBEHXZ PROC			; CMPItem::GetPriceX100, COMDAT
; _this$ = ecx

; 264  : 	int		GetPriceX100()	const { return m_nPriceX100;	}

  00000	8b 01		 mov	 eax, DWORD PTR [ecx]
  00002	c3		 ret	 0
?GetPriceX100@CMPItem@@QBEHXZ ENDP			; CMPItem::GetPriceX100
_TEXT	ENDS
; Function compile flags: /Ogtp
;	COMDAT ??4CBracket@@QAEAAV0@ABV0@@Z
_TEXT	SEGMENT
___that$ = 8						; size = 4
??4CBracket@@QAEAAV0@ABV0@@Z PROC			; CBracket::operator=, COMDAT
; _this$ = ecx
  00000	55		 push	 ebp
  00001	8b ec		 mov	 ebp, esp
  00003	8b 55 08	 mov	 edx, DWORD PTR ___that$[ebp]
  00006	56		 push	 esi
  00007	8b f1		 mov	 esi, ecx
  00009	8b 02		 mov	 eax, DWORD PTR [edx]
  0000b	89 06		 mov	 DWORD PTR [esi], eax
  0000d	8d 4e 08	 lea	 ecx, DWORD PTR [esi+8]
  00010	8b 42 04	 mov	 eax, DWORD PTR [edx+4]
  00013	89 46 04	 mov	 DWORD PTR [esi+4], eax
  00016	8d 42 08	 lea	 eax, DWORD PTR [edx+8]
  00019	50		 push	 eax
  0001a	ff 15 00 00 00
	00		 call	 DWORD PTR __imp_??4?$CStringT@DV?$StrTraitMFC_DLL@DV?$ChTraitsCRT@D@ATL@@@@@ATL@@QAEAAV01@ABV01@@Z
  00020	8b c6		 mov	 eax, esi
  00022	5e		 pop	 esi
  00023	5d		 pop	 ebp
  00024	c2 04 00	 ret	 4
??4CBracket@@QAEAAV0@ABV0@@Z ENDP			; CBracket::operator=
_TEXT	ENDS
; Function compile flags: /Ogtp
;	COMDAT ??0CBracket@@QAE@ABV0@@Z
_TEXT	SEGMENT
_this$ = -4						; size = 4
___that$ = 8						; size = 4
??0CBracket@@QAE@ABV0@@Z PROC				; CBracket::CBracket, COMDAT
; _this$ = ecx
  00000	55		 push	 ebp
  00001	8b ec		 mov	 ebp, esp
  00003	51		 push	 ecx
  00004	8b 55 08	 mov	 edx, DWORD PTR ___that$[ebp]
  00007	56		 push	 esi
  00008	8b f1		 mov	 esi, ecx
  0000a	89 75 fc	 mov	 DWORD PTR _this$[ebp], esi
  0000d	8b 02		 mov	 eax, DWORD PTR [edx]
  0000f	89 06		 mov	 DWORD PTR [esi], eax
  00011	8d 4e 08	 lea	 ecx, DWORD PTR [esi+8]
  00014	8b 42 04	 mov	 eax, DWORD PTR [edx+4]
  00017	89 46 04	 mov	 DWORD PTR [esi+4], eax
  0001a	8d 42 08	 lea	 eax, DWORD PTR [edx+8]
  0001d	50		 push	 eax
  0001e	ff 15 00 00 00
	00		 call	 DWORD PTR __imp_??0?$CStringT@DV?$StrTraitMFC_DLL@DV?$ChTraitsCRT@D@ATL@@@@@ATL@@QAE@ABV01@@Z
  00024	8b c6		 mov	 eax, esi
  00026	5e		 pop	 esi
  00027	8b e5		 mov	 esp, ebp
  00029	5d		 pop	 ebp
  0002a	c2 04 00	 ret	 4
??0CBracket@@QAE@ABV0@@Z ENDP				; CBracket::CBracket
_TEXT	ENDS
; Function compile flags: /Ogtp
; File D:\git\src\IBK\IBK_DRFN\ProjSrc\SrcChartEx\ChartOCX\Include_Chart\DLL_Load\PacketBase.h
;	COMDAT ?GetItem@CBracket@@QBEPBDXZ
_TEXT	SEGMENT
?GetItem@CBracket@@QBEPBDXZ PROC			; CBracket::GetItem, COMDAT
; _this$ = ecx

; 251  : 	const char *	GetItem()	const	{	return m_szItem;	}

  00000	8b 41 08	 mov	 eax, DWORD PTR [ecx+8]
  00003	c3		 ret	 0
?GetItem@CBracket@@QBEPBDXZ ENDP			; CBracket::GetItem
_TEXT	ENDS
; Function compile flags: /Ogtp
; File D:\git\src\IBK\IBK_DRFN\ProjSrc\SrcChartEx\ChartOCX\Include_Chart\DLL_Load\PacketBase.h
;	COMDAT ?GetDate@CBracket@@QBEHXZ
_TEXT	SEGMENT
?GetDate@CBracket@@QBEHXZ PROC				; CBracket::GetDate, COMDAT
; _this$ = ecx

; 250  : 	int				GetDate()	const	{	return m_nDate;		}

  00000	8b 41 04	 mov	 eax, DWORD PTR [ecx+4]
  00003	c3		 ret	 0
?GetDate@CBracket@@QBEHXZ ENDP				; CBracket::GetDate
_TEXT	ENDS
; Function compile flags: /Ogtp
; File D:\git\src\IBK\IBK_DRFN\ProjSrc\SrcChartEx\ChartOCX\Include_Chart\DLL_Load\PacketBase.h
;	COMDAT ?GetIndex@CBracket@@QBEHXZ
_TEXT	SEGMENT
?GetIndex@CBracket@@QBEHXZ PROC				; CBracket::GetIndex, COMDAT
; _this$ = ecx

; 249  : 	int				GetIndex()	const	{	return m_nIndex;	}

  00000	8b 01		 mov	 eax, DWORD PTR [ecx]
  00002	c3		 ret	 0
?GetIndex@CBracket@@QBEHXZ ENDP				; CBracket::GetIndex
_TEXT	ENDS
; Function compile flags: /Ogtp
; File D:\git\src\IBK\IBK_DRFN\ProjSrc\SrcChartEx\ChartOCX\PacketData\TimeRealDataModule.cpp
;	COMDAT ??_GCCeiling2TimeRealDataModule@@UAEPAXI@Z
_TEXT	SEGMENT
___flags$ = 8						; size = 4
??_GCCeiling2TimeRealDataModule@@UAEPAXI@Z PROC		; CCeiling2TimeRealDataModule::`scalar deleting destructor', COMDAT
; _this$ = ecx
  00000	55		 push	 ebp
  00001	8b ec		 mov	 ebp, esp

; 579  : {

  00003	56		 push	 esi
  00004	8b f1		 mov	 esi, ecx

; 580  : }

  00006	8d 8e ac 00 00
	00		 lea	 ecx, DWORD PTR [esi+172]
  0000c	c7 06 00 00 00
	00		 mov	 DWORD PTR [esi], OFFSET ??_7CTimeRealDataModule@@6B@
  00012	ff 15 00 00 00
	00		 call	 DWORD PTR __imp_??1?$CStringT@DV?$StrTraitMFC_DLL@DV?$ChTraitsCRT@D@ATL@@@@@ATL@@QAE@XZ

; 49   : }

  00018	8d 4e 7c	 lea	 ecx, DWORD PTR [esi+124]
  0001b	c7 06 00 00 00
	00		 mov	 DWORD PTR [esi], OFFSET ??_7CTimeRealDataModuleBase@@6B@
  00021	e8 00 00 00 00	 call	 ??1CMapPtrToPtr@@UAE@XZ	; CMapPtrToPtr::~CMapPtrToPtr
  00026	8d 4e 60	 lea	 ecx, DWORD PTR [esi+96]
  00029	e8 00 00 00 00	 call	 ??1CMapPtrToPtr@@UAE@XZ	; CMapPtrToPtr::~CMapPtrToPtr
  0002e	8d 4e 08	 lea	 ecx, DWORD PTR [esi+8]
  00031	e8 00 00 00 00	 call	 ??1CTimeTypeConvert@@UAE@XZ ; CTimeTypeConvert::~CTimeTypeConvert
  00036	f6 45 08 01	 test	 BYTE PTR ___flags$[ebp], 1
  0003a	74 0e		 je	 SHORT $LN16@scalar
  0003c	68 c8 00 00 00	 push	 200			; 000000c8H
  00041	56		 push	 esi
  00042	e8 00 00 00 00	 call	 ??3@YAXPAXI@Z		; operator delete
  00047	83 c4 08	 add	 esp, 8
$LN16@scalar:
  0004a	8b c6		 mov	 eax, esi
  0004c	5e		 pop	 esi
  0004d	5d		 pop	 ebp
  0004e	c2 04 00	 ret	 4
??_GCCeiling2TimeRealDataModule@@UAEPAXI@Z ENDP		; CCeiling2TimeRealDataModule::`scalar deleting destructor'
_TEXT	ENDS
; Function compile flags: /Ogtp
; File D:\git\src\IBK\IBK_DRFN\ProjSrc\SrcChartEx\ChartOCX\PacketData\TimeRealDataModule.cpp
;	COMDAT ?GetRealData_CloseTime_AppendOrUpdate@CCeiling2TimeRealDataModule@@MAE_NPAVCPacket@@AB_J1AA_J@Z
_TEXT	SEGMENT
_pPacket$ = 8						; size = 4
_nFloorTime$ = 12					; size = 4
_nCeilTime$ = 16					; size = 4
_p_nRealDataTime$ = 20					; size = 4
?GetRealData_CloseTime_AppendOrUpdate@CCeiling2TimeRealDataModule@@MAE_NPAVCPacket@@AB_J1AA_J@Z PROC ; CCeiling2TimeRealDataModule::GetRealData_CloseTime_AppendOrUpdate, COMDAT
; _this$ = ecx

; 1201 : {

  00000	55		 push	 ebp
  00001	8b ec		 mov	 ebp, esp

; 1203 : }

  00003	5d		 pop	 ebp

; 1202 : 	return GetRealData_CloseTime_AppendOrUpdate2( pPacket, nFloorTime, nCeilTime, p_nRealDataTime);

  00004	e9 00 00 00 00	 jmp	 ?GetRealData_CloseTime_AppendOrUpdate2@CTimeRealDataModule@@IAE_NPAVCPacket@@AB_J1AA_J@Z ; CTimeRealDataModule::GetRealData_CloseTime_AppendOrUpdate2
?GetRealData_CloseTime_AppendOrUpdate@CCeiling2TimeRealDataModule@@MAE_NPAVCPacket@@AB_J1AA_J@Z ENDP ; CCeiling2TimeRealDataModule::GetRealData_CloseTime_AppendOrUpdate
_TEXT	ENDS
; Function compile flags: /Ogtp
; File D:\git\src\IBK\IBK_DRFN\ProjSrc\SrcChartEx\ChartOCX\PacketData\TimeRealDataModule.h
;	COMDAT ?GetCloseTime@CCeiling2TimeRealDataModule@@MBE_JAB_J0@Z
_TEXT	SEGMENT
_p_nTimeRangeStart$ = 8					; size = 4
_p_nTimeRangeEnd$ = 12					; size = 4
?GetCloseTime@CCeiling2TimeRealDataModule@@MBE_JAB_J0@Z PROC ; CCeiling2TimeRealDataModule::GetCloseTime, COMDAT
; _this$ = ecx

; 416  : 	virtual __int64		GetCloseTime( const __int64 &p_nTimeRangeStart, const __int64 &p_nTimeRangeEnd) const	{	return	p_nTimeRangeEnd;	}

  00000	55		 push	 ebp
  00001	8b ec		 mov	 ebp, esp
  00003	8b 55 0c	 mov	 edx, DWORD PTR _p_nTimeRangeEnd$[ebp]
  00006	8b 02		 mov	 eax, DWORD PTR [edx]
  00008	8b 52 04	 mov	 edx, DWORD PTR [edx+4]
  0000b	5d		 pop	 ebp
  0000c	c2 08 00	 ret	 8
?GetCloseTime@CCeiling2TimeRealDataModule@@MBE_JAB_J0@Z ENDP ; CCeiling2TimeRealDataModule::GetCloseTime
_TEXT	ENDS
; Function compile flags: /Ogtp
; File D:\git\src\IBK\IBK_DRFN\ProjSrc\SrcChartEx\ChartOCX\PacketData\TimeRealDataModule.cpp
;	COMDAT ?SetRealData_AppendOrUpdate@CCeiling2TimeRealDataModule@@MAEHPAVCPacket@@AB_J11@Z
_TEXT	SEGMENT
_pPacket$ = 8						; size = 4
_nRealTime$ = 12					; size = 4
_nFloorTime$ = 16					; size = 4
_nCeilTime$ = 20					; size = 4
?SetRealData_AppendOrUpdate@CCeiling2TimeRealDataModule@@MAEHPAVCPacket@@AB_J11@Z PROC ; CCeiling2TimeRealDataModule::SetRealData_AppendOrUpdate, COMDAT
; _this$ = ecx

; 1194 : {

  00000	55		 push	 ebp
  00001	8b ec		 mov	 ebp, esp

; 1196 : }

  00003	5d		 pop	 ebp

; 1195 : 	return CTimeRealDataModule::SetRealData_AppendOrUpdate2( pPacket, nRealTime, nFloorTime, nCeilTime);

  00004	e9 00 00 00 00	 jmp	 ?SetRealData_AppendOrUpdate2@CTimeRealDataModule@@IAEHPAVCPacket@@AB_J11@Z ; CTimeRealDataModule::SetRealData_AppendOrUpdate2
?SetRealData_AppendOrUpdate@CCeiling2TimeRealDataModule@@MAEHPAVCPacket@@AB_J11@Z ENDP ; CCeiling2TimeRealDataModule::SetRealData_AppendOrUpdate
_TEXT	ENDS
; Function compile flags: /Ogtp
; File D:\git\src\IBK\IBK_DRFN\ProjSrc\SrcChartEx\ChartOCX\PacketData\TimeRealDataModule.cpp
;	COMDAT ?IsTimeAdd@CCeiling2TimeRealDataModule@@MBE_NAB_J0@Z
_TEXT	SEGMENT
_nCurTime$ = 8						; size = 4
_nEndTime$ = 12						; size = 4
?IsTimeAdd@CCeiling2TimeRealDataModule@@MBE_NAB_J0@Z PROC ; CCeiling2TimeRealDataModule::IsTimeAdd, COMDAT
; _this$ = ecx

; 1179 : {

  00000	55		 push	 ebp
  00001	8b ec		 mov	 ebp, esp

; 1180 : 	//100618-alzioyes :     .
; 1181 : 	if(nEndTime<0 || nCurTime<0)

  00003	8b 45 0c	 mov	 eax, DWORD PTR _nEndTime$[ebp]
  00006	56		 push	 esi
  00007	8b 70 04	 mov	 esi, DWORD PTR [eax+4]
  0000a	8b 08		 mov	 ecx, DWORD PTR [eax]
  0000c	85 f6		 test	 esi, esi
  0000e	7c 29		 jl	 SHORT $LN3@IsTimeAdd
  00010	7f 04		 jg	 SHORT $LN7@IsTimeAdd
  00012	85 c9		 test	 ecx, ecx
  00014	72 23		 jb	 SHORT $LN3@IsTimeAdd
$LN7@IsTimeAdd:
  00016	8b 45 08	 mov	 eax, DWORD PTR _nCurTime$[ebp]
  00019	8b 10		 mov	 edx, DWORD PTR [eax]
  0001b	8b 40 04	 mov	 eax, DWORD PTR [eax+4]
  0001e	85 c0		 test	 eax, eax
  00020	7c 17		 jl	 SHORT $LN3@IsTimeAdd
  00022	7f 04		 jg	 SHORT $LN8@IsTimeAdd
  00024	85 d2		 test	 edx, edx
  00026	72 11		 jb	 SHORT $LN3@IsTimeAdd
$LN8@IsTimeAdd:

; 1182 : 	{
; 1183 : 		return false;
; 1184 : 	}
; 1185 : 
; 1186 : 	return nCurTime >= nEndTime;

  00028	3b c6		 cmp	 eax, esi
  0002a	7c 0d		 jl	 SHORT $LN3@IsTimeAdd
  0002c	7f 04		 jg	 SHORT $LN9@IsTimeAdd
  0002e	3b d1		 cmp	 edx, ecx
  00030	72 07		 jb	 SHORT $LN3@IsTimeAdd
$LN9@IsTimeAdd:
  00032	b0 01		 mov	 al, 1
  00034	5e		 pop	 esi

; 1187 : }

  00035	5d		 pop	 ebp
  00036	c2 08 00	 ret	 8
$LN3@IsTimeAdd:
  00039	32 c0		 xor	 al, al
  0003b	5e		 pop	 esi
  0003c	5d		 pop	 ebp
  0003d	c2 08 00	 ret	 8
?IsTimeAdd@CCeiling2TimeRealDataModule@@MBE_NAB_J0@Z ENDP ; CCeiling2TimeRealDataModule::IsTimeAdd
_TEXT	ENDS
; Function compile flags: /Ogtp
; File D:\git\src\IBK\IBK_DRFN\ProjSrc\SrcChartEx\ChartOCX\PacketData\TimeRealDataModule.h
;	COMDAT ?GetRealType@CCeiling2TimeRealDataModule@@MBE?AW4REALTYPE@CPacketType@@XZ
_TEXT	SEGMENT
?GetRealType@CCeiling2TimeRealDataModule@@MBE?AW4REALTYPE@CPacketType@@XZ PROC ; CCeiling2TimeRealDataModule::GetRealType, COMDAT
; _this$ = ecx

; 401  : 	virtual CPacketType::REALTYPE	GetRealType( void) const	{	return CPacketType::CEILING2;	}

  00000	b8 02 00 00 00	 mov	 eax, 2
  00005	c3		 ret	 0
?GetRealType@CCeiling2TimeRealDataModule@@MBE?AW4REALTYPE@CPacketType@@XZ ENDP ; CCeiling2TimeRealDataModule::GetRealType
_TEXT	ENDS
; Function compile flags: /Ogtp
; File D:\git\src\IBK\IBK_DRFN\ProjSrc\SrcChartEx\ChartOCX\PacketData\TimeRealDataModule.cpp
;	COMDAT ??0CCeiling2TimeRealDataModule@@QAE@ABVCDateData@@AAVCMarketTimeData@@ABV?$CStringT@DV?$StrTraitMFC_DLL@DV?$ChTraitsCRT@D@ATL@@@@@ATL@@H2W4HORZSCALEDRAWERTYPE@CScaleBaseData@@@Z
_TEXT	SEGMENT
_this$ = -4						; size = 4
_dateData$ = 8						; size = 4
_p_marketTimeData$ = 12					; size = 4
_strPacketType$ = 16					; size = 4
_nTimeInterval$ = 20					; size = 4
_strMarketStartTime$ = 24				; size = 4
_eDateUnitType$ = 28					; size = 4
??0CCeiling2TimeRealDataModule@@QAE@ABVCDateData@@AAVCMarketTimeData@@ABV?$CStringT@DV?$StrTraitMFC_DLL@DV?$ChTraitsCRT@D@ATL@@@@@ATL@@H2W4HORZSCALEDRAWERTYPE@CScaleBaseData@@@Z PROC ; CCeiling2TimeRealDataModule::CCeiling2TimeRealDataModule, COMDAT
; _this$ = ecx

; 1172 : {

  00000	55		 push	 ebp
  00001	8b ec		 mov	 ebp, esp
  00003	51		 push	 ecx
  00004	56		 push	 esi

; 1129 : 	CTimeRealDataModule( dateData, p_marketTimeData, strPacketType, nTimeInterval, strMarketStartTime, eDateUnitType)

  00005	ff 75 1c	 push	 DWORD PTR _eDateUnitType$[ebp]

; 1172 : {

  00008	8b f1		 mov	 esi, ecx

; 1129 : 	CTimeRealDataModule( dateData, p_marketTimeData, strPacketType, nTimeInterval, strMarketStartTime, eDateUnitType)

  0000a	ff 75 18	 push	 DWORD PTR _strMarketStartTime$[ebp]

; 1172 : {

  0000d	89 75 fc	 mov	 DWORD PTR _this$[ebp], esi

; 1129 : 	CTimeRealDataModule( dateData, p_marketTimeData, strPacketType, nTimeInterval, strMarketStartTime, eDateUnitType)

  00010	ff 75 14	 push	 DWORD PTR _nTimeInterval$[ebp]
  00013	ff 75 10	 push	 DWORD PTR _strPacketType$[ebp]
  00016	ff 75 0c	 push	 DWORD PTR _p_marketTimeData$[ebp]
  00019	ff 75 08	 push	 DWORD PTR _dateData$[ebp]
  0001c	e8 00 00 00 00	 call	 ??0CTimeRealDataModule@@QAE@ABVCDateData@@AAVCMarketTimeData@@ABV?$CStringT@DV?$StrTraitMFC_DLL@DV?$ChTraitsCRT@D@ATL@@@@@ATL@@H2W4HORZSCALEDRAWERTYPE@CScaleBaseData@@@Z ; CTimeRealDataModule::CTimeRealDataModule

; 1172 : {

  00021	c7 06 00 00 00
	00		 mov	 DWORD PTR [esi], OFFSET ??_7CCeiling2TimeRealDataModule@@6B@

; 1173 : }

  00027	8b c6		 mov	 eax, esi
  00029	5e		 pop	 esi
  0002a	8b e5		 mov	 esp, ebp
  0002c	5d		 pop	 ebp
  0002d	c2 18 00	 ret	 24			; 00000018H
??0CCeiling2TimeRealDataModule@@QAE@ABVCDateData@@AAVCMarketTimeData@@ABV?$CStringT@DV?$StrTraitMFC_DLL@DV?$ChTraitsCRT@D@ATL@@@@@ATL@@H2W4HORZSCALEDRAWERTYPE@CScaleBaseData@@@Z ENDP ; CCeiling2TimeRealDataModule::CCeiling2TimeRealDataModule
_TEXT	ENDS
; Function compile flags: /Ogtp
; File D:\git\src\IBK\IBK_DRFN\ProjSrc\SrcChartEx\ChartOCX\PacketData\TimeRealDataModule.cpp
;	COMDAT ??_GCCeilingTimeRealDataModule@@UAEPAXI@Z
_TEXT	SEGMENT
___flags$ = 8						; size = 4
??_GCCeilingTimeRealDataModule@@UAEPAXI@Z PROC		; CCeilingTimeRealDataModule::`scalar deleting destructor', COMDAT
; _this$ = ecx
  00000	55		 push	 ebp
  00001	8b ec		 mov	 ebp, esp

; 579  : {

  00003	56		 push	 esi
  00004	8b f1		 mov	 esi, ecx

; 580  : }

  00006	8d 8e ac 00 00
	00		 lea	 ecx, DWORD PTR [esi+172]
  0000c	c7 06 00 00 00
	00		 mov	 DWORD PTR [esi], OFFSET ??_7CTimeRealDataModule@@6B@
  00012	ff 15 00 00 00
	00		 call	 DWORD PTR __imp_??1?$CStringT@DV?$StrTraitMFC_DLL@DV?$ChTraitsCRT@D@ATL@@@@@ATL@@QAE@XZ

; 49   : }

  00018	8d 4e 7c	 lea	 ecx, DWORD PTR [esi+124]
  0001b	c7 06 00 00 00
	00		 mov	 DWORD PTR [esi], OFFSET ??_7CTimeRealDataModuleBase@@6B@
  00021	e8 00 00 00 00	 call	 ??1CMapPtrToPtr@@UAE@XZ	; CMapPtrToPtr::~CMapPtrToPtr
  00026	8d 4e 60	 lea	 ecx, DWORD PTR [esi+96]
  00029	e8 00 00 00 00	 call	 ??1CMapPtrToPtr@@UAE@XZ	; CMapPtrToPtr::~CMapPtrToPtr
  0002e	8d 4e 08	 lea	 ecx, DWORD PTR [esi+8]
  00031	e8 00 00 00 00	 call	 ??1CTimeTypeConvert@@UAE@XZ ; CTimeTypeConvert::~CTimeTypeConvert
  00036	f6 45 08 01	 test	 BYTE PTR ___flags$[ebp], 1
  0003a	74 0e		 je	 SHORT $LN13@scalar
  0003c	68 c8 00 00 00	 push	 200			; 000000c8H
  00041	56		 push	 esi
  00042	e8 00 00 00 00	 call	 ??3@YAXPAXI@Z		; operator delete
  00047	83 c4 08	 add	 esp, 8
$LN13@scalar:
  0004a	8b c6		 mov	 eax, esi
  0004c	5e		 pop	 esi
  0004d	5d		 pop	 ebp
  0004e	c2 04 00	 ret	 4
??_GCCeilingTimeRealDataModule@@UAEPAXI@Z ENDP		; CCeilingTimeRealDataModule::`scalar deleting destructor'
_TEXT	ENDS
; Function compile flags: /Ogtp
; File D:\git\src\IBK\IBK_DRFN\ProjSrc\SrcChartEx\ChartOCX\PacketData\TimeRealDataModule.cpp
;	COMDAT ?GetRealData_CloseTime_AppendOrUpdate@CCeilingTimeRealDataModule@@MAE_NPAVCPacket@@AB_J1AA_J@Z
_TEXT	SEGMENT
_pPacket$ = 8						; size = 4
_nFloorTime$ = 12					; size = 4
_nCeilTime$ = 16					; size = 4
_p_nRealDataTime$ = 20					; size = 4
?GetRealData_CloseTime_AppendOrUpdate@CCeilingTimeRealDataModule@@MAE_NPAVCPacket@@AB_J1AA_J@Z PROC ; CCeilingTimeRealDataModule::GetRealData_CloseTime_AppendOrUpdate, COMDAT
; _this$ = ecx

; 1160 : {

  00000	55		 push	 ebp
  00001	8b ec		 mov	 ebp, esp

; 1161 : 	return GetRealData_CloseTime_AppendOrUpdate2( pPacket, nCeilTime, nCeilTime, p_nRealDataTime);

  00003	8b 45 10	 mov	 eax, DWORD PTR _nCeilTime$[ebp]
  00006	89 45 10	 mov	 DWORD PTR _nCeilTime$[ebp], eax
  00009	89 45 0c	 mov	 DWORD PTR _nFloorTime$[ebp], eax

; 1162 : }

  0000c	5d		 pop	 ebp

; 1161 : 	return GetRealData_CloseTime_AppendOrUpdate2( pPacket, nCeilTime, nCeilTime, p_nRealDataTime);

  0000d	e9 00 00 00 00	 jmp	 ?GetRealData_CloseTime_AppendOrUpdate2@CTimeRealDataModule@@IAE_NPAVCPacket@@AB_J1AA_J@Z ; CTimeRealDataModule::GetRealData_CloseTime_AppendOrUpdate2
?GetRealData_CloseTime_AppendOrUpdate@CCeilingTimeRealDataModule@@MAE_NPAVCPacket@@AB_J1AA_J@Z ENDP ; CCeilingTimeRealDataModule::GetRealData_CloseTime_AppendOrUpdate
_TEXT	ENDS
; Function compile flags: /Ogtp
; File D:\git\src\IBK\IBK_DRFN\ProjSrc\SrcChartEx\ChartOCX\PacketData\TimeRealDataModule.h
;	COMDAT ?GetCloseTime@CCeilingTimeRealDataModule@@MBE_JAB_J0@Z
_TEXT	SEGMENT
_p_nTimeRangeStart$ = 8					; size = 4
_p_nTimeRangeEnd$ = 12					; size = 4
?GetCloseTime@CCeilingTimeRealDataModule@@MBE_JAB_J0@Z PROC ; CCeilingTimeRealDataModule::GetCloseTime, COMDAT
; _this$ = ecx

; 381  : 	virtual __int64		GetCloseTime( const __int64 &p_nTimeRangeStart, const __int64 &p_nTimeRangeEnd) const	{	return	p_nTimeRangeEnd;	}

  00000	55		 push	 ebp
  00001	8b ec		 mov	 ebp, esp
  00003	8b 55 0c	 mov	 edx, DWORD PTR _p_nTimeRangeEnd$[ebp]
  00006	8b 02		 mov	 eax, DWORD PTR [edx]
  00008	8b 52 04	 mov	 edx, DWORD PTR [edx+4]
  0000b	5d		 pop	 ebp
  0000c	c2 08 00	 ret	 8
?GetCloseTime@CCeilingTimeRealDataModule@@MBE_JAB_J0@Z ENDP ; CCeilingTimeRealDataModule::GetCloseTime
_TEXT	ENDS
; Function compile flags: /Ogtp
; File D:\git\src\IBK\IBK_DRFN\ProjSrc\SrcChartEx\ChartOCX\PacketData\TimeRealDataModule.cpp
;	COMDAT ?SetRealData_AppendOrUpdate@CCeilingTimeRealDataModule@@MAEHPAVCPacket@@AB_J11@Z
_TEXT	SEGMENT
_pPacket$ = 8						; size = 4
_nRealTime$ = 12					; size = 4
_nFloorTime$ = 16					; size = 4
_nCeilTime$ = 20					; size = 4
?SetRealData_AppendOrUpdate@CCeilingTimeRealDataModule@@MAEHPAVCPacket@@AB_J11@Z PROC ; CCeilingTimeRealDataModule::SetRealData_AppendOrUpdate, COMDAT
; _this$ = ecx

; 1153 : {

  00000	55		 push	 ebp
  00001	8b ec		 mov	 ebp, esp

; 1154 : 	return CTimeRealDataModule::SetRealData_AppendOrUpdate2( pPacket, nRealTime, nCeilTime, nCeilTime);

  00003	8b 45 14	 mov	 eax, DWORD PTR _nCeilTime$[ebp]
  00006	89 45 14	 mov	 DWORD PTR _nCeilTime$[ebp], eax
  00009	89 45 10	 mov	 DWORD PTR _nFloorTime$[ebp], eax

; 1155 : }

  0000c	5d		 pop	 ebp

; 1154 : 	return CTimeRealDataModule::SetRealData_AppendOrUpdate2( pPacket, nRealTime, nCeilTime, nCeilTime);

  0000d	e9 00 00 00 00	 jmp	 ?SetRealData_AppendOrUpdate2@CTimeRealDataModule@@IAEHPAVCPacket@@AB_J11@Z ; CTimeRealDataModule::SetRealData_AppendOrUpdate2
?SetRealData_AppendOrUpdate@CCeilingTimeRealDataModule@@MAEHPAVCPacket@@AB_J11@Z ENDP ; CCeilingTimeRealDataModule::SetRealData_AppendOrUpdate
_TEXT	ENDS
; Function compile flags: /Ogtp
; File D:\git\src\IBK\IBK_DRFN\ProjSrc\SrcChartEx\ChartOCX\PacketData\TimeRealDataModule.cpp
;	COMDAT ?IsTimeAdd@CCeilingTimeRealDataModule@@MBE_NAB_J0@Z
_TEXT	SEGMENT
_nCurTime$ = 8						; size = 4
_nEndTime$ = 12						; size = 4
?IsTimeAdd@CCeilingTimeRealDataModule@@MBE_NAB_J0@Z PROC ; CCeilingTimeRealDataModule::IsTimeAdd, COMDAT
; _this$ = ecx

; 1138 : {

  00000	55		 push	 ebp
  00001	8b ec		 mov	 ebp, esp

; 1139 : 	//100618-alzioyes :     .
; 1140 : 	if(nEndTime<0 || nCurTime<0)

  00003	8b 45 0c	 mov	 eax, DWORD PTR _nEndTime$[ebp]
  00006	56		 push	 esi
  00007	8b 70 04	 mov	 esi, DWORD PTR [eax+4]
  0000a	8b 08		 mov	 ecx, DWORD PTR [eax]
  0000c	85 f6		 test	 esi, esi
  0000e	7c 29		 jl	 SHORT $LN3@IsTimeAdd
  00010	7f 04		 jg	 SHORT $LN7@IsTimeAdd
  00012	85 c9		 test	 ecx, ecx
  00014	72 23		 jb	 SHORT $LN3@IsTimeAdd
$LN7@IsTimeAdd:
  00016	8b 45 08	 mov	 eax, DWORD PTR _nCurTime$[ebp]
  00019	8b 10		 mov	 edx, DWORD PTR [eax]
  0001b	8b 40 04	 mov	 eax, DWORD PTR [eax+4]
  0001e	85 c0		 test	 eax, eax
  00020	7c 17		 jl	 SHORT $LN3@IsTimeAdd
  00022	7f 04		 jg	 SHORT $LN8@IsTimeAdd
  00024	85 d2		 test	 edx, edx
  00026	72 11		 jb	 SHORT $LN3@IsTimeAdd
$LN8@IsTimeAdd:

; 1141 : 	{
; 1142 : 		return false;
; 1143 : 	}
; 1144 : 
; 1145 : 	return nCurTime > nEndTime;

  00028	3b c6		 cmp	 eax, esi
  0002a	7c 0d		 jl	 SHORT $LN3@IsTimeAdd
  0002c	7f 04		 jg	 SHORT $LN9@IsTimeAdd
  0002e	3b d1		 cmp	 edx, ecx
  00030	76 07		 jbe	 SHORT $LN3@IsTimeAdd
$LN9@IsTimeAdd:
  00032	b0 01		 mov	 al, 1
  00034	5e		 pop	 esi

; 1146 : }

  00035	5d		 pop	 ebp
  00036	c2 08 00	 ret	 8
$LN3@IsTimeAdd:
  00039	32 c0		 xor	 al, al
  0003b	5e		 pop	 esi
  0003c	5d		 pop	 ebp
  0003d	c2 08 00	 ret	 8
?IsTimeAdd@CCeilingTimeRealDataModule@@MBE_NAB_J0@Z ENDP ; CCeilingTimeRealDataModule::IsTimeAdd
_TEXT	ENDS
; Function compile flags: /Ogtp
; File D:\git\src\IBK\IBK_DRFN\ProjSrc\SrcChartEx\ChartOCX\PacketData\TimeRealDataModule.h
;	COMDAT ?GetRealType@CCeilingTimeRealDataModule@@MBE?AW4REALTYPE@CPacketType@@XZ
_TEXT	SEGMENT
?GetRealType@CCeilingTimeRealDataModule@@MBE?AW4REALTYPE@CPacketType@@XZ PROC ; CCeilingTimeRealDataModule::GetRealType, COMDAT
; _this$ = ecx

; 366  : 	virtual CPacketType::REALTYPE	GetRealType( void) const	{	return CPacketType::CEILING;	}

  00000	b8 01 00 00 00	 mov	 eax, 1
  00005	c3		 ret	 0
?GetRealType@CCeilingTimeRealDataModule@@MBE?AW4REALTYPE@CPacketType@@XZ ENDP ; CCeilingTimeRealDataModule::GetRealType
_TEXT	ENDS
; Function compile flags: /Ogtp
; File D:\git\src\IBK\IBK_DRFN\ProjSrc\SrcChartEx\ChartOCX\PacketData\TimeRealDataModule.cpp
;	COMDAT ??0CCeilingTimeRealDataModule@@QAE@ABVCDateData@@AAVCMarketTimeData@@ABV?$CStringT@DV?$StrTraitMFC_DLL@DV?$ChTraitsCRT@D@ATL@@@@@ATL@@H2W4HORZSCALEDRAWERTYPE@CScaleBaseData@@@Z
_TEXT	SEGMENT
_this$ = -4						; size = 4
_dateData$ = 8						; size = 4
_p_marketTimeData$ = 12					; size = 4
_strPacketType$ = 16					; size = 4
_nTimeInterval$ = 20					; size = 4
_strMarketStartTime$ = 24				; size = 4
_eDateUnitType$ = 28					; size = 4
??0CCeilingTimeRealDataModule@@QAE@ABVCDateData@@AAVCMarketTimeData@@ABV?$CStringT@DV?$StrTraitMFC_DLL@DV?$ChTraitsCRT@D@ATL@@@@@ATL@@H2W4HORZSCALEDRAWERTYPE@CScaleBaseData@@@Z PROC ; CCeilingTimeRealDataModule::CCeilingTimeRealDataModule, COMDAT
; _this$ = ecx

; 1130 : {

  00000	55		 push	 ebp
  00001	8b ec		 mov	 ebp, esp
  00003	51		 push	 ecx
  00004	56		 push	 esi
  00005	ff 75 1c	 push	 DWORD PTR _eDateUnitType$[ebp]
  00008	8b f1		 mov	 esi, ecx
  0000a	ff 75 18	 push	 DWORD PTR _strMarketStartTime$[ebp]
  0000d	89 75 fc	 mov	 DWORD PTR _this$[ebp], esi
  00010	ff 75 14	 push	 DWORD PTR _nTimeInterval$[ebp]
  00013	ff 75 10	 push	 DWORD PTR _strPacketType$[ebp]
  00016	ff 75 0c	 push	 DWORD PTR _p_marketTimeData$[ebp]
  00019	ff 75 08	 push	 DWORD PTR _dateData$[ebp]
  0001c	e8 00 00 00 00	 call	 ??0CTimeRealDataModule@@QAE@ABVCDateData@@AAVCMarketTimeData@@ABV?$CStringT@DV?$StrTraitMFC_DLL@DV?$ChTraitsCRT@D@ATL@@@@@ATL@@H2W4HORZSCALEDRAWERTYPE@CScaleBaseData@@@Z ; CTimeRealDataModule::CTimeRealDataModule
  00021	c7 06 00 00 00
	00		 mov	 DWORD PTR [esi], OFFSET ??_7CCeilingTimeRealDataModule@@6B@

; 1131 : }

  00027	8b c6		 mov	 eax, esi
  00029	5e		 pop	 esi
  0002a	8b e5		 mov	 esp, ebp
  0002c	5d		 pop	 ebp
  0002d	c2 18 00	 ret	 24			; 00000018H
??0CCeilingTimeRealDataModule@@QAE@ABVCDateData@@AAVCMarketTimeData@@ABV?$CStringT@DV?$StrTraitMFC_DLL@DV?$ChTraitsCRT@D@ATL@@@@@ATL@@H2W4HORZSCALEDRAWERTYPE@CScaleBaseData@@@Z ENDP ; CCeilingTimeRealDataModule::CCeilingTimeRealDataModule
_TEXT	ENDS
; Function compile flags: /Ogtp
; File D:\git\src\IBK\IBK_DRFN\ProjSrc\SrcChartEx\ChartOCX\PacketData\TimeRealDataModule.cpp
;	COMDAT ??_GCFloorTimeRealDataModule@@UAEPAXI@Z
_TEXT	SEGMENT
___flags$ = 8						; size = 4
??_GCFloorTimeRealDataModule@@UAEPAXI@Z PROC		; CFloorTimeRealDataModule::`scalar deleting destructor', COMDAT
; _this$ = ecx
  00000	55		 push	 ebp
  00001	8b ec		 mov	 ebp, esp

; 579  : {

  00003	56		 push	 esi
  00004	8b f1		 mov	 esi, ecx

; 580  : }

  00006	8d 8e ac 00 00
	00		 lea	 ecx, DWORD PTR [esi+172]
  0000c	c7 06 00 00 00
	00		 mov	 DWORD PTR [esi], OFFSET ??_7CTimeRealDataModule@@6B@
  00012	ff 15 00 00 00
	00		 call	 DWORD PTR __imp_??1?$CStringT@DV?$StrTraitMFC_DLL@DV?$ChTraitsCRT@D@ATL@@@@@ATL@@QAE@XZ

; 49   : }

  00018	8d 4e 7c	 lea	 ecx, DWORD PTR [esi+124]
  0001b	c7 06 00 00 00
	00		 mov	 DWORD PTR [esi], OFFSET ??_7CTimeRealDataModuleBase@@6B@
  00021	e8 00 00 00 00	 call	 ??1CMapPtrToPtr@@UAE@XZ	; CMapPtrToPtr::~CMapPtrToPtr
  00026	8d 4e 60	 lea	 ecx, DWORD PTR [esi+96]
  00029	e8 00 00 00 00	 call	 ??1CMapPtrToPtr@@UAE@XZ	; CMapPtrToPtr::~CMapPtrToPtr
  0002e	8d 4e 08	 lea	 ecx, DWORD PTR [esi+8]
  00031	e8 00 00 00 00	 call	 ??1CTimeTypeConvert@@UAE@XZ ; CTimeTypeConvert::~CTimeTypeConvert
  00036	f6 45 08 01	 test	 BYTE PTR ___flags$[ebp], 1
  0003a	74 0e		 je	 SHORT $LN13@scalar
  0003c	68 c8 00 00 00	 push	 200			; 000000c8H
  00041	56		 push	 esi
  00042	e8 00 00 00 00	 call	 ??3@YAXPAXI@Z		; operator delete
  00047	83 c4 08	 add	 esp, 8
$LN13@scalar:
  0004a	8b c6		 mov	 eax, esi
  0004c	5e		 pop	 esi
  0004d	5d		 pop	 ebp
  0004e	c2 04 00	 ret	 4
??_GCFloorTimeRealDataModule@@UAEPAXI@Z ENDP		; CFloorTimeRealDataModule::`scalar deleting destructor'
_TEXT	ENDS
; Function compile flags: /Ogtp
; File D:\git\src\IBK\IBK_DRFN\ProjSrc\SrcChartEx\ChartOCX\PacketData\TimeRealDataModule.cpp
;	COMDAT ?GetRealData_CloseTime_AppendOrUpdate@CFloorTimeRealDataModule@@MAE_NPAVCPacket@@AB_J1AA_J@Z
_TEXT	SEGMENT
_pPacket$ = 8						; size = 4
_nFloorTime$ = 12					; size = 4
_nCeilTime$ = 16					; size = 4
_p_nRealDataTime$ = 20					; size = 4
?GetRealData_CloseTime_AppendOrUpdate@CFloorTimeRealDataModule@@MAE_NPAVCPacket@@AB_J1AA_J@Z PROC ; CFloorTimeRealDataModule::GetRealData_CloseTime_AppendOrUpdate, COMDAT
; _this$ = ecx

; 1119 : {

  00000	55		 push	 ebp
  00001	8b ec		 mov	 ebp, esp

; 1120 : 	return GetRealData_CloseTime_AppendOrUpdate2( pPacket, nFloorTime, nFloorTime, p_nRealDataTime);

  00003	8b 45 0c	 mov	 eax, DWORD PTR _nFloorTime$[ebp]
  00006	89 45 10	 mov	 DWORD PTR _nCeilTime$[ebp], eax
  00009	89 45 0c	 mov	 DWORD PTR _nFloorTime$[ebp], eax

; 1121 : }

  0000c	5d		 pop	 ebp

; 1120 : 	return GetRealData_CloseTime_AppendOrUpdate2( pPacket, nFloorTime, nFloorTime, p_nRealDataTime);

  0000d	e9 00 00 00 00	 jmp	 ?GetRealData_CloseTime_AppendOrUpdate2@CTimeRealDataModule@@IAE_NPAVCPacket@@AB_J1AA_J@Z ; CTimeRealDataModule::GetRealData_CloseTime_AppendOrUpdate2
?GetRealData_CloseTime_AppendOrUpdate@CFloorTimeRealDataModule@@MAE_NPAVCPacket@@AB_J1AA_J@Z ENDP ; CFloorTimeRealDataModule::GetRealData_CloseTime_AppendOrUpdate
_TEXT	ENDS
; Function compile flags: /Ogtp
; File D:\git\src\IBK\IBK_DRFN\ProjSrc\SrcChartEx\ChartOCX\PacketData\TimeRealDataModule.h
;	COMDAT ?GetCloseTime@CFloorTimeRealDataModule@@MBE_JAB_J0@Z
_TEXT	SEGMENT
_p_nTimeRangeStart$ = 8					; size = 4
_p_nTimeRangeEnd$ = 12					; size = 4
?GetCloseTime@CFloorTimeRealDataModule@@MBE_JAB_J0@Z PROC ; CFloorTimeRealDataModule::GetCloseTime, COMDAT
; _this$ = ecx

; 346  : 	virtual __int64		GetCloseTime( const __int64 &p_nTimeRangeStart, const __int64 &p_nTimeRangeEnd) const	{	return	p_nTimeRangeStart;	}

  00000	55		 push	 ebp
  00001	8b ec		 mov	 ebp, esp
  00003	8b 55 08	 mov	 edx, DWORD PTR _p_nTimeRangeStart$[ebp]
  00006	8b 02		 mov	 eax, DWORD PTR [edx]
  00008	8b 52 04	 mov	 edx, DWORD PTR [edx+4]
  0000b	5d		 pop	 ebp
  0000c	c2 08 00	 ret	 8
?GetCloseTime@CFloorTimeRealDataModule@@MBE_JAB_J0@Z ENDP ; CFloorTimeRealDataModule::GetCloseTime
_TEXT	ENDS
; Function compile flags: /Ogtp
; File D:\git\src\IBK\IBK_DRFN\ProjSrc\SrcChartEx\ChartOCX\PacketData\TimeRealDataModule.cpp
;	COMDAT ?SetRealData_AppendOrUpdate@CFloorTimeRealDataModule@@MAEHPAVCPacket@@AB_J11@Z
_TEXT	SEGMENT
_pPacket$ = 8						; size = 4
_nRealTime$ = 12					; size = 4
_nFloorTime$ = 16					; size = 4
_nCeilTime$ = 20					; size = 4
?SetRealData_AppendOrUpdate@CFloorTimeRealDataModule@@MAEHPAVCPacket@@AB_J11@Z PROC ; CFloorTimeRealDataModule::SetRealData_AppendOrUpdate, COMDAT
; _this$ = ecx

; 1112 : {

  00000	55		 push	 ebp
  00001	8b ec		 mov	 ebp, esp

; 1113 : 	return CTimeRealDataModule::SetRealData_AppendOrUpdate2( pPacket, nRealTime, nFloorTime, nFloorTime);

  00003	8b 45 10	 mov	 eax, DWORD PTR _nFloorTime$[ebp]
  00006	89 45 14	 mov	 DWORD PTR _nCeilTime$[ebp], eax
  00009	89 45 10	 mov	 DWORD PTR _nFloorTime$[ebp], eax

; 1114 : }

  0000c	5d		 pop	 ebp

; 1113 : 	return CTimeRealDataModule::SetRealData_AppendOrUpdate2( pPacket, nRealTime, nFloorTime, nFloorTime);

  0000d	e9 00 00 00 00	 jmp	 ?SetRealData_AppendOrUpdate2@CTimeRealDataModule@@IAEHPAVCPacket@@AB_J11@Z ; CTimeRealDataModule::SetRealData_AppendOrUpdate2
?SetRealData_AppendOrUpdate@CFloorTimeRealDataModule@@MAEHPAVCPacket@@AB_J11@Z ENDP ; CFloorTimeRealDataModule::SetRealData_AppendOrUpdate
_TEXT	ENDS
; Function compile flags: /Ogtp
; File D:\git\src\IBK\IBK_DRFN\ProjSrc\SrcChartEx\ChartOCX\PacketData\TimeRealDataModule.cpp
;	COMDAT ?IsTimeAdd@CFloorTimeRealDataModule@@MBE_NAB_J0@Z
_TEXT	SEGMENT
_nCurTime$ = 8						; size = 4
_nEndTime$ = 12						; size = 4
?IsTimeAdd@CFloorTimeRealDataModule@@MBE_NAB_J0@Z PROC	; CFloorTimeRealDataModule::IsTimeAdd, COMDAT
; _this$ = ecx

; 1098 : {

  00000	55		 push	 ebp
  00001	8b ec		 mov	 ebp, esp

; 1099 : 	if(nEndTime<0 || nCurTime<0)

  00003	8b 45 0c	 mov	 eax, DWORD PTR _nEndTime$[ebp]
  00006	56		 push	 esi
  00007	8b 70 04	 mov	 esi, DWORD PTR [eax+4]
  0000a	8b 08		 mov	 ecx, DWORD PTR [eax]
  0000c	85 f6		 test	 esi, esi
  0000e	7c 29		 jl	 SHORT $LN3@IsTimeAdd
  00010	7f 04		 jg	 SHORT $LN7@IsTimeAdd
  00012	85 c9		 test	 ecx, ecx
  00014	72 23		 jb	 SHORT $LN3@IsTimeAdd
$LN7@IsTimeAdd:
  00016	8b 45 08	 mov	 eax, DWORD PTR _nCurTime$[ebp]
  00019	8b 10		 mov	 edx, DWORD PTR [eax]
  0001b	8b 40 04	 mov	 eax, DWORD PTR [eax+4]
  0001e	85 c0		 test	 eax, eax
  00020	7c 17		 jl	 SHORT $LN3@IsTimeAdd
  00022	7f 04		 jg	 SHORT $LN8@IsTimeAdd
  00024	85 d2		 test	 edx, edx
  00026	72 11		 jb	 SHORT $LN3@IsTimeAdd
$LN8@IsTimeAdd:

; 1100 : 	{
; 1101 : 		return false;
; 1102 : 	}
; 1103 : 
; 1104 : 	return (nCurTime >= nEndTime);

  00028	3b c6		 cmp	 eax, esi
  0002a	7c 0d		 jl	 SHORT $LN3@IsTimeAdd
  0002c	7f 04		 jg	 SHORT $LN9@IsTimeAdd
  0002e	3b d1		 cmp	 edx, ecx
  00030	72 07		 jb	 SHORT $LN3@IsTimeAdd
$LN9@IsTimeAdd:
  00032	b0 01		 mov	 al, 1
  00034	5e		 pop	 esi

; 1105 : }

  00035	5d		 pop	 ebp
  00036	c2 08 00	 ret	 8
$LN3@IsTimeAdd:
  00039	32 c0		 xor	 al, al
  0003b	5e		 pop	 esi
  0003c	5d		 pop	 ebp
  0003d	c2 08 00	 ret	 8
?IsTimeAdd@CFloorTimeRealDataModule@@MBE_NAB_J0@Z ENDP	; CFloorTimeRealDataModule::IsTimeAdd
_TEXT	ENDS
; Function compile flags: /Ogtp
; File D:\git\src\IBK\IBK_DRFN\ProjSrc\SrcChartEx\ChartOCX\PacketData\TimeRealDataModule.h
;	COMDAT ?GetRealType@CFloorTimeRealDataModule@@MBE?AW4REALTYPE@CPacketType@@XZ
_TEXT	SEGMENT
?GetRealType@CFloorTimeRealDataModule@@MBE?AW4REALTYPE@CPacketType@@XZ PROC ; CFloorTimeRealDataModule::GetRealType, COMDAT
; _this$ = ecx

; 331  : 	virtual CPacketType::REALTYPE	GetRealType( void) const	{	return CPacketType::FLOOR;	}

  00000	33 c0		 xor	 eax, eax
  00002	c3		 ret	 0
?GetRealType@CFloorTimeRealDataModule@@MBE?AW4REALTYPE@CPacketType@@XZ ENDP ; CFloorTimeRealDataModule::GetRealType
_TEXT	ENDS
; Function compile flags: /Ogtp
; File D:\git\src\IBK\IBK_DRFN\ProjSrc\SrcChartEx\ChartOCX\PacketData\TimeRealDataModule.cpp
;	COMDAT ??0CFloorTimeRealDataModule@@QAE@ABVCDateData@@AAVCMarketTimeData@@ABV?$CStringT@DV?$StrTraitMFC_DLL@DV?$ChTraitsCRT@D@ATL@@@@@ATL@@H2W4HORZSCALEDRAWERTYPE@CScaleBaseData@@@Z
_TEXT	SEGMENT
_this$ = -4						; size = 4
_dateData$ = 8						; size = 4
_p_marketTimeData$ = 12					; size = 4
_strPacketType$ = 16					; size = 4
_nTimeInterval$ = 20					; size = 4
_strMarketStartTime$ = 24				; size = 4
_eDateUnitType$ = 28					; size = 4
??0CFloorTimeRealDataModule@@QAE@ABVCDateData@@AAVCMarketTimeData@@ABV?$CStringT@DV?$StrTraitMFC_DLL@DV?$ChTraitsCRT@D@ATL@@@@@ATL@@H2W4HORZSCALEDRAWERTYPE@CScaleBaseData@@@Z PROC ; CFloorTimeRealDataModule::CFloorTimeRealDataModule, COMDAT
; _this$ = ecx

; 1091 : {

  00000	55		 push	 ebp
  00001	8b ec		 mov	 ebp, esp
  00003	51		 push	 ecx
  00004	56		 push	 esi
  00005	ff 75 1c	 push	 DWORD PTR _eDateUnitType$[ebp]
  00008	8b f1		 mov	 esi, ecx
  0000a	ff 75 18	 push	 DWORD PTR _strMarketStartTime$[ebp]
  0000d	89 75 fc	 mov	 DWORD PTR _this$[ebp], esi
  00010	ff 75 14	 push	 DWORD PTR _nTimeInterval$[ebp]
  00013	ff 75 10	 push	 DWORD PTR _strPacketType$[ebp]
  00016	ff 75 0c	 push	 DWORD PTR _p_marketTimeData$[ebp]
  00019	ff 75 08	 push	 DWORD PTR _dateData$[ebp]
  0001c	e8 00 00 00 00	 call	 ??0CTimeRealDataModule@@QAE@ABVCDateData@@AAVCMarketTimeData@@ABV?$CStringT@DV?$StrTraitMFC_DLL@DV?$ChTraitsCRT@D@ATL@@@@@ATL@@H2W4HORZSCALEDRAWERTYPE@CScaleBaseData@@@Z ; CTimeRealDataModule::CTimeRealDataModule
  00021	c7 06 00 00 00
	00		 mov	 DWORD PTR [esi], OFFSET ??_7CFloorTimeRealDataModule@@6B@

; 1092 : }

  00027	8b c6		 mov	 eax, esi
  00029	5e		 pop	 esi
  0002a	8b e5		 mov	 esp, ebp
  0002c	5d		 pop	 ebp
  0002d	c2 18 00	 ret	 24			; 00000018H
??0CFloorTimeRealDataModule@@QAE@ABVCDateData@@AAVCMarketTimeData@@ABV?$CStringT@DV?$StrTraitMFC_DLL@DV?$ChTraitsCRT@D@ATL@@@@@ATL@@H2W4HORZSCALEDRAWERTYPE@CScaleBaseData@@@Z ENDP ; CFloorTimeRealDataModule::CFloorTimeRealDataModule
_TEXT	ENDS
; Function compile flags: /Ogtp
; File D:\git\src\IBK\IBK_DRFN\ProjSrc\SrcChartEx\ChartOCX\PacketData\TimeRealDataModule.cpp
;	COMDAT ??_GCTimeRealDataModule@@UAEPAXI@Z
_TEXT	SEGMENT
___flags$ = 8						; size = 4
??_GCTimeRealDataModule@@UAEPAXI@Z PROC			; CTimeRealDataModule::`scalar deleting destructor', COMDAT
; _this$ = ecx
  00000	55		 push	 ebp
  00001	8b ec		 mov	 ebp, esp

; 579  : {

  00003	56		 push	 esi
  00004	8b f1		 mov	 esi, ecx

; 580  : }

  00006	8d 8e ac 00 00
	00		 lea	 ecx, DWORD PTR [esi+172]
  0000c	c7 06 00 00 00
	00		 mov	 DWORD PTR [esi], OFFSET ??_7CTimeRealDataModule@@6B@
  00012	ff 15 00 00 00
	00		 call	 DWORD PTR __imp_??1?$CStringT@DV?$StrTraitMFC_DLL@DV?$ChTraitsCRT@D@ATL@@@@@ATL@@QAE@XZ

; 49   : }

  00018	8d 4e 7c	 lea	 ecx, DWORD PTR [esi+124]
  0001b	c7 06 00 00 00
	00		 mov	 DWORD PTR [esi], OFFSET ??_7CTimeRealDataModuleBase@@6B@
  00021	e8 00 00 00 00	 call	 ??1CMapPtrToPtr@@UAE@XZ	; CMapPtrToPtr::~CMapPtrToPtr
  00026	8d 4e 60	 lea	 ecx, DWORD PTR [esi+96]
  00029	e8 00 00 00 00	 call	 ??1CMapPtrToPtr@@UAE@XZ	; CMapPtrToPtr::~CMapPtrToPtr
  0002e	8d 4e 08	 lea	 ecx, DWORD PTR [esi+8]
  00031	e8 00 00 00 00	 call	 ??1CTimeTypeConvert@@UAE@XZ ; CTimeTypeConvert::~CTimeTypeConvert
  00036	f6 45 08 01	 test	 BYTE PTR ___flags$[ebp], 1
  0003a	74 0e		 je	 SHORT $LN10@scalar
  0003c	68 c8 00 00 00	 push	 200			; 000000c8H
  00041	56		 push	 esi
  00042	e8 00 00 00 00	 call	 ??3@YAXPAXI@Z		; operator delete
  00047	83 c4 08	 add	 esp, 8
$LN10@scalar:
  0004a	8b c6		 mov	 eax, esi
  0004c	5e		 pop	 esi
  0004d	5d		 pop	 ebp
  0004e	c2 04 00	 ret	 4
??_GCTimeRealDataModule@@UAEPAXI@Z ENDP			; CTimeRealDataModule::`scalar deleting destructor'
_TEXT	ENDS
; Function compile flags: /Ogtp
; File D:\git\src\IBK\IBK_DRFN\ProjSrc\SrcChartEx\ChartOCX\PacketData\TimeRealDataModule.cpp
;	COMDAT ?GetTimeIntervalWithSecond@CTimeRealDataModule@@MAE_JXZ
_TEXT	SEGMENT
?GetTimeIntervalWithSecond@CTimeRealDataModule@@MAE_JXZ PROC ; CTimeRealDataModule::GetTimeIntervalWithSecond, COMDAT
; _this$ = ecx

; 1081 : 	return CDataConversion::GetSecond( m_nTimeInterval);

  00000	6a 00		 push	 0
  00002	ff b1 a4 00 00
	00		 push	 DWORD PTR [ecx+164]
  00008	ff b1 a0 00 00
	00		 push	 DWORD PTR [ecx+160]
  0000e	e8 00 00 00 00	 call	 ?GetSecond@CDataConversion@@SA_J_JH@Z ; CDataConversion::GetSecond
  00013	83 c4 0c	 add	 esp, 12			; 0000000cH

; 1082 : }

  00016	c3		 ret	 0
?GetTimeIntervalWithSecond@CTimeRealDataModule@@MAE_JXZ ENDP ; CTimeRealDataModule::GetTimeIntervalWithSecond
_TEXT	ENDS
; Function compile flags: /Ogtp
; File D:\git\src\IBK\IBK_DRFN\ProjSrc\SrcChartEx\ChartOCX\PacketData\TimeRealDataModule.cpp
;	COMDAT ?IsOnMarketDay@CTimeRealDataModule@@IAEH_J@Z
_TEXT	SEGMENT
_p_nDateCheckTime$ = 8					; size = 8
?IsOnMarketDay@CTimeRealDataModule@@IAEH_J@Z PROC	; CTimeRealDataModule::IsOnMarketDay, COMDAT
; _this$ = ecx

; 1072 : {

  00000	55		 push	 ebp
  00001	8b ec		 mov	 ebp, esp
  00003	56		 push	 esi

; 1073 : 	GetMarketDate_DateTime( p_nDateCheckTime);

  00004	8d 45 08	 lea	 eax, DWORD PTR _p_nDateCheckTime$[ebp]
  00007	8b f1		 mov	 esi, ecx
  00009	50		 push	 eax
  0000a	e8 00 00 00 00	 call	 ?GetMarketDate_DateTime@CTimeRealDataModuleBase@@QBEXAA_J@Z ; CTimeRealDataModuleBase::GetMarketDate_DateTime

; 1074 : 	return IsMarketDay( int( p_nDateCheckTime/ 1000000));

  0000f	6a 00		 push	 0
  00011	68 40 42 0f 00	 push	 1000000			; 000f4240H
  00016	ff 75 0c	 push	 DWORD PTR _p_nDateCheckTime$[ebp+4]
  00019	ff 75 08	 push	 DWORD PTR _p_nDateCheckTime$[ebp]
  0001c	e8 00 00 00 00	 call	 __alldiv
  00021	50		 push	 eax
  00022	8b ce		 mov	 ecx, esi
  00024	e8 00 00 00 00	 call	 ?IsMarketDay@CTimeRealDataModuleBase@@QAEHH@Z ; CTimeRealDataModuleBase::IsMarketDay
  00029	5e		 pop	 esi

; 1075 : }

  0002a	5d		 pop	 ebp
  0002b	c2 08 00	 ret	 8
?IsOnMarketDay@CTimeRealDataModule@@IAEH_J@Z ENDP	; CTimeRealDataModule::IsOnMarketDay
_TEXT	ENDS
; Function compile flags: /Ogtp
; File D:\git\src\IBK\IBK_DRFN\ProjSrc\SrcChartEx\ChartOCX\PacketData\TimeRealDataModule.cpp
; File D:\git\src\IBK\IBK_DRFN\ProjSrc\SrcChartEx\ChartOCX\PacketData\PacketBaseData.h
; File D:\git\src\IBK\IBK_DRFN\ProjSrc\SrcChartEx\ChartOCX\PacketData\TimeRealDataModule.cpp
;	COMDAT ?IsOnMarketTimeRange@CTimeRealDataModule@@IAEHAB_J0ABH111@Z
_TEXT	SEGMENT
_p_nDateCheckTime$ = -8					; size = 8
_p_nDateCheckTime$ = -8					; size = 8
_p_nDateCheckTime$ = -8					; size = 8
_p_nTimeRangeStart$ = 8					; size = 4
_p_nTimeRangeEnd$ = 12					; size = 4
_nStartTime$ = 16					; size = 4
_nEndTime$ = 20						; size = 4
_nMarketStartTime$ = 24					; size = 4
_nMarketEndTime$ = 28					; size = 4
?IsOnMarketTimeRange@CTimeRealDataModule@@IAEHAB_J0ABH111@Z PROC ; CTimeRealDataModule::IsOnMarketTimeRange, COMDAT
; _this$ = ecx

; 1029 : {

  00000	55		 push	 ebp
  00001	8b ec		 mov	 ebp, esp
  00003	83 ec 08	 sub	 esp, 8
  00006	53		 push	 ebx
  00007	8b d9		 mov	 ebx, ecx
  00009	56		 push	 esi
  0000a	57		 push	 edi

; 1034 : 	if( m_marketTimeData.IsReverseTime())

  0000b	8b 7b 54	 mov	 edi, DWORD PTR [ebx+84]
; File D:\git\src\IBK\IBK_DRFN\ProjSrc\SrcChartEx\ChartOCX\PacketData\PacketBaseData.h

; 123  : 	bool	IsReverseTime( void) const		{	return m_endTime.GetTimeFromServer() <= m_startTime.GetTimeFromServer();		}

  0000e	8d 4f 08	 lea	 ecx, DWORD PTR [edi+8]
  00011	e8 00 00 00 00	 call	 ?GetTimeFromServer@CTimeData@@QBEHXZ ; CTimeData::GetTimeFromServer
  00016	8b cf		 mov	 ecx, edi
  00018	8b f0		 mov	 esi, eax
  0001a	e8 00 00 00 00	 call	 ?GetTimeFromServer@CTimeData@@QBEHXZ ; CTimeData::GetTimeFromServer
  0001f	3b f0		 cmp	 esi, eax
; File D:\git\src\IBK\IBK_DRFN\ProjSrc\SrcChartEx\ChartOCX\PacketData\TimeRealDataModule.cpp

; 1034 : 	if( m_marketTimeData.IsReverseTime())

  00021	8b 45 10	 mov	 eax, DWORD PTR _nStartTime$[ebp]
  00024	8b 00		 mov	 eax, DWORD PTR [eax]
  00026	7f 61		 jg	 SHORT $LN2@IsOnMarket

; 1035 : 	{
; 1036 : 		if( nStartTime < nMarketEndTime || nMarketStartTime <= nStartTime)

  00028	8b 7d 1c	 mov	 edi, DWORD PTR _nMarketEndTime$[ebp]
  0002b	8b 75 18	 mov	 esi, DWORD PTR _nMarketStartTime$[ebp]
  0002e	3b 07		 cmp	 eax, DWORD PTR [edi]
  00030	7c 04		 jl	 SHORT $LN31@IsOnMarket
  00032	39 06		 cmp	 DWORD PTR [esi], eax
  00034	7f 3b		 jg	 SHORT $LN30@IsOnMarket
$LN31@IsOnMarket:

; 1037 : 		{
; 1038 : 			if( IsOnMarketDay( p_nTimeRangeStart)) return TRUE;

  00036	8b 45 08	 mov	 eax, DWORD PTR _p_nTimeRangeStart$[ebp]
  00039	8b 08		 mov	 ecx, DWORD PTR [eax]
  0003b	8b 40 04	 mov	 eax, DWORD PTR [eax+4]
  0003e	89 45 fc	 mov	 DWORD PTR _p_nDateCheckTime$[ebp+4], eax

; 1073 : 	GetMarketDate_DateTime( p_nDateCheckTime);

  00041	8d 45 f8	 lea	 eax, DWORD PTR _p_nDateCheckTime$[ebp]

; 1037 : 		{
; 1038 : 			if( IsOnMarketDay( p_nTimeRangeStart)) return TRUE;

  00044	89 4d f8	 mov	 DWORD PTR _p_nDateCheckTime$[ebp], ecx

; 1073 : 	GetMarketDate_DateTime( p_nDateCheckTime);

  00047	8b cb		 mov	 ecx, ebx
  00049	50		 push	 eax
  0004a	e8 00 00 00 00	 call	 ?GetMarketDate_DateTime@CTimeRealDataModuleBase@@QBEXAA_J@Z ; CTimeRealDataModuleBase::GetMarketDate_DateTime

; 1074 : 	return IsMarketDay( int( p_nDateCheckTime/ 1000000));

  0004f	6a 00		 push	 0
  00051	68 40 42 0f 00	 push	 1000000			; 000f4240H
  00056	ff 75 fc	 push	 DWORD PTR _p_nDateCheckTime$[ebp+4]
  00059	ff 75 f8	 push	 DWORD PTR _p_nDateCheckTime$[ebp]
  0005c	e8 00 00 00 00	 call	 __alldiv
  00061	50		 push	 eax
  00062	8b cb		 mov	 ecx, ebx
  00064	e8 00 00 00 00	 call	 ?IsMarketDay@CTimeRealDataModuleBase@@QAEHH@Z ; CTimeRealDataModuleBase::IsMarketDay

; 1037 : 		{
; 1038 : 			if( IsOnMarketDay( p_nTimeRangeStart)) return TRUE;

  00069	85 c0		 test	 eax, eax
  0006b	0f 85 a5 00 00
	00		 jne	 $LN32@IsOnMarket
$LN30@IsOnMarket:

; 1039 : 		}
; 1040 : 		if( nEndTime <= nMarketEndTime || nMarketStartTime < nEndTime) 

  00071	8b 45 14	 mov	 eax, DWORD PTR _nEndTime$[ebp]
  00074	8b 00		 mov	 eax, DWORD PTR [eax]
  00076	3b 07		 cmp	 eax, DWORD PTR [edi]
  00078	7e 61		 jle	 SHORT $LN8@IsOnMarket
  0007a	39 06		 cmp	 DWORD PTR [esi], eax
  0007c	7c 5d		 jl	 SHORT $LN8@IsOnMarket
$LN13@IsOnMarket:
  0007e	5f		 pop	 edi

; 1055 : 		}
; 1056 : 		return FALSE;
; 1057 : 	}
; 1058 : 
; 1059 : 	//	3.     , FX      .
; 1060 : 	if( CChartInfo::FX == m_nChartModeSetting)
; 1061 : 	{
; 1062 : 		__int64 nMarketDate = p_nTimeRangeStart;
; 1063 : 		GetMarketDate_DateTime( nMarketDate);
; 1064 : 		if( !IsMarketDay( int( nMarketDate / 1000000))) return FALSE;
; 1065 : 		if( !IsMarketDay( int( CDataConversion::CalcTimeSum( nMarketDate, 1000000) / 1000000))) return FALSE;
; 1066 : 		return TRUE;
; 1067 : 	}
; 1068 : 
; 1069 : 	return FALSE;
; 1070 : }

  0007f	5e		 pop	 esi
  00080	33 c0		 xor	 eax, eax
  00082	5b		 pop	 ebx
  00083	8b e5		 mov	 esp, ebp
  00085	5d		 pop	 ebp
  00086	c2 18 00	 ret	 24			; 00000018H
$LN2@IsOnMarket:

; 1041 : 		{
; 1042 : 			if( IsOnMarketDay( p_nTimeRangeEnd)) return TRUE;
; 1043 : 		}
; 1044 : 		return FALSE;
; 1045 : 	}
; 1046 : 	else
; 1047 : 	{
; 1048 : 		if( nMarketStartTime <= nStartTime && nStartTime < nMarketEndTime)

  00089	8b 7d 18	 mov	 edi, DWORD PTR _nMarketStartTime$[ebp]
  0008c	8b 75 1c	 mov	 esi, DWORD PTR _nMarketEndTime$[ebp]
  0008f	39 07		 cmp	 DWORD PTR [edi], eax
  00091	7f 3b		 jg	 SHORT $LN11@IsOnMarket
  00093	3b 06		 cmp	 eax, DWORD PTR [esi]
  00095	7d 37		 jge	 SHORT $LN11@IsOnMarket

; 1049 : 		{
; 1050 : 			if( IsOnMarketDay( p_nTimeRangeStart)) return TRUE;

  00097	8b 45 08	 mov	 eax, DWORD PTR _p_nTimeRangeStart$[ebp]
  0009a	8b 08		 mov	 ecx, DWORD PTR [eax]
  0009c	8b 40 04	 mov	 eax, DWORD PTR [eax+4]
  0009f	89 45 fc	 mov	 DWORD PTR _p_nDateCheckTime$[ebp+4], eax

; 1073 : 	GetMarketDate_DateTime( p_nDateCheckTime);

  000a2	8d 45 f8	 lea	 eax, DWORD PTR _p_nDateCheckTime$[ebp]

; 1049 : 		{
; 1050 : 			if( IsOnMarketDay( p_nTimeRangeStart)) return TRUE;

  000a5	89 4d f8	 mov	 DWORD PTR _p_nDateCheckTime$[ebp], ecx

; 1073 : 	GetMarketDate_DateTime( p_nDateCheckTime);

  000a8	8b cb		 mov	 ecx, ebx
  000aa	50		 push	 eax
  000ab	e8 00 00 00 00	 call	 ?GetMarketDate_DateTime@CTimeRealDataModuleBase@@QBEXAA_J@Z ; CTimeRealDataModuleBase::GetMarketDate_DateTime

; 1074 : 	return IsMarketDay( int( p_nDateCheckTime/ 1000000));

  000b0	6a 00		 push	 0
  000b2	68 40 42 0f 00	 push	 1000000			; 000f4240H
  000b7	ff 75 fc	 push	 DWORD PTR _p_nDateCheckTime$[ebp+4]
  000ba	ff 75 f8	 push	 DWORD PTR _p_nDateCheckTime$[ebp]
  000bd	e8 00 00 00 00	 call	 __alldiv
  000c2	50		 push	 eax
  000c3	8b cb		 mov	 ecx, ebx
  000c5	e8 00 00 00 00	 call	 ?IsMarketDay@CTimeRealDataModuleBase@@QAEHH@Z ; CTimeRealDataModuleBase::IsMarketDay

; 1049 : 		{
; 1050 : 			if( IsOnMarketDay( p_nTimeRangeStart)) return TRUE;

  000ca	85 c0		 test	 eax, eax
  000cc	75 48		 jne	 SHORT $LN32@IsOnMarket
$LN11@IsOnMarket:

; 1051 : 		}
; 1052 : 		if( nMarketStartTime < nEndTime && nEndTime <= nMarketEndTime)

  000ce	8b 45 14	 mov	 eax, DWORD PTR _nEndTime$[ebp]
  000d1	8b 00		 mov	 eax, DWORD PTR [eax]
  000d3	39 07		 cmp	 DWORD PTR [edi], eax
  000d5	7d a7		 jge	 SHORT $LN13@IsOnMarket
  000d7	3b 06		 cmp	 eax, DWORD PTR [esi]
  000d9	7f a3		 jg	 SHORT $LN13@IsOnMarket
$LN8@IsOnMarket:

; 1053 : 		{
; 1054 : 			if( IsOnMarketDay( p_nTimeRangeEnd)) return TRUE;

  000db	8b 45 0c	 mov	 eax, DWORD PTR _p_nTimeRangeEnd$[ebp]
  000de	8b 08		 mov	 ecx, DWORD PTR [eax]
  000e0	8b 40 04	 mov	 eax, DWORD PTR [eax+4]
  000e3	89 45 fc	 mov	 DWORD PTR _p_nDateCheckTime$[ebp+4], eax
  000e6	8d 45 f8	 lea	 eax, DWORD PTR _p_nDateCheckTime$[ebp]
  000e9	89 4d f8	 mov	 DWORD PTR _p_nDateCheckTime$[ebp], ecx
  000ec	8b cb		 mov	 ecx, ebx
  000ee	50		 push	 eax
  000ef	e8 00 00 00 00	 call	 ?GetMarketDate_DateTime@CTimeRealDataModuleBase@@QBEXAA_J@Z ; CTimeRealDataModuleBase::GetMarketDate_DateTime
  000f4	6a 00		 push	 0
  000f6	68 40 42 0f 00	 push	 1000000			; 000f4240H
  000fb	ff 75 fc	 push	 DWORD PTR _p_nDateCheckTime$[ebp+4]
  000fe	ff 75 f8	 push	 DWORD PTR _p_nDateCheckTime$[ebp]
  00101	e8 00 00 00 00	 call	 __alldiv
  00106	50		 push	 eax
  00107	8b cb		 mov	 ecx, ebx
  00109	e8 00 00 00 00	 call	 ?IsMarketDay@CTimeRealDataModuleBase@@QAEHH@Z ; CTimeRealDataModuleBase::IsMarketDay
  0010e	85 c0		 test	 eax, eax
  00110	0f 84 68 ff ff
	ff		 je	 $LN13@IsOnMarket
$LN32@IsOnMarket:
  00116	5f		 pop	 edi

; 1055 : 		}
; 1056 : 		return FALSE;
; 1057 : 	}
; 1058 : 
; 1059 : 	//	3.     , FX      .
; 1060 : 	if( CChartInfo::FX == m_nChartModeSetting)
; 1061 : 	{
; 1062 : 		__int64 nMarketDate = p_nTimeRangeStart;
; 1063 : 		GetMarketDate_DateTime( nMarketDate);
; 1064 : 		if( !IsMarketDay( int( nMarketDate / 1000000))) return FALSE;
; 1065 : 		if( !IsMarketDay( int( CDataConversion::CalcTimeSum( nMarketDate, 1000000) / 1000000))) return FALSE;
; 1066 : 		return TRUE;
; 1067 : 	}
; 1068 : 
; 1069 : 	return FALSE;
; 1070 : }

  00117	5e		 pop	 esi
  00118	b8 01 00 00 00	 mov	 eax, 1
  0011d	5b		 pop	 ebx
  0011e	8b e5		 mov	 esp, ebp
  00120	5d		 pop	 ebp
  00121	c2 18 00	 ret	 24			; 00000018H
?IsOnMarketTimeRange@CTimeRealDataModule@@IAEHAB_J0ABH111@Z ENDP ; CTimeRealDataModule::IsOnMarketTimeRange
_TEXT	ENDS
; Function compile flags: /Ogtp
; File D:\git\src\IBK\IBK_DRFN\ProjSrc\SrcChartEx\ChartOCX\PacketData\TimeRealDataModule.cpp
; File D:\git\src\IBK\IBK_DRFN\ProjSrc\SrcChartEx\ChartOCX\PacketData\PacketBaseData.h
; File D:\git\src\IBK\IBK_DRFN\ProjSrc\SrcChartEx\ChartOCX\PacketData\TimeRealDataModule.cpp
;	COMDAT ?GetPrevIntervalWithoutOffTime@CTimeRealDataModule@@IAEXAA_J0H@Z
_TEXT	SEGMENT
_p_nDateCheckTime$ = -68				; size = 8
_p_nDateCheckTime$ = -60				; size = 8
_p_nDateCheckTime$ = -52				; size = 8
_p_nDateCheckTime$ = -44				; size = 8
$T1 = -36						; size = 4
$T2 = -32						; size = 4
_nIntervalSec$2$ = -28					; size = 4
_i$1$ = -24						; size = 4
_nEndTime$1$ = -20					; size = 4
_nIntervalSec$1$ = -16					; size = 4
_nStartTime$1$ = -12					; size = 4
_nMarketEndTime$ = -8					; size = 4
_nMarketStartTime$ = -4					; size = 4
_p_nTimeRangeStart$ = 8					; size = 4
_p_nTimeRangeEnd$ = 12					; size = 4
_p_bWithoutOffTime$ = 16				; size = 4
?GetPrevIntervalWithoutOffTime@CTimeRealDataModule@@IAEXAA_J0H@Z PROC ; CTimeRealDataModule::GetPrevIntervalWithoutOffTime, COMDAT
; _this$ = ecx

; 991  : {

  00000	55		 push	 ebp
  00001	8b ec		 mov	 ebp, esp
  00003	83 ec 44	 sub	 esp, 68			; 00000044H
  00006	53		 push	 ebx
  00007	8b d9		 mov	 ebx, ecx

; 992  : 	// X ScaleManager   Scale   / .
; 993  : 	int nMarketStartTime = -1, nMarketEndTime = -1;

  00009	c7 45 fc ff ff
	ff ff		 mov	 DWORD PTR _nMarketStartTime$[ebp], -1

; 994  : 	if( !m_marketTimeData.GetMarketTime( nMarketStartTime, nMarketEndTime)) return;

  00010	8d 45 f8	 lea	 eax, DWORD PTR _nMarketEndTime$[ebp]
  00013	c7 45 f8 ff ff
	ff ff		 mov	 DWORD PTR _nMarketEndTime$[ebp], -1
  0001a	50		 push	 eax
  0001b	8d 45 fc	 lea	 eax, DWORD PTR _nMarketStartTime$[ebp]
  0001e	8b 4b 54	 mov	 ecx, DWORD PTR [ebx+84]
  00021	50		 push	 eax
  00022	e8 00 00 00 00	 call	 ?GetMarketTime@CMarketTimeData@@QBE_NAAH0@Z ; CMarketTimeData::GetMarketTime
  00027	84 c0		 test	 al, al
  00029	0f 84 55 02 00
	00		 je	 $LN54@GetPrevInt

; 995  : 
; 996  : 	int nStartTime = -1, nEndTime = -1;
; 997  : 	__int64 nIntervalSec = GetTimeIntervalWithSecond();

  0002f	8b 03		 mov	 eax, DWORD PTR [ebx]
  00031	8b cb		 mov	 ecx, ebx
  00033	8b 40 14	 mov	 eax, DWORD PTR [eax+20]
  00036	ff d0		 call	 eax
  00038	8b ca		 mov	 ecx, edx
  0003a	89 45 e4	 mov	 DWORD PTR _nIntervalSec$2$[ebp], eax

; 998  : 	for( int i = 0; i <= ( 24 * 60 * 60 * 7) / nIntervalSec; i++)

  0003d	51		 push	 ecx
  0003e	50		 push	 eax
  0003f	6a 00		 push	 0
  00041	68 80 3a 09 00	 push	 604800			; 00093a80H
  00046	89 4d f0	 mov	 DWORD PTR _nIntervalSec$1$[ebp], ecx
  00049	c7 45 e8 00 00
	00 00		 mov	 DWORD PTR _i$1$[ebp], 0
  00050	e8 00 00 00 00	 call	 __alldiv
  00055	8b ca		 mov	 ecx, edx
  00057	89 45 dc	 mov	 DWORD PTR $T1[ebp], eax
  0005a	89 4d e0	 mov	 DWORD PTR $T2[ebp], ecx
  0005d	85 c9		 test	 ecx, ecx
  0005f	0f 8c 1f 02 00
	00		 jl	 $LN54@GetPrevInt
  00065	7f 08		 jg	 SHORT $LN49@GetPrevInt
  00067	85 c0		 test	 eax, eax
  00069	0f 82 15 02 00
	00		 jb	 $LN54@GetPrevInt
$LN49@GetPrevInt:
  0006f	57		 push	 edi
  00070	8b 7d 0c	 mov	 edi, DWORD PTR _p_nTimeRangeEnd$[ebp]
  00073	56		 push	 esi
$LL4@GetPrevInt:

; 999  : 	{
; 1000 : 		p_nTimeRangeEnd = p_nTimeRangeStart;

  00074	8b 75 08	 mov	 esi, DWORD PTR _p_nTimeRangeStart$[ebp]

; 1001 : 		p_nTimeRangeStart = CDataConversion::CalcTimeSum( p_nTimeRangeStart, -m_nTimeInterval);

  00077	6a 00		 push	 0
  00079	8b 06		 mov	 eax, DWORD PTR [esi]
  0007b	8b 4e 04	 mov	 ecx, DWORD PTR [esi+4]
  0007e	89 07		 mov	 DWORD PTR [edi], eax
  00080	89 4f 04	 mov	 DWORD PTR [edi+4], ecx
  00083	8b 8b a0 00 00
	00		 mov	 ecx, DWORD PTR [ebx+160]
  00089	8b 83 a4 00 00
	00		 mov	 eax, DWORD PTR [ebx+164]
  0008f	f7 d9		 neg	 ecx
  00091	83 d0 00	 adc	 eax, 0
  00094	f7 d8		 neg	 eax
  00096	50		 push	 eax
  00097	51		 push	 ecx
  00098	ff 76 04	 push	 DWORD PTR [esi+4]
  0009b	ff 36		 push	 DWORD PTR [esi]
  0009d	e8 00 00 00 00	 call	 ?CalcTimeSum@CDataConversion@@SA_J_J0H@Z ; CDataConversion::CalcTimeSum
  000a2	83 c4 14	 add	 esp, 20			; 00000014H
  000a5	89 06		 mov	 DWORD PTR [esi], eax
  000a7	89 56 04	 mov	 DWORD PTR [esi+4], edx

; 1002 : 
; 1003 : 		// (2009/11/16 - Seung-Won, Bae)    m_nNewRangeStartTime  .
; 1004 : 		nStartTime = int( p_nTimeRangeStart % 1000000);

  000aa	6a 00		 push	 0
  000ac	68 40 42 0f 00	 push	 1000000			; 000f4240H
  000b1	52		 push	 edx
  000b2	50		 push	 eax
  000b3	e8 00 00 00 00	 call	 __allrem

; 1005 : 		nEndTime = int( p_nTimeRangeEnd % 1000000);

  000b8	6a 00		 push	 0
  000ba	68 40 42 0f 00	 push	 1000000			; 000f4240H
  000bf	ff 77 04	 push	 DWORD PTR [edi+4]
  000c2	89 45 f4	 mov	 DWORD PTR _nStartTime$1$[ebp], eax
  000c5	ff 37		 push	 DWORD PTR [edi]
  000c7	e8 00 00 00 00	 call	 __allrem
  000cc	89 45 ec	 mov	 DWORD PTR _nEndTime$1$[ebp], eax

; 1006 : 		if( nEndTime == m_nNewRangeStartTime)

  000cf	3b 43 50	 cmp	 eax, DWORD PTR [ebx+80]
  000d2	75 4b		 jne	 SHORT $LN7@GetPrevInt

; 1007 : 		{
; 1008 : 			__int64 nMod = ( 24 * 60 * 60) % nIntervalSec;

  000d4	ff 75 f0	 push	 DWORD PTR _nIntervalSec$1$[ebp]
  000d7	8b 7d e4	 mov	 edi, DWORD PTR _nIntervalSec$2$[ebp]
  000da	57		 push	 edi
  000db	6a 00		 push	 0
  000dd	68 80 51 01 00	 push	 86400			; 00015180H
  000e2	e8 00 00 00 00	 call	 __allrem

; 1009 : 			if( 0 != nMod)

  000e7	85 c0		 test	 eax, eax
  000e9	75 04		 jne	 SHORT $LN50@GetPrevInt
  000eb	85 d2		 test	 edx, edx
  000ed	74 30		 je	 SHORT $LN7@GetPrevInt
$LN50@GetPrevInt:

; 1010 : 			{
; 1011 : 				p_nTimeRangeStart = CDataConversion::CalcTimeSum( p_nTimeRangeStart, nIntervalSec - nMod, TRUE);

  000ef	8b cf		 mov	 ecx, edi
  000f1	2b c8		 sub	 ecx, eax
  000f3	8b 45 f0	 mov	 eax, DWORD PTR _nIntervalSec$1$[ebp]
  000f6	6a 01		 push	 1
  000f8	1b c2		 sbb	 eax, edx
  000fa	50		 push	 eax
  000fb	51		 push	 ecx
  000fc	ff 76 04	 push	 DWORD PTR [esi+4]
  000ff	ff 36		 push	 DWORD PTR [esi]
  00101	e8 00 00 00 00	 call	 ?CalcTimeSum@CDataConversion@@SA_J_J0H@Z ; CDataConversion::CalcTimeSum
  00106	83 c4 14	 add	 esp, 20			; 00000014H
  00109	89 06		 mov	 DWORD PTR [esi], eax
  0010b	89 56 04	 mov	 DWORD PTR [esi+4], edx

; 1012 : 				nStartTime = int( p_nTimeRangeStart % 1000000);

  0010e	6a 00		 push	 0
  00110	68 40 42 0f 00	 push	 1000000			; 000f4240H
  00115	52		 push	 edx
  00116	50		 push	 eax
  00117	e8 00 00 00 00	 call	 __allrem
  0011c	89 45 f4	 mov	 DWORD PTR _nStartTime$1$[ebp], eax
$LN7@GetPrevInt:

; 1013 : 			}
; 1014 : 		}
; 1015 : 
; 1016 : 		if( p_bWithoutOffTime) return;

  0011f	83 7d 10 00	 cmp	 DWORD PTR _p_bWithoutOffTime$[ebp], 0
  00123	0f 85 59 01 00
	00		 jne	 $LN59@GetPrevInt

; 1034 : 	if( m_marketTimeData.IsReverseTime())

  00129	8b 7b 54	 mov	 edi, DWORD PTR [ebx+84]
; File D:\git\src\IBK\IBK_DRFN\ProjSrc\SrcChartEx\ChartOCX\PacketData\PacketBaseData.h

; 123  : 	bool	IsReverseTime( void) const		{	return m_endTime.GetTimeFromServer() <= m_startTime.GetTimeFromServer();		}

  0012c	8d 4f 08	 lea	 ecx, DWORD PTR [edi+8]
  0012f	e8 00 00 00 00	 call	 ?GetTimeFromServer@CTimeData@@QBEHXZ ; CTimeData::GetTimeFromServer
  00134	8b cf		 mov	 ecx, edi
  00136	8b f0		 mov	 esi, eax
  00138	e8 00 00 00 00	 call	 ?GetTimeFromServer@CTimeData@@QBEHXZ ; CTimeData::GetTimeFromServer
  0013d	3b f0		 cmp	 esi, eax
; File D:\git\src\IBK\IBK_DRFN\ProjSrc\SrcChartEx\ChartOCX\PacketData\TimeRealDataModule.cpp

; 1034 : 	if( m_marketTimeData.IsReverseTime())

  0013f	8b 45 f4	 mov	 eax, DWORD PTR _nStartTime$1$[ebp]
  00142	0f 8f 9e 00 00
	00		 jg	 $LN12@GetPrevInt

; 1035 : 	{
; 1036 : 		if( nStartTime < nMarketEndTime || nMarketStartTime <= nStartTime)

  00148	8b 4d f8	 mov	 ecx, DWORD PTR _nMarketEndTime$[ebp]
  0014b	3b c1		 cmp	 eax, ecx
  0014d	7c 07		 jl	 SHORT $LN15@GetPrevInt
  0014f	8b 55 fc	 mov	 edx, DWORD PTR _nMarketStartTime$[ebp]
  00152	3b d0		 cmp	 edx, eax
  00154	7f 41		 jg	 SHORT $LN16@GetPrevInt
$LN15@GetPrevInt:

; 1037 : 		{
; 1038 : 			if( IsOnMarketDay( p_nTimeRangeStart)) return TRUE;

  00156	8b 4d 08	 mov	 ecx, DWORD PTR _p_nTimeRangeStart$[ebp]
  00159	8b 01		 mov	 eax, DWORD PTR [ecx]
  0015b	8b 49 04	 mov	 ecx, DWORD PTR [ecx+4]
  0015e	89 45 d4	 mov	 DWORD PTR _p_nDateCheckTime$[ebp], eax

; 1073 : 	GetMarketDate_DateTime( p_nDateCheckTime);

  00161	8d 45 d4	 lea	 eax, DWORD PTR _p_nDateCheckTime$[ebp]

; 1038 : 			if( IsOnMarketDay( p_nTimeRangeStart)) return TRUE;

  00164	89 4d d8	 mov	 DWORD PTR _p_nDateCheckTime$[ebp+4], ecx

; 1073 : 	GetMarketDate_DateTime( p_nDateCheckTime);

  00167	8b cb		 mov	 ecx, ebx
  00169	50		 push	 eax
  0016a	e8 00 00 00 00	 call	 ?GetMarketDate_DateTime@CTimeRealDataModuleBase@@QBEXAA_J@Z ; CTimeRealDataModuleBase::GetMarketDate_DateTime

; 1074 : 	return IsMarketDay( int( p_nDateCheckTime/ 1000000));

  0016f	6a 00		 push	 0
  00171	68 40 42 0f 00	 push	 1000000			; 000f4240H
  00176	ff 75 d8	 push	 DWORD PTR _p_nDateCheckTime$[ebp+4]
  00179	ff 75 d4	 push	 DWORD PTR _p_nDateCheckTime$[ebp]
  0017c	e8 00 00 00 00	 call	 __alldiv
  00181	50		 push	 eax
  00182	8b cb		 mov	 ecx, ebx
  00184	e8 00 00 00 00	 call	 ?IsMarketDay@CTimeRealDataModuleBase@@QAEHH@Z ; CTimeRealDataModuleBase::IsMarketDay

; 1038 : 			if( IsOnMarketDay( p_nTimeRangeStart)) return TRUE;

  00189	85 c0		 test	 eax, eax
  0018b	0f 85 f1 00 00
	00		 jne	 $LN59@GetPrevInt
  00191	8b 55 fc	 mov	 edx, DWORD PTR _nMarketStartTime$[ebp]
  00194	8b 4d f8	 mov	 ecx, DWORD PTR _nMarketEndTime$[ebp]
$LN16@GetPrevInt:

; 1039 : 		}
; 1040 : 		if( nEndTime <= nMarketEndTime || nMarketStartTime < nEndTime) 

  00197	8b 45 ec	 mov	 eax, DWORD PTR _nEndTime$1$[ebp]
  0019a	3b c1		 cmp	 eax, ecx
  0019c	7e 08		 jle	 SHORT $LN18@GetPrevInt
  0019e	3b d0		 cmp	 edx, eax
  001a0	0f 8d bd 00 00
	00		 jge	 $LN55@GetPrevInt
$LN18@GetPrevInt:

; 1041 : 		{
; 1042 : 			if( IsOnMarketDay( p_nTimeRangeEnd)) return TRUE;

  001a6	8b 7d 0c	 mov	 edi, DWORD PTR _p_nTimeRangeEnd$[ebp]
  001a9	8b 07		 mov	 eax, DWORD PTR [edi]
  001ab	8b 4f 04	 mov	 ecx, DWORD PTR [edi+4]
  001ae	89 45 cc	 mov	 DWORD PTR _p_nDateCheckTime$[ebp], eax

; 1073 : 	GetMarketDate_DateTime( p_nDateCheckTime);

  001b1	8d 45 cc	 lea	 eax, DWORD PTR _p_nDateCheckTime$[ebp]

; 1042 : 			if( IsOnMarketDay( p_nTimeRangeEnd)) return TRUE;

  001b4	89 4d d0	 mov	 DWORD PTR _p_nDateCheckTime$[ebp+4], ecx

; 1073 : 	GetMarketDate_DateTime( p_nDateCheckTime);

  001b7	8b cb		 mov	 ecx, ebx
  001b9	50		 push	 eax
  001ba	e8 00 00 00 00	 call	 ?GetMarketDate_DateTime@CTimeRealDataModuleBase@@QBEXAA_J@Z ; CTimeRealDataModuleBase::GetMarketDate_DateTime

; 1074 : 	return IsMarketDay( int( p_nDateCheckTime/ 1000000));

  001bf	6a 00		 push	 0
  001c1	68 40 42 0f 00	 push	 1000000			; 000f4240H
  001c6	ff 75 d0	 push	 DWORD PTR _p_nDateCheckTime$[ebp+4]
  001c9	ff 75 cc	 push	 DWORD PTR _p_nDateCheckTime$[ebp]
$LN60@GetPrevInt:

; 998  : 	for( int i = 0; i <= ( 24 * 60 * 60 * 7) / nIntervalSec; i++)

  001cc	e8 00 00 00 00	 call	 __alldiv
  001d1	50		 push	 eax
  001d2	8b cb		 mov	 ecx, ebx
  001d4	e8 00 00 00 00	 call	 ?IsMarketDay@CTimeRealDataModuleBase@@QAEHH@Z ; CTimeRealDataModuleBase::IsMarketDay
  001d9	85 c0		 test	 eax, eax
  001db	0f 85 a1 00 00
	00		 jne	 $LN59@GetPrevInt
  001e1	e9 80 00 00 00	 jmp	 $LN23@GetPrevInt
$LN12@GetPrevInt:

; 1048 : 		if( nMarketStartTime <= nStartTime && nStartTime < nMarketEndTime)

  001e6	8b 4d fc	 mov	 ecx, DWORD PTR _nMarketStartTime$[ebp]
  001e9	3b c8		 cmp	 ecx, eax
  001eb	7f 3f		 jg	 SHORT $LN52@GetPrevInt
  001ed	3b 45 f8	 cmp	 eax, DWORD PTR _nMarketEndTime$[ebp]
  001f0	7d 3a		 jge	 SHORT $LN52@GetPrevInt

; 1049 : 		{
; 1050 : 			if( IsOnMarketDay( p_nTimeRangeStart)) return TRUE;

  001f2	8b 4d 08	 mov	 ecx, DWORD PTR _p_nTimeRangeStart$[ebp]
  001f5	8b 01		 mov	 eax, DWORD PTR [ecx]
  001f7	8b 49 04	 mov	 ecx, DWORD PTR [ecx+4]
  001fa	89 45 c4	 mov	 DWORD PTR _p_nDateCheckTime$[ebp], eax

; 1073 : 	GetMarketDate_DateTime( p_nDateCheckTime);

  001fd	8d 45 c4	 lea	 eax, DWORD PTR _p_nDateCheckTime$[ebp]

; 1050 : 			if( IsOnMarketDay( p_nTimeRangeStart)) return TRUE;

  00200	89 4d c8	 mov	 DWORD PTR _p_nDateCheckTime$[ebp+4], ecx

; 1073 : 	GetMarketDate_DateTime( p_nDateCheckTime);

  00203	8b cb		 mov	 ecx, ebx
  00205	50		 push	 eax
  00206	e8 00 00 00 00	 call	 ?GetMarketDate_DateTime@CTimeRealDataModuleBase@@QBEXAA_J@Z ; CTimeRealDataModuleBase::GetMarketDate_DateTime

; 1074 : 	return IsMarketDay( int( p_nDateCheckTime/ 1000000));

  0020b	6a 00		 push	 0
  0020d	68 40 42 0f 00	 push	 1000000			; 000f4240H
  00212	ff 75 c8	 push	 DWORD PTR _p_nDateCheckTime$[ebp+4]
  00215	ff 75 c4	 push	 DWORD PTR _p_nDateCheckTime$[ebp]
  00218	e8 00 00 00 00	 call	 __alldiv
  0021d	50		 push	 eax
  0021e	8b cb		 mov	 ecx, ebx
  00220	e8 00 00 00 00	 call	 ?IsMarketDay@CTimeRealDataModuleBase@@QAEHH@Z ; CTimeRealDataModuleBase::IsMarketDay

; 1050 : 			if( IsOnMarketDay( p_nTimeRangeStart)) return TRUE;

  00225	85 c0		 test	 eax, eax
  00227	75 59		 jne	 SHORT $LN59@GetPrevInt

; 1043 : 		}
; 1044 : 		return FALSE;
; 1045 : 	}
; 1046 : 	else
; 1047 : 	{
; 1048 : 		if( nMarketStartTime <= nStartTime && nStartTime < nMarketEndTime)

  00229	8b 4d fc	 mov	 ecx, DWORD PTR _nMarketStartTime$[ebp]
$LN52@GetPrevInt:

; 1051 : 		}
; 1052 : 		if( nMarketStartTime < nEndTime && nEndTime <= nMarketEndTime)

  0022c	8b 45 ec	 mov	 eax, DWORD PTR _nEndTime$1$[ebp]
  0022f	8b 7d 0c	 mov	 edi, DWORD PTR _p_nTimeRangeEnd$[ebp]
  00232	3b c8		 cmp	 ecx, eax
  00234	7d 30		 jge	 SHORT $LN23@GetPrevInt
  00236	3b 45 f8	 cmp	 eax, DWORD PTR _nMarketEndTime$[ebp]
  00239	7f 2b		 jg	 SHORT $LN23@GetPrevInt

; 1053 : 		{
; 1054 : 			if( IsOnMarketDay( p_nTimeRangeEnd)) return TRUE;

  0023b	8b 07		 mov	 eax, DWORD PTR [edi]
  0023d	8b 4f 04	 mov	 ecx, DWORD PTR [edi+4]
  00240	89 45 bc	 mov	 DWORD PTR _p_nDateCheckTime$[ebp], eax

; 1073 : 	GetMarketDate_DateTime( p_nDateCheckTime);

  00243	8d 45 bc	 lea	 eax, DWORD PTR _p_nDateCheckTime$[ebp]

; 1054 : 			if( IsOnMarketDay( p_nTimeRangeEnd)) return TRUE;

  00246	89 4d c0	 mov	 DWORD PTR _p_nDateCheckTime$[ebp+4], ecx

; 1073 : 	GetMarketDate_DateTime( p_nDateCheckTime);

  00249	8b cb		 mov	 ecx, ebx
  0024b	50		 push	 eax
  0024c	e8 00 00 00 00	 call	 ?GetMarketDate_DateTime@CTimeRealDataModuleBase@@QBEXAA_J@Z ; CTimeRealDataModuleBase::GetMarketDate_DateTime

; 1074 : 	return IsMarketDay( int( p_nDateCheckTime/ 1000000));

  00251	6a 00		 push	 0
  00253	68 40 42 0f 00	 push	 1000000			; 000f4240H
  00258	ff 75 c0	 push	 DWORD PTR _p_nDateCheckTime$[ebp+4]
  0025b	ff 75 bc	 push	 DWORD PTR _p_nDateCheckTime$[ebp]

; 1040 : 		if( nEndTime <= nMarketEndTime || nMarketStartTime < nEndTime) 

  0025e	e9 69 ff ff ff	 jmp	 $LN60@GetPrevInt
$LN55@GetPrevInt:
  00263	8b 7d 0c	 mov	 edi, DWORD PTR _p_nTimeRangeEnd$[ebp]
$LN23@GetPrevInt:

; 998  : 	for( int i = 0; i <= ( 24 * 60 * 60 * 7) / nIntervalSec; i++)

  00266	8b 45 e8	 mov	 eax, DWORD PTR _i$1$[ebp]
  00269	40		 inc	 eax
  0026a	89 45 e8	 mov	 DWORD PTR _i$1$[ebp], eax
  0026d	99		 cdq
  0026e	3b 55 e0	 cmp	 edx, DWORD PTR $T2[ebp]
  00271	0f 8c fd fd ff
	ff		 jl	 $LL4@GetPrevInt
  00277	7f 09		 jg	 SHORT $LN59@GetPrevInt
  00279	3b 45 dc	 cmp	 eax, DWORD PTR $T1[ebp]
  0027c	0f 86 f2 fd ff
	ff		 jbe	 $LL4@GetPrevInt
$LN59@GetPrevInt:
  00282	5e		 pop	 esi
  00283	5f		 pop	 edi
$LN54@GetPrevInt:
  00284	5b		 pop	 ebx

; 1017 : 
; 1018 : 		if( IsOnMarketTimeRange( p_nTimeRangeStart, p_nTimeRangeEnd, nStartTime, nEndTime, nMarketStartTime, nMarketEndTime)) return;
; 1019 : 	}
; 1020 : }

  00285	8b e5		 mov	 esp, ebp
  00287	5d		 pop	 ebp
  00288	c2 0c 00	 ret	 12			; 0000000cH
?GetPrevIntervalWithoutOffTime@CTimeRealDataModule@@IAEXAA_J0H@Z ENDP ; CTimeRealDataModule::GetPrevIntervalWithoutOffTime
_TEXT	ENDS
; Function compile flags: /Ogtp
; File D:\git\src\IBK\IBK_DRFN\ProjSrc\SrcChartEx\ChartOCX\PacketData\TimeRealDataModule.cpp
;	COMDAT ?GetNextIntervalWithoutOffTime@CTimeRealDataModule@@IAEHAA_J0H@Z
_TEXT	SEGMENT
_bReturn$2$ = -40					; size = 4
_nEnd$1$ = -36						; size = 4
_nEnd$2$ = -32						; size = 4
_i$2$ = -28						; size = 4
_i$1 = -24						; size = 8
_i$1$ = -20						; size = 4
_nStartTime$ = -16					; size = 4
_nMarketStartTime$ = -12				; size = 4
_nMarketEndTime$ = -8					; size = 4
_this$1$ = -4						; size = 4
_p_nTimeRangeStart$ = 8					; size = 4
_nEndTime$ = 12						; size = 4
_p_nTimeRangeEnd$ = 12					; size = 4
_p_bWithoutOffTime$ = 16				; size = 4
?GetNextIntervalWithoutOffTime@CTimeRealDataModule@@IAEHAA_J0H@Z PROC ; CTimeRealDataModule::GetNextIntervalWithoutOffTime, COMDAT
; _this$ = ecx

; 946  : {

  00000	55		 push	 ebp
  00001	8b ec		 mov	 ebp, esp
  00003	83 ec 28	 sub	 esp, 40			; 00000028H
  00006	53		 push	 ebx
  00007	56		 push	 esi
  00008	57		 push	 edi
  00009	8b d9		 mov	 ebx, ecx

; 947  : 	// X ScaleManager   Scale   / .
; 948  : 	BOOL bReturn = TRUE;
; 949  : 	int nMarketStartTime = -1, nMarketEndTime = -1;

  0000b	c7 45 f4 ff ff
	ff ff		 mov	 DWORD PTR _nMarketStartTime$[ebp], -1

; 950  : 	if( !m_marketTimeData.GetMarketTime( nMarketStartTime, nMarketEndTime))

  00012	8d 45 f8	 lea	 eax, DWORD PTR _nMarketEndTime$[ebp]
  00015	89 5d fc	 mov	 DWORD PTR _this$1$[ebp], ebx
  00018	50		 push	 eax
  00019	8d 45 f4	 lea	 eax, DWORD PTR _nMarketStartTime$[ebp]
  0001c	c7 45 f8 ff ff
	ff ff		 mov	 DWORD PTR _nMarketEndTime$[ebp], -1
  00023	8b 4b 54	 mov	 ecx, DWORD PTR [ebx+84]
  00026	be 01 00 00 00	 mov	 esi, 1
  0002b	50		 push	 eax
  0002c	e8 00 00 00 00	 call	 ?GetMarketTime@CMarketTimeData@@QBE_NAAH0@Z ; CMarketTimeData::GetMarketTime
  00031	33 c9		 xor	 ecx, ecx
  00033	84 c0		 test	 al, al

; 951  : 		bReturn = FALSE;
; 952  : 
; 953  : 	int nStartTime = -1, nEndTime = -1;
; 954  : 	__int64 nIntervalSec = GetTimeIntervalWithSecond();

  00035	8b 03		 mov	 eax, DWORD PTR [ebx]
  00037	0f 44 f1	 cmove	 esi, ecx
  0003a	8b cb		 mov	 ecx, ebx
  0003c	89 75 d8	 mov	 DWORD PTR _bReturn$2$[ebp], esi
  0003f	8b 40 14	 mov	 eax, DWORD PTR [eax+20]
  00042	ff d0		 call	 eax

; 955  : 	__int64 nEnd = ( 24 * 60 * 60 * 7) / nIntervalSec;

  00044	52		 push	 edx
  00045	50		 push	 eax
  00046	6a 00		 push	 0
  00048	68 80 3a 09 00	 push	 604800			; 00093a80H
  0004d	e8 00 00 00 00	 call	 __alldiv
  00052	8b ca		 mov	 ecx, edx
  00054	89 45 dc	 mov	 DWORD PTR _nEnd$1$[ebp], eax
  00057	89 4d e0	 mov	 DWORD PTR _nEnd$2$[ebp], ecx
  0005a	0f 57 c0	 xorps	 xmm0, xmm0

; 956  : 	for( __int64 i = 0; i <= nEnd; i++)

  0005d	66 0f 13 45 e8	 movlpd	 QWORD PTR _i$1[ebp], xmm0
  00062	85 c9		 test	 ecx, ecx
  00064	0f 8c 00 01 00
	00		 jl	 $LN3@GetNextInt
  0006a	7f 08		 jg	 SHORT $LN21@GetNextInt
  0006c	85 c0		 test	 eax, eax
  0006e	0f 82 f6 00 00
	00		 jb	 $LN3@GetNextInt
$LN21@GetNextInt:
  00074	8b 45 ec	 mov	 eax, DWORD PTR _i$1[ebp+4]
  00077	8b 75 0c	 mov	 esi, DWORD PTR _p_nTimeRangeEnd$[ebp]
  0007a	8b 7d 08	 mov	 edi, DWORD PTR _p_nTimeRangeStart$[ebp]
  0007d	89 45 e4	 mov	 DWORD PTR _i$2$[ebp], eax
  00080	8b 45 e8	 mov	 eax, DWORD PTR _i$1[ebp]
  00083	89 45 ec	 mov	 DWORD PTR _i$1$[ebp], eax
$LL4@GetNextInt:

; 957  : 	{
; 958  : 		p_nTimeRangeStart = p_nTimeRangeEnd;

  00086	8b 06		 mov	 eax, DWORD PTR [esi]
  00088	8b 4e 04	 mov	 ecx, DWORD PTR [esi+4]
  0008b	89 07		 mov	 DWORD PTR [edi], eax
  0008d	89 4f 04	 mov	 DWORD PTR [edi+4], ecx

; 959  : 		p_nTimeRangeEnd = CDataConversion::CalcTimeSum( p_nTimeRangeEnd, m_nTimeInterval);

  00090	6a 00		 push	 0
  00092	ff b3 a4 00 00
	00		 push	 DWORD PTR [ebx+164]
  00098	ff b3 a0 00 00
	00		 push	 DWORD PTR [ebx+160]
  0009e	ff 76 04	 push	 DWORD PTR [esi+4]
  000a1	ff 36		 push	 DWORD PTR [esi]
  000a3	e8 00 00 00 00	 call	 ?CalcTimeSum@CDataConversion@@SA_J_J0H@Z ; CDataConversion::CalcTimeSum
  000a8	83 c4 14	 add	 esp, 20			; 00000014H
  000ab	89 06		 mov	 DWORD PTR [esi], eax
  000ad	89 56 04	 mov	 DWORD PTR [esi+4], edx

; 960  : 
; 961  : 		// (2009/11/16 - Seung-Won, Bae)    m_nNewRangeStartTime  .
; 962  : 		nStartTime = int( p_nTimeRangeStart % 1000000);

  000b0	6a 00		 push	 0
  000b2	68 40 42 0f 00	 push	 1000000			; 000f4240H
  000b7	ff 77 04	 push	 DWORD PTR [edi+4]
  000ba	ff 37		 push	 DWORD PTR [edi]
  000bc	e8 00 00 00 00	 call	 __allrem

; 963  : 		nEndTime = int( p_nTimeRangeEnd % 1000000);

  000c1	8b 5e 04	 mov	 ebx, DWORD PTR [esi+4]
  000c4	8b 3e		 mov	 edi, DWORD PTR [esi]
  000c6	6a 00		 push	 0
  000c8	68 40 42 0f 00	 push	 1000000			; 000f4240H
  000cd	53		 push	 ebx
  000ce	57		 push	 edi
  000cf	89 45 f0	 mov	 DWORD PTR _nStartTime$[ebp], eax
  000d2	e8 00 00 00 00	 call	 __allrem
  000d7	8b 55 f0	 mov	 edx, DWORD PTR _nStartTime$[ebp]
  000da	8b c8		 mov	 ecx, eax
  000dc	8b 45 fc	 mov	 eax, DWORD PTR _this$1$[ebp]
  000df	89 4d 0c	 mov	 DWORD PTR _nEndTime$[ebp], ecx
  000e2	8b 40 50	 mov	 eax, DWORD PTR [eax+80]
  000e5	3b ca		 cmp	 ecx, edx

; 964  : 		if( nEndTime < nStartTime)

  000e7	7d 08		 jge	 SHORT $LN6@GetNextInt

; 965  : 		{
; 966  : 			if( m_nNewRangeStartTime < nEndTime || nStartTime < m_nNewRangeStartTime)

  000e9	3b c1		 cmp	 eax, ecx
  000eb	7c 0c		 jl	 SHORT $LN19@GetNextInt
  000ed	3b d0		 cmp	 edx, eax

; 967  : 			{
; 968  : 				p_nTimeRangeEnd -= nEndTime;
; 969  : 				nEndTime = m_nNewRangeStartTime;
; 970  : 				p_nTimeRangeEnd += nEndTime;
; 971  : 			}
; 972  : 		}

  000ef	eb 06		 jmp	 SHORT $LN23@GetNextInt
$LN6@GetNextInt:

; 973  : 		else
; 974  : 		{
; 975  : 			if( nStartTime < m_nNewRangeStartTime && m_nNewRangeStartTime < nEndTime)

  000f1	3b d0		 cmp	 edx, eax
  000f3	7d 23		 jge	 SHORT $LN10@GetNextInt
  000f5	3b c1		 cmp	 eax, ecx
$LN23@GetNextInt:

; 976  : 			{
; 977  : 				p_nTimeRangeEnd -= nEndTime;
; 978  : 				nEndTime = m_nNewRangeStartTime;
; 979  : 				p_nTimeRangeEnd += nEndTime;
; 980  : 			}
; 981  : 		}
; 982  : 
; 983  : 		if( !p_bWithoutOffTime) return TRUE;

  000f7	7d 1f		 jge	 SHORT $LN10@GetNextInt
$LN19@GetNextInt:
  000f9	8b c1		 mov	 eax, ecx
  000fb	99		 cdq
  000fc	2b f8		 sub	 edi, eax
  000fe	8b 45 fc	 mov	 eax, DWORD PTR _this$1$[ebp]
  00101	89 3e		 mov	 DWORD PTR [esi], edi
  00103	1b da		 sbb	 ebx, edx
  00105	89 5e 04	 mov	 DWORD PTR [esi+4], ebx
  00108	8b 40 50	 mov	 eax, DWORD PTR [eax+80]
  0010b	89 45 0c	 mov	 DWORD PTR _nEndTime$[ebp], eax
  0010e	99		 cdq
  0010f	03 c7		 add	 eax, edi
  00111	89 06		 mov	 DWORD PTR [esi], eax
  00113	13 d3		 adc	 edx, ebx
  00115	89 56 04	 mov	 DWORD PTR [esi+4], edx
$LN10@GetNextInt:
  00118	83 7d 10 00	 cmp	 DWORD PTR _p_bWithoutOffTime$[ebp], 0
  0011c	74 57		 je	 SHORT $LN16@GetNextInt

; 984  : 
; 985  : 		if( IsOnMarketTimeRange( p_nTimeRangeStart, p_nTimeRangeEnd, nStartTime, nEndTime, nMarketStartTime, nMarketEndTime)) return TRUE;

  0011e	8b 7d 08	 mov	 edi, DWORD PTR _p_nTimeRangeStart$[ebp]
  00121	8d 45 f8	 lea	 eax, DWORD PTR _nMarketEndTime$[ebp]
  00124	8b 5d fc	 mov	 ebx, DWORD PTR _this$1$[ebp]
  00127	8b cb		 mov	 ecx, ebx
  00129	50		 push	 eax
  0012a	8d 45 f4	 lea	 eax, DWORD PTR _nMarketStartTime$[ebp]
  0012d	50		 push	 eax
  0012e	8d 45 0c	 lea	 eax, DWORD PTR _nEndTime$[ebp]
  00131	50		 push	 eax
  00132	8d 45 f0	 lea	 eax, DWORD PTR _nStartTime$[ebp]
  00135	50		 push	 eax
  00136	56		 push	 esi
  00137	57		 push	 edi
  00138	e8 00 00 00 00	 call	 ?IsOnMarketTimeRange@CTimeRealDataModule@@IAEHAB_J0ABH111@Z ; CTimeRealDataModule::IsOnMarketTimeRange
  0013d	85 c0		 test	 eax, eax
  0013f	75 34		 jne	 SHORT $LN16@GetNextInt

; 956  : 	for( __int64 i = 0; i <= nEnd; i++)

  00141	8b 45 ec	 mov	 eax, DWORD PTR _i$1$[ebp]
  00144	8b 4d e4	 mov	 ecx, DWORD PTR _i$2$[ebp]
  00147	83 c0 01	 add	 eax, 1
  0014a	89 45 ec	 mov	 DWORD PTR _i$1$[ebp], eax
  0014d	83 d1 00	 adc	 ecx, 0
  00150	89 4d e4	 mov	 DWORD PTR _i$2$[ebp], ecx
  00153	3b 4d e0	 cmp	 ecx, DWORD PTR _nEnd$2$[ebp]
  00156	0f 8c 2a ff ff
	ff		 jl	 $LL4@GetNextInt
  0015c	7f 09		 jg	 SHORT $LN22@GetNextInt
  0015e	3b 45 dc	 cmp	 eax, DWORD PTR _nEnd$1$[ebp]
  00161	0f 86 1f ff ff
	ff		 jbe	 $LL4@GetNextInt
$LN22@GetNextInt:

; 984  : 
; 985  : 		if( IsOnMarketTimeRange( p_nTimeRangeStart, p_nTimeRangeEnd, nStartTime, nEndTime, nMarketStartTime, nMarketEndTime)) return TRUE;

  00167	8b 75 d8	 mov	 esi, DWORD PTR _bReturn$2$[ebp]
$LN3@GetNextInt:
  0016a	5f		 pop	 edi

; 986  : 	}
; 987  : 	return bReturn; 

  0016b	8b c6		 mov	 eax, esi

; 988  : }

  0016d	5e		 pop	 esi
  0016e	5b		 pop	 ebx
  0016f	8b e5		 mov	 esp, ebp
  00171	5d		 pop	 ebp
  00172	c2 0c 00	 ret	 12			; 0000000cH
$LN16@GetNextInt:
  00175	5f		 pop	 edi
  00176	5e		 pop	 esi
  00177	b8 01 00 00 00	 mov	 eax, 1
  0017c	5b		 pop	 ebx
  0017d	8b e5		 mov	 esp, ebp
  0017f	5d		 pop	 ebp
  00180	c2 0c 00	 ret	 12			; 0000000cH
?GetNextIntervalWithoutOffTime@CTimeRealDataModule@@IAEHAA_J0H@Z ENDP ; CTimeRealDataModule::GetNextIntervalWithoutOffTime
_TEXT	ENDS
; Function compile flags: /Ogtp
; File D:\git\src\IBK\IBK_DRFN\ProjSrc\SrcChartEx\ChartOCX\PacketData\TimeRealDataModule.cpp
;	COMDAT ?GetRealData_CloseTime_AppendOrUpdate2@CTimeRealDataModule@@IAE_NPAVCPacket@@AB_J1AA_J@Z
_TEXT	SEGMENT
_nNewTimeRangeStart$ = -16				; size = 8
_nNewTimeRangeEnd$ = -8					; size = 8
_pPacket$ = 8						; size = 4
_nUpdateSec$1$ = 12					; size = 4
_nCheckTime$ = 12					; size = 4
_nDiff$1$ = 16						; size = 4
_nUpdateTime$ = 16					; size = 4
_p_nRealDataTime$ = 20					; size = 4
?GetRealData_CloseTime_AppendOrUpdate2@CTimeRealDataModule@@IAE_NPAVCPacket@@AB_J1AA_J@Z PROC ; CTimeRealDataModule::GetRealData_CloseTime_AppendOrUpdate2, COMDAT
; _this$ = ecx

; 893  : {

  00000	55		 push	 ebp
  00001	8b ec		 mov	 ebp, esp
  00003	83 ec 10	 sub	 esp, 16			; 00000010H
  00006	53		 push	 ebx
  00007	56		 push	 esi

; 894  : 	if( nCheckTime <= 0 || nUpdateTime <= 0) return  false;

  00008	8b 75 0c	 mov	 esi, DWORD PTR _nCheckTime$[ebp]
  0000b	57		 push	 edi
  0000c	8b f9		 mov	 edi, ecx
  0000e	83 7e 04 00	 cmp	 DWORD PTR [esi+4], 0
  00012	7c 6a		 jl	 SHORT $LN3@GetRealDat
  00014	7f 05		 jg	 SHORT $LN12@GetRealDat
  00016	83 3e 00	 cmp	 DWORD PTR [esi], 0
  00019	76 63		 jbe	 SHORT $LN3@GetRealDat
$LN12@GetRealDat:
  0001b	8b 5d 10	 mov	 ebx, DWORD PTR _nUpdateTime$[ebp]
  0001e	83 7b 04 00	 cmp	 DWORD PTR [ebx+4], 0
  00022	7c 5a		 jl	 SHORT $LN3@GetRealDat
  00024	7f 05		 jg	 SHORT $LN13@GetRealDat
  00026	83 3b 00	 cmp	 DWORD PTR [ebx], 0
  00029	76 53		 jbe	 SHORT $LN3@GetRealDat
$LN13@GetRealDat:

; 895  : 
; 896  : 	// (2009/11/13 - Seung-Won, Bae)  , CLOCK    ,
; 897  : 	//		    .
; 898  : 	//	 (m_bCloseEmptyCandleWhenEnd:FALSE)      ,
; 899  : 	//														(    )
; 900  : 	//		 ,      Data  ,
; 901  : 	//		   Logic     ,
; 902  : 	//		     .
; 903  : 	//   (m_bCloseEmptyCandleWhenEnd:TRUE)        ,
; 904  : 	//			(   .    -1       .)
; 905  : 	//		 ,          Data  ,
; 906  : 	//		   Logic     ,
; 907  : 	//		     .
; 908  : 	// (2009/11/18 - Seung-Won, Bae)  
; 909  : 	//		1. 
; 910  : 	//		2. 
; 911  : 	//	 GetNextIntervalWithoutOffTime() GetPrevIntervalWithoutOffTime()    .
; 912  : 	//	  RollBack   .
; 913  : 	//	!     (      )   .
; 914  : 	__int64 nNewTimeRangeStart = m_nTimeRangeStart;
; 915  : 	__int64 nNewTimeRangeEnd = m_nTimeRangeEnd;
; 916  : 
; 917  : 	// /      ,   .
; 918  : 	if( m_bCloseEmptyCandleWhenEnd)

  0002b	83 7f 5c 00	 cmp	 DWORD PTR [edi+92], 0
  0002f	8b 87 b0 00 00
	00		 mov	 eax, DWORD PTR [edi+176]
  00035	8b 8f b4 00 00
	00		 mov	 ecx, DWORD PTR [edi+180]
  0003b	89 45 f0	 mov	 DWORD PTR _nNewTimeRangeStart$[ebp], eax
  0003e	8b 87 b8 00 00
	00		 mov	 eax, DWORD PTR [edi+184]
  00044	89 4d f4	 mov	 DWORD PTR _nNewTimeRangeStart$[ebp+4], ecx
  00047	8b 8f bc 00 00
	00		 mov	 ecx, DWORD PTR [edi+188]
  0004d	89 45 f8	 mov	 DWORD PTR _nNewTimeRangeEnd$[ebp], eax
  00050	89 4d fc	 mov	 DWORD PTR _nNewTimeRangeEnd$[ebp+4], ecx
  00053	74 34		 je	 SHORT $LN4@GetRealDat

; 919  : 	{
; 920  : 		//   CLOCK      .       .
; 921  : 		if( 0 <= m_nClockedDataCount) GetNextIntervalWithoutOffTime( nNewTimeRangeStart, nNewTimeRangeEnd);

  00055	83 7f 40 00	 cmp	 DWORD PTR [edi+64], 0
  00059	7c 11		 jl	 SHORT $LN6@GetRealDat
  0005b	6a 01		 push	 1
  0005d	8d 45 f8	 lea	 eax, DWORD PTR _nNewTimeRangeEnd$[ebp]
  00060	8b cf		 mov	 ecx, edi
  00062	50		 push	 eax
  00063	8d 45 f0	 lea	 eax, DWORD PTR _nNewTimeRangeStart$[ebp]
  00066	50		 push	 eax
  00067	e8 00 00 00 00	 call	 ?GetNextIntervalWithoutOffTime@CTimeRealDataModule@@IAEHAA_J0H@Z ; CTimeRealDataModule::GetNextIntervalWithoutOffTime
$LN6@GetRealDat:

; 922  : 		//     .    .
; 923  : 		if( !IsTimeAdd( nCheckTime, nNewTimeRangeEnd))	return false;

  0006c	8b 07		 mov	 eax, DWORD PTR [edi]
  0006e	8d 4d f8	 lea	 ecx, DWORD PTR _nNewTimeRangeEnd$[ebp]
  00071	51		 push	 ecx
  00072	56		 push	 esi
  00073	8b cf		 mov	 ecx, edi
  00075	8b 40 1c	 mov	 eax, DWORD PTR [eax+28]
  00078	ff d0		 call	 eax
  0007a	84 c0		 test	 al, al
  0007c	75 2e		 jne	 SHORT $LN8@GetRealDat
$LN3@GetRealDat:
  0007e	5f		 pop	 edi

; 943  : }

  0007f	5e		 pop	 esi
  00080	32 c0		 xor	 al, al
  00082	5b		 pop	 ebx
  00083	8b e5		 mov	 esp, ebp
  00085	5d		 pop	 ebp
  00086	c2 10 00	 ret	 16			; 00000010H
$LN4@GetRealDat:

; 924  : 	}
; 925  : 	else
; 926  : 	{
; 927  : 		//        .
; 928  : 		GetNextIntervalWithoutOffTime( nNewTimeRangeStart, nNewTimeRangeEnd);

  00089	6a 01		 push	 1
  0008b	8d 45 f8	 lea	 eax, DWORD PTR _nNewTimeRangeEnd$[ebp]
  0008e	8b cf		 mov	 ecx, edi
  00090	50		 push	 eax
  00091	8d 45 f0	 lea	 eax, DWORD PTR _nNewTimeRangeStart$[ebp]
  00094	50		 push	 eax
  00095	e8 00 00 00 00	 call	 ?GetNextIntervalWithoutOffTime@CTimeRealDataModule@@IAEHAA_J0H@Z ; CTimeRealDataModule::GetNextIntervalWithoutOffTime

; 929  : 		if( !IsTimeAdd( nCheckTime, nNewTimeRangeStart)) return false;

  0009a	8b 07		 mov	 eax, DWORD PTR [edi]
  0009c	8d 4d f0	 lea	 ecx, DWORD PTR _nNewTimeRangeStart$[ebp]
  0009f	51		 push	 ecx
  000a0	56		 push	 esi
  000a1	8b cf		 mov	 ecx, edi
  000a3	8b 40 1c	 mov	 eax, DWORD PTR [eax+28]
  000a6	ff d0		 call	 eax
  000a8	84 c0		 test	 al, al
  000aa	74 d2		 je	 SHORT $LN3@GetRealDat
$LN8@GetRealDat:

; 930  : 	}
; 931  : 
; 932  : 	//    .
; 933  : 	__int64 nUpdateSec = CDataConversion::GetSecond( nUpdateTime, TRUE);

  000ac	6a 01		 push	 1
  000ae	ff 73 04	 push	 DWORD PTR [ebx+4]
  000b1	ff 33		 push	 DWORD PTR [ebx]
  000b3	e8 00 00 00 00	 call	 ?GetSecond@CDataConversion@@SA_J_JH@Z ; CDataConversion::GetSecond

; 934  : 	__int64 nCloseSec = CDataConversion::GetSecond( GetCloseTime( nNewTimeRangeStart, nNewTimeRangeEnd), TRUE);

  000b8	8b 37		 mov	 esi, DWORD PTR [edi]
  000ba	83 c4 0c	 add	 esp, 12			; 0000000cH
  000bd	8b d8		 mov	 ebx, eax
  000bf	89 55 0c	 mov	 DWORD PTR _nUpdateSec$1$[ebp], edx
  000c2	8d 45 f8	 lea	 eax, DWORD PTR _nNewTimeRangeEnd$[ebp]
  000c5	8b cf		 mov	 ecx, edi
  000c7	8b 76 24	 mov	 esi, DWORD PTR [esi+36]
  000ca	6a 01		 push	 1
  000cc	50		 push	 eax
  000cd	8d 45 f0	 lea	 eax, DWORD PTR _nNewTimeRangeStart$[ebp]
  000d0	50		 push	 eax
  000d1	ff d6		 call	 esi
  000d3	52		 push	 edx
  000d4	50		 push	 eax
  000d5	e8 00 00 00 00	 call	 ?GetSecond@CDataConversion@@SA_J_JH@Z ; CDataConversion::GetSecond

; 935  : 	if( nUpdateSec < nCloseSec && !m_ttcTrPacket.IsYearInPacketType())

  000da	8b 4d 0c	 mov	 ecx, DWORD PTR _nUpdateSec$1$[ebp]
  000dd	8b f0		 mov	 esi, eax
  000df	8b c2		 mov	 eax, edx
  000e1	83 c4 0c	 add	 esp, 12			; 0000000cH
  000e4	89 45 10	 mov	 DWORD PTR _nDiff$1$[ebp], eax
  000e7	3b c8		 cmp	 ecx, eax
  000e9	7f 27		 jg	 SHORT $LN9@GetRealDat
  000eb	7c 04		 jl	 SHORT $LN14@GetRealDat
  000ed	3b de		 cmp	 ebx, esi
  000ef	73 21		 jae	 SHORT $LN9@GetRealDat
$LN14@GetRealDat:
  000f1	83 7f 14 00	 cmp	 DWORD PTR [edi+20], 0
  000f5	75 1b		 jne	 SHORT $LN9@GetRealDat

; 936  : 		nUpdateSec += CDataConversion::GetSecond( m_ttcTrPacket.GetRotationFullTime());

  000f7	6a 00		 push	 0
  000f9	ff 77 34	 push	 DWORD PTR [edi+52]
  000fc	ff 77 30	 push	 DWORD PTR [edi+48]
  000ff	e8 00 00 00 00	 call	 ?GetSecond@CDataConversion@@SA_J_JH@Z ; CDataConversion::GetSecond
  00104	83 c4 0c	 add	 esp, 12			; 0000000cH
  00107	03 d8		 add	 ebx, eax
  00109	8b 45 10	 mov	 eax, DWORD PTR _nDiff$1$[ebp]
  0010c	11 55 0c	 adc	 DWORD PTR _nUpdateSec$1$[ebp], edx
  0010f	8b 4d 0c	 mov	 ecx, DWORD PTR _nUpdateSec$1$[ebp]
$LN9@GetRealDat:

; 937  : 	__int64 nDiff = nCloseSec - nUpdateSec;

  00112	2b f3		 sub	 esi, ebx
  00114	1b c1		 sbb	 eax, ecx

; 938  : 
; 939  : 	if( nDiff < -60 * 60 * 24) return false;

  00116	83 f8 ff	 cmp	 eax, -1
  00119	0f 8c 5f ff ff
	ff		 jl	 $LN3@GetRealDat
  0011f	7f 0c		 jg	 SHORT $LN15@GetRealDat
  00121	81 fe 80 ae fe
	ff		 cmp	 esi, -86400		; fffeae80H
  00127	0f 82 51 ff ff
	ff		 jb	 $LN3@GetRealDat
$LN15@GetRealDat:

; 940  : 
; 941  : 	p_nRealDataTime = CDataConversion::CalcTimeSum( p_nRealDataTime, nDiff, TRUE);

  0012d	6a 01		 push	 1
  0012f	50		 push	 eax
  00130	56		 push	 esi
  00131	8b 75 14	 mov	 esi, DWORD PTR _p_nRealDataTime$[ebp]
  00134	ff 76 04	 push	 DWORD PTR [esi+4]
  00137	ff 36		 push	 DWORD PTR [esi]
  00139	e8 00 00 00 00	 call	 ?CalcTimeSum@CDataConversion@@SA_J_J0H@Z ; CDataConversion::CalcTimeSum
  0013e	83 c4 14	 add	 esp, 20			; 00000014H
  00141	89 06		 mov	 DWORD PTR [esi], eax
  00143	89 56 04	 mov	 DWORD PTR [esi+4], edx

; 942  : 	return true;

  00146	b0 01		 mov	 al, 1
  00148	5f		 pop	 edi

; 943  : }

  00149	5e		 pop	 esi
  0014a	5b		 pop	 ebx
  0014b	8b e5		 mov	 esp, ebp
  0014d	5d		 pop	 ebp
  0014e	c2 10 00	 ret	 16			; 00000010H
?GetRealData_CloseTime_AppendOrUpdate2@CTimeRealDataModule@@IAE_NPAVCPacket@@AB_J1AA_J@Z ENDP ; CTimeRealDataModule::GetRealData_CloseTime_AppendOrUpdate2
_TEXT	ENDS
; Function compile flags: /Ogtp
; File D:\git\src\IBK\IBK_DRFN\ProjSrc\SrcChartEx\ChartOCX\PacketData\TimeRealDataModule.cpp
; File C:\Program Files (x86)\Microsoft Visual Studio\2019\Community\VC\Tools\MSVC\14.29.30133\atlmfc\include\atlsimpstr.h
; File D:\git\src\IBK\IBK_DRFN\ProjSrc\SrcChartEx\ChartOCX\PacketData\TimeRealDataModule.cpp
; File C:\Program Files (x86)\Microsoft Visual Studio\2019\Community\VC\Tools\MSVC\14.29.30133\atlmfc\include\cstringt.h
; File D:\git\src\IBK\IBK_DRFN\ProjSrc\SrcChartEx\ChartOCX\PacketData\TimeRealDataModule.cpp
; File C:\Program Files (x86)\Microsoft Visual Studio\2019\Community\VC\Tools\MSVC\14.29.30133\atlmfc\include\cstringt.h
; File D:\git\src\IBK\IBK_DRFN\ProjSrc\SrcChartEx\ChartOCX\PacketData\TimeRealDataModule.cpp
;	COMDAT ?GetRealData_CloseTime@CTimeRealDataModule@@MAE_NPAVCPacket@@AA_J@Z
_TEXT	SEGMENT
_nFloorTime$ = -40					; size = 8
_nCeilTime$ = -32					; size = 8
tv185 = -24						; size = 4
_nMod$2$ = -20						; size = 4
_nMinimumUnitTime$1$ = -16				; size = 4
_nMinimumUnitTime$2$ = -12				; size = 4
_nMod$1$ = -8						; size = 4
_nCeilTime$2$ = -4					; size = 4
_pPacket$ = 8						; size = 4
_p_nRealDataTime$ = 12					; size = 4
?GetRealData_CloseTime@CTimeRealDataModule@@MAE_NPAVCPacket@@AA_J@Z PROC ; CTimeRealDataModule::GetRealData_CloseTime, COMDAT
; _this$ = ecx

; 851  : {

  00000	55		 push	 ebp
  00001	8b ec		 mov	 ebp, esp
  00003	83 ec 28	 sub	 esp, 40			; 00000028H
  00006	56		 push	 esi
  00007	57		 push	 edi
  00008	8b f9		 mov	 edi, ecx
; File C:\Program Files (x86)\Microsoft Visual Studio\2019\Community\VC\Tools\MSVC\14.29.30133\atlmfc\include\atlsimpstr.h

; 533  : 		return( GetLength() == 0 );

  0000a	8b 47 10	 mov	 eax, DWORD PTR [edi+16]

; 800  : 		return( reinterpret_cast< CStringData* >( m_pszData )-1 );

  0000d	8d 4f 10	 lea	 ecx, DWORD PTR [edi+16]

; 533  : 		return( GetLength() == 0 );

  00010	83 78 f4 00	 cmp	 DWORD PTR [eax-12], 0
; File D:\git\src\IBK\IBK_DRFN\ProjSrc\SrcChartEx\ChartOCX\PacketData\TimeRealDataModule.cpp

; 852  : 	if( m_ttcTrPacket.GetPacketType().IsEmpty() || m_nTimeRangeEnd <= 0 || !m_bMarketOn) 

  00014	0f 84 58 01 00
	00		 je	 $LN3@GetRealDat
  0001a	83 bf bc 00 00
	00 00		 cmp	 DWORD PTR [edi+188], 0
  00021	0f 8c 4b 01 00
	00		 jl	 $LN3@GetRealDat
  00027	7f 0d		 jg	 SHORT $LN19@GetRealDat
  00029	83 bf b8 00 00
	00 00		 cmp	 DWORD PTR [edi+184], 0
  00030	0f 86 3c 01 00
	00		 jbe	 $LN3@GetRealDat
$LN19@GetRealDat:
  00036	83 bf c4 00 00
	00 00		 cmp	 DWORD PTR [edi+196], 0
  0003d	0f 84 2f 01 00
	00		 je	 $LN3@GetRealDat

; 860  : 	__int64	nMinimumUnitTime = m_ttcTrPacket.GetMinimumUnitTime();

  00043	8b 77 38	 mov	 esi, DWORD PTR [edi+56]
  00046	8b 47 3c	 mov	 eax, DWORD PTR [edi+60]
; File C:\Program Files (x86)\Microsoft Visual Studio\2019\Community\VC\Tools\MSVC\14.29.30133\atlmfc\include\cstringt.h

; 2486 : 		return(str1.Compare(psz2) == 0);

  00049	68 00 00 00 00	 push	 OFFSET ??_C@_0P@IMPIBBAB@YYYYMMDDHHMMSS@
; File D:\git\src\IBK\IBK_DRFN\ProjSrc\SrcChartEx\ChartOCX\PacketData\TimeRealDataModule.cpp

; 860  : 	__int64	nMinimumUnitTime = m_ttcTrPacket.GetMinimumUnitTime();

  0004e	89 75 f0	 mov	 DWORD PTR _nMinimumUnitTime$1$[ebp], esi
  00051	89 45 f4	 mov	 DWORD PTR _nMinimumUnitTime$2$[ebp], eax
; File C:\Program Files (x86)\Microsoft Visual Studio\2019\Community\VC\Tools\MSVC\14.29.30133\atlmfc\include\cstringt.h

; 2486 : 		return(str1.Compare(psz2) == 0);

  00054	ff 15 00 00 00
	00		 call	 DWORD PTR __imp_?Compare@?$CStringT@DV?$StrTraitMFC_DLL@DV?$ChTraitsCRT@D@ATL@@@@@ATL@@QBEHPBD@Z
  0005a	85 c0		 test	 eax, eax
; File D:\git\src\IBK\IBK_DRFN\ProjSrc\SrcChartEx\ChartOCX\PacketData\TimeRealDataModule.cpp

; 861  : 	if (m_ttcTrPacket.GetPacketType() == _T("YYYYMMDDHHMMSS"))

  0005c	75 0b		 jne	 SHORT $LN4@GetRealDat

; 862  : 		nMinimumUnitTime = 100;	

  0005e	be 64 00 00 00	 mov	 esi, 100		; 00000064H
  00063	89 45 f4	 mov	 DWORD PTR _nMinimumUnitTime$2$[ebp], eax
  00066	89 75 f0	 mov	 DWORD PTR _nMinimumUnitTime$1$[ebp], esi
$LN4@GetRealDat:

; 863  : 	__int64 nMod = p_nRealDataTime % nMinimumUnitTime;

  00069	8b 45 0c	 mov	 eax, DWORD PTR _p_nRealDataTime$[ebp]
  0006c	53		 push	 ebx
  0006d	ff 75 f4	 push	 DWORD PTR _nMinimumUnitTime$2$[ebp]
  00070	8b 18		 mov	 ebx, DWORD PTR [eax]
  00072	8b 40 04	 mov	 eax, DWORD PTR [eax+4]
  00075	56		 push	 esi
  00076	50		 push	 eax
  00077	53		 push	 ebx
  00078	89 45 fc	 mov	 DWORD PTR _nCeilTime$2$[ebp], eax
  0007b	e8 00 00 00 00	 call	 __allrem

; 864  : 	// 2011.01.18 by SYS <<
; 865  : 
; 866  : 	__int64 nFloorTime = p_nRealDataTime - nMod;
; 867  : 	__int64 nCeilTime = p_nRealDataTime;
; 868  : 	// 01    .
; 869  : 	// 09:00:00   1   09:00:00  1 ()
; 870  : 	if( p_nRealDataTime % 1000000 == m_nMarketStartTime
; 871  : 		|| ( 0 == p_nRealDataTime % 100 && GetRealType() == CPacketType::CEILING2)
; 872  : 		|| 0 != nMod)

  00080	6a 00		 push	 0
  00082	89 45 f8	 mov	 DWORD PTR _nMod$1$[ebp], eax
  00085	8b f3		 mov	 esi, ebx
  00087	2b f0		 sub	 esi, eax
  00089	89 55 ec	 mov	 DWORD PTR _nMod$2$[ebp], edx
  0008c	8b 45 fc	 mov	 eax, DWORD PTR _nCeilTime$2$[ebp]
  0008f	8b c8		 mov	 ecx, eax
  00091	68 40 42 0f 00	 push	 1000000			; 000f4240H
  00096	ff 75 fc	 push	 DWORD PTR _nCeilTime$2$[ebp]
  00099	89 45 e4	 mov	 DWORD PTR _nCeilTime$[ebp+4], eax
  0009c	1b ca		 sbb	 ecx, edx
  0009e	8b 87 a8 00 00
	00		 mov	 eax, DWORD PTR [edi+168]
  000a4	99		 cdq
  000a5	89 75 d8	 mov	 DWORD PTR _nFloorTime$[ebp], esi
  000a8	8b f0		 mov	 esi, eax
  000aa	53		 push	 ebx
  000ab	89 4d dc	 mov	 DWORD PTR _nFloorTime$[ebp+4], ecx
  000ae	89 5d e0	 mov	 DWORD PTR _nCeilTime$[ebp], ebx
  000b1	89 55 e8	 mov	 DWORD PTR tv185[ebp], edx
  000b4	e8 00 00 00 00	 call	 __allrem
  000b9	3b c6		 cmp	 eax, esi
  000bb	75 05		 jne	 SHORT $LN20@GetRealDat
  000bd	3b 55 e8	 cmp	 edx, DWORD PTR tv185[ebp]
  000c0	74 3d		 je	 SHORT $LN25@GetRealDat
$LN20@GetRealDat:
  000c2	6a 00		 push	 0
  000c4	6a 64		 push	 100			; 00000064H
  000c6	ff 75 fc	 push	 DWORD PTR _nCeilTime$2$[ebp]
  000c9	53		 push	 ebx
  000ca	e8 00 00 00 00	 call	 __allrem
  000cf	85 c0		 test	 eax, eax
  000d1	0f 85 88 00 00
	00		 jne	 $LN24@GetRealDat
  000d7	85 d2		 test	 edx, edx
  000d9	0f 85 80 00 00
	00		 jne	 $LN24@GetRealDat
  000df	8b 07		 mov	 eax, DWORD PTR [edi]
  000e1	8b cf		 mov	 ecx, edi
  000e3	ff 50 18	 call	 DWORD PTR [eax+24]
  000e6	83 f8 02	 cmp	 eax, 2
  000e9	74 0b		 je	 SHORT $LN22@GetRealDat
  000eb	8b 45 e4	 mov	 eax, DWORD PTR _nCeilTime$[ebp+4]
  000ee	8b 5d e0	 mov	 ebx, DWORD PTR _nCeilTime$[ebp]
  000f1	89 45 fc	 mov	 DWORD PTR _nCeilTime$2$[ebp], eax
  000f4	eb 6c		 jmp	 SHORT $LN7@GetRealDat
$LN22@GetRealDat:
  000f6	8b 5d e4	 mov	 ebx, DWORD PTR _nCeilTime$[ebp+4]
  000f9	89 5d fc	 mov	 DWORD PTR _nCeilTime$2$[ebp], ebx
  000fc	8b 5d e0	 mov	 ebx, DWORD PTR _nCeilTime$[ebp]
$LN25@GetRealDat:

; 873  : 	{
; 874  : 		// 2011.01.18 by SYS >>  YYYY()  : / 14Byte  (YYYYMMDDhhmmss)
; 875  : 		//nCeilTime = CDataConversion::CalcTimeSum( nCeilTime, m_ttcTrPacket.GetMinimumUnitTime());
; 876  : 		nCeilTime = CDataConversion::CalcTimeSum( nCeilTime, nMinimumUnitTime);

  000ff	8b 75 f8	 mov	 esi, DWORD PTR _nMod$1$[ebp]
$LN21@GetRealDat:
  00102	6a 00		 push	 0
  00104	ff 75 f4	 push	 DWORD PTR _nMinimumUnitTime$2$[ebp]
  00107	ff 75 f0	 push	 DWORD PTR _nMinimumUnitTime$1$[ebp]
  0010a	ff 75 fc	 push	 DWORD PTR _nCeilTime$2$[ebp]
  0010d	53		 push	 ebx
  0010e	e8 00 00 00 00	 call	 ?CalcTimeSum@CDataConversion@@SA_J_J0H@Z ; CDataConversion::CalcTimeSum
  00113	8b 4d ec	 mov	 ecx, DWORD PTR _nMod$2$[ebp]
  00116	8b d8		 mov	 ebx, eax
  00118	83 c4 14	 add	 esp, 20			; 00000014H
  0011b	8b c2		 mov	 eax, edx
$LN5@GetRealDat:

; 877  : 		// 2011.01.18 by SYS <<
; 878  : 	}
; 879  : 	nCeilTime = nCeilTime - nMod;

  0011d	2b de		 sub	 ebx, esi

; 880  : 
; 881  : 	// 2.   /    Logic Class  Packet  .
; 882  : 	if( !GetRealData_CloseTime_AppendOrUpdate( pPacket, nFloorTime, nCeilTime, p_nRealDataTime))

  0011f	8b 75 0c	 mov	 esi, DWORD PTR _p_nRealDataTime$[ebp]
  00122	56		 push	 esi
  00123	1b c1		 sbb	 eax, ecx
  00125	89 5d e0	 mov	 DWORD PTR _nCeilTime$[ebp], ebx
  00128	8d 4d e0	 lea	 ecx, DWORD PTR _nCeilTime$[ebp]
  0012b	89 45 e4	 mov	 DWORD PTR _nCeilTime$[ebp+4], eax
  0012e	8b 07		 mov	 eax, DWORD PTR [edi]
  00130	51		 push	 ecx
  00131	8d 4d d8	 lea	 ecx, DWORD PTR _nFloorTime$[ebp]
  00134	51		 push	 ecx
  00135	ff 75 08	 push	 DWORD PTR _pPacket$[ebp]
  00138	8b 40 28	 mov	 eax, DWORD PTR [eax+40]
  0013b	8b cf		 mov	 ecx, edi
  0013d	ff d0		 call	 eax
  0013f	5b		 pop	 ebx
  00140	84 c0		 test	 al, al
  00142	74 2e		 je	 SHORT $LN3@GetRealDat

; 883  : 		return false;
; 884  : 
; 885  : 	// (2009/10/27 - Seung-Won, Bae) for Real Data Type.
; 886  : 	if( CChartInfo::WORLD_ON == m_nChartModeSetting)

  00144	83 7f 58 03	 cmp	 DWORD PTR [edi+88], 3
  00148	75 08		 jne	 SHORT $LN9@GetRealDat

; 887  : 		GetMarketDate_DateTime( p_nRealDataTime);

  0014a	56		 push	 esi
  0014b	8b cf		 mov	 ecx, edi
  0014d	e8 00 00 00 00	 call	 ?GetMarketDate_DateTime@CTimeRealDataModuleBase@@QBEXAA_J@Z ; CTimeRealDataModuleBase::GetMarketDate_DateTime
$LN9@GetRealDat:

; 888  : 
; 889  : 	m_nClockedDataCount++;

  00152	ff 47 40	 inc	 DWORD PTR [edi+64]

; 890  : 	return true;

  00155	b0 01		 mov	 al, 1
  00157	5f		 pop	 edi

; 891  : }

  00158	5e		 pop	 esi
  00159	8b e5		 mov	 esp, ebp
  0015b	5d		 pop	 ebp
  0015c	c2 08 00	 ret	 8
$LN24@GetRealDat:

; 864  : 	// 2011.01.18 by SYS <<
; 865  : 
; 866  : 	__int64 nFloorTime = p_nRealDataTime - nMod;
; 867  : 	__int64 nCeilTime = p_nRealDataTime;
; 868  : 	// 01    .
; 869  : 	// 09:00:00   1   09:00:00  1 ()
; 870  : 	if( p_nRealDataTime % 1000000 == m_nMarketStartTime
; 871  : 		|| ( 0 == p_nRealDataTime % 100 && GetRealType() == CPacketType::CEILING2)
; 872  : 		|| 0 != nMod)

  0015f	8b 45 fc	 mov	 eax, DWORD PTR _nCeilTime$2$[ebp]
$LN7@GetRealDat:
  00162	8b 75 f8	 mov	 esi, DWORD PTR _nMod$1$[ebp]
  00165	85 f6		 test	 esi, esi
  00167	75 99		 jne	 SHORT $LN21@GetRealDat
  00169	8b 4d ec	 mov	 ecx, DWORD PTR _nMod$2$[ebp]
  0016c	85 c9		 test	 ecx, ecx
  0016e	74 ad		 je	 SHORT $LN5@GetRealDat
  00170	eb 90		 jmp	 SHORT $LN21@GetRealDat
$LN3@GetRealDat:
  00172	5f		 pop	 edi

; 853  : 		return false;

  00173	32 c0		 xor	 al, al

; 891  : }

  00175	5e		 pop	 esi
  00176	8b e5		 mov	 esp, ebp
  00178	5d		 pop	 ebp
  00179	c2 08 00	 ret	 8
?GetRealData_CloseTime@CTimeRealDataModule@@MAE_NPAVCPacket@@AA_J@Z ENDP ; CTimeRealDataModule::GetRealData_CloseTime
_TEXT	ENDS
; Function compile flags: /Ogtp
; File D:\git\src\IBK\IBK_DRFN\ProjSrc\SrcChartEx\ChartOCX\PacketData\TimeRealDataModule.cpp
; File C:\Program Files (x86)\Microsoft Visual Studio\2019\Community\VC\Tools\MSVC\14.29.30133\atlmfc\include\cstringt.h
; File D:\git\src\IBK\IBK_DRFN\ProjSrc\SrcChartEx\ChartOCX\PacketData\TimeRealDataModule.cpp
; File C:\Program Files (x86)\Microsoft Visual Studio\2019\Community\VC\Tools\MSVC\14.29.30133\atlmfc\include\cstringt.h
; File D:\git\src\IBK\IBK_DRFN\ProjSrc\SrcChartEx\ChartOCX\PacketData\TimeRealDataModule.cpp
;	COMDAT ?SetRealData_AppendOrUpdate2@CTimeRealDataModule@@IAEHPAVCPacket@@AB_J11@Z
_TEXT	SEGMENT
_nAppendTime$2$ = -8					; size = 4
_nDeleteCount$1$ = -4					; size = 4
_pPacket$ = 8						; size = 4
_nRealTime$ = 12					; size = 4
_nCheckTime$ = 16					; size = 4
_nAppendTime$1$ = 20					; size = 4
_nUserTime$2$ = 20					; size = 4
_nUserTime$1$ = 20					; size = 4
_nUpdateTime$ = 20					; size = 4
?SetRealData_AppendOrUpdate2@CTimeRealDataModule@@IAEHPAVCPacket@@AB_J11@Z PROC ; CTimeRealDataModule::SetRealData_AppendOrUpdate2, COMDAT
; _this$ = ecx

; 761  : {

  00000	55		 push	 ebp
  00001	8b ec		 mov	 ebp, esp
  00003	83 ec 08	 sub	 esp, 8
  00006	53		 push	 ebx
  00007	56		 push	 esi
  00008	8b f1		 mov	 esi, ecx

; 762  : 	// (2009/11/13 - Seung-Won, Bae)   RollBack .
; 763  : 	//	    ,      Data  .
; 764  : 	//   (m_bCloseEmptyCandleWhenEnd:TRUE)   ,
; 765  : 	//		 Data  -1  .
; 766  : 	int nDeleteCount = 0;

  0000a	33 db		 xor	 ebx, ebx
  0000c	57		 push	 edi

; 767  : 	if( 0 < m_nTimeRangeEnd) while( 0 < m_nClockedDataCount - nDeleteCount && !IsTimeAdd( nCheckTime, m_nTimeRangeEnd))

  0000d	8d be b8 00 00
	00		 lea	 edi, DWORD PTR [esi+184]
  00013	89 5d fc	 mov	 DWORD PTR _nDeleteCount$1$[ebp], ebx
  00016	39 5f 04	 cmp	 DWORD PTR [edi+4], ebx
  00019	7c 47		 jl	 SHORT $LN7@SetRealDat
  0001b	7f 04		 jg	 SHORT $LN32@SetRealDat
  0001d	39 1f		 cmp	 DWORD PTR [edi], ebx
  0001f	76 41		 jbe	 SHORT $LN7@SetRealDat
$LN32@SetRealDat:
  00021	39 5e 40	 cmp	 DWORD PTR [esi+64], ebx
  00024	7e 3c		 jle	 SHORT $LN7@SetRealDat
$LL2@SetRealDat:
  00026	8b 06		 mov	 eax, DWORD PTR [esi]
  00028	8b ce		 mov	 ecx, esi
  0002a	57		 push	 edi
  0002b	ff 75 10	 push	 DWORD PTR _nCheckTime$[ebp]
  0002e	8b 40 1c	 mov	 eax, DWORD PTR [eax+28]
  00031	ff d0		 call	 eax
  00033	84 c0		 test	 al, al
  00035	75 1b		 jne	 SHORT $LN3@SetRealDat

; 768  : 	{
; 769  : 		GetPrevIntervalWithoutOffTime( m_nTimeRangeStart, m_nTimeRangeEnd);

  00037	6a 01		 push	 1
  00039	57		 push	 edi
  0003a	8d 86 b0 00 00
	00		 lea	 eax, DWORD PTR [esi+176]
  00040	8b ce		 mov	 ecx, esi
  00042	50		 push	 eax
  00043	e8 00 00 00 00	 call	 ?GetPrevIntervalWithoutOffTime@CTimeRealDataModule@@IAEXAA_J0H@Z ; CTimeRealDataModule::GetPrevIntervalWithoutOffTime
  00048	8b 46 40	 mov	 eax, DWORD PTR [esi+64]

; 770  : 		nDeleteCount++;

  0004b	43		 inc	 ebx
  0004c	2b c3		 sub	 eax, ebx
  0004e	85 c0		 test	 eax, eax
  00050	7f d4		 jg	 SHORT $LL2@SetRealDat
$LN3@SetRealDat:
  00052	89 5d fc	 mov	 DWORD PTR _nDeleteCount$1$[ebp], ebx

; 771  : 	}
; 772  : 	if( 0 < nDeleteCount) pPacket->RemoveBaseData( nDeleteCount);

  00055	85 db		 test	 ebx, ebx
  00057	7e 09		 jle	 SHORT $LN7@SetRealDat
  00059	8b 4d 08	 mov	 ecx, DWORD PTR _pPacket$[ebp]
  0005c	53		 push	 ebx
  0005d	e8 00 00 00 00	 call	 ?RemoveBaseData@CPacket@@QAE_NH@Z ; CPacket::RemoveBaseData
$LN7@SetRealDat:

; 773  : 	m_nClockedDataCount = ( m_bCloseEmptyCandleWhenEnd ? -1 : 0);

  00062	8b 46 5c	 mov	 eax, DWORD PTR [esi+92]
  00065	f7 d8		 neg	 eax
  00067	1b c0		 sbb	 eax, eax

; 774  : 
; 775  : 	CBaseData::RESULT eResult = CBaseData::Add;
; 776  : 	if( 0 < m_nTimeRangeEnd)

  00069	83 7f 04 00	 cmp	 DWORD PTR [edi+4], 0
  0006d	89 46 40	 mov	 DWORD PTR [esi+64], eax
  00070	0f 8c ca 00 00
	00		 jl	 $LN31@SetRealDat
  00076	7f 05		 jg	 SHORT $LN33@SetRealDat
  00078	83 3f 00	 cmp	 DWORD PTR [edi], 0
  0007b	76 65		 jbe	 SHORT $LN30@SetRealDat
$LN33@SetRealDat:

; 777  : 		if( !IsTimeAdd( nCheckTime, m_nTimeRangeEnd)) eResult = CBaseData::Update;

  0007d	8b 06		 mov	 eax, DWORD PTR [esi]
  0007f	8b ce		 mov	 ecx, esi
  00081	57		 push	 edi
  00082	ff 75 10	 push	 DWORD PTR _nCheckTime$[ebp]
  00085	8b 40 1c	 mov	 eax, DWORD PTR [eax+28]
  00088	ff d0		 call	 eax
  0008a	84 c0		 test	 al, al
  0008c	75 54		 jne	 SHORT $LN30@SetRealDat

; 778  : 
; 779  : //	{
; 780  : //		CString szDebug;
; 781  : //		szDebug.Format("[SMalzio] realchk : IsTimeAdd (%d) nCheckTime(%I64d) m_nTimeRangeEnd(%I64d)\n", (nCheckTime > m_nTimeRangeEnd), nCheckTime, m_nTimeRangeEnd);
; 782  : //		OutputDebugString(szDebug);
; 783  : //	}
; 784  : 
; 785  : 	if(eResult == CBaseData::Update)
; 786  : 	{
; 787  : 		// (2009/11/3 - Seung-Won, Bae) User Time.
; 788  : 		__int64 nUserTime = nUpdateTime;

  0008e	8b 45 14	 mov	 eax, DWORD PTR _nUpdateTime$[ebp]

; 789  : 		if( 0 != m_nRealTimeDiff) nUserTime = CDataConversion::CalcTimeSum( nUserTime, m_nRealTimeDiff);

  00091	8b 7e 48	 mov	 edi, DWORD PTR [esi+72]
  00094	8b 08		 mov	 ecx, DWORD PTR [eax]
  00096	8b 50 04	 mov	 edx, DWORD PTR [eax+4]
  00099	8b 46 4c	 mov	 eax, DWORD PTR [esi+76]
  0009c	85 ff		 test	 edi, edi
  0009e	75 04		 jne	 SHORT $LN34@SetRealDat
  000a0	85 c0		 test	 eax, eax
  000a2	74 10		 je	 SHORT $LN11@SetRealDat
$LN34@SetRealDat:
  000a4	6a 00		 push	 0
  000a6	50		 push	 eax
  000a7	57		 push	 edi
  000a8	52		 push	 edx
  000a9	51		 push	 ecx
  000aa	e8 00 00 00 00	 call	 ?CalcTimeSum@CDataConversion@@SA_J_J0H@Z ; CDataConversion::CalcTimeSum
  000af	83 c4 14	 add	 esp, 20			; 00000014H
  000b2	8b c8		 mov	 ecx, eax
$LN11@SetRealDat:

; 790  : 
; 791  : 		pPacket->UpdateData( ( double)m_ttcTrPacket.GetPacketTypeTime( nUserTime));

  000b4	6a 00		 push	 0
  000b6	52		 push	 edx
  000b7	51		 push	 ecx
  000b8	8d 4e 08	 lea	 ecx, DWORD PTR [esi+8]
  000bb	e8 00 00 00 00	 call	 ?GetPacketTypeTime@CTimeTypeConvert@@QBE_J_JH@Z ; CTimeTypeConvert::GetPacketTypeTime
  000c0	8b c8		 mov	 ecx, eax
  000c2	e8 00 00 00 00	 call	 __ltod3
  000c7	8b 4d 08	 mov	 ecx, DWORD PTR _pPacket$[ebp]
  000ca	83 ec 08	 sub	 esp, 8
  000cd	f2 0f 11 04 24	 movsd	 QWORD PTR [esp], xmm0
  000d2	e8 00 00 00 00	 call	 ?UpdateData@CPacket@@QAEXN@Z ; CPacket::UpdateData
  000d7	5f		 pop	 edi

; 843  : 	}
; 844  : 
; 845  : 	return nDeleteCount;
; 846  : }

  000d8	5e		 pop	 esi
  000d9	8b c3		 mov	 eax, ebx
  000db	5b		 pop	 ebx
  000dc	8b e5		 mov	 esp, ebp
  000de	5d		 pop	 ebp
  000df	c2 10 00	 ret	 16			; 00000010H
$LN30@SetRealDat:

; 792  : 		return nDeleteCount;
; 793  : 	}
; 794  : 
; 795  : 	if( 0 < m_nTimeRangeEnd && eResult == CBaseData::Add)

  000e2	83 7f 04 00	 cmp	 DWORD PTR [edi+4], 0
  000e6	7c 58		 jl	 SHORT $LN31@SetRealDat
  000e8	7f 05		 jg	 SHORT $LN35@SetRealDat
  000ea	83 3f 00	 cmp	 DWORD PTR [edi], 0
  000ed	76 51		 jbe	 SHORT $LN31@SetRealDat
$LN35@SetRealDat:

; 796  : 	{
; 797  : 		// (2009/11/3 - Seung-Won, Bae) User Time.
; 798  : 		__int64 nUserTime = GetCloseTime( m_nTimeRangeStart, m_nTimeRangeEnd);

  000ef	8b 16		 mov	 edx, DWORD PTR [esi]
  000f1	8d 86 b0 00 00
	00		 lea	 eax, DWORD PTR [esi+176]
  000f7	57		 push	 edi
  000f8	50		 push	 eax
  000f9	8b ce		 mov	 ecx, esi
  000fb	8b 42 24	 mov	 eax, DWORD PTR [edx+36]
  000fe	ff d0		 call	 eax

; 799  : 		if( 0 != m_nRealTimeDiff) nUserTime = CDataConversion::CalcTimeSum( nUserTime, m_nRealTimeDiff);

  00100	83 7e 48 00	 cmp	 DWORD PTR [esi+72], 0
  00104	8b 4e 4c	 mov	 ecx, DWORD PTR [esi+76]
  00107	75 04		 jne	 SHORT $LN36@SetRealDat
  00109	85 c9		 test	 ecx, ecx
  0010b	74 10		 je	 SHORT $LN13@SetRealDat
$LN36@SetRealDat:
  0010d	6a 00		 push	 0
  0010f	51		 push	 ecx
  00110	ff 76 48	 push	 DWORD PTR [esi+72]
  00113	52		 push	 edx
  00114	50		 push	 eax
  00115	e8 00 00 00 00	 call	 ?CalcTimeSum@CDataConversion@@SA_J_J0H@Z ; CDataConversion::CalcTimeSum
  0011a	83 c4 14	 add	 esp, 20			; 00000014H
$LN13@SetRealDat:

; 800  : 
; 801  : 		pPacket->UpdateData( ( double)m_ttcTrPacket.GetPacketTypeTime( nUserTime));

  0011d	6a 00		 push	 0
  0011f	52		 push	 edx
  00120	50		 push	 eax
  00121	8d 4e 08	 lea	 ecx, DWORD PTR [esi+8]
  00124	e8 00 00 00 00	 call	 ?GetPacketTypeTime@CTimeTypeConvert@@QBE_J_JH@Z ; CTimeTypeConvert::GetPacketTypeTime
  00129	8b c8		 mov	 ecx, eax
  0012b	e8 00 00 00 00	 call	 __ltod3
  00130	8b 4d 08	 mov	 ecx, DWORD PTR _pPacket$[ebp]
  00133	83 ec 08	 sub	 esp, 8
  00136	f2 0f 11 04 24	 movsd	 QWORD PTR [esp], xmm0
  0013b	e8 00 00 00 00	 call	 ?UpdateData@CPacket@@QAEXN@Z ; CPacket::UpdateData
$LN31@SetRealDat:

; 802  : 	}
; 803  : 
; 804  : 	// (2009/11/3 - Seung-Won, Bae) User Time.
; 805  : 	__int64 nUserTime = nUpdateTime;

  00140	8b 45 14	 mov	 eax, DWORD PTR _nUpdateTime$[ebp]

; 806  : 	if( 0 != m_nRealTimeDiff) nUserTime = CDataConversion::CalcTimeSum( nUserTime, m_nRealTimeDiff);

  00143	8b 4e 48	 mov	 ecx, DWORD PTR [esi+72]
  00146	8b 10		 mov	 edx, DWORD PTR [eax]
  00148	8b 40 04	 mov	 eax, DWORD PTR [eax+4]
  0014b	89 45 14	 mov	 DWORD PTR _nUserTime$2$[ebp], eax
  0014e	8b 46 4c	 mov	 eax, DWORD PTR [esi+76]
  00151	85 c9		 test	 ecx, ecx
  00153	75 04		 jne	 SHORT $LN37@SetRealDat
  00155	85 c0		 test	 eax, eax
  00157	74 1a		 je	 SHORT $LN40@SetRealDat
$LN37@SetRealDat:
  00159	6a 00		 push	 0
  0015b	50		 push	 eax
  0015c	51		 push	 ecx
  0015d	ff 75 14	 push	 DWORD PTR _nUserTime$2$[ebp]
  00160	52		 push	 edx
  00161	e8 00 00 00 00	 call	 ?CalcTimeSum@CDataConversion@@SA_J_J0H@Z ; CDataConversion::CalcTimeSum
  00166	89 45 14	 mov	 DWORD PTR _nUserTime$1$[ebp], eax
  00169	83 c4 14	 add	 esp, 20			; 00000014H
  0016c	8b c2		 mov	 eax, edx
  0016e	8b 55 14	 mov	 edx, DWORD PTR _nUserTime$1$[ebp]
  00171	eb 03		 jmp	 SHORT $LN14@SetRealDat
$LN40@SetRealDat:
  00173	8b 45 14	 mov	 eax, DWORD PTR _nUserTime$2$[ebp]
$LN14@SetRealDat:

; 807  : 
; 808  : 	// with CBaseData::TodayFirstReal
; 809  : 	__int64 nAppendTime = m_ttcTrPacket.GetPacketTypeTime( nUserTime);

  00176	6a 00		 push	 0
  00178	50		 push	 eax
  00179	52		 push	 edx
  0017a	8d 4e 08	 lea	 ecx, DWORD PTR [esi+8]
  0017d	e8 00 00 00 00	 call	 ?GetPacketTypeTime@CTimeTypeConvert@@QBE_J_JH@Z ; CTimeTypeConvert::GetPacketTypeTime
  00182	8b ca		 mov	 ecx, edx
  00184	89 45 f8	 mov	 DWORD PTR _nAppendTime$2$[ebp], eax
  00187	89 4d 14	 mov	 DWORD PTR _nAppendTime$1$[ebp], ecx

; 810  : 	pPacket->AppendData( ( double)nAppendTime);

  0018a	8b c8		 mov	 ecx, eax
  0018c	6a ff		 push	 -1
  0018e	e8 00 00 00 00	 call	 __ltod3
  00193	8b 4d 08	 mov	 ecx, DWORD PTR _pPacket$[ebp]
  00196	83 ec 08	 sub	 esp, 8
  00199	f2 0f 11 04 24	 movsd	 QWORD PTR [esp], xmm0
  0019e	e8 00 00 00 00	 call	 ?AppendData@CPacket@@QAEXNH@Z ; CPacket::AppendData

; 811  : 
; 812  : 	// (2009/11/19 - Seung-Won, Bae)   Data     .
; 813  : 	//	      Data Update  Append  .
; 814  : 	//		 Append    Update .
; 815  : 	//		   Update      .
; 816  : 	//	   Data     ,  Data  Data    .
; 817  : 	//	 Data   ,   ,    ,     .
; 818  : 	//		         ,
; 819  : 	//		    Append   .
; 820  : 	if( m_nTimeRangeEnd <= 0)

  001a3	83 7f 04 00	 cmp	 DWORD PTR [edi+4], 0
  001a7	7f 17		 jg	 SHORT $LN15@SetRealDat
  001a9	7c 05		 jl	 SHORT $LN38@SetRealDat
  001ab	83 3f 00	 cmp	 DWORD PTR [edi], 0
  001ae	77 10		 ja	 SHORT $LN15@SetRealDat
$LN38@SetRealDat:

; 821  : 		SetTimeRange_TRPart( nRealTime, nAppendTime);

  001b0	ff 75 14	 push	 DWORD PTR _nAppendTime$1$[ebp]
  001b3	8b 06		 mov	 eax, DWORD PTR [esi]
  001b5	8b ce		 mov	 ecx, esi
  001b7	ff 75 f8	 push	 DWORD PTR _nAppendTime$2$[ebp]
  001ba	ff 75 0c	 push	 DWORD PTR _nRealTime$[ebp]
  001bd	ff 50 04	 call	 DWORD PTR [eax+4]
$LN15@SetRealDat:
; File C:\Program Files (x86)\Microsoft Visual Studio\2019\Community\VC\Tools\MSVC\14.29.30133\atlmfc\include\cstringt.h

; 2486 : 		return(str1.Compare(psz2) == 0);

  001c0	68 00 00 00 00	 push	 OFFSET ??_C@_0P@IMPIBBAB@YYYYMMDDHHMMSS@
; File D:\git\src\IBK\IBK_DRFN\ProjSrc\SrcChartEx\ChartOCX\PacketData\TimeRealDataModule.cpp

; 828  : 	if(m_ttcTrPacket.GetPacketType() == "YYYYMMDDHHMMSS"  && m_nTimeRangeEnd<20000000000000)

  001c5	8d 4e 10	 lea	 ecx, DWORD PTR [esi+16]
; File C:\Program Files (x86)\Microsoft Visual Studio\2019\Community\VC\Tools\MSVC\14.29.30133\atlmfc\include\cstringt.h

; 2486 : 		return(str1.Compare(psz2) == 0);

  001c8	ff 15 00 00 00
	00		 call	 DWORD PTR __imp_?Compare@?$CStringT@DV?$StrTraitMFC_DLL@DV?$ChTraitsCRT@D@ATL@@@@@ATL@@QBEHPBD@Z
  001ce	85 c0		 test	 eax, eax
; File D:\git\src\IBK\IBK_DRFN\ProjSrc\SrcChartEx\ChartOCX\PacketData\TimeRealDataModule.cpp

; 828  : 	if(m_ttcTrPacket.GetPacketType() == "YYYYMMDDHHMMSS"  && m_nTimeRangeEnd<20000000000000)

  001d0	75 20		 jne	 SHORT $LN21@SetRealDat
  001d2	81 7f 04 30 12
	00 00		 cmp	 DWORD PTR [edi+4], 4656	; 00001230H
  001d9	7f 17		 jg	 SHORT $LN21@SetRealDat
  001db	7c 08		 jl	 SHORT $LN39@SetRealDat
  001dd	81 3f 00 40 e5
	9c		 cmp	 DWORD PTR [edi], -1662697472 ; 9ce54000H
  001e3	73 0d		 jae	 SHORT $LN21@SetRealDat
$LN39@SetRealDat:

; 829  : 	{
; 830  : //		{
; 831  : //			CString szDebug;
; 832  : //			szDebug.Format("[SMalzio]m_nTimeRangeEnd(%I64d) nCheckTime(%I64d)\n", m_nTimeRangeEnd, nCheckTime);
; 833  : //			OutputDebugString(szDebug);
; 834  : //		}
; 835  : 
; 836  : 		m_nTimeRangeEnd = nCheckTime;

  001e5	8b 4d 10	 mov	 ecx, DWORD PTR _nCheckTime$[ebp]
  001e8	8b 01		 mov	 eax, DWORD PTR [ecx]
  001ea	8b 49 04	 mov	 ecx, DWORD PTR [ecx+4]
  001ed	89 07		 mov	 DWORD PTR [edi], eax
  001ef	89 4f 04	 mov	 DWORD PTR [edi+4], ecx
$LN21@SetRealDat:

; 837  : 	}
; 838  : 	// 2011.01.06 by SYS <<
; 839  : 
; 840  : 	while( IsTimeAdd( nCheckTime, m_nTimeRangeEnd))

  001f2	8b 06		 mov	 eax, DWORD PTR [esi]
  001f4	8b ce		 mov	 ecx, esi
  001f6	57		 push	 edi
  001f7	ff 75 10	 push	 DWORD PTR _nCheckTime$[ebp]
  001fa	8b 40 1c	 mov	 eax, DWORD PTR [eax+28]
  001fd	ff d0		 call	 eax
  001ff	84 c0		 test	 al, al
  00201	74 30		 je	 SHORT $LN5@SetRealDat
  00203	8b 5d 10	 mov	 ebx, DWORD PTR _nCheckTime$[ebp]
  00206	8d 86 b0 00 00
	00		 lea	 eax, DWORD PTR [esi+176]
  0020c	0f 1f 40 00	 npad	 4
$LL4@SetRealDat:

; 841  : 	{
; 842  : 		GetNextIntervalWithoutOffTime( m_nTimeRangeStart, m_nTimeRangeEnd, FALSE);

  00210	6a 00		 push	 0
  00212	57		 push	 edi
  00213	50		 push	 eax
  00214	8b ce		 mov	 ecx, esi
  00216	e8 00 00 00 00	 call	 ?GetNextIntervalWithoutOffTime@CTimeRealDataModule@@IAEHAA_J0H@Z ; CTimeRealDataModule::GetNextIntervalWithoutOffTime
  0021b	8b 06		 mov	 eax, DWORD PTR [esi]
  0021d	8b ce		 mov	 ecx, esi
  0021f	57		 push	 edi
  00220	53		 push	 ebx
  00221	8b 40 1c	 mov	 eax, DWORD PTR [eax+28]
  00224	ff d0		 call	 eax
  00226	84 c0		 test	 al, al
  00228	8d 86 b0 00 00
	00		 lea	 eax, DWORD PTR [esi+176]
  0022e	75 e0		 jne	 SHORT $LL4@SetRealDat
  00230	8b 5d fc	 mov	 ebx, DWORD PTR _nDeleteCount$1$[ebp]
$LN5@SetRealDat:
  00233	5f		 pop	 edi

; 843  : 	}
; 844  : 
; 845  : 	return nDeleteCount;
; 846  : }

  00234	5e		 pop	 esi
  00235	8b c3		 mov	 eax, ebx
  00237	5b		 pop	 ebx
  00238	8b e5		 mov	 esp, ebp
  0023a	5d		 pop	 ebp
  0023b	c2 10 00	 ret	 16			; 00000010H
?SetRealData_AppendOrUpdate2@CTimeRealDataModule@@IAEHPAVCPacket@@AB_J11@Z ENDP ; CTimeRealDataModule::SetRealData_AppendOrUpdate2
_TEXT	ENDS
; Function compile flags: /Ogtp
; File D:\git\src\IBK\IBK_DRFN\ProjSrc\SrcChartEx\ChartOCX\PacketData\TimeRealDataModule.cpp
; File C:\Program Files (x86)\Microsoft Visual Studio\2019\Community\VC\Tools\MSVC\14.29.30133\atlmfc\include\atlsimpstr.h
; File D:\git\src\IBK\IBK_DRFN\ProjSrc\SrcChartEx\ChartOCX\PacketData\TimeRealDataModule.cpp
; File C:\Program Files (x86)\Microsoft Visual Studio\2019\Community\VC\Tools\MSVC\14.29.30133\atlmfc\include\cstringt.h
; File D:\git\src\IBK\IBK_DRFN\ProjSrc\SrcChartEx\ChartOCX\PacketData\TimeRealDataModule.cpp
; File C:\Program Files (x86)\Microsoft Visual Studio\2019\Community\VC\Tools\MSVC\14.29.30133\atlmfc\include\cstringt.h
; File D:\git\src\IBK\IBK_DRFN\ProjSrc\SrcChartEx\ChartOCX\PacketData\TimeRealDataModule.cpp
; File C:\Program Files (x86)\Microsoft Visual Studio\2019\Community\VC\Tools\MSVC\14.29.30133\atlmfc\include\cstringt.h
; File D:\git\src\IBK\IBK_DRFN\ProjSrc\SrcChartEx\ChartOCX\PacketData\TimeRealDataModule.cpp
;	COMDAT ?SetRealData@CTimeRealDataModule@@MAEHPAVCPacket@@AB_J@Z
_TEXT	SEGMENT
_nFloorTime$ = -36					; size = 8
_nCeilTime$ = -28					; size = 8
_nRealHMS$1$ = -20					; size = 4
_nMod$2$ = -16						; size = 4
_nMinimumUnitTime$1$ = -12				; size = 4
_nMinimumUnitTime$2$ = -8				; size = 4
_nMod$1$ = -4						; size = 4
_pPacket$ = 8						; size = 4
_nRealTime$ = 12					; size = 4
?SetRealData@CTimeRealDataModule@@MAEHPAVCPacket@@AB_J@Z PROC ; CTimeRealDataModule::SetRealData, COMDAT
; _this$ = ecx

; 707  : {

  00000	55		 push	 ebp
  00001	8b ec		 mov	 ebp, esp
  00003	83 ec 24	 sub	 esp, 36			; 00000024H
  00006	56		 push	 esi
  00007	57		 push	 edi
  00008	8b f9		 mov	 edi, ecx
; File C:\Program Files (x86)\Microsoft Visual Studio\2019\Community\VC\Tools\MSVC\14.29.30133\atlmfc\include\atlsimpstr.h

; 533  : 		return( GetLength() == 0 );

  0000a	8b 47 10	 mov	 eax, DWORD PTR [edi+16]
  0000d	83 78 f4 00	 cmp	 DWORD PTR [eax-12], 0
; File D:\git\src\IBK\IBK_DRFN\ProjSrc\SrcChartEx\ChartOCX\PacketData\TimeRealDataModule.cpp

; 708  : 	if( m_ttcTrPacket.GetPacketType().IsEmpty()) return -1;

  00011	75 0b		 jne	 SHORT $LN2@SetRealDat
  00013	5f		 pop	 edi
  00014	83 c8 ff	 or	 eax, -1

; 757  : }

  00017	5e		 pop	 esi
  00018	8b e5		 mov	 esp, ebp
  0001a	5d		 pop	 ebp
  0001b	c2 08 00	 ret	 8
$LN2@SetRealDat:

; 709  : 
; 710  : 	if( !m_bMarketOn) return 0;

  0001e	83 bf c4 00 00
	00 00		 cmp	 DWORD PTR [edi+196], 0
  00025	0f 84 96 00 00
	00		 je	 $LN5@SetRealDat

; 711  : 	// (2009/10/27 - Seung-Won, Bae) the Flag for real after special code like market end.
; 712  : 	int nRealHMS = int( nRealTime % 1000000);

  0002b	8b 4d 0c	 mov	 ecx, DWORD PTR _nRealTime$[ebp]
  0002e	6a 00		 push	 0
  00030	68 40 42 0f 00	 push	 1000000			; 000f4240H
  00035	ff 71 04	 push	 DWORD PTR [ecx+4]
  00038	ff 31		 push	 DWORD PTR [ecx]
  0003a	e8 00 00 00 00	 call	 __allrem

; 713  : 	if( g_iMetaTable.IsSpecialTime( nRealHMS))

  0003f	50		 push	 eax
  00040	b9 00 00 00 00	 mov	 ecx, OFFSET ?g_iMetaTable@@3VIMetaTable@@A ; g_iMetaTable
  00045	89 45 ec	 mov	 DWORD PTR _nRealHMS$1$[ebp], eax
  00048	e8 00 00 00 00	 call	 ?IsSpecialTime@IMetaTable@@QAEHH@Z ; IMetaTable::IsSpecialTime
  0004d	85 c0		 test	 eax, eax
  0004f	74 7a		 je	 SHORT $LN4@SetRealDat

; 714  : 	{
; 715  : 		if( 0 < m_nTimeRangeEnd)

  00051	83 bf bc 00 00
	00 00		 cmp	 DWORD PTR [edi+188], 0
  00058	8d 87 b8 00 00
	00		 lea	 eax, DWORD PTR [edi+184]
  0005e	7c 61		 jl	 SHORT $LN5@SetRealDat
  00060	7f 05		 jg	 SHORT $LN20@SetRealDat
  00062	83 38 00	 cmp	 DWORD PTR [eax], 0
  00065	76 5a		 jbe	 SHORT $LN5@SetRealDat
$LN20@SetRealDat:

; 716  : 		{
; 717  : 			// (2009/11/3 - Seung-Won, Bae) User Time.
; 718  : 			__int64 nUserTime = GetCloseTime( m_nTimeRangeStart, m_nTimeRangeEnd);

  00067	8b 17		 mov	 edx, DWORD PTR [edi]
  00069	8b cf		 mov	 ecx, edi
  0006b	50		 push	 eax
  0006c	8d 87 b0 00 00
	00		 lea	 eax, DWORD PTR [edi+176]
  00072	50		 push	 eax
  00073	8b 42 24	 mov	 eax, DWORD PTR [edx+36]
  00076	ff d0		 call	 eax

; 719  : 			if( 0 != m_nRealTimeDiff) nUserTime = CDataConversion::CalcTimeSum( nUserTime, m_nRealTimeDiff);

  00078	8b 77 48	 mov	 esi, DWORD PTR [edi+72]
  0007b	8b 4f 4c	 mov	 ecx, DWORD PTR [edi+76]
  0007e	85 f6		 test	 esi, esi
  00080	75 04		 jne	 SHORT $LN21@SetRealDat
  00082	85 c9		 test	 ecx, ecx
  00084	74 0e		 je	 SHORT $LN6@SetRealDat
$LN21@SetRealDat:
  00086	6a 00		 push	 0
  00088	51		 push	 ecx
  00089	56		 push	 esi
  0008a	52		 push	 edx
  0008b	50		 push	 eax
  0008c	e8 00 00 00 00	 call	 ?CalcTimeSum@CDataConversion@@SA_J_J0H@Z ; CDataConversion::CalcTimeSum
  00091	83 c4 14	 add	 esp, 20			; 00000014H
$LN6@SetRealDat:

; 720  : 
; 721  : 			m_bMarketOn = FALSE;
; 722  : 			pPacket->UpdateData( ( double)m_ttcTrPacket.GetPacketTypeTime( nUserTime));

  00094	6a 00		 push	 0
  00096	52		 push	 edx
  00097	50		 push	 eax
  00098	8d 4f 08	 lea	 ecx, DWORD PTR [edi+8]
  0009b	c7 87 c4 00 00
	00 00 00 00 00	 mov	 DWORD PTR [edi+196], 0
  000a5	e8 00 00 00 00	 call	 ?GetPacketTypeTime@CTimeTypeConvert@@QBE_J_JH@Z ; CTimeTypeConvert::GetPacketTypeTime
  000aa	8b c8		 mov	 ecx, eax
  000ac	e8 00 00 00 00	 call	 __ltod3
  000b1	8b 4d 08	 mov	 ecx, DWORD PTR _pPacket$[ebp]
  000b4	83 ec 08	 sub	 esp, 8
  000b7	f2 0f 11 04 24	 movsd	 QWORD PTR [esp], xmm0
  000bc	e8 00 00 00 00	 call	 ?UpdateData@CPacket@@QAEXN@Z ; CPacket::UpdateData
$LN5@SetRealDat:

; 723  : 		}
; 724  : 		return 0;

  000c1	5f		 pop	 edi
  000c2	33 c0		 xor	 eax, eax

; 757  : }

  000c4	5e		 pop	 esi
  000c5	8b e5		 mov	 esp, ebp
  000c7	5d		 pop	 ebp
  000c8	c2 08 00	 ret	 8
$LN4@SetRealDat:

; 734  : 	__int64	nMinimumUnitTime = m_ttcTrPacket.GetMinimumUnitTime();

  000cb	8b 47 38	 mov	 eax, DWORD PTR [edi+56]
; File C:\Program Files (x86)\Microsoft Visual Studio\2019\Community\VC\Tools\MSVC\14.29.30133\atlmfc\include\cstringt.h

; 2486 : 		return(str1.Compare(psz2) == 0);

  000ce	8d 4f 10	 lea	 ecx, DWORD PTR [edi+16]
; File D:\git\src\IBK\IBK_DRFN\ProjSrc\SrcChartEx\ChartOCX\PacketData\TimeRealDataModule.cpp

; 734  : 	__int64	nMinimumUnitTime = m_ttcTrPacket.GetMinimumUnitTime();

  000d1	89 45 f4	 mov	 DWORD PTR _nMinimumUnitTime$1$[ebp], eax
  000d4	8b 47 3c	 mov	 eax, DWORD PTR [edi+60]
; File C:\Program Files (x86)\Microsoft Visual Studio\2019\Community\VC\Tools\MSVC\14.29.30133\atlmfc\include\cstringt.h

; 2486 : 		return(str1.Compare(psz2) == 0);

  000d7	68 00 00 00 00	 push	 OFFSET ??_C@_0P@IMPIBBAB@YYYYMMDDHHMMSS@
; File D:\git\src\IBK\IBK_DRFN\ProjSrc\SrcChartEx\ChartOCX\PacketData\TimeRealDataModule.cpp

; 734  : 	__int64	nMinimumUnitTime = m_ttcTrPacket.GetMinimumUnitTime();

  000dc	89 45 f8	 mov	 DWORD PTR _nMinimumUnitTime$2$[ebp], eax
; File C:\Program Files (x86)\Microsoft Visual Studio\2019\Community\VC\Tools\MSVC\14.29.30133\atlmfc\include\cstringt.h

; 2486 : 		return(str1.Compare(psz2) == 0);

  000df	ff 15 00 00 00
	00		 call	 DWORD PTR __imp_?Compare@?$CStringT@DV?$StrTraitMFC_DLL@DV?$ChTraitsCRT@D@ATL@@@@@ATL@@QBEHPBD@Z
  000e5	85 c0		 test	 eax, eax
; File D:\git\src\IBK\IBK_DRFN\ProjSrc\SrcChartEx\ChartOCX\PacketData\TimeRealDataModule.cpp

; 735  : 	if (m_ttcTrPacket.GetPacketType() == _T("YYYYMMDDHHMMSS"))

  000e7	75 0a		 jne	 SHORT $LN7@SetRealDat

; 736  : 		nMinimumUnitTime = 100;	

  000e9	c7 45 f4 64 00
	00 00		 mov	 DWORD PTR _nMinimumUnitTime$1$[ebp], 100 ; 00000064H
  000f0	89 45 f8	 mov	 DWORD PTR _nMinimumUnitTime$2$[ebp], eax
$LN7@SetRealDat:

; 737  : 	__int64 nMod = nRealTime % nMinimumUnitTime;

  000f3	8b 45 0c	 mov	 eax, DWORD PTR _nRealTime$[ebp]
  000f6	53		 push	 ebx
  000f7	ff 75 f8	 push	 DWORD PTR _nMinimumUnitTime$2$[ebp]
  000fa	ff 75 f4	 push	 DWORD PTR _nMinimumUnitTime$1$[ebp]
  000fd	8b 18		 mov	 ebx, DWORD PTR [eax]
  000ff	ff 70 04	 push	 DWORD PTR [eax+4]
  00102	53		 push	 ebx
  00103	e8 00 00 00 00	 call	 __allrem

; 738  : 	// 2011.01.18 by SYS <<
; 739  : 	
; 740  : 	__int64 nFloorTime = nRealTime - nMod;

  00108	8b f3		 mov	 esi, ebx
  0010a	89 45 fc	 mov	 DWORD PTR _nMod$1$[ebp], eax
  0010d	2b f0		 sub	 esi, eax
  0010f	89 55 f0	 mov	 DWORD PTR _nMod$2$[ebp], edx
  00112	8b 45 0c	 mov	 eax, DWORD PTR _nRealTime$[ebp]
  00115	89 75 dc	 mov	 DWORD PTR _nFloorTime$[ebp], esi

; 741  : 	__int64 nCeilTime = nRealTime;
; 742  : 	// 01    .
; 743  : 	// 09:00:00   1   09:00:00  1 ()
; 744  : 	if( nRealHMS == m_nMarketStartTime
; 745  : 		|| ( 0 == nRealHMS % 100 && GetRealType() == CPacketType::CEILING2)
; 746  : 		|| 0 != nMod)

  00118	8b 75 ec	 mov	 esi, DWORD PTR _nRealHMS$1$[ebp]
  0011b	89 5d e4	 mov	 DWORD PTR _nCeilTime$[ebp], ebx
  0011e	8b 48 04	 mov	 ecx, DWORD PTR [eax+4]
  00121	1b ca		 sbb	 ecx, edx
  00123	89 4d e0	 mov	 DWORD PTR _nFloorTime$[ebp+4], ecx
  00126	8b 48 04	 mov	 ecx, DWORD PTR [eax+4]
  00129	89 4d e8	 mov	 DWORD PTR _nCeilTime$[ebp+4], ecx
  0012c	3b b7 a8 00 00
	00		 cmp	 esi, DWORD PTR [edi+168]
  00132	74 3a		 je	 SHORT $LN24@SetRealDat
  00134	b8 1f 85 eb 51	 mov	 eax, 1374389535		; 51eb851fH
  00139	f7 ee		 imul	 esi
  0013b	c1 fa 05	 sar	 edx, 5
  0013e	8b c2		 mov	 eax, edx
  00140	c1 e8 1f	 shr	 eax, 31			; 0000001fH
  00143	03 c2		 add	 eax, edx
  00145	6b c0 64	 imul	 eax, eax, 100
  00148	2b f0		 sub	 esi, eax
  0014a	75 12		 jne	 SHORT $LN10@SetRealDat
  0014c	8b 07		 mov	 eax, DWORD PTR [edi]
  0014e	8b cf		 mov	 ecx, edi
  00150	ff 50 18	 call	 DWORD PTR [eax+24]
  00153	8b 4d e8	 mov	 ecx, DWORD PTR _nCeilTime$[ebp+4]
  00156	8b 5d e4	 mov	 ebx, DWORD PTR _nCeilTime$[ebp]
  00159	83 f8 02	 cmp	 eax, 2
  0015c	74 10		 je	 SHORT $LN24@SetRealDat
$LN10@SetRealDat:
  0015e	8b 75 fc	 mov	 esi, DWORD PTR _nMod$1$[ebp]
  00161	85 f6		 test	 esi, esi
  00163	75 0c		 jne	 SHORT $LN22@SetRealDat
  00165	8b 45 f0	 mov	 eax, DWORD PTR _nMod$2$[ebp]
  00168	85 c0		 test	 eax, eax
  0016a	74 1e		 je	 SHORT $LN8@SetRealDat
  0016c	eb 03		 jmp	 SHORT $LN22@SetRealDat
$LN24@SetRealDat:

; 747  : 	{
; 748  : 		// 2011.01.18 by SYS >>  YYYY()  : / 14Byte  (YYYYMMDDhhmmss)
; 749  : 		//nCeilTime = CDataConversion::CalcTimeSum( nCeilTime, m_ttcTrPacket.GetMinimumUnitTime());
; 750  : 		nCeilTime = CDataConversion::CalcTimeSum( nCeilTime, nMinimumUnitTime);

  0016e	8b 75 fc	 mov	 esi, DWORD PTR _nMod$1$[ebp]
$LN22@SetRealDat:
  00171	6a 00		 push	 0
  00173	ff 75 f8	 push	 DWORD PTR _nMinimumUnitTime$2$[ebp]
  00176	ff 75 f4	 push	 DWORD PTR _nMinimumUnitTime$1$[ebp]
  00179	51		 push	 ecx
  0017a	53		 push	 ebx
  0017b	e8 00 00 00 00	 call	 ?CalcTimeSum@CDataConversion@@SA_J_J0H@Z ; CDataConversion::CalcTimeSum
  00180	8b d8		 mov	 ebx, eax
  00182	83 c4 14	 add	 esp, 20			; 00000014H
  00185	8b 45 f0	 mov	 eax, DWORD PTR _nMod$2$[ebp]
  00188	8b ca		 mov	 ecx, edx
$LN8@SetRealDat:

; 751  : 		// 2011.01.18 by SYS <<
; 752  : 	}
; 753  : 	nCeilTime = nCeilTime - nMod;

  0018a	2b de		 sub	 ebx, esi
  0018c	89 5d e4	 mov	 DWORD PTR _nCeilTime$[ebp], ebx
  0018f	1b c8		 sbb	 ecx, eax

; 754  : 
; 755  : 	// 2.   /    Logic Class  Packet  .
; 756  : 	return SetRealData_AppendOrUpdate( pPacket, nRealTime, nFloorTime, nCeilTime);

  00191	8b 07		 mov	 eax, DWORD PTR [edi]
  00193	89 4d e8	 mov	 DWORD PTR _nCeilTime$[ebp+4], ecx
  00196	8d 4d e4	 lea	 ecx, DWORD PTR _nCeilTime$[ebp]
  00199	51		 push	 ecx
  0019a	8d 4d dc	 lea	 ecx, DWORD PTR _nFloorTime$[ebp]
  0019d	51		 push	 ecx
  0019e	8b 4d 0c	 mov	 ecx, DWORD PTR _nRealTime$[ebp]
  001a1	51		 push	 ecx
  001a2	ff 75 08	 push	 DWORD PTR _pPacket$[ebp]
  001a5	8b cf		 mov	 ecx, edi
  001a7	ff 50 20	 call	 DWORD PTR [eax+32]
  001aa	5b		 pop	 ebx
  001ab	5f		 pop	 edi

; 757  : }

  001ac	5e		 pop	 esi
  001ad	8b e5		 mov	 esp, ebp
  001af	5d		 pop	 ebp
  001b0	c2 08 00	 ret	 8
?SetRealData@CTimeRealDataModule@@MAEHPAVCPacket@@AB_J@Z ENDP ; CTimeRealDataModule::SetRealData
_TEXT	ENDS
; Function compile flags: /Ogtp
; File D:\git\src\IBK\IBK_DRFN\ProjSrc\SrcChartEx\ChartOCX\PacketData\TimeRealDataModule.cpp
; File D:\git\src\IBK\IBK_DRFN\ProjSrc\SrcChartEx\ChartOCX\Include_Chart\TimeTypeConvert.h
; File D:\git\src\IBK\IBK_DRFN\ProjSrc\SrcChartEx\ChartOCX\PacketData\TimeRealDataModule.cpp
; File D:\git\src\IBK\IBK_DRFN\ProjSrc\SrcChartEx\ChartOCX\Include_Chart\TimeTypeConvert.h
; File D:\git\src\IBK\IBK_DRFN\ProjSrc\SrcChartEx\ChartOCX\PacketData\TimeRealDataModule.cpp
; File D:\git\src\IBK\IBK_DRFN\ProjSrc\SrcChartEx\ChartOCX\Include_Chart\TimeTypeConvert.h
; File D:\git\src\IBK\IBK_DRFN\ProjSrc\SrcChartEx\ChartOCX\PacketData\TimeRealDataModule.cpp
;	COMDAT ?SetTimeRange_TRPart@CTimeRealDataModule@@MAEHAB_J_J@Z
_TEXT	SEGMENT
_nFullTailTime$ = -20					; size = 8
_nServerTime$1$ = -12					; size = 4
$T1 = -12						; size = 4
tv277 = -12						; size = 4
_nServerTime$2$ = -8					; size = 4
$T2 = -8						; size = 4
_nRotationTime$1$ = -4					; size = 4
tv276 = 8						; size = 4
_p_nServerTime$ = 8					; size = 4
_nTailTime$ = 12					; size = 8
_nRangeStartTime$1$ = 16				; size = 4
_nRotationTime$2$ = 16					; size = 4
?SetTimeRange_TRPart@CTimeRealDataModule@@MAEHAB_J_J@Z PROC ; CTimeRealDataModule::SetTimeRange_TRPart, COMDAT
; _this$ = ecx

; 599  : {

  00000	55		 push	 ebp
  00001	8b ec		 mov	 ebp, esp

; 600  : 	if( nTailTime < 0) return FALSE;

  00003	8b 55 10	 mov	 edx, DWORD PTR _nTailTime$[ebp+4]
  00006	83 ec 14	 sub	 esp, 20			; 00000014H
  00009	53		 push	 ebx
  0000a	56		 push	 esi
  0000b	8b f1		 mov	 esi, ecx
  0000d	57		 push	 edi
  0000e	85 d2		 test	 edx, edx
  00010	0f 8c 4f 02 00
	00		 jl	 $LN30@SetTimeRan
  00016	8b 4d 0c	 mov	 ecx, DWORD PTR _nTailTime$[ebp]
  00019	7f 08		 jg	 SHORT $LN31@SetTimeRan
  0001b	85 c9		 test	 ecx, ecx
  0001d	0f 82 42 02 00
	00		 jb	 $LN30@SetTimeRan
$LN31@SetTimeRan:

; 606  : 	m_nClockedDataCount = ( m_bCloseEmptyCandleWhenEnd ? -1 : 0);

  00023	8b 46 5c	 mov	 eax, DWORD PTR [esi+92]
; File D:\git\src\IBK\IBK_DRFN\ProjSrc\SrcChartEx\ChartOCX\Include_Chart\TimeTypeConvert.h

; 48   : 						return p_nTime *= m_nMinimumUnitTime;	

  00026	52		 push	 edx
  00027	51		 push	 ecx
  00028	ff 76 3c	 push	 DWORD PTR [esi+60]
; File D:\git\src\IBK\IBK_DRFN\ProjSrc\SrcChartEx\ChartOCX\PacketData\TimeRealDataModule.cpp

; 606  : 	m_nClockedDataCount = ( m_bCloseEmptyCandleWhenEnd ? -1 : 0);

  0002b	f7 d8		 neg	 eax
; File D:\git\src\IBK\IBK_DRFN\ProjSrc\SrcChartEx\ChartOCX\Include_Chart\TimeTypeConvert.h

; 48   : 						return p_nTime *= m_nMinimumUnitTime;	

  0002d	ff 76 38	 push	 DWORD PTR [esi+56]
; File D:\git\src\IBK\IBK_DRFN\ProjSrc\SrcChartEx\ChartOCX\PacketData\TimeRealDataModule.cpp

; 606  : 	m_nClockedDataCount = ( m_bCloseEmptyCandleWhenEnd ? -1 : 0);

  00030	1b c0		 sbb	 eax, eax
  00032	89 46 40	 mov	 DWORD PTR [esi+64], eax
; File D:\git\src\IBK\IBK_DRFN\ProjSrc\SrcChartEx\ChartOCX\Include_Chart\TimeTypeConvert.h

; 48   : 						return p_nTime *= m_nMinimumUnitTime;	

  00035	e8 00 00 00 00	 call	 __allmul
; File D:\git\src\IBK\IBK_DRFN\ProjSrc\SrcChartEx\ChartOCX\PacketData\TimeRealDataModule.cpp

; 640  : 	if( !m_ttcTrPacket.IsYearInPacketType())

  0003a	83 7e 14 00	 cmp	 DWORD PTR [esi+20], 0
  0003e	8b f8		 mov	 edi, eax
  00040	8b da		 mov	 ebx, edx
  00042	89 7d ec	 mov	 DWORD PTR _nFullTailTime$[ebp], edi
  00045	89 5d f0	 mov	 DWORD PTR _nFullTailTime$[ebp+4], ebx
  00048	0f 85 0c 01 00
	00		 jne	 $LN35@SetTimeRan

; 641  : 	{
; 642  : //		g_DRDebuger.DRLog_Message("B IsYearInPacketType is FALSE.");
; 643  : 		// 1.1.1 Make User Locale Time of Server Time.
; 644  : 		__int64 nUserTimeOfServer = p_nServerTime;
; 645  : 		if( 0 != m_nRealTimeDiff) nUserTimeOfServer = CDataConversion::CalcTimeSum( nUserTimeOfServer, m_nRealTimeDiff);

  0004e	8b 4e 48	 mov	 ecx, DWORD PTR [esi+72]
  00051	8b 46 4c	 mov	 eax, DWORD PTR [esi+76]
  00054	85 c9		 test	 ecx, ecx
  00056	75 04		 jne	 SHORT $LN32@SetTimeRan
  00058	85 c0		 test	 eax, eax
  0005a	74 17		 je	 SHORT $LN10@SetTimeRan
$LN32@SetTimeRan:
  0005c	6a 00		 push	 0
  0005e	50		 push	 eax
  0005f	8b 45 08	 mov	 eax, DWORD PTR _p_nServerTime$[ebp]
  00062	51		 push	 ecx
  00063	ff 70 04	 push	 DWORD PTR [eax+4]
  00066	ff 30		 push	 DWORD PTR [eax]
  00068	e8 00 00 00 00	 call	 ?CalcTimeSum@CDataConversion@@SA_J_J0H@Z ; CDataConversion::CalcTimeSum
  0006d	8b 7d ec	 mov	 edi, DWORD PTR _nFullTailTime$[ebp]
  00070	83 c4 14	 add	 esp, 20			; 00000014H
$LN10@SetTimeRan:

; 646  : 		// 1.1.2 Make nTailTime to FullTime. (FullTime = FullTyped_DataTime + ServerTime - PacketTyped_ServerTime)
; 647  : 		__int64 nRotationTime = m_ttcTrPacket.GetRotationFullTime();
; 648  : 		nFullTailTime += p_nServerTime - p_nServerTime % nRotationTime;

  00073	8b 4d 08	 mov	 ecx, DWORD PTR _p_nServerTime$[ebp]
  00076	8b 46 34	 mov	 eax, DWORD PTR [esi+52]
  00079	8b 56 30	 mov	 edx, DWORD PTR [esi+48]
  0007c	50		 push	 eax
  0007d	8b 19		 mov	 ebx, DWORD PTR [ecx]
  0007f	52		 push	 edx
  00080	89 5d f8	 mov	 DWORD PTR $T2[ebp], ebx
  00083	8b 59 04	 mov	 ebx, DWORD PTR [ecx+4]
  00086	53		 push	 ebx
  00087	ff 31		 push	 DWORD PTR [ecx]
  00089	89 55 fc	 mov	 DWORD PTR _nRotationTime$1$[ebp], edx
  0008c	89 45 10	 mov	 DWORD PTR _nRotationTime$2$[ebp], eax
  0008f	89 5d f4	 mov	 DWORD PTR $T1[ebp], ebx
  00092	e8 00 00 00 00	 call	 __allrem
  00097	8b 4d f8	 mov	 ecx, DWORD PTR $T2[ebp]
  0009a	2b c8		 sub	 ecx, eax
  0009c	8b c3		 mov	 eax, ebx
  0009e	8b 5d f0	 mov	 ebx, DWORD PTR _nFullTailTime$[ebp+4]
  000a1	1b c2		 sbb	 eax, edx
  000a3	03 f9		 add	 edi, ecx

; 649  : 		// 1.1.3 Make Standard Time.
; 650  : 		if( 0 != m_nRealTimeDiff) nFullTailTime = CDataConversion::CalcTimeSum( nFullTailTime, -m_nRealTimeDiff);

  000a5	8b 4e 48	 mov	 ecx, DWORD PTR [esi+72]
  000a8	13 d8		 adc	 ebx, eax
  000aa	89 7d ec	 mov	 DWORD PTR _nFullTailTime$[ebp], edi
  000ad	8b 46 4c	 mov	 eax, DWORD PTR [esi+76]
  000b0	89 5d f0	 mov	 DWORD PTR _nFullTailTime$[ebp+4], ebx
  000b3	85 c9		 test	 ecx, ecx
  000b5	75 04		 jne	 SHORT $LN33@SetTimeRan
  000b7	85 c0		 test	 eax, eax
  000b9	74 25		 je	 SHORT $LN49@SetTimeRan
$LN33@SetTimeRan:
  000bb	f7 d9		 neg	 ecx
  000bd	6a 00		 push	 0
  000bf	83 d0 00	 adc	 eax, 0
  000c2	f7 d8		 neg	 eax
  000c4	50		 push	 eax
  000c5	51		 push	 ecx
  000c6	53		 push	 ebx
  000c7	57		 push	 edi
  000c8	e8 00 00 00 00	 call	 ?CalcTimeSum@CDataConversion@@SA_J_J0H@Z ; CDataConversion::CalcTimeSum
  000cd	89 45 ec	 mov	 DWORD PTR _nFullTailTime$[ebp], eax
  000d0	83 c4 14	 add	 esp, 20			; 00000014H
  000d3	8b 45 08	 mov	 eax, DWORD PTR _p_nServerTime$[ebp]
  000d6	89 55 f0	 mov	 DWORD PTR _nFullTailTime$[ebp+4], edx
  000d9	8b 08		 mov	 ecx, DWORD PTR [eax]
  000db	8b 40 04	 mov	 eax, DWORD PTR [eax+4]
  000de	eb 06		 jmp	 SHORT $LN11@SetTimeRan
$LN49@SetTimeRan:
  000e0	8b 4d f8	 mov	 ecx, DWORD PTR $T2[ebp]
  000e3	8b 45 f4	 mov	 eax, DWORD PTR $T1[ebp]
$LN11@SetTimeRan:

; 651  : 		// 1.3 Tail Time can not be future time. (but can be future with time interval)
; 652  : 		__int64 nServerTime = CDataConversion::CalcTimeSum( p_nServerTime, m_nTimeInterval);

  000e6	6a 00		 push	 0
  000e8	ff b6 a4 00 00
	00		 push	 DWORD PTR [esi+164]
  000ee	ff b6 a0 00 00
	00		 push	 DWORD PTR [esi+160]
  000f4	50		 push	 eax
  000f5	51		 push	 ecx
  000f6	e8 00 00 00 00	 call	 ?CalcTimeSum@CDataConversion@@SA_J_J0H@Z ; CDataConversion::CalcTimeSum

; 653  : 		while( nServerTime < nFullTailTime)

  000fb	8b 5d f0	 mov	 ebx, DWORD PTR _nFullTailTime$[ebp+4]
  000fe	8b ca		 mov	 ecx, edx
  00100	8b 7d ec	 mov	 edi, DWORD PTR _nFullTailTime$[ebp]
  00103	83 c4 14	 add	 esp, 20			; 00000014H
  00106	89 45 f8	 mov	 DWORD PTR _nServerTime$2$[ebp], eax
  00109	89 4d f4	 mov	 DWORD PTR _nServerTime$1$[ebp], ecx
  0010c	3b cb		 cmp	 ecx, ebx
  0010e	7f 4a		 jg	 SHORT $LN35@SetTimeRan
  00110	7c 04		 jl	 SHORT $LN34@SetTimeRan
  00112	3b c7		 cmp	 eax, edi
  00114	73 44		 jae	 SHORT $LN35@SetTimeRan
$LN34@SetTimeRan:
  00116	8b 4d fc	 mov	 ecx, DWORD PTR _nRotationTime$1$[ebp]
  00119	8b 45 10	 mov	 eax, DWORD PTR _nRotationTime$2$[ebp]
  0011c	f7 d9		 neg	 ecx
  0011e	89 4d fc	 mov	 DWORD PTR _nRotationTime$1$[ebp], ecx
  00121	83 d0 00	 adc	 eax, 0
  00124	f7 d8		 neg	 eax
  00126	89 45 10	 mov	 DWORD PTR _nRotationTime$2$[ebp], eax
  00129	0f 1f 80 00 00
	00 00		 npad	 7
$LL2@SetTimeRan:

; 654  : 			nFullTailTime = CDataConversion::CalcTimeSum( nFullTailTime, -nRotationTime);

  00130	6a 00		 push	 0
  00132	50		 push	 eax
  00133	51		 push	 ecx
  00134	53		 push	 ebx
  00135	57		 push	 edi
  00136	e8 00 00 00 00	 call	 ?CalcTimeSum@CDataConversion@@SA_J_J0H@Z ; CDataConversion::CalcTimeSum
  0013b	8b 4d fc	 mov	 ecx, DWORD PTR _nRotationTime$1$[ebp]
  0013e	8b da		 mov	 ebx, edx
  00140	8b f8		 mov	 edi, eax
  00142	89 5d f0	 mov	 DWORD PTR _nFullTailTime$[ebp+4], ebx
  00145	8b 45 10	 mov	 eax, DWORD PTR _nRotationTime$2$[ebp]
  00148	83 c4 14	 add	 esp, 20			; 00000014H
  0014b	89 7d ec	 mov	 DWORD PTR _nFullTailTime$[ebp], edi
  0014e	39 5d f4	 cmp	 DWORD PTR _nServerTime$1$[ebp], ebx
  00151	7c dd		 jl	 SHORT $LL2@SetTimeRan

; 653  : 		while( nServerTime < nFullTailTime)

  00153	7f 05		 jg	 SHORT $LN35@SetTimeRan
  00155	39 7d f8	 cmp	 DWORD PTR _nServerTime$2$[ebp], edi
  00158	72 d6		 jb	 SHORT $LL2@SetTimeRan
$LN35@SetTimeRan:

; 655  : 	}
; 656  : 	// 2011.01.11 by SYS <<
; 657  : 
; 658  : 
; 659  : 	// 2. Get the first Range with Range Start Time.
; 660  : 	// 2.1 Get FullTime of Range Start Time.
; 661  : 	if(p_nServerTime == 0)

  0015a	8b 45 08	 mov	 eax, DWORD PTR _p_nServerTime$[ebp]
  0015d	8b 10		 mov	 edx, DWORD PTR [eax]
  0015f	8b 48 04	 mov	 ecx, DWORD PTR [eax+4]
  00162	8b c2		 mov	 eax, edx
  00164	0b c1		 or	 eax, ecx
  00166	89 55 08	 mov	 DWORD PTR tv276[ebp], edx
  00169	89 4d f4	 mov	 DWORD PTR tv277[ebp], ecx
  0016c	0f 84 f3 00 00
	00		 je	 $LN30@SetTimeRan

; 662  : 		return FALSE;
; 663  : 
; 664  : 	__int64 nRangeStartTime = p_nServerTime - ( p_nServerTime % 1000000) + m_nNewRangeStartTime;

  00172	8b 46 50	 mov	 eax, DWORD PTR [esi+80]
  00175	6a 00		 push	 0
  00177	68 40 42 0f 00	 push	 1000000			; 000f4240H
  0017c	51		 push	 ecx
  0017d	ff 75 08	 push	 DWORD PTR tv276[ebp]
  00180	99		 cdq
  00181	8b d8		 mov	 ebx, eax
  00183	89 55 10	 mov	 DWORD PTR _nRangeStartTime$1$[ebp], edx
  00186	e8 00 00 00 00	 call	 __allrem
  0018b	2b d8		 sub	 ebx, eax
  0018d	8b 45 10	 mov	 eax, DWORD PTR _nRangeStartTime$1$[ebp]
  00190	1b c2		 sbb	 eax, edx
  00192	03 5d 08	 add	 ebx, DWORD PTR tv276[ebp]
  00195	13 45 f4	 adc	 eax, DWORD PTR tv277[ebp]

; 665  : 	// 2.2 Range Start Time must be after tail time.
; 666  : 	while( nFullTailTime <= nRangeStartTime)

  00198	39 45 f0	 cmp	 DWORD PTR _nFullTailTime$[ebp+4], eax
  0019b	7f 29		 jg	 SHORT $LN45@SetTimeRan
  0019d	7c 04		 jl	 SHORT $LL4@SetTimeRan
  0019f	3b fb		 cmp	 edi, ebx
  001a1	77 23		 ja	 SHORT $LN45@SetTimeRan
$LL4@SetTimeRan:

; 667  : 		nRangeStartTime = CDataConversion::CalcTimeSum( nRangeStartTime, -1000000);

  001a3	6a 00		 push	 0
  001a5	6a ff		 push	 -1
  001a7	68 c0 bd f0 ff	 push	 -1000000		; fff0bdc0H
  001ac	50		 push	 eax
  001ad	53		 push	 ebx
  001ae	e8 00 00 00 00	 call	 ?CalcTimeSum@CDataConversion@@SA_J_J0H@Z ; CDataConversion::CalcTimeSum
  001b3	8b d8		 mov	 ebx, eax
  001b5	83 c4 14	 add	 esp, 20			; 00000014H
  001b8	8b c2		 mov	 eax, edx
  001ba	39 45 f0	 cmp	 DWORD PTR _nFullTailTime$[ebp+4], eax
  001bd	7c e4		 jl	 SHORT $LL4@SetTimeRan

; 665  : 	// 2.2 Range Start Time must be after tail time.
; 666  : 	while( nFullTailTime <= nRangeStartTime)

  001bf	7f 05		 jg	 SHORT $LN45@SetTimeRan
  001c1	39 5d ec	 cmp	 DWORD PTR _nFullTailTime$[ebp], ebx
  001c4	76 dd		 jbe	 SHORT $LL4@SetTimeRan
$LN45@SetTimeRan:

; 668  : 
; 669  : 	// 3. Get the Range for Tail Time.
; 670  : 	m_nTimeRangeStart = nRangeStartTime;
; 671  : 	m_nTimeRangeEnd = CDataConversion::CalcTimeSum( m_nTimeRangeStart, m_nTimeInterval);

  001c6	6a 00		 push	 0
  001c8	ff b6 a4 00 00
	00		 push	 DWORD PTR [esi+164]
  001ce	89 9e b0 00 00
	00		 mov	 DWORD PTR [esi+176], ebx
  001d4	8d be b8 00 00
	00		 lea	 edi, DWORD PTR [esi+184]
  001da	ff b6 a0 00 00
	00		 push	 DWORD PTR [esi+160]
  001e0	89 86 b4 00 00
	00		 mov	 DWORD PTR [esi+180], eax
  001e6	50		 push	 eax
  001e7	53		 push	 ebx
  001e8	e8 00 00 00 00	 call	 ?CalcTimeSum@CDataConversion@@SA_J_J0H@Z ; CDataConversion::CalcTimeSum
  001ed	83 c4 14	 add	 esp, 20			; 00000014H
  001f0	89 07		 mov	 DWORD PTR [edi], eax

; 672  : //	{
; 673  : //		CString szDebug;
; 674  : //		szDebug.Format("C before: m_nTimeRangeEnd(%I64d) m_nTimeRangeStart(%I64d) m_nTimeInterval(%I64d) nFullTailTime(%I64d)\n", 
; 675  : //					m_nTimeRangeEnd, m_nTimeRangeStart, m_nTimeInterval, nFullTailTime);
; 676  : //		//OutputDebugString(szDebug);
; 677  : //		g_DRDebuger.DRLog_Message(szDebug);
; 678  : //	}
; 679  : 
; 680  : 	while( IsTimeAdd( nFullTailTime, m_nTimeRangeEnd))

  001f2	8b 06		 mov	 eax, DWORD PTR [esi]
  001f4	8d 4d ec	 lea	 ecx, DWORD PTR _nFullTailTime$[ebp]
  001f7	89 57 04	 mov	 DWORD PTR [edi+4], edx
  001fa	57		 push	 edi
  001fb	8b 40 1c	 mov	 eax, DWORD PTR [eax+28]
  001fe	51		 push	 ecx
  001ff	8b ce		 mov	 ecx, esi
  00201	ff d0		 call	 eax
  00203	8d 9e b0 00 00
	00		 lea	 ebx, DWORD PTR [esi+176]
  00209	84 c0		 test	 al, al
  0020b	74 24		 je	 SHORT $LN21@SetTimeRan
  0020d	0f 1f 00	 npad	 3
$LL6@SetTimeRan:

; 681  : 		if( !GetNextIntervalWithoutOffTime( m_nTimeRangeStart, m_nTimeRangeEnd, FALSE))

  00210	6a 00		 push	 0
  00212	57		 push	 edi
  00213	53		 push	 ebx
  00214	8b ce		 mov	 ecx, esi
  00216	e8 00 00 00 00	 call	 ?GetNextIntervalWithoutOffTime@CTimeRealDataModule@@IAEHAA_J0H@Z ; CTimeRealDataModule::GetNextIntervalWithoutOffTime
  0021b	85 c0		 test	 eax, eax
  0021d	74 12		 je	 SHORT $LN21@SetTimeRan

; 672  : //	{
; 673  : //		CString szDebug;
; 674  : //		szDebug.Format("C before: m_nTimeRangeEnd(%I64d) m_nTimeRangeStart(%I64d) m_nTimeInterval(%I64d) nFullTailTime(%I64d)\n", 
; 675  : //					m_nTimeRangeEnd, m_nTimeRangeStart, m_nTimeInterval, nFullTailTime);
; 676  : //		//OutputDebugString(szDebug);
; 677  : //		g_DRDebuger.DRLog_Message(szDebug);
; 678  : //	}
; 679  : 
; 680  : 	while( IsTimeAdd( nFullTailTime, m_nTimeRangeEnd))

  0021f	8b 06		 mov	 eax, DWORD PTR [esi]
  00221	8d 4d ec	 lea	 ecx, DWORD PTR _nFullTailTime$[ebp]
  00224	57		 push	 edi
  00225	51		 push	 ecx
  00226	8b ce		 mov	 ecx, esi
  00228	8b 40 1c	 mov	 eax, DWORD PTR [eax+28]
  0022b	ff d0		 call	 eax
  0022d	84 c0		 test	 al, al
  0022f	75 df		 jne	 SHORT $LL6@SetTimeRan
$LN21@SetTimeRan:

; 682  : 			break;
; 683  : //	{
; 684  : //		CString szDebug;
; 685  : //		szDebug.Format("D after : m_nTimeRangeEnd(%I64d) m_nTimeRangeStart(%I64d) m_nTimeInterval(%I64d)\n", m_nTimeRangeEnd, m_nTimeRangeStart, m_nTimeInterval);
; 686  : //		//OutputDebugString(szDebug);
; 687  : //		g_DRDebuger.DRLog_Message(szDebug);
; 688  : //	}
; 689  : 
; 690  : 	// 4. for CEIL2 and FLOOR2 (Bound data is not included in range)
; 691  : 	if( GetRealType() == CPacketType::CEILING2 && m_nTimeRangeStart == nFullTailTime)

  00231	8b 06		 mov	 eax, DWORD PTR [esi]
  00233	8b ce		 mov	 ecx, esi
  00235	ff 50 18	 call	 DWORD PTR [eax+24]
  00238	83 f8 02	 cmp	 eax, 2
  0023b	75 1a		 jne	 SHORT $LN14@SetTimeRan
  0023d	8b 03		 mov	 eax, DWORD PTR [ebx]
  0023f	3b 45 ec	 cmp	 eax, DWORD PTR _nFullTailTime$[ebp]
  00242	75 13		 jne	 SHORT $LN14@SetTimeRan
  00244	8b 43 04	 mov	 eax, DWORD PTR [ebx+4]
  00247	3b 45 f0	 cmp	 eax, DWORD PTR _nFullTailTime$[ebp+4]
  0024a	75 0b		 jne	 SHORT $LN14@SetTimeRan

; 692  : 		GetPrevIntervalWithoutOffTime( m_nTimeRangeStart, m_nTimeRangeEnd, TRUE);

  0024c	6a 01		 push	 1
  0024e	57		 push	 edi
  0024f	53		 push	 ebx
  00250	8b ce		 mov	 ecx, esi
  00252	e8 00 00 00 00	 call	 ?GetPrevIntervalWithoutOffTime@CTimeRealDataModule@@IAEXAA_J0H@Z ; CTimeRealDataModule::GetPrevIntervalWithoutOffTime
$LN14@SetTimeRan:

; 693  : 
; 694  : //	{
; 695  : //		CString szDebug;
; 696  : //		szDebug.Format("E m_nTimeRangeStart(%I64d) m_nTimeRangeEnd(%I64d)\n", m_nTimeRangeStart, m_nTimeRangeEnd);
; 697  : //		g_DRDebuger.DRLog_Message(szDebug);
; 698  : //	}
; 699  : 
; 700  : 	return TRUE;
; 701  : }

  00257	5f		 pop	 edi
  00258	5e		 pop	 esi
  00259	b8 01 00 00 00	 mov	 eax, 1
  0025e	5b		 pop	 ebx
  0025f	8b e5		 mov	 esp, ebp
  00261	5d		 pop	 ebp
  00262	c2 0c 00	 ret	 12			; 0000000cH
$LN30@SetTimeRan:
  00265	5f		 pop	 edi
  00266	5e		 pop	 esi
  00267	33 c0		 xor	 eax, eax
  00269	5b		 pop	 ebx
  0026a	8b e5		 mov	 esp, ebp
  0026c	5d		 pop	 ebp
  0026d	c2 0c 00	 ret	 12			; 0000000cH
?SetTimeRange_TRPart@CTimeRealDataModule@@MAEHAB_J_J@Z ENDP ; CTimeRealDataModule::SetTimeRange_TRPart
_TEXT	ENDS
; Function compile flags: /Ogtp
; File D:\git\src\IBK\IBK_DRFN\ProjSrc\SrcChartEx\ChartOCX\PacketData\TimeRealDataModule.cpp
;	COMDAT ?GetTimeRangeStartWithPacketType@CTimeRealDataModule@@MBE_JXZ
_TEXT	SEGMENT
?GetTimeRangeStartWithPacketType@CTimeRealDataModule@@MBE_JXZ PROC ; CTimeRealDataModule::GetTimeRangeStartWithPacketType, COMDAT
; _this$ = ecx

; 586  : 	return m_ttcTrPacket.GetPacketTypeTime( m_nTimeRangeStart);

  00000	6a 00		 push	 0
  00002	ff b1 b4 00 00
	00		 push	 DWORD PTR [ecx+180]
  00008	ff b1 b0 00 00
	00		 push	 DWORD PTR [ecx+176]
  0000e	83 c1 08	 add	 ecx, 8
  00011	e8 00 00 00 00	 call	 ?GetPacketTypeTime@CTimeTypeConvert@@QBE_J_JH@Z ; CTimeTypeConvert::GetPacketTypeTime

; 587  : }

  00016	c3		 ret	 0
?GetTimeRangeStartWithPacketType@CTimeRealDataModule@@MBE_JXZ ENDP ; CTimeRealDataModule::GetTimeRangeStartWithPacketType
_TEXT	ENDS
; Function compile flags: /Ogtp
; File D:\git\src\IBK\IBK_DRFN\ProjSrc\SrcChartEx\ChartOCX\PacketData\TimeRealDataModule.cpp
;	COMDAT ??1CTimeRealDataModule@@UAE@XZ
_TEXT	SEGMENT
??1CTimeRealDataModule@@UAE@XZ PROC			; CTimeRealDataModule::~CTimeRealDataModule, COMDAT
; _this$ = ecx

; 579  : {

  00000	56		 push	 esi
  00001	8b f1		 mov	 esi, ecx

; 580  : }

  00003	8d 8e ac 00 00
	00		 lea	 ecx, DWORD PTR [esi+172]
  00009	c7 06 00 00 00
	00		 mov	 DWORD PTR [esi], OFFSET ??_7CTimeRealDataModule@@6B@
  0000f	ff 15 00 00 00
	00		 call	 DWORD PTR __imp_??1?$CStringT@DV?$StrTraitMFC_DLL@DV?$ChTraitsCRT@D@ATL@@@@@ATL@@QAE@XZ

; 49   : }

  00015	8d 4e 7c	 lea	 ecx, DWORD PTR [esi+124]
  00018	c7 06 00 00 00
	00		 mov	 DWORD PTR [esi], OFFSET ??_7CTimeRealDataModuleBase@@6B@
  0001e	e8 00 00 00 00	 call	 ??1CMapPtrToPtr@@UAE@XZ	; CMapPtrToPtr::~CMapPtrToPtr
  00023	8d 4e 60	 lea	 ecx, DWORD PTR [esi+96]
  00026	e8 00 00 00 00	 call	 ??1CMapPtrToPtr@@UAE@XZ	; CMapPtrToPtr::~CMapPtrToPtr
  0002b	8d 4e 08	 lea	 ecx, DWORD PTR [esi+8]
  0002e	5e		 pop	 esi
  0002f	e9 00 00 00 00	 jmp	 ??1CTimeTypeConvert@@UAE@XZ ; CTimeTypeConvert::~CTimeTypeConvert
??1CTimeRealDataModule@@UAE@XZ ENDP			; CTimeRealDataModule::~CTimeRealDataModule
_TEXT	ENDS
; Function compile flags: /Ogtp
; File D:\git\src\IBK\IBK_DRFN\ProjSrc\SrcChartEx\ChartOCX\PacketData\TimeRealDataModule.cpp
; File C:\Program Files (x86)\Microsoft Visual Studio\2019\Community\VC\Tools\MSVC\14.29.30133\atlmfc\include\cstringt.h
; File D:\git\src\IBK\IBK_DRFN\ProjSrc\SrcChartEx\ChartOCX\PacketData\TimeRealDataModule.cpp
; File C:\Program Files (x86)\Microsoft Visual Studio\2019\Community\VC\Tools\MSVC\14.29.30133\atlmfc\include\cstringt.h
; File D:\git\src\IBK\IBK_DRFN\ProjSrc\SrcChartEx\ChartOCX\PacketData\TimeRealDataModule.cpp
; File C:\Program Files (x86)\Microsoft Visual Studio\2019\Community\VC\Tools\MSVC\14.29.30133\atlmfc\include\cstringt.h
; File D:\git\src\IBK\IBK_DRFN\ProjSrc\SrcChartEx\ChartOCX\PacketData\TimeRealDataModule.cpp
; File D:\git\src\IBK\IBK_DRFN\ProjSrc\SrcChartEx\ChartOCX\Include_Chart\TimeTypeConvert.h
; File D:\git\src\IBK\IBK_DRFN\ProjSrc\SrcChartEx\ChartOCX\PacketData\TimeRealDataModule.cpp
;	COMDAT ??0CTimeRealDataModule@@QAE@ABVCDateData@@AAVCMarketTimeData@@ABV?$CStringT@DV?$StrTraitMFC_DLL@DV?$ChTraitsCRT@D@ATL@@@@@ATL@@H2W4HORZSCALEDRAWERTYPE@CScaleBaseData@@@Z
_TEXT	SEGMENT
_this$ = -16						; size = 4
__$EHRec$ = -12						; size = 12
_dateData$ = 8						; size = 4
_p_marketTimeData$ = 12					; size = 4
_strPacketType$ = 16					; size = 4
_nTimeInterval$ = 20					; size = 4
_strMarketStartTime$ = 24				; size = 4
_eDateUnitType$ = 28					; size = 4
??0CTimeRealDataModule@@QAE@ABVCDateData@@AAVCMarketTimeData@@ABV?$CStringT@DV?$StrTraitMFC_DLL@DV?$ChTraitsCRT@D@ATL@@@@@ATL@@H2W4HORZSCALEDRAWERTYPE@CScaleBaseData@@@Z PROC ; CTimeRealDataModule::CTimeRealDataModule, COMDAT
; _this$ = ecx

; 556  : {

  00000	55		 push	 ebp
  00001	8b ec		 mov	 ebp, esp
  00003	6a ff		 push	 -1
  00005	68 00 00 00 00	 push	 __ehhandler$??0CTimeRealDataModule@@QAE@ABVCDateData@@AAVCMarketTimeData@@ABV?$CStringT@DV?$StrTraitMFC_DLL@DV?$ChTraitsCRT@D@ATL@@@@@ATL@@H2W4HORZSCALEDRAWERTYPE@CScaleBaseData@@@Z
  0000a	64 a1 00 00 00
	00		 mov	 eax, DWORD PTR fs:0
  00010	50		 push	 eax
  00011	51		 push	 ecx
  00012	56		 push	 esi
  00013	57		 push	 edi
  00014	a1 00 00 00 00	 mov	 eax, DWORD PTR ___security_cookie
  00019	33 c5		 xor	 eax, ebp
  0001b	50		 push	 eax
  0001c	8d 45 f4	 lea	 eax, DWORD PTR __$EHRec$[ebp]
  0001f	64 a3 00 00 00
	00		 mov	 DWORD PTR fs:0, eax
  00025	8b f9		 mov	 edi, ecx
  00027	89 7d f0	 mov	 DWORD PTR _this$[ebp], edi

; 552  : 	:	CTimeRealDataModuleBase( p_marketTimeData, strPacketType, eDateUnitType),

  0002a	ff 75 1c	 push	 DWORD PTR _eDateUnitType$[ebp]
  0002d	ff 75 10	 push	 DWORD PTR _strPacketType$[ebp]
  00030	ff 75 0c	 push	 DWORD PTR _p_marketTimeData$[ebp]
  00033	e8 00 00 00 00	 call	 ??0CTimeRealDataModuleBase@@QAE@AAVCMarketTimeData@@ABV?$CStringT@DV?$StrTraitMFC_DLL@DV?$ChTraitsCRT@D@ATL@@@@@ATL@@W4HORZSCALEDRAWERTYPE@CScaleBaseData@@@Z ; CTimeRealDataModuleBase::CTimeRealDataModuleBase

; 556  : {

  00038	8d 8f ac 00 00
	00		 lea	 ecx, DWORD PTR [edi+172]
  0003e	c7 45 fc 00 00
	00 00		 mov	 DWORD PTR __$EHRec$[ebp+8], 0
  00045	c7 07 00 00 00
	00		 mov	 DWORD PTR [edi], OFFSET ??_7CTimeRealDataModule@@6B@
  0004b	ff 15 00 00 00
	00		 call	 DWORD PTR __imp_??0?$CStringT@DV?$StrTraitMFC_DLL@DV?$ChTraitsCRT@D@ATL@@@@@ATL@@QAE@XZ

; 553  : 		m_dateData(dateData),

  00051	8b 45 08	 mov	 eax, DWORD PTR _dateData$[ebp]

; 563  : 	if (m_ttcTrPacket.GetPacketType() == "YYYYMMDDHHMMSS")

  00054	8d 4f 10	 lea	 ecx, DWORD PTR [edi+16]
; File C:\Program Files (x86)\Microsoft Visual Studio\2019\Community\VC\Tools\MSVC\14.29.30133\atlmfc\include\cstringt.h

; 2486 : 		return(str1.Compare(psz2) == 0);

  00057	be 01 00 00 00	 mov	 esi, 1
; File D:\git\src\IBK\IBK_DRFN\ProjSrc\SrcChartEx\ChartOCX\PacketData\TimeRealDataModule.cpp

; 556  : {

  0005c	c6 45 fc 01	 mov	 BYTE PTR __$EHRec$[ebp+8], 1
; File C:\Program Files (x86)\Microsoft Visual Studio\2019\Community\VC\Tools\MSVC\14.29.30133\atlmfc\include\cstringt.h

; 2486 : 		return(str1.Compare(psz2) == 0);

  00060	39 75 14	 cmp	 DWORD PTR _nTimeInterval$[ebp], esi
  00063	68 00 00 00 00	 push	 OFFSET ??_C@_0P@IMPIBBAB@YYYYMMDDHHMMSS@
  00068	0f 4d 75 14	 cmovge	 esi, DWORD PTR _nTimeInterval$[ebp]
; File D:\git\src\IBK\IBK_DRFN\ProjSrc\SrcChartEx\ChartOCX\PacketData\TimeRealDataModule.cpp

; 554  : 		m_nTimeRangeStart( 0),

  0006c	c7 87 b0 00 00
	00 00 00 00 00	 mov	 DWORD PTR [edi+176], 0
  00076	c7 87 b4 00 00
	00 00 00 00 00	 mov	 DWORD PTR [edi+180], 0

; 555  : 		m_nTimeRangeEnd( 0)

  00080	c7 87 b8 00 00
	00 00 00 00 00	 mov	 DWORD PTR [edi+184], 0
  0008a	c7 87 bc 00 00
	00 00 00 00 00	 mov	 DWORD PTR [edi+188], 0

; 553  : 		m_dateData(dateData),

  00094	89 87 c0 00 00
	00		 mov	 DWORD PTR [edi+192], eax
; File C:\Program Files (x86)\Microsoft Visual Studio\2019\Community\VC\Tools\MSVC\14.29.30133\atlmfc\include\cstringt.h

; 2486 : 		return(str1.Compare(psz2) == 0);

  0009a	ff 15 00 00 00
	00		 call	 DWORD PTR __imp_?Compare@?$CStringT@DV?$StrTraitMFC_DLL@DV?$ChTraitsCRT@D@ATL@@@@@ATL@@QBEHPBD@Z
  000a0	85 c0		 test	 eax, eax
; File D:\git\src\IBK\IBK_DRFN\ProjSrc\SrcChartEx\ChartOCX\PacketData\TimeRealDataModule.cpp

; 563  : 	if (m_ttcTrPacket.GetPacketType() == "YYYYMMDDHHMMSS")

  000a2	75 06		 jne	 SHORT $LN3@CTimeRealD

; 564  : 		m_nTimeInterval = nTimeInterval * 100;

  000a4	6b c6 64	 imul	 eax, esi, 100
  000a7	99		 cdq
  000a8	eb 10		 jmp	 SHORT $LN4@CTimeRealD
$LN3@CTimeRealD:

; 565  : 	else
; 566  : 		m_nTimeInterval = m_ttcTrPacket.GetFullTypeTime( nTimeInterval);

  000aa	8b c6		 mov	 eax, esi
  000ac	99		 cdq
; File D:\git\src\IBK\IBK_DRFN\ProjSrc\SrcChartEx\ChartOCX\Include_Chart\TimeTypeConvert.h

; 48   : 						return p_nTime *= m_nMinimumUnitTime;	

  000ad	52		 push	 edx
  000ae	50		 push	 eax
  000af	ff 77 3c	 push	 DWORD PTR [edi+60]
  000b2	ff 77 38	 push	 DWORD PTR [edi+56]
  000b5	e8 00 00 00 00	 call	 __allmul
$LN4@CTimeRealD:
; File D:\git\src\IBK\IBK_DRFN\ProjSrc\SrcChartEx\ChartOCX\PacketData\TimeRealDataModule.cpp

; 571  : 	m_strMarketStartTime = strMarketStartTime;

  000ba	ff 75 18	 push	 DWORD PTR _strMarketStartTime$[ebp]
  000bd	89 87 a0 00 00
	00		 mov	 DWORD PTR [edi+160], eax
  000c3	8d 8f ac 00 00
	00		 lea	 ecx, DWORD PTR [edi+172]
  000c9	89 97 a4 00 00
	00		 mov	 DWORD PTR [edi+164], edx
  000cf	ff 15 00 00 00
	00		 call	 DWORD PTR __imp_??4?$CStringT@DV?$StrTraitMFC_DLL@DV?$ChTraitsCRT@D@ATL@@@@@ATL@@QAEAAV01@ABV01@@Z

; 572  : 	m_nMarketStartTime = atoi( m_strMarketStartTime);

  000d5	ff b7 ac 00 00
	00		 push	 DWORD PTR [edi+172]
  000db	ff 15 00 00 00
	00		 call	 DWORD PTR __imp__atoi
  000e1	89 87 a8 00 00
	00		 mov	 DWORD PTR [edi+168], eax
  000e7	83 c4 04	 add	 esp, 4

; 573  : 
; 574  : 	// (2009/10/27 - Seung-Won, Bae) the Flag for real after special code like market end.
; 575  : 	m_bMarketOn = TRUE;

  000ea	c7 87 c4 00 00
	00 01 00 00 00	 mov	 DWORD PTR [edi+196], 1

; 576  : }

  000f4	8b c7		 mov	 eax, edi
  000f6	8b 4d f4	 mov	 ecx, DWORD PTR __$EHRec$[ebp]
  000f9	64 89 0d 00 00
	00 00		 mov	 DWORD PTR fs:0, ecx
  00100	59		 pop	 ecx
  00101	5f		 pop	 edi
  00102	5e		 pop	 esi
  00103	8b e5		 mov	 esp, ebp
  00105	5d		 pop	 ebp
  00106	c2 18 00	 ret	 24			; 00000018H
_TEXT	ENDS
;	COMDAT text$x
text$x	SEGMENT
__unwindfunclet$??0CTimeRealDataModule@@QAE@ABVCDateData@@AAVCMarketTimeData@@ABV?$CStringT@DV?$StrTraitMFC_DLL@DV?$ChTraitsCRT@D@ATL@@@@@ATL@@H2W4HORZSCALEDRAWERTYPE@CScaleBaseData@@@Z$0:
  00000	8b 4d f0	 mov	 ecx, DWORD PTR _this$[ebp]
  00003	e9 00 00 00 00	 jmp	 ??1CTimeRealDataModuleBase@@UAE@XZ ; CTimeRealDataModuleBase::~CTimeRealDataModuleBase
__unwindfunclet$??0CTimeRealDataModule@@QAE@ABVCDateData@@AAVCMarketTimeData@@ABV?$CStringT@DV?$StrTraitMFC_DLL@DV?$ChTraitsCRT@D@ATL@@@@@ATL@@H2W4HORZSCALEDRAWERTYPE@CScaleBaseData@@@Z$1:
  00008	8b 4d f0	 mov	 ecx, DWORD PTR _this$[ebp]
  0000b	81 c1 ac 00 00
	00		 add	 ecx, 172		; 000000acH
  00011	ff 25 00 00 00
	00		 jmp	 DWORD PTR __imp_??1?$CStringT@DV?$StrTraitMFC_DLL@DV?$ChTraitsCRT@D@ATL@@@@@ATL@@QAE@XZ
  00017	cc		 int	 3
  00018	cc		 int	 3
  00019	cc		 int	 3
  0001a	cc		 int	 3
  0001b	cc		 int	 3
__ehhandler$??0CTimeRealDataModule@@QAE@ABVCDateData@@AAVCMarketTimeData@@ABV?$CStringT@DV?$StrTraitMFC_DLL@DV?$ChTraitsCRT@D@ATL@@@@@ATL@@H2W4HORZSCALEDRAWERTYPE@CScaleBaseData@@@Z:
  0001c	90		 npad	 1
  0001d	90		 npad	 1
  0001e	8b 54 24 08	 mov	 edx, DWORD PTR [esp+8]
  00022	8d 42 0c	 lea	 eax, DWORD PTR [edx+12]
  00025	8b 4a f0	 mov	 ecx, DWORD PTR [edx-16]
  00028	33 c8		 xor	 ecx, eax
  0002a	e8 00 00 00 00	 call	 @__security_check_cookie@4
  0002f	b8 00 00 00 00	 mov	 eax, OFFSET __ehfuncinfo$??0CTimeRealDataModule@@QAE@ABVCDateData@@AAVCMarketTimeData@@ABV?$CStringT@DV?$StrTraitMFC_DLL@DV?$ChTraitsCRT@D@ATL@@@@@ATL@@H2W4HORZSCALEDRAWERTYPE@CScaleBaseData@@@Z
  00034	e9 00 00 00 00	 jmp	 ___CxxFrameHandler3
text$x	ENDS
??0CTimeRealDataModule@@QAE@ABVCDateData@@AAVCMarketTimeData@@ABV?$CStringT@DV?$StrTraitMFC_DLL@DV?$ChTraitsCRT@D@ATL@@@@@ATL@@H2W4HORZSCALEDRAWERTYPE@CScaleBaseData@@@Z ENDP ; CTimeRealDataModule::CTimeRealDataModule
; Function compile flags: /Ogtp
; File D:\git\src\IBK\IBK_DRFN\ProjSrc\SrcChartEx\ChartOCX\PacketData\TimeRealDataModule.cpp
;	COMDAT ??_GCWeekRealDataModule@@UAEPAXI@Z
_TEXT	SEGMENT
___flags$ = 8						; size = 4
??_GCWeekRealDataModule@@UAEPAXI@Z PROC			; CWeekRealDataModule::`scalar deleting destructor', COMDAT
; _this$ = ecx
  00000	55		 push	 ebp
  00001	8b ec		 mov	 ebp, esp

; 48   : {

  00003	56		 push	 esi
  00004	8b f1		 mov	 esi, ecx

; 49   : }

  00006	8d 4e 7c	 lea	 ecx, DWORD PTR [esi+124]
  00009	c7 06 00 00 00
	00		 mov	 DWORD PTR [esi], OFFSET ??_7CTimeRealDataModuleBase@@6B@
  0000f	e8 00 00 00 00	 call	 ??1CMapPtrToPtr@@UAE@XZ	; CMapPtrToPtr::~CMapPtrToPtr
  00014	8d 4e 60	 lea	 ecx, DWORD PTR [esi+96]
  00017	e8 00 00 00 00	 call	 ??1CMapPtrToPtr@@UAE@XZ	; CMapPtrToPtr::~CMapPtrToPtr
  0001c	8d 4e 08	 lea	 ecx, DWORD PTR [esi+8]
  0001f	e8 00 00 00 00	 call	 ??1CTimeTypeConvert@@UAE@XZ ; CTimeTypeConvert::~CTimeTypeConvert
  00024	f6 45 08 01	 test	 BYTE PTR ___flags$[ebp], 1
  00028	74 0e		 je	 SHORT $LN10@scalar
  0002a	68 a0 00 00 00	 push	 160			; 000000a0H
  0002f	56		 push	 esi
  00030	e8 00 00 00 00	 call	 ??3@YAXPAXI@Z		; operator delete
  00035	83 c4 08	 add	 esp, 8
$LN10@scalar:
  00038	8b c6		 mov	 eax, esi
  0003a	5e		 pop	 esi
  0003b	5d		 pop	 ebp
  0003c	c2 04 00	 ret	 4
??_GCWeekRealDataModule@@UAEPAXI@Z ENDP			; CWeekRealDataModule::`scalar deleting destructor'
_TEXT	ENDS
; Function compile flags: /Ogtp
; File D:\git\src\IBK\IBK_DRFN\ProjSrc\SrcChartEx\ChartOCX\PacketData\TimeRealDataModule.cpp
;	COMDAT ?GetTimeIntervalWithSecond@CWeekRealDataModule@@MAE_JXZ
_TEXT	SEGMENT
?GetTimeIntervalWithSecond@CWeekRealDataModule@@MAE_JXZ PROC ; CWeekRealDataModule::GetTimeIntervalWithSecond, COMDAT
; _this$ = ecx

; 543  : 	return __int64( 60. * 60. * 24. * 7.);

  00000	b8 80 3a 09 00	 mov	 eax, 604800		; 00093a80H
  00005	33 d2		 xor	 edx, edx

; 544  : }

  00007	c3		 ret	 0
?GetTimeIntervalWithSecond@CWeekRealDataModule@@MAE_JXZ ENDP ; CWeekRealDataModule::GetTimeIntervalWithSecond
_TEXT	ENDS
; Function compile flags: /Ogtp
; File D:\git\src\IBK\IBK_DRFN\ProjSrc\SrcChartEx\ChartOCX\PacketData\TimeRealDataModule.cpp
; File C:\Program Files (x86)\Microsoft Visual Studio\2019\Community\VC\Tools\MSVC\14.29.30133\atlmfc\include\afxtempl.h
; File D:\git\src\IBK\IBK_DRFN\ProjSrc\SrcChartEx\ChartOCX\PacketData\TimeRealDataModule.cpp
; File C:\Program Files (x86)\Microsoft Visual Studio\2019\Community\VC\Tools\MSVC\14.29.30133\atlmfc\include\cstringt.h
; File D:\git\src\IBK\IBK_DRFN\ProjSrc\SrcChartEx\ChartOCX\PacketData\TimeRealDataModule.cpp
; File C:\Program Files (x86)\Microsoft Visual Studio\2019\Community\VC\Tools\MSVC\14.29.30133\atlmfc\include\cstringt.h
; File D:\git\src\IBK\IBK_DRFN\ProjSrc\SrcChartEx\ChartOCX\PacketData\TimeRealDataModule.cpp
; File C:\Program Files (x86)\Microsoft Visual Studio\2019\Community\VC\Tools\MSVC\14.29.30133\atlmfc\include\afxtempl.h
; File D:\git\src\IBK\IBK_DRFN\ProjSrc\SrcChartEx\ChartOCX\PacketData\TimeRealDataModule.cpp
;	COMDAT ?GetRealData_CloseTime@CWeekRealDataModule@@MAE_NPAVCPacket@@AA_J@Z
_TEXT	SEGMENT
_nMarketEndTime$ = -16					; size = 4
_nLastMarketDay$1 = -12					; size = 8
_this$1$ = -8						; size = 4
_nMarketStartTime$ = -4					; size = 4
_nLastMarketDay$1$ = 8					; size = 4
_i$1$ = 8						; size = 4
_pPacket$ = 8						; size = 4
tv432 = 12						; size = 4
_p_nRealDataTime$ = 12					; size = 4
?GetRealData_CloseTime@CWeekRealDataModule@@MAE_NPAVCPacket@@AA_J@Z PROC ; CWeekRealDataModule::GetRealData_CloseTime, COMDAT
; _this$ = ecx

; 460  : {

  00000	55		 push	 ebp
  00001	8b ec		 mov	 ebp, esp
  00003	83 ec 10	 sub	 esp, 16			; 00000010H
  00006	53		 push	 ebx
  00007	56		 push	 esi
  00008	57		 push	 edi
  00009	8b d9		 mov	 ebx, ecx

; 461  : 	int nMarketStartTime = -1, nMarketEndTime = -1;

  0000b	c7 45 fc ff ff
	ff ff		 mov	 DWORD PTR _nMarketStartTime$[ebp], -1

; 462  : 	if( !m_marketTimeData.GetMarketTime( nMarketStartTime, nMarketEndTime)) return false;

  00012	8d 45 f0	 lea	 eax, DWORD PTR _nMarketEndTime$[ebp]
  00015	89 5d f8	 mov	 DWORD PTR _this$1$[ebp], ebx
  00018	50		 push	 eax
  00019	8d 45 fc	 lea	 eax, DWORD PTR _nMarketStartTime$[ebp]
  0001c	c7 45 f0 ff ff
	ff ff		 mov	 DWORD PTR _nMarketEndTime$[ebp], -1
  00023	8b 4b 54	 mov	 ecx, DWORD PTR [ebx+84]
  00026	50		 push	 eax
  00027	e8 00 00 00 00	 call	 ?GetMarketTime@CMarketTimeData@@QBE_NAAH0@Z ; CMarketTimeData::GetMarketTime
  0002c	84 c0		 test	 al, al
  0002e	0f 84 39 01 00
	00		 je	 $LN48@GetRealDat

; 463  : 
; 464  : 	if( pPacket->GetCount() <= 0) 

  00034	8b 75 08	 mov	 esi, DWORD PTR _pPacket$[ebp]
  00037	8b ce		 mov	 ecx, esi
  00039	8b 06		 mov	 eax, DWORD PTR [esi]
  0003b	ff 50 14	 call	 DWORD PTR [eax+20]
  0003e	85 c0		 test	 eax, eax
  00040	0f 8e 27 01 00
	00		 jle	 $LN48@GetRealDat

; 467  : 	__int64 nEndDate = ( __int64)pPacket->GetnumericDataList()->GetTail();

  00046	8b ce		 mov	 ecx, esi
  00048	e8 00 00 00 00	 call	 ?GetnumericDataList@CPacket@@QAEPAV?$CList@NN@@XZ ; CPacket::GetnumericDataList
; File C:\Program Files (x86)\Microsoft Visual Studio\2019\Community\VC\Tools\MSVC\14.29.30133\atlmfc\include\afxtempl.h

; 797  : 	{ ENSURE(m_pNodeTail != NULL);

  0004d	8b 40 08	 mov	 eax, DWORD PTR [eax+8]
  00050	85 c0		 test	 eax, eax
  00052	0f 84 18 02 00
	00		 je	 $LN57@GetRealDat
; File D:\git\src\IBK\IBK_DRFN\ProjSrc\SrcChartEx\ChartOCX\PacketData\TimeRealDataModule.cpp

; 467  : 	__int64 nEndDate = ( __int64)pPacket->GetnumericDataList()->GetTail();

  00058	f2 0f 10 40 08	 movsd	 xmm0, QWORD PTR [eax+8]
  0005d	e8 00 00 00 00	 call	 __dtol3
; File C:\Program Files (x86)\Microsoft Visual Studio\2019\Community\VC\Tools\MSVC\14.29.30133\atlmfc\include\cstringt.h

; 2486 : 		return(str1.Compare(psz2) == 0);

  00062	68 00 00 00 00	 push	 OFFSET ??_C@_0P@IMPIBBAB@YYYYMMDDHHMMSS@
; File D:\git\src\IBK\IBK_DRFN\ProjSrc\SrcChartEx\ChartOCX\PacketData\TimeRealDataModule.cpp

; 472  : 	if (m_ttcTrPacket.GetPacketType() == "YYYYMMDDHHMMSS")

  00067	8d 4b 10	 lea	 ecx, DWORD PTR [ebx+16]
  0006a	8b f8		 mov	 edi, eax
  0006c	8b f2		 mov	 esi, edx
; File C:\Program Files (x86)\Microsoft Visual Studio\2019\Community\VC\Tools\MSVC\14.29.30133\atlmfc\include\cstringt.h

; 2486 : 		return(str1.Compare(psz2) == 0);

  0006e	ff 15 00 00 00
	00		 call	 DWORD PTR __imp_?Compare@?$CStringT@DV?$StrTraitMFC_DLL@DV?$ChTraitsCRT@D@ATL@@@@@ATL@@QBEHPBD@Z
  00074	85 c0		 test	 eax, eax
; File D:\git\src\IBK\IBK_DRFN\ProjSrc\SrcChartEx\ChartOCX\PacketData\TimeRealDataModule.cpp

; 472  : 	if (m_ttcTrPacket.GetPacketType() == "YYYYMMDDHHMMSS")

  00076	75 07		 jne	 SHORT $LN10@GetRealDat

; 473  : 		nEndDate = nEndDate * 1000000;

  00078	b9 40 42 0f 00	 mov	 ecx, 1000000		; 000f4240H
  0007d	eb 06		 jmp	 SHORT $LN11@GetRealDat
$LN10@GetRealDat:

; 474  : 	else
; 475  : 		nEndDate = m_ttcTrPacket.GetFullTypeTime(nEndDate);

  0007f	8b 4b 38	 mov	 ecx, DWORD PTR [ebx+56]
  00082	8b 43 3c	 mov	 eax, DWORD PTR [ebx+60]
$LN11@GetRealDat:

; 476  : 	nEndDate = nEndDate + nMarketStartTime;

  00085	50		 push	 eax
  00086	51		 push	 ecx
  00087	56		 push	 esi
  00088	57		 push	 edi
  00089	e8 00 00 00 00	 call	 __allmul
  0008e	8b c8		 mov	 ecx, eax
  00090	8b f2		 mov	 esi, edx
  00092	8b 45 fc	 mov	 eax, DWORD PTR _nMarketStartTime$[ebp]
  00095	99		 cdq
  00096	03 c8		 add	 ecx, eax
  00098	13 f2		 adc	 esi, edx

; 477  : 	// 2011.01.21 by SYS <<
; 478  : 
; 479  : 	//<<20100511_JS.Kim .        
; 480  : 	//			      ????
; 481  : 	//if( CChartInfo::WORLD_ON == m_nChartModeSetting && m_marketTimeData.IsReverseTime())
; 482  : 	//	nEndDate = CDataConversion::CalcTimeSum( nEndDate, -1000000);
; 483  : 	//>>
; 484  : 
; 485  : 	if( nEndDate < 0) return false;

  0009a	0f 88 cd 00 00
	00		 js	 $LN48@GetRealDat
  000a0	7f 08		 jg	 SHORT $LN49@GetRealDat
  000a2	85 c9		 test	 ecx, ecx
  000a4	0f 82 c3 00 00
	00		 jb	 $LN48@GetRealDat
$LN49@GetRealDat:

; 486  : 
; 487  : 	if( m_bCloseEmptyCandleWhenEnd)

  000aa	83 7b 5c 00	 cmp	 DWORD PTR [ebx+92], 0
  000ae	0f 84 e4 00 00
	00		 je	 $LN13@GetRealDat

; 488  : 	{
; 489  : 		if( 0 <= m_nClockedDataCount)

  000b4	83 7b 40 00	 cmp	 DWORD PTR [ebx+64], 0
  000b8	7c 17		 jl	 SHORT $LN15@GetRealDat

; 490  : 			nEndDate = CDataConversion::CalcTimeSum( nEndDate, 7000000);

  000ba	6a 00		 push	 0
  000bc	6a 00		 push	 0
  000be	68 c0 cf 6a 00	 push	 7000000			; 006acfc0H
  000c3	56		 push	 esi
  000c4	51		 push	 ecx
  000c5	e8 00 00 00 00	 call	 ?CalcTimeSum@CDataConversion@@SA_J_J0H@Z ; CDataConversion::CalcTimeSum
  000ca	83 c4 14	 add	 esp, 20			; 00000014H
  000cd	8b c8		 mov	 ecx, eax
  000cf	8b f2		 mov	 esi, edx
$LN15@GetRealDat:

; 491  : 		nEndDate = CDataConversion::CalcTimeSum( nEndDate, 7000000);

  000d1	6a 00		 push	 0
  000d3	6a 00		 push	 0
  000d5	68 c0 cf 6a 00	 push	 7000000			; 006acfc0H
  000da	56		 push	 esi
  000db	51		 push	 ecx
  000dc	e8 00 00 00 00	 call	 ?CalcTimeSum@CDataConversion@@SA_J_J0H@Z ; CDataConversion::CalcTimeSum

; 492  : 
; 493  : 		if( p_nRealDataTime <= nEndDate) 

  000e1	8b 75 0c	 mov	 esi, DWORD PTR _p_nRealDataTime$[ebp]
  000e4	83 c4 14	 add	 esp, 20			; 00000014H
  000e7	8b f8		 mov	 edi, eax
  000e9	39 56 04	 cmp	 DWORD PTR [esi+4], edx
  000ec	7c 7f		 jl	 SHORT $LN48@GetRealDat
  000ee	7f 04		 jg	 SHORT $LN50@GetRealDat
  000f0	39 3e		 cmp	 DWORD PTR [esi], edi
  000f2	76 79		 jbe	 SHORT $LN48@GetRealDat
$LN50@GetRealDat:

; 494  : 			return false;
; 495  : 
; 496  : 		__int64 nLastMarketDay = -1;
; 497  : 		if( CChartInfo::WORLD_ON == m_nChartModeSetting)

  000f4	83 7b 58 03	 cmp	 DWORD PTR [ebx+88], 3
  000f8	75 2c		 jne	 SHORT $LN17@GetRealDat

; 498  : 		{
; 499  : 			nLastMarketDay = CDataConversion::CalcTimeSum( nEndDate, -7000000);

  000fa	6a 00		 push	 0
  000fc	6a ff		 push	 -1
  000fe	68 40 30 95 ff	 push	 -7000000		; ff953040H
  00103	52		 push	 edx
  00104	57		 push	 edi
  00105	e8 00 00 00 00	 call	 ?CalcTimeSum@CDataConversion@@SA_J_J0H@Z ; CDataConversion::CalcTimeSum
  0010a	83 c4 14	 add	 esp, 20			; 00000014H
  0010d	89 45 f4	 mov	 DWORD PTR _nLastMarketDay$1[ebp], eax

; 500  : 			GetMarketDate_DateTime( nLastMarketDay);

  00110	8d 45 f4	 lea	 eax, DWORD PTR _nLastMarketDay$1[ebp]
  00113	89 55 f8	 mov	 DWORD PTR _nLastMarketDay$1[ebp+4], edx
  00116	8b cb		 mov	 ecx, ebx
  00118	50		 push	 eax
  00119	e8 00 00 00 00	 call	 ?GetMarketDate_DateTime@CTimeRealDataModuleBase@@QBEXAA_J@Z ; CTimeRealDataModuleBase::GetMarketDate_DateTime

; 501  : 		}

  0011e	8b 55 f8	 mov	 edx, DWORD PTR _nLastMarketDay$1[ebp+4]
  00121	8b 7d f4	 mov	 edi, DWORD PTR _nLastMarketDay$1[ebp]
  00124	eb 55		 jmp	 SHORT $LN3@GetRealDat
$LN17@GetRealDat:

; 502  : 		else
; 503  : 		{
; 504  : 			for( int i = 0; i < 7; i++)

  00126	33 f6		 xor	 esi, esi
  00128	0f 1f 84 00 00
	00 00 00	 npad	 8
$LL4@GetRealDat:

; 505  : 			{
; 506  : 				nEndDate = CDataConversion::CalcTimeSum( nEndDate, -1000000);

  00130	6a 00		 push	 0
  00132	6a ff		 push	 -1
  00134	68 c0 bd f0 ff	 push	 -1000000		; fff0bdc0H
  00139	52		 push	 edx
  0013a	57		 push	 edi
  0013b	e8 00 00 00 00	 call	 ?CalcTimeSum@CDataConversion@@SA_J_J0H@Z ; CDataConversion::CalcTimeSum
  00140	83 c4 14	 add	 esp, 20			; 00000014H
  00143	8b f8		 mov	 edi, eax
  00145	8b c2		 mov	 eax, edx
  00147	89 45 08	 mov	 DWORD PTR _nLastMarketDay$1$[ebp], eax

; 507  : 				if( IsMarketDay( int( nEndDate / 1000000)))

  0014a	6a 00		 push	 0
  0014c	68 40 42 0f 00	 push	 1000000			; 000f4240H
  00151	50		 push	 eax
  00152	57		 push	 edi
  00153	e8 00 00 00 00	 call	 __alldiv
  00158	50		 push	 eax
  00159	8b cb		 mov	 ecx, ebx
  0015b	e8 00 00 00 00	 call	 ?IsMarketDay@CTimeRealDataModuleBase@@QAEHH@Z ; CTimeRealDataModuleBase::IsMarketDay
  00160	8b 55 08	 mov	 edx, DWORD PTR _nLastMarketDay$1$[ebp]
  00163	85 c0		 test	 eax, eax
  00165	75 11		 jne	 SHORT $LN38@GetRealDat

; 502  : 		else
; 503  : 		{
; 504  : 			for( int i = 0; i < 7; i++)

  00167	46		 inc	 esi
  00168	83 fe 07	 cmp	 esi, 7
  0016b	7c c3		 jl	 SHORT $LL4@GetRealDat
$LN48@GetRealDat:
  0016d	5f		 pop	 edi

; 538  : }

  0016e	5e		 pop	 esi
  0016f	32 c0		 xor	 al, al
  00171	5b		 pop	 ebx
  00172	8b e5		 mov	 esp, ebp
  00174	5d		 pop	 ebp
  00175	c2 08 00	 ret	 8
$LN38@GetRealDat:
  00178	8b 75 0c	 mov	 esi, DWORD PTR _p_nRealDataTime$[ebp]
$LN3@GetRealDat:

; 508  : 				{
; 509  : 					nLastMarketDay = nEndDate;
; 510  : 					break;
; 511  : 				}
; 512  : 			}
; 513  : 		}
; 514  : 		if( nLastMarketDay < 0) return false;

  0017b	85 d2		 test	 edx, edx
  0017d	7c ee		 jl	 SHORT $LN48@GetRealDat
  0017f	7f 04		 jg	 SHORT $LN51@GetRealDat
  00181	85 ff		 test	 edi, edi
  00183	72 e8		 jb	 SHORT $LN48@GetRealDat
$LN51@GetRealDat:

; 515  : 		p_nRealDataTime = nLastMarketDay;

  00185	89 3e		 mov	 DWORD PTR [esi], edi

; 537  : 	return true;

  00187	b0 01		 mov	 al, 1
  00189	5f		 pop	 edi
  0018a	89 56 04	 mov	 DWORD PTR [esi+4], edx
  0018d	ff 43 40	 inc	 DWORD PTR [ebx+64]

; 538  : }

  00190	5e		 pop	 esi
  00191	5b		 pop	 ebx
  00192	8b e5		 mov	 esp, ebp
  00194	5d		 pop	 ebp
  00195	c2 08 00	 ret	 8
$LN13@GetRealDat:

; 516  : 	}
; 517  : 	else
; 518  : 	{
; 519  : 		nEndDate = CDataConversion::CalcTimeSum( nEndDate, 7000000);

  00198	6a 00		 push	 0
  0019a	6a 00		 push	 0
  0019c	68 c0 cf 6a 00	 push	 7000000			; 006acfc0H
  001a1	56		 push	 esi
  001a2	51		 push	 ecx
  001a3	e8 00 00 00 00	 call	 ?CalcTimeSum@CDataConversion@@SA_J_J0H@Z ; CDataConversion::CalcTimeSum
  001a8	83 c4 14	 add	 esp, 20			; 00000014H

; 520  : 		__int64 nLastMarketDay = -1;
; 521  : 		for( int i = 1; i < 7; i++)

  001ab	c7 45 08 01 00
	00 00		 mov	 DWORD PTR _i$1$[ebp], 1
  001b2	8b f0		 mov	 esi, eax
  001b4	8b fa		 mov	 edi, edx
$LL7@GetRealDat:

; 522  : 		{
; 523  : 			if( IsMarketDay( int( nEndDate / 1000000)))

  001b6	6a 00		 push	 0
  001b8	68 40 42 0f 00	 push	 1000000			; 000f4240H
  001bd	57		 push	 edi
  001be	56		 push	 esi
  001bf	e8 00 00 00 00	 call	 __alldiv
  001c4	50		 push	 eax
  001c5	8b cb		 mov	 ecx, ebx
  001c7	e8 00 00 00 00	 call	 ?IsMarketDay@CTimeRealDataModuleBase@@QAEHH@Z ; CTimeRealDataModuleBase::IsMarketDay
  001cc	85 c0		 test	 eax, eax
  001ce	75 2c		 jne	 SHORT $LN39@GetRealDat

; 524  : 			{
; 525  : 				nLastMarketDay = nEndDate;
; 526  : 				break;
; 527  : 			}
; 528  : 			nEndDate = CDataConversion::CalcTimeSum( nEndDate, 1000000);

  001d0	50		 push	 eax
  001d1	50		 push	 eax
  001d2	68 40 42 0f 00	 push	 1000000			; 000f4240H
  001d7	57		 push	 edi
  001d8	56		 push	 esi
  001d9	e8 00 00 00 00	 call	 ?CalcTimeSum@CDataConversion@@SA_J_J0H@Z ; CDataConversion::CalcTimeSum
  001de	8b f0		 mov	 esi, eax
  001e0	83 c4 14	 add	 esp, 20			; 00000014H
  001e3	8b 45 08	 mov	 eax, DWORD PTR _i$1$[ebp]
  001e6	8b fa		 mov	 edi, edx
  001e8	40		 inc	 eax
  001e9	89 45 08	 mov	 DWORD PTR _i$1$[ebp], eax
  001ec	83 f8 07	 cmp	 eax, 7
  001ef	7c c5		 jl	 SHORT $LL7@GetRealDat

; 538  : }

  001f1	5f		 pop	 edi
  001f2	5e		 pop	 esi
  001f3	32 c0		 xor	 al, al
  001f5	5b		 pop	 ebx
  001f6	8b e5		 mov	 esp, ebp
  001f8	5d		 pop	 ebp
  001f9	c2 08 00	 ret	 8
$LN39@GetRealDat:

; 529  : 		}
; 530  : 		if( nLastMarketDay < 0) return false;

  001fc	85 ff		 test	 edi, edi
  001fe	0f 8c 69 ff ff
	ff		 jl	 $LN48@GetRealDat
  00204	7f 08		 jg	 SHORT $LN52@GetRealDat
  00206	85 f6		 test	 esi, esi
  00208	0f 82 5f ff ff
	ff		 jb	 $LN48@GetRealDat
$LN52@GetRealDat:

; 531  : 		nLastMarketDay = CDataConversion::CalcTimeSum( nLastMarketDay, -1000000);

  0020e	6a 00		 push	 0
  00210	6a ff		 push	 -1
  00212	68 c0 bd f0 ff	 push	 -1000000		; fff0bdc0H
  00217	57		 push	 edi
  00218	56		 push	 esi
  00219	e8 00 00 00 00	 call	 ?CalcTimeSum@CDataConversion@@SA_J_J0H@Z ; CDataConversion::CalcTimeSum

; 532  : 
; 533  : 		if( p_nRealDataTime / 1000000 <= nLastMarketDay / 1000000) return false;

  0021e	8b 4d 0c	 mov	 ecx, DWORD PTR _p_nRealDataTime$[ebp]
  00221	83 c4 14	 add	 esp, 20			; 00000014H
  00224	8b d8		 mov	 ebx, eax
  00226	8b fa		 mov	 edi, edx
  00228	6a 00		 push	 0
  0022a	68 40 42 0f 00	 push	 1000000			; 000f4240H
  0022f	ff 71 04	 push	 DWORD PTR [ecx+4]
  00232	ff 31		 push	 DWORD PTR [ecx]
  00234	e8 00 00 00 00	 call	 __alldiv
  00239	6a 00		 push	 0
  0023b	68 40 42 0f 00	 push	 1000000			; 000f4240H
  00240	57		 push	 edi
  00241	53		 push	 ebx
  00242	89 45 0c	 mov	 DWORD PTR tv432[ebp], eax
  00245	8b f2		 mov	 esi, edx
  00247	e8 00 00 00 00	 call	 __alldiv
  0024c	3b f2		 cmp	 esi, edx
  0024e	0f 8c 19 ff ff
	ff		 jl	 $LN48@GetRealDat
  00254	7f 09		 jg	 SHORT $LN54@GetRealDat
  00256	39 45 0c	 cmp	 DWORD PTR tv432[ebp], eax
  00259	0f 86 0e ff ff
	ff		 jbe	 $LN48@GetRealDat
$LN54@GetRealDat:

; 534  : 	}
; 535  : 
; 536  : 	m_nClockedDataCount++;

  0025f	8b 5d f8	 mov	 ebx, DWORD PTR _this$1$[ebp]

; 537  : 	return true;

  00262	b0 01		 mov	 al, 1
  00264	5f		 pop	 edi

; 538  : }

  00265	5e		 pop	 esi
  00266	ff 43 40	 inc	 DWORD PTR [ebx+64]
  00269	5b		 pop	 ebx
  0026a	8b e5		 mov	 esp, ebp
  0026c	5d		 pop	 ebp
  0026d	c2 08 00	 ret	 8
$LN57@GetRealDat:
; File C:\Program Files (x86)\Microsoft Visual Studio\2019\Community\VC\Tools\MSVC\14.29.30133\atlmfc\include\afxtempl.h

; 797  : 	{ ENSURE(m_pNodeTail != NULL);

  00270	e8 00 00 00 00	 call	 ?AfxThrowInvalidArgException@@YGXXZ ; AfxThrowInvalidArgException
$LN55@GetRealDat:
  00275	cc		 int	 3
?GetRealData_CloseTime@CWeekRealDataModule@@MAE_NPAVCPacket@@AA_J@Z ENDP ; CWeekRealDataModule::GetRealData_CloseTime
_TEXT	ENDS
; Function compile flags: /Ogtp
; File D:\git\src\IBK\IBK_DRFN\ProjSrc\SrcChartEx\ChartOCX\PacketData\TimeRealDataModule.cpp
; File C:\Program Files (x86)\Windows Kits\10\Include\10.0.22000.0\ucrt\time.h
; File D:\git\src\IBK\IBK_DRFN\ProjSrc\SrcChartEx\ChartOCX\PacketData\TimeRealDataModule.cpp
; File C:\Program Files (x86)\Windows Kits\10\Include\10.0.22000.0\ucrt\time.h
; File D:\git\src\IBK\IBK_DRFN\ProjSrc\SrcChartEx\ChartOCX\PacketData\TimeRealDataModule.cpp
; File C:\Program Files (x86)\Windows Kits\10\Include\10.0.22000.0\ucrt\time.h
; File D:\git\src\IBK\IBK_DRFN\ProjSrc\SrcChartEx\ChartOCX\PacketData\TimeRealDataModule.cpp
; File C:\Program Files (x86)\Windows Kits\10\Include\10.0.22000.0\ucrt\time.h
; File D:\git\src\IBK\IBK_DRFN\ProjSrc\SrcChartEx\ChartOCX\PacketData\TimeRealDataModule.cpp
; File C:\Program Files (x86)\Windows Kits\10\Include\10.0.22000.0\ucrt\time.h
; File D:\git\src\IBK\IBK_DRFN\ProjSrc\SrcChartEx\ChartOCX\PacketData\TimeRealDataModule.cpp
;	COMDAT ?GetLastMondayDate@CWeekRealDataModule@@IAEH_J@Z
_TEXT	SEGMENT
_tmSum$ = -40						; size = 36
__$ArrayPad$ = -4					; size = 4
_p_nTime$ = 8						; size = 8
?GetLastMondayDate@CWeekRealDataModule@@IAEH_J@Z PROC	; CWeekRealDataModule::GetLastMondayDate, COMDAT
; _this$ = ecx

; 416  : {

  00000	55		 push	 ebp
  00001	8b ec		 mov	 ebp, esp
  00003	83 ec 28	 sub	 esp, 40			; 00000028H
  00006	a1 00 00 00 00	 mov	 eax, DWORD PTR ___security_cookie
  0000b	33 c5		 xor	 eax, ebp
  0000d	89 45 fc	 mov	 DWORD PTR __$ArrayPad$[ebp], eax
  00010	53		 push	 ebx
  00011	56		 push	 esi
  00012	57		 push	 edi

; 417  : 	tm tmSum;
; 418  : 	tmSum.tm_isdst = -1;			//[A00000554]alzioyes:20110530  .
; 419  : 
; 420  : 	tmSum.tm_sec = 0;
; 421  : 	tmSum.tm_min = 0;
; 422  : 	tmSum.tm_hour = 0;
; 423  : 	p_nTime /= 1000000;

  00013	6a 00		 push	 0
  00015	68 40 42 0f 00	 push	 1000000			; 000f4240H
  0001a	ff 75 0c	 push	 DWORD PTR _p_nTime$[ebp+4]
  0001d	c7 45 f8 ff ff
	ff ff		 mov	 DWORD PTR _tmSum$[ebp+32], -1
  00024	ff 75 08	 push	 DWORD PTR _p_nTime$[ebp]
  00027	c7 45 d8 00 00
	00 00		 mov	 DWORD PTR _tmSum$[ebp], 0
  0002e	c7 45 dc 00 00
	00 00		 mov	 DWORD PTR _tmSum$[ebp+4], 0
  00035	c7 45 e0 00 00
	00 00		 mov	 DWORD PTR _tmSum$[ebp+8], 0
  0003c	e8 00 00 00 00	 call	 __alldiv

; 424  : 
; 425  : 	tmSum.tm_mday = int( p_nTime % 100);

  00041	6a 00		 push	 0
  00043	6a 64		 push	 100			; 00000064H
  00045	8b f2		 mov	 esi, edx
  00047	8b d8		 mov	 ebx, eax
  00049	56		 push	 esi
  0004a	53		 push	 ebx
  0004b	e8 00 00 00 00	 call	 __alldiv
  00050	8b f8		 mov	 edi, eax
  00052	8b d3		 mov	 edx, ebx

; 427  : 	tmSum.tm_mon = int( p_nTime % 100) - 1;

  00054	6a 00		 push	 0
  00056	6b cf 64	 imul	 ecx, edi, 100
  00059	68 10 27 00 00	 push	 10000			; 00002710H
  0005e	56		 push	 esi
  0005f	53		 push	 ebx
  00060	2b d1		 sub	 edx, ecx
  00062	89 55 e4	 mov	 DWORD PTR _tmSum$[ebp+12], edx
  00065	e8 00 00 00 00	 call	 __alldiv
; File C:\Program Files (x86)\Windows Kits\10\Include\10.0.22000.0\ucrt\time.h

; 515  :             return _mktime64(_Tm);

  0006a	8b 35 00 00 00
	00		 mov	 esi, DWORD PTR __imp___mktime64
; File D:\git\src\IBK\IBK_DRFN\ProjSrc\SrcChartEx\ChartOCX\PacketData\TimeRealDataModule.cpp

; 427  : 	tmSum.tm_mon = int( p_nTime % 100) - 1;

  00070	6b c8 64	 imul	 ecx, eax, 100

; 428  : 	p_nTime /= 100;
; 429  : 	tmSum.tm_year = int( p_nTime) - 1900;

  00073	05 94 f8 ff ff	 add	 eax, -1900		; fffff894H
  00078	89 45 ec	 mov	 DWORD PTR _tmSum$[ebp+20], eax
; File C:\Program Files (x86)\Windows Kits\10\Include\10.0.22000.0\ucrt\time.h

; 515  :             return _mktime64(_Tm);

  0007b	8d 45 d8	 lea	 eax, DWORD PTR _tmSum$[ebp]
  0007e	50		 push	 eax
; File D:\git\src\IBK\IBK_DRFN\ProjSrc\SrcChartEx\ChartOCX\PacketData\TimeRealDataModule.cpp

; 431  : 	tmSum.tm_wday = 0;

  0007f	c7 45 f0 00 00
	00 00		 mov	 DWORD PTR _tmSum$[ebp+24], 0

; 432  : 	tmSum.tm_yday = 0;

  00086	c7 45 f4 00 00
	00 00		 mov	 DWORD PTR _tmSum$[ebp+28], 0
  0008d	2b f9		 sub	 edi, ecx
  0008f	4f		 dec	 edi
  00090	89 7d e8	 mov	 DWORD PTR _tmSum$[ebp+16], edi
; File C:\Program Files (x86)\Windows Kits\10\Include\10.0.22000.0\ucrt\time.h

; 515  :             return _mktime64(_Tm);

  00093	ff d6		 call	 esi
; File D:\git\src\IBK\IBK_DRFN\ProjSrc\SrcChartEx\ChartOCX\PacketData\TimeRealDataModule.cpp

; 436  : 	if( 1 != tmSum.tm_wday)

  00095	8b 4d f0	 mov	 ecx, DWORD PTR _tmSum$[ebp+24]
; File C:\Program Files (x86)\Windows Kits\10\Include\10.0.22000.0\ucrt\time.h

; 515  :             return _mktime64(_Tm);

  00098	83 c4 04	 add	 esp, 4
; File D:\git\src\IBK\IBK_DRFN\ProjSrc\SrcChartEx\ChartOCX\PacketData\TimeRealDataModule.cpp

; 436  : 	if( 1 != tmSum.tm_wday)

  0009b	83 f9 01	 cmp	 ecx, 1
  0009e	74 1b		 je	 SHORT $LN2@GetLastMon

; 437  : 	{
; 438  : 		if( tmSum.tm_wday < 1) tmSum.tm_wday += 7;

  000a0	7d 06		 jge	 SHORT $LN3@GetLastMon
  000a2	83 c1 07	 add	 ecx, 7
  000a5	89 4d f0	 mov	 DWORD PTR _tmSum$[ebp+24], ecx
$LN3@GetLastMon:

; 439  : 		tmSum.tm_mday += 1 - tmSum.tm_wday;

  000a8	b8 01 00 00 00	 mov	 eax, 1
  000ad	2b c1		 sub	 eax, ecx
  000af	01 45 e4	 add	 DWORD PTR _tmSum$[ebp+12], eax
; File C:\Program Files (x86)\Windows Kits\10\Include\10.0.22000.0\ucrt\time.h

; 515  :             return _mktime64(_Tm);

  000b2	8d 45 d8	 lea	 eax, DWORD PTR _tmSum$[ebp]
  000b5	50		 push	 eax
  000b6	ff d6		 call	 esi
  000b8	83 c4 04	 add	 esp, 4
$LN2@GetLastMon:
; File D:\git\src\IBK\IBK_DRFN\ProjSrc\SrcChartEx\ChartOCX\PacketData\TimeRealDataModule.cpp

; 443  : 	int nDate = tmSum.tm_year + 1900;

  000bb	6b 4d ec 64	 imul	 ecx, DWORD PTR _tmSum$[ebp+20], 100

; 444  : 	nDate *= 100;
; 445  : 	nDate += tmSum.tm_mon + 1;
; 446  : 	nDate *= 100;
; 447  : 	nDate += tmSum.tm_mday;

  000bf	8b 45 e8	 mov	 eax, DWORD PTR _tmSum$[ebp+16]

; 448  : 	return nDate;

  000c2	5f		 pop	 edi
  000c3	5e		 pop	 esi
  000c4	5b		 pop	 ebx
  000c5	81 c1 31 e6 02
	00		 add	 ecx, 190001		; 0002e631H
  000cb	03 c1		 add	 eax, ecx

; 449  : }

  000cd	8b 4d fc	 mov	 ecx, DWORD PTR __$ArrayPad$[ebp]
  000d0	6b c0 64	 imul	 eax, eax, 100
  000d3	33 cd		 xor	 ecx, ebp
  000d5	03 45 e4	 add	 eax, DWORD PTR _tmSum$[ebp+12]
  000d8	e8 00 00 00 00	 call	 @__security_check_cookie@4
  000dd	8b e5		 mov	 esp, ebp
  000df	5d		 pop	 ebp
  000e0	c2 08 00	 ret	 8
?GetLastMondayDate@CWeekRealDataModule@@IAEH_J@Z ENDP	; CWeekRealDataModule::GetLastMondayDate
_TEXT	ENDS
; Function compile flags: /Ogtp
; File D:\git\src\IBK\IBK_DRFN\ProjSrc\SrcChartEx\ChartOCX\PacketData\TimeRealDataModule.cpp
; File C:\Program Files (x86)\Microsoft Visual Studio\2019\Community\VC\Tools\MSVC\14.29.30133\atlmfc\include\cstringt.h
; File D:\git\src\IBK\IBK_DRFN\ProjSrc\SrcChartEx\ChartOCX\PacketData\TimeRealDataModule.cpp
; File C:\Program Files (x86)\Microsoft Visual Studio\2019\Community\VC\Tools\MSVC\14.29.30133\atlmfc\include\cstringt.h
; File D:\git\src\IBK\IBK_DRFN\ProjSrc\SrcChartEx\ChartOCX\PacketData\TimeRealDataModule.cpp
; File C:\Program Files (x86)\Microsoft Visual Studio\2019\Community\VC\Tools\MSVC\14.29.30133\atlmfc\include\afxtempl.h
; File D:\git\src\IBK\IBK_DRFN\ProjSrc\SrcChartEx\ChartOCX\PacketData\TimeRealDataModule.cpp
; File D:\git\src\IBK\IBK_DRFN\ProjSrc\SrcChartEx\ChartOCX\Include_Chart\TimeTypeConvert.h
; File D:\git\src\IBK\IBK_DRFN\ProjSrc\SrcChartEx\ChartOCX\PacketData\TimeRealDataModule.cpp
; File C:\Program Files (x86)\Microsoft Visual Studio\2019\Community\VC\Tools\MSVC\14.29.30133\atlmfc\include\afxtempl.h
; File D:\git\src\IBK\IBK_DRFN\ProjSrc\SrcChartEx\ChartOCX\PacketData\TimeRealDataModule.cpp
; File D:\git\src\IBK\IBK_DRFN\ProjSrc\SrcChartEx\ChartOCX\Include_Chart\TimeTypeConvert.h
; File D:\git\src\IBK\IBK_DRFN\ProjSrc\SrcChartEx\ChartOCX\PacketData\TimeRealDataModule.cpp
; File C:\Program Files (x86)\Microsoft Visual Studio\2019\Community\VC\Tools\MSVC\14.29.30133\atlmfc\include\afxtempl.h
; File D:\git\src\IBK\IBK_DRFN\ProjSrc\SrcChartEx\ChartOCX\PacketData\TimeRealDataModule.cpp
;	COMDAT ?SetRealData@CWeekRealDataModule@@MAEHPAVCPacket@@AB_J@Z
_TEXT	SEGMENT
_nDateOfReal$ = -20					; size = 8
_pDateList$1$ = -12					; size = 4
_nDeleteCount$1$ = -8					; size = 4
_nLastMondayDateOfReal$1$ = -4				; size = 4
_pPacket$ = 8						; size = 4
_nLastMondayDateOfReal$2$ = 12				; size = 4
_i$1$ = 12						; size = 4
tv141 = 12						; size = 4
_nRealTime$ = 12					; size = 4
?SetRealData@CWeekRealDataModule@@MAEHPAVCPacket@@AB_J@Z PROC ; CWeekRealDataModule::SetRealData, COMDAT
; _this$ = ecx

; 342  : {

  00000	55		 push	 ebp
  00001	8b ec		 mov	 ebp, esp
  00003	83 ec 14	 sub	 esp, 20			; 00000014H
  00006	56		 push	 esi
  00007	57		 push	 edi

; 343  : 	if( !pPacket) return -1;

  00008	8b 7d 08	 mov	 edi, DWORD PTR _pPacket$[ebp]
  0000b	8b f1		 mov	 esi, ecx
  0000d	85 ff		 test	 edi, edi
  0000f	0f 84 6b 02 00
	00		 je	 $LN48@SetRealDat

; 344  : 	const CList< double, double> *pDateList = pPacket->GetnumericDataList();

  00015	8b cf		 mov	 ecx, edi
  00017	e8 00 00 00 00	 call	 ?GetnumericDataList@CPacket@@QAEPAV?$CList@NN@@XZ ; CPacket::GetnumericDataList
  0001c	89 45 f4	 mov	 DWORD PTR _pDateList$1$[ebp], eax

; 345  : 	if( !pDateList) return -1;

  0001f	85 c0		 test	 eax, eax
  00021	0f 84 59 02 00
	00		 je	 $LN48@SetRealDat
; File C:\Program Files (x86)\Microsoft Visual Studio\2019\Community\VC\Tools\MSVC\14.29.30133\atlmfc\include\cstringt.h

; 2486 : 		return(str1.Compare(psz2) == 0);

  00027	53		 push	 ebx
  00028	68 00 00 00 00	 push	 OFFSET ??_C@_0P@IMPIBBAB@YYYYMMDDHHMMSS@
; File D:\git\src\IBK\IBK_DRFN\ProjSrc\SrcChartEx\ChartOCX\PacketData\TimeRealDataModule.cpp

; 351  : 	if (m_ttcTrPacket.GetPacketType() == _T("YYYYMMDDHHMMSS"))

  0002d	8d 4e 10	 lea	 ecx, DWORD PTR [esi+16]
; File C:\Program Files (x86)\Microsoft Visual Studio\2019\Community\VC\Tools\MSVC\14.29.30133\atlmfc\include\cstringt.h

; 2486 : 		return(str1.Compare(psz2) == 0);

  00030	ff 15 00 00 00
	00		 call	 DWORD PTR __imp_?Compare@?$CStringT@DV?$StrTraitMFC_DLL@DV?$ChTraitsCRT@D@ATL@@@@@ATL@@QBEHPBD@Z
  00036	8b 4d 0c	 mov	 ecx, DWORD PTR _nRealTime$[ebp]
  00039	8b 19		 mov	 ebx, DWORD PTR [ecx]
  0003b	8b 51 04	 mov	 edx, DWORD PTR [ecx+4]
  0003e	85 c0		 test	 eax, eax
; File D:\git\src\IBK\IBK_DRFN\ProjSrc\SrcChartEx\ChartOCX\PacketData\TimeRealDataModule.cpp

; 351  : 	if (m_ttcTrPacket.GetPacketType() == _T("YYYYMMDDHHMMSS"))

  00040	75 0f		 jne	 SHORT $LN9@SetRealDat

; 352  : 		nDateOfReal = nRealTime / 1000000;

  00042	50		 push	 eax
  00043	68 40 42 0f 00	 push	 1000000			; 000f4240H
  00048	52		 push	 edx
  00049	53		 push	 ebx
  0004a	e8 00 00 00 00	 call	 __alldiv
  0004f	8b d8		 mov	 ebx, eax
$LN9@SetRealDat:

; 353  : 	else
; 354  : 		nDateOfReal = nRealTime;
; 355  : 	// 2011.01.24 by SYS <<
; 356  : 
; 357  : 	GetMarketDate_DateTime( nDateOfReal);

  00051	8d 45 ec	 lea	 eax, DWORD PTR _nDateOfReal$[ebp]
  00054	89 5d ec	 mov	 DWORD PTR _nDateOfReal$[ebp], ebx
  00057	50		 push	 eax
  00058	8b ce		 mov	 ecx, esi
  0005a	89 55 f0	 mov	 DWORD PTR _nDateOfReal$[ebp+4], edx
  0005d	e8 00 00 00 00	 call	 ?GetMarketDate_DateTime@CTimeRealDataModuleBase@@QBEXAA_J@Z ; CTimeRealDataModuleBase::GetMarketDate_DateTime

; 358  : 	__int64 nLastMondayDateOfReal = GetLastMondayDate( nDateOfReal);

  00062	ff 75 f0	 push	 DWORD PTR _nDateOfReal$[ebp+4]
  00065	8b ce		 mov	 ecx, esi
  00067	ff 75 ec	 push	 DWORD PTR _nDateOfReal$[ebp]
  0006a	e8 00 00 00 00	 call	 ?GetLastMondayDate@CWeekRealDataModule@@IAEH_J@Z ; CWeekRealDataModule::GetLastMondayDate

; 359  : 
; 360  : 	//    . (     Return.)
; 361  : 	int nDeleteCount = 0;
; 362  : 	__int64 nEndDate = -1;
; 363  : 	POSITION psnDate = pDateList->GetTailPosition();

  0006f	8b 4d f4	 mov	 ecx, DWORD PTR _pDateList$1$[ebp]
  00072	33 db		 xor	 ebx, ebx
  00074	99		 cdq
  00075	89 45 fc	 mov	 DWORD PTR _nLastMondayDateOfReal$1$[ebp], eax
  00078	89 55 0c	 mov	 DWORD PTR _nLastMondayDateOfReal$2$[ebp], edx
  0007b	8b 49 08	 mov	 ecx, DWORD PTR [ecx+8]
  0007e	89 5d f8	 mov	 DWORD PTR _nDeleteCount$1$[ebp], ebx

; 364  : 	while( 0 < m_nClockedDataCount - nDeleteCount && psnDate)

  00081	39 5e 40	 cmp	 DWORD PTR [esi+64], ebx
  00084	7e 54		 jle	 SHORT $LN12@SetRealDat
  00086	8b f9		 mov	 edi, ecx
$LL2@SetRealDat:
  00088	85 ff		 test	 edi, edi
  0008a	74 3c		 je	 SHORT $LN39@SetRealDat
; File C:\Program Files (x86)\Microsoft Visual Studio\2019\Community\VC\Tools\MSVC\14.29.30133\atlmfc\include\afxtempl.h

; 829  : 	{ CNode* pNode = (CNode*) rPosition;

  0008c	8b c7		 mov	 eax, edi

; 830  : 		ASSERT(AfxIsValidAddress(pNode, sizeof(CNode)));
; 831  : 		rPosition = (POSITION) pNode->pPrev;

  0008e	8b 7f 04	 mov	 edi, DWORD PTR [edi+4]
; File D:\git\src\IBK\IBK_DRFN\ProjSrc\SrcChartEx\ChartOCX\PacketData\TimeRealDataModule.cpp

; 366  : 		nEndDate = ( __int64)pDateList->GetPrev( psnDate);

  00091	f2 0f 10 40 08	 movsd	 xmm0, QWORD PTR [eax+8]
  00096	e8 00 00 00 00	 call	 __dtol3
; File D:\git\src\IBK\IBK_DRFN\ProjSrc\SrcChartEx\ChartOCX\Include_Chart\TimeTypeConvert.h

; 48   : 						return p_nTime *= m_nMinimumUnitTime;	

  0009b	ff 76 3c	 push	 DWORD PTR [esi+60]
  0009e	ff 76 38	 push	 DWORD PTR [esi+56]
  000a1	52		 push	 edx
  000a2	50		 push	 eax
  000a3	e8 00 00 00 00	 call	 __allmul
; File D:\git\src\IBK\IBK_DRFN\ProjSrc\SrcChartEx\ChartOCX\PacketData\TimeRealDataModule.cpp

; 367  : 		if( GetLastMondayDate( m_ttcTrPacket.GetFullTypeTime( nEndDate)) < nLastMondayDateOfReal) 

  000a8	52		 push	 edx
  000a9	50		 push	 eax
  000aa	8b ce		 mov	 ecx, esi
  000ac	e8 00 00 00 00	 call	 ?GetLastMondayDate@CWeekRealDataModule@@IAEH_J@Z ; CWeekRealDataModule::GetLastMondayDate
  000b1	99		 cdq
  000b2	3b 55 0c	 cmp	 edx, DWORD PTR _nLastMondayDateOfReal$2$[ebp]
  000b5	7c 11		 jl	 SHORT $LN39@SetRealDat
  000b7	7f 05		 jg	 SHORT $LN49@SetRealDat
  000b9	3b 45 fc	 cmp	 eax, DWORD PTR _nLastMondayDateOfReal$1$[ebp]
  000bc	72 0a		 jb	 SHORT $LN39@SetRealDat
$LN49@SetRealDat:

; 364  : 	while( 0 < m_nClockedDataCount - nDeleteCount && psnDate)

  000be	8b 46 40	 mov	 eax, DWORD PTR [esi+64]

; 368  : 			break;
; 369  : 		nDeleteCount++;

  000c1	43		 inc	 ebx
  000c2	2b c3		 sub	 eax, ebx
  000c4	85 c0		 test	 eax, eax
  000c6	7f c0		 jg	 SHORT $LL2@SetRealDat
$LN39@SetRealDat:

; 370  : 	}
; 371  : 	if( 0 < nDeleteCount) pPacket->RemoveBaseData( nDeleteCount);

  000c8	8b 7d 08	 mov	 edi, DWORD PTR _pPacket$[ebp]
  000cb	89 5d f8	 mov	 DWORD PTR _nDeleteCount$1$[ebp], ebx
  000ce	85 db		 test	 ebx, ebx
  000d0	7e 08		 jle	 SHORT $LN12@SetRealDat
  000d2	53		 push	 ebx
  000d3	8b cf		 mov	 ecx, edi
  000d5	e8 00 00 00 00	 call	 ?RemoveBaseData@CPacket@@QAE_NH@Z ; CPacket::RemoveBaseData
$LN12@SetRealDat:

; 372  : 	m_nClockedDataCount = ( m_bCloseEmptyCandleWhenEnd ? -1 : 0);

  000da	8b 46 5c	 mov	 eax, DWORD PTR [esi+92]

; 373  : 
; 374  : 	if( pPacket->GetCount() <= 0)

  000dd	8b cf		 mov	 ecx, edi
  000df	f7 d8		 neg	 eax
  000e1	1b c0		 sbb	 eax, eax
  000e3	89 46 40	 mov	 DWORD PTR [esi+64], eax
  000e6	8b 07		 mov	 eax, DWORD PTR [edi]
  000e8	ff 50 14	 call	 DWORD PTR [eax+20]
  000eb	85 c0		 test	 eax, eax
  000ed	7f 35		 jg	 SHORT $LN13@SetRealDat

; 375  : 		pPacket->AppendData( ( double)m_ttcTrPacket.GetPacketTypeTime( nDateOfReal));

  000ef	8b 45 f0	 mov	 eax, DWORD PTR _nDateOfReal$[ebp+4]
  000f2	8d 4e 08	 lea	 ecx, DWORD PTR [esi+8]
  000f5	6a ff		 push	 -1
  000f7	6a 00		 push	 0
  000f9	50		 push	 eax
  000fa	8b 45 ec	 mov	 eax, DWORD PTR _nDateOfReal$[ebp]
  000fd	50		 push	 eax
  000fe	e8 00 00 00 00	 call	 ?GetPacketTypeTime@CTimeTypeConvert@@QBE_J_JH@Z ; CTimeTypeConvert::GetPacketTypeTime
  00103	8b c8		 mov	 ecx, eax
  00105	e8 00 00 00 00	 call	 __ltod3
  0010a	83 ec 08	 sub	 esp, 8
  0010d	8b cf		 mov	 ecx, edi
  0010f	f2 0f 11 04 24	 movsd	 QWORD PTR [esp], xmm0
  00114	e8 00 00 00 00	 call	 ?AppendData@CPacket@@QAEXNH@Z ; CPacket::AppendData

; 408  : 		}
; 409  : 	}
; 410  : 
; 411  : 	return nDeleteCount;

  00119	8b c3		 mov	 eax, ebx
  0011b	5b		 pop	 ebx
  0011c	5f		 pop	 edi

; 412  : }

  0011d	5e		 pop	 esi
  0011e	8b e5		 mov	 esp, ebp
  00120	5d		 pop	 ebp
  00121	c2 08 00	 ret	 8
$LN13@SetRealDat:

; 378  : 		nEndDate = ( __int64)pPacket->GetnumericDataList()->GetTail();

  00124	8b cf		 mov	 ecx, edi
  00126	e8 00 00 00 00	 call	 ?GetnumericDataList@CPacket@@QAEPAV?$CList@NN@@XZ ; CPacket::GetnumericDataList
; File C:\Program Files (x86)\Microsoft Visual Studio\2019\Community\VC\Tools\MSVC\14.29.30133\atlmfc\include\afxtempl.h

; 797  : 	{ ENSURE(m_pNodeTail != NULL);

  0012b	8b 40 08	 mov	 eax, DWORD PTR [eax+8]
  0012e	85 c0		 test	 eax, eax
  00130	0f 84 55 01 00
	00		 je	 $LN54@SetRealDat
; File D:\git\src\IBK\IBK_DRFN\ProjSrc\SrcChartEx\ChartOCX\PacketData\TimeRealDataModule.cpp

; 378  : 		nEndDate = ( __int64)pPacket->GetnumericDataList()->GetTail();

  00136	f2 0f 10 40 08	 movsd	 xmm0, QWORD PTR [eax+8]
  0013b	e8 00 00 00 00	 call	 __dtol3
; File D:\git\src\IBK\IBK_DRFN\ProjSrc\SrcChartEx\ChartOCX\Include_Chart\TimeTypeConvert.h

; 48   : 						return p_nTime *= m_nMinimumUnitTime;	

  00140	ff 76 3c	 push	 DWORD PTR [esi+60]
  00143	ff 76 38	 push	 DWORD PTR [esi+56]
  00146	52		 push	 edx
  00147	50		 push	 eax
  00148	e8 00 00 00 00	 call	 __allmul
; File D:\git\src\IBK\IBK_DRFN\ProjSrc\SrcChartEx\ChartOCX\PacketData\TimeRealDataModule.cpp

; 379  : 		nEndDate = GetLastMondayDate( m_ttcTrPacket.GetFullTypeTime( nEndDate));

  0014d	52		 push	 edx
  0014e	50		 push	 eax
  0014f	8b ce		 mov	 ecx, esi
  00151	e8 00 00 00 00	 call	 ?GetLastMondayDate@CWeekRealDataModule@@IAEH_J@Z ; CWeekRealDataModule::GetLastMondayDate
  00156	99		 cdq

; 380  : 		if( nLastMondayDateOfReal <= nEndDate)

  00157	39 55 0c	 cmp	 DWORD PTR _nLastMondayDateOfReal$2$[ebp], edx
  0015a	7f 3a		 jg	 SHORT $LN15@SetRealDat
  0015c	7c 05		 jl	 SHORT $LN50@SetRealDat
  0015e	39 45 fc	 cmp	 DWORD PTR _nLastMondayDateOfReal$1$[ebp], eax
  00161	77 33		 ja	 SHORT $LN15@SetRealDat
$LN50@SetRealDat:

; 381  : 			pPacket->UpdateData( ( double)m_ttcTrPacket.GetPacketTypeTime( nDateOfReal));

  00163	8b 45 f0	 mov	 eax, DWORD PTR _nDateOfReal$[ebp+4]
  00166	8d 4e 08	 lea	 ecx, DWORD PTR [esi+8]
  00169	6a 00		 push	 0
  0016b	50		 push	 eax
  0016c	8b 45 ec	 mov	 eax, DWORD PTR _nDateOfReal$[ebp]
  0016f	50		 push	 eax
  00170	e8 00 00 00 00	 call	 ?GetPacketTypeTime@CTimeTypeConvert@@QBE_J_JH@Z ; CTimeTypeConvert::GetPacketTypeTime
  00175	8b c8		 mov	 ecx, eax
  00177	e8 00 00 00 00	 call	 __ltod3
  0017c	83 ec 08	 sub	 esp, 8
  0017f	8b cf		 mov	 ecx, edi
  00181	f2 0f 11 04 24	 movsd	 QWORD PTR [esp], xmm0
  00186	e8 00 00 00 00	 call	 ?UpdateData@CPacket@@QAEXN@Z ; CPacket::UpdateData

; 408  : 		}
; 409  : 	}
; 410  : 
; 411  : 	return nDeleteCount;

  0018b	8b c3		 mov	 eax, ebx
  0018d	5b		 pop	 ebx
  0018e	5f		 pop	 edi

; 412  : }

  0018f	5e		 pop	 esi
  00190	8b e5		 mov	 esp, ebp
  00192	5d		 pop	 ebp
  00193	c2 08 00	 ret	 8
$LN15@SetRealDat:

; 382  : 		else
; 383  : 		{
; 384  : 			nEndDate *= 1000000;

  00196	6a 00		 push	 0
  00198	68 40 42 0f 00	 push	 1000000			; 000f4240H
  0019d	52		 push	 edx
  0019e	50		 push	 eax
  0019f	e8 00 00 00 00	 call	 __allmul

; 385  : 			__int64 nLastMarketDay = -1;
; 386  : 
; 387  : 			// (2009/11/23 - Seung-Won, Bae) WorldOn close with first monday.
; 388  : 			if( CChartInfo::WORLD_ON == m_nChartModeSetting)

  001a4	83 7e 58 03	 cmp	 DWORD PTR [esi+88], 3
  001a8	8b f8		 mov	 edi, eax
  001aa	8b da		 mov	 ebx, edx
  001ac	0f 84 95 00 00
	00		 je	 $LN40@SetRealDat

; 389  : 				nLastMarketDay = nEndDate;
; 390  : 			else
; 391  : 			{
; 392  : 				nEndDate = CDataConversion::CalcTimeSum( nEndDate, 6000000);

  001b2	6a 00		 push	 0
  001b4	6a 00		 push	 0
  001b6	68 80 8d 5b 00	 push	 6000000			; 005b8d80H
  001bb	53		 push	 ebx
  001bc	57		 push	 edi
  001bd	e8 00 00 00 00	 call	 ?CalcTimeSum@CDataConversion@@SA_J_J0H@Z ; CDataConversion::CalcTimeSum
  001c2	83 c4 14	 add	 esp, 20			; 00000014H

; 393  : 				for( int i = 0; i < 7; i++)

  001c5	c7 45 0c 00 00
	00 00		 mov	 DWORD PTR _i$1$[ebp], 0
  001cc	8b f8		 mov	 edi, eax
  001ce	8b da		 mov	 ebx, edx
$LL6@SetRealDat:

; 394  : 				{
; 395  : 					if( IsMarketDay( int( nEndDate / 1000000)))

  001d0	6a 00		 push	 0
  001d2	68 40 42 0f 00	 push	 1000000			; 000f4240H
  001d7	53		 push	 ebx
  001d8	57		 push	 edi
  001d9	e8 00 00 00 00	 call	 __alldiv
  001de	50		 push	 eax
  001df	8b ce		 mov	 ecx, esi
  001e1	e8 00 00 00 00	 call	 ?IsMarketDay@CTimeRealDataModuleBase@@QAEHH@Z ; CTimeRealDataModuleBase::IsMarketDay
  001e6	85 c0		 test	 eax, eax
  001e8	75 5d		 jne	 SHORT $LN40@SetRealDat

; 396  : 					{
; 397  : 						nLastMarketDay = nEndDate;
; 398  : 						break;
; 399  : 					}
; 400  : 					nEndDate = CDataConversion::CalcTimeSum( nEndDate, -1000000);

  001ea	50		 push	 eax
  001eb	6a ff		 push	 -1
  001ed	68 c0 bd f0 ff	 push	 -1000000		; fff0bdc0H
  001f2	53		 push	 ebx
  001f3	57		 push	 edi
  001f4	e8 00 00 00 00	 call	 ?CalcTimeSum@CDataConversion@@SA_J_J0H@Z ; CDataConversion::CalcTimeSum
  001f9	8b f8		 mov	 edi, eax
  001fb	83 c4 14	 add	 esp, 20			; 00000014H
  001fe	8b 45 0c	 mov	 eax, DWORD PTR _i$1$[ebp]
  00201	8b da		 mov	 ebx, edx
  00203	40		 inc	 eax
  00204	89 45 0c	 mov	 DWORD PTR _i$1$[ebp], eax
  00207	83 f8 07	 cmp	 eax, 7
  0020a	7c c4		 jl	 SHORT $LL6@SetRealDat
$LN45@SetRealDat:

; 406  : 				pPacket->UpdateData( ( double)m_ttcTrPacket.GetPacketTypeTime( nLastMarketDay));

  0020c	8d 4e 08	 lea	 ecx, DWORD PTR [esi+8]
  0020f	8b 75 08	 mov	 esi, DWORD PTR _pPacket$[ebp]
$LN20@SetRealDat:

; 407  : 			pPacket->AppendData( ( double)m_ttcTrPacket.GetPacketTypeTime( nDateOfReal));

  00212	8b 45 f0	 mov	 eax, DWORD PTR _nDateOfReal$[ebp+4]
  00215	6a ff		 push	 -1
  00217	6a 00		 push	 0
  00219	50		 push	 eax
  0021a	8b 45 ec	 mov	 eax, DWORD PTR _nDateOfReal$[ebp]
  0021d	50		 push	 eax
  0021e	e8 00 00 00 00	 call	 ?GetPacketTypeTime@CTimeTypeConvert@@QBE_J_JH@Z ; CTimeTypeConvert::GetPacketTypeTime
  00223	8b c8		 mov	 ecx, eax
  00225	e8 00 00 00 00	 call	 __ltod3
  0022a	83 ec 08	 sub	 esp, 8
  0022d	8b ce		 mov	 ecx, esi
  0022f	f2 0f 11 04 24	 movsd	 QWORD PTR [esp], xmm0
  00234	e8 00 00 00 00	 call	 ?AppendData@CPacket@@QAEXNH@Z ; CPacket::AppendData
  00239	8b 5d f8	 mov	 ebx, DWORD PTR _nDeleteCount$1$[ebp]

; 408  : 		}
; 409  : 	}
; 410  : 
; 411  : 	return nDeleteCount;

  0023c	8b c3		 mov	 eax, ebx
  0023e	5b		 pop	 ebx
  0023f	5f		 pop	 edi

; 412  : }

  00240	5e		 pop	 esi
  00241	8b e5		 mov	 esp, ebp
  00243	5d		 pop	 ebp
  00244	c2 08 00	 ret	 8
$LN40@SetRealDat:

; 401  : 				}
; 402  : 			}
; 403  : 
; 404  : 
; 405  : 			if( 0 < nLastMarketDay)

  00247	85 db		 test	 ebx, ebx
  00249	7c c1		 jl	 SHORT $LN45@SetRealDat
  0024b	7f 04		 jg	 SHORT $LN51@SetRealDat
  0024d	85 ff		 test	 edi, edi
  0024f	74 bb		 je	 SHORT $LN45@SetRealDat
$LN51@SetRealDat:

; 406  : 				pPacket->UpdateData( ( double)m_ttcTrPacket.GetPacketTypeTime( nLastMarketDay));

  00251	6a 00		 push	 0
  00253	8d 46 08	 lea	 eax, DWORD PTR [esi+8]
  00256	53		 push	 ebx
  00257	57		 push	 edi
  00258	8b c8		 mov	 ecx, eax
  0025a	89 45 0c	 mov	 DWORD PTR tv141[ebp], eax
  0025d	e8 00 00 00 00	 call	 ?GetPacketTypeTime@CTimeTypeConvert@@QBE_J_JH@Z ; CTimeTypeConvert::GetPacketTypeTime
  00262	8b c8		 mov	 ecx, eax
  00264	e8 00 00 00 00	 call	 __ltod3
  00269	8b 75 08	 mov	 esi, DWORD PTR _pPacket$[ebp]
  0026c	83 ec 08	 sub	 esp, 8
  0026f	8b ce		 mov	 ecx, esi
  00271	f2 0f 11 04 24	 movsd	 QWORD PTR [esp], xmm0
  00276	e8 00 00 00 00	 call	 ?UpdateData@CPacket@@QAEXN@Z ; CPacket::UpdateData
  0027b	8b 4d 0c	 mov	 ecx, DWORD PTR tv141[ebp]
  0027e	eb 92		 jmp	 SHORT $LN20@SetRealDat
$LN48@SetRealDat:
  00280	5f		 pop	 edi

; 345  : 	if( !pDateList) return -1;

  00281	83 c8 ff	 or	 eax, -1

; 412  : }

  00284	5e		 pop	 esi
  00285	8b e5		 mov	 esp, ebp
  00287	5d		 pop	 ebp
  00288	c2 08 00	 ret	 8
$LN54@SetRealDat:
; File C:\Program Files (x86)\Microsoft Visual Studio\2019\Community\VC\Tools\MSVC\14.29.30133\atlmfc\include\afxtempl.h

; 797  : 	{ ENSURE(m_pNodeTail != NULL);

  0028b	e8 00 00 00 00	 call	 ?AfxThrowInvalidArgException@@YGXXZ ; AfxThrowInvalidArgException
$LN52@SetRealDat:
  00290	cc		 int	 3
?SetRealData@CWeekRealDataModule@@MAEHPAVCPacket@@AB_J@Z ENDP ; CWeekRealDataModule::SetRealData
_TEXT	ENDS
; Function compile flags: /Ogtp
; File D:\git\src\IBK\IBK_DRFN\ProjSrc\SrcChartEx\ChartOCX\PacketData\TimeRealDataModule.cpp
;	COMDAT ?SetTimeRange_TRPart@CWeekRealDataModule@@MAEHAB_J_J@Z
_TEXT	SEGMENT
_p_nServerTime$ = 8					; size = 4
_nTailTime$ = 12					; size = 8
?SetTimeRange_TRPart@CWeekRealDataModule@@MAEHAB_J_J@Z PROC ; CWeekRealDataModule::SetTimeRange_TRPart, COMDAT
; _this$ = ecx

; 327  : {

  00000	55		 push	 ebp
  00001	8b ec		 mov	 ebp, esp

; 328  : 	// (2009/11/13 - Seung-Won, Bae)   RollBack .
; 329  : 	//	    ,      Data  .
; 330  : 	//   (m_bCloseEmptyCandleWhenEnd:TRUE)   ,
; 331  : 	//		 Data  -1  .
; 332  : 	if( m_bCloseEmptyCandleWhenEnd && 0 <= nTailTime)	m_nClockedDataCount = -1;

  00003	83 79 5c 00	 cmp	 DWORD PTR [ecx+92], 0
  00007	74 1e		 je	 SHORT $LN2@SetTimeRan
  00009	83 7d 10 00	 cmp	 DWORD PTR _nTailTime$[ebp+4], 0
  0000d	7c 18		 jl	 SHORT $LN2@SetTimeRan
  0000f	7f 06		 jg	 SHORT $LN5@SetTimeRan
  00011	83 7d 0c 00	 cmp	 DWORD PTR _nTailTime$[ebp], 0
  00015	72 10		 jb	 SHORT $LN2@SetTimeRan
$LN5@SetTimeRan:

; 333  : 	else												m_nClockedDataCount = 0;
; 334  : 	return TRUE;

  00017	c7 41 40 ff ff
	ff ff		 mov	 DWORD PTR [ecx+64], -1

; 335  : }

  0001e	b8 01 00 00 00	 mov	 eax, 1
  00023	5d		 pop	 ebp
  00024	c2 0c 00	 ret	 12			; 0000000cH
$LN2@SetTimeRan:

; 333  : 	else												m_nClockedDataCount = 0;
; 334  : 	return TRUE;

  00027	c7 41 40 00 00
	00 00		 mov	 DWORD PTR [ecx+64], 0

; 335  : }

  0002e	b8 01 00 00 00	 mov	 eax, 1
  00033	5d		 pop	 ebp
  00034	c2 0c 00	 ret	 12			; 0000000cH
?SetTimeRange_TRPart@CWeekRealDataModule@@MAEHAB_J_J@Z ENDP ; CWeekRealDataModule::SetTimeRange_TRPart
_TEXT	ENDS
; Function compile flags: /Ogtp
; File D:\git\src\IBK\IBK_DRFN\ProjSrc\SrcChartEx\ChartOCX\PacketData\TimeRealDataModule.cpp
;	COMDAT ??1CWeekRealDataModule@@UAE@XZ
_TEXT	SEGMENT
??1CWeekRealDataModule@@UAE@XZ PROC			; CWeekRealDataModule::~CWeekRealDataModule, COMDAT
; _this$ = ecx

; 314  : {

  00000	56		 push	 esi
  00001	8b f1		 mov	 esi, ecx

; 49   : }

  00003	8d 4e 7c	 lea	 ecx, DWORD PTR [esi+124]
  00006	c7 06 00 00 00
	00		 mov	 DWORD PTR [esi], OFFSET ??_7CTimeRealDataModuleBase@@6B@
  0000c	e8 00 00 00 00	 call	 ??1CMapPtrToPtr@@UAE@XZ	; CMapPtrToPtr::~CMapPtrToPtr
  00011	8d 4e 60	 lea	 ecx, DWORD PTR [esi+96]
  00014	e8 00 00 00 00	 call	 ??1CMapPtrToPtr@@UAE@XZ	; CMapPtrToPtr::~CMapPtrToPtr
  00019	8d 4e 08	 lea	 ecx, DWORD PTR [esi+8]
  0001c	5e		 pop	 esi
  0001d	e9 00 00 00 00	 jmp	 ??1CTimeTypeConvert@@UAE@XZ ; CTimeTypeConvert::~CTimeTypeConvert
??1CWeekRealDataModule@@UAE@XZ ENDP			; CWeekRealDataModule::~CWeekRealDataModule
_TEXT	ENDS
; Function compile flags: /Ogtp
; File D:\git\src\IBK\IBK_DRFN\ProjSrc\SrcChartEx\ChartOCX\PacketData\TimeRealDataModule.cpp
;	COMDAT ??0CWeekRealDataModule@@QAE@AAVCMarketTimeData@@ABV?$CStringT@DV?$StrTraitMFC_DLL@DV?$ChTraitsCRT@D@ATL@@@@@ATL@@W4HORZSCALEDRAWERTYPE@CScaleBaseData@@@Z
_TEXT	SEGMENT
_this$ = -4						; size = 4
_p_marketTimeData$ = 8					; size = 4
_strPacketType$ = 12					; size = 4
_eDateUnitType$ = 16					; size = 4
??0CWeekRealDataModule@@QAE@AAVCMarketTimeData@@ABV?$CStringT@DV?$StrTraitMFC_DLL@DV?$ChTraitsCRT@D@ATL@@@@@ATL@@W4HORZSCALEDRAWERTYPE@CScaleBaseData@@@Z PROC ; CWeekRealDataModule::CWeekRealDataModule, COMDAT
; _this$ = ecx

; 311  : {

  00000	55		 push	 ebp
  00001	8b ec		 mov	 ebp, esp
  00003	51		 push	 ecx
  00004	56		 push	 esi
  00005	ff 75 10	 push	 DWORD PTR _eDateUnitType$[ebp]
  00008	8b f1		 mov	 esi, ecx
  0000a	ff 75 0c	 push	 DWORD PTR _strPacketType$[ebp]
  0000d	89 75 fc	 mov	 DWORD PTR _this$[ebp], esi
  00010	ff 75 08	 push	 DWORD PTR _p_marketTimeData$[ebp]
  00013	e8 00 00 00 00	 call	 ??0CTimeRealDataModuleBase@@QAE@AAVCMarketTimeData@@ABV?$CStringT@DV?$StrTraitMFC_DLL@DV?$ChTraitsCRT@D@ATL@@@@@ATL@@W4HORZSCALEDRAWERTYPE@CScaleBaseData@@@Z ; CTimeRealDataModuleBase::CTimeRealDataModuleBase
  00018	c7 06 00 00 00
	00		 mov	 DWORD PTR [esi], OFFSET ??_7CWeekRealDataModule@@6B@

; 312  : }

  0001e	8b c6		 mov	 eax, esi
  00020	5e		 pop	 esi
  00021	8b e5		 mov	 esp, ebp
  00023	5d		 pop	 ebp
  00024	c2 0c 00	 ret	 12			; 0000000cH
??0CWeekRealDataModule@@QAE@AAVCMarketTimeData@@ABV?$CStringT@DV?$StrTraitMFC_DLL@DV?$ChTraitsCRT@D@ATL@@@@@ATL@@W4HORZSCALEDRAWERTYPE@CScaleBaseData@@@Z ENDP ; CWeekRealDataModule::CWeekRealDataModule
_TEXT	ENDS
; Function compile flags: /Ogtp
; File D:\git\src\IBK\IBK_DRFN\ProjSrc\SrcChartEx\ChartOCX\PacketData\TimeRealDataModule.cpp
;	COMDAT ??_GCDateRealDataModule@@UAEPAXI@Z
_TEXT	SEGMENT
___flags$ = 8						; size = 4
??_GCDateRealDataModule@@UAEPAXI@Z PROC			; CDateRealDataModule::`scalar deleting destructor', COMDAT
; _this$ = ecx
  00000	55		 push	 ebp
  00001	8b ec		 mov	 ebp, esp

; 48   : {

  00003	56		 push	 esi
  00004	8b f1		 mov	 esi, ecx

; 49   : }

  00006	8d 4e 7c	 lea	 ecx, DWORD PTR [esi+124]
  00009	c7 06 00 00 00
	00		 mov	 DWORD PTR [esi], OFFSET ??_7CTimeRealDataModuleBase@@6B@
  0000f	e8 00 00 00 00	 call	 ??1CMapPtrToPtr@@UAE@XZ	; CMapPtrToPtr::~CMapPtrToPtr
  00014	8d 4e 60	 lea	 ecx, DWORD PTR [esi+96]
  00017	e8 00 00 00 00	 call	 ??1CMapPtrToPtr@@UAE@XZ	; CMapPtrToPtr::~CMapPtrToPtr
  0001c	8d 4e 08	 lea	 ecx, DWORD PTR [esi+8]
  0001f	e8 00 00 00 00	 call	 ??1CTimeTypeConvert@@UAE@XZ ; CTimeTypeConvert::~CTimeTypeConvert
  00024	f6 45 08 01	 test	 BYTE PTR ___flags$[ebp], 1
  00028	74 0e		 je	 SHORT $LN10@scalar
  0002a	68 a8 00 00 00	 push	 168			; 000000a8H
  0002f	56		 push	 esi
  00030	e8 00 00 00 00	 call	 ??3@YAXPAXI@Z		; operator delete
  00035	83 c4 08	 add	 esp, 8
$LN10@scalar:
  00038	8b c6		 mov	 eax, esi
  0003a	5e		 pop	 esi
  0003b	5d		 pop	 ebp
  0003c	c2 04 00	 ret	 4
??_GCDateRealDataModule@@UAEPAXI@Z ENDP			; CDateRealDataModule::`scalar deleting destructor'
_TEXT	ENDS
; Function compile flags: /Ogtp
; File D:\git\src\IBK\IBK_DRFN\ProjSrc\SrcChartEx\ChartOCX\PacketData\TimeRealDataModule.cpp
;	COMDAT ?GetTimeIntervalWithSecond@CDateRealDataModule@@MAE_JXZ
_TEXT	SEGMENT
?GetTimeIntervalWithSecond@CDateRealDataModule@@MAE_JXZ PROC ; CDateRealDataModule::GetTimeIntervalWithSecond, COMDAT
; _this$ = ecx

; 300  : 	if( m_bMonthChart) return __int64( 60. * 60. * 24. * 30.);

  00000	33 d2		 xor	 edx, edx
  00002	b8 00 8d 27 00	 mov	 eax, 2592000		; 00278d00H
  00007	39 91 a0 00 00
	00		 cmp	 DWORD PTR [ecx+160], edx
  0000d	75 05		 jne	 SHORT $LN1@GetTimeInt

; 301  : 	return __int64( 60. * 60. * 24.);

  0000f	b8 80 51 01 00	 mov	 eax, 86400		; 00015180H
$LN1@GetTimeInt:

; 302  : }

  00014	c3		 ret	 0
?GetTimeIntervalWithSecond@CDateRealDataModule@@MAE_JXZ ENDP ; CDateRealDataModule::GetTimeIntervalWithSecond
_TEXT	ENDS
; Function compile flags: /Ogtp
; File D:\git\src\IBK\IBK_DRFN\ProjSrc\SrcChartEx\ChartOCX\PacketData\TimeRealDataModule.cpp
; File C:\Program Files (x86)\Microsoft Visual Studio\2019\Community\VC\Tools\MSVC\14.29.30133\atlmfc\include\afxtempl.h
; File D:\git\src\IBK\IBK_DRFN\ProjSrc\SrcChartEx\ChartOCX\PacketData\TimeRealDataModule.cpp
; File C:\Program Files (x86)\Microsoft Visual Studio\2019\Community\VC\Tools\MSVC\14.29.30133\atlmfc\include\cstringt.h
; File D:\git\src\IBK\IBK_DRFN\ProjSrc\SrcChartEx\ChartOCX\PacketData\TimeRealDataModule.cpp
; File C:\Program Files (x86)\Microsoft Visual Studio\2019\Community\VC\Tools\MSVC\14.29.30133\atlmfc\include\cstringt.h
; File D:\git\src\IBK\IBK_DRFN\ProjSrc\SrcChartEx\ChartOCX\PacketData\TimeRealDataModule.cpp
; File C:\Program Files (x86)\Microsoft Visual Studio\2019\Community\VC\Tools\MSVC\14.29.30133\atlmfc\include\afxtempl.h
; File D:\git\src\IBK\IBK_DRFN\ProjSrc\SrcChartEx\ChartOCX\PacketData\TimeRealDataModule.cpp
;	COMDAT ?GetRealData_CloseTime@CDateRealDataModule@@MAE_NPAVCPacket@@AA_J@Z
_TEXT	SEGMENT
_nRealDateTime$ = -12					; size = 8
_nRealDate$1$ = -4					; size = 4
_nRealDate$2$ = 8					; size = 4
_pPacket$ = 8						; size = 4
_p_nRealDataTime$ = 12					; size = 4
?GetRealData_CloseTime@CDateRealDataModule@@MAE_NPAVCPacket@@AA_J@Z PROC ; CDateRealDataModule::GetRealData_CloseTime, COMDAT
; _this$ = ecx

; 236  : {

  00000	55		 push	 ebp
  00001	8b ec		 mov	 ebp, esp
  00003	83 ec 0c	 sub	 esp, 12			; 0000000cH
  00006	53		 push	 ebx
  00007	56		 push	 esi

; 237  : 	// 1. Get the Last Data
; 238  : 	if( pPacket->GetCount() <= 0) 

  00008	8b 75 08	 mov	 esi, DWORD PTR _pPacket$[ebp]
  0000b	57		 push	 edi
  0000c	8b f9		 mov	 edi, ecx
  0000e	8b ce		 mov	 ecx, esi
  00010	8b 06		 mov	 eax, DWORD PTR [esi]
  00012	ff 50 14	 call	 DWORD PTR [eax+20]
  00015	85 c0		 test	 eax, eax
  00017	0f 8e df 00 00
	00		 jle	 $LN35@GetRealDat

; 241  : 	__int64 nEndDate = ( __int64)pPacket->GetnumericDataList()->GetTail();

  0001d	8b ce		 mov	 ecx, esi
  0001f	e8 00 00 00 00	 call	 ?GetnumericDataList@CPacket@@QAEPAV?$CList@NN@@XZ ; CPacket::GetnumericDataList
; File C:\Program Files (x86)\Microsoft Visual Studio\2019\Community\VC\Tools\MSVC\14.29.30133\atlmfc\include\afxtempl.h

; 797  : 	{ ENSURE(m_pNodeTail != NULL);

  00024	8b 40 08	 mov	 eax, DWORD PTR [eax+8]
  00027	85 c0		 test	 eax, eax
  00029	0f 84 83 01 00
	00		 je	 $LN42@GetRealDat
; File D:\git\src\IBK\IBK_DRFN\ProjSrc\SrcChartEx\ChartOCX\PacketData\TimeRealDataModule.cpp

; 241  : 	__int64 nEndDate = ( __int64)pPacket->GetnumericDataList()->GetTail();

  0002f	f2 0f 10 40 08	 movsd	 xmm0, QWORD PTR [eax+8]
  00034	e8 00 00 00 00	 call	 __dtol3
; File C:\Program Files (x86)\Microsoft Visual Studio\2019\Community\VC\Tools\MSVC\14.29.30133\atlmfc\include\cstringt.h

; 2486 : 		return(str1.Compare(psz2) == 0);

  00039	68 00 00 00 00	 push	 OFFSET ??_C@_0P@IMPIBBAB@YYYYMMDDHHMMSS@
; File D:\git\src\IBK\IBK_DRFN\ProjSrc\SrcChartEx\ChartOCX\PacketData\TimeRealDataModule.cpp

; 245  : 	if (m_ttcTrPacket.GetPacketType() == "YYYYMMDDHHMMSS")

  0003e	8d 4f 10	 lea	 ecx, DWORD PTR [edi+16]
  00041	8b d8		 mov	 ebx, eax
  00043	8b f2		 mov	 esi, edx
; File C:\Program Files (x86)\Microsoft Visual Studio\2019\Community\VC\Tools\MSVC\14.29.30133\atlmfc\include\cstringt.h

; 2486 : 		return(str1.Compare(psz2) == 0);

  00045	ff 15 00 00 00
	00		 call	 DWORD PTR __imp_?Compare@?$CStringT@DV?$StrTraitMFC_DLL@DV?$ChTraitsCRT@D@ATL@@@@@ATL@@QBEHPBD@Z
  0004b	85 c0		 test	 eax, eax
; File D:\git\src\IBK\IBK_DRFN\ProjSrc\SrcChartEx\ChartOCX\PacketData\TimeRealDataModule.cpp

; 245  : 	if (m_ttcTrPacket.GetPacketType() == "YYYYMMDDHHMMSS")

  0004d	75 18		 jne	 SHORT $LN6@GetRealDat

; 246  : 	{
; 247  : 		if (m_bMonthChart)

  0004f	33 c9		 xor	 ecx, ecx
  00051	39 8f a0 00 00
	00		 cmp	 DWORD PTR [edi+160], ecx
  00057	74 07		 je	 SHORT $LN8@GetRealDat

; 248  : 			nEndDate = nEndDate * 100000000;	//  

  00059	b8 00 e1 f5 05	 mov	 eax, 100000000		; 05f5e100H
  0005e	eb 0d		 jmp	 SHORT $LN7@GetRealDat
$LN8@GetRealDat:

; 249  : 		else
; 250  : 			nEndDate = nEndDate * 1000000;		//  .

  00060	b8 40 42 0f 00	 mov	 eax, 1000000		; 000f4240H

; 251  : 	}

  00065	eb 06		 jmp	 SHORT $LN7@GetRealDat
$LN6@GetRealDat:

; 252  : 	else
; 253  : 		nEndDate = m_ttcTrPacket.GetFullTypeTime(nEndDate);

  00067	8b 47 38	 mov	 eax, DWORD PTR [edi+56]
  0006a	8b 4f 3c	 mov	 ecx, DWORD PTR [edi+60]
$LN7@GetRealDat:

; 254  : 	// 2011.01.21 by SYS <<
; 255  : 
; 256  : 	// (2009/10/27 - Seung-Won, Bae) for Real Data Type.
; 257  : 	__int64 nRealDateTime = p_nRealDataTime;

  0006d	51		 push	 ecx
  0006e	50		 push	 eax
  0006f	56		 push	 esi
  00070	53		 push	 ebx
  00071	e8 00 00 00 00	 call	 __allmul
  00076	8b 4d 0c	 mov	 ecx, DWORD PTR _p_nRealDataTime$[ebp]
  00079	8b f0		 mov	 esi, eax
  0007b	8b da		 mov	 ebx, edx
  0007d	8b 01		 mov	 eax, DWORD PTR [ecx]
  0007f	8b 49 04	 mov	 ecx, DWORD PTR [ecx+4]
  00082	89 45 f4	 mov	 DWORD PTR _nRealDateTime$[ebp], eax

; 258  : 	GetMarketDate_DateTime( nRealDateTime);

  00085	8d 45 f4	 lea	 eax, DWORD PTR _nRealDateTime$[ebp]
  00088	89 4d f8	 mov	 DWORD PTR _nRealDateTime$[ebp+4], ecx
  0008b	8b cf		 mov	 ecx, edi
  0008d	50		 push	 eax
  0008e	e8 00 00 00 00	 call	 ?GetMarketDate_DateTime@CTimeRealDataModuleBase@@QBEXAA_J@Z ; CTimeRealDataModuleBase::GetMarketDate_DateTime

; 259  : 
; 260  : 	__int64 nRealDate = nRealDateTime / 1000000;

  00093	6a 00		 push	 0
  00095	68 40 42 0f 00	 push	 1000000			; 000f4240H
  0009a	ff 75 f8	 push	 DWORD PTR _nRealDateTime$[ebp+4]
  0009d	ff 75 f4	 push	 DWORD PTR _nRealDateTime$[ebp]
  000a0	e8 00 00 00 00	 call	 __alldiv

; 261  : 	if( m_bMonthChart)

  000a5	83 bf a0 00 00
	00 00		 cmp	 DWORD PTR [edi+160], 0
  000ac	89 45 fc	 mov	 DWORD PTR _nRealDate$1$[ebp], eax
  000af	89 55 08	 mov	 DWORD PTR _nRealDate$2$[ebp], edx
  000b2	74 53		 je	 SHORT $LL4@GetRealDat

; 262  : 	{
; 263  : 		if( m_bCloseEmptyCandleWhenEnd)

  000b4	83 7f 5c 00	 cmp	 DWORD PTR [edi+92], 0
  000b8	74 17		 je	 SHORT $LN12@GetRealDat

; 264  : 			nEndDate = CDataConversion::CalcTimeSum( nEndDate, 100000000);

  000ba	6a 00		 push	 0
  000bc	6a 00		 push	 0
  000be	68 00 e1 f5 05	 push	 100000000		; 05f5e100H
  000c3	53		 push	 ebx
  000c4	56		 push	 esi
  000c5	e8 00 00 00 00	 call	 ?CalcTimeSum@CDataConversion@@SA_J_J0H@Z ; CDataConversion::CalcTimeSum
  000ca	83 c4 14	 add	 esp, 20			; 00000014H
  000cd	8b f0		 mov	 esi, eax
  000cf	8b da		 mov	 ebx, edx
$LN12@GetRealDat:

; 265  : 		if( nRealDate / 100 <= nEndDate / 100000000) 

  000d1	6a 00		 push	 0
  000d3	68 00 e1 f5 05	 push	 100000000		; 05f5e100H
  000d8	53		 push	 ebx
  000d9	56		 push	 esi
  000da	e8 00 00 00 00	 call	 __alldiv
  000df	6a 00		 push	 0
  000e1	6a 64		 push	 100			; 00000064H
  000e3	ff 75 08	 push	 DWORD PTR _nRealDate$2$[ebp]
  000e6	8b d8		 mov	 ebx, eax
  000e8	8b f2		 mov	 esi, edx
  000ea	ff 75 fc	 push	 DWORD PTR _nRealDate$1$[ebp]
  000ed	e8 00 00 00 00	 call	 __alldiv
  000f2	3b d6		 cmp	 edx, esi
  000f4	7f 79		 jg	 SHORT $LN37@GetRealDat
  000f6	7c 04		 jl	 SHORT $LN35@GetRealDat
  000f8	3b c3		 cmp	 eax, ebx
  000fa	77 73		 ja	 SHORT $LN37@GetRealDat
$LN35@GetRealDat:
  000fc	5f		 pop	 edi

; 295  : }

  000fd	5e		 pop	 esi
  000fe	32 c0		 xor	 al, al
  00100	5b		 pop	 ebx
  00101	8b e5		 mov	 esp, ebp
  00103	5d		 pop	 ebp
  00104	c2 08 00	 ret	 8
$LL4@GetRealDat:

; 266  : 			return false;
; 267  : 	}
; 268  : 	else
; 269  : 	{
; 270  : 		do
; 271  : 		{
; 272  : 			nEndDate = CDataConversion::CalcTimeSum( nEndDate, 1000000);

  00107	6a 00		 push	 0
  00109	6a 00		 push	 0
  0010b	68 40 42 0f 00	 push	 1000000			; 000f4240H
  00110	53		 push	 ebx
  00111	56		 push	 esi
  00112	e8 00 00 00 00	 call	 ?CalcTimeSum@CDataConversion@@SA_J_J0H@Z ; CDataConversion::CalcTimeSum
  00117	83 c4 14	 add	 esp, 20			; 00000014H
  0011a	8b da		 mov	 ebx, edx
  0011c	8b f0		 mov	 esi, eax

; 273  : 		}
; 274  : 		while( !IsMarketDay( int( nEndDate / 1000000)));

  0011e	6a 00		 push	 0
  00120	68 40 42 0f 00	 push	 1000000			; 000f4240H
  00125	53		 push	 ebx
  00126	56		 push	 esi
  00127	e8 00 00 00 00	 call	 __alldiv
  0012c	50		 push	 eax
  0012d	8b cf		 mov	 ecx, edi
  0012f	e8 00 00 00 00	 call	 ?IsMarketDay@CTimeRealDataModuleBase@@QAEHH@Z ; CTimeRealDataModuleBase::IsMarketDay
  00134	85 c0		 test	 eax, eax
  00136	74 cf		 je	 SHORT $LL4@GetRealDat

; 275  : 
; 276  : 		if( !m_bCloseEmptyCandleWhenEnd)

  00138	83 7f 5c 00	 cmp	 DWORD PTR [edi+92], 0
  0013c	75 17		 jne	 SHORT $LN14@GetRealDat

; 277  : 			nEndDate = CDataConversion::CalcTimeSum( nEndDate, -1000000);

  0013e	6a 00		 push	 0
  00140	6a ff		 push	 -1
  00142	68 c0 bd f0 ff	 push	 -1000000		; fff0bdc0H
  00147	53		 push	 ebx
  00148	56		 push	 esi
  00149	e8 00 00 00 00	 call	 ?CalcTimeSum@CDataConversion@@SA_J_J0H@Z ; CDataConversion::CalcTimeSum
  0014e	83 c4 14	 add	 esp, 20			; 00000014H
  00151	8b f0		 mov	 esi, eax
  00153	8b da		 mov	 ebx, edx
$LN14@GetRealDat:

; 278  : 
; 279  : 		if( nRealDate <= nEndDate / 1000000) 

  00155	6a 00		 push	 0
  00157	68 40 42 0f 00	 push	 1000000			; 000f4240H
  0015c	53		 push	 ebx
  0015d	56		 push	 esi
  0015e	e8 00 00 00 00	 call	 __alldiv
  00163	39 55 08	 cmp	 DWORD PTR _nRealDate$2$[ebp], edx
  00166	7c 94		 jl	 SHORT $LN35@GetRealDat
  00168	7f 05		 jg	 SHORT $LN37@GetRealDat
  0016a	39 45 fc	 cmp	 DWORD PTR _nRealDate$1$[ebp], eax
  0016d	76 8d		 jbe	 SHORT $LN35@GetRealDat
$LN37@GetRealDat:

; 280  : 			return false;
; 281  : 	}
; 282  : 
; 283  : 	if( CChartInfo::WORLD_ON == m_nChartModeSetting) 

  0016f	83 7f 58 03	 cmp	 DWORD PTR [edi+88], 3
  00173	8b 5d 0c	 mov	 ebx, DWORD PTR _p_nRealDataTime$[ebp]
  00176	75 0b		 jne	 SHORT $LN16@GetRealDat

; 284  : 		p_nRealDataTime = nRealDateTime;

  00178	8b 45 f4	 mov	 eax, DWORD PTR _nRealDateTime$[ebp]
  0017b	89 03		 mov	 DWORD PTR [ebx], eax
  0017d	8b 45 f8	 mov	 eax, DWORD PTR _nRealDateTime$[ebp+4]
  00180	89 43 04	 mov	 DWORD PTR [ebx+4], eax
$LN16@GetRealDat:

; 285  : //<<...      
; 286  : 	//==>  .       .     ()
; 287  : 	if( m_bCloseEmptyCandleWhenEnd)

  00183	83 7f 5c 00	 cmp	 DWORD PTR [edi+92], 0
  00187	74 1b		 je	 SHORT $LN17@GetRealDat

; 288  : //	else if( m_bCloseEmptyCandleWhenEnd)
; 289  : //>>
; 290  : 		p_nRealDataTime = CDataConversion::CalcTimeSum( p_nRealDataTime, -1000000);

  00189	6a 00		 push	 0
  0018b	6a ff		 push	 -1
  0018d	68 c0 bd f0 ff	 push	 -1000000		; fff0bdc0H
  00192	ff 73 04	 push	 DWORD PTR [ebx+4]
  00195	ff 33		 push	 DWORD PTR [ebx]
  00197	e8 00 00 00 00	 call	 ?CalcTimeSum@CDataConversion@@SA_J_J0H@Z ; CDataConversion::CalcTimeSum
  0019c	83 c4 14	 add	 esp, 20			; 00000014H
  0019f	89 03		 mov	 DWORD PTR [ebx], eax
  001a1	89 53 04	 mov	 DWORD PTR [ebx+4], edx
$LN17@GetRealDat:

; 291  : 
; 292  : 	m_nClockedDataCount++;

  001a4	ff 47 40	 inc	 DWORD PTR [edi+64]

; 293  : 
; 294  : 	return true;

  001a7	b0 01		 mov	 al, 1
  001a9	5f		 pop	 edi

; 295  : }

  001aa	5e		 pop	 esi
  001ab	5b		 pop	 ebx
  001ac	8b e5		 mov	 esp, ebp
  001ae	5d		 pop	 ebp
  001af	c2 08 00	 ret	 8
$LN42@GetRealDat:
; File C:\Program Files (x86)\Microsoft Visual Studio\2019\Community\VC\Tools\MSVC\14.29.30133\atlmfc\include\afxtempl.h

; 797  : 	{ ENSURE(m_pNodeTail != NULL);

  001b2	e8 00 00 00 00	 call	 ?AfxThrowInvalidArgException@@YGXXZ ; AfxThrowInvalidArgException
$LN40@GetRealDat:
  001b7	cc		 int	 3
?GetRealData_CloseTime@CDateRealDataModule@@MAE_NPAVCPacket@@AA_J@Z ENDP ; CDateRealDataModule::GetRealData_CloseTime
_TEXT	ENDS
; Function compile flags: /Ogtp
; File D:\git\src\IBK\IBK_DRFN\ProjSrc\SrcChartEx\ChartOCX\PacketData\TimeRealDataModule.cpp
; File C:\Program Files (x86)\Microsoft Visual Studio\2019\Community\VC\Tools\MSVC\14.29.30133\atlmfc\include\cstringt.h
; File D:\git\src\IBK\IBK_DRFN\ProjSrc\SrcChartEx\ChartOCX\PacketData\TimeRealDataModule.cpp
; File C:\Program Files (x86)\Microsoft Visual Studio\2019\Community\VC\Tools\MSVC\14.29.30133\atlmfc\include\cstringt.h
; File D:\git\src\IBK\IBK_DRFN\ProjSrc\SrcChartEx\ChartOCX\PacketData\TimeRealDataModule.cpp
; File C:\Program Files (x86)\Microsoft Visual Studio\2019\Community\VC\Tools\MSVC\14.29.30133\atlmfc\include\afxtempl.h
; File D:\git\src\IBK\IBK_DRFN\ProjSrc\SrcChartEx\ChartOCX\PacketData\TimeRealDataModule.cpp
; File C:\Program Files (x86)\Microsoft Visual Studio\2019\Community\VC\Tools\MSVC\14.29.30133\atlmfc\include\afxtempl.h
; File D:\git\src\IBK\IBK_DRFN\ProjSrc\SrcChartEx\ChartOCX\PacketData\TimeRealDataModule.cpp
; File C:\Program Files (x86)\Microsoft Visual Studio\2019\Community\VC\Tools\MSVC\14.29.30133\atlmfc\include\afxtempl.h
; File D:\git\src\IBK\IBK_DRFN\ProjSrc\SrcChartEx\ChartOCX\PacketData\TimeRealDataModule.cpp
;	COMDAT ?SetRealData@CDateRealDataModule@@MAEHPAVCPacket@@AB_J@Z
_TEXT	SEGMENT
_nRealDate$ = -12					; size = 8
_nRealDate$2$ = -8					; size = 4
_this$1$ = -4						; size = 4
_pPacket$ = 8						; size = 4
_nRealDate$4$ = 12					; size = 4
_nRealTime$ = 12					; size = 4
?SetRealData@CDateRealDataModule@@MAEHPAVCPacket@@AB_J@Z PROC ; CDateRealDataModule::SetRealData, COMDAT
; _this$ = ecx

; 178  : {

  00000	55		 push	 ebp
  00001	8b ec		 mov	 ebp, esp
  00003	83 ec 0c	 sub	 esp, 12			; 0000000cH
  00006	53		 push	 ebx

; 179  : 	if( !pPacket) return -1;

  00007	8b 5d 08	 mov	 ebx, DWORD PTR _pPacket$[ebp]
  0000a	56		 push	 esi
  0000b	8b f1		 mov	 esi, ecx
  0000d	89 75 fc	 mov	 DWORD PTR _this$1$[ebp], esi
  00010	57		 push	 edi
  00011	85 db		 test	 ebx, ebx
  00013	0f 84 3b 01 00
	00		 je	 $LN33@SetRealDat

; 180  : 	const CList< double, double> *pDateList = pPacket->GetnumericDataList();

  00019	8b cb		 mov	 ecx, ebx
  0001b	e8 00 00 00 00	 call	 ?GetnumericDataList@CPacket@@QAEPAV?$CList@NN@@XZ ; CPacket::GetnumericDataList
  00020	8b f8		 mov	 edi, eax

; 181  : 	if( !pDateList) return -1;

  00022	85 ff		 test	 edi, edi
  00024	0f 84 2a 01 00
	00		 je	 $LN33@SetRealDat
; File C:\Program Files (x86)\Microsoft Visual Studio\2019\Community\VC\Tools\MSVC\14.29.30133\atlmfc\include\cstringt.h

; 2486 : 		return(str1.Compare(psz2) == 0);

  0002a	68 00 00 00 00	 push	 OFFSET ??_C@_0P@IMPIBBAB@YYYYMMDDHHMMSS@
; File D:\git\src\IBK\IBK_DRFN\ProjSrc\SrcChartEx\ChartOCX\PacketData\TimeRealDataModule.cpp

; 186  : 	if (m_ttcTrPacket.GetPacketType() == _T("YYYYMMDDHHMMSS"))

  0002f	8d 4e 10	 lea	 ecx, DWORD PTR [esi+16]
; File C:\Program Files (x86)\Microsoft Visual Studio\2019\Community\VC\Tools\MSVC\14.29.30133\atlmfc\include\cstringt.h

; 2486 : 		return(str1.Compare(psz2) == 0);

  00032	ff 15 00 00 00
	00		 call	 DWORD PTR __imp_?Compare@?$CStringT@DV?$StrTraitMFC_DLL@DV?$ChTraitsCRT@D@ATL@@@@@ATL@@QBEHPBD@Z
  00038	85 c0		 test	 eax, eax
; File D:\git\src\IBK\IBK_DRFN\ProjSrc\SrcChartEx\ChartOCX\PacketData\TimeRealDataModule.cpp

; 186  : 	if (m_ttcTrPacket.GetPacketType() == _T("YYYYMMDDHHMMSS"))

  0003a	8b 45 0c	 mov	 eax, DWORD PTR _nRealTime$[ebp]
  0003d	8b 08		 mov	 ecx, DWORD PTR [eax]
  0003f	75 2e		 jne	 SHORT $LN6@SetRealDat

; 187  : 	{
; 188  : 		if (m_bMonthChart)

  00041	83 be a0 00 00
	00 00		 cmp	 DWORD PTR [esi+160], 0
  00048	8b 40 04	 mov	 eax, DWORD PTR [eax+4]
  0004b	6a 00		 push	 0
  0004d	74 10		 je	 SHORT $LN8@SetRealDat

; 189  : 			nRealDate = nRealTime / 100000000;	//  

  0004f	68 00 e1 f5 05	 push	 100000000		; 05f5e100H
  00054	50		 push	 eax
  00055	51		 push	 ecx
  00056	e8 00 00 00 00	 call	 __alldiv
  0005b	8b c8		 mov	 ecx, eax
  0005d	eb 13		 jmp	 SHORT $LN7@SetRealDat
$LN8@SetRealDat:

; 190  : 		else
; 191  : 			nRealDate = nRealTime / 1000000;	//  .

  0005f	68 40 42 0f 00	 push	 1000000			; 000f4240H
  00064	50		 push	 eax
  00065	51		 push	 ecx
  00066	e8 00 00 00 00	 call	 __alldiv
  0006b	8b c8		 mov	 ecx, eax

; 192  : 	}

  0006d	eb 03		 jmp	 SHORT $LN7@SetRealDat
$LN6@SetRealDat:

; 193  : 	else
; 194  : 		nRealDate = nRealTime;

  0006f	8b 50 04	 mov	 edx, DWORD PTR [eax+4]
$LN7@SetRealDat:

; 195  : 	// 2011.01.21 by SYS <<
; 196  : 
; 197  : 	// (2009/10/27 - Seung-Won, Bae) for Real Data Type.
; 198  : 	if( CChartInfo::WORLD_ON == m_nChartModeSetting || CChartInfo::FX == m_nChartModeSetting)

  00072	8b 46 58	 mov	 eax, DWORD PTR [esi+88]
  00075	89 4d f4	 mov	 DWORD PTR _nRealDate$[ebp], ecx
  00078	89 55 f8	 mov	 DWORD PTR _nRealDate$[ebp+4], edx
  0007b	83 f8 03	 cmp	 eax, 3
  0007e	74 05		 je	 SHORT $LN11@SetRealDat
  00080	83 f8 02	 cmp	 eax, 2
  00083	75 11		 jne	 SHORT $LN10@SetRealDat
$LN11@SetRealDat:

; 199  : 		GetMarketDate_DateTime( nRealDate);

  00085	8d 45 f4	 lea	 eax, DWORD PTR _nRealDate$[ebp]
  00088	8b ce		 mov	 ecx, esi
  0008a	50		 push	 eax
  0008b	e8 00 00 00 00	 call	 ?GetMarketDate_DateTime@CTimeRealDataModuleBase@@QBEXAA_J@Z ; CTimeRealDataModuleBase::GetMarketDate_DateTime
  00090	8b 55 f8	 mov	 edx, DWORD PTR _nRealDate$[ebp+4]
  00093	8b 4d f4	 mov	 ecx, DWORD PTR _nRealDate$[ebp]
$LN10@SetRealDat:

; 200  : 
; 201  : 	nRealDate = m_ttcTrPacket.GetPacketTypeTime( nRealDate);

  00096	6a 00		 push	 0
  00098	52		 push	 edx
  00099	51		 push	 ecx
  0009a	8d 4e 08	 lea	 ecx, DWORD PTR [esi+8]
  0009d	e8 00 00 00 00	 call	 ?GetPacketTypeTime@CTimeTypeConvert@@QBE_J_JH@Z ; CTimeTypeConvert::GetPacketTypeTime

; 202  : 
; 203  : 	//    . (     Return.)
; 204  : 	int nDeleteCount = 0;
; 205  : 	int nEndDate = -1;
; 206  : 	POSITION psnDate = pDateList->GetTailPosition();
; 207  : 	while( 0 < m_nClockedDataCount - nDeleteCount && psnDate)

  000a2	8b 4d fc	 mov	 ecx, DWORD PTR _this$1$[ebp]
  000a5	33 f6		 xor	 esi, esi
  000a7	8b 7f 08	 mov	 edi, DWORD PTR [edi+8]
  000aa	89 45 0c	 mov	 DWORD PTR _nRealDate$4$[ebp], eax
  000ad	89 55 f8	 mov	 DWORD PTR _nRealDate$2$[ebp], edx
  000b0	8b 49 40	 mov	 ecx, DWORD PTR [ecx+64]
  000b3	85 c9		 test	 ecx, ecx
  000b5	7e 38		 jle	 SHORT $LN13@SetRealDat
  000b7	8b d8		 mov	 ebx, eax
  000b9	0f 1f 80 00 00
	00 00		 npad	 7
$LL2@SetRealDat:
  000c0	85 ff		 test	 edi, edi
  000c2	74 1c		 je	 SHORT $LN29@SetRealDat
; File C:\Program Files (x86)\Microsoft Visual Studio\2019\Community\VC\Tools\MSVC\14.29.30133\atlmfc\include\afxtempl.h

; 829  : 	{ CNode* pNode = (CNode*) rPosition;

  000c4	8b c7		 mov	 eax, edi

; 830  : 		ASSERT(AfxIsValidAddress(pNode, sizeof(CNode)));
; 831  : 		rPosition = (POSITION) pNode->pPrev;

  000c6	8b 7f 04	 mov	 edi, DWORD PTR [edi+4]
; File D:\git\src\IBK\IBK_DRFN\ProjSrc\SrcChartEx\ChartOCX\PacketData\TimeRealDataModule.cpp

; 209  : 		nEndDate = ( int)pDateList->GetPrev( psnDate);

  000c9	f2 0f 2c 40 08	 cvttsd2si eax, QWORD PTR [eax+8]

; 210  : 		if( nEndDate < nRealDate) break;

  000ce	99		 cdq
  000cf	3b 55 f8	 cmp	 edx, DWORD PTR _nRealDate$2$[ebp]
  000d2	7c 0c		 jl	 SHORT $LN29@SetRealDat
  000d4	7f 04		 jg	 SHORT $LN34@SetRealDat
  000d6	3b c3		 cmp	 eax, ebx
  000d8	72 06		 jb	 SHORT $LN29@SetRealDat
$LN34@SetRealDat:

; 211  : 		nDeleteCount++;

  000da	49		 dec	 ecx
  000db	46		 inc	 esi
  000dc	85 c9		 test	 ecx, ecx
  000de	7f e0		 jg	 SHORT $LL2@SetRealDat
$LN29@SetRealDat:

; 212  : 	}
; 213  : 	if( 0 < nDeleteCount) 

  000e0	8b 5d 08	 mov	 ebx, DWORD PTR _pPacket$[ebp]
  000e3	85 f6		 test	 esi, esi
  000e5	7e 08		 jle	 SHORT $LN13@SetRealDat

; 214  : 		pPacket->RemoveBaseData( nDeleteCount);

  000e7	56		 push	 esi
  000e8	8b cb		 mov	 ecx, ebx
  000ea	e8 00 00 00 00	 call	 ?RemoveBaseData@CPacket@@QAE_NH@Z ; CPacket::RemoveBaseData
$LN13@SetRealDat:

; 215  : 	m_nClockedDataCount = 0;

  000ef	8b 45 fc	 mov	 eax, DWORD PTR _this$1$[ebp]

; 216  : 
; 217  : 	// 3.5.  
; 218  : 	//		m_dateData        Append  (Update )
; 219  : 	//		N          .
; 220  : 	//			 24   .
; 221  : 	nEndDate = -1;
; 222  : 	if( 0 < pPacket->GetCount()) 

  000f2	8b cb		 mov	 ecx, ebx
  000f4	83 cf ff	 or	 edi, -1
  000f7	c7 40 40 00 00
	00 00		 mov	 DWORD PTR [eax+64], 0
  000fe	8b 03		 mov	 eax, DWORD PTR [ebx]
  00100	ff 50 14	 call	 DWORD PTR [eax+20]
  00103	85 c0		 test	 eax, eax
  00105	7e 13		 jle	 SHORT $LN14@SetRealDat

; 223  : 		nEndDate = ( int)pPacket->GetnumericDataList()->GetTail();

  00107	8b cb		 mov	 ecx, ebx
  00109	e8 00 00 00 00	 call	 ?GetnumericDataList@CPacket@@QAEPAV?$CList@NN@@XZ ; CPacket::GetnumericDataList
; File C:\Program Files (x86)\Microsoft Visual Studio\2019\Community\VC\Tools\MSVC\14.29.30133\atlmfc\include\afxtempl.h

; 797  : 	{ ENSURE(m_pNodeTail != NULL);

  0010e	8b 40 08	 mov	 eax, DWORD PTR [eax+8]
  00111	85 c0		 test	 eax, eax
  00113	74 4b		 je	 SHORT $LN39@SetRealDat
; File D:\git\src\IBK\IBK_DRFN\ProjSrc\SrcChartEx\ChartOCX\PacketData\TimeRealDataModule.cpp

; 223  : 		nEndDate = ( int)pPacket->GetnumericDataList()->GetTail();

  00115	f2 0f 2c 78 08	 cvttsd2si edi, QWORD PTR [eax+8]
$LN14@SetRealDat:

; 224  : 
; 225  : 	//  TR      (TR data    )
; 226  : 	if( nEndDate < nRealDate) 

  0011a	8b 4d f8	 mov	 ecx, DWORD PTR _nRealDate$2$[ebp]
  0011d	8b c7		 mov	 eax, edi
  0011f	99		 cdq
  00120	8b f8		 mov	 edi, eax
  00122	3b d1		 cmp	 edx, ecx
  00124	7f 23		 jg	 SHORT $LN15@SetRealDat
  00126	8b 45 0c	 mov	 eax, DWORD PTR _nRealDate$4$[ebp]
  00129	7c 04		 jl	 SHORT $LN35@SetRealDat
  0012b	3b f8		 cmp	 edi, eax
  0012d	73 1a		 jae	 SHORT $LN15@SetRealDat
$LN35@SetRealDat:

; 227  : 		pPacket->AppendData( ( double)nRealDate);

  0012f	8b d1		 mov	 edx, ecx
  00131	8b c8		 mov	 ecx, eax
  00133	6a ff		 push	 -1
  00135	e8 00 00 00 00	 call	 __ltod3
  0013a	83 ec 08	 sub	 esp, 8
  0013d	8b cb		 mov	 ecx, ebx
  0013f	f2 0f 11 04 24	 movsd	 QWORD PTR [esp], xmm0
  00144	e8 00 00 00 00	 call	 ?AppendData@CPacket@@QAEXNH@Z ; CPacket::AppendData
$LN15@SetRealDat:

; 228  : 
; 229  : 	return nDeleteCount;

  00149	5f		 pop	 edi
  0014a	8b c6		 mov	 eax, esi

; 230  : }

  0014c	5e		 pop	 esi
  0014d	5b		 pop	 ebx
  0014e	8b e5		 mov	 esp, ebp
  00150	5d		 pop	 ebp
  00151	c2 08 00	 ret	 8
$LN33@SetRealDat:
  00154	5f		 pop	 edi
  00155	5e		 pop	 esi
  00156	83 c8 ff	 or	 eax, -1
  00159	5b		 pop	 ebx
  0015a	8b e5		 mov	 esp, ebp
  0015c	5d		 pop	 ebp
  0015d	c2 08 00	 ret	 8
$LN39@SetRealDat:
; File C:\Program Files (x86)\Microsoft Visual Studio\2019\Community\VC\Tools\MSVC\14.29.30133\atlmfc\include\afxtempl.h

; 797  : 	{ ENSURE(m_pNodeTail != NULL);

  00160	e8 00 00 00 00	 call	 ?AfxThrowInvalidArgException@@YGXXZ ; AfxThrowInvalidArgException
$LN37@SetRealDat:
  00165	cc		 int	 3
?SetRealData@CDateRealDataModule@@MAEHPAVCPacket@@AB_J@Z ENDP ; CDateRealDataModule::SetRealData
_TEXT	ENDS
; Function compile flags: /Ogtp
; File D:\git\src\IBK\IBK_DRFN\ProjSrc\SrcChartEx\ChartOCX\PacketData\TimeRealDataModule.cpp
;	COMDAT ??1CDateRealDataModule@@UAE@XZ
_TEXT	SEGMENT
??1CDateRealDataModule@@UAE@XZ PROC			; CDateRealDataModule::~CDateRealDataModule, COMDAT
; _this$ = ecx

; 173  : {

  00000	56		 push	 esi
  00001	8b f1		 mov	 esi, ecx

; 49   : }

  00003	8d 4e 7c	 lea	 ecx, DWORD PTR [esi+124]
  00006	c7 06 00 00 00
	00		 mov	 DWORD PTR [esi], OFFSET ??_7CTimeRealDataModuleBase@@6B@
  0000c	e8 00 00 00 00	 call	 ??1CMapPtrToPtr@@UAE@XZ	; CMapPtrToPtr::~CMapPtrToPtr
  00011	8d 4e 60	 lea	 ecx, DWORD PTR [esi+96]
  00014	e8 00 00 00 00	 call	 ??1CMapPtrToPtr@@UAE@XZ	; CMapPtrToPtr::~CMapPtrToPtr
  00019	8d 4e 08	 lea	 ecx, DWORD PTR [esi+8]
  0001c	5e		 pop	 esi
  0001d	e9 00 00 00 00	 jmp	 ??1CTimeTypeConvert@@UAE@XZ ; CTimeTypeConvert::~CTimeTypeConvert
??1CDateRealDataModule@@UAE@XZ ENDP			; CDateRealDataModule::~CDateRealDataModule
_TEXT	ENDS
; Function compile flags: /Ogtp
; File D:\git\src\IBK\IBK_DRFN\ProjSrc\SrcChartEx\ChartOCX\PacketData\TimeRealDataModule.cpp
;	COMDAT ??0CDateRealDataModule@@QAE@AAVCMarketTimeData@@ABV?$CStringT@DV?$StrTraitMFC_DLL@DV?$ChTraitsCRT@D@ATL@@@@@ATL@@W4HORZSCALEDRAWERTYPE@CScaleBaseData@@H@Z
_TEXT	SEGMENT
_this$ = -4						; size = 4
_p_marketTimeData$ = 8					; size = 4
_strPacketType$ = 12					; size = 4
_eDateUnitType$ = 16					; size = 4
_p_bMonthChart$ = 20					; size = 4
??0CDateRealDataModule@@QAE@AAVCMarketTimeData@@ABV?$CStringT@DV?$StrTraitMFC_DLL@DV?$ChTraitsCRT@D@ATL@@@@@ATL@@W4HORZSCALEDRAWERTYPE@CScaleBaseData@@H@Z PROC ; CDateRealDataModule::CDateRealDataModule, COMDAT
; _this$ = ecx

; 169  : {

  00000	55		 push	 ebp
  00001	8b ec		 mov	 ebp, esp
  00003	51		 push	 ecx
  00004	56		 push	 esi
  00005	ff 75 10	 push	 DWORD PTR _eDateUnitType$[ebp]
  00008	8b f1		 mov	 esi, ecx
  0000a	ff 75 0c	 push	 DWORD PTR _strPacketType$[ebp]
  0000d	89 75 fc	 mov	 DWORD PTR _this$[ebp], esi
  00010	ff 75 08	 push	 DWORD PTR _p_marketTimeData$[ebp]
  00013	e8 00 00 00 00	 call	 ??0CTimeRealDataModuleBase@@QAE@AAVCMarketTimeData@@ABV?$CStringT@DV?$StrTraitMFC_DLL@DV?$ChTraitsCRT@D@ATL@@@@@ATL@@W4HORZSCALEDRAWERTYPE@CScaleBaseData@@@Z ; CTimeRealDataModuleBase::CTimeRealDataModuleBase

; 170  : 	m_bMonthChart = p_bMonthChart;

  00018	8b 45 14	 mov	 eax, DWORD PTR _p_bMonthChart$[ebp]
  0001b	89 86 a0 00 00
	00		 mov	 DWORD PTR [esi+160], eax

; 171  : }

  00021	8b c6		 mov	 eax, esi
  00023	c7 06 00 00 00
	00		 mov	 DWORD PTR [esi], OFFSET ??_7CDateRealDataModule@@6B@
  00029	5e		 pop	 esi
  0002a	8b e5		 mov	 esp, ebp
  0002c	5d		 pop	 ebp
  0002d	c2 10 00	 ret	 16			; 00000010H
??0CDateRealDataModule@@QAE@AAVCMarketTimeData@@ABV?$CStringT@DV?$StrTraitMFC_DLL@DV?$ChTraitsCRT@D@ATL@@@@@ATL@@W4HORZSCALEDRAWERTYPE@CScaleBaseData@@H@Z ENDP ; CDateRealDataModule::CDateRealDataModule
_TEXT	ENDS
; Function compile flags: /Ogtp
; File D:\git\src\IBK\IBK_DRFN\ProjSrc\SrcChartEx\ChartOCX\PacketData\TimeRealDataModule.cpp
;	COMDAT ??_GCTickRealDataModule@@UAEPAXI@Z
_TEXT	SEGMENT
___flags$ = 8						; size = 4
??_GCTickRealDataModule@@UAEPAXI@Z PROC			; CTickRealDataModule::`scalar deleting destructor', COMDAT
; _this$ = ecx
  00000	55		 push	 ebp
  00001	8b ec		 mov	 ebp, esp

; 48   : {

  00003	56		 push	 esi
  00004	8b f1		 mov	 esi, ecx

; 49   : }

  00006	8d 4e 7c	 lea	 ecx, DWORD PTR [esi+124]
  00009	c7 06 00 00 00
	00		 mov	 DWORD PTR [esi], OFFSET ??_7CTimeRealDataModuleBase@@6B@
  0000f	e8 00 00 00 00	 call	 ??1CMapPtrToPtr@@UAE@XZ	; CMapPtrToPtr::~CMapPtrToPtr
  00014	8d 4e 60	 lea	 ecx, DWORD PTR [esi+96]
  00017	e8 00 00 00 00	 call	 ??1CMapPtrToPtr@@UAE@XZ	; CMapPtrToPtr::~CMapPtrToPtr
  0001c	8d 4e 08	 lea	 ecx, DWORD PTR [esi+8]
  0001f	e8 00 00 00 00	 call	 ??1CTimeTypeConvert@@UAE@XZ ; CTimeTypeConvert::~CTimeTypeConvert
  00024	f6 45 08 01	 test	 BYTE PTR ___flags$[ebp], 1
  00028	74 0e		 je	 SHORT $LN10@scalar
  0002a	68 b0 00 00 00	 push	 176			; 000000b0H
  0002f	56		 push	 esi
  00030	e8 00 00 00 00	 call	 ??3@YAXPAXI@Z		; operator delete
  00035	83 c4 08	 add	 esp, 8
$LN10@scalar:
  00038	8b c6		 mov	 eax, esi
  0003a	5e		 pop	 esi
  0003b	5d		 pop	 ebp
  0003c	c2 04 00	 ret	 4
??_GCTickRealDataModule@@UAEPAXI@Z ENDP			; CTickRealDataModule::`scalar deleting destructor'
_TEXT	ENDS
; Function compile flags: /Ogtp
; File D:\git\src\IBK\IBK_DRFN\ProjSrc\SrcChartEx\ChartOCX\PacketData\TimeRealDataModule.h
;	COMDAT ?GetTimeIntervalWithSecond@CTickRealDataModule@@MAE_JXZ
_TEXT	SEGMENT
?GetTimeIntervalWithSecond@CTickRealDataModule@@MAE_JXZ PROC ; CTickRealDataModule::GetTimeIntervalWithSecond, COMDAT
; _this$ = ecx

; 165  : 	virtual __int64		GetTimeIntervalWithSecond( void)		{	return 1;	}

  00000	b8 01 00 00 00	 mov	 eax, 1
  00005	33 d2		 xor	 edx, edx
  00007	c3		 ret	 0
?GetTimeIntervalWithSecond@CTickRealDataModule@@MAE_JXZ ENDP ; CTickRealDataModule::GetTimeIntervalWithSecond
_TEXT	ENDS
; Function compile flags: /Ogtp
; File D:\git\src\IBK\IBK_DRFN\ProjSrc\SrcChartEx\ChartOCX\PacketData\TimeRealDataModule.cpp
;	COMDAT ?SetRealData@CTickRealDataModule@@MAEHPAVCPacket@@AB_J@Z
_TEXT	SEGMENT
_pPacket$ = 8						; size = 4
_nRealTime$ = 12					; size = 4
?SetRealData@CTickRealDataModule@@MAEHPAVCPacket@@AB_J@Z PROC ; CTickRealDataModule::SetRealData, COMDAT
; _this$ = ecx

; 143  : {

  00000	55		 push	 ebp
  00001	8b ec		 mov	 ebp, esp
  00003	53		 push	 ebx
  00004	56		 push	 esi
  00005	8b f1		 mov	 esi, ecx
  00007	57		 push	 edi

; 144  : 	// 3.3.3. N  Counter .
; 145  : 	//	     m_nTimeInterval      .
; 146  : 	m_nAddTimeInterval++;

  00008	ff 86 a8 00 00
	00		 inc	 DWORD PTR [esi+168]

; 147  : 	if( m_nTimeInterval < m_nAddTimeInterval)

  0000e	8b 86 a8 00 00
	00		 mov	 eax, DWORD PTR [esi+168]
  00014	8b be a4 00 00
	00		 mov	 edi, DWORD PTR [esi+164]
  0001a	8b 8e a0 00 00
	00		 mov	 ecx, DWORD PTR [esi+160]
  00020	99		 cdq
  00021	3b fa		 cmp	 edi, edx
  00023	7f 10		 jg	 SHORT $LN8@SetRealDat
  00025	7c 04		 jl	 SHORT $LN9@SetRealDat
  00027	3b c8		 cmp	 ecx, eax
  00029	73 0a		 jae	 SHORT $LN8@SetRealDat
$LN9@SetRealDat:

; 148  : 		m_nAddTimeInterval = 1;

  0002b	c7 86 a8 00 00
	00 01 00 00 00	 mov	 DWORD PTR [esi+168], 1
$LN8@SetRealDat:

; 149  : 
; 150  : 	// (2009/11/3 - Seung-Won, Bae) User Time.
; 151  : 	__int64 nUserTime = nRealTime;
; 152  : 	if( 0 != m_nRealTimeDiff) nUserTime = CDataConversion::CalcTimeSum( nUserTime, m_nRealTimeDiff);

  00035	83 7e 48 00	 cmp	 DWORD PTR [esi+72], 0
  00039	8b 45 0c	 mov	 eax, DWORD PTR _nRealTime$[ebp]
  0003c	8b 18		 mov	 ebx, DWORD PTR [eax]
  0003e	8b 50 04	 mov	 edx, DWORD PTR [eax+4]
  00041	8b 46 4c	 mov	 eax, DWORD PTR [esi+76]
  00044	75 04		 jne	 SHORT $LN10@SetRealDat
  00046	85 c0		 test	 eax, eax
  00048	74 1e		 je	 SHORT $LN3@SetRealDat
$LN10@SetRealDat:
  0004a	6a 00		 push	 0
  0004c	50		 push	 eax
  0004d	ff 76 48	 push	 DWORD PTR [esi+72]
  00050	52		 push	 edx
  00051	53		 push	 ebx
  00052	e8 00 00 00 00	 call	 ?CalcTimeSum@CDataConversion@@SA_J_J0H@Z ; CDataConversion::CalcTimeSum
  00057	8b 8e a0 00 00
	00		 mov	 ecx, DWORD PTR [esi+160]
  0005d	83 c4 14	 add	 esp, 20			; 00000014H
  00060	8b be a4 00 00
	00		 mov	 edi, DWORD PTR [esi+164]
  00066	8b d8		 mov	 ebx, eax
$LN3@SetRealDat:

; 153  : 
; 154  : 	if( m_nTimeInterval <= 1 || m_nAddTimeInterval <= 1)

  00068	85 ff		 test	 edi, edi
  0006a	7c 3c		 jl	 SHORT $LN6@SetRealDat
  0006c	7f 05		 jg	 SHORT $LN11@SetRealDat
  0006e	83 f9 01	 cmp	 ecx, 1
  00071	76 35		 jbe	 SHORT $LN6@SetRealDat
$LN11@SetRealDat:
  00073	83 be a8 00 00
	00 01		 cmp	 DWORD PTR [esi+168], 1
  0007a	7e 2c		 jle	 SHORT $LN6@SetRealDat

; 156  : 	else	pPacket->UpdateData( ( double)m_ttcTrPacket.GetPacketTypeTime( nUserTime));

  0007c	6a 00		 push	 0
  0007e	52		 push	 edx
  0007f	53		 push	 ebx
  00080	8d 4e 08	 lea	 ecx, DWORD PTR [esi+8]
  00083	e8 00 00 00 00	 call	 ?GetPacketTypeTime@CTimeTypeConvert@@QBE_J_JH@Z ; CTimeTypeConvert::GetPacketTypeTime
  00088	8b c8		 mov	 ecx, eax
  0008a	e8 00 00 00 00	 call	 __ltod3
  0008f	8b 4d 08	 mov	 ecx, DWORD PTR _pPacket$[ebp]
  00092	83 ec 08	 sub	 esp, 8
  00095	f2 0f 11 04 24	 movsd	 QWORD PTR [esp], xmm0
  0009a	e8 00 00 00 00	 call	 ?UpdateData@CPacket@@QAEXN@Z ; CPacket::UpdateData
  0009f	5f		 pop	 edi

; 157  : 
; 158  : 	return 0;
; 159  : }

  000a0	5e		 pop	 esi
  000a1	33 c0		 xor	 eax, eax
  000a3	5b		 pop	 ebx
  000a4	5d		 pop	 ebp
  000a5	c2 08 00	 ret	 8
$LN6@SetRealDat:

; 155  : 			pPacket->AppendData( ( double)m_ttcTrPacket.GetPacketTypeTime( nUserTime));

  000a8	6a ff		 push	 -1
  000aa	6a 00		 push	 0
  000ac	52		 push	 edx
  000ad	53		 push	 ebx
  000ae	8d 4e 08	 lea	 ecx, DWORD PTR [esi+8]
  000b1	e8 00 00 00 00	 call	 ?GetPacketTypeTime@CTimeTypeConvert@@QBE_J_JH@Z ; CTimeTypeConvert::GetPacketTypeTime
  000b6	8b c8		 mov	 ecx, eax
  000b8	e8 00 00 00 00	 call	 __ltod3
  000bd	8b 4d 08	 mov	 ecx, DWORD PTR _pPacket$[ebp]
  000c0	83 ec 08	 sub	 esp, 8
  000c3	f2 0f 11 04 24	 movsd	 QWORD PTR [esp], xmm0
  000c8	e8 00 00 00 00	 call	 ?AppendData@CPacket@@QAEXNH@Z ; CPacket::AppendData
  000cd	5f		 pop	 edi

; 157  : 
; 158  : 	return 0;
; 159  : }

  000ce	5e		 pop	 esi
  000cf	33 c0		 xor	 eax, eax
  000d1	5b		 pop	 ebx
  000d2	5d		 pop	 ebp
  000d3	c2 08 00	 ret	 8
?SetRealData@CTickRealDataModule@@MAEHPAVCPacket@@AB_J@Z ENDP ; CTickRealDataModule::SetRealData
_TEXT	ENDS
; Function compile flags: /Ogtp
; File D:\git\src\IBK\IBK_DRFN\ProjSrc\SrcChartEx\ChartOCX\PacketData\TimeRealDataModule.cpp
;	COMDAT ??1CTickRealDataModule@@UAE@XZ
_TEXT	SEGMENT
??1CTickRealDataModule@@UAE@XZ PROC			; CTickRealDataModule::~CTickRealDataModule, COMDAT
; _this$ = ecx

; 138  : {

  00000	56		 push	 esi
  00001	8b f1		 mov	 esi, ecx

; 49   : }

  00003	8d 4e 7c	 lea	 ecx, DWORD PTR [esi+124]
  00006	c7 06 00 00 00
	00		 mov	 DWORD PTR [esi], OFFSET ??_7CTimeRealDataModuleBase@@6B@
  0000c	e8 00 00 00 00	 call	 ??1CMapPtrToPtr@@UAE@XZ	; CMapPtrToPtr::~CMapPtrToPtr
  00011	8d 4e 60	 lea	 ecx, DWORD PTR [esi+96]
  00014	e8 00 00 00 00	 call	 ??1CMapPtrToPtr@@UAE@XZ	; CMapPtrToPtr::~CMapPtrToPtr
  00019	8d 4e 08	 lea	 ecx, DWORD PTR [esi+8]
  0001c	5e		 pop	 esi
  0001d	e9 00 00 00 00	 jmp	 ??1CTimeTypeConvert@@UAE@XZ ; CTimeTypeConvert::~CTimeTypeConvert
??1CTickRealDataModule@@UAE@XZ ENDP			; CTickRealDataModule::~CTickRealDataModule
_TEXT	ENDS
; Function compile flags: /Ogtp
; File D:\git\src\IBK\IBK_DRFN\ProjSrc\SrcChartEx\ChartOCX\PacketData\TimeRealDataModule.cpp
;	COMDAT ??0CTickRealDataModule@@QAE@AAVCMarketTimeData@@ABV?$CStringT@DV?$StrTraitMFC_DLL@DV?$ChTraitsCRT@D@ATL@@@@@ATL@@HHW4HORZSCALEDRAWERTYPE@CScaleBaseData@@@Z
_TEXT	SEGMENT
_this$ = -4						; size = 4
_p_marketTimeData$ = 8					; size = 4
_strPacketType$ = 12					; size = 4
_nTimeInterval$ = 16					; size = 4
_nAddTimeInterval$ = 20					; size = 4
_eDateUnitType$ = 24					; size = 4
??0CTickRealDataModule@@QAE@AAVCMarketTimeData@@ABV?$CStringT@DV?$StrTraitMFC_DLL@DV?$ChTraitsCRT@D@ATL@@@@@ATL@@HHW4HORZSCALEDRAWERTYPE@CScaleBaseData@@@Z PROC ; CTickRealDataModule::CTickRealDataModule, COMDAT
; _this$ = ecx

; 129  : {

  00000	55		 push	 ebp
  00001	8b ec		 mov	 ebp, esp
  00003	51		 push	 ecx
  00004	56		 push	 esi
  00005	ff 75 18	 push	 DWORD PTR _eDateUnitType$[ebp]
  00008	8b f1		 mov	 esi, ecx
  0000a	ff 75 0c	 push	 DWORD PTR _strPacketType$[ebp]
  0000d	89 75 fc	 mov	 DWORD PTR _this$[ebp], esi
  00010	ff 75 08	 push	 DWORD PTR _p_marketTimeData$[ebp]
  00013	e8 00 00 00 00	 call	 ??0CTimeRealDataModuleBase@@QAE@AAVCMarketTimeData@@ABV?$CStringT@DV?$StrTraitMFC_DLL@DV?$ChTraitsCRT@D@ATL@@@@@ATL@@W4HORZSCALEDRAWERTYPE@CScaleBaseData@@@Z ; CTimeRealDataModuleBase::CTimeRealDataModuleBase

; 130  : 	// (2009/10/21 - Seung-Won, Bae) Comment. N    . (UT)
; 131  : 	m_nTimeInterval = nTimeInterval;	// 

  00018	8b 45 10	 mov	 eax, DWORD PTR _nTimeInterval$[ebp]
  0001b	99		 cdq
  0001c	c7 06 00 00 00
	00		 mov	 DWORD PTR [esi], OFFSET ??_7CTickRealDataModule@@6B@
  00022	89 86 a0 00 00
	00		 mov	 DWORD PTR [esi+160], eax
  00028	89 96 a4 00 00
	00		 mov	 DWORD PTR [esi+164], edx

; 132  : 	if( m_nTimeInterval < 1) m_nTimeInterval = 1;

  0002e	85 d2		 test	 edx, edx
  00030	7f 1b		 jg	 SHORT $LN7@CTickRealD
  00032	7c 05		 jl	 SHORT $LN5@CTickRealD
  00034	83 f8 01	 cmp	 eax, 1
  00037	73 14		 jae	 SHORT $LN7@CTickRealD
$LN5@CTickRealD:
  00039	c7 86 a0 00 00
	00 01 00 00 00	 mov	 DWORD PTR [esi+160], 1
  00043	c7 86 a4 00 00
	00 00 00 00 00	 mov	 DWORD PTR [esi+164], 0
$LN7@CTickRealD:

; 133  : 
; 134  : 	// (2009/10/20 - Seung-Won, Bae) N    Tick  ( UTEC  )
; 135  : 	m_nAddTimeInterval = nAddTimeInterval;
; 136  : }

  0004d	8b 45 14	 mov	 eax, DWORD PTR _nAddTimeInterval$[ebp]
  00050	89 86 a8 00 00
	00		 mov	 DWORD PTR [esi+168], eax
  00056	8b c6		 mov	 eax, esi
  00058	5e		 pop	 esi
  00059	8b e5		 mov	 esp, ebp
  0005b	5d		 pop	 ebp
  0005c	c2 14 00	 ret	 20			; 00000014H
??0CTickRealDataModule@@QAE@AAVCMarketTimeData@@ABV?$CStringT@DV?$StrTraitMFC_DLL@DV?$ChTraitsCRT@D@ATL@@@@@ATL@@HHW4HORZSCALEDRAWERTYPE@CScaleBaseData@@@Z ENDP ; CTickRealDataModule::CTickRealDataModule
_TEXT	ENDS
; Function compile flags: /Ogtp
; File D:\git\src\IBK\IBK_DRFN\ProjSrc\SrcChartEx\ChartOCX\PacketData\TimeRealDataModule.cpp
;	COMDAT ??_GCTimeRealDataModuleBase@@UAEPAXI@Z
_TEXT	SEGMENT
___flags$ = 8						; size = 4
??_GCTimeRealDataModuleBase@@UAEPAXI@Z PROC		; CTimeRealDataModuleBase::`scalar deleting destructor', COMDAT
; _this$ = ecx
  00000	55		 push	 ebp
  00001	8b ec		 mov	 ebp, esp

; 48   : {

  00003	56		 push	 esi
  00004	8b f1		 mov	 esi, ecx

; 49   : }

  00006	8d 4e 7c	 lea	 ecx, DWORD PTR [esi+124]
  00009	c7 06 00 00 00
	00		 mov	 DWORD PTR [esi], OFFSET ??_7CTimeRealDataModuleBase@@6B@
  0000f	e8 00 00 00 00	 call	 ??1CMapPtrToPtr@@UAE@XZ	; CMapPtrToPtr::~CMapPtrToPtr
  00014	8d 4e 60	 lea	 ecx, DWORD PTR [esi+96]
  00017	e8 00 00 00 00	 call	 ??1CMapPtrToPtr@@UAE@XZ	; CMapPtrToPtr::~CMapPtrToPtr
  0001c	8d 4e 08	 lea	 ecx, DWORD PTR [esi+8]
  0001f	e8 00 00 00 00	 call	 ??1CTimeTypeConvert@@UAE@XZ ; CTimeTypeConvert::~CTimeTypeConvert
  00024	f6 45 08 01	 test	 BYTE PTR ___flags$[ebp], 1
  00028	74 0e		 je	 SHORT $LN7@scalar
  0002a	68 a0 00 00 00	 push	 160			; 000000a0H
  0002f	56		 push	 esi
  00030	e8 00 00 00 00	 call	 ??3@YAXPAXI@Z		; operator delete
  00035	83 c4 08	 add	 esp, 8
$LN7@scalar:
  00038	8b c6		 mov	 eax, esi
  0003a	5e		 pop	 esi
  0003b	5d		 pop	 ebp
  0003c	c2 04 00	 ret	 4
??_GCTimeRealDataModuleBase@@UAEPAXI@Z ENDP		; CTimeRealDataModuleBase::`scalar deleting destructor'
_TEXT	ENDS
; Function compile flags: /Ogtp
; File D:\git\src\IBK\IBK_DRFN\ProjSrc\SrcChartEx\ChartOCX\PacketData\TimeRealDataModule.cpp
; File C:\Program Files (x86)\Windows Kits\10\Include\10.0.22000.0\ucrt\time.h
; File D:\git\src\IBK\IBK_DRFN\ProjSrc\SrcChartEx\ChartOCX\PacketData\TimeRealDataModule.cpp
; File C:\Program Files (x86)\Windows Kits\10\Include\10.0.22000.0\ucrt\time.h
; File D:\git\src\IBK\IBK_DRFN\ProjSrc\SrcChartEx\ChartOCX\PacketData\TimeRealDataModule.cpp
; File C:\Program Files (x86)\Windows Kits\10\Include\10.0.22000.0\ucrt\time.h
; File D:\git\src\IBK\IBK_DRFN\ProjSrc\SrcChartEx\ChartOCX\PacketData\TimeRealDataModule.cpp
;	COMDAT ?IsMarketDay@CTimeRealDataModuleBase@@QAEHH@Z
_TEXT	SEGMENT
_pTemp$ = -44						; size = 4
_tmMarket$ = -40					; size = 36
__$ArrayPad$ = -4					; size = 4
_p_nDate$ = 8						; size = 4
?IsMarketDay@CTimeRealDataModuleBase@@QAEHH@Z PROC	; CTimeRealDataModuleBase::IsMarketDay, COMDAT
; _this$ = ecx

; 102  : {

  00000	55		 push	 ebp
  00001	8b ec		 mov	 ebp, esp
  00003	83 ec 2c	 sub	 esp, 44			; 0000002cH
  00006	a1 00 00 00 00	 mov	 eax, DWORD PTR ___security_cookie
  0000b	33 c5		 xor	 eax, ebp
  0000d	89 45 fc	 mov	 DWORD PTR __$ArrayPad$[ebp], eax
  00010	53		 push	 ebx
  00011	56		 push	 esi
  00012	57		 push	 edi
  00013	8b 7d 08	 mov	 edi, DWORD PTR _p_nDate$[ebp]

; 103  : 	tm tmMarket = { 0, 0, 0, 0, 0, 0, 0, 0, -1};	//[A00000554]alzioyes:20110530  .
; 104  : 	tmMarket.tm_mday = int( p_nDate % 100);

  00016	b8 1f 85 eb 51	 mov	 eax, 1374389535		; 51eb851fH
  0001b	f7 ef		 imul	 edi
  0001d	8b d9		 mov	 ebx, ecx
  0001f	c7 45 d8 00 00
	00 00		 mov	 DWORD PTR _tmMarket$[ebp], 0
  00026	c1 fa 05	 sar	 edx, 5

; 106  : 	tmMarket.tm_mon = nMonth % 100 - 1;

  00029	b8 1f 85 eb 51	 mov	 eax, 1374389535		; 51eb851fH
  0002e	8b f2		 mov	 esi, edx
  00030	c7 45 dc 00 00
	00 00		 mov	 DWORD PTR _tmMarket$[ebp+4], 0
  00037	c1 ee 1f	 shr	 esi, 31			; 0000001fH
  0003a	03 f2		 add	 esi, edx
  0003c	c7 45 e0 00 00
	00 00		 mov	 DWORD PTR _tmMarket$[ebp+8], 0
  00043	6b ce 64	 imul	 ecx, esi, 100
  00046	8b d7		 mov	 edx, edi
  00048	c7 45 f0 00 00
	00 00		 mov	 DWORD PTR _tmMarket$[ebp+24], 0
  0004f	c7 45 f4 00 00
	00 00		 mov	 DWORD PTR _tmMarket$[ebp+28], 0
  00056	c7 45 f8 ff ff
	ff ff		 mov	 DWORD PTR _tmMarket$[ebp+32], -1
  0005d	2b d1		 sub	 edx, ecx
  0005f	89 55 e4	 mov	 DWORD PTR _tmMarket$[ebp+12], edx
  00062	f7 ee		 imul	 esi
  00064	c1 fa 05	 sar	 edx, 5
  00067	8b ca		 mov	 ecx, edx
  00069	c1 e9 1f	 shr	 ecx, 31			; 0000001fH
  0006c	03 ca		 add	 ecx, edx
  0006e	6b c1 64	 imul	 eax, ecx, 100
  00071	2b f0		 sub	 esi, eax

; 107  : 	tmMarket.tm_year = nMonth / 100 - 1900;

  00073	8d 81 94 f8 ff
	ff		 lea	 eax, DWORD PTR [ecx-1900]
  00079	89 45 ec	 mov	 DWORD PTR _tmMarket$[ebp+20], eax
  0007c	4e		 dec	 esi
; File C:\Program Files (x86)\Windows Kits\10\Include\10.0.22000.0\ucrt\time.h

; 515  :             return _mktime64(_Tm);

  0007d	8d 45 d8	 lea	 eax, DWORD PTR _tmMarket$[ebp]
; File D:\git\src\IBK\IBK_DRFN\ProjSrc\SrcChartEx\ChartOCX\PacketData\TimeRealDataModule.cpp

; 106  : 	tmMarket.tm_mon = nMonth % 100 - 1;

  00080	89 75 e8	 mov	 DWORD PTR _tmMarket$[ebp+16], esi
; File C:\Program Files (x86)\Windows Kits\10\Include\10.0.22000.0\ucrt\time.h

; 515  :             return _mktime64(_Tm);

  00083	50		 push	 eax
  00084	ff 15 00 00 00
	00		 call	 DWORD PTR __imp___mktime64
; File D:\git\src\IBK\IBK_DRFN\ProjSrc\SrcChartEx\ChartOCX\PacketData\TimeRealDataModule.cpp

; 110  : 	if( 0 == tmMarket.tm_wday || 6 == tmMarket.tm_wday)

  0008a	8b 45 f0	 mov	 eax, DWORD PTR _tmMarket$[ebp+24]
; File C:\Program Files (x86)\Windows Kits\10\Include\10.0.22000.0\ucrt\time.h

; 515  :             return _mktime64(_Tm);

  0008d	83 c4 04	 add	 esp, 4
; File D:\git\src\IBK\IBK_DRFN\ProjSrc\SrcChartEx\ChartOCX\PacketData\TimeRealDataModule.cpp

; 109  : 	void *pTemp = NULL;

  00090	c7 45 d4 00 00
	00 00		 mov	 DWORD PTR _pTemp$[ebp], 0

; 110  : 	if( 0 == tmMarket.tm_wday || 6 == tmMarket.tm_wday)

  00097	85 c0		 test	 eax, eax
  00099	74 2e		 je	 SHORT $LN4@IsMarketDa
  0009b	83 f8 06	 cmp	 eax, 6
  0009e	74 29		 je	 SHORT $LN4@IsMarketDa

; 113  : 	}
; 114  : 	else
; 115  : 	{
; 116  : 		if( m_mapRemovedMarketDays.Lookup( ( void *)p_nDate, pTemp)) return FALSE;

  000a0	8d 45 d4	 lea	 eax, DWORD PTR _pTemp$[ebp]
  000a3	50		 push	 eax
  000a4	57		 push	 edi
  000a5	8d 4b 7c	 lea	 ecx, DWORD PTR [ebx+124]
  000a8	e8 00 00 00 00	 call	 ?Lookup@CMapPtrToPtr@@QBEHPAXAAPAX@Z ; CMapPtrToPtr::Lookup
  000ad	85 c0		 test	 eax, eax
  000af	75 29		 jne	 SHORT $LN10@IsMarketDa
$LN5@IsMarketDa:
  000b1	5f		 pop	 edi

; 117  : 	}
; 118  : 	return TRUE;
; 119  : }

  000b2	5e		 pop	 esi
  000b3	b8 01 00 00 00	 mov	 eax, 1
  000b8	5b		 pop	 ebx
  000b9	8b 4d fc	 mov	 ecx, DWORD PTR __$ArrayPad$[ebp]
  000bc	33 cd		 xor	 ecx, ebp
  000be	e8 00 00 00 00	 call	 @__security_check_cookie@4
  000c3	8b e5		 mov	 esp, ebp
  000c5	5d		 pop	 ebp
  000c6	c2 04 00	 ret	 4
$LN4@IsMarketDa:

; 111  : 	{
; 112  : 		if( !m_mapAddedMarketDays.Lookup( ( void *)p_nDate, pTemp)) return FALSE;

  000c9	8d 45 d4	 lea	 eax, DWORD PTR _pTemp$[ebp]
  000cc	50		 push	 eax
  000cd	57		 push	 edi
  000ce	8d 4b 60	 lea	 ecx, DWORD PTR [ebx+96]
  000d1	e8 00 00 00 00	 call	 ?Lookup@CMapPtrToPtr@@QBEHPAXAAPAX@Z ; CMapPtrToPtr::Lookup
  000d6	85 c0		 test	 eax, eax
  000d8	75 d7		 jne	 SHORT $LN5@IsMarketDa
$LN10@IsMarketDa:

; 117  : 	}
; 118  : 	return TRUE;
; 119  : }

  000da	8b 4d fc	 mov	 ecx, DWORD PTR __$ArrayPad$[ebp]
  000dd	33 c0		 xor	 eax, eax
  000df	5f		 pop	 edi
  000e0	5e		 pop	 esi
  000e1	33 cd		 xor	 ecx, ebp
  000e3	5b		 pop	 ebx
  000e4	e8 00 00 00 00	 call	 @__security_check_cookie@4
  000e9	8b e5		 mov	 esp, ebp
  000eb	5d		 pop	 ebp
  000ec	c2 04 00	 ret	 4
?IsMarketDay@CTimeRealDataModuleBase@@QAEHH@Z ENDP	; CTimeRealDataModuleBase::IsMarketDay
_TEXT	ENDS
; Function compile flags: /Ogtp
; File D:\git\src\IBK\IBK_DRFN\ProjSrc\SrcChartEx\ChartOCX\PacketData\TimeRealDataModule.h
;	COMDAT ?GetTimeIntervalWithSecond@CTimeRealDataModuleBase@@UAE_JXZ
_TEXT	SEGMENT
?GetTimeIntervalWithSecond@CTimeRealDataModuleBase@@UAE_JXZ PROC ; CTimeRealDataModuleBase::GetTimeIntervalWithSecond, COMDAT
; _this$ = ecx

; 128  : 	virtual __int64		GetTimeIntervalWithSecond( void)		{	return 0;	}

  00000	33 c0		 xor	 eax, eax
  00002	33 d2		 xor	 edx, edx
  00004	c3		 ret	 0
?GetTimeIntervalWithSecond@CTimeRealDataModuleBase@@UAE_JXZ ENDP ; CTimeRealDataModuleBase::GetTimeIntervalWithSecond
_TEXT	ENDS
; Function compile flags: /Ogtp
; File D:\git\src\IBK\IBK_DRFN\ProjSrc\SrcChartEx\ChartOCX\PacketData\TimeRealDataModule.cpp
; File D:\git\src\IBK\IBK_DRFN\ProjSrc\SrcChartEx\ChartOCX\PacketData\PacketBaseData.h
; File D:\git\src\IBK\IBK_DRFN\ProjSrc\SrcChartEx\ChartOCX\PacketData\TimeRealDataModule.cpp
;	COMDAT ?GetMarketDate_DateTime@CTimeRealDataModuleBase@@QBEXAA_J@Z
_TEXT	SEGMENT
_nMarketEndTime$ = -8					; size = 4
_nMarketStartTime$ = -4					; size = 4
tv252 = 8						; size = 4
tv241 = 8						; size = 4
_p_nData$ = 8						; size = 4
?GetMarketDate_DateTime@CTimeRealDataModuleBase@@QBEXAA_J@Z PROC ; CTimeRealDataModuleBase::GetMarketDate_DateTime, COMDAT
; _this$ = ecx

; 84   : {

  00000	55		 push	 ebp
  00001	8b ec		 mov	 ebp, esp
  00003	83 ec 08	 sub	 esp, 8
  00006	53		 push	 ebx
  00007	8b d9		 mov	 ebx, ecx
  00009	56		 push	 esi
  0000a	57		 push	 edi

; 85   : 	if( !m_marketTimeData.IsReverseTime()) return;

  0000b	8b 7b 54	 mov	 edi, DWORD PTR [ebx+84]
; File D:\git\src\IBK\IBK_DRFN\ProjSrc\SrcChartEx\ChartOCX\PacketData\PacketBaseData.h

; 123  : 	bool	IsReverseTime( void) const		{	return m_endTime.GetTimeFromServer() <= m_startTime.GetTimeFromServer();		}

  0000e	8d 4f 08	 lea	 ecx, DWORD PTR [edi+8]
  00011	e8 00 00 00 00	 call	 ?GetTimeFromServer@CTimeData@@QBEHXZ ; CTimeData::GetTimeFromServer
  00016	8b cf		 mov	 ecx, edi
  00018	8b f0		 mov	 esi, eax
  0001a	e8 00 00 00 00	 call	 ?GetTimeFromServer@CTimeData@@QBEHXZ ; CTimeData::GetTimeFromServer
  0001f	3b f0		 cmp	 esi, eax
; File D:\git\src\IBK\IBK_DRFN\ProjSrc\SrcChartEx\ChartOCX\PacketData\TimeRealDataModule.cpp

; 85   : 	if( !m_marketTimeData.IsReverseTime()) return;

  00021	0f 8f a6 00 00
	00		 jg	 $LN6@GetMarketD

; 86   : 
; 87   : 	// X ScaleManager   Scale   / .
; 88   : 	int nMarketStartTime = -1, nMarketEndTime = -1;
; 89   : 	if( !m_marketTimeData.GetMarketTime( nMarketStartTime, nMarketEndTime)) return;

  00027	8b 4b 54	 mov	 ecx, DWORD PTR [ebx+84]
  0002a	8d 45 f8	 lea	 eax, DWORD PTR _nMarketEndTime$[ebp]
  0002d	50		 push	 eax
  0002e	8d 45 fc	 lea	 eax, DWORD PTR _nMarketStartTime$[ebp]
  00031	c7 45 fc ff ff
	ff ff		 mov	 DWORD PTR _nMarketStartTime$[ebp], -1
  00038	50		 push	 eax
  00039	c7 45 f8 ff ff
	ff ff		 mov	 DWORD PTR _nMarketEndTime$[ebp], -1
  00040	e8 00 00 00 00	 call	 ?GetMarketTime@CMarketTimeData@@QBE_NAAH0@Z ; CMarketTimeData::GetMarketTime
  00045	84 c0		 test	 al, al
  00047	0f 84 80 00 00
	00		 je	 $LN6@GetMarketD

; 90   : 
; 91   : 	//<<20100511_JS.Kim .        
; 92   : 	//           ...
; 93   : 	//if( CChartInfo::WORLD_ON == m_nChartModeSetting && nMarketStartTime <= p_nData % 1000000)
; 94   : 	if( CChartInfo::WORLD_ON == m_nChartModeSetting && nMarketStartTime > p_nData % 1000000)

  0004d	8b 43 58	 mov	 eax, DWORD PTR [ebx+88]
  00050	83 f8 03	 cmp	 eax, 3
  00053	75 2c		 jne	 SHORT $LN11@GetMarketD
  00055	8b 75 08	 mov	 esi, DWORD PTR _p_nData$[ebp]
  00058	6a 00		 push	 0
  0005a	68 40 42 0f 00	 push	 1000000			; 000f4240H
  0005f	8b 7e 04	 mov	 edi, DWORD PTR [esi+4]
  00062	8b 1e		 mov	 ebx, DWORD PTR [esi]
  00064	57		 push	 edi
  00065	53		 push	 ebx
  00066	e8 00 00 00 00	 call	 __allrem
  0006b	89 45 08	 mov	 DWORD PTR tv241[ebp], eax
  0006e	8b ca		 mov	 ecx, edx
  00070	8b 45 fc	 mov	 eax, DWORD PTR _nMarketStartTime$[ebp]
  00073	99		 cdq
  00074	3b d1		 cmp	 edx, ecx
  00076	7c 55		 jl	 SHORT $LN6@GetMarketD
  00078	7f 3b		 jg	 SHORT $LN14@GetMarketD
  0007a	3b 45 08	 cmp	 eax, DWORD PTR tv241[ebp]
  0007d	76 4e		 jbe	 SHORT $LN6@GetMarketD

; 95   : 		p_nData = CDataConversion::CalcTimeSum( p_nData, -1000000);

  0007f	eb 34		 jmp	 SHORT $LN14@GetMarketD
$LN11@GetMarketD:

; 96   : 	else if( ( CChartInfo::FX == m_nChartModeSetting || CChartInfo::KRX_CME == m_nChartModeSetting) && p_nData % 1000000 < nMarketStartTime)

  00081	83 f8 02	 cmp	 eax, 2
  00084	74 05		 je	 SHORT $LN7@GetMarketD
  00086	83 f8 04	 cmp	 eax, 4
  00089	75 42		 jne	 SHORT $LN6@GetMarketD
$LN7@GetMarketD:
  0008b	8b 75 08	 mov	 esi, DWORD PTR _p_nData$[ebp]
  0008e	6a 00		 push	 0
  00090	68 40 42 0f 00	 push	 1000000			; 000f4240H
  00095	8b 7e 04	 mov	 edi, DWORD PTR [esi+4]
  00098	8b 1e		 mov	 ebx, DWORD PTR [esi]
  0009a	57		 push	 edi
  0009b	53		 push	 ebx
  0009c	e8 00 00 00 00	 call	 __allrem
  000a1	89 45 08	 mov	 DWORD PTR tv252[ebp], eax
  000a4	8b ca		 mov	 ecx, edx
  000a6	8b 45 fc	 mov	 eax, DWORD PTR _nMarketStartTime$[ebp]
  000a9	99		 cdq
  000aa	3b ca		 cmp	 ecx, edx
  000ac	7f 1f		 jg	 SHORT $LN6@GetMarketD
  000ae	7c 05		 jl	 SHORT $LN14@GetMarketD
  000b0	39 45 08	 cmp	 DWORD PTR tv252[ebp], eax
  000b3	73 18		 jae	 SHORT $LN6@GetMarketD
$LN14@GetMarketD:

; 97   : 		p_nData = CDataConversion::CalcTimeSum( p_nData, -1000000);
; 98   : }

  000b5	6a 00		 push	 0
  000b7	6a ff		 push	 -1
  000b9	68 c0 bd f0 ff	 push	 -1000000		; fff0bdc0H
  000be	57		 push	 edi
  000bf	53		 push	 ebx
  000c0	e8 00 00 00 00	 call	 ?CalcTimeSum@CDataConversion@@SA_J_J0H@Z ; CDataConversion::CalcTimeSum
  000c5	89 56 04	 mov	 DWORD PTR [esi+4], edx
  000c8	83 c4 14	 add	 esp, 20			; 00000014H
  000cb	89 06		 mov	 DWORD PTR [esi], eax
$LN6@GetMarketD:
  000cd	5f		 pop	 edi
  000ce	5e		 pop	 esi
  000cf	5b		 pop	 ebx
  000d0	8b e5		 mov	 esp, ebp
  000d2	5d		 pop	 ebp
  000d3	c2 04 00	 ret	 4
?GetMarketDate_DateTime@CTimeRealDataModuleBase@@QBEXAA_J@Z ENDP ; CTimeRealDataModuleBase::GetMarketDate_DateTime
_TEXT	ENDS
; Function compile flags: /Ogtp
; File D:\git\src\IBK\IBK_DRFN\ProjSrc\SrcChartEx\ChartOCX\PacketData\TimeRealDataModule.cpp
; File C:\Program Files (x86)\Microsoft Visual Studio\2019\Community\VC\Tools\MSVC\14.29.30133\atlmfc\include\atlsimpstr.h
; File D:\git\src\IBK\IBK_DRFN\ProjSrc\SrcChartEx\ChartOCX\PacketData\TimeRealDataModule.cpp
; File C:\Program Files (x86)\Microsoft Visual Studio\2019\Community\VC\Tools\MSVC\14.29.30133\atlmfc\include\atlsimpstr.h
; File D:\git\src\IBK\IBK_DRFN\ProjSrc\SrcChartEx\ChartOCX\PacketData\TimeRealDataModule.cpp
; File C:\Program Files (x86)\Microsoft Visual Studio\2019\Community\VC\Tools\MSVC\14.29.30133\atlmfc\include\atlsimpstr.h
; File D:\git\src\IBK\IBK_DRFN\ProjSrc\SrcChartEx\ChartOCX\PacketData\TimeRealDataModule.cpp
; File C:\Program Files (x86)\Windows Kits\10\Include\10.0.22000.0\ucrt\string.h
; File D:\git\src\IBK\IBK_DRFN\ProjSrc\SrcChartEx\ChartOCX\PacketData\TimeRealDataModule.cpp
; File C:\Program Files (x86)\Windows Kits\10\Include\10.0.22000.0\ucrt\string.h
; File D:\git\src\IBK\IBK_DRFN\ProjSrc\SrcChartEx\ChartOCX\PacketData\TimeRealDataModule.cpp
; File C:\Program Files (x86)\Microsoft Visual Studio\2019\Community\VC\Tools\MSVC\14.29.30133\atlmfc\include\afxcoll.inl
; File D:\git\src\IBK\IBK_DRFN\ProjSrc\SrcChartEx\ChartOCX\PacketData\TimeRealDataModule.cpp
; File C:\Program Files (x86)\Microsoft Visual Studio\2019\Community\VC\Tools\MSVC\14.29.30133\atlmfc\include\afxcoll.inl
; File D:\git\src\IBK\IBK_DRFN\ProjSrc\SrcChartEx\ChartOCX\PacketData\TimeRealDataModule.cpp
;	COMDAT ?OnInitTR@CTimeRealDataModuleBase@@QAEXAB_JABHABV?$CStringT@DV?$StrTraitMFC_DLL@DV?$ChTraitsCRT@D@ATL@@@@@ATL@@@Z
_TEXT	SEGMENT
tv239 = -16						; size = 4
__$EHRec$ = -12						; size = 12
_strBuffer$2 = 8					; size = 4
_p_nRealTimeDiff$ = 8					; size = 4
tv238 = 12						; size = 4
_p_nNewRangeStartTime$ = 12				; size = 4
_p_szMarketDayInfo$ = 16				; size = 4
?OnInitTR@CTimeRealDataModuleBase@@QAEXAB_JABHABV?$CStringT@DV?$StrTraitMFC_DLL@DV?$ChTraitsCRT@D@ATL@@@@@ATL@@@Z PROC ; CTimeRealDataModuleBase::OnInitTR, COMDAT
; _this$ = ecx

; 52   : {

  00000	55		 push	 ebp
  00001	8b ec		 mov	 ebp, esp
  00003	6a ff		 push	 -1
  00005	68 00 00 00 00	 push	 __ehhandler$?OnInitTR@CTimeRealDataModuleBase@@QAEXAB_JABHABV?$CStringT@DV?$StrTraitMFC_DLL@DV?$ChTraitsCRT@D@ATL@@@@@ATL@@@Z
  0000a	64 a1 00 00 00
	00		 mov	 eax, DWORD PTR fs:0
  00010	50		 push	 eax
  00011	51		 push	 ecx
  00012	53		 push	 ebx
  00013	56		 push	 esi
  00014	57		 push	 edi
  00015	a1 00 00 00 00	 mov	 eax, DWORD PTR ___security_cookie
  0001a	33 c5		 xor	 eax, ebp
  0001c	50		 push	 eax
  0001d	8d 45 f4	 lea	 eax, DWORD PTR __$EHRec$[ebp]
  00020	64 a3 00 00 00
	00		 mov	 DWORD PTR fs:0, eax
  00026	8b f1		 mov	 esi, ecx

; 53   : 	m_nRealTimeDiff = p_nRealTimeDiff;

  00028	8b 45 08	 mov	 eax, DWORD PTR _p_nRealTimeDiff$[ebp]
  0002b	8b 10		 mov	 edx, DWORD PTR [eax]
  0002d	8b 40 04	 mov	 eax, DWORD PTR [eax+4]
  00030	89 46 4c	 mov	 DWORD PTR [esi+76], eax

; 54   : 	m_nNewRangeStartTime = p_nNewRangeStartTime;

  00033	8b 45 0c	 mov	 eax, DWORD PTR _p_nNewRangeStartTime$[ebp]
  00036	89 56 48	 mov	 DWORD PTR [esi+72], edx
  00039	8b 00		 mov	 eax, DWORD PTR [eax]
  0003b	89 46 50	 mov	 DWORD PTR [esi+80], eax

; 55   : 
; 56   : 	// (2009/11/16 - Seung-Won, Bae) Check for Market Days
; 57   : 	m_mapAddedMarketDays.RemoveAll();

  0003e	8d 46 60	 lea	 eax, DWORD PTR [esi+96]
  00041	8b c8		 mov	 ecx, eax
  00043	89 45 f0	 mov	 DWORD PTR tv239[ebp], eax
  00046	e8 00 00 00 00	 call	 ?RemoveAll@CMapPtrToPtr@@QAEXXZ ; CMapPtrToPtr::RemoveAll

; 58   : 	m_mapRemovedMarketDays.RemoveAll();

  0004b	8d 46 7c	 lea	 eax, DWORD PTR [esi+124]
  0004e	8b c8		 mov	 ecx, eax
  00050	89 45 0c	 mov	 DWORD PTR tv238[ebp], eax
  00053	e8 00 00 00 00	 call	 ?RemoveAll@CMapPtrToPtr@@QAEXXZ ; CMapPtrToPtr::RemoveAll
; File C:\Program Files (x86)\Microsoft Visual Studio\2019\Community\VC\Tools\MSVC\14.29.30133\atlmfc\include\atlsimpstr.h

; 519  : 		return( GetData()->nDataLength );

  00058	8b 75 10	 mov	 esi, DWORD PTR _p_szMarketDayInfo$[ebp]
  0005b	8b 06		 mov	 eax, DWORD PTR [esi]

; 533  : 		return( GetLength() == 0 );

  0005d	83 78 f4 00	 cmp	 DWORD PTR [eax-12], 0
; File D:\git\src\IBK\IBK_DRFN\ProjSrc\SrcChartEx\ChartOCX\PacketData\TimeRealDataModule.cpp

; 59   : 	if( !p_szMarketDayInfo.IsEmpty())

  00061	0f 84 89 00 00
	00		 je	 $LN5@OnInitTR

; 60   : 	{
; 61   : 		CString strBuffer;

  00067	8d 4d 08	 lea	 ecx, DWORD PTR _strBuffer$2[ebp]
  0006a	ff 15 00 00 00
	00		 call	 DWORD PTR __imp_??0?$CStringT@DV?$StrTraitMFC_DLL@DV?$ChTraitsCRT@D@ATL@@@@@ATL@@QAE@XZ
; File C:\Program Files (x86)\Microsoft Visual Studio\2019\Community\VC\Tools\MSVC\14.29.30133\atlmfc\include\atlsimpstr.h

; 519  : 		return( GetData()->nDataLength );

  00070	8b 06		 mov	 eax, DWORD PTR [esi]
; File D:\git\src\IBK\IBK_DRFN\ProjSrc\SrcChartEx\ChartOCX\PacketData\TimeRealDataModule.cpp

; 62   : 		char *szBuffer = strBuffer.GetBufferSetLength( p_szMarketDayInfo.GetLength());

  00072	8d 4d 08	 lea	 ecx, DWORD PTR _strBuffer$2[ebp]
  00075	c7 45 fc 00 00
	00 00		 mov	 DWORD PTR __$EHRec$[ebp+8], 0
  0007c	ff 70 f4	 push	 DWORD PTR [eax-12]
  0007f	ff 15 00 00 00
	00		 call	 DWORD PTR __imp_?GetBufferSetLength@?$CSimpleStringT@D$00@ATL@@QAEPADH@Z
; File C:\Program Files (x86)\Microsoft Visual Studio\2019\Community\VC\Tools\MSVC\14.29.30133\atlmfc\include\atlsimpstr.h

; 377  : 		return( m_pszData );

  00085	8b 16		 mov	 edx, DWORD PTR [esi]
; File D:\git\src\IBK\IBK_DRFN\ProjSrc\SrcChartEx\ChartOCX\PacketData\TimeRealDataModule.cpp

; 62   : 		char *szBuffer = strBuffer.GetBufferSetLength( p_szMarketDayInfo.GetLength());

  00087	8b f8		 mov	 edi, eax

; 63   : 		strcpy( szBuffer, p_szMarketDayInfo);

  00089	8b f7		 mov	 esi, edi
  0008b	0f 1f 44 00 00	 npad	 5
$LL11@OnInitTR:
  00090	8a 0a		 mov	 cl, BYTE PTR [edx]
  00092	8d 52 01	 lea	 edx, DWORD PTR [edx+1]
  00095	88 0e		 mov	 BYTE PTR [esi], cl
  00097	8d 76 01	 lea	 esi, DWORD PTR [esi+1]
  0009a	84 c9		 test	 cl, cl
  0009c	75 f2		 jne	 SHORT $LL11@OnInitTR

; 64   : 		char *szNext = szBuffer;

  0009e	8b 1d 00 00 00
	00		 mov	 ebx, DWORD PTR __imp__atol
  000a4	8b f7		 mov	 esi, edi
$LL4@OnInitTR:
; File C:\Program Files (x86)\Windows Kits\10\Include\10.0.22000.0\ucrt\string.h

; 502  :         return const_cast<char*>(strchr(static_cast<char const*>(_String), _Ch));

  000a6	6a 2c		 push	 44			; 0000002cH
  000a8	56		 push	 esi
  000a9	e8 00 00 00 00	 call	 _strchr
; File D:\git\src\IBK\IBK_DRFN\ProjSrc\SrcChartEx\ChartOCX\PacketData\TimeRealDataModule.cpp

; 68   : 			szNext = strchr( szNext, ',');

  000ae	8b f0		 mov	 esi, eax
; File C:\Program Files (x86)\Windows Kits\10\Include\10.0.22000.0\ucrt\string.h

; 502  :         return const_cast<char*>(strchr(static_cast<char const*>(_String), _Ch));

  000b0	83 c4 08	 add	 esp, 8
; File D:\git\src\IBK\IBK_DRFN\ProjSrc\SrcChartEx\ChartOCX\PacketData\TimeRealDataModule.cpp

; 69   : 			if( szNext) *szNext = '\0';

  000b3	85 f6		 test	 esi, esi
  000b5	74 03		 je	 SHORT $LN6@OnInitTR
  000b7	c6 06 00	 mov	 BYTE PTR [esi], 0
$LN6@OnInitTR:

; 70   : 			long lDay = atol( szBuffer);

  000ba	57		 push	 edi
  000bb	ff d3		 call	 ebx
  000bd	83 c4 04	 add	 esp, 4

; 71   : 			if( lDay < 0) m_mapRemovedMarketDays.SetAt( ( void *)( -lDay), NULL);

  000c0	85 c0		 test	 eax, eax
  000c2	79 07		 jns	 SHORT $LN39@OnInitTR
; File C:\Program Files (x86)\Microsoft Visual Studio\2019\Community\VC\Tools\MSVC\14.29.30133\atlmfc\include\afxcoll.inl

; 597  : 	{ (*this)[key] = newValue; }

  000c4	8b 4d 0c	 mov	 ecx, DWORD PTR tv238[ebp]
; File D:\git\src\IBK\IBK_DRFN\ProjSrc\SrcChartEx\ChartOCX\PacketData\TimeRealDataModule.cpp

; 71   : 			if( lDay < 0) m_mapRemovedMarketDays.SetAt( ( void *)( -lDay), NULL);

  000c7	f7 d8		 neg	 eax
  000c9	eb 05		 jmp	 SHORT $LN40@OnInitTR
$LN39@OnInitTR:

; 72   : 			if( 0 < lDay) m_mapAddedMarketDays.SetAt( ( void *)lDay, NULL);

  000cb	7e 0f		 jle	 SHORT $LN8@OnInitTR
; File C:\Program Files (x86)\Microsoft Visual Studio\2019\Community\VC\Tools\MSVC\14.29.30133\atlmfc\include\afxcoll.inl

; 597  : 	{ (*this)[key] = newValue; }

  000cd	8b 4d f0	 mov	 ecx, DWORD PTR tv239[ebp]
$LN40@OnInitTR:
; File D:\git\src\IBK\IBK_DRFN\ProjSrc\SrcChartEx\ChartOCX\PacketData\TimeRealDataModule.cpp

; 73   : 			if( szNext)

  000d0	50		 push	 eax
  000d1	e8 00 00 00 00	 call	 ??ACMapPtrToPtr@@QAEAAPAXPAX@Z ; CMapPtrToPtr::operator[]
  000d6	c7 00 00 00 00
	00		 mov	 DWORD PTR [eax], 0
$LN8@OnInitTR:
  000dc	85 f6		 test	 esi, esi
  000de	74 07		 je	 SHORT $LN37@OnInitTR

; 74   : 			{
; 75   : 				szNext++;

  000e0	83 c6 01	 add	 esi, 1

; 76   : 				szBuffer = szNext;

  000e3	8b fe		 mov	 edi, esi

; 77   : 			}
; 78   : 		} while( szNext);

  000e5	75 bf		 jne	 SHORT $LL4@OnInitTR
$LN37@OnInitTR:

; 79   : 	}

  000e7	8d 4d 08	 lea	 ecx, DWORD PTR _strBuffer$2[ebp]
  000ea	ff 15 00 00 00
	00		 call	 DWORD PTR __imp_??1?$CStringT@DV?$StrTraitMFC_DLL@DV?$ChTraitsCRT@D@ATL@@@@@ATL@@QAE@XZ
$LN5@OnInitTR:

; 80   : }

  000f0	8b 4d f4	 mov	 ecx, DWORD PTR __$EHRec$[ebp]
  000f3	64 89 0d 00 00
	00 00		 mov	 DWORD PTR fs:0, ecx
  000fa	59		 pop	 ecx
  000fb	5f		 pop	 edi
  000fc	5e		 pop	 esi
  000fd	5b		 pop	 ebx
  000fe	8b e5		 mov	 esp, ebp
  00100	5d		 pop	 ebp
  00101	c2 0c 00	 ret	 12			; 0000000cH
_TEXT	ENDS
;	COMDAT text$x
text$x	SEGMENT
__unwindfunclet$?OnInitTR@CTimeRealDataModuleBase@@QAEXAB_JABHABV?$CStringT@DV?$StrTraitMFC_DLL@DV?$ChTraitsCRT@D@ATL@@@@@ATL@@@Z$0:
  00000	8d 4d 08	 lea	 ecx, DWORD PTR _strBuffer$2[ebp]
  00003	ff 25 00 00 00
	00		 jmp	 DWORD PTR __imp_??1?$CStringT@DV?$StrTraitMFC_DLL@DV?$ChTraitsCRT@D@ATL@@@@@ATL@@QAE@XZ
  00009	cc		 int	 3
  0000a	cc		 int	 3
  0000b	cc		 int	 3
  0000c	cc		 int	 3
  0000d	cc		 int	 3
__ehhandler$?OnInitTR@CTimeRealDataModuleBase@@QAEXAB_JABHABV?$CStringT@DV?$StrTraitMFC_DLL@DV?$ChTraitsCRT@D@ATL@@@@@ATL@@@Z:
  0000e	90		 npad	 1
  0000f	90		 npad	 1
  00010	8b 54 24 08	 mov	 edx, DWORD PTR [esp+8]
  00014	8d 42 0c	 lea	 eax, DWORD PTR [edx+12]
  00017	8b 4a ec	 mov	 ecx, DWORD PTR [edx-20]
  0001a	33 c8		 xor	 ecx, eax
  0001c	e8 00 00 00 00	 call	 @__security_check_cookie@4
  00021	b8 00 00 00 00	 mov	 eax, OFFSET __ehfuncinfo$?OnInitTR@CTimeRealDataModuleBase@@QAEXAB_JABHABV?$CStringT@DV?$StrTraitMFC_DLL@DV?$ChTraitsCRT@D@ATL@@@@@ATL@@@Z
  00026	e9 00 00 00 00	 jmp	 ___CxxFrameHandler3
text$x	ENDS
?OnInitTR@CTimeRealDataModuleBase@@QAEXAB_JABHABV?$CStringT@DV?$StrTraitMFC_DLL@DV?$ChTraitsCRT@D@ATL@@@@@ATL@@@Z ENDP ; CTimeRealDataModuleBase::OnInitTR
; Function compile flags: /Ogtp
; File D:\git\src\IBK\IBK_DRFN\ProjSrc\SrcChartEx\ChartOCX\PacketData\TimeRealDataModule.h
;	COMDAT ?GetRealData_CloseTime@CTimeRealDataModuleBase@@UAE_NPAVCPacket@@AA_J@Z
_TEXT	SEGMENT
_pPacket$ = 8						; size = 4
_p_nRealDataTime$ = 12					; size = 4
?GetRealData_CloseTime@CTimeRealDataModuleBase@@UAE_NPAVCPacket@@AA_J@Z PROC ; CTimeRealDataModuleBase::GetRealData_CloseTime, COMDAT
; _this$ = ecx

; 94   : 	virtual bool	GetRealData_CloseTime( CPacket* pPacket, __int64 &p_nRealDataTime)			{	return false;	}

  00000	32 c0		 xor	 al, al
  00002	c2 08 00	 ret	 8
?GetRealData_CloseTime@CTimeRealDataModuleBase@@UAE_NPAVCPacket@@AA_J@Z ENDP ; CTimeRealDataModuleBase::GetRealData_CloseTime
_TEXT	ENDS
; Function compile flags: /Ogtp
; File D:\git\src\IBK\IBK_DRFN\ProjSrc\SrcChartEx\ChartOCX\PacketData\TimeRealDataModule.h
;	COMDAT ?GetTimeRangeStartWithPacketType@CTimeRealDataModuleBase@@UBE_JXZ
_TEXT	SEGMENT
?GetTimeRangeStartWithPacketType@CTimeRealDataModuleBase@@UBE_JXZ PROC ; CTimeRealDataModuleBase::GetTimeRangeStartWithPacketType, COMDAT
; _this$ = ecx

; 86   : 	virtual __int64		GetTimeRangeStartWithPacketType( void) const							{	return 0;		}

  00000	33 c0		 xor	 eax, eax
  00002	33 d2		 xor	 edx, edx
  00004	c3		 ret	 0
?GetTimeRangeStartWithPacketType@CTimeRealDataModuleBase@@UBE_JXZ ENDP ; CTimeRealDataModuleBase::GetTimeRangeStartWithPacketType
_TEXT	ENDS
; Function compile flags: /Ogtp
; File D:\git\src\IBK\IBK_DRFN\ProjSrc\SrcChartEx\ChartOCX\PacketData\TimeRealDataModule.h
;	COMDAT ?SetRealData@CTimeRealDataModuleBase@@UAEHPAVCPacket@@AB_J@Z
_TEXT	SEGMENT
_pPacket$ = 8						; size = 4
_nRealTime$ = 12					; size = 4
?SetRealData@CTimeRealDataModuleBase@@UAEHPAVCPacket@@AB_J@Z PROC ; CTimeRealDataModuleBase::SetRealData, COMDAT
; _this$ = ecx

; 81   : 	virtual int		SetRealData( CPacket* pPacket, const __int64 &nRealTime)					{	return -1;	}

  00000	83 c8 ff	 or	 eax, -1
  00003	c2 08 00	 ret	 8
?SetRealData@CTimeRealDataModuleBase@@UAEHPAVCPacket@@AB_J@Z ENDP ; CTimeRealDataModuleBase::SetRealData
_TEXT	ENDS
; Function compile flags: /Ogtp
; File D:\git\src\IBK\IBK_DRFN\ProjSrc\SrcChartEx\ChartOCX\PacketData\TimeRealDataModule.h
;	COMDAT ?SetTimeRange_TRPart@CTimeRealDataModuleBase@@UAEHAB_J_J@Z
_TEXT	SEGMENT
_p_nServerTime$ = 8					; size = 4
_nTailTime$ = 12					; size = 8
?SetTimeRange_TRPart@CTimeRealDataModuleBase@@UAEHAB_J_J@Z PROC ; CTimeRealDataModuleBase::SetTimeRange_TRPart, COMDAT
; _this$ = ecx

; 70   : 		// (2009/11/13 - Seung-Won, Bae)   RollBack .
; 71   : 		//	    ,      Data  .
; 72   : 		//   (m_bCloseEmptyCandleWhenEnd:TRUE)   ,
; 73   : 		//		 Data  -1  .
; 74   : 		m_nClockedDataCount = 0;

  00000	c7 41 40 00 00
	00 00		 mov	 DWORD PTR [ecx+64], 0

; 75   : 		return TRUE;

  00007	b8 01 00 00 00	 mov	 eax, 1

; 76   : 	}

  0000c	c2 0c 00	 ret	 12			; 0000000cH
?SetTimeRange_TRPart@CTimeRealDataModuleBase@@UAEHAB_J_J@Z ENDP ; CTimeRealDataModuleBase::SetTimeRange_TRPart
_TEXT	ENDS
; Function compile flags: /Ogtp
; File D:\git\src\IBK\IBK_DRFN\ProjSrc\SrcChartEx\ChartOCX\PacketData\TimeRealDataModule.cpp
;	COMDAT ??1CTimeRealDataModuleBase@@UAE@XZ
_TEXT	SEGMENT
??1CTimeRealDataModuleBase@@UAE@XZ PROC			; CTimeRealDataModuleBase::~CTimeRealDataModuleBase, COMDAT
; _this$ = ecx

; 48   : {

  00000	56		 push	 esi
  00001	8b f1		 mov	 esi, ecx

; 49   : }

  00003	8d 4e 7c	 lea	 ecx, DWORD PTR [esi+124]
  00006	c7 06 00 00 00
	00		 mov	 DWORD PTR [esi], OFFSET ??_7CTimeRealDataModuleBase@@6B@
  0000c	e8 00 00 00 00	 call	 ??1CMapPtrToPtr@@UAE@XZ	; CMapPtrToPtr::~CMapPtrToPtr
  00011	8d 4e 60	 lea	 ecx, DWORD PTR [esi+96]
  00014	e8 00 00 00 00	 call	 ??1CMapPtrToPtr@@UAE@XZ	; CMapPtrToPtr::~CMapPtrToPtr
  00019	8d 4e 08	 lea	 ecx, DWORD PTR [esi+8]
  0001c	5e		 pop	 esi
  0001d	e9 00 00 00 00	 jmp	 ??1CTimeTypeConvert@@UAE@XZ ; CTimeTypeConvert::~CTimeTypeConvert
??1CTimeRealDataModuleBase@@UAE@XZ ENDP			; CTimeRealDataModuleBase::~CTimeRealDataModuleBase
_TEXT	ENDS
; Function compile flags: /Ogtp
; File D:\git\src\IBK\IBK_DRFN\ProjSrc\SrcChartEx\ChartOCX\PacketData\TimeRealDataModule.cpp
;	COMDAT ??0CTimeRealDataModuleBase@@QAE@AAVCMarketTimeData@@ABV?$CStringT@DV?$StrTraitMFC_DLL@DV?$ChTraitsCRT@D@ATL@@@@@ATL@@W4HORZSCALEDRAWERTYPE@CScaleBaseData@@@Z
_TEXT	SEGMENT
_this$ = -16						; size = 4
__$EHRec$ = -12						; size = 12
_p_marketTimeData$ = 8					; size = 4
_strPacketType$ = 12					; size = 4
_eDateUnitType$ = 16					; size = 4
??0CTimeRealDataModuleBase@@QAE@AAVCMarketTimeData@@ABV?$CStringT@DV?$StrTraitMFC_DLL@DV?$ChTraitsCRT@D@ATL@@@@@ATL@@W4HORZSCALEDRAWERTYPE@CScaleBaseData@@@Z PROC ; CTimeRealDataModuleBase::CTimeRealDataModuleBase, COMDAT
; _this$ = ecx

; 27   : {

  00000	55		 push	 ebp
  00001	8b ec		 mov	 ebp, esp
  00003	6a ff		 push	 -1
  00005	68 00 00 00 00	 push	 __ehhandler$??0CTimeRealDataModuleBase@@QAE@AAVCMarketTimeData@@ABV?$CStringT@DV?$StrTraitMFC_DLL@DV?$ChTraitsCRT@D@ATL@@@@@ATL@@W4HORZSCALEDRAWERTYPE@CScaleBaseData@@@Z
  0000a	64 a1 00 00 00
	00		 mov	 eax, DWORD PTR fs:0
  00010	50		 push	 eax
  00011	51		 push	 ecx
  00012	56		 push	 esi
  00013	57		 push	 edi
  00014	a1 00 00 00 00	 mov	 eax, DWORD PTR ___security_cookie
  00019	33 c5		 xor	 eax, ebp
  0001b	50		 push	 eax
  0001c	8d 45 f4	 lea	 eax, DWORD PTR __$EHRec$[ebp]
  0001f	64 a3 00 00 00
	00		 mov	 DWORD PTR fs:0, eax
  00025	8b f9		 mov	 edi, ecx
  00027	89 7d f0	 mov	 DWORD PTR _this$[ebp], edi
  0002a	8d 4f 08	 lea	 ecx, DWORD PTR [edi+8]
  0002d	c7 07 00 00 00
	00		 mov	 DWORD PTR [edi], OFFSET ??_7CTimeRealDataModuleBase@@6B@
  00033	e8 00 00 00 00	 call	 ??0CTimeTypeConvert@@QAE@XZ ; CTimeTypeConvert::CTimeTypeConvert

; 26   : 	: m_marketTimeData( p_marketTimeData)

  00038	8b 45 08	 mov	 eax, DWORD PTR _p_marketTimeData$[ebp]

; 27   : {

  0003b	8d 4f 60	 lea	 ecx, DWORD PTR [edi+96]
  0003e	6a 0a		 push	 10			; 0000000aH
  00040	c7 45 fc 00 00
	00 00		 mov	 DWORD PTR __$EHRec$[ebp+8], 0
  00047	89 47 54	 mov	 DWORD PTR [edi+84], eax
  0004a	e8 00 00 00 00	 call	 ??0CMapPtrToPtr@@QAE@H@Z ; CMapPtrToPtr::CMapPtrToPtr
  0004f	6a 0a		 push	 10			; 0000000aH
  00051	8d 4f 7c	 lea	 ecx, DWORD PTR [edi+124]
  00054	c6 45 fc 01	 mov	 BYTE PTR __$EHRec$[ebp+8], 1
  00058	e8 00 00 00 00	 call	 ??0CMapPtrToPtr@@QAE@H@Z ; CMapPtrToPtr::CMapPtrToPtr

; 28   : 	// 2011.01.21 by SYS >>  YYYY()  : / 14Byte  (YYYYMMDDhhmmss)
; 29   : 	m_eDateUnitType = eDateUnitType;

  0005d	8b 45 10	 mov	 eax, DWORD PTR _eDateUnitType$[ebp]

; 30   : 
; 31   : 	// (2009/10/21 - Seung-Won, Bae) Comment.  Packet Data Type . (ex : "YYYYMMDDHHMMSS")
; 32   : 	m_ttcTrPacket.SetPacketType( strPacketType);

  00060	8d 4f 08	 lea	 ecx, DWORD PTR [edi+8]
  00063	89 87 98 00 00
	00		 mov	 DWORD PTR [edi+152], eax
  00069	8b 45 0c	 mov	 eax, DWORD PTR _strPacketType$[ebp]
  0006c	c6 45 fc 02	 mov	 BYTE PTR __$EHRec$[ebp+8], 2
  00070	ff 30		 push	 DWORD PTR [eax]
  00072	e8 00 00 00 00	 call	 ?SetPacketType@CTimeTypeConvert@@QAEXPBD@Z ; CTimeTypeConvert::SetPacketType

; 33   : 	
; 34   : 	//    . (     Return.)
; 35   : 	m_nClockedDataCount = 0;

  00077	c7 47 40 00 00
	00 00		 mov	 DWORD PTR [edi+64], 0

; 36   : 
; 37   : 	// 20080925 JS.Kim	   Scale 
; 38   : 	m_nRealTimeDiff = 0;
; 39   : 	m_nNewRangeStartTime = 0;
; 40   : 
; 41   : 	// (2009/10/27 - Seung-Won, Bae) for Real Data Type.
; 42   : 	m_nChartModeSetting = CChartInfo::HTS;
; 43   : 
; 44   : 	// (2009/11/4 - Seung-Won, Bae) Empty Candle Closing Time Type.
; 45   : 	m_bCloseEmptyCandleWhenEnd = TRUE;
; 46   : }

  0007e	8b c7		 mov	 eax, edi
  00080	c7 47 48 00 00
	00 00		 mov	 DWORD PTR [edi+72], 0
  00087	c7 47 4c 00 00
	00 00		 mov	 DWORD PTR [edi+76], 0
  0008e	c7 47 50 00 00
	00 00		 mov	 DWORD PTR [edi+80], 0
  00095	c7 47 58 01 00
	00 00		 mov	 DWORD PTR [edi+88], 1
  0009c	c7 47 5c 01 00
	00 00		 mov	 DWORD PTR [edi+92], 1
  000a3	8b 4d f4	 mov	 ecx, DWORD PTR __$EHRec$[ebp]
  000a6	64 89 0d 00 00
	00 00		 mov	 DWORD PTR fs:0, ecx
  000ad	59		 pop	 ecx
  000ae	5f		 pop	 edi
  000af	5e		 pop	 esi
  000b0	8b e5		 mov	 esp, ebp
  000b2	5d		 pop	 ebp
  000b3	c2 0c 00	 ret	 12			; 0000000cH
_TEXT	ENDS
;	COMDAT text$x
text$x	SEGMENT
__unwindfunclet$??0CTimeRealDataModuleBase@@QAE@AAVCMarketTimeData@@ABV?$CStringT@DV?$StrTraitMFC_DLL@DV?$ChTraitsCRT@D@ATL@@@@@ATL@@W4HORZSCALEDRAWERTYPE@CScaleBaseData@@@Z$0:
  00000	8b 4d f0	 mov	 ecx, DWORD PTR _this$[ebp]
  00003	83 c1 08	 add	 ecx, 8
  00006	e9 00 00 00 00	 jmp	 ??1CTimeTypeConvert@@UAE@XZ ; CTimeTypeConvert::~CTimeTypeConvert
__unwindfunclet$??0CTimeRealDataModuleBase@@QAE@AAVCMarketTimeData@@ABV?$CStringT@DV?$StrTraitMFC_DLL@DV?$ChTraitsCRT@D@ATL@@@@@ATL@@W4HORZSCALEDRAWERTYPE@CScaleBaseData@@@Z$1:
  0000b	8b 4d f0	 mov	 ecx, DWORD PTR _this$[ebp]
  0000e	83 c1 60	 add	 ecx, 96			; 00000060H
  00011	e9 00 00 00 00	 jmp	 ??1CMapPtrToPtr@@UAE@XZ	; CMapPtrToPtr::~CMapPtrToPtr
__unwindfunclet$??0CTimeRealDataModuleBase@@QAE@AAVCMarketTimeData@@ABV?$CStringT@DV?$StrTraitMFC_DLL@DV?$ChTraitsCRT@D@ATL@@@@@ATL@@W4HORZSCALEDRAWERTYPE@CScaleBaseData@@@Z$2:
  00016	8b 4d f0	 mov	 ecx, DWORD PTR _this$[ebp]
  00019	83 c1 7c	 add	 ecx, 124		; 0000007cH
  0001c	e9 00 00 00 00	 jmp	 ??1CMapPtrToPtr@@UAE@XZ	; CMapPtrToPtr::~CMapPtrToPtr
  00021	cc		 int	 3
  00022	cc		 int	 3
  00023	cc		 int	 3
  00024	cc		 int	 3
  00025	cc		 int	 3
__ehhandler$??0CTimeRealDataModuleBase@@QAE@AAVCMarketTimeData@@ABV?$CStringT@DV?$StrTraitMFC_DLL@DV?$ChTraitsCRT@D@ATL@@@@@ATL@@W4HORZSCALEDRAWERTYPE@CScaleBaseData@@@Z:
  00026	90		 npad	 1
  00027	90		 npad	 1
  00028	8b 54 24 08	 mov	 edx, DWORD PTR [esp+8]
  0002c	8d 42 0c	 lea	 eax, DWORD PTR [edx+12]
  0002f	8b 4a f0	 mov	 ecx, DWORD PTR [edx-16]
  00032	33 c8		 xor	 ecx, eax
  00034	e8 00 00 00 00	 call	 @__security_check_cookie@4
  00039	b8 00 00 00 00	 mov	 eax, OFFSET __ehfuncinfo$??0CTimeRealDataModuleBase@@QAE@AAVCMarketTimeData@@ABV?$CStringT@DV?$StrTraitMFC_DLL@DV?$ChTraitsCRT@D@ATL@@@@@ATL@@W4HORZSCALEDRAWERTYPE@CScaleBaseData@@@Z
  0003e	e9 00 00 00 00	 jmp	 ___CxxFrameHandler3
text$x	ENDS
??0CTimeRealDataModuleBase@@QAE@AAVCMarketTimeData@@ABV?$CStringT@DV?$StrTraitMFC_DLL@DV?$ChTraitsCRT@D@ATL@@@@@ATL@@W4HORZSCALEDRAWERTYPE@CScaleBaseData@@@Z ENDP ; CTimeRealDataModuleBase::CTimeRealDataModuleBase
; Function compile flags: /Ogtp
; File D:\git\src\IBK\IBK_DRFN\ProjSrc\SrcChartEx\ChartOCX\PacketData\TimeRealDataModule.cpp
;	COMDAT ?__empty_global_delete@@YAXPAXI@Z
_TEXT	SEGMENT
___formal$ = 8						; size = 4
___formal$ = 12						; size = 4
?__empty_global_delete@@YAXPAXI@Z PROC			; __empty_global_delete, COMDAT

  00000	c2 00 00	 ret	 0
?__empty_global_delete@@YAXPAXI@Z ENDP			; __empty_global_delete
_TEXT	ENDS
; Function compile flags: /Ogtp
; File D:\git\src\IBK\IBK_DRFN\ProjSrc\SrcChartEx\ChartOCX\PacketData\TimeRealDataModule.cpp
;	COMDAT ?__empty_global_delete@@YAXPAX@Z
_TEXT	SEGMENT
___formal$ = 8						; size = 4
?__empty_global_delete@@YAXPAX@Z PROC			; __empty_global_delete, COMDAT

  00000	c2 00 00	 ret	 0
?__empty_global_delete@@YAXPAX@Z ENDP			; __empty_global_delete
_TEXT	ENDS
END
