; Listing generated by Microsoft (R) Optimizing Compiler Version 19.29.30148.0 

	TITLE	D:\git\src\IBK\IBK_DRFN\#DRfn-CS\_Obj\KTBChart\ChartCfg.obj
	.686P
	.XMM
	include listing.inc
	.model	flat

INCLUDELIB MSVCRT
INCLUDELIB OLDNAMES

PUBLIC	?__empty_global_delete@@YAXPAX@Z		; __empty_global_delete
PUBLIC	?__empty_global_delete@@YAXPAXI@Z		; __empty_global_delete
PUBLIC	??1CObject@@UAE@XZ				; CObject::~CObject
PUBLIC	?Serialize@CObject@@UAEXAAVCArchive@@@Z		; CObject::Serialize
PUBLIC	?AssertValid@CObject@@UBEXXZ			; CObject::AssertValid
PUBLIC	?Dump@CObject@@UBEXAAVCDumpContext@@@Z		; CObject::Dump
PUBLIC	??0CChartCfg@@QAE@PAVCPropertyMap@@HHHHHHV?$CStringT@DV?$StrTraitMFC_DLL@DV?$ChTraitsCRT@D@ATL@@@@@ATL@@1_NHHH222HH222222222KKKKKKKKKKHPBDHHJJHH@Z ; CChartCfg::CChartCfg
PUBLIC	??1CChartCfg@@UAE@XZ				; CChartCfg::~CChartCfg
PUBLIC	??_GCChartCfg@@UAEPAXI@Z			; CChartCfg::`scalar deleting destructor'
PUBLIC	??_R0?AVCObject@@@8				; CObject `RTTI Type Descriptor'
PUBLIC	??_R3CObject@@8					; CObject::`RTTI Class Hierarchy Descriptor'
PUBLIC	??_R2CObject@@8					; CObject::`RTTI Base Class Array'
PUBLIC	??_R1A@?0A@EA@CObject@@8			; CObject::`RTTI Base Class Descriptor at (0,-1,0,64)'
PUBLIC	??_7CChartCfg@@6B@				; CChartCfg::`vftable'
PUBLIC	??_R4CChartCfg@@6B@				; CChartCfg::`RTTI Complete Object Locator'
PUBLIC	??_R0?AVCChartCfg@@@8				; CChartCfg `RTTI Type Descriptor'
PUBLIC	??_R3CChartCfg@@8				; CChartCfg::`RTTI Class Hierarchy Descriptor'
PUBLIC	??_R2CChartCfg@@8				; CChartCfg::`RTTI Base Class Array'
PUBLIC	??_R1A@?0A@EA@CChartCfg@@8			; CChartCfg::`RTTI Base Class Descriptor at (0,-1,0,64)'
EXTRN	??3@YAXPAX@Z:PROC				; operator delete
EXTRN	?__global_delete@@YAXPAXI@Z:PROC		; __global_delete
EXTRN	?GetRuntimeClass@CObject@@UBEPAUCRuntimeClass@@XZ:PROC ; CObject::GetRuntimeClass
EXTRN	__imp_??0?$CStringT@DV?$StrTraitMFC_DLL@DV?$ChTraitsCRT@D@ATL@@@@@ATL@@QAE@XZ:PROC
EXTRN	__imp_??1?$CStringT@DV?$StrTraitMFC_DLL@DV?$ChTraitsCRT@D@ATL@@@@@ATL@@QAE@XZ:PROC
EXTRN	__imp_??4?$CStringT@DV?$StrTraitMFC_DLL@DV?$ChTraitsCRT@D@ATL@@@@@ATL@@QAEAAV01@ABV01@@Z:PROC
EXTRN	__imp_??4?$CStringT@DV?$StrTraitMFC_DLL@DV?$ChTraitsCRT@D@ATL@@@@@ATL@@QAEAAV01@PBD@Z:PROC
EXTRN	??_ECChartCfg@@UAEPAXI@Z:PROC			; CChartCfg::`vector deleting destructor'
EXTRN	@__security_check_cookie@4:PROC
EXTRN	___CxxFrameHandler3:PROC
EXTRN	??_7type_info@@6B@:QWORD			; type_info::`vftable'
EXTRN	___security_cookie:DWORD
;	COMDAT ??_R1A@?0A@EA@CChartCfg@@8
rdata$r	SEGMENT
??_R1A@?0A@EA@CChartCfg@@8 DD FLAT:??_R0?AVCChartCfg@@@8 ; CChartCfg::`RTTI Base Class Descriptor at (0,-1,0,64)'
	DD	01H
	DD	00H
	DD	0ffffffffH
	DD	00H
	DD	040H
	DD	FLAT:??_R3CChartCfg@@8
rdata$r	ENDS
;	COMDAT ??_R2CChartCfg@@8
rdata$r	SEGMENT
??_R2CChartCfg@@8 DD FLAT:??_R1A@?0A@EA@CChartCfg@@8	; CChartCfg::`RTTI Base Class Array'
	DD	FLAT:??_R1A@?0A@EA@CObject@@8
rdata$r	ENDS
;	COMDAT ??_R3CChartCfg@@8
rdata$r	SEGMENT
??_R3CChartCfg@@8 DD 00H				; CChartCfg::`RTTI Class Hierarchy Descriptor'
	DD	00H
	DD	02H
	DD	FLAT:??_R2CChartCfg@@8
rdata$r	ENDS
;	COMDAT ??_R0?AVCChartCfg@@@8
data$rs	SEGMENT
??_R0?AVCChartCfg@@@8 DD FLAT:??_7type_info@@6B@	; CChartCfg `RTTI Type Descriptor'
	DD	00H
	DB	'.?AVCChartCfg@@', 00H
data$rs	ENDS
;	COMDAT ??_R4CChartCfg@@6B@
rdata$r	SEGMENT
??_R4CChartCfg@@6B@ DD 00H				; CChartCfg::`RTTI Complete Object Locator'
	DD	00H
	DD	00H
	DD	FLAT:??_R0?AVCChartCfg@@@8
	DD	FLAT:??_R3CChartCfg@@8
rdata$r	ENDS
;	COMDAT ??_7CChartCfg@@6B@
CONST	SEGMENT
??_7CChartCfg@@6B@ DD FLAT:??_R4CChartCfg@@6B@		; CChartCfg::`vftable'
	DD	FLAT:?GetRuntimeClass@CObject@@UBEPAUCRuntimeClass@@XZ
	DD	FLAT:??_ECChartCfg@@UAEPAXI@Z
	DD	FLAT:?Serialize@CObject@@UAEXAAVCArchive@@@Z
	DD	FLAT:?AssertValid@CObject@@UBEXXZ
	DD	FLAT:?Dump@CObject@@UBEXAAVCDumpContext@@@Z
CONST	ENDS
;	COMDAT ??_R1A@?0A@EA@CObject@@8
rdata$r	SEGMENT
??_R1A@?0A@EA@CObject@@8 DD FLAT:??_R0?AVCObject@@@8	; CObject::`RTTI Base Class Descriptor at (0,-1,0,64)'
	DD	00H
	DD	00H
	DD	0ffffffffH
	DD	00H
	DD	040H
	DD	FLAT:??_R3CObject@@8
rdata$r	ENDS
;	COMDAT ??_R2CObject@@8
rdata$r	SEGMENT
??_R2CObject@@8 DD FLAT:??_R1A@?0A@EA@CObject@@8	; CObject::`RTTI Base Class Array'
rdata$r	ENDS
;	COMDAT ??_R3CObject@@8
rdata$r	SEGMENT
??_R3CObject@@8 DD 00H					; CObject::`RTTI Class Hierarchy Descriptor'
	DD	00H
	DD	01H
	DD	FLAT:??_R2CObject@@8
rdata$r	ENDS
;	COMDAT ??_R0?AVCObject@@@8
data$rs	SEGMENT
??_R0?AVCObject@@@8 DD FLAT:??_7type_info@@6B@		; CObject `RTTI Type Descriptor'
	DD	00H
	DB	'.?AVCObject@@', 00H
data$rs	ENDS
;	COMDAT xdata$x
xdata$x	SEGMENT
__ehfuncinfo$??0CChartCfg@@QAE@PAVCPropertyMap@@HHHHHHV?$CStringT@DV?$StrTraitMFC_DLL@DV?$ChTraitsCRT@D@ATL@@@@@ATL@@1_NHHH222HH222222222KKKKKKKKKKHPBDHHJJHH@Z DD 019930522H
	DD	05H
	DD	FLAT:__unwindtable$??0CChartCfg@@QAE@PAVCPropertyMap@@HHHHHHV?$CStringT@DV?$StrTraitMFC_DLL@DV?$ChTraitsCRT@D@ATL@@@@@ATL@@1_NHHH222HH222222222KKKKKKKKKKHPBDHHJJHH@Z
	DD	2 DUP(00H)
	DD	2 DUP(00H)
	DD	00H
	DD	01H
__unwindtable$??0CChartCfg@@QAE@PAVCPropertyMap@@HHHHHHV?$CStringT@DV?$StrTraitMFC_DLL@DV?$ChTraitsCRT@D@ATL@@@@@ATL@@1_NHHH222HH222222222KKKKKKKKKKHPBDHHJJHH@Z DD 0ffffffffH
	DD	FLAT:__unwindfunclet$??0CChartCfg@@QAE@PAVCPropertyMap@@HHHHHHV?$CStringT@DV?$StrTraitMFC_DLL@DV?$ChTraitsCRT@D@ATL@@@@@ATL@@1_NHHH222HH222222222KKKKKKKKKKHPBDHHJJHH@Z$0
	DD	00H
	DD	FLAT:__unwindfunclet$??0CChartCfg@@QAE@PAVCPropertyMap@@HHHHHHV?$CStringT@DV?$StrTraitMFC_DLL@DV?$ChTraitsCRT@D@ATL@@@@@ATL@@1_NHHH222HH222222222KKKKKKKKKKHPBDHHJJHH@Z$1
	DD	01H
	DD	FLAT:__unwindfunclet$??0CChartCfg@@QAE@PAVCPropertyMap@@HHHHHHV?$CStringT@DV?$StrTraitMFC_DLL@DV?$ChTraitsCRT@D@ATL@@@@@ATL@@1_NHHH222HH222222222KKKKKKKKKKHPBDHHJJHH@Z$2
	DD	02H
	DD	FLAT:__unwindfunclet$??0CChartCfg@@QAE@PAVCPropertyMap@@HHHHHHV?$CStringT@DV?$StrTraitMFC_DLL@DV?$ChTraitsCRT@D@ATL@@@@@ATL@@1_NHHH222HH222222222KKKKKKKKKKHPBDHHJJHH@Z$3
	DD	03H
	DD	FLAT:__unwindfunclet$??0CChartCfg@@QAE@PAVCPropertyMap@@HHHHHHV?$CStringT@DV?$StrTraitMFC_DLL@DV?$ChTraitsCRT@D@ATL@@@@@ATL@@1_NHHH222HH222222222KKKKKKKKKKHPBDHHJJHH@Z$4
xdata$x	ENDS
; Function compile flags: /Ogtp
; File D:\git\src\IBK\IBK_DRFN\ProjSrc\SrcChartEx\ChartOCX\KTBChart\ChartCfg.cpp
; File C:\Program Files (x86)\Microsoft Visual Studio\2019\Community\VC\Tools\MSVC\14.29.30133\atlmfc\include\afx.inl
;	COMDAT ??_GCChartCfg@@UAEPAXI@Z
_TEXT	SEGMENT
___flags$ = 8						; size = 4
??_GCChartCfg@@UAEPAXI@Z PROC				; CChartCfg::`scalar deleting destructor', COMDAT
; _this$ = ecx
  00000	55		 push	 ebp
  00001	8b ec		 mov	 ebp, esp
; File D:\git\src\IBK\IBK_DRFN\ProjSrc\SrcChartEx\ChartOCX\KTBChart\ChartCfg.cpp

; 21   : {

  00003	56		 push	 esi
  00004	8b f1		 mov	 esi, ecx

; 22   : 	// (2006/11/12 - Seung-Won, Bae) Manage AddIn ENV Value Map
; 23   : 	if( m_pAddInEnvMap)

  00006	8b 4e 78	 mov	 ecx, DWORD PTR [esi+120]
  00009	c7 06 00 00 00
	00		 mov	 DWORD PTR [esi], OFFSET ??_7CChartCfg@@6B@
  0000f	85 c9		 test	 ecx, ecx
  00011	74 0e		 je	 SHORT $LN8@scalar

; 24   : 	{
; 25   : 		delete m_pAddInEnvMap;

  00013	8b 01		 mov	 eax, DWORD PTR [ecx]
  00015	6a 01		 push	 1
  00017	ff 50 04	 call	 DWORD PTR [eax+4]

; 26   : 		m_pAddInEnvMap = NULL;

  0001a	c7 46 78 00 00
	00 00		 mov	 DWORD PTR [esi+120], 0
$LN8@scalar:

; 27   : 	}
; 28   : }

  00021	8d 4e 7c	 lea	 ecx, DWORD PTR [esi+124]
  00024	ff 15 00 00 00
	00		 call	 DWORD PTR __imp_??1?$CStringT@DV?$StrTraitMFC_DLL@DV?$ChTraitsCRT@D@ATL@@@@@ATL@@QAE@XZ
  0002a	8d 4e 20	 lea	 ecx, DWORD PTR [esi+32]
  0002d	ff 15 00 00 00
	00		 call	 DWORD PTR __imp_??1?$CStringT@DV?$StrTraitMFC_DLL@DV?$ChTraitsCRT@D@ATL@@@@@ATL@@QAE@XZ
  00033	8d 4e 1c	 lea	 ecx, DWORD PTR [esi+28]
  00036	ff 15 00 00 00
	00		 call	 DWORD PTR __imp_??1?$CStringT@DV?$StrTraitMFC_DLL@DV?$ChTraitsCRT@D@ATL@@@@@ATL@@QAE@XZ
  0003c	8b 45 08	 mov	 eax, DWORD PTR ___flags$[ebp]
  0003f	a8 01		 test	 al, 1
  00041	74 22		 je	 SHORT $LN15@scalar
  00043	a8 04		 test	 al, 4
  00045	75 10		 jne	 SHORT $LN3@scalar
; File C:\Program Files (x86)\Microsoft Visual Studio\2019\Community\VC\Tools\MSVC\14.29.30133\atlmfc\include\afx.inl

; 112  : 	{ ::operator delete(p); }

  00047	56		 push	 esi
  00048	e8 00 00 00 00	 call	 ??3@YAXPAX@Z		; operator delete
  0004d	83 c4 04	 add	 esp, 4
  00050	8b c6		 mov	 eax, esi
  00052	5e		 pop	 esi
  00053	5d		 pop	 ebp
  00054	c2 04 00	 ret	 4
$LN3@scalar:
  00057	68 98 00 00 00	 push	 152			; 00000098H
  0005c	56		 push	 esi
  0005d	e8 00 00 00 00	 call	 ?__global_delete@@YAXPAXI@Z ; __global_delete
  00062	83 c4 08	 add	 esp, 8
$LN15@scalar:
  00065	8b c6		 mov	 eax, esi
  00067	5e		 pop	 esi
  00068	5d		 pop	 ebp
  00069	c2 04 00	 ret	 4
??_GCChartCfg@@UAEPAXI@Z ENDP				; CChartCfg::`scalar deleting destructor'
_TEXT	ENDS
; Function compile flags: /Ogtp
; File D:\git\src\IBK\IBK_DRFN\ProjSrc\SrcChartEx\ChartOCX\KTBChart\ChartCfg.cpp
;	COMDAT ??1CChartCfg@@UAE@XZ
_TEXT	SEGMENT
??1CChartCfg@@UAE@XZ PROC				; CChartCfg::~CChartCfg, COMDAT
; _this$ = ecx

; 21   : {

  00000	56		 push	 esi
  00001	8b f1		 mov	 esi, ecx

; 22   : 	// (2006/11/12 - Seung-Won, Bae) Manage AddIn ENV Value Map
; 23   : 	if( m_pAddInEnvMap)

  00003	8b 4e 78	 mov	 ecx, DWORD PTR [esi+120]
  00006	c7 06 00 00 00
	00		 mov	 DWORD PTR [esi], OFFSET ??_7CChartCfg@@6B@
  0000c	85 c9		 test	 ecx, ecx
  0000e	74 0e		 je	 SHORT $LN2@CChartCfg

; 24   : 	{
; 25   : 		delete m_pAddInEnvMap;

  00010	8b 01		 mov	 eax, DWORD PTR [ecx]
  00012	6a 01		 push	 1
  00014	ff 50 04	 call	 DWORD PTR [eax+4]

; 26   : 		m_pAddInEnvMap = NULL;

  00017	c7 46 78 00 00
	00 00		 mov	 DWORD PTR [esi+120], 0
$LN2@CChartCfg:

; 27   : 	}
; 28   : }

  0001e	8d 4e 7c	 lea	 ecx, DWORD PTR [esi+124]
  00021	ff 15 00 00 00
	00		 call	 DWORD PTR __imp_??1?$CStringT@DV?$StrTraitMFC_DLL@DV?$ChTraitsCRT@D@ATL@@@@@ATL@@QAE@XZ
  00027	8d 4e 20	 lea	 ecx, DWORD PTR [esi+32]
  0002a	ff 15 00 00 00
	00		 call	 DWORD PTR __imp_??1?$CStringT@DV?$StrTraitMFC_DLL@DV?$ChTraitsCRT@D@ATL@@@@@ATL@@QAE@XZ
  00030	8d 4e 1c	 lea	 ecx, DWORD PTR [esi+28]
  00033	5e		 pop	 esi
  00034	ff 25 00 00 00
	00		 jmp	 DWORD PTR __imp_??1?$CStringT@DV?$StrTraitMFC_DLL@DV?$ChTraitsCRT@D@ATL@@@@@ATL@@QAE@XZ
??1CChartCfg@@UAE@XZ ENDP				; CChartCfg::~CChartCfg
_TEXT	ENDS
; Function compile flags: /Ogtp
; File D:\git\src\IBK\IBK_DRFN\ProjSrc\SrcChartEx\ChartOCX\KTBChart\ChartCfg.cpp
;	COMDAT ??0CChartCfg@@QAE@PAVCPropertyMap@@HHHHHHV?$CStringT@DV?$StrTraitMFC_DLL@DV?$ChTraitsCRT@D@ATL@@@@@ATL@@1_NHHH222HH222222222KKKKKKKKKKHPBDHHJJHH@Z
_TEXT	SEGMENT
_this$ = -16						; size = 4
__$EHRec$ = -12						; size = 12
_p_pAddInEnvMap$ = 8					; size = 4
_nRowCount$ = 12					; size = 4
_nColumnCount$ = 16					; size = 4
_nRowDoubleSizeBlock$ = 20				; size = 4
_nColumnDoubleSizeBlock$ = 24				; size = 4
_nOnePageDataCount$ = 28				; size = 4
_nBongCountMargin$ = 32					; size = 4
_strChartList$ = 36					; size = 4
_strBlockRegion$ = 40					; size = 4
_bWholeView$ = 44					; size = 1
_nNumericalInquiryOption$ = 48				; size = 4
_nYScalePosition$ = 52					; size = 4
_nUseInquiryWithCrossline$ = 56				; size = 4
_bToolTipwithZoomIn$ = 60				; size = 1
_bUseConditiontoTitle$ = 64				; size = 1
_bUseDatatoTitle$ = 68					; size = 1
_nVertGap$ = 72						; size = 4
_nHorzGap$ = 76						; size = 4
_bShowMinMaxbyPrice$ = 80				; size = 1
_bAllGraphTitleHiding$ = 84				; size = 1
_bShowTrendLineText$ = 88				; size = 1
_bShowVerticalText$ = 92				; size = 1
_bShowHorizonTextLeft$ = 96				; size = 1
_bShowHorizonTextRight$ = 100				; size = 1
_bShowThreeText$ = 104					; size = 1
_bShowFourText$ = 108					; size = 1
_bShowFiboText$ = 112					; size = 1
_clrBackground$ = 116					; size = 4
_clrBackBorder$ = 120					; size = 4
_clrBlock$ = 124					; size = 4
_clrBlockBorder$ = 128					; size = 4
_clrScaleLine$ = 132					; size = 4
_clrScaleLine2$ = 136					; size = 4
_clrScaleText$ = 140					; size = 4
_clrAnalysisTool$ = 144					; size = 4
_clrInquiryWindow$ = 148				; size = 4
_clrLattice$ = 152					; size = 4
_p_bShowPriceMinMaxText$ = 156				; size = 4
_p_szMapIndicatorInfo$ = 160				; size = 4
_bDrawBaseLine$ = 164					; size = 4
_p_nVertScaleType$ = 168				; size = 4
_p_nRightMarginWidth$ = 172				; size = 4
_p_nFutureTimeCount$ = 176				; size = 4
_p_nMouseWheelIndex$ = 180				; size = 4
_p_nMinMaxRatio$ = 184					; size = 4
??0CChartCfg@@QAE@PAVCPropertyMap@@HHHHHHV?$CStringT@DV?$StrTraitMFC_DLL@DV?$ChTraitsCRT@D@ATL@@@@@ATL@@1_NHHH222HH222222222KKKKKKKKKKHPBDHHJJHH@Z PROC ; CChartCfg::CChartCfg, COMDAT
; _this$ = ecx

; 61   : {

  00000	55		 push	 ebp
  00001	8b ec		 mov	 ebp, esp
  00003	6a ff		 push	 -1
  00005	68 00 00 00 00	 push	 __ehhandler$??0CChartCfg@@QAE@PAVCPropertyMap@@HHHHHHV?$CStringT@DV?$StrTraitMFC_DLL@DV?$ChTraitsCRT@D@ATL@@@@@ATL@@1_NHHH222HH222222222KKKKKKKKKKHPBDHHJJHH@Z
  0000a	64 a1 00 00 00
	00		 mov	 eax, DWORD PTR fs:0
  00010	50		 push	 eax
  00011	51		 push	 ecx
  00012	53		 push	 ebx
  00013	56		 push	 esi
  00014	57		 push	 edi
  00015	a1 00 00 00 00	 mov	 eax, DWORD PTR ___security_cookie
  0001a	33 c5		 xor	 eax, ebp
  0001c	50		 push	 eax
  0001d	8d 45 f4	 lea	 eax, DWORD PTR __$EHRec$[ebp]
  00020	64 a3 00 00 00
	00		 mov	 DWORD PTR fs:0, eax
  00026	8b d9		 mov	 ebx, ecx
  00028	89 5d f0	 mov	 DWORD PTR _this$[ebp], ebx
  0002b	c7 45 fc 00 00
	00 00		 mov	 DWORD PTR __$EHRec$[ebp+8], 0
  00032	8d 4b 1c	 lea	 ecx, DWORD PTR [ebx+28]
  00035	c7 03 00 00 00
	00		 mov	 DWORD PTR [ebx], OFFSET ??_7CChartCfg@@6B@
  0003b	ff 15 00 00 00
	00		 call	 DWORD PTR __imp_??0?$CStringT@DV?$StrTraitMFC_DLL@DV?$ChTraitsCRT@D@ATL@@@@@ATL@@QAE@XZ
  00041	8d 4b 20	 lea	 ecx, DWORD PTR [ebx+32]
  00044	ff 15 00 00 00
	00		 call	 DWORD PTR __imp_??0?$CStringT@DV?$StrTraitMFC_DLL@DV?$ChTraitsCRT@D@ATL@@@@@ATL@@QAE@XZ
  0004a	8d 4b 7c	 lea	 ecx, DWORD PTR [ebx+124]
  0004d	ff 15 00 00 00
	00		 call	 DWORD PTR __imp_??0?$CStringT@DV?$StrTraitMFC_DLL@DV?$ChTraitsCRT@D@ATL@@@@@ATL@@QAE@XZ

; 62   : 	// (2009/5/17 - Seung-Won, Bae) for Future Time
; 63   : 	m_nFutureTimeCount = p_nFutureTimeCount;

  00053	8b 85 b0 00 00
	00		 mov	 eax, DWORD PTR _p_nFutureTimeCount$[ebp]
  00059	8b cb		 mov	 ecx, ebx
  0005b	c6 45 fc 04	 mov	 BYTE PTR __$EHRec$[ebp+8], 4
  0005f	89 81 8c 00 00
	00		 mov	 DWORD PTR [ecx+140], eax

; 64   : 
; 65   : 	// (2009/5/13 - Seung-Won, Bae) for Right Margin
; 66   : 	m_nRightMarginWidth = p_nRightMarginWidth;

  00065	8b 85 ac 00 00
	00		 mov	 eax, DWORD PTR _p_nRightMarginWidth$[ebp]
  0006b	89 81 88 00 00
	00		 mov	 DWORD PTR [ecx+136], eax

; 67   : 
; 68   : 	// (2006/11/12 - Seung-Won, Bae) Manage AddIn ENV Value Map
; 69   : 	m_pAddInEnvMap = p_pAddInEnvMap;

  00071	8b 45 08	 mov	 eax, DWORD PTR _p_pAddInEnvMap$[ebp]
  00074	89 41 78	 mov	 DWORD PTR [ecx+120], eax

; 70   : 
; 71   : 	m_nRowCount = nRowCount;

  00077	8b 45 0c	 mov	 eax, DWORD PTR _nRowCount$[ebp]
  0007a	89 41 04	 mov	 DWORD PTR [ecx+4], eax

; 72   : 	m_nColumnCount = nColumnCount;

  0007d	8b 45 10	 mov	 eax, DWORD PTR _nColumnCount$[ebp]
  00080	89 41 08	 mov	 DWORD PTR [ecx+8], eax

; 73   : 	m_nRowDoubleSizeBlock = nRowDoubleSizeBlock;

  00083	8b 45 14	 mov	 eax, DWORD PTR _nRowDoubleSizeBlock$[ebp]
  00086	89 41 0c	 mov	 DWORD PTR [ecx+12], eax

; 74   : 	m_nColumnDoubleSizeBlock = nColumnDoubleSizeBlock;

  00089	8b 45 18	 mov	 eax, DWORD PTR _nColumnDoubleSizeBlock$[ebp]
  0008c	89 41 10	 mov	 DWORD PTR [ecx+16], eax

; 75   : 	m_nOnePageDataCount = nOnePageDataCount;

  0008f	8b 45 1c	 mov	 eax, DWORD PTR _nOnePageDataCount$[ebp]
  00092	89 41 14	 mov	 DWORD PTR [ecx+20], eax

; 76   : 	m_nBongCountMargin = nBongCountMargin;

  00095	8b 45 20	 mov	 eax, DWORD PTR _nBongCountMargin$[ebp]
  00098	89 41 18	 mov	 DWORD PTR [ecx+24], eax

; 77   : 	m_strChartList = strChartList;

  0009b	8d 45 24	 lea	 eax, DWORD PTR _strChartList$[ebp]
  0009e	50		 push	 eax
  0009f	8d 4b 1c	 lea	 ecx, DWORD PTR [ebx+28]
  000a2	ff 15 00 00 00
	00		 call	 DWORD PTR __imp_??4?$CStringT@DV?$StrTraitMFC_DLL@DV?$ChTraitsCRT@D@ATL@@@@@ATL@@QAEAAV01@ABV01@@Z

; 78   : 	m_strBlockRegion = strBlockRegion;

  000a8	8d 45 28	 lea	 eax, DWORD PTR _strBlockRegion$[ebp]
  000ab	50		 push	 eax
  000ac	8d 4b 20	 lea	 ecx, DWORD PTR [ebx+32]
  000af	ff 15 00 00 00
	00		 call	 DWORD PTR __imp_??4?$CStringT@DV?$StrTraitMFC_DLL@DV?$ChTraitsCRT@D@ATL@@@@@ATL@@QAEAAV01@ABV01@@Z

; 79   : 	m_bWholeView = bWholeView;

  000b5	8a 45 2c	 mov	 al, BYTE PTR _bWholeView$[ebp]
  000b8	8b f3		 mov	 esi, ebx
  000ba	88 46 24	 mov	 BYTE PTR [esi+36], al

; 80   : 	m_clrBackground = clrBackground;

  000bd	8b 45 74	 mov	 eax, DWORD PTR _clrBackground$[ebp]
  000c0	89 46 28	 mov	 DWORD PTR [esi+40], eax

; 81   : 	m_clrBackBorder = clrBackBorder;

  000c3	8b 45 78	 mov	 eax, DWORD PTR _clrBackBorder$[ebp]
  000c6	89 46 2c	 mov	 DWORD PTR [esi+44], eax

; 82   : 	m_clrBlock = clrBlock;

  000c9	8b 45 7c	 mov	 eax, DWORD PTR _clrBlock$[ebp]
  000cc	89 46 30	 mov	 DWORD PTR [esi+48], eax

; 83   : 	m_clrBlockBorder = clrBlockBorder;

  000cf	8b 85 80 00 00
	00		 mov	 eax, DWORD PTR _clrBlockBorder$[ebp]
  000d5	89 46 34	 mov	 DWORD PTR [esi+52], eax

; 84   : 	m_clrScaleLine = clrScaleLine;

  000d8	8b 85 84 00 00
	00		 mov	 eax, DWORD PTR _clrScaleLine$[ebp]
  000de	89 46 38	 mov	 DWORD PTR [esi+56], eax

; 85   : 	m_clrScaleLine2 = clrScaleLine2;

  000e1	8b 85 88 00 00
	00		 mov	 eax, DWORD PTR _clrScaleLine2$[ebp]
  000e7	89 46 3c	 mov	 DWORD PTR [esi+60], eax

; 86   : 	m_clrScaleText = clrScaleText;

  000ea	8b 85 8c 00 00
	00		 mov	 eax, DWORD PTR _clrScaleText$[ebp]
  000f0	89 46 40	 mov	 DWORD PTR [esi+64], eax

; 87   : 	m_clrAnalysisTool = clrAnalysisTool;

  000f3	8b 85 90 00 00
	00		 mov	 eax, DWORD PTR _clrAnalysisTool$[ebp]
  000f9	89 46 44	 mov	 DWORD PTR [esi+68], eax

; 88   : 	m_clrInquiryWindow = clrInquiryWindow;

  000fc	8b 85 94 00 00
	00		 mov	 eax, DWORD PTR _clrInquiryWindow$[ebp]
  00102	89 46 48	 mov	 DWORD PTR [esi+72], eax

; 89   : 	m_clrLattice = clrLattice;

  00105	8b 85 98 00 00
	00		 mov	 eax, DWORD PTR _clrLattice$[ebp]
  0010b	89 46 4c	 mov	 DWORD PTR [esi+76], eax

; 90   : 
; 91   : 	//sy 2005.12.01 drag 관련 내용(수치조회/확대축소)
; 92   : 	m_nNumericalInquiryOption = nNumericalInquiryOption;

  0010e	8b 45 30	 mov	 eax, DWORD PTR _nNumericalInquiryOption$[ebp]
  00111	89 46 50	 mov	 DWORD PTR [esi+80], eax

; 93   : 	//sy end
; 94   : 	m_bUseConditiontoTitle = bUseConditiontoTitle;

  00114	8a 45 40	 mov	 al, BYTE PTR _bUseConditiontoTitle$[ebp]
  00117	88 46 54	 mov	 BYTE PTR [esi+84], al

; 95   : 	m_bUseDatatoTitle = bUseDatatoTitle;

  0011a	8a 45 44	 mov	 al, BYTE PTR _bUseDatatoTitle$[ebp]
  0011d	88 46 55	 mov	 BYTE PTR [esi+85], al

; 96   : 	m_nVertGap = nVertGap;

  00120	8b 45 48	 mov	 eax, DWORD PTR _nVertGap$[ebp]
  00123	89 46 58	 mov	 DWORD PTR [esi+88], eax

; 97   : 	m_nHorzGap = nHorzGap;

  00126	8b 45 4c	 mov	 eax, DWORD PTR _nHorzGap$[ebp]
  00129	89 46 5c	 mov	 DWORD PTR [esi+92], eax

; 98   : 	m_nYScalePosition = nYScalePosition;

  0012c	8b 45 34	 mov	 eax, DWORD PTR _nYScalePosition$[ebp]
  0012f	89 46 60	 mov	 DWORD PTR [esi+96], eax

; 99   : 
; 100  : 	//nami 9.10
; 101  :     m_nUseInquiryWithCrossline = nUseInquiryWithCrossline;

  00132	8b 45 38	 mov	 eax, DWORD PTR _nUseInquiryWithCrossline$[ebp]
  00135	89 46 64	 mov	 DWORD PTR [esi+100], eax

; 102  : 	m_bToolTipwithZoomIn = bToolTipwithZoomIn;

  00138	8a 45 3c	 mov	 al, BYTE PTR _bToolTipwithZoomIn$[ebp]
  0013b	88 46 68	 mov	 BYTE PTR [esi+104], al

; 103  : 
; 104  : 	m_bShowMinMaxbyPrice = bShowMinMaxbyPrice;

  0013e	8a 45 50	 mov	 al, BYTE PTR _bShowMinMaxbyPrice$[ebp]
  00141	88 46 69	 mov	 BYTE PTR [esi+105], al

; 105  : 
; 106  : 	//sy 2004.11.29. 모든 graph title 숨기기 여부
; 107  : 	m_bAllGraphTitleHiding = bAllGraphTitleHiding;
; 108  : 
; 109  : 	m_bShowTrendLineText = bShowTrendLineText;
; 110  : 	m_bShowVerticalText = bShowVerticalText;
; 111  : 	
; 112  : 	// 종찬(04/10/14) 가격Text를 왼쪽, 오른쪽 구분해서 보이기.
; 113  : 	m_bShowHorizonTextLeft = bShowHorizonTextLeft;
; 114  : 	m_bShowHorizonTextRight = bShowHorizonTextRight;
; 115  : 
; 116  : 	m_bShowThreeText = bShowThreeText;
; 117  : 	m_bShowFourText = bShowFourText;
; 118  : 	m_bShowFiboText = bShowFiboText;
; 119  : 
; 120  : 	// (2006/10/23 - Seung-Won, Bae) Manage the Flag of Showing the Price Min/Max Data Text.
; 121  : 	m_bShowPriceMinMaxText = p_bShowPriceMinMaxText;
; 122  : 
; 123  : 	// (2006/12/10 - Seung-Won, Bae) Support Map Default Info.
; 124  : 	m_strMapIndicatorInfo = p_szMapIndicatorInfo;

  00144	8d 4b 7c	 lea	 ecx, DWORD PTR [ebx+124]
  00147	8a 45 54	 mov	 al, BYTE PTR _bAllGraphTitleHiding$[ebp]
  0014a	ff b5 a0 00 00
	00		 push	 DWORD PTR _p_szMapIndicatorInfo$[ebp]
  00150	88 46 6a	 mov	 BYTE PTR [esi+106], al
  00153	8a 45 58	 mov	 al, BYTE PTR _bShowTrendLineText$[ebp]
  00156	88 46 6b	 mov	 BYTE PTR [esi+107], al
  00159	8a 45 5c	 mov	 al, BYTE PTR _bShowVerticalText$[ebp]
  0015c	88 46 6c	 mov	 BYTE PTR [esi+108], al
  0015f	8a 45 60	 mov	 al, BYTE PTR _bShowHorizonTextLeft$[ebp]
  00162	88 46 6d	 mov	 BYTE PTR [esi+109], al
  00165	8a 45 64	 mov	 al, BYTE PTR _bShowHorizonTextRight$[ebp]
  00168	88 46 6e	 mov	 BYTE PTR [esi+110], al
  0016b	8a 45 68	 mov	 al, BYTE PTR _bShowThreeText$[ebp]
  0016e	88 46 6f	 mov	 BYTE PTR [esi+111], al
  00171	8a 45 6c	 mov	 al, BYTE PTR _bShowFourText$[ebp]
  00174	88 46 70	 mov	 BYTE PTR [esi+112], al
  00177	8a 45 70	 mov	 al, BYTE PTR _bShowFiboText$[ebp]
  0017a	88 46 71	 mov	 BYTE PTR [esi+113], al
  0017d	8b 85 9c 00 00
	00		 mov	 eax, DWORD PTR _p_bShowPriceMinMaxText$[ebp]
  00183	89 46 74	 mov	 DWORD PTR [esi+116], eax
  00186	ff 15 00 00 00
	00		 call	 DWORD PTR __imp_??4?$CStringT@DV?$StrTraitMFC_DLL@DV?$ChTraitsCRT@D@ATL@@@@@ATL@@QAEAAV01@PBD@Z

; 125  : 
; 126  : 	// (2007/7/2 - Seung-Won, Bae) Do not Support Main Grid Type.
; 127  : 	//	for Old Version Map and User File.
; 128  : 	m_nVertScaleType = p_nVertScaleType;

  0018c	8b 85 a8 00 00
	00		 mov	 eax, DWORD PTR _p_nVertScaleType$[ebp]

; 129  : 
; 130  : 	// 기준선 보임 환경설정과 Scale 자동포함 기능 - ojtaso (20071101)
; 131  : 	m_bDrawBaseLine = bDrawBaseLine;
; 132  : 
; 133  : 	m_nMouseWheelIndex = p_nMouseWheelIndex;
; 134  : 	m_nMinMaxRatio = p_nMinMaxRatio;
; 135  : }

  00192	8d 4d 24	 lea	 ecx, DWORD PTR _strChartList$[ebp]
  00195	89 86 80 00 00
	00		 mov	 DWORD PTR [esi+128], eax
  0019b	8b 85 a4 00 00
	00		 mov	 eax, DWORD PTR _bDrawBaseLine$[ebp]
  001a1	89 86 84 00 00
	00		 mov	 DWORD PTR [esi+132], eax
  001a7	8b 85 b4 00 00
	00		 mov	 eax, DWORD PTR _p_nMouseWheelIndex$[ebp]
  001ad	89 86 90 00 00
	00		 mov	 DWORD PTR [esi+144], eax
  001b3	8b 85 b8 00 00
	00		 mov	 eax, DWORD PTR _p_nMinMaxRatio$[ebp]
  001b9	89 86 94 00 00
	00		 mov	 DWORD PTR [esi+148], eax
  001bf	ff 15 00 00 00
	00		 call	 DWORD PTR __imp_??1?$CStringT@DV?$StrTraitMFC_DLL@DV?$ChTraitsCRT@D@ATL@@@@@ATL@@QAE@XZ
  001c5	8d 4d 28	 lea	 ecx, DWORD PTR _strBlockRegion$[ebp]
  001c8	ff 15 00 00 00
	00		 call	 DWORD PTR __imp_??1?$CStringT@DV?$StrTraitMFC_DLL@DV?$ChTraitsCRT@D@ATL@@@@@ATL@@QAE@XZ
  001ce	8b c6		 mov	 eax, esi
  001d0	8b 4d f4	 mov	 ecx, DWORD PTR __$EHRec$[ebp]
  001d3	64 89 0d 00 00
	00 00		 mov	 DWORD PTR fs:0, ecx
  001da	59		 pop	 ecx
  001db	5f		 pop	 edi
  001dc	5e		 pop	 esi
  001dd	5b		 pop	 ebx
  001de	8b e5		 mov	 esp, ebp
  001e0	5d		 pop	 ebp
  001e1	c2 b4 00	 ret	 180			; 000000b4H
_TEXT	ENDS
;	COMDAT text$x
text$x	SEGMENT
__unwindfunclet$??0CChartCfg@@QAE@PAVCPropertyMap@@HHHHHHV?$CStringT@DV?$StrTraitMFC_DLL@DV?$ChTraitsCRT@D@ATL@@@@@ATL@@1_NHHH222HH222222222KKKKKKKKKKHPBDHHJJHH@Z$0:
  00000	8d 4d 28	 lea	 ecx, DWORD PTR _strBlockRegion$[ebp]
  00003	ff 25 00 00 00
	00		 jmp	 DWORD PTR __imp_??1?$CStringT@DV?$StrTraitMFC_DLL@DV?$ChTraitsCRT@D@ATL@@@@@ATL@@QAE@XZ
__unwindfunclet$??0CChartCfg@@QAE@PAVCPropertyMap@@HHHHHHV?$CStringT@DV?$StrTraitMFC_DLL@DV?$ChTraitsCRT@D@ATL@@@@@ATL@@1_NHHH222HH222222222KKKKKKKKKKHPBDHHJJHH@Z$1:
  00009	8d 4d 24	 lea	 ecx, DWORD PTR _strChartList$[ebp]
  0000c	ff 25 00 00 00
	00		 jmp	 DWORD PTR __imp_??1?$CStringT@DV?$StrTraitMFC_DLL@DV?$ChTraitsCRT@D@ATL@@@@@ATL@@QAE@XZ
__unwindfunclet$??0CChartCfg@@QAE@PAVCPropertyMap@@HHHHHHV?$CStringT@DV?$StrTraitMFC_DLL@DV?$ChTraitsCRT@D@ATL@@@@@ATL@@1_NHHH222HH222222222KKKKKKKKKKHPBDHHJJHH@Z$2:
  00012	8b 4d f0	 mov	 ecx, DWORD PTR _this$[ebp]
  00015	83 c1 1c	 add	 ecx, 28			; 0000001cH
  00018	ff 25 00 00 00
	00		 jmp	 DWORD PTR __imp_??1?$CStringT@DV?$StrTraitMFC_DLL@DV?$ChTraitsCRT@D@ATL@@@@@ATL@@QAE@XZ
__unwindfunclet$??0CChartCfg@@QAE@PAVCPropertyMap@@HHHHHHV?$CStringT@DV?$StrTraitMFC_DLL@DV?$ChTraitsCRT@D@ATL@@@@@ATL@@1_NHHH222HH222222222KKKKKKKKKKHPBDHHJJHH@Z$3:
  0001e	8b 4d f0	 mov	 ecx, DWORD PTR _this$[ebp]
  00021	83 c1 20	 add	 ecx, 32			; 00000020H
  00024	ff 25 00 00 00
	00		 jmp	 DWORD PTR __imp_??1?$CStringT@DV?$StrTraitMFC_DLL@DV?$ChTraitsCRT@D@ATL@@@@@ATL@@QAE@XZ
__unwindfunclet$??0CChartCfg@@QAE@PAVCPropertyMap@@HHHHHHV?$CStringT@DV?$StrTraitMFC_DLL@DV?$ChTraitsCRT@D@ATL@@@@@ATL@@1_NHHH222HH222222222KKKKKKKKKKHPBDHHJJHH@Z$4:
  0002a	8b 4d f0	 mov	 ecx, DWORD PTR _this$[ebp]
  0002d	83 c1 7c	 add	 ecx, 124		; 0000007cH
  00030	ff 25 00 00 00
	00		 jmp	 DWORD PTR __imp_??1?$CStringT@DV?$StrTraitMFC_DLL@DV?$ChTraitsCRT@D@ATL@@@@@ATL@@QAE@XZ
  00036	cc		 int	 3
  00037	cc		 int	 3
  00038	cc		 int	 3
  00039	cc		 int	 3
  0003a	cc		 int	 3
__ehhandler$??0CChartCfg@@QAE@PAVCPropertyMap@@HHHHHHV?$CStringT@DV?$StrTraitMFC_DLL@DV?$ChTraitsCRT@D@ATL@@@@@ATL@@1_NHHH222HH222222222KKKKKKKKKKHPBDHHJJHH@Z:
  0003b	90		 npad	 1
  0003c	90		 npad	 1
  0003d	8b 54 24 08	 mov	 edx, DWORD PTR [esp+8]
  00041	8d 42 0c	 lea	 eax, DWORD PTR [edx+12]
  00044	8b 4a ec	 mov	 ecx, DWORD PTR [edx-20]
  00047	33 c8		 xor	 ecx, eax
  00049	e8 00 00 00 00	 call	 @__security_check_cookie@4
  0004e	b8 00 00 00 00	 mov	 eax, OFFSET __ehfuncinfo$??0CChartCfg@@QAE@PAVCPropertyMap@@HHHHHHV?$CStringT@DV?$StrTraitMFC_DLL@DV?$ChTraitsCRT@D@ATL@@@@@ATL@@1_NHHH222HH222222222KKKKKKKKKKHPBDHHJJHH@Z
  00053	e9 00 00 00 00	 jmp	 ___CxxFrameHandler3
text$x	ENDS
??0CChartCfg@@QAE@PAVCPropertyMap@@HHHHHHV?$CStringT@DV?$StrTraitMFC_DLL@DV?$ChTraitsCRT@D@ATL@@@@@ATL@@1_NHHH222HH222222222KKKKKKKKKKHPBDHHJJHH@Z ENDP ; CChartCfg::CChartCfg
; Function compile flags: /Ogtp
; File C:\Program Files (x86)\Microsoft Visual Studio\2019\Community\VC\Tools\MSVC\14.29.30133\atlmfc\include\afx.inl
;	COMDAT ?Dump@CObject@@UBEXAAVCDumpContext@@@Z
_TEXT	SEGMENT
___formal$ = 8						; size = 4
?Dump@CObject@@UBEXAAVCDumpContext@@@Z PROC		; CObject::Dump, COMDAT
; _this$ = ecx

; 122  : 	{ /* no dumping in release builds */ }

  00000	c2 04 00	 ret	 4
?Dump@CObject@@UBEXAAVCDumpContext@@@Z ENDP		; CObject::Dump
_TEXT	ENDS
; Function compile flags: /Ogtp
; File C:\Program Files (x86)\Microsoft Visual Studio\2019\Community\VC\Tools\MSVC\14.29.30133\atlmfc\include\afx.inl
;	COMDAT ?AssertValid@CObject@@UBEXXZ
_TEXT	SEGMENT
?AssertValid@CObject@@UBEXXZ PROC			; CObject::AssertValid, COMDAT
; _this$ = ecx

; 120  : 	{ /* no asserts in release builds */ }

  00000	c2 00 00	 ret	 0
?AssertValid@CObject@@UBEXXZ ENDP			; CObject::AssertValid
_TEXT	ENDS
; Function compile flags: /Ogtp
; File C:\Program Files (x86)\Microsoft Visual Studio\2019\Community\VC\Tools\MSVC\14.29.30133\atlmfc\include\afx.inl
;	COMDAT ?Serialize@CObject@@UAEXAAVCArchive@@@Z
_TEXT	SEGMENT
___formal$ = 8						; size = 4
?Serialize@CObject@@UAEXAAVCArchive@@@Z PROC		; CObject::Serialize, COMDAT
; _this$ = ecx

; 106  : 	{ /* CObject does not serialize anything by default */ }

  00000	c2 04 00	 ret	 4
?Serialize@CObject@@UAEXAAVCArchive@@@Z ENDP		; CObject::Serialize
_TEXT	ENDS
; Function compile flags: /Ogtp
; File C:\Program Files (x86)\Microsoft Visual Studio\2019\Community\VC\Tools\MSVC\14.29.30133\atlmfc\include\afx.inl
;	COMDAT ??1CObject@@UAE@XZ
_TEXT	SEGMENT
??1CObject@@UAE@XZ PROC					; CObject::~CObject, COMDAT
; _this$ = ecx

; 104  : 	{ }

  00000	c2 00 00	 ret	 0
??1CObject@@UAE@XZ ENDP					; CObject::~CObject
_TEXT	ENDS
; Function compile flags: /Ogtp
; File D:\git\src\IBK\IBK_DRFN\ProjSrc\SrcChartEx\ChartOCX\KTBChart\ChartCfg.cpp
;	COMDAT ?__empty_global_delete@@YAXPAXI@Z
_TEXT	SEGMENT
___formal$ = 8						; size = 4
___formal$ = 12						; size = 4
?__empty_global_delete@@YAXPAXI@Z PROC			; __empty_global_delete, COMDAT

  00000	c2 00 00	 ret	 0
?__empty_global_delete@@YAXPAXI@Z ENDP			; __empty_global_delete
_TEXT	ENDS
; Function compile flags: /Ogtp
; File D:\git\src\IBK\IBK_DRFN\ProjSrc\SrcChartEx\ChartOCX\KTBChart\ChartCfg.cpp
;	COMDAT ?__empty_global_delete@@YAXPAX@Z
_TEXT	SEGMENT
___formal$ = 8						; size = 4
?__empty_global_delete@@YAXPAX@Z PROC			; __empty_global_delete, COMDAT

  00000	c2 00 00	 ret	 0
?__empty_global_delete@@YAXPAX@Z ENDP			; __empty_global_delete
_TEXT	ENDS
END
