; Listing generated by Microsoft (R) Optimizing Compiler Version 19.29.30148.0 

	TITLE	D:\git\src\IBK\IBK_DRFN\#DRfn-CS\_Obj\KTBChart\FileBuilder.obj
	.686P
	.XMM
	include listing.inc
	.model	flat

INCLUDELIB MSVCRT
INCLUDELIB OLDNAMES

PUBLIC	?__empty_global_delete@@YAXPAX@Z		; __empty_global_delete
PUBLIC	?__empty_global_delete@@YAXPAXI@Z		; __empty_global_delete
PUBLIC	?FileRead@CFileBuilder@@QBE?AV?$CStringT@DV?$StrTraitMFC_DLL@DV?$ChTraitsCRT@D@ATL@@@@@ATL@@ABV23@@Z ; CFileBuilder::FileRead
PUBLIC	?FileCreatWrite@CFileBuilder@@QAEHABV?$CStringT@DV?$StrTraitMFC_DLL@DV?$ChTraitsCRT@D@ATL@@@@@ATL@@0@Z ; CFileBuilder::FileCreatWrite
PUBLIC	?FileCreat@CFileBuilder@@QAE_NABV?$CStringT@DV?$StrTraitMFC_DLL@DV?$ChTraitsCRT@D@ATL@@@@@ATL@@@Z ; CFileBuilder::FileCreat
PUBLIC	?FileWrite@CFileBuilder@@QAE_NABV?$CStringT@DV?$StrTraitMFC_DLL@DV?$ChTraitsCRT@D@ATL@@@@@ATL@@0@Z ; CFileBuilder::FileWrite
PUBLIC	?FileFind@CFileBuilder@@QBE_NABV?$CStringT@DV?$StrTraitMFC_DLL@DV?$ChTraitsCRT@D@ATL@@@@@ATL@@@Z ; CFileBuilder::FileFind
PUBLIC	?GetPropertyFileData@CPropertyFileBuilder@@QBE_NABV?$CStringT@DV?$StrTraitMFC_DLL@DV?$ChTraitsCRT@D@ATL@@@@@ATL@@AAVCStringList@@@Z ; CPropertyFileBuilder::GetPropertyFileData
PUBLIC	??_C@_00CNPNBAHC@@				; `string'
PUBLIC	??_C@_02JDPG@rb@				; `string'
PUBLIC	??_C@_03BFHAFKOB@wb?$CL@			; `string'
EXTRN	??_U@YAPAXI@Z:PROC				; operator new[]
EXTRN	??_V@YAXPAX@Z:PROC				; operator delete[]
EXTRN	__imp__fclose:PROC
EXTRN	__imp__fopen:PROC
EXTRN	__imp__fread:PROC
EXTRN	__imp__fseek:PROC
EXTRN	__imp__ftell:PROC
EXTRN	__imp__fwrite:PROC
EXTRN	__imp_??0?$CStringT@DV?$StrTraitMFC_DLL@DV?$ChTraitsCRT@D@ATL@@@@@ATL@@QAE@ABV01@@Z:PROC
EXTRN	__imp_??0?$CStringT@DV?$StrTraitMFC_DLL@DV?$ChTraitsCRT@D@ATL@@@@@ATL@@QAE@PBD@Z:PROC
EXTRN	__imp_??1?$CStringT@DV?$StrTraitMFC_DLL@DV?$ChTraitsCRT@D@ATL@@@@@ATL@@QAE@XZ:PROC
EXTRN	__imp___findclose:PROC
EXTRN	__imp___findfirst64i32:PROC
EXTRN	@__security_check_cookie@4:PROC
EXTRN	___CxxFrameHandler3:PROC
EXTRN	_memset:PROC
EXTRN	___security_cookie:DWORD
;	COMDAT ??_C@_03BFHAFKOB@wb?$CL@
CONST	SEGMENT
??_C@_03BFHAFKOB@wb?$CL@ DB 'wb+', 00H			; `string'
CONST	ENDS
;	COMDAT ??_C@_02JDPG@rb@
CONST	SEGMENT
??_C@_02JDPG@rb@ DB 'rb', 00H				; `string'
CONST	ENDS
;	COMDAT ??_C@_00CNPNBAHC@@
CONST	SEGMENT
??_C@_00CNPNBAHC@@ DB 00H				; `string'
CONST	ENDS
;	COMDAT xdata$x
xdata$x	SEGMENT
__unwindtable$?GetPropertyFileData@CPropertyFileBuilder@@QBE_NABV?$CStringT@DV?$StrTraitMFC_DLL@DV?$ChTraitsCRT@D@ATL@@@@@ATL@@AAVCStringList@@@Z DD 0ffffffffH
	DD	FLAT:__unwindfunclet$?GetPropertyFileData@CPropertyFileBuilder@@QBE_NABV?$CStringT@DV?$StrTraitMFC_DLL@DV?$ChTraitsCRT@D@ATL@@@@@ATL@@AAVCStringList@@@Z$2
__ehfuncinfo$?GetPropertyFileData@CPropertyFileBuilder@@QBE_NABV?$CStringT@DV?$StrTraitMFC_DLL@DV?$ChTraitsCRT@D@ATL@@@@@ATL@@AAVCStringList@@@Z DD 019930522H
	DD	01H
	DD	FLAT:__unwindtable$?GetPropertyFileData@CPropertyFileBuilder@@QBE_NABV?$CStringT@DV?$StrTraitMFC_DLL@DV?$ChTraitsCRT@D@ATL@@@@@ATL@@AAVCStringList@@@Z
	DD	2 DUP(00H)
	DD	2 DUP(00H)
	DD	00H
	DD	01H
xdata$x	ENDS
;	COMDAT xdata$x
xdata$x	SEGMENT
__unwindtable$?FileRead@CFileBuilder@@QBE?AV?$CStringT@DV?$StrTraitMFC_DLL@DV?$ChTraitsCRT@D@ATL@@@@@ATL@@ABV23@@Z DD 0ffffffffH
	DD	FLAT:__unwindfunclet$?FileRead@CFileBuilder@@QBE?AV?$CStringT@DV?$StrTraitMFC_DLL@DV?$ChTraitsCRT@D@ATL@@@@@ATL@@ABV23@@Z$1
__ehfuncinfo$?FileRead@CFileBuilder@@QBE?AV?$CStringT@DV?$StrTraitMFC_DLL@DV?$ChTraitsCRT@D@ATL@@@@@ATL@@ABV23@@Z DD 019930522H
	DD	01H
	DD	FLAT:__unwindtable$?FileRead@CFileBuilder@@QBE?AV?$CStringT@DV?$StrTraitMFC_DLL@DV?$ChTraitsCRT@D@ATL@@@@@ATL@@ABV23@@Z
	DD	2 DUP(00H)
	DD	2 DUP(00H)
	DD	00H
	DD	01H
xdata$x	ENDS
; Function compile flags: /Ogtp
; File D:\git\src\IBK\IBK_DRFN\ProjSrc\SrcChartEx\ChartOCX\KTBChart\FileBuilder.cpp
; File C:\Program Files (x86)\Microsoft Visual Studio\2019\Community\VC\Tools\MSVC\14.29.30133\atlmfc\include\atlsimpstr.h
; File D:\git\src\IBK\IBK_DRFN\ProjSrc\SrcChartEx\ChartOCX\KTBChart\FileBuilder.cpp
; File C:\Program Files (x86)\Microsoft Visual Studio\2019\Community\VC\Tools\MSVC\14.29.30133\atlmfc\include\atlsimpstr.h
; File D:\git\src\IBK\IBK_DRFN\ProjSrc\SrcChartEx\ChartOCX\KTBChart\FileBuilder.cpp
;	COMDAT ?GetPropertyFileData@CPropertyFileBuilder@@QBE_NABV?$CStringT@DV?$StrTraitMFC_DLL@DV?$ChTraitsCRT@D@ATL@@@@@ATL@@AAVCStringList@@@Z
_TEXT	SEGMENT
_stream$1$ = -20					; size = 4
_strData$2 = -16					; size = 4
__$EHRec$ = -12						; size = 12
_strFileData$ = 8					; size = 4
_strFilePathAndName$ = 8				; size = 4
_proStrList$ = 12					; size = 4
?GetPropertyFileData@CPropertyFileBuilder@@QBE_NABV?$CStringT@DV?$StrTraitMFC_DLL@DV?$ChTraitsCRT@D@ATL@@@@@ATL@@AAVCStringList@@@Z PROC ; CPropertyFileBuilder::GetPropertyFileData, COMDAT
; _this$ = ecx

; 113  : {

  00000	55		 push	 ebp
  00001	8b ec		 mov	 ebp, esp
  00003	6a ff		 push	 -1
  00005	68 00 00 00 00	 push	 __ehhandler$?GetPropertyFileData@CPropertyFileBuilder@@QBE_NABV?$CStringT@DV?$StrTraitMFC_DLL@DV?$ChTraitsCRT@D@ATL@@@@@ATL@@AAVCStringList@@@Z
  0000a	64 a1 00 00 00
	00		 mov	 eax, DWORD PTR fs:0
  00010	50		 push	 eax
  00011	83 ec 08	 sub	 esp, 8
  00014	53		 push	 ebx
  00015	56		 push	 esi
  00016	57		 push	 edi
  00017	a1 00 00 00 00	 mov	 eax, DWORD PTR ___security_cookie
  0001c	33 c5		 xor	 eax, ebp
  0001e	50		 push	 eax
  0001f	8d 45 f4	 lea	 eax, DWORD PTR __$EHRec$[ebp]
  00022	64 a3 00 00 00
	00		 mov	 DWORD PTR fs:0, eax
; File C:\Program Files (x86)\Microsoft Visual Studio\2019\Community\VC\Tools\MSVC\14.29.30133\atlmfc\include\atlsimpstr.h

; 519  : 		return( GetData()->nDataLength );

  00028	8b 45 08	 mov	 eax, DWORD PTR _strFilePathAndName$[ebp]
  0002b	8b 00		 mov	 eax, DWORD PTR [eax]

; 533  : 		return( GetLength() == 0 );

  0002d	83 78 f4 00	 cmp	 DWORD PTR [eax-12], 0
; File D:\git\src\IBK\IBK_DRFN\ProjSrc\SrcChartEx\ChartOCX\KTBChart\FileBuilder.cpp

; 26   : 	if(strFilePathAndName.IsEmpty())

  00031	0f 84 93 00 00
	00		 je	 $LN27@GetPropert

; 27   : 		return "";
; 28   : 
; 29   : 	FILE *stream = fopen(strFilePathAndName, "rb");

  00037	68 00 00 00 00	 push	 OFFSET ??_C@_02JDPG@rb@
  0003c	50		 push	 eax
  0003d	ff 15 00 00 00
	00		 call	 DWORD PTR __imp__fopen
  00043	8b d8		 mov	 ebx, eax
  00045	83 c4 08	 add	 esp, 8
  00048	89 5d ec	 mov	 DWORD PTR _stream$1$[ebp], ebx

; 30   : 	if(stream == NULL)

  0004b	85 db		 test	 ebx, ebx
  0004d	74 7b		 je	 SHORT $LN27@GetPropert

; 32   : 	
; 33   : 	//fseek(stream, 0L, SEEK_SET);
; 34   : 	//long nbytes = _filelength(stream->_file);
; 35   : 
; 36   : 	fseek(stream, 0L, SEEK_END);//tour2k

  0004f	8b 35 00 00 00
	00		 mov	 esi, DWORD PTR __imp__fseek
  00055	6a 02		 push	 2
  00057	6a 00		 push	 0
  00059	53		 push	 ebx
  0005a	ff d6		 call	 esi

; 37   : 	long nbytes = ftell(stream);

  0005c	53		 push	 ebx
  0005d	ff 15 00 00 00
	00		 call	 DWORD PTR __imp__ftell

; 38   : 	fseek(stream, 0L, SEEK_SET);

  00063	6a 00		 push	 0
  00065	6a 00		 push	 0
  00067	53		 push	 ebx
  00068	8b f8		 mov	 edi, eax
  0006a	ff d6		 call	 esi

; 39   : 
; 40   : 	char* buffer = new char[nbytes + 1];

  0006c	8d 77 01	 lea	 esi, DWORD PTR [edi+1]
  0006f	56		 push	 esi
  00070	e8 00 00 00 00	 call	 ??_U@YAPAXI@Z		; operator new[]

; 41   : 	ZeroMemory(buffer, nbytes + 1);

  00075	56		 push	 esi
  00076	8b d8		 mov	 ebx, eax
  00078	6a 00		 push	 0
  0007a	53		 push	 ebx
  0007b	e8 00 00 00 00	 call	 _memset

; 42   : 	fread(buffer, sizeof(char), nbytes, stream);

  00080	8b 75 ec	 mov	 esi, DWORD PTR _stream$1$[ebp]
  00083	56		 push	 esi
  00084	57		 push	 edi
  00085	6a 01		 push	 1
  00087	53		 push	 ebx
  00088	ff 15 00 00 00
	00		 call	 DWORD PTR __imp__fread
  0008e	83 c4 3c	 add	 esp, 60			; 0000003cH

; 43   : 	CString strData = buffer;

  00091	8d 4d f0	 lea	 ecx, DWORD PTR _strData$2[ebp]
  00094	53		 push	 ebx
  00095	ff 15 00 00 00
	00		 call	 DWORD PTR __imp_??0?$CStringT@DV?$StrTraitMFC_DLL@DV?$ChTraitsCRT@D@ATL@@@@@ATL@@QAE@PBD@Z

; 44   : 
; 45   :     fclose(stream);

  0009b	56		 push	 esi
  0009c	c7 45 fc 00 00
	00 00		 mov	 DWORD PTR __$EHRec$[ebp+8], 0
  000a3	ff 15 00 00 00
	00		 call	 DWORD PTR __imp__fclose

; 46   : 	delete [] buffer;

  000a9	53		 push	 ebx
  000aa	e8 00 00 00 00	 call	 ??_V@YAXPAX@Z		; operator delete[]
  000af	83 c4 08	 add	 esp, 8

; 47   : 
; 48   : 	return strData;

  000b2	8d 45 f0	 lea	 eax, DWORD PTR _strData$2[ebp]
  000b5	8d 4d 08	 lea	 ecx, DWORD PTR _strFileData$[ebp]
  000b8	50		 push	 eax
  000b9	ff 15 00 00 00
	00		 call	 DWORD PTR __imp_??0?$CStringT@DV?$StrTraitMFC_DLL@DV?$ChTraitsCRT@D@ATL@@@@@ATL@@QAE@ABV01@@Z
  000bf	8d 4d f0	 lea	 ecx, DWORD PTR _strData$2[ebp]
  000c2	ff 15 00 00 00
	00		 call	 DWORD PTR __imp_??1?$CStringT@DV?$StrTraitMFC_DLL@DV?$ChTraitsCRT@D@ATL@@@@@ATL@@QAE@XZ
  000c8	eb 0e		 jmp	 SHORT $LN6@GetPropert
$LN27@GetPropert:

; 31   : 		return "";

  000ca	68 00 00 00 00	 push	 OFFSET ??_C@_00CNPNBAHC@@
  000cf	8d 4d 08	 lea	 ecx, DWORD PTR _strFileData$[ebp]
  000d2	ff 15 00 00 00
	00		 call	 DWORD PTR __imp_??0?$CStringT@DV?$StrTraitMFC_DLL@DV?$ChTraitsCRT@D@ATL@@@@@ATL@@QAE@PBD@Z
$LN6@GetPropert:
; File C:\Program Files (x86)\Microsoft Visual Studio\2019\Community\VC\Tools\MSVC\14.29.30133\atlmfc\include\atlsimpstr.h

; 519  : 		return( GetData()->nDataLength );

  000d8	8b 45 08	 mov	 eax, DWORD PTR _strFileData$[ebp]
; File D:\git\src\IBK\IBK_DRFN\ProjSrc\SrcChartEx\ChartOCX\KTBChart\FileBuilder.cpp

; 118  : 	return true;

  000db	8d 4d 08	 lea	 ecx, DWORD PTR _strFileData$[ebp]
  000de	83 78 f4 00	 cmp	 DWORD PTR [eax-12], 0
  000e2	0f 95 c3	 setne	 bl
  000e5	ff 15 00 00 00
	00		 call	 DWORD PTR __imp_??1?$CStringT@DV?$StrTraitMFC_DLL@DV?$ChTraitsCRT@D@ATL@@@@@ATL@@QAE@XZ
  000eb	8a c3		 mov	 al, bl

; 119  : }

  000ed	8b 4d f4	 mov	 ecx, DWORD PTR __$EHRec$[ebp]
  000f0	64 89 0d 00 00
	00 00		 mov	 DWORD PTR fs:0, ecx
  000f7	59		 pop	 ecx
  000f8	5f		 pop	 edi
  000f9	5e		 pop	 esi
  000fa	5b		 pop	 ebx
  000fb	8b e5		 mov	 esp, ebp
  000fd	5d		 pop	 ebp
  000fe	c2 08 00	 ret	 8
_TEXT	ENDS
;	COMDAT text$x
text$x	SEGMENT
__unwindfunclet$?GetPropertyFileData@CPropertyFileBuilder@@QBE_NABV?$CStringT@DV?$StrTraitMFC_DLL@DV?$ChTraitsCRT@D@ATL@@@@@ATL@@AAVCStringList@@@Z$2:
  00000	8d 4d f0	 lea	 ecx, DWORD PTR _strData$2[ebp]
  00003	ff 25 00 00 00
	00		 jmp	 DWORD PTR __imp_??1?$CStringT@DV?$StrTraitMFC_DLL@DV?$ChTraitsCRT@D@ATL@@@@@ATL@@QAE@XZ
  00009	cc		 int	 3
  0000a	cc		 int	 3
  0000b	cc		 int	 3
  0000c	cc		 int	 3
  0000d	cc		 int	 3
__ehhandler$?GetPropertyFileData@CPropertyFileBuilder@@QBE_NABV?$CStringT@DV?$StrTraitMFC_DLL@DV?$ChTraitsCRT@D@ATL@@@@@ATL@@AAVCStringList@@@Z:
  0000e	90		 npad	 1
  0000f	90		 npad	 1
  00010	8b 54 24 08	 mov	 edx, DWORD PTR [esp+8]
  00014	8d 42 0c	 lea	 eax, DWORD PTR [edx+12]
  00017	8b 4a e8	 mov	 ecx, DWORD PTR [edx-24]
  0001a	33 c8		 xor	 ecx, eax
  0001c	e8 00 00 00 00	 call	 @__security_check_cookie@4
  00021	b8 00 00 00 00	 mov	 eax, OFFSET __ehfuncinfo$?GetPropertyFileData@CPropertyFileBuilder@@QBE_NABV?$CStringT@DV?$StrTraitMFC_DLL@DV?$ChTraitsCRT@D@ATL@@@@@ATL@@AAVCStringList@@@Z
  00026	e9 00 00 00 00	 jmp	 ___CxxFrameHandler3
text$x	ENDS
?GetPropertyFileData@CPropertyFileBuilder@@QBE_NABV?$CStringT@DV?$StrTraitMFC_DLL@DV?$ChTraitsCRT@D@ATL@@@@@ATL@@AAVCStringList@@@Z ENDP ; CPropertyFileBuilder::GetPropertyFileData
; Function compile flags: /Ogtp
; File D:\git\src\IBK\IBK_DRFN\ProjSrc\SrcChartEx\ChartOCX\KTBChart\FileBuilder.cpp
; File C:\Program Files (x86)\Microsoft Visual Studio\2019\Community\VC\Tools\MSVC\14.29.30133\atlmfc\include\atlsimpstr.h
; File D:\git\src\IBK\IBK_DRFN\ProjSrc\SrcChartEx\ChartOCX\KTBChart\FileBuilder.cpp
;	COMDAT ?FileFind@CFileBuilder@@QBE_NABV?$CStringT@DV?$StrTraitMFC_DLL@DV?$ChTraitsCRT@D@ATL@@@@@ATL@@@Z
_TEXT	SEGMENT
_fileData$ = -300					; size = 296
__$ArrayPad$ = -4					; size = 4
_strFillePathAndName$ = 8				; size = 4
?FileFind@CFileBuilder@@QBE_NABV?$CStringT@DV?$StrTraitMFC_DLL@DV?$ChTraitsCRT@D@ATL@@@@@ATL@@@Z PROC ; CFileBuilder::FileFind, COMDAT
; _this$ = ecx

; 94   : {

  00000	55		 push	 ebp
  00001	8b ec		 mov	 ebp, esp
  00003	81 ec 2c 01 00
	00		 sub	 esp, 300		; 0000012cH
  00009	a1 00 00 00 00	 mov	 eax, DWORD PTR ___security_cookie
  0000e	33 c5		 xor	 eax, ebp
  00010	89 45 fc	 mov	 DWORD PTR __$ArrayPad$[ebp], eax
  00013	8b 45 08	 mov	 eax, DWORD PTR _strFillePathAndName$[ebp]
; File C:\Program Files (x86)\Microsoft Visual Studio\2019\Community\VC\Tools\MSVC\14.29.30133\atlmfc\include\atlsimpstr.h

; 519  : 		return( GetData()->nDataLength );

  00016	8b 00		 mov	 eax, DWORD PTR [eax]

; 533  : 		return( GetLength() == 0 );

  00018	83 78 f4 00	 cmp	 DWORD PTR [eax-12], 0
; File D:\git\src\IBK\IBK_DRFN\ProjSrc\SrcChartEx\ChartOCX\KTBChart\FileBuilder.cpp

; 95   : 	if(strFillePathAndName.IsEmpty())

  0001c	74 32		 je	 SHORT $LN13@FileFind

; 96   : 		return false;
; 97   : 
; 98   : 	struct _finddata_t fileData;
; 99   : 	long hFile = _findfirst(strFillePathAndName, &fileData);

  0001e	8d 8d d4 fe ff
	ff		 lea	 ecx, DWORD PTR _fileData$[ebp]
  00024	51		 push	 ecx
  00025	50		 push	 eax
  00026	ff 15 00 00 00
	00		 call	 DWORD PTR __imp___findfirst64i32
  0002c	83 c4 08	 add	 esp, 8

; 100  : 	if(hFile == -1L)

  0002f	83 f8 ff	 cmp	 eax, -1
  00032	74 1c		 je	 SHORT $LN13@FileFind

; 101  : 		return false;
; 102  : 
; 103  : 	_findclose(hFile);

  00034	50		 push	 eax
  00035	ff 15 00 00 00
	00		 call	 DWORD PTR __imp___findclose
  0003b	83 c4 04	 add	 esp, 4

; 104  : 	return true;

  0003e	b0 01		 mov	 al, 1

; 105  : }

  00040	8b 4d fc	 mov	 ecx, DWORD PTR __$ArrayPad$[ebp]
  00043	33 cd		 xor	 ecx, ebp
  00045	e8 00 00 00 00	 call	 @__security_check_cookie@4
  0004a	8b e5		 mov	 esp, ebp
  0004c	5d		 pop	 ebp
  0004d	c2 04 00	 ret	 4
$LN13@FileFind:
  00050	8b 4d fc	 mov	 ecx, DWORD PTR __$ArrayPad$[ebp]
  00053	32 c0		 xor	 al, al
  00055	33 cd		 xor	 ecx, ebp
  00057	e8 00 00 00 00	 call	 @__security_check_cookie@4
  0005c	8b e5		 mov	 esp, ebp
  0005e	5d		 pop	 ebp
  0005f	c2 04 00	 ret	 4
?FileFind@CFileBuilder@@QBE_NABV?$CStringT@DV?$StrTraitMFC_DLL@DV?$ChTraitsCRT@D@ATL@@@@@ATL@@@Z ENDP ; CFileBuilder::FileFind
_TEXT	ENDS
; Function compile flags: /Ogtp
; File D:\git\src\IBK\IBK_DRFN\ProjSrc\SrcChartEx\ChartOCX\KTBChart\FileBuilder.cpp
; File C:\Program Files (x86)\Microsoft Visual Studio\2019\Community\VC\Tools\MSVC\14.29.30133\atlmfc\include\atlsimpstr.h
; File D:\git\src\IBK\IBK_DRFN\ProjSrc\SrcChartEx\ChartOCX\KTBChart\FileBuilder.cpp
; File C:\Program Files (x86)\Microsoft Visual Studio\2019\Community\VC\Tools\MSVC\14.29.30133\atlmfc\include\atlsimpstr.h
; File D:\git\src\IBK\IBK_DRFN\ProjSrc\SrcChartEx\ChartOCX\KTBChart\FileBuilder.cpp
; File C:\Program Files (x86)\Microsoft Visual Studio\2019\Community\VC\Tools\MSVC\14.29.30133\atlmfc\include\atlsimpstr.h
; File D:\git\src\IBK\IBK_DRFN\ProjSrc\SrcChartEx\ChartOCX\KTBChart\FileBuilder.cpp
;	COMDAT ?FileWrite@CFileBuilder@@QAE_NABV?$CStringT@DV?$StrTraitMFC_DLL@DV?$ChTraitsCRT@D@ATL@@@@@ATL@@0@Z
_TEXT	SEGMENT
_strFilePathAndName$ = 8				; size = 4
_strWriteData$ = 12					; size = 4
?FileWrite@CFileBuilder@@QAE_NABV?$CStringT@DV?$StrTraitMFC_DLL@DV?$ChTraitsCRT@D@ATL@@@@@ATL@@0@Z PROC ; CFileBuilder::FileWrite, COMDAT
; _this$ = ecx

; 78   : {

  00000	55		 push	 ebp
  00001	8b ec		 mov	 ebp, esp
; File C:\Program Files (x86)\Microsoft Visual Studio\2019\Community\VC\Tools\MSVC\14.29.30133\atlmfc\include\atlsimpstr.h

; 377  : 		return( m_pszData );

  00003	8b 45 08	 mov	 eax, DWORD PTR _strFilePathAndName$[ebp]
; File D:\git\src\IBK\IBK_DRFN\ProjSrc\SrcChartEx\ChartOCX\KTBChart\FileBuilder.cpp

; 78   : {

  00006	56		 push	 esi

; 79   : 	// 해당 file에 data 쓰기.
; 80   : 	FILE *stream = fopen(strFilePathAndName, "wb+");

  00007	68 00 00 00 00	 push	 OFFSET ??_C@_03BFHAFKOB@wb?$CL@
  0000c	ff 30		 push	 DWORD PTR [eax]
  0000e	ff 15 00 00 00
	00		 call	 DWORD PTR __imp__fopen
  00014	8b f0		 mov	 esi, eax
  00016	83 c4 08	 add	 esp, 8

; 81   : 	if(stream == NULL)

  00019	85 f6		 test	 esi, esi
  0001b	75 07		 jne	 SHORT $LN2@FileWrite

; 82   : 		return false;

  0001d	32 c0		 xor	 al, al
  0001f	5e		 pop	 esi

; 90   : }

  00020	5d		 pop	 ebp
  00021	c2 08 00	 ret	 8
$LN2@FileWrite:

; 83   : 
; 84   : 	fseek(stream, 0L, SEEK_END);

  00024	6a 02		 push	 2
  00026	6a 00		 push	 0
  00028	56		 push	 esi
  00029	ff 15 00 00 00
	00		 call	 DWORD PTR __imp__fseek
; File C:\Program Files (x86)\Microsoft Visual Studio\2019\Community\VC\Tools\MSVC\14.29.30133\atlmfc\include\atlsimpstr.h

; 519  : 		return( GetData()->nDataLength );

  0002f	8b 45 0c	 mov	 eax, DWORD PTR _strWriteData$[ebp]
; File D:\git\src\IBK\IBK_DRFN\ProjSrc\SrcChartEx\ChartOCX\KTBChart\FileBuilder.cpp

; 85   : 	fwrite(strWriteData, sizeof(char), strWriteData.GetLength(), stream);

  00032	56		 push	 esi
; File C:\Program Files (x86)\Microsoft Visual Studio\2019\Community\VC\Tools\MSVC\14.29.30133\atlmfc\include\atlsimpstr.h

; 519  : 		return( GetData()->nDataLength );

  00033	8b 00		 mov	 eax, DWORD PTR [eax]
; File D:\git\src\IBK\IBK_DRFN\ProjSrc\SrcChartEx\ChartOCX\KTBChart\FileBuilder.cpp

; 85   : 	fwrite(strWriteData, sizeof(char), strWriteData.GetLength(), stream);

  00035	ff 70 f4	 push	 DWORD PTR [eax-12]
  00038	6a 01		 push	 1
  0003a	50		 push	 eax
  0003b	ff 15 00 00 00
	00		 call	 DWORD PTR __imp__fwrite

; 86   : 	//fprintf(stream, "%s", writeData);
; 87   :     fclose(stream);

  00041	56		 push	 esi
  00042	ff 15 00 00 00
	00		 call	 DWORD PTR __imp__fclose
  00048	83 c4 20	 add	 esp, 32			; 00000020H

; 88   : 
; 89   : 	return true;

  0004b	b0 01		 mov	 al, 1
  0004d	5e		 pop	 esi

; 90   : }

  0004e	5d		 pop	 ebp
  0004f	c2 08 00	 ret	 8
?FileWrite@CFileBuilder@@QAE_NABV?$CStringT@DV?$StrTraitMFC_DLL@DV?$ChTraitsCRT@D@ATL@@@@@ATL@@0@Z ENDP ; CFileBuilder::FileWrite
_TEXT	ENDS
; Function compile flags: /Ogtp
; File D:\git\src\IBK\IBK_DRFN\ProjSrc\SrcChartEx\ChartOCX\KTBChart\FileBuilder.cpp
; File C:\Program Files (x86)\Microsoft Visual Studio\2019\Community\VC\Tools\MSVC\14.29.30133\atlmfc\include\atlsimpstr.h
; File D:\git\src\IBK\IBK_DRFN\ProjSrc\SrcChartEx\ChartOCX\KTBChart\FileBuilder.cpp
;	COMDAT ?FileCreat@CFileBuilder@@QAE_NABV?$CStringT@DV?$StrTraitMFC_DLL@DV?$ChTraitsCRT@D@ATL@@@@@ATL@@@Z
_TEXT	SEGMENT
_strFilePathAndName$ = 8				; size = 4
?FileCreat@CFileBuilder@@QAE_NABV?$CStringT@DV?$StrTraitMFC_DLL@DV?$ChTraitsCRT@D@ATL@@@@@ATL@@@Z PROC ; CFileBuilder::FileCreat, COMDAT
; _this$ = ecx

; 67   : {

  00000	55		 push	 ebp
  00001	8b ec		 mov	 ebp, esp
; File C:\Program Files (x86)\Microsoft Visual Studio\2019\Community\VC\Tools\MSVC\14.29.30133\atlmfc\include\atlsimpstr.h

; 377  : 		return( m_pszData );

  00003	8b 45 08	 mov	 eax, DWORD PTR _strFilePathAndName$[ebp]
; File D:\git\src\IBK\IBK_DRFN\ProjSrc\SrcChartEx\ChartOCX\KTBChart\FileBuilder.cpp

; 68   : 	FILE *stream = fopen(strFilePathAndName, "wb+");

  00006	68 00 00 00 00	 push	 OFFSET ??_C@_03BFHAFKOB@wb?$CL@
  0000b	ff 30		 push	 DWORD PTR [eax]
  0000d	ff 15 00 00 00
	00		 call	 DWORD PTR __imp__fopen
  00013	83 c4 08	 add	 esp, 8

; 69   : 	if(stream == NULL)

  00016	85 c0		 test	 eax, eax
  00018	75 06		 jne	 SHORT $LN2@FileCreat

; 70   : 		return false;

  0001a	32 c0		 xor	 al, al

; 74   : }

  0001c	5d		 pop	 ebp
  0001d	c2 04 00	 ret	 4
$LN2@FileCreat:

; 71   : 
; 72   :     fclose(stream);

  00020	50		 push	 eax
  00021	ff 15 00 00 00
	00		 call	 DWORD PTR __imp__fclose
  00027	83 c4 04	 add	 esp, 4

; 73   : 	return true;

  0002a	b0 01		 mov	 al, 1

; 74   : }

  0002c	5d		 pop	 ebp
  0002d	c2 04 00	 ret	 4
?FileCreat@CFileBuilder@@QAE_NABV?$CStringT@DV?$StrTraitMFC_DLL@DV?$ChTraitsCRT@D@ATL@@@@@ATL@@@Z ENDP ; CFileBuilder::FileCreat
_TEXT	ENDS
; Function compile flags: /Ogtp
; File D:\git\src\IBK\IBK_DRFN\ProjSrc\SrcChartEx\ChartOCX\KTBChart\FileBuilder.cpp
; File C:\Program Files (x86)\Microsoft Visual Studio\2019\Community\VC\Tools\MSVC\14.29.30133\atlmfc\include\atlsimpstr.h
; File D:\git\src\IBK\IBK_DRFN\ProjSrc\SrcChartEx\ChartOCX\KTBChart\FileBuilder.cpp
; File C:\Program Files (x86)\Microsoft Visual Studio\2019\Community\VC\Tools\MSVC\14.29.30133\atlmfc\include\atlsimpstr.h
; File D:\git\src\IBK\IBK_DRFN\ProjSrc\SrcChartEx\ChartOCX\KTBChart\FileBuilder.cpp
; File C:\Program Files (x86)\Microsoft Visual Studio\2019\Community\VC\Tools\MSVC\14.29.30133\atlmfc\include\atlsimpstr.h
; File D:\git\src\IBK\IBK_DRFN\ProjSrc\SrcChartEx\ChartOCX\KTBChart\FileBuilder.cpp
;	COMDAT ?FileCreatWrite@CFileBuilder@@QAEHABV?$CStringT@DV?$StrTraitMFC_DLL@DV?$ChTraitsCRT@D@ATL@@@@@ATL@@0@Z
_TEXT	SEGMENT
_strWriteData$GSCopy$1$ = -304				; size = 4
_fileData$1 = -300					; size = 296
__$ArrayPad$ = -4					; size = 4
_strFilePathAndName$ = 8				; size = 4
_strWriteData$ = 12					; size = 4
?FileCreatWrite@CFileBuilder@@QAEHABV?$CStringT@DV?$StrTraitMFC_DLL@DV?$ChTraitsCRT@D@ATL@@@@@ATL@@0@Z PROC ; CFileBuilder::FileCreatWrite, COMDAT
; _this$ = ecx

; 53   : {

  00000	55		 push	 ebp
  00001	8b ec		 mov	 ebp, esp
  00003	81 ec 30 01 00
	00		 sub	 esp, 304		; 00000130H
  00009	a1 00 00 00 00	 mov	 eax, DWORD PTR ___security_cookie
  0000e	33 c5		 xor	 eax, ebp
  00010	89 45 fc	 mov	 DWORD PTR __$ArrayPad$[ebp], eax
  00013	8b 45 0c	 mov	 eax, DWORD PTR _strWriteData$[ebp]
  00016	56		 push	 esi
  00017	8b 75 08	 mov	 esi, DWORD PTR _strFilePathAndName$[ebp]
  0001a	89 85 d0 fe ff
	ff		 mov	 DWORD PTR _strWriteData$GSCopy$1$[ebp], eax
; File C:\Program Files (x86)\Microsoft Visual Studio\2019\Community\VC\Tools\MSVC\14.29.30133\atlmfc\include\atlsimpstr.h

; 519  : 		return( GetData()->nDataLength );

  00020	8b 06		 mov	 eax, DWORD PTR [esi]

; 533  : 		return( GetLength() == 0 );

  00022	83 78 f4 00	 cmp	 DWORD PTR [eax-12], 0
; File D:\git\src\IBK\IBK_DRFN\ProjSrc\SrcChartEx\ChartOCX\KTBChart\FileBuilder.cpp

; 95   : 	if(strFillePathAndName.IsEmpty())

  00026	74 18		 je	 SHORT $LN33@FileCreatW

; 96   : 		return false;
; 97   : 
; 98   : 	struct _finddata_t fileData;
; 99   : 	long hFile = _findfirst(strFillePathAndName, &fileData);

  00028	8d 8d d4 fe ff
	ff		 lea	 ecx, DWORD PTR _fileData$1[ebp]
  0002e	51		 push	 ecx
  0002f	50		 push	 eax
  00030	ff 15 00 00 00
	00		 call	 DWORD PTR __imp___findfirst64i32
  00036	83 c4 08	 add	 esp, 8

; 100  : 	if(hFile == -1L)

  00039	83 f8 ff	 cmp	 eax, -1
  0003c	75 32		 jne	 SHORT $LN7@FileCreatW

; 101  : 		return false;

  0003e	8b 06		 mov	 eax, DWORD PTR [esi]
$LN33@FileCreatW:

; 68   : 	FILE *stream = fopen(strFilePathAndName, "wb+");

  00040	68 00 00 00 00	 push	 OFFSET ??_C@_03BFHAFKOB@wb?$CL@
  00045	50		 push	 eax
  00046	ff 15 00 00 00
	00		 call	 DWORD PTR __imp__fopen
  0004c	83 c4 08	 add	 esp, 8

; 69   : 	if(stream == NULL)

  0004f	85 c0		 test	 eax, eax
  00051	74 09		 je	 SHORT $LN34@FileCreatW

; 70   : 		return false;
; 71   : 
; 72   :     fclose(stream);

  00053	50		 push	 eax
  00054	ff 15 00 00 00
	00		 call	 DWORD PTR __imp__fclose

; 54   : 	// 해당 file 이 없으면 file 생성.
; 55   : 	if(!FileFind(strFilePathAndName))
; 56   : 	{
; 57   : 		if(!FileCreat(strFilePathAndName))

  0005a	eb 1b		 jmp	 SHORT $LN35@FileCreatW
$LN34@FileCreatW:

; 58   : 			return -1;

  0005c	83 c8 ff	 or	 eax, -1
  0005f	5e		 pop	 esi

; 59   : 	}
; 60   : 
; 61   : 	// 해당 file에 data 쓰기.
; 62   : 	return FileWrite(strFilePathAndName, strWriteData);
; 63   : }

  00060	8b 4d fc	 mov	 ecx, DWORD PTR __$ArrayPad$[ebp]
  00063	33 cd		 xor	 ecx, ebp
  00065	e8 00 00 00 00	 call	 @__security_check_cookie@4
  0006a	8b e5		 mov	 esp, ebp
  0006c	5d		 pop	 ebp
  0006d	c2 08 00	 ret	 8
$LN7@FileCreatW:

; 103  : 	_findclose(hFile);

  00070	50		 push	 eax
  00071	ff 15 00 00 00
	00		 call	 DWORD PTR __imp___findclose
$LN35@FileCreatW:

; 80   : 	FILE *stream = fopen(strFilePathAndName, "wb+");

  00077	83 c4 04	 add	 esp, 4
  0007a	68 00 00 00 00	 push	 OFFSET ??_C@_03BFHAFKOB@wb?$CL@
  0007f	ff 36		 push	 DWORD PTR [esi]
  00081	ff 15 00 00 00
	00		 call	 DWORD PTR __imp__fopen
  00087	8b f0		 mov	 esi, eax
  00089	83 c4 08	 add	 esp, 8

; 81   : 	if(stream == NULL)

  0008c	85 f6		 test	 esi, esi
  0008e	75 11		 jne	 SHORT $LN23@FileCreatW
  00090	5e		 pop	 esi

; 59   : 	}
; 60   : 
; 61   : 	// 해당 file에 data 쓰기.
; 62   : 	return FileWrite(strFilePathAndName, strWriteData);
; 63   : }

  00091	8b 4d fc	 mov	 ecx, DWORD PTR __$ArrayPad$[ebp]
  00094	33 cd		 xor	 ecx, ebp
  00096	e8 00 00 00 00	 call	 @__security_check_cookie@4
  0009b	8b e5		 mov	 esp, ebp
  0009d	5d		 pop	 ebp
  0009e	c2 08 00	 ret	 8
$LN23@FileCreatW:

; 84   : 	fseek(stream, 0L, SEEK_END);

  000a1	6a 02		 push	 2
  000a3	6a 00		 push	 0
  000a5	56		 push	 esi
  000a6	ff 15 00 00 00
	00		 call	 DWORD PTR __imp__fseek
; File C:\Program Files (x86)\Microsoft Visual Studio\2019\Community\VC\Tools\MSVC\14.29.30133\atlmfc\include\atlsimpstr.h

; 519  : 		return( GetData()->nDataLength );

  000ac	8b 85 d0 fe ff
	ff		 mov	 eax, DWORD PTR _strWriteData$GSCopy$1$[ebp]
; File D:\git\src\IBK\IBK_DRFN\ProjSrc\SrcChartEx\ChartOCX\KTBChart\FileBuilder.cpp

; 85   : 	fwrite(strWriteData, sizeof(char), strWriteData.GetLength(), stream);

  000b2	56		 push	 esi
; File C:\Program Files (x86)\Microsoft Visual Studio\2019\Community\VC\Tools\MSVC\14.29.30133\atlmfc\include\atlsimpstr.h

; 519  : 		return( GetData()->nDataLength );

  000b3	8b 00		 mov	 eax, DWORD PTR [eax]
; File D:\git\src\IBK\IBK_DRFN\ProjSrc\SrcChartEx\ChartOCX\KTBChart\FileBuilder.cpp

; 85   : 	fwrite(strWriteData, sizeof(char), strWriteData.GetLength(), stream);

  000b5	ff 70 f4	 push	 DWORD PTR [eax-12]
  000b8	6a 01		 push	 1
  000ba	50		 push	 eax
  000bb	ff 15 00 00 00
	00		 call	 DWORD PTR __imp__fwrite

; 86   : 	//fprintf(stream, "%s", writeData);
; 87   :     fclose(stream);

  000c1	56		 push	 esi
  000c2	ff 15 00 00 00
	00		 call	 DWORD PTR __imp__fclose

; 59   : 	}
; 60   : 
; 61   : 	// 해당 file에 data 쓰기.
; 62   : 	return FileWrite(strFilePathAndName, strWriteData);
; 63   : }

  000c8	8b 4d fc	 mov	 ecx, DWORD PTR __$ArrayPad$[ebp]

; 87   :     fclose(stream);

  000cb	83 c4 20	 add	 esp, 32			; 00000020H

; 59   : 	}
; 60   : 
; 61   : 	// 해당 file에 data 쓰기.
; 62   : 	return FileWrite(strFilePathAndName, strWriteData);
; 63   : }

  000ce	33 cd		 xor	 ecx, ebp

; 89   : 	return true;

  000d0	b8 01 00 00 00	 mov	 eax, 1
  000d5	5e		 pop	 esi

; 59   : 	}
; 60   : 
; 61   : 	// 해당 file에 data 쓰기.
; 62   : 	return FileWrite(strFilePathAndName, strWriteData);
; 63   : }

  000d6	e8 00 00 00 00	 call	 @__security_check_cookie@4
  000db	8b e5		 mov	 esp, ebp
  000dd	5d		 pop	 ebp
  000de	c2 08 00	 ret	 8
?FileCreatWrite@CFileBuilder@@QAEHABV?$CStringT@DV?$StrTraitMFC_DLL@DV?$ChTraitsCRT@D@ATL@@@@@ATL@@0@Z ENDP ; CFileBuilder::FileCreatWrite
_TEXT	ENDS
; Function compile flags: /Ogtp
; File D:\git\src\IBK\IBK_DRFN\ProjSrc\SrcChartEx\ChartOCX\KTBChart\FileBuilder.cpp
; File C:\Program Files (x86)\Microsoft Visual Studio\2019\Community\VC\Tools\MSVC\14.29.30133\atlmfc\include\atlsimpstr.h
; File D:\git\src\IBK\IBK_DRFN\ProjSrc\SrcChartEx\ChartOCX\KTBChart\FileBuilder.cpp
;	COMDAT ?FileRead@CFileBuilder@@QBE?AV?$CStringT@DV?$StrTraitMFC_DLL@DV?$ChTraitsCRT@D@ATL@@@@@ATL@@ABV23@@Z
_TEXT	SEGMENT
_stream$1$ = -16					; size = 4
__$EHRec$ = -12						; size = 12
___$ReturnUdt$ = 8					; size = 4
_strData$ = 12						; size = 4
_strFilePathAndName$ = 12				; size = 4
?FileRead@CFileBuilder@@QBE?AV?$CStringT@DV?$StrTraitMFC_DLL@DV?$ChTraitsCRT@D@ATL@@@@@ATL@@ABV23@@Z PROC ; CFileBuilder::FileRead, COMDAT
; _this$ = ecx

; 25   : {

  00000	55		 push	 ebp
  00001	8b ec		 mov	 ebp, esp
  00003	6a ff		 push	 -1
  00005	68 00 00 00 00	 push	 __ehhandler$?FileRead@CFileBuilder@@QBE?AV?$CStringT@DV?$StrTraitMFC_DLL@DV?$ChTraitsCRT@D@ATL@@@@@ATL@@ABV23@@Z
  0000a	64 a1 00 00 00
	00		 mov	 eax, DWORD PTR fs:0
  00010	50		 push	 eax
  00011	51		 push	 ecx
  00012	53		 push	 ebx
  00013	56		 push	 esi
  00014	57		 push	 edi
  00015	a1 00 00 00 00	 mov	 eax, DWORD PTR ___security_cookie
  0001a	33 c5		 xor	 eax, ebp
  0001c	50		 push	 eax
  0001d	8d 45 f4	 lea	 eax, DWORD PTR __$EHRec$[ebp]
  00020	64 a3 00 00 00
	00		 mov	 DWORD PTR fs:0, eax
; File C:\Program Files (x86)\Microsoft Visual Studio\2019\Community\VC\Tools\MSVC\14.29.30133\atlmfc\include\atlsimpstr.h

; 519  : 		return( GetData()->nDataLength );

  00026	8b 45 0c	 mov	 eax, DWORD PTR _strFilePathAndName$[ebp]
  00029	8b 00		 mov	 eax, DWORD PTR [eax]

; 533  : 		return( GetLength() == 0 );

  0002b	83 78 f4 00	 cmp	 DWORD PTR [eax-12], 0
; File D:\git\src\IBK\IBK_DRFN\ProjSrc\SrcChartEx\ChartOCX\KTBChart\FileBuilder.cpp

; 26   : 	if(strFilePathAndName.IsEmpty())

  0002f	0f 84 93 00 00
	00		 je	 $LN16@FileRead

; 27   : 		return "";
; 28   : 
; 29   : 	FILE *stream = fopen(strFilePathAndName, "rb");

  00035	68 00 00 00 00	 push	 OFFSET ??_C@_02JDPG@rb@
  0003a	50		 push	 eax
  0003b	ff 15 00 00 00
	00		 call	 DWORD PTR __imp__fopen
  00041	8b d8		 mov	 ebx, eax
  00043	83 c4 08	 add	 esp, 8
  00046	89 5d f0	 mov	 DWORD PTR _stream$1$[ebp], ebx

; 30   : 	if(stream == NULL)

  00049	85 db		 test	 ebx, ebx
  0004b	74 7b		 je	 SHORT $LN16@FileRead

; 32   : 	
; 33   : 	//fseek(stream, 0L, SEEK_SET);
; 34   : 	//long nbytes = _filelength(stream->_file);
; 35   : 
; 36   : 	fseek(stream, 0L, SEEK_END);//tour2k

  0004d	8b 35 00 00 00
	00		 mov	 esi, DWORD PTR __imp__fseek
  00053	6a 02		 push	 2
  00055	6a 00		 push	 0
  00057	53		 push	 ebx
  00058	ff d6		 call	 esi

; 37   : 	long nbytes = ftell(stream);

  0005a	53		 push	 ebx
  0005b	ff 15 00 00 00
	00		 call	 DWORD PTR __imp__ftell

; 38   : 	fseek(stream, 0L, SEEK_SET);

  00061	6a 00		 push	 0
  00063	6a 00		 push	 0
  00065	53		 push	 ebx
  00066	8b f8		 mov	 edi, eax
  00068	ff d6		 call	 esi

; 39   : 
; 40   : 	char* buffer = new char[nbytes + 1];

  0006a	8d 77 01	 lea	 esi, DWORD PTR [edi+1]
  0006d	56		 push	 esi
  0006e	e8 00 00 00 00	 call	 ??_U@YAPAXI@Z		; operator new[]

; 41   : 	ZeroMemory(buffer, nbytes + 1);

  00073	56		 push	 esi
  00074	8b d8		 mov	 ebx, eax
  00076	6a 00		 push	 0
  00078	53		 push	 ebx
  00079	e8 00 00 00 00	 call	 _memset

; 42   : 	fread(buffer, sizeof(char), nbytes, stream);

  0007e	8b 75 f0	 mov	 esi, DWORD PTR _stream$1$[ebp]
  00081	56		 push	 esi
  00082	57		 push	 edi
  00083	6a 01		 push	 1
  00085	53		 push	 ebx
  00086	ff 15 00 00 00
	00		 call	 DWORD PTR __imp__fread
  0008c	83 c4 3c	 add	 esp, 60			; 0000003cH

; 43   : 	CString strData = buffer;

  0008f	8d 4d 0c	 lea	 ecx, DWORD PTR _strData$[ebp]
  00092	53		 push	 ebx
  00093	ff 15 00 00 00
	00		 call	 DWORD PTR __imp_??0?$CStringT@DV?$StrTraitMFC_DLL@DV?$ChTraitsCRT@D@ATL@@@@@ATL@@QAE@PBD@Z

; 44   : 
; 45   :     fclose(stream);

  00099	56		 push	 esi
  0009a	c7 45 fc 00 00
	00 00		 mov	 DWORD PTR __$EHRec$[ebp+8], 0
  000a1	ff 15 00 00 00
	00		 call	 DWORD PTR __imp__fclose

; 46   : 	delete [] buffer;

  000a7	53		 push	 ebx
  000a8	e8 00 00 00 00	 call	 ??_V@YAXPAX@Z		; operator delete[]

; 47   : 
; 48   : 	return strData;

  000ad	8b 4d 08	 mov	 ecx, DWORD PTR ___$ReturnUdt$[ebp]
  000b0	8d 45 0c	 lea	 eax, DWORD PTR _strData$[ebp]
  000b3	83 c4 08	 add	 esp, 8
  000b6	50		 push	 eax
  000b7	ff 15 00 00 00
	00		 call	 DWORD PTR __imp_??0?$CStringT@DV?$StrTraitMFC_DLL@DV?$ChTraitsCRT@D@ATL@@@@@ATL@@QAE@ABV01@@Z
  000bd	8d 4d 0c	 lea	 ecx, DWORD PTR _strData$[ebp]
  000c0	ff 15 00 00 00
	00		 call	 DWORD PTR __imp_??1?$CStringT@DV?$StrTraitMFC_DLL@DV?$ChTraitsCRT@D@ATL@@@@@ATL@@QAE@XZ
  000c6	eb 0e		 jmp	 SHORT $LN18@FileRead
$LN16@FileRead:

; 31   : 		return "";

  000c8	8b 4d 08	 mov	 ecx, DWORD PTR ___$ReturnUdt$[ebp]
  000cb	68 00 00 00 00	 push	 OFFSET ??_C@_00CNPNBAHC@@
  000d0	ff 15 00 00 00
	00		 call	 DWORD PTR __imp_??0?$CStringT@DV?$StrTraitMFC_DLL@DV?$ChTraitsCRT@D@ATL@@@@@ATL@@QAE@PBD@Z
$LN18@FileRead:

; 49   : }

  000d6	8b 45 08	 mov	 eax, DWORD PTR ___$ReturnUdt$[ebp]
  000d9	8b 4d f4	 mov	 ecx, DWORD PTR __$EHRec$[ebp]
  000dc	64 89 0d 00 00
	00 00		 mov	 DWORD PTR fs:0, ecx
  000e3	59		 pop	 ecx
  000e4	5f		 pop	 edi
  000e5	5e		 pop	 esi
  000e6	5b		 pop	 ebx
  000e7	8b e5		 mov	 esp, ebp
  000e9	5d		 pop	 ebp
  000ea	c2 08 00	 ret	 8
_TEXT	ENDS
;	COMDAT text$x
text$x	SEGMENT
__unwindfunclet$?FileRead@CFileBuilder@@QBE?AV?$CStringT@DV?$StrTraitMFC_DLL@DV?$ChTraitsCRT@D@ATL@@@@@ATL@@ABV23@@Z$1:
  00000	8d 4d 0c	 lea	 ecx, DWORD PTR _strData$[ebp]
  00003	ff 25 00 00 00
	00		 jmp	 DWORD PTR __imp_??1?$CStringT@DV?$StrTraitMFC_DLL@DV?$ChTraitsCRT@D@ATL@@@@@ATL@@QAE@XZ
  00009	cc		 int	 3
  0000a	cc		 int	 3
  0000b	cc		 int	 3
  0000c	cc		 int	 3
  0000d	cc		 int	 3
__ehhandler$?FileRead@CFileBuilder@@QBE?AV?$CStringT@DV?$StrTraitMFC_DLL@DV?$ChTraitsCRT@D@ATL@@@@@ATL@@ABV23@@Z:
  0000e	90		 npad	 1
  0000f	90		 npad	 1
  00010	8b 54 24 08	 mov	 edx, DWORD PTR [esp+8]
  00014	8d 42 0c	 lea	 eax, DWORD PTR [edx+12]
  00017	8b 4a ec	 mov	 ecx, DWORD PTR [edx-20]
  0001a	33 c8		 xor	 ecx, eax
  0001c	e8 00 00 00 00	 call	 @__security_check_cookie@4
  00021	b8 00 00 00 00	 mov	 eax, OFFSET __ehfuncinfo$?FileRead@CFileBuilder@@QBE?AV?$CStringT@DV?$StrTraitMFC_DLL@DV?$ChTraitsCRT@D@ATL@@@@@ATL@@ABV23@@Z
  00026	e9 00 00 00 00	 jmp	 ___CxxFrameHandler3
text$x	ENDS
?FileRead@CFileBuilder@@QBE?AV?$CStringT@DV?$StrTraitMFC_DLL@DV?$ChTraitsCRT@D@ATL@@@@@ATL@@ABV23@@Z ENDP ; CFileBuilder::FileRead
; Function compile flags: /Ogtp
; File D:\git\src\IBK\IBK_DRFN\ProjSrc\SrcChartEx\ChartOCX\KTBChart\FileBuilder.cpp
;	COMDAT ?__empty_global_delete@@YAXPAXI@Z
_TEXT	SEGMENT
___formal$ = 8						; size = 4
___formal$ = 12						; size = 4
?__empty_global_delete@@YAXPAXI@Z PROC			; __empty_global_delete, COMDAT

  00000	c2 00 00	 ret	 0
?__empty_global_delete@@YAXPAXI@Z ENDP			; __empty_global_delete
_TEXT	ENDS
; Function compile flags: /Ogtp
; File D:\git\src\IBK\IBK_DRFN\ProjSrc\SrcChartEx\ChartOCX\KTBChart\FileBuilder.cpp
;	COMDAT ?__empty_global_delete@@YAXPAX@Z
_TEXT	SEGMENT
___formal$ = 8						; size = 4
?__empty_global_delete@@YAXPAX@Z PROC			; __empty_global_delete, COMDAT

  00000	c2 00 00	 ret	 0
?__empty_global_delete@@YAXPAX@Z ENDP			; __empty_global_delete
_TEXT	ENDS
END
