; Listing generated by Microsoft (R) Optimizing Compiler Version 19.29.30145.0 

	TITLE	D:\git\src\IBK\IBK_DRFN\#DRfn-CS\_Obj\KTBChart\IndicatorDefaultData.obj
	.686P
	.XMM
	include listing.inc
	.model	flat

INCLUDELIB MSVCRT
INCLUDELIB OLDNAMES

CONST	SEGMENT
?_Fake_alloc@std@@3U_Fake_allocator@1@B	ORG $+1		; std::_Fake_alloc
CONST	ENDS
PUBLIC	?__empty_global_delete@@YAXPAX@Z		; __empty_global_delete
PUBLIC	?__empty_global_delete@@YAXPAXI@Z		; __empty_global_delete
PUBLIC	??0CIndicatorDefaultData@@QAE@PBVCKTBChartCtrl@@W4SCALEGRIDTYPE@CScaleBaseData@@W4VERTSCALEPOSITION@3@@Z ; CIndicatorDefaultData::CIndicatorDefaultData
PUBLIC	?SetVertScalePosition@CIndicatorDefaultData@@QAEXW4VERTSCALEPOSITION@CScaleBaseData@@@Z ; CIndicatorDefaultData::SetVertScalePosition
PUBLIC	?GetBlockDataForMaking@CIndicatorDefaultData@@QAEHAAV?$CStringT@DV?$StrTraitMFC_DLL@DV?$ChTraitsCRT@D@ATL@@@@@ATL@@PAVCIndicatorList@@ABV23@W4SCALEGRIDTYPE@CScaleBaseData@@30@Z ; CIndicatorDefaultData::GetBlockDataForMaking
PUBLIC	?GetVertScaleGroupDataForMaking@CIndicatorDefaultData@@QBEHAAV?$CStringT@DV?$StrTraitMFC_DLL@DV?$ChTraitsCRT@D@ATL@@@@@ATL@@PAVCIndicatorList@@ABV23@0@Z ; CIndicatorDefaultData::GetVertScaleGroupDataForMaking
PUBLIC	?GetVertScaleGroupDataForMaking@CIndicatorDefaultData@@ABEXAAV?$CStringT@DV?$StrTraitMFC_DLL@DV?$ChTraitsCRT@D@ATL@@@@@ATL@@PAVCIndicatorInfo@@@Z ; CIndicatorDefaultData::GetVertScaleGroupDataForMaking
PUBLIC	?GetHorizontalScaleData@CIndicatorDefaultData@@ABE?AV?$CStringT@DV?$StrTraitMFC_DLL@DV?$ChTraitsCRT@D@ATL@@@@@ATL@@ABV23@H@Z ; CIndicatorDefaultData::GetHorizontalScaleData
PUBLIC	?GetVerticalScaleData@CIndicatorDefaultData@@ABEXAAV?$CStringT@DV?$StrTraitMFC_DLL@DV?$ChTraitsCRT@D@ATL@@@@@ATL@@ABV23@@Z ; CIndicatorDefaultData::GetVerticalScaleData
PUBLIC	?GetHorizontalPacketName@CIndicatorDefaultData@@ABE?AV?$CStringT@DV?$StrTraitMFC_DLL@DV?$ChTraitsCRT@D@ATL@@@@@ATL@@ABV23@@Z ; CIndicatorDefaultData::GetHorizontalPacketName
PUBLIC	?GetHorizontalPosition@CIndicatorDefaultData@@ABE?AW4HORZSCALEPOSITION@CScaleBaseData@@ABV?$CStringT@DV?$StrTraitMFC_DLL@DV?$ChTraitsCRT@D@ATL@@@@@ATL@@H@Z ; CIndicatorDefaultData::GetHorizontalPosition
PUBLIC	?GetBlockMakingType@CIndicatorDefaultData@@ABE?AW4BLOCKMAKINGTYPE@1@HH@Z ; CIndicatorDefaultData::GetBlockMakingType
PUBLIC	??_C@_0BH@CLHAEGOH@BlockColumn?$DL?$AN?6Block?$DL?$AN?6@ ; `string'
PUBLIC	??_C@_0BN@FJPDGLHN@BlockEnd?$DL?$AN?6BlockColumnEnd?$DL?$AN?6@ ; `string'
PUBLIC	??_C@_0BC@DJOHDNOJ@VertScaleGroup?$DL?$AN?6@	; `string'
PUBLIC	??_C@_0BF@DDJNMPKE@VertScaleGroupEnd?$DL?$AN?6@	; `string'
PUBLIC	??_C@_0BF@IGNNPGPG@?$CFs?$DL?$CFd?$DL?$CFd?$DL?1?$DL?3?$DL?$LA?$KB?$LH?N?$DL?$AN?6@ ; `string'
PUBLIC	??_C@_04ENOBLEBN@0?$DL?$AN?6@			; `string'
EXTRN	__imp__itoa:PROC
EXTRN	__imp_?Empty@?$CSimpleStringT@D$00@ATL@@QAEXXZ:PROC
EXTRN	__imp_?GetBufferSetLength@?$CSimpleStringT@D$00@ATL@@QAEPADH@Z:PROC
EXTRN	__imp_??0?$CStringT@DV?$StrTraitMFC_DLL@DV?$ChTraitsCRT@D@ATL@@@@@ATL@@QAE@XZ:PROC
EXTRN	__imp_??0?$CStringT@DV?$StrTraitMFC_DLL@DV?$ChTraitsCRT@D@ATL@@@@@ATL@@QAE@PBD@Z:PROC
EXTRN	__imp_??1?$CStringT@DV?$StrTraitMFC_DLL@DV?$ChTraitsCRT@D@ATL@@@@@ATL@@QAE@XZ:PROC
EXTRN	__imp_??4?$CStringT@DV?$StrTraitMFC_DLL@DV?$ChTraitsCRT@D@ATL@@@@@ATL@@QAEAAV01@ABV01@@Z:PROC
EXTRN	__imp_?Compare@?$CStringT@DV?$StrTraitMFC_DLL@DV?$ChTraitsCRT@D@ATL@@@@@ATL@@QBEHPBD@Z:PROC
EXTRN	__imp_?Format@?$CStringT@DV?$StrTraitMFC_DLL@DV?$ChTraitsCRT@D@ATL@@@@@ATL@@QAAXPBDZZ:PROC
EXTRN	?IsSpecialGroupGraph@IMetaTable@@QAE_NPBD@Z:PROC ; IMetaTable::IsSpecialGroupGraph
EXTRN	__imp_?CreateGraphIndicatorInfo@CIndicatorList@@QAEPAVCIndicatorInfo@@PBD@Z:PROC
EXTRN	__imp_?GetIndicatorName@CIndicatorInfo@@QBE?AV?$CStringT@DV?$StrTraitMFC_DLL@DV?$ChTraitsCRT@D@ATL@@@@@ATL@@XZ:PROC
EXTRN	__imp_?GetGraphName@CIndicatorInfo@@QBE?AV?$CStringT@DV?$StrTraitMFC_DLL@DV?$ChTraitsCRT@D@ATL@@@@@ATL@@XZ:PROC
EXTRN	__imp_?GetGraphDataForMaking@CIndicatorInfo@@QBEXAAV?$CStringT@DV?$StrTraitMFC_DLL@DV?$ChTraitsCRT@D@ATL@@@@@ATL@@@Z:PROC
EXTRN	@__security_check_cookie@4:PROC
EXTRN	___CxxFrameHandler3:PROC
EXTRN	?g_iMetaTable@@3VIMetaTable@@A:BYTE		; g_iMetaTable
EXTRN	___security_cookie:DWORD
;	COMDAT ??_C@_04ENOBLEBN@0?$DL?$AN?6@
CONST	SEGMENT
??_C@_04ENOBLEBN@0?$DL?$AN?6@ DB '0;', 0dH, 0aH, 00H	; `string'
CONST	ENDS
;	COMDAT ??_C@_0BF@IGNNPGPG@?$CFs?$DL?$CFd?$DL?$CFd?$DL?1?$DL?3?$DL?$LA?$KB?$LH?N?$DL?$AN?6@
CONST	SEGMENT
??_C@_0BF@IGNNPGPG@?$CFs?$DL?$CFd?$DL?$CFd?$DL?1?$DL?3?$DL?$LA?$KB?$LH?N?$DL?$AN?6@ DB '%'
	DB	's;%d;%d;/;:;', 0b0H, 0a1H, 0b7H, 0ceH, ';', 0dH, 0aH, 00H ; `string'
CONST	ENDS
;	COMDAT ??_C@_0BF@DDJNMPKE@VertScaleGroupEnd?$DL?$AN?6@
CONST	SEGMENT
??_C@_0BF@DDJNMPKE@VertScaleGroupEnd?$DL?$AN?6@ DB 'VertScaleGroupEnd;', 0dH
	DB	0aH, 00H					; `string'
CONST	ENDS
;	COMDAT ??_C@_0BC@DJOHDNOJ@VertScaleGroup?$DL?$AN?6@
CONST	SEGMENT
??_C@_0BC@DJOHDNOJ@VertScaleGroup?$DL?$AN?6@ DB 'VertScaleGroup;', 0dH, 0aH
	DB	00H						; `string'
CONST	ENDS
;	COMDAT ??_C@_0BN@FJPDGLHN@BlockEnd?$DL?$AN?6BlockColumnEnd?$DL?$AN?6@
CONST	SEGMENT
??_C@_0BN@FJPDGLHN@BlockEnd?$DL?$AN?6BlockColumnEnd?$DL?$AN?6@ DB 'BlockE'
	DB	'nd;', 0dH, 0aH, 'BlockColumnEnd;', 0dH, 0aH, 00H ; `string'
CONST	ENDS
;	COMDAT ??_C@_0BH@CLHAEGOH@BlockColumn?$DL?$AN?6Block?$DL?$AN?6@
CONST	SEGMENT
??_C@_0BH@CLHAEGOH@BlockColumn?$DL?$AN?6Block?$DL?$AN?6@ DB 'BlockColumn;'
	DB	0dH, 0aH, 'Block;', 0dH, 0aH, 00H		; `string'
CONST	ENDS
;	COMDAT xdata$x
xdata$x	SEGMENT
__unwindtable$?GetHorizontalScaleData@CIndicatorDefaultData@@ABE?AV?$CStringT@DV?$StrTraitMFC_DLL@DV?$ChTraitsCRT@D@ATL@@@@@ATL@@ABV23@H@Z DD 0ffffffffH
	DD	FLAT:__unwindfunclet$?GetHorizontalScaleData@CIndicatorDefaultData@@ABE?AV?$CStringT@DV?$StrTraitMFC_DLL@DV?$ChTraitsCRT@D@ATL@@@@@ATL@@ABV23@H@Z$0
	DD	00H
	DD	FLAT:__unwindfunclet$?GetHorizontalScaleData@CIndicatorDefaultData@@ABE?AV?$CStringT@DV?$StrTraitMFC_DLL@DV?$ChTraitsCRT@D@ATL@@@@@ATL@@ABV23@H@Z$1
__ehfuncinfo$?GetHorizontalScaleData@CIndicatorDefaultData@@ABE?AV?$CStringT@DV?$StrTraitMFC_DLL@DV?$ChTraitsCRT@D@ATL@@@@@ATL@@ABV23@H@Z DD 019930522H
	DD	02H
	DD	FLAT:__unwindtable$?GetHorizontalScaleData@CIndicatorDefaultData@@ABE?AV?$CStringT@DV?$StrTraitMFC_DLL@DV?$ChTraitsCRT@D@ATL@@@@@ATL@@ABV23@H@Z
	DD	2 DUP(00H)
	DD	2 DUP(00H)
	DD	00H
	DD	01H
xdata$x	ENDS
;	COMDAT xdata$x
xdata$x	SEGMENT
__unwindtable$?GetVertScaleGroupDataForMaking@CIndicatorDefaultData@@ABEXAAV?$CStringT@DV?$StrTraitMFC_DLL@DV?$ChTraitsCRT@D@ATL@@@@@ATL@@PAVCIndicatorInfo@@@Z DD 0ffffffffH
	DD	FLAT:__unwindfunclet$?GetVertScaleGroupDataForMaking@CIndicatorDefaultData@@ABEXAAV?$CStringT@DV?$StrTraitMFC_DLL@DV?$ChTraitsCRT@D@ATL@@@@@ATL@@PAVCIndicatorInfo@@@Z$0
	DD	00H
	DD	FLAT:__unwindfunclet$?GetVertScaleGroupDataForMaking@CIndicatorDefaultData@@ABEXAAV?$CStringT@DV?$StrTraitMFC_DLL@DV?$ChTraitsCRT@D@ATL@@@@@ATL@@PAVCIndicatorInfo@@@Z$1
	DD	01H
	DD	FLAT:__unwindfunclet$?GetVertScaleGroupDataForMaking@CIndicatorDefaultData@@ABEXAAV?$CStringT@DV?$StrTraitMFC_DLL@DV?$ChTraitsCRT@D@ATL@@@@@ATL@@PAVCIndicatorInfo@@@Z$2
__ehfuncinfo$?GetVertScaleGroupDataForMaking@CIndicatorDefaultData@@ABEXAAV?$CStringT@DV?$StrTraitMFC_DLL@DV?$ChTraitsCRT@D@ATL@@@@@ATL@@PAVCIndicatorInfo@@@Z DD 019930522H
	DD	03H
	DD	FLAT:__unwindtable$?GetVertScaleGroupDataForMaking@CIndicatorDefaultData@@ABEXAAV?$CStringT@DV?$StrTraitMFC_DLL@DV?$ChTraitsCRT@D@ATL@@@@@ATL@@PAVCIndicatorInfo@@@Z
	DD	2 DUP(00H)
	DD	2 DUP(00H)
	DD	00H
	DD	01H
xdata$x	ENDS
;	COMDAT xdata$x
xdata$x	SEGMENT
__unwindtable$?GetVertScaleGroupDataForMaking@CIndicatorDefaultData@@QBEHAAV?$CStringT@DV?$StrTraitMFC_DLL@DV?$ChTraitsCRT@D@ATL@@@@@ATL@@PAVCIndicatorList@@ABV23@0@Z DD 0ffffffffH
	DD	FLAT:__unwindfunclet$?GetVertScaleGroupDataForMaking@CIndicatorDefaultData@@QBEHAAV?$CStringT@DV?$StrTraitMFC_DLL@DV?$ChTraitsCRT@D@ATL@@@@@ATL@@PAVCIndicatorList@@ABV23@0@Z$0
__ehfuncinfo$?GetVertScaleGroupDataForMaking@CIndicatorDefaultData@@QBEHAAV?$CStringT@DV?$StrTraitMFC_DLL@DV?$ChTraitsCRT@D@ATL@@@@@ATL@@PAVCIndicatorList@@ABV23@0@Z DD 019930522H
	DD	01H
	DD	FLAT:__unwindtable$?GetVertScaleGroupDataForMaking@CIndicatorDefaultData@@QBEHAAV?$CStringT@DV?$StrTraitMFC_DLL@DV?$ChTraitsCRT@D@ATL@@@@@ATL@@PAVCIndicatorList@@ABV23@0@Z
	DD	2 DUP(00H)
	DD	2 DUP(00H)
	DD	00H
	DD	01H
xdata$x	ENDS
;	COMDAT xdata$x
xdata$x	SEGMENT
__unwindtable$?GetBlockDataForMaking@CIndicatorDefaultData@@QAEHAAV?$CStringT@DV?$StrTraitMFC_DLL@DV?$ChTraitsCRT@D@ATL@@@@@ATL@@PAVCIndicatorList@@ABV23@W4SCALEGRIDTYPE@CScaleBaseData@@30@Z DD 0ffffffffH
	DD	FLAT:__unwindfunclet$?GetBlockDataForMaking@CIndicatorDefaultData@@QAEHAAV?$CStringT@DV?$StrTraitMFC_DLL@DV?$ChTraitsCRT@D@ATL@@@@@ATL@@PAVCIndicatorList@@ABV23@W4SCALEGRIDTYPE@CScaleBaseData@@30@Z$0
	DD	00H
	DD	FLAT:__unwindfunclet$?GetBlockDataForMaking@CIndicatorDefaultData@@QAEHAAV?$CStringT@DV?$StrTraitMFC_DLL@DV?$ChTraitsCRT@D@ATL@@@@@ATL@@PAVCIndicatorList@@ABV23@W4SCALEGRIDTYPE@CScaleBaseData@@30@Z$2
	DD	00H
	DD	FLAT:__unwindfunclet$?GetBlockDataForMaking@CIndicatorDefaultData@@QAEHAAV?$CStringT@DV?$StrTraitMFC_DLL@DV?$ChTraitsCRT@D@ATL@@@@@ATL@@PAVCIndicatorList@@ABV23@W4SCALEGRIDTYPE@CScaleBaseData@@30@Z$1
__ehfuncinfo$?GetBlockDataForMaking@CIndicatorDefaultData@@QAEHAAV?$CStringT@DV?$StrTraitMFC_DLL@DV?$ChTraitsCRT@D@ATL@@@@@ATL@@PAVCIndicatorList@@ABV23@W4SCALEGRIDTYPE@CScaleBaseData@@30@Z DD 019930522H
	DD	03H
	DD	FLAT:__unwindtable$?GetBlockDataForMaking@CIndicatorDefaultData@@QAEHAAV?$CStringT@DV?$StrTraitMFC_DLL@DV?$ChTraitsCRT@D@ATL@@@@@ATL@@PAVCIndicatorList@@ABV23@W4SCALEGRIDTYPE@CScaleBaseData@@30@Z
	DD	2 DUP(00H)
	DD	2 DUP(00H)
	DD	00H
	DD	01H
xdata$x	ENDS
; Function compile flags: /Ogtp
; File D:\git\src\IBK\IBK_DRFN\ProjSrc\SrcChartEx\ChartOCX\KTBChart\IndicatorDefaultData.cpp
;	COMDAT ?GetBlockMakingType@CIndicatorDefaultData@@ABE?AW4BLOCKMAKINGTYPE@1@HH@Z
_TEXT	SEGMENT
_nCount$ = 8						; size = 4
_nIndex$ = 12						; size = 4
?GetBlockMakingType@CIndicatorDefaultData@@ABE?AW4BLOCKMAKINGTYPE@1@HH@Z PROC ; CIndicatorDefaultData::GetBlockMakingType, COMDAT
; _this$ = ecx

; 250  : {

  00000	55		 push	 ebp
  00001	8b ec		 mov	 ebp, esp

; 251  : 	if(nCount <= 0)

  00003	8b 4d 08	 mov	 ecx, DWORD PTR _nCount$[ebp]
  00006	85 c9		 test	 ecx, ecx
  00008	7f 06		 jg	 SHORT $LN2@GetBlockMa

; 252  : 		return NONE;

  0000a	33 c0		 xor	 eax, eax

; 259  : 		return END_TWO_BLOCK;
; 260  : 
; 261  : 	return MIDDEL_THREE_BLOCK; // block 3개 이상 중 가운데인 경우
; 262  : }

  0000c	5d		 pop	 ebp
  0000d	c2 08 00	 ret	 8
$LN2@GetBlockMa:

; 253  : 	else if(nCount == 1) // block 1개인 경우

  00010	83 f9 01	 cmp	 ecx, 1
  00013	75 06		 jne	 SHORT $LN4@GetBlockMa

; 254  : 		return ONE_BLOCK;

  00015	8b c1		 mov	 eax, ecx

; 259  : 		return END_TWO_BLOCK;
; 260  : 
; 261  : 	return MIDDEL_THREE_BLOCK; // block 3개 이상 중 가운데인 경우
; 262  : }

  00017	5d		 pop	 ebp
  00018	c2 08 00	 ret	 8
$LN4@GetBlockMa:

; 255  : 
; 256  : 	if(nIndex == 0) // block 2개 이상 중 처음인 경우

  0001b	8b 55 0c	 mov	 edx, DWORD PTR _nIndex$[ebp]
  0001e	85 d2		 test	 edx, edx
  00020	75 09		 jne	 SHORT $LN5@GetBlockMa

; 257  : 		return START_TWO_BLOCK;

  00022	b8 02 00 00 00	 mov	 eax, 2

; 259  : 		return END_TWO_BLOCK;
; 260  : 
; 261  : 	return MIDDEL_THREE_BLOCK; // block 3개 이상 중 가운데인 경우
; 262  : }

  00027	5d		 pop	 ebp
  00028	c2 08 00	 ret	 8
$LN5@GetBlockMa:

; 258  : 	else if(nIndex == nCount - 1) // block 2개 이상 중 끝인 경우

  0002b	49		 dec	 ecx
  0002c	33 c0		 xor	 eax, eax
  0002e	3b d1		 cmp	 edx, ecx
  00030	0f 94 c0	 sete	 al
  00033	83 c0 03	 add	 eax, 3

; 259  : 		return END_TWO_BLOCK;
; 260  : 
; 261  : 	return MIDDEL_THREE_BLOCK; // block 3개 이상 중 가운데인 경우
; 262  : }

  00036	5d		 pop	 ebp
  00037	c2 08 00	 ret	 8
?GetBlockMakingType@CIndicatorDefaultData@@ABE?AW4BLOCKMAKINGTYPE@1@HH@Z ENDP ; CIndicatorDefaultData::GetBlockMakingType
_TEXT	ENDS
; Function compile flags: /Ogtp
; File D:\git\src\IBK\IBK_DRFN\ProjSrc\SrcChartEx\ChartOCX\KTBChart\IndicatorDefaultData.cpp
;	COMDAT ?GetHorizontalPosition@CIndicatorDefaultData@@ABE?AW4HORZSCALEPOSITION@CScaleBaseData@@ABV?$CStringT@DV?$StrTraitMFC_DLL@DV?$ChTraitsCRT@D@ATL@@@@@ATL@@H@Z
_TEXT	SEGMENT
_strGraphName$ = 8					; size = 4
_bIsEndBlock$ = 12					; size = 4
?GetHorizontalPosition@CIndicatorDefaultData@@ABE?AW4HORZSCALEPOSITION@CScaleBaseData@@ABV?$CStringT@DV?$StrTraitMFC_DLL@DV?$ChTraitsCRT@D@ATL@@@@@ATL@@H@Z PROC ; CIndicatorDefaultData::GetHorizontalPosition, COMDAT
; _this$ = ecx

; 240  : {

  00000	55		 push	 ebp
  00001	8b ec		 mov	 ebp, esp

; 241  : 	// Block 하나 / 끝 -> 하단(점선 및 text 나옴)
; 242  : 	if(bIsEndBlock)

  00003	33 c0		 xor	 eax, eax
  00005	39 45 0c	 cmp	 DWORD PTR _bIsEndBlock$[ebp], eax
  00008	0f 94 c0	 sete	 al
  0000b	8d 04 45 01 00
	00 00		 lea	 eax, DWORD PTR [eax*2+1]

; 243  : 		return CScaleBaseData::HORZ_BOTTOM;
; 244  : 
; 245  : 	// Block 두개 이상 시 처음/중간 -> 숨김(점선만 나옴)
; 246  : 	return CScaleBaseData::HORZ_HIDE;
; 247  : }

  00012	5d		 pop	 ebp
  00013	c2 08 00	 ret	 8
?GetHorizontalPosition@CIndicatorDefaultData@@ABE?AW4HORZSCALEPOSITION@CScaleBaseData@@ABV?$CStringT@DV?$StrTraitMFC_DLL@DV?$ChTraitsCRT@D@ATL@@@@@ATL@@H@Z ENDP ; CIndicatorDefaultData::GetHorizontalPosition
_TEXT	ENDS
; Function compile flags: /Ogtp
; File D:\git\src\IBK\IBK_DRFN\ProjSrc\SrcChartEx\ChartOCX\KTBChart\IndicatorDefaultData.cpp
; File C:\Program Files (x86)\Microsoft Visual Studio\2019\Community\VC\Tools\MSVC\14.29.30133\atlmfc\include\cstringt.h
; File D:\git\src\IBK\IBK_DRFN\ProjSrc\SrcChartEx\ChartOCX\KTBChart\IndicatorDefaultData.cpp
; File C:\Program Files (x86)\Microsoft Visual Studio\2019\Community\VC\Tools\MSVC\14.29.30133\atlmfc\include\cstringt.h
; File D:\git\src\IBK\IBK_DRFN\ProjSrc\SrcChartEx\ChartOCX\KTBChart\IndicatorDefaultData.cpp
; File C:\Program Files (x86)\Microsoft Visual Studio\2019\Community\VC\Tools\MSVC\14.29.30133\atlmfc\include\cstringt.h
; File D:\git\src\IBK\IBK_DRFN\ProjSrc\SrcChartEx\ChartOCX\KTBChart\IndicatorDefaultData.cpp
; File C:\Program Files (x86)\Microsoft Visual Studio\2019\Community\VC\Tools\MSVC\14.29.30133\atlmfc\include\cstringt.h
; File D:\git\src\IBK\IBK_DRFN\ProjSrc\SrcChartEx\ChartOCX\KTBChart\IndicatorDefaultData.cpp
; File C:\Program Files (x86)\Microsoft Visual Studio\2019\Community\VC\Tools\MSVC\14.29.30133\atlmfc\include\cstringt.h
; File D:\git\src\IBK\IBK_DRFN\ProjSrc\SrcChartEx\ChartOCX\KTBChart\IndicatorDefaultData.cpp
; File C:\Program Files (x86)\Microsoft Visual Studio\2019\Community\VC\Tools\MSVC\14.29.30133\atlmfc\include\cstringt.h
; File D:\git\src\IBK\IBK_DRFN\ProjSrc\SrcChartEx\ChartOCX\KTBChart\IndicatorDefaultData.cpp
; File C:\Program Files (x86)\Microsoft Visual Studio\2019\Community\VC\Tools\MSVC\14.29.30133\atlmfc\include\cstringt.h
; File D:\git\src\IBK\IBK_DRFN\ProjSrc\SrcChartEx\ChartOCX\KTBChart\IndicatorDefaultData.cpp
;	COMDAT ?GetHorizontalPacketName@CIndicatorDefaultData@@ABE?AV?$CStringT@DV?$StrTraitMFC_DLL@DV?$ChTraitsCRT@D@ATL@@@@@ATL@@ABV23@@Z
_TEXT	SEGMENT
___$ReturnUdt$ = 8					; size = 4
_strGraphName$ = 12					; size = 4
?GetHorizontalPacketName@CIndicatorDefaultData@@ABE?AV?$CStringT@DV?$StrTraitMFC_DLL@DV?$ChTraitsCRT@D@ATL@@@@@ATL@@ABV23@@Z PROC ; CIndicatorDefaultData::GetHorizontalPacketName, COMDAT
; _this$ = ecx

; 216  : {

  00000	55		 push	 ebp
  00001	8b ec		 mov	 ebp, esp

; 217  : 	if(strGraphName == _MTEXT( C2_THREE_LINE_BREAK))	// "삼선전환도"

  00003	a1 54 00 00 00	 mov	 eax, DWORD PTR ?g_iMetaTable@@3VIMetaTable@@A+84
  00008	56		 push	 esi
; File C:\Program Files (x86)\Microsoft Visual Studio\2019\Community\VC\Tools\MSVC\14.29.30133\atlmfc\include\cstringt.h

; 2486 : 		return(str1.Compare(psz2) == 0);

  00009	8b 75 0c	 mov	 esi, DWORD PTR _strGraphName$[ebp]
  0000c	8b ce		 mov	 ecx, esi
  0000e	ff b0 88 04 00
	00		 push	 DWORD PTR [eax+1160]
  00014	ff 15 00 00 00
	00		 call	 DWORD PTR __imp_?Compare@?$CStringT@DV?$StrTraitMFC_DLL@DV?$ChTraitsCRT@D@ATL@@@@@ATL@@QBEHPBD@Z
  0001a	85 c0		 test	 eax, eax
; File D:\git\src\IBK\IBK_DRFN\ProjSrc\SrcChartEx\ChartOCX\KTBChart\IndicatorDefaultData.cpp

; 217  : 	if(strGraphName == _MTEXT( C2_THREE_LINE_BREAK))	// "삼선전환도"

  0001c	a1 54 00 00 00	 mov	 eax, DWORD PTR ?g_iMetaTable@@3VIMetaTable@@A+84
  00021	75 17		 jne	 SHORT $LN2@GetHorizon

; 218  : 		return _MTEXT( C0_THREE_LINE_BREAK_DATE_TIME);

  00023	ff b0 98 00 00
	00		 push	 DWORD PTR [eax+152]

; 236  : }

  00029	8b 4d 08	 mov	 ecx, DWORD PTR ___$ReturnUdt$[ebp]
  0002c	ff 15 00 00 00
	00		 call	 DWORD PTR __imp_??0?$CStringT@DV?$StrTraitMFC_DLL@DV?$ChTraitsCRT@D@ATL@@@@@ATL@@QAE@PBD@Z
  00032	8b 45 08	 mov	 eax, DWORD PTR ___$ReturnUdt$[ebp]
  00035	5e		 pop	 esi
  00036	5d		 pop	 ebp
  00037	c2 08 00	 ret	 8
$LN2@GetHorizon:
; File C:\Program Files (x86)\Microsoft Visual Studio\2019\Community\VC\Tools\MSVC\14.29.30133\atlmfc\include\cstringt.h

; 2486 : 		return(str1.Compare(psz2) == 0);

  0003a	ff b0 8c 04 00
	00		 push	 DWORD PTR [eax+1164]
  00040	8b ce		 mov	 ecx, esi
  00042	ff 15 00 00 00
	00		 call	 DWORD PTR __imp_?Compare@?$CStringT@DV?$StrTraitMFC_DLL@DV?$ChTraitsCRT@D@ATL@@@@@ATL@@QBEHPBD@Z
  00048	85 c0		 test	 eax, eax
; File D:\git\src\IBK\IBK_DRFN\ProjSrc\SrcChartEx\ChartOCX\KTBChart\IndicatorDefaultData.cpp

; 219  : 	else if(strGraphName == _MTEXT( C2_INVERSE_TIME_LINE))		// "역시계곡선"

  0004a	a1 54 00 00 00	 mov	 eax, DWORD PTR ?g_iMetaTable@@3VIMetaTable@@A+84
  0004f	75 14		 jne	 SHORT $LN4@GetHorizon

; 220  : 		return _MTEXT( C0_INVERSETIMELINE_VOLUME);

  00051	ff 70 60	 push	 DWORD PTR [eax+96]

; 236  : }

  00054	8b 4d 08	 mov	 ecx, DWORD PTR ___$ReturnUdt$[ebp]
  00057	ff 15 00 00 00
	00		 call	 DWORD PTR __imp_??0?$CStringT@DV?$StrTraitMFC_DLL@DV?$ChTraitsCRT@D@ATL@@@@@ATL@@QAE@PBD@Z
  0005d	8b 45 08	 mov	 eax, DWORD PTR ___$ReturnUdt$[ebp]
  00060	5e		 pop	 esi
  00061	5d		 pop	 ebp
  00062	c2 08 00	 ret	 8
$LN4@GetHorizon:
; File C:\Program Files (x86)\Microsoft Visual Studio\2019\Community\VC\Tools\MSVC\14.29.30133\atlmfc\include\cstringt.h

; 2486 : 		return(str1.Compare(psz2) == 0);

  00065	ff b0 90 04 00
	00		 push	 DWORD PTR [eax+1168]
  0006b	8b ce		 mov	 ecx, esi
  0006d	ff 15 00 00 00
	00		 call	 DWORD PTR __imp_?Compare@?$CStringT@DV?$StrTraitMFC_DLL@DV?$ChTraitsCRT@D@ATL@@@@@ATL@@QBEHPBD@Z
  00073	85 c0		 test	 eax, eax
; File D:\git\src\IBK\IBK_DRFN\ProjSrc\SrcChartEx\ChartOCX\KTBChart\IndicatorDefaultData.cpp

; 222  : 	else if(strGraphName == _MTEXT( C2_P_AND_F))	// "P&F"

  00075	a1 54 00 00 00	 mov	 eax, DWORD PTR ?g_iMetaTable@@3VIMetaTable@@A+84
  0007a	75 17		 jne	 SHORT $LN6@GetHorizon

; 223  : 		return _MTEXT( C0_PF_DATE_TIME);

  0007c	ff b0 80 00 00
	00		 push	 DWORD PTR [eax+128]

; 236  : }

  00082	8b 4d 08	 mov	 ecx, DWORD PTR ___$ReturnUdt$[ebp]
  00085	ff 15 00 00 00
	00		 call	 DWORD PTR __imp_??0?$CStringT@DV?$StrTraitMFC_DLL@DV?$ChTraitsCRT@D@ATL@@@@@ATL@@QAE@PBD@Z
  0008b	8b 45 08	 mov	 eax, DWORD PTR ___$ReturnUdt$[ebp]
  0008e	5e		 pop	 esi
  0008f	5d		 pop	 ebp
  00090	c2 08 00	 ret	 8
$LN6@GetHorizon:
; File C:\Program Files (x86)\Microsoft Visual Studio\2019\Community\VC\Tools\MSVC\14.29.30133\atlmfc\include\cstringt.h

; 2486 : 		return(str1.Compare(psz2) == 0);

  00093	ff b0 94 04 00
	00		 push	 DWORD PTR [eax+1172]
  00099	8b ce		 mov	 ecx, esi
  0009b	ff 15 00 00 00
	00		 call	 DWORD PTR __imp_?Compare@?$CStringT@DV?$StrTraitMFC_DLL@DV?$ChTraitsCRT@D@ATL@@@@@ATL@@QBEHPBD@Z
  000a1	85 c0		 test	 eax, eax
; File D:\git\src\IBK\IBK_DRFN\ProjSrc\SrcChartEx\ChartOCX\KTBChart\IndicatorDefaultData.cpp

; 224  : 	else if(strGraphName == _MTEXT( C2_SWING_CHART))	// "SwingChart"

  000a3	a1 54 00 00 00	 mov	 eax, DWORD PTR ?g_iMetaTable@@3VIMetaTable@@A+84
  000a8	75 14		 jne	 SHORT $LN8@GetHorizon

; 225  : 		return _MTEXT( C0_SWING_CHART_DATE_TIME);

  000aa	ff 70 6c	 push	 DWORD PTR [eax+108]

; 236  : }

  000ad	8b 4d 08	 mov	 ecx, DWORD PTR ___$ReturnUdt$[ebp]
  000b0	ff 15 00 00 00
	00		 call	 DWORD PTR __imp_??0?$CStringT@DV?$StrTraitMFC_DLL@DV?$ChTraitsCRT@D@ATL@@@@@ATL@@QAE@PBD@Z
  000b6	8b 45 08	 mov	 eax, DWORD PTR ___$ReturnUdt$[ebp]
  000b9	5e		 pop	 esi
  000ba	5d		 pop	 ebp
  000bb	c2 08 00	 ret	 8
$LN8@GetHorizon:
; File C:\Program Files (x86)\Microsoft Visual Studio\2019\Community\VC\Tools\MSVC\14.29.30133\atlmfc\include\cstringt.h

; 2486 : 		return(str1.Compare(psz2) == 0);

  000be	ff b0 98 04 00
	00		 push	 DWORD PTR [eax+1176]
  000c4	8b ce		 mov	 ecx, esi
  000c6	ff 15 00 00 00
	00		 call	 DWORD PTR __imp_?Compare@?$CStringT@DV?$StrTraitMFC_DLL@DV?$ChTraitsCRT@D@ATL@@@@@ATL@@QBEHPBD@Z
  000cc	85 c0		 test	 eax, eax
; File D:\git\src\IBK\IBK_DRFN\ProjSrc\SrcChartEx\ChartOCX\KTBChart\IndicatorDefaultData.cpp

; 226  : 	else if(strGraphName == _MTEXT( C2_KAGI_CHART))		// "KagiChart"

  000ce	a1 54 00 00 00	 mov	 eax, DWORD PTR ?g_iMetaTable@@3VIMetaTable@@A+84
  000d3	75 14		 jne	 SHORT $LN10@GetHorizon

; 227  : 		return _MTEXT( C0_KAGI_DATE_TIME);

  000d5	ff 70 70	 push	 DWORD PTR [eax+112]

; 236  : }

  000d8	8b 4d 08	 mov	 ecx, DWORD PTR ___$ReturnUdt$[ebp]
  000db	ff 15 00 00 00
	00		 call	 DWORD PTR __imp_??0?$CStringT@DV?$StrTraitMFC_DLL@DV?$ChTraitsCRT@D@ATL@@@@@ATL@@QAE@PBD@Z
  000e1	8b 45 08	 mov	 eax, DWORD PTR ___$ReturnUdt$[ebp]
  000e4	5e		 pop	 esi
  000e5	5d		 pop	 ebp
  000e6	c2 08 00	 ret	 8
$LN10@GetHorizon:
; File C:\Program Files (x86)\Microsoft Visual Studio\2019\Community\VC\Tools\MSVC\14.29.30133\atlmfc\include\cstringt.h

; 2486 : 		return(str1.Compare(psz2) == 0);

  000e9	ff b0 9c 04 00
	00		 push	 DWORD PTR [eax+1180]
  000ef	8b ce		 mov	 ecx, esi
  000f1	ff 15 00 00 00
	00		 call	 DWORD PTR __imp_?Compare@?$CStringT@DV?$StrTraitMFC_DLL@DV?$ChTraitsCRT@D@ATL@@@@@ATL@@QBEHPBD@Z
  000f7	85 c0		 test	 eax, eax
; File D:\git\src\IBK\IBK_DRFN\ProjSrc\SrcChartEx\ChartOCX\KTBChart\IndicatorDefaultData.cpp

; 228  : 	else if(strGraphName == _MTEXT( C2_RENKO_CHART))	// "RenKoChart"

  000f9	a1 54 00 00 00	 mov	 eax, DWORD PTR ?g_iMetaTable@@3VIMetaTable@@A+84
  000fe	75 17		 jne	 SHORT $LN12@GetHorizon

; 229  : 		return _MTEXT( C0_RENKO_CHART_DATETIME);

  00100	ff b0 8c 00 00
	00		 push	 DWORD PTR [eax+140]

; 236  : }

  00106	8b 4d 08	 mov	 ecx, DWORD PTR ___$ReturnUdt$[ebp]
  00109	ff 15 00 00 00
	00		 call	 DWORD PTR __imp_??0?$CStringT@DV?$StrTraitMFC_DLL@DV?$ChTraitsCRT@D@ATL@@@@@ATL@@QAE@PBD@Z
  0010f	8b 45 08	 mov	 eax, DWORD PTR ___$ReturnUdt$[ebp]
  00112	5e		 pop	 esi
  00113	5d		 pop	 ebp
  00114	c2 08 00	 ret	 8
$LN12@GetHorizon:
; File C:\Program Files (x86)\Microsoft Visual Studio\2019\Community\VC\Tools\MSVC\14.29.30133\atlmfc\include\cstringt.h

; 2486 : 		return(str1.Compare(psz2) == 0);

  00117	ff b0 90 0c 00
	00		 push	 DWORD PTR [eax+3216]
  0011d	8b ce		 mov	 ecx, esi
  0011f	ff 15 00 00 00
	00		 call	 DWORD PTR __imp_?Compare@?$CStringT@DV?$StrTraitMFC_DLL@DV?$ChTraitsCRT@D@ATL@@@@@ATL@@QBEHPBD@Z
  00125	85 c0		 test	 eax, eax
; File D:\git\src\IBK\IBK_DRFN\ProjSrc\SrcChartEx\ChartOCX\KTBChart\IndicatorDefaultData.cpp

; 231  : 	else if(strGraphName == _MTEXT( C2_DISPERSION))	// "분산Chart"

  00127	a1 54 00 00 00	 mov	 eax, DWORD PTR ?g_iMetaTable@@3VIMetaTable@@A+84
  0012c	75 14		 jne	 SHORT $LN14@GetHorizon

; 232  : 		return _MTEXT( C0_VOLUME);

  0012e	ff 70 1c	 push	 DWORD PTR [eax+28]

; 236  : }

  00131	8b 4d 08	 mov	 ecx, DWORD PTR ___$ReturnUdt$[ebp]
  00134	ff 15 00 00 00
	00		 call	 DWORD PTR __imp_??0?$CStringT@DV?$StrTraitMFC_DLL@DV?$ChTraitsCRT@D@ATL@@@@@ATL@@QAE@PBD@Z
  0013a	8b 45 08	 mov	 eax, DWORD PTR ___$ReturnUdt$[ebp]
  0013d	5e		 pop	 esi
  0013e	5d		 pop	 ebp
  0013f	c2 08 00	 ret	 8
$LN14@GetHorizon:

; 233  : // (2006.11.09 안승환) 분산차트 추가
; 234  : 
; 235  : 	return _MTEXT( C0_DATE_TIME);

  00142	ff 30		 push	 DWORD PTR [eax]

; 236  : }

  00144	8b 4d 08	 mov	 ecx, DWORD PTR ___$ReturnUdt$[ebp]
  00147	ff 15 00 00 00
	00		 call	 DWORD PTR __imp_??0?$CStringT@DV?$StrTraitMFC_DLL@DV?$ChTraitsCRT@D@ATL@@@@@ATL@@QAE@PBD@Z
  0014d	8b 45 08	 mov	 eax, DWORD PTR ___$ReturnUdt$[ebp]
  00150	5e		 pop	 esi
  00151	5d		 pop	 ebp
  00152	c2 08 00	 ret	 8
?GetHorizontalPacketName@CIndicatorDefaultData@@ABE?AV?$CStringT@DV?$StrTraitMFC_DLL@DV?$ChTraitsCRT@D@ATL@@@@@ATL@@ABV23@@Z ENDP ; CIndicatorDefaultData::GetHorizontalPacketName
_TEXT	ENDS
; Function compile flags: /Ogtp
; File D:\git\src\IBK\IBK_DRFN\ProjSrc\SrcChartEx\ChartOCX\KTBChart\IndicatorDefaultData.cpp
;	COMDAT ?GetVerticalScaleData@CIndicatorDefaultData@@ABEXAAV?$CStringT@DV?$StrTraitMFC_DLL@DV?$ChTraitsCRT@D@ATL@@@@@ATL@@ABV23@@Z
_TEXT	SEGMENT
_p_strVerticalScaleData$GSCopy$1$ = -52			; size = 4
_this$GSCopy$1$ = -48					; size = 4
_nBaseGridTypeLen$1$ = -48				; size = 4
_szBaseGridType$ = -44					; size = 20
_szVertScalePosition$ = -24				; size = 20
__$ArrayPad$ = -4					; size = 4
_p_strVerticalScaleData$ = 8				; size = 4
_strGraphName$ = 12					; size = 4
?GetVerticalScaleData@CIndicatorDefaultData@@ABEXAAV?$CStringT@DV?$StrTraitMFC_DLL@DV?$ChTraitsCRT@D@ATL@@@@@ATL@@ABV23@@Z PROC ; CIndicatorDefaultData::GetVerticalScaleData, COMDAT
; _this$ = ecx

; 169  : {

  00000	55		 push	 ebp
  00001	8b ec		 mov	 ebp, esp
  00003	83 ec 34	 sub	 esp, 52			; 00000034H
  00006	a1 00 00 00 00	 mov	 eax, DWORD PTR ___security_cookie
  0000b	33 c5		 xor	 eax, ebp
  0000d	89 45 fc	 mov	 DWORD PTR __$ArrayPad$[ebp], eax
  00010	8b 45 08	 mov	 eax, DWORD PTR _p_strVerticalScaleData$[ebp]
  00013	56		 push	 esi

; 170  : 	//sy 2004.05.12. -> graph 에 따른 세로 스케일 위치 변경.
; 171  : 	// (2004.09.16, 배승원, 분석) Main Block의 현재 Scale 설정을 따라가도록 한다.
; 172  : 	CScaleBaseData::VERTSCALEPOSITION eVertScalePosition = m_eVertScalePosition;

  00014	8b 71 04	 mov	 esi, DWORD PTR [ecx+4]
  00017	89 45 cc	 mov	 DWORD PTR _p_strVerticalScaleData$GSCopy$1$[ebp], eax
  0001a	8b 45 0c	 mov	 eax, DWORD PTR _strGraphName$[ebp]
  0001d	57		 push	 edi
  0001e	89 4d d0	 mov	 DWORD PTR _this$GSCopy$1$[ebp], ecx

; 173  : 
; 174  : 	// (2006/4/16 - Seung-Won, Bae) Special Chart has scale in Both Side.
; 175  : 	if( g_iMetaTable.IsSpecialGroupGraph( strGraphName)) eVertScalePosition = CScaleBaseData::VERT_BOTH;

  00021	b9 00 00 00 00	 mov	 ecx, OFFSET ?g_iMetaTable@@3VIMetaTable@@A ; g_iMetaTable
  00026	ff 30		 push	 DWORD PTR [eax]
  00028	e8 00 00 00 00	 call	 ?IsSpecialGroupGraph@IMetaTable@@QAE_NPBD@Z ; IMetaTable::IsSpecialGroupGraph
  0002d	84 c0		 test	 al, al
  0002f	b9 02 00 00 00	 mov	 ecx, 2

; 176  : 
; 177  : 	int nIndiDataLen = strlen( _MTEXT( C6_INDICATOR_DATA));

  00034	a1 54 00 00 00	 mov	 eax, DWORD PTR ?g_iMetaTable@@3VIMetaTable@@A+84
  00039	0f 45 f1	 cmovne	 esi, ecx
  0003c	8b b8 7c 09 00
	00		 mov	 edi, DWORD PTR [eax+2428]
  00042	8d 4f 01	 lea	 ecx, DWORD PTR [edi+1]
$LL18@GetVertica:
  00045	8a 07		 mov	 al, BYTE PTR [edi]
  00047	47		 inc	 edi
  00048	84 c0		 test	 al, al
  0004a	75 f9		 jne	 SHORT $LL18@GetVertica
  0004c	53		 push	 ebx

; 178  : 
; 179  : 	char szVertScalePosition[ 20];
; 180  : 	itoa( eVertScalePosition, szVertScalePosition, 10);

  0004d	6a 0a		 push	 10			; 0000000aH
  0004f	8d 45 e8	 lea	 eax, DWORD PTR _szVertScalePosition$[ebp]
  00052	2b f9		 sub	 edi, ecx
  00054	50		 push	 eax
  00055	56		 push	 esi
  00056	8b 35 00 00 00
	00		 mov	 esi, DWORD PTR __imp__itoa
  0005c	ff d6		 call	 esi

; 181  : 	int nVertScalePositionLen = strlen( szVertScalePosition);

  0005e	8d 5d e8	 lea	 ebx, DWORD PTR _szVertScalePosition$[ebp]
  00061	83 c4 0c	 add	 esp, 12			; 0000000cH
  00064	8d 4b 01	 lea	 ecx, DWORD PTR [ebx+1]
$LL19@GetVertica:
  00067	8a 03		 mov	 al, BYTE PTR [ebx]
  00069	43		 inc	 ebx
  0006a	84 c0		 test	 al, al
  0006c	75 f9		 jne	 SHORT $LL19@GetVertica

; 182  : 
; 183  : 	char szBaseGridType[ 20];
; 184  : 	itoa( m_eBaseGridType, szBaseGridType, 10);

  0006e	6a 0a		 push	 10			; 0000000aH
  00070	8d 45 d4	 lea	 eax, DWORD PTR _szBaseGridType$[ebp]
  00073	2b d9		 sub	 ebx, ecx
  00075	50		 push	 eax
  00076	8b 45 d0	 mov	 eax, DWORD PTR _this$GSCopy$1$[ebp]
  00079	ff 30		 push	 DWORD PTR [eax]
  0007b	ff d6		 call	 esi

; 185  : 	int nBaseGridTypeLen = strlen( szBaseGridType);

  0007d	8d 75 d4	 lea	 esi, DWORD PTR _szBaseGridType$[ebp]
  00080	83 c4 0c	 add	 esp, 12			; 0000000cH
  00083	8d 56 01	 lea	 edx, DWORD PTR [esi+1]
$LL20@GetVertica:
  00086	8a 06		 mov	 al, BYTE PTR [esi]
  00088	46		 inc	 esi
  00089	84 c0		 test	 al, al
  0008b	75 f9		 jne	 SHORT $LL20@GetVertica

; 186  : 
; 187  : 	int nVerticalScaleDataLen = 0;
; 188  : 	nVerticalScaleDataLen += nIndiDataLen;
; 189  : 	nVerticalScaleDataLen++;						// ;
; 190  : 	nVerticalScaleDataLen += nVertScalePositionLen;	
; 191  : 	nVerticalScaleDataLen++;						// ;
; 192  : 	nVerticalScaleDataLen += nBaseGridTypeLen;	
; 193  : 	nVerticalScaleDataLen++;						// ;
; 194  : 	nVerticalScaleDataLen += 4;						// 0;\r\n
; 195  : 
; 196  : 	char *szVirticalScaleData = p_strVerticalScaleData.GetBufferSetLength( nVerticalScaleDataLen);

  0008d	8b 4d cc	 mov	 ecx, DWORD PTR _p_strVerticalScaleData$GSCopy$1$[ebp]
  00090	2b f2		 sub	 esi, edx
  00092	89 75 d0	 mov	 DWORD PTR _nBaseGridTypeLen$1$[ebp], esi
  00095	8d 46 07	 lea	 eax, DWORD PTR [esi+7]
  00098	03 c3		 add	 eax, ebx
  0009a	03 c7		 add	 eax, edi
  0009c	50		 push	 eax
  0009d	ff 15 00 00 00
	00		 call	 DWORD PTR __imp_?GetBufferSetLength@?$CSimpleStringT@D$00@ATL@@QAEPADH@Z

; 197  : 
; 198  : 	strcpy( szVirticalScaleData, _MTEXT( C6_INDICATOR_DATA));

  000a3	8b 0d 54 00 00
	00		 mov	 ecx, DWORD PTR ?g_iMetaTable@@3VIMetaTable@@A+84
  000a9	8b d0		 mov	 edx, eax
  000ab	8b f2		 mov	 esi, edx
  000ad	8b 81 7c 09 00
	00		 mov	 eax, DWORD PTR [ecx+2428]
$LL4@GetVertica:
  000b3	8a 08		 mov	 cl, BYTE PTR [eax]
  000b5	8d 40 01	 lea	 eax, DWORD PTR [eax+1]
  000b8	88 0e		 mov	 BYTE PTR [esi], cl
  000ba	8d 76 01	 lea	 esi, DWORD PTR [esi+1]
  000bd	84 c9		 test	 cl, cl
  000bf	75 f2		 jne	 SHORT $LL4@GetVertica

; 199  : 	szVirticalScaleData += nIndiDataLen;
; 200  : 	*szVirticalScaleData++ = ';';
; 201  : 
; 202  : 	strcpy( szVirticalScaleData, szVertScalePosition);

  000c1	8b 75 d0	 mov	 esi, DWORD PTR _nBaseGridTypeLen$1$[ebp]
  000c4	8d 4d e8	 lea	 ecx, DWORD PTR _szVertScalePosition$[ebp]
  000c7	03 d7		 add	 edx, edi
  000c9	8b c1		 mov	 eax, ecx
  000cb	c6 02 3b	 mov	 BYTE PTR [edx], 59	; 0000003bH
  000ce	42		 inc	 edx
  000cf	8b fa		 mov	 edi, edx
  000d1	2b f8		 sub	 edi, eax
$LL5@GetVertica:
  000d3	8a 01		 mov	 al, BYTE PTR [ecx]
  000d5	8d 49 01	 lea	 ecx, DWORD PTR [ecx+1]
  000d8	88 44 0f ff	 mov	 BYTE PTR [edi+ecx-1], al
  000dc	84 c0		 test	 al, al
  000de	75 f3		 jne	 SHORT $LL5@GetVertica

; 203  : 	szVirticalScaleData += nVertScalePositionLen;

  000e0	03 d3		 add	 edx, ebx

; 204  : 	*szVirticalScaleData++ = ';';
; 205  : 
; 206  : 	strcpy( szVirticalScaleData, szBaseGridType);

  000e2	8d 4d d4	 lea	 ecx, DWORD PTR _szBaseGridType$[ebp]
  000e5	8b c1		 mov	 eax, ecx
  000e7	5b		 pop	 ebx
  000e8	8d 7a 01	 lea	 edi, DWORD PTR [edx+1]
  000eb	c6 02 3b	 mov	 BYTE PTR [edx], 59	; 0000003bH
  000ee	2b f8		 sub	 edi, eax
$LL6@GetVertica:
  000f0	8a 01		 mov	 al, BYTE PTR [ecx]
  000f2	8d 49 01	 lea	 ecx, DWORD PTR [ecx+1]
  000f5	88 44 0f ff	 mov	 BYTE PTR [edi+ecx-1], al
  000f9	84 c0		 test	 al, al
  000fb	75 f3		 jne	 SHORT $LL6@GetVertica

; 207  : 	szVirticalScaleData += nBaseGridTypeLen;
; 208  : 	*szVirticalScaleData++ = ';';
; 209  : 
; 210  : 	strcpy( szVirticalScaleData, "0;\r\n");
; 211  : }

  000fd	8b 4d fc	 mov	 ecx, DWORD PTR __$ArrayPad$[ebp]
  00100	c6 44 32 01 3b	 mov	 BYTE PTR [edx+esi+1], 59 ; 0000003bH
  00105	33 cd		 xor	 ecx, ebp
  00107	a1 00 00 00 00	 mov	 eax, DWORD PTR ??_C@_04ENOBLEBN@0?$DL?$AN?6@
  0010c	89 44 32 02	 mov	 DWORD PTR [edx+esi+2], eax
  00110	a0 04 00 00 00	 mov	 al, BYTE PTR ??_C@_04ENOBLEBN@0?$DL?$AN?6@+4
  00115	5f		 pop	 edi
  00116	88 44 32 06	 mov	 BYTE PTR [edx+esi+6], al
  0011a	5e		 pop	 esi
  0011b	e8 00 00 00 00	 call	 @__security_check_cookie@4
  00120	8b e5		 mov	 esp, ebp
  00122	5d		 pop	 ebp
  00123	c2 08 00	 ret	 8
?GetVerticalScaleData@CIndicatorDefaultData@@ABEXAAV?$CStringT@DV?$StrTraitMFC_DLL@DV?$ChTraitsCRT@D@ATL@@@@@ATL@@ABV23@@Z ENDP ; CIndicatorDefaultData::GetVerticalScaleData
_TEXT	ENDS
; Function compile flags: /Ogtp
; File D:\git\src\IBK\IBK_DRFN\ProjSrc\SrcChartEx\ChartOCX\KTBChart\IndicatorDefaultData.cpp
; File C:\Program Files (x86)\Microsoft Visual Studio\2019\Community\VC\Tools\MSVC\14.29.30133\atlmfc\include\cstringt.h
; File D:\git\src\IBK\IBK_DRFN\ProjSrc\SrcChartEx\ChartOCX\KTBChart\IndicatorDefaultData.cpp
; File C:\Program Files (x86)\Microsoft Visual Studio\2019\Community\VC\Tools\MSVC\14.29.30133\atlmfc\include\cstringt.h
; File D:\git\src\IBK\IBK_DRFN\ProjSrc\SrcChartEx\ChartOCX\KTBChart\IndicatorDefaultData.cpp
; File C:\Program Files (x86)\Microsoft Visual Studio\2019\Community\VC\Tools\MSVC\14.29.30133\atlmfc\include\cstringt.h
; File D:\git\src\IBK\IBK_DRFN\ProjSrc\SrcChartEx\ChartOCX\KTBChart\IndicatorDefaultData.cpp
; File C:\Program Files (x86)\Microsoft Visual Studio\2019\Community\VC\Tools\MSVC\14.29.30133\atlmfc\include\cstringt.h
; File D:\git\src\IBK\IBK_DRFN\ProjSrc\SrcChartEx\ChartOCX\KTBChart\IndicatorDefaultData.cpp
; File C:\Program Files (x86)\Microsoft Visual Studio\2019\Community\VC\Tools\MSVC\14.29.30133\atlmfc\include\cstringt.h
; File D:\git\src\IBK\IBK_DRFN\ProjSrc\SrcChartEx\ChartOCX\KTBChart\IndicatorDefaultData.cpp
; File C:\Program Files (x86)\Microsoft Visual Studio\2019\Community\VC\Tools\MSVC\14.29.30133\atlmfc\include\cstringt.h
; File D:\git\src\IBK\IBK_DRFN\ProjSrc\SrcChartEx\ChartOCX\KTBChart\IndicatorDefaultData.cpp
; File C:\Program Files (x86)\Microsoft Visual Studio\2019\Community\VC\Tools\MSVC\14.29.30133\atlmfc\include\cstringt.h
; File D:\git\src\IBK\IBK_DRFN\ProjSrc\SrcChartEx\ChartOCX\KTBChart\IndicatorDefaultData.cpp
; File C:\Program Files (x86)\Microsoft Visual Studio\2019\Community\VC\Tools\MSVC\14.29.30133\atlmfc\include\cstringt.h
; File D:\git\src\IBK\IBK_DRFN\ProjSrc\SrcChartEx\ChartOCX\KTBChart\IndicatorDefaultData.cpp
;	COMDAT ?GetHorizontalScaleData@CIndicatorDefaultData@@ABE?AV?$CStringT@DV?$StrTraitMFC_DLL@DV?$ChTraitsCRT@D@ATL@@@@@ATL@@ABV23@H@Z
_TEXT	SEGMENT
$T2 = -16						; size = 4
__$EHRec$ = -12						; size = 12
___$ReturnUdt$ = 8					; size = 4
$T3 = 12						; size = 4
_strGraphName$ = 12					; size = 4
_bIsEndBlock$ = 16					; size = 4
?GetHorizontalScaleData@CIndicatorDefaultData@@ABE?AV?$CStringT@DV?$StrTraitMFC_DLL@DV?$ChTraitsCRT@D@ATL@@@@@ATL@@ABV23@H@Z PROC ; CIndicatorDefaultData::GetHorizontalScaleData, COMDAT
; _this$ = ecx

; 155  : {

  00000	55		 push	 ebp
  00001	8b ec		 mov	 ebp, esp
  00003	6a ff		 push	 -1
  00005	68 00 00 00 00	 push	 __ehhandler$?GetHorizontalScaleData@CIndicatorDefaultData@@ABE?AV?$CStringT@DV?$StrTraitMFC_DLL@DV?$ChTraitsCRT@D@ATL@@@@@ATL@@ABV23@H@Z
  0000a	64 a1 00 00 00
	00		 mov	 eax, DWORD PTR fs:0
  00010	50		 push	 eax
  00011	51		 push	 ecx
  00012	53		 push	 ebx
  00013	56		 push	 esi
  00014	57		 push	 edi
  00015	a1 00 00 00 00	 mov	 eax, DWORD PTR ___security_cookie
  0001a	33 c5		 xor	 eax, ebp
  0001c	50		 push	 eax
  0001d	8d 45 f4	 lea	 eax, DWORD PTR __$EHRec$[ebp]
  00020	64 a3 00 00 00
	00		 mov	 DWORD PTR fs:0, eax
  00026	8b d9		 mov	 ebx, ecx
  00028	c7 45 f0 00 00
	00 00		 mov	 DWORD PTR $T2[ebp], 0

; 156  : 	CString strData;

  0002f	8b 7d 08	 mov	 edi, DWORD PTR ___$ReturnUdt$[ebp]
  00032	8b cf		 mov	 ecx, edi
  00034	ff 15 00 00 00
	00		 call	 DWORD PTR __imp_??0?$CStringT@DV?$StrTraitMFC_DLL@DV?$ChTraitsCRT@D@ATL@@@@@ATL@@QAE@XZ

; 217  : 	if(strGraphName == _MTEXT( C2_THREE_LINE_BREAK))	// "삼선전환도"

  0003a	a1 54 00 00 00	 mov	 eax, DWORD PTR ?g_iMetaTable@@3VIMetaTable@@A+84
; File C:\Program Files (x86)\Microsoft Visual Studio\2019\Community\VC\Tools\MSVC\14.29.30133\atlmfc\include\cstringt.h

; 2486 : 		return(str1.Compare(psz2) == 0);

  0003f	8b 75 0c	 mov	 esi, DWORD PTR _strGraphName$[ebp]
  00042	8b ce		 mov	 ecx, esi
; File D:\git\src\IBK\IBK_DRFN\ProjSrc\SrcChartEx\ChartOCX\KTBChart\IndicatorDefaultData.cpp

; 163  : 	return strData;

  00044	c7 45 fc 00 00
	00 00		 mov	 DWORD PTR __$EHRec$[ebp+8], 0
  0004b	c7 45 f0 01 00
	00 00		 mov	 DWORD PTR $T2[ebp], 1
; File C:\Program Files (x86)\Microsoft Visual Studio\2019\Community\VC\Tools\MSVC\14.29.30133\atlmfc\include\cstringt.h

; 2486 : 		return(str1.Compare(psz2) == 0);

  00052	ff b0 88 04 00
	00		 push	 DWORD PTR [eax+1160]
  00058	ff 15 00 00 00
	00		 call	 DWORD PTR __imp_?Compare@?$CStringT@DV?$StrTraitMFC_DLL@DV?$ChTraitsCRT@D@ATL@@@@@ATL@@QBEHPBD@Z
  0005e	85 c0		 test	 eax, eax
; File D:\git\src\IBK\IBK_DRFN\ProjSrc\SrcChartEx\ChartOCX\KTBChart\IndicatorDefaultData.cpp

; 217  : 	if(strGraphName == _MTEXT( C2_THREE_LINE_BREAK))	// "삼선전환도"

  00060	a1 54 00 00 00	 mov	 eax, DWORD PTR ?g_iMetaTable@@3VIMetaTable@@A+84
  00065	75 0b		 jne	 SHORT $LN7@GetHorizon

; 218  : 		return _MTEXT( C0_THREE_LINE_BREAK_DATE_TIME);

  00067	ff b0 98 00 00
	00		 push	 DWORD PTR [eax+152]
  0006d	e9 b3 00 00 00	 jmp	 $LN41@GetHorizon
$LN7@GetHorizon:
; File C:\Program Files (x86)\Microsoft Visual Studio\2019\Community\VC\Tools\MSVC\14.29.30133\atlmfc\include\cstringt.h

; 2486 : 		return(str1.Compare(psz2) == 0);

  00072	ff b0 8c 04 00
	00		 push	 DWORD PTR [eax+1164]
  00078	8b ce		 mov	 ecx, esi
  0007a	ff 15 00 00 00
	00		 call	 DWORD PTR __imp_?Compare@?$CStringT@DV?$StrTraitMFC_DLL@DV?$ChTraitsCRT@D@ATL@@@@@ATL@@QBEHPBD@Z
  00080	85 c0		 test	 eax, eax
; File D:\git\src\IBK\IBK_DRFN\ProjSrc\SrcChartEx\ChartOCX\KTBChart\IndicatorDefaultData.cpp

; 219  : 	else if(strGraphName == _MTEXT( C2_INVERSE_TIME_LINE))		// "역시계곡선"

  00082	a1 54 00 00 00	 mov	 eax, DWORD PTR ?g_iMetaTable@@3VIMetaTable@@A+84
  00087	75 08		 jne	 SHORT $LN9@GetHorizon

; 220  : 		return _MTEXT( C0_INVERSETIMELINE_VOLUME);

  00089	ff 70 60	 push	 DWORD PTR [eax+96]
  0008c	e9 94 00 00 00	 jmp	 $LN41@GetHorizon
$LN9@GetHorizon:
; File C:\Program Files (x86)\Microsoft Visual Studio\2019\Community\VC\Tools\MSVC\14.29.30133\atlmfc\include\cstringt.h

; 2486 : 		return(str1.Compare(psz2) == 0);

  00091	ff b0 90 04 00
	00		 push	 DWORD PTR [eax+1168]
  00097	8b ce		 mov	 ecx, esi
  00099	ff 15 00 00 00
	00		 call	 DWORD PTR __imp_?Compare@?$CStringT@DV?$StrTraitMFC_DLL@DV?$ChTraitsCRT@D@ATL@@@@@ATL@@QBEHPBD@Z
  0009f	85 c0		 test	 eax, eax
; File D:\git\src\IBK\IBK_DRFN\ProjSrc\SrcChartEx\ChartOCX\KTBChart\IndicatorDefaultData.cpp

; 222  : 	else if(strGraphName == _MTEXT( C2_P_AND_F))	// "P&F"

  000a1	a1 54 00 00 00	 mov	 eax, DWORD PTR ?g_iMetaTable@@3VIMetaTable@@A+84
  000a6	75 08		 jne	 SHORT $LN11@GetHorizon

; 223  : 		return _MTEXT( C0_PF_DATE_TIME);

  000a8	ff b0 80 00 00
	00		 push	 DWORD PTR [eax+128]
  000ae	eb 75		 jmp	 SHORT $LN41@GetHorizon
$LN11@GetHorizon:
; File C:\Program Files (x86)\Microsoft Visual Studio\2019\Community\VC\Tools\MSVC\14.29.30133\atlmfc\include\cstringt.h

; 2486 : 		return(str1.Compare(psz2) == 0);

  000b0	ff b0 94 04 00
	00		 push	 DWORD PTR [eax+1172]
  000b6	8b ce		 mov	 ecx, esi
  000b8	ff 15 00 00 00
	00		 call	 DWORD PTR __imp_?Compare@?$CStringT@DV?$StrTraitMFC_DLL@DV?$ChTraitsCRT@D@ATL@@@@@ATL@@QBEHPBD@Z
  000be	85 c0		 test	 eax, eax
; File D:\git\src\IBK\IBK_DRFN\ProjSrc\SrcChartEx\ChartOCX\KTBChart\IndicatorDefaultData.cpp

; 224  : 	else if(strGraphName == _MTEXT( C2_SWING_CHART))	// "SwingChart"

  000c0	a1 54 00 00 00	 mov	 eax, DWORD PTR ?g_iMetaTable@@3VIMetaTable@@A+84
  000c5	75 05		 jne	 SHORT $LN13@GetHorizon

; 225  : 		return _MTEXT( C0_SWING_CHART_DATE_TIME);

  000c7	ff 70 6c	 push	 DWORD PTR [eax+108]
  000ca	eb 59		 jmp	 SHORT $LN41@GetHorizon
$LN13@GetHorizon:
; File C:\Program Files (x86)\Microsoft Visual Studio\2019\Community\VC\Tools\MSVC\14.29.30133\atlmfc\include\cstringt.h

; 2486 : 		return(str1.Compare(psz2) == 0);

  000cc	ff b0 98 04 00
	00		 push	 DWORD PTR [eax+1176]
  000d2	8b ce		 mov	 ecx, esi
  000d4	ff 15 00 00 00
	00		 call	 DWORD PTR __imp_?Compare@?$CStringT@DV?$StrTraitMFC_DLL@DV?$ChTraitsCRT@D@ATL@@@@@ATL@@QBEHPBD@Z
  000da	85 c0		 test	 eax, eax
; File D:\git\src\IBK\IBK_DRFN\ProjSrc\SrcChartEx\ChartOCX\KTBChart\IndicatorDefaultData.cpp

; 226  : 	else if(strGraphName == _MTEXT( C2_KAGI_CHART))		// "KagiChart"

  000dc	a1 54 00 00 00	 mov	 eax, DWORD PTR ?g_iMetaTable@@3VIMetaTable@@A+84
  000e1	75 05		 jne	 SHORT $LN15@GetHorizon

; 227  : 		return _MTEXT( C0_KAGI_DATE_TIME);

  000e3	ff 70 70	 push	 DWORD PTR [eax+112]
  000e6	eb 3d		 jmp	 SHORT $LN41@GetHorizon
$LN15@GetHorizon:
; File C:\Program Files (x86)\Microsoft Visual Studio\2019\Community\VC\Tools\MSVC\14.29.30133\atlmfc\include\cstringt.h

; 2486 : 		return(str1.Compare(psz2) == 0);

  000e8	ff b0 9c 04 00
	00		 push	 DWORD PTR [eax+1180]
  000ee	8b ce		 mov	 ecx, esi
  000f0	ff 15 00 00 00
	00		 call	 DWORD PTR __imp_?Compare@?$CStringT@DV?$StrTraitMFC_DLL@DV?$ChTraitsCRT@D@ATL@@@@@ATL@@QBEHPBD@Z
  000f6	85 c0		 test	 eax, eax
; File D:\git\src\IBK\IBK_DRFN\ProjSrc\SrcChartEx\ChartOCX\KTBChart\IndicatorDefaultData.cpp

; 228  : 	else if(strGraphName == _MTEXT( C2_RENKO_CHART))	// "RenKoChart"

  000f8	a1 54 00 00 00	 mov	 eax, DWORD PTR ?g_iMetaTable@@3VIMetaTable@@A+84
  000fd	75 08		 jne	 SHORT $LN17@GetHorizon

; 229  : 		return _MTEXT( C0_RENKO_CHART_DATETIME);

  000ff	ff b0 8c 00 00
	00		 push	 DWORD PTR [eax+140]
  00105	eb 1e		 jmp	 SHORT $LN41@GetHorizon
$LN17@GetHorizon:
; File C:\Program Files (x86)\Microsoft Visual Studio\2019\Community\VC\Tools\MSVC\14.29.30133\atlmfc\include\cstringt.h

; 2486 : 		return(str1.Compare(psz2) == 0);

  00107	ff b0 90 0c 00
	00		 push	 DWORD PTR [eax+3216]
  0010d	8b ce		 mov	 ecx, esi
  0010f	ff 15 00 00 00
	00		 call	 DWORD PTR __imp_?Compare@?$CStringT@DV?$StrTraitMFC_DLL@DV?$ChTraitsCRT@D@ATL@@@@@ATL@@QBEHPBD@Z
  00115	85 c0		 test	 eax, eax
; File D:\git\src\IBK\IBK_DRFN\ProjSrc\SrcChartEx\ChartOCX\KTBChart\IndicatorDefaultData.cpp

; 231  : 	else if(strGraphName == _MTEXT( C2_DISPERSION))	// "분산Chart"

  00117	a1 54 00 00 00	 mov	 eax, DWORD PTR ?g_iMetaTable@@3VIMetaTable@@A+84
  0011c	75 05		 jne	 SHORT $LN19@GetHorizon

; 232  : 		return _MTEXT( C0_VOLUME);

  0011e	ff 70 1c	 push	 DWORD PTR [eax+28]
  00121	eb 02		 jmp	 SHORT $LN41@GetHorizon
$LN19@GetHorizon:

; 233  : // (2006.11.09 안승환) 분산차트 추가
; 234  : 
; 235  : 	return _MTEXT( C0_DATE_TIME);

  00123	ff 30		 push	 DWORD PTR [eax]
$LN41@GetHorizon:

; 157  : 	// (2004.03.11, 배승원) 모든 자료일자를 '/'로 통일한다.
; 158  : 	strData.Format("%s;%d;%d;/;:;가로;\r\n",

  00125	8d 4d 0c	 lea	 ecx, DWORD PTR $T3[ebp]
  00128	ff 15 00 00 00
	00		 call	 DWORD PTR __imp_??0?$CStringT@DV?$StrTraitMFC_DLL@DV?$ChTraitsCRT@D@ATL@@@@@ATL@@QAE@PBD@Z
  0012e	c7 45 f0 03 00
	00 00		 mov	 DWORD PTR $T2[ebp], 3
  00135	ff 33		 push	 DWORD PTR [ebx]
  00137	33 c9		 xor	 ecx, ecx
  00139	c7 45 fc 01 00
	00 00		 mov	 DWORD PTR __$EHRec$[ebp+8], 1
  00140	39 4d 10	 cmp	 DWORD PTR _bIsEndBlock$[ebp], ecx
  00143	0f 94 c1	 sete	 cl
  00146	8d 0c 4d 01 00
	00 00		 lea	 ecx, DWORD PTR [ecx*2+1]
  0014d	51		 push	 ecx
  0014e	ff 75 0c	 push	 DWORD PTR $T3[ebp]
  00151	68 00 00 00 00	 push	 OFFSET ??_C@_0BF@IGNNPGPG@?$CFs?$DL?$CFd?$DL?$CFd?$DL?1?$DL?3?$DL?$LA?$KB?$LH?N?$DL?$AN?6@
  00156	57		 push	 edi
  00157	ff 15 00 00 00
	00		 call	 DWORD PTR __imp_?Format@?$CStringT@DV?$StrTraitMFC_DLL@DV?$ChTraitsCRT@D@ATL@@@@@ATL@@QAAXPBDZZ
  0015d	83 c4 14	 add	 esp, 20			; 00000014H
  00160	8d 4d 0c	 lea	 ecx, DWORD PTR $T3[ebp]
  00163	ff 15 00 00 00
	00		 call	 DWORD PTR __imp_??1?$CStringT@DV?$StrTraitMFC_DLL@DV?$ChTraitsCRT@D@ATL@@@@@ATL@@QAE@XZ

; 163  : 	return strData;

  00169	8b c7		 mov	 eax, edi

; 164  : }

  0016b	8b 4d f4	 mov	 ecx, DWORD PTR __$EHRec$[ebp]
  0016e	64 89 0d 00 00
	00 00		 mov	 DWORD PTR fs:0, ecx
  00175	59		 pop	 ecx
  00176	5f		 pop	 edi
  00177	5e		 pop	 esi
  00178	5b		 pop	 ebx
  00179	8b e5		 mov	 esp, ebp
  0017b	5d		 pop	 ebp
  0017c	c2 0c 00	 ret	 12			; 0000000cH
_TEXT	ENDS
;	COMDAT text$x
text$x	SEGMENT
__unwindfunclet$?GetHorizontalScaleData@CIndicatorDefaultData@@ABE?AV?$CStringT@DV?$StrTraitMFC_DLL@DV?$ChTraitsCRT@D@ATL@@@@@ATL@@ABV23@H@Z$0:
  00000	8b 45 f0	 mov	 eax, DWORD PTR $T2[ebp]
  00003	83 e0 01	 and	 eax, 1
  00006	0f 84 0d 00 00
	00		 je	 $LN4@GetHorizon
  0000c	83 65 f0 fe	 and	 DWORD PTR $T2[ebp], -2	; fffffffeH
  00010	8b 4d 08	 mov	 ecx, DWORD PTR ___$ReturnUdt$[ebp]
  00013	ff 25 00 00 00
	00		 jmp	 DWORD PTR __imp_??1?$CStringT@DV?$StrTraitMFC_DLL@DV?$ChTraitsCRT@D@ATL@@@@@ATL@@QAE@XZ
$LN4@GetHorizon:
  00019	c3		 ret	 0
__unwindfunclet$?GetHorizontalScaleData@CIndicatorDefaultData@@ABE?AV?$CStringT@DV?$StrTraitMFC_DLL@DV?$ChTraitsCRT@D@ATL@@@@@ATL@@ABV23@H@Z$1:
  0001a	8d 4d 0c	 lea	 ecx, DWORD PTR $T3[ebp]
  0001d	ff 25 00 00 00
	00		 jmp	 DWORD PTR __imp_??1?$CStringT@DV?$StrTraitMFC_DLL@DV?$ChTraitsCRT@D@ATL@@@@@ATL@@QAE@XZ
  00023	cc		 int	 3
  00024	cc		 int	 3
  00025	cc		 int	 3
  00026	cc		 int	 3
  00027	cc		 int	 3
__ehhandler$?GetHorizontalScaleData@CIndicatorDefaultData@@ABE?AV?$CStringT@DV?$StrTraitMFC_DLL@DV?$ChTraitsCRT@D@ATL@@@@@ATL@@ABV23@H@Z:
  00028	90		 npad	 1
  00029	90		 npad	 1
  0002a	8b 54 24 08	 mov	 edx, DWORD PTR [esp+8]
  0002e	8d 42 0c	 lea	 eax, DWORD PTR [edx+12]
  00031	8b 4a ec	 mov	 ecx, DWORD PTR [edx-20]
  00034	33 c8		 xor	 ecx, eax
  00036	e8 00 00 00 00	 call	 @__security_check_cookie@4
  0003b	b8 00 00 00 00	 mov	 eax, OFFSET __ehfuncinfo$?GetHorizontalScaleData@CIndicatorDefaultData@@ABE?AV?$CStringT@DV?$StrTraitMFC_DLL@DV?$ChTraitsCRT@D@ATL@@@@@ATL@@ABV23@H@Z
  00040	e9 00 00 00 00	 jmp	 ___CxxFrameHandler3
text$x	ENDS
?GetHorizontalScaleData@CIndicatorDefaultData@@ABE?AV?$CStringT@DV?$StrTraitMFC_DLL@DV?$ChTraitsCRT@D@ATL@@@@@ATL@@ABV23@H@Z ENDP ; CIndicatorDefaultData::GetHorizontalScaleData
; Function compile flags: /Ogtp
; File D:\git\src\IBK\IBK_DRFN\ProjSrc\SrcChartEx\ChartOCX\KTBChart\IndicatorDefaultData.cpp
; File C:\Program Files (x86)\Microsoft Visual Studio\2019\Community\VC\Tools\MSVC\14.29.30133\atlmfc\include\atlsimpstr.h
; File D:\git\src\IBK\IBK_DRFN\ProjSrc\SrcChartEx\ChartOCX\KTBChart\IndicatorDefaultData.cpp
; File C:\Program Files (x86)\Microsoft Visual Studio\2019\Community\VC\Tools\MSVC\14.29.30133\atlmfc\include\atlsimpstr.h
; File D:\git\src\IBK\IBK_DRFN\ProjSrc\SrcChartEx\ChartOCX\KTBChart\IndicatorDefaultData.cpp
; File C:\Program Files (x86)\Microsoft Visual Studio\2019\Community\VC\Tools\MSVC\14.29.30133\atlmfc\include\atlsimpstr.h
; File D:\git\src\IBK\IBK_DRFN\ProjSrc\SrcChartEx\ChartOCX\KTBChart\IndicatorDefaultData.cpp
; File C:\Program Files (x86)\Microsoft Visual Studio\2019\Community\VC\Tools\MSVC\14.29.30133\atlmfc\include\atlsimpstr.h
; File D:\git\src\IBK\IBK_DRFN\ProjSrc\SrcChartEx\ChartOCX\KTBChart\IndicatorDefaultData.cpp
; File C:\Program Files (x86)\Microsoft Visual Studio\2019\Community\VC\Tools\MSVC\14.29.30133\atlmfc\include\atlsimpstr.h
; File D:\git\src\IBK\IBK_DRFN\ProjSrc\SrcChartEx\ChartOCX\KTBChart\IndicatorDefaultData.cpp
; File C:\Program Files (x86)\Microsoft Visual Studio\2019\Community\VC\Tools\MSVC\14.29.30133\atlmfc\include\atlsimpstr.h
; File D:\git\src\IBK\IBK_DRFN\ProjSrc\SrcChartEx\ChartOCX\KTBChart\IndicatorDefaultData.cpp
;	COMDAT ?GetVertScaleGroupDataForMaking@CIndicatorDefaultData@@ABEXAAV?$CStringT@DV?$StrTraitMFC_DLL@DV?$ChTraitsCRT@D@ATL@@@@@ATL@@PAVCIndicatorInfo@@@Z
_TEXT	SEGMENT
_p_strVertScaleGroupData$GSCopy$1$ = -80		; size = 4
$T2 = -76						; size = 4
_nVertScalePositionLen$1$ = -72				; size = 4
_this$GSCopy$1$ = -68					; size = 4
_nBaseGridTypeLen$1$ = -68				; size = 4
_strVertScaleData$ = -64				; size = 4
_strGraphData$ = -60					; size = 4
_szBaseGridType$3 = -56					; size = 20
_szVertScalePosition$4 = -36				; size = 20
__$ArrayPad$ = -16					; size = 4
__$EHRec$ = -12						; size = 12
_p_strVertScaleGroupData$ = 8				; size = 4
_pIndicatorInfo$ = 12					; size = 4
?GetVertScaleGroupDataForMaking@CIndicatorDefaultData@@ABEXAAV?$CStringT@DV?$StrTraitMFC_DLL@DV?$ChTraitsCRT@D@ATL@@@@@ATL@@PAVCIndicatorInfo@@@Z PROC ; CIndicatorDefaultData::GetVertScaleGroupDataForMaking, COMDAT
; _this$ = ecx

; 117  : {

  00000	55		 push	 ebp
  00001	8b ec		 mov	 ebp, esp
  00003	6a ff		 push	 -1
  00005	68 00 00 00 00	 push	 __ehhandler$?GetVertScaleGroupDataForMaking@CIndicatorDefaultData@@ABEXAAV?$CStringT@DV?$StrTraitMFC_DLL@DV?$ChTraitsCRT@D@ATL@@@@@ATL@@PAVCIndicatorInfo@@@Z
  0000a	64 a1 00 00 00
	00		 mov	 eax, DWORD PTR fs:0
  00010	50		 push	 eax
  00011	83 ec 44	 sub	 esp, 68			; 00000044H
  00014	a1 00 00 00 00	 mov	 eax, DWORD PTR ___security_cookie
  00019	33 c5		 xor	 eax, ebp
  0001b	89 45 f0	 mov	 DWORD PTR __$ArrayPad$[ebp], eax
  0001e	56		 push	 esi
  0001f	57		 push	 edi
  00020	50		 push	 eax
  00021	8d 45 f4	 lea	 eax, DWORD PTR __$EHRec$[ebp]
  00024	64 a3 00 00 00
	00		 mov	 DWORD PTR fs:0, eax
  0002a	8b f9		 mov	 edi, ecx
  0002c	89 7d bc	 mov	 DWORD PTR _this$GSCopy$1$[ebp], edi
  0002f	8b 45 08	 mov	 eax, DWORD PTR _p_strVertScaleGroupData$[ebp]

; 118  : 	p_strVertScaleGroupData.Empty();

  00032	8b c8		 mov	 ecx, eax
  00034	8b 75 0c	 mov	 esi, DWORD PTR _pIndicatorInfo$[ebp]
  00037	89 45 b0	 mov	 DWORD PTR _p_strVertScaleGroupData$GSCopy$1$[ebp], eax
  0003a	ff 15 00 00 00
	00		 call	 DWORD PTR __imp_?Empty@?$CSimpleStringT@D$00@ATL@@QAEXXZ

; 119  : 	if( !pIndicatorInfo) return;

  00040	85 f6		 test	 esi, esi
  00042	0f 84 fb 01 00
	00		 je	 $LN1@GetVertSca

; 120  : 
; 121  : 	// (2004.10.06, 배승원) 가격차트의 Graph Drawing Data를 지정받아 DefaultType에 따라 관리, 적용토록 한다.
; 122  : 	CString strGraphData;

  00048	8d 4d c4	 lea	 ecx, DWORD PTR _strGraphData$[ebp]
  0004b	ff 15 00 00 00
	00		 call	 DWORD PTR __imp_??0?$CStringT@DV?$StrTraitMFC_DLL@DV?$ChTraitsCRT@D@ATL@@@@@ATL@@QAE@XZ

; 123  : 	pIndicatorInfo->GetGraphDataForMaking( strGraphData);

  00051	8d 45 c4	 lea	 eax, DWORD PTR _strGraphData$[ebp]
  00054	c7 45 fc 00 00
	00 00		 mov	 DWORD PTR __$EHRec$[ebp+8], 0
  0005b	50		 push	 eax
  0005c	8b ce		 mov	 ecx, esi
  0005e	ff 15 00 00 00
	00		 call	 DWORD PTR __imp_?GetGraphDataForMaking@CIndicatorInfo@@QBEXAAV?$CStringT@DV?$StrTraitMFC_DLL@DV?$ChTraitsCRT@D@ATL@@@@@ATL@@@Z
; File C:\Program Files (x86)\Microsoft Visual Studio\2019\Community\VC\Tools\MSVC\14.29.30133\atlmfc\include\atlsimpstr.h

; 519  : 		return( GetData()->nDataLength );

  00064	8b 45 c4	 mov	 eax, DWORD PTR _strGraphData$[ebp]

; 533  : 		return( GetLength() == 0 );

  00067	83 78 f4 00	 cmp	 DWORD PTR [eax-12], 0
; File D:\git\src\IBK\IBK_DRFN\ProjSrc\SrcChartEx\ChartOCX\KTBChart\IndicatorDefaultData.cpp

; 124  : 	if( strGraphData.IsEmpty()) return;

  0006b	0f 84 c9 01 00
	00		 je	 $LN10@GetVertSca

; 125  : 
; 126  : 	CString strVertScaleData;

  00071	8d 4d c0	 lea	 ecx, DWORD PTR _strVertScaleData$[ebp]
  00074	ff 15 00 00 00
	00		 call	 DWORD PTR __imp_??0?$CStringT@DV?$StrTraitMFC_DLL@DV?$ChTraitsCRT@D@ATL@@@@@ATL@@QAE@XZ

; 127  : 	GetVerticalScaleData( strVertScaleData, pIndicatorInfo->GetIndicatorName());

  0007a	8d 45 b4	 lea	 eax, DWORD PTR $T2[ebp]
  0007d	c6 45 fc 01	 mov	 BYTE PTR __$EHRec$[ebp+8], 1
  00081	50		 push	 eax
  00082	8b ce		 mov	 ecx, esi
  00084	ff 15 00 00 00
	00		 call	 DWORD PTR __imp_?GetIndicatorName@CIndicatorInfo@@QBE?AV?$CStringT@DV?$StrTraitMFC_DLL@DV?$ChTraitsCRT@D@ATL@@@@@ATL@@XZ

; 175  : 	if( g_iMetaTable.IsSpecialGroupGraph( strGraphName)) eVertScalePosition = CScaleBaseData::VERT_BOTH;

  0008a	ff 30		 push	 DWORD PTR [eax]
  0008c	8b 77 04	 mov	 esi, DWORD PTR [edi+4]
  0008f	b9 00 00 00 00	 mov	 ecx, OFFSET ?g_iMetaTable@@3VIMetaTable@@A ; g_iMetaTable

; 127  : 	GetVerticalScaleData( strVertScaleData, pIndicatorInfo->GetIndicatorName());

  00094	c6 45 fc 02	 mov	 BYTE PTR __$EHRec$[ebp+8], 2

; 175  : 	if( g_iMetaTable.IsSpecialGroupGraph( strGraphName)) eVertScalePosition = CScaleBaseData::VERT_BOTH;

  00098	e8 00 00 00 00	 call	 ?IsSpecialGroupGraph@IMetaTable@@QAE_NPBD@Z ; IMetaTable::IsSpecialGroupGraph
  0009d	84 c0		 test	 al, al
  0009f	b9 02 00 00 00	 mov	 ecx, 2

; 176  : 
; 177  : 	int nIndiDataLen = strlen( _MTEXT( C6_INDICATOR_DATA));

  000a4	a1 54 00 00 00	 mov	 eax, DWORD PTR ?g_iMetaTable@@3VIMetaTable@@A+84
  000a9	0f 45 f1	 cmovne	 esi, ecx
  000ac	8b b8 7c 09 00
	00		 mov	 edi, DWORD PTR [eax+2428]
  000b2	8d 4f 01	 lea	 ecx, DWORD PTR [edi+1]
$LL60@GetVertSca:
  000b5	8a 07		 mov	 al, BYTE PTR [edi]
  000b7	47		 inc	 edi
  000b8	84 c0		 test	 al, al
  000ba	75 f9		 jne	 SHORT $LL60@GetVertSca

; 178  : 
; 179  : 	char szVertScalePosition[ 20];
; 180  : 	itoa( eVertScalePosition, szVertScalePosition, 10);

  000bc	6a 0a		 push	 10			; 0000000aH
  000be	8d 45 dc	 lea	 eax, DWORD PTR _szVertScalePosition$4[ebp]
  000c1	2b f9		 sub	 edi, ecx
  000c3	50		 push	 eax
  000c4	56		 push	 esi
  000c5	ff 15 00 00 00
	00		 call	 DWORD PTR __imp__itoa

; 181  : 	int nVertScalePositionLen = strlen( szVertScalePosition);

  000cb	8d 75 dc	 lea	 esi, DWORD PTR _szVertScalePosition$4[ebp]
  000ce	83 c4 0c	 add	 esp, 12			; 0000000cH
  000d1	8d 4e 01	 lea	 ecx, DWORD PTR [esi+1]
$LL61@GetVertSca:
  000d4	8a 06		 mov	 al, BYTE PTR [esi]
  000d6	46		 inc	 esi
  000d7	84 c0		 test	 al, al
  000d9	75 f9		 jne	 SHORT $LL61@GetVertSca

; 182  : 
; 183  : 	char szBaseGridType[ 20];
; 184  : 	itoa( m_eBaseGridType, szBaseGridType, 10);

  000db	6a 0a		 push	 10			; 0000000aH
  000dd	8d 45 c8	 lea	 eax, DWORD PTR _szBaseGridType$3[ebp]
  000e0	2b f1		 sub	 esi, ecx
  000e2	50		 push	 eax
  000e3	8b 45 bc	 mov	 eax, DWORD PTR _this$GSCopy$1$[ebp]
  000e6	89 75 b8	 mov	 DWORD PTR _nVertScalePositionLen$1$[ebp], esi
  000e9	ff 30		 push	 DWORD PTR [eax]
  000eb	ff 15 00 00 00
	00		 call	 DWORD PTR __imp__itoa

; 185  : 	int nBaseGridTypeLen = strlen( szBaseGridType);

  000f1	8d 4d c8	 lea	 ecx, DWORD PTR _szBaseGridType$3[ebp]
  000f4	83 c4 0c	 add	 esp, 12			; 0000000cH
  000f7	8d 51 01	 lea	 edx, DWORD PTR [ecx+1]
  000fa	66 0f 1f 44 00
	00		 npad	 6
$LL62@GetVertSca:
  00100	8a 01		 mov	 al, BYTE PTR [ecx]
  00102	41		 inc	 ecx
  00103	84 c0		 test	 al, al
  00105	75 f9		 jne	 SHORT $LL62@GetVertSca
  00107	2b ca		 sub	 ecx, edx

; 186  : 
; 187  : 	int nVerticalScaleDataLen = 0;
; 188  : 	nVerticalScaleDataLen += nIndiDataLen;
; 189  : 	nVerticalScaleDataLen++;						// ;
; 190  : 	nVerticalScaleDataLen += nVertScalePositionLen;	
; 191  : 	nVerticalScaleDataLen++;						// ;
; 192  : 	nVerticalScaleDataLen += nBaseGridTypeLen;	
; 193  : 	nVerticalScaleDataLen++;						// ;
; 194  : 	nVerticalScaleDataLen += 4;						// 0;\r\n

  00109	8d 46 07	 lea	 eax, DWORD PTR [esi+7]
  0010c	03 c1		 add	 eax, ecx
  0010e	89 4d bc	 mov	 DWORD PTR _nBaseGridTypeLen$1$[ebp], ecx
  00111	03 c7		 add	 eax, edi

; 195  : 
; 196  : 	char *szVirticalScaleData = p_strVerticalScaleData.GetBufferSetLength( nVerticalScaleDataLen);

  00113	8d 4d c0	 lea	 ecx, DWORD PTR _strVertScaleData$[ebp]
  00116	50		 push	 eax
  00117	ff 15 00 00 00
	00		 call	 DWORD PTR __imp_?GetBufferSetLength@?$CSimpleStringT@D$00@ATL@@QAEPADH@Z

; 197  : 
; 198  : 	strcpy( szVirticalScaleData, _MTEXT( C6_INDICATOR_DATA));

  0011d	8b 0d 54 00 00
	00		 mov	 ecx, DWORD PTR ?g_iMetaTable@@3VIMetaTable@@A+84
  00123	8b d0		 mov	 edx, eax
  00125	8b f2		 mov	 esi, edx
  00127	8b 81 7c 09 00
	00		 mov	 eax, DWORD PTR [ecx+2428]
  0012d	0f 1f 00	 npad	 3
$LL20@GetVertSca:
  00130	8a 08		 mov	 cl, BYTE PTR [eax]
  00132	8d 40 01	 lea	 eax, DWORD PTR [eax+1]
  00135	88 0e		 mov	 BYTE PTR [esi], cl
  00137	8d 76 01	 lea	 esi, DWORD PTR [esi+1]
  0013a	84 c9		 test	 cl, cl
  0013c	75 f2		 jne	 SHORT $LL20@GetVertSca
  0013e	8b 75 b8	 mov	 esi, DWORD PTR _nVertScalePositionLen$1$[ebp]

; 199  : 	szVirticalScaleData += nIndiDataLen;
; 200  : 	*szVirticalScaleData++ = ';';
; 201  : 
; 202  : 	strcpy( szVirticalScaleData, szVertScalePosition);

  00141	8d 4d dc	 lea	 ecx, DWORD PTR _szVertScalePosition$4[ebp]
  00144	03 d7		 add	 edx, edi
  00146	8b c1		 mov	 eax, ecx
  00148	c6 02 3b	 mov	 BYTE PTR [edx], 59	; 0000003bH
  0014b	42		 inc	 edx
  0014c	8b fa		 mov	 edi, edx
  0014e	2b f8		 sub	 edi, eax
$LL21@GetVertSca:
  00150	8a 01		 mov	 al, BYTE PTR [ecx]
  00152	8d 49 01	 lea	 ecx, DWORD PTR [ecx+1]
  00155	88 44 0f ff	 mov	 BYTE PTR [edi+ecx-1], al
  00159	84 c0		 test	 al, al
  0015b	75 f3		 jne	 SHORT $LL21@GetVertSca

; 203  : 	szVirticalScaleData += nVertScalePositionLen;

  0015d	03 d6		 add	 edx, esi

; 204  : 	*szVirticalScaleData++ = ';';
; 205  : 
; 206  : 	strcpy( szVirticalScaleData, szBaseGridType);

  0015f	8d 4d c8	 lea	 ecx, DWORD PTR _szBaseGridType$3[ebp]
  00162	8b c1		 mov	 eax, ecx
  00164	c6 02 3b	 mov	 BYTE PTR [edx], 59	; 0000003bH
  00167	42		 inc	 edx
  00168	8b f2		 mov	 esi, edx
  0016a	2b f0		 sub	 esi, eax
  0016c	0f 1f 40 00	 npad	 4
$LL22@GetVertSca:
  00170	8a 01		 mov	 al, BYTE PTR [ecx]
  00172	8d 49 01	 lea	 ecx, DWORD PTR [ecx+1]
  00175	88 44 0e ff	 mov	 BYTE PTR [esi+ecx-1], al
  00179	84 c0		 test	 al, al
  0017b	75 f3		 jne	 SHORT $LL22@GetVertSca

; 207  : 	szVirticalScaleData += nBaseGridTypeLen;

  0017d	03 55 bc	 add	 edx, DWORD PTR _nBaseGridTypeLen$1$[ebp]

; 127  : 	GetVerticalScaleData( strVertScaleData, pIndicatorInfo->GetIndicatorName());

  00180	8d 4d b4	 lea	 ecx, DWORD PTR $T2[ebp]
  00183	c6 45 fc 01	 mov	 BYTE PTR __$EHRec$[ebp+8], 1

; 208  : 	*szVirticalScaleData++ = ';';

  00187	c6 02 3b	 mov	 BYTE PTR [edx], 59	; 0000003bH

; 209  : 
; 210  : 	strcpy( szVirticalScaleData, "0;\r\n");

  0018a	a1 00 00 00 00	 mov	 eax, DWORD PTR ??_C@_04ENOBLEBN@0?$DL?$AN?6@
  0018f	89 42 01	 mov	 DWORD PTR [edx+1], eax
  00192	a0 04 00 00 00	 mov	 al, BYTE PTR ??_C@_04ENOBLEBN@0?$DL?$AN?6@+4
  00197	88 42 05	 mov	 BYTE PTR [edx+5], al

; 127  : 	GetVerticalScaleData( strVertScaleData, pIndicatorInfo->GetIndicatorName());

  0019a	ff 15 00 00 00
	00		 call	 DWORD PTR __imp_??1?$CStringT@DV?$StrTraitMFC_DLL@DV?$ChTraitsCRT@D@ATL@@@@@ATL@@QAE@XZ
; File C:\Program Files (x86)\Microsoft Visual Studio\2019\Community\VC\Tools\MSVC\14.29.30133\atlmfc\include\atlsimpstr.h

; 519  : 		return( GetData()->nDataLength );

  001a0	8b 45 c0	 mov	 eax, DWORD PTR _strVertScaleData$[ebp]
; File D:\git\src\IBK\IBK_DRFN\ProjSrc\SrcChartEx\ChartOCX\KTBChart\IndicatorDefaultData.cpp

; 135  : 	char *szVertScaleGroupData = p_strVertScaleGroupData.GetBufferSetLength( nVertScaleGroupDataLen);

  001a3	8b 4d b0	 mov	 ecx, DWORD PTR _p_strVertScaleGroupData$GSCopy$1$[ebp]
; File C:\Program Files (x86)\Microsoft Visual Studio\2019\Community\VC\Tools\MSVC\14.29.30133\atlmfc\include\atlsimpstr.h

; 519  : 		return( GetData()->nDataLength );

  001a6	8b 50 f4	 mov	 edx, DWORD PTR [eax-12]
  001a9	8b 45 c4	 mov	 eax, DWORD PTR _strGraphData$[ebp]
; File D:\git\src\IBK\IBK_DRFN\ProjSrc\SrcChartEx\ChartOCX\KTBChart\IndicatorDefaultData.cpp

; 133  : 	nVertScaleGroupDataLen += 20;		// "VertScaleGroupEnd;\r\n"

  001ac	83 c2 25	 add	 edx, 37			; 00000025H
; File C:\Program Files (x86)\Microsoft Visual Studio\2019\Community\VC\Tools\MSVC\14.29.30133\atlmfc\include\atlsimpstr.h

; 519  : 		return( GetData()->nDataLength );

  001af	8b 40 f4	 mov	 eax, DWORD PTR [eax-12]
; File D:\git\src\IBK\IBK_DRFN\ProjSrc\SrcChartEx\ChartOCX\KTBChart\IndicatorDefaultData.cpp

; 133  : 	nVertScaleGroupDataLen += 20;		// "VertScaleGroupEnd;\r\n"

  001b2	03 c2		 add	 eax, edx

; 135  : 	char *szVertScaleGroupData = p_strVertScaleGroupData.GetBufferSetLength( nVertScaleGroupDataLen);

  001b4	50		 push	 eax
  001b5	ff 15 00 00 00
	00		 call	 DWORD PTR __imp_?GetBufferSetLength@?$CSimpleStringT@D$00@ATL@@QAEPADH@Z

; 136  : 	
; 137  : 	strcpy( szVertScaleGroupData, "VertScaleGroup;\r\n");

  001bb	0f 10 05 00 00
	00 00		 movups	 xmm0, XMMWORD PTR ??_C@_0BC@DJOHDNOJ@VertScaleGroup?$DL?$AN?6@
  001c2	8b f0		 mov	 esi, eax
  001c4	0f 11 06	 movups	 XMMWORD PTR [esi], xmm0
  001c7	66 8b 0d 10 00
	00 00		 mov	 cx, WORD PTR ??_C@_0BC@DJOHDNOJ@VertScaleGroup?$DL?$AN?6@+16
  001ce	66 89 4e 10	 mov	 WORD PTR [esi+16], cx

; 138  : 	szVertScaleGroupData += 17;

  001d2	83 c6 11	 add	 esi, 17			; 00000011H
; File C:\Program Files (x86)\Microsoft Visual Studio\2019\Community\VC\Tools\MSVC\14.29.30133\atlmfc\include\atlsimpstr.h

; 377  : 		return( m_pszData );

  001d5	8b 4d c0	 mov	 ecx, DWORD PTR _strVertScaleData$[ebp]
; File D:\git\src\IBK\IBK_DRFN\ProjSrc\SrcChartEx\ChartOCX\KTBChart\IndicatorDefaultData.cpp

; 140  : 	strcpy( szVertScaleGroupData, strVertScaleData);

  001d8	8b d6		 mov	 edx, esi
  001da	66 0f 1f 44 00
	00		 npad	 6
$LL5@GetVertSca:
  001e0	8a 01		 mov	 al, BYTE PTR [ecx]
  001e2	8d 49 01	 lea	 ecx, DWORD PTR [ecx+1]
  001e5	88 02		 mov	 BYTE PTR [edx], al
  001e7	8d 52 01	 lea	 edx, DWORD PTR [edx+1]
  001ea	84 c0		 test	 al, al
  001ec	75 f2		 jne	 SHORT $LL5@GetVertSca

; 141  : 	szVertScaleGroupData += strVertScaleData.GetLength();

  001ee	8b 45 c0	 mov	 eax, DWORD PTR _strVertScaleData$[ebp]
; File C:\Program Files (x86)\Microsoft Visual Studio\2019\Community\VC\Tools\MSVC\14.29.30133\atlmfc\include\atlsimpstr.h

; 377  : 		return( m_pszData );

  001f1	8b 4d c4	 mov	 ecx, DWORD PTR _strGraphData$[ebp]
; File D:\git\src\IBK\IBK_DRFN\ProjSrc\SrcChartEx\ChartOCX\KTBChart\IndicatorDefaultData.cpp

; 141  : 	szVertScaleGroupData += strVertScaleData.GetLength();

  001f4	03 70 f4	 add	 esi, DWORD PTR [eax-12]

; 142  : 	
; 143  : 	strcpy( szVertScaleGroupData, strGraphData);

  001f7	8b d6		 mov	 edx, esi
  001f9	0f 1f 80 00 00
	00 00		 npad	 7
$LL6@GetVertSca:
  00200	8a 01		 mov	 al, BYTE PTR [ecx]
  00202	8d 49 01	 lea	 ecx, DWORD PTR [ecx+1]
  00205	88 02		 mov	 BYTE PTR [edx], al
  00207	8d 52 01	 lea	 edx, DWORD PTR [edx+1]
  0020a	84 c0		 test	 al, al
  0020c	75 f2		 jne	 SHORT $LL6@GetVertSca

; 144  : 	szVertScaleGroupData += strGraphData.GetLength();

  0020e	8b 45 c4	 mov	 eax, DWORD PTR _strGraphData$[ebp]

; 145  : 	
; 146  : 	strcpy( szVertScaleGroupData, "VertScaleGroupEnd;\r\n");

  00211	0f 10 05 00 00
	00 00		 movups	 xmm0, XMMWORD PTR ??_C@_0BF@DDJNMPKE@VertScaleGroupEnd?$DL?$AN?6@
  00218	8b 48 f4	 mov	 ecx, DWORD PTR [eax-12]
  0021b	0f 11 04 31	 movups	 XMMWORD PTR [ecx+esi], xmm0
  0021f	a1 10 00 00 00	 mov	 eax, DWORD PTR ??_C@_0BF@DDJNMPKE@VertScaleGroupEnd?$DL?$AN?6@+16
  00224	89 44 31 10	 mov	 DWORD PTR [ecx+esi+16], eax
  00228	a0 14 00 00 00	 mov	 al, BYTE PTR ??_C@_0BF@DDJNMPKE@VertScaleGroupEnd?$DL?$AN?6@+20
  0022d	88 44 31 14	 mov	 BYTE PTR [ecx+esi+20], al

; 147  : 	szVertScaleGroupData += 20;
; 148  : }

  00231	8d 4d c0	 lea	 ecx, DWORD PTR _strVertScaleData$[ebp]
  00234	ff 15 00 00 00
	00		 call	 DWORD PTR __imp_??1?$CStringT@DV?$StrTraitMFC_DLL@DV?$ChTraitsCRT@D@ATL@@@@@ATL@@QAE@XZ
$LN10@GetVertSca:
  0023a	8d 4d c4	 lea	 ecx, DWORD PTR _strGraphData$[ebp]
  0023d	ff 15 00 00 00
	00		 call	 DWORD PTR __imp_??1?$CStringT@DV?$StrTraitMFC_DLL@DV?$ChTraitsCRT@D@ATL@@@@@ATL@@QAE@XZ
$LN1@GetVertSca:
  00243	8b 4d f4	 mov	 ecx, DWORD PTR __$EHRec$[ebp]
  00246	64 89 0d 00 00
	00 00		 mov	 DWORD PTR fs:0, ecx
  0024d	59		 pop	 ecx
  0024e	5f		 pop	 edi
  0024f	5e		 pop	 esi
  00250	8b 4d f0	 mov	 ecx, DWORD PTR __$ArrayPad$[ebp]
  00253	33 cd		 xor	 ecx, ebp
  00255	e8 00 00 00 00	 call	 @__security_check_cookie@4
  0025a	8b e5		 mov	 esp, ebp
  0025c	5d		 pop	 ebp
  0025d	c2 08 00	 ret	 8
_TEXT	ENDS
;	COMDAT text$x
text$x	SEGMENT
__unwindfunclet$?GetVertScaleGroupDataForMaking@CIndicatorDefaultData@@ABEXAAV?$CStringT@DV?$StrTraitMFC_DLL@DV?$ChTraitsCRT@D@ATL@@@@@ATL@@PAVCIndicatorInfo@@@Z$0:
  00000	8d 4d c4	 lea	 ecx, DWORD PTR _strGraphData$[ebp]
  00003	ff 25 00 00 00
	00		 jmp	 DWORD PTR __imp_??1?$CStringT@DV?$StrTraitMFC_DLL@DV?$ChTraitsCRT@D@ATL@@@@@ATL@@QAE@XZ
__unwindfunclet$?GetVertScaleGroupDataForMaking@CIndicatorDefaultData@@ABEXAAV?$CStringT@DV?$StrTraitMFC_DLL@DV?$ChTraitsCRT@D@ATL@@@@@ATL@@PAVCIndicatorInfo@@@Z$1:
  00009	8d 4d c0	 lea	 ecx, DWORD PTR _strVertScaleData$[ebp]
  0000c	ff 25 00 00 00
	00		 jmp	 DWORD PTR __imp_??1?$CStringT@DV?$StrTraitMFC_DLL@DV?$ChTraitsCRT@D@ATL@@@@@ATL@@QAE@XZ
__unwindfunclet$?GetVertScaleGroupDataForMaking@CIndicatorDefaultData@@ABEXAAV?$CStringT@DV?$StrTraitMFC_DLL@DV?$ChTraitsCRT@D@ATL@@@@@ATL@@PAVCIndicatorInfo@@@Z$2:
  00012	8d 4d b4	 lea	 ecx, DWORD PTR $T2[ebp]
  00015	ff 25 00 00 00
	00		 jmp	 DWORD PTR __imp_??1?$CStringT@DV?$StrTraitMFC_DLL@DV?$ChTraitsCRT@D@ATL@@@@@ATL@@QAE@XZ
  0001b	cc		 int	 3
  0001c	cc		 int	 3
  0001d	cc		 int	 3
  0001e	cc		 int	 3
  0001f	cc		 int	 3
__ehhandler$?GetVertScaleGroupDataForMaking@CIndicatorDefaultData@@ABEXAAV?$CStringT@DV?$StrTraitMFC_DLL@DV?$ChTraitsCRT@D@ATL@@@@@ATL@@PAVCIndicatorInfo@@@Z:
  00020	90		 npad	 1
  00021	90		 npad	 1
  00022	8b 54 24 08	 mov	 edx, DWORD PTR [esp+8]
  00026	8d 42 0c	 lea	 eax, DWORD PTR [edx+12]
  00029	8b 4a b0	 mov	 ecx, DWORD PTR [edx-80]
  0002c	33 c8		 xor	 ecx, eax
  0002e	e8 00 00 00 00	 call	 @__security_check_cookie@4
  00033	8b 4a fc	 mov	 ecx, DWORD PTR [edx-4]
  00036	33 c8		 xor	 ecx, eax
  00038	e8 00 00 00 00	 call	 @__security_check_cookie@4
  0003d	b8 00 00 00 00	 mov	 eax, OFFSET __ehfuncinfo$?GetVertScaleGroupDataForMaking@CIndicatorDefaultData@@ABEXAAV?$CStringT@DV?$StrTraitMFC_DLL@DV?$ChTraitsCRT@D@ATL@@@@@ATL@@PAVCIndicatorInfo@@@Z
  00042	e9 00 00 00 00	 jmp	 ___CxxFrameHandler3
text$x	ENDS
?GetVertScaleGroupDataForMaking@CIndicatorDefaultData@@ABEXAAV?$CStringT@DV?$StrTraitMFC_DLL@DV?$ChTraitsCRT@D@ATL@@@@@ATL@@PAVCIndicatorInfo@@@Z ENDP ; CIndicatorDefaultData::GetVertScaleGroupDataForMaking
; Function compile flags: /Ogtp
; File D:\git\src\IBK\IBK_DRFN\ProjSrc\SrcChartEx\ChartOCX\KTBChart\IndicatorDefaultData.cpp
; File C:\Program Files (x86)\Microsoft Visual Studio\2019\Community\VC\Tools\MSVC\14.29.30133\atlmfc\include\atlsimpstr.h
; File D:\git\src\IBK\IBK_DRFN\ProjSrc\SrcChartEx\ChartOCX\KTBChart\IndicatorDefaultData.cpp
;	COMDAT ?GetVertScaleGroupDataForMaking@CIndicatorDefaultData@@QBEHAAV?$CStringT@DV?$StrTraitMFC_DLL@DV?$ChTraitsCRT@D@ATL@@@@@ATL@@PAVCIndicatorList@@ABV23@0@Z
_TEXT	SEGMENT
_this$1$ = -16						; size = 4
__$EHRec$ = -12						; size = 12
$T2 = 8							; size = 4
_p_strVertScaleGroupData$ = 8				; size = 4
_pIndicatorList$ = 12					; size = 4
_strIndicatorName$ = 16					; size = 4
_p_strGraphName$ = 20					; size = 4
?GetVertScaleGroupDataForMaking@CIndicatorDefaultData@@QBEHAAV?$CStringT@DV?$StrTraitMFC_DLL@DV?$ChTraitsCRT@D@ATL@@@@@ATL@@PAVCIndicatorList@@ABV23@0@Z PROC ; CIndicatorDefaultData::GetVertScaleGroupDataForMaking, COMDAT
; _this$ = ecx

; 104  : {

  00000	55		 push	 ebp
  00001	8b ec		 mov	 ebp, esp
  00003	6a ff		 push	 -1
  00005	68 00 00 00 00	 push	 __ehhandler$?GetVertScaleGroupDataForMaking@CIndicatorDefaultData@@QBEHAAV?$CStringT@DV?$StrTraitMFC_DLL@DV?$ChTraitsCRT@D@ATL@@@@@ATL@@PAVCIndicatorList@@ABV23@0@Z
  0000a	64 a1 00 00 00
	00		 mov	 eax, DWORD PTR fs:0
  00010	50		 push	 eax
  00011	51		 push	 ecx
  00012	56		 push	 esi
  00013	a1 00 00 00 00	 mov	 eax, DWORD PTR ___security_cookie
  00018	33 c5		 xor	 eax, ebp
  0001a	50		 push	 eax
  0001b	8d 45 f4	 lea	 eax, DWORD PTR __$EHRec$[ebp]
  0001e	64 a3 00 00 00
	00		 mov	 DWORD PTR fs:0, eax
  00024	89 4d f0	 mov	 DWORD PTR _this$1$[ebp], ecx

; 105  : 	p_strGraphName.Empty();

  00027	8b 4d 14	 mov	 ecx, DWORD PTR _p_strGraphName$[ebp]
  0002a	ff 15 00 00 00
	00		 call	 DWORD PTR __imp_?Empty@?$CSimpleStringT@D$00@ATL@@QAEXXZ

; 106  : 	p_strVertScaleGroupData.Empty();

  00030	8b 4d 08	 mov	 ecx, DWORD PTR _p_strVertScaleGroupData$[ebp]
  00033	ff 15 00 00 00
	00		 call	 DWORD PTR __imp_?Empty@?$CSimpleStringT@D$00@ATL@@QAEXXZ

; 107  : 	if( !pIndicatorList) return FALSE;

  00039	8b 4d 0c	 mov	 ecx, DWORD PTR _pIndicatorList$[ebp]
  0003c	85 c9		 test	 ecx, ecx
  0003e	74 5a		 je	 SHORT $LN8@GetVertSca
; File C:\Program Files (x86)\Microsoft Visual Studio\2019\Community\VC\Tools\MSVC\14.29.30133\atlmfc\include\atlsimpstr.h

; 377  : 		return( m_pszData );

  00040	8b 45 10	 mov	 eax, DWORD PTR _strIndicatorName$[ebp]
; File D:\git\src\IBK\IBK_DRFN\ProjSrc\SrcChartEx\ChartOCX\KTBChart\IndicatorDefaultData.cpp

; 108  : 	CIndicatorInfo *pIndicatorInfo = pIndicatorList->CreateGraphIndicatorInfo( strIndicatorName);

  00043	ff 30		 push	 DWORD PTR [eax]
  00045	ff 15 00 00 00
	00		 call	 DWORD PTR __imp_?CreateGraphIndicatorInfo@CIndicatorList@@QAEPAVCIndicatorInfo@@PBD@Z
  0004b	8b f0		 mov	 esi, eax

; 109  : 	if( !pIndicatorInfo) return FALSE;

  0004d	85 f6		 test	 esi, esi
  0004f	74 49		 je	 SHORT $LN8@GetVertSca

; 110  : 	GetVertScaleGroupDataForMaking( p_strVertScaleGroupData, pIndicatorInfo);

  00051	8b 4d f0	 mov	 ecx, DWORD PTR _this$1$[ebp]
  00054	56		 push	 esi
  00055	ff 75 08	 push	 DWORD PTR _p_strVertScaleGroupData$[ebp]
  00058	e8 00 00 00 00	 call	 ?GetVertScaleGroupDataForMaking@CIndicatorDefaultData@@ABEXAAV?$CStringT@DV?$StrTraitMFC_DLL@DV?$ChTraitsCRT@D@ATL@@@@@ATL@@PAVCIndicatorInfo@@@Z ; CIndicatorDefaultData::GetVertScaleGroupDataForMaking

; 111  : 	p_strGraphName = pIndicatorInfo->GetGraphName();

  0005d	8d 45 08	 lea	 eax, DWORD PTR $T2[ebp]
  00060	8b ce		 mov	 ecx, esi
  00062	50		 push	 eax
  00063	ff 15 00 00 00
	00		 call	 DWORD PTR __imp_?GetGraphName@CIndicatorInfo@@QBE?AV?$CStringT@DV?$StrTraitMFC_DLL@DV?$ChTraitsCRT@D@ATL@@@@@ATL@@XZ
  00069	8b 4d 14	 mov	 ecx, DWORD PTR _p_strGraphName$[ebp]
  0006c	50		 push	 eax
  0006d	c7 45 fc 00 00
	00 00		 mov	 DWORD PTR __$EHRec$[ebp+8], 0
  00074	ff 15 00 00 00
	00		 call	 DWORD PTR __imp_??4?$CStringT@DV?$StrTraitMFC_DLL@DV?$ChTraitsCRT@D@ATL@@@@@ATL@@QAEAAV01@ABV01@@Z
  0007a	8d 4d 08	 lea	 ecx, DWORD PTR $T2[ebp]
  0007d	ff 15 00 00 00
	00		 call	 DWORD PTR __imp_??1?$CStringT@DV?$StrTraitMFC_DLL@DV?$ChTraitsCRT@D@ATL@@@@@ATL@@QAE@XZ

; 112  : 	return TRUE;

  00083	b8 01 00 00 00	 mov	 eax, 1

; 113  : }

  00088	8b 4d f4	 mov	 ecx, DWORD PTR __$EHRec$[ebp]
  0008b	64 89 0d 00 00
	00 00		 mov	 DWORD PTR fs:0, ecx
  00092	59		 pop	 ecx
  00093	5e		 pop	 esi
  00094	8b e5		 mov	 esp, ebp
  00096	5d		 pop	 ebp
  00097	c2 10 00	 ret	 16			; 00000010H
$LN8@GetVertSca:

; 109  : 	if( !pIndicatorInfo) return FALSE;

  0009a	33 c0		 xor	 eax, eax

; 113  : }

  0009c	8b 4d f4	 mov	 ecx, DWORD PTR __$EHRec$[ebp]
  0009f	64 89 0d 00 00
	00 00		 mov	 DWORD PTR fs:0, ecx
  000a6	59		 pop	 ecx
  000a7	5e		 pop	 esi
  000a8	8b e5		 mov	 esp, ebp
  000aa	5d		 pop	 ebp
  000ab	c2 10 00	 ret	 16			; 00000010H
_TEXT	ENDS
;	COMDAT text$x
text$x	SEGMENT
__unwindfunclet$?GetVertScaleGroupDataForMaking@CIndicatorDefaultData@@QBEHAAV?$CStringT@DV?$StrTraitMFC_DLL@DV?$ChTraitsCRT@D@ATL@@@@@ATL@@PAVCIndicatorList@@ABV23@0@Z$0:
  00000	8d 4d 08	 lea	 ecx, DWORD PTR $T2[ebp]
  00003	ff 25 00 00 00
	00		 jmp	 DWORD PTR __imp_??1?$CStringT@DV?$StrTraitMFC_DLL@DV?$ChTraitsCRT@D@ATL@@@@@ATL@@QAE@XZ
  00009	cc		 int	 3
  0000a	cc		 int	 3
  0000b	cc		 int	 3
  0000c	cc		 int	 3
  0000d	cc		 int	 3
__ehhandler$?GetVertScaleGroupDataForMaking@CIndicatorDefaultData@@QBEHAAV?$CStringT@DV?$StrTraitMFC_DLL@DV?$ChTraitsCRT@D@ATL@@@@@ATL@@PAVCIndicatorList@@ABV23@0@Z:
  0000e	90		 npad	 1
  0000f	90		 npad	 1
  00010	8b 54 24 08	 mov	 edx, DWORD PTR [esp+8]
  00014	8d 42 0c	 lea	 eax, DWORD PTR [edx+12]
  00017	8b 4a f4	 mov	 ecx, DWORD PTR [edx-12]
  0001a	33 c8		 xor	 ecx, eax
  0001c	e8 00 00 00 00	 call	 @__security_check_cookie@4
  00021	b8 00 00 00 00	 mov	 eax, OFFSET __ehfuncinfo$?GetVertScaleGroupDataForMaking@CIndicatorDefaultData@@QBEHAAV?$CStringT@DV?$StrTraitMFC_DLL@DV?$ChTraitsCRT@D@ATL@@@@@ATL@@PAVCIndicatorList@@ABV23@0@Z
  00026	e9 00 00 00 00	 jmp	 ___CxxFrameHandler3
text$x	ENDS
?GetVertScaleGroupDataForMaking@CIndicatorDefaultData@@QBEHAAV?$CStringT@DV?$StrTraitMFC_DLL@DV?$ChTraitsCRT@D@ATL@@@@@ATL@@PAVCIndicatorList@@ABV23@0@Z ENDP ; CIndicatorDefaultData::GetVertScaleGroupDataForMaking
; Function compile flags: /Ogtp
; File D:\git\src\IBK\IBK_DRFN\ProjSrc\SrcChartEx\ChartOCX\KTBChart\IndicatorDefaultData.cpp
; File C:\Program Files (x86)\Microsoft Visual Studio\2019\Community\VC\Tools\MSVC\14.29.30133\atlmfc\include\atlsimpstr.h
; File D:\git\src\IBK\IBK_DRFN\ProjSrc\SrcChartEx\ChartOCX\KTBChart\IndicatorDefaultData.cpp
; File C:\Program Files (x86)\Microsoft Visual Studio\2019\Community\VC\Tools\MSVC\14.29.30133\atlmfc\include\atlsimpstr.h
; File D:\git\src\IBK\IBK_DRFN\ProjSrc\SrcChartEx\ChartOCX\KTBChart\IndicatorDefaultData.cpp
; File C:\Program Files (x86)\Microsoft Visual Studio\2019\Community\VC\Tools\MSVC\14.29.30133\atlmfc\include\atlsimpstr.h
; File D:\git\src\IBK\IBK_DRFN\ProjSrc\SrcChartEx\ChartOCX\KTBChart\IndicatorDefaultData.cpp
; File C:\Program Files (x86)\Microsoft Visual Studio\2019\Community\VC\Tools\MSVC\14.29.30133\atlmfc\include\atlsimpstr.h
; File D:\git\src\IBK\IBK_DRFN\ProjSrc\SrcChartEx\ChartOCX\KTBChart\IndicatorDefaultData.cpp
; File C:\Program Files (x86)\Microsoft Visual Studio\2019\Community\VC\Tools\MSVC\14.29.30133\atlmfc\include\atlsimpstr.h
; File D:\git\src\IBK\IBK_DRFN\ProjSrc\SrcChartEx\ChartOCX\KTBChart\IndicatorDefaultData.cpp
; File C:\Program Files (x86)\Microsoft Visual Studio\2019\Community\VC\Tools\MSVC\14.29.30133\atlmfc\include\atlsimpstr.h
; File D:\git\src\IBK\IBK_DRFN\ProjSrc\SrcChartEx\ChartOCX\KTBChart\IndicatorDefaultData.cpp
; File C:\Program Files (x86)\Microsoft Visual Studio\2019\Community\VC\Tools\MSVC\14.29.30133\atlmfc\include\atlsimpstr.h
; File D:\git\src\IBK\IBK_DRFN\ProjSrc\SrcChartEx\ChartOCX\KTBChart\IndicatorDefaultData.cpp
; File C:\Program Files (x86)\Microsoft Visual Studio\2019\Community\VC\Tools\MSVC\14.29.30133\atlmfc\include\atlsimpstr.h
; File D:\git\src\IBK\IBK_DRFN\ProjSrc\SrcChartEx\ChartOCX\KTBChart\IndicatorDefaultData.cpp
;	COMDAT ?GetBlockDataForMaking@CIndicatorDefaultData@@QAEHAAV?$CStringT@DV?$StrTraitMFC_DLL@DV?$ChTraitsCRT@D@ATL@@@@@ATL@@PAVCIndicatorList@@ABV23@W4SCALEGRIDTYPE@CScaleBaseData@@30@Z
_TEXT	SEGMENT
_this$1$ = -24						; size = 4
_strHorizontalScaleData$ = -20				; size = 4
_strVertScaleGroupData$ = -16				; size = 4
__$EHRec$ = -12						; size = 12
_p_strBlockData$ = 8					; size = 4
_pIndicatorList$ = 12					; size = 4
_strIndicatorName$ = 16					; size = 4
_eHorzGridType$ = 20					; size = 4
_eVertGridType$ = 24					; size = 4
$T2 = 28						; size = 4
_p_strGraphName$ = 28					; size = 4
?GetBlockDataForMaking@CIndicatorDefaultData@@QAEHAAV?$CStringT@DV?$StrTraitMFC_DLL@DV?$ChTraitsCRT@D@ATL@@@@@ATL@@PAVCIndicatorList@@ABV23@W4SCALEGRIDTYPE@CScaleBaseData@@30@Z PROC ; CIndicatorDefaultData::GetBlockDataForMaking, COMDAT
; _this$ = ecx

; 62   : {

  00000	55		 push	 ebp
  00001	8b ec		 mov	 ebp, esp
  00003	6a ff		 push	 -1
  00005	68 00 00 00 00	 push	 __ehhandler$?GetBlockDataForMaking@CIndicatorDefaultData@@QAEHAAV?$CStringT@DV?$StrTraitMFC_DLL@DV?$ChTraitsCRT@D@ATL@@@@@ATL@@PAVCIndicatorList@@ABV23@W4SCALEGRIDTYPE@CScaleBaseData@@30@Z
  0000a	64 a1 00 00 00
	00		 mov	 eax, DWORD PTR fs:0
  00010	50		 push	 eax
  00011	83 ec 0c	 sub	 esp, 12			; 0000000cH
  00014	56		 push	 esi
  00015	57		 push	 edi
  00016	a1 00 00 00 00	 mov	 eax, DWORD PTR ___security_cookie
  0001b	33 c5		 xor	 eax, ebp
  0001d	50		 push	 eax
  0001e	8d 45 f4	 lea	 eax, DWORD PTR __$EHRec$[ebp]
  00021	64 a3 00 00 00
	00		 mov	 DWORD PTR fs:0, eax
  00027	8b f9		 mov	 edi, ecx
  00029	89 7d e8	 mov	 DWORD PTR _this$1$[ebp], edi

; 63   : 	p_strBlockData.Empty();

  0002c	8b 4d 08	 mov	 ecx, DWORD PTR _p_strBlockData$[ebp]
  0002f	ff 15 00 00 00
	00		 call	 DWORD PTR __imp_?Empty@?$CSimpleStringT@D$00@ATL@@QAEXXZ

; 64   : 	p_strGraphName.Empty();

  00035	8b 75 1c	 mov	 esi, DWORD PTR _p_strGraphName$[ebp]
  00038	8b ce		 mov	 ecx, esi
  0003a	ff 15 00 00 00
	00		 call	 DWORD PTR __imp_?Empty@?$CSimpleStringT@D$00@ATL@@QAEXXZ
; File C:\Program Files (x86)\Microsoft Visual Studio\2019\Community\VC\Tools\MSVC\14.29.30133\atlmfc\include\atlsimpstr.h

; 519  : 		return( GetData()->nDataLength );

  00040	8b 45 10	 mov	 eax, DWORD PTR _strIndicatorName$[ebp]
  00043	8b 00		 mov	 eax, DWORD PTR [eax]

; 533  : 		return( GetLength() == 0 );

  00045	83 78 f4 00	 cmp	 DWORD PTR [eax-12], 0
; File D:\git\src\IBK\IBK_DRFN\ProjSrc\SrcChartEx\ChartOCX\KTBChart\IndicatorDefaultData.cpp

; 65   : 	if( strIndicatorName.IsEmpty()) return FALSE;

  00049	75 15		 jne	 SHORT $LN2@GetBlockDa
  0004b	33 c0		 xor	 eax, eax

; 99   : }

  0004d	8b 4d f4	 mov	 ecx, DWORD PTR __$EHRec$[ebp]
  00050	64 89 0d 00 00
	00 00		 mov	 DWORD PTR fs:0, ecx
  00057	59		 pop	 ecx
  00058	5f		 pop	 edi
  00059	5e		 pop	 esi
  0005a	8b e5		 mov	 esp, ebp
  0005c	5d		 pop	 ebp
  0005d	c2 18 00	 ret	 24			; 00000018H
$LN2@GetBlockDa:

; 66   : 
; 67   : 	// vertScaleGroup 부분.
; 68   : 	m_eBaseGridType = eVertGridType;

  00060	8b 45 18	 mov	 eax, DWORD PTR _eVertGridType$[ebp]

; 69   : 	CString strVertScaleGroupData;

  00063	8d 4d f0	 lea	 ecx, DWORD PTR _strVertScaleGroupData$[ebp]
  00066	89 07		 mov	 DWORD PTR [edi], eax
  00068	ff 15 00 00 00
	00		 call	 DWORD PTR __imp_??0?$CStringT@DV?$StrTraitMFC_DLL@DV?$ChTraitsCRT@D@ATL@@@@@ATL@@QAE@XZ

; 105  : 	p_strGraphName.Empty();

  0006e	8b ce		 mov	 ecx, esi

; 69   : 	CString strVertScaleGroupData;

  00070	c7 45 fc 00 00
	00 00		 mov	 DWORD PTR __$EHRec$[ebp+8], 0

; 105  : 	p_strGraphName.Empty();

  00077	ff 15 00 00 00
	00		 call	 DWORD PTR __imp_?Empty@?$CSimpleStringT@D$00@ATL@@QAEXXZ

; 106  : 	p_strVertScaleGroupData.Empty();

  0007d	8d 4d f0	 lea	 ecx, DWORD PTR _strVertScaleGroupData$[ebp]
  00080	ff 15 00 00 00
	00		 call	 DWORD PTR __imp_?Empty@?$CSimpleStringT@D$00@ATL@@QAEXXZ

; 107  : 	if( !pIndicatorList) return FALSE;

  00086	8b 4d 0c	 mov	 ecx, DWORD PTR _pIndicatorList$[ebp]
  00089	85 c9		 test	 ecx, ecx
  0008b	74 47		 je	 SHORT $LN17@GetBlockDa

; 108  : 	CIndicatorInfo *pIndicatorInfo = pIndicatorList->CreateGraphIndicatorInfo( strIndicatorName);

  0008d	8b 45 10	 mov	 eax, DWORD PTR _strIndicatorName$[ebp]
  00090	ff 30		 push	 DWORD PTR [eax]
  00092	ff 15 00 00 00
	00		 call	 DWORD PTR __imp_?CreateGraphIndicatorInfo@CIndicatorList@@QAEPAVCIndicatorInfo@@PBD@Z
  00098	8b f8		 mov	 edi, eax

; 109  : 	if( !pIndicatorInfo) return FALSE;

  0009a	85 ff		 test	 edi, edi
  0009c	74 33		 je	 SHORT $LN101@GetBlockDa

; 110  : 	GetVertScaleGroupDataForMaking( p_strVertScaleGroupData, pIndicatorInfo);

  0009e	8b 4d e8	 mov	 ecx, DWORD PTR _this$1$[ebp]
  000a1	8d 45 f0	 lea	 eax, DWORD PTR _strVertScaleGroupData$[ebp]
  000a4	57		 push	 edi
  000a5	50		 push	 eax
  000a6	e8 00 00 00 00	 call	 ?GetVertScaleGroupDataForMaking@CIndicatorDefaultData@@ABEXAAV?$CStringT@DV?$StrTraitMFC_DLL@DV?$ChTraitsCRT@D@ATL@@@@@ATL@@PAVCIndicatorInfo@@@Z ; CIndicatorDefaultData::GetVertScaleGroupDataForMaking

; 111  : 	p_strGraphName = pIndicatorInfo->GetGraphName();

  000ab	8d 45 1c	 lea	 eax, DWORD PTR $T2[ebp]
  000ae	8b cf		 mov	 ecx, edi
  000b0	50		 push	 eax
  000b1	ff 15 00 00 00
	00		 call	 DWORD PTR __imp_?GetGraphName@CIndicatorInfo@@QBE?AV?$CStringT@DV?$StrTraitMFC_DLL@DV?$ChTraitsCRT@D@ATL@@@@@ATL@@XZ
  000b7	50		 push	 eax
  000b8	8b ce		 mov	 ecx, esi
  000ba	c6 45 fc 01	 mov	 BYTE PTR __$EHRec$[ebp+8], 1
  000be	ff 15 00 00 00
	00		 call	 DWORD PTR __imp_??4?$CStringT@DV?$StrTraitMFC_DLL@DV?$ChTraitsCRT@D@ATL@@@@@ATL@@QAEAAV01@ABV01@@Z
  000c4	8d 4d 1c	 lea	 ecx, DWORD PTR $T2[ebp]
  000c7	c6 45 fc 00	 mov	 BYTE PTR __$EHRec$[ebp+8], 0
  000cb	ff 15 00 00 00
	00		 call	 DWORD PTR __imp_??1?$CStringT@DV?$StrTraitMFC_DLL@DV?$ChTraitsCRT@D@ATL@@@@@ATL@@QAE@XZ
$LN101@GetBlockDa:
; File C:\Program Files (x86)\Microsoft Visual Studio\2019\Community\VC\Tools\MSVC\14.29.30133\atlmfc\include\atlsimpstr.h

; 519  : 		return( GetData()->nDataLength );

  000d1	8b 7d e8	 mov	 edi, DWORD PTR _this$1$[ebp]
$LN17@GetBlockDa:
  000d4	8b 45 f0	 mov	 eax, DWORD PTR _strVertScaleGroupData$[ebp]

; 533  : 		return( GetLength() == 0 );

  000d7	83 78 f4 00	 cmp	 DWORD PTR [eax-12], 0
; File D:\git\src\IBK\IBK_DRFN\ProjSrc\SrcChartEx\ChartOCX\KTBChart\IndicatorDefaultData.cpp

; 71   : 	if( strVertScaleGroupData.IsEmpty() || p_strGraphName.IsEmpty()) return FALSE;

  000db	0f 84 dc 00 00
	00		 je	 $LN4@GetBlockDa
; File C:\Program Files (x86)\Microsoft Visual Studio\2019\Community\VC\Tools\MSVC\14.29.30133\atlmfc\include\atlsimpstr.h

; 519  : 		return( GetData()->nDataLength );

  000e1	8b 06		 mov	 eax, DWORD PTR [esi]

; 533  : 		return( GetLength() == 0 );

  000e3	83 78 f4 00	 cmp	 DWORD PTR [eax-12], 0
; File D:\git\src\IBK\IBK_DRFN\ProjSrc\SrcChartEx\ChartOCX\KTBChart\IndicatorDefaultData.cpp

; 71   : 	if( strVertScaleGroupData.IsEmpty() || p_strGraphName.IsEmpty()) return FALSE;

  000e7	0f 84 d0 00 00
	00		 je	 $LN4@GetBlockDa

; 72   : 
; 73   : 	// 가로 scale 부분.
; 74   : 	m_eBaseGridType = eHorzGridType;

  000ed	8b 45 14	 mov	 eax, DWORD PTR _eHorzGridType$[ebp]

; 75   : 
; 76   : 	CString strHorizontalScaleData = GetHorizontalScaleData( strIndicatorName, TRUE);

  000f0	8b cf		 mov	 ecx, edi
  000f2	6a 01		 push	 1
  000f4	ff 75 10	 push	 DWORD PTR _strIndicatorName$[ebp]
  000f7	89 07		 mov	 DWORD PTR [edi], eax
  000f9	8d 45 ec	 lea	 eax, DWORD PTR _strHorizontalScaleData$[ebp]
  000fc	50		 push	 eax
  000fd	e8 00 00 00 00	 call	 ?GetHorizontalScaleData@CIndicatorDefaultData@@ABE?AV?$CStringT@DV?$StrTraitMFC_DLL@DV?$ChTraitsCRT@D@ATL@@@@@ATL@@ABV23@H@Z ; CIndicatorDefaultData::GetHorizontalScaleData
; File C:\Program Files (x86)\Microsoft Visual Studio\2019\Community\VC\Tools\MSVC\14.29.30133\atlmfc\include\atlsimpstr.h

; 519  : 		return( GetData()->nDataLength );

  00102	8b 45 ec	 mov	 eax, DWORD PTR _strHorizontalScaleData$[ebp]
; File D:\git\src\IBK\IBK_DRFN\ProjSrc\SrcChartEx\ChartOCX\KTBChart\IndicatorDefaultData.cpp

; 84   : 	char *szBlockData = p_strBlockData.GetBufferSetLength( nBlockDataLen);

  00105	8b 4d 08	 mov	 ecx, DWORD PTR _p_strBlockData$[ebp]
  00108	c6 45 fc 02	 mov	 BYTE PTR __$EHRec$[ebp+8], 2
; File C:\Program Files (x86)\Microsoft Visual Studio\2019\Community\VC\Tools\MSVC\14.29.30133\atlmfc\include\atlsimpstr.h

; 519  : 		return( GetData()->nDataLength );

  0010c	8b 50 f4	 mov	 edx, DWORD PTR [eax-12]
  0010f	8b 45 f0	 mov	 eax, DWORD PTR _strVertScaleGroupData$[ebp]
; File D:\git\src\IBK\IBK_DRFN\ProjSrc\SrcChartEx\ChartOCX\KTBChart\IndicatorDefaultData.cpp

; 82   : 	nBlockDataLen += 28;									// "BlockEnd;\r\nBlockColumnEnd;\r\n"

  00112	83 c2 32	 add	 edx, 50			; 00000032H
; File C:\Program Files (x86)\Microsoft Visual Studio\2019\Community\VC\Tools\MSVC\14.29.30133\atlmfc\include\atlsimpstr.h

; 519  : 		return( GetData()->nDataLength );

  00115	8b 40 f4	 mov	 eax, DWORD PTR [eax-12]
; File D:\git\src\IBK\IBK_DRFN\ProjSrc\SrcChartEx\ChartOCX\KTBChart\IndicatorDefaultData.cpp

; 82   : 	nBlockDataLen += 28;									// "BlockEnd;\r\nBlockColumnEnd;\r\n"

  00118	03 c2		 add	 eax, edx

; 84   : 	char *szBlockData = p_strBlockData.GetBufferSetLength( nBlockDataLen);

  0011a	50		 push	 eax
  0011b	ff 15 00 00 00
	00		 call	 DWORD PTR __imp_?GetBufferSetLength@?$CSimpleStringT@D$00@ATL@@QAEPADH@Z

; 85   : 	
; 86   : 	strcpy( szBlockData, "BlockColumn;\r\nBlock;\r\n");

  00121	0f 10 05 00 00
	00 00		 movups	 xmm0, XMMWORD PTR ??_C@_0BH@CLHAEGOH@BlockColumn?$DL?$AN?6Block?$DL?$AN?6@
  00128	8b f0		 mov	 esi, eax
  0012a	0f 11 06	 movups	 XMMWORD PTR [esi], xmm0
  0012d	8b 0d 10 00 00
	00		 mov	 ecx, DWORD PTR ??_C@_0BH@CLHAEGOH@BlockColumn?$DL?$AN?6Block?$DL?$AN?6@+16
  00133	89 4e 10	 mov	 DWORD PTR [esi+16], ecx
  00136	66 8b 0d 14 00
	00 00		 mov	 cx, WORD PTR ??_C@_0BH@CLHAEGOH@BlockColumn?$DL?$AN?6Block?$DL?$AN?6@+20
  0013d	66 89 4e 14	 mov	 WORD PTR [esi+20], cx
  00141	8a 0d 16 00 00
	00		 mov	 cl, BYTE PTR ??_C@_0BH@CLHAEGOH@BlockColumn?$DL?$AN?6Block?$DL?$AN?6@+22
  00147	88 4e 16	 mov	 BYTE PTR [esi+22], cl

; 87   : 	szBlockData += 22;

  0014a	83 c6 16	 add	 esi, 22			; 00000016H
; File C:\Program Files (x86)\Microsoft Visual Studio\2019\Community\VC\Tools\MSVC\14.29.30133\atlmfc\include\atlsimpstr.h

; 377  : 		return( m_pszData );

  0014d	8b 4d ec	 mov	 ecx, DWORD PTR _strHorizontalScaleData$[ebp]
; File D:\git\src\IBK\IBK_DRFN\ProjSrc\SrcChartEx\ChartOCX\KTBChart\IndicatorDefaultData.cpp

; 89   : 	strcpy( szBlockData, strHorizontalScaleData);

  00150	8b d6		 mov	 edx, esi
$LL6@GetBlockDa:
  00152	8a 01		 mov	 al, BYTE PTR [ecx]
  00154	8d 49 01	 lea	 ecx, DWORD PTR [ecx+1]
  00157	88 02		 mov	 BYTE PTR [edx], al
  00159	8d 52 01	 lea	 edx, DWORD PTR [edx+1]
  0015c	84 c0		 test	 al, al
  0015e	75 f2		 jne	 SHORT $LL6@GetBlockDa

; 90   : 	szBlockData += strHorizontalScaleData.GetLength();

  00160	8b 45 ec	 mov	 eax, DWORD PTR _strHorizontalScaleData$[ebp]
; File C:\Program Files (x86)\Microsoft Visual Studio\2019\Community\VC\Tools\MSVC\14.29.30133\atlmfc\include\atlsimpstr.h

; 377  : 		return( m_pszData );

  00163	8b 4d f0	 mov	 ecx, DWORD PTR _strVertScaleGroupData$[ebp]
; File D:\git\src\IBK\IBK_DRFN\ProjSrc\SrcChartEx\ChartOCX\KTBChart\IndicatorDefaultData.cpp

; 90   : 	szBlockData += strHorizontalScaleData.GetLength();

  00166	03 70 f4	 add	 esi, DWORD PTR [eax-12]

; 91   : 
; 92   : 	strcpy( szBlockData, strVertScaleGroupData);

  00169	8b d6		 mov	 edx, esi
  0016b	0f 1f 44 00 00	 npad	 5
$LL7@GetBlockDa:
  00170	8a 01		 mov	 al, BYTE PTR [ecx]
  00172	8d 49 01	 lea	 ecx, DWORD PTR [ecx+1]
  00175	88 02		 mov	 BYTE PTR [edx], al
  00177	8d 52 01	 lea	 edx, DWORD PTR [edx+1]
  0017a	84 c0		 test	 al, al
  0017c	75 f2		 jne	 SHORT $LL7@GetBlockDa

; 93   : 	szBlockData += strVertScaleGroupData.GetLength();

  0017e	8b 45 f0	 mov	 eax, DWORD PTR _strVertScaleGroupData$[ebp]

; 94   : 	
; 95   : 	strcpy( szBlockData, "BlockEnd;\r\nBlockColumnEnd;\r\n");

  00181	0f 10 05 00 00
	00 00		 movups	 xmm0, XMMWORD PTR ??_C@_0BN@FJPDGLHN@BlockEnd?$DL?$AN?6BlockColumnEnd?$DL?$AN?6@
  00188	8b 48 f4	 mov	 ecx, DWORD PTR [eax-12]
  0018b	03 ce		 add	 ecx, esi

; 96   : 	szBlockData += 28;
; 97   : 
; 98   : 	return TRUE;

  0018d	be 01 00 00 00	 mov	 esi, 1
  00192	0f 11 01	 movups	 XMMWORD PTR [ecx], xmm0
  00195	f3 0f 7e 05 10
	00 00 00	 movq	 xmm0, QWORD PTR ??_C@_0BN@FJPDGLHN@BlockEnd?$DL?$AN?6BlockColumnEnd?$DL?$AN?6@+16
  0019d	66 0f d6 41 10	 movq	 QWORD PTR [ecx+16], xmm0
  001a2	a1 18 00 00 00	 mov	 eax, DWORD PTR ??_C@_0BN@FJPDGLHN@BlockEnd?$DL?$AN?6BlockColumnEnd?$DL?$AN?6@+24
  001a7	89 41 18	 mov	 DWORD PTR [ecx+24], eax
  001aa	a0 1c 00 00 00	 mov	 al, BYTE PTR ??_C@_0BN@FJPDGLHN@BlockEnd?$DL?$AN?6BlockColumnEnd?$DL?$AN?6@+28
  001af	88 41 1c	 mov	 BYTE PTR [ecx+28], al
  001b2	8d 4d ec	 lea	 ecx, DWORD PTR _strHorizontalScaleData$[ebp]
  001b5	ff 15 00 00 00
	00		 call	 DWORD PTR __imp_??1?$CStringT@DV?$StrTraitMFC_DLL@DV?$ChTraitsCRT@D@ATL@@@@@ATL@@QAE@XZ
  001bb	eb 02		 jmp	 SHORT $LN10@GetBlockDa
$LN4@GetBlockDa:
  001bd	33 f6		 xor	 esi, esi
$LN10@GetBlockDa:
  001bf	8d 4d f0	 lea	 ecx, DWORD PTR _strVertScaleGroupData$[ebp]
  001c2	ff 15 00 00 00
	00		 call	 DWORD PTR __imp_??1?$CStringT@DV?$StrTraitMFC_DLL@DV?$ChTraitsCRT@D@ATL@@@@@ATL@@QAE@XZ
  001c8	8b c6		 mov	 eax, esi

; 99   : }

  001ca	8b 4d f4	 mov	 ecx, DWORD PTR __$EHRec$[ebp]
  001cd	64 89 0d 00 00
	00 00		 mov	 DWORD PTR fs:0, ecx
  001d4	59		 pop	 ecx
  001d5	5f		 pop	 edi
  001d6	5e		 pop	 esi
  001d7	8b e5		 mov	 esp, ebp
  001d9	5d		 pop	 ebp
  001da	c2 18 00	 ret	 24			; 00000018H
_TEXT	ENDS
;	COMDAT text$x
text$x	SEGMENT
__unwindfunclet$?GetBlockDataForMaking@CIndicatorDefaultData@@QAEHAAV?$CStringT@DV?$StrTraitMFC_DLL@DV?$ChTraitsCRT@D@ATL@@@@@ATL@@PAVCIndicatorList@@ABV23@W4SCALEGRIDTYPE@CScaleBaseData@@30@Z$0:
  00000	8d 4d f0	 lea	 ecx, DWORD PTR _strVertScaleGroupData$[ebp]
  00003	ff 25 00 00 00
	00		 jmp	 DWORD PTR __imp_??1?$CStringT@DV?$StrTraitMFC_DLL@DV?$ChTraitsCRT@D@ATL@@@@@ATL@@QAE@XZ
__unwindfunclet$?GetBlockDataForMaking@CIndicatorDefaultData@@QAEHAAV?$CStringT@DV?$StrTraitMFC_DLL@DV?$ChTraitsCRT@D@ATL@@@@@ATL@@PAVCIndicatorList@@ABV23@W4SCALEGRIDTYPE@CScaleBaseData@@30@Z$2:
  00009	8d 4d 1c	 lea	 ecx, DWORD PTR $T2[ebp]
  0000c	ff 25 00 00 00
	00		 jmp	 DWORD PTR __imp_??1?$CStringT@DV?$StrTraitMFC_DLL@DV?$ChTraitsCRT@D@ATL@@@@@ATL@@QAE@XZ
__unwindfunclet$?GetBlockDataForMaking@CIndicatorDefaultData@@QAEHAAV?$CStringT@DV?$StrTraitMFC_DLL@DV?$ChTraitsCRT@D@ATL@@@@@ATL@@PAVCIndicatorList@@ABV23@W4SCALEGRIDTYPE@CScaleBaseData@@30@Z$1:
  00012	8d 4d ec	 lea	 ecx, DWORD PTR _strHorizontalScaleData$[ebp]
  00015	ff 25 00 00 00
	00		 jmp	 DWORD PTR __imp_??1?$CStringT@DV?$StrTraitMFC_DLL@DV?$ChTraitsCRT@D@ATL@@@@@ATL@@QAE@XZ
  0001b	cc		 int	 3
  0001c	cc		 int	 3
  0001d	cc		 int	 3
  0001e	cc		 int	 3
  0001f	cc		 int	 3
__ehhandler$?GetBlockDataForMaking@CIndicatorDefaultData@@QAEHAAV?$CStringT@DV?$StrTraitMFC_DLL@DV?$ChTraitsCRT@D@ATL@@@@@ATL@@PAVCIndicatorList@@ABV23@W4SCALEGRIDTYPE@CScaleBaseData@@30@Z:
  00020	90		 npad	 1
  00021	90		 npad	 1
  00022	8b 54 24 08	 mov	 edx, DWORD PTR [esp+8]
  00026	8d 42 0c	 lea	 eax, DWORD PTR [edx+12]
  00029	8b 4a e8	 mov	 ecx, DWORD PTR [edx-24]
  0002c	33 c8		 xor	 ecx, eax
  0002e	e8 00 00 00 00	 call	 @__security_check_cookie@4
  00033	b8 00 00 00 00	 mov	 eax, OFFSET __ehfuncinfo$?GetBlockDataForMaking@CIndicatorDefaultData@@QAEHAAV?$CStringT@DV?$StrTraitMFC_DLL@DV?$ChTraitsCRT@D@ATL@@@@@ATL@@PAVCIndicatorList@@ABV23@W4SCALEGRIDTYPE@CScaleBaseData@@30@Z
  00038	e9 00 00 00 00	 jmp	 ___CxxFrameHandler3
text$x	ENDS
?GetBlockDataForMaking@CIndicatorDefaultData@@QAEHAAV?$CStringT@DV?$StrTraitMFC_DLL@DV?$ChTraitsCRT@D@ATL@@@@@ATL@@PAVCIndicatorList@@ABV23@W4SCALEGRIDTYPE@CScaleBaseData@@30@Z ENDP ; CIndicatorDefaultData::GetBlockDataForMaking
; Function compile flags: /Ogtp
; File D:\git\src\IBK\IBK_DRFN\ProjSrc\SrcChartEx\ChartOCX\KTBChart\IndicatorDefaultData.cpp
;	COMDAT ?SetVertScalePosition@CIndicatorDefaultData@@QAEXW4VERTSCALEPOSITION@CScaleBaseData@@@Z
_TEXT	SEGMENT
_ePosition$ = 8						; size = 4
?SetVertScalePosition@CIndicatorDefaultData@@QAEXW4VERTSCALEPOSITION@CScaleBaseData@@@Z PROC ; CIndicatorDefaultData::SetVertScalePosition, COMDAT
; _this$ = ecx

; 37   : {

  00000	55		 push	 ebp
  00001	8b ec		 mov	 ebp, esp

; 38   : 	m_eVertScalePosition = ePosition;

  00003	8b 45 08	 mov	 eax, DWORD PTR _ePosition$[ebp]
  00006	89 41 04	 mov	 DWORD PTR [ecx+4], eax

; 39   : }

  00009	5d		 pop	 ebp
  0000a	c2 04 00	 ret	 4
?SetVertScalePosition@CIndicatorDefaultData@@QAEXW4VERTSCALEPOSITION@CScaleBaseData@@@Z ENDP ; CIndicatorDefaultData::SetVertScalePosition
_TEXT	ENDS
; Function compile flags: /Ogtp
; File D:\git\src\IBK\IBK_DRFN\ProjSrc\SrcChartEx\ChartOCX\KTBChart\IndicatorDefaultData.cpp
;	COMDAT ??0CIndicatorDefaultData@@QAE@PBVCKTBChartCtrl@@W4SCALEGRIDTYPE@CScaleBaseData@@W4VERTSCALEPOSITION@3@@Z
_TEXT	SEGMENT
_p_pChartOCX$ = 8					; size = 4
_eBaseGridType$ = 12					; size = 4
_eVertScalePosition$ = 16				; size = 4
??0CIndicatorDefaultData@@QAE@PBVCKTBChartCtrl@@W4SCALEGRIDTYPE@CScaleBaseData@@W4VERTSCALEPOSITION@3@@Z PROC ; CIndicatorDefaultData::CIndicatorDefaultData, COMDAT
; _this$ = ecx

; 31   : {

  00000	55		 push	 ebp
  00001	8b ec		 mov	 ebp, esp

; 29   : 		m_eBaseGridType(eBaseGridType), 

  00003	8b 45 0c	 mov	 eax, DWORD PTR _eBaseGridType$[ebp]
  00006	89 01		 mov	 DWORD PTR [ecx], eax

; 30   : 		m_eVertScalePosition(eVertScalePosition)

  00008	8b 45 10	 mov	 eax, DWORD PTR _eVertScalePosition$[ebp]
  0000b	89 41 04	 mov	 DWORD PTR [ecx+4], eax

; 32   : 	// (2004.10.06, 배승원) 가격차트의 Graph Drawing Data를 지정받아 DefaultType에 따라 관리, 적용토록 한다.
; 33   : 	m_pChartOCX = p_pChartOCX;

  0000e	8b 45 08	 mov	 eax, DWORD PTR _p_pChartOCX$[ebp]
  00011	89 41 08	 mov	 DWORD PTR [ecx+8], eax

; 34   : }

  00014	8b c1		 mov	 eax, ecx
  00016	5d		 pop	 ebp
  00017	c2 0c 00	 ret	 12			; 0000000cH
??0CIndicatorDefaultData@@QAE@PBVCKTBChartCtrl@@W4SCALEGRIDTYPE@CScaleBaseData@@W4VERTSCALEPOSITION@3@@Z ENDP ; CIndicatorDefaultData::CIndicatorDefaultData
_TEXT	ENDS
; Function compile flags: /Ogtp
; File D:\git\src\IBK\IBK_DRFN\ProjSrc\SrcChartEx\ChartOCX\KTBChart\IndicatorDefaultData.cpp
;	COMDAT ?__empty_global_delete@@YAXPAXI@Z
_TEXT	SEGMENT
___formal$ = 8						; size = 4
___formal$ = 12						; size = 4
?__empty_global_delete@@YAXPAXI@Z PROC			; __empty_global_delete, COMDAT

  00000	c2 00 00	 ret	 0
?__empty_global_delete@@YAXPAXI@Z ENDP			; __empty_global_delete
_TEXT	ENDS
; Function compile flags: /Ogtp
; File D:\git\src\IBK\IBK_DRFN\ProjSrc\SrcChartEx\ChartOCX\KTBChart\IndicatorDefaultData.cpp
;	COMDAT ?__empty_global_delete@@YAXPAX@Z
_TEXT	SEGMENT
___formal$ = 8						; size = 4
?__empty_global_delete@@YAXPAX@Z PROC			; __empty_global_delete, COMDAT

  00000	c2 00 00	 ret	 0
?__empty_global_delete@@YAXPAX@Z ENDP			; __empty_global_delete
_TEXT	ENDS
END
