; Listing generated by Microsoft (R) Optimizing Compiler Version 19.29.30145.0 

	TITLE	D:\git\src\IBK\IBK_DRFN\#DRfn-CS\_Obj\KTBChart\KTBChart.obj
	.686P
	.XMM
	include listing.inc
	.model	flat

INCLUDELIB MSVCRT
INCLUDELIB OLDNAMES

PUBLIC	?Serialize@CObject@@UAEXAAVCArchive@@@Z		; CObject::Serialize
PUBLIC	?AssertValid@CObject@@UBEXXZ			; CObject::AssertValid
PUBLIC	?Dump@CObject@@UBEXAAVCDumpContext@@@Z		; CObject::Dump
PUBLIC	??_7COleControlModule@@6B@			; COleControlModule::`vftable'
PUBLIC	??_GCOleControlModule@@UAEPAXI@Z		; COleControlModule::`scalar deleting destructor'
PUBLIC	??_R4COleControlModule@@6B@			; COleControlModule::`RTTI Complete Object Locator'
PUBLIC	??_R0?AVCOleControlModule@@@8			; COleControlModule `RTTI Type Descriptor'
PUBLIC	??_R3COleControlModule@@8			; COleControlModule::`RTTI Class Hierarchy Descriptor'
PUBLIC	??_R2COleControlModule@@8			; COleControlModule::`RTTI Base Class Array'
PUBLIC	??_R1A@?0A@EA@COleControlModule@@8		; COleControlModule::`RTTI Base Class Descriptor at (0,-1,0,64)'
PUBLIC	??_R1A@?0A@EA@CWinApp@@8			; CWinApp::`RTTI Base Class Descriptor at (0,-1,0,64)'
PUBLIC	??_R0?AVCWinApp@@@8				; CWinApp `RTTI Type Descriptor'
PUBLIC	??_R3CWinApp@@8					; CWinApp::`RTTI Class Hierarchy Descriptor'
PUBLIC	??_R2CWinApp@@8					; CWinApp::`RTTI Base Class Array'
PUBLIC	??_R1A@?0A@EA@CWinThread@@8			; CWinThread::`RTTI Base Class Descriptor at (0,-1,0,64)'
PUBLIC	??_R0?AVCWinThread@@@8				; CWinThread `RTTI Type Descriptor'
PUBLIC	??_R3CWinThread@@8				; CWinThread::`RTTI Class Hierarchy Descriptor'
PUBLIC	??_R2CWinThread@@8				; CWinThread::`RTTI Base Class Array'
PUBLIC	??_R4CKTBChartApp@@6B@				; CKTBChartApp::`RTTI Complete Object Locator'
PUBLIC	??_R0?AVCKTBChartApp@@@8			; CKTBChartApp `RTTI Type Descriptor'
PUBLIC	??_R3CKTBChartApp@@8				; CKTBChartApp::`RTTI Class Hierarchy Descriptor'
PUBLIC	??_R2CKTBChartApp@@8				; CKTBChartApp::`RTTI Base Class Array'
PUBLIC	??_R1A@?0A@EA@CKTBChartApp@@8			; CKTBChartApp::`RTTI Base Class Descriptor at (0,-1,0,64)'
PUBLIC	??_R0?AVCObject@@@8				; CObject `RTTI Type Descriptor'
PUBLIC	??_R3CObject@@8					; CObject::`RTTI Class Hierarchy Descriptor'
PUBLIC	??_R2CObject@@8					; CObject::`RTTI Base Class Array'
PUBLIC	??_R1A@?0A@EA@CObject@@8			; CObject::`RTTI Base Class Descriptor at (0,-1,0,64)'
PUBLIC	??_R1A@?0A@EA@CCmdTarget@@8			; CCmdTarget::`RTTI Base Class Descriptor at (0,-1,0,64)'
PUBLIC	??_R0?AVCCmdTarget@@@8				; CCmdTarget `RTTI Type Descriptor'
PUBLIC	??_R3CCmdTarget@@8				; CCmdTarget::`RTTI Class Hierarchy Descriptor'
PUBLIC	??_R2CCmdTarget@@8				; CCmdTarget::`RTTI Base Class Array'
PUBLIC	?InitInstance@CKTBChartApp@@UAEHXZ		; CKTBChartApp::InitInstance
PUBLIC	?ExitInstance@CKTBChartApp@@UAEHXZ		; CKTBChartApp::ExitInstance
PUBLIC	??_7CKTBChartApp@@6B@				; CKTBChartApp::`vftable'
PUBLIC	??_GCKTBChartApp@@UAEPAXI@Z			; CKTBChartApp::`scalar deleting destructor'
PUBLIC	?_tlid@@3U_GUID@@B				; _tlid
PUBLIC	?_wVerMajor@@3GB				; _wVerMajor
PUBLIC	?_wVerMinor@@3GB				; _wVerMinor
PUBLIC	?g_bNormalizedMinuteTimeRule@@3HA		; g_bNormalizedMinuteTimeRule
PUBLIC	?SupportsRestartManager@CWinApp@@UBEHXZ		; CWinApp::SupportsRestartManager
PUBLIC	?SupportsApplicationRecovery@CWinApp@@UBEHXZ	; CWinApp::SupportsApplicationRecovery
PUBLIC	?SupportsAutosaveAtRestart@CWinApp@@UBEHXZ	; CWinApp::SupportsAutosaveAtRestart
PUBLIC	?SupportsAutosaveAtInterval@CWinApp@@UBEHXZ	; CWinApp::SupportsAutosaveAtInterval
PUBLIC	?ReopenPreviousFilesAtRestart@CWinApp@@UBEHXZ	; CWinApp::ReopenPreviousFilesAtRestart
PUBLIC	?RestoreAutosavedFilesAtRestart@CWinApp@@UBEHXZ	; CWinApp::RestoreAutosavedFilesAtRestart
PUBLIC	?GetApplicationRestartFlags@CWinApp@@UAEKXZ	; CWinApp::GetApplicationRestartFlags
PUBLIC	?GetApplicationRecoveryParameter@CWinApp@@UAEPAXXZ ; CWinApp::GetApplicationRecoveryParameter
PUBLIC	?GetApplicationRecoveryPingInterval@CWinApp@@UAEKXZ ; CWinApp::GetApplicationRecoveryPingInterval
EXTRN	??_7type_info@@6B@:QWORD			; type_info::`vftable'
EXTRN	?GetRuntimeClass@COleControlModule@@UBEPAUCRuntimeClass@@XZ:PROC ; COleControlModule::GetRuntimeClass
EXTRN	?InitInstance@COleControlModule@@UAEHXZ:PROC	; COleControlModule::InitInstance
EXTRN	?ExitInstance@COleControlModule@@UAEHXZ:PROC	; COleControlModule::ExitInstance
EXTRN	??_ECOleControlModule@@UAEPAXI@Z:PROC		; COleControlModule::`vector deleting destructor'
EXTRN	??_ECKTBChartApp@@UAEPAXI@Z:PROC		; CKTBChartApp::`vector deleting destructor'
EXTRN	?PreTranslateMessage@CWinThread@@UAEHPAUtagMSG@@@Z:PROC ; CWinThread::PreTranslateMessage
EXTRN	?PumpMessage@CWinThread@@UAEHXZ:PROC		; CWinThread::PumpMessage
EXTRN	?IsIdleMessage@CWinThread@@UAEHPAUtagMSG@@@Z:PROC ; CWinThread::IsIdleMessage
EXTRN	?ProcessMessageFilter@CWinThread@@UAEHHPAUtagMSG@@@Z:PROC ; CWinThread::ProcessMessageFilter
EXTRN	?GetMainWnd@CWinThread@@UAEPAVCWnd@@XZ:PROC	; CWinThread::GetMainWnd
EXTRN	?Delete@CWinThread@@UAEXXZ:PROC			; CWinThread::Delete
EXTRN	?GetProfileIntA@CWinApp@@UAEIPBD0H@Z:PROC	; CWinApp::GetProfileIntA
EXTRN	?WriteProfileInt@CWinApp@@UAEHPBD0H@Z:PROC	; CWinApp::WriteProfileInt
EXTRN	?GetProfileStringA@CWinApp@@UAE?AV?$CStringT@DV?$StrTraitMFC_DLL@DV?$ChTraitsCRT@D@ATL@@@@@ATL@@PBD00@Z:PROC ; CWinApp::GetProfileStringA
EXTRN	?WriteProfileStringA@CWinApp@@UAEHPBD00@Z:PROC	; CWinApp::WriteProfileStringA
EXTRN	?GetProfileBinary@CWinApp@@UAEHPBD0PAPAEPAI@Z:PROC ; CWinApp::GetProfileBinary
EXTRN	?WriteProfileBinary@CWinApp@@UAEHPBD0PAEI@Z:PROC ; CWinApp::WriteProfileBinary
EXTRN	?InitLibId@CWinApp@@UAEXXZ:PROC			; CWinApp::InitLibId
EXTRN	?Register@CWinApp@@UAEHXZ:PROC			; CWinApp::Register
EXTRN	?Unregister@CWinApp@@UAEHXZ:PROC		; CWinApp::Unregister
EXTRN	?OpenDocumentFile@CWinApp@@UAEPAVCDocument@@PBD@Z:PROC ; CWinApp::OpenDocumentFile
EXTRN	?OpenDocumentFile@CWinApp@@UAEPAVCDocument@@PBDH@Z:PROC ; CWinApp::OpenDocumentFile
EXTRN	?AddToRecentFileList@CWinApp@@UAEXPBD@Z:PROC	; CWinApp::AddToRecentFileList
EXTRN	?InitApplication@CWinApp@@UAEHXZ:PROC		; CWinApp::InitApplication
EXTRN	?SaveAllModified@CWinApp@@UAEHXZ:PROC		; CWinApp::SaveAllModified
EXTRN	?DoMessageBox@CWinApp@@UAEHPBDII@Z:PROC		; CWinApp::DoMessageBox
EXTRN	?DoWaitCursor@CWinApp@@UAEXH@Z:PROC		; CWinApp::DoWaitCursor
EXTRN	?OnDDECommand@CWinApp@@UAEHPAD@Z:PROC		; CWinApp::OnDDECommand
EXTRN	?WinHelpA@CWinApp@@UAEXKI@Z:PROC		; CWinApp::WinHelpA
EXTRN	?HtmlHelpA@CWinApp@@UAEXKI@Z:PROC		; CWinApp::HtmlHelpA
EXTRN	?WinHelpInternal@CWinApp@@UAEXKI@Z:PROC		; CWinApp::WinHelpInternal
EXTRN	?RegisterWithRestartManager@CWinApp@@UAEJHABV?$CStringT@DV?$StrTraitMFC_DLL@DV?$ChTraitsCRT@D@ATL@@@@@ATL@@@Z:PROC ; CWinApp::RegisterWithRestartManager
EXTRN	?RegisterWithRestartManager@CWinApp@@UAEJPB_WKP6GKPAX@Z1KK@Z:PROC ; CWinApp::RegisterWithRestartManager
EXTRN	?ApplicationRecoveryCallback@CWinApp@@UAEKPAX@Z:PROC ; CWinApp::ApplicationRecoveryCallback
EXTRN	?GetDataRecoveryHandler@CWinApp@@UAEPAVCDataRecoveryHandler@@XZ:PROC ; CWinApp::GetDataRecoveryHandler
EXTRN	?IsTaskbarInteractionEnabled@CWinApp@@UAEHXZ:PROC ; CWinApp::IsTaskbarInteractionEnabled
EXTRN	?RestartInstance@CWinApp@@UAEHXZ:PROC		; CWinApp::RestartInstance
EXTRN	?Run@CWinApp@@UAEHXZ:PROC			; CWinApp::Run
EXTRN	?OnIdle@CWinApp@@UAEHJ@Z:PROC			; CWinApp::OnIdle
EXTRN	?ProcessWndProcException@CWinApp@@UAEJPAVCException@@PBUtagMSG@@@Z:PROC ; CWinApp::ProcessWndProcException
EXTRN	?LoadAppLangResourceDLL@CWinApp@@UAEPAUHINSTANCE__@@XZ:PROC ; CWinApp::LoadAppLangResourceDLL
EXTRN	?GetMessageMap@CWinApp@@MBEPBUAFX_MSGMAP@@XZ:PROC ; CWinApp::GetMessageMap
EXTRN	?LoadSysPolicies@CWinApp@@UAEHXZ:PROC		; CWinApp::LoadSysPolicies
EXTRN	?OnCmdMsg@CCmdTarget@@UAEHIHPAXPAUAFX_CMDHANDLERINFO@@@Z:PROC ; CCmdTarget::OnCmdMsg
EXTRN	?OnFinalRelease@CCmdTarget@@UAEXXZ:PROC		; CCmdTarget::OnFinalRelease
EXTRN	?IsInvokeAllowed@CCmdTarget@@UAEHJ@Z:PROC	; CCmdTarget::IsInvokeAllowed
EXTRN	?GetDispatchIID@CCmdTarget@@UAEHPAU_GUID@@@Z:PROC ; CCmdTarget::GetDispatchIID
EXTRN	?GetTypeInfoCount@CCmdTarget@@UAEIXZ:PROC	; CCmdTarget::GetTypeInfoCount
EXTRN	?GetTypeLibCache@CCmdTarget@@UAEPAVCTypeLibCache@@XZ:PROC ; CCmdTarget::GetTypeLibCache
EXTRN	?GetTypeLib@CCmdTarget@@UAEJKPAPAUITypeLib@@@Z:PROC ; CCmdTarget::GetTypeLib
EXTRN	?GetCommandMap@CCmdTarget@@MBEPBUAFX_OLECMDMAP@@XZ:PROC ; CCmdTarget::GetCommandMap
EXTRN	?GetDispatchMap@CCmdTarget@@MBEPBUAFX_DISPMAP@@XZ:PROC ; CCmdTarget::GetDispatchMap
EXTRN	?GetConnectionMap@CCmdTarget@@MBEPBUAFX_CONNECTIONMAP@@XZ:PROC ; CCmdTarget::GetConnectionMap
EXTRN	?GetInterfaceMap@CCmdTarget@@MBEPBUAFX_INTERFACEMAP@@XZ:PROC ; CCmdTarget::GetInterfaceMap
EXTRN	?GetEventSinkMap@CCmdTarget@@MBEPBUAFX_EVENTSINKMAP@@XZ:PROC ; CCmdTarget::GetEventSinkMap
EXTRN	?OnCreateAggregates@CCmdTarget@@UAEHXZ:PROC	; CCmdTarget::OnCreateAggregates
EXTRN	?GetInterfaceHook@CCmdTarget@@UAEPAUIUnknown@@PBX@Z:PROC ; CCmdTarget::GetInterfaceHook
EXTRN	?GetExtraConnectionPoints@CCmdTarget@@MAEHPAVCPtrArray@@@Z:PROC ; CCmdTarget::GetExtraConnectionPoints
EXTRN	?GetConnectionHook@CCmdTarget@@MAEPAUIConnectionPoint@@ABU_GUID@@@Z:PROC ; CCmdTarget::GetConnectionHook
_BSS	SEGMENT
?g_bNormalizedMinuteTimeRule@@3HA DD 01H DUP (?)	; g_bNormalizedMinuteTimeRule
_BSS	ENDS
;	COMDAT ??_7CKTBChartApp@@6B@
CONST	SEGMENT
??_7CKTBChartApp@@6B@ DD FLAT:??_R4CKTBChartApp@@6B@	; CKTBChartApp::`vftable'
	DD	FLAT:?GetRuntimeClass@COleControlModule@@UBEPAUCRuntimeClass@@XZ
	DD	FLAT:??_ECKTBChartApp@@UAEPAXI@Z
	DD	FLAT:?Serialize@CObject@@UAEXAAVCArchive@@@Z
	DD	FLAT:?AssertValid@CObject@@UBEXXZ
	DD	FLAT:?Dump@CObject@@UBEXAAVCDumpContext@@@Z
	DD	FLAT:?OnCmdMsg@CCmdTarget@@UAEHIHPAXPAUAFX_CMDHANDLERINFO@@@Z
	DD	FLAT:?OnFinalRelease@CCmdTarget@@UAEXXZ
	DD	FLAT:?IsInvokeAllowed@CCmdTarget@@UAEHJ@Z
	DD	FLAT:?GetDispatchIID@CCmdTarget@@UAEHPAU_GUID@@@Z
	DD	FLAT:?GetTypeInfoCount@CCmdTarget@@UAEIXZ
	DD	FLAT:?GetTypeLibCache@CCmdTarget@@UAEPAVCTypeLibCache@@XZ
	DD	FLAT:?GetTypeLib@CCmdTarget@@UAEJKPAPAUITypeLib@@@Z
	DD	FLAT:?GetMessageMap@CWinApp@@MBEPBUAFX_MSGMAP@@XZ
	DD	FLAT:?GetCommandMap@CCmdTarget@@MBEPBUAFX_OLECMDMAP@@XZ
	DD	FLAT:?GetDispatchMap@CCmdTarget@@MBEPBUAFX_DISPMAP@@XZ
	DD	FLAT:?GetConnectionMap@CCmdTarget@@MBEPBUAFX_CONNECTIONMAP@@XZ
	DD	FLAT:?GetInterfaceMap@CCmdTarget@@MBEPBUAFX_INTERFACEMAP@@XZ
	DD	FLAT:?GetEventSinkMap@CCmdTarget@@MBEPBUAFX_EVENTSINKMAP@@XZ
	DD	FLAT:?OnCreateAggregates@CCmdTarget@@UAEHXZ
	DD	FLAT:?GetInterfaceHook@CCmdTarget@@UAEPAUIUnknown@@PBX@Z
	DD	FLAT:?GetExtraConnectionPoints@CCmdTarget@@MAEHPAVCPtrArray@@@Z
	DD	FLAT:?GetConnectionHook@CCmdTarget@@MAEPAUIConnectionPoint@@ABU_GUID@@@Z
	DD	FLAT:?InitInstance@CKTBChartApp@@UAEHXZ
	DD	FLAT:?Run@CWinApp@@UAEHXZ
	DD	FLAT:?PreTranslateMessage@CWinThread@@UAEHPAUtagMSG@@@Z
	DD	FLAT:?PumpMessage@CWinThread@@UAEHXZ
	DD	FLAT:?OnIdle@CWinApp@@UAEHJ@Z
	DD	FLAT:?IsIdleMessage@CWinThread@@UAEHPAUtagMSG@@@Z
	DD	FLAT:?ExitInstance@CKTBChartApp@@UAEHXZ
	DD	FLAT:?ProcessWndProcException@CWinApp@@UAEJPAVCException@@PBUtagMSG@@@Z
	DD	FLAT:?ProcessMessageFilter@CWinThread@@UAEHHPAUtagMSG@@@Z
	DD	FLAT:?GetMainWnd@CWinThread@@UAEPAVCWnd@@XZ
	DD	FLAT:?Delete@CWinThread@@UAEXXZ
	DD	FLAT:?GetProfileIntA@CWinApp@@UAEIPBD0H@Z
	DD	FLAT:?WriteProfileInt@CWinApp@@UAEHPBD0H@Z
	DD	FLAT:?GetProfileStringA@CWinApp@@UAE?AV?$CStringT@DV?$StrTraitMFC_DLL@DV?$ChTraitsCRT@D@ATL@@@@@ATL@@PBD00@Z
	DD	FLAT:?WriteProfileStringA@CWinApp@@UAEHPBD00@Z
	DD	FLAT:?GetProfileBinary@CWinApp@@UAEHPBD0PAPAEPAI@Z
	DD	FLAT:?WriteProfileBinary@CWinApp@@UAEHPBD0PAEI@Z
	DD	FLAT:?InitLibId@CWinApp@@UAEXXZ
	DD	FLAT:?Register@CWinApp@@UAEHXZ
	DD	FLAT:?Unregister@CWinApp@@UAEHXZ
	DD	FLAT:?OpenDocumentFile@CWinApp@@UAEPAVCDocument@@PBDH@Z
	DD	FLAT:?OpenDocumentFile@CWinApp@@UAEPAVCDocument@@PBD@Z
	DD	FLAT:?AddToRecentFileList@CWinApp@@UAEXPBD@Z
	DD	FLAT:?InitApplication@CWinApp@@UAEHXZ
	DD	FLAT:?SaveAllModified@CWinApp@@UAEHXZ
	DD	FLAT:?DoMessageBox@CWinApp@@UAEHPBDII@Z
	DD	FLAT:?DoWaitCursor@CWinApp@@UAEXH@Z
	DD	FLAT:?OnDDECommand@CWinApp@@UAEHPAD@Z
	DD	FLAT:?WinHelpA@CWinApp@@UAEXKI@Z
	DD	FLAT:?HtmlHelpA@CWinApp@@UAEXKI@Z
	DD	FLAT:?WinHelpInternal@CWinApp@@UAEXKI@Z
	DD	FLAT:?RegisterWithRestartManager@CWinApp@@UAEJPB_WKP6GKPAX@Z1KK@Z
	DD	FLAT:?RegisterWithRestartManager@CWinApp@@UAEJHABV?$CStringT@DV?$StrTraitMFC_DLL@DV?$ChTraitsCRT@D@ATL@@@@@ATL@@@Z
	DD	FLAT:?ApplicationRecoveryCallback@CWinApp@@UAEKPAX@Z
	DD	FLAT:?SupportsRestartManager@CWinApp@@UBEHXZ
	DD	FLAT:?SupportsApplicationRecovery@CWinApp@@UBEHXZ
	DD	FLAT:?SupportsAutosaveAtRestart@CWinApp@@UBEHXZ
	DD	FLAT:?SupportsAutosaveAtInterval@CWinApp@@UBEHXZ
	DD	FLAT:?ReopenPreviousFilesAtRestart@CWinApp@@UBEHXZ
	DD	FLAT:?RestoreAutosavedFilesAtRestart@CWinApp@@UBEHXZ
	DD	FLAT:?GetApplicationRestartFlags@CWinApp@@UAEKXZ
	DD	FLAT:?GetApplicationRecoveryParameter@CWinApp@@UAEPAXXZ
	DD	FLAT:?GetApplicationRecoveryPingInterval@CWinApp@@UAEKXZ
	DD	FLAT:?GetDataRecoveryHandler@CWinApp@@UAEPAVCDataRecoveryHandler@@XZ
	DD	FLAT:?IsTaskbarInteractionEnabled@CWinApp@@UAEHXZ
	DD	FLAT:?RestartInstance@CWinApp@@UAEHXZ
	DD	FLAT:?LoadAppLangResourceDLL@CWinApp@@UAEPAUHINSTANCE__@@XZ
	DD	FLAT:?LoadSysPolicies@CWinApp@@UAEHXZ
CONST	ENDS
CONST	SEGMENT
?_Fake_alloc@std@@3U_Fake_allocator@1@B	ORG $+1		; std::_Fake_alloc
	ORG $+3
?_tlid@@3U_GUID@@B DD 0d64827b8H			; _tlid
	DW	055f0H
	DW	04399H
	DB	0beH
	DB	0ddH
	DB	0dH
	DB	02aH
	DB	0d9H
	DB	0c6H
	DB	054H
	DB	051H
?_wVerMajor@@3GB DW 01H					; _wVerMajor
	ORG $+2
?_wVerMinor@@3GB DW 00H					; _wVerMinor
CONST	ENDS
;	COMDAT ??_R2CCmdTarget@@8
rdata$r	SEGMENT
??_R2CCmdTarget@@8 DD FLAT:??_R1A@?0A@EA@CCmdTarget@@8	; CCmdTarget::`RTTI Base Class Array'
	DD	FLAT:??_R1A@?0A@EA@CObject@@8
rdata$r	ENDS
;	COMDAT ??_R3CCmdTarget@@8
rdata$r	SEGMENT
??_R3CCmdTarget@@8 DD 00H				; CCmdTarget::`RTTI Class Hierarchy Descriptor'
	DD	00H
	DD	02H
	DD	FLAT:??_R2CCmdTarget@@8
rdata$r	ENDS
;	COMDAT ??_R0?AVCCmdTarget@@@8
data$rs	SEGMENT
??_R0?AVCCmdTarget@@@8 DD FLAT:??_7type_info@@6B@	; CCmdTarget `RTTI Type Descriptor'
	DD	00H
	DB	'.?AVCCmdTarget@@', 00H
data$rs	ENDS
;	COMDAT ??_R1A@?0A@EA@CCmdTarget@@8
rdata$r	SEGMENT
??_R1A@?0A@EA@CCmdTarget@@8 DD FLAT:??_R0?AVCCmdTarget@@@8 ; CCmdTarget::`RTTI Base Class Descriptor at (0,-1,0,64)'
	DD	01H
	DD	00H
	DD	0ffffffffH
	DD	00H
	DD	040H
	DD	FLAT:??_R3CCmdTarget@@8
rdata$r	ENDS
;	COMDAT ??_R1A@?0A@EA@CObject@@8
rdata$r	SEGMENT
??_R1A@?0A@EA@CObject@@8 DD FLAT:??_R0?AVCObject@@@8	; CObject::`RTTI Base Class Descriptor at (0,-1,0,64)'
	DD	00H
	DD	00H
	DD	0ffffffffH
	DD	00H
	DD	040H
	DD	FLAT:??_R3CObject@@8
rdata$r	ENDS
;	COMDAT ??_R2CObject@@8
rdata$r	SEGMENT
??_R2CObject@@8 DD FLAT:??_R1A@?0A@EA@CObject@@8	; CObject::`RTTI Base Class Array'
rdata$r	ENDS
;	COMDAT ??_R3CObject@@8
rdata$r	SEGMENT
??_R3CObject@@8 DD 00H					; CObject::`RTTI Class Hierarchy Descriptor'
	DD	00H
	DD	01H
	DD	FLAT:??_R2CObject@@8
rdata$r	ENDS
;	COMDAT ??_R0?AVCObject@@@8
data$rs	SEGMENT
??_R0?AVCObject@@@8 DD FLAT:??_7type_info@@6B@		; CObject `RTTI Type Descriptor'
	DD	00H
	DB	'.?AVCObject@@', 00H
data$rs	ENDS
;	COMDAT ??_R1A@?0A@EA@CKTBChartApp@@8
rdata$r	SEGMENT
??_R1A@?0A@EA@CKTBChartApp@@8 DD FLAT:??_R0?AVCKTBChartApp@@@8 ; CKTBChartApp::`RTTI Base Class Descriptor at (0,-1,0,64)'
	DD	05H
	DD	00H
	DD	0ffffffffH
	DD	00H
	DD	040H
	DD	FLAT:??_R3CKTBChartApp@@8
rdata$r	ENDS
;	COMDAT ??_R2CKTBChartApp@@8
rdata$r	SEGMENT
??_R2CKTBChartApp@@8 DD FLAT:??_R1A@?0A@EA@CKTBChartApp@@8 ; CKTBChartApp::`RTTI Base Class Array'
	DD	FLAT:??_R1A@?0A@EA@COleControlModule@@8
	DD	FLAT:??_R1A@?0A@EA@CWinApp@@8
	DD	FLAT:??_R1A@?0A@EA@CWinThread@@8
	DD	FLAT:??_R1A@?0A@EA@CCmdTarget@@8
	DD	FLAT:??_R1A@?0A@EA@CObject@@8
rdata$r	ENDS
;	COMDAT ??_R3CKTBChartApp@@8
rdata$r	SEGMENT
??_R3CKTBChartApp@@8 DD 00H				; CKTBChartApp::`RTTI Class Hierarchy Descriptor'
	DD	00H
	DD	06H
	DD	FLAT:??_R2CKTBChartApp@@8
rdata$r	ENDS
;	COMDAT ??_R0?AVCKTBChartApp@@@8
data$rs	SEGMENT
??_R0?AVCKTBChartApp@@@8 DD FLAT:??_7type_info@@6B@	; CKTBChartApp `RTTI Type Descriptor'
	DD	00H
	DB	'.?AVCKTBChartApp@@', 00H
data$rs	ENDS
;	COMDAT ??_R4CKTBChartApp@@6B@
rdata$r	SEGMENT
??_R4CKTBChartApp@@6B@ DD 00H				; CKTBChartApp::`RTTI Complete Object Locator'
	DD	00H
	DD	00H
	DD	FLAT:??_R0?AVCKTBChartApp@@@8
	DD	FLAT:??_R3CKTBChartApp@@8
rdata$r	ENDS
;	COMDAT ??_R2CWinThread@@8
rdata$r	SEGMENT
??_R2CWinThread@@8 DD FLAT:??_R1A@?0A@EA@CWinThread@@8	; CWinThread::`RTTI Base Class Array'
	DD	FLAT:??_R1A@?0A@EA@CCmdTarget@@8
	DD	FLAT:??_R1A@?0A@EA@CObject@@8
rdata$r	ENDS
;	COMDAT ??_R3CWinThread@@8
rdata$r	SEGMENT
??_R3CWinThread@@8 DD 00H				; CWinThread::`RTTI Class Hierarchy Descriptor'
	DD	00H
	DD	03H
	DD	FLAT:??_R2CWinThread@@8
rdata$r	ENDS
;	COMDAT ??_R0?AVCWinThread@@@8
data$rs	SEGMENT
??_R0?AVCWinThread@@@8 DD FLAT:??_7type_info@@6B@	; CWinThread `RTTI Type Descriptor'
	DD	00H
	DB	'.?AVCWinThread@@', 00H
data$rs	ENDS
;	COMDAT ??_R1A@?0A@EA@CWinThread@@8
rdata$r	SEGMENT
??_R1A@?0A@EA@CWinThread@@8 DD FLAT:??_R0?AVCWinThread@@@8 ; CWinThread::`RTTI Base Class Descriptor at (0,-1,0,64)'
	DD	02H
	DD	00H
	DD	0ffffffffH
	DD	00H
	DD	040H
	DD	FLAT:??_R3CWinThread@@8
rdata$r	ENDS
;	COMDAT ??_R2CWinApp@@8
rdata$r	SEGMENT
??_R2CWinApp@@8 DD FLAT:??_R1A@?0A@EA@CWinApp@@8	; CWinApp::`RTTI Base Class Array'
	DD	FLAT:??_R1A@?0A@EA@CWinThread@@8
	DD	FLAT:??_R1A@?0A@EA@CCmdTarget@@8
	DD	FLAT:??_R1A@?0A@EA@CObject@@8
rdata$r	ENDS
;	COMDAT ??_R3CWinApp@@8
rdata$r	SEGMENT
??_R3CWinApp@@8 DD 00H					; CWinApp::`RTTI Class Hierarchy Descriptor'
	DD	00H
	DD	04H
	DD	FLAT:??_R2CWinApp@@8
rdata$r	ENDS
;	COMDAT ??_R0?AVCWinApp@@@8
data$rs	SEGMENT
??_R0?AVCWinApp@@@8 DD FLAT:??_7type_info@@6B@		; CWinApp `RTTI Type Descriptor'
	DD	00H
	DB	'.?AVCWinApp@@', 00H
data$rs	ENDS
;	COMDAT ??_R1A@?0A@EA@CWinApp@@8
rdata$r	SEGMENT
??_R1A@?0A@EA@CWinApp@@8 DD FLAT:??_R0?AVCWinApp@@@8	; CWinApp::`RTTI Base Class Descriptor at (0,-1,0,64)'
	DD	03H
	DD	00H
	DD	0ffffffffH
	DD	00H
	DD	040H
	DD	FLAT:??_R3CWinApp@@8
rdata$r	ENDS
;	COMDAT ??_R1A@?0A@EA@COleControlModule@@8
rdata$r	SEGMENT
??_R1A@?0A@EA@COleControlModule@@8 DD FLAT:??_R0?AVCOleControlModule@@@8 ; COleControlModule::`RTTI Base Class Descriptor at (0,-1,0,64)'
	DD	04H
	DD	00H
	DD	0ffffffffH
	DD	00H
	DD	040H
	DD	FLAT:??_R3COleControlModule@@8
rdata$r	ENDS
;	COMDAT ??_R2COleControlModule@@8
rdata$r	SEGMENT
??_R2COleControlModule@@8 DD FLAT:??_R1A@?0A@EA@COleControlModule@@8 ; COleControlModule::`RTTI Base Class Array'
	DD	FLAT:??_R1A@?0A@EA@CWinApp@@8
	DD	FLAT:??_R1A@?0A@EA@CWinThread@@8
	DD	FLAT:??_R1A@?0A@EA@CCmdTarget@@8
	DD	FLAT:??_R1A@?0A@EA@CObject@@8
rdata$r	ENDS
;	COMDAT ??_R3COleControlModule@@8
rdata$r	SEGMENT
??_R3COleControlModule@@8 DD 00H			; COleControlModule::`RTTI Class Hierarchy Descriptor'
	DD	00H
	DD	05H
	DD	FLAT:??_R2COleControlModule@@8
rdata$r	ENDS
;	COMDAT ??_R0?AVCOleControlModule@@@8
data$rs	SEGMENT
??_R0?AVCOleControlModule@@@8 DD FLAT:??_7type_info@@6B@ ; COleControlModule `RTTI Type Descriptor'
	DD	00H
	DB	'.?AVCOleControlModule@@', 00H
data$rs	ENDS
;	COMDAT ??_R4COleControlModule@@6B@
rdata$r	SEGMENT
??_R4COleControlModule@@6B@ DD 00H			; COleControlModule::`RTTI Complete Object Locator'
	DD	00H
	DD	00H
	DD	FLAT:??_R0?AVCOleControlModule@@@8
	DD	FLAT:??_R3COleControlModule@@8
rdata$r	ENDS
;	COMDAT ??_7COleControlModule@@6B@
CONST	SEGMENT
??_7COleControlModule@@6B@ DD FLAT:??_R4COleControlModule@@6B@ ; COleControlModule::`vftable'
	DD	FLAT:?GetRuntimeClass@COleControlModule@@UBEPAUCRuntimeClass@@XZ
	DD	FLAT:??_ECOleControlModule@@UAEPAXI@Z
	DD	FLAT:?Serialize@CObject@@UAEXAAVCArchive@@@Z
	DD	FLAT:?AssertValid@CObject@@UBEXXZ
	DD	FLAT:?Dump@CObject@@UBEXAAVCDumpContext@@@Z
	DD	FLAT:?OnCmdMsg@CCmdTarget@@UAEHIHPAXPAUAFX_CMDHANDLERINFO@@@Z
	DD	FLAT:?OnFinalRelease@CCmdTarget@@UAEXXZ
	DD	FLAT:?IsInvokeAllowed@CCmdTarget@@UAEHJ@Z
	DD	FLAT:?GetDispatchIID@CCmdTarget@@UAEHPAU_GUID@@@Z
	DD	FLAT:?GetTypeInfoCount@CCmdTarget@@UAEIXZ
	DD	FLAT:?GetTypeLibCache@CCmdTarget@@UAEPAVCTypeLibCache@@XZ
	DD	FLAT:?GetTypeLib@CCmdTarget@@UAEJKPAPAUITypeLib@@@Z
	DD	FLAT:?GetMessageMap@CWinApp@@MBEPBUAFX_MSGMAP@@XZ
	DD	FLAT:?GetCommandMap@CCmdTarget@@MBEPBUAFX_OLECMDMAP@@XZ
	DD	FLAT:?GetDispatchMap@CCmdTarget@@MBEPBUAFX_DISPMAP@@XZ
	DD	FLAT:?GetConnectionMap@CCmdTarget@@MBEPBUAFX_CONNECTIONMAP@@XZ
	DD	FLAT:?GetInterfaceMap@CCmdTarget@@MBEPBUAFX_INTERFACEMAP@@XZ
	DD	FLAT:?GetEventSinkMap@CCmdTarget@@MBEPBUAFX_EVENTSINKMAP@@XZ
	DD	FLAT:?OnCreateAggregates@CCmdTarget@@UAEHXZ
	DD	FLAT:?GetInterfaceHook@CCmdTarget@@UAEPAUIUnknown@@PBX@Z
	DD	FLAT:?GetExtraConnectionPoints@CCmdTarget@@MAEHPAVCPtrArray@@@Z
	DD	FLAT:?GetConnectionHook@CCmdTarget@@MAEPAUIConnectionPoint@@ABU_GUID@@@Z
	DD	FLAT:?InitInstance@COleControlModule@@UAEHXZ
	DD	FLAT:?Run@CWinApp@@UAEHXZ
	DD	FLAT:?PreTranslateMessage@CWinThread@@UAEHPAUtagMSG@@@Z
	DD	FLAT:?PumpMessage@CWinThread@@UAEHXZ
	DD	FLAT:?OnIdle@CWinApp@@UAEHJ@Z
	DD	FLAT:?IsIdleMessage@CWinThread@@UAEHPAUtagMSG@@@Z
	DD	FLAT:?ExitInstance@COleControlModule@@UAEHXZ
	DD	FLAT:?ProcessWndProcException@CWinApp@@UAEJPAVCException@@PBUtagMSG@@@Z
	DD	FLAT:?ProcessMessageFilter@CWinThread@@UAEHHPAUtagMSG@@@Z
	DD	FLAT:?GetMainWnd@CWinThread@@UAEPAVCWnd@@XZ
	DD	FLAT:?Delete@CWinThread@@UAEXXZ
	DD	FLAT:?GetProfileIntA@CWinApp@@UAEIPBD0H@Z
	DD	FLAT:?WriteProfileInt@CWinApp@@UAEHPBD0H@Z
	DD	FLAT:?GetProfileStringA@CWinApp@@UAE?AV?$CStringT@DV?$StrTraitMFC_DLL@DV?$ChTraitsCRT@D@ATL@@@@@ATL@@PBD00@Z
	DD	FLAT:?WriteProfileStringA@CWinApp@@UAEHPBD00@Z
	DD	FLAT:?GetProfileBinary@CWinApp@@UAEHPBD0PAPAEPAI@Z
	DD	FLAT:?WriteProfileBinary@CWinApp@@UAEHPBD0PAEI@Z
	DD	FLAT:?InitLibId@CWinApp@@UAEXXZ
	DD	FLAT:?Register@CWinApp@@UAEHXZ
	DD	FLAT:?Unregister@CWinApp@@UAEHXZ
	DD	FLAT:?OpenDocumentFile@CWinApp@@UAEPAVCDocument@@PBDH@Z
	DD	FLAT:?OpenDocumentFile@CWinApp@@UAEPAVCDocument@@PBD@Z
	DD	FLAT:?AddToRecentFileList@CWinApp@@UAEXPBD@Z
	DD	FLAT:?InitApplication@CWinApp@@UAEHXZ
	DD	FLAT:?SaveAllModified@CWinApp@@UAEHXZ
	DD	FLAT:?DoMessageBox@CWinApp@@UAEHPBDII@Z
	DD	FLAT:?DoWaitCursor@CWinApp@@UAEXH@Z
	DD	FLAT:?OnDDECommand@CWinApp@@UAEHPAD@Z
	DD	FLAT:?WinHelpA@CWinApp@@UAEXKI@Z
	DD	FLAT:?HtmlHelpA@CWinApp@@UAEXKI@Z
	DD	FLAT:?WinHelpInternal@CWinApp@@UAEXKI@Z
	DD	FLAT:?RegisterWithRestartManager@CWinApp@@UAEJPB_WKP6GKPAX@Z1KK@Z
	DD	FLAT:?RegisterWithRestartManager@CWinApp@@UAEJHABV?$CStringT@DV?$StrTraitMFC_DLL@DV?$ChTraitsCRT@D@ATL@@@@@ATL@@@Z
	DD	FLAT:?ApplicationRecoveryCallback@CWinApp@@UAEKPAX@Z
	DD	FLAT:?SupportsRestartManager@CWinApp@@UBEHXZ
	DD	FLAT:?SupportsApplicationRecovery@CWinApp@@UBEHXZ
	DD	FLAT:?SupportsAutosaveAtRestart@CWinApp@@UBEHXZ
	DD	FLAT:?SupportsAutosaveAtInterval@CWinApp@@UBEHXZ
	DD	FLAT:?ReopenPreviousFilesAtRestart@CWinApp@@UBEHXZ
	DD	FLAT:?RestoreAutosavedFilesAtRestart@CWinApp@@UBEHXZ
	DD	FLAT:?GetApplicationRestartFlags@CWinApp@@UAEKXZ
	DD	FLAT:?GetApplicationRecoveryParameter@CWinApp@@UAEPAXXZ
	DD	FLAT:?GetApplicationRecoveryPingInterval@CWinApp@@UAEKXZ
	DD	FLAT:?GetDataRecoveryHandler@CWinApp@@UAEPAVCDataRecoveryHandler@@XZ
	DD	FLAT:?IsTaskbarInteractionEnabled@CWinApp@@UAEHXZ
	DD	FLAT:?RestartInstance@CWinApp@@UAEHXZ
	DD	FLAT:?LoadAppLangResourceDLL@CWinApp@@UAEPAUHINSTANCE__@@XZ
	DD	FLAT:?LoadSysPolicies@CWinApp@@UAEHXZ
CONST	ENDS
PUBLIC	?__empty_global_delete@@YAXPAX@Z		; __empty_global_delete
PUBLIC	?__empty_global_delete@@YAXPAXI@Z		; __empty_global_delete
PUBLIC	_DllRegisterServer@0
PUBLIC	_DllUnregisterServer@0
PUBLIC	?_AfxInitManaged@@YAHXZ				; _AfxInitManaged
PUBLIC	?StringCLSIDFromProgID@CProgIDInfo@@SAJPBDAAV?$CStringT@DV?$StrTraitMFC_DLL@DV?$ChTraitsCRT@D@ATL@@@@@ATL@@@Z ; CProgIDInfo::StringCLSIDFromProgID
PUBLIC	?ComServerFromProgID@CProgIDInfo@@SAJPBDAAV?$CStringT@DV?$StrTraitMFC_DLL@DV?$ChTraitsCRT@D@ATL@@@@@ATL@@@Z ; CProgIDInfo::ComServerFromProgID
PUBLIC	_LoadNomalizedMinuteTimeRule
PUBLIC	_IsDebugVersion
PUBLIC	??_C@_06JHNIBAJK@CLSID?2@			; `string'
PUBLIC	??_C@_01KICIPPFI@?2@				; `string'
PUBLIC	?g_strOcxPath@@3V?$CStringT@DV?$StrTraitMFC_DLL@DV?$ChTraitsCRT@D@ATL@@@@@ATL@@A ; g_strOcxPath
PUBLIC	??_C@_0BF@GGCKNBND@UnloadAllResourceDLL@	; `string'
PUBLIC	??_C@_0BA@CCGIMEPP@?2InprocServer32@		; `string'
PUBLIC	??_C@_0P@IKCDKIKH@?2LocalServer32@		; `string'
PUBLIC	??_C@_0BI@GJCLPPDD@IBKCHART?4IBKChartCtrl?41@	; `string'
PUBLIC	?theApp@@3VCKTBChartApp@@A			; theApp
PUBLIC	??_C@_03LKILIBFM@?4?4?2@			; `string'
PUBLIC	??_C@_0DA@NHNPGDIK@?$CFd?5ToolOptinName?5Not?5Defined?$CB?$AN?6@ ; `string'
PUBLIC	??_C@_0BA@NMCBNOGD@Data?2Config?4cfg@		; `string'
PUBLIC	??_C@_04FEFINHJA@NMTR@				; `string'
PUBLIC	??_C@_05DNDFGIMA@CHART@				; `string'
EXTRN	??3@YAXPAX@Z:PROC				; operator delete
EXTRN	?__global_delete@@YAXPAXI@Z:PROC		; __global_delete
EXTRN	_atexit:PROC
EXTRN	_strrchr:PROC
EXTRN	__imp__GetLongPathNameA@12:PROC
EXTRN	__imp__GetProcAddress@8:PROC
EXTRN	__imp__GetPrivateProfileIntA@16:PROC
EXTRN	__imp__MultiByteToWideChar@24:PROC
EXTRN	__imp__WideCharToMultiByte@32:PROC
EXTRN	__imp__RegCloseKey@4:PROC
EXTRN	__imp__RegOpenKeyExA@20:PROC
EXTRN	__imp__RegQueryValueExA@24:PROC
EXTRN	__imp__StringFromCLSID@8:PROC
EXTRN	__imp__CLSIDFromProgID@8:PROC
EXTRN	__imp__CoTaskMemFree@4:PROC
EXTRN	__imp_?GetAt@?$CSimpleStringT@D$00@ATL@@QBEDH@Z:PROC
EXTRN	__imp_?GetBuffer@?$CSimpleStringT@D$00@ATL@@QAEPADH@Z:PROC
EXTRN	__imp_?GetBufferSetLength@?$CSimpleStringT@D$00@ATL@@QAEPADH@Z:PROC
EXTRN	__imp_?ReleaseBuffer@?$CSimpleStringT@D$00@ATL@@QAEXH@Z:PROC
EXTRN	__imp_?Concatenate@?$CSimpleStringT@D$00@ATL@@KAXAAV12@PBDH1H@Z:PROC
EXTRN	__imp_??0?$CStringT@DV?$StrTraitMFC_DLL@DV?$ChTraitsCRT@D@ATL@@@@@ATL@@QAE@XZ:PROC
EXTRN	__imp_??0?$CStringT@DV?$StrTraitMFC_DLL@DV?$ChTraitsCRT@D@ATL@@@@@ATL@@QAE@PAUIAtlStringMgr@1@@Z:PROC
EXTRN	__imp_??0?$CStringT@DV?$StrTraitMFC_DLL@DV?$ChTraitsCRT@D@ATL@@@@@ATL@@QAE@PBD@Z:PROC
EXTRN	__imp_??1?$CStringT@DV?$StrTraitMFC_DLL@DV?$ChTraitsCRT@D@ATL@@@@@ATL@@QAE@XZ:PROC
EXTRN	__imp_??4?$CStringT@DV?$StrTraitMFC_DLL@DV?$ChTraitsCRT@D@ATL@@@@@ATL@@QAEAAV01@ABV01@@Z:PROC
EXTRN	__imp_??4?$CStringT@DV?$StrTraitMFC_DLL@DV?$ChTraitsCRT@D@ATL@@@@@ATL@@QAEAAV01@PBD@Z:PROC
EXTRN	__imp_??Y?$CStringT@DV?$StrTraitMFC_DLL@DV?$ChTraitsCRT@D@ATL@@@@@ATL@@QAEAAV01@PBD@Z:PROC
EXTRN	__imp_?GetManager@?$CStringT@DV?$StrTraitMFC_DLL@DV?$ChTraitsCRT@D@ATL@@@@@ATL@@QBEPAUIAtlStringMgr@2@XZ:PROC
EXTRN	__imp_?ReverseFind@?$CStringT@DV?$StrTraitMFC_DLL@DV?$ChTraitsCRT@D@ATL@@@@@ATL@@QBEHD@Z:PROC
EXTRN	__imp_?Left@?$CStringT@DV?$StrTraitMFC_DLL@DV?$ChTraitsCRT@D@ATL@@@@@ATL@@QBE?AV12@H@Z:PROC
EXTRN	__imp_?Format@?$CStringT@DV?$StrTraitMFC_DLL@DV?$ChTraitsCRT@D@ATL@@@@@ATL@@QAAXPBDZZ:PROC
EXTRN	?RemoveAll@CMapStringToString@@QAEXXZ:PROC	; CMapStringToString::RemoveAll
EXTRN	?AfxGetModuleState@@YGPAVAFX_MODULE_STATE@@XZ:PROC ; AfxGetModuleState
EXTRN	?AfxGetStaticModuleState@@YGPAVAFX_MODULE_STATE@@XZ:PROC ; AfxGetStaticModuleState
EXTRN	??0AFX_MAINTAIN_STATE2@@QAE@PAVAFX_MODULE_STATE@@@Z:PROC ; AFX_MAINTAIN_STATE2::AFX_MAINTAIN_STATE2
EXTRN	??1AFX_MAINTAIN_STATE2@@QAE@XZ:PROC		; AFX_MAINTAIN_STATE2::~AFX_MAINTAIN_STATE2
EXTRN	??0CWinApp@@QAE@PBD@Z:PROC			; CWinApp::CWinApp
EXTRN	??1CWinApp@@UAE@XZ:PROC				; CWinApp::~CWinApp
EXTRN	?AfxMessageBox@@YGHPBDII@Z:PROC			; AfxMessageBox
EXTRN	?UpdateRegistryAll@COleObjectFactory@@SGHH@Z:PROC ; COleObjectFactory::UpdateRegistryAll
EXTRN	?AfxOleRegisterTypeLib@@YGHPAUHINSTANCE__@@ABU_GUID@@PBD2@Z:PROC ; AfxOleRegisterTypeLib
EXTRN	?AfxOleUnregisterTypeLib@@YGHABU_GUID@@GGK@Z:PROC ; AfxOleUnregisterTypeLib
EXTRN	?AfxEnableControlContainer@@YAXPAVCOccManager@@@Z:PROC ; AfxEnableControlContainer
EXTRN	@__security_check_cookie@4:PROC
EXTRN	___CxxFrameHandler3:PROC
EXTRN	__alloca_probe_16:PROC
EXTRN	?m_nToolOptionCount@IMetaTable@@2HA:DWORD	; IMetaTable::m_nToolOptionCount
EXTRN	?g_iMetaTable@@3VIMetaTable@@A:BYTE		; g_iMetaTable
EXTRN	?m_mapAddInLoadString@CKTBChartCtrl@@1VCMapStringToString@@A:BYTE ; CKTBChartCtrl::m_mapAddInLoadString
EXTRN	___security_cookie:DWORD
_BSS	SEGMENT
?g_strOcxPath@@3V?$CStringT@DV?$StrTraitMFC_DLL@DV?$ChTraitsCRT@D@ATL@@@@@ATL@@A DD 01H DUP (?) ; g_strOcxPath
?theApp@@3VCKTBChartApp@@A DB 0ccH DUP (?)		; theApp
_BSS	ENDS
CRT$XCU	SEGMENT
?theApp$initializer$@@3P6AXXZA DD FLAT:??__EtheApp@@YAXXZ ; theApp$initializer$
CRT$XCU	ENDS
;	COMDAT ??_C@_05DNDFGIMA@CHART@
CONST	SEGMENT
??_C@_05DNDFGIMA@CHART@ DB 'CHART', 00H			; `string'
CONST	ENDS
;	COMDAT ??_C@_04FEFINHJA@NMTR@
CONST	SEGMENT
??_C@_04FEFINHJA@NMTR@ DB 'NMTR', 00H			; `string'
CONST	ENDS
;	COMDAT ??_C@_0BA@NMCBNOGD@Data?2Config?4cfg@
CONST	SEGMENT
??_C@_0BA@NMCBNOGD@Data?2Config?4cfg@ DB 'Data\Config.cfg', 00H ; `string'
CONST	ENDS
;	COMDAT ??_C@_0DA@NHNPGDIK@?$CFd?5ToolOptinName?5Not?5Defined?$CB?$AN?6@
CONST	SEGMENT
??_C@_0DA@NHNPGDIK@?$CFd?5ToolOptinName?5Not?5Defined?$CB?$AN?6@ DB '%d T'
	DB	'oolOptinName Not Defined!', 0dH, 0aH, 'Please Check it!', 00H ; `string'
CONST	ENDS
;	COMDAT ??_C@_03LKILIBFM@?4?4?2@
CONST	SEGMENT
??_C@_03LKILIBFM@?4?4?2@ DB '..\', 00H			; `string'
CONST	ENDS
;	COMDAT ??_C@_0BI@GJCLPPDD@IBKCHART?4IBKChartCtrl?41@
CONST	SEGMENT
??_C@_0BI@GJCLPPDD@IBKCHART?4IBKChartCtrl?41@ DB 'IBKCHART.IBKChartCtrl.1'
	DB	00H						; `string'
CONST	ENDS
;	COMDAT ??_C@_0P@IKCDKIKH@?2LocalServer32@
CONST	SEGMENT
??_C@_0P@IKCDKIKH@?2LocalServer32@ DB '\LocalServer32', 00H ; `string'
CONST	ENDS
;	COMDAT ??_C@_0BA@CCGIMEPP@?2InprocServer32@
CONST	SEGMENT
??_C@_0BA@CCGIMEPP@?2InprocServer32@ DB '\InprocServer32', 00H ; `string'
CONST	ENDS
;	COMDAT ??_C@_0BF@GGCKNBND@UnloadAllResourceDLL@
CONST	SEGMENT
??_C@_0BF@GGCKNBND@UnloadAllResourceDLL@ DB 'UnloadAllResourceDLL', 00H ; `string'
CONST	ENDS
;	COMDAT ??_C@_01KICIPPFI@?2@
CONST	SEGMENT
??_C@_01KICIPPFI@?2@ DB '\', 00H			; `string'
CONST	ENDS
;	COMDAT ??_C@_06JHNIBAJK@CLSID?2@
CONST	SEGMENT
??_C@_06JHNIBAJK@CLSID?2@ DB 'CLSID\', 00H		; `string'
CONST	ENDS
;	COMDAT xdata$x
xdata$x	SEGMENT
__unwindtable$?ComServerFromProgID@CProgIDInfo@@SAJPBDAAV?$CStringT@DV?$StrTraitMFC_DLL@DV?$ChTraitsCRT@D@ATL@@@@@ATL@@@Z DD 0ffffffffH
	DD	FLAT:__unwindfunclet$?ComServerFromProgID@CProgIDInfo@@SAJPBDAAV?$CStringT@DV?$StrTraitMFC_DLL@DV?$ChTraitsCRT@D@ATL@@@@@ATL@@@Z$0
	DD	00H
	DD	FLAT:__unwindfunclet$?ComServerFromProgID@CProgIDInfo@@SAJPBDAAV?$CStringT@DV?$StrTraitMFC_DLL@DV?$ChTraitsCRT@D@ATL@@@@@ATL@@@Z$1
	DD	01H
	DD	FLAT:__unwindfunclet$?ComServerFromProgID@CProgIDInfo@@SAJPBDAAV?$CStringT@DV?$StrTraitMFC_DLL@DV?$ChTraitsCRT@D@ATL@@@@@ATL@@@Z$2
__ehfuncinfo$?ComServerFromProgID@CProgIDInfo@@SAJPBDAAV?$CStringT@DV?$StrTraitMFC_DLL@DV?$ChTraitsCRT@D@ATL@@@@@ATL@@@Z DD 019930522H
	DD	03H
	DD	FLAT:__unwindtable$?ComServerFromProgID@CProgIDInfo@@SAJPBDAAV?$CStringT@DV?$StrTraitMFC_DLL@DV?$ChTraitsCRT@D@ATL@@@@@ATL@@@Z
	DD	2 DUP(00H)
	DD	2 DUP(00H)
	DD	00H
	DD	01H
xdata$x	ENDS
;	COMDAT xdata$x
xdata$x	SEGMENT
__unwindtable$?ComServerFromStringCLSID@CProgIDInfo@@SAJPBDAAV?$CStringT@DV?$StrTraitMFC_DLL@DV?$ChTraitsCRT@D@ATL@@@@@ATL@@@Z DD 0ffffffffH
	DD	FLAT:__unwindfunclet$?ComServerFromStringCLSID@CProgIDInfo@@SAJPBDAAV?$CStringT@DV?$StrTraitMFC_DLL@DV?$ChTraitsCRT@D@ATL@@@@@ATL@@@Z$0
	DD	00H
	DD	FLAT:__unwindfunclet$?ComServerFromStringCLSID@CProgIDInfo@@SAJPBDAAV?$CStringT@DV?$StrTraitMFC_DLL@DV?$ChTraitsCRT@D@ATL@@@@@ATL@@@Z$1
__ehfuncinfo$?ComServerFromStringCLSID@CProgIDInfo@@SAJPBDAAV?$CStringT@DV?$StrTraitMFC_DLL@DV?$ChTraitsCRT@D@ATL@@@@@ATL@@@Z DD 019930522H
	DD	02H
	DD	FLAT:__unwindtable$?ComServerFromStringCLSID@CProgIDInfo@@SAJPBDAAV?$CStringT@DV?$StrTraitMFC_DLL@DV?$ChTraitsCRT@D@ATL@@@@@ATL@@@Z
	DD	2 DUP(00H)
	DD	2 DUP(00H)
	DD	00H
	DD	01H
xdata$x	ENDS
;	COMDAT xdata$x
xdata$x	SEGMENT
__unwindtable$?InitInstance@CKTBChartApp@@UAEHXZ DD 0ffffffffH
	DD	FLAT:__unwindfunclet$?InitInstance@CKTBChartApp@@UAEHXZ$0
	DD	00H
	DD	FLAT:__unwindfunclet$?InitInstance@CKTBChartApp@@UAEHXZ$1
	DD	00H
	DD	FLAT:__unwindfunclet$?InitInstance@CKTBChartApp@@UAEHXZ$4
	DD	00H
	DD	FLAT:__unwindfunclet$?InitInstance@CKTBChartApp@@UAEHXZ$3
__ehfuncinfo$?InitInstance@CKTBChartApp@@UAEHXZ DD 019930522H
	DD	04H
	DD	FLAT:__unwindtable$?InitInstance@CKTBChartApp@@UAEHXZ
	DD	2 DUP(00H)
	DD	2 DUP(00H)
	DD	00H
	DD	01H
xdata$x	ENDS
;	COMDAT xdata$x
xdata$x	SEGMENT
__unwindtable$??HATL@@YA?AV?$CStringT@DV?$StrTraitMFC_DLL@DV?$ChTraitsCRT@D@ATL@@@@@0@ABV10@PBD@Z DD 0ffffffffH
	DD	FLAT:__unwindfunclet$??HATL@@YA?AV?$CStringT@DV?$StrTraitMFC_DLL@DV?$ChTraitsCRT@D@ATL@@@@@0@ABV10@PBD@Z$0
__ehfuncinfo$??HATL@@YA?AV?$CStringT@DV?$StrTraitMFC_DLL@DV?$ChTraitsCRT@D@ATL@@@@@0@ABV10@PBD@Z DD 019930522H
	DD	01H
	DD	FLAT:__unwindtable$??HATL@@YA?AV?$CStringT@DV?$StrTraitMFC_DLL@DV?$ChTraitsCRT@D@ATL@@@@@0@ABV10@PBD@Z
	DD	2 DUP(00H)
	DD	2 DUP(00H)
	DD	00H
	DD	01H
xdata$x	ENDS
CRT$XCU	SEGMENT
?g_strOcxPath$initializer$@@3P6AXXZA DD FLAT:??__Eg_strOcxPath@@YAXXZ ; g_strOcxPath$initializer$
CRT$XCU	ENDS
; Function compile flags: /Ogtp
; File D:\git\src\IBK\IBK_DRFN\ProjSrc\SrcChartEx\ChartOCX\KTBChart\KTBChart.cpp
;	COMDAT _IsDebugVersion
_TEXT	SEGMENT
_IsDebugVersion PROC					; COMDAT

; 163  : #ifndef _DEBUG
; 164  : 	return FALSE;

  00000	33 c0		 xor	 eax, eax

; 165  : #else
; 166  : 	return TRUE;
; 167  : #endif
; 168  : }

  00002	c3		 ret	 0
_IsDebugVersion ENDP
_TEXT	ENDS
; Function compile flags: /Ogtp
;	COMDAT ??__Fg_strOcxPath@@YAXXZ
text$yd	SEGMENT
??__Fg_strOcxPath@@YAXXZ PROC				; `dynamic atexit destructor for 'g_strOcxPath'', COMDAT
  00000	b9 00 00 00 00	 mov	 ecx, OFFSET ?g_strOcxPath@@3V?$CStringT@DV?$StrTraitMFC_DLL@DV?$ChTraitsCRT@D@ATL@@@@@ATL@@A ; g_strOcxPath
  00005	ff 25 00 00 00
	00		 jmp	 DWORD PTR __imp_??1?$CStringT@DV?$StrTraitMFC_DLL@DV?$ChTraitsCRT@D@ATL@@@@@ATL@@QAE@XZ
??__Fg_strOcxPath@@YAXXZ ENDP				; `dynamic atexit destructor for 'g_strOcxPath''
text$yd	ENDS
; Function compile flags: /Ogtp
; File D:\git\src\IBK\IBK_DRFN\ProjSrc\SrcChartEx\ChartOCX\KTBChart\KTBChart.cpp
;	COMDAT ??__Eg_strOcxPath@@YAXXZ
text$di	SEGMENT
??__Eg_strOcxPath@@YAXXZ PROC				; `dynamic initializer for 'g_strOcxPath'', COMDAT

; 34   : CString	g_strOcxPath;

  00000	b9 00 00 00 00	 mov	 ecx, OFFSET ?g_strOcxPath@@3V?$CStringT@DV?$StrTraitMFC_DLL@DV?$ChTraitsCRT@D@ATL@@@@@ATL@@A ; g_strOcxPath
  00005	ff 15 00 00 00
	00		 call	 DWORD PTR __imp_??0?$CStringT@DV?$StrTraitMFC_DLL@DV?$ChTraitsCRT@D@ATL@@@@@ATL@@QAE@XZ
  0000b	68 00 00 00 00	 push	 OFFSET ??__Fg_strOcxPath@@YAXXZ ; `dynamic atexit destructor for 'g_strOcxPath''
  00010	e8 00 00 00 00	 call	 _atexit
  00015	59		 pop	 ecx
  00016	c3		 ret	 0
??__Eg_strOcxPath@@YAXXZ ENDP				; `dynamic initializer for 'g_strOcxPath''
text$di	ENDS
; Function compile flags: /Ogtp
;	COMDAT ??__FtheApp@@YAXXZ
text$yd	SEGMENT
??__FtheApp@@YAXXZ PROC					; `dynamic atexit destructor for 'theApp'', COMDAT
  00000	b9 00 00 00 00	 mov	 ecx, OFFSET ?theApp@@3VCKTBChartApp@@A ; theApp
  00005	e9 00 00 00 00	 jmp	 ??1CWinApp@@UAE@XZ	; CWinApp::~CWinApp
??__FtheApp@@YAXXZ ENDP					; `dynamic atexit destructor for 'theApp''
text$yd	ENDS
; Function compile flags: /Ogtp
; File D:\git\src\IBK\IBK_DRFN\ProjSrc\SrcChartEx\ChartOCX\KTBChart\KTBChart.cpp
;	COMDAT ??__EtheApp@@YAXXZ
text$di	SEGMENT
??__EtheApp@@YAXXZ PROC					; `dynamic initializer for 'theApp'', COMDAT

; 21   : CKTBChartApp NEAR theApp;

  00000	6a 00		 push	 0
  00002	b9 00 00 00 00	 mov	 ecx, OFFSET ?theApp@@3VCKTBChartApp@@A ; theApp
  00007	e8 00 00 00 00	 call	 ??0CWinApp@@QAE@PBD@Z	; CWinApp::CWinApp
  0000c	68 00 00 00 00	 push	 OFFSET ??__FtheApp@@YAXXZ ; `dynamic atexit destructor for 'theApp''
  00011	c7 05 00 00 00
	00 00 00 00 00	 mov	 DWORD PTR ?theApp@@3VCKTBChartApp@@A, OFFSET ??_7CKTBChartApp@@6B@
  0001b	e8 00 00 00 00	 call	 _atexit
  00020	59		 pop	 ecx
  00021	c3		 ret	 0
??__EtheApp@@YAXXZ ENDP					; `dynamic initializer for 'theApp''
text$di	ENDS
; Function compile flags: /Ogtp
; File D:\git\src\IBK\IBK_DRFN\ProjSrc\SrcChartEx\ChartOCX\KTBChart\KTBChart.cpp
; File C:\Program Files (x86)\Microsoft Visual Studio\2019\Community\VC\Tools\MSVC\14.29.30133\atlmfc\include\atlsimpstr.h
; File D:\git\src\IBK\IBK_DRFN\ProjSrc\SrcChartEx\ChartOCX\KTBChart\KTBChart.cpp
;	COMDAT _LoadNomalizedMinuteTimeRule
_TEXT	SEGMENT
_strCfgPath$ = -4					; size = 4
_p_szHtsPath$ = 8					; size = 4
_LoadNomalizedMinuteTimeRule PROC			; COMDAT

; 138  : {

  00000	55		 push	 ebp
  00001	8b ec		 mov	 ebp, esp
  00003	51		 push	 ecx
  00004	56		 push	 esi

; 139  : 	// 1. HTS Path를 이용하여 CFG Path를 구성한다.
; 140  : 	CString strCfgPath( p_szHtsPath);

  00005	ff 75 08	 push	 DWORD PTR _p_szHtsPath$[ebp]
  00008	8d 4d fc	 lea	 ecx, DWORD PTR _strCfgPath$[ebp]
  0000b	ff 15 00 00 00
	00		 call	 DWORD PTR __imp_??0?$CStringT@DV?$StrTraitMFC_DLL@DV?$ChTraitsCRT@D@ATL@@@@@ATL@@QAE@PBD@Z
; File C:\Program Files (x86)\Microsoft Visual Studio\2019\Community\VC\Tools\MSVC\14.29.30133\atlmfc\include\atlsimpstr.h

; 519  : 		return( GetData()->nDataLength );

  00011	8b 45 fc	 mov	 eax, DWORD PTR _strCfgPath$[ebp]
  00014	8b 40 f4	 mov	 eax, DWORD PTR [eax-12]
; File D:\git\src\IBK\IBK_DRFN\ProjSrc\SrcChartEx\ChartOCX\KTBChart\KTBChart.cpp

; 142  : 	if( 0 < nHtsPathLength)

  00017	85 c0		 test	 eax, eax
  00019	7e 66		 jle	 SHORT $LN11@LoadNomali

; 143  : 	{
; 144  : 		if( strCfgPath.GetAt( nHtsPathLength - 1) != '\\') strCfgPath += "\\";

  0001b	48		 dec	 eax
  0001c	8d 4d fc	 lea	 ecx, DWORD PTR _strCfgPath$[ebp]
  0001f	50		 push	 eax
  00020	ff 15 00 00 00
	00		 call	 DWORD PTR __imp_?GetAt@?$CSimpleStringT@D$00@ATL@@QBEDH@Z
  00026	3c 5c		 cmp	 al, 92			; 0000005cH
  00028	74 0e		 je	 SHORT $LN3@LoadNomali
  0002a	68 00 00 00 00	 push	 OFFSET ??_C@_01KICIPPFI@?2@
  0002f	8d 4d fc	 lea	 ecx, DWORD PTR _strCfgPath$[ebp]
  00032	ff 15 00 00 00
	00		 call	 DWORD PTR __imp_??Y?$CStringT@DV?$StrTraitMFC_DLL@DV?$ChTraitsCRT@D@ATL@@@@@ATL@@QAEAAV01@PBD@Z
$LN3@LoadNomali:

; 145  : 		strCfgPath += "Data\\Config.cfg";

  00038	68 00 00 00 00	 push	 OFFSET ??_C@_0BA@NMCBNOGD@Data?2Config?4cfg@
  0003d	8d 4d fc	 lea	 ecx, DWORD PTR _strCfgPath$[ebp]
  00040	ff 15 00 00 00
	00		 call	 DWORD PTR __imp_??Y?$CStringT@DV?$StrTraitMFC_DLL@DV?$ChTraitsCRT@D@ATL@@@@@ATL@@QAEAAV01@PBD@Z

; 146  : 		
; 147  : 		// 2. CFG의 CHART Section중 NMTR의 값을 반영한다. (0과 1로 확인한다.)
; 148  : 		g_bNormalizedMinuteTimeRule = !( GetPrivateProfileInt( "CHART", "NMTR", g_bNormalizedMinuteTimeRule ? 1 : 0, strCfgPath) == 0);

  00046	ff 75 fc	 push	 DWORD PTR _strCfgPath$[ebp]
  00049	33 c0		 xor	 eax, eax
  0004b	39 05 00 00 00
	00		 cmp	 DWORD PTR ?g_bNormalizedMinuteTimeRule@@3HA, eax ; g_bNormalizedMinuteTimeRule
  00051	0f 95 c0	 setne	 al
  00054	50		 push	 eax
  00055	68 00 00 00 00	 push	 OFFSET ??_C@_04FEFINHJA@NMTR@
  0005a	68 00 00 00 00	 push	 OFFSET ??_C@_05DNDFGIMA@CHART@
  0005f	ff 15 00 00 00
	00		 call	 DWORD PTR __imp__GetPrivateProfileIntA@16
  00065	f7 d8		 neg	 eax

; 149  : 	}
; 150  : 
; 151  : 	return g_bNormalizedMinuteTimeRule;

  00067	8d 4d fc	 lea	 ecx, DWORD PTR _strCfgPath$[ebp]
  0006a	1b f6		 sbb	 esi, esi
  0006c	f7 de		 neg	 esi
  0006e	89 35 00 00 00
	00		 mov	 DWORD PTR ?g_bNormalizedMinuteTimeRule@@3HA, esi ; g_bNormalizedMinuteTimeRule
  00074	ff 15 00 00 00
	00		 call	 DWORD PTR __imp_??1?$CStringT@DV?$StrTraitMFC_DLL@DV?$ChTraitsCRT@D@ATL@@@@@ATL@@QAE@XZ
  0007a	8b c6		 mov	 eax, esi
  0007c	5e		 pop	 esi

; 152  : }

  0007d	8b e5		 mov	 esp, ebp
  0007f	5d		 pop	 ebp
  00080	c3		 ret	 0
$LN11@LoadNomali:

; 142  : 	if( 0 < nHtsPathLength)

  00081	8b 35 00 00 00
	00		 mov	 esi, DWORD PTR ?g_bNormalizedMinuteTimeRule@@3HA ; g_bNormalizedMinuteTimeRule

; 149  : 	}
; 150  : 
; 151  : 	return g_bNormalizedMinuteTimeRule;

  00087	8d 4d fc	 lea	 ecx, DWORD PTR _strCfgPath$[ebp]
  0008a	ff 15 00 00 00
	00		 call	 DWORD PTR __imp_??1?$CStringT@DV?$StrTraitMFC_DLL@DV?$ChTraitsCRT@D@ATL@@@@@ATL@@QAE@XZ
  00090	8b c6		 mov	 eax, esi
  00092	5e		 pop	 esi

; 152  : }

  00093	8b e5		 mov	 esp, ebp
  00095	5d		 pop	 ebp
  00096	c3		 ret	 0
_LoadNomalizedMinuteTimeRule ENDP
_TEXT	ENDS
; Function compile flags: /Ogtp
; File D:\git\src\IBK\IBK_DRFN\ProjSrc\SrcChartEx\ChartOCX\Include\ProgIDInfo.h
; File C:\Program Files (x86)\Microsoft Visual Studio\2019\Community\VC\Tools\MSVC\14.29.30133\atlmfc\include\atlsimpstr.h
; File D:\git\src\IBK\IBK_DRFN\ProjSrc\SrcChartEx\ChartOCX\Include\ProgIDInfo.h
; File C:\Program Files (x86)\Windows Kits\10\Include\10.0.22000.0\ucrt\string.h
; File D:\git\src\IBK\IBK_DRFN\ProjSrc\SrcChartEx\ChartOCX\Include\ProgIDInfo.h
;	COMDAT ?ComServerFromProgID@CProgIDInfo@@SAJPBDAAV?$CStringT@DV?$StrTraitMFC_DLL@DV?$ChTraitsCRT@D@ATL@@@@@ATL@@@Z
_TEXT	SEGMENT
_dwDataType$2 = -36					; size = 4
_dwReceivedSize$3 = -32					; size = 4
_strClsID$ = -28					; size = 4
_hKey$4 = -24						; size = 4
_strShortServerPath$5 = -20				; size = 4
_strSubKey$6 = -16					; size = 4
__$EHRec$ = -12						; size = 12
_p_szProgID$ = 8					; size = 4
_p_strComServer$ = 12					; size = 4
?ComServerFromProgID@CProgIDInfo@@SAJPBDAAV?$CStringT@DV?$StrTraitMFC_DLL@DV?$ChTraitsCRT@D@ATL@@@@@ATL@@@Z PROC ; CProgIDInfo::ComServerFromProgID, COMDAT

; 217  : 	{

  00000	55		 push	 ebp
  00001	8b ec		 mov	 ebp, esp
  00003	6a ff		 push	 -1
  00005	68 00 00 00 00	 push	 __ehhandler$?ComServerFromProgID@CProgIDInfo@@SAJPBDAAV?$CStringT@DV?$StrTraitMFC_DLL@DV?$ChTraitsCRT@D@ATL@@@@@ATL@@@Z
  0000a	64 a1 00 00 00
	00		 mov	 eax, DWORD PTR fs:0
  00010	50		 push	 eax
  00011	83 ec 18	 sub	 esp, 24			; 00000018H
  00014	56		 push	 esi
  00015	57		 push	 edi
  00016	a1 00 00 00 00	 mov	 eax, DWORD PTR ___security_cookie
  0001b	33 c5		 xor	 eax, ebp
  0001d	50		 push	 eax
  0001e	8d 45 f4	 lea	 eax, DWORD PTR __$EHRec$[ebp]
  00021	64 a3 00 00 00
	00		 mov	 DWORD PTR fs:0, eax

; 218  : 		// 1. 먼저 String CLSID를 구한다.
; 219  : 		CString strClsID;

  00027	8d 4d e4	 lea	 ecx, DWORD PTR _strClsID$[ebp]
  0002a	ff 15 00 00 00
	00		 call	 DWORD PTR __imp_??0?$CStringT@DV?$StrTraitMFC_DLL@DV?$ChTraitsCRT@D@ATL@@@@@ATL@@QAE@XZ

; 220  : 		long lResult = StringCLSIDFromProgID( p_szProgID, strClsID);

  00030	8d 45 e4	 lea	 eax, DWORD PTR _strClsID$[ebp]
  00033	c7 45 fc 00 00
	00 00		 mov	 DWORD PTR __$EHRec$[ebp+8], 0
  0003a	50		 push	 eax
  0003b	ff 75 08	 push	 DWORD PTR _p_szProgID$[ebp]
  0003e	e8 00 00 00 00	 call	 ?StringCLSIDFromProgID@CProgIDInfo@@SAJPBDAAV?$CStringT@DV?$StrTraitMFC_DLL@DV?$ChTraitsCRT@D@ATL@@@@@ATL@@@Z ; CProgIDInfo::StringCLSIDFromProgID
  00043	83 c4 08	 add	 esp, 8

; 221  : 		if( lResult < 0) return lResult * 10 - 1;

  00046	85 c0		 test	 eax, eax
  00048	79 0f		 jns	 SHORT $LN2@ComServerF
  0004a	8d 04 80	 lea	 eax, DWORD PTR [eax+eax*4]
  0004d	8d 34 45 ff ff
	ff ff		 lea	 esi, DWORD PTR [eax*2-1]
  00054	e9 8f 01 00 00	 jmp	 $LN7@ComServerF
$LN2@ComServerF:
; File C:\Program Files (x86)\Microsoft Visual Studio\2019\Community\VC\Tools\MSVC\14.29.30133\atlmfc\include\atlsimpstr.h

; 377  : 		return( m_pszData );

  00059	8b 75 e4	 mov	 esi, DWORD PTR _strClsID$[ebp]
; File D:\git\src\IBK\IBK_DRFN\ProjSrc\SrcChartEx\ChartOCX\Include\ProgIDInfo.h

; 170  : 		CString strSubKey;

  0005c	8d 4d f0	 lea	 ecx, DWORD PTR _strSubKey$6[ebp]
  0005f	ff 15 00 00 00
	00		 call	 DWORD PTR __imp_??0?$CStringT@DV?$StrTraitMFC_DLL@DV?$ChTraitsCRT@D@ATL@@@@@ATL@@QAE@XZ

; 171  : 		char *szSubKey = strSubKey.GetBufferSetLength( 6 + 38 + 15);

  00065	6a 3b		 push	 59			; 0000003bH
  00067	8d 4d f0	 lea	 ecx, DWORD PTR _strSubKey$6[ebp]
  0006a	c6 45 fc 01	 mov	 BYTE PTR __$EHRec$[ebp+8], 1
  0006e	ff 15 00 00 00
	00		 call	 DWORD PTR __imp_?GetBufferSetLength@?$CSimpleStringT@D$00@ATL@@QAEPADH@Z

; 172  : 		strcpy( szSubKey, "CLSID\\");

  00074	8b 0d 00 00 00
	00		 mov	 ecx, DWORD PTR ??_C@_06JHNIBAJK@CLSID?2@
  0007a	8b f8		 mov	 edi, eax
  0007c	89 0f		 mov	 DWORD PTR [edi], ecx
  0007e	66 8b 0d 04 00
	00 00		 mov	 cx, WORD PTR ??_C@_06JHNIBAJK@CLSID?2@+4
  00085	66 89 4f 04	 mov	 WORD PTR [edi+4], cx
  00089	8a 0d 06 00 00
	00		 mov	 cl, BYTE PTR ??_C@_06JHNIBAJK@CLSID?2@+6
  0008f	88 4f 06	 mov	 BYTE PTR [edi+6], cl

; 173  : 		strcpy( szSubKey + 6, p_szClsID);

  00092	8b cf		 mov	 ecx, edi
  00094	2b ce		 sub	 ecx, esi
$LL17@ComServerF:
  00096	8a 06		 mov	 al, BYTE PTR [esi]
  00098	8d 76 01	 lea	 esi, DWORD PTR [esi+1]
  0009b	88 44 31 05	 mov	 BYTE PTR [ecx+esi+5], al
  0009f	84 c0		 test	 al, al
  000a1	75 f3		 jne	 SHORT $LL17@ComServerF

; 174  : 		strcpy( szSubKey + 6 + 38, "\\InprocServer32");

  000a3	0f 10 05 00 00
	00 00		 movups	 xmm0, XMMWORD PTR ??_C@_0BA@CCGIMEPP@?2InprocServer32@

; 175  : 		// 1. Key를 Open한다.
; 176  : 		HKEY hKey;
; 177  : 		if( RegOpenKeyEx( HKEY_CLASSES_ROOT, szSubKey, 0, KEY_QUERY_VALUE, &hKey) != ERROR_SUCCESS)

  000aa	8b 35 00 00 00
	00		 mov	 esi, DWORD PTR __imp__RegOpenKeyExA@20
  000b0	8d 45 e8	 lea	 eax, DWORD PTR _hKey$4[ebp]
  000b3	50		 push	 eax
  000b4	6a 01		 push	 1
  000b6	6a 00		 push	 0
  000b8	57		 push	 edi
  000b9	68 00 00 00 80	 push	 -2147483648		; 80000000H
  000be	0f 11 47 2c	 movups	 XMMWORD PTR [edi+44], xmm0
  000c2	ff d6		 call	 esi
  000c4	85 c0		 test	 eax, eax
  000c6	74 4e		 je	 SHORT $LN12@ComServerF

; 178  : 		{
; 179  : 			// 1.1 InprocServer32가 아니라면 LocalServer32로 확인한다.
; 180  : 			strcpy( szSubKey + 6 + 38, "\\LocalServer32");

  000c8	f3 0f 7e 05 00
	00 00 00	 movq	 xmm0, QWORD PTR ??_C@_0P@IKCDKIKH@?2LocalServer32@
  000d0	66 0f d6 47 2c	 movq	 QWORD PTR [edi+44], xmm0
  000d5	a1 08 00 00 00	 mov	 eax, DWORD PTR ??_C@_0P@IKCDKIKH@?2LocalServer32@+8
  000da	89 47 34	 mov	 DWORD PTR [edi+52], eax
  000dd	66 a1 0c 00 00
	00		 mov	 ax, WORD PTR ??_C@_0P@IKCDKIKH@?2LocalServer32@+12
  000e3	66 89 47 38	 mov	 WORD PTR [edi+56], ax
  000e7	a0 0e 00 00 00	 mov	 al, BYTE PTR ??_C@_0P@IKCDKIKH@?2LocalServer32@+14
  000ec	88 47 3a	 mov	 BYTE PTR [edi+58], al

; 181  : 			if( RegOpenKeyEx( HKEY_CLASSES_ROOT, szSubKey, 0, KEY_QUERY_VALUE, &hKey) != ERROR_SUCCESS)

  000ef	8d 45 e8	 lea	 eax, DWORD PTR _hKey$4[ebp]
  000f2	50		 push	 eax
  000f3	6a 01		 push	 1
  000f5	6a 00		 push	 0
  000f7	57		 push	 edi
  000f8	68 00 00 00 80	 push	 -2147483648		; 80000000H
  000fd	ff d6		 call	 esi
  000ff	85 c0		 test	 eax, eax
  00101	74 13		 je	 SHORT $LN12@ComServerF

; 182  : 				return -1;

  00103	8d 4d f0	 lea	 ecx, DWORD PTR _strSubKey$6[ebp]
  00106	ff 15 00 00 00
	00		 call	 DWORD PTR __imp_??1?$CStringT@DV?$StrTraitMFC_DLL@DV?$ChTraitsCRT@D@ATL@@@@@ATL@@QAE@XZ
  0010c	be f4 ff ff ff	 mov	 esi, -12		; fffffff4H
  00111	e9 d2 00 00 00	 jmp	 $LN7@ComServerF
$LN12@ComServerF:

; 183  : 		}
; 184  : 		// 2. ComServer의 경로를 정보를 구한다.(Default Value이다.)
; 185  : 		DWORD dwDataType, dwReceivedSize = _MAX_PATH;
; 186  : 		CString strShortServerPath;

  00116	8d 4d ec	 lea	 ecx, DWORD PTR _strShortServerPath$5[ebp]
  00119	c7 45 e0 04 01
	00 00		 mov	 DWORD PTR _dwReceivedSize$3[ebp], 260 ; 00000104H
  00120	ff 15 00 00 00
	00		 call	 DWORD PTR __imp_??0?$CStringT@DV?$StrTraitMFC_DLL@DV?$ChTraitsCRT@D@ATL@@@@@ATL@@QAE@XZ

; 187  : 		char *szShortServerPath = strShortServerPath.GetBufferSetLength( dwReceivedSize);

  00126	ff 75 e0	 push	 DWORD PTR _dwReceivedSize$3[ebp]
  00129	8d 4d ec	 lea	 ecx, DWORD PTR _strShortServerPath$5[ebp]
  0012c	c6 45 fc 02	 mov	 BYTE PTR __$EHRec$[ebp+8], 2
  00130	ff 15 00 00 00
	00		 call	 DWORD PTR __imp_?GetBufferSetLength@?$CSimpleStringT@D$00@ATL@@QAEPADH@Z
  00136	8b f0		 mov	 esi, eax

; 188  : 		RegQueryValueEx( hKey, NULL, 0, &dwDataType, ( unsigned char *)szShortServerPath, &dwReceivedSize);

  00138	8d 45 e0	 lea	 eax, DWORD PTR _dwReceivedSize$3[ebp]
  0013b	50		 push	 eax
  0013c	56		 push	 esi
  0013d	8d 45 dc	 lea	 eax, DWORD PTR _dwDataType$2[ebp]
  00140	50		 push	 eax
  00141	6a 00		 push	 0
  00143	6a 00		 push	 0
  00145	ff 75 e8	 push	 DWORD PTR _hKey$4[ebp]
  00148	ff 15 00 00 00
	00		 call	 DWORD PTR __imp__RegQueryValueExA@24

; 189  : 		// 3. Key를 닫는다.
; 190  : 		RegCloseKey( hKey);

  0014e	ff 75 e8	 push	 DWORD PTR _hKey$4[ebp]
  00151	ff 15 00 00 00
	00		 call	 DWORD PTR __imp__RegCloseKey@4

; 191  : 		// 4. 구해진 Com Server Path를 확인한다.
; 192  : 		if( !*szShortServerPath) return -2;

  00157	80 3e 00	 cmp	 BYTE PTR [esi], 0
  0015a	75 19		 jne	 SHORT $LN13@ComServerF
  0015c	8d 4d ec	 lea	 ecx, DWORD PTR _strShortServerPath$5[ebp]
  0015f	ff 15 00 00 00
	00		 call	 DWORD PTR __imp_??1?$CStringT@DV?$StrTraitMFC_DLL@DV?$ChTraitsCRT@D@ATL@@@@@ATL@@QAE@XZ
  00165	8d 4d f0	 lea	 ecx, DWORD PTR _strSubKey$6[ebp]
  00168	ff 15 00 00 00
	00		 call	 DWORD PTR __imp_??1?$CStringT@DV?$StrTraitMFC_DLL@DV?$ChTraitsCRT@D@ATL@@@@@ATL@@QAE@XZ
  0016e	be ea ff ff ff	 mov	 esi, -22		; ffffffeaH
  00173	eb 73		 jmp	 SHORT $LN7@ComServerF
$LN13@ComServerF:
; File C:\Program Files (x86)\Windows Kits\10\Include\10.0.22000.0\ucrt\string.h

; 514  :         return const_cast<char*>(strrchr(static_cast<char const*>(_String), _Ch));

  00175	6a 2e		 push	 46			; 0000002eH
  00177	56		 push	 esi
  00178	e8 00 00 00 00	 call	 _strrchr
  0017d	83 c4 08	 add	 esp, 8
; File D:\git\src\IBK\IBK_DRFN\ProjSrc\SrcChartEx\ChartOCX\Include\ProgIDInfo.h

; 195  : 		if( !szExtension) return -3;

  00180	85 c0		 test	 eax, eax
  00182	75 19		 jne	 SHORT $LN14@ComServerF
  00184	8d 4d ec	 lea	 ecx, DWORD PTR _strShortServerPath$5[ebp]
  00187	ff 15 00 00 00
	00		 call	 DWORD PTR __imp_??1?$CStringT@DV?$StrTraitMFC_DLL@DV?$ChTraitsCRT@D@ATL@@@@@ATL@@QAE@XZ
  0018d	8d 4d f0	 lea	 ecx, DWORD PTR _strSubKey$6[ebp]
  00190	ff 15 00 00 00
	00		 call	 DWORD PTR __imp_??1?$CStringT@DV?$StrTraitMFC_DLL@DV?$ChTraitsCRT@D@ATL@@@@@ATL@@QAE@XZ
  00196	be e0 ff ff ff	 mov	 esi, -32		; ffffffe0H
  0019b	eb 4b		 jmp	 SHORT $LN7@ComServerF
$LN14@ComServerF:

; 196  : 		szExtension[ 4] = '\0';
; 197  : 		// 6. Long File Path를 구한다.
; 198  : 		char *szLongServerPath = p_strComServer.GetBuffer( _MAX_PATH);

  0019d	8b 4d 0c	 mov	 ecx, DWORD PTR _p_strComServer$[ebp]
  001a0	68 04 01 00 00	 push	 260			; 00000104H
  001a5	c6 40 04 00	 mov	 BYTE PTR [eax+4], 0
  001a9	ff 15 00 00 00
	00		 call	 DWORD PTR __imp_?GetBuffer@?$CSimpleStringT@D$00@ATL@@QAEPADH@Z

; 199  : 		DWORD dwLongPath = GetLongPathName( szShortServerPath, szLongServerPath, _MAX_PATH);

  001af	68 04 01 00 00	 push	 260			; 00000104H
  001b4	50		 push	 eax
  001b5	56		 push	 esi
  001b6	ff 15 00 00 00
	00		 call	 DWORD PTR __imp__GetLongPathNameA@12

; 200  : 		p_strComServer.ReleaseBuffer();

  001bc	8b 4d 0c	 mov	 ecx, DWORD PTR _p_strComServer$[ebp]
  001bf	8b f0		 mov	 esi, eax
  001c1	6a ff		 push	 -1
  001c3	ff 15 00 00 00
	00		 call	 DWORD PTR __imp_?ReleaseBuffer@?$CSimpleStringT@D$00@ATL@@QAEXH@Z

; 201  : 		if( !dwLongPath) return -4;

  001c9	8d 4d ec	 lea	 ecx, DWORD PTR _strShortServerPath$5[ebp]
  001cc	ff 15 00 00 00
	00		 call	 DWORD PTR __imp_??1?$CStringT@DV?$StrTraitMFC_DLL@DV?$ChTraitsCRT@D@ATL@@@@@ATL@@QAE@XZ
  001d2	8d 4d f0	 lea	 ecx, DWORD PTR _strSubKey$6[ebp]
  001d5	ff 15 00 00 00
	00		 call	 DWORD PTR __imp_??1?$CStringT@DV?$StrTraitMFC_DLL@DV?$ChTraitsCRT@D@ATL@@@@@ATL@@QAE@XZ
  001db	85 f6		 test	 esi, esi
  001dd	75 07		 jne	 SHORT $LN15@ComServerF
  001df	be d6 ff ff ff	 mov	 esi, -42		; ffffffd6H
  001e4	eb 02		 jmp	 SHORT $LN7@ComServerF
$LN15@ComServerF:

; 222  : 		// 2. String CLSID로 Com Server를 구한다.
; 223  : 		lResult = ComServerFromStringCLSID( strClsID, p_strComServer);
; 224  : 		if( lResult < 0) return lResult * 10 - 2;
; 225  : 		return 0;

  001e6	33 f6		 xor	 esi, esi
$LN7@ComServerF:
  001e8	8d 4d e4	 lea	 ecx, DWORD PTR _strClsID$[ebp]
  001eb	ff 15 00 00 00
	00		 call	 DWORD PTR __imp_??1?$CStringT@DV?$StrTraitMFC_DLL@DV?$ChTraitsCRT@D@ATL@@@@@ATL@@QAE@XZ
  001f1	8b c6		 mov	 eax, esi

; 226  : 	}

  001f3	8b 4d f4	 mov	 ecx, DWORD PTR __$EHRec$[ebp]
  001f6	64 89 0d 00 00
	00 00		 mov	 DWORD PTR fs:0, ecx
  001fd	59		 pop	 ecx
  001fe	5f		 pop	 edi
  001ff	5e		 pop	 esi
  00200	8b e5		 mov	 esp, ebp
  00202	5d		 pop	 ebp
  00203	c3		 ret	 0
_TEXT	ENDS
;	COMDAT text$x
text$x	SEGMENT
__unwindfunclet$?ComServerFromProgID@CProgIDInfo@@SAJPBDAAV?$CStringT@DV?$StrTraitMFC_DLL@DV?$ChTraitsCRT@D@ATL@@@@@ATL@@@Z$0:
  00000	8d 4d e4	 lea	 ecx, DWORD PTR _strClsID$[ebp]
  00003	ff 25 00 00 00
	00		 jmp	 DWORD PTR __imp_??1?$CStringT@DV?$StrTraitMFC_DLL@DV?$ChTraitsCRT@D@ATL@@@@@ATL@@QAE@XZ
__unwindfunclet$?ComServerFromProgID@CProgIDInfo@@SAJPBDAAV?$CStringT@DV?$StrTraitMFC_DLL@DV?$ChTraitsCRT@D@ATL@@@@@ATL@@@Z$1:
  00009	8d 4d f0	 lea	 ecx, DWORD PTR _strSubKey$6[ebp]
  0000c	ff 25 00 00 00
	00		 jmp	 DWORD PTR __imp_??1?$CStringT@DV?$StrTraitMFC_DLL@DV?$ChTraitsCRT@D@ATL@@@@@ATL@@QAE@XZ
__unwindfunclet$?ComServerFromProgID@CProgIDInfo@@SAJPBDAAV?$CStringT@DV?$StrTraitMFC_DLL@DV?$ChTraitsCRT@D@ATL@@@@@ATL@@@Z$2:
  00012	8d 4d ec	 lea	 ecx, DWORD PTR _strShortServerPath$5[ebp]
  00015	ff 25 00 00 00
	00		 jmp	 DWORD PTR __imp_??1?$CStringT@DV?$StrTraitMFC_DLL@DV?$ChTraitsCRT@D@ATL@@@@@ATL@@QAE@XZ
  0001b	cc		 int	 3
  0001c	cc		 int	 3
  0001d	cc		 int	 3
  0001e	cc		 int	 3
  0001f	cc		 int	 3
__ehhandler$?ComServerFromProgID@CProgIDInfo@@SAJPBDAAV?$CStringT@DV?$StrTraitMFC_DLL@DV?$ChTraitsCRT@D@ATL@@@@@ATL@@@Z:
  00020	90		 npad	 1
  00021	90		 npad	 1
  00022	8b 54 24 08	 mov	 edx, DWORD PTR [esp+8]
  00026	8d 42 0c	 lea	 eax, DWORD PTR [edx+12]
  00029	8b 4a dc	 mov	 ecx, DWORD PTR [edx-36]
  0002c	33 c8		 xor	 ecx, eax
  0002e	e8 00 00 00 00	 call	 @__security_check_cookie@4
  00033	b8 00 00 00 00	 mov	 eax, OFFSET __ehfuncinfo$?ComServerFromProgID@CProgIDInfo@@SAJPBDAAV?$CStringT@DV?$StrTraitMFC_DLL@DV?$ChTraitsCRT@D@ATL@@@@@ATL@@@Z
  00038	e9 00 00 00 00	 jmp	 ___CxxFrameHandler3
text$x	ENDS
?ComServerFromProgID@CProgIDInfo@@SAJPBDAAV?$CStringT@DV?$StrTraitMFC_DLL@DV?$ChTraitsCRT@D@ATL@@@@@ATL@@@Z ENDP ; CProgIDInfo::ComServerFromProgID
; Function compile flags: /Ogtp
; File D:\git\src\IBK\IBK_DRFN\ProjSrc\SrcChartEx\ChartOCX\Include\ProgIDInfo.h
; File C:\Program Files (x86)\Microsoft Visual Studio\2019\Community\VC\Tools\MSVC\14.29.30133\atlmfc\include\atlconv.h
; File D:\git\src\IBK\IBK_DRFN\ProjSrc\SrcChartEx\ChartOCX\Include\ProgIDInfo.h
; File C:\Program Files (x86)\Microsoft Visual Studio\2019\Community\VC\Tools\MSVC\14.29.30133\atlmfc\include\atlconv.h
; File D:\git\src\IBK\IBK_DRFN\ProjSrc\SrcChartEx\ChartOCX\Include\ProgIDInfo.h
;	COMDAT ?StringCLSIDFromProgID@CProgIDInfo@@SAJPBDAAV?$CStringT@DV?$StrTraitMFC_DLL@DV?$ChTraitsCRT@D@ATL@@@@@ATL@@@Z
_TEXT	SEGMENT
_p_strClsID$GSCopy$1$ = -44				; size = 4
_oleClsID$1 = -40					; size = 4
_p_clsID$ = -36						; size = 16
_clsID$ = -20						; size = 16
__$ArrayPad$ = -4					; size = 4
_p_szProgID$ = 8					; size = 4
_p_strClsID$ = 12					; size = 4
?StringCLSIDFromProgID@CProgIDInfo@@SAJPBDAAV?$CStringT@DV?$StrTraitMFC_DLL@DV?$ChTraitsCRT@D@ATL@@@@@ATL@@@Z PROC ; CProgIDInfo::StringCLSIDFromProgID, COMDAT

; 123  : 	{

  00000	55		 push	 ebp
  00001	8b ec		 mov	 ebp, esp
  00003	83 ec 2c	 sub	 esp, 44			; 0000002cH
  00006	a1 00 00 00 00	 mov	 eax, DWORD PTR ___security_cookie
  0000b	33 c5		 xor	 eax, ebp
  0000d	89 45 fc	 mov	 DWORD PTR __$ArrayPad$[ebp], eax
  00010	8b 45 0c	 mov	 eax, DWORD PTR _p_strClsID$[ebp]
  00013	53		 push	 ebx
  00014	56		 push	 esi
  00015	8b 75 08	 mov	 esi, DWORD PTR _p_szProgID$[ebp]
  00018	89 45 d4	 mov	 DWORD PTR _p_strClsID$GSCopy$1$[ebp], eax
  0001b	57		 push	 edi

; 51   : 		LPCOLESTR szOleProgID = T2COLE( p_szProgID);

  0001c	85 f6		 test	 esi, esi
  0001e	74 42		 je	 SHORT $LN18@StringCLSI
  00020	8b ce		 mov	 ecx, esi
  00022	8d 51 01	 lea	 edx, DWORD PTR [ecx+1]
$LL35@StringCLSI:
  00025	8a 01		 mov	 al, BYTE PTR [ecx]
  00027	41		 inc	 ecx
  00028	84 c0		 test	 al, al
  0002a	75 f9		 jne	 SHORT $LL35@StringCLSI
  0002c	2b ca		 sub	 ecx, edx
  0002e	8d 59 01	 lea	 ebx, DWORD PTR [ecx+1]
  00031	81 fb ff ff ff
	3f		 cmp	 ebx, 1073741823		; 3fffffffH
  00037	7f 29		 jg	 SHORT $LN18@StringCLSI
  00039	8d 04 1b	 lea	 eax, DWORD PTR [ebx+ebx]
  0003c	e8 00 00 00 00	 call	 __alloca_probe_16
  00041	8b fc		 mov	 edi, esp
; File C:\Program Files (x86)\Microsoft Visual Studio\2019\Community\VC\Tools\MSVC\14.29.30133\atlmfc\include\atlconv.h

; 566  : 	if (lpw == NULL || lpa == NULL)

  00043	85 ff		 test	 edi, edi
  00045	74 1b		 je	 SHORT $LN18@StringCLSI

; 567  : 		return NULL;
; 568  : 	// verify that no illegal character present
; 569  : 	// since lpw was allocated based on the size of lpa
; 570  : 	// don't worry about the number of chars
; 571  : 	*lpw = '\0';
; 572  : 	int ret = MultiByteToWideChar(acp, 0, lpa, -1, lpw, nChars);

  00047	53		 push	 ebx
  00048	57		 push	 edi
  00049	6a ff		 push	 -1
  0004b	33 c0		 xor	 eax, eax
  0004d	56		 push	 esi
  0004e	50		 push	 eax
  0004f	6a 03		 push	 3
  00051	66 89 07	 mov	 WORD PTR [edi], ax
  00054	ff 15 00 00 00
	00		 call	 DWORD PTR __imp__MultiByteToWideChar@24

; 573  : 	if(ret == 0)

  0005a	f7 d8		 neg	 eax
  0005c	1b c0		 sbb	 eax, eax
  0005e	23 c7		 and	 eax, edi

; 574  : 	{
; 575  : 		ATLASSERT(FALSE);
; 576  : 		return NULL;
; 577  : 	}
; 578  : 	return lpw;

  00060	eb 02		 jmp	 SHORT $LN15@StringCLSI
$LN18@StringCLSI:
; File D:\git\src\IBK\IBK_DRFN\ProjSrc\SrcChartEx\ChartOCX\Include\ProgIDInfo.h

; 52   : 		HRESULT hResult = ::CLSIDFromProgID( szOleProgID, p_pClsID);

  00062	33 c0		 xor	 eax, eax
$LN15@StringCLSI:
  00064	8d 4d ec	 lea	 ecx, DWORD PTR _clsID$[ebp]
  00067	51		 push	 ecx
  00068	50		 push	 eax
  00069	ff 15 00 00 00
	00		 call	 DWORD PTR __imp__CLSIDFromProgID@8
  0006f	8b c8		 mov	 ecx, eax

; 53   : 		if( hResult == S_OK) return 0;

  00071	85 c9		 test	 ecx, ecx
  00073	74 48		 je	 SHORT $LN2@StringCLSI

; 54   : 		else if( hResult == CO_E_CLASSSTRING) return -1;

  00075	81 f9 f3 01 04
	80		 cmp	 ecx, -2147221005	; 800401f3H
  0007b	75 19		 jne	 SHORT $LN8@StringCLSI
  0007d	b8 f5 ff ff ff	 mov	 eax, -11		; fffffff5H

; 132  : 	}

  00082	8d 65 c8	 lea	 esp, DWORD PTR [ebp-56]
  00085	5f		 pop	 edi
  00086	5e		 pop	 esi
  00087	5b		 pop	 ebx
  00088	8b 4d fc	 mov	 ecx, DWORD PTR __$ArrayPad$[ebp]
  0008b	33 cd		 xor	 ecx, ebp
  0008d	e8 00 00 00 00	 call	 @__security_check_cookie@4
  00092	8b e5		 mov	 esp, ebp
  00094	5d		 pop	 ebp
  00095	c3		 ret	 0
$LN8@StringCLSI:

; 55   : 		else if( hResult == REGDB_E_WRITEREGDB) return -2;

  00096	81 f9 51 01 04
	80		 cmp	 ecx, -2147221167	; 80040151H
  0009c	b8 e1 ff ff ff	 mov	 eax, -31		; ffffffe1H
  000a1	ba eb ff ff ff	 mov	 edx, -21		; ffffffebH
  000a6	0f 44 c2	 cmove	 eax, edx

; 132  : 	}

  000a9	8d 65 c8	 lea	 esp, DWORD PTR [ebp-56]
  000ac	5f		 pop	 edi
  000ad	5e		 pop	 esi
  000ae	5b		 pop	 ebx
  000af	8b 4d fc	 mov	 ecx, DWORD PTR __$ArrayPad$[ebp]
  000b2	33 cd		 xor	 ecx, ebp
  000b4	e8 00 00 00 00	 call	 @__security_check_cookie@4
  000b9	8b e5		 mov	 esp, ebp
  000bb	5d		 pop	 ebp
  000bc	c3		 ret	 0
$LN2@StringCLSI:

; 124  : 		// 1. 먼저 CLSID를 구한다.
; 125  : 		CLSID clsID;
; 126  : 		LONG lResult = CLSIDFromProgID( p_szProgID, &clsID);
; 127  : 		if( lResult < 0) return lResult * 10 - 1;
; 128  : 		// 2. String CLSID를 구한다.
; 129  : 		lResult = StringFromCLSID( clsID, p_strClsID);

  000bd	0f 10 45 ec	 movups	 xmm0, XMMWORD PTR _clsID$[ebp]

; 89   : 		HRESULT hResult = ::StringFromCLSID( p_clsID, &oleClsID);

  000c1	8d 45 d8	 lea	 eax, DWORD PTR _oleClsID$1[ebp]
  000c4	50		 push	 eax
  000c5	8d 45 dc	 lea	 eax, DWORD PTR _p_clsID$[ebp]
  000c8	50		 push	 eax

; 124  : 		// 1. 먼저 CLSID를 구한다.
; 125  : 		CLSID clsID;
; 126  : 		LONG lResult = CLSIDFromProgID( p_szProgID, &clsID);
; 127  : 		if( lResult < 0) return lResult * 10 - 1;
; 128  : 		// 2. String CLSID를 구한다.
; 129  : 		lResult = StringFromCLSID( clsID, p_strClsID);

  000c9	0f 11 45 dc	 movups	 XMMWORD PTR _p_clsID$[ebp], xmm0

; 89   : 		HRESULT hResult = ::StringFromCLSID( p_clsID, &oleClsID);

  000cd	ff 15 00 00 00
	00		 call	 DWORD PTR __imp__StringFromCLSID@8

; 90   : 		if( hResult != S_OK) return -1;

  000d3	85 c0		 test	 eax, eax
  000d5	75 7e		 jne	 SHORT $LN34@StringCLSI

; 92   : 		p_strClsID = OLE2T( oleClsID);

  000d7	8b 7d d8	 mov	 edi, DWORD PTR _oleClsID$1[ebp]
  000da	85 ff		 test	 edi, edi
  000dc	74 4c		 je	 SHORT $LN30@StringCLSI
  000de	8b cf		 mov	 ecx, edi
  000e0	8d 51 02	 lea	 edx, DWORD PTR [ecx+2]
$LL36@StringCLSI:
  000e3	66 8b 01	 mov	 ax, WORD PTR [ecx]
  000e6	83 c1 02	 add	 ecx, 2
  000e9	66 85 c0	 test	 ax, ax
  000ec	75 f5		 jne	 SHORT $LL36@StringCLSI
  000ee	2b ca		 sub	 ecx, edx
  000f0	d1 f9		 sar	 ecx, 1
  000f2	8d 59 01	 lea	 ebx, DWORD PTR [ecx+1]
  000f5	81 fb ff ff ff
	3f		 cmp	 ebx, 1073741823		; 3fffffffH
  000fb	7f 2d		 jg	 SHORT $LN30@StringCLSI
  000fd	03 db		 add	 ebx, ebx
  000ff	8b c3		 mov	 eax, ebx
  00101	e8 00 00 00 00	 call	 __alloca_probe_16
  00106	8b f4		 mov	 esi, esp
; File C:\Program Files (x86)\Microsoft Visual Studio\2019\Community\VC\Tools\MSVC\14.29.30133\atlmfc\include\atlconv.h

; 591  : 	if (lpa == NULL || lpw == NULL)

  00108	85 f6		 test	 esi, esi
  0010a	74 1e		 je	 SHORT $LN30@StringCLSI

; 592  : 		return NULL;
; 593  : 	// verify that no illegal character present
; 594  : 	// since lpa was allocated based on the size of lpw
; 595  : 	// don't worry about the number of chars
; 596  : 	*lpa = '\0';
; 597  : 	int ret = WideCharToMultiByte(acp, 0, lpw, -1, lpa, nChars, NULL, NULL);

  0010c	6a 00		 push	 0
  0010e	6a 00		 push	 0
  00110	53		 push	 ebx
  00111	56		 push	 esi
  00112	6a ff		 push	 -1
  00114	57		 push	 edi
  00115	6a 00		 push	 0
  00117	6a 03		 push	 3
  00119	c6 06 00	 mov	 BYTE PTR [esi], 0
  0011c	ff 15 00 00 00
	00		 call	 DWORD PTR __imp__WideCharToMultiByte@32

; 598  : 	if(ret == 0)

  00122	f7 d8		 neg	 eax
  00124	1b c0		 sbb	 eax, eax
  00126	23 c6		 and	 eax, esi

; 599  : 	{
; 600  : 		ATLASSERT(FALSE);
; 601  : 		return NULL;
; 602  : 	}
; 603  : 	return lpa;

  00128	eb 02		 jmp	 SHORT $LN27@StringCLSI
$LN30@StringCLSI:
; File D:\git\src\IBK\IBK_DRFN\ProjSrc\SrcChartEx\ChartOCX\Include\ProgIDInfo.h

; 92   : 		p_strClsID = OLE2T( oleClsID);

  0012a	33 c0		 xor	 eax, eax
$LN27@StringCLSI:
  0012c	8b 4d d4	 mov	 ecx, DWORD PTR _p_strClsID$GSCopy$1$[ebp]
  0012f	50		 push	 eax
  00130	ff 15 00 00 00
	00		 call	 DWORD PTR __imp_??4?$CStringT@DV?$StrTraitMFC_DLL@DV?$ChTraitsCRT@D@ATL@@@@@ATL@@QAEAAV01@PBD@Z

; 93   : 		CoTaskMemFree( oleClsID);

  00136	ff 75 d8	 push	 DWORD PTR _oleClsID$1[ebp]
  00139	ff 15 00 00 00
	00		 call	 DWORD PTR __imp__CoTaskMemFree@4

; 131  : 		return 0;

  0013f	33 c0		 xor	 eax, eax

; 132  : 	}

  00141	8d 65 c8	 lea	 esp, DWORD PTR [ebp-56]
  00144	5f		 pop	 edi
  00145	5e		 pop	 esi
  00146	5b		 pop	 ebx
  00147	8b 4d fc	 mov	 ecx, DWORD PTR __$ArrayPad$[ebp]
  0014a	33 cd		 xor	 ecx, ebp
  0014c	e8 00 00 00 00	 call	 @__security_check_cookie@4
  00151	8b e5		 mov	 esp, ebp
  00153	5d		 pop	 ebp
  00154	c3		 ret	 0
$LN34@StringCLSI:

; 130  : 		if( lResult < 0) return lResult * 10 - 2;

  00155	b8 f4 ff ff ff	 mov	 eax, -12		; fffffff4H

; 132  : 	}

  0015a	8d 65 c8	 lea	 esp, DWORD PTR [ebp-56]
  0015d	5f		 pop	 edi
  0015e	5e		 pop	 esi
  0015f	5b		 pop	 ebx
  00160	8b 4d fc	 mov	 ecx, DWORD PTR __$ArrayPad$[ebp]
  00163	33 cd		 xor	 ecx, ebp
  00165	e8 00 00 00 00	 call	 @__security_check_cookie@4
  0016a	8b e5		 mov	 esp, ebp
  0016c	5d		 pop	 ebp
  0016d	c3		 ret	 0
?StringCLSIDFromProgID@CProgIDInfo@@SAJPBDAAV?$CStringT@DV?$StrTraitMFC_DLL@DV?$ChTraitsCRT@D@ATL@@@@@ATL@@@Z ENDP ; CProgIDInfo::StringCLSIDFromProgID
_TEXT	ENDS
; Function compile flags: /Ogtp
; File C:\Program Files (x86)\Microsoft Visual Studio\2019\Community\VC\Tools\MSVC\14.29.30133\atlmfc\include\afx.inl
;	COMDAT ??_GCKTBChartApp@@UAEPAXI@Z
_TEXT	SEGMENT
___flags$ = 8						; size = 4
??_GCKTBChartApp@@UAEPAXI@Z PROC			; CKTBChartApp::`scalar deleting destructor', COMDAT
; _this$ = ecx
  00000	55		 push	 ebp
  00001	8b ec		 mov	 ebp, esp
  00003	56		 push	 esi
  00004	8b f1		 mov	 esi, ecx
  00006	e8 00 00 00 00	 call	 ??1CWinApp@@UAE@XZ	; CWinApp::~CWinApp
  0000b	8b 45 08	 mov	 eax, DWORD PTR ___flags$[ebp]
  0000e	a8 01		 test	 al, 1
  00010	74 22		 je	 SHORT $LN15@scalar
  00012	a8 04		 test	 al, 4
  00014	75 10		 jne	 SHORT $LN3@scalar

; 112  : 	{ ::operator delete(p); }

  00016	56		 push	 esi
  00017	e8 00 00 00 00	 call	 ??3@YAXPAX@Z		; operator delete
  0001c	83 c4 04	 add	 esp, 4
  0001f	8b c6		 mov	 eax, esi
  00021	5e		 pop	 esi
  00022	5d		 pop	 ebp
  00023	c2 04 00	 ret	 4
$LN3@scalar:
  00026	68 cc 00 00 00	 push	 204			; 000000ccH
  0002b	56		 push	 esi
  0002c	e8 00 00 00 00	 call	 ?__global_delete@@YAXPAXI@Z ; __global_delete
  00031	83 c4 08	 add	 esp, 8
$LN15@scalar:
  00034	8b c6		 mov	 eax, esi
  00036	5e		 pop	 esi
  00037	5d		 pop	 ebp
  00038	c2 04 00	 ret	 4
??_GCKTBChartApp@@UAEPAXI@Z ENDP			; CKTBChartApp::`scalar deleting destructor'
_TEXT	ENDS
; Function compile flags: /Ogtp
; File D:\git\src\IBK\IBK_DRFN\ProjSrc\SrcChartEx\ChartOCX\KTBChart\KTBChart.cpp
; File D:\git\src\IBK\IBK_DRFN\ProjSrc\SrcChartEx\ChartOCX\Include_Chart\Dll_Load\IMetaTable.h
; File D:\git\src\IBK\IBK_DRFN\ProjSrc\SrcChartEx\ChartOCX\KTBChart\KTBChart.cpp
;	COMDAT ?ExitInstance@CKTBChartApp@@UAEHXZ
_TEXT	SEGMENT
?ExitInstance@CKTBChartApp@@UAEHXZ PROC			; CKTBChartApp::ExitInstance, COMDAT
; _this$ = ecx

; 85   : {

  00000	56		 push	 esi
  00001	8b f1		 mov	 esi, ecx

; 86   : 	// TODO: Add your own module termination code here.
; 87   : 
; 88   : 	// (2006/8/23 - Seung-Won, Bae) Manage AddIn Load String
; 89   : 	CKTBChartCtrl::m_mapAddInLoadString.RemoveAll();

  00003	b9 00 00 00 00	 mov	 ecx, OFFSET ?m_mapAddInLoadString@CKTBChartCtrl@@1VCMapStringToString@@A ; CKTBChartCtrl::m_mapAddInLoadString
  00008	e8 00 00 00 00	 call	 ?RemoveAll@CMapStringToString@@QAEXXZ ; CMapStringToString::RemoveAll
; File D:\git\src\IBK\IBK_DRFN\ProjSrc\SrcChartEx\ChartOCX\Include_Chart\Dll_Load\IMetaTable.h

; 911  : 	DECLARE_FUNCTION0(	UnloadAllResourceDLL,		BOOL, FALSE);

  0000d	a1 04 00 00 00	 mov	 eax, DWORD PTR ?g_iMetaTable@@3VIMetaTable@@A+4
  00012	85 c0		 test	 eax, eax
  00014	74 3f		 je	 SHORT $LN6@ExitInstan
  00016	57		 push	 edi
  00017	bf 80 0d 00 00	 mov	 edi, 3456		; 00000d80H
  0001c	66 3b 3d 38 00
	00 00		 cmp	 di, WORD PTR ?g_iMetaTable@@3VIMetaTable@@A+56
  00023	74 24		 je	 SHORT $LN8@ExitInstan
  00025	68 00 00 00 00	 push	 OFFSET ??_C@_0BF@GGCKNBND@UnloadAllResourceDLL@
  0002a	50		 push	 eax
  0002b	c7 05 34 00 00
	00 00 00 00 00	 mov	 DWORD PTR ?g_iMetaTable@@3VIMetaTable@@A+52, 0
  00035	ff 15 00 00 00
	00		 call	 DWORD PTR __imp__GetProcAddress@8
  0003b	a3 34 00 00 00	 mov	 DWORD PTR ?g_iMetaTable@@3VIMetaTable@@A+52, eax
  00040	66 89 3d 38 00
	00 00		 mov	 WORD PTR ?g_iMetaTable@@3VIMetaTable@@A+56, di
  00047	eb 05		 jmp	 SHORT $LN5@ExitInstan
$LN8@ExitInstan:
  00049	a1 34 00 00 00	 mov	 eax, DWORD PTR ?g_iMetaTable@@3VIMetaTable@@A+52
$LN5@ExitInstan:
  0004e	5f		 pop	 edi
  0004f	85 c0		 test	 eax, eax
  00051	74 02		 je	 SHORT $LN6@ExitInstan
  00053	ff d0		 call	 eax
$LN6@ExitInstan:
; File D:\git\src\IBK\IBK_DRFN\ProjSrc\SrcChartEx\ChartOCX\KTBChart\KTBChart.cpp

; 94   : 	return COleControlModule::ExitInstance();

  00055	8b ce		 mov	 ecx, esi
  00057	5e		 pop	 esi
  00058	e9 00 00 00 00	 jmp	 ?ExitInstance@COleControlModule@@UAEHXZ ; COleControlModule::ExitInstance
?ExitInstance@CKTBChartApp@@UAEHXZ ENDP			; CKTBChartApp::ExitInstance
_TEXT	ENDS
; Function compile flags: /Ogtp
; File D:\git\src\IBK\IBK_DRFN\ProjSrc\SrcChartEx\ChartOCX\KTBChart\KTBChart.cpp
; File C:\Program Files (x86)\Microsoft Visual Studio\2019\Community\VC\Tools\MSVC\14.29.30133\atlmfc\include\cstringt.h
; File D:\git\src\IBK\IBK_DRFN\ProjSrc\SrcChartEx\ChartOCX\KTBChart\KTBChart.cpp
; File C:\Program Files (x86)\Microsoft Visual Studio\2019\Community\VC\Tools\MSVC\14.29.30133\atlmfc\include\cstringt.h
; File C:\Program Files (x86)\Microsoft Visual Studio\2019\Community\VC\Tools\MSVC\14.29.30133\atlmfc\include\atlsimpstr.h
; File C:\Program Files (x86)\Microsoft Visual Studio\2019\Community\VC\Tools\MSVC\14.29.30133\atlmfc\include\cstringt.h
; File D:\git\src\IBK\IBK_DRFN\ProjSrc\SrcChartEx\ChartOCX\KTBChart\KTBChart.cpp
;	COMDAT ?InitInstance@CKTBChartApp@@UAEHXZ
_TEXT	SEGMENT
$T2 = -24						; size = 4
_strMsg$3 = -20						; size = 4
$T4 = -20						; size = 4
$T5 = -20						; size = 4
_strOcxFile$6 = -16					; size = 4
__$EHRec$ = -12						; size = 12
?InitInstance@CKTBChartApp@@UAEHXZ PROC			; CKTBChartApp::InitInstance, COMDAT
; _this$ = ecx

; 46   : {

  00000	55		 push	 ebp
  00001	8b ec		 mov	 ebp, esp
  00003	6a ff		 push	 -1
  00005	68 00 00 00 00	 push	 __ehhandler$?InitInstance@CKTBChartApp@@UAEHXZ
  0000a	64 a1 00 00 00
	00		 mov	 eax, DWORD PTR fs:0
  00010	50		 push	 eax
  00011	83 ec 0c	 sub	 esp, 12			; 0000000cH
  00014	56		 push	 esi
  00015	a1 00 00 00 00	 mov	 eax, DWORD PTR ___security_cookie
  0001a	33 c5		 xor	 eax, ebp
  0001c	50		 push	 eax
  0001d	8d 45 f4	 lea	 eax, DWORD PTR __$EHRec$[ebp]
  00020	64 a3 00 00 00
	00		 mov	 DWORD PTR fs:0, eax
  00026	8b f1		 mov	 esi, ecx

; 47   : 	AfxEnableControlContainer();

  00028	6a 00		 push	 0
  0002a	c7 45 e8 00 00
	00 00		 mov	 DWORD PTR $T2[ebp], 0
  00031	e8 00 00 00 00	 call	 ?AfxEnableControlContainer@@YAXPAVCOccManager@@@Z ; AfxEnableControlContainer
  00036	83 c4 04	 add	 esp, 4

; 48   : 	BOOL bInit = COleControlModule::InitInstance();

  00039	8b ce		 mov	 ecx, esi
  0003b	e8 00 00 00 00	 call	 ?InitInstance@COleControlModule@@UAEHXZ ; COleControlModule::InitInstance
  00040	8b f0		 mov	 esi, eax

; 49   : 
; 50   : 	if (bInit)

  00042	85 f6		 test	 esi, esi
  00044	0f 84 13 01 00
	00		 je	 $LN2@InitInstan

; 51   : 	{
; 52   : 		// TODO: Add your own module initialization code here.
; 53   : 
; 54   : 		// (2003.12.23, 배승원) OCX가 설치된 경로를 구하여 관리한다.
; 55   : 		CString strOcxFile;

  0004a	8d 4d f0	 lea	 ecx, DWORD PTR _strOcxFile$6[ebp]
  0004d	ff 15 00 00 00
	00		 call	 DWORD PTR __imp_??0?$CStringT@DV?$StrTraitMFC_DLL@DV?$ChTraitsCRT@D@ATL@@@@@ATL@@QAE@XZ

; 56   : 		CProgIDInfo::ComServerFromProgID( _OCX_PROG_ID, strOcxFile);

  00053	8d 45 f0	 lea	 eax, DWORD PTR _strOcxFile$6[ebp]
  00056	c7 45 fc 00 00
	00 00		 mov	 DWORD PTR __$EHRec$[ebp+8], 0
  0005d	50		 push	 eax
  0005e	68 00 00 00 00	 push	 OFFSET ??_C@_0BI@GJCLPPDD@IBKCHART?4IBKChartCtrl?41@
  00063	e8 00 00 00 00	 call	 ?ComServerFromProgID@CProgIDInfo@@SAJPBDAAV?$CStringT@DV?$StrTraitMFC_DLL@DV?$ChTraitsCRT@D@ATL@@@@@ATL@@@Z ; CProgIDInfo::ComServerFromProgID
  00068	83 c4 08	 add	 esp, 8

; 57   : 		g_strOcxPath = strOcxFile.Left( strOcxFile.ReverseFind( '\\') + 1);

  0006b	8d 4d f0	 lea	 ecx, DWORD PTR _strOcxFile$6[ebp]
  0006e	6a 5c		 push	 92			; 0000005cH
  00070	ff 15 00 00 00
	00		 call	 DWORD PTR __imp_?ReverseFind@?$CStringT@DV?$StrTraitMFC_DLL@DV?$ChTraitsCRT@D@ATL@@@@@ATL@@QBEHD@Z
  00076	40		 inc	 eax
  00077	8d 4d f0	 lea	 ecx, DWORD PTR _strOcxFile$6[ebp]
  0007a	50		 push	 eax
  0007b	8d 45 ec	 lea	 eax, DWORD PTR $T5[ebp]
  0007e	50		 push	 eax
  0007f	ff 15 00 00 00
	00		 call	 DWORD PTR __imp_?Left@?$CStringT@DV?$StrTraitMFC_DLL@DV?$ChTraitsCRT@D@ATL@@@@@ATL@@QBE?AV12@H@Z
  00085	50		 push	 eax
  00086	b9 00 00 00 00	 mov	 ecx, OFFSET ?g_strOcxPath@@3V?$CStringT@DV?$StrTraitMFC_DLL@DV?$ChTraitsCRT@D@ATL@@@@@ATL@@A ; g_strOcxPath
  0008b	c6 45 fc 01	 mov	 BYTE PTR __$EHRec$[ebp+8], 1
  0008f	ff 15 00 00 00
	00		 call	 DWORD PTR __imp_??4?$CStringT@DV?$StrTraitMFC_DLL@DV?$ChTraitsCRT@D@ATL@@@@@ATL@@QAEAAV01@ABV01@@Z
  00095	8d 4d ec	 lea	 ecx, DWORD PTR $T5[ebp]
  00098	ff 15 00 00 00
	00		 call	 DWORD PTR __imp_??1?$CStringT@DV?$StrTraitMFC_DLL@DV?$ChTraitsCRT@D@ATL@@@@@ATL@@QAE@XZ
; File C:\Program Files (x86)\Microsoft Visual Studio\2019\Community\VC\Tools\MSVC\14.29.30133\atlmfc\include\cstringt.h

; 2401 : 		CStringT strResult( str1.GetManager() );

  0009e	b9 00 00 00 00	 mov	 ecx, OFFSET ?g_strOcxPath@@3V?$CStringT@DV?$StrTraitMFC_DLL@DV?$ChTraitsCRT@D@ATL@@@@@ATL@@A ; g_strOcxPath
; File D:\git\src\IBK\IBK_DRFN\ProjSrc\SrcChartEx\ChartOCX\KTBChart\KTBChart.cpp

; 65   : 		LoadNomalizedMinuteTimeRule( g_strOcxPath + "..\\");

  000a3	c6 45 fc 02	 mov	 BYTE PTR __$EHRec$[ebp+8], 2
; File C:\Program Files (x86)\Microsoft Visual Studio\2019\Community\VC\Tools\MSVC\14.29.30133\atlmfc\include\cstringt.h

; 2401 : 		CStringT strResult( str1.GetManager() );

  000a7	ff 15 00 00 00
	00		 call	 DWORD PTR __imp_?GetManager@?$CStringT@DV?$StrTraitMFC_DLL@DV?$ChTraitsCRT@D@ATL@@@@@ATL@@QBEPAUIAtlStringMgr@2@XZ
  000ad	50		 push	 eax
  000ae	8d 4d ec	 lea	 ecx, DWORD PTR $T4[ebp]
  000b1	ff 15 00 00 00
	00		 call	 DWORD PTR __imp_??0?$CStringT@DV?$StrTraitMFC_DLL@DV?$ChTraitsCRT@D@ATL@@@@@ATL@@QAE@PAUIAtlStringMgr@1@@Z
; File C:\Program Files (x86)\Microsoft Visual Studio\2019\Community\VC\Tools\MSVC\14.29.30133\atlmfc\include\atlsimpstr.h

; 519  : 		return( GetData()->nDataLength );

  000b7	a1 00 00 00 00	 mov	 eax, DWORD PTR ?g_strOcxPath@@3V?$CStringT@DV?$StrTraitMFC_DLL@DV?$ChTraitsCRT@D@ATL@@@@@ATL@@A ; g_strOcxPath
; File C:\Program Files (x86)\Microsoft Visual Studio\2019\Community\VC\Tools\MSVC\14.29.30133\atlmfc\include\cstringt.h

; 2403 : 		CThisSimpleString::Concatenate( strResult, str1, str1.GetLength(), psz2, CThisSimpleString::StringLength( psz2 ) );

  000bc	6a 03		 push	 3
  000be	68 00 00 00 00	 push	 OFFSET ??_C@_03LKILIBFM@?4?4?2@

; 2404 : 
; 2405 : 		return( strResult );

  000c3	c7 45 e8 01 00
	00 00		 mov	 DWORD PTR $T2[ebp], 1
  000ca	ff 70 f4	 push	 DWORD PTR [eax-12]
  000cd	50		 push	 eax
  000ce	8d 45 ec	 lea	 eax, DWORD PTR $T4[ebp]
  000d1	50		 push	 eax
  000d2	ff 15 00 00 00
	00		 call	 DWORD PTR __imp_?Concatenate@?$CSimpleStringT@D$00@ATL@@KAXAAV12@PBDH1H@Z
; File D:\git\src\IBK\IBK_DRFN\ProjSrc\SrcChartEx\ChartOCX\KTBChart\KTBChart.cpp

; 65   : 		LoadNomalizedMinuteTimeRule( g_strOcxPath + "..\\");

  000d8	ff 75 ec	 push	 DWORD PTR $T4[ebp]
  000db	e8 00 00 00 00	 call	 _LoadNomalizedMinuteTimeRule
  000e0	83 c4 18	 add	 esp, 24			; 00000018H
  000e3	c6 45 fc 00	 mov	 BYTE PTR __$EHRec$[ebp+8], 0
  000e7	8d 4d ec	 lea	 ecx, DWORD PTR $T4[ebp]
  000ea	ff 15 00 00 00
	00		 call	 DWORD PTR __imp_??1?$CStringT@DV?$StrTraitMFC_DLL@DV?$ChTraitsCRT@D@ATL@@@@@ATL@@QAE@XZ

; 66   : 
; 67   : 		// (2006/11/24 - Seung-Won, Bae) Check ToolName Define with Tool IDs
; 68   : 		if( IMetaTable::m_nToolOptionCount != CToolOptionInfo::T_TOOLOPTION_COUNT)

  000f0	83 3d 00 00 00
	00 77		 cmp	 DWORD PTR ?m_nToolOptionCount@IMetaTable@@2HA, 119 ; IMetaTable::m_nToolOptionCount, 00000077H
  000f7	74 5b		 je	 SHORT $LN3@InitInstan

; 69   : 		{
; 70   : 			CString strMsg;

  000f9	8d 4d ec	 lea	 ecx, DWORD PTR _strMsg$3[ebp]
  000fc	ff 15 00 00 00
	00		 call	 DWORD PTR __imp_??0?$CStringT@DV?$StrTraitMFC_DLL@DV?$ChTraitsCRT@D@ATL@@@@@ATL@@QAE@XZ

; 71   : 			strMsg.Format( "%d ToolOptinName Not Defined!\r\nPlease Check it!", CToolOptionInfo::T_TOOLOPTION_COUNT - IMetaTable::m_nToolOptionCount);

  00102	b8 77 00 00 00	 mov	 eax, 119		; 00000077H
  00107	c6 45 fc 03	 mov	 BYTE PTR __$EHRec$[ebp+8], 3
  0010b	2b 05 00 00 00
	00		 sub	 eax, DWORD PTR ?m_nToolOptionCount@IMetaTable@@2HA ; IMetaTable::m_nToolOptionCount
  00111	50		 push	 eax
  00112	8d 45 ec	 lea	 eax, DWORD PTR _strMsg$3[ebp]
  00115	68 00 00 00 00	 push	 OFFSET ??_C@_0DA@NHNPGDIK@?$CFd?5ToolOptinName?5Not?5Defined?$CB?$AN?6@
  0011a	50		 push	 eax
  0011b	ff 15 00 00 00
	00		 call	 DWORD PTR __imp_?Format@?$CStringT@DV?$StrTraitMFC_DLL@DV?$ChTraitsCRT@D@ATL@@@@@ATL@@QAAXPBDZZ
  00121	83 c4 0c	 add	 esp, 12			; 0000000cH

; 72   : 			AfxMessageBox( strMsg);

  00124	6a 00		 push	 0
  00126	6a 00		 push	 0
  00128	ff 75 ec	 push	 DWORD PTR _strMsg$3[ebp]
  0012b	e8 00 00 00 00	 call	 ?AfxMessageBox@@YGHPBDII@Z ; AfxMessageBox

; 73   : 			return FALSE;

  00130	8d 4d ec	 lea	 ecx, DWORD PTR _strMsg$3[ebp]
  00133	ff 15 00 00 00
	00		 call	 DWORD PTR __imp_??1?$CStringT@DV?$StrTraitMFC_DLL@DV?$ChTraitsCRT@D@ATL@@@@@ATL@@QAE@XZ
  00139	8d 4d f0	 lea	 ecx, DWORD PTR _strOcxFile$6[ebp]
  0013c	ff 15 00 00 00
	00		 call	 DWORD PTR __imp_??1?$CStringT@DV?$StrTraitMFC_DLL@DV?$ChTraitsCRT@D@ATL@@@@@ATL@@QAE@XZ
  00142	33 c0		 xor	 eax, eax

; 78   : }

  00144	8b 4d f4	 mov	 ecx, DWORD PTR __$EHRec$[ebp]
  00147	64 89 0d 00 00
	00 00		 mov	 DWORD PTR fs:0, ecx
  0014e	59		 pop	 ecx
  0014f	5e		 pop	 esi
  00150	8b e5		 mov	 esp, ebp
  00152	5d		 pop	 ebp
  00153	c3		 ret	 0
$LN3@InitInstan:

; 74   : 		}
; 75   : 	}

  00154	8d 4d f0	 lea	 ecx, DWORD PTR _strOcxFile$6[ebp]
  00157	ff 15 00 00 00
	00		 call	 DWORD PTR __imp_??1?$CStringT@DV?$StrTraitMFC_DLL@DV?$ChTraitsCRT@D@ATL@@@@@ATL@@QAE@XZ
$LN2@InitInstan:

; 76   : 
; 77   : 	return bInit;

  0015d	8b c6		 mov	 eax, esi

; 78   : }

  0015f	8b 4d f4	 mov	 ecx, DWORD PTR __$EHRec$[ebp]
  00162	64 89 0d 00 00
	00 00		 mov	 DWORD PTR fs:0, ecx
  00169	59		 pop	 ecx
  0016a	5e		 pop	 esi
  0016b	8b e5		 mov	 esp, ebp
  0016d	5d		 pop	 ebp
  0016e	c3		 ret	 0
_TEXT	ENDS
;	COMDAT text$x
text$x	SEGMENT
__unwindfunclet$?InitInstance@CKTBChartApp@@UAEHXZ$0:
  00000	8d 4d f0	 lea	 ecx, DWORD PTR _strOcxFile$6[ebp]
  00003	ff 25 00 00 00
	00		 jmp	 DWORD PTR __imp_??1?$CStringT@DV?$StrTraitMFC_DLL@DV?$ChTraitsCRT@D@ATL@@@@@ATL@@QAE@XZ
__unwindfunclet$?InitInstance@CKTBChartApp@@UAEHXZ$1:
  00009	8d 4d ec	 lea	 ecx, DWORD PTR $T5[ebp]
  0000c	ff 25 00 00 00
	00		 jmp	 DWORD PTR __imp_??1?$CStringT@DV?$StrTraitMFC_DLL@DV?$ChTraitsCRT@D@ATL@@@@@ATL@@QAE@XZ
__unwindfunclet$?InitInstance@CKTBChartApp@@UAEHXZ$4:
  00012	8b 45 e8	 mov	 eax, DWORD PTR $T2[ebp]
  00015	83 e0 01	 and	 eax, 1
  00018	0f 84 0d 00 00
	00		 je	 $LN12@InitInstan
  0001e	83 65 e8 fe	 and	 DWORD PTR $T2[ebp], -2	; fffffffeH
  00022	8d 4d ec	 lea	 ecx, DWORD PTR $T4[ebp]
  00025	ff 25 00 00 00
	00		 jmp	 DWORD PTR __imp_??1?$CStringT@DV?$StrTraitMFC_DLL@DV?$ChTraitsCRT@D@ATL@@@@@ATL@@QAE@XZ
$LN12@InitInstan:
  0002b	c3		 ret	 0
__unwindfunclet$?InitInstance@CKTBChartApp@@UAEHXZ$3:
  0002c	8d 4d ec	 lea	 ecx, DWORD PTR _strMsg$3[ebp]
  0002f	ff 25 00 00 00
	00		 jmp	 DWORD PTR __imp_??1?$CStringT@DV?$StrTraitMFC_DLL@DV?$ChTraitsCRT@D@ATL@@@@@ATL@@QAE@XZ
  00035	cc		 int	 3
  00036	cc		 int	 3
  00037	cc		 int	 3
  00038	cc		 int	 3
  00039	cc		 int	 3
__ehhandler$?InitInstance@CKTBChartApp@@UAEHXZ:
  0003a	90		 npad	 1
  0003b	90		 npad	 1
  0003c	8b 54 24 08	 mov	 edx, DWORD PTR [esp+8]
  00040	8d 42 0c	 lea	 eax, DWORD PTR [edx+12]
  00043	8b 4a ec	 mov	 ecx, DWORD PTR [edx-20]
  00046	33 c8		 xor	 ecx, eax
  00048	e8 00 00 00 00	 call	 @__security_check_cookie@4
  0004d	b8 00 00 00 00	 mov	 eax, OFFSET __ehfuncinfo$?InitInstance@CKTBChartApp@@UAEHXZ
  00052	e9 00 00 00 00	 jmp	 ___CxxFrameHandler3
text$x	ENDS
?InitInstance@CKTBChartApp@@UAEHXZ ENDP			; CKTBChartApp::InitInstance
; Function compile flags: /Ogtp
; File C:\Program Files (x86)\Microsoft Visual Studio\2019\Community\VC\Tools\MSVC\14.29.30133\atlmfc\include\afx.inl
;	COMDAT ??_GCOleControlModule@@UAEPAXI@Z
_TEXT	SEGMENT
___flags$ = 8						; size = 4
??_GCOleControlModule@@UAEPAXI@Z PROC			; COleControlModule::`scalar deleting destructor', COMDAT
; _this$ = ecx
  00000	55		 push	 ebp
  00001	8b ec		 mov	 ebp, esp
  00003	56		 push	 esi
  00004	8b f1		 mov	 esi, ecx
  00006	e8 00 00 00 00	 call	 ??1CWinApp@@UAE@XZ	; CWinApp::~CWinApp
  0000b	8b 45 08	 mov	 eax, DWORD PTR ___flags$[ebp]
  0000e	a8 01		 test	 al, 1
  00010	74 22		 je	 SHORT $LN12@scalar
  00012	a8 04		 test	 al, 4
  00014	75 10		 jne	 SHORT $LN3@scalar

; 112  : 	{ ::operator delete(p); }

  00016	56		 push	 esi
  00017	e8 00 00 00 00	 call	 ??3@YAXPAX@Z		; operator delete
  0001c	83 c4 04	 add	 esp, 4
  0001f	8b c6		 mov	 eax, esi
  00021	5e		 pop	 esi
  00022	5d		 pop	 ebp
  00023	c2 04 00	 ret	 4
$LN3@scalar:
  00026	68 cc 00 00 00	 push	 204			; 000000ccH
  0002b	56		 push	 esi
  0002c	e8 00 00 00 00	 call	 ?__global_delete@@YAXPAXI@Z ; __global_delete
  00031	83 c4 08	 add	 esp, 8
$LN12@scalar:
  00034	8b c6		 mov	 eax, esi
  00036	5e		 pop	 esi
  00037	5d		 pop	 ebp
  00038	c2 04 00	 ret	 4
??_GCOleControlModule@@UAEPAXI@Z ENDP			; COleControlModule::`scalar deleting destructor'
_TEXT	ENDS
; Function compile flags: /Ogtp
; File C:\Program Files (x86)\Microsoft Visual Studio\2019\Community\VC\Tools\MSVC\14.29.30133\atlmfc\include\afxwin.h
;	COMDAT ?GetApplicationRecoveryPingInterval@CWinApp@@UAEKXZ
_TEXT	SEGMENT
?GetApplicationRecoveryPingInterval@CWinApp@@UAEKXZ PROC ; CWinApp::GetApplicationRecoveryPingInterval, COMDAT
; _this$ = ecx

; 5370 : 	virtual DWORD GetApplicationRecoveryPingInterval() { return RECOVERY_DEFAULT_PING_INTERVAL; }  // Ping interval for RegisterApplicationRecoveryCallback

  00000	b8 88 13 00 00	 mov	 eax, 5000		; 00001388H
  00005	c3		 ret	 0
?GetApplicationRecoveryPingInterval@CWinApp@@UAEKXZ ENDP ; CWinApp::GetApplicationRecoveryPingInterval
_TEXT	ENDS
; Function compile flags: /Ogtp
; File C:\Program Files (x86)\Microsoft Visual Studio\2019\Community\VC\Tools\MSVC\14.29.30133\atlmfc\include\afxwin.h
;	COMDAT ?GetApplicationRecoveryParameter@CWinApp@@UAEPAXXZ
_TEXT	SEGMENT
?GetApplicationRecoveryParameter@CWinApp@@UAEPAXXZ PROC	; CWinApp::GetApplicationRecoveryParameter, COMDAT
; _this$ = ecx

; 5369 : 	virtual LPVOID GetApplicationRecoveryParameter() { return NULL; }  // Parameter to be passed along to RegisterApplicationRecoveryCallback

  00000	33 c0		 xor	 eax, eax
  00002	c3		 ret	 0
?GetApplicationRecoveryParameter@CWinApp@@UAEPAXXZ ENDP	; CWinApp::GetApplicationRecoveryParameter
_TEXT	ENDS
; Function compile flags: /Ogtp
; File C:\Program Files (x86)\Microsoft Visual Studio\2019\Community\VC\Tools\MSVC\14.29.30133\atlmfc\include\afxwin.h
;	COMDAT ?GetApplicationRestartFlags@CWinApp@@UAEKXZ
_TEXT	SEGMENT
?GetApplicationRestartFlags@CWinApp@@UAEKXZ PROC	; CWinApp::GetApplicationRestartFlags, COMDAT
; _this$ = ecx

; 5368 : 	virtual DWORD GetApplicationRestartFlags() { return 0; }  // Flags for RegisterApplicationRestart: default is none of RESTART_NO_CRASH/RESTART_NO_HANG/RESTART_NO_PATCH/RESTART_NO_REBOOT

  00000	33 c0		 xor	 eax, eax
  00002	c3		 ret	 0
?GetApplicationRestartFlags@CWinApp@@UAEKXZ ENDP	; CWinApp::GetApplicationRestartFlags
_TEXT	ENDS
; Function compile flags: /Ogtp
; File C:\Program Files (x86)\Microsoft Visual Studio\2019\Community\VC\Tools\MSVC\14.29.30133\atlmfc\include\afxwin.h
;	COMDAT ?RestoreAutosavedFilesAtRestart@CWinApp@@UBEHXZ
_TEXT	SEGMENT
?RestoreAutosavedFilesAtRestart@CWinApp@@UBEHXZ PROC	; CWinApp::RestoreAutosavedFilesAtRestart, COMDAT
; _this$ = ecx

; 5366 : 	virtual BOOL RestoreAutosavedFilesAtRestart() const { return m_dwRestartManagerSupportFlags & AFX_RESTART_MANAGER_RESTORE_AUTOSAVED_FILES; }

  00000	8b 81 ac 00 00
	00		 mov	 eax, DWORD PTR [ecx+172]
  00006	83 e0 20	 and	 eax, 32			; 00000020H
  00009	c3		 ret	 0
?RestoreAutosavedFilesAtRestart@CWinApp@@UBEHXZ ENDP	; CWinApp::RestoreAutosavedFilesAtRestart
_TEXT	ENDS
; Function compile flags: /Ogtp
; File C:\Program Files (x86)\Microsoft Visual Studio\2019\Community\VC\Tools\MSVC\14.29.30133\atlmfc\include\afxwin.h
;	COMDAT ?ReopenPreviousFilesAtRestart@CWinApp@@UBEHXZ
_TEXT	SEGMENT
?ReopenPreviousFilesAtRestart@CWinApp@@UBEHXZ PROC	; CWinApp::ReopenPreviousFilesAtRestart, COMDAT
; _this$ = ecx

; 5365 : 	virtual BOOL ReopenPreviousFilesAtRestart() const { return m_dwRestartManagerSupportFlags & AFX_RESTART_MANAGER_REOPEN_PREVIOUS_FILES; }

  00000	8b 81 ac 00 00
	00		 mov	 eax, DWORD PTR [ecx+172]
  00006	83 e0 10	 and	 eax, 16			; 00000010H
  00009	c3		 ret	 0
?ReopenPreviousFilesAtRestart@CWinApp@@UBEHXZ ENDP	; CWinApp::ReopenPreviousFilesAtRestart
_TEXT	ENDS
; Function compile flags: /Ogtp
; File C:\Program Files (x86)\Microsoft Visual Studio\2019\Community\VC\Tools\MSVC\14.29.30133\atlmfc\include\afxwin.h
;	COMDAT ?SupportsAutosaveAtInterval@CWinApp@@UBEHXZ
_TEXT	SEGMENT
?SupportsAutosaveAtInterval@CWinApp@@UBEHXZ PROC	; CWinApp::SupportsAutosaveAtInterval, COMDAT
; _this$ = ecx

; 5364 : 	virtual BOOL SupportsAutosaveAtInterval() const { return m_dwRestartManagerSupportFlags & AFX_RESTART_MANAGER_AUTOSAVE_AT_INTERVAL; }

  00000	8b 81 ac 00 00
	00		 mov	 eax, DWORD PTR [ecx+172]
  00006	83 e0 08	 and	 eax, 8
  00009	c3		 ret	 0
?SupportsAutosaveAtInterval@CWinApp@@UBEHXZ ENDP	; CWinApp::SupportsAutosaveAtInterval
_TEXT	ENDS
; Function compile flags: /Ogtp
; File C:\Program Files (x86)\Microsoft Visual Studio\2019\Community\VC\Tools\MSVC\14.29.30133\atlmfc\include\afxwin.h
;	COMDAT ?SupportsAutosaveAtRestart@CWinApp@@UBEHXZ
_TEXT	SEGMENT
?SupportsAutosaveAtRestart@CWinApp@@UBEHXZ PROC		; CWinApp::SupportsAutosaveAtRestart, COMDAT
; _this$ = ecx

; 5363 : 	virtual BOOL SupportsAutosaveAtRestart() const { return m_dwRestartManagerSupportFlags & AFX_RESTART_MANAGER_AUTOSAVE_AT_RESTART; }

  00000	8b 81 ac 00 00
	00		 mov	 eax, DWORD PTR [ecx+172]
  00006	83 e0 04	 and	 eax, 4
  00009	c3		 ret	 0
?SupportsAutosaveAtRestart@CWinApp@@UBEHXZ ENDP		; CWinApp::SupportsAutosaveAtRestart
_TEXT	ENDS
; Function compile flags: /Ogtp
; File C:\Program Files (x86)\Microsoft Visual Studio\2019\Community\VC\Tools\MSVC\14.29.30133\atlmfc\include\afxwin.h
;	COMDAT ?SupportsApplicationRecovery@CWinApp@@UBEHXZ
_TEXT	SEGMENT
?SupportsApplicationRecovery@CWinApp@@UBEHXZ PROC	; CWinApp::SupportsApplicationRecovery, COMDAT
; _this$ = ecx

; 5362 : 	virtual BOOL SupportsApplicationRecovery() const { return m_dwRestartManagerSupportFlags & AFX_RESTART_MANAGER_SUPPORT_RECOVERY; }

  00000	8b 81 ac 00 00
	00		 mov	 eax, DWORD PTR [ecx+172]
  00006	83 e0 02	 and	 eax, 2
  00009	c3		 ret	 0
?SupportsApplicationRecovery@CWinApp@@UBEHXZ ENDP	; CWinApp::SupportsApplicationRecovery
_TEXT	ENDS
; Function compile flags: /Ogtp
; File C:\Program Files (x86)\Microsoft Visual Studio\2019\Community\VC\Tools\MSVC\14.29.30133\atlmfc\include\afxwin.h
;	COMDAT ?SupportsRestartManager@CWinApp@@UBEHXZ
_TEXT	SEGMENT
?SupportsRestartManager@CWinApp@@UBEHXZ PROC		; CWinApp::SupportsRestartManager, COMDAT
; _this$ = ecx

; 5361 : 	virtual BOOL SupportsRestartManager() const { return m_dwRestartManagerSupportFlags & AFX_RESTART_MANAGER_SUPPORT_RESTART; }

  00000	8b 81 ac 00 00
	00		 mov	 eax, DWORD PTR [ecx+172]
  00006	83 e0 01	 and	 eax, 1
  00009	c3		 ret	 0
?SupportsRestartManager@CWinApp@@UBEHXZ ENDP		; CWinApp::SupportsRestartManager
_TEXT	ENDS
; Function compile flags: /Ogtp
; File C:\Program Files (x86)\Microsoft Visual Studio\2019\Community\VC\Tools\MSVC\14.29.30133\atlmfc\include\afx.inl
;	COMDAT ?_AfxInitManaged@@YAHXZ
_TEXT	SEGMENT
?_AfxInitManaged@@YAHXZ PROC				; _AfxInitManaged, COMDAT

; 87   : 	return 0;

  00000	33 c0		 xor	 eax, eax

; 88   : }

  00002	c3		 ret	 0
?_AfxInitManaged@@YAHXZ ENDP				; _AfxInitManaged
_TEXT	ENDS
; Function compile flags: /Ogtp
; File D:\git\src\IBK\IBK_DRFN\ProjSrc\SrcChartEx\ChartOCX\KTBChart\KTBChart.cpp
;	COMDAT _DllUnregisterServer@0
_TEXT	SEGMENT
__ctlState$ = -8					; size = 8
_DllUnregisterServer@0 PROC				; COMDAT

; 119  : {

  00000	55		 push	 ebp
  00001	8b ec		 mov	 ebp, esp
  00003	83 ec 08	 sub	 esp, 8
  00006	56		 push	 esi

; 120  : 	AFX_MANAGE_STATE(_afxModuleAddrThis);

  00007	e8 00 00 00 00	 call	 ?AfxGetStaticModuleState@@YGPAVAFX_MODULE_STATE@@XZ ; AfxGetStaticModuleState
  0000c	50		 push	 eax
  0000d	8d 4d f8	 lea	 ecx, DWORD PTR __ctlState$[ebp]
  00010	e8 00 00 00 00	 call	 ??0AFX_MAINTAIN_STATE2@@QAE@PAVAFX_MODULE_STATE@@@Z ; AFX_MAINTAIN_STATE2::AFX_MAINTAIN_STATE2

; 121  : 
; 122  : 	if (!AfxOleUnregisterTypeLib(_tlid, _wVerMajor, _wVerMinor))

  00015	6a 00		 push	 0
  00017	6a 00		 push	 0
  00019	6a 01		 push	 1
  0001b	68 00 00 00 00	 push	 OFFSET ?_tlid@@3U_GUID@@B ; _tlid
  00020	e8 00 00 00 00	 call	 ?AfxOleUnregisterTypeLib@@YGHABU_GUID@@GGK@Z ; AfxOleUnregisterTypeLib
  00025	85 c0		 test	 eax, eax
  00027	75 14		 jne	 SHORT $LN2@DllUnregis

; 126  : 		return ResultFromScode(SELFREG_E_CLASS);
; 127  : 
; 128  : 	return NOERROR;

  00029	8d 4d f8	 lea	 ecx, DWORD PTR __ctlState$[ebp]
  0002c	be 00 02 04 80	 mov	 esi, -2147220992	; 80040200H
  00031	e8 00 00 00 00	 call	 ??1AFX_MAINTAIN_STATE2@@QAE@XZ ; AFX_MAINTAIN_STATE2::~AFX_MAINTAIN_STATE2
  00036	8b c6		 mov	 eax, esi
  00038	5e		 pop	 esi

; 129  : }

  00039	8b e5		 mov	 esp, ebp
  0003b	5d		 pop	 ebp
  0003c	c3		 ret	 0
$LN2@DllUnregis:

; 123  : 		return ResultFromScode(SELFREG_E_TYPELIB);
; 124  : 
; 125  : 	if (!COleObjectFactoryEx::UpdateRegistryAll(FALSE))

  0003d	6a 00		 push	 0
  0003f	e8 00 00 00 00	 call	 ?UpdateRegistryAll@COleObjectFactory@@SGHH@Z ; COleObjectFactory::UpdateRegistryAll
  00044	85 c0		 test	 eax, eax
  00046	75 14		 jne	 SHORT $LN3@DllUnregis

; 126  : 		return ResultFromScode(SELFREG_E_CLASS);
; 127  : 
; 128  : 	return NOERROR;

  00048	8d 4d f8	 lea	 ecx, DWORD PTR __ctlState$[ebp]
  0004b	be 01 02 04 80	 mov	 esi, -2147220991	; 80040201H
  00050	e8 00 00 00 00	 call	 ??1AFX_MAINTAIN_STATE2@@QAE@XZ ; AFX_MAINTAIN_STATE2::~AFX_MAINTAIN_STATE2
  00055	8b c6		 mov	 eax, esi
  00057	5e		 pop	 esi

; 129  : }

  00058	8b e5		 mov	 esp, ebp
  0005a	5d		 pop	 ebp
  0005b	c3		 ret	 0
$LN3@DllUnregis:

; 126  : 		return ResultFromScode(SELFREG_E_CLASS);
; 127  : 
; 128  : 	return NOERROR;

  0005c	8d 4d f8	 lea	 ecx, DWORD PTR __ctlState$[ebp]
  0005f	33 f6		 xor	 esi, esi
  00061	e8 00 00 00 00	 call	 ??1AFX_MAINTAIN_STATE2@@QAE@XZ ; AFX_MAINTAIN_STATE2::~AFX_MAINTAIN_STATE2
  00066	8b c6		 mov	 eax, esi
  00068	5e		 pop	 esi

; 129  : }

  00069	8b e5		 mov	 esp, ebp
  0006b	5d		 pop	 ebp
  0006c	c3		 ret	 0
_DllUnregisterServer@0 ENDP
_TEXT	ENDS
; Function compile flags: /Ogtp
; File D:\git\src\IBK\IBK_DRFN\ProjSrc\SrcChartEx\ChartOCX\KTBChart\KTBChart.cpp
; File C:\Program Files (x86)\Microsoft Visual Studio\2019\Community\VC\Tools\MSVC\14.29.30133\atlmfc\include\afxwin1.inl
; File D:\git\src\IBK\IBK_DRFN\ProjSrc\SrcChartEx\ChartOCX\KTBChart\KTBChart.cpp
; File C:\Program Files (x86)\Microsoft Visual Studio\2019\Community\VC\Tools\MSVC\14.29.30133\atlmfc\include\afxwin1.inl
; File D:\git\src\IBK\IBK_DRFN\ProjSrc\SrcChartEx\ChartOCX\KTBChart\KTBChart.cpp
;	COMDAT _DllRegisterServer@0
_TEXT	SEGMENT
__ctlState$ = -8					; size = 8
_DllRegisterServer@0 PROC				; COMDAT

; 102  : {

  00000	55		 push	 ebp
  00001	8b ec		 mov	 ebp, esp
  00003	83 ec 08	 sub	 esp, 8
  00006	56		 push	 esi

; 103  : 	AFX_MANAGE_STATE(_afxModuleAddrThis);

  00007	e8 00 00 00 00	 call	 ?AfxGetStaticModuleState@@YGPAVAFX_MODULE_STATE@@XZ ; AfxGetStaticModuleState
  0000c	50		 push	 eax
  0000d	8d 4d f8	 lea	 ecx, DWORD PTR __ctlState$[ebp]
  00010	e8 00 00 00 00	 call	 ??0AFX_MAINTAIN_STATE2@@QAE@PAVAFX_MODULE_STATE@@@Z ; AFX_MAINTAIN_STATE2::AFX_MAINTAIN_STATE2
; File C:\Program Files (x86)\Microsoft Visual Studio\2019\Community\VC\Tools\MSVC\14.29.30133\atlmfc\include\afxwin1.inl

; 22   : 		return afxCurrentInstanceHandle; }

  00015	e8 00 00 00 00	 call	 ?AfxGetModuleState@@YGPAVAFX_MODULE_STATE@@XZ ; AfxGetModuleState
; File D:\git\src\IBK\IBK_DRFN\ProjSrc\SrcChartEx\ChartOCX\KTBChart\KTBChart.cpp

; 105  : 	if (!AfxOleRegisterTypeLib(AfxGetInstanceHandle(), _tlid))

  0001a	6a 00		 push	 0
  0001c	6a 00		 push	 0
  0001e	68 00 00 00 00	 push	 OFFSET ?_tlid@@3U_GUID@@B ; _tlid
; File C:\Program Files (x86)\Microsoft Visual Studio\2019\Community\VC\Tools\MSVC\14.29.30133\atlmfc\include\afxwin1.inl

; 22   : 		return afxCurrentInstanceHandle; }

  00023	8b 40 08	 mov	 eax, DWORD PTR [eax+8]
; File D:\git\src\IBK\IBK_DRFN\ProjSrc\SrcChartEx\ChartOCX\KTBChart\KTBChart.cpp

; 105  : 	if (!AfxOleRegisterTypeLib(AfxGetInstanceHandle(), _tlid))

  00026	50		 push	 eax
  00027	e8 00 00 00 00	 call	 ?AfxOleRegisterTypeLib@@YGHPAUHINSTANCE__@@ABU_GUID@@PBD2@Z ; AfxOleRegisterTypeLib
  0002c	85 c0		 test	 eax, eax
  0002e	75 14		 jne	 SHORT $LN2@DllRegiste

; 109  : 		return ResultFromScode(SELFREG_E_CLASS);
; 110  : 
; 111  : 	return NOERROR;

  00030	8d 4d f8	 lea	 ecx, DWORD PTR __ctlState$[ebp]
  00033	be 00 02 04 80	 mov	 esi, -2147220992	; 80040200H
  00038	e8 00 00 00 00	 call	 ??1AFX_MAINTAIN_STATE2@@QAE@XZ ; AFX_MAINTAIN_STATE2::~AFX_MAINTAIN_STATE2
  0003d	8b c6		 mov	 eax, esi
  0003f	5e		 pop	 esi

; 112  : }

  00040	8b e5		 mov	 esp, ebp
  00042	5d		 pop	 ebp
  00043	c3		 ret	 0
$LN2@DllRegiste:

; 106  : 		return ResultFromScode(SELFREG_E_TYPELIB);
; 107  : 
; 108  : 	if (!COleObjectFactoryEx::UpdateRegistryAll(TRUE))

  00044	6a 01		 push	 1
  00046	e8 00 00 00 00	 call	 ?UpdateRegistryAll@COleObjectFactory@@SGHH@Z ; COleObjectFactory::UpdateRegistryAll
  0004b	85 c0		 test	 eax, eax
  0004d	75 14		 jne	 SHORT $LN3@DllRegiste

; 109  : 		return ResultFromScode(SELFREG_E_CLASS);
; 110  : 
; 111  : 	return NOERROR;

  0004f	8d 4d f8	 lea	 ecx, DWORD PTR __ctlState$[ebp]
  00052	be 01 02 04 80	 mov	 esi, -2147220991	; 80040201H
  00057	e8 00 00 00 00	 call	 ??1AFX_MAINTAIN_STATE2@@QAE@XZ ; AFX_MAINTAIN_STATE2::~AFX_MAINTAIN_STATE2
  0005c	8b c6		 mov	 eax, esi
  0005e	5e		 pop	 esi

; 112  : }

  0005f	8b e5		 mov	 esp, ebp
  00061	5d		 pop	 ebp
  00062	c3		 ret	 0
$LN3@DllRegiste:

; 109  : 		return ResultFromScode(SELFREG_E_CLASS);
; 110  : 
; 111  : 	return NOERROR;

  00063	8d 4d f8	 lea	 ecx, DWORD PTR __ctlState$[ebp]
  00066	33 f6		 xor	 esi, esi
  00068	e8 00 00 00 00	 call	 ??1AFX_MAINTAIN_STATE2@@QAE@XZ ; AFX_MAINTAIN_STATE2::~AFX_MAINTAIN_STATE2
  0006d	8b c6		 mov	 eax, esi
  0006f	5e		 pop	 esi

; 112  : }

  00070	8b e5		 mov	 esp, ebp
  00072	5d		 pop	 ebp
  00073	c3		 ret	 0
_DllRegisterServer@0 ENDP
_TEXT	ENDS
; Function compile flags: /Ogtp
; File C:\Program Files (x86)\Microsoft Visual Studio\2019\Community\VC\Tools\MSVC\14.29.30133\atlmfc\include\afx.inl
;	COMDAT ?Dump@CObject@@UBEXAAVCDumpContext@@@Z
_TEXT	SEGMENT
___formal$ = 8						; size = 4
?Dump@CObject@@UBEXAAVCDumpContext@@@Z PROC		; CObject::Dump, COMDAT
; _this$ = ecx

; 122  : 	{ /* no dumping in release builds */ }

  00000	c2 04 00	 ret	 4
?Dump@CObject@@UBEXAAVCDumpContext@@@Z ENDP		; CObject::Dump
_TEXT	ENDS
; Function compile flags: /Ogtp
; File C:\Program Files (x86)\Microsoft Visual Studio\2019\Community\VC\Tools\MSVC\14.29.30133\atlmfc\include\afx.inl
;	COMDAT ?AssertValid@CObject@@UBEXXZ
_TEXT	SEGMENT
?AssertValid@CObject@@UBEXXZ PROC			; CObject::AssertValid, COMDAT
; _this$ = ecx

; 120  : 	{ /* no asserts in release builds */ }

  00000	c2 00 00	 ret	 0
?AssertValid@CObject@@UBEXXZ ENDP			; CObject::AssertValid
_TEXT	ENDS
; Function compile flags: /Ogtp
; File C:\Program Files (x86)\Microsoft Visual Studio\2019\Community\VC\Tools\MSVC\14.29.30133\atlmfc\include\afx.inl
;	COMDAT ?Serialize@CObject@@UAEXAAVCArchive@@@Z
_TEXT	SEGMENT
___formal$ = 8						; size = 4
?Serialize@CObject@@UAEXAAVCArchive@@@Z PROC		; CObject::Serialize, COMDAT
; _this$ = ecx

; 106  : 	{ /* CObject does not serialize anything by default */ }

  00000	c2 04 00	 ret	 4
?Serialize@CObject@@UAEXAAVCArchive@@@Z ENDP		; CObject::Serialize
_TEXT	ENDS
; Function compile flags: /Ogtp
; File D:\git\src\IBK\IBK_DRFN\ProjSrc\SrcChartEx\ChartOCX\KTBChart\KTBChart.cpp
;	COMDAT ?__empty_global_delete@@YAXPAXI@Z
_TEXT	SEGMENT
___formal$ = 8						; size = 4
___formal$ = 12						; size = 4
?__empty_global_delete@@YAXPAXI@Z PROC			; __empty_global_delete, COMDAT

  00000	c2 00 00	 ret	 0
?__empty_global_delete@@YAXPAXI@Z ENDP			; __empty_global_delete
_TEXT	ENDS
; Function compile flags: /Ogtp
; File D:\git\src\IBK\IBK_DRFN\ProjSrc\SrcChartEx\ChartOCX\KTBChart\KTBChart.cpp
;	COMDAT ?__empty_global_delete@@YAXPAX@Z
_TEXT	SEGMENT
___formal$ = 8						; size = 4
?__empty_global_delete@@YAXPAX@Z PROC			; __empty_global_delete, COMDAT

  00000	c2 00 00	 ret	 0
?__empty_global_delete@@YAXPAX@Z ENDP			; __empty_global_delete
_TEXT	ENDS
END
