; Listing generated by Microsoft (R) Optimizing Compiler Version 19.29.30145.0 

	TITLE	D:\git\src\IBK\IBK_DRFN\#DRfn-CS\_Obj\KTBChart\KTBChartMouse.obj
	.686P
	.XMM
	include listing.inc
	.model	flat

INCLUDELIB MSVCRT
INCLUDELIB OLDNAMES

PUBLIC	??_C@_0BC@MMPGLPDH@RMS_ANALYSIS_FUNC@		; `string'
PUBLIC	??_C@_0BK@CABDBKK@RMSG_CAN_ADD_MARKET_INDEX@	; `string'
PUBLIC	??_C@_0BH@IFDMIMBP@RMSG_ADD_PLATFORM_MENU@	; `string'
CONST	SEGMENT
?_Fake_alloc@std@@3U_Fake_allocator@1@B	ORG $+1		; std::_Fake_alloc
CONST	ENDS
;	COMDAT ??_C@_0BH@IFDMIMBP@RMSG_ADD_PLATFORM_MENU@
CONST	SEGMENT
??_C@_0BH@IFDMIMBP@RMSG_ADD_PLATFORM_MENU@ DB 'RMSG_ADD_PLATFORM_MENU', 00H ; `string'
CONST	ENDS
;	COMDAT ??_C@_0BK@CABDBKK@RMSG_CAN_ADD_MARKET_INDEX@
CONST	SEGMENT
??_C@_0BK@CABDBKK@RMSG_CAN_ADD_MARKET_INDEX@ DB 'RMSG_CAN_ADD_MARKET_INDE'
	DB	'X', 00H					; `string'
CONST	ENDS
;	COMDAT ??_C@_0BC@MMPGLPDH@RMS_ANALYSIS_FUNC@
CONST	SEGMENT
??_C@_0BC@MMPGLPDH@RMS_ANALYSIS_FUNC@ DB 'RMS_ANALYSIS_FUNC', 00H ; `string'
CONST	ENDS
PUBLIC	?__empty_global_delete@@YAXPAX@Z		; __empty_global_delete
PUBLIC	?__empty_global_delete@@YAXPAXI@Z		; __empty_global_delete
PUBLIC	??1CObject@@UAE@XZ				; CObject::~CObject
PUBLIC	?Serialize@CObject@@UAEXAAVCArchive@@@Z		; CObject::Serialize
PUBLIC	?AssertValid@CObject@@UBEXXZ			; CObject::AssertValid
PUBLIC	?Dump@CObject@@UBEXAAVCDumpContext@@@Z		; CObject::Dump
PUBLIC	??1CGdiObject@@UAE@XZ				; CGdiObject::~CGdiObject
PUBLIC	??_GCGdiObject@@UAEPAXI@Z			; CGdiObject::`scalar deleting destructor'
PUBLIC	??1CBitmap@@UAE@XZ				; CBitmap::~CBitmap
PUBLIC	??_GCBitmap@@UAEPAXI@Z				; CBitmap::`scalar deleting destructor'
PUBLIC	?GetSubMenu@CMenu@@QBEPAV1@H@Z			; CMenu::GetSubMenu
PUBLIC	??1CMenu@@UAE@XZ				; CMenu::~CMenu
PUBLIC	??_GCMenu@@UAEPAXI@Z				; CMenu::`scalar deleting destructor'
PUBLIC	??1CMultiLanguageResourceSetter@@QAE@XZ		; CMultiLanguageResourceSetter::~CMultiLanguageResourceSetter
PUBLIC	?OnSetCursor@CKTBChartCtrl@@IAEHPAVCWnd@@II@Z	; CKTBChartCtrl::OnSetCursor
PUBLIC	?OnCaptureChanged@CKTBChartCtrl@@IAEXPAVCWnd@@@Z ; CKTBChartCtrl::OnCaptureChanged
PUBLIC	?OnMouseMove@CKTBChartCtrl@@IAEXIVCPoint@@@Z	; CKTBChartCtrl::OnMouseMove
PUBLIC	?OnLButtonDown@CKTBChartCtrl@@IAEXIVCPoint@@@Z	; CKTBChartCtrl::OnLButtonDown
PUBLIC	?OnLButtonUp@CKTBChartCtrl@@IAEXIVCPoint@@@Z	; CKTBChartCtrl::OnLButtonUp
PUBLIC	?OnLButtonDblClk@CKTBChartCtrl@@IAEXIVCPoint@@@Z ; CKTBChartCtrl::OnLButtonDblClk
PUBLIC	?OnRButtonDown@CKTBChartCtrl@@IAEXIVCPoint@@@Z	; CKTBChartCtrl::OnRButtonDown
PUBLIC	?OnRButtonUp@CKTBChartCtrl@@IAEXIVCPoint@@@Z	; CKTBChartCtrl::OnRButtonUp
PUBLIC	?OnRButtonDblClk@CKTBChartCtrl@@IAEXIVCPoint@@@Z ; CKTBChartCtrl::OnRButtonDblClk
PUBLIC	?OnCursorExchange@CKTBChartCtrl@@IAEJIJ@Z	; CKTBChartCtrl::OnCursorExchange
PUBLIC	?SetCursorHandle@CKTBChartCtrl@@QAEPAUHICON__@@PAU2@@Z ; CKTBChartCtrl::SetCursorHandle
PUBLIC	?AddSetCapture@CKTBChartCtrl@@QAEPAVCWnd@@XZ	; CKTBChartCtrl::AddSetCapture
PUBLIC	?RemoveSetCapture@CKTBChartCtrl@@QAEHXZ		; CKTBChartCtrl::RemoveSetCapture
PUBLIC	?OnLButtonDownProc@CKTBChartCtrl@@IAEXIVCPoint@@@Z ; CKTBChartCtrl::OnLButtonDownProc
PUBLIC	?OnLButtonUpProc@CKTBChartCtrl@@IAEXIVCPoint@@@Z ; CKTBChartCtrl::OnLButtonUpProc
PUBLIC	?OnLButtonDblClkProc@CKTBChartCtrl@@IAEXIVCPoint@@@Z ; CKTBChartCtrl::OnLButtonDblClkProc
PUBLIC	?OnRButtonDownProc@CKTBChartCtrl@@IAEXIVCPoint@@@Z ; CKTBChartCtrl::OnRButtonDownProc
PUBLIC	?OnRButtonUpProc@CKTBChartCtrl@@IAEHIVCPoint@@@Z ; CKTBChartCtrl::OnRButtonUpProc
PUBLIC	?OnRButtonDblClkProc@CKTBChartCtrl@@IAEXIVCPoint@@@Z ; CKTBChartCtrl::OnRButtonDblClkProc
PUBLIC	?GetSubMenuIndex@CKTBChartCtrl@@KAHPAVCMenu@@PBD@Z ; CKTBChartCtrl::GetSubMenuIndex
PUBLIC	?GetSubMenu@CKTBChartCtrl@@KAPAVCMenu@@PAV2@PBD@Z ; CKTBChartCtrl::GetSubMenu
PUBLIC	??_R0PAVCException@@@8				; CException * `RTTI Type Descriptor'
PUBLIC	??_7CGdiObject@@6B@				; CGdiObject::`vftable'
PUBLIC	??_7CBitmap@@6B@				; CBitmap::`vftable'
PUBLIC	??_7CMenu@@6B@					; CMenu::`vftable'
PUBLIC	??_C@_0HD@JJCHHHNK@C?3?2Program?5Files?5?$CIx86?$CJ?2Microsof@ ; `string'
PUBLIC	??_C@_0BP@OIEOKIDM@Exception?5thrown?5in?5destructor@ ; `string'
PUBLIC	??_C@_0BB@HBOOMJBF@?$CFTs?5?$CI?$CFTs?3?$CFd?$CJ?6?$CFTs@ ; `string'
PUBLIC	??_C@_0N@OMEMOKLE@?$CFTs?5?$CI?$CFTs?3?$CFd?$CJ@ ; `string'
PUBLIC	??_R0?AVCObject@@@8				; CObject `RTTI Type Descriptor'
PUBLIC	??_R3CObject@@8					; CObject::`RTTI Class Hierarchy Descriptor'
PUBLIC	??_R2CObject@@8					; CObject::`RTTI Base Class Array'
PUBLIC	??_R1A@?0A@EA@CObject@@8			; CObject::`RTTI Base Class Descriptor at (0,-1,0,64)'
PUBLIC	??_R4CGdiObject@@6B@				; CGdiObject::`RTTI Complete Object Locator'
PUBLIC	??_R0?AVCGdiObject@@@8				; CGdiObject `RTTI Type Descriptor'
PUBLIC	??_R3CGdiObject@@8				; CGdiObject::`RTTI Class Hierarchy Descriptor'
PUBLIC	??_R2CGdiObject@@8				; CGdiObject::`RTTI Base Class Array'
PUBLIC	??_R1A@?0A@EA@CGdiObject@@8			; CGdiObject::`RTTI Base Class Descriptor at (0,-1,0,64)'
PUBLIC	??_R4CBitmap@@6B@				; CBitmap::`RTTI Complete Object Locator'
PUBLIC	??_R0?AVCBitmap@@@8				; CBitmap `RTTI Type Descriptor'
PUBLIC	??_R3CBitmap@@8					; CBitmap::`RTTI Class Hierarchy Descriptor'
PUBLIC	??_R2CBitmap@@8					; CBitmap::`RTTI Base Class Array'
PUBLIC	??_R1A@?0A@EA@CBitmap@@8			; CBitmap::`RTTI Base Class Descriptor at (0,-1,0,64)'
PUBLIC	??_R4CMenu@@6B@					; CMenu::`RTTI Complete Object Locator'
PUBLIC	??_R0?AVCMenu@@@8				; CMenu `RTTI Type Descriptor'
PUBLIC	??_R3CMenu@@8					; CMenu::`RTTI Class Hierarchy Descriptor'
PUBLIC	??_R2CMenu@@8					; CMenu::`RTTI Base Class Array'
PUBLIC	??_R1A@?0A@EA@CMenu@@8				; CMenu::`RTTI Base Class Descriptor at (0,-1,0,64)'
PUBLIC	??_C@_0BA@ENJOCHIO@LoadResourceDLL@		; `string'
EXTRN	??3@YAXPAX@Z:PROC				; operator delete
EXTRN	?__global_delete@@YAXPAXI@Z:PROC		; __global_delete
EXTRN	___std_terminate:PROC
EXTRN	__imp__GetProcAddress@8:PROC
EXTRN	__imp__BitBlt@36:PROC
EXTRN	__imp__CreateCompatibleBitmap@12:PROC
EXTRN	__imp__CreateCompatibleDC@4:PROC
EXTRN	__imp__RegisterWindowMessageA@4:PROC
EXTRN	__imp__SendMessageA@16:PROC
EXTRN	__imp__LoadMenuW@8:PROC
EXTRN	__imp__GetMenuState@12:PROC
EXTRN	__imp__GetSubMenu@8:PROC
EXTRN	__imp__GetMenuItemID@8:PROC
EXTRN	__imp__GetMenuItemCount@4:PROC
EXTRN	__imp__DeleteMenu@12:PROC
EXTRN	__imp__GetMenuItemInfoA@16:PROC
EXTRN	__imp__SetCursor@4:PROC
EXTRN	__imp__ClientToScreen@8:PROC
EXTRN	__imp__GetParent@4:PROC
EXTRN	__imp__LoadCursorA@8:PROC
EXTRN	__imp_??0?$CStringT@DV?$StrTraitMFC_DLL@DV?$ChTraitsCRT@D@ATL@@@@@ATL@@QAE@XZ:PROC
EXTRN	__imp_??0?$CStringT@DV?$StrTraitMFC_DLL@DV?$ChTraitsCRT@D@ATL@@@@@ATL@@QAE@PBD@Z:PROC
EXTRN	__imp_??1?$CStringT@DV?$StrTraitMFC_DLL@DV?$ChTraitsCRT@D@ATL@@@@@ATL@@QAE@XZ:PROC
EXTRN	__imp_?Compare@?$CStringT@DV?$StrTraitMFC_DLL@DV?$ChTraitsCRT@D@ATL@@@@@ATL@@QBEHPBD@Z:PROC
EXTRN	__imp_?Format@?$CStringT@DV?$StrTraitMFC_DLL@DV?$ChTraitsCRT@D@ATL@@@@@ATL@@QAAXPBDZZ:PROC
EXTRN	__imp_?LoadStringA@?$CStringT@DV?$StrTraitMFC_DLL@DV?$ChTraitsCRT@D@ATL@@@@@ATL@@QAEHI@Z:PROC
EXTRN	?AfxGetModuleState@@YGPAVAFX_MODULE_STATE@@XZ:PROC ; AfxGetModuleState
EXTRN	?AfxGetStaticModuleState@@YGPAVAFX_MODULE_STATE@@XZ:PROC ; AfxGetStaticModuleState
EXTRN	?GetRuntimeClass@CGdiObject@@UBEPAUCRuntimeClass@@XZ:PROC ; CGdiObject::GetRuntimeClass
EXTRN	?Attach@CGdiObject@@QAEHPAX@Z:PROC		; CGdiObject::Attach
EXTRN	?DeleteObject@CGdiObject@@QAEHXZ:PROC		; CGdiObject::DeleteObject
EXTRN	??_ECGdiObject@@UAEPAXI@Z:PROC			; CGdiObject::`vector deleting destructor'
EXTRN	?GetRuntimeClass@CBitmap@@UBEPAUCRuntimeClass@@XZ:PROC ; CBitmap::GetRuntimeClass
EXTRN	??_ECBitmap@@UAEPAXI@Z:PROC			; CBitmap::`vector deleting destructor'
EXTRN	?Attach@CDC@@QAEHPAUHDC__@@@Z:PROC		; CDC::Attach
EXTRN	??0CDC@@QAE@XZ:PROC				; CDC::CDC
EXTRN	?DeleteDC@CDC@@QAEHXZ:PROC			; CDC::DeleteDC
EXTRN	?SelectObject@CDC@@UAEPAVCFont@@PAV2@@Z:PROC	; CDC::SelectObject
EXTRN	??1CDC@@UAE@XZ:PROC				; CDC::~CDC
EXTRN	?SelectGdiObject@CDC@@KGPAVCGdiObject@@PAUHDC__@@PAX@Z:PROC ; CDC::SelectGdiObject
EXTRN	??0CClientDC@@QAE@PAVCWnd@@@Z:PROC		; CClientDC::CClientDC
EXTRN	??1CClientDC@@UAE@XZ:PROC			; CClientDC::~CClientDC
EXTRN	?GetRuntimeClass@CMenu@@UBEPAUCRuntimeClass@@XZ:PROC ; CMenu::GetRuntimeClass
EXTRN	?DestroyMenu@CMenu@@QAEHXZ:PROC			; CMenu::DestroyMenu
EXTRN	?FromHandle@CMenu@@SGPAV1@PAUHMENU__@@@Z:PROC	; CMenu::FromHandle
EXTRN	?Attach@CMenu@@QAEHPAUHMENU__@@@Z:PROC		; CMenu::Attach
EXTRN	?TrackPopupMenu@CMenu@@QAEHIHHPAVCWnd@@PBUtagRECT@@@Z:PROC ; CMenu::TrackPopupMenu
EXTRN	?GetMenuStringA@CMenu@@QBEHIAAV?$CStringT@DV?$StrTraitMFC_DLL@DV?$ChTraitsCRT@D@ATL@@@@@ATL@@I@Z:PROC ; CMenu::GetMenuStringA
EXTRN	?DrawItem@CMenu@@UAEXPAUtagDRAWITEMSTRUCT@@@Z:PROC ; CMenu::DrawItem
EXTRN	?MeasureItem@CMenu@@UAEXPAUtagMEASUREITEMSTRUCT@@@Z:PROC ; CMenu::MeasureItem
EXTRN	??_ECMenu@@UAEPAXI@Z:PROC			; CMenu::`vector deleting destructor'
EXTRN	?Enable@CCmdUI@@UAEXH@Z:PROC			; CCmdUI::Enable
EXTRN	??0CCmdUI@@QAE@XZ:PROC				; CCmdUI::CCmdUI
EXTRN	?FromHandle@CWnd@@SGPAV1@PAUHWND__@@@Z:PROC	; CWnd::FromHandle
EXTRN	?Default@CWnd@@IAEJXZ:PROC			; CWnd::Default
EXTRN	?AfxFindResourceHandle@@YGPAUHINSTANCE__@@PBD0@Z:PROC ; AfxFindResourceHandle
EXTRN	?AfxMessageBox@@YGHPBDII@Z:PROC			; AfxMessageBox
EXTRN	?SetCapture@COleControl@@QAEPAVCWnd@@XZ:PROC	; COleControl::SetCapture
EXTRN	?ReleaseCapture@COleControl@@QAEHXZ:PROC	; COleControl::ReleaseCapture
EXTRN	?SetFocus@COleControl@@QAEPAVCWnd@@XZ:PROC	; COleControl::SetFocus
EXTRN	?OnMouseMove@COleControl@@IAEXIVCPoint@@@Z:PROC	; COleControl::OnMouseMove
EXTRN	?OnLButtonDown@COleControl@@IAEXIVCPoint@@@Z:PROC ; COleControl::OnLButtonDown
EXTRN	?OnLButtonUp@COleControl@@IAEXIVCPoint@@@Z:PROC	; COleControl::OnLButtonUp
EXTRN	?OnLButtonDblClk@COleControl@@IAEXIVCPoint@@@Z:PROC ; COleControl::OnLButtonDblClk
EXTRN	?OnRButtonDown@COleControl@@IAEXIVCPoint@@@Z:PROC ; COleControl::OnRButtonDown
EXTRN	?OnRButtonUp@COleControl@@IAEXIVCPoint@@@Z:PROC	; COleControl::OnRButtonUp
EXTRN	?OnRButtonDblClk@COleControl@@IAEXIVCPoint@@@Z:PROC ; COleControl::OnRButtonDblClk
EXTRN	?OnSetCursor@COleControl@@IAEHPAVCWnd@@II@Z:PROC ; COleControl::OnSetCursor
EXTRN	__imp_?OnCaptureChanged@CAddInManager@@QAEXPAVCWnd@@PBVCBitmap@@@Z:PROC
EXTRN	__imp_?ClearCursor@CAddInManager@@QAEXPAVCDC@@PBVCBitmap@@PAVCRect@@@Z:PROC
EXTRN	__imp_?DrawCursor@CAddInManager@@QAEXPAVCDC@@@Z:PROC
EXTRN	__imp_?OnMouseMove@CAddInManager@@QAEHPAVCDC@@IAAVCPoint@@KPBVCBitmap@@@Z:PROC
EXTRN	__imp_?OnLButtonDown@CAddInManager@@QAEHPAVCDC@@IAAVCPoint@@K@Z:PROC
EXTRN	__imp_?OnLButtonUp@CAddInManager@@QAEHPAVCDC@@IAAVCPoint@@K@Z:PROC
EXTRN	__imp_?OnLButtonDblClk@CAddInManager@@QAEHPAVCDC@@IAAVCPoint@@K@Z:PROC
EXTRN	__imp_?OnRButtonDown@CAddInManager@@QAEHPAVCDC@@IAAVCPoint@@K@Z:PROC
EXTRN	__imp_?OnRButtonUp@CAddInManager@@QAEHPAVCDC@@IAAVCPoint@@K@Z:PROC
EXTRN	__imp_?OnRButtonDblClk@CAddInManager@@QAEHPAVCDC@@IAAVCPoint@@K@Z:PROC
EXTRN	?GetMetaText@IMetaTable@@QAEPBDPAUHWND__@@W4E_CODEPAGE@1@PBDH@Z:PROC ; IMetaTable::GetMetaText
EXTRN	?GetLanguageText@IMetaTable@@QAEPBDPAUHWND__@@W4E_CODEPAGE@1@PBDH@Z:PROC ; IMetaTable::GetLanguageText
EXTRN	?IsRunTimeMode@CKTBChartCtrl@@ABEHXZ:PROC	; CKTBChartCtrl::IsRunTimeMode
EXTRN	@__security_check_cookie@4:PROC
EXTRN	___CxxFrameHandler3:PROC
EXTRN	??_7type_info@@6B@:QWORD			; type_info::`vftable'
EXTRN	?g_iMetaTable@@3VIMetaTable@@A:BYTE		; g_iMetaTable
EXTRN	___security_cookie:DWORD
_BSS	SEGMENT
?RMS_ANALYSIS_FUNC@@3IB DD 01H DUP (?)			; RMS_ANALYSIS_FUNC
?RMSG_CAN_ADD_MARKET_INDEX@@3IB DD 01H DUP (?)		; RMSG_CAN_ADD_MARKET_INDEX
?RMSG_ADD_PLATFORM_MENU@@3IB DD 01H DUP (?)		; RMSG_ADD_PLATFORM_MENU
_BSS	ENDS
CRT$XCU	SEGMENT
?RMS_ANALYSIS_FUNC$initializer$@@3P6AXXZA DD FLAT:??__ERMS_ANALYSIS_FUNC@@YAXXZ ; RMS_ANALYSIS_FUNC$initializer$
CRT$XCU	ENDS
;	COMDAT ??_C@_0BA@ENJOCHIO@LoadResourceDLL@
CONST	SEGMENT
??_C@_0BA@ENJOCHIO@LoadResourceDLL@ DB 'LoadResourceDLL', 00H ; `string'
CONST	ENDS
;	COMDAT ??_R1A@?0A@EA@CMenu@@8
rdata$r	SEGMENT
??_R1A@?0A@EA@CMenu@@8 DD FLAT:??_R0?AVCMenu@@@8	; CMenu::`RTTI Base Class Descriptor at (0,-1,0,64)'
	DD	01H
	DD	00H
	DD	0ffffffffH
	DD	00H
	DD	040H
	DD	FLAT:??_R3CMenu@@8
rdata$r	ENDS
;	COMDAT ??_R2CMenu@@8
rdata$r	SEGMENT
??_R2CMenu@@8 DD FLAT:??_R1A@?0A@EA@CMenu@@8		; CMenu::`RTTI Base Class Array'
	DD	FLAT:??_R1A@?0A@EA@CObject@@8
rdata$r	ENDS
;	COMDAT ??_R3CMenu@@8
rdata$r	SEGMENT
??_R3CMenu@@8 DD 00H					; CMenu::`RTTI Class Hierarchy Descriptor'
	DD	00H
	DD	02H
	DD	FLAT:??_R2CMenu@@8
rdata$r	ENDS
;	COMDAT ??_R0?AVCMenu@@@8
data$rs	SEGMENT
??_R0?AVCMenu@@@8 DD FLAT:??_7type_info@@6B@		; CMenu `RTTI Type Descriptor'
	DD	00H
	DB	'.?AVCMenu@@', 00H
data$rs	ENDS
;	COMDAT ??_R4CMenu@@6B@
rdata$r	SEGMENT
??_R4CMenu@@6B@ DD 00H					; CMenu::`RTTI Complete Object Locator'
	DD	00H
	DD	00H
	DD	FLAT:??_R0?AVCMenu@@@8
	DD	FLAT:??_R3CMenu@@8
rdata$r	ENDS
;	COMDAT ??_R1A@?0A@EA@CBitmap@@8
rdata$r	SEGMENT
??_R1A@?0A@EA@CBitmap@@8 DD FLAT:??_R0?AVCBitmap@@@8	; CBitmap::`RTTI Base Class Descriptor at (0,-1,0,64)'
	DD	02H
	DD	00H
	DD	0ffffffffH
	DD	00H
	DD	040H
	DD	FLAT:??_R3CBitmap@@8
rdata$r	ENDS
;	COMDAT ??_R2CBitmap@@8
rdata$r	SEGMENT
??_R2CBitmap@@8 DD FLAT:??_R1A@?0A@EA@CBitmap@@8	; CBitmap::`RTTI Base Class Array'
	DD	FLAT:??_R1A@?0A@EA@CGdiObject@@8
	DD	FLAT:??_R1A@?0A@EA@CObject@@8
rdata$r	ENDS
;	COMDAT ??_R3CBitmap@@8
rdata$r	SEGMENT
??_R3CBitmap@@8 DD 00H					; CBitmap::`RTTI Class Hierarchy Descriptor'
	DD	00H
	DD	03H
	DD	FLAT:??_R2CBitmap@@8
rdata$r	ENDS
;	COMDAT ??_R0?AVCBitmap@@@8
data$rs	SEGMENT
??_R0?AVCBitmap@@@8 DD FLAT:??_7type_info@@6B@		; CBitmap `RTTI Type Descriptor'
	DD	00H
	DB	'.?AVCBitmap@@', 00H
data$rs	ENDS
;	COMDAT ??_R4CBitmap@@6B@
rdata$r	SEGMENT
??_R4CBitmap@@6B@ DD 00H				; CBitmap::`RTTI Complete Object Locator'
	DD	00H
	DD	00H
	DD	FLAT:??_R0?AVCBitmap@@@8
	DD	FLAT:??_R3CBitmap@@8
rdata$r	ENDS
;	COMDAT ??_R1A@?0A@EA@CGdiObject@@8
rdata$r	SEGMENT
??_R1A@?0A@EA@CGdiObject@@8 DD FLAT:??_R0?AVCGdiObject@@@8 ; CGdiObject::`RTTI Base Class Descriptor at (0,-1,0,64)'
	DD	01H
	DD	00H
	DD	0ffffffffH
	DD	00H
	DD	040H
	DD	FLAT:??_R3CGdiObject@@8
rdata$r	ENDS
;	COMDAT ??_R2CGdiObject@@8
rdata$r	SEGMENT
??_R2CGdiObject@@8 DD FLAT:??_R1A@?0A@EA@CGdiObject@@8	; CGdiObject::`RTTI Base Class Array'
	DD	FLAT:??_R1A@?0A@EA@CObject@@8
rdata$r	ENDS
;	COMDAT ??_R3CGdiObject@@8
rdata$r	SEGMENT
??_R3CGdiObject@@8 DD 00H				; CGdiObject::`RTTI Class Hierarchy Descriptor'
	DD	00H
	DD	02H
	DD	FLAT:??_R2CGdiObject@@8
rdata$r	ENDS
;	COMDAT ??_R0?AVCGdiObject@@@8
data$rs	SEGMENT
??_R0?AVCGdiObject@@@8 DD FLAT:??_7type_info@@6B@	; CGdiObject `RTTI Type Descriptor'
	DD	00H
	DB	'.?AVCGdiObject@@', 00H
data$rs	ENDS
;	COMDAT ??_R4CGdiObject@@6B@
rdata$r	SEGMENT
??_R4CGdiObject@@6B@ DD 00H				; CGdiObject::`RTTI Complete Object Locator'
	DD	00H
	DD	00H
	DD	FLAT:??_R0?AVCGdiObject@@@8
	DD	FLAT:??_R3CGdiObject@@8
rdata$r	ENDS
;	COMDAT ??_R1A@?0A@EA@CObject@@8
rdata$r	SEGMENT
??_R1A@?0A@EA@CObject@@8 DD FLAT:??_R0?AVCObject@@@8	; CObject::`RTTI Base Class Descriptor at (0,-1,0,64)'
	DD	00H
	DD	00H
	DD	0ffffffffH
	DD	00H
	DD	040H
	DD	FLAT:??_R3CObject@@8
rdata$r	ENDS
;	COMDAT ??_R2CObject@@8
rdata$r	SEGMENT
??_R2CObject@@8 DD FLAT:??_R1A@?0A@EA@CObject@@8	; CObject::`RTTI Base Class Array'
rdata$r	ENDS
;	COMDAT ??_R3CObject@@8
rdata$r	SEGMENT
??_R3CObject@@8 DD 00H					; CObject::`RTTI Class Hierarchy Descriptor'
	DD	00H
	DD	01H
	DD	FLAT:??_R2CObject@@8
rdata$r	ENDS
;	COMDAT ??_R0?AVCObject@@@8
data$rs	SEGMENT
??_R0?AVCObject@@@8 DD FLAT:??_7type_info@@6B@		; CObject `RTTI Type Descriptor'
	DD	00H
	DB	'.?AVCObject@@', 00H
data$rs	ENDS
;	COMDAT ??_C@_0N@OMEMOKLE@?$CFTs?5?$CI?$CFTs?3?$CFd?$CJ@
CONST	SEGMENT
??_C@_0N@OMEMOKLE@?$CFTs?5?$CI?$CFTs?3?$CFd?$CJ@ DB '%Ts (%Ts:%d)', 00H ; `string'
CONST	ENDS
;	COMDAT ??_C@_0BB@HBOOMJBF@?$CFTs?5?$CI?$CFTs?3?$CFd?$CJ?6?$CFTs@
CONST	SEGMENT
??_C@_0BB@HBOOMJBF@?$CFTs?5?$CI?$CFTs?3?$CFd?$CJ?6?$CFTs@ DB '%Ts (%Ts:%d'
	DB	')', 0aH, '%Ts', 00H				; `string'
CONST	ENDS
;	COMDAT ??_C@_0BP@OIEOKIDM@Exception?5thrown?5in?5destructor@
CONST	SEGMENT
??_C@_0BP@OIEOKIDM@Exception?5thrown?5in?5destructor@ DB 'Exception throw'
	DB	'n in destructor', 00H			; `string'
CONST	ENDS
;	COMDAT ??_C@_0HD@JJCHHHNK@C?3?2Program?5Files?5?$CIx86?$CJ?2Microsof@
CONST	SEGMENT
??_C@_0HD@JJCHHHNK@C?3?2Program?5Files?5?$CIx86?$CJ?2Microsof@ DB 'C:\Pro'
	DB	'gram Files (x86)\Microsoft Visual Studio\2019\Community\VC\To'
	DB	'ols\MSVC\14.29.30133\atlmfc\include\afxwin1.inl', 00H ; `string'
CONST	ENDS
;	COMDAT ??_7CMenu@@6B@
CONST	SEGMENT
??_7CMenu@@6B@ DD FLAT:??_R4CMenu@@6B@			; CMenu::`vftable'
	DD	FLAT:?GetRuntimeClass@CMenu@@UBEPAUCRuntimeClass@@XZ
	DD	FLAT:??_ECMenu@@UAEPAXI@Z
	DD	FLAT:?Serialize@CObject@@UAEXAAVCArchive@@@Z
	DD	FLAT:?AssertValid@CObject@@UBEXXZ
	DD	FLAT:?Dump@CObject@@UBEXAAVCDumpContext@@@Z
	DD	FLAT:?DrawItem@CMenu@@UAEXPAUtagDRAWITEMSTRUCT@@@Z
	DD	FLAT:?MeasureItem@CMenu@@UAEXPAUtagMEASUREITEMSTRUCT@@@Z
CONST	ENDS
;	COMDAT ??_7CBitmap@@6B@
CONST	SEGMENT
??_7CBitmap@@6B@ DD FLAT:??_R4CBitmap@@6B@		; CBitmap::`vftable'
	DD	FLAT:?GetRuntimeClass@CBitmap@@UBEPAUCRuntimeClass@@XZ
	DD	FLAT:??_ECBitmap@@UAEPAXI@Z
	DD	FLAT:?Serialize@CObject@@UAEXAAVCArchive@@@Z
	DD	FLAT:?AssertValid@CObject@@UBEXXZ
	DD	FLAT:?Dump@CObject@@UBEXAAVCDumpContext@@@Z
CONST	ENDS
;	COMDAT ??_7CGdiObject@@6B@
CONST	SEGMENT
??_7CGdiObject@@6B@ DD FLAT:??_R4CGdiObject@@6B@	; CGdiObject::`vftable'
	DD	FLAT:?GetRuntimeClass@CGdiObject@@UBEPAUCRuntimeClass@@XZ
	DD	FLAT:??_ECGdiObject@@UAEPAXI@Z
	DD	FLAT:?Serialize@CObject@@UAEXAAVCArchive@@@Z
	DD	FLAT:?AssertValid@CObject@@UBEXXZ
	DD	FLAT:?Dump@CObject@@UBEXAAVCDumpContext@@@Z
CONST	ENDS
;	COMDAT ??_R0PAVCException@@@8
data$r	SEGMENT
??_R0PAVCException@@@8 DD FLAT:??_7type_info@@6B@	; CException * `RTTI Type Descriptor'
	DD	00H
	DB	'.PAVCException@@', 00H
data$r	ENDS
;	COMDAT xdata$x
xdata$x	SEGMENT
__unwindtable$?GetSubMenuIndex@CKTBChartCtrl@@KAHPAVCMenu@@PBD@Z DD 0ffffffffH
	DD	FLAT:__unwindfunclet$?GetSubMenuIndex@CKTBChartCtrl@@KAHPAVCMenu@@PBD@Z$0
__ehfuncinfo$?GetSubMenuIndex@CKTBChartCtrl@@KAHPAVCMenu@@PBD@Z DD 019930522H
	DD	01H
	DD	FLAT:__unwindtable$?GetSubMenuIndex@CKTBChartCtrl@@KAHPAVCMenu@@PBD@Z
	DD	2 DUP(00H)
	DD	2 DUP(00H)
	DD	00H
	DD	01H
xdata$x	ENDS
;	COMDAT xdata$x
xdata$x	SEGMENT
__unwindtable$?OnRButtonDblClkProc@CKTBChartCtrl@@IAEXIVCPoint@@@Z DD 0ffffffffH
	DD	FLAT:__unwindfunclet$?OnRButtonDblClkProc@CKTBChartCtrl@@IAEXIVCPoint@@@Z$0
__ehfuncinfo$?OnRButtonDblClkProc@CKTBChartCtrl@@IAEXIVCPoint@@@Z DD 019930522H
	DD	01H
	DD	FLAT:__unwindtable$?OnRButtonDblClkProc@CKTBChartCtrl@@IAEXIVCPoint@@@Z
	DD	2 DUP(00H)
	DD	2 DUP(00H)
	DD	00H
	DD	01H
xdata$x	ENDS
;	COMDAT xdata$x
xdata$x	SEGMENT
__ehfuncinfo$?OnRButtonUpProc@CKTBChartCtrl@@IAEHIVCPoint@@@Z DD 019930522H
	DD	0bH
	DD	FLAT:__unwindtable$?OnRButtonUpProc@CKTBChartCtrl@@IAEHIVCPoint@@@Z
	DD	2 DUP(00H)
	DD	2 DUP(00H)
	DD	00H
	DD	01H
__unwindtable$?OnRButtonUpProc@CKTBChartCtrl@@IAEHIVCPoint@@@Z DD 0ffffffffH
	DD	FLAT:__unwindfunclet$?OnRButtonUpProc@CKTBChartCtrl@@IAEHIVCPoint@@@Z$0
	DD	0ffffffffH
	DD	FLAT:__unwindfunclet$?OnRButtonUpProc@CKTBChartCtrl@@IAEHIVCPoint@@@Z$1
	DD	01H
	DD	FLAT:__unwindfunclet$?OnRButtonUpProc@CKTBChartCtrl@@IAEHIVCPoint@@@Z$2
	DD	02H
	DD	FLAT:__unwindfunclet$?OnRButtonUpProc@CKTBChartCtrl@@IAEHIVCPoint@@@Z$3
	DD	02H
	DD	FLAT:__unwindfunclet$?OnRButtonUpProc@CKTBChartCtrl@@IAEHIVCPoint@@@Z$4
	DD	04H
	DD	FLAT:__unwindfunclet$?OnRButtonUpProc@CKTBChartCtrl@@IAEHIVCPoint@@@Z$5
	DD	02H
	DD	FLAT:__unwindfunclet$?OnRButtonUpProc@CKTBChartCtrl@@IAEHIVCPoint@@@Z$6
	DD	06H
	DD	FLAT:__unwindfunclet$?OnRButtonUpProc@CKTBChartCtrl@@IAEHIVCPoint@@@Z$7
	DD	07H
	DD	FLAT:__unwindfunclet$?OnRButtonUpProc@CKTBChartCtrl@@IAEHIVCPoint@@@Z$8
	DD	01H
	DD	FLAT:___std_terminate
	DD	0ffffffffH
	DD	FLAT:___std_terminate
xdata$x	ENDS
;	COMDAT xdata$x
xdata$x	SEGMENT
__unwindtable$?OnRButtonDownProc@CKTBChartCtrl@@IAEXIVCPoint@@@Z DD 0ffffffffH
	DD	FLAT:__unwindfunclet$?OnRButtonDownProc@CKTBChartCtrl@@IAEXIVCPoint@@@Z$0
__ehfuncinfo$?OnRButtonDownProc@CKTBChartCtrl@@IAEXIVCPoint@@@Z DD 019930522H
	DD	01H
	DD	FLAT:__unwindtable$?OnRButtonDownProc@CKTBChartCtrl@@IAEXIVCPoint@@@Z
	DD	2 DUP(00H)
	DD	2 DUP(00H)
	DD	00H
	DD	01H
xdata$x	ENDS
;	COMDAT xdata$x
xdata$x	SEGMENT
__unwindtable$?OnLButtonDblClkProc@CKTBChartCtrl@@IAEXIVCPoint@@@Z DD 0ffffffffH
	DD	FLAT:__unwindfunclet$?OnLButtonDblClkProc@CKTBChartCtrl@@IAEXIVCPoint@@@Z$0
__ehfuncinfo$?OnLButtonDblClkProc@CKTBChartCtrl@@IAEXIVCPoint@@@Z DD 019930522H
	DD	01H
	DD	FLAT:__unwindtable$?OnLButtonDblClkProc@CKTBChartCtrl@@IAEXIVCPoint@@@Z
	DD	2 DUP(00H)
	DD	2 DUP(00H)
	DD	00H
	DD	01H
xdata$x	ENDS
;	COMDAT xdata$x
xdata$x	SEGMENT
__unwindtable$?OnLButtonUpProc@CKTBChartCtrl@@IAEXIVCPoint@@@Z DD 0ffffffffH
	DD	FLAT:__unwindfunclet$?OnLButtonUpProc@CKTBChartCtrl@@IAEXIVCPoint@@@Z$0
__ehfuncinfo$?OnLButtonUpProc@CKTBChartCtrl@@IAEXIVCPoint@@@Z DD 019930522H
	DD	01H
	DD	FLAT:__unwindtable$?OnLButtonUpProc@CKTBChartCtrl@@IAEXIVCPoint@@@Z
	DD	2 DUP(00H)
	DD	2 DUP(00H)
	DD	00H
	DD	01H
xdata$x	ENDS
;	COMDAT xdata$x
xdata$x	SEGMENT
__unwindtable$?OnLButtonDownProc@CKTBChartCtrl@@IAEXIVCPoint@@@Z DD 0ffffffffH
	DD	FLAT:__unwindfunclet$?OnLButtonDownProc@CKTBChartCtrl@@IAEXIVCPoint@@@Z$0
__ehfuncinfo$?OnLButtonDownProc@CKTBChartCtrl@@IAEXIVCPoint@@@Z DD 019930522H
	DD	01H
	DD	FLAT:__unwindtable$?OnLButtonDownProc@CKTBChartCtrl@@IAEXIVCPoint@@@Z
	DD	2 DUP(00H)
	DD	2 DUP(00H)
	DD	00H
	DD	01H
xdata$x	ENDS
;	COMDAT xdata$x
xdata$x	SEGMENT
__unwindtable$?OnCursorExchange@CKTBChartCtrl@@IAEJIJ@Z DD 0ffffffffH
	DD	FLAT:__unwindfunclet$?OnCursorExchange@CKTBChartCtrl@@IAEJIJ@Z$0
	DD	0ffffffffH
	DD	FLAT:___std_terminate
__ehfuncinfo$?OnCursorExchange@CKTBChartCtrl@@IAEJIJ@Z DD 019930522H
	DD	02H
	DD	FLAT:__unwindtable$?OnCursorExchange@CKTBChartCtrl@@IAEJIJ@Z
	DD	2 DUP(00H)
	DD	2 DUP(00H)
	DD	00H
	DD	01H
xdata$x	ENDS
;	COMDAT xdata$x
xdata$x	SEGMENT
__unwindtable$?OnRButtonDblClk@CKTBChartCtrl@@IAEXIVCPoint@@@Z DD 0ffffffffH
	DD	FLAT:__unwindfunclet$?OnRButtonDblClk@CKTBChartCtrl@@IAEXIVCPoint@@@Z$0
__ehfuncinfo$?OnRButtonDblClk@CKTBChartCtrl@@IAEXIVCPoint@@@Z DD 019930522H
	DD	01H
	DD	FLAT:__unwindtable$?OnRButtonDblClk@CKTBChartCtrl@@IAEXIVCPoint@@@Z
	DD	2 DUP(00H)
	DD	2 DUP(00H)
	DD	00H
	DD	01H
xdata$x	ENDS
;	COMDAT xdata$x
xdata$x	SEGMENT
__unwindtable$?OnRButtonDown@CKTBChartCtrl@@IAEXIVCPoint@@@Z DD 0ffffffffH
	DD	FLAT:__unwindfunclet$?OnRButtonDown@CKTBChartCtrl@@IAEXIVCPoint@@@Z$0
__ehfuncinfo$?OnRButtonDown@CKTBChartCtrl@@IAEXIVCPoint@@@Z DD 019930522H
	DD	01H
	DD	FLAT:__unwindtable$?OnRButtonDown@CKTBChartCtrl@@IAEXIVCPoint@@@Z
	DD	2 DUP(00H)
	DD	2 DUP(00H)
	DD	00H
	DD	01H
xdata$x	ENDS
;	COMDAT xdata$x
xdata$x	SEGMENT
__unwindtable$?OnLButtonDblClk@CKTBChartCtrl@@IAEXIVCPoint@@@Z DD 0ffffffffH
	DD	FLAT:__unwindfunclet$?OnLButtonDblClk@CKTBChartCtrl@@IAEXIVCPoint@@@Z$0
__ehfuncinfo$?OnLButtonDblClk@CKTBChartCtrl@@IAEXIVCPoint@@@Z DD 019930522H
	DD	01H
	DD	FLAT:__unwindtable$?OnLButtonDblClk@CKTBChartCtrl@@IAEXIVCPoint@@@Z
	DD	2 DUP(00H)
	DD	2 DUP(00H)
	DD	00H
	DD	01H
xdata$x	ENDS
;	COMDAT xdata$x
xdata$x	SEGMENT
__unwindtable$?OnLButtonUp@CKTBChartCtrl@@IAEXIVCPoint@@@Z DD 0ffffffffH
	DD	FLAT:__unwindfunclet$?OnLButtonUp@CKTBChartCtrl@@IAEXIVCPoint@@@Z$0
__ehfuncinfo$?OnLButtonUp@CKTBChartCtrl@@IAEXIVCPoint@@@Z DD 019930522H
	DD	01H
	DD	FLAT:__unwindtable$?OnLButtonUp@CKTBChartCtrl@@IAEXIVCPoint@@@Z
	DD	2 DUP(00H)
	DD	2 DUP(00H)
	DD	00H
	DD	01H
xdata$x	ENDS
;	COMDAT xdata$x
xdata$x	SEGMENT
__unwindtable$?OnLButtonDown@CKTBChartCtrl@@IAEXIVCPoint@@@Z DD 0ffffffffH
	DD	FLAT:__unwindfunclet$?OnLButtonDown@CKTBChartCtrl@@IAEXIVCPoint@@@Z$0
__ehfuncinfo$?OnLButtonDown@CKTBChartCtrl@@IAEXIVCPoint@@@Z DD 019930522H
	DD	01H
	DD	FLAT:__unwindtable$?OnLButtonDown@CKTBChartCtrl@@IAEXIVCPoint@@@Z
	DD	2 DUP(00H)
	DD	2 DUP(00H)
	DD	00H
	DD	01H
xdata$x	ENDS
;	COMDAT xdata$x
xdata$x	SEGMENT
__unwindtable$?OnMouseMove@CKTBChartCtrl@@IAEXIVCPoint@@@Z DD 0ffffffffH
	DD	FLAT:__unwindfunclet$?OnMouseMove@CKTBChartCtrl@@IAEXIVCPoint@@@Z$0
	DD	00H
	DD	FLAT:__unwindfunclet$?OnMouseMove@CKTBChartCtrl@@IAEXIVCPoint@@@Z$1
	DD	01H
	DD	FLAT:__unwindfunclet$?OnMouseMove@CKTBChartCtrl@@IAEXIVCPoint@@@Z$2
__ehfuncinfo$?OnMouseMove@CKTBChartCtrl@@IAEXIVCPoint@@@Z DD 019930522H
	DD	03H
	DD	FLAT:__unwindtable$?OnMouseMove@CKTBChartCtrl@@IAEXIVCPoint@@@Z
	DD	2 DUP(00H)
	DD	2 DUP(00H)
	DD	00H
	DD	01H
xdata$x	ENDS
;	COMDAT xdata$x
xdata$x	SEGMENT
__unwindtable$?OnCaptureChanged@CKTBChartCtrl@@IAEXPAVCWnd@@@Z DD 0ffffffffH
	DD	FLAT:__unwindfunclet$?OnCaptureChanged@CKTBChartCtrl@@IAEXPAVCWnd@@@Z$0
__ehfuncinfo$?OnCaptureChanged@CKTBChartCtrl@@IAEXPAVCWnd@@@Z DD 019930522H
	DD	01H
	DD	FLAT:__unwindtable$?OnCaptureChanged@CKTBChartCtrl@@IAEXPAVCWnd@@@Z
	DD	2 DUP(00H)
	DD	2 DUP(00H)
	DD	00H
	DD	01H
xdata$x	ENDS
;	COMDAT xdata$x
xdata$x	SEGMENT
__ehfuncinfo$??1CMultiLanguageResourceSetter@@QAE@XZ DD 019930522H
	DD	00H
	DD	00H
	DD	2 DUP(00H)
	DD	2 DUP(00H)
	DD	00H
	DD	05H
xdata$x	ENDS
;	COMDAT xdata$x
xdata$x	SEGMENT
__unwindtable$??_GCMenu@@UAEPAXI@Z DD 0ffffffffH
	DD	FLAT:___std_terminate
__ehfuncinfo$??_GCMenu@@UAEPAXI@Z DD 019930522H
	DD	01H
	DD	FLAT:__unwindtable$??_GCMenu@@UAEPAXI@Z
	DD	2 DUP(00H)
	DD	2 DUP(00H)
	DD	00H
	DD	05H
xdata$x	ENDS
;	COMDAT xdata$x
xdata$x	SEGMENT
__ehfuncinfo$??1CMenu@@UAE@XZ DD 019930522H
	DD	00H
	DD	00H
	DD	2 DUP(00H)
	DD	2 DUP(00H)
	DD	00H
	DD	05H
xdata$x	ENDS
;	COMDAT xdata$x
xdata$x	SEGMENT
__catchsym$??1CGdiObject@@UAE@XZ$3 DD 00H
	DD	FLAT:??_R0PAVCException@@@8
	DD	0fffffde4H
	DD	FLAT:__catch$??1CGdiObject@@UAE@XZ$0
__tryblocktable$??1CGdiObject@@UAE@XZ DD 00H
	DD	00H
	DD	02H
	DD	01H
	DD	FLAT:__catchsym$??1CGdiObject@@UAE@XZ$3
__unwindtable$??1CGdiObject@@UAE@XZ DD 0ffffffffH
	DD	00H
	DD	0ffffffffH
	DD	00H
	DD	01H
	DD	FLAT:__unwindfunclet$??1CGdiObject@@UAE@XZ$2
__ehfuncinfo$??1CGdiObject@@UAE@XZ DD 019930522H
	DD	03H
	DD	FLAT:__unwindtable$??1CGdiObject@@UAE@XZ
	DD	01H
	DD	FLAT:__tryblocktable$??1CGdiObject@@UAE@XZ
	DD	2 DUP(00H)
	DD	00H
	DD	05H
xdata$x	ENDS
CRT$XCU	SEGMENT
?RMSG_CAN_ADD_MARKET_INDEX$initializer$@@3P6AXXZA DD FLAT:??__ERMSG_CAN_ADD_MARKET_INDEX@@YAXXZ ; RMSG_CAN_ADD_MARKET_INDEX$initializer$
CRT$XCU	ENDS
CRT$XCU	SEGMENT
?RMSG_ADD_PLATFORM_MENU$initializer$@@3P6AXXZA DD FLAT:??__ERMSG_ADD_PLATFORM_MENU@@YAXXZ ; RMSG_ADD_PLATFORM_MENU$initializer$
CRT$XCU	ENDS
; Function compile flags: /Ogtp
; File D:\git\src\IBK\IBK_DRFN\ProjSrc\SrcChartEx\ChartOCX\KTBChart\KTBChartMouse.cpp
;	COMDAT ??__ERMSG_ADD_PLATFORM_MENU@@YAXXZ
text$di	SEGMENT
??__ERMSG_ADD_PLATFORM_MENU@@YAXXZ PROC			; `dynamic initializer for 'RMSG_ADD_PLATFORM_MENU'', COMDAT

; 412  : const UINT RMSG_ADD_PLATFORM_MENU = ::RegisterWindowMessage(_T("RMSG_ADD_PLATFORM_MENU"));

  00000	68 00 00 00 00	 push	 OFFSET ??_C@_0BH@IFDMIMBP@RMSG_ADD_PLATFORM_MENU@
  00005	ff 15 00 00 00
	00		 call	 DWORD PTR __imp__RegisterWindowMessageA@4
  0000b	a3 00 00 00 00	 mov	 DWORD PTR ?RMSG_ADD_PLATFORM_MENU@@3IB, eax
  00010	c3		 ret	 0
??__ERMSG_ADD_PLATFORM_MENU@@YAXXZ ENDP			; `dynamic initializer for 'RMSG_ADD_PLATFORM_MENU''
text$di	ENDS
; Function compile flags: /Ogtp
; File D:\git\src\IBK\IBK_DRFN\ProjSrc\SrcChartEx\ChartOCX\KTBChart\KTBChartMouse.cpp
;	COMDAT ??__ERMSG_CAN_ADD_MARKET_INDEX@@YAXXZ
text$di	SEGMENT
??__ERMSG_CAN_ADD_MARKET_INDEX@@YAXXZ PROC		; `dynamic initializer for 'RMSG_CAN_ADD_MARKET_INDEX'', COMDAT

; 409  : const UINT RMSG_CAN_ADD_MARKET_INDEX = ::RegisterWindowMessage( _T( "RMSG_CAN_ADD_MARKET_INDEX"));

  00000	68 00 00 00 00	 push	 OFFSET ??_C@_0BK@CABDBKK@RMSG_CAN_ADD_MARKET_INDEX@
  00005	ff 15 00 00 00
	00		 call	 DWORD PTR __imp__RegisterWindowMessageA@4
  0000b	a3 00 00 00 00	 mov	 DWORD PTR ?RMSG_CAN_ADD_MARKET_INDEX@@3IB, eax
  00010	c3		 ret	 0
??__ERMSG_CAN_ADD_MARKET_INDEX@@YAXXZ ENDP		; `dynamic initializer for 'RMSG_CAN_ADD_MARKET_INDEX''
text$di	ENDS
; Function compile flags: /Ogtp
; File D:\git\src\IBK\IBK_DRFN\ProjSrc\SrcChartEx\ChartOCX\Include_Chart\MessageDefine.h
;	COMDAT ??__ERMS_ANALYSIS_FUNC@@YAXXZ
text$di	SEGMENT
??__ERMS_ANALYSIS_FUNC@@YAXXZ PROC			; `dynamic initializer for 'RMS_ANALYSIS_FUNC'', COMDAT

; 5    : const UINT RMS_ANALYSIS_FUNC = ::RegisterWindowMessage(_T("RMS_ANALYSIS_FUNC"));

  00000	68 00 00 00 00	 push	 OFFSET ??_C@_0BC@MMPGLPDH@RMS_ANALYSIS_FUNC@
  00005	ff 15 00 00 00
	00		 call	 DWORD PTR __imp__RegisterWindowMessageA@4
  0000b	a3 00 00 00 00	 mov	 DWORD PTR ?RMS_ANALYSIS_FUNC@@3IB, eax
  00010	c3		 ret	 0
??__ERMS_ANALYSIS_FUNC@@YAXXZ ENDP			; `dynamic initializer for 'RMS_ANALYSIS_FUNC''
text$di	ENDS
; Function compile flags: /Ogtp
; File D:\git\src\IBK\IBK_DRFN\ProjSrc\SrcChartEx\ChartOCX\KTBChart\KTBChartMouse.cpp
; File C:\Program Files (x86)\Microsoft Visual Studio\2019\Community\VC\Tools\MSVC\14.29.30133\atlmfc\include\afxwin1.inl
; File D:\git\src\IBK\IBK_DRFN\ProjSrc\SrcChartEx\ChartOCX\KTBChart\KTBChartMouse.cpp
;	COMDAT ?GetSubMenu@CKTBChartCtrl@@KAPAVCMenu@@PAV2@PBD@Z
_TEXT	SEGMENT
_p_pMainMenu$ = 8					; size = 4
_p_szMenuString$ = 12					; size = 4
?GetSubMenu@CKTBChartCtrl@@KAPAVCMenu@@PAV2@PBD@Z PROC	; CKTBChartCtrl::GetSubMenu, COMDAT

; 661  : {

  00000	55		 push	 ebp
  00001	8b ec		 mov	 ebp, esp
  00003	56		 push	 esi

; 662  : 	int nMenuIndex = GetSubMenuIndex( p_pMainMenu, p_szMenuString);

  00004	ff 75 0c	 push	 DWORD PTR _p_szMenuString$[ebp]
  00007	8b 75 08	 mov	 esi, DWORD PTR _p_pMainMenu$[ebp]
  0000a	56		 push	 esi
  0000b	e8 00 00 00 00	 call	 ?GetSubMenuIndex@CKTBChartCtrl@@KAHPAVCMenu@@PBD@Z ; CKTBChartCtrl::GetSubMenuIndex
  00010	83 c4 08	 add	 esp, 8

; 663  : 	if( nMenuIndex <= 0) return NULL;

  00013	85 c0		 test	 eax, eax
  00015	7f 05		 jg	 SHORT $LN2@GetSubMenu
  00017	33 c0		 xor	 eax, eax
  00019	5e		 pop	 esi

; 665  : }

  0001a	5d		 pop	 ebp
  0001b	c3		 ret	 0
$LN2@GetSubMenu:
; File C:\Program Files (x86)\Microsoft Visual Studio\2019\Community\VC\Tools\MSVC\14.29.30133\atlmfc\include\afxwin1.inl

; 951  : 	{ ASSERT(::IsMenu(m_hMenu)); return CMenu::FromHandle(::GetSubMenu(m_hMenu, nPos)); }

  0001c	50		 push	 eax
  0001d	ff 76 04	 push	 DWORD PTR [esi+4]
  00020	ff 15 00 00 00
	00		 call	 DWORD PTR __imp__GetSubMenu@8
  00026	50		 push	 eax
  00027	e8 00 00 00 00	 call	 ?FromHandle@CMenu@@SGPAV1@PAUHMENU__@@@Z ; CMenu::FromHandle
  0002c	5e		 pop	 esi
; File D:\git\src\IBK\IBK_DRFN\ProjSrc\SrcChartEx\ChartOCX\KTBChart\KTBChartMouse.cpp

; 665  : }

  0002d	5d		 pop	 ebp
  0002e	c3		 ret	 0
?GetSubMenu@CKTBChartCtrl@@KAPAVCMenu@@PAV2@PBD@Z ENDP	; CKTBChartCtrl::GetSubMenu
_TEXT	ENDS
; Function compile flags: /Ogtp
; File D:\git\src\IBK\IBK_DRFN\ProjSrc\SrcChartEx\ChartOCX\KTBChart\KTBChartMouse.cpp
; File C:\Program Files (x86)\Microsoft Visual Studio\2019\Community\VC\Tools\MSVC\14.29.30133\atlmfc\include\afxwin1.inl
; File D:\git\src\IBK\IBK_DRFN\ProjSrc\SrcChartEx\ChartOCX\KTBChart\KTBChartMouse.cpp
; File C:\Program Files (x86)\Microsoft Visual Studio\2019\Community\VC\Tools\MSVC\14.29.30133\atlmfc\include\cstringt.h
; File D:\git\src\IBK\IBK_DRFN\ProjSrc\SrcChartEx\ChartOCX\KTBChart\KTBChartMouse.cpp
;	COMDAT ?GetSubMenuIndex@CKTBChartCtrl@@KAHPAVCMenu@@PBD@Z
_TEXT	SEGMENT
_nMenuItemCount$1$ = -16				; size = 4
__$EHRec$ = -12						; size = 12
_strMenuString$ = 8					; size = 4
_p_pMainMenu$ = 8					; size = 4
_p_szMenuString$ = 12					; size = 4
?GetSubMenuIndex@CKTBChartCtrl@@KAHPAVCMenu@@PBD@Z PROC	; CKTBChartCtrl::GetSubMenuIndex, COMDAT

; 647  : {

  00000	55		 push	 ebp
  00001	8b ec		 mov	 ebp, esp
  00003	6a ff		 push	 -1
  00005	68 00 00 00 00	 push	 __ehhandler$?GetSubMenuIndex@CKTBChartCtrl@@KAHPAVCMenu@@PBD@Z
  0000a	64 a1 00 00 00
	00		 mov	 eax, DWORD PTR fs:0
  00010	50		 push	 eax
  00011	51		 push	 ecx
  00012	53		 push	 ebx
  00013	56		 push	 esi
  00014	57		 push	 edi
  00015	a1 00 00 00 00	 mov	 eax, DWORD PTR ___security_cookie
  0001a	33 c5		 xor	 eax, ebp
  0001c	50		 push	 eax
  0001d	8d 45 f4	 lea	 eax, DWORD PTR __$EHRec$[ebp]
  00020	64 a3 00 00 00
	00		 mov	 DWORD PTR fs:0, eax

; 648  : 	if( !p_pMainMenu || !p_szMenuString) return -1;

  00026	8b 7d 08	 mov	 edi, DWORD PTR _p_pMainMenu$[ebp]
  00029	85 ff		 test	 edi, edi
  0002b	74 78		 je	 SHORT $LN6@GetSubMenu
  0002d	8b 5d 0c	 mov	 ebx, DWORD PTR _p_szMenuString$[ebp]
  00030	85 db		 test	 ebx, ebx
  00032	74 71		 je	 SHORT $LN6@GetSubMenu
; File C:\Program Files (x86)\Microsoft Visual Studio\2019\Community\VC\Tools\MSVC\14.29.30133\atlmfc\include\afxwin1.inl

; 937  : 	{ ASSERT(::IsMenu(m_hMenu)); return ::GetMenuItemCount(m_hMenu); }

  00034	ff 77 04	 push	 DWORD PTR [edi+4]
  00037	ff 15 00 00 00
	00		 call	 DWORD PTR __imp__GetMenuItemCount@4
; File D:\git\src\IBK\IBK_DRFN\ProjSrc\SrcChartEx\ChartOCX\KTBChart\KTBChartMouse.cpp

; 649  : 	int nMenuItemCount = p_pMainMenu->GetMenuItemCount();

  0003d	89 45 f0	 mov	 DWORD PTR _nMenuItemCount$1$[ebp], eax

; 650  : 	if( nMenuItemCount <= 0 || !*p_szMenuString) return -1;

  00040	85 c0		 test	 eax, eax
  00042	7e 61		 jle	 SHORT $LN6@GetSubMenu
  00044	80 3b 00	 cmp	 BYTE PTR [ebx], 0
  00047	74 5c		 je	 SHORT $LN6@GetSubMenu

; 651  : 
; 652  : 	CString strMenuString;

  00049	8d 4d 08	 lea	 ecx, DWORD PTR _strMenuString$[ebp]
  0004c	ff 15 00 00 00
	00		 call	 DWORD PTR __imp_??0?$CStringT@DV?$StrTraitMFC_DLL@DV?$ChTraitsCRT@D@ATL@@@@@ATL@@QAE@XZ
  00052	c7 45 fc 00 00
	00 00		 mov	 DWORD PTR __$EHRec$[ebp+8], 0

; 653  : 	for( int i = 0; i < nMenuItemCount; i++)

  00059	33 f6		 xor	 esi, esi
  0005b	0f 1f 44 00 00	 npad	 5
$LL4@GetSubMenu:

; 654  : 	{
; 655  : 		p_pMainMenu->GetMenuString( i, strMenuString, MF_BYPOSITION);

  00060	68 00 04 00 00	 push	 1024			; 00000400H
  00065	8d 45 08	 lea	 eax, DWORD PTR _strMenuString$[ebp]
  00068	8b cf		 mov	 ecx, edi
  0006a	50		 push	 eax
  0006b	56		 push	 esi
  0006c	e8 00 00 00 00	 call	 ?GetMenuStringA@CMenu@@QBEHIAAV?$CStringT@DV?$StrTraitMFC_DLL@DV?$ChTraitsCRT@D@ATL@@@@@ATL@@I@Z ; CMenu::GetMenuStringA
; File C:\Program Files (x86)\Microsoft Visual Studio\2019\Community\VC\Tools\MSVC\14.29.30133\atlmfc\include\cstringt.h

; 2486 : 		return(str1.Compare(psz2) == 0);

  00071	53		 push	 ebx
  00072	8d 4d 08	 lea	 ecx, DWORD PTR _strMenuString$[ebp]
  00075	ff 15 00 00 00
	00		 call	 DWORD PTR __imp_?Compare@?$CStringT@DV?$StrTraitMFC_DLL@DV?$ChTraitsCRT@D@ATL@@@@@ATL@@QBEHPBD@Z
  0007b	85 c0		 test	 eax, eax
; File D:\git\src\IBK\IBK_DRFN\ProjSrc\SrcChartEx\ChartOCX\KTBChart\KTBChartMouse.cpp

; 656  : 		if( strMenuString == p_szMenuString) return i;

  0007d	74 09		 je	 SHORT $LN12@GetSubMenu

; 653  : 	for( int i = 0; i < nMenuItemCount; i++)

  0007f	46		 inc	 esi
  00080	3b 75 f0	 cmp	 esi, DWORD PTR _nMenuItemCount$1$[ebp]
  00083	7c db		 jl	 SHORT $LL4@GetSubMenu

; 657  : 	}
; 658  : 	return -1;

  00085	83 ce ff	 or	 esi, -1
$LN12@GetSubMenu:
  00088	8d 4d 08	 lea	 ecx, DWORD PTR _strMenuString$[ebp]
  0008b	ff 15 00 00 00
	00		 call	 DWORD PTR __imp_??1?$CStringT@DV?$StrTraitMFC_DLL@DV?$ChTraitsCRT@D@ATL@@@@@ATL@@QAE@XZ
  00091	8b c6		 mov	 eax, esi

; 659  : }

  00093	8b 4d f4	 mov	 ecx, DWORD PTR __$EHRec$[ebp]
  00096	64 89 0d 00 00
	00 00		 mov	 DWORD PTR fs:0, ecx
  0009d	59		 pop	 ecx
  0009e	5f		 pop	 edi
  0009f	5e		 pop	 esi
  000a0	5b		 pop	 ebx
  000a1	8b e5		 mov	 esp, ebp
  000a3	5d		 pop	 ebp
  000a4	c3		 ret	 0
$LN6@GetSubMenu:

; 648  : 	if( !p_pMainMenu || !p_szMenuString) return -1;

  000a5	83 c8 ff	 or	 eax, -1

; 659  : }

  000a8	8b 4d f4	 mov	 ecx, DWORD PTR __$EHRec$[ebp]
  000ab	64 89 0d 00 00
	00 00		 mov	 DWORD PTR fs:0, ecx
  000b2	59		 pop	 ecx
  000b3	5f		 pop	 edi
  000b4	5e		 pop	 esi
  000b5	5b		 pop	 ebx
  000b6	8b e5		 mov	 esp, ebp
  000b8	5d		 pop	 ebp
  000b9	c3		 ret	 0
_TEXT	ENDS
;	COMDAT text$x
text$x	SEGMENT
__unwindfunclet$?GetSubMenuIndex@CKTBChartCtrl@@KAHPAVCMenu@@PBD@Z$0:
  00000	8d 4d 08	 lea	 ecx, DWORD PTR _strMenuString$[ebp]
  00003	ff 25 00 00 00
	00		 jmp	 DWORD PTR __imp_??1?$CStringT@DV?$StrTraitMFC_DLL@DV?$ChTraitsCRT@D@ATL@@@@@ATL@@QAE@XZ
  00009	cc		 int	 3
  0000a	cc		 int	 3
  0000b	cc		 int	 3
  0000c	cc		 int	 3
  0000d	cc		 int	 3
__ehhandler$?GetSubMenuIndex@CKTBChartCtrl@@KAHPAVCMenu@@PBD@Z:
  0000e	90		 npad	 1
  0000f	90		 npad	 1
  00010	8b 54 24 08	 mov	 edx, DWORD PTR [esp+8]
  00014	8d 42 0c	 lea	 eax, DWORD PTR [edx+12]
  00017	8b 4a ec	 mov	 ecx, DWORD PTR [edx-20]
  0001a	33 c8		 xor	 ecx, eax
  0001c	e8 00 00 00 00	 call	 @__security_check_cookie@4
  00021	b8 00 00 00 00	 mov	 eax, OFFSET __ehfuncinfo$?GetSubMenuIndex@CKTBChartCtrl@@KAHPAVCMenu@@PBD@Z
  00026	e9 00 00 00 00	 jmp	 ___CxxFrameHandler3
text$x	ENDS
?GetSubMenuIndex@CKTBChartCtrl@@KAHPAVCMenu@@PBD@Z ENDP	; CKTBChartCtrl::GetSubMenuIndex
; Function compile flags: /Ogtp
; File D:\git\src\IBK\IBK_DRFN\ProjSrc\SrcChartEx\ChartOCX\KTBChart\KTBChartMouse.cpp
;	COMDAT ?OnRButtonDblClkProc@CKTBChartCtrl@@IAEXIVCPoint@@@Z
_TEXT	SEGMENT
_dcClient$2 = -32					; size = 20
__$EHRec$ = -12						; size = 12
_nFlags$ = 8						; size = 4
_point$ = 12						; size = 8
?OnRButtonDblClkProc@CKTBChartCtrl@@IAEXIVCPoint@@@Z PROC ; CKTBChartCtrl::OnRButtonDblClkProc, COMDAT
; _this$ = ecx

; 702  : {

  00000	55		 push	 ebp
  00001	8b ec		 mov	 ebp, esp
  00003	6a ff		 push	 -1
  00005	68 00 00 00 00	 push	 __ehhandler$?OnRButtonDblClkProc@CKTBChartCtrl@@IAEXIVCPoint@@@Z
  0000a	64 a1 00 00 00
	00		 mov	 eax, DWORD PTR fs:0
  00010	50		 push	 eax
  00011	83 ec 14	 sub	 esp, 20			; 00000014H
  00014	56		 push	 esi
  00015	57		 push	 edi
  00016	a1 00 00 00 00	 mov	 eax, DWORD PTR ___security_cookie
  0001b	33 c5		 xor	 eax, ebp
  0001d	50		 push	 eax
  0001e	8d 45 f4	 lea	 eax, DWORD PTR __$EHRec$[ebp]
  00021	64 a3 00 00 00
	00		 mov	 DWORD PTR fs:0, eax
  00027	8b f9		 mov	 edi, ecx

; 703  : 	// (2006/1/17 - Seung-Won, Bae) Notify Mouse Move Event to Addin
; 704  : 	if( m_pAddInManager)

  00029	83 bf cc 04 00
	00 00		 cmp	 DWORD PTR [edi+1228], 0
  00030	74 4e		 je	 SHORT $LN2@OnRButtonD

; 705  : 	{
; 706  : 		// Caution! Use Client DC for MsgLoop like TrackPopupMenu()
; 707  : 		//		if GetDC(), The DC Instance can be destroyed. (You may lost the Handle of DC)
; 708  : 		CClientDC dcClient( this);

  00032	57		 push	 edi
  00033	8d 4d e0	 lea	 ecx, DWORD PTR _dcClient$2[ebp]
  00036	e8 00 00 00 00	 call	 ??0CClientDC@@QAE@PAVCWnd@@@Z ; CClientDC::CClientDC

; 709  : 		CFont *pOldFont = dcClient.SelectObject( m_pRscFont);

  0003b	ff b7 b4 04 00
	00		 push	 DWORD PTR [edi+1204]
  00041	8d 4d e0	 lea	 ecx, DWORD PTR _dcClient$2[ebp]
  00044	c7 45 fc 00 00
	00 00		 mov	 DWORD PTR __$EHRec$[ebp+8], 0
  0004b	e8 00 00 00 00	 call	 ?SelectObject@CDC@@UAEPAVCFont@@PAV2@@Z ; CDC::SelectObject

; 710  : 		m_pAddInManager->OnRButtonDblClk( &dcClient, nFlags, point, m_dwMouseActionID);

  00050	ff b7 f0 04 00
	00		 push	 DWORD PTR [edi+1264]
  00056	8b 8f cc 04 00
	00		 mov	 ecx, DWORD PTR [edi+1228]
  0005c	8b f0		 mov	 esi, eax
  0005e	8d 45 0c	 lea	 eax, DWORD PTR _point$[ebp]
  00061	50		 push	 eax
  00062	ff 75 08	 push	 DWORD PTR _nFlags$[ebp]
  00065	8d 45 e0	 lea	 eax, DWORD PTR _dcClient$2[ebp]
  00068	50		 push	 eax
  00069	ff 15 00 00 00
	00		 call	 DWORD PTR __imp_?OnRButtonDblClk@CAddInManager@@QAEHPAVCDC@@IAAVCPoint@@K@Z

; 711  : 		dcClient.SelectObject( pOldFont);

  0006f	56		 push	 esi
  00070	8d 4d e0	 lea	 ecx, DWORD PTR _dcClient$2[ebp]
  00073	e8 00 00 00 00	 call	 ?SelectObject@CDC@@UAEPAVCFont@@PAV2@@Z ; CDC::SelectObject

; 712  : 	}

  00078	8d 4d e0	 lea	 ecx, DWORD PTR _dcClient$2[ebp]
  0007b	e8 00 00 00 00	 call	 ??1CClientDC@@UAE@XZ	; CClientDC::~CClientDC
$LN2@OnRButtonD:

; 713  : }

  00080	8b 4d f4	 mov	 ecx, DWORD PTR __$EHRec$[ebp]
  00083	64 89 0d 00 00
	00 00		 mov	 DWORD PTR fs:0, ecx
  0008a	59		 pop	 ecx
  0008b	5f		 pop	 edi
  0008c	5e		 pop	 esi
  0008d	8b e5		 mov	 esp, ebp
  0008f	5d		 pop	 ebp
  00090	c2 0c 00	 ret	 12			; 0000000cH
_TEXT	ENDS
;	COMDAT text$x
text$x	SEGMENT
__unwindfunclet$?OnRButtonDblClkProc@CKTBChartCtrl@@IAEXIVCPoint@@@Z$0:
  00000	8d 4d e0	 lea	 ecx, DWORD PTR _dcClient$2[ebp]
  00003	e9 00 00 00 00	 jmp	 ??1CClientDC@@UAE@XZ	; CClientDC::~CClientDC
  00008	cc		 int	 3
  00009	cc		 int	 3
  0000a	cc		 int	 3
  0000b	cc		 int	 3
  0000c	cc		 int	 3
__ehhandler$?OnRButtonDblClkProc@CKTBChartCtrl@@IAEXIVCPoint@@@Z:
  0000d	90		 npad	 1
  0000e	90		 npad	 1
  0000f	8b 54 24 08	 mov	 edx, DWORD PTR [esp+8]
  00013	8d 42 0c	 lea	 eax, DWORD PTR [edx+12]
  00016	8b 4a e0	 mov	 ecx, DWORD PTR [edx-32]
  00019	33 c8		 xor	 ecx, eax
  0001b	e8 00 00 00 00	 call	 @__security_check_cookie@4
  00020	b8 00 00 00 00	 mov	 eax, OFFSET __ehfuncinfo$?OnRButtonDblClkProc@CKTBChartCtrl@@IAEXIVCPoint@@@Z
  00025	e9 00 00 00 00	 jmp	 ___CxxFrameHandler3
text$x	ENDS
?OnRButtonDblClkProc@CKTBChartCtrl@@IAEXIVCPoint@@@Z ENDP ; CKTBChartCtrl::OnRButtonDblClkProc
; Function compile flags: /Ogtp
; File D:\git\src\IBK\IBK_DRFN\ProjSrc\SrcChartEx\ChartOCX\KTBChart\KTBChartMouse.cpp
; File C:\Program Files (x86)\Microsoft Visual Studio\2019\Community\VC\Tools\MSVC\14.29.30133\atlmfc\include\afxwin2.inl
; File D:\git\src\IBK\IBK_DRFN\ProjSrc\SrcChartEx\ChartOCX\KTBChart\KTBChartMouse.cpp
; File D:\git\src\IBK\IBK_DRFN\ProjSrc\SrcChartEx\ChartOCX\Include_Chart\Dll_Load\IMetaTable.h
; File C:\Program Files (x86)\Microsoft Visual Studio\2019\Community\VC\Tools\MSVC\14.29.30133\atlmfc\include\afxwin1.inl
; File D:\git\src\IBK\IBK_DRFN\ProjSrc\SrcChartEx\ChartOCX\Include_Chart\Dll_Load\IMetaTable.h
; File C:\Program Files (x86)\Microsoft Visual Studio\2019\Community\VC\Tools\MSVC\14.29.30133\atlmfc\include\afxwin1.inl
; File D:\git\src\IBK\IBK_DRFN\ProjSrc\SrcChartEx\ChartOCX\KTBChart\KTBChartMouse.cpp
; File C:\Program Files (x86)\Microsoft Visual Studio\2019\Community\VC\Tools\MSVC\14.29.30133\atlmfc\include\afxwin1.inl
; File D:\git\src\IBK\IBK_DRFN\ProjSrc\SrcChartEx\ChartOCX\KTBChart\KTBChartMouse.cpp
; File C:\Program Files (x86)\Microsoft Visual Studio\2019\Community\VC\Tools\MSVC\14.29.30133\atlmfc\include\afxwin1.inl
; File D:\git\src\IBK\IBK_DRFN\ProjSrc\SrcChartEx\ChartOCX\KTBChart\KTBChartMouse.cpp
; File C:\Program Files (x86)\Microsoft Visual Studio\2019\Community\VC\Tools\MSVC\14.29.30133\atlmfc\include\afxwin1.inl
; File D:\git\src\IBK\IBK_DRFN\ProjSrc\SrcChartEx\ChartOCX\KTBChart\KTBChartMouse.cpp
; File C:\Program Files (x86)\Microsoft Visual Studio\2019\Community\VC\Tools\MSVC\14.29.30133\atlmfc\include\afxwin1.inl
; File D:\git\src\IBK\IBK_DRFN\ProjSrc\SrcChartEx\ChartOCX\KTBChart\KTBChartMouse.cpp
; File C:\Program Files (x86)\Microsoft Visual Studio\2019\Community\VC\Tools\MSVC\14.29.30133\atlmfc\include\afxwin1.inl
; File D:\git\src\IBK\IBK_DRFN\ProjSrc\SrcChartEx\ChartOCX\KTBChart\KTBChartMouse.cpp
; File C:\Program Files (x86)\Microsoft Visual Studio\2019\Community\VC\Tools\MSVC\14.29.30133\atlmfc\include\afxwin1.inl
; File D:\git\src\IBK\IBK_DRFN\ProjSrc\SrcChartEx\ChartOCX\KTBChart\KTBChartMouse.cpp
; File C:\Program Files (x86)\Microsoft Visual Studio\2019\Community\VC\Tools\MSVC\14.29.30133\atlmfc\include\afxwin1.inl
; File D:\git\src\IBK\IBK_DRFN\ProjSrc\SrcChartEx\ChartOCX\KTBChart\KTBChartMouse.cpp
; File C:\Program Files (x86)\Microsoft Visual Studio\2019\Community\VC\Tools\MSVC\14.29.30133\atlmfc\include\afxwin1.inl
; File D:\git\src\IBK\IBK_DRFN\ProjSrc\SrcChartEx\ChartOCX\KTBChart\KTBChartMouse.cpp
; File C:\Program Files (x86)\Microsoft Visual Studio\2019\Community\VC\Tools\MSVC\14.29.30133\atlmfc\include\afxwin1.inl
; File D:\git\src\IBK\IBK_DRFN\ProjSrc\SrcChartEx\ChartOCX\KTBChart\KTBChartMouse.cpp
; File C:\Program Files (x86)\Microsoft Visual Studio\2019\Community\VC\Tools\MSVC\14.29.30133\atlmfc\include\afxwin1.inl
; File D:\git\src\IBK\IBK_DRFN\ProjSrc\SrcChartEx\ChartOCX\KTBChart\KTBChartMouse.cpp
; File C:\Program Files (x86)\Microsoft Visual Studio\2019\Community\VC\Tools\MSVC\14.29.30133\atlmfc\include\afxwin1.inl
; File D:\git\src\IBK\IBK_DRFN\ProjSrc\SrcChartEx\ChartOCX\KTBChart\KTBChartMouse.cpp
; File C:\Program Files (x86)\Microsoft Visual Studio\2019\Community\VC\Tools\MSVC\14.29.30133\atlmfc\include\afxwin2.inl
; File D:\git\src\IBK\IBK_DRFN\ProjSrc\SrcChartEx\ChartOCX\KTBChart\KTBChartMouse.cpp
; File C:\Program Files (x86)\Microsoft Visual Studio\2019\Community\VC\Tools\MSVC\14.29.30133\atlmfc\include\afxwin1.inl
; File D:\git\src\IBK\IBK_DRFN\ProjSrc\SrcChartEx\ChartOCX\KTBChart\KTBChartMouse.cpp
; File C:\Program Files (x86)\Microsoft Visual Studio\2019\Community\VC\Tools\MSVC\14.29.30133\atlmfc\include\afxwin1.inl
; File D:\git\src\IBK\IBK_DRFN\ProjSrc\SrcChartEx\ChartOCX\KTBChart\KTBChartMouse.cpp
; File C:\Program Files (x86)\Microsoft Visual Studio\2019\Community\VC\Tools\MSVC\14.29.30133\atlmfc\include\afxwin2.inl
; File D:\git\src\IBK\IBK_DRFN\ProjSrc\SrcChartEx\ChartOCX\KTBChart\KTBChartMouse.cpp
; File C:\Program Files (x86)\Microsoft Visual Studio\2019\Community\VC\Tools\MSVC\14.29.30133\atlmfc\include\afxwin1.inl
; File D:\git\src\IBK\IBK_DRFN\ProjSrc\SrcChartEx\ChartOCX\KTBChart\KTBChartMouse.cpp
; File C:\Program Files (x86)\Microsoft Visual Studio\2019\Community\VC\Tools\MSVC\14.29.30133\atlmfc\include\afxwin1.inl
; File D:\git\src\IBK\IBK_DRFN\ProjSrc\SrcChartEx\ChartOCX\KTBChart\KTBChartMouse.cpp
; File C:\Program Files (x86)\Microsoft Visual Studio\2019\Community\VC\Tools\MSVC\14.29.30133\atlmfc\include\afxwin1.inl
; File D:\git\src\IBK\IBK_DRFN\ProjSrc\SrcChartEx\ChartOCX\KTBChart\KTBChartMouse.cpp
; File C:\Program Files (x86)\Microsoft Visual Studio\2019\Community\VC\Tools\MSVC\14.29.30133\atlmfc\include\afxwin2.inl
; File D:\git\src\IBK\IBK_DRFN\ProjSrc\SrcChartEx\ChartOCX\KTBChart\KTBChartMouse.cpp
; File C:\Program Files (x86)\Microsoft Visual Studio\2019\Community\VC\Tools\MSVC\14.29.30133\atlmfc\include\afxwin1.inl
; File D:\git\src\IBK\IBK_DRFN\ProjSrc\SrcChartEx\ChartOCX\KTBChart\KTBChartMouse.cpp
; File C:\Program Files (x86)\Microsoft Visual Studio\2019\Community\VC\Tools\MSVC\14.29.30133\atlmfc\include\afxwin1.inl
; File D:\git\src\IBK\IBK_DRFN\ProjSrc\SrcChartEx\ChartOCX\KTBChart\KTBChartMouse.cpp
; File C:\Program Files (x86)\Microsoft Visual Studio\2019\Community\VC\Tools\MSVC\14.29.30133\atlmfc\include\afxwin2.inl
; File D:\git\src\IBK\IBK_DRFN\ProjSrc\SrcChartEx\ChartOCX\KTBChart\KTBChartMouse.cpp
; File C:\Program Files (x86)\Microsoft Visual Studio\2019\Community\VC\Tools\MSVC\14.29.30133\atlmfc\include\afxwin2.inl
; File D:\git\src\IBK\IBK_DRFN\ProjSrc\SrcChartEx\ChartOCX\KTBChart\KTBChartMouse.cpp
; File C:\Program Files (x86)\Microsoft Visual Studio\2019\Community\VC\Tools\MSVC\14.29.30133\atlmfc\include\afxwin1.inl
; File D:\git\src\IBK\IBK_DRFN\ProjSrc\SrcChartEx\ChartOCX\KTBChart\KTBChartMouse.cpp
; File C:\Program Files (x86)\Microsoft Visual Studio\2019\Community\VC\Tools\MSVC\14.29.30133\atlmfc\include\afxwin1.inl
; File D:\git\src\IBK\IBK_DRFN\ProjSrc\SrcChartEx\ChartOCX\KTBChart\KTBChartMouse.cpp
; File C:\Program Files (x86)\Microsoft Visual Studio\2019\Community\VC\Tools\MSVC\14.29.30133\atlmfc\include\cstringt.h
; File D:\git\src\IBK\IBK_DRFN\ProjSrc\SrcChartEx\ChartOCX\KTBChart\KTBChartMouse.cpp
; File C:\Program Files (x86)\Microsoft Visual Studio\2019\Community\VC\Tools\MSVC\14.29.30133\atlmfc\include\cstringt.h
; File D:\git\src\IBK\IBK_DRFN\ProjSrc\SrcChartEx\ChartOCX\KTBChart\KTBChartMouse.cpp
; File C:\Program Files (x86)\Microsoft Visual Studio\2019\Community\VC\Tools\MSVC\14.29.30133\atlmfc\include\afxwin1.inl
; File D:\git\src\IBK\IBK_DRFN\ProjSrc\SrcChartEx\ChartOCX\KTBChart\KTBChartMouse.cpp
; File C:\Program Files (x86)\Microsoft Visual Studio\2019\Community\VC\Tools\MSVC\14.29.30133\atlmfc\include\afxwin1.inl
; File D:\git\src\IBK\IBK_DRFN\ProjSrc\SrcChartEx\ChartOCX\KTBChart\KTBChartMouse.cpp
; File C:\Program Files (x86)\Microsoft Visual Studio\2019\Community\VC\Tools\MSVC\14.29.30133\atlmfc\include\afxwin1.inl
; File D:\git\src\IBK\IBK_DRFN\ProjSrc\SrcChartEx\ChartOCX\KTBChart\KTBChartMouse.cpp
; File C:\Program Files (x86)\Microsoft Visual Studio\2019\Community\VC\Tools\MSVC\14.29.30133\atlmfc\include\afxwin1.inl
; File D:\git\src\IBK\IBK_DRFN\ProjSrc\SrcChartEx\ChartOCX\KTBChart\KTBChartMouse.cpp
; File C:\Program Files (x86)\Microsoft Visual Studio\2019\Community\VC\Tools\MSVC\14.29.30133\atlmfc\include\afxwin1.inl
; File D:\git\src\IBK\IBK_DRFN\ProjSrc\SrcChartEx\ChartOCX\KTBChart\KTBChartMouse.cpp
; File C:\Program Files (x86)\Microsoft Visual Studio\2019\Community\VC\Tools\MSVC\14.29.30133\atlmfc\include\afxwin1.inl
; File D:\git\src\IBK\IBK_DRFN\ProjSrc\SrcChartEx\ChartOCX\KTBChart\KTBChartMouse.cpp
; File C:\Program Files (x86)\Microsoft Visual Studio\2019\Community\VC\Tools\MSVC\14.29.30133\atlmfc\include\afxwin1.inl
; File D:\git\src\IBK\IBK_DRFN\ProjSrc\SrcChartEx\ChartOCX\KTBChart\KTBChartMouse.cpp
; File C:\Program Files (x86)\Microsoft Visual Studio\2019\Community\VC\Tools\MSVC\14.29.30133\atlmfc\include\afxwin1.inl
; File D:\git\src\IBK\IBK_DRFN\ProjSrc\SrcChartEx\ChartOCX\KTBChart\KTBChartMouse.cpp
; File C:\Program Files (x86)\Microsoft Visual Studio\2019\Community\VC\Tools\MSVC\14.29.30133\atlmfc\include\afxwin2.inl
; File D:\git\src\IBK\IBK_DRFN\ProjSrc\SrcChartEx\ChartOCX\KTBChart\KTBChartMouse.cpp
; File C:\Program Files (x86)\Microsoft Visual Studio\2019\Community\VC\Tools\MSVC\14.29.30133\atlmfc\include\afxwin2.inl
; File C:\Program Files (x86)\Microsoft Visual Studio\2019\Community\VC\Tools\MSVC\14.29.30133\atlmfc\include\afxwin1.inl
; File D:\git\src\IBK\IBK_DRFN\ProjSrc\SrcChartEx\ChartOCX\KTBChart\KTBChartMouse.cpp
; File C:\Program Files (x86)\Microsoft Visual Studio\2019\Community\VC\Tools\MSVC\14.29.30133\atlmfc\include\afxwin1.inl
; File D:\git\src\IBK\IBK_DRFN\ProjSrc\SrcChartEx\ChartOCX\Include_Chart\Dll_Load\IMetaTable.h
; File C:\Program Files (x86)\Microsoft Visual Studio\2019\Community\VC\Tools\MSVC\14.29.30133\atlmfc\include\afxwin1.inl
; File D:\git\src\IBK\IBK_DRFN\ProjSrc\SrcChartEx\ChartOCX\KTBChart\KTBChartMouse.cpp
; File C:\Program Files (x86)\Microsoft Visual Studio\2019\Community\VC\Tools\MSVC\14.29.30133\atlmfc\include\afxwin1.inl
; File D:\git\src\IBK\IBK_DRFN\ProjSrc\SrcChartEx\ChartOCX\KTBChart\KTBChartMouse.cpp
; File C:\Program Files (x86)\Microsoft Visual Studio\2019\Community\VC\Tools\MSVC\14.29.30133\atlmfc\include\afxwin1.inl
; File D:\git\src\IBK\IBK_DRFN\ProjSrc\SrcChartEx\ChartOCX\KTBChart\KTBChartMouse.cpp
; File C:\Program Files (x86)\Microsoft Visual Studio\2019\Community\VC\Tools\MSVC\14.29.30133\atlmfc\include\afxwin1.inl
; File D:\git\src\IBK\IBK_DRFN\ProjSrc\SrcChartEx\ChartOCX\KTBChart\KTBChartMouse.cpp
;	COMDAT ?OnRButtonUpProc@CKTBChartCtrl@@IAEHIVCPoint@@@Z
_TEXT	SEGMENT
_mii$2 = -172						; size = 48
___mlrs__$3 = -124					; size = 4
_cmdUI$4 = -120						; size = 40
_dcClient$5 = -80					; size = 20
_pPopup$1$ = -60					; size = 4
_i$1$ = -56						; size = 4
___mlrs__$1$ = -52					; size = 4
$T6 = -48						; size = 8
_nMenuID$1$ = -44					; size = 4
_nMenuVolumeAmount$1$ = -44				; size = 4
_nMenuMarket$1$ = -44					; size = 4
_this$1$ = -40						; size = 4
_Context$7 = -36					; size = 8
_pMenuMarket$1$ = -28					; size = 4
_strMenuName$8 = -28					; size = 4
$T9 = -24						; size = 4
_strAddIndicator$10 = -24				; size = 4
_strMenuString$11 = -24					; size = 4
_strChangeSpecialChart$12 = -20				; size = 4
_strAddIndicator$13 = -20				; size = 4
$T14 = -20						; size = 4
tv1007 = -16						; size = 4
tv1003 = -16						; size = 4
__$EHRec$ = -12						; size = 12
_p1$1$ = 8						; size = 4
$T15 = 8						; size = 4
_nMenuCount$1$ = 8					; size = 4
_pMenuETC$1$ = 8					; size = 4
_pMenuAddIndicator$1$ = 8				; size = 4
_nFlags$ = 8						; size = 4
$T16 = 11						; size = 1
_point$ = 12						; size = 8
?OnRButtonUpProc@CKTBChartCtrl@@IAEHIVCPoint@@@Z PROC	; CKTBChartCtrl::OnRButtonUpProc, COMDAT
; _this$ = ecx

; 420  : {

  00000	55		 push	 ebp
  00001	8b ec		 mov	 ebp, esp
  00003	6a ff		 push	 -1
  00005	68 00 00 00 00	 push	 __ehhandler$?OnRButtonUpProc@CKTBChartCtrl@@IAEHIVCPoint@@@Z
  0000a	64 a1 00 00 00
	00		 mov	 eax, DWORD PTR fs:0
  00010	50		 push	 eax
  00011	81 ec a0 00 00
	00		 sub	 esp, 160		; 000000a0H
  00017	53		 push	 ebx
  00018	56		 push	 esi
  00019	57		 push	 edi
  0001a	a1 00 00 00 00	 mov	 eax, DWORD PTR ___security_cookie
  0001f	33 c5		 xor	 eax, ebp
  00021	50		 push	 eax
  00022	8d 45 f4	 lea	 eax, DWORD PTR __$EHRec$[ebp]
  00025	64 a3 00 00 00
	00		 mov	 DWORD PTR fs:0, eax
  0002b	8b f9		 mov	 edi, ecx
  0002d	89 7d d8	 mov	 DWORD PTR _this$1$[ebp], edi
  00030	33 db		 xor	 ebx, ebx
  00032	89 5d e8	 mov	 DWORD PTR $T9[ebp], ebx

; 421  : 	if( !m_pMainBlock) return FALSE;

  00035	39 9f 34 03 00
	00		 cmp	 DWORD PTR [edi+820], ebx
  0003b	74 78		 je	 SHORT $LN232@OnRButtonU

; 422  : 
; 423  : 	// cursor 
; 424  : 	// (2006/3/23 - Seung-Won, Bae) Do not call OnCursorExchange() directlry. If you do that, WM_CONTEXTMENU will be occur.
; 425  : 	if(IsRunTimeMode()) SendMessage( UM_CURSOR_EXCHANGE, ( WPARAM)CCursorShape::OBJECT_NONE, NULL);

  0003d	e8 00 00 00 00	 call	 ?IsRunTimeMode@CKTBChartCtrl@@ABEHXZ ; CKTBChartCtrl::IsRunTimeMode
  00042	85 c0		 test	 eax, eax
  00044	74 10		 je	 SHORT $LN18@OnRButtonU
; File C:\Program Files (x86)\Microsoft Visual Studio\2019\Community\VC\Tools\MSVC\14.29.30133\atlmfc\include\afxwin2.inl

; 32   : 	{ ASSERT(::IsWindow(m_hWnd)); return ::SendMessage(m_hWnd, message, wParam, lParam); }

  00046	53		 push	 ebx
  00047	53		 push	 ebx
  00048	68 09 06 00 00	 push	 1545			; 00000609H
  0004d	ff 77 20	 push	 DWORD PTR [edi+32]
  00050	ff 15 00 00 00
	00		 call	 DWORD PTR __imp__SendMessageA@16
$LN18@OnRButtonU:
; File D:\git\src\IBK\IBK_DRFN\ProjSrc\SrcChartEx\ChartOCX\KTBChart\KTBChartMouse.cpp

; 428  : 	if( m_pAddInManager)

  00056	39 9f cc 04 00
	00		 cmp	 DWORD PTR [edi+1228], ebx
  0005c	74 7c		 je	 SHORT $LN19@OnRButtonU

; 429  : 	{
; 430  : 		// Caution! Use Client DC for MsgLoop like TrackPopupMenu()
; 431  : 		//		if GetDC(), The DC Instance can be destroyed. (You may lost the Handle of DC)
; 432  : 		CClientDC dcClient( this);

  0005e	57		 push	 edi
  0005f	8d 4d b0	 lea	 ecx, DWORD PTR _dcClient$5[ebp]
  00062	e8 00 00 00 00	 call	 ??0CClientDC@@QAE@PAVCWnd@@@Z ; CClientDC::CClientDC

; 433  : 		CFont *pOldFont = dcClient.SelectObject( m_pRscFont);

  00067	ff b7 b4 04 00
	00		 push	 DWORD PTR [edi+1204]
  0006d	8d 4d b0	 lea	 ecx, DWORD PTR _dcClient$5[ebp]
  00070	c7 45 fc 00 00
	00 00		 mov	 DWORD PTR __$EHRec$[ebp+8], 0
  00077	e8 00 00 00 00	 call	 ?SelectObject@CDC@@UAEPAVCFont@@PAV2@@Z ; CDC::SelectObject
  0007c	8b f8		 mov	 edi, eax

; 434  : 		BOOL bResult = m_pAddInManager->OnRButtonUp( &dcClient, nFlags, point, m_dwMouseActionID);

  0007e	8d 4d 0c	 lea	 ecx, DWORD PTR _point$[ebp]
  00081	8b 45 d8	 mov	 eax, DWORD PTR _this$1$[ebp]
  00084	ff b0 f0 04 00
	00		 push	 DWORD PTR [eax+1264]
  0008a	51		 push	 ecx
  0008b	ff 75 08	 push	 DWORD PTR _nFlags$[ebp]
  0008e	8d 4d b0	 lea	 ecx, DWORD PTR _dcClient$5[ebp]
  00091	51		 push	 ecx
  00092	8b 88 cc 04 00
	00		 mov	 ecx, DWORD PTR [eax+1228]
  00098	ff 15 00 00 00
	00		 call	 DWORD PTR __imp_?OnRButtonUp@CAddInManager@@QAEHPAVCDC@@IAAVCPoint@@K@Z

; 435  : 		dcClient.SelectObject( pOldFont);

  0009e	57		 push	 edi
  0009f	8d 4d b0	 lea	 ecx, DWORD PTR _dcClient$5[ebp]
  000a2	8b f0		 mov	 esi, eax
  000a4	e8 00 00 00 00	 call	 ?SelectObject@CDC@@UAEPAVCFont@@PAV2@@Z ; CDC::SelectObject

; 436  : 		if( bResult) return FALSE;	// (2006/10/30 - Seung-Won, Bae) to deny Context Menu.

  000a9	8d 4d b0	 lea	 ecx, DWORD PTR _dcClient$5[ebp]
  000ac	85 f6		 test	 esi, esi
  000ae	74 1b		 je	 SHORT $LN20@OnRButtonU
  000b0	e8 00 00 00 00	 call	 ??1CClientDC@@UAE@XZ	; CClientDC::~CClientDC
$LN232@OnRButtonU:

; 643  : }

  000b5	33 c0		 xor	 eax, eax
  000b7	8b 4d f4	 mov	 ecx, DWORD PTR __$EHRec$[ebp]
  000ba	64 89 0d 00 00
	00 00		 mov	 DWORD PTR fs:0, ecx
  000c1	59		 pop	 ecx
  000c2	5f		 pop	 edi
  000c3	5e		 pop	 esi
  000c4	5b		 pop	 ebx
  000c5	8b e5		 mov	 esp, ebp
  000c7	5d		 pop	 ebp
  000c8	c2 0c 00	 ret	 12			; 0000000cH
$LN20@OnRButtonU:

; 437  : 	}

  000cb	c7 45 fc ff ff
	ff ff		 mov	 DWORD PTR __$EHRec$[ebp+8], -1
  000d2	e8 00 00 00 00	 call	 ??1CClientDC@@UAE@XZ	; CClientDC::~CClientDC
  000d7	8b 7d d8	 mov	 edi, DWORD PTR _this$1$[ebp]
$LN19@OnRButtonU:

; 438  : 
; 439  : 	if( IsRunTimeMode())

  000da	8b cf		 mov	 ecx, edi
  000dc	e8 00 00 00 00	 call	 ?IsRunTimeMode@CKTBChartCtrl@@ABEHXZ ; CKTBChartCtrl::IsRunTimeMode
  000e1	b9 01 00 00 00	 mov	 ecx, 1
  000e6	85 c0		 test	 eax, eax
  000e8	0f 84 2b 07 00
	00		 je	 $LN201@OnRButtonU

; 441  : 		ML_SET_LANGUAGE_RES();

  000ee	e8 00 00 00 00	 call	 ?AfxGetStaticModuleState@@YGPAVAFX_MODULE_STATE@@XZ ; AfxGetStaticModuleState
  000f3	8b 8f c0 05 00
	00		 mov	 ecx, DWORD PTR [edi+1472]
  000f9	89 4d 08	 mov	 DWORD PTR _p1$1$[ebp], ecx
  000fc	8b 70 08	 mov	 esi, DWORD PTR [eax+8]
; File D:\git\src\IBK\IBK_DRFN\ProjSrc\SrcChartEx\ChartOCX\Include_Chart\Dll_Load\IMetaTable.h

; 936  : 	DECLARE_FUNCTION2(	LoadResourceDLL,				HMODULE, AfxGetStaticModuleState()->m_hCurrentInstanceHandle, HWND, HMODULE);

  000ff	a1 04 00 00 00	 mov	 eax, DWORD PTR ?g_iMetaTable@@3VIMetaTable@@A+4
  00104	85 c0		 test	 eax, eax
  00106	74 4c		 je	 SHORT $LN83@OnRButtonU
  00108	ba 80 0d 00 00	 mov	 edx, 3456		; 00000d80H
  0010d	66 3b 15 94 00
	00 00		 cmp	 dx, WORD PTR ?g_iMetaTable@@3VIMetaTable@@A+148
  00114	74 2c		 je	 SHORT $LN224@OnRButtonU
  00116	68 00 00 00 00	 push	 OFFSET ??_C@_0BA@ENJOCHIO@LoadResourceDLL@
  0011b	50		 push	 eax
  0011c	c7 05 90 00 00
	00 00 00 00 00	 mov	 DWORD PTR ?g_iMetaTable@@3VIMetaTable@@A+144, 0
  00126	ff 15 00 00 00
	00		 call	 DWORD PTR __imp__GetProcAddress@8
  0012c	b9 80 0d 00 00	 mov	 ecx, 3456		; 00000d80H
  00131	a3 90 00 00 00	 mov	 DWORD PTR ?g_iMetaTable@@3VIMetaTable@@A+144, eax
  00136	66 89 0d 94 00
	00 00		 mov	 WORD PTR ?g_iMetaTable@@3VIMetaTable@@A+148, cx
  0013d	8b 4d 08	 mov	 ecx, DWORD PTR _p1$1$[ebp]
  00140	eb 05		 jmp	 SHORT $LN82@OnRButtonU
$LN224@OnRButtonU:
  00142	a1 90 00 00 00	 mov	 eax, DWORD PTR ?g_iMetaTable@@3VIMetaTable@@A+144
$LN82@OnRButtonU:
  00147	85 c0		 test	 eax, eax
  00149	74 09		 je	 SHORT $LN83@OnRButtonU
  0014b	56		 push	 esi
  0014c	51		 push	 ecx
  0014d	ff d0		 call	 eax
  0014f	83 c4 08	 add	 esp, 8
  00152	eb 08		 jmp	 SHORT $LN227@OnRButtonU
$LN83@OnRButtonU:
  00154	e8 00 00 00 00	 call	 ?AfxGetStaticModuleState@@YGPAVAFX_MODULE_STATE@@XZ ; AfxGetStaticModuleState
  00159	8b 40 08	 mov	 eax, DWORD PTR [eax+8]
$LN227@OnRButtonU:
; File C:\Program Files (x86)\Microsoft Visual Studio\2019\Community\VC\Tools\MSVC\14.29.30133\atlmfc\include\afxwin1.inl

; 25   : 		return afxCurrentResourceHandle; }

  0015c	89 45 08	 mov	 DWORD PTR $T15[ebp], eax
  0015f	e8 00 00 00 00	 call	 ?AfxGetModuleState@@YGPAVAFX_MODULE_STATE@@XZ ; AfxGetModuleState
; File D:\git\src\IBK\IBK_DRFN\ProjSrc\SrcChartEx\ChartOCX\Include_Chart\Dll_Load\IMetaTable.h

; 1032 : 		m_hInstance = AfxGetResourceHandle();

  00164	8b 70 0c	 mov	 esi, DWORD PTR [eax+12]
  00167	89 75 cc	 mov	 DWORD PTR ___mlrs__$1$[ebp], esi
  0016a	89 75 84	 mov	 DWORD PTR ___mlrs__$3[ebp], esi
; File C:\Program Files (x86)\Microsoft Visual Studio\2019\Community\VC\Tools\MSVC\14.29.30133\atlmfc\include\afxwin1.inl

; 27   : 	{ ASSERT(hInstResource != NULL); afxCurrentResourceHandle = hInstResource; }

  0016d	e8 00 00 00 00	 call	 ?AfxGetModuleState@@YGPAVAFX_MODULE_STATE@@XZ ; AfxGetModuleState
  00172	8b 4d 08	 mov	 ecx, DWORD PTR $T15[ebp]
  00175	89 48 0c	 mov	 DWORD PTR [eax+12], ecx
; File D:\git\src\IBK\IBK_DRFN\ProjSrc\SrcChartEx\ChartOCX\KTBChart\KTBChartMouse.cpp

; 441  : 		ML_SET_LANGUAGE_RES();

  00178	c7 45 fc 01 00
	00 00		 mov	 DWORD PTR __$EHRec$[ebp+8], 1
; File C:\Program Files (x86)\Microsoft Visual Studio\2019\Community\VC\Tools\MSVC\14.29.30133\atlmfc\include\afxwin1.inl

; 903  : 	{ m_hMenu = NULL; }

  0017f	c7 45 dc 00 00
	00 00		 mov	 DWORD PTR _Context$7[ebp], OFFSET ??_7CMenu@@6B@
  00186	c7 45 e0 00 00
	00 00		 mov	 DWORD PTR _Context$7[ebp+4], 0
; File D:\git\src\IBK\IBK_DRFN\ProjSrc\SrcChartEx\ChartOCX\KTBChart\KTBChartMouse.cpp

; 446  : 		if( m_bAddGraphMenuShow)

  0018d	83 bf 64 02 00
	00 00		 cmp	 DWORD PTR [edi+612], 0
  00194	c6 45 fc 02	 mov	 BYTE PTR __$EHRec$[ebp+8], 2
  00198	0f 84 d1 03 00
	00		 je	 $LN22@OnRButtonU

; 447  : 		{
; 448  : 			// (2006/4/14 - Seung-Won, Bae) Show Special Indicator Ending Menu.
; 449  : 			if( IsRunningOneChart())

  0019e	8b 07		 mov	 eax, DWORD PTR [edi]
  001a0	8b cf		 mov	 ecx, edi
  001a2	ff 90 a8 02 00
	00		 call	 DWORD PTR [eax+680]
  001a8	85 c0		 test	 eax, eax
  001aa	74 5b		 je	 SHORT $LN24@OnRButtonU

; 450  : 			{
; 451  : 				// (2009/9/2 - Seung-Won, Bae) Support Chart Mode. (for HTS/FX/WorldOn)
; 452  : 				switch( m_nChartMode)

  001ac	0f bf 87 18 02
	00 00		 movsx	 eax, WORD PTR [edi+536]
  001b3	83 f8 03	 cmp	 eax, 3
  001b6	0f 87 36 06 00
	00		 ja	 $LN50@OnRButtonU
  001bc	ff 24 85 00 00
	00 00		 jmp	 DWORD PTR $LN222@OnRButtonU[eax*4]
$LN26@OnRButtonU:
; File C:\Program Files (x86)\Microsoft Visual Studio\2019\Community\VC\Tools\MSVC\14.29.30133\atlmfc\include\afxwin1.inl

; 977  : 	{ return Attach(::LoadMenuW(AfxFindResourceHandle(

  001c3	68 f5 00 00 00	 push	 245			; 000000f5H
  001c8	6a 04		 push	 4
  001ca	68 f5 00 00 00	 push	 245			; 000000f5H
; File D:\git\src\IBK\IBK_DRFN\ProjSrc\SrcChartEx\ChartOCX\KTBChart\KTBChartMouse.cpp

; 455  : 												break;

  001cf	e9 a7 03 00 00	 jmp	 $LN228@OnRButtonU
$LN27@OnRButtonU:
; File C:\Program Files (x86)\Microsoft Visual Studio\2019\Community\VC\Tools\MSVC\14.29.30133\atlmfc\include\afxwin1.inl

; 977  : 	{ return Attach(::LoadMenuW(AfxFindResourceHandle(

  001d4	68 fb 00 00 00	 push	 251			; 000000fbH
  001d9	6a 04		 push	 4
  001db	68 fb 00 00 00	 push	 251			; 000000fbH
; File D:\git\src\IBK\IBK_DRFN\ProjSrc\SrcChartEx\ChartOCX\KTBChart\KTBChartMouse.cpp

; 457  : 												break;

  001e0	e9 96 03 00 00	 jmp	 $LN228@OnRButtonU
$LN28@OnRButtonU:
; File C:\Program Files (x86)\Microsoft Visual Studio\2019\Community\VC\Tools\MSVC\14.29.30133\atlmfc\include\afxwin1.inl

; 977  : 	{ return Attach(::LoadMenuW(AfxFindResourceHandle(

  001e5	68 fc 00 00 00	 push	 252			; 000000fcH
  001ea	6a 04		 push	 4
  001ec	68 fc 00 00 00	 push	 252			; 000000fcH
; File D:\git\src\IBK\IBK_DRFN\ProjSrc\SrcChartEx\ChartOCX\KTBChart\KTBChartMouse.cpp

; 459  : 												break;

  001f1	e9 85 03 00 00	 jmp	 $LN228@OnRButtonU
$LN29@OnRButtonU:
; File C:\Program Files (x86)\Microsoft Visual Studio\2019\Community\VC\Tools\MSVC\14.29.30133\atlmfc\include\afxwin1.inl

; 977  : 	{ return Attach(::LoadMenuW(AfxFindResourceHandle(

  001f6	68 fa 00 00 00	 push	 250			; 000000faH
  001fb	6a 04		 push	 4
  001fd	68 fa 00 00 00	 push	 250			; 000000faH
; File D:\git\src\IBK\IBK_DRFN\ProjSrc\SrcChartEx\ChartOCX\KTBChart\KTBChartMouse.cpp

; 464  : 			}

  00202	e9 74 03 00 00	 jmp	 $LN228@OnRButtonU
$LN24@OnRButtonU:

; 465  : 
; 466  : 			// (2004.05.25, ) Graph    ,
; 467  : 			//		Popup Menu  .
; 468  : 			// (2004.07.07. )  Graph      ,
; 469  : 			//		DLL Container   .
; 470  : 			//		( Map    Graph   .)
; 471  : 			else if( !( m_hContainerDllWnd && !m_pMainBlock->IsExistenceIndicator( _MTEXT( C2_PRICE_CHART))))

  00207	83 bf c0 04 00
	00 00		 cmp	 DWORD PTR [edi+1216], 0
  0020e	74 3a		 je	 SHORT $LN65@OnRButtonU
  00210	a1 54 00 00 00	 mov	 eax, DWORD PTR ?g_iMetaTable@@3VIMetaTable@@A+84
  00215	8d 4d ec	 lea	 ecx, DWORD PTR $T14[ebp]
  00218	ff b0 28 03 00
	00		 push	 DWORD PTR [eax+808]
  0021e	ff 15 00 00 00
	00		 call	 DWORD PTR __imp_??0?$CStringT@DV?$StrTraitMFC_DLL@DV?$ChTraitsCRT@D@ATL@@@@@ATL@@QAE@PBD@Z
  00224	8b 8f 34 03 00
	00		 mov	 ecx, DWORD PTR [edi+820]
  0022a	8d 55 ec	 lea	 edx, DWORD PTR $T14[ebp]
  0022d	bb 01 00 00 00	 mov	 ebx, 1
  00232	c6 45 fc 03	 mov	 BYTE PTR __$EHRec$[ebp+8], 3
  00236	52		 push	 edx
  00237	89 5d e8	 mov	 DWORD PTR $T9[ebp], ebx
  0023a	8b 01		 mov	 eax, DWORD PTR [ecx]
  0023c	ff 90 68 02 00
	00		 call	 DWORD PTR [eax+616]
  00242	c6 45 0b 00	 mov	 BYTE PTR $T16[ebp], 0
  00246	85 c0		 test	 eax, eax
  00248	74 04		 je	 SHORT $LN66@OnRButtonU
$LN65@OnRButtonU:
  0024a	c6 45 0b 01	 mov	 BYTE PTR $T16[ebp], 1
$LN66@OnRButtonU:
  0024e	c7 45 fc 02 00
	00 00		 mov	 DWORD PTR __$EHRec$[ebp+8], 2
  00255	f6 c3 01	 test	 bl, 1
  00258	74 09		 je	 SHORT $LN72@OnRButtonU
  0025a	8d 4d ec	 lea	 ecx, DWORD PTR $T14[ebp]
  0025d	ff 15 00 00 00
	00		 call	 DWORD PTR __imp_??1?$CStringT@DV?$StrTraitMFC_DLL@DV?$ChTraitsCRT@D@ATL@@@@@ATL@@QAE@XZ
$LN72@OnRButtonU:
  00263	80 7d 0b 00	 cmp	 BYTE PTR $T16[ebp], 0
  00267	0f 84 85 05 00
	00		 je	 $LN50@OnRButtonU

; 472  : 			{
; 473  : 				if(m_nRButtonMenuType == 0)

  0026d	66 83 bf b0 02
	00 00 00	 cmp	 WORD PTR [edi+688], 0
  00275	75 11		 jne	 SHORT $LN32@OnRButtonU
; File C:\Program Files (x86)\Microsoft Visual Studio\2019\Community\VC\Tools\MSVC\14.29.30133\atlmfc\include\afxwin1.inl

; 977  : 	{ return Attach(::LoadMenuW(AfxFindResourceHandle(

  00277	68 f2 00 00 00	 push	 242			; 000000f2H
  0027c	6a 04		 push	 4
  0027e	68 f2 00 00 00	 push	 242			; 000000f2H
; File D:\git\src\IBK\IBK_DRFN\ProjSrc\SrcChartEx\ChartOCX\KTBChart\KTBChartMouse.cpp

; 477  : 				}

  00283	e9 f3 02 00 00	 jmp	 $LN228@OnRButtonU
$LN32@OnRButtonU:

; 478  : 				else
; 479  : 				{ //
; 480  : 
; 481  : 					// (2009/9/2 - Seung-Won, Bae) Support Chart Mode. (for HTS/FX/WorldOn)
; 482  : 					switch( m_nChartMode)

  00288	0f bf 87 18 02
	00 00		 movsx	 eax, WORD PTR [edi+536]
  0028f	83 f8 03	 cmp	 eax, 3
  00292	0f 87 5a 05 00
	00		 ja	 $LN50@OnRButtonU
  00298	ff 24 85 00 00
	00 00		 jmp	 DWORD PTR $LN223@OnRButtonU[eax*4]
$LN35@OnRButtonU:
; File C:\Program Files (x86)\Microsoft Visual Studio\2019\Community\VC\Tools\MSVC\14.29.30133\atlmfc\include\afxwin1.inl

; 977  : 	{ return Attach(::LoadMenuW(AfxFindResourceHandle(

  0029f	68 f7 00 00 00	 push	 247			; 000000f7H
  002a4	6a 04		 push	 4
  002a6	68 f7 00 00 00	 push	 247			; 000000f7H
; File D:\git\src\IBK\IBK_DRFN\ProjSrc\SrcChartEx\ChartOCX\KTBChart\KTBChartMouse.cpp

; 485  : 													break;

  002ab	eb 28		 jmp	 SHORT $LN230@OnRButtonU
$LN36@OnRButtonU:
; File C:\Program Files (x86)\Microsoft Visual Studio\2019\Community\VC\Tools\MSVC\14.29.30133\atlmfc\include\afxwin1.inl

; 977  : 	{ return Attach(::LoadMenuW(AfxFindResourceHandle(

  002ad	68 f4 00 00 00	 push	 244			; 000000f4H
  002b2	6a 04		 push	 4
  002b4	68 f4 00 00 00	 push	 244			; 000000f4H
; File D:\git\src\IBK\IBK_DRFN\ProjSrc\SrcChartEx\ChartOCX\KTBChart\KTBChartMouse.cpp

; 487  : 													break;

  002b9	eb 1a		 jmp	 SHORT $LN230@OnRButtonU
$LN37@OnRButtonU:
; File C:\Program Files (x86)\Microsoft Visual Studio\2019\Community\VC\Tools\MSVC\14.29.30133\atlmfc\include\afxwin1.inl

; 977  : 	{ return Attach(::LoadMenuW(AfxFindResourceHandle(

  002bb	68 f8 00 00 00	 push	 248			; 000000f8H
  002c0	6a 04		 push	 4
  002c2	68 f8 00 00 00	 push	 248			; 000000f8H
; File D:\git\src\IBK\IBK_DRFN\ProjSrc\SrcChartEx\ChartOCX\KTBChart\KTBChartMouse.cpp

; 489  : 													break;

  002c7	eb 0c		 jmp	 SHORT $LN230@OnRButtonU
$LN38@OnRButtonU:
; File C:\Program Files (x86)\Microsoft Visual Studio\2019\Community\VC\Tools\MSVC\14.29.30133\atlmfc\include\afxwin1.inl

; 977  : 	{ return Attach(::LoadMenuW(AfxFindResourceHandle(

  002c9	68 f9 00 00 00	 push	 249			; 000000f9H
  002ce	6a 04		 push	 4
  002d0	68 f9 00 00 00	 push	 249			; 000000f9H
$LN230@OnRButtonU:
; File D:\git\src\IBK\IBK_DRFN\ProjSrc\SrcChartEx\ChartOCX\KTBChart\KTBChartMouse.cpp

; 494  : 					if(bResult)

  002d5	e8 00 00 00 00	 call	 ?AfxFindResourceHandle@@YGPAUHINSTANCE__@@PBD0@Z ; AfxFindResourceHandle
  002da	50		 push	 eax
  002db	ff 15 00 00 00
	00		 call	 DWORD PTR __imp__LoadMenuW@8
  002e1	50		 push	 eax
  002e2	8d 4d dc	 lea	 ecx, DWORD PTR _Context$7[ebp]
  002e5	e8 00 00 00 00	 call	 ?Attach@CMenu@@QAEHPAUHMENU__@@@Z ; CMenu::Attach
  002ea	85 c0		 test	 eax, eax
  002ec	0f 84 00 05 00
	00		 je	 $LN50@OnRButtonU
; File C:\Program Files (x86)\Microsoft Visual Studio\2019\Community\VC\Tools\MSVC\14.29.30133\atlmfc\include\afxwin1.inl

; 951  : 	{ ASSERT(::IsMenu(m_hMenu)); return CMenu::FromHandle(::GetSubMenu(m_hMenu, nPos)); }

  002f2	6a 00		 push	 0
  002f4	ff 75 e0	 push	 DWORD PTR _Context$7[ebp+4]
  002f7	ff 15 00 00 00
	00		 call	 DWORD PTR __imp__GetSubMenu@8
  002fd	50		 push	 eax
  002fe	e8 00 00 00 00	 call	 ?FromHandle@CMenu@@SGPAV1@PAUHMENU__@@@Z ; CMenu::FromHandle
; File D:\git\src\IBK\IBK_DRFN\ProjSrc\SrcChartEx\ChartOCX\KTBChart\KTBChartMouse.cpp

; 504  : 						if( m_pMainBlock) m_biReverseYScale_BlockIndex = m_pMainBlock->FindBlockIndex( point);

  00303	8b 8f 34 03 00
	00		 mov	 ecx, DWORD PTR [edi+820]
  00309	8b d8		 mov	 ebx, eax
  0030b	89 5d c4	 mov	 DWORD PTR _pPopup$1$[ebp], ebx
  0030e	c6 87 d0 04 00
	00 00		 mov	 BYTE PTR [edi+1232], 0
  00315	c7 87 d4 04 00
	00 ff ff ff ff	 mov	 DWORD PTR [edi+1236], -1
  0031f	c7 87 d8 04 00
	00 ff ff ff ff	 mov	 DWORD PTR [edi+1240], -1
  00329	85 c9		 test	 ecx, ecx
  0032b	74 1e		 je	 SHORT $LN40@OnRButtonU
  0032d	8b 01		 mov	 eax, DWORD PTR [ecx]
  0032f	8d 55 0c	 lea	 edx, DWORD PTR _point$[ebp]
  00332	52		 push	 edx
  00333	8d 55 d0	 lea	 edx, DWORD PTR $T6[ebp]
  00336	52		 push	 edx
  00337	ff 50 04	 call	 DWORD PTR [eax+4]
  0033a	8b 08		 mov	 ecx, DWORD PTR [eax]
  0033c	8b 40 04	 mov	 eax, DWORD PTR [eax+4]
  0033f	89 8f d4 04 00
	00		 mov	 DWORD PTR [edi+1236], ecx
  00345	89 87 d8 04 00
	00		 mov	 DWORD PTR [edi+1240], eax
$LN40@OnRButtonU:
; File C:\Program Files (x86)\Microsoft Visual Studio\2019\Community\VC\Tools\MSVC\14.29.30133\atlmfc\include\afxwin2.inl

; 213  : 	{ ASSERT(::IsWindow(m_hWnd)); return CWnd::FromHandle(::GetParent(m_hWnd)); }

  0034b	ff 77 20	 push	 DWORD PTR [edi+32]
  0034e	ff 15 00 00 00
	00		 call	 DWORD PTR __imp__GetParent@4
  00354	50		 push	 eax
  00355	e8 00 00 00 00	 call	 ?FromHandle@CWnd@@SGPAV1@PAUHWND__@@@Z ; CWnd::FromHandle
; File D:\git\src\IBK\IBK_DRFN\ProjSrc\SrcChartEx\ChartOCX\KTBChart\KTBChartMouse.cpp

; 509  : 						if( pWnd) pWnd->SendMessage( RMSG_ADD_PLATFORM_MENU, 0, ( long)pPopup->GetSafeHmenu());

  0035a	85 c0		 test	 eax, eax
  0035c	0f 84 49 02 00
	00		 je	 $LN49@OnRButtonU
; File C:\Program Files (x86)\Microsoft Visual Studio\2019\Community\VC\Tools\MSVC\14.29.30133\atlmfc\include\afxwin1.inl

; 919  : 		return this == NULL ? NULL : m_hMenu; }

  00362	83 c0 20	 add	 eax, 32			; 00000020H
  00365	89 45 f0	 mov	 DWORD PTR tv1007[ebp], eax
  00368	85 db		 test	 ebx, ebx
  0036a	75 16		 jne	 SHORT $LN123@OnRButtonU
  0036c	53		 push	 ebx
  0036d	53		 push	 ebx
  0036e	ff 35 00 00 00
	00		 push	 DWORD PTR ?RMSG_ADD_PLATFORM_MENU@@3IB
  00374	ff 30		 push	 DWORD PTR [eax]
  00376	a1 00 00 00 00	 mov	 eax, DWORD PTR __imp__SendMessageA@16
  0037b	ff d0		 call	 eax
  0037d	e9 70 04 00 00	 jmp	 $LN50@OnRButtonU
$LN123@OnRButtonU:
  00382	ff 73 04	 push	 DWORD PTR [ebx+4]
  00385	6a 00		 push	 0
  00387	ff 35 00 00 00
	00		 push	 DWORD PTR ?RMSG_ADD_PLATFORM_MENU@@3IB
  0038d	ff 30		 push	 DWORD PTR [eax]
  0038f	a1 00 00 00 00	 mov	 eax, DWORD PTR __imp__SendMessageA@16
  00394	ff d0		 call	 eax
; File D:\git\src\IBK\IBK_DRFN\ProjSrc\SrcChartEx\ChartOCX\KTBChart\KTBChartMouse.cpp

; 512  : 						if( pWnd && pPopup && CChartInfo::HTS == m_nChartMode)

  00396	b8 01 00 00 00	 mov	 eax, 1
  0039b	66 3b 87 18 02
	00 00		 cmp	 ax, WORD PTR [edi+536]
  003a2	0f 85 0b 02 00
	00		 jne	 $LN221@OnRButtonU

; 513  : 						{
; 514  : 							CString strAddIndicator;

  003a8	8d 4d ec	 lea	 ecx, DWORD PTR _strAddIndicator$13[ebp]
  003ab	ff 15 00 00 00
	00		 call	 DWORD PTR __imp_??0?$CStringT@DV?$StrTraitMFC_DLL@DV?$ChTraitsCRT@D@ATL@@@@@ATL@@QAE@XZ

; 515  : 							strAddIndicator.LoadString( IDS_ADD_INDICATOR);

  003b1	68 79 9d 00 00	 push	 40313			; 00009d79H
  003b6	8d 4d ec	 lea	 ecx, DWORD PTR _strAddIndicator$13[ebp]
  003b9	c6 45 fc 04	 mov	 BYTE PTR __$EHRec$[ebp+8], 4
  003bd	ff 15 00 00 00
	00		 call	 DWORD PTR __imp_?LoadStringA@?$CStringT@DV?$StrTraitMFC_DLL@DV?$ChTraitsCRT@D@ATL@@@@@ATL@@QAEHI@Z

; 516  : 							CMenu *pMenuAddIndicator = GetSubMenu( pPopup, strAddIndicator);

  003c3	ff 75 ec	 push	 DWORD PTR _strAddIndicator$13[ebp]
  003c6	53		 push	 ebx
  003c7	e8 00 00 00 00	 call	 ?GetSubMenu@CKTBChartCtrl@@KAPAVCMenu@@PAV2@PBD@Z ; CKTBChartCtrl::GetSubMenu
  003cc	83 c4 08	 add	 esp, 8
  003cf	89 45 08	 mov	 DWORD PTR _pMenuAddIndicator$1$[ebp], eax

; 517  : 							if( pMenuAddIndicator)

  003d2	85 c0		 test	 eax, eax
  003d4	0f 84 8a 01 00
	00		 je	 $LN43@OnRButtonU

; 518  : 							{
; 519  : 								// Check Market Index Menu.
; 520  : 								CString strMenuString;

  003da	8d 4d e8	 lea	 ecx, DWORD PTR _strMenuString$11[ebp]
  003dd	ff 15 00 00 00
	00		 call	 DWORD PTR __imp_??0?$CStringT@DV?$StrTraitMFC_DLL@DV?$ChTraitsCRT@D@ATL@@@@@ATL@@QAE@XZ

; 521  : 								int nMenuMarket = GetSubMenuIndex( pMenuAddIndicator, _LTEXT7( C7_MARKET));

  003e3	8b 0d 54 00 00
	00		 mov	 ecx, DWORD PTR ?g_iMetaTable@@3VIMetaTable@@A+84
  003e9	6a 00		 push	 0
  003eb	c6 45 fc 05	 mov	 BYTE PTR __$EHRec$[ebp+8], 5
  003ef	ff b1 f0 0a 00
	00		 push	 DWORD PTR [ecx+2800]
  003f5	b9 00 00 00 00	 mov	 ecx, OFFSET ?g_iMetaTable@@3VIMetaTable@@A ; g_iMetaTable
  003fa	6a 07		 push	 7
  003fc	ff b7 c0 05 00
	00		 push	 DWORD PTR [edi+1472]
  00402	e8 00 00 00 00	 call	 ?GetLanguageText@IMetaTable@@QAEPBDPAUHWND__@@W4E_CODEPAGE@1@PBDH@Z ; IMetaTable::GetLanguageText
  00407	50		 push	 eax
  00408	ff 75 08	 push	 DWORD PTR _pMenuAddIndicator$1$[ebp]
  0040b	e8 00 00 00 00	 call	 ?GetSubMenuIndex@CKTBChartCtrl@@KAHPAVCMenu@@PBD@Z ; CKTBChartCtrl::GetSubMenuIndex

; 522  : 								CMenu *pMenuMarket = pMenuAddIndicator->GetSubMenu( nMenuMarket);

  00410	8b 4d 08	 mov	 ecx, DWORD PTR _pMenuAddIndicator$1$[ebp]
  00413	83 c4 08	 add	 esp, 8
  00416	89 45 d4	 mov	 DWORD PTR _nMenuMarket$1$[ebp], eax
  00419	50		 push	 eax
  0041a	e8 00 00 00 00	 call	 ?GetSubMenu@CMenu@@QBEPAV1@H@Z ; CMenu::GetSubMenu
  0041f	89 45 e4	 mov	 DWORD PTR _pMenuMarket$1$[ebp], eax
; File C:\Program Files (x86)\Microsoft Visual Studio\2019\Community\VC\Tools\MSVC\14.29.30133\atlmfc\include\afxwin1.inl

; 937  : 	{ ASSERT(::IsMenu(m_hMenu)); return ::GetMenuItemCount(m_hMenu); }

  00422	ff 70 04	 push	 DWORD PTR [eax+4]
  00425	ff 15 00 00 00
	00		 call	 DWORD PTR __imp__GetMenuItemCount@4
; File D:\git\src\IBK\IBK_DRFN\ProjSrc\SrcChartEx\ChartOCX\KTBChart\KTBChartMouse.cpp

; 524  : 								for( int i = nMenuCount - 1; 0 <= i; i--)

  0042b	83 c0 ff	 add	 eax, -1
  0042e	89 45 c8	 mov	 DWORD PTR _i$1$[ebp], eax
  00431	78 68		 js	 SHORT $LN7@OnRButtonU
  00433	8b 45 f0	 mov	 eax, DWORD PTR tv1007[ebp]
  00436	8b d8		 mov	 ebx, eax
  00438	8b 75 c8	 mov	 esi, DWORD PTR _i$1$[ebp]
  0043b	89 45 f0	 mov	 DWORD PTR tv1007[ebp], eax
  0043e	66 90		 npad	 2
$LL8@OnRButtonU:

; 525  : 								{
; 526  : 									pMenuMarket->GetMenuString( i, strMenuString, MF_BYPOSITION);

  00440	8b 4d e4	 mov	 ecx, DWORD PTR _pMenuMarket$1$[ebp]
  00443	8d 45 e8	 lea	 eax, DWORD PTR _strMenuString$11[ebp]
  00446	68 00 04 00 00	 push	 1024			; 00000400H
  0044b	50		 push	 eax
  0044c	56		 push	 esi
  0044d	e8 00 00 00 00	 call	 ?GetMenuStringA@CMenu@@QBEHIAAV?$CStringT@DV?$StrTraitMFC_DLL@DV?$ChTraitsCRT@D@ATL@@@@@ATL@@I@Z ; CMenu::GetMenuStringA

; 527  : 									if( !pWnd->SendMessage( RMSG_CAN_ADD_MARKET_INDEX, ( unsigned int)_LTOM2( strMenuString), NULL))

  00452	6a 00		 push	 0
  00454	ff 75 e8	 push	 DWORD PTR _strMenuString$11[ebp]
  00457	b9 00 00 00 00	 mov	 ecx, OFFSET ?g_iMetaTable@@3VIMetaTable@@A ; g_iMetaTable
  0045c	6a 02		 push	 2
  0045e	ff b7 c0 05 00
	00		 push	 DWORD PTR [edi+1472]
  00464	e8 00 00 00 00	 call	 ?GetMetaText@IMetaTable@@QAEPBDPAUHWND__@@W4E_CODEPAGE@1@PBDH@Z ; IMetaTable::GetMetaText
; File C:\Program Files (x86)\Microsoft Visual Studio\2019\Community\VC\Tools\MSVC\14.29.30133\atlmfc\include\afxwin2.inl

; 32   : 	{ ASSERT(::IsWindow(m_hWnd)); return ::SendMessage(m_hWnd, message, wParam, lParam); }

  00469	6a 00		 push	 0
  0046b	50		 push	 eax
  0046c	ff 35 00 00 00
	00		 push	 DWORD PTR ?RMSG_CAN_ADD_MARKET_INDEX@@3IB
  00472	ff 33		 push	 DWORD PTR [ebx]
  00474	ff 15 00 00 00
	00		 call	 DWORD PTR __imp__SendMessageA@16
; File D:\git\src\IBK\IBK_DRFN\ProjSrc\SrcChartEx\ChartOCX\KTBChart\KTBChartMouse.cpp

; 527  : 									if( !pWnd->SendMessage( RMSG_CAN_ADD_MARKET_INDEX, ( unsigned int)_LTOM2( strMenuString), NULL))

  0047a	85 c0		 test	 eax, eax
  0047c	75 12		 jne	 SHORT $LN6@OnRButtonU
; File C:\Program Files (x86)\Microsoft Visual Studio\2019\Community\VC\Tools\MSVC\14.29.30133\atlmfc\include\afxwin1.inl

; 921  : 	{ ASSERT(::IsMenu(m_hMenu)); return ::DeleteMenu(m_hMenu, nPosition, nFlags); }

  0047e	8b 45 e4	 mov	 eax, DWORD PTR _pMenuMarket$1$[ebp]
  00481	68 00 04 00 00	 push	 1024			; 00000400H
  00486	56		 push	 esi
  00487	ff 70 04	 push	 DWORD PTR [eax+4]
  0048a	ff 15 00 00 00
	00		 call	 DWORD PTR __imp__DeleteMenu@12
$LN6@OnRButtonU:
; File D:\git\src\IBK\IBK_DRFN\ProjSrc\SrcChartEx\ChartOCX\KTBChart\KTBChartMouse.cpp

; 524  : 								for( int i = nMenuCount - 1; 0 <= i; i--)

  00490	83 ee 01	 sub	 esi, 1
  00493	79 ab		 jns	 SHORT $LL8@OnRButtonU
  00495	8b 75 cc	 mov	 esi, DWORD PTR ___mlrs__$1$[ebp]
  00498	8b 5d c4	 mov	 ebx, DWORD PTR _pPopup$1$[ebp]
$LN7@OnRButtonU:
; File C:\Program Files (x86)\Microsoft Visual Studio\2019\Community\VC\Tools\MSVC\14.29.30133\atlmfc\include\afxwin1.inl

; 937  : 	{ ASSERT(::IsMenu(m_hMenu)); return ::GetMenuItemCount(m_hMenu); }

  0049b	8b 45 e4	 mov	 eax, DWORD PTR _pMenuMarket$1$[ebp]
  0049e	ff 70 04	 push	 DWORD PTR [eax+4]
  004a1	ff 15 00 00 00
	00		 call	 DWORD PTR __imp__GetMenuItemCount@4
; File D:\git\src\IBK\IBK_DRFN\ProjSrc\SrcChartEx\ChartOCX\KTBChart\KTBChartMouse.cpp

; 530  : 								if( pMenuMarket->GetMenuItemCount() <= 0)

  004a7	85 c0		 test	 eax, eax
  004a9	7f 14		 jg	 SHORT $LN45@OnRButtonU
; File C:\Program Files (x86)\Microsoft Visual Studio\2019\Community\VC\Tools\MSVC\14.29.30133\atlmfc\include\afxwin1.inl

; 921  : 	{ ASSERT(::IsMenu(m_hMenu)); return ::DeleteMenu(m_hMenu, nPosition, nFlags); }

  004ab	8b 45 08	 mov	 eax, DWORD PTR _pMenuAddIndicator$1$[ebp]
  004ae	68 00 04 00 00	 push	 1024			; 00000400H
  004b3	ff 75 d4	 push	 DWORD PTR _nMenuMarket$1$[ebp]
  004b6	ff 70 04	 push	 DWORD PTR [eax+4]
  004b9	ff 15 00 00 00
	00		 call	 DWORD PTR __imp__DeleteMenu@12
$LN45@OnRButtonU:
; File D:\git\src\IBK\IBK_DRFN\ProjSrc\SrcChartEx\ChartOCX\KTBChart\KTBChartMouse.cpp

; 534  : 								CMenu *pMenuETC = GetSubMenu( pMenuAddIndicator, _LTEXT7( C7_ETC));

  004bf	a1 54 00 00 00	 mov	 eax, DWORD PTR ?g_iMetaTable@@3VIMetaTable@@A+84
  004c4	b9 00 00 00 00	 mov	 ecx, OFFSET ?g_iMetaTable@@3VIMetaTable@@A ; g_iMetaTable
  004c9	6a 00		 push	 0
  004cb	ff b0 04 0b 00
	00		 push	 DWORD PTR [eax+2820]
  004d1	6a 07		 push	 7
  004d3	ff b7 c0 05 00
	00		 push	 DWORD PTR [edi+1472]
  004d9	e8 00 00 00 00	 call	 ?GetLanguageText@IMetaTable@@QAEPBDPAUHWND__@@W4E_CODEPAGE@1@PBDH@Z ; IMetaTable::GetLanguageText
  004de	50		 push	 eax
  004df	ff 75 08	 push	 DWORD PTR _pMenuAddIndicator$1$[ebp]
  004e2	e8 00 00 00 00	 call	 ?GetSubMenu@CKTBChartCtrl@@KAPAVCMenu@@PAV2@PBD@Z ; CKTBChartCtrl::GetSubMenu
  004e7	83 c4 08	 add	 esp, 8
  004ea	89 45 08	 mov	 DWORD PTR _pMenuETC$1$[ebp], eax

; 535  : 								if( pMenuETC)

  004ed	85 c0		 test	 eax, eax
  004ef	74 6a		 je	 SHORT $LN48@OnRButtonU

; 536  : 								{
; 537  : 									// Volume Amount
; 538  : 									int nMenuVolumeAmount = GetSubMenuIndex( pMenuETC, _LTEXT2( C2_VOLUME_AMOUNT));

  004f1	8b 15 54 00 00
	00		 mov	 edx, DWORD PTR ?g_iMetaTable@@3VIMetaTable@@A+84
  004f7	b9 00 00 00 00	 mov	 ecx, OFFSET ?g_iMetaTable@@3VIMetaTable@@A ; g_iMetaTable
  004fc	6a 00		 push	 0
  004fe	ff b2 a0 04 00
	00		 push	 DWORD PTR [edx+1184]
  00504	6a 02		 push	 2
  00506	ff b7 c0 05 00
	00		 push	 DWORD PTR [edi+1472]
  0050c	e8 00 00 00 00	 call	 ?GetLanguageText@IMetaTable@@QAEPBDPAUHWND__@@W4E_CODEPAGE@1@PBDH@Z ; IMetaTable::GetLanguageText
  00511	50		 push	 eax
  00512	ff 75 08	 push	 DWORD PTR _pMenuETC$1$[ebp]
  00515	e8 00 00 00 00	 call	 ?GetSubMenuIndex@CKTBChartCtrl@@KAHPAVCMenu@@PBD@Z ; CKTBChartCtrl::GetSubMenuIndex
  0051a	83 c4 08	 add	 esp, 8
  0051d	89 45 d4	 mov	 DWORD PTR _nMenuVolumeAmount$1$[ebp], eax

; 539  : 									if( 0 <= nMenuVolumeAmount) if( !pWnd->SendMessage( RMSG_CAN_ADD_MARKET_INDEX, ( unsigned int)_MTEXT( C2_VOLUME_AMOUNT), NULL))

  00520	85 c0		 test	 eax, eax
  00522	78 37		 js	 SHORT $LN48@OnRButtonU
  00524	8b 0d 54 00 00
	00		 mov	 ecx, DWORD PTR ?g_iMetaTable@@3VIMetaTable@@A+84
; File C:\Program Files (x86)\Microsoft Visual Studio\2019\Community\VC\Tools\MSVC\14.29.30133\atlmfc\include\afxwin2.inl

; 32   : 	{ ASSERT(::IsWindow(m_hWnd)); return ::SendMessage(m_hWnd, message, wParam, lParam); }

  0052a	8b 45 f0	 mov	 eax, DWORD PTR tv1007[ebp]
  0052d	6a 00		 push	 0
  0052f	ff b1 a0 04 00
	00		 push	 DWORD PTR [ecx+1184]
  00535	ff 35 00 00 00
	00		 push	 DWORD PTR ?RMSG_CAN_ADD_MARKET_INDEX@@3IB
  0053b	ff 30		 push	 DWORD PTR [eax]
  0053d	ff 15 00 00 00
	00		 call	 DWORD PTR __imp__SendMessageA@16
; File D:\git\src\IBK\IBK_DRFN\ProjSrc\SrcChartEx\ChartOCX\KTBChart\KTBChartMouse.cpp

; 539  : 									if( 0 <= nMenuVolumeAmount) if( !pWnd->SendMessage( RMSG_CAN_ADD_MARKET_INDEX, ( unsigned int)_MTEXT( C2_VOLUME_AMOUNT), NULL))

  00543	85 c0		 test	 eax, eax
  00545	75 14		 jne	 SHORT $LN48@OnRButtonU
; File C:\Program Files (x86)\Microsoft Visual Studio\2019\Community\VC\Tools\MSVC\14.29.30133\atlmfc\include\afxwin1.inl

; 921  : 	{ ASSERT(::IsMenu(m_hMenu)); return ::DeleteMenu(m_hMenu, nPosition, nFlags); }

  00547	8b 45 08	 mov	 eax, DWORD PTR _pMenuETC$1$[ebp]
  0054a	68 00 04 00 00	 push	 1024			; 00000400H
  0054f	ff 75 d4	 push	 DWORD PTR _nMenuVolumeAmount$1$[ebp]
  00552	ff 70 04	 push	 DWORD PTR [eax+4]
  00555	ff 15 00 00 00
	00		 call	 DWORD PTR __imp__DeleteMenu@12
$LN48@OnRButtonU:
; File D:\git\src\IBK\IBK_DRFN\ProjSrc\SrcChartEx\ChartOCX\KTBChart\KTBChartMouse.cpp

; 542  : 							}

  0055b	8d 4d e8	 lea	 ecx, DWORD PTR _strMenuString$11[ebp]
  0055e	ff 15 00 00 00
	00		 call	 DWORD PTR __imp_??1?$CStringT@DV?$StrTraitMFC_DLL@DV?$ChTraitsCRT@D@ATL@@@@@ATL@@QAE@XZ
$LN43@OnRButtonU:

; 543  : 						}

  00564	8d 4d ec	 lea	 ecx, DWORD PTR _strAddIndicator$13[ebp]
  00567	ff 15 00 00 00
	00		 call	 DWORD PTR __imp_??1?$CStringT@DV?$StrTraitMFC_DLL@DV?$ChTraitsCRT@D@ATL@@@@@ATL@@QAE@XZ

; 544  : 					}
; 545  : 				}
; 546  : 			}
; 547  : 		}

  0056d	eb 3c		 jmp	 SHORT $LN49@OnRButtonU
$LN22@OnRButtonU:
; File C:\Program Files (x86)\Microsoft Visual Studio\2019\Community\VC\Tools\MSVC\14.29.30133\atlmfc\include\afxwin1.inl

; 977  : 	{ return Attach(::LoadMenuW(AfxFindResourceHandle(

  0056f	68 f6 00 00 00	 push	 246			; 000000f6H
  00574	6a 04		 push	 4
  00576	68 f6 00 00 00	 push	 246			; 000000f6H
$LN228@OnRButtonU:
; File D:\git\src\IBK\IBK_DRFN\ProjSrc\SrcChartEx\ChartOCX\KTBChart\KTBChartMouse.cpp

; 555  : 		if( pPopup)

  0057b	e8 00 00 00 00	 call	 ?AfxFindResourceHandle@@YGPAUHINSTANCE__@@PBD0@Z ; AfxFindResourceHandle
  00580	50		 push	 eax
  00581	ff 15 00 00 00
	00		 call	 DWORD PTR __imp__LoadMenuW@8
  00587	50		 push	 eax
  00588	8d 4d dc	 lea	 ecx, DWORD PTR _Context$7[ebp]
  0058b	e8 00 00 00 00	 call	 ?Attach@CMenu@@QAEHPAUHMENU__@@@Z ; CMenu::Attach
  00590	85 c0		 test	 eax, eax
  00592	0f 84 5a 02 00
	00		 je	 $LN50@OnRButtonU
  00598	6a 00		 push	 0
  0059a	ff 75 e0	 push	 DWORD PTR _Context$7[ebp+4]
  0059d	ff 15 00 00 00
	00		 call	 DWORD PTR __imp__GetSubMenu@8
  005a3	50		 push	 eax
  005a4	e8 00 00 00 00	 call	 ?FromHandle@CMenu@@SGPAV1@PAUHMENU__@@@Z ; CMenu::FromHandle
  005a9	8b d8		 mov	 ebx, eax
$LN49@OnRButtonU:
  005ab	85 db		 test	 ebx, ebx
  005ad	0f 84 3f 02 00
	00		 je	 $LN50@OnRButtonU
$LN221@OnRButtonU:

; 558  : 			m_ptRButtonMenuPopupPosition = point;

  005b3	8b 45 0c	 mov	 eax, DWORD PTR _point$[ebp]
  005b6	8b 4d 10	 mov	 ecx, DWORD PTR _point$[ebp+4]
  005b9	89 87 c8 05 00
	00		 mov	 DWORD PTR [edi+1480], eax
; File C:\Program Files (x86)\Microsoft Visual Studio\2019\Community\VC\Tools\MSVC\14.29.30133\atlmfc\include\afxwin2.inl

; 92   : 	{ ASSERT(::IsWindow(m_hWnd)); ::ClientToScreen(m_hWnd, lpPoint); }

  005bf	8d 45 0c	 lea	 eax, DWORD PTR _point$[ebp]
  005c2	50		 push	 eax
  005c3	ff 77 20	 push	 DWORD PTR [edi+32]
; File D:\git\src\IBK\IBK_DRFN\ProjSrc\SrcChartEx\ChartOCX\KTBChart\KTBChartMouse.cpp

; 558  : 			m_ptRButtonMenuPopupPosition = point;

  005c6	89 8f cc 05 00
	00		 mov	 DWORD PTR [edi+1484], ecx
; File C:\Program Files (x86)\Microsoft Visual Studio\2019\Community\VC\Tools\MSVC\14.29.30133\atlmfc\include\afxwin2.inl

; 92   : 	{ ASSERT(::IsWindow(m_hWnd)); ::ClientToScreen(m_hWnd, lpPoint); }

  005cc	ff 15 00 00 00
	00		 call	 DWORD PTR __imp__ClientToScreen@8
; File D:\git\src\IBK\IBK_DRFN\ProjSrc\SrcChartEx\ChartOCX\KTBChart\KTBChartMouse.cpp

; 561  : 			CString strAddIndicator;

  005d2	8d 4d e8	 lea	 ecx, DWORD PTR _strAddIndicator$10[ebp]
  005d5	ff 15 00 00 00
	00		 call	 DWORD PTR __imp_??0?$CStringT@DV?$StrTraitMFC_DLL@DV?$ChTraitsCRT@D@ATL@@@@@ATL@@QAE@XZ

; 562  : 			strAddIndicator.LoadString( IDS_ADD_INDICATOR);

  005db	68 79 9d 00 00	 push	 40313			; 00009d79H
  005e0	8d 4d e8	 lea	 ecx, DWORD PTR _strAddIndicator$10[ebp]
  005e3	c6 45 fc 06	 mov	 BYTE PTR __$EHRec$[ebp+8], 6
  005e7	ff 15 00 00 00
	00		 call	 DWORD PTR __imp_?LoadStringA@?$CStringT@DV?$StrTraitMFC_DLL@DV?$ChTraitsCRT@D@ATL@@@@@ATL@@QAEHI@Z

; 563  : 			CString strChangeSpecialChart;

  005ed	8d 4d ec	 lea	 ecx, DWORD PTR _strChangeSpecialChart$12[ebp]
  005f0	ff 15 00 00 00
	00		 call	 DWORD PTR __imp_??0?$CStringT@DV?$StrTraitMFC_DLL@DV?$ChTraitsCRT@D@ATL@@@@@ATL@@QAE@XZ

; 564  : 			strChangeSpecialChart.LoadString( IDS_CHANGE_SPECIAL_CHART);

  005f6	68 7a 9d 00 00	 push	 40314			; 00009d7aH
  005fb	8d 4d ec	 lea	 ecx, DWORD PTR _strChangeSpecialChart$12[ebp]
  005fe	c6 45 fc 07	 mov	 BYTE PTR __$EHRec$[ebp+8], 7
  00602	ff 15 00 00 00
	00		 call	 DWORD PTR __imp_?LoadStringA@?$CStringT@DV?$StrTraitMFC_DLL@DV?$ChTraitsCRT@D@ATL@@@@@ATL@@QAEHI@Z
; File C:\Program Files (x86)\Microsoft Visual Studio\2019\Community\VC\Tools\MSVC\14.29.30133\atlmfc\include\afxwin1.inl

; 937  : 	{ ASSERT(::IsMenu(m_hMenu)); return ::GetMenuItemCount(m_hMenu); }

  00608	ff 73 04	 push	 DWORD PTR [ebx+4]
  0060b	ff 15 00 00 00
	00		 call	 DWORD PTR __imp__GetMenuItemCount@4
; File D:\git\src\IBK\IBK_DRFN\ProjSrc\SrcChartEx\ChartOCX\KTBChart\KTBChartMouse.cpp

; 568  : 			int nMenuCount = pPopup->GetMenuItemCount();

  00611	8b f8		 mov	 edi, eax

; 569  : 			CCmdUI cmdUI; 

  00613	8d 4d 88	 lea	 ecx, DWORD PTR _cmdUI$4[ebp]
  00616	89 7d 08	 mov	 DWORD PTR _nMenuCount$1$[ebp], edi
  00619	e8 00 00 00 00	 call	 ??0CCmdUI@@QAE@XZ	; CCmdUI::CCmdUI

; 570  : 			CString strMenuName;

  0061e	8d 4d e4	 lea	 ecx, DWORD PTR _strMenuName$8[ebp]
  00621	ff 15 00 00 00
	00		 call	 DWORD PTR __imp_??0?$CStringT@DV?$StrTraitMFC_DLL@DV?$ChTraitsCRT@D@ATL@@@@@ATL@@QAE@XZ

; 571  : 			for( int i = nMenuCount - 1; 0 <= i; i--)

  00627	83 c7 ff	 add	 edi, -1
  0062a	c6 45 fc 08	 mov	 BYTE PTR __$EHRec$[ebp+8], 8
  0062e	0f 88 18 01 00
	00		 js	 $LN208@OnRButtonU

; 558  : 			m_ptRButtonMenuPopupPosition = point;

  00634	8b 75 d8	 mov	 esi, DWORD PTR _this$1$[ebp]
  00637	89 7d f0	 mov	 DWORD PTR tv1003[ebp], edi
  0063a	66 0f 1f 44 00
	00		 npad	 6
$LL11@OnRButtonU:
; File C:\Program Files (x86)\Microsoft Visual Studio\2019\Community\VC\Tools\MSVC\14.29.30133\atlmfc\include\afxwin1.inl

; 939  : 	{ ASSERT(::IsMenu(m_hMenu)); return ::GetMenuItemID(m_hMenu, nPos); }

  00640	57		 push	 edi
  00641	ff 73 04	 push	 DWORD PTR [ebx+4]
  00644	ff 15 00 00 00
	00		 call	 DWORD PTR __imp__GetMenuItemID@8
; File D:\git\src\IBK\IBK_DRFN\ProjSrc\SrcChartEx\ChartOCX\KTBChart\KTBChartMouse.cpp

; 573  : 				cmdUI.m_nID			= pPopup->GetMenuItemID( i);

  0064a	89 45 8c	 mov	 DWORD PTR _cmdUI$4[ebp+4], eax

; 574  : 				// Check the ID for Indicator Menu Process AddIn
; 575  : 				if( pPopup->GetMenuString( i, strMenuName, MF_BYPOSITION))

  0064d	8b cb		 mov	 ecx, ebx
  0064f	68 00 04 00 00	 push	 1024			; 00000400H
  00654	8d 45 e4	 lea	 eax, DWORD PTR _strMenuName$8[ebp]
  00657	50		 push	 eax
  00658	57		 push	 edi
  00659	e8 00 00 00 00	 call	 ?GetMenuStringA@CMenu@@QBEHIAAV?$CStringT@DV?$StrTraitMFC_DLL@DV?$ChTraitsCRT@D@ATL@@@@@ATL@@I@Z ; CMenu::GetMenuStringA
  0065e	85 c0		 test	 eax, eax
  00660	0f 84 c9 01 00
	00		 je	 $LN52@OnRButtonU
; File C:\Program Files (x86)\Microsoft Visual Studio\2019\Community\VC\Tools\MSVC\14.29.30133\atlmfc\include\cstringt.h

; 2479 : 		return(str1.Compare(str2) == 0);

  00666	ff 75 e8	 push	 DWORD PTR _strAddIndicator$10[ebp]
  00669	8d 4d e4	 lea	 ecx, DWORD PTR _strMenuName$8[ebp]
  0066c	ff 15 00 00 00
	00		 call	 DWORD PTR __imp_?Compare@?$CStringT@DV?$StrTraitMFC_DLL@DV?$ChTraitsCRT@D@ATL@@@@@ATL@@QBEHPBD@Z
  00672	85 c0		 test	 eax, eax
; File D:\git\src\IBK\IBK_DRFN\ProjSrc\SrcChartEx\ChartOCX\KTBChart\KTBChartMouse.cpp

; 576  : 					if( strMenuName == strAddIndicator || strMenuName == strChangeSpecialChart)

  00674	74 14		 je	 SHORT $LN53@OnRButtonU
; File C:\Program Files (x86)\Microsoft Visual Studio\2019\Community\VC\Tools\MSVC\14.29.30133\atlmfc\include\cstringt.h

; 2479 : 		return(str1.Compare(str2) == 0);

  00676	ff 75 ec	 push	 DWORD PTR _strChangeSpecialChart$12[ebp]
  00679	8d 4d e4	 lea	 ecx, DWORD PTR _strMenuName$8[ebp]
  0067c	ff 15 00 00 00
	00		 call	 DWORD PTR __imp_?Compare@?$CStringT@DV?$StrTraitMFC_DLL@DV?$ChTraitsCRT@D@ATL@@@@@ATL@@QBEHPBD@Z
  00682	85 c0		 test	 eax, eax
; File D:\git\src\IBK\IBK_DRFN\ProjSrc\SrcChartEx\ChartOCX\KTBChart\KTBChartMouse.cpp

; 576  : 					if( strMenuName == strAddIndicator || strMenuName == strChangeSpecialChart)

  00684	0f 85 a5 01 00
	00		 jne	 $LN52@OnRButtonU
$LN53@OnRButtonU:

; 577  : 						cmdUI.m_nID = ID_AIC_START_ID;

  0068a	c7 45 8c 98 9e
	00 00		 mov	 DWORD PTR _cmdUI$4[ebp+4], 40600 ; 00009e98H
$LN54@OnRButtonU:

; 601  : 				}
; 602  : 
; 603  : 				cmdUI.m_nIndex		= i;
; 604  : 				cmdUI.m_pMenu		= pPopup;
; 605  : 				cmdUI.m_pSubMenu	= NULL;
; 606  : 				cmdUI.m_pOther		= NULL;
; 607  : 				cmdUI.m_nIndexMax	= nMenuCount;

  00691	8b 45 08	 mov	 eax, DWORD PTR _nMenuCount$1$[ebp]

; 608  : 				cmdUI.Enable( FALSE);

  00694	8d 4d 88	 lea	 ecx, DWORD PTR _cmdUI$4[ebp]
  00697	6a 00		 push	 0
  00699	89 7d 90	 mov	 DWORD PTR _cmdUI$4[ebp+8], edi
  0069c	89 5d 94	 mov	 DWORD PTR _cmdUI$4[ebp+12], ebx
  0069f	c7 45 98 00 00
	00 00		 mov	 DWORD PTR _cmdUI$4[ebp+16], 0
  006a6	c7 45 9c 00 00
	00 00		 mov	 DWORD PTR _cmdUI$4[ebp+20], 0
  006ad	89 45 a8	 mov	 DWORD PTR _cmdUI$4[ebp+32], eax
  006b0	e8 00 00 00 00	 call	 ?Enable@CCmdUI@@UAEXH@Z	; CCmdUI::Enable

; 609  : 				OnCmdMsg( cmdUI.m_nID, CN_UPDATE_COMMAND_UI, &cmdUI, NULL);

  006b5	8b 06		 mov	 eax, DWORD PTR [esi]
  006b7	8d 4d 88	 lea	 ecx, DWORD PTR _cmdUI$4[ebp]
  006ba	6a 00		 push	 0
  006bc	51		 push	 ecx
  006bd	6a ff		 push	 -1
  006bf	ff 75 8c	 push	 DWORD PTR _cmdUI$4[ebp+4]
  006c2	8b ce		 mov	 ecx, esi
  006c4	ff 50 14	 call	 DWORD PTR [eax+20]
; File C:\Program Files (x86)\Microsoft Visual Studio\2019\Community\VC\Tools\MSVC\14.29.30133\atlmfc\include\afxwin1.inl

; 939  : 	{ ASSERT(::IsMenu(m_hMenu)); return ::GetMenuItemID(m_hMenu, nPos); }

  006c7	57		 push	 edi
  006c8	ff 73 04	 push	 DWORD PTR [ebx+4]
  006cb	ff 15 00 00 00
	00		 call	 DWORD PTR __imp__GetMenuItemID@8

; 941  : 	{ ASSERT(::IsMenu(m_hMenu)); return ::GetMenuState(m_hMenu, nID, nFlags); }

  006d1	68 00 04 00 00	 push	 1024			; 00000400H
  006d6	57		 push	 edi
  006d7	ff 73 04	 push	 DWORD PTR [ebx+4]
; File D:\git\src\IBK\IBK_DRFN\ProjSrc\SrcChartEx\ChartOCX\KTBChart\KTBChartMouse.cpp

; 610  : 				nMenuID = pPopup->GetMenuItemID( i);

  006da	89 45 d4	 mov	 DWORD PTR _nMenuID$1$[ebp], eax
; File C:\Program Files (x86)\Microsoft Visual Studio\2019\Community\VC\Tools\MSVC\14.29.30133\atlmfc\include\afxwin1.inl

; 941  : 	{ ASSERT(::IsMenu(m_hMenu)); return ::GetMenuState(m_hMenu, nID, nFlags); }

  006dd	ff 15 00 00 00
	00		 call	 DWORD PTR __imp__GetMenuState@12
; File D:\git\src\IBK\IBK_DRFN\ProjSrc\SrcChartEx\ChartOCX\KTBChart\KTBChartMouse.cpp

; 611  : 				if( ( pPopup->GetMenuState( i, MF_BYPOSITION) & MF_DISABLED) && ( nMenuID < ID_PLM_ADD_MENU || ID_PLM_ADD_MENU_END < nMenuID))

  006e3	a8 02		 test	 al, 2
  006e5	74 59		 je	 SHORT $LN9@OnRButtonU
  006e7	8b 45 d4	 mov	 eax, DWORD PTR _nMenuID$1$[ebp]
  006ea	3d 1c a2 00 00	 cmp	 eax, 41500		; 0000a21cH
  006ef	7c 07		 jl	 SHORT $LN60@OnRButtonU
  006f1	3d e3 a2 00 00	 cmp	 eax, 41699		; 0000a2e3H
  006f6	7e 48		 jle	 SHORT $LN9@OnRButtonU
$LN60@OnRButtonU:
; File C:\Program Files (x86)\Microsoft Visual Studio\2019\Community\VC\Tools\MSVC\14.29.30133\atlmfc\include\afxwin1.inl

; 946  : 		return ::GetMenuItemInfo(m_hMenu, uItem, fByPos, lpMenuItemInfo); }

  006f8	8d 85 54 ff ff
	ff		 lea	 eax, DWORD PTR _mii$2[ebp]
; File D:\git\src\IBK\IBK_DRFN\ProjSrc\SrcChartEx\ChartOCX\KTBChart\KTBChartMouse.cpp

; 614  : 					mii.cbSize = sizeof( MENUITEMINFO); // must fill up this field

  006fe	c7 85 54 ff ff
	ff 30 00 00 00	 mov	 DWORD PTR _mii$2[ebp], 48 ; 00000030H
; File C:\Program Files (x86)\Microsoft Visual Studio\2019\Community\VC\Tools\MSVC\14.29.30133\atlmfc\include\afxwin1.inl

; 946  : 		return ::GetMenuItemInfo(m_hMenu, uItem, fByPos, lpMenuItemInfo); }

  00708	50		 push	 eax
  00709	6a 01		 push	 1
  0070b	57		 push	 edi
  0070c	ff 73 04	 push	 DWORD PTR [ebx+4]
; File D:\git\src\IBK\IBK_DRFN\ProjSrc\SrcChartEx\ChartOCX\KTBChart\KTBChartMouse.cpp

; 615  : 					mii.fMask = MIIM_DATA;             // get the state of the menu item

  0070f	c7 85 58 ff ff
	ff 20 00 00 00	 mov	 DWORD PTR _mii$2[ebp+4], 32 ; 00000020H
; File C:\Program Files (x86)\Microsoft Visual Studio\2019\Community\VC\Tools\MSVC\14.29.30133\atlmfc\include\afxwin1.inl

; 946  : 		return ::GetMenuItemInfo(m_hMenu, uItem, fByPos, lpMenuItemInfo); }

  00719	ff 15 00 00 00
	00		 call	 DWORD PTR __imp__GetMenuItemInfoA@16
; File D:\git\src\IBK\IBK_DRFN\ProjSrc\SrcChartEx\ChartOCX\KTBChart\KTBChartMouse.cpp

; 617  : 					if( mii.dwItemData != 9999)

  0071f	81 bd 74 ff ff
	ff 0f 27 00 00	 cmp	 DWORD PTR _mii$2[ebp+32], 9999 ; 0000270fH
  00729	74 15		 je	 SHORT $LN9@OnRButtonU
$LN231@OnRButtonU:

; 571  : 			for( int i = nMenuCount - 1; 0 <= i; i--)

  0072b	68 00 04 00 00	 push	 1024			; 00000400H
  00730	57		 push	 edi
  00731	ff 73 04	 push	 DWORD PTR [ebx+4]
  00734	ff 15 00 00 00
	00		 call	 DWORD PTR __imp__DeleteMenu@12
  0073a	ff 4d 08	 dec	 DWORD PTR _nMenuCount$1$[ebp]
  0073d	ff 4d f0	 dec	 DWORD PTR tv1003[ebp]
$LN9@OnRButtonU:
  00740	83 ef 01	 sub	 edi, 1
  00743	0f 89 f7 fe ff
	ff		 jns	 $LL11@OnRButtonU
  00749	8b 75 cc	 mov	 esi, DWORD PTR ___mlrs__$1$[ebp]
$LN208@OnRButtonU:
; File C:\Program Files (x86)\Microsoft Visual Studio\2019\Community\VC\Tools\MSVC\14.29.30133\atlmfc\include\afxwin1.inl

; 937  : 	{ ASSERT(::IsMenu(m_hMenu)); return ::GetMenuItemCount(m_hMenu); }

  0074c	ff 73 04	 push	 DWORD PTR [ebx+4]
  0074f	8b 3d 00 00 00
	00		 mov	 edi, DWORD PTR __imp__GetMenuItemCount@4
  00755	ff d7		 call	 edi
; File D:\git\src\IBK\IBK_DRFN\ProjSrc\SrcChartEx\ChartOCX\KTBChart\KTBChartMouse.cpp

; 625  : 			while( 0 < pPopup->GetMenuItemCount() && 0 == pPopup->GetMenuItemID( 0))

  00757	85 c0		 test	 eax, eax
  00759	7e 2c		 jle	 SHORT $LN16@OnRButtonU
  0075b	0f 1f 44 00 00	 npad	 5
$LL15@OnRButtonU:
; File C:\Program Files (x86)\Microsoft Visual Studio\2019\Community\VC\Tools\MSVC\14.29.30133\atlmfc\include\afxwin1.inl

; 939  : 	{ ASSERT(::IsMenu(m_hMenu)); return ::GetMenuItemID(m_hMenu, nPos); }

  00760	6a 00		 push	 0
  00762	ff 73 04	 push	 DWORD PTR [ebx+4]
  00765	ff 15 00 00 00
	00		 call	 DWORD PTR __imp__GetMenuItemID@8
; File D:\git\src\IBK\IBK_DRFN\ProjSrc\SrcChartEx\ChartOCX\KTBChart\KTBChartMouse.cpp

; 625  : 			while( 0 < pPopup->GetMenuItemCount() && 0 == pPopup->GetMenuItemID( 0))

  0076b	85 c0		 test	 eax, eax
  0076d	75 18		 jne	 SHORT $LN16@OnRButtonU
; File C:\Program Files (x86)\Microsoft Visual Studio\2019\Community\VC\Tools\MSVC\14.29.30133\atlmfc\include\afxwin1.inl

; 921  : 	{ ASSERT(::IsMenu(m_hMenu)); return ::DeleteMenu(m_hMenu, nPosition, nFlags); }

  0076f	68 00 04 00 00	 push	 1024			; 00000400H
  00774	50		 push	 eax
  00775	ff 73 04	 push	 DWORD PTR [ebx+4]
  00778	ff 15 00 00 00
	00		 call	 DWORD PTR __imp__DeleteMenu@12

; 937  : 	{ ASSERT(::IsMenu(m_hMenu)); return ::GetMenuItemCount(m_hMenu); }

  0077e	ff 73 04	 push	 DWORD PTR [ebx+4]
  00781	ff d7		 call	 edi
; File D:\git\src\IBK\IBK_DRFN\ProjSrc\SrcChartEx\ChartOCX\KTBChart\KTBChartMouse.cpp

; 625  : 			while( 0 < pPopup->GetMenuItemCount() && 0 == pPopup->GetMenuItemID( 0))

  00783	85 c0		 test	 eax, eax
  00785	7f d9		 jg	 SHORT $LL15@OnRButtonU
$LN16@OnRButtonU:
; File C:\Program Files (x86)\Microsoft Visual Studio\2019\Community\VC\Tools\MSVC\14.29.30133\atlmfc\include\afxwin2.inl

; 213  : 	{ ASSERT(::IsWindow(m_hWnd)); return CWnd::FromHandle(::GetParent(m_hWnd)); }

  00787	8b 7d d8	 mov	 edi, DWORD PTR _this$1$[ebp]
  0078a	ff 77 20	 push	 DWORD PTR [edi+32]
  0078d	ff 15 00 00 00
	00		 call	 DWORD PTR __imp__GetParent@4
  00793	50		 push	 eax
  00794	e8 00 00 00 00	 call	 ?FromHandle@CWnd@@SGPAV1@PAUHWND__@@@Z ; CWnd::FromHandle
; File D:\git\src\IBK\IBK_DRFN\ProjSrc\SrcChartEx\ChartOCX\KTBChart\KTBChartMouse.cpp

; 633  : 			if( pWnd) pWnd->SendMessage( UDM_ADD_PLATFORM_MENU, 0, ( long)pPopup->GetSafeHmenu());

  00799	85 c0		 test	 eax, eax
  0079b	74 13		 je	 SHORT $LN62@OnRButtonU
; File C:\Program Files (x86)\Microsoft Visual Studio\2019\Community\VC\Tools\MSVC\14.29.30133\atlmfc\include\afxwin2.inl

; 32   : 	{ ASSERT(::IsWindow(m_hWnd)); return ::SendMessage(m_hWnd, message, wParam, lParam); }

  0079d	ff 73 04	 push	 DWORD PTR [ebx+4]
  007a0	6a 00		 push	 0
  007a2	68 67 06 00 00	 push	 1639			; 00000667H
  007a7	ff 70 20	 push	 DWORD PTR [eax+32]
  007aa	ff 15 00 00 00
	00		 call	 DWORD PTR __imp__SendMessageA@16
$LN62@OnRButtonU:
; File C:\Program Files (x86)\Microsoft Visual Studio\2019\Community\VC\Tools\MSVC\14.29.30133\atlmfc\include\afxwin1.inl

; 937  : 	{ ASSERT(::IsMenu(m_hMenu)); return ::GetMenuItemCount(m_hMenu); }

  007b0	ff 73 04	 push	 DWORD PTR [ebx+4]
  007b3	ff 15 00 00 00
	00		 call	 DWORD PTR __imp__GetMenuItemCount@4
; File D:\git\src\IBK\IBK_DRFN\ProjSrc\SrcChartEx\ChartOCX\KTBChart\KTBChartMouse.cpp

; 635  : 			if( pPopup->GetMenuItemCount())

  007b9	85 c0		 test	 eax, eax
  007bb	74 12		 je	 SHORT $LN63@OnRButtonU

; 636  : 				pPopup->TrackPopupMenu( TPM_LEFTALIGN | TPM_RIGHTBUTTON, point.x, point.y, this, NULL);

  007bd	6a 00		 push	 0
  007bf	57		 push	 edi
  007c0	ff 75 10	 push	 DWORD PTR _point$[ebp+4]
  007c3	8b cb		 mov	 ecx, ebx
  007c5	ff 75 0c	 push	 DWORD PTR _point$[ebp]
  007c8	6a 02		 push	 2
  007ca	e8 00 00 00 00	 call	 ?TrackPopupMenu@CMenu@@QAEHIHHPAVCWnd@@PBUtagRECT@@@Z ; CMenu::TrackPopupMenu
$LN63@OnRButtonU:

; 637  : 
; 638  : 			Context.DestroyMenu();

  007cf	8d 4d dc	 lea	 ecx, DWORD PTR _Context$7[ebp]
  007d2	e8 00 00 00 00	 call	 ?DestroyMenu@CMenu@@QAEHXZ ; CMenu::DestroyMenu

; 639  : 		}

  007d7	8d 4d e4	 lea	 ecx, DWORD PTR _strMenuName$8[ebp]
  007da	ff 15 00 00 00
	00		 call	 DWORD PTR __imp_??1?$CStringT@DV?$StrTraitMFC_DLL@DV?$ChTraitsCRT@D@ATL@@@@@ATL@@QAE@XZ
  007e0	8d 4d ec	 lea	 ecx, DWORD PTR _strChangeSpecialChart$12[ebp]
  007e3	ff 15 00 00 00
	00		 call	 DWORD PTR __imp_??1?$CStringT@DV?$StrTraitMFC_DLL@DV?$ChTraitsCRT@D@ATL@@@@@ATL@@QAE@XZ
  007e9	8d 4d e8	 lea	 ecx, DWORD PTR _strAddIndicator$10[ebp]
  007ec	ff 15 00 00 00
	00		 call	 DWORD PTR __imp_??1?$CStringT@DV?$StrTraitMFC_DLL@DV?$ChTraitsCRT@D@ATL@@@@@ATL@@QAE@XZ
$LN50@OnRButtonU:
; File C:\Program Files (x86)\Microsoft Visual Studio\2019\Community\VC\Tools\MSVC\14.29.30133\atlmfc\include\afxwin1.inl

; 905  : 	{ DestroyMenu(); }

  007f2	8d 4d dc	 lea	 ecx, DWORD PTR _Context$7[ebp]
  007f5	c6 45 fc 09	 mov	 BYTE PTR __$EHRec$[ebp+8], 9
  007f9	c7 45 dc 00 00
	00 00		 mov	 DWORD PTR _Context$7[ebp], OFFSET ??_7CMenu@@6B@
  00800	e8 00 00 00 00	 call	 ?DestroyMenu@CMenu@@QAEHXZ ; CMenu::DestroyMenu
; File D:\git\src\IBK\IBK_DRFN\ProjSrc\SrcChartEx\ChartOCX\Include_Chart\Dll_Load\IMetaTable.h

; 1036 : 	{

  00805	c7 45 fc 0a 00
	00 00		 mov	 DWORD PTR __$EHRec$[ebp+8], 10 ; 0000000aH
; File C:\Program Files (x86)\Microsoft Visual Studio\2019\Community\VC\Tools\MSVC\14.29.30133\atlmfc\include\afxwin1.inl

; 27   : 	{ ASSERT(hInstResource != NULL); afxCurrentResourceHandle = hInstResource; }

  0080c	e8 00 00 00 00	 call	 ?AfxGetModuleState@@YGPAVAFX_MODULE_STATE@@XZ ; AfxGetModuleState
  00811	b9 01 00 00 00	 mov	 ecx, 1
  00816	89 70 0c	 mov	 DWORD PTR [eax+12], esi
$LN201@OnRButtonU:
; File D:\git\src\IBK\IBK_DRFN\ProjSrc\SrcChartEx\ChartOCX\KTBChart\KTBChartMouse.cpp

; 642  : 	return TRUE;

  00819	8b c1		 mov	 eax, ecx

; 643  : }

  0081b	8b 4d f4	 mov	 ecx, DWORD PTR __$EHRec$[ebp]
  0081e	64 89 0d 00 00
	00 00		 mov	 DWORD PTR fs:0, ecx
  00825	59		 pop	 ecx
  00826	5f		 pop	 edi
  00827	5e		 pop	 esi
  00828	5b		 pop	 ebx
  00829	8b e5		 mov	 esp, ebp
  0082b	5d		 pop	 ebp
  0082c	c2 0c 00	 ret	 12			; 0000000cH
$LN52@OnRButtonU:

; 578  : 
; 579  : 				// Skip Seperator
; 580  : 				if( 0 == cmdUI.m_nID)

  0082f	83 7d 8c 00	 cmp	 DWORD PTR _cmdUI$4[ebp+4], 0
  00833	0f 85 58 fe ff
	ff		 jne	 $LN54@OnRButtonU

; 581  : 				{
; 582  : 					// delete Serial Bottom Seperators
; 583  : 					if( i == nMenuCount - 1)

  00839	3b 7d f0	 cmp	 edi, DWORD PTR tv1003[ebp]
  0083c	75 35		 jne	 SHORT $LN55@OnRButtonU
  0083e	66 90		 npad	 2
$LL14@OnRButtonU:
; File C:\Program Files (x86)\Microsoft Visual Studio\2019\Community\VC\Tools\MSVC\14.29.30133\atlmfc\include\afxwin1.inl

; 921  : 	{ ASSERT(::IsMenu(m_hMenu)); return ::DeleteMenu(m_hMenu, nPosition, nFlags); }

  00840	68 00 04 00 00	 push	 1024			; 00000400H
  00845	57		 push	 edi
  00846	ff 73 04	 push	 DWORD PTR [ebx+4]
  00849	ff 15 00 00 00
	00		 call	 DWORD PTR __imp__DeleteMenu@12

; 937  : 	{ ASSERT(::IsMenu(m_hMenu)); return ::GetMenuItemCount(m_hMenu); }

  0084f	ff 73 04	 push	 DWORD PTR [ebx+4]
  00852	ff 15 00 00 00
	00		 call	 DWORD PTR __imp__GetMenuItemCount@4
  00858	8b f8		 mov	 edi, eax
; File D:\git\src\IBK\IBK_DRFN\ProjSrc\SrcChartEx\ChartOCX\KTBChart\KTBChartMouse.cpp

; 588  : 							i = pPopup->GetMenuItemCount() - 1;

  0085a	83 ef 01	 sub	 edi, 1

; 590  : 						while( 0 <= i && !pPopup->GetMenuItemID( i));

  0085d	78 0e		 js	 SHORT $LN57@OnRButtonU
; File C:\Program Files (x86)\Microsoft Visual Studio\2019\Community\VC\Tools\MSVC\14.29.30133\atlmfc\include\afxwin1.inl

; 939  : 	{ ASSERT(::IsMenu(m_hMenu)); return ::GetMenuItemID(m_hMenu, nPos); }

  0085f	57		 push	 edi
  00860	ff 73 04	 push	 DWORD PTR [ebx+4]
  00863	ff 15 00 00 00
	00		 call	 DWORD PTR __imp__GetMenuItemID@8
; File D:\git\src\IBK\IBK_DRFN\ProjSrc\SrcChartEx\ChartOCX\KTBChart\KTBChartMouse.cpp

; 590  : 						while( 0 <= i && !pPopup->GetMenuItemID( i));

  00869	85 c0		 test	 eax, eax
  0086b	74 d3		 je	 SHORT $LL14@OnRButtonU
$LN57@OnRButtonU:

; 591  : 						i++;

  0086d	47		 inc	 edi

; 592  : 					}

  0086e	e9 cd fe ff ff	 jmp	 $LN9@OnRButtonU
$LN55@OnRButtonU:

; 594  : 					else if( i + 1 < nMenuCount && 0 == pPopup->GetMenuItemID( i + 1))

  00873	8d 47 01	 lea	 eax, DWORD PTR [edi+1]
  00876	3b 45 08	 cmp	 eax, DWORD PTR _nMenuCount$1$[ebp]
  00879	0f 8d c1 fe ff
	ff		 jge	 $LN9@OnRButtonU
; File C:\Program Files (x86)\Microsoft Visual Studio\2019\Community\VC\Tools\MSVC\14.29.30133\atlmfc\include\afxwin1.inl

; 939  : 	{ ASSERT(::IsMenu(m_hMenu)); return ::GetMenuItemID(m_hMenu, nPos); }

  0087f	50		 push	 eax
  00880	ff 73 04	 push	 DWORD PTR [ebx+4]
  00883	ff 15 00 00 00
	00		 call	 DWORD PTR __imp__GetMenuItemID@8
; File D:\git\src\IBK\IBK_DRFN\ProjSrc\SrcChartEx\ChartOCX\KTBChart\KTBChartMouse.cpp

; 594  : 					else if( i + 1 < nMenuCount && 0 == pPopup->GetMenuItemID( i + 1))

  00889	85 c0		 test	 eax, eax
  0088b	0f 85 af fe ff
	ff		 jne	 $LN9@OnRButtonU

; 595  : 					{
; 596  : 						pPopup->DeleteMenu( i, MF_BYPOSITION);
; 597  : 						nMenuCount--;
; 598  : 					}
; 599  : 					// Skip Seperator
; 600  : 					continue;

  00891	e9 95 fe ff ff	 jmp	 $LN231@OnRButtonU
  00896	66 90		 npad	 2
$LN222@OnRButtonU:

; 643  : }

  00898	00 00 00 00	 DD	 $LN26@OnRButtonU
  0089c	00 00 00 00	 DD	 $LN27@OnRButtonU
  008a0	00 00 00 00	 DD	 $LN28@OnRButtonU
  008a4	00 00 00 00	 DD	 $LN29@OnRButtonU
$LN223@OnRButtonU:
  008a8	00 00 00 00	 DD	 $LN35@OnRButtonU
  008ac	00 00 00 00	 DD	 $LN36@OnRButtonU
  008b0	00 00 00 00	 DD	 $LN37@OnRButtonU
  008b4	00 00 00 00	 DD	 $LN38@OnRButtonU
_TEXT	ENDS
;	COMDAT text$x
text$x	SEGMENT
__unwindfunclet$?OnRButtonUpProc@CKTBChartCtrl@@IAEHIVCPoint@@@Z$0:
  00000	8d 4d b0	 lea	 ecx, DWORD PTR _dcClient$5[ebp]
  00003	e9 00 00 00 00	 jmp	 ??1CClientDC@@UAE@XZ	; CClientDC::~CClientDC
__unwindfunclet$?OnRButtonUpProc@CKTBChartCtrl@@IAEHIVCPoint@@@Z$1:
  00008	8d 4d 84	 lea	 ecx, DWORD PTR ___mlrs__$3[ebp]
  0000b	e9 00 00 00 00	 jmp	 ??1CMultiLanguageResourceSetter@@QAE@XZ ; CMultiLanguageResourceSetter::~CMultiLanguageResourceSetter
__unwindfunclet$?OnRButtonUpProc@CKTBChartCtrl@@IAEHIVCPoint@@@Z$2:
  00010	8d 4d dc	 lea	 ecx, DWORD PTR _Context$7[ebp]
  00013	e9 00 00 00 00	 jmp	 ??1CMenu@@UAE@XZ	; CMenu::~CMenu
__unwindfunclet$?OnRButtonUpProc@CKTBChartCtrl@@IAEHIVCPoint@@@Z$3:
  00018	8b 45 e8	 mov	 eax, DWORD PTR $T9[ebp]
  0001b	83 e0 01	 and	 eax, 1
  0001e	0f 84 0d 00 00
	00		 je	 $LN71@OnRButtonU
  00024	83 65 e8 fe	 and	 DWORD PTR $T9[ebp], -2	; fffffffeH
  00028	8d 4d ec	 lea	 ecx, DWORD PTR $T14[ebp]
  0002b	ff 25 00 00 00
	00		 jmp	 DWORD PTR __imp_??1?$CStringT@DV?$StrTraitMFC_DLL@DV?$ChTraitsCRT@D@ATL@@@@@ATL@@QAE@XZ
$LN71@OnRButtonU:
  00031	c3		 ret	 0
__unwindfunclet$?OnRButtonUpProc@CKTBChartCtrl@@IAEHIVCPoint@@@Z$4:
  00032	8d 4d ec	 lea	 ecx, DWORD PTR _strAddIndicator$13[ebp]
  00035	ff 25 00 00 00
	00		 jmp	 DWORD PTR __imp_??1?$CStringT@DV?$StrTraitMFC_DLL@DV?$ChTraitsCRT@D@ATL@@@@@ATL@@QAE@XZ
__unwindfunclet$?OnRButtonUpProc@CKTBChartCtrl@@IAEHIVCPoint@@@Z$5:
  0003b	8d 4d e8	 lea	 ecx, DWORD PTR _strMenuString$11[ebp]
  0003e	ff 25 00 00 00
	00		 jmp	 DWORD PTR __imp_??1?$CStringT@DV?$StrTraitMFC_DLL@DV?$ChTraitsCRT@D@ATL@@@@@ATL@@QAE@XZ
__unwindfunclet$?OnRButtonUpProc@CKTBChartCtrl@@IAEHIVCPoint@@@Z$6:
  00044	8d 4d e8	 lea	 ecx, DWORD PTR _strAddIndicator$10[ebp]
  00047	ff 25 00 00 00
	00		 jmp	 DWORD PTR __imp_??1?$CStringT@DV?$StrTraitMFC_DLL@DV?$ChTraitsCRT@D@ATL@@@@@ATL@@QAE@XZ
__unwindfunclet$?OnRButtonUpProc@CKTBChartCtrl@@IAEHIVCPoint@@@Z$7:
  0004d	8d 4d ec	 lea	 ecx, DWORD PTR _strChangeSpecialChart$12[ebp]
  00050	ff 25 00 00 00
	00		 jmp	 DWORD PTR __imp_??1?$CStringT@DV?$StrTraitMFC_DLL@DV?$ChTraitsCRT@D@ATL@@@@@ATL@@QAE@XZ
__unwindfunclet$?OnRButtonUpProc@CKTBChartCtrl@@IAEHIVCPoint@@@Z$8:
  00056	8d 4d e4	 lea	 ecx, DWORD PTR _strMenuName$8[ebp]
  00059	ff 25 00 00 00
	00		 jmp	 DWORD PTR __imp_??1?$CStringT@DV?$StrTraitMFC_DLL@DV?$ChTraitsCRT@D@ATL@@@@@ATL@@QAE@XZ
  0005f	cc		 int	 3
  00060	cc		 int	 3
  00061	cc		 int	 3
  00062	cc		 int	 3
  00063	cc		 int	 3
__ehhandler$?OnRButtonUpProc@CKTBChartCtrl@@IAEHIVCPoint@@@Z:
  00064	90		 npad	 1
  00065	90		 npad	 1
  00066	8b 54 24 08	 mov	 edx, DWORD PTR [esp+8]
  0006a	8d 42 0c	 lea	 eax, DWORD PTR [edx+12]
  0006d	8b 8a 50 ff ff
	ff		 mov	 ecx, DWORD PTR [edx-176]
  00073	33 c8		 xor	 ecx, eax
  00075	e8 00 00 00 00	 call	 @__security_check_cookie@4
  0007a	b8 00 00 00 00	 mov	 eax, OFFSET __ehfuncinfo$?OnRButtonUpProc@CKTBChartCtrl@@IAEHIVCPoint@@@Z
  0007f	e9 00 00 00 00	 jmp	 ___CxxFrameHandler3
text$x	ENDS
?OnRButtonUpProc@CKTBChartCtrl@@IAEHIVCPoint@@@Z ENDP	; CKTBChartCtrl::OnRButtonUpProc
; Function compile flags: /Ogtp
; File D:\git\src\IBK\IBK_DRFN\ProjSrc\SrcChartEx\ChartOCX\KTBChart\KTBChartMouse.cpp
;	COMDAT ?OnRButtonDownProc@CKTBChartCtrl@@IAEXIVCPoint@@@Z
_TEXT	SEGMENT
_dcClient$2 = -32					; size = 20
__$EHRec$ = -12						; size = 12
_nFlags$ = 8						; size = 4
_point$ = 12						; size = 8
?OnRButtonDownProc@CKTBChartCtrl@@IAEXIVCPoint@@@Z PROC	; CKTBChartCtrl::OnRButtonDownProc, COMDAT
; _this$ = ecx

; 375  : {

  00000	55		 push	 ebp
  00001	8b ec		 mov	 ebp, esp
  00003	6a ff		 push	 -1
  00005	68 00 00 00 00	 push	 __ehhandler$?OnRButtonDownProc@CKTBChartCtrl@@IAEXIVCPoint@@@Z
  0000a	64 a1 00 00 00
	00		 mov	 eax, DWORD PTR fs:0
  00010	50		 push	 eax
  00011	83 ec 14	 sub	 esp, 20			; 00000014H
  00014	56		 push	 esi
  00015	57		 push	 edi
  00016	a1 00 00 00 00	 mov	 eax, DWORD PTR ___security_cookie
  0001b	33 c5		 xor	 eax, ebp
  0001d	50		 push	 eax
  0001e	8d 45 f4	 lea	 eax, DWORD PTR __$EHRec$[ebp]
  00021	64 a3 00 00 00
	00		 mov	 DWORD PTR fs:0, eax
  00027	8b f9		 mov	 edi, ecx

; 376  : 	// (2006/1/21 - Seung-Won, Bae) Notify Mouse Move Event to Addin
; 377  : 	if( m_pAddInManager)

  00029	83 bf cc 04 00
	00 00		 cmp	 DWORD PTR [edi+1228], 0
  00030	74 4e		 je	 SHORT $LN2@OnRButtonD

; 378  : 	{
; 379  : 		// Caution! Use Client DC for MsgLoop like TrackPopupMenu()
; 380  : 		//		if GetDC(), The DC Instance can be destroyed. (You may lost the Handle of DC)
; 381  : 		CClientDC dcClient( this);

  00032	57		 push	 edi
  00033	8d 4d e0	 lea	 ecx, DWORD PTR _dcClient$2[ebp]
  00036	e8 00 00 00 00	 call	 ??0CClientDC@@QAE@PAVCWnd@@@Z ; CClientDC::CClientDC

; 382  : 		CFont *pOldFont = dcClient.SelectObject( m_pRscFont);

  0003b	ff b7 b4 04 00
	00		 push	 DWORD PTR [edi+1204]
  00041	8d 4d e0	 lea	 ecx, DWORD PTR _dcClient$2[ebp]
  00044	c7 45 fc 00 00
	00 00		 mov	 DWORD PTR __$EHRec$[ebp+8], 0
  0004b	e8 00 00 00 00	 call	 ?SelectObject@CDC@@UAEPAVCFont@@PAV2@@Z ; CDC::SelectObject

; 383  : 		m_pAddInManager->OnRButtonDown( &dcClient, nFlags, point, m_dwMouseActionID);

  00050	ff b7 f0 04 00
	00		 push	 DWORD PTR [edi+1264]
  00056	8b 8f cc 04 00
	00		 mov	 ecx, DWORD PTR [edi+1228]
  0005c	8b f0		 mov	 esi, eax
  0005e	8d 45 0c	 lea	 eax, DWORD PTR _point$[ebp]
  00061	50		 push	 eax
  00062	ff 75 08	 push	 DWORD PTR _nFlags$[ebp]
  00065	8d 45 e0	 lea	 eax, DWORD PTR _dcClient$2[ebp]
  00068	50		 push	 eax
  00069	ff 15 00 00 00
	00		 call	 DWORD PTR __imp_?OnRButtonDown@CAddInManager@@QAEHPAVCDC@@IAAVCPoint@@K@Z

; 384  : 		dcClient.SelectObject( pOldFont);

  0006f	56		 push	 esi
  00070	8d 4d e0	 lea	 ecx, DWORD PTR _dcClient$2[ebp]
  00073	e8 00 00 00 00	 call	 ?SelectObject@CDC@@UAEPAVCFont@@PAV2@@Z ; CDC::SelectObject

; 385  : 	}

  00078	8d 4d e0	 lea	 ecx, DWORD PTR _dcClient$2[ebp]
  0007b	e8 00 00 00 00	 call	 ??1CClientDC@@UAE@XZ	; CClientDC::~CClientDC
$LN2@OnRButtonD:

; 386  : }

  00080	8b 4d f4	 mov	 ecx, DWORD PTR __$EHRec$[ebp]
  00083	64 89 0d 00 00
	00 00		 mov	 DWORD PTR fs:0, ecx
  0008a	59		 pop	 ecx
  0008b	5f		 pop	 edi
  0008c	5e		 pop	 esi
  0008d	8b e5		 mov	 esp, ebp
  0008f	5d		 pop	 ebp
  00090	c2 0c 00	 ret	 12			; 0000000cH
_TEXT	ENDS
;	COMDAT text$x
text$x	SEGMENT
__unwindfunclet$?OnRButtonDownProc@CKTBChartCtrl@@IAEXIVCPoint@@@Z$0:
  00000	8d 4d e0	 lea	 ecx, DWORD PTR _dcClient$2[ebp]
  00003	e9 00 00 00 00	 jmp	 ??1CClientDC@@UAE@XZ	; CClientDC::~CClientDC
  00008	cc		 int	 3
  00009	cc		 int	 3
  0000a	cc		 int	 3
  0000b	cc		 int	 3
  0000c	cc		 int	 3
__ehhandler$?OnRButtonDownProc@CKTBChartCtrl@@IAEXIVCPoint@@@Z:
  0000d	90		 npad	 1
  0000e	90		 npad	 1
  0000f	8b 54 24 08	 mov	 edx, DWORD PTR [esp+8]
  00013	8d 42 0c	 lea	 eax, DWORD PTR [edx+12]
  00016	8b 4a e0	 mov	 ecx, DWORD PTR [edx-32]
  00019	33 c8		 xor	 ecx, eax
  0001b	e8 00 00 00 00	 call	 @__security_check_cookie@4
  00020	b8 00 00 00 00	 mov	 eax, OFFSET __ehfuncinfo$?OnRButtonDownProc@CKTBChartCtrl@@IAEXIVCPoint@@@Z
  00025	e9 00 00 00 00	 jmp	 ___CxxFrameHandler3
text$x	ENDS
?OnRButtonDownProc@CKTBChartCtrl@@IAEXIVCPoint@@@Z ENDP	; CKTBChartCtrl::OnRButtonDownProc
; Function compile flags: /Ogtp
; File D:\git\src\IBK\IBK_DRFN\ProjSrc\SrcChartEx\ChartOCX\KTBChart\KTBChartMouse.cpp
;	COMDAT ?OnLButtonDblClkProc@CKTBChartCtrl@@IAEXIVCPoint@@@Z
_TEXT	SEGMENT
_dcClient$2 = -32					; size = 20
__$EHRec$ = -12						; size = 12
_nFlags$ = 8						; size = 4
_point$ = 12						; size = 8
?OnLButtonDblClkProc@CKTBChartCtrl@@IAEXIVCPoint@@@Z PROC ; CKTBChartCtrl::OnLButtonDblClkProc, COMDAT
; _this$ = ecx

; 340  : {

  00000	55		 push	 ebp
  00001	8b ec		 mov	 ebp, esp
  00003	6a ff		 push	 -1
  00005	68 00 00 00 00	 push	 __ehhandler$?OnLButtonDblClkProc@CKTBChartCtrl@@IAEXIVCPoint@@@Z
  0000a	64 a1 00 00 00
	00		 mov	 eax, DWORD PTR fs:0
  00010	50		 push	 eax
  00011	83 ec 14	 sub	 esp, 20			; 00000014H
  00014	56		 push	 esi
  00015	57		 push	 edi
  00016	a1 00 00 00 00	 mov	 eax, DWORD PTR ___security_cookie
  0001b	33 c5		 xor	 eax, ebp
  0001d	50		 push	 eax
  0001e	8d 45 f4	 lea	 eax, DWORD PTR __$EHRec$[ebp]
  00021	64 a3 00 00 00
	00		 mov	 DWORD PTR fs:0, eax
  00027	8b f9		 mov	 edi, ecx

; 341  : 	// (2006/1/21 - Seung-Won, Bae) Notify Mouse Move Event to Addin
; 342  : 	if( m_pAddInManager)

  00029	83 bf cc 04 00
	00 00		 cmp	 DWORD PTR [edi+1228], 0
  00030	74 4e		 je	 SHORT $LN2@OnLButtonD

; 343  : 	{
; 344  : 		// Caution! Use Client DC for MsgLoop like TrackPopupMenu()
; 345  : 		//		if GetDC(), The DC Instance can be destroyed. (You may lost the Handle of DC)
; 346  : 		CClientDC dcClient( this);

  00032	57		 push	 edi
  00033	8d 4d e0	 lea	 ecx, DWORD PTR _dcClient$2[ebp]
  00036	e8 00 00 00 00	 call	 ??0CClientDC@@QAE@PAVCWnd@@@Z ; CClientDC::CClientDC

; 347  : 		CFont *pOldFont = dcClient.SelectObject( m_pRscFont);

  0003b	ff b7 b4 04 00
	00		 push	 DWORD PTR [edi+1204]
  00041	8d 4d e0	 lea	 ecx, DWORD PTR _dcClient$2[ebp]
  00044	c7 45 fc 00 00
	00 00		 mov	 DWORD PTR __$EHRec$[ebp+8], 0
  0004b	e8 00 00 00 00	 call	 ?SelectObject@CDC@@UAEPAVCFont@@PAV2@@Z ; CDC::SelectObject

; 348  : 		BOOL bRet = m_pAddInManager->OnLButtonDblClk( &dcClient, nFlags, point, m_dwMouseActionID);

  00050	ff b7 f0 04 00
	00		 push	 DWORD PTR [edi+1264]
  00056	8b 8f cc 04 00
	00		 mov	 ecx, DWORD PTR [edi+1228]
  0005c	8b f0		 mov	 esi, eax
  0005e	8d 45 0c	 lea	 eax, DWORD PTR _point$[ebp]
  00061	50		 push	 eax
  00062	ff 75 08	 push	 DWORD PTR _nFlags$[ebp]
  00065	8d 45 e0	 lea	 eax, DWORD PTR _dcClient$2[ebp]
  00068	50		 push	 eax
  00069	ff 15 00 00 00
	00		 call	 DWORD PTR __imp_?OnLButtonDblClk@CAddInManager@@QAEHPAVCDC@@IAAVCPoint@@K@Z

; 349  : 		dcClient.SelectObject( pOldFont);

  0006f	56		 push	 esi
  00070	8d 4d e0	 lea	 ecx, DWORD PTR _dcClient$2[ebp]
  00073	e8 00 00 00 00	 call	 ?SelectObject@CDC@@UAEPAVCFont@@PAV2@@Z ; CDC::SelectObject

; 350  : 	}

  00078	8d 4d e0	 lea	 ecx, DWORD PTR _dcClient$2[ebp]
  0007b	e8 00 00 00 00	 call	 ??1CClientDC@@UAE@XZ	; CClientDC::~CClientDC
$LN2@OnLButtonD:

; 351  : }

  00080	8b 4d f4	 mov	 ecx, DWORD PTR __$EHRec$[ebp]
  00083	64 89 0d 00 00
	00 00		 mov	 DWORD PTR fs:0, ecx
  0008a	59		 pop	 ecx
  0008b	5f		 pop	 edi
  0008c	5e		 pop	 esi
  0008d	8b e5		 mov	 esp, ebp
  0008f	5d		 pop	 ebp
  00090	c2 0c 00	 ret	 12			; 0000000cH
_TEXT	ENDS
;	COMDAT text$x
text$x	SEGMENT
__unwindfunclet$?OnLButtonDblClkProc@CKTBChartCtrl@@IAEXIVCPoint@@@Z$0:
  00000	8d 4d e0	 lea	 ecx, DWORD PTR _dcClient$2[ebp]
  00003	e9 00 00 00 00	 jmp	 ??1CClientDC@@UAE@XZ	; CClientDC::~CClientDC
  00008	cc		 int	 3
  00009	cc		 int	 3
  0000a	cc		 int	 3
  0000b	cc		 int	 3
  0000c	cc		 int	 3
__ehhandler$?OnLButtonDblClkProc@CKTBChartCtrl@@IAEXIVCPoint@@@Z:
  0000d	90		 npad	 1
  0000e	90		 npad	 1
  0000f	8b 54 24 08	 mov	 edx, DWORD PTR [esp+8]
  00013	8d 42 0c	 lea	 eax, DWORD PTR [edx+12]
  00016	8b 4a e0	 mov	 ecx, DWORD PTR [edx-32]
  00019	33 c8		 xor	 ecx, eax
  0001b	e8 00 00 00 00	 call	 @__security_check_cookie@4
  00020	b8 00 00 00 00	 mov	 eax, OFFSET __ehfuncinfo$?OnLButtonDblClkProc@CKTBChartCtrl@@IAEXIVCPoint@@@Z
  00025	e9 00 00 00 00	 jmp	 ___CxxFrameHandler3
text$x	ENDS
?OnLButtonDblClkProc@CKTBChartCtrl@@IAEXIVCPoint@@@Z ENDP ; CKTBChartCtrl::OnLButtonDblClkProc
; Function compile flags: /Ogtp
; File D:\git\src\IBK\IBK_DRFN\ProjSrc\SrcChartEx\ChartOCX\KTBChart\KTBChartMouse.cpp
;	COMDAT ?OnLButtonUpProc@CKTBChartCtrl@@IAEXIVCPoint@@@Z
_TEXT	SEGMENT
_dcClient$2 = -32					; size = 20
__$EHRec$ = -12						; size = 12
_nFlags$ = 8						; size = 4
_point$ = 12						; size = 8
?OnLButtonUpProc@CKTBChartCtrl@@IAEXIVCPoint@@@Z PROC	; CKTBChartCtrl::OnLButtonUpProc, COMDAT
; _this$ = ecx

; 292  : {

  00000	55		 push	 ebp
  00001	8b ec		 mov	 ebp, esp
  00003	6a ff		 push	 -1
  00005	68 00 00 00 00	 push	 __ehhandler$?OnLButtonUpProc@CKTBChartCtrl@@IAEXIVCPoint@@@Z
  0000a	64 a1 00 00 00
	00		 mov	 eax, DWORD PTR fs:0
  00010	50		 push	 eax
  00011	83 ec 14	 sub	 esp, 20			; 00000014H
  00014	56		 push	 esi
  00015	57		 push	 edi
  00016	a1 00 00 00 00	 mov	 eax, DWORD PTR ___security_cookie
  0001b	33 c5		 xor	 eax, ebp
  0001d	50		 push	 eax
  0001e	8d 45 f4	 lea	 eax, DWORD PTR __$EHRec$[ebp]
  00021	64 a3 00 00 00
	00		 mov	 DWORD PTR fs:0, eax
  00027	8b f9		 mov	 edi, ecx

; 293  : 	// (2006/1/17 - Seung-Won, Bae) Notify Mouse LButton Up Event to Addin
; 294  : 	if( m_pAddInManager)

  00029	83 bf cc 04 00
	00 00		 cmp	 DWORD PTR [edi+1228], 0
  00030	74 4e		 je	 SHORT $LN2@OnLButtonU

; 295  : 	{
; 296  : 		// Caution! Use Client DC for MsgLoop like TrackPopupMenu()
; 297  : 		//		if GetDC(), The DC Instance can be destroyed. (You may lost the Handle of DC)
; 298  : 		CClientDC dcClient( this);

  00032	57		 push	 edi
  00033	8d 4d e0	 lea	 ecx, DWORD PTR _dcClient$2[ebp]
  00036	e8 00 00 00 00	 call	 ??0CClientDC@@QAE@PAVCWnd@@@Z ; CClientDC::CClientDC

; 299  : 		CFont *pOldFont = dcClient.SelectObject( m_pRscFont);

  0003b	ff b7 b4 04 00
	00		 push	 DWORD PTR [edi+1204]
  00041	8d 4d e0	 lea	 ecx, DWORD PTR _dcClient$2[ebp]
  00044	c7 45 fc 00 00
	00 00		 mov	 DWORD PTR __$EHRec$[ebp+8], 0
  0004b	e8 00 00 00 00	 call	 ?SelectObject@CDC@@UAEPAVCFont@@PAV2@@Z ; CDC::SelectObject

; 300  : 		m_pAddInManager->OnLButtonUp( &dcClient, nFlags, point, m_dwMouseActionID);

  00050	ff b7 f0 04 00
	00		 push	 DWORD PTR [edi+1264]
  00056	8b 8f cc 04 00
	00		 mov	 ecx, DWORD PTR [edi+1228]
  0005c	8b f0		 mov	 esi, eax
  0005e	8d 45 0c	 lea	 eax, DWORD PTR _point$[ebp]
  00061	50		 push	 eax
  00062	ff 75 08	 push	 DWORD PTR _nFlags$[ebp]
  00065	8d 45 e0	 lea	 eax, DWORD PTR _dcClient$2[ebp]
  00068	50		 push	 eax
  00069	ff 15 00 00 00
	00		 call	 DWORD PTR __imp_?OnLButtonUp@CAddInManager@@QAEHPAVCDC@@IAAVCPoint@@K@Z

; 301  : 		dcClient.SelectObject( pOldFont);

  0006f	56		 push	 esi
  00070	8d 4d e0	 lea	 ecx, DWORD PTR _dcClient$2[ebp]
  00073	e8 00 00 00 00	 call	 ?SelectObject@CDC@@UAEPAVCFont@@PAV2@@Z ; CDC::SelectObject

; 302  : 	}

  00078	8d 4d e0	 lea	 ecx, DWORD PTR _dcClient$2[ebp]
  0007b	e8 00 00 00 00	 call	 ??1CClientDC@@UAE@XZ	; CClientDC::~CClientDC
$LN2@OnLButtonU:

; 303  : }

  00080	8b 4d f4	 mov	 ecx, DWORD PTR __$EHRec$[ebp]
  00083	64 89 0d 00 00
	00 00		 mov	 DWORD PTR fs:0, ecx
  0008a	59		 pop	 ecx
  0008b	5f		 pop	 edi
  0008c	5e		 pop	 esi
  0008d	8b e5		 mov	 esp, ebp
  0008f	5d		 pop	 ebp
  00090	c2 0c 00	 ret	 12			; 0000000cH
_TEXT	ENDS
;	COMDAT text$x
text$x	SEGMENT
__unwindfunclet$?OnLButtonUpProc@CKTBChartCtrl@@IAEXIVCPoint@@@Z$0:
  00000	8d 4d e0	 lea	 ecx, DWORD PTR _dcClient$2[ebp]
  00003	e9 00 00 00 00	 jmp	 ??1CClientDC@@UAE@XZ	; CClientDC::~CClientDC
  00008	cc		 int	 3
  00009	cc		 int	 3
  0000a	cc		 int	 3
  0000b	cc		 int	 3
  0000c	cc		 int	 3
__ehhandler$?OnLButtonUpProc@CKTBChartCtrl@@IAEXIVCPoint@@@Z:
  0000d	90		 npad	 1
  0000e	90		 npad	 1
  0000f	8b 54 24 08	 mov	 edx, DWORD PTR [esp+8]
  00013	8d 42 0c	 lea	 eax, DWORD PTR [edx+12]
  00016	8b 4a e0	 mov	 ecx, DWORD PTR [edx-32]
  00019	33 c8		 xor	 ecx, eax
  0001b	e8 00 00 00 00	 call	 @__security_check_cookie@4
  00020	b8 00 00 00 00	 mov	 eax, OFFSET __ehfuncinfo$?OnLButtonUpProc@CKTBChartCtrl@@IAEXIVCPoint@@@Z
  00025	e9 00 00 00 00	 jmp	 ___CxxFrameHandler3
text$x	ENDS
?OnLButtonUpProc@CKTBChartCtrl@@IAEXIVCPoint@@@Z ENDP	; CKTBChartCtrl::OnLButtonUpProc
; Function compile flags: /Ogtp
; File D:\git\src\IBK\IBK_DRFN\ProjSrc\SrcChartEx\ChartOCX\KTBChart\KTBChartMouse.cpp
;	COMDAT ?OnLButtonDownProc@CKTBChartCtrl@@IAEXIVCPoint@@@Z
_TEXT	SEGMENT
_dcClient$2 = -32					; size = 20
__$EHRec$ = -12						; size = 12
_nFlags$ = 8						; size = 4
_point$ = 12						; size = 8
?OnLButtonDownProc@CKTBChartCtrl@@IAEXIVCPoint@@@Z PROC	; CKTBChartCtrl::OnLButtonDownProc, COMDAT
; _this$ = ecx

; 257  : {

  00000	55		 push	 ebp
  00001	8b ec		 mov	 ebp, esp
  00003	6a ff		 push	 -1
  00005	68 00 00 00 00	 push	 __ehhandler$?OnLButtonDownProc@CKTBChartCtrl@@IAEXIVCPoint@@@Z
  0000a	64 a1 00 00 00
	00		 mov	 eax, DWORD PTR fs:0
  00010	50		 push	 eax
  00011	83 ec 14	 sub	 esp, 20			; 00000014H
  00014	56		 push	 esi
  00015	57		 push	 edi
  00016	a1 00 00 00 00	 mov	 eax, DWORD PTR ___security_cookie
  0001b	33 c5		 xor	 eax, ebp
  0001d	50		 push	 eax
  0001e	8d 45 f4	 lea	 eax, DWORD PTR __$EHRec$[ebp]
  00021	64 a3 00 00 00
	00		 mov	 DWORD PTR fs:0, eax
  00027	8b f9		 mov	 edi, ecx

; 258  : 	// (2006/1/17 - Seung-Won, Bae) Notify Mouse LButton Down Event to Addin
; 259  : 	if( m_pAddInManager)

  00029	83 bf cc 04 00
	00 00		 cmp	 DWORD PTR [edi+1228], 0
  00030	74 4e		 je	 SHORT $LN2@OnLButtonD

; 260  : 	{
; 261  : 		// Caution! Use Client DC for MsgLoop like TrackPopupMenu()
; 262  : 		//		if GetDC(), The DC Instance can be destroyed. (You may lost the Handle of DC)
; 263  : 		CClientDC dcClient( this);

  00032	57		 push	 edi
  00033	8d 4d e0	 lea	 ecx, DWORD PTR _dcClient$2[ebp]
  00036	e8 00 00 00 00	 call	 ??0CClientDC@@QAE@PAVCWnd@@@Z ; CClientDC::CClientDC

; 264  : 		CFont *pOldFont = dcClient.SelectObject( m_pRscFont);

  0003b	ff b7 b4 04 00
	00		 push	 DWORD PTR [edi+1204]
  00041	8d 4d e0	 lea	 ecx, DWORD PTR _dcClient$2[ebp]
  00044	c7 45 fc 00 00
	00 00		 mov	 DWORD PTR __$EHRec$[ebp+8], 0
  0004b	e8 00 00 00 00	 call	 ?SelectObject@CDC@@UAEPAVCFont@@PAV2@@Z ; CDC::SelectObject

; 265  : 		m_pAddInManager->OnLButtonDown( &dcClient, nFlags, point, m_dwMouseActionID);

  00050	ff b7 f0 04 00
	00		 push	 DWORD PTR [edi+1264]
  00056	8b 8f cc 04 00
	00		 mov	 ecx, DWORD PTR [edi+1228]
  0005c	8b f0		 mov	 esi, eax
  0005e	8d 45 0c	 lea	 eax, DWORD PTR _point$[ebp]
  00061	50		 push	 eax
  00062	ff 75 08	 push	 DWORD PTR _nFlags$[ebp]
  00065	8d 45 e0	 lea	 eax, DWORD PTR _dcClient$2[ebp]
  00068	50		 push	 eax
  00069	ff 15 00 00 00
	00		 call	 DWORD PTR __imp_?OnLButtonDown@CAddInManager@@QAEHPAVCDC@@IAAVCPoint@@K@Z

; 266  : 		dcClient.SelectObject( pOldFont);

  0006f	56		 push	 esi
  00070	8d 4d e0	 lea	 ecx, DWORD PTR _dcClient$2[ebp]
  00073	e8 00 00 00 00	 call	 ?SelectObject@CDC@@UAEPAVCFont@@PAV2@@Z ; CDC::SelectObject

; 267  : 	}

  00078	8d 4d e0	 lea	 ecx, DWORD PTR _dcClient$2[ebp]
  0007b	e8 00 00 00 00	 call	 ??1CClientDC@@UAE@XZ	; CClientDC::~CClientDC
$LN2@OnLButtonD:

; 268  : }

  00080	8b 4d f4	 mov	 ecx, DWORD PTR __$EHRec$[ebp]
  00083	64 89 0d 00 00
	00 00		 mov	 DWORD PTR fs:0, ecx
  0008a	59		 pop	 ecx
  0008b	5f		 pop	 edi
  0008c	5e		 pop	 esi
  0008d	8b e5		 mov	 esp, ebp
  0008f	5d		 pop	 ebp
  00090	c2 0c 00	 ret	 12			; 0000000cH
_TEXT	ENDS
;	COMDAT text$x
text$x	SEGMENT
__unwindfunclet$?OnLButtonDownProc@CKTBChartCtrl@@IAEXIVCPoint@@@Z$0:
  00000	8d 4d e0	 lea	 ecx, DWORD PTR _dcClient$2[ebp]
  00003	e9 00 00 00 00	 jmp	 ??1CClientDC@@UAE@XZ	; CClientDC::~CClientDC
  00008	cc		 int	 3
  00009	cc		 int	 3
  0000a	cc		 int	 3
  0000b	cc		 int	 3
  0000c	cc		 int	 3
__ehhandler$?OnLButtonDownProc@CKTBChartCtrl@@IAEXIVCPoint@@@Z:
  0000d	90		 npad	 1
  0000e	90		 npad	 1
  0000f	8b 54 24 08	 mov	 edx, DWORD PTR [esp+8]
  00013	8d 42 0c	 lea	 eax, DWORD PTR [edx+12]
  00016	8b 4a e0	 mov	 ecx, DWORD PTR [edx-32]
  00019	33 c8		 xor	 ecx, eax
  0001b	e8 00 00 00 00	 call	 @__security_check_cookie@4
  00020	b8 00 00 00 00	 mov	 eax, OFFSET __ehfuncinfo$?OnLButtonDownProc@CKTBChartCtrl@@IAEXIVCPoint@@@Z
  00025	e9 00 00 00 00	 jmp	 ___CxxFrameHandler3
text$x	ENDS
?OnLButtonDownProc@CKTBChartCtrl@@IAEXIVCPoint@@@Z ENDP	; CKTBChartCtrl::OnLButtonDownProc
; Function compile flags: /Ogtp
; File D:\git\src\IBK\IBK_DRFN\ProjSrc\SrcChartEx\ChartOCX\KTBChart\KTBChartMouse.cpp
;	COMDAT ?RemoveSetCapture@CKTBChartCtrl@@QAEHXZ
_TEXT	SEGMENT
?RemoveSetCapture@CKTBChartCtrl@@QAEHXZ PROC		; CKTBChartCtrl::RemoveSetCapture, COMDAT
; _this$ = ecx

; 143  : 	if( m_nMouseCaptureCount <= 0) return FALSE;

  00000	8b 81 ec 04 00
	00		 mov	 eax, DWORD PTR [ecx+1260]
  00006	85 c0		 test	 eax, eax
  00008	7f 03		 jg	 SHORT $LN2@RemoveSetC
  0000a	33 c0		 xor	 eax, eax

; 156  : }

  0000c	c3		 ret	 0
$LN2@RemoveSetC:

; 144  : 
; 145  : TRACE( "Before ReleaseCapture : %d\r\n", m_nMouseCaptureCount);
; 146  : 
; 147  : 	// 1.  Capturing .
; 148  : 	BOOL bResult = TRUE;

  0000d	ba 01 00 00 00	 mov	 edx, 1

; 149  : 	if( m_nMouseCaptureCount == 1) bResult = ReleaseCapture();	// ReleaseCapture OnCaptureChanged m_nMouseCaptureCount  .

  00012	3b c2		 cmp	 eax, edx
  00014	75 08		 jne	 SHORT $LN3@RemoveSetC
  00016	e8 00 00 00 00	 call	 ?ReleaseCapture@COleControl@@QAEHXZ ; COleControl::ReleaseCapture
  0001b	8b d0		 mov	 edx, eax

; 156  : }

  0001d	c3		 ret	 0
$LN3@RemoveSetC:

; 150  : 	else m_nMouseCaptureCount--;								// 0. Capturing Counter . 

  0001e	48		 dec	 eax
  0001f	89 81 ec 04 00
	00		 mov	 DWORD PTR [ecx+1260], eax

; 151  : 
; 152  : TRACE( "After ReleaseCapture : %d\r\n", m_nMouseCaptureCount);
; 153  : 
; 154  : 	// 2.  Capturing  .
; 155  : 	return bResult;

  00025	8b c2		 mov	 eax, edx

; 156  : }

  00027	c3		 ret	 0
?RemoveSetCapture@CKTBChartCtrl@@QAEHXZ ENDP		; CKTBChartCtrl::RemoveSetCapture
_TEXT	ENDS
; Function compile flags: /Ogtp
; File D:\git\src\IBK\IBK_DRFN\ProjSrc\SrcChartEx\ChartOCX\KTBChart\KTBChartMouse.cpp
;	COMDAT ?AddSetCapture@CKTBChartCtrl@@QAEPAVCWnd@@XZ
_TEXT	SEGMENT
?AddSetCapture@CKTBChartCtrl@@QAEPAVCWnd@@XZ PROC	; CKTBChartCtrl::AddSetCapture, COMDAT
; _this$ = ecx

; 124  : {

  00000	8b c1		 mov	 eax, ecx

; 125  : 	CWnd *pWnd = this;	// Set for SetCapturing Already.
; 126  : 
; 127  : TRACE( "Before SetCapture : %d\r\n", m_nMouseCaptureCount);
; 128  : 
; 129  : 	// 1.  Capturing .
; 130  : 	if( m_nMouseCaptureCount == 0) pWnd = SetCapture();

  00002	8b 88 ec 04 00
	00		 mov	 ecx, DWORD PTR [eax+1260]
  00008	56		 push	 esi
  00009	8d b0 ec 04 00
	00		 lea	 esi, DWORD PTR [eax+1260]
  0000f	85 c9		 test	 ecx, ecx
  00011	75 09		 jne	 SHORT $LN2@AddSetCapt
  00013	8b c8		 mov	 ecx, eax
  00015	e8 00 00 00 00	 call	 ?SetCapture@COleControl@@QAEPAVCWnd@@XZ ; COleControl::SetCapture
  0001a	8b 0e		 mov	 ecx, DWORD PTR [esi]
$LN2@AddSetCapt:

; 131  : 
; 132  : 	// 1. Capturing Counter .
; 133  : 	m_nMouseCaptureCount++;

  0001c	41		 inc	 ecx
  0001d	89 0e		 mov	 DWORD PTR [esi], ecx

; 134  : 
; 135  : TRACE( "After SetCapture : %d\r\n", m_nMouseCaptureCount);
; 136  : 
; 137  : 	// 3.  Capturing  .
; 138  : 	return pWnd;

  0001f	5e		 pop	 esi

; 139  : }

  00020	c3		 ret	 0
?AddSetCapture@CKTBChartCtrl@@QAEPAVCWnd@@XZ ENDP	; CKTBChartCtrl::AddSetCapture
_TEXT	ENDS
; Function compile flags: /Ogtp
; File D:\git\src\IBK\IBK_DRFN\ProjSrc\SrcChartEx\ChartOCX\KTBChart\KTBChartMouse.cpp
; File C:\Program Files (x86)\Microsoft Visual Studio\2019\Community\VC\Tools\MSVC\14.29.30133\atlmfc\include\afxwin2.inl
; File D:\git\src\IBK\IBK_DRFN\ProjSrc\SrcChartEx\ChartOCX\KTBChart\KTBChartMouse.cpp
; File C:\Program Files (x86)\Microsoft Visual Studio\2019\Community\VC\Tools\MSVC\14.29.30133\atlmfc\include\afxwin2.inl
; File D:\git\src\IBK\IBK_DRFN\ProjSrc\SrcChartEx\ChartOCX\KTBChart\KTBChartMouse.cpp
;	COMDAT ?SetCursorHandle@CKTBChartCtrl@@QAEPAUHICON__@@PAU2@@Z
_TEXT	SEGMENT
_p_hNewCursor$ = 8					; size = 4
?SetCursorHandle@CKTBChartCtrl@@QAEPAUHICON__@@PAU2@@Z PROC ; CKTBChartCtrl::SetCursorHandle, COMDAT
; _this$ = ecx

; 100  : {

  00000	55		 push	 ebp
  00001	8b ec		 mov	 ebp, esp

; 105  : 	m_hCursor = p_hNewCursor;

  00003	8b 55 08	 mov	 edx, DWORD PTR _p_hNewCursor$[ebp]
  00006	56		 push	 esi
  00007	8b b1 e8 04 00
	00		 mov	 esi, DWORD PTR [ecx+1256]
; File C:\Program Files (x86)\Microsoft Visual Studio\2019\Community\VC\Tools\MSVC\14.29.30133\atlmfc\include\afxwin2.inl

; 32   : 	{ ASSERT(::IsWindow(m_hWnd)); return ::SendMessage(m_hWnd, message, wParam, lParam); }

  0000d	6a 00		 push	 0
; File D:\git\src\IBK\IBK_DRFN\ProjSrc\SrcChartEx\ChartOCX\KTBChart\KTBChartMouse.cpp

; 105  : 	m_hCursor = p_hNewCursor;

  0000f	89 91 e8 04 00
	00		 mov	 DWORD PTR [ecx+1256], edx
; File C:\Program Files (x86)\Microsoft Visual Studio\2019\Community\VC\Tools\MSVC\14.29.30133\atlmfc\include\afxwin2.inl

; 25   : 	{ return this == NULL ? NULL : m_hWnd; }

  00015	8b 49 20	 mov	 ecx, DWORD PTR [ecx+32]

; 32   : 	{ ASSERT(::IsWindow(m_hWnd)); return ::SendMessage(m_hWnd, message, wParam, lParam); }

  00018	51		 push	 ecx
  00019	6a 20		 push	 32			; 00000020H
  0001b	51		 push	 ecx
  0001c	ff 15 00 00 00
	00		 call	 DWORD PTR __imp__SendMessageA@16
; File D:\git\src\IBK\IBK_DRFN\ProjSrc\SrcChartEx\ChartOCX\KTBChart\KTBChartMouse.cpp

; 111  : 	return hOldCursor;

  00022	8b c6		 mov	 eax, esi
  00024	5e		 pop	 esi

; 112  : }

  00025	5d		 pop	 ebp
  00026	c2 04 00	 ret	 4
?SetCursorHandle@CKTBChartCtrl@@QAEPAUHICON__@@PAU2@@Z ENDP ; CKTBChartCtrl::SetCursorHandle
_TEXT	ENDS
; Function compile flags: /Ogtp
; File D:\git\src\IBK\IBK_DRFN\ProjSrc\SrcChartEx\ChartOCX\KTBChart\KTBChartMouse.cpp
; File C:\Program Files (x86)\Microsoft Visual Studio\2019\Community\VC\Tools\MSVC\14.29.30133\atlmfc\include\afxwin1.inl
; File D:\git\src\IBK\IBK_DRFN\ProjSrc\SrcChartEx\ChartOCX\Include_Chart\Dll_Load\IMetaTable.h
; File C:\Program Files (x86)\Microsoft Visual Studio\2019\Community\VC\Tools\MSVC\14.29.30133\atlmfc\include\afxwin1.inl
; File D:\git\src\IBK\IBK_DRFN\ProjSrc\SrcChartEx\ChartOCX\KTBChart\KTBChartMouse.cpp
; File C:\Program Files (x86)\Microsoft Visual Studio\2019\Community\VC\Tools\MSVC\14.29.30133\atlmfc\include\afxwin1.inl
; File D:\git\src\IBK\IBK_DRFN\ProjSrc\SrcChartEx\ChartOCX\KTBChart\KTBChartMouse.cpp
; File C:\Program Files (x86)\Microsoft Visual Studio\2019\Community\VC\Tools\MSVC\14.29.30133\atlmfc\include\afxwin1.inl
; File D:\git\src\IBK\IBK_DRFN\ProjSrc\SrcChartEx\ChartOCX\KTBChart\KTBChartMouse.cpp
; File D:\git\src\IBK\IBK_DRFN\ProjSrc\SrcChartEx\ChartOCX\Include_Chart\Dll_Load\IMetaTable.h
; File C:\Program Files (x86)\Microsoft Visual Studio\2019\Community\VC\Tools\MSVC\14.29.30133\atlmfc\include\afxwin1.inl
; File C:\Program Files (x86)\Microsoft Visual Studio\2019\Community\VC\Tools\MSVC\14.29.30133\atlmfc\include\afxwin2.inl
; File D:\git\src\IBK\IBK_DRFN\ProjSrc\SrcChartEx\ChartOCX\KTBChart\KTBChartMouse.cpp
;	COMDAT ?OnCursorExchange@CKTBChartCtrl@@IAEJIJ@Z
_TEXT	SEGMENT
_this$1$ = -16						; size = 4
__$EHRec$ = -12						; size = 12
___mlrs__$2 = 8						; size = 4
_wParam$ = 8						; size = 4
_lParam$ = 12						; size = 4
?OnCursorExchange@CKTBChartCtrl@@IAEJIJ@Z PROC		; CKTBChartCtrl::OnCursorExchange, COMDAT
; _this$ = ecx

; 47   : {

  00000	55		 push	 ebp
  00001	8b ec		 mov	 ebp, esp
  00003	6a ff		 push	 -1
  00005	68 00 00 00 00	 push	 __ehhandler$?OnCursorExchange@CKTBChartCtrl@@IAEJIJ@Z
  0000a	64 a1 00 00 00
	00		 mov	 eax, DWORD PTR fs:0
  00010	50		 push	 eax
  00011	51		 push	 ecx
  00012	53		 push	 ebx
  00013	56		 push	 esi
  00014	57		 push	 edi
  00015	a1 00 00 00 00	 mov	 eax, DWORD PTR ___security_cookie
  0001a	33 c5		 xor	 eax, ebp
  0001c	50		 push	 eax
  0001d	8d 45 f4	 lea	 eax, DWORD PTR __$EHRec$[ebp]
  00020	64 a3 00 00 00
	00		 mov	 DWORD PTR fs:0, eax
  00026	8b c1		 mov	 eax, ecx
  00028	89 45 f0	 mov	 DWORD PTR _this$1$[ebp], eax

; 48   : 	// 1.  Cursor Type   Cursor Loading .
; 49   : 	if( wParam == CCursorShape::OBJECT_NONE)

  0002b	8b 4d 08	 mov	 ecx, DWORD PTR _wParam$[ebp]
  0002e	85 c9		 test	 ecx, ecx
  00030	75 0b		 jne	 SHORT $LN4@OnCursorEx

; 50   : 	{
; 51   : 		m_hCursor = NULL;

  00032	89 88 e8 04 00
	00		 mov	 DWORD PTR [eax+1256], ecx

; 52   : 		TRACE( "\r\nCursor cleared in CKTBChartCtrl::OnCursorExchange()");
; 53   : 	}

  00038	e9 ae 00 00 00	 jmp	 $LN29@OnCursorEx
$LN4@OnCursorEx:

; 54   : 	else
; 55   : 	{
; 56   : 		// 1.1   Cursor Type  Resource ID .
; 57   : 		WORD wCursorID = 0;
; 58   : 		switch( wParam)

  0003d	49		 dec	 ecx
  0003e	33 db		 xor	 ebx, ebx
  00040	83 f9 0c	 cmp	 ecx, 12			; 0000000cH
  00043	77 59		 ja	 SHORT $LN2@OnCursorEx
  00045	ff 24 8d 00 00
	00 00		 jmp	 DWORD PTR $LN39@OnCursorEx[ecx*4]
$LN6@OnCursorEx:

; 59   : 		{
; 60   : 			case CCursorShape::BLOCKPOS_SPLITH:	wCursorID = IDC_SPLITV;

  0004c	bb df 00 00 00	 mov	 ebx, 223		; 000000dfH

; 61   : 												break;

  00051	eb 4b		 jmp	 SHORT $LN2@OnCursorEx
$LN7@OnCursorEx:

; 62   : 			case CCursorShape::BLOCKPOS_SPLITV:	wCursorID = IDC_SPLITH;

  00053	bb de 00 00 00	 mov	 ebx, 222		; 000000deH

; 63   : 												break;

  00058	eb 44		 jmp	 SHORT $LN2@OnCursorEx
$LN8@OnCursorEx:

; 64   : 			case CCursorShape::BLOCKPOS_SPLITA:	wCursorID = IDC_SPLITA;

  0005a	bb dd 00 00 00	 mov	 ebx, 221		; 000000ddH

; 65   : 												break;

  0005f	eb 3d		 jmp	 SHORT $LN2@OnCursorEx
$LN9@OnCursorEx:

; 66   : 			case CCursorShape::OBJECT_SELECT:	wCursorID = IDC_HANDLE;

  00061	bb d4 00 00 00	 mov	 ebx, 212		; 000000d4H

; 67   : 												break;

  00066	eb 36		 jmp	 SHORT $LN2@OnCursorEx
$LN10@OnCursorEx:

; 68   : 			case CCursorShape::OBJECT_MOVE:		wCursorID = IDC_GRAB;

  00068	bb d2 00 00 00	 mov	 ebx, 210		; 000000d2H

; 69   : 												break;

  0006d	eb 2f		 jmp	 SHORT $LN2@OnCursorEx
$LN11@OnCursorEx:

; 70   : 			case CCursorShape::VIEW_ZOOM_IN:	wCursorID = IDC_ZOOMIN;

  0006f	bb e0 00 00 00	 mov	 ebx, 224		; 000000e0H

; 71   : 												break;

  00074	eb 28		 jmp	 SHORT $LN2@OnCursorEx
$LN12@OnCursorEx:

; 72   : 			case CCursorShape::WHOLE_VIEW:		wCursorID = IDC_WHOLEVIEW;

  00076	bb e1 00 00 00	 mov	 ebx, 225		; 000000e1H

; 73   : 												break;

  0007b	eb 21		 jmp	 SHORT $LN2@OnCursorEx
$LN13@OnCursorEx:

; 74   : 			case CCursorShape::TOOL_DRAW:		wCursorID = IDC_PEN;

  0007d	bb dc 00 00 00	 mov	 ebx, 220		; 000000dcH

; 75   : 												break;

  00082	eb 1a		 jmp	 SHORT $LN2@OnCursorEx
$LN14@OnCursorEx:

; 76   : 			case CCursorShape::TOOL_SIZEALL:	wCursorID = IDC_MOVEALL;

  00084	bb d6 00 00 00	 mov	 ebx, 214		; 000000d6H

; 77   : 												break;

  00089	eb 13		 jmp	 SHORT $LN2@OnCursorEx
$LN15@OnCursorEx:

; 78   : 			case CCursorShape::TOOL_SIZENESW:	wCursorID = IDC_MOVENESW;

  0008b	bb d7 00 00 00	 mov	 ebx, 215		; 000000d7H

; 79   : 												break;

  00090	eb 0c		 jmp	 SHORT $LN2@OnCursorEx
$LN16@OnCursorEx:

; 80   : 			case CCursorShape::TOOL_NODROP:		wCursorID = IDC_NODROP;

  00092	bb db 00 00 00	 mov	 ebx, 219		; 000000dbH

; 81   : 												break;

  00097	eb 05		 jmp	 SHORT $LN2@OnCursorEx
$LN17@OnCursorEx:

; 82   : 			case CCursorShape::OBJECT_REMOVE:	wCursorID = IDC_REMOVE;

  00099	bb e2 00 00 00	 mov	 ebx, 226		; 000000e2H
$LN2@OnCursorEx:

; 86   : 		ML_SET_DEFAULT_RES();

  0009e	e8 00 00 00 00	 call	 ?AfxGetStaticModuleState@@YGPAVAFX_MODULE_STATE@@XZ ; AfxGetStaticModuleState
  000a3	8b 78 08	 mov	 edi, DWORD PTR [eax+8]
; File C:\Program Files (x86)\Microsoft Visual Studio\2019\Community\VC\Tools\MSVC\14.29.30133\atlmfc\include\afxwin1.inl

; 25   : 		return afxCurrentResourceHandle; }

  000a6	e8 00 00 00 00	 call	 ?AfxGetModuleState@@YGPAVAFX_MODULE_STATE@@XZ ; AfxGetModuleState
; File D:\git\src\IBK\IBK_DRFN\ProjSrc\SrcChartEx\ChartOCX\Include_Chart\Dll_Load\IMetaTable.h

; 1032 : 		m_hInstance = AfxGetResourceHandle();

  000ab	8b 70 0c	 mov	 esi, DWORD PTR [eax+12]
  000ae	89 75 08	 mov	 DWORD PTR ___mlrs__$2[ebp], esi
; File C:\Program Files (x86)\Microsoft Visual Studio\2019\Community\VC\Tools\MSVC\14.29.30133\atlmfc\include\afxwin1.inl

; 27   : 	{ ASSERT(hInstResource != NULL); afxCurrentResourceHandle = hInstResource; }

  000b1	e8 00 00 00 00	 call	 ?AfxGetModuleState@@YGPAVAFX_MODULE_STATE@@XZ ; AfxGetModuleState
  000b6	89 78 0c	 mov	 DWORD PTR [eax+12], edi
; File D:\git\src\IBK\IBK_DRFN\ProjSrc\SrcChartEx\ChartOCX\KTBChart\KTBChartMouse.cpp

; 86   : 		ML_SET_DEFAULT_RES();

  000b9	c7 45 fc 00 00
	00 00		 mov	 DWORD PTR __$EHRec$[ebp+8], 0
; File C:\Program Files (x86)\Microsoft Visual Studio\2019\Community\VC\Tools\MSVC\14.29.30133\atlmfc\include\afxwin1.inl

; 22   : 		return afxCurrentInstanceHandle; }

  000c0	e8 00 00 00 00	 call	 ?AfxGetModuleState@@YGPAVAFX_MODULE_STATE@@XZ ; AfxGetModuleState
; File D:\git\src\IBK\IBK_DRFN\ProjSrc\SrcChartEx\ChartOCX\KTBChart\KTBChartMouse.cpp

; 87   : 		m_hCursor = ::LoadCursor( AfxGetInstanceHandle(), MAKEINTRESOURCE( wCursorID));

  000c5	53		 push	 ebx
; File C:\Program Files (x86)\Microsoft Visual Studio\2019\Community\VC\Tools\MSVC\14.29.30133\atlmfc\include\afxwin1.inl

; 22   : 		return afxCurrentInstanceHandle; }

  000c6	8b 40 08	 mov	 eax, DWORD PTR [eax+8]
; File D:\git\src\IBK\IBK_DRFN\ProjSrc\SrcChartEx\ChartOCX\KTBChart\KTBChartMouse.cpp

; 87   : 		m_hCursor = ::LoadCursor( AfxGetInstanceHandle(), MAKEINTRESOURCE( wCursorID));

  000c9	50		 push	 eax
  000ca	ff 15 00 00 00
	00		 call	 DWORD PTR __imp__LoadCursorA@8
  000d0	8b 4d f0	 mov	 ecx, DWORD PTR _this$1$[ebp]
  000d3	89 81 e8 04 00
	00		 mov	 DWORD PTR [ecx+1256], eax
; File D:\git\src\IBK\IBK_DRFN\ProjSrc\SrcChartEx\ChartOCX\Include_Chart\Dll_Load\IMetaTable.h

; 1036 : 	{

  000d9	c7 45 fc 01 00
	00 00		 mov	 DWORD PTR __$EHRec$[ebp+8], 1
; File C:\Program Files (x86)\Microsoft Visual Studio\2019\Community\VC\Tools\MSVC\14.29.30133\atlmfc\include\afxwin1.inl

; 27   : 	{ ASSERT(hInstResource != NULL); afxCurrentResourceHandle = hInstResource; }

  000e0	e8 00 00 00 00	 call	 ?AfxGetModuleState@@YGPAVAFX_MODULE_STATE@@XZ ; AfxGetModuleState
  000e5	89 70 0c	 mov	 DWORD PTR [eax+12], esi
  000e8	8b 45 f0	 mov	 eax, DWORD PTR _this$1$[ebp]
$LN29@OnCursorEx:
; File C:\Program Files (x86)\Microsoft Visual Studio\2019\Community\VC\Tools\MSVC\14.29.30133\atlmfc\include\afxwin2.inl

; 25   : 	{ return this == NULL ? NULL : m_hWnd; }

  000eb	8b 40 20	 mov	 eax, DWORD PTR [eax+32]

; 32   : 	{ ASSERT(::IsWindow(m_hWnd)); return ::SendMessage(m_hWnd, message, wParam, lParam); }

  000ee	6a 00		 push	 0
  000f0	50		 push	 eax
  000f1	6a 20		 push	 32			; 00000020H
  000f3	50		 push	 eax
  000f4	ff 15 00 00 00
	00		 call	 DWORD PTR __imp__SendMessageA@16
; File D:\git\src\IBK\IBK_DRFN\ProjSrc\SrcChartEx\ChartOCX\KTBChart\KTBChartMouse.cpp

; 95   : 	return 0L ;

  000fa	33 c0		 xor	 eax, eax

; 96   : }

  000fc	8b 4d f4	 mov	 ecx, DWORD PTR __$EHRec$[ebp]
  000ff	64 89 0d 00 00
	00 00		 mov	 DWORD PTR fs:0, ecx
  00106	59		 pop	 ecx
  00107	5f		 pop	 edi
  00108	5e		 pop	 esi
  00109	5b		 pop	 ebx
  0010a	8b e5		 mov	 esp, ebp
  0010c	5d		 pop	 ebp
  0010d	c2 08 00	 ret	 8
$LN39@OnCursorEx:
  00110	00 00 00 00	 DD	 $LN6@OnCursorEx
  00114	00 00 00 00	 DD	 $LN7@OnCursorEx
  00118	00 00 00 00	 DD	 $LN8@OnCursorEx
  0011c	00 00 00 00	 DD	 $LN9@OnCursorEx
  00120	00 00 00 00	 DD	 $LN10@OnCursorEx
  00124	00 00 00 00	 DD	 $LN13@OnCursorEx
  00128	00 00 00 00	 DD	 $LN16@OnCursorEx
  0012c	00 00 00 00	 DD	 $LN14@OnCursorEx
  00130	00 00 00 00	 DD	 $LN15@OnCursorEx
  00134	00 00 00 00	 DD	 $LN2@OnCursorEx
  00138	00 00 00 00	 DD	 $LN11@OnCursorEx
  0013c	00 00 00 00	 DD	 $LN12@OnCursorEx
  00140	00 00 00 00	 DD	 $LN17@OnCursorEx
_TEXT	ENDS
;	COMDAT text$x
text$x	SEGMENT
__unwindfunclet$?OnCursorExchange@CKTBChartCtrl@@IAEJIJ@Z$0:
  00000	8d 4d 08	 lea	 ecx, DWORD PTR ___mlrs__$2[ebp]
  00003	e9 00 00 00 00	 jmp	 ??1CMultiLanguageResourceSetter@@QAE@XZ ; CMultiLanguageResourceSetter::~CMultiLanguageResourceSetter
  00008	cc		 int	 3
  00009	cc		 int	 3
  0000a	cc		 int	 3
  0000b	cc		 int	 3
  0000c	cc		 int	 3
__ehhandler$?OnCursorExchange@CKTBChartCtrl@@IAEJIJ@Z:
  0000d	90		 npad	 1
  0000e	90		 npad	 1
  0000f	8b 54 24 08	 mov	 edx, DWORD PTR [esp+8]
  00013	8d 42 0c	 lea	 eax, DWORD PTR [edx+12]
  00016	8b 4a ec	 mov	 ecx, DWORD PTR [edx-20]
  00019	33 c8		 xor	 ecx, eax
  0001b	e8 00 00 00 00	 call	 @__security_check_cookie@4
  00020	b8 00 00 00 00	 mov	 eax, OFFSET __ehfuncinfo$?OnCursorExchange@CKTBChartCtrl@@IAEJIJ@Z
  00025	e9 00 00 00 00	 jmp	 ___CxxFrameHandler3
text$x	ENDS
?OnCursorExchange@CKTBChartCtrl@@IAEJIJ@Z ENDP		; CKTBChartCtrl::OnCursorExchange
; Function compile flags: /Ogtp
; File D:\git\src\IBK\IBK_DRFN\ProjSrc\SrcChartEx\ChartOCX\KTBChart\KTBChartMouse.cpp
;	COMDAT ?OnRButtonDblClk@CKTBChartCtrl@@IAEXIVCPoint@@@Z
_TEXT	SEGMENT
_dcClient$2 = -40					; size = 20
_point$ = -20						; size = 8
__$EHRec$ = -12						; size = 12
_nFlags$ = 8						; size = 4
_point$ = 12						; size = 8
?OnRButtonDblClk@CKTBChartCtrl@@IAEXIVCPoint@@@Z PROC	; CKTBChartCtrl::OnRButtonDblClk, COMDAT
; _this$ = ecx

; 668  : {

  00000	55		 push	 ebp
  00001	8b ec		 mov	 ebp, esp
  00003	6a ff		 push	 -1
  00005	68 00 00 00 00	 push	 __ehhandler$?OnRButtonDblClk@CKTBChartCtrl@@IAEXIVCPoint@@@Z
  0000a	64 a1 00 00 00
	00		 mov	 eax, DWORD PTR fs:0
  00010	50		 push	 eax
  00011	83 ec 1c	 sub	 esp, 28			; 0000001cH
  00014	56		 push	 esi
  00015	57		 push	 edi
  00016	a1 00 00 00 00	 mov	 eax, DWORD PTR ___security_cookie
  0001b	33 c5		 xor	 eax, ebp
  0001d	50		 push	 eax
  0001e	8d 45 f4	 lea	 eax, DWORD PTR __$EHRec$[ebp]
  00021	64 a3 00 00 00
	00		 mov	 DWORD PTR fs:0, eax
  00027	8b f9		 mov	 edi, ecx

; 669  : // (2009/9/6 - Seung-Won, Bae) for TEST of Horizontal Scale Height
; 670  : //#ifdef _DEBUG
; 671  : //	CBlockIndex biSelect = m_pMainBlock->FindBlockIndex( point);
; 672  : //	if( biSelect.IsAllValueBiggerThanZero())
; 673  : //	{
; 674  : //		CBlock *pBlock = m_pMainBlock->GetBlock( biSelect);
; 675  : //		if( pBlock)
; 676  : //		{
; 677  : //			int nScaleHeight = pBlock->GetHorizontalScaleHeight();
; 678  : //			nScaleHeight -= 10;
; 679  : //			pBlock->SetHorizontalScaleHeight( nScaleHeight);
; 680  : //		}
; 681  : //	}
; 682  : //#endif
; 683  : 
; 684  : 	// TODO: Add your message handler code here and/or call default
; 685  : TRACE( "::OnRButtonDblClk()\r\n");
; 686  : 
; 687  : 	// (2006/2/6 - Seung-Won, Bae) Manage Mouse DownUp Count for AddIn's Mouse Action ID
; 688  : 	if( ULONG_MAX == m_dwMouseActionID) m_dwMouseActionID = 0;

  00029	8b 87 f0 04 00
	00		 mov	 eax, DWORD PTR [edi+1264]

; 130  : 	if( m_nMouseCaptureCount == 0) pWnd = SetCapture();

  0002f	33 f6		 xor	 esi, esi
  00031	83 f8 ff	 cmp	 eax, -1
  00034	8d 50 01	 lea	 edx, DWORD PTR [eax+1]
  00037	0f 45 f2	 cmovne	 esi, edx
  0003a	89 b7 f0 04 00
	00		 mov	 DWORD PTR [edi+1264], esi
  00040	8b 87 ec 04 00
	00		 mov	 eax, DWORD PTR [edi+1260]
  00046	85 c0		 test	 eax, eax
  00048	75 0b		 jne	 SHORT $LN6@OnRButtonD
  0004a	e8 00 00 00 00	 call	 ?SetCapture@COleControl@@QAEPAVCWnd@@XZ ; COleControl::SetCapture
  0004f	8b 87 ec 04 00
	00		 mov	 eax, DWORD PTR [edi+1260]
$LN6@OnRButtonD:

; 689  : 	else m_dwMouseActionID++;
; 690  : 
; 691  : 	// (2004.11.02, ) Mouse Capturing  ,  Count  Capturing Interface .
; 692  : 	AddSetCapture();
; 693  : 
; 694  : 	// (2006/2/6 - Seung-Won, Bae) for Mouse Action ID and Capture Count Handling
; 695  : 	OnRButtonDblClkProc( nFlags, point);

  00055	8b 4d 10	 mov	 ecx, DWORD PTR _point$[ebp+4]

; 133  : 	m_nMouseCaptureCount++;

  00058	40		 inc	 eax

; 704  : 	if( m_pAddInManager)

  00059	83 bf cc 04 00
	00 00		 cmp	 DWORD PTR [edi+1228], 0

; 133  : 	m_nMouseCaptureCount++;

  00060	89 87 ec 04 00
	00		 mov	 DWORD PTR [edi+1260], eax

; 689  : 	else m_dwMouseActionID++;
; 690  : 
; 691  : 	// (2004.11.02, ) Mouse Capturing  ,  Count  Capturing Interface .
; 692  : 	AddSetCapture();
; 693  : 
; 694  : 	// (2006/2/6 - Seung-Won, Bae) for Mouse Action ID and Capture Count Handling
; 695  : 	OnRButtonDblClkProc( nFlags, point);

  00066	8b 45 0c	 mov	 eax, DWORD PTR _point$[ebp]
  00069	89 45 ec	 mov	 DWORD PTR _point$[ebp], eax
  0006c	89 4d f0	 mov	 DWORD PTR _point$[ebp+4], ecx

; 704  : 	if( m_pAddInManager)

  0006f	74 5b		 je	 SHORT $LN9@OnRButtonD

; 705  : 	{
; 706  : 		// Caution! Use Client DC for MsgLoop like TrackPopupMenu()
; 707  : 		//		if GetDC(), The DC Instance can be destroyed. (You may lost the Handle of DC)
; 708  : 		CClientDC dcClient( this);

  00071	57		 push	 edi
  00072	8d 4d d8	 lea	 ecx, DWORD PTR _dcClient$2[ebp]
  00075	e8 00 00 00 00	 call	 ??0CClientDC@@QAE@PAVCWnd@@@Z ; CClientDC::CClientDC

; 709  : 		CFont *pOldFont = dcClient.SelectObject( m_pRscFont);

  0007a	ff b7 b4 04 00
	00		 push	 DWORD PTR [edi+1204]
  00080	8d 4d d8	 lea	 ecx, DWORD PTR _dcClient$2[ebp]
  00083	c7 45 fc 00 00
	00 00		 mov	 DWORD PTR __$EHRec$[ebp+8], 0
  0008a	e8 00 00 00 00	 call	 ?SelectObject@CDC@@UAEPAVCFont@@PAV2@@Z ; CDC::SelectObject

; 710  : 		m_pAddInManager->OnRButtonDblClk( &dcClient, nFlags, point, m_dwMouseActionID);

  0008f	ff b7 f0 04 00
	00		 push	 DWORD PTR [edi+1264]
  00095	8b 8f cc 04 00
	00		 mov	 ecx, DWORD PTR [edi+1228]
  0009b	8b f0		 mov	 esi, eax
  0009d	8d 45 ec	 lea	 eax, DWORD PTR _point$[ebp]
  000a0	50		 push	 eax
  000a1	ff 75 08	 push	 DWORD PTR _nFlags$[ebp]
  000a4	8d 45 d8	 lea	 eax, DWORD PTR _dcClient$2[ebp]
  000a7	50		 push	 eax
  000a8	ff 15 00 00 00
	00		 call	 DWORD PTR __imp_?OnRButtonDblClk@CAddInManager@@QAEHPAVCDC@@IAAVCPoint@@K@Z

; 711  : 		dcClient.SelectObject( pOldFont);

  000ae	56		 push	 esi
  000af	8d 4d d8	 lea	 ecx, DWORD PTR _dcClient$2[ebp]
  000b2	e8 00 00 00 00	 call	 ?SelectObject@CDC@@UAEPAVCFont@@PAV2@@Z ; CDC::SelectObject

; 712  : 	}

  000b7	8d 4d d8	 lea	 ecx, DWORD PTR _dcClient$2[ebp]
  000ba	c7 45 fc ff ff
	ff ff		 mov	 DWORD PTR __$EHRec$[ebp+8], -1
  000c1	e8 00 00 00 00	 call	 ??1CClientDC@@UAE@XZ	; CClientDC::~CClientDC
  000c6	8b 4d 10	 mov	 ecx, DWORD PTR _point$[ebp+4]
  000c9	8b 45 0c	 mov	 eax, DWORD PTR _point$[ebp]
$LN9@OnRButtonD:

; 696  : 	
; 697  : 	COleControl::OnRButtonDblClk(nFlags, point);

  000cc	51		 push	 ecx
  000cd	50		 push	 eax
  000ce	ff 75 08	 push	 DWORD PTR _nFlags$[ebp]
  000d1	8b cf		 mov	 ecx, edi
  000d3	e8 00 00 00 00	 call	 ?OnRButtonDblClk@COleControl@@IAEXIVCPoint@@@Z ; COleControl::OnRButtonDblClk

; 698  : }

  000d8	8b 4d f4	 mov	 ecx, DWORD PTR __$EHRec$[ebp]
  000db	64 89 0d 00 00
	00 00		 mov	 DWORD PTR fs:0, ecx
  000e2	59		 pop	 ecx
  000e3	5f		 pop	 edi
  000e4	5e		 pop	 esi
  000e5	8b e5		 mov	 esp, ebp
  000e7	5d		 pop	 ebp
  000e8	c2 0c 00	 ret	 12			; 0000000cH
_TEXT	ENDS
;	COMDAT text$x
text$x	SEGMENT
__unwindfunclet$?OnRButtonDblClk@CKTBChartCtrl@@IAEXIVCPoint@@@Z$0:
  00000	8d 4d d8	 lea	 ecx, DWORD PTR _dcClient$2[ebp]
  00003	e9 00 00 00 00	 jmp	 ??1CClientDC@@UAE@XZ	; CClientDC::~CClientDC
  00008	cc		 int	 3
  00009	cc		 int	 3
  0000a	cc		 int	 3
  0000b	cc		 int	 3
  0000c	cc		 int	 3
__ehhandler$?OnRButtonDblClk@CKTBChartCtrl@@IAEXIVCPoint@@@Z:
  0000d	90		 npad	 1
  0000e	90		 npad	 1
  0000f	8b 54 24 08	 mov	 edx, DWORD PTR [esp+8]
  00013	8d 42 0c	 lea	 eax, DWORD PTR [edx+12]
  00016	8b 4a d8	 mov	 ecx, DWORD PTR [edx-40]
  00019	33 c8		 xor	 ecx, eax
  0001b	e8 00 00 00 00	 call	 @__security_check_cookie@4
  00020	b8 00 00 00 00	 mov	 eax, OFFSET __ehfuncinfo$?OnRButtonDblClk@CKTBChartCtrl@@IAEXIVCPoint@@@Z
  00025	e9 00 00 00 00	 jmp	 ___CxxFrameHandler3
text$x	ENDS
?OnRButtonDblClk@CKTBChartCtrl@@IAEXIVCPoint@@@Z ENDP	; CKTBChartCtrl::OnRButtonDblClk
; Function compile flags: /Ogtp
; File D:\git\src\IBK\IBK_DRFN\ProjSrc\SrcChartEx\ChartOCX\KTBChart\KTBChartMouse.cpp
;	COMDAT ?OnRButtonUp@CKTBChartCtrl@@IAEXIVCPoint@@@Z
_TEXT	SEGMENT
_nFlags$ = 8						; size = 4
_point$ = 12						; size = 8
?OnRButtonUp@CKTBChartCtrl@@IAEXIVCPoint@@@Z PROC	; CKTBChartCtrl::OnRButtonUp, COMDAT
; _this$ = ecx

; 389  : {

  00000	55		 push	 ebp
  00001	8b ec		 mov	 ebp, esp
  00003	53		 push	 ebx
  00004	56		 push	 esi
  00005	57		 push	 edi

; 390  : 	// TODO: Add your message handler code here and/or call default
; 391  : TRACE( "::OnRButtonUp()\r\n");
; 392  : 
; 393  : 	// (2006/2/6 - Seung-Won, Bae) for Mouse Action ID and Capture Count Handling
; 394  : 	BOOL bResult = OnRButtonUpProc( nFlags, point);

  00006	ff 75 10	 push	 DWORD PTR _point$[ebp+4]
  00009	8b 7d 08	 mov	 edi, DWORD PTR _nFlags$[ebp]
  0000c	8b f1		 mov	 esi, ecx
  0000e	ff 75 0c	 push	 DWORD PTR _point$[ebp]
  00011	57		 push	 edi
  00012	e8 00 00 00 00	 call	 ?OnRButtonUpProc@CKTBChartCtrl@@IAEHIVCPoint@@@Z ; CKTBChartCtrl::OnRButtonUpProc
  00017	8b d8		 mov	 ebx, eax

; 143  : 	if( m_nMouseCaptureCount <= 0) return FALSE;

  00019	8b 86 ec 04 00
	00		 mov	 eax, DWORD PTR [esi+1260]
  0001f	85 c0		 test	 eax, eax
  00021	7e 15		 jle	 SHORT $LN9@OnRButtonU

; 144  : 
; 145  : TRACE( "Before ReleaseCapture : %d\r\n", m_nMouseCaptureCount);
; 146  : 
; 147  : 	// 1.  Capturing .
; 148  : 	BOOL bResult = TRUE;
; 149  : 	if( m_nMouseCaptureCount == 1) bResult = ReleaseCapture();	// ReleaseCapture OnCaptureChanged m_nMouseCaptureCount  .

  00023	83 f8 01	 cmp	 eax, 1
  00026	75 09		 jne	 SHORT $LN8@OnRButtonU
  00028	8b ce		 mov	 ecx, esi
  0002a	e8 00 00 00 00	 call	 ?ReleaseCapture@COleControl@@QAEHXZ ; COleControl::ReleaseCapture
  0002f	eb 07		 jmp	 SHORT $LN9@OnRButtonU
$LN8@OnRButtonU:

; 150  : 	else m_nMouseCaptureCount--;								// 0. Capturing Counter . 

  00031	48		 dec	 eax
  00032	89 86 ec 04 00
	00		 mov	 DWORD PTR [esi+1260], eax
$LN9@OnRButtonU:

; 395  : 
; 396  : 	// (2004.11.02, ) Mouse Capturing  ,  Count  Capturing Interface .
; 397  : 	//		  Capturing . (If   ..)
; 398  : 	RemoveSetCapture();
; 399  : 
; 400  : 	// (2006/2/6 - Seung-Won, Bae) Manage Mouse DownUp Count for AddIn's Mouse Action ID
; 401  : 	if( ULONG_MAX == m_dwMouseActionID) m_dwMouseActionID = 0;

  00038	8b 86 f0 04 00
	00		 mov	 eax, DWORD PTR [esi+1264]

; 402  : 	else m_dwMouseActionID++;
; 403  : 
; 404  : 	// (2006/10/30 - Seung-Won, Bae) to deny Context Menu.
; 405  : 	if( bResult) COleControl::OnRButtonUp(nFlags, point);

  0003e	33 d2		 xor	 edx, edx
  00040	83 f8 ff	 cmp	 eax, -1
  00043	8d 48 01	 lea	 ecx, DWORD PTR [eax+1]
  00046	0f 45 d1	 cmovne	 edx, ecx
  00049	89 96 f0 04 00
	00		 mov	 DWORD PTR [esi+1264], edx
  0004f	85 db		 test	 ebx, ebx
  00051	74 0e		 je	 SHORT $LN4@OnRButtonU
  00053	ff 75 10	 push	 DWORD PTR _point$[ebp+4]
  00056	8b ce		 mov	 ecx, esi
  00058	ff 75 0c	 push	 DWORD PTR _point$[ebp]
  0005b	57		 push	 edi
  0005c	e8 00 00 00 00	 call	 ?OnRButtonUp@COleControl@@IAEXIVCPoint@@@Z ; COleControl::OnRButtonUp
$LN4@OnRButtonU:

; 406  : }

  00061	5f		 pop	 edi
  00062	5e		 pop	 esi
  00063	5b		 pop	 ebx
  00064	5d		 pop	 ebp
  00065	c2 0c 00	 ret	 12			; 0000000cH
?OnRButtonUp@CKTBChartCtrl@@IAEXIVCPoint@@@Z ENDP	; CKTBChartCtrl::OnRButtonUp
_TEXT	ENDS
; Function compile flags: /Ogtp
; File D:\git\src\IBK\IBK_DRFN\ProjSrc\SrcChartEx\ChartOCX\KTBChart\KTBChartMouse.cpp
;	COMDAT ?OnRButtonDown@CKTBChartCtrl@@IAEXIVCPoint@@@Z
_TEXT	SEGMENT
_dcClient$2 = -40					; size = 20
_point$ = -20						; size = 8
__$EHRec$ = -12						; size = 12
_nFlags$ = 8						; size = 4
_point$ = 12						; size = 8
?OnRButtonDown@CKTBChartCtrl@@IAEXIVCPoint@@@Z PROC	; CKTBChartCtrl::OnRButtonDown, COMDAT
; _this$ = ecx

; 354  : {

  00000	55		 push	 ebp
  00001	8b ec		 mov	 ebp, esp
  00003	6a ff		 push	 -1
  00005	68 00 00 00 00	 push	 __ehhandler$?OnRButtonDown@CKTBChartCtrl@@IAEXIVCPoint@@@Z
  0000a	64 a1 00 00 00
	00		 mov	 eax, DWORD PTR fs:0
  00010	50		 push	 eax
  00011	83 ec 1c	 sub	 esp, 28			; 0000001cH
  00014	56		 push	 esi
  00015	57		 push	 edi
  00016	a1 00 00 00 00	 mov	 eax, DWORD PTR ___security_cookie
  0001b	33 c5		 xor	 eax, ebp
  0001d	50		 push	 eax
  0001e	8d 45 f4	 lea	 eax, DWORD PTR __$EHRec$[ebp]
  00021	64 a3 00 00 00
	00		 mov	 DWORD PTR fs:0, eax
  00027	8b f9		 mov	 edi, ecx

; 355  : TRACE( "::OnRButtonDown()\r\n");
; 356  : 
; 357  : 	// (2009/5/7 - Seung-Won, Bae) Set focus to kill focus of Zoom Edit on MultiChart.
; 358  : 	SetFocus();

  00029	e8 00 00 00 00	 call	 ?SetFocus@COleControl@@QAEPAVCWnd@@XZ ; COleControl::SetFocus

; 359  : 
; 360  : 	// (2006/2/6 - Seung-Won, Bae) Manage Mouse DownUp Count for AddIn's Mouse Action ID
; 361  : 	if( ULONG_MAX == m_dwMouseActionID) m_dwMouseActionID = 0;

  0002e	8b 87 f0 04 00
	00		 mov	 eax, DWORD PTR [edi+1264]

; 130  : 	if( m_nMouseCaptureCount == 0) pWnd = SetCapture();

  00034	33 f6		 xor	 esi, esi
  00036	83 f8 ff	 cmp	 eax, -1
  00039	8d 50 01	 lea	 edx, DWORD PTR [eax+1]
  0003c	0f 45 f2	 cmovne	 esi, edx
  0003f	89 b7 f0 04 00
	00		 mov	 DWORD PTR [edi+1264], esi
  00045	8b 87 ec 04 00
	00		 mov	 eax, DWORD PTR [edi+1260]
  0004b	85 c0		 test	 eax, eax
  0004d	75 0d		 jne	 SHORT $LN6@OnRButtonD
  0004f	8b cf		 mov	 ecx, edi
  00051	e8 00 00 00 00	 call	 ?SetCapture@COleControl@@QAEPAVCWnd@@XZ ; COleControl::SetCapture
  00056	8b 87 ec 04 00
	00		 mov	 eax, DWORD PTR [edi+1260]
$LN6@OnRButtonD:

; 362  : 	else m_dwMouseActionID++;
; 363  : 
; 364  : 	// (2004.11.02, ) Mouse Capturing  ,  Count  Capturing Interface .
; 365  : 	AddSetCapture();
; 366  : 
; 367  : 	// (2006/2/6 - Seung-Won, Bae) for Mouse Action ID and Capture Count Handling
; 368  : 	OnRButtonDownProc( nFlags, point);

  0005c	8b 4d 10	 mov	 ecx, DWORD PTR _point$[ebp+4]

; 133  : 	m_nMouseCaptureCount++;

  0005f	40		 inc	 eax

; 377  : 	if( m_pAddInManager)

  00060	83 bf cc 04 00
	00 00		 cmp	 DWORD PTR [edi+1228], 0

; 133  : 	m_nMouseCaptureCount++;

  00067	89 87 ec 04 00
	00		 mov	 DWORD PTR [edi+1260], eax

; 362  : 	else m_dwMouseActionID++;
; 363  : 
; 364  : 	// (2004.11.02, ) Mouse Capturing  ,  Count  Capturing Interface .
; 365  : 	AddSetCapture();
; 366  : 
; 367  : 	// (2006/2/6 - Seung-Won, Bae) for Mouse Action ID and Capture Count Handling
; 368  : 	OnRButtonDownProc( nFlags, point);

  0006d	8b 45 0c	 mov	 eax, DWORD PTR _point$[ebp]
  00070	89 45 ec	 mov	 DWORD PTR _point$[ebp], eax
  00073	89 4d f0	 mov	 DWORD PTR _point$[ebp+4], ecx

; 377  : 	if( m_pAddInManager)

  00076	74 5b		 je	 SHORT $LN9@OnRButtonD

; 378  : 	{
; 379  : 		// Caution! Use Client DC for MsgLoop like TrackPopupMenu()
; 380  : 		//		if GetDC(), The DC Instance can be destroyed. (You may lost the Handle of DC)
; 381  : 		CClientDC dcClient( this);

  00078	57		 push	 edi
  00079	8d 4d d8	 lea	 ecx, DWORD PTR _dcClient$2[ebp]
  0007c	e8 00 00 00 00	 call	 ??0CClientDC@@QAE@PAVCWnd@@@Z ; CClientDC::CClientDC

; 382  : 		CFont *pOldFont = dcClient.SelectObject( m_pRscFont);

  00081	ff b7 b4 04 00
	00		 push	 DWORD PTR [edi+1204]
  00087	8d 4d d8	 lea	 ecx, DWORD PTR _dcClient$2[ebp]
  0008a	c7 45 fc 00 00
	00 00		 mov	 DWORD PTR __$EHRec$[ebp+8], 0
  00091	e8 00 00 00 00	 call	 ?SelectObject@CDC@@UAEPAVCFont@@PAV2@@Z ; CDC::SelectObject

; 383  : 		m_pAddInManager->OnRButtonDown( &dcClient, nFlags, point, m_dwMouseActionID);

  00096	ff b7 f0 04 00
	00		 push	 DWORD PTR [edi+1264]
  0009c	8b 8f cc 04 00
	00		 mov	 ecx, DWORD PTR [edi+1228]
  000a2	8b f0		 mov	 esi, eax
  000a4	8d 45 ec	 lea	 eax, DWORD PTR _point$[ebp]
  000a7	50		 push	 eax
  000a8	ff 75 08	 push	 DWORD PTR _nFlags$[ebp]
  000ab	8d 45 d8	 lea	 eax, DWORD PTR _dcClient$2[ebp]
  000ae	50		 push	 eax
  000af	ff 15 00 00 00
	00		 call	 DWORD PTR __imp_?OnRButtonDown@CAddInManager@@QAEHPAVCDC@@IAAVCPoint@@K@Z

; 384  : 		dcClient.SelectObject( pOldFont);

  000b5	56		 push	 esi
  000b6	8d 4d d8	 lea	 ecx, DWORD PTR _dcClient$2[ebp]
  000b9	e8 00 00 00 00	 call	 ?SelectObject@CDC@@UAEPAVCFont@@PAV2@@Z ; CDC::SelectObject

; 385  : 	}

  000be	8d 4d d8	 lea	 ecx, DWORD PTR _dcClient$2[ebp]
  000c1	c7 45 fc ff ff
	ff ff		 mov	 DWORD PTR __$EHRec$[ebp+8], -1
  000c8	e8 00 00 00 00	 call	 ??1CClientDC@@UAE@XZ	; CClientDC::~CClientDC
  000cd	8b 4d 10	 mov	 ecx, DWORD PTR _point$[ebp+4]
  000d0	8b 45 0c	 mov	 eax, DWORD PTR _point$[ebp]
$LN9@OnRButtonD:

; 369  : 
; 370  : 	COleControl::OnRButtonDown(nFlags, point);

  000d3	51		 push	 ecx
  000d4	50		 push	 eax
  000d5	ff 75 08	 push	 DWORD PTR _nFlags$[ebp]
  000d8	8b cf		 mov	 ecx, edi
  000da	e8 00 00 00 00	 call	 ?OnRButtonDown@COleControl@@IAEXIVCPoint@@@Z ; COleControl::OnRButtonDown

; 371  : }

  000df	8b 4d f4	 mov	 ecx, DWORD PTR __$EHRec$[ebp]
  000e2	64 89 0d 00 00
	00 00		 mov	 DWORD PTR fs:0, ecx
  000e9	59		 pop	 ecx
  000ea	5f		 pop	 edi
  000eb	5e		 pop	 esi
  000ec	8b e5		 mov	 esp, ebp
  000ee	5d		 pop	 ebp
  000ef	c2 0c 00	 ret	 12			; 0000000cH
_TEXT	ENDS
;	COMDAT text$x
text$x	SEGMENT
__unwindfunclet$?OnRButtonDown@CKTBChartCtrl@@IAEXIVCPoint@@@Z$0:
  00000	8d 4d d8	 lea	 ecx, DWORD PTR _dcClient$2[ebp]
  00003	e9 00 00 00 00	 jmp	 ??1CClientDC@@UAE@XZ	; CClientDC::~CClientDC
  00008	cc		 int	 3
  00009	cc		 int	 3
  0000a	cc		 int	 3
  0000b	cc		 int	 3
  0000c	cc		 int	 3
__ehhandler$?OnRButtonDown@CKTBChartCtrl@@IAEXIVCPoint@@@Z:
  0000d	90		 npad	 1
  0000e	90		 npad	 1
  0000f	8b 54 24 08	 mov	 edx, DWORD PTR [esp+8]
  00013	8d 42 0c	 lea	 eax, DWORD PTR [edx+12]
  00016	8b 4a d8	 mov	 ecx, DWORD PTR [edx-40]
  00019	33 c8		 xor	 ecx, eax
  0001b	e8 00 00 00 00	 call	 @__security_check_cookie@4
  00020	b8 00 00 00 00	 mov	 eax, OFFSET __ehfuncinfo$?OnRButtonDown@CKTBChartCtrl@@IAEXIVCPoint@@@Z
  00025	e9 00 00 00 00	 jmp	 ___CxxFrameHandler3
text$x	ENDS
?OnRButtonDown@CKTBChartCtrl@@IAEXIVCPoint@@@Z ENDP	; CKTBChartCtrl::OnRButtonDown
; Function compile flags: /Ogtp
; File D:\git\src\IBK\IBK_DRFN\ProjSrc\SrcChartEx\ChartOCX\KTBChart\KTBChartMouse.cpp
;	COMDAT ?OnLButtonDblClk@CKTBChartCtrl@@IAEXIVCPoint@@@Z
_TEXT	SEGMENT
_dcClient$2 = -40					; size = 20
_point$ = -20						; size = 8
__$EHRec$ = -12						; size = 12
_nFlags$ = 8						; size = 4
_point$ = 12						; size = 8
?OnLButtonDblClk@CKTBChartCtrl@@IAEXIVCPoint@@@Z PROC	; CKTBChartCtrl::OnLButtonDblClk, COMDAT
; _this$ = ecx

; 306  : {

  00000	55		 push	 ebp
  00001	8b ec		 mov	 ebp, esp
  00003	6a ff		 push	 -1
  00005	68 00 00 00 00	 push	 __ehhandler$?OnLButtonDblClk@CKTBChartCtrl@@IAEXIVCPoint@@@Z
  0000a	64 a1 00 00 00
	00		 mov	 eax, DWORD PTR fs:0
  00010	50		 push	 eax
  00011	83 ec 1c	 sub	 esp, 28			; 0000001cH
  00014	56		 push	 esi
  00015	57		 push	 edi
  00016	a1 00 00 00 00	 mov	 eax, DWORD PTR ___security_cookie
  0001b	33 c5		 xor	 eax, ebp
  0001d	50		 push	 eax
  0001e	8d 45 f4	 lea	 eax, DWORD PTR __$EHRec$[ebp]
  00021	64 a3 00 00 00
	00		 mov	 DWORD PTR fs:0, eax
  00027	8b f9		 mov	 edi, ecx

; 307  : // (2009/9/6 - Seung-Won, Bae) for TEST of Horizontal Scale Height
; 308  : //#ifdef _DEBUG
; 309  : //	CBlockIndex biSelect = m_pMainBlock->FindBlockIndex( point);
; 310  : //	if( biSelect.IsAllValueBiggerThanZero())
; 311  : //	{
; 312  : //		CBlock* pBlock = m_pMainBlock->GetBlock( biSelect);
; 313  : //		if( pBlock)
; 314  : //		{
; 315  : //			int nScaleHeight = pBlock->GetHorizontalScaleHeight();
; 316  : //			nScaleHeight += 10;
; 317  : //			m_pMainBlock->SetHorizontalScaleHeight( biSelect.GetRow(), biSelect.GetColumn(), nScaleHeight);
; 318  : //		}
; 319  : //	}
; 320  : //#endif
; 321  : 
; 322  : 	// TODO: Add your message handler code here and/or call default
; 323  : 	TRACE( "::OnLButtonDblClk()\r\n");
; 324  : 
; 325  : 	// (2006/2/6 - Seung-Won, Bae) Manage Mouse DownUp Count for AddIn's Mouse Action ID
; 326  : 	if( ULONG_MAX == m_dwMouseActionID) m_dwMouseActionID = 0;

  00029	8b 87 f0 04 00
	00		 mov	 eax, DWORD PTR [edi+1264]

; 130  : 	if( m_nMouseCaptureCount == 0) pWnd = SetCapture();

  0002f	33 f6		 xor	 esi, esi
  00031	83 f8 ff	 cmp	 eax, -1
  00034	8d 50 01	 lea	 edx, DWORD PTR [eax+1]
  00037	0f 45 f2	 cmovne	 esi, edx
  0003a	89 b7 f0 04 00
	00		 mov	 DWORD PTR [edi+1264], esi
  00040	8b 87 ec 04 00
	00		 mov	 eax, DWORD PTR [edi+1260]
  00046	85 c0		 test	 eax, eax
  00048	75 0b		 jne	 SHORT $LN6@OnLButtonD
  0004a	e8 00 00 00 00	 call	 ?SetCapture@COleControl@@QAEPAVCWnd@@XZ ; COleControl::SetCapture
  0004f	8b 87 ec 04 00
	00		 mov	 eax, DWORD PTR [edi+1260]
$LN6@OnLButtonD:

; 327  : 	else m_dwMouseActionID++;
; 328  : 
; 329  : 	// (2004.11.02, ) Mouse Capturing  ,  Count  Capturing Interface .
; 330  : 	AddSetCapture();
; 331  : 
; 332  : 	// (2006/2/6 - Seung-Won, Bae) for Mouse Action ID and Capture Count Handling
; 333  : 	OnLButtonDblClkProc( nFlags, point);

  00055	8b 4d 10	 mov	 ecx, DWORD PTR _point$[ebp+4]

; 133  : 	m_nMouseCaptureCount++;

  00058	40		 inc	 eax

; 342  : 	if( m_pAddInManager)

  00059	83 bf cc 04 00
	00 00		 cmp	 DWORD PTR [edi+1228], 0

; 133  : 	m_nMouseCaptureCount++;

  00060	89 87 ec 04 00
	00		 mov	 DWORD PTR [edi+1260], eax

; 327  : 	else m_dwMouseActionID++;
; 328  : 
; 329  : 	// (2004.11.02, ) Mouse Capturing  ,  Count  Capturing Interface .
; 330  : 	AddSetCapture();
; 331  : 
; 332  : 	// (2006/2/6 - Seung-Won, Bae) for Mouse Action ID and Capture Count Handling
; 333  : 	OnLButtonDblClkProc( nFlags, point);

  00066	8b 45 0c	 mov	 eax, DWORD PTR _point$[ebp]
  00069	89 45 ec	 mov	 DWORD PTR _point$[ebp], eax
  0006c	89 4d f0	 mov	 DWORD PTR _point$[ebp+4], ecx

; 342  : 	if( m_pAddInManager)

  0006f	74 5b		 je	 SHORT $LN9@OnLButtonD

; 343  : 	{
; 344  : 		// Caution! Use Client DC for MsgLoop like TrackPopupMenu()
; 345  : 		//		if GetDC(), The DC Instance can be destroyed. (You may lost the Handle of DC)
; 346  : 		CClientDC dcClient( this);

  00071	57		 push	 edi
  00072	8d 4d d8	 lea	 ecx, DWORD PTR _dcClient$2[ebp]
  00075	e8 00 00 00 00	 call	 ??0CClientDC@@QAE@PAVCWnd@@@Z ; CClientDC::CClientDC

; 347  : 		CFont *pOldFont = dcClient.SelectObject( m_pRscFont);

  0007a	ff b7 b4 04 00
	00		 push	 DWORD PTR [edi+1204]
  00080	8d 4d d8	 lea	 ecx, DWORD PTR _dcClient$2[ebp]
  00083	c7 45 fc 00 00
	00 00		 mov	 DWORD PTR __$EHRec$[ebp+8], 0
  0008a	e8 00 00 00 00	 call	 ?SelectObject@CDC@@UAEPAVCFont@@PAV2@@Z ; CDC::SelectObject

; 348  : 		BOOL bRet = m_pAddInManager->OnLButtonDblClk( &dcClient, nFlags, point, m_dwMouseActionID);

  0008f	ff b7 f0 04 00
	00		 push	 DWORD PTR [edi+1264]
  00095	8b 8f cc 04 00
	00		 mov	 ecx, DWORD PTR [edi+1228]
  0009b	8b f0		 mov	 esi, eax
  0009d	8d 45 ec	 lea	 eax, DWORD PTR _point$[ebp]
  000a0	50		 push	 eax
  000a1	ff 75 08	 push	 DWORD PTR _nFlags$[ebp]
  000a4	8d 45 d8	 lea	 eax, DWORD PTR _dcClient$2[ebp]
  000a7	50		 push	 eax
  000a8	ff 15 00 00 00
	00		 call	 DWORD PTR __imp_?OnLButtonDblClk@CAddInManager@@QAEHPAVCDC@@IAAVCPoint@@K@Z

; 349  : 		dcClient.SelectObject( pOldFont);

  000ae	56		 push	 esi
  000af	8d 4d d8	 lea	 ecx, DWORD PTR _dcClient$2[ebp]
  000b2	e8 00 00 00 00	 call	 ?SelectObject@CDC@@UAEPAVCFont@@PAV2@@Z ; CDC::SelectObject

; 350  : 	}

  000b7	8d 4d d8	 lea	 ecx, DWORD PTR _dcClient$2[ebp]
  000ba	c7 45 fc ff ff
	ff ff		 mov	 DWORD PTR __$EHRec$[ebp+8], -1
  000c1	e8 00 00 00 00	 call	 ??1CClientDC@@UAE@XZ	; CClientDC::~CClientDC
  000c6	8b 4d 10	 mov	 ecx, DWORD PTR _point$[ebp+4]
  000c9	8b 45 0c	 mov	 eax, DWORD PTR _point$[ebp]
$LN9@OnLButtonD:

; 334  : 
; 335  : 	COleControl::OnLButtonDblClk(nFlags, point);

  000cc	51		 push	 ecx
  000cd	50		 push	 eax
  000ce	ff 75 08	 push	 DWORD PTR _nFlags$[ebp]
  000d1	8b cf		 mov	 ecx, edi
  000d3	e8 00 00 00 00	 call	 ?OnLButtonDblClk@COleControl@@IAEXIVCPoint@@@Z ; COleControl::OnLButtonDblClk

; 336  : }

  000d8	8b 4d f4	 mov	 ecx, DWORD PTR __$EHRec$[ebp]
  000db	64 89 0d 00 00
	00 00		 mov	 DWORD PTR fs:0, ecx
  000e2	59		 pop	 ecx
  000e3	5f		 pop	 edi
  000e4	5e		 pop	 esi
  000e5	8b e5		 mov	 esp, ebp
  000e7	5d		 pop	 ebp
  000e8	c2 0c 00	 ret	 12			; 0000000cH
_TEXT	ENDS
;	COMDAT text$x
text$x	SEGMENT
__unwindfunclet$?OnLButtonDblClk@CKTBChartCtrl@@IAEXIVCPoint@@@Z$0:
  00000	8d 4d d8	 lea	 ecx, DWORD PTR _dcClient$2[ebp]
  00003	e9 00 00 00 00	 jmp	 ??1CClientDC@@UAE@XZ	; CClientDC::~CClientDC
  00008	cc		 int	 3
  00009	cc		 int	 3
  0000a	cc		 int	 3
  0000b	cc		 int	 3
  0000c	cc		 int	 3
__ehhandler$?OnLButtonDblClk@CKTBChartCtrl@@IAEXIVCPoint@@@Z:
  0000d	90		 npad	 1
  0000e	90		 npad	 1
  0000f	8b 54 24 08	 mov	 edx, DWORD PTR [esp+8]
  00013	8d 42 0c	 lea	 eax, DWORD PTR [edx+12]
  00016	8b 4a d8	 mov	 ecx, DWORD PTR [edx-40]
  00019	33 c8		 xor	 ecx, eax
  0001b	e8 00 00 00 00	 call	 @__security_check_cookie@4
  00020	b8 00 00 00 00	 mov	 eax, OFFSET __ehfuncinfo$?OnLButtonDblClk@CKTBChartCtrl@@IAEXIVCPoint@@@Z
  00025	e9 00 00 00 00	 jmp	 ___CxxFrameHandler3
text$x	ENDS
?OnLButtonDblClk@CKTBChartCtrl@@IAEXIVCPoint@@@Z ENDP	; CKTBChartCtrl::OnLButtonDblClk
; Function compile flags: /Ogtp
; File D:\git\src\IBK\IBK_DRFN\ProjSrc\SrcChartEx\ChartOCX\KTBChart\KTBChartMouse.cpp
;	COMDAT ?OnLButtonUp@CKTBChartCtrl@@IAEXIVCPoint@@@Z
_TEXT	SEGMENT
_dcClient$2 = -40					; size = 20
_point$ = -20						; size = 8
__$EHRec$ = -12						; size = 12
_nFlags$ = 8						; size = 4
_point$ = 12						; size = 8
?OnLButtonUp@CKTBChartCtrl@@IAEXIVCPoint@@@Z PROC	; CKTBChartCtrl::OnLButtonUp, COMDAT
; _this$ = ecx

; 271  : {

  00000	55		 push	 ebp
  00001	8b ec		 mov	 ebp, esp
  00003	6a ff		 push	 -1
  00005	68 00 00 00 00	 push	 __ehhandler$?OnLButtonUp@CKTBChartCtrl@@IAEXIVCPoint@@@Z
  0000a	64 a1 00 00 00
	00		 mov	 eax, DWORD PTR fs:0
  00010	50		 push	 eax
  00011	83 ec 1c	 sub	 esp, 28			; 0000001cH
  00014	53		 push	 ebx
  00015	56		 push	 esi
  00016	57		 push	 edi
  00017	a1 00 00 00 00	 mov	 eax, DWORD PTR ___security_cookie
  0001c	33 c5		 xor	 eax, ebp
  0001e	50		 push	 eax
  0001f	8d 45 f4	 lea	 eax, DWORD PTR __$EHRec$[ebp]
  00022	64 a3 00 00 00
	00		 mov	 DWORD PTR fs:0, eax
  00028	8b f9		 mov	 edi, ecx

; 143  : 	if( m_nMouseCaptureCount <= 0) return FALSE;

  0002a	8b 87 ec 04 00
	00		 mov	 eax, DWORD PTR [edi+1260]
  00030	85 c0		 test	 eax, eax
  00032	7e 13		 jle	 SHORT $LN8@OnLButtonU

; 144  : 
; 145  : TRACE( "Before ReleaseCapture : %d\r\n", m_nMouseCaptureCount);
; 146  : 
; 147  : 	// 1.  Capturing .
; 148  : 	BOOL bResult = TRUE;
; 149  : 	if( m_nMouseCaptureCount == 1) bResult = ReleaseCapture();	// ReleaseCapture OnCaptureChanged m_nMouseCaptureCount  .

  00034	83 f8 01	 cmp	 eax, 1
  00037	75 07		 jne	 SHORT $LN7@OnLButtonU
  00039	e8 00 00 00 00	 call	 ?ReleaseCapture@COleControl@@QAEHXZ ; COleControl::ReleaseCapture
  0003e	eb 07		 jmp	 SHORT $LN8@OnLButtonU
$LN7@OnLButtonU:

; 150  : 	else m_nMouseCaptureCount--;								// 0. Capturing Counter . 

  00040	48		 dec	 eax
  00041	89 87 ec 04 00
	00		 mov	 DWORD PTR [edi+1260], eax
$LN8@OnLButtonU:

; 294  : 	if( m_pAddInManager)

  00047	83 bf cc 04 00
	00 00		 cmp	 DWORD PTR [edi+1228], 0

; 272  : 	// TODO: Add your message handler code here and/or call default
; 273  : TRACE( "::OnLButtonUp()\r\n");
; 274  : 
; 275  : 	// (2004.11.02, ) Mouse Capturing  ,  Count  Capturing Interface .
; 276  : 	//		  Capturing . (If   ..)
; 277  : 	RemoveSetCapture();
; 278  : 
; 279  : 	// (2006/2/6 - Seung-Won, Bae) for Mouse Action ID and Capture Count Handling
; 280  : 	// (2006/3/5 - Seung-Won, Bae) Do not process before RemoveSetCapture() for some possible other action.
; 281  : 	OnLButtonUpProc( nFlags, point);

  0004e	8b 75 0c	 mov	 esi, DWORD PTR _point$[ebp]
  00051	8b 5d 10	 mov	 ebx, DWORD PTR _point$[ebp+4]
  00054	89 75 ec	 mov	 DWORD PTR _point$[ebp], esi
  00057	89 5d f0	 mov	 DWORD PTR _point$[ebp+4], ebx

; 294  : 	if( m_pAddInManager)

  0005a	74 5b		 je	 SHORT $LN11@OnLButtonU

; 295  : 	{
; 296  : 		// Caution! Use Client DC for MsgLoop like TrackPopupMenu()
; 297  : 		//		if GetDC(), The DC Instance can be destroyed. (You may lost the Handle of DC)
; 298  : 		CClientDC dcClient( this);

  0005c	57		 push	 edi
  0005d	8d 4d d8	 lea	 ecx, DWORD PTR _dcClient$2[ebp]
  00060	e8 00 00 00 00	 call	 ??0CClientDC@@QAE@PAVCWnd@@@Z ; CClientDC::CClientDC

; 299  : 		CFont *pOldFont = dcClient.SelectObject( m_pRscFont);

  00065	ff b7 b4 04 00
	00		 push	 DWORD PTR [edi+1204]
  0006b	8d 4d d8	 lea	 ecx, DWORD PTR _dcClient$2[ebp]
  0006e	c7 45 fc 00 00
	00 00		 mov	 DWORD PTR __$EHRec$[ebp+8], 0
  00075	e8 00 00 00 00	 call	 ?SelectObject@CDC@@UAEPAVCFont@@PAV2@@Z ; CDC::SelectObject

; 300  : 		m_pAddInManager->OnLButtonUp( &dcClient, nFlags, point, m_dwMouseActionID);

  0007a	ff b7 f0 04 00
	00		 push	 DWORD PTR [edi+1264]
  00080	8b 8f cc 04 00
	00		 mov	 ecx, DWORD PTR [edi+1228]
  00086	8b f0		 mov	 esi, eax
  00088	8d 45 ec	 lea	 eax, DWORD PTR _point$[ebp]
  0008b	50		 push	 eax
  0008c	ff 75 08	 push	 DWORD PTR _nFlags$[ebp]
  0008f	8d 45 d8	 lea	 eax, DWORD PTR _dcClient$2[ebp]
  00092	50		 push	 eax
  00093	ff 15 00 00 00
	00		 call	 DWORD PTR __imp_?OnLButtonUp@CAddInManager@@QAEHPAVCDC@@IAAVCPoint@@K@Z

; 301  : 		dcClient.SelectObject( pOldFont);

  00099	56		 push	 esi
  0009a	8d 4d d8	 lea	 ecx, DWORD PTR _dcClient$2[ebp]
  0009d	e8 00 00 00 00	 call	 ?SelectObject@CDC@@UAEPAVCFont@@PAV2@@Z ; CDC::SelectObject

; 302  : 	}

  000a2	8d 4d d8	 lea	 ecx, DWORD PTR _dcClient$2[ebp]
  000a5	c7 45 fc ff ff
	ff ff		 mov	 DWORD PTR __$EHRec$[ebp+8], -1
  000ac	e8 00 00 00 00	 call	 ??1CClientDC@@UAE@XZ	; CClientDC::~CClientDC
  000b1	8b 5d 10	 mov	 ebx, DWORD PTR _point$[ebp+4]
  000b4	8b 75 0c	 mov	 esi, DWORD PTR _point$[ebp]
$LN11@OnLButtonU:

; 282  : 
; 283  : 	// (2006/2/6 - Seung-Won, Bae) Manage Mouse DownUp Count for AddIn's Mouse Action ID
; 284  : 	if( ULONG_MAX == m_dwMouseActionID) m_dwMouseActionID = 0;

  000b7	8b 87 f0 04 00
	00		 mov	 eax, DWORD PTR [edi+1264]

; 285  : 	else m_dwMouseActionID++;
; 286  : 
; 287  : 	COleControl::OnLButtonUp(nFlags, point);

  000bd	33 d2		 xor	 edx, edx
  000bf	53		 push	 ebx
  000c0	83 f8 ff	 cmp	 eax, -1
  000c3	56		 push	 esi
  000c4	ff 75 08	 push	 DWORD PTR _nFlags$[ebp]
  000c7	8d 48 01	 lea	 ecx, DWORD PTR [eax+1]
  000ca	0f 45 d1	 cmovne	 edx, ecx
  000cd	8b cf		 mov	 ecx, edi
  000cf	89 97 f0 04 00
	00		 mov	 DWORD PTR [edi+1264], edx
  000d5	e8 00 00 00 00	 call	 ?OnLButtonUp@COleControl@@IAEXIVCPoint@@@Z ; COleControl::OnLButtonUp

; 288  : }

  000da	8b 4d f4	 mov	 ecx, DWORD PTR __$EHRec$[ebp]
  000dd	64 89 0d 00 00
	00 00		 mov	 DWORD PTR fs:0, ecx
  000e4	59		 pop	 ecx
  000e5	5f		 pop	 edi
  000e6	5e		 pop	 esi
  000e7	5b		 pop	 ebx
  000e8	8b e5		 mov	 esp, ebp
  000ea	5d		 pop	 ebp
  000eb	c2 0c 00	 ret	 12			; 0000000cH
_TEXT	ENDS
;	COMDAT text$x
text$x	SEGMENT
__unwindfunclet$?OnLButtonUp@CKTBChartCtrl@@IAEXIVCPoint@@@Z$0:
  00000	8d 4d d8	 lea	 ecx, DWORD PTR _dcClient$2[ebp]
  00003	e9 00 00 00 00	 jmp	 ??1CClientDC@@UAE@XZ	; CClientDC::~CClientDC
  00008	cc		 int	 3
  00009	cc		 int	 3
  0000a	cc		 int	 3
  0000b	cc		 int	 3
  0000c	cc		 int	 3
__ehhandler$?OnLButtonUp@CKTBChartCtrl@@IAEXIVCPoint@@@Z:
  0000d	90		 npad	 1
  0000e	90		 npad	 1
  0000f	8b 54 24 08	 mov	 edx, DWORD PTR [esp+8]
  00013	8d 42 0c	 lea	 eax, DWORD PTR [edx+12]
  00016	8b 4a d4	 mov	 ecx, DWORD PTR [edx-44]
  00019	33 c8		 xor	 ecx, eax
  0001b	e8 00 00 00 00	 call	 @__security_check_cookie@4
  00020	b8 00 00 00 00	 mov	 eax, OFFSET __ehfuncinfo$?OnLButtonUp@CKTBChartCtrl@@IAEXIVCPoint@@@Z
  00025	e9 00 00 00 00	 jmp	 ___CxxFrameHandler3
text$x	ENDS
?OnLButtonUp@CKTBChartCtrl@@IAEXIVCPoint@@@Z ENDP	; CKTBChartCtrl::OnLButtonUp
; Function compile flags: /Ogtp
; File D:\git\src\IBK\IBK_DRFN\ProjSrc\SrcChartEx\ChartOCX\KTBChart\KTBChartMouse.cpp
;	COMDAT ?OnLButtonDown@CKTBChartCtrl@@IAEXIVCPoint@@@Z
_TEXT	SEGMENT
_dcClient$2 = -40					; size = 20
_point$ = -20						; size = 8
__$EHRec$ = -12						; size = 12
_nFlags$ = 8						; size = 4
_point$ = 12						; size = 8
?OnLButtonDown@CKTBChartCtrl@@IAEXIVCPoint@@@Z PROC	; CKTBChartCtrl::OnLButtonDown, COMDAT
; _this$ = ecx

; 237  : {

  00000	55		 push	 ebp
  00001	8b ec		 mov	 ebp, esp
  00003	6a ff		 push	 -1
  00005	68 00 00 00 00	 push	 __ehhandler$?OnLButtonDown@CKTBChartCtrl@@IAEXIVCPoint@@@Z
  0000a	64 a1 00 00 00
	00		 mov	 eax, DWORD PTR fs:0
  00010	50		 push	 eax
  00011	83 ec 1c	 sub	 esp, 28			; 0000001cH
  00014	56		 push	 esi
  00015	57		 push	 edi
  00016	a1 00 00 00 00	 mov	 eax, DWORD PTR ___security_cookie
  0001b	33 c5		 xor	 eax, ebp
  0001d	50		 push	 eax
  0001e	8d 45 f4	 lea	 eax, DWORD PTR __$EHRec$[ebp]
  00021	64 a3 00 00 00
	00		 mov	 DWORD PTR fs:0, eax
  00027	8b f9		 mov	 edi, ecx

; 238  : 	// TODO: Add your message handler code here and/or call default
; 239  : 	TRACE( "::OnLButtonDown()\r\n");
; 240  : 
; 241  : 	// (2006/2/6 - Seung-Won, Bae) Manage Mouse DownUp Count for AddIn's Mouse Action ID
; 242  : 	if( ULONG_MAX == m_dwMouseActionID) m_dwMouseActionID = 0;

  00029	8b 87 f0 04 00
	00		 mov	 eax, DWORD PTR [edi+1264]

; 243  : 	else m_dwMouseActionID++;
; 244  : 
; 245  : 	// (2006/2/6 - Seung-Won, Bae) for Mouse Action ID and Capture Count Handling
; 246  : 	// (2006/3/5 - Seung-Won, Bae) Do not process after AddSetCapture() for some possible other action.
; 247  : 	OnLButtonDownProc( nFlags, point);

  0002f	33 f6		 xor	 esi, esi
  00031	83 f8 ff	 cmp	 eax, -1
  00034	8d 50 01	 lea	 edx, DWORD PTR [eax+1]
  00037	0f 45 f2	 cmovne	 esi, edx
  0003a	89 b7 f0 04 00
	00		 mov	 DWORD PTR [edi+1264], esi

; 259  : 	if( m_pAddInManager)

  00040	83 bf cc 04 00
	00 00		 cmp	 DWORD PTR [edi+1228], 0

; 243  : 	else m_dwMouseActionID++;
; 244  : 
; 245  : 	// (2006/2/6 - Seung-Won, Bae) for Mouse Action ID and Capture Count Handling
; 246  : 	// (2006/3/5 - Seung-Won, Bae) Do not process after AddSetCapture() for some possible other action.
; 247  : 	OnLButtonDownProc( nFlags, point);

  00047	8b 45 0c	 mov	 eax, DWORD PTR _point$[ebp]
  0004a	8b 4d 10	 mov	 ecx, DWORD PTR _point$[ebp+4]
  0004d	89 45 ec	 mov	 DWORD PTR _point$[ebp], eax
  00050	89 4d f0	 mov	 DWORD PTR _point$[ebp+4], ecx

; 259  : 	if( m_pAddInManager)

  00053	74 55		 je	 SHORT $LN6@OnLButtonD

; 260  : 	{
; 261  : 		// Caution! Use Client DC for MsgLoop like TrackPopupMenu()
; 262  : 		//		if GetDC(), The DC Instance can be destroyed. (You may lost the Handle of DC)
; 263  : 		CClientDC dcClient( this);

  00055	57		 push	 edi
  00056	8d 4d d8	 lea	 ecx, DWORD PTR _dcClient$2[ebp]
  00059	e8 00 00 00 00	 call	 ??0CClientDC@@QAE@PAVCWnd@@@Z ; CClientDC::CClientDC

; 264  : 		CFont *pOldFont = dcClient.SelectObject( m_pRscFont);

  0005e	ff b7 b4 04 00
	00		 push	 DWORD PTR [edi+1204]
  00064	8d 4d d8	 lea	 ecx, DWORD PTR _dcClient$2[ebp]
  00067	c7 45 fc 00 00
	00 00		 mov	 DWORD PTR __$EHRec$[ebp+8], 0
  0006e	e8 00 00 00 00	 call	 ?SelectObject@CDC@@UAEPAVCFont@@PAV2@@Z ; CDC::SelectObject

; 265  : 		m_pAddInManager->OnLButtonDown( &dcClient, nFlags, point, m_dwMouseActionID);

  00073	ff b7 f0 04 00
	00		 push	 DWORD PTR [edi+1264]
  00079	8b 8f cc 04 00
	00		 mov	 ecx, DWORD PTR [edi+1228]
  0007f	8b f0		 mov	 esi, eax
  00081	8d 45 ec	 lea	 eax, DWORD PTR _point$[ebp]
  00084	50		 push	 eax
  00085	ff 75 08	 push	 DWORD PTR _nFlags$[ebp]
  00088	8d 45 d8	 lea	 eax, DWORD PTR _dcClient$2[ebp]
  0008b	50		 push	 eax
  0008c	ff 15 00 00 00
	00		 call	 DWORD PTR __imp_?OnLButtonDown@CAddInManager@@QAEHPAVCDC@@IAAVCPoint@@K@Z

; 266  : 		dcClient.SelectObject( pOldFont);

  00092	56		 push	 esi
  00093	8d 4d d8	 lea	 ecx, DWORD PTR _dcClient$2[ebp]
  00096	e8 00 00 00 00	 call	 ?SelectObject@CDC@@UAEPAVCFont@@PAV2@@Z ; CDC::SelectObject

; 267  : 	}

  0009b	8d 4d d8	 lea	 ecx, DWORD PTR _dcClient$2[ebp]
  0009e	c7 45 fc ff ff
	ff ff		 mov	 DWORD PTR __$EHRec$[ebp+8], -1
  000a5	e8 00 00 00 00	 call	 ??1CClientDC@@UAE@XZ	; CClientDC::~CClientDC
$LN6@OnLButtonD:

; 130  : 	if( m_nMouseCaptureCount == 0) pWnd = SetCapture();

  000aa	8b 87 ec 04 00
	00		 mov	 eax, DWORD PTR [edi+1260]
  000b0	85 c0		 test	 eax, eax
  000b2	75 0d		 jne	 SHORT $LN10@OnLButtonD
  000b4	8b cf		 mov	 ecx, edi
  000b6	e8 00 00 00 00	 call	 ?SetCapture@COleControl@@QAEPAVCWnd@@XZ ; COleControl::SetCapture
  000bb	8b 87 ec 04 00
	00		 mov	 eax, DWORD PTR [edi+1260]
$LN10@OnLButtonD:

; 248  : 
; 249  : 	// (2004.11.02, ) Mouse Capturing  ,  Count  Capturing Interface .
; 250  : 	AddSetCapture();
; 251  : 
; 252  : 	COleControl::OnLButtonDown( nFlags, point);

  000c1	ff 75 10	 push	 DWORD PTR _point$[ebp+4]

; 133  : 	m_nMouseCaptureCount++;

  000c4	40		 inc	 eax

; 248  : 
; 249  : 	// (2004.11.02, ) Mouse Capturing  ,  Count  Capturing Interface .
; 250  : 	AddSetCapture();
; 251  : 
; 252  : 	COleControl::OnLButtonDown( nFlags, point);

  000c5	8b cf		 mov	 ecx, edi
  000c7	ff 75 0c	 push	 DWORD PTR _point$[ebp]

; 133  : 	m_nMouseCaptureCount++;

  000ca	89 87 ec 04 00
	00		 mov	 DWORD PTR [edi+1260], eax

; 248  : 
; 249  : 	// (2004.11.02, ) Mouse Capturing  ,  Count  Capturing Interface .
; 250  : 	AddSetCapture();
; 251  : 
; 252  : 	COleControl::OnLButtonDown( nFlags, point);

  000d0	ff 75 08	 push	 DWORD PTR _nFlags$[ebp]
  000d3	e8 00 00 00 00	 call	 ?OnLButtonDown@COleControl@@IAEXIVCPoint@@@Z ; COleControl::OnLButtonDown

; 253  : }

  000d8	8b 4d f4	 mov	 ecx, DWORD PTR __$EHRec$[ebp]
  000db	64 89 0d 00 00
	00 00		 mov	 DWORD PTR fs:0, ecx
  000e2	59		 pop	 ecx
  000e3	5f		 pop	 edi
  000e4	5e		 pop	 esi
  000e5	8b e5		 mov	 esp, ebp
  000e7	5d		 pop	 ebp
  000e8	c2 0c 00	 ret	 12			; 0000000cH
_TEXT	ENDS
;	COMDAT text$x
text$x	SEGMENT
__unwindfunclet$?OnLButtonDown@CKTBChartCtrl@@IAEXIVCPoint@@@Z$0:
  00000	8d 4d d8	 lea	 ecx, DWORD PTR _dcClient$2[ebp]
  00003	e9 00 00 00 00	 jmp	 ??1CClientDC@@UAE@XZ	; CClientDC::~CClientDC
  00008	cc		 int	 3
  00009	cc		 int	 3
  0000a	cc		 int	 3
  0000b	cc		 int	 3
  0000c	cc		 int	 3
__ehhandler$?OnLButtonDown@CKTBChartCtrl@@IAEXIVCPoint@@@Z:
  0000d	90		 npad	 1
  0000e	90		 npad	 1
  0000f	8b 54 24 08	 mov	 edx, DWORD PTR [esp+8]
  00013	8d 42 0c	 lea	 eax, DWORD PTR [edx+12]
  00016	8b 4a d8	 mov	 ecx, DWORD PTR [edx-40]
  00019	33 c8		 xor	 ecx, eax
  0001b	e8 00 00 00 00	 call	 @__security_check_cookie@4
  00020	b8 00 00 00 00	 mov	 eax, OFFSET __ehfuncinfo$?OnLButtonDown@CKTBChartCtrl@@IAEXIVCPoint@@@Z
  00025	e9 00 00 00 00	 jmp	 ___CxxFrameHandler3
text$x	ENDS
?OnLButtonDown@CKTBChartCtrl@@IAEXIVCPoint@@@Z ENDP	; CKTBChartCtrl::OnLButtonDown
; Function compile flags: /Ogtp
; File D:\git\src\IBK\IBK_DRFN\ProjSrc\SrcChartEx\ChartOCX\KTBChart\KTBChartMouse.cpp
; File C:\Program Files (x86)\Microsoft Visual Studio\2019\Community\VC\Tools\MSVC\14.29.30133\atlmfc\include\afxwin1.inl
; File D:\git\src\IBK\IBK_DRFN\ProjSrc\SrcChartEx\ChartOCX\KTBChart\KTBChartMouse.cpp
; File C:\Program Files (x86)\Microsoft Visual Studio\2019\Community\VC\Tools\MSVC\14.29.30133\atlmfc\include\afxwin1.inl
; File D:\git\src\IBK\IBK_DRFN\ProjSrc\SrcChartEx\ChartOCX\KTBChart\KTBChartMouse.cpp
; File C:\Program Files (x86)\Microsoft Visual Studio\2019\Community\VC\Tools\MSVC\14.29.30133\atlmfc\include\afxwin1.inl
; File C:\Program Files (x86)\Microsoft Visual Studio\2019\Community\VC\Tools\MSVC\14.29.30133\atlmfc\include\atltypes.h
; File D:\git\src\IBK\IBK_DRFN\ProjSrc\SrcChartEx\ChartOCX\KTBChart\KTBChartMouse.cpp
; File C:\Program Files (x86)\Microsoft Visual Studio\2019\Community\VC\Tools\MSVC\14.29.30133\atlmfc\include\atltypes.h
; File C:\Program Files (x86)\Microsoft Visual Studio\2019\Community\VC\Tools\MSVC\14.29.30133\atlmfc\include\afxwin1.inl
; File D:\git\src\IBK\IBK_DRFN\ProjSrc\SrcChartEx\ChartOCX\KTBChart\KTBChartMouse.cpp
; File C:\Program Files (x86)\Microsoft Visual Studio\2019\Community\VC\Tools\MSVC\14.29.30133\atlmfc\include\afxwin1.inl
; File D:\git\src\IBK\IBK_DRFN\ProjSrc\SrcChartEx\ChartOCX\KTBChart\KTBChartMouse.cpp
; File C:\Program Files (x86)\Microsoft Visual Studio\2019\Community\VC\Tools\MSVC\14.29.30133\atlmfc\include\atltypes.h
; File C:\Program Files (x86)\Microsoft Visual Studio\2019\Community\VC\Tools\MSVC\14.29.30133\atlmfc\include\afxwin1.inl
; File C:\Program Files (x86)\Microsoft Visual Studio\2019\Community\VC\Tools\MSVC\14.29.30133\atlmfc\include\atltypes.h
; File C:\Program Files (x86)\Microsoft Visual Studio\2019\Community\VC\Tools\MSVC\14.29.30133\atlmfc\include\afxwin1.inl
; File D:\git\src\IBK\IBK_DRFN\ProjSrc\SrcChartEx\ChartOCX\KTBChart\KTBChartMouse.cpp
; File C:\Program Files (x86)\Microsoft Visual Studio\2019\Community\VC\Tools\MSVC\14.29.30133\atlmfc\include\afxwin1.inl
; File D:\git\src\IBK\IBK_DRFN\ProjSrc\SrcChartEx\ChartOCX\KTBChart\KTBChartMouse.cpp
; File C:\Program Files (x86)\Microsoft Visual Studio\2019\Community\VC\Tools\MSVC\14.29.30133\atlmfc\include\afxwin1.inl
; File D:\git\src\IBK\IBK_DRFN\ProjSrc\SrcChartEx\ChartOCX\KTBChart\KTBChartMouse.cpp
;	COMDAT ?OnMouseMove@CKTBChartCtrl@@IAEXIVCPoint@@@Z
_TEXT	SEGMENT
_dcClient$2 = -64					; size = 20
_memoryDC$3 = -44					; size = 16
_bmpLocalOSB$4 = -28					; size = 8
_pOldbm$1$ = -20					; size = 4
_this$1$ = -16						; size = 4
__$EHRec$ = -12						; size = 12
_nFlags$ = 8						; size = 4
_point$ = 12						; size = 8
?OnMouseMove@CKTBChartCtrl@@IAEXIVCPoint@@@Z PROC	; CKTBChartCtrl::OnMouseMove, COMDAT
; _this$ = ecx

; 201  : {

  00000	55		 push	 ebp
  00001	8b ec		 mov	 ebp, esp
  00003	6a ff		 push	 -1
  00005	68 00 00 00 00	 push	 __ehhandler$?OnMouseMove@CKTBChartCtrl@@IAEXIVCPoint@@@Z
  0000a	64 a1 00 00 00
	00		 mov	 eax, DWORD PTR fs:0
  00010	50		 push	 eax
  00011	83 ec 34	 sub	 esp, 52			; 00000034H
  00014	53		 push	 ebx
  00015	56		 push	 esi
  00016	57		 push	 edi
  00017	a1 00 00 00 00	 mov	 eax, DWORD PTR ___security_cookie
  0001c	33 c5		 xor	 eax, ebp
  0001e	50		 push	 eax
  0001f	8d 45 f4	 lea	 eax, DWORD PTR __$EHRec$[ebp]
  00022	64 a3 00 00 00
	00		 mov	 DWORD PTR fs:0, eax
  00028	8b f1		 mov	 esi, ecx
  0002a	89 75 f0	 mov	 DWORD PTR _this$1$[ebp], esi

; 202  : 	// (2006/1/17 - Seung-Won, Bae) Notify Mouse Move Event to Addin
; 203  : 	if( m_pAddInManager)

  0002d	83 be cc 04 00
	00 00		 cmp	 DWORD PTR [esi+1228], 0
  00034	0f 84 63 01 00
	00		 je	 $LN2@OnMouseMov

; 204  : 	{
; 205  : 		// Caution! Use Client DC for MsgLoop like TrackPopupMenu()
; 206  : 		//		if GetDC(), The DC Instance can be destroyed. (You may lost the Handle of DC)
; 207  : 		CClientDC dcClient( this);

  0003a	56		 push	 esi
  0003b	8d 4d c0	 lea	 ecx, DWORD PTR _dcClient$2[ebp]
  0003e	e8 00 00 00 00	 call	 ??0CClientDC@@QAE@PAVCWnd@@@Z ; CClientDC::CClientDC

; 208  : 		CDC memoryDC;

  00043	8d 4d d4	 lea	 ecx, DWORD PTR _memoryDC$3[ebp]
  00046	c7 45 fc 00 00
	00 00		 mov	 DWORD PTR __$EHRec$[ebp+8], 0
  0004d	e8 00 00 00 00	 call	 ??0CDC@@QAE@XZ		; CDC::CDC
; File C:\Program Files (x86)\Microsoft Visual Studio\2019\Community\VC\Tools\MSVC\14.29.30133\atlmfc\include\afxwin1.inl

; 330  : 	{ return Attach(::CreateCompatibleDC(pDC->GetSafeHdc())); }

  00052	ff 75 c4	 push	 DWORD PTR _dcClient$2[ebp+4]
; File D:\git\src\IBK\IBK_DRFN\ProjSrc\SrcChartEx\ChartOCX\KTBChart\KTBChartMouse.cpp

; 208  : 		CDC memoryDC;

  00055	c6 45 fc 01	 mov	 BYTE PTR __$EHRec$[ebp+8], 1
; File C:\Program Files (x86)\Microsoft Visual Studio\2019\Community\VC\Tools\MSVC\14.29.30133\atlmfc\include\afxwin1.inl

; 330  : 	{ return Attach(::CreateCompatibleDC(pDC->GetSafeHdc())); }

  00059	ff 15 00 00 00
	00		 call	 DWORD PTR __imp__CreateCompatibleDC@4
  0005f	50		 push	 eax
  00060	8d 4d d4	 lea	 ecx, DWORD PTR _memoryDC$3[ebp]
  00063	e8 00 00 00 00	 call	 ?Attach@CDC@@QAEHPAUHDC__@@@Z ; CDC::Attach
; File D:\git\src\IBK\IBK_DRFN\ProjSrc\SrcChartEx\ChartOCX\KTBChart\KTBChartMouse.cpp

; 209  : 		if( memoryDC.CreateCompatibleDC( &dcClient))

  00068	85 c0		 test	 eax, eax
  0006a	0f 84 16 01 00
	00		 je	 $LN47@OnMouseMov

; 210  : 		{
; 211  : 			CFont* pOldFont = memoryDC.SelectObject( m_pRscFont);

  00070	ff b6 b4 04 00
	00		 push	 DWORD PTR [esi+1204]
  00076	8d 4d d4	 lea	 ecx, DWORD PTR _memoryDC$3[ebp]
  00079	e8 00 00 00 00	 call	 ?SelectObject@CDC@@UAEPAVCFont@@PAV2@@Z ; CDC::SelectObject
  0007e	8b d8		 mov	 ebx, eax
; File C:\Program Files (x86)\Microsoft Visual Studio\2019\Community\VC\Tools\MSVC\14.29.30133\atlmfc\include\afxwin1.inl

; 70   : 	{ m_hObject = NULL; }

  00080	c7 45 e8 00 00
	00 00		 mov	 DWORD PTR _bmpLocalOSB$4[ebp+4], 0

; 177  : 	{ }

  00087	c7 45 e4 00 00
	00 00		 mov	 DWORD PTR _bmpLocalOSB$4[ebp], OFFSET ??_7CBitmap@@6B@
; File C:\Program Files (x86)\Microsoft Visual Studio\2019\Community\VC\Tools\MSVC\14.29.30133\atlmfc\include\atltypes.h

; 581  : 	return bottom - top;

  0008e	8b 8e 54 03 00
	00		 mov	 ecx, DWORD PTR [esi+852]
; File D:\git\src\IBK\IBK_DRFN\ProjSrc\SrcChartEx\ChartOCX\KTBChart\KTBChartMouse.cpp

; 214  : 			bmpLocalOSB.CreateCompatibleBitmap( &dcClient, m_rcMain.Width(), m_rcMain.Height());

  00094	8d be 48 03 00
	00		 lea	 edi, DWORD PTR [esi+840]
; File C:\Program Files (x86)\Microsoft Visual Studio\2019\Community\VC\Tools\MSVC\14.29.30133\atlmfc\include\atltypes.h

; 581  : 	return bottom - top;

  0009a	2b 8e 4c 03 00
	00		 sub	 ecx, DWORD PTR [esi+844]

; 576  : 	return right - left;

  000a0	8b 47 08	 mov	 eax, DWORD PTR [edi+8]
  000a3	2b 07		 sub	 eax, DWORD PTR [edi]
; File C:\Program Files (x86)\Microsoft Visual Studio\2019\Community\VC\Tools\MSVC\14.29.30133\atlmfc\include\afxwin1.inl

; 217  : 	{ return Attach(::CreateCompatibleBitmap(pDC->m_hDC, nWidth, nHeight)); }

  000a5	51		 push	 ecx
  000a6	50		 push	 eax
  000a7	ff 75 c4	 push	 DWORD PTR _dcClient$2[ebp+4]
; File D:\git\src\IBK\IBK_DRFN\ProjSrc\SrcChartEx\ChartOCX\KTBChart\KTBChartMouse.cpp

; 213  : 			CBitmap bmpLocalOSB;

  000aa	c6 45 fc 02	 mov	 BYTE PTR __$EHRec$[ebp+8], 2
; File C:\Program Files (x86)\Microsoft Visual Studio\2019\Community\VC\Tools\MSVC\14.29.30133\atlmfc\include\afxwin1.inl

; 217  : 	{ return Attach(::CreateCompatibleBitmap(pDC->m_hDC, nWidth, nHeight)); }

  000ae	ff 15 00 00 00
	00		 call	 DWORD PTR __imp__CreateCompatibleBitmap@12
  000b4	50		 push	 eax
  000b5	8d 4d e4	 lea	 ecx, DWORD PTR _bmpLocalOSB$4[ebp]
  000b8	e8 00 00 00 00	 call	 ?Attach@CGdiObject@@QAEHPAX@Z ; CGdiObject::Attach

; 361  : 	{ ASSERT(m_hDC != NULL); return (CBitmap*) SelectGdiObject(m_hDC, pBitmap->GetSafeHandle()); }

  000bd	ff 75 e8	 push	 DWORD PTR _bmpLocalOSB$4[ebp+4]
  000c0	ff 75 d8	 push	 DWORD PTR _memoryDC$3[ebp+4]
  000c3	e8 00 00 00 00	 call	 ?SelectGdiObject@CDC@@KGPAVCGdiObject@@PAUHDC__@@PAX@Z ; CDC::SelectGdiObject
; File D:\git\src\IBK\IBK_DRFN\ProjSrc\SrcChartEx\ChartOCX\KTBChart\KTBChartMouse.cpp

; 219  : 			m_pAddInManager->ClearCursor( &memoryDC, &m_bmpMainOSB, &m_rcMain);

  000c8	8b 4d f0	 mov	 ecx, DWORD PTR _this$1$[ebp]
  000cb	81 c6 18 04 00
	00		 add	 esi, 1048		; 00000418H
  000d1	57		 push	 edi
  000d2	89 45 ec	 mov	 DWORD PTR _pOldbm$1$[ebp], eax
  000d5	8d 45 d4	 lea	 eax, DWORD PTR _memoryDC$3[ebp]
  000d8	56		 push	 esi
  000d9	8b 89 cc 04 00
	00		 mov	 ecx, DWORD PTR [ecx+1228]
  000df	50		 push	 eax
  000e0	ff 15 00 00 00
	00		 call	 DWORD PTR __imp_?ClearCursor@CAddInManager@@QAEXPAVCDC@@PBVCBitmap@@PAVCRect@@@Z

; 220  : 			m_pAddInManager->OnMouseMove( &memoryDC, nFlags, point, m_dwMouseActionID, &m_bmpMainOSB);

  000e6	56		 push	 esi
  000e7	8b 75 f0	 mov	 esi, DWORD PTR _this$1$[ebp]
  000ea	8d 45 0c	 lea	 eax, DWORD PTR _point$[ebp]
  000ed	ff b6 f0 04 00
	00		 push	 DWORD PTR [esi+1264]
  000f3	8b 8e cc 04 00
	00		 mov	 ecx, DWORD PTR [esi+1228]
  000f9	50		 push	 eax
  000fa	ff 75 08	 push	 DWORD PTR _nFlags$[ebp]
  000fd	8d 45 d4	 lea	 eax, DWORD PTR _memoryDC$3[ebp]
  00100	50		 push	 eax
  00101	ff 15 00 00 00
	00		 call	 DWORD PTR __imp_?OnMouseMove@CAddInManager@@QAEHPAVCDC@@IAAVCPoint@@KPBVCBitmap@@@Z

; 221  : 			m_pAddInManager->DrawCursor( &memoryDC);

  00107	8b 8e cc 04 00
	00		 mov	 ecx, DWORD PTR [esi+1228]
  0010d	8d 45 d4	 lea	 eax, DWORD PTR _memoryDC$3[ebp]
  00110	50		 push	 eax
  00111	ff 15 00 00 00
	00		 call	 DWORD PTR __imp_?DrawCursor@CAddInManager@@QAEXPAVCDC@@@Z
; File C:\Program Files (x86)\Microsoft Visual Studio\2019\Community\VC\Tools\MSVC\14.29.30133\atlmfc\include\atltypes.h

; 581  : 	return bottom - top;

  00117	8b 4d f0	 mov	 ecx, DWORD PTR _this$1$[ebp]
  0011a	8b b6 4c 03 00
	00		 mov	 esi, DWORD PTR [esi+844]

; 576  : 	return right - left;

  00120	8b 17		 mov	 edx, DWORD PTR [edi]
  00122	8b 47 08	 mov	 eax, DWORD PTR [edi+8]

; 581  : 	return bottom - top;

  00125	8b 89 54 03 00
	00		 mov	 ecx, DWORD PTR [ecx+852]

; 576  : 	return right - left;

  0012b	2b c2		 sub	 eax, edx
; File C:\Program Files (x86)\Microsoft Visual Studio\2019\Community\VC\Tools\MSVC\14.29.30133\atlmfc\include\afxwin1.inl

; 552  : 	{ ASSERT(m_hDC != NULL); return ::BitBlt(m_hDC, x, y, nWidth, nHeight,

  0012d	68 20 00 cc 00	 push	 13369376		; 00cc0020H
  00132	6a 00		 push	 0
  00134	6a 00		 push	 0
  00136	ff 75 d8	 push	 DWORD PTR _memoryDC$3[ebp+4]
; File C:\Program Files (x86)\Microsoft Visual Studio\2019\Community\VC\Tools\MSVC\14.29.30133\atlmfc\include\atltypes.h

; 581  : 	return bottom - top;

  00139	2b ce		 sub	 ecx, esi
; File C:\Program Files (x86)\Microsoft Visual Studio\2019\Community\VC\Tools\MSVC\14.29.30133\atlmfc\include\afxwin1.inl

; 552  : 	{ ASSERT(m_hDC != NULL); return ::BitBlt(m_hDC, x, y, nWidth, nHeight,

  0013b	51		 push	 ecx
  0013c	50		 push	 eax
  0013d	56		 push	 esi
  0013e	52		 push	 edx
  0013f	ff 75 c4	 push	 DWORD PTR _dcClient$2[ebp+4]
  00142	ff 15 00 00 00
	00		 call	 DWORD PTR __imp__BitBlt@36
; File D:\git\src\IBK\IBK_DRFN\ProjSrc\SrcChartEx\ChartOCX\KTBChart\KTBChartMouse.cpp

; 225  : 			memoryDC.SelectObject(pOldFont) ;

  00148	53		 push	 ebx
  00149	8d 4d d4	 lea	 ecx, DWORD PTR _memoryDC$3[ebp]
  0014c	e8 00 00 00 00	 call	 ?SelectObject@CDC@@UAEPAVCFont@@PAV2@@Z ; CDC::SelectObject
; File C:\Program Files (x86)\Microsoft Visual Studio\2019\Community\VC\Tools\MSVC\14.29.30133\atlmfc\include\afxwin1.inl

; 68   : 	{ return this == NULL ? NULL : m_hObject; }

  00151	8b 45 ec	 mov	 eax, DWORD PTR _pOldbm$1$[ebp]
  00154	85 c0		 test	 eax, eax
  00156	74 03		 je	 SHORT $LN45@OnMouseMov
$LN44@OnMouseMov:
  00158	8b 40 04	 mov	 eax, DWORD PTR [eax+4]
$LN45@OnMouseMov:

; 361  : 	{ ASSERT(m_hDC != NULL); return (CBitmap*) SelectGdiObject(m_hDC, pBitmap->GetSafeHandle()); }

  0015b	50		 push	 eax
  0015c	ff 75 d8	 push	 DWORD PTR _memoryDC$3[ebp+4]
  0015f	e8 00 00 00 00	 call	 ?SelectGdiObject@CDC@@KGPAVCGdiObject@@PAUHDC__@@PAX@Z ; CDC::SelectGdiObject
; File D:\git\src\IBK\IBK_DRFN\ProjSrc\SrcChartEx\ChartOCX\KTBChart\KTBChartMouse.cpp

; 227  : 			memoryDC.DeleteDC();

  00164	8d 4d d4	 lea	 ecx, DWORD PTR _memoryDC$3[ebp]
  00167	e8 00 00 00 00	 call	 ?DeleteDC@CDC@@QAEHXZ	; CDC::DeleteDC

; 228  : 
; 229  : 			bmpLocalOSB.DeleteObject();

  0016c	8d 4d e4	 lea	 ecx, DWORD PTR _bmpLocalOSB$4[ebp]
  0016f	e8 00 00 00 00	 call	 ?DeleteObject@CGdiObject@@QAEHXZ ; CGdiObject::DeleteObject
; File C:\Program Files (x86)\Microsoft Visual Studio\2019\Community\VC\Tools\MSVC\14.29.30133\atlmfc\include\afxwin1.inl

; 179  : 	{ }

  00174	8d 4d e4	 lea	 ecx, DWORD PTR _bmpLocalOSB$4[ebp]
  00177	c7 45 e4 00 00
	00 00		 mov	 DWORD PTR _bmpLocalOSB$4[ebp], OFFSET ??_7CBitmap@@6B@
  0017e	e8 00 00 00 00	 call	 ??1CGdiObject@@UAE@XZ	; CGdiObject::~CGdiObject
  00183	8b 75 f0	 mov	 esi, DWORD PTR _this$1$[ebp]
$LN47@OnMouseMov:
; File D:\git\src\IBK\IBK_DRFN\ProjSrc\SrcChartEx\ChartOCX\KTBChart\KTBChartMouse.cpp

; 231  : 	}

  00186	8d 4d d4	 lea	 ecx, DWORD PTR _memoryDC$3[ebp]
  00189	e8 00 00 00 00	 call	 ??1CDC@@UAE@XZ		; CDC::~CDC
  0018e	8d 4d c0	 lea	 ecx, DWORD PTR _dcClient$2[ebp]
  00191	c7 45 fc ff ff
	ff ff		 mov	 DWORD PTR __$EHRec$[ebp+8], -1
  00198	e8 00 00 00 00	 call	 ??1CClientDC@@UAE@XZ	; CClientDC::~CClientDC
$LN2@OnMouseMov:

; 232  : 
; 233  : 	COleControl::OnMouseMove(nFlags, point);

  0019d	ff 75 10	 push	 DWORD PTR _point$[ebp+4]
  001a0	8b ce		 mov	 ecx, esi
  001a2	ff 75 0c	 push	 DWORD PTR _point$[ebp]
  001a5	ff 75 08	 push	 DWORD PTR _nFlags$[ebp]
  001a8	e8 00 00 00 00	 call	 ?OnMouseMove@COleControl@@IAEXIVCPoint@@@Z ; COleControl::OnMouseMove

; 234  : }

  001ad	8b 4d f4	 mov	 ecx, DWORD PTR __$EHRec$[ebp]
  001b0	64 89 0d 00 00
	00 00		 mov	 DWORD PTR fs:0, ecx
  001b7	59		 pop	 ecx
  001b8	5f		 pop	 edi
  001b9	5e		 pop	 esi
  001ba	5b		 pop	 ebx
  001bb	8b e5		 mov	 esp, ebp
  001bd	5d		 pop	 ebp
  001be	c2 0c 00	 ret	 12			; 0000000cH
_TEXT	ENDS
;	COMDAT text$x
text$x	SEGMENT
__unwindfunclet$?OnMouseMove@CKTBChartCtrl@@IAEXIVCPoint@@@Z$0:
  00000	8d 4d c0	 lea	 ecx, DWORD PTR _dcClient$2[ebp]
  00003	e9 00 00 00 00	 jmp	 ??1CClientDC@@UAE@XZ	; CClientDC::~CClientDC
__unwindfunclet$?OnMouseMove@CKTBChartCtrl@@IAEXIVCPoint@@@Z$1:
  00008	8d 4d d4	 lea	 ecx, DWORD PTR _memoryDC$3[ebp]
  0000b	e9 00 00 00 00	 jmp	 ??1CDC@@UAE@XZ		; CDC::~CDC
__unwindfunclet$?OnMouseMove@CKTBChartCtrl@@IAEXIVCPoint@@@Z$2:
  00010	8d 4d e4	 lea	 ecx, DWORD PTR _bmpLocalOSB$4[ebp]
  00013	e9 00 00 00 00	 jmp	 ??1CBitmap@@UAE@XZ	; CBitmap::~CBitmap
  00018	cc		 int	 3
  00019	cc		 int	 3
  0001a	cc		 int	 3
  0001b	cc		 int	 3
  0001c	cc		 int	 3
__ehhandler$?OnMouseMove@CKTBChartCtrl@@IAEXIVCPoint@@@Z:
  0001d	90		 npad	 1
  0001e	90		 npad	 1
  0001f	8b 54 24 08	 mov	 edx, DWORD PTR [esp+8]
  00023	8d 42 0c	 lea	 eax, DWORD PTR [edx+12]
  00026	8b 4a bc	 mov	 ecx, DWORD PTR [edx-68]
  00029	33 c8		 xor	 ecx, eax
  0002b	e8 00 00 00 00	 call	 @__security_check_cookie@4
  00030	b8 00 00 00 00	 mov	 eax, OFFSET __ehfuncinfo$?OnMouseMove@CKTBChartCtrl@@IAEXIVCPoint@@@Z
  00035	e9 00 00 00 00	 jmp	 ___CxxFrameHandler3
text$x	ENDS
?OnMouseMove@CKTBChartCtrl@@IAEXIVCPoint@@@Z ENDP	; CKTBChartCtrl::OnMouseMove
; Function compile flags: /Ogtp
; File D:\git\src\IBK\IBK_DRFN\ProjSrc\SrcChartEx\ChartOCX\KTBChart\KTBChartMouse.cpp
; File C:\Program Files (x86)\Microsoft Visual Studio\2019\Community\VC\Tools\MSVC\14.29.30133\atlmfc\include\afxwin2.inl
; File D:\git\src\IBK\IBK_DRFN\ProjSrc\SrcChartEx\ChartOCX\KTBChart\KTBChartMouse.cpp
;	COMDAT ?OnCaptureChanged@CKTBChartCtrl@@IAEXPAVCWnd@@@Z
_TEXT	SEGMENT
_dcClient$2 = -32					; size = 20
__$EHRec$ = -12						; size = 12
_pWnd$ = 8						; size = 4
?OnCaptureChanged@CKTBChartCtrl@@IAEXPAVCWnd@@@Z PROC	; CKTBChartCtrl::OnCaptureChanged, COMDAT
; _this$ = ecx

; 160  : {

  00000	55		 push	 ebp
  00001	8b ec		 mov	 ebp, esp
  00003	6a ff		 push	 -1
  00005	68 00 00 00 00	 push	 __ehhandler$?OnCaptureChanged@CKTBChartCtrl@@IAEXPAVCWnd@@@Z
  0000a	64 a1 00 00 00
	00		 mov	 eax, DWORD PTR fs:0
  00010	50		 push	 eax
  00011	83 ec 14	 sub	 esp, 20			; 00000014H
  00014	53		 push	 ebx
  00015	56		 push	 esi
  00016	57		 push	 edi
  00017	a1 00 00 00 00	 mov	 eax, DWORD PTR ___security_cookie
  0001c	33 c5		 xor	 eax, ebp
  0001e	50		 push	 eax
  0001f	8d 45 f4	 lea	 eax, DWORD PTR __$EHRec$[ebp]
  00022	64 a3 00 00 00
	00		 mov	 DWORD PTR fs:0, eax
  00028	8b d9		 mov	 ebx, ecx

; 161  : 	// TODO: Add your message handler code here
; 162  : 
; 163  : 	// (2006/2/6 - Seung-Won, Bae) Check SetCapture or ReleaseCapture, LoseCapture
; 164  : 	if( ( 0 == m_nMouseCaptureCount && this == pWnd) || ( 0 < m_nMouseCaptureCount && this != pWnd))

  0002a	8b 83 ec 04 00
	00		 mov	 eax, DWORD PTR [ebx+1260]
  00030	85 c0		 test	 eax, eax
  00032	75 0c		 jne	 SHORT $LN13@OnCaptureC
  00034	8b 75 08	 mov	 esi, DWORD PTR _pWnd$[ebp]
  00037	3b de		 cmp	 ebx, esi
  00039	74 16		 je	 SHORT $LN3@OnCaptureC
  0003b	e9 94 00 00 00	 jmp	 $LN6@OnCaptureC
$LN13@OnCaptureC:
  00040	0f 8e 8e 00 00
	00		 jle	 $LN6@OnCaptureC
  00046	8b 75 08	 mov	 esi, DWORD PTR _pWnd$[ebp]
  00049	3b de		 cmp	 ebx, esi
  0004b	0f 84 83 00 00
	00		 je	 $LN6@OnCaptureC
$LN3@OnCaptureC:

; 165  : 	{
; 166  : 		// (2004.10.29, ) Mouse Event AddIn DLL  .
; 167  : 		if( m_pAddInManager)

  00051	83 bb cc 04 00
	00 00		 cmp	 DWORD PTR [ebx+1228], 0
  00058	74 68		 je	 SHORT $LN5@OnCaptureC

; 168  : 		{
; 169  : 			CClientDC dcClient( this);

  0005a	53		 push	 ebx
  0005b	8d 4d e0	 lea	 ecx, DWORD PTR _dcClient$2[ebp]
  0005e	e8 00 00 00 00	 call	 ??0CClientDC@@QAE@PAVCWnd@@@Z ; CClientDC::CClientDC

; 170  : 			CFont *pOldFont = dcClient.SelectObject( m_pRscFont);

  00063	ff b3 b4 04 00
	00		 push	 DWORD PTR [ebx+1204]
  00069	8d 4d e0	 lea	 ecx, DWORD PTR _dcClient$2[ebp]
  0006c	c7 45 fc 00 00
	00 00		 mov	 DWORD PTR __$EHRec$[ebp+8], 0
  00073	e8 00 00 00 00	 call	 ?SelectObject@CDC@@UAEPAVCFont@@PAV2@@Z ; CDC::SelectObject

; 171  : 			// (2007/1/7 - Seung-Won, Bae) Support AddIn Cursor Operation.
; 172  : 			m_pAddInManager->ClearCursor( &dcClient, &m_bmpMainOSB);

  00078	8b 8b cc 04 00
	00		 mov	 ecx, DWORD PTR [ebx+1228]
  0007e	8d bb 18 04 00
	00		 lea	 edi, DWORD PTR [ebx+1048]
  00084	6a 00		 push	 0
  00086	8b f0		 mov	 esi, eax
  00088	8d 45 e0	 lea	 eax, DWORD PTR _dcClient$2[ebp]
  0008b	57		 push	 edi
  0008c	50		 push	 eax
  0008d	ff 15 00 00 00
	00		 call	 DWORD PTR __imp_?ClearCursor@CAddInManager@@QAEXPAVCDC@@PBVCBitmap@@PAVCRect@@@Z

; 173  : 			dcClient.SelectObject( pOldFont);

  00093	56		 push	 esi
  00094	8d 4d e0	 lea	 ecx, DWORD PTR _dcClient$2[ebp]
  00097	e8 00 00 00 00	 call	 ?SelectObject@CDC@@UAEPAVCFont@@PAV2@@Z ; CDC::SelectObject

; 174  : 
; 175  : 			m_pAddInManager->OnCaptureChanged( pWnd, &m_bmpMainOSB);

  0009c	8b 75 08	 mov	 esi, DWORD PTR _pWnd$[ebp]
  0009f	8b 8b cc 04 00
	00		 mov	 ecx, DWORD PTR [ebx+1228]
  000a5	57		 push	 edi
  000a6	56		 push	 esi
  000a7	ff 15 00 00 00
	00		 call	 DWORD PTR __imp_?OnCaptureChanged@CAddInManager@@QAEXPAVCWnd@@PBVCBitmap@@@Z

; 176  : 		}

  000ad	8d 4d e0	 lea	 ecx, DWORD PTR _dcClient$2[ebp]
  000b0	c7 45 fc ff ff
	ff ff		 mov	 DWORD PTR __$EHRec$[ebp+8], -1
  000b7	e8 00 00 00 00	 call	 ??1CClientDC@@UAE@XZ	; CClientDC::~CClientDC
  000bc	8b 83 ec 04 00
	00		 mov	 eax, DWORD PTR [ebx+1260]
$LN5@OnCaptureC:

; 177  : 
; 178  : 		// (2004.11.02, ) No Capturing Mode .
; 179  : 		if( 0 < m_nMouseCaptureCount && this != pWnd)

  000c2	85 c0		 test	 eax, eax
  000c4	7e 0e		 jle	 SHORT $LN6@OnCaptureC
  000c6	3b de		 cmp	 ebx, esi
  000c8	74 0a		 je	 SHORT $LN6@OnCaptureC

; 180  : 		{
; 181  : 			m_nMouseCaptureCount = 0;

  000ca	c7 83 ec 04 00
	00 00 00 00 00	 mov	 DWORD PTR [ebx+1260], 0
$LN6@OnCaptureC:
; File C:\Program Files (x86)\Microsoft Visual Studio\2019\Community\VC\Tools\MSVC\14.29.30133\atlmfc\include\afxwin2.inl

; 537  : 	{ Default(); }

  000d4	8b cb		 mov	 ecx, ebx
  000d6	e8 00 00 00 00	 call	 ?Default@CWnd@@IAEJXZ	; CWnd::Default
; File D:\git\src\IBK\IBK_DRFN\ProjSrc\SrcChartEx\ChartOCX\KTBChart\KTBChartMouse.cpp

; 191  : }

  000db	8b 4d f4	 mov	 ecx, DWORD PTR __$EHRec$[ebp]
  000de	64 89 0d 00 00
	00 00		 mov	 DWORD PTR fs:0, ecx
  000e5	59		 pop	 ecx
  000e6	5f		 pop	 edi
  000e7	5e		 pop	 esi
  000e8	5b		 pop	 ebx
  000e9	8b e5		 mov	 esp, ebp
  000eb	5d		 pop	 ebp
  000ec	c2 04 00	 ret	 4
_TEXT	ENDS
;	COMDAT text$x
text$x	SEGMENT
__unwindfunclet$?OnCaptureChanged@CKTBChartCtrl@@IAEXPAVCWnd@@@Z$0:
  00000	8d 4d e0	 lea	 ecx, DWORD PTR _dcClient$2[ebp]
  00003	e9 00 00 00 00	 jmp	 ??1CClientDC@@UAE@XZ	; CClientDC::~CClientDC
  00008	cc		 int	 3
  00009	cc		 int	 3
  0000a	cc		 int	 3
  0000b	cc		 int	 3
  0000c	cc		 int	 3
__ehhandler$?OnCaptureChanged@CKTBChartCtrl@@IAEXPAVCWnd@@@Z:
  0000d	90		 npad	 1
  0000e	90		 npad	 1
  0000f	8b 54 24 08	 mov	 edx, DWORD PTR [esp+8]
  00013	8d 42 0c	 lea	 eax, DWORD PTR [edx+12]
  00016	8b 4a dc	 mov	 ecx, DWORD PTR [edx-36]
  00019	33 c8		 xor	 ecx, eax
  0001b	e8 00 00 00 00	 call	 @__security_check_cookie@4
  00020	b8 00 00 00 00	 mov	 eax, OFFSET __ehfuncinfo$?OnCaptureChanged@CKTBChartCtrl@@IAEXPAVCWnd@@@Z
  00025	e9 00 00 00 00	 jmp	 ___CxxFrameHandler3
text$x	ENDS
?OnCaptureChanged@CKTBChartCtrl@@IAEXPAVCWnd@@@Z ENDP	; CKTBChartCtrl::OnCaptureChanged
; Function compile flags: /Ogtp
; File D:\git\src\IBK\IBK_DRFN\ProjSrc\SrcChartEx\ChartOCX\KTBChart\KTBChartMouse.cpp
;	COMDAT ?OnSetCursor@CKTBChartCtrl@@IAEHPAVCWnd@@II@Z
_TEXT	SEGMENT
_pWnd$ = 8						; size = 4
_nHitTest$ = 12						; size = 4
_message$ = 16						; size = 4
?OnSetCursor@CKTBChartCtrl@@IAEHPAVCWnd@@II@Z PROC	; CKTBChartCtrl::OnSetCursor, COMDAT
; _this$ = ecx

; 33   : {

  00000	55		 push	 ebp
  00001	8b ec		 mov	 ebp, esp

; 34   : 	TRACE( "\r\nCursor state in CKTBChartCtrl::OnSetCursor() : [%d]", m_hCursor);
; 35   : 	if( m_hCursor)

  00003	8b 81 e8 04 00
	00		 mov	 eax, DWORD PTR [ecx+1256]
  00009	85 c0		 test	 eax, eax
  0000b	74 10		 je	 SHORT $LN2@OnSetCurso

; 36   : 	{
; 37   : 		SetCursor( m_hCursor);

  0000d	50		 push	 eax
  0000e	ff 15 00 00 00
	00		 call	 DWORD PTR __imp__SetCursor@4

; 38   : 		return TRUE;

  00014	b8 01 00 00 00	 mov	 eax, 1

; 42   : }

  00019	5d		 pop	 ebp
  0001a	c2 0c 00	 ret	 12			; 0000000cH
$LN2@OnSetCurso:
  0001d	5d		 pop	 ebp

; 39   : 	}
; 40   : 
; 41   : 	return COleControl::OnSetCursor(pWnd, nHitTest, message);

  0001e	e9 00 00 00 00	 jmp	 ?OnSetCursor@COleControl@@IAEHPAVCWnd@@II@Z ; COleControl::OnSetCursor
?OnSetCursor@CKTBChartCtrl@@IAEHPAVCWnd@@II@Z ENDP	; CKTBChartCtrl::OnSetCursor
_TEXT	ENDS
; Function compile flags: /Ogtp
; File D:\git\src\IBK\IBK_DRFN\ProjSrc\SrcChartEx\ChartOCX\Include_Chart\Dll_Load\IMetaTable.h
; File C:\Program Files (x86)\Microsoft Visual Studio\2019\Community\VC\Tools\MSVC\14.29.30133\atlmfc\include\afxwin1.inl
; File D:\git\src\IBK\IBK_DRFN\ProjSrc\SrcChartEx\ChartOCX\Include_Chart\Dll_Load\IMetaTable.h
;	COMDAT ??1CMultiLanguageResourceSetter@@QAE@XZ
_TEXT	SEGMENT
__$EHRec$ = -12						; size = 12
??1CMultiLanguageResourceSetter@@QAE@XZ PROC		; CMultiLanguageResourceSetter::~CMultiLanguageResourceSetter, COMDAT
; _this$ = ecx

; 1036 : 	{

  00000	55		 push	 ebp
  00001	8b ec		 mov	 ebp, esp
  00003	6a ff		 push	 -1
  00005	68 00 00 00 00	 push	 __ehhandler$??1CMultiLanguageResourceSetter@@QAE@XZ
  0000a	64 a1 00 00 00
	00		 mov	 eax, DWORD PTR fs:0
  00010	50		 push	 eax
  00011	56		 push	 esi
  00012	a1 00 00 00 00	 mov	 eax, DWORD PTR ___security_cookie
  00017	33 c5		 xor	 eax, ebp
  00019	50		 push	 eax
  0001a	8d 45 f4	 lea	 eax, DWORD PTR __$EHRec$[ebp]
  0001d	64 a3 00 00 00
	00		 mov	 DWORD PTR fs:0, eax

; 1037 : 		AfxSetResourceHandle( m_hInstance);

  00023	8b 31		 mov	 esi, DWORD PTR [ecx]
; File C:\Program Files (x86)\Microsoft Visual Studio\2019\Community\VC\Tools\MSVC\14.29.30133\atlmfc\include\afxwin1.inl

; 27   : 	{ ASSERT(hInstResource != NULL); afxCurrentResourceHandle = hInstResource; }

  00025	e8 00 00 00 00	 call	 ?AfxGetModuleState@@YGPAVAFX_MODULE_STATE@@XZ ; AfxGetModuleState
  0002a	89 70 0c	 mov	 DWORD PTR [eax+12], esi
; File D:\git\src\IBK\IBK_DRFN\ProjSrc\SrcChartEx\ChartOCX\Include_Chart\Dll_Load\IMetaTable.h

; 1038 : 	}

  0002d	8b 4d f4	 mov	 ecx, DWORD PTR __$EHRec$[ebp]
  00030	64 89 0d 00 00
	00 00		 mov	 DWORD PTR fs:0, ecx
  00037	59		 pop	 ecx
  00038	5e		 pop	 esi
  00039	8b e5		 mov	 esp, ebp
  0003b	5d		 pop	 ebp
  0003c	c3		 ret	 0
  0003d	cc		 int	 3
  0003e	cc		 int	 3
  0003f	cc		 int	 3
  00040	cc		 int	 3
  00041	cc		 int	 3
_TEXT	ENDS
;	COMDAT text$x
text$x	SEGMENT
__ehhandler$??1CMultiLanguageResourceSetter@@QAE@XZ:
  00000	90		 npad	 1
  00001	90		 npad	 1
  00002	8b 54 24 08	 mov	 edx, DWORD PTR [esp+8]
  00006	8d 42 0c	 lea	 eax, DWORD PTR [edx+12]
  00009	8b 4a f8	 mov	 ecx, DWORD PTR [edx-8]
  0000c	33 c8		 xor	 ecx, eax
  0000e	e8 00 00 00 00	 call	 @__security_check_cookie@4
  00013	b8 00 00 00 00	 mov	 eax, OFFSET __ehfuncinfo$??1CMultiLanguageResourceSetter@@QAE@XZ
  00018	e9 00 00 00 00	 jmp	 ___CxxFrameHandler3
text$x	ENDS
??1CMultiLanguageResourceSetter@@QAE@XZ ENDP		; CMultiLanguageResourceSetter::~CMultiLanguageResourceSetter
; Function compile flags: /Ogtp
; File C:\Program Files (x86)\Microsoft Visual Studio\2019\Community\VC\Tools\MSVC\14.29.30133\atlmfc\include\afxwin1.inl
; File C:\Program Files (x86)\Microsoft Visual Studio\2019\Community\VC\Tools\MSVC\14.29.30133\atlmfc\include\afx.inl
;	COMDAT ??_GCMenu@@UAEPAXI@Z
_TEXT	SEGMENT
__$EHRec$ = -12						; size = 12
___flags$ = 8						; size = 4
??_GCMenu@@UAEPAXI@Z PROC				; CMenu::`scalar deleting destructor', COMDAT
; _this$ = ecx
  00000	55		 push	 ebp
  00001	8b ec		 mov	 ebp, esp
  00003	6a ff		 push	 -1
  00005	68 00 00 00 00	 push	 __ehhandler$??_GCMenu@@UAEPAXI@Z
  0000a	64 a1 00 00 00
	00		 mov	 eax, DWORD PTR fs:0
  00010	50		 push	 eax
  00011	56		 push	 esi
  00012	a1 00 00 00 00	 mov	 eax, DWORD PTR ___security_cookie
  00017	33 c5		 xor	 eax, ebp
  00019	50		 push	 eax
  0001a	8d 45 f4	 lea	 eax, DWORD PTR __$EHRec$[ebp]
  0001d	64 a3 00 00 00
	00		 mov	 DWORD PTR fs:0, eax
  00023	8b f1		 mov	 esi, ecx
; File C:\Program Files (x86)\Microsoft Visual Studio\2019\Community\VC\Tools\MSVC\14.29.30133\atlmfc\include\afxwin1.inl

; 905  : 	{ DestroyMenu(); }

  00025	c7 45 fc 00 00
	00 00		 mov	 DWORD PTR __$EHRec$[ebp+8], 0
  0002c	c7 06 00 00 00
	00		 mov	 DWORD PTR [esi], OFFSET ??_7CMenu@@6B@
  00032	e8 00 00 00 00	 call	 ?DestroyMenu@CMenu@@QAEHXZ ; CMenu::DestroyMenu
  00037	8b 45 08	 mov	 eax, DWORD PTR ___flags$[ebp]
  0003a	a8 01		 test	 al, 1
  0003c	74 2c		 je	 SHORT $LN12@scalar
  0003e	a8 04		 test	 al, 4
  00040	75 1d		 jne	 SHORT $LN3@scalar
; File C:\Program Files (x86)\Microsoft Visual Studio\2019\Community\VC\Tools\MSVC\14.29.30133\atlmfc\include\afx.inl

; 112  : 	{ ::operator delete(p); }

  00042	56		 push	 esi
  00043	e8 00 00 00 00	 call	 ??3@YAXPAX@Z		; operator delete
  00048	83 c4 04	 add	 esp, 4
  0004b	8b c6		 mov	 eax, esi
  0004d	8b 4d f4	 mov	 ecx, DWORD PTR __$EHRec$[ebp]
  00050	64 89 0d 00 00
	00 00		 mov	 DWORD PTR fs:0, ecx
  00057	59		 pop	 ecx
  00058	5e		 pop	 esi
  00059	8b e5		 mov	 esp, ebp
  0005b	5d		 pop	 ebp
  0005c	c2 04 00	 ret	 4
$LN3@scalar:
  0005f	6a 08		 push	 8
  00061	56		 push	 esi
  00062	e8 00 00 00 00	 call	 ?__global_delete@@YAXPAXI@Z ; __global_delete
  00067	83 c4 08	 add	 esp, 8
$LN12@scalar:
  0006a	8b c6		 mov	 eax, esi
  0006c	8b 4d f4	 mov	 ecx, DWORD PTR __$EHRec$[ebp]
  0006f	64 89 0d 00 00
	00 00		 mov	 DWORD PTR fs:0, ecx
  00076	59		 pop	 ecx
  00077	5e		 pop	 esi
  00078	8b e5		 mov	 esp, ebp
  0007a	5d		 pop	 ebp
  0007b	c2 04 00	 ret	 4
  0007e	cc		 int	 3
  0007f	cc		 int	 3
  00080	cc		 int	 3
  00081	cc		 int	 3
  00082	cc		 int	 3
_TEXT	ENDS
;	COMDAT text$x
text$x	SEGMENT
__ehhandler$??_GCMenu@@UAEPAXI@Z:
  00000	90		 npad	 1
  00001	90		 npad	 1
  00002	8b 54 24 08	 mov	 edx, DWORD PTR [esp+8]
  00006	8d 42 0c	 lea	 eax, DWORD PTR [edx+12]
  00009	8b 4a f8	 mov	 ecx, DWORD PTR [edx-8]
  0000c	33 c8		 xor	 ecx, eax
  0000e	e8 00 00 00 00	 call	 @__security_check_cookie@4
  00013	b8 00 00 00 00	 mov	 eax, OFFSET __ehfuncinfo$??_GCMenu@@UAEPAXI@Z
  00018	e9 00 00 00 00	 jmp	 ___CxxFrameHandler3
text$x	ENDS
??_GCMenu@@UAEPAXI@Z ENDP				; CMenu::`scalar deleting destructor'
; Function compile flags: /Ogtp
; File C:\Program Files (x86)\Microsoft Visual Studio\2019\Community\VC\Tools\MSVC\14.29.30133\atlmfc\include\afxwin1.inl
;	COMDAT ??1CMenu@@UAE@XZ
_TEXT	SEGMENT
__$EHRec$ = -12						; size = 12
??1CMenu@@UAE@XZ PROC					; CMenu::~CMenu, COMDAT
; _this$ = ecx

; 905  : 	{ DestroyMenu(); }

  00000	55		 push	 ebp
  00001	8b ec		 mov	 ebp, esp
  00003	6a ff		 push	 -1
  00005	68 00 00 00 00	 push	 __ehhandler$??1CMenu@@UAE@XZ
  0000a	64 a1 00 00 00
	00		 mov	 eax, DWORD PTR fs:0
  00010	50		 push	 eax
  00011	a1 00 00 00 00	 mov	 eax, DWORD PTR ___security_cookie
  00016	33 c5		 xor	 eax, ebp
  00018	50		 push	 eax
  00019	8d 45 f4	 lea	 eax, DWORD PTR __$EHRec$[ebp]
  0001c	64 a3 00 00 00
	00		 mov	 DWORD PTR fs:0, eax
  00022	c7 01 00 00 00
	00		 mov	 DWORD PTR [ecx], OFFSET ??_7CMenu@@6B@
  00028	e8 00 00 00 00	 call	 ?DestroyMenu@CMenu@@QAEHXZ ; CMenu::DestroyMenu
  0002d	8b 4d f4	 mov	 ecx, DWORD PTR __$EHRec$[ebp]
  00030	64 89 0d 00 00
	00 00		 mov	 DWORD PTR fs:0, ecx
  00037	59		 pop	 ecx
  00038	8b e5		 mov	 esp, ebp
  0003a	5d		 pop	 ebp
  0003b	c3		 ret	 0
  0003c	cc		 int	 3
  0003d	cc		 int	 3
  0003e	cc		 int	 3
  0003f	cc		 int	 3
  00040	cc		 int	 3
_TEXT	ENDS
;	COMDAT text$x
text$x	SEGMENT
__ehhandler$??1CMenu@@UAE@XZ:
  00000	90		 npad	 1
  00001	90		 npad	 1
  00002	8b 54 24 08	 mov	 edx, DWORD PTR [esp+8]
  00006	8d 42 0c	 lea	 eax, DWORD PTR [edx+12]
  00009	8b 4a fc	 mov	 ecx, DWORD PTR [edx-4]
  0000c	33 c8		 xor	 ecx, eax
  0000e	e8 00 00 00 00	 call	 @__security_check_cookie@4
  00013	b8 00 00 00 00	 mov	 eax, OFFSET __ehfuncinfo$??1CMenu@@UAE@XZ
  00018	e9 00 00 00 00	 jmp	 ___CxxFrameHandler3
text$x	ENDS
??1CMenu@@UAE@XZ ENDP					; CMenu::~CMenu
; Function compile flags: /Ogtp
; File C:\Program Files (x86)\Microsoft Visual Studio\2019\Community\VC\Tools\MSVC\14.29.30133\atlmfc\include\afxwin1.inl
;	COMDAT ?GetSubMenu@CMenu@@QBEPAV1@H@Z
_TEXT	SEGMENT
_nPos$ = 8						; size = 4
?GetSubMenu@CMenu@@QBEPAV1@H@Z PROC			; CMenu::GetSubMenu, COMDAT
; _this$ = ecx

; 951  : 	{ ASSERT(::IsMenu(m_hMenu)); return CMenu::FromHandle(::GetSubMenu(m_hMenu, nPos)); }

  00000	55		 push	 ebp
  00001	8b ec		 mov	 ebp, esp
  00003	ff 75 08	 push	 DWORD PTR _nPos$[ebp]
  00006	ff 71 04	 push	 DWORD PTR [ecx+4]
  00009	ff 15 00 00 00
	00		 call	 DWORD PTR __imp__GetSubMenu@8
  0000f	89 45 08	 mov	 DWORD PTR _nPos$[ebp], eax
  00012	5d		 pop	 ebp
  00013	e9 00 00 00 00	 jmp	 ?FromHandle@CMenu@@SGPAV1@PAUHMENU__@@@Z ; CMenu::FromHandle
?GetSubMenu@CMenu@@QBEPAV1@H@Z ENDP			; CMenu::GetSubMenu
_TEXT	ENDS
; Function compile flags: /Ogtp
; File C:\Program Files (x86)\Microsoft Visual Studio\2019\Community\VC\Tools\MSVC\14.29.30133\atlmfc\include\afxwin1.inl
; File C:\Program Files (x86)\Microsoft Visual Studio\2019\Community\VC\Tools\MSVC\14.29.30133\atlmfc\include\afx.inl
;	COMDAT ??_GCBitmap@@UAEPAXI@Z
_TEXT	SEGMENT
___flags$ = 8						; size = 4
??_GCBitmap@@UAEPAXI@Z PROC				; CBitmap::`scalar deleting destructor', COMDAT
; _this$ = ecx
  00000	55		 push	 ebp
  00001	8b ec		 mov	 ebp, esp
; File C:\Program Files (x86)\Microsoft Visual Studio\2019\Community\VC\Tools\MSVC\14.29.30133\atlmfc\include\afxwin1.inl

; 179  : 	{ }

  00003	56		 push	 esi
  00004	8b f1		 mov	 esi, ecx
  00006	c7 06 00 00 00
	00		 mov	 DWORD PTR [esi], OFFSET ??_7CBitmap@@6B@
  0000c	e8 00 00 00 00	 call	 ??1CGdiObject@@UAE@XZ	; CGdiObject::~CGdiObject
  00011	8b 45 08	 mov	 eax, DWORD PTR ___flags$[ebp]
  00014	a8 01		 test	 al, 1
  00016	74 1f		 je	 SHORT $LN12@scalar
  00018	a8 04		 test	 al, 4
  0001a	75 10		 jne	 SHORT $LN3@scalar
; File C:\Program Files (x86)\Microsoft Visual Studio\2019\Community\VC\Tools\MSVC\14.29.30133\atlmfc\include\afx.inl

; 112  : 	{ ::operator delete(p); }

  0001c	56		 push	 esi
  0001d	e8 00 00 00 00	 call	 ??3@YAXPAX@Z		; operator delete
  00022	83 c4 04	 add	 esp, 4
  00025	8b c6		 mov	 eax, esi
  00027	5e		 pop	 esi
  00028	5d		 pop	 ebp
  00029	c2 04 00	 ret	 4
$LN3@scalar:
  0002c	6a 08		 push	 8
  0002e	56		 push	 esi
  0002f	e8 00 00 00 00	 call	 ?__global_delete@@YAXPAXI@Z ; __global_delete
  00034	83 c4 08	 add	 esp, 8
$LN12@scalar:
  00037	8b c6		 mov	 eax, esi
  00039	5e		 pop	 esi
  0003a	5d		 pop	 ebp
  0003b	c2 04 00	 ret	 4
??_GCBitmap@@UAEPAXI@Z ENDP				; CBitmap::`scalar deleting destructor'
_TEXT	ENDS
; Function compile flags: /Ogtp
; File C:\Program Files (x86)\Microsoft Visual Studio\2019\Community\VC\Tools\MSVC\14.29.30133\atlmfc\include\afxwin1.inl
;	COMDAT ??1CBitmap@@UAE@XZ
_TEXT	SEGMENT
??1CBitmap@@UAE@XZ PROC					; CBitmap::~CBitmap, COMDAT
; _this$ = ecx

; 179  : 	{ }

  00000	c7 01 00 00 00
	00		 mov	 DWORD PTR [ecx], OFFSET ??_7CBitmap@@6B@
  00006	e9 00 00 00 00	 jmp	 ??1CGdiObject@@UAE@XZ	; CGdiObject::~CGdiObject
??1CBitmap@@UAE@XZ ENDP					; CBitmap::~CBitmap
_TEXT	ENDS
; Function compile flags: /Ogtp
; File C:\Program Files (x86)\Microsoft Visual Studio\2019\Community\VC\Tools\MSVC\14.29.30133\atlmfc\include\afx.inl
;	COMDAT ??_GCGdiObject@@UAEPAXI@Z
_TEXT	SEGMENT
___flags$ = 8						; size = 4
??_GCGdiObject@@UAEPAXI@Z PROC				; CGdiObject::`scalar deleting destructor', COMDAT
; _this$ = ecx
  00000	55		 push	 ebp
  00001	8b ec		 mov	 ebp, esp
  00003	56		 push	 esi
  00004	8b f1		 mov	 esi, ecx
  00006	e8 00 00 00 00	 call	 ??1CGdiObject@@UAE@XZ	; CGdiObject::~CGdiObject
  0000b	8b 45 08	 mov	 eax, DWORD PTR ___flags$[ebp]
  0000e	a8 01		 test	 al, 1
  00010	74 1f		 je	 SHORT $LN9@scalar
  00012	a8 04		 test	 al, 4
  00014	75 10		 jne	 SHORT $LN3@scalar

; 112  : 	{ ::operator delete(p); }

  00016	56		 push	 esi
  00017	e8 00 00 00 00	 call	 ??3@YAXPAX@Z		; operator delete
  0001c	83 c4 04	 add	 esp, 4
  0001f	8b c6		 mov	 eax, esi
  00021	5e		 pop	 esi
  00022	5d		 pop	 ebp
  00023	c2 04 00	 ret	 4
$LN3@scalar:
  00026	6a 08		 push	 8
  00028	56		 push	 esi
  00029	e8 00 00 00 00	 call	 ?__global_delete@@YAXPAXI@Z ; __global_delete
  0002e	83 c4 08	 add	 esp, 8
$LN9@scalar:
  00031	8b c6		 mov	 eax, esi
  00033	5e		 pop	 esi
  00034	5d		 pop	 ebp
  00035	c2 04 00	 ret	 4
??_GCGdiObject@@UAEPAXI@Z ENDP				; CGdiObject::`scalar deleting destructor'
_TEXT	ENDS
; Function compile flags: /Ogtp
; File C:\Program Files (x86)\Microsoft Visual Studio\2019\Community\VC\Tools\MSVC\14.29.30133\atlmfc\include\afxwin1.inl
;	COMDAT ??1CGdiObject@@UAE@XZ
_TEXT	SEGMENT
_pException$2 = -540					; size = 4
_strMsg$3 = -536					; size = 4
_szErrorMessage$4 = -532				; size = 512
__$ArrayPad$ = -20					; size = 4
__$EHRec$ = -16						; size = 16
??1CGdiObject@@UAE@XZ PROC				; CGdiObject::~CGdiObject, COMDAT
; _this$ = ecx

; 74   : {

  00000	55		 push	 ebp
  00001	8b ec		 mov	 ebp, esp
  00003	6a ff		 push	 -1
  00005	68 00 00 00 00	 push	 __ehhandler$??1CGdiObject@@UAE@XZ
  0000a	64 a1 00 00 00
	00		 mov	 eax, DWORD PTR fs:0
  00010	50		 push	 eax
  00011	81 ec 10 02 00
	00		 sub	 esp, 528		; 00000210H
  00017	a1 00 00 00 00	 mov	 eax, DWORD PTR ___security_cookie
  0001c	33 c5		 xor	 eax, ebp
  0001e	89 45 ec	 mov	 DWORD PTR __$ArrayPad$[ebp], eax
  00021	53		 push	 ebx
  00022	56		 push	 esi
  00023	57		 push	 edi
  00024	50		 push	 eax
  00025	8d 45 f4	 lea	 eax, DWORD PTR __$EHRec$[ebp+4]
  00028	64 a3 00 00 00
	00		 mov	 DWORD PTR fs:0, eax
  0002e	89 65 f0	 mov	 DWORD PTR __$EHRec$[ebp], esp
  00031	c7 01 00 00 00
	00		 mov	 DWORD PTR [ecx], OFFSET ??_7CGdiObject@@6B@

; 75   : 	AFX_BEGIN_DESTRUCTOR

  00037	c7 45 fc 00 00
	00 00		 mov	 DWORD PTR __$EHRec$[ebp+12], 0

; 76   : 	DeleteObject();

  0003e	e8 00 00 00 00	 call	 ?DeleteObject@CGdiObject@@QAEHXZ ; CGdiObject::DeleteObject
$LN18@CGdiObject:

; 78   : }

  00043	8b 4d f4	 mov	 ecx, DWORD PTR __$EHRec$[ebp+4]
  00046	64 89 0d 00 00
	00 00		 mov	 DWORD PTR fs:0, ecx
  0004d	59		 pop	 ecx
  0004e	5f		 pop	 edi
  0004f	5e		 pop	 esi
  00050	5b		 pop	 ebx
  00051	8b 4d ec	 mov	 ecx, DWORD PTR __$ArrayPad$[ebp]
  00054	33 cd		 xor	 ecx, ebp
  00056	e8 00 00 00 00	 call	 @__security_check_cookie@4
  0005b	8b e5		 mov	 esp, ebp
  0005d	5d		 pop	 ebp
  0005e	c3		 ret	 0
__catch$??1CGdiObject@@UAE@XZ$0:

; 77   : 	AFX_END_DESTRUCTOR

  0005f	8d 8d e8 fd ff
	ff		 lea	 ecx, DWORD PTR _strMsg$3[ebp]
  00065	ff 15 00 00 00
	00		 call	 DWORD PTR __imp_??0?$CStringT@DV?$StrTraitMFC_DLL@DV?$ChTraitsCRT@D@ATL@@@@@ATL@@QAE@XZ
  0006b	8b b5 e4 fd ff
	ff		 mov	 esi, DWORD PTR _pException$2[ebp]
  00071	8d 8d ec fd ff
	ff		 lea	 ecx, DWORD PTR _szErrorMessage$4[ebp]
  00077	6a 00		 push	 0
  00079	68 00 02 00 00	 push	 512			; 00000200H
  0007e	51		 push	 ecx
  0007f	8b 06		 mov	 eax, DWORD PTR [esi]
  00081	8b ce		 mov	 ecx, esi
  00083	c6 45 fc 02	 mov	 BYTE PTR __$EHRec$[ebp+12], 2
  00087	ff 50 14	 call	 DWORD PTR [eax+20]
  0008a	85 c0		 test	 eax, eax
  0008c	74 2a		 je	 SHORT $LN9@CGdiObject
  0008e	8d 85 ec fd ff
	ff		 lea	 eax, DWORD PTR _szErrorMessage$4[ebp]
  00094	50		 push	 eax
  00095	6a 4d		 push	 77			; 0000004dH
  00097	68 00 00 00 00	 push	 OFFSET ??_C@_0HD@JJCHHHNK@C?3?2Program?5Files?5?$CIx86?$CJ?2Microsof@
  0009c	68 00 00 00 00	 push	 OFFSET ??_C@_0BP@OIEOKIDM@Exception?5thrown?5in?5destructor@
  000a1	8d 85 e8 fd ff
	ff		 lea	 eax, DWORD PTR _strMsg$3[ebp]
  000a7	68 00 00 00 00	 push	 OFFSET ??_C@_0BB@HBOOMJBF@?$CFTs?5?$CI?$CFTs?3?$CFd?$CJ?6?$CFTs@
  000ac	50		 push	 eax
  000ad	ff 15 00 00 00
	00		 call	 DWORD PTR __imp_?Format@?$CStringT@DV?$StrTraitMFC_DLL@DV?$ChTraitsCRT@D@ATL@@@@@ATL@@QAAXPBDZZ
  000b3	83 c4 18	 add	 esp, 24			; 00000018H
  000b6	eb 21		 jmp	 SHORT $LN10@CGdiObject
$LN9@CGdiObject:
  000b8	6a 4d		 push	 77			; 0000004dH
  000ba	68 00 00 00 00	 push	 OFFSET ??_C@_0HD@JJCHHHNK@C?3?2Program?5Files?5?$CIx86?$CJ?2Microsof@
  000bf	68 00 00 00 00	 push	 OFFSET ??_C@_0BP@OIEOKIDM@Exception?5thrown?5in?5destructor@
  000c4	8d 85 e8 fd ff
	ff		 lea	 eax, DWORD PTR _strMsg$3[ebp]
  000ca	68 00 00 00 00	 push	 OFFSET ??_C@_0N@OMEMOKLE@?$CFTs?5?$CI?$CFTs?3?$CFd?$CJ@
  000cf	50		 push	 eax
  000d0	ff 15 00 00 00
	00		 call	 DWORD PTR __imp_?Format@?$CStringT@DV?$StrTraitMFC_DLL@DV?$ChTraitsCRT@D@ATL@@@@@ATL@@QAAXPBDZZ
  000d6	83 c4 14	 add	 esp, 20			; 00000014H
$LN10@CGdiObject:
  000d9	6a 00		 push	 0
  000db	6a 00		 push	 0
  000dd	ff b5 e8 fd ff
	ff		 push	 DWORD PTR _strMsg$3[ebp]
  000e3	e8 00 00 00 00	 call	 ?AfxMessageBox@@YGHPBDII@Z ; AfxMessageBox
  000e8	8d 8d e8 fd ff
	ff		 lea	 ecx, DWORD PTR _strMsg$3[ebp]
  000ee	ff 15 00 00 00
	00		 call	 DWORD PTR __imp_??1?$CStringT@DV?$StrTraitMFC_DLL@DV?$ChTraitsCRT@D@ATL@@@@@ATL@@QAE@XZ
  000f4	8b 06		 mov	 eax, DWORD PTR [esi]
  000f6	8b ce		 mov	 ecx, esi
  000f8	6a 01		 push	 1
  000fa	ff 50 04	 call	 DWORD PTR [eax+4]
  000fd	b8 00 00 00 00	 mov	 eax, $LN18@CGdiObject
  00102	c3		 ret	 0
_TEXT	ENDS
;	COMDAT text$x
text$x	SEGMENT
__unwindfunclet$??1CGdiObject@@UAE@XZ$2:
  00000	8d 8d e8 fd ff
	ff		 lea	 ecx, DWORD PTR _strMsg$3[ebp]
  00006	ff 25 00 00 00
	00		 jmp	 DWORD PTR __imp_??1?$CStringT@DV?$StrTraitMFC_DLL@DV?$ChTraitsCRT@D@ATL@@@@@ATL@@QAE@XZ
  0000c	cc		 int	 3
  0000d	cc		 int	 3
  0000e	cc		 int	 3
  0000f	cc		 int	 3
  00010	cc		 int	 3
__ehhandler$??1CGdiObject@@UAE@XZ:
  00011	90		 npad	 1
  00012	90		 npad	 1
  00013	8b 54 24 08	 mov	 edx, DWORD PTR [esp+8]
  00017	8d 42 0c	 lea	 eax, DWORD PTR [edx+12]
  0001a	8b 8a e0 fd ff
	ff		 mov	 ecx, DWORD PTR [edx-544]
  00020	33 c8		 xor	 ecx, eax
  00022	e8 00 00 00 00	 call	 @__security_check_cookie@4
  00027	8b 4a f8	 mov	 ecx, DWORD PTR [edx-8]
  0002a	33 c8		 xor	 ecx, eax
  0002c	e8 00 00 00 00	 call	 @__security_check_cookie@4
  00031	b8 00 00 00 00	 mov	 eax, OFFSET __ehfuncinfo$??1CGdiObject@@UAE@XZ
  00036	e9 00 00 00 00	 jmp	 ___CxxFrameHandler3
text$x	ENDS
??1CGdiObject@@UAE@XZ ENDP				; CGdiObject::~CGdiObject
; Function compile flags: /Ogtp
; File C:\Program Files (x86)\Microsoft Visual Studio\2019\Community\VC\Tools\MSVC\14.29.30133\atlmfc\include\afx.inl
;	COMDAT ?Dump@CObject@@UBEXAAVCDumpContext@@@Z
_TEXT	SEGMENT
___formal$ = 8						; size = 4
?Dump@CObject@@UBEXAAVCDumpContext@@@Z PROC		; CObject::Dump, COMDAT
; _this$ = ecx

; 122  : 	{ /* no dumping in release builds */ }

  00000	c2 04 00	 ret	 4
?Dump@CObject@@UBEXAAVCDumpContext@@@Z ENDP		; CObject::Dump
_TEXT	ENDS
; Function compile flags: /Ogtp
; File C:\Program Files (x86)\Microsoft Visual Studio\2019\Community\VC\Tools\MSVC\14.29.30133\atlmfc\include\afx.inl
;	COMDAT ?AssertValid@CObject@@UBEXXZ
_TEXT	SEGMENT
?AssertValid@CObject@@UBEXXZ PROC			; CObject::AssertValid, COMDAT
; _this$ = ecx

; 120  : 	{ /* no asserts in release builds */ }

  00000	c2 00 00	 ret	 0
?AssertValid@CObject@@UBEXXZ ENDP			; CObject::AssertValid
_TEXT	ENDS
; Function compile flags: /Ogtp
; File C:\Program Files (x86)\Microsoft Visual Studio\2019\Community\VC\Tools\MSVC\14.29.30133\atlmfc\include\afx.inl
;	COMDAT ?Serialize@CObject@@UAEXAAVCArchive@@@Z
_TEXT	SEGMENT
___formal$ = 8						; size = 4
?Serialize@CObject@@UAEXAAVCArchive@@@Z PROC		; CObject::Serialize, COMDAT
; _this$ = ecx

; 106  : 	{ /* CObject does not serialize anything by default */ }

  00000	c2 04 00	 ret	 4
?Serialize@CObject@@UAEXAAVCArchive@@@Z ENDP		; CObject::Serialize
_TEXT	ENDS
; Function compile flags: /Ogtp
; File C:\Program Files (x86)\Microsoft Visual Studio\2019\Community\VC\Tools\MSVC\14.29.30133\atlmfc\include\afx.inl
;	COMDAT ??1CObject@@UAE@XZ
_TEXT	SEGMENT
??1CObject@@UAE@XZ PROC					; CObject::~CObject, COMDAT
; _this$ = ecx

; 104  : 	{ }

  00000	c2 00 00	 ret	 0
??1CObject@@UAE@XZ ENDP					; CObject::~CObject
_TEXT	ENDS
; Function compile flags: /Ogtp
; File D:\git\src\IBK\IBK_DRFN\ProjSrc\SrcChartEx\ChartOCX\KTBChart\KTBChartMouse.cpp
;	COMDAT ?__empty_global_delete@@YAXPAXI@Z
_TEXT	SEGMENT
___formal$ = 8						; size = 4
___formal$ = 12						; size = 4
?__empty_global_delete@@YAXPAXI@Z PROC			; __empty_global_delete, COMDAT

  00000	c2 00 00	 ret	 0
?__empty_global_delete@@YAXPAXI@Z ENDP			; __empty_global_delete
_TEXT	ENDS
; Function compile flags: /Ogtp
; File D:\git\src\IBK\IBK_DRFN\ProjSrc\SrcChartEx\ChartOCX\KTBChart\KTBChartMouse.cpp
;	COMDAT ?__empty_global_delete@@YAXPAX@Z
_TEXT	SEGMENT
___formal$ = 8						; size = 4
?__empty_global_delete@@YAXPAX@Z PROC			; __empty_global_delete, COMDAT

  00000	c2 00 00	 ret	 0
?__empty_global_delete@@YAXPAX@Z ENDP			; __empty_global_delete
_TEXT	ENDS
END
