; Listing generated by Microsoft (R) Optimizing Compiler Version 19.29.30145.0 

	TITLE	D:\git\src\IBK\IBK_DRFN\#DRfn-CS\_Obj\KTBChart\KTBChartReal.obj
	.686P
	.XMM
	include listing.inc
	.model	flat

INCLUDELIB MSVCRT
INCLUDELIB OLDNAMES

PUBLIC	??_C@_0BC@MMPGLPDH@RMS_ANALYSIS_FUNC@		; `string'
;	COMDAT ??_C@_0BC@MMPGLPDH@RMS_ANALYSIS_FUNC@
CONST	SEGMENT
??_C@_0BC@MMPGLPDH@RMS_ANALYSIS_FUNC@ DB 'RMS_ANALYSIS_FUNC', 00H ; `string'
CONST	ENDS
CONST	SEGMENT
?_Fake_alloc@std@@3U_Fake_allocator@1@B	ORG $+1		; std::_Fake_alloc
CONST	ENDS
PUBLIC	?__empty_global_delete@@YAXPAX@Z		; __empty_global_delete
PUBLIC	?__empty_global_delete@@YAXPAXI@Z		; __empty_global_delete
PUBLIC	?OnbNormalizedMinuteTimeRule@CKTBChartCtrl@@IAEXXZ ; CKTBChartCtrl::OnbNormalizedMinuteTimeRule
PUBLIC	?OnbUseRealDataChanged@CKTBChartCtrl@@IAEXXZ	; CKTBChartCtrl::OnbUseRealDataChanged
PUBLIC	?OnstrRealListChanged@CKTBChartCtrl@@IAEXXZ	; CKTBChartCtrl::OnstrRealListChanged
PUBLIC	?SetDrdsAdvise@CKTBChartCtrl@@IAEHH@Z		; CKTBChartCtrl::SetDrdsAdvise
PUBLIC	?SetRealData@CKTBChartCtrl@@IAEXPBDNF@Z		; CKTBChartCtrl::SetRealData
PUBLIC	?AddRealItem@CKTBChartCtrl@@IAEHPBD@Z		; CKTBChartCtrl::AddRealItem
PUBLIC	?RemoveRealItem@CKTBChartCtrl@@IAEXPBD@Z	; CKTBChartCtrl::RemoveRealItem
PUBLIC	?ResetRealListString@CKTBChartCtrl@@IAEHPBDH@Z	; CKTBChartCtrl::ResetRealListString
PUBLIC	?GetRealSettingInfo@CKTBChartCtrl@@IAEPA_WXZ	; CKTBChartCtrl::GetRealSettingInfo
PUBLIC	?AddRealItemWithSeparator@CKTBChartCtrl@@IAEHPBD0@Z ; CKTBChartCtrl::AddRealItemWithSeparator
PUBLIC	?RemoveRealItemWithSeparator@CKTBChartCtrl@@IAEXPBD0@Z ; CKTBChartCtrl::RemoveRealItemWithSeparator
PUBLIC	?SetRealDataCode@CKTBChartCtrl@@IAEXPBD0NF@Z	; CKTBChartCtrl::SetRealDataCode
PUBLIC	?SetDrdsAdviseRQ@CKTBChartCtrl@@UAEXPBDH@Z	; CKTBChartCtrl::SetDrdsAdviseRQ
PUBLIC	?OnDrdsData@CKTBChartCtrl@@IAEJIJ@Z		; CKTBChartCtrl::OnDrdsData
PUBLIC	?OnDrdsPacketEnd@CKTBChartCtrl@@IAEJIJ@Z	; CKTBChartCtrl::OnDrdsPacketEnd
PUBLIC	?SetFirstNMTRClock@CKTBChartCtrl@@QAEXXZ	; CKTBChartCtrl::SetFirstNMTRClock
PUBLIC	??_C@_00CNPNBAHC@@				; `string'
PUBLIC	??_C@_0GD@FLBGJKHJ@I?5did?5not?5prepare?5this?5operatio@ ; `string'
PUBLIC	??_C@_0EE@MMAPKDIE@Error?5in?5real?5list?5string?5setti@ ; `string'
PUBLIC	??_C@_0CL@CPAIPCHM@CKTBChartCtrl?3?3OnbNormalizedMin@ ; `string'
PUBLIC	??_C@_0BD@PNOKNCJO@ChartMetaTable?4dat@		; `string'
PUBLIC	??_C@_0L@HIOFCMKH@MChartMode@			; `string'
PUBLIC	??_C@_0O@GDACOMFO@Chart?5Version@		; `string'
PUBLIC	??_C@_02GMLAAMD@FX@				; `string'
PUBLIC	??_C@_07KKHCKEHB@WORLDON@			; `string'
PUBLIC	??_C@_03HKDINIMK@HTS@				; `string'
EXTRN	__imp__GetPrivateProfileStringA@24:PROC
EXTRN	__imp__RegisterWindowMessageA@4:PROC
EXTRN	__imp_?Concatenate@?$CSimpleStringT@D$00@ATL@@KAXAAV12@PBDH1H@Z:PROC
EXTRN	__imp_??0?$CStringT@DV?$StrTraitMFC_DLL@DV?$ChTraitsCRT@D@ATL@@@@@ATL@@QAE@XZ:PROC
EXTRN	__imp_??0?$CStringT@DV?$StrTraitMFC_DLL@DV?$ChTraitsCRT@D@ATL@@@@@ATL@@QAE@PAUIAtlStringMgr@1@@Z:PROC
EXTRN	__imp_??0?$CStringT@DV?$StrTraitMFC_DLL@DV?$ChTraitsCRT@D@ATL@@@@@ATL@@QAE@PBD@Z:PROC
EXTRN	__imp_??1?$CStringT@DV?$StrTraitMFC_DLL@DV?$ChTraitsCRT@D@ATL@@@@@ATL@@QAE@XZ:PROC
EXTRN	__imp_??4?$CStringT@DV?$StrTraitMFC_DLL@DV?$ChTraitsCRT@D@ATL@@@@@ATL@@QAEAAV01@PBD@Z:PROC
EXTRN	__imp_?GetManager@?$CStringT@DV?$StrTraitMFC_DLL@DV?$ChTraitsCRT@D@ATL@@@@@ATL@@QBEPAUIAtlStringMgr@2@XZ:PROC
EXTRN	__imp_?Compare@?$CStringT@DV?$StrTraitMFC_DLL@DV?$ChTraitsCRT@D@ATL@@@@@ATL@@QBEHPBD@Z:PROC
EXTRN	__imp_?AllocSysString@?$CStringT@DV?$StrTraitMFC_DLL@DV?$ChTraitsCRT@D@ATL@@@@@ATL@@QBEPA_WXZ:PROC
EXTRN	?AfxMessageBox@@YGHPBDII@Z:PROC			; AfxMessageBox
EXTRN	?SetModifiedFlag@COleControl@@QAEXH@Z:PROC	; COleControl::SetModifiedFlag
EXTRN	?BoundPropertyChanged@COleControl@@QAEXJ@Z:PROC	; COleControl::BoundPropertyChanged
EXTRN	__imp_?OnManualRealData@CAddInManager@@QAEXPBDNH@Z:PROC
EXTRN	__imp_?OnPacketTruncated@CAddInManager@@QAEXH@Z:PROC
EXTRN	__imp_?OnAddInToolCommand@CAddInManager@@QAEHW4EAICommandType@@PBD@Z:PROC
EXTRN	__imp_?OnAddInToolCommand@CAddInManager@@QAEHW4EAICommandType@@PBDJ@Z:PROC
EXTRN	?GetMetaTextForScript@IMetaTable@@QAEPBDPAUHWND__@@W4E_CODEPAGE@1@PBDH@Z:PROC ; IMetaTable::GetMetaTextForScript
EXTRN	?IsRunTimeMode@CKTBChartCtrl@@ABEHXZ:PROC	; CKTBChartCtrl::IsRunTimeMode
EXTRN	?InvalidateControl@CKTBChartCtrl@@QAEXPBUtagRECT@@H@Z:PROC ; CKTBChartCtrl::InvalidateControl
EXTRN	?AddLocalShareInfo@CLocalShareInfoList@@QAEPAVCLocalShareInfo@@PBDH0@Z:PROC ; CLocalShareInfoList::AddLocalShareInfo
EXTRN	?RemoveLocalShareInfo@CLocalShareInfoList@@QAEHPBD@Z:PROC ; CLocalShareInfoList::RemoveLocalShareInfo
EXTRN	__imp_?SetRealData@CPacketList@@QAE_NPBDNAAHH@Z:PROC
EXTRN	@__security_check_cookie@4:PROC
EXTRN	___CxxFrameHandler3:PROC
EXTRN	__alldiv:PROC
EXTRN	?g_iMetaTable@@3VIMetaTable@@A:BYTE		; g_iMetaTable
EXTRN	___security_cookie:DWORD
EXTRN	__fltused:DWORD
_BSS	SEGMENT
?RMS_ANALYSIS_FUNC@@3IB DD 01H DUP (?)			; RMS_ANALYSIS_FUNC
_BSS	ENDS
CRT$XCU	SEGMENT
?RMS_ANALYSIS_FUNC$initializer$@@3P6AXXZA DD FLAT:??__ERMS_ANALYSIS_FUNC@@YAXXZ ; RMS_ANALYSIS_FUNC$initializer$
CRT$XCU	ENDS
;	COMDAT ??_C@_03HKDINIMK@HTS@
CONST	SEGMENT
??_C@_03HKDINIMK@HTS@ DB 'HTS', 00H			; `string'
CONST	ENDS
;	COMDAT ??_C@_07KKHCKEHB@WORLDON@
CONST	SEGMENT
??_C@_07KKHCKEHB@WORLDON@ DB 'WORLDON', 00H		; `string'
CONST	ENDS
;	COMDAT ??_C@_02GMLAAMD@FX@
CONST	SEGMENT
??_C@_02GMLAAMD@FX@ DB 'FX', 00H			; `string'
CONST	ENDS
;	COMDAT ??_C@_0O@GDACOMFO@Chart?5Version@
CONST	SEGMENT
??_C@_0O@GDACOMFO@Chart?5Version@ DB 'Chart Version', 00H ; `string'
CONST	ENDS
;	COMDAT ??_C@_0L@HIOFCMKH@MChartMode@
CONST	SEGMENT
??_C@_0L@HIOFCMKH@MChartMode@ DB 'MChartMode', 00H	; `string'
CONST	ENDS
;	COMDAT ??_C@_0BD@PNOKNCJO@ChartMetaTable?4dat@
CONST	SEGMENT
??_C@_0BD@PNOKNCJO@ChartMetaTable?4dat@ DB 'ChartMetaTable.dat', 00H ; `string'
CONST	ENDS
;	COMDAT ??_C@_0CL@CPAIPCHM@CKTBChartCtrl?3?3OnbNormalizedMin@
CONST	SEGMENT
??_C@_0CL@CPAIPCHM@CKTBChartCtrl?3?3OnbNormalizedMin@ DB 'CKTBChartCtrl::'
	DB	'OnbNormalizedMinuteTimeRule', 00H		; `string'
CONST	ENDS
;	COMDAT ??_C@_0EE@MMAPKDIE@Error?5in?5real?5list?5string?5setti@
CONST	SEGMENT
??_C@_0EE@MMAPKDIE@Error?5in?5real?5list?5string?5setti@ DB 'Error in rea'
	DB	'l list string setting!', 0dH, 0aH, 'Please, check string agai'
	DB	'n!', 0dH, 0aH, 0dH, 0aH, 00H		; `string'
CONST	ENDS
;	COMDAT ??_C@_0GD@FLBGJKHJ@I?5did?5not?5prepare?5this?5operatio@
CONST	SEGMENT
??_C@_0GD@FLBGJKHJ@I?5did?5not?5prepare?5this?5operatio@ DB 'I did not pr'
	DB	'epare this operation in Multi-Language Version.', 0dH, 0aH, 'P'
	DB	'lease, call chart developer. thanks.', 00H	; `string'
CONST	ENDS
;	COMDAT ??_C@_00CNPNBAHC@@
CONST	SEGMENT
??_C@_00CNPNBAHC@@ DB 00H				; `string'
CONST	ENDS
;	COMDAT xdata$x
xdata$x	SEGMENT
__unwindtable$?SetFirstNMTRClock@CKTBChartCtrl@@QAEXXZ DD 0ffffffffH
	DD	FLAT:__unwindfunclet$?SetFirstNMTRClock@CKTBChartCtrl@@QAEXXZ$0
	DD	00H
	DD	FLAT:__unwindfunclet$?SetFirstNMTRClock@CKTBChartCtrl@@QAEXXZ$3
	DD	0ffffffffH
	DD	FLAT:__unwindfunclet$?SetFirstNMTRClock@CKTBChartCtrl@@QAEXXZ$2
__ehfuncinfo$?SetFirstNMTRClock@CKTBChartCtrl@@QAEXXZ DD 019930522H
	DD	03H
	DD	FLAT:__unwindtable$?SetFirstNMTRClock@CKTBChartCtrl@@QAEXXZ
	DD	2 DUP(00H)
	DD	2 DUP(00H)
	DD	00H
	DD	01H
xdata$x	ENDS
;	COMDAT xdata$x
xdata$x	SEGMENT
__unwindtable$?SetRealDataCode@CKTBChartCtrl@@IAEXPBD0NF@Z DD 0ffffffffH
	DD	FLAT:__unwindfunclet$?SetRealDataCode@CKTBChartCtrl@@IAEXPBD0NF@Z$0
__ehfuncinfo$?SetRealDataCode@CKTBChartCtrl@@IAEXPBD0NF@Z DD 019930522H
	DD	01H
	DD	FLAT:__unwindtable$?SetRealDataCode@CKTBChartCtrl@@IAEXPBD0NF@Z
	DD	2 DUP(00H)
	DD	2 DUP(00H)
	DD	00H
	DD	01H
xdata$x	ENDS
;	COMDAT xdata$x
xdata$x	SEGMENT
__unwindtable$?RemoveRealItemWithSeparator@CKTBChartCtrl@@IAEXPBD0@Z DD 0ffffffffH
	DD	FLAT:__unwindfunclet$?RemoveRealItemWithSeparator@CKTBChartCtrl@@IAEXPBD0@Z$0
__ehfuncinfo$?RemoveRealItemWithSeparator@CKTBChartCtrl@@IAEXPBD0@Z DD 019930522H
	DD	01H
	DD	FLAT:__unwindtable$?RemoveRealItemWithSeparator@CKTBChartCtrl@@IAEXPBD0@Z
	DD	2 DUP(00H)
	DD	2 DUP(00H)
	DD	00H
	DD	01H
xdata$x	ENDS
;	COMDAT xdata$x
xdata$x	SEGMENT
__unwindtable$?AddRealItemWithSeparator@CKTBChartCtrl@@IAEHPBD0@Z DD 0ffffffffH
	DD	FLAT:__unwindfunclet$?AddRealItemWithSeparator@CKTBChartCtrl@@IAEHPBD0@Z$0
	DD	00H
	DD	FLAT:__unwindfunclet$?AddRealItemWithSeparator@CKTBChartCtrl@@IAEHPBD0@Z$1
__ehfuncinfo$?AddRealItemWithSeparator@CKTBChartCtrl@@IAEHPBD0@Z DD 019930522H
	DD	02H
	DD	FLAT:__unwindtable$?AddRealItemWithSeparator@CKTBChartCtrl@@IAEHPBD0@Z
	DD	2 DUP(00H)
	DD	2 DUP(00H)
	DD	00H
	DD	01H
xdata$x	ENDS
;	COMDAT xdata$x
xdata$x	SEGMENT
__unwindtable$?GetRealSettingInfo@CKTBChartCtrl@@IAEPA_WXZ DD 0ffffffffH
	DD	FLAT:__unwindfunclet$?GetRealSettingInfo@CKTBChartCtrl@@IAEPA_WXZ$0
__ehfuncinfo$?GetRealSettingInfo@CKTBChartCtrl@@IAEPA_WXZ DD 019930522H
	DD	01H
	DD	FLAT:__unwindtable$?GetRealSettingInfo@CKTBChartCtrl@@IAEPA_WXZ
	DD	2 DUP(00H)
	DD	2 DUP(00H)
	DD	00H
	DD	01H
xdata$x	ENDS
;	COMDAT xdata$x
xdata$x	SEGMENT
__unwindtable$?ResetRealListString@CKTBChartCtrl@@IAEHPBDH@Z DD 0ffffffffH
	DD	FLAT:__unwindfunclet$?ResetRealListString@CKTBChartCtrl@@IAEHPBDH@Z$1
__ehfuncinfo$?ResetRealListString@CKTBChartCtrl@@IAEHPBDH@Z DD 019930522H
	DD	01H
	DD	FLAT:__unwindtable$?ResetRealListString@CKTBChartCtrl@@IAEHPBDH@Z
	DD	2 DUP(00H)
	DD	2 DUP(00H)
	DD	00H
	DD	01H
xdata$x	ENDS
;	COMDAT xdata$x
xdata$x	SEGMENT
__unwindtable$?RemoveRealItem@CKTBChartCtrl@@IAEXPBD@Z DD 0ffffffffH
	DD	FLAT:__unwindfunclet$?RemoveRealItem@CKTBChartCtrl@@IAEXPBD@Z$0
__ehfuncinfo$?RemoveRealItem@CKTBChartCtrl@@IAEXPBD@Z DD 019930522H
	DD	01H
	DD	FLAT:__unwindtable$?RemoveRealItem@CKTBChartCtrl@@IAEXPBD@Z
	DD	2 DUP(00H)
	DD	2 DUP(00H)
	DD	00H
	DD	01H
xdata$x	ENDS
;	COMDAT xdata$x
xdata$x	SEGMENT
__unwindtable$?AddRealItem@CKTBChartCtrl@@IAEHPBD@Z DD 0ffffffffH
	DD	FLAT:__unwindfunclet$?AddRealItem@CKTBChartCtrl@@IAEHPBD@Z$0
	DD	00H
	DD	FLAT:__unwindfunclet$?AddRealItem@CKTBChartCtrl@@IAEHPBD@Z$1
__ehfuncinfo$?AddRealItem@CKTBChartCtrl@@IAEHPBD@Z DD 019930522H
	DD	02H
	DD	FLAT:__unwindtable$?AddRealItem@CKTBChartCtrl@@IAEHPBD@Z
	DD	2 DUP(00H)
	DD	2 DUP(00H)
	DD	00H
	DD	01H
xdata$x	ENDS
;	COMDAT xdata$x
xdata$x	SEGMENT
__unwindtable$?SetRealData@CKTBChartCtrl@@IAEXPBDNF@Z DD 0ffffffffH
	DD	FLAT:__unwindfunclet$?SetRealData@CKTBChartCtrl@@IAEXPBDNF@Z$0
__ehfuncinfo$?SetRealData@CKTBChartCtrl@@IAEXPBDNF@Z DD 019930522H
	DD	01H
	DD	FLAT:__unwindtable$?SetRealData@CKTBChartCtrl@@IAEXPBDNF@Z
	DD	2 DUP(00H)
	DD	2 DUP(00H)
	DD	00H
	DD	01H
xdata$x	ENDS
;	COMDAT xdata$x
xdata$x	SEGMENT
__unwindtable$?OnstrRealListChanged@CKTBChartCtrl@@IAEXXZ DD 0ffffffffH
	DD	FLAT:__unwindfunclet$?OnstrRealListChanged@CKTBChartCtrl@@IAEXXZ$1
__ehfuncinfo$?OnstrRealListChanged@CKTBChartCtrl@@IAEXXZ DD 019930522H
	DD	01H
	DD	FLAT:__unwindtable$?OnstrRealListChanged@CKTBChartCtrl@@IAEXXZ
	DD	2 DUP(00H)
	DD	2 DUP(00H)
	DD	00H
	DD	01H
xdata$x	ENDS
;	COMDAT xdata$x
xdata$x	SEGMENT
__unwindtable$??HATL@@YA?AV?$CStringT@DV?$StrTraitMFC_DLL@DV?$ChTraitsCRT@D@ATL@@@@@0@PBDABV10@@Z DD 0ffffffffH
	DD	FLAT:__unwindfunclet$??HATL@@YA?AV?$CStringT@DV?$StrTraitMFC_DLL@DV?$ChTraitsCRT@D@ATL@@@@@0@PBDABV10@@Z$0
__ehfuncinfo$??HATL@@YA?AV?$CStringT@DV?$StrTraitMFC_DLL@DV?$ChTraitsCRT@D@ATL@@@@@0@PBDABV10@@Z DD 019930522H
	DD	01H
	DD	FLAT:__unwindtable$??HATL@@YA?AV?$CStringT@DV?$StrTraitMFC_DLL@DV?$ChTraitsCRT@D@ATL@@@@@0@PBDABV10@@Z
	DD	2 DUP(00H)
	DD	2 DUP(00H)
	DD	00H
	DD	01H
xdata$x	ENDS
;	COMDAT xdata$x
xdata$x	SEGMENT
__unwindtable$??HATL@@YA?AV?$CStringT@DV?$StrTraitMFC_DLL@DV?$ChTraitsCRT@D@ATL@@@@@0@ABV10@PBD@Z DD 0ffffffffH
	DD	FLAT:__unwindfunclet$??HATL@@YA?AV?$CStringT@DV?$StrTraitMFC_DLL@DV?$ChTraitsCRT@D@ATL@@@@@0@ABV10@PBD@Z$0
__ehfuncinfo$??HATL@@YA?AV?$CStringT@DV?$StrTraitMFC_DLL@DV?$ChTraitsCRT@D@ATL@@@@@0@ABV10@PBD@Z DD 019930522H
	DD	01H
	DD	FLAT:__unwindtable$??HATL@@YA?AV?$CStringT@DV?$StrTraitMFC_DLL@DV?$ChTraitsCRT@D@ATL@@@@@0@ABV10@PBD@Z
	DD	2 DUP(00H)
	DD	2 DUP(00H)
	DD	00H
	DD	01H
xdata$x	ENDS
; Function compile flags: /Ogtp
; File D:\git\src\IBK\IBK_DRFN\ProjSrc\SrcChartEx\ChartOCX\KTBChart\KTBChartReal.cpp
; File C:\Program Files (x86)\Microsoft Visual Studio\2019\Community\VC\Tools\MSVC\14.29.30133\atlmfc\include\cstringt.h
; File D:\git\src\IBK\IBK_DRFN\ProjSrc\SrcChartEx\ChartOCX\KTBChart\KTBChartReal.cpp
; File C:\Program Files (x86)\Microsoft Visual Studio\2019\Community\VC\Tools\MSVC\14.29.30133\atlmfc\include\cstringt.h
; File C:\Program Files (x86)\Microsoft Visual Studio\2019\Community\VC\Tools\MSVC\14.29.30133\atlmfc\include\atlsimpstr.h
; File C:\Program Files (x86)\Microsoft Visual Studio\2019\Community\VC\Tools\MSVC\14.29.30133\atlmfc\include\cstringt.h
; File D:\git\src\IBK\IBK_DRFN\ProjSrc\SrcChartEx\ChartOCX\KTBChart\KTBChartReal.cpp
; File C:\Program Files (x86)\Microsoft Visual Studio\2019\Community\VC\Tools\MSVC\14.29.30133\atlmfc\include\cstringt.h
; File D:\git\src\IBK\IBK_DRFN\ProjSrc\SrcChartEx\ChartOCX\KTBChart\KTBChartReal.cpp
; File C:\Program Files (x86)\Microsoft Visual Studio\2019\Community\VC\Tools\MSVC\14.29.30133\atlmfc\include\cstringt.h
; File D:\git\src\IBK\IBK_DRFN\ProjSrc\SrcChartEx\ChartOCX\KTBChart\KTBChartReal.cpp
; File C:\Program Files (x86)\Microsoft Visual Studio\2019\Community\VC\Tools\MSVC\14.29.30133\atlmfc\include\cstringt.h
; File D:\git\src\IBK\IBK_DRFN\ProjSrc\SrcChartEx\ChartOCX\KTBChart\KTBChartReal.cpp
; File C:\Program Files (x86)\Microsoft Visual Studio\2019\Community\VC\Tools\MSVC\14.29.30133\atlmfc\include\cstringt.h
; File D:\git\src\IBK\IBK_DRFN\ProjSrc\SrcChartEx\ChartOCX\KTBChart\KTBChartReal.cpp
;	COMDAT ?SetFirstNMTRClock@CKTBChartCtrl@@QAEXXZ
_TEXT	SEGMENT
_nClock$ = -296						; size = 8
$T2 = -288						; size = 4
$T3 = -284						; size = 4
$T4 = -280						; size = 4
_strChartMode$ = -276					; size = 4
_szMChartMode$ = -272					; size = 256
__$ArrayPad$ = -16					; size = 4
__$EHRec$ = -12						; size = 12
?SetFirstNMTRClock@CKTBChartCtrl@@QAEXXZ PROC		; CKTBChartCtrl::SetFirstNMTRClock, COMDAT
; _this$ = ecx

; 325  : {

  00000	55		 push	 ebp
  00001	8b ec		 mov	 ebp, esp
  00003	6a ff		 push	 -1
  00005	68 00 00 00 00	 push	 __ehhandler$?SetFirstNMTRClock@CKTBChartCtrl@@QAEXXZ
  0000a	64 a1 00 00 00
	00		 mov	 eax, DWORD PTR fs:0
  00010	50		 push	 eax
  00011	81 ec 1c 01 00
	00		 sub	 esp, 284		; 0000011cH
  00017	a1 00 00 00 00	 mov	 eax, DWORD PTR ___security_cookie
  0001c	33 c5		 xor	 eax, ebp
  0001e	89 45 f0	 mov	 DWORD PTR __$ArrayPad$[ebp], eax
  00021	53		 push	 ebx
  00022	56		 push	 esi
  00023	57		 push	 edi
  00024	50		 push	 eax
  00025	8d 45 f4	 lea	 eax, DWORD PTR __$EHRec$[ebp]
  00028	64 a3 00 00 00
	00		 mov	 DWORD PTR fs:0, eax
  0002e	8b f9		 mov	 edi, ecx
  00030	c7 85 e4 fe ff
	ff 00 00 00 00	 mov	 DWORD PTR $T3[ebp], 0

; 326  : 	if( !m_pPacketListManager || !m_pIRealReceiver) return;

  0003a	83 bf 98 05 00
	00 00		 cmp	 DWORD PTR [edi+1432], 0
  00041	0f 84 72 01 00
	00		 je	 $LN3@SetFirstNM
  00047	8b 9f 64 05 00
	00		 mov	 ebx, DWORD PTR [edi+1380]
  0004d	85 db		 test	 ebx, ebx
  0004f	0f 84 64 01 00
	00		 je	 $LN3@SetFirstNM

; 334  : 	DWORD dwError = GetPrivateProfileString( "Chart Version", "MChartMode", "", szMChartMode, 255, GetDefaultPath() + "ChartMetaTable.dat");

  00055	8b 07		 mov	 eax, DWORD PTR [edi]
  00057	8d 8d e0 fe ff
	ff		 lea	 ecx, DWORD PTR $T2[ebp]
  0005d	51		 push	 ecx
  0005e	8b cf		 mov	 ecx, edi
  00060	ff 90 ac 02 00
	00		 call	 DWORD PTR [eax+684]
  00066	8b f0		 mov	 esi, eax
; File C:\Program Files (x86)\Microsoft Visual Studio\2019\Community\VC\Tools\MSVC\14.29.30133\atlmfc\include\cstringt.h

; 2401 : 		CStringT strResult( str1.GetManager() );

  00068	8b ce		 mov	 ecx, esi
; File D:\git\src\IBK\IBK_DRFN\ProjSrc\SrcChartEx\ChartOCX\KTBChart\KTBChartReal.cpp

; 334  : 	DWORD dwError = GetPrivateProfileString( "Chart Version", "MChartMode", "", szMChartMode, 255, GetDefaultPath() + "ChartMetaTable.dat");

  0006a	c7 45 fc 01 00
	00 00		 mov	 DWORD PTR __$EHRec$[ebp+8], 1
; File C:\Program Files (x86)\Microsoft Visual Studio\2019\Community\VC\Tools\MSVC\14.29.30133\atlmfc\include\cstringt.h

; 2401 : 		CStringT strResult( str1.GetManager() );

  00071	ff 15 00 00 00
	00		 call	 DWORD PTR __imp_?GetManager@?$CStringT@DV?$StrTraitMFC_DLL@DV?$ChTraitsCRT@D@ATL@@@@@ATL@@QBEPAUIAtlStringMgr@2@XZ
  00077	50		 push	 eax
  00078	8d 8d e8 fe ff
	ff		 lea	 ecx, DWORD PTR $T4[ebp]
  0007e	ff 15 00 00 00
	00		 call	 DWORD PTR __imp_??0?$CStringT@DV?$StrTraitMFC_DLL@DV?$ChTraitsCRT@D@ATL@@@@@ATL@@QAE@PAUIAtlStringMgr@1@@Z
; File C:\Program Files (x86)\Microsoft Visual Studio\2019\Community\VC\Tools\MSVC\14.29.30133\atlmfc\include\atlsimpstr.h

; 519  : 		return( GetData()->nDataLength );

  00084	8b 06		 mov	 eax, DWORD PTR [esi]
; File C:\Program Files (x86)\Microsoft Visual Studio\2019\Community\VC\Tools\MSVC\14.29.30133\atlmfc\include\cstringt.h

; 2403 : 		CThisSimpleString::Concatenate( strResult, str1, str1.GetLength(), psz2, CThisSimpleString::StringLength( psz2 ) );

  00086	6a 12		 push	 18			; 00000012H
  00088	68 00 00 00 00	 push	 OFFSET ??_C@_0BD@PNOKNCJO@ChartMetaTable?4dat@

; 2404 : 
; 2405 : 		return( strResult );

  0008d	c7 85 e4 fe ff
	ff 01 00 00 00	 mov	 DWORD PTR $T3[ebp], 1
  00097	ff 70 f4	 push	 DWORD PTR [eax-12]
  0009a	50		 push	 eax
  0009b	8d 85 e8 fe ff
	ff		 lea	 eax, DWORD PTR $T4[ebp]
  000a1	50		 push	 eax
  000a2	ff 15 00 00 00
	00		 call	 DWORD PTR __imp_?Concatenate@?$CSimpleStringT@D$00@ATL@@KAXAAV12@PBDH1H@Z
  000a8	83 c4 14	 add	 esp, 20			; 00000014H
; File D:\git\src\IBK\IBK_DRFN\ProjSrc\SrcChartEx\ChartOCX\KTBChart\KTBChartReal.cpp

; 334  : 	DWORD dwError = GetPrivateProfileString( "Chart Version", "MChartMode", "", szMChartMode, 255, GetDefaultPath() + "ChartMetaTable.dat");

  000ab	8d 85 f0 fe ff
	ff		 lea	 eax, DWORD PTR _szMChartMode$[ebp]
  000b1	ff b5 e8 fe ff
	ff		 push	 DWORD PTR $T4[ebp]
  000b7	68 ff 00 00 00	 push	 255			; 000000ffH
  000bc	50		 push	 eax
  000bd	68 00 00 00 00	 push	 OFFSET ??_C@_00CNPNBAHC@@
  000c2	68 00 00 00 00	 push	 OFFSET ??_C@_0L@HIOFCMKH@MChartMode@
  000c7	68 00 00 00 00	 push	 OFFSET ??_C@_0O@GDACOMFO@Chart?5Version@
  000cc	ff 15 00 00 00
	00		 call	 DWORD PTR __imp__GetPrivateProfileStringA@24
  000d2	8d 8d e8 fe ff
	ff		 lea	 ecx, DWORD PTR $T4[ebp]
  000d8	ff 15 00 00 00
	00		 call	 DWORD PTR __imp_??1?$CStringT@DV?$StrTraitMFC_DLL@DV?$ChTraitsCRT@D@ATL@@@@@ATL@@QAE@XZ
  000de	8d 8d e0 fe ff
	ff		 lea	 ecx, DWORD PTR $T2[ebp]
  000e4	c7 45 fc ff ff
	ff ff		 mov	 DWORD PTR __$EHRec$[ebp+8], -1
  000eb	ff 15 00 00 00
	00		 call	 DWORD PTR __imp_??1?$CStringT@DV?$StrTraitMFC_DLL@DV?$ChTraitsCRT@D@ATL@@@@@ATL@@QAE@XZ

; 335  : 	CString strChartMode( szMChartMode);

  000f1	8d 85 f0 fe ff
	ff		 lea	 eax, DWORD PTR _szMChartMode$[ebp]
  000f7	50		 push	 eax
  000f8	8d 8d ec fe ff
	ff		 lea	 ecx, DWORD PTR _strChartMode$[ebp]
  000fe	ff 15 00 00 00
	00		 call	 DWORD PTR __imp_??0?$CStringT@DV?$StrTraitMFC_DLL@DV?$ChTraitsCRT@D@ATL@@@@@ATL@@QAE@PBD@Z
; File C:\Program Files (x86)\Microsoft Visual Studio\2019\Community\VC\Tools\MSVC\14.29.30133\atlmfc\include\cstringt.h

; 2486 : 		return(str1.Compare(psz2) == 0);

  00104	68 00 00 00 00	 push	 OFFSET ??_C@_02GMLAAMD@FX@
  00109	8d 8d ec fe ff
	ff		 lea	 ecx, DWORD PTR _strChartMode$[ebp]
; File D:\git\src\IBK\IBK_DRFN\ProjSrc\SrcChartEx\ChartOCX\KTBChart\KTBChartReal.cpp

; 335  : 	CString strChartMode( szMChartMode);

  0010f	c7 45 fc 02 00
	00 00		 mov	 DWORD PTR __$EHRec$[ebp+8], 2
; File C:\Program Files (x86)\Microsoft Visual Studio\2019\Community\VC\Tools\MSVC\14.29.30133\atlmfc\include\cstringt.h

; 2486 : 		return(str1.Compare(psz2) == 0);

  00116	ff 15 00 00 00
	00		 call	 DWORD PTR __imp_?Compare@?$CStringT@DV?$StrTraitMFC_DLL@DV?$ChTraitsCRT@D@ATL@@@@@ATL@@QBEHPBD@Z
  0011c	85 c0		 test	 eax, eax
; File D:\git\src\IBK\IBK_DRFN\ProjSrc\SrcChartEx\ChartOCX\KTBChart\KTBChartReal.cpp

; 336  : 	if(			strChartMode == "FX")		nClock = pIOldFXRealReceiver->GetNMTRClock();

  0011e	75 09		 jne	 SHORT $LN4@SetFirstNM
  00120	8b 03		 mov	 eax, DWORD PTR [ebx]
  00122	8b cb		 mov	 ecx, ebx
  00124	8b 40 54	 mov	 eax, DWORD PTR [eax+84]
  00127	eb 3e		 jmp	 SHORT $LN36@SetFirstNM
$LN4@SetFirstNM:
; File C:\Program Files (x86)\Microsoft Visual Studio\2019\Community\VC\Tools\MSVC\14.29.30133\atlmfc\include\cstringt.h

; 2486 : 		return(str1.Compare(psz2) == 0);

  00129	68 00 00 00 00	 push	 OFFSET ??_C@_07KKHCKEHB@WORLDON@
  0012e	8d 8d ec fe ff
	ff		 lea	 ecx, DWORD PTR _strChartMode$[ebp]
  00134	ff 15 00 00 00
	00		 call	 DWORD PTR __imp_?Compare@?$CStringT@DV?$StrTraitMFC_DLL@DV?$ChTraitsCRT@D@ATL@@@@@ATL@@QBEHPBD@Z
  0013a	85 c0		 test	 eax, eax
; File D:\git\src\IBK\IBK_DRFN\ProjSrc\SrcChartEx\ChartOCX\KTBChart\KTBChartReal.cpp

; 337  : 	else if(	strChartMode == "WORLDON")	nClock = m_pIRealReceiver->GetNMTRClock();

  0013c	74 1e		 je	 SHORT $LN8@SetFirstNM
; File C:\Program Files (x86)\Microsoft Visual Studio\2019\Community\VC\Tools\MSVC\14.29.30133\atlmfc\include\cstringt.h

; 2486 : 		return(str1.Compare(psz2) == 0);

  0013e	68 00 00 00 00	 push	 OFFSET ??_C@_03HKDINIMK@HTS@
  00143	8d 8d ec fe ff
	ff		 lea	 ecx, DWORD PTR _strChartMode$[ebp]
  00149	ff 15 00 00 00
	00		 call	 DWORD PTR __imp_?Compare@?$CStringT@DV?$StrTraitMFC_DLL@DV?$ChTraitsCRT@D@ATL@@@@@ATL@@QBEHPBD@Z
  0014f	85 c0		 test	 eax, eax
; File D:\git\src\IBK\IBK_DRFN\ProjSrc\SrcChartEx\ChartOCX\KTBChart\KTBChartReal.cpp

; 338  : 	else if(	strChartMode == "HTS")		nClock = pIOldHTSRealReceiver->GetNMTRClock();

  00151	75 09		 jne	 SHORT $LN8@SetFirstNM
  00153	8b 03		 mov	 eax, DWORD PTR [ebx]
  00155	8b cb		 mov	 ecx, ebx
  00157	8b 40 50	 mov	 eax, DWORD PTR [eax+80]
  0015a	eb 0b		 jmp	 SHORT $LN36@SetFirstNM
$LN8@SetFirstNM:

; 339  : 	//<<20100310_JS.Kim	솔로몬.. HTS/해외선물/FX가 같은 ChartMetaTable.dat을 쓰므로 여기에 셋팅할 수 없어 셋팅 안되어 있는 경우는 일반적으로 처리
; 340  : 	else									nClock = m_pIRealReceiver->GetNMTRClock();
; 341  : 	//>>
; 342  : 	
; 343  : 	nClock += 5 - nClock % 5;

  0015c	8b 8f 64 05 00
	00		 mov	 ecx, DWORD PTR [edi+1380]
  00162	8b 01		 mov	 eax, DWORD PTR [ecx]
  00164	8b 40 60	 mov	 eax, DWORD PTR [eax+96]
$LN36@SetFirstNM:
  00167	ff d0		 call	 eax
  00169	6a 00		 push	 0
  0016b	6a 05		 push	 5
  0016d	52		 push	 edx
  0016e	50		 push	 eax
  0016f	e8 00 00 00 00	 call	 __alldiv

; 344  : 	m_pPacketListManager->OnNMTRClock( nClock, m_pIRealReceiver);

  00174	ff b7 64 05 00
	00		 push	 DWORD PTR [edi+1380]
  0017a	83 c0 01	 add	 eax, 1
  0017d	8b c8		 mov	 ecx, eax
  0017f	83 d2 00	 adc	 edx, 0
  00182	8b f2		 mov	 esi, edx
  00184	0f a4 ce 02	 shld	 esi, ecx, 2
  00188	c1 e1 02	 shl	 ecx, 2
  0018b	03 c1		 add	 eax, ecx
  0018d	8b 8f 98 05 00
	00		 mov	 ecx, DWORD PTR [edi+1432]
  00193	89 85 d8 fe ff
	ff		 mov	 DWORD PTR _nClock$[ebp], eax
  00199	13 d6		 adc	 edx, esi
  0019b	89 95 dc fe ff
	ff		 mov	 DWORD PTR _nClock$[ebp+4], edx
  001a1	8d 95 d8 fe ff
	ff		 lea	 edx, DWORD PTR _nClock$[ebp]
  001a7	8b 01		 mov	 eax, DWORD PTR [ecx]
  001a9	52		 push	 edx
  001aa	ff 50 74	 call	 DWORD PTR [eax+116]

; 345  : }

  001ad	8d 8d ec fe ff
	ff		 lea	 ecx, DWORD PTR _strChartMode$[ebp]
  001b3	ff 15 00 00 00
	00		 call	 DWORD PTR __imp_??1?$CStringT@DV?$StrTraitMFC_DLL@DV?$ChTraitsCRT@D@ATL@@@@@ATL@@QAE@XZ
$LN3@SetFirstNM:
  001b9	8b 4d f4	 mov	 ecx, DWORD PTR __$EHRec$[ebp]
  001bc	64 89 0d 00 00
	00 00		 mov	 DWORD PTR fs:0, ecx
  001c3	59		 pop	 ecx
  001c4	5f		 pop	 edi
  001c5	5e		 pop	 esi
  001c6	5b		 pop	 ebx
  001c7	8b 4d f0	 mov	 ecx, DWORD PTR __$ArrayPad$[ebp]
  001ca	33 cd		 xor	 ecx, ebp
  001cc	e8 00 00 00 00	 call	 @__security_check_cookie@4
  001d1	8b e5		 mov	 esp, ebp
  001d3	5d		 pop	 ebp
  001d4	c3		 ret	 0
_TEXT	ENDS
;	COMDAT text$x
text$x	SEGMENT
__unwindfunclet$?SetFirstNMTRClock@CKTBChartCtrl@@QAEXXZ$0:
  00000	8d 8d e0 fe ff
	ff		 lea	 ecx, DWORD PTR $T2[ebp]
  00006	ff 25 00 00 00
	00		 jmp	 DWORD PTR __imp_??1?$CStringT@DV?$StrTraitMFC_DLL@DV?$ChTraitsCRT@D@ATL@@@@@ATL@@QAE@XZ
__unwindfunclet$?SetFirstNMTRClock@CKTBChartCtrl@@QAEXXZ$3:
  0000c	8b 85 e4 fe ff
	ff		 mov	 eax, DWORD PTR $T3[ebp]
  00012	83 e0 01	 and	 eax, 1
  00015	0f 84 13 00 00
	00		 je	 $LN17@SetFirstNM
  0001b	83 a5 e4 fe ff
	ff fe		 and	 DWORD PTR $T3[ebp], -2	; fffffffeH
  00022	8d 8d e8 fe ff
	ff		 lea	 ecx, DWORD PTR $T4[ebp]
  00028	ff 25 00 00 00
	00		 jmp	 DWORD PTR __imp_??1?$CStringT@DV?$StrTraitMFC_DLL@DV?$ChTraitsCRT@D@ATL@@@@@ATL@@QAE@XZ
$LN17@SetFirstNM:
  0002e	c3		 ret	 0
__unwindfunclet$?SetFirstNMTRClock@CKTBChartCtrl@@QAEXXZ$2:
  0002f	8d 8d ec fe ff
	ff		 lea	 ecx, DWORD PTR _strChartMode$[ebp]
  00035	ff 25 00 00 00
	00		 jmp	 DWORD PTR __imp_??1?$CStringT@DV?$StrTraitMFC_DLL@DV?$ChTraitsCRT@D@ATL@@@@@ATL@@QAE@XZ
  0003b	cc		 int	 3
  0003c	cc		 int	 3
  0003d	cc		 int	 3
  0003e	cc		 int	 3
  0003f	cc		 int	 3
__ehhandler$?SetFirstNMTRClock@CKTBChartCtrl@@QAEXXZ:
  00040	90		 npad	 1
  00041	90		 npad	 1
  00042	8b 54 24 08	 mov	 edx, DWORD PTR [esp+8]
  00046	8d 42 0c	 lea	 eax, DWORD PTR [edx+12]
  00049	8b 8a d4 fe ff
	ff		 mov	 ecx, DWORD PTR [edx-300]
  0004f	33 c8		 xor	 ecx, eax
  00051	e8 00 00 00 00	 call	 @__security_check_cookie@4
  00056	8b 4a fc	 mov	 ecx, DWORD PTR [edx-4]
  00059	33 c8		 xor	 ecx, eax
  0005b	e8 00 00 00 00	 call	 @__security_check_cookie@4
  00060	b8 00 00 00 00	 mov	 eax, OFFSET __ehfuncinfo$?SetFirstNMTRClock@CKTBChartCtrl@@QAEXXZ
  00065	e9 00 00 00 00	 jmp	 ___CxxFrameHandler3
text$x	ENDS
?SetFirstNMTRClock@CKTBChartCtrl@@QAEXXZ ENDP		; CKTBChartCtrl::SetFirstNMTRClock
; Function compile flags: /Ogtp
; File D:\git\src\IBK\IBK_DRFN\ProjSrc\SrcChartEx\ChartOCX\KTBChart\KTBChartReal.cpp
;	COMDAT ?OnDrdsPacketEnd@CKTBChartCtrl@@IAEJIJ@Z
_TEXT	SEGMENT
_wParam$ = 8						; size = 4
_lParam$ = 12						; size = 4
?OnDrdsPacketEnd@CKTBChartCtrl@@IAEJIJ@Z PROC		; CKTBChartCtrl::OnDrdsPacketEnd, COMDAT
; _this$ = ecx

; 137  : {

  00000	55		 push	 ebp
  00001	8b ec		 mov	 ebp, esp

; 138  : 	if( !m_pIRealReceiver) return 0;

  00003	8b 89 64 05 00
	00		 mov	 ecx, DWORD PTR [ecx+1380]
  00009	85 c9		 test	 ecx, ecx
  0000b	75 06		 jne	 SHORT $LN2@OnDrdsPack
  0000d	33 c0		 xor	 eax, eax

; 140  : }

  0000f	5d		 pop	 ebp
  00010	c2 08 00	 ret	 8
$LN2@OnDrdsPack:

; 139  : 	return m_pIRealReceiver->SetDrdsPacketEnd( wParam, lParam);

  00013	8b 01		 mov	 eax, DWORD PTR [ecx]

; 140  : }

  00015	5d		 pop	 ebp

; 139  : 	return m_pIRealReceiver->SetDrdsPacketEnd( wParam, lParam);

  00016	ff 60 28	 jmp	 DWORD PTR [eax+40]
?OnDrdsPacketEnd@CKTBChartCtrl@@IAEJIJ@Z ENDP		; CKTBChartCtrl::OnDrdsPacketEnd
_TEXT	ENDS
; Function compile flags: /Ogtp
; File D:\git\src\IBK\IBK_DRFN\ProjSrc\SrcChartEx\ChartOCX\KTBChart\KTBChartReal.cpp
;	COMDAT ?OnDrdsData@CKTBChartCtrl@@IAEJIJ@Z
_TEXT	SEGMENT
_wParam$ = 8						; size = 4
_lParam$ = 12						; size = 4
?OnDrdsData@CKTBChartCtrl@@IAEJIJ@Z PROC		; CKTBChartCtrl::OnDrdsData, COMDAT
; _this$ = ecx

; 127  : {

  00000	55		 push	 ebp
  00001	8b ec		 mov	 ebp, esp

; 128  : 	if( !m_pIRealReceiver) return 0;

  00003	8b 89 64 05 00
	00		 mov	 ecx, DWORD PTR [ecx+1380]
  00009	85 c9		 test	 ecx, ecx
  0000b	75 06		 jne	 SHORT $LN2@OnDrdsData
  0000d	33 c0		 xor	 eax, eax

; 130  : }

  0000f	5d		 pop	 ebp
  00010	c2 08 00	 ret	 8
$LN2@OnDrdsData:

; 129  : 	return m_pIRealReceiver->SetDrdsData( wParam, lParam);

  00013	8b 01		 mov	 eax, DWORD PTR [ecx]

; 130  : }

  00015	5d		 pop	 ebp

; 129  : 	return m_pIRealReceiver->SetDrdsData( wParam, lParam);

  00016	ff 60 24	 jmp	 DWORD PTR [eax+36]
?OnDrdsData@CKTBChartCtrl@@IAEJIJ@Z ENDP		; CKTBChartCtrl::OnDrdsData
_TEXT	ENDS
; Function compile flags: /Ogtp
; File D:\git\src\IBK\IBK_DRFN\ProjSrc\SrcChartEx\ChartOCX\KTBChart\KTBChartReal.cpp
;	COMDAT ?SetDrdsAdviseRQ@CKTBChartCtrl@@UAEXPBDH@Z
_TEXT	SEGMENT
_lpszRQ$ = 8						; size = 4
_bOnAdvise$ = 12					; size = 4
?SetDrdsAdviseRQ@CKTBChartCtrl@@UAEXPBDH@Z PROC		; CKTBChartCtrl::SetDrdsAdviseRQ, COMDAT
; _this$ = ecx

; 313  : {

  00000	55		 push	 ebp
  00001	8b ec		 mov	 ebp, esp
  00003	56		 push	 esi
  00004	8b f1		 mov	 esi, ecx

; 314  : 	if(m_pIRealReceiver) 

  00006	8b 8e 64 05 00
	00		 mov	 ecx, DWORD PTR [esi+1380]
  0000c	85 c9		 test	 ecx, ecx
  0000e	74 1b		 je	 SHORT $LN2@SetDrdsAdv

; 315  : 	{
; 316  : 		if(!bOnAdvise)

  00010	83 7d 0c 00	 cmp	 DWORD PTR _bOnAdvise$[ebp], 0
  00014	75 0e		 jne	 SHORT $LN3@SetDrdsAdv

; 317  : 			m_pIRealReceiver->RemoveRQPacket(lpszRQ);

  00016	8b 01		 mov	 eax, DWORD PTR [ecx]
  00018	ff 75 08	 push	 DWORD PTR _lpszRQ$[ebp]
  0001b	ff 50 44	 call	 DWORD PTR [eax+68]
  0001e	8b 8e 64 05 00
	00		 mov	 ecx, DWORD PTR [esi+1380]
$LN3@SetDrdsAdv:

; 318  : 		
; 319  : 		m_pIRealReceiver->SetRealAdviseRQ(lpszRQ, bOnAdvise);

  00024	8b 01		 mov	 eax, DWORD PTR [ecx]
  00026	5e		 pop	 esi

; 320  : 	}
; 321  : }

  00027	5d		 pop	 ebp

; 318  : 		
; 319  : 		m_pIRealReceiver->SetRealAdviseRQ(lpszRQ, bOnAdvise);

  00028	ff 60 38	 jmp	 DWORD PTR [eax+56]
$LN2@SetDrdsAdv:
  0002b	5e		 pop	 esi

; 320  : 	}
; 321  : }

  0002c	5d		 pop	 ebp
  0002d	c2 08 00	 ret	 8
?SetDrdsAdviseRQ@CKTBChartCtrl@@UAEXPBDH@Z ENDP		; CKTBChartCtrl::SetDrdsAdviseRQ
_TEXT	ENDS
; Function compile flags: /Ogtp
; File D:\git\src\IBK\IBK_DRFN\ProjSrc\SrcChartEx\ChartOCX\KTBChart\KTBChartReal.cpp
;	COMDAT ?SetRealDataCode@CKTBChartCtrl@@IAEXPBD0NF@Z
_TEXT	SEGMENT
__$EHRec$ = -12						; size = 12
_strCode$ = 8						; size = 4
_strPacketName$ = 12					; size = 4
_strPacketName2$ = 12					; size = 4
_dData$ = 16						; size = 8
_nOption$ = 24						; size = 2
?SetRealDataCode@CKTBChartCtrl@@IAEXPBD0NF@Z PROC	; CKTBChartCtrl::SetRealDataCode, COMDAT
; _this$ = ecx

; 188  : {

  00000	55		 push	 ebp
  00001	8b ec		 mov	 ebp, esp
  00003	6a ff		 push	 -1
  00005	68 00 00 00 00	 push	 __ehhandler$?SetRealDataCode@CKTBChartCtrl@@IAEXPBD0NF@Z
  0000a	64 a1 00 00 00
	00		 mov	 eax, DWORD PTR fs:0
  00010	50		 push	 eax
  00011	56		 push	 esi
  00012	57		 push	 edi
  00013	a1 00 00 00 00	 mov	 eax, DWORD PTR ___security_cookie
  00018	33 c5		 xor	 eax, ebp
  0001a	50		 push	 eax
  0001b	8d 45 f4	 lea	 eax, DWORD PTR __$EHRec$[ebp]
  0001e	64 a3 00 00 00
	00		 mov	 DWORD PTR fs:0, eax
  00024	8b f1		 mov	 esi, ecx

; 189  : 	if(!m_pPacketListManager)

  00026	83 be 98 05 00
	00 00		 cmp	 DWORD PTR [esi+1432], 0
  0002d	0f 84 aa 00 00
	00		 je	 $LN1@SetRealDat

; 190  : 		return;
; 191  : 
; 192  : 	CString strPacketName = _STOM0( strPacketName2);

  00033	6a 00		 push	 0
  00035	ff 75 0c	 push	 DWORD PTR _strPacketName2$[ebp]
  00038	b9 00 00 00 00	 mov	 ecx, OFFSET ?g_iMetaTable@@3VIMetaTable@@A ; g_iMetaTable
  0003d	6a 00		 push	 0
  0003f	ff b6 c0 05 00
	00		 push	 DWORD PTR [esi+1472]
  00045	e8 00 00 00 00	 call	 ?GetMetaTextForScript@IMetaTable@@QAEPBDPAUHWND__@@W4E_CODEPAGE@1@PBDH@Z ; IMetaTable::GetMetaTextForScript
  0004a	50		 push	 eax
  0004b	8d 4d 0c	 lea	 ecx, DWORD PTR _strPacketName$[ebp]
  0004e	ff 15 00 00 00
	00		 call	 DWORD PTR __imp_??0?$CStringT@DV?$StrTraitMFC_DLL@DV?$ChTraitsCRT@D@ATL@@@@@ATL@@QAE@PBD@Z

; 193  : 	// ADD: 종찬(04/08/03) PacketData에서 PacketData제거루틴추가에 의한 그 구분 Flag를 설정.
; 194  : 	int nRemovePacketDataCount = 0;
; 195  : 	m_pPacketListManager->SetRealData(strCode, strPacketName, dData, nOption);

  00054	8b 7d 18	 mov	 edi, DWORD PTR _nOption$[ebp]
  00057	8b 8e 98 05 00
	00		 mov	 ecx, DWORD PTR [esi+1432]
  0005d	f2 0f 10 45 10	 movsd	 xmm0, QWORD PTR _dData$[ebp]
  00062	57		 push	 edi
  00063	83 ec 08	 sub	 esp, 8
  00066	c7 45 fc 00 00
	00 00		 mov	 DWORD PTR __$EHRec$[ebp+8], 0
  0006d	8b 01		 mov	 eax, DWORD PTR [ecx]
  0006f	f2 0f 11 04 24	 movsd	 QWORD PTR [esp], xmm0
  00074	ff 75 0c	 push	 DWORD PTR _strPacketName$[ebp]
  00077	ff 75 08	 push	 DWORD PTR _strCode$[ebp]
  0007a	ff 50 70	 call	 DWORD PTR [eax+112]

; 196  : 	
; 197  : 	// return : 0(처리 안됨)  1(처리됨 : packet삭제는 안됨)  2(처리됨 : packet삭제 됨)
; 198  : 	//sy 2003.3.7 - 속도 개선 - 스크립트로 실시간 data들어옴
; 199  : 	if(m_pMainBlock != NULL)

  0007d	8b 8e 34 03 00
	00		 mov	 ecx, DWORD PTR [esi+820]
  00083	85 c9		 test	 ecx, ecx
  00085	74 0a		 je	 SHORT $LN3@SetRealDat

; 200  : 		m_pMainBlock->CalculateAllGraphs(CCalculateBaseData::REALDATA_CAL);

  00087	8b 01		 mov	 eax, DWORD PTR [ecx]
  00089	6a 01		 push	 1
  0008b	ff 90 48 01 00
	00		 call	 DWORD PTR [eax+328]
$LN3@SetRealDat:

; 201  : 
; 202  : 	// (2004.12.07, 배승원) Real의 반영에 따른 지표 계산을 싯점을 AddIn Module에게 알린다.
; 203  : 	if( m_pAddInManager) m_pAddInManager->OnManualRealData( strPacketName, dData, nOption);

  00091	8b 8e cc 04 00
	00		 mov	 ecx, DWORD PTR [esi+1228]
  00097	85 c9		 test	 ecx, ecx
  00099	74 1a		 je	 SHORT $LN4@SetRealDat
  0009b	f2 0f 10 45 10	 movsd	 xmm0, QWORD PTR _dData$[ebp]
  000a0	0f bf c7	 movsx	 eax, di
  000a3	50		 push	 eax
  000a4	83 ec 08	 sub	 esp, 8
  000a7	f2 0f 11 04 24	 movsd	 QWORD PTR [esp], xmm0
  000ac	ff 75 0c	 push	 DWORD PTR _strPacketName$[ebp]
  000af	ff 15 00 00 00
	00		 call	 DWORD PTR __imp_?OnManualRealData@CAddInManager@@QAEXPBDNH@Z
$LN4@SetRealDat:

; 204  : 
; 205  : 	if( nRemovePacketDataCount)
; 206  : 	{
; 207  : 		// (2006/6/5 - Seung-Won, Bae) Notify to ST AddIn for Packet Data Cutting.
; 208  : 		if( m_pAddInManager) m_pAddInManager->OnPacketTruncated( nRemovePacketDataCount);
; 209  : 
; 210  : 		// (2009/5/10 - Seung-Won, Bae) Scroll with added and trucated by Real
; 211  : 		if( m_pxScaleManager) m_pxScaleManager->SetFlagForCalcDRIandScrollByReal( TRUE);
; 212  : 	}
; 213  : 
; 214  : 	// (2009/5/10 - Seung-Won, Bae) Scroll with added and trucated by Real
; 215  : 	if( m_pxScaleManager) m_pxScaleManager->SetFlagForCalcDRIandScrollByReal();

  000b5	8b 8e 38 03 00
	00		 mov	 ecx, DWORD PTR [esi+824]
  000bb	85 c9		 test	 ecx, ecx
  000bd	74 0a		 je	 SHORT $LN8@SetRealDat
  000bf	8b 01		 mov	 eax, DWORD PTR [ecx]
  000c1	6a 00		 push	 0
  000c3	ff 90 5c 01 00
	00		 call	 DWORD PTR [eax+348]
$LN8@SetRealDat:

; 216  : 
; 217  : 	InvalidateControl();

  000c9	6a 01		 push	 1
  000cb	6a 00		 push	 0
  000cd	8b ce		 mov	 ecx, esi
  000cf	e8 00 00 00 00	 call	 ?InvalidateControl@CKTBChartCtrl@@QAEXPBUtagRECT@@H@Z ; CKTBChartCtrl::InvalidateControl

; 218  : 	// packet 이 삭제된 만큼 scroll 변경
; 219  : 	//if(nResult == 1)
; 220  : 	//	SetScrollData_RemovePacketPart();
; 221  : 
; 222  : 	return;

  000d4	8d 4d 0c	 lea	 ecx, DWORD PTR _strPacketName$[ebp]
  000d7	ff 15 00 00 00
	00		 call	 DWORD PTR __imp_??1?$CStringT@DV?$StrTraitMFC_DLL@DV?$ChTraitsCRT@D@ATL@@@@@ATL@@QAE@XZ
$LN1@SetRealDat:

; 223  : }

  000dd	8b 4d f4	 mov	 ecx, DWORD PTR __$EHRec$[ebp]
  000e0	64 89 0d 00 00
	00 00		 mov	 DWORD PTR fs:0, ecx
  000e7	59		 pop	 ecx
  000e8	5f		 pop	 edi
  000e9	5e		 pop	 esi
  000ea	8b e5		 mov	 esp, ebp
  000ec	5d		 pop	 ebp
  000ed	c2 14 00	 ret	 20			; 00000014H
_TEXT	ENDS
;	COMDAT text$x
text$x	SEGMENT
__unwindfunclet$?SetRealDataCode@CKTBChartCtrl@@IAEXPBD0NF@Z$0:
  00000	8d 4d 0c	 lea	 ecx, DWORD PTR _strPacketName$[ebp]
  00003	ff 25 00 00 00
	00		 jmp	 DWORD PTR __imp_??1?$CStringT@DV?$StrTraitMFC_DLL@DV?$ChTraitsCRT@D@ATL@@@@@ATL@@QAE@XZ
  00009	cc		 int	 3
  0000a	cc		 int	 3
  0000b	cc		 int	 3
  0000c	cc		 int	 3
  0000d	cc		 int	 3
__ehhandler$?SetRealDataCode@CKTBChartCtrl@@IAEXPBD0NF@Z:
  0000e	90		 npad	 1
  0000f	90		 npad	 1
  00010	8b 54 24 08	 mov	 edx, DWORD PTR [esp+8]
  00014	8d 42 0c	 lea	 eax, DWORD PTR [edx+12]
  00017	8b 4a f4	 mov	 ecx, DWORD PTR [edx-12]
  0001a	33 c8		 xor	 ecx, eax
  0001c	e8 00 00 00 00	 call	 @__security_check_cookie@4
  00021	b8 00 00 00 00	 mov	 eax, OFFSET __ehfuncinfo$?SetRealDataCode@CKTBChartCtrl@@IAEXPBD0NF@Z
  00026	e9 00 00 00 00	 jmp	 ___CxxFrameHandler3
text$x	ENDS
?SetRealDataCode@CKTBChartCtrl@@IAEXPBD0NF@Z ENDP	; CKTBChartCtrl::SetRealDataCode
; Function compile flags: /Ogtp
; File D:\git\src\IBK\IBK_DRFN\ProjSrc\SrcChartEx\ChartOCX\KTBChart\KTBChartReal.cpp
; File C:\Program Files (x86)\Microsoft Visual Studio\2019\Community\VC\Tools\MSVC\14.29.30133\atlmfc\include\atlsimpstr.h
; File D:\git\src\IBK\IBK_DRFN\ProjSrc\SrcChartEx\ChartOCX\KTBChart\KTBChartReal.cpp
;	COMDAT ?RemoveRealItemWithSeparator@CKTBChartCtrl@@IAEXPBD0@Z
_TEXT	SEGMENT
_strShareName$ = -16					; size = 4
__$EHRec$ = -12						; size = 12
_szRealInfo$ = 8					; size = 4
_szSeparatorChar$ = 12					; size = 4
?RemoveRealItemWithSeparator@CKTBChartCtrl@@IAEXPBD0@Z PROC ; CKTBChartCtrl::RemoveRealItemWithSeparator, COMDAT
; _this$ = ecx

; 267  : {					

  00000	55		 push	 ebp
  00001	8b ec		 mov	 ebp, esp
  00003	6a ff		 push	 -1
  00005	68 00 00 00 00	 push	 __ehhandler$?RemoveRealItemWithSeparator@CKTBChartCtrl@@IAEXPBD0@Z
  0000a	64 a1 00 00 00
	00		 mov	 eax, DWORD PTR fs:0
  00010	50		 push	 eax
  00011	51		 push	 ecx
  00012	56		 push	 esi
  00013	57		 push	 edi
  00014	a1 00 00 00 00	 mov	 eax, DWORD PTR ___security_cookie
  00019	33 c5		 xor	 eax, ebp
  0001b	50		 push	 eax
  0001c	8d 45 f4	 lea	 eax, DWORD PTR __$EHRec$[ebp]
  0001f	64 a3 00 00 00
	00		 mov	 DWORD PTR fs:0, eax
  00025	8b f1		 mov	 esi, ecx

; 268  : 	// TODO: Add your dispatch handler code here
; 269  : 	if( !IsRunTimeMode() || !m_pPacketList)	return;

  00027	e8 00 00 00 00	 call	 ?IsRunTimeMode@CKTBChartCtrl@@ABEHXZ ; CKTBChartCtrl::IsRunTimeMode
  0002c	85 c0		 test	 eax, eax
  0002e	74 6d		 je	 SHORT $LN5@RemoveReal
  00030	83 be 3c 03 00
	00 00		 cmp	 DWORD PTR [esi+828], 0
  00037	74 64		 je	 SHORT $LN5@RemoveReal

; 270  : 	if( !szRealInfo || !*szRealInfo)		return;

  00039	8b 7d 08	 mov	 edi, DWORD PTR _szRealInfo$[ebp]
  0003c	85 ff		 test	 edi, edi
  0003e	74 5d		 je	 SHORT $LN5@RemoveReal
  00040	80 3f 00	 cmp	 BYTE PTR [edi], 0
  00043	74 58		 je	 SHORT $LN5@RemoveReal

; 271  : 	if( !m_pIRealReceiver)					return;

  00045	83 be 64 05 00
	00 00		 cmp	 DWORD PTR [esi+1380], 0
  0004c	74 4f		 je	 SHORT $LN5@RemoveReal

; 272  : 
; 273  : 	// 1. Real Setting Info에 추가한다.
; 274  : 	CString strShareName;

  0004e	8d 4d f0	 lea	 ecx, DWORD PTR _strShareName$[ebp]
  00051	ff 15 00 00 00
	00		 call	 DWORD PTR __imp_??0?$CStringT@DV?$StrTraitMFC_DLL@DV?$ChTraitsCRT@D@ATL@@@@@ATL@@QAE@XZ

; 275  : 	m_pIRealReceiver->RemoveRealSettingInfoRQ(m_strRQ, szRealInfo, &strShareName, *szSeparatorChar);

  00057	8b 45 0c	 mov	 eax, DWORD PTR _szSeparatorChar$[ebp]
  0005a	8b 8e 64 05 00
	00		 mov	 ecx, DWORD PTR [esi+1380]
  00060	c7 45 fc 00 00
	00 00		 mov	 DWORD PTR __$EHRec$[ebp+8], 0
  00067	0f b6 00	 movzx	 eax, BYTE PTR [eax]
  0006a	8b 11		 mov	 edx, DWORD PTR [ecx]
  0006c	50		 push	 eax
  0006d	8d 45 f0	 lea	 eax, DWORD PTR _strShareName$[ebp]
  00070	50		 push	 eax
  00071	57		 push	 edi
  00072	ff b6 9c 05 00
	00		 push	 DWORD PTR [esi+1436]
  00078	ff 52 40	 call	 DWORD PTR [edx+64]
; File C:\Program Files (x86)\Microsoft Visual Studio\2019\Community\VC\Tools\MSVC\14.29.30133\atlmfc\include\atlsimpstr.h

; 533  : 		return( GetLength() == 0 );

  0007b	8b 45 f0	 mov	 eax, DWORD PTR _strShareName$[ebp]
  0007e	83 78 f4 00	 cmp	 DWORD PTR [eax-12], 0
; File D:\git\src\IBK\IBK_DRFN\ProjSrc\SrcChartEx\ChartOCX\KTBChart\KTBChartReal.cpp

; 278  : 	if( !strShareName.IsEmpty() && m_plLocalShareInfoList) m_plLocalShareInfoList->RemoveLocalShareInfo( strShareName);

  00082	74 10		 je	 SHORT $LN7@RemoveReal
  00084	8b 8e 60 05 00
	00		 mov	 ecx, DWORD PTR [esi+1376]
  0008a	85 c9		 test	 ecx, ecx
  0008c	74 06		 je	 SHORT $LN7@RemoveReal
  0008e	50		 push	 eax
  0008f	e8 00 00 00 00	 call	 ?RemoveLocalShareInfo@CLocalShareInfoList@@QAEHPBD@Z ; CLocalShareInfoList::RemoveLocalShareInfo
$LN7@RemoveReal:

; 279  : }

  00094	8d 4d f0	 lea	 ecx, DWORD PTR _strShareName$[ebp]
  00097	ff 15 00 00 00
	00		 call	 DWORD PTR __imp_??1?$CStringT@DV?$StrTraitMFC_DLL@DV?$ChTraitsCRT@D@ATL@@@@@ATL@@QAE@XZ
$LN5@RemoveReal:
  0009d	8b 4d f4	 mov	 ecx, DWORD PTR __$EHRec$[ebp]
  000a0	64 89 0d 00 00
	00 00		 mov	 DWORD PTR fs:0, ecx
  000a7	59		 pop	 ecx
  000a8	5f		 pop	 edi
  000a9	5e		 pop	 esi
  000aa	8b e5		 mov	 esp, ebp
  000ac	5d		 pop	 ebp
  000ad	c2 08 00	 ret	 8
_TEXT	ENDS
;	COMDAT text$x
text$x	SEGMENT
__unwindfunclet$?RemoveRealItemWithSeparator@CKTBChartCtrl@@IAEXPBD0@Z$0:
  00000	8d 4d f0	 lea	 ecx, DWORD PTR _strShareName$[ebp]
  00003	ff 25 00 00 00
	00		 jmp	 DWORD PTR __imp_??1?$CStringT@DV?$StrTraitMFC_DLL@DV?$ChTraitsCRT@D@ATL@@@@@ATL@@QAE@XZ
  00009	cc		 int	 3
  0000a	cc		 int	 3
  0000b	cc		 int	 3
  0000c	cc		 int	 3
  0000d	cc		 int	 3
__ehhandler$?RemoveRealItemWithSeparator@CKTBChartCtrl@@IAEXPBD0@Z:
  0000e	90		 npad	 1
  0000f	90		 npad	 1
  00010	8b 54 24 08	 mov	 edx, DWORD PTR [esp+8]
  00014	8d 42 0c	 lea	 eax, DWORD PTR [edx+12]
  00017	8b 4a f0	 mov	 ecx, DWORD PTR [edx-16]
  0001a	33 c8		 xor	 ecx, eax
  0001c	e8 00 00 00 00	 call	 @__security_check_cookie@4
  00021	b8 00 00 00 00	 mov	 eax, OFFSET __ehfuncinfo$?RemoveRealItemWithSeparator@CKTBChartCtrl@@IAEXPBD0@Z
  00026	e9 00 00 00 00	 jmp	 ___CxxFrameHandler3
text$x	ENDS
?RemoveRealItemWithSeparator@CKTBChartCtrl@@IAEXPBD0@Z ENDP ; CKTBChartCtrl::RemoveRealItemWithSeparator
; Function compile flags: /Ogtp
; File D:\git\src\IBK\IBK_DRFN\ProjSrc\SrcChartEx\ChartOCX\KTBChart\KTBChartReal.cpp
;	COMDAT ?AddRealItemWithSeparator@CKTBChartCtrl@@IAEHPBD0@Z
_TEXT	SEGMENT
_strShareName$ = -20					; size = 4
_strSharedData$ = -16					; size = 4
__$EHRec$ = -12						; size = 12
_szRealInfo$ = 8					; size = 4
_szSeparatorChar$ = 12					; size = 4
?AddRealItemWithSeparator@CKTBChartCtrl@@IAEHPBD0@Z PROC ; CKTBChartCtrl::AddRealItemWithSeparator, COMDAT
; _this$ = ecx

; 239  : {					

  00000	55		 push	 ebp
  00001	8b ec		 mov	 ebp, esp
  00003	6a ff		 push	 -1
  00005	68 00 00 00 00	 push	 __ehhandler$?AddRealItemWithSeparator@CKTBChartCtrl@@IAEHPBD0@Z
  0000a	64 a1 00 00 00
	00		 mov	 eax, DWORD PTR fs:0
  00010	50		 push	 eax
  00011	83 ec 08	 sub	 esp, 8
  00014	53		 push	 ebx
  00015	56		 push	 esi
  00016	57		 push	 edi
  00017	a1 00 00 00 00	 mov	 eax, DWORD PTR ___security_cookie
  0001c	33 c5		 xor	 eax, ebp
  0001e	50		 push	 eax
  0001f	8d 45 f4	 lea	 eax, DWORD PTR __$EHRec$[ebp]
  00022	64 a3 00 00 00
	00		 mov	 DWORD PTR fs:0, eax
  00028	8b f1		 mov	 esi, ecx

; 240  : 	// TODO: Add your dispatch handler code here
; 241  : 	if( !IsRunTimeMode() || !m_pPacketList || !szRealInfo || !szSeparatorChar)	return FALSE;

  0002a	e8 00 00 00 00	 call	 ?IsRunTimeMode@CKTBChartCtrl@@ABEHXZ ; CKTBChartCtrl::IsRunTimeMode
  0002f	85 c0		 test	 eax, eax
  00031	0f 84 c9 00 00
	00		 je	 $LN3@AddRealIte
  00037	83 be 3c 03 00
	00 00		 cmp	 DWORD PTR [esi+828], 0
  0003e	0f 84 bc 00 00
	00		 je	 $LN3@AddRealIte
  00044	8b 7d 08	 mov	 edi, DWORD PTR _szRealInfo$[ebp]
  00047	85 ff		 test	 edi, edi
  00049	0f 84 b1 00 00
	00		 je	 $LN3@AddRealIte
  0004f	8b 5d 0c	 mov	 ebx, DWORD PTR _szSeparatorChar$[ebp]
  00052	85 db		 test	 ebx, ebx
  00054	0f 84 a6 00 00
	00		 je	 $LN3@AddRealIte

; 242  : 	if( !*szRealInfo || !*szSeparatorChar)										return FALSE;

  0005a	80 3f 00	 cmp	 BYTE PTR [edi], 0
  0005d	0f 84 9d 00 00
	00		 je	 $LN3@AddRealIte
  00063	80 3b 00	 cmp	 BYTE PTR [ebx], 0
  00066	0f 84 94 00 00
	00		 je	 $LN3@AddRealIte

; 243  : 	if( !m_pIRealReceiver)														return FALSE;

  0006c	83 be 64 05 00
	00 00		 cmp	 DWORD PTR [esi+1380], 0
  00073	0f 84 87 00 00
	00		 je	 $LN3@AddRealIte

; 244  : 	// 1. Real Setting Info에 추가한다.
; 245  : 	CString strShareName, strSharedData;

  00079	8d 4d ec	 lea	 ecx, DWORD PTR _strShareName$[ebp]
  0007c	ff 15 00 00 00
	00		 call	 DWORD PTR __imp_??0?$CStringT@DV?$StrTraitMFC_DLL@DV?$ChTraitsCRT@D@ATL@@@@@ATL@@QAE@XZ
  00082	8d 4d f0	 lea	 ecx, DWORD PTR _strSharedData$[ebp]
  00085	c7 45 fc 00 00
	00 00		 mov	 DWORD PTR __$EHRec$[ebp+8], 0
  0008c	ff 15 00 00 00
	00		 call	 DWORD PTR __imp_??0?$CStringT@DV?$StrTraitMFC_DLL@DV?$ChTraitsCRT@D@ATL@@@@@ATL@@QAE@XZ

; 246  : 	// (2006/2/3 - Seung-Won, Bae) on Error, return FALSE
; 247  : 	if( !m_pIRealReceiver->AddRealSettingInfoRQ(m_strRQ, szRealInfo, &strShareName, &strSharedData, *szSeparatorChar)) return FALSE;

  00092	0f b6 03	 movzx	 eax, BYTE PTR [ebx]
  00095	8b 8e 64 05 00
	00		 mov	 ecx, DWORD PTR [esi+1380]
  0009b	50		 push	 eax
  0009c	8d 45 f0	 lea	 eax, DWORD PTR _strSharedData$[ebp]
  0009f	c6 45 fc 01	 mov	 BYTE PTR __$EHRec$[ebp+8], 1
  000a3	50		 push	 eax
  000a4	8b 11		 mov	 edx, DWORD PTR [ecx]
  000a6	8d 45 ec	 lea	 eax, DWORD PTR _strShareName$[ebp]
  000a9	50		 push	 eax
  000aa	57		 push	 edi
  000ab	ff b6 9c 05 00
	00		 push	 DWORD PTR [esi+1436]
  000b1	ff 52 3c	 call	 DWORD PTR [edx+60]
  000b4	85 c0		 test	 eax, eax
  000b6	75 04		 jne	 SHORT $LN7@AddRealIte
  000b8	33 f6		 xor	 esi, esi
  000ba	eb 1c		 jmp	 SHORT $LN12@AddRealIte
$LN7@AddRealIte:

; 248  : 
; 249  : 	// 2. Local Shared Info에 추가한다.
; 250  : 	if( m_plLocalShareInfoList) m_plLocalShareInfoList->AddLocalShareInfo( strShareName, 0, strSharedData);

  000bc	8b 8e 60 05 00
	00		 mov	 ecx, DWORD PTR [esi+1376]
  000c2	85 c9		 test	 ecx, ecx
  000c4	74 0d		 je	 SHORT $LN8@AddRealIte
  000c6	ff 75 f0	 push	 DWORD PTR _strSharedData$[ebp]
  000c9	6a 00		 push	 0
  000cb	ff 75 ec	 push	 DWORD PTR _strShareName$[ebp]
  000ce	e8 00 00 00 00	 call	 ?AddLocalShareInfo@CLocalShareInfoList@@QAEPAVCLocalShareInfo@@PBDH0@Z ; CLocalShareInfoList::AddLocalShareInfo
$LN8@AddRealIte:

; 251  : 
; 252  : 	return TRUE;

  000d3	be 01 00 00 00	 mov	 esi, 1
$LN12@AddRealIte:
  000d8	8d 4d f0	 lea	 ecx, DWORD PTR _strSharedData$[ebp]
  000db	ff 15 00 00 00
	00		 call	 DWORD PTR __imp_??1?$CStringT@DV?$StrTraitMFC_DLL@DV?$ChTraitsCRT@D@ATL@@@@@ATL@@QAE@XZ
  000e1	8d 4d ec	 lea	 ecx, DWORD PTR _strShareName$[ebp]
  000e4	ff 15 00 00 00
	00		 call	 DWORD PTR __imp_??1?$CStringT@DV?$StrTraitMFC_DLL@DV?$ChTraitsCRT@D@ATL@@@@@ATL@@QAE@XZ
  000ea	8b c6		 mov	 eax, esi

; 253  : }

  000ec	8b 4d f4	 mov	 ecx, DWORD PTR __$EHRec$[ebp]
  000ef	64 89 0d 00 00
	00 00		 mov	 DWORD PTR fs:0, ecx
  000f6	59		 pop	 ecx
  000f7	5f		 pop	 edi
  000f8	5e		 pop	 esi
  000f9	5b		 pop	 ebx
  000fa	8b e5		 mov	 esp, ebp
  000fc	5d		 pop	 ebp
  000fd	c2 08 00	 ret	 8
$LN3@AddRealIte:

; 240  : 	// TODO: Add your dispatch handler code here
; 241  : 	if( !IsRunTimeMode() || !m_pPacketList || !szRealInfo || !szSeparatorChar)	return FALSE;

  00100	33 c0		 xor	 eax, eax

; 253  : }

  00102	8b 4d f4	 mov	 ecx, DWORD PTR __$EHRec$[ebp]
  00105	64 89 0d 00 00
	00 00		 mov	 DWORD PTR fs:0, ecx
  0010c	59		 pop	 ecx
  0010d	5f		 pop	 edi
  0010e	5e		 pop	 esi
  0010f	5b		 pop	 ebx
  00110	8b e5		 mov	 esp, ebp
  00112	5d		 pop	 ebp
  00113	c2 08 00	 ret	 8
_TEXT	ENDS
;	COMDAT text$x
text$x	SEGMENT
__unwindfunclet$?AddRealItemWithSeparator@CKTBChartCtrl@@IAEHPBD0@Z$0:
  00000	8d 4d ec	 lea	 ecx, DWORD PTR _strShareName$[ebp]
  00003	ff 25 00 00 00
	00		 jmp	 DWORD PTR __imp_??1?$CStringT@DV?$StrTraitMFC_DLL@DV?$ChTraitsCRT@D@ATL@@@@@ATL@@QAE@XZ
__unwindfunclet$?AddRealItemWithSeparator@CKTBChartCtrl@@IAEHPBD0@Z$1:
  00009	8d 4d f0	 lea	 ecx, DWORD PTR _strSharedData$[ebp]
  0000c	ff 25 00 00 00
	00		 jmp	 DWORD PTR __imp_??1?$CStringT@DV?$StrTraitMFC_DLL@DV?$ChTraitsCRT@D@ATL@@@@@ATL@@QAE@XZ
  00012	cc		 int	 3
  00013	cc		 int	 3
  00014	cc		 int	 3
  00015	cc		 int	 3
  00016	cc		 int	 3
__ehhandler$?AddRealItemWithSeparator@CKTBChartCtrl@@IAEHPBD0@Z:
  00017	90		 npad	 1
  00018	90		 npad	 1
  00019	8b 54 24 08	 mov	 edx, DWORD PTR [esp+8]
  0001d	8d 42 0c	 lea	 eax, DWORD PTR [edx+12]
  00020	8b 4a e8	 mov	 ecx, DWORD PTR [edx-24]
  00023	33 c8		 xor	 ecx, eax
  00025	e8 00 00 00 00	 call	 @__security_check_cookie@4
  0002a	b8 00 00 00 00	 mov	 eax, OFFSET __ehfuncinfo$?AddRealItemWithSeparator@CKTBChartCtrl@@IAEHPBD0@Z
  0002f	e9 00 00 00 00	 jmp	 ___CxxFrameHandler3
text$x	ENDS
?AddRealItemWithSeparator@CKTBChartCtrl@@IAEHPBD0@Z ENDP ; CKTBChartCtrl::AddRealItemWithSeparator
; Function compile flags: /Ogtp
; File D:\git\src\IBK\IBK_DRFN\ProjSrc\SrcChartEx\ChartOCX\KTBChart\KTBChartReal.cpp
;	COMDAT ?GetRealSettingInfo@CKTBChartCtrl@@IAEPA_WXZ
_TEXT	SEGMENT
_strResult$ = -16					; size = 4
__$EHRec$ = -12						; size = 12
?GetRealSettingInfo@CKTBChartCtrl@@IAEPA_WXZ PROC	; CKTBChartCtrl::GetRealSettingInfo, COMDAT
; _this$ = ecx

; 305  : {

  00000	55		 push	 ebp
  00001	8b ec		 mov	 ebp, esp
  00003	6a ff		 push	 -1
  00005	68 00 00 00 00	 push	 __ehhandler$?GetRealSettingInfo@CKTBChartCtrl@@IAEPA_WXZ
  0000a	64 a1 00 00 00
	00		 mov	 eax, DWORD PTR fs:0
  00010	50		 push	 eax
  00011	51		 push	 ecx
  00012	56		 push	 esi
  00013	a1 00 00 00 00	 mov	 eax, DWORD PTR ___security_cookie
  00018	33 c5		 xor	 eax, ebp
  0001a	50		 push	 eax
  0001b	8d 45 f4	 lea	 eax, DWORD PTR __$EHRec$[ebp]
  0001e	64 a3 00 00 00
	00		 mov	 DWORD PTR fs:0, eax
  00024	8b f1		 mov	 esi, ecx

; 306  : 	CString strResult = _T("");

  00026	68 00 00 00 00	 push	 OFFSET ??_C@_00CNPNBAHC@@
  0002b	8d 4d f0	 lea	 ecx, DWORD PTR _strResult$[ebp]
  0002e	ff 15 00 00 00
	00		 call	 DWORD PTR __imp_??0?$CStringT@DV?$StrTraitMFC_DLL@DV?$ChTraitsCRT@D@ATL@@@@@ATL@@QAE@PBD@Z

; 307  : 	if( m_pIRealReceiver) m_pIRealReceiver->GetRealAdvisedInfo( strResult);

  00034	8b 8e 64 05 00
	00		 mov	 ecx, DWORD PTR [esi+1380]
  0003a	c7 45 fc 00 00
	00 00		 mov	 DWORD PTR __$EHRec$[ebp+8], 0
  00041	85 c9		 test	 ecx, ecx
  00043	74 09		 je	 SHORT $LN2@GetRealSet
  00045	8b 01		 mov	 eax, DWORD PTR [ecx]
  00047	8d 55 f0	 lea	 edx, DWORD PTR _strResult$[ebp]
  0004a	52		 push	 edx
  0004b	ff 50 20	 call	 DWORD PTR [eax+32]
$LN2@GetRealSet:

; 308  : 	return strResult.AllocSysString();

  0004e	8d 4d f0	 lea	 ecx, DWORD PTR _strResult$[ebp]
  00051	ff 15 00 00 00
	00		 call	 DWORD PTR __imp_?AllocSysString@?$CStringT@DV?$StrTraitMFC_DLL@DV?$ChTraitsCRT@D@ATL@@@@@ATL@@QBEPA_WXZ
  00057	8d 4d f0	 lea	 ecx, DWORD PTR _strResult$[ebp]
  0005a	8b f0		 mov	 esi, eax
  0005c	ff 15 00 00 00
	00		 call	 DWORD PTR __imp_??1?$CStringT@DV?$StrTraitMFC_DLL@DV?$ChTraitsCRT@D@ATL@@@@@ATL@@QAE@XZ
  00062	8b c6		 mov	 eax, esi

; 309  : }

  00064	8b 4d f4	 mov	 ecx, DWORD PTR __$EHRec$[ebp]
  00067	64 89 0d 00 00
	00 00		 mov	 DWORD PTR fs:0, ecx
  0006e	59		 pop	 ecx
  0006f	5e		 pop	 esi
  00070	8b e5		 mov	 esp, ebp
  00072	5d		 pop	 ebp
  00073	c3		 ret	 0
_TEXT	ENDS
;	COMDAT text$x
text$x	SEGMENT
__unwindfunclet$?GetRealSettingInfo@CKTBChartCtrl@@IAEPA_WXZ$0:
  00000	8d 4d f0	 lea	 ecx, DWORD PTR _strResult$[ebp]
  00003	ff 25 00 00 00
	00		 jmp	 DWORD PTR __imp_??1?$CStringT@DV?$StrTraitMFC_DLL@DV?$ChTraitsCRT@D@ATL@@@@@ATL@@QAE@XZ
  00009	cc		 int	 3
  0000a	cc		 int	 3
  0000b	cc		 int	 3
  0000c	cc		 int	 3
  0000d	cc		 int	 3
__ehhandler$?GetRealSettingInfo@CKTBChartCtrl@@IAEPA_WXZ:
  0000e	90		 npad	 1
  0000f	90		 npad	 1
  00010	8b 54 24 08	 mov	 edx, DWORD PTR [esp+8]
  00014	8d 42 0c	 lea	 eax, DWORD PTR [edx+12]
  00017	8b 4a f4	 mov	 ecx, DWORD PTR [edx-12]
  0001a	33 c8		 xor	 ecx, eax
  0001c	e8 00 00 00 00	 call	 @__security_check_cookie@4
  00021	b8 00 00 00 00	 mov	 eax, OFFSET __ehfuncinfo$?GetRealSettingInfo@CKTBChartCtrl@@IAEPA_WXZ
  00026	e9 00 00 00 00	 jmp	 ___CxxFrameHandler3
text$x	ENDS
?GetRealSettingInfo@CKTBChartCtrl@@IAEPA_WXZ ENDP	; CKTBChartCtrl::GetRealSettingInfo
; Function compile flags: /Ogtp
; File D:\git\src\IBK\IBK_DRFN\ProjSrc\SrcChartEx\ChartOCX\KTBChart\KTBChartReal.cpp
; File C:\Program Files (x86)\Microsoft Visual Studio\2019\Community\VC\Tools\MSVC\14.29.30133\atlmfc\include\cstringt.h
; File D:\git\src\IBK\IBK_DRFN\ProjSrc\SrcChartEx\ChartOCX\KTBChart\KTBChartReal.cpp
; File C:\Program Files (x86)\Microsoft Visual Studio\2019\Community\VC\Tools\MSVC\14.29.30133\atlmfc\include\cstringt.h
; File C:\Program Files (x86)\Microsoft Visual Studio\2019\Community\VC\Tools\MSVC\14.29.30133\atlmfc\include\atlsimpstr.h
; File C:\Program Files (x86)\Microsoft Visual Studio\2019\Community\VC\Tools\MSVC\14.29.30133\atlmfc\include\cstringt.h
; File D:\git\src\IBK\IBK_DRFN\ProjSrc\SrcChartEx\ChartOCX\KTBChart\KTBChartReal.cpp
;	COMDAT ?ResetRealListString@CKTBChartCtrl@@IAEHPBDH@Z
_TEXT	SEGMENT
$T2 = -16						; size = 4
__$EHRec$ = -12						; size = 12
$T3 = 8							; size = 4
_p_szRealList$ = 8					; size = 4
_p_bAdviseNow$ = 12					; size = 4
?ResetRealListString@CKTBChartCtrl@@IAEHPBDH@Z PROC	; CKTBChartCtrl::ResetRealListString, COMDAT
; _this$ = ecx

; 52   : {

  00000	55		 push	 ebp
  00001	8b ec		 mov	 ebp, esp
  00003	6a ff		 push	 -1
  00005	68 00 00 00 00	 push	 __ehhandler$?ResetRealListString@CKTBChartCtrl@@IAEHPBDH@Z
  0000a	64 a1 00 00 00
	00		 mov	 eax, DWORD PTR fs:0
  00010	50		 push	 eax
  00011	51		 push	 ecx
  00012	56		 push	 esi
  00013	57		 push	 edi
  00014	a1 00 00 00 00	 mov	 eax, DWORD PTR ___security_cookie
  00019	33 c5		 xor	 eax, ebp
  0001b	50		 push	 eax
  0001c	8d 45 f4	 lea	 eax, DWORD PTR __$EHRec$[ebp]
  0001f	64 a3 00 00 00
	00		 mov	 DWORD PTR fs:0, eax
  00025	8b f1		 mov	 esi, ecx

; 53   : 	// TODO: Add your dispatch handler code here
; 54   : 
; 55   : 	_ML_TEST_NOT_USED();

  00027	6a 00		 push	 0
  00029	6a 00		 push	 0
  0002b	68 00 00 00 00	 push	 OFFSET ??_C@_0GD@FLBGJKHJ@I?5did?5not?5prepare?5this?5operatio@
  00030	c7 45 f0 00 00
	00 00		 mov	 DWORD PTR $T2[ebp], 0
  00037	e8 00 00 00 00	 call	 ?AfxMessageBox@@YGHPBDII@Z ; AfxMessageBox

; 56   : 	// 1. Reset Real Setting String
; 57   : 	m_strRealList = p_szRealList;

  0003c	ff 75 08	 push	 DWORD PTR _p_szRealList$[ebp]
  0003f	8d 8e 8c 02 00
	00		 lea	 ecx, DWORD PTR [esi+652]
  00045	ff 15 00 00 00
	00		 call	 DWORD PTR __imp_??4?$CStringT@DV?$StrTraitMFC_DLL@DV?$ChTraitsCRT@D@ATL@@@@@ATL@@QAEAAV01@PBD@Z

; 77   : 	BoundPropertyChanged( dispidStrRealList);

  0004b	6a 1e		 push	 30			; 0000001eH
  0004d	8b ce		 mov	 ecx, esi
  0004f	e8 00 00 00 00	 call	 ?BoundPropertyChanged@COleControl@@QAEXJ@Z ; COleControl::BoundPropertyChanged

; 78   : 
; 79   : 	_ML_TEST_NOT_USED();

  00054	6a 00		 push	 0
  00056	6a 00		 push	 0
  00058	68 00 00 00 00	 push	 OFFSET ??_C@_0GD@FLBGJKHJ@I?5did?5not?5prepare?5this?5operatio@
  0005d	e8 00 00 00 00	 call	 ?AfxMessageBox@@YGHPBDII@Z ; AfxMessageBox

; 80   : 	SetModifiedFlag();

  00062	6a 01		 push	 1
  00064	8b ce		 mov	 ecx, esi
  00066	e8 00 00 00 00	 call	 ?SetModifiedFlag@COleControl@@QAEXH@Z ; COleControl::SetModifiedFlag

; 81   : 
; 82   : 	// (2005/3/2 - Seung-Won, Bae) Update Real Setting Info
; 83   : 	// (2006/2/3 - Seung-Won, Bae) Show Real Setting Error Message
; 84   : 	if( m_pIRealReceiver) if( !m_pIRealReceiver->ResetRealSettingInfo( m_strRealList))

  0006b	8b 8e 64 05 00
	00		 mov	 ecx, DWORD PTR [esi+1380]
  00071	85 c9		 test	 ecx, ecx
  00073	74 6b		 je	 SHORT $LN30@ResetRealL
  00075	8b 01		 mov	 eax, DWORD PTR [ecx]
  00077	ff b6 8c 02 00
	00		 push	 DWORD PTR [esi+652]
  0007d	ff 50 10	 call	 DWORD PTR [eax+16]
  00080	85 c0		 test	 eax, eax
  00082	75 5c		 jne	 SHORT $LN30@ResetRealL
; File C:\Program Files (x86)\Microsoft Visual Studio\2019\Community\VC\Tools\MSVC\14.29.30133\atlmfc\include\cstringt.h

; 2412 : 		CStringT strResult( str2.GetManager() );

  00084	8d 8e 8c 02 00
	00		 lea	 ecx, DWORD PTR [esi+652]
; File D:\git\src\IBK\IBK_DRFN\ProjSrc\SrcChartEx\ChartOCX\KTBChart\KTBChartReal.cpp

; 86   : 		AfxMessageBox( "Error in real list string setting!\r\nPlease, check string again!\r\n\r\n" + m_strRealList);

  0008a	89 45 fc	 mov	 DWORD PTR __$EHRec$[ebp+8], eax
; File C:\Program Files (x86)\Microsoft Visual Studio\2019\Community\VC\Tools\MSVC\14.29.30133\atlmfc\include\cstringt.h

; 2412 : 		CStringT strResult( str2.GetManager() );

  0008d	ff 15 00 00 00
	00		 call	 DWORD PTR __imp_?GetManager@?$CStringT@DV?$StrTraitMFC_DLL@DV?$ChTraitsCRT@D@ATL@@@@@ATL@@QBEPAUIAtlStringMgr@2@XZ
  00093	50		 push	 eax
  00094	8d 4d 08	 lea	 ecx, DWORD PTR $T3[ebp]
  00097	ff 15 00 00 00
	00		 call	 DWORD PTR __imp_??0?$CStringT@DV?$StrTraitMFC_DLL@DV?$ChTraitsCRT@D@ATL@@@@@ATL@@QAE@PAUIAtlStringMgr@1@@Z
; File C:\Program Files (x86)\Microsoft Visual Studio\2019\Community\VC\Tools\MSVC\14.29.30133\atlmfc\include\atlsimpstr.h

; 519  : 		return( GetData()->nDataLength );

  0009d	8b 86 8c 02 00
	00		 mov	 eax, DWORD PTR [esi+652]
; File C:\Program Files (x86)\Microsoft Visual Studio\2019\Community\VC\Tools\MSVC\14.29.30133\atlmfc\include\cstringt.h

; 2416 : 		return( strResult );

  000a3	c7 45 f0 01 00
	00 00		 mov	 DWORD PTR $T2[ebp], 1
  000aa	ff 70 f4	 push	 DWORD PTR [eax-12]
  000ad	50		 push	 eax
  000ae	6a 43		 push	 67			; 00000043H
  000b0	8d 45 08	 lea	 eax, DWORD PTR $T3[ebp]
  000b3	68 00 00 00 00	 push	 OFFSET ??_C@_0EE@MMAPKDIE@Error?5in?5real?5list?5string?5setti@
  000b8	50		 push	 eax
  000b9	ff 15 00 00 00
	00		 call	 DWORD PTR __imp_?Concatenate@?$CSimpleStringT@D$00@ATL@@KAXAAV12@PBDH1H@Z
  000bf	83 c4 14	 add	 esp, 20			; 00000014H
; File D:\git\src\IBK\IBK_DRFN\ProjSrc\SrcChartEx\ChartOCX\KTBChart\KTBChartReal.cpp

; 86   : 		AfxMessageBox( "Error in real list string setting!\r\nPlease, check string again!\r\n\r\n" + m_strRealList);

  000c2	6a 00		 push	 0
  000c4	6a 00		 push	 0
  000c6	ff 75 08	 push	 DWORD PTR $T3[ebp]
  000c9	e8 00 00 00 00	 call	 ?AfxMessageBox@@YGHPBDII@Z ; AfxMessageBox
  000ce	8d 4d 08	 lea	 ecx, DWORD PTR $T3[ebp]
  000d1	c7 45 fc ff ff
	ff ff		 mov	 DWORD PTR __$EHRec$[ebp+8], -1
  000d8	ff 15 00 00 00
	00		 call	 DWORD PTR __imp_??1?$CStringT@DV?$StrTraitMFC_DLL@DV?$ChTraitsCRT@D@ATL@@@@@ATL@@QAE@XZ

; 87   : 		return;

  000de	eb 21		 jmp	 SHORT $LN7@ResetRealL
$LN30@ResetRealL:

; 88   : 	}
; 89   : 
; 90   : 	// (2005/9/29 - Seung-Won, Bae) Log the New Real Setting
; 91   : 	if( m_bInLogging && m_pAddInManager) m_pAddInManager->OnAddInToolCommand( EAI_LOG_REAL_SETTING_CHANGED, m_strRealList);

  000e0	83 be 6c 05 00
	00 00		 cmp	 DWORD PTR [esi+1388], 0
  000e7	74 18		 je	 SHORT $LN7@ResetRealL
  000e9	8b 8e cc 04 00
	00		 mov	 ecx, DWORD PTR [esi+1228]
  000ef	85 c9		 test	 ecx, ecx
  000f1	74 0e		 je	 SHORT $LN7@ResetRealL
  000f3	ff b6 8c 02 00
	00		 push	 DWORD PTR [esi+652]
  000f9	6a 11		 push	 17			; 00000011H
  000fb	ff 15 00 00 00
	00		 call	 DWORD PTR __imp_?OnAddInToolCommand@CAddInManager@@QAEHW4EAICommandType@@PBD@Z
$LN7@ResetRealL:

; 58   : 
; 59   : 	// 2. Update Real Setting Info
; 60   : 	OnstrRealListChanged();
; 61   : 
; 62   : 	// 3. Advise Now
; 63   : 	if( p_bAdviseNow && m_pIRealReceiver)

  00101	83 7d 0c 00	 cmp	 DWORD PTR _p_bAdviseNow$[ebp], 0
  00105	74 1e		 je	 SHORT $LN31@ResetRealL
  00107	8b 8e 64 05 00
	00		 mov	 ecx, DWORD PTR [esi+1380]
  0010d	85 c9		 test	 ecx, ecx
  0010f	74 14		 je	 SHORT $LN31@ResetRealL

; 64   : 	{
; 65   : 		m_pIRealReceiver->SetRealAdvise( FALSE);

  00111	8b 01		 mov	 eax, DWORD PTR [ecx]
  00113	6a 00		 push	 0
  00115	ff 50 1c	 call	 DWORD PTR [eax+28]

; 66   : 		m_pIRealReceiver->SetRealAdvise( TRUE);

  00118	8b 8e 64 05 00
	00		 mov	 ecx, DWORD PTR [esi+1380]
  0011e	6a 01		 push	 1
  00120	8b 01		 mov	 eax, DWORD PTR [ecx]
  00122	ff 50 1c	 call	 DWORD PTR [eax+28]
$LN31@ResetRealL:

; 67   : 	}
; 68   : 
; 69   : 	return TRUE;
; 70   : }

  00125	b8 01 00 00 00	 mov	 eax, 1
  0012a	8b 4d f4	 mov	 ecx, DWORD PTR __$EHRec$[ebp]
  0012d	64 89 0d 00 00
	00 00		 mov	 DWORD PTR fs:0, ecx
  00134	59		 pop	 ecx
  00135	5f		 pop	 edi
  00136	5e		 pop	 esi
  00137	8b e5		 mov	 esp, ebp
  00139	5d		 pop	 ebp
  0013a	c2 08 00	 ret	 8
_TEXT	ENDS
;	COMDAT text$x
text$x	SEGMENT
__unwindfunclet$?ResetRealListString@CKTBChartCtrl@@IAEHPBDH@Z$1:
  00000	8b 45 f0	 mov	 eax, DWORD PTR $T2[ebp]
  00003	83 e0 01	 and	 eax, 1
  00006	0f 84 0d 00 00
	00		 je	 $LN15@ResetRealL
  0000c	83 65 f0 fe	 and	 DWORD PTR $T2[ebp], -2	; fffffffeH
  00010	8d 4d 08	 lea	 ecx, DWORD PTR $T3[ebp]
  00013	ff 25 00 00 00
	00		 jmp	 DWORD PTR __imp_??1?$CStringT@DV?$StrTraitMFC_DLL@DV?$ChTraitsCRT@D@ATL@@@@@ATL@@QAE@XZ
$LN15@ResetRealL:
  00019	c3		 ret	 0
  0001a	cc		 int	 3
  0001b	cc		 int	 3
  0001c	cc		 int	 3
  0001d	cc		 int	 3
  0001e	cc		 int	 3
__ehhandler$?ResetRealListString@CKTBChartCtrl@@IAEHPBDH@Z:
  0001f	90		 npad	 1
  00020	90		 npad	 1
  00021	8b 54 24 08	 mov	 edx, DWORD PTR [esp+8]
  00025	8d 42 0c	 lea	 eax, DWORD PTR [edx+12]
  00028	8b 4a f0	 mov	 ecx, DWORD PTR [edx-16]
  0002b	33 c8		 xor	 ecx, eax
  0002d	e8 00 00 00 00	 call	 @__security_check_cookie@4
  00032	b8 00 00 00 00	 mov	 eax, OFFSET __ehfuncinfo$?ResetRealListString@CKTBChartCtrl@@IAEHPBDH@Z
  00037	e9 00 00 00 00	 jmp	 ___CxxFrameHandler3
text$x	ENDS
?ResetRealListString@CKTBChartCtrl@@IAEHPBDH@Z ENDP	; CKTBChartCtrl::ResetRealListString
; Function compile flags: /Ogtp
; File D:\git\src\IBK\IBK_DRFN\ProjSrc\SrcChartEx\ChartOCX\KTBChart\KTBChartReal.cpp
; File C:\Program Files (x86)\Microsoft Visual Studio\2019\Community\VC\Tools\MSVC\14.29.30133\atlmfc\include\atlsimpstr.h
; File D:\git\src\IBK\IBK_DRFN\ProjSrc\SrcChartEx\ChartOCX\KTBChart\KTBChartReal.cpp
;	COMDAT ?RemoveRealItem@CKTBChartCtrl@@IAEXPBD@Z
_TEXT	SEGMENT
_strShareName$2 = -16					; size = 4
__$EHRec$ = -12						; size = 12
_szRealInfo$ = 8					; size = 4
?RemoveRealItem@CKTBChartCtrl@@IAEXPBD@Z PROC		; CKTBChartCtrl::RemoveRealItem, COMDAT
; _this$ = ecx

; 260  : {

  00000	55		 push	 ebp
  00001	8b ec		 mov	 ebp, esp
  00003	6a ff		 push	 -1
  00005	68 00 00 00 00	 push	 __ehhandler$?RemoveRealItem@CKTBChartCtrl@@IAEXPBD@Z
  0000a	64 a1 00 00 00
	00		 mov	 eax, DWORD PTR fs:0
  00010	50		 push	 eax
  00011	51		 push	 ecx
  00012	56		 push	 esi
  00013	57		 push	 edi
  00014	a1 00 00 00 00	 mov	 eax, DWORD PTR ___security_cookie
  00019	33 c5		 xor	 eax, ebp
  0001b	50		 push	 eax
  0001c	8d 45 f4	 lea	 eax, DWORD PTR __$EHRec$[ebp]
  0001f	64 a3 00 00 00
	00		 mov	 DWORD PTR fs:0, eax
  00025	8b f1		 mov	 esi, ecx

; 269  : 	if( !IsRunTimeMode() || !m_pPacketList)	return;

  00027	e8 00 00 00 00	 call	 ?IsRunTimeMode@CKTBChartCtrl@@ABEHXZ ; CKTBChartCtrl::IsRunTimeMode
  0002c	85 c0		 test	 eax, eax
  0002e	74 68		 je	 SHORT $LN7@RemoveReal
  00030	83 be 3c 03 00
	00 00		 cmp	 DWORD PTR [esi+828], 0
  00037	74 5f		 je	 SHORT $LN7@RemoveReal

; 270  : 	if( !szRealInfo || !*szRealInfo)		return;

  00039	8b 7d 08	 mov	 edi, DWORD PTR _szRealInfo$[ebp]
  0003c	85 ff		 test	 edi, edi
  0003e	74 58		 je	 SHORT $LN7@RemoveReal
  00040	80 3f 00	 cmp	 BYTE PTR [edi], 0
  00043	74 53		 je	 SHORT $LN7@RemoveReal

; 271  : 	if( !m_pIRealReceiver)					return;

  00045	83 be 64 05 00
	00 00		 cmp	 DWORD PTR [esi+1380], 0
  0004c	74 4a		 je	 SHORT $LN7@RemoveReal

; 272  : 
; 273  : 	// 1. Real Setting Info에 추가한다.
; 274  : 	CString strShareName;

  0004e	8d 4d f0	 lea	 ecx, DWORD PTR _strShareName$2[ebp]
  00051	ff 15 00 00 00
	00		 call	 DWORD PTR __imp_??0?$CStringT@DV?$StrTraitMFC_DLL@DV?$ChTraitsCRT@D@ATL@@@@@ATL@@QAE@XZ

; 275  : 	m_pIRealReceiver->RemoveRealSettingInfoRQ(m_strRQ, szRealInfo, &strShareName, *szSeparatorChar);

  00057	8b 8e 64 05 00
	00		 mov	 ecx, DWORD PTR [esi+1380]
  0005d	8d 55 f0	 lea	 edx, DWORD PTR _strShareName$2[ebp]
  00060	6a 2e		 push	 46			; 0000002eH
  00062	52		 push	 edx
  00063	57		 push	 edi
  00064	8b 01		 mov	 eax, DWORD PTR [ecx]
  00066	ff b6 9c 05 00
	00		 push	 DWORD PTR [esi+1436]
  0006c	c7 45 fc 00 00
	00 00		 mov	 DWORD PTR __$EHRec$[ebp+8], 0
  00073	ff 50 40	 call	 DWORD PTR [eax+64]
; File C:\Program Files (x86)\Microsoft Visual Studio\2019\Community\VC\Tools\MSVC\14.29.30133\atlmfc\include\atlsimpstr.h

; 533  : 		return( GetLength() == 0 );

  00076	8b 45 f0	 mov	 eax, DWORD PTR _strShareName$2[ebp]
  00079	83 78 f4 00	 cmp	 DWORD PTR [eax-12], 0
; File D:\git\src\IBK\IBK_DRFN\ProjSrc\SrcChartEx\ChartOCX\KTBChart\KTBChartReal.cpp

; 278  : 	if( !strShareName.IsEmpty() && m_plLocalShareInfoList) m_plLocalShareInfoList->RemoveLocalShareInfo( strShareName);

  0007d	74 10		 je	 SHORT $LN9@RemoveReal
  0007f	8b 8e 60 05 00
	00		 mov	 ecx, DWORD PTR [esi+1376]
  00085	85 c9		 test	 ecx, ecx
  00087	74 06		 je	 SHORT $LN9@RemoveReal
  00089	50		 push	 eax
  0008a	e8 00 00 00 00	 call	 ?RemoveLocalShareInfo@CLocalShareInfoList@@QAEHPBD@Z ; CLocalShareInfoList::RemoveLocalShareInfo
$LN9@RemoveReal:

; 279  : }

  0008f	8d 4d f0	 lea	 ecx, DWORD PTR _strShareName$2[ebp]
  00092	ff 15 00 00 00
	00		 call	 DWORD PTR __imp_??1?$CStringT@DV?$StrTraitMFC_DLL@DV?$ChTraitsCRT@D@ATL@@@@@ATL@@QAE@XZ
$LN7@RemoveReal:

; 261  : 	// TODO: Add your dispatch handler code here
; 262  : 	RemoveRealItemWithSeparator( szRealInfo, ".");
; 263  : }

  00098	8b 4d f4	 mov	 ecx, DWORD PTR __$EHRec$[ebp]
  0009b	64 89 0d 00 00
	00 00		 mov	 DWORD PTR fs:0, ecx
  000a2	59		 pop	 ecx
  000a3	5f		 pop	 edi
  000a4	5e		 pop	 esi
  000a5	8b e5		 mov	 esp, ebp
  000a7	5d		 pop	 ebp
  000a8	c2 04 00	 ret	 4
_TEXT	ENDS
;	COMDAT text$x
text$x	SEGMENT
__unwindfunclet$?RemoveRealItem@CKTBChartCtrl@@IAEXPBD@Z$0:
  00000	8d 4d f0	 lea	 ecx, DWORD PTR _strShareName$2[ebp]
  00003	ff 25 00 00 00
	00		 jmp	 DWORD PTR __imp_??1?$CStringT@DV?$StrTraitMFC_DLL@DV?$ChTraitsCRT@D@ATL@@@@@ATL@@QAE@XZ
  00009	cc		 int	 3
  0000a	cc		 int	 3
  0000b	cc		 int	 3
  0000c	cc		 int	 3
  0000d	cc		 int	 3
__ehhandler$?RemoveRealItem@CKTBChartCtrl@@IAEXPBD@Z:
  0000e	90		 npad	 1
  0000f	90		 npad	 1
  00010	8b 54 24 08	 mov	 edx, DWORD PTR [esp+8]
  00014	8d 42 0c	 lea	 eax, DWORD PTR [edx+12]
  00017	8b 4a f0	 mov	 ecx, DWORD PTR [edx-16]
  0001a	33 c8		 xor	 ecx, eax
  0001c	e8 00 00 00 00	 call	 @__security_check_cookie@4
  00021	b8 00 00 00 00	 mov	 eax, OFFSET __ehfuncinfo$?RemoveRealItem@CKTBChartCtrl@@IAEXPBD@Z
  00026	e9 00 00 00 00	 jmp	 ___CxxFrameHandler3
text$x	ENDS
?RemoveRealItem@CKTBChartCtrl@@IAEXPBD@Z ENDP		; CKTBChartCtrl::RemoveRealItem
; Function compile flags: /Ogtp
; File D:\git\src\IBK\IBK_DRFN\ProjSrc\SrcChartEx\ChartOCX\KTBChart\KTBChartReal.cpp
;	COMDAT ?AddRealItem@CKTBChartCtrl@@IAEHPBD@Z
_TEXT	SEGMENT
_strShareName$2 = -20					; size = 4
_strSharedData$3 = -16					; size = 4
__$EHRec$ = -12						; size = 12
_szRealInfo$ = 8					; size = 4
?AddRealItem@CKTBChartCtrl@@IAEHPBD@Z PROC		; CKTBChartCtrl::AddRealItem, COMDAT
; _this$ = ecx

; 232  : {

  00000	55		 push	 ebp
  00001	8b ec		 mov	 ebp, esp
  00003	6a ff		 push	 -1
  00005	68 00 00 00 00	 push	 __ehhandler$?AddRealItem@CKTBChartCtrl@@IAEHPBD@Z
  0000a	64 a1 00 00 00
	00		 mov	 eax, DWORD PTR fs:0
  00010	50		 push	 eax
  00011	83 ec 08	 sub	 esp, 8
  00014	56		 push	 esi
  00015	57		 push	 edi
  00016	a1 00 00 00 00	 mov	 eax, DWORD PTR ___security_cookie
  0001b	33 c5		 xor	 eax, ebp
  0001d	50		 push	 eax
  0001e	8d 45 f4	 lea	 eax, DWORD PTR __$EHRec$[ebp]
  00021	64 a3 00 00 00
	00		 mov	 DWORD PTR fs:0, eax
  00027	8b f1		 mov	 esi, ecx

; 241  : 	if( !IsRunTimeMode() || !m_pPacketList || !szRealInfo || !szSeparatorChar)	return FALSE;

  00029	e8 00 00 00 00	 call	 ?IsRunTimeMode@CKTBChartCtrl@@ABEHXZ ; CKTBChartCtrl::IsRunTimeMode
  0002e	85 c0		 test	 eax, eax
  00030	74 6d		 je	 SHORT $LN5@AddRealIte
  00032	83 be 3c 03 00
	00 00		 cmp	 DWORD PTR [esi+828], 0
  00039	74 64		 je	 SHORT $LN5@AddRealIte
  0003b	8b 7d 08	 mov	 edi, DWORD PTR _szRealInfo$[ebp]
  0003e	85 ff		 test	 edi, edi
  00040	74 5d		 je	 SHORT $LN5@AddRealIte

; 242  : 	if( !*szRealInfo || !*szSeparatorChar)										return FALSE;

  00042	80 3f 00	 cmp	 BYTE PTR [edi], 0
  00045	74 58		 je	 SHORT $LN5@AddRealIte

; 243  : 	if( !m_pIRealReceiver)														return FALSE;

  00047	83 be 64 05 00
	00 00		 cmp	 DWORD PTR [esi+1380], 0
  0004e	74 4f		 je	 SHORT $LN5@AddRealIte

; 244  : 	// 1. Real Setting Info에 추가한다.
; 245  : 	CString strShareName, strSharedData;

  00050	8d 4d ec	 lea	 ecx, DWORD PTR _strShareName$2[ebp]
  00053	ff 15 00 00 00
	00		 call	 DWORD PTR __imp_??0?$CStringT@DV?$StrTraitMFC_DLL@DV?$ChTraitsCRT@D@ATL@@@@@ATL@@QAE@XZ
  00059	8d 4d f0	 lea	 ecx, DWORD PTR _strSharedData$3[ebp]
  0005c	c7 45 fc 00 00
	00 00		 mov	 DWORD PTR __$EHRec$[ebp+8], 0
  00063	ff 15 00 00 00
	00		 call	 DWORD PTR __imp_??0?$CStringT@DV?$StrTraitMFC_DLL@DV?$ChTraitsCRT@D@ATL@@@@@ATL@@QAE@XZ

; 246  : 	// (2006/2/3 - Seung-Won, Bae) on Error, return FALSE
; 247  : 	if( !m_pIRealReceiver->AddRealSettingInfoRQ(m_strRQ, szRealInfo, &strShareName, &strSharedData, *szSeparatorChar)) return FALSE;

  00069	8b 8e 64 05 00
	00		 mov	 ecx, DWORD PTR [esi+1380]
  0006f	8d 55 f0	 lea	 edx, DWORD PTR _strSharedData$3[ebp]
  00072	6a 2e		 push	 46			; 0000002eH
  00074	52		 push	 edx
  00075	8d 55 ec	 lea	 edx, DWORD PTR _strShareName$2[ebp]
  00078	c6 45 fc 01	 mov	 BYTE PTR __$EHRec$[ebp+8], 1
  0007c	8b 01		 mov	 eax, DWORD PTR [ecx]
  0007e	52		 push	 edx
  0007f	57		 push	 edi
  00080	ff b6 9c 05 00
	00		 push	 DWORD PTR [esi+1436]
  00086	ff 50 3c	 call	 DWORD PTR [eax+60]
  00089	85 c0		 test	 eax, eax
  0008b	75 27		 jne	 SHORT $LN9@AddRealIte
  0008d	8d 4d f0	 lea	 ecx, DWORD PTR _strSharedData$3[ebp]
  00090	ff 15 00 00 00
	00		 call	 DWORD PTR __imp_??1?$CStringT@DV?$StrTraitMFC_DLL@DV?$ChTraitsCRT@D@ATL@@@@@ATL@@QAE@XZ
  00096	8d 4d ec	 lea	 ecx, DWORD PTR _strShareName$2[ebp]
  00099	ff 15 00 00 00
	00		 call	 DWORD PTR __imp_??1?$CStringT@DV?$StrTraitMFC_DLL@DV?$ChTraitsCRT@D@ATL@@@@@ATL@@QAE@XZ
$LN5@AddRealIte:

; 235  : }

  0009f	33 c0		 xor	 eax, eax
  000a1	8b 4d f4	 mov	 ecx, DWORD PTR __$EHRec$[ebp]
  000a4	64 89 0d 00 00
	00 00		 mov	 DWORD PTR fs:0, ecx
  000ab	59		 pop	 ecx
  000ac	5f		 pop	 edi
  000ad	5e		 pop	 esi
  000ae	8b e5		 mov	 esp, ebp
  000b0	5d		 pop	 ebp
  000b1	c2 04 00	 ret	 4
$LN9@AddRealIte:

; 250  : 	if( m_plLocalShareInfoList) m_plLocalShareInfoList->AddLocalShareInfo( strShareName, 0, strSharedData);

  000b4	8b 8e 60 05 00
	00		 mov	 ecx, DWORD PTR [esi+1376]
  000ba	85 c9		 test	 ecx, ecx
  000bc	74 0d		 je	 SHORT $LN10@AddRealIte
  000be	ff 75 f0	 push	 DWORD PTR _strSharedData$3[ebp]
  000c1	6a 00		 push	 0
  000c3	ff 75 ec	 push	 DWORD PTR _strShareName$2[ebp]
  000c6	e8 00 00 00 00	 call	 ?AddLocalShareInfo@CLocalShareInfoList@@QAEPAVCLocalShareInfo@@PBDH0@Z ; CLocalShareInfoList::AddLocalShareInfo
$LN10@AddRealIte:

; 251  : 
; 252  : 	return TRUE;

  000cb	8d 4d f0	 lea	 ecx, DWORD PTR _strSharedData$3[ebp]
  000ce	ff 15 00 00 00
	00		 call	 DWORD PTR __imp_??1?$CStringT@DV?$StrTraitMFC_DLL@DV?$ChTraitsCRT@D@ATL@@@@@ATL@@QAE@XZ
  000d4	8d 4d ec	 lea	 ecx, DWORD PTR _strShareName$2[ebp]
  000d7	ff 15 00 00 00
	00		 call	 DWORD PTR __imp_??1?$CStringT@DV?$StrTraitMFC_DLL@DV?$ChTraitsCRT@D@ATL@@@@@ATL@@QAE@XZ

; 233  : 	// TODO: Add your dispatch handler code here
; 234  : 	return AddRealItemWithSeparator( szRealInfo, ".");

  000dd	b8 01 00 00 00	 mov	 eax, 1

; 235  : }

  000e2	8b 4d f4	 mov	 ecx, DWORD PTR __$EHRec$[ebp]
  000e5	64 89 0d 00 00
	00 00		 mov	 DWORD PTR fs:0, ecx
  000ec	59		 pop	 ecx
  000ed	5f		 pop	 edi
  000ee	5e		 pop	 esi
  000ef	8b e5		 mov	 esp, ebp
  000f1	5d		 pop	 ebp
  000f2	c2 04 00	 ret	 4
_TEXT	ENDS
;	COMDAT text$x
text$x	SEGMENT
__unwindfunclet$?AddRealItem@CKTBChartCtrl@@IAEHPBD@Z$0:
  00000	8d 4d ec	 lea	 ecx, DWORD PTR _strShareName$2[ebp]
  00003	ff 25 00 00 00
	00		 jmp	 DWORD PTR __imp_??1?$CStringT@DV?$StrTraitMFC_DLL@DV?$ChTraitsCRT@D@ATL@@@@@ATL@@QAE@XZ
__unwindfunclet$?AddRealItem@CKTBChartCtrl@@IAEHPBD@Z$1:
  00009	8d 4d f0	 lea	 ecx, DWORD PTR _strSharedData$3[ebp]
  0000c	ff 25 00 00 00
	00		 jmp	 DWORD PTR __imp_??1?$CStringT@DV?$StrTraitMFC_DLL@DV?$ChTraitsCRT@D@ATL@@@@@ATL@@QAE@XZ
  00012	cc		 int	 3
  00013	cc		 int	 3
  00014	cc		 int	 3
  00015	cc		 int	 3
  00016	cc		 int	 3
__ehhandler$?AddRealItem@CKTBChartCtrl@@IAEHPBD@Z:
  00017	90		 npad	 1
  00018	90		 npad	 1
  00019	8b 54 24 08	 mov	 edx, DWORD PTR [esp+8]
  0001d	8d 42 0c	 lea	 eax, DWORD PTR [edx+12]
  00020	8b 4a ec	 mov	 ecx, DWORD PTR [edx-20]
  00023	33 c8		 xor	 ecx, eax
  00025	e8 00 00 00 00	 call	 @__security_check_cookie@4
  0002a	b8 00 00 00 00	 mov	 eax, OFFSET __ehfuncinfo$?AddRealItem@CKTBChartCtrl@@IAEHPBD@Z
  0002f	e9 00 00 00 00	 jmp	 ___CxxFrameHandler3
text$x	ENDS
?AddRealItem@CKTBChartCtrl@@IAEHPBD@Z ENDP		; CKTBChartCtrl::AddRealItem
; Function compile flags: /Ogtp
; File D:\git\src\IBK\IBK_DRFN\ProjSrc\SrcChartEx\ChartOCX\KTBChart\KTBChartReal.cpp
;	COMDAT ?SetRealData@CKTBChartCtrl@@IAEXPBDNF@Z
_TEXT	SEGMENT
_nRemovePacketDataCount$ = -16				; size = 4
__$EHRec$ = -12						; size = 12
_strPacketName$ = 8					; size = 4
_strPacketName2$ = 8					; size = 4
_dData$ = 12						; size = 8
_nOption$ = 20						; size = 2
?SetRealData@CKTBChartCtrl@@IAEXPBDNF@Z PROC		; CKTBChartCtrl::SetRealData, COMDAT
; _this$ = ecx

; 147  : {

  00000	55		 push	 ebp
  00001	8b ec		 mov	 ebp, esp
  00003	6a ff		 push	 -1
  00005	68 00 00 00 00	 push	 __ehhandler$?SetRealData@CKTBChartCtrl@@IAEXPBDNF@Z
  0000a	64 a1 00 00 00
	00		 mov	 eax, DWORD PTR fs:0
  00010	50		 push	 eax
  00011	51		 push	 ecx
  00012	56		 push	 esi
  00013	57		 push	 edi
  00014	a1 00 00 00 00	 mov	 eax, DWORD PTR ___security_cookie
  00019	33 c5		 xor	 eax, ebp
  0001b	50		 push	 eax
  0001c	8d 45 f4	 lea	 eax, DWORD PTR __$EHRec$[ebp]
  0001f	64 a3 00 00 00
	00		 mov	 DWORD PTR fs:0, eax
  00025	8b f1		 mov	 esi, ecx

; 148  : 	if(!m_pPacketList)

  00027	83 be 3c 03 00
	00 00		 cmp	 DWORD PTR [esi+828], 0
  0002e	0f 84 e5 00 00
	00		 je	 $LN1@SetRealDat

; 149  : 		return;
; 150  : 
; 151  : 	CString strPacketName = _STOM0( strPacketName2);

  00034	6a 00		 push	 0
  00036	ff 75 08	 push	 DWORD PTR _strPacketName2$[ebp]
  00039	b9 00 00 00 00	 mov	 ecx, OFFSET ?g_iMetaTable@@3VIMetaTable@@A ; g_iMetaTable
  0003e	6a 00		 push	 0
  00040	ff b6 c0 05 00
	00		 push	 DWORD PTR [esi+1472]
  00046	e8 00 00 00 00	 call	 ?GetMetaTextForScript@IMetaTable@@QAEPBDPAUHWND__@@W4E_CODEPAGE@1@PBDH@Z ; IMetaTable::GetMetaTextForScript
  0004b	50		 push	 eax
  0004c	8d 4d 08	 lea	 ecx, DWORD PTR _strPacketName$[ebp]
  0004f	ff 15 00 00 00
	00		 call	 DWORD PTR __imp_??0?$CStringT@DV?$StrTraitMFC_DLL@DV?$ChTraitsCRT@D@ATL@@@@@ATL@@QAE@PBD@Z

; 152  : 	// ADD: 종찬(04/08/03) PacketData에서 PacketData제거루틴추가에 의한 그 구분 Flag를 설정.
; 153  : 	int nRemovePacketDataCount = 0;
; 154  : 	int nResult = m_pPacketList->SetRealData( strPacketName, dData, nRemovePacketDataCount, nOption);

  00055	0f bf 7d 14	 movsx	 edi, WORD PTR _nOption$[ebp]
  00059	8d 45 f0	 lea	 eax, DWORD PTR _nRemovePacketDataCount$[ebp]
  0005c	f2 0f 10 45 0c	 movsd	 xmm0, QWORD PTR _dData$[ebp]
  00061	8b 8e 3c 03 00
	00		 mov	 ecx, DWORD PTR [esi+828]
  00067	57		 push	 edi
  00068	50		 push	 eax
  00069	83 ec 08	 sub	 esp, 8
  0006c	c7 45 fc 00 00
	00 00		 mov	 DWORD PTR __$EHRec$[ebp+8], 0
  00073	c7 45 f0 00 00
	00 00		 mov	 DWORD PTR _nRemovePacketDataCount$[ebp], 0
  0007a	f2 0f 11 04 24	 movsd	 QWORD PTR [esp], xmm0
  0007f	ff 75 08	 push	 DWORD PTR _strPacketName$[ebp]
  00082	ff 15 00 00 00
	00		 call	 DWORD PTR __imp_?SetRealData@CPacketList@@QAE_NPBDNAAHH@Z

; 155  : 	if(nResult <= 0)

  00088	84 c0		 test	 al, al
  0008a	0f 84 80 00 00
	00		 je	 $LN12@SetRealDat

; 156  : 		return;
; 157  : 	
; 158  : 	// return : 0(처리 안됨)  1(처리됨 : packet삭제는 안됨)  2(처리됨 : packet삭제 됨)
; 159  : 	//sy 2003.3.7 - 속도 개선 - 스크립트로 실시간 data들어옴
; 160  : 	if(m_pMainBlock != NULL)

  00090	8b 8e 34 03 00
	00		 mov	 ecx, DWORD PTR [esi+820]
  00096	85 c9		 test	 ecx, ecx
  00098	74 0a		 je	 SHORT $LN4@SetRealDat

; 161  : 		m_pMainBlock->CalculateAllGraphs(CCalculateBaseData::REALDATA_CAL);

  0009a	8b 01		 mov	 eax, DWORD PTR [ecx]
  0009c	6a 01		 push	 1
  0009e	ff 90 48 01 00
	00		 call	 DWORD PTR [eax+328]
$LN4@SetRealDat:

; 162  : 
; 163  : 	// (2004.12.07, 배승원) Real의 반영에 따른 지표 계산을 싯점을 AddIn Module에게 알린다.
; 164  : 	if( m_pAddInManager) m_pAddInManager->OnManualRealData( strPacketName, dData, nOption);

  000a4	8b 8e cc 04 00
	00		 mov	 ecx, DWORD PTR [esi+1228]
  000aa	85 c9		 test	 ecx, ecx
  000ac	74 17		 je	 SHORT $LN5@SetRealDat
  000ae	f2 0f 10 45 0c	 movsd	 xmm0, QWORD PTR _dData$[ebp]
  000b3	57		 push	 edi
  000b4	83 ec 08	 sub	 esp, 8
  000b7	f2 0f 11 04 24	 movsd	 QWORD PTR [esp], xmm0
  000bc	ff 75 08	 push	 DWORD PTR _strPacketName$[ebp]
  000bf	ff 15 00 00 00
	00		 call	 DWORD PTR __imp_?OnManualRealData@CAddInManager@@QAEXPBDNH@Z
$LN5@SetRealDat:

; 165  : 
; 166  : 	if( nRemovePacketDataCount)

  000c5	8b 45 f0	 mov	 eax, DWORD PTR _nRemovePacketDataCount$[ebp]
  000c8	85 c0		 test	 eax, eax
  000ca	74 25		 je	 SHORT $LN8@SetRealDat

; 167  : 	{
; 168  : 		// (2006/6/5 - Seung-Won, Bae) Notify to ST AddIn for Packet Data Cutting.
; 169  : 		if( m_pAddInManager) m_pAddInManager->OnPacketTruncated( nRemovePacketDataCount);

  000cc	8b 8e cc 04 00
	00		 mov	 ecx, DWORD PTR [esi+1228]
  000d2	85 c9		 test	 ecx, ecx
  000d4	74 07		 je	 SHORT $LN7@SetRealDat
  000d6	50		 push	 eax
  000d7	ff 15 00 00 00
	00		 call	 DWORD PTR __imp_?OnPacketTruncated@CAddInManager@@QAEXH@Z
$LN7@SetRealDat:

; 170  : 
; 171  : 		// (2009/5/10 - Seung-Won, Bae) Scroll with added and trucated by Real
; 172  : 		if( m_pxScaleManager) m_pxScaleManager->SetFlagForCalcDRIandScrollByReal( TRUE);

  000dd	8b 8e 38 03 00
	00		 mov	 ecx, DWORD PTR [esi+824]
  000e3	85 c9		 test	 ecx, ecx
  000e5	74 0a		 je	 SHORT $LN8@SetRealDat
  000e7	8b 01		 mov	 eax, DWORD PTR [ecx]
  000e9	6a 01		 push	 1
  000eb	ff 90 5c 01 00
	00		 call	 DWORD PTR [eax+348]
$LN8@SetRealDat:

; 173  : 	}
; 174  : 
; 175  : 	// (2009/5/10 - Seung-Won, Bae) Scroll with added and trucated by Real
; 176  : 	if( m_pxScaleManager) m_pxScaleManager->SetFlagForCalcDRIandScrollByReal();

  000f1	8b 8e 38 03 00
	00		 mov	 ecx, DWORD PTR [esi+824]
  000f7	85 c9		 test	 ecx, ecx
  000f9	74 0a		 je	 SHORT $LN9@SetRealDat
  000fb	8b 01		 mov	 eax, DWORD PTR [ecx]
  000fd	6a 00		 push	 0
  000ff	ff 90 5c 01 00
	00		 call	 DWORD PTR [eax+348]
$LN9@SetRealDat:

; 177  : 
; 178  : 	InvalidateControl();

  00105	6a 01		 push	 1
  00107	6a 00		 push	 0
  00109	8b ce		 mov	 ecx, esi
  0010b	e8 00 00 00 00	 call	 ?InvalidateControl@CKTBChartCtrl@@QAEXPBUtagRECT@@H@Z ; CKTBChartCtrl::InvalidateControl
$LN12@SetRealDat:

; 179  : 	// packet 이 삭제된 만큼 scroll 변경
; 180  : 	//if(nResult == 1)
; 181  : 	//	SetScrollData_RemovePacketPart();
; 182  : 
; 183  : 	return;

  00110	8d 4d 08	 lea	 ecx, DWORD PTR _strPacketName$[ebp]
  00113	ff 15 00 00 00
	00		 call	 DWORD PTR __imp_??1?$CStringT@DV?$StrTraitMFC_DLL@DV?$ChTraitsCRT@D@ATL@@@@@ATL@@QAE@XZ
$LN1@SetRealDat:

; 184  : }

  00119	8b 4d f4	 mov	 ecx, DWORD PTR __$EHRec$[ebp]
  0011c	64 89 0d 00 00
	00 00		 mov	 DWORD PTR fs:0, ecx
  00123	59		 pop	 ecx
  00124	5f		 pop	 edi
  00125	5e		 pop	 esi
  00126	8b e5		 mov	 esp, ebp
  00128	5d		 pop	 ebp
  00129	c2 10 00	 ret	 16			; 00000010H
_TEXT	ENDS
;	COMDAT text$x
text$x	SEGMENT
__unwindfunclet$?SetRealData@CKTBChartCtrl@@IAEXPBDNF@Z$0:
  00000	8d 4d 08	 lea	 ecx, DWORD PTR _strPacketName$[ebp]
  00003	ff 25 00 00 00
	00		 jmp	 DWORD PTR __imp_??1?$CStringT@DV?$StrTraitMFC_DLL@DV?$ChTraitsCRT@D@ATL@@@@@ATL@@QAE@XZ
  00009	cc		 int	 3
  0000a	cc		 int	 3
  0000b	cc		 int	 3
  0000c	cc		 int	 3
  0000d	cc		 int	 3
__ehhandler$?SetRealData@CKTBChartCtrl@@IAEXPBDNF@Z:
  0000e	90		 npad	 1
  0000f	90		 npad	 1
  00010	8b 54 24 08	 mov	 edx, DWORD PTR [esp+8]
  00014	8d 42 0c	 lea	 eax, DWORD PTR [edx+12]
  00017	8b 4a f0	 mov	 ecx, DWORD PTR [edx-16]
  0001a	33 c8		 xor	 ecx, eax
  0001c	e8 00 00 00 00	 call	 @__security_check_cookie@4
  00021	b8 00 00 00 00	 mov	 eax, OFFSET __ehfuncinfo$?SetRealData@CKTBChartCtrl@@IAEXPBDNF@Z
  00026	e9 00 00 00 00	 jmp	 ___CxxFrameHandler3
text$x	ENDS
?SetRealData@CKTBChartCtrl@@IAEXPBDNF@Z ENDP		; CKTBChartCtrl::SetRealData
; Function compile flags: /Ogtp
; File D:\git\src\IBK\IBK_DRFN\ProjSrc\SrcChartEx\ChartOCX\KTBChart\KTBChartReal.cpp
;	COMDAT ?SetDrdsAdvise@CKTBChartCtrl@@IAEHH@Z
_TEXT	SEGMENT
_bOnAdvise$ = 8						; size = 4
?SetDrdsAdvise@CKTBChartCtrl@@IAEHH@Z PROC		; CKTBChartCtrl::SetDrdsAdvise, COMDAT
; _this$ = ecx

; 287  : {

  00000	55		 push	 ebp
  00001	8b ec		 mov	 ebp, esp
  00003	8b d1		 mov	 edx, ecx

; 288  : 	if( !m_pIRealReceiver) return FALSE;

  00005	8b 8a 64 05 00
	00		 mov	 ecx, DWORD PTR [edx+1380]
  0000b	85 c9		 test	 ecx, ecx
  0000d	75 06		 jne	 SHORT $LN2@SetDrdsAdv
  0000f	33 c0		 xor	 eax, eax

; 294  : }

  00011	5d		 pop	 ebp
  00012	c2 04 00	 ret	 4
$LN2@SetDrdsAdv:

; 289  : 
; 290  : 	// RQ별 DRDS관리 : 복수종목 - ojtaso (20070111)
; 291  : 	m_pIRealReceiver->SetRealAdviseRQ(m_strRQ, bOnAdvise);

  00015	ff 75 08	 push	 DWORD PTR _bOnAdvise$[ebp]
  00018	8b 01		 mov	 eax, DWORD PTR [ecx]
  0001a	ff b2 9c 05 00
	00		 push	 DWORD PTR [edx+1436]
  00020	ff 50 38	 call	 DWORD PTR [eax+56]

; 292  : 
; 293  : 	return TRUE;

  00023	b8 01 00 00 00	 mov	 eax, 1

; 294  : }

  00028	5d		 pop	 ebp
  00029	c2 04 00	 ret	 4
?SetDrdsAdvise@CKTBChartCtrl@@IAEHH@Z ENDP		; CKTBChartCtrl::SetDrdsAdvise
_TEXT	ENDS
; Function compile flags: /Ogtp
; File D:\git\src\IBK\IBK_DRFN\ProjSrc\SrcChartEx\ChartOCX\KTBChart\KTBChartReal.cpp
; File C:\Program Files (x86)\Microsoft Visual Studio\2019\Community\VC\Tools\MSVC\14.29.30133\atlmfc\include\cstringt.h
; File D:\git\src\IBK\IBK_DRFN\ProjSrc\SrcChartEx\ChartOCX\KTBChart\KTBChartReal.cpp
; File C:\Program Files (x86)\Microsoft Visual Studio\2019\Community\VC\Tools\MSVC\14.29.30133\atlmfc\include\cstringt.h
; File C:\Program Files (x86)\Microsoft Visual Studio\2019\Community\VC\Tools\MSVC\14.29.30133\atlmfc\include\atlsimpstr.h
; File C:\Program Files (x86)\Microsoft Visual Studio\2019\Community\VC\Tools\MSVC\14.29.30133\atlmfc\include\cstringt.h
; File D:\git\src\IBK\IBK_DRFN\ProjSrc\SrcChartEx\ChartOCX\KTBChart\KTBChartReal.cpp
;	COMDAT ?OnstrRealListChanged@CKTBChartCtrl@@IAEXXZ
_TEXT	SEGMENT
$T2 = -20						; size = 4
$T3 = -16						; size = 4
__$EHRec$ = -12						; size = 12
?OnstrRealListChanged@CKTBChartCtrl@@IAEXXZ PROC	; CKTBChartCtrl::OnstrRealListChanged, COMDAT
; _this$ = ecx

; 76   : {

  00000	55		 push	 ebp
  00001	8b ec		 mov	 ebp, esp
  00003	6a ff		 push	 -1
  00005	68 00 00 00 00	 push	 __ehhandler$?OnstrRealListChanged@CKTBChartCtrl@@IAEXXZ
  0000a	64 a1 00 00 00
	00		 mov	 eax, DWORD PTR fs:0
  00010	50		 push	 eax
  00011	83 ec 08	 sub	 esp, 8
  00014	56		 push	 esi
  00015	57		 push	 edi
  00016	a1 00 00 00 00	 mov	 eax, DWORD PTR ___security_cookie
  0001b	33 c5		 xor	 eax, ebp
  0001d	50		 push	 eax
  0001e	8d 45 f4	 lea	 eax, DWORD PTR __$EHRec$[ebp]
  00021	64 a3 00 00 00
	00		 mov	 DWORD PTR fs:0, eax
  00027	8b f1		 mov	 esi, ecx

; 77   : 	BoundPropertyChanged( dispidStrRealList);

  00029	6a 1e		 push	 30			; 0000001eH
  0002b	c7 45 ec 00 00
	00 00		 mov	 DWORD PTR $T2[ebp], 0
  00032	e8 00 00 00 00	 call	 ?BoundPropertyChanged@COleControl@@QAEXJ@Z ; COleControl::BoundPropertyChanged

; 78   : 
; 79   : 	_ML_TEST_NOT_USED();

  00037	6a 00		 push	 0
  00039	6a 00		 push	 0
  0003b	68 00 00 00 00	 push	 OFFSET ??_C@_0GD@FLBGJKHJ@I?5did?5not?5prepare?5this?5operatio@
  00040	e8 00 00 00 00	 call	 ?AfxMessageBox@@YGHPBDII@Z ; AfxMessageBox

; 80   : 	SetModifiedFlag();

  00045	6a 01		 push	 1
  00047	8b ce		 mov	 ecx, esi
  00049	e8 00 00 00 00	 call	 ?SetModifiedFlag@COleControl@@QAEXH@Z ; COleControl::SetModifiedFlag

; 81   : 
; 82   : 	// (2005/3/2 - Seung-Won, Bae) Update Real Setting Info
; 83   : 	// (2006/2/3 - Seung-Won, Bae) Show Real Setting Error Message
; 84   : 	if( m_pIRealReceiver) if( !m_pIRealReceiver->ResetRealSettingInfo( m_strRealList))

  0004e	8b 8e 64 05 00
	00		 mov	 ecx, DWORD PTR [esi+1380]
  00054	85 c9		 test	 ecx, ecx
  00056	74 73		 je	 SHORT $LN3@OnstrRealL
  00058	8b 01		 mov	 eax, DWORD PTR [ecx]
  0005a	ff b6 8c 02 00
	00		 push	 DWORD PTR [esi+652]
  00060	ff 50 10	 call	 DWORD PTR [eax+16]
  00063	85 c0		 test	 eax, eax
  00065	75 64		 jne	 SHORT $LN3@OnstrRealL
; File C:\Program Files (x86)\Microsoft Visual Studio\2019\Community\VC\Tools\MSVC\14.29.30133\atlmfc\include\cstringt.h

; 2412 : 		CStringT strResult( str2.GetManager() );

  00067	8d 8e 8c 02 00
	00		 lea	 ecx, DWORD PTR [esi+652]
; File D:\git\src\IBK\IBK_DRFN\ProjSrc\SrcChartEx\ChartOCX\KTBChart\KTBChartReal.cpp

; 86   : 		AfxMessageBox( "Error in real list string setting!\r\nPlease, check string again!\r\n\r\n" + m_strRealList);

  0006d	89 45 fc	 mov	 DWORD PTR __$EHRec$[ebp+8], eax
; File C:\Program Files (x86)\Microsoft Visual Studio\2019\Community\VC\Tools\MSVC\14.29.30133\atlmfc\include\cstringt.h

; 2412 : 		CStringT strResult( str2.GetManager() );

  00070	ff 15 00 00 00
	00		 call	 DWORD PTR __imp_?GetManager@?$CStringT@DV?$StrTraitMFC_DLL@DV?$ChTraitsCRT@D@ATL@@@@@ATL@@QBEPAUIAtlStringMgr@2@XZ
  00076	50		 push	 eax
  00077	8d 4d f0	 lea	 ecx, DWORD PTR $T3[ebp]
  0007a	ff 15 00 00 00
	00		 call	 DWORD PTR __imp_??0?$CStringT@DV?$StrTraitMFC_DLL@DV?$ChTraitsCRT@D@ATL@@@@@ATL@@QAE@PAUIAtlStringMgr@1@@Z
; File C:\Program Files (x86)\Microsoft Visual Studio\2019\Community\VC\Tools\MSVC\14.29.30133\atlmfc\include\atlsimpstr.h

; 519  : 		return( GetData()->nDataLength );

  00080	8b 86 8c 02 00
	00		 mov	 eax, DWORD PTR [esi+652]
; File C:\Program Files (x86)\Microsoft Visual Studio\2019\Community\VC\Tools\MSVC\14.29.30133\atlmfc\include\cstringt.h

; 2416 : 		return( strResult );

  00086	c7 45 ec 01 00
	00 00		 mov	 DWORD PTR $T2[ebp], 1
  0008d	ff 70 f4	 push	 DWORD PTR [eax-12]
  00090	50		 push	 eax
  00091	6a 43		 push	 67			; 00000043H
  00093	8d 45 f0	 lea	 eax, DWORD PTR $T3[ebp]
  00096	68 00 00 00 00	 push	 OFFSET ??_C@_0EE@MMAPKDIE@Error?5in?5real?5list?5string?5setti@
  0009b	50		 push	 eax
  0009c	ff 15 00 00 00
	00		 call	 DWORD PTR __imp_?Concatenate@?$CSimpleStringT@D$00@ATL@@KAXAAV12@PBDH1H@Z
  000a2	83 c4 14	 add	 esp, 20			; 00000014H
; File D:\git\src\IBK\IBK_DRFN\ProjSrc\SrcChartEx\ChartOCX\KTBChart\KTBChartReal.cpp

; 86   : 		AfxMessageBox( "Error in real list string setting!\r\nPlease, check string again!\r\n\r\n" + m_strRealList);

  000a5	6a 00		 push	 0
  000a7	6a 00		 push	 0
  000a9	ff 75 f0	 push	 DWORD PTR $T3[ebp]
  000ac	e8 00 00 00 00	 call	 ?AfxMessageBox@@YGHPBDII@Z ; AfxMessageBox
  000b1	8d 4d f0	 lea	 ecx, DWORD PTR $T3[ebp]
  000b4	ff 15 00 00 00
	00		 call	 DWORD PTR __imp_??1?$CStringT@DV?$StrTraitMFC_DLL@DV?$ChTraitsCRT@D@ATL@@@@@ATL@@QAE@XZ

; 92   : }

  000ba	8b 4d f4	 mov	 ecx, DWORD PTR __$EHRec$[ebp]
  000bd	64 89 0d 00 00
	00 00		 mov	 DWORD PTR fs:0, ecx
  000c4	59		 pop	 ecx
  000c5	5f		 pop	 edi
  000c6	5e		 pop	 esi
  000c7	8b e5		 mov	 esp, ebp
  000c9	5d		 pop	 ebp
  000ca	c3		 ret	 0
$LN3@OnstrRealL:

; 87   : 		return;
; 88   : 	}
; 89   : 
; 90   : 	// (2005/9/29 - Seung-Won, Bae) Log the New Real Setting
; 91   : 	if( m_bInLogging && m_pAddInManager) m_pAddInManager->OnAddInToolCommand( EAI_LOG_REAL_SETTING_CHANGED, m_strRealList);

  000cb	83 be 6c 05 00
	00 00		 cmp	 DWORD PTR [esi+1388], 0
  000d2	74 18		 je	 SHORT $LN4@OnstrRealL
  000d4	8b 8e cc 04 00
	00		 mov	 ecx, DWORD PTR [esi+1228]
  000da	85 c9		 test	 ecx, ecx
  000dc	74 0e		 je	 SHORT $LN4@OnstrRealL
  000de	ff b6 8c 02 00
	00		 push	 DWORD PTR [esi+652]
  000e4	6a 11		 push	 17			; 00000011H
  000e6	ff 15 00 00 00
	00		 call	 DWORD PTR __imp_?OnAddInToolCommand@CAddInManager@@QAEHW4EAICommandType@@PBD@Z
$LN4@OnstrRealL:

; 92   : }

  000ec	8b 4d f4	 mov	 ecx, DWORD PTR __$EHRec$[ebp]
  000ef	64 89 0d 00 00
	00 00		 mov	 DWORD PTR fs:0, ecx
  000f6	59		 pop	 ecx
  000f7	5f		 pop	 edi
  000f8	5e		 pop	 esi
  000f9	8b e5		 mov	 esp, ebp
  000fb	5d		 pop	 ebp
  000fc	c3		 ret	 0
_TEXT	ENDS
;	COMDAT text$x
text$x	SEGMENT
__unwindfunclet$?OnstrRealListChanged@CKTBChartCtrl@@IAEXXZ$1:
  00000	8b 45 ec	 mov	 eax, DWORD PTR $T2[ebp]
  00003	83 e0 01	 and	 eax, 1
  00006	0f 84 0d 00 00
	00		 je	 $LN12@OnstrRealL
  0000c	83 65 ec fe	 and	 DWORD PTR $T2[ebp], -2	; fffffffeH
  00010	8d 4d f0	 lea	 ecx, DWORD PTR $T3[ebp]
  00013	ff 25 00 00 00
	00		 jmp	 DWORD PTR __imp_??1?$CStringT@DV?$StrTraitMFC_DLL@DV?$ChTraitsCRT@D@ATL@@@@@ATL@@QAE@XZ
$LN12@OnstrRealL:
  00019	c3		 ret	 0
  0001a	cc		 int	 3
  0001b	cc		 int	 3
  0001c	cc		 int	 3
  0001d	cc		 int	 3
  0001e	cc		 int	 3
__ehhandler$?OnstrRealListChanged@CKTBChartCtrl@@IAEXXZ:
  0001f	90		 npad	 1
  00020	90		 npad	 1
  00021	8b 54 24 08	 mov	 edx, DWORD PTR [esp+8]
  00025	8d 42 0c	 lea	 eax, DWORD PTR [edx+12]
  00028	8b 4a ec	 mov	 ecx, DWORD PTR [edx-20]
  0002b	33 c8		 xor	 ecx, eax
  0002d	e8 00 00 00 00	 call	 @__security_check_cookie@4
  00032	b8 00 00 00 00	 mov	 eax, OFFSET __ehfuncinfo$?OnstrRealListChanged@CKTBChartCtrl@@IAEXXZ
  00037	e9 00 00 00 00	 jmp	 ___CxxFrameHandler3
text$x	ENDS
?OnstrRealListChanged@CKTBChartCtrl@@IAEXXZ ENDP	; CKTBChartCtrl::OnstrRealListChanged
; Function compile flags: /Ogtp
; File D:\git\src\IBK\IBK_DRFN\ProjSrc\SrcChartEx\ChartOCX\KTBChart\KTBChartReal.cpp
;	COMDAT ?OnbUseRealDataChanged@CKTBChartCtrl@@IAEXXZ
_TEXT	SEGMENT
?OnbUseRealDataChanged@CKTBChartCtrl@@IAEXXZ PROC	; CKTBChartCtrl::OnbUseRealDataChanged, COMDAT
; _this$ = ecx

; 39   : {

  00000	56		 push	 esi

; 40   : 	BoundPropertyChanged(dispidBUseRealData);

  00001	6a 1d		 push	 29			; 0000001dH
  00003	8b f1		 mov	 esi, ecx
  00005	e8 00 00 00 00	 call	 ?BoundPropertyChanged@COleControl@@QAEXJ@Z ; COleControl::BoundPropertyChanged

; 41   : 
; 42   : 	SetModifiedFlag();

  0000a	6a 01		 push	 1
  0000c	8b ce		 mov	 ecx, esi
  0000e	e8 00 00 00 00	 call	 ?SetModifiedFlag@COleControl@@QAEXH@Z ; COleControl::SetModifiedFlag
  00013	5e		 pop	 esi

; 43   : }

  00014	c3		 ret	 0
?OnbUseRealDataChanged@CKTBChartCtrl@@IAEXXZ ENDP	; CKTBChartCtrl::OnbUseRealDataChanged
_TEXT	ENDS
; Function compile flags: /Ogtp
; File D:\git\src\IBK\IBK_DRFN\ProjSrc\SrcChartEx\ChartOCX\KTBChart\KTBChartReal.cpp
;	COMDAT ?OnbNormalizedMinuteTimeRule@CKTBChartCtrl@@IAEXXZ
_TEXT	SEGMENT
?OnbNormalizedMinuteTimeRule@CKTBChartCtrl@@IAEXXZ PROC	; CKTBChartCtrl::OnbNormalizedMinuteTimeRule, COMDAT
; _this$ = ecx

; 98   : {

  00000	56		 push	 esi

; 99   : 	BoundPropertyChanged( dispidBNormalizedMinuteTimeRule);

  00001	6a 02		 push	 2
  00003	8b f1		 mov	 esi, ecx
  00005	e8 00 00 00 00	 call	 ?BoundPropertyChanged@COleControl@@QAEXJ@Z ; COleControl::BoundPropertyChanged

; 100  : 
; 101  : 	SetModifiedFlag();

  0000a	6a 01		 push	 1
  0000c	8b ce		 mov	 ecx, esi
  0000e	e8 00 00 00 00	 call	 ?SetModifiedFlag@COleControl@@QAEXH@Z ; COleControl::SetModifiedFlag

; 102  : 
; 103  : 	// (2009/11/1 - Seung-Won, Bae) for Nomalized Minute Time Rule.
; 104  : 	if( CChartInfo::FX == m_nChartMode) m_bNormalizedMinuteTimeRule = TRUE;

  00013	b8 02 00 00 00	 mov	 eax, 2
  00018	66 3b 86 18 02
	00 00		 cmp	 ax, WORD PTR [esi+536]
  0001f	75 0a		 jne	 SHORT $LN6@OnbNormali
  00021	c7 86 1c 02 00
	00 01 00 00 00	 mov	 DWORD PTR [esi+540], 1
$LN6@OnbNormali:

; 105  : 
; 106  : // (2009/11/23 - Seung-Won, Bae) for DEV
; 107  : //#ifdef _DEBUG
; 108  : //	char szChartMode[ 256];
; 109  : //	DWORD dwError = GetPrivateProfileString( "Chart Version", "MChartMode", "", szChartMode, 255, GetBaseDeskPath() + DATA_FILE_FOLDER + "ChartMetaTable.dat");
; 110  : //	CString strChartMode( szChartMode);
; 111  : //	if( strChartMode == "HTS") m_bNormalizedMinuteTimeRule = TRUE;
; 112  : //#endif
; 113  : 
; 114  : 	// (2005/11/7 - Seung-Won, Bae) Log for Normalized Minute Time Rule
; 115  : 	if( m_bInLogging && m_pAddInManager) m_pAddInManager->OnAddInToolCommand( EAI_LOG_SET_IMAGENARY_CANDLE, "CKTBChartCtrl::OnbNormalizedMinuteTimeRule", m_bNormalizedMinuteTimeRule);

  0002b	83 be 6c 05 00
	00 00		 cmp	 DWORD PTR [esi+1388], 0
  00032	74 1d		 je	 SHORT $LN3@OnbNormali
  00034	8b 8e cc 04 00
	00		 mov	 ecx, DWORD PTR [esi+1228]
  0003a	85 c9		 test	 ecx, ecx
  0003c	74 13		 je	 SHORT $LN3@OnbNormali
  0003e	ff b6 1c 02 00
	00		 push	 DWORD PTR [esi+540]
  00044	68 00 00 00 00	 push	 OFFSET ??_C@_0CL@CPAIPCHM@CKTBChartCtrl?3?3OnbNormalizedMin@
  00049	6a 03		 push	 3
  0004b	ff 15 00 00 00
	00		 call	 DWORD PTR __imp_?OnAddInToolCommand@CAddInManager@@QAEHW4EAICommandType@@PBDJ@Z
$LN3@OnbNormali:

; 116  : }

  00051	5e		 pop	 esi
  00052	c3		 ret	 0
?OnbNormalizedMinuteTimeRule@CKTBChartCtrl@@IAEXXZ ENDP	; CKTBChartCtrl::OnbNormalizedMinuteTimeRule
_TEXT	ENDS
; Function compile flags: /Ogtp
; File D:\git\src\IBK\IBK_DRFN\ProjSrc\SrcChartEx\ChartOCX\Include_Chart\MessageDefine.h
;	COMDAT ??__ERMS_ANALYSIS_FUNC@@YAXXZ
text$di	SEGMENT
??__ERMS_ANALYSIS_FUNC@@YAXXZ PROC			; `dynamic initializer for 'RMS_ANALYSIS_FUNC'', COMDAT

; 5    : const UINT RMS_ANALYSIS_FUNC = ::RegisterWindowMessage(_T("RMS_ANALYSIS_FUNC"));

  00000	68 00 00 00 00	 push	 OFFSET ??_C@_0BC@MMPGLPDH@RMS_ANALYSIS_FUNC@
  00005	ff 15 00 00 00
	00		 call	 DWORD PTR __imp__RegisterWindowMessageA@4
  0000b	a3 00 00 00 00	 mov	 DWORD PTR ?RMS_ANALYSIS_FUNC@@3IB, eax
  00010	c3		 ret	 0
??__ERMS_ANALYSIS_FUNC@@YAXXZ ENDP			; `dynamic initializer for 'RMS_ANALYSIS_FUNC''
text$di	ENDS
; Function compile flags: /Ogtp
; File D:\git\src\IBK\IBK_DRFN\ProjSrc\SrcChartEx\ChartOCX\KTBChart\KTBChartReal.cpp
;	COMDAT ?__empty_global_delete@@YAXPAXI@Z
_TEXT	SEGMENT
___formal$ = 8						; size = 4
___formal$ = 12						; size = 4
?__empty_global_delete@@YAXPAXI@Z PROC			; __empty_global_delete, COMDAT

  00000	c2 00 00	 ret	 0
?__empty_global_delete@@YAXPAXI@Z ENDP			; __empty_global_delete
_TEXT	ENDS
; Function compile flags: /Ogtp
; File D:\git\src\IBK\IBK_DRFN\ProjSrc\SrcChartEx\ChartOCX\KTBChart\KTBChartReal.cpp
;	COMDAT ?__empty_global_delete@@YAXPAX@Z
_TEXT	SEGMENT
___formal$ = 8						; size = 4
?__empty_global_delete@@YAXPAX@Z PROC			; __empty_global_delete, COMDAT

  00000	c2 00 00	 ret	 0
?__empty_global_delete@@YAXPAX@Z ENDP			; __empty_global_delete
_TEXT	ENDS
END
