; Listing generated by Microsoft (R) Optimizing Compiler Version 19.29.30145.0 

	TITLE	D:\git\src\IBK\IBK_DRFN\#DRfn-CS\_Obj\KTBChart\KTBChartDLL.obj
	.686P
	.XMM
	include listing.inc
	.model	flat

INCLUDELIB MSVCRT
INCLUDELIB OLDNAMES

PUBLIC	??_C@_0BG@OPFPJGPD@CHARTMSG_EVENTMESSAGE@	; `string'
;	COMDAT ??_C@_0BG@OPFPJGPD@CHARTMSG_EVENTMESSAGE@
CONST	SEGMENT
??_C@_0BG@OPFPJGPD@CHARTMSG_EVENTMESSAGE@ DB 'CHARTMSG_EVENTMESSAGE', 00H ; `string'
CONST	ENDS
CONST	SEGMENT
?_Fake_alloc@std@@3U_Fake_allocator@1@B	ORG $+1		; std::_Fake_alloc
CONST	ENDS
PUBLIC	?__empty_global_delete@@YAXPAX@Z		; __empty_global_delete
PUBLIC	?__empty_global_delete@@YAXPAXI@Z		; __empty_global_delete
PUBLIC	??1CObject@@UAE@XZ				; CObject::~CObject
PUBLIC	?Serialize@CObject@@UAEXAAVCArchive@@@Z		; CObject::Serialize
PUBLIC	?AssertValid@CObject@@UBEXXZ			; CObject::AssertValid
PUBLIC	?Dump@CObject@@UBEXAAVCDumpContext@@@Z		; CObject::Dump
PUBLIC	??HATL@@YA?AV?$CStringT@DV?$StrTraitMFC_DLL@DV?$ChTraitsCRT@D@ATL@@@@@0@ABV10@PBD@Z ; ATL::operator+
PUBLIC	?GetStartDateOfData@CKTBChartCtrl@@IAEPA_WXZ	; CKTBChartCtrl::GetStartDateOfData
PUBLIC	?AddChartBlock@CKTBChartCtrl@@IAEHPBD@Z		; CKTBChartCtrl::AddChartBlock
PUBLIC	?ChangeHorzScalePosition@CKTBChartCtrl@@IAEHFFF@Z ; CKTBChartCtrl::ChangeHorzScalePosition
PUBLIC	?GetIndicatorNameList@CKTBChartCtrl@@IAEPA_WPBD@Z ; CKTBChartCtrl::GetIndicatorNameList
PUBLIC	?AddGraph@CKTBChartCtrl@@IAEXFFFPBDHHH@Z	; CKTBChartCtrl::AddGraph
PUBLIC	?AddPacket@CKTBChartCtrl@@IAEXPBD@Z		; CKTBChartCtrl::AddPacket
PUBLIC	?RemovePacket@CKTBChartCtrl@@IAEHPBD@Z		; CKTBChartCtrl::RemovePacket
PUBLIC	?SetContainerDllInfo@CKTBChartCtrl@@IAEXJF@Z	; CKTBChartCtrl::SetContainerDllInfo
PUBLIC	?SetPacketData@CKTBChartCtrl@@IAEHPBDJJH@Z	; CKTBChartCtrl::SetPacketData
PUBLIC	?SetBackgroundColors@CKTBChartCtrl@@IAEXKK@Z	; CKTBChartCtrl::SetBackgroundColors
PUBLIC	?ShowIndicatorConfigDlg@CKTBChartCtrl@@IAEXXZ	; CKTBChartCtrl::ShowIndicatorConfigDlg
PUBLIC	?ResetChartCfgWith@CKTBChartCtrl@@IAEXF@Z	; CKTBChartCtrl::ResetChartCfgWith
PUBLIC	?EmptyChart@CKTBChartCtrl@@IAEHHH@Z		; CKTBChartCtrl::EmptyChart
PUBLIC	?HasGraph@CKTBChartCtrl@@IAEHPBD@Z		; CKTBChartCtrl::HasGraph
PUBLIC	?ShowInnerToolBar@CKTBChartCtrl@@IAEXH@Z	; CKTBChartCtrl::ShowInnerToolBar
PUBLIC	?ChangeVertScalePosition@CKTBChartCtrl@@IAEHFFFF@Z ; CKTBChartCtrl::ChangeVertScalePosition
PUBLIC	?GetRowBlockCount@CKTBChartCtrl@@IAEFXZ		; CKTBChartCtrl::GetRowBlockCount
PUBLIC	?GetColumnBlockCount@CKTBChartCtrl@@IAEFXZ	; CKTBChartCtrl::GetColumnBlockCount
PUBLIC	?SetStartPeriodOfPacket@CKTBChartCtrl@@IAEHPBDJH@Z ; CKTBChartCtrl::SetStartPeriodOfPacket
PUBLIC	?GetStartPeriodOfPacket@CKTBChartCtrl@@IAEJPBD@Z ; CKTBChartCtrl::GetStartPeriodOfPacket
PUBLIC	?ClearTimeMark@CKTBChartCtrl@@IAEXXZ		; CKTBChartCtrl::ClearTimeMark
PUBLIC	?ShowEnvironmentDlg@CKTBChartCtrl@@IAEXXZ	; CKTBChartCtrl::ShowEnvironmentDlg
PUBLIC	?SetTimeMark@CKTBChartCtrl@@IAEXPBDH@Z		; CKTBChartCtrl::SetTimeMark
PUBLIC	?GetVertScalePosition@CKTBChartCtrl@@IAEFFFF@Z	; CKTBChartCtrl::GetVertScalePosition
PUBLIC	?SetPacketDataInAdditionPacket@CKTBChartCtrl@@IAEHPBDJJH@Z ; CKTBChartCtrl::SetPacketDataInAdditionPacket
PUBLIC	?EmptyChart2@CKTBChartCtrl@@IAEHPBDHH@Z		; CKTBChartCtrl::EmptyChart2
PUBLIC	?SetMultiItemMode@CKTBChartCtrl@@IAEXH@Z	; CKTBChartCtrl::SetMultiItemMode
PUBLIC	?AddChartAllBlock@CKTBChartCtrl@@IAEHPBD@Z	; CKTBChartCtrl::AddChartAllBlock
PUBLIC	?SendEventMsgToDLL@CKTBChartCtrl@@QAEJIIJ@Z	; CKTBChartCtrl::SendEventMsgToDLL
PUBLIC	?SendTimeOfIndexToDLL@CKTBChartCtrl@@IAEXIH@Z	; CKTBChartCtrl::SendTimeOfIndexToDLL
PUBLIC	?RmsgFormStateChange@CKTBChartCtrl@@IAEJIJ@Z	; CKTBChartCtrl::RmsgFormStateChange
PUBLIC	?AddOrDeleteChart@CKTBChartCtrl@@AAE_NABV?$CStringT@DV?$StrTraitMFC_DLL@DV?$ChTraitsCRT@D@ATL@@@@@ATL@@@Z ; CKTBChartCtrl::AddOrDeleteChart
PUBLIC	?AddOrDeleteChart_Special@CKTBChartCtrl@@AAE_NABV?$CStringT@DV?$StrTraitMFC_DLL@DV?$ChTraitsCRT@D@ATL@@@@@ATL@@@Z ; CKTBChartCtrl::AddOrDeleteChart_Special
PUBLIC	?AddOrDeleteChart_Genneral@CKTBChartCtrl@@AAE_NABV?$CStringT@DV?$StrTraitMFC_DLL@DV?$ChTraitsCRT@D@ATL@@@@@ATL@@H@Z ; CKTBChartCtrl::AddOrDeleteChart_Genneral
PUBLIC	?AddChart_GenneralChart@CKTBChartCtrl@@AAEHABV?$CStringT@DV?$StrTraitMFC_DLL@DV?$ChTraitsCRT@D@ATL@@@@@ATL@@AAV23@H@Z ; CKTBChartCtrl::AddChart_GenneralChart
PUBLIC	?DeleteChart_Genneral@CKTBChartCtrl@@AAE_NABV?$CStringT@DV?$StrTraitMFC_DLL@DV?$ChTraitsCRT@D@ATL@@@@@ATL@@@Z ; CKTBChartCtrl::DeleteChart_Genneral
PUBLIC	?ChangeChart_PriceChartStyle@CKTBChartCtrl@@AAEHABV?$CStringT@DV?$StrTraitMFC_DLL@DV?$ChTraitsCRT@D@ATL@@@@@ATL@@AAV23@H@Z ; CKTBChartCtrl::ChangeChart_PriceChartStyle
PUBLIC	?SetPacketDataInPacketList@CKTBChartCtrl@@AAE_NPBDJJH@Z ; CKTBChartCtrl::SetPacketDataInPacketList
PUBLIC	?GetGraphDataForMaking@CKTBChartCtrl@@ABE_NABV?$CStringT@DV?$StrTraitMFC_DLL@DV?$ChTraitsCRT@D@ATL@@@@@ATL@@AAV23@@Z ; CKTBChartCtrl::GetGraphDataForMaking
PUBLIC	?IsBlockEmpty@CKTBChartCtrl@@ABE_NXZ		; CKTBChartCtrl::IsBlockEmpty
PUBLIC	?SetEmptyOcxData@CKTBChartCtrl@@AAEXPBD@Z	; CKTBChartCtrl::SetEmptyOcxData
PUBLIC	??0?$CList@V?$CStringT@DV?$StrTraitMFC_DLL@DV?$ChTraitsCRT@D@ATL@@@@@ATL@@V12@@@QAE@H@Z ; CList<ATL::CStringT<char,StrTraitMFC_DLL<char,ATL::ChTraitsCRT<char> > >,ATL::CStringT<char,StrTraitMFC_DLL<char,ATL::ChTraitsCRT<char> > > >::CList<ATL::CStringT<char,StrTraitMFC_DLL<char,ATL::ChTraitsCRT<char> > >,ATL::CStringT<char,StrTraitMFC_DLL<char,ATL::ChTraitsCRT<char> > > >
PUBLIC	?AddTail@?$CList@V?$CStringT@DV?$StrTraitMFC_DLL@DV?$ChTraitsCRT@D@ATL@@@@@ATL@@V12@@@QAEPAU__POSITION@@V?$CStringT@DV?$StrTraitMFC_DLL@DV?$ChTraitsCRT@D@ATL@@@@@ATL@@@Z ; CList<ATL::CStringT<char,StrTraitMFC_DLL<char,ATL::ChTraitsCRT<char> > >,ATL::CStringT<char,StrTraitMFC_DLL<char,ATL::ChTraitsCRT<char> > > >::AddTail
PUBLIC	?RemoveAll@?$CList@V?$CStringT@DV?$StrTraitMFC_DLL@DV?$ChTraitsCRT@D@ATL@@@@@ATL@@V12@@@QAEXXZ ; CList<ATL::CStringT<char,StrTraitMFC_DLL<char,ATL::ChTraitsCRT<char> > >,ATL::CStringT<char,StrTraitMFC_DLL<char,ATL::ChTraitsCRT<char> > > >::RemoveAll
PUBLIC	?NewNode@?$CList@V?$CStringT@DV?$StrTraitMFC_DLL@DV?$ChTraitsCRT@D@ATL@@@@@ATL@@V12@@@IAEPAUCNode@1@PAU21@0@Z ; CList<ATL::CStringT<char,StrTraitMFC_DLL<char,ATL::ChTraitsCRT<char> > >,ATL::CStringT<char,StrTraitMFC_DLL<char,ATL::ChTraitsCRT<char> > > >::NewNode
PUBLIC	??1?$CList@V?$CStringT@DV?$StrTraitMFC_DLL@DV?$ChTraitsCRT@D@ATL@@@@@ATL@@V12@@@UAE@XZ ; CList<ATL::CStringT<char,StrTraitMFC_DLL<char,ATL::ChTraitsCRT<char> > >,ATL::CStringT<char,StrTraitMFC_DLL<char,ATL::ChTraitsCRT<char> > > >::~CList<ATL::CStringT<char,StrTraitMFC_DLL<char,ATL::ChTraitsCRT<char> > >,ATL::CStringT<char,StrTraitMFC_DLL<char,ATL::ChTraitsCRT<char> > > >
PUBLIC	?Serialize@?$CList@V?$CStringT@DV?$StrTraitMFC_DLL@DV?$ChTraitsCRT@D@ATL@@@@@ATL@@V12@@@UAEXAAVCArchive@@@Z ; CList<ATL::CStringT<char,StrTraitMFC_DLL<char,ATL::ChTraitsCRT<char> > >,ATL::CStringT<char,StrTraitMFC_DLL<char,ATL::ChTraitsCRT<char> > > >::Serialize
PUBLIC	??_G?$CList@V?$CStringT@DV?$StrTraitMFC_DLL@DV?$ChTraitsCRT@D@ATL@@@@@ATL@@V12@@@UAEPAXI@Z ; CList<ATL::CStringT<char,StrTraitMFC_DLL<char,ATL::ChTraitsCRT<char> > >,ATL::CStringT<char,StrTraitMFC_DLL<char,ATL::ChTraitsCRT<char> > > >::`scalar deleting destructor'
PUBLIC	??1CDumpLogger@@UAE@XZ				; CDumpLogger::~CDumpLogger
PUBLIC	?WriteToStringLog@CDumpLogger@@QAEXPBD0H@Z	; CDumpLogger::WriteToStringLog
PUBLIC	??_GCDumpLogger@@UAEPAXI@Z			; CDumpLogger::`scalar deleting destructor'
PUBLIC	?AddHead@?$CList@NN@@QAEPAU__POSITION@@N@Z	; CList<double,double>::AddHead
PUBLIC	?NewNode@?$CList@NN@@IAEPAUCNode@1@PAU21@0@Z	; CList<double,double>::NewNode
PUBLIC	??_C@_00CNPNBAHC@@				; `string'
PUBLIC	??_R0?AVCObject@@@8				; CObject `RTTI Type Descriptor'
PUBLIC	??_R3CObject@@8					; CObject::`RTTI Class Hierarchy Descriptor'
PUBLIC	??_R2CObject@@8					; CObject::`RTTI Base Class Array'
PUBLIC	??_R1A@?0A@EA@CObject@@8			; CObject::`RTTI Base Class Descriptor at (0,-1,0,64)'
PUBLIC	?RMSG_CHARTMSG_EVENTMESSAGE@@3IB		; RMSG_CHARTMSG_EVENTMESSAGE
PUBLIC	??_7?$CList@V?$CStringT@DV?$StrTraitMFC_DLL@DV?$ChTraitsCRT@D@ATL@@@@@ATL@@V12@@@6B@ ; CList<ATL::CStringT<char,StrTraitMFC_DLL<char,ATL::ChTraitsCRT<char> > >,ATL::CStringT<char,StrTraitMFC_DLL<char,ATL::ChTraitsCRT<char> > > >::`vftable'
PUBLIC	??_C@_01JLIPDDHJ@?3@				; `string'
PUBLIC	??_C@_01IHBHIGKO@?0@				; `string'
PUBLIC	??_C@_02PCIJFNDE@?$AN?6@			; `string'
PUBLIC	??_C@_05FPJIJNHE@_PAIR@				; `string'
PUBLIC	??_C@_08BHMMGBBH@Graph?$DL?$AN?6@		; `string'
PUBLIC	??_7CDumpLogger@@6B@				; CDumpLogger::`vftable'
PUBLIC	??_C@_07PNFMHCIF@C?3?2Logs@			; `string'
PUBLIC	??_C@_05GDFJMIEM@MDump@				; `string'
PUBLIC	??_C@_0CJ@GKAGEPNM@?$CFs?2?$CFs_?$CF04d?$CF02d?$CF02d_?$CF02d?$CF02d?$CF02d@ ; `string'
PUBLIC	??_C@_0BH@KLLDLFAP@?$CFs?2?$CFs_?$CF04d?$CF02d?$CF02d?4log@ ; `string'
PUBLIC	??_C@_03BFOLIMEF@?$FN?$AN?6@			; `string'
PUBLIC	??_C@_0BN@HKLPFIKN@?$AN?6?$AN?6?$AN?6?$FL?$CF02d?3?$CF02d?3?$CF02d?3?$CF03d?5?5@ ; `string'
PUBLIC	??_C@_0BF@GOEHBEJD@?$CF02d?3?$CF02d?3?$CF02d?3?$CF03d?7@ ; `string'
PUBLIC	??_C@_08MHFHIKKE@TR?5Limit@			; `string'
PUBLIC	??_C@_04ODOGNJOP@?$CF05d@			; `string'
PUBLIC	??_C@_01ICJEACDI@?$DL@				; `string'
PUBLIC	??_C@_0FE@JECHEICF@Start?5Time?5?3?5?$CF02d?3?$CF02d?3?$CF02d?4?$CF03@ ; `string'
PUBLIC	??_C@_0O@BPAIOFGL@ChartSpeedLog@		; `string'
PUBLIC	??_C@_0BP@FKJBGGCH@CKTBChartCtrl?3?3SetPacketData?$CI?$CJ@ ; `string'
PUBLIC	??_C@_0BH@CLHAEGOH@BlockColumn?$DL?$AN?6Block?$DL?$AN?6@ ; `string'
PUBLIC	??_C@_0CD@OBEHMDNE@?$DL4?$DL2?$DL?1?$DL?3?$DL0?$DL0?$DL0?$DL?$AN?6VertScaleGroup@ ; `string'
PUBLIC	??_C@_0DI@LMILEPF@?$DL1?$DL2?$DL0?$DL?$AN?6VertScaleGroupEnd?$DL?$AN?6Bl@ ; `string'
PUBLIC	??_C@_07MGCPDNLD@DEFAULT@			; `string'
PUBLIC	??_R4?$CList@V?$CStringT@DV?$StrTraitMFC_DLL@DV?$ChTraitsCRT@D@ATL@@@@@ATL@@V12@@@6B@ ; CList<ATL::CStringT<char,StrTraitMFC_DLL<char,ATL::ChTraitsCRT<char> > >,ATL::CStringT<char,StrTraitMFC_DLL<char,ATL::ChTraitsCRT<char> > > >::`RTTI Complete Object Locator'
PUBLIC	??_R0?AV?$CList@V?$CStringT@DV?$StrTraitMFC_DLL@DV?$ChTraitsCRT@D@ATL@@@@@ATL@@V12@@@@8 ; CList<ATL::CStringT<char,StrTraitMFC_DLL<char,ATL::ChTraitsCRT<char> > >,ATL::CStringT<char,StrTraitMFC_DLL<char,ATL::ChTraitsCRT<char> > > > `RTTI Type Descriptor'
PUBLIC	??_R3?$CList@V?$CStringT@DV?$StrTraitMFC_DLL@DV?$ChTraitsCRT@D@ATL@@@@@ATL@@V12@@@8 ; CList<ATL::CStringT<char,StrTraitMFC_DLL<char,ATL::ChTraitsCRT<char> > >,ATL::CStringT<char,StrTraitMFC_DLL<char,ATL::ChTraitsCRT<char> > > >::`RTTI Class Hierarchy Descriptor'
PUBLIC	??_R2?$CList@V?$CStringT@DV?$StrTraitMFC_DLL@DV?$ChTraitsCRT@D@ATL@@@@@ATL@@V12@@@8 ; CList<ATL::CStringT<char,StrTraitMFC_DLL<char,ATL::ChTraitsCRT<char> > >,ATL::CStringT<char,StrTraitMFC_DLL<char,ATL::ChTraitsCRT<char> > > >::`RTTI Base Class Array'
PUBLIC	??_R1A@?0A@EA@?$CList@V?$CStringT@DV?$StrTraitMFC_DLL@DV?$ChTraitsCRT@D@ATL@@@@@ATL@@V12@@@8 ; CList<ATL::CStringT<char,StrTraitMFC_DLL<char,ATL::ChTraitsCRT<char> > >,ATL::CStringT<char,StrTraitMFC_DLL<char,ATL::ChTraitsCRT<char> > > >::`RTTI Base Class Descriptor at (0,-1,0,64)'
PUBLIC	??_R4CDumpLogger@@6B@				; CDumpLogger::`RTTI Complete Object Locator'
PUBLIC	??_R0?AVCDumpLogger@@@8				; CDumpLogger `RTTI Type Descriptor'
PUBLIC	??_R3CDumpLogger@@8				; CDumpLogger::`RTTI Class Hierarchy Descriptor'
PUBLIC	??_R2CDumpLogger@@8				; CDumpLogger::`RTTI Base Class Array'
PUBLIC	??_R1A@?0A@EA@CDumpLogger@@8			; CDumpLogger::`RTTI Base Class Descriptor at (0,-1,0,64)'
EXTRN	??_L@YGXPAXIIP6EX0@Z1@Z:PROC			; `eh vector constructor iterator'
EXTRN	??_M@YGXPAXIIP6EX0@Z@Z:PROC			; `eh vector destructor iterator'
EXTRN	??3@YAXPAX@Z:PROC				; operator delete
EXTRN	??3@YAXPAXI@Z:PROC				; operator delete
EXTRN	?__global_delete@@YAXPAXI@Z:PROC		; __global_delete
EXTRN	___std_terminate:PROC
EXTRN	_strstr:PROC
EXTRN	__imp__strncmp:PROC
EXTRN	__imp__strncpy:PROC
EXTRN	__imp__stricmp:PROC
EXTRN	__imp__CreateDirectoryA@8:PROC
EXTRN	__imp__GetLocalTime@4:PROC
EXTRN	__imp___lopen@8:PROC
EXTRN	__imp___lcreat@8:PROC
EXTRN	__imp___hwrite@12:PROC
EXTRN	__imp___lclose@4:PROC
EXTRN	__imp___llseek@12:PROC
EXTRN	__imp__RegisterWindowMessageA@4:PROC
EXTRN	__imp__SendMessageA@16:PROC
EXTRN	__imp__InvalidateRect@12:PROC
EXTRN	__imp__atol:PROC
EXTRN	?AfxThrowInvalidArgException@@YGXXZ:PROC	; AfxThrowInvalidArgException
EXTRN	?GetRuntimeClass@CObject@@UBEPAUCRuntimeClass@@XZ:PROC ; CObject::GetRuntimeClass
EXTRN	__imp_??A?$CSimpleStringT@D$00@ATL@@QBEDH@Z:PROC
EXTRN	__imp_?Concatenate@?$CSimpleStringT@D$00@ATL@@KAXAAV12@PBDH1H@Z:PROC
EXTRN	__imp_??0?$CStringT@DV?$StrTraitMFC_DLL@DV?$ChTraitsCRT@D@ATL@@@@@ATL@@QAE@XZ:PROC
EXTRN	__imp_??0?$CStringT@DV?$StrTraitMFC_DLL@DV?$ChTraitsCRT@D@ATL@@@@@ATL@@QAE@PAUIAtlStringMgr@1@@Z:PROC
EXTRN	__imp_??0?$CStringT@DV?$StrTraitMFC_DLL@DV?$ChTraitsCRT@D@ATL@@@@@ATL@@QAE@ABV01@@Z:PROC
EXTRN	__imp_??0?$CStringT@DV?$StrTraitMFC_DLL@DV?$ChTraitsCRT@D@ATL@@@@@ATL@@QAE@PBD@Z:PROC
EXTRN	__imp_??1?$CStringT@DV?$StrTraitMFC_DLL@DV?$ChTraitsCRT@D@ATL@@@@@ATL@@QAE@XZ:PROC
EXTRN	__imp_??4?$CStringT@DV?$StrTraitMFC_DLL@DV?$ChTraitsCRT@D@ATL@@@@@ATL@@QAEAAV01@ABV01@@Z:PROC
EXTRN	__imp_??4?$CStringT@DV?$StrTraitMFC_DLL@DV?$ChTraitsCRT@D@ATL@@@@@ATL@@QAEAAV01@PBD@Z:PROC
EXTRN	__imp_??Y?$CStringT@DV?$StrTraitMFC_DLL@DV?$ChTraitsCRT@D@ATL@@@@@ATL@@QAEAAV01@ABV?$CSimpleStringT@D$00@1@@Z:PROC
EXTRN	__imp_??Y?$CStringT@DV?$StrTraitMFC_DLL@DV?$ChTraitsCRT@D@ATL@@@@@ATL@@QAEAAV01@PBD@Z:PROC
EXTRN	__imp_??Y?$CStringT@DV?$StrTraitMFC_DLL@DV?$ChTraitsCRT@D@ATL@@@@@ATL@@QAEAAV01@D@Z:PROC
EXTRN	__imp_?GetManager@?$CStringT@DV?$StrTraitMFC_DLL@DV?$ChTraitsCRT@D@ATL@@@@@ATL@@QBEPAUIAtlStringMgr@2@XZ:PROC
EXTRN	__imp_?Compare@?$CStringT@DV?$StrTraitMFC_DLL@DV?$ChTraitsCRT@D@ATL@@@@@ATL@@QBEHPBD@Z:PROC
EXTRN	__imp_?TrimRight@?$CStringT@DV?$StrTraitMFC_DLL@DV?$ChTraitsCRT@D@ATL@@@@@ATL@@QAEAAV12@XZ:PROC
EXTRN	__imp_?TrimLeft@?$CStringT@DV?$StrTraitMFC_DLL@DV?$ChTraitsCRT@D@ATL@@@@@ATL@@QAEAAV12@XZ:PROC
EXTRN	__imp_?Right@?$CStringT@DV?$StrTraitMFC_DLL@DV?$ChTraitsCRT@D@ATL@@@@@ATL@@QBE?AV12@H@Z:PROC
EXTRN	__imp_?Left@?$CStringT@DV?$StrTraitMFC_DLL@DV?$ChTraitsCRT@D@ATL@@@@@ATL@@QBE?AV12@H@Z:PROC
EXTRN	__imp_?Format@?$CStringT@DV?$StrTraitMFC_DLL@DV?$ChTraitsCRT@D@ATL@@@@@ATL@@QAAXPBDZZ:PROC
EXTRN	__imp_?AllocSysString@?$CStringT@DV?$StrTraitMFC_DLL@DV?$ChTraitsCRT@D@ATL@@@@@ATL@@QBEPA_WXZ:PROC
EXTRN	?ReadCount@CArchive@@QAEKXZ:PROC		; CArchive::ReadCount
EXTRN	?WriteCount@CArchive@@QAEXK@Z:PROC		; CArchive::WriteCount
EXTRN	?Create@CPlex@@SGPAU1@AAPAU1@II@Z:PROC		; CPlex::Create
EXTRN	?FreeDataChain@CPlex@@QAEXXZ:PROC		; CPlex::FreeDataChain
EXTRN	??$SerializeElements@V?$CStringT@DV?$StrTraitMFC_DLL@DV?$ChTraitsCRT@D@ATL@@@@@ATL@@@@YGXAAVCArchive@@PAV?$CStringT@DV?$StrTraitMFC_DLL@DV?$ChTraitsCRT@D@ATL@@@@@ATL@@H@Z:PROC ; SerializeElements<ATL::CStringT<char,StrTraitMFC_DLL<char,ATL::ChTraitsCRT<char> > > >
EXTRN	??0CClientDC@@QAE@PAVCWnd@@@Z:PROC		; CClientDC::CClientDC
EXTRN	??1CClientDC@@UAE@XZ:PROC			; CClientDC::~CClientDC
EXTRN	__imp_?OnAddInToolCommand@CAddInManager@@QAEHW4EAICommandType@@@Z:PROC
EXTRN	__imp_?OnAddInToolCommand@CAddInManager@@QAEHW4EAICommandType@@PBDJ@Z:PROC
EXTRN	?GetMetaTextForScript@IMetaTable@@QAEPBDPAUHWND__@@W4E_CODEPAGE@1@PBDH@Z:PROC ; IMetaTable::GetMetaTextForScript
EXTRN	?GetMultipleMetaTextForScript@IMetaTable@@QAE?AV?$CStringT@DV?$StrTraitMFC_DLL@DV?$ChTraitsCRT@D@ATL@@@@@ATL@@PAUHWND__@@V23@1HH@Z:PROC ; IMetaTable::GetMultipleMetaTextForScript
EXTRN	?IsSpecialGroupGraph@IMetaTable@@QAE_NPBD@Z:PROC ; IMetaTable::IsSpecialGroupGraph
EXTRN	?IsPriceChartType@IMetaTable@@QAEHPBD@Z:PROC	; IMetaTable::IsPriceChartType
EXTRN	?CanNotMultipleAddedOnMultipleSameNameIndicator@IMetaTable@@QAEHPBD@Z:PROC ; IMetaTable::CanNotMultipleAddedOnMultipleSameNameIndicator
EXTRN	?IsMarketOrServerIndex@IMetaTable@@QAEHPBD@Z:PROC ; IMetaTable::IsMarketOrServerIndex
EXTRN	??0CIndicatorDefaultData@@QAE@PBVCKTBChartCtrl@@W4SCALEGRIDTYPE@CScaleBaseData@@W4VERTSCALEPOSITION@3@@Z:PROC ; CIndicatorDefaultData::CIndicatorDefaultData
EXTRN	?GetVertScaleGroupDataForMaking@CIndicatorDefaultData@@QBEHAAV?$CStringT@DV?$StrTraitMFC_DLL@DV?$ChTraitsCRT@D@ATL@@@@@ATL@@PAVCIndicatorList@@ABV23@0@Z:PROC ; CIndicatorDefaultData::GetVertScaleGroupDataForMaking
EXTRN	?RemoveAll@CSaveChartCfgList@@QAEXXZ:PROC	; CSaveChartCfgList::RemoveAll
EXTRN	?RemoveFromIndexToEnd@CSaveChartCfgList@@QAE_NH@Z:PROC ; CSaveChartCfgList::RemoveFromIndexToEnd
EXTRN	?OnSize@CKTBChartCtrl@@IAEXIHH@Z:PROC		; CKTBChartCtrl::OnSize
EXTRN	?OnWindowPosChanged@CKTBChartCtrl@@IAEXPAUtagWINDOWPOS@@@Z:PROC ; CKTBChartCtrl::OnWindowPosChanged
EXTRN	?SetMapDefaultInCurrent@CKTBChartCtrl@@IAEHH@Z:PROC ; CKTBChartCtrl::SetMapDefaultInCurrent
EXTRN	?HasIndicator@CKTBChartCtrl@@IAEHPBD@Z:PROC	; CKTBChartCtrl::HasIndicator
EXTRN	?GetMainBlockRegion@CKTBChartCtrl@@QAE?AVCRect@@XZ:PROC ; CKTBChartCtrl::GetMainBlockRegion
EXTRN	?GetIndicatorDefaultData@CKTBChartCtrl@@ABEXAAVCIndicatorDefaultData@@@Z:PROC ; CKTBChartCtrl::GetIndicatorDefaultData
EXTRN	?SaveChartCfg@CKTBChartCtrl@@AAE_NH@Z:PROC	; CKTBChartCtrl::SaveChartCfg
EXTRN	?ChangeChartType@CKTBChartCtrl@@AAE_NV?$CStringT@DV?$StrTraitMFC_DLL@DV?$ChTraitsCRT@D@ATL@@@@@ATL@@000@Z:PROC ; CKTBChartCtrl::ChangeChartType
EXTRN	?ChangeOneChart@CKTBChartCtrl@@AAEHABV?$CStringT@DV?$StrTraitMFC_DLL@DV?$ChTraitsCRT@D@ATL@@@@@ATL@@AAV23@@Z:PROC ; CKTBChartCtrl::ChangeOneChart
EXTRN	?RollbackLastNoOneChart@CKTBChartCtrl@@AAE_NXZ:PROC ; CKTBChartCtrl::RollbackLastNoOneChart
EXTRN	?SetMainBlock_MainBlock@CKTBChartCtrl@@AAEX_NH@Z:PROC ; CKTBChartCtrl::SetMainBlock_MainBlock
EXTRN	?ResetScroll@CKTBChartCtrl@@QAEXH@Z:PROC	; CKTBChartCtrl::ResetScroll
EXTRN	?GetDataStartEnd@CKTBChartCtrl@@QAEHAAH0@Z:PROC	; CKTBChartCtrl::GetDataStartEnd
EXTRN	?ApplySkin@CKTBChartCtrl@@AAE_NXZ:PROC		; CKTBChartCtrl::ApplySkin
EXTRN	?OnPacketTRData@CKTBChartCtrl@@IAEXABV?$CStringT@DV?$StrTraitMFC_DLL@DV?$ChTraitsCRT@D@ATL@@@@@ATL@@_N@Z:PROC ; CKTBChartCtrl::OnPacketTRData
EXTRN	?InvalidateControl@CKTBChartCtrl@@QAEXPBUtagRECT@@H@Z:PROC ; CKTBChartCtrl::InvalidateControl
EXTRN	?GetTestEnvValue@CKTBChartCtrl@@QAEHPBDAAV?$CStringT@DV?$StrTraitMFC_DLL@DV?$ChTraitsCRT@D@ATL@@@@@ATL@@@Z:PROC ; CKTBChartCtrl::GetTestEnvValue
EXTRN	__imp_?GetGroupName@CIndicatorGroupData@@QBE?AV?$CStringT@DV?$StrTraitMFC_DLL@DV?$ChTraitsCRT@D@ATL@@@@@ATL@@XZ:PROC
EXTRN	__imp_?GetIndicatorNameList@CIndicatorGroupData@@QAEPAV?$CList@V?$CStringT@DV?$StrTraitMFC_DLL@DV?$ChTraitsCRT@D@ATL@@@@@ATL@@V12@@@XZ:PROC
EXTRN	??_E?$CList@V?$CStringT@DV?$StrTraitMFC_DLL@DV?$ChTraitsCRT@D@ATL@@@@@ATL@@V12@@@UAEPAXI@Z:PROC ; CList<ATL::CStringT<char,StrTraitMFC_DLL<char,ATL::ChTraitsCRT<char> > >,ATL::CStringT<char,StrTraitMFC_DLL<char,ATL::ChTraitsCRT<char> > > >::`vector deleting destructor'
EXTRN	__imp_?GetHeadPosition@CIndicatorGroupDataList@@QAEPAU__POSITION@@XZ:PROC
EXTRN	__imp_?GetNext@CIndicatorGroupDataList@@QAEPAVCIndicatorGroupData@@AAPAU__POSITION@@@Z:PROC
EXTRN	__imp_?GetAllIndicatorNameWithGroupName@CIndicatorList@@QAEPAVCIndicatorGroupDataList@@XZ:PROC
EXTRN	__imp_?GetGraphIndicatorInfo@CIndicatorList@@QAEPAVCIndicatorInfo@@W4EIndicatorListType@@PBD1W4EIndicatorInfoGettingType@@@Z:PROC
EXTRN	__imp_?CreateGraphIndicatorInfo@CIndicatorList@@QAEPAVCIndicatorInfo@@PBD@Z:PROC
EXTRN	__imp_?RemoveAllIndicatorInfo@CIndicatorList@@QAEHW4EIndicatorListType@@@Z:PROC
EXTRN	__imp_?RemoveAllIndicatorInfo@CIndicatorList@@QAEHW4EIndicatorListType@@PBD@Z:PROC
EXTRN	__imp_??0CGraphRegionColor@@QAE@ABK00@Z:PROC
EXTRN	__imp_?SetColor1@CGraphColor@@QAEXABK@Z:PROC
EXTRN	__imp_?GetColor4@CGraphColor@@QBEKXZ:PROC
EXTRN	?IntToString@CDataConversion@@SA?AV?$CStringT@DV?$StrTraitMFC_DLL@DV?$ChTraitsCRT@D@ATL@@@@@ATL@@_JH@Z:PROC ; CDataConversion::IntToString
EXTRN	?GetStringData@CDataConversion@@SA?AV?$CStringT@DV?$StrTraitMFC_DLL@DV?$ChTraitsCRT@D@ATL@@@@@ATL@@AAV23@ABV23@_N@Z:PROC ; CDataConversion::GetStringData
EXTRN	__imp_?GetGraphDataForMaking@CIndicatorInfo@@QBEXAAV?$CStringT@DV?$StrTraitMFC_DLL@DV?$ChTraitsCRT@D@ATL@@@@@ATL@@@Z:PROC
EXTRN	__imp_?GetSubGraphColor@CIndicatorInfo@@QBE?AVCGraphColor@@H@Z:PROC
EXTRN	__imp_?GetCopyDataFrom@CIndicatorInfo@@QAE_NPBV1@H@Z:PROC
EXTRN	__imp_?SetSubGraphColor@CIndicatorInfo@@QAE_NHABVCGraphColor@@@Z:PROC
EXTRN	__imp_?GetIndexFromData@CPacket@@QAEHN@Z:PROC
EXTRN	__imp_?GetData@CPacket@@QAENH@Z:PROC
EXTRN	__imp_?GetStartPeriod@CPacket@@QAEHXZ:PROC
EXTRN	__imp_?GetnumericDataList@CPacket@@QAEPAV?$CList@NN@@XZ:PROC
EXTRN	__imp_?SetStartPeriod@CPacket@@QAEXH@Z:PROC
EXTRN	__imp_?SetPacketData@CPacketList@@QAEXABV?$CStringT@DV?$StrTraitMFC_DLL@DV?$ChTraitsCRT@D@ATL@@@@@ATL@@JJ@Z:PROC
EXTRN	__imp_?AddPacket@CPacketList@@QAEXV?$CStringT@DV?$StrTraitMFC_DLL@DV?$ChTraitsCRT@D@ATL@@@@@ATL@@@Z:PROC
EXTRN	__imp_?RemovePacket@CPacketList@@QAE_NV?$CStringT@DV?$StrTraitMFC_DLL@DV?$ChTraitsCRT@D@ATL@@@@@ATL@@@Z:PROC
EXTRN	__imp_?GetTimeInterval@CPacketList@@QAEHXZ:PROC
EXTRN	__imp_?GetMaxCount@CPacketList@@QAEHXZ:PROC
EXTRN	__imp_?GetPacketType@CPacketList@@QAE?AV?$CStringT@DV?$StrTraitMFC_DLL@DV?$ChTraitsCRT@D@ATL@@@@@ATL@@V23@_N@Z:PROC
EXTRN	__imp_?GetDataFromIndex@CPacketList@@QAENV?$CStringT@DV?$StrTraitMFC_DLL@DV?$ChTraitsCRT@D@ATL@@@@@ATL@@H@Z:PROC
EXTRN	__imp_?GetDateUnitType@CPacketList@@QAE?AW4HORZSCALEDRAWERTYPE@CScaleBaseData@@XZ:PROC
EXTRN	__imp_?GetStartDate@CPacketList@@QAEHXZ:PROC
EXTRN	__imp_?GetBaseData@CPacketList@@QAEPAVCPacket@@V?$CStringT@DV?$StrTraitMFC_DLL@DV?$ChTraitsCRT@D@ATL@@@@@ATL@@_N@Z:PROC
EXTRN	__imp_?ClearDataAll@CPacketList@@QAEH_N@Z:PROC
EXTRN	__imp_?ClearData@CPacketList@@QAEHABV?$CStringT@DV?$StrTraitMFC_DLL@DV?$ChTraitsCRT@D@ATL@@@@@ATL@@0_N@Z:PROC
EXTRN	??_ECDumpLogger@@UAEPAXI@Z:PROC			; CDumpLogger::`vector deleting destructor'
EXTRN	@__security_check_cookie@4:PROC
EXTRN	___CxxFrameHandler3:PROC
EXTRN	??_7type_info@@6B@:QWORD			; type_info::`vftable'
EXTRN	?g_iMetaTable@@3VIMetaTable@@A:BYTE		; g_iMetaTable
EXTRN	___security_cookie:DWORD
EXTRN	__fltused:DWORD
_BSS	SEGMENT
?RMSG_CHARTMSG_EVENTMESSAGE@@3IB DD 01H DUP (?)		; RMSG_CHARTMSG_EVENTMESSAGE
_BSS	ENDS
CRT$XCU	SEGMENT
?RMSG_CHARTMSG_EVENTMESSAGE$initializer$@@3P6AXXZA DD FLAT:??__ERMSG_CHARTMSG_EVENTMESSAGE@@YAXXZ ; RMSG_CHARTMSG_EVENTMESSAGE$initializer$
CRT$XCU	ENDS
;	COMDAT ??_R1A@?0A@EA@CDumpLogger@@8
rdata$r	SEGMENT
??_R1A@?0A@EA@CDumpLogger@@8 DD FLAT:??_R0?AVCDumpLogger@@@8 ; CDumpLogger::`RTTI Base Class Descriptor at (0,-1,0,64)'
	DD	01H
	DD	00H
	DD	0ffffffffH
	DD	00H
	DD	040H
	DD	FLAT:??_R3CDumpLogger@@8
rdata$r	ENDS
;	COMDAT ??_R2CDumpLogger@@8
rdata$r	SEGMENT
??_R2CDumpLogger@@8 DD FLAT:??_R1A@?0A@EA@CDumpLogger@@8 ; CDumpLogger::`RTTI Base Class Array'
	DD	FLAT:??_R1A@?0A@EA@CObject@@8
rdata$r	ENDS
;	COMDAT ??_R3CDumpLogger@@8
rdata$r	SEGMENT
??_R3CDumpLogger@@8 DD 00H				; CDumpLogger::`RTTI Class Hierarchy Descriptor'
	DD	00H
	DD	02H
	DD	FLAT:??_R2CDumpLogger@@8
rdata$r	ENDS
;	COMDAT ??_R0?AVCDumpLogger@@@8
data$rs	SEGMENT
??_R0?AVCDumpLogger@@@8 DD FLAT:??_7type_info@@6B@	; CDumpLogger `RTTI Type Descriptor'
	DD	00H
	DB	'.?AVCDumpLogger@@', 00H
data$rs	ENDS
;	COMDAT ??_R4CDumpLogger@@6B@
rdata$r	SEGMENT
??_R4CDumpLogger@@6B@ DD 00H				; CDumpLogger::`RTTI Complete Object Locator'
	DD	00H
	DD	00H
	DD	FLAT:??_R0?AVCDumpLogger@@@8
	DD	FLAT:??_R3CDumpLogger@@8
rdata$r	ENDS
;	COMDAT ??_R1A@?0A@EA@?$CList@V?$CStringT@DV?$StrTraitMFC_DLL@DV?$ChTraitsCRT@D@ATL@@@@@ATL@@V12@@@8
rdata$r	SEGMENT
??_R1A@?0A@EA@?$CList@V?$CStringT@DV?$StrTraitMFC_DLL@DV?$ChTraitsCRT@D@ATL@@@@@ATL@@V12@@@8 DD FLAT:??_R0?AV?$CList@V?$CStringT@DV?$StrTraitMFC_DLL@DV?$ChTraitsCRT@D@ATL@@@@@ATL@@V12@@@@8 ; CList<ATL::CStringT<char,StrTraitMFC_DLL<char,ATL::ChTraitsCRT<char> > >,ATL::CStringT<char,StrTraitMFC_DLL<char,ATL::ChTraitsCRT<char> > > >::`RTTI Base Class Descriptor at (0,-1,0,64)'
	DD	01H
	DD	00H
	DD	0ffffffffH
	DD	00H
	DD	040H
	DD	FLAT:??_R3?$CList@V?$CStringT@DV?$StrTraitMFC_DLL@DV?$ChTraitsCRT@D@ATL@@@@@ATL@@V12@@@8
rdata$r	ENDS
;	COMDAT ??_R2?$CList@V?$CStringT@DV?$StrTraitMFC_DLL@DV?$ChTraitsCRT@D@ATL@@@@@ATL@@V12@@@8
rdata$r	SEGMENT
??_R2?$CList@V?$CStringT@DV?$StrTraitMFC_DLL@DV?$ChTraitsCRT@D@ATL@@@@@ATL@@V12@@@8 DD FLAT:??_R1A@?0A@EA@?$CList@V?$CStringT@DV?$StrTraitMFC_DLL@DV?$ChTraitsCRT@D@ATL@@@@@ATL@@V12@@@8 ; CList<ATL::CStringT<char,StrTraitMFC_DLL<char,ATL::ChTraitsCRT<char> > >,ATL::CStringT<char,StrTraitMFC_DLL<char,ATL::ChTraitsCRT<char> > > >::`RTTI Base Class Array'
	DD	FLAT:??_R1A@?0A@EA@CObject@@8
rdata$r	ENDS
;	COMDAT ??_R3?$CList@V?$CStringT@DV?$StrTraitMFC_DLL@DV?$ChTraitsCRT@D@ATL@@@@@ATL@@V12@@@8
rdata$r	SEGMENT
??_R3?$CList@V?$CStringT@DV?$StrTraitMFC_DLL@DV?$ChTraitsCRT@D@ATL@@@@@ATL@@V12@@@8 DD 00H ; CList<ATL::CStringT<char,StrTraitMFC_DLL<char,ATL::ChTraitsCRT<char> > >,ATL::CStringT<char,StrTraitMFC_DLL<char,ATL::ChTraitsCRT<char> > > >::`RTTI Class Hierarchy Descriptor'
	DD	00H
	DD	02H
	DD	FLAT:??_R2?$CList@V?$CStringT@DV?$StrTraitMFC_DLL@DV?$ChTraitsCRT@D@ATL@@@@@ATL@@V12@@@8
rdata$r	ENDS
;	COMDAT ??_R0?AV?$CList@V?$CStringT@DV?$StrTraitMFC_DLL@DV?$ChTraitsCRT@D@ATL@@@@@ATL@@V12@@@@8
data$rs	SEGMENT
??_R0?AV?$CList@V?$CStringT@DV?$StrTraitMFC_DLL@DV?$ChTraitsCRT@D@ATL@@@@@ATL@@V12@@@@8 DD FLAT:??_7type_info@@6B@ ; CList<ATL::CStringT<char,StrTraitMFC_DLL<char,ATL::ChTraitsCRT<char> > >,ATL::CStringT<char,StrTraitMFC_DLL<char,ATL::ChTraitsCRT<char> > > > `RTTI Type Descriptor'
	DD	00H
	DB	'.?AV?$CList@V?$CStringT@DV?$StrTraitMFC_DLL@DV?$ChTraits'
	DB	'CRT@D@ATL@@@@@ATL@@V12@@@', 00H
data$rs	ENDS
;	COMDAT ??_R4?$CList@V?$CStringT@DV?$StrTraitMFC_DLL@DV?$ChTraitsCRT@D@ATL@@@@@ATL@@V12@@@6B@
rdata$r	SEGMENT
??_R4?$CList@V?$CStringT@DV?$StrTraitMFC_DLL@DV?$ChTraitsCRT@D@ATL@@@@@ATL@@V12@@@6B@ DD 00H ; CList<ATL::CStringT<char,StrTraitMFC_DLL<char,ATL::ChTraitsCRT<char> > >,ATL::CStringT<char,StrTraitMFC_DLL<char,ATL::ChTraitsCRT<char> > > >::`RTTI Complete Object Locator'
	DD	00H
	DD	00H
	DD	FLAT:??_R0?AV?$CList@V?$CStringT@DV?$StrTraitMFC_DLL@DV?$ChTraitsCRT@D@ATL@@@@@ATL@@V12@@@@8
	DD	FLAT:??_R3?$CList@V?$CStringT@DV?$StrTraitMFC_DLL@DV?$ChTraitsCRT@D@ATL@@@@@ATL@@V12@@@8
rdata$r	ENDS
;	COMDAT ??_C@_07MGCPDNLD@DEFAULT@
CONST	SEGMENT
??_C@_07MGCPDNLD@DEFAULT@ DB 'DEFAULT', 00H		; `string'
CONST	ENDS
;	COMDAT ??_C@_0DI@LMILEPF@?$DL1?$DL2?$DL0?$DL?$AN?6VertScaleGroupEnd?$DL?$AN?6Bl@
CONST	SEGMENT
??_C@_0DI@LMILEPF@?$DL1?$DL2?$DL0?$DL?$AN?6VertScaleGroupEnd?$DL?$AN?6Bl@ DB ';'
	DB	'1;2;0;', 0dH, 0aH, 'VertScaleGroupEnd;', 0dH, 0aH, 'BlockEnd;'
	DB	0dH, 0aH, 'BlockColumnEnd;', 00H		; `string'
CONST	ENDS
;	COMDAT ??_C@_0CD@OBEHMDNE@?$DL4?$DL2?$DL?1?$DL?3?$DL0?$DL0?$DL0?$DL?$AN?6VertScaleGroup@
CONST	SEGMENT
??_C@_0CD@OBEHMDNE@?$DL4?$DL2?$DL?1?$DL?3?$DL0?$DL0?$DL0?$DL?$AN?6VertScaleGroup@ DB ';'
	DB	'4;2;/;:;0;0;0;', 0dH, 0aH, 'VertScaleGroup;', 0dH, 0aH, 00H ; `string'
CONST	ENDS
;	COMDAT ??_C@_0BH@CLHAEGOH@BlockColumn?$DL?$AN?6Block?$DL?$AN?6@
CONST	SEGMENT
??_C@_0BH@CLHAEGOH@BlockColumn?$DL?$AN?6Block?$DL?$AN?6@ DB 'BlockColumn;'
	DB	0dH, 0aH, 'Block;', 0dH, 0aH, 00H		; `string'
CONST	ENDS
;	COMDAT ??_C@_0BP@FKJBGGCH@CKTBChartCtrl?3?3SetPacketData?$CI?$CJ@
CONST	SEGMENT
??_C@_0BP@FKJBGGCH@CKTBChartCtrl?3?3SetPacketData?$CI?$CJ@ DB 'CKTBChartC'
	DB	'trl::SetPacketData()', 00H			; `string'
CONST	ENDS
;	COMDAT ??_C@_0O@BPAIOFGL@ChartSpeedLog@
CONST	SEGMENT
??_C@_0O@BPAIOFGL@ChartSpeedLog@ DB 'ChartSpeedLog', 00H ; `string'
CONST	ENDS
;	COMDAT ??_C@_0FE@JECHEICF@Start?5Time?5?3?5?$CF02d?3?$CF02d?3?$CF02d?4?$CF03@
CONST	SEGMENT
??_C@_0FE@JECHEICF@Start?5Time?5?3?5?$CF02d?3?$CF02d?3?$CF02d?4?$CF03@ DB 'S'
	DB	'tart Time : %02d:%02d:%02d.%03d', 0dH, 0aH, 'End Time : %02d:'
	DB	'%02d:%02d.%03d', 0dH, 0aH, 'Data Count : %d', 0dH, 0aH, 00H ; `string'
CONST	ENDS
;	COMDAT ??_C@_01ICJEACDI@?$DL@
CONST	SEGMENT
??_C@_01ICJEACDI@?$DL@ DB ';', 00H			; `string'
CONST	ENDS
;	COMDAT ??_C@_04ODOGNJOP@?$CF05d@
CONST	SEGMENT
??_C@_04ODOGNJOP@?$CF05d@ DB '%05d', 00H		; `string'
CONST	ENDS
;	COMDAT ??_C@_08MHFHIKKE@TR?5Limit@
CONST	SEGMENT
??_C@_08MHFHIKKE@TR?5Limit@ DB 'TR Limit', 00H		; `string'
CONST	ENDS
;	COMDAT ??_C@_0BF@GOEHBEJD@?$CF02d?3?$CF02d?3?$CF02d?3?$CF03d?7@
CONST	SEGMENT
??_C@_0BF@GOEHBEJD@?$CF02d?3?$CF02d?3?$CF02d?3?$CF03d?7@ DB '%02d:%02d:%0'
	DB	'2d:%03d', 09H, 00H				; `string'
CONST	ENDS
;	COMDAT ??_C@_0BN@HKLPFIKN@?$AN?6?$AN?6?$AN?6?$FL?$CF02d?3?$CF02d?3?$CF02d?3?$CF03d?5?5@
CONST	SEGMENT
??_C@_0BN@HKLPFIKN@?$AN?6?$AN?6?$AN?6?$FL?$CF02d?3?$CF02d?3?$CF02d?3?$CF03d?5?5@ DB 0dH
	DB	0aH, 0dH, 0aH, 0dH, 0aH, '[%02d:%02d:%02d:%03d  ', 00H ; `string'
CONST	ENDS
;	COMDAT ??_C@_03BFOLIMEF@?$FN?$AN?6@
CONST	SEGMENT
??_C@_03BFOLIMEF@?$FN?$AN?6@ DB ']', 0dH, 0aH, 00H	; `string'
CONST	ENDS
;	COMDAT ??_C@_0BH@KLLDLFAP@?$CFs?2?$CFs_?$CF04d?$CF02d?$CF02d?4log@
CONST	SEGMENT
??_C@_0BH@KLLDLFAP@?$CFs?2?$CFs_?$CF04d?$CF02d?$CF02d?4log@ DB '%s\%s_%04'
	DB	'd%02d%02d.log', 00H				; `string'
CONST	ENDS
;	COMDAT ??_C@_0CJ@GKAGEPNM@?$CFs?2?$CFs_?$CF04d?$CF02d?$CF02d_?$CF02d?$CF02d?$CF02d@
CONST	SEGMENT
??_C@_0CJ@GKAGEPNM@?$CFs?2?$CFs_?$CF04d?$CF02d?$CF02d_?$CF02d?$CF02d?$CF02d@ DB '%'
	DB	's\%s_%04d%02d%02d_%02d%02d%02d_%03d.log', 00H ; `string'
CONST	ENDS
;	COMDAT ??_C@_05GDFJMIEM@MDump@
CONST	SEGMENT
??_C@_05GDFJMIEM@MDump@ DB 'MDump', 00H			; `string'
CONST	ENDS
;	COMDAT ??_C@_07PNFMHCIF@C?3?2Logs@
CONST	SEGMENT
??_C@_07PNFMHCIF@C?3?2Logs@ DB 'C:\Logs', 00H		; `string'
CONST	ENDS
;	COMDAT ??_7CDumpLogger@@6B@
CONST	SEGMENT
??_7CDumpLogger@@6B@ DD FLAT:??_R4CDumpLogger@@6B@	; CDumpLogger::`vftable'
	DD	FLAT:?GetRuntimeClass@CObject@@UBEPAUCRuntimeClass@@XZ
	DD	FLAT:??_ECDumpLogger@@UAEPAXI@Z
	DD	FLAT:?Serialize@CObject@@UAEXAAVCArchive@@@Z
	DD	FLAT:?AssertValid@CObject@@UBEXXZ
	DD	FLAT:?Dump@CObject@@UBEXAAVCDumpContext@@@Z
CONST	ENDS
;	COMDAT ??_C@_08BHMMGBBH@Graph?$DL?$AN?6@
CONST	SEGMENT
??_C@_08BHMMGBBH@Graph?$DL?$AN?6@ DB 'Graph;', 0dH, 0aH, 00H ; `string'
CONST	ENDS
;	COMDAT ??_C@_05FPJIJNHE@_PAIR@
CONST	SEGMENT
??_C@_05FPJIJNHE@_PAIR@ DB '_PAIR', 00H			; `string'
CONST	ENDS
;	COMDAT ??_C@_02PCIJFNDE@?$AN?6@
CONST	SEGMENT
??_C@_02PCIJFNDE@?$AN?6@ DB 0dH, 0aH, 00H		; `string'
CONST	ENDS
;	COMDAT ??_C@_01IHBHIGKO@?0@
CONST	SEGMENT
??_C@_01IHBHIGKO@?0@ DB ',', 00H			; `string'
CONST	ENDS
;	COMDAT ??_C@_01JLIPDDHJ@?3@
CONST	SEGMENT
??_C@_01JLIPDDHJ@?3@ DB ':', 00H			; `string'
CONST	ENDS
;	COMDAT ??_7?$CList@V?$CStringT@DV?$StrTraitMFC_DLL@DV?$ChTraitsCRT@D@ATL@@@@@ATL@@V12@@@6B@
CONST	SEGMENT
??_7?$CList@V?$CStringT@DV?$StrTraitMFC_DLL@DV?$ChTraitsCRT@D@ATL@@@@@ATL@@V12@@@6B@ DD FLAT:??_R4?$CList@V?$CStringT@DV?$StrTraitMFC_DLL@DV?$ChTraitsCRT@D@ATL@@@@@ATL@@V12@@@6B@ ; CList<ATL::CStringT<char,StrTraitMFC_DLL<char,ATL::ChTraitsCRT<char> > >,ATL::CStringT<char,StrTraitMFC_DLL<char,ATL::ChTraitsCRT<char> > > >::`vftable'
	DD	FLAT:?GetRuntimeClass@CObject@@UBEPAUCRuntimeClass@@XZ
	DD	FLAT:??_E?$CList@V?$CStringT@DV?$StrTraitMFC_DLL@DV?$ChTraitsCRT@D@ATL@@@@@ATL@@V12@@@UAEPAXI@Z
	DD	FLAT:?Serialize@?$CList@V?$CStringT@DV?$StrTraitMFC_DLL@DV?$ChTraitsCRT@D@ATL@@@@@ATL@@V12@@@UAEXAAVCArchive@@@Z
	DD	FLAT:?AssertValid@CObject@@UBEXXZ
	DD	FLAT:?Dump@CObject@@UBEXAAVCDumpContext@@@Z
CONST	ENDS
;	COMDAT ??_R1A@?0A@EA@CObject@@8
rdata$r	SEGMENT
??_R1A@?0A@EA@CObject@@8 DD FLAT:??_R0?AVCObject@@@8	; CObject::`RTTI Base Class Descriptor at (0,-1,0,64)'
	DD	00H
	DD	00H
	DD	0ffffffffH
	DD	00H
	DD	040H
	DD	FLAT:??_R3CObject@@8
rdata$r	ENDS
;	COMDAT ??_R2CObject@@8
rdata$r	SEGMENT
??_R2CObject@@8 DD FLAT:??_R1A@?0A@EA@CObject@@8	; CObject::`RTTI Base Class Array'
rdata$r	ENDS
;	COMDAT ??_R3CObject@@8
rdata$r	SEGMENT
??_R3CObject@@8 DD 00H					; CObject::`RTTI Class Hierarchy Descriptor'
	DD	00H
	DD	01H
	DD	FLAT:??_R2CObject@@8
rdata$r	ENDS
;	COMDAT ??_R0?AVCObject@@@8
data$rs	SEGMENT
??_R0?AVCObject@@@8 DD FLAT:??_7type_info@@6B@		; CObject `RTTI Type Descriptor'
	DD	00H
	DB	'.?AVCObject@@', 00H
data$rs	ENDS
;	COMDAT ??_C@_00CNPNBAHC@@
CONST	SEGMENT
??_C@_00CNPNBAHC@@ DB 00H				; `string'
CONST	ENDS
;	COMDAT xdata$x
xdata$x	SEGMENT
__unwindtable$?LogStringToFile@CDumpLogger@@SAXPBD0H00@Z DD 0ffffffffH
	DD	FLAT:__unwindfunclet$?LogStringToFile@CDumpLogger@@SAXPBD0H00@Z$1
	DD	0ffffffffH
	DD	FLAT:__unwindfunclet$?LogStringToFile@CDumpLogger@@SAXPBD0H00@Z$0
__ehfuncinfo$?LogStringToFile@CDumpLogger@@SAXPBD0H00@Z DD 019930522H
	DD	02H
	DD	FLAT:__unwindtable$?LogStringToFile@CDumpLogger@@SAXPBD0H00@Z
	DD	2 DUP(00H)
	DD	2 DUP(00H)
	DD	00H
	DD	01H
xdata$x	ENDS
;	COMDAT xdata$x
xdata$x	SEGMENT
__ehfuncinfo$?WriteToStringLog@CDumpLogger@@QAEXPBD0H@Z DD 019930522H
	DD	05H
	DD	FLAT:__unwindtable$?WriteToStringLog@CDumpLogger@@QAEXPBD0H@Z
	DD	2 DUP(00H)
	DD	2 DUP(00H)
	DD	00H
	DD	01H
__unwindtable$?WriteToStringLog@CDumpLogger@@QAEXPBD0H@Z DD 0ffffffffH
	DD	FLAT:__unwindfunclet$?WriteToStringLog@CDumpLogger@@QAEXPBD0H@Z$0
	DD	00H
	DD	FLAT:__unwindfunclet$?WriteToStringLog@CDumpLogger@@QAEXPBD0H@Z$1
	DD	01H
	DD	FLAT:__unwindfunclet$?WriteToStringLog@CDumpLogger@@QAEXPBD0H@Z$5
	DD	02H
	DD	FLAT:__unwindfunclet$?WriteToStringLog@CDumpLogger@@QAEXPBD0H@Z$6
	DD	00H
	DD	FLAT:__unwindfunclet$?WriteToStringLog@CDumpLogger@@QAEXPBD0H@Z$4
xdata$x	ENDS
;	COMDAT xdata$x
xdata$x	SEGMENT
__unwindtable$??0CDumpLogger@@QAE@PBDH0@Z DD 0ffffffffH
	DD	FLAT:__unwindfunclet$??0CDumpLogger@@QAE@PBDH0@Z$0
__ehfuncinfo$??0CDumpLogger@@QAE@PBDH0@Z DD 019930522H
	DD	01H
	DD	FLAT:__unwindtable$??0CDumpLogger@@QAE@PBDH0@Z
	DD	2 DUP(00H)
	DD	2 DUP(00H)
	DD	00H
	DD	01H
xdata$x	ENDS
;	COMDAT xdata$x
xdata$x	SEGMENT
__unwindtable$?Serialize@?$CList@V?$CStringT@DV?$StrTraitMFC_DLL@DV?$ChTraitsCRT@D@ATL@@@@@ATL@@V12@@@UAEXAAVCArchive@@@Z DD 0ffffffffH
	DD	FLAT:__unwindfunclet$?Serialize@?$CList@V?$CStringT@DV?$StrTraitMFC_DLL@DV?$ChTraitsCRT@D@ATL@@@@@ATL@@V12@@@UAEXAAVCArchive@@@Z$0
	DD	00H
	DD	FLAT:__unwindfunclet$?Serialize@?$CList@V?$CStringT@DV?$StrTraitMFC_DLL@DV?$ChTraitsCRT@D@ATL@@@@@ATL@@V12@@@UAEXAAVCArchive@@@Z$2
__ehfuncinfo$?Serialize@?$CList@V?$CStringT@DV?$StrTraitMFC_DLL@DV?$ChTraitsCRT@D@ATL@@@@@ATL@@V12@@@UAEXAAVCArchive@@@Z DD 019930522H
	DD	02H
	DD	FLAT:__unwindtable$?Serialize@?$CList@V?$CStringT@DV?$StrTraitMFC_DLL@DV?$ChTraitsCRT@D@ATL@@@@@ATL@@V12@@@UAEXAAVCArchive@@@Z
	DD	2 DUP(00H)
	DD	2 DUP(00H)
	DD	00H
	DD	01H
xdata$x	ENDS
;	COMDAT xdata$x
xdata$x	SEGMENT
__ehfuncinfo$??1?$CList@V?$CStringT@DV?$StrTraitMFC_DLL@DV?$ChTraitsCRT@D@ATL@@@@@ATL@@V12@@@UAE@XZ DD 019930522H
	DD	00H
	DD	00H
	DD	2 DUP(00H)
	DD	2 DUP(00H)
	DD	00H
	DD	05H
xdata$x	ENDS
;	COMDAT xdata$x
xdata$x	SEGMENT
__unwindtable$?AddTail@?$CList@V?$CStringT@DV?$StrTraitMFC_DLL@DV?$ChTraitsCRT@D@ATL@@@@@ATL@@V12@@@QAEPAU__POSITION@@V?$CStringT@DV?$StrTraitMFC_DLL@DV?$ChTraitsCRT@D@ATL@@@@@ATL@@@Z DD 0ffffffffH
	DD	FLAT:__unwindfunclet$?AddTail@?$CList@V?$CStringT@DV?$StrTraitMFC_DLL@DV?$ChTraitsCRT@D@ATL@@@@@ATL@@V12@@@QAEPAU__POSITION@@V?$CStringT@DV?$StrTraitMFC_DLL@DV?$ChTraitsCRT@D@ATL@@@@@ATL@@@Z$0
__ehfuncinfo$?AddTail@?$CList@V?$CStringT@DV?$StrTraitMFC_DLL@DV?$ChTraitsCRT@D@ATL@@@@@ATL@@V12@@@QAEPAU__POSITION@@V?$CStringT@DV?$StrTraitMFC_DLL@DV?$ChTraitsCRT@D@ATL@@@@@ATL@@@Z DD 019930522H
	DD	01H
	DD	FLAT:__unwindtable$?AddTail@?$CList@V?$CStringT@DV?$StrTraitMFC_DLL@DV?$ChTraitsCRT@D@ATL@@@@@ATL@@V12@@@QAEPAU__POSITION@@V?$CStringT@DV?$StrTraitMFC_DLL@DV?$ChTraitsCRT@D@ATL@@@@@ATL@@@Z
	DD	2 DUP(00H)
	DD	2 DUP(00H)
	DD	00H
	DD	01H
xdata$x	ENDS
;	COMDAT xdata$x
xdata$x	SEGMENT
__unwindtable$?SetPacketDataInPacketList@CKTBChartCtrl@@AAE_NPBDJJH@Z DD 0ffffffffH
	DD	FLAT:__unwindfunclet$?SetPacketDataInPacketList@CKTBChartCtrl@@AAE_NPBDJJH@Z$0
	DD	00H
	DD	FLAT:__unwindfunclet$?SetPacketDataInPacketList@CKTBChartCtrl@@AAE_NPBDJJH@Z$1
	DD	0ffffffffH
	DD	FLAT:__unwindfunclet$?SetPacketDataInPacketList@CKTBChartCtrl@@AAE_NPBDJJH@Z$2
	DD	0ffffffffH
	DD	FLAT:__unwindfunclet$?SetPacketDataInPacketList@CKTBChartCtrl@@AAE_NPBDJJH@Z$3
__ehfuncinfo$?SetPacketDataInPacketList@CKTBChartCtrl@@AAE_NPBDJJH@Z DD 019930522H
	DD	04H
	DD	FLAT:__unwindtable$?SetPacketDataInPacketList@CKTBChartCtrl@@AAE_NPBDJJH@Z
	DD	2 DUP(00H)
	DD	2 DUP(00H)
	DD	00H
	DD	01H
xdata$x	ENDS
;	COMDAT xdata$x
xdata$x	SEGMENT
__ehfuncinfo$?ChangeChart_PriceChartStyle@CKTBChartCtrl@@AAEHABV?$CStringT@DV?$StrTraitMFC_DLL@DV?$ChTraitsCRT@D@ATL@@@@@ATL@@AAV23@H@Z DD 019930522H
	DD	02aH
	DD	FLAT:__unwindtable$?ChangeChart_PriceChartStyle@CKTBChartCtrl@@AAEHABV?$CStringT@DV?$StrTraitMFC_DLL@DV?$ChTraitsCRT@D@ATL@@@@@ATL@@AAV23@H@Z
	DD	2 DUP(00H)
	DD	2 DUP(00H)
	DD	00H
	DD	01H
__unwindtable$?ChangeChart_PriceChartStyle@CKTBChartCtrl@@AAEHABV?$CStringT@DV?$StrTraitMFC_DLL@DV?$ChTraitsCRT@D@ATL@@@@@ATL@@AAV23@H@Z DD 0ffffffffH
	DD	FLAT:__unwindfunclet$?ChangeChart_PriceChartStyle@CKTBChartCtrl@@AAEHABV?$CStringT@DV?$StrTraitMFC_DLL@DV?$ChTraitsCRT@D@ATL@@@@@ATL@@AAV23@H@Z$0
	DD	00H
	DD	FLAT:__unwindfunclet$?ChangeChart_PriceChartStyle@CKTBChartCtrl@@AAEHABV?$CStringT@DV?$StrTraitMFC_DLL@DV?$ChTraitsCRT@D@ATL@@@@@ATL@@AAV23@H@Z$1
	DD	01H
	DD	FLAT:__unwindfunclet$?ChangeChart_PriceChartStyle@CKTBChartCtrl@@AAEHABV?$CStringT@DV?$StrTraitMFC_DLL@DV?$ChTraitsCRT@D@ATL@@@@@ATL@@AAV23@H@Z$2
	DD	02H
	DD	FLAT:__unwindfunclet$?ChangeChart_PriceChartStyle@CKTBChartCtrl@@AAEHABV?$CStringT@DV?$StrTraitMFC_DLL@DV?$ChTraitsCRT@D@ATL@@@@@ATL@@AAV23@H@Z$5
	DD	03H
	DD	FLAT:__unwindfunclet$?ChangeChart_PriceChartStyle@CKTBChartCtrl@@AAEHABV?$CStringT@DV?$StrTraitMFC_DLL@DV?$ChTraitsCRT@D@ATL@@@@@ATL@@AAV23@H@Z$6
	DD	04H
	DD	FLAT:__unwindfunclet$?ChangeChart_PriceChartStyle@CKTBChartCtrl@@AAEHABV?$CStringT@DV?$StrTraitMFC_DLL@DV?$ChTraitsCRT@D@ATL@@@@@ATL@@AAV23@H@Z$45
	DD	05H
	DD	FLAT:__unwindfunclet$?ChangeChart_PriceChartStyle@CKTBChartCtrl@@AAEHABV?$CStringT@DV?$StrTraitMFC_DLL@DV?$ChTraitsCRT@D@ATL@@@@@ATL@@AAV23@H@Z$46
	DD	06H
	DD	FLAT:__unwindfunclet$?ChangeChart_PriceChartStyle@CKTBChartCtrl@@AAEHABV?$CStringT@DV?$StrTraitMFC_DLL@DV?$ChTraitsCRT@D@ATL@@@@@ATL@@AAV23@H@Z$47
	DD	07H
	DD	FLAT:__unwindfunclet$?ChangeChart_PriceChartStyle@CKTBChartCtrl@@AAEHABV?$CStringT@DV?$StrTraitMFC_DLL@DV?$ChTraitsCRT@D@ATL@@@@@ATL@@AAV23@H@Z$48
	DD	08H
	DD	FLAT:__unwindfunclet$?ChangeChart_PriceChartStyle@CKTBChartCtrl@@AAEHABV?$CStringT@DV?$StrTraitMFC_DLL@DV?$ChTraitsCRT@D@ATL@@@@@ATL@@AAV23@H@Z$49
	DD	09H
	DD	FLAT:__unwindfunclet$?ChangeChart_PriceChartStyle@CKTBChartCtrl@@AAEHABV?$CStringT@DV?$StrTraitMFC_DLL@DV?$ChTraitsCRT@D@ATL@@@@@ATL@@AAV23@H@Z$12
	DD	08H
	DD	FLAT:__unwindfunclet$?ChangeChart_PriceChartStyle@CKTBChartCtrl@@AAEHABV?$CStringT@DV?$StrTraitMFC_DLL@DV?$ChTraitsCRT@D@ATL@@@@@ATL@@AAV23@H@Z$12
	DD	07H
	DD	FLAT:__unwindfunclet$?ChangeChart_PriceChartStyle@CKTBChartCtrl@@AAEHABV?$CStringT@DV?$StrTraitMFC_DLL@DV?$ChTraitsCRT@D@ATL@@@@@ATL@@AAV23@H@Z$12
	DD	06H
	DD	FLAT:__unwindfunclet$?ChangeChart_PriceChartStyle@CKTBChartCtrl@@AAEHABV?$CStringT@DV?$StrTraitMFC_DLL@DV?$ChTraitsCRT@D@ATL@@@@@ATL@@AAV23@H@Z$12
	DD	05H
	DD	FLAT:__unwindfunclet$?ChangeChart_PriceChartStyle@CKTBChartCtrl@@AAEHABV?$CStringT@DV?$StrTraitMFC_DLL@DV?$ChTraitsCRT@D@ATL@@@@@ATL@@AAV23@H@Z$12
	DD	04H
	DD	FLAT:__unwindfunclet$?ChangeChart_PriceChartStyle@CKTBChartCtrl@@AAEHABV?$CStringT@DV?$StrTraitMFC_DLL@DV?$ChTraitsCRT@D@ATL@@@@@ATL@@AAV23@H@Z$12
	DD	03H
	DD	FLAT:__unwindfunclet$?ChangeChart_PriceChartStyle@CKTBChartCtrl@@AAEHABV?$CStringT@DV?$StrTraitMFC_DLL@DV?$ChTraitsCRT@D@ATL@@@@@ATL@@AAV23@H@Z$12
	DD	010H
	DD	FLAT:__unwindfunclet$?ChangeChart_PriceChartStyle@CKTBChartCtrl@@AAEHABV?$CStringT@DV?$StrTraitMFC_DLL@DV?$ChTraitsCRT@D@ATL@@@@@ATL@@AAV23@H@Z$13
	DD	011H
	DD	FLAT:__unwindfunclet$?ChangeChart_PriceChartStyle@CKTBChartCtrl@@AAEHABV?$CStringT@DV?$StrTraitMFC_DLL@DV?$ChTraitsCRT@D@ATL@@@@@ATL@@AAV23@H@Z$14
	DD	012H
	DD	FLAT:__unwindfunclet$?ChangeChart_PriceChartStyle@CKTBChartCtrl@@AAEHABV?$CStringT@DV?$StrTraitMFC_DLL@DV?$ChTraitsCRT@D@ATL@@@@@ATL@@AAV23@H@Z$15
	DD	010H
	DD	FLAT:__unwindfunclet$?ChangeChart_PriceChartStyle@CKTBChartCtrl@@AAEHABV?$CStringT@DV?$StrTraitMFC_DLL@DV?$ChTraitsCRT@D@ATL@@@@@ATL@@AAV23@H@Z$17
	DD	014H
	DD	FLAT:__unwindfunclet$?ChangeChart_PriceChartStyle@CKTBChartCtrl@@AAEHABV?$CStringT@DV?$StrTraitMFC_DLL@DV?$ChTraitsCRT@D@ATL@@@@@ATL@@AAV23@H@Z$18
	DD	015H
	DD	FLAT:__unwindfunclet$?ChangeChart_PriceChartStyle@CKTBChartCtrl@@AAEHABV?$CStringT@DV?$StrTraitMFC_DLL@DV?$ChTraitsCRT@D@ATL@@@@@ATL@@AAV23@H@Z$19
	DD	010H
	DD	FLAT:__unwindfunclet$?ChangeChart_PriceChartStyle@CKTBChartCtrl@@AAEHABV?$CStringT@DV?$StrTraitMFC_DLL@DV?$ChTraitsCRT@D@ATL@@@@@ATL@@AAV23@H@Z$21
	DD	017H
	DD	FLAT:__unwindfunclet$?ChangeChart_PriceChartStyle@CKTBChartCtrl@@AAEHABV?$CStringT@DV?$StrTraitMFC_DLL@DV?$ChTraitsCRT@D@ATL@@@@@ATL@@AAV23@H@Z$22
	DD	018H
	DD	FLAT:__unwindfunclet$?ChangeChart_PriceChartStyle@CKTBChartCtrl@@AAEHABV?$CStringT@DV?$StrTraitMFC_DLL@DV?$ChTraitsCRT@D@ATL@@@@@ATL@@AAV23@H@Z$23
	DD	010H
	DD	FLAT:__unwindfunclet$?ChangeChart_PriceChartStyle@CKTBChartCtrl@@AAEHABV?$CStringT@DV?$StrTraitMFC_DLL@DV?$ChTraitsCRT@D@ATL@@@@@ATL@@AAV23@H@Z$25
	DD	01aH
	DD	FLAT:__unwindfunclet$?ChangeChart_PriceChartStyle@CKTBChartCtrl@@AAEHABV?$CStringT@DV?$StrTraitMFC_DLL@DV?$ChTraitsCRT@D@ATL@@@@@ATL@@AAV23@H@Z$26
	DD	01bH
	DD	FLAT:__unwindfunclet$?ChangeChart_PriceChartStyle@CKTBChartCtrl@@AAEHABV?$CStringT@DV?$StrTraitMFC_DLL@DV?$ChTraitsCRT@D@ATL@@@@@ATL@@AAV23@H@Z$27
	DD	010H
	DD	FLAT:__unwindfunclet$?ChangeChart_PriceChartStyle@CKTBChartCtrl@@AAEHABV?$CStringT@DV?$StrTraitMFC_DLL@DV?$ChTraitsCRT@D@ATL@@@@@ATL@@AAV23@H@Z$29
	DD	01dH
	DD	FLAT:__unwindfunclet$?ChangeChart_PriceChartStyle@CKTBChartCtrl@@AAEHABV?$CStringT@DV?$StrTraitMFC_DLL@DV?$ChTraitsCRT@D@ATL@@@@@ATL@@AAV23@H@Z$30
	DD	01eH
	DD	FLAT:__unwindfunclet$?ChangeChart_PriceChartStyle@CKTBChartCtrl@@AAEHABV?$CStringT@DV?$StrTraitMFC_DLL@DV?$ChTraitsCRT@D@ATL@@@@@ATL@@AAV23@H@Z$31
	DD	010H
	DD	FLAT:__unwindfunclet$?ChangeChart_PriceChartStyle@CKTBChartCtrl@@AAEHABV?$CStringT@DV?$StrTraitMFC_DLL@DV?$ChTraitsCRT@D@ATL@@@@@ATL@@AAV23@H@Z$33
	DD	020H
	DD	FLAT:__unwindfunclet$?ChangeChart_PriceChartStyle@CKTBChartCtrl@@AAEHABV?$CStringT@DV?$StrTraitMFC_DLL@DV?$ChTraitsCRT@D@ATL@@@@@ATL@@AAV23@H@Z$34
	DD	021H
	DD	FLAT:__unwindfunclet$?ChangeChart_PriceChartStyle@CKTBChartCtrl@@AAEHABV?$CStringT@DV?$StrTraitMFC_DLL@DV?$ChTraitsCRT@D@ATL@@@@@ATL@@AAV23@H@Z$35
	DD	010H
	DD	FLAT:__unwindfunclet$?ChangeChart_PriceChartStyle@CKTBChartCtrl@@AAEHABV?$CStringT@DV?$StrTraitMFC_DLL@DV?$ChTraitsCRT@D@ATL@@@@@ATL@@AAV23@H@Z$37
	DD	023H
	DD	FLAT:__unwindfunclet$?ChangeChart_PriceChartStyle@CKTBChartCtrl@@AAEHABV?$CStringT@DV?$StrTraitMFC_DLL@DV?$ChTraitsCRT@D@ATL@@@@@ATL@@AAV23@H@Z$38
	DD	024H
	DD	FLAT:__unwindfunclet$?ChangeChart_PriceChartStyle@CKTBChartCtrl@@AAEHABV?$CStringT@DV?$StrTraitMFC_DLL@DV?$ChTraitsCRT@D@ATL@@@@@ATL@@AAV23@H@Z$39
	DD	010H
	DD	FLAT:__unwindfunclet$?ChangeChart_PriceChartStyle@CKTBChartCtrl@@AAEHABV?$CStringT@DV?$StrTraitMFC_DLL@DV?$ChTraitsCRT@D@ATL@@@@@ATL@@AAV23@H@Z$41
	DD	026H
	DD	FLAT:__unwindfunclet$?ChangeChart_PriceChartStyle@CKTBChartCtrl@@AAEHABV?$CStringT@DV?$StrTraitMFC_DLL@DV?$ChTraitsCRT@D@ATL@@@@@ATL@@AAV23@H@Z$42
	DD	027H
	DD	FLAT:__unwindfunclet$?ChangeChart_PriceChartStyle@CKTBChartCtrl@@AAEHABV?$CStringT@DV?$StrTraitMFC_DLL@DV?$ChTraitsCRT@D@ATL@@@@@ATL@@AAV23@H@Z$43
	DD	01H
	DD	FLAT:___std_terminate
xdata$x	ENDS
;	COMDAT xdata$x
xdata$x	SEGMENT
__ehfuncinfo$?AddChart_GenneralChart@CKTBChartCtrl@@AAEHABV?$CStringT@DV?$StrTraitMFC_DLL@DV?$ChTraitsCRT@D@ATL@@@@@ATL@@AAV23@H@Z DD 019930522H
	DD	05H
	DD	FLAT:__unwindtable$?AddChart_GenneralChart@CKTBChartCtrl@@AAEHABV?$CStringT@DV?$StrTraitMFC_DLL@DV?$ChTraitsCRT@D@ATL@@@@@ATL@@AAV23@H@Z
	DD	2 DUP(00H)
	DD	2 DUP(00H)
	DD	00H
	DD	01H
__unwindtable$?AddChart_GenneralChart@CKTBChartCtrl@@AAEHABV?$CStringT@DV?$StrTraitMFC_DLL@DV?$ChTraitsCRT@D@ATL@@@@@ATL@@AAV23@H@Z DD 0ffffffffH
	DD	FLAT:__unwindfunclet$?AddChart_GenneralChart@CKTBChartCtrl@@AAEHABV?$CStringT@DV?$StrTraitMFC_DLL@DV?$ChTraitsCRT@D@ATL@@@@@ATL@@AAV23@H@Z$0
	DD	00H
	DD	FLAT:__unwindfunclet$?AddChart_GenneralChart@CKTBChartCtrl@@AAEHABV?$CStringT@DV?$StrTraitMFC_DLL@DV?$ChTraitsCRT@D@ATL@@@@@ATL@@AAV23@H@Z$1
	DD	01H
	DD	FLAT:__unwindfunclet$?AddChart_GenneralChart@CKTBChartCtrl@@AAEHABV?$CStringT@DV?$StrTraitMFC_DLL@DV?$ChTraitsCRT@D@ATL@@@@@ATL@@AAV23@H@Z$2
	DD	01H
	DD	FLAT:__unwindfunclet$?AddChart_GenneralChart@CKTBChartCtrl@@AAEHABV?$CStringT@DV?$StrTraitMFC_DLL@DV?$ChTraitsCRT@D@ATL@@@@@ATL@@AAV23@H@Z$3
	DD	01H
	DD	FLAT:__unwindfunclet$?AddChart_GenneralChart@CKTBChartCtrl@@AAEHABV?$CStringT@DV?$StrTraitMFC_DLL@DV?$ChTraitsCRT@D@ATL@@@@@ATL@@AAV23@H@Z$5
xdata$x	ENDS
;	COMDAT xdata$x
xdata$x	SEGMENT
__unwindtable$?AddOrDeleteChart_Genneral@CKTBChartCtrl@@AAE_NABV?$CStringT@DV?$StrTraitMFC_DLL@DV?$ChTraitsCRT@D@ATL@@@@@ATL@@H@Z DD 0ffffffffH
	DD	FLAT:__unwindfunclet$?AddOrDeleteChart_Genneral@CKTBChartCtrl@@AAE_NABV?$CStringT@DV?$StrTraitMFC_DLL@DV?$ChTraitsCRT@D@ATL@@@@@ATL@@H@Z$0
__ehfuncinfo$?AddOrDeleteChart_Genneral@CKTBChartCtrl@@AAE_NABV?$CStringT@DV?$StrTraitMFC_DLL@DV?$ChTraitsCRT@D@ATL@@@@@ATL@@H@Z DD 019930522H
	DD	01H
	DD	FLAT:__unwindtable$?AddOrDeleteChart_Genneral@CKTBChartCtrl@@AAE_NABV?$CStringT@DV?$StrTraitMFC_DLL@DV?$ChTraitsCRT@D@ATL@@@@@ATL@@H@Z
	DD	2 DUP(00H)
	DD	2 DUP(00H)
	DD	00H
	DD	01H
xdata$x	ENDS
;	COMDAT xdata$x
xdata$x	SEGMENT
__unwindtable$?AddOrDeleteChart_Special@CKTBChartCtrl@@AAE_NABV?$CStringT@DV?$StrTraitMFC_DLL@DV?$ChTraitsCRT@D@ATL@@@@@ATL@@@Z DD 0ffffffffH
	DD	FLAT:__unwindfunclet$?AddOrDeleteChart_Special@CKTBChartCtrl@@AAE_NABV?$CStringT@DV?$StrTraitMFC_DLL@DV?$ChTraitsCRT@D@ATL@@@@@ATL@@@Z$0
__ehfuncinfo$?AddOrDeleteChart_Special@CKTBChartCtrl@@AAE_NABV?$CStringT@DV?$StrTraitMFC_DLL@DV?$ChTraitsCRT@D@ATL@@@@@ATL@@@Z DD 019930522H
	DD	01H
	DD	FLAT:__unwindtable$?AddOrDeleteChart_Special@CKTBChartCtrl@@AAE_NABV?$CStringT@DV?$StrTraitMFC_DLL@DV?$ChTraitsCRT@D@ATL@@@@@ATL@@@Z
	DD	2 DUP(00H)
	DD	2 DUP(00H)
	DD	00H
	DD	01H
xdata$x	ENDS
;	COMDAT xdata$x
xdata$x	SEGMENT
__unwindtable$?AddOrDeleteChart@CKTBChartCtrl@@AAE_NABV?$CStringT@DV?$StrTraitMFC_DLL@DV?$ChTraitsCRT@D@ATL@@@@@ATL@@@Z DD 0ffffffffH
	DD	FLAT:__unwindfunclet$?AddOrDeleteChart@CKTBChartCtrl@@AAE_NABV?$CStringT@DV?$StrTraitMFC_DLL@DV?$ChTraitsCRT@D@ATL@@@@@ATL@@@Z$0
__ehfuncinfo$?AddOrDeleteChart@CKTBChartCtrl@@AAE_NABV?$CStringT@DV?$StrTraitMFC_DLL@DV?$ChTraitsCRT@D@ATL@@@@@ATL@@@Z DD 019930522H
	DD	01H
	DD	FLAT:__unwindtable$?AddOrDeleteChart@CKTBChartCtrl@@AAE_NABV?$CStringT@DV?$StrTraitMFC_DLL@DV?$ChTraitsCRT@D@ATL@@@@@ATL@@@Z
	DD	2 DUP(00H)
	DD	2 DUP(00H)
	DD	00H
	DD	01H
xdata$x	ENDS
;	COMDAT xdata$x
xdata$x	SEGMENT
__unwindtable$?AddChartAllBlock@CKTBChartCtrl@@IAEHPBD@Z DD 0ffffffffH
	DD	FLAT:__unwindfunclet$?AddChartAllBlock@CKTBChartCtrl@@IAEHPBD@Z$0
__ehfuncinfo$?AddChartAllBlock@CKTBChartCtrl@@IAEHPBD@Z DD 019930522H
	DD	01H
	DD	FLAT:__unwindtable$?AddChartAllBlock@CKTBChartCtrl@@IAEHPBD@Z
	DD	2 DUP(00H)
	DD	2 DUP(00H)
	DD	00H
	DD	01H
xdata$x	ENDS
;	COMDAT xdata$x
xdata$x	SEGMENT
__ehfuncinfo$?SetPacketDataInAdditionPacket@CKTBChartCtrl@@IAEHPBDJJH@Z DD 019930522H
	DD	07H
	DD	FLAT:__unwindtable$?SetPacketDataInAdditionPacket@CKTBChartCtrl@@IAEHPBDJJH@Z
	DD	2 DUP(00H)
	DD	2 DUP(00H)
	DD	00H
	DD	01H
__unwindtable$?SetPacketDataInAdditionPacket@CKTBChartCtrl@@IAEHPBDJJH@Z DD 0ffffffffH
	DD	FLAT:__unwindfunclet$?SetPacketDataInAdditionPacket@CKTBChartCtrl@@IAEHPBDJJH@Z$0
	DD	00H
	DD	FLAT:__unwindfunclet$?SetPacketDataInAdditionPacket@CKTBChartCtrl@@IAEHPBDJJH@Z$1
	DD	01H
	DD	FLAT:__unwindfunclet$?SetPacketDataInAdditionPacket@CKTBChartCtrl@@IAEHPBDJJH@Z$2
	DD	02H
	DD	FLAT:__unwindfunclet$?SetPacketDataInAdditionPacket@CKTBChartCtrl@@IAEHPBDJJH@Z$4
	DD	03H
	DD	FLAT:__unwindfunclet$?SetPacketDataInAdditionPacket@CKTBChartCtrl@@IAEHPBDJJH@Z$5
	DD	02H
	DD	FLAT:__unwindfunclet$?SetPacketDataInAdditionPacket@CKTBChartCtrl@@IAEHPBDJJH@Z$5
	DD	00H
	DD	FLAT:___std_terminate
xdata$x	ENDS
;	COMDAT xdata$x
xdata$x	SEGMENT
__unwindtable$?GetStartPeriodOfPacket@CKTBChartCtrl@@IAEJPBD@Z DD 0ffffffffH
	DD	FLAT:__unwindfunclet$?GetStartPeriodOfPacket@CKTBChartCtrl@@IAEJPBD@Z$0
__ehfuncinfo$?GetStartPeriodOfPacket@CKTBChartCtrl@@IAEJPBD@Z DD 019930522H
	DD	01H
	DD	FLAT:__unwindtable$?GetStartPeriodOfPacket@CKTBChartCtrl@@IAEJPBD@Z
	DD	2 DUP(00H)
	DD	2 DUP(00H)
	DD	00H
	DD	01H
xdata$x	ENDS
;	COMDAT xdata$x
xdata$x	SEGMENT
__unwindtable$?SetStartPeriodOfPacket@CKTBChartCtrl@@IAEHPBDJH@Z DD 0ffffffffH
	DD	FLAT:__unwindfunclet$?SetStartPeriodOfPacket@CKTBChartCtrl@@IAEHPBDJH@Z$0
__ehfuncinfo$?SetStartPeriodOfPacket@CKTBChartCtrl@@IAEHPBDJH@Z DD 019930522H
	DD	01H
	DD	FLAT:__unwindtable$?SetStartPeriodOfPacket@CKTBChartCtrl@@IAEHPBDJH@Z
	DD	2 DUP(00H)
	DD	2 DUP(00H)
	DD	00H
	DD	01H
xdata$x	ENDS
;	COMDAT xdata$x
xdata$x	SEGMENT
__unwindtable$?HasGraph@CKTBChartCtrl@@IAEHPBD@Z DD 0ffffffffH
	DD	FLAT:__unwindfunclet$?HasGraph@CKTBChartCtrl@@IAEHPBD@Z$0
__ehfuncinfo$?HasGraph@CKTBChartCtrl@@IAEHPBD@Z DD 019930522H
	DD	01H
	DD	FLAT:__unwindtable$?HasGraph@CKTBChartCtrl@@IAEHPBD@Z
	DD	2 DUP(00H)
	DD	2 DUP(00H)
	DD	00H
	DD	01H
xdata$x	ENDS
;	COMDAT xdata$x
xdata$x	SEGMENT
__unwindtable$?EmptyChart@CKTBChartCtrl@@IAEHHH@Z DD 0ffffffffH
	DD	FLAT:__unwindfunclet$?EmptyChart@CKTBChartCtrl@@IAEHHH@Z$0
__ehfuncinfo$?EmptyChart@CKTBChartCtrl@@IAEHHH@Z DD 019930522H
	DD	01H
	DD	FLAT:__unwindtable$?EmptyChart@CKTBChartCtrl@@IAEHHH@Z
	DD	2 DUP(00H)
	DD	2 DUP(00H)
	DD	00H
	DD	01H
xdata$x	ENDS
;	COMDAT xdata$x
xdata$x	SEGMENT
__unwindtable$?SetBackgroundColors@CKTBChartCtrl@@IAEXKK@Z DD 0ffffffffH
	DD	FLAT:__unwindfunclet$?SetBackgroundColors@CKTBChartCtrl@@IAEXKK@Z$0
__ehfuncinfo$?SetBackgroundColors@CKTBChartCtrl@@IAEXKK@Z DD 019930522H
	DD	01H
	DD	FLAT:__unwindtable$?SetBackgroundColors@CKTBChartCtrl@@IAEXKK@Z
	DD	2 DUP(00H)
	DD	2 DUP(00H)
	DD	00H
	DD	01H
xdata$x	ENDS
;	COMDAT xdata$x
xdata$x	SEGMENT
__ehfuncinfo$?SetPacketData@CKTBChartCtrl@@IAEHPBDJJH@Z DD 019930522H
	DD	0eH
	DD	FLAT:__unwindtable$?SetPacketData@CKTBChartCtrl@@IAEHPBDJJH@Z
	DD	2 DUP(00H)
	DD	2 DUP(00H)
	DD	00H
	DD	01H
__unwindtable$?SetPacketData@CKTBChartCtrl@@IAEHPBDJJH@Z DD 0ffffffffH
	DD	FLAT:__unwindfunclet$?SetPacketData@CKTBChartCtrl@@IAEHPBDJJH@Z$0
	DD	00H
	DD	FLAT:__unwindfunclet$?SetPacketData@CKTBChartCtrl@@IAEHPBDJJH@Z$1
	DD	00H
	DD	FLAT:__unwindfunclet$?SetPacketData@CKTBChartCtrl@@IAEHPBDJJH@Z$2
	DD	00H
	DD	FLAT:__unwindfunclet$?SetPacketData@CKTBChartCtrl@@IAEHPBDJJH@Z$4
	DD	03H
	DD	FLAT:__unwindfunclet$?SetPacketData@CKTBChartCtrl@@IAEHPBDJJH@Z$5
	DD	04H
	DD	FLAT:__unwindfunclet$?SetPacketData@CKTBChartCtrl@@IAEHPBDJJH@Z$6
	DD	05H
	DD	FLAT:__unwindfunclet$?SetPacketData@CKTBChartCtrl@@IAEHPBDJJH@Z$7
	DD	06H
	DD	FLAT:__unwindfunclet$?SetPacketData@CKTBChartCtrl@@IAEHPBDJJH@Z$8
	DD	07H
	DD	FLAT:__unwindfunclet$?SetPacketData@CKTBChartCtrl@@IAEHPBDJJH@Z$9
	DD	08H
	DD	FLAT:__unwindfunclet$?SetPacketData@CKTBChartCtrl@@IAEHPBDJJH@Z$10
	DD	09H
	DD	FLAT:__unwindfunclet$?SetPacketData@CKTBChartCtrl@@IAEHPBDJJH@Z$11
	DD	03H
	DD	FLAT:__unwindfunclet$?SetPacketData@CKTBChartCtrl@@IAEHPBDJJH@Z$13
	DD	0bH
	DD	FLAT:__unwindfunclet$?SetPacketData@CKTBChartCtrl@@IAEHPBDJJH@Z$22
	DD	0bH
	DD	FLAT:__unwindfunclet$?SetPacketData@CKTBChartCtrl@@IAEHPBDJJH@Z$21
xdata$x	ENDS
;	COMDAT xdata$x
xdata$x	SEGMENT
__unwindtable$?RemovePacket@CKTBChartCtrl@@IAEHPBD@Z DD 0ffffffffH
	DD	FLAT:__unwindfunclet$?RemovePacket@CKTBChartCtrl@@IAEHPBD@Z$0
__ehfuncinfo$?RemovePacket@CKTBChartCtrl@@IAEHPBD@Z DD 019930522H
	DD	01H
	DD	FLAT:__unwindtable$?RemovePacket@CKTBChartCtrl@@IAEHPBD@Z
	DD	2 DUP(00H)
	DD	2 DUP(00H)
	DD	00H
	DD	01H
xdata$x	ENDS
;	COMDAT xdata$x
xdata$x	SEGMENT
__ehfuncinfo$?AddGraph@CKTBChartCtrl@@IAEXFFFPBDHHH@Z DD 019930522H
	DD	09H
	DD	FLAT:__unwindtable$?AddGraph@CKTBChartCtrl@@IAEXFFFPBDHHH@Z
	DD	2 DUP(00H)
	DD	2 DUP(00H)
	DD	00H
	DD	01H
__unwindtable$?AddGraph@CKTBChartCtrl@@IAEXFFFPBDHHH@Z DD 0ffffffffH
	DD	FLAT:__unwindfunclet$?AddGraph@CKTBChartCtrl@@IAEXFFFPBDHHH@Z$0
	DD	00H
	DD	FLAT:__unwindfunclet$?AddGraph@CKTBChartCtrl@@IAEXFFFPBDHHH@Z$1
	DD	01H
	DD	FLAT:__unwindfunclet$?AddGraph@CKTBChartCtrl@@IAEXFFFPBDHHH@Z$2
	DD	01H
	DD	FLAT:__unwindfunclet$?AddGraph@CKTBChartCtrl@@IAEXFFFPBDHHH@Z$3
	DD	03H
	DD	FLAT:__unwindfunclet$?AddGraph@CKTBChartCtrl@@IAEXFFFPBDHHH@Z$4
	DD	04H
	DD	FLAT:__unwindfunclet$?AddGraph@CKTBChartCtrl@@IAEXFFFPBDHHH@Z$5
	DD	05H
	DD	FLAT:__unwindfunclet$?AddGraph@CKTBChartCtrl@@IAEXFFFPBDHHH@Z$6
	DD	06H
	DD	FLAT:__unwindfunclet$?AddGraph@CKTBChartCtrl@@IAEXFFFPBDHHH@Z$7
	DD	07H
	DD	FLAT:__unwindfunclet$?AddGraph@CKTBChartCtrl@@IAEXFFFPBDHHH@Z$8
xdata$x	ENDS
;	COMDAT xdata$x
xdata$x	SEGMENT
__unwindtable$?GetIndicatorNameList@CKTBChartCtrl@@IAEPA_WPBD@Z DD 0ffffffffH
	DD	FLAT:__unwindfunclet$?GetIndicatorNameList@CKTBChartCtrl@@IAEPA_WPBD@Z$0
	DD	00H
	DD	FLAT:__unwindfunclet$?GetIndicatorNameList@CKTBChartCtrl@@IAEPA_WPBD@Z$1
	DD	01H
	DD	FLAT:__unwindfunclet$?GetIndicatorNameList@CKTBChartCtrl@@IAEPA_WPBD@Z$2
	DD	02H
	DD	FLAT:__unwindfunclet$?GetIndicatorNameList@CKTBChartCtrl@@IAEPA_WPBD@Z$4
__ehfuncinfo$?GetIndicatorNameList@CKTBChartCtrl@@IAEPA_WPBD@Z DD 019930522H
	DD	04H
	DD	FLAT:__unwindtable$?GetIndicatorNameList@CKTBChartCtrl@@IAEPA_WPBD@Z
	DD	2 DUP(00H)
	DD	2 DUP(00H)
	DD	00H
	DD	01H
xdata$x	ENDS
;	COMDAT xdata$x
xdata$x	SEGMENT
__unwindtable$?AddChartBlock@CKTBChartCtrl@@IAEHPBD@Z DD 0ffffffffH
	DD	FLAT:__unwindfunclet$?AddChartBlock@CKTBChartCtrl@@IAEHPBD@Z$0
	DD	00H
	DD	FLAT:__unwindfunclet$?AddChartBlock@CKTBChartCtrl@@IAEHPBD@Z$1
__ehfuncinfo$?AddChartBlock@CKTBChartCtrl@@IAEHPBD@Z DD 019930522H
	DD	02H
	DD	FLAT:__unwindtable$?AddChartBlock@CKTBChartCtrl@@IAEHPBD@Z
	DD	2 DUP(00H)
	DD	2 DUP(00H)
	DD	00H
	DD	01H
xdata$x	ENDS
;	COMDAT xdata$x
xdata$x	SEGMENT
__unwindtable$?GetStartDateOfData@CKTBChartCtrl@@IAEPA_WXZ DD 0ffffffffH
	DD	FLAT:__unwindfunclet$?GetStartDateOfData@CKTBChartCtrl@@IAEPA_WXZ$0
	DD	00H
	DD	FLAT:__unwindfunclet$?GetStartDateOfData@CKTBChartCtrl@@IAEPA_WXZ$2
	DD	01H
	DD	FLAT:__unwindfunclet$?GetStartDateOfData@CKTBChartCtrl@@IAEPA_WXZ$3
__ehfuncinfo$?GetStartDateOfData@CKTBChartCtrl@@IAEPA_WXZ DD 019930522H
	DD	03H
	DD	FLAT:__unwindtable$?GetStartDateOfData@CKTBChartCtrl@@IAEPA_WXZ
	DD	2 DUP(00H)
	DD	2 DUP(00H)
	DD	00H
	DD	01H
xdata$x	ENDS
;	COMDAT xdata$x
xdata$x	SEGMENT
__unwindtable$??HATL@@YA?AV?$CStringT@DV?$StrTraitMFC_DLL@DV?$ChTraitsCRT@D@ATL@@@@@0@ABV10@PBD@Z DD 0ffffffffH
	DD	FLAT:__unwindfunclet$??HATL@@YA?AV?$CStringT@DV?$StrTraitMFC_DLL@DV?$ChTraitsCRT@D@ATL@@@@@0@ABV10@PBD@Z$0
__ehfuncinfo$??HATL@@YA?AV?$CStringT@DV?$StrTraitMFC_DLL@DV?$ChTraitsCRT@D@ATL@@@@@0@ABV10@PBD@Z DD 019930522H
	DD	01H
	DD	FLAT:__unwindtable$??HATL@@YA?AV?$CStringT@DV?$StrTraitMFC_DLL@DV?$ChTraitsCRT@D@ATL@@@@@0@ABV10@PBD@Z
	DD	2 DUP(00H)
	DD	2 DUP(00H)
	DD	00H
	DD	01H
xdata$x	ENDS
; Function compile flags: /Ogtp
; File C:\Program Files (x86)\Microsoft Visual Studio\2019\Community\VC\Tools\MSVC\14.29.30133\atlmfc\include\afxtempl.h
;	COMDAT ?NewNode@?$CList@NN@@IAEPAUCNode@1@PAU21@0@Z
_TEXT	SEGMENT
_pPrev$ = 8						; size = 4
_pNext$ = 12						; size = 4
?NewNode@?$CList@NN@@IAEPAUCNode@1@PAU21@0@Z PROC	; CList<double,double>::NewNode, COMDAT
; _this$ = ecx

; 901  : {

  00000	55		 push	 ebp
  00001	8b ec		 mov	 ebp, esp
  00003	56		 push	 esi
  00004	8b f1		 mov	 esi, ecx

; 902  : 	if (m_pNodeFree == NULL)

  00006	83 7e 10 00	 cmp	 DWORD PTR [esi+16], 0
  0000a	75 34		 jne	 SHORT $LN7@NewNode

; 903  : 	{
; 904  : 		// add another block
; 905  : 		CPlex* pNewBlock = CPlex::Create(m_pBlocks, m_nBlockSize,

  0000c	6a 10		 push	 16			; 00000010H
  0000e	ff 76 18	 push	 DWORD PTR [esi+24]
  00011	8d 46 14	 lea	 eax, DWORD PTR [esi+20]
  00014	50		 push	 eax
  00015	e8 00 00 00 00	 call	 ?Create@CPlex@@SGPAU1@AAPAU1@II@Z ; CPlex::Create

; 906  : 				 sizeof(CNode));
; 907  : 
; 908  : 		// chain them into free list
; 909  : 		CNode* pNode = (CNode*) pNewBlock->data();
; 910  : 		// free in reverse order to make it easier to debug
; 911  : 		pNode += m_nBlockSize - 1;

  0001a	8b 56 18	 mov	 edx, DWORD PTR [esi+24]
  0001d	83 c0 08	 add	 eax, 8
  00020	8b ca		 mov	 ecx, edx
  00022	c1 e1 04	 shl	 ecx, 4
  00025	83 c1 f0	 add	 ecx, -16		; fffffff0H
  00028	03 c1		 add	 eax, ecx

; 912  : 		for (INT_PTR i = m_nBlockSize-1; i >= 0; i--, pNode--)

  0002a	83 c2 ff	 add	 edx, -1
  0002d	78 11		 js	 SHORT $LN7@NewNode
  0002f	90		 npad	 1
$LL4@NewNode:

; 913  : 		{
; 914  : 			pNode->pNext = m_pNodeFree;

  00030	8b 4e 10	 mov	 ecx, DWORD PTR [esi+16]
  00033	89 08		 mov	 DWORD PTR [eax], ecx

; 915  : 			m_pNodeFree = pNode;

  00035	89 46 10	 mov	 DWORD PTR [esi+16], eax
  00038	83 e8 10	 sub	 eax, 16			; 00000010H
  0003b	83 ea 01	 sub	 edx, 1
  0003e	79 f0		 jns	 SHORT $LL4@NewNode
$LN7@NewNode:

; 916  : 		}
; 917  : 	}
; 918  : 	ENSURE(m_pNodeFree != NULL);  // we must have something

  00040	8b 46 10	 mov	 eax, DWORD PTR [esi+16]
  00043	85 c0		 test	 eax, eax
  00045	74 18		 je	 SHORT $LN17@NewNode

; 919  : 
; 920  : 	CList::CNode* pNode = m_pNodeFree;
; 921  : 	m_pNodeFree = m_pNodeFree->pNext;

  00047	8b 08		 mov	 ecx, DWORD PTR [eax]
  00049	89 4e 10	 mov	 DWORD PTR [esi+16], ecx

; 922  : 	pNode->pPrev = pPrev;

  0004c	8b 4d 08	 mov	 ecx, DWORD PTR _pPrev$[ebp]
  0004f	89 48 04	 mov	 DWORD PTR [eax+4], ecx

; 923  : 	pNode->pNext = pNext;

  00052	8b 4d 0c	 mov	 ecx, DWORD PTR _pNext$[ebp]
  00055	89 08		 mov	 DWORD PTR [eax], ecx

; 924  : 	m_nCount++;

  00057	ff 46 0c	 inc	 DWORD PTR [esi+12]

; 925  : 	ASSERT(m_nCount > 0);  // make sure we don't overflow
; 926  : 
; 927  : #pragma push_macro("new")
; 928  : #undef new
; 929  : 	::new( (void*)( &pNode->data ) ) TYPE;
; 930  : #pragma pop_macro("new")
; 931  : 	return pNode;

  0005a	5e		 pop	 esi

; 932  : }

  0005b	5d		 pop	 ebp
  0005c	c2 08 00	 ret	 8
$LN17@NewNode:

; 916  : 		}
; 917  : 	}
; 918  : 	ENSURE(m_pNodeFree != NULL);  // we must have something

  0005f	e8 00 00 00 00	 call	 ?AfxThrowInvalidArgException@@YGXXZ ; AfxThrowInvalidArgException
$LN15@NewNode:
  00064	cc		 int	 3
?NewNode@?$CList@NN@@IAEPAUCNode@1@PAU21@0@Z ENDP	; CList<double,double>::NewNode
_TEXT	ENDS
; Function compile flags: /Ogtp
; File C:\Program Files (x86)\Microsoft Visual Studio\2019\Community\VC\Tools\MSVC\14.29.30133\atlmfc\include\afxtempl.h
;	COMDAT ?AddHead@?$CList@NN@@QAEPAU__POSITION@@N@Z
_TEXT	SEGMENT
_newElement$ = 8					; size = 8
?AddHead@?$CList@NN@@QAEPAU__POSITION@@N@Z PROC		; CList<double,double>::AddHead, COMDAT
; _this$ = ecx

; 950  : {

  00000	55		 push	 ebp
  00001	8b ec		 mov	 ebp, esp
  00003	56		 push	 esi
  00004	8b f1		 mov	 esi, ecx

; 951  : 	ASSERT_VALID(this);
; 952  : 
; 953  : 	CNode* pNewNode = NewNode(NULL, m_pNodeHead);

  00006	ff 76 04	 push	 DWORD PTR [esi+4]
  00009	6a 00		 push	 0
  0000b	e8 00 00 00 00	 call	 ?NewNode@?$CList@NN@@IAEPAUCNode@1@PAU21@0@Z ; CList<double,double>::NewNode

; 954  : 	pNewNode->data = newElement;

  00010	f2 0f 10 45 08	 movsd	 xmm0, QWORD PTR _newElement$[ebp]
  00015	f2 0f 11 40 08	 movsd	 QWORD PTR [eax+8], xmm0

; 955  : 	if (m_pNodeHead != NULL)

  0001a	8b 4e 04	 mov	 ecx, DWORD PTR [esi+4]
  0001d	85 c9		 test	 ecx, ecx
  0001f	74 0b		 je	 SHORT $LN2@AddHead

; 956  : 		m_pNodeHead->pPrev = pNewNode;

  00021	89 41 04	 mov	 DWORD PTR [ecx+4], eax

; 959  : 	m_pNodeHead = pNewNode;
; 960  : 	return (POSITION) pNewNode;
; 961  : }

  00024	89 46 04	 mov	 DWORD PTR [esi+4], eax
  00027	5e		 pop	 esi
  00028	5d		 pop	 ebp
  00029	c2 08 00	 ret	 8
$LN2@AddHead:

; 957  : 	else
; 958  : 		m_pNodeTail = pNewNode;

  0002c	89 46 08	 mov	 DWORD PTR [esi+8], eax

; 959  : 	m_pNodeHead = pNewNode;
; 960  : 	return (POSITION) pNewNode;
; 961  : }

  0002f	89 46 04	 mov	 DWORD PTR [esi+4], eax
  00032	5e		 pop	 esi
  00033	5d		 pop	 ebp
  00034	c2 08 00	 ret	 8
?AddHead@?$CList@NN@@QAEPAU__POSITION@@N@Z ENDP		; CList<double,double>::AddHead
_TEXT	ENDS
; Function compile flags: /Ogtp
; File D:\git\src\IBK\IBK_DRFN\ProjSrc\SrcChartEx\ChartOCX\Include\DumpLogger.h
; File C:\Program Files (x86)\Microsoft Visual Studio\2019\Community\VC\Tools\MSVC\14.29.30133\atlmfc\include\afx.inl
;	COMDAT ??_GCDumpLogger@@UAEPAXI@Z
_TEXT	SEGMENT
___flags$ = 8						; size = 4
??_GCDumpLogger@@UAEPAXI@Z PROC				; CDumpLogger::`scalar deleting destructor', COMDAT
; _this$ = ecx
  00000	55		 push	 ebp
  00001	8b ec		 mov	 ebp, esp
; File D:\git\src\IBK\IBK_DRFN\ProjSrc\SrcChartEx\ChartOCX\Include\DumpLogger.h

; 55   : 	{

  00003	56		 push	 esi
  00004	8b f1		 mov	 esi, ecx

; 56   : 		// 6. Dump File .
; 57   : 		if( m_hLogFile != HFILE_ERROR) _lclose( m_hLogFile);

  00006	8b 46 04	 mov	 eax, DWORD PTR [esi+4]
  00009	c7 06 00 00 00
	00		 mov	 DWORD PTR [esi], OFFSET ??_7CDumpLogger@@6B@
  0000f	83 f8 ff	 cmp	 eax, -1
  00012	74 07		 je	 SHORT $LN8@scalar
  00014	50		 push	 eax
  00015	ff 15 00 00 00
	00		 call	 DWORD PTR __imp___lclose@4
$LN8@scalar:
  0001b	8b 45 08	 mov	 eax, DWORD PTR ___flags$[ebp]
  0001e	a8 01		 test	 al, 1
  00020	74 1f		 je	 SHORT $LN13@scalar
  00022	a8 04		 test	 al, 4
  00024	75 10		 jne	 SHORT $LN3@scalar
; File C:\Program Files (x86)\Microsoft Visual Studio\2019\Community\VC\Tools\MSVC\14.29.30133\atlmfc\include\afx.inl

; 112  : 	{ ::operator delete(p); }

  00026	56		 push	 esi
  00027	e8 00 00 00 00	 call	 ??3@YAXPAX@Z		; operator delete
  0002c	83 c4 04	 add	 esp, 4
  0002f	8b c6		 mov	 eax, esi
  00031	5e		 pop	 esi
  00032	5d		 pop	 ebp
  00033	c2 04 00	 ret	 4
$LN3@scalar:
  00036	6a 08		 push	 8
  00038	56		 push	 esi
  00039	e8 00 00 00 00	 call	 ?__global_delete@@YAXPAXI@Z ; __global_delete
  0003e	83 c4 08	 add	 esp, 8
$LN13@scalar:
  00041	8b c6		 mov	 eax, esi
  00043	5e		 pop	 esi
  00044	5d		 pop	 ebp
  00045	c2 04 00	 ret	 4
??_GCDumpLogger@@UAEPAXI@Z ENDP				; CDumpLogger::`scalar deleting destructor'
_TEXT	ENDS
; Function compile flags: /Ogtp
; File D:\git\src\IBK\IBK_DRFN\ProjSrc\SrcChartEx\ChartOCX\Include\DumpLogger.h
; File C:\Program Files (x86)\Microsoft Visual Studio\2019\Community\VC\Tools\MSVC\14.29.30133\atlmfc\include\cstringt.h
; File D:\git\src\IBK\IBK_DRFN\ProjSrc\SrcChartEx\ChartOCX\Include\DumpLogger.h
; File C:\Program Files (x86)\Microsoft Visual Studio\2019\Community\VC\Tools\MSVC\14.29.30133\atlmfc\include\cstringt.h
; File C:\Program Files (x86)\Microsoft Visual Studio\2019\Community\VC\Tools\MSVC\14.29.30133\atlmfc\include\atlsimpstr.h
; File C:\Program Files (x86)\Microsoft Visual Studio\2019\Community\VC\Tools\MSVC\14.29.30133\atlmfc\include\cstringt.h
; File C:\Program Files (x86)\Microsoft Visual Studio\2019\Community\VC\Tools\MSVC\14.29.30133\atlmfc\include\atlsimpstr.h
; File C:\Program Files (x86)\Microsoft Visual Studio\2019\Community\VC\Tools\MSVC\14.29.30133\atlmfc\include\cstringt.h
; File D:\git\src\IBK\IBK_DRFN\ProjSrc\SrcChartEx\ChartOCX\Include\DumpLogger.h
; File C:\Program Files (x86)\Microsoft Visual Studio\2019\Community\VC\Tools\MSVC\14.29.30133\atlmfc\include\cstringt.h
; File D:\git\src\IBK\IBK_DRFN\ProjSrc\SrcChartEx\ChartOCX\Include\DumpLogger.h
;	COMDAT ?WriteToStringLog@CDumpLogger@@QAEXPBD0H@Z
_TEXT	SEGMENT
$T2 = -52						; size = 4
_strBuffer$ = -48					; size = 4
_strCurTime$3 = -44					; size = 4
$T4 = -40						; size = 4
_strCurTime$5 = -36					; size = 4
$T6 = -36						; size = 4
_sTime$ = -32						; size = 16
__$ArrayPad$ = -16					; size = 4
__$EHRec$ = -12						; size = 12
_p_szSection$ = 8					; size = 4
_p_szData$ = 12						; size = 4
_p_nDataLen$ = 16					; size = 4
?WriteToStringLog@CDumpLogger@@QAEXPBD0H@Z PROC		; CDumpLogger::WriteToStringLog, COMDAT
; _this$ = ecx

; 148  : 	{

  00000	55		 push	 ebp
  00001	8b ec		 mov	 ebp, esp
  00003	6a ff		 push	 -1
  00005	68 00 00 00 00	 push	 __ehhandler$?WriteToStringLog@CDumpLogger@@QAEXPBD0H@Z
  0000a	64 a1 00 00 00
	00		 mov	 eax, DWORD PTR fs:0
  00010	50		 push	 eax
  00011	83 ec 28	 sub	 esp, 40			; 00000028H
  00014	a1 00 00 00 00	 mov	 eax, DWORD PTR ___security_cookie
  00019	33 c5		 xor	 eax, ebp
  0001b	89 45 f0	 mov	 DWORD PTR __$ArrayPad$[ebp], eax
  0001e	53		 push	 ebx
  0001f	56		 push	 esi
  00020	57		 push	 edi
  00021	50		 push	 eax
  00022	8d 45 f4	 lea	 eax, DWORD PTR __$EHRec$[ebp]
  00025	64 a3 00 00 00
	00		 mov	 DWORD PTR fs:0, eax
  0002b	8b f9		 mov	 edi, ecx
  0002d	8b 75 08	 mov	 esi, DWORD PTR _p_szSection$[ebp]
  00030	8b 5d 0c	 mov	 ebx, DWORD PTR _p_szData$[ebp]
  00033	c7 45 cc 00 00
	00 00		 mov	 DWORD PTR $T2[ebp], 0

; 149  : 		if( m_hLogFile == HFILE_ERROR) return;

  0003a	83 7f 04 ff	 cmp	 DWORD PTR [edi+4], -1
  0003e	0f 84 6f 01 00
	00		 je	 $LN1@WriteToStr

; 150  : 
; 151  : 		// 1.  Logging  .
; 152  : 		SYSTEMTIME sTime;
; 153  : 		GetLocalTime(&sTime);

  00044	8d 45 e0	 lea	 eax, DWORD PTR _sTime$[ebp]
  00047	50		 push	 eax
  00048	ff 15 00 00 00
	00		 call	 DWORD PTR __imp__GetLocalTime@4

; 154  : 
; 155  : 		// 4.  Section Value  Section String .
; 156  : 		CString strBuffer;

  0004e	8d 4d d0	 lea	 ecx, DWORD PTR _strBuffer$[ebp]
  00051	ff 15 00 00 00
	00		 call	 DWORD PTR __imp_??0?$CStringT@DV?$StrTraitMFC_DLL@DV?$ChTraitsCRT@D@ATL@@@@@ATL@@QAE@XZ
  00057	c7 45 fc 00 00
	00 00		 mov	 DWORD PTR __$EHRec$[ebp+8], 0

; 157  : 		if( p_szSection && *p_szSection != '\0')

  0005e	85 f6		 test	 esi, esi
  00060	0f 84 ed 00 00
	00		 je	 $LN3@WriteToStr
  00066	80 3e 00	 cmp	 BYTE PTR [esi], 0
  00069	0f 84 e4 00 00
	00		 je	 $LN3@WriteToStr

; 158  : 		{
; 159  : 			CString strCurTime;

  0006f	8d 4d d4	 lea	 ecx, DWORD PTR _strCurTime$3[ebp]
  00072	ff 15 00 00 00
	00		 call	 DWORD PTR __imp_??0?$CStringT@DV?$StrTraitMFC_DLL@DV?$ChTraitsCRT@D@ATL@@@@@ATL@@QAE@XZ

; 160  : 			// (2005/9/1 - Seung-Won, Bae) Line Skip for Only Section.
; 161  : 			strCurTime.Format("\r\n\r\n\r\n[%02d:%02d:%02d:%03d  ", sTime.wHour, sTime.wMinute, sTime.wSecond, 

  00078	0f b7 45 ee	 movzx	 eax, WORD PTR _sTime$[ebp+14]
  0007c	50		 push	 eax
  0007d	0f b7 45 ec	 movzx	 eax, WORD PTR _sTime$[ebp+12]
  00081	50		 push	 eax
  00082	0f b7 45 ea	 movzx	 eax, WORD PTR _sTime$[ebp+10]
  00086	50		 push	 eax
  00087	0f b7 45 e8	 movzx	 eax, WORD PTR _sTime$[ebp+8]
  0008b	50		 push	 eax
  0008c	8d 45 d4	 lea	 eax, DWORD PTR _strCurTime$3[ebp]
  0008f	c6 45 fc 01	 mov	 BYTE PTR __$EHRec$[ebp+8], 1
  00093	68 00 00 00 00	 push	 OFFSET ??_C@_0BN@HKLPFIKN@?$AN?6?$AN?6?$AN?6?$FL?$CF02d?3?$CF02d?3?$CF02d?3?$CF03d?5?5@
  00098	50		 push	 eax
  00099	ff 15 00 00 00
	00		 call	 DWORD PTR __imp_?Format@?$CStringT@DV?$StrTraitMFC_DLL@DV?$ChTraitsCRT@D@ATL@@@@@ATL@@QAAXPBDZZ
  0009f	83 c4 18	 add	 esp, 24			; 00000018H
; File C:\Program Files (x86)\Microsoft Visual Studio\2019\Community\VC\Tools\MSVC\14.29.30133\atlmfc\include\cstringt.h

; 2401 : 		CStringT strResult( str1.GetManager() );

  000a2	8d 4d d4	 lea	 ecx, DWORD PTR _strCurTime$3[ebp]
; File D:\git\src\IBK\IBK_DRFN\ProjSrc\SrcChartEx\ChartOCX\Include\DumpLogger.h

; 163  : 			strBuffer = strCurTime + p_szSection + "]\r\n";

  000a5	c6 45 fc 02	 mov	 BYTE PTR __$EHRec$[ebp+8], 2
; File C:\Program Files (x86)\Microsoft Visual Studio\2019\Community\VC\Tools\MSVC\14.29.30133\atlmfc\include\cstringt.h

; 2401 : 		CStringT strResult( str1.GetManager() );

  000a9	ff 15 00 00 00
	00		 call	 DWORD PTR __imp_?GetManager@?$CStringT@DV?$StrTraitMFC_DLL@DV?$ChTraitsCRT@D@ATL@@@@@ATL@@QBEPAUIAtlStringMgr@2@XZ
  000af	50		 push	 eax
  000b0	8d 4d d8	 lea	 ecx, DWORD PTR $T4[ebp]
  000b3	ff 15 00 00 00
	00		 call	 DWORD PTR __imp_??0?$CStringT@DV?$StrTraitMFC_DLL@DV?$ChTraitsCRT@D@ATL@@@@@ATL@@QAE@PAUIAtlStringMgr@1@@Z
; File C:\Program Files (x86)\Microsoft Visual Studio\2019\Community\VC\Tools\MSVC\14.29.30133\atlmfc\include\atlsimpstr.h

; 726  : 		return( int( strlen( psz ) ) );

  000b9	8b ce		 mov	 ecx, esi
; File C:\Program Files (x86)\Microsoft Visual Studio\2019\Community\VC\Tools\MSVC\14.29.30133\atlmfc\include\cstringt.h

; 2405 : 		return( strResult );

  000bb	c7 45 cc 01 00
	00 00		 mov	 DWORD PTR $T2[ebp], 1
; File C:\Program Files (x86)\Microsoft Visual Studio\2019\Community\VC\Tools\MSVC\14.29.30133\atlmfc\include\atlsimpstr.h

; 726  : 		return( int( strlen( psz ) ) );

  000c2	8d 51 01	 lea	 edx, DWORD PTR [ecx+1]
$LL49@WriteToStr:
  000c5	8a 01		 mov	 al, BYTE PTR [ecx]
  000c7	41		 inc	 ecx
  000c8	84 c0		 test	 al, al
  000ca	75 f9		 jne	 SHORT $LL49@WriteToStr

; 519  : 		return( GetData()->nDataLength );

  000cc	8b 45 d4	 mov	 eax, DWORD PTR _strCurTime$3[ebp]

; 726  : 		return( int( strlen( psz ) ) );

  000cf	2b ca		 sub	 ecx, edx
; File C:\Program Files (x86)\Microsoft Visual Studio\2019\Community\VC\Tools\MSVC\14.29.30133\atlmfc\include\cstringt.h

; 2403 : 		CThisSimpleString::Concatenate( strResult, str1, str1.GetLength(), psz2, CThisSimpleString::StringLength( psz2 ) );

  000d1	51		 push	 ecx
  000d2	56		 push	 esi
  000d3	ff 70 f4	 push	 DWORD PTR [eax-12]
  000d6	50		 push	 eax
  000d7	8d 45 d8	 lea	 eax, DWORD PTR $T4[ebp]
  000da	50		 push	 eax
  000db	ff 15 00 00 00
	00		 call	 DWORD PTR __imp_?Concatenate@?$CSimpleStringT@D$00@ATL@@KAXAAV12@PBDH1H@Z
  000e1	83 c4 14	 add	 esp, 20			; 00000014H

; 2401 : 		CStringT strResult( str1.GetManager() );

  000e4	8d 4d d8	 lea	 ecx, DWORD PTR $T4[ebp]
; File D:\git\src\IBK\IBK_DRFN\ProjSrc\SrcChartEx\ChartOCX\Include\DumpLogger.h

; 163  : 			strBuffer = strCurTime + p_szSection + "]\r\n";

  000e7	c6 45 fc 03	 mov	 BYTE PTR __$EHRec$[ebp+8], 3
; File C:\Program Files (x86)\Microsoft Visual Studio\2019\Community\VC\Tools\MSVC\14.29.30133\atlmfc\include\cstringt.h

; 2401 : 		CStringT strResult( str1.GetManager() );

  000eb	ff 15 00 00 00
	00		 call	 DWORD PTR __imp_?GetManager@?$CStringT@DV?$StrTraitMFC_DLL@DV?$ChTraitsCRT@D@ATL@@@@@ATL@@QBEPAUIAtlStringMgr@2@XZ
  000f1	50		 push	 eax
  000f2	8d 4d dc	 lea	 ecx, DWORD PTR $T6[ebp]
  000f5	ff 15 00 00 00
	00		 call	 DWORD PTR __imp_??0?$CStringT@DV?$StrTraitMFC_DLL@DV?$ChTraitsCRT@D@ATL@@@@@ATL@@QAE@PAUIAtlStringMgr@1@@Z

; 2403 : 		CThisSimpleString::Concatenate( strResult, str1, str1.GetLength(), psz2, CThisSimpleString::StringLength( psz2 ) );

  000fb	8b 45 d8	 mov	 eax, DWORD PTR $T4[ebp]
  000fe	6a 03		 push	 3
  00100	68 00 00 00 00	 push	 OFFSET ??_C@_03BFOLIMEF@?$FN?$AN?6@

; 2405 : 		return( strResult );

  00105	c7 45 cc 03 00
	00 00		 mov	 DWORD PTR $T2[ebp], 3
  0010c	ff 70 f4	 push	 DWORD PTR [eax-12]
  0010f	50		 push	 eax
  00110	8d 45 dc	 lea	 eax, DWORD PTR $T6[ebp]
  00113	50		 push	 eax
  00114	ff 15 00 00 00
	00		 call	 DWORD PTR __imp_?Concatenate@?$CSimpleStringT@D$00@ATL@@KAXAAV12@PBDH1H@Z
  0011a	83 c4 14	 add	 esp, 20			; 00000014H
; File D:\git\src\IBK\IBK_DRFN\ProjSrc\SrcChartEx\ChartOCX\Include\DumpLogger.h

; 163  : 			strBuffer = strCurTime + p_szSection + "]\r\n";

  0011d	8d 45 dc	 lea	 eax, DWORD PTR $T6[ebp]
  00120	8d 4d d0	 lea	 ecx, DWORD PTR _strBuffer$[ebp]
  00123	50		 push	 eax
  00124	ff 15 00 00 00
	00		 call	 DWORD PTR __imp_??4?$CStringT@DV?$StrTraitMFC_DLL@DV?$ChTraitsCRT@D@ATL@@@@@ATL@@QAEAAV01@ABV01@@Z
  0012a	8d 4d dc	 lea	 ecx, DWORD PTR $T6[ebp]
  0012d	ff 15 00 00 00
	00		 call	 DWORD PTR __imp_??1?$CStringT@DV?$StrTraitMFC_DLL@DV?$ChTraitsCRT@D@ATL@@@@@ATL@@QAE@XZ
  00133	8d 4d d8	 lea	 ecx, DWORD PTR $T4[ebp]
  00136	ff 15 00 00 00
	00		 call	 DWORD PTR __imp_??1?$CStringT@DV?$StrTraitMFC_DLL@DV?$ChTraitsCRT@D@ATL@@@@@ATL@@QAE@XZ

; 164  : 			_hwrite( m_hLogFile, ( LPCTSTR)strBuffer, strBuffer.GetLength());

  0013c	8b 45 d0	 mov	 eax, DWORD PTR _strBuffer$[ebp]
  0013f	8b 35 00 00 00
	00		 mov	 esi, DWORD PTR __imp___hwrite@12
  00145	ff 70 f4	 push	 DWORD PTR [eax-12]
  00148	50		 push	 eax
  00149	ff 77 04	 push	 DWORD PTR [edi+4]
  0014c	ff d6		 call	 esi

; 165  : 		}

  0014e	8d 4d d4	 lea	 ecx, DWORD PTR _strCurTime$3[ebp]
  00151	eb 48		 jmp	 SHORT $LN51@WriteToStr
$LN3@WriteToStr:

; 166  : 		// (2005/9/2 - Seung-Won, Bae) in No Section Log, Insert Time in front of Line
; 167  : 		else
; 168  : 		{
; 169  : 			CString strCurTime;

  00153	8d 4d dc	 lea	 ecx, DWORD PTR _strCurTime$5[ebp]
  00156	ff 15 00 00 00
	00		 call	 DWORD PTR __imp_??0?$CStringT@DV?$StrTraitMFC_DLL@DV?$ChTraitsCRT@D@ATL@@@@@ATL@@QAE@XZ

; 170  : 			strCurTime.Format("%02d:%02d:%02d:%03d\t", sTime.wHour, sTime.wMinute, sTime.wSecond, 

  0015c	0f b7 45 ee	 movzx	 eax, WORD PTR _sTime$[ebp+14]
  00160	50		 push	 eax
  00161	0f b7 45 ec	 movzx	 eax, WORD PTR _sTime$[ebp+12]
  00165	50		 push	 eax
  00166	0f b7 45 ea	 movzx	 eax, WORD PTR _sTime$[ebp+10]
  0016a	50		 push	 eax
  0016b	0f b7 45 e8	 movzx	 eax, WORD PTR _sTime$[ebp+8]
  0016f	50		 push	 eax
  00170	8d 45 dc	 lea	 eax, DWORD PTR _strCurTime$5[ebp]
  00173	c6 45 fc 04	 mov	 BYTE PTR __$EHRec$[ebp+8], 4
  00177	68 00 00 00 00	 push	 OFFSET ??_C@_0BF@GOEHBEJD@?$CF02d?3?$CF02d?3?$CF02d?3?$CF03d?7@
  0017c	50		 push	 eax
  0017d	ff 15 00 00 00
	00		 call	 DWORD PTR __imp_?Format@?$CStringT@DV?$StrTraitMFC_DLL@DV?$ChTraitsCRT@D@ATL@@@@@ATL@@QAAXPBDZZ

; 171  : 				sTime.wMilliseconds);
; 172  : 			_hwrite( m_hLogFile, strCurTime, strCurTime.GetLength());

  00183	8b 45 dc	 mov	 eax, DWORD PTR _strCurTime$5[ebp]
  00186	83 c4 18	 add	 esp, 24			; 00000018H
  00189	8b 35 00 00 00
	00		 mov	 esi, DWORD PTR __imp___hwrite@12
  0018f	ff 70 f4	 push	 DWORD PTR [eax-12]
  00192	50		 push	 eax
  00193	ff 77 04	 push	 DWORD PTR [edi+4]
  00196	ff d6		 call	 esi

; 173  : 		}

  00198	8d 4d dc	 lea	 ecx, DWORD PTR _strCurTime$5[ebp]
$LN51@WriteToStr:

; 174  : 
; 175  : 		// 5. Memory Dump.
; 176  : 		_hwrite( m_hLogFile, p_szData, p_nDataLen);

  0019b	ff 15 00 00 00
	00		 call	 DWORD PTR __imp_??1?$CStringT@DV?$StrTraitMFC_DLL@DV?$ChTraitsCRT@D@ATL@@@@@ATL@@QAE@XZ
  001a1	ff 75 10	 push	 DWORD PTR _p_nDataLen$[ebp]
  001a4	53		 push	 ebx
  001a5	ff 77 04	 push	 DWORD PTR [edi+4]
  001a8	ff d6		 call	 esi

; 177  : 	}

  001aa	8d 4d d0	 lea	 ecx, DWORD PTR _strBuffer$[ebp]
  001ad	ff 15 00 00 00
	00		 call	 DWORD PTR __imp_??1?$CStringT@DV?$StrTraitMFC_DLL@DV?$ChTraitsCRT@D@ATL@@@@@ATL@@QAE@XZ
$LN1@WriteToStr:
  001b3	8b 4d f4	 mov	 ecx, DWORD PTR __$EHRec$[ebp]
  001b6	64 89 0d 00 00
	00 00		 mov	 DWORD PTR fs:0, ecx
  001bd	59		 pop	 ecx
  001be	5f		 pop	 edi
  001bf	5e		 pop	 esi
  001c0	5b		 pop	 ebx
  001c1	8b 4d f0	 mov	 ecx, DWORD PTR __$ArrayPad$[ebp]
  001c4	33 cd		 xor	 ecx, ebp
  001c6	e8 00 00 00 00	 call	 @__security_check_cookie@4
  001cb	8b e5		 mov	 esp, ebp
  001cd	5d		 pop	 ebp
  001ce	c2 0c 00	 ret	 12			; 0000000cH
_TEXT	ENDS
;	COMDAT text$x
text$x	SEGMENT
__unwindfunclet$?WriteToStringLog@CDumpLogger@@QAEXPBD0H@Z$0:
  00000	8d 4d d0	 lea	 ecx, DWORD PTR _strBuffer$[ebp]
  00003	ff 25 00 00 00
	00		 jmp	 DWORD PTR __imp_??1?$CStringT@DV?$StrTraitMFC_DLL@DV?$ChTraitsCRT@D@ATL@@@@@ATL@@QAE@XZ
__unwindfunclet$?WriteToStringLog@CDumpLogger@@QAEXPBD0H@Z$1:
  00009	8d 4d d4	 lea	 ecx, DWORD PTR _strCurTime$3[ebp]
  0000c	ff 25 00 00 00
	00		 jmp	 DWORD PTR __imp_??1?$CStringT@DV?$StrTraitMFC_DLL@DV?$ChTraitsCRT@D@ATL@@@@@ATL@@QAE@XZ
__unwindfunclet$?WriteToStringLog@CDumpLogger@@QAEXPBD0H@Z$5:
  00012	8b 45 cc	 mov	 eax, DWORD PTR $T2[ebp]
  00015	83 e0 01	 and	 eax, 1
  00018	0f 84 0d 00 00
	00		 je	 $LN14@WriteToStr
  0001e	83 65 cc fe	 and	 DWORD PTR $T2[ebp], -2	; fffffffeH
  00022	8d 4d d8	 lea	 ecx, DWORD PTR $T4[ebp]
  00025	ff 25 00 00 00
	00		 jmp	 DWORD PTR __imp_??1?$CStringT@DV?$StrTraitMFC_DLL@DV?$ChTraitsCRT@D@ATL@@@@@ATL@@QAE@XZ
$LN14@WriteToStr:
  0002b	c3		 ret	 0
__unwindfunclet$?WriteToStringLog@CDumpLogger@@QAEXPBD0H@Z$6:
  0002c	8b 45 cc	 mov	 eax, DWORD PTR $T2[ebp]
  0002f	83 e0 02	 and	 eax, 2
  00032	0f 84 0d 00 00
	00		 je	 $LN27@WriteToStr
  00038	83 65 cc fd	 and	 DWORD PTR $T2[ebp], -3	; fffffffdH
  0003c	8d 4d dc	 lea	 ecx, DWORD PTR $T6[ebp]
  0003f	ff 25 00 00 00
	00		 jmp	 DWORD PTR __imp_??1?$CStringT@DV?$StrTraitMFC_DLL@DV?$ChTraitsCRT@D@ATL@@@@@ATL@@QAE@XZ
$LN27@WriteToStr:
  00045	c3		 ret	 0
__unwindfunclet$?WriteToStringLog@CDumpLogger@@QAEXPBD0H@Z$4:
  00046	8d 4d dc	 lea	 ecx, DWORD PTR _strCurTime$5[ebp]
  00049	ff 25 00 00 00
	00		 jmp	 DWORD PTR __imp_??1?$CStringT@DV?$StrTraitMFC_DLL@DV?$ChTraitsCRT@D@ATL@@@@@ATL@@QAE@XZ
  0004f	cc		 int	 3
  00050	cc		 int	 3
  00051	cc		 int	 3
  00052	cc		 int	 3
  00053	cc		 int	 3
__ehhandler$?WriteToStringLog@CDumpLogger@@QAEXPBD0H@Z:
  00054	90		 npad	 1
  00055	90		 npad	 1
  00056	8b 54 24 08	 mov	 edx, DWORD PTR [esp+8]
  0005a	8d 42 0c	 lea	 eax, DWORD PTR [edx+12]
  0005d	8b 4a c8	 mov	 ecx, DWORD PTR [edx-56]
  00060	33 c8		 xor	 ecx, eax
  00062	e8 00 00 00 00	 call	 @__security_check_cookie@4
  00067	8b 4a fc	 mov	 ecx, DWORD PTR [edx-4]
  0006a	33 c8		 xor	 ecx, eax
  0006c	e8 00 00 00 00	 call	 @__security_check_cookie@4
  00071	b8 00 00 00 00	 mov	 eax, OFFSET __ehfuncinfo$?WriteToStringLog@CDumpLogger@@QAEXPBD0H@Z
  00076	e9 00 00 00 00	 jmp	 ___CxxFrameHandler3
text$x	ENDS
?WriteToStringLog@CDumpLogger@@QAEXPBD0H@Z ENDP		; CDumpLogger::WriteToStringLog
; Function compile flags: /Ogtp
; File D:\git\src\IBK\IBK_DRFN\ProjSrc\SrcChartEx\ChartOCX\Include\DumpLogger.h
;	COMDAT ??1CDumpLogger@@UAE@XZ
_TEXT	SEGMENT
??1CDumpLogger@@UAE@XZ PROC				; CDumpLogger::~CDumpLogger, COMDAT
; _this$ = ecx

; 56   : 		// 6. Dump File .
; 57   : 		if( m_hLogFile != HFILE_ERROR) _lclose( m_hLogFile);

  00000	8b 41 04	 mov	 eax, DWORD PTR [ecx+4]
  00003	c7 01 00 00 00
	00		 mov	 DWORD PTR [ecx], OFFSET ??_7CDumpLogger@@6B@
  00009	83 f8 ff	 cmp	 eax, -1
  0000c	74 07		 je	 SHORT $LN2@CDumpLogge
  0000e	50		 push	 eax
  0000f	ff 15 00 00 00
	00		 call	 DWORD PTR __imp___lclose@4
$LN2@CDumpLogge:

; 58   : 	}

  00015	c3		 ret	 0
??1CDumpLogger@@UAE@XZ ENDP				; CDumpLogger::~CDumpLogger
_TEXT	ENDS
; Function compile flags: /Ogtp
; File D:\git\src\IBK\IBK_DRFN\ProjSrc\SrcChartEx\ChartOCX\KTBChart\KTBChartDLL.cpp
;	COMDAT ??__ERMSG_CHARTMSG_EVENTMESSAGE@@YAXXZ
text$di	SEGMENT
??__ERMSG_CHARTMSG_EVENTMESSAGE@@YAXXZ PROC		; `dynamic initializer for 'RMSG_CHARTMSG_EVENTMESSAGE'', COMDAT

; 34   : const UINT RMSG_CHARTMSG_EVENTMESSAGE	= ::RegisterWindowMessage( _CHARTMSG_EVENTMESSAGE);

  00000	68 00 00 00 00	 push	 OFFSET ??_C@_0BG@OPFPJGPD@CHARTMSG_EVENTMESSAGE@
  00005	ff 15 00 00 00
	00		 call	 DWORD PTR __imp__RegisterWindowMessageA@4
  0000b	a3 00 00 00 00	 mov	 DWORD PTR ?RMSG_CHARTMSG_EVENTMESSAGE@@3IB, eax ; RMSG_CHARTMSG_EVENTMESSAGE
  00010	c3		 ret	 0
??__ERMSG_CHARTMSG_EVENTMESSAGE@@YAXXZ ENDP		; `dynamic initializer for 'RMSG_CHARTMSG_EVENTMESSAGE''
text$di	ENDS
; Function compile flags: /Ogtp
; File C:\Program Files (x86)\Microsoft Visual Studio\2019\Community\VC\Tools\MSVC\14.29.30133\atlmfc\include\afx.inl
;	COMDAT ??_G?$CList@V?$CStringT@DV?$StrTraitMFC_DLL@DV?$ChTraitsCRT@D@ATL@@@@@ATL@@V12@@@UAEPAXI@Z
_TEXT	SEGMENT
___flags$ = 8						; size = 4
??_G?$CList@V?$CStringT@DV?$StrTraitMFC_DLL@DV?$ChTraitsCRT@D@ATL@@@@@ATL@@V12@@@UAEPAXI@Z PROC ; CList<ATL::CStringT<char,StrTraitMFC_DLL<char,ATL::ChTraitsCRT<char> > >,ATL::CStringT<char,StrTraitMFC_DLL<char,ATL::ChTraitsCRT<char> > > >::`scalar deleting destructor', COMDAT
; _this$ = ecx
  00000	55		 push	 ebp
  00001	8b ec		 mov	 ebp, esp
  00003	56		 push	 esi
  00004	8b f1		 mov	 esi, ecx
  00006	e8 00 00 00 00	 call	 ??1?$CList@V?$CStringT@DV?$StrTraitMFC_DLL@DV?$ChTraitsCRT@D@ATL@@@@@ATL@@V12@@@UAE@XZ ; CList<ATL::CStringT<char,StrTraitMFC_DLL<char,ATL::ChTraitsCRT<char> > >,ATL::CStringT<char,StrTraitMFC_DLL<char,ATL::ChTraitsCRT<char> > > >::~CList<ATL::CStringT<char,StrTraitMFC_DLL<char,ATL::ChTraitsCRT<char> > >,ATL::CStringT<char,StrTraitMFC_DLL<char,ATL::ChTraitsCRT<char> > > >
  0000b	8b 45 08	 mov	 eax, DWORD PTR ___flags$[ebp]
  0000e	a8 01		 test	 al, 1
  00010	74 1f		 je	 SHORT $LN9@scalar
  00012	a8 04		 test	 al, 4
  00014	75 10		 jne	 SHORT $LN3@scalar

; 112  : 	{ ::operator delete(p); }

  00016	56		 push	 esi
  00017	e8 00 00 00 00	 call	 ??3@YAXPAX@Z		; operator delete
  0001c	83 c4 04	 add	 esp, 4
  0001f	8b c6		 mov	 eax, esi
  00021	5e		 pop	 esi
  00022	5d		 pop	 ebp
  00023	c2 04 00	 ret	 4
$LN3@scalar:
  00026	6a 1c		 push	 28			; 0000001cH
  00028	56		 push	 esi
  00029	e8 00 00 00 00	 call	 ?__global_delete@@YAXPAXI@Z ; __global_delete
  0002e	83 c4 08	 add	 esp, 8
$LN9@scalar:
  00031	8b c6		 mov	 eax, esi
  00033	5e		 pop	 esi
  00034	5d		 pop	 ebp
  00035	c2 04 00	 ret	 4
??_G?$CList@V?$CStringT@DV?$StrTraitMFC_DLL@DV?$ChTraitsCRT@D@ATL@@@@@ATL@@V12@@@UAEPAXI@Z ENDP ; CList<ATL::CStringT<char,StrTraitMFC_DLL<char,ATL::ChTraitsCRT<char> > >,ATL::CStringT<char,StrTraitMFC_DLL<char,ATL::ChTraitsCRT<char> > > >::`scalar deleting destructor'
_TEXT	ENDS
; Function compile flags: /Ogtp
; File C:\Program Files (x86)\Microsoft Visual Studio\2019\Community\VC\Tools\MSVC\14.29.30133\atlmfc\include\afxtempl.h
; File C:\Program Files (x86)\Microsoft Visual Studio\2019\Community\VC\Tools\MSVC\14.29.30133\atlmfc\include\afx.inl
; File C:\Program Files (x86)\Microsoft Visual Studio\2019\Community\VC\Tools\MSVC\14.29.30133\atlmfc\include\afxtempl.h
; File C:\Program Files (x86)\Microsoft Visual Studio\2019\Community\VC\Tools\MSVC\14.29.30133\atlmfc\include\afx.inl
; File C:\Program Files (x86)\Microsoft Visual Studio\2019\Community\VC\Tools\MSVC\14.29.30133\atlmfc\include\afxtempl.h
;	COMDAT ?Serialize@?$CList@V?$CStringT@DV?$StrTraitMFC_DLL@DV?$ChTraitsCRT@D@ATL@@@@@ATL@@V12@@@UAEXAAVCArchive@@@Z
_TEXT	SEGMENT
_nNewCount$1$ = -24					; size = 4
$T2 = -20						; size = 4
_newData$3 = -16					; size = 4
__$EHRec$ = -12						; size = 12
_ar$ = 8						; size = 4
?Serialize@?$CList@V?$CStringT@DV?$StrTraitMFC_DLL@DV?$ChTraitsCRT@D@ATL@@@@@ATL@@V12@@@UAEXAAVCArchive@@@Z PROC ; CList<ATL::CStringT<char,StrTraitMFC_DLL<char,ATL::ChTraitsCRT<char> > >,ATL::CStringT<char,StrTraitMFC_DLL<char,ATL::ChTraitsCRT<char> > > >::Serialize, COMDAT
; _this$ = ecx

; 1169 : {

  00000	55		 push	 ebp
  00001	8b ec		 mov	 ebp, esp
  00003	6a ff		 push	 -1
  00005	68 00 00 00 00	 push	 __ehhandler$?Serialize@?$CList@V?$CStringT@DV?$StrTraitMFC_DLL@DV?$ChTraitsCRT@D@ATL@@@@@ATL@@V12@@@UAEXAAVCArchive@@@Z
  0000a	64 a1 00 00 00
	00		 mov	 eax, DWORD PTR fs:0
  00010	50		 push	 eax
  00011	83 ec 0c	 sub	 esp, 12			; 0000000cH
  00014	53		 push	 ebx
  00015	56		 push	 esi
  00016	57		 push	 edi
  00017	a1 00 00 00 00	 mov	 eax, DWORD PTR ___security_cookie
  0001c	33 c5		 xor	 eax, ebp
  0001e	50		 push	 eax
  0001f	8d 45 f4	 lea	 eax, DWORD PTR __$EHRec$[ebp]
  00022	64 a3 00 00 00
	00		 mov	 DWORD PTR fs:0, eax
  00028	8b f9		 mov	 edi, ecx
; File C:\Program Files (x86)\Microsoft Visual Studio\2019\Community\VC\Tools\MSVC\14.29.30133\atlmfc\include\afx.inl

; 212  : 	{ return (m_nMode & CArchive::load) == 0; }

  0002a	8b 5d 08	 mov	 ebx, DWORD PTR _ar$[ebp]
; File C:\Program Files (x86)\Microsoft Visual Studio\2019\Community\VC\Tools\MSVC\14.29.30133\atlmfc\include\afxtempl.h

; 1174 : 	if (ar.IsStoring())

  0002d	8b cb		 mov	 ecx, ebx
; File C:\Program Files (x86)\Microsoft Visual Studio\2019\Community\VC\Tools\MSVC\14.29.30133\atlmfc\include\afx.inl

; 212  : 	{ return (m_nMode & CArchive::load) == 0; }

  0002f	8b 43 18	 mov	 eax, DWORD PTR [ebx+24]
  00032	f7 d0		 not	 eax
  00034	a8 01		 test	 al, 1
; File C:\Program Files (x86)\Microsoft Visual Studio\2019\Community\VC\Tools\MSVC\14.29.30133\atlmfc\include\afxtempl.h

; 1174 : 	if (ar.IsStoring())

  00036	74 35		 je	 SHORT $LN7@Serialize

; 1175 : 	{
; 1176 : 		ar.WriteCount(m_nCount);

  00038	ff 77 0c	 push	 DWORD PTR [edi+12]
  0003b	e8 00 00 00 00	 call	 ?WriteCount@CArchive@@QAEXK@Z ; CArchive::WriteCount

; 1177 : 		for (CNode* pNode = m_pNodeHead; pNode != NULL; pNode = pNode->pNext)

  00040	8b 77 04	 mov	 esi, DWORD PTR [edi+4]
  00043	85 f6		 test	 esi, esi
  00045	74 12		 je	 SHORT $LN48@Serialize
$LL4@Serialize:

; 1178 : 		{
; 1179 : 			ASSERT(AfxIsValidAddress(pNode, sizeof(CNode)));
; 1180 : 			TYPE* pData;
; 1181 : 			/*
; 1182 : 			 * in some cases the & operator might be overloaded, and we cannot use it to obtain
; 1183 : 			 * the address of a given object.  We then use the following trick to get the address
; 1184 : 			 */
; 1185 : 			pData = reinterpret_cast< TYPE* >( &reinterpret_cast< int& >( static_cast< TYPE& >( pNode->data ) ) );
; 1186 : 			SerializeElements<TYPE>(ar, pData, 1);

  00047	6a 01		 push	 1
  00049	8d 46 08	 lea	 eax, DWORD PTR [esi+8]
  0004c	50		 push	 eax
  0004d	53		 push	 ebx
  0004e	e8 00 00 00 00	 call	 ??$SerializeElements@V?$CStringT@DV?$StrTraitMFC_DLL@DV?$ChTraitsCRT@D@ATL@@@@@ATL@@@@YGXAAVCArchive@@PAV?$CStringT@DV?$StrTraitMFC_DLL@DV?$ChTraitsCRT@D@ATL@@@@@ATL@@H@Z ; SerializeElements<ATL::CStringT<char,StrTraitMFC_DLL<char,ATL::ChTraitsCRT<char> > > >
  00053	8b 36		 mov	 esi, DWORD PTR [esi]
  00055	85 f6		 test	 esi, esi
  00057	75 ee		 jne	 SHORT $LL4@Serialize
$LN48@Serialize:

; 1198 : 	}
; 1199 : }

  00059	8b 4d f4	 mov	 ecx, DWORD PTR __$EHRec$[ebp]
  0005c	64 89 0d 00 00
	00 00		 mov	 DWORD PTR fs:0, ecx
  00063	59		 pop	 ecx
  00064	5f		 pop	 edi
  00065	5e		 pop	 esi
  00066	5b		 pop	 ebx
  00067	8b e5		 mov	 esp, ebp
  00069	5d		 pop	 ebp
  0006a	c2 04 00	 ret	 4
$LN7@Serialize:

; 1187 : 		}
; 1188 : 	}
; 1189 : 	else
; 1190 : 	{
; 1191 : 		DWORD_PTR nNewCount = ar.ReadCount();

  0006d	e8 00 00 00 00	 call	 ?ReadCount@CArchive@@QAEKXZ ; CArchive::ReadCount

; 1192 : 		while (nNewCount--)

  00072	85 c0		 test	 eax, eax
  00074	74 e3		 je	 SHORT $LN48@Serialize
  00076	66 66 0f 1f 84
	00 00 00 00 00	 npad	 10
$LL5@Serialize:

; 1193 : 		{
; 1194 : 			TYPE newData[1];

  00080	ff 35 00 00 00
	00		 push	 DWORD PTR __imp_??1?$CStringT@DV?$StrTraitMFC_DLL@DV?$ChTraitsCRT@D@ATL@@@@@ATL@@QAE@XZ
  00086	48		 dec	 eax
  00087	ff 35 00 00 00
	00		 push	 DWORD PTR __imp_??0?$CStringT@DV?$StrTraitMFC_DLL@DV?$ChTraitsCRT@D@ATL@@@@@ATL@@QAE@XZ
  0008d	89 45 e8	 mov	 DWORD PTR _nNewCount$1$[ebp], eax
  00090	8d 45 f0	 lea	 eax, DWORD PTR _newData$3[ebp]
  00093	6a 01		 push	 1
  00095	6a 04		 push	 4
  00097	50		 push	 eax
  00098	e8 00 00 00 00	 call	 ??_L@YGXPAXIIP6EX0@Z1@Z

; 1195 : 			SerializeElements<TYPE>(ar, newData, 1);

  0009d	6a 01		 push	 1
  0009f	8d 45 f0	 lea	 eax, DWORD PTR _newData$3[ebp]
  000a2	c7 45 fc 00 00
	00 00		 mov	 DWORD PTR __$EHRec$[ebp+8], 0
  000a9	50		 push	 eax
  000aa	53		 push	 ebx
  000ab	e8 00 00 00 00	 call	 ??$SerializeElements@V?$CStringT@DV?$StrTraitMFC_DLL@DV?$ChTraitsCRT@D@ATL@@@@@ATL@@@@YGXAAVCArchive@@PAV?$CStringT@DV?$StrTraitMFC_DLL@DV?$ChTraitsCRT@D@ATL@@@@@ATL@@H@Z ; SerializeElements<ATL::CStringT<char,StrTraitMFC_DLL<char,ATL::ChTraitsCRT<char> > > >

; 1196 : 			AddTail(newData[0]);

  000b0	8d 45 f0	 lea	 eax, DWORD PTR _newData$3[ebp]
  000b3	50		 push	 eax
  000b4	8d 4d ec	 lea	 ecx, DWORD PTR $T2[ebp]
  000b7	ff 15 00 00 00
	00		 call	 DWORD PTR __imp_??0?$CStringT@DV?$StrTraitMFC_DLL@DV?$ChTraitsCRT@D@ATL@@@@@ATL@@QAE@ABV01@@Z

; 902  : 	if (m_pNodeFree == NULL)

  000bd	8b 5f 10	 mov	 ebx, DWORD PTR [edi+16]

; 968  : 	CNode* pNewNode = NewNode(m_pNodeTail, NULL);

  000c0	8b 77 08	 mov	 esi, DWORD PTR [edi+8]
  000c3	c6 45 fc 01	 mov	 BYTE PTR __$EHRec$[ebp+8], 1

; 902  : 	if (m_pNodeFree == NULL)

  000c7	85 db		 test	 ebx, ebx
  000c9	75 40		 jne	 SHORT $LN46@Serialize

; 903  : 	{
; 904  : 		// add another block
; 905  : 		CPlex* pNewBlock = CPlex::Create(m_pBlocks, m_nBlockSize,

  000cb	6a 0c		 push	 12			; 0000000cH
  000cd	ff 77 18	 push	 DWORD PTR [edi+24]
  000d0	8d 47 14	 lea	 eax, DWORD PTR [edi+20]
  000d3	50		 push	 eax
  000d4	e8 00 00 00 00	 call	 ?Create@CPlex@@SGPAU1@AAPAU1@II@Z ; CPlex::Create

; 906  : 				 sizeof(CNode));
; 907  : 
; 908  : 		// chain them into free list
; 909  : 		CNode* pNode = (CNode*) pNewBlock->data();
; 910  : 		// free in reverse order to make it easier to debug
; 911  : 		pNode += m_nBlockSize - 1;

  000d9	8b 57 18	 mov	 edx, DWORD PTR [edi+24]
  000dc	8d 0c 52	 lea	 ecx, DWORD PTR [edx+edx*2]
  000df	8d 04 88	 lea	 eax, DWORD PTR [eax+ecx*4]
  000e2	83 c0 fc	 add	 eax, -4			; fffffffcH

; 912  : 		for (INT_PTR i = m_nBlockSize-1; i >= 0; i--, pNode--)

  000e5	83 c2 ff	 add	 edx, -1
  000e8	78 1a		 js	 SHORT $LN47@Serialize
  000ea	66 0f 1f 44 00
	00		 npad	 6
$LL22@Serialize:

; 913  : 		{
; 914  : 			pNode->pNext = m_pNodeFree;

  000f0	8b 4f 10	 mov	 ecx, DWORD PTR [edi+16]
  000f3	8b d8		 mov	 ebx, eax
  000f5	89 08		 mov	 DWORD PTR [eax], ecx

; 915  : 			m_pNodeFree = pNode;

  000f7	89 47 10	 mov	 DWORD PTR [edi+16], eax
  000fa	83 e8 0c	 sub	 eax, 12			; 0000000cH
  000fd	83 ea 01	 sub	 edx, 1
  00100	79 ee		 jns	 SHORT $LL22@Serialize
  00102	eb 03		 jmp	 SHORT $LN25@Serialize
$LN47@Serialize:
  00104	8b 5f 10	 mov	 ebx, DWORD PTR [edi+16]
$LN25@Serialize:

; 916  : 		}
; 917  : 	}
; 918  : 	ENSURE(m_pNodeFree != NULL);  // we must have something

  00107	85 db		 test	 ebx, ebx
  00109	74 6e		 je	 SHORT $LN34@Serialize
$LN46@Serialize:

; 919  : 
; 920  : 	CList::CNode* pNode = m_pNodeFree;
; 921  : 	m_pNodeFree = m_pNodeFree->pNext;

  0010b	8b 03		 mov	 eax, DWORD PTR [ebx]

; 922  : 	pNode->pPrev = pPrev;
; 923  : 	pNode->pNext = pNext;
; 924  : 	m_nCount++;
; 925  : 	ASSERT(m_nCount > 0);  // make sure we don't overflow
; 926  : 
; 927  : #pragma push_macro("new")
; 928  : #undef new
; 929  : 	::new( (void*)( &pNode->data ) ) TYPE;

  0010d	8d 4b 08	 lea	 ecx, DWORD PTR [ebx+8]
  00110	89 47 10	 mov	 DWORD PTR [edi+16], eax
  00113	89 73 04	 mov	 DWORD PTR [ebx+4], esi
  00116	c7 03 00 00 00
	00		 mov	 DWORD PTR [ebx], 0
  0011c	ff 47 0c	 inc	 DWORD PTR [edi+12]
  0011f	ff 15 00 00 00
	00		 call	 DWORD PTR __imp_??0?$CStringT@DV?$StrTraitMFC_DLL@DV?$ChTraitsCRT@D@ATL@@@@@ATL@@QAE@XZ

; 969  : 	pNewNode->data = newElement;

  00125	8d 45 ec	 lea	 eax, DWORD PTR $T2[ebp]
  00128	50		 push	 eax
  00129	8d 4b 08	 lea	 ecx, DWORD PTR [ebx+8]
  0012c	ff 15 00 00 00
	00		 call	 DWORD PTR __imp_??4?$CStringT@DV?$StrTraitMFC_DLL@DV?$ChTraitsCRT@D@ATL@@@@@ATL@@QAEAAV01@ABV01@@Z

; 970  : 	if (m_pNodeTail != NULL)

  00132	8b 47 08	 mov	 eax, DWORD PTR [edi+8]
  00135	85 c0		 test	 eax, eax
  00137	74 04		 je	 SHORT $LN15@Serialize

; 971  : 		m_pNodeTail->pNext = pNewNode;

  00139	89 18		 mov	 DWORD PTR [eax], ebx
  0013b	eb 03		 jmp	 SHORT $LN16@Serialize
$LN15@Serialize:

; 972  : 	else
; 973  : 		m_pNodeHead = pNewNode;

  0013d	89 5f 04	 mov	 DWORD PTR [edi+4], ebx
$LN16@Serialize:

; 974  : 	m_pNodeTail = pNewNode;
; 975  : 	return (POSITION) pNewNode;

  00140	8d 4d ec	 lea	 ecx, DWORD PTR $T2[ebp]
  00143	89 5f 08	 mov	 DWORD PTR [edi+8], ebx
  00146	ff 15 00 00 00
	00		 call	 DWORD PTR __imp_??1?$CStringT@DV?$StrTraitMFC_DLL@DV?$ChTraitsCRT@D@ATL@@@@@ATL@@QAE@XZ

; 1197 : 		}

  0014c	ff 35 00 00 00
	00		 push	 DWORD PTR __imp_??1?$CStringT@DV?$StrTraitMFC_DLL@DV?$ChTraitsCRT@D@ATL@@@@@ATL@@QAE@XZ
  00152	8d 45 f0	 lea	 eax, DWORD PTR _newData$3[ebp]
  00155	c7 45 fc ff ff
	ff ff		 mov	 DWORD PTR __$EHRec$[ebp+8], -1
  0015c	6a 01		 push	 1
  0015e	6a 04		 push	 4
  00160	50		 push	 eax
  00161	e8 00 00 00 00	 call	 ??_M@YGXPAXIIP6EX0@Z@Z
  00166	8b 45 e8	 mov	 eax, DWORD PTR _nNewCount$1$[ebp]
  00169	85 c0		 test	 eax, eax
  0016b	0f 84 e8 fe ff
	ff		 je	 $LN48@Serialize

; 1192 : 		while (nNewCount--)

  00171	8b 5d 08	 mov	 ebx, DWORD PTR _ar$[ebp]
  00174	e9 07 ff ff ff	 jmp	 $LL5@Serialize
$LN34@Serialize:

; 918  : 	ENSURE(m_pNodeFree != NULL);  // we must have something

  00179	e8 00 00 00 00	 call	 ?AfxThrowInvalidArgException@@YGXXZ ; AfxThrowInvalidArgException
$LN50@Serialize:
  0017e	cc		 int	 3
_TEXT	ENDS
;	COMDAT text$x
text$x	SEGMENT
__unwindfunclet$?Serialize@?$CList@V?$CStringT@DV?$StrTraitMFC_DLL@DV?$ChTraitsCRT@D@ATL@@@@@ATL@@V12@@@UAEXAAVCArchive@@@Z$0:
  00000	a1 00 00 00 00	 mov	 eax, DWORD PTR __imp_??1?$CStringT@DV?$StrTraitMFC_DLL@DV?$ChTraitsCRT@D@ATL@@@@@ATL@@QAE@XZ
  00005	50		 push	 eax
  00006	6a 01		 push	 1
  00008	6a 04		 push	 4
  0000a	8d 45 f0	 lea	 eax, DWORD PTR _newData$3[ebp]
  0000d	50		 push	 eax
  0000e	e8 00 00 00 00	 call	 ??_M@YGXPAXIIP6EX0@Z@Z
  00013	c3		 ret	 0
__unwindfunclet$?Serialize@?$CList@V?$CStringT@DV?$StrTraitMFC_DLL@DV?$ChTraitsCRT@D@ATL@@@@@ATL@@V12@@@UAEXAAVCArchive@@@Z$2:
  00014	8d 4d ec	 lea	 ecx, DWORD PTR $T2[ebp]
  00017	ff 25 00 00 00
	00		 jmp	 DWORD PTR __imp_??1?$CStringT@DV?$StrTraitMFC_DLL@DV?$ChTraitsCRT@D@ATL@@@@@ATL@@QAE@XZ
  0001d	cc		 int	 3
  0001e	cc		 int	 3
  0001f	cc		 int	 3
  00020	cc		 int	 3
  00021	cc		 int	 3
__ehhandler$?Serialize@?$CList@V?$CStringT@DV?$StrTraitMFC_DLL@DV?$ChTraitsCRT@D@ATL@@@@@ATL@@V12@@@UAEXAAVCArchive@@@Z:
  00022	90		 npad	 1
  00023	90		 npad	 1
  00024	8b 54 24 08	 mov	 edx, DWORD PTR [esp+8]
  00028	8d 42 0c	 lea	 eax, DWORD PTR [edx+12]
  0002b	8b 4a e4	 mov	 ecx, DWORD PTR [edx-28]
  0002e	33 c8		 xor	 ecx, eax
  00030	e8 00 00 00 00	 call	 @__security_check_cookie@4
  00035	b8 00 00 00 00	 mov	 eax, OFFSET __ehfuncinfo$?Serialize@?$CList@V?$CStringT@DV?$StrTraitMFC_DLL@DV?$ChTraitsCRT@D@ATL@@@@@ATL@@V12@@@UAEXAAVCArchive@@@Z
  0003a	e9 00 00 00 00	 jmp	 ___CxxFrameHandler3
text$x	ENDS
?Serialize@?$CList@V?$CStringT@DV?$StrTraitMFC_DLL@DV?$ChTraitsCRT@D@ATL@@@@@ATL@@V12@@@UAEXAAVCArchive@@@Z ENDP ; CList<ATL::CStringT<char,StrTraitMFC_DLL<char,ATL::ChTraitsCRT<char> > >,ATL::CStringT<char,StrTraitMFC_DLL<char,ATL::ChTraitsCRT<char> > > >::Serialize
; Function compile flags: /Ogtp
; File C:\Program Files (x86)\Microsoft Visual Studio\2019\Community\VC\Tools\MSVC\14.29.30133\atlmfc\include\afxtempl.h
;	COMDAT ??1?$CList@V?$CStringT@DV?$StrTraitMFC_DLL@DV?$ChTraitsCRT@D@ATL@@@@@ATL@@V12@@@UAE@XZ
_TEXT	SEGMENT
__$EHRec$ = -12						; size = 12
??1?$CList@V?$CStringT@DV?$StrTraitMFC_DLL@DV?$ChTraitsCRT@D@ATL@@@@@ATL@@V12@@@UAE@XZ PROC ; CList<ATL::CStringT<char,StrTraitMFC_DLL<char,ATL::ChTraitsCRT<char> > >,ATL::CStringT<char,StrTraitMFC_DLL<char,ATL::ChTraitsCRT<char> > > >::~CList<ATL::CStringT<char,StrTraitMFC_DLL<char,ATL::ChTraitsCRT<char> > >,ATL::CStringT<char,StrTraitMFC_DLL<char,ATL::ChTraitsCRT<char> > > >, COMDAT
; _this$ = ecx

; 878  : {

  00000	55		 push	 ebp
  00001	8b ec		 mov	 ebp, esp
  00003	6a ff		 push	 -1
  00005	68 00 00 00 00	 push	 __ehhandler$??1?$CList@V?$CStringT@DV?$StrTraitMFC_DLL@DV?$ChTraitsCRT@D@ATL@@@@@ATL@@V12@@@UAE@XZ
  0000a	64 a1 00 00 00
	00		 mov	 eax, DWORD PTR fs:0
  00010	50		 push	 eax
  00011	56		 push	 esi
  00012	57		 push	 edi
  00013	a1 00 00 00 00	 mov	 eax, DWORD PTR ___security_cookie
  00018	33 c5		 xor	 eax, ebp
  0001a	50		 push	 eax
  0001b	8d 45 f4	 lea	 eax, DWORD PTR __$EHRec$[ebp]
  0001e	64 a3 00 00 00
	00		 mov	 DWORD PTR fs:0, eax
  00024	8b f9		 mov	 edi, ecx

; 867  : 	for (pNode = m_pNodeHead; pNode != NULL; pNode = pNode->pNext)

  00026	8b 77 04	 mov	 esi, DWORD PTR [edi+4]

; 878  : {

  00029	c7 07 00 00 00
	00		 mov	 DWORD PTR [edi], OFFSET ??_7?$CList@V?$CStringT@DV?$StrTraitMFC_DLL@DV?$ChTraitsCRT@D@ATL@@@@@ATL@@V12@@@6B@

; 867  : 	for (pNode = m_pNodeHead; pNode != NULL; pNode = pNode->pNext)

  0002f	85 f6		 test	 esi, esi
  00031	74 0f		 je	 SHORT $LN5@CList
$LL6@CList:

; 868  : 		pNode->data.~TYPE();

  00033	8d 4e 08	 lea	 ecx, DWORD PTR [esi+8]
  00036	ff 15 00 00 00
	00		 call	 DWORD PTR __imp_??1?$CStringT@DV?$StrTraitMFC_DLL@DV?$ChTraitsCRT@D@ATL@@@@@ATL@@QAE@XZ

; 867  : 	for (pNode = m_pNodeHead; pNode != NULL; pNode = pNode->pNext)

  0003c	8b 36		 mov	 esi, DWORD PTR [esi]
  0003e	85 f6		 test	 esi, esi
  00040	75 f1		 jne	 SHORT $LL6@CList
$LN5@CList:

; 869  : 
; 870  : 	m_nCount = 0;
; 871  : 	m_pNodeHead = m_pNodeTail = m_pNodeFree = NULL;
; 872  : 	m_pBlocks->FreeDataChain();

  00042	8b 4f 14	 mov	 ecx, DWORD PTR [edi+20]
  00045	c7 47 0c 00 00
	00 00		 mov	 DWORD PTR [edi+12], 0
  0004c	c7 47 10 00 00
	00 00		 mov	 DWORD PTR [edi+16], 0
  00053	c7 47 08 00 00
	00 00		 mov	 DWORD PTR [edi+8], 0
  0005a	c7 47 04 00 00
	00 00		 mov	 DWORD PTR [edi+4], 0
  00061	e8 00 00 00 00	 call	 ?FreeDataChain@CPlex@@QAEXXZ ; CPlex::FreeDataChain

; 873  : 	m_pBlocks = NULL;

  00066	c7 47 14 00 00
	00 00		 mov	 DWORD PTR [edi+20], 0

; 879  : 	RemoveAll();
; 880  : 	ASSERT(m_nCount == 0);
; 881  : }

  0006d	8b 4d f4	 mov	 ecx, DWORD PTR __$EHRec$[ebp]
  00070	64 89 0d 00 00
	00 00		 mov	 DWORD PTR fs:0, ecx
  00077	59		 pop	 ecx
  00078	5f		 pop	 edi
  00079	5e		 pop	 esi
  0007a	8b e5		 mov	 esp, ebp
  0007c	5d		 pop	 ebp
  0007d	c3		 ret	 0
  0007e	cc		 int	 3
  0007f	cc		 int	 3
  00080	cc		 int	 3
  00081	cc		 int	 3
  00082	cc		 int	 3
_TEXT	ENDS
;	COMDAT text$x
text$x	SEGMENT
__ehhandler$??1?$CList@V?$CStringT@DV?$StrTraitMFC_DLL@DV?$ChTraitsCRT@D@ATL@@@@@ATL@@V12@@@UAE@XZ:
  00000	90		 npad	 1
  00001	90		 npad	 1
  00002	8b 54 24 08	 mov	 edx, DWORD PTR [esp+8]
  00006	8d 42 0c	 lea	 eax, DWORD PTR [edx+12]
  00009	8b 4a f4	 mov	 ecx, DWORD PTR [edx-12]
  0000c	33 c8		 xor	 ecx, eax
  0000e	e8 00 00 00 00	 call	 @__security_check_cookie@4
  00013	b8 00 00 00 00	 mov	 eax, OFFSET __ehfuncinfo$??1?$CList@V?$CStringT@DV?$StrTraitMFC_DLL@DV?$ChTraitsCRT@D@ATL@@@@@ATL@@V12@@@UAE@XZ
  00018	e9 00 00 00 00	 jmp	 ___CxxFrameHandler3
text$x	ENDS
??1?$CList@V?$CStringT@DV?$StrTraitMFC_DLL@DV?$ChTraitsCRT@D@ATL@@@@@ATL@@V12@@@UAE@XZ ENDP ; CList<ATL::CStringT<char,StrTraitMFC_DLL<char,ATL::ChTraitsCRT<char> > >,ATL::CStringT<char,StrTraitMFC_DLL<char,ATL::ChTraitsCRT<char> > > >::~CList<ATL::CStringT<char,StrTraitMFC_DLL<char,ATL::ChTraitsCRT<char> > >,ATL::CStringT<char,StrTraitMFC_DLL<char,ATL::ChTraitsCRT<char> > > >
; Function compile flags: /Ogtp
; File C:\Program Files (x86)\Microsoft Visual Studio\2019\Community\VC\Tools\MSVC\14.29.30133\atlmfc\include\afxtempl.h
;	COMDAT ?NewNode@?$CList@V?$CStringT@DV?$StrTraitMFC_DLL@DV?$ChTraitsCRT@D@ATL@@@@@ATL@@V12@@@IAEPAUCNode@1@PAU21@0@Z
_TEXT	SEGMENT
_pPrev$ = 8						; size = 4
_pNext$ = 12						; size = 4
?NewNode@?$CList@V?$CStringT@DV?$StrTraitMFC_DLL@DV?$ChTraitsCRT@D@ATL@@@@@ATL@@V12@@@IAEPAUCNode@1@PAU21@0@Z PROC ; CList<ATL::CStringT<char,StrTraitMFC_DLL<char,ATL::ChTraitsCRT<char> > >,ATL::CStringT<char,StrTraitMFC_DLL<char,ATL::ChTraitsCRT<char> > > >::NewNode, COMDAT
; _this$ = ecx

; 901  : {

  00000	55		 push	 ebp
  00001	8b ec		 mov	 ebp, esp
  00003	56		 push	 esi
  00004	8b f1		 mov	 esi, ecx
  00006	57		 push	 edi

; 902  : 	if (m_pNodeFree == NULL)

  00007	83 7e 10 00	 cmp	 DWORD PTR [esi+16], 0
  0000b	75 33		 jne	 SHORT $LN7@NewNode

; 903  : 	{
; 904  : 		// add another block
; 905  : 		CPlex* pNewBlock = CPlex::Create(m_pBlocks, m_nBlockSize,

  0000d	6a 0c		 push	 12			; 0000000cH
  0000f	ff 76 18	 push	 DWORD PTR [esi+24]
  00012	8d 46 14	 lea	 eax, DWORD PTR [esi+20]
  00015	50		 push	 eax
  00016	e8 00 00 00 00	 call	 ?Create@CPlex@@SGPAU1@AAPAU1@II@Z ; CPlex::Create

; 906  : 				 sizeof(CNode));
; 907  : 
; 908  : 		// chain them into free list
; 909  : 		CNode* pNode = (CNode*) pNewBlock->data();
; 910  : 		// free in reverse order to make it easier to debug
; 911  : 		pNode += m_nBlockSize - 1;

  0001b	8b 56 18	 mov	 edx, DWORD PTR [esi+24]
  0001e	83 c0 08	 add	 eax, 8
  00021	8d 0c 52	 lea	 ecx, DWORD PTR [edx+edx*2]
  00024	8d 04 88	 lea	 eax, DWORD PTR [eax+ecx*4]
  00027	83 c0 f4	 add	 eax, -12		; fffffff4H

; 912  : 		for (INT_PTR i = m_nBlockSize-1; i >= 0; i--, pNode--)

  0002a	83 c2 ff	 add	 edx, -1
  0002d	78 11		 js	 SHORT $LN7@NewNode
  0002f	90		 npad	 1
$LL4@NewNode:

; 913  : 		{
; 914  : 			pNode->pNext = m_pNodeFree;

  00030	8b 4e 10	 mov	 ecx, DWORD PTR [esi+16]
  00033	89 08		 mov	 DWORD PTR [eax], ecx

; 915  : 			m_pNodeFree = pNode;

  00035	89 46 10	 mov	 DWORD PTR [esi+16], eax
  00038	83 e8 0c	 sub	 eax, 12			; 0000000cH
  0003b	83 ea 01	 sub	 edx, 1
  0003e	79 f0		 jns	 SHORT $LL4@NewNode
$LN7@NewNode:

; 916  : 		}
; 917  : 	}
; 918  : 	ENSURE(m_pNodeFree != NULL);  // we must have something

  00040	8b 7e 10	 mov	 edi, DWORD PTR [esi+16]
  00043	85 ff		 test	 edi, edi
  00045	74 24		 je	 SHORT $LN17@NewNode

; 919  : 
; 920  : 	CList::CNode* pNode = m_pNodeFree;
; 921  : 	m_pNodeFree = m_pNodeFree->pNext;

  00047	8b 07		 mov	 eax, DWORD PTR [edi]

; 922  : 	pNode->pPrev = pPrev;

  00049	8b 4d 08	 mov	 ecx, DWORD PTR _pPrev$[ebp]
  0004c	89 46 10	 mov	 DWORD PTR [esi+16], eax
  0004f	89 4f 04	 mov	 DWORD PTR [edi+4], ecx

; 923  : 	pNode->pNext = pNext;

  00052	8b 4d 0c	 mov	 ecx, DWORD PTR _pNext$[ebp]
  00055	89 0f		 mov	 DWORD PTR [edi], ecx

; 924  : 	m_nCount++;
; 925  : 	ASSERT(m_nCount > 0);  // make sure we don't overflow
; 926  : 
; 927  : #pragma push_macro("new")
; 928  : #undef new
; 929  : 	::new( (void*)( &pNode->data ) ) TYPE;

  00057	8d 4f 08	 lea	 ecx, DWORD PTR [edi+8]
  0005a	ff 46 0c	 inc	 DWORD PTR [esi+12]
  0005d	ff 15 00 00 00
	00		 call	 DWORD PTR __imp_??0?$CStringT@DV?$StrTraitMFC_DLL@DV?$ChTraitsCRT@D@ATL@@@@@ATL@@QAE@XZ

; 930  : #pragma pop_macro("new")
; 931  : 	return pNode;

  00063	8b c7		 mov	 eax, edi
  00065	5f		 pop	 edi
  00066	5e		 pop	 esi

; 932  : }

  00067	5d		 pop	 ebp
  00068	c2 08 00	 ret	 8
$LN17@NewNode:

; 916  : 		}
; 917  : 	}
; 918  : 	ENSURE(m_pNodeFree != NULL);  // we must have something

  0006b	e8 00 00 00 00	 call	 ?AfxThrowInvalidArgException@@YGXXZ ; AfxThrowInvalidArgException
$LN15@NewNode:
  00070	cc		 int	 3
?NewNode@?$CList@V?$CStringT@DV?$StrTraitMFC_DLL@DV?$ChTraitsCRT@D@ATL@@@@@ATL@@V12@@@IAEPAUCNode@1@PAU21@0@Z ENDP ; CList<ATL::CStringT<char,StrTraitMFC_DLL<char,ATL::ChTraitsCRT<char> > >,ATL::CStringT<char,StrTraitMFC_DLL<char,ATL::ChTraitsCRT<char> > > >::NewNode
_TEXT	ENDS
; Function compile flags: /Ogtp
; File C:\Program Files (x86)\Microsoft Visual Studio\2019\Community\VC\Tools\MSVC\14.29.30133\atlmfc\include\afxtempl.h
;	COMDAT ?RemoveAll@?$CList@V?$CStringT@DV?$StrTraitMFC_DLL@DV?$ChTraitsCRT@D@ATL@@@@@ATL@@V12@@@QAEXXZ
_TEXT	SEGMENT
?RemoveAll@?$CList@V?$CStringT@DV?$StrTraitMFC_DLL@DV?$ChTraitsCRT@D@ATL@@@@@ATL@@V12@@@QAEXXZ PROC ; CList<ATL::CStringT<char,StrTraitMFC_DLL<char,ATL::ChTraitsCRT<char> > >,ATL::CStringT<char,StrTraitMFC_DLL<char,ATL::ChTraitsCRT<char> > > >::RemoveAll, COMDAT
; _this$ = ecx

; 862  : {

  00000	56		 push	 esi
  00001	57		 push	 edi
  00002	8b f9		 mov	 edi, ecx

; 863  : 	ASSERT_VALID(this);
; 864  : 
; 865  : 	// destroy elements
; 866  : 	CNode* pNode;
; 867  : 	for (pNode = m_pNodeHead; pNode != NULL; pNode = pNode->pNext)

  00004	8b 77 04	 mov	 esi, DWORD PTR [edi+4]
  00007	85 f6		 test	 esi, esi
  00009	74 14		 je	 SHORT $LN3@RemoveAll
  0000b	0f 1f 44 00 00	 npad	 5
$LL4@RemoveAll:

; 868  : 		pNode->data.~TYPE();

  00010	8d 4e 08	 lea	 ecx, DWORD PTR [esi+8]
  00013	ff 15 00 00 00
	00		 call	 DWORD PTR __imp_??1?$CStringT@DV?$StrTraitMFC_DLL@DV?$ChTraitsCRT@D@ATL@@@@@ATL@@QAE@XZ
  00019	8b 36		 mov	 esi, DWORD PTR [esi]
  0001b	85 f6		 test	 esi, esi
  0001d	75 f1		 jne	 SHORT $LL4@RemoveAll
$LN3@RemoveAll:

; 869  : 
; 870  : 	m_nCount = 0;
; 871  : 	m_pNodeHead = m_pNodeTail = m_pNodeFree = NULL;
; 872  : 	m_pBlocks->FreeDataChain();

  0001f	8b 4f 14	 mov	 ecx, DWORD PTR [edi+20]
  00022	c7 47 0c 00 00
	00 00		 mov	 DWORD PTR [edi+12], 0
  00029	c7 47 10 00 00
	00 00		 mov	 DWORD PTR [edi+16], 0
  00030	c7 47 08 00 00
	00 00		 mov	 DWORD PTR [edi+8], 0
  00037	c7 47 04 00 00
	00 00		 mov	 DWORD PTR [edi+4], 0
  0003e	e8 00 00 00 00	 call	 ?FreeDataChain@CPlex@@QAEXXZ ; CPlex::FreeDataChain

; 873  : 	m_pBlocks = NULL;

  00043	c7 47 14 00 00
	00 00		 mov	 DWORD PTR [edi+20], 0
  0004a	5f		 pop	 edi
  0004b	5e		 pop	 esi

; 874  : }

  0004c	c3		 ret	 0
?RemoveAll@?$CList@V?$CStringT@DV?$StrTraitMFC_DLL@DV?$ChTraitsCRT@D@ATL@@@@@ATL@@V12@@@QAEXXZ ENDP ; CList<ATL::CStringT<char,StrTraitMFC_DLL<char,ATL::ChTraitsCRT<char> > >,ATL::CStringT<char,StrTraitMFC_DLL<char,ATL::ChTraitsCRT<char> > > >::RemoveAll
_TEXT	ENDS
; Function compile flags: /Ogtp
; File C:\Program Files (x86)\Microsoft Visual Studio\2019\Community\VC\Tools\MSVC\14.29.30133\atlmfc\include\afxtempl.h
;	COMDAT ?AddTail@?$CList@V?$CStringT@DV?$StrTraitMFC_DLL@DV?$ChTraitsCRT@D@ATL@@@@@ATL@@V12@@@QAEPAU__POSITION@@V?$CStringT@DV?$StrTraitMFC_DLL@DV?$ChTraitsCRT@D@ATL@@@@@ATL@@@Z
_TEXT	SEGMENT
__$EHRec$ = -12						; size = 12
_newElement$ = 8					; size = 4
?AddTail@?$CList@V?$CStringT@DV?$StrTraitMFC_DLL@DV?$ChTraitsCRT@D@ATL@@@@@ATL@@V12@@@QAEPAU__POSITION@@V?$CStringT@DV?$StrTraitMFC_DLL@DV?$ChTraitsCRT@D@ATL@@@@@ATL@@@Z PROC ; CList<ATL::CStringT<char,StrTraitMFC_DLL<char,ATL::ChTraitsCRT<char> > >,ATL::CStringT<char,StrTraitMFC_DLL<char,ATL::ChTraitsCRT<char> > > >::AddTail, COMDAT
; _this$ = ecx

; 965  : {

  00000	55		 push	 ebp
  00001	8b ec		 mov	 ebp, esp
  00003	6a ff		 push	 -1
  00005	68 00 00 00 00	 push	 __ehhandler$?AddTail@?$CList@V?$CStringT@DV?$StrTraitMFC_DLL@DV?$ChTraitsCRT@D@ATL@@@@@ATL@@V12@@@QAEPAU__POSITION@@V?$CStringT@DV?$StrTraitMFC_DLL@DV?$ChTraitsCRT@D@ATL@@@@@ATL@@@Z
  0000a	64 a1 00 00 00
	00		 mov	 eax, DWORD PTR fs:0
  00010	50		 push	 eax
  00011	53		 push	 ebx
  00012	56		 push	 esi
  00013	57		 push	 edi
  00014	a1 00 00 00 00	 mov	 eax, DWORD PTR ___security_cookie
  00019	33 c5		 xor	 eax, ebp
  0001b	50		 push	 eax
  0001c	8d 45 f4	 lea	 eax, DWORD PTR __$EHRec$[ebp]
  0001f	64 a3 00 00 00
	00		 mov	 DWORD PTR fs:0, eax
  00025	8b f1		 mov	 esi, ecx

; 902  : 	if (m_pNodeFree == NULL)

  00027	83 7e 10 00	 cmp	 DWORD PTR [esi+16], 0

; 966  : 	ASSERT_VALID(this);
; 967  : 
; 968  : 	CNode* pNewNode = NewNode(m_pNodeTail, NULL);

  0002b	8b 7e 08	 mov	 edi, DWORD PTR [esi+8]
  0002e	c7 45 fc 00 00
	00 00		 mov	 DWORD PTR __$EHRec$[ebp+8], 0

; 902  : 	if (m_pNodeFree == NULL)

  00035	75 39		 jne	 SHORT $LN12@AddTail

; 903  : 	{
; 904  : 		// add another block
; 905  : 		CPlex* pNewBlock = CPlex::Create(m_pBlocks, m_nBlockSize,

  00037	6a 0c		 push	 12			; 0000000cH
  00039	ff 76 18	 push	 DWORD PTR [esi+24]
  0003c	8d 46 14	 lea	 eax, DWORD PTR [esi+20]
  0003f	50		 push	 eax
  00040	e8 00 00 00 00	 call	 ?Create@CPlex@@SGPAU1@AAPAU1@II@Z ; CPlex::Create

; 906  : 				 sizeof(CNode));
; 907  : 
; 908  : 		// chain them into free list
; 909  : 		CNode* pNode = (CNode*) pNewBlock->data();
; 910  : 		// free in reverse order to make it easier to debug
; 911  : 		pNode += m_nBlockSize - 1;

  00045	8b 56 18	 mov	 edx, DWORD PTR [esi+24]
  00048	83 c0 08	 add	 eax, 8
  0004b	8d 4a ff	 lea	 ecx, DWORD PTR [edx-1]

; 912  : 		for (INT_PTR i = m_nBlockSize-1; i >= 0; i--, pNode--)

  0004e	83 c2 ff	 add	 edx, -1
  00051	8d 0c 49	 lea	 ecx, DWORD PTR [ecx+ecx*2]
  00054	8d 0c 88	 lea	 ecx, DWORD PTR [eax+ecx*4]
  00057	78 17		 js	 SHORT $LN12@AddTail
  00059	0f 1f 80 00 00
	00 00		 npad	 7
$LL9@AddTail:

; 913  : 		{
; 914  : 			pNode->pNext = m_pNodeFree;

  00060	8b 46 10	 mov	 eax, DWORD PTR [esi+16]
  00063	89 01		 mov	 DWORD PTR [ecx], eax

; 915  : 			m_pNodeFree = pNode;

  00065	89 4e 10	 mov	 DWORD PTR [esi+16], ecx
  00068	83 e9 0c	 sub	 ecx, 12			; 0000000cH
  0006b	83 ea 01	 sub	 edx, 1
  0006e	79 f0		 jns	 SHORT $LL9@AddTail
$LN12@AddTail:

; 916  : 		}
; 917  : 	}
; 918  : 	ENSURE(m_pNodeFree != NULL);  // we must have something

  00070	8b 5e 10	 mov	 ebx, DWORD PTR [esi+16]
  00073	85 db		 test	 ebx, ebx
  00075	74 57		 je	 SHORT $LN24@AddTail

; 919  : 
; 920  : 	CList::CNode* pNode = m_pNodeFree;
; 921  : 	m_pNodeFree = m_pNodeFree->pNext;

  00077	8b 03		 mov	 eax, DWORD PTR [ebx]

; 922  : 	pNode->pPrev = pPrev;
; 923  : 	pNode->pNext = pNext;
; 924  : 	m_nCount++;
; 925  : 	ASSERT(m_nCount > 0);  // make sure we don't overflow
; 926  : 
; 927  : #pragma push_macro("new")
; 928  : #undef new
; 929  : 	::new( (void*)( &pNode->data ) ) TYPE;

  00079	8d 4b 08	 lea	 ecx, DWORD PTR [ebx+8]
  0007c	89 46 10	 mov	 DWORD PTR [esi+16], eax
  0007f	89 7b 04	 mov	 DWORD PTR [ebx+4], edi
  00082	c7 03 00 00 00
	00		 mov	 DWORD PTR [ebx], 0
  00088	ff 46 0c	 inc	 DWORD PTR [esi+12]
  0008b	ff 15 00 00 00
	00		 call	 DWORD PTR __imp_??0?$CStringT@DV?$StrTraitMFC_DLL@DV?$ChTraitsCRT@D@ATL@@@@@ATL@@QAE@XZ

; 969  : 	pNewNode->data = newElement;

  00091	8d 45 08	 lea	 eax, DWORD PTR _newElement$[ebp]
  00094	50		 push	 eax
  00095	8d 4b 08	 lea	 ecx, DWORD PTR [ebx+8]
  00098	ff 15 00 00 00
	00		 call	 DWORD PTR __imp_??4?$CStringT@DV?$StrTraitMFC_DLL@DV?$ChTraitsCRT@D@ATL@@@@@ATL@@QAEAAV01@ABV01@@Z

; 970  : 	if (m_pNodeTail != NULL)

  0009e	8b 46 08	 mov	 eax, DWORD PTR [esi+8]
  000a1	85 c0		 test	 eax, eax
  000a3	74 04		 je	 SHORT $LN2@AddTail

; 971  : 		m_pNodeTail->pNext = pNewNode;

  000a5	89 18		 mov	 DWORD PTR [eax], ebx
  000a7	eb 03		 jmp	 SHORT $LN3@AddTail
$LN2@AddTail:

; 972  : 	else
; 973  : 		m_pNodeHead = pNewNode;

  000a9	89 5e 04	 mov	 DWORD PTR [esi+4], ebx
$LN3@AddTail:

; 974  : 	m_pNodeTail = pNewNode;
; 975  : 	return (POSITION) pNewNode;

  000ac	8d 4d 08	 lea	 ecx, DWORD PTR _newElement$[ebp]
  000af	89 5e 08	 mov	 DWORD PTR [esi+8], ebx
  000b2	ff 15 00 00 00
	00		 call	 DWORD PTR __imp_??1?$CStringT@DV?$StrTraitMFC_DLL@DV?$ChTraitsCRT@D@ATL@@@@@ATL@@QAE@XZ
  000b8	8b c3		 mov	 eax, ebx

; 976  : }

  000ba	8b 4d f4	 mov	 ecx, DWORD PTR __$EHRec$[ebp]
  000bd	64 89 0d 00 00
	00 00		 mov	 DWORD PTR fs:0, ecx
  000c4	59		 pop	 ecx
  000c5	5f		 pop	 edi
  000c6	5e		 pop	 esi
  000c7	5b		 pop	 ebx
  000c8	8b e5		 mov	 esp, ebp
  000ca	5d		 pop	 ebp
  000cb	c2 04 00	 ret	 4
$LN24@AddTail:

; 918  : 	ENSURE(m_pNodeFree != NULL);  // we must have something

  000ce	e8 00 00 00 00	 call	 ?AfxThrowInvalidArgException@@YGXXZ ; AfxThrowInvalidArgException
$LN22@AddTail:
  000d3	cc		 int	 3
_TEXT	ENDS
;	COMDAT text$x
text$x	SEGMENT
__unwindfunclet$?AddTail@?$CList@V?$CStringT@DV?$StrTraitMFC_DLL@DV?$ChTraitsCRT@D@ATL@@@@@ATL@@V12@@@QAEPAU__POSITION@@V?$CStringT@DV?$StrTraitMFC_DLL@DV?$ChTraitsCRT@D@ATL@@@@@ATL@@@Z$0:
  00000	8d 4d 08	 lea	 ecx, DWORD PTR _newElement$[ebp]
  00003	ff 25 00 00 00
	00		 jmp	 DWORD PTR __imp_??1?$CStringT@DV?$StrTraitMFC_DLL@DV?$ChTraitsCRT@D@ATL@@@@@ATL@@QAE@XZ
  00009	cc		 int	 3
  0000a	cc		 int	 3
  0000b	cc		 int	 3
  0000c	cc		 int	 3
  0000d	cc		 int	 3
__ehhandler$?AddTail@?$CList@V?$CStringT@DV?$StrTraitMFC_DLL@DV?$ChTraitsCRT@D@ATL@@@@@ATL@@V12@@@QAEPAU__POSITION@@V?$CStringT@DV?$StrTraitMFC_DLL@DV?$ChTraitsCRT@D@ATL@@@@@ATL@@@Z:
  0000e	90		 npad	 1
  0000f	90		 npad	 1
  00010	8b 54 24 08	 mov	 edx, DWORD PTR [esp+8]
  00014	8d 42 0c	 lea	 eax, DWORD PTR [edx+12]
  00017	8b 4a f0	 mov	 ecx, DWORD PTR [edx-16]
  0001a	33 c8		 xor	 ecx, eax
  0001c	e8 00 00 00 00	 call	 @__security_check_cookie@4
  00021	b8 00 00 00 00	 mov	 eax, OFFSET __ehfuncinfo$?AddTail@?$CList@V?$CStringT@DV?$StrTraitMFC_DLL@DV?$ChTraitsCRT@D@ATL@@@@@ATL@@V12@@@QAEPAU__POSITION@@V?$CStringT@DV?$StrTraitMFC_DLL@DV?$ChTraitsCRT@D@ATL@@@@@ATL@@@Z
  00026	e9 00 00 00 00	 jmp	 ___CxxFrameHandler3
text$x	ENDS
?AddTail@?$CList@V?$CStringT@DV?$StrTraitMFC_DLL@DV?$ChTraitsCRT@D@ATL@@@@@ATL@@V12@@@QAEPAU__POSITION@@V?$CStringT@DV?$StrTraitMFC_DLL@DV?$ChTraitsCRT@D@ATL@@@@@ATL@@@Z ENDP ; CList<ATL::CStringT<char,StrTraitMFC_DLL<char,ATL::ChTraitsCRT<char> > >,ATL::CStringT<char,StrTraitMFC_DLL<char,ATL::ChTraitsCRT<char> > > >::AddTail
; Function compile flags: /Ogtp
; File C:\Program Files (x86)\Microsoft Visual Studio\2019\Community\VC\Tools\MSVC\14.29.30133\atlmfc\include\afxtempl.h
;	COMDAT ??0?$CList@V?$CStringT@DV?$StrTraitMFC_DLL@DV?$ChTraitsCRT@D@ATL@@@@@ATL@@V12@@@QAE@H@Z
_TEXT	SEGMENT
_nBlockSize$ = 8					; size = 4
??0?$CList@V?$CStringT@DV?$StrTraitMFC_DLL@DV?$ChTraitsCRT@D@ATL@@@@@ATL@@V12@@@QAE@H@Z PROC ; CList<ATL::CStringT<char,StrTraitMFC_DLL<char,ATL::ChTraitsCRT<char> > >,ATL::CStringT<char,StrTraitMFC_DLL<char,ATL::ChTraitsCRT<char> > > >::CList<ATL::CStringT<char,StrTraitMFC_DLL<char,ATL::ChTraitsCRT<char> > >,ATL::CStringT<char,StrTraitMFC_DLL<char,ATL::ChTraitsCRT<char> > > >, COMDAT
; _this$ = ecx

; 851  : {

  00000	55		 push	 ebp
  00001	8b ec		 mov	 ebp, esp

; 852  : 	ASSERT(nBlockSize > 0);
; 853  : 
; 854  : 	m_nCount = 0;
; 855  : 	m_pNodeHead = m_pNodeTail = m_pNodeFree = NULL;
; 856  : 	m_pBlocks = NULL;
; 857  : 	m_nBlockSize = nBlockSize;

  00003	8b 45 08	 mov	 eax, DWORD PTR _nBlockSize$[ebp]
  00006	89 41 18	 mov	 DWORD PTR [ecx+24], eax

; 858  : }

  00009	8b c1		 mov	 eax, ecx
  0000b	c7 01 00 00 00
	00		 mov	 DWORD PTR [ecx], OFFSET ??_7?$CList@V?$CStringT@DV?$StrTraitMFC_DLL@DV?$ChTraitsCRT@D@ATL@@@@@ATL@@V12@@@6B@
  00011	c7 41 0c 00 00
	00 00		 mov	 DWORD PTR [ecx+12], 0
  00018	c7 41 10 00 00
	00 00		 mov	 DWORD PTR [ecx+16], 0
  0001f	c7 41 08 00 00
	00 00		 mov	 DWORD PTR [ecx+8], 0
  00026	c7 41 04 00 00
	00 00		 mov	 DWORD PTR [ecx+4], 0
  0002d	c7 41 14 00 00
	00 00		 mov	 DWORD PTR [ecx+20], 0
  00034	5d		 pop	 ebp
  00035	c2 04 00	 ret	 4
??0?$CList@V?$CStringT@DV?$StrTraitMFC_DLL@DV?$ChTraitsCRT@D@ATL@@@@@ATL@@V12@@@QAE@H@Z ENDP ; CList<ATL::CStringT<char,StrTraitMFC_DLL<char,ATL::ChTraitsCRT<char> > >,ATL::CStringT<char,StrTraitMFC_DLL<char,ATL::ChTraitsCRT<char> > > >::CList<ATL::CStringT<char,StrTraitMFC_DLL<char,ATL::ChTraitsCRT<char> > >,ATL::CStringT<char,StrTraitMFC_DLL<char,ATL::ChTraitsCRT<char> > > >
_TEXT	ENDS
; Function compile flags: /Ogtp
; File D:\git\src\IBK\IBK_DRFN\ProjSrc\SrcChartEx\ChartOCX\KTBChart\KTBChartDLL.cpp
;	COMDAT ?SetEmptyOcxData@CKTBChartCtrl@@AAEXPBD@Z
_TEXT	SEGMENT
_p_szChartList$ = 8					; size = 4
?SetEmptyOcxData@CKTBChartCtrl@@AAEXPBD@Z PROC		; CKTBChartCtrl::SetEmptyOcxData, COMDAT
; _this$ = ecx

; 650  : {

  00000	55		 push	 ebp
  00001	8b ec		 mov	 ebp, esp
  00003	56		 push	 esi

; 651  : 	// (2006/10/27 - Seung-Won, Bae) Init with One Empty Block.
; 652  : 	m_nBlockRowCount  = 1;
; 653  : 	m_nBlockColumnCount = 1;
; 654  : 	m_strChartList = p_szChartList;

  00004	ff 75 08	 push	 DWORD PTR _p_szChartList$[ebp]
  00007	8b f1		 mov	 esi, ecx
  00009	8d 8e 80 05 00
	00		 lea	 ecx, DWORD PTR [esi+1408]
  0000f	c7 86 28 02 00
	00 01 00 00 00	 mov	 DWORD PTR [esi+552], 1
  00019	c7 86 2c 02 00
	00 01 00 00 00	 mov	 DWORD PTR [esi+556], 1
  00023	ff 15 00 00 00
	00		 call	 DWORD PTR __imp_??4?$CStringT@DV?$StrTraitMFC_DLL@DV?$ChTraitsCRT@D@ATL@@@@@ATL@@QAEAAV01@PBD@Z

; 655  : 	m_strBlockRegion = "";

  00029	68 00 00 00 00	 push	 OFFSET ??_C@_00CNPNBAHC@@
  0002e	8d 8e 9c 03 00
	00		 lea	 ecx, DWORD PTR [esi+924]
  00034	ff 15 00 00 00
	00		 call	 DWORD PTR __imp_??4?$CStringT@DV?$StrTraitMFC_DLL@DV?$ChTraitsCRT@D@ATL@@@@@ATL@@QAEAAV01@PBD@Z

; 656  : 
; 657  : 	//
; 658  : 	SetMainBlock_MainBlock(true);

  0003a	6a 01		 push	 1
  0003c	6a 01		 push	 1
  0003e	8b ce		 mov	 ecx, esi
  00040	e8 00 00 00 00	 call	 ?SetMainBlock_MainBlock@CKTBChartCtrl@@AAEX_NH@Z ; CKTBChartCtrl::SetMainBlock_MainBlock
  00045	5e		 pop	 esi

; 659  : }

  00046	5d		 pop	 ebp
  00047	c2 04 00	 ret	 4
?SetEmptyOcxData@CKTBChartCtrl@@AAEXPBD@Z ENDP		; CKTBChartCtrl::SetEmptyOcxData
_TEXT	ENDS
; Function compile flags: /Ogtp
; File D:\git\src\IBK\IBK_DRFN\ProjSrc\SrcChartEx\ChartOCX\KTBChart\KTBChartDLL.cpp
;	COMDAT ?IsBlockEmpty@CKTBChartCtrl@@ABE_NXZ
_TEXT	SEGMENT
?IsBlockEmpty@CKTBChartCtrl@@ABE_NXZ PROC		; CKTBChartCtrl::IsBlockEmpty, COMDAT
; _this$ = ecx

; 204  : {

  00000	56		 push	 esi
  00001	8b f1		 mov	 esi, ecx

; 205  : 	if(m_pMainBlock == NULL)

  00003	8b 8e 34 03 00
	00		 mov	 ecx, DWORD PTR [esi+820]
  00009	85 c9		 test	 ecx, ecx
  0000b	74 22		 je	 SHORT $LN4@IsBlockEmp

; 206  : 		return true;
; 207  : 
; 208  : 	return (m_pMainBlock->GetRowCount() <= 0 || m_pMainBlock->GetColumnCount() <= 0);

  0000d	8b 01		 mov	 eax, DWORD PTR [ecx]
  0000f	ff 90 a4 01 00
	00		 call	 DWORD PTR [eax+420]
  00015	85 c0		 test	 eax, eax
  00017	7e 16		 jle	 SHORT $LN4@IsBlockEmp
  00019	8b 8e 34 03 00
	00		 mov	 ecx, DWORD PTR [esi+820]
  0001f	8b 01		 mov	 eax, DWORD PTR [ecx]
  00021	ff 90 ac 01 00
	00		 call	 DWORD PTR [eax+428]
  00027	85 c0		 test	 eax, eax
  00029	7e 04		 jle	 SHORT $LN4@IsBlockEmp
  0002b	32 c0		 xor	 al, al
  0002d	5e		 pop	 esi

; 209  : }

  0002e	c3		 ret	 0
$LN4@IsBlockEmp:
  0002f	b0 01		 mov	 al, 1
  00031	5e		 pop	 esi
  00032	c3		 ret	 0
?IsBlockEmpty@CKTBChartCtrl@@ABE_NXZ ENDP		; CKTBChartCtrl::IsBlockEmpty
_TEXT	ENDS
; Function compile flags: /Ogtp
; File D:\git\src\IBK\IBK_DRFN\ProjSrc\SrcChartEx\ChartOCX\KTBChart\KTBChartDLL.cpp
; File C:\Program Files (x86)\Microsoft Visual Studio\2019\Community\VC\Tools\MSVC\14.29.30133\atlmfc\include\atlsimpstr.h
; File D:\git\src\IBK\IBK_DRFN\ProjSrc\SrcChartEx\ChartOCX\KTBChart\KTBChartDLL.cpp
; File C:\Program Files (x86)\Microsoft Visual Studio\2019\Community\VC\Tools\MSVC\14.29.30133\atlmfc\include\atlsimpstr.h
; File D:\git\src\IBK\IBK_DRFN\ProjSrc\SrcChartEx\ChartOCX\KTBChart\KTBChartDLL.cpp
;	COMDAT ?GetGraphDataForMaking@CKTBChartCtrl@@ABE_NABV?$CStringT@DV?$StrTraitMFC_DLL@DV?$ChTraitsCRT@D@ATL@@@@@ATL@@AAV23@@Z
_TEXT	SEGMENT
_strGraphOption$ = 8					; size = 4
_strGraphDataForMaking$ = 12				; size = 4
?GetGraphDataForMaking@CKTBChartCtrl@@ABE_NABV?$CStringT@DV?$StrTraitMFC_DLL@DV?$ChTraitsCRT@D@ATL@@@@@ATL@@AAV23@@Z PROC ; CKTBChartCtrl::GetGraphDataForMaking, COMDAT
; _this$ = ecx

; 180  : {

  00000	55		 push	 ebp
  00001	8b ec		 mov	 ebp, esp
  00003	56		 push	 esi
; File C:\Program Files (x86)\Microsoft Visual Studio\2019\Community\VC\Tools\MSVC\14.29.30133\atlmfc\include\atlsimpstr.h

; 519  : 		return( GetData()->nDataLength );

  00004	8b 75 08	 mov	 esi, DWORD PTR _strGraphOption$[ebp]
; File D:\git\src\IBK\IBK_DRFN\ProjSrc\SrcChartEx\ChartOCX\KTBChart\KTBChartDLL.cpp

; 180  : {

  00007	57		 push	 edi
  00008	8b f9		 mov	 edi, ecx
; File C:\Program Files (x86)\Microsoft Visual Studio\2019\Community\VC\Tools\MSVC\14.29.30133\atlmfc\include\atlsimpstr.h

; 519  : 		return( GetData()->nDataLength );

  0000a	8b 06		 mov	 eax, DWORD PTR [esi]

; 533  : 		return( GetLength() == 0 );

  0000c	83 78 f4 00	 cmp	 DWORD PTR [eax-12], 0
; File D:\git\src\IBK\IBK_DRFN\ProjSrc\SrcChartEx\ChartOCX\KTBChart\KTBChartDLL.cpp

; 181  : 	if(strGraphOption.IsEmpty())

  00010	74 58		 je	 SHORT $LN23@GetGraphDa

; 182  : 		return false;
; 183  : 
; 184  : 	// (2004.09.08, )    -> "Graph;\r\n"  
; 185  : 	if( !strncmp( strGraphOption, "Graph;\r\n", 8))

  00012	6a 08		 push	 8
  00014	68 00 00 00 00	 push	 OFFSET ??_C@_08BHMMGBBH@Graph?$DL?$AN?6@
  00019	50		 push	 eax
  0001a	ff 15 00 00 00
	00		 call	 DWORD PTR __imp__strncmp
  00020	83 c4 0c	 add	 esp, 12			; 0000000cH
  00023	85 c0		 test	 eax, eax
  00025	75 12		 jne	 SHORT $LN3@GetGraphDa

; 186  : 	{
; 187  : 		// "Graph;\r\n;;,,,;\r\n1;0;0;Graph1;title;0;238,0,0;\r\nGraphEnd;\r\n";
; 188  : 		strGraphDataForMaking = strGraphOption;

  00027	8b 4d 0c	 mov	 ecx, DWORD PTR _strGraphDataForMaking$[ebp]
  0002a	56		 push	 esi
  0002b	ff 15 00 00 00
	00		 call	 DWORD PTR __imp_??4?$CStringT@DV?$StrTraitMFC_DLL@DV?$ChTraitsCRT@D@ATL@@@@@ATL@@QAEAAV01@ABV01@@Z
  00031	5f		 pop	 edi

; 189  : 		return true;

  00032	b0 01		 mov	 al, 1

; 200  : }

  00034	5e		 pop	 esi
  00035	5d		 pop	 ebp
  00036	c2 08 00	 ret	 8
$LN3@GetGraphDa:

; 190  : 	}
; 191  : 
; 192  : 	// strGraphOption    ->  Indicator Info  
; 193  : 	if(m_pIndicatorList == NULL) return false;

  00039	8b 8f 40 03 00
	00		 mov	 ecx, DWORD PTR [edi+832]
  0003f	85 c9		 test	 ecx, ecx
  00041	74 27		 je	 SHORT $LN23@GetGraphDa

; 194  : 
; 195  : 	CIndicatorInfo* pIndicatorInfo = m_pIndicatorList->CreateGraphIndicatorInfo( strGraphOption);

  00043	ff 36		 push	 DWORD PTR [esi]
  00045	ff 15 00 00 00
	00		 call	 DWORD PTR __imp_?CreateGraphIndicatorInfo@CIndicatorList@@QAEPAVCIndicatorInfo@@PBD@Z

; 196  : 	if( !pIndicatorInfo) return FALSE;

  0004b	85 c0		 test	 eax, eax
  0004d	74 1b		 je	 SHORT $LN23@GetGraphDa

; 197  : 	pIndicatorInfo->GetGraphDataForMaking( strGraphDataForMaking);

  0004f	8b 75 0c	 mov	 esi, DWORD PTR _strGraphDataForMaking$[ebp]
  00052	8b c8		 mov	 ecx, eax
  00054	56		 push	 esi
  00055	ff 15 00 00 00
	00		 call	 DWORD PTR __imp_?GetGraphDataForMaking@CIndicatorInfo@@QBEXAAV?$CStringT@DV?$StrTraitMFC_DLL@DV?$ChTraitsCRT@D@ATL@@@@@ATL@@@Z

; 198  : 
; 199  : 	return (!strGraphDataForMaking.IsEmpty());

  0005b	8b 06		 mov	 eax, DWORD PTR [esi]
  0005d	5f		 pop	 edi

; 200  : }

  0005e	5e		 pop	 esi
  0005f	83 78 f4 00	 cmp	 DWORD PTR [eax-12], 0
  00063	0f 95 c0	 setne	 al
  00066	5d		 pop	 ebp
  00067	c2 08 00	 ret	 8
$LN23@GetGraphDa:
  0006a	5f		 pop	 edi

; 196  : 	if( !pIndicatorInfo) return FALSE;

  0006b	32 c0		 xor	 al, al

; 200  : }

  0006d	5e		 pop	 esi
  0006e	5d		 pop	 ebp
  0006f	c2 08 00	 ret	 8
?GetGraphDataForMaking@CKTBChartCtrl@@ABE_NABV?$CStringT@DV?$StrTraitMFC_DLL@DV?$ChTraitsCRT@D@ATL@@@@@ATL@@AAV23@@Z ENDP ; CKTBChartCtrl::GetGraphDataForMaking
_TEXT	ENDS
; Function compile flags: /Ogtp
; File D:\git\src\IBK\IBK_DRFN\ProjSrc\SrcChartEx\ChartOCX\KTBChart\KTBChartDLL.cpp
;	COMDAT ?SetPacketDataInPacketList@CKTBChartCtrl@@AAE_NPBDJJH@Z
_TEXT	SEGMENT
$T2 = -16						; size = 4
__$EHRec$ = -12						; size = 12
$T3 = 8							; size = 4
$T4 = 8							; size = 4
_szPacketName$ = 8					; size = 4
_szData$ = 12						; size = 4
_lLength$ = 16						; size = 4
$T5 = 20						; size = 4
_bReset$ = 20						; size = 4
?SetPacketDataInPacketList@CKTBChartCtrl@@AAE_NPBDJJH@Z PROC ; CKTBChartCtrl::SetPacketDataInPacketList, COMDAT
; _this$ = ecx

; 350  : {

  00000	55		 push	 ebp
  00001	8b ec		 mov	 ebp, esp
  00003	6a ff		 push	 -1
  00005	68 00 00 00 00	 push	 __ehhandler$?SetPacketDataInPacketList@CKTBChartCtrl@@AAE_NPBDJJH@Z
  0000a	64 a1 00 00 00
	00		 mov	 eax, DWORD PTR fs:0
  00010	50		 push	 eax
  00011	51		 push	 ecx
  00012	56		 push	 esi
  00013	57		 push	 edi
  00014	a1 00 00 00 00	 mov	 eax, DWORD PTR ___security_cookie
  00019	33 c5		 xor	 eax, ebp
  0001b	50		 push	 eax
  0001c	8d 45 f4	 lea	 eax, DWORD PTR __$EHRec$[ebp]
  0001f	64 a3 00 00 00
	00		 mov	 DWORD PTR fs:0, eax
  00025	8b f9		 mov	 edi, ecx

; 351  : 	// 0.  Pointer .
; 352  : 	if( !szPacketName || !m_pPacketList || !*szPacketName)

  00027	8b 75 08	 mov	 esi, DWORD PTR _szPacketName$[ebp]
  0002a	85 f6		 test	 esi, esi
  0002c	0f 84 fc 00 00
	00		 je	 $LN3@SetPacketD
  00032	83 bf 3c 03 00
	00 00		 cmp	 DWORD PTR [edi+828], 0
  00039	0f 84 ef 00 00
	00		 je	 $LN3@SetPacketD
  0003f	80 3e 00	 cmp	 BYTE PTR [esi], 0
  00042	0f 84 e6 00 00
	00		 je	 $LN3@SetPacketD

; 354  : 
; 355  : 	// (2004.06.25, ) Packet Adding  Scroll   .
; 356  : 	//		View Index 300~400  , 400 Data Adding, 700~800 View Index  .
; 357  : 	// 1. , Adding  Reset  SetScrollData ,
; 358  : 	if( bReset)

  00048	83 7d 14 00	 cmp	 DWORD PTR _bReset$[ebp], 0
  0004c	0f 84 97 00 00
	00		 je	 $LN4@SetPacketD

; 359  : 	{
; 360  : 		m_pPacketList->ClearData( szPacketName, ";");

  00052	68 00 00 00 00	 push	 OFFSET ??_C@_01ICJEACDI@?$DL@
  00057	8d 4d 14	 lea	 ecx, DWORD PTR $T5[ebp]
  0005a	ff 15 00 00 00
	00		 call	 DWORD PTR __imp_??0?$CStringT@DV?$StrTraitMFC_DLL@DV?$ChTraitsCRT@D@ATL@@@@@ATL@@QAE@PBD@Z
  00060	56		 push	 esi
  00061	8d 4d 08	 lea	 ecx, DWORD PTR $T4[ebp]
  00064	c7 45 fc 00 00
	00 00		 mov	 DWORD PTR __$EHRec$[ebp+8], 0
  0006b	ff 15 00 00 00
	00		 call	 DWORD PTR __imp_??0?$CStringT@DV?$StrTraitMFC_DLL@DV?$ChTraitsCRT@D@ATL@@@@@ATL@@QAE@PBD@Z
  00071	8b 8f 3c 03 00
	00		 mov	 ecx, DWORD PTR [edi+828]
  00077	8d 45 14	 lea	 eax, DWORD PTR $T5[ebp]
  0007a	6a 01		 push	 1
  0007c	50		 push	 eax
  0007d	8d 45 08	 lea	 eax, DWORD PTR $T4[ebp]
  00080	c6 45 fc 01	 mov	 BYTE PTR __$EHRec$[ebp+8], 1
  00084	50		 push	 eax
  00085	ff 15 00 00 00
	00		 call	 DWORD PTR __imp_?ClearData@CPacketList@@QAEHABV?$CStringT@DV?$StrTraitMFC_DLL@DV?$ChTraitsCRT@D@ATL@@@@@ATL@@0_N@Z
  0008b	8d 4d 08	 lea	 ecx, DWORD PTR $T4[ebp]
  0008e	ff 15 00 00 00
	00		 call	 DWORD PTR __imp_??1?$CStringT@DV?$StrTraitMFC_DLL@DV?$ChTraitsCRT@D@ATL@@@@@ATL@@QAE@XZ
  00094	8d 4d 14	 lea	 ecx, DWORD PTR $T5[ebp]
  00097	c7 45 fc ff ff
	ff ff		 mov	 DWORD PTR __$EHRec$[ebp+8], -1
  0009e	ff 15 00 00 00
	00		 call	 DWORD PTR __imp_??1?$CStringT@DV?$StrTraitMFC_DLL@DV?$ChTraitsCRT@D@ATL@@@@@ATL@@QAE@XZ

; 361  : 
; 362  : 		m_pPacketList->SetPacketData( szPacketName, szData, lLength);

  000a4	56		 push	 esi
  000a5	8d 4d 08	 lea	 ecx, DWORD PTR $T3[ebp]
  000a8	ff 15 00 00 00
	00		 call	 DWORD PTR __imp_??0?$CStringT@DV?$StrTraitMFC_DLL@DV?$ChTraitsCRT@D@ATL@@@@@ATL@@QAE@PBD@Z
  000ae	ff 75 10	 push	 DWORD PTR _lLength$[ebp]
  000b1	8b 8f 3c 03 00
	00		 mov	 ecx, DWORD PTR [edi+828]
  000b7	8d 45 08	 lea	 eax, DWORD PTR $T3[ebp]
  000ba	ff 75 0c	 push	 DWORD PTR _szData$[ebp]
  000bd	c7 45 fc 02 00
	00 00		 mov	 DWORD PTR __$EHRec$[ebp+8], 2
  000c4	50		 push	 eax
  000c5	ff 15 00 00 00
	00		 call	 DWORD PTR __imp_?SetPacketData@CPacketList@@QAEXABV?$CStringT@DV?$StrTraitMFC_DLL@DV?$ChTraitsCRT@D@ATL@@@@@ATL@@JJ@Z
  000cb	8d 4d 08	 lea	 ecx, DWORD PTR $T3[ebp]

; 369  : 	}
; 370  : 
; 371  : 	return true;

  000ce	ff 15 00 00 00
	00		 call	 DWORD PTR __imp_??1?$CStringT@DV?$StrTraitMFC_DLL@DV?$ChTraitsCRT@D@ATL@@@@@ATL@@QAE@XZ
  000d4	b0 01		 mov	 al, 1

; 372  : }

  000d6	8b 4d f4	 mov	 ecx, DWORD PTR __$EHRec$[ebp]
  000d9	64 89 0d 00 00
	00 00		 mov	 DWORD PTR fs:0, ecx
  000e0	59		 pop	 ecx
  000e1	5f		 pop	 edi
  000e2	5e		 pop	 esi
  000e3	8b e5		 mov	 esp, ebp
  000e5	5d		 pop	 ebp
  000e6	c2 10 00	 ret	 16			; 00000010H
$LN4@SetPacketD:

; 363  : 	}
; 364  : 	// 2. Adding   Scroll  ,   Scrolling .
; 365  : 	else
; 366  : 	{
; 367  : 		// 2.2 Packet Data .
; 368  : 		m_pPacketList->SetPacketData( szPacketName, szData, lLength);

  000e9	56		 push	 esi
  000ea	8d 4d f0	 lea	 ecx, DWORD PTR $T2[ebp]
  000ed	ff 15 00 00 00
	00		 call	 DWORD PTR __imp_??0?$CStringT@DV?$StrTraitMFC_DLL@DV?$ChTraitsCRT@D@ATL@@@@@ATL@@QAE@PBD@Z
  000f3	ff 75 10	 push	 DWORD PTR _lLength$[ebp]
  000f6	8b 8f 3c 03 00
	00		 mov	 ecx, DWORD PTR [edi+828]
  000fc	8d 45 f0	 lea	 eax, DWORD PTR $T2[ebp]
  000ff	ff 75 0c	 push	 DWORD PTR _szData$[ebp]
  00102	c7 45 fc 03 00
	00 00		 mov	 DWORD PTR __$EHRec$[ebp+8], 3
  00109	50		 push	 eax
  0010a	ff 15 00 00 00
	00		 call	 DWORD PTR __imp_?SetPacketData@CPacketList@@QAEXABV?$CStringT@DV?$StrTraitMFC_DLL@DV?$ChTraitsCRT@D@ATL@@@@@ATL@@JJ@Z
  00110	8d 4d f0	 lea	 ecx, DWORD PTR $T2[ebp]

; 369  : 	}
; 370  : 
; 371  : 	return true;

  00113	ff 15 00 00 00
	00		 call	 DWORD PTR __imp_??1?$CStringT@DV?$StrTraitMFC_DLL@DV?$ChTraitsCRT@D@ATL@@@@@ATL@@QAE@XZ
  00119	b0 01		 mov	 al, 1

; 372  : }

  0011b	8b 4d f4	 mov	 ecx, DWORD PTR __$EHRec$[ebp]
  0011e	64 89 0d 00 00
	00 00		 mov	 DWORD PTR fs:0, ecx
  00125	59		 pop	 ecx
  00126	5f		 pop	 edi
  00127	5e		 pop	 esi
  00128	8b e5		 mov	 esp, ebp
  0012a	5d		 pop	 ebp
  0012b	c2 10 00	 ret	 16			; 00000010H
$LN3@SetPacketD:

; 353  : 		return false;

  0012e	32 c0		 xor	 al, al

; 372  : }

  00130	8b 4d f4	 mov	 ecx, DWORD PTR __$EHRec$[ebp]
  00133	64 89 0d 00 00
	00 00		 mov	 DWORD PTR fs:0, ecx
  0013a	59		 pop	 ecx
  0013b	5f		 pop	 edi
  0013c	5e		 pop	 esi
  0013d	8b e5		 mov	 esp, ebp
  0013f	5d		 pop	 ebp
  00140	c2 10 00	 ret	 16			; 00000010H
_TEXT	ENDS
;	COMDAT text$x
text$x	SEGMENT
__unwindfunclet$?SetPacketDataInPacketList@CKTBChartCtrl@@AAE_NPBDJJH@Z$0:
  00000	8d 4d 14	 lea	 ecx, DWORD PTR $T5[ebp]
  00003	ff 25 00 00 00
	00		 jmp	 DWORD PTR __imp_??1?$CStringT@DV?$StrTraitMFC_DLL@DV?$ChTraitsCRT@D@ATL@@@@@ATL@@QAE@XZ
__unwindfunclet$?SetPacketDataInPacketList@CKTBChartCtrl@@AAE_NPBDJJH@Z$1:
  00009	8d 4d 08	 lea	 ecx, DWORD PTR $T4[ebp]
  0000c	ff 25 00 00 00
	00		 jmp	 DWORD PTR __imp_??1?$CStringT@DV?$StrTraitMFC_DLL@DV?$ChTraitsCRT@D@ATL@@@@@ATL@@QAE@XZ
__unwindfunclet$?SetPacketDataInPacketList@CKTBChartCtrl@@AAE_NPBDJJH@Z$2:
  00012	8d 4d 08	 lea	 ecx, DWORD PTR $T3[ebp]
  00015	ff 25 00 00 00
	00		 jmp	 DWORD PTR __imp_??1?$CStringT@DV?$StrTraitMFC_DLL@DV?$ChTraitsCRT@D@ATL@@@@@ATL@@QAE@XZ
__unwindfunclet$?SetPacketDataInPacketList@CKTBChartCtrl@@AAE_NPBDJJH@Z$3:
  0001b	8d 4d f0	 lea	 ecx, DWORD PTR $T2[ebp]
  0001e	ff 25 00 00 00
	00		 jmp	 DWORD PTR __imp_??1?$CStringT@DV?$StrTraitMFC_DLL@DV?$ChTraitsCRT@D@ATL@@@@@ATL@@QAE@XZ
  00024	cc		 int	 3
  00025	cc		 int	 3
  00026	cc		 int	 3
  00027	cc		 int	 3
  00028	cc		 int	 3
__ehhandler$?SetPacketDataInPacketList@CKTBChartCtrl@@AAE_NPBDJJH@Z:
  00029	90		 npad	 1
  0002a	90		 npad	 1
  0002b	8b 54 24 08	 mov	 edx, DWORD PTR [esp+8]
  0002f	8d 42 0c	 lea	 eax, DWORD PTR [edx+12]
  00032	8b 4a f0	 mov	 ecx, DWORD PTR [edx-16]
  00035	33 c8		 xor	 ecx, eax
  00037	e8 00 00 00 00	 call	 @__security_check_cookie@4
  0003c	b8 00 00 00 00	 mov	 eax, OFFSET __ehfuncinfo$?SetPacketDataInPacketList@CKTBChartCtrl@@AAE_NPBDJJH@Z
  00041	e9 00 00 00 00	 jmp	 ___CxxFrameHandler3
text$x	ENDS
?SetPacketDataInPacketList@CKTBChartCtrl@@AAE_NPBDJJH@Z ENDP ; CKTBChartCtrl::SetPacketDataInPacketList
; Function compile flags: /Ogtp
; File D:\git\src\IBK\IBK_DRFN\ProjSrc\SrcChartEx\ChartOCX\KTBChart\KTBChartDLL.cpp
; File C:\Program Files (x86)\Microsoft Visual Studio\2019\Community\VC\Tools\MSVC\14.29.30133\atlmfc\include\atlsimpstr.h
; File D:\git\src\IBK\IBK_DRFN\ProjSrc\SrcChartEx\ChartOCX\KTBChart\KTBChartDLL.cpp
; File C:\Program Files (x86)\Microsoft Visual Studio\2019\Community\VC\Tools\MSVC\14.29.30133\atlmfc\include\afxtempl.h
; File D:\git\src\IBK\IBK_DRFN\ProjSrc\SrcChartEx\ChartOCX\KTBChart\KTBChartDLL.cpp
; File C:\Program Files (x86)\Microsoft Visual Studio\2019\Community\VC\Tools\MSVC\14.29.30133\atlmfc\include\afxtempl.h
; File D:\git\src\IBK\IBK_DRFN\ProjSrc\SrcChartEx\ChartOCX\KTBChart\KTBChartDLL.cpp
; File C:\Program Files (x86)\Microsoft Visual Studio\2019\Community\VC\Tools\MSVC\14.29.30133\atlmfc\include\afxtempl.h
; File D:\git\src\IBK\IBK_DRFN\ProjSrc\SrcChartEx\ChartOCX\KTBChart\KTBChartDLL.cpp
; File C:\Program Files (x86)\Microsoft Visual Studio\2019\Community\VC\Tools\MSVC\14.29.30133\atlmfc\include\cstringt.h
; File D:\git\src\IBK\IBK_DRFN\ProjSrc\SrcChartEx\ChartOCX\KTBChart\KTBChartDLL.cpp
; File C:\Program Files (x86)\Microsoft Visual Studio\2019\Community\VC\Tools\MSVC\14.29.30133\atlmfc\include\cstringt.h
; File C:\Program Files (x86)\Microsoft Visual Studio\2019\Community\VC\Tools\MSVC\14.29.30133\atlmfc\include\atlsimpstr.h
; File C:\Program Files (x86)\Microsoft Visual Studio\2019\Community\VC\Tools\MSVC\14.29.30133\atlmfc\include\cstringt.h
; File D:\git\src\IBK\IBK_DRFN\ProjSrc\SrcChartEx\ChartOCX\KTBChart\KTBChartDLL.cpp
; File C:\Program Files (x86)\Microsoft Visual Studio\2019\Community\VC\Tools\MSVC\14.29.30133\atlmfc\include\cstringt.h
; File D:\git\src\IBK\IBK_DRFN\ProjSrc\SrcChartEx\ChartOCX\KTBChart\KTBChartDLL.cpp
; File C:\Program Files (x86)\Microsoft Visual Studio\2019\Community\VC\Tools\MSVC\14.29.30133\atlmfc\include\cstringt.h
; File D:\git\src\IBK\IBK_DRFN\ProjSrc\SrcChartEx\ChartOCX\KTBChart\KTBChartDLL.cpp
; File C:\Program Files (x86)\Microsoft Visual Studio\2019\Community\VC\Tools\MSVC\14.29.30133\atlmfc\include\cstringt.h
; File C:\Program Files (x86)\Microsoft Visual Studio\2019\Community\VC\Tools\MSVC\14.29.30133\atlmfc\include\atlsimpstr.h
; File C:\Program Files (x86)\Microsoft Visual Studio\2019\Community\VC\Tools\MSVC\14.29.30133\atlmfc\include\cstringt.h
; File D:\git\src\IBK\IBK_DRFN\ProjSrc\SrcChartEx\ChartOCX\KTBChart\KTBChartDLL.cpp
; File C:\Program Files (x86)\Microsoft Visual Studio\2019\Community\VC\Tools\MSVC\14.29.30133\atlmfc\include\cstringt.h
; File C:\Program Files (x86)\Microsoft Visual Studio\2019\Community\VC\Tools\MSVC\14.29.30133\atlmfc\include\atlsimpstr.h
; File C:\Program Files (x86)\Microsoft Visual Studio\2019\Community\VC\Tools\MSVC\14.29.30133\atlmfc\include\cstringt.h
; File D:\git\src\IBK\IBK_DRFN\ProjSrc\SrcChartEx\ChartOCX\KTBChart\KTBChartDLL.cpp
; File C:\Program Files (x86)\Microsoft Visual Studio\2019\Community\VC\Tools\MSVC\14.29.30133\atlmfc\include\cstringt.h
; File D:\git\src\IBK\IBK_DRFN\ProjSrc\SrcChartEx\ChartOCX\KTBChart\KTBChartDLL.cpp
; File C:\Program Files (x86)\Microsoft Visual Studio\2019\Community\VC\Tools\MSVC\14.29.30133\atlmfc\include\cstringt.h
; File D:\git\src\IBK\IBK_DRFN\ProjSrc\SrcChartEx\ChartOCX\KTBChart\KTBChartDLL.cpp
; File C:\Program Files (x86)\Microsoft Visual Studio\2019\Community\VC\Tools\MSVC\14.29.30133\atlmfc\include\cstringt.h
; File C:\Program Files (x86)\Microsoft Visual Studio\2019\Community\VC\Tools\MSVC\14.29.30133\atlmfc\include\atlsimpstr.h
; File C:\Program Files (x86)\Microsoft Visual Studio\2019\Community\VC\Tools\MSVC\14.29.30133\atlmfc\include\cstringt.h
; File D:\git\src\IBK\IBK_DRFN\ProjSrc\SrcChartEx\ChartOCX\KTBChart\KTBChartDLL.cpp
; File C:\Program Files (x86)\Microsoft Visual Studio\2019\Community\VC\Tools\MSVC\14.29.30133\atlmfc\include\cstringt.h
; File C:\Program Files (x86)\Microsoft Visual Studio\2019\Community\VC\Tools\MSVC\14.29.30133\atlmfc\include\atlsimpstr.h
; File C:\Program Files (x86)\Microsoft Visual Studio\2019\Community\VC\Tools\MSVC\14.29.30133\atlmfc\include\cstringt.h
; File D:\git\src\IBK\IBK_DRFN\ProjSrc\SrcChartEx\ChartOCX\KTBChart\KTBChartDLL.cpp
; File C:\Program Files (x86)\Microsoft Visual Studio\2019\Community\VC\Tools\MSVC\14.29.30133\atlmfc\include\afxtempl.h
; File D:\git\src\IBK\IBK_DRFN\ProjSrc\SrcChartEx\ChartOCX\KTBChart\KTBChartDLL.cpp
; File C:\Program Files (x86)\Microsoft Visual Studio\2019\Community\VC\Tools\MSVC\14.29.30133\atlmfc\include\afxtempl.h
; File D:\git\src\IBK\IBK_DRFN\ProjSrc\SrcChartEx\ChartOCX\KTBChart\KTBChartDLL.cpp
;	COMDAT ?ChangeChart_PriceChartStyle@CKTBChartCtrl@@AAEHABV?$CStringT@DV?$StrTraitMFC_DLL@DV?$ChTraitsCRT@D@ATL@@@@@ATL@@AAV23@H@Z
_TEXT	SEGMENT
_slRQs$ = -112						; size = 28
$T2 = -84						; size = 4
$T3 = -84						; size = 4
$T4 = -84						; size = 4
$T5 = -84						; size = 4
$T6 = -84						; size = 4
$T7 = -84						; size = 4
$T8 = -84						; size = 4
$T9 = -80						; size = 4
$T10 = -80						; size = 4
$T11 = -80						; size = 4
$T12 = -80						; size = 4
$T13 = -80						; size = 4
$T14 = -80						; size = 4
$T15 = -80						; size = 4
$T16 = -80						; size = 4
$T17 = -76						; size = 4
_nR$ = -72						; size = 4
_nC$ = -68						; size = 4
_nV$ = -64						; size = 4
_nG$ = -60						; size = 4
_strRQ$18 = -56						; size = 4
$T19 = -52						; size = 4
$T20 = -48						; size = 4
$T21 = -44						; size = 4
$T22 = -40						; size = 4
$T23 = -36						; size = 4
$T24 = -32						; size = 4
$T25 = -28						; size = 4
$T26 = -28						; size = 4
$T27 = -28						; size = 4
$T28 = -28						; size = 4
$T29 = -28						; size = 4
$T30 = -28						; size = 4
$T31 = -28						; size = 4
$T32 = -28						; size = 4
$T33 = -28						; size = 4
_bResult$1$ = -24					; size = 4
$T34 = -24						; size = 4
_this$1$ = -20						; size = 4
_strGraphName$ = -16					; size = 4
__$EHRec$ = -12						; size = 12
_strChartName$ = 8					; size = 4
_p_strIndicatorName$ = 8				; size = 4
_p_strGraphName$ = 12					; size = 4
_strPackets$35 = 16					; size = 4
_bSelect$ = 16						; size = 4
?ChangeChart_PriceChartStyle@CKTBChartCtrl@@AAEHABV?$CStringT@DV?$StrTraitMFC_DLL@DV?$ChTraitsCRT@D@ATL@@@@@ATL@@AAV23@H@Z PROC ; CKTBChartCtrl::ChangeChart_PriceChartStyle, COMDAT
; _this$ = ecx

; 842  : {

  00000	55		 push	 ebp
  00001	8b ec		 mov	 ebp, esp
  00003	6a ff		 push	 -1
  00005	68 00 00 00 00	 push	 __ehhandler$?ChangeChart_PriceChartStyle@CKTBChartCtrl@@AAEHABV?$CStringT@DV?$StrTraitMFC_DLL@DV?$ChTraitsCRT@D@ATL@@@@@ATL@@AAV23@H@Z
  0000a	64 a1 00 00 00
	00		 mov	 eax, DWORD PTR fs:0
  00010	50		 push	 eax
  00011	83 ec 64	 sub	 esp, 100		; 00000064H
  00014	53		 push	 ebx
  00015	56		 push	 esi
  00016	57		 push	 edi
  00017	a1 00 00 00 00	 mov	 eax, DWORD PTR ___security_cookie
  0001c	33 c5		 xor	 eax, ebp
  0001e	50		 push	 eax
  0001f	8d 45 f4	 lea	 eax, DWORD PTR __$EHRec$[ebp]
  00022	64 a3 00 00 00
	00		 mov	 DWORD PTR fs:0, eax
  00028	8b f1		 mov	 esi, ecx
  0002a	89 75 ec	 mov	 DWORD PTR _this$1$[ebp], esi
  0002d	33 ff		 xor	 edi, edi
  0002f	89 7d e4	 mov	 DWORD PTR $T25[ebp], edi

; 843  : 	if(m_pIndicatorList == NULL || m_pMainBlock == NULL) return FALSE;

  00032	39 be 40 03 00
	00		 cmp	 DWORD PTR [esi+832], edi
  00038	0f 84 f6 07 00
	00		 je	 $LN5@ChangeChar
  0003e	39 be 34 03 00
	00		 cmp	 DWORD PTR [esi+820], edi
  00044	0f 84 ea 07 00
	00		 je	 $LN5@ChangeChar
; File C:\Program Files (x86)\Microsoft Visual Studio\2019\Community\VC\Tools\MSVC\14.29.30133\atlmfc\include\atlsimpstr.h

; 377  : 		return( m_pszData );

  0004a	8b 45 08	 mov	 eax, DWORD PTR _p_strIndicatorName$[ebp]
; File D:\git\src\IBK\IBK_DRFN\ProjSrc\SrcChartEx\ChartOCX\KTBChart\KTBChartDLL.cpp

; 846  : 	CString strChartName = _STOM5( p_strIndicatorName);	

  0004d	b9 00 00 00 00	 mov	 ecx, OFFSET ?g_iMetaTable@@3VIMetaTable@@A ; g_iMetaTable
  00052	57		 push	 edi
  00053	ff 30		 push	 DWORD PTR [eax]
  00055	6a 05		 push	 5
  00057	ff b6 c0 05 00
	00		 push	 DWORD PTR [esi+1472]
  0005d	e8 00 00 00 00	 call	 ?GetMetaTextForScript@IMetaTable@@QAEPBDPAUHWND__@@W4E_CODEPAGE@1@PBDH@Z ; IMetaTable::GetMetaTextForScript
  00062	50		 push	 eax
  00063	8d 4d 08	 lea	 ecx, DWORD PTR _strChartName$[ebp]
  00066	ff 15 00 00 00
	00		 call	 DWORD PTR __imp_??0?$CStringT@DV?$StrTraitMFC_DLL@DV?$ChTraitsCRT@D@ATL@@@@@ATL@@QAE@PBD@Z

; 847  : 
; 848  : 	if( !g_iMetaTable.IsPriceChartType( strChartName)) return FALSE;

  0006c	ff 75 08	 push	 DWORD PTR _strChartName$[ebp]
  0006f	b9 00 00 00 00	 mov	 ecx, OFFSET ?g_iMetaTable@@3VIMetaTable@@A ; g_iMetaTable
  00074	89 7d fc	 mov	 DWORD PTR __$EHRec$[ebp+8], edi
  00077	e8 00 00 00 00	 call	 ?IsPriceChartType@IMetaTable@@QAEHPBD@Z ; IMetaTable::IsPriceChartType
  0007c	85 c0		 test	 eax, eax
  0007e	75 23		 jne	 SHORT $LN6@ChangeChar

; 887  : 	return bAllResult;

  00080	8d 4d 08	 lea	 ecx, DWORD PTR _strChartName$[ebp]
  00083	89 45 e0	 mov	 DWORD PTR $T24[ebp], eax
  00086	ff 15 00 00 00
	00		 call	 DWORD PTR __imp_??1?$CStringT@DV?$StrTraitMFC_DLL@DV?$ChTraitsCRT@D@ATL@@@@@ATL@@QAE@XZ
  0008c	8b 45 e0	 mov	 eax, DWORD PTR $T24[ebp]

; 888  : }

  0008f	8b 4d f4	 mov	 ecx, DWORD PTR __$EHRec$[ebp]
  00092	64 89 0d 00 00
	00 00		 mov	 DWORD PTR fs:0, ecx
  00099	59		 pop	 ecx
  0009a	5f		 pop	 edi
  0009b	5e		 pop	 esi
  0009c	5b		 pop	 ebx
  0009d	8b e5		 mov	 esp, ebp
  0009f	5d		 pop	 ebp
  000a0	c2 0c 00	 ret	 12			; 0000000cH
$LN6@ChangeChar:

; 849  : 
; 850  : 	CString strGraphName;

  000a3	8d 4d f0	 lea	 ecx, DWORD PTR _strGraphName$[ebp]
  000a6	ff 15 00 00 00
	00		 call	 DWORD PTR __imp_??0?$CStringT@DV?$StrTraitMFC_DLL@DV?$ChTraitsCRT@D@ATL@@@@@ATL@@QAE@XZ

; 851  : 	int nR = -1, nC = -1, nV = -1, nG = -1;

  000ac	c7 45 b8 ff ff
	ff ff		 mov	 DWORD PTR _nR$[ebp], -1
  000b3	c7 45 bc ff ff
	ff ff		 mov	 DWORD PTR _nC$[ebp], -1
  000ba	c7 45 c0 ff ff
	ff ff		 mov	 DWORD PTR _nV$[ebp], -1
  000c1	c7 45 c4 ff ff
	ff ff		 mov	 DWORD PTR _nG$[ebp], -1
; File C:\Program Files (x86)\Microsoft Visual Studio\2019\Community\VC\Tools\MSVC\14.29.30133\atlmfc\include\afxtempl.h

; 851  : {

  000c8	c7 45 90 00 00
	00 00		 mov	 DWORD PTR _slRQs$[ebp], OFFSET ??_7?$CList@V?$CStringT@DV?$StrTraitMFC_DLL@DV?$ChTraitsCRT@D@ATL@@@@@ATL@@V12@@@6B@

; 852  : 	ASSERT(nBlockSize > 0);
; 853  : 
; 854  : 	m_nCount = 0;

  000cf	c7 45 9c 00 00
	00 00		 mov	 DWORD PTR _slRQs$[ebp+12], 0

; 855  : 	m_pNodeHead = m_pNodeTail = m_pNodeFree = NULL;

  000d6	c7 45 a0 00 00
	00 00		 mov	 DWORD PTR _slRQs$[ebp+16], 0
  000dd	c7 45 98 00 00
	00 00		 mov	 DWORD PTR _slRQs$[ebp+8], 0
  000e4	c7 45 94 00 00
	00 00		 mov	 DWORD PTR _slRQs$[ebp+4], 0

; 856  : 	m_pBlocks = NULL;

  000eb	c7 45 a4 00 00
	00 00		 mov	 DWORD PTR _slRQs$[ebp+20], 0

; 857  : 	m_nBlockSize = nBlockSize;

  000f2	c7 45 a8 0a 00
	00 00		 mov	 DWORD PTR _slRQs$[ebp+24], 10 ; 0000000aH
; File D:\git\src\IBK\IBK_DRFN\ProjSrc\SrcChartEx\ChartOCX\KTBChart\KTBChartDLL.cpp

; 854  : 	if( bSelect) slRQs.AddTail(m_strRQ);

  000f9	83 7d 10 00	 cmp	 DWORD PTR _bSelect$[ebp], 0
  000fd	c6 45 fc 02	 mov	 BYTE PTR __$EHRec$[ebp+8], 2
  00101	74 12		 je	 SHORT $LN7@ChangeChar
  00103	51		 push	 ecx
  00104	8d 86 9c 05 00
	00		 lea	 eax, DWORD PTR [esi+1436]
  0010a	8b cc		 mov	 ecx, esp
  0010c	50		 push	 eax
  0010d	ff 15 00 00 00
	00		 call	 DWORD PTR __imp_??0?$CStringT@DV?$StrTraitMFC_DLL@DV?$ChTraitsCRT@D@ATL@@@@@ATL@@QAE@ABV01@@Z
  00113	eb 1d		 jmp	 SHORT $LN198@ChangeChar
$LN7@ChangeChar:

; 855  : 	else
; 856  : 	{
; 857  : 		m_pPacketListManager->GetAllRQ( slRQs);

  00115	8b 8e 98 05 00
	00		 mov	 ecx, DWORD PTR [esi+1432]
  0011b	8d 55 90	 lea	 edx, DWORD PTR _slRQs$[ebp]
  0011e	52		 push	 edx
  0011f	8b 01		 mov	 eax, DWORD PTR [ecx]
  00121	ff 50 48	 call	 DWORD PTR [eax+72]

; 858  : 		slRQs.AddTail(_T("DEFAULT"));

  00124	51		 push	 ecx
  00125	8b cc		 mov	 ecx, esp
  00127	68 00 00 00 00	 push	 OFFSET ??_C@_07MGCPDNLD@DEFAULT@
  0012c	ff 15 00 00 00
	00		 call	 DWORD PTR __imp_??0?$CStringT@DV?$StrTraitMFC_DLL@DV?$ChTraitsCRT@D@ATL@@@@@ATL@@QAE@PBD@Z
$LN198@ChangeChar:

; 859  : 	}
; 860  : 	
; 861  : 	BOOL bAllResult = TRUE;

  00132	8d 4d 90	 lea	 ecx, DWORD PTR _slRQs$[ebp]
  00135	e8 00 00 00 00	 call	 ?AddTail@?$CList@V?$CStringT@DV?$StrTraitMFC_DLL@DV?$ChTraitsCRT@D@ATL@@@@@ATL@@V12@@@QAEPAU__POSITION@@V?$CStringT@DV?$StrTraitMFC_DLL@DV?$ChTraitsCRT@D@ATL@@@@@ATL@@@Z ; CList<ATL::CStringT<char,StrTraitMFC_DLL<char,ATL::ChTraitsCRT<char> > >,ATL::CStringT<char,StrTraitMFC_DLL<char,ATL::ChTraitsCRT<char> > > >::AddTail

; 862  : 	POSITION psn = slRQs.GetHeadPosition();

  0013a	8b 5d 94	 mov	 ebx, DWORD PTR _slRQs$[ebp+4]
  0013d	c7 45 e0 01 00
	00 00		 mov	 DWORD PTR $T24[ebp], 1
  00144	85 db		 test	 ebx, ebx

; 863  : 	while( psn)

  00146	0f 84 76 06 00
	00		 je	 $LN3@ChangeChar
  0014c	0f 1f 40 00	 npad	 4
$LL2@ChangeChar:
; File C:\Program Files (x86)\Microsoft Visual Studio\2019\Community\VC\Tools\MSVC\14.29.30133\atlmfc\include\afxtempl.h

; 811  : 	{ CNode* pNode = (CNode*) rPosition;

  00150	8b c3		 mov	 eax, ebx
; File D:\git\src\IBK\IBK_DRFN\ProjSrc\SrcChartEx\ChartOCX\KTBChart\KTBChartDLL.cpp

; 865  : 		CString strRQ = slRQs.GetNext( psn);

  00152	8d 4d c8	 lea	 ecx, DWORD PTR _strRQ$18[ebp]
; File C:\Program Files (x86)\Microsoft Visual Studio\2019\Community\VC\Tools\MSVC\14.29.30133\atlmfc\include\afxtempl.h

; 813  : 		rPosition = (POSITION) pNode->pNext;

  00155	8b 1b		 mov	 ebx, DWORD PTR [ebx]

; 814  : 		return pNode->data; }

  00157	83 c0 08	 add	 eax, 8
; File D:\git\src\IBK\IBK_DRFN\ProjSrc\SrcChartEx\ChartOCX\KTBChart\KTBChartDLL.cpp

; 865  : 		CString strRQ = slRQs.GetNext( psn);

  0015a	50		 push	 eax
  0015b	ff 15 00 00 00
	00		 call	 DWORD PTR __imp_??0?$CStringT@DV?$StrTraitMFC_DLL@DV?$ChTraitsCRT@D@ATL@@@@@ATL@@QAE@ABV01@@Z

; 866  : 
; 867  : 		// RQ  :  - ojtaso (20070621)
; 868  : 		if( !m_pMainBlock->FindFirstIndicator( _MTEXT( C2_PRICE_CHART), nR, nC, nV, nG, strGraphName, strRQ))

  00161	ff 75 c8	 push	 DWORD PTR _strRQ$18[ebp]
  00164	8b 8e 34 03 00
	00		 mov	 ecx, DWORD PTR [esi+820]
  0016a	8d 45 f0	 lea	 eax, DWORD PTR _strGraphName$[ebp]
  0016d	50		 push	 eax
  0016e	8d 45 c4	 lea	 eax, DWORD PTR _nG$[ebp]
  00171	c6 45 fc 03	 mov	 BYTE PTR __$EHRec$[ebp+8], 3
  00175	50		 push	 eax
  00176	8b 11		 mov	 edx, DWORD PTR [ecx]
  00178	8d 45 c0	 lea	 eax, DWORD PTR _nV$[ebp]
  0017b	50		 push	 eax
  0017c	8d 45 bc	 lea	 eax, DWORD PTR _nC$[ebp]
  0017f	50		 push	 eax
  00180	8d 45 b8	 lea	 eax, DWORD PTR _nR$[ebp]
  00183	50		 push	 eax
  00184	a1 54 00 00 00	 mov	 eax, DWORD PTR ?g_iMetaTable@@3VIMetaTable@@A+84
  00189	ff b0 28 03 00
	00		 push	 DWORD PTR [eax+808]
  0018f	ff 92 d4 02 00
	00		 call	 DWORD PTR [edx+724]
  00195	85 c0		 test	 eax, eax
  00197	0f 84 0d 06 00
	00		 je	 $LN199@ChangeChar

; 869  : 			continue;
; 870  : 
; 871  : 		BOOL bResult = FALSE;

  0019d	33 c0		 xor	 eax, eax

; 872  : 		CString strPackets = CString( _MTEXT( C0_OPEN)) + "," + _MTEXT( C0_HIGH) + "," + _MTEXT( C0_LOW) + "," + _MTEXT( C0_CLOSE);

  0019f	8d 4d b4	 lea	 ecx, DWORD PTR $T17[ebp]
  001a2	89 45 e8	 mov	 DWORD PTR _bResult$1$[ebp], eax
  001a5	a1 54 00 00 00	 mov	 eax, DWORD PTR ?g_iMetaTable@@3VIMetaTable@@A+84
  001aa	ff 70 08	 push	 DWORD PTR [eax+8]
  001ad	ff 15 00 00 00
	00		 call	 DWORD PTR __imp_??0?$CStringT@DV?$StrTraitMFC_DLL@DV?$ChTraitsCRT@D@ATL@@@@@ATL@@QAE@PBD@Z
  001b3	8b f0		 mov	 esi, eax
; File C:\Program Files (x86)\Microsoft Visual Studio\2019\Community\VC\Tools\MSVC\14.29.30133\atlmfc\include\cstringt.h

; 2401 : 		CStringT strResult( str1.GetManager() );

  001b5	8b ce		 mov	 ecx, esi
; File D:\git\src\IBK\IBK_DRFN\ProjSrc\SrcChartEx\ChartOCX\KTBChart\KTBChartDLL.cpp

; 872  : 		CString strPackets = CString( _MTEXT( C0_OPEN)) + "," + _MTEXT( C0_HIGH) + "," + _MTEXT( C0_LOW) + "," + _MTEXT( C0_CLOSE);

  001b7	c6 45 fc 05	 mov	 BYTE PTR __$EHRec$[ebp+8], 5
; File C:\Program Files (x86)\Microsoft Visual Studio\2019\Community\VC\Tools\MSVC\14.29.30133\atlmfc\include\cstringt.h

; 2401 : 		CStringT strResult( str1.GetManager() );

  001bb	ff 15 00 00 00
	00		 call	 DWORD PTR __imp_?GetManager@?$CStringT@DV?$StrTraitMFC_DLL@DV?$ChTraitsCRT@D@ATL@@@@@ATL@@QBEPAUIAtlStringMgr@2@XZ
  001c1	50		 push	 eax
  001c2	8d 4d d0	 lea	 ecx, DWORD PTR $T20[ebp]
  001c5	ff 15 00 00 00
	00		 call	 DWORD PTR __imp_??0?$CStringT@DV?$StrTraitMFC_DLL@DV?$ChTraitsCRT@D@ATL@@@@@ATL@@QAE@PAUIAtlStringMgr@1@@Z
; File C:\Program Files (x86)\Microsoft Visual Studio\2019\Community\VC\Tools\MSVC\14.29.30133\atlmfc\include\atlsimpstr.h

; 519  : 		return( GetData()->nDataLength );

  001cb	8b 06		 mov	 eax, DWORD PTR [esi]
; File C:\Program Files (x86)\Microsoft Visual Studio\2019\Community\VC\Tools\MSVC\14.29.30133\atlmfc\include\cstringt.h

; 2405 : 		return( strResult );

  001cd	83 cf 01	 or	 edi, 1
  001d0	6a 01		 push	 1
  001d2	68 00 00 00 00	 push	 OFFSET ??_C@_01IHBHIGKO@?0@
  001d7	89 7d e4	 mov	 DWORD PTR $T25[ebp], edi
  001da	ff 70 f4	 push	 DWORD PTR [eax-12]
  001dd	50		 push	 eax
  001de	8d 45 d0	 lea	 eax, DWORD PTR $T20[ebp]
  001e1	50		 push	 eax
  001e2	ff 15 00 00 00
	00		 call	 DWORD PTR __imp_?Concatenate@?$CSimpleStringT@D$00@ATL@@KAXAAV12@PBDH1H@Z
; File D:\git\src\IBK\IBK_DRFN\ProjSrc\SrcChartEx\ChartOCX\KTBChart\KTBChartDLL.cpp

; 872  : 		CString strPackets = CString( _MTEXT( C0_OPEN)) + "," + _MTEXT( C0_HIGH) + "," + _MTEXT( C0_LOW) + "," + _MTEXT( C0_CLOSE);

  001e8	a1 54 00 00 00	 mov	 eax, DWORD PTR ?g_iMetaTable@@3VIMetaTable@@A+84
; File C:\Program Files (x86)\Microsoft Visual Studio\2019\Community\VC\Tools\MSVC\14.29.30133\atlmfc\include\cstringt.h

; 2403 : 		CThisSimpleString::Concatenate( strResult, str1, str1.GetLength(), psz2, CThisSimpleString::StringLength( psz2 ) );

  001ed	83 c4 14	 add	 esp, 20			; 00000014H
; File D:\git\src\IBK\IBK_DRFN\ProjSrc\SrcChartEx\ChartOCX\KTBChart\KTBChartDLL.cpp

; 872  : 		CString strPackets = CString( _MTEXT( C0_OPEN)) + "," + _MTEXT( C0_HIGH) + "," + _MTEXT( C0_LOW) + "," + _MTEXT( C0_CLOSE);

  001f0	8b 70 0c	 mov	 esi, DWORD PTR [eax+12]
; File C:\Program Files (x86)\Microsoft Visual Studio\2019\Community\VC\Tools\MSVC\14.29.30133\atlmfc\include\cstringt.h

; 2401 : 		CStringT strResult( str1.GetManager() );

  001f3	8d 4d d0	 lea	 ecx, DWORD PTR $T20[ebp]
; File D:\git\src\IBK\IBK_DRFN\ProjSrc\SrcChartEx\ChartOCX\KTBChart\KTBChartDLL.cpp

; 872  : 		CString strPackets = CString( _MTEXT( C0_OPEN)) + "," + _MTEXT( C0_HIGH) + "," + _MTEXT( C0_LOW) + "," + _MTEXT( C0_CLOSE);

  001f6	c6 45 fc 06	 mov	 BYTE PTR __$EHRec$[ebp+8], 6
; File C:\Program Files (x86)\Microsoft Visual Studio\2019\Community\VC\Tools\MSVC\14.29.30133\atlmfc\include\cstringt.h

; 2401 : 		CStringT strResult( str1.GetManager() );

  001fa	ff 15 00 00 00
	00		 call	 DWORD PTR __imp_?GetManager@?$CStringT@DV?$StrTraitMFC_DLL@DV?$ChTraitsCRT@D@ATL@@@@@ATL@@QBEPAUIAtlStringMgr@2@XZ
  00200	50		 push	 eax
  00201	8d 4d d4	 lea	 ecx, DWORD PTR $T21[ebp]
  00204	ff 15 00 00 00
	00		 call	 DWORD PTR __imp_??0?$CStringT@DV?$StrTraitMFC_DLL@DV?$ChTraitsCRT@D@ATL@@@@@ATL@@QAE@PAUIAtlStringMgr@1@@Z

; 2405 : 		return( strResult );

  0020a	83 cf 02	 or	 edi, 2
  0020d	89 7d e4	 mov	 DWORD PTR $T25[ebp], edi
; File C:\Program Files (x86)\Microsoft Visual Studio\2019\Community\VC\Tools\MSVC\14.29.30133\atlmfc\include\atlsimpstr.h

; 722  : 		if( psz == NULL )

  00210	85 f6		 test	 esi, esi
  00212	75 04		 jne	 SHORT $LN96@ChangeChar

; 723  : 		{
; 724  : 			return( 0 );

  00214	33 c9		 xor	 ecx, ecx
  00216	eb 11		 jmp	 SHORT $LN95@ChangeChar
$LN96@ChangeChar:

; 725  : 		}
; 726  : 		return( int( strlen( psz ) ) );

  00218	8b ce		 mov	 ecx, esi
  0021a	8d 51 01	 lea	 edx, DWORD PTR [ecx+1]
  0021d	0f 1f 00	 npad	 3
$LL194@ChangeChar:
  00220	8a 01		 mov	 al, BYTE PTR [ecx]
  00222	41		 inc	 ecx
  00223	84 c0		 test	 al, al
  00225	75 f9		 jne	 SHORT $LL194@ChangeChar
  00227	2b ca		 sub	 ecx, edx
$LN95@ChangeChar:

; 519  : 		return( GetData()->nDataLength );

  00229	8b 45 d0	 mov	 eax, DWORD PTR $T20[ebp]
; File C:\Program Files (x86)\Microsoft Visual Studio\2019\Community\VC\Tools\MSVC\14.29.30133\atlmfc\include\cstringt.h

; 2403 : 		CThisSimpleString::Concatenate( strResult, str1, str1.GetLength(), psz2, CThisSimpleString::StringLength( psz2 ) );

  0022c	51		 push	 ecx
  0022d	56		 push	 esi
  0022e	ff 70 f4	 push	 DWORD PTR [eax-12]
  00231	50		 push	 eax
  00232	8d 45 d4	 lea	 eax, DWORD PTR $T21[ebp]
  00235	50		 push	 eax
  00236	ff 15 00 00 00
	00		 call	 DWORD PTR __imp_?Concatenate@?$CSimpleStringT@D$00@ATL@@KAXAAV12@PBDH1H@Z
  0023c	83 c4 14	 add	 esp, 20			; 00000014H

; 2401 : 		CStringT strResult( str1.GetManager() );

  0023f	8d 4d d4	 lea	 ecx, DWORD PTR $T21[ebp]
; File D:\git\src\IBK\IBK_DRFN\ProjSrc\SrcChartEx\ChartOCX\KTBChart\KTBChartDLL.cpp

; 872  : 		CString strPackets = CString( _MTEXT( C0_OPEN)) + "," + _MTEXT( C0_HIGH) + "," + _MTEXT( C0_LOW) + "," + _MTEXT( C0_CLOSE);

  00242	c6 45 fc 07	 mov	 BYTE PTR __$EHRec$[ebp+8], 7
; File C:\Program Files (x86)\Microsoft Visual Studio\2019\Community\VC\Tools\MSVC\14.29.30133\atlmfc\include\cstringt.h

; 2401 : 		CStringT strResult( str1.GetManager() );

  00246	ff 15 00 00 00
	00		 call	 DWORD PTR __imp_?GetManager@?$CStringT@DV?$StrTraitMFC_DLL@DV?$ChTraitsCRT@D@ATL@@@@@ATL@@QBEPAUIAtlStringMgr@2@XZ
  0024c	50		 push	 eax
  0024d	8d 4d d8	 lea	 ecx, DWORD PTR $T22[ebp]
  00250	ff 15 00 00 00
	00		 call	 DWORD PTR __imp_??0?$CStringT@DV?$StrTraitMFC_DLL@DV?$ChTraitsCRT@D@ATL@@@@@ATL@@QAE@PAUIAtlStringMgr@1@@Z
; File C:\Program Files (x86)\Microsoft Visual Studio\2019\Community\VC\Tools\MSVC\14.29.30133\atlmfc\include\atlsimpstr.h

; 519  : 		return( GetData()->nDataLength );

  00256	8b 45 d4	 mov	 eax, DWORD PTR $T21[ebp]
; File C:\Program Files (x86)\Microsoft Visual Studio\2019\Community\VC\Tools\MSVC\14.29.30133\atlmfc\include\cstringt.h

; 2405 : 		return( strResult );

  00259	83 cf 04	 or	 edi, 4
  0025c	6a 01		 push	 1
  0025e	68 00 00 00 00	 push	 OFFSET ??_C@_01IHBHIGKO@?0@
  00263	89 7d e4	 mov	 DWORD PTR $T25[ebp], edi
  00266	ff 70 f4	 push	 DWORD PTR [eax-12]
  00269	50		 push	 eax
  0026a	8d 45 d8	 lea	 eax, DWORD PTR $T22[ebp]
  0026d	50		 push	 eax
  0026e	ff 15 00 00 00
	00		 call	 DWORD PTR __imp_?Concatenate@?$CSimpleStringT@D$00@ATL@@KAXAAV12@PBDH1H@Z
; File D:\git\src\IBK\IBK_DRFN\ProjSrc\SrcChartEx\ChartOCX\KTBChart\KTBChartDLL.cpp

; 872  : 		CString strPackets = CString( _MTEXT( C0_OPEN)) + "," + _MTEXT( C0_HIGH) + "," + _MTEXT( C0_LOW) + "," + _MTEXT( C0_CLOSE);

  00274	a1 54 00 00 00	 mov	 eax, DWORD PTR ?g_iMetaTable@@3VIMetaTable@@A+84
; File C:\Program Files (x86)\Microsoft Visual Studio\2019\Community\VC\Tools\MSVC\14.29.30133\atlmfc\include\cstringt.h

; 2403 : 		CThisSimpleString::Concatenate( strResult, str1, str1.GetLength(), psz2, CThisSimpleString::StringLength( psz2 ) );

  00279	83 c4 14	 add	 esp, 20			; 00000014H
; File D:\git\src\IBK\IBK_DRFN\ProjSrc\SrcChartEx\ChartOCX\KTBChart\KTBChartDLL.cpp

; 872  : 		CString strPackets = CString( _MTEXT( C0_OPEN)) + "," + _MTEXT( C0_HIGH) + "," + _MTEXT( C0_LOW) + "," + _MTEXT( C0_CLOSE);

  0027c	8b 70 10	 mov	 esi, DWORD PTR [eax+16]
; File C:\Program Files (x86)\Microsoft Visual Studio\2019\Community\VC\Tools\MSVC\14.29.30133\atlmfc\include\cstringt.h

; 2401 : 		CStringT strResult( str1.GetManager() );

  0027f	8d 4d d8	 lea	 ecx, DWORD PTR $T22[ebp]
; File D:\git\src\IBK\IBK_DRFN\ProjSrc\SrcChartEx\ChartOCX\KTBChart\KTBChartDLL.cpp

; 872  : 		CString strPackets = CString( _MTEXT( C0_OPEN)) + "," + _MTEXT( C0_HIGH) + "," + _MTEXT( C0_LOW) + "," + _MTEXT( C0_CLOSE);

  00282	c6 45 fc 08	 mov	 BYTE PTR __$EHRec$[ebp+8], 8
; File C:\Program Files (x86)\Microsoft Visual Studio\2019\Community\VC\Tools\MSVC\14.29.30133\atlmfc\include\cstringt.h

; 2401 : 		CStringT strResult( str1.GetManager() );

  00286	ff 15 00 00 00
	00		 call	 DWORD PTR __imp_?GetManager@?$CStringT@DV?$StrTraitMFC_DLL@DV?$ChTraitsCRT@D@ATL@@@@@ATL@@QBEPAUIAtlStringMgr@2@XZ
  0028c	50		 push	 eax
  0028d	8d 4d dc	 lea	 ecx, DWORD PTR $T23[ebp]
  00290	ff 15 00 00 00
	00		 call	 DWORD PTR __imp_??0?$CStringT@DV?$StrTraitMFC_DLL@DV?$ChTraitsCRT@D@ATL@@@@@ATL@@QAE@PAUIAtlStringMgr@1@@Z

; 2405 : 		return( strResult );

  00296	83 cf 08	 or	 edi, 8
  00299	89 7d e4	 mov	 DWORD PTR $T25[ebp], edi
; File C:\Program Files (x86)\Microsoft Visual Studio\2019\Community\VC\Tools\MSVC\14.29.30133\atlmfc\include\atlsimpstr.h

; 722  : 		if( psz == NULL )

  0029c	85 f6		 test	 esi, esi
  0029e	75 04		 jne	 SHORT $LN122@ChangeChar

; 723  : 		{
; 724  : 			return( 0 );

  002a0	33 c9		 xor	 ecx, ecx
  002a2	eb 15		 jmp	 SHORT $LN121@ChangeChar
$LN122@ChangeChar:

; 725  : 		}
; 726  : 		return( int( strlen( psz ) ) );

  002a4	8b ce		 mov	 ecx, esi
  002a6	8d 51 01	 lea	 edx, DWORD PTR [ecx+1]
  002a9	0f 1f 80 00 00
	00 00		 npad	 7
$LL195@ChangeChar:
  002b0	8a 01		 mov	 al, BYTE PTR [ecx]
  002b2	41		 inc	 ecx
  002b3	84 c0		 test	 al, al
  002b5	75 f9		 jne	 SHORT $LL195@ChangeChar
  002b7	2b ca		 sub	 ecx, edx
$LN121@ChangeChar:

; 519  : 		return( GetData()->nDataLength );

  002b9	8b 45 d8	 mov	 eax, DWORD PTR $T22[ebp]
; File C:\Program Files (x86)\Microsoft Visual Studio\2019\Community\VC\Tools\MSVC\14.29.30133\atlmfc\include\cstringt.h

; 2403 : 		CThisSimpleString::Concatenate( strResult, str1, str1.GetLength(), psz2, CThisSimpleString::StringLength( psz2 ) );

  002bc	51		 push	 ecx
  002bd	56		 push	 esi
  002be	ff 70 f4	 push	 DWORD PTR [eax-12]
  002c1	50		 push	 eax
  002c2	8d 45 dc	 lea	 eax, DWORD PTR $T23[ebp]
  002c5	50		 push	 eax
  002c6	ff 15 00 00 00
	00		 call	 DWORD PTR __imp_?Concatenate@?$CSimpleStringT@D$00@ATL@@KAXAAV12@PBDH1H@Z
  002cc	83 c4 14	 add	 esp, 20			; 00000014H

; 2401 : 		CStringT strResult( str1.GetManager() );

  002cf	8d 4d dc	 lea	 ecx, DWORD PTR $T23[ebp]
; File D:\git\src\IBK\IBK_DRFN\ProjSrc\SrcChartEx\ChartOCX\KTBChart\KTBChartDLL.cpp

; 872  : 		CString strPackets = CString( _MTEXT( C0_OPEN)) + "," + _MTEXT( C0_HIGH) + "," + _MTEXT( C0_LOW) + "," + _MTEXT( C0_CLOSE);

  002d2	c6 45 fc 09	 mov	 BYTE PTR __$EHRec$[ebp+8], 9
; File C:\Program Files (x86)\Microsoft Visual Studio\2019\Community\VC\Tools\MSVC\14.29.30133\atlmfc\include\cstringt.h

; 2401 : 		CStringT strResult( str1.GetManager() );

  002d6	ff 15 00 00 00
	00		 call	 DWORD PTR __imp_?GetManager@?$CStringT@DV?$StrTraitMFC_DLL@DV?$ChTraitsCRT@D@ATL@@@@@ATL@@QBEPAUIAtlStringMgr@2@XZ
  002dc	50		 push	 eax
  002dd	8d 4d cc	 lea	 ecx, DWORD PTR $T19[ebp]
  002e0	ff 15 00 00 00
	00		 call	 DWORD PTR __imp_??0?$CStringT@DV?$StrTraitMFC_DLL@DV?$ChTraitsCRT@D@ATL@@@@@ATL@@QAE@PAUIAtlStringMgr@1@@Z
; File C:\Program Files (x86)\Microsoft Visual Studio\2019\Community\VC\Tools\MSVC\14.29.30133\atlmfc\include\atlsimpstr.h

; 519  : 		return( GetData()->nDataLength );

  002e6	8b 45 dc	 mov	 eax, DWORD PTR $T23[ebp]
; File C:\Program Files (x86)\Microsoft Visual Studio\2019\Community\VC\Tools\MSVC\14.29.30133\atlmfc\include\cstringt.h

; 2405 : 		return( strResult );

  002e9	83 cf 10	 or	 edi, 16			; 00000010H
  002ec	6a 01		 push	 1
  002ee	68 00 00 00 00	 push	 OFFSET ??_C@_01IHBHIGKO@?0@
  002f3	89 7d e4	 mov	 DWORD PTR $T25[ebp], edi
  002f6	ff 70 f4	 push	 DWORD PTR [eax-12]
  002f9	50		 push	 eax
  002fa	8d 45 cc	 lea	 eax, DWORD PTR $T19[ebp]
  002fd	50		 push	 eax
  002fe	ff 15 00 00 00
	00		 call	 DWORD PTR __imp_?Concatenate@?$CSimpleStringT@D$00@ATL@@KAXAAV12@PBDH1H@Z
; File D:\git\src\IBK\IBK_DRFN\ProjSrc\SrcChartEx\ChartOCX\KTBChart\KTBChartDLL.cpp

; 872  : 		CString strPackets = CString( _MTEXT( C0_OPEN)) + "," + _MTEXT( C0_HIGH) + "," + _MTEXT( C0_LOW) + "," + _MTEXT( C0_CLOSE);

  00304	a1 54 00 00 00	 mov	 eax, DWORD PTR ?g_iMetaTable@@3VIMetaTable@@A+84
  00309	ff 70 14	 push	 DWORD PTR [eax+20]
  0030c	8d 45 cc	 lea	 eax, DWORD PTR $T19[ebp]
  0030f	50		 push	 eax
  00310	8d 45 10	 lea	 eax, DWORD PTR _strPackets$35[ebp]
  00313	50		 push	 eax
  00314	e8 00 00 00 00	 call	 ??HATL@@YA?AV?$CStringT@DV?$StrTraitMFC_DLL@DV?$ChTraitsCRT@D@ATL@@@@@0@ABV10@PBD@Z ; ATL::operator+
  00319	83 c4 20	 add	 esp, 32			; 00000020H
  0031c	83 e7 ef	 and	 edi, -17		; ffffffefH
  0031f	8d 4d cc	 lea	 ecx, DWORD PTR $T19[ebp]
  00322	ff 15 00 00 00
	00		 call	 DWORD PTR __imp_??1?$CStringT@DV?$StrTraitMFC_DLL@DV?$ChTraitsCRT@D@ATL@@@@@ATL@@QAE@XZ
  00328	83 e7 f7	 and	 edi, -9			; fffffff7H
  0032b	8d 4d dc	 lea	 ecx, DWORD PTR $T23[ebp]
  0032e	ff 15 00 00 00
	00		 call	 DWORD PTR __imp_??1?$CStringT@DV?$StrTraitMFC_DLL@DV?$ChTraitsCRT@D@ATL@@@@@ATL@@QAE@XZ
  00334	83 e7 fb	 and	 edi, -5			; fffffffbH
  00337	8d 4d d8	 lea	 ecx, DWORD PTR $T22[ebp]
  0033a	ff 15 00 00 00
	00		 call	 DWORD PTR __imp_??1?$CStringT@DV?$StrTraitMFC_DLL@DV?$ChTraitsCRT@D@ATL@@@@@ATL@@QAE@XZ
  00340	83 e7 fd	 and	 edi, -3			; fffffffdH
  00343	8d 4d d4	 lea	 ecx, DWORD PTR $T21[ebp]
  00346	ff 15 00 00 00
	00		 call	 DWORD PTR __imp_??1?$CStringT@DV?$StrTraitMFC_DLL@DV?$ChTraitsCRT@D@ATL@@@@@ATL@@QAE@XZ
  0034c	83 e7 fe	 and	 edi, -2			; fffffffeH
  0034f	8d 4d d0	 lea	 ecx, DWORD PTR $T20[ebp]
  00352	ff 15 00 00 00
	00		 call	 DWORD PTR __imp_??1?$CStringT@DV?$StrTraitMFC_DLL@DV?$ChTraitsCRT@D@ATL@@@@@ATL@@QAE@XZ
  00358	8d 4d b4	 lea	 ecx, DWORD PTR $T17[ebp]
  0035b	c6 45 fc 10	 mov	 BYTE PTR __$EHRec$[ebp+8], 16 ; 00000010H
  0035f	ff 15 00 00 00
	00		 call	 DWORD PTR __imp_??1?$CStringT@DV?$StrTraitMFC_DLL@DV?$ChTraitsCRT@D@ATL@@@@@ATL@@QAE@XZ

; 873  : 		// 1.1.2   .
; 874  : 		if( !stricmp( strChartName, _MTEXT( C5_CANDLE_CHART)))						bResult = ChangeChartType( strGraphName, _MTEXT( C5_CANDLE_TYPE), _MTEXT( C5_CANDLE_CHART),					strPackets);

  00365	a1 54 00 00 00	 mov	 eax, DWORD PTR ?g_iMetaTable@@3VIMetaTable@@A+84
  0036a	8b 35 00 00 00
	00		 mov	 esi, DWORD PTR __imp__stricmp
  00370	ff b0 fc 07 00
	00		 push	 DWORD PTR [eax+2044]
  00376	ff 75 08	 push	 DWORD PTR _strChartName$[ebp]
  00379	ff d6		 call	 esi
  0037b	83 c4 08	 add	 esp, 8
  0037e	85 c0		 test	 eax, eax
  00380	75 69		 jne	 SHORT $LN10@ChangeChar
  00382	51		 push	 ecx
  00383	8d 45 10	 lea	 eax, DWORD PTR _strPackets$35[ebp]
  00386	89 65 e4	 mov	 DWORD PTR $T33[ebp], esp
  00389	8b cc		 mov	 ecx, esp
  0038b	50		 push	 eax
  0038c	ff 15 00 00 00
	00		 call	 DWORD PTR __imp_??0?$CStringT@DV?$StrTraitMFC_DLL@DV?$ChTraitsCRT@D@ATL@@@@@ATL@@QAE@ABV01@@Z
  00392	a1 54 00 00 00	 mov	 eax, DWORD PTR ?g_iMetaTable@@3VIMetaTable@@A+84
  00397	51		 push	 ecx
  00398	8b cc		 mov	 ecx, esp
  0039a	89 65 e8	 mov	 DWORD PTR $T34[ebp], esp
  0039d	c6 45 fc 11	 mov	 BYTE PTR __$EHRec$[ebp+8], 17 ; 00000011H
  003a1	ff b0 fc 07 00
	00		 push	 DWORD PTR [eax+2044]
  003a7	ff 15 00 00 00
	00		 call	 DWORD PTR __imp_??0?$CStringT@DV?$StrTraitMFC_DLL@DV?$ChTraitsCRT@D@ATL@@@@@ATL@@QAE@PBD@Z
  003ad	a1 54 00 00 00	 mov	 eax, DWORD PTR ?g_iMetaTable@@3VIMetaTable@@A+84
  003b2	51		 push	 ecx
  003b3	8b cc		 mov	 ecx, esp
  003b5	89 65 b0	 mov	 DWORD PTR $T16[ebp], esp
  003b8	c6 45 fc 12	 mov	 BYTE PTR __$EHRec$[ebp+8], 18 ; 00000012H
  003bc	ff b0 dc 07 00
	00		 push	 DWORD PTR [eax+2012]
  003c2	ff 15 00 00 00
	00		 call	 DWORD PTR __imp_??0?$CStringT@DV?$StrTraitMFC_DLL@DV?$ChTraitsCRT@D@ATL@@@@@ATL@@QAE@PBD@Z
  003c8	51		 push	 ecx
  003c9	8d 45 f0	 lea	 eax, DWORD PTR _strGraphName$[ebp]
  003cc	c6 45 fc 13	 mov	 BYTE PTR __$EHRec$[ebp+8], 19 ; 00000013H
  003d0	8b cc		 mov	 ecx, esp
  003d2	50		 push	 eax
  003d3	ff 15 00 00 00
	00		 call	 DWORD PTR __imp_??0?$CStringT@DV?$StrTraitMFC_DLL@DV?$ChTraitsCRT@D@ATL@@@@@ATL@@QAE@ABV01@@Z
  003d9	8b 4d ec	 mov	 ecx, DWORD PTR _this$1$[ebp]
  003dc	c6 45 fc 10	 mov	 BYTE PTR __$EHRec$[ebp+8], 16 ; 00000010H
  003e0	e8 00 00 00 00	 call	 ?ChangeChartType@CKTBChartCtrl@@AAE_NV?$CStringT@DV?$StrTraitMFC_DLL@DV?$ChTraitsCRT@D@ATL@@@@@ATL@@000@Z ; CKTBChartCtrl::ChangeChartType
  003e5	0f b6 c0	 movzx	 eax, al
  003e8	89 45 e8	 mov	 DWORD PTR _bResult$1$[ebp], eax
$LN10@ChangeChar:

; 875  : 		if( !stricmp( strChartName, _MTEXT( C5_BAR_CHART)) || !stricmp( strChartName, _MTEXT( C5_BAR_CHART_OPEN_HIGH_LOW_CLOSE)))

  003eb	a1 54 00 00 00	 mov	 eax, DWORD PTR ?g_iMetaTable@@3VIMetaTable@@A+84
  003f0	ff b0 0c 08 00
	00		 push	 DWORD PTR [eax+2060]
  003f6	ff 75 08	 push	 DWORD PTR _strChartName$[ebp]
  003f9	ff d6		 call	 esi
  003fb	83 c4 08	 add	 esp, 8
  003fe	85 c0		 test	 eax, eax
  00400	74 17		 je	 SHORT $LN12@ChangeChar
  00402	a1 54 00 00 00	 mov	 eax, DWORD PTR ?g_iMetaTable@@3VIMetaTable@@A+84
  00407	ff b0 00 08 00
	00		 push	 DWORD PTR [eax+2048]
  0040d	ff 75 08	 push	 DWORD PTR _strChartName$[ebp]
  00410	ff d6		 call	 esi
  00412	83 c4 08	 add	 esp, 8
  00415	85 c0		 test	 eax, eax
  00417	75 69		 jne	 SHORT $LN11@ChangeChar
$LN12@ChangeChar:

; 876  : 																					bResult = ChangeChartType( strGraphName, _MTEXT( C5_CANDLE_TYPE), _MTEXT( C5_BAR_CHART_OPEN_HIGH_LOW_CLOSE),	strPackets);

  00419	51		 push	 ecx
  0041a	8d 45 10	 lea	 eax, DWORD PTR _strPackets$35[ebp]
  0041d	89 65 ac	 mov	 DWORD PTR $T8[ebp], esp
  00420	8b cc		 mov	 ecx, esp
  00422	50		 push	 eax
  00423	ff 15 00 00 00
	00		 call	 DWORD PTR __imp_??0?$CStringT@DV?$StrTraitMFC_DLL@DV?$ChTraitsCRT@D@ATL@@@@@ATL@@QAE@ABV01@@Z
  00429	a1 54 00 00 00	 mov	 eax, DWORD PTR ?g_iMetaTable@@3VIMetaTable@@A+84
  0042e	51		 push	 ecx
  0042f	8b cc		 mov	 ecx, esp
  00431	89 65 b0	 mov	 DWORD PTR $T15[ebp], esp
  00434	c6 45 fc 14	 mov	 BYTE PTR __$EHRec$[ebp+8], 20 ; 00000014H
  00438	ff b0 00 08 00
	00		 push	 DWORD PTR [eax+2048]
  0043e	ff 15 00 00 00
	00		 call	 DWORD PTR __imp_??0?$CStringT@DV?$StrTraitMFC_DLL@DV?$ChTraitsCRT@D@ATL@@@@@ATL@@QAE@PBD@Z
  00444	a1 54 00 00 00	 mov	 eax, DWORD PTR ?g_iMetaTable@@3VIMetaTable@@A+84
  00449	51		 push	 ecx
  0044a	8b cc		 mov	 ecx, esp
  0044c	89 65 e4	 mov	 DWORD PTR $T32[ebp], esp
  0044f	c6 45 fc 15	 mov	 BYTE PTR __$EHRec$[ebp+8], 21 ; 00000015H
  00453	ff b0 dc 07 00
	00		 push	 DWORD PTR [eax+2012]
  00459	ff 15 00 00 00
	00		 call	 DWORD PTR __imp_??0?$CStringT@DV?$StrTraitMFC_DLL@DV?$ChTraitsCRT@D@ATL@@@@@ATL@@QAE@PBD@Z
  0045f	51		 push	 ecx
  00460	8d 45 f0	 lea	 eax, DWORD PTR _strGraphName$[ebp]
  00463	c6 45 fc 16	 mov	 BYTE PTR __$EHRec$[ebp+8], 22 ; 00000016H
  00467	8b cc		 mov	 ecx, esp
  00469	50		 push	 eax
  0046a	ff 15 00 00 00
	00		 call	 DWORD PTR __imp_??0?$CStringT@DV?$StrTraitMFC_DLL@DV?$ChTraitsCRT@D@ATL@@@@@ATL@@QAE@ABV01@@Z
  00470	8b 4d ec	 mov	 ecx, DWORD PTR _this$1$[ebp]
  00473	c6 45 fc 10	 mov	 BYTE PTR __$EHRec$[ebp+8], 16 ; 00000010H
  00477	e8 00 00 00 00	 call	 ?ChangeChartType@CKTBChartCtrl@@AAE_NV?$CStringT@DV?$StrTraitMFC_DLL@DV?$ChTraitsCRT@D@ATL@@@@@ATL@@000@Z ; CKTBChartCtrl::ChangeChartType
  0047c	0f b6 c0	 movzx	 eax, al
  0047f	89 45 e8	 mov	 DWORD PTR _bResult$1$[ebp], eax
$LN11@ChangeChar:

; 877  : 		if( !stricmp( strChartName, _MTEXT( C5_LINE_CHART)))						bResult = ChangeChartType( strGraphName, _MTEXT( C5_CANDLE_TYPE), _MTEXT( C5_LINE_CHART),						strPackets);

  00482	a1 54 00 00 00	 mov	 eax, DWORD PTR ?g_iMetaTable@@3VIMetaTable@@A+84
  00487	ff b0 04 08 00
	00		 push	 DWORD PTR [eax+2052]
  0048d	ff 75 08	 push	 DWORD PTR _strChartName$[ebp]
  00490	ff d6		 call	 esi
  00492	83 c4 08	 add	 esp, 8
  00495	85 c0		 test	 eax, eax
  00497	75 69		 jne	 SHORT $LN13@ChangeChar
  00499	51		 push	 ecx
  0049a	8d 45 10	 lea	 eax, DWORD PTR _strPackets$35[ebp]
  0049d	89 65 ac	 mov	 DWORD PTR $T7[ebp], esp
  004a0	8b cc		 mov	 ecx, esp
  004a2	50		 push	 eax
  004a3	ff 15 00 00 00
	00		 call	 DWORD PTR __imp_??0?$CStringT@DV?$StrTraitMFC_DLL@DV?$ChTraitsCRT@D@ATL@@@@@ATL@@QAE@ABV01@@Z
  004a9	a1 54 00 00 00	 mov	 eax, DWORD PTR ?g_iMetaTable@@3VIMetaTable@@A+84
  004ae	51		 push	 ecx
  004af	8b cc		 mov	 ecx, esp
  004b1	89 65 b0	 mov	 DWORD PTR $T14[ebp], esp
  004b4	c6 45 fc 17	 mov	 BYTE PTR __$EHRec$[ebp+8], 23 ; 00000017H
  004b8	ff b0 04 08 00
	00		 push	 DWORD PTR [eax+2052]
  004be	ff 15 00 00 00
	00		 call	 DWORD PTR __imp_??0?$CStringT@DV?$StrTraitMFC_DLL@DV?$ChTraitsCRT@D@ATL@@@@@ATL@@QAE@PBD@Z
  004c4	a1 54 00 00 00	 mov	 eax, DWORD PTR ?g_iMetaTable@@3VIMetaTable@@A+84
  004c9	51		 push	 ecx
  004ca	8b cc		 mov	 ecx, esp
  004cc	89 65 e4	 mov	 DWORD PTR $T31[ebp], esp
  004cf	c6 45 fc 18	 mov	 BYTE PTR __$EHRec$[ebp+8], 24 ; 00000018H
  004d3	ff b0 dc 07 00
	00		 push	 DWORD PTR [eax+2012]
  004d9	ff 15 00 00 00
	00		 call	 DWORD PTR __imp_??0?$CStringT@DV?$StrTraitMFC_DLL@DV?$ChTraitsCRT@D@ATL@@@@@ATL@@QAE@PBD@Z
  004df	51		 push	 ecx
  004e0	8d 45 f0	 lea	 eax, DWORD PTR _strGraphName$[ebp]
  004e3	c6 45 fc 19	 mov	 BYTE PTR __$EHRec$[ebp+8], 25 ; 00000019H
  004e7	8b cc		 mov	 ecx, esp
  004e9	50		 push	 eax
  004ea	ff 15 00 00 00
	00		 call	 DWORD PTR __imp_??0?$CStringT@DV?$StrTraitMFC_DLL@DV?$ChTraitsCRT@D@ATL@@@@@ATL@@QAE@ABV01@@Z
  004f0	8b 4d ec	 mov	 ecx, DWORD PTR _this$1$[ebp]
  004f3	c6 45 fc 10	 mov	 BYTE PTR __$EHRec$[ebp+8], 16 ; 00000010H
  004f7	e8 00 00 00 00	 call	 ?ChangeChartType@CKTBChartCtrl@@AAE_NV?$CStringT@DV?$StrTraitMFC_DLL@DV?$ChTraitsCRT@D@ATL@@@@@ATL@@000@Z ; CKTBChartCtrl::ChangeChartType
  004fc	0f b6 c0	 movzx	 eax, al
  004ff	89 45 e8	 mov	 DWORD PTR _bResult$1$[ebp], eax
$LN13@ChangeChar:

; 878  : 		if( !stricmp( strChartName, _MTEXT( C5_ANTENNA_CHART)))						bResult = ChangeChartType( strGraphName, _MTEXT( C5_CANDLE_TYPE), _MTEXT( C5_ANTENNA_CHART),					strPackets);

  00502	a1 54 00 00 00	 mov	 eax, DWORD PTR ?g_iMetaTable@@3VIMetaTable@@A+84
  00507	ff b0 08 08 00
	00		 push	 DWORD PTR [eax+2056]
  0050d	ff 75 08	 push	 DWORD PTR _strChartName$[ebp]
  00510	ff d6		 call	 esi
  00512	83 c4 08	 add	 esp, 8
  00515	85 c0		 test	 eax, eax
  00517	75 69		 jne	 SHORT $LN14@ChangeChar
  00519	51		 push	 ecx
  0051a	8d 45 10	 lea	 eax, DWORD PTR _strPackets$35[ebp]
  0051d	89 65 ac	 mov	 DWORD PTR $T6[ebp], esp
  00520	8b cc		 mov	 ecx, esp
  00522	50		 push	 eax
  00523	ff 15 00 00 00
	00		 call	 DWORD PTR __imp_??0?$CStringT@DV?$StrTraitMFC_DLL@DV?$ChTraitsCRT@D@ATL@@@@@ATL@@QAE@ABV01@@Z
  00529	a1 54 00 00 00	 mov	 eax, DWORD PTR ?g_iMetaTable@@3VIMetaTable@@A+84
  0052e	51		 push	 ecx
  0052f	8b cc		 mov	 ecx, esp
  00531	89 65 b0	 mov	 DWORD PTR $T13[ebp], esp
  00534	c6 45 fc 1a	 mov	 BYTE PTR __$EHRec$[ebp+8], 26 ; 0000001aH
  00538	ff b0 08 08 00
	00		 push	 DWORD PTR [eax+2056]
  0053e	ff 15 00 00 00
	00		 call	 DWORD PTR __imp_??0?$CStringT@DV?$StrTraitMFC_DLL@DV?$ChTraitsCRT@D@ATL@@@@@ATL@@QAE@PBD@Z
  00544	a1 54 00 00 00	 mov	 eax, DWORD PTR ?g_iMetaTable@@3VIMetaTable@@A+84
  00549	51		 push	 ecx
  0054a	8b cc		 mov	 ecx, esp
  0054c	89 65 e4	 mov	 DWORD PTR $T30[ebp], esp
  0054f	c6 45 fc 1b	 mov	 BYTE PTR __$EHRec$[ebp+8], 27 ; 0000001bH
  00553	ff b0 dc 07 00
	00		 push	 DWORD PTR [eax+2012]
  00559	ff 15 00 00 00
	00		 call	 DWORD PTR __imp_??0?$CStringT@DV?$StrTraitMFC_DLL@DV?$ChTraitsCRT@D@ATL@@@@@ATL@@QAE@PBD@Z
  0055f	51		 push	 ecx
  00560	8d 45 f0	 lea	 eax, DWORD PTR _strGraphName$[ebp]
  00563	c6 45 fc 1c	 mov	 BYTE PTR __$EHRec$[ebp+8], 28 ; 0000001cH
  00567	8b cc		 mov	 ecx, esp
  00569	50		 push	 eax
  0056a	ff 15 00 00 00
	00		 call	 DWORD PTR __imp_??0?$CStringT@DV?$StrTraitMFC_DLL@DV?$ChTraitsCRT@D@ATL@@@@@ATL@@QAE@ABV01@@Z
  00570	8b 4d ec	 mov	 ecx, DWORD PTR _this$1$[ebp]
  00573	c6 45 fc 10	 mov	 BYTE PTR __$EHRec$[ebp+8], 16 ; 00000010H
  00577	e8 00 00 00 00	 call	 ?ChangeChartType@CKTBChartCtrl@@AAE_NV?$CStringT@DV?$StrTraitMFC_DLL@DV?$ChTraitsCRT@D@ATL@@@@@ATL@@000@Z ; CKTBChartCtrl::ChangeChartType
  0057c	0f b6 c0	 movzx	 eax, al
  0057f	89 45 e8	 mov	 DWORD PTR _bResult$1$[ebp], eax
$LN14@ChangeChar:

; 879  : 		if( !stricmp( strChartName, _MTEXT( C5_BAR_CHART_HIGH_LOW_CLOSE)))			bResult = ChangeChartType( strGraphName, _MTEXT( C5_CANDLE_TYPE), _MTEXT( C5_BAR_CHART_HIGH_LOW_CLOSE),		strPackets);

  00582	a1 54 00 00 00	 mov	 eax, DWORD PTR ?g_iMetaTable@@3VIMetaTable@@A+84
  00587	ff b0 10 08 00
	00		 push	 DWORD PTR [eax+2064]
  0058d	ff 75 08	 push	 DWORD PTR _strChartName$[ebp]
  00590	ff d6		 call	 esi
  00592	83 c4 08	 add	 esp, 8
  00595	85 c0		 test	 eax, eax
  00597	75 69		 jne	 SHORT $LN15@ChangeChar
  00599	51		 push	 ecx
  0059a	8d 45 10	 lea	 eax, DWORD PTR _strPackets$35[ebp]
  0059d	89 65 ac	 mov	 DWORD PTR $T5[ebp], esp
  005a0	8b cc		 mov	 ecx, esp
  005a2	50		 push	 eax
  005a3	ff 15 00 00 00
	00		 call	 DWORD PTR __imp_??0?$CStringT@DV?$StrTraitMFC_DLL@DV?$ChTraitsCRT@D@ATL@@@@@ATL@@QAE@ABV01@@Z
  005a9	a1 54 00 00 00	 mov	 eax, DWORD PTR ?g_iMetaTable@@3VIMetaTable@@A+84
  005ae	51		 push	 ecx
  005af	8b cc		 mov	 ecx, esp
  005b1	89 65 b0	 mov	 DWORD PTR $T12[ebp], esp
  005b4	c6 45 fc 1d	 mov	 BYTE PTR __$EHRec$[ebp+8], 29 ; 0000001dH
  005b8	ff b0 10 08 00
	00		 push	 DWORD PTR [eax+2064]
  005be	ff 15 00 00 00
	00		 call	 DWORD PTR __imp_??0?$CStringT@DV?$StrTraitMFC_DLL@DV?$ChTraitsCRT@D@ATL@@@@@ATL@@QAE@PBD@Z
  005c4	a1 54 00 00 00	 mov	 eax, DWORD PTR ?g_iMetaTable@@3VIMetaTable@@A+84
  005c9	51		 push	 ecx
  005ca	8b cc		 mov	 ecx, esp
  005cc	89 65 e4	 mov	 DWORD PTR $T29[ebp], esp
  005cf	c6 45 fc 1e	 mov	 BYTE PTR __$EHRec$[ebp+8], 30 ; 0000001eH
  005d3	ff b0 dc 07 00
	00		 push	 DWORD PTR [eax+2012]
  005d9	ff 15 00 00 00
	00		 call	 DWORD PTR __imp_??0?$CStringT@DV?$StrTraitMFC_DLL@DV?$ChTraitsCRT@D@ATL@@@@@ATL@@QAE@PBD@Z
  005df	51		 push	 ecx
  005e0	8d 45 f0	 lea	 eax, DWORD PTR _strGraphName$[ebp]
  005e3	c6 45 fc 1f	 mov	 BYTE PTR __$EHRec$[ebp+8], 31 ; 0000001fH
  005e7	8b cc		 mov	 ecx, esp
  005e9	50		 push	 eax
  005ea	ff 15 00 00 00
	00		 call	 DWORD PTR __imp_??0?$CStringT@DV?$StrTraitMFC_DLL@DV?$ChTraitsCRT@D@ATL@@@@@ATL@@QAE@ABV01@@Z
  005f0	8b 4d ec	 mov	 ecx, DWORD PTR _this$1$[ebp]
  005f3	c6 45 fc 10	 mov	 BYTE PTR __$EHRec$[ebp+8], 16 ; 00000010H
  005f7	e8 00 00 00 00	 call	 ?ChangeChartType@CKTBChartCtrl@@AAE_NV?$CStringT@DV?$StrTraitMFC_DLL@DV?$ChTraitsCRT@D@ATL@@@@@ATL@@000@Z ; CKTBChartCtrl::ChangeChartType
  005fc	0f b6 c0	 movzx	 eax, al
  005ff	89 45 e8	 mov	 DWORD PTR _bResult$1$[ebp], eax
$LN15@ChangeChar:

; 880  : 		if( !stricmp( strChartName, _MTEXT( C5_FLOW_CHART)))						bResult = ChangeChartType( strGraphName, _MTEXT( C5_CANDLE_TYPE), _MTEXT( C5_FLOW_CHART),						strPackets);

  00602	a1 54 00 00 00	 mov	 eax, DWORD PTR ?g_iMetaTable@@3VIMetaTable@@A+84
  00607	ff b0 14 08 00
	00		 push	 DWORD PTR [eax+2068]
  0060d	ff 75 08	 push	 DWORD PTR _strChartName$[ebp]
  00610	ff d6		 call	 esi
  00612	83 c4 08	 add	 esp, 8
  00615	85 c0		 test	 eax, eax
  00617	75 69		 jne	 SHORT $LN16@ChangeChar
  00619	51		 push	 ecx
  0061a	8d 45 10	 lea	 eax, DWORD PTR _strPackets$35[ebp]
  0061d	89 65 ac	 mov	 DWORD PTR $T4[ebp], esp
  00620	8b cc		 mov	 ecx, esp
  00622	50		 push	 eax
  00623	ff 15 00 00 00
	00		 call	 DWORD PTR __imp_??0?$CStringT@DV?$StrTraitMFC_DLL@DV?$ChTraitsCRT@D@ATL@@@@@ATL@@QAE@ABV01@@Z
  00629	a1 54 00 00 00	 mov	 eax, DWORD PTR ?g_iMetaTable@@3VIMetaTable@@A+84
  0062e	51		 push	 ecx
  0062f	8b cc		 mov	 ecx, esp
  00631	89 65 b0	 mov	 DWORD PTR $T11[ebp], esp
  00634	c6 45 fc 20	 mov	 BYTE PTR __$EHRec$[ebp+8], 32 ; 00000020H
  00638	ff b0 14 08 00
	00		 push	 DWORD PTR [eax+2068]
  0063e	ff 15 00 00 00
	00		 call	 DWORD PTR __imp_??0?$CStringT@DV?$StrTraitMFC_DLL@DV?$ChTraitsCRT@D@ATL@@@@@ATL@@QAE@PBD@Z
  00644	a1 54 00 00 00	 mov	 eax, DWORD PTR ?g_iMetaTable@@3VIMetaTable@@A+84
  00649	51		 push	 ecx
  0064a	8b cc		 mov	 ecx, esp
  0064c	89 65 e4	 mov	 DWORD PTR $T28[ebp], esp
  0064f	c6 45 fc 21	 mov	 BYTE PTR __$EHRec$[ebp+8], 33 ; 00000021H
  00653	ff b0 dc 07 00
	00		 push	 DWORD PTR [eax+2012]
  00659	ff 15 00 00 00
	00		 call	 DWORD PTR __imp_??0?$CStringT@DV?$StrTraitMFC_DLL@DV?$ChTraitsCRT@D@ATL@@@@@ATL@@QAE@PBD@Z
  0065f	51		 push	 ecx
  00660	8d 45 f0	 lea	 eax, DWORD PTR _strGraphName$[ebp]
  00663	c6 45 fc 22	 mov	 BYTE PTR __$EHRec$[ebp+8], 34 ; 00000022H
  00667	8b cc		 mov	 ecx, esp
  00669	50		 push	 eax
  0066a	ff 15 00 00 00
	00		 call	 DWORD PTR __imp_??0?$CStringT@DV?$StrTraitMFC_DLL@DV?$ChTraitsCRT@D@ATL@@@@@ATL@@QAE@ABV01@@Z
  00670	8b 4d ec	 mov	 ecx, DWORD PTR _this$1$[ebp]
  00673	c6 45 fc 10	 mov	 BYTE PTR __$EHRec$[ebp+8], 16 ; 00000010H
  00677	e8 00 00 00 00	 call	 ?ChangeChartType@CKTBChartCtrl@@AAE_NV?$CStringT@DV?$StrTraitMFC_DLL@DV?$ChTraitsCRT@D@ATL@@@@@ATL@@000@Z ; CKTBChartCtrl::ChangeChartType
  0067c	0f b6 c0	 movzx	 eax, al
  0067f	89 45 e8	 mov	 DWORD PTR _bResult$1$[ebp], eax
$LN16@ChangeChar:

; 881  : 		if( !stricmp( strChartName, _MTEXT( C5_CANDLE_VOLUME_CHART)))				bResult = ChangeChartType( strGraphName, _MTEXT( C5_CANDLE_TYPE), _MTEXT( C5_CANDLE_VOLUME_CHART),				strPackets);

  00682	a1 54 00 00 00	 mov	 eax, DWORD PTR ?g_iMetaTable@@3VIMetaTable@@A+84
  00687	ff b0 18 08 00
	00		 push	 DWORD PTR [eax+2072]
  0068d	ff 75 08	 push	 DWORD PTR _strChartName$[ebp]
  00690	ff d6		 call	 esi
  00692	83 c4 08	 add	 esp, 8
  00695	85 c0		 test	 eax, eax
  00697	75 69		 jne	 SHORT $LN17@ChangeChar
  00699	51		 push	 ecx
  0069a	8d 45 10	 lea	 eax, DWORD PTR _strPackets$35[ebp]
  0069d	89 65 ac	 mov	 DWORD PTR $T3[ebp], esp
  006a0	8b cc		 mov	 ecx, esp
  006a2	50		 push	 eax
  006a3	ff 15 00 00 00
	00		 call	 DWORD PTR __imp_??0?$CStringT@DV?$StrTraitMFC_DLL@DV?$ChTraitsCRT@D@ATL@@@@@ATL@@QAE@ABV01@@Z
  006a9	a1 54 00 00 00	 mov	 eax, DWORD PTR ?g_iMetaTable@@3VIMetaTable@@A+84
  006ae	51		 push	 ecx
  006af	8b cc		 mov	 ecx, esp
  006b1	89 65 b0	 mov	 DWORD PTR $T10[ebp], esp
  006b4	c6 45 fc 23	 mov	 BYTE PTR __$EHRec$[ebp+8], 35 ; 00000023H
  006b8	ff b0 18 08 00
	00		 push	 DWORD PTR [eax+2072]
  006be	ff 15 00 00 00
	00		 call	 DWORD PTR __imp_??0?$CStringT@DV?$StrTraitMFC_DLL@DV?$ChTraitsCRT@D@ATL@@@@@ATL@@QAE@PBD@Z
  006c4	a1 54 00 00 00	 mov	 eax, DWORD PTR ?g_iMetaTable@@3VIMetaTable@@A+84
  006c9	51		 push	 ecx
  006ca	8b cc		 mov	 ecx, esp
  006cc	89 65 e4	 mov	 DWORD PTR $T27[ebp], esp
  006cf	c6 45 fc 24	 mov	 BYTE PTR __$EHRec$[ebp+8], 36 ; 00000024H
  006d3	ff b0 dc 07 00
	00		 push	 DWORD PTR [eax+2012]
  006d9	ff 15 00 00 00
	00		 call	 DWORD PTR __imp_??0?$CStringT@DV?$StrTraitMFC_DLL@DV?$ChTraitsCRT@D@ATL@@@@@ATL@@QAE@PBD@Z
  006df	51		 push	 ecx
  006e0	8d 45 f0	 lea	 eax, DWORD PTR _strGraphName$[ebp]
  006e3	c6 45 fc 25	 mov	 BYTE PTR __$EHRec$[ebp+8], 37 ; 00000025H
  006e7	8b cc		 mov	 ecx, esp
  006e9	50		 push	 eax
  006ea	ff 15 00 00 00
	00		 call	 DWORD PTR __imp_??0?$CStringT@DV?$StrTraitMFC_DLL@DV?$ChTraitsCRT@D@ATL@@@@@ATL@@QAE@ABV01@@Z
  006f0	8b 4d ec	 mov	 ecx, DWORD PTR _this$1$[ebp]
  006f3	c6 45 fc 10	 mov	 BYTE PTR __$EHRec$[ebp+8], 16 ; 00000010H
  006f7	e8 00 00 00 00	 call	 ?ChangeChartType@CKTBChartCtrl@@AAE_NV?$CStringT@DV?$StrTraitMFC_DLL@DV?$ChTraitsCRT@D@ATL@@@@@ATL@@000@Z ; CKTBChartCtrl::ChangeChartType
  006fc	0f b6 c0	 movzx	 eax, al
  006ff	89 45 e8	 mov	 DWORD PTR _bResult$1$[ebp], eax
$LN17@ChangeChar:

; 882  : 		if( !stricmp( strChartName, _MTEXT( C5_EQUI_VOLUME_CHART)))					bResult = ChangeChartType( strGraphName, _MTEXT( C5_CANDLE_TYPE), _MTEXT( C5_EQUI_VOLUME_CHART),				strPackets);

  00702	a1 54 00 00 00	 mov	 eax, DWORD PTR ?g_iMetaTable@@3VIMetaTable@@A+84
  00707	ff b0 1c 08 00
	00		 push	 DWORD PTR [eax+2076]
  0070d	ff 75 08	 push	 DWORD PTR _strChartName$[ebp]
  00710	ff d6		 call	 esi
  00712	83 c4 08	 add	 esp, 8
  00715	85 c0		 test	 eax, eax
  00717	75 6a		 jne	 SHORT $LN196@ChangeChar
  00719	51		 push	 ecx
  0071a	8d 45 10	 lea	 eax, DWORD PTR _strPackets$35[ebp]
  0071d	89 65 ac	 mov	 DWORD PTR $T2[ebp], esp
  00720	8b cc		 mov	 ecx, esp
  00722	50		 push	 eax
  00723	ff 15 00 00 00
	00		 call	 DWORD PTR __imp_??0?$CStringT@DV?$StrTraitMFC_DLL@DV?$ChTraitsCRT@D@ATL@@@@@ATL@@QAE@ABV01@@Z
  00729	a1 54 00 00 00	 mov	 eax, DWORD PTR ?g_iMetaTable@@3VIMetaTable@@A+84
  0072e	51		 push	 ecx
  0072f	8b cc		 mov	 ecx, esp
  00731	89 65 b0	 mov	 DWORD PTR $T9[ebp], esp
  00734	c6 45 fc 26	 mov	 BYTE PTR __$EHRec$[ebp+8], 38 ; 00000026H
  00738	ff b0 1c 08 00
	00		 push	 DWORD PTR [eax+2076]
  0073e	ff 15 00 00 00
	00		 call	 DWORD PTR __imp_??0?$CStringT@DV?$StrTraitMFC_DLL@DV?$ChTraitsCRT@D@ATL@@@@@ATL@@QAE@PBD@Z
  00744	a1 54 00 00 00	 mov	 eax, DWORD PTR ?g_iMetaTable@@3VIMetaTable@@A+84
  00749	51		 push	 ecx
  0074a	8b cc		 mov	 ecx, esp
  0074c	89 65 e4	 mov	 DWORD PTR $T26[ebp], esp
  0074f	c6 45 fc 27	 mov	 BYTE PTR __$EHRec$[ebp+8], 39 ; 00000027H
  00753	ff b0 dc 07 00
	00		 push	 DWORD PTR [eax+2012]
  00759	ff 15 00 00 00
	00		 call	 DWORD PTR __imp_??0?$CStringT@DV?$StrTraitMFC_DLL@DV?$ChTraitsCRT@D@ATL@@@@@ATL@@QAE@PBD@Z
  0075f	51		 push	 ecx
  00760	8d 45 f0	 lea	 eax, DWORD PTR _strGraphName$[ebp]
  00763	c6 45 fc 28	 mov	 BYTE PTR __$EHRec$[ebp+8], 40 ; 00000028H
  00767	8b cc		 mov	 ecx, esp
  00769	50		 push	 eax
  0076a	ff 15 00 00 00
	00		 call	 DWORD PTR __imp_??0?$CStringT@DV?$StrTraitMFC_DLL@DV?$ChTraitsCRT@D@ATL@@@@@ATL@@QAE@ABV01@@Z
  00770	8b 75 ec	 mov	 esi, DWORD PTR _this$1$[ebp]
  00773	8b ce		 mov	 ecx, esi
  00775	c6 45 fc 10	 mov	 BYTE PTR __$EHRec$[ebp+8], 16 ; 00000010H
  00779	e8 00 00 00 00	 call	 ?ChangeChartType@CKTBChartCtrl@@AAE_NV?$CStringT@DV?$StrTraitMFC_DLL@DV?$ChTraitsCRT@D@ATL@@@@@ATL@@000@Z ; CKTBChartCtrl::ChangeChartType
  0077e	0f b6 c0	 movzx	 eax, al
  00781	eb 06		 jmp	 SHORT $LN18@ChangeChar
$LN196@ChangeChar:
  00783	8b 75 ec	 mov	 esi, DWORD PTR _this$1$[ebp]
  00786	8b 45 e8	 mov	 eax, DWORD PTR _bResult$1$[ebp]
$LN18@ChangeChar:

; 883  : 
; 884  : 		bAllResult = bAllResult && bResult;

  00789	83 7d e0 00	 cmp	 DWORD PTR $T24[ebp], 0
  0078d	74 0b		 je	 SHORT $LN20@ChangeChar
  0078f	c7 45 e0 01 00
	00 00		 mov	 DWORD PTR $T24[ebp], 1
  00796	85 c0		 test	 eax, eax
  00798	75 07		 jne	 SHORT $LN21@ChangeChar
$LN20@ChangeChar:
  0079a	c7 45 e0 00 00
	00 00		 mov	 DWORD PTR $T24[ebp], 0
$LN21@ChangeChar:

; 885  : 	}

  007a1	8d 4d 10	 lea	 ecx, DWORD PTR _strPackets$35[ebp]
  007a4	ff 15 00 00 00
	00		 call	 DWORD PTR __imp_??1?$CStringT@DV?$StrTraitMFC_DLL@DV?$ChTraitsCRT@D@ATL@@@@@ATL@@QAE@XZ
$LN199@ChangeChar:

; 863  : 	while( psn)

  007aa	8d 4d c8	 lea	 ecx, DWORD PTR _strRQ$18[ebp]
  007ad	c6 45 fc 02	 mov	 BYTE PTR __$EHRec$[ebp+8], 2
  007b1	ff 15 00 00 00
	00		 call	 DWORD PTR __imp_??1?$CStringT@DV?$StrTraitMFC_DLL@DV?$ChTraitsCRT@D@ATL@@@@@ATL@@QAE@XZ
  007b7	85 db		 test	 ebx, ebx
  007b9	0f 85 91 f9 ff
	ff		 jne	 $LL2@ChangeChar
  007bf	8b 5d 94	 mov	 ebx, DWORD PTR _slRQs$[ebp+4]
$LN3@ChangeChar:
; File C:\Program Files (x86)\Microsoft Visual Studio\2019\Community\VC\Tools\MSVC\14.29.30133\atlmfc\include\afxtempl.h

; 878  : {

  007c2	c6 45 fc 29	 mov	 BYTE PTR __$EHRec$[ebp+8], 41 ; 00000029H
  007c6	c7 45 90 00 00
	00 00		 mov	 DWORD PTR _slRQs$[ebp], OFFSET ??_7?$CList@V?$CStringT@DV?$StrTraitMFC_DLL@DV?$ChTraitsCRT@D@ATL@@@@@ATL@@V12@@@6B@

; 867  : 	for (pNode = m_pNodeHead; pNode != NULL; pNode = pNode->pNext)

  007cd	85 db		 test	 ebx, ebx
  007cf	74 0f		 je	 SHORT $LN179@ChangeChar
$LL180@ChangeChar:

; 868  : 		pNode->data.~TYPE();

  007d1	8d 4b 08	 lea	 ecx, DWORD PTR [ebx+8]
  007d4	ff 15 00 00 00
	00		 call	 DWORD PTR __imp_??1?$CStringT@DV?$StrTraitMFC_DLL@DV?$ChTraitsCRT@D@ATL@@@@@ATL@@QAE@XZ

; 858  : }
; 859  : 
; 860  : template<class TYPE, class ARG_TYPE>
; 861  : void CList<TYPE, ARG_TYPE>::RemoveAll()
; 862  : {
; 863  : 	ASSERT_VALID(this);
; 864  : 
; 865  : 	// destroy elements
; 866  : 	CNode* pNode;
; 867  : 	for (pNode = m_pNodeHead; pNode != NULL; pNode = pNode->pNext)

  007da	8b 1b		 mov	 ebx, DWORD PTR [ebx]
  007dc	85 db		 test	 ebx, ebx
  007de	75 f1		 jne	 SHORT $LL180@ChangeChar
$LN179@ChangeChar:

; 869  : 
; 870  : 	m_nCount = 0;
; 871  : 	m_pNodeHead = m_pNodeTail = m_pNodeFree = NULL;
; 872  : 	m_pBlocks->FreeDataChain();

  007e0	8b 4d a4	 mov	 ecx, DWORD PTR _slRQs$[ebp+20]
  007e3	c7 45 9c 00 00
	00 00		 mov	 DWORD PTR _slRQs$[ebp+12], 0
  007ea	c7 45 a0 00 00
	00 00		 mov	 DWORD PTR _slRQs$[ebp+16], 0
  007f1	c7 45 98 00 00
	00 00		 mov	 DWORD PTR _slRQs$[ebp+8], 0
  007f8	c7 45 94 00 00
	00 00		 mov	 DWORD PTR _slRQs$[ebp+4], 0
  007ff	e8 00 00 00 00	 call	 ?FreeDataChain@CPlex@@QAEXXZ ; CPlex::FreeDataChain
; File D:\git\src\IBK\IBK_DRFN\ProjSrc\SrcChartEx\ChartOCX\KTBChart\KTBChartDLL.cpp

; 887  : 	return bAllResult;

  00804	8d 4d f0	 lea	 ecx, DWORD PTR _strGraphName$[ebp]
; File C:\Program Files (x86)\Microsoft Visual Studio\2019\Community\VC\Tools\MSVC\14.29.30133\atlmfc\include\afxtempl.h

; 873  : 	m_pBlocks = NULL;

  00807	c7 45 a4 00 00
	00 00		 mov	 DWORD PTR _slRQs$[ebp+20], 0
; File D:\git\src\IBK\IBK_DRFN\ProjSrc\SrcChartEx\ChartOCX\KTBChart\KTBChartDLL.cpp

; 887  : 	return bAllResult;

  0080e	ff 15 00 00 00
	00		 call	 DWORD PTR __imp_??1?$CStringT@DV?$StrTraitMFC_DLL@DV?$ChTraitsCRT@D@ATL@@@@@ATL@@QAE@XZ
  00814	8d 4d 08	 lea	 ecx, DWORD PTR _strChartName$[ebp]
  00817	ff 15 00 00 00
	00		 call	 DWORD PTR __imp_??1?$CStringT@DV?$StrTraitMFC_DLL@DV?$ChTraitsCRT@D@ATL@@@@@ATL@@QAE@XZ
  0081d	8b 45 e0	 mov	 eax, DWORD PTR $T24[ebp]

; 888  : }

  00820	8b 4d f4	 mov	 ecx, DWORD PTR __$EHRec$[ebp]
  00823	64 89 0d 00 00
	00 00		 mov	 DWORD PTR fs:0, ecx
  0082a	59		 pop	 ecx
  0082b	5f		 pop	 edi
  0082c	5e		 pop	 esi
  0082d	5b		 pop	 ebx
  0082e	8b e5		 mov	 esp, ebp
  00830	5d		 pop	 ebp
  00831	c2 0c 00	 ret	 12			; 0000000cH
$LN5@ChangeChar:

; 843  : 	if(m_pIndicatorList == NULL || m_pMainBlock == NULL) return FALSE;

  00834	33 c0		 xor	 eax, eax

; 888  : }

  00836	8b 4d f4	 mov	 ecx, DWORD PTR __$EHRec$[ebp]
  00839	64 89 0d 00 00
	00 00		 mov	 DWORD PTR fs:0, ecx
  00840	59		 pop	 ecx
  00841	5f		 pop	 edi
  00842	5e		 pop	 esi
  00843	5b		 pop	 ebx
  00844	8b e5		 mov	 esp, ebp
  00846	5d		 pop	 ebp
  00847	c2 0c 00	 ret	 12			; 0000000cH
_TEXT	ENDS
;	COMDAT text$x
text$x	SEGMENT
__unwindfunclet$?ChangeChart_PriceChartStyle@CKTBChartCtrl@@AAEHABV?$CStringT@DV?$StrTraitMFC_DLL@DV?$ChTraitsCRT@D@ATL@@@@@ATL@@AAV23@H@Z$0:
  00000	8d 4d 08	 lea	 ecx, DWORD PTR _strChartName$[ebp]
  00003	ff 25 00 00 00
	00		 jmp	 DWORD PTR __imp_??1?$CStringT@DV?$StrTraitMFC_DLL@DV?$ChTraitsCRT@D@ATL@@@@@ATL@@QAE@XZ
__unwindfunclet$?ChangeChart_PriceChartStyle@CKTBChartCtrl@@AAEHABV?$CStringT@DV?$StrTraitMFC_DLL@DV?$ChTraitsCRT@D@ATL@@@@@ATL@@AAV23@H@Z$1:
  00009	8d 4d f0	 lea	 ecx, DWORD PTR _strGraphName$[ebp]
  0000c	ff 25 00 00 00
	00		 jmp	 DWORD PTR __imp_??1?$CStringT@DV?$StrTraitMFC_DLL@DV?$ChTraitsCRT@D@ATL@@@@@ATL@@QAE@XZ
__unwindfunclet$?ChangeChart_PriceChartStyle@CKTBChartCtrl@@AAEHABV?$CStringT@DV?$StrTraitMFC_DLL@DV?$ChTraitsCRT@D@ATL@@@@@ATL@@AAV23@H@Z$2:
  00012	8d 4d 90	 lea	 ecx, DWORD PTR _slRQs$[ebp]
  00015	e9 00 00 00 00	 jmp	 ??1?$CList@V?$CStringT@DV?$StrTraitMFC_DLL@DV?$ChTraitsCRT@D@ATL@@@@@ATL@@V12@@@UAE@XZ ; CList<ATL::CStringT<char,StrTraitMFC_DLL<char,ATL::ChTraitsCRT<char> > >,ATL::CStringT<char,StrTraitMFC_DLL<char,ATL::ChTraitsCRT<char> > > >::~CList<ATL::CStringT<char,StrTraitMFC_DLL<char,ATL::ChTraitsCRT<char> > >,ATL::CStringT<char,StrTraitMFC_DLL<char,ATL::ChTraitsCRT<char> > > >
__unwindfunclet$?ChangeChart_PriceChartStyle@CKTBChartCtrl@@AAEHABV?$CStringT@DV?$StrTraitMFC_DLL@DV?$ChTraitsCRT@D@ATL@@@@@ATL@@AAV23@H@Z$5:
  0001a	8d 4d c8	 lea	 ecx, DWORD PTR _strRQ$18[ebp]
  0001d	ff 25 00 00 00
	00		 jmp	 DWORD PTR __imp_??1?$CStringT@DV?$StrTraitMFC_DLL@DV?$ChTraitsCRT@D@ATL@@@@@ATL@@QAE@XZ
__unwindfunclet$?ChangeChart_PriceChartStyle@CKTBChartCtrl@@AAEHABV?$CStringT@DV?$StrTraitMFC_DLL@DV?$ChTraitsCRT@D@ATL@@@@@ATL@@AAV23@H@Z$6:
  00023	8d 4d b4	 lea	 ecx, DWORD PTR $T17[ebp]
  00026	ff 25 00 00 00
	00		 jmp	 DWORD PTR __imp_??1?$CStringT@DV?$StrTraitMFC_DLL@DV?$ChTraitsCRT@D@ATL@@@@@ATL@@QAE@XZ
__unwindfunclet$?ChangeChart_PriceChartStyle@CKTBChartCtrl@@AAEHABV?$CStringT@DV?$StrTraitMFC_DLL@DV?$ChTraitsCRT@D@ATL@@@@@ATL@@AAV23@H@Z$45:
  0002c	8b 45 e4	 mov	 eax, DWORD PTR $T25[ebp]
  0002f	83 e0 01	 and	 eax, 1
  00032	0f 84 0d 00 00
	00		 je	 $LN81@ChangeChar
  00038	83 65 e4 fe	 and	 DWORD PTR $T25[ebp], -2	; fffffffeH
  0003c	8d 4d d0	 lea	 ecx, DWORD PTR $T20[ebp]
  0003f	ff 25 00 00 00
	00		 jmp	 DWORD PTR __imp_??1?$CStringT@DV?$StrTraitMFC_DLL@DV?$ChTraitsCRT@D@ATL@@@@@ATL@@QAE@XZ
$LN81@ChangeChar:
  00045	c3		 ret	 0
__unwindfunclet$?ChangeChart_PriceChartStyle@CKTBChartCtrl@@AAEHABV?$CStringT@DV?$StrTraitMFC_DLL@DV?$ChTraitsCRT@D@ATL@@@@@ATL@@AAV23@H@Z$46:
  00046	8b 45 e4	 mov	 eax, DWORD PTR $T25[ebp]
  00049	83 e0 02	 and	 eax, 2
  0004c	0f 84 0d 00 00
	00		 je	 $LN94@ChangeChar
  00052	83 65 e4 fd	 and	 DWORD PTR $T25[ebp], -3	; fffffffdH
  00056	8d 4d d4	 lea	 ecx, DWORD PTR $T21[ebp]
  00059	ff 25 00 00 00
	00		 jmp	 DWORD PTR __imp_??1?$CStringT@DV?$StrTraitMFC_DLL@DV?$ChTraitsCRT@D@ATL@@@@@ATL@@QAE@XZ
$LN94@ChangeChar:
  0005f	c3		 ret	 0
__unwindfunclet$?ChangeChart_PriceChartStyle@CKTBChartCtrl@@AAEHABV?$CStringT@DV?$StrTraitMFC_DLL@DV?$ChTraitsCRT@D@ATL@@@@@ATL@@AAV23@H@Z$47:
  00060	8b 45 e4	 mov	 eax, DWORD PTR $T25[ebp]
  00063	83 e0 04	 and	 eax, 4
  00066	0f 84 0d 00 00
	00		 je	 $LN107@ChangeChar
  0006c	83 65 e4 fb	 and	 DWORD PTR $T25[ebp], -5	; fffffffbH
  00070	8d 4d d8	 lea	 ecx, DWORD PTR $T22[ebp]
  00073	ff 25 00 00 00
	00		 jmp	 DWORD PTR __imp_??1?$CStringT@DV?$StrTraitMFC_DLL@DV?$ChTraitsCRT@D@ATL@@@@@ATL@@QAE@XZ
$LN107@ChangeChar:
  00079	c3		 ret	 0
__unwindfunclet$?ChangeChart_PriceChartStyle@CKTBChartCtrl@@AAEHABV?$CStringT@DV?$StrTraitMFC_DLL@DV?$ChTraitsCRT@D@ATL@@@@@ATL@@AAV23@H@Z$48:
  0007a	8b 45 e4	 mov	 eax, DWORD PTR $T25[ebp]
  0007d	83 e0 08	 and	 eax, 8
  00080	0f 84 0d 00 00
	00		 je	 $LN120@ChangeChar
  00086	83 65 e4 f7	 and	 DWORD PTR $T25[ebp], -9	; fffffff7H
  0008a	8d 4d dc	 lea	 ecx, DWORD PTR $T23[ebp]
  0008d	ff 25 00 00 00
	00		 jmp	 DWORD PTR __imp_??1?$CStringT@DV?$StrTraitMFC_DLL@DV?$ChTraitsCRT@D@ATL@@@@@ATL@@QAE@XZ
$LN120@ChangeChar:
  00093	c3		 ret	 0
__unwindfunclet$?ChangeChart_PriceChartStyle@CKTBChartCtrl@@AAEHABV?$CStringT@DV?$StrTraitMFC_DLL@DV?$ChTraitsCRT@D@ATL@@@@@ATL@@AAV23@H@Z$49:
  00094	8b 45 e4	 mov	 eax, DWORD PTR $T25[ebp]
  00097	83 e0 10	 and	 eax, 16			; 00000010H
  0009a	0f 84 0d 00 00
	00		 je	 $LN133@ChangeChar
  000a0	83 65 e4 ef	 and	 DWORD PTR $T25[ebp], -17 ; ffffffefH
  000a4	8d 4d cc	 lea	 ecx, DWORD PTR $T19[ebp]
  000a7	ff 25 00 00 00
	00		 jmp	 DWORD PTR __imp_??1?$CStringT@DV?$StrTraitMFC_DLL@DV?$ChTraitsCRT@D@ATL@@@@@ATL@@QAE@XZ
$LN133@ChangeChar:
  000ad	c3		 ret	 0
__unwindfunclet$?ChangeChart_PriceChartStyle@CKTBChartCtrl@@AAEHABV?$CStringT@DV?$StrTraitMFC_DLL@DV?$ChTraitsCRT@D@ATL@@@@@ATL@@AAV23@H@Z$12:
  000ae	8d 4d 10	 lea	 ecx, DWORD PTR _strPackets$35[ebp]
  000b1	ff 25 00 00 00
	00		 jmp	 DWORD PTR __imp_??1?$CStringT@DV?$StrTraitMFC_DLL@DV?$ChTraitsCRT@D@ATL@@@@@ATL@@QAE@XZ
__unwindfunclet$?ChangeChart_PriceChartStyle@CKTBChartCtrl@@AAEHABV?$CStringT@DV?$StrTraitMFC_DLL@DV?$ChTraitsCRT@D@ATL@@@@@ATL@@AAV23@H@Z$13:
  000b7	8b 4d e4	 mov	 ecx, DWORD PTR $T33[ebp]
  000ba	ff 25 00 00 00
	00		 jmp	 DWORD PTR __imp_??1?$CStringT@DV?$StrTraitMFC_DLL@DV?$ChTraitsCRT@D@ATL@@@@@ATL@@QAE@XZ
__unwindfunclet$?ChangeChart_PriceChartStyle@CKTBChartCtrl@@AAEHABV?$CStringT@DV?$StrTraitMFC_DLL@DV?$ChTraitsCRT@D@ATL@@@@@ATL@@AAV23@H@Z$14:
  000c0	8b 4d e8	 mov	 ecx, DWORD PTR $T34[ebp]
  000c3	ff 25 00 00 00
	00		 jmp	 DWORD PTR __imp_??1?$CStringT@DV?$StrTraitMFC_DLL@DV?$ChTraitsCRT@D@ATL@@@@@ATL@@QAE@XZ
__unwindfunclet$?ChangeChart_PriceChartStyle@CKTBChartCtrl@@AAEHABV?$CStringT@DV?$StrTraitMFC_DLL@DV?$ChTraitsCRT@D@ATL@@@@@ATL@@AAV23@H@Z$15:
  000c9	8b 4d b0	 mov	 ecx, DWORD PTR $T16[ebp]
  000cc	ff 25 00 00 00
	00		 jmp	 DWORD PTR __imp_??1?$CStringT@DV?$StrTraitMFC_DLL@DV?$ChTraitsCRT@D@ATL@@@@@ATL@@QAE@XZ
__unwindfunclet$?ChangeChart_PriceChartStyle@CKTBChartCtrl@@AAEHABV?$CStringT@DV?$StrTraitMFC_DLL@DV?$ChTraitsCRT@D@ATL@@@@@ATL@@AAV23@H@Z$17:
  000d2	8b 4d ac	 mov	 ecx, DWORD PTR $T8[ebp]
  000d5	ff 25 00 00 00
	00		 jmp	 DWORD PTR __imp_??1?$CStringT@DV?$StrTraitMFC_DLL@DV?$ChTraitsCRT@D@ATL@@@@@ATL@@QAE@XZ
__unwindfunclet$?ChangeChart_PriceChartStyle@CKTBChartCtrl@@AAEHABV?$CStringT@DV?$StrTraitMFC_DLL@DV?$ChTraitsCRT@D@ATL@@@@@ATL@@AAV23@H@Z$18:
  000db	8b 4d b0	 mov	 ecx, DWORD PTR $T15[ebp]
  000de	ff 25 00 00 00
	00		 jmp	 DWORD PTR __imp_??1?$CStringT@DV?$StrTraitMFC_DLL@DV?$ChTraitsCRT@D@ATL@@@@@ATL@@QAE@XZ
__unwindfunclet$?ChangeChart_PriceChartStyle@CKTBChartCtrl@@AAEHABV?$CStringT@DV?$StrTraitMFC_DLL@DV?$ChTraitsCRT@D@ATL@@@@@ATL@@AAV23@H@Z$19:
  000e4	8b 4d e4	 mov	 ecx, DWORD PTR $T32[ebp]
  000e7	ff 25 00 00 00
	00		 jmp	 DWORD PTR __imp_??1?$CStringT@DV?$StrTraitMFC_DLL@DV?$ChTraitsCRT@D@ATL@@@@@ATL@@QAE@XZ
__unwindfunclet$?ChangeChart_PriceChartStyle@CKTBChartCtrl@@AAEHABV?$CStringT@DV?$StrTraitMFC_DLL@DV?$ChTraitsCRT@D@ATL@@@@@ATL@@AAV23@H@Z$21:
  000ed	8b 4d ac	 mov	 ecx, DWORD PTR $T7[ebp]
  000f0	ff 25 00 00 00
	00		 jmp	 DWORD PTR __imp_??1?$CStringT@DV?$StrTraitMFC_DLL@DV?$ChTraitsCRT@D@ATL@@@@@ATL@@QAE@XZ
__unwindfunclet$?ChangeChart_PriceChartStyle@CKTBChartCtrl@@AAEHABV?$CStringT@DV?$StrTraitMFC_DLL@DV?$ChTraitsCRT@D@ATL@@@@@ATL@@AAV23@H@Z$22:
  000f6	8b 4d b0	 mov	 ecx, DWORD PTR $T14[ebp]
  000f9	ff 25 00 00 00
	00		 jmp	 DWORD PTR __imp_??1?$CStringT@DV?$StrTraitMFC_DLL@DV?$ChTraitsCRT@D@ATL@@@@@ATL@@QAE@XZ
__unwindfunclet$?ChangeChart_PriceChartStyle@CKTBChartCtrl@@AAEHABV?$CStringT@DV?$StrTraitMFC_DLL@DV?$ChTraitsCRT@D@ATL@@@@@ATL@@AAV23@H@Z$23:
  000ff	8b 4d e4	 mov	 ecx, DWORD PTR $T31[ebp]
  00102	ff 25 00 00 00
	00		 jmp	 DWORD PTR __imp_??1?$CStringT@DV?$StrTraitMFC_DLL@DV?$ChTraitsCRT@D@ATL@@@@@ATL@@QAE@XZ
__unwindfunclet$?ChangeChart_PriceChartStyle@CKTBChartCtrl@@AAEHABV?$CStringT@DV?$StrTraitMFC_DLL@DV?$ChTraitsCRT@D@ATL@@@@@ATL@@AAV23@H@Z$25:
  00108	8b 4d ac	 mov	 ecx, DWORD PTR $T6[ebp]
  0010b	ff 25 00 00 00
	00		 jmp	 DWORD PTR __imp_??1?$CStringT@DV?$StrTraitMFC_DLL@DV?$ChTraitsCRT@D@ATL@@@@@ATL@@QAE@XZ
__unwindfunclet$?ChangeChart_PriceChartStyle@CKTBChartCtrl@@AAEHABV?$CStringT@DV?$StrTraitMFC_DLL@DV?$ChTraitsCRT@D@ATL@@@@@ATL@@AAV23@H@Z$26:
  00111	8b 4d b0	 mov	 ecx, DWORD PTR $T13[ebp]
  00114	ff 25 00 00 00
	00		 jmp	 DWORD PTR __imp_??1?$CStringT@DV?$StrTraitMFC_DLL@DV?$ChTraitsCRT@D@ATL@@@@@ATL@@QAE@XZ
__unwindfunclet$?ChangeChart_PriceChartStyle@CKTBChartCtrl@@AAEHABV?$CStringT@DV?$StrTraitMFC_DLL@DV?$ChTraitsCRT@D@ATL@@@@@ATL@@AAV23@H@Z$27:
  0011a	8b 4d e4	 mov	 ecx, DWORD PTR $T30[ebp]
  0011d	ff 25 00 00 00
	00		 jmp	 DWORD PTR __imp_??1?$CStringT@DV?$StrTraitMFC_DLL@DV?$ChTraitsCRT@D@ATL@@@@@ATL@@QAE@XZ
__unwindfunclet$?ChangeChart_PriceChartStyle@CKTBChartCtrl@@AAEHABV?$CStringT@DV?$StrTraitMFC_DLL@DV?$ChTraitsCRT@D@ATL@@@@@ATL@@AAV23@H@Z$29:
  00123	8b 4d ac	 mov	 ecx, DWORD PTR $T5[ebp]
  00126	ff 25 00 00 00
	00		 jmp	 DWORD PTR __imp_??1?$CStringT@DV?$StrTraitMFC_DLL@DV?$ChTraitsCRT@D@ATL@@@@@ATL@@QAE@XZ
__unwindfunclet$?ChangeChart_PriceChartStyle@CKTBChartCtrl@@AAEHABV?$CStringT@DV?$StrTraitMFC_DLL@DV?$ChTraitsCRT@D@ATL@@@@@ATL@@AAV23@H@Z$30:
  0012c	8b 4d b0	 mov	 ecx, DWORD PTR $T12[ebp]
  0012f	ff 25 00 00 00
	00		 jmp	 DWORD PTR __imp_??1?$CStringT@DV?$StrTraitMFC_DLL@DV?$ChTraitsCRT@D@ATL@@@@@ATL@@QAE@XZ
__unwindfunclet$?ChangeChart_PriceChartStyle@CKTBChartCtrl@@AAEHABV?$CStringT@DV?$StrTraitMFC_DLL@DV?$ChTraitsCRT@D@ATL@@@@@ATL@@AAV23@H@Z$31:
  00135	8b 4d e4	 mov	 ecx, DWORD PTR $T29[ebp]
  00138	ff 25 00 00 00
	00		 jmp	 DWORD PTR __imp_??1?$CStringT@DV?$StrTraitMFC_DLL@DV?$ChTraitsCRT@D@ATL@@@@@ATL@@QAE@XZ
__unwindfunclet$?ChangeChart_PriceChartStyle@CKTBChartCtrl@@AAEHABV?$CStringT@DV?$StrTraitMFC_DLL@DV?$ChTraitsCRT@D@ATL@@@@@ATL@@AAV23@H@Z$33:
  0013e	8b 4d ac	 mov	 ecx, DWORD PTR $T4[ebp]
  00141	ff 25 00 00 00
	00		 jmp	 DWORD PTR __imp_??1?$CStringT@DV?$StrTraitMFC_DLL@DV?$ChTraitsCRT@D@ATL@@@@@ATL@@QAE@XZ
__unwindfunclet$?ChangeChart_PriceChartStyle@CKTBChartCtrl@@AAEHABV?$CStringT@DV?$StrTraitMFC_DLL@DV?$ChTraitsCRT@D@ATL@@@@@ATL@@AAV23@H@Z$34:
  00147	8b 4d b0	 mov	 ecx, DWORD PTR $T11[ebp]
  0014a	ff 25 00 00 00
	00		 jmp	 DWORD PTR __imp_??1?$CStringT@DV?$StrTraitMFC_DLL@DV?$ChTraitsCRT@D@ATL@@@@@ATL@@QAE@XZ
__unwindfunclet$?ChangeChart_PriceChartStyle@CKTBChartCtrl@@AAEHABV?$CStringT@DV?$StrTraitMFC_DLL@DV?$ChTraitsCRT@D@ATL@@@@@ATL@@AAV23@H@Z$35:
  00150	8b 4d e4	 mov	 ecx, DWORD PTR $T28[ebp]
  00153	ff 25 00 00 00
	00		 jmp	 DWORD PTR __imp_??1?$CStringT@DV?$StrTraitMFC_DLL@DV?$ChTraitsCRT@D@ATL@@@@@ATL@@QAE@XZ
__unwindfunclet$?ChangeChart_PriceChartStyle@CKTBChartCtrl@@AAEHABV?$CStringT@DV?$StrTraitMFC_DLL@DV?$ChTraitsCRT@D@ATL@@@@@ATL@@AAV23@H@Z$37:
  00159	8b 4d ac	 mov	 ecx, DWORD PTR $T3[ebp]
  0015c	ff 25 00 00 00
	00		 jmp	 DWORD PTR __imp_??1?$CStringT@DV?$StrTraitMFC_DLL@DV?$ChTraitsCRT@D@ATL@@@@@ATL@@QAE@XZ
__unwindfunclet$?ChangeChart_PriceChartStyle@CKTBChartCtrl@@AAEHABV?$CStringT@DV?$StrTraitMFC_DLL@DV?$ChTraitsCRT@D@ATL@@@@@ATL@@AAV23@H@Z$38:
  00162	8b 4d b0	 mov	 ecx, DWORD PTR $T10[ebp]
  00165	ff 25 00 00 00
	00		 jmp	 DWORD PTR __imp_??1?$CStringT@DV?$StrTraitMFC_DLL@DV?$ChTraitsCRT@D@ATL@@@@@ATL@@QAE@XZ
__unwindfunclet$?ChangeChart_PriceChartStyle@CKTBChartCtrl@@AAEHABV?$CStringT@DV?$StrTraitMFC_DLL@DV?$ChTraitsCRT@D@ATL@@@@@ATL@@AAV23@H@Z$39:
  0016b	8b 4d e4	 mov	 ecx, DWORD PTR $T27[ebp]
  0016e	ff 25 00 00 00
	00		 jmp	 DWORD PTR __imp_??1?$CStringT@DV?$StrTraitMFC_DLL@DV?$ChTraitsCRT@D@ATL@@@@@ATL@@QAE@XZ
__unwindfunclet$?ChangeChart_PriceChartStyle@CKTBChartCtrl@@AAEHABV?$CStringT@DV?$StrTraitMFC_DLL@DV?$ChTraitsCRT@D@ATL@@@@@ATL@@AAV23@H@Z$41:
  00174	8b 4d ac	 mov	 ecx, DWORD PTR $T2[ebp]
  00177	ff 25 00 00 00
	00		 jmp	 DWORD PTR __imp_??1?$CStringT@DV?$StrTraitMFC_DLL@DV?$ChTraitsCRT@D@ATL@@@@@ATL@@QAE@XZ
__unwindfunclet$?ChangeChart_PriceChartStyle@CKTBChartCtrl@@AAEHABV?$CStringT@DV?$StrTraitMFC_DLL@DV?$ChTraitsCRT@D@ATL@@@@@ATL@@AAV23@H@Z$42:
  0017d	8b 4d b0	 mov	 ecx, DWORD PTR $T9[ebp]
  00180	ff 25 00 00 00
	00		 jmp	 DWORD PTR __imp_??1?$CStringT@DV?$StrTraitMFC_DLL@DV?$ChTraitsCRT@D@ATL@@@@@ATL@@QAE@XZ
__unwindfunclet$?ChangeChart_PriceChartStyle@CKTBChartCtrl@@AAEHABV?$CStringT@DV?$StrTraitMFC_DLL@DV?$ChTraitsCRT@D@ATL@@@@@ATL@@AAV23@H@Z$43:
  00186	8b 4d e4	 mov	 ecx, DWORD PTR $T26[ebp]
  00189	ff 25 00 00 00
	00		 jmp	 DWORD PTR __imp_??1?$CStringT@DV?$StrTraitMFC_DLL@DV?$ChTraitsCRT@D@ATL@@@@@ATL@@QAE@XZ
  0018f	cc		 int	 3
  00190	cc		 int	 3
  00191	cc		 int	 3
  00192	cc		 int	 3
  00193	cc		 int	 3
__ehhandler$?ChangeChart_PriceChartStyle@CKTBChartCtrl@@AAEHABV?$CStringT@DV?$StrTraitMFC_DLL@DV?$ChTraitsCRT@D@ATL@@@@@ATL@@AAV23@H@Z:
  00194	90		 npad	 1
  00195	90		 npad	 1
  00196	8b 54 24 08	 mov	 edx, DWORD PTR [esp+8]
  0019a	8d 42 0c	 lea	 eax, DWORD PTR [edx+12]
  0019d	8b 4a 8c	 mov	 ecx, DWORD PTR [edx-116]
  001a0	33 c8		 xor	 ecx, eax
  001a2	e8 00 00 00 00	 call	 @__security_check_cookie@4
  001a7	b8 00 00 00 00	 mov	 eax, OFFSET __ehfuncinfo$?ChangeChart_PriceChartStyle@CKTBChartCtrl@@AAEHABV?$CStringT@DV?$StrTraitMFC_DLL@DV?$ChTraitsCRT@D@ATL@@@@@ATL@@AAV23@H@Z
  001ac	e9 00 00 00 00	 jmp	 ___CxxFrameHandler3
text$x	ENDS
?ChangeChart_PriceChartStyle@CKTBChartCtrl@@AAEHABV?$CStringT@DV?$StrTraitMFC_DLL@DV?$ChTraitsCRT@D@ATL@@@@@ATL@@AAV23@H@Z ENDP ; CKTBChartCtrl::ChangeChart_PriceChartStyle
; Function compile flags: /Ogtp
; File D:\git\src\IBK\IBK_DRFN\ProjSrc\SrcChartEx\ChartOCX\KTBChart\KTBChartDLL.cpp
;	COMDAT ?DeleteChart_Genneral@CKTBChartCtrl@@AAE_NABV?$CStringT@DV?$StrTraitMFC_DLL@DV?$ChTraitsCRT@D@ATL@@@@@ATL@@@Z
_TEXT	SEGMENT
_strIndicatorName$ = 8					; size = 4
?DeleteChart_Genneral@CKTBChartCtrl@@AAE_NABV?$CStringT@DV?$StrTraitMFC_DLL@DV?$ChTraitsCRT@D@ATL@@@@@ATL@@@Z PROC ; CKTBChartCtrl::DeleteChart_Genneral, COMDAT
; _this$ = ecx

; 825  : {

  00000	55		 push	 ebp
  00001	8b ec		 mov	 ebp, esp
  00003	56		 push	 esi
  00004	8b f1		 mov	 esi, ecx

; 826  : 	if(m_pMainBlock == NULL)

  00006	8b 8e 34 03 00
	00		 mov	 ecx, DWORD PTR [esi+820]
  0000c	85 c9		 test	 ecx, ecx
  0000e	74 2f		 je	 SHORT $LN5@DeleteChar

; 827  : 		return false;
; 828  : 
; 829  : 	//2.2    
; 830  : 	if( !m_pMainBlock->IsExistenceIndicator( strIndicatorName))

  00010	8b 01		 mov	 eax, DWORD PTR [ecx]
  00012	ff 75 08	 push	 DWORD PTR _strIndicatorName$[ebp]
  00015	ff 90 68 02 00
	00		 call	 DWORD PTR [eax+616]
  0001b	85 c0		 test	 eax, eax
  0001d	74 20		 je	 SHORT $LN5@DeleteChar

; 832  : 
; 833  : 	m_pMainBlock->DeleteAllIndicator( strIndicatorName);

  0001f	8b 8e 34 03 00
	00		 mov	 ecx, DWORD PTR [esi+820]
  00025	ff 75 08	 push	 DWORD PTR _strIndicatorName$[ebp]
  00028	8b 01		 mov	 eax, DWORD PTR [ecx]
  0002a	ff 50 20	 call	 DWORD PTR [eax+32]

; 834  : 
; 835  : 	InvalidateControl();

  0002d	6a 01		 push	 1
  0002f	6a 00		 push	 0
  00031	8b ce		 mov	 ecx, esi
  00033	e8 00 00 00 00	 call	 ?InvalidateControl@CKTBChartCtrl@@QAEXPBUtagRECT@@H@Z ; CKTBChartCtrl::InvalidateControl

; 836  : 	return true;

  00038	b0 01		 mov	 al, 1
  0003a	5e		 pop	 esi

; 837  : }

  0003b	5d		 pop	 ebp
  0003c	c2 04 00	 ret	 4
$LN5@DeleteChar:

; 831  : 		return false;

  0003f	32 c0		 xor	 al, al
  00041	5e		 pop	 esi

; 837  : }

  00042	5d		 pop	 ebp
  00043	c2 04 00	 ret	 4
?DeleteChart_Genneral@CKTBChartCtrl@@AAE_NABV?$CStringT@DV?$StrTraitMFC_DLL@DV?$ChTraitsCRT@D@ATL@@@@@ATL@@@Z ENDP ; CKTBChartCtrl::DeleteChart_Genneral
_TEXT	ENDS
; Function compile flags: /Ogtp
; File D:\git\src\IBK\IBK_DRFN\ProjSrc\SrcChartEx\ChartOCX\KTBChart\KTBChartDLL.cpp
; File C:\Program Files (x86)\Microsoft Visual Studio\2019\Community\VC\Tools\MSVC\14.29.30133\atlmfc\include\cstringt.h
; File D:\git\src\IBK\IBK_DRFN\ProjSrc\SrcChartEx\ChartOCX\KTBChart\KTBChartDLL.cpp
; File C:\Program Files (x86)\Microsoft Visual Studio\2019\Community\VC\Tools\MSVC\14.29.30133\atlmfc\include\cstringt.h
; File D:\git\src\IBK\IBK_DRFN\ProjSrc\SrcChartEx\ChartOCX\KTBChart\KTBChartDLL.cpp
; File C:\Program Files (x86)\Microsoft Visual Studio\2019\Community\VC\Tools\MSVC\14.29.30133\atlmfc\include\cstringt.h
; File D:\git\src\IBK\IBK_DRFN\ProjSrc\SrcChartEx\ChartOCX\KTBChart\KTBChartDLL.cpp
; File C:\Program Files (x86)\Microsoft Visual Studio\2019\Community\VC\Tools\MSVC\14.29.30133\atlmfc\include\atlsimpstr.h
; File D:\git\src\IBK\IBK_DRFN\ProjSrc\SrcChartEx\ChartOCX\KTBChart\KTBChartDLL.cpp
; File C:\Program Files (x86)\Microsoft Visual Studio\2019\Community\VC\Tools\MSVC\14.29.30133\atlmfc\include\atlsimpstr.h
; File D:\git\src\IBK\IBK_DRFN\ProjSrc\SrcChartEx\ChartOCX\KTBChart\KTBChartDLL.cpp
; File C:\Program Files (x86)\Microsoft Visual Studio\2019\Community\VC\Tools\MSVC\14.29.30133\atlmfc\include\cstringt.h
; File D:\git\src\IBK\IBK_DRFN\ProjSrc\SrcChartEx\ChartOCX\KTBChart\KTBChartDLL.cpp
; File C:\Program Files (x86)\Microsoft Visual Studio\2019\Community\VC\Tools\MSVC\14.29.30133\atlmfc\include\cstringt.h
; File C:\Program Files (x86)\Microsoft Visual Studio\2019\Community\VC\Tools\MSVC\14.29.30133\atlmfc\include\atlsimpstr.h
; File C:\Program Files (x86)\Microsoft Visual Studio\2019\Community\VC\Tools\MSVC\14.29.30133\atlmfc\include\cstringt.h
; File D:\git\src\IBK\IBK_DRFN\ProjSrc\SrcChartEx\ChartOCX\KTBChart\KTBChartDLL.cpp
;	COMDAT ?AddChart_GenneralChart@CKTBChartCtrl@@AAEHABV?$CStringT@DV?$StrTraitMFC_DLL@DV?$ChTraitsCRT@D@ATL@@@@@ATL@@AAV23@H@Z
_TEXT	SEGMENT
_indiDefaultData$2 = -52				; size = 12
$T3 = -40						; size = 4
$T4 = -36						; size = 4
_i$1$ = -32						; size = 4
$T5 = -28						; size = 4
_pPacketRQ$1$ = -24					; size = 4
$T6 = -24						; size = 4
$T7 = -20						; size = 4
_szNewGraph$8 = -16					; size = 4
__$EHRec$ = -12						; size = 12
_strRQ$ = 8						; size = 4
_strIndicatorName$ = 8					; size = 4
_p_strGraphName$ = 12					; size = 4
_p_bWithPair$ = 16					; size = 4
?AddChart_GenneralChart@CKTBChartCtrl@@AAEHABV?$CStringT@DV?$StrTraitMFC_DLL@DV?$ChTraitsCRT@D@ATL@@@@@ATL@@AAV23@H@Z PROC ; CKTBChartCtrl::AddChart_GenneralChart, COMDAT
; _this$ = ecx

; 780  : {

  00000	55		 push	 ebp
  00001	8b ec		 mov	 ebp, esp
  00003	6a ff		 push	 -1
  00005	68 00 00 00 00	 push	 __ehhandler$?AddChart_GenneralChart@CKTBChartCtrl@@AAEHABV?$CStringT@DV?$StrTraitMFC_DLL@DV?$ChTraitsCRT@D@ATL@@@@@ATL@@AAV23@H@Z
  0000a	64 a1 00 00 00
	00		 mov	 eax, DWORD PTR fs:0
  00010	50		 push	 eax
  00011	83 ec 28	 sub	 esp, 40			; 00000028H
  00014	53		 push	 ebx
  00015	56		 push	 esi
  00016	57		 push	 edi
  00017	a1 00 00 00 00	 mov	 eax, DWORD PTR ___security_cookie
  0001c	33 c5		 xor	 eax, ebp
  0001e	50		 push	 eax
  0001f	8d 45 f4	 lea	 eax, DWORD PTR __$EHRec$[ebp]
  00022	64 a3 00 00 00
	00		 mov	 DWORD PTR fs:0, eax
  00028	8b f9		 mov	 edi, ecx
  0002a	33 c0		 xor	 eax, eax
  0002c	89 45 e8	 mov	 DWORD PTR $T6[ebp], eax
  0002f	89 45 e4	 mov	 DWORD PTR $T5[ebp], eax

; 781  : 	if(m_pIndicatorList == NULL || m_pMainBlock == NULL)

  00032	39 87 40 03 00
	00		 cmp	 DWORD PTR [edi+832], eax
  00038	0f 84 35 02 00
	00		 je	 $LN6@AddChart_G
  0003e	8b 8f 34 03 00
	00		 mov	 ecx, DWORD PTR [edi+820]
  00044	85 c9		 test	 ecx, ecx
  00046	0f 84 27 02 00
	00		 je	 $LN6@AddChart_G

; 783  : 
; 784  : 	// (2007/1/10 - Seung-Won, Bae) Delete Previous IndicatorInfo for avoiding the same-Name Indicator Info Situation.
; 785  : 	// (2007/1/20 - Seung-Won, Bae) Support Multiple Same-Name Indicator.
; 786  : 	if( !m_bMultipleSameNameIndicator)

  0004c	8b 5d 08	 mov	 ebx, DWORD PTR _strIndicatorName$[ebp]
  0004f	39 87 94 05 00
	00		 cmp	 DWORD PTR [edi+1428], eax
  00055	75 21		 jne	 SHORT $LN7@AddChart_G

; 787  : 	{
; 788  : 		if( m_pMainBlock->IsExistenceIndicator( strIndicatorName)) return false;

  00057	8b 01		 mov	 eax, DWORD PTR [ecx]
  00059	53		 push	 ebx
  0005a	ff 90 68 02 00
	00		 call	 DWORD PTR [eax+616]
  00060	85 c0		 test	 eax, eax
  00062	0f 85 0b 02 00
	00		 jne	 $LN6@AddChart_G

; 789  : 		m_pIndicatorList->RemoveAllIndicatorInfo( EILT_USER, strIndicatorName);

  00068	ff 33		 push	 DWORD PTR [ebx]
  0006a	8b 8f 40 03 00
	00		 mov	 ecx, DWORD PTR [edi+832]
  00070	6a 03		 push	 3
  00072	ff 15 00 00 00
	00		 call	 DWORD PTR __imp_?RemoveAllIndicatorInfo@CIndicatorList@@QAEHW4EIndicatorListType@@PBD@Z
$LN7@AddChart_G:

; 790  : 	}
; 791  : 
; 792  : 	// (2008/9/14 - Seung-Won, Bae) for Pair Tick
; 793  : 	CString strRQ = m_strRQ;

  00078	8d 87 9c 05 00
	00		 lea	 eax, DWORD PTR [edi+1436]
  0007e	50		 push	 eax
  0007f	8d 4d 08	 lea	 ecx, DWORD PTR _strRQ$[ebp]
  00082	ff 15 00 00 00
	00		 call	 DWORD PTR __imp_??0?$CStringT@DV?$StrTraitMFC_DLL@DV?$ChTraitsCRT@D@ATL@@@@@ATL@@QAE@ABV01@@Z

; 794  : 	for( int i = 0; i < 2; i++)

  00088	33 f6		 xor	 esi, esi
  0008a	c7 45 fc 00 00
	00 00		 mov	 DWORD PTR __$EHRec$[ebp+8], 0
  00091	89 75 e0	 mov	 DWORD PTR _i$1$[ebp], esi
$LL4@AddChart_G:

; 795  : 	{
; 796  : 		LPVOID pPacketRQ = m_pPacketListManager->GetPacketRQ( strRQ);

  00094	8b 8f 98 05 00
	00		 mov	 ecx, DWORD PTR [edi+1432]
  0009a	ff 75 08	 push	 DWORD PTR _strRQ$[ebp]
  0009d	8b 01		 mov	 eax, DWORD PTR [ecx]
  0009f	ff 50 20	 call	 DWORD PTR [eax+32]
  000a2	89 45 e8	 mov	 DWORD PTR _pPacketRQ$1$[ebp], eax

; 797  : 		if( !pPacketRQ) continue;

  000a5	85 c0		 test	 eax, eax
  000a7	0f 84 65 01 00
	00		 je	 $LN2@AddChart_G

; 798  : 		
; 799  : 		// (2007/1/22 - Seung-Won, Bae) Check the Indicator that can not be added with mulitple.
; 800  : 		if( g_iMetaTable.CanNotMultipleAddedOnMultipleSameNameIndicator( strIndicatorName) || g_iMetaTable.IsMarketOrServerIndex( strIndicatorName))

  000ad	ff 33		 push	 DWORD PTR [ebx]
  000af	b9 00 00 00 00	 mov	 ecx, OFFSET ?g_iMetaTable@@3VIMetaTable@@A ; g_iMetaTable
  000b4	e8 00 00 00 00	 call	 ?CanNotMultipleAddedOnMultipleSameNameIndicator@IMetaTable@@QAEHPBD@Z ; IMetaTable::CanNotMultipleAddedOnMultipleSameNameIndicator
  000b9	85 c0		 test	 eax, eax
  000bb	75 10		 jne	 SHORT $LN11@AddChart_G
  000bd	ff 33		 push	 DWORD PTR [ebx]
  000bf	b9 00 00 00 00	 mov	 ecx, OFFSET ?g_iMetaTable@@3VIMetaTable@@A ; g_iMetaTable
  000c4	e8 00 00 00 00	 call	 ?IsMarketOrServerIndex@IMetaTable@@QAEHPBD@Z ; IMetaTable::IsMarketOrServerIndex
  000c9	85 c0		 test	 eax, eax
  000cb	74 1d		 je	 SHORT $LN60@AddChart_G
$LN11@AddChart_G:

; 801  : 			if( m_pMainBlock->IsExistenceIndicator(pPacketRQ, strIndicatorName)) return false;

  000cd	8b 8f 34 03 00
	00		 mov	 ecx, DWORD PTR [edi+820]
  000d3	8b 75 e8	 mov	 esi, DWORD PTR _pPacketRQ$1$[ebp]
  000d6	53		 push	 ebx
  000d7	56		 push	 esi
  000d8	8b 01		 mov	 eax, DWORD PTR [ecx]
  000da	ff 90 64 02 00
	00		 call	 DWORD PTR [eax+612]
  000e0	85 c0		 test	 eax, eax
  000e2	0f 85 87 01 00
	00		 jne	 $LN53@AddChart_G

; 798  : 		
; 799  : 		// (2007/1/22 - Seung-Won, Bae) Check the Indicator that can not be added with mulitple.
; 800  : 		if( g_iMetaTable.CanNotMultipleAddedOnMultipleSameNameIndicator( strIndicatorName) || g_iMetaTable.IsMarketOrServerIndex( strIndicatorName))

  000e8	eb 03		 jmp	 SHORT $LN12@AddChart_G
$LN60@AddChart_G:
  000ea	8b 75 e8	 mov	 esi, DWORD PTR _pPacketRQ$1$[ebp]
$LN12@AddChart_G:

; 802  : 
; 803  : 		// (2004.10.06, )  Graph Drawing Data  DefaultType  ,  .
; 804  : 		CIndicatorDefaultData indiDefaultData(this);

  000ed	6a 01		 push	 1
  000ef	6a 03		 push	 3
  000f1	57		 push	 edi
  000f2	8d 4d cc	 lea	 ecx, DWORD PTR _indiDefaultData$2[ebp]
  000f5	e8 00 00 00 00	 call	 ??0CIndicatorDefaultData@@QAE@PBVCKTBChartCtrl@@W4SCALEGRIDTYPE@CScaleBaseData@@W4VERTSCALEPOSITION@3@@Z ; CIndicatorDefaultData::CIndicatorDefaultData

; 805  : 		GetIndicatorDefaultData( indiDefaultData);

  000fa	8d 45 cc	 lea	 eax, DWORD PTR _indiDefaultData$2[ebp]
  000fd	8b cf		 mov	 ecx, edi
  000ff	50		 push	 eax
  00100	e8 00 00 00 00	 call	 ?GetIndicatorDefaultData@CKTBChartCtrl@@ABEXAAVCIndicatorDefaultData@@@Z ; CKTBChartCtrl::GetIndicatorDefaultData

; 806  : 		CString szNewGraph;

  00105	8d 4d f0	 lea	 ecx, DWORD PTR _szNewGraph$8[ebp]
  00108	ff 15 00 00 00
	00		 call	 DWORD PTR __imp_??0?$CStringT@DV?$StrTraitMFC_DLL@DV?$ChTraitsCRT@D@ATL@@@@@ATL@@QAE@XZ

; 807  : 		indiDefaultData.GetVertScaleGroupDataForMaking( szNewGraph, m_pIndicatorList, strIndicatorName, p_strGraphName);

  0010e	ff 75 0c	 push	 DWORD PTR _p_strGraphName$[ebp]
  00111	8d 45 f0	 lea	 eax, DWORD PTR _szNewGraph$8[ebp]
  00114	c6 45 fc 01	 mov	 BYTE PTR __$EHRec$[ebp+8], 1
  00118	53		 push	 ebx
  00119	ff b7 40 03 00
	00		 push	 DWORD PTR [edi+832]
  0011f	8d 4d cc	 lea	 ecx, DWORD PTR _indiDefaultData$2[ebp]
  00122	50		 push	 eax
  00123	e8 00 00 00 00	 call	 ?GetVertScaleGroupDataForMaking@CIndicatorDefaultData@@QBEHAAV?$CStringT@DV?$StrTraitMFC_DLL@DV?$ChTraitsCRT@D@ATL@@@@@ATL@@PAVCIndicatorList@@ABV23@0@Z ; CIndicatorDefaultData::GetVertScaleGroupDataForMaking

; 808  : 
; 809  : 		if(!m_pMainBlock->InsertGraph(pPacketRQ, szNewGraph, CGraphBaseData::INSERT, true))

  00128	8b 8f 34 03 00
	00		 mov	 ecx, DWORD PTR [edi+820]
  0012e	8d 55 f0	 lea	 edx, DWORD PTR _szNewGraph$8[ebp]
  00131	6a 01		 push	 1
  00133	6a 00		 push	 0
  00135	52		 push	 edx
  00136	8b 01		 mov	 eax, DWORD PTR [ecx]
  00138	56		 push	 esi
  00139	ff 50 30	 call	 DWORD PTR [eax+48]
  0013c	85 c0		 test	 eax, eax
  0013e	0f 84 22 01 00
	00		 je	 $LN54@AddChart_G

; 811  : 
; 812  : 		if( !p_bWithPair) break;

  00144	83 7d 10 00	 cmp	 DWORD PTR _p_bWithPair$[ebp], 0
  00148	0f 84 09 01 00
	00		 je	 $LN55@AddChart_G

; 813  : 		if( strRQ.Right( 5) == "_PAIR")	strRQ = strRQ.Left( strRQ.GetLength() - 5);

  0014e	6a 05		 push	 5
  00150	8d 45 dc	 lea	 eax, DWORD PTR $T4[ebp]
  00153	50		 push	 eax
  00154	8d 4d 08	 lea	 ecx, DWORD PTR _strRQ$[ebp]
  00157	ff 15 00 00 00
	00		 call	 DWORD PTR __imp_?Right@?$CStringT@DV?$StrTraitMFC_DLL@DV?$ChTraitsCRT@D@ATL@@@@@ATL@@QBE?AV12@H@Z
; File C:\Program Files (x86)\Microsoft Visual Studio\2019\Community\VC\Tools\MSVC\14.29.30133\atlmfc\include\cstringt.h

; 2486 : 		return(str1.Compare(psz2) == 0);

  0015d	68 00 00 00 00	 push	 OFFSET ??_C@_05FPJIJNHE@_PAIR@
  00162	8b c8		 mov	 ecx, eax
; File D:\git\src\IBK\IBK_DRFN\ProjSrc\SrcChartEx\ChartOCX\KTBChart\KTBChartDLL.cpp

; 813  : 		if( strRQ.Right( 5) == "_PAIR")	strRQ = strRQ.Left( strRQ.GetLength() - 5);

  00164	c6 45 fc 02	 mov	 BYTE PTR __$EHRec$[ebp+8], 2
; File C:\Program Files (x86)\Microsoft Visual Studio\2019\Community\VC\Tools\MSVC\14.29.30133\atlmfc\include\cstringt.h

; 2486 : 		return(str1.Compare(psz2) == 0);

  00168	ff 15 00 00 00
	00		 call	 DWORD PTR __imp_?Compare@?$CStringT@DV?$StrTraitMFC_DLL@DV?$ChTraitsCRT@D@ATL@@@@@ATL@@QBEHPBD@Z
; File D:\git\src\IBK\IBK_DRFN\ProjSrc\SrcChartEx\ChartOCX\KTBChart\KTBChartDLL.cpp

; 813  : 		if( strRQ.Right( 5) == "_PAIR")	strRQ = strRQ.Left( strRQ.GetLength() - 5);

  0016e	8d 4d dc	 lea	 ecx, DWORD PTR $T4[ebp]
  00171	c6 45 fc 01	 mov	 BYTE PTR __$EHRec$[ebp+8], 1
; File C:\Program Files (x86)\Microsoft Visual Studio\2019\Community\VC\Tools\MSVC\14.29.30133\atlmfc\include\cstringt.h

; 2486 : 		return(str1.Compare(psz2) == 0);

  00175	8b f0		 mov	 esi, eax
; File D:\git\src\IBK\IBK_DRFN\ProjSrc\SrcChartEx\ChartOCX\KTBChart\KTBChartDLL.cpp

; 813  : 		if( strRQ.Right( 5) == "_PAIR")	strRQ = strRQ.Left( strRQ.GetLength() - 5);

  00177	ff 15 00 00 00
	00		 call	 DWORD PTR __imp_??1?$CStringT@DV?$StrTraitMFC_DLL@DV?$ChTraitsCRT@D@ATL@@@@@ATL@@QAE@XZ
  0017d	85 f6		 test	 esi, esi
  0017f	75 2a		 jne	 SHORT $LN15@AddChart_G
; File C:\Program Files (x86)\Microsoft Visual Studio\2019\Community\VC\Tools\MSVC\14.29.30133\atlmfc\include\atlsimpstr.h

; 519  : 		return( GetData()->nDataLength );

  00181	8b 45 08	 mov	 eax, DWORD PTR _strRQ$[ebp]
; File D:\git\src\IBK\IBK_DRFN\ProjSrc\SrcChartEx\ChartOCX\KTBChart\KTBChartDLL.cpp

; 813  : 		if( strRQ.Right( 5) == "_PAIR")	strRQ = strRQ.Left( strRQ.GetLength() - 5);

  00184	8d 4d 08	 lea	 ecx, DWORD PTR _strRQ$[ebp]
; File C:\Program Files (x86)\Microsoft Visual Studio\2019\Community\VC\Tools\MSVC\14.29.30133\atlmfc\include\atlsimpstr.h

; 519  : 		return( GetData()->nDataLength );

  00187	8b 40 f4	 mov	 eax, DWORD PTR [eax-12]
; File D:\git\src\IBK\IBK_DRFN\ProjSrc\SrcChartEx\ChartOCX\KTBChart\KTBChartDLL.cpp

; 813  : 		if( strRQ.Right( 5) == "_PAIR")	strRQ = strRQ.Left( strRQ.GetLength() - 5);

  0018a	83 c0 fb	 add	 eax, -5			; fffffffbH
  0018d	50		 push	 eax
  0018e	8d 45 d8	 lea	 eax, DWORD PTR $T3[ebp]
  00191	50		 push	 eax
  00192	ff 15 00 00 00
	00		 call	 DWORD PTR __imp_?Left@?$CStringT@DV?$StrTraitMFC_DLL@DV?$ChTraitsCRT@D@ATL@@@@@ATL@@QBE?AV12@H@Z
  00198	50		 push	 eax
  00199	8d 4d 08	 lea	 ecx, DWORD PTR _strRQ$[ebp]
  0019c	c6 45 fc 03	 mov	 BYTE PTR __$EHRec$[ebp+8], 3
  001a0	ff 15 00 00 00
	00		 call	 DWORD PTR __imp_??4?$CStringT@DV?$StrTraitMFC_DLL@DV?$ChTraitsCRT@D@ATL@@@@@ATL@@QAEAAV01@ABV01@@Z
  001a6	8d 4d d8	 lea	 ecx, DWORD PTR $T3[ebp]
  001a9	eb 51		 jmp	 SHORT $LN62@AddChart_G
$LN15@AddChart_G:
; File C:\Program Files (x86)\Microsoft Visual Studio\2019\Community\VC\Tools\MSVC\14.29.30133\atlmfc\include\cstringt.h

; 2401 : 		CStringT strResult( str1.GetManager() );

  001ab	8d 4d 08	 lea	 ecx, DWORD PTR _strRQ$[ebp]
; File D:\git\src\IBK\IBK_DRFN\ProjSrc\SrcChartEx\ChartOCX\KTBChart\KTBChartDLL.cpp

; 814  : 		else							strRQ = strRQ + "_PAIR";

  001ae	c6 45 fc 04	 mov	 BYTE PTR __$EHRec$[ebp+8], 4
; File C:\Program Files (x86)\Microsoft Visual Studio\2019\Community\VC\Tools\MSVC\14.29.30133\atlmfc\include\cstringt.h

; 2401 : 		CStringT strResult( str1.GetManager() );

  001b2	ff 15 00 00 00
	00		 call	 DWORD PTR __imp_?GetManager@?$CStringT@DV?$StrTraitMFC_DLL@DV?$ChTraitsCRT@D@ATL@@@@@ATL@@QBEPAUIAtlStringMgr@2@XZ
  001b8	50		 push	 eax
  001b9	8d 4d ec	 lea	 ecx, DWORD PTR $T7[ebp]
  001bc	ff 15 00 00 00
	00		 call	 DWORD PTR __imp_??0?$CStringT@DV?$StrTraitMFC_DLL@DV?$ChTraitsCRT@D@ATL@@@@@ATL@@QAE@PAUIAtlStringMgr@1@@Z
; File C:\Program Files (x86)\Microsoft Visual Studio\2019\Community\VC\Tools\MSVC\14.29.30133\atlmfc\include\atlsimpstr.h

; 519  : 		return( GetData()->nDataLength );

  001c2	8b 45 08	 mov	 eax, DWORD PTR _strRQ$[ebp]
; File C:\Program Files (x86)\Microsoft Visual Studio\2019\Community\VC\Tools\MSVC\14.29.30133\atlmfc\include\cstringt.h

; 2405 : 		return( strResult );

  001c5	8b 75 e4	 mov	 esi, DWORD PTR $T5[ebp]
  001c8	6a 05		 push	 5
  001ca	68 00 00 00 00	 push	 OFFSET ??_C@_05FPJIJNHE@_PAIR@
  001cf	ff 70 f4	 push	 DWORD PTR [eax-12]
  001d2	83 ce 01	 or	 esi, 1
  001d5	50		 push	 eax
  001d6	8d 45 ec	 lea	 eax, DWORD PTR $T7[ebp]
  001d9	89 75 e8	 mov	 DWORD PTR $T6[ebp], esi
  001dc	50		 push	 eax
  001dd	ff 15 00 00 00
	00		 call	 DWORD PTR __imp_?Concatenate@?$CSimpleStringT@D$00@ATL@@KAXAAV12@PBDH1H@Z
  001e3	83 c4 14	 add	 esp, 20			; 00000014H
; File D:\git\src\IBK\IBK_DRFN\ProjSrc\SrcChartEx\ChartOCX\KTBChart\KTBChartDLL.cpp

; 814  : 		else							strRQ = strRQ + "_PAIR";

  001e6	8d 45 ec	 lea	 eax, DWORD PTR $T7[ebp]
  001e9	8d 4d 08	 lea	 ecx, DWORD PTR _strRQ$[ebp]
  001ec	50		 push	 eax
  001ed	ff 15 00 00 00
	00		 call	 DWORD PTR __imp_??4?$CStringT@DV?$StrTraitMFC_DLL@DV?$ChTraitsCRT@D@ATL@@@@@ATL@@QAEAAV01@ABV01@@Z
  001f3	83 e6 fe	 and	 esi, -2			; fffffffeH
  001f6	8d 4d ec	 lea	 ecx, DWORD PTR $T7[ebp]
  001f9	89 75 e4	 mov	 DWORD PTR $T5[ebp], esi
$LN62@AddChart_G:

; 815  : 	}

  001fc	ff 15 00 00 00
	00		 call	 DWORD PTR __imp_??1?$CStringT@DV?$StrTraitMFC_DLL@DV?$ChTraitsCRT@D@ATL@@@@@ATL@@QAE@XZ
  00202	8d 4d f0	 lea	 ecx, DWORD PTR _szNewGraph$8[ebp]
  00205	c6 45 fc 00	 mov	 BYTE PTR __$EHRec$[ebp+8], 0
  00209	ff 15 00 00 00
	00		 call	 DWORD PTR __imp_??1?$CStringT@DV?$StrTraitMFC_DLL@DV?$ChTraitsCRT@D@ATL@@@@@ATL@@QAE@XZ
  0020f	8b 75 e0	 mov	 esi, DWORD PTR _i$1$[ebp]
$LN2@AddChart_G:

; 794  : 	for( int i = 0; i < 2; i++)

  00212	46		 inc	 esi
  00213	89 75 e0	 mov	 DWORD PTR _i$1$[ebp], esi
  00216	83 fe 02	 cmp	 esi, 2
  00219	0f 8c 75 fe ff
	ff		 jl	 $LL4@AddChart_G
$LN59@AddChart_G:

; 816  : 	
; 817  : 	InvalidateControl();

  0021f	6a 01		 push	 1
  00221	6a 00		 push	 0
  00223	8b cf		 mov	 ecx, edi
  00225	e8 00 00 00 00	 call	 ?InvalidateControl@CKTBChartCtrl@@QAEXPBUtagRECT@@H@Z ; CKTBChartCtrl::InvalidateControl

; 818  : 	//   
; 819  : 	SaveChartCfg();

  0022a	6a 00		 push	 0
  0022c	8b cf		 mov	 ecx, edi
  0022e	e8 00 00 00 00	 call	 ?SaveChartCfg@CKTBChartCtrl@@AAE_NH@Z ; CKTBChartCtrl::SaveChartCfg

; 820  : 	return true;

  00233	be 01 00 00 00	 mov	 esi, 1
$LN24@AddChart_G:
  00238	8d 4d 08	 lea	 ecx, DWORD PTR _strRQ$[ebp]
  0023b	ff 15 00 00 00
	00		 call	 DWORD PTR __imp_??1?$CStringT@DV?$StrTraitMFC_DLL@DV?$ChTraitsCRT@D@ATL@@@@@ATL@@QAE@XZ
  00241	8b c6		 mov	 eax, esi

; 821  : }

  00243	8b 4d f4	 mov	 ecx, DWORD PTR __$EHRec$[ebp]
  00246	64 89 0d 00 00
	00 00		 mov	 DWORD PTR fs:0, ecx
  0024d	59		 pop	 ecx
  0024e	5f		 pop	 edi
  0024f	5e		 pop	 esi
  00250	5b		 pop	 ebx
  00251	8b e5		 mov	 esp, ebp
  00253	5d		 pop	 ebp
  00254	c2 0c 00	 ret	 12			; 0000000cH
$LN55@AddChart_G:

; 811  : 
; 812  : 		if( !p_bWithPair) break;

  00257	8d 4d f0	 lea	 ecx, DWORD PTR _szNewGraph$8[ebp]
  0025a	c6 45 fc 00	 mov	 BYTE PTR __$EHRec$[ebp+8], 0
  0025e	ff 15 00 00 00
	00		 call	 DWORD PTR __imp_??1?$CStringT@DV?$StrTraitMFC_DLL@DV?$ChTraitsCRT@D@ATL@@@@@ATL@@QAE@XZ
  00264	eb b9		 jmp	 SHORT $LN59@AddChart_G
$LN54@AddChart_G:

; 810  : 			return false;

  00266	8d 4d f0	 lea	 ecx, DWORD PTR _szNewGraph$8[ebp]
  00269	ff 15 00 00 00
	00		 call	 DWORD PTR __imp_??1?$CStringT@DV?$StrTraitMFC_DLL@DV?$ChTraitsCRT@D@ATL@@@@@ATL@@QAE@XZ
$LN53@AddChart_G:

; 820  : 	return true;

  0026f	33 f6		 xor	 esi, esi
  00271	eb c5		 jmp	 SHORT $LN24@AddChart_G
$LN6@AddChart_G:

; 782  : 		return false;

  00273	33 c0		 xor	 eax, eax

; 821  : }

  00275	8b 4d f4	 mov	 ecx, DWORD PTR __$EHRec$[ebp]
  00278	64 89 0d 00 00
	00 00		 mov	 DWORD PTR fs:0, ecx
  0027f	59		 pop	 ecx
  00280	5f		 pop	 edi
  00281	5e		 pop	 esi
  00282	5b		 pop	 ebx
  00283	8b e5		 mov	 esp, ebp
  00285	5d		 pop	 ebp
  00286	c2 0c 00	 ret	 12			; 0000000cH
_TEXT	ENDS
;	COMDAT text$x
text$x	SEGMENT
__unwindfunclet$?AddChart_GenneralChart@CKTBChartCtrl@@AAEHABV?$CStringT@DV?$StrTraitMFC_DLL@DV?$ChTraitsCRT@D@ATL@@@@@ATL@@AAV23@H@Z$0:
  00000	8d 4d 08	 lea	 ecx, DWORD PTR _strRQ$[ebp]
  00003	ff 25 00 00 00
	00		 jmp	 DWORD PTR __imp_??1?$CStringT@DV?$StrTraitMFC_DLL@DV?$ChTraitsCRT@D@ATL@@@@@ATL@@QAE@XZ
__unwindfunclet$?AddChart_GenneralChart@CKTBChartCtrl@@AAEHABV?$CStringT@DV?$StrTraitMFC_DLL@DV?$ChTraitsCRT@D@ATL@@@@@ATL@@AAV23@H@Z$1:
  00009	8d 4d f0	 lea	 ecx, DWORD PTR _szNewGraph$8[ebp]
  0000c	ff 25 00 00 00
	00		 jmp	 DWORD PTR __imp_??1?$CStringT@DV?$StrTraitMFC_DLL@DV?$ChTraitsCRT@D@ATL@@@@@ATL@@QAE@XZ
__unwindfunclet$?AddChart_GenneralChart@CKTBChartCtrl@@AAEHABV?$CStringT@DV?$StrTraitMFC_DLL@DV?$ChTraitsCRT@D@ATL@@@@@ATL@@AAV23@H@Z$2:
  00012	8d 4d dc	 lea	 ecx, DWORD PTR $T4[ebp]
  00015	ff 25 00 00 00
	00		 jmp	 DWORD PTR __imp_??1?$CStringT@DV?$StrTraitMFC_DLL@DV?$ChTraitsCRT@D@ATL@@@@@ATL@@QAE@XZ
__unwindfunclet$?AddChart_GenneralChart@CKTBChartCtrl@@AAEHABV?$CStringT@DV?$StrTraitMFC_DLL@DV?$ChTraitsCRT@D@ATL@@@@@ATL@@AAV23@H@Z$3:
  0001b	8d 4d d8	 lea	 ecx, DWORD PTR $T3[ebp]
  0001e	ff 25 00 00 00
	00		 jmp	 DWORD PTR __imp_??1?$CStringT@DV?$StrTraitMFC_DLL@DV?$ChTraitsCRT@D@ATL@@@@@ATL@@QAE@XZ
__unwindfunclet$?AddChart_GenneralChart@CKTBChartCtrl@@AAEHABV?$CStringT@DV?$StrTraitMFC_DLL@DV?$ChTraitsCRT@D@ATL@@@@@ATL@@AAV23@H@Z$5:
  00024	8b 45 e8	 mov	 eax, DWORD PTR $T6[ebp]
  00027	83 e0 01	 and	 eax, 1
  0002a	0f 84 0d 00 00
	00		 je	 $LN42@AddChart_G
  00030	83 65 e8 fe	 and	 DWORD PTR $T6[ebp], -2	; fffffffeH
  00034	8d 4d ec	 lea	 ecx, DWORD PTR $T7[ebp]
  00037	ff 25 00 00 00
	00		 jmp	 DWORD PTR __imp_??1?$CStringT@DV?$StrTraitMFC_DLL@DV?$ChTraitsCRT@D@ATL@@@@@ATL@@QAE@XZ
$LN42@AddChart_G:
  0003d	c3		 ret	 0
  0003e	cc		 int	 3
  0003f	cc		 int	 3
  00040	cc		 int	 3
  00041	cc		 int	 3
  00042	cc		 int	 3
__ehhandler$?AddChart_GenneralChart@CKTBChartCtrl@@AAEHABV?$CStringT@DV?$StrTraitMFC_DLL@DV?$ChTraitsCRT@D@ATL@@@@@ATL@@AAV23@H@Z:
  00043	90		 npad	 1
  00044	90		 npad	 1
  00045	8b 54 24 08	 mov	 edx, DWORD PTR [esp+8]
  00049	8d 42 0c	 lea	 eax, DWORD PTR [edx+12]
  0004c	8b 4a c8	 mov	 ecx, DWORD PTR [edx-56]
  0004f	33 c8		 xor	 ecx, eax
  00051	e8 00 00 00 00	 call	 @__security_check_cookie@4
  00056	b8 00 00 00 00	 mov	 eax, OFFSET __ehfuncinfo$?AddChart_GenneralChart@CKTBChartCtrl@@AAEHABV?$CStringT@DV?$StrTraitMFC_DLL@DV?$ChTraitsCRT@D@ATL@@@@@ATL@@AAV23@H@Z
  0005b	e9 00 00 00 00	 jmp	 ___CxxFrameHandler3
text$x	ENDS
?AddChart_GenneralChart@CKTBChartCtrl@@AAEHABV?$CStringT@DV?$StrTraitMFC_DLL@DV?$ChTraitsCRT@D@ATL@@@@@ATL@@AAV23@H@Z ENDP ; CKTBChartCtrl::AddChart_GenneralChart
; Function compile flags: /Ogtp
; File D:\git\src\IBK\IBK_DRFN\ProjSrc\SrcChartEx\ChartOCX\KTBChart\KTBChartDLL.cpp
;	COMDAT ?AddOrDeleteChart_Genneral@CKTBChartCtrl@@AAE_NABV?$CStringT@DV?$StrTraitMFC_DLL@DV?$ChTraitsCRT@D@ATL@@@@@ATL@@H@Z
_TEXT	SEGMENT
__$EHRec$ = -12						; size = 12
_strGraphName$ = 8					; size = 4
_strChartName$ = 8					; size = 4
_bSelect$ = 12						; size = 4
?AddOrDeleteChart_Genneral@CKTBChartCtrl@@AAE_NABV?$CStringT@DV?$StrTraitMFC_DLL@DV?$ChTraitsCRT@D@ATL@@@@@ATL@@H@Z PROC ; CKTBChartCtrl::AddOrDeleteChart_Genneral, COMDAT
; _this$ = ecx

; 740  : {

  00000	55		 push	 ebp
  00001	8b ec		 mov	 ebp, esp
  00003	6a ff		 push	 -1
  00005	68 00 00 00 00	 push	 __ehhandler$?AddOrDeleteChart_Genneral@CKTBChartCtrl@@AAE_NABV?$CStringT@DV?$StrTraitMFC_DLL@DV?$ChTraitsCRT@D@ATL@@@@@ATL@@H@Z
  0000a	64 a1 00 00 00
	00		 mov	 eax, DWORD PTR fs:0
  00010	50		 push	 eax
  00011	53		 push	 ebx
  00012	56		 push	 esi
  00013	57		 push	 edi
  00014	a1 00 00 00 00	 mov	 eax, DWORD PTR ___security_cookie
  00019	33 c5		 xor	 eax, ebp
  0001b	50		 push	 eax
  0001c	8d 45 f4	 lea	 eax, DWORD PTR __$EHRec$[ebp]
  0001f	64 a3 00 00 00
	00		 mov	 DWORD PTR fs:0, eax
  00025	8b f1		 mov	 esi, ecx

; 741  : 	if(m_pIndicatorList == NULL || m_pMainBlock == NULL)

  00027	83 be 40 03 00
	00 00		 cmp	 DWORD PTR [esi+832], 0
  0002e	0f 84 cb 00 00
	00		 je	 $LN3@AddOrDelet
  00034	83 be 34 03 00
	00 00		 cmp	 DWORD PTR [esi+820], 0
  0003b	0f 84 be 00 00
	00		 je	 $LN3@AddOrDelet

; 743  : 
; 744  : 	//   
; 745  : 	// (2007/1/20 - Seung-Won, Bae) Support Multiple Same-Name Indicator.
; 746  : 	if( !m_bMultipleSameNameIndicator)

  00041	83 be 94 05 00
	00 00		 cmp	 DWORD PTR [esi+1428], 0
  00048	8b 7d 08	 mov	 edi, DWORD PTR _strChartName$[ebp]
  0004b	75 0a		 jne	 SHORT $LN13@AddOrDelet

; 747  : 	{
; 748  : 		if( DeleteChart_Genneral(strChartName)) 

  0004d	57		 push	 edi
  0004e	e8 00 00 00 00	 call	 ?DeleteChart_Genneral@CKTBChartCtrl@@AAE_NABV?$CStringT@DV?$StrTraitMFC_DLL@DV?$ChTraitsCRT@D@ATL@@@@@ATL@@@Z ; CKTBChartCtrl::DeleteChart_Genneral
  00053	84 c0		 test	 al, al
  00055	75 1c		 jne	 SHORT $LN14@AddOrDelet
$LN13@AddOrDelet:

; 749  : 		{
; 750  : 			//   :  - ojtaso (20070122)
; 751  : //			if(m_pxScaleManager && strChartName.CompareNoCase( _MTEXT( C2_OBVIOUSLY_BALANCE_CHART)))
; 752  : //				m_pxScaleManager->DelOEBTRQ(m_strRQ);
; 753  : 
; 754  : 			return true;
; 755  : 		}
; 756  : 	}
; 757  : 
; 758  : 	//   .
; 759  : 	//->()    
; 760  : 	RollbackLastNoOneChart();

  00057	8b ce		 mov	 ecx, esi
  00059	e8 00 00 00 00	 call	 ?RollbackLastNoOneChart@CKTBChartCtrl@@AAE_NXZ ; CKTBChartCtrl::RollbackLastNoOneChart

; 761  : 
; 762  : 	// (2006/6/12 - Seung-Won, Bae) Delete General Graph with Special Chart Back.
; 763  : 	// (2007/1/20 - Seung-Won, Bae) Support Multiple Same-Name Indicator.
; 764  : 	if( !m_bMultipleSameNameIndicator) if( DeleteChart_Genneral( strChartName)) return true;

  0005e	83 be 94 05 00
	00 00		 cmp	 DWORD PTR [esi+1428], 0
  00065	75 22		 jne	 SHORT $LN7@AddOrDelet
  00067	57		 push	 edi
  00068	8b ce		 mov	 ecx, esi
  0006a	e8 00 00 00 00	 call	 ?DeleteChart_Genneral@CKTBChartCtrl@@AAE_NABV?$CStringT@DV?$StrTraitMFC_DLL@DV?$ChTraitsCRT@D@ATL@@@@@ATL@@@Z ; CKTBChartCtrl::DeleteChart_Genneral
  0006f	84 c0		 test	 al, al
  00071	74 16		 je	 SHORT $LN7@AddOrDelet
$LN14@AddOrDelet:
  00073	b0 01		 mov	 al, 1

; 775  : }

  00075	8b 4d f4	 mov	 ecx, DWORD PTR __$EHRec$[ebp]
  00078	64 89 0d 00 00
	00 00		 mov	 DWORD PTR fs:0, ecx
  0007f	59		 pop	 ecx
  00080	5f		 pop	 edi
  00081	5e		 pop	 esi
  00082	5b		 pop	 ebx
  00083	8b e5		 mov	 esp, ebp
  00085	5d		 pop	 ebp
  00086	c2 08 00	 ret	 8
$LN7@AddOrDelet:

; 765  : 
; 766  : 	// style 
; 767  : 	CString strGraphName;

  00089	8d 4d 08	 lea	 ecx, DWORD PTR _strGraphName$[ebp]
  0008c	ff 15 00 00 00
	00		 call	 DWORD PTR __imp_??0?$CStringT@DV?$StrTraitMFC_DLL@DV?$ChTraitsCRT@D@ATL@@@@@ATL@@QAE@XZ

; 768  : 	//  RQ    - ojtaso (20080516)
; 769  : 	if( ChangeChart_PriceChartStyle( strChartName, strGraphName, bSelect)) return true;

  00092	ff 75 0c	 push	 DWORD PTR _bSelect$[ebp]
  00095	8d 45 08	 lea	 eax, DWORD PTR _strGraphName$[ebp]
  00098	c7 45 fc 00 00
	00 00		 mov	 DWORD PTR __$EHRec$[ebp+8], 0
  0009f	50		 push	 eax
  000a0	57		 push	 edi
  000a1	8b ce		 mov	 ecx, esi
  000a3	e8 00 00 00 00	 call	 ?ChangeChart_PriceChartStyle@CKTBChartCtrl@@AAEHABV?$CStringT@DV?$StrTraitMFC_DLL@DV?$ChTraitsCRT@D@ATL@@@@@ATL@@AAV23@H@Z ; CKTBChartCtrl::ChangeChart_PriceChartStyle
  000a8	85 c0		 test	 eax, eax
  000aa	74 21		 je	 SHORT $LN8@AddOrDelet

; 773  : 
; 774  : 	return bReturn;

  000ac	8d 4d 08	 lea	 ecx, DWORD PTR _strGraphName$[ebp]
  000af	b3 01		 mov	 bl, 1
  000b1	ff 15 00 00 00
	00		 call	 DWORD PTR __imp_??1?$CStringT@DV?$StrTraitMFC_DLL@DV?$ChTraitsCRT@D@ATL@@@@@ATL@@QAE@XZ
  000b7	8a c3		 mov	 al, bl

; 775  : }

  000b9	8b 4d f4	 mov	 ecx, DWORD PTR __$EHRec$[ebp]
  000bc	64 89 0d 00 00
	00 00		 mov	 DWORD PTR fs:0, ecx
  000c3	59		 pop	 ecx
  000c4	5f		 pop	 edi
  000c5	5e		 pop	 esi
  000c6	5b		 pop	 ebx
  000c7	8b e5		 mov	 esp, ebp
  000c9	5d		 pop	 ebp
  000ca	c2 08 00	 ret	 8
$LN8@AddOrDelet:

; 770  : 
; 771  :    	// 
; 772  : 	BOOL bReturn = AddChart_GenneralChart(strChartName, strGraphName);

  000cd	6a 01		 push	 1
  000cf	8d 45 08	 lea	 eax, DWORD PTR _strGraphName$[ebp]
  000d2	8b ce		 mov	 ecx, esi
  000d4	50		 push	 eax
  000d5	57		 push	 edi
  000d6	e8 00 00 00 00	 call	 ?AddChart_GenneralChart@CKTBChartCtrl@@AAEHABV?$CStringT@DV?$StrTraitMFC_DLL@DV?$ChTraitsCRT@D@ATL@@@@@ATL@@AAV23@H@Z ; CKTBChartCtrl::AddChart_GenneralChart

; 773  : 
; 774  : 	return bReturn;

  000db	85 c0		 test	 eax, eax
  000dd	8d 4d 08	 lea	 ecx, DWORD PTR _strGraphName$[ebp]
  000e0	0f 95 c3	 setne	 bl
  000e3	ff 15 00 00 00
	00		 call	 DWORD PTR __imp_??1?$CStringT@DV?$StrTraitMFC_DLL@DV?$ChTraitsCRT@D@ATL@@@@@ATL@@QAE@XZ
  000e9	8a c3		 mov	 al, bl

; 775  : }

  000eb	8b 4d f4	 mov	 ecx, DWORD PTR __$EHRec$[ebp]
  000ee	64 89 0d 00 00
	00 00		 mov	 DWORD PTR fs:0, ecx
  000f5	59		 pop	 ecx
  000f6	5f		 pop	 edi
  000f7	5e		 pop	 esi
  000f8	5b		 pop	 ebx
  000f9	8b e5		 mov	 esp, ebp
  000fb	5d		 pop	 ebp
  000fc	c2 08 00	 ret	 8
$LN3@AddOrDelet:

; 742  : 		return false;

  000ff	32 c0		 xor	 al, al

; 775  : }

  00101	8b 4d f4	 mov	 ecx, DWORD PTR __$EHRec$[ebp]
  00104	64 89 0d 00 00
	00 00		 mov	 DWORD PTR fs:0, ecx
  0010b	59		 pop	 ecx
  0010c	5f		 pop	 edi
  0010d	5e		 pop	 esi
  0010e	5b		 pop	 ebx
  0010f	8b e5		 mov	 esp, ebp
  00111	5d		 pop	 ebp
  00112	c2 08 00	 ret	 8
_TEXT	ENDS
;	COMDAT text$x
text$x	SEGMENT
__unwindfunclet$?AddOrDeleteChart_Genneral@CKTBChartCtrl@@AAE_NABV?$CStringT@DV?$StrTraitMFC_DLL@DV?$ChTraitsCRT@D@ATL@@@@@ATL@@H@Z$0:
  00000	8d 4d 08	 lea	 ecx, DWORD PTR _strGraphName$[ebp]
  00003	ff 25 00 00 00
	00		 jmp	 DWORD PTR __imp_??1?$CStringT@DV?$StrTraitMFC_DLL@DV?$ChTraitsCRT@D@ATL@@@@@ATL@@QAE@XZ
  00009	cc		 int	 3
  0000a	cc		 int	 3
  0000b	cc		 int	 3
  0000c	cc		 int	 3
  0000d	cc		 int	 3
__ehhandler$?AddOrDeleteChart_Genneral@CKTBChartCtrl@@AAE_NABV?$CStringT@DV?$StrTraitMFC_DLL@DV?$ChTraitsCRT@D@ATL@@@@@ATL@@H@Z:
  0000e	90		 npad	 1
  0000f	90		 npad	 1
  00010	8b 54 24 08	 mov	 edx, DWORD PTR [esp+8]
  00014	8d 42 0c	 lea	 eax, DWORD PTR [edx+12]
  00017	8b 4a f0	 mov	 ecx, DWORD PTR [edx-16]
  0001a	33 c8		 xor	 ecx, eax
  0001c	e8 00 00 00 00	 call	 @__security_check_cookie@4
  00021	b8 00 00 00 00	 mov	 eax, OFFSET __ehfuncinfo$?AddOrDeleteChart_Genneral@CKTBChartCtrl@@AAE_NABV?$CStringT@DV?$StrTraitMFC_DLL@DV?$ChTraitsCRT@D@ATL@@@@@ATL@@H@Z
  00026	e9 00 00 00 00	 jmp	 ___CxxFrameHandler3
text$x	ENDS
?AddOrDeleteChart_Genneral@CKTBChartCtrl@@AAE_NABV?$CStringT@DV?$StrTraitMFC_DLL@DV?$ChTraitsCRT@D@ATL@@@@@ATL@@H@Z ENDP ; CKTBChartCtrl::AddOrDeleteChart_Genneral
; Function compile flags: /Ogtp
; File D:\git\src\IBK\IBK_DRFN\ProjSrc\SrcChartEx\ChartOCX\KTBChart\KTBChartDLL.cpp
; File C:\Program Files (x86)\Microsoft Visual Studio\2019\Community\VC\Tools\MSVC\14.29.30133\atlmfc\include\atlsimpstr.h
; File D:\git\src\IBK\IBK_DRFN\ProjSrc\SrcChartEx\ChartOCX\KTBChart\KTBChartDLL.cpp
;	COMDAT ?AddOrDeleteChart_Special@CKTBChartCtrl@@AAE_NABV?$CStringT@DV?$StrTraitMFC_DLL@DV?$ChTraitsCRT@D@ATL@@@@@ATL@@@Z
_TEXT	SEGMENT
__$EHRec$ = -12						; size = 12
_strGraphName$2 = 8					; size = 4
_strIndicatorName$ = 8					; size = 4
?AddOrDeleteChart_Special@CKTBChartCtrl@@AAE_NABV?$CStringT@DV?$StrTraitMFC_DLL@DV?$ChTraitsCRT@D@ATL@@@@@ATL@@@Z PROC ; CKTBChartCtrl::AddOrDeleteChart_Special, COMDAT
; _this$ = ecx

; 712  : {

  00000	55		 push	 ebp
  00001	8b ec		 mov	 ebp, esp
  00003	6a ff		 push	 -1
  00005	68 00 00 00 00	 push	 __ehhandler$?AddOrDeleteChart_Special@CKTBChartCtrl@@AAE_NABV?$CStringT@DV?$StrTraitMFC_DLL@DV?$ChTraitsCRT@D@ATL@@@@@ATL@@@Z
  0000a	64 a1 00 00 00
	00		 mov	 eax, DWORD PTR fs:0
  00010	50		 push	 eax
  00011	56		 push	 esi
  00012	57		 push	 edi
  00013	a1 00 00 00 00	 mov	 eax, DWORD PTR ___security_cookie
  00018	33 c5		 xor	 eax, ebp
  0001a	50		 push	 eax
  0001b	8d 45 f4	 lea	 eax, DWORD PTR __$EHRec$[ebp]
  0001e	64 a3 00 00 00
	00		 mov	 DWORD PTR fs:0, eax
  00024	8b f1		 mov	 esi, ecx

; 713  : 	if(m_pIndicatorList == NULL || m_pMainBlock == NULL)

  00026	83 be 40 03 00
	00 00		 cmp	 DWORD PTR [esi+832], 0
  0002d	0f 84 9c 00 00
	00		 je	 $LN3@AddOrDelet
  00033	83 be 34 03 00
	00 00		 cmp	 DWORD PTR [esi+820], 0
  0003a	0f 84 8f 00 00
	00		 je	 $LN3@AddOrDelet
; File C:\Program Files (x86)\Microsoft Visual Studio\2019\Community\VC\Tools\MSVC\14.29.30133\atlmfc\include\atlsimpstr.h

; 377  : 		return( m_pszData );

  00040	8b 7d 08	 mov	 edi, DWORD PTR _strIndicatorName$[ebp]
; File D:\git\src\IBK\IBK_DRFN\ProjSrc\SrcChartEx\ChartOCX\KTBChart\KTBChartDLL.cpp

; 716  : 	if( !g_iMetaTable.IsSpecialGroupGraph( strIndicatorName))

  00043	b9 00 00 00 00	 mov	 ecx, OFFSET ?g_iMetaTable@@3VIMetaTable@@A ; g_iMetaTable
  00048	ff 37		 push	 DWORD PTR [edi]
  0004a	e8 00 00 00 00	 call	 ?IsSpecialGroupGraph@IMetaTable@@QAE_NPBD@Z ; IMetaTable::IsSpecialGroupGraph
  0004f	84 c0		 test	 al, al
  00051	74 7c		 je	 SHORT $LN3@AddOrDelet

; 717  : 		return false;
; 718  : 
; 719  : 	// 0. Do not remove current Special Chart in Multiple Same-Name Indicator)
; 720  : 	if( m_pMainBlock->IsExistenceIndicator( strIndicatorName)) return false;

  00053	8b 8e 34 03 00
	00		 mov	 ecx, DWORD PTR [esi+820]
  00059	57		 push	 edi
  0005a	8b 01		 mov	 eax, DWORD PTR [ecx]
  0005c	ff 90 68 02 00
	00		 call	 DWORD PTR [eax+616]
  00062	85 c0		 test	 eax, eax
  00064	75 69		 jne	 SHORT $LN3@AddOrDelet

; 721  : 
; 722  : 	//  & add     
; 723  : 	//->     .
; 724  : 	if(m_pMainBlock->IsExistenceIndicator( strIndicatorName))

  00066	8b 8e 34 03 00
	00		 mov	 ecx, DWORD PTR [esi+820]
  0006c	57		 push	 edi
  0006d	8b 01		 mov	 eax, DWORD PTR [ecx]
  0006f	ff 90 68 02 00
	00		 call	 DWORD PTR [eax+616]
  00075	85 c0		 test	 eax, eax
  00077	74 1c		 je	 SHORT $LN6@AddOrDelet

; 725  : 	{
; 726  : 		RollbackLastNoOneChart();

  00079	8b ce		 mov	 ecx, esi
  0007b	e8 00 00 00 00	 call	 ?RollbackLastNoOneChart@CKTBChartCtrl@@AAE_NXZ ; CKTBChartCtrl::RollbackLastNoOneChart

; 733  : 
; 734  : 	return true;

  00080	b0 01		 mov	 al, 1

; 735  : }

  00082	8b 4d f4	 mov	 ecx, DWORD PTR __$EHRec$[ebp]
  00085	64 89 0d 00 00
	00 00		 mov	 DWORD PTR fs:0, ecx
  0008c	59		 pop	 ecx
  0008d	5f		 pop	 edi
  0008e	5e		 pop	 esi
  0008f	8b e5		 mov	 esp, ebp
  00091	5d		 pop	 ebp
  00092	c2 04 00	 ret	 4
$LN6@AddOrDelet:

; 727  : 	}
; 728  : 	else
; 729  : 	{
; 730  : 		CString strGraphName;

  00095	8d 4d 08	 lea	 ecx, DWORD PTR _strGraphName$2[ebp]
  00098	ff 15 00 00 00
	00		 call	 DWORD PTR __imp_??0?$CStringT@DV?$StrTraitMFC_DLL@DV?$ChTraitsCRT@D@ATL@@@@@ATL@@QAE@XZ

; 731  : 		ChangeOneChart( strIndicatorName, strGraphName);

  0009e	8d 45 08	 lea	 eax, DWORD PTR _strGraphName$2[ebp]
  000a1	c7 45 fc 00 00
	00 00		 mov	 DWORD PTR __$EHRec$[ebp+8], 0
  000a8	50		 push	 eax
  000a9	57		 push	 edi
  000aa	8b ce		 mov	 ecx, esi
  000ac	e8 00 00 00 00	 call	 ?ChangeOneChart@CKTBChartCtrl@@AAEHABV?$CStringT@DV?$StrTraitMFC_DLL@DV?$ChTraitsCRT@D@ATL@@@@@ATL@@AAV23@@Z ; CKTBChartCtrl::ChangeOneChart

; 732  : 	}

  000b1	8d 4d 08	 lea	 ecx, DWORD PTR _strGraphName$2[ebp]
  000b4	ff 15 00 00 00
	00		 call	 DWORD PTR __imp_??1?$CStringT@DV?$StrTraitMFC_DLL@DV?$ChTraitsCRT@D@ATL@@@@@ATL@@QAE@XZ

; 733  : 
; 734  : 	return true;

  000ba	b0 01		 mov	 al, 1

; 735  : }

  000bc	8b 4d f4	 mov	 ecx, DWORD PTR __$EHRec$[ebp]
  000bf	64 89 0d 00 00
	00 00		 mov	 DWORD PTR fs:0, ecx
  000c6	59		 pop	 ecx
  000c7	5f		 pop	 edi
  000c8	5e		 pop	 esi
  000c9	8b e5		 mov	 esp, ebp
  000cb	5d		 pop	 ebp
  000cc	c2 04 00	 ret	 4
$LN3@AddOrDelet:

; 714  : 		return false;

  000cf	32 c0		 xor	 al, al

; 735  : }

  000d1	8b 4d f4	 mov	 ecx, DWORD PTR __$EHRec$[ebp]
  000d4	64 89 0d 00 00
	00 00		 mov	 DWORD PTR fs:0, ecx
  000db	59		 pop	 ecx
  000dc	5f		 pop	 edi
  000dd	5e		 pop	 esi
  000de	8b e5		 mov	 esp, ebp
  000e0	5d		 pop	 ebp
  000e1	c2 04 00	 ret	 4
_TEXT	ENDS
;	COMDAT text$x
text$x	SEGMENT
__unwindfunclet$?AddOrDeleteChart_Special@CKTBChartCtrl@@AAE_NABV?$CStringT@DV?$StrTraitMFC_DLL@DV?$ChTraitsCRT@D@ATL@@@@@ATL@@@Z$0:
  00000	8d 4d 08	 lea	 ecx, DWORD PTR _strGraphName$2[ebp]
  00003	ff 25 00 00 00
	00		 jmp	 DWORD PTR __imp_??1?$CStringT@DV?$StrTraitMFC_DLL@DV?$ChTraitsCRT@D@ATL@@@@@ATL@@QAE@XZ
  00009	cc		 int	 3
  0000a	cc		 int	 3
  0000b	cc		 int	 3
  0000c	cc		 int	 3
  0000d	cc		 int	 3
__ehhandler$?AddOrDeleteChart_Special@CKTBChartCtrl@@AAE_NABV?$CStringT@DV?$StrTraitMFC_DLL@DV?$ChTraitsCRT@D@ATL@@@@@ATL@@@Z:
  0000e	90		 npad	 1
  0000f	90		 npad	 1
  00010	8b 54 24 08	 mov	 edx, DWORD PTR [esp+8]
  00014	8d 42 0c	 lea	 eax, DWORD PTR [edx+12]
  00017	8b 4a f4	 mov	 ecx, DWORD PTR [edx-12]
  0001a	33 c8		 xor	 ecx, eax
  0001c	e8 00 00 00 00	 call	 @__security_check_cookie@4
  00021	b8 00 00 00 00	 mov	 eax, OFFSET __ehfuncinfo$?AddOrDeleteChart_Special@CKTBChartCtrl@@AAE_NABV?$CStringT@DV?$StrTraitMFC_DLL@DV?$ChTraitsCRT@D@ATL@@@@@ATL@@@Z
  00026	e9 00 00 00 00	 jmp	 ___CxxFrameHandler3
text$x	ENDS
?AddOrDeleteChart_Special@CKTBChartCtrl@@AAE_NABV?$CStringT@DV?$StrTraitMFC_DLL@DV?$ChTraitsCRT@D@ATL@@@@@ATL@@@Z ENDP ; CKTBChartCtrl::AddOrDeleteChart_Special
; Function compile flags: /Ogtp
; File D:\git\src\IBK\IBK_DRFN\ProjSrc\SrcChartEx\ChartOCX\KTBChart\KTBChartDLL.cpp
; File C:\Program Files (x86)\Microsoft Visual Studio\2019\Community\VC\Tools\MSVC\14.29.30133\atlmfc\include\atlsimpstr.h
; File D:\git\src\IBK\IBK_DRFN\ProjSrc\SrcChartEx\ChartOCX\KTBChart\KTBChartDLL.cpp
;	COMDAT ?AddOrDeleteChart@CKTBChartCtrl@@AAE_NABV?$CStringT@DV?$StrTraitMFC_DLL@DV?$ChTraitsCRT@D@ATL@@@@@ATL@@@Z
_TEXT	SEGMENT
__$EHRec$ = -12						; size = 12
_strName$ = 8						; size = 4
_strChartName$ = 8					; size = 4
?AddOrDeleteChart@CKTBChartCtrl@@AAE_NABV?$CStringT@DV?$StrTraitMFC_DLL@DV?$ChTraitsCRT@D@ATL@@@@@ATL@@@Z PROC ; CKTBChartCtrl::AddOrDeleteChart, COMDAT
; _this$ = ecx

; 693  : {

  00000	55		 push	 ebp
  00001	8b ec		 mov	 ebp, esp
  00003	6a ff		 push	 -1
  00005	68 00 00 00 00	 push	 __ehhandler$?AddOrDeleteChart@CKTBChartCtrl@@AAE_NABV?$CStringT@DV?$StrTraitMFC_DLL@DV?$ChTraitsCRT@D@ATL@@@@@ATL@@@Z
  0000a	64 a1 00 00 00
	00		 mov	 eax, DWORD PTR fs:0
  00010	50		 push	 eax
  00011	53		 push	 ebx
  00012	56		 push	 esi
  00013	a1 00 00 00 00	 mov	 eax, DWORD PTR ___security_cookie
  00018	33 c5		 xor	 eax, ebp
  0001a	50		 push	 eax
  0001b	8d 45 f4	 lea	 eax, DWORD PTR __$EHRec$[ebp]
  0001e	64 a3 00 00 00
	00		 mov	 DWORD PTR fs:0, eax
  00024	8b f1		 mov	 esi, ecx

; 694  : 	CString strName = strChartName;

  00026	ff 75 08	 push	 DWORD PTR _strChartName$[ebp]
  00029	8d 4d 08	 lea	 ecx, DWORD PTR _strName$[ebp]
  0002c	ff 15 00 00 00
	00		 call	 DWORD PTR __imp_??0?$CStringT@DV?$StrTraitMFC_DLL@DV?$ChTraitsCRT@D@ATL@@@@@ATL@@QAE@ABV01@@Z

; 695  : 	strName.TrimLeft();

  00032	8d 4d 08	 lea	 ecx, DWORD PTR _strName$[ebp]
  00035	c7 45 fc 00 00
	00 00		 mov	 DWORD PTR __$EHRec$[ebp+8], 0
  0003c	ff 15 00 00 00
	00		 call	 DWORD PTR __imp_?TrimLeft@?$CStringT@DV?$StrTraitMFC_DLL@DV?$ChTraitsCRT@D@ATL@@@@@ATL@@QAEAAV12@XZ

; 696  : 	strName.TrimRight();

  00042	8d 4d 08	 lea	 ecx, DWORD PTR _strName$[ebp]
  00045	ff 15 00 00 00
	00		 call	 DWORD PTR __imp_?TrimRight@?$CStringT@DV?$StrTraitMFC_DLL@DV?$ChTraitsCRT@D@ATL@@@@@ATL@@QAEAAV12@XZ
; File C:\Program Files (x86)\Microsoft Visual Studio\2019\Community\VC\Tools\MSVC\14.29.30133\atlmfc\include\atlsimpstr.h

; 533  : 		return( GetLength() == 0 );

  0004b	8b 45 08	 mov	 eax, DWORD PTR _strName$[ebp]
  0004e	83 78 f4 00	 cmp	 DWORD PTR [eax-12], 0
; File D:\git\src\IBK\IBK_DRFN\ProjSrc\SrcChartEx\ChartOCX\KTBChart\KTBChartDLL.cpp

; 697  : 	if(strName.IsEmpty() || m_pIndicatorList == NULL || m_pMainBlock == NULL)

  00052	74 3c		 je	 SHORT $LN3@AddOrDelet
  00054	83 be 40 03 00
	00 00		 cmp	 DWORD PTR [esi+832], 0
  0005b	74 33		 je	 SHORT $LN3@AddOrDelet
  0005d	83 be 34 03 00
	00 00		 cmp	 DWORD PTR [esi+820], 0
  00064	74 2a		 je	 SHORT $LN3@AddOrDelet

; 698  : 		return FALSE;
; 699  : 
; 700  : 	// 
; 701  : 	if( g_iMetaTable.IsSpecialGroupGraph(strName))

  00066	50		 push	 eax
  00067	b9 00 00 00 00	 mov	 ecx, OFFSET ?g_iMetaTable@@3VIMetaTable@@A ; g_iMetaTable
  0006c	e8 00 00 00 00	 call	 ?IsSpecialGroupGraph@IMetaTable@@QAE_NPBD@Z ; IMetaTable::IsSpecialGroupGraph
  00071	84 c0		 test	 al, al
  00073	8b ce		 mov	 ecx, esi
  00075	8d 45 08	 lea	 eax, DWORD PTR _strName$[ebp]
  00078	74 0a		 je	 SHORT $LN4@AddOrDelet

; 702  : 		return AddOrDeleteChart_Special(strName);

  0007a	50		 push	 eax
  0007b	e8 00 00 00 00	 call	 ?AddOrDeleteChart_Special@CKTBChartCtrl@@AAE_NABV?$CStringT@DV?$StrTraitMFC_DLL@DV?$ChTraitsCRT@D@ATL@@@@@ATL@@@Z ; CKTBChartCtrl::AddOrDeleteChart_Special
  00080	8a d8		 mov	 bl, al
  00082	eb 0e		 jmp	 SHORT $LN8@AddOrDelet
$LN4@AddOrDelet:

; 703  : 
; 704  : 	// 
; 705  : 	return AddOrDeleteChart_Genneral(strName);

  00084	6a 01		 push	 1
  00086	50		 push	 eax
  00087	e8 00 00 00 00	 call	 ?AddOrDeleteChart_Genneral@CKTBChartCtrl@@AAE_NABV?$CStringT@DV?$StrTraitMFC_DLL@DV?$ChTraitsCRT@D@ATL@@@@@ATL@@H@Z ; CKTBChartCtrl::AddOrDeleteChart_Genneral
  0008c	8a d8		 mov	 bl, al
  0008e	eb 02		 jmp	 SHORT $LN8@AddOrDelet
$LN3@AddOrDelet:
  00090	32 db		 xor	 bl, bl
$LN8@AddOrDelet:
  00092	8d 4d 08	 lea	 ecx, DWORD PTR _strName$[ebp]
  00095	ff 15 00 00 00
	00		 call	 DWORD PTR __imp_??1?$CStringT@DV?$StrTraitMFC_DLL@DV?$ChTraitsCRT@D@ATL@@@@@ATL@@QAE@XZ
  0009b	8a c3		 mov	 al, bl

; 706  : }

  0009d	8b 4d f4	 mov	 ecx, DWORD PTR __$EHRec$[ebp]
  000a0	64 89 0d 00 00
	00 00		 mov	 DWORD PTR fs:0, ecx
  000a7	59		 pop	 ecx
  000a8	5e		 pop	 esi
  000a9	5b		 pop	 ebx
  000aa	8b e5		 mov	 esp, ebp
  000ac	5d		 pop	 ebp
  000ad	c2 04 00	 ret	 4
_TEXT	ENDS
;	COMDAT text$x
text$x	SEGMENT
__unwindfunclet$?AddOrDeleteChart@CKTBChartCtrl@@AAE_NABV?$CStringT@DV?$StrTraitMFC_DLL@DV?$ChTraitsCRT@D@ATL@@@@@ATL@@@Z$0:
  00000	8d 4d 08	 lea	 ecx, DWORD PTR _strName$[ebp]
  00003	ff 25 00 00 00
	00		 jmp	 DWORD PTR __imp_??1?$CStringT@DV?$StrTraitMFC_DLL@DV?$ChTraitsCRT@D@ATL@@@@@ATL@@QAE@XZ
  00009	cc		 int	 3
  0000a	cc		 int	 3
  0000b	cc		 int	 3
  0000c	cc		 int	 3
  0000d	cc		 int	 3
__ehhandler$?AddOrDeleteChart@CKTBChartCtrl@@AAE_NABV?$CStringT@DV?$StrTraitMFC_DLL@DV?$ChTraitsCRT@D@ATL@@@@@ATL@@@Z:
  0000e	90		 npad	 1
  0000f	90		 npad	 1
  00010	8b 54 24 08	 mov	 edx, DWORD PTR [esp+8]
  00014	8d 42 0c	 lea	 eax, DWORD PTR [edx+12]
  00017	8b 4a f4	 mov	 ecx, DWORD PTR [edx-12]
  0001a	33 c8		 xor	 ecx, eax
  0001c	e8 00 00 00 00	 call	 @__security_check_cookie@4
  00021	b8 00 00 00 00	 mov	 eax, OFFSET __ehfuncinfo$?AddOrDeleteChart@CKTBChartCtrl@@AAE_NABV?$CStringT@DV?$StrTraitMFC_DLL@DV?$ChTraitsCRT@D@ATL@@@@@ATL@@@Z
  00026	e9 00 00 00 00	 jmp	 ___CxxFrameHandler3
text$x	ENDS
?AddOrDeleteChart@CKTBChartCtrl@@AAE_NABV?$CStringT@DV?$StrTraitMFC_DLL@DV?$ChTraitsCRT@D@ATL@@@@@ATL@@@Z ENDP ; CKTBChartCtrl::AddOrDeleteChart
; Function compile flags: /Ogtp
; File D:\git\src\IBK\IBK_DRFN\ProjSrc\SrcChartEx\ChartOCX\KTBChart\KTBChartDLL.cpp
;	COMDAT ?RmsgFormStateChange@CKTBChartCtrl@@IAEJIJ@Z
_TEXT	SEGMENT
_wParam$ = 8						; size = 4
_lParam$ = 12						; size = 4
?RmsgFormStateChange@CKTBChartCtrl@@IAEJIJ@Z PROC	; CKTBChartCtrl::RmsgFormStateChange, COMDAT
; _this$ = ecx

; 1037 : {

  00000	55		 push	 ebp
  00001	8b ec		 mov	 ebp, esp

; 1038 : 	switch(wParam)

  00003	81 7d 08 f4 01
	00 00		 cmp	 DWORD PTR _wParam$[ebp], 500 ; 000001f4H
  0000a	75 05		 jne	 SHORT $LN6@RmsgFormSt

; 1039 : 	{
; 1040 : 	case 500:
; 1041 : 		ApplySkin();

  0000c	e8 00 00 00 00	 call	 ?ApplySkin@CKTBChartCtrl@@AAE_NXZ ; CKTBChartCtrl::ApplySkin
$LN6@RmsgFormSt:

; 1042 : 		break;
; 1043 : 	}
; 1044 : 	
; 1045 : 	return 0L;	
; 1046 : }

  00011	33 c0		 xor	 eax, eax
  00013	5d		 pop	 ebp
  00014	c2 08 00	 ret	 8
?RmsgFormStateChange@CKTBChartCtrl@@IAEJIJ@Z ENDP	; CKTBChartCtrl::RmsgFormStateChange
_TEXT	ENDS
; Function compile flags: /Ogtp
; File D:\git\src\IBK\IBK_DRFN\ProjSrc\SrcChartEx\ChartOCX\KTBChart\KTBChartDLL.cpp
; File C:\Program Files (x86)\Microsoft Visual Studio\2019\Community\VC\Tools\MSVC\14.29.30133\atlmfc\include\afxwin2.inl
; File D:\git\src\IBK\IBK_DRFN\ProjSrc\SrcChartEx\ChartOCX\KTBChart\KTBChartDLL.cpp
;	COMDAT ?SendTimeOfIndexToDLL@CKTBChartCtrl@@IAEXIH@Z
_TEXT	SEGMENT
_msg$1 = -36						; size = 28
tv190 = -8						; size = 8
_p_uMessage$ = 8					; size = 4
_p_nIndex$ = 12						; size = 4
?SendTimeOfIndexToDLL@CKTBChartCtrl@@IAEXIH@Z PROC	; CKTBChartCtrl::SendTimeOfIndexToDLL, COMDAT
; _this$ = ecx

; 965  : {

  00000	55		 push	 ebp
  00001	8b ec		 mov	 ebp, esp
  00003	83 ec 24	 sub	 esp, 36			; 00000024H
  00006	53		 push	 ebx
  00007	56		 push	 esi
  00008	8b f1		 mov	 esi, ecx
  0000a	57		 push	 edi

; 966  : 	// 1.  ,  Index  .
; 967  : 	if( !m_pPacketList || p_nIndex < 0) return;

  0000b	83 be 3c 03 00
	00 00		 cmp	 DWORD PTR [esi+828], 0
  00012	0f 84 94 00 00
	00		 je	 $LN3@SendTimeOf
  00018	8b 7d 0c	 mov	 edi, DWORD PTR _p_nIndex$[ebp]
  0001b	85 ff		 test	 edi, edi
  0001d	0f 88 89 00 00
	00		 js	 $LN3@SendTimeOf

; 968  : 	CPacket* pPacket = m_pPacketList->GetBaseData( _MTEXT( C0_DATE_TIME));

  00023	a1 54 00 00 00	 mov	 eax, DWORD PTR ?g_iMetaTable@@3VIMetaTable@@A+84
  00028	6a 01		 push	 1
  0002a	51		 push	 ecx
  0002b	8b cc		 mov	 ecx, esp
  0002d	ff 30		 push	 DWORD PTR [eax]
  0002f	ff 15 00 00 00
	00		 call	 DWORD PTR __imp_??0?$CStringT@DV?$StrTraitMFC_DLL@DV?$ChTraitsCRT@D@ATL@@@@@ATL@@QAE@PBD@Z
  00035	8b 8e 3c 03 00
	00		 mov	 ecx, DWORD PTR [esi+828]
  0003b	ff 15 00 00 00
	00		 call	 DWORD PTR __imp_?GetBaseData@CPacketList@@QAEPAVCPacket@@V?$CStringT@DV?$StrTraitMFC_DLL@DV?$ChTraitsCRT@D@ATL@@@@@ATL@@_N@Z
  00041	8b d8		 mov	 ebx, eax

; 969  : 	if( !pPacket) return;

  00043	85 db		 test	 ebx, ebx
  00045	74 65		 je	 SHORT $LN3@SendTimeOf

; 970  : 	if( pPacket->GetCount() <= p_nIndex) return;

  00047	8b 03		 mov	 eax, DWORD PTR [ebx]
  00049	8b cb		 mov	 ecx, ebx
  0004b	ff 50 14	 call	 DWORD PTR [eax+20]
  0004e	3b c7		 cmp	 eax, edi
  00050	7e 5a		 jle	 SHORT $LN3@SendTimeOf

; 971  : 	long lDate = pPacket->GetData( p_nIndex);

  00052	57		 push	 edi
  00053	8b cb		 mov	 ecx, ebx
  00055	ff 15 00 00 00
	00		 call	 DWORD PTR __imp_?GetData@CPacket@@QAENH@Z
; File C:\Program Files (x86)\Microsoft Visual Studio\2019\Community\VC\Tools\MSVC\14.29.30133\atlmfc\include\afxwin2.inl

; 25   : 	{ return this == NULL ? NULL : m_hWnd; }

  0005b	8b 46 20	 mov	 eax, DWORD PTR [esi+32]
  0005e	89 45 dc	 mov	 DWORD PTR _msg$1[ebp], eax
; File D:\git\src\IBK\IBK_DRFN\ProjSrc\SrcChartEx\ChartOCX\KTBChart\KTBChartDLL.cpp

; 39   : 	msg.message	= message;

  00061	8b 45 08	 mov	 eax, DWORD PTR _p_uMessage$[ebp]
  00064	89 45 e0	 mov	 DWORD PTR _msg$1[ebp+4], eax

; 40   : 	msg.wParam	= wParam;
; 41   : 	msg.lParam	= lParam;
; 42   : 	msg.time	= 0;
; 43   : 	msg.pt.x	= 0;
; 44   : 	msg.pt.y	= 0;
; 45   : 	return ::SendMessage( m_hContainerDllWnd, RMSG_CHARTMSG_EVENTMESSAGE, m_nID, ( LPARAM)&msg);

  00067	8d 45 dc	 lea	 eax, DWORD PTR _msg$1[ebp]
  0006a	50		 push	 eax
  0006b	0f bf 86 c4 04
	00 00		 movsx	 eax, WORD PTR [esi+1220]

; 971  : 	long lDate = pPacket->GetData( p_nIndex);

  00072	dd 5d f8	 fstp	 QWORD PTR tv190[ebp]
  00075	f2 0f 2c 4d f8	 cvttsd2si ecx, QWORD PTR tv190[ebp]

; 45   : 	return ::SendMessage( m_hContainerDllWnd, RMSG_CHARTMSG_EVENTMESSAGE, m_nID, ( LPARAM)&msg);

  0007a	50		 push	 eax
  0007b	c7 45 e4 00 00
	00 00		 mov	 DWORD PTR _msg$1[ebp+8], 0
  00082	c7 45 ec 00 00
	00 00		 mov	 DWORD PTR _msg$1[ebp+16], 0
  00089	c7 45 f0 00 00
	00 00		 mov	 DWORD PTR _msg$1[ebp+20], 0
  00090	c7 45 f4 00 00
	00 00		 mov	 DWORD PTR _msg$1[ebp+24], 0
  00097	ff 35 00 00 00
	00		 push	 DWORD PTR ?RMSG_CHARTMSG_EVENTMESSAGE@@3IB ; RMSG_CHARTMSG_EVENTMESSAGE
  0009d	89 4d e8	 mov	 DWORD PTR _msg$1[ebp+12], ecx
  000a0	ff b6 c0 04 00
	00		 push	 DWORD PTR [esi+1216]
  000a6	ff 15 00 00 00
	00		 call	 DWORD PTR __imp__SendMessageA@16
$LN3@SendTimeOf:

; 972  : 	// 2.   DLL Container .
; 973  : 	SendEventMsgToDLL( p_uMessage, 0, lDate);
; 974  : }

  000ac	5f		 pop	 edi
  000ad	5e		 pop	 esi
  000ae	5b		 pop	 ebx
  000af	8b e5		 mov	 esp, ebp
  000b1	5d		 pop	 ebp
  000b2	c2 08 00	 ret	 8
?SendTimeOfIndexToDLL@CKTBChartCtrl@@IAEXIH@Z ENDP	; CKTBChartCtrl::SendTimeOfIndexToDLL
_TEXT	ENDS
; Function compile flags: /Ogtp
; File D:\git\src\IBK\IBK_DRFN\ProjSrc\SrcChartEx\ChartOCX\KTBChart\KTBChartDLL.cpp
; File C:\Program Files (x86)\Microsoft Visual Studio\2019\Community\VC\Tools\MSVC\14.29.30133\atlmfc\include\afxwin2.inl
; File D:\git\src\IBK\IBK_DRFN\ProjSrc\SrcChartEx\ChartOCX\KTBChart\KTBChartDLL.cpp
;	COMDAT ?SendEventMsgToDLL@CKTBChartCtrl@@QAEJIIJ@Z
_TEXT	SEGMENT
_msg$ = -28						; size = 28
_message$ = 8						; size = 4
_wParam$ = 12						; size = 4
_lParam$ = 16						; size = 4
?SendEventMsgToDLL@CKTBChartCtrl@@QAEJIIJ@Z PROC	; CKTBChartCtrl::SendEventMsgToDLL, COMDAT
; _this$ = ecx

; 36   : {

  00000	55		 push	 ebp
  00001	8b ec		 mov	 ebp, esp
  00003	83 ec 1c	 sub	 esp, 28			; 0000001cH
; File C:\Program Files (x86)\Microsoft Visual Studio\2019\Community\VC\Tools\MSVC\14.29.30133\atlmfc\include\afxwin2.inl

; 25   : 	{ return this == NULL ? NULL : m_hWnd; }

  00006	85 c9		 test	 ecx, ecx
  00008	75 05		 jne	 SHORT $LN5@SendEventM
  0000a	89 4d e4	 mov	 DWORD PTR _msg$[ebp], ecx
  0000d	eb 06		 jmp	 SHORT $LN6@SendEventM
$LN5@SendEventM:
  0000f	8b 41 20	 mov	 eax, DWORD PTR [ecx+32]
  00012	89 45 e4	 mov	 DWORD PTR _msg$[ebp], eax
$LN6@SendEventM:
; File D:\git\src\IBK\IBK_DRFN\ProjSrc\SrcChartEx\ChartOCX\KTBChart\KTBChartDLL.cpp

; 39   : 	msg.message	= message;

  00015	8b 45 08	 mov	 eax, DWORD PTR _message$[ebp]
  00018	89 45 e8	 mov	 DWORD PTR _msg$[ebp+4], eax

; 40   : 	msg.wParam	= wParam;

  0001b	8b 45 0c	 mov	 eax, DWORD PTR _wParam$[ebp]
  0001e	89 45 ec	 mov	 DWORD PTR _msg$[ebp+8], eax

; 41   : 	msg.lParam	= lParam;

  00021	8b 45 10	 mov	 eax, DWORD PTR _lParam$[ebp]
  00024	89 45 f0	 mov	 DWORD PTR _msg$[ebp+12], eax

; 42   : 	msg.time	= 0;
; 43   : 	msg.pt.x	= 0;
; 44   : 	msg.pt.y	= 0;
; 45   : 	return ::SendMessage( m_hContainerDllWnd, RMSG_CHARTMSG_EVENTMESSAGE, m_nID, ( LPARAM)&msg);

  00027	8d 45 e4	 lea	 eax, DWORD PTR _msg$[ebp]
  0002a	50		 push	 eax
  0002b	0f bf 81 c4 04
	00 00		 movsx	 eax, WORD PTR [ecx+1220]
  00032	50		 push	 eax
  00033	ff 35 00 00 00
	00		 push	 DWORD PTR ?RMSG_CHARTMSG_EVENTMESSAGE@@3IB ; RMSG_CHARTMSG_EVENTMESSAGE
  00039	c7 45 f4 00 00
	00 00		 mov	 DWORD PTR _msg$[ebp+16], 0
  00040	ff b1 c0 04 00
	00		 push	 DWORD PTR [ecx+1216]
  00046	c7 45 f8 00 00
	00 00		 mov	 DWORD PTR _msg$[ebp+20], 0
  0004d	c7 45 fc 00 00
	00 00		 mov	 DWORD PTR _msg$[ebp+24], 0
  00054	ff 15 00 00 00
	00		 call	 DWORD PTR __imp__SendMessageA@16

; 46   : }

  0005a	8b e5		 mov	 esp, ebp
  0005c	5d		 pop	 ebp
  0005d	c2 0c 00	 ret	 12			; 0000000cH
?SendEventMsgToDLL@CKTBChartCtrl@@QAEJIIJ@Z ENDP	; CKTBChartCtrl::SendEventMsgToDLL
_TEXT	ENDS
; Function compile flags: /Ogtp
; File D:\git\src\IBK\IBK_DRFN\ProjSrc\SrcChartEx\ChartOCX\KTBChart\KTBChartDLL.cpp
; File C:\Program Files (x86)\Microsoft Visual Studio\2019\Community\VC\Tools\MSVC\14.29.30133\atlmfc\include\atlsimpstr.h
; File D:\git\src\IBK\IBK_DRFN\ProjSrc\SrcChartEx\ChartOCX\KTBChart\KTBChartDLL.cpp
;	COMDAT ?AddChartAllBlock@CKTBChartCtrl@@IAEHPBD@Z
_TEXT	SEGMENT
__$EHRec$ = -12						; size = 12
_strName$ = 8						; size = 4
_strChartName$ = 8					; size = 4
?AddChartAllBlock@CKTBChartCtrl@@IAEHPBD@Z PROC		; CKTBChartCtrl::AddChartAllBlock, COMDAT
; _this$ = ecx

; 1104 : {

  00000	55		 push	 ebp
  00001	8b ec		 mov	 ebp, esp
  00003	6a ff		 push	 -1
  00005	68 00 00 00 00	 push	 __ehhandler$?AddChartAllBlock@CKTBChartCtrl@@IAEHPBD@Z
  0000a	64 a1 00 00 00
	00		 mov	 eax, DWORD PTR fs:0
  00010	50		 push	 eax
  00011	56		 push	 esi
  00012	a1 00 00 00 00	 mov	 eax, DWORD PTR ___security_cookie
  00017	33 c5		 xor	 eax, ebp
  00019	50		 push	 eax
  0001a	8d 45 f4	 lea	 eax, DWORD PTR __$EHRec$[ebp]
  0001d	64 a3 00 00 00
	00		 mov	 DWORD PTR fs:0, eax
  00023	8b f1		 mov	 esi, ecx

; 1105 : 	CString strName = strChartName;

  00025	ff 75 08	 push	 DWORD PTR _strChartName$[ebp]
  00028	8d 4d 08	 lea	 ecx, DWORD PTR _strName$[ebp]
  0002b	ff 15 00 00 00
	00		 call	 DWORD PTR __imp_??0?$CStringT@DV?$StrTraitMFC_DLL@DV?$ChTraitsCRT@D@ATL@@@@@ATL@@QAE@PBD@Z

; 1106 : 	strName.TrimLeft();

  00031	8d 4d 08	 lea	 ecx, DWORD PTR _strName$[ebp]
  00034	c7 45 fc 00 00
	00 00		 mov	 DWORD PTR __$EHRec$[ebp+8], 0
  0003b	ff 15 00 00 00
	00		 call	 DWORD PTR __imp_?TrimLeft@?$CStringT@DV?$StrTraitMFC_DLL@DV?$ChTraitsCRT@D@ATL@@@@@ATL@@QAEAAV12@XZ

; 1107 : 	strName.TrimRight();

  00041	8d 4d 08	 lea	 ecx, DWORD PTR _strName$[ebp]
  00044	ff 15 00 00 00
	00		 call	 DWORD PTR __imp_?TrimRight@?$CStringT@DV?$StrTraitMFC_DLL@DV?$ChTraitsCRT@D@ATL@@@@@ATL@@QAEAAV12@XZ
; File C:\Program Files (x86)\Microsoft Visual Studio\2019\Community\VC\Tools\MSVC\14.29.30133\atlmfc\include\atlsimpstr.h

; 533  : 		return( GetLength() == 0 );

  0004a	8b 45 08	 mov	 eax, DWORD PTR _strName$[ebp]
  0004d	83 78 f4 00	 cmp	 DWORD PTR [eax-12], 0
; File D:\git\src\IBK\IBK_DRFN\ProjSrc\SrcChartEx\ChartOCX\KTBChart\KTBChartDLL.cpp

; 1108 : 	if(strName.IsEmpty() || m_pIndicatorList == NULL || m_pMainBlock == NULL)

  00051	74 3e		 je	 SHORT $LN3@AddChartAl
  00053	83 be 40 03 00
	00 00		 cmp	 DWORD PTR [esi+832], 0
  0005a	74 35		 je	 SHORT $LN3@AddChartAl
  0005c	83 be 34 03 00
	00 00		 cmp	 DWORD PTR [esi+820], 0
  00063	74 2c		 je	 SHORT $LN3@AddChartAl

; 1109 : 		return FALSE;
; 1110 : 
; 1111 : 	// 
; 1112 : 	if( g_iMetaTable.IsSpecialGroupGraph(strName))

  00065	50		 push	 eax
  00066	b9 00 00 00 00	 mov	 ecx, OFFSET ?g_iMetaTable@@3VIMetaTable@@A ; g_iMetaTable
  0006b	e8 00 00 00 00	 call	 ?IsSpecialGroupGraph@IMetaTable@@QAE_NPBD@Z ; IMetaTable::IsSpecialGroupGraph
  00070	84 c0		 test	 al, al
  00072	8b ce		 mov	 ecx, esi
  00074	8d 45 08	 lea	 eax, DWORD PTR _strName$[ebp]
  00077	74 0b		 je	 SHORT $LN4@AddChartAl

; 1113 : 		return AddOrDeleteChart_Special(strName);

  00079	50		 push	 eax
  0007a	e8 00 00 00 00	 call	 ?AddOrDeleteChart_Special@CKTBChartCtrl@@AAE_NABV?$CStringT@DV?$StrTraitMFC_DLL@DV?$ChTraitsCRT@D@ATL@@@@@ATL@@@Z ; CKTBChartCtrl::AddOrDeleteChart_Special
  0007f	0f b6 f0	 movzx	 esi, al
  00082	eb 0f		 jmp	 SHORT $LN8@AddChartAl
$LN4@AddChartAl:

; 1114 : 
; 1115 : 	// 
; 1116 : 	return AddOrDeleteChart_Genneral(strName, FALSE);

  00084	6a 00		 push	 0
  00086	50		 push	 eax
  00087	e8 00 00 00 00	 call	 ?AddOrDeleteChart_Genneral@CKTBChartCtrl@@AAE_NABV?$CStringT@DV?$StrTraitMFC_DLL@DV?$ChTraitsCRT@D@ATL@@@@@ATL@@H@Z ; CKTBChartCtrl::AddOrDeleteChart_Genneral
  0008c	0f b6 f0	 movzx	 esi, al
  0008f	eb 02		 jmp	 SHORT $LN8@AddChartAl
$LN3@AddChartAl:
  00091	33 f6		 xor	 esi, esi
$LN8@AddChartAl:
  00093	8d 4d 08	 lea	 ecx, DWORD PTR _strName$[ebp]
  00096	ff 15 00 00 00
	00		 call	 DWORD PTR __imp_??1?$CStringT@DV?$StrTraitMFC_DLL@DV?$ChTraitsCRT@D@ATL@@@@@ATL@@QAE@XZ
  0009c	8b c6		 mov	 eax, esi

; 1117 : }

  0009e	8b 4d f4	 mov	 ecx, DWORD PTR __$EHRec$[ebp]
  000a1	64 89 0d 00 00
	00 00		 mov	 DWORD PTR fs:0, ecx
  000a8	59		 pop	 ecx
  000a9	5e		 pop	 esi
  000aa	8b e5		 mov	 esp, ebp
  000ac	5d		 pop	 ebp
  000ad	c2 04 00	 ret	 4
_TEXT	ENDS
;	COMDAT text$x
text$x	SEGMENT
__unwindfunclet$?AddChartAllBlock@CKTBChartCtrl@@IAEHPBD@Z$0:
  00000	8d 4d 08	 lea	 ecx, DWORD PTR _strName$[ebp]
  00003	ff 25 00 00 00
	00		 jmp	 DWORD PTR __imp_??1?$CStringT@DV?$StrTraitMFC_DLL@DV?$ChTraitsCRT@D@ATL@@@@@ATL@@QAE@XZ
  00009	cc		 int	 3
  0000a	cc		 int	 3
  0000b	cc		 int	 3
  0000c	cc		 int	 3
  0000d	cc		 int	 3
__ehhandler$?AddChartAllBlock@CKTBChartCtrl@@IAEHPBD@Z:
  0000e	90		 npad	 1
  0000f	90		 npad	 1
  00010	8b 54 24 08	 mov	 edx, DWORD PTR [esp+8]
  00014	8d 42 0c	 lea	 eax, DWORD PTR [edx+12]
  00017	8b 4a f8	 mov	 ecx, DWORD PTR [edx-8]
  0001a	33 c8		 xor	 ecx, eax
  0001c	e8 00 00 00 00	 call	 @__security_check_cookie@4
  00021	b8 00 00 00 00	 mov	 eax, OFFSET __ehfuncinfo$?AddChartAllBlock@CKTBChartCtrl@@IAEHPBD@Z
  00026	e9 00 00 00 00	 jmp	 ___CxxFrameHandler3
text$x	ENDS
?AddChartAllBlock@CKTBChartCtrl@@IAEHPBD@Z ENDP		; CKTBChartCtrl::AddChartAllBlock
; Function compile flags: /Ogtp
; File D:\git\src\IBK\IBK_DRFN\ProjSrc\SrcChartEx\ChartOCX\KTBChart\KTBChartDLL.cpp
;	COMDAT ?SetMultiItemMode@CKTBChartCtrl@@IAEXH@Z
_TEXT	SEGMENT
_bMultiItem$ = 8					; size = 4
?SetMultiItemMode@CKTBChartCtrl@@IAEXH@Z PROC		; CKTBChartCtrl::SetMultiItemMode, COMDAT
; _this$ = ecx

; 1092 : {

  00000	55		 push	 ebp
  00001	8b ec		 mov	 ebp, esp

; 1093 : 	if(m_bUseMultiItemMode == bMultiItem)

  00003	8b 55 08	 mov	 edx, DWORD PTR _bMultiItem$[ebp]
  00006	39 91 a4 05 00
	00		 cmp	 DWORD PTR [ecx+1444], edx
  0000c	74 1c		 je	 SHORT $LN3@SetMultiIt

; 1094 : 		return;
; 1095 : 
; 1096 : 	m_bUseMultiItemMode = bMultiItem;

  0000e	89 91 a4 05 00
	00		 mov	 DWORD PTR [ecx+1444], edx

; 1097 : 	
; 1098 : 	if(m_pMainBlock)

  00014	8b 89 34 03 00
	00		 mov	 ecx, DWORD PTR [ecx+820]
  0001a	85 c9		 test	 ecx, ecx
  0001c	74 0c		 je	 SHORT $LN3@SetMultiIt

; 1099 : 		m_pMainBlock->SetMultiItemMode(bMultiItem);

  0001e	8b 01		 mov	 eax, DWORD PTR [ecx]
  00020	89 55 08	 mov	 DWORD PTR _bMultiItem$[ebp], edx

; 1100 : }

  00023	5d		 pop	 ebp

; 1099 : 		m_pMainBlock->SetMultiItemMode(bMultiItem);

  00024	ff a0 18 02 00
	00		 jmp	 DWORD PTR [eax+536]
$LN3@SetMultiIt:

; 1100 : }

  0002a	5d		 pop	 ebp
  0002b	c2 04 00	 ret	 4
?SetMultiItemMode@CKTBChartCtrl@@IAEXH@Z ENDP		; CKTBChartCtrl::SetMultiItemMode
_TEXT	ENDS
; Function compile flags: /Ogtp
; File D:\git\src\IBK\IBK_DRFN\ProjSrc\SrcChartEx\ChartOCX\KTBChart\KTBChartDLL.cpp
;	COMDAT ?EmptyChart2@CKTBChartCtrl@@IAEHPBDHH@Z
_TEXT	SEGMENT
_p_szChartList$ = 8					; size = 4
_p_bIsDeleteAllPacket$ = 12				; size = 4
_p_bIsDefault$ = 16					; size = 4
?EmptyChart2@CKTBChartCtrl@@IAEHPBDHH@Z PROC		; CKTBChartCtrl::EmptyChart2, COMDAT
; _this$ = ecx

; 624  : {

  00000	55		 push	 ebp
  00001	8b ec		 mov	 ebp, esp
  00003	56		 push	 esi
  00004	8b f1		 mov	 esi, ecx

; 625  : 	// TODO: Add your dispatch handler code here
; 626  : 
; 627  : 	if(m_pPacketList == NULL || m_pIndicatorList == NULL || m_pMainBlock == NULL)

  00006	83 be 3c 03 00
	00 00		 cmp	 DWORD PTR [esi+828], 0
  0000d	0f 84 d0 00 00
	00		 je	 $LN3@EmptyChart
  00013	83 be 40 03 00
	00 00		 cmp	 DWORD PTR [esi+832], 0
  0001a	0f 84 c3 00 00
	00		 je	 $LN3@EmptyChart
  00020	83 be 34 03 00
	00 00		 cmp	 DWORD PTR [esi+820], 0
  00027	0f 84 b6 00 00
	00		 je	 $LN3@EmptyChart

; 629  : 
; 630  : 	RunToolFunction(CToolOptionInfo::T_DELETE_ALL, 1);

  0002d	8b 06		 mov	 eax, DWORD PTR [esi]
  0002f	6a 01		 push	 1
  00031	6a 3d		 push	 61			; 0000003dH
  00033	ff 90 18 03 00
	00		 call	 DWORD PTR [eax+792]

; 654  : 	m_strChartList = p_szChartList;

  00039	ff 75 08	 push	 DWORD PTR _p_szChartList$[ebp]
  0003c	8d 8e 80 05 00
	00		 lea	 ecx, DWORD PTR [esi+1408]
  00042	c7 86 28 02 00
	00 01 00 00 00	 mov	 DWORD PTR [esi+552], 1
  0004c	c7 86 2c 02 00
	00 01 00 00 00	 mov	 DWORD PTR [esi+556], 1
  00056	ff 15 00 00 00
	00		 call	 DWORD PTR __imp_??4?$CStringT@DV?$StrTraitMFC_DLL@DV?$ChTraitsCRT@D@ATL@@@@@ATL@@QAEAAV01@PBD@Z

; 655  : 	m_strBlockRegion = "";

  0005c	68 00 00 00 00	 push	 OFFSET ??_C@_00CNPNBAHC@@
  00061	8d 8e 9c 03 00
	00		 lea	 ecx, DWORD PTR [esi+924]
  00067	ff 15 00 00 00
	00		 call	 DWORD PTR __imp_??4?$CStringT@DV?$StrTraitMFC_DLL@DV?$ChTraitsCRT@D@ATL@@@@@ATL@@QAEAAV01@PBD@Z

; 656  : 
; 657  : 	//
; 658  : 	SetMainBlock_MainBlock(true);

  0006d	6a 01		 push	 1
  0006f	6a 01		 push	 1
  00071	8b ce		 mov	 ecx, esi
  00073	e8 00 00 00 00	 call	 ?SetMainBlock_MainBlock@CKTBChartCtrl@@AAEX_NH@Z ; CKTBChartCtrl::SetMainBlock_MainBlock

; 631  : 
; 632  : 	// OCX  /
; 633  : 	SetEmptyOcxData( p_szChartList);
; 634  : 
; 635  : 	//  Packet Data Clear
; 636  : 	m_pPacketList->ClearDataAll( p_bIsDeleteAllPacket);

  00078	83 7d 0c 00	 cmp	 DWORD PTR _p_bIsDeleteAllPacket$[ebp], 0
  0007c	8b 8e 3c 03 00
	00		 mov	 ecx, DWORD PTR [esi+828]
  00082	0f 95 c0	 setne	 al
  00085	0f b6 c0	 movzx	 eax, al
  00088	50		 push	 eax
  00089	ff 15 00 00 00
	00		 call	 DWORD PTR __imp_?ClearDataAll@CPacketList@@QAEH_N@Z

; 637  : 	m_pIndicatorList->RemoveAllIndicatorInfo( EILT_USER);

  0008f	8b 8e 40 03 00
	00		 mov	 ecx, DWORD PTR [esi+832]
  00095	6a 03		 push	 3
  00097	ff 15 00 00 00
	00		 call	 DWORD PTR __imp_?RemoveAllIndicatorInfo@CIndicatorList@@QAEHW4EIndicatorListType@@@Z

; 638  : 	m_pMainBlock->Initialize_IndicatorInfo( FALSE);

  0009d	8b 8e 34 03 00
	00		 mov	 ecx, DWORD PTR [esi+820]
  000a3	6a 00		 push	 0
  000a5	8b 01		 mov	 eax, DWORD PTR [ecx]
  000a7	ff 90 38 01 00
	00		 call	 DWORD PTR [eax+312]

; 639  : 
; 640  : 	//   : data  
; 641  : 	ResetScroll();

  000ad	6a 00		 push	 0
  000af	8b ce		 mov	 ecx, esi
  000b1	e8 00 00 00 00	 call	 ?ResetScroll@CKTBChartCtrl@@QAEXH@Z ; CKTBChartCtrl::ResetScroll

; 642  : 
; 643  : 	//  default 
; 644  : 	if( p_bIsDefault) ResetChartCfgWith(0);

  000b6	83 7d 10 00	 cmp	 DWORD PTR _p_bIsDefault$[ebp], 0
  000ba	74 1d		 je	 SHORT $LN11@EmptyChart

; 586  :  	if(p_nIndex <= 0)

  000bc	8d 8e e4 03 00
	00		 lea	 ecx, DWORD PTR [esi+996]

; 587  : 		m_SaveChartcfg.RemoveAll();

  000c2	e8 00 00 00 00	 call	 ?RemoveAll@CSaveChartCfgList@@QAEXXZ ; CSaveChartCfgList::RemoveAll

; 588  : 	else
; 589  : 		m_SaveChartcfg.RemoveFromIndexToEnd(p_nIndex);
; 590  : 
; 591  : 	SaveChartCfg();

  000c7	6a 00		 push	 0
  000c9	8b ce		 mov	 ecx, esi
  000cb	e8 00 00 00 00	 call	 ?SaveChartCfg@CKTBChartCtrl@@AAE_NH@Z ; CKTBChartCtrl::SaveChartCfg

; 592  : 
; 593  : 	//sy 2006.02.20. -> map default
; 594  : 	if(p_nIndex <= 0) SetMapDefaultInCurrent( false);

  000d0	6a 00		 push	 0
  000d2	8b ce		 mov	 ecx, esi
  000d4	e8 00 00 00 00	 call	 ?SetMapDefaultInCurrent@CKTBChartCtrl@@IAEHH@Z ; CKTBChartCtrl::SetMapDefaultInCurrent
$LN11@EmptyChart:

; 645  : 
; 646  : 	return true;

  000d9	b8 01 00 00 00	 mov	 eax, 1
  000de	5e		 pop	 esi

; 647  : }

  000df	5d		 pop	 ebp
  000e0	c2 0c 00	 ret	 12			; 0000000cH
$LN3@EmptyChart:

; 628  : 		return false;

  000e3	33 c0		 xor	 eax, eax
  000e5	5e		 pop	 esi

; 647  : }

  000e6	5d		 pop	 ebp
  000e7	c2 0c 00	 ret	 12			; 0000000cH
?EmptyChart2@CKTBChartCtrl@@IAEHPBDHH@Z ENDP		; CKTBChartCtrl::EmptyChart2
_TEXT	ENDS
; Function compile flags: /Ogtp
; File D:\git\src\IBK\IBK_DRFN\ProjSrc\SrcChartEx\ChartOCX\KTBChart\KTBChartDLL.cpp
; File C:\Program Files (x86)\Microsoft Visual Studio\2019\Community\VC\Tools\MSVC\14.29.30133\atlmfc\include\cstringt.h
; File D:\git\src\IBK\IBK_DRFN\ProjSrc\SrcChartEx\ChartOCX\KTBChart\KTBChartDLL.cpp
; File C:\Program Files (x86)\Microsoft Visual Studio\2019\Community\VC\Tools\MSVC\14.29.30133\atlmfc\include\afxtempl.h
; File D:\git\src\IBK\IBK_DRFN\ProjSrc\SrcChartEx\ChartOCX\KTBChart\KTBChartDLL.cpp
; File C:\Program Files (x86)\Microsoft Visual Studio\2019\Community\VC\Tools\MSVC\14.29.30133\atlmfc\include\atlsimpstr.h
; File D:\git\src\IBK\IBK_DRFN\ProjSrc\SrcChartEx\ChartOCX\KTBChart\KTBChartDLL.cpp
; File C:\Program Files (x86)\Microsoft Visual Studio\2019\Community\VC\Tools\MSVC\14.29.30133\atlmfc\include\atlsimpstr.h
; File D:\git\src\IBK\IBK_DRFN\ProjSrc\SrcChartEx\ChartOCX\KTBChart\KTBChartDLL.cpp
; File C:\Program Files (x86)\Microsoft Visual Studio\2019\Community\VC\Tools\MSVC\14.29.30133\atlmfc\include\atlsimpstr.h
; File C:\Program Files (x86)\Microsoft Visual Studio\2019\Community\VC\Tools\MSVC\14.29.30133\atlmfc\include\cstringt.h
; File D:\git\src\IBK\IBK_DRFN\ProjSrc\SrcChartEx\ChartOCX\KTBChart\KTBChartDLL.cpp
; File C:\Program Files (x86)\Microsoft Visual Studio\2019\Community\VC\Tools\MSVC\14.29.30133\atlmfc\include\atlsimpstr.h
; File D:\git\src\IBK\IBK_DRFN\ProjSrc\SrcChartEx\ChartOCX\KTBChart\KTBChartDLL.cpp
; File C:\Program Files (x86)\Microsoft Visual Studio\2019\Community\VC\Tools\MSVC\14.29.30133\atlmfc\include\atlsimpstr.h
; File D:\git\src\IBK\IBK_DRFN\ProjSrc\SrcChartEx\ChartOCX\KTBChart\KTBChartDLL.cpp
; File C:\Program Files (x86)\Microsoft Visual Studio\2019\Community\VC\Tools\MSVC\14.29.30133\atlmfc\include\atlsimpstr.h
; File D:\git\src\IBK\IBK_DRFN\ProjSrc\SrcChartEx\ChartOCX\KTBChart\KTBChartDLL.cpp
; File C:\Program Files (x86)\Microsoft Visual Studio\2019\Community\VC\Tools\MSVC\14.29.30133\atlmfc\include\afxtempl.h
; File D:\git\src\IBK\IBK_DRFN\ProjSrc\SrcChartEx\ChartOCX\KTBChart\KTBChartDLL.cpp
;	COMDAT ?SetPacketDataInAdditionPacket@CKTBChartCtrl@@IAEHPBDJJH@Z
_TEXT	SEGMENT
_packetNameList$ = -48					; size = 28
$T2 = -20						; size = 4
_szPacketName$ = -16					; size = 4
__$EHRec$ = -12						; size = 12
_strPacketNames$ = 8					; size = 4
_szPacketName2$ = 8					; size = 4
_szData$ = 12						; size = 4
_strPacketName$3 = 16					; size = 4
_lLength$ = 16						; size = 4
$T4 = 20						; size = 4
$T5 = 20						; size = 4
_bReset$ = 20						; size = 4
?SetPacketDataInAdditionPacket@CKTBChartCtrl@@IAEHPBDJJH@Z PROC ; CKTBChartCtrl::SetPacketDataInAdditionPacket, COMDAT
; _this$ = ecx

; 324  : {

  00000	55		 push	 ebp
  00001	8b ec		 mov	 ebp, esp
  00003	6a ff		 push	 -1
  00005	68 00 00 00 00	 push	 __ehhandler$?SetPacketDataInAdditionPacket@CKTBChartCtrl@@IAEHPBDJJH@Z
  0000a	64 a1 00 00 00
	00		 mov	 eax, DWORD PTR fs:0
  00010	50		 push	 eax
  00011	83 ec 24	 sub	 esp, 36			; 00000024H
  00014	53		 push	 ebx
  00015	56		 push	 esi
  00016	57		 push	 edi
  00017	a1 00 00 00 00	 mov	 eax, DWORD PTR ___security_cookie
  0001c	33 c5		 xor	 eax, ebp
  0001e	50		 push	 eax
  0001f	8d 45 f4	 lea	 eax, DWORD PTR __$EHRec$[ebp]
  00022	64 a3 00 00 00
	00		 mov	 DWORD PTR fs:0, eax
  00028	8b f1		 mov	 esi, ecx

; 325  : 	CString szPacketName = _STOM0( szPacketName2);

  0002a	6a 00		 push	 0
  0002c	ff 75 08	 push	 DWORD PTR _szPacketName2$[ebp]
  0002f	b9 00 00 00 00	 mov	 ecx, OFFSET ?g_iMetaTable@@3VIMetaTable@@A ; g_iMetaTable
  00034	c7 45 ec 00 00
	00 00		 mov	 DWORD PTR $T2[ebp], 0
  0003b	6a 00		 push	 0
  0003d	ff b6 c0 05 00
	00		 push	 DWORD PTR [esi+1472]
  00043	e8 00 00 00 00	 call	 ?GetMetaTextForScript@IMetaTable@@QAEPBDPAUHWND__@@W4E_CODEPAGE@1@PBDH@Z ; IMetaTable::GetMetaTextForScript
  00048	50		 push	 eax
  00049	8d 4d f0	 lea	 ecx, DWORD PTR _szPacketName$[ebp]
  0004c	ff 15 00 00 00
	00		 call	 DWORD PTR __imp_??0?$CStringT@DV?$StrTraitMFC_DLL@DV?$ChTraitsCRT@D@ATL@@@@@ATL@@QAE@PBD@Z

; 326  : 	if(!SetPacketDataInPacketList(szPacketName, szData, lLength, bReset))

  00052	ff 75 14	 push	 DWORD PTR _bReset$[ebp]
  00055	8b ce		 mov	 ecx, esi
  00057	c7 45 fc 00 00
	00 00		 mov	 DWORD PTR __$EHRec$[ebp+8], 0
  0005e	ff 75 10	 push	 DWORD PTR _lLength$[ebp]
  00061	ff 75 0c	 push	 DWORD PTR _szData$[ebp]
  00064	ff 75 f0	 push	 DWORD PTR _szPacketName$[ebp]
  00067	e8 00 00 00 00	 call	 ?SetPacketDataInPacketList@CKTBChartCtrl@@AAE_NPBDJJH@Z ; CKTBChartCtrl::SetPacketDataInPacketList
  0006c	84 c0		 test	 al, al
  0006e	75 07		 jne	 SHORT $LN4@SetPacketD
  00070	33 ff		 xor	 edi, edi
  00072	e9 ba 01 00 00	 jmp	 $LN56@SetPacketD
$LN4@SetPacketD:

; 329  : 	if(m_pMainBlock == NULL || szPacketName == "")

  00077	83 be 34 03 00
	00 00		 cmp	 DWORD PTR [esi+820], 0
  0007e	0f 84 a8 01 00
	00		 je	 $LN6@SetPacketD
; File C:\Program Files (x86)\Microsoft Visual Studio\2019\Community\VC\Tools\MSVC\14.29.30133\atlmfc\include\cstringt.h

; 2486 : 		return(str1.Compare(psz2) == 0);

  00084	68 00 00 00 00	 push	 OFFSET ??_C@_00CNPNBAHC@@
  00089	8d 4d f0	 lea	 ecx, DWORD PTR _szPacketName$[ebp]
  0008c	ff 15 00 00 00
	00		 call	 DWORD PTR __imp_?Compare@?$CStringT@DV?$StrTraitMFC_DLL@DV?$ChTraitsCRT@D@ATL@@@@@ATL@@QBEHPBD@Z
  00092	85 c0		 test	 eax, eax
; File D:\git\src\IBK\IBK_DRFN\ProjSrc\SrcChartEx\ChartOCX\KTBChart\KTBChartDLL.cpp

; 329  : 	if(m_pMainBlock == NULL || szPacketName == "")

  00094	0f 84 92 01 00
	00		 je	 $LN6@SetPacketD
; File C:\Program Files (x86)\Microsoft Visual Studio\2019\Community\VC\Tools\MSVC\14.29.30133\atlmfc\include\afxtempl.h

; 851  : {

  0009a	c7 45 d0 00 00
	00 00		 mov	 DWORD PTR _packetNameList$[ebp], OFFSET ??_7?$CList@V?$CStringT@DV?$StrTraitMFC_DLL@DV?$ChTraitsCRT@D@ATL@@@@@ATL@@V12@@@6B@

; 852  : 	ASSERT(nBlockSize > 0);
; 853  : 
; 854  : 	m_nCount = 0;

  000a1	c7 45 dc 00 00
	00 00		 mov	 DWORD PTR _packetNameList$[ebp+12], 0

; 855  : 	m_pNodeHead = m_pNodeTail = m_pNodeFree = NULL;

  000a8	c7 45 e0 00 00
	00 00		 mov	 DWORD PTR _packetNameList$[ebp+16], 0
  000af	c7 45 d8 00 00
	00 00		 mov	 DWORD PTR _packetNameList$[ebp+8], 0
  000b6	c7 45 d4 00 00
	00 00		 mov	 DWORD PTR _packetNameList$[ebp+4], 0

; 856  : 	m_pBlocks = NULL;

  000bd	c7 45 e4 00 00
	00 00		 mov	 DWORD PTR _packetNameList$[ebp+20], 0

; 857  : 	m_nBlockSize = nBlockSize;

  000c4	c7 45 e8 0a 00
	00 00		 mov	 DWORD PTR _packetNameList$[ebp+24], 10 ; 0000000aH
; File D:\git\src\IBK\IBK_DRFN\ProjSrc\SrcChartEx\ChartOCX\KTBChart\KTBChartDLL.cpp

; 333  : 	CString strPacketNames = szPacketName;

  000cb	8d 45 f0	 lea	 eax, DWORD PTR _szPacketName$[ebp]
  000ce	c6 45 fc 01	 mov	 BYTE PTR __$EHRec$[ebp+8], 1
  000d2	50		 push	 eax
  000d3	8d 4d 08	 lea	 ecx, DWORD PTR _strPacketNames$[ebp]
  000d6	ff 15 00 00 00
	00		 call	 DWORD PTR __imp_??0?$CStringT@DV?$StrTraitMFC_DLL@DV?$ChTraitsCRT@D@ATL@@@@@ATL@@QAE@ABV01@@Z
; File C:\Program Files (x86)\Microsoft Visual Studio\2019\Community\VC\Tools\MSVC\14.29.30133\atlmfc\include\atlsimpstr.h

; 519  : 		return( GetData()->nDataLength );

  000dc	8b 45 08	 mov	 eax, DWORD PTR _strPacketNames$[ebp]
; File D:\git\src\IBK\IBK_DRFN\ProjSrc\SrcChartEx\ChartOCX\KTBChart\KTBChartDLL.cpp

; 333  : 	CString strPacketNames = szPacketName;

  000df	c6 45 fc 02	 mov	 BYTE PTR __$EHRec$[ebp+8], 2
; File C:\Program Files (x86)\Microsoft Visual Studio\2019\Community\VC\Tools\MSVC\14.29.30133\atlmfc\include\atlsimpstr.h

; 533  : 		return( GetLength() == 0 );

  000e3	83 78 f4 00	 cmp	 DWORD PTR [eax-12], 0
; File D:\git\src\IBK\IBK_DRFN\ProjSrc\SrcChartEx\ChartOCX\KTBChart\KTBChartDLL.cpp

; 334  : 	if(!strPacketNames.IsEmpty() && strPacketNames.Right(1) != ';')

  000e7	74 30		 je	 SHORT $LN10@SetPacketD
  000e9	6a 01		 push	 1
  000eb	8d 45 14	 lea	 eax, DWORD PTR $T5[ebp]
  000ee	50		 push	 eax
  000ef	8d 4d 08	 lea	 ecx, DWORD PTR _strPacketNames$[ebp]
  000f2	ff 15 00 00 00
	00		 call	 DWORD PTR __imp_?Right@?$CStringT@DV?$StrTraitMFC_DLL@DV?$ChTraitsCRT@D@ATL@@@@@ATL@@QBE?AV12@H@Z
  000f8	c7 45 ec 01 00
	00 00		 mov	 DWORD PTR $T2[ebp], 1
; File C:\Program Files (x86)\Microsoft Visual Studio\2019\Community\VC\Tools\MSVC\14.29.30133\atlmfc\include\atlsimpstr.h

; 519  : 		return( GetData()->nDataLength );

  000ff	8b 08		 mov	 ecx, DWORD PTR [eax]
; File C:\Program Files (x86)\Microsoft Visual Studio\2019\Community\VC\Tools\MSVC\14.29.30133\atlmfc\include\cstringt.h

; 2699 : 		return((str1.GetLength() != 1) || (str1[0] != ch2));

  00101	83 79 f4 01	 cmp	 DWORD PTR [ecx-12], 1
  00105	75 0e		 jne	 SHORT $LN37@SetPacketD
  00107	6a 00		 push	 0
  00109	8b c8		 mov	 ecx, eax
  0010b	ff 15 00 00 00
	00		 call	 DWORD PTR __imp_??A?$CSimpleStringT@D$00@ATL@@QBEDH@Z
  00111	3c 3b		 cmp	 al, 59			; 0000003bH
  00113	74 04		 je	 SHORT $LN10@SetPacketD
$LN37@SetPacketD:
; File D:\git\src\IBK\IBK_DRFN\ProjSrc\SrcChartEx\ChartOCX\KTBChart\KTBChartDLL.cpp

; 334  : 	if(!strPacketNames.IsEmpty() && strPacketNames.Right(1) != ';')

  00115	b3 01		 mov	 bl, 1
  00117	eb 02		 jmp	 SHORT $LN11@SetPacketD
$LN10@SetPacketD:
  00119	32 db		 xor	 bl, bl
$LN11@SetPacketD:
  0011b	f6 45 ec 01	 test	 BYTE PTR $T2[ebp], 1
  0011f	74 09		 je	 SHORT $LN17@SetPacketD
  00121	8d 4d 14	 lea	 ecx, DWORD PTR $T5[ebp]
  00124	ff 15 00 00 00
	00		 call	 DWORD PTR __imp_??1?$CStringT@DV?$StrTraitMFC_DLL@DV?$ChTraitsCRT@D@ATL@@@@@ATL@@QAE@XZ
$LN17@SetPacketD:
  0012a	84 db		 test	 bl, bl
  0012c	74 0b		 je	 SHORT $LN66@SetPacketD

; 335  : 		strPacketNames += ';';

  0012e	6a 3b		 push	 59			; 0000003bH
  00130	8d 4d 08	 lea	 ecx, DWORD PTR _strPacketNames$[ebp]
  00133	ff 15 00 00 00
	00		 call	 DWORD PTR __imp_??Y?$CStringT@DV?$StrTraitMFC_DLL@DV?$ChTraitsCRT@D@ATL@@@@@ATL@@QAEAAV01@D@Z
$LN66@SetPacketD:
; File C:\Program Files (x86)\Microsoft Visual Studio\2019\Community\VC\Tools\MSVC\14.29.30133\atlmfc\include\atlsimpstr.h

; 519  : 		return( GetData()->nDataLength );

  00139	8b 45 08	 mov	 eax, DWORD PTR _strPacketNames$[ebp]

; 533  : 		return( GetLength() == 0 );

  0013c	83 78 f4 00	 cmp	 DWORD PTR [eax-12], 0
; File D:\git\src\IBK\IBK_DRFN\ProjSrc\SrcChartEx\ChartOCX\KTBChart\KTBChartDLL.cpp

; 336  : 	while(!strPacketNames.IsEmpty())

  00140	74 69		 je	 SHORT $LN3@SetPacketD
$LL2@SetPacketD:

; 337  : 	{
; 338  : 		CString strPacketName = CDataConversion::GetStringData(strPacketNames, ";");

  00142	68 00 00 00 00	 push	 OFFSET ??_C@_01ICJEACDI@?$DL@
  00147	8d 4d 14	 lea	 ecx, DWORD PTR $T4[ebp]
  0014a	ff 15 00 00 00
	00		 call	 DWORD PTR __imp_??0?$CStringT@DV?$StrTraitMFC_DLL@DV?$ChTraitsCRT@D@ATL@@@@@ATL@@QAE@PBD@Z
  00150	6a 01		 push	 1
  00152	8d 45 14	 lea	 eax, DWORD PTR $T4[ebp]
  00155	c6 45 fc 03	 mov	 BYTE PTR __$EHRec$[ebp+8], 3
  00159	50		 push	 eax
  0015a	8d 45 08	 lea	 eax, DWORD PTR _strPacketNames$[ebp]
  0015d	50		 push	 eax
  0015e	8d 45 10	 lea	 eax, DWORD PTR _strPacketName$3[ebp]
  00161	50		 push	 eax
  00162	e8 00 00 00 00	 call	 ?GetStringData@CDataConversion@@SA?AV?$CStringT@DV?$StrTraitMFC_DLL@DV?$ChTraitsCRT@D@ATL@@@@@ATL@@AAV23@ABV23@_N@Z ; CDataConversion::GetStringData
  00167	83 c4 10	 add	 esp, 16			; 00000010H
  0016a	8d 4d 14	 lea	 ecx, DWORD PTR $T4[ebp]
  0016d	c6 45 fc 05	 mov	 BYTE PTR __$EHRec$[ebp+8], 5
  00171	ff 15 00 00 00
	00		 call	 DWORD PTR __imp_??1?$CStringT@DV?$StrTraitMFC_DLL@DV?$ChTraitsCRT@D@ATL@@@@@ATL@@QAE@XZ
; File C:\Program Files (x86)\Microsoft Visual Studio\2019\Community\VC\Tools\MSVC\14.29.30133\atlmfc\include\atlsimpstr.h

; 519  : 		return( GetData()->nDataLength );

  00177	8b 45 08	 mov	 eax, DWORD PTR _strPacketNames$[ebp]

; 533  : 		return( GetLength() == 0 );

  0017a	83 78 f4 00	 cmp	 DWORD PTR [eax-12], 0
; File D:\git\src\IBK\IBK_DRFN\ProjSrc\SrcChartEx\ChartOCX\KTBChart\KTBChartDLL.cpp

; 339  : 		if(!strPacketNames.IsEmpty())

  0017e	74 15		 je	 SHORT $LN8@SetPacketD

; 340  : 			packetNameList.AddTail(strPacketName);

  00180	51		 push	 ecx
  00181	8d 45 10	 lea	 eax, DWORD PTR _strPacketName$3[ebp]
  00184	8b cc		 mov	 ecx, esp
  00186	50		 push	 eax
  00187	ff 15 00 00 00
	00		 call	 DWORD PTR __imp_??0?$CStringT@DV?$StrTraitMFC_DLL@DV?$ChTraitsCRT@D@ATL@@@@@ATL@@QAE@ABV01@@Z
  0018d	8d 4d d0	 lea	 ecx, DWORD PTR _packetNameList$[ebp]
  00190	e8 00 00 00 00	 call	 ?AddTail@?$CList@V?$CStringT@DV?$StrTraitMFC_DLL@DV?$ChTraitsCRT@D@ATL@@@@@ATL@@V12@@@QAEPAU__POSITION@@V?$CStringT@DV?$StrTraitMFC_DLL@DV?$ChTraitsCRT@D@ATL@@@@@ATL@@@Z ; CList<ATL::CStringT<char,StrTraitMFC_DLL<char,ATL::ChTraitsCRT<char> > >,ATL::CStringT<char,StrTraitMFC_DLL<char,ATL::ChTraitsCRT<char> > > >::AddTail
$LN8@SetPacketD:

; 341  : 	}

  00195	8d 4d 10	 lea	 ecx, DWORD PTR _strPacketName$3[ebp]
  00198	c6 45 fc 02	 mov	 BYTE PTR __$EHRec$[ebp+8], 2
  0019c	ff 15 00 00 00
	00		 call	 DWORD PTR __imp_??1?$CStringT@DV?$StrTraitMFC_DLL@DV?$ChTraitsCRT@D@ATL@@@@@ATL@@QAE@XZ
; File C:\Program Files (x86)\Microsoft Visual Studio\2019\Community\VC\Tools\MSVC\14.29.30133\atlmfc\include\atlsimpstr.h

; 519  : 		return( GetData()->nDataLength );

  001a2	8b 45 08	 mov	 eax, DWORD PTR _strPacketNames$[ebp]

; 533  : 		return( GetLength() == 0 );

  001a5	83 78 f4 00	 cmp	 DWORD PTR [eax-12], 0
; File D:\git\src\IBK\IBK_DRFN\ProjSrc\SrcChartEx\ChartOCX\KTBChart\KTBChartDLL.cpp

; 336  : 	while(!strPacketNames.IsEmpty())

  001a9	75 97		 jne	 SHORT $LL2@SetPacketD
$LN3@SetPacketD:

; 342  : 
; 343  : 	m_pMainBlock->CalculateAllGraphs(packetNameList, CCalculateBaseData::TRDATA_CAL, true);

  001ab	8b 8e 34 03 00
	00		 mov	 ecx, DWORD PTR [esi+820]
  001b1	8d 55 d0	 lea	 edx, DWORD PTR _packetNameList$[ebp]
  001b4	6a 01		 push	 1
  001b6	6a 00		 push	 0
  001b8	52		 push	 edx
  001b9	8b 01		 mov	 eax, DWORD PTR [ecx]
  001bb	ff 90 44 01 00
	00		 call	 DWORD PTR [eax+324]

; 344  : 	InvalidateControl();

  001c1	6a 01		 push	 1
  001c3	6a 00		 push	 0
  001c5	8b ce		 mov	 ecx, esi
  001c7	e8 00 00 00 00	 call	 ?InvalidateControl@CKTBChartCtrl@@QAEXPBUtagRECT@@H@Z ; CKTBChartCtrl::InvalidateControl

; 345  : 
; 346  : 	return TRUE;

  001cc	8d 4d 08	 lea	 ecx, DWORD PTR _strPacketNames$[ebp]
  001cf	bf 01 00 00 00	 mov	 edi, 1
  001d4	ff 15 00 00 00
	00		 call	 DWORD PTR __imp_??1?$CStringT@DV?$StrTraitMFC_DLL@DV?$ChTraitsCRT@D@ATL@@@@@ATL@@QAE@XZ
; File C:\Program Files (x86)\Microsoft Visual Studio\2019\Community\VC\Tools\MSVC\14.29.30133\atlmfc\include\afxtempl.h

; 867  : 	for (pNode = m_pNodeHead; pNode != NULL; pNode = pNode->pNext)

  001da	8b 75 d4	 mov	 esi, DWORD PTR _packetNameList$[ebp+4]

; 878  : {

  001dd	c6 45 fc 06	 mov	 BYTE PTR __$EHRec$[ebp+8], 6
  001e1	c7 45 d0 00 00
	00 00		 mov	 DWORD PTR _packetNameList$[ebp], OFFSET ??_7?$CList@V?$CStringT@DV?$StrTraitMFC_DLL@DV?$ChTraitsCRT@D@ATL@@@@@ATL@@V12@@@6B@

; 867  : 	for (pNode = m_pNodeHead; pNode != NULL; pNode = pNode->pNext)

  001e8	85 f6		 test	 esi, esi
  001ea	74 13		 je	 SHORT $LN60@SetPacketD
  001ec	0f 1f 40 00	 npad	 4
$LL61@SetPacketD:

; 868  : 		pNode->data.~TYPE();

  001f0	8d 4e 08	 lea	 ecx, DWORD PTR [esi+8]
  001f3	ff 15 00 00 00
	00		 call	 DWORD PTR __imp_??1?$CStringT@DV?$StrTraitMFC_DLL@DV?$ChTraitsCRT@D@ATL@@@@@ATL@@QAE@XZ

; 867  : 	for (pNode = m_pNodeHead; pNode != NULL; pNode = pNode->pNext)

  001f9	8b 36		 mov	 esi, DWORD PTR [esi]
  001fb	85 f6		 test	 esi, esi
  001fd	75 f1		 jne	 SHORT $LL61@SetPacketD
$LN60@SetPacketD:

; 869  : 
; 870  : 	m_nCount = 0;
; 871  : 	m_pNodeHead = m_pNodeTail = m_pNodeFree = NULL;
; 872  : 	m_pBlocks->FreeDataChain();

  001ff	8b 4d e4	 mov	 ecx, DWORD PTR _packetNameList$[ebp+20]
  00202	c7 45 dc 00 00
	00 00		 mov	 DWORD PTR _packetNameList$[ebp+12], 0
  00209	c7 45 e0 00 00
	00 00		 mov	 DWORD PTR _packetNameList$[ebp+16], 0
  00210	c7 45 d8 00 00
	00 00		 mov	 DWORD PTR _packetNameList$[ebp+8], 0
  00217	c7 45 d4 00 00
	00 00		 mov	 DWORD PTR _packetNameList$[ebp+4], 0
  0021e	e8 00 00 00 00	 call	 ?FreeDataChain@CPlex@@QAEXXZ ; CPlex::FreeDataChain

; 873  : 	m_pBlocks = NULL;

  00223	c7 45 e4 00 00
	00 00		 mov	 DWORD PTR _packetNameList$[ebp+20], 0

; 881  : }

  0022a	eb 05		 jmp	 SHORT $LN56@SetPacketD
$LN6@SetPacketD:
; File D:\git\src\IBK\IBK_DRFN\ProjSrc\SrcChartEx\ChartOCX\KTBChart\KTBChartDLL.cpp

; 330  : 		return TRUE;

  0022c	bf 01 00 00 00	 mov	 edi, 1
$LN56@SetPacketD:

; 345  : 
; 346  : 	return TRUE;

  00231	8d 4d f0	 lea	 ecx, DWORD PTR _szPacketName$[ebp]
  00234	ff 15 00 00 00
	00		 call	 DWORD PTR __imp_??1?$CStringT@DV?$StrTraitMFC_DLL@DV?$ChTraitsCRT@D@ATL@@@@@ATL@@QAE@XZ
  0023a	8b c7		 mov	 eax, edi

; 347  : }

  0023c	8b 4d f4	 mov	 ecx, DWORD PTR __$EHRec$[ebp]
  0023f	64 89 0d 00 00
	00 00		 mov	 DWORD PTR fs:0, ecx
  00246	59		 pop	 ecx
  00247	5f		 pop	 edi
  00248	5e		 pop	 esi
  00249	5b		 pop	 ebx
  0024a	8b e5		 mov	 esp, ebp
  0024c	5d		 pop	 ebp
  0024d	c2 10 00	 ret	 16			; 00000010H
_TEXT	ENDS
;	COMDAT text$x
text$x	SEGMENT
__unwindfunclet$?SetPacketDataInAdditionPacket@CKTBChartCtrl@@IAEHPBDJJH@Z$0:
  00000	8d 4d f0	 lea	 ecx, DWORD PTR _szPacketName$[ebp]
  00003	ff 25 00 00 00
	00		 jmp	 DWORD PTR __imp_??1?$CStringT@DV?$StrTraitMFC_DLL@DV?$ChTraitsCRT@D@ATL@@@@@ATL@@QAE@XZ
__unwindfunclet$?SetPacketDataInAdditionPacket@CKTBChartCtrl@@IAEHPBDJJH@Z$1:
  00009	8d 4d d0	 lea	 ecx, DWORD PTR _packetNameList$[ebp]
  0000c	e9 00 00 00 00	 jmp	 ??1?$CList@V?$CStringT@DV?$StrTraitMFC_DLL@DV?$ChTraitsCRT@D@ATL@@@@@ATL@@V12@@@UAE@XZ ; CList<ATL::CStringT<char,StrTraitMFC_DLL<char,ATL::ChTraitsCRT<char> > >,ATL::CStringT<char,StrTraitMFC_DLL<char,ATL::ChTraitsCRT<char> > > >::~CList<ATL::CStringT<char,StrTraitMFC_DLL<char,ATL::ChTraitsCRT<char> > >,ATL::CStringT<char,StrTraitMFC_DLL<char,ATL::ChTraitsCRT<char> > > >
__unwindfunclet$?SetPacketDataInAdditionPacket@CKTBChartCtrl@@IAEHPBDJJH@Z$2:
  00011	8d 4d 08	 lea	 ecx, DWORD PTR _strPacketNames$[ebp]
  00014	ff 25 00 00 00
	00		 jmp	 DWORD PTR __imp_??1?$CStringT@DV?$StrTraitMFC_DLL@DV?$ChTraitsCRT@D@ATL@@@@@ATL@@QAE@XZ
__unwindfunclet$?SetPacketDataInAdditionPacket@CKTBChartCtrl@@IAEHPBDJJH@Z$4:
  0001a	8d 4d 14	 lea	 ecx, DWORD PTR $T4[ebp]
  0001d	ff 25 00 00 00
	00		 jmp	 DWORD PTR __imp_??1?$CStringT@DV?$StrTraitMFC_DLL@DV?$ChTraitsCRT@D@ATL@@@@@ATL@@QAE@XZ
__unwindfunclet$?SetPacketDataInAdditionPacket@CKTBChartCtrl@@IAEHPBDJJH@Z$5:
  00023	8d 4d 10	 lea	 ecx, DWORD PTR _strPacketName$3[ebp]
  00026	ff 25 00 00 00
	00		 jmp	 DWORD PTR __imp_??1?$CStringT@DV?$StrTraitMFC_DLL@DV?$ChTraitsCRT@D@ATL@@@@@ATL@@QAE@XZ
  0002c	cc		 int	 3
  0002d	cc		 int	 3
  0002e	cc		 int	 3
  0002f	cc		 int	 3
  00030	cc		 int	 3
__ehhandler$?SetPacketDataInAdditionPacket@CKTBChartCtrl@@IAEHPBDJJH@Z:
  00031	90		 npad	 1
  00032	90		 npad	 1
  00033	8b 54 24 08	 mov	 edx, DWORD PTR [esp+8]
  00037	8d 42 0c	 lea	 eax, DWORD PTR [edx+12]
  0003a	8b 4a cc	 mov	 ecx, DWORD PTR [edx-52]
  0003d	33 c8		 xor	 ecx, eax
  0003f	e8 00 00 00 00	 call	 @__security_check_cookie@4
  00044	b8 00 00 00 00	 mov	 eax, OFFSET __ehfuncinfo$?SetPacketDataInAdditionPacket@CKTBChartCtrl@@IAEHPBDJJH@Z
  00049	e9 00 00 00 00	 jmp	 ___CxxFrameHandler3
text$x	ENDS
?SetPacketDataInAdditionPacket@CKTBChartCtrl@@IAEHPBDJJH@Z ENDP ; CKTBChartCtrl::SetPacketDataInAdditionPacket
; Function compile flags: /Ogtp
; File D:\git\src\IBK\IBK_DRFN\ProjSrc\SrcChartEx\ChartOCX\KTBChart\KTBChartDLL.cpp
; File D:\git\src\IBK\IBK_DRFN\ProjSrc\SrcChartEx\ChartOCX\Include_Chart\BlockBaseData.h
; File D:\git\src\IBK\IBK_DRFN\ProjSrc\SrcChartEx\ChartOCX\KTBChart\KTBChartDLL.cpp
; File D:\git\src\IBK\IBK_DRFN\ProjSrc\SrcChartEx\ChartOCX\Include_Chart\BlockBaseData.h
; File D:\git\src\IBK\IBK_DRFN\ProjSrc\SrcChartEx\ChartOCX\KTBChart\KTBChartDLL.cpp
;	COMDAT ?GetVertScalePosition@CKTBChartCtrl@@IAEFFFF@Z
_TEXT	SEGMENT
$T1 = -8						; size = 8
_p_nRowIndex$ = 8					; size = 2
_p_nColumnIndex$ = 12					; size = 2
_p_nVSGroupIndex$ = 16					; size = 2
?GetVertScalePosition@CKTBChartCtrl@@IAEFFFF@Z PROC	; CKTBChartCtrl::GetVertScalePosition, COMDAT
; _this$ = ecx

; 1081 : {

  00000	55		 push	 ebp
  00001	8b ec		 mov	 ebp, esp

; 1082 : 	// TODO: Add your dispatch handler code here
; 1083 : 
; 1084 : 	if(m_pMainBlock == NULL) return -1;

  00003	8b 89 34 03 00
	00		 mov	 ecx, DWORD PTR [ecx+820]
  00009	83 ec 08	 sub	 esp, 8
  0000c	56		 push	 esi
  0000d	85 c9		 test	 ecx, ecx
  0000f	74 3c		 je	 SHORT $LN4@GetVertSca

; 1085 : 	if( p_nRowIndex < 0 || p_nColumnIndex < 0 || p_nVSGroupIndex < 0) return -1;

  00011	66 8b 45 08	 mov	 ax, WORD PTR _p_nRowIndex$[ebp]
  00015	66 85 c0	 test	 ax, ax
  00018	78 33		 js	 SHORT $LN4@GetVertSca
  0001a	66 8b 55 0c	 mov	 dx, WORD PTR _p_nColumnIndex$[ebp]
  0001e	66 85 d2	 test	 dx, dx
  00021	78 2a		 js	 SHORT $LN4@GetVertSca
  00023	66 8b 75 10	 mov	 si, WORD PTR _p_nVSGroupIndex$[ebp]
  00027	66 85 f6	 test	 si, si
  0002a	78 21		 js	 SHORT $LN4@GetVertSca

; 1087 : 	return m_pMainBlock->GetVertScalePosition( CBlockIndex( p_nRowIndex, p_nColumnIndex), p_nVSGroupIndex);

  0002c	98		 cwde
; File D:\git\src\IBK\IBK_DRFN\ProjSrc\SrcChartEx\ChartOCX\Include_Chart\BlockBaseData.h

; 20   : 	CBlockIndex( const int row, const int column)		{	m_nRow = row;	m_nColumn = column;		}

  0002d	89 45 f8	 mov	 DWORD PTR $T1[ebp], eax
; File D:\git\src\IBK\IBK_DRFN\ProjSrc\SrcChartEx\ChartOCX\KTBChart\KTBChartDLL.cpp

; 1087 : 	return m_pMainBlock->GetVertScalePosition( CBlockIndex( p_nRowIndex, p_nColumnIndex), p_nVSGroupIndex);

  00030	0f bf c2	 movsx	 eax, dx
; File D:\git\src\IBK\IBK_DRFN\ProjSrc\SrcChartEx\ChartOCX\Include_Chart\BlockBaseData.h

; 20   : 	CBlockIndex( const int row, const int column)		{	m_nRow = row;	m_nColumn = column;		}

  00033	89 45 fc	 mov	 DWORD PTR $T1[ebp+4], eax
; File D:\git\src\IBK\IBK_DRFN\ProjSrc\SrcChartEx\ChartOCX\KTBChart\KTBChartDLL.cpp

; 1087 : 	return m_pMainBlock->GetVertScalePosition( CBlockIndex( p_nRowIndex, p_nColumnIndex), p_nVSGroupIndex);

  00036	8b 11		 mov	 edx, DWORD PTR [ecx]
  00038	0f bf c6	 movsx	 eax, si
  0003b	50		 push	 eax
  0003c	8d 45 f8	 lea	 eax, DWORD PTR $T1[ebp]
  0003f	50		 push	 eax
  00040	ff 92 e4 01 00
	00		 call	 DWORD PTR [edx+484]
  00046	5e		 pop	 esi

; 1088 : }

  00047	8b e5		 mov	 esp, ebp
  00049	5d		 pop	 ebp
  0004a	c2 0c 00	 ret	 12			; 0000000cH
$LN4@GetVertSca:

; 1085 : 	if( p_nRowIndex < 0 || p_nColumnIndex < 0 || p_nVSGroupIndex < 0) return -1;

  0004d	83 c8 ff	 or	 eax, -1
  00050	5e		 pop	 esi

; 1088 : }

  00051	8b e5		 mov	 esp, ebp
  00053	5d		 pop	 ebp
  00054	c2 0c 00	 ret	 12			; 0000000cH
?GetVertScalePosition@CKTBChartCtrl@@IAEFFFF@Z ENDP	; CKTBChartCtrl::GetVertScalePosition
_TEXT	ENDS
; Function compile flags: /Ogtp
; File D:\git\src\IBK\IBK_DRFN\ProjSrc\SrcChartEx\ChartOCX\KTBChart\KTBChartDLL.cpp
;	COMDAT ?SetTimeMark@CKTBChartCtrl@@IAEXPBDH@Z
_TEXT	SEGMENT
_p_szMarkTime$ = 8					; size = 4
_p_bWithScroll$ = 12					; size = 4
?SetTimeMark@CKTBChartCtrl@@IAEXPBDH@Z PROC		; CKTBChartCtrl::SetTimeMark, COMDAT
; _this$ = ecx

; 1071 : {

  00000	55		 push	 ebp
  00001	8b ec		 mov	 ebp, esp

; 1072 : 	// TODO: Add your dispatch handler code here
; 1073 : 
; 1074 : 	// (2004.10.11, ) TimeMark  AddIn DLL .
; 1075 : 	if( m_pAddInManager) m_pAddInManager->OnAddInToolCommand( EAI_CUSTOM_SET_TIMEMARK, p_szMarkTime, p_bWithScroll);

  00003	8b 89 cc 04 00
	00		 mov	 ecx, DWORD PTR [ecx+1228]
  00009	85 c9		 test	 ecx, ecx
  0000b	74 0e		 je	 SHORT $LN2@SetTimeMar
  0000d	ff 75 0c	 push	 DWORD PTR _p_bWithScroll$[ebp]
  00010	ff 75 08	 push	 DWORD PTR _p_szMarkTime$[ebp]
  00013	6a 10		 push	 16			; 00000010H
  00015	ff 15 00 00 00
	00		 call	 DWORD PTR __imp_?OnAddInToolCommand@CAddInManager@@QAEHW4EAICommandType@@PBDJ@Z
$LN2@SetTimeMar:

; 1076 : }

  0001b	5d		 pop	 ebp
  0001c	c2 08 00	 ret	 8
?SetTimeMark@CKTBChartCtrl@@IAEXPBDH@Z ENDP		; CKTBChartCtrl::SetTimeMark
_TEXT	ENDS
; Function compile flags: /Ogtp
; File D:\git\src\IBK\IBK_DRFN\ProjSrc\SrcChartEx\ChartOCX\KTBChart\KTBChartDLL.cpp
;	COMDAT ?ShowEnvironmentDlg@CKTBChartCtrl@@IAEXXZ
_TEXT	SEGMENT
?ShowEnvironmentDlg@CKTBChartCtrl@@IAEXXZ PROC		; CKTBChartCtrl::ShowEnvironmentDlg, COMDAT
; _this$ = ecx

; 1061 : 	// TODO: Add your dispatch handler code here
; 1062 : 	RunToolFunction( CToolOptionInfo::T_ENVIRONMENT_CFG, 1);

  00000	8b 01		 mov	 eax, DWORD PTR [ecx]
  00002	6a 01		 push	 1
  00004	6a 0b		 push	 11			; 0000000bH
  00006	ff 90 18 03 00
	00		 call	 DWORD PTR [eax+792]

; 1063 : }

  0000c	c3		 ret	 0
?ShowEnvironmentDlg@CKTBChartCtrl@@IAEXXZ ENDP		; CKTBChartCtrl::ShowEnvironmentDlg
_TEXT	ENDS
; Function compile flags: /Ogtp
; File D:\git\src\IBK\IBK_DRFN\ProjSrc\SrcChartEx\ChartOCX\KTBChart\KTBChartDLL.cpp
;	COMDAT ?ClearTimeMark@CKTBChartCtrl@@IAEXXZ
_TEXT	SEGMENT
?ClearTimeMark@CKTBChartCtrl@@IAEXXZ PROC		; CKTBChartCtrl::ClearTimeMark, COMDAT
; _this$ = ecx

; 1052 : 	// TODO: Add your dispatch handler code here
; 1053 : 
; 1054 : 	// (2004.10.11, ) TimeMark  AddIn DLL .
; 1055 : 	if( m_pAddInManager) m_pAddInManager->OnAddInToolCommand( EAI_CUSTOM_CLEAR_TIMEMARK);

  00000	8b 89 cc 04 00
	00		 mov	 ecx, DWORD PTR [ecx+1228]
  00006	85 c9		 test	 ecx, ecx
  00008	74 08		 je	 SHORT $LN2@ClearTimeM
  0000a	6a 0f		 push	 15			; 0000000fH
  0000c	ff 15 00 00 00
	00		 call	 DWORD PTR __imp_?OnAddInToolCommand@CAddInManager@@QAEHW4EAICommandType@@@Z
$LN2@ClearTimeM:

; 1056 : }

  00012	c3		 ret	 0
?ClearTimeMark@CKTBChartCtrl@@IAEXXZ ENDP		; CKTBChartCtrl::ClearTimeMark
_TEXT	ENDS
; Function compile flags: /Ogtp
; File D:\git\src\IBK\IBK_DRFN\ProjSrc\SrcChartEx\ChartOCX\KTBChart\KTBChartDLL.cpp
;	COMDAT ?GetStartPeriodOfPacket@CKTBChartCtrl@@IAEJPBD@Z
_TEXT	SEGMENT
tv130 = -20						; size = 8
__$EHRec$ = -12						; size = 12
_p_szPacketName$ = 8					; size = 4
_p_szPacketName2$ = 8					; size = 4
?GetStartPeriodOfPacket@CKTBChartCtrl@@IAEJPBD@Z PROC	; CKTBChartCtrl::GetStartPeriodOfPacket, COMDAT
; _this$ = ecx

; 1020 : {

  00000	55		 push	 ebp
  00001	8b ec		 mov	 ebp, esp
  00003	6a ff		 push	 -1
  00005	68 00 00 00 00	 push	 __ehhandler$?GetStartPeriodOfPacket@CKTBChartCtrl@@IAEJPBD@Z
  0000a	64 a1 00 00 00
	00		 mov	 eax, DWORD PTR fs:0
  00010	50		 push	 eax
  00011	83 ec 08	 sub	 esp, 8
  00014	56		 push	 esi
  00015	a1 00 00 00 00	 mov	 eax, DWORD PTR ___security_cookie
  0001a	33 c5		 xor	 eax, ebp
  0001c	50		 push	 eax
  0001d	8d 45 f4	 lea	 eax, DWORD PTR __$EHRec$[ebp]
  00020	64 a3 00 00 00
	00		 mov	 DWORD PTR fs:0, eax
  00026	8b f1		 mov	 esi, ecx

; 1021 : 	// TODO: Add your dispatch handler code here
; 1022 : 	
; 1023 : 	// 1.  Packet List .
; 1024 : 	if( !m_pPacketList) return -1;

  00028	83 be 3c 03 00
	00 00		 cmp	 DWORD PTR [esi+828], 0
  0002f	75 15		 jne	 SHORT $LN2@GetStartPe
  00031	83 c8 ff	 or	 eax, -1

; 1033 : }

  00034	8b 4d f4	 mov	 ecx, DWORD PTR __$EHRec$[ebp]
  00037	64 89 0d 00 00
	00 00		 mov	 DWORD PTR fs:0, ecx
  0003e	59		 pop	 ecx
  0003f	5e		 pop	 esi
  00040	8b e5		 mov	 esp, ebp
  00042	5d		 pop	 ebp
  00043	c2 04 00	 ret	 4
$LN2@GetStartPe:

; 1025 : 
; 1026 : 	CString p_szPacketName = _STOM0( p_szPacketName2);

  00046	6a 00		 push	 0
  00048	ff 75 08	 push	 DWORD PTR _p_szPacketName2$[ebp]
  0004b	b9 00 00 00 00	 mov	 ecx, OFFSET ?g_iMetaTable@@3VIMetaTable@@A ; g_iMetaTable
  00050	6a 00		 push	 0
  00052	ff b6 c0 05 00
	00		 push	 DWORD PTR [esi+1472]
  00058	e8 00 00 00 00	 call	 ?GetMetaTextForScript@IMetaTable@@QAEPBDPAUHWND__@@W4E_CODEPAGE@1@PBDH@Z ; IMetaTable::GetMetaTextForScript
  0005d	50		 push	 eax
  0005e	8d 4d 08	 lea	 ecx, DWORD PTR _p_szPacketName$[ebp]
  00061	ff 15 00 00 00
	00		 call	 DWORD PTR __imp_??0?$CStringT@DV?$StrTraitMFC_DLL@DV?$ChTraitsCRT@D@ATL@@@@@ATL@@QAE@PBD@Z

; 1027 : 	// 2.  Packet .
; 1028 : 	CPacket *pPacket = m_pPacketList->GetBaseData( p_szPacketName);

  00067	6a 01		 push	 1
  00069	51		 push	 ecx
  0006a	8d 45 08	 lea	 eax, DWORD PTR _p_szPacketName$[ebp]
  0006d	c7 45 fc 00 00
	00 00		 mov	 DWORD PTR __$EHRec$[ebp+8], 0
  00074	8b cc		 mov	 ecx, esp
  00076	50		 push	 eax
  00077	ff 15 00 00 00
	00		 call	 DWORD PTR __imp_??0?$CStringT@DV?$StrTraitMFC_DLL@DV?$ChTraitsCRT@D@ATL@@@@@ATL@@QAE@ABV01@@Z
  0007d	8b 8e 3c 03 00
	00		 mov	 ecx, DWORD PTR [esi+828]
  00083	ff 15 00 00 00
	00		 call	 DWORD PTR __imp_?GetBaseData@CPacketList@@QAEPAVCPacket@@V?$CStringT@DV?$StrTraitMFC_DLL@DV?$ChTraitsCRT@D@ATL@@@@@ATL@@_N@Z

; 1029 : 	if( !pPacket) return -1;

  00089	85 c0		 test	 eax, eax
  0008b	75 05		 jne	 SHORT $LN3@GetStartPe
  0008d	83 ce ff	 or	 esi, -1
  00090	eb 2d		 jmp	 SHORT $LN8@GetStartPe
$LN3@GetStartPe:

; 1030 : 
; 1031 : 	// 3.  Packet  .
; 1032 : 	return m_pPacketList->GetDataFromIndex( _MTEXT( C0_DATE_TIME), pPacket->GetStartPeriod());

  00092	8b c8		 mov	 ecx, eax
  00094	ff 15 00 00 00
	00		 call	 DWORD PTR __imp_?GetStartPeriod@CPacket@@QAEHXZ
  0009a	50		 push	 eax
  0009b	a1 54 00 00 00	 mov	 eax, DWORD PTR ?g_iMetaTable@@3VIMetaTable@@A+84
  000a0	51		 push	 ecx
  000a1	8b cc		 mov	 ecx, esp
  000a3	ff 30		 push	 DWORD PTR [eax]
  000a5	ff 15 00 00 00
	00		 call	 DWORD PTR __imp_??0?$CStringT@DV?$StrTraitMFC_DLL@DV?$ChTraitsCRT@D@ATL@@@@@ATL@@QAE@PBD@Z
  000ab	8b 8e 3c 03 00
	00		 mov	 ecx, DWORD PTR [esi+828]
  000b1	ff 15 00 00 00
	00		 call	 DWORD PTR __imp_?GetDataFromIndex@CPacketList@@QAENV?$CStringT@DV?$StrTraitMFC_DLL@DV?$ChTraitsCRT@D@ATL@@@@@ATL@@H@Z
  000b7	dd 5d ec	 fstp	 QWORD PTR tv130[ebp]
  000ba	f2 0f 2c 75 ec	 cvttsd2si esi, QWORD PTR tv130[ebp]
$LN8@GetStartPe:
  000bf	8d 4d 08	 lea	 ecx, DWORD PTR _p_szPacketName$[ebp]
  000c2	ff 15 00 00 00
	00		 call	 DWORD PTR __imp_??1?$CStringT@DV?$StrTraitMFC_DLL@DV?$ChTraitsCRT@D@ATL@@@@@ATL@@QAE@XZ
  000c8	8b c6		 mov	 eax, esi

; 1033 : }

  000ca	8b 4d f4	 mov	 ecx, DWORD PTR __$EHRec$[ebp]
  000cd	64 89 0d 00 00
	00 00		 mov	 DWORD PTR fs:0, ecx
  000d4	59		 pop	 ecx
  000d5	5e		 pop	 esi
  000d6	8b e5		 mov	 esp, ebp
  000d8	5d		 pop	 ebp
  000d9	c2 04 00	 ret	 4
_TEXT	ENDS
;	COMDAT text$x
text$x	SEGMENT
__unwindfunclet$?GetStartPeriodOfPacket@CKTBChartCtrl@@IAEJPBD@Z$0:
  00000	8d 4d 08	 lea	 ecx, DWORD PTR _p_szPacketName$[ebp]
  00003	ff 25 00 00 00
	00		 jmp	 DWORD PTR __imp_??1?$CStringT@DV?$StrTraitMFC_DLL@DV?$ChTraitsCRT@D@ATL@@@@@ATL@@QAE@XZ
  00009	cc		 int	 3
  0000a	cc		 int	 3
  0000b	cc		 int	 3
  0000c	cc		 int	 3
  0000d	cc		 int	 3
__ehhandler$?GetStartPeriodOfPacket@CKTBChartCtrl@@IAEJPBD@Z:
  0000e	90		 npad	 1
  0000f	90		 npad	 1
  00010	8b 54 24 08	 mov	 edx, DWORD PTR [esp+8]
  00014	8d 42 0c	 lea	 eax, DWORD PTR [edx+12]
  00017	8b 4a f0	 mov	 ecx, DWORD PTR [edx-16]
  0001a	33 c8		 xor	 ecx, eax
  0001c	e8 00 00 00 00	 call	 @__security_check_cookie@4
  00021	b8 00 00 00 00	 mov	 eax, OFFSET __ehfuncinfo$?GetStartPeriodOfPacket@CKTBChartCtrl@@IAEJPBD@Z
  00026	e9 00 00 00 00	 jmp	 ___CxxFrameHandler3
text$x	ENDS
?GetStartPeriodOfPacket@CKTBChartCtrl@@IAEJPBD@Z ENDP	; CKTBChartCtrl::GetStartPeriodOfPacket
; Function compile flags: /Ogtp
; File D:\git\src\IBK\IBK_DRFN\ProjSrc\SrcChartEx\ChartOCX\KTBChart\KTBChartDLL.cpp
; File C:\Program Files (x86)\Microsoft Visual Studio\2019\Community\VC\Tools\MSVC\14.29.30133\atlmfc\include\afxtempl.h
; File D:\git\src\IBK\IBK_DRFN\ProjSrc\SrcChartEx\ChartOCX\KTBChart\KTBChartDLL.cpp
;	COMDAT ?SetStartPeriodOfPacket@CKTBChartCtrl@@IAEHPBDJH@Z
_TEXT	SEGMENT
_p_szPacketName$ = -20					; size = 4
_pPacket$1$ = -16					; size = 4
__$EHRec$ = -12						; size = 12
_nStartIndex$1$ = 8					; size = 4
_p_szPacketName2$ = 8					; size = 4
_p_lStartPeriod$ = 12					; size = 4
_p_bAddSpace$ = 16					; size = 4
?SetStartPeriodOfPacket@CKTBChartCtrl@@IAEHPBDJH@Z PROC	; CKTBChartCtrl::SetStartPeriodOfPacket, COMDAT
; _this$ = ecx

; 978  : {

  00000	55		 push	 ebp
  00001	8b ec		 mov	 ebp, esp
  00003	6a ff		 push	 -1
  00005	68 00 00 00 00	 push	 __ehhandler$?SetStartPeriodOfPacket@CKTBChartCtrl@@IAEHPBDJH@Z
  0000a	64 a1 00 00 00
	00		 mov	 eax, DWORD PTR fs:0
  00010	50		 push	 eax
  00011	83 ec 08	 sub	 esp, 8
  00014	53		 push	 ebx
  00015	56		 push	 esi
  00016	57		 push	 edi
  00017	a1 00 00 00 00	 mov	 eax, DWORD PTR ___security_cookie
  0001c	33 c5		 xor	 eax, ebp
  0001e	50		 push	 eax
  0001f	8d 45 f4	 lea	 eax, DWORD PTR __$EHRec$[ebp]
  00022	64 a3 00 00 00
	00		 mov	 DWORD PTR fs:0, eax
  00028	8b f1		 mov	 esi, ecx

; 979  : 	// 1.  Packet List .
; 980  : 	if( !m_pPacketList) return FALSE;

  0002a	83 be 3c 03 00
	00 00		 cmp	 DWORD PTR [esi+828], 0
  00031	75 16		 jne	 SHORT $LN5@SetStartPe
  00033	33 c0		 xor	 eax, eax

; 1018 : }

  00035	8b 4d f4	 mov	 ecx, DWORD PTR __$EHRec$[ebp]
  00038	64 89 0d 00 00
	00 00		 mov	 DWORD PTR fs:0, ecx
  0003f	59		 pop	 ecx
  00040	5f		 pop	 edi
  00041	5e		 pop	 esi
  00042	5b		 pop	 ebx
  00043	8b e5		 mov	 esp, ebp
  00045	5d		 pop	 ebp
  00046	c2 0c 00	 ret	 12			; 0000000cH
$LN5@SetStartPe:

; 981  : 
; 982  : 	CString p_szPacketName = _STOM0( p_szPacketName2);

  00049	6a 00		 push	 0
  0004b	ff 75 08	 push	 DWORD PTR _p_szPacketName2$[ebp]
  0004e	b9 00 00 00 00	 mov	 ecx, OFFSET ?g_iMetaTable@@3VIMetaTable@@A ; g_iMetaTable
  00053	6a 00		 push	 0
  00055	ff b6 c0 05 00
	00		 push	 DWORD PTR [esi+1472]
  0005b	e8 00 00 00 00	 call	 ?GetMetaTextForScript@IMetaTable@@QAEPBDPAUHWND__@@W4E_CODEPAGE@1@PBDH@Z ; IMetaTable::GetMetaTextForScript
  00060	50		 push	 eax
  00061	8d 4d ec	 lea	 ecx, DWORD PTR _p_szPacketName$[ebp]
  00064	ff 15 00 00 00
	00		 call	 DWORD PTR __imp_??0?$CStringT@DV?$StrTraitMFC_DLL@DV?$ChTraitsCRT@D@ATL@@@@@ATL@@QAE@PBD@Z

; 983  : 	// 2.  Packet .
; 984  : 	CPacket *pPacket = m_pPacketList->GetBaseData( p_szPacketName);

  0006a	6a 01		 push	 1
  0006c	51		 push	 ecx
  0006d	8d 45 ec	 lea	 eax, DWORD PTR _p_szPacketName$[ebp]
  00070	c7 45 fc 00 00
	00 00		 mov	 DWORD PTR __$EHRec$[ebp+8], 0
  00077	8b cc		 mov	 ecx, esp
  00079	50		 push	 eax
  0007a	ff 15 00 00 00
	00		 call	 DWORD PTR __imp_??0?$CStringT@DV?$StrTraitMFC_DLL@DV?$ChTraitsCRT@D@ATL@@@@@ATL@@QAE@ABV01@@Z
  00080	8b 8e 3c 03 00
	00		 mov	 ecx, DWORD PTR [esi+828]
  00086	8b 3d 00 00 00
	00		 mov	 edi, DWORD PTR __imp_?GetBaseData@CPacketList@@QAEPAVCPacket@@V?$CStringT@DV?$StrTraitMFC_DLL@DV?$ChTraitsCRT@D@ATL@@@@@ATL@@_N@Z
  0008c	ff d7		 call	 edi
  0008e	89 45 f0	 mov	 DWORD PTR _pPacket$1$[ebp], eax

; 985  : 	if( !pPacket) return FALSE;

  00091	85 c0		 test	 eax, eax
  00093	0f 84 b4 00 00
	00		 je	 $LN15@SetStartPe

; 986  : 	
; 987  : 	// 3.  Packet   Data Index .
; 988  : 	CPacket *pTimePacket = m_pPacketList->GetBaseData( _MTEXT( C0_DATE_TIME));

  00099	a1 54 00 00 00	 mov	 eax, DWORD PTR ?g_iMetaTable@@3VIMetaTable@@A+84
  0009e	6a 01		 push	 1
  000a0	51		 push	 ecx
  000a1	8b cc		 mov	 ecx, esp
  000a3	ff 30		 push	 DWORD PTR [eax]
  000a5	ff 15 00 00 00
	00		 call	 DWORD PTR __imp_??0?$CStringT@DV?$StrTraitMFC_DLL@DV?$ChTraitsCRT@D@ATL@@@@@ATL@@QAE@PBD@Z
  000ab	8b 8e 3c 03 00
	00		 mov	 ecx, DWORD PTR [esi+828]
  000b1	ff d7		 call	 edi
  000b3	8b d8		 mov	 ebx, eax

; 989  : 	if( !pTimePacket) return FALSE;

  000b5	85 db		 test	 ebx, ebx
  000b7	0f 84 90 00 00
	00		 je	 $LN15@SetStartPe

; 990  : 	int nStartIndex = pTimePacket->GetIndexFromData( p_lStartPeriod);

  000bd	66 0f 6e 45 0c	 movd	 xmm0, DWORD PTR _p_lStartPeriod$[ebp]
  000c2	83 ec 08	 sub	 esp, 8
  000c5	f3 0f e6 c0	 cvtdq2pd xmm0, xmm0
  000c9	8b cb		 mov	 ecx, ebx
  000cb	f2 0f 11 04 24	 movsd	 QWORD PTR [esp], xmm0
  000d0	ff 15 00 00 00
	00		 call	 DWORD PTR __imp_?GetIndexFromData@CPacket@@QAEHN@Z

; 991  : 
; 992  : 	// 4. p_bAddSpace   Index  Packet Data Shift.
; 993  : 	// (2004.06.18, )    , StartPeriod   
; 994  : 	//		Packet    StartIndex ,  Data  .
; 995  : 	if( p_bAddSpace)

  000d6	83 7d 10 00	 cmp	 DWORD PTR _p_bAddSpace$[ebp], 0
  000da	89 45 08	 mov	 DWORD PTR _nStartIndex$1$[ebp], eax
  000dd	74 5d		 je	 SHORT $LN3@SetStartPe

; 996  : 	{
; 997  : 		CList<double, double>* pDblList = pPacket->GetnumericDataList();

  000df	8b 75 f0	 mov	 esi, DWORD PTR _pPacket$1$[ebp]
  000e2	8b ce		 mov	 ecx, esi
  000e4	ff 15 00 00 00
	00		 call	 DWORD PTR __imp_?GetnumericDataList@CPacket@@QAEPAV?$CList@NN@@XZ
  000ea	8b f8		 mov	 edi, eax

; 998  : 		if( !pDblList) return FALSE;

  000ec	85 ff		 test	 edi, edi
  000ee	74 5d		 je	 SHORT $LN15@SetStartPe

; 999  : 		int nAddingCount = pTimePacket->GetCount() - pPacket->GetCount();

  000f0	8b 16		 mov	 edx, DWORD PTR [esi]
  000f2	8b ce		 mov	 ecx, esi
  000f4	ff 52 14	 call	 DWORD PTR [edx+20]
  000f7	8b 13		 mov	 edx, DWORD PTR [ebx]
  000f9	8b cb		 mov	 ecx, ebx
  000fb	8b f0		 mov	 esi, eax
  000fd	ff 52 14	 call	 DWORD PTR [edx+20]
  00100	8b d8		 mov	 ebx, eax
  00102	2b de		 sub	 ebx, esi

; 1000 : 		for( int i = 0; i < nAddingCount; i++) pDblList->AddHead( 0.0);

  00104	85 db		 test	 ebx, ebx
  00106	7e 31		 jle	 SHORT $LN25@SetStartPe
  00108	8b 47 04	 mov	 eax, DWORD PTR [edi+4]
  0010b	0f 1f 44 00 00	 npad	 5
$LL4@SetStartPe:
; File C:\Program Files (x86)\Microsoft Visual Studio\2019\Community\VC\Tools\MSVC\14.29.30133\atlmfc\include\afxtempl.h

; 953  : 	CNode* pNewNode = NewNode(NULL, m_pNodeHead);

  00110	50		 push	 eax
  00111	6a 00		 push	 0
  00113	8b cf		 mov	 ecx, edi
  00115	e8 00 00 00 00	 call	 ?NewNode@?$CList@NN@@IAEPAUCNode@1@PAU21@0@Z ; CList<double,double>::NewNode
  0011a	0f 57 c0	 xorps	 xmm0, xmm0

; 954  : 	pNewNode->data = newElement;

  0011d	f2 0f 11 40 08	 movsd	 QWORD PTR [eax+8], xmm0

; 955  : 	if (m_pNodeHead != NULL)

  00122	8b 4f 04	 mov	 ecx, DWORD PTR [edi+4]
  00125	85 c9		 test	 ecx, ecx
  00127	74 05		 je	 SHORT $LN18@SetStartPe

; 956  : 		m_pNodeHead->pPrev = pNewNode;

  00129	89 41 04	 mov	 DWORD PTR [ecx+4], eax
  0012c	eb 03		 jmp	 SHORT $LN19@SetStartPe
$LN18@SetStartPe:

; 957  : 	else
; 958  : 		m_pNodeTail = pNewNode;

  0012e	89 47 08	 mov	 DWORD PTR [edi+8], eax
$LN19@SetStartPe:

; 959  : 	m_pNodeHead = pNewNode;

  00131	89 47 04	 mov	 DWORD PTR [edi+4], eax
; File D:\git\src\IBK\IBK_DRFN\ProjSrc\SrcChartEx\ChartOCX\KTBChart\KTBChartDLL.cpp

; 1000 : 		for( int i = 0; i < nAddingCount; i++) pDblList->AddHead( 0.0);

  00134	83 eb 01	 sub	 ebx, 1
  00137	75 d7		 jne	 SHORT $LL4@SetStartPe
$LN25@SetStartPe:

; 1001 : 	}
; 1002 : 
; 1003 : 	// TEST: (05/08/27)  Index  0.0 .
; 1004 : //	CList<double, double>* pTmpList = pPacket->GetnumericDataList();
; 1005 : //	POSITION pos;
; 1006 : //	for(int i = 0; i < nStartIndex; i++)
; 1007 : //	{
; 1008 : //		pos = pTmpList->FindIndex(i);
; 1009 : //		if(!pos)
; 1010 : //			continue;
; 1011 : //		pTmpList->SetAt(pos, 0.0);
; 1012 : //	}
; 1013 : 
; 1014 : 	// 4. Packet  Index .
; 1015 : 	pPacket->SetStartPeriod( nStartIndex);

  00139	8b 45 08	 mov	 eax, DWORD PTR _nStartIndex$1$[ebp]
$LN3@SetStartPe:
  0013c	8b 4d f0	 mov	 ecx, DWORD PTR _pPacket$1$[ebp]
  0013f	50		 push	 eax
  00140	ff 15 00 00 00
	00		 call	 DWORD PTR __imp_?SetStartPeriod@CPacket@@QAEXH@Z

; 1016 : 
; 1017 : 	return TRUE;

  00146	be 01 00 00 00	 mov	 esi, 1
  0014b	eb 02		 jmp	 SHORT $LN16@SetStartPe
$LN15@SetStartPe:
  0014d	33 f6		 xor	 esi, esi
$LN16@SetStartPe:
  0014f	8d 4d ec	 lea	 ecx, DWORD PTR _p_szPacketName$[ebp]
  00152	ff 15 00 00 00
	00		 call	 DWORD PTR __imp_??1?$CStringT@DV?$StrTraitMFC_DLL@DV?$ChTraitsCRT@D@ATL@@@@@ATL@@QAE@XZ
  00158	8b c6		 mov	 eax, esi

; 1018 : }

  0015a	8b 4d f4	 mov	 ecx, DWORD PTR __$EHRec$[ebp]
  0015d	64 89 0d 00 00
	00 00		 mov	 DWORD PTR fs:0, ecx
  00164	59		 pop	 ecx
  00165	5f		 pop	 edi
  00166	5e		 pop	 esi
  00167	5b		 pop	 ebx
  00168	8b e5		 mov	 esp, ebp
  0016a	5d		 pop	 ebp
  0016b	c2 0c 00	 ret	 12			; 0000000cH
_TEXT	ENDS
;	COMDAT text$x
text$x	SEGMENT
__unwindfunclet$?SetStartPeriodOfPacket@CKTBChartCtrl@@IAEHPBDJH@Z$0:
  00000	8d 4d ec	 lea	 ecx, DWORD PTR _p_szPacketName$[ebp]
  00003	ff 25 00 00 00
	00		 jmp	 DWORD PTR __imp_??1?$CStringT@DV?$StrTraitMFC_DLL@DV?$ChTraitsCRT@D@ATL@@@@@ATL@@QAE@XZ
  00009	cc		 int	 3
  0000a	cc		 int	 3
  0000b	cc		 int	 3
  0000c	cc		 int	 3
  0000d	cc		 int	 3
__ehhandler$?SetStartPeriodOfPacket@CKTBChartCtrl@@IAEHPBDJH@Z:
  0000e	90		 npad	 1
  0000f	90		 npad	 1
  00010	8b 54 24 08	 mov	 edx, DWORD PTR [esp+8]
  00014	8d 42 0c	 lea	 eax, DWORD PTR [edx+12]
  00017	8b 4a e8	 mov	 ecx, DWORD PTR [edx-24]
  0001a	33 c8		 xor	 ecx, eax
  0001c	e8 00 00 00 00	 call	 @__security_check_cookie@4
  00021	b8 00 00 00 00	 mov	 eax, OFFSET __ehfuncinfo$?SetStartPeriodOfPacket@CKTBChartCtrl@@IAEHPBDJH@Z
  00026	e9 00 00 00 00	 jmp	 ___CxxFrameHandler3
text$x	ENDS
?SetStartPeriodOfPacket@CKTBChartCtrl@@IAEHPBDJH@Z ENDP	; CKTBChartCtrl::SetStartPeriodOfPacket
; Function compile flags: /Ogtp
; File D:\git\src\IBK\IBK_DRFN\ProjSrc\SrcChartEx\ChartOCX\KTBChart\KTBChartDLL.cpp
;	COMDAT ?GetColumnBlockCount@CKTBChartCtrl@@IAEFXZ
_TEXT	SEGMENT
?GetColumnBlockCount@CKTBChartCtrl@@IAEFXZ PROC		; CKTBChartCtrl::GetColumnBlockCount, COMDAT
; _this$ = ecx

; 956  : 	// TODO: Add your dispatch handler code here
; 957  : 	if( !m_pMainBlock) return 0;

  00000	8b 89 34 03 00
	00		 mov	 ecx, DWORD PTR [ecx+820]
  00006	85 c9		 test	 ecx, ecx
  00008	75 03		 jne	 SHORT $LN2@GetColumnB
  0000a	33 c0		 xor	 eax, eax

; 959  : }

  0000c	c3		 ret	 0
$LN2@GetColumnB:

; 958  : 	return m_pMainBlock->GetColumnCount();

  0000d	8b 01		 mov	 eax, DWORD PTR [ecx]
  0000f	ff a0 ac 01 00
	00		 jmp	 DWORD PTR [eax+428]
?GetColumnBlockCount@CKTBChartCtrl@@IAEFXZ ENDP		; CKTBChartCtrl::GetColumnBlockCount
_TEXT	ENDS
; Function compile flags: /Ogtp
; File D:\git\src\IBK\IBK_DRFN\ProjSrc\SrcChartEx\ChartOCX\KTBChart\KTBChartDLL.cpp
;	COMDAT ?GetRowBlockCount@CKTBChartCtrl@@IAEFXZ
_TEXT	SEGMENT
?GetRowBlockCount@CKTBChartCtrl@@IAEFXZ PROC		; CKTBChartCtrl::GetRowBlockCount, COMDAT
; _this$ = ecx

; 949  : 	// TODO: Add your dispatch handler code here
; 950  : 	if( !m_pMainBlock) return 0;

  00000	8b 89 34 03 00
	00		 mov	 ecx, DWORD PTR [ecx+820]
  00006	85 c9		 test	 ecx, ecx
  00008	75 03		 jne	 SHORT $LN2@GetRowBloc
  0000a	33 c0		 xor	 eax, eax

; 952  : }

  0000c	c3		 ret	 0
$LN2@GetRowBloc:

; 951  : 	return m_pMainBlock->GetRowCount();

  0000d	8b 01		 mov	 eax, DWORD PTR [ecx]
  0000f	ff a0 a4 01 00
	00		 jmp	 DWORD PTR [eax+420]
?GetRowBlockCount@CKTBChartCtrl@@IAEFXZ ENDP		; CKTBChartCtrl::GetRowBlockCount
_TEXT	ENDS
; Function compile flags: /Ogtp
; File D:\git\src\IBK\IBK_DRFN\ProjSrc\SrcChartEx\ChartOCX\KTBChart\KTBChartDLL.cpp
; File D:\git\src\IBK\IBK_DRFN\ProjSrc\SrcChartEx\ChartOCX\Include_Chart\BlockBaseData.h
; File D:\git\src\IBK\IBK_DRFN\ProjSrc\SrcChartEx\ChartOCX\KTBChart\KTBChartDLL.cpp
; File D:\git\src\IBK\IBK_DRFN\ProjSrc\SrcChartEx\ChartOCX\Include_Chart\BlockBaseData.h
; File D:\git\src\IBK\IBK_DRFN\ProjSrc\SrcChartEx\ChartOCX\KTBChart\KTBChartDLL.cpp
; File C:\Program Files (x86)\Microsoft Visual Studio\2019\Community\VC\Tools\MSVC\14.29.30133\atlmfc\include\afxwin2.inl
; File D:\git\src\IBK\IBK_DRFN\ProjSrc\SrcChartEx\ChartOCX\KTBChart\KTBChartDLL.cpp
;	COMDAT ?ChangeVertScalePosition@CKTBChartCtrl@@IAEHFFFF@Z
_TEXT	SEGMENT
$T1 = -8						; size = 8
_nScalePosition$ = 8					; size = 2
_nRowIndex$ = 12					; size = 2
_nColumnIndex$ = 16					; size = 2
_nVSGroupIndex$ = 20					; size = 2
?ChangeVertScalePosition@CKTBChartCtrl@@IAEHFFFF@Z PROC	; CKTBChartCtrl::ChangeVertScalePosition, COMDAT
; _this$ = ecx

; 926  : {

  00000	55		 push	 ebp
  00001	8b ec		 mov	 ebp, esp
  00003	83 ec 08	 sub	 esp, 8
  00006	56		 push	 esi
  00007	8b f1		 mov	 esi, ecx

; 927  : 	// TODO: Add your dispatch handler code here
; 928  : 	if(m_pMainBlock == NULL)

  00009	8b 8e 34 03 00
	00		 mov	 ecx, DWORD PTR [esi+820]
  0000f	85 c9		 test	 ecx, ecx
  00011	75 09		 jne	 SHORT $LN2@ChangeVert

; 929  : 		return FALSE;

  00013	33 c0		 xor	 eax, eax
  00015	5e		 pop	 esi

; 943  : }

  00016	8b e5		 mov	 esp, ebp
  00018	5d		 pop	 ebp
  00019	c2 10 00	 ret	 16			; 00000010H
$LN2@ChangeVert:

; 930  : 
; 931  : 	BOOL bResult = FALSE;
; 932  : 	if( nColumnIndex < 0 || nRowIndex < 0 || nVSGroupIndex < 0)

  0001c	66 8b 55 10	 mov	 dx, WORD PTR _nColumnIndex$[ebp]
  00020	57		 push	 edi
  00021	66 85 d2	 test	 dx, dx
  00024	78 3c		 js	 SHORT $LN5@ChangeVert
  00026	66 8b 45 0c	 mov	 ax, WORD PTR _nRowIndex$[ebp]
  0002a	66 85 c0	 test	 ax, ax
  0002d	78 33		 js	 SHORT $LN5@ChangeVert
  0002f	66 8b 7d 14	 mov	 di, WORD PTR _nVSGroupIndex$[ebp]
  00033	66 85 ff	 test	 di, di
  00036	78 2a		 js	 SHORT $LN5@ChangeVert

; 938  : 		bResult = m_pMainBlock->SetVertScalePosition(CBlockIndex(nRowIndex, nColumnIndex), nVSGroupIndex, (CScaleBaseData::VERTSCALEPOSITION) nScalePosition);

  00038	98		 cwde
; File D:\git\src\IBK\IBK_DRFN\ProjSrc\SrcChartEx\ChartOCX\Include_Chart\BlockBaseData.h

; 20   : 	CBlockIndex( const int row, const int column)		{	m_nRow = row;	m_nColumn = column;		}

  00039	89 45 f8	 mov	 DWORD PTR $T1[ebp], eax
; File D:\git\src\IBK\IBK_DRFN\ProjSrc\SrcChartEx\ChartOCX\KTBChart\KTBChartDLL.cpp

; 938  : 		bResult = m_pMainBlock->SetVertScalePosition(CBlockIndex(nRowIndex, nColumnIndex), nVSGroupIndex, (CScaleBaseData::VERTSCALEPOSITION) nScalePosition);

  0003c	0f bf c2	 movsx	 eax, dx
; File D:\git\src\IBK\IBK_DRFN\ProjSrc\SrcChartEx\ChartOCX\Include_Chart\BlockBaseData.h

; 20   : 	CBlockIndex( const int row, const int column)		{	m_nRow = row;	m_nColumn = column;		}

  0003f	89 45 fc	 mov	 DWORD PTR $T1[ebp+4], eax
; File D:\git\src\IBK\IBK_DRFN\ProjSrc\SrcChartEx\ChartOCX\KTBChart\KTBChartDLL.cpp

; 938  : 		bResult = m_pMainBlock->SetVertScalePosition(CBlockIndex(nRowIndex, nColumnIndex), nVSGroupIndex, (CScaleBaseData::VERTSCALEPOSITION) nScalePosition);

  00042	0f bf 45 08	 movsx	 eax, WORD PTR _nScalePosition$[ebp]
  00046	8b 11		 mov	 edx, DWORD PTR [ecx]
  00048	50		 push	 eax
  00049	0f bf c7	 movsx	 eax, di
  0004c	50		 push	 eax
  0004d	8d 45 f8	 lea	 eax, DWORD PTR $T1[ebp]
  00050	50		 push	 eax
  00051	8b 82 f0 00 00
	00		 mov	 eax, DWORD PTR [edx+240]
  00057	ff d0		 call	 eax
  00059	0f b6 c0	 movzx	 eax, al

; 939  : 
; 940  : 	if(bResult) Invalidate();

  0005c	85 c0		 test	 eax, eax
  0005e	74 1c		 je	 SHORT $LN6@ChangeVert
  00060	eb 0d		 jmp	 SHORT $LN12@ChangeVert
$LN5@ChangeVert:

; 933  : 	{
; 934  : 		m_pMainBlock->SetAllVertScalePosition((CScaleBaseData::VERTSCALEPOSITION) nScalePosition);

  00062	8b 11		 mov	 edx, DWORD PTR [ecx]
  00064	0f bf 45 08	 movsx	 eax, WORD PTR _nScalePosition$[ebp]
  00068	50		 push	 eax
  00069	ff 92 f4 00 00
	00		 call	 DWORD PTR [edx+244]
$LN12@ChangeVert:
; File C:\Program Files (x86)\Microsoft Visual Studio\2019\Community\VC\Tools\MSVC\14.29.30133\atlmfc\include\afxwin2.inl

; 114  : 	{ ASSERT(::IsWindow(m_hWnd)); ::InvalidateRect(m_hWnd, NULL, bErase); }

  0006f	6a 01		 push	 1
  00071	6a 00		 push	 0
  00073	ff 76 20	 push	 DWORD PTR [esi+32]
  00076	ff 15 00 00 00
	00		 call	 DWORD PTR __imp__InvalidateRect@12
$LN6@ChangeVert:
; File D:\git\src\IBK\IBK_DRFN\ProjSrc\SrcChartEx\ChartOCX\KTBChart\KTBChartDLL.cpp

; 942  : 	return TRUE;

  0007c	5f		 pop	 edi
  0007d	b8 01 00 00 00	 mov	 eax, 1
  00082	5e		 pop	 esi

; 943  : }

  00083	8b e5		 mov	 esp, ebp
  00085	5d		 pop	 ebp
  00086	c2 10 00	 ret	 16			; 00000010H
?ChangeVertScalePosition@CKTBChartCtrl@@IAEHFFFF@Z ENDP	; CKTBChartCtrl::ChangeVertScalePosition
_TEXT	ENDS
; Function compile flags: /Ogtp
; File D:\git\src\IBK\IBK_DRFN\ProjSrc\SrcChartEx\ChartOCX\KTBChart\KTBChartDLL.cpp
;	COMDAT ?ShowInnerToolBar@CKTBChartCtrl@@IAEXH@Z
_TEXT	SEGMENT
_p_bShow$ = 8						; size = 4
?ShowInnerToolBar@CKTBChartCtrl@@IAEXH@Z PROC		; CKTBChartCtrl::ShowInnerToolBar, COMDAT
; _this$ = ecx

; 894  : {

  00000	55		 push	 ebp
  00001	8b ec		 mov	 ebp, esp

; 895  : 	// TODO: Add your dispatch handler code here
; 896  : 
; 897  : 	if( m_bShowInnerToolBar == p_bShow) return;

  00003	8b 45 08	 mov	 eax, DWORD PTR _p_bShow$[ebp]
  00006	56		 push	 esi
  00007	8b f1		 mov	 esi, ecx
  00009	39 86 c8 04 00
	00		 cmp	 DWORD PTR [esi+1224], eax
  0000f	74 1a		 je	 SHORT $LN1@ShowInnerT

; 898  : 	m_bShowInnerToolBar = p_bShow;
; 899  : 	OnWindowPosChanged( NULL);

  00011	6a 00		 push	 0
  00013	89 86 c8 04 00
	00		 mov	 DWORD PTR [esi+1224], eax
  00019	e8 00 00 00 00	 call	 ?OnWindowPosChanged@CKTBChartCtrl@@IAEXPAUtagWINDOWPOS@@@Z ; CKTBChartCtrl::OnWindowPosChanged

; 900  : 	// (2004.06.04, ) Block     OnSize()  .
; 901  : 	OnSize( 0, 0, 0);

  0001e	6a 00		 push	 0
  00020	6a 00		 push	 0
  00022	6a 00		 push	 0
  00024	8b ce		 mov	 ecx, esi
  00026	e8 00 00 00 00	 call	 ?OnSize@CKTBChartCtrl@@IAEXIHH@Z ; CKTBChartCtrl::OnSize
$LN1@ShowInnerT:
  0002b	5e		 pop	 esi

; 902  : }

  0002c	5d		 pop	 ebp
  0002d	c2 04 00	 ret	 4
?ShowInnerToolBar@CKTBChartCtrl@@IAEXH@Z ENDP		; CKTBChartCtrl::ShowInnerToolBar
_TEXT	ENDS
; Function compile flags: /Ogtp
; File D:\git\src\IBK\IBK_DRFN\ProjSrc\SrcChartEx\ChartOCX\KTBChart\KTBChartDLL.cpp
;	COMDAT ?HasGraph@CKTBChartCtrl@@IAEHPBD@Z
_TEXT	SEGMENT
__$EHRec$ = -12						; size = 12
_p_szGraphName$ = 8					; size = 4
_p_szGraphName2$ = 8					; size = 4
?HasGraph@CKTBChartCtrl@@IAEHPBD@Z PROC			; CKTBChartCtrl::HasGraph, COMDAT
; _this$ = ecx

; 664  : {

  00000	55		 push	 ebp
  00001	8b ec		 mov	 ebp, esp
  00003	6a ff		 push	 -1
  00005	68 00 00 00 00	 push	 __ehhandler$?HasGraph@CKTBChartCtrl@@IAEHPBD@Z
  0000a	64 a1 00 00 00
	00		 mov	 eax, DWORD PTR fs:0
  00010	50		 push	 eax
  00011	56		 push	 esi
  00012	a1 00 00 00 00	 mov	 eax, DWORD PTR ___security_cookie
  00017	33 c5		 xor	 eax, ebp
  00019	50		 push	 eax
  0001a	8d 45 f4	 lea	 eax, DWORD PTR __$EHRec$[ebp]
  0001d	64 a3 00 00 00
	00		 mov	 DWORD PTR fs:0, eax
  00023	8b f1		 mov	 esi, ecx

; 665  : 	// TODO: Add your dispatch handler code here
; 666  : 
; 667  : 	CString p_szGraphName = _STOM2( p_szGraphName2);

  00025	6a 00		 push	 0
  00027	ff 75 08	 push	 DWORD PTR _p_szGraphName2$[ebp]
  0002a	b9 00 00 00 00	 mov	 ecx, OFFSET ?g_iMetaTable@@3VIMetaTable@@A ; g_iMetaTable
  0002f	6a 02		 push	 2
  00031	ff b6 c0 05 00
	00		 push	 DWORD PTR [esi+1472]
  00037	e8 00 00 00 00	 call	 ?GetMetaTextForScript@IMetaTable@@QAEPBDPAUHWND__@@W4E_CODEPAGE@1@PBDH@Z ; IMetaTable::GetMetaTextForScript
  0003c	50		 push	 eax
  0003d	8d 4d 08	 lea	 ecx, DWORD PTR _p_szGraphName$[ebp]
  00040	ff 15 00 00 00
	00		 call	 DWORD PTR __imp_??0?$CStringT@DV?$StrTraitMFC_DLL@DV?$ChTraitsCRT@D@ATL@@@@@ATL@@QAE@PBD@Z

; 668  : 	return HasIndicator( p_szGraphName);

  00046	ff 75 08	 push	 DWORD PTR _p_szGraphName$[ebp]
  00049	8b ce		 mov	 ecx, esi
  0004b	c7 45 fc 00 00
	00 00		 mov	 DWORD PTR __$EHRec$[ebp+8], 0
  00052	e8 00 00 00 00	 call	 ?HasIndicator@CKTBChartCtrl@@IAEHPBD@Z ; CKTBChartCtrl::HasIndicator
  00057	8d 4d 08	 lea	 ecx, DWORD PTR _p_szGraphName$[ebp]
  0005a	8b f0		 mov	 esi, eax
  0005c	ff 15 00 00 00
	00		 call	 DWORD PTR __imp_??1?$CStringT@DV?$StrTraitMFC_DLL@DV?$ChTraitsCRT@D@ATL@@@@@ATL@@QAE@XZ
  00062	8b c6		 mov	 eax, esi

; 669  : }

  00064	8b 4d f4	 mov	 ecx, DWORD PTR __$EHRec$[ebp]
  00067	64 89 0d 00 00
	00 00		 mov	 DWORD PTR fs:0, ecx
  0006e	59		 pop	 ecx
  0006f	5e		 pop	 esi
  00070	8b e5		 mov	 esp, ebp
  00072	5d		 pop	 ebp
  00073	c2 04 00	 ret	 4
_TEXT	ENDS
;	COMDAT text$x
text$x	SEGMENT
__unwindfunclet$?HasGraph@CKTBChartCtrl@@IAEHPBD@Z$0:
  00000	8d 4d 08	 lea	 ecx, DWORD PTR _p_szGraphName$[ebp]
  00003	ff 25 00 00 00
	00		 jmp	 DWORD PTR __imp_??1?$CStringT@DV?$StrTraitMFC_DLL@DV?$ChTraitsCRT@D@ATL@@@@@ATL@@QAE@XZ
  00009	cc		 int	 3
  0000a	cc		 int	 3
  0000b	cc		 int	 3
  0000c	cc		 int	 3
  0000d	cc		 int	 3
__ehhandler$?HasGraph@CKTBChartCtrl@@IAEHPBD@Z:
  0000e	90		 npad	 1
  0000f	90		 npad	 1
  00010	8b 54 24 08	 mov	 edx, DWORD PTR [esp+8]
  00014	8d 42 0c	 lea	 eax, DWORD PTR [edx+12]
  00017	8b 4a f8	 mov	 ecx, DWORD PTR [edx-8]
  0001a	33 c8		 xor	 ecx, eax
  0001c	e8 00 00 00 00	 call	 @__security_check_cookie@4
  00021	b8 00 00 00 00	 mov	 eax, OFFSET __ehfuncinfo$?HasGraph@CKTBChartCtrl@@IAEHPBD@Z
  00026	e9 00 00 00 00	 jmp	 ___CxxFrameHandler3
text$x	ENDS
?HasGraph@CKTBChartCtrl@@IAEHPBD@Z ENDP			; CKTBChartCtrl::HasGraph
; Function compile flags: /Ogtp
; File D:\git\src\IBK\IBK_DRFN\ProjSrc\SrcChartEx\ChartOCX\KTBChart\KTBChartDLL.cpp
; File C:\Program Files (x86)\Microsoft Visual Studio\2019\Community\VC\Tools\MSVC\14.29.30133\atlmfc\include\atlsimpstr.h
; File D:\git\src\IBK\IBK_DRFN\ProjSrc\SrcChartEx\ChartOCX\KTBChart\KTBChartDLL.cpp
;	COMDAT ?EmptyChart@CKTBChartCtrl@@IAEHHH@Z
_TEXT	SEGMENT
_strChartList$ = -16					; size = 4
__$EHRec$ = -12						; size = 12
_bIsDeleteAllPacket$ = 8				; size = 4
_bIsDefault$ = 12					; size = 4
?EmptyChart@CKTBChartCtrl@@IAEHHH@Z PROC		; CKTBChartCtrl::EmptyChart, COMDAT
; _this$ = ecx

; 610  : {

  00000	55		 push	 ebp
  00001	8b ec		 mov	 ebp, esp
  00003	6a ff		 push	 -1
  00005	68 00 00 00 00	 push	 __ehhandler$?EmptyChart@CKTBChartCtrl@@IAEHHH@Z
  0000a	64 a1 00 00 00
	00		 mov	 eax, DWORD PTR fs:0
  00010	50		 push	 eax
  00011	51		 push	 ecx
  00012	56		 push	 esi
  00013	57		 push	 edi
  00014	a1 00 00 00 00	 mov	 eax, DWORD PTR ___security_cookie
  00019	33 c5		 xor	 eax, ebp
  0001b	50		 push	 eax
  0001c	8d 45 f4	 lea	 eax, DWORD PTR __$EHRec$[ebp]
  0001f	64 a3 00 00 00
	00		 mov	 DWORD PTR fs:0, eax
  00025	8b f1		 mov	 esi, ecx

; 611  : 	CString strChartList =	"BlockColumn;\r\n"

  00027	68 00 00 00 00	 push	 OFFSET ??_C@_0BH@CLHAEGOH@BlockColumn?$DL?$AN?6Block?$DL?$AN?6@
  0002c	8d 4d f0	 lea	 ecx, DWORD PTR _strChartList$[ebp]
  0002f	ff 15 00 00 00
	00		 call	 DWORD PTR __imp_??0?$CStringT@DV?$StrTraitMFC_DLL@DV?$ChTraitsCRT@D@ATL@@@@@ATL@@QAE@PBD@Z

; 612  : 							"Block;\r\n";
; 613  : 	strChartList += _MTEXT( C0_DATE_TIME);

  00035	a1 54 00 00 00	 mov	 eax, DWORD PTR ?g_iMetaTable@@3VIMetaTable@@A+84
  0003a	8d 4d f0	 lea	 ecx, DWORD PTR _strChartList$[ebp]
  0003d	c7 45 fc 00 00
	00 00		 mov	 DWORD PTR __$EHRec$[ebp+8], 0
  00044	ff 30		 push	 DWORD PTR [eax]
  00046	ff 15 00 00 00
	00		 call	 DWORD PTR __imp_??Y?$CStringT@DV?$StrTraitMFC_DLL@DV?$ChTraitsCRT@D@ATL@@@@@ATL@@QAEAAV01@PBD@Z

; 614  : 	strChartList +=					";4;2;/;:;0;0;0;\r\n"

  0004c	68 00 00 00 00	 push	 OFFSET ??_C@_0CD@OBEHMDNE@?$DL4?$DL2?$DL?1?$DL?3?$DL0?$DL0?$DL0?$DL?$AN?6VertScaleGroup@
  00051	8d 4d f0	 lea	 ecx, DWORD PTR _strChartList$[ebp]
  00054	ff 15 00 00 00
	00		 call	 DWORD PTR __imp_??Y?$CStringT@DV?$StrTraitMFC_DLL@DV?$ChTraitsCRT@D@ATL@@@@@ATL@@QAEAAV01@PBD@Z

; 615  : 							"VertScaleGroup;\r\n";
; 616  : 	strChartList += _MTEXT( C6_INDICATOR_DATA);

  0005a	a1 54 00 00 00	 mov	 eax, DWORD PTR ?g_iMetaTable@@3VIMetaTable@@A+84
  0005f	8d 4d f0	 lea	 ecx, DWORD PTR _strChartList$[ebp]
  00062	ff b0 7c 09 00
	00		 push	 DWORD PTR [eax+2428]
  00068	ff 15 00 00 00
	00		 call	 DWORD PTR __imp_??Y?$CStringT@DV?$StrTraitMFC_DLL@DV?$ChTraitsCRT@D@ATL@@@@@ATL@@QAEAAV01@PBD@Z

; 617  : 	strChartList +=					";1;2;0;\r\n"

  0006e	68 00 00 00 00	 push	 OFFSET ??_C@_0DI@LMILEPF@?$DL1?$DL2?$DL0?$DL?$AN?6VertScaleGroupEnd?$DL?$AN?6Bl@
  00073	8d 4d f0	 lea	 ecx, DWORD PTR _strChartList$[ebp]
  00076	ff 15 00 00 00
	00		 call	 DWORD PTR __imp_??Y?$CStringT@DV?$StrTraitMFC_DLL@DV?$ChTraitsCRT@D@ATL@@@@@ATL@@QAEAAV01@PBD@Z

; 627  : 	if(m_pPacketList == NULL || m_pIndicatorList == NULL || m_pMainBlock == NULL)

  0007c	83 be 3c 03 00
	00 00		 cmp	 DWORD PTR [esi+828], 0
; File C:\Program Files (x86)\Microsoft Visual Studio\2019\Community\VC\Tools\MSVC\14.29.30133\atlmfc\include\atlsimpstr.h

; 377  : 		return( m_pszData );

  00083	8b 7d f0	 mov	 edi, DWORD PTR _strChartList$[ebp]
; File D:\git\src\IBK\IBK_DRFN\ProjSrc\SrcChartEx\ChartOCX\KTBChart\KTBChartDLL.cpp

; 627  : 	if(m_pPacketList == NULL || m_pIndicatorList == NULL || m_pMainBlock == NULL)

  00086	0f 84 cd 00 00
	00		 je	 $LN8@EmptyChart
  0008c	83 be 40 03 00
	00 00		 cmp	 DWORD PTR [esi+832], 0
  00093	0f 84 c0 00 00
	00		 je	 $LN8@EmptyChart
  00099	83 be 34 03 00
	00 00		 cmp	 DWORD PTR [esi+820], 0
  000a0	0f 84 b3 00 00
	00		 je	 $LN8@EmptyChart

; 629  : 
; 630  : 	RunToolFunction(CToolOptionInfo::T_DELETE_ALL, 1);

  000a6	8b 06		 mov	 eax, DWORD PTR [esi]
  000a8	8b ce		 mov	 ecx, esi
  000aa	6a 01		 push	 1
  000ac	6a 3d		 push	 61			; 0000003dH
  000ae	ff 90 18 03 00
	00		 call	 DWORD PTR [eax+792]

; 654  : 	m_strChartList = p_szChartList;

  000b4	57		 push	 edi
  000b5	8d 8e 80 05 00
	00		 lea	 ecx, DWORD PTR [esi+1408]
  000bb	c7 86 28 02 00
	00 01 00 00 00	 mov	 DWORD PTR [esi+552], 1
  000c5	c7 86 2c 02 00
	00 01 00 00 00	 mov	 DWORD PTR [esi+556], 1
  000cf	ff 15 00 00 00
	00		 call	 DWORD PTR __imp_??4?$CStringT@DV?$StrTraitMFC_DLL@DV?$ChTraitsCRT@D@ATL@@@@@ATL@@QAEAAV01@PBD@Z

; 655  : 	m_strBlockRegion = "";

  000d5	68 00 00 00 00	 push	 OFFSET ??_C@_00CNPNBAHC@@
  000da	8d 8e 9c 03 00
	00		 lea	 ecx, DWORD PTR [esi+924]
  000e0	ff 15 00 00 00
	00		 call	 DWORD PTR __imp_??4?$CStringT@DV?$StrTraitMFC_DLL@DV?$ChTraitsCRT@D@ATL@@@@@ATL@@QAEAAV01@PBD@Z

; 656  : 
; 657  : 	//
; 658  : 	SetMainBlock_MainBlock(true);

  000e6	6a 01		 push	 1
  000e8	6a 01		 push	 1
  000ea	8b ce		 mov	 ecx, esi
  000ec	e8 00 00 00 00	 call	 ?SetMainBlock_MainBlock@CKTBChartCtrl@@AAEX_NH@Z ; CKTBChartCtrl::SetMainBlock_MainBlock

; 636  : 	m_pPacketList->ClearDataAll( p_bIsDeleteAllPacket);

  000f1	83 7d 08 00	 cmp	 DWORD PTR _bIsDeleteAllPacket$[ebp], 0
  000f5	8b 8e 3c 03 00
	00		 mov	 ecx, DWORD PTR [esi+828]
  000fb	0f 95 c0	 setne	 al
  000fe	0f b6 c0	 movzx	 eax, al
  00101	50		 push	 eax
  00102	ff 15 00 00 00
	00		 call	 DWORD PTR __imp_?ClearDataAll@CPacketList@@QAEH_N@Z

; 637  : 	m_pIndicatorList->RemoveAllIndicatorInfo( EILT_USER);

  00108	8b 8e 40 03 00
	00		 mov	 ecx, DWORD PTR [esi+832]
  0010e	6a 03		 push	 3
  00110	ff 15 00 00 00
	00		 call	 DWORD PTR __imp_?RemoveAllIndicatorInfo@CIndicatorList@@QAEHW4EIndicatorListType@@@Z

; 638  : 	m_pMainBlock->Initialize_IndicatorInfo( FALSE);

  00116	8b 8e 34 03 00
	00		 mov	 ecx, DWORD PTR [esi+820]
  0011c	6a 00		 push	 0
  0011e	8b 01		 mov	 eax, DWORD PTR [ecx]
  00120	ff 90 38 01 00
	00		 call	 DWORD PTR [eax+312]

; 639  : 
; 640  : 	//   : data  
; 641  : 	ResetScroll();

  00126	6a 00		 push	 0
  00128	8b ce		 mov	 ecx, esi
  0012a	e8 00 00 00 00	 call	 ?ResetScroll@CKTBChartCtrl@@QAEXH@Z ; CKTBChartCtrl::ResetScroll

; 642  : 
; 643  : 	//  default 
; 644  : 	if( p_bIsDefault) ResetChartCfgWith(0);

  0012f	83 7d 0c 00	 cmp	 DWORD PTR _bIsDefault$[ebp], 0
  00133	74 1d		 je	 SHORT $LN16@EmptyChart

; 586  :  	if(p_nIndex <= 0)

  00135	8d 8e e4 03 00
	00		 lea	 ecx, DWORD PTR [esi+996]

; 587  : 		m_SaveChartcfg.RemoveAll();

  0013b	e8 00 00 00 00	 call	 ?RemoveAll@CSaveChartCfgList@@QAEXXZ ; CSaveChartCfgList::RemoveAll

; 588  : 	else
; 589  : 		m_SaveChartcfg.RemoveFromIndexToEnd(p_nIndex);
; 590  : 
; 591  : 	SaveChartCfg();

  00140	6a 00		 push	 0
  00142	8b ce		 mov	 ecx, esi
  00144	e8 00 00 00 00	 call	 ?SaveChartCfg@CKTBChartCtrl@@AAE_NH@Z ; CKTBChartCtrl::SaveChartCfg

; 592  : 
; 593  : 	//sy 2006.02.20. -> map default
; 594  : 	if(p_nIndex <= 0) SetMapDefaultInCurrent( false);

  00149	6a 00		 push	 0
  0014b	8b ce		 mov	 ecx, esi
  0014d	e8 00 00 00 00	 call	 ?SetMapDefaultInCurrent@CKTBChartCtrl@@IAEHH@Z ; CKTBChartCtrl::SetMapDefaultInCurrent
$LN16@EmptyChart:

; 646  : 	return true;

  00152	be 01 00 00 00	 mov	 esi, 1
  00157	eb 02		 jmp	 SHORT $LN6@EmptyChart
$LN8@EmptyChart:

; 628  : 		return false;

  00159	33 f6		 xor	 esi, esi
$LN6@EmptyChart:

; 618  : 							"VertScaleGroupEnd;\r\n"
; 619  : 							"BlockEnd;\r\n"
; 620  : 							"BlockColumnEnd;";
; 621  : 	return EmptyChart2( strChartList, bIsDeleteAllPacket, bIsDefault);

  0015b	8d 4d f0	 lea	 ecx, DWORD PTR _strChartList$[ebp]
  0015e	ff 15 00 00 00
	00		 call	 DWORD PTR __imp_??1?$CStringT@DV?$StrTraitMFC_DLL@DV?$ChTraitsCRT@D@ATL@@@@@ATL@@QAE@XZ
  00164	8b c6		 mov	 eax, esi

; 622  : }

  00166	8b 4d f4	 mov	 ecx, DWORD PTR __$EHRec$[ebp]
  00169	64 89 0d 00 00
	00 00		 mov	 DWORD PTR fs:0, ecx
  00170	59		 pop	 ecx
  00171	5f		 pop	 edi
  00172	5e		 pop	 esi
  00173	8b e5		 mov	 esp, ebp
  00175	5d		 pop	 ebp
  00176	c2 08 00	 ret	 8
_TEXT	ENDS
;	COMDAT text$x
text$x	SEGMENT
__unwindfunclet$?EmptyChart@CKTBChartCtrl@@IAEHHH@Z$0:
  00000	8d 4d f0	 lea	 ecx, DWORD PTR _strChartList$[ebp]
  00003	ff 25 00 00 00
	00		 jmp	 DWORD PTR __imp_??1?$CStringT@DV?$StrTraitMFC_DLL@DV?$ChTraitsCRT@D@ATL@@@@@ATL@@QAE@XZ
  00009	cc		 int	 3
  0000a	cc		 int	 3
  0000b	cc		 int	 3
  0000c	cc		 int	 3
  0000d	cc		 int	 3
__ehhandler$?EmptyChart@CKTBChartCtrl@@IAEHHH@Z:
  0000e	90		 npad	 1
  0000f	90		 npad	 1
  00010	8b 54 24 08	 mov	 edx, DWORD PTR [esp+8]
  00014	8d 42 0c	 lea	 eax, DWORD PTR [edx+12]
  00017	8b 4a f0	 mov	 ecx, DWORD PTR [edx-16]
  0001a	33 c8		 xor	 ecx, eax
  0001c	e8 00 00 00 00	 call	 @__security_check_cookie@4
  00021	b8 00 00 00 00	 mov	 eax, OFFSET __ehfuncinfo$?EmptyChart@CKTBChartCtrl@@IAEHHH@Z
  00026	e9 00 00 00 00	 jmp	 ___CxxFrameHandler3
text$x	ENDS
?EmptyChart@CKTBChartCtrl@@IAEHHH@Z ENDP		; CKTBChartCtrl::EmptyChart
; Function compile flags: /Ogtp
; File D:\git\src\IBK\IBK_DRFN\ProjSrc\SrcChartEx\ChartOCX\KTBChart\KTBChartDLL.cpp
;	COMDAT ?ResetChartCfgWith@CKTBChartCtrl@@IAEXF@Z
_TEXT	SEGMENT
_p_nIndex$ = 8						; size = 2
?ResetChartCfgWith@CKTBChartCtrl@@IAEXF@Z PROC		; CKTBChartCtrl::ResetChartCfgWith, COMDAT
; _this$ = ecx

; 585  : {

  00000	55		 push	 ebp
  00001	8b ec		 mov	 ebp, esp

; 586  :  	if(p_nIndex <= 0)

  00003	66 8b 45 08	 mov	 ax, WORD PTR _p_nIndex$[ebp]
  00007	56		 push	 esi
  00008	8b f1		 mov	 esi, ecx
  0000a	8d 8e e4 03 00
	00		 lea	 ecx, DWORD PTR [esi+996]
  00010	66 85 c0	 test	 ax, ax
  00013	7f 1c		 jg	 SHORT $LN2@ResetChart

; 587  : 		m_SaveChartcfg.RemoveAll();

  00015	e8 00 00 00 00	 call	 ?RemoveAll@CSaveChartCfgList@@QAEXXZ ; CSaveChartCfgList::RemoveAll
  0001a	6a 00		 push	 0
  0001c	8b ce		 mov	 ecx, esi
  0001e	e8 00 00 00 00	 call	 ?SaveChartCfg@CKTBChartCtrl@@AAE_NH@Z ; CKTBChartCtrl::SaveChartCfg

; 590  : 
; 591  : 	SaveChartCfg();
; 592  : 
; 593  : 	//sy 2006.02.20. -> map default
; 594  : 	if(p_nIndex <= 0) SetMapDefaultInCurrent( false);

  00023	6a 00		 push	 0
  00025	8b ce		 mov	 ecx, esi
  00027	e8 00 00 00 00	 call	 ?SetMapDefaultInCurrent@CKTBChartCtrl@@IAEHH@Z ; CKTBChartCtrl::SetMapDefaultInCurrent
  0002c	5e		 pop	 esi

; 595  : }

  0002d	5d		 pop	 ebp
  0002e	c2 04 00	 ret	 4
$LN2@ResetChart:

; 588  : 	else
; 589  : 		m_SaveChartcfg.RemoveFromIndexToEnd(p_nIndex);

  00031	98		 cwde
  00032	50		 push	 eax
  00033	e8 00 00 00 00	 call	 ?RemoveFromIndexToEnd@CSaveChartCfgList@@QAE_NH@Z ; CSaveChartCfgList::RemoveFromIndexToEnd
  00038	6a 00		 push	 0
  0003a	8b ce		 mov	 ecx, esi
  0003c	e8 00 00 00 00	 call	 ?SaveChartCfg@CKTBChartCtrl@@AAE_NH@Z ; CKTBChartCtrl::SaveChartCfg
  00041	5e		 pop	 esi

; 595  : }

  00042	5d		 pop	 ebp
  00043	c2 04 00	 ret	 4
?ResetChartCfgWith@CKTBChartCtrl@@IAEXF@Z ENDP		; CKTBChartCtrl::ResetChartCfgWith
_TEXT	ENDS
; Function compile flags: /Ogtp
; File D:\git\src\IBK\IBK_DRFN\ProjSrc\SrcChartEx\ChartOCX\KTBChart\KTBChartDLL.cpp
;	COMDAT ?ShowIndicatorConfigDlg@CKTBChartCtrl@@IAEXXZ
_TEXT	SEGMENT
?ShowIndicatorConfigDlg@CKTBChartCtrl@@IAEXXZ PROC	; CKTBChartCtrl::ShowIndicatorConfigDlg, COMDAT
; _this$ = ecx

; 396  : 	// TODO: Add your dispatch handler code here
; 397  : 	RunToolFunction( CToolOptionInfo::T_INDICATOR_CFG, 1);

  00000	8b 01		 mov	 eax, DWORD PTR [ecx]
  00002	6a 01		 push	 1
  00004	6a 0a		 push	 10			; 0000000aH
  00006	ff 90 18 03 00
	00		 call	 DWORD PTR [eax+792]

; 398  : }

  0000c	c3		 ret	 0
?ShowIndicatorConfigDlg@CKTBChartCtrl@@IAEXXZ ENDP	; CKTBChartCtrl::ShowIndicatorConfigDlg
_TEXT	ENDS
; Function compile flags: /Ogtp
; File D:\git\src\IBK\IBK_DRFN\ProjSrc\SrcChartEx\ChartOCX\KTBChart\KTBChartDLL.cpp
; File D:\git\src\IBK\IBK_DRFN\ProjSrc\SrcChartEx\ChartOCX\Include_Chart\BlockBaseData.h
; File D:\git\src\IBK\IBK_DRFN\ProjSrc\SrcChartEx\ChartOCX\KTBChart\KTBChartDLL.cpp
; File D:\git\src\IBK\IBK_DRFN\ProjSrc\SrcChartEx\ChartOCX\Include_Chart\BlockBaseData.h
; File D:\git\src\IBK\IBK_DRFN\ProjSrc\SrcChartEx\ChartOCX\KTBChart\KTBChartDLL.cpp
;	COMDAT ?SetBackgroundColors@CKTBChartCtrl@@IAEXKK@Z
_TEXT	SEGMENT
_dc$ = -72						; size = 20
_BlockColor$ = -52					; size = 12
$T2 = -40						; size = 8
$T3 = -32						; size = 16
__$ArrayPad$ = -16					; size = 4
__$EHRec$ = -12						; size = 12
_p_rgbBlockArea$ = 8					; size = 4
_p_rgbScaleArea$ = 12					; size = 4
?SetBackgroundColors@CKTBChartCtrl@@IAEXKK@Z PROC	; CKTBChartCtrl::SetBackgroundColors, COMDAT
; _this$ = ecx

; 378  : {

  00000	55		 push	 ebp
  00001	8b ec		 mov	 ebp, esp
  00003	6a ff		 push	 -1
  00005	68 00 00 00 00	 push	 __ehhandler$?SetBackgroundColors@CKTBChartCtrl@@IAEXKK@Z
  0000a	64 a1 00 00 00
	00		 mov	 eax, DWORD PTR fs:0
  00010	50		 push	 eax
  00011	83 ec 3c	 sub	 esp, 60			; 0000003cH
  00014	a1 00 00 00 00	 mov	 eax, DWORD PTR ___security_cookie
  00019	33 c5		 xor	 eax, ebp
  0001b	89 45 f0	 mov	 DWORD PTR __$ArrayPad$[ebp], eax
  0001e	56		 push	 esi
  0001f	57		 push	 edi
  00020	50		 push	 eax
  00021	8d 45 f4	 lea	 eax, DWORD PTR __$EHRec$[ebp]
  00024	64 a3 00 00 00
	00		 mov	 DWORD PTR fs:0, eax
  0002a	8b f9		 mov	 edi, ecx

; 379  : 	// TODO: Add your dispatch handler code here
; 380  : 	if( !m_pMainBlock) return;

  0002c	83 bf 34 03 00
	00 00		 cmp	 DWORD PTR [edi+820], 0
  00033	0f 84 a5 00 00
	00		 je	 $LN1@SetBackgro

; 381  : 
; 382  : 	m_clrBlock		= p_rgbBlockArea;

  00039	8b 45 08	 mov	 eax, DWORD PTR _p_rgbBlockArea$[ebp]
  0003c	8d b7 64 03 00
	00		 lea	 esi, DWORD PTR [edi+868]
  00042	89 06		 mov	 DWORD PTR [esi], eax

; 383  : 	m_clrBackground	= p_rgbScaleArea;
; 384  : 
; 385  : 	CClientDC dc(this);	

  00044	8d 4d b8	 lea	 ecx, DWORD PTR _dc$[ebp]
  00047	8b 45 0c	 mov	 eax, DWORD PTR _p_rgbScaleArea$[ebp]
  0004a	57		 push	 edi
  0004b	89 87 5c 03 00
	00		 mov	 DWORD PTR [edi+860], eax
  00051	e8 00 00 00 00	 call	 ??0CClientDC@@QAE@PAVCWnd@@@Z ; CClientDC::CClientDC

; 386  : 	CGraphRegionColor BlockColor(m_clrBlock, m_clrLattice, m_clrBlockBorder);

  00056	8d 87 68 03 00
	00		 lea	 eax, DWORD PTR [edi+872]
  0005c	c7 45 fc 00 00
	00 00		 mov	 DWORD PTR __$EHRec$[ebp+8], 0
  00063	50		 push	 eax
  00064	8d 87 98 03 00
	00		 lea	 eax, DWORD PTR [edi+920]
  0006a	50		 push	 eax
  0006b	56		 push	 esi
  0006c	8d 4d cc	 lea	 ecx, DWORD PTR _BlockColor$[ebp]
  0006f	ff 15 00 00 00
	00		 call	 DWORD PTR __imp_??0CGraphRegionColor@@QAE@ABK00@Z
; File D:\git\src\IBK\IBK_DRFN\ProjSrc\SrcChartEx\ChartOCX\Include_Chart\BlockBaseData.h

; 20   : 	CBlockIndex( const int row, const int column)		{	m_nRow = row;	m_nColumn = column;		}

  00075	8b 87 28 02 00
	00		 mov	 eax, DWORD PTR [edi+552]
; File D:\git\src\IBK\IBK_DRFN\ProjSrc\SrcChartEx\ChartOCX\KTBChart\KTBChartDLL.cpp

; 387  : 	m_pMainBlock->SetBlockEnvironment(&dc, GetMainBlockRegion(), (CBlockBaseData::BLOCKTYPE)m_nBlockType, 

  0007b	8b cf		 mov	 ecx, edi
; File D:\git\src\IBK\IBK_DRFN\ProjSrc\SrcChartEx\ChartOCX\Include_Chart\BlockBaseData.h

; 20   : 	CBlockIndex( const int row, const int column)		{	m_nRow = row;	m_nColumn = column;		}

  0007d	89 45 d8	 mov	 DWORD PTR $T2[ebp], eax
  00080	8b 87 2c 02 00
	00		 mov	 eax, DWORD PTR [edi+556]
  00086	89 45 dc	 mov	 DWORD PTR $T2[ebp+4], eax
; File D:\git\src\IBK\IBK_DRFN\ProjSrc\SrcChartEx\ChartOCX\KTBChart\KTBChartDLL.cpp

; 387  : 	m_pMainBlock->SetBlockEnvironment(&dc, GetMainBlockRegion(), (CBlockBaseData::BLOCKTYPE)m_nBlockType, 

  00089	8b 87 34 03 00
	00		 mov	 eax, DWORD PTR [edi+820]
  0008f	8b 30		 mov	 esi, DWORD PTR [eax]
  00091	8d 45 cc	 lea	 eax, DWORD PTR _BlockColor$[ebp]
  00094	50		 push	 eax
  00095	ff b7 30 02 00
	00		 push	 DWORD PTR [edi+560]
  0009b	8d 45 d8	 lea	 eax, DWORD PTR $T2[ebp]
  0009e	ff b7 34 02 00
	00		 push	 DWORD PTR [edi+564]
  000a4	50		 push	 eax
  000a5	ff b7 24 02 00
	00		 push	 DWORD PTR [edi+548]
  000ab	8d 45 e0	 lea	 eax, DWORD PTR $T3[ebp]
  000ae	ff b7 20 02 00
	00		 push	 DWORD PTR [edi+544]
  000b4	50		 push	 eax
  000b5	e8 00 00 00 00	 call	 ?GetMainBlockRegion@CKTBChartCtrl@@QAE?AVCRect@@XZ ; CKTBChartCtrl::GetMainBlockRegion
  000ba	8b 8f 34 03 00
	00		 mov	 ecx, DWORD PTR [edi+820]
  000c0	50		 push	 eax
  000c1	8d 45 b8	 lea	 eax, DWORD PTR _dc$[ebp]
  000c4	50		 push	 eax
  000c5	ff 96 9c 00 00
	00		 call	 DWORD PTR [esi+156]

; 388  : 		(CBlockBaseData::BLOCKCOMPART)m_nBlockCompart, CBlockIndex(m_nBlockRowCount, m_nBlockColumnCount), 
; 389  : 		m_nBlockBorderThickness, m_nBlockGap, BlockColor) ;
; 390  : 	InvalidateControl() ;

  000cb	6a 01		 push	 1
  000cd	6a 00		 push	 0
  000cf	8b cf		 mov	 ecx, edi
  000d1	e8 00 00 00 00	 call	 ?InvalidateControl@CKTBChartCtrl@@QAEXPBUtagRECT@@H@Z ; CKTBChartCtrl::InvalidateControl

; 391  : }

  000d6	8d 4d b8	 lea	 ecx, DWORD PTR _dc$[ebp]
  000d9	e8 00 00 00 00	 call	 ??1CClientDC@@UAE@XZ	; CClientDC::~CClientDC
$LN1@SetBackgro:
  000de	8b 4d f4	 mov	 ecx, DWORD PTR __$EHRec$[ebp]
  000e1	64 89 0d 00 00
	00 00		 mov	 DWORD PTR fs:0, ecx
  000e8	59		 pop	 ecx
  000e9	5f		 pop	 edi
  000ea	5e		 pop	 esi
  000eb	8b 4d f0	 mov	 ecx, DWORD PTR __$ArrayPad$[ebp]
  000ee	33 cd		 xor	 ecx, ebp
  000f0	e8 00 00 00 00	 call	 @__security_check_cookie@4
  000f5	8b e5		 mov	 esp, ebp
  000f7	5d		 pop	 ebp
  000f8	c2 08 00	 ret	 8
_TEXT	ENDS
;	COMDAT text$x
text$x	SEGMENT
__unwindfunclet$?SetBackgroundColors@CKTBChartCtrl@@IAEXKK@Z$0:
  00000	8d 4d b8	 lea	 ecx, DWORD PTR _dc$[ebp]
  00003	e9 00 00 00 00	 jmp	 ??1CClientDC@@UAE@XZ	; CClientDC::~CClientDC
  00008	cc		 int	 3
  00009	cc		 int	 3
  0000a	cc		 int	 3
  0000b	cc		 int	 3
  0000c	cc		 int	 3
__ehhandler$?SetBackgroundColors@CKTBChartCtrl@@IAEXKK@Z:
  0000d	90		 npad	 1
  0000e	90		 npad	 1
  0000f	8b 54 24 08	 mov	 edx, DWORD PTR [esp+8]
  00013	8d 42 0c	 lea	 eax, DWORD PTR [edx+12]
  00016	8b 4a b8	 mov	 ecx, DWORD PTR [edx-72]
  00019	33 c8		 xor	 ecx, eax
  0001b	e8 00 00 00 00	 call	 @__security_check_cookie@4
  00020	8b 4a fc	 mov	 ecx, DWORD PTR [edx-4]
  00023	33 c8		 xor	 ecx, eax
  00025	e8 00 00 00 00	 call	 @__security_check_cookie@4
  0002a	b8 00 00 00 00	 mov	 eax, OFFSET __ehfuncinfo$?SetBackgroundColors@CKTBChartCtrl@@IAEXKK@Z
  0002f	e9 00 00 00 00	 jmp	 ___CxxFrameHandler3
text$x	ENDS
?SetBackgroundColors@CKTBChartCtrl@@IAEXKK@Z ENDP	; CKTBChartCtrl::SetBackgroundColors
; Function compile flags: /Ogtp
; File D:\git\src\IBK\IBK_DRFN\ProjSrc\SrcChartEx\ChartOCX\KTBChart\KTBChartDLL.cpp
; File C:\Program Files (x86)\Microsoft Visual Studio\2019\Community\VC\Tools\MSVC\14.29.30133\atlmfc\include\atlsimpstr.h
; File D:\git\src\IBK\IBK_DRFN\ProjSrc\SrcChartEx\ChartOCX\KTBChart\KTBChartDLL.cpp
; File C:\Program Files (x86)\Microsoft Visual Studio\2019\Community\VC\Tools\MSVC\14.29.30133\atlmfc\include\atlsimpstr.h
; File D:\git\src\IBK\IBK_DRFN\ProjSrc\SrcChartEx\ChartOCX\KTBChart\KTBChartDLL.cpp
; File D:\git\src\IBK\IBK_DRFN\ProjSrc\SrcChartEx\ChartOCX\Include\DumpLogger.h
; File C:\Program Files (x86)\Microsoft Visual Studio\2019\Community\VC\Tools\MSVC\14.29.30133\atlmfc\include\atlsimpstr.h
; File D:\git\src\IBK\IBK_DRFN\ProjSrc\SrcChartEx\ChartOCX\Include\DumpLogger.h
; File D:\git\src\IBK\IBK_DRFN\ProjSrc\SrcChartEx\ChartOCX\KTBChart\KTBChartDLL.cpp
;	COMDAT ?SetPacketData@CKTBChartCtrl@@IAEHPBDJJH@Z
_TEXT	SEGMENT
_nStartIndex$ = -108					; size = 4
_nEndIndex$ = -104					; size = 4
$T2 = -100						; size = 4
$T3 = -96						; size = 4
$T4 = -92						; size = 4
$T5 = -88						; size = 4
$T6 = -84						; size = 4
$T7 = -80						; size = 4
_dLogger$8 = -76					; size = 8
$T9 = -72						; size = 4
_strEnvValue$ = -68					; size = 4
$T10 = -64						; size = 4
$T11 = -64						; size = 4
$T12 = -64						; size = 4
_szPacketName$ = -60					; size = 4
_szData$GSCopy$1$ = -56					; size = 4
_strLog$13 = -56					; size = 4
_strFileName$14 = -52					; size = 4
$T15 = -52						; size = 4
_strCount$16 = -52					; size = 4
_sTime$17 = -48						; size = 16
_stEnd$18 = -32						; size = 16
__$ArrayPad$ = -16					; size = 4
__$EHRec$ = -12						; size = 12
_szPacketName2$ = 8					; size = 4
_szData$ = 12						; size = 4
_lLength$ = 16						; size = 4
_bReset$ = 20						; size = 4
?SetPacketData@CKTBChartCtrl@@IAEHPBDJJH@Z PROC		; CKTBChartCtrl::SetPacketData, COMDAT
; _this$ = ecx

; 248  : {

  00000	55		 push	 ebp
  00001	8b ec		 mov	 ebp, esp
  00003	6a ff		 push	 -1
  00005	68 00 00 00 00	 push	 __ehhandler$?SetPacketData@CKTBChartCtrl@@IAEHPBDJJH@Z
  0000a	64 a1 00 00 00
	00		 mov	 eax, DWORD PTR fs:0
  00010	50		 push	 eax
  00011	83 ec 60	 sub	 esp, 96			; 00000060H
  00014	a1 00 00 00 00	 mov	 eax, DWORD PTR ___security_cookie
  00019	33 c5		 xor	 eax, ebp
  0001b	89 45 f0	 mov	 DWORD PTR __$ArrayPad$[ebp], eax
  0001e	53		 push	 ebx
  0001f	56		 push	 esi
  00020	57		 push	 edi
  00021	50		 push	 eax
  00022	8d 45 f4	 lea	 eax, DWORD PTR __$EHRec$[ebp]
  00025	64 a3 00 00 00
	00		 mov	 DWORD PTR fs:0, eax
  0002b	8b f1		 mov	 esi, ecx
  0002d	8b 45 0c	 mov	 eax, DWORD PTR _szData$[ebp]
  00030	8b 7d 08	 mov	 edi, DWORD PTR _szPacketName2$[ebp]
  00033	c7 45 cc 00 00
	00 00		 mov	 DWORD PTR $T15[ebp], 0

; 249  : 	if( m_bEnableLogChartLoading) GetLocalTime( &m_stLogStart);

  0003a	83 be ec 05 00
	00 00		 cmp	 DWORD PTR [esi+1516], 0
  00041	89 45 c8	 mov	 DWORD PTR _szData$GSCopy$1$[ebp], eax
  00044	74 0d		 je	 SHORT $LN2@SetPacketD
  00046	8d 86 d0 05 00
	00		 lea	 eax, DWORD PTR [esi+1488]
  0004c	50		 push	 eax
  0004d	ff 15 00 00 00
	00		 call	 DWORD PTR __imp__GetLocalTime@4
$LN2@SetPacketD:

; 250  : 
; 251  : 	// 0.  Pointer .
; 252  : 	if( !szPacketName2 || !m_pPacketList) return FALSE;

  00053	85 ff		 test	 edi, edi
  00055	0f 84 fe 03 00
	00		 je	 $LN4@SetPacketD
  0005b	83 be 3c 03 00
	00 00		 cmp	 DWORD PTR [esi+828], 0
  00062	0f 84 f1 03 00
	00		 je	 $LN4@SetPacketD

; 253  : 	if( !*szPacketName2) return FALSE;

  00068	80 3f 00	 cmp	 BYTE PTR [edi], 0
  0006b	0f 84 e8 03 00
	00		 je	 $LN4@SetPacketD

; 254  : 
; 255  : 	// (2009/5/29 - Seung-Won, Bae) Support No TR Test Environment.
; 256  : 	CString strEnvValue;

  00071	8d 4d bc	 lea	 ecx, DWORD PTR _strEnvValue$[ebp]
  00074	ff 15 00 00 00
	00		 call	 DWORD PTR __imp_??0?$CStringT@DV?$StrTraitMFC_DLL@DV?$ChTraitsCRT@D@ATL@@@@@ATL@@QAE@XZ

; 257  : 	GetTestEnvValue( "TR Limit", strEnvValue);

  0007a	8d 45 bc	 lea	 eax, DWORD PTR _strEnvValue$[ebp]
  0007d	c7 45 fc 00 00
	00 00		 mov	 DWORD PTR __$EHRec$[ebp+8], 0
  00084	50		 push	 eax
  00085	68 00 00 00 00	 push	 OFFSET ??_C@_08MHFHIKKE@TR?5Limit@
  0008a	8b ce		 mov	 ecx, esi
  0008c	e8 00 00 00 00	 call	 ?GetTestEnvValue@CKTBChartCtrl@@QAEHPBDAAV?$CStringT@DV?$StrTraitMFC_DLL@DV?$ChTraitsCRT@D@ATL@@@@@ATL@@@Z ; CKTBChartCtrl::GetTestEnvValue
; File C:\Program Files (x86)\Microsoft Visual Studio\2019\Community\VC\Tools\MSVC\14.29.30133\atlmfc\include\atlsimpstr.h

; 519  : 		return( GetData()->nDataLength );

  00091	8b 45 bc	 mov	 eax, DWORD PTR _strEnvValue$[ebp]

; 533  : 		return( GetLength() == 0 );

  00094	83 78 f4 00	 cmp	 DWORD PTR [eax-12], 0
; File D:\git\src\IBK\IBK_DRFN\ProjSrc\SrcChartEx\ChartOCX\KTBChart\KTBChartDLL.cpp

; 258  : 	if( !strEnvValue.IsEmpty())

  00098	74 4b		 je	 SHORT $LN7@SetPacketD

; 259  : 	{
; 260  : 		long lCount = atol( strEnvValue);

  0009a	50		 push	 eax
  0009b	ff 15 00 00 00
	00		 call	 DWORD PTR __imp__atol
  000a1	8b d8		 mov	 ebx, eax
  000a3	83 c4 04	 add	 esp, 4

; 261  : 		if( 0 <= lCount)

  000a6	85 db		 test	 ebx, ebx
  000a8	78 3b		 js	 SHORT $LN7@SetPacketD

; 262  : 		{
; 263  : 			CString strCount;

  000aa	8d 4d cc	 lea	 ecx, DWORD PTR _strCount$16[ebp]
  000ad	ff 15 00 00 00
	00		 call	 DWORD PTR __imp_??0?$CStringT@DV?$StrTraitMFC_DLL@DV?$ChTraitsCRT@D@ATL@@@@@ATL@@QAE@XZ

; 264  : 			strCount.Format( "%05d", lCount);

  000b3	53		 push	 ebx
  000b4	8d 45 cc	 lea	 eax, DWORD PTR _strCount$16[ebp]
  000b7	c6 45 fc 01	 mov	 BYTE PTR __$EHRec$[ebp+8], 1
  000bb	68 00 00 00 00	 push	 OFFSET ??_C@_04ODOGNJOP@?$CF05d@
  000c0	50		 push	 eax
  000c1	ff 15 00 00 00
	00		 call	 DWORD PTR __imp_?Format@?$CStringT@DV?$StrTraitMFC_DLL@DV?$ChTraitsCRT@D@ATL@@@@@ATL@@QAAXPBDZZ

; 265  : 			strncpy( ( ( char *)szData), strCount, 5);

  000c7	6a 05		 push	 5
  000c9	ff 75 cc	 push	 DWORD PTR _strCount$16[ebp]
  000cc	ff 75 c8	 push	 DWORD PTR _szData$GSCopy$1$[ebp]
  000cf	ff 15 00 00 00
	00		 call	 DWORD PTR __imp__strncpy
  000d5	83 c4 18	 add	 esp, 24			; 00000018H

; 266  : 		}

  000d8	c6 45 fc 00	 mov	 BYTE PTR __$EHRec$[ebp+8], 0
  000dc	8d 4d cc	 lea	 ecx, DWORD PTR _strCount$16[ebp]
  000df	ff 15 00 00 00
	00		 call	 DWORD PTR __imp_??1?$CStringT@DV?$StrTraitMFC_DLL@DV?$ChTraitsCRT@D@ATL@@@@@ATL@@QAE@XZ
$LN7@SetPacketD:

; 267  : 	}
; 268  : 
; 269  : 	CString szPacketName = _STOMS( szPacketName2, ";", 0);

  000e5	6a ff		 push	 -1
  000e7	6a 00		 push	 0
  000e9	51		 push	 ecx
  000ea	8b cc		 mov	 ecx, esp
  000ec	89 65 c0	 mov	 DWORD PTR $T12[ebp], esp
  000ef	68 00 00 00 00	 push	 OFFSET ??_C@_01ICJEACDI@?$DL@
  000f4	ff 15 00 00 00
	00		 call	 DWORD PTR __imp_??0?$CStringT@DV?$StrTraitMFC_DLL@DV?$ChTraitsCRT@D@ATL@@@@@ATL@@QAE@PBD@Z
  000fa	51		 push	 ecx
  000fb	8b cc		 mov	 ecx, esp
  000fd	c6 45 fc 02	 mov	 BYTE PTR __$EHRec$[ebp+8], 2
  00101	57		 push	 edi
  00102	ff 15 00 00 00
	00		 call	 DWORD PTR __imp_??0?$CStringT@DV?$StrTraitMFC_DLL@DV?$ChTraitsCRT@D@ATL@@@@@ATL@@QAE@PBD@Z
  00108	ff b6 c0 05 00
	00		 push	 DWORD PTR [esi+1472]
  0010e	8d 45 c4	 lea	 eax, DWORD PTR _szPacketName$[ebp]
  00111	c6 45 fc 00	 mov	 BYTE PTR __$EHRec$[ebp+8], 0
  00115	50		 push	 eax
  00116	b9 00 00 00 00	 mov	 ecx, OFFSET ?g_iMetaTable@@3VIMetaTable@@A ; g_iMetaTable
  0011b	e8 00 00 00 00	 call	 ?GetMultipleMetaTextForScript@IMetaTable@@QAE?AV?$CStringT@DV?$StrTraitMFC_DLL@DV?$ChTraitsCRT@D@ATL@@@@@ATL@@PAUHWND__@@V23@1HH@Z ; IMetaTable::GetMultipleMetaTextForScript

; 270  : 
; 271  : 	// (2004.07.26, )    ,   Style  .
; 272  : 	// 0.5   Style .
; 273  : 	int nPrevTimeInterval;
; 274  : 	CScaleBaseData::HORZSCALEDRAWERTYPE ePrevUnitType;
; 275  : 	BOOL bPriceChart = ( BOOL)strstr( szPacketName, CString( _MTEXT( C0_OPEN)) + ";" + _MTEXT( C0_HIGH) + ";" + _MTEXT( C0_LOW) + ";" + _MTEXT( C0_CLOSE) + ";") && bReset;

  00120	a1 54 00 00 00	 mov	 eax, DWORD PTR ?g_iMetaTable@@3VIMetaTable@@A+84
  00125	8d 4d c0	 lea	 ecx, DWORD PTR $T11[ebp]
  00128	c6 45 fc 03	 mov	 BYTE PTR __$EHRec$[ebp+8], 3
  0012c	ff 70 08	 push	 DWORD PTR [eax+8]
  0012f	ff 15 00 00 00
	00		 call	 DWORD PTR __imp_??0?$CStringT@DV?$StrTraitMFC_DLL@DV?$ChTraitsCRT@D@ATL@@@@@ATL@@QAE@PBD@Z
  00135	68 00 00 00 00	 push	 OFFSET ??_C@_01ICJEACDI@?$DL@
  0013a	50		 push	 eax
  0013b	8d 45 b8	 lea	 eax, DWORD PTR $T9[ebp]
  0013e	c6 45 fc 04	 mov	 BYTE PTR __$EHRec$[ebp+8], 4
  00142	50		 push	 eax
  00143	c7 45 cc 01 00
	00 00		 mov	 DWORD PTR $T15[ebp], 1
  0014a	e8 00 00 00 00	 call	 ??HATL@@YA?AV?$CStringT@DV?$StrTraitMFC_DLL@DV?$ChTraitsCRT@D@ATL@@@@@0@ABV10@PBD@Z ; ATL::operator+
  0014f	8b 0d 54 00 00
	00		 mov	 ecx, DWORD PTR ?g_iMetaTable@@3VIMetaTable@@A+84
  00155	c7 45 fc 05 00
	00 00		 mov	 DWORD PTR __$EHRec$[ebp+8], 5
  0015c	c7 45 cc 03 00
	00 00		 mov	 DWORD PTR $T15[ebp], 3
  00163	ff 71 0c	 push	 DWORD PTR [ecx+12]
  00166	50		 push	 eax
  00167	8d 45 9c	 lea	 eax, DWORD PTR $T2[ebp]
  0016a	50		 push	 eax
  0016b	e8 00 00 00 00	 call	 ??HATL@@YA?AV?$CStringT@DV?$StrTraitMFC_DLL@DV?$ChTraitsCRT@D@ATL@@@@@0@ABV10@PBD@Z ; ATL::operator+
  00170	68 00 00 00 00	 push	 OFFSET ??_C@_01ICJEACDI@?$DL@
  00175	50		 push	 eax
  00176	8d 45 a0	 lea	 eax, DWORD PTR $T3[ebp]
  00179	c7 45 fc 06 00
	00 00		 mov	 DWORD PTR __$EHRec$[ebp+8], 6
  00180	50		 push	 eax
  00181	c7 45 cc 07 00
	00 00		 mov	 DWORD PTR $T15[ebp], 7
  00188	e8 00 00 00 00	 call	 ??HATL@@YA?AV?$CStringT@DV?$StrTraitMFC_DLL@DV?$ChTraitsCRT@D@ATL@@@@@0@ABV10@PBD@Z ; ATL::operator+
  0018d	8b 0d 54 00 00
	00		 mov	 ecx, DWORD PTR ?g_iMetaTable@@3VIMetaTable@@A+84
  00193	c7 45 fc 07 00
	00 00		 mov	 DWORD PTR __$EHRec$[ebp+8], 7
  0019a	c7 45 cc 0f 00
	00 00		 mov	 DWORD PTR $T15[ebp], 15	; 0000000fH
  001a1	ff 71 10	 push	 DWORD PTR [ecx+16]
  001a4	50		 push	 eax
  001a5	8d 45 a4	 lea	 eax, DWORD PTR $T4[ebp]
  001a8	50		 push	 eax
  001a9	e8 00 00 00 00	 call	 ??HATL@@YA?AV?$CStringT@DV?$StrTraitMFC_DLL@DV?$ChTraitsCRT@D@ATL@@@@@0@ABV10@PBD@Z ; ATL::operator+
  001ae	68 00 00 00 00	 push	 OFFSET ??_C@_01ICJEACDI@?$DL@
  001b3	50		 push	 eax
  001b4	8d 45 a8	 lea	 eax, DWORD PTR $T5[ebp]
  001b7	c7 45 fc 08 00
	00 00		 mov	 DWORD PTR __$EHRec$[ebp+8], 8
  001be	50		 push	 eax
  001bf	c7 45 cc 1f 00
	00 00		 mov	 DWORD PTR $T15[ebp], 31	; 0000001fH
  001c6	e8 00 00 00 00	 call	 ??HATL@@YA?AV?$CStringT@DV?$StrTraitMFC_DLL@DV?$ChTraitsCRT@D@ATL@@@@@0@ABV10@PBD@Z ; ATL::operator+
  001cb	8b 0d 54 00 00
	00		 mov	 ecx, DWORD PTR ?g_iMetaTable@@3VIMetaTable@@A+84
  001d1	c7 45 fc 09 00
	00 00		 mov	 DWORD PTR __$EHRec$[ebp+8], 9
  001d8	c7 45 cc 3f 00
	00 00		 mov	 DWORD PTR $T15[ebp], 63	; 0000003fH
  001df	ff 71 14	 push	 DWORD PTR [ecx+20]
  001e2	50		 push	 eax
  001e3	8d 45 ac	 lea	 eax, DWORD PTR $T6[ebp]
  001e6	50		 push	 eax
  001e7	e8 00 00 00 00	 call	 ??HATL@@YA?AV?$CStringT@DV?$StrTraitMFC_DLL@DV?$ChTraitsCRT@D@ATL@@@@@0@ABV10@PBD@Z ; ATL::operator+
  001ec	83 c4 48	 add	 esp, 72			; 00000048H
  001ef	c7 45 fc 0a 00
	00 00		 mov	 DWORD PTR __$EHRec$[ebp+8], 10 ; 0000000aH
  001f6	c7 45 cc 7f 00
	00 00		 mov	 DWORD PTR $T15[ebp], 127 ; 0000007fH
  001fd	68 00 00 00 00	 push	 OFFSET ??_C@_01ICJEACDI@?$DL@
  00202	50		 push	 eax
  00203	8d 45 b0	 lea	 eax, DWORD PTR $T7[ebp]
  00206	50		 push	 eax
  00207	e8 00 00 00 00	 call	 ??HATL@@YA?AV?$CStringT@DV?$StrTraitMFC_DLL@DV?$ChTraitsCRT@D@ATL@@@@@0@ABV10@PBD@Z ; ATL::operator+
  0020c	ff 30		 push	 DWORD PTR [eax]
  0020e	ff 75 c4	 push	 DWORD PTR _szPacketName$[ebp]
  00211	e8 00 00 00 00	 call	 _strstr
  00216	8b 7d 14	 mov	 edi, DWORD PTR _bReset$[ebp]
  00219	83 c4 14	 add	 esp, 20			; 00000014H
  0021c	85 c0		 test	 eax, eax
  0021e	74 0b		 je	 SHORT $LN13@SetPacketD
  00220	85 ff		 test	 edi, edi
  00222	74 07		 je	 SHORT $LN13@SetPacketD
  00224	bb 01 00 00 00	 mov	 ebx, 1
  00229	eb 02		 jmp	 SHORT $LN14@SetPacketD
$LN13@SetPacketD:
  0022b	33 db		 xor	 ebx, ebx
$LN14@SetPacketD:
  0022d	8d 4d b0	 lea	 ecx, DWORD PTR $T7[ebp]
  00230	ff 15 00 00 00
	00		 call	 DWORD PTR __imp_??1?$CStringT@DV?$StrTraitMFC_DLL@DV?$ChTraitsCRT@D@ATL@@@@@ATL@@QAE@XZ
  00236	8d 4d ac	 lea	 ecx, DWORD PTR $T6[ebp]
  00239	ff 15 00 00 00
	00		 call	 DWORD PTR __imp_??1?$CStringT@DV?$StrTraitMFC_DLL@DV?$ChTraitsCRT@D@ATL@@@@@ATL@@QAE@XZ
  0023f	8d 4d a8	 lea	 ecx, DWORD PTR $T5[ebp]
  00242	ff 15 00 00 00
	00		 call	 DWORD PTR __imp_??1?$CStringT@DV?$StrTraitMFC_DLL@DV?$ChTraitsCRT@D@ATL@@@@@ATL@@QAE@XZ
  00248	8d 4d a4	 lea	 ecx, DWORD PTR $T4[ebp]
  0024b	ff 15 00 00 00
	00		 call	 DWORD PTR __imp_??1?$CStringT@DV?$StrTraitMFC_DLL@DV?$ChTraitsCRT@D@ATL@@@@@ATL@@QAE@XZ
  00251	8d 4d a0	 lea	 ecx, DWORD PTR $T3[ebp]
  00254	ff 15 00 00 00
	00		 call	 DWORD PTR __imp_??1?$CStringT@DV?$StrTraitMFC_DLL@DV?$ChTraitsCRT@D@ATL@@@@@ATL@@QAE@XZ
  0025a	8d 4d 9c	 lea	 ecx, DWORD PTR $T2[ebp]
  0025d	ff 15 00 00 00
	00		 call	 DWORD PTR __imp_??1?$CStringT@DV?$StrTraitMFC_DLL@DV?$ChTraitsCRT@D@ATL@@@@@ATL@@QAE@XZ
  00263	8d 4d b8	 lea	 ecx, DWORD PTR $T9[ebp]
  00266	ff 15 00 00 00
	00		 call	 DWORD PTR __imp_??1?$CStringT@DV?$StrTraitMFC_DLL@DV?$ChTraitsCRT@D@ATL@@@@@ATL@@QAE@XZ
  0026c	8d 4d c0	 lea	 ecx, DWORD PTR $T11[ebp]
  0026f	c7 45 fc 03 00
	00 00		 mov	 DWORD PTR __$EHRec$[ebp+8], 3
  00276	ff 15 00 00 00
	00		 call	 DWORD PTR __imp_??1?$CStringT@DV?$StrTraitMFC_DLL@DV?$ChTraitsCRT@D@ATL@@@@@ATL@@QAE@XZ

; 276  : 	if( bPriceChart)

  0027c	85 db		 test	 ebx, ebx
  0027e	74 18		 je	 SHORT $LN8@SetPacketD

; 277  : 	{
; 278  : 		nPrevTimeInterval = m_pPacketList->GetTimeInterval();

  00280	8b 8e 3c 03 00
	00		 mov	 ecx, DWORD PTR [esi+828]
  00286	ff 15 00 00 00
	00		 call	 DWORD PTR __imp_?GetTimeInterval@CPacketList@@QAEHXZ

; 279  : 		ePrevUnitType = m_pPacketList->GetDateUnitType();

  0028c	8b 8e 3c 03 00
	00		 mov	 ecx, DWORD PTR [esi+828]
  00292	ff 15 00 00 00
	00		 call	 DWORD PTR __imp_?GetDateUnitType@CPacketList@@QAE?AW4HORZSCALEDRAWERTYPE@CScaleBaseData@@XZ
$LN8@SetPacketD:

; 280  : 	}
; 281  : 
; 282  : 	// 2.1  Packet  Data Scroll Index .
; 283  : 	// 2.1.1 Data .
; 284  : 	int nDataCount = 0;
; 285  : 	// 2.1.2 Scroll Index .
; 286  : 	int nStartIndex = 0, nEndIndex = 0;

  00298	c7 45 94 00 00
	00 00		 mov	 DWORD PTR _nStartIndex$[ebp], 0
  0029f	c7 45 98 00 00
	00 00		 mov	 DWORD PTR _nEndIndex$[ebp], 0

; 287  : 	if(!bReset)

  002a6	85 ff		 test	 edi, edi
  002a8	75 1b		 jne	 SHORT $LN9@SetPacketD

; 288  : 	{
; 289  : 		nDataCount = m_pPacketList->GetMaxCount();

  002aa	8b 8e 3c 03 00
	00		 mov	 ecx, DWORD PTR [esi+828]
  002b0	ff 15 00 00 00
	00		 call	 DWORD PTR __imp_?GetMaxCount@CPacketList@@QAEHXZ

; 290  : 		GetDataStartEnd( nStartIndex, nEndIndex);

  002b6	8d 45 98	 lea	 eax, DWORD PTR _nEndIndex$[ebp]
  002b9	8b ce		 mov	 ecx, esi
  002bb	50		 push	 eax
  002bc	8d 45 94	 lea	 eax, DWORD PTR _nStartIndex$[ebp]
  002bf	50		 push	 eax
  002c0	e8 00 00 00 00	 call	 ?GetDataStartEnd@CKTBChartCtrl@@QAEHAAH0@Z ; CKTBChartCtrl::GetDataStartEnd
$LN9@SetPacketD:

; 291  : 	}
; 292  : 
; 293  : 	//sy 2005.11.09. packet data 
; 294  : 	SetPacketDataInPacketList(szPacketName, szData, lLength, bReset);

  002c5	57		 push	 edi
  002c6	ff 75 10	 push	 DWORD PTR _lLength$[ebp]
  002c9	8b ce		 mov	 ecx, esi
  002cb	ff 75 c8	 push	 DWORD PTR _szData$GSCopy$1$[ebp]
  002ce	ff 75 c4	 push	 DWORD PTR _szPacketName$[ebp]
  002d1	e8 00 00 00 00	 call	 ?SetPacketDataInPacketList@CKTBChartCtrl@@AAE_NPBDJJH@Z ; CKTBChartCtrl::SetPacketDataInPacketList

; 295  : 
; 296  : 	// (2004.08.12, )   Clear.
; 297  : 	// (2009/8/20 - Seung-Won, Bae) To load previous setting of same time period.
; 298  : 	//		Delete with checking current state.
; 299  : 	//		See CAnalysisAddInImp::OnAddInToolCommand()
; 300  : 	if( bPriceChart) RunToolFunction( CToolOptionInfo::T_DELETE_ALL, 820);

  002d6	85 db		 test	 ebx, ebx
  002d8	74 11		 je	 SHORT $LN10@SetPacketD
  002da	8b 06		 mov	 eax, DWORD PTR [esi]
  002dc	8b ce		 mov	 ecx, esi
  002de	68 34 03 00 00	 push	 820			; 00000334H
  002e3	6a 3d		 push	 61			; 0000003dH
  002e5	ff 90 18 03 00
	00		 call	 DWORD PTR [eax+792]
$LN10@SetPacketD:

; 301  : 
; 302  : 	//sy 2005.08.30.
; 303  : 	OnPacketTRData(szPacketName, bReset);

  002eb	85 ff		 test	 edi, edi
  002ed	8b ce		 mov	 ecx, esi
  002ef	0f 95 c0	 setne	 al
  002f2	0f b6 c0	 movzx	 eax, al
  002f5	50		 push	 eax
  002f6	8d 45 c4	 lea	 eax, DWORD PTR _szPacketName$[ebp]
  002f9	50		 push	 eax
  002fa	e8 00 00 00 00	 call	 ?OnPacketTRData@CKTBChartCtrl@@IAEXABV?$CStringT@DV?$StrTraitMFC_DLL@DV?$ChTraitsCRT@D@ATL@@@@@ATL@@_N@Z ; CKTBChartCtrl::OnPacketTRData

; 304  : 
; 305  : 	InvalidateControl();

  002ff	6a 01		 push	 1
  00301	6a 00		 push	 0
  00303	8b ce		 mov	 ecx, esi
  00305	e8 00 00 00 00	 call	 ?InvalidateControl@CKTBChartCtrl@@QAEXPBUtagRECT@@H@Z ; CKTBChartCtrl::InvalidateControl

; 306  : 
; 307  : 	if( m_bEnableLogChartLoading)

  0030a	83 be ec 05 00
	00 00		 cmp	 DWORD PTR [esi+1516], 0
  00311	0f 84 29 01 00
	00		 je	 $LN11@SetPacketD

; 308  : 	{
; 309  : 		SYSTEMTIME stEnd;
; 310  : 		GetLocalTime( &stEnd);

  00317	8b 3d 00 00 00
	00		 mov	 edi, DWORD PTR __imp__GetLocalTime@4
  0031d	8d 45 e0	 lea	 eax, DWORD PTR _stEnd$18[ebp]
  00320	50		 push	 eax
  00321	ff d7		 call	 edi

; 311  : 		CString strLog;

  00323	8d 4d c8	 lea	 ecx, DWORD PTR _strLog$13[ebp]
  00326	ff 15 00 00 00
	00		 call	 DWORD PTR __imp_??0?$CStringT@DV?$StrTraitMFC_DLL@DV?$ChTraitsCRT@D@ATL@@@@@ATL@@QAE@XZ

; 312  : 		strLog.Format( "Start Time : %02d:%02d:%02d.%03d\r\nEnd Time : %02d:%02d:%02d.%03d\r\nData Count : %d\r\n",

  0032c	8b 8e 3c 03 00
	00		 mov	 ecx, DWORD PTR [esi+828]
  00332	c6 45 fc 0b	 mov	 BYTE PTR __$EHRec$[ebp+8], 11 ; 0000000bH
  00336	ff 15 00 00 00
	00		 call	 DWORD PTR __imp_?GetMaxCount@CPacketList@@QAEHXZ
  0033c	50		 push	 eax
  0033d	0f b7 45 ee	 movzx	 eax, WORD PTR _stEnd$18[ebp+14]
  00341	50		 push	 eax
  00342	0f b7 45 ec	 movzx	 eax, WORD PTR _stEnd$18[ebp+12]
  00346	50		 push	 eax
  00347	0f b7 45 ea	 movzx	 eax, WORD PTR _stEnd$18[ebp+10]
  0034b	50		 push	 eax
  0034c	0f b7 45 e8	 movzx	 eax, WORD PTR _stEnd$18[ebp+8]
  00350	8b 1d 00 00 00
	00		 mov	 ebx, DWORD PTR __imp_?Format@?$CStringT@DV?$StrTraitMFC_DLL@DV?$ChTraitsCRT@D@ATL@@@@@ATL@@QAAXPBDZZ
  00356	50		 push	 eax
  00357	0f b7 86 de 05
	00 00		 movzx	 eax, WORD PTR [esi+1502]
  0035e	50		 push	 eax
  0035f	0f b7 86 dc 05
	00 00		 movzx	 eax, WORD PTR [esi+1500]
  00366	50		 push	 eax
  00367	0f b7 86 da 05
	00 00		 movzx	 eax, WORD PTR [esi+1498]
  0036e	50		 push	 eax
  0036f	0f b7 86 d8 05
	00 00		 movzx	 eax, WORD PTR [esi+1496]
  00376	50		 push	 eax
  00377	8d 45 c8	 lea	 eax, DWORD PTR _strLog$13[ebp]
  0037a	68 00 00 00 00	 push	 OFFSET ??_C@_0FE@JECHEICF@Start?5Time?5?3?5?$CF02d?3?$CF02d?3?$CF02d?4?$CF03@
  0037f	50		 push	 eax
  00380	ff d3		 call	 ebx
; File C:\Program Files (x86)\Microsoft Visual Studio\2019\Community\VC\Tools\MSVC\14.29.30133\atlmfc\include\atlsimpstr.h

; 519  : 		return( GetData()->nDataLength );

  00382	8b 75 c8	 mov	 esi, DWORD PTR _strLog$13[ebp]
; File D:\git\src\IBK\IBK_DRFN\ProjSrc\SrcChartEx\ChartOCX\KTBChart\KTBChartDLL.cpp

; 312  : 		strLog.Format( "Start Time : %02d:%02d:%02d.%03d\r\nEnd Time : %02d:%02d:%02d.%03d\r\nData Count : %d\r\n",

  00385	83 c4 2c	 add	 esp, 44			; 0000002cH
; File D:\git\src\IBK\IBK_DRFN\ProjSrc\SrcChartEx\ChartOCX\Include\DumpLogger.h

; 22   : 	CDumpLogger( const char *p_szLogFileKey = "MDump", BOOL p_bMSecLogFile = FALSE, const char *p_szLogFolderPath = "C:\\Logs")

  00388	c7 45 b4 00 00
	00 00		 mov	 DWORD PTR _dLogger$8[ebp], OFFSET ??_7CDumpLogger@@6B@
; File C:\Program Files (x86)\Microsoft Visual Studio\2019\Community\VC\Tools\MSVC\14.29.30133\atlmfc\include\atlsimpstr.h

; 519  : 		return( GetData()->nDataLength );

  0038f	8b 46 f4	 mov	 eax, DWORD PTR [esi-12]
  00392	89 45 c0	 mov	 DWORD PTR $T10[ebp], eax
; File D:\git\src\IBK\IBK_DRFN\ProjSrc\SrcChartEx\ChartOCX\Include\DumpLogger.h

; 29   : 		GetLocalTime(&sTime);

  00395	8d 45 d0	 lea	 eax, DWORD PTR _sTime$17[ebp]
  00398	50		 push	 eax
  00399	ff d7		 call	 edi

; 30   : 		// 2. Log File Name .
; 31   : 		// 2.1 Log Folder Path .
; 32   : 		if( szLogFolderPath == NULL || *szLogFolderPath == '\0') szLogFolderPath = "C:\\Logs";
; 33   : 		// 2.2 Log File Key .
; 34   : 		if( szLogFileKey == NULL || *szLogFileKey == '\0') szLogFileKey = "MDump";
; 35   : 		// 2.3 Log File Name .
; 36   : 		CString strFileName;

  0039b	8d 4d cc	 lea	 ecx, DWORD PTR _strFileName$14[ebp]
  0039e	ff 15 00 00 00
	00		 call	 DWORD PTR __imp_??0?$CStringT@DV?$StrTraitMFC_DLL@DV?$ChTraitsCRT@D@ATL@@@@@ATL@@QAE@XZ

; 37   : 		if( p_bMSecLogFile) strFileName.Format( "%s\\%s_%04d%02d%02d_%02d%02d%02d_%03d.log", szLogFolderPath, szLogFileKey, sTime.wYear, 
; 38   : 			sTime.wMonth, sTime.wDay, sTime.wHour, sTime.wMinute, sTime.wSecond, sTime.wMilliseconds);
; 39   : 		else strFileName.Format( "%s\\%s_%04d%02d%02d.log", szLogFolderPath, szLogFileKey, sTime.wYear, 

  003a4	0f b7 45 d6	 movzx	 eax, WORD PTR _sTime$17[ebp+6]
  003a8	50		 push	 eax
  003a9	0f b7 45 d2	 movzx	 eax, WORD PTR _sTime$17[ebp+2]
  003ad	50		 push	 eax
  003ae	0f b7 45 d0	 movzx	 eax, WORD PTR _sTime$17[ebp]
  003b2	50		 push	 eax
  003b3	68 00 00 00 00	 push	 OFFSET ??_C@_0O@BPAIOFGL@ChartSpeedLog@
  003b8	68 00 00 00 00	 push	 OFFSET ??_C@_07PNFMHCIF@C?3?2Logs@
  003bd	8d 45 cc	 lea	 eax, DWORD PTR _strFileName$14[ebp]
  003c0	c6 45 fc 0c	 mov	 BYTE PTR __$EHRec$[ebp+8], 12 ; 0000000cH
  003c4	68 00 00 00 00	 push	 OFFSET ??_C@_0BH@KLLDLFAP@?$CFs?2?$CFs_?$CF04d?$CF02d?$CF02d?4log@
  003c9	50		 push	 eax
  003ca	ff d3		 call	 ebx
  003cc	83 c4 1c	 add	 esp, 28			; 0000001cH

; 40   : 			sTime.wMonth, sTime.wDay);
; 41   : 		// 3. szLogFolderPath     .
; 42   : 		::CreateDirectory( szLogFolderPath, NULL);

  003cf	6a 00		 push	 0
  003d1	68 00 00 00 00	 push	 OFFSET ??_C@_07PNFMHCIF@C?3?2Logs@
  003d6	ff 15 00 00 00
	00		 call	 DWORD PTR __imp__CreateDirectoryA@8

; 43   : 
; 44   : 		// 3. Log File Open.
; 45   : 		m_hLogFile = _lopen( ( LPCTSTR)strFileName, OF_READWRITE);

  003dc	6a 02		 push	 2
  003de	ff 75 cc	 push	 DWORD PTR _strFileName$14[ebp]
  003e1	ff 15 00 00 00
	00		 call	 DWORD PTR __imp___lopen@8
  003e7	89 45 b8	 mov	 DWORD PTR _dLogger$8[ebp+4], eax

; 46   : 		if( m_hLogFile != HFILE_ERROR)

  003ea	83 f8 ff	 cmp	 eax, -1
  003ed	74 0d		 je	 SHORT $LN168@SetPacketD

; 47   : 		{
; 48   : 			// 3.1  File  File  .
; 49   : 			if( _llseek( m_hLogFile, 0L, FILE_END) == HFILE_ERROR) return;

  003ef	6a 02		 push	 2
  003f1	6a 00		 push	 0
  003f3	50		 push	 eax
  003f4	ff 15 00 00 00
	00		 call	 DWORD PTR __imp___llseek@12
  003fa	eb 0e		 jmp	 SHORT $LN169@SetPacketD
$LN168@SetPacketD:

; 50   : 		}
; 51   : 		// 3.2  File   .
; 52   : 		else m_hLogFile = _lcreat( ( LPCTSTR)strFileName, 0);

  003fc	6a 00		 push	 0
  003fe	ff 75 cc	 push	 DWORD PTR _strFileName$14[ebp]
  00401	ff 15 00 00 00
	00		 call	 DWORD PTR __imp___lcreat@8
  00407	89 45 b8	 mov	 DWORD PTR _dLogger$8[ebp+4], eax
$LN169@SetPacketD:

; 53   : 	}

  0040a	8d 4d cc	 lea	 ecx, DWORD PTR _strFileName$14[ebp]
  0040d	ff 15 00 00 00
	00		 call	 DWORD PTR __imp_??1?$CStringT@DV?$StrTraitMFC_DLL@DV?$ChTraitsCRT@D@ATL@@@@@ATL@@QAE@XZ

; 199  : 		dLogger.WriteToStringLog( p_szSection, p_szData, p_nDataLen);

  00413	ff 75 c0	 push	 DWORD PTR $T10[ebp]
  00416	8d 4d b4	 lea	 ecx, DWORD PTR _dLogger$8[ebp]
  00419	c6 45 fc 0d	 mov	 BYTE PTR __$EHRec$[ebp+8], 13 ; 0000000dH
  0041d	56		 push	 esi
  0041e	68 00 00 00 00	 push	 OFFSET ??_C@_0BP@FKJBGGCH@CKTBChartCtrl?3?3SetPacketData?$CI?$CJ@
  00423	e8 00 00 00 00	 call	 ?WriteToStringLog@CDumpLogger@@QAEXPBD0H@Z ; CDumpLogger::WriteToStringLog

; 57   : 		if( m_hLogFile != HFILE_ERROR) _lclose( m_hLogFile);

  00428	8b 45 b8	 mov	 eax, DWORD PTR _dLogger$8[ebp+4]
  0042b	83 f8 ff	 cmp	 eax, -1
  0042e	74 07		 je	 SHORT $LN178@SetPacketD
  00430	50		 push	 eax
  00431	ff 15 00 00 00
	00		 call	 DWORD PTR __imp___lclose@4
$LN178@SetPacketD:
; File D:\git\src\IBK\IBK_DRFN\ProjSrc\SrcChartEx\ChartOCX\KTBChart\KTBChartDLL.cpp

; 317  : 	}

  00437	8d 4d c8	 lea	 ecx, DWORD PTR _strLog$13[ebp]
  0043a	ff 15 00 00 00
	00		 call	 DWORD PTR __imp_??1?$CStringT@DV?$StrTraitMFC_DLL@DV?$ChTraitsCRT@D@ATL@@@@@ATL@@QAE@XZ
$LN11@SetPacketD:

; 318  : 
; 319  : 	return TRUE;

  00440	8d 4d c4	 lea	 ecx, DWORD PTR _szPacketName$[ebp]
  00443	ff 15 00 00 00
	00		 call	 DWORD PTR __imp_??1?$CStringT@DV?$StrTraitMFC_DLL@DV?$ChTraitsCRT@D@ATL@@@@@ATL@@QAE@XZ
  00449	8d 4d bc	 lea	 ecx, DWORD PTR _strEnvValue$[ebp]
  0044c	ff 15 00 00 00
	00		 call	 DWORD PTR __imp_??1?$CStringT@DV?$StrTraitMFC_DLL@DV?$ChTraitsCRT@D@ATL@@@@@ATL@@QAE@XZ
  00452	b8 01 00 00 00	 mov	 eax, 1
  00457	eb 02		 jmp	 SHORT $LN1@SetPacketD
$LN4@SetPacketD:

; 250  : 
; 251  : 	// 0.  Pointer .
; 252  : 	if( !szPacketName2 || !m_pPacketList) return FALSE;

  00459	33 c0		 xor	 eax, eax
$LN1@SetPacketD:

; 320  : }

  0045b	8b 4d f4	 mov	 ecx, DWORD PTR __$EHRec$[ebp]
  0045e	64 89 0d 00 00
	00 00		 mov	 DWORD PTR fs:0, ecx
  00465	59		 pop	 ecx
  00466	5f		 pop	 edi
  00467	5e		 pop	 esi
  00468	5b		 pop	 ebx
  00469	8b 4d f0	 mov	 ecx, DWORD PTR __$ArrayPad$[ebp]
  0046c	33 cd		 xor	 ecx, ebp
  0046e	e8 00 00 00 00	 call	 @__security_check_cookie@4
  00473	8b e5		 mov	 esp, ebp
  00475	5d		 pop	 ebp
  00476	c2 10 00	 ret	 16			; 00000010H
_TEXT	ENDS
;	COMDAT text$x
text$x	SEGMENT
__unwindfunclet$?SetPacketData@CKTBChartCtrl@@IAEHPBDJJH@Z$0:
  00000	8d 4d bc	 lea	 ecx, DWORD PTR _strEnvValue$[ebp]
  00003	ff 25 00 00 00
	00		 jmp	 DWORD PTR __imp_??1?$CStringT@DV?$StrTraitMFC_DLL@DV?$ChTraitsCRT@D@ATL@@@@@ATL@@QAE@XZ
__unwindfunclet$?SetPacketData@CKTBChartCtrl@@IAEHPBDJJH@Z$1:
  00009	8d 4d cc	 lea	 ecx, DWORD PTR _strCount$16[ebp]
  0000c	ff 25 00 00 00
	00		 jmp	 DWORD PTR __imp_??1?$CStringT@DV?$StrTraitMFC_DLL@DV?$ChTraitsCRT@D@ATL@@@@@ATL@@QAE@XZ
__unwindfunclet$?SetPacketData@CKTBChartCtrl@@IAEHPBDJJH@Z$2:
  00012	8b 4d c0	 mov	 ecx, DWORD PTR $T12[ebp]
  00015	ff 25 00 00 00
	00		 jmp	 DWORD PTR __imp_??1?$CStringT@DV?$StrTraitMFC_DLL@DV?$ChTraitsCRT@D@ATL@@@@@ATL@@QAE@XZ
__unwindfunclet$?SetPacketData@CKTBChartCtrl@@IAEHPBDJJH@Z$4:
  0001b	8d 4d c4	 lea	 ecx, DWORD PTR _szPacketName$[ebp]
  0001e	ff 25 00 00 00
	00		 jmp	 DWORD PTR __imp_??1?$CStringT@DV?$StrTraitMFC_DLL@DV?$ChTraitsCRT@D@ATL@@@@@ATL@@QAE@XZ
__unwindfunclet$?SetPacketData@CKTBChartCtrl@@IAEHPBDJJH@Z$5:
  00024	8b 45 cc	 mov	 eax, DWORD PTR $T15[ebp]
  00027	83 e0 01	 and	 eax, 1
  0002a	0f 84 0d 00 00
	00		 je	 $LN21@SetPacketD
  00030	83 65 cc fe	 and	 DWORD PTR $T15[ebp], -2	; fffffffeH
  00034	8d 4d c0	 lea	 ecx, DWORD PTR $T11[ebp]
  00037	ff 25 00 00 00
	00		 jmp	 DWORD PTR __imp_??1?$CStringT@DV?$StrTraitMFC_DLL@DV?$ChTraitsCRT@D@ATL@@@@@ATL@@QAE@XZ
$LN21@SetPacketD:
  0003d	c3		 ret	 0
__unwindfunclet$?SetPacketData@CKTBChartCtrl@@IAEHPBDJJH@Z$6:
  0003e	8b 45 cc	 mov	 eax, DWORD PTR $T15[ebp]
  00041	83 e0 02	 and	 eax, 2
  00044	0f 84 0d 00 00
	00		 je	 $LN23@SetPacketD
  0004a	83 65 cc fd	 and	 DWORD PTR $T15[ebp], -3	; fffffffdH
  0004e	8d 4d b8	 lea	 ecx, DWORD PTR $T9[ebp]
  00051	ff 25 00 00 00
	00		 jmp	 DWORD PTR __imp_??1?$CStringT@DV?$StrTraitMFC_DLL@DV?$ChTraitsCRT@D@ATL@@@@@ATL@@QAE@XZ
$LN23@SetPacketD:
  00057	c3		 ret	 0
__unwindfunclet$?SetPacketData@CKTBChartCtrl@@IAEHPBDJJH@Z$7:
  00058	8b 45 cc	 mov	 eax, DWORD PTR $T15[ebp]
  0005b	83 e0 04	 and	 eax, 4
  0005e	0f 84 0d 00 00
	00		 je	 $LN25@SetPacketD
  00064	83 65 cc fb	 and	 DWORD PTR $T15[ebp], -5	; fffffffbH
  00068	8d 4d 9c	 lea	 ecx, DWORD PTR $T2[ebp]
  0006b	ff 25 00 00 00
	00		 jmp	 DWORD PTR __imp_??1?$CStringT@DV?$StrTraitMFC_DLL@DV?$ChTraitsCRT@D@ATL@@@@@ATL@@QAE@XZ
$LN25@SetPacketD:
  00071	c3		 ret	 0
__unwindfunclet$?SetPacketData@CKTBChartCtrl@@IAEHPBDJJH@Z$8:
  00072	8b 45 cc	 mov	 eax, DWORD PTR $T15[ebp]
  00075	83 e0 08	 and	 eax, 8
  00078	0f 84 0d 00 00
	00		 je	 $LN27@SetPacketD
  0007e	83 65 cc f7	 and	 DWORD PTR $T15[ebp], -9	; fffffff7H
  00082	8d 4d a0	 lea	 ecx, DWORD PTR $T3[ebp]
  00085	ff 25 00 00 00
	00		 jmp	 DWORD PTR __imp_??1?$CStringT@DV?$StrTraitMFC_DLL@DV?$ChTraitsCRT@D@ATL@@@@@ATL@@QAE@XZ
$LN27@SetPacketD:
  0008b	c3		 ret	 0
__unwindfunclet$?SetPacketData@CKTBChartCtrl@@IAEHPBDJJH@Z$9:
  0008c	8b 45 cc	 mov	 eax, DWORD PTR $T15[ebp]
  0008f	83 e0 10	 and	 eax, 16			; 00000010H
  00092	0f 84 0d 00 00
	00		 je	 $LN29@SetPacketD
  00098	83 65 cc ef	 and	 DWORD PTR $T15[ebp], -17 ; ffffffefH
  0009c	8d 4d a4	 lea	 ecx, DWORD PTR $T4[ebp]
  0009f	ff 25 00 00 00
	00		 jmp	 DWORD PTR __imp_??1?$CStringT@DV?$StrTraitMFC_DLL@DV?$ChTraitsCRT@D@ATL@@@@@ATL@@QAE@XZ
$LN29@SetPacketD:
  000a5	c3		 ret	 0
__unwindfunclet$?SetPacketData@CKTBChartCtrl@@IAEHPBDJJH@Z$10:
  000a6	8b 45 cc	 mov	 eax, DWORD PTR $T15[ebp]
  000a9	83 e0 20	 and	 eax, 32			; 00000020H
  000ac	0f 84 0d 00 00
	00		 je	 $LN31@SetPacketD
  000b2	83 65 cc df	 and	 DWORD PTR $T15[ebp], -33 ; ffffffdfH
  000b6	8d 4d a8	 lea	 ecx, DWORD PTR $T5[ebp]
  000b9	ff 25 00 00 00
	00		 jmp	 DWORD PTR __imp_??1?$CStringT@DV?$StrTraitMFC_DLL@DV?$ChTraitsCRT@D@ATL@@@@@ATL@@QAE@XZ
$LN31@SetPacketD:
  000bf	c3		 ret	 0
__unwindfunclet$?SetPacketData@CKTBChartCtrl@@IAEHPBDJJH@Z$11:
  000c0	8b 45 cc	 mov	 eax, DWORD PTR $T15[ebp]
  000c3	83 e0 40	 and	 eax, 64			; 00000040H
  000c6	0f 84 0d 00 00
	00		 je	 $LN33@SetPacketD
  000cc	83 65 cc bf	 and	 DWORD PTR $T15[ebp], -65 ; ffffffbfH
  000d0	8d 4d ac	 lea	 ecx, DWORD PTR $T6[ebp]
  000d3	ff 25 00 00 00
	00		 jmp	 DWORD PTR __imp_??1?$CStringT@DV?$StrTraitMFC_DLL@DV?$ChTraitsCRT@D@ATL@@@@@ATL@@QAE@XZ
$LN33@SetPacketD:
  000d9	c3		 ret	 0
__unwindfunclet$?SetPacketData@CKTBChartCtrl@@IAEHPBDJJH@Z$13:
  000da	8d 4d c8	 lea	 ecx, DWORD PTR _strLog$13[ebp]
  000dd	ff 25 00 00 00
	00		 jmp	 DWORD PTR __imp_??1?$CStringT@DV?$StrTraitMFC_DLL@DV?$ChTraitsCRT@D@ATL@@@@@ATL@@QAE@XZ
__unwindfunclet$?SetPacketData@CKTBChartCtrl@@IAEHPBDJJH@Z$22:
  000e3	8d 4d cc	 lea	 ecx, DWORD PTR _strFileName$14[ebp]
  000e6	ff 25 00 00 00
	00		 jmp	 DWORD PTR __imp_??1?$CStringT@DV?$StrTraitMFC_DLL@DV?$ChTraitsCRT@D@ATL@@@@@ATL@@QAE@XZ
__unwindfunclet$?SetPacketData@CKTBChartCtrl@@IAEHPBDJJH@Z$21:
  000ec	8d 4d b4	 lea	 ecx, DWORD PTR _dLogger$8[ebp]
  000ef	e9 00 00 00 00	 jmp	 ??1CDumpLogger@@UAE@XZ	; CDumpLogger::~CDumpLogger
  000f4	cc		 int	 3
  000f5	cc		 int	 3
  000f6	cc		 int	 3
  000f7	cc		 int	 3
  000f8	cc		 int	 3
__ehhandler$?SetPacketData@CKTBChartCtrl@@IAEHPBDJJH@Z:
  000f9	90		 npad	 1
  000fa	90		 npad	 1
  000fb	8b 54 24 08	 mov	 edx, DWORD PTR [esp+8]
  000ff	8d 42 0c	 lea	 eax, DWORD PTR [edx+12]
  00102	8b 4a 90	 mov	 ecx, DWORD PTR [edx-112]
  00105	33 c8		 xor	 ecx, eax
  00107	e8 00 00 00 00	 call	 @__security_check_cookie@4
  0010c	8b 4a fc	 mov	 ecx, DWORD PTR [edx-4]
  0010f	33 c8		 xor	 ecx, eax
  00111	e8 00 00 00 00	 call	 @__security_check_cookie@4
  00116	b8 00 00 00 00	 mov	 eax, OFFSET __ehfuncinfo$?SetPacketData@CKTBChartCtrl@@IAEHPBDJJH@Z
  0011b	e9 00 00 00 00	 jmp	 ___CxxFrameHandler3
text$x	ENDS
?SetPacketData@CKTBChartCtrl@@IAEHPBDJJH@Z ENDP		; CKTBChartCtrl::SetPacketData
; Function compile flags: /Ogtp
; File D:\git\src\IBK\IBK_DRFN\ProjSrc\SrcChartEx\ChartOCX\KTBChart\KTBChartDLL.cpp
;	COMDAT ?SetContainerDllInfo@CKTBChartCtrl@@IAEXJF@Z
_TEXT	SEGMENT
_p_lDllWnd$ = 8						; size = 4
_p_nID$ = 12						; size = 2
?SetContainerDllInfo@CKTBChartCtrl@@IAEXJF@Z PROC	; CKTBChartCtrl::SetContainerDllInfo, COMDAT
; _this$ = ecx

; 50   : {

  00000	55		 push	 ebp
  00001	8b ec		 mov	 ebp, esp

; 51   : 	// TODO: Add your dispatch handler code here
; 52   : 	m_hContainerDllWnd	= ( HWND)p_lDllWnd;

  00003	8b 45 08	 mov	 eax, DWORD PTR _p_lDllWnd$[ebp]
  00006	89 81 c0 04 00
	00		 mov	 DWORD PTR [ecx+1216], eax

; 53   : 	m_nID				= p_nID;

  0000c	66 8b 45 0c	 mov	 ax, WORD PTR _p_nID$[ebp]
  00010	66 89 81 c4 04
	00 00		 mov	 WORD PTR [ecx+1220], ax

; 54   : }

  00017	5d		 pop	 ebp
  00018	c2 08 00	 ret	 8
?SetContainerDllInfo@CKTBChartCtrl@@IAEXJF@Z ENDP	; CKTBChartCtrl::SetContainerDllInfo
_TEXT	ENDS
; Function compile flags: /Ogtp
; File D:\git\src\IBK\IBK_DRFN\ProjSrc\SrcChartEx\ChartOCX\KTBChart\KTBChartDLL.cpp
;	COMDAT ?RemovePacket@CKTBChartCtrl@@IAEHPBD@Z
_TEXT	SEGMENT
__$EHRec$ = -12						; size = 12
_szPacketName$ = 8					; size = 4
_szPacketName2$ = 8					; size = 4
?RemovePacket@CKTBChartCtrl@@IAEHPBD@Z PROC		; CKTBChartCtrl::RemovePacket, COMDAT
; _this$ = ecx

; 224  : {

  00000	55		 push	 ebp
  00001	8b ec		 mov	 ebp, esp
  00003	6a ff		 push	 -1
  00005	68 00 00 00 00	 push	 __ehhandler$?RemovePacket@CKTBChartCtrl@@IAEHPBD@Z
  0000a	64 a1 00 00 00
	00		 mov	 eax, DWORD PTR fs:0
  00010	50		 push	 eax
  00011	51		 push	 ecx
  00012	56		 push	 esi
  00013	a1 00 00 00 00	 mov	 eax, DWORD PTR ___security_cookie
  00018	33 c5		 xor	 eax, ebp
  0001a	50		 push	 eax
  0001b	8d 45 f4	 lea	 eax, DWORD PTR __$EHRec$[ebp]
  0001e	64 a3 00 00 00
	00		 mov	 DWORD PTR fs:0, eax
  00024	8b f1		 mov	 esi, ecx

; 225  : 	// TODO: Add your dispatch handler code here
; 226  : 	if(m_pPacketList == NULL)

  00026	83 be 3c 03 00
	00 00		 cmp	 DWORD PTR [esi+828], 0
  0002d	75 14		 jne	 SHORT $LN2@RemovePack

; 227  : 		return FALSE;

  0002f	33 c0		 xor	 eax, eax

; 240  : }

  00031	8b 4d f4	 mov	 ecx, DWORD PTR __$EHRec$[ebp]
  00034	64 89 0d 00 00
	00 00		 mov	 DWORD PTR fs:0, ecx
  0003b	59		 pop	 ecx
  0003c	5e		 pop	 esi
  0003d	8b e5		 mov	 esp, ebp
  0003f	5d		 pop	 ebp
  00040	c2 04 00	 ret	 4
$LN2@RemovePack:

; 228  : 
; 229  : 	CString szPacketName = _STOM0( szPacketName2);

  00043	6a 00		 push	 0
  00045	ff 75 08	 push	 DWORD PTR _szPacketName2$[ebp]
  00048	b9 00 00 00 00	 mov	 ecx, OFFSET ?g_iMetaTable@@3VIMetaTable@@A ; g_iMetaTable
  0004d	6a 00		 push	 0
  0004f	ff b6 c0 05 00
	00		 push	 DWORD PTR [esi+1472]
  00055	e8 00 00 00 00	 call	 ?GetMetaTextForScript@IMetaTable@@QAEPBDPAUHWND__@@W4E_CODEPAGE@1@PBDH@Z ; IMetaTable::GetMetaTextForScript
  0005a	50		 push	 eax
  0005b	8d 4d 08	 lea	 ecx, DWORD PTR _szPacketName$[ebp]
  0005e	ff 15 00 00 00
	00		 call	 DWORD PTR __imp_??0?$CStringT@DV?$StrTraitMFC_DLL@DV?$ChTraitsCRT@D@ATL@@@@@ATL@@QAE@PBD@Z

; 230  : 	if(!m_pPacketList->RemovePacket(szPacketName))

  00064	51		 push	 ecx
  00065	8d 45 08	 lea	 eax, DWORD PTR _szPacketName$[ebp]
  00068	c7 45 fc 00 00
	00 00		 mov	 DWORD PTR __$EHRec$[ebp+8], 0
  0006f	8b cc		 mov	 ecx, esp
  00071	50		 push	 eax
  00072	ff 15 00 00 00
	00		 call	 DWORD PTR __imp_??0?$CStringT@DV?$StrTraitMFC_DLL@DV?$ChTraitsCRT@D@ATL@@@@@ATL@@QAE@ABV01@@Z
  00078	8b 8e 3c 03 00
	00		 mov	 ecx, DWORD PTR [esi+828]
  0007e	ff 15 00 00 00
	00		 call	 DWORD PTR __imp_?RemovePacket@CPacketList@@QAE_NV?$CStringT@DV?$StrTraitMFC_DLL@DV?$ChTraitsCRT@D@ATL@@@@@ATL@@@Z
  00084	84 c0		 test	 al, al
  00086	74 30		 je	 SHORT $LN9@RemovePack

; 231  : 		return FALSE;
; 232  : 
; 233  : 	if( m_pMainBlock == NULL)

  00088	8b 8e 34 03 00
	00		 mov	 ecx, DWORD PTR [esi+820]
  0008e	85 c9		 test	 ecx, ecx
  00090	74 26		 je	 SHORT $LN9@RemovePack

; 234  : 		return FALSE;
; 235  : 
; 236  : 	if(m_pMainBlock->Initialize_Packet(szPacketName, FALSE))

  00092	8b 01		 mov	 eax, DWORD PTR [ecx]
  00094	8d 55 08	 lea	 edx, DWORD PTR _szPacketName$[ebp]
  00097	6a 00		 push	 0
  00099	52		 push	 edx
  0009a	8b 80 40 01 00
	00		 mov	 eax, DWORD PTR [eax+320]
  000a0	ff d0		 call	 eax
  000a2	84 c0		 test	 al, al
  000a4	74 0b		 je	 SHORT $LN5@RemovePack

; 237  : 		InvalidateControl() ;

  000a6	6a 01		 push	 1
  000a8	6a 00		 push	 0
  000aa	8b ce		 mov	 ecx, esi
  000ac	e8 00 00 00 00	 call	 ?InvalidateControl@CKTBChartCtrl@@QAEXPBUtagRECT@@H@Z ; CKTBChartCtrl::InvalidateControl
$LN5@RemovePack:

; 238  : 
; 239  : 	return TRUE;

  000b1	be 01 00 00 00	 mov	 esi, 1
  000b6	eb 02		 jmp	 SHORT $LN10@RemovePack
$LN9@RemovePack:
  000b8	33 f6		 xor	 esi, esi
$LN10@RemovePack:
  000ba	8d 4d 08	 lea	 ecx, DWORD PTR _szPacketName$[ebp]
  000bd	ff 15 00 00 00
	00		 call	 DWORD PTR __imp_??1?$CStringT@DV?$StrTraitMFC_DLL@DV?$ChTraitsCRT@D@ATL@@@@@ATL@@QAE@XZ
  000c3	8b c6		 mov	 eax, esi

; 240  : }

  000c5	8b 4d f4	 mov	 ecx, DWORD PTR __$EHRec$[ebp]
  000c8	64 89 0d 00 00
	00 00		 mov	 DWORD PTR fs:0, ecx
  000cf	59		 pop	 ecx
  000d0	5e		 pop	 esi
  000d1	8b e5		 mov	 esp, ebp
  000d3	5d		 pop	 ebp
  000d4	c2 04 00	 ret	 4
_TEXT	ENDS
;	COMDAT text$x
text$x	SEGMENT
__unwindfunclet$?RemovePacket@CKTBChartCtrl@@IAEHPBD@Z$0:
  00000	8d 4d 08	 lea	 ecx, DWORD PTR _szPacketName$[ebp]
  00003	ff 25 00 00 00
	00		 jmp	 DWORD PTR __imp_??1?$CStringT@DV?$StrTraitMFC_DLL@DV?$ChTraitsCRT@D@ATL@@@@@ATL@@QAE@XZ
  00009	cc		 int	 3
  0000a	cc		 int	 3
  0000b	cc		 int	 3
  0000c	cc		 int	 3
  0000d	cc		 int	 3
__ehhandler$?RemovePacket@CKTBChartCtrl@@IAEHPBD@Z:
  0000e	90		 npad	 1
  0000f	90		 npad	 1
  00010	8b 54 24 08	 mov	 edx, DWORD PTR [esp+8]
  00014	8d 42 0c	 lea	 eax, DWORD PTR [edx+12]
  00017	8b 4a f4	 mov	 ecx, DWORD PTR [edx-12]
  0001a	33 c8		 xor	 ecx, eax
  0001c	e8 00 00 00 00	 call	 @__security_check_cookie@4
  00021	b8 00 00 00 00	 mov	 eax, OFFSET __ehfuncinfo$?RemovePacket@CKTBChartCtrl@@IAEHPBD@Z
  00026	e9 00 00 00 00	 jmp	 ___CxxFrameHandler3
text$x	ENDS
?RemovePacket@CKTBChartCtrl@@IAEHPBD@Z ENDP		; CKTBChartCtrl::RemovePacket
; Function compile flags: /Ogtp
; File D:\git\src\IBK\IBK_DRFN\ProjSrc\SrcChartEx\ChartOCX\KTBChart\KTBChartDLL.cpp
;	COMDAT ?AddPacket@CKTBChartCtrl@@IAEXPBD@Z
_TEXT	SEGMENT
_szPacketOption$ = 8					; size = 4
?AddPacket@CKTBChartCtrl@@IAEXPBD@Z PROC		; CKTBChartCtrl::AddPacket, COMDAT
; _this$ = ecx

; 214  : {

  00000	55		 push	 ebp
  00001	8b ec		 mov	 ebp, esp
  00003	56		 push	 esi
  00004	8b f1		 mov	 esi, ecx

; 215  : 	// TODO: Add your dispatch handler code here
; 216  : 	if(m_pPacketList == NULL || szPacketOption == "")

  00006	83 be 3c 03 00
	00 00		 cmp	 DWORD PTR [esi+828], 0
  0000d	74 20		 je	 SHORT $LN3@AddPacket
  0000f	8b 45 08	 mov	 eax, DWORD PTR _szPacketOption$[ebp]
  00012	3d 00 00 00 00	 cmp	 eax, OFFSET ??_C@_00CNPNBAHC@@
  00017	74 16		 je	 SHORT $LN3@AddPacket

; 217  : 		return;
; 218  : 
; 219  : 	m_pPacketList->AddPacket(szPacketOption);

  00019	51		 push	 ecx
  0001a	8b cc		 mov	 ecx, esp
  0001c	50		 push	 eax
  0001d	ff 15 00 00 00
	00		 call	 DWORD PTR __imp_??0?$CStringT@DV?$StrTraitMFC_DLL@DV?$ChTraitsCRT@D@ATL@@@@@ATL@@QAE@PBD@Z
  00023	8b 8e 3c 03 00
	00		 mov	 ecx, DWORD PTR [esi+828]
  00029	ff 15 00 00 00
	00		 call	 DWORD PTR __imp_?AddPacket@CPacketList@@QAEXV?$CStringT@DV?$StrTraitMFC_DLL@DV?$ChTraitsCRT@D@ATL@@@@@ATL@@@Z
$LN3@AddPacket:

; 220  : }

  0002f	5e		 pop	 esi
  00030	5d		 pop	 ebp
  00031	c2 04 00	 ret	 4
?AddPacket@CKTBChartCtrl@@IAEXPBD@Z ENDP		; CKTBChartCtrl::AddPacket
_TEXT	ENDS
; Function compile flags: /Ogtp
; File D:\git\src\IBK\IBK_DRFN\ProjSrc\SrcChartEx\ChartOCX\KTBChart\KTBChartDLL.cpp
; File C:\Program Files (x86)\Microsoft Visual Studio\2019\Community\VC\Tools\MSVC\14.29.30133\atlmfc\include\atlsimpstr.h
; File D:\git\src\IBK\IBK_DRFN\ProjSrc\SrcChartEx\ChartOCX\KTBChart\KTBChartDLL.cpp
; File C:\Program Files (x86)\Microsoft Visual Studio\2019\Community\VC\Tools\MSVC\14.29.30133\atlmfc\include\atlsimpstr.h
; File D:\git\src\IBK\IBK_DRFN\ProjSrc\SrcChartEx\ChartOCX\KTBChart\KTBChartDLL.cpp
; File D:\git\src\IBK\IBK_DRFN\ProjSrc\SrcChartEx\ChartOCX\Include_Chart\BlockBaseData.h
; File D:\git\src\IBK\IBK_DRFN\ProjSrc\SrcChartEx\ChartOCX\KTBChart\KTBChartDLL.cpp
; File D:\git\src\IBK\IBK_DRFN\ProjSrc\SrcChartEx\ChartOCX\Include_Chart\BlockBaseData.h
; File D:\git\src\IBK\IBK_DRFN\ProjSrc\SrcChartEx\ChartOCX\KTBChart\KTBChartDLL.cpp
; File D:\git\src\IBK\IBK_DRFN\ProjSrc\SrcChartEx\ChartOCX\Include_Chart\BlockBaseData.h
; File D:\git\src\IBK\IBK_DRFN\ProjSrc\SrcChartEx\ChartOCX\KTBChart\KTBChartDLL.cpp
; File D:\git\src\IBK\IBK_DRFN\ProjSrc\SrcChartEx\ChartOCX\Include_Chart\BlockBaseData.h
; File D:\git\src\IBK\IBK_DRFN\ProjSrc\SrcChartEx\ChartOCX\KTBChart\KTBChartDLL.cpp
; File C:\Program Files (x86)\Microsoft Visual Studio\2019\Community\VC\Tools\MSVC\14.29.30133\atlmfc\include\cstringt.h
; File D:\git\src\IBK\IBK_DRFN\ProjSrc\SrcChartEx\ChartOCX\KTBChart\KTBChartDLL.cpp
; File C:\Program Files (x86)\Microsoft Visual Studio\2019\Community\VC\Tools\MSVC\14.29.30133\atlmfc\include\cstringt.h
; File D:\git\src\IBK\IBK_DRFN\ProjSrc\SrcChartEx\ChartOCX\KTBChart\KTBChartDLL.cpp
; File C:\Program Files (x86)\Microsoft Visual Studio\2019\Community\VC\Tools\MSVC\14.29.30133\atlmfc\include\cstringt.h
; File D:\git\src\IBK\IBK_DRFN\ProjSrc\SrcChartEx\ChartOCX\KTBChart\KTBChartDLL.cpp
; File C:\Program Files (x86)\Microsoft Visual Studio\2019\Community\VC\Tools\MSVC\14.29.30133\atlmfc\include\atlsimpstr.h
; File D:\git\src\IBK\IBK_DRFN\ProjSrc\SrcChartEx\ChartOCX\KTBChart\KTBChartDLL.cpp
; File C:\Program Files (x86)\Microsoft Visual Studio\2019\Community\VC\Tools\MSVC\14.29.30133\atlmfc\include\atlsimpstr.h
; File D:\git\src\IBK\IBK_DRFN\ProjSrc\SrcChartEx\ChartOCX\KTBChart\KTBChartDLL.cpp
; File C:\Program Files (x86)\Microsoft Visual Studio\2019\Community\VC\Tools\MSVC\14.29.30133\atlmfc\include\afxtempl.h
; File D:\git\src\IBK\IBK_DRFN\ProjSrc\SrcChartEx\ChartOCX\KTBChart\KTBChartDLL.cpp
; File C:\Program Files (x86)\Microsoft Visual Studio\2019\Community\VC\Tools\MSVC\14.29.30133\atlmfc\include\afxtempl.h
; File D:\git\src\IBK\IBK_DRFN\ProjSrc\SrcChartEx\ChartOCX\KTBChart\KTBChartDLL.cpp
; File C:\Program Files (x86)\Microsoft Visual Studio\2019\Community\VC\Tools\MSVC\14.29.30133\atlmfc\include\afxtempl.h
; File D:\git\src\IBK\IBK_DRFN\ProjSrc\SrcChartEx\ChartOCX\KTBChart\KTBChartDLL.cpp
; File C:\Program Files (x86)\Microsoft Visual Studio\2019\Community\VC\Tools\MSVC\14.29.30133\atlmfc\include\afxtempl.h
; File D:\git\src\IBK\IBK_DRFN\ProjSrc\SrcChartEx\ChartOCX\KTBChart\KTBChartDLL.cpp
; File C:\Program Files (x86)\Microsoft Visual Studio\2019\Community\VC\Tools\MSVC\14.29.30133\atlmfc\include\afxtempl.h
; File D:\git\src\IBK\IBK_DRFN\ProjSrc\SrcChartEx\ChartOCX\KTBChart\KTBChartDLL.cpp
; File C:\Program Files (x86)\Microsoft Visual Studio\2019\Community\VC\Tools\MSVC\14.29.30133\atlmfc\include\cstringt.h
; File D:\git\src\IBK\IBK_DRFN\ProjSrc\SrcChartEx\ChartOCX\KTBChart\KTBChartDLL.cpp
; File C:\Program Files (x86)\Microsoft Visual Studio\2019\Community\VC\Tools\MSVC\14.29.30133\atlmfc\include\cstringt.h
; File D:\git\src\IBK\IBK_DRFN\ProjSrc\SrcChartEx\ChartOCX\KTBChart\KTBChartDLL.cpp
;	COMDAT ?AddGraph@CKTBChartCtrl@@IAEXFFFPBDHHH@Z
_TEXT	SEGMENT
_graphColor$2 = -136					; size = 44
_strIndicatorNameList$3 = -92				; size = 28
_strGraphNameList$4 = -64				; size = 28
$T5 = -36						; size = 8
$T6 = -36						; size = 8
_psnGraph$1$ = -32					; size = 4
$T7 = -28						; size = 4
_nR$8 = -24						; size = 4
$T9 = -20						; size = 4
_nC$10 = -20						; size = 4
_szGraphOption$ = -16					; size = 4
__$EHRec$ = -12						; size = 12
_strIndicatorName$11 = 8				; size = 4
$T12 = 8						; size = 4
_nRow$ = 8						; size = 2
_strPairGraphName$13 = 12				; size = 4
_nColumn$ = 12						; size = 2
_strGraphName$14 = 16					; size = 4
_nVertScaleGroup$ = 16					; size = 2
_strGraphDataForMaking$ = 20				; size = 4
_szGraphOption2$ = 20					; size = 4
_nV$15 = 24						; size = 4
_bCreateBlock$ = 24					; size = 4
_pMainIndiInfo$1$ = 28					; size = 4
_nG$16 = 28						; size = 4
_bCreateVertScaleGroup$ = 28				; size = 4
_strMainRQ$17 = 32					; size = 4
_bUseAutoScale$ = 32					; size = 4
?AddGraph@CKTBChartCtrl@@IAEXFFFPBDHHH@Z PROC		; CKTBChartCtrl::AddGraph, COMDAT
; _this$ = ecx

; 115  : {

  00000	55		 push	 ebp
  00001	8b ec		 mov	 ebp, esp
  00003	6a ff		 push	 -1
  00005	68 00 00 00 00	 push	 __ehhandler$?AddGraph@CKTBChartCtrl@@IAEXFFFPBDHHH@Z
  0000a	64 a1 00 00 00
	00		 mov	 eax, DWORD PTR fs:0
  00010	50		 push	 eax
  00011	83 ec 7c	 sub	 esp, 124		; 0000007cH
  00014	53		 push	 ebx
  00015	56		 push	 esi
  00016	57		 push	 edi
  00017	a1 00 00 00 00	 mov	 eax, DWORD PTR ___security_cookie
  0001c	33 c5		 xor	 eax, ebp
  0001e	50		 push	 eax
  0001f	8d 45 f4	 lea	 eax, DWORD PTR __$EHRec$[ebp]
  00022	64 a3 00 00 00
	00		 mov	 DWORD PTR fs:0, eax
  00028	8b f1		 mov	 esi, ecx
  0002a	c7 45 ec 00 00
	00 00		 mov	 DWORD PTR $T9[ebp], 0

; 116  :  	if(m_pMainBlock == NULL)

  00031	83 be 34 03 00
	00 00		 cmp	 DWORD PTR [esi+820], 0
  00038	0f 84 f3 03 00
	00		 je	 $LN1@AddGraph

; 117  : 		return;
; 118  : 	CString szGraphOption = _STOM2( szGraphOption2);

  0003e	6a 00		 push	 0
  00040	ff 75 14	 push	 DWORD PTR _szGraphOption2$[ebp]
  00043	b9 00 00 00 00	 mov	 ecx, OFFSET ?g_iMetaTable@@3VIMetaTable@@A ; g_iMetaTable
  00048	6a 02		 push	 2
  0004a	ff b6 c0 05 00
	00		 push	 DWORD PTR [esi+1472]
  00050	e8 00 00 00 00	 call	 ?GetMetaTextForScript@IMetaTable@@QAEPBDPAUHWND__@@W4E_CODEPAGE@1@PBDH@Z ; IMetaTable::GetMetaTextForScript
  00055	50		 push	 eax
  00056	8d 4d f0	 lea	 ecx, DWORD PTR _szGraphOption$[ebp]
  00059	ff 15 00 00 00
	00		 call	 DWORD PTR __imp_??0?$CStringT@DV?$StrTraitMFC_DLL@DV?$ChTraitsCRT@D@ATL@@@@@ATL@@QAE@PBD@Z

; 120  : 	CString strGraphDataForMaking;

  0005f	8d 4d 14	 lea	 ecx, DWORD PTR _strGraphDataForMaking$[ebp]
  00062	c7 45 fc 00 00
	00 00		 mov	 DWORD PTR __$EHRec$[ebp+8], 0
  00069	ff 15 00 00 00
	00		 call	 DWORD PTR __imp_??0?$CStringT@DV?$StrTraitMFC_DLL@DV?$ChTraitsCRT@D@ATL@@@@@ATL@@QAE@XZ
; File C:\Program Files (x86)\Microsoft Visual Studio\2019\Community\VC\Tools\MSVC\14.29.30133\atlmfc\include\atlsimpstr.h

; 519  : 		return( GetData()->nDataLength );

  0006f	8b 45 f0	 mov	 eax, DWORD PTR _szGraphOption$[ebp]
; File D:\git\src\IBK\IBK_DRFN\ProjSrc\SrcChartEx\ChartOCX\KTBChart\KTBChartDLL.cpp

; 120  : 	CString strGraphDataForMaking;

  00072	c6 45 fc 01	 mov	 BYTE PTR __$EHRec$[ebp+8], 1
; File C:\Program Files (x86)\Microsoft Visual Studio\2019\Community\VC\Tools\MSVC\14.29.30133\atlmfc\include\atlsimpstr.h

; 533  : 		return( GetLength() == 0 );

  00076	83 78 f4 00	 cmp	 DWORD PTR [eax-12], 0
; File D:\git\src\IBK\IBK_DRFN\ProjSrc\SrcChartEx\ChartOCX\KTBChart\KTBChartDLL.cpp

; 181  : 	if(strGraphOption.IsEmpty())

  0007a	0f 84 9f 03 00
	00		 je	 $LN31@AddGraph

; 182  : 		return false;
; 183  : 
; 184  : 	// (2004.09.08, )    -> "Graph;\r\n"  
; 185  : 	if( !strncmp( strGraphOption, "Graph;\r\n", 8))

  00080	6a 08		 push	 8
  00082	68 00 00 00 00	 push	 OFFSET ??_C@_08BHMMGBBH@Graph?$DL?$AN?6@
  00087	50		 push	 eax
  00088	ff 15 00 00 00
	00		 call	 DWORD PTR __imp__strncmp
  0008e	83 c4 0c	 add	 esp, 12			; 0000000cH
  00091	85 c0		 test	 eax, eax
  00093	75 0f		 jne	 SHORT $LN34@AddGraph

; 186  : 	{
; 187  : 		// "Graph;\r\n;;,,,;\r\n1;0;0;Graph1;title;0;238,0,0;\r\nGraphEnd;\r\n";
; 188  : 		strGraphDataForMaking = strGraphOption;

  00095	8d 45 f0	 lea	 eax, DWORD PTR _szGraphOption$[ebp]
  00098	50		 push	 eax
  00099	8d 4d 14	 lea	 ecx, DWORD PTR _strGraphDataForMaking$[ebp]
  0009c	ff 15 00 00 00
	00		 call	 DWORD PTR __imp_??4?$CStringT@DV?$StrTraitMFC_DLL@DV?$ChTraitsCRT@D@ATL@@@@@ATL@@QAEAAV01@ABV01@@Z

; 189  : 		return true;

  000a2	eb 38		 jmp	 SHORT $LN97@AddGraph
$LN34@AddGraph:

; 190  : 	}
; 191  : 
; 192  : 	// strGraphOption    ->  Indicator Info  
; 193  : 	if(m_pIndicatorList == NULL) return false;

  000a4	8b 8e 40 03 00
	00		 mov	 ecx, DWORD PTR [esi+832]
  000aa	85 c9		 test	 ecx, ecx
  000ac	0f 84 6d 03 00
	00		 je	 $LN31@AddGraph

; 194  : 
; 195  : 	CIndicatorInfo* pIndicatorInfo = m_pIndicatorList->CreateGraphIndicatorInfo( strGraphOption);

  000b2	ff 75 f0	 push	 DWORD PTR _szGraphOption$[ebp]
  000b5	ff 15 00 00 00
	00		 call	 DWORD PTR __imp_?CreateGraphIndicatorInfo@CIndicatorList@@QAEPAVCIndicatorInfo@@PBD@Z

; 196  : 	if( !pIndicatorInfo) return FALSE;

  000bb	85 c0		 test	 eax, eax
  000bd	0f 84 5c 03 00
	00		 je	 $LN31@AddGraph

; 197  : 	pIndicatorInfo->GetGraphDataForMaking( strGraphDataForMaking);

  000c3	8d 4d 14	 lea	 ecx, DWORD PTR _strGraphDataForMaking$[ebp]
  000c6	51		 push	 ecx
  000c7	8b c8		 mov	 ecx, eax
  000c9	ff 15 00 00 00
	00		 call	 DWORD PTR __imp_?GetGraphDataForMaking@CIndicatorInfo@@QBEXAAV?$CStringT@DV?$StrTraitMFC_DLL@DV?$ChTraitsCRT@D@ATL@@@@@ATL@@@Z

; 121  : 	if(!GetGraphDataForMaking(szGraphOption, strGraphDataForMaking))

  000cf	8b 45 14	 mov	 eax, DWORD PTR _strGraphDataForMaking$[ebp]
  000d2	83 78 f4 00	 cmp	 DWORD PTR [eax-12], 0
  000d6	0f 84 43 03 00
	00		 je	 $LN31@AddGraph
$LN97@AddGraph:

; 205  : 	if(m_pMainBlock == NULL)

  000dc	8b 8e 34 03 00
	00		 mov	 ecx, DWORD PTR [esi+820]
  000e2	85 c9		 test	 ecx, ecx
  000e4	74 22		 je	 SHORT $LN57@AddGraph

; 206  : 		return true;
; 207  : 
; 208  : 	return (m_pMainBlock->GetRowCount() <= 0 || m_pMainBlock->GetColumnCount() <= 0);

  000e6	8b 01		 mov	 eax, DWORD PTR [ecx]
  000e8	ff 90 a4 01 00
	00		 call	 DWORD PTR [eax+420]
  000ee	85 c0		 test	 eax, eax
  000f0	7e 16		 jle	 SHORT $LN57@AddGraph
  000f2	8b 8e 34 03 00
	00		 mov	 ecx, DWORD PTR [esi+820]
  000f8	8b 01		 mov	 eax, DWORD PTR [ecx]
  000fa	ff 90 ac 01 00
	00		 call	 DWORD PTR [eax+428]
  00100	85 c0		 test	 eax, eax
  00102	7e 04		 jle	 SHORT $LN57@AddGraph
  00104	32 db		 xor	 bl, bl
  00106	eb 02		 jmp	 SHORT $LN58@AddGraph
$LN57@AddGraph:

; 122  : 		return;
; 123  : 
; 124  : 	// JSR 20060122 Add : Get The OCX Block State.
; 125  : 	bool bIsBlockEmpty = IsBlockEmpty();
; 126  : 	
; 127  :   	// RQ   :  - ojtaso (20061224)
; 128  :   	// CPacketRQ*  :  - ojtaso (20070109)
; 129  :   	LPVOID pPacketRQ = m_pPacketListManager->GetPacketRQ(m_strRQ);

  00108	b3 01		 mov	 bl, 1
$LN58@AddGraph:
  0010a	8b 8e 98 05 00
	00		 mov	 ecx, DWORD PTR [esi+1432]
  00110	ff b6 9c 05 00
	00		 push	 DWORD PTR [esi+1436]
  00116	8b 01		 mov	 eax, DWORD PTR [ecx]
  00118	ff 50 20	 call	 DWORD PTR [eax+32]
  0011b	8b f8		 mov	 edi, eax

; 130  : 	if(!pPacketRQ)

  0011d	85 ff		 test	 edi, edi
  0011f	0f 84 fa 02 00
	00		 je	 $LN31@AddGraph

; 133  :   	if(!m_pMainBlock->InsertGraphInBlock(pPacketRQ, CBlockIndex(nRow, nColumn), nVertScaleGroup, 

  00125	83 7d 20 01	 cmp	 DWORD PTR _bUseAutoScale$[ebp], 1
  00129	0f bf 4d 08	 movsx	 ecx, WORD PTR _nRow$[ebp]
  0012d	0f 94 c0	 sete	 al
; File D:\git\src\IBK\IBK_DRFN\ProjSrc\SrcChartEx\ChartOCX\Include_Chart\BlockBaseData.h

; 20   : 	CBlockIndex( const int row, const int column)		{	m_nRow = row;	m_nColumn = column;		}

  00130	89 4d dc	 mov	 DWORD PTR $T6[ebp], ecx
; File D:\git\src\IBK\IBK_DRFN\ProjSrc\SrcChartEx\ChartOCX\KTBChart\KTBChartDLL.cpp

; 133  :   	if(!m_pMainBlock->InsertGraphInBlock(pPacketRQ, CBlockIndex(nRow, nColumn), nVertScaleGroup, 

  00133	83 7d 1c 01	 cmp	 DWORD PTR _bCreateVertScaleGroup$[ebp], 1
  00137	0f bf 4d 0c	 movsx	 ecx, WORD PTR _nColumn$[ebp]
  0013b	0f b6 c0	 movzx	 eax, al
  0013e	50		 push	 eax
  0013f	0f 94 c0	 sete	 al
; File D:\git\src\IBK\IBK_DRFN\ProjSrc\SrcChartEx\ChartOCX\Include_Chart\BlockBaseData.h

; 20   : 	CBlockIndex( const int row, const int column)		{	m_nRow = row;	m_nColumn = column;		}

  00142	89 4d e0	 mov	 DWORD PTR $T6[ebp+4], ecx
; File D:\git\src\IBK\IBK_DRFN\ProjSrc\SrcChartEx\ChartOCX\KTBChart\KTBChartDLL.cpp

; 133  :   	if(!m_pMainBlock->InsertGraphInBlock(pPacketRQ, CBlockIndex(nRow, nColumn), nVertScaleGroup, 

  00145	83 7d 18 01	 cmp	 DWORD PTR _bCreateBlock$[ebp], 1
  00149	8b 8e 34 03 00
	00		 mov	 ecx, DWORD PTR [esi+820]
  0014f	0f b6 c0	 movzx	 eax, al
  00152	50		 push	 eax
  00153	0f 94 c0	 sete	 al
  00156	8b 11		 mov	 edx, DWORD PTR [ecx]
  00158	0f b6 c0	 movzx	 eax, al
  0015b	50		 push	 eax
  0015c	8d 45 14	 lea	 eax, DWORD PTR _strGraphDataForMaking$[ebp]
  0015f	50		 push	 eax
  00160	0f bf 45 10	 movsx	 eax, WORD PTR _nVertScaleGroup$[ebp]
  00164	50		 push	 eax
  00165	8d 45 dc	 lea	 eax, DWORD PTR $T6[ebp]
  00168	50		 push	 eax
  00169	57		 push	 edi
  0016a	ff 52 38	 call	 DWORD PTR [edx+56]
  0016d	85 c0		 test	 eax, eax
  0016f	0f 84 aa 02 00
	00		 je	 $LN31@AddGraph

; 134  : 		strGraphDataForMaking, bCreateBlock == TRUE, bCreateVertScaleGroup == TRUE, bUseAutoScale == TRUE))
; 135  :   		return;
; 136  : 
; 137  : 	// JSR 20060122 Add : Make a Block Double Size When The OCX is Empty State.
; 138  : 	if(bIsBlockEmpty)

  00175	84 db		 test	 bl, bl
  00177	74 24		 je	 SHORT $LN8@AddGraph

; 139  : 		m_pMainBlock->SetDoubleSizeBlockNumber(CBlockIndex(m_nRowDoubleSizeBlock, m_nColumnDoubleSizeBlock));

  00179	8b 8e 9c 02 00
	00		 mov	 ecx, DWORD PTR [esi+668]
  0017f	8d 55 dc	 lea	 edx, DWORD PTR $T5[ebp]
; File D:\git\src\IBK\IBK_DRFN\ProjSrc\SrcChartEx\ChartOCX\Include_Chart\BlockBaseData.h

; 20   : 	CBlockIndex( const int row, const int column)		{	m_nRow = row;	m_nColumn = column;		}

  00182	8b 86 94 02 00
	00		 mov	 eax, DWORD PTR [esi+660]
  00188	89 4d e0	 mov	 DWORD PTR $T5[ebp+4], ecx
; File D:\git\src\IBK\IBK_DRFN\ProjSrc\SrcChartEx\ChartOCX\KTBChart\KTBChartDLL.cpp

; 139  : 		m_pMainBlock->SetDoubleSizeBlockNumber(CBlockIndex(m_nRowDoubleSizeBlock, m_nColumnDoubleSizeBlock));

  0018b	8b 8e 34 03 00
	00		 mov	 ecx, DWORD PTR [esi+820]
; File D:\git\src\IBK\IBK_DRFN\ProjSrc\SrcChartEx\ChartOCX\Include_Chart\BlockBaseData.h

; 20   : 	CBlockIndex( const int row, const int column)		{	m_nRow = row;	m_nColumn = column;		}

  00191	89 45 dc	 mov	 DWORD PTR $T5[ebp], eax
; File D:\git\src\IBK\IBK_DRFN\ProjSrc\SrcChartEx\ChartOCX\KTBChart\KTBChartDLL.cpp

; 139  : 		m_pMainBlock->SetDoubleSizeBlockNumber(CBlockIndex(m_nRowDoubleSizeBlock, m_nColumnDoubleSizeBlock));

  00194	52		 push	 edx
  00195	8b 01		 mov	 eax, DWORD PTR [ecx]
  00197	ff 90 bc 00 00
	00		 call	 DWORD PTR [eax+188]
$LN8@AddGraph:

; 142  : 	if( m_strRQ.Right( 5) == "_PAIR" && szGraphOption == _MTEXT( C2_PRICE_CHART))

  0019d	6a 05		 push	 5
  0019f	8d 45 08	 lea	 eax, DWORD PTR $T12[ebp]
  001a2	50		 push	 eax
  001a3	8d 8e 9c 05 00
	00		 lea	 ecx, DWORD PTR [esi+1436]
  001a9	ff 15 00 00 00
	00		 call	 DWORD PTR __imp_?Right@?$CStringT@DV?$StrTraitMFC_DLL@DV?$ChTraitsCRT@D@ATL@@@@@ATL@@QBE?AV12@H@Z
; File C:\Program Files (x86)\Microsoft Visual Studio\2019\Community\VC\Tools\MSVC\14.29.30133\atlmfc\include\cstringt.h

; 2486 : 		return(str1.Compare(psz2) == 0);

  001af	68 00 00 00 00	 push	 OFFSET ??_C@_05FPJIJNHE@_PAIR@
  001b4	8b c8		 mov	 ecx, eax
; File D:\git\src\IBK\IBK_DRFN\ProjSrc\SrcChartEx\ChartOCX\KTBChart\KTBChartDLL.cpp

; 142  : 	if( m_strRQ.Right( 5) == "_PAIR" && szGraphOption == _MTEXT( C2_PRICE_CHART))

  001b6	c6 45 fc 02	 mov	 BYTE PTR __$EHRec$[ebp+8], 2
  001ba	c7 45 ec 01 00
	00 00		 mov	 DWORD PTR $T9[ebp], 1
; File C:\Program Files (x86)\Microsoft Visual Studio\2019\Community\VC\Tools\MSVC\14.29.30133\atlmfc\include\cstringt.h

; 2486 : 		return(str1.Compare(psz2) == 0);

  001c1	ff 15 00 00 00
	00		 call	 DWORD PTR __imp_?Compare@?$CStringT@DV?$StrTraitMFC_DLL@DV?$ChTraitsCRT@D@ATL@@@@@ATL@@QBEHPBD@Z
  001c7	85 c0		 test	 eax, eax
; File D:\git\src\IBK\IBK_DRFN\ProjSrc\SrcChartEx\ChartOCX\KTBChart\KTBChartDLL.cpp

; 142  : 	if( m_strRQ.Right( 5) == "_PAIR" && szGraphOption == _MTEXT( C2_PRICE_CHART))

  001c9	75 1c		 jne	 SHORT $LN16@AddGraph
  001cb	a1 54 00 00 00	 mov	 eax, DWORD PTR ?g_iMetaTable@@3VIMetaTable@@A+84
; File C:\Program Files (x86)\Microsoft Visual Studio\2019\Community\VC\Tools\MSVC\14.29.30133\atlmfc\include\cstringt.h

; 2486 : 		return(str1.Compare(psz2) == 0);

  001d0	8d 4d f0	 lea	 ecx, DWORD PTR _szGraphOption$[ebp]
  001d3	ff b0 28 03 00
	00		 push	 DWORD PTR [eax+808]
  001d9	ff 15 00 00 00
	00		 call	 DWORD PTR __imp_?Compare@?$CStringT@DV?$StrTraitMFC_DLL@DV?$ChTraitsCRT@D@ATL@@@@@ATL@@QBEHPBD@Z
  001df	85 c0		 test	 eax, eax
; File D:\git\src\IBK\IBK_DRFN\ProjSrc\SrcChartEx\ChartOCX\KTBChart\KTBChartDLL.cpp

; 142  : 	if( m_strRQ.Right( 5) == "_PAIR" && szGraphOption == _MTEXT( C2_PRICE_CHART))

  001e1	75 04		 jne	 SHORT $LN16@AddGraph
  001e3	b3 01		 mov	 bl, 1
  001e5	eb 02		 jmp	 SHORT $LN17@AddGraph
$LN16@AddGraph:
  001e7	32 db		 xor	 bl, bl
$LN17@AddGraph:
  001e9	8d 4d 08	 lea	 ecx, DWORD PTR $T12[ebp]
  001ec	c7 45 fc 01 00
	00 00		 mov	 DWORD PTR __$EHRec$[ebp+8], 1
  001f3	ff 15 00 00 00
	00		 call	 DWORD PTR __imp_??1?$CStringT@DV?$StrTraitMFC_DLL@DV?$ChTraitsCRT@D@ATL@@@@@ATL@@QAE@XZ
  001f9	84 db		 test	 bl, bl
  001fb	0f 84 13 02 00
	00		 je	 $LN9@AddGraph

; 143  : 	{
; 144  : 		CList<CString, CString> strIndicatorNameList, strGraphNameList;

  00201	6a 0a		 push	 10			; 0000000aH
  00203	8d 4d a4	 lea	 ecx, DWORD PTR _strIndicatorNameList$3[ebp]
  00206	e8 00 00 00 00	 call	 ??0?$CList@V?$CStringT@DV?$StrTraitMFC_DLL@DV?$ChTraitsCRT@D@ATL@@@@@ATL@@V12@@@QAE@H@Z ; CList<ATL::CStringT<char,StrTraitMFC_DLL<char,ATL::ChTraitsCRT<char> > >,ATL::CStringT<char,StrTraitMFC_DLL<char,ATL::ChTraitsCRT<char> > > >::CList<ATL::CStringT<char,StrTraitMFC_DLL<char,ATL::ChTraitsCRT<char> > >,ATL::CStringT<char,StrTraitMFC_DLL<char,ATL::ChTraitsCRT<char> > > >
  0020b	6a 0a		 push	 10			; 0000000aH
  0020d	8d 4d c0	 lea	 ecx, DWORD PTR _strGraphNameList$4[ebp]
  00210	e8 00 00 00 00	 call	 ??0?$CList@V?$CStringT@DV?$StrTraitMFC_DLL@DV?$ChTraitsCRT@D@ATL@@@@@ATL@@V12@@@QAE@H@Z ; CList<ATL::CStringT<char,StrTraitMFC_DLL<char,ATL::ChTraitsCRT<char> > >,ATL::CStringT<char,StrTraitMFC_DLL<char,ATL::ChTraitsCRT<char> > > >::CList<ATL::CStringT<char,StrTraitMFC_DLL<char,ATL::ChTraitsCRT<char> > >,ATL::CStringT<char,StrTraitMFC_DLL<char,ATL::ChTraitsCRT<char> > > >
; File C:\Program Files (x86)\Microsoft Visual Studio\2019\Community\VC\Tools\MSVC\14.29.30133\atlmfc\include\atlsimpstr.h

; 519  : 		return( GetData()->nDataLength );

  00215	8b 86 9c 05 00
	00		 mov	 eax, DWORD PTR [esi+1436]
; File D:\git\src\IBK\IBK_DRFN\ProjSrc\SrcChartEx\ChartOCX\KTBChart\KTBChartDLL.cpp

; 145  : 		CString strMainRQ = m_strRQ.Left( m_strRQ.GetLength() - 5);

  0021b	8d 8e 9c 05 00
	00		 lea	 ecx, DWORD PTR [esi+1436]
  00221	c6 45 fc 04	 mov	 BYTE PTR __$EHRec$[ebp+8], 4
; File C:\Program Files (x86)\Microsoft Visual Studio\2019\Community\VC\Tools\MSVC\14.29.30133\atlmfc\include\atlsimpstr.h

; 519  : 		return( GetData()->nDataLength );

  00225	8b 40 f4	 mov	 eax, DWORD PTR [eax-12]
; File D:\git\src\IBK\IBK_DRFN\ProjSrc\SrcChartEx\ChartOCX\KTBChart\KTBChartDLL.cpp

; 145  : 		CString strMainRQ = m_strRQ.Left( m_strRQ.GetLength() - 5);

  00228	83 c0 fb	 add	 eax, -5			; fffffffbH
  0022b	50		 push	 eax
  0022c	8d 45 20	 lea	 eax, DWORD PTR _strMainRQ$17[ebp]
  0022f	50		 push	 eax
  00230	ff 15 00 00 00
	00		 call	 DWORD PTR __imp_?Left@?$CStringT@DV?$StrTraitMFC_DLL@DV?$ChTraitsCRT@D@ATL@@@@@ATL@@QBE?AV12@H@Z

; 146  : 		m_pMainBlock->GetAllIndicatorAndGraphNameWithRQ( strIndicatorNameList, strGraphNameList, strMainRQ);

  00236	8b 8e 34 03 00
	00		 mov	 ecx, DWORD PTR [esi+820]
  0023c	8d 55 c0	 lea	 edx, DWORD PTR _strGraphNameList$4[ebp]
  0023f	ff 75 20	 push	 DWORD PTR _strMainRQ$17[ebp]
  00242	c6 45 fc 05	 mov	 BYTE PTR __$EHRec$[ebp+8], 5
  00246	52		 push	 edx
  00247	8b 01		 mov	 eax, DWORD PTR [ecx]
  00249	8d 55 a4	 lea	 edx, DWORD PTR _strIndicatorNameList$3[ebp]
  0024c	52		 push	 edx
  0024d	ff 90 d0 01 00
	00		 call	 DWORD PTR [eax+464]

; 147  : 		POSITION psnIndicator = strIndicatorNameList.GetHeadPosition();

  00253	8b 5d a8	 mov	 ebx, DWORD PTR _strIndicatorNameList$3[ebp+4]

; 148  : 		POSITION psnGraph = strGraphNameList.GetHeadPosition();
; 149  : 		CString strIndicatorName, strGraphName, strPairGraphName;

  00256	8d 4d 08	 lea	 ecx, DWORD PTR _strIndicatorName$11[ebp]
  00259	8b 7d c4	 mov	 edi, DWORD PTR _strGraphNameList$4[ebp+4]
  0025c	ff 15 00 00 00
	00		 call	 DWORD PTR __imp_??0?$CStringT@DV?$StrTraitMFC_DLL@DV?$ChTraitsCRT@D@ATL@@@@@ATL@@QAE@XZ
  00262	8d 4d 10	 lea	 ecx, DWORD PTR _strGraphName$14[ebp]
  00265	ff 15 00 00 00
	00		 call	 DWORD PTR __imp_??0?$CStringT@DV?$StrTraitMFC_DLL@DV?$ChTraitsCRT@D@ATL@@@@@ATL@@QAE@XZ
  0026b	8d 4d 0c	 lea	 ecx, DWORD PTR _strPairGraphName$13[ebp]
  0026e	ff 15 00 00 00
	00		 call	 DWORD PTR __imp_??0?$CStringT@DV?$StrTraitMFC_DLL@DV?$ChTraitsCRT@D@ATL@@@@@ATL@@QAE@XZ
  00274	c6 45 fc 08	 mov	 BYTE PTR __$EHRec$[ebp+8], 8

; 150  : 		while( psnIndicator && psnGraph)

  00278	85 db		 test	 ebx, ebx
  0027a	0f 84 4c 01 00
	00		 je	 $LN3@AddGraph
$LL2@AddGraph:
  00280	85 ff		 test	 edi, edi
  00282	0f 84 44 01 00
	00		 je	 $LN3@AddGraph
; File C:\Program Files (x86)\Microsoft Visual Studio\2019\Community\VC\Tools\MSVC\14.29.30133\atlmfc\include\afxtempl.h

; 811  : 	{ CNode* pNode = (CNode*) rPosition;

  00288	8b c3		 mov	 eax, ebx
; File D:\git\src\IBK\IBK_DRFN\ProjSrc\SrcChartEx\ChartOCX\KTBChart\KTBChartDLL.cpp

; 152  : 			strIndicatorName = strIndicatorNameList.GetNext( psnIndicator);

  0028a	8d 4d 08	 lea	 ecx, DWORD PTR _strIndicatorName$11[ebp]
; File C:\Program Files (x86)\Microsoft Visual Studio\2019\Community\VC\Tools\MSVC\14.29.30133\atlmfc\include\afxtempl.h

; 813  : 		rPosition = (POSITION) pNode->pNext;

  0028d	8b 1b		 mov	 ebx, DWORD PTR [ebx]

; 814  : 		return pNode->data; }

  0028f	83 c0 08	 add	 eax, 8
; File D:\git\src\IBK\IBK_DRFN\ProjSrc\SrcChartEx\ChartOCX\KTBChart\KTBChartDLL.cpp

; 152  : 			strIndicatorName = strIndicatorNameList.GetNext( psnIndicator);

  00292	50		 push	 eax
  00293	ff 15 00 00 00
	00		 call	 DWORD PTR __imp_??4?$CStringT@DV?$StrTraitMFC_DLL@DV?$ChTraitsCRT@D@ATL@@@@@ATL@@QAEAAV01@ABV01@@Z
; File C:\Program Files (x86)\Microsoft Visual Studio\2019\Community\VC\Tools\MSVC\14.29.30133\atlmfc\include\afxtempl.h

; 811  : 	{ CNode* pNode = (CNode*) rPosition;

  00299	8b c7		 mov	 eax, edi
; File D:\git\src\IBK\IBK_DRFN\ProjSrc\SrcChartEx\ChartOCX\KTBChart\KTBChartDLL.cpp

; 153  : 			strGraphName = strIndicatorNameList.GetNext( psnGraph);

  0029b	8d 4d 10	 lea	 ecx, DWORD PTR _strGraphName$14[ebp]
; File C:\Program Files (x86)\Microsoft Visual Studio\2019\Community\VC\Tools\MSVC\14.29.30133\atlmfc\include\afxtempl.h

; 813  : 		rPosition = (POSITION) pNode->pNext;

  0029e	8b 3f		 mov	 edi, DWORD PTR [edi]

; 814  : 		return pNode->data; }

  002a0	83 c0 08	 add	 eax, 8
; File D:\git\src\IBK\IBK_DRFN\ProjSrc\SrcChartEx\ChartOCX\KTBChart\KTBChartDLL.cpp

; 153  : 			strGraphName = strIndicatorNameList.GetNext( psnGraph);

  002a3	50		 push	 eax
; File C:\Program Files (x86)\Microsoft Visual Studio\2019\Community\VC\Tools\MSVC\14.29.30133\atlmfc\include\afxtempl.h

; 813  : 		rPosition = (POSITION) pNode->pNext;

  002a4	89 7d e0	 mov	 DWORD PTR _psnGraph$1$[ebp], edi
; File D:\git\src\IBK\IBK_DRFN\ProjSrc\SrcChartEx\ChartOCX\KTBChart\KTBChartDLL.cpp

; 153  : 			strGraphName = strIndicatorNameList.GetNext( psnGraph);

  002a7	ff 15 00 00 00
	00		 call	 DWORD PTR __imp_??4?$CStringT@DV?$StrTraitMFC_DLL@DV?$ChTraitsCRT@D@ATL@@@@@ATL@@QAEAAV01@ABV01@@Z

; 154  : 			if( strIndicatorName != _MTEXT( C2_PRICE_CHART))

  002ad	a1 54 00 00 00	 mov	 eax, DWORD PTR ?g_iMetaTable@@3VIMetaTable@@A+84
; File C:\Program Files (x86)\Microsoft Visual Studio\2019\Community\VC\Tools\MSVC\14.29.30133\atlmfc\include\cstringt.h

; 2567 : 		return( str1.Compare( psz2 ) != 0 );

  002b2	8d 4d 08	 lea	 ecx, DWORD PTR _strIndicatorName$11[ebp]
  002b5	ff b0 28 03 00
	00		 push	 DWORD PTR [eax+808]
  002bb	ff 15 00 00 00
	00		 call	 DWORD PTR __imp_?Compare@?$CStringT@DV?$StrTraitMFC_DLL@DV?$ChTraitsCRT@D@ATL@@@@@ATL@@QBEHPBD@Z
  002c1	85 c0		 test	 eax, eax
; File D:\git\src\IBK\IBK_DRFN\ProjSrc\SrcChartEx\ChartOCX\KTBChart\KTBChartDLL.cpp

; 154  : 			if( strIndicatorName != _MTEXT( C2_PRICE_CHART))

  002c3	8d 45 0c	 lea	 eax, DWORD PTR _strPairGraphName$13[ebp]
  002c6	74 10		 je	 SHORT $LN10@AddGraph

; 155  : 				AddChart_GenneralChart( strIndicatorName, strPairGraphName, FALSE);

  002c8	6a 00		 push	 0
  002ca	50		 push	 eax
  002cb	8d 45 08	 lea	 eax, DWORD PTR _strIndicatorName$11[ebp]
  002ce	8b ce		 mov	 ecx, esi
  002d0	50		 push	 eax
  002d1	e8 00 00 00 00	 call	 ?AddChart_GenneralChart@CKTBChartCtrl@@AAEHABV?$CStringT@DV?$StrTraitMFC_DLL@DV?$ChTraitsCRT@D@ATL@@@@@ATL@@AAV23@H@Z ; CKTBChartCtrl::AddChart_GenneralChart
  002d6	eb 4c		 jmp	 SHORT $LN11@AddGraph
$LN10@AddGraph:

; 156  : 			else
; 157  : 			{
; 158  : 				int nR = -1, nC = -1, nV = -1, nG = -1;
; 159  : 				m_pMainBlock->FindFirstIndicator( _MTEXT( C2_PRICE_CHART), nR, nC, nV, nG, strPairGraphName, m_strRQ);

  002d8	ff b6 9c 05 00
	00		 push	 DWORD PTR [esi+1436]
  002de	8b 8e 34 03 00
	00		 mov	 ecx, DWORD PTR [esi+820]
  002e4	50		 push	 eax
  002e5	8d 45 1c	 lea	 eax, DWORD PTR _nG$16[ebp]
  002e8	c7 45 e8 ff ff
	ff ff		 mov	 DWORD PTR _nR$8[ebp], -1
  002ef	50		 push	 eax
  002f0	8d 45 18	 lea	 eax, DWORD PTR _nV$15[ebp]
  002f3	c7 45 ec ff ff
	ff ff		 mov	 DWORD PTR _nC$10[ebp], -1
  002fa	50		 push	 eax
  002fb	8d 45 ec	 lea	 eax, DWORD PTR _nC$10[ebp]
  002fe	c7 45 18 ff ff
	ff ff		 mov	 DWORD PTR _nV$15[ebp], -1
  00305	50		 push	 eax
  00306	8d 45 e8	 lea	 eax, DWORD PTR _nR$8[ebp]
  00309	c7 45 1c ff ff
	ff ff		 mov	 DWORD PTR _nG$16[ebp], -1
  00310	8b 11		 mov	 edx, DWORD PTR [ecx]
  00312	50		 push	 eax
  00313	a1 54 00 00 00	 mov	 eax, DWORD PTR ?g_iMetaTable@@3VIMetaTable@@A+84
  00318	ff b0 28 03 00
	00		 push	 DWORD PTR [eax+808]
  0031e	ff 92 d4 02 00
	00		 call	 DWORD PTR [edx+724]
$LN11@AddGraph:

; 160  : 			}
; 161  : 			CIndicatorInfo *pMainIndiInfo = m_pIndicatorList->GetGraphIndicatorInfo( EILT_USER, strGraphName, strIndicatorName, EIIGT_WITHOUT_DEFAULT);

  00324	8b 8e 40 03 00
	00		 mov	 ecx, DWORD PTR [esi+832]
  0032a	8b 3d 00 00 00
	00		 mov	 edi, DWORD PTR __imp_?GetGraphIndicatorInfo@CIndicatorList@@QAEPAVCIndicatorInfo@@W4EIndicatorListType@@PBD1W4EIndicatorInfoGettingType@@@Z
  00330	6a 00		 push	 0
  00332	ff 75 08	 push	 DWORD PTR _strIndicatorName$11[ebp]
  00335	ff 75 10	 push	 DWORD PTR _strGraphName$14[ebp]
  00338	6a 03		 push	 3
  0033a	ff d7		 call	 edi

; 162  : 			CIndicatorInfo *pPairIndiInfo = m_pIndicatorList->GetGraphIndicatorInfo( EILT_USER, strPairGraphName, strIndicatorName, EIIGT_WITHOUT_DEFAULT);

  0033c	8b 8e 40 03 00
	00		 mov	 ecx, DWORD PTR [esi+832]
  00342	6a 00		 push	 0
  00344	ff 75 08	 push	 DWORD PTR _strIndicatorName$11[ebp]
  00347	89 45 1c	 mov	 DWORD PTR _pMainIndiInfo$1$[ebp], eax
  0034a	ff 75 0c	 push	 DWORD PTR _strPairGraphName$13[ebp]
  0034d	6a 03		 push	 3
  0034f	ff d7		 call	 edi
  00351	8b f8		 mov	 edi, eax

; 163  : 			if( !pMainIndiInfo || !pPairIndiInfo) continue;

  00353	8b 45 1c	 mov	 eax, DWORD PTR _pMainIndiInfo$1$[ebp]
  00356	85 c0		 test	 eax, eax
  00358	74 67		 je	 SHORT $LN14@AddGraph
  0035a	85 ff		 test	 edi, edi
  0035c	74 63		 je	 SHORT $LN14@AddGraph

; 164  : 			pPairIndiInfo->GetCopyDataFrom( pMainIndiInfo, FALSE);

  0035e	6a 00		 push	 0
  00360	50		 push	 eax
  00361	8b cf		 mov	 ecx, edi
  00363	ff 15 00 00 00
	00		 call	 DWORD PTR __imp_?GetCopyDataFrom@CIndicatorInfo@@QAE_NPBV1@H@Z

; 165  : 			if( strIndicatorName == _MTEXT( C2_PRICE_CHART))

  00369	a1 54 00 00 00	 mov	 eax, DWORD PTR ?g_iMetaTable@@3VIMetaTable@@A+84
; File C:\Program Files (x86)\Microsoft Visual Studio\2019\Community\VC\Tools\MSVC\14.29.30133\atlmfc\include\cstringt.h

; 2486 : 		return(str1.Compare(psz2) == 0);

  0036e	8d 4d 08	 lea	 ecx, DWORD PTR _strIndicatorName$11[ebp]
  00371	ff b0 28 03 00
	00		 push	 DWORD PTR [eax+808]
  00377	ff 15 00 00 00
	00		 call	 DWORD PTR __imp_?Compare@?$CStringT@DV?$StrTraitMFC_DLL@DV?$ChTraitsCRT@D@ATL@@@@@ATL@@QBEHPBD@Z
  0037d	85 c0		 test	 eax, eax
; File D:\git\src\IBK\IBK_DRFN\ProjSrc\SrcChartEx\ChartOCX\KTBChart\KTBChartDLL.cpp

; 165  : 			if( strIndicatorName == _MTEXT( C2_PRICE_CHART))

  0037f	75 40		 jne	 SHORT $LN14@AddGraph

; 166  : 			{
; 167  : 				CGraphColor graphColor = pPairIndiInfo->GetSubGraphColor( 0);

  00381	50		 push	 eax
  00382	8d 85 78 ff ff
	ff		 lea	 eax, DWORD PTR _graphColor$2[ebp]
  00388	8b cf		 mov	 ecx, edi
  0038a	50		 push	 eax
  0038b	ff 15 00 00 00
	00		 call	 DWORD PTR __imp_?GetSubGraphColor@CIndicatorInfo@@QBE?AVCGraphColor@@H@Z

; 168  : 				graphColor.SetColor1( graphColor.GetColor4());

  00391	8d 8d 78 ff ff
	ff		 lea	 ecx, DWORD PTR _graphColor$2[ebp]
  00397	ff 15 00 00 00
	00		 call	 DWORD PTR __imp_?GetColor4@CGraphColor@@QBEKXZ
  0039d	89 45 e4	 mov	 DWORD PTR $T7[ebp], eax
  003a0	8d 8d 78 ff ff
	ff		 lea	 ecx, DWORD PTR _graphColor$2[ebp]
  003a6	8d 45 e4	 lea	 eax, DWORD PTR $T7[ebp]
  003a9	50		 push	 eax
  003aa	ff 15 00 00 00
	00		 call	 DWORD PTR __imp_?SetColor1@CGraphColor@@QAEXABK@Z

; 169  : 				pPairIndiInfo->SetSubGraphColor( 0, graphColor);

  003b0	8d 85 78 ff ff
	ff		 lea	 eax, DWORD PTR _graphColor$2[ebp]
  003b6	8b cf		 mov	 ecx, edi
  003b8	50		 push	 eax
  003b9	6a 00		 push	 0
  003bb	ff 15 00 00 00
	00		 call	 DWORD PTR __imp_?SetSubGraphColor@CIndicatorInfo@@QAE_NHABVCGraphColor@@@Z
$LN14@AddGraph:

; 150  : 		while( psnIndicator && psnGraph)

  003c1	8b 7d e0	 mov	 edi, DWORD PTR _psnGraph$1$[ebp]
  003c4	85 db		 test	 ebx, ebx
  003c6	0f 85 b4 fe ff
	ff		 jne	 $LL2@AddGraph
$LN3@AddGraph:

; 170  : 			}
; 171  : 		}
; 172  : 
; 173  : 		m_pMainBlock->ChangeAllGraphDataFromIndicatorInfo( TRUE);

  003cc	8b 8e 34 03 00
	00		 mov	 ecx, DWORD PTR [esi+820]
  003d2	6a 01		 push	 1
  003d4	8b 01		 mov	 eax, DWORD PTR [ecx]
  003d6	ff 90 90 00 00
	00		 call	 DWORD PTR [eax+144]

; 174  : 	}

  003dc	8d 4d 0c	 lea	 ecx, DWORD PTR _strPairGraphName$13[ebp]
  003df	ff 15 00 00 00
	00		 call	 DWORD PTR __imp_??1?$CStringT@DV?$StrTraitMFC_DLL@DV?$ChTraitsCRT@D@ATL@@@@@ATL@@QAE@XZ
  003e5	8d 4d 10	 lea	 ecx, DWORD PTR _strGraphName$14[ebp]
  003e8	ff 15 00 00 00
	00		 call	 DWORD PTR __imp_??1?$CStringT@DV?$StrTraitMFC_DLL@DV?$ChTraitsCRT@D@ATL@@@@@ATL@@QAE@XZ
  003ee	8d 4d 08	 lea	 ecx, DWORD PTR _strIndicatorName$11[ebp]
  003f1	ff 15 00 00 00
	00		 call	 DWORD PTR __imp_??1?$CStringT@DV?$StrTraitMFC_DLL@DV?$ChTraitsCRT@D@ATL@@@@@ATL@@QAE@XZ
  003f7	8d 4d 20	 lea	 ecx, DWORD PTR _strMainRQ$17[ebp]
  003fa	ff 15 00 00 00
	00		 call	 DWORD PTR __imp_??1?$CStringT@DV?$StrTraitMFC_DLL@DV?$ChTraitsCRT@D@ATL@@@@@ATL@@QAE@XZ
  00400	8d 4d c0	 lea	 ecx, DWORD PTR _strGraphNameList$4[ebp]
  00403	e8 00 00 00 00	 call	 ??1?$CList@V?$CStringT@DV?$StrTraitMFC_DLL@DV?$ChTraitsCRT@D@ATL@@@@@ATL@@V12@@@UAE@XZ ; CList<ATL::CStringT<char,StrTraitMFC_DLL<char,ATL::ChTraitsCRT<char> > >,ATL::CStringT<char,StrTraitMFC_DLL<char,ATL::ChTraitsCRT<char> > > >::~CList<ATL::CStringT<char,StrTraitMFC_DLL<char,ATL::ChTraitsCRT<char> > >,ATL::CStringT<char,StrTraitMFC_DLL<char,ATL::ChTraitsCRT<char> > > >
  00408	8d 4d a4	 lea	 ecx, DWORD PTR _strIndicatorNameList$3[ebp]
  0040b	c6 45 fc 01	 mov	 BYTE PTR __$EHRec$[ebp+8], 1
  0040f	e8 00 00 00 00	 call	 ??1?$CList@V?$CStringT@DV?$StrTraitMFC_DLL@DV?$ChTraitsCRT@D@ATL@@@@@ATL@@V12@@@UAE@XZ ; CList<ATL::CStringT<char,StrTraitMFC_DLL<char,ATL::ChTraitsCRT<char> > >,ATL::CStringT<char,StrTraitMFC_DLL<char,ATL::ChTraitsCRT<char> > > >::~CList<ATL::CStringT<char,StrTraitMFC_DLL<char,ATL::ChTraitsCRT<char> > >,ATL::CStringT<char,StrTraitMFC_DLL<char,ATL::ChTraitsCRT<char> > > >
$LN9@AddGraph:

; 175  : 
; 176  : 	InvalidateControl();

  00414	6a 01		 push	 1
  00416	6a 00		 push	 0
  00418	8b ce		 mov	 ecx, esi
  0041a	e8 00 00 00 00	 call	 ?InvalidateControl@CKTBChartCtrl@@QAEXPBUtagRECT@@H@Z ; CKTBChartCtrl::InvalidateControl
$LN31@AddGraph:

; 177  : }

  0041f	8d 4d 14	 lea	 ecx, DWORD PTR _strGraphDataForMaking$[ebp]
  00422	ff 15 00 00 00
	00		 call	 DWORD PTR __imp_??1?$CStringT@DV?$StrTraitMFC_DLL@DV?$ChTraitsCRT@D@ATL@@@@@ATL@@QAE@XZ
  00428	8d 4d f0	 lea	 ecx, DWORD PTR _szGraphOption$[ebp]
  0042b	ff 15 00 00 00
	00		 call	 DWORD PTR __imp_??1?$CStringT@DV?$StrTraitMFC_DLL@DV?$ChTraitsCRT@D@ATL@@@@@ATL@@QAE@XZ
$LN1@AddGraph:
  00431	8b 4d f4	 mov	 ecx, DWORD PTR __$EHRec$[ebp]
  00434	64 89 0d 00 00
	00 00		 mov	 DWORD PTR fs:0, ecx
  0043b	59		 pop	 ecx
  0043c	5f		 pop	 edi
  0043d	5e		 pop	 esi
  0043e	5b		 pop	 ebx
  0043f	8b e5		 mov	 esp, ebp
  00441	5d		 pop	 ebp
  00442	c2 1c 00	 ret	 28			; 0000001cH
_TEXT	ENDS
;	COMDAT text$x
text$x	SEGMENT
__unwindfunclet$?AddGraph@CKTBChartCtrl@@IAEXFFFPBDHHH@Z$0:
  00000	8d 4d f0	 lea	 ecx, DWORD PTR _szGraphOption$[ebp]
  00003	ff 25 00 00 00
	00		 jmp	 DWORD PTR __imp_??1?$CStringT@DV?$StrTraitMFC_DLL@DV?$ChTraitsCRT@D@ATL@@@@@ATL@@QAE@XZ
__unwindfunclet$?AddGraph@CKTBChartCtrl@@IAEXFFFPBDHHH@Z$1:
  00009	8d 4d 14	 lea	 ecx, DWORD PTR _strGraphDataForMaking$[ebp]
  0000c	ff 25 00 00 00
	00		 jmp	 DWORD PTR __imp_??1?$CStringT@DV?$StrTraitMFC_DLL@DV?$ChTraitsCRT@D@ATL@@@@@ATL@@QAE@XZ
__unwindfunclet$?AddGraph@CKTBChartCtrl@@IAEXFFFPBDHHH@Z$2:
  00012	8b 45 ec	 mov	 eax, DWORD PTR $T9[ebp]
  00015	83 e0 01	 and	 eax, 1
  00018	0f 84 0d 00 00
	00		 je	 $LN21@AddGraph
  0001e	83 65 ec fe	 and	 DWORD PTR $T9[ebp], -2	; fffffffeH
  00022	8d 4d 08	 lea	 ecx, DWORD PTR $T12[ebp]
  00025	ff 25 00 00 00
	00		 jmp	 DWORD PTR __imp_??1?$CStringT@DV?$StrTraitMFC_DLL@DV?$ChTraitsCRT@D@ATL@@@@@ATL@@QAE@XZ
$LN21@AddGraph:
  0002b	c3		 ret	 0
__unwindfunclet$?AddGraph@CKTBChartCtrl@@IAEXFFFPBDHHH@Z$3:
  0002c	8d 4d a4	 lea	 ecx, DWORD PTR _strIndicatorNameList$3[ebp]
  0002f	e9 00 00 00 00	 jmp	 ??1?$CList@V?$CStringT@DV?$StrTraitMFC_DLL@DV?$ChTraitsCRT@D@ATL@@@@@ATL@@V12@@@UAE@XZ ; CList<ATL::CStringT<char,StrTraitMFC_DLL<char,ATL::ChTraitsCRT<char> > >,ATL::CStringT<char,StrTraitMFC_DLL<char,ATL::ChTraitsCRT<char> > > >::~CList<ATL::CStringT<char,StrTraitMFC_DLL<char,ATL::ChTraitsCRT<char> > >,ATL::CStringT<char,StrTraitMFC_DLL<char,ATL::ChTraitsCRT<char> > > >
__unwindfunclet$?AddGraph@CKTBChartCtrl@@IAEXFFFPBDHHH@Z$4:
  00034	8d 4d c0	 lea	 ecx, DWORD PTR _strGraphNameList$4[ebp]
  00037	e9 00 00 00 00	 jmp	 ??1?$CList@V?$CStringT@DV?$StrTraitMFC_DLL@DV?$ChTraitsCRT@D@ATL@@@@@ATL@@V12@@@UAE@XZ ; CList<ATL::CStringT<char,StrTraitMFC_DLL<char,ATL::ChTraitsCRT<char> > >,ATL::CStringT<char,StrTraitMFC_DLL<char,ATL::ChTraitsCRT<char> > > >::~CList<ATL::CStringT<char,StrTraitMFC_DLL<char,ATL::ChTraitsCRT<char> > >,ATL::CStringT<char,StrTraitMFC_DLL<char,ATL::ChTraitsCRT<char> > > >
__unwindfunclet$?AddGraph@CKTBChartCtrl@@IAEXFFFPBDHHH@Z$5:
  0003c	8d 4d 20	 lea	 ecx, DWORD PTR _strMainRQ$17[ebp]
  0003f	ff 25 00 00 00
	00		 jmp	 DWORD PTR __imp_??1?$CStringT@DV?$StrTraitMFC_DLL@DV?$ChTraitsCRT@D@ATL@@@@@ATL@@QAE@XZ
__unwindfunclet$?AddGraph@CKTBChartCtrl@@IAEXFFFPBDHHH@Z$6:
  00045	8d 4d 08	 lea	 ecx, DWORD PTR _strIndicatorName$11[ebp]
  00048	ff 25 00 00 00
	00		 jmp	 DWORD PTR __imp_??1?$CStringT@DV?$StrTraitMFC_DLL@DV?$ChTraitsCRT@D@ATL@@@@@ATL@@QAE@XZ
__unwindfunclet$?AddGraph@CKTBChartCtrl@@IAEXFFFPBDHHH@Z$7:
  0004e	8d 4d 10	 lea	 ecx, DWORD PTR _strGraphName$14[ebp]
  00051	ff 25 00 00 00
	00		 jmp	 DWORD PTR __imp_??1?$CStringT@DV?$StrTraitMFC_DLL@DV?$ChTraitsCRT@D@ATL@@@@@ATL@@QAE@XZ
__unwindfunclet$?AddGraph@CKTBChartCtrl@@IAEXFFFPBDHHH@Z$8:
  00057	8d 4d 0c	 lea	 ecx, DWORD PTR _strPairGraphName$13[ebp]
  0005a	ff 25 00 00 00
	00		 jmp	 DWORD PTR __imp_??1?$CStringT@DV?$StrTraitMFC_DLL@DV?$ChTraitsCRT@D@ATL@@@@@ATL@@QAE@XZ
  00060	cc		 int	 3
  00061	cc		 int	 3
  00062	cc		 int	 3
  00063	cc		 int	 3
  00064	cc		 int	 3
__ehhandler$?AddGraph@CKTBChartCtrl@@IAEXFFFPBDHHH@Z:
  00065	90		 npad	 1
  00066	90		 npad	 1
  00067	8b 54 24 08	 mov	 edx, DWORD PTR [esp+8]
  0006b	8d 42 0c	 lea	 eax, DWORD PTR [edx+12]
  0006e	8b 8a 74 ff ff
	ff		 mov	 ecx, DWORD PTR [edx-140]
  00074	33 c8		 xor	 ecx, eax
  00076	e8 00 00 00 00	 call	 @__security_check_cookie@4
  0007b	b8 00 00 00 00	 mov	 eax, OFFSET __ehfuncinfo$?AddGraph@CKTBChartCtrl@@IAEXFFFPBDHHH@Z
  00080	e9 00 00 00 00	 jmp	 ___CxxFrameHandler3
text$x	ENDS
?AddGraph@CKTBChartCtrl@@IAEXFFFPBDHHH@Z ENDP		; CKTBChartCtrl::AddGraph
; Function compile flags: /Ogtp
; File D:\git\src\IBK\IBK_DRFN\ProjSrc\SrcChartEx\ChartOCX\KTBChart\KTBChartDLL.cpp
; File C:\Program Files (x86)\Microsoft Visual Studio\2019\Community\VC\Tools\MSVC\14.29.30133\atlmfc\include\cstringt.h
; File D:\git\src\IBK\IBK_DRFN\ProjSrc\SrcChartEx\ChartOCX\KTBChart\KTBChartDLL.cpp
; File C:\Program Files (x86)\Microsoft Visual Studio\2019\Community\VC\Tools\MSVC\14.29.30133\atlmfc\include\cstringt.h
; File D:\git\src\IBK\IBK_DRFN\ProjSrc\SrcChartEx\ChartOCX\KTBChart\KTBChartDLL.cpp
; File C:\Program Files (x86)\Microsoft Visual Studio\2019\Community\VC\Tools\MSVC\14.29.30133\atlmfc\include\cstringt.h
; File C:\Program Files (x86)\Microsoft Visual Studio\2019\Community\VC\Tools\MSVC\14.29.30133\atlmfc\include\atlsimpstr.h
; File C:\Program Files (x86)\Microsoft Visual Studio\2019\Community\VC\Tools\MSVC\14.29.30133\atlmfc\include\cstringt.h
; File D:\git\src\IBK\IBK_DRFN\ProjSrc\SrcChartEx\ChartOCX\KTBChart\KTBChartDLL.cpp
; File C:\Program Files (x86)\Microsoft Visual Studio\2019\Community\VC\Tools\MSVC\14.29.30133\atlmfc\include\afxtempl.h
; File D:\git\src\IBK\IBK_DRFN\ProjSrc\SrcChartEx\ChartOCX\KTBChart\KTBChartDLL.cpp
; File C:\Program Files (x86)\Microsoft Visual Studio\2019\Community\VC\Tools\MSVC\14.29.30133\atlmfc\include\afxtempl.h
; File D:\git\src\IBK\IBK_DRFN\ProjSrc\SrcChartEx\ChartOCX\KTBChart\KTBChartDLL.cpp
;	COMDAT ?GetIndicatorNameList@CKTBChartCtrl@@IAEPA_WPBD@Z
_TEXT	SEGMENT
$T2 = -32						; size = 4
_posIndicatorGroup$ = -28				; size = 4
$T3 = -24						; size = 4
_p_strGroup$ = -20					; size = 4
_strIndicatorGroupName$4 = -16				; size = 4
__$EHRec$ = -12						; size = 12
_strResult$ = 8						; size = 4
_p_strGroup2$ = 8					; size = 4
?GetIndicatorNameList@CKTBChartCtrl@@IAEPA_WPBD@Z PROC	; CKTBChartCtrl::GetIndicatorNameList, COMDAT
; _this$ = ecx

; 68   : {

  00000	55		 push	 ebp
  00001	8b ec		 mov	 ebp, esp
  00003	6a ff		 push	 -1
  00005	68 00 00 00 00	 push	 __ehhandler$?GetIndicatorNameList@CKTBChartCtrl@@IAEPA_WPBD@Z
  0000a	64 a1 00 00 00
	00		 mov	 eax, DWORD PTR fs:0
  00010	50		 push	 eax
  00011	83 ec 14	 sub	 esp, 20			; 00000014H
  00014	53		 push	 ebx
  00015	56		 push	 esi
  00016	57		 push	 edi
  00017	a1 00 00 00 00	 mov	 eax, DWORD PTR ___security_cookie
  0001c	33 c5		 xor	 eax, ebp
  0001e	50		 push	 eax
  0001f	8d 45 f4	 lea	 eax, DWORD PTR __$EHRec$[ebp]
  00022	64 a3 00 00 00
	00		 mov	 DWORD PTR fs:0, eax
  00028	8b f1		 mov	 esi, ecx
  0002a	33 ff		 xor	 edi, edi

; 69   : 	// TODO: Add your dispatch handler code here
; 70   : 	CString p_strGroup = _STOM7( p_strGroup2);

  0002c	b9 00 00 00 00	 mov	 ecx, OFFSET ?g_iMetaTable@@3VIMetaTable@@A ; g_iMetaTable
  00031	57		 push	 edi
  00032	89 7d e0	 mov	 DWORD PTR $T2[ebp], edi
  00035	ff 75 08	 push	 DWORD PTR _p_strGroup2$[ebp]
  00038	6a 07		 push	 7
  0003a	ff b6 c0 05 00
	00		 push	 DWORD PTR [esi+1472]
  00040	e8 00 00 00 00	 call	 ?GetMetaTextForScript@IMetaTable@@QAEPBDPAUHWND__@@W4E_CODEPAGE@1@PBDH@Z ; IMetaTable::GetMetaTextForScript
  00045	50		 push	 eax
  00046	8d 4d ec	 lea	 ecx, DWORD PTR _p_strGroup$[ebp]
  00049	ff 15 00 00 00
	00		 call	 DWORD PTR __imp_??0?$CStringT@DV?$StrTraitMFC_DLL@DV?$ChTraitsCRT@D@ATL@@@@@ATL@@QAE@PBD@Z

; 71   : 	CString strResult;

  0004f	8d 4d 08	 lea	 ecx, DWORD PTR _strResult$[ebp]
  00052	89 7d fc	 mov	 DWORD PTR __$EHRec$[ebp+8], edi
  00055	ff 15 00 00 00
	00		 call	 DWORD PTR __imp_??0?$CStringT@DV?$StrTraitMFC_DLL@DV?$ChTraitsCRT@D@ATL@@@@@ATL@@QAE@XZ

; 72   : 
; 73   : 	// 0.  Indicator List DLL Loading .
; 74   : 	if( !m_pIndicatorList) return strResult.AllocSysString();

  0005b	8b 8e 40 03 00
	00		 mov	 ecx, DWORD PTR [esi+832]
  00061	c6 45 fc 01	 mov	 BYTE PTR __$EHRec$[ebp+8], 1
  00065	85 c9		 test	 ecx, ecx
  00067	0f 84 29 01 00
	00		 je	 $LN3@GetIndicat

; 75   : 
; 76   : 	// 1. Indicator Group List .
; 77   : 	CIndicatorGroupDataList *pIndicatorGroupList = m_pIndicatorList->GetAllIndicatorNameWithGroupName();

  0006d	ff 15 00 00 00
	00		 call	 DWORD PTR __imp_?GetAllIndicatorNameWithGroupName@CIndicatorList@@QAEPAVCIndicatorGroupDataList@@XZ
  00073	8b d8		 mov	 ebx, eax

; 78   : 	if( !pIndicatorGroupList) return strResult.AllocSysString();

  00075	85 db		 test	 ebx, ebx
  00077	0f 84 19 01 00
	00		 je	 $LN3@GetIndicat

; 79   : 
; 80   : 	// 2.  Indicator Group , Indicator Name .
; 81   : 	POSITION posIndicatorGroup = pIndicatorGroupList->GetHeadPosition();

  0007d	8b cb		 mov	 ecx, ebx
  0007f	ff 15 00 00 00
	00		 call	 DWORD PTR __imp_?GetHeadPosition@CIndicatorGroupDataList@@QAEPAU__POSITION@@XZ
  00085	89 45 e4	 mov	 DWORD PTR _posIndicatorGroup$[ebp], eax

; 82   : 	while( posIndicatorGroup)

  00088	85 c0		 test	 eax, eax
  0008a	0f 84 06 01 00
	00		 je	 $LN3@GetIndicat
$LL2@GetIndicat:

; 83   : 	{
; 84   : 		// 2.1  Indicator Group Name .
; 85   : 		CIndicatorGroupData *pIndicatorGroup = pIndicatorGroupList->GetNext( posIndicatorGroup);

  00090	8d 45 e4	 lea	 eax, DWORD PTR _posIndicatorGroup$[ebp]
  00093	8b cb		 mov	 ecx, ebx
  00095	50		 push	 eax
  00096	ff 15 00 00 00
	00		 call	 DWORD PTR __imp_?GetNext@CIndicatorGroupDataList@@QAEPAVCIndicatorGroupData@@AAPAU__POSITION@@@Z
  0009c	8b f0		 mov	 esi, eax

; 86   : 		CString strIndicatorGroupName = pIndicatorGroup->GetGroupName();

  0009e	8d 45 f0	 lea	 eax, DWORD PTR _strIndicatorGroupName$4[ebp]
  000a1	50		 push	 eax
  000a2	8b ce		 mov	 ecx, esi
  000a4	ff 15 00 00 00
	00		 call	 DWORD PTR __imp_?GetGroupName@CIndicatorGroupData@@QBE?AV?$CStringT@DV?$StrTraitMFC_DLL@DV?$ChTraitsCRT@D@ATL@@@@@ATL@@XZ

; 89   : 		if( !p_strGroup || !*p_strGroup || strIndicatorGroupName == p_strGroup)

  000aa	8b 4d ec	 mov	 ecx, DWORD PTR _p_strGroup$[ebp]
  000ad	c6 45 fc 02	 mov	 BYTE PTR __$EHRec$[ebp+8], 2
  000b1	85 c9		 test	 ecx, ecx
  000b3	74 23		 je	 SHORT $LN11@GetIndicat
  000b5	80 39 00	 cmp	 BYTE PTR [ecx], 0
  000b8	74 15		 je	 SHORT $LN9@GetIndicat
; File C:\Program Files (x86)\Microsoft Visual Studio\2019\Community\VC\Tools\MSVC\14.29.30133\atlmfc\include\cstringt.h

; 2479 : 		return(str1.Compare(str2) == 0);

  000ba	51		 push	 ecx
  000bb	8d 4d f0	 lea	 ecx, DWORD PTR _strIndicatorGroupName$4[ebp]
  000be	ff 15 00 00 00
	00		 call	 DWORD PTR __imp_?Compare@?$CStringT@DV?$StrTraitMFC_DLL@DV?$ChTraitsCRT@D@ATL@@@@@ATL@@QBEHPBD@Z
  000c4	85 c0		 test	 eax, eax
; File D:\git\src\IBK\IBK_DRFN\ProjSrc\SrcChartEx\ChartOCX\KTBChart\KTBChartDLL.cpp

; 89   : 		if( !p_strGroup || !*p_strGroup || strIndicatorGroupName == p_strGroup)

  000c6	0f 85 b3 00 00
	00		 jne	 $LN13@GetIndicat
  000cc	8b 4d ec	 mov	 ecx, DWORD PTR _p_strGroup$[ebp]
$LN9@GetIndicat:

; 93   : 			if( !p_strGroup || !*p_strGroup) strResult += strIndicatorGroupName + ":";

  000cf	85 c9		 test	 ecx, ecx
  000d1	74 05		 je	 SHORT $LN11@GetIndicat
  000d3	80 39 00	 cmp	 BYTE PTR [ecx], 0
  000d6	75 55		 jne	 SHORT $LN10@GetIndicat
$LN11@GetIndicat:
; File C:\Program Files (x86)\Microsoft Visual Studio\2019\Community\VC\Tools\MSVC\14.29.30133\atlmfc\include\cstringt.h

; 2401 : 		CStringT strResult( str1.GetManager() );

  000d8	8d 4d f0	 lea	 ecx, DWORD PTR _strIndicatorGroupName$4[ebp]
; File D:\git\src\IBK\IBK_DRFN\ProjSrc\SrcChartEx\ChartOCX\KTBChart\KTBChartDLL.cpp

; 93   : 			if( !p_strGroup || !*p_strGroup) strResult += strIndicatorGroupName + ":";

  000db	c6 45 fc 03	 mov	 BYTE PTR __$EHRec$[ebp+8], 3
; File C:\Program Files (x86)\Microsoft Visual Studio\2019\Community\VC\Tools\MSVC\14.29.30133\atlmfc\include\cstringt.h

; 2401 : 		CStringT strResult( str1.GetManager() );

  000df	ff 15 00 00 00
	00		 call	 DWORD PTR __imp_?GetManager@?$CStringT@DV?$StrTraitMFC_DLL@DV?$ChTraitsCRT@D@ATL@@@@@ATL@@QBEPAUIAtlStringMgr@2@XZ
  000e5	50		 push	 eax
  000e6	8d 4d e8	 lea	 ecx, DWORD PTR $T3[ebp]
  000e9	ff 15 00 00 00
	00		 call	 DWORD PTR __imp_??0?$CStringT@DV?$StrTraitMFC_DLL@DV?$ChTraitsCRT@D@ATL@@@@@ATL@@QAE@PAUIAtlStringMgr@1@@Z
; File C:\Program Files (x86)\Microsoft Visual Studio\2019\Community\VC\Tools\MSVC\14.29.30133\atlmfc\include\atlsimpstr.h

; 519  : 		return( GetData()->nDataLength );

  000ef	8b 45 f0	 mov	 eax, DWORD PTR _strIndicatorGroupName$4[ebp]
; File C:\Program Files (x86)\Microsoft Visual Studio\2019\Community\VC\Tools\MSVC\14.29.30133\atlmfc\include\cstringt.h

; 2405 : 		return( strResult );

  000f2	83 cf 01	 or	 edi, 1
  000f5	6a 01		 push	 1
  000f7	68 00 00 00 00	 push	 OFFSET ??_C@_01JLIPDDHJ@?3@
  000fc	89 7d e0	 mov	 DWORD PTR $T2[ebp], edi
  000ff	ff 70 f4	 push	 DWORD PTR [eax-12]
  00102	50		 push	 eax
  00103	8d 45 e8	 lea	 eax, DWORD PTR $T3[ebp]
  00106	50		 push	 eax
  00107	ff 15 00 00 00
	00		 call	 DWORD PTR __imp_?Concatenate@?$CSimpleStringT@D$00@ATL@@KAXAAV12@PBDH1H@Z
  0010d	83 c4 14	 add	 esp, 20			; 00000014H
; File D:\git\src\IBK\IBK_DRFN\ProjSrc\SrcChartEx\ChartOCX\KTBChart\KTBChartDLL.cpp

; 93   : 			if( !p_strGroup || !*p_strGroup) strResult += strIndicatorGroupName + ":";

  00110	8d 45 e8	 lea	 eax, DWORD PTR $T3[ebp]
  00113	8d 4d 08	 lea	 ecx, DWORD PTR _strResult$[ebp]
  00116	50		 push	 eax
  00117	ff 15 00 00 00
	00		 call	 DWORD PTR __imp_??Y?$CStringT@DV?$StrTraitMFC_DLL@DV?$ChTraitsCRT@D@ATL@@@@@ATL@@QAEAAV01@ABV?$CSimpleStringT@D$00@1@@Z
  0011d	8d 4d e8	 lea	 ecx, DWORD PTR $T3[ebp]
  00120	c6 45 fc 02	 mov	 BYTE PTR __$EHRec$[ebp+8], 2
  00124	83 e7 fe	 and	 edi, -2			; fffffffeH
  00127	ff 15 00 00 00
	00		 call	 DWORD PTR __imp_??1?$CStringT@DV?$StrTraitMFC_DLL@DV?$ChTraitsCRT@D@ATL@@@@@ATL@@QAE@XZ
$LN10@GetIndicat:

; 94   : 
; 95   : 			CList< CString, CString> *pGraphNameList = pIndicatorGroup->GetIndicatorNameList();

  0012d	8b ce		 mov	 ecx, esi
  0012f	ff 15 00 00 00
	00		 call	 DWORD PTR __imp_?GetIndicatorNameList@CIndicatorGroupData@@QAEPAV?$CList@V?$CStringT@DV?$StrTraitMFC_DLL@DV?$ChTraitsCRT@D@ATL@@@@@ATL@@V12@@@XZ

; 96   : 			POSITION posGraphName = pGraphNameList->GetHeadPosition();

  00135	8b 70 04	 mov	 esi, DWORD PTR [eax+4]

; 97   : 			while( posGraphName)

  00138	85 f6		 test	 esi, esi
  0013a	74 29		 je	 SHORT $LN60@GetIndicat
  0013c	0f 1f 40 00	 npad	 4
$LL4@GetIndicat:
; File C:\Program Files (x86)\Microsoft Visual Studio\2019\Community\VC\Tools\MSVC\14.29.30133\atlmfc\include\afxtempl.h

; 811  : 	{ CNode* pNode = (CNode*) rPosition;

  00140	8b c6		 mov	 eax, esi
; File D:\git\src\IBK\IBK_DRFN\ProjSrc\SrcChartEx\ChartOCX\KTBChart\KTBChartDLL.cpp

; 99   : 				strResult += pGraphNameList->GetNext( posGraphName);

  00142	8d 4d 08	 lea	 ecx, DWORD PTR _strResult$[ebp]
; File C:\Program Files (x86)\Microsoft Visual Studio\2019\Community\VC\Tools\MSVC\14.29.30133\atlmfc\include\afxtempl.h

; 813  : 		rPosition = (POSITION) pNode->pNext;

  00145	8b 36		 mov	 esi, DWORD PTR [esi]

; 814  : 		return pNode->data; }

  00147	83 c0 08	 add	 eax, 8
; File D:\git\src\IBK\IBK_DRFN\ProjSrc\SrcChartEx\ChartOCX\KTBChart\KTBChartDLL.cpp

; 99   : 				strResult += pGraphNameList->GetNext( posGraphName);

  0014a	50		 push	 eax
  0014b	ff 15 00 00 00
	00		 call	 DWORD PTR __imp_??Y?$CStringT@DV?$StrTraitMFC_DLL@DV?$ChTraitsCRT@D@ATL@@@@@ATL@@QAEAAV01@ABV?$CSimpleStringT@D$00@1@@Z

; 100  : 				if( posGraphName) strResult += ",";

  00151	85 f6		 test	 esi, esi
  00153	74 10		 je	 SHORT $LN60@GetIndicat
  00155	68 00 00 00 00	 push	 OFFSET ??_C@_01IHBHIGKO@?0@
  0015a	8d 4d 08	 lea	 ecx, DWORD PTR _strResult$[ebp]
  0015d	ff 15 00 00 00
	00		 call	 DWORD PTR __imp_??Y?$CStringT@DV?$StrTraitMFC_DLL@DV?$ChTraitsCRT@D@ATL@@@@@ATL@@QAEAAV01@PBD@Z
  00163	eb db		 jmp	 SHORT $LL4@GetIndicat
$LN60@GetIndicat:

; 101  : 			}
; 102  : 
; 103  : 			// 2.2.1  Indicator Group   (  )
; 104  : 			//		 Indcator Group    .
; 105  : 			if( !p_strGroup || !*p_strGroup) strResult += "\r\n";

  00165	8b 45 ec	 mov	 eax, DWORD PTR _p_strGroup$[ebp]
  00168	85 c0		 test	 eax, eax
  0016a	74 05		 je	 SHORT $LN14@GetIndicat
  0016c	80 38 00	 cmp	 BYTE PTR [eax], 0
  0016f	75 0e		 jne	 SHORT $LN13@GetIndicat
$LN14@GetIndicat:
  00171	68 00 00 00 00	 push	 OFFSET ??_C@_02PCIJFNDE@?$AN?6@
  00176	8d 4d 08	 lea	 ecx, DWORD PTR _strResult$[ebp]
  00179	ff 15 00 00 00
	00		 call	 DWORD PTR __imp_??Y?$CStringT@DV?$StrTraitMFC_DLL@DV?$ChTraitsCRT@D@ATL@@@@@ATL@@QAEAAV01@PBD@Z
$LN13@GetIndicat:

; 106  : 		}
; 107  : 	}

  0017f	8d 4d f0	 lea	 ecx, DWORD PTR _strIndicatorGroupName$4[ebp]
  00182	c6 45 fc 01	 mov	 BYTE PTR __$EHRec$[ebp+8], 1
  00186	ff 15 00 00 00
	00		 call	 DWORD PTR __imp_??1?$CStringT@DV?$StrTraitMFC_DLL@DV?$ChTraitsCRT@D@ATL@@@@@ATL@@QAE@XZ
  0018c	83 7d e4 00	 cmp	 DWORD PTR _posIndicatorGroup$[ebp], 0
  00190	0f 85 fa fe ff
	ff		 jne	 $LL2@GetIndicat
$LN3@GetIndicat:

; 108  :  
; 109  : 	return strResult.AllocSysString();

  00196	8d 4d 08	 lea	 ecx, DWORD PTR _strResult$[ebp]
  00199	ff 15 00 00 00
	00		 call	 DWORD PTR __imp_?AllocSysString@?$CStringT@DV?$StrTraitMFC_DLL@DV?$ChTraitsCRT@D@ATL@@@@@ATL@@QBEPA_WXZ
  0019f	8d 4d 08	 lea	 ecx, DWORD PTR _strResult$[ebp]
  001a2	8b f0		 mov	 esi, eax
  001a4	ff 15 00 00 00
	00		 call	 DWORD PTR __imp_??1?$CStringT@DV?$StrTraitMFC_DLL@DV?$ChTraitsCRT@D@ATL@@@@@ATL@@QAE@XZ
  001aa	8d 4d ec	 lea	 ecx, DWORD PTR _p_strGroup$[ebp]
  001ad	ff 15 00 00 00
	00		 call	 DWORD PTR __imp_??1?$CStringT@DV?$StrTraitMFC_DLL@DV?$ChTraitsCRT@D@ATL@@@@@ATL@@QAE@XZ
  001b3	8b c6		 mov	 eax, esi

; 110  : }

  001b5	8b 4d f4	 mov	 ecx, DWORD PTR __$EHRec$[ebp]
  001b8	64 89 0d 00 00
	00 00		 mov	 DWORD PTR fs:0, ecx
  001bf	59		 pop	 ecx
  001c0	5f		 pop	 edi
  001c1	5e		 pop	 esi
  001c2	5b		 pop	 ebx
  001c3	8b e5		 mov	 esp, ebp
  001c5	5d		 pop	 ebp
  001c6	c2 04 00	 ret	 4
_TEXT	ENDS
;	COMDAT text$x
text$x	SEGMENT
__unwindfunclet$?GetIndicatorNameList@CKTBChartCtrl@@IAEPA_WPBD@Z$0:
  00000	8d 4d ec	 lea	 ecx, DWORD PTR _p_strGroup$[ebp]
  00003	ff 25 00 00 00
	00		 jmp	 DWORD PTR __imp_??1?$CStringT@DV?$StrTraitMFC_DLL@DV?$ChTraitsCRT@D@ATL@@@@@ATL@@QAE@XZ
__unwindfunclet$?GetIndicatorNameList@CKTBChartCtrl@@IAEPA_WPBD@Z$1:
  00009	8d 4d 08	 lea	 ecx, DWORD PTR _strResult$[ebp]
  0000c	ff 25 00 00 00
	00		 jmp	 DWORD PTR __imp_??1?$CStringT@DV?$StrTraitMFC_DLL@DV?$ChTraitsCRT@D@ATL@@@@@ATL@@QAE@XZ
__unwindfunclet$?GetIndicatorNameList@CKTBChartCtrl@@IAEPA_WPBD@Z$2:
  00012	8d 4d f0	 lea	 ecx, DWORD PTR _strIndicatorGroupName$4[ebp]
  00015	ff 25 00 00 00
	00		 jmp	 DWORD PTR __imp_??1?$CStringT@DV?$StrTraitMFC_DLL@DV?$ChTraitsCRT@D@ATL@@@@@ATL@@QAE@XZ
__unwindfunclet$?GetIndicatorNameList@CKTBChartCtrl@@IAEPA_WPBD@Z$4:
  0001b	8b 45 e0	 mov	 eax, DWORD PTR $T2[ebp]
  0001e	83 e0 01	 and	 eax, 1
  00021	0f 84 0d 00 00
	00		 je	 $LN37@GetIndicat
  00027	83 65 e0 fe	 and	 DWORD PTR $T2[ebp], -2	; fffffffeH
  0002b	8d 4d e8	 lea	 ecx, DWORD PTR $T3[ebp]
  0002e	ff 25 00 00 00
	00		 jmp	 DWORD PTR __imp_??1?$CStringT@DV?$StrTraitMFC_DLL@DV?$ChTraitsCRT@D@ATL@@@@@ATL@@QAE@XZ
$LN37@GetIndicat:
  00034	c3		 ret	 0
  00035	cc		 int	 3
  00036	cc		 int	 3
  00037	cc		 int	 3
  00038	cc		 int	 3
  00039	cc		 int	 3
__ehhandler$?GetIndicatorNameList@CKTBChartCtrl@@IAEPA_WPBD@Z:
  0003a	90		 npad	 1
  0003b	90		 npad	 1
  0003c	8b 54 24 08	 mov	 edx, DWORD PTR [esp+8]
  00040	8d 42 0c	 lea	 eax, DWORD PTR [edx+12]
  00043	8b 4a dc	 mov	 ecx, DWORD PTR [edx-36]
  00046	33 c8		 xor	 ecx, eax
  00048	e8 00 00 00 00	 call	 @__security_check_cookie@4
  0004d	b8 00 00 00 00	 mov	 eax, OFFSET __ehfuncinfo$?GetIndicatorNameList@CKTBChartCtrl@@IAEPA_WPBD@Z
  00052	e9 00 00 00 00	 jmp	 ___CxxFrameHandler3
text$x	ENDS
?GetIndicatorNameList@CKTBChartCtrl@@IAEPA_WPBD@Z ENDP	; CKTBChartCtrl::GetIndicatorNameList
; Function compile flags: /Ogtp
; File D:\git\src\IBK\IBK_DRFN\ProjSrc\SrcChartEx\ChartOCX\KTBChart\KTBChartDLL.cpp
; File D:\git\src\IBK\IBK_DRFN\ProjSrc\SrcChartEx\ChartOCX\Include_Chart\BlockBaseData.h
; File D:\git\src\IBK\IBK_DRFN\ProjSrc\SrcChartEx\ChartOCX\KTBChart\KTBChartDLL.cpp
; File D:\git\src\IBK\IBK_DRFN\ProjSrc\SrcChartEx\ChartOCX\Include_Chart\BlockBaseData.h
; File D:\git\src\IBK\IBK_DRFN\ProjSrc\SrcChartEx\ChartOCX\KTBChart\KTBChartDLL.cpp
; File C:\Program Files (x86)\Microsoft Visual Studio\2019\Community\VC\Tools\MSVC\14.29.30133\atlmfc\include\afxwin2.inl
; File D:\git\src\IBK\IBK_DRFN\ProjSrc\SrcChartEx\ChartOCX\KTBChart\KTBChartDLL.cpp
;	COMDAT ?ChangeHorzScalePosition@CKTBChartCtrl@@IAEHFFF@Z
_TEXT	SEGMENT
$T1 = -8						; size = 8
_nScalePosition$ = 8					; size = 2
_nRowIndex$ = 12					; size = 2
_nColumnIndex$ = 16					; size = 2
?ChangeHorzScalePosition@CKTBChartCtrl@@IAEHFFF@Z PROC	; CKTBChartCtrl::ChangeHorzScalePosition, COMDAT
; _this$ = ecx

; 907  : {

  00000	55		 push	 ebp
  00001	8b ec		 mov	 ebp, esp
  00003	83 ec 08	 sub	 esp, 8
  00006	56		 push	 esi
  00007	8b f1		 mov	 esi, ecx

; 908  : 	// TODO: Add your dispatch handler code here
; 909  : 	if(m_pMainBlock == NULL)

  00009	8b 8e 34 03 00
	00		 mov	 ecx, DWORD PTR [esi+820]
  0000f	85 c9		 test	 ecx, ecx
  00011	75 09		 jne	 SHORT $LN2@ChangeHorz

; 910  : 		return FALSE;

  00013	33 c0		 xor	 eax, eax
  00015	5e		 pop	 esi

; 924  : }

  00016	8b e5		 mov	 esp, ebp
  00018	5d		 pop	 ebp
  00019	c2 0c 00	 ret	 12			; 0000000cH
$LN2@ChangeHorz:

; 911  : 
; 912  : 	BOOL bResult = FALSE;
; 913  : 	if( nColumnIndex < 0 || nRowIndex < 0)

  0001c	66 8b 55 10	 mov	 dx, WORD PTR _nColumnIndex$[ebp]
  00020	66 85 d2	 test	 dx, dx
  00023	78 2f		 js	 SHORT $LN5@ChangeHorz
  00025	66 8b 45 0c	 mov	 ax, WORD PTR _nRowIndex$[ebp]
  00029	66 85 c0	 test	 ax, ax
  0002c	78 26		 js	 SHORT $LN5@ChangeHorz

; 919  : 		bResult = m_pMainBlock->SetHorzScalePosition(CBlockIndex(nRowIndex, nColumnIndex), (CScaleBaseData::HORZSCALEPOSITION) nScalePosition);

  0002e	98		 cwde
; File D:\git\src\IBK\IBK_DRFN\ProjSrc\SrcChartEx\ChartOCX\Include_Chart\BlockBaseData.h

; 20   : 	CBlockIndex( const int row, const int column)		{	m_nRow = row;	m_nColumn = column;		}

  0002f	89 45 f8	 mov	 DWORD PTR $T1[ebp], eax
; File D:\git\src\IBK\IBK_DRFN\ProjSrc\SrcChartEx\ChartOCX\KTBChart\KTBChartDLL.cpp

; 919  : 		bResult = m_pMainBlock->SetHorzScalePosition(CBlockIndex(nRowIndex, nColumnIndex), (CScaleBaseData::HORZSCALEPOSITION) nScalePosition);

  00032	0f bf c2	 movsx	 eax, dx
; File D:\git\src\IBK\IBK_DRFN\ProjSrc\SrcChartEx\ChartOCX\Include_Chart\BlockBaseData.h

; 20   : 	CBlockIndex( const int row, const int column)		{	m_nRow = row;	m_nColumn = column;		}

  00035	89 45 fc	 mov	 DWORD PTR $T1[ebp+4], eax
; File D:\git\src\IBK\IBK_DRFN\ProjSrc\SrcChartEx\ChartOCX\KTBChart\KTBChartDLL.cpp

; 919  : 		bResult = m_pMainBlock->SetHorzScalePosition(CBlockIndex(nRowIndex, nColumnIndex), (CScaleBaseData::HORZSCALEPOSITION) nScalePosition);

  00038	0f bf 45 08	 movsx	 eax, WORD PTR _nScalePosition$[ebp]
  0003c	8b 11		 mov	 edx, DWORD PTR [ecx]
  0003e	50		 push	 eax
  0003f	8d 45 f8	 lea	 eax, DWORD PTR $T1[ebp]
  00042	50		 push	 eax
  00043	8b 82 d4 00 00
	00		 mov	 eax, DWORD PTR [edx+212]
  00049	ff d0		 call	 eax
  0004b	0f b6 c0	 movzx	 eax, al

; 920  : 
; 921  : 	if(bResult) Invalidate();

  0004e	85 c0		 test	 eax, eax
  00050	74 1c		 je	 SHORT $LN6@ChangeHorz
  00052	eb 0d		 jmp	 SHORT $LN12@ChangeHorz
$LN5@ChangeHorz:

; 914  : 	{
; 915  : 		m_pMainBlock->SetAllHorzScalePosition((CScaleBaseData::HORZSCALEPOSITION) nScalePosition);

  00054	8b 11		 mov	 edx, DWORD PTR [ecx]
  00056	0f bf 45 08	 movsx	 eax, WORD PTR _nScalePosition$[ebp]
  0005a	50		 push	 eax
  0005b	ff 92 e8 00 00
	00		 call	 DWORD PTR [edx+232]
$LN12@ChangeHorz:
; File C:\Program Files (x86)\Microsoft Visual Studio\2019\Community\VC\Tools\MSVC\14.29.30133\atlmfc\include\afxwin2.inl

; 114  : 	{ ASSERT(::IsWindow(m_hWnd)); ::InvalidateRect(m_hWnd, NULL, bErase); }

  00061	6a 01		 push	 1
  00063	6a 00		 push	 0
  00065	ff 76 20	 push	 DWORD PTR [esi+32]
  00068	ff 15 00 00 00
	00		 call	 DWORD PTR __imp__InvalidateRect@12
$LN6@ChangeHorz:
; File D:\git\src\IBK\IBK_DRFN\ProjSrc\SrcChartEx\ChartOCX\KTBChart\KTBChartDLL.cpp

; 923  : 	return TRUE;

  0006e	b8 01 00 00 00	 mov	 eax, 1
  00073	5e		 pop	 esi

; 924  : }

  00074	8b e5		 mov	 esp, ebp
  00076	5d		 pop	 ebp
  00077	c2 0c 00	 ret	 12			; 0000000cH
?ChangeHorzScalePosition@CKTBChartCtrl@@IAEHFFF@Z ENDP	; CKTBChartCtrl::ChangeHorzScalePosition
_TEXT	ENDS
; Function compile flags: /Ogtp
; File D:\git\src\IBK\IBK_DRFN\ProjSrc\SrcChartEx\ChartOCX\KTBChart\KTBChartDLL.cpp
; File C:\Program Files (x86)\Microsoft Visual Studio\2019\Community\VC\Tools\MSVC\14.29.30133\atlmfc\include\atlsimpstr.h
; File D:\git\src\IBK\IBK_DRFN\ProjSrc\SrcChartEx\ChartOCX\KTBChart\KTBChartDLL.cpp
;	COMDAT ?AddChartBlock@CKTBChartCtrl@@IAEHPBD@Z
_TEXT	SEGMENT
_strChartName$ = -16					; size = 4
__$EHRec$ = -12						; size = 12
_strName$ = 8						; size = 4
_strChartName2$ = 8					; size = 4
?AddChartBlock@CKTBChartCtrl@@IAEHPBD@Z PROC		; CKTBChartCtrl::AddChartBlock, COMDAT
; _this$ = ecx

; 674  : {

  00000	55		 push	 ebp
  00001	8b ec		 mov	 ebp, esp
  00003	6a ff		 push	 -1
  00005	68 00 00 00 00	 push	 __ehhandler$?AddChartBlock@CKTBChartCtrl@@IAEHPBD@Z
  0000a	64 a1 00 00 00
	00		 mov	 eax, DWORD PTR fs:0
  00010	50		 push	 eax
  00011	51		 push	 ecx
  00012	56		 push	 esi
  00013	a1 00 00 00 00	 mov	 eax, DWORD PTR ___security_cookie
  00018	33 c5		 xor	 eax, ebp
  0001a	50		 push	 eax
  0001b	8d 45 f4	 lea	 eax, DWORD PTR __$EHRec$[ebp]
  0001e	64 a3 00 00 00
	00		 mov	 DWORD PTR fs:0, eax
  00024	8b f1		 mov	 esi, ecx

; 675  : 	CString strChartName = _STOM2( strChartName2);	

  00026	6a 00		 push	 0
  00028	ff 75 08	 push	 DWORD PTR _strChartName2$[ebp]
  0002b	b9 00 00 00 00	 mov	 ecx, OFFSET ?g_iMetaTable@@3VIMetaTable@@A ; g_iMetaTable
  00030	6a 02		 push	 2
  00032	ff b6 c0 05 00
	00		 push	 DWORD PTR [esi+1472]
  00038	e8 00 00 00 00	 call	 ?GetMetaTextForScript@IMetaTable@@QAEPBDPAUHWND__@@W4E_CODEPAGE@1@PBDH@Z ; IMetaTable::GetMetaTextForScript
  0003d	50		 push	 eax
  0003e	8d 4d f0	 lea	 ecx, DWORD PTR _strChartName$[ebp]
  00041	ff 15 00 00 00
	00		 call	 DWORD PTR __imp_??0?$CStringT@DV?$StrTraitMFC_DLL@DV?$ChTraitsCRT@D@ATL@@@@@ATL@@QAE@PBD@Z

; 676  : 
; 677  : 	CString strName = strChartName;

  00047	8d 45 f0	 lea	 eax, DWORD PTR _strChartName$[ebp]
  0004a	c7 45 fc 00 00
	00 00		 mov	 DWORD PTR __$EHRec$[ebp+8], 0
  00051	50		 push	 eax
  00052	8d 4d 08	 lea	 ecx, DWORD PTR _strName$[ebp]
  00055	ff 15 00 00 00
	00		 call	 DWORD PTR __imp_??0?$CStringT@DV?$StrTraitMFC_DLL@DV?$ChTraitsCRT@D@ATL@@@@@ATL@@QAE@ABV01@@Z

; 678  : 	strName.TrimLeft();

  0005b	8d 4d 08	 lea	 ecx, DWORD PTR _strName$[ebp]
  0005e	c6 45 fc 01	 mov	 BYTE PTR __$EHRec$[ebp+8], 1
  00062	ff 15 00 00 00
	00		 call	 DWORD PTR __imp_?TrimLeft@?$CStringT@DV?$StrTraitMFC_DLL@DV?$ChTraitsCRT@D@ATL@@@@@ATL@@QAEAAV12@XZ

; 679  : 	strName.TrimRight();

  00068	8d 4d 08	 lea	 ecx, DWORD PTR _strName$[ebp]
  0006b	ff 15 00 00 00
	00		 call	 DWORD PTR __imp_?TrimRight@?$CStringT@DV?$StrTraitMFC_DLL@DV?$ChTraitsCRT@D@ATL@@@@@ATL@@QAEAAV12@XZ
; File C:\Program Files (x86)\Microsoft Visual Studio\2019\Community\VC\Tools\MSVC\14.29.30133\atlmfc\include\atlsimpstr.h

; 533  : 		return( GetLength() == 0 );

  00071	8b 45 08	 mov	 eax, DWORD PTR _strName$[ebp]
  00074	83 78 f4 00	 cmp	 DWORD PTR [eax-12], 0
; File D:\git\src\IBK\IBK_DRFN\ProjSrc\SrcChartEx\ChartOCX\KTBChart\KTBChartDLL.cpp

; 680  : 	if(strName.IsEmpty() || m_pIndicatorList == NULL || m_pMainBlock == NULL)

  00078	74 3e		 je	 SHORT $LN3@AddChartBl
  0007a	83 be 40 03 00
	00 00		 cmp	 DWORD PTR [esi+832], 0
  00081	74 35		 je	 SHORT $LN3@AddChartBl
  00083	83 be 34 03 00
	00 00		 cmp	 DWORD PTR [esi+820], 0
  0008a	74 2c		 je	 SHORT $LN3@AddChartBl

; 681  : 		return FALSE;
; 682  : 
; 683  : 	// 
; 684  : 	if( g_iMetaTable.IsSpecialGroupGraph(strName))

  0008c	50		 push	 eax
  0008d	b9 00 00 00 00	 mov	 ecx, OFFSET ?g_iMetaTable@@3VIMetaTable@@A ; g_iMetaTable
  00092	e8 00 00 00 00	 call	 ?IsSpecialGroupGraph@IMetaTable@@QAE_NPBD@Z ; IMetaTable::IsSpecialGroupGraph
  00097	84 c0		 test	 al, al
  00099	8b ce		 mov	 ecx, esi
  0009b	8d 45 08	 lea	 eax, DWORD PTR _strName$[ebp]
  0009e	74 0b		 je	 SHORT $LN4@AddChartBl

; 685  : 		return AddOrDeleteChart_Special(strName);

  000a0	50		 push	 eax
  000a1	e8 00 00 00 00	 call	 ?AddOrDeleteChart_Special@CKTBChartCtrl@@AAE_NABV?$CStringT@DV?$StrTraitMFC_DLL@DV?$ChTraitsCRT@D@ATL@@@@@ATL@@@Z ; CKTBChartCtrl::AddOrDeleteChart_Special
  000a6	0f b6 f0	 movzx	 esi, al
  000a9	eb 0f		 jmp	 SHORT $LN9@AddChartBl
$LN4@AddChartBl:

; 686  : 
; 687  : 	// 
; 688  : 	return AddOrDeleteChart_Genneral(strName);

  000ab	6a 01		 push	 1
  000ad	50		 push	 eax
  000ae	e8 00 00 00 00	 call	 ?AddOrDeleteChart_Genneral@CKTBChartCtrl@@AAE_NABV?$CStringT@DV?$StrTraitMFC_DLL@DV?$ChTraitsCRT@D@ATL@@@@@ATL@@H@Z ; CKTBChartCtrl::AddOrDeleteChart_Genneral
  000b3	0f b6 f0	 movzx	 esi, al
  000b6	eb 02		 jmp	 SHORT $LN9@AddChartBl
$LN3@AddChartBl:
  000b8	33 f6		 xor	 esi, esi
$LN9@AddChartBl:
  000ba	8d 4d 08	 lea	 ecx, DWORD PTR _strName$[ebp]
  000bd	ff 15 00 00 00
	00		 call	 DWORD PTR __imp_??1?$CStringT@DV?$StrTraitMFC_DLL@DV?$ChTraitsCRT@D@ATL@@@@@ATL@@QAE@XZ
  000c3	8d 4d f0	 lea	 ecx, DWORD PTR _strChartName$[ebp]
  000c6	ff 15 00 00 00
	00		 call	 DWORD PTR __imp_??1?$CStringT@DV?$StrTraitMFC_DLL@DV?$ChTraitsCRT@D@ATL@@@@@ATL@@QAE@XZ
  000cc	8b c6		 mov	 eax, esi

; 689  : }

  000ce	8b 4d f4	 mov	 ecx, DWORD PTR __$EHRec$[ebp]
  000d1	64 89 0d 00 00
	00 00		 mov	 DWORD PTR fs:0, ecx
  000d8	59		 pop	 ecx
  000d9	5e		 pop	 esi
  000da	8b e5		 mov	 esp, ebp
  000dc	5d		 pop	 ebp
  000dd	c2 04 00	 ret	 4
_TEXT	ENDS
;	COMDAT text$x
text$x	SEGMENT
__unwindfunclet$?AddChartBlock@CKTBChartCtrl@@IAEHPBD@Z$0:
  00000	8d 4d f0	 lea	 ecx, DWORD PTR _strChartName$[ebp]
  00003	ff 25 00 00 00
	00		 jmp	 DWORD PTR __imp_??1?$CStringT@DV?$StrTraitMFC_DLL@DV?$ChTraitsCRT@D@ATL@@@@@ATL@@QAE@XZ
__unwindfunclet$?AddChartBlock@CKTBChartCtrl@@IAEHPBD@Z$1:
  00009	8d 4d 08	 lea	 ecx, DWORD PTR _strName$[ebp]
  0000c	ff 25 00 00 00
	00		 jmp	 DWORD PTR __imp_??1?$CStringT@DV?$StrTraitMFC_DLL@DV?$ChTraitsCRT@D@ATL@@@@@ATL@@QAE@XZ
  00012	cc		 int	 3
  00013	cc		 int	 3
  00014	cc		 int	 3
  00015	cc		 int	 3
  00016	cc		 int	 3
__ehhandler$?AddChartBlock@CKTBChartCtrl@@IAEHPBD@Z:
  00017	90		 npad	 1
  00018	90		 npad	 1
  00019	8b 54 24 08	 mov	 edx, DWORD PTR [esp+8]
  0001d	8d 42 0c	 lea	 eax, DWORD PTR [edx+12]
  00020	8b 4a f4	 mov	 ecx, DWORD PTR [edx-12]
  00023	33 c8		 xor	 ecx, eax
  00025	e8 00 00 00 00	 call	 @__security_check_cookie@4
  0002a	b8 00 00 00 00	 mov	 eax, OFFSET __ehfuncinfo$?AddChartBlock@CKTBChartCtrl@@IAEHPBD@Z
  0002f	e9 00 00 00 00	 jmp	 ___CxxFrameHandler3
text$x	ENDS
?AddChartBlock@CKTBChartCtrl@@IAEHPBD@Z ENDP		; CKTBChartCtrl::AddChartBlock
; Function compile flags: /Ogtp
; File D:\git\src\IBK\IBK_DRFN\ProjSrc\SrcChartEx\ChartOCX\KTBChart\KTBChartDLL.cpp
; File C:\Program Files (x86)\Microsoft Visual Studio\2019\Community\VC\Tools\MSVC\14.29.30133\atlmfc\include\atlsimpstr.h
; File D:\git\src\IBK\IBK_DRFN\ProjSrc\SrcChartEx\ChartOCX\KTBChart\KTBChartDLL.cpp
;	COMDAT ?GetStartDateOfData@CKTBChartCtrl@@IAEPA_WXZ
_TEXT	SEGMENT
$T2 = -24						; size = 4
$T3 = -20						; size = 4
_strResult$ = -16					; size = 4
__$EHRec$ = -12						; size = 12
?GetStartDateOfData@CKTBChartCtrl@@IAEPA_WXZ PROC	; CKTBChartCtrl::GetStartDateOfData, COMDAT
; _this$ = ecx

; 402  : {

  00000	55		 push	 ebp
  00001	8b ec		 mov	 ebp, esp
  00003	6a ff		 push	 -1
  00005	68 00 00 00 00	 push	 __ehhandler$?GetStartDateOfData@CKTBChartCtrl@@IAEPA_WXZ
  0000a	64 a1 00 00 00
	00		 mov	 eax, DWORD PTR fs:0
  00010	50		 push	 eax
  00011	83 ec 0c	 sub	 esp, 12			; 0000000cH
  00014	56		 push	 esi
  00015	a1 00 00 00 00	 mov	 eax, DWORD PTR ___security_cookie
  0001a	33 c5		 xor	 eax, ebp
  0001c	50		 push	 eax
  0001d	8d 45 f4	 lea	 eax, DWORD PTR __$EHRec$[ebp]
  00020	64 a3 00 00 00
	00		 mov	 DWORD PTR fs:0, eax
  00026	8b f1		 mov	 esi, ecx

; 403  : 	CString strResult;

  00028	8d 4d f0	 lea	 ecx, DWORD PTR _strResult$[ebp]
  0002b	ff 15 00 00 00
	00		 call	 DWORD PTR __imp_??0?$CStringT@DV?$StrTraitMFC_DLL@DV?$ChTraitsCRT@D@ATL@@@@@ATL@@QAE@XZ

; 404  : 	// TODO: Add your property handler here
; 405  : 
; 406  : 	if( m_pPacketList)

  00031	83 be 3c 03 00
	00 00		 cmp	 DWORD PTR [esi+828], 0
  00038	c7 45 fc 00 00
	00 00		 mov	 DWORD PTR __$EHRec$[ebp+8], 0
  0003f	74 6a		 je	 SHORT $LN2@GetStartDa

; 407  : 		strResult = CDataConversion::IntToString( m_pPacketList->GetStartDate(),

  00041	a1 54 00 00 00	 mov	 eax, DWORD PTR ?g_iMetaTable@@3VIMetaTable@@A+84
  00046	6a 01		 push	 1
  00048	51		 push	 ecx
  00049	8b cc		 mov	 ecx, esp
  0004b	ff 30		 push	 DWORD PTR [eax]
  0004d	ff 15 00 00 00
	00		 call	 DWORD PTR __imp_??0?$CStringT@DV?$StrTraitMFC_DLL@DV?$ChTraitsCRT@D@ATL@@@@@ATL@@QAE@PBD@Z
  00053	8b 8e 3c 03 00
	00		 mov	 ecx, DWORD PTR [esi+828]
  00059	8d 45 e8	 lea	 eax, DWORD PTR $T2[ebp]
  0005c	50		 push	 eax
  0005d	ff 15 00 00 00
	00		 call	 DWORD PTR __imp_?GetPacketType@CPacketList@@QAE?AV?$CStringT@DV?$StrTraitMFC_DLL@DV?$ChTraitsCRT@D@ATL@@@@@ATL@@V23@_N@Z
; File C:\Program Files (x86)\Microsoft Visual Studio\2019\Community\VC\Tools\MSVC\14.29.30133\atlmfc\include\atlsimpstr.h

; 519  : 		return( GetData()->nDataLength );

  00063	8b 00		 mov	 eax, DWORD PTR [eax]
; File D:\git\src\IBK\IBK_DRFN\ProjSrc\SrcChartEx\ChartOCX\KTBChart\KTBChartDLL.cpp

; 407  : 		strResult = CDataConversion::IntToString( m_pPacketList->GetStartDate(),

  00065	8b 8e 3c 03 00
	00		 mov	 ecx, DWORD PTR [esi+828]
  0006b	c6 45 fc 01	 mov	 BYTE PTR __$EHRec$[ebp+8], 1
  0006f	ff 70 f4	 push	 DWORD PTR [eax-12]
  00072	ff 15 00 00 00
	00		 call	 DWORD PTR __imp_?GetStartDate@CPacketList@@QAEHXZ
  00078	99		 cdq
  00079	52		 push	 edx
  0007a	50		 push	 eax
  0007b	8d 45 ec	 lea	 eax, DWORD PTR $T3[ebp]
  0007e	50		 push	 eax
  0007f	e8 00 00 00 00	 call	 ?IntToString@CDataConversion@@SA?AV?$CStringT@DV?$StrTraitMFC_DLL@DV?$ChTraitsCRT@D@ATL@@@@@ATL@@_JH@Z ; CDataConversion::IntToString
  00084	83 c4 10	 add	 esp, 16			; 00000010H
  00087	50		 push	 eax
  00088	8d 4d f0	 lea	 ecx, DWORD PTR _strResult$[ebp]
  0008b	c6 45 fc 02	 mov	 BYTE PTR __$EHRec$[ebp+8], 2
  0008f	ff 15 00 00 00
	00		 call	 DWORD PTR __imp_??4?$CStringT@DV?$StrTraitMFC_DLL@DV?$ChTraitsCRT@D@ATL@@@@@ATL@@QAEAAV01@ABV01@@Z
  00095	8d 4d ec	 lea	 ecx, DWORD PTR $T3[ebp]
  00098	ff 15 00 00 00
	00		 call	 DWORD PTR __imp_??1?$CStringT@DV?$StrTraitMFC_DLL@DV?$ChTraitsCRT@D@ATL@@@@@ATL@@QAE@XZ
  0009e	8d 4d e8	 lea	 ecx, DWORD PTR $T2[ebp]
  000a1	c6 45 fc 00	 mov	 BYTE PTR __$EHRec$[ebp+8], 0
  000a5	ff 15 00 00 00
	00		 call	 DWORD PTR __imp_??1?$CStringT@DV?$StrTraitMFC_DLL@DV?$ChTraitsCRT@D@ATL@@@@@ATL@@QAE@XZ
$LN2@GetStartDa:

; 408  : 			m_pPacketList->GetPacketType( _MTEXT( C0_DATE_TIME)).GetLength());
; 409  : 
; 410  : 	return strResult.AllocSysString();

  000ab	8d 4d f0	 lea	 ecx, DWORD PTR _strResult$[ebp]
  000ae	ff 15 00 00 00
	00		 call	 DWORD PTR __imp_?AllocSysString@?$CStringT@DV?$StrTraitMFC_DLL@DV?$ChTraitsCRT@D@ATL@@@@@ATL@@QBEPA_WXZ
  000b4	8d 4d f0	 lea	 ecx, DWORD PTR _strResult$[ebp]
  000b7	8b f0		 mov	 esi, eax
  000b9	ff 15 00 00 00
	00		 call	 DWORD PTR __imp_??1?$CStringT@DV?$StrTraitMFC_DLL@DV?$ChTraitsCRT@D@ATL@@@@@ATL@@QAE@XZ
  000bf	8b c6		 mov	 eax, esi

; 411  : }

  000c1	8b 4d f4	 mov	 ecx, DWORD PTR __$EHRec$[ebp]
  000c4	64 89 0d 00 00
	00 00		 mov	 DWORD PTR fs:0, ecx
  000cb	59		 pop	 ecx
  000cc	5e		 pop	 esi
  000cd	8b e5		 mov	 esp, ebp
  000cf	5d		 pop	 ebp
  000d0	c3		 ret	 0
_TEXT	ENDS
;	COMDAT text$x
text$x	SEGMENT
__unwindfunclet$?GetStartDateOfData@CKTBChartCtrl@@IAEPA_WXZ$0:
  00000	8d 4d f0	 lea	 ecx, DWORD PTR _strResult$[ebp]
  00003	ff 25 00 00 00
	00		 jmp	 DWORD PTR __imp_??1?$CStringT@DV?$StrTraitMFC_DLL@DV?$ChTraitsCRT@D@ATL@@@@@ATL@@QAE@XZ
__unwindfunclet$?GetStartDateOfData@CKTBChartCtrl@@IAEPA_WXZ$2:
  00009	8d 4d e8	 lea	 ecx, DWORD PTR $T2[ebp]
  0000c	ff 25 00 00 00
	00		 jmp	 DWORD PTR __imp_??1?$CStringT@DV?$StrTraitMFC_DLL@DV?$ChTraitsCRT@D@ATL@@@@@ATL@@QAE@XZ
__unwindfunclet$?GetStartDateOfData@CKTBChartCtrl@@IAEPA_WXZ$3:
  00012	8d 4d ec	 lea	 ecx, DWORD PTR $T3[ebp]
  00015	ff 25 00 00 00
	00		 jmp	 DWORD PTR __imp_??1?$CStringT@DV?$StrTraitMFC_DLL@DV?$ChTraitsCRT@D@ATL@@@@@ATL@@QAE@XZ
  0001b	cc		 int	 3
  0001c	cc		 int	 3
  0001d	cc		 int	 3
  0001e	cc		 int	 3
  0001f	cc		 int	 3
__ehhandler$?GetStartDateOfData@CKTBChartCtrl@@IAEPA_WXZ:
  00020	90		 npad	 1
  00021	90		 npad	 1
  00022	8b 54 24 08	 mov	 edx, DWORD PTR [esp+8]
  00026	8d 42 0c	 lea	 eax, DWORD PTR [edx+12]
  00029	8b 4a ec	 mov	 ecx, DWORD PTR [edx-20]
  0002c	33 c8		 xor	 ecx, eax
  0002e	e8 00 00 00 00	 call	 @__security_check_cookie@4
  00033	b8 00 00 00 00	 mov	 eax, OFFSET __ehfuncinfo$?GetStartDateOfData@CKTBChartCtrl@@IAEPA_WXZ
  00038	e9 00 00 00 00	 jmp	 ___CxxFrameHandler3
text$x	ENDS
?GetStartDateOfData@CKTBChartCtrl@@IAEPA_WXZ ENDP	; CKTBChartCtrl::GetStartDateOfData
; Function compile flags: /Ogtp
; File C:\Program Files (x86)\Microsoft Visual Studio\2019\Community\VC\Tools\MSVC\14.29.30133\atlmfc\include\cstringt.h
; File C:\Program Files (x86)\Microsoft Visual Studio\2019\Community\VC\Tools\MSVC\14.29.30133\atlmfc\include\atlsimpstr.h
; File C:\Program Files (x86)\Microsoft Visual Studio\2019\Community\VC\Tools\MSVC\14.29.30133\atlmfc\include\cstringt.h
; File C:\Program Files (x86)\Microsoft Visual Studio\2019\Community\VC\Tools\MSVC\14.29.30133\atlmfc\include\atlsimpstr.h
; File C:\Program Files (x86)\Microsoft Visual Studio\2019\Community\VC\Tools\MSVC\14.29.30133\atlmfc\include\cstringt.h
;	COMDAT ??HATL@@YA?AV?$CStringT@DV?$StrTraitMFC_DLL@DV?$ChTraitsCRT@D@ATL@@@@@0@ABV10@PBD@Z
_TEXT	SEGMENT
$T2 = -16						; size = 4
__$EHRec$ = -12						; size = 12
___$ReturnUdt$ = 8					; size = 4
_str1$ = 12						; size = 4
_psz2$ = 16						; size = 4
??HATL@@YA?AV?$CStringT@DV?$StrTraitMFC_DLL@DV?$ChTraitsCRT@D@ATL@@@@@0@ABV10@PBD@Z PROC ; ATL::operator+, COMDAT

; 2400 : 	{

  00000	55		 push	 ebp
  00001	8b ec		 mov	 ebp, esp
  00003	6a ff		 push	 -1
  00005	68 00 00 00 00	 push	 __ehhandler$??HATL@@YA?AV?$CStringT@DV?$StrTraitMFC_DLL@DV?$ChTraitsCRT@D@ATL@@@@@0@ABV10@PBD@Z
  0000a	64 a1 00 00 00
	00		 mov	 eax, DWORD PTR fs:0
  00010	50		 push	 eax
  00011	51		 push	 ecx
  00012	53		 push	 ebx
  00013	56		 push	 esi
  00014	57		 push	 edi
  00015	a1 00 00 00 00	 mov	 eax, DWORD PTR ___security_cookie
  0001a	33 c5		 xor	 eax, ebp
  0001c	50		 push	 eax
  0001d	8d 45 f4	 lea	 eax, DWORD PTR __$EHRec$[ebp]
  00020	64 a3 00 00 00
	00		 mov	 DWORD PTR fs:0, eax

; 2401 : 		CStringT strResult( str1.GetManager() );

  00026	8b 5d 0c	 mov	 ebx, DWORD PTR _str1$[ebp]
  00029	8b cb		 mov	 ecx, ebx
  0002b	c7 45 f0 00 00
	00 00		 mov	 DWORD PTR $T2[ebp], 0
  00032	ff 15 00 00 00
	00		 call	 DWORD PTR __imp_?GetManager@?$CStringT@DV?$StrTraitMFC_DLL@DV?$ChTraitsCRT@D@ATL@@@@@ATL@@QBEPAUIAtlStringMgr@2@XZ
  00038	8b 7d 08	 mov	 edi, DWORD PTR ___$ReturnUdt$[ebp]
  0003b	8b cf		 mov	 ecx, edi
  0003d	50		 push	 eax
  0003e	ff 15 00 00 00
	00		 call	 DWORD PTR __imp_??0?$CStringT@DV?$StrTraitMFC_DLL@DV?$ChTraitsCRT@D@ATL@@@@@ATL@@QAE@PAUIAtlStringMgr@1@@Z
; File C:\Program Files (x86)\Microsoft Visual Studio\2019\Community\VC\Tools\MSVC\14.29.30133\atlmfc\include\atlsimpstr.h

; 722  : 		if( psz == NULL )

  00044	8b 75 10	 mov	 esi, DWORD PTR _psz2$[ebp]
; File C:\Program Files (x86)\Microsoft Visual Studio\2019\Community\VC\Tools\MSVC\14.29.30133\atlmfc\include\cstringt.h

; 2405 : 		return( strResult );

  00047	c7 45 fc 00 00
	00 00		 mov	 DWORD PTR __$EHRec$[ebp+8], 0
  0004e	c7 45 f0 01 00
	00 00		 mov	 DWORD PTR $T2[ebp], 1
; File C:\Program Files (x86)\Microsoft Visual Studio\2019\Community\VC\Tools\MSVC\14.29.30133\atlmfc\include\atlsimpstr.h

; 722  : 		if( psz == NULL )

  00055	85 f6		 test	 esi, esi
  00057	75 04		 jne	 SHORT $LN6@operator

; 723  : 		{
; 724  : 			return( 0 );

  00059	33 d2		 xor	 edx, edx
  0005b	eb 0e		 jmp	 SHORT $LN5@operator
$LN6@operator:

; 725  : 		}
; 726  : 		return( int( strlen( psz ) ) );

  0005d	8b d6		 mov	 edx, esi
  0005f	8d 4a 01	 lea	 ecx, DWORD PTR [edx+1]
$LL14@operator:
  00062	8a 02		 mov	 al, BYTE PTR [edx]
  00064	42		 inc	 edx
  00065	84 c0		 test	 al, al
  00067	75 f9		 jne	 SHORT $LL14@operator
  00069	2b d1		 sub	 edx, ecx
$LN5@operator:

; 519  : 		return( GetData()->nDataLength );

  0006b	8b 0b		 mov	 ecx, DWORD PTR [ebx]
; File C:\Program Files (x86)\Microsoft Visual Studio\2019\Community\VC\Tools\MSVC\14.29.30133\atlmfc\include\cstringt.h

; 2403 : 		CThisSimpleString::Concatenate( strResult, str1, str1.GetLength(), psz2, CThisSimpleString::StringLength( psz2 ) );

  0006d	52		 push	 edx
  0006e	56		 push	 esi
  0006f	ff 71 f4	 push	 DWORD PTR [ecx-12]
  00072	51		 push	 ecx
  00073	57		 push	 edi
  00074	ff 15 00 00 00
	00		 call	 DWORD PTR __imp_?Concatenate@?$CSimpleStringT@D$00@ATL@@KAXAAV12@PBDH1H@Z
  0007a	83 c4 14	 add	 esp, 20			; 00000014H

; 2405 : 		return( strResult );

  0007d	8b c7		 mov	 eax, edi

; 2406 : 	}

  0007f	8b 4d f4	 mov	 ecx, DWORD PTR __$EHRec$[ebp]
  00082	64 89 0d 00 00
	00 00		 mov	 DWORD PTR fs:0, ecx
  00089	59		 pop	 ecx
  0008a	5f		 pop	 edi
  0008b	5e		 pop	 esi
  0008c	5b		 pop	 ebx
  0008d	8b e5		 mov	 esp, ebp
  0008f	5d		 pop	 ebp
  00090	c3		 ret	 0
_TEXT	ENDS
;	COMDAT text$x
text$x	SEGMENT
__unwindfunclet$??HATL@@YA?AV?$CStringT@DV?$StrTraitMFC_DLL@DV?$ChTraitsCRT@D@ATL@@@@@0@ABV10@PBD@Z$0:
  00000	8b 45 f0	 mov	 eax, DWORD PTR $T2[ebp]
  00003	83 e0 01	 and	 eax, 1
  00006	0f 84 0d 00 00
	00		 je	 $LN4@operator
  0000c	83 65 f0 fe	 and	 DWORD PTR $T2[ebp], -2	; fffffffeH
  00010	8b 4d 08	 mov	 ecx, DWORD PTR ___$ReturnUdt$[ebp]
  00013	ff 25 00 00 00
	00		 jmp	 DWORD PTR __imp_??1?$CStringT@DV?$StrTraitMFC_DLL@DV?$ChTraitsCRT@D@ATL@@@@@ATL@@QAE@XZ
$LN4@operator:
  00019	c3		 ret	 0
  0001a	cc		 int	 3
  0001b	cc		 int	 3
  0001c	cc		 int	 3
  0001d	cc		 int	 3
  0001e	cc		 int	 3
__ehhandler$??HATL@@YA?AV?$CStringT@DV?$StrTraitMFC_DLL@DV?$ChTraitsCRT@D@ATL@@@@@0@ABV10@PBD@Z:
  0001f	90		 npad	 1
  00020	90		 npad	 1
  00021	8b 54 24 08	 mov	 edx, DWORD PTR [esp+8]
  00025	8d 42 0c	 lea	 eax, DWORD PTR [edx+12]
  00028	8b 4a ec	 mov	 ecx, DWORD PTR [edx-20]
  0002b	33 c8		 xor	 ecx, eax
  0002d	e8 00 00 00 00	 call	 @__security_check_cookie@4
  00032	b8 00 00 00 00	 mov	 eax, OFFSET __ehfuncinfo$??HATL@@YA?AV?$CStringT@DV?$StrTraitMFC_DLL@DV?$ChTraitsCRT@D@ATL@@@@@0@ABV10@PBD@Z
  00037	e9 00 00 00 00	 jmp	 ___CxxFrameHandler3
text$x	ENDS
??HATL@@YA?AV?$CStringT@DV?$StrTraitMFC_DLL@DV?$ChTraitsCRT@D@ATL@@@@@0@ABV10@PBD@Z ENDP ; ATL::operator+
; Function compile flags: /Ogtp
; File C:\Program Files (x86)\Microsoft Visual Studio\2019\Community\VC\Tools\MSVC\14.29.30133\atlmfc\include\afx.inl
;	COMDAT ?Dump@CObject@@UBEXAAVCDumpContext@@@Z
_TEXT	SEGMENT
___formal$ = 8						; size = 4
?Dump@CObject@@UBEXAAVCDumpContext@@@Z PROC		; CObject::Dump, COMDAT
; _this$ = ecx

; 122  : 	{ /* no dumping in release builds */ }

  00000	c2 04 00	 ret	 4
?Dump@CObject@@UBEXAAVCDumpContext@@@Z ENDP		; CObject::Dump
_TEXT	ENDS
; Function compile flags: /Ogtp
; File C:\Program Files (x86)\Microsoft Visual Studio\2019\Community\VC\Tools\MSVC\14.29.30133\atlmfc\include\afx.inl
;	COMDAT ?AssertValid@CObject@@UBEXXZ
_TEXT	SEGMENT
?AssertValid@CObject@@UBEXXZ PROC			; CObject::AssertValid, COMDAT
; _this$ = ecx

; 120  : 	{ /* no asserts in release builds */ }

  00000	c2 00 00	 ret	 0
?AssertValid@CObject@@UBEXXZ ENDP			; CObject::AssertValid
_TEXT	ENDS
; Function compile flags: /Ogtp
; File C:\Program Files (x86)\Microsoft Visual Studio\2019\Community\VC\Tools\MSVC\14.29.30133\atlmfc\include\afx.inl
;	COMDAT ?Serialize@CObject@@UAEXAAVCArchive@@@Z
_TEXT	SEGMENT
___formal$ = 8						; size = 4
?Serialize@CObject@@UAEXAAVCArchive@@@Z PROC		; CObject::Serialize, COMDAT
; _this$ = ecx

; 106  : 	{ /* CObject does not serialize anything by default */ }

  00000	c2 04 00	 ret	 4
?Serialize@CObject@@UAEXAAVCArchive@@@Z ENDP		; CObject::Serialize
_TEXT	ENDS
; Function compile flags: /Ogtp
; File C:\Program Files (x86)\Microsoft Visual Studio\2019\Community\VC\Tools\MSVC\14.29.30133\atlmfc\include\afx.inl
;	COMDAT ??1CObject@@UAE@XZ
_TEXT	SEGMENT
??1CObject@@UAE@XZ PROC					; CObject::~CObject, COMDAT
; _this$ = ecx

; 104  : 	{ }

  00000	c2 00 00	 ret	 0
??1CObject@@UAE@XZ ENDP					; CObject::~CObject
_TEXT	ENDS
; Function compile flags: /Ogtp
; File D:\git\src\IBK\IBK_DRFN\ProjSrc\SrcChartEx\ChartOCX\KTBChart\KTBChartDLL.cpp
;	COMDAT ?__empty_global_delete@@YAXPAXI@Z
_TEXT	SEGMENT
___formal$ = 8						; size = 4
___formal$ = 12						; size = 4
?__empty_global_delete@@YAXPAXI@Z PROC			; __empty_global_delete, COMDAT

  00000	c2 00 00	 ret	 0
?__empty_global_delete@@YAXPAXI@Z ENDP			; __empty_global_delete
_TEXT	ENDS
; Function compile flags: /Ogtp
; File D:\git\src\IBK\IBK_DRFN\ProjSrc\SrcChartEx\ChartOCX\KTBChart\KTBChartDLL.cpp
;	COMDAT ?__empty_global_delete@@YAXPAX@Z
_TEXT	SEGMENT
___formal$ = 8						; size = 4
?__empty_global_delete@@YAXPAX@Z PROC			; __empty_global_delete, COMDAT

  00000	c2 00 00	 ret	 0
?__empty_global_delete@@YAXPAX@Z ENDP			; __empty_global_delete
_TEXT	ENDS
END
