; Listing generated by Microsoft (R) Optimizing Compiler Version 19.29.30148.0 

	TITLE	D:\git\src\IBK\IBK_DRFN\#DRfn-CS\_Obj\KTBChart\KTBChartCommonInterface.obj
	.686P
	.XMM
	include listing.inc
	.model	flat

INCLUDELIB MSVCRT
INCLUDELIB OLDNAMES

CONST	SEGMENT
?_Fake_alloc@std@@3U_Fake_allocator@1@B	ORG $+1		; std::_Fake_alloc
CONST	ENDS
PUBLIC	?__empty_global_delete@@YAXPAX@Z		; __empty_global_delete
PUBLIC	?__empty_global_delete@@YAXPAXI@Z		; __empty_global_delete
PUBLIC	??HATL@@YA?AV?$CStringT@DV?$StrTraitMFC_DLL@DV?$ChTraitsCRT@D@ATL@@@@@0@ABV10@PBD@Z ; ATL::operator+
PUBLIC	??1CMultiLanguageResourceSetter@@QAE@XZ		; CMultiLanguageResourceSetter::~CMultiLanguageResourceSetter
PUBLIC	?GetDefaultPath@CKTBChartCtrl@@UAE?AV?$CStringT@DV?$StrTraitMFC_DLL@DV?$ChTraitsCRT@D@ATL@@@@@ATL@@XZ ; CKTBChartCtrl::GetDefaultPath
PUBLIC	?GetUserPath@CKTBChartCtrl@@UAE?AV?$CStringT@DV?$StrTraitMFC_DLL@DV?$ChTraitsCRT@D@ATL@@@@@ATL@@XZ ; CKTBChartCtrl::GetUserPath
PUBLIC	?GetImagePath@CKTBChartCtrl@@UAE?AV?$CStringT@DV?$StrTraitMFC_DLL@DV?$ChTraitsCRT@D@ATL@@@@@ATL@@XZ ; CKTBChartCtrl::GetImagePath
PUBLIC	?InvalidateOCX@CKTBChartCtrl@@UAEX_N@Z		; CKTBChartCtrl::InvalidateOCX
PUBLIC	?RestoreChartCfg@CKTBChartCtrl@@QAE_NH@Z	; CKTBChartCtrl::RestoreChartCfg
PUBLIC	?RemoveChartCfgFromIndexToEnd@CKTBChartCtrl@@UAE_NH@Z ; CKTBChartCtrl::RemoveChartCfgFromIndexToEnd
PUBLIC	?AddRemoveGraph@CKTBChartCtrl@@UAE_NPBD@Z	; CKTBChartCtrl::AddRemoveGraph
PUBLIC	?SetNumericalInquiryOption@CKTBChartCtrl@@UAEXJ_N@Z ; CKTBChartCtrl::SetNumericalInquiryOption
PUBLIC	?SetShowTrendLineValue@CKTBChartCtrl@@UAEXH_N@Z	; CKTBChartCtrl::SetShowTrendLineValue
PUBLIC	?SetAutoSave@CKTBChartCtrl@@UAEX_N0@Z		; CKTBChartCtrl::SetAutoSave
PUBLIC	?SetShowMinMaxPrice@CKTBChartCtrl@@UAEX_N0@Z	; CKTBChartCtrl::SetShowMinMaxPrice
PUBLIC	?GetImaginaryCandle@CKTBChartCtrl@@UAE_NXZ	; CKTBChartCtrl::GetImaginaryCandle
PUBLIC	?GetShowIndicatorValue@CKTBChartCtrl@@UAE_NXZ	; CKTBChartCtrl::GetShowIndicatorValue
PUBLIC	?GetShowTrendLineValue@CKTBChartCtrl@@UAEHXZ	; CKTBChartCtrl::GetShowTrendLineValue
PUBLIC	?GetAutoSave@CKTBChartCtrl@@UAE_NXZ		; CKTBChartCtrl::GetAutoSave
PUBLIC	?GetShowMinMaxPrice@CKTBChartCtrl@@UAE_NXZ	; CKTBChartCtrl::GetShowMinMaxPrice
PUBLIC	?SaveChartCfgInCurrentOCX@CKTBChartCtrl@@UAE_NXZ ; CKTBChartCtrl::SaveChartCfgInCurrentOCX
PUBLIC	?IsWholeView@CKTBChartCtrl@@UBE_NXZ		; CKTBChartCtrl::IsWholeView
PUBLIC	?InvalidateOleControl@CKTBChartCtrl@@UAEX_N@Z	; CKTBChartCtrl::InvalidateOleControl
PUBLIC	?SetStartEndIndex@CKTBChartCtrl@@UAEHHH@Z	; CKTBChartCtrl::SetStartEndIndex
PUBLIC	?GetPageCountNextStep@CKTBChartCtrl@@UAEHHHIHH@Z ; CKTBChartCtrl::GetPageCountNextStep
PUBLIC	?SetStateWholeView@CKTBChartCtrl@@UAEXH@Z	; CKTBChartCtrl::SetStateWholeView
PUBLIC	?GetChartWindowPointer@CKTBChartCtrl@@UBEPAVCWnd@@XZ ; CKTBChartCtrl::GetChartWindowPointer
PUBLIC	?GetMinCountPerPage@CKTBChartCtrl@@UBEHXZ	; CKTBChartCtrl::GetMinCountPerPage
PUBLIC	?GetDataCountForToolBar@CKTBChartCtrl@@UBEHXZ	; CKTBChartCtrl::GetDataCountForToolBar
PUBLIC	?GetToolBarRegion@CKTBChartCtrl@@UBE?AVCRect@@XZ ; CKTBChartCtrl::GetToolBarRegion
PUBLIC	?GetRscFont@CKTBChartCtrl@@UBEPAVCFont@@XZ	; CKTBChartCtrl::GetRscFont
PUBLIC	?ConvertYPositionToData@CKTBChartCtrl@@UAENHHHABN0_N1@Z ; CKTBChartCtrl::ConvertYPositionToData
PUBLIC	?GetBongCountMargin@CKTBChartCtrl@@UAEHXZ	; CKTBChartCtrl::GetBongCountMargin
PUBLIC	?SetGraphSelectedDataIndex@CKTBChartCtrl@@UAEXHPBD@Z ; CKTBChartCtrl::SetGraphSelectedDataIndex
PUBLIC	?SetGraphThickness@CKTBChartCtrl@@UAEXH@Z	; CKTBChartCtrl::SetGraphThickness
PUBLIC	?SetGraphTypeStyle@CKTBChartCtrl@@UAEXHH@Z	; CKTBChartCtrl::SetGraphTypeStyle
PUBLIC	?SetCursorExchange@CKTBChartCtrl@@UAEXW4CHARTOBJECT@CCursorShape@@@Z ; CKTBChartCtrl::SetCursorExchange
PUBLIC	?GetUserMargin@CKTBChartCtrl@@UBEHXZ		; CKTBChartCtrl::GetUserMargin
PUBLIC	?InvalidateRect@CKTBChartCtrl@@UAEXABVCRect@@_N@Z ; CKTBChartCtrl::InvalidateRect
PUBLIC	??_C@_00CNPNBAHC@@				; `string'
PUBLIC	??_C@_04IHEKLNBL@News@				; `string'
PUBLIC	??_C@_0O@NEFGCKDK@?2image?2chart?2@		; `string'
PUBLIC	??_C@_0BD@PNOKNCJO@ChartMetaTable?4dat@		; `string'
PUBLIC	??_C@_0L@HIOFCMKH@MChartMode@			; `string'
PUBLIC	??_C@_0O@GDACOMFO@Chart?5Version@		; `string'
PUBLIC	??_C@_02GMLAAMD@FX@				; `string'
PUBLIC	??_C@_0P@DPEHLCCF@?2System?2Image?2@		; `string'
PUBLIC	??_C@_07KKHCKEHB@WORLDON@			; `string'
PUBLIC	??_C@_0BC@EHHPLAFN@?2image?2chart_img?2@	; `string'
PUBLIC	??_C@_03HKDINIMK@HTS@				; `string'
PUBLIC	??_C@_07GIKBFJHJ@?2image?2@			; `string'
PUBLIC	??_C@_05BLKEAIDJ@?2Icss@			; `string'
EXTRN	___std_terminate:PROC
EXTRN	__imp__GetPrivateProfileStringA@24:PROC
EXTRN	__imp__SendMessageA@16:PROC
EXTRN	__imp__InvalidateRect@12:PROC
EXTRN	__imp__LoadCursorA@8:PROC
EXTRN	__imp_?Concatenate@?$CSimpleStringT@D$00@ATL@@KAXAAV12@PBDH1H@Z:PROC
EXTRN	__imp_??0?$CStringT@DV?$StrTraitMFC_DLL@DV?$ChTraitsCRT@D@ATL@@@@@ATL@@QAE@PAUIAtlStringMgr@1@@Z:PROC
EXTRN	__imp_??0?$CStringT@DV?$StrTraitMFC_DLL@DV?$ChTraitsCRT@D@ATL@@@@@ATL@@QAE@ABV01@@Z:PROC
EXTRN	__imp_??0?$CStringT@DV?$StrTraitMFC_DLL@DV?$ChTraitsCRT@D@ATL@@@@@ATL@@QAE@PBD@Z:PROC
EXTRN	__imp_??1?$CStringT@DV?$StrTraitMFC_DLL@DV?$ChTraitsCRT@D@ATL@@@@@ATL@@QAE@XZ:PROC
EXTRN	__imp_??4?$CStringT@DV?$StrTraitMFC_DLL@DV?$ChTraitsCRT@D@ATL@@@@@ATL@@QAEAAV01@PBD@Z:PROC
EXTRN	__imp_?GetManager@?$CStringT@DV?$StrTraitMFC_DLL@DV?$ChTraitsCRT@D@ATL@@@@@ATL@@QBEPAUIAtlStringMgr@2@XZ:PROC
EXTRN	__imp_?Compare@?$CStringT@DV?$StrTraitMFC_DLL@DV?$ChTraitsCRT@D@ATL@@@@@ATL@@QBEHPBD@Z:PROC
EXTRN	?AfxGetModuleState@@YGPAVAFX_MODULE_STATE@@XZ:PROC ; AfxGetModuleState
EXTRN	?AfxGetStaticModuleState@@YGPAVAFX_MODULE_STATE@@XZ:PROC ; AfxGetStaticModuleState
EXTRN	__imp_?OnAddInToolCommand@CAddInManager@@QAEHW4EAICommandType@@J@Z:PROC
EXTRN	?Log@CMath@@SANABN@Z:PROC			; CMath::Log
EXTRN	?Exp@CMath@@SANABN@Z:PROC			; CMath::Exp
EXTRN	?MChart_SetShowTrendLineValueToOutside@COutsideCommonInterfaceFunction@@QAE_NH@Z:PROC ; COutsideCommonInterfaceFunction::MChart_SetShowTrendLineValueToOutside
EXTRN	?MChart_SetAutoSaveToOutside@COutsideCommonInterfaceFunction@@QAE_N_N@Z:PROC ; COutsideCommonInterfaceFunction::MChart_SetAutoSaveToOutside
EXTRN	?MChart_GetAutoSaveToOutside@COutsideCommonInterfaceFunction@@QAE_NAA_N@Z:PROC ; COutsideCommonInterfaceFunction::MChart_GetAutoSaveToOutside
EXTRN	?GetChartCfg@CSaveChartCfgList@@QAEPAVCChartCfg@@H_N@Z:PROC ; CSaveChartCfgList::GetChartCfg
EXTRN	?RemoveFromIndexToEnd@CSaveChartCfgList@@QAE_NH@Z:PROC ; CSaveChartCfgList::RemoveFromIndexToEnd
EXTRN	?GetBaseDeskPath@CKTBChartCtrl@@QAE?AV?$CStringT@DV?$StrTraitMFC_DLL@DV?$ChTraitsCRT@D@ATL@@@@@ATL@@XZ:PROC ; CKTBChartCtrl::GetBaseDeskPath
EXTRN	?AddChartBlock@CKTBChartCtrl@@IAEHPBD@Z:PROC	; CKTBChartCtrl::AddChartBlock
EXTRN	?GetMainBlockRegion@CKTBChartCtrl@@QAE?AVCRect@@XZ:PROC ; CKTBChartCtrl::GetMainBlockRegion
EXTRN	?ResetSaveChartCfg@CKTBChartCtrl@@AAE_NPAVCChartCfg@@_N@Z:PROC ; CKTBChartCtrl::ResetSaveChartCfg
EXTRN	?SaveChartCfg@CKTBChartCtrl@@AAE_NH@Z:PROC	; CKTBChartCtrl::SaveChartCfg
EXTRN	?GetMaxDataCount@CKTBChartCtrl@@ABEHXZ:PROC	; CKTBChartCtrl::GetMaxDataCount
EXTRN	?GetUserFilePath@CKTBChartCtrl@@QAE?AV?$CStringT@DV?$StrTraitMFC_DLL@DV?$ChTraitsCRT@D@ATL@@@@@ATL@@ABV23@@Z:PROC ; CKTBChartCtrl::GetUserFilePath
EXTRN	?NeoRequestMapLoad@CKTBChartCtrl@@IAEXHV?$CStringT@DV?$StrTraitMFC_DLL@DV?$ChTraitsCRT@D@ATL@@@@@ATL@@0@Z:PROC ; CKTBChartCtrl::NeoRequestMapLoad
EXTRN	?InvalidateControl@CKTBChartCtrl@@QAEXPBUtagRECT@@H@Z:PROC ; CKTBChartCtrl::InvalidateControl
EXTRN	__imp_?GetDataFromIndex@CPacketList@@QAENV?$CStringT@DV?$StrTraitMFC_DLL@DV?$ChTraitsCRT@D@ATL@@@@@ATL@@H@Z:PROC
EXTRN	?IntToString@CDataConversion@@SA?AV?$CStringT@DV?$StrTraitMFC_DLL@DV?$ChTraitsCRT@D@ATL@@@@@ATL@@H@Z:PROC ; CDataConversion::IntToString
EXTRN	?AbsoluteToRelative_Y@CDataConversion@@SANABVCRect@@HABN1@Z:PROC ; CDataConversion::AbsoluteToRelative_Y
EXTRN	@__security_check_cookie@4:PROC
EXTRN	___CxxFrameHandler3:PROC
EXTRN	?g_iMetaTable@@3VIMetaTable@@A:BYTE		; g_iMetaTable
EXTRN	___security_cookie:DWORD
EXTRN	__fltused:DWORD
;	COMDAT ??_C@_05BLKEAIDJ@?2Icss@
CONST	SEGMENT
??_C@_05BLKEAIDJ@?2Icss@ DB '\Icss', 00H		; `string'
CONST	ENDS
;	COMDAT ??_C@_07GIKBFJHJ@?2image?2@
CONST	SEGMENT
??_C@_07GIKBFJHJ@?2image?2@ DB '\image\', 00H		; `string'
CONST	ENDS
;	COMDAT ??_C@_03HKDINIMK@HTS@
CONST	SEGMENT
??_C@_03HKDINIMK@HTS@ DB 'HTS', 00H			; `string'
CONST	ENDS
;	COMDAT ??_C@_0BC@EHHPLAFN@?2image?2chart_img?2@
CONST	SEGMENT
??_C@_0BC@EHHPLAFN@?2image?2chart_img?2@ DB '\image\chart_img\', 00H ; `string'
CONST	ENDS
;	COMDAT ??_C@_07KKHCKEHB@WORLDON@
CONST	SEGMENT
??_C@_07KKHCKEHB@WORLDON@ DB 'WORLDON', 00H		; `string'
CONST	ENDS
;	COMDAT ??_C@_0P@DPEHLCCF@?2System?2Image?2@
CONST	SEGMENT
??_C@_0P@DPEHLCCF@?2System?2Image?2@ DB '\System\Image\', 00H ; `string'
CONST	ENDS
;	COMDAT ??_C@_02GMLAAMD@FX@
CONST	SEGMENT
??_C@_02GMLAAMD@FX@ DB 'FX', 00H			; `string'
CONST	ENDS
;	COMDAT ??_C@_0O@GDACOMFO@Chart?5Version@
CONST	SEGMENT
??_C@_0O@GDACOMFO@Chart?5Version@ DB 'Chart Version', 00H ; `string'
CONST	ENDS
;	COMDAT ??_C@_0L@HIOFCMKH@MChartMode@
CONST	SEGMENT
??_C@_0L@HIOFCMKH@MChartMode@ DB 'MChartMode', 00H	; `string'
CONST	ENDS
;	COMDAT ??_C@_0BD@PNOKNCJO@ChartMetaTable?4dat@
CONST	SEGMENT
??_C@_0BD@PNOKNCJO@ChartMetaTable?4dat@ DB 'ChartMetaTable.dat', 00H ; `string'
CONST	ENDS
;	COMDAT ??_C@_0O@NEFGCKDK@?2image?2chart?2@
CONST	SEGMENT
??_C@_0O@NEFGCKDK@?2image?2chart?2@ DB '\image\chart\', 00H ; `string'
CONST	ENDS
;	COMDAT ??_C@_04IHEKLNBL@News@
CONST	SEGMENT
??_C@_04IHEKLNBL@News@ DB 'News', 00H			; `string'
CONST	ENDS
;	COMDAT ??_C@_00CNPNBAHC@@
CONST	SEGMENT
??_C@_00CNPNBAHC@@ DB 00H				; `string'
CONST	ENDS
;	COMDAT xdata$x
xdata$x	SEGMENT
__unwindtable$?SetCursorExchange@CKTBChartCtrl@@UAEXW4CHARTOBJECT@CCursorShape@@@Z DD 0ffffffffH
	DD	FLAT:__unwindfunclet$?SetCursorExchange@CKTBChartCtrl@@UAEXW4CHARTOBJECT@CCursorShape@@@Z$0
	DD	0ffffffffH
	DD	FLAT:___std_terminate
__ehfuncinfo$?SetCursorExchange@CKTBChartCtrl@@UAEXW4CHARTOBJECT@CCursorShape@@@Z DD 019930522H
	DD	02H
	DD	FLAT:__unwindtable$?SetCursorExchange@CKTBChartCtrl@@UAEXW4CHARTOBJECT@CCursorShape@@@Z
	DD	2 DUP(00H)
	DD	2 DUP(00H)
	DD	00H
	DD	01H
xdata$x	ENDS
;	COMDAT xdata$x
xdata$x	SEGMENT
__unwindtable$?SetGraphSelectedDataIndex@CKTBChartCtrl@@UAEXHPBD@Z DD 0ffffffffH
	DD	FLAT:__unwindfunclet$?SetGraphSelectedDataIndex@CKTBChartCtrl@@UAEXHPBD@Z$0
	DD	00H
	DD	FLAT:__unwindfunclet$?SetGraphSelectedDataIndex@CKTBChartCtrl@@UAEXHPBD@Z$2
	DD	01H
	DD	FLAT:__unwindfunclet$?SetGraphSelectedDataIndex@CKTBChartCtrl@@UAEXHPBD@Z$3
	DD	01H
	DD	FLAT:__unwindfunclet$?SetGraphSelectedDataIndex@CKTBChartCtrl@@UAEXHPBD@Z$5
__ehfuncinfo$?SetGraphSelectedDataIndex@CKTBChartCtrl@@UAEXHPBD@Z DD 019930522H
	DD	04H
	DD	FLAT:__unwindtable$?SetGraphSelectedDataIndex@CKTBChartCtrl@@UAEXHPBD@Z
	DD	2 DUP(00H)
	DD	2 DUP(00H)
	DD	00H
	DD	01H
xdata$x	ENDS
;	COMDAT xdata$x
xdata$x	SEGMENT
__ehfuncinfo$?GetImagePath@CKTBChartCtrl@@UAE?AV?$CStringT@DV?$StrTraitMFC_DLL@DV?$ChTraitsCRT@D@ATL@@@@@ATL@@XZ DD 019930522H
	DD	07H
	DD	FLAT:__unwindtable$?GetImagePath@CKTBChartCtrl@@UAE?AV?$CStringT@DV?$StrTraitMFC_DLL@DV?$ChTraitsCRT@D@ATL@@@@@ATL@@XZ
	DD	2 DUP(00H)
	DD	2 DUP(00H)
	DD	00H
	DD	01H
__unwindtable$?GetImagePath@CKTBChartCtrl@@UAE?AV?$CStringT@DV?$StrTraitMFC_DLL@DV?$ChTraitsCRT@D@ATL@@@@@ATL@@XZ DD 0ffffffffH
	DD	FLAT:__unwindfunclet$?GetImagePath@CKTBChartCtrl@@UAE?AV?$CStringT@DV?$StrTraitMFC_DLL@DV?$ChTraitsCRT@D@ATL@@@@@ATL@@XZ$0
	DD	00H
	DD	FLAT:__unwindfunclet$?GetImagePath@CKTBChartCtrl@@UAE?AV?$CStringT@DV?$StrTraitMFC_DLL@DV?$ChTraitsCRT@D@ATL@@@@@ATL@@XZ$1
	DD	01H
	DD	FLAT:__unwindfunclet$?GetImagePath@CKTBChartCtrl@@UAE?AV?$CStringT@DV?$StrTraitMFC_DLL@DV?$ChTraitsCRT@D@ATL@@@@@ATL@@XZ$7
	DD	00H
	DD	FLAT:__unwindfunclet$?GetImagePath@CKTBChartCtrl@@UAE?AV?$CStringT@DV?$StrTraitMFC_DLL@DV?$ChTraitsCRT@D@ATL@@@@@ATL@@XZ$3
	DD	03H
	DD	FLAT:__unwindfunclet$?GetImagePath@CKTBChartCtrl@@UAE?AV?$CStringT@DV?$StrTraitMFC_DLL@DV?$ChTraitsCRT@D@ATL@@@@@ATL@@XZ$4
	DD	04H
	DD	FLAT:__unwindfunclet$?GetImagePath@CKTBChartCtrl@@UAE?AV?$CStringT@DV?$StrTraitMFC_DLL@DV?$ChTraitsCRT@D@ATL@@@@@ATL@@XZ$5
	DD	05H
	DD	FLAT:__unwindfunclet$?GetImagePath@CKTBChartCtrl@@UAE?AV?$CStringT@DV?$StrTraitMFC_DLL@DV?$ChTraitsCRT@D@ATL@@@@@ATL@@XZ$9
xdata$x	ENDS
;	COMDAT xdata$x
xdata$x	SEGMENT
__unwindtable$?GetUserPath@CKTBChartCtrl@@UAE?AV?$CStringT@DV?$StrTraitMFC_DLL@DV?$ChTraitsCRT@D@ATL@@@@@ATL@@XZ DD 0ffffffffH
	DD	FLAT:__unwindfunclet$?GetUserPath@CKTBChartCtrl@@UAE?AV?$CStringT@DV?$StrTraitMFC_DLL@DV?$ChTraitsCRT@D@ATL@@@@@ATL@@XZ$0
__ehfuncinfo$?GetUserPath@CKTBChartCtrl@@UAE?AV?$CStringT@DV?$StrTraitMFC_DLL@DV?$ChTraitsCRT@D@ATL@@@@@ATL@@XZ DD 019930522H
	DD	01H
	DD	FLAT:__unwindtable$?GetUserPath@CKTBChartCtrl@@UAE?AV?$CStringT@DV?$StrTraitMFC_DLL@DV?$ChTraitsCRT@D@ATL@@@@@ATL@@XZ
	DD	2 DUP(00H)
	DD	2 DUP(00H)
	DD	00H
	DD	01H
xdata$x	ENDS
;	COMDAT xdata$x
xdata$x	SEGMENT
__unwindtable$?GetDefaultPath@CKTBChartCtrl@@UAE?AV?$CStringT@DV?$StrTraitMFC_DLL@DV?$ChTraitsCRT@D@ATL@@@@@ATL@@XZ DD 0ffffffffH
	DD	FLAT:__unwindfunclet$?GetDefaultPath@CKTBChartCtrl@@UAE?AV?$CStringT@DV?$StrTraitMFC_DLL@DV?$ChTraitsCRT@D@ATL@@@@@ATL@@XZ$0
	DD	00H
	DD	FLAT:__unwindfunclet$?GetDefaultPath@CKTBChartCtrl@@UAE?AV?$CStringT@DV?$StrTraitMFC_DLL@DV?$ChTraitsCRT@D@ATL@@@@@ATL@@XZ$2
__ehfuncinfo$?GetDefaultPath@CKTBChartCtrl@@UAE?AV?$CStringT@DV?$StrTraitMFC_DLL@DV?$ChTraitsCRT@D@ATL@@@@@ATL@@XZ DD 019930522H
	DD	02H
	DD	FLAT:__unwindtable$?GetDefaultPath@CKTBChartCtrl@@UAE?AV?$CStringT@DV?$StrTraitMFC_DLL@DV?$ChTraitsCRT@D@ATL@@@@@ATL@@XZ
	DD	2 DUP(00H)
	DD	2 DUP(00H)
	DD	00H
	DD	01H
xdata$x	ENDS
;	COMDAT xdata$x
xdata$x	SEGMENT
__ehfuncinfo$??1CMultiLanguageResourceSetter@@QAE@XZ DD 019930522H
	DD	00H
	DD	00H
	DD	2 DUP(00H)
	DD	2 DUP(00H)
	DD	00H
	DD	05H
xdata$x	ENDS
;	COMDAT xdata$x
xdata$x	SEGMENT
__unwindtable$??HATL@@YA?AV?$CStringT@DV?$StrTraitMFC_DLL@DV?$ChTraitsCRT@D@ATL@@@@@0@ABV10@PBD@Z DD 0ffffffffH
	DD	FLAT:__unwindfunclet$??HATL@@YA?AV?$CStringT@DV?$StrTraitMFC_DLL@DV?$ChTraitsCRT@D@ATL@@@@@0@ABV10@PBD@Z$0
__ehfuncinfo$??HATL@@YA?AV?$CStringT@DV?$StrTraitMFC_DLL@DV?$ChTraitsCRT@D@ATL@@@@@0@ABV10@PBD@Z DD 019930522H
	DD	01H
	DD	FLAT:__unwindtable$??HATL@@YA?AV?$CStringT@DV?$StrTraitMFC_DLL@DV?$ChTraitsCRT@D@ATL@@@@@0@ABV10@PBD@Z
	DD	2 DUP(00H)
	DD	2 DUP(00H)
	DD	00H
	DD	01H
xdata$x	ENDS
;	COMDAT xdata$x
xdata$x	SEGMENT
__unwindtable$??HATL@@YA?AV?$CStringT@DV?$StrTraitMFC_DLL@DV?$ChTraitsCRT@D@ATL@@@@@0@ABV10@0@Z DD 0ffffffffH
	DD	FLAT:__unwindfunclet$??HATL@@YA?AV?$CStringT@DV?$StrTraitMFC_DLL@DV?$ChTraitsCRT@D@ATL@@@@@0@ABV10@0@Z$0
__ehfuncinfo$??HATL@@YA?AV?$CStringT@DV?$StrTraitMFC_DLL@DV?$ChTraitsCRT@D@ATL@@@@@0@ABV10@0@Z DD 019930522H
	DD	01H
	DD	FLAT:__unwindtable$??HATL@@YA?AV?$CStringT@DV?$StrTraitMFC_DLL@DV?$ChTraitsCRT@D@ATL@@@@@0@ABV10@0@Z
	DD	2 DUP(00H)
	DD	2 DUP(00H)
	DD	00H
	DD	01H
xdata$x	ENDS
; Function compile flags: /Ogtp
; File D:\git\src\IBK\IBK_DRFN\ProjSrc\SrcChartEx\ChartOCX\KTBChart\KTBChartCommonInterface.cpp
;	COMDAT ?InvalidateRect@CKTBChartCtrl@@UAEXABVCRect@@_N@Z
_TEXT	SEGMENT
_region$ = 8						; size = 4
_bErase$ = 12						; size = 1
?InvalidateRect@CKTBChartCtrl@@UAEXABVCRect@@_N@Z PROC	; CKTBChartCtrl::InvalidateRect, COMDAT
; _this$ = ecx

; 567  : }

  00000	c2 08 00	 ret	 8
?InvalidateRect@CKTBChartCtrl@@UAEXABVCRect@@_N@Z ENDP	; CKTBChartCtrl::InvalidateRect
_TEXT	ENDS
; Function compile flags: /Ogtp
; File D:\git\src\IBK\IBK_DRFN\ProjSrc\SrcChartEx\ChartOCX\KTBChart\KTBChartCommonInterface.cpp
;	COMDAT ?GetUserMargin@CKTBChartCtrl@@UBEHXZ
_TEXT	SEGMENT
?GetUserMargin@CKTBChartCtrl@@UBEHXZ PROC		; CKTBChartCtrl::GetUserMargin, COMDAT
; _this$ = ecx

; 360  : 	return m_nBongCountMargin;

  00000	0f bf 81 fc 02
	00 00		 movsx	 eax, WORD PTR [ecx+764]

; 361  : }

  00007	c3		 ret	 0
?GetUserMargin@CKTBChartCtrl@@UBEHXZ ENDP		; CKTBChartCtrl::GetUserMargin
_TEXT	ENDS
; Function compile flags: /Ogtp
; File D:\git\src\IBK\IBK_DRFN\ProjSrc\SrcChartEx\ChartOCX\KTBChart\KTBChartCommonInterface.cpp
; File C:\Program Files (x86)\Microsoft Visual Studio\2019\Community\VC\Tools\MSVC\14.29.30133\atlmfc\include\afxwin1.inl
; File D:\git\src\IBK\IBK_DRFN\ProjSrc\SrcChartEx\ChartOCX\Include_Chart\Dll_Load\IMetaTable.h
; File C:\Program Files (x86)\Microsoft Visual Studio\2019\Community\VC\Tools\MSVC\14.29.30133\atlmfc\include\afxwin1.inl
; File D:\git\src\IBK\IBK_DRFN\ProjSrc\SrcChartEx\ChartOCX\KTBChart\KTBChartCommonInterface.cpp
; File C:\Program Files (x86)\Microsoft Visual Studio\2019\Community\VC\Tools\MSVC\14.29.30133\atlmfc\include\afxwin1.inl
; File D:\git\src\IBK\IBK_DRFN\ProjSrc\SrcChartEx\ChartOCX\KTBChart\KTBChartCommonInterface.cpp
; File C:\Program Files (x86)\Microsoft Visual Studio\2019\Community\VC\Tools\MSVC\14.29.30133\atlmfc\include\afxwin1.inl
; File D:\git\src\IBK\IBK_DRFN\ProjSrc\SrcChartEx\ChartOCX\KTBChart\KTBChartCommonInterface.cpp
; File D:\git\src\IBK\IBK_DRFN\ProjSrc\SrcChartEx\ChartOCX\Include_Chart\Dll_Load\IMetaTable.h
; File C:\Program Files (x86)\Microsoft Visual Studio\2019\Community\VC\Tools\MSVC\14.29.30133\atlmfc\include\afxwin1.inl
; File C:\Program Files (x86)\Microsoft Visual Studio\2019\Community\VC\Tools\MSVC\14.29.30133\atlmfc\include\afxwin2.inl
; File D:\git\src\IBK\IBK_DRFN\ProjSrc\SrcChartEx\ChartOCX\KTBChart\KTBChartCommonInterface.cpp
;	COMDAT ?SetCursorExchange@CKTBChartCtrl@@UAEXW4CHARTOBJECT@CCursorShape@@@Z
_TEXT	SEGMENT
_this$1$ = -16						; size = 4
__$EHRec$ = -12						; size = 12
___mlrs__$2 = 8						; size = 4
_enumChartObject$ = 8					; size = 4
?SetCursorExchange@CKTBChartCtrl@@UAEXW4CHARTOBJECT@CCursorShape@@@Z PROC ; CKTBChartCtrl::SetCursorExchange, COMDAT
; _this$ = ecx

; 290  : {

  00000	55		 push	 ebp
  00001	8b ec		 mov	 ebp, esp
  00003	6a ff		 push	 -1
  00005	68 00 00 00 00	 push	 __ehhandler$?SetCursorExchange@CKTBChartCtrl@@UAEXW4CHARTOBJECT@CCursorShape@@@Z
  0000a	64 a1 00 00 00
	00		 mov	 eax, DWORD PTR fs:0
  00010	50		 push	 eax
  00011	51		 push	 ecx
  00012	53		 push	 ebx
  00013	56		 push	 esi
  00014	57		 push	 edi
  00015	a1 00 00 00 00	 mov	 eax, DWORD PTR ___security_cookie
  0001a	33 c5		 xor	 eax, ebp
  0001c	50		 push	 eax
  0001d	8d 45 f4	 lea	 eax, DWORD PTR __$EHRec$[ebp]
  00020	64 a3 00 00 00
	00		 mov	 DWORD PTR fs:0, eax
  00026	8b c1		 mov	 eax, ecx
  00028	89 45 f0	 mov	 DWORD PTR _this$1$[ebp], eax

; 291  : 	// 1. 요청한 Cursor Type에 따라 알맞은 Cursor를 Loading하여 등록한다.
; 292  : 	if( enumChartObject == CCursorShape::OBJECT_NONE)

  0002b	8b 4d 08	 mov	 ecx, DWORD PTR _enumChartObject$[ebp]
  0002e	85 c9		 test	 ecx, ecx
  00030	75 0b		 jne	 SHORT $LN4@SetCursorE

; 293  : 	{
; 294  : 		if( m_hCursor) 
; 295  : 		{
; 296  : 			TRACE( "\r\nCursor cleared in CKTBChartCtrl::SetCursorExchange()");
; 297  : 		}
; 298  : 		m_hCursor = NULL;

  00032	89 88 e8 04 00
	00		 mov	 DWORD PTR [eax+1256], ecx

; 299  : 	}

  00038	e9 b5 00 00 00	 jmp	 $LN31@SetCursorE
$LN4@SetCursorE:

; 300  : 	else
; 301  : 	{
; 302  : 		// 1.1  요청한 Cursor Type에 맞는 Resource ID를 확보한다.
; 303  : 		WORD wCursorID = 0;
; 304  : 		switch(enumChartObject)

  0003d	49		 dec	 ecx
  0003e	33 db		 xor	 ebx, ebx
  00040	83 f9 0d	 cmp	 ecx, 13			; 0000000dH
  00043	77 60		 ja	 SHORT $LN2@SetCursorE
  00045	ff 24 8d 00 00
	00 00		 jmp	 DWORD PTR $LN41@SetCursorE[ecx*4]
$LN7@SetCursorE:

; 305  : 		{
; 306  : 			case CCursorShape::BLOCKPOS_SPLITH:	
; 307  : 				wCursorID = IDC_SPLITV;

  0004c	bb df 00 00 00	 mov	 ebx, 223		; 000000dfH

; 308  : 				break;

  00051	eb 52		 jmp	 SHORT $LN2@SetCursorE
$LN8@SetCursorE:

; 309  : 			case CCursorShape::BLOCKPOS_SPLITV:	
; 310  : 				wCursorID = IDC_SPLITH;

  00053	bb de 00 00 00	 mov	 ebx, 222		; 000000deH

; 311  : 				break;

  00058	eb 4b		 jmp	 SHORT $LN2@SetCursorE
$LN9@SetCursorE:

; 312  : 			case CCursorShape::BLOCKPOS_SPLITA:	
; 313  : 				wCursorID = IDC_SPLITA;

  0005a	bb dd 00 00 00	 mov	 ebx, 221		; 000000ddH

; 314  : 				break;

  0005f	eb 44		 jmp	 SHORT $LN2@SetCursorE
$LN10@SetCursorE:

; 315  : 			case CCursorShape::OBJECT_SELECT:	
; 316  : 				wCursorID = IDC_HANDLE;

  00061	bb d4 00 00 00	 mov	 ebx, 212		; 000000d4H

; 317  : 				break;

  00066	eb 3d		 jmp	 SHORT $LN2@SetCursorE
$LN11@SetCursorE:

; 318  : 			case CCursorShape::OBJECT_MOVE:		
; 319  : 				wCursorID = IDC_GRAB;

  00068	bb d2 00 00 00	 mov	 ebx, 210		; 000000d2H

; 320  : 				break;

  0006d	eb 36		 jmp	 SHORT $LN2@SetCursorE
$LN12@SetCursorE:

; 321  : 			case CCursorShape::VIEW_ZOOM_IN:			
; 322  : 				wCursorID = IDC_ZOOMIN;

  0006f	bb e0 00 00 00	 mov	 ebx, 224		; 000000e0H

; 323  : 				break;

  00074	eb 2f		 jmp	 SHORT $LN2@SetCursorE
$LN13@SetCursorE:

; 324  : 			case CCursorShape::WHOLE_VIEW:		
; 325  : 				wCursorID = IDC_WHOLEVIEW;

  00076	bb e1 00 00 00	 mov	 ebx, 225		; 000000e1H

; 326  : 				break;

  0007b	eb 28		 jmp	 SHORT $LN2@SetCursorE
$LN14@SetCursorE:

; 327  : 			case CCursorShape::TOOL_DRAW:		
; 328  : 				wCursorID = IDC_PEN;

  0007d	bb dc 00 00 00	 mov	 ebx, 220		; 000000dcH

; 329  : 				break;

  00082	eb 21		 jmp	 SHORT $LN2@SetCursorE
$LN15@SetCursorE:

; 330  : 			case CCursorShape::TOOL_SIZEALL:	
; 331  : 				wCursorID = IDC_MOVEALL;

  00084	bb d6 00 00 00	 mov	 ebx, 214		; 000000d6H

; 332  : 				break;

  00089	eb 1a		 jmp	 SHORT $LN2@SetCursorE
$LN16@SetCursorE:

; 333  : 			case CCursorShape::TOOL_SIZENESW:	
; 334  : 				wCursorID = IDC_MOVENESW;

  0008b	bb d7 00 00 00	 mov	 ebx, 215		; 000000d7H

; 335  : 				break;

  00090	eb 13		 jmp	 SHORT $LN2@SetCursorE
$LN17@SetCursorE:

; 336  : 			case CCursorShape::TOOL_NODROP:		
; 337  : 				wCursorID = IDC_NODROP;

  00092	bb db 00 00 00	 mov	 ebx, 219		; 000000dbH

; 338  : 				break;

  00097	eb 0c		 jmp	 SHORT $LN2@SetCursorE
$LN18@SetCursorE:

; 339  : 			case CCursorShape::OBJECT_REMOVE:		
; 340  : 				wCursorID = IDC_REMOVE;

  00099	bb e2 00 00 00	 mov	 ebx, 226		; 000000e2H

; 341  : 				break;

  0009e	eb 05		 jmp	 SHORT $LN2@SetCursorE
$LN19@SetCursorE:

; 342  : 			// Graph 분리/삽입 - ojtaso (20070731)
; 343  : 			case CCursorShape::OBJECT_INSERT:		
; 344  : 				wCursorID = IDC_INSERT;

  000a0	bb e3 00 00 00	 mov	 ebx, 227		; 000000e3H
$LN2@SetCursorE:

; 348  : 		ML_SET_DEFAULT_RES();

  000a5	e8 00 00 00 00	 call	 ?AfxGetStaticModuleState@@YGPAVAFX_MODULE_STATE@@XZ ; AfxGetStaticModuleState
  000aa	8b 78 08	 mov	 edi, DWORD PTR [eax+8]
; File C:\Program Files (x86)\Microsoft Visual Studio\2019\Community\VC\Tools\MSVC\14.29.30133\atlmfc\include\afxwin1.inl

; 25   : 		return afxCurrentResourceHandle; }

  000ad	e8 00 00 00 00	 call	 ?AfxGetModuleState@@YGPAVAFX_MODULE_STATE@@XZ ; AfxGetModuleState
; File D:\git\src\IBK\IBK_DRFN\ProjSrc\SrcChartEx\ChartOCX\Include_Chart\Dll_Load\IMetaTable.h

; 1032 : 		m_hInstance = AfxGetResourceHandle();

  000b2	8b 70 0c	 mov	 esi, DWORD PTR [eax+12]
  000b5	89 75 08	 mov	 DWORD PTR ___mlrs__$2[ebp], esi
; File C:\Program Files (x86)\Microsoft Visual Studio\2019\Community\VC\Tools\MSVC\14.29.30133\atlmfc\include\afxwin1.inl

; 27   : 	{ ASSERT(hInstResource != NULL); afxCurrentResourceHandle = hInstResource; }

  000b8	e8 00 00 00 00	 call	 ?AfxGetModuleState@@YGPAVAFX_MODULE_STATE@@XZ ; AfxGetModuleState
  000bd	89 78 0c	 mov	 DWORD PTR [eax+12], edi
; File D:\git\src\IBK\IBK_DRFN\ProjSrc\SrcChartEx\ChartOCX\KTBChart\KTBChartCommonInterface.cpp

; 348  : 		ML_SET_DEFAULT_RES();

  000c0	c7 45 fc 00 00
	00 00		 mov	 DWORD PTR __$EHRec$[ebp+8], 0
; File C:\Program Files (x86)\Microsoft Visual Studio\2019\Community\VC\Tools\MSVC\14.29.30133\atlmfc\include\afxwin1.inl

; 22   : 		return afxCurrentInstanceHandle; }

  000c7	e8 00 00 00 00	 call	 ?AfxGetModuleState@@YGPAVAFX_MODULE_STATE@@XZ ; AfxGetModuleState
; File D:\git\src\IBK\IBK_DRFN\ProjSrc\SrcChartEx\ChartOCX\KTBChart\KTBChartCommonInterface.cpp

; 349  : 		m_hCursor = ::LoadCursor( AfxGetInstanceHandle(), MAKEINTRESOURCE( wCursorID));

  000cc	53		 push	 ebx
; File C:\Program Files (x86)\Microsoft Visual Studio\2019\Community\VC\Tools\MSVC\14.29.30133\atlmfc\include\afxwin1.inl

; 22   : 		return afxCurrentInstanceHandle; }

  000cd	8b 40 08	 mov	 eax, DWORD PTR [eax+8]
; File D:\git\src\IBK\IBK_DRFN\ProjSrc\SrcChartEx\ChartOCX\KTBChart\KTBChartCommonInterface.cpp

; 349  : 		m_hCursor = ::LoadCursor( AfxGetInstanceHandle(), MAKEINTRESOURCE( wCursorID));

  000d0	50		 push	 eax
  000d1	ff 15 00 00 00
	00		 call	 DWORD PTR __imp__LoadCursorA@8
  000d7	8b 4d f0	 mov	 ecx, DWORD PTR _this$1$[ebp]
  000da	89 81 e8 04 00
	00		 mov	 DWORD PTR [ecx+1256], eax
; File D:\git\src\IBK\IBK_DRFN\ProjSrc\SrcChartEx\ChartOCX\Include_Chart\Dll_Load\IMetaTable.h

; 1036 : 	{

  000e0	c7 45 fc 01 00
	00 00		 mov	 DWORD PTR __$EHRec$[ebp+8], 1
; File C:\Program Files (x86)\Microsoft Visual Studio\2019\Community\VC\Tools\MSVC\14.29.30133\atlmfc\include\afxwin1.inl

; 27   : 	{ ASSERT(hInstResource != NULL); afxCurrentResourceHandle = hInstResource; }

  000e7	e8 00 00 00 00	 call	 ?AfxGetModuleState@@YGPAVAFX_MODULE_STATE@@XZ ; AfxGetModuleState
  000ec	89 70 0c	 mov	 DWORD PTR [eax+12], esi
  000ef	8b 45 f0	 mov	 eax, DWORD PTR _this$1$[ebp]
$LN31@SetCursorE:
; File C:\Program Files (x86)\Microsoft Visual Studio\2019\Community\VC\Tools\MSVC\14.29.30133\atlmfc\include\afxwin2.inl

; 25   : 	{ return this == NULL ? NULL : m_hWnd; }

  000f2	8b 40 20	 mov	 eax, DWORD PTR [eax+32]

; 32   : 	{ ASSERT(::IsWindow(m_hWnd)); return ::SendMessage(m_hWnd, message, wParam, lParam); }

  000f5	6a 00		 push	 0
  000f7	50		 push	 eax
  000f8	6a 20		 push	 32			; 00000020H
  000fa	50		 push	 eax
  000fb	ff 15 00 00 00
	00		 call	 DWORD PTR __imp__SendMessageA@16
; File D:\git\src\IBK\IBK_DRFN\ProjSrc\SrcChartEx\ChartOCX\KTBChart\KTBChartCommonInterface.cpp

; 356  : }

  00101	8b 4d f4	 mov	 ecx, DWORD PTR __$EHRec$[ebp]
  00104	64 89 0d 00 00
	00 00		 mov	 DWORD PTR fs:0, ecx
  0010b	59		 pop	 ecx
  0010c	5f		 pop	 edi
  0010d	5e		 pop	 esi
  0010e	5b		 pop	 ebx
  0010f	8b e5		 mov	 esp, ebp
  00111	5d		 pop	 ebp
  00112	c2 04 00	 ret	 4
  00115	0f 1f 00	 npad	 3
$LN41@SetCursorE:
  00118	00 00 00 00	 DD	 $LN7@SetCursorE
  0011c	00 00 00 00	 DD	 $LN8@SetCursorE
  00120	00 00 00 00	 DD	 $LN9@SetCursorE
  00124	00 00 00 00	 DD	 $LN10@SetCursorE
  00128	00 00 00 00	 DD	 $LN11@SetCursorE
  0012c	00 00 00 00	 DD	 $LN14@SetCursorE
  00130	00 00 00 00	 DD	 $LN17@SetCursorE
  00134	00 00 00 00	 DD	 $LN15@SetCursorE
  00138	00 00 00 00	 DD	 $LN16@SetCursorE
  0013c	00 00 00 00	 DD	 $LN2@SetCursorE
  00140	00 00 00 00	 DD	 $LN12@SetCursorE
  00144	00 00 00 00	 DD	 $LN13@SetCursorE
  00148	00 00 00 00	 DD	 $LN18@SetCursorE
  0014c	00 00 00 00	 DD	 $LN19@SetCursorE
_TEXT	ENDS
;	COMDAT text$x
text$x	SEGMENT
__unwindfunclet$?SetCursorExchange@CKTBChartCtrl@@UAEXW4CHARTOBJECT@CCursorShape@@@Z$0:
  00000	8d 4d 08	 lea	 ecx, DWORD PTR ___mlrs__$2[ebp]
  00003	e9 00 00 00 00	 jmp	 ??1CMultiLanguageResourceSetter@@QAE@XZ ; CMultiLanguageResourceSetter::~CMultiLanguageResourceSetter
  00008	cc		 int	 3
  00009	cc		 int	 3
  0000a	cc		 int	 3
  0000b	cc		 int	 3
  0000c	cc		 int	 3
__ehhandler$?SetCursorExchange@CKTBChartCtrl@@UAEXW4CHARTOBJECT@CCursorShape@@@Z:
  0000d	90		 npad	 1
  0000e	90		 npad	 1
  0000f	8b 54 24 08	 mov	 edx, DWORD PTR [esp+8]
  00013	8d 42 0c	 lea	 eax, DWORD PTR [edx+12]
  00016	8b 4a ec	 mov	 ecx, DWORD PTR [edx-20]
  00019	33 c8		 xor	 ecx, eax
  0001b	e8 00 00 00 00	 call	 @__security_check_cookie@4
  00020	b8 00 00 00 00	 mov	 eax, OFFSET __ehfuncinfo$?SetCursorExchange@CKTBChartCtrl@@UAEXW4CHARTOBJECT@CCursorShape@@@Z
  00025	e9 00 00 00 00	 jmp	 ___CxxFrameHandler3
text$x	ENDS
?SetCursorExchange@CKTBChartCtrl@@UAEXW4CHARTOBJECT@CCursorShape@@@Z ENDP ; CKTBChartCtrl::SetCursorExchange
; Function compile flags: /Ogtp
; File D:\git\src\IBK\IBK_DRFN\ProjSrc\SrcChartEx\ChartOCX\KTBChart\KTBChartCommonInterface.cpp
;	COMDAT ?SetGraphTypeStyle@CKTBChartCtrl@@UAEXHH@Z
_TEXT	SEGMENT
_nGraphType$ = 8					; size = 4
_nDrawStyle$ = 12					; size = 4
?SetGraphTypeStyle@CKTBChartCtrl@@UAEXHH@Z PROC		; CKTBChartCtrl::SetGraphTypeStyle, COMDAT
; _this$ = ecx

; 581  : {

  00000	55		 push	 ebp
  00001	8b ec		 mov	 ebp, esp
  00003	56		 push	 esi
  00004	8b f1		 mov	 esi, ecx

; 582  : 	if(!m_pToolBarManager)

  00006	8b 8e 04 05 00
	00		 mov	 ecx, DWORD PTR [esi+1284]
  0000c	85 c9		 test	 ecx, ecx
  0000e	74 18		 je	 SHORT $LN1@SetGraphTy

; 583  : 		return;
; 584  : 	if(!m_pToolBarManager->GetToolOption(CToolOptionInfo::T_GRAPH_STYLE))

  00010	8b 01		 mov	 eax, DWORD PTR [ecx]
  00012	6a 07		 push	 7
  00014	ff 50 3c	 call	 DWORD PTR [eax+60]
  00017	85 c0		 test	 eax, eax
  00019	74 0d		 je	 SHORT $LN1@SetGraphTy

; 585  : 		return;
; 586  : 
; 587  : 	m_pToolBarManager->SetGraphType((CGraphBaseData::GRAPHTYPE) nGraphType, nDrawStyle);

  0001b	8b 8e 04 05 00
	00		 mov	 ecx, DWORD PTR [esi+1284]
  00021	5e		 pop	 esi
  00022	8b 01		 mov	 eax, DWORD PTR [ecx]

; 588  : }

  00024	5d		 pop	 ebp

; 585  : 		return;
; 586  : 
; 587  : 	m_pToolBarManager->SetGraphType((CGraphBaseData::GRAPHTYPE) nGraphType, nDrawStyle);

  00025	ff 60 14	 jmp	 DWORD PTR [eax+20]
$LN1@SetGraphTy:
  00028	5e		 pop	 esi

; 588  : }

  00029	5d		 pop	 ebp
  0002a	c2 08 00	 ret	 8
?SetGraphTypeStyle@CKTBChartCtrl@@UAEXHH@Z ENDP		; CKTBChartCtrl::SetGraphTypeStyle
_TEXT	ENDS
; Function compile flags: /Ogtp
; File D:\git\src\IBK\IBK_DRFN\ProjSrc\SrcChartEx\ChartOCX\KTBChart\KTBChartCommonInterface.cpp
;	COMDAT ?SetGraphThickness@CKTBChartCtrl@@UAEXH@Z
_TEXT	SEGMENT
_nGraphThickness1$ = 8					; size = 4
?SetGraphThickness@CKTBChartCtrl@@UAEXH@Z PROC		; CKTBChartCtrl::SetGraphThickness, COMDAT
; _this$ = ecx

; 591  : {

  00000	55		 push	 ebp
  00001	8b ec		 mov	 ebp, esp
  00003	56		 push	 esi
  00004	8b f1		 mov	 esi, ecx

; 592  : 	if(!m_pToolBarManager)

  00006	8b 8e 04 05 00
	00		 mov	 ecx, DWORD PTR [esi+1284]
  0000c	85 c9		 test	 ecx, ecx
  0000e	74 18		 je	 SHORT $LN1@SetGraphTh

; 593  : 		return;	
; 594  : 	if(!m_pToolBarManager->GetToolOption(CToolOptionInfo::T_GRAPH_THICKNESS))

  00010	8b 01		 mov	 eax, DWORD PTR [ecx]
  00012	6a 08		 push	 8
  00014	ff 50 3c	 call	 DWORD PTR [eax+60]
  00017	85 c0		 test	 eax, eax
  00019	74 0d		 je	 SHORT $LN1@SetGraphTh

; 595  : 		return;
; 596  : 
; 597  : 	m_pToolBarManager->SetLineThickness(nGraphThickness1);

  0001b	8b 8e 04 05 00
	00		 mov	 ecx, DWORD PTR [esi+1284]
  00021	5e		 pop	 esi
  00022	8b 01		 mov	 eax, DWORD PTR [ecx]

; 598  : }

  00024	5d		 pop	 ebp

; 595  : 		return;
; 596  : 
; 597  : 	m_pToolBarManager->SetLineThickness(nGraphThickness1);

  00025	ff 60 18	 jmp	 DWORD PTR [eax+24]
$LN1@SetGraphTh:
  00028	5e		 pop	 esi

; 598  : }

  00029	5d		 pop	 ebp
  0002a	c2 04 00	 ret	 4
?SetGraphThickness@CKTBChartCtrl@@UAEXH@Z ENDP		; CKTBChartCtrl::SetGraphThickness
_TEXT	ENDS
; Function compile flags: /Ogtp
; File D:\git\src\IBK\IBK_DRFN\ProjSrc\SrcChartEx\ChartOCX\KTBChart\KTBChartCommonInterface.cpp
; File C:\Program Files (x86)\Microsoft Visual Studio\2019\Community\VC\Tools\MSVC\14.29.30133\atlmfc\include\cstringt.h
; File D:\git\src\IBK\IBK_DRFN\ProjSrc\SrcChartEx\ChartOCX\KTBChart\KTBChartCommonInterface.cpp
; File C:\Program Files (x86)\Microsoft Visual Studio\2019\Community\VC\Tools\MSVC\14.29.30133\atlmfc\include\cstringt.h
; File D:\git\src\IBK\IBK_DRFN\ProjSrc\SrcChartEx\ChartOCX\KTBChart\KTBChartCommonInterface.cpp
; File C:\Program Files (x86)\Microsoft Visual Studio\2019\Community\VC\Tools\MSVC\14.29.30133\atlmfc\include\cstringt.h
; File D:\git\src\IBK\IBK_DRFN\ProjSrc\SrcChartEx\ChartOCX\KTBChart\KTBChartCommonInterface.cpp
;	COMDAT ?SetGraphSelectedDataIndex@CKTBChartCtrl@@UAEXHPBD@Z
_TEXT	SEGMENT
tv70 = -24						; size = 8
_strGraphName$ = -16					; size = 4
__$EHRec$ = -12						; size = 12
$T2 = 8							; size = 4
$T3 = 8							; size = 4
_nDataIndex$ = 8					; size = 4
_strDate$ = 12						; size = 4
_pcszGraphName$ = 12					; size = 4
?SetGraphSelectedDataIndex@CKTBChartCtrl@@UAEXHPBD@Z PROC ; CKTBChartCtrl::SetGraphSelectedDataIndex, COMDAT
; _this$ = ecx

; 253  : {

  00000	55		 push	 ebp
  00001	8b ec		 mov	 ebp, esp
  00003	6a ff		 push	 -1
  00005	68 00 00 00 00	 push	 __ehhandler$?SetGraphSelectedDataIndex@CKTBChartCtrl@@UAEXHPBD@Z
  0000a	64 a1 00 00 00
	00		 mov	 eax, DWORD PTR fs:0
  00010	50		 push	 eax
  00011	83 ec 0c	 sub	 esp, 12			; 0000000cH
  00014	56		 push	 esi
  00015	a1 00 00 00 00	 mov	 eax, DWORD PTR ___security_cookie
  0001a	33 c5		 xor	 eax, ebp
  0001c	50		 push	 eax
  0001d	8d 45 f4	 lea	 eax, DWORD PTR __$EHRec$[ebp]
  00020	64 a3 00 00 00
	00		 mov	 DWORD PTR fs:0, eax
  00026	8b f1		 mov	 esi, ecx

; 254  : 	CString strGraphName = pcszGraphName;

  00028	ff 75 0c	 push	 DWORD PTR _pcszGraphName$[ebp]
  0002b	8d 4d f0	 lea	 ecx, DWORD PTR _strGraphName$[ebp]
  0002e	ff 15 00 00 00
	00		 call	 DWORD PTR __imp_??0?$CStringT@DV?$StrTraitMFC_DLL@DV?$ChTraitsCRT@D@ATL@@@@@ATL@@QAE@PBD@Z

; 255  : 
; 256  : 	// 해당 index의 날짜를 얻어온다
; 257  : 	int nDate = (int)m_pPacketList->GetDataFromIndex( _MTEXT( C0_DATE_TIME), nDataIndex);

  00034	ff 75 08	 push	 DWORD PTR _nDataIndex$[ebp]
  00037	a1 54 00 00 00	 mov	 eax, DWORD PTR ?g_iMetaTable@@3VIMetaTable@@A+84
  0003c	51		 push	 ecx
  0003d	8b cc		 mov	 ecx, esp
  0003f	c7 45 fc 00 00
	00 00		 mov	 DWORD PTR __$EHRec$[ebp+8], 0
  00046	ff 30		 push	 DWORD PTR [eax]
  00048	ff 15 00 00 00
	00		 call	 DWORD PTR __imp_??0?$CStringT@DV?$StrTraitMFC_DLL@DV?$ChTraitsCRT@D@ATL@@@@@ATL@@QAE@PBD@Z
  0004e	8b 8e 3c 03 00
	00		 mov	 ecx, DWORD PTR [esi+828]
  00054	ff 15 00 00 00
	00		 call	 DWORD PTR __imp_?GetDataFromIndex@CPacketList@@QAENV?$CStringT@DV?$StrTraitMFC_DLL@DV?$ChTraitsCRT@D@ATL@@@@@ATL@@H@Z
  0005a	dd 5d e8	 fstp	 QWORD PTR tv70[ebp]
  0005d	f2 0f 2c 45 e8	 cvttsd2si eax, QWORD PTR tv70[ebp]

; 258  : 	CString strDate = CDataConversion::IntToString(nDate);

  00062	50		 push	 eax
  00063	8d 45 0c	 lea	 eax, DWORD PTR _strDate$[ebp]
  00066	50		 push	 eax
  00067	e8 00 00 00 00	 call	 ?IntToString@CDataConversion@@SA?AV?$CStringT@DV?$StrTraitMFC_DLL@DV?$ChTraitsCRT@D@ATL@@@@@ATL@@H@Z ; CDataConversion::IntToString
  0006c	83 c4 08	 add	 esp, 8
; File C:\Program Files (x86)\Microsoft Visual Studio\2019\Community\VC\Tools\MSVC\14.29.30133\atlmfc\include\cstringt.h

; 2486 : 		return(str1.Compare(psz2) == 0);

  0006f	68 00 00 00 00	 push	 OFFSET ??_C@_04IHEKLNBL@News@
  00074	8d 4d f0	 lea	 ecx, DWORD PTR _strGraphName$[ebp]
; File D:\git\src\IBK\IBK_DRFN\ProjSrc\SrcChartEx\ChartOCX\KTBChart\KTBChartCommonInterface.cpp

; 258  : 	CString strDate = CDataConversion::IntToString(nDate);

  00077	c6 45 fc 01	 mov	 BYTE PTR __$EHRec$[ebp+8], 1
; File C:\Program Files (x86)\Microsoft Visual Studio\2019\Community\VC\Tools\MSVC\14.29.30133\atlmfc\include\cstringt.h

; 2486 : 		return(str1.Compare(psz2) == 0);

  0007b	ff 15 00 00 00
	00		 call	 DWORD PTR __imp_?Compare@?$CStringT@DV?$StrTraitMFC_DLL@DV?$ChTraitsCRT@D@ATL@@@@@ATL@@QBEHPBD@Z
  00081	85 c0		 test	 eax, eax
; File D:\git\src\IBK\IBK_DRFN\ProjSrc\SrcChartEx\ChartOCX\KTBChart\KTBChartCommonInterface.cpp

; 260  : 	if(strGraphName == "News")

  00083	75 26		 jne	 SHORT $LN2@SetGraphSe

; 261  : 		NeoRequestMapLoad(3, "", strDate);

  00085	51		 push	 ecx
  00086	8d 45 0c	 lea	 eax, DWORD PTR _strDate$[ebp]
  00089	89 65 08	 mov	 DWORD PTR $T3[ebp], esp
  0008c	8b cc		 mov	 ecx, esp
  0008e	50		 push	 eax
  0008f	ff 15 00 00 00
	00		 call	 DWORD PTR __imp_??0?$CStringT@DV?$StrTraitMFC_DLL@DV?$ChTraitsCRT@D@ATL@@@@@ATL@@QAE@ABV01@@Z
  00095	51		 push	 ecx
  00096	8b cc		 mov	 ecx, esp
  00098	c6 45 fc 02	 mov	 BYTE PTR __$EHRec$[ebp+8], 2
  0009c	68 00 00 00 00	 push	 OFFSET ??_C@_00CNPNBAHC@@
  000a1	ff 15 00 00 00
	00		 call	 DWORD PTR __imp_??0?$CStringT@DV?$StrTraitMFC_DLL@DV?$ChTraitsCRT@D@ATL@@@@@ATL@@QAE@PBD@Z
  000a7	6a 03		 push	 3
  000a9	eb 3c		 jmp	 SHORT $LN18@SetGraphSe
$LN2@SetGraphSe:

; 263  : 	else if(strGraphName == _MTEXT( C2_DEAL_LIST))

  000ab	a1 54 00 00 00	 mov	 eax, DWORD PTR ?g_iMetaTable@@3VIMetaTable@@A+84
; File C:\Program Files (x86)\Microsoft Visual Studio\2019\Community\VC\Tools\MSVC\14.29.30133\atlmfc\include\cstringt.h

; 2486 : 		return(str1.Compare(psz2) == 0);

  000b0	8d 4d f0	 lea	 ecx, DWORD PTR _strGraphName$[ebp]
  000b3	ff b0 bc 0c 00
	00		 push	 DWORD PTR [eax+3260]
  000b9	ff 15 00 00 00
	00		 call	 DWORD PTR __imp_?Compare@?$CStringT@DV?$StrTraitMFC_DLL@DV?$ChTraitsCRT@D@ATL@@@@@ATL@@QBEHPBD@Z
  000bf	85 c0		 test	 eax, eax
; File D:\git\src\IBK\IBK_DRFN\ProjSrc\SrcChartEx\ChartOCX\KTBChart\KTBChartCommonInterface.cpp

; 263  : 	else if(strGraphName == _MTEXT( C2_DEAL_LIST))

  000c1	75 2f		 jne	 SHORT $LN4@SetGraphSe

; 264  : 		NeoRequestMapLoad(4, "", strDate);

  000c3	51		 push	 ecx
  000c4	8d 45 0c	 lea	 eax, DWORD PTR _strDate$[ebp]
  000c7	89 65 08	 mov	 DWORD PTR $T2[ebp], esp
  000ca	8b cc		 mov	 ecx, esp
  000cc	50		 push	 eax
  000cd	ff 15 00 00 00
	00		 call	 DWORD PTR __imp_??0?$CStringT@DV?$StrTraitMFC_DLL@DV?$ChTraitsCRT@D@ATL@@@@@ATL@@QAE@ABV01@@Z
  000d3	51		 push	 ecx
  000d4	8b cc		 mov	 ecx, esp
  000d6	c6 45 fc 03	 mov	 BYTE PTR __$EHRec$[ebp+8], 3
  000da	68 00 00 00 00	 push	 OFFSET ??_C@_00CNPNBAHC@@
  000df	ff 15 00 00 00
	00		 call	 DWORD PTR __imp_??0?$CStringT@DV?$StrTraitMFC_DLL@DV?$ChTraitsCRT@D@ATL@@@@@ATL@@QAE@PBD@Z
  000e5	6a 04		 push	 4
$LN18@SetGraphSe:

; 265  : }

  000e7	8b ce		 mov	 ecx, esi
  000e9	c6 45 fc 01	 mov	 BYTE PTR __$EHRec$[ebp+8], 1
  000ed	e8 00 00 00 00	 call	 ?NeoRequestMapLoad@CKTBChartCtrl@@IAEXHV?$CStringT@DV?$StrTraitMFC_DLL@DV?$ChTraitsCRT@D@ATL@@@@@ATL@@0@Z ; CKTBChartCtrl::NeoRequestMapLoad
$LN4@SetGraphSe:
  000f2	8d 4d 0c	 lea	 ecx, DWORD PTR _strDate$[ebp]
  000f5	ff 15 00 00 00
	00		 call	 DWORD PTR __imp_??1?$CStringT@DV?$StrTraitMFC_DLL@DV?$ChTraitsCRT@D@ATL@@@@@ATL@@QAE@XZ
  000fb	8d 4d f0	 lea	 ecx, DWORD PTR _strGraphName$[ebp]
  000fe	ff 15 00 00 00
	00		 call	 DWORD PTR __imp_??1?$CStringT@DV?$StrTraitMFC_DLL@DV?$ChTraitsCRT@D@ATL@@@@@ATL@@QAE@XZ
  00104	8b 4d f4	 mov	 ecx, DWORD PTR __$EHRec$[ebp]
  00107	64 89 0d 00 00
	00 00		 mov	 DWORD PTR fs:0, ecx
  0010e	59		 pop	 ecx
  0010f	5e		 pop	 esi
  00110	8b e5		 mov	 esp, ebp
  00112	5d		 pop	 ebp
  00113	c2 08 00	 ret	 8
_TEXT	ENDS
;	COMDAT text$x
text$x	SEGMENT
__unwindfunclet$?SetGraphSelectedDataIndex@CKTBChartCtrl@@UAEXHPBD@Z$0:
  00000	8d 4d f0	 lea	 ecx, DWORD PTR _strGraphName$[ebp]
  00003	ff 25 00 00 00
	00		 jmp	 DWORD PTR __imp_??1?$CStringT@DV?$StrTraitMFC_DLL@DV?$ChTraitsCRT@D@ATL@@@@@ATL@@QAE@XZ
__unwindfunclet$?SetGraphSelectedDataIndex@CKTBChartCtrl@@UAEXHPBD@Z$2:
  00009	8d 4d 0c	 lea	 ecx, DWORD PTR _strDate$[ebp]
  0000c	ff 25 00 00 00
	00		 jmp	 DWORD PTR __imp_??1?$CStringT@DV?$StrTraitMFC_DLL@DV?$ChTraitsCRT@D@ATL@@@@@ATL@@QAE@XZ
__unwindfunclet$?SetGraphSelectedDataIndex@CKTBChartCtrl@@UAEXHPBD@Z$3:
  00012	8b 4d 08	 mov	 ecx, DWORD PTR $T3[ebp]
  00015	ff 25 00 00 00
	00		 jmp	 DWORD PTR __imp_??1?$CStringT@DV?$StrTraitMFC_DLL@DV?$ChTraitsCRT@D@ATL@@@@@ATL@@QAE@XZ
__unwindfunclet$?SetGraphSelectedDataIndex@CKTBChartCtrl@@UAEXHPBD@Z$5:
  0001b	8b 4d 08	 mov	 ecx, DWORD PTR $T2[ebp]
  0001e	ff 25 00 00 00
	00		 jmp	 DWORD PTR __imp_??1?$CStringT@DV?$StrTraitMFC_DLL@DV?$ChTraitsCRT@D@ATL@@@@@ATL@@QAE@XZ
  00024	cc		 int	 3
  00025	cc		 int	 3
  00026	cc		 int	 3
  00027	cc		 int	 3
  00028	cc		 int	 3
__ehhandler$?SetGraphSelectedDataIndex@CKTBChartCtrl@@UAEXHPBD@Z:
  00029	90		 npad	 1
  0002a	90		 npad	 1
  0002b	8b 54 24 08	 mov	 edx, DWORD PTR [esp+8]
  0002f	8d 42 0c	 lea	 eax, DWORD PTR [edx+12]
  00032	8b 4a ec	 mov	 ecx, DWORD PTR [edx-20]
  00035	33 c8		 xor	 ecx, eax
  00037	e8 00 00 00 00	 call	 @__security_check_cookie@4
  0003c	b8 00 00 00 00	 mov	 eax, OFFSET __ehfuncinfo$?SetGraphSelectedDataIndex@CKTBChartCtrl@@UAEXHPBD@Z
  00041	e9 00 00 00 00	 jmp	 ___CxxFrameHandler3
text$x	ENDS
?SetGraphSelectedDataIndex@CKTBChartCtrl@@UAEXHPBD@Z ENDP ; CKTBChartCtrl::SetGraphSelectedDataIndex
; Function compile flags: /Ogtp
; File D:\git\src\IBK\IBK_DRFN\ProjSrc\SrcChartEx\ChartOCX\KTBChart\KTBChartCommonInterface.cpp
;	COMDAT ?GetBongCountMargin@CKTBChartCtrl@@UAEHXZ
_TEXT	SEGMENT
?GetBongCountMargin@CKTBChartCtrl@@UAEHXZ PROC		; CKTBChartCtrl::GetBongCountMargin, COMDAT
; _this$ = ecx

; 491  : 	return m_nBongCountMargin;

  00000	0f bf 81 fc 02
	00 00		 movsx	 eax, WORD PTR [ecx+764]

; 492  : 
; 493  : 	/*int nMargin = 0;
; 494  : 	bool bResult = m_OutsideCommonInterfaceFunction.MChart_GetRightMarginToOutside(nMargin);
; 495  : 
; 496  : 	if(false == bResult)
; 497  : 		nMargin = m_nBongCountMargin;
; 498  : 	return nMargin;*/
; 499  : }

  00007	c3		 ret	 0
?GetBongCountMargin@CKTBChartCtrl@@UAEHXZ ENDP		; CKTBChartCtrl::GetBongCountMargin
_TEXT	ENDS
; Function compile flags: /Ogtp
; File D:\git\src\IBK\IBK_DRFN\ProjSrc\SrcChartEx\ChartOCX\KTBChart\KTBChartCommonInterface.cpp
; File C:\Program Files (x86)\Microsoft Visual Studio\2019\Community\VC\Tools\MSVC\14.29.30133\atlmfc\include\atltypes.h
; File D:\git\src\IBK\IBK_DRFN\ProjSrc\SrcChartEx\ChartOCX\KTBChart\KTBChartCommonInterface.cpp
; File C:\Program Files (x86)\Microsoft Visual Studio\2019\Community\VC\Tools\MSVC\14.29.30133\atlmfc\include\atltypes.h
; File D:\git\src\IBK\IBK_DRFN\ProjSrc\SrcChartEx\ChartOCX\KTBChart\KTBChartCommonInterface.cpp
; File C:\Program Files (x86)\Microsoft Visual Studio\2019\Community\VC\Tools\MSVC\14.29.30133\atlmfc\include\atltypes.h
; File D:\git\src\IBK\IBK_DRFN\ProjSrc\SrcChartEx\ChartOCX\KTBChart\KTBChartCommonInterface.cpp
;	COMDAT ?ConvertYPositionToData@CKTBChartCtrl@@UAENHHHABN0_N1@Z
_TEXT	SEGMENT
_dData$ = -44						; size = 8
_dMin$ = -36						; size = 8
_dMax$ = -28						; size = 8
$T1 = -20						; size = 16
__$ArrayPad$ = -4					; size = 4
_nYPosition$ = 8					; size = 4
_nYPositionTop$ = 12					; size = 4
_nYPositionBottom$ = 16					; size = 4
_dDataMax$ = 20						; size = 4
_dDataMin$ = 24						; size = 4
_bLog$ = 28						; size = 1
_bReverse$ = 32						; size = 1
?ConvertYPositionToData@CKTBChartCtrl@@UAENHHHABN0_N1@Z PROC ; CKTBChartCtrl::ConvertYPositionToData, COMDAT
; _this$ = ecx

; 180  : {

  00000	55		 push	 ebp
  00001	8b ec		 mov	 ebp, esp
  00003	83 ec 2c	 sub	 esp, 44			; 0000002cH
  00006	a1 00 00 00 00	 mov	 eax, DWORD PTR ___security_cookie
  0000b	33 c5		 xor	 eax, ebp
  0000d	89 45 fc	 mov	 DWORD PTR __$ArrayPad$[ebp], eax

; 181  : 	double dMax = dDataMax;
; 182  : 	double dMin = dDataMin;
; 183  : 
; 184  : 	// 1. Check Reverse (Swap Data Min/Max)
; 185  : 	if( bReverse)

  00010	80 7d 20 00	 cmp	 BYTE PTR _bReverse$[ebp], 0
  00014	8b 45 14	 mov	 eax, DWORD PTR _dDataMax$[ebp]
  00017	8b 4d 18	 mov	 ecx, DWORD PTR _dDataMin$[ebp]
  0001a	f2 0f 10 08	 movsd	 xmm1, QWORD PTR [eax]
  0001e	f2 0f 10 01	 movsd	 xmm0, QWORD PTR [ecx]
  00022	f2 0f 11 4d e4	 movsd	 QWORD PTR _dMax$[ebp], xmm1
  00027	f2 0f 11 45 dc	 movsd	 QWORD PTR _dMin$[ebp], xmm0
  0002c	74 0a		 je	 SHORT $LN2@ConvertYPo

; 186  : 	{
; 187  : 		double dData	= dMax;
; 188  : 		dMax			= dMin;

  0002e	f2 0f 11 45 e4	 movsd	 QWORD PTR _dMax$[ebp], xmm0

; 189  : 		dMin		= dData;

  00033	f2 0f 11 4d dc	 movsd	 QWORD PTR _dMin$[ebp], xmm1
$LN2@ConvertYPo:

; 190  : 	}
; 191  : 
; 192  : 	// 2. Make Log Data
; 193  : 	if( bLog)

  00038	53		 push	 ebx
  00039	8a 5d 1c	 mov	 bl, BYTE PTR _bLog$[ebp]
  0003c	84 db		 test	 bl, bl
  0003e	74 1b		 je	 SHORT $LN3@ConvertYPo

; 194  : 	{
; 195  : 		dMax = CMath::Log( dMax);

  00040	8d 45 e4	 lea	 eax, DWORD PTR _dMax$[ebp]
  00043	50		 push	 eax
  00044	e8 00 00 00 00	 call	 ?Log@CMath@@SANABN@Z	; CMath::Log

; 196  : 		dMin = CMath::Log( dMin);

  00049	8d 45 dc	 lea	 eax, DWORD PTR _dMin$[ebp]
  0004c	dd 5d e4	 fstp	 QWORD PTR _dMax$[ebp]
  0004f	50		 push	 eax
  00050	e8 00 00 00 00	 call	 ?Log@CMath@@SANABN@Z	; CMath::Log
  00055	dd 5d dc	 fstp	 QWORD PTR _dMin$[ebp]
  00058	83 c4 08	 add	 esp, 8
$LN3@ConvertYPo:
; File C:\Program Files (x86)\Microsoft Visual Studio\2019\Community\VC\Tools\MSVC\14.29.30133\atlmfc\include\atltypes.h

; 541  : 	top = t;

  0005b	8b 45 0c	 mov	 eax, DWORD PTR _nYPositionTop$[ebp]
  0005e	89 45 f0	 mov	 DWORD PTR $T1[ebp+4], eax

; 543  : 	bottom = b;

  00061	8b 45 10	 mov	 eax, DWORD PTR _nYPositionBottom$[ebp]
  00064	89 45 f8	 mov	 DWORD PTR $T1[ebp+12], eax
; File D:\git\src\IBK\IBK_DRFN\ProjSrc\SrcChartEx\ChartOCX\KTBChart\KTBChartCommonInterface.cpp

; 200  : 	double dData = CDataConversion::AbsoluteToRelative_Y( CRect( 0, nYPositionTop, 0, nYPositionBottom),

  00067	8d 45 e4	 lea	 eax, DWORD PTR _dMax$[ebp]
  0006a	50		 push	 eax
  0006b	8d 45 dc	 lea	 eax, DWORD PTR _dMin$[ebp]
; File C:\Program Files (x86)\Microsoft Visual Studio\2019\Community\VC\Tools\MSVC\14.29.30133\atlmfc\include\atltypes.h

; 540  : 	left = l;

  0006e	c7 45 ec 00 00
	00 00		 mov	 DWORD PTR $T1[ebp], 0
; File D:\git\src\IBK\IBK_DRFN\ProjSrc\SrcChartEx\ChartOCX\KTBChart\KTBChartCommonInterface.cpp

; 200  : 	double dData = CDataConversion::AbsoluteToRelative_Y( CRect( 0, nYPositionTop, 0, nYPositionBottom),

  00075	50		 push	 eax
  00076	ff 75 08	 push	 DWORD PTR _nYPosition$[ebp]
  00079	8d 45 ec	 lea	 eax, DWORD PTR $T1[ebp]
; File C:\Program Files (x86)\Microsoft Visual Studio\2019\Community\VC\Tools\MSVC\14.29.30133\atlmfc\include\atltypes.h

; 542  : 	right = r;

  0007c	c7 45 f4 00 00
	00 00		 mov	 DWORD PTR $T1[ebp+8], 0
; File D:\git\src\IBK\IBK_DRFN\ProjSrc\SrcChartEx\ChartOCX\KTBChart\KTBChartCommonInterface.cpp

; 200  : 	double dData = CDataConversion::AbsoluteToRelative_Y( CRect( 0, nYPositionTop, 0, nYPositionBottom),

  00083	50		 push	 eax
  00084	e8 00 00 00 00	 call	 ?AbsoluteToRelative_Y@CDataConversion@@SANABVCRect@@HABN1@Z ; CDataConversion::AbsoluteToRelative_Y
  00089	83 c4 10	 add	 esp, 16			; 00000010H

; 201  : 		nYPosition, dMin, dMax);
; 202  : 
; 203  : 	// 4. Check Log
; 204  : 	if( bLog) return CMath::Exp( dData);

  0008c	84 db		 test	 bl, bl
  0008e	dd 55 d4	 fst	 QWORD PTR _dData$[ebp]
  00091	5b		 pop	 ebx
  00092	74 0e		 je	 SHORT $LN1@ConvertYPo
  00094	8d 45 d4	 lea	 eax, DWORD PTR _dData$[ebp]
  00097	dd d8		 fstp	 ST(0)
  00099	50		 push	 eax
  0009a	e8 00 00 00 00	 call	 ?Exp@CMath@@SANABN@Z	; CMath::Exp
  0009f	83 c4 04	 add	 esp, 4
$LN1@ConvertYPo:

; 205  : 	return dData;
; 206  : }

  000a2	8b 4d fc	 mov	 ecx, DWORD PTR __$ArrayPad$[ebp]
  000a5	33 cd		 xor	 ecx, ebp
  000a7	e8 00 00 00 00	 call	 @__security_check_cookie@4
  000ac	8b e5		 mov	 esp, ebp
  000ae	5d		 pop	 ebp
  000af	c2 1c 00	 ret	 28			; 0000001cH
?ConvertYPositionToData@CKTBChartCtrl@@UAENHHHABN0_N1@Z ENDP ; CKTBChartCtrl::ConvertYPositionToData
_TEXT	ENDS
; Function compile flags: /Ogtp
; File D:\git\src\IBK\IBK_DRFN\ProjSrc\SrcChartEx\ChartOCX\KTBChart\KTBChartCommonInterface.cpp
;	COMDAT ?GetRscFont@CKTBChartCtrl@@UBEPAVCFont@@XZ
_TEXT	SEGMENT
?GetRscFont@CKTBChartCtrl@@UBEPAVCFont@@XZ PROC		; CKTBChartCtrl::GetRscFont, COMDAT
; _this$ = ecx

; 78   : 	return m_pRscFont;

  00000	8b 81 b4 04 00
	00		 mov	 eax, DWORD PTR [ecx+1204]

; 79   : }

  00006	c3		 ret	 0
?GetRscFont@CKTBChartCtrl@@UBEPAVCFont@@XZ ENDP		; CKTBChartCtrl::GetRscFont
_TEXT	ENDS
; Function compile flags: /Ogtp
; File D:\git\src\IBK\IBK_DRFN\ProjSrc\SrcChartEx\ChartOCX\KTBChart\KTBChartCommonInterface.cpp
; File C:\Program Files (x86)\Microsoft Visual Studio\2019\Community\VC\Tools\MSVC\14.29.30133\atlmfc\include\atltypes.h
; File D:\git\src\IBK\IBK_DRFN\ProjSrc\SrcChartEx\ChartOCX\KTBChart\KTBChartCommonInterface.cpp
;	COMDAT ?GetToolBarRegion@CKTBChartCtrl@@UBE?AVCRect@@XZ
_TEXT	SEGMENT
$T1 = -20						; size = 16
__$ArrayPad$ = -4					; size = 4
___$ReturnUdt$ = 8					; size = 4
?GetToolBarRegion@CKTBChartCtrl@@UBE?AVCRect@@XZ PROC	; CKTBChartCtrl::GetToolBarRegion, COMDAT
; _this$ = ecx

; 58   : {

  00000	55		 push	 ebp
  00001	8b ec		 mov	 ebp, esp
  00003	83 ec 14	 sub	 esp, 20			; 00000014H
  00006	a1 00 00 00 00	 mov	 eax, DWORD PTR ___security_cookie
  0000b	33 c5		 xor	 eax, ebp
  0000d	89 45 fc	 mov	 DWORD PTR __$ArrayPad$[ebp], eax
  00010	56		 push	 esi
  00011	8b 75 08	 mov	 esi, DWORD PTR ___$ReturnUdt$[ebp]
  00014	57		 push	 edi
  00015	8b f9		 mov	 edi, ecx

; 60   : 	GetClientRect(&region);

  00017	56		 push	 esi
; File C:\Program Files (x86)\Microsoft Visual Studio\2019\Community\VC\Tools\MSVC\14.29.30133\atlmfc\include\atltypes.h

; 540  : 	left = l;

  00018	c7 06 00 00 00
	00		 mov	 DWORD PTR [esi], 0

; 541  : 	top = t;

  0001e	c7 46 04 00 00
	00 00		 mov	 DWORD PTR [esi+4], 0

; 542  : 	right = r;

  00025	c7 46 08 00 00
	00 00		 mov	 DWORD PTR [esi+8], 0

; 543  : 	bottom = b;

  0002c	c7 46 0c 00 00
	00 00		 mov	 DWORD PTR [esi+12], 0
; File D:\git\src\IBK\IBK_DRFN\ProjSrc\SrcChartEx\ChartOCX\KTBChart\KTBChartCommonInterface.cpp

; 60   : 	GetClientRect(&region);

  00033	8b 07		 mov	 eax, DWORD PTR [edi]
  00035	ff 90 a4 03 00
	00		 call	 DWORD PTR [eax+932]

; 61   : 
; 62   : 	// (2004.05.25, 배승원) 내부 ToolBar를 보이고, 숨기는 Interface를 제공한다.
; 63   : 	//		별도의 Flag을 두어, ToolBar를 OCX의 영역보다 아래쪽에 위치되도록 한다.
; 64   : 	// (2006/4/14 - Seung-Won, Bae) Add Real Toolbar Size.
; 65   : 	if( !m_bShowInnerToolBar && m_pToolBarManager) region.bottom += m_pToolBarManager->GetToolBarRect().Height();

  0003b	83 bf c8 04 00
	00 00		 cmp	 DWORD PTR [edi+1224], 0
  00042	75 1c		 jne	 SHORT $LN8@GetToolBar
  00044	8b 8f 04 05 00
	00		 mov	 ecx, DWORD PTR [edi+1284]
  0004a	85 c9		 test	 ecx, ecx
  0004c	74 12		 je	 SHORT $LN8@GetToolBar
  0004e	8b 11		 mov	 edx, DWORD PTR [ecx]
  00050	8d 45 ec	 lea	 eax, DWORD PTR $T1[ebp]
  00053	50		 push	 eax
  00054	ff 52 24	 call	 DWORD PTR [edx+36]
  00057	8b 48 0c	 mov	 ecx, DWORD PTR [eax+12]
  0005a	2b 48 04	 sub	 ecx, DWORD PTR [eax+4]
  0005d	01 4e 0c	 add	 DWORD PTR [esi+12], ecx
$LN8@GetToolBar:

; 66   : 
; 67   : 	return region;
; 68   : }

  00060	8b 4d fc	 mov	 ecx, DWORD PTR __$ArrayPad$[ebp]
  00063	8b c6		 mov	 eax, esi
  00065	5f		 pop	 edi
  00066	33 cd		 xor	 ecx, ebp
  00068	5e		 pop	 esi
  00069	e8 00 00 00 00	 call	 @__security_check_cookie@4
  0006e	8b e5		 mov	 esp, ebp
  00070	5d		 pop	 ebp
  00071	c2 04 00	 ret	 4
?GetToolBarRegion@CKTBChartCtrl@@UBE?AVCRect@@XZ ENDP	; CKTBChartCtrl::GetToolBarRegion
_TEXT	ENDS
; Function compile flags: /Ogtp
; File D:\git\src\IBK\IBK_DRFN\ProjSrc\SrcChartEx\ChartOCX\KTBChart\KTBChartCommonInterface.cpp
;	COMDAT ?GetDataCountForToolBar@CKTBChartCtrl@@UBEHXZ
_TEXT	SEGMENT
?GetDataCountForToolBar@CKTBChartCtrl@@UBEHXZ PROC	; CKTBChartCtrl::GetDataCountForToolBar, COMDAT
; _this$ = ecx

; 47   : 	return GetMaxDataCount();

  00000	e9 00 00 00 00	 jmp	 ?GetMaxDataCount@CKTBChartCtrl@@ABEHXZ ; CKTBChartCtrl::GetMaxDataCount
?GetDataCountForToolBar@CKTBChartCtrl@@UBEHXZ ENDP	; CKTBChartCtrl::GetDataCountForToolBar
_TEXT	ENDS
; Function compile flags: /Ogtp
; File D:\git\src\IBK\IBK_DRFN\ProjSrc\SrcChartEx\ChartOCX\KTBChart\KTBChartCommonInterface.cpp
;	COMDAT ?GetMinCountPerPage@CKTBChartCtrl@@UBEHXZ
_TEXT	SEGMENT
?GetMinCountPerPage@CKTBChartCtrl@@UBEHXZ PROC		; CKTBChartCtrl::GetMinCountPerPage, COMDAT
; _this$ = ecx

; 102  : 	return m_nMinDataCountOnOnePage;

  00000	0f bf 81 d4 02
	00 00		 movsx	 eax, WORD PTR [ecx+724]

; 103  : }

  00007	c3		 ret	 0
?GetMinCountPerPage@CKTBChartCtrl@@UBEHXZ ENDP		; CKTBChartCtrl::GetMinCountPerPage
_TEXT	ENDS
; Function compile flags: /Ogtp
; File D:\git\src\IBK\IBK_DRFN\ProjSrc\SrcChartEx\ChartOCX\KTBChart\KTBChartCommonInterface.cpp
;	COMDAT ?GetChartWindowPointer@CKTBChartCtrl@@UBEPAVCWnd@@XZ
_TEXT	SEGMENT
?GetChartWindowPointer@CKTBChartCtrl@@UBEPAVCWnd@@XZ PROC ; CKTBChartCtrl::GetChartWindowPointer, COMDAT
; _this$ = ecx

; 90   : 	return (CWnd*)this;

  00000	8b c1		 mov	 eax, ecx

; 91   : }

  00002	c3		 ret	 0
?GetChartWindowPointer@CKTBChartCtrl@@UBEPAVCWnd@@XZ ENDP ; CKTBChartCtrl::GetChartWindowPointer
_TEXT	ENDS
; Function compile flags: /Ogtp
; File D:\git\src\IBK\IBK_DRFN\ProjSrc\SrcChartEx\ChartOCX\KTBChart\KTBChartCommonInterface.cpp
;	COMDAT ?SetStateWholeView@CKTBChartCtrl@@UAEXH@Z
_TEXT	SEGMENT
_nParam$ = 8						; size = 4
?SetStateWholeView@CKTBChartCtrl@@UAEXH@Z PROC		; CKTBChartCtrl::SetStateWholeView, COMDAT
; _this$ = ecx

; 171  : {

  00000	55		 push	 ebp
  00001	8b ec		 mov	 ebp, esp

; 172  : 	if(nParam == 1)
; 173  : 		m_bWholeView = TRUE;
; 174  : 	else
; 175  : 		m_bWholeView = FALSE;
; 176  : }

  00003	33 c0		 xor	 eax, eax
  00005	83 7d 08 01	 cmp	 DWORD PTR _nParam$[ebp], 1
  00009	0f 94 c0	 sete	 al
  0000c	89 81 44 02 00
	00		 mov	 DWORD PTR [ecx+580], eax
  00012	5d		 pop	 ebp
  00013	c2 04 00	 ret	 4
?SetStateWholeView@CKTBChartCtrl@@UAEXH@Z ENDP		; CKTBChartCtrl::SetStateWholeView
_TEXT	ENDS
; Function compile flags: /Ogtp
; File D:\git\src\IBK\IBK_DRFN\ProjSrc\SrcChartEx\ChartOCX\KTBChart\KTBChartCommonInterface.cpp
;	COMDAT ?GetPageCountNextStep@CKTBChartCtrl@@UAEHHHIHH@Z
_TEXT	SEGMENT
_nSliderPos_Prev$ = 8					; size = 4
_nSliderPos_New$ = 12					; size = 4
_nSBCode$ = 16						; size = 4
_nMin$ = 20						; size = 4
_nMax$ = 24						; size = 4
?GetPageCountNextStep@CKTBChartCtrl@@UAEHHHIHH@Z PROC	; CKTBChartCtrl::GetPageCountNextStep, COMDAT
; _this$ = ecx

; 149  : {

  00000	55		 push	 ebp
  00001	8b ec		 mov	 ebp, esp

; 150  : 	return m_pxScaleManager->GetPageCountNextStep(nSliderPos_Prev, nSliderPos_New, nSBCode, nMin, nMax);

  00003	8b 89 38 03 00
	00		 mov	 ecx, DWORD PTR [ecx+824]
  00009	8b 01		 mov	 eax, DWORD PTR [ecx]

; 151  : }

  0000b	5d		 pop	 ebp

; 150  : 	return m_pxScaleManager->GetPageCountNextStep(nSliderPos_Prev, nSliderPos_New, nSBCode, nMin, nMax);

  0000c	ff a0 9c 00 00
	00		 jmp	 DWORD PTR [eax+156]
?GetPageCountNextStep@CKTBChartCtrl@@UAEHHHIHH@Z ENDP	; CKTBChartCtrl::GetPageCountNextStep
_TEXT	ENDS
; Function compile flags: /Ogtp
; File D:\git\src\IBK\IBK_DRFN\ProjSrc\SrcChartEx\ChartOCX\KTBChart\KTBChartCommonInterface.cpp
;	COMDAT ?SetStartEndIndex@CKTBChartCtrl@@UAEHHH@Z
_TEXT	SEGMENT
_nStartIndex$ = 8					; size = 4
_nEndIndex$ = 12					; size = 4
?SetStartEndIndex@CKTBChartCtrl@@UAEHHH@Z PROC		; CKTBChartCtrl::SetStartEndIndex, COMDAT
; _this$ = ecx

; 131  : {

  00000	55		 push	 ebp
  00001	8b ec		 mov	 ebp, esp
  00003	56		 push	 esi
  00004	8b f1		 mov	 esi, ecx

; 132  : 	if( IsWholeView() || !m_pxScaleManager) return FALSE;

  00006	8b 06		 mov	 eax, DWORD PTR [esi]
  00008	8b 80 08 03 00
	00		 mov	 eax, DWORD PTR [eax+776]
  0000e	ff d0		 call	 eax
  00010	84 c0		 test	 al, al
  00012	75 38		 jne	 SHORT $LN3@SetStartEn
  00014	8b 8e 38 03 00
	00		 mov	 ecx, DWORD PTR [esi+824]
  0001a	85 c9		 test	 ecx, ecx
  0001c	74 2e		 je	 SHORT $LN3@SetStartEn

; 133  : 
; 134  : 	m_pxScaleManager->SetStartEndDrawIdx_Cur( nStartIndex, nEndIndex);

  0001e	8b 01		 mov	 eax, DWORD PTR [ecx]
  00020	6a 00		 push	 0
  00022	ff 75 0c	 push	 DWORD PTR _nEndIndex$[ebp]
  00025	ff 75 08	 push	 DWORD PTR _nStartIndex$[ebp]
  00028	ff 90 94 00 00
	00		 call	 DWORD PTR [eax+148]

; 135  : 
; 136  : 	// (2008/12/21 - Seung-Won, Bae) do not call invalidate on real processing.
; 137  : 	if( !m_bOnRealProcessing) InvalidateControl();

  0002e	83 be f4 05 00
	00 00		 cmp	 DWORD PTR [esi+1524], 0
  00035	75 0b		 jne	 SHORT $LN4@SetStartEn
  00037	6a 01		 push	 1
  00039	6a 00		 push	 0
  0003b	8b ce		 mov	 ecx, esi
  0003d	e8 00 00 00 00	 call	 ?InvalidateControl@CKTBChartCtrl@@QAEXPBUtagRECT@@H@Z ; CKTBChartCtrl::InvalidateControl
$LN4@SetStartEn:

; 138  : 
; 139  : 	return TRUE;

  00042	b8 01 00 00 00	 mov	 eax, 1
  00047	5e		 pop	 esi

; 140  : }

  00048	5d		 pop	 ebp
  00049	c2 08 00	 ret	 8
$LN3@SetStartEn:

; 132  : 	if( IsWholeView() || !m_pxScaleManager) return FALSE;

  0004c	33 c0		 xor	 eax, eax
  0004e	5e		 pop	 esi

; 140  : }

  0004f	5d		 pop	 ebp
  00050	c2 08 00	 ret	 8
?SetStartEndIndex@CKTBChartCtrl@@UAEHHH@Z ENDP		; CKTBChartCtrl::SetStartEndIndex
_TEXT	ENDS
; Function compile flags: /Ogtp
; File D:\git\src\IBK\IBK_DRFN\ProjSrc\SrcChartEx\ChartOCX\KTBChart\KTBChartCommonInterface.cpp
;	COMDAT ?InvalidateOleControl@CKTBChartCtrl@@UAEX_N@Z
_TEXT	SEGMENT
$T1 = -20						; size = 16
__$ArrayPad$ = -4					; size = 4
_bIsResetBlockRegion$ = 8				; size = 1
?InvalidateOleControl@CKTBChartCtrl@@UAEX_N@Z PROC	; CKTBChartCtrl::InvalidateOleControl, COMDAT
; _this$ = ecx

; 31   : {

  00000	55		 push	 ebp
  00001	8b ec		 mov	 ebp, esp
  00003	83 ec 14	 sub	 esp, 20			; 00000014H
  00006	a1 00 00 00 00	 mov	 eax, DWORD PTR ___security_cookie
  0000b	33 c5		 xor	 eax, ebp
  0000d	89 45 fc	 mov	 DWORD PTR __$ArrayPad$[ebp], eax

; 32   : 	//sy 2006.04.24.
; 33   : 	if(bIsResetBlockRegion)

  00010	80 7d 08 00	 cmp	 BYTE PTR _bIsResetBlockRegion$[ebp], 0
  00014	57		 push	 edi
  00015	8b f9		 mov	 edi, ecx
  00017	74 20		 je	 SHORT $LN2@Invalidate

; 34   : 		m_pMainBlock->SetAllBlockRegion(GetMainBlockRegion());

  00019	8b 87 34 03 00
	00		 mov	 eax, DWORD PTR [edi+820]
  0001f	56		 push	 esi
  00020	8b 30		 mov	 esi, DWORD PTR [eax]
  00022	8d 45 ec	 lea	 eax, DWORD PTR $T1[ebp]
  00025	50		 push	 eax
  00026	e8 00 00 00 00	 call	 ?GetMainBlockRegion@CKTBChartCtrl@@QAE?AVCRect@@XZ ; CKTBChartCtrl::GetMainBlockRegion
  0002b	8b 8f 34 03 00
	00		 mov	 ecx, DWORD PTR [edi+820]
  00031	50		 push	 eax
  00032	ff 96 a0 00 00
	00		 call	 DWORD PTR [esi+160]
  00038	5e		 pop	 esi
$LN2@Invalidate:

; 35   : 
; 36   : 	this->InvalidateControl();

  00039	6a 01		 push	 1
  0003b	6a 00		 push	 0
  0003d	8b cf		 mov	 ecx, edi
  0003f	e8 00 00 00 00	 call	 ?InvalidateControl@CKTBChartCtrl@@QAEXPBUtagRECT@@H@Z ; CKTBChartCtrl::InvalidateControl

; 37   : }

  00044	8b 4d fc	 mov	 ecx, DWORD PTR __$ArrayPad$[ebp]
  00047	33 cd		 xor	 ecx, ebp
  00049	5f		 pop	 edi
  0004a	e8 00 00 00 00	 call	 @__security_check_cookie@4
  0004f	8b e5		 mov	 esp, ebp
  00051	5d		 pop	 ebp
  00052	c2 04 00	 ret	 4
?InvalidateOleControl@CKTBChartCtrl@@UAEX_N@Z ENDP	; CKTBChartCtrl::InvalidateOleControl
_TEXT	ENDS
; Function compile flags: /Ogtp
; File D:\git\src\IBK\IBK_DRFN\ProjSrc\SrcChartEx\ChartOCX\KTBChart\KTBChartCommonInterface.cpp
;	COMDAT ?IsWholeView@CKTBChartCtrl@@UBE_NXZ
_TEXT	SEGMENT
?IsWholeView@CKTBChartCtrl@@UBE_NXZ PROC		; CKTBChartCtrl::IsWholeView, COMDAT
; _this$ = ecx

; 117  : 	if(m_bWholeView)

  00000	83 b9 44 02 00
	00 00		 cmp	 DWORD PTR [ecx+580], 0
  00007	0f 95 c0	 setne	 al

; 118  : 		return true ;
; 119  : 	else
; 120  : 		return false ;
; 121  : }

  0000a	c3		 ret	 0
?IsWholeView@CKTBChartCtrl@@UBE_NXZ ENDP		; CKTBChartCtrl::IsWholeView
_TEXT	ENDS
; Function compile flags: /Ogtp
; File D:\git\src\IBK\IBK_DRFN\ProjSrc\SrcChartEx\ChartOCX\KTBChart\KTBChartCommonInterface.cpp
;	COMDAT ?SaveChartCfgInCurrentOCX@CKTBChartCtrl@@UAE_NXZ
_TEXT	SEGMENT
?SaveChartCfgInCurrentOCX@CKTBChartCtrl@@UAE_NXZ PROC	; CKTBChartCtrl::SaveChartCfgInCurrentOCX, COMDAT
; _this$ = ecx

; 577  : 	return SaveChartCfg();

  00000	6a 00		 push	 0
  00002	e8 00 00 00 00	 call	 ?SaveChartCfg@CKTBChartCtrl@@AAE_NH@Z ; CKTBChartCtrl::SaveChartCfg

; 578  : }

  00007	c3		 ret	 0
?SaveChartCfgInCurrentOCX@CKTBChartCtrl@@UAE_NXZ ENDP	; CKTBChartCtrl::SaveChartCfgInCurrentOCX
_TEXT	ENDS
; Function compile flags: /Ogtp
; File D:\git\src\IBK\IBK_DRFN\ProjSrc\SrcChartEx\ChartOCX\KTBChart\KTBChartCommonInterface.cpp
;	COMDAT ?GetShowMinMaxPrice@CKTBChartCtrl@@UAE_NXZ
_TEXT	SEGMENT
?GetShowMinMaxPrice@CKTBChartCtrl@@UAE_NXZ PROC		; CKTBChartCtrl::GetShowMinMaxPrice, COMDAT
; _this$ = ecx

; 554  : 	//추후 추가
; 555  : 	return true;

  00000	b0 01		 mov	 al, 1

; 556  : }

  00002	c3		 ret	 0
?GetShowMinMaxPrice@CKTBChartCtrl@@UAE_NXZ ENDP		; CKTBChartCtrl::GetShowMinMaxPrice
_TEXT	ENDS
; Function compile flags: /Ogtp
; File D:\git\src\IBK\IBK_DRFN\ProjSrc\SrcChartEx\ChartOCX\KTBChart\KTBChartCommonInterface.cpp
;	COMDAT ?GetAutoSave@CKTBChartCtrl@@UAE_NXZ
_TEXT	SEGMENT
_bAutoSave$ = -1					; size = 1
?GetAutoSave@CKTBChartCtrl@@UAE_NXZ PROC		; CKTBChartCtrl::GetAutoSave, COMDAT
; _this$ = ecx

; 539  : {

  00000	55		 push	 ebp
  00001	8b ec		 mov	 ebp, esp
  00003	51		 push	 ecx

; 540  : 	bool bAutoSave = true;
; 541  : 	bool bResult = m_OutsideCommonInterfaceFunction.MChart_GetAutoSaveToOutside(bAutoSave);

  00004	8d 45 ff	 lea	 eax, DWORD PTR _bAutoSave$[ebp]
  00007	c6 45 ff 01	 mov	 BYTE PTR _bAutoSave$[ebp], 1
  0000b	50		 push	 eax
  0000c	81 c1 0c 05 00
	00		 add	 ecx, 1292		; 0000050cH
  00012	e8 00 00 00 00	 call	 ?MChart_GetAutoSaveToOutside@COutsideCommonInterfaceFunction@@QAE_NAA_N@Z ; COutsideCommonInterfaceFunction::MChart_GetAutoSaveToOutside

; 542  : 	return bAutoSave;

  00017	8a 45 ff	 mov	 al, BYTE PTR _bAutoSave$[ebp]

; 543  : }

  0001a	8b e5		 mov	 esp, ebp
  0001c	5d		 pop	 ebp
  0001d	c3		 ret	 0
?GetAutoSave@CKTBChartCtrl@@UAE_NXZ ENDP		; CKTBChartCtrl::GetAutoSave
_TEXT	ENDS
; Function compile flags: /Ogtp
; File D:\git\src\IBK\IBK_DRFN\ProjSrc\SrcChartEx\ChartOCX\KTBChart\KTBChartCommonInterface.cpp
;	COMDAT ?GetShowTrendLineValue@CKTBChartCtrl@@UAEHXZ
_TEXT	SEGMENT
?GetShowTrendLineValue@CKTBChartCtrl@@UAEHXZ PROC	; CKTBChartCtrl::GetShowTrendLineValue, COMDAT
; _this$ = ecx

; 528  : 	// 잠시대기!
; 529  : 	return 1;

  00000	b8 01 00 00 00	 mov	 eax, 1

; 530  : }

  00005	c3		 ret	 0
?GetShowTrendLineValue@CKTBChartCtrl@@UAEHXZ ENDP	; CKTBChartCtrl::GetShowTrendLineValue
_TEXT	ENDS
; Function compile flags: /Ogtp
; File D:\git\src\IBK\IBK_DRFN\ProjSrc\SrcChartEx\ChartOCX\KTBChart\KTBChartCommonInterface.cpp
;	COMDAT ?GetShowIndicatorValue@CKTBChartCtrl@@UAE_NXZ
_TEXT	SEGMENT
?GetShowIndicatorValue@CKTBChartCtrl@@UAE_NXZ PROC	; CKTBChartCtrl::GetShowIndicatorValue, COMDAT
; _this$ = ecx

; 510  : 	return (m_bUseDatatoTitle ? true : false);

  00000	83 b9 a8 02 00
	00 00		 cmp	 DWORD PTR [ecx+680], 0
  00007	0f 95 c0	 setne	 al

; 511  : 
; 512  : 	/*bool bShowIndicatorValue = true;
; 513  : 	bool bResult = m_OutsideCommonInterfaceFunction.MChart_GetShowIndicatorValueToOutside(bShowIndicatorValue);
; 514  : 
; 515  : 	if(false == bResult)
; 516  : 		bShowIndicatorValue = m_bUseDatatoTitle ? true : false;
; 517  : 	return bShowIndicatorValue;*/
; 518  : }

  0000a	c3		 ret	 0
?GetShowIndicatorValue@CKTBChartCtrl@@UAE_NXZ ENDP	; CKTBChartCtrl::GetShowIndicatorValue
_TEXT	ENDS
; Function compile flags: /Ogtp
; File D:\git\src\IBK\IBK_DRFN\ProjSrc\SrcChartEx\ChartOCX\KTBChart\KTBChartCommonInterface.cpp
;	COMDAT ?GetImaginaryCandle@CKTBChartCtrl@@UAE_NXZ
_TEXT	SEGMENT
?GetImaginaryCandle@CKTBChartCtrl@@UAE_NXZ PROC		; CKTBChartCtrl::GetImaginaryCandle, COMDAT
; _this$ = ecx

; 474  : 	/*bool bImaginaryCandle = false;
; 475  : 	if(!m_OutsideCommonInterfaceFunction.MChart_GetImaginaryCandleToOutside(bImaginaryCandle))
; 476  : 		return m_bNormalizedMinuteTimeRule;
; 477  : 
; 478  : 	return bImaginaryCandle;*/
; 479  : 	return m_bNormalizedMinuteTimeRule;

  00000	83 b9 1c 02 00
	00 00		 cmp	 DWORD PTR [ecx+540], 0
  00007	0f 95 c0	 setne	 al

; 480  : }

  0000a	c3		 ret	 0
?GetImaginaryCandle@CKTBChartCtrl@@UAE_NXZ ENDP		; CKTBChartCtrl::GetImaginaryCandle
_TEXT	ENDS
; Function compile flags: /Ogtp
; File D:\git\src\IBK\IBK_DRFN\ProjSrc\SrcChartEx\ChartOCX\KTBChart\KTBChartCommonInterface.cpp
;	COMDAT ?SetShowMinMaxPrice@CKTBChartCtrl@@UAEX_N0@Z
_TEXT	SEGMENT
_bShow$ = 8						; size = 1
_bOutside$ = 12						; size = 1
?SetShowMinMaxPrice@CKTBChartCtrl@@UAEX_N0@Z PROC	; CKTBChartCtrl::SetShowMinMaxPrice, COMDAT
; _this$ = ecx

; 462  : 	//추후 추가
; 463  : }

  00000	c2 08 00	 ret	 8
?SetShowMinMaxPrice@CKTBChartCtrl@@UAEX_N0@Z ENDP	; CKTBChartCtrl::SetShowMinMaxPrice
_TEXT	ENDS
; Function compile flags: /Ogtp
; File D:\git\src\IBK\IBK_DRFN\ProjSrc\SrcChartEx\ChartOCX\KTBChart\KTBChartCommonInterface.cpp
;	COMDAT ?SetAutoSave@CKTBChartCtrl@@UAEX_N0@Z
_TEXT	SEGMENT
_bAutoSave$ = 8						; size = 1
_bOutside$ = 12						; size = 1
?SetAutoSave@CKTBChartCtrl@@UAEX_N0@Z PROC		; CKTBChartCtrl::SetAutoSave, COMDAT
; _this$ = ecx

; 448  : {

  00000	55		 push	 ebp
  00001	8b ec		 mov	 ebp, esp

; 449  : 	if(bOutside)

  00003	80 7d 0c 00	 cmp	 BYTE PTR _bOutside$[ebp], 0
  00007	74 0e		 je	 SHORT $LN2@SetAutoSav

; 450  : 		m_OutsideCommonInterfaceFunction.MChart_SetAutoSaveToOutside(bAutoSave);

  00009	ff 75 08	 push	 DWORD PTR _bAutoSave$[ebp]
  0000c	81 c1 0c 05 00
	00		 add	 ecx, 1292		; 0000050cH
  00012	e8 00 00 00 00	 call	 ?MChart_SetAutoSaveToOutside@COutsideCommonInterfaceFunction@@QAE_N_N@Z ; COutsideCommonInterfaceFunction::MChart_SetAutoSaveToOutside
$LN2@SetAutoSav:

; 451  : }

  00017	5d		 pop	 ebp
  00018	c2 08 00	 ret	 8
?SetAutoSave@CKTBChartCtrl@@UAEX_N0@Z ENDP		; CKTBChartCtrl::SetAutoSave
_TEXT	ENDS
; Function compile flags: /Ogtp
; File D:\git\src\IBK\IBK_DRFN\ProjSrc\SrcChartEx\ChartOCX\KTBChart\KTBChartCommonInterface.cpp
;	COMDAT ?SetShowTrendLineValue@CKTBChartCtrl@@UAEXH_N@Z
_TEXT	SEGMENT
_nPosition$ = 8						; size = 4
_bOutside$ = 12						; size = 1
?SetShowTrendLineValue@CKTBChartCtrl@@UAEXH_N@Z PROC	; CKTBChartCtrl::SetShowTrendLineValue, COMDAT
; _this$ = ecx

; 435  : {

  00000	55		 push	 ebp
  00001	8b ec		 mov	 ebp, esp

; 436  : 	if(bOutside)

  00003	80 7d 0c 00	 cmp	 BYTE PTR _bOutside$[ebp], 0
  00007	74 0e		 je	 SHORT $LN2@SetShowTre

; 437  : 		m_OutsideCommonInterfaceFunction.MChart_SetShowTrendLineValueToOutside(nPosition);

  00009	ff 75 08	 push	 DWORD PTR _nPosition$[ebp]
  0000c	81 c1 0c 05 00
	00		 add	 ecx, 1292		; 0000050cH
  00012	e8 00 00 00 00	 call	 ?MChart_SetShowTrendLineValueToOutside@COutsideCommonInterfaceFunction@@QAE_NH@Z ; COutsideCommonInterfaceFunction::MChart_SetShowTrendLineValueToOutside
$LN2@SetShowTre:

; 438  : }

  00017	5d		 pop	 ebp
  00018	c2 08 00	 ret	 8
?SetShowTrendLineValue@CKTBChartCtrl@@UAEXH_N@Z ENDP	; CKTBChartCtrl::SetShowTrendLineValue
_TEXT	ENDS
; Function compile flags: /Ogtp
; File D:\git\src\IBK\IBK_DRFN\ProjSrc\SrcChartEx\ChartOCX\KTBChart\KTBChartCommonInterface.cpp
;	COMDAT ?SetNumericalInquiryOption@CKTBChartCtrl@@UAEXJ_N@Z
_TEXT	SEGMENT
_p_nNumericalInquiryOption$ = 8				; size = 4
_bOutside$ = 12						; size = 1
?SetNumericalInquiryOption@CKTBChartCtrl@@UAEXJ_N@Z PROC ; CKTBChartCtrl::SetNumericalInquiryOption, COMDAT
; _this$ = ecx

; 410  : {

  00000	55		 push	 ebp
  00001	8b ec		 mov	 ebp, esp

; 411  : 	m_nNumericalInquiryOption = p_nNumericalInquiryOption;

  00003	8b 45 08	 mov	 eax, DWORD PTR _p_nNumericalInquiryOption$[ebp]
  00006	56		 push	 esi
  00007	8b f1		 mov	 esi, ecx

; 412  : 
; 413  : 	// (2006/2/28 - Seung-Won, Bae) in Drag Zoom Flag (Not NIDLG Flag), Clear Cross Line Flag.
; 414  : 	// (2006/3/3 - Seung-Won, Bae) Do not check. Because It can use with Script and Inner ToolBar's Controlling.
; 415  : 	//		So check in EnvSetup DLL
; 416  : //	if( !( m_nNumericalInquiryOption & NUMERICALINQUIRYDLG)) m_nNumericalInquiryOption &= ~CROSSLINEVIEW;
; 417  : 
; 418  : 	// (2006/2/9 - Seung-Won, Bae) Notify AddIn Tools
; 419  : 	if( m_pAddInManager) m_pAddInManager->OnAddInToolCommand( EAI_ALL_ON_CHANGE_CURSOR_MODE, m_nNumericalInquiryOption);

  00009	8b 8e cc 04 00
	00		 mov	 ecx, DWORD PTR [esi+1228]
  0000f	89 86 e4 02 00
	00		 mov	 DWORD PTR [esi+740], eax
  00015	85 c9		 test	 ecx, ecx
  00017	74 09		 je	 SHORT $LN2@SetNumeric
  00019	50		 push	 eax
  0001a	6a 1e		 push	 30			; 0000001eH
  0001c	ff 15 00 00 00
	00		 call	 DWORD PTR __imp_?OnAddInToolCommand@CAddInManager@@QAEHW4EAICommandType@@J@Z
$LN2@SetNumeric:

; 420  : 
; 421  : 	// (2006/3/4 - Seung-Won, Bae) Notify to ToolBar for UI
; 422  : 	if( m_pToolBarManager) m_pToolBarManager->OnNumericalInquiryOptionChanged( m_nNumericalInquiryOption);

  00022	8b 8e 04 05 00
	00		 mov	 ecx, DWORD PTR [esi+1284]
  00028	85 c9		 test	 ecx, ecx
  0002a	74 0b		 je	 SHORT $LN3@SetNumeric
  0002c	8b 01		 mov	 eax, DWORD PTR [ecx]
  0002e	ff b6 e4 02 00
	00		 push	 DWORD PTR [esi+740]
  00034	ff 50 48	 call	 DWORD PTR [eax+72]
$LN3@SetNumeric:
  00037	5e		 pop	 esi

; 423  : 
; 424  : //	if(bOutside)
; 425  : //		m_OutsideCommonInterfaceFunction.MChart_SetInquiryDataWindowTypeToOutside(nWindowType);
; 426  : }

  00038	5d		 pop	 ebp
  00039	c2 08 00	 ret	 8
?SetNumericalInquiryOption@CKTBChartCtrl@@UAEXJ_N@Z ENDP ; CKTBChartCtrl::SetNumericalInquiryOption
_TEXT	ENDS
; Function compile flags: /Ogtp
; File D:\git\src\IBK\IBK_DRFN\ProjSrc\SrcChartEx\ChartOCX\KTBChart\KTBChartCommonInterface.cpp
;	COMDAT ?AddRemoveGraph@CKTBChartCtrl@@UAE_NPBD@Z
_TEXT	SEGMENT
_pcszGraphName$ = 8					; size = 4
?AddRemoveGraph@CKTBChartCtrl@@UAE_NPBD@Z PROC		; CKTBChartCtrl::AddRemoveGraph, COMDAT
; _this$ = ecx

; 248  : {

  00000	55		 push	 ebp
  00001	8b ec		 mov	 ebp, esp

; 249  : 	return AddChartBlock(pcszGraphName) ? true : false;

  00003	ff 75 08	 push	 DWORD PTR _pcszGraphName$[ebp]
  00006	e8 00 00 00 00	 call	 ?AddChartBlock@CKTBChartCtrl@@IAEHPBD@Z ; CKTBChartCtrl::AddChartBlock
  0000b	85 c0		 test	 eax, eax
  0000d	0f 95 c0	 setne	 al

; 250  : }

  00010	5d		 pop	 ebp
  00011	c2 04 00	 ret	 4
?AddRemoveGraph@CKTBChartCtrl@@UAE_NPBD@Z ENDP		; CKTBChartCtrl::AddRemoveGraph
_TEXT	ENDS
; Function compile flags: /Ogtp
; File D:\git\src\IBK\IBK_DRFN\ProjSrc\SrcChartEx\ChartOCX\KTBChart\KTBChartCommonInterface.cpp
;	COMDAT ?RemoveChartCfgFromIndexToEnd@CKTBChartCtrl@@UAE_NH@Z
_TEXT	SEGMENT
_nTailIndex$ = 8					; size = 4
?RemoveChartCfgFromIndexToEnd@CKTBChartCtrl@@UAE_NH@Z PROC ; CKTBChartCtrl::RemoveChartCfgFromIndexToEnd, COMDAT
; _this$ = ecx

; 603  : {

  00000	55		 push	 ebp
  00001	8b ec		 mov	 ebp, esp

; 604  : 	return m_SaveChartcfg.RemoveFromIndexToEnd(nTailIndex);

  00003	81 c1 e4 03 00
	00		 add	 ecx, 996		; 000003e4H

; 605  : }

  00009	5d		 pop	 ebp

; 604  : 	return m_SaveChartcfg.RemoveFromIndexToEnd(nTailIndex);

  0000a	e9 00 00 00 00	 jmp	 ?RemoveFromIndexToEnd@CSaveChartCfgList@@QAE_NH@Z ; CSaveChartCfgList::RemoveFromIndexToEnd
?RemoveChartCfgFromIndexToEnd@CKTBChartCtrl@@UAE_NH@Z ENDP ; CKTBChartCtrl::RemoveChartCfgFromIndexToEnd
_TEXT	ENDS
; Function compile flags: /Ogtp
; File D:\git\src\IBK\IBK_DRFN\ProjSrc\SrcChartEx\ChartOCX\KTBChart\KTBChartCommonInterface.cpp
;	COMDAT ?RestoreChartCfg@CKTBChartCtrl@@QAE_NH@Z
_TEXT	SEGMENT
_nIndex$ = 8						; size = 4
?RestoreChartCfg@CKTBChartCtrl@@QAE_NH@Z PROC		; CKTBChartCtrl::RestoreChartCfg, COMDAT
; _this$ = ecx

; 232  : {

  00000	55		 push	 ebp
  00001	8b ec		 mov	 ebp, esp
  00003	56		 push	 esi
  00004	8b f1		 mov	 esi, ecx

; 233  : 	CChartCfg* pChartCfg = m_SaveChartcfg.GetChartCfg(nIndex, true);

  00006	6a 01		 push	 1
  00008	ff 75 08	 push	 DWORD PTR _nIndex$[ebp]
  0000b	8d 8e e4 03 00
	00		 lea	 ecx, DWORD PTR [esi+996]
  00011	e8 00 00 00 00	 call	 ?GetChartCfg@CSaveChartCfgList@@QAEPAVCChartCfg@@H_N@Z ; CSaveChartCfgList::GetChartCfg

; 234  : 	
; 235  : 	if(!pChartCfg)

  00016	85 c0		 test	 eax, eax
  00018	75 07		 jne	 SHORT $LN2@RestoreCha

; 236  : 		return false;

  0001a	32 c0		 xor	 al, al
  0001c	5e		 pop	 esi

; 238  : }

  0001d	5d		 pop	 ebp
  0001e	c2 04 00	 ret	 4
$LN2@RestoreCha:

; 237  : 	return ResetSaveChartCfg(pChartCfg, false);

  00021	6a 00		 push	 0
  00023	50		 push	 eax
  00024	8b ce		 mov	 ecx, esi
  00026	e8 00 00 00 00	 call	 ?ResetSaveChartCfg@CKTBChartCtrl@@AAE_NPAVCChartCfg@@_N@Z ; CKTBChartCtrl::ResetSaveChartCfg
  0002b	5e		 pop	 esi

; 238  : }

  0002c	5d		 pop	 ebp
  0002d	c2 04 00	 ret	 4
?RestoreChartCfg@CKTBChartCtrl@@QAE_NH@Z ENDP		; CKTBChartCtrl::RestoreChartCfg
_TEXT	ENDS
; Function compile flags: /Ogtp
; File D:\git\src\IBK\IBK_DRFN\ProjSrc\SrcChartEx\ChartOCX\KTBChart\KTBChartCommonInterface.cpp
; File C:\Program Files (x86)\Microsoft Visual Studio\2019\Community\VC\Tools\MSVC\14.29.30133\atlmfc\include\afxwin2.inl
; File D:\git\src\IBK\IBK_DRFN\ProjSrc\SrcChartEx\ChartOCX\KTBChart\KTBChartCommonInterface.cpp
;	COMDAT ?InvalidateOCX@CKTBChartCtrl@@UAEX_N@Z
_TEXT	SEGMENT
_bErase$ = 8						; size = 1
?InvalidateOCX@CKTBChartCtrl@@UAEX_N@Z PROC		; CKTBChartCtrl::InvalidateOCX, COMDAT
; _this$ = ecx

; 219  : {

  00000	55		 push	 ebp
  00001	8b ec		 mov	 ebp, esp

; 220  : 	this->Invalidate((bErase? TRUE:FALSE));

  00003	0f b6 45 08	 movzx	 eax, BYTE PTR _bErase$[ebp]
; File C:\Program Files (x86)\Microsoft Visual Studio\2019\Community\VC\Tools\MSVC\14.29.30133\atlmfc\include\afxwin2.inl

; 114  : 	{ ASSERT(::IsWindow(m_hWnd)); ::InvalidateRect(m_hWnd, NULL, bErase); }

  00007	50		 push	 eax
  00008	6a 00		 push	 0
  0000a	ff 71 20	 push	 DWORD PTR [ecx+32]
  0000d	ff 15 00 00 00
	00		 call	 DWORD PTR __imp__InvalidateRect@12
; File D:\git\src\IBK\IBK_DRFN\ProjSrc\SrcChartEx\ChartOCX\KTBChart\KTBChartCommonInterface.cpp

; 221  : }

  00013	5d		 pop	 ebp
  00014	c2 04 00	 ret	 4
?InvalidateOCX@CKTBChartCtrl@@UAEX_N@Z ENDP		; CKTBChartCtrl::InvalidateOCX
_TEXT	ENDS
; Function compile flags: /Ogtp
; File D:\git\src\IBK\IBK_DRFN\ProjSrc\SrcChartEx\ChartOCX\KTBChart\KTBChartCommonInterface.cpp
; File C:\Program Files (x86)\Microsoft Visual Studio\2019\Community\VC\Tools\MSVC\14.29.30133\atlmfc\include\cstringt.h
; File D:\git\src\IBK\IBK_DRFN\ProjSrc\SrcChartEx\ChartOCX\KTBChart\KTBChartCommonInterface.cpp
; File C:\Program Files (x86)\Microsoft Visual Studio\2019\Community\VC\Tools\MSVC\14.29.30133\atlmfc\include\cstringt.h
; File C:\Program Files (x86)\Microsoft Visual Studio\2019\Community\VC\Tools\MSVC\14.29.30133\atlmfc\include\atlsimpstr.h
; File C:\Program Files (x86)\Microsoft Visual Studio\2019\Community\VC\Tools\MSVC\14.29.30133\atlmfc\include\cstringt.h
; File D:\git\src\IBK\IBK_DRFN\ProjSrc\SrcChartEx\ChartOCX\KTBChart\KTBChartCommonInterface.cpp
; File C:\Program Files (x86)\Microsoft Visual Studio\2019\Community\VC\Tools\MSVC\14.29.30133\atlmfc\include\cstringt.h
; File D:\git\src\IBK\IBK_DRFN\ProjSrc\SrcChartEx\ChartOCX\KTBChart\KTBChartCommonInterface.cpp
; File C:\Program Files (x86)\Microsoft Visual Studio\2019\Community\VC\Tools\MSVC\14.29.30133\atlmfc\include\cstringt.h
; File D:\git\src\IBK\IBK_DRFN\ProjSrc\SrcChartEx\ChartOCX\KTBChart\KTBChartCommonInterface.cpp
; File C:\Program Files (x86)\Microsoft Visual Studio\2019\Community\VC\Tools\MSVC\14.29.30133\atlmfc\include\cstringt.h
; File D:\git\src\IBK\IBK_DRFN\ProjSrc\SrcChartEx\ChartOCX\KTBChart\KTBChartCommonInterface.cpp
; File C:\Program Files (x86)\Microsoft Visual Studio\2019\Community\VC\Tools\MSVC\14.29.30133\atlmfc\include\cstringt.h
; File D:\git\src\IBK\IBK_DRFN\ProjSrc\SrcChartEx\ChartOCX\KTBChart\KTBChartCommonInterface.cpp
; File C:\Program Files (x86)\Microsoft Visual Studio\2019\Community\VC\Tools\MSVC\14.29.30133\atlmfc\include\cstringt.h
; File D:\git\src\IBK\IBK_DRFN\ProjSrc\SrcChartEx\ChartOCX\KTBChart\KTBChartCommonInterface.cpp
; File C:\Program Files (x86)\Microsoft Visual Studio\2019\Community\VC\Tools\MSVC\14.29.30133\atlmfc\include\cstringt.h
; File C:\Program Files (x86)\Microsoft Visual Studio\2019\Community\VC\Tools\MSVC\14.29.30133\atlmfc\include\atlsimpstr.h
; File C:\Program Files (x86)\Microsoft Visual Studio\2019\Community\VC\Tools\MSVC\14.29.30133\atlmfc\include\cstringt.h
; File D:\git\src\IBK\IBK_DRFN\ProjSrc\SrcChartEx\ChartOCX\KTBChart\KTBChartCommonInterface.cpp
;	COMDAT ?GetImagePath@CKTBChartCtrl@@UAE?AV?$CStringT@DV?$StrTraitMFC_DLL@DV?$ChTraitsCRT@D@ATL@@@@@ATL@@XZ
_TEXT	SEGMENT
___$ReturnUdt$GSCopy$ = -296				; size = 4
$T2 = -292						; size = 4
$T3 = -288						; size = 4
$T4 = -288						; size = 4
_strChartMode$ = -284					; size = 4
$T5 = -280						; size = 4
$T6 = -280						; size = 4
_strImagePath$ = -276					; size = 4
_szMChartMode$ = -272					; size = 256
__$ArrayPad$ = -16					; size = 4
__$EHRec$ = -12						; size = 12
___$ReturnUdt$ = 8					; size = 4
?GetImagePath@CKTBChartCtrl@@UAE?AV?$CStringT@DV?$StrTraitMFC_DLL@DV?$ChTraitsCRT@D@ATL@@@@@ATL@@XZ PROC ; CKTBChartCtrl::GetImagePath, COMDAT
; _this$ = ecx

; 387  : {

  00000	55		 push	 ebp
  00001	8b ec		 mov	 ebp, esp
  00003	6a ff		 push	 -1
  00005	68 00 00 00 00	 push	 __ehhandler$?GetImagePath@CKTBChartCtrl@@UAE?AV?$CStringT@DV?$StrTraitMFC_DLL@DV?$ChTraitsCRT@D@ATL@@@@@ATL@@XZ
  0000a	64 a1 00 00 00
	00		 mov	 eax, DWORD PTR fs:0
  00010	50		 push	 eax
  00011	81 ec 1c 01 00
	00		 sub	 esp, 284		; 0000011cH
  00017	a1 00 00 00 00	 mov	 eax, DWORD PTR ___security_cookie
  0001c	33 c5		 xor	 eax, ebp
  0001e	89 45 f0	 mov	 DWORD PTR __$ArrayPad$[ebp], eax
  00021	53		 push	 ebx
  00022	56		 push	 esi
  00023	57		 push	 edi
  00024	50		 push	 eax
  00025	8d 45 f4	 lea	 eax, DWORD PTR __$EHRec$[ebp]
  00028	64 a3 00 00 00
	00		 mov	 DWORD PTR fs:0, eax
  0002e	8b d9		 mov	 ebx, ecx
  00030	8b 7d 08	 mov	 edi, DWORD PTR ___$ReturnUdt$[ebp]

; 388  : 	CString strImagePath( "\\image\\chart\\");

  00033	8d 8d ec fe ff
	ff		 lea	 ecx, DWORD PTR _strImagePath$[ebp]
  00039	89 bd d8 fe ff
	ff		 mov	 DWORD PTR ___$ReturnUdt$GSCopy$[ebp], edi
  0003f	68 00 00 00 00	 push	 OFFSET ??_C@_0O@NEFGCKDK@?2image?2chart?2@
  00044	c7 85 dc fe ff
	ff 00 00 00 00	 mov	 DWORD PTR $T2[ebp], 0
  0004e	ff 15 00 00 00
	00		 call	 DWORD PTR __imp_??0?$CStringT@DV?$StrTraitMFC_DLL@DV?$ChTraitsCRT@D@ATL@@@@@ATL@@QAE@PBD@Z

; 392  : 	DWORD dwError = GetPrivateProfileString( "Chart Version", "MChartMode", "", szMChartMode, 255, GetDefaultPath() + "ChartMetaTable.dat");

  00054	8b 03		 mov	 eax, DWORD PTR [ebx]
  00056	8d 8d e0 fe ff
	ff		 lea	 ecx, DWORD PTR $T4[ebp]
  0005c	51		 push	 ecx
  0005d	8b cb		 mov	 ecx, ebx
  0005f	c7 45 fc 00 00
	00 00		 mov	 DWORD PTR __$EHRec$[ebp+8], 0
  00066	ff 90 ac 02 00
	00		 call	 DWORD PTR [eax+684]
  0006c	8b f0		 mov	 esi, eax
; File C:\Program Files (x86)\Microsoft Visual Studio\2019\Community\VC\Tools\MSVC\14.29.30133\atlmfc\include\cstringt.h

; 2401 : 		CStringT strResult( str1.GetManager() );

  0006e	8b ce		 mov	 ecx, esi
; File D:\git\src\IBK\IBK_DRFN\ProjSrc\SrcChartEx\ChartOCX\KTBChart\KTBChartCommonInterface.cpp

; 392  : 	DWORD dwError = GetPrivateProfileString( "Chart Version", "MChartMode", "", szMChartMode, 255, GetDefaultPath() + "ChartMetaTable.dat");

  00070	c6 45 fc 02	 mov	 BYTE PTR __$EHRec$[ebp+8], 2
; File C:\Program Files (x86)\Microsoft Visual Studio\2019\Community\VC\Tools\MSVC\14.29.30133\atlmfc\include\cstringt.h

; 2401 : 		CStringT strResult( str1.GetManager() );

  00074	ff 15 00 00 00
	00		 call	 DWORD PTR __imp_?GetManager@?$CStringT@DV?$StrTraitMFC_DLL@DV?$ChTraitsCRT@D@ATL@@@@@ATL@@QBEPAUIAtlStringMgr@2@XZ
  0007a	50		 push	 eax
  0007b	8d 8d e8 fe ff
	ff		 lea	 ecx, DWORD PTR $T6[ebp]
  00081	ff 15 00 00 00
	00		 call	 DWORD PTR __imp_??0?$CStringT@DV?$StrTraitMFC_DLL@DV?$ChTraitsCRT@D@ATL@@@@@ATL@@QAE@PAUIAtlStringMgr@1@@Z
; File C:\Program Files (x86)\Microsoft Visual Studio\2019\Community\VC\Tools\MSVC\14.29.30133\atlmfc\include\atlsimpstr.h

; 519  : 		return( GetData()->nDataLength );

  00087	8b 06		 mov	 eax, DWORD PTR [esi]
; File C:\Program Files (x86)\Microsoft Visual Studio\2019\Community\VC\Tools\MSVC\14.29.30133\atlmfc\include\cstringt.h

; 2403 : 		CThisSimpleString::Concatenate( strResult, str1, str1.GetLength(), psz2, CThisSimpleString::StringLength( psz2 ) );

  00089	6a 12		 push	 18			; 00000012H
  0008b	68 00 00 00 00	 push	 OFFSET ??_C@_0BD@PNOKNCJO@ChartMetaTable?4dat@

; 2404 : 
; 2405 : 		return( strResult );

  00090	c7 85 dc fe ff
	ff 02 00 00 00	 mov	 DWORD PTR $T2[ebp], 2
  0009a	ff 70 f4	 push	 DWORD PTR [eax-12]
  0009d	50		 push	 eax
  0009e	8d 85 e8 fe ff
	ff		 lea	 eax, DWORD PTR $T6[ebp]
  000a4	50		 push	 eax
  000a5	ff 15 00 00 00
	00		 call	 DWORD PTR __imp_?Concatenate@?$CSimpleStringT@D$00@ATL@@KAXAAV12@PBDH1H@Z
  000ab	83 c4 14	 add	 esp, 20			; 00000014H
; File D:\git\src\IBK\IBK_DRFN\ProjSrc\SrcChartEx\ChartOCX\KTBChart\KTBChartCommonInterface.cpp

; 392  : 	DWORD dwError = GetPrivateProfileString( "Chart Version", "MChartMode", "", szMChartMode, 255, GetDefaultPath() + "ChartMetaTable.dat");

  000ae	8d 85 f0 fe ff
	ff		 lea	 eax, DWORD PTR _szMChartMode$[ebp]
  000b4	ff b5 e8 fe ff
	ff		 push	 DWORD PTR $T6[ebp]
  000ba	68 ff 00 00 00	 push	 255			; 000000ffH
  000bf	50		 push	 eax
  000c0	68 00 00 00 00	 push	 OFFSET ??_C@_00CNPNBAHC@@
  000c5	68 00 00 00 00	 push	 OFFSET ??_C@_0L@HIOFCMKH@MChartMode@
  000ca	68 00 00 00 00	 push	 OFFSET ??_C@_0O@GDACOMFO@Chart?5Version@
  000cf	ff 15 00 00 00
	00		 call	 DWORD PTR __imp__GetPrivateProfileStringA@24
  000d5	8d 8d e8 fe ff
	ff		 lea	 ecx, DWORD PTR $T6[ebp]
  000db	ff 15 00 00 00
	00		 call	 DWORD PTR __imp_??1?$CStringT@DV?$StrTraitMFC_DLL@DV?$ChTraitsCRT@D@ATL@@@@@ATL@@QAE@XZ
  000e1	8d 8d e0 fe ff
	ff		 lea	 ecx, DWORD PTR $T4[ebp]
  000e7	c6 45 fc 00	 mov	 BYTE PTR __$EHRec$[ebp+8], 0
  000eb	ff 15 00 00 00
	00		 call	 DWORD PTR __imp_??1?$CStringT@DV?$StrTraitMFC_DLL@DV?$ChTraitsCRT@D@ATL@@@@@ATL@@QAE@XZ

; 393  : 	CString strChartMode( szMChartMode);

  000f1	8d 85 f0 fe ff
	ff		 lea	 eax, DWORD PTR _szMChartMode$[ebp]
  000f7	50		 push	 eax
  000f8	8d 8d e4 fe ff
	ff		 lea	 ecx, DWORD PTR _strChartMode$[ebp]
  000fe	ff 15 00 00 00
	00		 call	 DWORD PTR __imp_??0?$CStringT@DV?$StrTraitMFC_DLL@DV?$ChTraitsCRT@D@ATL@@@@@ATL@@QAE@PBD@Z
; File C:\Program Files (x86)\Microsoft Visual Studio\2019\Community\VC\Tools\MSVC\14.29.30133\atlmfc\include\cstringt.h

; 2486 : 		return(str1.Compare(psz2) == 0);

  00104	68 00 00 00 00	 push	 OFFSET ??_C@_02GMLAAMD@FX@
  00109	8d 8d e4 fe ff
	ff		 lea	 ecx, DWORD PTR _strChartMode$[ebp]
; File D:\git\src\IBK\IBK_DRFN\ProjSrc\SrcChartEx\ChartOCX\KTBChart\KTBChartCommonInterface.cpp

; 393  : 	CString strChartMode( szMChartMode);

  0010f	c6 45 fc 03	 mov	 BYTE PTR __$EHRec$[ebp+8], 3
; File C:\Program Files (x86)\Microsoft Visual Studio\2019\Community\VC\Tools\MSVC\14.29.30133\atlmfc\include\cstringt.h

; 2486 : 		return(str1.Compare(psz2) == 0);

  00113	ff 15 00 00 00
	00		 call	 DWORD PTR __imp_?Compare@?$CStringT@DV?$StrTraitMFC_DLL@DV?$ChTraitsCRT@D@ATL@@@@@ATL@@QBEHPBD@Z
  00119	85 c0		 test	 eax, eax
; File D:\git\src\IBK\IBK_DRFN\ProjSrc\SrcChartEx\ChartOCX\KTBChart\KTBChartCommonInterface.cpp

; 394  : 	if(			strChartMode == "FX")		strImagePath = "\\System\\Image\\";

  0011b	75 07		 jne	 SHORT $LN2@GetImagePa
  0011d	68 00 00 00 00	 push	 OFFSET ??_C@_0P@DPEHLCCF@?2System?2Image?2@
  00122	eb 36		 jmp	 SHORT $LN67@GetImagePa
$LN2@GetImagePa:
; File C:\Program Files (x86)\Microsoft Visual Studio\2019\Community\VC\Tools\MSVC\14.29.30133\atlmfc\include\cstringt.h

; 2486 : 		return(str1.Compare(psz2) == 0);

  00124	68 00 00 00 00	 push	 OFFSET ??_C@_07KKHCKEHB@WORLDON@
  00129	8d 8d e4 fe ff
	ff		 lea	 ecx, DWORD PTR _strChartMode$[ebp]
  0012f	ff 15 00 00 00
	00		 call	 DWORD PTR __imp_?Compare@?$CStringT@DV?$StrTraitMFC_DLL@DV?$ChTraitsCRT@D@ATL@@@@@ATL@@QBEHPBD@Z
  00135	85 c0		 test	 eax, eax
; File D:\git\src\IBK\IBK_DRFN\ProjSrc\SrcChartEx\ChartOCX\KTBChart\KTBChartCommonInterface.cpp

; 395  : 	else if(	strChartMode == "WORLDON")	strImagePath = "\\image\\chart_img\\";

  00137	75 07		 jne	 SHORT $LN4@GetImagePa
  00139	68 00 00 00 00	 push	 OFFSET ??_C@_0BC@EHHPLAFN@?2image?2chart_img?2@
  0013e	eb 1a		 jmp	 SHORT $LN67@GetImagePa
$LN4@GetImagePa:
; File C:\Program Files (x86)\Microsoft Visual Studio\2019\Community\VC\Tools\MSVC\14.29.30133\atlmfc\include\cstringt.h

; 2486 : 		return(str1.Compare(psz2) == 0);

  00140	68 00 00 00 00	 push	 OFFSET ??_C@_03HKDINIMK@HTS@
  00145	8d 8d e4 fe ff
	ff		 lea	 ecx, DWORD PTR _strChartMode$[ebp]
  0014b	ff 15 00 00 00
	00		 call	 DWORD PTR __imp_?Compare@?$CStringT@DV?$StrTraitMFC_DLL@DV?$ChTraitsCRT@D@ATL@@@@@ATL@@QBEHPBD@Z
  00151	85 c0		 test	 eax, eax
; File D:\git\src\IBK\IBK_DRFN\ProjSrc\SrcChartEx\ChartOCX\KTBChart\KTBChartCommonInterface.cpp

; 396  : 	else if(	strChartMode == "HTS")		strImagePath = "\\image\\";

  00153	75 11		 jne	 SHORT $LN6@GetImagePa
  00155	68 00 00 00 00	 push	 OFFSET ??_C@_07GIKBFJHJ@?2image?2@
$LN67@GetImagePa:

; 400  : 	return GetBaseDeskPath() + "\\Icss" + strImagePath;	//IBK

  0015a	8d 8d ec fe ff
	ff		 lea	 ecx, DWORD PTR _strImagePath$[ebp]
  00160	ff 15 00 00 00
	00		 call	 DWORD PTR __imp_??4?$CStringT@DV?$StrTraitMFC_DLL@DV?$ChTraitsCRT@D@ATL@@@@@ATL@@QAEAAV01@PBD@Z
$LN6@GetImagePa:
  00166	8d 85 e8 fe ff
	ff		 lea	 eax, DWORD PTR $T5[ebp]
  0016c	8b cb		 mov	 ecx, ebx
  0016e	50		 push	 eax
  0016f	e8 00 00 00 00	 call	 ?GetBaseDeskPath@CKTBChartCtrl@@QAE?AV?$CStringT@DV?$StrTraitMFC_DLL@DV?$ChTraitsCRT@D@ATL@@@@@ATL@@XZ ; CKTBChartCtrl::GetBaseDeskPath
  00174	68 00 00 00 00	 push	 OFFSET ??_C@_05BLKEAIDJ@?2Icss@
  00179	50		 push	 eax
  0017a	8d 85 e0 fe ff
	ff		 lea	 eax, DWORD PTR $T3[ebp]
  00180	c6 45 fc 04	 mov	 BYTE PTR __$EHRec$[ebp+8], 4
  00184	50		 push	 eax
  00185	e8 00 00 00 00	 call	 ??HATL@@YA?AV?$CStringT@DV?$StrTraitMFC_DLL@DV?$ChTraitsCRT@D@ATL@@@@@0@ABV10@PBD@Z ; ATL::operator+
  0018a	83 c4 0c	 add	 esp, 12			; 0000000cH
  0018d	8b f0		 mov	 esi, eax
; File C:\Program Files (x86)\Microsoft Visual Studio\2019\Community\VC\Tools\MSVC\14.29.30133\atlmfc\include\cstringt.h

; 2390 : 		CStringT strResult( str1.GetManager() );

  0018f	8b ce		 mov	 ecx, esi
; File D:\git\src\IBK\IBK_DRFN\ProjSrc\SrcChartEx\ChartOCX\KTBChart\KTBChartCommonInterface.cpp

; 400  : 	return GetBaseDeskPath() + "\\Icss" + strImagePath;	//IBK

  00191	c6 45 fc 06	 mov	 BYTE PTR __$EHRec$[ebp+8], 6
; File C:\Program Files (x86)\Microsoft Visual Studio\2019\Community\VC\Tools\MSVC\14.29.30133\atlmfc\include\cstringt.h

; 2390 : 		CStringT strResult( str1.GetManager() );

  00195	ff 15 00 00 00
	00		 call	 DWORD PTR __imp_?GetManager@?$CStringT@DV?$StrTraitMFC_DLL@DV?$ChTraitsCRT@D@ATL@@@@@ATL@@QBEPAUIAtlStringMgr@2@XZ
  0019b	50		 push	 eax
  0019c	8b cf		 mov	 ecx, edi
  0019e	ff 15 00 00 00
	00		 call	 DWORD PTR __imp_??0?$CStringT@DV?$StrTraitMFC_DLL@DV?$ChTraitsCRT@D@ATL@@@@@ATL@@QAE@PAUIAtlStringMgr@1@@Z

; 2391 : 
; 2392 : 		CThisSimpleString::Concatenate( strResult, str1, str1.GetLength(), str2, str2.GetLength() );

  001a4	8b 85 ec fe ff
	ff		 mov	 eax, DWORD PTR _strImagePath$[ebp]
; File C:\Program Files (x86)\Microsoft Visual Studio\2019\Community\VC\Tools\MSVC\14.29.30133\atlmfc\include\atlsimpstr.h

; 519  : 		return( GetData()->nDataLength );

  001aa	8b 0e		 mov	 ecx, DWORD PTR [esi]
; File C:\Program Files (x86)\Microsoft Visual Studio\2019\Community\VC\Tools\MSVC\14.29.30133\atlmfc\include\cstringt.h

; 2394 : 		return( strResult );

  001ac	c7 85 dc fe ff
	ff 08 00 00 00	 mov	 DWORD PTR $T2[ebp], 8
  001b6	ff 70 f4	 push	 DWORD PTR [eax-12]
  001b9	50		 push	 eax
  001ba	ff 71 f4	 push	 DWORD PTR [ecx-12]
  001bd	51		 push	 ecx
  001be	57		 push	 edi
  001bf	ff 15 00 00 00
	00		 call	 DWORD PTR __imp_?Concatenate@?$CSimpleStringT@D$00@ATL@@KAXAAV12@PBDH1H@Z
  001c5	83 c4 14	 add	 esp, 20			; 00000014H
; File D:\git\src\IBK\IBK_DRFN\ProjSrc\SrcChartEx\ChartOCX\KTBChart\KTBChartCommonInterface.cpp

; 400  : 	return GetBaseDeskPath() + "\\Icss" + strImagePath;	//IBK

  001c8	8d 8d e0 fe ff
	ff		 lea	 ecx, DWORD PTR $T3[ebp]
  001ce	ff 15 00 00 00
	00		 call	 DWORD PTR __imp_??1?$CStringT@DV?$StrTraitMFC_DLL@DV?$ChTraitsCRT@D@ATL@@@@@ATL@@QAE@XZ
  001d4	8d 8d e8 fe ff
	ff		 lea	 ecx, DWORD PTR $T5[ebp]
  001da	ff 15 00 00 00
	00		 call	 DWORD PTR __imp_??1?$CStringT@DV?$StrTraitMFC_DLL@DV?$ChTraitsCRT@D@ATL@@@@@ATL@@QAE@XZ
  001e0	8d 8d e4 fe ff
	ff		 lea	 ecx, DWORD PTR _strChartMode$[ebp]
  001e6	ff 15 00 00 00
	00		 call	 DWORD PTR __imp_??1?$CStringT@DV?$StrTraitMFC_DLL@DV?$ChTraitsCRT@D@ATL@@@@@ATL@@QAE@XZ
  001ec	8d 8d ec fe ff
	ff		 lea	 ecx, DWORD PTR _strImagePath$[ebp]
  001f2	ff 15 00 00 00
	00		 call	 DWORD PTR __imp_??1?$CStringT@DV?$StrTraitMFC_DLL@DV?$ChTraitsCRT@D@ATL@@@@@ATL@@QAE@XZ
  001f8	8b c7		 mov	 eax, edi

; 401  : }

  001fa	8b 4d f4	 mov	 ecx, DWORD PTR __$EHRec$[ebp]
  001fd	64 89 0d 00 00
	00 00		 mov	 DWORD PTR fs:0, ecx
  00204	59		 pop	 ecx
  00205	5f		 pop	 edi
  00206	5e		 pop	 esi
  00207	5b		 pop	 ebx
  00208	8b 4d f0	 mov	 ecx, DWORD PTR __$ArrayPad$[ebp]
  0020b	33 cd		 xor	 ecx, ebp
  0020d	e8 00 00 00 00	 call	 @__security_check_cookie@4
  00212	8b e5		 mov	 esp, ebp
  00214	5d		 pop	 ebp
  00215	c2 04 00	 ret	 4
_TEXT	ENDS
;	COMDAT text$x
text$x	SEGMENT
__unwindfunclet$?GetImagePath@CKTBChartCtrl@@UAE?AV?$CStringT@DV?$StrTraitMFC_DLL@DV?$ChTraitsCRT@D@ATL@@@@@ATL@@XZ$0:
  00000	8d 8d ec fe ff
	ff		 lea	 ecx, DWORD PTR _strImagePath$[ebp]
  00006	ff 25 00 00 00
	00		 jmp	 DWORD PTR __imp_??1?$CStringT@DV?$StrTraitMFC_DLL@DV?$ChTraitsCRT@D@ATL@@@@@ATL@@QAE@XZ
__unwindfunclet$?GetImagePath@CKTBChartCtrl@@UAE?AV?$CStringT@DV?$StrTraitMFC_DLL@DV?$ChTraitsCRT@D@ATL@@@@@ATL@@XZ$1:
  0000c	8d 8d e0 fe ff
	ff		 lea	 ecx, DWORD PTR $T4[ebp]
  00012	ff 25 00 00 00
	00		 jmp	 DWORD PTR __imp_??1?$CStringT@DV?$StrTraitMFC_DLL@DV?$ChTraitsCRT@D@ATL@@@@@ATL@@QAE@XZ
__unwindfunclet$?GetImagePath@CKTBChartCtrl@@UAE?AV?$CStringT@DV?$StrTraitMFC_DLL@DV?$ChTraitsCRT@D@ATL@@@@@ATL@@XZ$7:
  00018	8b 85 dc fe ff
	ff		 mov	 eax, DWORD PTR $T2[ebp]
  0001e	83 e0 02	 and	 eax, 2
  00021	0f 84 13 00 00
	00		 je	 $LN19@GetImagePa
  00027	83 a5 dc fe ff
	ff fd		 and	 DWORD PTR $T2[ebp], -3	; fffffffdH
  0002e	8d 8d e8 fe ff
	ff		 lea	 ecx, DWORD PTR $T6[ebp]
  00034	ff 25 00 00 00
	00		 jmp	 DWORD PTR __imp_??1?$CStringT@DV?$StrTraitMFC_DLL@DV?$ChTraitsCRT@D@ATL@@@@@ATL@@QAE@XZ
$LN19@GetImagePa:
  0003a	c3		 ret	 0
__unwindfunclet$?GetImagePath@CKTBChartCtrl@@UAE?AV?$CStringT@DV?$StrTraitMFC_DLL@DV?$ChTraitsCRT@D@ATL@@@@@ATL@@XZ$3:
  0003b	8d 8d e4 fe ff
	ff		 lea	 ecx, DWORD PTR _strChartMode$[ebp]
  00041	ff 25 00 00 00
	00		 jmp	 DWORD PTR __imp_??1?$CStringT@DV?$StrTraitMFC_DLL@DV?$ChTraitsCRT@D@ATL@@@@@ATL@@QAE@XZ
__unwindfunclet$?GetImagePath@CKTBChartCtrl@@UAE?AV?$CStringT@DV?$StrTraitMFC_DLL@DV?$ChTraitsCRT@D@ATL@@@@@ATL@@XZ$4:
  00047	8d 8d e8 fe ff
	ff		 lea	 ecx, DWORD PTR $T5[ebp]
  0004d	ff 25 00 00 00
	00		 jmp	 DWORD PTR __imp_??1?$CStringT@DV?$StrTraitMFC_DLL@DV?$ChTraitsCRT@D@ATL@@@@@ATL@@QAE@XZ
__unwindfunclet$?GetImagePath@CKTBChartCtrl@@UAE?AV?$CStringT@DV?$StrTraitMFC_DLL@DV?$ChTraitsCRT@D@ATL@@@@@ATL@@XZ$5:
  00053	8d 8d e0 fe ff
	ff		 lea	 ecx, DWORD PTR $T3[ebp]
  00059	ff 25 00 00 00
	00		 jmp	 DWORD PTR __imp_??1?$CStringT@DV?$StrTraitMFC_DLL@DV?$ChTraitsCRT@D@ATL@@@@@ATL@@QAE@XZ
__unwindfunclet$?GetImagePath@CKTBChartCtrl@@UAE?AV?$CStringT@DV?$StrTraitMFC_DLL@DV?$ChTraitsCRT@D@ATL@@@@@ATL@@XZ$9:
  0005f	8b 85 dc fe ff
	ff		 mov	 eax, DWORD PTR $T2[ebp]
  00065	83 e0 08	 and	 eax, 8
  00068	0f 84 13 00 00
	00		 je	 $LN53@GetImagePa
  0006e	83 a5 dc fe ff
	ff f7		 and	 DWORD PTR $T2[ebp], -9	; fffffff7H
  00075	8b 8d d8 fe ff
	ff		 mov	 ecx, DWORD PTR ___$ReturnUdt$GSCopy$[ebp]
  0007b	ff 25 00 00 00
	00		 jmp	 DWORD PTR __imp_??1?$CStringT@DV?$StrTraitMFC_DLL@DV?$ChTraitsCRT@D@ATL@@@@@ATL@@QAE@XZ
$LN53@GetImagePa:
  00081	c3		 ret	 0
  00082	cc		 int	 3
  00083	cc		 int	 3
  00084	cc		 int	 3
  00085	cc		 int	 3
  00086	cc		 int	 3
__ehhandler$?GetImagePath@CKTBChartCtrl@@UAE?AV?$CStringT@DV?$StrTraitMFC_DLL@DV?$ChTraitsCRT@D@ATL@@@@@ATL@@XZ:
  00087	90		 npad	 1
  00088	90		 npad	 1
  00089	8b 54 24 08	 mov	 edx, DWORD PTR [esp+8]
  0008d	8d 42 0c	 lea	 eax, DWORD PTR [edx+12]
  00090	8b 8a d4 fe ff
	ff		 mov	 ecx, DWORD PTR [edx-300]
  00096	33 c8		 xor	 ecx, eax
  00098	e8 00 00 00 00	 call	 @__security_check_cookie@4
  0009d	8b 4a fc	 mov	 ecx, DWORD PTR [edx-4]
  000a0	33 c8		 xor	 ecx, eax
  000a2	e8 00 00 00 00	 call	 @__security_check_cookie@4
  000a7	b8 00 00 00 00	 mov	 eax, OFFSET __ehfuncinfo$?GetImagePath@CKTBChartCtrl@@UAE?AV?$CStringT@DV?$StrTraitMFC_DLL@DV?$ChTraitsCRT@D@ATL@@@@@ATL@@XZ
  000ac	e9 00 00 00 00	 jmp	 ___CxxFrameHandler3
text$x	ENDS
?GetImagePath@CKTBChartCtrl@@UAE?AV?$CStringT@DV?$StrTraitMFC_DLL@DV?$ChTraitsCRT@D@ATL@@@@@ATL@@XZ ENDP ; CKTBChartCtrl::GetImagePath
; Function compile flags: /Ogtp
; File D:\git\src\IBK\IBK_DRFN\ProjSrc\SrcChartEx\ChartOCX\KTBChart\KTBChartCommonInterface.cpp
;	COMDAT ?GetUserPath@CKTBChartCtrl@@UAE?AV?$CStringT@DV?$StrTraitMFC_DLL@DV?$ChTraitsCRT@D@ATL@@@@@ATL@@XZ
_TEXT	SEGMENT
$T2 = -16						; size = 4
__$EHRec$ = -12						; size = 12
___$ReturnUdt$ = 8					; size = 4
?GetUserPath@CKTBChartCtrl@@UAE?AV?$CStringT@DV?$StrTraitMFC_DLL@DV?$ChTraitsCRT@D@ATL@@@@@ATL@@XZ PROC ; CKTBChartCtrl::GetUserPath, COMDAT
; _this$ = ecx

; 381  : {

  00000	55		 push	 ebp
  00001	8b ec		 mov	 ebp, esp
  00003	6a ff		 push	 -1
  00005	68 00 00 00 00	 push	 __ehhandler$?GetUserPath@CKTBChartCtrl@@UAE?AV?$CStringT@DV?$StrTraitMFC_DLL@DV?$ChTraitsCRT@D@ATL@@@@@ATL@@XZ
  0000a	64 a1 00 00 00
	00		 mov	 eax, DWORD PTR fs:0
  00010	50		 push	 eax
  00011	51		 push	 ecx
  00012	57		 push	 edi
  00013	a1 00 00 00 00	 mov	 eax, DWORD PTR ___security_cookie
  00018	33 c5		 xor	 eax, ebp
  0001a	50		 push	 eax
  0001b	8d 45 f4	 lea	 eax, DWORD PTR __$EHRec$[ebp]
  0001e	64 a3 00 00 00
	00		 mov	 DWORD PTR fs:0, eax
  00024	8b f9		 mov	 edi, ecx

; 382  : 	return GetUserFilePath();

  00026	68 00 00 00 00	 push	 OFFSET ??_C@_00CNPNBAHC@@
  0002b	8d 4d f0	 lea	 ecx, DWORD PTR $T2[ebp]
  0002e	ff 15 00 00 00
	00		 call	 DWORD PTR __imp_??0?$CStringT@DV?$StrTraitMFC_DLL@DV?$ChTraitsCRT@D@ATL@@@@@ATL@@QAE@PBD@Z
  00034	8d 45 f0	 lea	 eax, DWORD PTR $T2[ebp]
  00037	c7 45 fc 00 00
	00 00		 mov	 DWORD PTR __$EHRec$[ebp+8], 0
  0003e	50		 push	 eax
  0003f	ff 75 08	 push	 DWORD PTR ___$ReturnUdt$[ebp]
  00042	8b cf		 mov	 ecx, edi
  00044	e8 00 00 00 00	 call	 ?GetUserFilePath@CKTBChartCtrl@@QAE?AV?$CStringT@DV?$StrTraitMFC_DLL@DV?$ChTraitsCRT@D@ATL@@@@@ATL@@ABV23@@Z ; CKTBChartCtrl::GetUserFilePath
  00049	8d 4d f0	 lea	 ecx, DWORD PTR $T2[ebp]
  0004c	ff 15 00 00 00
	00		 call	 DWORD PTR __imp_??1?$CStringT@DV?$StrTraitMFC_DLL@DV?$ChTraitsCRT@D@ATL@@@@@ATL@@QAE@XZ
  00052	8b 45 08	 mov	 eax, DWORD PTR ___$ReturnUdt$[ebp]

; 383  : }

  00055	8b 4d f4	 mov	 ecx, DWORD PTR __$EHRec$[ebp]
  00058	64 89 0d 00 00
	00 00		 mov	 DWORD PTR fs:0, ecx
  0005f	59		 pop	 ecx
  00060	5f		 pop	 edi
  00061	8b e5		 mov	 esp, ebp
  00063	5d		 pop	 ebp
  00064	c2 04 00	 ret	 4
_TEXT	ENDS
;	COMDAT text$x
text$x	SEGMENT
__unwindfunclet$?GetUserPath@CKTBChartCtrl@@UAE?AV?$CStringT@DV?$StrTraitMFC_DLL@DV?$ChTraitsCRT@D@ATL@@@@@ATL@@XZ$0:
  00000	8d 4d f0	 lea	 ecx, DWORD PTR $T2[ebp]
  00003	ff 25 00 00 00
	00		 jmp	 DWORD PTR __imp_??1?$CStringT@DV?$StrTraitMFC_DLL@DV?$ChTraitsCRT@D@ATL@@@@@ATL@@QAE@XZ
  00009	cc		 int	 3
  0000a	cc		 int	 3
  0000b	cc		 int	 3
  0000c	cc		 int	 3
  0000d	cc		 int	 3
__ehhandler$?GetUserPath@CKTBChartCtrl@@UAE?AV?$CStringT@DV?$StrTraitMFC_DLL@DV?$ChTraitsCRT@D@ATL@@@@@ATL@@XZ:
  0000e	90		 npad	 1
  0000f	90		 npad	 1
  00010	8b 54 24 08	 mov	 edx, DWORD PTR [esp+8]
  00014	8d 42 0c	 lea	 eax, DWORD PTR [edx+12]
  00017	8b 4a f4	 mov	 ecx, DWORD PTR [edx-12]
  0001a	33 c8		 xor	 ecx, eax
  0001c	e8 00 00 00 00	 call	 @__security_check_cookie@4
  00021	b8 00 00 00 00	 mov	 eax, OFFSET __ehfuncinfo$?GetUserPath@CKTBChartCtrl@@UAE?AV?$CStringT@DV?$StrTraitMFC_DLL@DV?$ChTraitsCRT@D@ATL@@@@@ATL@@XZ
  00026	e9 00 00 00 00	 jmp	 ___CxxFrameHandler3
text$x	ENDS
?GetUserPath@CKTBChartCtrl@@UAE?AV?$CStringT@DV?$StrTraitMFC_DLL@DV?$ChTraitsCRT@D@ATL@@@@@ATL@@XZ ENDP ; CKTBChartCtrl::GetUserPath
; Function compile flags: /Ogtp
; File D:\git\src\IBK\IBK_DRFN\ProjSrc\SrcChartEx\ChartOCX\KTBChart\KTBChartCommonInterface.cpp
; File C:\Program Files (x86)\Microsoft Visual Studio\2019\Community\VC\Tools\MSVC\14.29.30133\atlmfc\include\cstringt.h
; File D:\git\src\IBK\IBK_DRFN\ProjSrc\SrcChartEx\ChartOCX\KTBChart\KTBChartCommonInterface.cpp
; File C:\Program Files (x86)\Microsoft Visual Studio\2019\Community\VC\Tools\MSVC\14.29.30133\atlmfc\include\cstringt.h
; File C:\Program Files (x86)\Microsoft Visual Studio\2019\Community\VC\Tools\MSVC\14.29.30133\atlmfc\include\atlsimpstr.h
; File C:\Program Files (x86)\Microsoft Visual Studio\2019\Community\VC\Tools\MSVC\14.29.30133\atlmfc\include\cstringt.h
; File D:\git\src\IBK\IBK_DRFN\ProjSrc\SrcChartEx\ChartOCX\KTBChart\KTBChartCommonInterface.cpp
;	COMDAT ?GetDefaultPath@CKTBChartCtrl@@UAE?AV?$CStringT@DV?$StrTraitMFC_DLL@DV?$ChTraitsCRT@D@ATL@@@@@ATL@@XZ
_TEXT	SEGMENT
$T2 = -20						; size = 4
$T3 = -16						; size = 4
__$EHRec$ = -12						; size = 12
___$ReturnUdt$ = 8					; size = 4
?GetDefaultPath@CKTBChartCtrl@@UAE?AV?$CStringT@DV?$StrTraitMFC_DLL@DV?$ChTraitsCRT@D@ATL@@@@@ATL@@XZ PROC ; CKTBChartCtrl::GetDefaultPath, COMDAT
; _this$ = ecx

; 370  : {

  00000	55		 push	 ebp
  00001	8b ec		 mov	 ebp, esp
  00003	6a ff		 push	 -1
  00005	68 00 00 00 00	 push	 __ehhandler$?GetDefaultPath@CKTBChartCtrl@@UAE?AV?$CStringT@DV?$StrTraitMFC_DLL@DV?$ChTraitsCRT@D@ATL@@@@@ATL@@XZ
  0000a	64 a1 00 00 00
	00		 mov	 eax, DWORD PTR fs:0
  00010	50		 push	 eax
  00011	83 ec 08	 sub	 esp, 8
  00014	53		 push	 ebx
  00015	56		 push	 esi
  00016	57		 push	 edi
  00017	a1 00 00 00 00	 mov	 eax, DWORD PTR ___security_cookie
  0001c	33 c5		 xor	 eax, ebp
  0001e	50		 push	 eax
  0001f	8d 45 f4	 lea	 eax, DWORD PTR __$EHRec$[ebp]
  00022	64 a3 00 00 00
	00		 mov	 DWORD PTR fs:0, eax
  00028	8b d9		 mov	 ebx, ecx

; 371  : 	return (GetBaseDeskPath() + DATA_FILE_FOLDER);

  0002a	8d 45 ec	 lea	 eax, DWORD PTR $T2[ebp]
  0002d	c7 45 f0 00 00
	00 00		 mov	 DWORD PTR $T3[ebp], 0
  00034	50		 push	 eax
  00035	e8 00 00 00 00	 call	 ?GetBaseDeskPath@CKTBChartCtrl@@QAE?AV?$CStringT@DV?$StrTraitMFC_DLL@DV?$ChTraitsCRT@D@ATL@@@@@ATL@@XZ ; CKTBChartCtrl::GetBaseDeskPath
  0003a	8b f0		 mov	 esi, eax
  0003c	c7 45 fc 00 00
	00 00		 mov	 DWORD PTR __$EHRec$[ebp+8], 0
; File C:\Program Files (x86)\Microsoft Visual Studio\2019\Community\VC\Tools\MSVC\14.29.30133\atlmfc\include\cstringt.h

; 2390 : 		CStringT strResult( str1.GetManager() );

  00043	8b ce		 mov	 ecx, esi
; File D:\git\src\IBK\IBK_DRFN\ProjSrc\SrcChartEx\ChartOCX\KTBChart\KTBChartCommonInterface.cpp

; 371  : 	return (GetBaseDeskPath() + DATA_FILE_FOLDER);

  00045	c6 45 fc 01	 mov	 BYTE PTR __$EHRec$[ebp+8], 1
; File C:\Program Files (x86)\Microsoft Visual Studio\2019\Community\VC\Tools\MSVC\14.29.30133\atlmfc\include\cstringt.h

; 2390 : 		CStringT strResult( str1.GetManager() );

  00049	ff 15 00 00 00
	00		 call	 DWORD PTR __imp_?GetManager@?$CStringT@DV?$StrTraitMFC_DLL@DV?$ChTraitsCRT@D@ATL@@@@@ATL@@QBEPAUIAtlStringMgr@2@XZ
  0004f	8b 7d 08	 mov	 edi, DWORD PTR ___$ReturnUdt$[ebp]
  00052	8b cf		 mov	 ecx, edi
  00054	50		 push	 eax
  00055	ff 15 00 00 00
	00		 call	 DWORD PTR __imp_??0?$CStringT@DV?$StrTraitMFC_DLL@DV?$ChTraitsCRT@D@ATL@@@@@ATL@@QAE@PAUIAtlStringMgr@1@@Z
; File C:\Program Files (x86)\Microsoft Visual Studio\2019\Community\VC\Tools\MSVC\14.29.30133\atlmfc\include\atlsimpstr.h

; 519  : 		return( GetData()->nDataLength );

  0005b	8b 8b 1c 03 00
	00		 mov	 ecx, DWORD PTR [ebx+796]
  00061	8b 16		 mov	 edx, DWORD PTR [esi]
; File C:\Program Files (x86)\Microsoft Visual Studio\2019\Community\VC\Tools\MSVC\14.29.30133\atlmfc\include\cstringt.h

; 2394 : 		return( strResult );

  00063	c7 45 f0 02 00
	00 00		 mov	 DWORD PTR $T3[ebp], 2
  0006a	ff 71 f4	 push	 DWORD PTR [ecx-12]
  0006d	51		 push	 ecx
  0006e	ff 72 f4	 push	 DWORD PTR [edx-12]
  00071	52		 push	 edx
  00072	57		 push	 edi
  00073	ff 15 00 00 00
	00		 call	 DWORD PTR __imp_?Concatenate@?$CSimpleStringT@D$00@ATL@@KAXAAV12@PBDH1H@Z
  00079	83 c4 14	 add	 esp, 20			; 00000014H
; File D:\git\src\IBK\IBK_DRFN\ProjSrc\SrcChartEx\ChartOCX\KTBChart\KTBChartCommonInterface.cpp

; 371  : 	return (GetBaseDeskPath() + DATA_FILE_FOLDER);

  0007c	8d 4d ec	 lea	 ecx, DWORD PTR $T2[ebp]
  0007f	ff 15 00 00 00
	00		 call	 DWORD PTR __imp_??1?$CStringT@DV?$StrTraitMFC_DLL@DV?$ChTraitsCRT@D@ATL@@@@@ATL@@QAE@XZ
  00085	8b c7		 mov	 eax, edi

; 372  : }

  00087	8b 4d f4	 mov	 ecx, DWORD PTR __$EHRec$[ebp]
  0008a	64 89 0d 00 00
	00 00		 mov	 DWORD PTR fs:0, ecx
  00091	59		 pop	 ecx
  00092	5f		 pop	 edi
  00093	5e		 pop	 esi
  00094	5b		 pop	 ebx
  00095	8b e5		 mov	 esp, ebp
  00097	5d		 pop	 ebp
  00098	c2 04 00	 ret	 4
_TEXT	ENDS
;	COMDAT text$x
text$x	SEGMENT
__unwindfunclet$?GetDefaultPath@CKTBChartCtrl@@UAE?AV?$CStringT@DV?$StrTraitMFC_DLL@DV?$ChTraitsCRT@D@ATL@@@@@ATL@@XZ$0:
  00000	8d 4d ec	 lea	 ecx, DWORD PTR $T2[ebp]
  00003	ff 25 00 00 00
	00		 jmp	 DWORD PTR __imp_??1?$CStringT@DV?$StrTraitMFC_DLL@DV?$ChTraitsCRT@D@ATL@@@@@ATL@@QAE@XZ
__unwindfunclet$?GetDefaultPath@CKTBChartCtrl@@UAE?AV?$CStringT@DV?$StrTraitMFC_DLL@DV?$ChTraitsCRT@D@ATL@@@@@ATL@@XZ$2:
  00009	8b 45 f0	 mov	 eax, DWORD PTR $T3[ebp]
  0000c	83 e0 02	 and	 eax, 2
  0000f	0f 84 0d 00 00
	00		 je	 $LN9@GetDefault
  00015	83 65 f0 fd	 and	 DWORD PTR $T3[ebp], -3	; fffffffdH
  00019	8b 4d 08	 mov	 ecx, DWORD PTR ___$ReturnUdt$[ebp]
  0001c	ff 25 00 00 00
	00		 jmp	 DWORD PTR __imp_??1?$CStringT@DV?$StrTraitMFC_DLL@DV?$ChTraitsCRT@D@ATL@@@@@ATL@@QAE@XZ
$LN9@GetDefault:
  00022	c3		 ret	 0
  00023	cc		 int	 3
  00024	cc		 int	 3
  00025	cc		 int	 3
  00026	cc		 int	 3
  00027	cc		 int	 3
__ehhandler$?GetDefaultPath@CKTBChartCtrl@@UAE?AV?$CStringT@DV?$StrTraitMFC_DLL@DV?$ChTraitsCRT@D@ATL@@@@@ATL@@XZ:
  00028	90		 npad	 1
  00029	90		 npad	 1
  0002a	8b 54 24 08	 mov	 edx, DWORD PTR [esp+8]
  0002e	8d 42 0c	 lea	 eax, DWORD PTR [edx+12]
  00031	8b 4a e8	 mov	 ecx, DWORD PTR [edx-24]
  00034	33 c8		 xor	 ecx, eax
  00036	e8 00 00 00 00	 call	 @__security_check_cookie@4
  0003b	b8 00 00 00 00	 mov	 eax, OFFSET __ehfuncinfo$?GetDefaultPath@CKTBChartCtrl@@UAE?AV?$CStringT@DV?$StrTraitMFC_DLL@DV?$ChTraitsCRT@D@ATL@@@@@ATL@@XZ
  00040	e9 00 00 00 00	 jmp	 ___CxxFrameHandler3
text$x	ENDS
?GetDefaultPath@CKTBChartCtrl@@UAE?AV?$CStringT@DV?$StrTraitMFC_DLL@DV?$ChTraitsCRT@D@ATL@@@@@ATL@@XZ ENDP ; CKTBChartCtrl::GetDefaultPath
; Function compile flags: /Ogtp
; File D:\git\src\IBK\IBK_DRFN\ProjSrc\SrcChartEx\ChartOCX\Include_Chart\Dll_Load\IMetaTable.h
; File C:\Program Files (x86)\Microsoft Visual Studio\2019\Community\VC\Tools\MSVC\14.29.30133\atlmfc\include\afxwin1.inl
; File D:\git\src\IBK\IBK_DRFN\ProjSrc\SrcChartEx\ChartOCX\Include_Chart\Dll_Load\IMetaTable.h
;	COMDAT ??1CMultiLanguageResourceSetter@@QAE@XZ
_TEXT	SEGMENT
__$EHRec$ = -12						; size = 12
??1CMultiLanguageResourceSetter@@QAE@XZ PROC		; CMultiLanguageResourceSetter::~CMultiLanguageResourceSetter, COMDAT
; _this$ = ecx

; 1036 : 	{

  00000	55		 push	 ebp
  00001	8b ec		 mov	 ebp, esp
  00003	6a ff		 push	 -1
  00005	68 00 00 00 00	 push	 __ehhandler$??1CMultiLanguageResourceSetter@@QAE@XZ
  0000a	64 a1 00 00 00
	00		 mov	 eax, DWORD PTR fs:0
  00010	50		 push	 eax
  00011	56		 push	 esi
  00012	a1 00 00 00 00	 mov	 eax, DWORD PTR ___security_cookie
  00017	33 c5		 xor	 eax, ebp
  00019	50		 push	 eax
  0001a	8d 45 f4	 lea	 eax, DWORD PTR __$EHRec$[ebp]
  0001d	64 a3 00 00 00
	00		 mov	 DWORD PTR fs:0, eax

; 1037 : 		AfxSetResourceHandle( m_hInstance);

  00023	8b 31		 mov	 esi, DWORD PTR [ecx]
; File C:\Program Files (x86)\Microsoft Visual Studio\2019\Community\VC\Tools\MSVC\14.29.30133\atlmfc\include\afxwin1.inl

; 27   : 	{ ASSERT(hInstResource != NULL); afxCurrentResourceHandle = hInstResource; }

  00025	e8 00 00 00 00	 call	 ?AfxGetModuleState@@YGPAVAFX_MODULE_STATE@@XZ ; AfxGetModuleState
  0002a	89 70 0c	 mov	 DWORD PTR [eax+12], esi
; File D:\git\src\IBK\IBK_DRFN\ProjSrc\SrcChartEx\ChartOCX\Include_Chart\Dll_Load\IMetaTable.h

; 1038 : 	}

  0002d	8b 4d f4	 mov	 ecx, DWORD PTR __$EHRec$[ebp]
  00030	64 89 0d 00 00
	00 00		 mov	 DWORD PTR fs:0, ecx
  00037	59		 pop	 ecx
  00038	5e		 pop	 esi
  00039	8b e5		 mov	 esp, ebp
  0003b	5d		 pop	 ebp
  0003c	c3		 ret	 0
  0003d	cc		 int	 3
  0003e	cc		 int	 3
  0003f	cc		 int	 3
  00040	cc		 int	 3
  00041	cc		 int	 3
_TEXT	ENDS
;	COMDAT text$x
text$x	SEGMENT
__ehhandler$??1CMultiLanguageResourceSetter@@QAE@XZ:
  00000	90		 npad	 1
  00001	90		 npad	 1
  00002	8b 54 24 08	 mov	 edx, DWORD PTR [esp+8]
  00006	8d 42 0c	 lea	 eax, DWORD PTR [edx+12]
  00009	8b 4a f8	 mov	 ecx, DWORD PTR [edx-8]
  0000c	33 c8		 xor	 ecx, eax
  0000e	e8 00 00 00 00	 call	 @__security_check_cookie@4
  00013	b8 00 00 00 00	 mov	 eax, OFFSET __ehfuncinfo$??1CMultiLanguageResourceSetter@@QAE@XZ
  00018	e9 00 00 00 00	 jmp	 ___CxxFrameHandler3
text$x	ENDS
??1CMultiLanguageResourceSetter@@QAE@XZ ENDP		; CMultiLanguageResourceSetter::~CMultiLanguageResourceSetter
; Function compile flags: /Ogtp
; File C:\Program Files (x86)\Microsoft Visual Studio\2019\Community\VC\Tools\MSVC\14.29.30133\atlmfc\include\cstringt.h
; File C:\Program Files (x86)\Microsoft Visual Studio\2019\Community\VC\Tools\MSVC\14.29.30133\atlmfc\include\atlsimpstr.h
; File C:\Program Files (x86)\Microsoft Visual Studio\2019\Community\VC\Tools\MSVC\14.29.30133\atlmfc\include\cstringt.h
; File C:\Program Files (x86)\Microsoft Visual Studio\2019\Community\VC\Tools\MSVC\14.29.30133\atlmfc\include\atlsimpstr.h
; File C:\Program Files (x86)\Microsoft Visual Studio\2019\Community\VC\Tools\MSVC\14.29.30133\atlmfc\include\cstringt.h
;	COMDAT ??HATL@@YA?AV?$CStringT@DV?$StrTraitMFC_DLL@DV?$ChTraitsCRT@D@ATL@@@@@0@ABV10@PBD@Z
_TEXT	SEGMENT
$T2 = -16						; size = 4
__$EHRec$ = -12						; size = 12
___$ReturnUdt$ = 8					; size = 4
_str1$ = 12						; size = 4
_psz2$ = 16						; size = 4
??HATL@@YA?AV?$CStringT@DV?$StrTraitMFC_DLL@DV?$ChTraitsCRT@D@ATL@@@@@0@ABV10@PBD@Z PROC ; ATL::operator+, COMDAT

; 2400 : 	{

  00000	55		 push	 ebp
  00001	8b ec		 mov	 ebp, esp
  00003	6a ff		 push	 -1
  00005	68 00 00 00 00	 push	 __ehhandler$??HATL@@YA?AV?$CStringT@DV?$StrTraitMFC_DLL@DV?$ChTraitsCRT@D@ATL@@@@@0@ABV10@PBD@Z
  0000a	64 a1 00 00 00
	00		 mov	 eax, DWORD PTR fs:0
  00010	50		 push	 eax
  00011	51		 push	 ecx
  00012	53		 push	 ebx
  00013	56		 push	 esi
  00014	57		 push	 edi
  00015	a1 00 00 00 00	 mov	 eax, DWORD PTR ___security_cookie
  0001a	33 c5		 xor	 eax, ebp
  0001c	50		 push	 eax
  0001d	8d 45 f4	 lea	 eax, DWORD PTR __$EHRec$[ebp]
  00020	64 a3 00 00 00
	00		 mov	 DWORD PTR fs:0, eax

; 2401 : 		CStringT strResult( str1.GetManager() );

  00026	8b 5d 0c	 mov	 ebx, DWORD PTR _str1$[ebp]
  00029	8b cb		 mov	 ecx, ebx
  0002b	c7 45 f0 00 00
	00 00		 mov	 DWORD PTR $T2[ebp], 0
  00032	ff 15 00 00 00
	00		 call	 DWORD PTR __imp_?GetManager@?$CStringT@DV?$StrTraitMFC_DLL@DV?$ChTraitsCRT@D@ATL@@@@@ATL@@QBEPAUIAtlStringMgr@2@XZ
  00038	8b 7d 08	 mov	 edi, DWORD PTR ___$ReturnUdt$[ebp]
  0003b	8b cf		 mov	 ecx, edi
  0003d	50		 push	 eax
  0003e	ff 15 00 00 00
	00		 call	 DWORD PTR __imp_??0?$CStringT@DV?$StrTraitMFC_DLL@DV?$ChTraitsCRT@D@ATL@@@@@ATL@@QAE@PAUIAtlStringMgr@1@@Z
; File C:\Program Files (x86)\Microsoft Visual Studio\2019\Community\VC\Tools\MSVC\14.29.30133\atlmfc\include\atlsimpstr.h

; 722  : 		if( psz == NULL )

  00044	8b 75 10	 mov	 esi, DWORD PTR _psz2$[ebp]
; File C:\Program Files (x86)\Microsoft Visual Studio\2019\Community\VC\Tools\MSVC\14.29.30133\atlmfc\include\cstringt.h

; 2405 : 		return( strResult );

  00047	c7 45 fc 00 00
	00 00		 mov	 DWORD PTR __$EHRec$[ebp+8], 0
  0004e	c7 45 f0 01 00
	00 00		 mov	 DWORD PTR $T2[ebp], 1
; File C:\Program Files (x86)\Microsoft Visual Studio\2019\Community\VC\Tools\MSVC\14.29.30133\atlmfc\include\atlsimpstr.h

; 722  : 		if( psz == NULL )

  00055	85 f6		 test	 esi, esi
  00057	75 04		 jne	 SHORT $LN6@operator

; 723  : 		{
; 724  : 			return( 0 );

  00059	33 d2		 xor	 edx, edx
  0005b	eb 0e		 jmp	 SHORT $LN5@operator
$LN6@operator:

; 725  : 		}
; 726  : 		return( int( strlen( psz ) ) );

  0005d	8b d6		 mov	 edx, esi
  0005f	8d 4a 01	 lea	 ecx, DWORD PTR [edx+1]
$LL14@operator:
  00062	8a 02		 mov	 al, BYTE PTR [edx]
  00064	42		 inc	 edx
  00065	84 c0		 test	 al, al
  00067	75 f9		 jne	 SHORT $LL14@operator
  00069	2b d1		 sub	 edx, ecx
$LN5@operator:

; 519  : 		return( GetData()->nDataLength );

  0006b	8b 0b		 mov	 ecx, DWORD PTR [ebx]
; File C:\Program Files (x86)\Microsoft Visual Studio\2019\Community\VC\Tools\MSVC\14.29.30133\atlmfc\include\cstringt.h

; 2403 : 		CThisSimpleString::Concatenate( strResult, str1, str1.GetLength(), psz2, CThisSimpleString::StringLength( psz2 ) );

  0006d	52		 push	 edx
  0006e	56		 push	 esi
  0006f	ff 71 f4	 push	 DWORD PTR [ecx-12]
  00072	51		 push	 ecx
  00073	57		 push	 edi
  00074	ff 15 00 00 00
	00		 call	 DWORD PTR __imp_?Concatenate@?$CSimpleStringT@D$00@ATL@@KAXAAV12@PBDH1H@Z
  0007a	83 c4 14	 add	 esp, 20			; 00000014H

; 2405 : 		return( strResult );

  0007d	8b c7		 mov	 eax, edi

; 2406 : 	}

  0007f	8b 4d f4	 mov	 ecx, DWORD PTR __$EHRec$[ebp]
  00082	64 89 0d 00 00
	00 00		 mov	 DWORD PTR fs:0, ecx
  00089	59		 pop	 ecx
  0008a	5f		 pop	 edi
  0008b	5e		 pop	 esi
  0008c	5b		 pop	 ebx
  0008d	8b e5		 mov	 esp, ebp
  0008f	5d		 pop	 ebp
  00090	c3		 ret	 0
_TEXT	ENDS
;	COMDAT text$x
text$x	SEGMENT
__unwindfunclet$??HATL@@YA?AV?$CStringT@DV?$StrTraitMFC_DLL@DV?$ChTraitsCRT@D@ATL@@@@@0@ABV10@PBD@Z$0:
  00000	8b 45 f0	 mov	 eax, DWORD PTR $T2[ebp]
  00003	83 e0 01	 and	 eax, 1
  00006	0f 84 0d 00 00
	00		 je	 $LN4@operator
  0000c	83 65 f0 fe	 and	 DWORD PTR $T2[ebp], -2	; fffffffeH
  00010	8b 4d 08	 mov	 ecx, DWORD PTR ___$ReturnUdt$[ebp]
  00013	ff 25 00 00 00
	00		 jmp	 DWORD PTR __imp_??1?$CStringT@DV?$StrTraitMFC_DLL@DV?$ChTraitsCRT@D@ATL@@@@@ATL@@QAE@XZ
$LN4@operator:
  00019	c3		 ret	 0
  0001a	cc		 int	 3
  0001b	cc		 int	 3
  0001c	cc		 int	 3
  0001d	cc		 int	 3
  0001e	cc		 int	 3
__ehhandler$??HATL@@YA?AV?$CStringT@DV?$StrTraitMFC_DLL@DV?$ChTraitsCRT@D@ATL@@@@@0@ABV10@PBD@Z:
  0001f	90		 npad	 1
  00020	90		 npad	 1
  00021	8b 54 24 08	 mov	 edx, DWORD PTR [esp+8]
  00025	8d 42 0c	 lea	 eax, DWORD PTR [edx+12]
  00028	8b 4a ec	 mov	 ecx, DWORD PTR [edx-20]
  0002b	33 c8		 xor	 ecx, eax
  0002d	e8 00 00 00 00	 call	 @__security_check_cookie@4
  00032	b8 00 00 00 00	 mov	 eax, OFFSET __ehfuncinfo$??HATL@@YA?AV?$CStringT@DV?$StrTraitMFC_DLL@DV?$ChTraitsCRT@D@ATL@@@@@0@ABV10@PBD@Z
  00037	e9 00 00 00 00	 jmp	 ___CxxFrameHandler3
text$x	ENDS
??HATL@@YA?AV?$CStringT@DV?$StrTraitMFC_DLL@DV?$ChTraitsCRT@D@ATL@@@@@0@ABV10@PBD@Z ENDP ; ATL::operator+
; Function compile flags: /Ogtp
; File D:\git\src\IBK\IBK_DRFN\ProjSrc\SrcChartEx\ChartOCX\KTBChart\KTBChartCommonInterface.cpp
;	COMDAT ?__empty_global_delete@@YAXPAXI@Z
_TEXT	SEGMENT
___formal$ = 8						; size = 4
___formal$ = 12						; size = 4
?__empty_global_delete@@YAXPAXI@Z PROC			; __empty_global_delete, COMDAT

  00000	c2 00 00	 ret	 0
?__empty_global_delete@@YAXPAXI@Z ENDP			; __empty_global_delete
_TEXT	ENDS
; Function compile flags: /Ogtp
; File D:\git\src\IBK\IBK_DRFN\ProjSrc\SrcChartEx\ChartOCX\KTBChart\KTBChartCommonInterface.cpp
;	COMDAT ?__empty_global_delete@@YAXPAX@Z
_TEXT	SEGMENT
___formal$ = 8						; size = 4
?__empty_global_delete@@YAXPAX@Z PROC			; __empty_global_delete, COMDAT

  00000	c2 00 00	 ret	 0
?__empty_global_delete@@YAXPAX@Z ENDP			; __empty_global_delete
_TEXT	ENDS
END
