; Listing generated by Microsoft (R) Optimizing Compiler Version 19.29.30145.0 

	TITLE	D:\git\src\IBK\IBK_DRFN\#DRfn-CS\_Obj\KTBChart\KTBChartPpg.obj
	.686P
	.XMM
	include listing.inc
	.model	flat

INCLUDELIB MSVCRT
INCLUDELIB OLDNAMES

PUBLIC	?Serialize@CObject@@UAEXAAVCArchive@@@Z		; CObject::Serialize
PUBLIC	?AssertValid@CObject@@UBEXXZ			; CObject::AssertValid
PUBLIC	?Dump@CObject@@UBEXAAVCDumpContext@@@Z		; CObject::Dump
PUBLIC	??_R0?AVCObject@@@8				; CObject `RTTI Type Descriptor'
PUBLIC	??_R3CObject@@8					; CObject::`RTTI Class Hierarchy Descriptor'
PUBLIC	??_R2CObject@@8					; CObject::`RTTI Base Class Array'
PUBLIC	??_R1A@?0A@EA@CObject@@8			; CObject::`RTTI Base Class Descriptor at (0,-1,0,64)'
PUBLIC	??_R1A@?0A@EA@CCmdTarget@@8			; CCmdTarget::`RTTI Base Class Descriptor at (0,-1,0,64)'
PUBLIC	??_R0?AVCCmdTarget@@@8				; CCmdTarget `RTTI Type Descriptor'
PUBLIC	??_R3CCmdTarget@@8				; CCmdTarget::`RTTI Class Hierarchy Descriptor'
PUBLIC	??_R2CCmdTarget@@8				; CCmdTarget::`RTTI Base Class Array'
PUBLIC	?UpdateRegistry@CKTBChartPropPageFactory@CKTBChartPropPage@@UAEHH@Z ; CKTBChartPropPage::CKTBChartPropPageFactory::UpdateRegistry
PUBLIC	??_7CKTBChartPropPageFactory@CKTBChartPropPage@@6B@ ; CKTBChartPropPage::CKTBChartPropPageFactory::`vftable'
PUBLIC	??_GCKTBChartPropPageFactory@CKTBChartPropPage@@UAEPAXI@Z ; CKTBChartPropPage::CKTBChartPropPageFactory::`scalar deleting destructor'
PUBLIC	?guid@CKTBChartPropPage@@2U_GUID@@B		; CKTBChartPropPage::guid
PUBLIC	?IsRegistered@COleObjectFactory@@UBEHXZ		; COleObjectFactory::IsRegistered
PUBLIC	??_R4CKTBChartPropPageFactory@CKTBChartPropPage@@6B@ ; CKTBChartPropPage::CKTBChartPropPageFactory::`RTTI Complete Object Locator'
PUBLIC	??_R0?AVCKTBChartPropPageFactory@CKTBChartPropPage@@@8 ; CKTBChartPropPage::CKTBChartPropPageFactory `RTTI Type Descriptor'
PUBLIC	??_R3CKTBChartPropPageFactory@CKTBChartPropPage@@8 ; CKTBChartPropPage::CKTBChartPropPageFactory::`RTTI Class Hierarchy Descriptor'
PUBLIC	??_R2CKTBChartPropPageFactory@CKTBChartPropPage@@8 ; CKTBChartPropPage::CKTBChartPropPageFactory::`RTTI Base Class Array'
PUBLIC	??_R1A@?0A@EA@CKTBChartPropPageFactory@CKTBChartPropPage@@8 ; CKTBChartPropPage::CKTBChartPropPageFactory::`RTTI Base Class Descriptor at (0,-1,0,64)'
PUBLIC	??_R1A@?0A@EA@COleObjectFactory@@8		; COleObjectFactory::`RTTI Base Class Descriptor at (0,-1,0,64)'
PUBLIC	??_R0?AVCOleObjectFactory@@@8			; COleObjectFactory `RTTI Type Descriptor'
PUBLIC	??_R3COleObjectFactory@@8			; COleObjectFactory::`RTTI Class Hierarchy Descriptor'
PUBLIC	??_R2COleObjectFactory@@8			; COleObjectFactory::`RTTI Base Class Array'
EXTRN	??_7type_info@@6B@:QWORD			; type_info::`vftable'
EXTRN	??_ECKTBChartPropPageFactory@CKTBChartPropPage@@UAEPAXI@Z:PROC ; CKTBChartPropPage::CKTBChartPropPageFactory::`vector deleting destructor'
EXTRN	?GetRuntimeClass@COleObjectFactory@@UBEPAUCRuntimeClass@@XZ:PROC ; COleObjectFactory::GetRuntimeClass
EXTRN	?Register@COleObjectFactory@@UAEHXZ:PROC	; COleObjectFactory::Register
EXTRN	?OnCreateObject@COleObjectFactory@@MAEPAVCCmdTarget@@XZ:PROC ; COleObjectFactory::OnCreateObject
EXTRN	?VerifyUserLicense@COleObjectFactory@@MAEHXZ:PROC ; COleObjectFactory::VerifyUserLicense
EXTRN	?GetLicenseKey@COleObjectFactory@@MAEHKPAPA_W@Z:PROC ; COleObjectFactory::GetLicenseKey
EXTRN	?VerifyLicenseKey@COleObjectFactory@@MAEHPA_W@Z:PROC ; COleObjectFactory::VerifyLicenseKey
EXTRN	?GetInterfaceMap@COleObjectFactory@@MBEPBUAFX_INTERFACEMAP@@XZ:PROC ; COleObjectFactory::GetInterfaceMap
EXTRN	?OnCmdMsg@CCmdTarget@@UAEHIHPAXPAUAFX_CMDHANDLERINFO@@@Z:PROC ; CCmdTarget::OnCmdMsg
EXTRN	?OnFinalRelease@CCmdTarget@@UAEXXZ:PROC		; CCmdTarget::OnFinalRelease
EXTRN	?IsInvokeAllowed@CCmdTarget@@UAEHJ@Z:PROC	; CCmdTarget::IsInvokeAllowed
EXTRN	?GetDispatchIID@CCmdTarget@@UAEHPAU_GUID@@@Z:PROC ; CCmdTarget::GetDispatchIID
EXTRN	?GetTypeInfoCount@CCmdTarget@@UAEIXZ:PROC	; CCmdTarget::GetTypeInfoCount
EXTRN	?GetTypeLibCache@CCmdTarget@@UAEPAVCTypeLibCache@@XZ:PROC ; CCmdTarget::GetTypeLibCache
EXTRN	?GetTypeLib@CCmdTarget@@UAEJKPAPAUITypeLib@@@Z:PROC ; CCmdTarget::GetTypeLib
EXTRN	?GetMessageMap@CCmdTarget@@MBEPBUAFX_MSGMAP@@XZ:PROC ; CCmdTarget::GetMessageMap
EXTRN	?GetCommandMap@CCmdTarget@@MBEPBUAFX_OLECMDMAP@@XZ:PROC ; CCmdTarget::GetCommandMap
EXTRN	?GetDispatchMap@CCmdTarget@@MBEPBUAFX_DISPMAP@@XZ:PROC ; CCmdTarget::GetDispatchMap
EXTRN	?GetConnectionMap@CCmdTarget@@MBEPBUAFX_CONNECTIONMAP@@XZ:PROC ; CCmdTarget::GetConnectionMap
EXTRN	?GetEventSinkMap@CCmdTarget@@MBEPBUAFX_EVENTSINKMAP@@XZ:PROC ; CCmdTarget::GetEventSinkMap
EXTRN	?OnCreateAggregates@CCmdTarget@@UAEHXZ:PROC	; CCmdTarget::OnCreateAggregates
EXTRN	?GetInterfaceHook@CCmdTarget@@UAEPAUIUnknown@@PBX@Z:PROC ; CCmdTarget::GetInterfaceHook
EXTRN	?GetExtraConnectionPoints@CCmdTarget@@MAEHPAVCPtrArray@@@Z:PROC ; CCmdTarget::GetExtraConnectionPoints
EXTRN	?GetConnectionHook@CCmdTarget@@MAEPAUIConnectionPoint@@ABU_GUID@@@Z:PROC ; CCmdTarget::GetConnectionHook
;	COMDAT ??_R2COleObjectFactory@@8
rdata$r	SEGMENT
??_R2COleObjectFactory@@8 DD FLAT:??_R1A@?0A@EA@COleObjectFactory@@8 ; COleObjectFactory::`RTTI Base Class Array'
	DD	FLAT:??_R1A@?0A@EA@CCmdTarget@@8
	DD	FLAT:??_R1A@?0A@EA@CObject@@8
rdata$r	ENDS
;	COMDAT ??_R3COleObjectFactory@@8
rdata$r	SEGMENT
??_R3COleObjectFactory@@8 DD 00H			; COleObjectFactory::`RTTI Class Hierarchy Descriptor'
	DD	00H
	DD	03H
	DD	FLAT:??_R2COleObjectFactory@@8
rdata$r	ENDS
;	COMDAT ??_R0?AVCOleObjectFactory@@@8
data$rs	SEGMENT
??_R0?AVCOleObjectFactory@@@8 DD FLAT:??_7type_info@@6B@ ; COleObjectFactory `RTTI Type Descriptor'
	DD	00H
	DB	'.?AVCOleObjectFactory@@', 00H
data$rs	ENDS
;	COMDAT ??_R1A@?0A@EA@COleObjectFactory@@8
rdata$r	SEGMENT
??_R1A@?0A@EA@COleObjectFactory@@8 DD FLAT:??_R0?AVCOleObjectFactory@@@8 ; COleObjectFactory::`RTTI Base Class Descriptor at (0,-1,0,64)'
	DD	02H
	DD	00H
	DD	0ffffffffH
	DD	00H
	DD	040H
	DD	FLAT:??_R3COleObjectFactory@@8
rdata$r	ENDS
;	COMDAT ??_R1A@?0A@EA@CKTBChartPropPageFactory@CKTBChartPropPage@@8
rdata$r	SEGMENT
??_R1A@?0A@EA@CKTBChartPropPageFactory@CKTBChartPropPage@@8 DD FLAT:??_R0?AVCKTBChartPropPageFactory@CKTBChartPropPage@@@8 ; CKTBChartPropPage::CKTBChartPropPageFactory::`RTTI Base Class Descriptor at (0,-1,0,64)'
	DD	03H
	DD	00H
	DD	0ffffffffH
	DD	00H
	DD	040H
	DD	FLAT:??_R3CKTBChartPropPageFactory@CKTBChartPropPage@@8
rdata$r	ENDS
;	COMDAT ??_R2CKTBChartPropPageFactory@CKTBChartPropPage@@8
rdata$r	SEGMENT
??_R2CKTBChartPropPageFactory@CKTBChartPropPage@@8 DD FLAT:??_R1A@?0A@EA@CKTBChartPropPageFactory@CKTBChartPropPage@@8 ; CKTBChartPropPage::CKTBChartPropPageFactory::`RTTI Base Class Array'
	DD	FLAT:??_R1A@?0A@EA@COleObjectFactory@@8
	DD	FLAT:??_R1A@?0A@EA@CCmdTarget@@8
	DD	FLAT:??_R1A@?0A@EA@CObject@@8
rdata$r	ENDS
;	COMDAT ??_R3CKTBChartPropPageFactory@CKTBChartPropPage@@8
rdata$r	SEGMENT
??_R3CKTBChartPropPageFactory@CKTBChartPropPage@@8 DD 00H ; CKTBChartPropPage::CKTBChartPropPageFactory::`RTTI Class Hierarchy Descriptor'
	DD	00H
	DD	04H
	DD	FLAT:??_R2CKTBChartPropPageFactory@CKTBChartPropPage@@8
rdata$r	ENDS
;	COMDAT ??_R0?AVCKTBChartPropPageFactory@CKTBChartPropPage@@@8
data$rs	SEGMENT
??_R0?AVCKTBChartPropPageFactory@CKTBChartPropPage@@@8 DD FLAT:??_7type_info@@6B@ ; CKTBChartPropPage::CKTBChartPropPageFactory `RTTI Type Descriptor'
	DD	00H
	DB	'.?AVCKTBChartPropPageFactory@CKTBChartPropPage@@', 00H
data$rs	ENDS
;	COMDAT ??_R4CKTBChartPropPageFactory@CKTBChartPropPage@@6B@
rdata$r	SEGMENT
??_R4CKTBChartPropPageFactory@CKTBChartPropPage@@6B@ DD 00H ; CKTBChartPropPage::CKTBChartPropPageFactory::`RTTI Complete Object Locator'
	DD	00H
	DD	00H
	DD	FLAT:??_R0?AVCKTBChartPropPageFactory@CKTBChartPropPage@@@8
	DD	FLAT:??_R3CKTBChartPropPageFactory@CKTBChartPropPage@@8
rdata$r	ENDS
CONST	SEGMENT
?guid@CKTBChartPropPage@@2U_GUID@@B DD 0c5715bacH	; CKTBChartPropPage::guid
	DW	03826H
	DW	04845H
	DB	0b0H
	DB	082H
	DB	04cH
	DB	0b5H
	DB	0dH
	DB	07eH
	DB	0f3H
	DB	083H
?_szProgID_CKTBChartPropPage@@3QBDB DB 'IBKCHART.IBKChartPropPage.1', 00H ; _szProgID_CKTBChartPropPage
CONST	ENDS
;	COMDAT ??_7CKTBChartPropPageFactory@CKTBChartPropPage@@6B@
CONST	SEGMENT
??_7CKTBChartPropPageFactory@CKTBChartPropPage@@6B@ DD FLAT:??_R4CKTBChartPropPageFactory@CKTBChartPropPage@@6B@ ; CKTBChartPropPage::CKTBChartPropPageFactory::`vftable'
	DD	FLAT:?GetRuntimeClass@COleObjectFactory@@UBEPAUCRuntimeClass@@XZ
	DD	FLAT:??_ECKTBChartPropPageFactory@CKTBChartPropPage@@UAEPAXI@Z
	DD	FLAT:?Serialize@CObject@@UAEXAAVCArchive@@@Z
	DD	FLAT:?AssertValid@CObject@@UBEXXZ
	DD	FLAT:?Dump@CObject@@UBEXAAVCDumpContext@@@Z
	DD	FLAT:?OnCmdMsg@CCmdTarget@@UAEHIHPAXPAUAFX_CMDHANDLERINFO@@@Z
	DD	FLAT:?OnFinalRelease@CCmdTarget@@UAEXXZ
	DD	FLAT:?IsInvokeAllowed@CCmdTarget@@UAEHJ@Z
	DD	FLAT:?GetDispatchIID@CCmdTarget@@UAEHPAU_GUID@@@Z
	DD	FLAT:?GetTypeInfoCount@CCmdTarget@@UAEIXZ
	DD	FLAT:?GetTypeLibCache@CCmdTarget@@UAEPAVCTypeLibCache@@XZ
	DD	FLAT:?GetTypeLib@CCmdTarget@@UAEJKPAPAUITypeLib@@@Z
	DD	FLAT:?GetMessageMap@CCmdTarget@@MBEPBUAFX_MSGMAP@@XZ
	DD	FLAT:?GetCommandMap@CCmdTarget@@MBEPBUAFX_OLECMDMAP@@XZ
	DD	FLAT:?GetDispatchMap@CCmdTarget@@MBEPBUAFX_DISPMAP@@XZ
	DD	FLAT:?GetConnectionMap@CCmdTarget@@MBEPBUAFX_CONNECTIONMAP@@XZ
	DD	FLAT:?GetInterfaceMap@COleObjectFactory@@MBEPBUAFX_INTERFACEMAP@@XZ
	DD	FLAT:?GetEventSinkMap@CCmdTarget@@MBEPBUAFX_EVENTSINKMAP@@XZ
	DD	FLAT:?OnCreateAggregates@CCmdTarget@@UAEHXZ
	DD	FLAT:?GetInterfaceHook@CCmdTarget@@UAEPAUIUnknown@@PBX@Z
	DD	FLAT:?GetExtraConnectionPoints@CCmdTarget@@MAEHPAVCPtrArray@@@Z
	DD	FLAT:?GetConnectionHook@CCmdTarget@@MAEPAUIConnectionPoint@@ABU_GUID@@@Z
	DD	FLAT:?IsRegistered@COleObjectFactory@@UBEHXZ
	DD	FLAT:?Register@COleObjectFactory@@UAEHXZ
	DD	FLAT:?UpdateRegistry@CKTBChartPropPageFactory@CKTBChartPropPage@@UAEHH@Z
	DD	FLAT:?OnCreateObject@COleObjectFactory@@MAEPAVCCmdTarget@@XZ
	DD	FLAT:?VerifyUserLicense@COleObjectFactory@@MAEHXZ
	DD	FLAT:?GetLicenseKey@COleObjectFactory@@MAEHKPAPA_W@Z
	DD	FLAT:?VerifyLicenseKey@COleObjectFactory@@MAEHPA_W@Z
CONST	ENDS
;	COMDAT ??_R2CCmdTarget@@8
rdata$r	SEGMENT
??_R2CCmdTarget@@8 DD FLAT:??_R1A@?0A@EA@CCmdTarget@@8	; CCmdTarget::`RTTI Base Class Array'
	DD	FLAT:??_R1A@?0A@EA@CObject@@8
rdata$r	ENDS
;	COMDAT ??_R3CCmdTarget@@8
rdata$r	SEGMENT
??_R3CCmdTarget@@8 DD 00H				; CCmdTarget::`RTTI Class Hierarchy Descriptor'
	DD	00H
	DD	02H
	DD	FLAT:??_R2CCmdTarget@@8
rdata$r	ENDS
;	COMDAT ??_R0?AVCCmdTarget@@@8
data$rs	SEGMENT
??_R0?AVCCmdTarget@@@8 DD FLAT:??_7type_info@@6B@	; CCmdTarget `RTTI Type Descriptor'
	DD	00H
	DB	'.?AVCCmdTarget@@', 00H
data$rs	ENDS
;	COMDAT ??_R1A@?0A@EA@CCmdTarget@@8
rdata$r	SEGMENT
??_R1A@?0A@EA@CCmdTarget@@8 DD FLAT:??_R0?AVCCmdTarget@@@8 ; CCmdTarget::`RTTI Base Class Descriptor at (0,-1,0,64)'
	DD	01H
	DD	00H
	DD	0ffffffffH
	DD	00H
	DD	040H
	DD	FLAT:??_R3CCmdTarget@@8
rdata$r	ENDS
;	COMDAT ??_R1A@?0A@EA@CObject@@8
rdata$r	SEGMENT
??_R1A@?0A@EA@CObject@@8 DD FLAT:??_R0?AVCObject@@@8	; CObject::`RTTI Base Class Descriptor at (0,-1,0,64)'
	DD	00H
	DD	00H
	DD	0ffffffffH
	DD	00H
	DD	040H
	DD	FLAT:??_R3CObject@@8
rdata$r	ENDS
;	COMDAT ??_R2CObject@@8
rdata$r	SEGMENT
??_R2CObject@@8 DD FLAT:??_R1A@?0A@EA@CObject@@8	; CObject::`RTTI Base Class Array'
rdata$r	ENDS
;	COMDAT ??_R3CObject@@8
rdata$r	SEGMENT
??_R3CObject@@8 DD 00H					; CObject::`RTTI Class Hierarchy Descriptor'
	DD	00H
	DD	01H
	DD	FLAT:??_R2CObject@@8
rdata$r	ENDS
;	COMDAT ??_R0?AVCObject@@@8
data$rs	SEGMENT
??_R0?AVCObject@@@8 DD FLAT:??_7type_info@@6B@		; CObject `RTTI Type Descriptor'
	DD	00H
	DB	'.?AVCObject@@', 00H
data$rs	ENDS
PUBLIC	?__empty_global_delete@@YAXPAX@Z		; __empty_global_delete
PUBLIC	?__empty_global_delete@@YAXPAXI@Z		; __empty_global_delete
PUBLIC	??3CObject@@SGXPAX@Z				; CObject::operator delete
PUBLIC	?BeginModalState@CWnd@@UAEXXZ			; CWnd::BeginModalState
PUBLIC	?EndModalState@CWnd@@UAEXXZ			; CWnd::EndModalState
PUBLIC	?Create@CDialog@@UAEHIPAVCWnd@@@Z		; CDialog::Create
PUBLIC	?_GetBaseClass@CKTBChartPropPage@@KGPAUCRuntimeClass@@XZ ; CKTBChartPropPage::_GetBaseClass
PUBLIC	?GetThisClass@CKTBChartPropPage@@SGPAUCRuntimeClass@@XZ ; CKTBChartPropPage::GetThisClass
PUBLIC	?GetRuntimeClass@CKTBChartPropPage@@UBEPAUCRuntimeClass@@XZ ; CKTBChartPropPage::GetRuntimeClass
PUBLIC	?CreateObject@CKTBChartPropPage@@SGPAVCObject@@XZ ; CKTBChartPropPage::CreateObject
PUBLIC	?GetClassID@CKTBChartPropPage@@UAEJPAU_GUID@@@Z	; CKTBChartPropPage::GetClassID
PUBLIC	??0CKTBChartPropPage@@QAE@XZ			; CKTBChartPropPage::CKTBChartPropPage
PUBLIC	?DoDataExchange@CKTBChartPropPage@@MAEXPAVCDataExchange@@@Z ; CKTBChartPropPage::DoDataExchange
PUBLIC	?GetThisMessageMap@CKTBChartPropPage@@KGPBUAFX_MSGMAP@@XZ ; CKTBChartPropPage::GetThisMessageMap
PUBLIC	?GetMessageMap@CKTBChartPropPage@@MBEPBUAFX_MSGMAP@@XZ ; CKTBChartPropPage::GetMessageMap
PUBLIC	??_GCKTBChartPropPage@@UAEPAXI@Z		; CKTBChartPropPage::`scalar deleting destructor'
PUBLIC	??_R1A@?0A@EA@CWnd@@8				; CWnd::`RTTI Base Class Descriptor at (0,-1,0,64)'
PUBLIC	??_R0?AVCWnd@@@8				; CWnd `RTTI Type Descriptor'
PUBLIC	??_R3CWnd@@8					; CWnd::`RTTI Class Hierarchy Descriptor'
PUBLIC	??_R2CWnd@@8					; CWnd::`RTTI Base Class Array'
PUBLIC	??_R1A@?0A@EA@CDialog@@8			; CDialog::`RTTI Base Class Descriptor at (0,-1,0,64)'
PUBLIC	??_R0?AVCDialog@@@8				; CDialog `RTTI Type Descriptor'
PUBLIC	??_R3CDialog@@8					; CDialog::`RTTI Class Hierarchy Descriptor'
PUBLIC	??_R2CDialog@@8					; CDialog::`RTTI Base Class Array'
PUBLIC	?classCKTBChartPropPage@CKTBChartPropPage@@2UCRuntimeClass@@B ; CKTBChartPropPage::classCKTBChartPropPage
PUBLIC	?factory@CKTBChartPropPage@@1VCKTBChartPropPageFactory@1@A ; CKTBChartPropPage::factory
PUBLIC	??_7CKTBChartPropPage@@6B@			; CKTBChartPropPage::`vftable'
PUBLIC	??_C@_0BC@NJGFGMED@CKTBChartPropPage@		; `string'
PUBLIC	??_R4CKTBChartPropPage@@6B@			; CKTBChartPropPage::`RTTI Complete Object Locator'
PUBLIC	??_R0?AVCKTBChartPropPage@@@8			; CKTBChartPropPage `RTTI Type Descriptor'
PUBLIC	??_R3CKTBChartPropPage@@8			; CKTBChartPropPage::`RTTI Class Hierarchy Descriptor'
PUBLIC	??_R2CKTBChartPropPage@@8			; CKTBChartPropPage::`RTTI Base Class Array'
PUBLIC	??_R1A@?0A@EA@CKTBChartPropPage@@8		; CKTBChartPropPage::`RTTI Base Class Descriptor at (0,-1,0,64)'
PUBLIC	??_R1A@?0A@EA@COlePropertyPage@@8		; COlePropertyPage::`RTTI Base Class Descriptor at (0,-1,0,64)'
PUBLIC	??_R0?AVCOlePropertyPage@@@8			; COlePropertyPage `RTTI Type Descriptor'
PUBLIC	??_R3COlePropertyPage@@8			; COlePropertyPage::`RTTI Class Hierarchy Descriptor'
PUBLIC	??_R2COlePropertyPage@@8			; COlePropertyPage::`RTTI Base Class Array'
EXTRN	??2@YAPAXI@Z:PROC				; operator new
EXTRN	??3@YAXPAX@Z:PROC				; operator delete
EXTRN	?__global_delete@@YAXPAXI@Z:PROC		; __global_delete
EXTRN	_atexit:PROC
EXTRN	__imp__EnableWindow@8:PROC
EXTRN	?AfxGetModuleState@@YGPAVAFX_MODULE_STATE@@XZ:PROC ; AfxGetModuleState
EXTRN	?PreSubclassWindow@CWnd@@UAEXXZ:PROC		; CWnd::PreSubclassWindow
EXTRN	?Create@CWnd@@UAEHPBD0KABUtagRECT@@PAV1@IPAUCCreateContext@@@Z:PROC ; CWnd::Create
EXTRN	?CreateEx@CWnd@@UAEHKPBD0KHHHHPAUHWND__@@PAUHMENU__@@PAX@Z:PROC ; CWnd::CreateEx
EXTRN	?CreateEx@CWnd@@UAEHKPBD0KABUtagRECT@@PAV1@IPAX@Z:PROC ; CWnd::CreateEx
EXTRN	?DestroyWindow@CWnd@@UAEHXZ:PROC		; CWnd::DestroyWindow
EXTRN	?PreCreateWindow@CWnd@@UAEHAAUtagCREATESTRUCTA@@@Z:PROC ; CWnd::PreCreateWindow
EXTRN	?CalcWindowRect@CWnd@@UAEXPAUtagRECT@@I@Z:PROC	; CWnd::CalcWindowRect
EXTRN	?GetMenu@CWnd@@UBEPAVCMenu@@XZ:PROC		; CWnd::GetMenu
EXTRN	?SetMenu@CWnd@@UAEHPAVCMenu@@@Z:PROC		; CWnd::SetMenu
EXTRN	?OnToolHitTest@CWnd@@UBEHVCPoint@@PAUtagTOOLINFOA@@@Z:PROC ; CWnd::OnToolHitTest
EXTRN	?GetScrollBarCtrl@CWnd@@UBEPAVCScrollBar@@H@Z:PROC ; CWnd::GetScrollBarCtrl
EXTRN	?WinHelpA@CWnd@@UAEXKI@Z:PROC			; CWnd::WinHelpA
EXTRN	?HtmlHelpA@CWnd@@UAEXKI@Z:PROC			; CWnd::HtmlHelpA
EXTRN	?WinHelpInternal@CWnd@@UAEXKI@Z:PROC		; CWnd::WinHelpInternal
EXTRN	?ContinueModal@CWnd@@UAEHXZ:PROC		; CWnd::ContinueModal
EXTRN	?EndModalLoop@CWnd@@UAEXH@Z:PROC		; CWnd::EndModalLoop
EXTRN	?OnDrawIconicThumbnailOrLivePreview@CWnd@@UAEXAAVCDC@@VCRect@@VCSize@@HAAH@Z:PROC ; CWnd::OnDrawIconicThumbnailOrLivePreview
EXTRN	?EnsureStdObj@CWnd@@UAEJXZ:PROC			; CWnd::EnsureStdObj
EXTRN	?get_accParent@CWnd@@UAEJPAPAUIDispatch@@@Z:PROC ; CWnd::get_accParent
EXTRN	?get_accChildCount@CWnd@@UAEJPAJ@Z:PROC		; CWnd::get_accChildCount
EXTRN	?get_accChild@CWnd@@UAEJUtagVARIANT@@PAPAUIDispatch@@@Z:PROC ; CWnd::get_accChild
EXTRN	?get_accName@CWnd@@UAEJUtagVARIANT@@PAPA_W@Z:PROC ; CWnd::get_accName
EXTRN	?get_accValue@CWnd@@UAEJUtagVARIANT@@PAPA_W@Z:PROC ; CWnd::get_accValue
EXTRN	?get_accDescription@CWnd@@UAEJUtagVARIANT@@PAPA_W@Z:PROC ; CWnd::get_accDescription
EXTRN	?get_accRole@CWnd@@UAEJUtagVARIANT@@PAU2@@Z:PROC ; CWnd::get_accRole
EXTRN	?get_accState@CWnd@@UAEJUtagVARIANT@@PAU2@@Z:PROC ; CWnd::get_accState
EXTRN	?get_accHelp@CWnd@@UAEJUtagVARIANT@@PAPA_W@Z:PROC ; CWnd::get_accHelp
EXTRN	?get_accHelpTopic@CWnd@@UAEJPAPA_WUtagVARIANT@@PAJ@Z:PROC ; CWnd::get_accHelpTopic
EXTRN	?get_accKeyboardShortcut@CWnd@@UAEJUtagVARIANT@@PAPA_W@Z:PROC ; CWnd::get_accKeyboardShortcut
EXTRN	?get_accFocus@CWnd@@UAEJPAUtagVARIANT@@@Z:PROC	; CWnd::get_accFocus
EXTRN	?get_accSelection@CWnd@@UAEJPAUtagVARIANT@@@Z:PROC ; CWnd::get_accSelection
EXTRN	?get_accDefaultAction@CWnd@@UAEJUtagVARIANT@@PAPA_W@Z:PROC ; CWnd::get_accDefaultAction
EXTRN	?accSelect@CWnd@@UAEJJUtagVARIANT@@@Z:PROC	; CWnd::accSelect
EXTRN	?accLocation@CWnd@@UAEJPAJ000UtagVARIANT@@@Z:PROC ; CWnd::accLocation
EXTRN	?accNavigate@CWnd@@UAEJJUtagVARIANT@@PAU2@@Z:PROC ; CWnd::accNavigate
EXTRN	?accHitTest@CWnd@@UAEJJJPAUtagVARIANT@@@Z:PROC	; CWnd::accHitTest
EXTRN	?accDoDefaultAction@CWnd@@UAEJUtagVARIANT@@@Z:PROC ; CWnd::accDoDefaultAction
EXTRN	?put_accName@CWnd@@UAEJUtagVARIANT@@PA_W@Z:PROC	; CWnd::put_accName
EXTRN	?put_accValue@CWnd@@UAEJUtagVARIANT@@PA_W@Z:PROC ; CWnd::put_accValue
EXTRN	?SetProxy@CWnd@@UAEJPAUIAccessibleProxy@@@Z:PROC ; CWnd::SetProxy
EXTRN	?CreateAccessibleProxy@CWnd@@UAEJIJPAJ@Z:PROC	; CWnd::CreateAccessibleProxy
EXTRN	?OnNotify@CWnd@@MAEHIJPAJ@Z:PROC		; CWnd::OnNotify
EXTRN	?GetSuperWndProcAddr@CWnd@@MAEPAP6GJPAUHWND__@@IIJ@ZXZ:PROC ; CWnd::GetSuperWndProcAddr
EXTRN	?OnAmbientProperty@CWnd@@UAEHPAVCOleControlSite@@JPAUtagVARIANT@@@Z:PROC ; CWnd::OnAmbientProperty
EXTRN	?OnWndMsg@CWnd@@MAEHIIJPAJ@Z:PROC		; CWnd::OnWndMsg
EXTRN	?DefWindowProcA@CWnd@@MAEJIIJ@Z:PROC		; CWnd::DefWindowProcA
EXTRN	?PostNcDestroy@CWnd@@MAEXXZ:PROC		; CWnd::PostNcDestroy
EXTRN	?OnChildNotify@CWnd@@MAEHIIJPAJ@Z:PROC		; CWnd::OnChildNotify
EXTRN	?OnTouchInputs@CWnd@@MAEHIPAUtagTOUCHINPUT@@@Z:PROC ; CWnd::OnTouchInputs
EXTRN	?OnTouchInput@CWnd@@MAEHVCPoint@@HHPAUtagTOUCHINPUT@@@Z:PROC ; CWnd::OnTouchInput
EXTRN	?GetGestureStatus@CWnd@@MAEKVCPoint@@@Z:PROC	; CWnd::GetGestureStatus
EXTRN	?OnGestureZoom@CWnd@@MAEHVCPoint@@J@Z:PROC	; CWnd::OnGestureZoom
EXTRN	?OnGesturePan@CWnd@@MAEHVCPoint@@0@Z:PROC	; CWnd::OnGesturePan
EXTRN	?OnGestureRotate@CWnd@@MAEHVCPoint@@N@Z:PROC	; CWnd::OnGestureRotate
EXTRN	?OnGestureTwoFingerTap@CWnd@@MAEHVCPoint@@@Z:PROC ; CWnd::OnGestureTwoFingerTap
EXTRN	?OnGesturePressAndTap@CWnd@@MAEHVCPoint@@J@Z:PROC ; CWnd::OnGesturePressAndTap
EXTRN	?ResizeDynamicLayout@CWnd@@MAEXXZ:PROC		; CWnd::ResizeDynamicLayout
EXTRN	?IsFrameWnd@CWnd@@UBEHXZ:PROC			; CWnd::IsFrameWnd
EXTRN	?CreateControlContainer@CWnd@@MAEHPAPAVCOleControlContainer@@@Z:PROC ; CWnd::CreateControlContainer
EXTRN	?CreateControlSite@CWnd@@MAEHPAVCOleControlContainer@@PAPAVCOleControlSite@@IABU_GUID@@@Z:PROC ; CWnd::CreateControlSite
EXTRN	?Create@CDialog@@UAEHPBDPAVCWnd@@@Z:PROC	; CDialog::Create
EXTRN	?CreateIndirect@CDialog@@UAEHPBUDLGTEMPLATE@@PAVCWnd@@PAX@Z:PROC ; CDialog::CreateIndirect
EXTRN	?CreateIndirect@CDialog@@UAEHPAXPAVCWnd@@@Z:PROC ; CDialog::CreateIndirect
EXTRN	?DoModal@CDialog@@UAEHXZ:PROC			; CDialog::DoModal
EXTRN	?OnSetFont@CDialog@@UAEXPAVCFont@@@Z:PROC	; CDialog::OnSetFont
EXTRN	?OnOK@CDialog@@MAEXXZ:PROC			; CDialog::OnOK
EXTRN	?OnCancel@CDialog@@MAEXXZ:PROC			; CDialog::OnCancel
EXTRN	?OnCmdMsg@CDialog@@UAEHIHPAXPAUAFX_CMDHANDLERINFO@@@Z:PROC ; CDialog::OnCmdMsg
EXTRN	?CheckAutoCenter@CDialog@@UAEHXZ:PROC		; CDialog::CheckAutoCenter
EXTRN	?SetOccDialogInfo@CDialog@@MAEHPAU_AFX_OCC_DIALOG_INFO@@@Z:PROC ; CDialog::SetOccDialogInfo
EXTRN	?GetOccDialogInfo@CDialog@@MAEPAU_AFX_OCC_DIALOG_INFO@@XZ:PROC ; CDialog::GetOccDialogInfo
EXTRN	?PreInitDialog@CDialog@@MAEXXZ:PROC		; CDialog::PreInitDialog
EXTRN	??0COleObjectFactory@@QAE@ABU_GUID@@PAUCRuntimeClass@@HPBD@Z:PROC ; COleObjectFactory::COleObjectFactory
EXTRN	??1COleObjectFactory@@UAE@XZ:PROC		; COleObjectFactory::~COleObjectFactory
EXTRN	?AfxOleUnregisterClass@@YGHABU_GUID@@PBD@Z:PROC	; AfxOleUnregisterClass
EXTRN	?AfxOleRegisterPropertyPageClass@@YGHPAUHINSTANCE__@@ABU_GUID@@I@Z:PROC ; AfxOleRegisterPropertyPageClass
EXTRN	?GetThisClass@COlePropertyPage@@SGPAUCRuntimeClass@@XZ:PROC ; COlePropertyPage::GetThisClass
EXTRN	??0COlePropertyPage@@QAE@II@Z:PROC		; COlePropertyPage::COlePropertyPage
EXTRN	?OnSetPageSite@COlePropertyPage@@UAEXXZ:PROC	; COlePropertyPage::OnSetPageSite
EXTRN	?OnObjectsChanged@COlePropertyPage@@UAEXXZ:PROC	; COlePropertyPage::OnObjectsChanged
EXTRN	?OnHelp@COlePropertyPage@@UAEHPBD@Z:PROC	; COlePropertyPage::OnHelp
EXTRN	?OnInitDialog@COlePropertyPage@@UAEHXZ:PROC	; COlePropertyPage::OnInitDialog
EXTRN	?OnEditProperty@COlePropertyPage@@UAEHJ@Z:PROC	; COlePropertyPage::OnEditProperty
EXTRN	??1COlePropertyPage@@UAE@XZ:PROC		; COlePropertyPage::~COlePropertyPage
EXTRN	?WindowProc@COlePropertyPage@@MAEJIIJ@Z:PROC	; COlePropertyPage::WindowProc
EXTRN	?OnCommand@COlePropertyPage@@MAEHIJ@Z:PROC	; COlePropertyPage::OnCommand
EXTRN	?PreTranslateMessage@COlePropertyPage@@MAEHPAUtagMSG@@@Z:PROC ; COlePropertyPage::PreTranslateMessage
EXTRN	?OnFinalRelease@COlePropertyPage@@MAEXXZ:PROC	; COlePropertyPage::OnFinalRelease
EXTRN	?GetThisMessageMap@COlePropertyPage@@KGPBUAFX_MSGMAP@@XZ:PROC ; COlePropertyPage::GetThisMessageMap
EXTRN	?GetInterfaceMap@COlePropertyPage@@MBEPBUAFX_INTERFACEMAP@@XZ:PROC ; COlePropertyPage::GetInterfaceMap
EXTRN	?DDP_PostProcessing@@YGXPAVCDataExchange@@@Z:PROC ; DDP_PostProcessing
EXTRN	??_ECKTBChartPropPage@@UAEPAXI@Z:PROC		; CKTBChartPropPage::`vector deleting destructor'
EXTRN	@__security_check_cookie@4:PROC
EXTRN	___CxxFrameHandler3:PROC
EXTRN	___security_cookie:DWORD
_BSS	SEGMENT
?factory@CKTBChartPropPage@@1VCKTBChartPropPageFactory@1@A DB 050H DUP (?) ; CKTBChartPropPage::factory
_BSS	ENDS
CRT$XCU	SEGMENT
??factory$initializer$@CKTBChartPropPage@@1P6AXXZA@@3P6AXXZA DD FLAT:??__E?factory@CKTBChartPropPage@@1VCKTBChartPropPageFactory@1@A@@YAXXZ ; ??factory$initializer$@CKTBChartPropPage@@1P6AXXZA@@3P6AXXZA
CRT$XCU	ENDS
;	COMDAT ??_R2COlePropertyPage@@8
rdata$r	SEGMENT
??_R2COlePropertyPage@@8 DD FLAT:??_R1A@?0A@EA@COlePropertyPage@@8 ; COlePropertyPage::`RTTI Base Class Array'
	DD	FLAT:??_R1A@?0A@EA@CDialog@@8
	DD	FLAT:??_R1A@?0A@EA@CWnd@@8
	DD	FLAT:??_R1A@?0A@EA@CCmdTarget@@8
	DD	FLAT:??_R1A@?0A@EA@CObject@@8
rdata$r	ENDS
;	COMDAT ??_R3COlePropertyPage@@8
rdata$r	SEGMENT
??_R3COlePropertyPage@@8 DD 00H				; COlePropertyPage::`RTTI Class Hierarchy Descriptor'
	DD	00H
	DD	05H
	DD	FLAT:??_R2COlePropertyPage@@8
rdata$r	ENDS
;	COMDAT ??_R0?AVCOlePropertyPage@@@8
data$rs	SEGMENT
??_R0?AVCOlePropertyPage@@@8 DD FLAT:??_7type_info@@6B@	; COlePropertyPage `RTTI Type Descriptor'
	DD	00H
	DB	'.?AVCOlePropertyPage@@', 00H
data$rs	ENDS
;	COMDAT ??_R1A@?0A@EA@COlePropertyPage@@8
rdata$r	SEGMENT
??_R1A@?0A@EA@COlePropertyPage@@8 DD FLAT:??_R0?AVCOlePropertyPage@@@8 ; COlePropertyPage::`RTTI Base Class Descriptor at (0,-1,0,64)'
	DD	04H
	DD	00H
	DD	0ffffffffH
	DD	00H
	DD	040H
	DD	FLAT:??_R3COlePropertyPage@@8
rdata$r	ENDS
;	COMDAT ??_R1A@?0A@EA@CKTBChartPropPage@@8
rdata$r	SEGMENT
??_R1A@?0A@EA@CKTBChartPropPage@@8 DD FLAT:??_R0?AVCKTBChartPropPage@@@8 ; CKTBChartPropPage::`RTTI Base Class Descriptor at (0,-1,0,64)'
	DD	05H
	DD	00H
	DD	0ffffffffH
	DD	00H
	DD	040H
	DD	FLAT:??_R3CKTBChartPropPage@@8
rdata$r	ENDS
;	COMDAT ??_R2CKTBChartPropPage@@8
rdata$r	SEGMENT
??_R2CKTBChartPropPage@@8 DD FLAT:??_R1A@?0A@EA@CKTBChartPropPage@@8 ; CKTBChartPropPage::`RTTI Base Class Array'
	DD	FLAT:??_R1A@?0A@EA@COlePropertyPage@@8
	DD	FLAT:??_R1A@?0A@EA@CDialog@@8
	DD	FLAT:??_R1A@?0A@EA@CWnd@@8
	DD	FLAT:??_R1A@?0A@EA@CCmdTarget@@8
	DD	FLAT:??_R1A@?0A@EA@CObject@@8
rdata$r	ENDS
;	COMDAT ??_R3CKTBChartPropPage@@8
rdata$r	SEGMENT
??_R3CKTBChartPropPage@@8 DD 00H			; CKTBChartPropPage::`RTTI Class Hierarchy Descriptor'
	DD	00H
	DD	06H
	DD	FLAT:??_R2CKTBChartPropPage@@8
rdata$r	ENDS
;	COMDAT ??_R0?AVCKTBChartPropPage@@@8
data$rs	SEGMENT
??_R0?AVCKTBChartPropPage@@@8 DD FLAT:??_7type_info@@6B@ ; CKTBChartPropPage `RTTI Type Descriptor'
	DD	00H
	DB	'.?AVCKTBChartPropPage@@', 00H
data$rs	ENDS
;	COMDAT ??_R4CKTBChartPropPage@@6B@
rdata$r	SEGMENT
??_R4CKTBChartPropPage@@6B@ DD 00H			; CKTBChartPropPage::`RTTI Complete Object Locator'
	DD	00H
	DD	00H
	DD	FLAT:??_R0?AVCKTBChartPropPage@@@8
	DD	FLAT:??_R3CKTBChartPropPage@@8
rdata$r	ENDS
;	COMDAT ?messageMap@?1??GetThisMessageMap@CKTBChartPropPage@@KGPBUAFX_MSGMAP@@XZ@4U3@B
CONST	SEGMENT
?messageMap@?1??GetThisMessageMap@CKTBChartPropPage@@KGPBUAFX_MSGMAP@@XZ@4U3@B DD FLAT:?GetThisMessageMap@COlePropertyPage@@KGPBUAFX_MSGMAP@@XZ ; `CKTBChartPropPage::GetThisMessageMap'::`2'::messageMap
	DD	FLAT:?_messageEntries@?1??GetThisMessageMap@CKTBChartPropPage@@KGPBUAFX_MSGMAP@@XZ@4QBUAFX_MSGMAP_ENTRY@@B
CONST	ENDS
;	COMDAT ?_messageEntries@?1??GetThisMessageMap@CKTBChartPropPage@@KGPBUAFX_MSGMAP@@XZ@4QBUAFX_MSGMAP_ENTRY@@B
CONST	SEGMENT
?_messageEntries@?1??GetThisMessageMap@CKTBChartPropPage@@KGPBUAFX_MSGMAP@@XZ@4QBUAFX_MSGMAP_ENTRY@@B DD 00H ; `CKTBChartPropPage::GetThisMessageMap'::`2'::_messageEntries
	DD	00H
	DD	00H
	DD	00H
	DD	00H
	DD	00H
CONST	ENDS
;	COMDAT ??_C@_0BC@NJGFGMED@CKTBChartPropPage@
CONST	SEGMENT
??_C@_0BC@NJGFGMED@CKTBChartPropPage@ DB 'CKTBChartPropPage', 00H ; `string'
CONST	ENDS
;	COMDAT ??_7CKTBChartPropPage@@6B@
CONST	SEGMENT
??_7CKTBChartPropPage@@6B@ DD FLAT:??_R4CKTBChartPropPage@@6B@ ; CKTBChartPropPage::`vftable'
	DD	FLAT:?GetRuntimeClass@CKTBChartPropPage@@UBEPAUCRuntimeClass@@XZ
	DD	FLAT:??_ECKTBChartPropPage@@UAEPAXI@Z
	DD	FLAT:?Serialize@CObject@@UAEXAAVCArchive@@@Z
	DD	FLAT:?AssertValid@CObject@@UBEXXZ
	DD	FLAT:?Dump@CObject@@UBEXAAVCDumpContext@@@Z
	DD	FLAT:?OnCmdMsg@CDialog@@UAEHIHPAXPAUAFX_CMDHANDLERINFO@@@Z
	DD	FLAT:?OnFinalRelease@COlePropertyPage@@MAEXXZ
	DD	FLAT:?IsInvokeAllowed@CCmdTarget@@UAEHJ@Z
	DD	FLAT:?GetDispatchIID@CCmdTarget@@UAEHPAU_GUID@@@Z
	DD	FLAT:?GetTypeInfoCount@CCmdTarget@@UAEIXZ
	DD	FLAT:?GetTypeLibCache@CCmdTarget@@UAEPAVCTypeLibCache@@XZ
	DD	FLAT:?GetTypeLib@CCmdTarget@@UAEJKPAPAUITypeLib@@@Z
	DD	FLAT:?GetMessageMap@CKTBChartPropPage@@MBEPBUAFX_MSGMAP@@XZ
	DD	FLAT:?GetCommandMap@CCmdTarget@@MBEPBUAFX_OLECMDMAP@@XZ
	DD	FLAT:?GetDispatchMap@CCmdTarget@@MBEPBUAFX_DISPMAP@@XZ
	DD	FLAT:?GetConnectionMap@CCmdTarget@@MBEPBUAFX_CONNECTIONMAP@@XZ
	DD	FLAT:?GetInterfaceMap@COlePropertyPage@@MBEPBUAFX_INTERFACEMAP@@XZ
	DD	FLAT:?GetEventSinkMap@CCmdTarget@@MBEPBUAFX_EVENTSINKMAP@@XZ
	DD	FLAT:?OnCreateAggregates@CCmdTarget@@UAEHXZ
	DD	FLAT:?GetInterfaceHook@CCmdTarget@@UAEPAUIUnknown@@PBX@Z
	DD	FLAT:?GetExtraConnectionPoints@CCmdTarget@@MAEHPAVCPtrArray@@@Z
	DD	FLAT:?GetConnectionHook@CCmdTarget@@MAEPAUIConnectionPoint@@ABU_GUID@@@Z
	DD	FLAT:?PreSubclassWindow@CWnd@@UAEXXZ
	DD	FLAT:?Create@CWnd@@UAEHPBD0KABUtagRECT@@PAV1@IPAUCCreateContext@@@Z
	DD	FLAT:?CreateEx@CWnd@@UAEHKPBD0KABUtagRECT@@PAV1@IPAX@Z
	DD	FLAT:?CreateEx@CWnd@@UAEHKPBD0KHHHHPAUHWND__@@PAUHMENU__@@PAX@Z
	DD	FLAT:?DestroyWindow@CWnd@@UAEHXZ
	DD	FLAT:?PreCreateWindow@CWnd@@UAEHAAUtagCREATESTRUCTA@@@Z
	DD	FLAT:?CalcWindowRect@CWnd@@UAEXPAUtagRECT@@I@Z
	DD	FLAT:?GetMenu@CWnd@@UBEPAVCMenu@@XZ
	DD	FLAT:?SetMenu@CWnd@@UAEHPAVCMenu@@@Z
	DD	FLAT:?OnToolHitTest@CWnd@@UBEHVCPoint@@PAUtagTOOLINFOA@@@Z
	DD	FLAT:?GetScrollBarCtrl@CWnd@@UBEPAVCScrollBar@@H@Z
	DD	FLAT:?WinHelpA@CWnd@@UAEXKI@Z
	DD	FLAT:?HtmlHelpA@CWnd@@UAEXKI@Z
	DD	FLAT:?WinHelpInternal@CWnd@@UAEXKI@Z
	DD	FLAT:?ContinueModal@CWnd@@UAEHXZ
	DD	FLAT:?EndModalLoop@CWnd@@UAEXH@Z
	DD	FLAT:?OnDrawIconicThumbnailOrLivePreview@CWnd@@UAEXAAVCDC@@VCRect@@VCSize@@HAAH@Z
	DD	FLAT:?EnsureStdObj@CWnd@@UAEJXZ
	DD	FLAT:?get_accParent@CWnd@@UAEJPAPAUIDispatch@@@Z
	DD	FLAT:?get_accChildCount@CWnd@@UAEJPAJ@Z
	DD	FLAT:?get_accChild@CWnd@@UAEJUtagVARIANT@@PAPAUIDispatch@@@Z
	DD	FLAT:?get_accName@CWnd@@UAEJUtagVARIANT@@PAPA_W@Z
	DD	FLAT:?get_accValue@CWnd@@UAEJUtagVARIANT@@PAPA_W@Z
	DD	FLAT:?get_accDescription@CWnd@@UAEJUtagVARIANT@@PAPA_W@Z
	DD	FLAT:?get_accRole@CWnd@@UAEJUtagVARIANT@@PAU2@@Z
	DD	FLAT:?get_accState@CWnd@@UAEJUtagVARIANT@@PAU2@@Z
	DD	FLAT:?get_accHelp@CWnd@@UAEJUtagVARIANT@@PAPA_W@Z
	DD	FLAT:?get_accHelpTopic@CWnd@@UAEJPAPA_WUtagVARIANT@@PAJ@Z
	DD	FLAT:?get_accKeyboardShortcut@CWnd@@UAEJUtagVARIANT@@PAPA_W@Z
	DD	FLAT:?get_accFocus@CWnd@@UAEJPAUtagVARIANT@@@Z
	DD	FLAT:?get_accSelection@CWnd@@UAEJPAUtagVARIANT@@@Z
	DD	FLAT:?get_accDefaultAction@CWnd@@UAEJUtagVARIANT@@PAPA_W@Z
	DD	FLAT:?accSelect@CWnd@@UAEJJUtagVARIANT@@@Z
	DD	FLAT:?accLocation@CWnd@@UAEJPAJ000UtagVARIANT@@@Z
	DD	FLAT:?accNavigate@CWnd@@UAEJJUtagVARIANT@@PAU2@@Z
	DD	FLAT:?accHitTest@CWnd@@UAEJJJPAUtagVARIANT@@@Z
	DD	FLAT:?accDoDefaultAction@CWnd@@UAEJUtagVARIANT@@@Z
	DD	FLAT:?put_accName@CWnd@@UAEJUtagVARIANT@@PA_W@Z
	DD	FLAT:?put_accValue@CWnd@@UAEJUtagVARIANT@@PA_W@Z
	DD	FLAT:?SetProxy@CWnd@@UAEJPAUIAccessibleProxy@@@Z
	DD	FLAT:?CreateAccessibleProxy@CWnd@@UAEJIJPAJ@Z
	DD	FLAT:?OnCommand@COlePropertyPage@@MAEHIJ@Z
	DD	FLAT:?OnNotify@CWnd@@MAEHIJPAJ@Z
	DD	FLAT:?GetSuperWndProcAddr@CWnd@@MAEPAP6GJPAUHWND__@@IIJ@ZXZ
	DD	FLAT:?DoDataExchange@CKTBChartPropPage@@MAEXPAVCDataExchange@@@Z
	DD	FLAT:?BeginModalState@CWnd@@UAEXXZ
	DD	FLAT:?EndModalState@CWnd@@UAEXXZ
	DD	FLAT:?PreTranslateMessage@COlePropertyPage@@MAEHPAUtagMSG@@@Z
	DD	FLAT:?OnAmbientProperty@CWnd@@UAEHPAVCOleControlSite@@JPAUtagVARIANT@@@Z
	DD	FLAT:?WindowProc@COlePropertyPage@@MAEJIIJ@Z
	DD	FLAT:?OnWndMsg@CWnd@@MAEHIIJPAJ@Z
	DD	FLAT:?DefWindowProcA@CWnd@@MAEJIIJ@Z
	DD	FLAT:?PostNcDestroy@CWnd@@MAEXXZ
	DD	FLAT:?OnChildNotify@CWnd@@MAEHIIJPAJ@Z
	DD	FLAT:?OnTouchInputs@CWnd@@MAEHIPAUtagTOUCHINPUT@@@Z
	DD	FLAT:?OnTouchInput@CWnd@@MAEHVCPoint@@HHPAUtagTOUCHINPUT@@@Z
	DD	FLAT:?GetGestureStatus@CWnd@@MAEKVCPoint@@@Z
	DD	FLAT:?OnGestureZoom@CWnd@@MAEHVCPoint@@J@Z
	DD	FLAT:?OnGesturePan@CWnd@@MAEHVCPoint@@0@Z
	DD	FLAT:?OnGestureRotate@CWnd@@MAEHVCPoint@@N@Z
	DD	FLAT:?OnGestureTwoFingerTap@CWnd@@MAEHVCPoint@@@Z
	DD	FLAT:?OnGesturePressAndTap@CWnd@@MAEHVCPoint@@J@Z
	DD	FLAT:?ResizeDynamicLayout@CWnd@@MAEXXZ
	DD	FLAT:?CheckAutoCenter@CDialog@@UAEHXZ
	DD	FLAT:?IsFrameWnd@CWnd@@UBEHXZ
	DD	FLAT:?CreateControlContainer@CWnd@@MAEHPAPAVCOleControlContainer@@@Z
	DD	FLAT:?CreateControlSite@CWnd@@MAEHPAVCOleControlContainer@@PAPAVCOleControlSite@@IABU_GUID@@@Z
	DD	FLAT:?SetOccDialogInfo@CDialog@@MAEHPAU_AFX_OCC_DIALOG_INFO@@@Z
	DD	FLAT:?GetOccDialogInfo@CDialog@@MAEPAU_AFX_OCC_DIALOG_INFO@@XZ
	DD	FLAT:?Create@CDialog@@UAEHIPAVCWnd@@@Z
	DD	FLAT:?Create@CDialog@@UAEHPBDPAVCWnd@@@Z
	DD	FLAT:?CreateIndirect@CDialog@@UAEHPAXPAVCWnd@@@Z
	DD	FLAT:?CreateIndirect@CDialog@@UAEHPBUDLGTEMPLATE@@PAVCWnd@@PAX@Z
	DD	FLAT:?DoModal@CDialog@@UAEHXZ
	DD	FLAT:?OnInitDialog@COlePropertyPage@@UAEHXZ
	DD	FLAT:?OnSetFont@CDialog@@UAEXPAVCFont@@@Z
	DD	FLAT:?OnOK@CDialog@@MAEXXZ
	DD	FLAT:?OnCancel@CDialog@@MAEXXZ
	DD	FLAT:?PreInitDialog@CDialog@@MAEXXZ
	DD	FLAT:?OnSetPageSite@COlePropertyPage@@UAEXXZ
	DD	FLAT:?OnObjectsChanged@COlePropertyPage@@UAEXXZ
	DD	FLAT:?OnHelp@COlePropertyPage@@UAEHPBD@Z
	DD	FLAT:?OnEditProperty@COlePropertyPage@@UAEHJ@Z
	DD	FLAT:?GetClassID@CKTBChartPropPage@@UAEJPAU_GUID@@@Z
CONST	ENDS
;	COMDAT ?classCKTBChartPropPage@CKTBChartPropPage@@2UCRuntimeClass@@B
CONST	SEGMENT
?classCKTBChartPropPage@CKTBChartPropPage@@2UCRuntimeClass@@B DD FLAT:??_C@_0BC@NJGFGMED@CKTBChartPropPage@ ; CKTBChartPropPage::classCKTBChartPropPage
	DD	0120H
	DD	0ffffH
	DD	FLAT:?CreateObject@CKTBChartPropPage@@SGPAVCObject@@XZ
	DD	FLAT:?_GetBaseClass@CKTBChartPropPage@@KGPAUCRuntimeClass@@XZ
	DD	00H
	DD	00H
CONST	ENDS
;	COMDAT ??_R2CDialog@@8
rdata$r	SEGMENT
??_R2CDialog@@8 DD FLAT:??_R1A@?0A@EA@CDialog@@8	; CDialog::`RTTI Base Class Array'
	DD	FLAT:??_R1A@?0A@EA@CWnd@@8
	DD	FLAT:??_R1A@?0A@EA@CCmdTarget@@8
	DD	FLAT:??_R1A@?0A@EA@CObject@@8
rdata$r	ENDS
;	COMDAT ??_R3CDialog@@8
rdata$r	SEGMENT
??_R3CDialog@@8 DD 00H					; CDialog::`RTTI Class Hierarchy Descriptor'
	DD	00H
	DD	04H
	DD	FLAT:??_R2CDialog@@8
rdata$r	ENDS
;	COMDAT ??_R0?AVCDialog@@@8
data$rs	SEGMENT
??_R0?AVCDialog@@@8 DD FLAT:??_7type_info@@6B@		; CDialog `RTTI Type Descriptor'
	DD	00H
	DB	'.?AVCDialog@@', 00H
data$rs	ENDS
;	COMDAT ??_R1A@?0A@EA@CDialog@@8
rdata$r	SEGMENT
??_R1A@?0A@EA@CDialog@@8 DD FLAT:??_R0?AVCDialog@@@8	; CDialog::`RTTI Base Class Descriptor at (0,-1,0,64)'
	DD	03H
	DD	00H
	DD	0ffffffffH
	DD	00H
	DD	040H
	DD	FLAT:??_R3CDialog@@8
rdata$r	ENDS
;	COMDAT ??_R2CWnd@@8
rdata$r	SEGMENT
??_R2CWnd@@8 DD	FLAT:??_R1A@?0A@EA@CWnd@@8		; CWnd::`RTTI Base Class Array'
	DD	FLAT:??_R1A@?0A@EA@CCmdTarget@@8
	DD	FLAT:??_R1A@?0A@EA@CObject@@8
rdata$r	ENDS
;	COMDAT ??_R3CWnd@@8
rdata$r	SEGMENT
??_R3CWnd@@8 DD	00H					; CWnd::`RTTI Class Hierarchy Descriptor'
	DD	00H
	DD	03H
	DD	FLAT:??_R2CWnd@@8
rdata$r	ENDS
;	COMDAT ??_R0?AVCWnd@@@8
data$rs	SEGMENT
??_R0?AVCWnd@@@8 DD FLAT:??_7type_info@@6B@		; CWnd `RTTI Type Descriptor'
	DD	00H
	DB	'.?AVCWnd@@', 00H
data$rs	ENDS
;	COMDAT ??_R1A@?0A@EA@CWnd@@8
rdata$r	SEGMENT
??_R1A@?0A@EA@CWnd@@8 DD FLAT:??_R0?AVCWnd@@@8		; CWnd::`RTTI Base Class Descriptor at (0,-1,0,64)'
	DD	02H
	DD	00H
	DD	0ffffffffH
	DD	00H
	DD	040H
	DD	FLAT:??_R3CWnd@@8
rdata$r	ENDS
;	COMDAT xdata$x
xdata$x	SEGMENT
__unwindtable$?CreateObject@CKTBChartPropPage@@SGPAVCObject@@XZ DD 0ffffffffH
	DD	FLAT:__unwindfunclet$?CreateObject@CKTBChartPropPage@@SGPAVCObject@@XZ$0
__ehfuncinfo$?CreateObject@CKTBChartPropPage@@SGPAVCObject@@XZ DD 019930522H
	DD	01H
	DD	FLAT:__unwindtable$?CreateObject@CKTBChartPropPage@@SGPAVCObject@@XZ
	DD	2 DUP(00H)
	DD	2 DUP(00H)
	DD	00H
	DD	01H
xdata$x	ENDS
; Function compile flags: /Ogtp
;	COMDAT ??__F?factory@CKTBChartPropPage@@1VCKTBChartPropPageFactory@1@A@@YAXXZ
text$yd	SEGMENT
??__F?factory@CKTBChartPropPage@@1VCKTBChartPropPageFactory@1@A@@YAXXZ PROC ; `dynamic atexit destructor for 'CKTBChartPropPage::factory'', COMDAT
  00000	b9 00 00 00 00	 mov	 ecx, OFFSET ?factory@CKTBChartPropPage@@1VCKTBChartPropPageFactory@1@A ; CKTBChartPropPage::factory
  00005	e9 00 00 00 00	 jmp	 ??1COleObjectFactory@@UAE@XZ ; COleObjectFactory::~COleObjectFactory
??__F?factory@CKTBChartPropPage@@1VCKTBChartPropPageFactory@1@A@@YAXXZ ENDP ; `dynamic atexit destructor for 'CKTBChartPropPage::factory''
text$yd	ENDS
; Function compile flags: /Ogtp
; File D:\git\src\IBK\IBK_DRFN\ProjSrc\SrcChartEx\ChartOCX\KTBChart\KTBChartPpg.cpp
; File D:\git\src\IBK\IBK_DRFN\ProjSrc\SrcChartEx\ChartOCX\KTBChart\KTBChartPpg.h
; File D:\git\src\IBK\IBK_DRFN\ProjSrc\SrcChartEx\ChartOCX\KTBChart\KTBChartPpg.cpp
; File D:\git\src\IBK\IBK_DRFN\ProjSrc\SrcChartEx\ChartOCX\KTBChart\KTBChartPpg.h
; File D:\git\src\IBK\IBK_DRFN\ProjSrc\SrcChartEx\ChartOCX\KTBChart\KTBChartPpg.cpp
;	COMDAT ??__E?factory@CKTBChartPropPage@@1VCKTBChartPropPageFactory@1@A@@YAXXZ
text$di	SEGMENT
??__E?factory@CKTBChartPropPage@@1VCKTBChartPropPageFactory@1@A@@YAXXZ PROC ; `dynamic initializer for 'CKTBChartPropPage::factory'', COMDAT
; File D:\git\src\IBK\IBK_DRFN\ProjSrc\SrcChartEx\ChartOCX\KTBChart\KTBChartPpg.h

; 16   : 	DECLARE_OLECREATE_EX(CKTBChartPropPage)

  00000	68 00 00 00 00	 push	 OFFSET ?_szProgID_CKTBChartPropPage@@3QBDB
  00005	6a 00		 push	 0
  00007	68 00 00 00 00	 push	 OFFSET ?classCKTBChartPropPage@CKTBChartPropPage@@2UCRuntimeClass@@B ; CKTBChartPropPage::classCKTBChartPropPage
  0000c	68 00 00 00 00	 push	 OFFSET ?guid@CKTBChartPropPage@@2U_GUID@@B ; CKTBChartPropPage::guid
  00011	b9 00 00 00 00	 mov	 ecx, OFFSET ?factory@CKTBChartPropPage@@1VCKTBChartPropPageFactory@1@A ; CKTBChartPropPage::factory
  00016	e8 00 00 00 00	 call	 ??0COleObjectFactory@@QAE@ABU_GUID@@PAUCRuntimeClass@@HPBD@Z ; COleObjectFactory::COleObjectFactory
; File D:\git\src\IBK\IBK_DRFN\ProjSrc\SrcChartEx\ChartOCX\KTBChart\KTBChartPpg.cpp

; 33   : _OCX_PP_IMPLEMENT_OLECREATE_EX()

  0001b	68 00 00 00 00	 push	 OFFSET ??__F?factory@CKTBChartPropPage@@1VCKTBChartPropPageFactory@1@A@@YAXXZ ; `dynamic atexit destructor for 'CKTBChartPropPage::factory''
; File D:\git\src\IBK\IBK_DRFN\ProjSrc\SrcChartEx\ChartOCX\KTBChart\KTBChartPpg.h

; 16   : 	DECLARE_OLECREATE_EX(CKTBChartPropPage)

  00020	c7 05 00 00 00
	00 00 00 00 00	 mov	 DWORD PTR ?factory@CKTBChartPropPage@@1VCKTBChartPropPageFactory@1@A, OFFSET ??_7CKTBChartPropPageFactory@CKTBChartPropPage@@6B@
; File D:\git\src\IBK\IBK_DRFN\ProjSrc\SrcChartEx\ChartOCX\KTBChart\KTBChartPpg.cpp

; 33   : _OCX_PP_IMPLEMENT_OLECREATE_EX()

  0002a	e8 00 00 00 00	 call	 _atexit
  0002f	59		 pop	 ecx
  00030	c3		 ret	 0
??__E?factory@CKTBChartPropPage@@1VCKTBChartPropPageFactory@1@A@@YAXXZ ENDP ; `dynamic initializer for 'CKTBChartPropPage::factory''
text$di	ENDS
; Function compile flags: /Ogtp
; File C:\Program Files (x86)\Microsoft Visual Studio\2019\Community\VC\Tools\MSVC\14.29.30133\atlmfc\include\afx.inl
;	COMDAT ??_GCKTBChartPropPage@@UAEPAXI@Z
_TEXT	SEGMENT
___flags$ = 8						; size = 4
??_GCKTBChartPropPage@@UAEPAXI@Z PROC			; CKTBChartPropPage::`scalar deleting destructor', COMDAT
; _this$ = ecx
  00000	55		 push	 ebp
  00001	8b ec		 mov	 ebp, esp
  00003	56		 push	 esi
  00004	8b f1		 mov	 esi, ecx
  00006	e8 00 00 00 00	 call	 ??1COlePropertyPage@@UAE@XZ ; COlePropertyPage::~COlePropertyPage
  0000b	8b 45 08	 mov	 eax, DWORD PTR ___flags$[ebp]
  0000e	a8 01		 test	 al, 1
  00010	74 22		 je	 SHORT $LN12@scalar
  00012	a8 04		 test	 al, 4
  00014	75 10		 jne	 SHORT $LN3@scalar

; 112  : 	{ ::operator delete(p); }

  00016	56		 push	 esi
  00017	e8 00 00 00 00	 call	 ??3@YAXPAX@Z		; operator delete
  0001c	83 c4 04	 add	 esp, 4
  0001f	8b c6		 mov	 eax, esi
  00021	5e		 pop	 esi
  00022	5d		 pop	 ebp
  00023	c2 04 00	 ret	 4
$LN3@scalar:
  00026	68 20 01 00 00	 push	 288			; 00000120H
  0002b	56		 push	 esi
  0002c	e8 00 00 00 00	 call	 ?__global_delete@@YAXPAXI@Z ; __global_delete
  00031	83 c4 08	 add	 esp, 8
$LN12@scalar:
  00034	8b c6		 mov	 eax, esi
  00036	5e		 pop	 esi
  00037	5d		 pop	 ebp
  00038	c2 04 00	 ret	 4
??_GCKTBChartPropPage@@UAEPAXI@Z ENDP			; CKTBChartPropPage::`scalar deleting destructor'
_TEXT	ENDS
; Function compile flags: /Ogtp
; File D:\git\src\IBK\IBK_DRFN\ProjSrc\SrcChartEx\ChartOCX\KTBChart\KTBChartPpg.cpp
;	COMDAT ?GetMessageMap@CKTBChartPropPage@@MBEPBUAFX_MSGMAP@@XZ
_TEXT	SEGMENT
?GetMessageMap@CKTBChartPropPage@@MBEPBUAFX_MSGMAP@@XZ PROC ; CKTBChartPropPage::GetMessageMap, COMDAT
; _this$ = ecx

; 22   : BEGIN_MESSAGE_MAP(CKTBChartPropPage, COlePropertyPage)

  00000	b8 00 00 00 00	 mov	 eax, OFFSET ?messageMap@?1??GetThisMessageMap@CKTBChartPropPage@@KGPBUAFX_MSGMAP@@XZ@4U3@B
  00005	c3		 ret	 0
?GetMessageMap@CKTBChartPropPage@@MBEPBUAFX_MSGMAP@@XZ ENDP ; CKTBChartPropPage::GetMessageMap
_TEXT	ENDS
; Function compile flags: /Ogtp
; File D:\git\src\IBK\IBK_DRFN\ProjSrc\SrcChartEx\ChartOCX\KTBChart\KTBChartPpg.cpp
;	COMDAT ?GetThisMessageMap@CKTBChartPropPage@@KGPBUAFX_MSGMAP@@XZ
_TEXT	SEGMENT
?GetThisMessageMap@CKTBChartPropPage@@KGPBUAFX_MSGMAP@@XZ PROC ; CKTBChartPropPage::GetThisMessageMap, COMDAT

; 23   : 	//{{AFX_MSG_MAP(CKTBChartPropPage)
; 24   : 	// NOTE - ClassWizard will add and remove message map entries
; 25   : 	//    DO NOT EDIT what you see in these blocks of generated code !
; 26   : 	//}}AFX_MSG_MAP
; 27   : END_MESSAGE_MAP()

  00000	b8 00 00 00 00	 mov	 eax, OFFSET ?messageMap@?1??GetThisMessageMap@CKTBChartPropPage@@KGPBUAFX_MSGMAP@@XZ@4U3@B
  00005	c3		 ret	 0
?GetThisMessageMap@CKTBChartPropPage@@KGPBUAFX_MSGMAP@@XZ ENDP ; CKTBChartPropPage::GetThisMessageMap
_TEXT	ENDS
; Function compile flags: /Ogtp
; File D:\git\src\IBK\IBK_DRFN\ProjSrc\SrcChartEx\ChartOCX\KTBChart\KTBChartPpg.cpp
;	COMDAT ?DoDataExchange@CKTBChartPropPage@@MAEXPAVCDataExchange@@@Z
_TEXT	SEGMENT
_pDX$ = 8						; size = 4
?DoDataExchange@CKTBChartPropPage@@MAEXPAVCDataExchange@@@Z PROC ; CKTBChartPropPage::DoDataExchange, COMDAT
; _this$ = ecx

; 67   : 	//{{AFX_DATA_MAP(CKTBChartPropPage)
; 68   : 	// NOTE: ClassWizard will add DDP, DDX, and DDV calls here
; 69   : 	//    DO NOT EDIT what you see in these blocks of generated code !
; 70   : 	//}}AFX_DATA_MAP
; 71   : 	DDP_PostProcessing(pDX);

  00000	e9 00 00 00 00	 jmp	 ?DDP_PostProcessing@@YGXPAVCDataExchange@@@Z ; DDP_PostProcessing
?DoDataExchange@CKTBChartPropPage@@MAEXPAVCDataExchange@@@Z ENDP ; CKTBChartPropPage::DoDataExchange
_TEXT	ENDS
; Function compile flags: /Ogtp
; File D:\git\src\IBK\IBK_DRFN\ProjSrc\SrcChartEx\ChartOCX\KTBChart\KTBChartPpg.cpp
;	COMDAT ??0CKTBChartPropPage@@QAE@XZ
_TEXT	SEGMENT
_this$ = -4						; size = 4
??0CKTBChartPropPage@@QAE@XZ PROC			; CKTBChartPropPage::CKTBChartPropPage, COMDAT
; _this$ = ecx

; 54   : {

  00000	55		 push	 ebp
  00001	8b ec		 mov	 ebp, esp
  00003	51		 push	 ecx
  00004	56		 push	 esi
  00005	68 c8 00 00 00	 push	 200			; 000000c8H
  0000a	8b f1		 mov	 esi, ecx
  0000c	68 c8 00 00 00	 push	 200			; 000000c8H
  00011	89 75 fc	 mov	 DWORD PTR _this$[ebp], esi
  00014	e8 00 00 00 00	 call	 ??0COlePropertyPage@@QAE@II@Z ; COlePropertyPage::COlePropertyPage
  00019	c7 06 00 00 00
	00		 mov	 DWORD PTR [esi], OFFSET ??_7CKTBChartPropPage@@6B@

; 55   : 	//{{AFX_DATA_INIT(CKTBChartPropPage)
; 56   : 	// NOTE: ClassWizard will add member initialization here
; 57   : 	//    DO NOT EDIT what you see in these blocks of generated code !
; 58   : 	//}}AFX_DATA_INIT
; 59   : }

  0001f	8b c6		 mov	 eax, esi
  00021	5e		 pop	 esi
  00022	8b e5		 mov	 esp, ebp
  00024	5d		 pop	 ebp
  00025	c3		 ret	 0
??0CKTBChartPropPage@@QAE@XZ ENDP			; CKTBChartPropPage::CKTBChartPropPage
_TEXT	ENDS
; Function compile flags: /Ogtp
; File D:\git\src\IBK\IBK_DRFN\ProjSrc\SrcChartEx\ChartOCX\KTBChart\KTBChartPpg.cpp
;	COMDAT ?GetClassID@CKTBChartPropPage@@UAEJPAU_GUID@@@Z
_TEXT	SEGMENT
_pclsid$ = 8						; size = 4
?GetClassID@CKTBChartPropPage@@UAEJPAU_GUID@@@Z PROC	; CKTBChartPropPage::GetClassID, COMDAT
; _this$ = ecx

; 33   : _OCX_PP_IMPLEMENT_OLECREATE_EX()

  00000	55		 push	 ebp
  00001	8b ec		 mov	 ebp, esp
  00003	8b 45 08	 mov	 eax, DWORD PTR _pclsid$[ebp]
  00006	0f 10 05 00 00
	00 00		 movups	 xmm0, XMMWORD PTR ?guid@CKTBChartPropPage@@2U_GUID@@B
  0000d	0f 11 00	 movups	 XMMWORD PTR [eax], xmm0
  00010	33 c0		 xor	 eax, eax
  00012	5d		 pop	 ebp
  00013	c2 04 00	 ret	 4
?GetClassID@CKTBChartPropPage@@UAEJPAU_GUID@@@Z ENDP	; CKTBChartPropPage::GetClassID
_TEXT	ENDS
; Function compile flags: /Ogtp
; File C:\Program Files (x86)\Microsoft Visual Studio\2019\Community\VC\Tools\MSVC\14.29.30133\atlmfc\include\afx.inl
;	COMDAT ??_GCKTBChartPropPageFactory@CKTBChartPropPage@@UAEPAXI@Z
_TEXT	SEGMENT
___flags$ = 8						; size = 4
??_GCKTBChartPropPageFactory@CKTBChartPropPage@@UAEPAXI@Z PROC ; CKTBChartPropPage::CKTBChartPropPageFactory::`scalar deleting destructor', COMDAT
; _this$ = ecx
  00000	55		 push	 ebp
  00001	8b ec		 mov	 ebp, esp
  00003	56		 push	 esi
  00004	8b f1		 mov	 esi, ecx
  00006	e8 00 00 00 00	 call	 ??1COleObjectFactory@@UAE@XZ ; COleObjectFactory::~COleObjectFactory
  0000b	8b 45 08	 mov	 eax, DWORD PTR ___flags$[ebp]
  0000e	a8 01		 test	 al, 1
  00010	74 1f		 je	 SHORT $LN12@scalar
  00012	a8 04		 test	 al, 4
  00014	75 10		 jne	 SHORT $LN3@scalar

; 112  : 	{ ::operator delete(p); }

  00016	56		 push	 esi
  00017	e8 00 00 00 00	 call	 ??3@YAXPAX@Z		; operator delete
  0001c	83 c4 04	 add	 esp, 4
  0001f	8b c6		 mov	 eax, esi
  00021	5e		 pop	 esi
  00022	5d		 pop	 ebp
  00023	c2 04 00	 ret	 4
$LN3@scalar:
  00026	6a 50		 push	 80			; 00000050H
  00028	56		 push	 esi
  00029	e8 00 00 00 00	 call	 ?__global_delete@@YAXPAXI@Z ; __global_delete
  0002e	83 c4 08	 add	 esp, 8
$LN12@scalar:
  00031	8b c6		 mov	 eax, esi
  00033	5e		 pop	 esi
  00034	5d		 pop	 ebp
  00035	c2 04 00	 ret	 4
??_GCKTBChartPropPageFactory@CKTBChartPropPage@@UAEPAXI@Z ENDP ; CKTBChartPropPage::CKTBChartPropPageFactory::`scalar deleting destructor'
_TEXT	ENDS
; Function compile flags: /Ogtp
; File D:\git\src\IBK\IBK_DRFN\ProjSrc\SrcChartEx\ChartOCX\KTBChart\KTBChartPpg.cpp
; File C:\Program Files (x86)\Microsoft Visual Studio\2019\Community\VC\Tools\MSVC\14.29.30133\atlmfc\include\afxwin1.inl
; File D:\git\src\IBK\IBK_DRFN\ProjSrc\SrcChartEx\ChartOCX\KTBChart\KTBChartPpg.cpp
; File C:\Program Files (x86)\Microsoft Visual Studio\2019\Community\VC\Tools\MSVC\14.29.30133\atlmfc\include\afxwin1.inl
; File D:\git\src\IBK\IBK_DRFN\ProjSrc\SrcChartEx\ChartOCX\KTBChart\KTBChartPpg.cpp
;	COMDAT ?UpdateRegistry@CKTBChartPropPageFactory@CKTBChartPropPage@@UAEHH@Z
_TEXT	SEGMENT
_bRegister$ = 8						; size = 4
?UpdateRegistry@CKTBChartPropPageFactory@CKTBChartPropPage@@UAEHH@Z PROC ; CKTBChartPropPage::CKTBChartPropPageFactory::UpdateRegistry, COMDAT
; _this$ = ecx

; 40   : {

  00000	55		 push	 ebp
  00001	8b ec		 mov	 ebp, esp

; 41   : 	if (bRegister)

  00003	83 7d 08 00	 cmp	 DWORD PTR _bRegister$[ebp], 0
  00007	56		 push	 esi
  00008	8d 71 28	 lea	 esi, DWORD PTR [ecx+40]
  0000b	74 16		 je	 SHORT $LN2@UpdateRegi
; File C:\Program Files (x86)\Microsoft Visual Studio\2019\Community\VC\Tools\MSVC\14.29.30133\atlmfc\include\afxwin1.inl

; 22   : 		return afxCurrentInstanceHandle; }

  0000d	e8 00 00 00 00	 call	 ?AfxGetModuleState@@YGPAVAFX_MODULE_STATE@@XZ ; AfxGetModuleState
; File D:\git\src\IBK\IBK_DRFN\ProjSrc\SrcChartEx\ChartOCX\KTBChart\KTBChartPpg.cpp

; 42   : 		return AfxOleRegisterPropertyPageClass(AfxGetInstanceHandle(),

  00012	6a 02		 push	 2
  00014	56		 push	 esi
; File C:\Program Files (x86)\Microsoft Visual Studio\2019\Community\VC\Tools\MSVC\14.29.30133\atlmfc\include\afxwin1.inl

; 22   : 		return afxCurrentInstanceHandle; }

  00015	8b 40 08	 mov	 eax, DWORD PTR [eax+8]
; File D:\git\src\IBK\IBK_DRFN\ProjSrc\SrcChartEx\ChartOCX\KTBChart\KTBChartPpg.cpp

; 42   : 		return AfxOleRegisterPropertyPageClass(AfxGetInstanceHandle(),

  00018	50		 push	 eax
  00019	e8 00 00 00 00	 call	 ?AfxOleRegisterPropertyPageClass@@YGHPAUHINSTANCE__@@ABU_GUID@@I@Z ; AfxOleRegisterPropertyPageClass
  0001e	5e		 pop	 esi

; 46   : }

  0001f	5d		 pop	 ebp
  00020	c2 04 00	 ret	 4
$LN2@UpdateRegi:

; 43   : 			m_clsid, IDS_KTBCHART_PPG);
; 44   : 	else
; 45   : 		return AfxOleUnregisterClass(m_clsid, NULL);

  00023	6a 00		 push	 0
  00025	56		 push	 esi
  00026	e8 00 00 00 00	 call	 ?AfxOleUnregisterClass@@YGHABU_GUID@@PBD@Z ; AfxOleUnregisterClass
  0002b	5e		 pop	 esi

; 46   : }

  0002c	5d		 pop	 ebp
  0002d	c2 04 00	 ret	 4
?UpdateRegistry@CKTBChartPropPageFactory@CKTBChartPropPage@@UAEHH@Z ENDP ; CKTBChartPropPage::CKTBChartPropPageFactory::UpdateRegistry
_TEXT	ENDS
; Function compile flags: /Ogtp
; File D:\git\src\IBK\IBK_DRFN\ProjSrc\SrcChartEx\ChartOCX\KTBChart\KTBChartPpg.cpp
; File C:\Program Files (x86)\Microsoft Visual Studio\2019\Community\VC\Tools\MSVC\14.29.30133\atlmfc\include\afx.inl
; File D:\git\src\IBK\IBK_DRFN\ProjSrc\SrcChartEx\ChartOCX\KTBChart\KTBChartPpg.cpp
; File C:\Program Files (x86)\Microsoft Visual Studio\2019\Community\VC\Tools\MSVC\14.29.30133\atlmfc\include\afx.inl
; File D:\git\src\IBK\IBK_DRFN\ProjSrc\SrcChartEx\ChartOCX\KTBChart\KTBChartPpg.cpp
;	COMDAT ?CreateObject@CKTBChartPropPage@@SGPAVCObject@@XZ
_TEXT	SEGMENT
$T2 = -16						; size = 4
__$EHRec$ = -12						; size = 12
?CreateObject@CKTBChartPropPage@@SGPAVCObject@@XZ PROC	; CKTBChartPropPage::CreateObject, COMDAT

; 16   : IMPLEMENT_DYNCREATE(CKTBChartPropPage, COlePropertyPage)

  00000	55		 push	 ebp
  00001	8b ec		 mov	 ebp, esp
  00003	6a ff		 push	 -1
  00005	68 00 00 00 00	 push	 __ehhandler$?CreateObject@CKTBChartPropPage@@SGPAVCObject@@XZ
  0000a	64 a1 00 00 00
	00		 mov	 eax, DWORD PTR fs:0
  00010	50		 push	 eax
  00011	51		 push	 ecx
  00012	56		 push	 esi
  00013	a1 00 00 00 00	 mov	 eax, DWORD PTR ___security_cookie
  00018	33 c5		 xor	 eax, ebp
  0001a	50		 push	 eax
  0001b	8d 45 f4	 lea	 eax, DWORD PTR __$EHRec$[ebp]
  0001e	64 a3 00 00 00
	00		 mov	 DWORD PTR fs:0, eax
; File C:\Program Files (x86)\Microsoft Visual Studio\2019\Community\VC\Tools\MSVC\14.29.30133\atlmfc\include\afx.inl

; 116  : 	{ return ::operator new(nSize); }

  00024	68 20 01 00 00	 push	 288			; 00000120H
  00029	e8 00 00 00 00	 call	 ??2@YAPAXI@Z		; operator new
; File D:\git\src\IBK\IBK_DRFN\ProjSrc\SrcChartEx\ChartOCX\KTBChart\KTBChartPpg.cpp

; 16   : IMPLEMENT_DYNCREATE(CKTBChartPropPage, COlePropertyPage)

  0002e	8b f0		 mov	 esi, eax
; File C:\Program Files (x86)\Microsoft Visual Studio\2019\Community\VC\Tools\MSVC\14.29.30133\atlmfc\include\afx.inl

; 116  : 	{ return ::operator new(nSize); }

  00030	83 c4 04	 add	 esp, 4
; File D:\git\src\IBK\IBK_DRFN\ProjSrc\SrcChartEx\ChartOCX\KTBChart\KTBChartPpg.cpp

; 16   : IMPLEMENT_DYNCREATE(CKTBChartPropPage, COlePropertyPage)

  00033	89 75 f0	 mov	 DWORD PTR $T2[ebp], esi
  00036	c7 45 fc 00 00
	00 00		 mov	 DWORD PTR __$EHRec$[ebp+8], 0
  0003d	85 f6		 test	 esi, esi
  0003f	74 29		 je	 SHORT $LN3@CreateObje

; 53   : 	COlePropertyPage(IDD, IDS_KTBCHART_PPG_CAPTION)

  00041	68 c8 00 00 00	 push	 200			; 000000c8H
  00046	68 c8 00 00 00	 push	 200			; 000000c8H
  0004b	8b ce		 mov	 ecx, esi
  0004d	e8 00 00 00 00	 call	 ??0COlePropertyPage@@QAE@II@Z ; COlePropertyPage::COlePropertyPage

; 54   : {

  00052	c7 06 00 00 00
	00		 mov	 DWORD PTR [esi], OFFSET ??_7CKTBChartPropPage@@6B@

; 16   : IMPLEMENT_DYNCREATE(CKTBChartPropPage, COlePropertyPage)

  00058	8b c6		 mov	 eax, esi
  0005a	8b 4d f4	 mov	 ecx, DWORD PTR __$EHRec$[ebp]
  0005d	64 89 0d 00 00
	00 00		 mov	 DWORD PTR fs:0, ecx
  00064	59		 pop	 ecx
  00065	5e		 pop	 esi
  00066	8b e5		 mov	 esp, ebp
  00068	5d		 pop	 ebp
  00069	c3		 ret	 0
$LN3@CreateObje:
  0006a	33 c0		 xor	 eax, eax
  0006c	8b 4d f4	 mov	 ecx, DWORD PTR __$EHRec$[ebp]
  0006f	64 89 0d 00 00
	00 00		 mov	 DWORD PTR fs:0, ecx
  00076	59		 pop	 ecx
  00077	5e		 pop	 esi
  00078	8b e5		 mov	 esp, ebp
  0007a	5d		 pop	 ebp
  0007b	c3		 ret	 0
_TEXT	ENDS
;	COMDAT text$x
text$x	SEGMENT
__unwindfunclet$?CreateObject@CKTBChartPropPage@@SGPAVCObject@@XZ$0:
  00000	8b 45 f0	 mov	 eax, DWORD PTR $T2[ebp]
  00003	50		 push	 eax
  00004	e8 00 00 00 00	 call	 ??3CObject@@SGXPAX@Z	; CObject::operator delete
  00009	c3		 ret	 0
  0000a	cc		 int	 3
  0000b	cc		 int	 3
  0000c	cc		 int	 3
  0000d	cc		 int	 3
  0000e	cc		 int	 3
__ehhandler$?CreateObject@CKTBChartPropPage@@SGPAVCObject@@XZ:
  0000f	90		 npad	 1
  00010	90		 npad	 1
  00011	8b 54 24 08	 mov	 edx, DWORD PTR [esp+8]
  00015	8d 42 0c	 lea	 eax, DWORD PTR [edx+12]
  00018	8b 4a f4	 mov	 ecx, DWORD PTR [edx-12]
  0001b	33 c8		 xor	 ecx, eax
  0001d	e8 00 00 00 00	 call	 @__security_check_cookie@4
  00022	b8 00 00 00 00	 mov	 eax, OFFSET __ehfuncinfo$?CreateObject@CKTBChartPropPage@@SGPAVCObject@@XZ
  00027	e9 00 00 00 00	 jmp	 ___CxxFrameHandler3
text$x	ENDS
?CreateObject@CKTBChartPropPage@@SGPAVCObject@@XZ ENDP	; CKTBChartPropPage::CreateObject
; Function compile flags: /Ogtp
; File D:\git\src\IBK\IBK_DRFN\ProjSrc\SrcChartEx\ChartOCX\KTBChart\KTBChartPpg.cpp
;	COMDAT ?GetRuntimeClass@CKTBChartPropPage@@UBEPAUCRuntimeClass@@XZ
_TEXT	SEGMENT
?GetRuntimeClass@CKTBChartPropPage@@UBEPAUCRuntimeClass@@XZ PROC ; CKTBChartPropPage::GetRuntimeClass, COMDAT
; _this$ = ecx

; 16   : IMPLEMENT_DYNCREATE(CKTBChartPropPage, COlePropertyPage)

  00000	b8 00 00 00 00	 mov	 eax, OFFSET ?classCKTBChartPropPage@CKTBChartPropPage@@2UCRuntimeClass@@B ; CKTBChartPropPage::classCKTBChartPropPage
  00005	c3		 ret	 0
?GetRuntimeClass@CKTBChartPropPage@@UBEPAUCRuntimeClass@@XZ ENDP ; CKTBChartPropPage::GetRuntimeClass
_TEXT	ENDS
; Function compile flags: /Ogtp
; File D:\git\src\IBK\IBK_DRFN\ProjSrc\SrcChartEx\ChartOCX\KTBChart\KTBChartPpg.cpp
;	COMDAT ?GetThisClass@CKTBChartPropPage@@SGPAUCRuntimeClass@@XZ
_TEXT	SEGMENT
?GetThisClass@CKTBChartPropPage@@SGPAUCRuntimeClass@@XZ PROC ; CKTBChartPropPage::GetThisClass, COMDAT

; 16   : IMPLEMENT_DYNCREATE(CKTBChartPropPage, COlePropertyPage)

  00000	b8 00 00 00 00	 mov	 eax, OFFSET ?classCKTBChartPropPage@CKTBChartPropPage@@2UCRuntimeClass@@B ; CKTBChartPropPage::classCKTBChartPropPage
  00005	c3		 ret	 0
?GetThisClass@CKTBChartPropPage@@SGPAUCRuntimeClass@@XZ ENDP ; CKTBChartPropPage::GetThisClass
_TEXT	ENDS
; Function compile flags: /Ogtp
; File D:\git\src\IBK\IBK_DRFN\ProjSrc\SrcChartEx\ChartOCX\KTBChart\KTBChartPpg.cpp
;	COMDAT ?_GetBaseClass@CKTBChartPropPage@@KGPAUCRuntimeClass@@XZ
_TEXT	SEGMENT
?_GetBaseClass@CKTBChartPropPage@@KGPAUCRuntimeClass@@XZ PROC ; CKTBChartPropPage::_GetBaseClass, COMDAT

; 16   : IMPLEMENT_DYNCREATE(CKTBChartPropPage, COlePropertyPage)

  00000	e9 00 00 00 00	 jmp	 ?GetThisClass@COlePropertyPage@@SGPAUCRuntimeClass@@XZ ; COlePropertyPage::GetThisClass
?_GetBaseClass@CKTBChartPropPage@@KGPAUCRuntimeClass@@XZ ENDP ; CKTBChartPropPage::_GetBaseClass
_TEXT	ENDS
; Function compile flags: /Ogtp
; File C:\Program Files (x86)\Microsoft Visual Studio\2019\Community\VC\Tools\MSVC\14.29.30133\atlmfc\include\afxole.inl
;	COMDAT ?IsRegistered@COleObjectFactory@@UBEHXZ
_TEXT	SEGMENT
?IsRegistered@COleObjectFactory@@UBEHXZ PROC		; COleObjectFactory::IsRegistered, COMDAT
; _this$ = ecx

; 125  : 	{ ASSERT_VALID(this); return m_dwRegister != 0; }

  00000	33 c0		 xor	 eax, eax
  00002	39 41 24	 cmp	 DWORD PTR [ecx+36], eax
  00005	0f 95 c0	 setne	 al
  00008	c3		 ret	 0
?IsRegistered@COleObjectFactory@@UBEHXZ ENDP		; COleObjectFactory::IsRegistered
_TEXT	ENDS
; Function compile flags: /Ogtp
; File C:\Program Files (x86)\Microsoft Visual Studio\2019\Community\VC\Tools\MSVC\14.29.30133\atlmfc\include\afxwin2.inl
;	COMDAT ?Create@CDialog@@UAEHIPAVCWnd@@@Z
_TEXT	SEGMENT
_nIDTemplate$ = 8					; size = 4
_pParentWnd$ = 12					; size = 4
?Create@CDialog@@UAEHIPAVCWnd@@@Z PROC			; CDialog::Create, COMDAT
; _this$ = ecx

; 585  : 	{ return CDialog::Create(ATL_MAKEINTRESOURCE(nIDTemplate), pParentWnd); }

  00000	55		 push	 ebp
  00001	8b ec		 mov	 ebp, esp
  00003	0f b7 45 08	 movzx	 eax, WORD PTR _nIDTemplate$[ebp]
  00007	89 45 08	 mov	 DWORD PTR _nIDTemplate$[ebp], eax
  0000a	5d		 pop	 ebp
  0000b	e9 00 00 00 00	 jmp	 ?Create@CDialog@@UAEHPBDPAVCWnd@@@Z ; CDialog::Create
?Create@CDialog@@UAEHIPAVCWnd@@@Z ENDP			; CDialog::Create
_TEXT	ENDS
; Function compile flags: /Ogtp
; File C:\Program Files (x86)\Microsoft Visual Studio\2019\Community\VC\Tools\MSVC\14.29.30133\atlmfc\include\afxwin2.inl
;	COMDAT ?EndModalState@CWnd@@UAEXXZ
_TEXT	SEGMENT
?EndModalState@CWnd@@UAEXXZ PROC			; CWnd::EndModalState, COMDAT
; _this$ = ecx

; 567  : 	{ ::EnableWindow(m_hWnd, TRUE); }

  00000	6a 01		 push	 1
  00002	ff 71 20	 push	 DWORD PTR [ecx+32]
  00005	ff 15 00 00 00
	00		 call	 DWORD PTR __imp__EnableWindow@8
  0000b	c3		 ret	 0
?EndModalState@CWnd@@UAEXXZ ENDP			; CWnd::EndModalState
_TEXT	ENDS
; Function compile flags: /Ogtp
; File C:\Program Files (x86)\Microsoft Visual Studio\2019\Community\VC\Tools\MSVC\14.29.30133\atlmfc\include\afxwin2.inl
;	COMDAT ?BeginModalState@CWnd@@UAEXXZ
_TEXT	SEGMENT
?BeginModalState@CWnd@@UAEXXZ PROC			; CWnd::BeginModalState, COMDAT
; _this$ = ecx

; 565  : 	{ ::EnableWindow(m_hWnd, FALSE); }

  00000	6a 00		 push	 0
  00002	ff 71 20	 push	 DWORD PTR [ecx+32]
  00005	ff 15 00 00 00
	00		 call	 DWORD PTR __imp__EnableWindow@8
  0000b	c3		 ret	 0
?BeginModalState@CWnd@@UAEXXZ ENDP			; CWnd::BeginModalState
_TEXT	ENDS
; Function compile flags: /Ogtp
; File C:\Program Files (x86)\Microsoft Visual Studio\2019\Community\VC\Tools\MSVC\14.29.30133\atlmfc\include\afx.inl
;	COMDAT ?Dump@CObject@@UBEXAAVCDumpContext@@@Z
_TEXT	SEGMENT
___formal$ = 8						; size = 4
?Dump@CObject@@UBEXAAVCDumpContext@@@Z PROC		; CObject::Dump, COMDAT
; _this$ = ecx

; 122  : 	{ /* no dumping in release builds */ }

  00000	c2 04 00	 ret	 4
?Dump@CObject@@UBEXAAVCDumpContext@@@Z ENDP		; CObject::Dump
_TEXT	ENDS
; Function compile flags: /Ogtp
; File C:\Program Files (x86)\Microsoft Visual Studio\2019\Community\VC\Tools\MSVC\14.29.30133\atlmfc\include\afx.inl
;	COMDAT ?AssertValid@CObject@@UBEXXZ
_TEXT	SEGMENT
?AssertValid@CObject@@UBEXXZ PROC			; CObject::AssertValid, COMDAT
; _this$ = ecx

; 120  : 	{ /* no asserts in release builds */ }

  00000	c2 00 00	 ret	 0
?AssertValid@CObject@@UBEXXZ ENDP			; CObject::AssertValid
_TEXT	ENDS
; Function compile flags: /Ogtp
; File C:\Program Files (x86)\Microsoft Visual Studio\2019\Community\VC\Tools\MSVC\14.29.30133\atlmfc\include\afx.inl
;	COMDAT ?Serialize@CObject@@UAEXAAVCArchive@@@Z
_TEXT	SEGMENT
___formal$ = 8						; size = 4
?Serialize@CObject@@UAEXAAVCArchive@@@Z PROC		; CObject::Serialize, COMDAT
; _this$ = ecx

; 106  : 	{ /* CObject does not serialize anything by default */ }

  00000	c2 04 00	 ret	 4
?Serialize@CObject@@UAEXAAVCArchive@@@Z ENDP		; CObject::Serialize
_TEXT	ENDS
; Function compile flags: /Ogtp
; File C:\Program Files (x86)\Microsoft Visual Studio\2019\Community\VC\Tools\MSVC\14.29.30133\atlmfc\include\afx.inl
;	COMDAT ??3CObject@@SGXPAX@Z
_TEXT	SEGMENT
_p$ = 8							; size = 4
??3CObject@@SGXPAX@Z PROC				; CObject::operator delete, COMDAT

; 112  : 	{ ::operator delete(p); }

  00000	55		 push	 ebp
  00001	8b ec		 mov	 ebp, esp
  00003	ff 75 08	 push	 DWORD PTR _p$[ebp]
  00006	e8 00 00 00 00	 call	 ??3@YAXPAX@Z		; operator delete
  0000b	83 c4 04	 add	 esp, 4
  0000e	5d		 pop	 ebp
  0000f	c2 04 00	 ret	 4
??3CObject@@SGXPAX@Z ENDP				; CObject::operator delete
_TEXT	ENDS
; Function compile flags: /Ogtp
; File D:\git\src\IBK\IBK_DRFN\ProjSrc\SrcChartEx\ChartOCX\KTBChart\KTBChartPpg.cpp
;	COMDAT ?__empty_global_delete@@YAXPAXI@Z
_TEXT	SEGMENT
___formal$ = 8						; size = 4
___formal$ = 12						; size = 4
?__empty_global_delete@@YAXPAXI@Z PROC			; __empty_global_delete, COMDAT

  00000	c2 00 00	 ret	 0
?__empty_global_delete@@YAXPAXI@Z ENDP			; __empty_global_delete
_TEXT	ENDS
; Function compile flags: /Ogtp
; File D:\git\src\IBK\IBK_DRFN\ProjSrc\SrcChartEx\ChartOCX\KTBChart\KTBChartPpg.cpp
;	COMDAT ?__empty_global_delete@@YAXPAX@Z
_TEXT	SEGMENT
___formal$ = 8						; size = 4
?__empty_global_delete@@YAXPAX@Z PROC			; __empty_global_delete, COMDAT

  00000	c2 00 00	 ret	 0
?__empty_global_delete@@YAXPAX@Z ENDP			; __empty_global_delete
_TEXT	ENDS
END
