; Listing generated by Microsoft (R) Optimizing Compiler Version 19.29.30145.0 

	TITLE	D:\git\src\IBK\IBK_DRFN\#DRfn-CS\_Obj\KTBChart\LocalShareInfoList.obj
	.686P
	.XMM
	include listing.inc
	.model	flat

INCLUDELIB MSVCRT
INCLUDELIB OLDNAMES

PUBLIC	?__empty_global_delete@@YAXPAX@Z		; __empty_global_delete
PUBLIC	?__empty_global_delete@@YAXPAXI@Z		; __empty_global_delete
PUBLIC	??1CObject@@UAE@XZ				; CObject::~CObject
PUBLIC	??3CObject@@SGXPAX@Z				; CObject::operator delete
PUBLIC	?Serialize@CObject@@UAEXAAVCArchive@@@Z		; CObject::Serialize
PUBLIC	?AssertValid@CObject@@UBEXXZ			; CObject::AssertValid
PUBLIC	?Dump@CObject@@UBEXAAVCDumpContext@@@Z		; CObject::Dump
PUBLIC	??_GCLocalShareInfo@@UAEPAXI@Z			; CLocalShareInfo::`scalar deleting destructor'
PUBLIC	??_G?$_CTypedPtrList@VCObList@@PAVCLocalShareInfo@@@@UAEPAXI@Z ; _CTypedPtrList<CObList,CLocalShareInfo *>::`scalar deleting destructor'
PUBLIC	??_G?$CTypedPtrList@VCObList@@PAVCLocalShareInfo@@@@UAEPAXI@Z ; CTypedPtrList<CObList,CLocalShareInfo *>::`scalar deleting destructor'
PUBLIC	??0CLocalShareInfoList@@QAE@XZ			; CLocalShareInfoList::CLocalShareInfoList
PUBLIC	??1CLocalShareInfoList@@UAE@XZ			; CLocalShareInfoList::~CLocalShareInfoList
PUBLIC	?AddLocalShareInfo@CLocalShareInfoList@@QAEPAVCLocalShareInfo@@PBDH0@Z ; CLocalShareInfoList::AddLocalShareInfo
PUBLIC	?RemoveAllLocalShareInfo@CLocalShareInfoList@@QAEXXZ ; CLocalShareInfoList::RemoveAllLocalShareInfo
PUBLIC	?RemoveLocalShareInfo@CLocalShareInfoList@@QAEHPBD@Z ; CLocalShareInfoList::RemoveLocalShareInfo
PUBLIC	?FindLocalShareInfo@CLocalShareInfoList@@QAEPAU__POSITION@@PBD@Z ; CLocalShareInfoList::FindLocalShareInfo
PUBLIC	?SetLocalSharedData@CLocalShareInfoList@@QAEHPBD0@Z ; CLocalShareInfoList::SetLocalSharedData
PUBLIC	?GetLocalSharedData@CLocalShareInfoList@@QAEPBDPBD@Z ; CLocalShareInfoList::GetLocalSharedData
PUBLIC	??_GCLocalShareInfoList@@UAEPAXI@Z		; CLocalShareInfoList::`scalar deleting destructor'
PUBLIC	??_R0?AVCObject@@@8				; CObject `RTTI Type Descriptor'
PUBLIC	??_R3CObject@@8					; CObject::`RTTI Class Hierarchy Descriptor'
PUBLIC	??_R2CObject@@8					; CObject::`RTTI Base Class Array'
PUBLIC	??_R1A@?0A@EA@CObject@@8			; CObject::`RTTI Base Class Descriptor at (0,-1,0,64)'
PUBLIC	??_R1A@?0A@EA@CObList@@8			; CObList::`RTTI Base Class Descriptor at (0,-1,0,64)'
PUBLIC	??_R0?AVCObList@@@8				; CObList `RTTI Type Descriptor'
PUBLIC	??_R3CObList@@8					; CObList::`RTTI Class Hierarchy Descriptor'
PUBLIC	??_R2CObList@@8					; CObList::`RTTI Base Class Array'
PUBLIC	??_7CLocalShareInfo@@6B@			; CLocalShareInfo::`vftable'
PUBLIC	??_7?$_CTypedPtrList@VCObList@@PAVCLocalShareInfo@@@@6B@ ; _CTypedPtrList<CObList,CLocalShareInfo *>::`vftable'
PUBLIC	??_7?$CTypedPtrList@VCObList@@PAVCLocalShareInfo@@@@6B@ ; CTypedPtrList<CObList,CLocalShareInfo *>::`vftable'
PUBLIC	??_7CLocalShareInfoList@@6B@			; CLocalShareInfoList::`vftable'
PUBLIC	??_R4CLocalShareInfo@@6B@			; CLocalShareInfo::`RTTI Complete Object Locator'
PUBLIC	??_R0?AVCLocalShareInfo@@@8			; CLocalShareInfo `RTTI Type Descriptor'
PUBLIC	??_R3CLocalShareInfo@@8				; CLocalShareInfo::`RTTI Class Hierarchy Descriptor'
PUBLIC	??_R2CLocalShareInfo@@8				; CLocalShareInfo::`RTTI Base Class Array'
PUBLIC	??_R1A@?0A@EA@CLocalShareInfo@@8		; CLocalShareInfo::`RTTI Base Class Descriptor at (0,-1,0,64)'
PUBLIC	??_R4?$CTypedPtrList@VCObList@@PAVCLocalShareInfo@@@@6B@ ; CTypedPtrList<CObList,CLocalShareInfo *>::`RTTI Complete Object Locator'
PUBLIC	??_R0?AV?$CTypedPtrList@VCObList@@PAVCLocalShareInfo@@@@@8 ; CTypedPtrList<CObList,CLocalShareInfo *> `RTTI Type Descriptor'
PUBLIC	??_R3?$CTypedPtrList@VCObList@@PAVCLocalShareInfo@@@@8 ; CTypedPtrList<CObList,CLocalShareInfo *>::`RTTI Class Hierarchy Descriptor'
PUBLIC	??_R2?$CTypedPtrList@VCObList@@PAVCLocalShareInfo@@@@8 ; CTypedPtrList<CObList,CLocalShareInfo *>::`RTTI Base Class Array'
PUBLIC	??_R1A@?0A@EA@?$CTypedPtrList@VCObList@@PAVCLocalShareInfo@@@@8 ; CTypedPtrList<CObList,CLocalShareInfo *>::`RTTI Base Class Descriptor at (0,-1,0,64)'
PUBLIC	??_R1A@?0A@EA@?$_CTypedPtrList@VCObList@@PAVCLocalShareInfo@@@@8 ; _CTypedPtrList<CObList,CLocalShareInfo *>::`RTTI Base Class Descriptor at (0,-1,0,64)'
PUBLIC	??_R0?AV?$_CTypedPtrList@VCObList@@PAVCLocalShareInfo@@@@@8 ; _CTypedPtrList<CObList,CLocalShareInfo *> `RTTI Type Descriptor'
PUBLIC	??_R3?$_CTypedPtrList@VCObList@@PAVCLocalShareInfo@@@@8 ; _CTypedPtrList<CObList,CLocalShareInfo *>::`RTTI Class Hierarchy Descriptor'
PUBLIC	??_R2?$_CTypedPtrList@VCObList@@PAVCLocalShareInfo@@@@8 ; _CTypedPtrList<CObList,CLocalShareInfo *>::`RTTI Base Class Array'
PUBLIC	??_R4CLocalShareInfoList@@6B@			; CLocalShareInfoList::`RTTI Complete Object Locator'
PUBLIC	??_R0?AVCLocalShareInfoList@@@8			; CLocalShareInfoList `RTTI Type Descriptor'
PUBLIC	??_R3CLocalShareInfoList@@8			; CLocalShareInfoList::`RTTI Class Hierarchy Descriptor'
PUBLIC	??_R2CLocalShareInfoList@@8			; CLocalShareInfoList::`RTTI Base Class Array'
PUBLIC	??_R1A@?0A@EA@CLocalShareInfoList@@8		; CLocalShareInfoList::`RTTI Base Class Descriptor at (0,-1,0,64)'
PUBLIC	??_R4?$_CTypedPtrList@VCObList@@PAVCLocalShareInfo@@@@6B@ ; _CTypedPtrList<CObList,CLocalShareInfo *>::`RTTI Complete Object Locator'
EXTRN	??2@YAPAXI@Z:PROC				; operator new
EXTRN	??3@YAXPAX@Z:PROC				; operator delete
EXTRN	?__global_delete@@YAXPAXI@Z:PROC		; __global_delete
EXTRN	___std_terminate:PROC
EXTRN	?AfxThrowInvalidArgException@@YGXXZ:PROC	; AfxThrowInvalidArgException
EXTRN	?GetRuntimeClass@CObject@@UBEPAUCRuntimeClass@@XZ:PROC ; CObject::GetRuntimeClass
EXTRN	__imp_??0?$CStringT@DV?$StrTraitMFC_DLL@DV?$ChTraitsCRT@D@ATL@@@@@ATL@@QAE@XZ:PROC
EXTRN	__imp_??1?$CStringT@DV?$StrTraitMFC_DLL@DV?$ChTraitsCRT@D@ATL@@@@@ATL@@QAE@XZ:PROC
EXTRN	__imp_??4?$CStringT@DV?$StrTraitMFC_DLL@DV?$ChTraitsCRT@D@ATL@@@@@ATL@@QAEAAV01@PBD@Z:PROC
EXTRN	__imp_?Compare@?$CStringT@DV?$StrTraitMFC_DLL@DV?$ChTraitsCRT@D@ATL@@@@@ATL@@QBEHPBD@Z:PROC
EXTRN	?GetRuntimeClass@CObList@@UBEPAUCRuntimeClass@@XZ:PROC ; CObList::GetRuntimeClass
EXTRN	??0CObList@@QAE@H@Z:PROC			; CObList::CObList
EXTRN	?RemoveHead@CObList@@QAEPAVCObject@@XZ:PROC	; CObList::RemoveHead
EXTRN	?AddTail@CObList@@QAEPAU__POSITION@@PAVCObject@@@Z:PROC ; CObList::AddTail
EXTRN	?RemoveAt@CObList@@QAEXPAU__POSITION@@@Z:PROC	; CObList::RemoveAt
EXTRN	??1CObList@@UAE@XZ:PROC				; CObList::~CObList
EXTRN	?Serialize@CObList@@UAEXAAVCArchive@@@Z:PROC	; CObList::Serialize
EXTRN	??_ECLocalShareInfo@@UAEPAXI@Z:PROC		; CLocalShareInfo::`vector deleting destructor'
EXTRN	??_E?$_CTypedPtrList@VCObList@@PAVCLocalShareInfo@@@@UAEPAXI@Z:PROC ; _CTypedPtrList<CObList,CLocalShareInfo *>::`vector deleting destructor'
EXTRN	??_E?$CTypedPtrList@VCObList@@PAVCLocalShareInfo@@@@UAEPAXI@Z:PROC ; CTypedPtrList<CObList,CLocalShareInfo *>::`vector deleting destructor'
EXTRN	??_ECLocalShareInfoList@@UAEPAXI@Z:PROC		; CLocalShareInfoList::`vector deleting destructor'
EXTRN	@__security_check_cookie@4:PROC
EXTRN	___CxxFrameHandler3:PROC
EXTRN	??_7type_info@@6B@:QWORD			; type_info::`vftable'
EXTRN	___security_cookie:DWORD
;	COMDAT ??_R4?$_CTypedPtrList@VCObList@@PAVCLocalShareInfo@@@@6B@
rdata$r	SEGMENT
??_R4?$_CTypedPtrList@VCObList@@PAVCLocalShareInfo@@@@6B@ DD 00H ; _CTypedPtrList<CObList,CLocalShareInfo *>::`RTTI Complete Object Locator'
	DD	00H
	DD	00H
	DD	FLAT:??_R0?AV?$_CTypedPtrList@VCObList@@PAVCLocalShareInfo@@@@@8
	DD	FLAT:??_R3?$_CTypedPtrList@VCObList@@PAVCLocalShareInfo@@@@8
rdata$r	ENDS
;	COMDAT ??_R1A@?0A@EA@CLocalShareInfoList@@8
rdata$r	SEGMENT
??_R1A@?0A@EA@CLocalShareInfoList@@8 DD FLAT:??_R0?AVCLocalShareInfoList@@@8 ; CLocalShareInfoList::`RTTI Base Class Descriptor at (0,-1,0,64)'
	DD	04H
	DD	00H
	DD	0ffffffffH
	DD	00H
	DD	040H
	DD	FLAT:??_R3CLocalShareInfoList@@8
rdata$r	ENDS
;	COMDAT ??_R2CLocalShareInfoList@@8
rdata$r	SEGMENT
??_R2CLocalShareInfoList@@8 DD FLAT:??_R1A@?0A@EA@CLocalShareInfoList@@8 ; CLocalShareInfoList::`RTTI Base Class Array'
	DD	FLAT:??_R1A@?0A@EA@?$CTypedPtrList@VCObList@@PAVCLocalShareInfo@@@@8
	DD	FLAT:??_R1A@?0A@EA@?$_CTypedPtrList@VCObList@@PAVCLocalShareInfo@@@@8
	DD	FLAT:??_R1A@?0A@EA@CObList@@8
	DD	FLAT:??_R1A@?0A@EA@CObject@@8
rdata$r	ENDS
;	COMDAT ??_R3CLocalShareInfoList@@8
rdata$r	SEGMENT
??_R3CLocalShareInfoList@@8 DD 00H			; CLocalShareInfoList::`RTTI Class Hierarchy Descriptor'
	DD	00H
	DD	05H
	DD	FLAT:??_R2CLocalShareInfoList@@8
rdata$r	ENDS
;	COMDAT ??_R0?AVCLocalShareInfoList@@@8
data$rs	SEGMENT
??_R0?AVCLocalShareInfoList@@@8 DD FLAT:??_7type_info@@6B@ ; CLocalShareInfoList `RTTI Type Descriptor'
	DD	00H
	DB	'.?AVCLocalShareInfoList@@', 00H
data$rs	ENDS
;	COMDAT ??_R4CLocalShareInfoList@@6B@
rdata$r	SEGMENT
??_R4CLocalShareInfoList@@6B@ DD 00H			; CLocalShareInfoList::`RTTI Complete Object Locator'
	DD	00H
	DD	00H
	DD	FLAT:??_R0?AVCLocalShareInfoList@@@8
	DD	FLAT:??_R3CLocalShareInfoList@@8
rdata$r	ENDS
;	COMDAT ??_R2?$_CTypedPtrList@VCObList@@PAVCLocalShareInfo@@@@8
rdata$r	SEGMENT
??_R2?$_CTypedPtrList@VCObList@@PAVCLocalShareInfo@@@@8 DD FLAT:??_R1A@?0A@EA@?$_CTypedPtrList@VCObList@@PAVCLocalShareInfo@@@@8 ; _CTypedPtrList<CObList,CLocalShareInfo *>::`RTTI Base Class Array'
	DD	FLAT:??_R1A@?0A@EA@CObList@@8
	DD	FLAT:??_R1A@?0A@EA@CObject@@8
rdata$r	ENDS
;	COMDAT ??_R3?$_CTypedPtrList@VCObList@@PAVCLocalShareInfo@@@@8
rdata$r	SEGMENT
??_R3?$_CTypedPtrList@VCObList@@PAVCLocalShareInfo@@@@8 DD 00H ; _CTypedPtrList<CObList,CLocalShareInfo *>::`RTTI Class Hierarchy Descriptor'
	DD	00H
	DD	03H
	DD	FLAT:??_R2?$_CTypedPtrList@VCObList@@PAVCLocalShareInfo@@@@8
rdata$r	ENDS
;	COMDAT ??_R0?AV?$_CTypedPtrList@VCObList@@PAVCLocalShareInfo@@@@@8
data$rs	SEGMENT
??_R0?AV?$_CTypedPtrList@VCObList@@PAVCLocalShareInfo@@@@@8 DD FLAT:??_7type_info@@6B@ ; _CTypedPtrList<CObList,CLocalShareInfo *> `RTTI Type Descriptor'
	DD	00H
	DB	'.?AV?$_CTypedPtrList@VCObList@@PAVCLocalShareInfo@@@@', 00H
data$rs	ENDS
;	COMDAT ??_R1A@?0A@EA@?$_CTypedPtrList@VCObList@@PAVCLocalShareInfo@@@@8
rdata$r	SEGMENT
??_R1A@?0A@EA@?$_CTypedPtrList@VCObList@@PAVCLocalShareInfo@@@@8 DD FLAT:??_R0?AV?$_CTypedPtrList@VCObList@@PAVCLocalShareInfo@@@@@8 ; _CTypedPtrList<CObList,CLocalShareInfo *>::`RTTI Base Class Descriptor at (0,-1,0,64)'
	DD	02H
	DD	00H
	DD	0ffffffffH
	DD	00H
	DD	040H
	DD	FLAT:??_R3?$_CTypedPtrList@VCObList@@PAVCLocalShareInfo@@@@8
rdata$r	ENDS
;	COMDAT ??_R1A@?0A@EA@?$CTypedPtrList@VCObList@@PAVCLocalShareInfo@@@@8
rdata$r	SEGMENT
??_R1A@?0A@EA@?$CTypedPtrList@VCObList@@PAVCLocalShareInfo@@@@8 DD FLAT:??_R0?AV?$CTypedPtrList@VCObList@@PAVCLocalShareInfo@@@@@8 ; CTypedPtrList<CObList,CLocalShareInfo *>::`RTTI Base Class Descriptor at (0,-1,0,64)'
	DD	03H
	DD	00H
	DD	0ffffffffH
	DD	00H
	DD	040H
	DD	FLAT:??_R3?$CTypedPtrList@VCObList@@PAVCLocalShareInfo@@@@8
rdata$r	ENDS
;	COMDAT ??_R2?$CTypedPtrList@VCObList@@PAVCLocalShareInfo@@@@8
rdata$r	SEGMENT
??_R2?$CTypedPtrList@VCObList@@PAVCLocalShareInfo@@@@8 DD FLAT:??_R1A@?0A@EA@?$CTypedPtrList@VCObList@@PAVCLocalShareInfo@@@@8 ; CTypedPtrList<CObList,CLocalShareInfo *>::`RTTI Base Class Array'
	DD	FLAT:??_R1A@?0A@EA@?$_CTypedPtrList@VCObList@@PAVCLocalShareInfo@@@@8
	DD	FLAT:??_R1A@?0A@EA@CObList@@8
	DD	FLAT:??_R1A@?0A@EA@CObject@@8
rdata$r	ENDS
;	COMDAT ??_R3?$CTypedPtrList@VCObList@@PAVCLocalShareInfo@@@@8
rdata$r	SEGMENT
??_R3?$CTypedPtrList@VCObList@@PAVCLocalShareInfo@@@@8 DD 00H ; CTypedPtrList<CObList,CLocalShareInfo *>::`RTTI Class Hierarchy Descriptor'
	DD	00H
	DD	04H
	DD	FLAT:??_R2?$CTypedPtrList@VCObList@@PAVCLocalShareInfo@@@@8
rdata$r	ENDS
;	COMDAT ??_R0?AV?$CTypedPtrList@VCObList@@PAVCLocalShareInfo@@@@@8
data$rs	SEGMENT
??_R0?AV?$CTypedPtrList@VCObList@@PAVCLocalShareInfo@@@@@8 DD FLAT:??_7type_info@@6B@ ; CTypedPtrList<CObList,CLocalShareInfo *> `RTTI Type Descriptor'
	DD	00H
	DB	'.?AV?$CTypedPtrList@VCObList@@PAVCLocalShareInfo@@@@', 00H
data$rs	ENDS
;	COMDAT ??_R4?$CTypedPtrList@VCObList@@PAVCLocalShareInfo@@@@6B@
rdata$r	SEGMENT
??_R4?$CTypedPtrList@VCObList@@PAVCLocalShareInfo@@@@6B@ DD 00H ; CTypedPtrList<CObList,CLocalShareInfo *>::`RTTI Complete Object Locator'
	DD	00H
	DD	00H
	DD	FLAT:??_R0?AV?$CTypedPtrList@VCObList@@PAVCLocalShareInfo@@@@@8
	DD	FLAT:??_R3?$CTypedPtrList@VCObList@@PAVCLocalShareInfo@@@@8
rdata$r	ENDS
;	COMDAT ??_R1A@?0A@EA@CLocalShareInfo@@8
rdata$r	SEGMENT
??_R1A@?0A@EA@CLocalShareInfo@@8 DD FLAT:??_R0?AVCLocalShareInfo@@@8 ; CLocalShareInfo::`RTTI Base Class Descriptor at (0,-1,0,64)'
	DD	01H
	DD	00H
	DD	0ffffffffH
	DD	00H
	DD	040H
	DD	FLAT:??_R3CLocalShareInfo@@8
rdata$r	ENDS
;	COMDAT ??_R2CLocalShareInfo@@8
rdata$r	SEGMENT
??_R2CLocalShareInfo@@8 DD FLAT:??_R1A@?0A@EA@CLocalShareInfo@@8 ; CLocalShareInfo::`RTTI Base Class Array'
	DD	FLAT:??_R1A@?0A@EA@CObject@@8
rdata$r	ENDS
;	COMDAT ??_R3CLocalShareInfo@@8
rdata$r	SEGMENT
??_R3CLocalShareInfo@@8 DD 00H				; CLocalShareInfo::`RTTI Class Hierarchy Descriptor'
	DD	00H
	DD	02H
	DD	FLAT:??_R2CLocalShareInfo@@8
rdata$r	ENDS
;	COMDAT ??_R0?AVCLocalShareInfo@@@8
data$rs	SEGMENT
??_R0?AVCLocalShareInfo@@@8 DD FLAT:??_7type_info@@6B@	; CLocalShareInfo `RTTI Type Descriptor'
	DD	00H
	DB	'.?AVCLocalShareInfo@@', 00H
data$rs	ENDS
;	COMDAT ??_R4CLocalShareInfo@@6B@
rdata$r	SEGMENT
??_R4CLocalShareInfo@@6B@ DD 00H			; CLocalShareInfo::`RTTI Complete Object Locator'
	DD	00H
	DD	00H
	DD	FLAT:??_R0?AVCLocalShareInfo@@@8
	DD	FLAT:??_R3CLocalShareInfo@@8
rdata$r	ENDS
;	COMDAT ??_7CLocalShareInfoList@@6B@
CONST	SEGMENT
??_7CLocalShareInfoList@@6B@ DD FLAT:??_R4CLocalShareInfoList@@6B@ ; CLocalShareInfoList::`vftable'
	DD	FLAT:?GetRuntimeClass@CObList@@UBEPAUCRuntimeClass@@XZ
	DD	FLAT:??_ECLocalShareInfoList@@UAEPAXI@Z
	DD	FLAT:?Serialize@CObList@@UAEXAAVCArchive@@@Z
	DD	FLAT:?AssertValid@CObject@@UBEXXZ
	DD	FLAT:?Dump@CObject@@UBEXAAVCDumpContext@@@Z
CONST	ENDS
;	COMDAT ??_7?$CTypedPtrList@VCObList@@PAVCLocalShareInfo@@@@6B@
CONST	SEGMENT
??_7?$CTypedPtrList@VCObList@@PAVCLocalShareInfo@@@@6B@ DD FLAT:??_R4?$CTypedPtrList@VCObList@@PAVCLocalShareInfo@@@@6B@ ; CTypedPtrList<CObList,CLocalShareInfo *>::`vftable'
	DD	FLAT:?GetRuntimeClass@CObList@@UBEPAUCRuntimeClass@@XZ
	DD	FLAT:??_E?$CTypedPtrList@VCObList@@PAVCLocalShareInfo@@@@UAEPAXI@Z
	DD	FLAT:?Serialize@CObList@@UAEXAAVCArchive@@@Z
	DD	FLAT:?AssertValid@CObject@@UBEXXZ
	DD	FLAT:?Dump@CObject@@UBEXAAVCDumpContext@@@Z
CONST	ENDS
;	COMDAT ??_7?$_CTypedPtrList@VCObList@@PAVCLocalShareInfo@@@@6B@
CONST	SEGMENT
??_7?$_CTypedPtrList@VCObList@@PAVCLocalShareInfo@@@@6B@ DD FLAT:??_R4?$_CTypedPtrList@VCObList@@PAVCLocalShareInfo@@@@6B@ ; _CTypedPtrList<CObList,CLocalShareInfo *>::`vftable'
	DD	FLAT:?GetRuntimeClass@CObList@@UBEPAUCRuntimeClass@@XZ
	DD	FLAT:??_E?$_CTypedPtrList@VCObList@@PAVCLocalShareInfo@@@@UAEPAXI@Z
	DD	FLAT:?Serialize@CObList@@UAEXAAVCArchive@@@Z
	DD	FLAT:?AssertValid@CObject@@UBEXXZ
	DD	FLAT:?Dump@CObject@@UBEXAAVCDumpContext@@@Z
CONST	ENDS
;	COMDAT ??_7CLocalShareInfo@@6B@
CONST	SEGMENT
??_7CLocalShareInfo@@6B@ DD FLAT:??_R4CLocalShareInfo@@6B@ ; CLocalShareInfo::`vftable'
	DD	FLAT:?GetRuntimeClass@CObject@@UBEPAUCRuntimeClass@@XZ
	DD	FLAT:??_ECLocalShareInfo@@UAEPAXI@Z
	DD	FLAT:?Serialize@CObject@@UAEXAAVCArchive@@@Z
	DD	FLAT:?AssertValid@CObject@@UBEXXZ
	DD	FLAT:?Dump@CObject@@UBEXAAVCDumpContext@@@Z
CONST	ENDS
;	COMDAT ??_R2CObList@@8
rdata$r	SEGMENT
??_R2CObList@@8 DD FLAT:??_R1A@?0A@EA@CObList@@8	; CObList::`RTTI Base Class Array'
	DD	FLAT:??_R1A@?0A@EA@CObject@@8
rdata$r	ENDS
;	COMDAT ??_R3CObList@@8
rdata$r	SEGMENT
??_R3CObList@@8 DD 00H					; CObList::`RTTI Class Hierarchy Descriptor'
	DD	00H
	DD	02H
	DD	FLAT:??_R2CObList@@8
rdata$r	ENDS
;	COMDAT ??_R0?AVCObList@@@8
data$rs	SEGMENT
??_R0?AVCObList@@@8 DD FLAT:??_7type_info@@6B@		; CObList `RTTI Type Descriptor'
	DD	00H
	DB	'.?AVCObList@@', 00H
data$rs	ENDS
;	COMDAT ??_R1A@?0A@EA@CObList@@8
rdata$r	SEGMENT
??_R1A@?0A@EA@CObList@@8 DD FLAT:??_R0?AVCObList@@@8	; CObList::`RTTI Base Class Descriptor at (0,-1,0,64)'
	DD	01H
	DD	00H
	DD	0ffffffffH
	DD	00H
	DD	040H
	DD	FLAT:??_R3CObList@@8
rdata$r	ENDS
;	COMDAT ??_R1A@?0A@EA@CObject@@8
rdata$r	SEGMENT
??_R1A@?0A@EA@CObject@@8 DD FLAT:??_R0?AVCObject@@@8	; CObject::`RTTI Base Class Descriptor at (0,-1,0,64)'
	DD	00H
	DD	00H
	DD	0ffffffffH
	DD	00H
	DD	040H
	DD	FLAT:??_R3CObject@@8
rdata$r	ENDS
;	COMDAT ??_R2CObject@@8
rdata$r	SEGMENT
??_R2CObject@@8 DD FLAT:??_R1A@?0A@EA@CObject@@8	; CObject::`RTTI Base Class Array'
rdata$r	ENDS
;	COMDAT ??_R3CObject@@8
rdata$r	SEGMENT
??_R3CObject@@8 DD 00H					; CObject::`RTTI Class Hierarchy Descriptor'
	DD	00H
	DD	01H
	DD	FLAT:??_R2CObject@@8
rdata$r	ENDS
;	COMDAT ??_R0?AVCObject@@@8
data$rs	SEGMENT
??_R0?AVCObject@@@8 DD FLAT:??_7type_info@@6B@		; CObject `RTTI Type Descriptor'
	DD	00H
	DB	'.?AVCObject@@', 00H
data$rs	ENDS
;	COMDAT xdata$x
xdata$x	SEGMENT
__unwindtable$??_GCLocalShareInfoList@@UAEPAXI@Z DD 0ffffffffH
	DD	FLAT:___std_terminate
__ehfuncinfo$??_GCLocalShareInfoList@@UAEPAXI@Z DD 019930522H
	DD	01H
	DD	FLAT:__unwindtable$??_GCLocalShareInfoList@@UAEPAXI@Z
	DD	2 DUP(00H)
	DD	2 DUP(00H)
	DD	00H
	DD	05H
xdata$x	ENDS
;	COMDAT xdata$x
xdata$x	SEGMENT
__unwindtable$?AddLocalShareInfo@CLocalShareInfoList@@QAEPAVCLocalShareInfo@@PBDH0@Z DD 0ffffffffH
	DD	FLAT:__unwindfunclet$?AddLocalShareInfo@CLocalShareInfoList@@QAEPAVCLocalShareInfo@@PBDH0@Z$0
	DD	00H
	DD	FLAT:__unwindfunclet$?AddLocalShareInfo@CLocalShareInfoList@@QAEPAVCLocalShareInfo@@PBDH0@Z$1
	DD	01H
	DD	FLAT:__unwindfunclet$?AddLocalShareInfo@CLocalShareInfoList@@QAEPAVCLocalShareInfo@@PBDH0@Z$2
__ehfuncinfo$?AddLocalShareInfo@CLocalShareInfoList@@QAEPAVCLocalShareInfo@@PBDH0@Z DD 019930522H
	DD	03H
	DD	FLAT:__unwindtable$?AddLocalShareInfo@CLocalShareInfoList@@QAEPAVCLocalShareInfo@@PBDH0@Z
	DD	2 DUP(00H)
	DD	2 DUP(00H)
	DD	00H
	DD	01H
xdata$x	ENDS
;	COMDAT xdata$x
xdata$x	SEGMENT
__ehfuncinfo$??1CLocalShareInfoList@@UAE@XZ DD 019930522H
	DD	00H
	DD	00H
	DD	2 DUP(00H)
	DD	2 DUP(00H)
	DD	00H
	DD	05H
xdata$x	ENDS
;	COMDAT xdata$x
xdata$x	SEGMENT
__unwindtable$??0CLocalShareInfo@@QAE@PBDH0@Z DD 0ffffffffH
	DD	FLAT:__unwindfunclet$??0CLocalShareInfo@@QAE@PBDH0@Z$0
	DD	00H
	DD	FLAT:__unwindfunclet$??0CLocalShareInfo@@QAE@PBDH0@Z$1
__ehfuncinfo$??0CLocalShareInfo@@QAE@PBDH0@Z DD 019930522H
	DD	02H
	DD	FLAT:__unwindtable$??0CLocalShareInfo@@QAE@PBDH0@Z
	DD	2 DUP(00H)
	DD	2 DUP(00H)
	DD	00H
	DD	01H
xdata$x	ENDS
; Function compile flags: /Ogtp
; File C:\Program Files (x86)\Microsoft Visual Studio\2019\Community\VC\Tools\MSVC\14.29.30133\atlmfc\include\afxcoll.inl
; File D:\git\src\IBK\IBK_DRFN\ProjSrc\SrcChartEx\ChartOCX\KTBChart\LocalShareInfoList.cpp
; File C:\Program Files (x86)\Microsoft Visual Studio\2019\Community\VC\Tools\MSVC\14.29.30133\atlmfc\include\afxtempl.h
; File D:\git\src\IBK\IBK_DRFN\ProjSrc\SrcChartEx\ChartOCX\KTBChart\LocalShareInfoList.cpp
; File C:\Program Files (x86)\Microsoft Visual Studio\2019\Community\VC\Tools\MSVC\14.29.30133\atlmfc\include\afxcoll.inl
; File D:\git\src\IBK\IBK_DRFN\ProjSrc\SrcChartEx\ChartOCX\KTBChart\LocalShareInfoList.cpp
; File C:\Program Files (x86)\Microsoft Visual Studio\2019\Community\VC\Tools\MSVC\14.29.30133\atlmfc\include\afx.inl
;	COMDAT ??_GCLocalShareInfoList@@UAEPAXI@Z
_TEXT	SEGMENT
__$EHRec$ = -12						; size = 12
___flags$ = 8						; size = 4
??_GCLocalShareInfoList@@UAEPAXI@Z PROC			; CLocalShareInfoList::`scalar deleting destructor', COMDAT
; _this$ = ecx
  00000	55		 push	 ebp
  00001	8b ec		 mov	 ebp, esp
  00003	6a ff		 push	 -1
  00005	68 00 00 00 00	 push	 __ehhandler$??_GCLocalShareInfoList@@UAEPAXI@Z
  0000a	64 a1 00 00 00
	00		 mov	 eax, DWORD PTR fs:0
  00010	50		 push	 eax
  00011	56		 push	 esi
  00012	a1 00 00 00 00	 mov	 eax, DWORD PTR ___security_cookie
  00017	33 c5		 xor	 eax, ebp
  00019	50		 push	 eax
  0001a	8d 45 f4	 lea	 eax, DWORD PTR __$EHRec$[ebp]
  0001d	64 a3 00 00 00
	00		 mov	 DWORD PTR fs:0, eax
  00023	8b f1		 mov	 esi, ecx
; File C:\Program Files (x86)\Microsoft Visual Studio\2019\Community\VC\Tools\MSVC\14.29.30133\atlmfc\include\afxcoll.inl

; 410  : 	{ return m_nCount == 0; }

  00025	83 7e 0c 00	 cmp	 DWORD PTR [esi+12], 0
; File D:\git\src\IBK\IBK_DRFN\ProjSrc\SrcChartEx\ChartOCX\KTBChart\LocalShareInfoList.cpp

; 25   : {

  00029	c7 45 fc 00 00
	00 00		 mov	 DWORD PTR __$EHRec$[ebp+8], 0
  00030	c7 06 00 00 00
	00		 mov	 DWORD PTR [esi], OFFSET ??_7CLocalShareInfoList@@6B@

; 55   : 	while( !IsEmpty()) delete RemoveHead();

  00036	74 1a		 je	 SHORT $LN12@scalar
$LL11@scalar:
; File C:\Program Files (x86)\Microsoft Visual Studio\2019\Community\VC\Tools\MSVC\14.29.30133\atlmfc\include\afxtempl.h

; 1890 : 		{ return (TYPE)BASE_CLASS::RemoveHead(); }

  00038	8b ce		 mov	 ecx, esi
  0003a	e8 00 00 00 00	 call	 ?RemoveHead@CObList@@QAEPAVCObject@@XZ ; CObList::RemoveHead
; File D:\git\src\IBK\IBK_DRFN\ProjSrc\SrcChartEx\ChartOCX\KTBChart\LocalShareInfoList.cpp

; 55   : 	while( !IsEmpty()) delete RemoveHead();

  0003f	85 c0		 test	 eax, eax
  00041	74 09		 je	 SHORT $LN14@scalar
  00043	8b 10		 mov	 edx, DWORD PTR [eax]
  00045	8b c8		 mov	 ecx, eax
  00047	6a 01		 push	 1
  00049	ff 52 04	 call	 DWORD PTR [edx+4]
$LN14@scalar:
; File C:\Program Files (x86)\Microsoft Visual Studio\2019\Community\VC\Tools\MSVC\14.29.30133\atlmfc\include\afxcoll.inl

; 410  : 	{ return m_nCount == 0; }

  0004c	83 7e 0c 00	 cmp	 DWORD PTR [esi+12], 0
; File D:\git\src\IBK\IBK_DRFN\ProjSrc\SrcChartEx\ChartOCX\KTBChart\LocalShareInfoList.cpp

; 55   : 	while( !IsEmpty()) delete RemoveHead();

  00050	75 e6		 jne	 SHORT $LL11@scalar
$LN12@scalar:
  00052	8b ce		 mov	 ecx, esi
  00054	e8 00 00 00 00	 call	 ??1CObList@@UAE@XZ	; CObList::~CObList
  00059	8b 45 08	 mov	 eax, DWORD PTR ___flags$[ebp]
  0005c	a8 01		 test	 al, 1
  0005e	74 2c		 je	 SHORT $LN31@scalar
  00060	a8 04		 test	 al, 4
  00062	75 1d		 jne	 SHORT $LN3@scalar
; File C:\Program Files (x86)\Microsoft Visual Studio\2019\Community\VC\Tools\MSVC\14.29.30133\atlmfc\include\afx.inl

; 112  : 	{ ::operator delete(p); }

  00064	56		 push	 esi
  00065	e8 00 00 00 00	 call	 ??3@YAXPAX@Z		; operator delete
  0006a	83 c4 04	 add	 esp, 4
  0006d	8b c6		 mov	 eax, esi
  0006f	8b 4d f4	 mov	 ecx, DWORD PTR __$EHRec$[ebp]
  00072	64 89 0d 00 00
	00 00		 mov	 DWORD PTR fs:0, ecx
  00079	59		 pop	 ecx
  0007a	5e		 pop	 esi
  0007b	8b e5		 mov	 esp, ebp
  0007d	5d		 pop	 ebp
  0007e	c2 04 00	 ret	 4
$LN3@scalar:
  00081	6a 1c		 push	 28			; 0000001cH
  00083	56		 push	 esi
  00084	e8 00 00 00 00	 call	 ?__global_delete@@YAXPAXI@Z ; __global_delete
  00089	83 c4 08	 add	 esp, 8
$LN31@scalar:
  0008c	8b c6		 mov	 eax, esi
  0008e	8b 4d f4	 mov	 ecx, DWORD PTR __$EHRec$[ebp]
  00091	64 89 0d 00 00
	00 00		 mov	 DWORD PTR fs:0, ecx
  00098	59		 pop	 ecx
  00099	5e		 pop	 esi
  0009a	8b e5		 mov	 esp, ebp
  0009c	5d		 pop	 ebp
  0009d	c2 04 00	 ret	 4
  000a0	cc		 int	 3
  000a1	cc		 int	 3
  000a2	cc		 int	 3
  000a3	cc		 int	 3
  000a4	cc		 int	 3
_TEXT	ENDS
;	COMDAT text$x
text$x	SEGMENT
__ehhandler$??_GCLocalShareInfoList@@UAEPAXI@Z:
  00000	90		 npad	 1
  00001	90		 npad	 1
  00002	8b 54 24 08	 mov	 edx, DWORD PTR [esp+8]
  00006	8d 42 0c	 lea	 eax, DWORD PTR [edx+12]
  00009	8b 4a f8	 mov	 ecx, DWORD PTR [edx-8]
  0000c	33 c8		 xor	 ecx, eax
  0000e	e8 00 00 00 00	 call	 @__security_check_cookie@4
  00013	b8 00 00 00 00	 mov	 eax, OFFSET __ehfuncinfo$??_GCLocalShareInfoList@@UAEPAXI@Z
  00018	e9 00 00 00 00	 jmp	 ___CxxFrameHandler3
text$x	ENDS
??_GCLocalShareInfoList@@UAEPAXI@Z ENDP			; CLocalShareInfoList::`scalar deleting destructor'
; Function compile flags: /Ogtp
; File D:\git\src\IBK\IBK_DRFN\ProjSrc\SrcChartEx\ChartOCX\KTBChart\LocalShareInfoList.cpp
; File C:\Program Files (x86)\Microsoft Visual Studio\2019\Community\VC\Tools\MSVC\14.29.30133\atlmfc\include\afxcoll.inl
; File D:\git\src\IBK\IBK_DRFN\ProjSrc\SrcChartEx\ChartOCX\KTBChart\LocalShareInfoList.cpp
; File C:\Program Files (x86)\Microsoft Visual Studio\2019\Community\VC\Tools\MSVC\14.29.30133\atlmfc\include\cstringt.h
; File D:\git\src\IBK\IBK_DRFN\ProjSrc\SrcChartEx\ChartOCX\KTBChart\LocalShareInfoList.cpp
;	COMDAT ?GetLocalSharedData@CLocalShareInfoList@@QAEPBDPBD@Z
_TEXT	SEGMENT
_p_szLocalShareName$ = 8				; size = 4
?GetLocalSharedData@CLocalShareInfoList@@QAEPBDPBD@Z PROC ; CLocalShareInfoList::GetLocalSharedData, COMDAT
; _this$ = ecx

; 104  : {

  00000	55		 push	 ebp
  00001	8b ec		 mov	 ebp, esp
  00003	53		 push	 ebx
  00004	56		 push	 esi

; 76   : 	POSITION posLSI = GetHeadPosition();

  00005	8b 71 04	 mov	 esi, DWORD PTR [ecx+4]

; 104  : {

  00008	57		 push	 edi

; 77   : 	while( posLSI)

  00009	85 f6		 test	 esi, esi
  0000b	74 1c		 je	 SHORT $LN32@GetLocalSh
  0000d	8b 5d 08	 mov	 ebx, DWORD PTR _p_szLocalShareName$[ebp]
$LL5@GetLocalSh:

; 78   : 	{
; 79   : 		posPrevLSI = posLSI;
; 80   : 		CLocalShareInfo *pLSI = GetNext( posLSI);

  00010	8b 4e 08	 mov	 ecx, DWORD PTR [esi+8]
  00013	8d 3e		 lea	 edi, DWORD PTR [esi]
; File C:\Program Files (x86)\Microsoft Visual Studio\2019\Community\VC\Tools\MSVC\14.29.30133\atlmfc\include\afxcoll.inl

; 432  : 		rPosition = (POSITION) pNode->pNext;

  00015	8b 36		 mov	 esi, DWORD PTR [esi]
; File D:\git\src\IBK\IBK_DRFN\ProjSrc\SrcChartEx\ChartOCX\KTBChart\LocalShareInfoList.cpp

; 81   : 		if( pLSI->m_strLocalShareName == p_szLocalShareName) return posPrevLSI;

  00017	83 c1 04	 add	 ecx, 4
; File C:\Program Files (x86)\Microsoft Visual Studio\2019\Community\VC\Tools\MSVC\14.29.30133\atlmfc\include\cstringt.h

; 2486 : 		return(str1.Compare(psz2) == 0);

  0001a	53		 push	 ebx
  0001b	ff 15 00 00 00
	00		 call	 DWORD PTR __imp_?Compare@?$CStringT@DV?$StrTraitMFC_DLL@DV?$ChTraitsCRT@D@ATL@@@@@ATL@@QBEHPBD@Z
  00021	85 c0		 test	 eax, eax
; File D:\git\src\IBK\IBK_DRFN\ProjSrc\SrcChartEx\ChartOCX\KTBChart\LocalShareInfoList.cpp

; 81   : 		if( pLSI->m_strLocalShareName == p_szLocalShareName) return posPrevLSI;

  00023	74 0d		 je	 SHORT $LN2@GetLocalSh

; 77   : 	while( posLSI)

  00025	85 f6		 test	 esi, esi
  00027	75 e7		 jne	 SHORT $LL5@GetLocalSh
$LN32@GetLocalSh:
  00029	5f		 pop	 edi

; 112  : }

  0002a	5e		 pop	 esi
  0002b	33 c0		 xor	 eax, eax
  0002d	5b		 pop	 ebx
  0002e	5d		 pop	 ebp
  0002f	c2 04 00	 ret	 4
$LN2@GetLocalSh:

; 105  : 	// 0. 등록되지 않은 Local Share Info인지 확인한다.
; 106  : 	POSITION posLSI = FindLocalShareInfo( p_szLocalShareName);
; 107  : 	if( !posLSI) return NULL;
; 108  : 
; 109  : 	// 1. Local Shared Data를 조회한다.
; 110  : 	CLocalShareInfo *pLocalShareInfo = GetAt( posLSI);
; 111  : 	return pLocalShareInfo->m_strLocalSharedData;

  00032	8b 47 08	 mov	 eax, DWORD PTR [edi+8]
  00035	5f		 pop	 edi

; 112  : }

  00036	5e		 pop	 esi
  00037	5b		 pop	 ebx
  00038	8b 40 14	 mov	 eax, DWORD PTR [eax+20]
  0003b	5d		 pop	 ebp
  0003c	c2 04 00	 ret	 4
?GetLocalSharedData@CLocalShareInfoList@@QAEPBDPBD@Z ENDP ; CLocalShareInfoList::GetLocalSharedData
_TEXT	ENDS
; Function compile flags: /Ogtp
; File D:\git\src\IBK\IBK_DRFN\ProjSrc\SrcChartEx\ChartOCX\KTBChart\LocalShareInfoList.cpp
; File C:\Program Files (x86)\Microsoft Visual Studio\2019\Community\VC\Tools\MSVC\14.29.30133\atlmfc\include\afxcoll.inl
; File D:\git\src\IBK\IBK_DRFN\ProjSrc\SrcChartEx\ChartOCX\KTBChart\LocalShareInfoList.cpp
; File C:\Program Files (x86)\Microsoft Visual Studio\2019\Community\VC\Tools\MSVC\14.29.30133\atlmfc\include\cstringt.h
; File D:\git\src\IBK\IBK_DRFN\ProjSrc\SrcChartEx\ChartOCX\KTBChart\LocalShareInfoList.cpp
;	COMDAT ?SetLocalSharedData@CLocalShareInfoList@@QAEHPBD0@Z
_TEXT	SEGMENT
_p_szLocalShareName$ = 8				; size = 4
_p_szLocalSharedData$ = 12				; size = 4
?SetLocalSharedData@CLocalShareInfoList@@QAEHPBD0@Z PROC ; CLocalShareInfoList::SetLocalSharedData, COMDAT
; _this$ = ecx

; 92   : {

  00000	55		 push	 ebp
  00001	8b ec		 mov	 ebp, esp
  00003	53		 push	 ebx
  00004	56		 push	 esi

; 76   : 	POSITION posLSI = GetHeadPosition();

  00005	8b 71 04	 mov	 esi, DWORD PTR [ecx+4]

; 92   : {

  00008	57		 push	 edi

; 77   : 	while( posLSI)

  00009	85 f6		 test	 esi, esi
  0000b	74 1c		 je	 SHORT $LN30@SetLocalSh
  0000d	8b 7d 08	 mov	 edi, DWORD PTR _p_szLocalShareName$[ebp]
$LL5@SetLocalSh:

; 78   : 	{
; 79   : 		posPrevLSI = posLSI;
; 80   : 		CLocalShareInfo *pLSI = GetNext( posLSI);

  00010	8b 4e 08	 mov	 ecx, DWORD PTR [esi+8]
  00013	8d 1e		 lea	 ebx, DWORD PTR [esi]
; File C:\Program Files (x86)\Microsoft Visual Studio\2019\Community\VC\Tools\MSVC\14.29.30133\atlmfc\include\afxcoll.inl

; 432  : 		rPosition = (POSITION) pNode->pNext;

  00015	8b 36		 mov	 esi, DWORD PTR [esi]
; File D:\git\src\IBK\IBK_DRFN\ProjSrc\SrcChartEx\ChartOCX\KTBChart\LocalShareInfoList.cpp

; 81   : 		if( pLSI->m_strLocalShareName == p_szLocalShareName) return posPrevLSI;

  00017	83 c1 04	 add	 ecx, 4
; File C:\Program Files (x86)\Microsoft Visual Studio\2019\Community\VC\Tools\MSVC\14.29.30133\atlmfc\include\cstringt.h

; 2486 : 		return(str1.Compare(psz2) == 0);

  0001a	57		 push	 edi
  0001b	ff 15 00 00 00
	00		 call	 DWORD PTR __imp_?Compare@?$CStringT@DV?$StrTraitMFC_DLL@DV?$ChTraitsCRT@D@ATL@@@@@ATL@@QBEHPBD@Z
  00021	85 c0		 test	 eax, eax
; File D:\git\src\IBK\IBK_DRFN\ProjSrc\SrcChartEx\ChartOCX\KTBChart\LocalShareInfoList.cpp

; 81   : 		if( pLSI->m_strLocalShareName == p_szLocalShareName) return posPrevLSI;

  00023	74 0d		 je	 SHORT $LN2@SetLocalSh

; 77   : 	while( posLSI)

  00025	85 f6		 test	 esi, esi
  00027	75 e7		 jne	 SHORT $LL5@SetLocalSh
$LN30@SetLocalSh:
  00029	5f		 pop	 edi

; 99   : 	return TRUE;
; 100  : }

  0002a	5e		 pop	 esi
  0002b	33 c0		 xor	 eax, eax
  0002d	5b		 pop	 ebx
  0002e	5d		 pop	 ebp
  0002f	c2 08 00	 ret	 8
$LN2@SetLocalSh:

; 93   : 	// 0. 등록되지 않은 Local Share Info인지 확인한다.
; 94   : 	POSITION posLSI = FindLocalShareInfo( p_szLocalShareName);
; 95   : 	if( !posLSI) return FALSE;
; 96   : 
; 97   : 	// 1. Local Shared Data를 설정한다.
; 98   : 	GetAt( posLSI)->m_strLocalSharedData = p_szLocalSharedData;

  00032	8b 4b 08	 mov	 ecx, DWORD PTR [ebx+8]
  00035	ff 75 0c	 push	 DWORD PTR _p_szLocalSharedData$[ebp]
  00038	83 c1 14	 add	 ecx, 20			; 00000014H
  0003b	ff 15 00 00 00
	00		 call	 DWORD PTR __imp_??4?$CStringT@DV?$StrTraitMFC_DLL@DV?$ChTraitsCRT@D@ATL@@@@@ATL@@QAEAAV01@PBD@Z
  00041	5f		 pop	 edi

; 99   : 	return TRUE;
; 100  : }

  00042	5e		 pop	 esi
  00043	b8 01 00 00 00	 mov	 eax, 1
  00048	5b		 pop	 ebx
  00049	5d		 pop	 ebp
  0004a	c2 08 00	 ret	 8
?SetLocalSharedData@CLocalShareInfoList@@QAEHPBD0@Z ENDP ; CLocalShareInfoList::SetLocalSharedData
_TEXT	ENDS
; Function compile flags: /Ogtp
; File D:\git\src\IBK\IBK_DRFN\ProjSrc\SrcChartEx\ChartOCX\KTBChart\LocalShareInfoList.cpp
; File C:\Program Files (x86)\Microsoft Visual Studio\2019\Community\VC\Tools\MSVC\14.29.30133\atlmfc\include\afxcoll.inl
; File D:\git\src\IBK\IBK_DRFN\ProjSrc\SrcChartEx\ChartOCX\KTBChart\LocalShareInfoList.cpp
; File C:\Program Files (x86)\Microsoft Visual Studio\2019\Community\VC\Tools\MSVC\14.29.30133\atlmfc\include\cstringt.h
; File D:\git\src\IBK\IBK_DRFN\ProjSrc\SrcChartEx\ChartOCX\KTBChart\LocalShareInfoList.cpp
;	COMDAT ?FindLocalShareInfo@CLocalShareInfoList@@QAEPAU__POSITION@@PBD@Z
_TEXT	SEGMENT
_p_szLocalShareName$ = 8				; size = 4
?FindLocalShareInfo@CLocalShareInfoList@@QAEPAU__POSITION@@PBD@Z PROC ; CLocalShareInfoList::FindLocalShareInfo, COMDAT
; _this$ = ecx

; 74   : {

  00000	55		 push	 ebp
  00001	8b ec		 mov	 ebp, esp
  00003	53		 push	 ebx
  00004	56		 push	 esi

; 75   : 	POSITION posPrevLSI;
; 76   : 	POSITION posLSI = GetHeadPosition();

  00005	8b 71 04	 mov	 esi, DWORD PTR [ecx+4]
  00008	57		 push	 edi

; 77   : 	while( posLSI)

  00009	85 f6		 test	 esi, esi
  0000b	74 1c		 je	 SHORT $LN3@FindLocalS
  0000d	8b 5d 08	 mov	 ebx, DWORD PTR _p_szLocalShareName$[ebp]
$LL2@FindLocalS:

; 78   : 	{
; 79   : 		posPrevLSI = posLSI;
; 80   : 		CLocalShareInfo *pLSI = GetNext( posLSI);

  00010	8b 4e 08	 mov	 ecx, DWORD PTR [esi+8]
  00013	8b fe		 mov	 edi, esi
; File C:\Program Files (x86)\Microsoft Visual Studio\2019\Community\VC\Tools\MSVC\14.29.30133\atlmfc\include\afxcoll.inl

; 432  : 		rPosition = (POSITION) pNode->pNext;

  00015	8b 36		 mov	 esi, DWORD PTR [esi]
; File D:\git\src\IBK\IBK_DRFN\ProjSrc\SrcChartEx\ChartOCX\KTBChart\LocalShareInfoList.cpp

; 81   : 		if( pLSI->m_strLocalShareName == p_szLocalShareName) return posPrevLSI;

  00017	83 c1 04	 add	 ecx, 4
; File C:\Program Files (x86)\Microsoft Visual Studio\2019\Community\VC\Tools\MSVC\14.29.30133\atlmfc\include\cstringt.h

; 2486 : 		return(str1.Compare(psz2) == 0);

  0001a	53		 push	 ebx
  0001b	ff 15 00 00 00
	00		 call	 DWORD PTR __imp_?Compare@?$CStringT@DV?$StrTraitMFC_DLL@DV?$ChTraitsCRT@D@ATL@@@@@ATL@@QBEHPBD@Z
  00021	85 c0		 test	 eax, eax
; File D:\git\src\IBK\IBK_DRFN\ProjSrc\SrcChartEx\ChartOCX\KTBChart\LocalShareInfoList.cpp

; 81   : 		if( pLSI->m_strLocalShareName == p_szLocalShareName) return posPrevLSI;

  00023	74 0d		 je	 SHORT $LN17@FindLocalS

; 77   : 	while( posLSI)

  00025	85 f6		 test	 esi, esi
  00027	75 e7		 jne	 SHORT $LL2@FindLocalS
$LN3@FindLocalS:
  00029	5f		 pop	 edi

; 82   : 	}
; 83   : 	return NULL;
; 84   : }

  0002a	5e		 pop	 esi
  0002b	33 c0		 xor	 eax, eax
  0002d	5b		 pop	 ebx
  0002e	5d		 pop	 ebp
  0002f	c2 04 00	 ret	 4
$LN17@FindLocalS:

; 81   : 		if( pLSI->m_strLocalShareName == p_szLocalShareName) return posPrevLSI;

  00032	8b c7		 mov	 eax, edi
  00034	5f		 pop	 edi

; 82   : 	}
; 83   : 	return NULL;
; 84   : }

  00035	5e		 pop	 esi
  00036	5b		 pop	 ebx
  00037	5d		 pop	 ebp
  00038	c2 04 00	 ret	 4
?FindLocalShareInfo@CLocalShareInfoList@@QAEPAU__POSITION@@PBD@Z ENDP ; CLocalShareInfoList::FindLocalShareInfo
_TEXT	ENDS
; Function compile flags: /Ogtp
; File D:\git\src\IBK\IBK_DRFN\ProjSrc\SrcChartEx\ChartOCX\KTBChart\LocalShareInfoList.cpp
; File C:\Program Files (x86)\Microsoft Visual Studio\2019\Community\VC\Tools\MSVC\14.29.30133\atlmfc\include\afxcoll.inl
; File D:\git\src\IBK\IBK_DRFN\ProjSrc\SrcChartEx\ChartOCX\KTBChart\LocalShareInfoList.cpp
; File C:\Program Files (x86)\Microsoft Visual Studio\2019\Community\VC\Tools\MSVC\14.29.30133\atlmfc\include\cstringt.h
; File D:\git\src\IBK\IBK_DRFN\ProjSrc\SrcChartEx\ChartOCX\KTBChart\LocalShareInfoList.cpp
;	COMDAT ?RemoveLocalShareInfo@CLocalShareInfoList@@QAEHPBD@Z
_TEXT	SEGMENT
_this$1$ = -4						; size = 4
_p_szLocalShareName$ = 8				; size = 4
?RemoveLocalShareInfo@CLocalShareInfoList@@QAEHPBD@Z PROC ; CLocalShareInfoList::RemoveLocalShareInfo, COMDAT
; _this$ = ecx

; 60   : {

  00000	55		 push	 ebp
  00001	8b ec		 mov	 ebp, esp
  00003	51		 push	 ecx
  00004	8b c1		 mov	 eax, ecx
  00006	53		 push	 ebx
  00007	56		 push	 esi
  00008	57		 push	 edi

; 76   : 	POSITION posLSI = GetHeadPosition();

  00009	8b 70 04	 mov	 esi, DWORD PTR [eax+4]

; 60   : {

  0000c	89 45 fc	 mov	 DWORD PTR _this$1$[ebp], eax

; 77   : 	while( posLSI)

  0000f	85 f6		 test	 esi, esi
  00011	74 1c		 je	 SHORT $LN32@RemoveLoca
  00013	8b 5d 08	 mov	 ebx, DWORD PTR _p_szLocalShareName$[ebp]
$LL7@RemoveLoca:

; 78   : 	{
; 79   : 		posPrevLSI = posLSI;
; 80   : 		CLocalShareInfo *pLSI = GetNext( posLSI);

  00016	8b 4e 08	 mov	 ecx, DWORD PTR [esi+8]
  00019	8b fe		 mov	 edi, esi
; File C:\Program Files (x86)\Microsoft Visual Studio\2019\Community\VC\Tools\MSVC\14.29.30133\atlmfc\include\afxcoll.inl

; 432  : 		rPosition = (POSITION) pNode->pNext;

  0001b	8b 36		 mov	 esi, DWORD PTR [esi]
; File D:\git\src\IBK\IBK_DRFN\ProjSrc\SrcChartEx\ChartOCX\KTBChart\LocalShareInfoList.cpp

; 81   : 		if( pLSI->m_strLocalShareName == p_szLocalShareName) return posPrevLSI;

  0001d	83 c1 04	 add	 ecx, 4
; File C:\Program Files (x86)\Microsoft Visual Studio\2019\Community\VC\Tools\MSVC\14.29.30133\atlmfc\include\cstringt.h

; 2486 : 		return(str1.Compare(psz2) == 0);

  00020	53		 push	 ebx
  00021	ff 15 00 00 00
	00		 call	 DWORD PTR __imp_?Compare@?$CStringT@DV?$StrTraitMFC_DLL@DV?$ChTraitsCRT@D@ATL@@@@@ATL@@QBEHPBD@Z
  00027	85 c0		 test	 eax, eax
; File D:\git\src\IBK\IBK_DRFN\ProjSrc\SrcChartEx\ChartOCX\KTBChart\LocalShareInfoList.cpp

; 81   : 		if( pLSI->m_strLocalShareName == p_szLocalShareName) return posPrevLSI;

  00029	74 0f		 je	 SHORT $LN2@RemoveLoca

; 77   : 	while( posLSI)

  0002b	85 f6		 test	 esi, esi
  0002d	75 e7		 jne	 SHORT $LL7@RemoveLoca
$LN32@RemoveLoca:
  0002f	5f		 pop	 edi

; 65   : 	return TRUE;
; 66   : }

  00030	5e		 pop	 esi
  00031	33 c0		 xor	 eax, eax
  00033	5b		 pop	 ebx
  00034	8b e5		 mov	 esp, ebp
  00036	5d		 pop	 ebp
  00037	c2 04 00	 ret	 4
$LN2@RemoveLoca:

; 61   : 	POSITION posLocalShareInfo = FindLocalShareInfo( p_szLocalShareName);
; 62   : 	if( !posLocalShareInfo) return FALSE;
; 63   : 	delete GetAt( posLocalShareInfo);

  0003a	8b 4f 08	 mov	 ecx, DWORD PTR [edi+8]
  0003d	85 c9		 test	 ecx, ecx
  0003f	74 07		 je	 SHORT $LN4@RemoveLoca
  00041	8b 01		 mov	 eax, DWORD PTR [ecx]
  00043	6a 01		 push	 1
  00045	ff 50 04	 call	 DWORD PTR [eax+4]
$LN4@RemoveLoca:

; 64   : 	RemoveAt( posLocalShareInfo);

  00048	8b 4d fc	 mov	 ecx, DWORD PTR _this$1$[ebp]
  0004b	57		 push	 edi
  0004c	e8 00 00 00 00	 call	 ?RemoveAt@CObList@@QAEXPAU__POSITION@@@Z ; CObList::RemoveAt
  00051	5f		 pop	 edi

; 65   : 	return TRUE;
; 66   : }

  00052	5e		 pop	 esi
  00053	b8 01 00 00 00	 mov	 eax, 1
  00058	5b		 pop	 ebx
  00059	8b e5		 mov	 esp, ebp
  0005b	5d		 pop	 ebp
  0005c	c2 04 00	 ret	 4
?RemoveLocalShareInfo@CLocalShareInfoList@@QAEHPBD@Z ENDP ; CLocalShareInfoList::RemoveLocalShareInfo
_TEXT	ENDS
; Function compile flags: /Ogtp
; File D:\git\src\IBK\IBK_DRFN\ProjSrc\SrcChartEx\ChartOCX\KTBChart\LocalShareInfoList.cpp
; File C:\Program Files (x86)\Microsoft Visual Studio\2019\Community\VC\Tools\MSVC\14.29.30133\atlmfc\include\afxcoll.inl
; File D:\git\src\IBK\IBK_DRFN\ProjSrc\SrcChartEx\ChartOCX\KTBChart\LocalShareInfoList.cpp
; File C:\Program Files (x86)\Microsoft Visual Studio\2019\Community\VC\Tools\MSVC\14.29.30133\atlmfc\include\afxtempl.h
; File D:\git\src\IBK\IBK_DRFN\ProjSrc\SrcChartEx\ChartOCX\KTBChart\LocalShareInfoList.cpp
; File C:\Program Files (x86)\Microsoft Visual Studio\2019\Community\VC\Tools\MSVC\14.29.30133\atlmfc\include\afxcoll.inl
; File D:\git\src\IBK\IBK_DRFN\ProjSrc\SrcChartEx\ChartOCX\KTBChart\LocalShareInfoList.cpp
;	COMDAT ?RemoveAllLocalShareInfo@CLocalShareInfoList@@QAEXXZ
_TEXT	SEGMENT
?RemoveAllLocalShareInfo@CLocalShareInfoList@@QAEXXZ PROC ; CLocalShareInfoList::RemoveAllLocalShareInfo, COMDAT
; _this$ = ecx

; 54   : {

  00000	56		 push	 esi
  00001	8b f1		 mov	 esi, ecx
; File C:\Program Files (x86)\Microsoft Visual Studio\2019\Community\VC\Tools\MSVC\14.29.30133\atlmfc\include\afxcoll.inl

; 410  : 	{ return m_nCount == 0; }

  00003	83 7e 0c 00	 cmp	 DWORD PTR [esi+12], 0
; File D:\git\src\IBK\IBK_DRFN\ProjSrc\SrcChartEx\ChartOCX\KTBChart\LocalShareInfoList.cpp

; 55   : 	while( !IsEmpty()) delete RemoveHead();

  00007	74 21		 je	 SHORT $LN3@RemoveAllL
  00009	0f 1f 80 00 00
	00 00		 npad	 7
$LL2@RemoveAllL:
; File C:\Program Files (x86)\Microsoft Visual Studio\2019\Community\VC\Tools\MSVC\14.29.30133\atlmfc\include\afxtempl.h

; 1890 : 		{ return (TYPE)BASE_CLASS::RemoveHead(); }

  00010	8b ce		 mov	 ecx, esi
  00012	e8 00 00 00 00	 call	 ?RemoveHead@CObList@@QAEPAVCObject@@XZ ; CObList::RemoveHead
; File D:\git\src\IBK\IBK_DRFN\ProjSrc\SrcChartEx\ChartOCX\KTBChart\LocalShareInfoList.cpp

; 55   : 	while( !IsEmpty()) delete RemoveHead();

  00017	85 c0		 test	 eax, eax
  00019	74 09		 je	 SHORT $LN5@RemoveAllL
  0001b	8b 10		 mov	 edx, DWORD PTR [eax]
  0001d	8b c8		 mov	 ecx, eax
  0001f	6a 01		 push	 1
  00021	ff 52 04	 call	 DWORD PTR [edx+4]
$LN5@RemoveAllL:
; File C:\Program Files (x86)\Microsoft Visual Studio\2019\Community\VC\Tools\MSVC\14.29.30133\atlmfc\include\afxcoll.inl

; 410  : 	{ return m_nCount == 0; }

  00024	83 7e 0c 00	 cmp	 DWORD PTR [esi+12], 0
; File D:\git\src\IBK\IBK_DRFN\ProjSrc\SrcChartEx\ChartOCX\KTBChart\LocalShareInfoList.cpp

; 55   : 	while( !IsEmpty()) delete RemoveHead();

  00028	75 e6		 jne	 SHORT $LL2@RemoveAllL
$LN3@RemoveAllL:
  0002a	5e		 pop	 esi

; 56   : }

  0002b	c3		 ret	 0
?RemoveAllLocalShareInfo@CLocalShareInfoList@@QAEXXZ ENDP ; CLocalShareInfoList::RemoveAllLocalShareInfo
_TEXT	ENDS
; Function compile flags: /Ogtp
; File D:\git\src\IBK\IBK_DRFN\ProjSrc\SrcChartEx\ChartOCX\KTBChart\LocalShareInfoList.cpp
; File C:\Program Files (x86)\Microsoft Visual Studio\2019\Community\VC\Tools\MSVC\14.29.30133\atlmfc\include\cstringt.h
; File C:\Program Files (x86)\Microsoft Visual Studio\2019\Community\VC\Tools\MSVC\14.29.30133\atlmfc\include\afxcoll.inl
; File D:\git\src\IBK\IBK_DRFN\ProjSrc\SrcChartEx\ChartOCX\KTBChart\LocalShareInfoList.cpp
; File C:\Program Files (x86)\Microsoft Visual Studio\2019\Community\VC\Tools\MSVC\14.29.30133\atlmfc\include\cstringt.h
; File D:\git\src\IBK\IBK_DRFN\ProjSrc\SrcChartEx\ChartOCX\KTBChart\LocalShareInfoList.cpp
; File C:\Program Files (x86)\Microsoft Visual Studio\2019\Community\VC\Tools\MSVC\14.29.30133\atlmfc\include\afx.inl
; File D:\git\src\IBK\IBK_DRFN\ProjSrc\SrcChartEx\ChartOCX\KTBChart\LocalShareInfoList.cpp
; File C:\Program Files (x86)\Microsoft Visual Studio\2019\Community\VC\Tools\MSVC\14.29.30133\atlmfc\include\afx.inl
; File D:\git\src\IBK\IBK_DRFN\ProjSrc\SrcChartEx\ChartOCX\KTBChart\LocalShareInfoList.cpp
; File D:\git\src\IBK\IBK_DRFN\ProjSrc\SrcChartEx\ChartOCX\KTBChart\LocalShareInfoList.h
; File D:\git\src\IBK\IBK_DRFN\ProjSrc\SrcChartEx\ChartOCX\KTBChart\LocalShareInfoList.cpp
; File C:\Program Files (x86)\Microsoft Visual Studio\2019\Community\VC\Tools\MSVC\14.29.30133\atlmfc\include\afxtempl.h
; File D:\git\src\IBK\IBK_DRFN\ProjSrc\SrcChartEx\ChartOCX\KTBChart\LocalShareInfoList.cpp
; File C:\Program Files (x86)\Microsoft Visual Studio\2019\Community\VC\Tools\MSVC\14.29.30133\atlmfc\include\afxtempl.h
; File D:\git\src\IBK\IBK_DRFN\ProjSrc\SrcChartEx\ChartOCX\KTBChart\LocalShareInfoList.cpp
;	COMDAT ?AddLocalShareInfo@CLocalShareInfoList@@QAEPAVCLocalShareInfo@@PBDH0@Z
_TEXT	SEGMENT
$T2 = -20						; size = 4
_this$1$ = -16						; size = 4
__$EHRec$ = -12						; size = 12
_p_szLocalShareName$ = 8				; size = 4
_p_nLocalShareSettingCode$ = 12				; size = 4
_p_szLocalSharedData$ = 16				; size = 4
?AddLocalShareInfo@CLocalShareInfoList@@QAEPAVCLocalShareInfo@@PBDH0@Z PROC ; CLocalShareInfoList::AddLocalShareInfo, COMDAT
; _this$ = ecx

; 38   : {

  00000	55		 push	 ebp
  00001	8b ec		 mov	 ebp, esp
  00003	6a ff		 push	 -1
  00005	68 00 00 00 00	 push	 __ehhandler$?AddLocalShareInfo@CLocalShareInfoList@@QAEPAVCLocalShareInfo@@PBDH0@Z
  0000a	64 a1 00 00 00
	00		 mov	 eax, DWORD PTR fs:0
  00010	50		 push	 eax
  00011	83 ec 08	 sub	 esp, 8
  00014	53		 push	 ebx
  00015	56		 push	 esi
  00016	57		 push	 edi
  00017	a1 00 00 00 00	 mov	 eax, DWORD PTR ___security_cookie
  0001c	33 c5		 xor	 eax, ebp
  0001e	50		 push	 eax
  0001f	8d 45 f4	 lea	 eax, DWORD PTR __$EHRec$[ebp]
  00022	64 a3 00 00 00
	00		 mov	 DWORD PTR fs:0, eax
  00028	8b c1		 mov	 eax, ecx
  0002a	89 45 f0	 mov	 DWORD PTR _this$1$[ebp], eax

; 76   : 	POSITION posLSI = GetHeadPosition();

  0002d	8b 70 04	 mov	 esi, DWORD PTR [eax+4]

; 77   : 	while( posLSI)

  00030	85 f6		 test	 esi, esi
  00032	74 19		 je	 SHORT $LN2@AddLocalSh
$LL8@AddLocalSh:

; 78   : 	{
; 79   : 		posPrevLSI = posLSI;
; 80   : 		CLocalShareInfo *pLSI = GetNext( posLSI);

  00034	8b 4e 08	 mov	 ecx, DWORD PTR [esi+8]
; File C:\Program Files (x86)\Microsoft Visual Studio\2019\Community\VC\Tools\MSVC\14.29.30133\atlmfc\include\cstringt.h

; 2486 : 		return(str1.Compare(psz2) == 0);

  00037	ff 75 08	 push	 DWORD PTR _p_szLocalShareName$[ebp]
; File C:\Program Files (x86)\Microsoft Visual Studio\2019\Community\VC\Tools\MSVC\14.29.30133\atlmfc\include\afxcoll.inl

; 432  : 		rPosition = (POSITION) pNode->pNext;

  0003a	8b 36		 mov	 esi, DWORD PTR [esi]
; File D:\git\src\IBK\IBK_DRFN\ProjSrc\SrcChartEx\ChartOCX\KTBChart\LocalShareInfoList.cpp

; 81   : 		if( pLSI->m_strLocalShareName == p_szLocalShareName) return posPrevLSI;

  0003c	83 c1 04	 add	 ecx, 4
; File C:\Program Files (x86)\Microsoft Visual Studio\2019\Community\VC\Tools\MSVC\14.29.30133\atlmfc\include\cstringt.h

; 2486 : 		return(str1.Compare(psz2) == 0);

  0003f	ff 15 00 00 00
	00		 call	 DWORD PTR __imp_?Compare@?$CStringT@DV?$StrTraitMFC_DLL@DV?$ChTraitsCRT@D@ATL@@@@@ATL@@QBEHPBD@Z
  00045	85 c0		 test	 eax, eax
; File D:\git\src\IBK\IBK_DRFN\ProjSrc\SrcChartEx\ChartOCX\KTBChart\LocalShareInfoList.cpp

; 81   : 		if( pLSI->m_strLocalShareName == p_szLocalShareName) return posPrevLSI;

  00047	74 6d		 je	 SHORT $LN35@AddLocalSh

; 77   : 	while( posLSI)

  00049	85 f6		 test	 esi, esi
  0004b	75 e7		 jne	 SHORT $LL8@AddLocalSh
$LN2@AddLocalSh:
; File C:\Program Files (x86)\Microsoft Visual Studio\2019\Community\VC\Tools\MSVC\14.29.30133\atlmfc\include\afx.inl

; 116  : 	{ return ::operator new(nSize); }

  0004d	6a 18		 push	 24			; 00000018H
  0004f	e8 00 00 00 00	 call	 ??2@YAPAXI@Z		; operator new
; File D:\git\src\IBK\IBK_DRFN\ProjSrc\SrcChartEx\ChartOCX\KTBChart\LocalShareInfoList.cpp

; 43   : 	CLocalShareInfo *pLocalShareInfo = new CLocalShareInfo( p_szLocalShareName, p_nLocalShareSettingCode, p_szLocalSharedData);

  00054	8b d8		 mov	 ebx, eax
; File C:\Program Files (x86)\Microsoft Visual Studio\2019\Community\VC\Tools\MSVC\14.29.30133\atlmfc\include\afx.inl

; 116  : 	{ return ::operator new(nSize); }

  00056	83 c4 04	 add	 esp, 4
; File D:\git\src\IBK\IBK_DRFN\ProjSrc\SrcChartEx\ChartOCX\KTBChart\LocalShareInfoList.cpp

; 43   : 	CLocalShareInfo *pLocalShareInfo = new CLocalShareInfo( p_szLocalShareName, p_nLocalShareSettingCode, p_szLocalSharedData);

  00059	89 5d ec	 mov	 DWORD PTR $T2[ebp], ebx
  0005c	c7 45 fc 00 00
	00 00		 mov	 DWORD PTR __$EHRec$[ebp+8], 0
  00063	85 db		 test	 ebx, ebx
  00065	74 65		 je	 SHORT $LN4@AddLocalSh
; File D:\git\src\IBK\IBK_DRFN\ProjSrc\SrcChartEx\ChartOCX\KTBChart\LocalShareInfoList.h

; 20   : 	CLocalShareInfo( const char *p_szLocalShareName, int p_nLocalShareSettingCode, const char *p_szLocalSharedData = NULL)

  00067	8d 4b 04	 lea	 ecx, DWORD PTR [ebx+4]
  0006a	c7 03 00 00 00
	00		 mov	 DWORD PTR [ebx], OFFSET ??_7CLocalShareInfo@@6B@
  00070	ff 15 00 00 00
	00		 call	 DWORD PTR __imp_??0?$CStringT@DV?$StrTraitMFC_DLL@DV?$ChTraitsCRT@D@ATL@@@@@ATL@@QAE@XZ
  00076	8d 4b 14	 lea	 ecx, DWORD PTR [ebx+20]
  00079	ff 15 00 00 00
	00		 call	 DWORD PTR __imp_??0?$CStringT@DV?$StrTraitMFC_DLL@DV?$ChTraitsCRT@D@ATL@@@@@ATL@@QAE@XZ

; 21   : 	{
; 22   : 		m_strLocalShareName		= p_szLocalShareName;

  0007f	ff 75 08	 push	 DWORD PTR _p_szLocalShareName$[ebp]
  00082	8d 4b 04	 lea	 ecx, DWORD PTR [ebx+4]
  00085	c6 45 fc 02	 mov	 BYTE PTR __$EHRec$[ebp+8], 2
  00089	ff 15 00 00 00
	00		 call	 DWORD PTR __imp_??4?$CStringT@DV?$StrTraitMFC_DLL@DV?$ChTraitsCRT@D@ATL@@@@@ATL@@QAEAAV01@PBD@Z

; 23   : 		m_bStart				= BOOL( p_nLocalShareSettingCode & 1);

  0008f	8b 55 0c	 mov	 edx, DWORD PTR _p_nLocalShareSettingCode$[ebp]

; 24   : 		m_bSet					= BOOL( p_nLocalShareSettingCode & 2);
; 25   : 		m_bGet					= BOOL( p_nLocalShareSettingCode & 4);
; 26   : 		m_strLocalSharedData	= p_szLocalSharedData;

  00092	8d 4b 14	 lea	 ecx, DWORD PTR [ebx+20]
  00095	ff 75 10	 push	 DWORD PTR _p_szLocalSharedData$[ebp]
  00098	8b c2		 mov	 eax, edx
  0009a	83 e0 01	 and	 eax, 1
  0009d	89 43 08	 mov	 DWORD PTR [ebx+8], eax
  000a0	8b c2		 mov	 eax, edx
  000a2	83 e0 02	 and	 eax, 2
  000a5	83 e2 04	 and	 edx, 4
  000a8	89 43 0c	 mov	 DWORD PTR [ebx+12], eax
  000ab	89 53 10	 mov	 DWORD PTR [ebx+16], edx
  000ae	ff 15 00 00 00
	00		 call	 DWORD PTR __imp_??4?$CStringT@DV?$StrTraitMFC_DLL@DV?$ChTraitsCRT@D@ATL@@@@@ATL@@QAEAAV01@PBD@Z
; File D:\git\src\IBK\IBK_DRFN\ProjSrc\SrcChartEx\ChartOCX\KTBChart\LocalShareInfoList.cpp

; 43   : 	CLocalShareInfo *pLocalShareInfo = new CLocalShareInfo( p_szLocalShareName, p_nLocalShareSettingCode, p_szLocalSharedData);

  000b4	eb 18		 jmp	 SHORT $LN5@AddLocalSh
$LN35@AddLocalSh:

; 39   : 	// 0. 이미 등록된 Local Share Info인지 확인한다.
; 40   : 	if( FindLocalShareInfo( p_szLocalShareName)) return NULL;

  000b6	33 c0		 xor	 eax, eax

; 46   : }

  000b8	8b 4d f4	 mov	 ecx, DWORD PTR __$EHRec$[ebp]
  000bb	64 89 0d 00 00
	00 00		 mov	 DWORD PTR fs:0, ecx
  000c2	59		 pop	 ecx
  000c3	5f		 pop	 edi
  000c4	5e		 pop	 esi
  000c5	5b		 pop	 ebx
  000c6	8b e5		 mov	 esp, ebp
  000c8	5d		 pop	 ebp
  000c9	c2 0c 00	 ret	 12			; 0000000cH
$LN4@AddLocalSh:

; 43   : 	CLocalShareInfo *pLocalShareInfo = new CLocalShareInfo( p_szLocalShareName, p_nLocalShareSettingCode, p_szLocalSharedData);

  000cc	33 db		 xor	 ebx, ebx
$LN5@AddLocalSh:
; File C:\Program Files (x86)\Microsoft Visual Studio\2019\Community\VC\Tools\MSVC\14.29.30133\atlmfc\include\afxtempl.h

; 1959 : 		{ return BASE_CLASS::AddTail(newElement); }

  000ce	8b 4d f0	 mov	 ecx, DWORD PTR _this$1$[ebp]
  000d1	53		 push	 ebx
; File D:\git\src\IBK\IBK_DRFN\ProjSrc\SrcChartEx\ChartOCX\KTBChart\LocalShareInfoList.cpp

; 43   : 	CLocalShareInfo *pLocalShareInfo = new CLocalShareInfo( p_szLocalShareName, p_nLocalShareSettingCode, p_szLocalSharedData);

  000d2	c7 45 fc ff ff
	ff ff		 mov	 DWORD PTR __$EHRec$[ebp+8], -1
; File C:\Program Files (x86)\Microsoft Visual Studio\2019\Community\VC\Tools\MSVC\14.29.30133\atlmfc\include\afxtempl.h

; 1959 : 		{ return BASE_CLASS::AddTail(newElement); }

  000d9	e8 00 00 00 00	 call	 ?AddTail@CObList@@QAEPAU__POSITION@@PAVCObject@@@Z ; CObList::AddTail
; File D:\git\src\IBK\IBK_DRFN\ProjSrc\SrcChartEx\ChartOCX\KTBChart\LocalShareInfoList.cpp

; 45   : 	return pLocalShareInfo;

  000de	8b c3		 mov	 eax, ebx

; 46   : }

  000e0	8b 4d f4	 mov	 ecx, DWORD PTR __$EHRec$[ebp]
  000e3	64 89 0d 00 00
	00 00		 mov	 DWORD PTR fs:0, ecx
  000ea	59		 pop	 ecx
  000eb	5f		 pop	 edi
  000ec	5e		 pop	 esi
  000ed	5b		 pop	 ebx
  000ee	8b e5		 mov	 esp, ebp
  000f0	5d		 pop	 ebp
  000f1	c2 0c 00	 ret	 12			; 0000000cH
_TEXT	ENDS
;	COMDAT text$x
text$x	SEGMENT
__unwindfunclet$?AddLocalShareInfo@CLocalShareInfoList@@QAEPAVCLocalShareInfo@@PBDH0@Z$0:
  00000	8b 45 ec	 mov	 eax, DWORD PTR $T2[ebp]
  00003	50		 push	 eax
  00004	e8 00 00 00 00	 call	 ??3CObject@@SGXPAX@Z	; CObject::operator delete
  00009	c3		 ret	 0
__unwindfunclet$?AddLocalShareInfo@CLocalShareInfoList@@QAEPAVCLocalShareInfo@@PBDH0@Z$1:
  0000a	8b 4d ec	 mov	 ecx, DWORD PTR $T2[ebp]
  0000d	83 c1 04	 add	 ecx, 4
  00010	ff 25 00 00 00
	00		 jmp	 DWORD PTR __imp_??1?$CStringT@DV?$StrTraitMFC_DLL@DV?$ChTraitsCRT@D@ATL@@@@@ATL@@QAE@XZ
__unwindfunclet$?AddLocalShareInfo@CLocalShareInfoList@@QAEPAVCLocalShareInfo@@PBDH0@Z$2:
  00016	8b 4d ec	 mov	 ecx, DWORD PTR $T2[ebp]
  00019	83 c1 14	 add	 ecx, 20			; 00000014H
  0001c	ff 25 00 00 00
	00		 jmp	 DWORD PTR __imp_??1?$CStringT@DV?$StrTraitMFC_DLL@DV?$ChTraitsCRT@D@ATL@@@@@ATL@@QAE@XZ
  00022	cc		 int	 3
  00023	cc		 int	 3
  00024	cc		 int	 3
  00025	cc		 int	 3
  00026	cc		 int	 3
__ehhandler$?AddLocalShareInfo@CLocalShareInfoList@@QAEPAVCLocalShareInfo@@PBDH0@Z:
  00027	90		 npad	 1
  00028	90		 npad	 1
  00029	8b 54 24 08	 mov	 edx, DWORD PTR [esp+8]
  0002d	8d 42 0c	 lea	 eax, DWORD PTR [edx+12]
  00030	8b 4a e8	 mov	 ecx, DWORD PTR [edx-24]
  00033	33 c8		 xor	 ecx, eax
  00035	e8 00 00 00 00	 call	 @__security_check_cookie@4
  0003a	b8 00 00 00 00	 mov	 eax, OFFSET __ehfuncinfo$?AddLocalShareInfo@CLocalShareInfoList@@QAEPAVCLocalShareInfo@@PBDH0@Z
  0003f	e9 00 00 00 00	 jmp	 ___CxxFrameHandler3
text$x	ENDS
?AddLocalShareInfo@CLocalShareInfoList@@QAEPAVCLocalShareInfo@@PBDH0@Z ENDP ; CLocalShareInfoList::AddLocalShareInfo
; Function compile flags: /Ogtp
; File D:\git\src\IBK\IBK_DRFN\ProjSrc\SrcChartEx\ChartOCX\KTBChart\LocalShareInfoList.cpp
; File C:\Program Files (x86)\Microsoft Visual Studio\2019\Community\VC\Tools\MSVC\14.29.30133\atlmfc\include\afxcoll.inl
; File D:\git\src\IBK\IBK_DRFN\ProjSrc\SrcChartEx\ChartOCX\KTBChart\LocalShareInfoList.cpp
; File C:\Program Files (x86)\Microsoft Visual Studio\2019\Community\VC\Tools\MSVC\14.29.30133\atlmfc\include\afxtempl.h
; File D:\git\src\IBK\IBK_DRFN\ProjSrc\SrcChartEx\ChartOCX\KTBChart\LocalShareInfoList.cpp
; File C:\Program Files (x86)\Microsoft Visual Studio\2019\Community\VC\Tools\MSVC\14.29.30133\atlmfc\include\afxcoll.inl
; File D:\git\src\IBK\IBK_DRFN\ProjSrc\SrcChartEx\ChartOCX\KTBChart\LocalShareInfoList.cpp
;	COMDAT ??1CLocalShareInfoList@@UAE@XZ
_TEXT	SEGMENT
__$EHRec$ = -12						; size = 12
??1CLocalShareInfoList@@UAE@XZ PROC			; CLocalShareInfoList::~CLocalShareInfoList, COMDAT
; _this$ = ecx

; 25   : {

  00000	55		 push	 ebp
  00001	8b ec		 mov	 ebp, esp
  00003	6a ff		 push	 -1
  00005	68 00 00 00 00	 push	 __ehhandler$??1CLocalShareInfoList@@UAE@XZ
  0000a	64 a1 00 00 00
	00		 mov	 eax, DWORD PTR fs:0
  00010	50		 push	 eax
  00011	56		 push	 esi
  00012	a1 00 00 00 00	 mov	 eax, DWORD PTR ___security_cookie
  00017	33 c5		 xor	 eax, ebp
  00019	50		 push	 eax
  0001a	8d 45 f4	 lea	 eax, DWORD PTR __$EHRec$[ebp]
  0001d	64 a3 00 00 00
	00		 mov	 DWORD PTR fs:0, eax
  00023	8b f1		 mov	 esi, ecx
; File C:\Program Files (x86)\Microsoft Visual Studio\2019\Community\VC\Tools\MSVC\14.29.30133\atlmfc\include\afxcoll.inl

; 410  : 	{ return m_nCount == 0; }

  00025	83 7e 0c 00	 cmp	 DWORD PTR [esi+12], 0
; File D:\git\src\IBK\IBK_DRFN\ProjSrc\SrcChartEx\ChartOCX\KTBChart\LocalShareInfoList.cpp

; 25   : {

  00029	c7 06 00 00 00
	00		 mov	 DWORD PTR [esi], OFFSET ??_7CLocalShareInfoList@@6B@

; 55   : 	while( !IsEmpty()) delete RemoveHead();

  0002f	74 1a		 je	 SHORT $LN5@CLocalShar
$LL4@CLocalShar:
; File C:\Program Files (x86)\Microsoft Visual Studio\2019\Community\VC\Tools\MSVC\14.29.30133\atlmfc\include\afxtempl.h

; 1890 : 		{ return (TYPE)BASE_CLASS::RemoveHead(); }

  00031	8b ce		 mov	 ecx, esi
  00033	e8 00 00 00 00	 call	 ?RemoveHead@CObList@@QAEPAVCObject@@XZ ; CObList::RemoveHead
; File D:\git\src\IBK\IBK_DRFN\ProjSrc\SrcChartEx\ChartOCX\KTBChart\LocalShareInfoList.cpp

; 55   : 	while( !IsEmpty()) delete RemoveHead();

  00038	85 c0		 test	 eax, eax
  0003a	74 09		 je	 SHORT $LN7@CLocalShar
  0003c	8b 10		 mov	 edx, DWORD PTR [eax]
  0003e	8b c8		 mov	 ecx, eax
  00040	6a 01		 push	 1
  00042	ff 52 04	 call	 DWORD PTR [edx+4]
$LN7@CLocalShar:
; File C:\Program Files (x86)\Microsoft Visual Studio\2019\Community\VC\Tools\MSVC\14.29.30133\atlmfc\include\afxcoll.inl

; 410  : 	{ return m_nCount == 0; }

  00045	83 7e 0c 00	 cmp	 DWORD PTR [esi+12], 0
; File D:\git\src\IBK\IBK_DRFN\ProjSrc\SrcChartEx\ChartOCX\KTBChart\LocalShareInfoList.cpp

; 55   : 	while( !IsEmpty()) delete RemoveHead();

  00049	75 e6		 jne	 SHORT $LL4@CLocalShar
$LN5@CLocalShar:
  0004b	8b ce		 mov	 ecx, esi
  0004d	e8 00 00 00 00	 call	 ??1CObList@@UAE@XZ	; CObList::~CObList

; 26   : 	// (2004.11.29, 배승원) 등록된 모든 Local Share Info를 제거한다.
; 27   : 	RemoveAllLocalShareInfo();
; 28   : }

  00052	8b 4d f4	 mov	 ecx, DWORD PTR __$EHRec$[ebp]
  00055	64 89 0d 00 00
	00 00		 mov	 DWORD PTR fs:0, ecx
  0005c	59		 pop	 ecx
  0005d	5e		 pop	 esi
  0005e	8b e5		 mov	 esp, ebp
  00060	5d		 pop	 ebp
  00061	c3		 ret	 0
  00062	cc		 int	 3
  00063	cc		 int	 3
  00064	cc		 int	 3
  00065	cc		 int	 3
  00066	cc		 int	 3
_TEXT	ENDS
;	COMDAT text$x
text$x	SEGMENT
__ehhandler$??1CLocalShareInfoList@@UAE@XZ:
  00000	90		 npad	 1
  00001	90		 npad	 1
  00002	8b 54 24 08	 mov	 edx, DWORD PTR [esp+8]
  00006	8d 42 0c	 lea	 eax, DWORD PTR [edx+12]
  00009	8b 4a f8	 mov	 ecx, DWORD PTR [edx-8]
  0000c	33 c8		 xor	 ecx, eax
  0000e	e8 00 00 00 00	 call	 @__security_check_cookie@4
  00013	b8 00 00 00 00	 mov	 eax, OFFSET __ehfuncinfo$??1CLocalShareInfoList@@UAE@XZ
  00018	e9 00 00 00 00	 jmp	 ___CxxFrameHandler3
text$x	ENDS
??1CLocalShareInfoList@@UAE@XZ ENDP			; CLocalShareInfoList::~CLocalShareInfoList
; Function compile flags: /Ogtp
; File D:\git\src\IBK\IBK_DRFN\ProjSrc\SrcChartEx\ChartOCX\KTBChart\LocalShareInfoList.cpp
; File C:\Program Files (x86)\Microsoft Visual Studio\2019\Community\VC\Tools\MSVC\14.29.30133\atlmfc\include\afxtempl.h
; File D:\git\src\IBK\IBK_DRFN\ProjSrc\SrcChartEx\ChartOCX\KTBChart\LocalShareInfoList.cpp
; File C:\Program Files (x86)\Microsoft Visual Studio\2019\Community\VC\Tools\MSVC\14.29.30133\atlmfc\include\afxtempl.h
; File D:\git\src\IBK\IBK_DRFN\ProjSrc\SrcChartEx\ChartOCX\KTBChart\LocalShareInfoList.cpp
;	COMDAT ??0CLocalShareInfoList@@QAE@XZ
_TEXT	SEGMENT
_this$ = -4						; size = 4
??0CLocalShareInfoList@@QAE@XZ PROC			; CLocalShareInfoList::CLocalShareInfoList, COMDAT
; _this$ = ecx

; 20   : {

  00000	55		 push	 ebp
  00001	8b ec		 mov	 ebp, esp
  00003	51		 push	 ecx
  00004	56		 push	 esi
  00005	8b f1		 mov	 esi, ecx
; File C:\Program Files (x86)\Microsoft Visual Studio\2019\Community\VC\Tools\MSVC\14.29.30133\atlmfc\include\afxtempl.h

; 1876 : 		: BASE_CLASS(nBlockSize) { }

  00007	6a 0a		 push	 10			; 0000000aH
; File D:\git\src\IBK\IBK_DRFN\ProjSrc\SrcChartEx\ChartOCX\KTBChart\LocalShareInfoList.cpp

; 20   : {

  00009	89 75 fc	 mov	 DWORD PTR _this$[ebp], esi
; File C:\Program Files (x86)\Microsoft Visual Studio\2019\Community\VC\Tools\MSVC\14.29.30133\atlmfc\include\afxtempl.h

; 1876 : 		: BASE_CLASS(nBlockSize) { }

  0000c	e8 00 00 00 00	 call	 ??0CObList@@QAE@H@Z	; CObList::CObList
; File D:\git\src\IBK\IBK_DRFN\ProjSrc\SrcChartEx\ChartOCX\KTBChart\LocalShareInfoList.cpp

; 20   : {

  00011	c7 06 00 00 00
	00		 mov	 DWORD PTR [esi], OFFSET ??_7CLocalShareInfoList@@6B@

; 21   : 
; 22   : }

  00017	8b c6		 mov	 eax, esi
  00019	5e		 pop	 esi
  0001a	8b e5		 mov	 esp, ebp
  0001c	5d		 pop	 ebp
  0001d	c3		 ret	 0
??0CLocalShareInfoList@@QAE@XZ ENDP			; CLocalShareInfoList::CLocalShareInfoList
_TEXT	ENDS
; Function compile flags: /Ogtp
; File C:\Program Files (x86)\Microsoft Visual Studio\2019\Community\VC\Tools\MSVC\14.29.30133\atlmfc\include\afx.inl
;	COMDAT ??_G?$CTypedPtrList@VCObList@@PAVCLocalShareInfo@@@@UAEPAXI@Z
_TEXT	SEGMENT
___flags$ = 8						; size = 4
??_G?$CTypedPtrList@VCObList@@PAVCLocalShareInfo@@@@UAEPAXI@Z PROC ; CTypedPtrList<CObList,CLocalShareInfo *>::`scalar deleting destructor', COMDAT
; _this$ = ecx
  00000	55		 push	 ebp
  00001	8b ec		 mov	 ebp, esp
  00003	56		 push	 esi
  00004	8b f1		 mov	 esi, ecx
  00006	e8 00 00 00 00	 call	 ??1CObList@@UAE@XZ	; CObList::~CObList
  0000b	8b 45 08	 mov	 eax, DWORD PTR ___flags$[ebp]
  0000e	a8 01		 test	 al, 1
  00010	74 1f		 je	 SHORT $LN15@scalar
  00012	a8 04		 test	 al, 4
  00014	75 10		 jne	 SHORT $LN3@scalar

; 112  : 	{ ::operator delete(p); }

  00016	56		 push	 esi
  00017	e8 00 00 00 00	 call	 ??3@YAXPAX@Z		; operator delete
  0001c	83 c4 04	 add	 esp, 4
  0001f	8b c6		 mov	 eax, esi
  00021	5e		 pop	 esi
  00022	5d		 pop	 ebp
  00023	c2 04 00	 ret	 4
$LN3@scalar:
  00026	6a 1c		 push	 28			; 0000001cH
  00028	56		 push	 esi
  00029	e8 00 00 00 00	 call	 ?__global_delete@@YAXPAXI@Z ; __global_delete
  0002e	83 c4 08	 add	 esp, 8
$LN15@scalar:
  00031	8b c6		 mov	 eax, esi
  00033	5e		 pop	 esi
  00034	5d		 pop	 ebp
  00035	c2 04 00	 ret	 4
??_G?$CTypedPtrList@VCObList@@PAVCLocalShareInfo@@@@UAEPAXI@Z ENDP ; CTypedPtrList<CObList,CLocalShareInfo *>::`scalar deleting destructor'
_TEXT	ENDS
; Function compile flags: /Ogtp
; File C:\Program Files (x86)\Microsoft Visual Studio\2019\Community\VC\Tools\MSVC\14.29.30133\atlmfc\include\afx.inl
;	COMDAT ??_G?$_CTypedPtrList@VCObList@@PAVCLocalShareInfo@@@@UAEPAXI@Z
_TEXT	SEGMENT
___flags$ = 8						; size = 4
??_G?$_CTypedPtrList@VCObList@@PAVCLocalShareInfo@@@@UAEPAXI@Z PROC ; _CTypedPtrList<CObList,CLocalShareInfo *>::`scalar deleting destructor', COMDAT
; _this$ = ecx
  00000	55		 push	 ebp
  00001	8b ec		 mov	 ebp, esp
  00003	56		 push	 esi
  00004	8b f1		 mov	 esi, ecx
  00006	e8 00 00 00 00	 call	 ??1CObList@@UAE@XZ	; CObList::~CObList
  0000b	8b 45 08	 mov	 eax, DWORD PTR ___flags$[ebp]
  0000e	a8 01		 test	 al, 1
  00010	74 1f		 je	 SHORT $LN12@scalar
  00012	a8 04		 test	 al, 4
  00014	75 10		 jne	 SHORT $LN3@scalar

; 112  : 	{ ::operator delete(p); }

  00016	56		 push	 esi
  00017	e8 00 00 00 00	 call	 ??3@YAXPAX@Z		; operator delete
  0001c	83 c4 04	 add	 esp, 4
  0001f	8b c6		 mov	 eax, esi
  00021	5e		 pop	 esi
  00022	5d		 pop	 ebp
  00023	c2 04 00	 ret	 4
$LN3@scalar:
  00026	6a 1c		 push	 28			; 0000001cH
  00028	56		 push	 esi
  00029	e8 00 00 00 00	 call	 ?__global_delete@@YAXPAXI@Z ; __global_delete
  0002e	83 c4 08	 add	 esp, 8
$LN12@scalar:
  00031	8b c6		 mov	 eax, esi
  00033	5e		 pop	 esi
  00034	5d		 pop	 ebp
  00035	c2 04 00	 ret	 4
??_G?$_CTypedPtrList@VCObList@@PAVCLocalShareInfo@@@@UAEPAXI@Z ENDP ; _CTypedPtrList<CObList,CLocalShareInfo *>::`scalar deleting destructor'
_TEXT	ENDS
; Function compile flags: /Ogtp
; File C:\Program Files (x86)\Microsoft Visual Studio\2019\Community\VC\Tools\MSVC\14.29.30133\atlmfc\include\afx.inl
;	COMDAT ??_GCLocalShareInfo@@UAEPAXI@Z
_TEXT	SEGMENT
___flags$ = 8						; size = 4
??_GCLocalShareInfo@@UAEPAXI@Z PROC			; CLocalShareInfo::`scalar deleting destructor', COMDAT
; _this$ = ecx
  00000	55		 push	 ebp
  00001	8b ec		 mov	 ebp, esp
  00003	56		 push	 esi
  00004	8b f1		 mov	 esi, ecx
  00006	8d 4e 14	 lea	 ecx, DWORD PTR [esi+20]
  00009	ff 15 00 00 00
	00		 call	 DWORD PTR __imp_??1?$CStringT@DV?$StrTraitMFC_DLL@DV?$ChTraitsCRT@D@ATL@@@@@ATL@@QAE@XZ
  0000f	8d 4e 04	 lea	 ecx, DWORD PTR [esi+4]
  00012	ff 15 00 00 00
	00		 call	 DWORD PTR __imp_??1?$CStringT@DV?$StrTraitMFC_DLL@DV?$ChTraitsCRT@D@ATL@@@@@ATL@@QAE@XZ
  00018	8b 45 08	 mov	 eax, DWORD PTR ___flags$[ebp]
  0001b	a8 01		 test	 al, 1
  0001d	74 1f		 je	 SHORT $LN12@scalar
  0001f	a8 04		 test	 al, 4
  00021	75 10		 jne	 SHORT $LN3@scalar

; 112  : 	{ ::operator delete(p); }

  00023	56		 push	 esi
  00024	e8 00 00 00 00	 call	 ??3@YAXPAX@Z		; operator delete
  00029	83 c4 04	 add	 esp, 4
  0002c	8b c6		 mov	 eax, esi
  0002e	5e		 pop	 esi
  0002f	5d		 pop	 ebp
  00030	c2 04 00	 ret	 4
$LN3@scalar:
  00033	6a 18		 push	 24			; 00000018H
  00035	56		 push	 esi
  00036	e8 00 00 00 00	 call	 ?__global_delete@@YAXPAXI@Z ; __global_delete
  0003b	83 c4 08	 add	 esp, 8
$LN12@scalar:
  0003e	8b c6		 mov	 eax, esi
  00040	5e		 pop	 esi
  00041	5d		 pop	 ebp
  00042	c2 04 00	 ret	 4
??_GCLocalShareInfo@@UAEPAXI@Z ENDP			; CLocalShareInfo::`scalar deleting destructor'
_TEXT	ENDS
; Function compile flags: /Ogtp
; File C:\Program Files (x86)\Microsoft Visual Studio\2019\Community\VC\Tools\MSVC\14.29.30133\atlmfc\include\afx.inl
;	COMDAT ?Dump@CObject@@UBEXAAVCDumpContext@@@Z
_TEXT	SEGMENT
___formal$ = 8						; size = 4
?Dump@CObject@@UBEXAAVCDumpContext@@@Z PROC		; CObject::Dump, COMDAT
; _this$ = ecx

; 122  : 	{ /* no dumping in release builds */ }

  00000	c2 04 00	 ret	 4
?Dump@CObject@@UBEXAAVCDumpContext@@@Z ENDP		; CObject::Dump
_TEXT	ENDS
; Function compile flags: /Ogtp
; File C:\Program Files (x86)\Microsoft Visual Studio\2019\Community\VC\Tools\MSVC\14.29.30133\atlmfc\include\afx.inl
;	COMDAT ?AssertValid@CObject@@UBEXXZ
_TEXT	SEGMENT
?AssertValid@CObject@@UBEXXZ PROC			; CObject::AssertValid, COMDAT
; _this$ = ecx

; 120  : 	{ /* no asserts in release builds */ }

  00000	c2 00 00	 ret	 0
?AssertValid@CObject@@UBEXXZ ENDP			; CObject::AssertValid
_TEXT	ENDS
; Function compile flags: /Ogtp
; File C:\Program Files (x86)\Microsoft Visual Studio\2019\Community\VC\Tools\MSVC\14.29.30133\atlmfc\include\afx.inl
;	COMDAT ?Serialize@CObject@@UAEXAAVCArchive@@@Z
_TEXT	SEGMENT
___formal$ = 8						; size = 4
?Serialize@CObject@@UAEXAAVCArchive@@@Z PROC		; CObject::Serialize, COMDAT
; _this$ = ecx

; 106  : 	{ /* CObject does not serialize anything by default */ }

  00000	c2 04 00	 ret	 4
?Serialize@CObject@@UAEXAAVCArchive@@@Z ENDP		; CObject::Serialize
_TEXT	ENDS
; Function compile flags: /Ogtp
; File C:\Program Files (x86)\Microsoft Visual Studio\2019\Community\VC\Tools\MSVC\14.29.30133\atlmfc\include\afx.inl
;	COMDAT ??3CObject@@SGXPAX@Z
_TEXT	SEGMENT
_p$ = 8							; size = 4
??3CObject@@SGXPAX@Z PROC				; CObject::operator delete, COMDAT

; 112  : 	{ ::operator delete(p); }

  00000	55		 push	 ebp
  00001	8b ec		 mov	 ebp, esp
  00003	ff 75 08	 push	 DWORD PTR _p$[ebp]
  00006	e8 00 00 00 00	 call	 ??3@YAXPAX@Z		; operator delete
  0000b	83 c4 04	 add	 esp, 4
  0000e	5d		 pop	 ebp
  0000f	c2 04 00	 ret	 4
??3CObject@@SGXPAX@Z ENDP				; CObject::operator delete
_TEXT	ENDS
; Function compile flags: /Ogtp
; File C:\Program Files (x86)\Microsoft Visual Studio\2019\Community\VC\Tools\MSVC\14.29.30133\atlmfc\include\afx.inl
;	COMDAT ??1CObject@@UAE@XZ
_TEXT	SEGMENT
??1CObject@@UAE@XZ PROC					; CObject::~CObject, COMDAT
; _this$ = ecx

; 104  : 	{ }

  00000	c2 00 00	 ret	 0
??1CObject@@UAE@XZ ENDP					; CObject::~CObject
_TEXT	ENDS
; Function compile flags: /Ogtp
; File D:\git\src\IBK\IBK_DRFN\ProjSrc\SrcChartEx\ChartOCX\KTBChart\LocalShareInfoList.cpp
;	COMDAT ?__empty_global_delete@@YAXPAXI@Z
_TEXT	SEGMENT
___formal$ = 8						; size = 4
___formal$ = 12						; size = 4
?__empty_global_delete@@YAXPAXI@Z PROC			; __empty_global_delete, COMDAT

  00000	c2 00 00	 ret	 0
?__empty_global_delete@@YAXPAXI@Z ENDP			; __empty_global_delete
_TEXT	ENDS
; Function compile flags: /Ogtp
; File D:\git\src\IBK\IBK_DRFN\ProjSrc\SrcChartEx\ChartOCX\KTBChart\LocalShareInfoList.cpp
;	COMDAT ?__empty_global_delete@@YAXPAX@Z
_TEXT	SEGMENT
___formal$ = 8						; size = 4
?__empty_global_delete@@YAXPAX@Z PROC			; __empty_global_delete, COMDAT

  00000	c2 00 00	 ret	 0
?__empty_global_delete@@YAXPAX@Z ENDP			; __empty_global_delete
_TEXT	ENDS
END
