; Listing generated by Microsoft (R) Optimizing Compiler Version 19.29.30145.0 

	TITLE	D:\git\src\IBK\IBK_DRFN\#DRfn-CS\_Obj\KTBChart\NeoChart2001In.obj
	.686P
	.XMM
	include listing.inc
	.model	flat

INCLUDELIB MSVCRT
INCLUDELIB OLDNAMES

CONST	SEGMENT
?_Fake_alloc@std@@3U_Fake_allocator@1@B	ORG $+1		; std::_Fake_alloc
CONST	ENDS
PUBLIC	?__empty_global_delete@@YAXPAX@Z		; __empty_global_delete
PUBLIC	?__empty_global_delete@@YAXPAXI@Z		; __empty_global_delete
PUBLIC	??1CObject@@UAE@XZ				; CObject::~CObject
PUBLIC	?Serialize@CObject@@UAEXAAVCArchive@@@Z		; CObject::Serialize
PUBLIC	?AssertValid@CObject@@UBEXXZ			; CObject::AssertValid
PUBLIC	?Dump@CObject@@UBEXAAVCDumpContext@@@Z		; CObject::Dump
PUBLIC	?GetData@CBaseCtrlPackIn@@UAEHPADH@Z		; CBaseCtrlPackIn::GetData
PUBLIC	?GetPackDataSize@CBaseCtrlPackOut@@UAEHPAD@Z	; CBaseCtrlPackOut::GetPackDataSize
PUBLIC	?SetData@CBaseCtrlPackOut@@UAEHPADH@Z		; CBaseCtrlPackOut::SetData
PUBLIC	?SetData2@CBaseCtrlPackOut@@UAEHPADH@Z		; CBaseCtrlPackOut::SetData2
PUBLIC	?SetData3@CBaseCtrlPackOut@@UAEHPADH@Z		; CBaseCtrlPackOut::SetData3
PUBLIC	?SetData999@CBaseCtrlPackOut@@UAEHHPADH@Z	; CBaseCtrlPackOut::SetData999
PUBLIC	??0CNeoChart2001In@@QAE@PAVCKTBChartCtrl@@@Z	; CNeoChart2001In::CNeoChart2001In
PUBLIC	??0CNeoChart2001In@@QAE@XZ			; CNeoChart2001In::CNeoChart2001In
PUBLIC	??1CNeoChart2001In@@UAE@XZ			; CNeoChart2001In::~CNeoChart2001In
PUBLIC	?GetData@CNeoChart2001In@@UAEHPADH@Z		; CNeoChart2001In::GetData
PUBLIC	??_GCNeoChart2001In@@UAEPAXI@Z			; CNeoChart2001In::`scalar deleting destructor'
PUBLIC	??0CNeoChart2001Out@@QAE@PAVCKTBChartCtrl@@@Z	; CNeoChart2001Out::CNeoChart2001Out
PUBLIC	??0CNeoChart2001Out@@QAE@XZ			; CNeoChart2001Out::CNeoChart2001Out
PUBLIC	??1CNeoChart2001Out@@UAE@XZ			; CNeoChart2001Out::~CNeoChart2001Out
PUBLIC	?SetData@CNeoChart2001Out@@UAEHPADH@Z		; CNeoChart2001Out::SetData
PUBLIC	?SetData2@CNeoChart2001Out@@UAEHPADH@Z		; CNeoChart2001Out::SetData2
PUBLIC	?GetPackDataSize@CNeoChart2001Out@@UAEHPAD@Z	; CNeoChart2001Out::GetPackDataSize
PUBLIC	??_GCNeoChart2001Out@@UAEPAXI@Z			; CNeoChart2001Out::`scalar deleting destructor'
PUBLIC	??1CMultiLanguageResourceSetter@@QAE@XZ		; CMultiLanguageResourceSetter::~CMultiLanguageResourceSetter
PUBLIC	??1CDumpLogger@@UAE@XZ				; CDumpLogger::~CDumpLogger
PUBLIC	?WriteToStringLog@CDumpLogger@@QAEXPBD0H@Z	; CDumpLogger::WriteToStringLog
PUBLIC	??_GCDumpLogger@@UAEPAXI@Z			; CDumpLogger::`scalar deleting destructor'
PUBLIC	??_R0?AVCObject@@@8				; CObject `RTTI Type Descriptor'
PUBLIC	??_R3CObject@@8					; CObject::`RTTI Class Hierarchy Descriptor'
PUBLIC	??_R2CObject@@8					; CObject::`RTTI Base Class Array'
PUBLIC	??_R1A@?0A@EA@CObject@@8			; CObject::`RTTI Base Class Descriptor at (0,-1,0,64)'
PUBLIC	??_7CBaseCtrlPackIn@@6B@			; CBaseCtrlPackIn::`vftable'
PUBLIC	??_7CBaseCtrlPackOut@@6B@			; CBaseCtrlPackOut::`vftable'
PUBLIC	??_7CNeoChart2001In@@6B@			; CNeoChart2001In::`vftable'
PUBLIC	??_7CNeoChart2001Out@@6B@			; CNeoChart2001Out::`vftable'
PUBLIC	??_C@_0BA@ENJOCHIO@LoadResourceDLL@		; `string'
PUBLIC	??_7CDumpLogger@@6B@				; CDumpLogger::`vftable'
PUBLIC	??_C@_07PNFMHCIF@C?3?2Logs@			; `string'
PUBLIC	??_C@_05GDFJMIEM@MDump@				; `string'
PUBLIC	??_C@_0CJ@GKAGEPNM@?$CFs?2?$CFs_?$CF04d?$CF02d?$CF02d_?$CF02d?$CF02d?$CF02d@ ; `string'
PUBLIC	??_C@_0BH@KLLDLFAP@?$CFs?2?$CFs_?$CF04d?$CF02d?$CF02d?4log@ ; `string'
PUBLIC	??_C@_03BFOLIMEF@?$FN?$AN?6@			; `string'
PUBLIC	??_C@_0BN@HKLPFIKN@?$AN?6?$AN?6?$AN?6?$FL?$CF02d?3?$CF02d?3?$CF02d?3?$CF03d?5?5@ ; `string'
PUBLIC	??_C@_0BF@GOEHBEJD@?$CF02d?3?$CF02d?3?$CF02d?3?$CF03d?7@ ; `string'
PUBLIC	??_C@_0ED@JPABPGCN@Start?5Time?5?3?5?$CF02d?3?$CF02d?3?$CF02d?4?$CF03@ ; `string'
PUBLIC	??_C@_0O@BPAIOFGL@ChartSpeedLog@		; `string'
PUBLIC	??_C@_0BN@PIOCHIJD@CNeoChart2001Out?3?3SetData2?$CI?$CJ@ ; `string'
PUBLIC	??_R4CBaseCtrlPackIn@@6B@			; CBaseCtrlPackIn::`RTTI Complete Object Locator'
PUBLIC	??_R0?AVCBaseCtrlPackIn@@@8			; CBaseCtrlPackIn `RTTI Type Descriptor'
PUBLIC	??_R3CBaseCtrlPackIn@@8				; CBaseCtrlPackIn::`RTTI Class Hierarchy Descriptor'
PUBLIC	??_R2CBaseCtrlPackIn@@8				; CBaseCtrlPackIn::`RTTI Base Class Array'
PUBLIC	??_R1A@?0A@EA@CBaseCtrlPackIn@@8		; CBaseCtrlPackIn::`RTTI Base Class Descriptor at (0,-1,0,64)'
PUBLIC	??_R4CBaseCtrlPackOut@@6B@			; CBaseCtrlPackOut::`RTTI Complete Object Locator'
PUBLIC	??_R0?AVCBaseCtrlPackOut@@@8			; CBaseCtrlPackOut `RTTI Type Descriptor'
PUBLIC	??_R3CBaseCtrlPackOut@@8			; CBaseCtrlPackOut::`RTTI Class Hierarchy Descriptor'
PUBLIC	??_R2CBaseCtrlPackOut@@8			; CBaseCtrlPackOut::`RTTI Base Class Array'
PUBLIC	??_R1A@?0A@EA@CBaseCtrlPackOut@@8		; CBaseCtrlPackOut::`RTTI Base Class Descriptor at (0,-1,0,64)'
PUBLIC	??_R4CNeoChart2001In@@6B@			; CNeoChart2001In::`RTTI Complete Object Locator'
PUBLIC	??_R0?AVCNeoChart2001In@@@8			; CNeoChart2001In `RTTI Type Descriptor'
PUBLIC	??_R3CNeoChart2001In@@8				; CNeoChart2001In::`RTTI Class Hierarchy Descriptor'
PUBLIC	??_R2CNeoChart2001In@@8				; CNeoChart2001In::`RTTI Base Class Array'
PUBLIC	??_R1A@?0A@EA@CNeoChart2001In@@8		; CNeoChart2001In::`RTTI Base Class Descriptor at (0,-1,0,64)'
PUBLIC	??_R4CNeoChart2001Out@@6B@			; CNeoChart2001Out::`RTTI Complete Object Locator'
PUBLIC	??_R0?AVCNeoChart2001Out@@@8			; CNeoChart2001Out `RTTI Type Descriptor'
PUBLIC	??_R3CNeoChart2001Out@@8			; CNeoChart2001Out::`RTTI Class Hierarchy Descriptor'
PUBLIC	??_R2CNeoChart2001Out@@8			; CNeoChart2001Out::`RTTI Base Class Array'
PUBLIC	??_R1A@?0A@EA@CNeoChart2001Out@@8		; CNeoChart2001Out::`RTTI Base Class Descriptor at (0,-1,0,64)'
PUBLIC	??_R4CDumpLogger@@6B@				; CDumpLogger::`RTTI Complete Object Locator'
PUBLIC	??_R0?AVCDumpLogger@@@8				; CDumpLogger `RTTI Type Descriptor'
PUBLIC	??_R3CDumpLogger@@8				; CDumpLogger::`RTTI Class Hierarchy Descriptor'
PUBLIC	??_R2CDumpLogger@@8				; CDumpLogger::`RTTI Base Class Array'
PUBLIC	??_R1A@?0A@EA@CDumpLogger@@8			; CDumpLogger::`RTTI Base Class Descriptor at (0,-1,0,64)'
EXTRN	??3@YAXPAX@Z:PROC				; operator delete
EXTRN	??3@YAXPAXI@Z:PROC				; operator delete
EXTRN	?__global_delete@@YAXPAXI@Z:PROC		; __global_delete
EXTRN	___report_rangecheckfailure:PROC
EXTRN	___std_terminate:PROC
EXTRN	__imp__strncpy:PROC
EXTRN	__imp__CreateDirectoryA@8:PROC
EXTRN	__imp__GetLocalTime@4:PROC
EXTRN	__imp__GetProcAddress@8:PROC
EXTRN	__imp___lopen@8:PROC
EXTRN	__imp___lcreat@8:PROC
EXTRN	__imp___hwrite@12:PROC
EXTRN	__imp___lclose@4:PROC
EXTRN	__imp___llseek@12:PROC
EXTRN	__imp__atoi:PROC
EXTRN	?GetRuntimeClass@CObject@@UBEPAUCRuntimeClass@@XZ:PROC ; CObject::GetRuntimeClass
EXTRN	__imp_?Concatenate@?$CSimpleStringT@D$00@ATL@@KAXAAV12@PBDH1H@Z:PROC
EXTRN	__imp_??0?$CStringT@DV?$StrTraitMFC_DLL@DV?$ChTraitsCRT@D@ATL@@@@@ATL@@QAE@XZ:PROC
EXTRN	__imp_??0?$CStringT@DV?$StrTraitMFC_DLL@DV?$ChTraitsCRT@D@ATL@@@@@ATL@@QAE@PAUIAtlStringMgr@1@@Z:PROC
EXTRN	__imp_??1?$CStringT@DV?$StrTraitMFC_DLL@DV?$ChTraitsCRT@D@ATL@@@@@ATL@@QAE@XZ:PROC
EXTRN	__imp_??4?$CStringT@DV?$StrTraitMFC_DLL@DV?$ChTraitsCRT@D@ATL@@@@@ATL@@QAEAAV01@ABV01@@Z:PROC
EXTRN	__imp_?GetManager@?$CStringT@DV?$StrTraitMFC_DLL@DV?$ChTraitsCRT@D@ATL@@@@@ATL@@QBEPAUIAtlStringMgr@2@XZ:PROC
EXTRN	__imp_?Format@?$CStringT@DV?$StrTraitMFC_DLL@DV?$ChTraitsCRT@D@ATL@@@@@ATL@@QAAXPBDZZ:PROC
EXTRN	__imp_?LoadStringA@?$CStringT@DV?$StrTraitMFC_DLL@DV?$ChTraitsCRT@D@ATL@@@@@ATL@@QAEHI@Z:PROC
EXTRN	?AfxGetModuleState@@YGPAVAFX_MODULE_STATE@@XZ:PROC ; AfxGetModuleState
EXTRN	?AfxGetStaticModuleState@@YGPAVAFX_MODULE_STATE@@XZ:PROC ; AfxGetStaticModuleState
EXTRN	?AfxMessageBox@@YGHPBDII@Z:PROC			; AfxMessageBox
EXTRN	??_ECNeoChart2001In@@UAEPAXI@Z:PROC		; CNeoChart2001In::`vector deleting destructor'
EXTRN	??_ECNeoChart2001Out@@UAEPAXI@Z:PROC		; CNeoChart2001Out::`vector deleting destructor'
EXTRN	?SetChartData2@CKTBChartCtrl@@QAEHJHH@Z:PROC	; CKTBChartCtrl::SetChartData2
EXTRN	?GetOnePacketSize@CKTBChartCtrl@@QAEHXZ:PROC	; CKTBChartCtrl::GetOnePacketSize
EXTRN	__imp_?SetPacketLengthCount@CPacketList@@QAEXH@Z:PROC
EXTRN	??_ECDumpLogger@@UAEPAXI@Z:PROC			; CDumpLogger::`vector deleting destructor'
EXTRN	@__security_check_cookie@4:PROC
EXTRN	___CxxFrameHandler3:PROC
EXTRN	_memcpy:PROC
EXTRN	??_7type_info@@6B@:QWORD			; type_info::`vftable'
EXTRN	?g_iMetaTable@@3VIMetaTable@@A:BYTE		; g_iMetaTable
EXTRN	___security_cookie:DWORD
;	COMDAT ??_R1A@?0A@EA@CDumpLogger@@8
rdata$r	SEGMENT
??_R1A@?0A@EA@CDumpLogger@@8 DD FLAT:??_R0?AVCDumpLogger@@@8 ; CDumpLogger::`RTTI Base Class Descriptor at (0,-1,0,64)'
	DD	01H
	DD	00H
	DD	0ffffffffH
	DD	00H
	DD	040H
	DD	FLAT:??_R3CDumpLogger@@8
rdata$r	ENDS
;	COMDAT ??_R2CDumpLogger@@8
rdata$r	SEGMENT
??_R2CDumpLogger@@8 DD FLAT:??_R1A@?0A@EA@CDumpLogger@@8 ; CDumpLogger::`RTTI Base Class Array'
	DD	FLAT:??_R1A@?0A@EA@CObject@@8
rdata$r	ENDS
;	COMDAT ??_R3CDumpLogger@@8
rdata$r	SEGMENT
??_R3CDumpLogger@@8 DD 00H				; CDumpLogger::`RTTI Class Hierarchy Descriptor'
	DD	00H
	DD	02H
	DD	FLAT:??_R2CDumpLogger@@8
rdata$r	ENDS
;	COMDAT ??_R0?AVCDumpLogger@@@8
data$rs	SEGMENT
??_R0?AVCDumpLogger@@@8 DD FLAT:??_7type_info@@6B@	; CDumpLogger `RTTI Type Descriptor'
	DD	00H
	DB	'.?AVCDumpLogger@@', 00H
data$rs	ENDS
;	COMDAT ??_R4CDumpLogger@@6B@
rdata$r	SEGMENT
??_R4CDumpLogger@@6B@ DD 00H				; CDumpLogger::`RTTI Complete Object Locator'
	DD	00H
	DD	00H
	DD	FLAT:??_R0?AVCDumpLogger@@@8
	DD	FLAT:??_R3CDumpLogger@@8
rdata$r	ENDS
;	COMDAT ??_R1A@?0A@EA@CNeoChart2001Out@@8
rdata$r	SEGMENT
??_R1A@?0A@EA@CNeoChart2001Out@@8 DD FLAT:??_R0?AVCNeoChart2001Out@@@8 ; CNeoChart2001Out::`RTTI Base Class Descriptor at (0,-1,0,64)'
	DD	01H
	DD	00H
	DD	0ffffffffH
	DD	00H
	DD	040H
	DD	FLAT:??_R3CNeoChart2001Out@@8
rdata$r	ENDS
;	COMDAT ??_R2CNeoChart2001Out@@8
rdata$r	SEGMENT
??_R2CNeoChart2001Out@@8 DD FLAT:??_R1A@?0A@EA@CNeoChart2001Out@@8 ; CNeoChart2001Out::`RTTI Base Class Array'
	DD	FLAT:??_R1A@?0A@EA@CBaseCtrlPackOut@@8
rdata$r	ENDS
;	COMDAT ??_R3CNeoChart2001Out@@8
rdata$r	SEGMENT
??_R3CNeoChart2001Out@@8 DD 00H				; CNeoChart2001Out::`RTTI Class Hierarchy Descriptor'
	DD	00H
	DD	02H
	DD	FLAT:??_R2CNeoChart2001Out@@8
rdata$r	ENDS
;	COMDAT ??_R0?AVCNeoChart2001Out@@@8
data$rs	SEGMENT
??_R0?AVCNeoChart2001Out@@@8 DD FLAT:??_7type_info@@6B@	; CNeoChart2001Out `RTTI Type Descriptor'
	DD	00H
	DB	'.?AVCNeoChart2001Out@@', 00H
data$rs	ENDS
;	COMDAT ??_R4CNeoChart2001Out@@6B@
rdata$r	SEGMENT
??_R4CNeoChart2001Out@@6B@ DD 00H			; CNeoChart2001Out::`RTTI Complete Object Locator'
	DD	00H
	DD	00H
	DD	FLAT:??_R0?AVCNeoChart2001Out@@@8
	DD	FLAT:??_R3CNeoChart2001Out@@8
rdata$r	ENDS
;	COMDAT ??_R1A@?0A@EA@CNeoChart2001In@@8
rdata$r	SEGMENT
??_R1A@?0A@EA@CNeoChart2001In@@8 DD FLAT:??_R0?AVCNeoChart2001In@@@8 ; CNeoChart2001In::`RTTI Base Class Descriptor at (0,-1,0,64)'
	DD	01H
	DD	00H
	DD	0ffffffffH
	DD	00H
	DD	040H
	DD	FLAT:??_R3CNeoChart2001In@@8
rdata$r	ENDS
;	COMDAT ??_R2CNeoChart2001In@@8
rdata$r	SEGMENT
??_R2CNeoChart2001In@@8 DD FLAT:??_R1A@?0A@EA@CNeoChart2001In@@8 ; CNeoChart2001In::`RTTI Base Class Array'
	DD	FLAT:??_R1A@?0A@EA@CBaseCtrlPackIn@@8
rdata$r	ENDS
;	COMDAT ??_R3CNeoChart2001In@@8
rdata$r	SEGMENT
??_R3CNeoChart2001In@@8 DD 00H				; CNeoChart2001In::`RTTI Class Hierarchy Descriptor'
	DD	00H
	DD	02H
	DD	FLAT:??_R2CNeoChart2001In@@8
rdata$r	ENDS
;	COMDAT ??_R0?AVCNeoChart2001In@@@8
data$rs	SEGMENT
??_R0?AVCNeoChart2001In@@@8 DD FLAT:??_7type_info@@6B@	; CNeoChart2001In `RTTI Type Descriptor'
	DD	00H
	DB	'.?AVCNeoChart2001In@@', 00H
data$rs	ENDS
;	COMDAT ??_R4CNeoChart2001In@@6B@
rdata$r	SEGMENT
??_R4CNeoChart2001In@@6B@ DD 00H			; CNeoChart2001In::`RTTI Complete Object Locator'
	DD	00H
	DD	00H
	DD	FLAT:??_R0?AVCNeoChart2001In@@@8
	DD	FLAT:??_R3CNeoChart2001In@@8
rdata$r	ENDS
;	COMDAT ??_R1A@?0A@EA@CBaseCtrlPackOut@@8
rdata$r	SEGMENT
??_R1A@?0A@EA@CBaseCtrlPackOut@@8 DD FLAT:??_R0?AVCBaseCtrlPackOut@@@8 ; CBaseCtrlPackOut::`RTTI Base Class Descriptor at (0,-1,0,64)'
	DD	00H
	DD	00H
	DD	0ffffffffH
	DD	00H
	DD	040H
	DD	FLAT:??_R3CBaseCtrlPackOut@@8
rdata$r	ENDS
;	COMDAT ??_R2CBaseCtrlPackOut@@8
rdata$r	SEGMENT
??_R2CBaseCtrlPackOut@@8 DD FLAT:??_R1A@?0A@EA@CBaseCtrlPackOut@@8 ; CBaseCtrlPackOut::`RTTI Base Class Array'
rdata$r	ENDS
;	COMDAT ??_R3CBaseCtrlPackOut@@8
rdata$r	SEGMENT
??_R3CBaseCtrlPackOut@@8 DD 00H				; CBaseCtrlPackOut::`RTTI Class Hierarchy Descriptor'
	DD	00H
	DD	01H
	DD	FLAT:??_R2CBaseCtrlPackOut@@8
rdata$r	ENDS
;	COMDAT ??_R0?AVCBaseCtrlPackOut@@@8
data$rs	SEGMENT
??_R0?AVCBaseCtrlPackOut@@@8 DD FLAT:??_7type_info@@6B@	; CBaseCtrlPackOut `RTTI Type Descriptor'
	DD	00H
	DB	'.?AVCBaseCtrlPackOut@@', 00H
data$rs	ENDS
;	COMDAT ??_R4CBaseCtrlPackOut@@6B@
rdata$r	SEGMENT
??_R4CBaseCtrlPackOut@@6B@ DD 00H			; CBaseCtrlPackOut::`RTTI Complete Object Locator'
	DD	00H
	DD	00H
	DD	FLAT:??_R0?AVCBaseCtrlPackOut@@@8
	DD	FLAT:??_R3CBaseCtrlPackOut@@8
rdata$r	ENDS
;	COMDAT ??_R1A@?0A@EA@CBaseCtrlPackIn@@8
rdata$r	SEGMENT
??_R1A@?0A@EA@CBaseCtrlPackIn@@8 DD FLAT:??_R0?AVCBaseCtrlPackIn@@@8 ; CBaseCtrlPackIn::`RTTI Base Class Descriptor at (0,-1,0,64)'
	DD	00H
	DD	00H
	DD	0ffffffffH
	DD	00H
	DD	040H
	DD	FLAT:??_R3CBaseCtrlPackIn@@8
rdata$r	ENDS
;	COMDAT ??_R2CBaseCtrlPackIn@@8
rdata$r	SEGMENT
??_R2CBaseCtrlPackIn@@8 DD FLAT:??_R1A@?0A@EA@CBaseCtrlPackIn@@8 ; CBaseCtrlPackIn::`RTTI Base Class Array'
rdata$r	ENDS
;	COMDAT ??_R3CBaseCtrlPackIn@@8
rdata$r	SEGMENT
??_R3CBaseCtrlPackIn@@8 DD 00H				; CBaseCtrlPackIn::`RTTI Class Hierarchy Descriptor'
	DD	00H
	DD	01H
	DD	FLAT:??_R2CBaseCtrlPackIn@@8
rdata$r	ENDS
;	COMDAT ??_R0?AVCBaseCtrlPackIn@@@8
data$rs	SEGMENT
??_R0?AVCBaseCtrlPackIn@@@8 DD FLAT:??_7type_info@@6B@	; CBaseCtrlPackIn `RTTI Type Descriptor'
	DD	00H
	DB	'.?AVCBaseCtrlPackIn@@', 00H
data$rs	ENDS
;	COMDAT ??_R4CBaseCtrlPackIn@@6B@
rdata$r	SEGMENT
??_R4CBaseCtrlPackIn@@6B@ DD 00H			; CBaseCtrlPackIn::`RTTI Complete Object Locator'
	DD	00H
	DD	00H
	DD	FLAT:??_R0?AVCBaseCtrlPackIn@@@8
	DD	FLAT:??_R3CBaseCtrlPackIn@@8
rdata$r	ENDS
;	COMDAT ??_C@_0BN@PIOCHIJD@CNeoChart2001Out?3?3SetData2?$CI?$CJ@
CONST	SEGMENT
??_C@_0BN@PIOCHIJD@CNeoChart2001Out?3?3SetData2?$CI?$CJ@ DB 'CNeoChart200'
	DB	'1Out::SetData2()', 00H			; `string'
CONST	ENDS
;	COMDAT ??_C@_0O@BPAIOFGL@ChartSpeedLog@
CONST	SEGMENT
??_C@_0O@BPAIOFGL@ChartSpeedLog@ DB 'ChartSpeedLog', 00H ; `string'
CONST	ENDS
;	COMDAT ??_C@_0ED@JPABPGCN@Start?5Time?5?3?5?$CF02d?3?$CF02d?3?$CF02d?4?$CF03@
CONST	SEGMENT
??_C@_0ED@JPABPGCN@Start?5Time?5?3?5?$CF02d?3?$CF02d?3?$CF02d?4?$CF03@ DB 'S'
	DB	'tart Time : %02d:%02d:%02d.%03d', 0dH, 0aH, 'End Time : %02d:'
	DB	'%02d:%02d.%03d', 0dH, 0aH, 00H		; `string'
CONST	ENDS
;	COMDAT ??_C@_0BF@GOEHBEJD@?$CF02d?3?$CF02d?3?$CF02d?3?$CF03d?7@
CONST	SEGMENT
??_C@_0BF@GOEHBEJD@?$CF02d?3?$CF02d?3?$CF02d?3?$CF03d?7@ DB '%02d:%02d:%0'
	DB	'2d:%03d', 09H, 00H				; `string'
CONST	ENDS
;	COMDAT ??_C@_0BN@HKLPFIKN@?$AN?6?$AN?6?$AN?6?$FL?$CF02d?3?$CF02d?3?$CF02d?3?$CF03d?5?5@
CONST	SEGMENT
??_C@_0BN@HKLPFIKN@?$AN?6?$AN?6?$AN?6?$FL?$CF02d?3?$CF02d?3?$CF02d?3?$CF03d?5?5@ DB 0dH
	DB	0aH, 0dH, 0aH, 0dH, 0aH, '[%02d:%02d:%02d:%03d  ', 00H ; `string'
CONST	ENDS
;	COMDAT ??_C@_03BFOLIMEF@?$FN?$AN?6@
CONST	SEGMENT
??_C@_03BFOLIMEF@?$FN?$AN?6@ DB ']', 0dH, 0aH, 00H	; `string'
CONST	ENDS
;	COMDAT ??_C@_0BH@KLLDLFAP@?$CFs?2?$CFs_?$CF04d?$CF02d?$CF02d?4log@
CONST	SEGMENT
??_C@_0BH@KLLDLFAP@?$CFs?2?$CFs_?$CF04d?$CF02d?$CF02d?4log@ DB '%s\%s_%04'
	DB	'd%02d%02d.log', 00H				; `string'
CONST	ENDS
;	COMDAT ??_C@_0CJ@GKAGEPNM@?$CFs?2?$CFs_?$CF04d?$CF02d?$CF02d_?$CF02d?$CF02d?$CF02d@
CONST	SEGMENT
??_C@_0CJ@GKAGEPNM@?$CFs?2?$CFs_?$CF04d?$CF02d?$CF02d_?$CF02d?$CF02d?$CF02d@ DB '%'
	DB	's\%s_%04d%02d%02d_%02d%02d%02d_%03d.log', 00H ; `string'
CONST	ENDS
;	COMDAT ??_C@_05GDFJMIEM@MDump@
CONST	SEGMENT
??_C@_05GDFJMIEM@MDump@ DB 'MDump', 00H			; `string'
CONST	ENDS
;	COMDAT ??_C@_07PNFMHCIF@C?3?2Logs@
CONST	SEGMENT
??_C@_07PNFMHCIF@C?3?2Logs@ DB 'C:\Logs', 00H		; `string'
CONST	ENDS
;	COMDAT ??_7CDumpLogger@@6B@
CONST	SEGMENT
??_7CDumpLogger@@6B@ DD FLAT:??_R4CDumpLogger@@6B@	; CDumpLogger::`vftable'
	DD	FLAT:?GetRuntimeClass@CObject@@UBEPAUCRuntimeClass@@XZ
	DD	FLAT:??_ECDumpLogger@@UAEPAXI@Z
	DD	FLAT:?Serialize@CObject@@UAEXAAVCArchive@@@Z
	DD	FLAT:?AssertValid@CObject@@UBEXXZ
	DD	FLAT:?Dump@CObject@@UBEXAAVCDumpContext@@@Z
CONST	ENDS
;	COMDAT ??_C@_0BA@ENJOCHIO@LoadResourceDLL@
CONST	SEGMENT
??_C@_0BA@ENJOCHIO@LoadResourceDLL@ DB 'LoadResourceDLL', 00H ; `string'
CONST	ENDS
;	COMDAT ??_7CNeoChart2001Out@@6B@
CONST	SEGMENT
??_7CNeoChart2001Out@@6B@ DD FLAT:??_R4CNeoChart2001Out@@6B@ ; CNeoChart2001Out::`vftable'
	DD	FLAT:?GetPackDataSize@CNeoChart2001Out@@UAEHPAD@Z
	DD	FLAT:?SetData@CNeoChart2001Out@@UAEHPADH@Z
	DD	FLAT:?SetData2@CNeoChart2001Out@@UAEHPADH@Z
	DD	FLAT:?SetData3@CBaseCtrlPackOut@@UAEHPADH@Z
	DD	FLAT:?SetData999@CBaseCtrlPackOut@@UAEHHPADH@Z
	DD	FLAT:??_ECNeoChart2001Out@@UAEPAXI@Z
CONST	ENDS
;	COMDAT ??_7CNeoChart2001In@@6B@
CONST	SEGMENT
??_7CNeoChart2001In@@6B@ DD FLAT:??_R4CNeoChart2001In@@6B@ ; CNeoChart2001In::`vftable'
	DD	FLAT:?GetData@CNeoChart2001In@@UAEHPADH@Z
	DD	FLAT:??_ECNeoChart2001In@@UAEPAXI@Z
CONST	ENDS
;	COMDAT ??_7CBaseCtrlPackOut@@6B@
CONST	SEGMENT
??_7CBaseCtrlPackOut@@6B@ DD FLAT:??_R4CBaseCtrlPackOut@@6B@ ; CBaseCtrlPackOut::`vftable'
	DD	FLAT:?GetPackDataSize@CBaseCtrlPackOut@@UAEHPAD@Z
	DD	FLAT:?SetData@CBaseCtrlPackOut@@UAEHPADH@Z
	DD	FLAT:?SetData2@CBaseCtrlPackOut@@UAEHPADH@Z
	DD	FLAT:?SetData3@CBaseCtrlPackOut@@UAEHPADH@Z
	DD	FLAT:?SetData999@CBaseCtrlPackOut@@UAEHHPADH@Z
CONST	ENDS
;	COMDAT ??_7CBaseCtrlPackIn@@6B@
CONST	SEGMENT
??_7CBaseCtrlPackIn@@6B@ DD FLAT:??_R4CBaseCtrlPackIn@@6B@ ; CBaseCtrlPackIn::`vftable'
	DD	FLAT:?GetData@CBaseCtrlPackIn@@UAEHPADH@Z
CONST	ENDS
;	COMDAT ??_R1A@?0A@EA@CObject@@8
rdata$r	SEGMENT
??_R1A@?0A@EA@CObject@@8 DD FLAT:??_R0?AVCObject@@@8	; CObject::`RTTI Base Class Descriptor at (0,-1,0,64)'
	DD	00H
	DD	00H
	DD	0ffffffffH
	DD	00H
	DD	040H
	DD	FLAT:??_R3CObject@@8
rdata$r	ENDS
;	COMDAT ??_R2CObject@@8
rdata$r	SEGMENT
??_R2CObject@@8 DD FLAT:??_R1A@?0A@EA@CObject@@8	; CObject::`RTTI Base Class Array'
rdata$r	ENDS
;	COMDAT ??_R3CObject@@8
rdata$r	SEGMENT
??_R3CObject@@8 DD 00H					; CObject::`RTTI Class Hierarchy Descriptor'
	DD	00H
	DD	01H
	DD	FLAT:??_R2CObject@@8
rdata$r	ENDS
;	COMDAT ??_R0?AVCObject@@@8
data$rs	SEGMENT
??_R0?AVCObject@@@8 DD FLAT:??_7type_info@@6B@		; CObject `RTTI Type Descriptor'
	DD	00H
	DB	'.?AVCObject@@', 00H
data$rs	ENDS
;	COMDAT xdata$x
xdata$x	SEGMENT
__unwindtable$?LogStringToFile@CDumpLogger@@SAXPBD0H00@Z DD 0ffffffffH
	DD	FLAT:__unwindfunclet$?LogStringToFile@CDumpLogger@@SAXPBD0H00@Z$1
	DD	0ffffffffH
	DD	FLAT:__unwindfunclet$?LogStringToFile@CDumpLogger@@SAXPBD0H00@Z$0
__ehfuncinfo$?LogStringToFile@CDumpLogger@@SAXPBD0H00@Z DD 019930522H
	DD	02H
	DD	FLAT:__unwindtable$?LogStringToFile@CDumpLogger@@SAXPBD0H00@Z
	DD	2 DUP(00H)
	DD	2 DUP(00H)
	DD	00H
	DD	01H
xdata$x	ENDS
;	COMDAT xdata$x
xdata$x	SEGMENT
__ehfuncinfo$?WriteToStringLog@CDumpLogger@@QAEXPBD0H@Z DD 019930522H
	DD	05H
	DD	FLAT:__unwindtable$?WriteToStringLog@CDumpLogger@@QAEXPBD0H@Z
	DD	2 DUP(00H)
	DD	2 DUP(00H)
	DD	00H
	DD	01H
__unwindtable$?WriteToStringLog@CDumpLogger@@QAEXPBD0H@Z DD 0ffffffffH
	DD	FLAT:__unwindfunclet$?WriteToStringLog@CDumpLogger@@QAEXPBD0H@Z$0
	DD	00H
	DD	FLAT:__unwindfunclet$?WriteToStringLog@CDumpLogger@@QAEXPBD0H@Z$1
	DD	01H
	DD	FLAT:__unwindfunclet$?WriteToStringLog@CDumpLogger@@QAEXPBD0H@Z$5
	DD	02H
	DD	FLAT:__unwindfunclet$?WriteToStringLog@CDumpLogger@@QAEXPBD0H@Z$6
	DD	00H
	DD	FLAT:__unwindfunclet$?WriteToStringLog@CDumpLogger@@QAEXPBD0H@Z$4
xdata$x	ENDS
;	COMDAT xdata$x
xdata$x	SEGMENT
__unwindtable$??0CDumpLogger@@QAE@PBDH0@Z DD 0ffffffffH
	DD	FLAT:__unwindfunclet$??0CDumpLogger@@QAE@PBDH0@Z$0
__ehfuncinfo$??0CDumpLogger@@QAE@PBDH0@Z DD 019930522H
	DD	01H
	DD	FLAT:__unwindtable$??0CDumpLogger@@QAE@PBDH0@Z
	DD	2 DUP(00H)
	DD	2 DUP(00H)
	DD	00H
	DD	01H
xdata$x	ENDS
;	COMDAT xdata$x
xdata$x	SEGMENT
__ehfuncinfo$??1CMultiLanguageResourceSetter@@QAE@XZ DD 019930522H
	DD	00H
	DD	00H
	DD	2 DUP(00H)
	DD	2 DUP(00H)
	DD	00H
	DD	05H
xdata$x	ENDS
;	COMDAT xdata$x
xdata$x	SEGMENT
__unwindtable$?GetPackDataSize@CNeoChart2001Out@@UAEHPAD@Z DD 0ffffffffH
	DD	FLAT:__unwindfunclet$?GetPackDataSize@CNeoChart2001Out@@UAEHPAD@Z$0
	DD	00H
	DD	FLAT:__unwindfunclet$?GetPackDataSize@CNeoChart2001Out@@UAEHPAD@Z$1
	DD	0ffffffffH
	DD	FLAT:___std_terminate
__ehfuncinfo$?GetPackDataSize@CNeoChart2001Out@@UAEHPAD@Z DD 019930522H
	DD	03H
	DD	FLAT:__unwindtable$?GetPackDataSize@CNeoChart2001Out@@UAEHPAD@Z
	DD	2 DUP(00H)
	DD	2 DUP(00H)
	DD	00H
	DD	01H
xdata$x	ENDS
;	COMDAT xdata$x
xdata$x	SEGMENT
__unwindtable$?SetData2@CNeoChart2001Out@@UAEHPADH@Z DD 0ffffffffH
	DD	FLAT:__unwindfunclet$?SetData2@CNeoChart2001Out@@UAEHPADH@Z$0
	DD	00H
	DD	FLAT:__unwindfunclet$?SetData2@CNeoChart2001Out@@UAEHPADH@Z$2
	DD	00H
	DD	FLAT:__unwindfunclet$?SetData2@CNeoChart2001Out@@UAEHPADH@Z$1
__ehfuncinfo$?SetData2@CNeoChart2001Out@@UAEHPADH@Z DD 019930522H
	DD	03H
	DD	FLAT:__unwindtable$?SetData2@CNeoChart2001Out@@UAEHPADH@Z
	DD	2 DUP(00H)
	DD	2 DUP(00H)
	DD	00H
	DD	01H
xdata$x	ENDS
;	COMDAT xdata$x
xdata$x	SEGMENT
__unwindtable$??HATL@@YA?AV?$CStringT@DV?$StrTraitMFC_DLL@DV?$ChTraitsCRT@D@ATL@@@@@0@ABV10@PBD@Z DD 0ffffffffH
	DD	FLAT:__unwindfunclet$??HATL@@YA?AV?$CStringT@DV?$StrTraitMFC_DLL@DV?$ChTraitsCRT@D@ATL@@@@@0@ABV10@PBD@Z$0
__ehfuncinfo$??HATL@@YA?AV?$CStringT@DV?$StrTraitMFC_DLL@DV?$ChTraitsCRT@D@ATL@@@@@0@ABV10@PBD@Z DD 019930522H
	DD	01H
	DD	FLAT:__unwindtable$??HATL@@YA?AV?$CStringT@DV?$StrTraitMFC_DLL@DV?$ChTraitsCRT@D@ATL@@@@@0@ABV10@PBD@Z
	DD	2 DUP(00H)
	DD	2 DUP(00H)
	DD	00H
	DD	01H
xdata$x	ENDS
; Function compile flags: /Ogtp
; File D:\git\src\IBK\IBK_DRFN\ProjSrc\SrcChartEx\ChartOCX\Include\DumpLogger.h
; File C:\Program Files (x86)\Microsoft Visual Studio\2019\Community\VC\Tools\MSVC\14.29.30133\atlmfc\include\afx.inl
;	COMDAT ??_GCDumpLogger@@UAEPAXI@Z
_TEXT	SEGMENT
___flags$ = 8						; size = 4
??_GCDumpLogger@@UAEPAXI@Z PROC				; CDumpLogger::`scalar deleting destructor', COMDAT
; _this$ = ecx
  00000	55		 push	 ebp
  00001	8b ec		 mov	 ebp, esp
; File D:\git\src\IBK\IBK_DRFN\ProjSrc\SrcChartEx\ChartOCX\Include\DumpLogger.h

; 55   : 	{

  00003	56		 push	 esi
  00004	8b f1		 mov	 esi, ecx

; 56   : 		// 6. Dump File을 닫는다.
; 57   : 		if( m_hLogFile != HFILE_ERROR) _lclose( m_hLogFile);

  00006	8b 46 04	 mov	 eax, DWORD PTR [esi+4]
  00009	c7 06 00 00 00
	00		 mov	 DWORD PTR [esi], OFFSET ??_7CDumpLogger@@6B@
  0000f	83 f8 ff	 cmp	 eax, -1
  00012	74 07		 je	 SHORT $LN8@scalar
  00014	50		 push	 eax
  00015	ff 15 00 00 00
	00		 call	 DWORD PTR __imp___lclose@4
$LN8@scalar:
  0001b	8b 45 08	 mov	 eax, DWORD PTR ___flags$[ebp]
  0001e	a8 01		 test	 al, 1
  00020	74 1f		 je	 SHORT $LN13@scalar
  00022	a8 04		 test	 al, 4
  00024	75 10		 jne	 SHORT $LN3@scalar
; File C:\Program Files (x86)\Microsoft Visual Studio\2019\Community\VC\Tools\MSVC\14.29.30133\atlmfc\include\afx.inl

; 112  : 	{ ::operator delete(p); }

  00026	56		 push	 esi
  00027	e8 00 00 00 00	 call	 ??3@YAXPAX@Z		; operator delete
  0002c	83 c4 04	 add	 esp, 4
  0002f	8b c6		 mov	 eax, esi
  00031	5e		 pop	 esi
  00032	5d		 pop	 ebp
  00033	c2 04 00	 ret	 4
$LN3@scalar:
  00036	6a 08		 push	 8
  00038	56		 push	 esi
  00039	e8 00 00 00 00	 call	 ?__global_delete@@YAXPAXI@Z ; __global_delete
  0003e	83 c4 08	 add	 esp, 8
$LN13@scalar:
  00041	8b c6		 mov	 eax, esi
  00043	5e		 pop	 esi
  00044	5d		 pop	 ebp
  00045	c2 04 00	 ret	 4
??_GCDumpLogger@@UAEPAXI@Z ENDP				; CDumpLogger::`scalar deleting destructor'
_TEXT	ENDS
; Function compile flags: /Ogtp
; File D:\git\src\IBK\IBK_DRFN\ProjSrc\SrcChartEx\ChartOCX\Include\DumpLogger.h
; File C:\Program Files (x86)\Microsoft Visual Studio\2019\Community\VC\Tools\MSVC\14.29.30133\atlmfc\include\cstringt.h
; File D:\git\src\IBK\IBK_DRFN\ProjSrc\SrcChartEx\ChartOCX\Include\DumpLogger.h
; File C:\Program Files (x86)\Microsoft Visual Studio\2019\Community\VC\Tools\MSVC\14.29.30133\atlmfc\include\cstringt.h
; File C:\Program Files (x86)\Microsoft Visual Studio\2019\Community\VC\Tools\MSVC\14.29.30133\atlmfc\include\atlsimpstr.h
; File C:\Program Files (x86)\Microsoft Visual Studio\2019\Community\VC\Tools\MSVC\14.29.30133\atlmfc\include\cstringt.h
; File C:\Program Files (x86)\Microsoft Visual Studio\2019\Community\VC\Tools\MSVC\14.29.30133\atlmfc\include\atlsimpstr.h
; File C:\Program Files (x86)\Microsoft Visual Studio\2019\Community\VC\Tools\MSVC\14.29.30133\atlmfc\include\cstringt.h
; File D:\git\src\IBK\IBK_DRFN\ProjSrc\SrcChartEx\ChartOCX\Include\DumpLogger.h
; File C:\Program Files (x86)\Microsoft Visual Studio\2019\Community\VC\Tools\MSVC\14.29.30133\atlmfc\include\cstringt.h
; File D:\git\src\IBK\IBK_DRFN\ProjSrc\SrcChartEx\ChartOCX\Include\DumpLogger.h
;	COMDAT ?WriteToStringLog@CDumpLogger@@QAEXPBD0H@Z
_TEXT	SEGMENT
$T2 = -52						; size = 4
_strBuffer$ = -48					; size = 4
_strCurTime$3 = -44					; size = 4
$T4 = -40						; size = 4
_strCurTime$5 = -36					; size = 4
$T6 = -36						; size = 4
_sTime$ = -32						; size = 16
__$ArrayPad$ = -16					; size = 4
__$EHRec$ = -12						; size = 12
_p_szSection$ = 8					; size = 4
_p_szData$ = 12						; size = 4
_p_nDataLen$ = 16					; size = 4
?WriteToStringLog@CDumpLogger@@QAEXPBD0H@Z PROC		; CDumpLogger::WriteToStringLog, COMDAT
; _this$ = ecx

; 148  : 	{

  00000	55		 push	 ebp
  00001	8b ec		 mov	 ebp, esp
  00003	6a ff		 push	 -1
  00005	68 00 00 00 00	 push	 __ehhandler$?WriteToStringLog@CDumpLogger@@QAEXPBD0H@Z
  0000a	64 a1 00 00 00
	00		 mov	 eax, DWORD PTR fs:0
  00010	50		 push	 eax
  00011	83 ec 28	 sub	 esp, 40			; 00000028H
  00014	a1 00 00 00 00	 mov	 eax, DWORD PTR ___security_cookie
  00019	33 c5		 xor	 eax, ebp
  0001b	89 45 f0	 mov	 DWORD PTR __$ArrayPad$[ebp], eax
  0001e	53		 push	 ebx
  0001f	56		 push	 esi
  00020	57		 push	 edi
  00021	50		 push	 eax
  00022	8d 45 f4	 lea	 eax, DWORD PTR __$EHRec$[ebp]
  00025	64 a3 00 00 00
	00		 mov	 DWORD PTR fs:0, eax
  0002b	8b f9		 mov	 edi, ecx
  0002d	8b 75 08	 mov	 esi, DWORD PTR _p_szSection$[ebp]
  00030	8b 5d 0c	 mov	 ebx, DWORD PTR _p_szData$[ebp]
  00033	c7 45 cc 00 00
	00 00		 mov	 DWORD PTR $T2[ebp], 0

; 149  : 		if( m_hLogFile == HFILE_ERROR) return;

  0003a	83 7f 04 ff	 cmp	 DWORD PTR [edi+4], -1
  0003e	0f 84 6f 01 00
	00		 je	 $LN1@WriteToStr

; 150  : 
; 151  : 		// 1. 먼저 Logging하는 시각을 확인한다.
; 152  : 		SYSTEMTIME sTime;
; 153  : 		GetLocalTime(&sTime);

  00044	8d 45 e0	 lea	 eax, DWORD PTR _sTime$[ebp]
  00047	50		 push	 eax
  00048	ff 15 00 00 00
	00		 call	 DWORD PTR __imp__GetLocalTime@4

; 154  : 
; 155  : 		// 4. 주어진 Section Value을 확인하여 Section String을 구성한다.
; 156  : 		CString strBuffer;

  0004e	8d 4d d0	 lea	 ecx, DWORD PTR _strBuffer$[ebp]
  00051	ff 15 00 00 00
	00		 call	 DWORD PTR __imp_??0?$CStringT@DV?$StrTraitMFC_DLL@DV?$ChTraitsCRT@D@ATL@@@@@ATL@@QAE@XZ
  00057	c7 45 fc 00 00
	00 00		 mov	 DWORD PTR __$EHRec$[ebp+8], 0

; 157  : 		if( p_szSection && *p_szSection != '\0')

  0005e	85 f6		 test	 esi, esi
  00060	0f 84 ed 00 00
	00		 je	 $LN3@WriteToStr
  00066	80 3e 00	 cmp	 BYTE PTR [esi], 0
  00069	0f 84 e4 00 00
	00		 je	 $LN3@WriteToStr

; 158  : 		{
; 159  : 			CString strCurTime;

  0006f	8d 4d d4	 lea	 ecx, DWORD PTR _strCurTime$3[ebp]
  00072	ff 15 00 00 00
	00		 call	 DWORD PTR __imp_??0?$CStringT@DV?$StrTraitMFC_DLL@DV?$ChTraitsCRT@D@ATL@@@@@ATL@@QAE@XZ

; 160  : 			// (2005/9/1 - Seung-Won, Bae) Line Skip for Only Section.
; 161  : 			strCurTime.Format("\r\n\r\n\r\n[%02d:%02d:%02d:%03d  ", sTime.wHour, sTime.wMinute, sTime.wSecond, 

  00078	0f b7 45 ee	 movzx	 eax, WORD PTR _sTime$[ebp+14]
  0007c	50		 push	 eax
  0007d	0f b7 45 ec	 movzx	 eax, WORD PTR _sTime$[ebp+12]
  00081	50		 push	 eax
  00082	0f b7 45 ea	 movzx	 eax, WORD PTR _sTime$[ebp+10]
  00086	50		 push	 eax
  00087	0f b7 45 e8	 movzx	 eax, WORD PTR _sTime$[ebp+8]
  0008b	50		 push	 eax
  0008c	8d 45 d4	 lea	 eax, DWORD PTR _strCurTime$3[ebp]
  0008f	c6 45 fc 01	 mov	 BYTE PTR __$EHRec$[ebp+8], 1
  00093	68 00 00 00 00	 push	 OFFSET ??_C@_0BN@HKLPFIKN@?$AN?6?$AN?6?$AN?6?$FL?$CF02d?3?$CF02d?3?$CF02d?3?$CF03d?5?5@
  00098	50		 push	 eax
  00099	ff 15 00 00 00
	00		 call	 DWORD PTR __imp_?Format@?$CStringT@DV?$StrTraitMFC_DLL@DV?$ChTraitsCRT@D@ATL@@@@@ATL@@QAAXPBDZZ
  0009f	83 c4 18	 add	 esp, 24			; 00000018H
; File C:\Program Files (x86)\Microsoft Visual Studio\2019\Community\VC\Tools\MSVC\14.29.30133\atlmfc\include\cstringt.h

; 2401 : 		CStringT strResult( str1.GetManager() );

  000a2	8d 4d d4	 lea	 ecx, DWORD PTR _strCurTime$3[ebp]
; File D:\git\src\IBK\IBK_DRFN\ProjSrc\SrcChartEx\ChartOCX\Include\DumpLogger.h

; 163  : 			strBuffer = strCurTime + p_szSection + "]\r\n";

  000a5	c6 45 fc 02	 mov	 BYTE PTR __$EHRec$[ebp+8], 2
; File C:\Program Files (x86)\Microsoft Visual Studio\2019\Community\VC\Tools\MSVC\14.29.30133\atlmfc\include\cstringt.h

; 2401 : 		CStringT strResult( str1.GetManager() );

  000a9	ff 15 00 00 00
	00		 call	 DWORD PTR __imp_?GetManager@?$CStringT@DV?$StrTraitMFC_DLL@DV?$ChTraitsCRT@D@ATL@@@@@ATL@@QBEPAUIAtlStringMgr@2@XZ
  000af	50		 push	 eax
  000b0	8d 4d d8	 lea	 ecx, DWORD PTR $T4[ebp]
  000b3	ff 15 00 00 00
	00		 call	 DWORD PTR __imp_??0?$CStringT@DV?$StrTraitMFC_DLL@DV?$ChTraitsCRT@D@ATL@@@@@ATL@@QAE@PAUIAtlStringMgr@1@@Z
; File C:\Program Files (x86)\Microsoft Visual Studio\2019\Community\VC\Tools\MSVC\14.29.30133\atlmfc\include\atlsimpstr.h

; 726  : 		return( int( strlen( psz ) ) );

  000b9	8b ce		 mov	 ecx, esi
; File C:\Program Files (x86)\Microsoft Visual Studio\2019\Community\VC\Tools\MSVC\14.29.30133\atlmfc\include\cstringt.h

; 2405 : 		return( strResult );

  000bb	c7 45 cc 01 00
	00 00		 mov	 DWORD PTR $T2[ebp], 1
; File C:\Program Files (x86)\Microsoft Visual Studio\2019\Community\VC\Tools\MSVC\14.29.30133\atlmfc\include\atlsimpstr.h

; 726  : 		return( int( strlen( psz ) ) );

  000c2	8d 51 01	 lea	 edx, DWORD PTR [ecx+1]
$LL49@WriteToStr:
  000c5	8a 01		 mov	 al, BYTE PTR [ecx]
  000c7	41		 inc	 ecx
  000c8	84 c0		 test	 al, al
  000ca	75 f9		 jne	 SHORT $LL49@WriteToStr

; 519  : 		return( GetData()->nDataLength );

  000cc	8b 45 d4	 mov	 eax, DWORD PTR _strCurTime$3[ebp]

; 726  : 		return( int( strlen( psz ) ) );

  000cf	2b ca		 sub	 ecx, edx
; File C:\Program Files (x86)\Microsoft Visual Studio\2019\Community\VC\Tools\MSVC\14.29.30133\atlmfc\include\cstringt.h

; 2403 : 		CThisSimpleString::Concatenate( strResult, str1, str1.GetLength(), psz2, CThisSimpleString::StringLength( psz2 ) );

  000d1	51		 push	 ecx
  000d2	56		 push	 esi
  000d3	ff 70 f4	 push	 DWORD PTR [eax-12]
  000d6	50		 push	 eax
  000d7	8d 45 d8	 lea	 eax, DWORD PTR $T4[ebp]
  000da	50		 push	 eax
  000db	ff 15 00 00 00
	00		 call	 DWORD PTR __imp_?Concatenate@?$CSimpleStringT@D$00@ATL@@KAXAAV12@PBDH1H@Z
  000e1	83 c4 14	 add	 esp, 20			; 00000014H

; 2401 : 		CStringT strResult( str1.GetManager() );

  000e4	8d 4d d8	 lea	 ecx, DWORD PTR $T4[ebp]
; File D:\git\src\IBK\IBK_DRFN\ProjSrc\SrcChartEx\ChartOCX\Include\DumpLogger.h

; 163  : 			strBuffer = strCurTime + p_szSection + "]\r\n";

  000e7	c6 45 fc 03	 mov	 BYTE PTR __$EHRec$[ebp+8], 3
; File C:\Program Files (x86)\Microsoft Visual Studio\2019\Community\VC\Tools\MSVC\14.29.30133\atlmfc\include\cstringt.h

; 2401 : 		CStringT strResult( str1.GetManager() );

  000eb	ff 15 00 00 00
	00		 call	 DWORD PTR __imp_?GetManager@?$CStringT@DV?$StrTraitMFC_DLL@DV?$ChTraitsCRT@D@ATL@@@@@ATL@@QBEPAUIAtlStringMgr@2@XZ
  000f1	50		 push	 eax
  000f2	8d 4d dc	 lea	 ecx, DWORD PTR $T6[ebp]
  000f5	ff 15 00 00 00
	00		 call	 DWORD PTR __imp_??0?$CStringT@DV?$StrTraitMFC_DLL@DV?$ChTraitsCRT@D@ATL@@@@@ATL@@QAE@PAUIAtlStringMgr@1@@Z

; 2403 : 		CThisSimpleString::Concatenate( strResult, str1, str1.GetLength(), psz2, CThisSimpleString::StringLength( psz2 ) );

  000fb	8b 45 d8	 mov	 eax, DWORD PTR $T4[ebp]
  000fe	6a 03		 push	 3
  00100	68 00 00 00 00	 push	 OFFSET ??_C@_03BFOLIMEF@?$FN?$AN?6@

; 2405 : 		return( strResult );

  00105	c7 45 cc 03 00
	00 00		 mov	 DWORD PTR $T2[ebp], 3
  0010c	ff 70 f4	 push	 DWORD PTR [eax-12]
  0010f	50		 push	 eax
  00110	8d 45 dc	 lea	 eax, DWORD PTR $T6[ebp]
  00113	50		 push	 eax
  00114	ff 15 00 00 00
	00		 call	 DWORD PTR __imp_?Concatenate@?$CSimpleStringT@D$00@ATL@@KAXAAV12@PBDH1H@Z
  0011a	83 c4 14	 add	 esp, 20			; 00000014H
; File D:\git\src\IBK\IBK_DRFN\ProjSrc\SrcChartEx\ChartOCX\Include\DumpLogger.h

; 163  : 			strBuffer = strCurTime + p_szSection + "]\r\n";

  0011d	8d 45 dc	 lea	 eax, DWORD PTR $T6[ebp]
  00120	8d 4d d0	 lea	 ecx, DWORD PTR _strBuffer$[ebp]
  00123	50		 push	 eax
  00124	ff 15 00 00 00
	00		 call	 DWORD PTR __imp_??4?$CStringT@DV?$StrTraitMFC_DLL@DV?$ChTraitsCRT@D@ATL@@@@@ATL@@QAEAAV01@ABV01@@Z
  0012a	8d 4d dc	 lea	 ecx, DWORD PTR $T6[ebp]
  0012d	ff 15 00 00 00
	00		 call	 DWORD PTR __imp_??1?$CStringT@DV?$StrTraitMFC_DLL@DV?$ChTraitsCRT@D@ATL@@@@@ATL@@QAE@XZ
  00133	8d 4d d8	 lea	 ecx, DWORD PTR $T4[ebp]
  00136	ff 15 00 00 00
	00		 call	 DWORD PTR __imp_??1?$CStringT@DV?$StrTraitMFC_DLL@DV?$ChTraitsCRT@D@ATL@@@@@ATL@@QAE@XZ

; 164  : 			_hwrite( m_hLogFile, ( LPCTSTR)strBuffer, strBuffer.GetLength());

  0013c	8b 45 d0	 mov	 eax, DWORD PTR _strBuffer$[ebp]
  0013f	8b 35 00 00 00
	00		 mov	 esi, DWORD PTR __imp___hwrite@12
  00145	ff 70 f4	 push	 DWORD PTR [eax-12]
  00148	50		 push	 eax
  00149	ff 77 04	 push	 DWORD PTR [edi+4]
  0014c	ff d6		 call	 esi

; 165  : 		}

  0014e	8d 4d d4	 lea	 ecx, DWORD PTR _strCurTime$3[ebp]
  00151	eb 48		 jmp	 SHORT $LN51@WriteToStr
$LN3@WriteToStr:

; 166  : 		// (2005/9/2 - Seung-Won, Bae) in No Section Log, Insert Time in front of Line
; 167  : 		else
; 168  : 		{
; 169  : 			CString strCurTime;

  00153	8d 4d dc	 lea	 ecx, DWORD PTR _strCurTime$5[ebp]
  00156	ff 15 00 00 00
	00		 call	 DWORD PTR __imp_??0?$CStringT@DV?$StrTraitMFC_DLL@DV?$ChTraitsCRT@D@ATL@@@@@ATL@@QAE@XZ

; 170  : 			strCurTime.Format("%02d:%02d:%02d:%03d\t", sTime.wHour, sTime.wMinute, sTime.wSecond, 

  0015c	0f b7 45 ee	 movzx	 eax, WORD PTR _sTime$[ebp+14]
  00160	50		 push	 eax
  00161	0f b7 45 ec	 movzx	 eax, WORD PTR _sTime$[ebp+12]
  00165	50		 push	 eax
  00166	0f b7 45 ea	 movzx	 eax, WORD PTR _sTime$[ebp+10]
  0016a	50		 push	 eax
  0016b	0f b7 45 e8	 movzx	 eax, WORD PTR _sTime$[ebp+8]
  0016f	50		 push	 eax
  00170	8d 45 dc	 lea	 eax, DWORD PTR _strCurTime$5[ebp]
  00173	c6 45 fc 04	 mov	 BYTE PTR __$EHRec$[ebp+8], 4
  00177	68 00 00 00 00	 push	 OFFSET ??_C@_0BF@GOEHBEJD@?$CF02d?3?$CF02d?3?$CF02d?3?$CF03d?7@
  0017c	50		 push	 eax
  0017d	ff 15 00 00 00
	00		 call	 DWORD PTR __imp_?Format@?$CStringT@DV?$StrTraitMFC_DLL@DV?$ChTraitsCRT@D@ATL@@@@@ATL@@QAAXPBDZZ

; 171  : 				sTime.wMilliseconds);
; 172  : 			_hwrite( m_hLogFile, strCurTime, strCurTime.GetLength());

  00183	8b 45 dc	 mov	 eax, DWORD PTR _strCurTime$5[ebp]
  00186	83 c4 18	 add	 esp, 24			; 00000018H
  00189	8b 35 00 00 00
	00		 mov	 esi, DWORD PTR __imp___hwrite@12
  0018f	ff 70 f4	 push	 DWORD PTR [eax-12]
  00192	50		 push	 eax
  00193	ff 77 04	 push	 DWORD PTR [edi+4]
  00196	ff d6		 call	 esi

; 173  : 		}

  00198	8d 4d dc	 lea	 ecx, DWORD PTR _strCurTime$5[ebp]
$LN51@WriteToStr:

; 174  : 
; 175  : 		// 5. Memory를 Dump한다.
; 176  : 		_hwrite( m_hLogFile, p_szData, p_nDataLen);

  0019b	ff 15 00 00 00
	00		 call	 DWORD PTR __imp_??1?$CStringT@DV?$StrTraitMFC_DLL@DV?$ChTraitsCRT@D@ATL@@@@@ATL@@QAE@XZ
  001a1	ff 75 10	 push	 DWORD PTR _p_nDataLen$[ebp]
  001a4	53		 push	 ebx
  001a5	ff 77 04	 push	 DWORD PTR [edi+4]
  001a8	ff d6		 call	 esi

; 177  : 	}

  001aa	8d 4d d0	 lea	 ecx, DWORD PTR _strBuffer$[ebp]
  001ad	ff 15 00 00 00
	00		 call	 DWORD PTR __imp_??1?$CStringT@DV?$StrTraitMFC_DLL@DV?$ChTraitsCRT@D@ATL@@@@@ATL@@QAE@XZ
$LN1@WriteToStr:
  001b3	8b 4d f4	 mov	 ecx, DWORD PTR __$EHRec$[ebp]
  001b6	64 89 0d 00 00
	00 00		 mov	 DWORD PTR fs:0, ecx
  001bd	59		 pop	 ecx
  001be	5f		 pop	 edi
  001bf	5e		 pop	 esi
  001c0	5b		 pop	 ebx
  001c1	8b 4d f0	 mov	 ecx, DWORD PTR __$ArrayPad$[ebp]
  001c4	33 cd		 xor	 ecx, ebp
  001c6	e8 00 00 00 00	 call	 @__security_check_cookie@4
  001cb	8b e5		 mov	 esp, ebp
  001cd	5d		 pop	 ebp
  001ce	c2 0c 00	 ret	 12			; 0000000cH
_TEXT	ENDS
;	COMDAT text$x
text$x	SEGMENT
__unwindfunclet$?WriteToStringLog@CDumpLogger@@QAEXPBD0H@Z$0:
  00000	8d 4d d0	 lea	 ecx, DWORD PTR _strBuffer$[ebp]
  00003	ff 25 00 00 00
	00		 jmp	 DWORD PTR __imp_??1?$CStringT@DV?$StrTraitMFC_DLL@DV?$ChTraitsCRT@D@ATL@@@@@ATL@@QAE@XZ
__unwindfunclet$?WriteToStringLog@CDumpLogger@@QAEXPBD0H@Z$1:
  00009	8d 4d d4	 lea	 ecx, DWORD PTR _strCurTime$3[ebp]
  0000c	ff 25 00 00 00
	00		 jmp	 DWORD PTR __imp_??1?$CStringT@DV?$StrTraitMFC_DLL@DV?$ChTraitsCRT@D@ATL@@@@@ATL@@QAE@XZ
__unwindfunclet$?WriteToStringLog@CDumpLogger@@QAEXPBD0H@Z$5:
  00012	8b 45 cc	 mov	 eax, DWORD PTR $T2[ebp]
  00015	83 e0 01	 and	 eax, 1
  00018	0f 84 0d 00 00
	00		 je	 $LN14@WriteToStr
  0001e	83 65 cc fe	 and	 DWORD PTR $T2[ebp], -2	; fffffffeH
  00022	8d 4d d8	 lea	 ecx, DWORD PTR $T4[ebp]
  00025	ff 25 00 00 00
	00		 jmp	 DWORD PTR __imp_??1?$CStringT@DV?$StrTraitMFC_DLL@DV?$ChTraitsCRT@D@ATL@@@@@ATL@@QAE@XZ
$LN14@WriteToStr:
  0002b	c3		 ret	 0
__unwindfunclet$?WriteToStringLog@CDumpLogger@@QAEXPBD0H@Z$6:
  0002c	8b 45 cc	 mov	 eax, DWORD PTR $T2[ebp]
  0002f	83 e0 02	 and	 eax, 2
  00032	0f 84 0d 00 00
	00		 je	 $LN27@WriteToStr
  00038	83 65 cc fd	 and	 DWORD PTR $T2[ebp], -3	; fffffffdH
  0003c	8d 4d dc	 lea	 ecx, DWORD PTR $T6[ebp]
  0003f	ff 25 00 00 00
	00		 jmp	 DWORD PTR __imp_??1?$CStringT@DV?$StrTraitMFC_DLL@DV?$ChTraitsCRT@D@ATL@@@@@ATL@@QAE@XZ
$LN27@WriteToStr:
  00045	c3		 ret	 0
__unwindfunclet$?WriteToStringLog@CDumpLogger@@QAEXPBD0H@Z$4:
  00046	8d 4d dc	 lea	 ecx, DWORD PTR _strCurTime$5[ebp]
  00049	ff 25 00 00 00
	00		 jmp	 DWORD PTR __imp_??1?$CStringT@DV?$StrTraitMFC_DLL@DV?$ChTraitsCRT@D@ATL@@@@@ATL@@QAE@XZ
  0004f	cc		 int	 3
  00050	cc		 int	 3
  00051	cc		 int	 3
  00052	cc		 int	 3
  00053	cc		 int	 3
__ehhandler$?WriteToStringLog@CDumpLogger@@QAEXPBD0H@Z:
  00054	90		 npad	 1
  00055	90		 npad	 1
  00056	8b 54 24 08	 mov	 edx, DWORD PTR [esp+8]
  0005a	8d 42 0c	 lea	 eax, DWORD PTR [edx+12]
  0005d	8b 4a c8	 mov	 ecx, DWORD PTR [edx-56]
  00060	33 c8		 xor	 ecx, eax
  00062	e8 00 00 00 00	 call	 @__security_check_cookie@4
  00067	8b 4a fc	 mov	 ecx, DWORD PTR [edx-4]
  0006a	33 c8		 xor	 ecx, eax
  0006c	e8 00 00 00 00	 call	 @__security_check_cookie@4
  00071	b8 00 00 00 00	 mov	 eax, OFFSET __ehfuncinfo$?WriteToStringLog@CDumpLogger@@QAEXPBD0H@Z
  00076	e9 00 00 00 00	 jmp	 ___CxxFrameHandler3
text$x	ENDS
?WriteToStringLog@CDumpLogger@@QAEXPBD0H@Z ENDP		; CDumpLogger::WriteToStringLog
; Function compile flags: /Ogtp
; File D:\git\src\IBK\IBK_DRFN\ProjSrc\SrcChartEx\ChartOCX\Include\DumpLogger.h
;	COMDAT ??1CDumpLogger@@UAE@XZ
_TEXT	SEGMENT
??1CDumpLogger@@UAE@XZ PROC				; CDumpLogger::~CDumpLogger, COMDAT
; _this$ = ecx

; 56   : 		// 6. Dump File을 닫는다.
; 57   : 		if( m_hLogFile != HFILE_ERROR) _lclose( m_hLogFile);

  00000	8b 41 04	 mov	 eax, DWORD PTR [ecx+4]
  00003	c7 01 00 00 00
	00		 mov	 DWORD PTR [ecx], OFFSET ??_7CDumpLogger@@6B@
  00009	83 f8 ff	 cmp	 eax, -1
  0000c	74 07		 je	 SHORT $LN2@CDumpLogge
  0000e	50		 push	 eax
  0000f	ff 15 00 00 00
	00		 call	 DWORD PTR __imp___lclose@4
$LN2@CDumpLogge:

; 58   : 	}

  00015	c3		 ret	 0
??1CDumpLogger@@UAE@XZ ENDP				; CDumpLogger::~CDumpLogger
_TEXT	ENDS
; Function compile flags: /Ogtp
; File D:\git\src\IBK\IBK_DRFN\ProjSrc\SrcChartEx\ChartOCX\Include_Chart\Dll_Load\IMetaTable.h
; File C:\Program Files (x86)\Microsoft Visual Studio\2019\Community\VC\Tools\MSVC\14.29.30133\atlmfc\include\afxwin1.inl
; File D:\git\src\IBK\IBK_DRFN\ProjSrc\SrcChartEx\ChartOCX\Include_Chart\Dll_Load\IMetaTable.h
;	COMDAT ??1CMultiLanguageResourceSetter@@QAE@XZ
_TEXT	SEGMENT
__$EHRec$ = -12						; size = 12
??1CMultiLanguageResourceSetter@@QAE@XZ PROC		; CMultiLanguageResourceSetter::~CMultiLanguageResourceSetter, COMDAT
; _this$ = ecx

; 1036 : 	{

  00000	55		 push	 ebp
  00001	8b ec		 mov	 ebp, esp
  00003	6a ff		 push	 -1
  00005	68 00 00 00 00	 push	 __ehhandler$??1CMultiLanguageResourceSetter@@QAE@XZ
  0000a	64 a1 00 00 00
	00		 mov	 eax, DWORD PTR fs:0
  00010	50		 push	 eax
  00011	56		 push	 esi
  00012	a1 00 00 00 00	 mov	 eax, DWORD PTR ___security_cookie
  00017	33 c5		 xor	 eax, ebp
  00019	50		 push	 eax
  0001a	8d 45 f4	 lea	 eax, DWORD PTR __$EHRec$[ebp]
  0001d	64 a3 00 00 00
	00		 mov	 DWORD PTR fs:0, eax

; 1037 : 		AfxSetResourceHandle( m_hInstance);

  00023	8b 31		 mov	 esi, DWORD PTR [ecx]
; File C:\Program Files (x86)\Microsoft Visual Studio\2019\Community\VC\Tools\MSVC\14.29.30133\atlmfc\include\afxwin1.inl

; 27   : 	{ ASSERT(hInstResource != NULL); afxCurrentResourceHandle = hInstResource; }

  00025	e8 00 00 00 00	 call	 ?AfxGetModuleState@@YGPAVAFX_MODULE_STATE@@XZ ; AfxGetModuleState
  0002a	89 70 0c	 mov	 DWORD PTR [eax+12], esi
; File D:\git\src\IBK\IBK_DRFN\ProjSrc\SrcChartEx\ChartOCX\Include_Chart\Dll_Load\IMetaTable.h

; 1038 : 	}

  0002d	8b 4d f4	 mov	 ecx, DWORD PTR __$EHRec$[ebp]
  00030	64 89 0d 00 00
	00 00		 mov	 DWORD PTR fs:0, ecx
  00037	59		 pop	 ecx
  00038	5e		 pop	 esi
  00039	8b e5		 mov	 esp, ebp
  0003b	5d		 pop	 ebp
  0003c	c3		 ret	 0
  0003d	cc		 int	 3
  0003e	cc		 int	 3
  0003f	cc		 int	 3
  00040	cc		 int	 3
  00041	cc		 int	 3
_TEXT	ENDS
;	COMDAT text$x
text$x	SEGMENT
__ehhandler$??1CMultiLanguageResourceSetter@@QAE@XZ:
  00000	90		 npad	 1
  00001	90		 npad	 1
  00002	8b 54 24 08	 mov	 edx, DWORD PTR [esp+8]
  00006	8d 42 0c	 lea	 eax, DWORD PTR [edx+12]
  00009	8b 4a f8	 mov	 ecx, DWORD PTR [edx-8]
  0000c	33 c8		 xor	 ecx, eax
  0000e	e8 00 00 00 00	 call	 @__security_check_cookie@4
  00013	b8 00 00 00 00	 mov	 eax, OFFSET __ehfuncinfo$??1CMultiLanguageResourceSetter@@QAE@XZ
  00018	e9 00 00 00 00	 jmp	 ___CxxFrameHandler3
text$x	ENDS
??1CMultiLanguageResourceSetter@@QAE@XZ ENDP		; CMultiLanguageResourceSetter::~CMultiLanguageResourceSetter
; Function compile flags: /Ogtp
;	COMDAT ??_GCNeoChart2001Out@@UAEPAXI@Z
_TEXT	SEGMENT
___flags$ = 8						; size = 4
??_GCNeoChart2001Out@@UAEPAXI@Z PROC			; CNeoChart2001Out::`scalar deleting destructor', COMDAT
; _this$ = ecx
  00000	55		 push	 ebp
  00001	8b ec		 mov	 ebp, esp
  00003	f6 45 08 01	 test	 BYTE PTR ___flags$[ebp], 1
  00007	56		 push	 esi
  00008	8b f1		 mov	 esi, ecx
  0000a	c7 06 00 00 00
	00		 mov	 DWORD PTR [esi], OFFSET ??_7CNeoChart2001Out@@6B@
  00010	74 0b		 je	 SHORT $LN4@scalar
  00012	6a 0c		 push	 12			; 0000000cH
  00014	56		 push	 esi
  00015	e8 00 00 00 00	 call	 ??3@YAXPAXI@Z		; operator delete
  0001a	83 c4 08	 add	 esp, 8
$LN4@scalar:
  0001d	8b c6		 mov	 eax, esi
  0001f	5e		 pop	 esi
  00020	5d		 pop	 ebp
  00021	c2 04 00	 ret	 4
??_GCNeoChart2001Out@@UAEPAXI@Z ENDP			; CNeoChart2001Out::`scalar deleting destructor'
_TEXT	ENDS
; Function compile flags: /Ogtp
; File D:\git\src\IBK\IBK_DRFN\ProjSrc\SrcChartEx\ChartOCX\KTBChart\NeoChart2001In.cpp
; File C:\Program Files (x86)\Microsoft Visual Studio\2019\Community\VC\Tools\MSVC\14.29.30133\atlmfc\include\afxwin2.inl
; File D:\git\src\IBK\IBK_DRFN\ProjSrc\SrcChartEx\ChartOCX\KTBChart\NeoChart2001In.cpp
; File D:\git\src\IBK\IBK_DRFN\ProjSrc\SrcChartEx\ChartOCX\Include_Chart\Dll_Load\IMetaTable.h
; File D:\git\src\IBK\IBK_DRFN\ProjSrc\SrcChartEx\ChartOCX\KTBChart\NeoChart2001In.cpp
; File D:\git\src\IBK\IBK_DRFN\ProjSrc\SrcChartEx\ChartOCX\Include_Chart\Dll_Load\IMetaTable.h
; File C:\Program Files (x86)\Microsoft Visual Studio\2019\Community\VC\Tools\MSVC\14.29.30133\atlmfc\include\afxwin1.inl
; File D:\git\src\IBK\IBK_DRFN\ProjSrc\SrcChartEx\ChartOCX\Include_Chart\Dll_Load\IMetaTable.h
; File C:\Program Files (x86)\Microsoft Visual Studio\2019\Community\VC\Tools\MSVC\14.29.30133\atlmfc\include\afxwin1.inl
; File D:\git\src\IBK\IBK_DRFN\ProjSrc\SrcChartEx\ChartOCX\KTBChart\NeoChart2001In.cpp
; File D:\git\src\IBK\IBK_DRFN\ProjSrc\SrcChartEx\ChartOCX\Include_Chart\Dll_Load\IMetaTable.h
; File C:\Program Files (x86)\Microsoft Visual Studio\2019\Community\VC\Tools\MSVC\14.29.30133\atlmfc\include\afxwin1.inl
; File D:\git\src\IBK\IBK_DRFN\ProjSrc\SrcChartEx\ChartOCX\Include_Chart\Dll_Load\IMetaTable.h
; File C:\Program Files (x86)\Microsoft Visual Studio\2019\Community\VC\Tools\MSVC\14.29.30133\atlmfc\include\afxwin1.inl
; File D:\git\src\IBK\IBK_DRFN\ProjSrc\SrcChartEx\ChartOCX\Include_Chart\Dll_Load\IMetaTable.h
; File D:\git\src\IBK\IBK_DRFN\ProjSrc\SrcChartEx\ChartOCX\KTBChart\NeoChart2001In.cpp
;	COMDAT ?GetPackDataSize@CNeoChart2001Out@@UAEHPAD@Z
_TEXT	SEGMENT
___mlrs__$2 = -296					; size = 4
_pIn$GSCopy$1$ = -292					; size = 4
_strMsg$3 = -288					; size = 4
$T4 = -284						; size = 4
_p2$1$ = -284						; size = 4
_szCount$ = -280					; size = 256
_szBozo$ = -24						; size = 5
__$ArrayPad$ = -16					; size = 4
__$EHRec$ = -12						; size = 12
_pIn$ = 8						; size = 4
?GetPackDataSize@CNeoChart2001Out@@UAEHPAD@Z PROC	; CNeoChart2001Out::GetPackDataSize, COMDAT
; _this$ = ecx

; 73   : {

  00000	55		 push	 ebp
  00001	8b ec		 mov	 ebp, esp
  00003	6a ff		 push	 -1
  00005	68 00 00 00 00	 push	 __ehhandler$?GetPackDataSize@CNeoChart2001Out@@UAEHPAD@Z
  0000a	64 a1 00 00 00
	00		 mov	 eax, DWORD PTR fs:0
  00010	50		 push	 eax
  00011	81 ec 1c 01 00
	00		 sub	 esp, 284		; 0000011cH
  00017	a1 00 00 00 00	 mov	 eax, DWORD PTR ___security_cookie
  0001c	33 c5		 xor	 eax, ebp
  0001e	89 45 f0	 mov	 DWORD PTR __$ArrayPad$[ebp], eax
  00021	53		 push	 ebx
  00022	56		 push	 esi
  00023	57		 push	 edi
  00024	50		 push	 eax
  00025	8d 45 f4	 lea	 eax, DWORD PTR __$EHRec$[ebp]
  00028	64 a3 00 00 00
	00		 mov	 DWORD PTR fs:0, eax
  0002e	8b d9		 mov	 ebx, ecx
  00030	8b 7d 08	 mov	 edi, DWORD PTR _pIn$[ebp]
  00033	89 bd dc fe ff
	ff		 mov	 DWORD PTR _pIn$GSCopy$1$[ebp], edi

; 74   : 	if(!pIn)		return BCP_INPUT;

  00039	85 ff		 test	 edi, edi
  0003b	75 21		 jne	 SHORT $LN2@GetPackDat
  0003d	8d 47 9c	 lea	 eax, DWORD PTR [edi-100]
$LN1@GetPackDat:

; 114  : }

  00040	8b 4d f4	 mov	 ecx, DWORD PTR __$EHRec$[ebp]
  00043	64 89 0d 00 00
	00 00		 mov	 DWORD PTR fs:0, ecx
  0004a	59		 pop	 ecx
  0004b	5f		 pop	 edi
  0004c	5e		 pop	 esi
  0004d	5b		 pop	 ebx
  0004e	8b 4d f0	 mov	 ecx, DWORD PTR __$ArrayPad$[ebp]
  00051	33 cd		 xor	 ecx, ebp
  00053	e8 00 00 00 00	 call	 @__security_check_cookie@4
  00058	8b e5		 mov	 esp, ebp
  0005a	5d		 pop	 ebp
  0005b	c2 04 00	 ret	 4
$LN2@GetPackDat:

; 75   : 	if(!m_pCtrl)	return BCP_ERROR;

  0005e	8b 4b 04	 mov	 ecx, DWORD PTR [ebx+4]
  00061	85 c9		 test	 ecx, ecx
  00063	75 05		 jne	 SHORT $LN3@GetPackDat
  00065	83 c8 ff	 or	 eax, -1
  00068	eb d6		 jmp	 SHORT $LN1@GetPackDat
$LN3@GetPackDat:

; 76   : 
; 77   : 	int nRet = 0;
; 78   : 	int lBozo = 0, lData = 0, nCount = 0 ;
; 79   : 
; 80   : 	// (2004.01.09, 배승원) 특수한 경우의 Map에서는 Packet Count가 5자리로 확장될 수 있도록 조정한다.
; 81   : 	//		이 값은 Property nPacketCountDataSize의 값을 초기 Script에서 설정하는 것으로 이용한다. 
; 82   : 	if( !m_nPacketCountDataSize)

  0006a	8b 73 08	 mov	 esi, DWORD PTR [ebx+8]
  0006d	85 f6		 test	 esi, esi
  0006f	0f 85 1e 01 00
	00		 jne	 $LN4@GetPackDat

; 83   : 	{
; 84   : 		m_nPacketCountDataSize = m_pCtrl->GetPacketCountDataSize();

  00075	0f bf 81 08 03
	00 00		 movsx	 eax, WORD PTR [ecx+776]
  0007c	89 43 08	 mov	 DWORD PTR [ebx+8], eax

; 85   : 		if( _KTBCHART_PACKETCOUNTDATASIZE_MAX < m_nPacketCountDataSize)

  0007f	3d ff 00 00 00	 cmp	 eax, 255		; 000000ffH
  00084	0f 8e f9 00 00
	00		 jle	 $LN31@GetPackDat

; 86   : 		{
; 87   : 			m_nPacketCountDataSize = _KTBCHART_PACKETCOUNTDATASIZE_MAX;

  0008a	c7 43 08 ff 00
	00 00		 mov	 DWORD PTR [ebx+8], 255	; 000000ffH
; File C:\Program Files (x86)\Microsoft Visual Studio\2019\Community\VC\Tools\MSVC\14.29.30133\atlmfc\include\afxwin2.inl

; 25   : 	{ return this == NULL ? NULL : m_hWnd; }

  00091	8b 71 20	 mov	 esi, DWORD PTR [ecx+32]
; File D:\git\src\IBK\IBK_DRFN\ProjSrc\SrcChartEx\ChartOCX\KTBChart\NeoChart2001In.cpp

; 90   : 			ML_SET_LANGUAGE_RES();

  00094	e8 00 00 00 00	 call	 ?AfxGetStaticModuleState@@YGPAVAFX_MODULE_STATE@@XZ ; AfxGetStaticModuleState
  00099	8b 48 08	 mov	 ecx, DWORD PTR [eax+8]
; File D:\git\src\IBK\IBK_DRFN\ProjSrc\SrcChartEx\ChartOCX\Include_Chart\Dll_Load\IMetaTable.h

; 936  : 	DECLARE_FUNCTION2(	LoadResourceDLL,				HMODULE, AfxGetStaticModuleState()->m_hCurrentInstanceHandle, HWND, HMODULE);

  0009c	a1 04 00 00 00	 mov	 eax, DWORD PTR ?g_iMetaTable@@3VIMetaTable@@A+4
; File D:\git\src\IBK\IBK_DRFN\ProjSrc\SrcChartEx\ChartOCX\KTBChart\NeoChart2001In.cpp

; 90   : 			ML_SET_LANGUAGE_RES();

  000a1	89 8d e4 fe ff
	ff		 mov	 DWORD PTR _p2$1$[ebp], ecx
; File D:\git\src\IBK\IBK_DRFN\ProjSrc\SrcChartEx\ChartOCX\Include_Chart\Dll_Load\IMetaTable.h

; 936  : 	DECLARE_FUNCTION2(	LoadResourceDLL,				HMODULE, AfxGetStaticModuleState()->m_hCurrentInstanceHandle, HWND, HMODULE);

  000a7	85 c0		 test	 eax, eax
  000a9	74 4f		 je	 SHORT $LN20@GetPackDat
  000ab	ba 80 0d 00 00	 mov	 edx, 3456		; 00000d80H
  000b0	66 3b 15 94 00
	00 00		 cmp	 dx, WORD PTR ?g_iMetaTable@@3VIMetaTable@@A+148
  000b7	74 2f		 je	 SHORT $LN35@GetPackDat
  000b9	68 00 00 00 00	 push	 OFFSET ??_C@_0BA@ENJOCHIO@LoadResourceDLL@
  000be	50		 push	 eax
  000bf	c7 05 90 00 00
	00 00 00 00 00	 mov	 DWORD PTR ?g_iMetaTable@@3VIMetaTable@@A+144, 0
  000c9	ff 15 00 00 00
	00		 call	 DWORD PTR __imp__GetProcAddress@8
  000cf	b9 80 0d 00 00	 mov	 ecx, 3456		; 00000d80H
  000d4	a3 90 00 00 00	 mov	 DWORD PTR ?g_iMetaTable@@3VIMetaTable@@A+144, eax
  000d9	66 89 0d 94 00
	00 00		 mov	 WORD PTR ?g_iMetaTable@@3VIMetaTable@@A+148, cx
  000e0	8b 8d e4 fe ff
	ff		 mov	 ecx, DWORD PTR _p2$1$[ebp]
  000e6	eb 05		 jmp	 SHORT $LN19@GetPackDat
$LN35@GetPackDat:
  000e8	a1 90 00 00 00	 mov	 eax, DWORD PTR ?g_iMetaTable@@3VIMetaTable@@A+144
$LN19@GetPackDat:
  000ed	85 c0		 test	 eax, eax
  000ef	74 09		 je	 SHORT $LN20@GetPackDat
  000f1	51		 push	 ecx
  000f2	56		 push	 esi
  000f3	ff d0		 call	 eax
  000f5	83 c4 08	 add	 esp, 8
  000f8	eb 08		 jmp	 SHORT $LN38@GetPackDat
$LN20@GetPackDat:
  000fa	e8 00 00 00 00	 call	 ?AfxGetStaticModuleState@@YGPAVAFX_MODULE_STATE@@XZ ; AfxGetStaticModuleState
  000ff	8b 40 08	 mov	 eax, DWORD PTR [eax+8]
$LN38@GetPackDat:
; File C:\Program Files (x86)\Microsoft Visual Studio\2019\Community\VC\Tools\MSVC\14.29.30133\atlmfc\include\afxwin1.inl

; 25   : 		return afxCurrentResourceHandle; }

  00102	89 85 e4 fe ff
	ff		 mov	 DWORD PTR $T4[ebp], eax
  00108	e8 00 00 00 00	 call	 ?AfxGetModuleState@@YGPAVAFX_MODULE_STATE@@XZ ; AfxGetModuleState
; File D:\git\src\IBK\IBK_DRFN\ProjSrc\SrcChartEx\ChartOCX\Include_Chart\Dll_Load\IMetaTable.h

; 1032 : 		m_hInstance = AfxGetResourceHandle();

  0010d	8b 70 0c	 mov	 esi, DWORD PTR [eax+12]
  00110	89 b5 d8 fe ff
	ff		 mov	 DWORD PTR ___mlrs__$2[ebp], esi
; File C:\Program Files (x86)\Microsoft Visual Studio\2019\Community\VC\Tools\MSVC\14.29.30133\atlmfc\include\afxwin1.inl

; 27   : 	{ ASSERT(hInstResource != NULL); afxCurrentResourceHandle = hInstResource; }

  00116	e8 00 00 00 00	 call	 ?AfxGetModuleState@@YGPAVAFX_MODULE_STATE@@XZ ; AfxGetModuleState
  0011b	8b 8d e4 fe ff
	ff		 mov	 ecx, DWORD PTR $T4[ebp]
  00121	89 48 0c	 mov	 DWORD PTR [eax+12], ecx
; File D:\git\src\IBK\IBK_DRFN\ProjSrc\SrcChartEx\ChartOCX\KTBChart\NeoChart2001In.cpp

; 91   : 			CString strMsg;

  00124	8d 8d e0 fe ff
	ff		 lea	 ecx, DWORD PTR _strMsg$3[ebp]
  0012a	c7 45 fc 00 00
	00 00		 mov	 DWORD PTR __$EHRec$[ebp+8], 0
  00131	ff 15 00 00 00
	00		 call	 DWORD PTR __imp_??0?$CStringT@DV?$StrTraitMFC_DLL@DV?$ChTraitsCRT@D@ATL@@@@@ATL@@QAE@XZ

; 92   : 			strMsg.LoadString( IDS_TOO_GREAT_DATA_COUNT);

  00137	68 7b 9d 00 00	 push	 40315			; 00009d7bH
  0013c	8d 8d e0 fe ff
	ff		 lea	 ecx, DWORD PTR _strMsg$3[ebp]
  00142	c6 45 fc 01	 mov	 BYTE PTR __$EHRec$[ebp+8], 1
  00146	ff 15 00 00 00
	00		 call	 DWORD PTR __imp_?LoadStringA@?$CStringT@DV?$StrTraitMFC_DLL@DV?$ChTraitsCRT@D@ATL@@@@@ATL@@QAEHI@Z

; 93   : 			AfxMessageBox( strMsg);

  0014c	6a 00		 push	 0
  0014e	6a 00		 push	 0
  00150	ff b5 e0 fe ff
	ff		 push	 DWORD PTR _strMsg$3[ebp]
  00156	e8 00 00 00 00	 call	 ?AfxMessageBox@@YGHPBDII@Z ; AfxMessageBox

; 94   : 		}

  0015b	8d 8d e0 fe ff
	ff		 lea	 ecx, DWORD PTR _strMsg$3[ebp]
  00161	ff 15 00 00 00
	00		 call	 DWORD PTR __imp_??1?$CStringT@DV?$StrTraitMFC_DLL@DV?$ChTraitsCRT@D@ATL@@@@@ATL@@QAE@XZ
; File D:\git\src\IBK\IBK_DRFN\ProjSrc\SrcChartEx\ChartOCX\Include_Chart\Dll_Load\IMetaTable.h

; 1036 : 	{

  00167	c7 45 fc 02 00
	00 00		 mov	 DWORD PTR __$EHRec$[ebp+8], 2
; File C:\Program Files (x86)\Microsoft Visual Studio\2019\Community\VC\Tools\MSVC\14.29.30133\atlmfc\include\afxwin1.inl

; 27   : 	{ ASSERT(hInstResource != NULL); afxCurrentResourceHandle = hInstResource; }

  0016e	e8 00 00 00 00	 call	 ?AfxGetModuleState@@YGPAVAFX_MODULE_STATE@@XZ ; AfxGetModuleState
; File D:\git\src\IBK\IBK_DRFN\ProjSrc\SrcChartEx\ChartOCX\Include_Chart\Dll_Load\IMetaTable.h

; 1038 : 	}

  00173	c7 45 fc ff ff
	ff ff		 mov	 DWORD PTR __$EHRec$[ebp+8], -1
; File C:\Program Files (x86)\Microsoft Visual Studio\2019\Community\VC\Tools\MSVC\14.29.30133\atlmfc\include\afxwin1.inl

; 27   : 	{ ASSERT(hInstResource != NULL); afxCurrentResourceHandle = hInstResource; }

  0017a	89 70 0c	 mov	 DWORD PTR [eax+12], esi
; File D:\git\src\IBK\IBK_DRFN\ProjSrc\SrcChartEx\ChartOCX\Include_Chart\Dll_Load\IMetaTable.h

; 1038 : 	}

  0017d	8b 4b 04	 mov	 ecx, DWORD PTR [ebx+4]
  00180	8b 43 08	 mov	 eax, DWORD PTR [ebx+8]
$LN31@GetPackDat:
; File D:\git\src\IBK\IBK_DRFN\ProjSrc\SrcChartEx\ChartOCX\KTBChart\NeoChart2001In.cpp

; 95   : 		m_pCtrl->m_pPacketList->SetPacketLengthCount( m_nPacketCountDataSize);

  00183	8b 89 3c 03 00
	00		 mov	 ecx, DWORD PTR [ecx+828]
  00189	50		 push	 eax
  0018a	ff 15 00 00 00
	00		 call	 DWORD PTR __imp_?SetPacketLengthCount@CPacketList@@QAEXH@Z
  00190	8b 73 08	 mov	 esi, DWORD PTR [ebx+8]
$LN4@GetPackDat:

; 96   : 	}
; 97   : 
; 98   : 	char szCount[ _KTBCHART_PACKETCOUNTDATASIZE_MAX + 1], szBozo[5] ;
; 99   : 	//	Count
; 100  : 	memcpy(szCount, (void*)pIn, m_nPacketCountDataSize) ;

  00193	56		 push	 esi
  00194	8d 85 e8 fe ff
	ff		 lea	 eax, DWORD PTR _szCount$[ebp]
  0019a	57		 push	 edi
  0019b	50		 push	 eax
  0019c	e8 00 00 00 00	 call	 _memcpy
  001a1	83 c4 0c	 add	 esp, 12			; 0000000cH

; 101  : 	szCount[ m_nPacketCountDataSize] = NULL ;	

  001a4	81 fe 00 01 00
	00		 cmp	 esi, 256		; 00000100H
  001aa	73 51		 jae	 SHORT $LN7@GetPackDat

; 102  : 	nCount = atoi(szCount) ;

  001ac	8d 85 e8 fe ff
	ff		 lea	 eax, DWORD PTR _szCount$[ebp]
  001b2	c6 84 35 e8 fe
	ff ff 00	 mov	 BYTE PTR _szCount$[ebp+esi], 0
  001ba	8b 35 00 00 00
	00		 mov	 esi, DWORD PTR __imp__atoi
  001c0	50		 push	 eax
  001c1	ff d6		 call	 esi

; 103  : 	//	보조메세지길이
; 104  : 	memcpy(szBozo, (void*)( pIn +m_nPacketCountDataSize), 4) ;

  001c3	8b 4b 08	 mov	 ecx, DWORD PTR [ebx+8]
  001c6	8b f8		 mov	 edi, eax
  001c8	8b 85 dc fe ff
	ff		 mov	 eax, DWORD PTR _pIn$GSCopy$1$[ebp]
  001ce	8b 0c 08	 mov	 ecx, DWORD PTR [eax+ecx]

; 105  : 	szBozo[4] = NULL ;
; 106  : 	lBozo = atoi(szBozo);

  001d1	8d 45 e8	 lea	 eax, DWORD PTR _szBozo$[ebp]
  001d4	50		 push	 eax
  001d5	89 4d e8	 mov	 DWORD PTR _szBozo$[ebp], ecx
  001d8	c6 45 ec 00	 mov	 BYTE PTR _szBozo$[ebp+4], 0
  001dc	ff d6		 call	 esi

; 107  : 	//	Data
; 108  : 
; 109  : 	// (2004.01.09, 배승원) 특수한 경우의 Map에서는 Packet Count가 5자리로 확장될 수 있도록 조정한다.
; 110  : 	//		이 값은 Property nPacketCountDataSize의 값을 초기 Script에서 설정하는 것으로 이용한다. 
; 111  : 	nRet = m_nPacketCountDataSize + 4 + lBozo + m_pCtrl->GetOnePacketSize() * nCount ;

  001de	8b 4b 04	 mov	 ecx, DWORD PTR [ebx+4]
  001e1	83 c4 08	 add	 esp, 8
  001e4	8b f0		 mov	 esi, eax
  001e6	e8 00 00 00 00	 call	 ?GetOnePacketSize@CKTBChartCtrl@@QAEHXZ ; CKTBChartCtrl::GetOnePacketSize
  001eb	8b 4b 08	 mov	 ecx, DWORD PTR [ebx+8]
  001ee	0f af c7	 imul	 eax, edi
  001f1	03 c8		 add	 ecx, eax
  001f3	8d 46 04	 lea	 eax, DWORD PTR [esi+4]
  001f6	03 c1		 add	 eax, ecx

; 112  : 
; 113  : 	return nRet;

  001f8	e9 43 fe ff ff	 jmp	 $LN1@GetPackDat
$LN7@GetPackDat:

; 101  : 	szCount[ m_nPacketCountDataSize] = NULL ;	

  001fd	e8 00 00 00 00	 call	 ___report_rangecheckfailure
$LN37@GetPackDat:
  00202	cc		 int	 3
_TEXT	ENDS
;	COMDAT text$x
text$x	SEGMENT
__unwindfunclet$?GetPackDataSize@CNeoChart2001Out@@UAEHPAD@Z$0:
  00000	8d 8d d8 fe ff
	ff		 lea	 ecx, DWORD PTR ___mlrs__$2[ebp]
  00006	e9 00 00 00 00	 jmp	 ??1CMultiLanguageResourceSetter@@QAE@XZ ; CMultiLanguageResourceSetter::~CMultiLanguageResourceSetter
__unwindfunclet$?GetPackDataSize@CNeoChart2001Out@@UAEHPAD@Z$1:
  0000b	8d 8d e0 fe ff
	ff		 lea	 ecx, DWORD PTR _strMsg$3[ebp]
  00011	ff 25 00 00 00
	00		 jmp	 DWORD PTR __imp_??1?$CStringT@DV?$StrTraitMFC_DLL@DV?$ChTraitsCRT@D@ATL@@@@@ATL@@QAE@XZ
  00017	cc		 int	 3
  00018	cc		 int	 3
  00019	cc		 int	 3
  0001a	cc		 int	 3
  0001b	cc		 int	 3
__ehhandler$?GetPackDataSize@CNeoChart2001Out@@UAEHPAD@Z:
  0001c	90		 npad	 1
  0001d	90		 npad	 1
  0001e	8b 54 24 08	 mov	 edx, DWORD PTR [esp+8]
  00022	8d 42 0c	 lea	 eax, DWORD PTR [edx+12]
  00025	8b 8a d4 fe ff
	ff		 mov	 ecx, DWORD PTR [edx-300]
  0002b	33 c8		 xor	 ecx, eax
  0002d	e8 00 00 00 00	 call	 @__security_check_cookie@4
  00032	8b 4a fc	 mov	 ecx, DWORD PTR [edx-4]
  00035	33 c8		 xor	 ecx, eax
  00037	e8 00 00 00 00	 call	 @__security_check_cookie@4
  0003c	b8 00 00 00 00	 mov	 eax, OFFSET __ehfuncinfo$?GetPackDataSize@CNeoChart2001Out@@UAEHPAD@Z
  00041	e9 00 00 00 00	 jmp	 ___CxxFrameHandler3
text$x	ENDS
?GetPackDataSize@CNeoChart2001Out@@UAEHPAD@Z ENDP	; CNeoChart2001Out::GetPackDataSize
; Function compile flags: /Ogtp
; File D:\git\src\IBK\IBK_DRFN\ProjSrc\SrcChartEx\ChartOCX\KTBChart\NeoChart2001In.cpp
; File C:\Program Files (x86)\Microsoft Visual Studio\2019\Community\VC\Tools\MSVC\14.29.30133\atlmfc\include\atlsimpstr.h
; File D:\git\src\IBK\IBK_DRFN\ProjSrc\SrcChartEx\ChartOCX\KTBChart\NeoChart2001In.cpp
; File D:\git\src\IBK\IBK_DRFN\ProjSrc\SrcChartEx\ChartOCX\Include\DumpLogger.h
; File C:\Program Files (x86)\Microsoft Visual Studio\2019\Community\VC\Tools\MSVC\14.29.30133\atlmfc\include\atlsimpstr.h
; File D:\git\src\IBK\IBK_DRFN\ProjSrc\SrcChartEx\ChartOCX\Include\DumpLogger.h
; File D:\git\src\IBK\IBK_DRFN\ProjSrc\SrcChartEx\ChartOCX\KTBChart\NeoChart2001In.cpp
;	COMDAT ?SetData2@CNeoChart2001Out@@UAEHPADH@Z
_TEXT	SEGMENT
$T2 = -324						; size = 4
_dLogger$3 = -320					; size = 8
_strLog$4 = -312					; size = 4
_strFileName$5 = -308					; size = 4
_sTime$6 = -304						; size = 16
_stEnd$7 = -288						; size = 16
_szCount$ = -272					; size = 256
__$ArrayPad$ = -16					; size = 4
__$EHRec$ = -12						; size = 12
_buf$ = 8						; size = 4
_bufLen$ = 12						; size = 4
?SetData2@CNeoChart2001Out@@UAEHPADH@Z PROC		; CNeoChart2001Out::SetData2, COMDAT
; _this$ = ecx

; 134  : {

  00000	55		 push	 ebp
  00001	8b ec		 mov	 ebp, esp
  00003	6a ff		 push	 -1
  00005	68 00 00 00 00	 push	 __ehhandler$?SetData2@CNeoChart2001Out@@UAEHPADH@Z
  0000a	64 a1 00 00 00
	00		 mov	 eax, DWORD PTR fs:0
  00010	50		 push	 eax
  00011	81 ec 38 01 00
	00		 sub	 esp, 312		; 00000138H
  00017	a1 00 00 00 00	 mov	 eax, DWORD PTR ___security_cookie
  0001c	33 c5		 xor	 eax, ebp
  0001e	89 45 f0	 mov	 DWORD PTR __$ArrayPad$[ebp], eax
  00021	53		 push	 ebx
  00022	56		 push	 esi
  00023	57		 push	 edi
  00024	50		 push	 eax
  00025	8d 45 f4	 lea	 eax, DWORD PTR __$EHRec$[ebp]
  00028	64 a3 00 00 00
	00		 mov	 DWORD PTR fs:0, eax
  0002e	8b f1		 mov	 esi, ecx

; 135  : 	if(!m_pCtrl) return BCP_ERROR;

  00030	8b 46 04	 mov	 eax, DWORD PTR [esi+4]
  00033	8b 7d 08	 mov	 edi, DWORD PTR _buf$[ebp]
  00036	85 c0		 test	 eax, eax
  00038	75 21		 jne	 SHORT $LN2@SetData2
  0003a	83 c8 ff	 or	 eax, -1
$LN1@SetData2:

; 160  : }

  0003d	8b 4d f4	 mov	 ecx, DWORD PTR __$EHRec$[ebp]
  00040	64 89 0d 00 00
	00 00		 mov	 DWORD PTR fs:0, ecx
  00047	59		 pop	 ecx
  00048	5f		 pop	 edi
  00049	5e		 pop	 esi
  0004a	5b		 pop	 ebx
  0004b	8b 4d f0	 mov	 ecx, DWORD PTR __$ArrayPad$[ebp]
  0004e	33 cd		 xor	 ecx, ebp
  00050	e8 00 00 00 00	 call	 @__security_check_cookie@4
  00055	8b e5		 mov	 esp, ebp
  00057	5d		 pop	 ebp
  00058	c2 08 00	 ret	 8
$LN2@SetData2:

; 136  : 
; 137  : 	if( m_pCtrl->m_bEnableLogChartLoading) GetLocalTime( &m_pCtrl->m_stLogStart);

  0005b	83 b8 ec 05 00
	00 00		 cmp	 DWORD PTR [eax+1516], 0
  00062	8b 1d 00 00 00
	00		 mov	 ebx, DWORD PTR __imp__GetLocalTime@4
  00068	74 08		 je	 SHORT $LN3@SetData2
  0006a	05 d0 05 00 00	 add	 eax, 1488		; 000005d0H
  0006f	50		 push	 eax
  00070	ff d3		 call	 ebx
$LN3@SetData2:

; 138  : 
; 139  : 	// (2004.01.09, 배승원) 특수한 경우의 Map에서는 Packet Count가 5자리로 확장될 수 있도록 조정한다.
; 140  : 	//		이 값은 Property nPacketCountDataSize의 값을 초기 Script에서 설정하는 것으로 이용한다. 
; 141  : 	char szCount[ _KTBCHART_PACKETCOUNTDATASIZE_MAX + 1];
; 142  : 	strncpy( szCount, buf, m_nPacketCountDataSize);

  00072	ff 76 08	 push	 DWORD PTR [esi+8]
  00075	8d 85 f0 fe ff
	ff		 lea	 eax, DWORD PTR _szCount$[ebp]
  0007b	57		 push	 edi
  0007c	50		 push	 eax
  0007d	ff 15 00 00 00
	00		 call	 DWORD PTR __imp__strncpy

; 143  : 	szCount[ m_nPacketCountDataSize] = '\0';	

  00083	8b 46 08	 mov	 eax, DWORD PTR [esi+8]
  00086	83 c4 0c	 add	 esp, 12			; 0000000cH
  00089	3d 00 01 00 00	 cmp	 eax, 256		; 00000100H
  0008e	0f 83 a2 01 00
	00		 jae	 $LN6@SetData2
  00094	c6 84 05 f0 fe
	ff ff 00	 mov	 BYTE PTR _szCount$[ebp+eax], 0

; 144  : 	int nCount = atoi( szCount);

  0009c	8d 85 f0 fe ff
	ff		 lea	 eax, DWORD PTR _szCount$[ebp]
  000a2	50		 push	 eax
  000a3	ff 15 00 00 00
	00		 call	 DWORD PTR __imp__atoi

; 145  : 
; 146  : 	m_pCtrl->SetChartData2((long)buf, nCount, 0);

  000a9	8b 4e 04	 mov	 ecx, DWORD PTR [esi+4]
  000ac	83 c4 04	 add	 esp, 4
  000af	6a 00		 push	 0
  000b1	50		 push	 eax
  000b2	57		 push	 edi
  000b3	e8 00 00 00 00	 call	 ?SetChartData2@CKTBChartCtrl@@QAEHJHH@Z ; CKTBChartCtrl::SetChartData2

; 147  : 
; 148  : 	if( m_pCtrl->m_bEnableLogChartLoading)

  000b8	8b 46 04	 mov	 eax, DWORD PTR [esi+4]
  000bb	83 b8 ec 05 00
	00 00		 cmp	 DWORD PTR [eax+1516], 0
  000c2	0f 84 67 01 00
	00		 je	 $LN4@SetData2

; 149  : 	{
; 150  : 		SYSTEMTIME stEnd;
; 151  : 		GetLocalTime( &stEnd);

  000c8	8d 85 e0 fe ff
	ff		 lea	 eax, DWORD PTR _stEnd$7[ebp]
  000ce	50		 push	 eax
  000cf	ff d3		 call	 ebx

; 152  : 		CString strLog;

  000d1	8d 8d c8 fe ff
	ff		 lea	 ecx, DWORD PTR _strLog$4[ebp]
  000d7	ff 15 00 00 00
	00		 call	 DWORD PTR __imp_??0?$CStringT@DV?$StrTraitMFC_DLL@DV?$ChTraitsCRT@D@ATL@@@@@ATL@@QAE@XZ

; 153  : 		strLog.Format( "Start Time : %02d:%02d:%02d.%03d\r\nEnd Time : %02d:%02d:%02d.%03d\r\n",

  000dd	0f b7 85 ee fe
	ff ff		 movzx	 eax, WORD PTR _stEnd$7[ebp+14]
  000e4	8b 4e 04	 mov	 ecx, DWORD PTR [esi+4]
  000e7	50		 push	 eax
  000e8	0f b7 85 ec fe
	ff ff		 movzx	 eax, WORD PTR _stEnd$7[ebp+12]
  000ef	50		 push	 eax
  000f0	0f b7 85 ea fe
	ff ff		 movzx	 eax, WORD PTR _stEnd$7[ebp+10]
  000f7	50		 push	 eax
  000f8	0f b7 85 e8 fe
	ff ff		 movzx	 eax, WORD PTR _stEnd$7[ebp+8]
  000ff	8b 35 00 00 00
	00		 mov	 esi, DWORD PTR __imp_?Format@?$CStringT@DV?$StrTraitMFC_DLL@DV?$ChTraitsCRT@D@ATL@@@@@ATL@@QAAXPBDZZ
  00105	50		 push	 eax
  00106	0f b7 81 de 05
	00 00		 movzx	 eax, WORD PTR [ecx+1502]
  0010d	50		 push	 eax
  0010e	0f b7 81 dc 05
	00 00		 movzx	 eax, WORD PTR [ecx+1500]
  00115	50		 push	 eax
  00116	0f b7 81 da 05
	00 00		 movzx	 eax, WORD PTR [ecx+1498]
  0011d	50		 push	 eax
  0011e	0f b7 81 d8 05
	00 00		 movzx	 eax, WORD PTR [ecx+1496]
  00125	50		 push	 eax
  00126	8d 85 c8 fe ff
	ff		 lea	 eax, DWORD PTR _strLog$4[ebp]
  0012c	c7 45 fc 00 00
	00 00		 mov	 DWORD PTR __$EHRec$[ebp+8], 0
  00133	68 00 00 00 00	 push	 OFFSET ??_C@_0ED@JPABPGCN@Start?5Time?5?3?5?$CF02d?3?$CF02d?3?$CF02d?4?$CF03@
  00138	50		 push	 eax
  00139	ff d6		 call	 esi
; File C:\Program Files (x86)\Microsoft Visual Studio\2019\Community\VC\Tools\MSVC\14.29.30133\atlmfc\include\atlsimpstr.h

; 519  : 		return( GetData()->nDataLength );

  0013b	8b bd c8 fe ff
	ff		 mov	 edi, DWORD PTR _strLog$4[ebp]
; File D:\git\src\IBK\IBK_DRFN\ProjSrc\SrcChartEx\ChartOCX\KTBChart\NeoChart2001In.cpp

; 153  : 		strLog.Format( "Start Time : %02d:%02d:%02d.%03d\r\nEnd Time : %02d:%02d:%02d.%03d\r\n",

  00141	83 c4 28	 add	 esp, 40			; 00000028H
; File D:\git\src\IBK\IBK_DRFN\ProjSrc\SrcChartEx\ChartOCX\Include\DumpLogger.h

; 22   : 	CDumpLogger( const char *p_szLogFileKey = "MDump", BOOL p_bMSecLogFile = FALSE, const char *p_szLogFolderPath = "C:\\Logs")

  00144	c7 85 c0 fe ff
	ff 00 00 00 00	 mov	 DWORD PTR _dLogger$3[ebp], OFFSET ??_7CDumpLogger@@6B@
; File C:\Program Files (x86)\Microsoft Visual Studio\2019\Community\VC\Tools\MSVC\14.29.30133\atlmfc\include\atlsimpstr.h

; 519  : 		return( GetData()->nDataLength );

  0014e	8b 47 f4	 mov	 eax, DWORD PTR [edi-12]
  00151	89 85 bc fe ff
	ff		 mov	 DWORD PTR $T2[ebp], eax
; File D:\git\src\IBK\IBK_DRFN\ProjSrc\SrcChartEx\ChartOCX\Include\DumpLogger.h

; 29   : 		GetLocalTime(&sTime);

  00157	8d 85 d0 fe ff
	ff		 lea	 eax, DWORD PTR _sTime$6[ebp]
  0015d	50		 push	 eax
  0015e	ff d3		 call	 ebx

; 30   : 		// 2. Log File Name을 생성한다.
; 31   : 		// 2.1 Log Folder Path를 확인한다.
; 32   : 		if( szLogFolderPath == NULL || *szLogFolderPath == '\0') szLogFolderPath = "C:\\Logs";
; 33   : 		// 2.2 Log File Key를 확인한다.
; 34   : 		if( szLogFileKey == NULL || *szLogFileKey == '\0') szLogFileKey = "MDump";
; 35   : 		// 2.3 Log File Name을 구성한다.
; 36   : 		CString strFileName;

  00160	8d 8d cc fe ff
	ff		 lea	 ecx, DWORD PTR _strFileName$5[ebp]
  00166	ff 15 00 00 00
	00		 call	 DWORD PTR __imp_??0?$CStringT@DV?$StrTraitMFC_DLL@DV?$ChTraitsCRT@D@ATL@@@@@ATL@@QAE@XZ

; 37   : 		if( p_bMSecLogFile) strFileName.Format( "%s\\%s_%04d%02d%02d_%02d%02d%02d_%03d.log", szLogFolderPath, szLogFileKey, sTime.wYear, 
; 38   : 			sTime.wMonth, sTime.wDay, sTime.wHour, sTime.wMinute, sTime.wSecond, sTime.wMilliseconds);
; 39   : 		else strFileName.Format( "%s\\%s_%04d%02d%02d.log", szLogFolderPath, szLogFileKey, sTime.wYear, 

  0016c	0f b7 85 d6 fe
	ff ff		 movzx	 eax, WORD PTR _sTime$6[ebp+6]
  00173	50		 push	 eax
  00174	0f b7 85 d2 fe
	ff ff		 movzx	 eax, WORD PTR _sTime$6[ebp+2]
  0017b	50		 push	 eax
  0017c	0f b7 85 d0 fe
	ff ff		 movzx	 eax, WORD PTR _sTime$6[ebp]
  00183	50		 push	 eax
  00184	68 00 00 00 00	 push	 OFFSET ??_C@_0O@BPAIOFGL@ChartSpeedLog@
  00189	68 00 00 00 00	 push	 OFFSET ??_C@_07PNFMHCIF@C?3?2Logs@
  0018e	8d 85 cc fe ff
	ff		 lea	 eax, DWORD PTR _strFileName$5[ebp]
  00194	c6 45 fc 01	 mov	 BYTE PTR __$EHRec$[ebp+8], 1
  00198	68 00 00 00 00	 push	 OFFSET ??_C@_0BH@KLLDLFAP@?$CFs?2?$CFs_?$CF04d?$CF02d?$CF02d?4log@
  0019d	50		 push	 eax
  0019e	ff d6		 call	 esi
  001a0	83 c4 1c	 add	 esp, 28			; 0000001cH

; 40   : 			sTime.wMonth, sTime.wDay);
; 41   : 		// 3. szLogFolderPath를 관리할 필요가 없도록 미리 처리한다.
; 42   : 		::CreateDirectory( szLogFolderPath, NULL);

  001a3	6a 00		 push	 0
  001a5	68 00 00 00 00	 push	 OFFSET ??_C@_07PNFMHCIF@C?3?2Logs@
  001aa	ff 15 00 00 00
	00		 call	 DWORD PTR __imp__CreateDirectoryA@8

; 43   : 
; 44   : 		// 3. Log File을 Open한다.
; 45   : 		m_hLogFile = _lopen( ( LPCTSTR)strFileName, OF_READWRITE);

  001b0	6a 02		 push	 2
  001b2	ff b5 cc fe ff
	ff		 push	 DWORD PTR _strFileName$5[ebp]
  001b8	ff 15 00 00 00
	00		 call	 DWORD PTR __imp___lopen@8
  001be	89 85 c4 fe ff
	ff		 mov	 DWORD PTR _dLogger$3[ebp+4], eax

; 46   : 		if( m_hLogFile != HFILE_ERROR)

  001c4	83 f8 ff	 cmp	 eax, -1
  001c7	74 0d		 je	 SHORT $LN25@SetData2

; 47   : 		{
; 48   : 			// 3.1 이전 File이 있으면 File 끝으로 이동한다.
; 49   : 			if( _llseek( m_hLogFile, 0L, FILE_END) == HFILE_ERROR) return;

  001c9	6a 02		 push	 2
  001cb	6a 00		 push	 0
  001cd	50		 push	 eax
  001ce	ff 15 00 00 00
	00		 call	 DWORD PTR __imp___llseek@12
  001d4	eb 14		 jmp	 SHORT $LN26@SetData2
$LN25@SetData2:

; 50   : 		}
; 51   : 		// 3.2 이전 File이 없으면 새로이 생성한다.
; 52   : 		else m_hLogFile = _lcreat( ( LPCTSTR)strFileName, 0);

  001d6	6a 00		 push	 0
  001d8	ff b5 cc fe ff
	ff		 push	 DWORD PTR _strFileName$5[ebp]
  001de	ff 15 00 00 00
	00		 call	 DWORD PTR __imp___lcreat@8
  001e4	89 85 c4 fe ff
	ff		 mov	 DWORD PTR _dLogger$3[ebp+4], eax
$LN26@SetData2:

; 53   : 	}

  001ea	8d 8d cc fe ff
	ff		 lea	 ecx, DWORD PTR _strFileName$5[ebp]
  001f0	ff 15 00 00 00
	00		 call	 DWORD PTR __imp_??1?$CStringT@DV?$StrTraitMFC_DLL@DV?$ChTraitsCRT@D@ATL@@@@@ATL@@QAE@XZ

; 199  : 		dLogger.WriteToStringLog( p_szSection, p_szData, p_nDataLen);

  001f6	ff b5 bc fe ff
	ff		 push	 DWORD PTR $T2[ebp]
  001fc	8d 8d c0 fe ff
	ff		 lea	 ecx, DWORD PTR _dLogger$3[ebp]
  00202	c6 45 fc 02	 mov	 BYTE PTR __$EHRec$[ebp+8], 2
  00206	57		 push	 edi
  00207	68 00 00 00 00	 push	 OFFSET ??_C@_0BN@PIOCHIJD@CNeoChart2001Out?3?3SetData2?$CI?$CJ@
  0020c	e8 00 00 00 00	 call	 ?WriteToStringLog@CDumpLogger@@QAEXPBD0H@Z ; CDumpLogger::WriteToStringLog

; 57   : 		if( m_hLogFile != HFILE_ERROR) _lclose( m_hLogFile);

  00211	8b 85 c4 fe ff
	ff		 mov	 eax, DWORD PTR _dLogger$3[ebp+4]
  00217	83 f8 ff	 cmp	 eax, -1
  0021a	74 07		 je	 SHORT $LN35@SetData2
  0021c	50		 push	 eax
  0021d	ff 15 00 00 00
	00		 call	 DWORD PTR __imp___lclose@4
$LN35@SetData2:
; File D:\git\src\IBK\IBK_DRFN\ProjSrc\SrcChartEx\ChartOCX\KTBChart\NeoChart2001In.cpp

; 157  : 	}

  00223	8d 8d c8 fe ff
	ff		 lea	 ecx, DWORD PTR _strLog$4[ebp]
  00229	ff 15 00 00 00
	00		 call	 DWORD PTR __imp_??1?$CStringT@DV?$StrTraitMFC_DLL@DV?$ChTraitsCRT@D@ATL@@@@@ATL@@QAE@XZ
$LN4@SetData2:

; 158  : 
; 159  : 	return BCP_OK;

  0022f	33 c0		 xor	 eax, eax
  00231	e9 07 fe ff ff	 jmp	 $LN1@SetData2
$LN6@SetData2:

; 143  : 	szCount[ m_nPacketCountDataSize] = '\0';	

  00236	e8 00 00 00 00	 call	 ___report_rangecheckfailure
$LN39@SetData2:
  0023b	cc		 int	 3
_TEXT	ENDS
;	COMDAT text$x
text$x	SEGMENT
__unwindfunclet$?SetData2@CNeoChart2001Out@@UAEHPADH@Z$0:
  00000	8d 8d c8 fe ff
	ff		 lea	 ecx, DWORD PTR _strLog$4[ebp]
  00006	ff 25 00 00 00
	00		 jmp	 DWORD PTR __imp_??1?$CStringT@DV?$StrTraitMFC_DLL@DV?$ChTraitsCRT@D@ATL@@@@@ATL@@QAE@XZ
__unwindfunclet$?SetData2@CNeoChart2001Out@@UAEHPADH@Z$2:
  0000c	8d 8d cc fe ff
	ff		 lea	 ecx, DWORD PTR _strFileName$5[ebp]
  00012	ff 25 00 00 00
	00		 jmp	 DWORD PTR __imp_??1?$CStringT@DV?$StrTraitMFC_DLL@DV?$ChTraitsCRT@D@ATL@@@@@ATL@@QAE@XZ
__unwindfunclet$?SetData2@CNeoChart2001Out@@UAEHPADH@Z$1:
  00018	8d 8d c0 fe ff
	ff		 lea	 ecx, DWORD PTR _dLogger$3[ebp]
  0001e	e9 00 00 00 00	 jmp	 ??1CDumpLogger@@UAE@XZ	; CDumpLogger::~CDumpLogger
  00023	cc		 int	 3
  00024	cc		 int	 3
  00025	cc		 int	 3
  00026	cc		 int	 3
  00027	cc		 int	 3
__ehhandler$?SetData2@CNeoChart2001Out@@UAEHPADH@Z:
  00028	90		 npad	 1
  00029	90		 npad	 1
  0002a	8b 54 24 08	 mov	 edx, DWORD PTR [esp+8]
  0002e	8d 42 0c	 lea	 eax, DWORD PTR [edx+12]
  00031	8b 8a b8 fe ff
	ff		 mov	 ecx, DWORD PTR [edx-328]
  00037	33 c8		 xor	 ecx, eax
  00039	e8 00 00 00 00	 call	 @__security_check_cookie@4
  0003e	8b 4a fc	 mov	 ecx, DWORD PTR [edx-4]
  00041	33 c8		 xor	 ecx, eax
  00043	e8 00 00 00 00	 call	 @__security_check_cookie@4
  00048	b8 00 00 00 00	 mov	 eax, OFFSET __ehfuncinfo$?SetData2@CNeoChart2001Out@@UAEHPADH@Z
  0004d	e9 00 00 00 00	 jmp	 ___CxxFrameHandler3
text$x	ENDS
?SetData2@CNeoChart2001Out@@UAEHPADH@Z ENDP		; CNeoChart2001Out::SetData2
; Function compile flags: /Ogtp
; File D:\git\src\IBK\IBK_DRFN\ProjSrc\SrcChartEx\ChartOCX\KTBChart\NeoChart2001In.cpp
;	COMDAT ?SetData@CNeoChart2001Out@@UAEHPADH@Z
_TEXT	SEGMENT
_szCount$ = -260					; size = 256
__$ArrayPad$ = -4					; size = 4
_buf$ = 8						; size = 4
_bufLen$ = 12						; size = 4
?SetData@CNeoChart2001Out@@UAEHPADH@Z PROC		; CNeoChart2001Out::SetData, COMDAT
; _this$ = ecx

; 117  : {

  00000	55		 push	 ebp
  00001	8b ec		 mov	 ebp, esp
  00003	81 ec 04 01 00
	00		 sub	 esp, 260		; 00000104H
  00009	a1 00 00 00 00	 mov	 eax, DWORD PTR ___security_cookie
  0000e	33 c5		 xor	 eax, ebp
  00010	89 45 fc	 mov	 DWORD PTR __$ArrayPad$[ebp], eax
  00013	56		 push	 esi
  00014	8b f1		 mov	 esi, ecx
  00016	57		 push	 edi
  00017	8b 7d 08	 mov	 edi, DWORD PTR _buf$[ebp]

; 118  : 	if(!m_pCtrl) return BCP_ERROR;

  0001a	83 7e 04 00	 cmp	 DWORD PTR [esi+4], 0
  0001e	75 15		 jne	 SHORT $LN2@SetData
  00020	5f		 pop	 edi
  00021	83 c8 ff	 or	 eax, -1

; 128  : 
; 129  : 	return BCP_OK;	
; 130  : }

  00024	5e		 pop	 esi
  00025	8b 4d fc	 mov	 ecx, DWORD PTR __$ArrayPad$[ebp]
  00028	33 cd		 xor	 ecx, ebp
  0002a	e8 00 00 00 00	 call	 @__security_check_cookie@4
  0002f	8b e5		 mov	 esp, ebp
  00031	5d		 pop	 ebp
  00032	c2 08 00	 ret	 8
$LN2@SetData:

; 119  : 	
; 120  : 	// (2004.01.09, 배승원) 특수한 경우의 Map에서는 Packet Count가 5자리로 확장될 수 있도록 조정한다.
; 121  : 	//		이 값은 Property nPacketCountDataSize의 값을 초기 Script에서 설정하는 것으로 이용한다. 
; 122  : 	char szCount[ _KTBCHART_PACKETCOUNTDATASIZE_MAX + 1];
; 123  : 	strncpy( szCount, buf, m_nPacketCountDataSize);

  00035	ff 76 08	 push	 DWORD PTR [esi+8]
  00038	8d 85 fc fe ff
	ff		 lea	 eax, DWORD PTR _szCount$[ebp]
  0003e	57		 push	 edi
  0003f	50		 push	 eax
  00040	ff 15 00 00 00
	00		 call	 DWORD PTR __imp__strncpy

; 124  : 	szCount[ m_nPacketCountDataSize] = '\0';	

  00046	8b 46 08	 mov	 eax, DWORD PTR [esi+8]
  00049	83 c4 0c	 add	 esp, 12			; 0000000cH
  0004c	3d 00 01 00 00	 cmp	 eax, 256		; 00000100H
  00051	73 38		 jae	 SHORT $LN4@SetData
  00053	c6 84 05 fc fe
	ff ff 00	 mov	 BYTE PTR _szCount$[ebp+eax], 0

; 125  : 	int nCount = atoi( szCount);

  0005b	8d 85 fc fe ff
	ff		 lea	 eax, DWORD PTR _szCount$[ebp]
  00061	50		 push	 eax
  00062	ff 15 00 00 00
	00		 call	 DWORD PTR __imp__atoi

; 126  : 
; 127  : 	m_pCtrl->SetChartData2((long)buf, nCount, 0) ;

  00068	8b 4e 04	 mov	 ecx, DWORD PTR [esi+4]
  0006b	83 c4 04	 add	 esp, 4
  0006e	6a 00		 push	 0
  00070	50		 push	 eax
  00071	57		 push	 edi
  00072	e8 00 00 00 00	 call	 ?SetChartData2@CKTBChartCtrl@@QAEHJHH@Z ; CKTBChartCtrl::SetChartData2

; 128  : 
; 129  : 	return BCP_OK;	
; 130  : }

  00077	8b 4d fc	 mov	 ecx, DWORD PTR __$ArrayPad$[ebp]
  0007a	33 c0		 xor	 eax, eax
  0007c	5f		 pop	 edi
  0007d	33 cd		 xor	 ecx, ebp
  0007f	5e		 pop	 esi
  00080	e8 00 00 00 00	 call	 @__security_check_cookie@4
  00085	8b e5		 mov	 esp, ebp
  00087	5d		 pop	 ebp
  00088	c2 08 00	 ret	 8
$LN4@SetData:

; 124  : 	szCount[ m_nPacketCountDataSize] = '\0';	

  0008b	e8 00 00 00 00	 call	 ___report_rangecheckfailure
$LN6@SetData:
  00090	cc		 int	 3
?SetData@CNeoChart2001Out@@UAEHPADH@Z ENDP		; CNeoChart2001Out::SetData
_TEXT	ENDS
; Function compile flags: /Ogtp
; File D:\git\src\IBK\IBK_DRFN\ProjSrc\SrcChartEx\ChartOCX\KTBChart\NeoChart2001In.cpp
;	COMDAT ??1CNeoChart2001Out@@UAE@XZ
_TEXT	SEGMENT
??1CNeoChart2001Out@@UAE@XZ PROC			; CNeoChart2001Out::~CNeoChart2001Out, COMDAT
; _this$ = ecx

; 68   : {

  00000	c7 01 00 00 00
	00		 mov	 DWORD PTR [ecx], OFFSET ??_7CNeoChart2001Out@@6B@

; 69   : 
; 70   : }

  00006	c3		 ret	 0
??1CNeoChart2001Out@@UAE@XZ ENDP			; CNeoChart2001Out::~CNeoChart2001Out
_TEXT	ENDS
; Function compile flags: /Ogtp
; File D:\git\src\IBK\IBK_DRFN\ProjSrc\SrcChartEx\ChartOCX\KTBChart\NeoChart2001In.cpp
;	COMDAT ??0CNeoChart2001Out@@QAE@XZ
_TEXT	SEGMENT
??0CNeoChart2001Out@@QAE@XZ PROC			; CNeoChart2001Out::CNeoChart2001Out, COMDAT
; _this$ = ecx

; 49   : {

  00000	c7 01 00 00 00
	00		 mov	 DWORD PTR [ecx], OFFSET ??_7CNeoChart2001Out@@6B@

; 50   : 	m_pCtrl = NULL;
; 51   : 
; 52   : 	// (2004.01.09, 배승원) 특수한 경우의 Map에서는 Packet Count가 5자리로 확장될 수 있도록 조정한다.
; 53   : 	//		이 값은 Property nPacketCountDataSize의 값을 초기 Script에서 설정하는 것으로 이용한다. 
; 54   : 	m_nPacketCountDataSize = 0;
; 55   : }

  00006	8b c1		 mov	 eax, ecx
  00008	c7 41 04 00 00
	00 00		 mov	 DWORD PTR [ecx+4], 0
  0000f	c7 41 08 00 00
	00 00		 mov	 DWORD PTR [ecx+8], 0
  00016	c3		 ret	 0
??0CNeoChart2001Out@@QAE@XZ ENDP			; CNeoChart2001Out::CNeoChart2001Out
_TEXT	ENDS
; Function compile flags: /Ogtp
; File D:\git\src\IBK\IBK_DRFN\ProjSrc\SrcChartEx\ChartOCX\KTBChart\NeoChart2001In.cpp
;	COMDAT ??0CNeoChart2001Out@@QAE@PAVCKTBChartCtrl@@@Z
_TEXT	SEGMENT
_pCtrl$ = 8						; size = 4
??0CNeoChart2001Out@@QAE@PAVCKTBChartCtrl@@@Z PROC	; CNeoChart2001Out::CNeoChart2001Out, COMDAT
; _this$ = ecx

; 58   : {

  00000	55		 push	 ebp
  00001	8b ec		 mov	 ebp, esp

; 59   : 	m_pCtrl = pCtrl; 

  00003	8b 45 08	 mov	 eax, DWORD PTR _pCtrl$[ebp]
  00006	89 41 04	 mov	 DWORD PTR [ecx+4], eax

; 60   : 
; 61   : 	// (2004.01.09, 배승원) 특수한 경우의 Map에서는 Packet Count가 5자리로 확장될 수 있도록 조정한다.
; 62   : 	//		이 값은 Property nPacketCountDataSize의 값을 초기 Script에서 설정하는 것으로 이용한다. 
; 63   : 	m_nPacketCountDataSize = 0;
; 64   : }

  00009	8b c1		 mov	 eax, ecx
  0000b	c7 01 00 00 00
	00		 mov	 DWORD PTR [ecx], OFFSET ??_7CNeoChart2001Out@@6B@
  00011	c7 41 08 00 00
	00 00		 mov	 DWORD PTR [ecx+8], 0
  00018	5d		 pop	 ebp
  00019	c2 04 00	 ret	 4
??0CNeoChart2001Out@@QAE@PAVCKTBChartCtrl@@@Z ENDP	; CNeoChart2001Out::CNeoChart2001Out
_TEXT	ENDS
; Function compile flags: /Ogtp
;	COMDAT ??_GCNeoChart2001In@@UAEPAXI@Z
_TEXT	SEGMENT
___flags$ = 8						; size = 4
??_GCNeoChart2001In@@UAEPAXI@Z PROC			; CNeoChart2001In::`scalar deleting destructor', COMDAT
; _this$ = ecx
  00000	55		 push	 ebp
  00001	8b ec		 mov	 ebp, esp
  00003	f6 45 08 01	 test	 BYTE PTR ___flags$[ebp], 1
  00007	56		 push	 esi
  00008	8b f1		 mov	 esi, ecx
  0000a	c7 06 00 00 00
	00		 mov	 DWORD PTR [esi], OFFSET ??_7CNeoChart2001In@@6B@
  00010	74 0b		 je	 SHORT $LN4@scalar
  00012	6a 08		 push	 8
  00014	56		 push	 esi
  00015	e8 00 00 00 00	 call	 ??3@YAXPAXI@Z		; operator delete
  0001a	83 c4 08	 add	 esp, 8
$LN4@scalar:
  0001d	8b c6		 mov	 eax, esi
  0001f	5e		 pop	 esi
  00020	5d		 pop	 ebp
  00021	c2 04 00	 ret	 4
??_GCNeoChart2001In@@UAEPAXI@Z ENDP			; CNeoChart2001In::`scalar deleting destructor'
_TEXT	ENDS
; Function compile flags: /Ogtp
; File D:\git\src\IBK\IBK_DRFN\ProjSrc\SrcChartEx\ChartOCX\KTBChart\NeoChart2001In.cpp
;	COMDAT ?GetData@CNeoChart2001In@@UAEHPADH@Z
_TEXT	SEGMENT
_buf$ = 8						; size = 4
_bufLen$ = 12						; size = 4
?GetData@CNeoChart2001In@@UAEHPADH@Z PROC		; CNeoChart2001In::GetData, COMDAT
; _this$ = ecx

; 39   : 	if(!m_pCtrl)  return BCP_ERROR;

  00000	8b 41 04	 mov	 eax, DWORD PTR [ecx+4]
  00003	f7 d8		 neg	 eax
  00005	1b c0		 sbb	 eax, eax
  00007	f7 d8		 neg	 eax
  00009	48		 dec	 eax

; 40   : 
; 41   : 	//Input Data 부분 길이 추가..
; 42   : 	
; 43   : 	return BCP_OK;
; 44   : }

  0000a	c2 08 00	 ret	 8
?GetData@CNeoChart2001In@@UAEHPADH@Z ENDP		; CNeoChart2001In::GetData
_TEXT	ENDS
; Function compile flags: /Ogtp
; File D:\git\src\IBK\IBK_DRFN\ProjSrc\SrcChartEx\ChartOCX\KTBChart\NeoChart2001In.cpp
;	COMDAT ??1CNeoChart2001In@@UAE@XZ
_TEXT	SEGMENT
??1CNeoChart2001In@@UAE@XZ PROC				; CNeoChart2001In::~CNeoChart2001In, COMDAT
; _this$ = ecx

; 34   : {

  00000	c7 01 00 00 00
	00		 mov	 DWORD PTR [ecx], OFFSET ??_7CNeoChart2001In@@6B@

; 35   : }

  00006	c3		 ret	 0
??1CNeoChart2001In@@UAE@XZ ENDP				; CNeoChart2001In::~CNeoChart2001In
_TEXT	ENDS
; Function compile flags: /Ogtp
; File D:\git\src\IBK\IBK_DRFN\ProjSrc\SrcChartEx\ChartOCX\KTBChart\NeoChart2001In.cpp
;	COMDAT ??0CNeoChart2001In@@QAE@XZ
_TEXT	SEGMENT
??0CNeoChart2001In@@QAE@XZ PROC				; CNeoChart2001In::CNeoChart2001In, COMDAT
; _this$ = ecx

; 24   : {

  00000	c7 01 00 00 00
	00		 mov	 DWORD PTR [ecx], OFFSET ??_7CNeoChart2001In@@6B@

; 25   : 	m_pCtrl = NULL;
; 26   : }

  00006	8b c1		 mov	 eax, ecx
  00008	c7 41 04 00 00
	00 00		 mov	 DWORD PTR [ecx+4], 0
  0000f	c3		 ret	 0
??0CNeoChart2001In@@QAE@XZ ENDP				; CNeoChart2001In::CNeoChart2001In
_TEXT	ENDS
; Function compile flags: /Ogtp
; File D:\git\src\IBK\IBK_DRFN\ProjSrc\SrcChartEx\ChartOCX\KTBChart\NeoChart2001In.cpp
;	COMDAT ??0CNeoChart2001In@@QAE@PAVCKTBChartCtrl@@@Z
_TEXT	SEGMENT
_pCtrl$ = 8						; size = 4
??0CNeoChart2001In@@QAE@PAVCKTBChartCtrl@@@Z PROC	; CNeoChart2001In::CNeoChart2001In, COMDAT
; _this$ = ecx

; 29   : {

  00000	55		 push	 ebp
  00001	8b ec		 mov	 ebp, esp

; 30   : 	m_pCtrl = pCtrl; 

  00003	8b 45 08	 mov	 eax, DWORD PTR _pCtrl$[ebp]
  00006	89 41 04	 mov	 DWORD PTR [ecx+4], eax

; 31   : }

  00009	8b c1		 mov	 eax, ecx
  0000b	c7 01 00 00 00
	00		 mov	 DWORD PTR [ecx], OFFSET ??_7CNeoChart2001In@@6B@
  00011	5d		 pop	 ebp
  00012	c2 04 00	 ret	 4
??0CNeoChart2001In@@QAE@PAVCKTBChartCtrl@@@Z ENDP	; CNeoChart2001In::CNeoChart2001In
_TEXT	ENDS
; Function compile flags: /Ogtp
; File D:\git\src\IBK\IBK_DRFN\ProjSrc\SrcChartEx\ChartOCX\Include\CtrlPackBase.h
;	COMDAT ?SetData999@CBaseCtrlPackOut@@UAEHHPADH@Z
_TEXT	SEGMENT
_nType$ = 8						; size = 4
_buf$ = 12						; size = 4
_bufLen$ = 16						; size = 4
?SetData999@CBaseCtrlPackOut@@UAEHHPADH@Z PROC		; CBaseCtrlPackOut::SetData999, COMDAT
; _this$ = ecx

; 50   : 	virtual int SetData999(int nType, char* buf, int bufLen) {ASSERT(FALSE); return 0;}

  00000	33 c0		 xor	 eax, eax
  00002	c2 0c 00	 ret	 12			; 0000000cH
?SetData999@CBaseCtrlPackOut@@UAEHHPADH@Z ENDP		; CBaseCtrlPackOut::SetData999
_TEXT	ENDS
; Function compile flags: /Ogtp
; File D:\git\src\IBK\IBK_DRFN\ProjSrc\SrcChartEx\ChartOCX\Include\CtrlPackBase.h
;	COMDAT ?SetData3@CBaseCtrlPackOut@@UAEHPADH@Z
_TEXT	SEGMENT
_buf$ = 8						; size = 4
_bufLen$ = 12						; size = 4
?SetData3@CBaseCtrlPackOut@@UAEHPADH@Z PROC		; CBaseCtrlPackOut::SetData3, COMDAT
; _this$ = ecx

; 42   : 	virtual int SetData3(char* buf, int bufLen){ASSERT(FALSE); return 0;}

  00000	33 c0		 xor	 eax, eax
  00002	c2 08 00	 ret	 8
?SetData3@CBaseCtrlPackOut@@UAEHPADH@Z ENDP		; CBaseCtrlPackOut::SetData3
_TEXT	ENDS
; Function compile flags: /Ogtp
; File D:\git\src\IBK\IBK_DRFN\ProjSrc\SrcChartEx\ChartOCX\Include\CtrlPackBase.h
;	COMDAT ?SetData2@CBaseCtrlPackOut@@UAEHPADH@Z
_TEXT	SEGMENT
_buf$ = 8						; size = 4
_bufLen$ = 12						; size = 4
?SetData2@CBaseCtrlPackOut@@UAEHPADH@Z PROC		; CBaseCtrlPackOut::SetData2, COMDAT
; _this$ = ecx

; 39   : 	virtual int SetData2(char* buf, int bufLen){ASSERT(FALSE); return 0;}

  00000	33 c0		 xor	 eax, eax
  00002	c2 08 00	 ret	 8
?SetData2@CBaseCtrlPackOut@@UAEHPADH@Z ENDP		; CBaseCtrlPackOut::SetData2
_TEXT	ENDS
; Function compile flags: /Ogtp
; File D:\git\src\IBK\IBK_DRFN\ProjSrc\SrcChartEx\ChartOCX\Include\CtrlPackBase.h
;	COMDAT ?SetData@CBaseCtrlPackOut@@UAEHPADH@Z
_TEXT	SEGMENT
_buf$ = 8						; size = 4
_bufLen$ = 12						; size = 4
?SetData@CBaseCtrlPackOut@@UAEHPADH@Z PROC		; CBaseCtrlPackOut::SetData, COMDAT
; _this$ = ecx

; 36   : 	virtual int SetData(char* buf, int bufLen){ASSERT(FALSE); return 0;}

  00000	33 c0		 xor	 eax, eax
  00002	c2 08 00	 ret	 8
?SetData@CBaseCtrlPackOut@@UAEHPADH@Z ENDP		; CBaseCtrlPackOut::SetData
_TEXT	ENDS
; Function compile flags: /Ogtp
; File D:\git\src\IBK\IBK_DRFN\ProjSrc\SrcChartEx\ChartOCX\Include\CtrlPackBase.h
;	COMDAT ?GetPackDataSize@CBaseCtrlPackOut@@UAEHPAD@Z
_TEXT	SEGMENT
_pIn$ = 8						; size = 4
?GetPackDataSize@CBaseCtrlPackOut@@UAEHPAD@Z PROC	; CBaseCtrlPackOut::GetPackDataSize, COMDAT
; _this$ = ecx

; 32   : 	virtual int	GetPackDataSize(char* pIn){ASSERT(FALSE); return 0;}

  00000	33 c0		 xor	 eax, eax
  00002	c2 04 00	 ret	 4
?GetPackDataSize@CBaseCtrlPackOut@@UAEHPAD@Z ENDP	; CBaseCtrlPackOut::GetPackDataSize
_TEXT	ENDS
; Function compile flags: /Ogtp
; File D:\git\src\IBK\IBK_DRFN\ProjSrc\SrcChartEx\ChartOCX\Include\CtrlPackBase.h
;	COMDAT ?GetData@CBaseCtrlPackIn@@UAEHPADH@Z
_TEXT	SEGMENT
_buf$ = 8						; size = 4
_bufLen$ = 12						; size = 4
?GetData@CBaseCtrlPackIn@@UAEHPADH@Z PROC		; CBaseCtrlPackIn::GetData, COMDAT
; _this$ = ecx

; 24   : 	virtual int GetData(char* buf, int bufLen){ASSERT(FALSE); return 0;}

  00000	33 c0		 xor	 eax, eax
  00002	c2 08 00	 ret	 8
?GetData@CBaseCtrlPackIn@@UAEHPADH@Z ENDP		; CBaseCtrlPackIn::GetData
_TEXT	ENDS
; Function compile flags: /Ogtp
; File C:\Program Files (x86)\Microsoft Visual Studio\2019\Community\VC\Tools\MSVC\14.29.30133\atlmfc\include\afx.inl
;	COMDAT ?Dump@CObject@@UBEXAAVCDumpContext@@@Z
_TEXT	SEGMENT
___formal$ = 8						; size = 4
?Dump@CObject@@UBEXAAVCDumpContext@@@Z PROC		; CObject::Dump, COMDAT
; _this$ = ecx

; 122  : 	{ /* no dumping in release builds */ }

  00000	c2 04 00	 ret	 4
?Dump@CObject@@UBEXAAVCDumpContext@@@Z ENDP		; CObject::Dump
_TEXT	ENDS
; Function compile flags: /Ogtp
; File C:\Program Files (x86)\Microsoft Visual Studio\2019\Community\VC\Tools\MSVC\14.29.30133\atlmfc\include\afx.inl
;	COMDAT ?AssertValid@CObject@@UBEXXZ
_TEXT	SEGMENT
?AssertValid@CObject@@UBEXXZ PROC			; CObject::AssertValid, COMDAT
; _this$ = ecx

; 120  : 	{ /* no asserts in release builds */ }

  00000	c2 00 00	 ret	 0
?AssertValid@CObject@@UBEXXZ ENDP			; CObject::AssertValid
_TEXT	ENDS
; Function compile flags: /Ogtp
; File C:\Program Files (x86)\Microsoft Visual Studio\2019\Community\VC\Tools\MSVC\14.29.30133\atlmfc\include\afx.inl
;	COMDAT ?Serialize@CObject@@UAEXAAVCArchive@@@Z
_TEXT	SEGMENT
___formal$ = 8						; size = 4
?Serialize@CObject@@UAEXAAVCArchive@@@Z PROC		; CObject::Serialize, COMDAT
; _this$ = ecx

; 106  : 	{ /* CObject does not serialize anything by default */ }

  00000	c2 04 00	 ret	 4
?Serialize@CObject@@UAEXAAVCArchive@@@Z ENDP		; CObject::Serialize
_TEXT	ENDS
; Function compile flags: /Ogtp
; File C:\Program Files (x86)\Microsoft Visual Studio\2019\Community\VC\Tools\MSVC\14.29.30133\atlmfc\include\afx.inl
;	COMDAT ??1CObject@@UAE@XZ
_TEXT	SEGMENT
??1CObject@@UAE@XZ PROC					; CObject::~CObject, COMDAT
; _this$ = ecx

; 104  : 	{ }

  00000	c2 00 00	 ret	 0
??1CObject@@UAE@XZ ENDP					; CObject::~CObject
_TEXT	ENDS
; Function compile flags: /Ogtp
; File D:\git\src\IBK\IBK_DRFN\ProjSrc\SrcChartEx\ChartOCX\KTBChart\NeoChart2001In.cpp
;	COMDAT ?__empty_global_delete@@YAXPAXI@Z
_TEXT	SEGMENT
___formal$ = 8						; size = 4
___formal$ = 12						; size = 4
?__empty_global_delete@@YAXPAXI@Z PROC			; __empty_global_delete, COMDAT

  00000	c2 00 00	 ret	 0
?__empty_global_delete@@YAXPAXI@Z ENDP			; __empty_global_delete
_TEXT	ENDS
; Function compile flags: /Ogtp
; File D:\git\src\IBK\IBK_DRFN\ProjSrc\SrcChartEx\ChartOCX\KTBChart\NeoChart2001In.cpp
;	COMDAT ?__empty_global_delete@@YAXPAX@Z
_TEXT	SEGMENT
___formal$ = 8						; size = 4
?__empty_global_delete@@YAXPAX@Z PROC			; __empty_global_delete, COMDAT

  00000	c2 00 00	 ret	 0
?__empty_global_delete@@YAXPAX@Z ENDP			; __empty_global_delete
_TEXT	ENDS
END
