; Listing generated by Microsoft (R) Optimizing Compiler Version 19.29.30145.0 

	TITLE	D:\git\src\IBK\IBK_DRFN\#DRfn-CS\_Obj\KTBChart\PrintController.obj
	.686P
	.XMM
	include listing.inc
	.model	flat

INCLUDELIB MSVCRT
INCLUDELIB OLDNAMES

CONST	SEGMENT
?_Fake_alloc@std@@3U_Fake_allocator@1@B	ORG $+1		; std::_Fake_alloc
CONST	ENDS
PUBLIC	?__empty_global_delete@@YAXPAX@Z		; __empty_global_delete
PUBLIC	?__empty_global_delete@@YAXPAXI@Z		; __empty_global_delete
PUBLIC	??1CObject@@UAE@XZ				; CObject::~CObject
PUBLIC	?Serialize@CObject@@UAEXAAVCArchive@@@Z		; CObject::Serialize
PUBLIC	?AssertValid@CObject@@UBEXXZ			; CObject::AssertValid
PUBLIC	?Dump@CObject@@UBEXAAVCDumpContext@@@Z		; CObject::Dump
PUBLIC	??1CGdiObject@@UAE@XZ				; CGdiObject::~CGdiObject
PUBLIC	??_GCGdiObject@@UAEPAXI@Z			; CGdiObject::`scalar deleting destructor'
PUBLIC	??1CBitmap@@UAE@XZ				; CBitmap::~CBitmap
PUBLIC	??_GCBitmap@@UAEPAXI@Z				; CBitmap::`scalar deleting destructor'
PUBLIC	?DoDataExchange@CWnd@@MAEXPAVCDataExchange@@@Z	; CWnd::DoDataExchange
PUBLIC	?BeginModalState@CWnd@@UAEXXZ			; CWnd::BeginModalState
PUBLIC	?EndModalState@CWnd@@UAEXXZ			; CWnd::EndModalState
PUBLIC	?Create@CDialog@@UAEHIPAVCWnd@@@Z		; CDialog::Create
PUBLIC	??1CCommonDialog@@UAE@XZ			; CCommonDialog::~CCommonDialog
PUBLIC	??_GCCommonDialog@@UAEPAXI@Z			; CCommonDialog::`scalar deleting destructor'
PUBLIC	??1CPrintDialog@@UAE@XZ				; CPrintDialog::~CPrintDialog
PUBLIC	?OnPrint@CPrintController@@QAEXABVCRect@@PAVCKTBChartCtrl@@@Z ; CPrintController::OnPrint
PUBLIC	?PopUpOsAndMyPrintDlg@CPrintController@@AAEXABVCRect@@PAVCKTBChartCtrl@@@Z ; CPrintController::PopUpOsAndMyPrintDlg
PUBLIC	?PopUpOsPrintDlg@CPrintController@@AAEXABVCRect@@PAVCKTBChartCtrl@@@Z ; CPrintController::PopUpOsPrintDlg
PUBLIC	?PopUpMyPrintDlg@CPrintController@@AAEXABVCRect@@PAVCKTBChartCtrl@@@Z ; CPrintController::PopUpMyPrintDlg
PUBLIC	?OnDraw@CPrintController@@AAEXPAVCDC@@HABVCRect@@1PAVCKTBChartCtrl@@@Z ; CPrintController::OnDraw
PUBLIC	?OnPrintbyUserSetDataCountperOnePge@CPrintController@@AAEXAAVCDC@@HABVCRect@@PAVCKTBChartCtrl@@@Z ; CPrintController::OnPrintbyUserSetDataCountperOnePge
PUBLIC	?OnPrintTotalData@CPrintController@@AAEXAAVCDC@@HABVCRect@@PAVCKTBChartCtrl@@@Z ; CPrintController::OnPrintTotalData
PUBLIC	?OnPrintCurrentPage@CPrintController@@AAEXAAVCDC@@HABVCRect@@PAVCKTBChartCtrl@@@Z ; CPrintController::OnPrintCurrentPage
PUBLIC	?LoadResourceDLL@IMetaTable@@QAEPAUHINSTANCE__@@PAUHWND__@@PAU2@@Z ; IMetaTable::LoadResourceDLL
PUBLIC	??1CMultiLanguageResourceSetter@@QAE@XZ		; CMultiLanguageResourceSetter::~CMultiLanguageResourceSetter
PUBLIC	??1CDlgPrintCfg@@UAE@XZ				; CDlgPrintCfg::~CDlgPrintCfg
PUBLIC	??_R0PAVCException@@@8				; CException * `RTTI Type Descriptor'
PUBLIC	??_7CGdiObject@@6B@				; CGdiObject::`vftable'
PUBLIC	??_7CBitmap@@6B@				; CBitmap::`vftable'
PUBLIC	??_C@_0HD@JJCHHHNK@C?3?2Program?5Files?5?$CIx86?$CJ?2Microsof@ ; `string'
PUBLIC	??_C@_0BP@OIEOKIDM@Exception?5thrown?5in?5destructor@ ; `string'
PUBLIC	??_C@_0BB@HBOOMJBF@?$CFTs?5?$CI?$CFTs?3?$CFd?$CJ?6?$CFTs@ ; `string'
PUBLIC	??_C@_0N@OMEMOKLE@?$CFTs?5?$CI?$CFTs?3?$CFd?$CJ@ ; `string'
PUBLIC	??_7CCommonDialog@@6B@				; CCommonDialog::`vftable'
PUBLIC	??_R0?AVCObject@@@8				; CObject `RTTI Type Descriptor'
PUBLIC	??_R3CObject@@8					; CObject::`RTTI Class Hierarchy Descriptor'
PUBLIC	??_R2CObject@@8					; CObject::`RTTI Base Class Array'
PUBLIC	??_R1A@?0A@EA@CObject@@8			; CObject::`RTTI Base Class Descriptor at (0,-1,0,64)'
PUBLIC	??_R4CGdiObject@@6B@				; CGdiObject::`RTTI Complete Object Locator'
PUBLIC	??_R0?AVCGdiObject@@@8				; CGdiObject `RTTI Type Descriptor'
PUBLIC	??_R3CGdiObject@@8				; CGdiObject::`RTTI Class Hierarchy Descriptor'
PUBLIC	??_R2CGdiObject@@8				; CGdiObject::`RTTI Base Class Array'
PUBLIC	??_R1A@?0A@EA@CGdiObject@@8			; CGdiObject::`RTTI Base Class Descriptor at (0,-1,0,64)'
PUBLIC	??_R4CBitmap@@6B@				; CBitmap::`RTTI Complete Object Locator'
PUBLIC	??_R0?AVCBitmap@@@8				; CBitmap `RTTI Type Descriptor'
PUBLIC	??_R3CBitmap@@8					; CBitmap::`RTTI Class Hierarchy Descriptor'
PUBLIC	??_R2CBitmap@@8					; CBitmap::`RTTI Base Class Array'
PUBLIC	??_R1A@?0A@EA@CBitmap@@8			; CBitmap::`RTTI Base Class Descriptor at (0,-1,0,64)'
PUBLIC	??_R1A@?0A@EA@CWnd@@8				; CWnd::`RTTI Base Class Descriptor at (0,-1,0,64)'
PUBLIC	??_R0?AVCWnd@@@8				; CWnd `RTTI Type Descriptor'
PUBLIC	??_R3CWnd@@8					; CWnd::`RTTI Class Hierarchy Descriptor'
PUBLIC	??_R2CWnd@@8					; CWnd::`RTTI Base Class Array'
PUBLIC	??_R1A@?0A@EA@CCmdTarget@@8			; CCmdTarget::`RTTI Base Class Descriptor at (0,-1,0,64)'
PUBLIC	??_R0?AVCCmdTarget@@@8				; CCmdTarget `RTTI Type Descriptor'
PUBLIC	??_R3CCmdTarget@@8				; CCmdTarget::`RTTI Class Hierarchy Descriptor'
PUBLIC	??_R2CCmdTarget@@8				; CCmdTarget::`RTTI Base Class Array'
PUBLIC	??_R4CCommonDialog@@6B@				; CCommonDialog::`RTTI Complete Object Locator'
PUBLIC	??_R0?AVCCommonDialog@@@8			; CCommonDialog `RTTI Type Descriptor'
PUBLIC	??_R3CCommonDialog@@8				; CCommonDialog::`RTTI Class Hierarchy Descriptor'
PUBLIC	??_R2CCommonDialog@@8				; CCommonDialog::`RTTI Base Class Array'
PUBLIC	??_R1A@?0A@EA@CCommonDialog@@8			; CCommonDialog::`RTTI Base Class Descriptor at (0,-1,0,64)'
PUBLIC	??_R1A@?0A@EA@CDialog@@8			; CDialog::`RTTI Base Class Descriptor at (0,-1,0,64)'
PUBLIC	??_R0?AVCDialog@@@8				; CDialog `RTTI Type Descriptor'
PUBLIC	??_R3CDialog@@8					; CDialog::`RTTI Class Hierarchy Descriptor'
PUBLIC	??_R2CDialog@@8					; CDialog::`RTTI Base Class Array'
PUBLIC	??_C@_0BA@ENJOCHIO@LoadResourceDLL@		; `string'
PUBLIC	??_C@_0P@DGIMNGKH@Buy?5a?5printer?$CB@		; `string'
PUBLIC	??_C@_0N@GIPCBNAK@NeoChart2001@			; `string'
PUBLIC	??_C@_0BL@BBEIPBHH@Printer?5Wouldn?8t?5initalize@ ; `string'
PUBLIC	??_C@_0N@LCMHNOBI@Buy?5printer?$CB@		; `string'
PUBLIC	??_C@_0BF@NCJNJJGJ@Could?5not?5start?5page@	; `string'
EXTRN	??3@YAXPAX@Z:PROC				; operator delete
EXTRN	?__global_delete@@YAXPAXI@Z:PROC		; __global_delete
EXTRN	___std_terminate:PROC
EXTRN	__imp__GetProcAddress@8:PROC
EXTRN	__imp__CreateCompatibleBitmap@12:PROC
EXTRN	__imp__CreateCompatibleDC@4:PROC
EXTRN	__imp__GetDeviceCaps@8:PROC
EXTRN	__imp__StretchBlt@44:PROC
EXTRN	__imp__StartDocA@8:PROC
EXTRN	__imp__EndDoc@4:PROC
EXTRN	__imp__StartPage@4:PROC
EXTRN	__imp__EndPage@4:PROC
EXTRN	__imp__AbortDoc@4:PROC
EXTRN	__imp__EnableWindow@8:PROC
EXTRN	__imp_??0?$CStringT@DV?$StrTraitMFC_DLL@DV?$ChTraitsCRT@D@ATL@@@@@ATL@@QAE@XZ:PROC
EXTRN	__imp_??1?$CStringT@DV?$StrTraitMFC_DLL@DV?$ChTraitsCRT@D@ATL@@@@@ATL@@QAE@XZ:PROC
EXTRN	__imp_?Format@?$CStringT@DV?$StrTraitMFC_DLL@DV?$ChTraitsCRT@D@ATL@@@@@ATL@@QAAXPBDZZ:PROC
EXTRN	?AfxGetModuleState@@YGPAVAFX_MODULE_STATE@@XZ:PROC ; AfxGetModuleState
EXTRN	?AfxGetStaticModuleState@@YGPAVAFX_MODULE_STATE@@XZ:PROC ; AfxGetStaticModuleState
EXTRN	?GetRuntimeClass@CGdiObject@@UBEPAUCRuntimeClass@@XZ:PROC ; CGdiObject::GetRuntimeClass
EXTRN	?Attach@CGdiObject@@QAEHPAX@Z:PROC		; CGdiObject::Attach
EXTRN	?DeleteObject@CGdiObject@@QAEHXZ:PROC		; CGdiObject::DeleteObject
EXTRN	??_ECGdiObject@@UAEPAXI@Z:PROC			; CGdiObject::`vector deleting destructor'
EXTRN	?GetRuntimeClass@CBitmap@@UBEPAUCRuntimeClass@@XZ:PROC ; CBitmap::GetRuntimeClass
EXTRN	??_ECBitmap@@UAEPAXI@Z:PROC			; CBitmap::`vector deleting destructor'
EXTRN	?FromHandle@CDC@@SGPAV1@PAUHDC__@@@Z:PROC	; CDC::FromHandle
EXTRN	?Attach@CDC@@QAEHPAUHDC__@@@Z:PROC		; CDC::Attach
EXTRN	??0CDC@@QAE@XZ:PROC				; CDC::CDC
EXTRN	?DeleteDC@CDC@@QAEHXZ:PROC			; CDC::DeleteDC
EXTRN	??1CDC@@UAE@XZ:PROC				; CDC::~CDC
EXTRN	?SelectGdiObject@CDC@@KGPAVCGdiObject@@PAUHDC__@@PAX@Z:PROC ; CDC::SelectGdiObject
EXTRN	?IsInvokeAllowed@CCmdTarget@@UAEHJ@Z:PROC	; CCmdTarget::IsInvokeAllowed
EXTRN	?GetDispatchIID@CCmdTarget@@UAEHPAU_GUID@@@Z:PROC ; CCmdTarget::GetDispatchIID
EXTRN	?GetTypeInfoCount@CCmdTarget@@UAEIXZ:PROC	; CCmdTarget::GetTypeInfoCount
EXTRN	?GetTypeLibCache@CCmdTarget@@UAEPAVCTypeLibCache@@XZ:PROC ; CCmdTarget::GetTypeLibCache
EXTRN	?GetTypeLib@CCmdTarget@@UAEJKPAPAUITypeLib@@@Z:PROC ; CCmdTarget::GetTypeLib
EXTRN	?GetCommandMap@CCmdTarget@@MBEPBUAFX_OLECMDMAP@@XZ:PROC ; CCmdTarget::GetCommandMap
EXTRN	?GetDispatchMap@CCmdTarget@@MBEPBUAFX_DISPMAP@@XZ:PROC ; CCmdTarget::GetDispatchMap
EXTRN	?GetConnectionMap@CCmdTarget@@MBEPBUAFX_CONNECTIONMAP@@XZ:PROC ; CCmdTarget::GetConnectionMap
EXTRN	?GetEventSinkMap@CCmdTarget@@MBEPBUAFX_EVENTSINKMAP@@XZ:PROC ; CCmdTarget::GetEventSinkMap
EXTRN	?OnCreateAggregates@CCmdTarget@@UAEHXZ:PROC	; CCmdTarget::OnCreateAggregates
EXTRN	?GetInterfaceHook@CCmdTarget@@UAEPAUIUnknown@@PBX@Z:PROC ; CCmdTarget::GetInterfaceHook
EXTRN	?GetExtraConnectionPoints@CCmdTarget@@MAEHPAVCPtrArray@@@Z:PROC ; CCmdTarget::GetExtraConnectionPoints
EXTRN	?GetConnectionHook@CCmdTarget@@MAEPAUIConnectionPoint@@ABU_GUID@@@Z:PROC ; CCmdTarget::GetConnectionHook
EXTRN	?PreSubclassWindow@CWnd@@UAEXXZ:PROC		; CWnd::PreSubclassWindow
EXTRN	?Create@CWnd@@UAEHPBD0KABUtagRECT@@PAV1@IPAUCCreateContext@@@Z:PROC ; CWnd::Create
EXTRN	?CreateEx@CWnd@@UAEHKPBD0KHHHHPAUHWND__@@PAUHMENU__@@PAX@Z:PROC ; CWnd::CreateEx
EXTRN	?CreateEx@CWnd@@UAEHKPBD0KABUtagRECT@@PAV1@IPAX@Z:PROC ; CWnd::CreateEx
EXTRN	?DestroyWindow@CWnd@@UAEHXZ:PROC		; CWnd::DestroyWindow
EXTRN	?PreCreateWindow@CWnd@@UAEHAAUtagCREATESTRUCTA@@@Z:PROC ; CWnd::PreCreateWindow
EXTRN	?CalcWindowRect@CWnd@@UAEXPAUtagRECT@@I@Z:PROC	; CWnd::CalcWindowRect
EXTRN	?GetMenu@CWnd@@UBEPAVCMenu@@XZ:PROC		; CWnd::GetMenu
EXTRN	?SetMenu@CWnd@@UAEHPAVCMenu@@@Z:PROC		; CWnd::SetMenu
EXTRN	?OnToolHitTest@CWnd@@UBEHVCPoint@@PAUtagTOOLINFOA@@@Z:PROC ; CWnd::OnToolHitTest
EXTRN	?GetScrollBarCtrl@CWnd@@UBEPAVCScrollBar@@H@Z:PROC ; CWnd::GetScrollBarCtrl
EXTRN	?WinHelpA@CWnd@@UAEXKI@Z:PROC			; CWnd::WinHelpA
EXTRN	?HtmlHelpA@CWnd@@UAEXKI@Z:PROC			; CWnd::HtmlHelpA
EXTRN	?WinHelpInternal@CWnd@@UAEXKI@Z:PROC		; CWnd::WinHelpInternal
EXTRN	?ContinueModal@CWnd@@UAEHXZ:PROC		; CWnd::ContinueModal
EXTRN	?EndModalLoop@CWnd@@UAEXH@Z:PROC		; CWnd::EndModalLoop
EXTRN	?OnDrawIconicThumbnailOrLivePreview@CWnd@@UAEXAAVCDC@@VCRect@@VCSize@@HAAH@Z:PROC ; CWnd::OnDrawIconicThumbnailOrLivePreview
EXTRN	?GetInterfaceMap@CWnd@@MBEPBUAFX_INTERFACEMAP@@XZ:PROC ; CWnd::GetInterfaceMap
EXTRN	?EnsureStdObj@CWnd@@UAEJXZ:PROC			; CWnd::EnsureStdObj
EXTRN	?get_accParent@CWnd@@UAEJPAPAUIDispatch@@@Z:PROC ; CWnd::get_accParent
EXTRN	?get_accChildCount@CWnd@@UAEJPAJ@Z:PROC		; CWnd::get_accChildCount
EXTRN	?get_accChild@CWnd@@UAEJUtagVARIANT@@PAPAUIDispatch@@@Z:PROC ; CWnd::get_accChild
EXTRN	?get_accName@CWnd@@UAEJUtagVARIANT@@PAPA_W@Z:PROC ; CWnd::get_accName
EXTRN	?get_accValue@CWnd@@UAEJUtagVARIANT@@PAPA_W@Z:PROC ; CWnd::get_accValue
EXTRN	?get_accDescription@CWnd@@UAEJUtagVARIANT@@PAPA_W@Z:PROC ; CWnd::get_accDescription
EXTRN	?get_accRole@CWnd@@UAEJUtagVARIANT@@PAU2@@Z:PROC ; CWnd::get_accRole
EXTRN	?get_accState@CWnd@@UAEJUtagVARIANT@@PAU2@@Z:PROC ; CWnd::get_accState
EXTRN	?get_accHelp@CWnd@@UAEJUtagVARIANT@@PAPA_W@Z:PROC ; CWnd::get_accHelp
EXTRN	?get_accHelpTopic@CWnd@@UAEJPAPA_WUtagVARIANT@@PAJ@Z:PROC ; CWnd::get_accHelpTopic
EXTRN	?get_accKeyboardShortcut@CWnd@@UAEJUtagVARIANT@@PAPA_W@Z:PROC ; CWnd::get_accKeyboardShortcut
EXTRN	?get_accFocus@CWnd@@UAEJPAUtagVARIANT@@@Z:PROC	; CWnd::get_accFocus
EXTRN	?get_accSelection@CWnd@@UAEJPAUtagVARIANT@@@Z:PROC ; CWnd::get_accSelection
EXTRN	?get_accDefaultAction@CWnd@@UAEJUtagVARIANT@@PAPA_W@Z:PROC ; CWnd::get_accDefaultAction
EXTRN	?accSelect@CWnd@@UAEJJUtagVARIANT@@@Z:PROC	; CWnd::accSelect
EXTRN	?accLocation@CWnd@@UAEJPAJ000UtagVARIANT@@@Z:PROC ; CWnd::accLocation
EXTRN	?accNavigate@CWnd@@UAEJJUtagVARIANT@@PAU2@@Z:PROC ; CWnd::accNavigate
EXTRN	?accHitTest@CWnd@@UAEJJJPAUtagVARIANT@@@Z:PROC	; CWnd::accHitTest
EXTRN	?accDoDefaultAction@CWnd@@UAEJUtagVARIANT@@@Z:PROC ; CWnd::accDoDefaultAction
EXTRN	?put_accName@CWnd@@UAEJUtagVARIANT@@PA_W@Z:PROC	; CWnd::put_accName
EXTRN	?put_accValue@CWnd@@UAEJUtagVARIANT@@PA_W@Z:PROC ; CWnd::put_accValue
EXTRN	?SetProxy@CWnd@@UAEJPAUIAccessibleProxy@@@Z:PROC ; CWnd::SetProxy
EXTRN	?CreateAccessibleProxy@CWnd@@UAEJIJPAJ@Z:PROC	; CWnd::CreateAccessibleProxy
EXTRN	?OnCommand@CWnd@@MAEHIJ@Z:PROC			; CWnd::OnCommand
EXTRN	?OnNotify@CWnd@@MAEHIJPAJ@Z:PROC		; CWnd::OnNotify
EXTRN	?GetSuperWndProcAddr@CWnd@@MAEPAP6GJPAUHWND__@@IIJ@ZXZ:PROC ; CWnd::GetSuperWndProcAddr
EXTRN	?OnAmbientProperty@CWnd@@UAEHPAVCOleControlSite@@JPAUtagVARIANT@@@Z:PROC ; CWnd::OnAmbientProperty
EXTRN	?WindowProc@CWnd@@MAEJIIJ@Z:PROC		; CWnd::WindowProc
EXTRN	?OnWndMsg@CWnd@@MAEHIIJPAJ@Z:PROC		; CWnd::OnWndMsg
EXTRN	?DefWindowProcA@CWnd@@MAEJIIJ@Z:PROC		; CWnd::DefWindowProcA
EXTRN	?PostNcDestroy@CWnd@@MAEXXZ:PROC		; CWnd::PostNcDestroy
EXTRN	?OnChildNotify@CWnd@@MAEHIIJPAJ@Z:PROC		; CWnd::OnChildNotify
EXTRN	?OnTouchInputs@CWnd@@MAEHIPAUtagTOUCHINPUT@@@Z:PROC ; CWnd::OnTouchInputs
EXTRN	?OnTouchInput@CWnd@@MAEHVCPoint@@HHPAUtagTOUCHINPUT@@@Z:PROC ; CWnd::OnTouchInput
EXTRN	?GetGestureStatus@CWnd@@MAEKVCPoint@@@Z:PROC	; CWnd::GetGestureStatus
EXTRN	?OnGestureZoom@CWnd@@MAEHVCPoint@@J@Z:PROC	; CWnd::OnGestureZoom
EXTRN	?OnGesturePan@CWnd@@MAEHVCPoint@@0@Z:PROC	; CWnd::OnGesturePan
EXTRN	?OnGestureRotate@CWnd@@MAEHVCPoint@@N@Z:PROC	; CWnd::OnGestureRotate
EXTRN	?OnGestureTwoFingerTap@CWnd@@MAEHVCPoint@@@Z:PROC ; CWnd::OnGestureTwoFingerTap
EXTRN	?OnGesturePressAndTap@CWnd@@MAEHVCPoint@@J@Z:PROC ; CWnd::OnGesturePressAndTap
EXTRN	?ResizeDynamicLayout@CWnd@@MAEXXZ:PROC		; CWnd::ResizeDynamicLayout
EXTRN	?IsFrameWnd@CWnd@@UBEHXZ:PROC			; CWnd::IsFrameWnd
EXTRN	?OnFinalRelease@CWnd@@UAEXXZ:PROC		; CWnd::OnFinalRelease
EXTRN	?CreateControlContainer@CWnd@@MAEHPAPAVCOleControlContainer@@@Z:PROC ; CWnd::CreateControlContainer
EXTRN	?CreateControlSite@CWnd@@MAEHPAVCOleControlContainer@@PAPAVCOleControlSite@@IABU_GUID@@@Z:PROC ; CWnd::CreateControlSite
EXTRN	?Create@CDialog@@UAEHPBDPAVCWnd@@@Z:PROC	; CDialog::Create
EXTRN	?CreateIndirect@CDialog@@UAEHPBUDLGTEMPLATE@@PAVCWnd@@PAX@Z:PROC ; CDialog::CreateIndirect
EXTRN	?CreateIndirect@CDialog@@UAEHPAXPAVCWnd@@@Z:PROC ; CDialog::CreateIndirect
EXTRN	?DoModal@CDialog@@UAEHXZ:PROC			; CDialog::DoModal
EXTRN	?OnInitDialog@CDialog@@UAEHXZ:PROC		; CDialog::OnInitDialog
EXTRN	?OnSetFont@CDialog@@UAEXPAVCFont@@@Z:PROC	; CDialog::OnSetFont
EXTRN	??1CDialog@@UAE@XZ:PROC				; CDialog::~CDialog
EXTRN	?PreTranslateMessage@CDialog@@UAEHPAUtagMSG@@@Z:PROC ; CDialog::PreTranslateMessage
EXTRN	?OnCmdMsg@CDialog@@UAEHIHPAXPAUAFX_CMDHANDLERINFO@@@Z:PROC ; CDialog::OnCmdMsg
EXTRN	?CheckAutoCenter@CDialog@@UAEHXZ:PROC		; CDialog::CheckAutoCenter
EXTRN	?SetOccDialogInfo@CDialog@@MAEHPAU_AFX_OCC_DIALOG_INFO@@@Z:PROC ; CDialog::SetOccDialogInfo
EXTRN	?GetOccDialogInfo@CDialog@@MAEPAU_AFX_OCC_DIALOG_INFO@@XZ:PROC ; CDialog::GetOccDialogInfo
EXTRN	?PreInitDialog@CDialog@@MAEXXZ:PROC		; CDialog::PreInitDialog
EXTRN	??1CButton@@UAE@XZ:PROC				; CButton::~CButton
EXTRN	?AfxMessageBox@@YGHPBDII@Z:PROC			; AfxMessageBox
EXTRN	?GetRuntimeClass@CCommonDialog@@UBEPAUCRuntimeClass@@XZ:PROC ; CCommonDialog::GetRuntimeClass
EXTRN	?OnOK@CCommonDialog@@MAEXXZ:PROC		; CCommonDialog::OnOK
EXTRN	?OnCancel@CCommonDialog@@MAEXXZ:PROC		; CCommonDialog::OnCancel
EXTRN	?GetMessageMap@CCommonDialog@@MBEPBUAFX_MSGMAP@@XZ:PROC ; CCommonDialog::GetMessageMap
EXTRN	??_ECCommonDialog@@UAEPAXI@Z:PROC		; CCommonDialog::`vector deleting destructor'
EXTRN	??0CPrintDialog@@QAE@HKPAVCWnd@@@Z:PROC		; CPrintDialog::CPrintDialog
EXTRN	?DoModal@CPrintDialog@@UAEHXZ:PROC		; CPrintDialog::DoModal
EXTRN	?GetDefaults@CPrintDialog@@QAEHXZ:PROC		; CPrintDialog::GetDefaults
EXTRN	?GetHDC@CDlgPrintCfg@@QAEPAUHDC__@@XZ:PROC	; CDlgPrintCfg::GetHDC
EXTRN	?PrintAllByOnePageDataCount@CDlgPrintCfg@@QAEHXZ:PROC ; CDlgPrintCfg::PrintAllByOnePageDataCount
EXTRN	?GetPrintColor@CDlgPrintCfg@@QAEHXZ:PROC	; CDlgPrintCfg::GetPrintColor
EXTRN	?GetPrintRange@CDlgPrintCfg@@QAEHXZ:PROC	; CDlgPrintCfg::GetPrintRange
EXTRN	??0CDlgPrintCfg@@QAE@PAVCWnd@@@Z:PROC		; CDlgPrintCfg::CDlgPrintCfg
EXTRN	?OnDrawForPrint@CKTBChartCtrl@@QAEXAAVCDC@@AAVCBitmap@@VCRect@@H@Z:PROC ; CKTBChartCtrl::OnDrawForPrint
EXTRN	?SetScrollPosToNextPage@CKTBChartCtrl@@QAEHH@Z:PROC ; CKTBChartCtrl::SetScrollPosToNextPage
EXTRN	?ScrollTo@CKTBChartCtrl@@QAEHHH@Z:PROC		; CKTBChartCtrl::ScrollTo
EXTRN	?SetWholeView@CKTBChartCtrl@@QAEXH@Z:PROC	; CKTBChartCtrl::SetWholeView
EXTRN	?LockScrollUIUpdateWithScrollInfo@CKTBChartCtrl@@QAEXH@Z:PROC ; CKTBChartCtrl::LockScrollUIUpdateWithScrollInfo
EXTRN	@__security_check_cookie@4:PROC
EXTRN	___CxxFrameHandler3:PROC
EXTRN	??_7type_info@@6B@:QWORD			; type_info::`vftable'
EXTRN	?g_iMetaTable@@3VIMetaTable@@A:BYTE		; g_iMetaTable
EXTRN	___security_cookie:DWORD
;	COMDAT ??_C@_0BF@NCJNJJGJ@Could?5not?5start?5page@
CONST	SEGMENT
??_C@_0BF@NCJNJJGJ@Could?5not?5start?5page@ DB 'Could not start page', 00H ; `string'
CONST	ENDS
;	COMDAT ??_C@_0N@LCMHNOBI@Buy?5printer?$CB@
CONST	SEGMENT
??_C@_0N@LCMHNOBI@Buy?5printer?$CB@ DB 'Buy printer!', 00H ; `string'
CONST	ENDS
;	COMDAT ??_C@_0BL@BBEIPBHH@Printer?5Wouldn?8t?5initalize@
CONST	SEGMENT
??_C@_0BL@BBEIPBHH@Printer?5Wouldn?8t?5initalize@ DB 'Printer Wouldn''t i'
	DB	'nitalize', 00H				; `string'
CONST	ENDS
;	COMDAT ??_C@_0N@GIPCBNAK@NeoChart2001@
CONST	SEGMENT
??_C@_0N@GIPCBNAK@NeoChart2001@ DB 'NeoChart2001', 00H	; `string'
CONST	ENDS
;	COMDAT ??_C@_0P@DGIMNGKH@Buy?5a?5printer?$CB@
CONST	SEGMENT
??_C@_0P@DGIMNGKH@Buy?5a?5printer?$CB@ DB 'Buy a printer!', 00H ; `string'
CONST	ENDS
;	COMDAT ??_C@_0BA@ENJOCHIO@LoadResourceDLL@
CONST	SEGMENT
??_C@_0BA@ENJOCHIO@LoadResourceDLL@ DB 'LoadResourceDLL', 00H ; `string'
CONST	ENDS
;	COMDAT ??_R2CDialog@@8
rdata$r	SEGMENT
??_R2CDialog@@8 DD FLAT:??_R1A@?0A@EA@CDialog@@8	; CDialog::`RTTI Base Class Array'
	DD	FLAT:??_R1A@?0A@EA@CWnd@@8
	DD	FLAT:??_R1A@?0A@EA@CCmdTarget@@8
	DD	FLAT:??_R1A@?0A@EA@CObject@@8
rdata$r	ENDS
;	COMDAT ??_R3CDialog@@8
rdata$r	SEGMENT
??_R3CDialog@@8 DD 00H					; CDialog::`RTTI Class Hierarchy Descriptor'
	DD	00H
	DD	04H
	DD	FLAT:??_R2CDialog@@8
rdata$r	ENDS
;	COMDAT ??_R0?AVCDialog@@@8
data$rs	SEGMENT
??_R0?AVCDialog@@@8 DD FLAT:??_7type_info@@6B@		; CDialog `RTTI Type Descriptor'
	DD	00H
	DB	'.?AVCDialog@@', 00H
data$rs	ENDS
;	COMDAT ??_R1A@?0A@EA@CDialog@@8
rdata$r	SEGMENT
??_R1A@?0A@EA@CDialog@@8 DD FLAT:??_R0?AVCDialog@@@8	; CDialog::`RTTI Base Class Descriptor at (0,-1,0,64)'
	DD	03H
	DD	00H
	DD	0ffffffffH
	DD	00H
	DD	040H
	DD	FLAT:??_R3CDialog@@8
rdata$r	ENDS
;	COMDAT ??_R1A@?0A@EA@CCommonDialog@@8
rdata$r	SEGMENT
??_R1A@?0A@EA@CCommonDialog@@8 DD FLAT:??_R0?AVCCommonDialog@@@8 ; CCommonDialog::`RTTI Base Class Descriptor at (0,-1,0,64)'
	DD	04H
	DD	00H
	DD	0ffffffffH
	DD	00H
	DD	040H
	DD	FLAT:??_R3CCommonDialog@@8
rdata$r	ENDS
;	COMDAT ??_R2CCommonDialog@@8
rdata$r	SEGMENT
??_R2CCommonDialog@@8 DD FLAT:??_R1A@?0A@EA@CCommonDialog@@8 ; CCommonDialog::`RTTI Base Class Array'
	DD	FLAT:??_R1A@?0A@EA@CDialog@@8
	DD	FLAT:??_R1A@?0A@EA@CWnd@@8
	DD	FLAT:??_R1A@?0A@EA@CCmdTarget@@8
	DD	FLAT:??_R1A@?0A@EA@CObject@@8
rdata$r	ENDS
;	COMDAT ??_R3CCommonDialog@@8
rdata$r	SEGMENT
??_R3CCommonDialog@@8 DD 00H				; CCommonDialog::`RTTI Class Hierarchy Descriptor'
	DD	00H
	DD	05H
	DD	FLAT:??_R2CCommonDialog@@8
rdata$r	ENDS
;	COMDAT ??_R0?AVCCommonDialog@@@8
data$rs	SEGMENT
??_R0?AVCCommonDialog@@@8 DD FLAT:??_7type_info@@6B@	; CCommonDialog `RTTI Type Descriptor'
	DD	00H
	DB	'.?AVCCommonDialog@@', 00H
data$rs	ENDS
;	COMDAT ??_R4CCommonDialog@@6B@
rdata$r	SEGMENT
??_R4CCommonDialog@@6B@ DD 00H				; CCommonDialog::`RTTI Complete Object Locator'
	DD	00H
	DD	00H
	DD	FLAT:??_R0?AVCCommonDialog@@@8
	DD	FLAT:??_R3CCommonDialog@@8
rdata$r	ENDS
;	COMDAT ??_R2CCmdTarget@@8
rdata$r	SEGMENT
??_R2CCmdTarget@@8 DD FLAT:??_R1A@?0A@EA@CCmdTarget@@8	; CCmdTarget::`RTTI Base Class Array'
	DD	FLAT:??_R1A@?0A@EA@CObject@@8
rdata$r	ENDS
;	COMDAT ??_R3CCmdTarget@@8
rdata$r	SEGMENT
??_R3CCmdTarget@@8 DD 00H				; CCmdTarget::`RTTI Class Hierarchy Descriptor'
	DD	00H
	DD	02H
	DD	FLAT:??_R2CCmdTarget@@8
rdata$r	ENDS
;	COMDAT ??_R0?AVCCmdTarget@@@8
data$rs	SEGMENT
??_R0?AVCCmdTarget@@@8 DD FLAT:??_7type_info@@6B@	; CCmdTarget `RTTI Type Descriptor'
	DD	00H
	DB	'.?AVCCmdTarget@@', 00H
data$rs	ENDS
;	COMDAT ??_R1A@?0A@EA@CCmdTarget@@8
rdata$r	SEGMENT
??_R1A@?0A@EA@CCmdTarget@@8 DD FLAT:??_R0?AVCCmdTarget@@@8 ; CCmdTarget::`RTTI Base Class Descriptor at (0,-1,0,64)'
	DD	01H
	DD	00H
	DD	0ffffffffH
	DD	00H
	DD	040H
	DD	FLAT:??_R3CCmdTarget@@8
rdata$r	ENDS
;	COMDAT ??_R2CWnd@@8
rdata$r	SEGMENT
??_R2CWnd@@8 DD	FLAT:??_R1A@?0A@EA@CWnd@@8		; CWnd::`RTTI Base Class Array'
	DD	FLAT:??_R1A@?0A@EA@CCmdTarget@@8
	DD	FLAT:??_R1A@?0A@EA@CObject@@8
rdata$r	ENDS
;	COMDAT ??_R3CWnd@@8
rdata$r	SEGMENT
??_R3CWnd@@8 DD	00H					; CWnd::`RTTI Class Hierarchy Descriptor'
	DD	00H
	DD	03H
	DD	FLAT:??_R2CWnd@@8
rdata$r	ENDS
;	COMDAT ??_R0?AVCWnd@@@8
data$rs	SEGMENT
??_R0?AVCWnd@@@8 DD FLAT:??_7type_info@@6B@		; CWnd `RTTI Type Descriptor'
	DD	00H
	DB	'.?AVCWnd@@', 00H
data$rs	ENDS
;	COMDAT ??_R1A@?0A@EA@CWnd@@8
rdata$r	SEGMENT
??_R1A@?0A@EA@CWnd@@8 DD FLAT:??_R0?AVCWnd@@@8		; CWnd::`RTTI Base Class Descriptor at (0,-1,0,64)'
	DD	02H
	DD	00H
	DD	0ffffffffH
	DD	00H
	DD	040H
	DD	FLAT:??_R3CWnd@@8
rdata$r	ENDS
;	COMDAT ??_R1A@?0A@EA@CBitmap@@8
rdata$r	SEGMENT
??_R1A@?0A@EA@CBitmap@@8 DD FLAT:??_R0?AVCBitmap@@@8	; CBitmap::`RTTI Base Class Descriptor at (0,-1,0,64)'
	DD	02H
	DD	00H
	DD	0ffffffffH
	DD	00H
	DD	040H
	DD	FLAT:??_R3CBitmap@@8
rdata$r	ENDS
;	COMDAT ??_R2CBitmap@@8
rdata$r	SEGMENT
??_R2CBitmap@@8 DD FLAT:??_R1A@?0A@EA@CBitmap@@8	; CBitmap::`RTTI Base Class Array'
	DD	FLAT:??_R1A@?0A@EA@CGdiObject@@8
	DD	FLAT:??_R1A@?0A@EA@CObject@@8
rdata$r	ENDS
;	COMDAT ??_R3CBitmap@@8
rdata$r	SEGMENT
??_R3CBitmap@@8 DD 00H					; CBitmap::`RTTI Class Hierarchy Descriptor'
	DD	00H
	DD	03H
	DD	FLAT:??_R2CBitmap@@8
rdata$r	ENDS
;	COMDAT ??_R0?AVCBitmap@@@8
data$rs	SEGMENT
??_R0?AVCBitmap@@@8 DD FLAT:??_7type_info@@6B@		; CBitmap `RTTI Type Descriptor'
	DD	00H
	DB	'.?AVCBitmap@@', 00H
data$rs	ENDS
;	COMDAT ??_R4CBitmap@@6B@
rdata$r	SEGMENT
??_R4CBitmap@@6B@ DD 00H				; CBitmap::`RTTI Complete Object Locator'
	DD	00H
	DD	00H
	DD	FLAT:??_R0?AVCBitmap@@@8
	DD	FLAT:??_R3CBitmap@@8
rdata$r	ENDS
;	COMDAT ??_R1A@?0A@EA@CGdiObject@@8
rdata$r	SEGMENT
??_R1A@?0A@EA@CGdiObject@@8 DD FLAT:??_R0?AVCGdiObject@@@8 ; CGdiObject::`RTTI Base Class Descriptor at (0,-1,0,64)'
	DD	01H
	DD	00H
	DD	0ffffffffH
	DD	00H
	DD	040H
	DD	FLAT:??_R3CGdiObject@@8
rdata$r	ENDS
;	COMDAT ??_R2CGdiObject@@8
rdata$r	SEGMENT
??_R2CGdiObject@@8 DD FLAT:??_R1A@?0A@EA@CGdiObject@@8	; CGdiObject::`RTTI Base Class Array'
	DD	FLAT:??_R1A@?0A@EA@CObject@@8
rdata$r	ENDS
;	COMDAT ??_R3CGdiObject@@8
rdata$r	SEGMENT
??_R3CGdiObject@@8 DD 00H				; CGdiObject::`RTTI Class Hierarchy Descriptor'
	DD	00H
	DD	02H
	DD	FLAT:??_R2CGdiObject@@8
rdata$r	ENDS
;	COMDAT ??_R0?AVCGdiObject@@@8
data$rs	SEGMENT
??_R0?AVCGdiObject@@@8 DD FLAT:??_7type_info@@6B@	; CGdiObject `RTTI Type Descriptor'
	DD	00H
	DB	'.?AVCGdiObject@@', 00H
data$rs	ENDS
;	COMDAT ??_R4CGdiObject@@6B@
rdata$r	SEGMENT
??_R4CGdiObject@@6B@ DD 00H				; CGdiObject::`RTTI Complete Object Locator'
	DD	00H
	DD	00H
	DD	FLAT:??_R0?AVCGdiObject@@@8
	DD	FLAT:??_R3CGdiObject@@8
rdata$r	ENDS
;	COMDAT ??_R1A@?0A@EA@CObject@@8
rdata$r	SEGMENT
??_R1A@?0A@EA@CObject@@8 DD FLAT:??_R0?AVCObject@@@8	; CObject::`RTTI Base Class Descriptor at (0,-1,0,64)'
	DD	00H
	DD	00H
	DD	0ffffffffH
	DD	00H
	DD	040H
	DD	FLAT:??_R3CObject@@8
rdata$r	ENDS
;	COMDAT ??_R2CObject@@8
rdata$r	SEGMENT
??_R2CObject@@8 DD FLAT:??_R1A@?0A@EA@CObject@@8	; CObject::`RTTI Base Class Array'
rdata$r	ENDS
;	COMDAT ??_R3CObject@@8
rdata$r	SEGMENT
??_R3CObject@@8 DD 00H					; CObject::`RTTI Class Hierarchy Descriptor'
	DD	00H
	DD	01H
	DD	FLAT:??_R2CObject@@8
rdata$r	ENDS
;	COMDAT ??_R0?AVCObject@@@8
data$rs	SEGMENT
??_R0?AVCObject@@@8 DD FLAT:??_7type_info@@6B@		; CObject `RTTI Type Descriptor'
	DD	00H
	DB	'.?AVCObject@@', 00H
data$rs	ENDS
;	COMDAT ??_7CCommonDialog@@6B@
CONST	SEGMENT
??_7CCommonDialog@@6B@ DD FLAT:??_R4CCommonDialog@@6B@	; CCommonDialog::`vftable'
	DD	FLAT:?GetRuntimeClass@CCommonDialog@@UBEPAUCRuntimeClass@@XZ
	DD	FLAT:??_ECCommonDialog@@UAEPAXI@Z
	DD	FLAT:?Serialize@CObject@@UAEXAAVCArchive@@@Z
	DD	FLAT:?AssertValid@CObject@@UBEXXZ
	DD	FLAT:?Dump@CObject@@UBEXAAVCDumpContext@@@Z
	DD	FLAT:?OnCmdMsg@CDialog@@UAEHIHPAXPAUAFX_CMDHANDLERINFO@@@Z
	DD	FLAT:?OnFinalRelease@CWnd@@UAEXXZ
	DD	FLAT:?IsInvokeAllowed@CCmdTarget@@UAEHJ@Z
	DD	FLAT:?GetDispatchIID@CCmdTarget@@UAEHPAU_GUID@@@Z
	DD	FLAT:?GetTypeInfoCount@CCmdTarget@@UAEIXZ
	DD	FLAT:?GetTypeLibCache@CCmdTarget@@UAEPAVCTypeLibCache@@XZ
	DD	FLAT:?GetTypeLib@CCmdTarget@@UAEJKPAPAUITypeLib@@@Z
	DD	FLAT:?GetMessageMap@CCommonDialog@@MBEPBUAFX_MSGMAP@@XZ
	DD	FLAT:?GetCommandMap@CCmdTarget@@MBEPBUAFX_OLECMDMAP@@XZ
	DD	FLAT:?GetDispatchMap@CCmdTarget@@MBEPBUAFX_DISPMAP@@XZ
	DD	FLAT:?GetConnectionMap@CCmdTarget@@MBEPBUAFX_CONNECTIONMAP@@XZ
	DD	FLAT:?GetInterfaceMap@CWnd@@MBEPBUAFX_INTERFACEMAP@@XZ
	DD	FLAT:?GetEventSinkMap@CCmdTarget@@MBEPBUAFX_EVENTSINKMAP@@XZ
	DD	FLAT:?OnCreateAggregates@CCmdTarget@@UAEHXZ
	DD	FLAT:?GetInterfaceHook@CCmdTarget@@UAEPAUIUnknown@@PBX@Z
	DD	FLAT:?GetExtraConnectionPoints@CCmdTarget@@MAEHPAVCPtrArray@@@Z
	DD	FLAT:?GetConnectionHook@CCmdTarget@@MAEPAUIConnectionPoint@@ABU_GUID@@@Z
	DD	FLAT:?PreSubclassWindow@CWnd@@UAEXXZ
	DD	FLAT:?Create@CWnd@@UAEHPBD0KABUtagRECT@@PAV1@IPAUCCreateContext@@@Z
	DD	FLAT:?CreateEx@CWnd@@UAEHKPBD0KABUtagRECT@@PAV1@IPAX@Z
	DD	FLAT:?CreateEx@CWnd@@UAEHKPBD0KHHHHPAUHWND__@@PAUHMENU__@@PAX@Z
	DD	FLAT:?DestroyWindow@CWnd@@UAEHXZ
	DD	FLAT:?PreCreateWindow@CWnd@@UAEHAAUtagCREATESTRUCTA@@@Z
	DD	FLAT:?CalcWindowRect@CWnd@@UAEXPAUtagRECT@@I@Z
	DD	FLAT:?GetMenu@CWnd@@UBEPAVCMenu@@XZ
	DD	FLAT:?SetMenu@CWnd@@UAEHPAVCMenu@@@Z
	DD	FLAT:?OnToolHitTest@CWnd@@UBEHVCPoint@@PAUtagTOOLINFOA@@@Z
	DD	FLAT:?GetScrollBarCtrl@CWnd@@UBEPAVCScrollBar@@H@Z
	DD	FLAT:?WinHelpA@CWnd@@UAEXKI@Z
	DD	FLAT:?HtmlHelpA@CWnd@@UAEXKI@Z
	DD	FLAT:?WinHelpInternal@CWnd@@UAEXKI@Z
	DD	FLAT:?ContinueModal@CWnd@@UAEHXZ
	DD	FLAT:?EndModalLoop@CWnd@@UAEXH@Z
	DD	FLAT:?OnDrawIconicThumbnailOrLivePreview@CWnd@@UAEXAAVCDC@@VCRect@@VCSize@@HAAH@Z
	DD	FLAT:?EnsureStdObj@CWnd@@UAEJXZ
	DD	FLAT:?get_accParent@CWnd@@UAEJPAPAUIDispatch@@@Z
	DD	FLAT:?get_accChildCount@CWnd@@UAEJPAJ@Z
	DD	FLAT:?get_accChild@CWnd@@UAEJUtagVARIANT@@PAPAUIDispatch@@@Z
	DD	FLAT:?get_accName@CWnd@@UAEJUtagVARIANT@@PAPA_W@Z
	DD	FLAT:?get_accValue@CWnd@@UAEJUtagVARIANT@@PAPA_W@Z
	DD	FLAT:?get_accDescription@CWnd@@UAEJUtagVARIANT@@PAPA_W@Z
	DD	FLAT:?get_accRole@CWnd@@UAEJUtagVARIANT@@PAU2@@Z
	DD	FLAT:?get_accState@CWnd@@UAEJUtagVARIANT@@PAU2@@Z
	DD	FLAT:?get_accHelp@CWnd@@UAEJUtagVARIANT@@PAPA_W@Z
	DD	FLAT:?get_accHelpTopic@CWnd@@UAEJPAPA_WUtagVARIANT@@PAJ@Z
	DD	FLAT:?get_accKeyboardShortcut@CWnd@@UAEJUtagVARIANT@@PAPA_W@Z
	DD	FLAT:?get_accFocus@CWnd@@UAEJPAUtagVARIANT@@@Z
	DD	FLAT:?get_accSelection@CWnd@@UAEJPAUtagVARIANT@@@Z
	DD	FLAT:?get_accDefaultAction@CWnd@@UAEJUtagVARIANT@@PAPA_W@Z
	DD	FLAT:?accSelect@CWnd@@UAEJJUtagVARIANT@@@Z
	DD	FLAT:?accLocation@CWnd@@UAEJPAJ000UtagVARIANT@@@Z
	DD	FLAT:?accNavigate@CWnd@@UAEJJUtagVARIANT@@PAU2@@Z
	DD	FLAT:?accHitTest@CWnd@@UAEJJJPAUtagVARIANT@@@Z
	DD	FLAT:?accDoDefaultAction@CWnd@@UAEJUtagVARIANT@@@Z
	DD	FLAT:?put_accName@CWnd@@UAEJUtagVARIANT@@PA_W@Z
	DD	FLAT:?put_accValue@CWnd@@UAEJUtagVARIANT@@PA_W@Z
	DD	FLAT:?SetProxy@CWnd@@UAEJPAUIAccessibleProxy@@@Z
	DD	FLAT:?CreateAccessibleProxy@CWnd@@UAEJIJPAJ@Z
	DD	FLAT:?OnCommand@CWnd@@MAEHIJ@Z
	DD	FLAT:?OnNotify@CWnd@@MAEHIJPAJ@Z
	DD	FLAT:?GetSuperWndProcAddr@CWnd@@MAEPAP6GJPAUHWND__@@IIJ@ZXZ
	DD	FLAT:?DoDataExchange@CWnd@@MAEXPAVCDataExchange@@@Z
	DD	FLAT:?BeginModalState@CWnd@@UAEXXZ
	DD	FLAT:?EndModalState@CWnd@@UAEXXZ
	DD	FLAT:?PreTranslateMessage@CDialog@@UAEHPAUtagMSG@@@Z
	DD	FLAT:?OnAmbientProperty@CWnd@@UAEHPAVCOleControlSite@@JPAUtagVARIANT@@@Z
	DD	FLAT:?WindowProc@CWnd@@MAEJIIJ@Z
	DD	FLAT:?OnWndMsg@CWnd@@MAEHIIJPAJ@Z
	DD	FLAT:?DefWindowProcA@CWnd@@MAEJIIJ@Z
	DD	FLAT:?PostNcDestroy@CWnd@@MAEXXZ
	DD	FLAT:?OnChildNotify@CWnd@@MAEHIIJPAJ@Z
	DD	FLAT:?OnTouchInputs@CWnd@@MAEHIPAUtagTOUCHINPUT@@@Z
	DD	FLAT:?OnTouchInput@CWnd@@MAEHVCPoint@@HHPAUtagTOUCHINPUT@@@Z
	DD	FLAT:?GetGestureStatus@CWnd@@MAEKVCPoint@@@Z
	DD	FLAT:?OnGestureZoom@CWnd@@MAEHVCPoint@@J@Z
	DD	FLAT:?OnGesturePan@CWnd@@MAEHVCPoint@@0@Z
	DD	FLAT:?OnGestureRotate@CWnd@@MAEHVCPoint@@N@Z
	DD	FLAT:?OnGestureTwoFingerTap@CWnd@@MAEHVCPoint@@@Z
	DD	FLAT:?OnGesturePressAndTap@CWnd@@MAEHVCPoint@@J@Z
	DD	FLAT:?ResizeDynamicLayout@CWnd@@MAEXXZ
	DD	FLAT:?CheckAutoCenter@CDialog@@UAEHXZ
	DD	FLAT:?IsFrameWnd@CWnd@@UBEHXZ
	DD	FLAT:?CreateControlContainer@CWnd@@MAEHPAPAVCOleControlContainer@@@Z
	DD	FLAT:?CreateControlSite@CWnd@@MAEHPAVCOleControlContainer@@PAPAVCOleControlSite@@IABU_GUID@@@Z
	DD	FLAT:?SetOccDialogInfo@CDialog@@MAEHPAU_AFX_OCC_DIALOG_INFO@@@Z
	DD	FLAT:?GetOccDialogInfo@CDialog@@MAEPAU_AFX_OCC_DIALOG_INFO@@XZ
	DD	FLAT:?Create@CDialog@@UAEHIPAVCWnd@@@Z
	DD	FLAT:?Create@CDialog@@UAEHPBDPAVCWnd@@@Z
	DD	FLAT:?CreateIndirect@CDialog@@UAEHPAXPAVCWnd@@@Z
	DD	FLAT:?CreateIndirect@CDialog@@UAEHPBUDLGTEMPLATE@@PAVCWnd@@PAX@Z
	DD	FLAT:?DoModal@CDialog@@UAEHXZ
	DD	FLAT:?OnInitDialog@CDialog@@UAEHXZ
	DD	FLAT:?OnSetFont@CDialog@@UAEXPAVCFont@@@Z
	DD	FLAT:?OnOK@CCommonDialog@@MAEXXZ
	DD	FLAT:?OnCancel@CCommonDialog@@MAEXXZ
	DD	FLAT:?PreInitDialog@CDialog@@MAEXXZ
CONST	ENDS
;	COMDAT ??_C@_0N@OMEMOKLE@?$CFTs?5?$CI?$CFTs?3?$CFd?$CJ@
CONST	SEGMENT
??_C@_0N@OMEMOKLE@?$CFTs?5?$CI?$CFTs?3?$CFd?$CJ@ DB '%Ts (%Ts:%d)', 00H ; `string'
CONST	ENDS
;	COMDAT ??_C@_0BB@HBOOMJBF@?$CFTs?5?$CI?$CFTs?3?$CFd?$CJ?6?$CFTs@
CONST	SEGMENT
??_C@_0BB@HBOOMJBF@?$CFTs?5?$CI?$CFTs?3?$CFd?$CJ?6?$CFTs@ DB '%Ts (%Ts:%d'
	DB	')', 0aH, '%Ts', 00H				; `string'
CONST	ENDS
;	COMDAT ??_C@_0BP@OIEOKIDM@Exception?5thrown?5in?5destructor@
CONST	SEGMENT
??_C@_0BP@OIEOKIDM@Exception?5thrown?5in?5destructor@ DB 'Exception throw'
	DB	'n in destructor', 00H			; `string'
CONST	ENDS
;	COMDAT ??_C@_0HD@JJCHHHNK@C?3?2Program?5Files?5?$CIx86?$CJ?2Microsof@
CONST	SEGMENT
??_C@_0HD@JJCHHHNK@C?3?2Program?5Files?5?$CIx86?$CJ?2Microsof@ DB 'C:\Pro'
	DB	'gram Files (x86)\Microsoft Visual Studio\2019\Community\VC\To'
	DB	'ols\MSVC\14.29.30133\atlmfc\include\afxwin1.inl', 00H ; `string'
CONST	ENDS
;	COMDAT ??_7CBitmap@@6B@
CONST	SEGMENT
??_7CBitmap@@6B@ DD FLAT:??_R4CBitmap@@6B@		; CBitmap::`vftable'
	DD	FLAT:?GetRuntimeClass@CBitmap@@UBEPAUCRuntimeClass@@XZ
	DD	FLAT:??_ECBitmap@@UAEPAXI@Z
	DD	FLAT:?Serialize@CObject@@UAEXAAVCArchive@@@Z
	DD	FLAT:?AssertValid@CObject@@UBEXXZ
	DD	FLAT:?Dump@CObject@@UBEXAAVCDumpContext@@@Z
CONST	ENDS
;	COMDAT ??_7CGdiObject@@6B@
CONST	SEGMENT
??_7CGdiObject@@6B@ DD FLAT:??_R4CGdiObject@@6B@	; CGdiObject::`vftable'
	DD	FLAT:?GetRuntimeClass@CGdiObject@@UBEPAUCRuntimeClass@@XZ
	DD	FLAT:??_ECGdiObject@@UAEPAXI@Z
	DD	FLAT:?Serialize@CObject@@UAEXAAVCArchive@@@Z
	DD	FLAT:?AssertValid@CObject@@UBEXXZ
	DD	FLAT:?Dump@CObject@@UBEXAAVCDumpContext@@@Z
CONST	ENDS
;	COMDAT ??_R0PAVCException@@@8
data$r	SEGMENT
??_R0PAVCException@@@8 DD FLAT:??_7type_info@@6B@	; CException * `RTTI Type Descriptor'
	DD	00H
	DB	'.PAVCException@@', 00H
data$r	ENDS
;	COMDAT xdata$x
xdata$x	SEGMENT
__ehfuncinfo$??1CMultiLanguageResourceSetter@@QAE@XZ DD 019930522H
	DD	00H
	DD	00H
	DD	2 DUP(00H)
	DD	2 DUP(00H)
	DD	00H
	DD	05H
xdata$x	ENDS
;	COMDAT xdata$x
xdata$x	SEGMENT
__unwindtable$?OnDraw@CPrintController@@AAEXPAVCDC@@HABVCRect@@1PAVCKTBChartCtrl@@@Z DD 0ffffffffH
	DD	FLAT:__unwindfunclet$?OnDraw@CPrintController@@AAEXPAVCDC@@HABVCRect@@1PAVCKTBChartCtrl@@@Z$0
	DD	00H
	DD	FLAT:__unwindfunclet$?OnDraw@CPrintController@@AAEXPAVCDC@@HABVCRect@@1PAVCKTBChartCtrl@@@Z$1
__ehfuncinfo$?OnDraw@CPrintController@@AAEXPAVCDC@@HABVCRect@@1PAVCKTBChartCtrl@@@Z DD 019930522H
	DD	02H
	DD	FLAT:__unwindtable$?OnDraw@CPrintController@@AAEXPAVCDC@@HABVCRect@@1PAVCKTBChartCtrl@@@Z
	DD	2 DUP(00H)
	DD	2 DUP(00H)
	DD	00H
	DD	01H
xdata$x	ENDS
;	COMDAT xdata$x
xdata$x	SEGMENT
__ehfuncinfo$?PopUpMyPrintDlg@CPrintController@@AAEXABVCRect@@PAVCKTBChartCtrl@@@Z DD 019930522H
	DD	05H
	DD	FLAT:__unwindtable$?PopUpMyPrintDlg@CPrintController@@AAEXABVCRect@@PAVCKTBChartCtrl@@@Z
	DD	2 DUP(00H)
	DD	2 DUP(00H)
	DD	00H
	DD	01H
__unwindtable$?PopUpMyPrintDlg@CPrintController@@AAEXABVCRect@@PAVCKTBChartCtrl@@@Z DD 0ffffffffH
	DD	FLAT:__unwindfunclet$?PopUpMyPrintDlg@CPrintController@@AAEXABVCRect@@PAVCKTBChartCtrl@@@Z$0
	DD	00H
	DD	FLAT:__unwindfunclet$?PopUpMyPrintDlg@CPrintController@@AAEXABVCRect@@PAVCKTBChartCtrl@@@Z$1
	DD	01H
	DD	FLAT:__unwindfunclet$?PopUpMyPrintDlg@CPrintController@@AAEXABVCRect@@PAVCKTBChartCtrl@@@Z$2
	DD	02H
	DD	FLAT:__unwindfunclet$?PopUpMyPrintDlg@CPrintController@@AAEXABVCRect@@PAVCKTBChartCtrl@@@Z$3
	DD	0ffffffffH
	DD	FLAT:___std_terminate
xdata$x	ENDS
;	COMDAT xdata$x
xdata$x	SEGMENT
__unwindtable$?PopUpOsPrintDlg@CPrintController@@AAEXABVCRect@@PAVCKTBChartCtrl@@@Z DD 0ffffffffH
	DD	FLAT:__unwindfunclet$?PopUpOsPrintDlg@CPrintController@@AAEXABVCRect@@PAVCKTBChartCtrl@@@Z$0
	DD	00H
	DD	FLAT:__unwindfunclet$?PopUpOsPrintDlg@CPrintController@@AAEXABVCRect@@PAVCKTBChartCtrl@@@Z$1
__ehfuncinfo$?PopUpOsPrintDlg@CPrintController@@AAEXABVCRect@@PAVCKTBChartCtrl@@@Z DD 019930522H
	DD	02H
	DD	FLAT:__unwindtable$?PopUpOsPrintDlg@CPrintController@@AAEXABVCRect@@PAVCKTBChartCtrl@@@Z
	DD	2 DUP(00H)
	DD	2 DUP(00H)
	DD	00H
	DD	01H
xdata$x	ENDS
;	COMDAT xdata$x
xdata$x	SEGMENT
__ehfuncinfo$?PopUpOsAndMyPrintDlg@CPrintController@@AAEXABVCRect@@PAVCKTBChartCtrl@@@Z DD 019930522H
	DD	05H
	DD	FLAT:__unwindtable$?PopUpOsAndMyPrintDlg@CPrintController@@AAEXABVCRect@@PAVCKTBChartCtrl@@@Z
	DD	2 DUP(00H)
	DD	2 DUP(00H)
	DD	00H
	DD	01H
__unwindtable$?PopUpOsAndMyPrintDlg@CPrintController@@AAEXABVCRect@@PAVCKTBChartCtrl@@@Z DD 0ffffffffH
	DD	FLAT:__unwindfunclet$?PopUpOsAndMyPrintDlg@CPrintController@@AAEXABVCRect@@PAVCKTBChartCtrl@@@Z$0
	DD	00H
	DD	FLAT:__unwindfunclet$?PopUpOsAndMyPrintDlg@CPrintController@@AAEXABVCRect@@PAVCKTBChartCtrl@@@Z$1
	DD	0ffffffffH
	DD	00H
	DD	01H
	DD	FLAT:__unwindfunclet$?PopUpOsAndMyPrintDlg@CPrintController@@AAEXABVCRect@@PAVCKTBChartCtrl@@@Z$2
	DD	0ffffffffH
	DD	FLAT:___std_terminate
xdata$x	ENDS
;	COMDAT xdata$x
xdata$x	SEGMENT
__catchsym$??1CGdiObject@@UAE@XZ$3 DD 00H
	DD	FLAT:??_R0PAVCException@@@8
	DD	0fffffde4H
	DD	FLAT:__catch$??1CGdiObject@@UAE@XZ$0
__tryblocktable$??1CGdiObject@@UAE@XZ DD 00H
	DD	00H
	DD	02H
	DD	01H
	DD	FLAT:__catchsym$??1CGdiObject@@UAE@XZ$3
__unwindtable$??1CGdiObject@@UAE@XZ DD 0ffffffffH
	DD	00H
	DD	0ffffffffH
	DD	00H
	DD	01H
	DD	FLAT:__unwindfunclet$??1CGdiObject@@UAE@XZ$2
__ehfuncinfo$??1CGdiObject@@UAE@XZ DD 019930522H
	DD	03H
	DD	FLAT:__unwindtable$??1CGdiObject@@UAE@XZ
	DD	01H
	DD	FLAT:__tryblocktable$??1CGdiObject@@UAE@XZ
	DD	2 DUP(00H)
	DD	00H
	DD	05H
xdata$x	ENDS
; Function compile flags: /Ogtp
;	COMDAT ??1CDlgPrintCfg@@UAE@XZ
_TEXT	SEGMENT
??1CDlgPrintCfg@@UAE@XZ PROC				; CDlgPrintCfg::~CDlgPrintCfg, COMDAT
; _this$ = ecx
  00000	56		 push	 esi
  00001	8b f1		 mov	 esi, ecx
  00003	8d 8e a8 00 00
	00		 lea	 ecx, DWORD PTR [esi+168]
  00009	e8 00 00 00 00	 call	 ??1CButton@@UAE@XZ	; CButton::~CButton
  0000e	8b ce		 mov	 ecx, esi
  00010	5e		 pop	 esi
  00011	e9 00 00 00 00	 jmp	 ??1CDialog@@UAE@XZ	; CDialog::~CDialog
??1CDlgPrintCfg@@UAE@XZ ENDP				; CDlgPrintCfg::~CDlgPrintCfg
_TEXT	ENDS
; Function compile flags: /Ogtp
; File D:\git\src\IBK\IBK_DRFN\ProjSrc\SrcChartEx\ChartOCX\Include_Chart\Dll_Load\IMetaTable.h
; File C:\Program Files (x86)\Microsoft Visual Studio\2019\Community\VC\Tools\MSVC\14.29.30133\atlmfc\include\afxwin1.inl
; File D:\git\src\IBK\IBK_DRFN\ProjSrc\SrcChartEx\ChartOCX\Include_Chart\Dll_Load\IMetaTable.h
;	COMDAT ??1CMultiLanguageResourceSetter@@QAE@XZ
_TEXT	SEGMENT
__$EHRec$ = -12						; size = 12
??1CMultiLanguageResourceSetter@@QAE@XZ PROC		; CMultiLanguageResourceSetter::~CMultiLanguageResourceSetter, COMDAT
; _this$ = ecx

; 1036 : 	{

  00000	55		 push	 ebp
  00001	8b ec		 mov	 ebp, esp
  00003	6a ff		 push	 -1
  00005	68 00 00 00 00	 push	 __ehhandler$??1CMultiLanguageResourceSetter@@QAE@XZ
  0000a	64 a1 00 00 00
	00		 mov	 eax, DWORD PTR fs:0
  00010	50		 push	 eax
  00011	56		 push	 esi
  00012	a1 00 00 00 00	 mov	 eax, DWORD PTR ___security_cookie
  00017	33 c5		 xor	 eax, ebp
  00019	50		 push	 eax
  0001a	8d 45 f4	 lea	 eax, DWORD PTR __$EHRec$[ebp]
  0001d	64 a3 00 00 00
	00		 mov	 DWORD PTR fs:0, eax

; 1037 : 		AfxSetResourceHandle( m_hInstance);

  00023	8b 31		 mov	 esi, DWORD PTR [ecx]
; File C:\Program Files (x86)\Microsoft Visual Studio\2019\Community\VC\Tools\MSVC\14.29.30133\atlmfc\include\afxwin1.inl

; 27   : 	{ ASSERT(hInstResource != NULL); afxCurrentResourceHandle = hInstResource; }

  00025	e8 00 00 00 00	 call	 ?AfxGetModuleState@@YGPAVAFX_MODULE_STATE@@XZ ; AfxGetModuleState
  0002a	89 70 0c	 mov	 DWORD PTR [eax+12], esi
; File D:\git\src\IBK\IBK_DRFN\ProjSrc\SrcChartEx\ChartOCX\Include_Chart\Dll_Load\IMetaTable.h

; 1038 : 	}

  0002d	8b 4d f4	 mov	 ecx, DWORD PTR __$EHRec$[ebp]
  00030	64 89 0d 00 00
	00 00		 mov	 DWORD PTR fs:0, ecx
  00037	59		 pop	 ecx
  00038	5e		 pop	 esi
  00039	8b e5		 mov	 esp, ebp
  0003b	5d		 pop	 ebp
  0003c	c3		 ret	 0
  0003d	cc		 int	 3
  0003e	cc		 int	 3
  0003f	cc		 int	 3
  00040	cc		 int	 3
  00041	cc		 int	 3
_TEXT	ENDS
;	COMDAT text$x
text$x	SEGMENT
__ehhandler$??1CMultiLanguageResourceSetter@@QAE@XZ:
  00000	90		 npad	 1
  00001	90		 npad	 1
  00002	8b 54 24 08	 mov	 edx, DWORD PTR [esp+8]
  00006	8d 42 0c	 lea	 eax, DWORD PTR [edx+12]
  00009	8b 4a f8	 mov	 ecx, DWORD PTR [edx-8]
  0000c	33 c8		 xor	 ecx, eax
  0000e	e8 00 00 00 00	 call	 @__security_check_cookie@4
  00013	b8 00 00 00 00	 mov	 eax, OFFSET __ehfuncinfo$??1CMultiLanguageResourceSetter@@QAE@XZ
  00018	e9 00 00 00 00	 jmp	 ___CxxFrameHandler3
text$x	ENDS
??1CMultiLanguageResourceSetter@@QAE@XZ ENDP		; CMultiLanguageResourceSetter::~CMultiLanguageResourceSetter
; Function compile flags: /Ogtp
; File D:\git\src\IBK\IBK_DRFN\ProjSrc\SrcChartEx\ChartOCX\Include_Chart\Dll_Load\IMetaTable.h
;	COMDAT ?LoadResourceDLL@IMetaTable@@QAEPAUHINSTANCE__@@PAUHWND__@@PAU2@@Z
_TEXT	SEGMENT
_p1$ = 8						; size = 4
_p2$ = 12						; size = 4
?LoadResourceDLL@IMetaTable@@QAEPAUHINSTANCE__@@PAUHWND__@@PAU2@@Z PROC ; IMetaTable::LoadResourceDLL, COMDAT
; _this$ = ecx

; 936  : 	DECLARE_FUNCTION2(	LoadResourceDLL,				HMODULE, AfxGetStaticModuleState()->m_hCurrentInstanceHandle, HWND, HMODULE);

  00000	55		 push	 ebp
  00001	8b ec		 mov	 ebp, esp
  00003	56		 push	 esi
  00004	8b f1		 mov	 esi, ecx
  00006	8b 46 04	 mov	 eax, DWORD PTR [esi+4]
  00009	85 c0		 test	 eax, eax
  0000b	74 4d		 je	 SHORT $LN4@LoadResour
  0000d	57		 push	 edi
  0000e	bf 80 0d 00 00	 mov	 edi, 3456		; 00000d80H
  00013	66 3b be 94 00
	00 00		 cmp	 di, WORD PTR [esi+148]
  0001a	74 23		 je	 SHORT $LN3@LoadResour
  0001c	68 00 00 00 00	 push	 OFFSET ??_C@_0BA@ENJOCHIO@LoadResourceDLL@
  00021	50		 push	 eax
  00022	c7 86 90 00 00
	00 00 00 00 00	 mov	 DWORD PTR [esi+144], 0
  0002c	ff 15 00 00 00
	00		 call	 DWORD PTR __imp__GetProcAddress@8
  00032	89 86 90 00 00
	00		 mov	 DWORD PTR [esi+144], eax
  00038	66 89 be 94 00
	00 00		 mov	 WORD PTR [esi+148], di
$LN3@LoadResour:
  0003f	8b 86 90 00 00
	00		 mov	 eax, DWORD PTR [esi+144]
  00045	5f		 pop	 edi
  00046	85 c0		 test	 eax, eax
  00048	74 10		 je	 SHORT $LN4@LoadResour
  0004a	ff 75 0c	 push	 DWORD PTR _p2$[ebp]
  0004d	ff 75 08	 push	 DWORD PTR _p1$[ebp]
  00050	ff d0		 call	 eax
  00052	83 c4 08	 add	 esp, 8
  00055	5e		 pop	 esi
  00056	5d		 pop	 ebp
  00057	c2 08 00	 ret	 8
$LN4@LoadResour:
  0005a	e8 00 00 00 00	 call	 ?AfxGetStaticModuleState@@YGPAVAFX_MODULE_STATE@@XZ ; AfxGetStaticModuleState
  0005f	5e		 pop	 esi
  00060	8b 40 08	 mov	 eax, DWORD PTR [eax+8]
  00063	5d		 pop	 ebp
  00064	c2 08 00	 ret	 8
?LoadResourceDLL@IMetaTable@@QAEPAUHINSTANCE__@@PAUHWND__@@PAU2@@Z ENDP ; IMetaTable::LoadResourceDLL
_TEXT	ENDS
; Function compile flags: /Ogtp
; File D:\git\src\IBK\IBK_DRFN\ProjSrc\SrcChartEx\ChartOCX\KTBChart\PrintController.cpp
; File C:\Program Files (x86)\Microsoft Visual Studio\2019\Community\VC\Tools\MSVC\14.29.30133\atlmfc\include\afxwin1.inl
; File D:\git\src\IBK\IBK_DRFN\ProjSrc\SrcChartEx\ChartOCX\KTBChart\PrintController.cpp
; File C:\Program Files (x86)\Microsoft Visual Studio\2019\Community\VC\Tools\MSVC\14.29.30133\atlmfc\include\afxwin1.inl
; File D:\git\src\IBK\IBK_DRFN\ProjSrc\SrcChartEx\ChartOCX\KTBChart\PrintController.cpp
; File C:\Program Files (x86)\Microsoft Visual Studio\2019\Community\VC\Tools\MSVC\14.29.30133\atlmfc\include\afxwin1.inl
; File D:\git\src\IBK\IBK_DRFN\ProjSrc\SrcChartEx\ChartOCX\KTBChart\PrintController.cpp
; File C:\Program Files (x86)\Microsoft Visual Studio\2019\Community\VC\Tools\MSVC\14.29.30133\atlmfc\include\afxwin1.inl
; File C:\Program Files (x86)\Microsoft Visual Studio\2019\Community\VC\Tools\MSVC\14.29.30133\atlmfc\include\atltypes.h
; File C:\Program Files (x86)\Microsoft Visual Studio\2019\Community\VC\Tools\MSVC\14.29.30133\atlmfc\include\afxwin1.inl
; File C:\Program Files (x86)\Microsoft Visual Studio\2019\Community\VC\Tools\MSVC\14.29.30133\atlmfc\include\atltypes.h
; File C:\Program Files (x86)\Microsoft Visual Studio\2019\Community\VC\Tools\MSVC\14.29.30133\atlmfc\include\afxwin1.inl
; File D:\git\src\IBK\IBK_DRFN\ProjSrc\SrcChartEx\ChartOCX\KTBChart\PrintController.cpp
; File C:\Program Files (x86)\Microsoft Visual Studio\2019\Community\VC\Tools\MSVC\14.29.30133\atlmfc\include\atltypes.h
; File D:\git\src\IBK\IBK_DRFN\ProjSrc\SrcChartEx\ChartOCX\KTBChart\PrintController.cpp
; File C:\Program Files (x86)\Microsoft Visual Studio\2019\Community\VC\Tools\MSVC\14.29.30133\atlmfc\include\afxwin1.inl
; File D:\git\src\IBK\IBK_DRFN\ProjSrc\SrcChartEx\ChartOCX\KTBChart\PrintController.cpp
;	COMDAT ?OnPrintCurrentPage@CPrintController@@AAEXAAVCDC@@HABVCRect@@PAVCKTBChartCtrl@@@Z
_TEXT	SEGMENT
_rect$1 = -16						; size = 16
_dcPrinter$ = 8						; size = 4
_nPrintColor$ = 12					; size = 4
_rcChartRegion$ = 16					; size = 4
_pCtrl$ = 20						; size = 4
?OnPrintCurrentPage@CPrintController@@AAEXAAVCDC@@HABVCRect@@PAVCKTBChartCtrl@@@Z PROC ; CPrintController::OnPrintCurrentPage, COMDAT
; _this$ = ecx

; 154  : {

  00000	55		 push	 ebp
  00001	8b ec		 mov	 ebp, esp
  00003	83 ec 10	 sub	 esp, 16			; 00000010H
  00006	53		 push	 ebx
  00007	57		 push	 edi
; File C:\Program Files (x86)\Microsoft Visual Studio\2019\Community\VC\Tools\MSVC\14.29.30133\atlmfc\include\afxwin1.inl

; 754  : 	{ ASSERT(m_hDC != NULL); return ::StartPage(m_hDC); }

  00008	8b 7d 08	 mov	 edi, DWORD PTR _dcPrinter$[ebp]
; File D:\git\src\IBK\IBK_DRFN\ProjSrc\SrcChartEx\ChartOCX\KTBChart\PrintController.cpp

; 154  : {

  0000b	8b d9		 mov	 ebx, ecx
; File C:\Program Files (x86)\Microsoft Visual Studio\2019\Community\VC\Tools\MSVC\14.29.30133\atlmfc\include\afxwin1.inl

; 754  : 	{ ASSERT(m_hDC != NULL); return ::StartPage(m_hDC); }

  0000d	ff 77 04	 push	 DWORD PTR [edi+4]
  00010	ff 15 00 00 00
	00		 call	 DWORD PTR __imp__StartPage@4
; File D:\git\src\IBK\IBK_DRFN\ProjSrc\SrcChartEx\ChartOCX\KTBChart\PrintController.cpp

; 156  : 	if (dcPrinter.StartPage() < 0)

  00016	85 c0		 test	 eax, eax
  00018	79 1f		 jns	 SHORT $LN2@OnPrintCur

; 157  : 	{
; 158  : 		AfxMessageBox(_T("Could not start page"));

  0001a	6a 00		 push	 0
  0001c	6a 00		 push	 0
  0001e	68 00 00 00 00	 push	 OFFSET ??_C@_0BF@NCJNJJGJ@Could?5not?5start?5page@
  00023	e8 00 00 00 00	 call	 ?AfxMessageBox@@YGHPBDII@Z ; AfxMessageBox
; File C:\Program Files (x86)\Microsoft Visual Studio\2019\Community\VC\Tools\MSVC\14.29.30133\atlmfc\include\afxwin1.inl

; 760  : 	{ ASSERT(m_hDC != NULL); return ::AbortDoc(m_hDC); }

  00028	ff 77 04	 push	 DWORD PTR [edi+4]
  0002b	ff 15 00 00 00
	00		 call	 DWORD PTR __imp__AbortDoc@4
  00031	5f		 pop	 edi
; File D:\git\src\IBK\IBK_DRFN\ProjSrc\SrcChartEx\ChartOCX\KTBChart\PrintController.cpp

; 177  : }

  00032	5b		 pop	 ebx
  00033	8b e5		 mov	 esp, ebp
  00035	5d		 pop	 ebp
  00036	c2 10 00	 ret	 16			; 00000010H
$LN2@OnPrintCur:
  00039	56		 push	 esi
; File C:\Program Files (x86)\Microsoft Visual Studio\2019\Community\VC\Tools\MSVC\14.29.30133\atlmfc\include\afxwin1.inl

; 334  : 	{ ASSERT(m_hAttribDC != NULL); return ::GetDeviceCaps(m_hAttribDC, nIndex); }

  0003a	8b 35 00 00 00
	00		 mov	 esi, DWORD PTR __imp__GetDeviceCaps@8
  00040	6a 08		 push	 8
  00042	ff 77 08	 push	 DWORD PTR [edi+8]
; File C:\Program Files (x86)\Microsoft Visual Studio\2019\Community\VC\Tools\MSVC\14.29.30133\atlmfc\include\atltypes.h

; 540  : 	left = l;

  00045	c7 45 f0 00 00
	00 00		 mov	 DWORD PTR _rect$1[ebp], 0

; 541  : 	top = t;

  0004c	c7 45 f4 00 00
	00 00		 mov	 DWORD PTR _rect$1[ebp+4], 0
; File C:\Program Files (x86)\Microsoft Visual Studio\2019\Community\VC\Tools\MSVC\14.29.30133\atlmfc\include\afxwin1.inl

; 334  : 	{ ASSERT(m_hAttribDC != NULL); return ::GetDeviceCaps(m_hAttribDC, nIndex); }

  00053	ff d6		 call	 esi
  00055	6a 0a		 push	 10			; 0000000aH
  00057	ff 77 08	 push	 DWORD PTR [edi+8]
; File C:\Program Files (x86)\Microsoft Visual Studio\2019\Community\VC\Tools\MSVC\14.29.30133\atlmfc\include\atltypes.h

; 542  : 	right = r;

  0005a	89 45 f8	 mov	 DWORD PTR _rect$1[ebp+8], eax
; File C:\Program Files (x86)\Microsoft Visual Studio\2019\Community\VC\Tools\MSVC\14.29.30133\atlmfc\include\afxwin1.inl

; 334  : 	{ ASSERT(m_hAttribDC != NULL); return ::GetDeviceCaps(m_hAttribDC, nIndex); }

  0005d	ff d6		 call	 esi
; File D:\git\src\IBK\IBK_DRFN\ProjSrc\SrcChartEx\ChartOCX\KTBChart\PrintController.cpp

; 168  : 		pCtrl->LockScrollUIUpdateWithScrollInfo( TRUE);

  0005f	8b 75 14	 mov	 esi, DWORD PTR _pCtrl$[ebp]
  00062	8b ce		 mov	 ecx, esi
  00064	6a 01		 push	 1
; File C:\Program Files (x86)\Microsoft Visual Studio\2019\Community\VC\Tools\MSVC\14.29.30133\atlmfc\include\atltypes.h

; 543  : 	bottom = b;

  00066	89 45 fc	 mov	 DWORD PTR _rect$1[ebp+12], eax
; File D:\git\src\IBK\IBK_DRFN\ProjSrc\SrcChartEx\ChartOCX\KTBChart\PrintController.cpp

; 168  : 		pCtrl->LockScrollUIUpdateWithScrollInfo( TRUE);

  00069	e8 00 00 00 00	 call	 ?LockScrollUIUpdateWithScrollInfo@CKTBChartCtrl@@QAEXH@Z ; CKTBChartCtrl::LockScrollUIUpdateWithScrollInfo

; 169  : 
; 170  : 		OnDraw(&dcPrinter, nPrintColor, rect, rcChartRegion, pCtrl);

  0006e	56		 push	 esi
  0006f	ff 75 10	 push	 DWORD PTR _rcChartRegion$[ebp]
  00072	8d 45 f0	 lea	 eax, DWORD PTR _rect$1[ebp]
  00075	8b cb		 mov	 ecx, ebx
  00077	50		 push	 eax
  00078	ff 75 0c	 push	 DWORD PTR _nPrintColor$[ebp]
  0007b	57		 push	 edi
  0007c	e8 00 00 00 00	 call	 ?OnDraw@CPrintController@@AAEXPAVCDC@@HABVCRect@@1PAVCKTBChartCtrl@@@Z ; CPrintController::OnDraw

; 171  : 
; 172  : 		// (2009/5/19 - Seung-Won, Bae) for Auto Resize of Print and Image Capture
; 173  : 		pCtrl->LockScrollUIUpdateWithScrollInfo( FALSE);

  00081	6a 00		 push	 0
  00083	8b ce		 mov	 ecx, esi
  00085	e8 00 00 00 00	 call	 ?LockScrollUIUpdateWithScrollInfo@CKTBChartCtrl@@QAEXH@Z ; CKTBChartCtrl::LockScrollUIUpdateWithScrollInfo
; File C:\Program Files (x86)\Microsoft Visual Studio\2019\Community\VC\Tools\MSVC\14.29.30133\atlmfc\include\afxwin1.inl

; 756  : 	{ ASSERT(m_hDC != NULL); return ::EndPage(m_hDC); }

  0008a	ff 77 04	 push	 DWORD PTR [edi+4]
  0008d	ff 15 00 00 00
	00		 call	 DWORD PTR __imp__EndPage@4
  00093	5e		 pop	 esi
  00094	5f		 pop	 edi
; File D:\git\src\IBK\IBK_DRFN\ProjSrc\SrcChartEx\ChartOCX\KTBChart\PrintController.cpp

; 177  : }

  00095	5b		 pop	 ebx
  00096	8b e5		 mov	 esp, ebp
  00098	5d		 pop	 ebp
  00099	c2 10 00	 ret	 16			; 00000010H
?OnPrintCurrentPage@CPrintController@@AAEXAAVCDC@@HABVCRect@@PAVCKTBChartCtrl@@@Z ENDP ; CPrintController::OnPrintCurrentPage
_TEXT	ENDS
; Function compile flags: /Ogtp
; File D:\git\src\IBK\IBK_DRFN\ProjSrc\SrcChartEx\ChartOCX\KTBChart\PrintController.cpp
; File C:\Program Files (x86)\Microsoft Visual Studio\2019\Community\VC\Tools\MSVC\14.29.30133\atlmfc\include\afxwin1.inl
; File D:\git\src\IBK\IBK_DRFN\ProjSrc\SrcChartEx\ChartOCX\KTBChart\PrintController.cpp
; File C:\Program Files (x86)\Microsoft Visual Studio\2019\Community\VC\Tools\MSVC\14.29.30133\atlmfc\include\afxwin1.inl
; File D:\git\src\IBK\IBK_DRFN\ProjSrc\SrcChartEx\ChartOCX\KTBChart\PrintController.cpp
; File C:\Program Files (x86)\Microsoft Visual Studio\2019\Community\VC\Tools\MSVC\14.29.30133\atlmfc\include\afxwin1.inl
; File D:\git\src\IBK\IBK_DRFN\ProjSrc\SrcChartEx\ChartOCX\KTBChart\PrintController.cpp
; File C:\Program Files (x86)\Microsoft Visual Studio\2019\Community\VC\Tools\MSVC\14.29.30133\atlmfc\include\afxwin1.inl
; File C:\Program Files (x86)\Microsoft Visual Studio\2019\Community\VC\Tools\MSVC\14.29.30133\atlmfc\include\atltypes.h
; File C:\Program Files (x86)\Microsoft Visual Studio\2019\Community\VC\Tools\MSVC\14.29.30133\atlmfc\include\afxwin1.inl
; File C:\Program Files (x86)\Microsoft Visual Studio\2019\Community\VC\Tools\MSVC\14.29.30133\atlmfc\include\atltypes.h
; File C:\Program Files (x86)\Microsoft Visual Studio\2019\Community\VC\Tools\MSVC\14.29.30133\atlmfc\include\afxwin1.inl
; File D:\git\src\IBK\IBK_DRFN\ProjSrc\SrcChartEx\ChartOCX\KTBChart\PrintController.cpp
; File C:\Program Files (x86)\Microsoft Visual Studio\2019\Community\VC\Tools\MSVC\14.29.30133\atlmfc\include\atltypes.h
; File D:\git\src\IBK\IBK_DRFN\ProjSrc\SrcChartEx\ChartOCX\KTBChart\PrintController.cpp
; File C:\Program Files (x86)\Microsoft Visual Studio\2019\Community\VC\Tools\MSVC\14.29.30133\atlmfc\include\afxwin1.inl
; File D:\git\src\IBK\IBK_DRFN\ProjSrc\SrcChartEx\ChartOCX\KTBChart\PrintController.cpp
;	COMDAT ?OnPrintTotalData@CPrintController@@AAEXAAVCDC@@HABVCRect@@PAVCKTBChartCtrl@@@Z
_TEXT	SEGMENT
_rect$1 = -16						; size = 16
_dcPrinter$ = 8						; size = 4
_nPrintColor$ = 12					; size = 4
_rcChartRegion$ = 16					; size = 4
_pCtrl$ = 20						; size = 4
?OnPrintTotalData@CPrintController@@AAEXAAVCDC@@HABVCRect@@PAVCKTBChartCtrl@@@Z PROC ; CPrintController::OnPrintTotalData, COMDAT
; _this$ = ecx

; 124  : {

  00000	55		 push	 ebp
  00001	8b ec		 mov	 ebp, esp
  00003	83 ec 10	 sub	 esp, 16			; 00000010H
  00006	53		 push	 ebx
  00007	57		 push	 edi
; File C:\Program Files (x86)\Microsoft Visual Studio\2019\Community\VC\Tools\MSVC\14.29.30133\atlmfc\include\afxwin1.inl

; 754  : 	{ ASSERT(m_hDC != NULL); return ::StartPage(m_hDC); }

  00008	8b 7d 08	 mov	 edi, DWORD PTR _dcPrinter$[ebp]
; File D:\git\src\IBK\IBK_DRFN\ProjSrc\SrcChartEx\ChartOCX\KTBChart\PrintController.cpp

; 124  : {

  0000b	8b d9		 mov	 ebx, ecx
; File C:\Program Files (x86)\Microsoft Visual Studio\2019\Community\VC\Tools\MSVC\14.29.30133\atlmfc\include\afxwin1.inl

; 754  : 	{ ASSERT(m_hDC != NULL); return ::StartPage(m_hDC); }

  0000d	ff 77 04	 push	 DWORD PTR [edi+4]
  00010	ff 15 00 00 00
	00		 call	 DWORD PTR __imp__StartPage@4
; File D:\git\src\IBK\IBK_DRFN\ProjSrc\SrcChartEx\ChartOCX\KTBChart\PrintController.cpp

; 126  : 	if (dcPrinter.StartPage() < 0) 

  00016	85 c0		 test	 eax, eax
  00018	79 1f		 jns	 SHORT $LN2@OnPrintTot

; 127  : 	{
; 128  : 	 AfxMessageBox(_T("Could not start page"));

  0001a	6a 00		 push	 0
  0001c	6a 00		 push	 0
  0001e	68 00 00 00 00	 push	 OFFSET ??_C@_0BF@NCJNJJGJ@Could?5not?5start?5page@
  00023	e8 00 00 00 00	 call	 ?AfxMessageBox@@YGHPBDII@Z ; AfxMessageBox
; File C:\Program Files (x86)\Microsoft Visual Studio\2019\Community\VC\Tools\MSVC\14.29.30133\atlmfc\include\afxwin1.inl

; 760  : 	{ ASSERT(m_hDC != NULL); return ::AbortDoc(m_hDC); }

  00028	ff 77 04	 push	 DWORD PTR [edi+4]
  0002b	ff 15 00 00 00
	00		 call	 DWORD PTR __imp__AbortDoc@4
  00031	5f		 pop	 edi
; File D:\git\src\IBK\IBK_DRFN\ProjSrc\SrcChartEx\ChartOCX\KTBChart\PrintController.cpp

; 148  : }

  00032	5b		 pop	 ebx
  00033	8b e5		 mov	 esp, ebp
  00035	5d		 pop	 ebp
  00036	c2 10 00	 ret	 16			; 00000010H
$LN2@OnPrintTot:
  00039	56		 push	 esi
; File C:\Program Files (x86)\Microsoft Visual Studio\2019\Community\VC\Tools\MSVC\14.29.30133\atlmfc\include\afxwin1.inl

; 334  : 	{ ASSERT(m_hAttribDC != NULL); return ::GetDeviceCaps(m_hAttribDC, nIndex); }

  0003a	8b 35 00 00 00
	00		 mov	 esi, DWORD PTR __imp__GetDeviceCaps@8
  00040	6a 08		 push	 8
  00042	ff 77 08	 push	 DWORD PTR [edi+8]
; File C:\Program Files (x86)\Microsoft Visual Studio\2019\Community\VC\Tools\MSVC\14.29.30133\atlmfc\include\atltypes.h

; 540  : 	left = l;

  00045	c7 45 f0 00 00
	00 00		 mov	 DWORD PTR _rect$1[ebp], 0

; 541  : 	top = t;

  0004c	c7 45 f4 00 00
	00 00		 mov	 DWORD PTR _rect$1[ebp+4], 0
; File C:\Program Files (x86)\Microsoft Visual Studio\2019\Community\VC\Tools\MSVC\14.29.30133\atlmfc\include\afxwin1.inl

; 334  : 	{ ASSERT(m_hAttribDC != NULL); return ::GetDeviceCaps(m_hAttribDC, nIndex); }

  00053	ff d6		 call	 esi
  00055	6a 0a		 push	 10			; 0000000aH
  00057	ff 77 08	 push	 DWORD PTR [edi+8]
; File C:\Program Files (x86)\Microsoft Visual Studio\2019\Community\VC\Tools\MSVC\14.29.30133\atlmfc\include\atltypes.h

; 542  : 	right = r;

  0005a	89 45 f8	 mov	 DWORD PTR _rect$1[ebp+8], eax
; File C:\Program Files (x86)\Microsoft Visual Studio\2019\Community\VC\Tools\MSVC\14.29.30133\atlmfc\include\afxwin1.inl

; 334  : 	{ ASSERT(m_hAttribDC != NULL); return ::GetDeviceCaps(m_hAttribDC, nIndex); }

  0005d	ff d6		 call	 esi
; File D:\git\src\IBK\IBK_DRFN\ProjSrc\SrcChartEx\ChartOCX\KTBChart\PrintController.cpp

; 138  : 		pCtrl->LockScrollUIUpdateWithScrollInfo( TRUE);

  0005f	8b 75 14	 mov	 esi, DWORD PTR _pCtrl$[ebp]
  00062	8b ce		 mov	 ecx, esi
  00064	6a 01		 push	 1
; File C:\Program Files (x86)\Microsoft Visual Studio\2019\Community\VC\Tools\MSVC\14.29.30133\atlmfc\include\atltypes.h

; 543  : 	bottom = b;

  00066	89 45 fc	 mov	 DWORD PTR _rect$1[ebp+12], eax
; File D:\git\src\IBK\IBK_DRFN\ProjSrc\SrcChartEx\ChartOCX\KTBChart\PrintController.cpp

; 138  : 		pCtrl->LockScrollUIUpdateWithScrollInfo( TRUE);

  00069	e8 00 00 00 00	 call	 ?LockScrollUIUpdateWithScrollInfo@CKTBChartCtrl@@QAEXH@Z ; CKTBChartCtrl::LockScrollUIUpdateWithScrollInfo

; 139  : 
; 140  : 		pCtrl->SetWholeView(TRUE);

  0006e	6a 01		 push	 1
  00070	8b ce		 mov	 ecx, esi
  00072	e8 00 00 00 00	 call	 ?SetWholeView@CKTBChartCtrl@@QAEXH@Z ; CKTBChartCtrl::SetWholeView

; 141  : 		OnDraw(&dcPrinter, nPrintColor, rect, rcChartRegion, pCtrl);

  00077	56		 push	 esi
  00078	ff 75 10	 push	 DWORD PTR _rcChartRegion$[ebp]
  0007b	8d 45 f0	 lea	 eax, DWORD PTR _rect$1[ebp]
  0007e	8b cb		 mov	 ecx, ebx
  00080	50		 push	 eax
  00081	ff 75 0c	 push	 DWORD PTR _nPrintColor$[ebp]
  00084	57		 push	 edi
  00085	e8 00 00 00 00	 call	 ?OnDraw@CPrintController@@AAEXPAVCDC@@HABVCRect@@1PAVCKTBChartCtrl@@@Z ; CPrintController::OnDraw

; 142  : 
; 143  : 		// (2009/5/19 - Seung-Won, Bae) for Auto Resize of Print and Image Capture
; 144  : 		pCtrl->LockScrollUIUpdateWithScrollInfo( FALSE);

  0008a	6a 00		 push	 0
  0008c	8b ce		 mov	 ecx, esi
  0008e	e8 00 00 00 00	 call	 ?LockScrollUIUpdateWithScrollInfo@CKTBChartCtrl@@QAEXH@Z ; CKTBChartCtrl::LockScrollUIUpdateWithScrollInfo
; File C:\Program Files (x86)\Microsoft Visual Studio\2019\Community\VC\Tools\MSVC\14.29.30133\atlmfc\include\afxwin1.inl

; 756  : 	{ ASSERT(m_hDC != NULL); return ::EndPage(m_hDC); }

  00093	ff 77 04	 push	 DWORD PTR [edi+4]
  00096	ff 15 00 00 00
	00		 call	 DWORD PTR __imp__EndPage@4
  0009c	5e		 pop	 esi
  0009d	5f		 pop	 edi
; File D:\git\src\IBK\IBK_DRFN\ProjSrc\SrcChartEx\ChartOCX\KTBChart\PrintController.cpp

; 148  : }

  0009e	5b		 pop	 ebx
  0009f	8b e5		 mov	 esp, ebp
  000a1	5d		 pop	 ebp
  000a2	c2 10 00	 ret	 16			; 00000010H
?OnPrintTotalData@CPrintController@@AAEXAAVCDC@@HABVCRect@@PAVCKTBChartCtrl@@@Z ENDP ; CPrintController::OnPrintTotalData
_TEXT	ENDS
; Function compile flags: /Ogtp
; File D:\git\src\IBK\IBK_DRFN\ProjSrc\SrcChartEx\ChartOCX\KTBChart\PrintController.cpp
; File C:\Program Files (x86)\Microsoft Visual Studio\2019\Community\VC\Tools\MSVC\14.29.30133\atlmfc\include\afxwin1.inl
; File D:\git\src\IBK\IBK_DRFN\ProjSrc\SrcChartEx\ChartOCX\KTBChart\PrintController.cpp
; File C:\Program Files (x86)\Microsoft Visual Studio\2019\Community\VC\Tools\MSVC\14.29.30133\atlmfc\include\afxwin1.inl
; File D:\git\src\IBK\IBK_DRFN\ProjSrc\SrcChartEx\ChartOCX\KTBChart\PrintController.cpp
; File C:\Program Files (x86)\Microsoft Visual Studio\2019\Community\VC\Tools\MSVC\14.29.30133\atlmfc\include\atltypes.h
; File C:\Program Files (x86)\Microsoft Visual Studio\2019\Community\VC\Tools\MSVC\14.29.30133\atlmfc\include\afxwin1.inl
; File C:\Program Files (x86)\Microsoft Visual Studio\2019\Community\VC\Tools\MSVC\14.29.30133\atlmfc\include\atltypes.h
; File C:\Program Files (x86)\Microsoft Visual Studio\2019\Community\VC\Tools\MSVC\14.29.30133\atlmfc\include\afxwin1.inl
; File C:\Program Files (x86)\Microsoft Visual Studio\2019\Community\VC\Tools\MSVC\14.29.30133\atlmfc\include\atltypes.h
; File C:\Program Files (x86)\Microsoft Visual Studio\2019\Community\VC\Tools\MSVC\14.29.30133\atlmfc\include\afxwin1.inl
; File D:\git\src\IBK\IBK_DRFN\ProjSrc\SrcChartEx\ChartOCX\KTBChart\PrintController.cpp
; File C:\Program Files (x86)\Microsoft Visual Studio\2019\Community\VC\Tools\MSVC\14.29.30133\atlmfc\include\atltypes.h
; File D:\git\src\IBK\IBK_DRFN\ProjSrc\SrcChartEx\ChartOCX\KTBChart\PrintController.cpp
; File C:\Program Files (x86)\Microsoft Visual Studio\2019\Community\VC\Tools\MSVC\14.29.30133\atlmfc\include\afxwin1.inl
; File D:\git\src\IBK\IBK_DRFN\ProjSrc\SrcChartEx\ChartOCX\KTBChart\PrintController.cpp
; File C:\Program Files (x86)\Microsoft Visual Studio\2019\Community\VC\Tools\MSVC\14.29.30133\atlmfc\include\afxwin1.inl
; File D:\git\src\IBK\IBK_DRFN\ProjSrc\SrcChartEx\ChartOCX\KTBChart\PrintController.cpp
; File C:\Program Files (x86)\Microsoft Visual Studio\2019\Community\VC\Tools\MSVC\14.29.30133\atlmfc\include\afxwin1.inl
; File D:\git\src\IBK\IBK_DRFN\ProjSrc\SrcChartEx\ChartOCX\KTBChart\PrintController.cpp
;	COMDAT ?OnPrintbyUserSetDataCountperOnePge@CPrintController@@AAEXAAVCDC@@HABVCRect@@PAVCKTBChartCtrl@@@Z
_TEXT	SEGMENT
_rect$ = -20						; size = 16
_this$1$ = -4						; size = 4
_dcPrinter$ = 8						; size = 4
_nPrintColor$ = 12					; size = 4
_rcChartRegion$ = 16					; size = 4
_pCtrl$ = 20						; size = 4
?OnPrintbyUserSetDataCountperOnePge@CPrintController@@AAEXAAVCDC@@HABVCRect@@PAVCKTBChartCtrl@@@Z PROC ; CPrintController::OnPrintbyUserSetDataCountperOnePge, COMDAT
; _this$ = ecx

; 183  : {

  00000	55		 push	 ebp
  00001	8b ec		 mov	 ebp, esp
  00003	83 ec 14	 sub	 esp, 20			; 00000014H
  00006	56		 push	 esi
; File C:\Program Files (x86)\Microsoft Visual Studio\2019\Community\VC\Tools\MSVC\14.29.30133\atlmfc\include\afxwin1.inl

; 334  : 	{ ASSERT(m_hAttribDC != NULL); return ::GetDeviceCaps(m_hAttribDC, nIndex); }

  00007	8b 35 00 00 00
	00		 mov	 esi, DWORD PTR __imp__GetDeviceCaps@8
; File D:\git\src\IBK\IBK_DRFN\ProjSrc\SrcChartEx\ChartOCX\KTBChart\PrintController.cpp

; 183  : {

  0000d	57		 push	 edi
; File C:\Program Files (x86)\Microsoft Visual Studio\2019\Community\VC\Tools\MSVC\14.29.30133\atlmfc\include\afxwin1.inl

; 334  : 	{ ASSERT(m_hAttribDC != NULL); return ::GetDeviceCaps(m_hAttribDC, nIndex); }

  0000e	8b 7d 08	 mov	 edi, DWORD PTR _dcPrinter$[ebp]
  00011	6a 08		 push	 8
; File D:\git\src\IBK\IBK_DRFN\ProjSrc\SrcChartEx\ChartOCX\KTBChart\PrintController.cpp

; 183  : {

  00013	89 4d fc	 mov	 DWORD PTR _this$1$[ebp], ecx
; File C:\Program Files (x86)\Microsoft Visual Studio\2019\Community\VC\Tools\MSVC\14.29.30133\atlmfc\include\atltypes.h

; 540  : 	left = l;

  00016	c7 45 ec 00 00
	00 00		 mov	 DWORD PTR _rect$[ebp], 0
; File C:\Program Files (x86)\Microsoft Visual Studio\2019\Community\VC\Tools\MSVC\14.29.30133\atlmfc\include\afxwin1.inl

; 334  : 	{ ASSERT(m_hAttribDC != NULL); return ::GetDeviceCaps(m_hAttribDC, nIndex); }

  0001d	ff 77 08	 push	 DWORD PTR [edi+8]
; File C:\Program Files (x86)\Microsoft Visual Studio\2019\Community\VC\Tools\MSVC\14.29.30133\atlmfc\include\atltypes.h

; 541  : 	top = t;

  00020	c7 45 f0 00 00
	00 00		 mov	 DWORD PTR _rect$[ebp+4], 0
; File C:\Program Files (x86)\Microsoft Visual Studio\2019\Community\VC\Tools\MSVC\14.29.30133\atlmfc\include\afxwin1.inl

; 334  : 	{ ASSERT(m_hAttribDC != NULL); return ::GetDeviceCaps(m_hAttribDC, nIndex); }

  00027	ff d6		 call	 esi
  00029	6a 0a		 push	 10			; 0000000aH
  0002b	ff 77 08	 push	 DWORD PTR [edi+8]
; File C:\Program Files (x86)\Microsoft Visual Studio\2019\Community\VC\Tools\MSVC\14.29.30133\atlmfc\include\atltypes.h

; 542  : 	right = r;

  0002e	89 45 f4	 mov	 DWORD PTR _rect$[ebp+8], eax
; File C:\Program Files (x86)\Microsoft Visual Studio\2019\Community\VC\Tools\MSVC\14.29.30133\atlmfc\include\afxwin1.inl

; 334  : 	{ ASSERT(m_hAttribDC != NULL); return ::GetDeviceCaps(m_hAttribDC, nIndex); }

  00031	ff d6		 call	 esi
; File D:\git\src\IBK\IBK_DRFN\ProjSrc\SrcChartEx\ChartOCX\KTBChart\PrintController.cpp

; 189  : 	pCtrl->LockScrollUIUpdateWithScrollInfo( TRUE);

  00033	8b 75 14	 mov	 esi, DWORD PTR _pCtrl$[ebp]
  00036	8b ce		 mov	 ecx, esi
  00038	6a 01		 push	 1
; File C:\Program Files (x86)\Microsoft Visual Studio\2019\Community\VC\Tools\MSVC\14.29.30133\atlmfc\include\atltypes.h

; 543  : 	bottom = b;

  0003a	89 45 f8	 mov	 DWORD PTR _rect$[ebp+12], eax
; File D:\git\src\IBK\IBK_DRFN\ProjSrc\SrcChartEx\ChartOCX\KTBChart\PrintController.cpp

; 189  : 	pCtrl->LockScrollUIUpdateWithScrollInfo( TRUE);

  0003d	e8 00 00 00 00	 call	 ?LockScrollUIUpdateWithScrollInfo@CKTBChartCtrl@@QAEXH@Z ; CKTBChartCtrl::LockScrollUIUpdateWithScrollInfo

; 190  : 
; 191  : 	BOOL bNextPage = pCtrl->ScrollTo( 0, FALSE);

  00042	6a 00		 push	 0
  00044	6a 00		 push	 0
  00046	8b ce		 mov	 ecx, esi
  00048	e8 00 00 00 00	 call	 ?ScrollTo@CKTBChartCtrl@@QAEHHH@Z ; CKTBChartCtrl::ScrollTo

; 192  : 	while(bNextPage) 

  0004d	85 c0		 test	 eax, eax
  0004f	74 5c		 je	 SHORT $LN3@OnPrintbyU
  00051	53		 push	 ebx
  00052	8b 1d 00 00 00
	00		 mov	 ebx, DWORD PTR __imp__AbortDoc@4
  00058	0f 1f 84 00 00
	00 00 00	 npad	 8
$LL2@OnPrintbyU:
; File C:\Program Files (x86)\Microsoft Visual Studio\2019\Community\VC\Tools\MSVC\14.29.30133\atlmfc\include\afxwin1.inl

; 754  : 	{ ASSERT(m_hDC != NULL); return ::StartPage(m_hDC); }

  00060	ff 77 04	 push	 DWORD PTR [edi+4]
  00063	ff 15 00 00 00
	00		 call	 DWORD PTR __imp__StartPage@4
; File D:\git\src\IBK\IBK_DRFN\ProjSrc\SrcChartEx\ChartOCX\KTBChart\PrintController.cpp

; 195  : 		if (dcPrinter.StartPage() < 0)

  00069	85 c0		 test	 eax, eax
  0006b	79 15		 jns	 SHORT $LN4@OnPrintbyU

; 196  : 		{
; 197  : 			AfxMessageBox(_T("Could not start page"));

  0006d	6a 00		 push	 0
  0006f	6a 00		 push	 0
  00071	68 00 00 00 00	 push	 OFFSET ??_C@_0BF@NCJNJJGJ@Could?5not?5start?5page@
  00076	e8 00 00 00 00	 call	 ?AfxMessageBox@@YGHPBDII@Z ; AfxMessageBox
; File C:\Program Files (x86)\Microsoft Visual Studio\2019\Community\VC\Tools\MSVC\14.29.30133\atlmfc\include\afxwin1.inl

; 760  : 	{ ASSERT(m_hDC != NULL); return ::AbortDoc(m_hDC); }

  0007b	ff 77 04	 push	 DWORD PTR [edi+4]
  0007e	ff d3		 call	 ebx
; File D:\git\src\IBK\IBK_DRFN\ProjSrc\SrcChartEx\ChartOCX\KTBChart\PrintController.cpp

; 199  : 		} 

  00080	eb 14		 jmp	 SHORT $LN5@OnPrintbyU
$LN4@OnPrintbyU:

; 200  : 		else OnDraw(&dcPrinter, nPrintColor, rect, rcChartRegion, pCtrl);

  00082	8b 4d fc	 mov	 ecx, DWORD PTR _this$1$[ebp]
  00085	8d 45 ec	 lea	 eax, DWORD PTR _rect$[ebp]
  00088	56		 push	 esi
  00089	ff 75 10	 push	 DWORD PTR _rcChartRegion$[ebp]
  0008c	50		 push	 eax
  0008d	ff 75 0c	 push	 DWORD PTR _nPrintColor$[ebp]
  00090	57		 push	 edi
  00091	e8 00 00 00 00	 call	 ?OnDraw@CPrintController@@AAEXPAVCDC@@HABVCRect@@1PAVCKTBChartCtrl@@@Z ; CPrintController::OnDraw
$LN5@OnPrintbyU:
; File C:\Program Files (x86)\Microsoft Visual Studio\2019\Community\VC\Tools\MSVC\14.29.30133\atlmfc\include\afxwin1.inl

; 756  : 	{ ASSERT(m_hDC != NULL); return ::EndPage(m_hDC); }

  00096	ff 77 04	 push	 DWORD PTR [edi+4]
  00099	ff 15 00 00 00
	00		 call	 DWORD PTR __imp__EndPage@4
; File D:\git\src\IBK\IBK_DRFN\ProjSrc\SrcChartEx\ChartOCX\KTBChart\PrintController.cpp

; 203  : 		bNextPage = pCtrl->SetScrollPosToNextPage();

  0009f	6a 00		 push	 0
  000a1	8b ce		 mov	 ecx, esi
  000a3	e8 00 00 00 00	 call	 ?SetScrollPosToNextPage@CKTBChartCtrl@@QAEHH@Z ; CKTBChartCtrl::SetScrollPosToNextPage
  000a8	85 c0		 test	 eax, eax
  000aa	75 b4		 jne	 SHORT $LL2@OnPrintbyU
  000ac	5b		 pop	 ebx
$LN3@OnPrintbyU:

; 204  : 	}
; 205  : 
; 206  : 	// (2009/5/19 - Seung-Won, Bae) for Auto Resize of Print and Image Capture
; 207  : 	pCtrl->LockScrollUIUpdateWithScrollInfo( FALSE);

  000ad	6a 00		 push	 0
  000af	8b ce		 mov	 ecx, esi
  000b1	e8 00 00 00 00	 call	 ?LockScrollUIUpdateWithScrollInfo@CKTBChartCtrl@@QAEXH@Z ; CKTBChartCtrl::LockScrollUIUpdateWithScrollInfo
  000b6	5f		 pop	 edi
  000b7	5e		 pop	 esi

; 208  : }

  000b8	8b e5		 mov	 esp, ebp
  000ba	5d		 pop	 ebp
  000bb	c2 10 00	 ret	 16			; 00000010H
?OnPrintbyUserSetDataCountperOnePge@CPrintController@@AAEXAAVCDC@@HABVCRect@@PAVCKTBChartCtrl@@@Z ENDP ; CPrintController::OnPrintbyUserSetDataCountperOnePge
_TEXT	ENDS
; Function compile flags: /Ogtp
; File D:\git\src\IBK\IBK_DRFN\ProjSrc\SrcChartEx\ChartOCX\KTBChart\PrintController.cpp
; File C:\Program Files (x86)\Microsoft Visual Studio\2019\Community\VC\Tools\MSVC\14.29.30133\atlmfc\include\afxwin1.inl
; File D:\git\src\IBK\IBK_DRFN\ProjSrc\SrcChartEx\ChartOCX\KTBChart\PrintController.cpp
; File C:\Program Files (x86)\Microsoft Visual Studio\2019\Community\VC\Tools\MSVC\14.29.30133\atlmfc\include\afxwin1.inl
; File C:\Program Files (x86)\Microsoft Visual Studio\2019\Community\VC\Tools\MSVC\14.29.30133\atlmfc\include\atltypes.h
; File C:\Program Files (x86)\Microsoft Visual Studio\2019\Community\VC\Tools\MSVC\14.29.30133\atlmfc\include\afxwin1.inl
; File C:\Program Files (x86)\Microsoft Visual Studio\2019\Community\VC\Tools\MSVC\14.29.30133\atlmfc\include\atltypes.h
; File C:\Program Files (x86)\Microsoft Visual Studio\2019\Community\VC\Tools\MSVC\14.29.30133\atlmfc\include\afxwin1.inl
; File D:\git\src\IBK\IBK_DRFN\ProjSrc\SrcChartEx\ChartOCX\KTBChart\PrintController.cpp
; File C:\Program Files (x86)\Microsoft Visual Studio\2019\Community\VC\Tools\MSVC\14.29.30133\atlmfc\include\atltypes.h
; File C:\Program Files (x86)\Microsoft Visual Studio\2019\Community\VC\Tools\MSVC\14.29.30133\atlmfc\include\afxwin1.inl
; File C:\Program Files (x86)\Microsoft Visual Studio\2019\Community\VC\Tools\MSVC\14.29.30133\atlmfc\include\atltypes.h
; File C:\Program Files (x86)\Microsoft Visual Studio\2019\Community\VC\Tools\MSVC\14.29.30133\atlmfc\include\afxwin1.inl
; File C:\Program Files (x86)\Microsoft Visual Studio\2019\Community\VC\Tools\MSVC\14.29.30133\atlmfc\include\atltypes.h
; File C:\Program Files (x86)\Microsoft Visual Studio\2019\Community\VC\Tools\MSVC\14.29.30133\atlmfc\include\afxwin1.inl
; File D:\git\src\IBK\IBK_DRFN\ProjSrc\SrcChartEx\ChartOCX\KTBChart\PrintController.cpp
; File C:\Program Files (x86)\Microsoft Visual Studio\2019\Community\VC\Tools\MSVC\14.29.30133\atlmfc\include\afxwin1.inl
; File D:\git\src\IBK\IBK_DRFN\ProjSrc\SrcChartEx\ChartOCX\KTBChart\PrintController.cpp
;	COMDAT ?OnDraw@CPrintController@@AAEXPAVCDC@@HABVCRect@@1PAVCKTBChartCtrl@@@Z
_TEXT	SEGMENT
_rcSource$5$ = -56					; size = 16
_memoryDC$ = -40					; size = 16
_bufferBitmap$ = -24					; size = 8
_pOldBitmap$1$ = -16					; size = 4
__$EHRec$ = -12						; size = 12
_pdc$ = 8						; size = 4
_nPrintColor$ = 12					; size = 4
_rcDestination$ = 16					; size = 4
_nSrcHeight$1$ = 20					; size = 4
_rcChartRegion$ = 20					; size = 4
_pCtrl$ = 24						; size = 4
?OnDraw@CPrintController@@AAEXPAVCDC@@HABVCRect@@1PAVCKTBChartCtrl@@@Z PROC ; CPrintController::OnDraw, COMDAT
; _this$ = ecx

; 215  : {

  00000	55		 push	 ebp
  00001	8b ec		 mov	 ebp, esp
  00003	6a ff		 push	 -1
  00005	68 00 00 00 00	 push	 __ehhandler$?OnDraw@CPrintController@@AAEXPAVCDC@@HABVCRect@@1PAVCKTBChartCtrl@@@Z
  0000a	64 a1 00 00 00
	00		 mov	 eax, DWORD PTR fs:0
  00010	50		 push	 eax
  00011	83 ec 2c	 sub	 esp, 44			; 0000002cH
  00014	56		 push	 esi
  00015	57		 push	 edi
  00016	a1 00 00 00 00	 mov	 eax, DWORD PTR ___security_cookie
  0001b	33 c5		 xor	 eax, ebp
  0001d	50		 push	 eax
  0001e	8d 45 f4	 lea	 eax, DWORD PTR __$EHRec$[ebp]
  00021	64 a3 00 00 00
	00		 mov	 DWORD PTR fs:0, eax

; 216  : 	//	bitmap create
; 217  : 	//       - ojtaso (20070921)
; 218  : //	CClientDC dc(pCtrl); 
; 219  : 	CRect rcSource(rcChartRegion);

  00027	8b 45 14	 mov	 eax, DWORD PTR _rcChartRegion$[ebp]

; 220  : 
; 221  : 	CDC memoryDC;

  0002a	8d 4d d8	 lea	 ecx, DWORD PTR _memoryDC$[ebp]
  0002d	0f 10 00	 movups	 xmm0, XMMWORD PTR [eax]
  00030	0f 11 45 c8	 movups	 XMMWORD PTR _rcSource$5$[ebp], xmm0
  00034	e8 00 00 00 00	 call	 ??0CDC@@QAE@XZ		; CDC::CDC
  00039	c7 45 fc 00 00
	00 00		 mov	 DWORD PTR __$EHRec$[ebp+8], 0
; File C:\Program Files (x86)\Microsoft Visual Studio\2019\Community\VC\Tools\MSVC\14.29.30133\atlmfc\include\afxwin1.inl

; 70   : 	{ m_hObject = NULL; }

  00040	c7 45 ec 00 00
	00 00		 mov	 DWORD PTR _bufferBitmap$[ebp+4], 0

; 177  : 	{ }

  00047	c7 45 e8 00 00
	00 00		 mov	 DWORD PTR _bufferBitmap$[ebp], OFFSET ??_7CBitmap@@6B@

; 316  : 	{ return this == NULL ? NULL : m_hDC; }

  0004e	8b 75 08	 mov	 esi, DWORD PTR _pdc$[ebp]
; File D:\git\src\IBK\IBK_DRFN\ProjSrc\SrcChartEx\ChartOCX\KTBChart\PrintController.cpp

; 222  : 	CBitmap bufferBitmap;

  00051	c6 45 fc 01	 mov	 BYTE PTR __$EHRec$[ebp+8], 1
; File C:\Program Files (x86)\Microsoft Visual Studio\2019\Community\VC\Tools\MSVC\14.29.30133\atlmfc\include\afxwin1.inl

; 316  : 	{ return this == NULL ? NULL : m_hDC; }

  00055	85 f6		 test	 esi, esi
  00057	75 04		 jne	 SHORT $LN13@OnDraw
  00059	33 c0		 xor	 eax, eax
  0005b	eb 03		 jmp	 SHORT $LN14@OnDraw
$LN13@OnDraw:
  0005d	8b 46 04	 mov	 eax, DWORD PTR [esi+4]
$LN14@OnDraw:

; 330  : 	{ return Attach(::CreateCompatibleDC(pDC->GetSafeHdc())); }

  00060	50		 push	 eax
  00061	ff 15 00 00 00
	00		 call	 DWORD PTR __imp__CreateCompatibleDC@4
  00067	50		 push	 eax
  00068	8d 4d d8	 lea	 ecx, DWORD PTR _memoryDC$[ebp]
  0006b	e8 00 00 00 00	 call	 ?Attach@CDC@@QAEHPAUHDC__@@@Z ; CDC::Attach
; File C:\Program Files (x86)\Microsoft Visual Studio\2019\Community\VC\Tools\MSVC\14.29.30133\atlmfc\include\atltypes.h

; 581  : 	return bottom - top;

  00070	0f 10 4d c8	 movups	 xmm1, XMMWORD PTR _rcSource$5$[ebp]
  00074	0f 28 c1	 movaps	 xmm0, xmm1
  00077	66 0f 73 d8 0c	 psrldq	 xmm0, 12		; 0000000cH
  0007c	66 0f 7e c1	 movd	 ecx, xmm0
  00080	0f 28 c1	 movaps	 xmm0, xmm1
  00083	66 0f 73 d8 04	 psrldq	 xmm0, 4
  00088	66 0f 7e c0	 movd	 eax, xmm0

; 576  : 	return right - left;

  0008c	0f 28 c1	 movaps	 xmm0, xmm1
  0008f	66 0f 73 d8 08	 psrldq	 xmm0, 8
  00094	66 0f 7e c7	 movd	 edi, xmm0

; 581  : 	return bottom - top;

  00098	2b c8		 sub	 ecx, eax

; 576  : 	return right - left;

  0009a	66 0f 7e c8	 movd	 eax, xmm1
; File C:\Program Files (x86)\Microsoft Visual Studio\2019\Community\VC\Tools\MSVC\14.29.30133\atlmfc\include\afxwin1.inl

; 217  : 	{ return Attach(::CreateCompatibleBitmap(pDC->m_hDC, nWidth, nHeight)); }

  0009e	51		 push	 ecx
; File C:\Program Files (x86)\Microsoft Visual Studio\2019\Community\VC\Tools\MSVC\14.29.30133\atlmfc\include\atltypes.h

; 581  : 	return bottom - top;

  0009f	89 4d 14	 mov	 DWORD PTR _nSrcHeight$1$[ebp], ecx

; 576  : 	return right - left;

  000a2	2b f8		 sub	 edi, eax
; File C:\Program Files (x86)\Microsoft Visual Studio\2019\Community\VC\Tools\MSVC\14.29.30133\atlmfc\include\afxwin1.inl

; 217  : 	{ return Attach(::CreateCompatibleBitmap(pDC->m_hDC, nWidth, nHeight)); }

  000a4	57		 push	 edi
  000a5	ff 76 04	 push	 DWORD PTR [esi+4]
  000a8	ff 15 00 00 00
	00		 call	 DWORD PTR __imp__CreateCompatibleBitmap@12
  000ae	50		 push	 eax
  000af	8d 4d e8	 lea	 ecx, DWORD PTR _bufferBitmap$[ebp]
  000b2	e8 00 00 00 00	 call	 ?Attach@CGdiObject@@QAEHPAX@Z ; CGdiObject::Attach

; 361  : 	{ ASSERT(m_hDC != NULL); return (CBitmap*) SelectGdiObject(m_hDC, pBitmap->GetSafeHandle()); }

  000b7	ff 75 ec	 push	 DWORD PTR _bufferBitmap$[ebp+4]
  000ba	ff 75 dc	 push	 DWORD PTR _memoryDC$[ebp+4]
  000bd	e8 00 00 00 00	 call	 ?SelectGdiObject@CDC@@KGPAVCGdiObject@@PAUHDC__@@PAX@Z ; CDC::SelectGdiObject
; File D:\git\src\IBK\IBK_DRFN\ProjSrc\SrcChartEx\ChartOCX\KTBChart\PrintController.cpp

; 230  : 	pCtrl->OnDrawForPrint(memoryDC, bufferBitmap, rcSource, nPrintColor ? TRUE : FALSE);

  000c2	0f 10 45 c8	 movups	 xmm0, XMMWORD PTR _rcSource$5$[ebp]
  000c6	33 c9		 xor	 ecx, ecx
  000c8	89 45 f0	 mov	 DWORD PTR _pOldBitmap$1$[ebp], eax
  000cb	39 4d 0c	 cmp	 DWORD PTR _nPrintColor$[ebp], ecx
  000ce	8d 45 e8	 lea	 eax, DWORD PTR _bufferBitmap$[ebp]
  000d1	0f 95 c1	 setne	 cl
  000d4	51		 push	 ecx
  000d5	83 ec 10	 sub	 esp, 16			; 00000010H
  000d8	8b cc		 mov	 ecx, esp
  000da	50		 push	 eax
  000db	8d 45 d8	 lea	 eax, DWORD PTR _memoryDC$[ebp]
  000de	0f 11 01	 movups	 XMMWORD PTR [ecx], xmm0
  000e1	8b 4d 18	 mov	 ecx, DWORD PTR _pCtrl$[ebp]
  000e4	50		 push	 eax
  000e5	e8 00 00 00 00	 call	 ?OnDrawForPrint@CKTBChartCtrl@@QAEXAAVCDC@@AAVCBitmap@@VCRect@@H@Z ; CKTBChartCtrl::OnDrawForPrint
; File C:\Program Files (x86)\Microsoft Visual Studio\2019\Community\VC\Tools\MSVC\14.29.30133\atlmfc\include\atltypes.h

; 581  : 	return bottom - top;

  000ea	8b 45 10	 mov	 eax, DWORD PTR _rcDestination$[ebp]
; File C:\Program Files (x86)\Microsoft Visual Studio\2019\Community\VC\Tools\MSVC\14.29.30133\atlmfc\include\afxwin1.inl

; 556  : 	{ ASSERT(m_hDC != NULL); return ::StretchBlt(m_hDC, x, y, nWidth, nHeight,

  000ed	68 20 00 cc 00	 push	 13369376		; 00cc0020H
  000f2	ff 75 14	 push	 DWORD PTR _nSrcHeight$1$[ebp]
; File C:\Program Files (x86)\Microsoft Visual Studio\2019\Community\VC\Tools\MSVC\14.29.30133\atlmfc\include\atltypes.h

; 581  : 	return bottom - top;

  000f5	8b 70 04	 mov	 esi, DWORD PTR [eax+4]
  000f8	8b 48 0c	 mov	 ecx, DWORD PTR [eax+12]

; 576  : 	return right - left;

  000fb	8b 10		 mov	 edx, DWORD PTR [eax]

; 581  : 	return bottom - top;

  000fd	2b ce		 sub	 ecx, esi

; 576  : 	return right - left;

  000ff	8b 40 08	 mov	 eax, DWORD PTR [eax+8]
; File C:\Program Files (x86)\Microsoft Visual Studio\2019\Community\VC\Tools\MSVC\14.29.30133\atlmfc\include\afxwin1.inl

; 556  : 	{ ASSERT(m_hDC != NULL); return ::StretchBlt(m_hDC, x, y, nWidth, nHeight,

  00102	57		 push	 edi
  00103	6a 00		 push	 0
  00105	6a 00		 push	 0
  00107	ff 75 dc	 push	 DWORD PTR _memoryDC$[ebp+4]
; File C:\Program Files (x86)\Microsoft Visual Studio\2019\Community\VC\Tools\MSVC\14.29.30133\atlmfc\include\atltypes.h

; 576  : 	return right - left;

  0010a	2b c2		 sub	 eax, edx
; File C:\Program Files (x86)\Microsoft Visual Studio\2019\Community\VC\Tools\MSVC\14.29.30133\atlmfc\include\afxwin1.inl

; 556  : 	{ ASSERT(m_hDC != NULL); return ::StretchBlt(m_hDC, x, y, nWidth, nHeight,

  0010c	51		 push	 ecx
  0010d	50		 push	 eax
  0010e	8b 45 08	 mov	 eax, DWORD PTR _pdc$[ebp]
  00111	56		 push	 esi
  00112	52		 push	 edx
  00113	ff 70 04	 push	 DWORD PTR [eax+4]
  00116	ff 15 00 00 00
	00		 call	 DWORD PTR __imp__StretchBlt@44

; 68   : 	{ return this == NULL ? NULL : m_hObject; }

  0011c	8b 45 f0	 mov	 eax, DWORD PTR _pOldBitmap$1$[ebp]
  0011f	85 c0		 test	 eax, eax
  00121	74 03		 je	 SHORT $LN46@OnDraw
$LN45@OnDraw:
  00123	8b 40 04	 mov	 eax, DWORD PTR [eax+4]
$LN46@OnDraw:

; 361  : 	{ ASSERT(m_hDC != NULL); return (CBitmap*) SelectGdiObject(m_hDC, pBitmap->GetSafeHandle()); }

  00126	50		 push	 eax
  00127	ff 75 dc	 push	 DWORD PTR _memoryDC$[ebp+4]
  0012a	e8 00 00 00 00	 call	 ?SelectGdiObject@CDC@@KGPAVCGdiObject@@PAUHDC__@@PAX@Z ; CDC::SelectGdiObject
; File D:\git\src\IBK\IBK_DRFN\ProjSrc\SrcChartEx\ChartOCX\KTBChart\PrintController.cpp

; 236  : 	bufferBitmap.DeleteObject();

  0012f	8d 4d e8	 lea	 ecx, DWORD PTR _bufferBitmap$[ebp]
  00132	e8 00 00 00 00	 call	 ?DeleteObject@CGdiObject@@QAEHXZ ; CGdiObject::DeleteObject

; 237  : 	memoryDC.DeleteDC();

  00137	8d 4d d8	 lea	 ecx, DWORD PTR _memoryDC$[ebp]
  0013a	e8 00 00 00 00	 call	 ?DeleteDC@CDC@@QAEHXZ	; CDC::DeleteDC
; File C:\Program Files (x86)\Microsoft Visual Studio\2019\Community\VC\Tools\MSVC\14.29.30133\atlmfc\include\afxwin1.inl

; 179  : 	{ }

  0013f	8d 4d e8	 lea	 ecx, DWORD PTR _bufferBitmap$[ebp]
  00142	c7 45 e8 00 00
	00 00		 mov	 DWORD PTR _bufferBitmap$[ebp], OFFSET ??_7CBitmap@@6B@
  00149	e8 00 00 00 00	 call	 ??1CGdiObject@@UAE@XZ	; CGdiObject::~CGdiObject
; File D:\git\src\IBK\IBK_DRFN\ProjSrc\SrcChartEx\ChartOCX\KTBChart\PrintController.cpp

; 238  : }

  0014e	8d 4d d8	 lea	 ecx, DWORD PTR _memoryDC$[ebp]
  00151	e8 00 00 00 00	 call	 ??1CDC@@UAE@XZ		; CDC::~CDC
  00156	8b 4d f4	 mov	 ecx, DWORD PTR __$EHRec$[ebp]
  00159	64 89 0d 00 00
	00 00		 mov	 DWORD PTR fs:0, ecx
  00160	59		 pop	 ecx
  00161	5f		 pop	 edi
  00162	5e		 pop	 esi
  00163	8b e5		 mov	 esp, ebp
  00165	5d		 pop	 ebp
  00166	c2 14 00	 ret	 20			; 00000014H
_TEXT	ENDS
;	COMDAT text$x
text$x	SEGMENT
__unwindfunclet$?OnDraw@CPrintController@@AAEXPAVCDC@@HABVCRect@@1PAVCKTBChartCtrl@@@Z$0:
  00000	8d 4d d8	 lea	 ecx, DWORD PTR _memoryDC$[ebp]
  00003	e9 00 00 00 00	 jmp	 ??1CDC@@UAE@XZ		; CDC::~CDC
__unwindfunclet$?OnDraw@CPrintController@@AAEXPAVCDC@@HABVCRect@@1PAVCKTBChartCtrl@@@Z$1:
  00008	8d 4d e8	 lea	 ecx, DWORD PTR _bufferBitmap$[ebp]
  0000b	e9 00 00 00 00	 jmp	 ??1CBitmap@@UAE@XZ	; CBitmap::~CBitmap
  00010	cc		 int	 3
  00011	cc		 int	 3
  00012	cc		 int	 3
  00013	cc		 int	 3
  00014	cc		 int	 3
__ehhandler$?OnDraw@CPrintController@@AAEXPAVCDC@@HABVCRect@@1PAVCKTBChartCtrl@@@Z:
  00015	90		 npad	 1
  00016	90		 npad	 1
  00017	8b 54 24 08	 mov	 edx, DWORD PTR [esp+8]
  0001b	8d 42 0c	 lea	 eax, DWORD PTR [edx+12]
  0001e	8b 4a c8	 mov	 ecx, DWORD PTR [edx-56]
  00021	33 c8		 xor	 ecx, eax
  00023	e8 00 00 00 00	 call	 @__security_check_cookie@4
  00028	b8 00 00 00 00	 mov	 eax, OFFSET __ehfuncinfo$?OnDraw@CPrintController@@AAEXPAVCDC@@HABVCRect@@1PAVCKTBChartCtrl@@@Z
  0002d	e9 00 00 00 00	 jmp	 ___CxxFrameHandler3
text$x	ENDS
?OnDraw@CPrintController@@AAEXPAVCDC@@HABVCRect@@1PAVCKTBChartCtrl@@@Z ENDP ; CPrintController::OnDraw
; Function compile flags: /Ogtp
; File D:\git\src\IBK\IBK_DRFN\ProjSrc\SrcChartEx\ChartOCX\KTBChart\PrintController.cpp
; File C:\Program Files (x86)\Microsoft Visual Studio\2019\Community\VC\Tools\MSVC\14.29.30133\atlmfc\include\afxwin2.inl
; File D:\git\src\IBK\IBK_DRFN\ProjSrc\SrcChartEx\ChartOCX\KTBChart\PrintController.cpp
; File C:\Program Files (x86)\Microsoft Visual Studio\2019\Community\VC\Tools\MSVC\14.29.30133\atlmfc\include\afxwin1.inl
; File D:\git\src\IBK\IBK_DRFN\ProjSrc\SrcChartEx\ChartOCX\Include_Chart\Dll_Load\IMetaTable.h
; File C:\Program Files (x86)\Microsoft Visual Studio\2019\Community\VC\Tools\MSVC\14.29.30133\atlmfc\include\afxwin1.inl
; File D:\git\src\IBK\IBK_DRFN\ProjSrc\SrcChartEx\ChartOCX\KTBChart\PrintController.cpp
; File C:\Program Files (x86)\Microsoft Visual Studio\2019\Community\VC\Tools\MSVC\14.29.30133\atlmfc\include\afxdlgs.inl
; File D:\git\src\IBK\IBK_DRFN\ProjSrc\SrcChartEx\ChartOCX\KTBChart\PrintController.cpp
; File C:\Program Files (x86)\Microsoft Visual Studio\2019\Community\VC\Tools\MSVC\14.29.30133\atlmfc\include\afxwin1.inl
; File D:\git\src\IBK\IBK_DRFN\ProjSrc\SrcChartEx\ChartOCX\KTBChart\PrintController.cpp
; File C:\Program Files (x86)\Microsoft Visual Studio\2019\Community\VC\Tools\MSVC\14.29.30133\atlmfc\include\afxwin1.inl
; File D:\git\src\IBK\IBK_DRFN\ProjSrc\SrcChartEx\ChartOCX\KTBChart\PrintController.cpp
; File C:\Program Files (x86)\Microsoft Visual Studio\2019\Community\VC\Tools\MSVC\14.29.30133\atlmfc\include\afxwin1.inl
; File D:\git\src\IBK\IBK_DRFN\ProjSrc\SrcChartEx\ChartOCX\KTBChart\PrintController.cpp
; File C:\Program Files (x86)\Microsoft Visual Studio\2019\Community\VC\Tools\MSVC\14.29.30133\atlmfc\include\afxwin1.inl
; File D:\git\src\IBK\IBK_DRFN\ProjSrc\SrcChartEx\ChartOCX\KTBChart\PrintController.cpp
; File C:\Program Files (x86)\Microsoft Visual Studio\2019\Community\VC\Tools\MSVC\14.29.30133\atlmfc\include\afxdlgs.h
; File D:\git\src\IBK\IBK_DRFN\ProjSrc\SrcChartEx\ChartOCX\Include_Chart\Dll_Load\IMetaTable.h
; File C:\Program Files (x86)\Microsoft Visual Studio\2019\Community\VC\Tools\MSVC\14.29.30133\atlmfc\include\afxwin1.inl
; File D:\git\src\IBK\IBK_DRFN\ProjSrc\SrcChartEx\ChartOCX\KTBChart\PrintController.cpp
;	COMDAT ?PopUpMyPrintDlg@CPrintController@@AAEXABVCRect@@PAVCKTBChartCtrl@@@Z
_TEXT	SEGMENT
_dlgOs$2 = -608						; size = 240
_dlg$ = -368						; size = 312
_docinfo$3 = -56					; size = 20
___mlrs__$ = -36					; size = 4
_dcPrinter$4 = -32					; size = 16
_this$1$ = -16						; size = 4
__$EHRec$ = -12						; size = 12
_rcChartRegion$ = 8					; size = 4
_hdcPrinter$1$ = 12					; size = 4
_pCtrl$ = 12						; size = 4
?PopUpMyPrintDlg@CPrintController@@AAEXABVCRect@@PAVCKTBChartCtrl@@@Z PROC ; CPrintController::PopUpMyPrintDlg, COMDAT
; _this$ = ecx

; 28   : {

  00000	55		 push	 ebp
  00001	8b ec		 mov	 ebp, esp
  00003	6a ff		 push	 -1
  00005	68 00 00 00 00	 push	 __ehhandler$?PopUpMyPrintDlg@CPrintController@@AAEXABVCRect@@PAVCKTBChartCtrl@@@Z
  0000a	64 a1 00 00 00
	00		 mov	 eax, DWORD PTR fs:0
  00010	50		 push	 eax
  00011	81 ec 54 02 00
	00		 sub	 esp, 596		; 00000254H
  00017	53		 push	 ebx
  00018	56		 push	 esi
  00019	57		 push	 edi
  0001a	a1 00 00 00 00	 mov	 eax, DWORD PTR ___security_cookie
  0001f	33 c5		 xor	 eax, ebp
  00021	50		 push	 eax
  00022	8d 45 f4	 lea	 eax, DWORD PTR __$EHRec$[ebp]
  00025	64 a3 00 00 00
	00		 mov	 DWORD PTR fs:0, eax
  0002b	89 4d f0	 mov	 DWORD PTR _this$1$[ebp], ecx
; File C:\Program Files (x86)\Microsoft Visual Studio\2019\Community\VC\Tools\MSVC\14.29.30133\atlmfc\include\afxwin2.inl

; 25   : 	{ return this == NULL ? NULL : m_hWnd; }

  0002e	8b 5d 0c	 mov	 ebx, DWORD PTR _pCtrl$[ebp]
  00031	85 db		 test	 ebx, ebx
  00033	75 04		 jne	 SHORT $LN18@PopUpMyPri
  00035	33 f6		 xor	 esi, esi
  00037	eb 03		 jmp	 SHORT $LN19@PopUpMyPri
$LN18@PopUpMyPri:
  00039	8b 73 20	 mov	 esi, DWORD PTR [ebx+32]
$LN19@PopUpMyPri:
; File D:\git\src\IBK\IBK_DRFN\ProjSrc\SrcChartEx\ChartOCX\KTBChart\PrintController.cpp

; 30   : 	ML_SET_LANGUAGE_RES();

  0003c	e8 00 00 00 00	 call	 ?AfxGetStaticModuleState@@YGPAVAFX_MODULE_STATE@@XZ ; AfxGetStaticModuleState
  00041	b9 00 00 00 00	 mov	 ecx, OFFSET ?g_iMetaTable@@3VIMetaTable@@A ; g_iMetaTable
  00046	8b 40 08	 mov	 eax, DWORD PTR [eax+8]
  00049	50		 push	 eax
  0004a	56		 push	 esi
  0004b	e8 00 00 00 00	 call	 ?LoadResourceDLL@IMetaTable@@QAEPAUHINSTANCE__@@PAUHWND__@@PAU2@@Z ; IMetaTable::LoadResourceDLL
  00050	8b f8		 mov	 edi, eax
; File C:\Program Files (x86)\Microsoft Visual Studio\2019\Community\VC\Tools\MSVC\14.29.30133\atlmfc\include\afxwin1.inl

; 25   : 		return afxCurrentResourceHandle; }

  00052	e8 00 00 00 00	 call	 ?AfxGetModuleState@@YGPAVAFX_MODULE_STATE@@XZ ; AfxGetModuleState
; File D:\git\src\IBK\IBK_DRFN\ProjSrc\SrcChartEx\ChartOCX\Include_Chart\Dll_Load\IMetaTable.h

; 1032 : 		m_hInstance = AfxGetResourceHandle();

  00057	8b 70 0c	 mov	 esi, DWORD PTR [eax+12]
  0005a	89 75 dc	 mov	 DWORD PTR ___mlrs__$[ebp], esi
; File C:\Program Files (x86)\Microsoft Visual Studio\2019\Community\VC\Tools\MSVC\14.29.30133\atlmfc\include\afxwin1.inl

; 27   : 	{ ASSERT(hInstResource != NULL); afxCurrentResourceHandle = hInstResource; }

  0005d	e8 00 00 00 00	 call	 ?AfxGetModuleState@@YGPAVAFX_MODULE_STATE@@XZ ; AfxGetModuleState
  00062	89 78 0c	 mov	 DWORD PTR [eax+12], edi
; File D:\git\src\IBK\IBK_DRFN\ProjSrc\SrcChartEx\ChartOCX\KTBChart\PrintController.cpp

; 31   : 	CDlgPrintCfg dlg;

  00065	6a 00		 push	 0
  00067	8d 8d 90 fe ff
	ff		 lea	 ecx, DWORD PTR _dlg$[ebp]
  0006d	c7 45 fc 00 00
	00 00		 mov	 DWORD PTR __$EHRec$[ebp+8], 0
  00074	e8 00 00 00 00	 call	 ??0CDlgPrintCfg@@QAE@PAVCWnd@@@Z ; CDlgPrintCfg::CDlgPrintCfg

; 32   : 	if(dlg.DoModal() == IDOK)

  00079	8d 8d 90 fe ff
	ff		 lea	 ecx, DWORD PTR _dlg$[ebp]
  0007f	c6 45 fc 01	 mov	 BYTE PTR __$EHRec$[ebp+8], 1
  00083	e8 00 00 00 00	 call	 ?DoModal@CDialog@@UAEHXZ ; CDialog::DoModal
  00088	83 f8 01	 cmp	 eax, 1
  0008b	0f 85 27 01 00
	00		 jne	 $LN36@PopUpMyPri

; 33   : 	{
; 34   : 		// get the default printer
; 35   : 		CPrintDialog dlgOs(FALSE);

  00091	6a 00		 push	 0
  00093	68 0c 00 14 00	 push	 1310732			; 0014000cH
  00098	6a 00		 push	 0
  0009a	8d 8d a0 fd ff
	ff		 lea	 ecx, DWORD PTR _dlgOs$2[ebp]
  000a0	e8 00 00 00 00	 call	 ??0CPrintDialog@@QAE@HKPAVCWnd@@@Z ; CPrintDialog::CPrintDialog

; 36   : 		dlgOs.GetDefaults();

  000a5	8d 8d a0 fd ff
	ff		 lea	 ecx, DWORD PTR _dlgOs$2[ebp]
  000ab	c6 45 fc 02	 mov	 BYTE PTR __$EHRec$[ebp+8], 2
  000af	e8 00 00 00 00	 call	 ?GetDefaults@CPrintDialog@@QAEHXZ ; CPrintDialog::GetDefaults
; File C:\Program Files (x86)\Microsoft Visual Studio\2019\Community\VC\Tools\MSVC\14.29.30133\atlmfc\include\afxdlgs.inl

; 69   : 		return m_pd.hDC; }

  000b4	8b 85 48 fe ff
	ff		 mov	 eax, DWORD PTR _dlgOs$2[ebp+168]
  000ba	8b 78 10	 mov	 edi, DWORD PTR [eax+16]
  000bd	89 7d 0c	 mov	 DWORD PTR _hdcPrinter$1$[ebp], edi
; File D:\git\src\IBK\IBK_DRFN\ProjSrc\SrcChartEx\ChartOCX\KTBChart\PrintController.cpp

; 40   : 		if (hdcPrinter == NULL)

  000c0	85 ff		 test	 edi, edi
  000c2	75 11		 jne	 SHORT $LN3@PopUpMyPri

; 41   : 		   AfxMessageBox(_T("Buy a printer!"));

  000c4	57		 push	 edi
  000c5	57		 push	 edi
  000c6	68 00 00 00 00	 push	 OFFSET ??_C@_0P@DGIMNGKH@Buy?5a?5printer?$CB@
  000cb	e8 00 00 00 00	 call	 ?AfxMessageBox@@YGHPBDII@Z ; AfxMessageBox
  000d0	e9 c1 00 00 00	 jmp	 $LN4@PopUpMyPri
$LN3@PopUpMyPri:

; 42   : 		else
; 43   : 		{
; 44   : 		   CDC dcPrinter;

  000d5	8d 4d e0	 lea	 ecx, DWORD PTR _dcPrinter$4[ebp]
  000d8	e8 00 00 00 00	 call	 ??0CDC@@QAE@XZ		; CDC::CDC

; 45   : 		   dcPrinter.Attach(hdcPrinter);

  000dd	57		 push	 edi
  000de	8d 4d e0	 lea	 ecx, DWORD PTR _dcPrinter$4[ebp]
  000e1	c6 45 fc 03	 mov	 BYTE PTR __$EHRec$[ebp+8], 3
  000e5	e8 00 00 00 00	 call	 ?Attach@CDC@@QAEHPAUHDC__@@@Z ; CDC::Attach
; File C:\Program Files (x86)\Microsoft Visual Studio\2019\Community\VC\Tools\MSVC\14.29.30133\atlmfc\include\afxwin1.inl

; 752  : 	{ ASSERT(m_hDC != NULL); return ::StartDoc(m_hDC, lpDocInfo); }

  000ea	8d 45 c8	 lea	 eax, DWORD PTR _docinfo$3[ebp]
; File D:\git\src\IBK\IBK_DRFN\ProjSrc\SrcChartEx\ChartOCX\KTBChart\PrintController.cpp

; 49   : 		   memset(&docinfo, 0, sizeof(docinfo));

  000ed	c7 45 d8 00 00
	00 00		 mov	 DWORD PTR _docinfo$3[ebp+16], 0
; File C:\Program Files (x86)\Microsoft Visual Studio\2019\Community\VC\Tools\MSVC\14.29.30133\atlmfc\include\afxwin1.inl

; 752  : 	{ ASSERT(m_hDC != NULL); return ::StartDoc(m_hDC, lpDocInfo); }

  000f4	50		 push	 eax
  000f5	ff 75 e4	 push	 DWORD PTR _dcPrinter$4[ebp+4]
  000f8	0f 57 c0	 xorps	 xmm0, xmm0
; File D:\git\src\IBK\IBK_DRFN\ProjSrc\SrcChartEx\ChartOCX\KTBChart\PrintController.cpp

; 50   : 		   docinfo.cbSize = sizeof(docinfo);

  000fb	c7 45 c8 14 00
	00 00		 mov	 DWORD PTR _docinfo$3[ebp], 20 ; 00000014H
  00102	66 0f 13 45 d0	 movlpd	 QWORD PTR _docinfo$3[ebp+8], xmm0

; 51   : 		   docinfo.lpszDocName = _T("NeoChart2001");

  00107	c7 45 cc 00 00
	00 00		 mov	 DWORD PTR _docinfo$3[ebp+4], OFFSET ??_C@_0N@GIPCBNAK@NeoChart2001@
; File C:\Program Files (x86)\Microsoft Visual Studio\2019\Community\VC\Tools\MSVC\14.29.30133\atlmfc\include\afxwin1.inl

; 752  : 	{ ASSERT(m_hDC != NULL); return ::StartDoc(m_hDC, lpDocInfo); }

  0010e	ff 15 00 00 00
	00		 call	 DWORD PTR __imp__StartDocA@8
; File D:\git\src\IBK\IBK_DRFN\ProjSrc\SrcChartEx\ChartOCX\KTBChart\PrintController.cpp

; 54   : 		   if (dcPrinter.StartDoc(&docinfo) < 0)

  00114	85 c0		 test	 eax, eax
  00116	79 10		 jns	 SHORT $LN5@PopUpMyPri

; 55   : 			  AfxMessageBox(_T("Printer Wouldn't initalize"));

  00118	6a 00		 push	 0
  0011a	6a 00		 push	 0
  0011c	68 00 00 00 00	 push	 OFFSET ??_C@_0BL@BBEIPBHH@Printer?5Wouldn?8t?5initalize@
  00121	e8 00 00 00 00	 call	 ?AfxMessageBox@@YGHPBDII@Z ; AfxMessageBox
  00126	eb 62		 jmp	 SHORT $LN6@PopUpMyPri
$LN5@PopUpMyPri:

; 56   : 		   else 
; 57   : 		   {
; 58   : 			  BOOL bColor = dlg.GetPrintColor();

  00128	8d 8d 90 fe ff
	ff		 lea	 ecx, DWORD PTR _dlg$[ebp]
  0012e	e8 00 00 00 00	 call	 ?GetPrintColor@CDlgPrintCfg@@QAEHXZ ; CDlgPrintCfg::GetPrintColor

; 59   : 			  if(!dlg.GetPrintRange()) // Data 

  00133	8d 8d 90 fe ff
	ff		 lea	 ecx, DWORD PTR _dlg$[ebp]
  00139	8b f8		 mov	 edi, eax
  0013b	e8 00 00 00 00	 call	 ?GetPrintRange@CDlgPrintCfg@@QAEHXZ ; CDlgPrintCfg::GetPrintRange
  00140	85 c0		 test	 eax, eax
  00142	75 13		 jne	 SHORT $LN7@PopUpMyPri

; 60   : 				  OnPrintTotalData(dcPrinter, bColor, rcChartRegion, pCtrl);

  00144	8b 4d f0	 mov	 ecx, DWORD PTR _this$1$[ebp]
  00147	8d 45 e0	 lea	 eax, DWORD PTR _dcPrinter$4[ebp]
  0014a	53		 push	 ebx
  0014b	ff 75 08	 push	 DWORD PTR _rcChartRegion$[ebp]
  0014e	57		 push	 edi
  0014f	50		 push	 eax
  00150	e8 00 00 00 00	 call	 ?OnPrintTotalData@CPrintController@@AAEXAAVCDC@@HABVCRect@@PAVCKTBChartCtrl@@@Z ; CPrintController::OnPrintTotalData
  00155	eb 27		 jmp	 SHORT $LN10@PopUpMyPri
$LN7@PopUpMyPri:

; 61   : 			  else // 
; 62   : 			  {  	
; 63   : 				  if(dlg.PrintAllByOnePageDataCount())//    

  00157	8d 8d 90 fe ff
	ff		 lea	 ecx, DWORD PTR _dlg$[ebp]
  0015d	e8 00 00 00 00	 call	 ?PrintAllByOnePageDataCount@CDlgPrintCfg@@QAEHXZ ; CDlgPrintCfg::PrintAllByOnePageDataCount
  00162	8b 4d f0	 mov	 ecx, DWORD PTR _this$1$[ebp]
  00165	85 c0		 test	 eax, eax
  00167	53		 push	 ebx
  00168	ff 75 08	 push	 DWORD PTR _rcChartRegion$[ebp]
  0016b	8d 45 e0	 lea	 eax, DWORD PTR _dcPrinter$4[ebp]
  0016e	57		 push	 edi
  0016f	50		 push	 eax
  00170	74 07		 je	 SHORT $LN9@PopUpMyPri

; 64   : 					  OnPrintbyUserSetDataCountperOnePge(dcPrinter, bColor, rcChartRegion, pCtrl);

  00172	e8 00 00 00 00	 call	 ?OnPrintbyUserSetDataCountperOnePge@CPrintController@@AAEXAAVCDC@@HABVCRect@@PAVCKTBChartCtrl@@@Z ; CPrintController::OnPrintbyUserSetDataCountperOnePge
  00177	eb 05		 jmp	 SHORT $LN10@PopUpMyPri
$LN9@PopUpMyPri:

; 65   : 				  else //  
; 66   : 					  OnPrintCurrentPage(dcPrinter, bColor, rcChartRegion, pCtrl);

  00179	e8 00 00 00 00	 call	 ?OnPrintCurrentPage@CPrintController@@AAEXAAVCDC@@HABVCRect@@PAVCKTBChartCtrl@@@Z ; CPrintController::OnPrintCurrentPage
$LN10@PopUpMyPri:
; File C:\Program Files (x86)\Microsoft Visual Studio\2019\Community\VC\Tools\MSVC\14.29.30133\atlmfc\include\afxwin1.inl

; 762  : 	{ ASSERT(m_hDC != NULL); return ::EndDoc(m_hDC); }

  0017e	ff 75 e4	 push	 DWORD PTR _dcPrinter$4[ebp+4]
  00181	ff 15 00 00 00
	00		 call	 DWORD PTR __imp__EndDoc@4
  00187	8b 7d 0c	 mov	 edi, DWORD PTR _hdcPrinter$1$[ebp]
$LN6@PopUpMyPri:
; File D:\git\src\IBK\IBK_DRFN\ProjSrc\SrcChartEx\ChartOCX\KTBChart\PrintController.cpp

; 70   : 		}

  0018a	8d 4d e0	 lea	 ecx, DWORD PTR _dcPrinter$4[ebp]
  0018d	c6 45 fc 02	 mov	 BYTE PTR __$EHRec$[ebp+8], 2
  00191	e8 00 00 00 00	 call	 ??1CDC@@UAE@XZ		; CDC::~CDC
$LN4@PopUpMyPri:

; 71   : 	  CDC::FromHandle(hdcPrinter)->DeleteDC();

  00196	57		 push	 edi
  00197	e8 00 00 00 00	 call	 ?FromHandle@CDC@@SGPAV1@PAUHDC__@@@Z ; CDC::FromHandle
  0019c	8b c8		 mov	 ecx, eax
  0019e	e8 00 00 00 00	 call	 ?DeleteDC@CDC@@QAEHXZ	; CDC::DeleteDC
; File C:\Program Files (x86)\Microsoft Visual Studio\2019\Community\VC\Tools\MSVC\14.29.30133\atlmfc\include\afxdlgs.h

; 110  :     virtual ~CCommonDialog() {};

  001a3	8d 8d a0 fd ff
	ff		 lea	 ecx, DWORD PTR _dlgOs$2[ebp]
  001a9	c7 85 a0 fd ff
	ff 00 00 00 00	 mov	 DWORD PTR _dlgOs$2[ebp], OFFSET ??_7CCommonDialog@@6B@
  001b3	e8 00 00 00 00	 call	 ??1CDialog@@UAE@XZ	; CDialog::~CDialog
$LN36@PopUpMyPri:
  001b8	8d 8d 38 ff ff
	ff		 lea	 ecx, DWORD PTR _dlg$[ebp+168]
  001be	e8 00 00 00 00	 call	 ??1CButton@@UAE@XZ	; CButton::~CButton
  001c3	8d 8d 90 fe ff
	ff		 lea	 ecx, DWORD PTR _dlg$[ebp]
  001c9	e8 00 00 00 00	 call	 ??1CDialog@@UAE@XZ	; CDialog::~CDialog
; File D:\git\src\IBK\IBK_DRFN\ProjSrc\SrcChartEx\ChartOCX\Include_Chart\Dll_Load\IMetaTable.h

; 1036 : 	{

  001ce	c7 45 fc 04 00
	00 00		 mov	 DWORD PTR __$EHRec$[ebp+8], 4
; File C:\Program Files (x86)\Microsoft Visual Studio\2019\Community\VC\Tools\MSVC\14.29.30133\atlmfc\include\afxwin1.inl

; 27   : 	{ ASSERT(hInstResource != NULL); afxCurrentResourceHandle = hInstResource; }

  001d5	e8 00 00 00 00	 call	 ?AfxGetModuleState@@YGPAVAFX_MODULE_STATE@@XZ ; AfxGetModuleState
  001da	89 70 0c	 mov	 DWORD PTR [eax+12], esi
; File D:\git\src\IBK\IBK_DRFN\ProjSrc\SrcChartEx\ChartOCX\KTBChart\PrintController.cpp

; 73   : }

  001dd	8b 4d f4	 mov	 ecx, DWORD PTR __$EHRec$[ebp]
  001e0	64 89 0d 00 00
	00 00		 mov	 DWORD PTR fs:0, ecx
  001e7	59		 pop	 ecx
  001e8	5f		 pop	 edi
  001e9	5e		 pop	 esi
  001ea	5b		 pop	 ebx
  001eb	8b e5		 mov	 esp, ebp
  001ed	5d		 pop	 ebp
  001ee	c2 08 00	 ret	 8
_TEXT	ENDS
;	COMDAT text$x
text$x	SEGMENT
__unwindfunclet$?PopUpMyPrintDlg@CPrintController@@AAEXABVCRect@@PAVCKTBChartCtrl@@@Z$0:
  00000	8d 4d dc	 lea	 ecx, DWORD PTR ___mlrs__$[ebp]
  00003	e9 00 00 00 00	 jmp	 ??1CMultiLanguageResourceSetter@@QAE@XZ ; CMultiLanguageResourceSetter::~CMultiLanguageResourceSetter
__unwindfunclet$?PopUpMyPrintDlg@CPrintController@@AAEXABVCRect@@PAVCKTBChartCtrl@@@Z$1:
  00008	8d 8d 90 fe ff
	ff		 lea	 ecx, DWORD PTR _dlg$[ebp]
  0000e	e9 00 00 00 00	 jmp	 ??1CDlgPrintCfg@@UAE@XZ
__unwindfunclet$?PopUpMyPrintDlg@CPrintController@@AAEXABVCRect@@PAVCKTBChartCtrl@@@Z$2:
  00013	8d 8d a0 fd ff
	ff		 lea	 ecx, DWORD PTR _dlgOs$2[ebp]
  00019	e9 00 00 00 00	 jmp	 ??1CPrintDialog@@UAE@XZ
__unwindfunclet$?PopUpMyPrintDlg@CPrintController@@AAEXABVCRect@@PAVCKTBChartCtrl@@@Z$3:
  0001e	8d 4d e0	 lea	 ecx, DWORD PTR _dcPrinter$4[ebp]
  00021	e9 00 00 00 00	 jmp	 ??1CDC@@UAE@XZ		; CDC::~CDC
  00026	cc		 int	 3
  00027	cc		 int	 3
  00028	cc		 int	 3
  00029	cc		 int	 3
  0002a	cc		 int	 3
__ehhandler$?PopUpMyPrintDlg@CPrintController@@AAEXABVCRect@@PAVCKTBChartCtrl@@@Z:
  0002b	90		 npad	 1
  0002c	90		 npad	 1
  0002d	8b 54 24 08	 mov	 edx, DWORD PTR [esp+8]
  00031	8d 42 0c	 lea	 eax, DWORD PTR [edx+12]
  00034	8b 8a 9c fd ff
	ff		 mov	 ecx, DWORD PTR [edx-612]
  0003a	33 c8		 xor	 ecx, eax
  0003c	e8 00 00 00 00	 call	 @__security_check_cookie@4
  00041	b8 00 00 00 00	 mov	 eax, OFFSET __ehfuncinfo$?PopUpMyPrintDlg@CPrintController@@AAEXABVCRect@@PAVCKTBChartCtrl@@@Z
  00046	e9 00 00 00 00	 jmp	 ___CxxFrameHandler3
text$x	ENDS
?PopUpMyPrintDlg@CPrintController@@AAEXABVCRect@@PAVCKTBChartCtrl@@@Z ENDP ; CPrintController::PopUpMyPrintDlg
; Function compile flags: /Ogtp
; File D:\git\src\IBK\IBK_DRFN\ProjSrc\SrcChartEx\ChartOCX\KTBChart\PrintController.cpp
; File C:\Program Files (x86)\Microsoft Visual Studio\2019\Community\VC\Tools\MSVC\14.29.30133\atlmfc\include\afxdlgs.inl
; File D:\git\src\IBK\IBK_DRFN\ProjSrc\SrcChartEx\ChartOCX\KTBChart\PrintController.cpp
; File C:\Program Files (x86)\Microsoft Visual Studio\2019\Community\VC\Tools\MSVC\14.29.30133\atlmfc\include\afxwin1.inl
; File D:\git\src\IBK\IBK_DRFN\ProjSrc\SrcChartEx\ChartOCX\KTBChart\PrintController.cpp
; File C:\Program Files (x86)\Microsoft Visual Studio\2019\Community\VC\Tools\MSVC\14.29.30133\atlmfc\include\afxwin1.inl
; File D:\git\src\IBK\IBK_DRFN\ProjSrc\SrcChartEx\ChartOCX\KTBChart\PrintController.cpp
; File C:\Program Files (x86)\Microsoft Visual Studio\2019\Community\VC\Tools\MSVC\14.29.30133\atlmfc\include\afxwin1.inl
; File D:\git\src\IBK\IBK_DRFN\ProjSrc\SrcChartEx\ChartOCX\KTBChart\PrintController.cpp
; File C:\Program Files (x86)\Microsoft Visual Studio\2019\Community\VC\Tools\MSVC\14.29.30133\atlmfc\include\afxdlgs.inl
; File D:\git\src\IBK\IBK_DRFN\ProjSrc\SrcChartEx\ChartOCX\KTBChart\PrintController.cpp
; File C:\Program Files (x86)\Microsoft Visual Studio\2019\Community\VC\Tools\MSVC\14.29.30133\atlmfc\include\afxwin1.inl
; File D:\git\src\IBK\IBK_DRFN\ProjSrc\SrcChartEx\ChartOCX\KTBChart\PrintController.cpp
; File C:\Program Files (x86)\Microsoft Visual Studio\2019\Community\VC\Tools\MSVC\14.29.30133\atlmfc\include\afxdlgs.h
; File D:\git\src\IBK\IBK_DRFN\ProjSrc\SrcChartEx\ChartOCX\KTBChart\PrintController.cpp
;	COMDAT ?PopUpOsPrintDlg@CPrintController@@AAEXABVCRect@@PAVCKTBChartCtrl@@@Z
_TEXT	SEGMENT
_dlg$ = -288						; size = 240
_docinfo$2 = -48					; size = 20
_dcPrinter$3 = -28					; size = 16
__$EHRec$ = -12						; size = 12
_rcChartRegion$ = 8					; size = 4
_pCtrl$ = 12						; size = 4
?PopUpOsPrintDlg@CPrintController@@AAEXABVCRect@@PAVCKTBChartCtrl@@@Z PROC ; CPrintController::PopUpOsPrintDlg, COMDAT
; _this$ = ecx

; 77   : {

  00000	55		 push	 ebp
  00001	8b ec		 mov	 ebp, esp
  00003	6a ff		 push	 -1
  00005	68 00 00 00 00	 push	 __ehhandler$?PopUpOsPrintDlg@CPrintController@@AAEXABVCRect@@PAVCKTBChartCtrl@@@Z
  0000a	64 a1 00 00 00
	00		 mov	 eax, DWORD PTR fs:0
  00010	50		 push	 eax
  00011	81 ec 14 01 00
	00		 sub	 esp, 276		; 00000114H
  00017	56		 push	 esi
  00018	57		 push	 edi
  00019	a1 00 00 00 00	 mov	 eax, DWORD PTR ___security_cookie
  0001e	33 c5		 xor	 eax, ebp
  00020	50		 push	 eax
  00021	8d 45 f4	 lea	 eax, DWORD PTR __$EHRec$[ebp]
  00024	64 a3 00 00 00
	00		 mov	 DWORD PTR fs:0, eax
  0002a	8b f9		 mov	 edi, ecx

; 78   : 	//ms   print 
; 79   : 	DWORD dwStyle;
; 80   : 	dwStyle = PD_ALLPAGES | PD_USEDEVMODECOPIES;
; 81   : //	dwStyle = PD_SELECTION | PD_USEDEVMODECOPIES;
; 82   : 	
; 83   : 	CPrintDialog dlg(FALSE, dwStyle);

  0002c	6a 00		 push	 0
  0002e	68 00 00 04 00	 push	 262144			; 00040000H
  00033	6a 00		 push	 0
  00035	8d 8d e0 fe ff
	ff		 lea	 ecx, DWORD PTR _dlg$[ebp]
  0003b	e8 00 00 00 00	 call	 ??0CPrintDialog@@QAE@HKPAVCWnd@@@Z ; CPrintDialog::CPrintDialog

; 84   : 	if(dlg.DoModal() != IDOK)

  00040	8d 8d e0 fe ff
	ff		 lea	 ecx, DWORD PTR _dlg$[ebp]
  00046	c7 45 fc 00 00
	00 00		 mov	 DWORD PTR __$EHRec$[ebp+8], 0
  0004d	e8 00 00 00 00	 call	 ?DoModal@CPrintDialog@@UAEHXZ ; CPrintDialog::DoModal
  00052	83 f8 01	 cmp	 eax, 1
  00055	0f 85 b3 00 00
	00		 jne	 $LN12@PopUpOsPri
; File C:\Program Files (x86)\Microsoft Visual Studio\2019\Community\VC\Tools\MSVC\14.29.30133\atlmfc\include\afxdlgs.inl

; 69   : 		return m_pd.hDC; }

  0005b	8b 45 88	 mov	 eax, DWORD PTR _dlg$[ebp+168]
  0005e	8b 70 10	 mov	 esi, DWORD PTR [eax+16]
; File D:\git\src\IBK\IBK_DRFN\ProjSrc\SrcChartEx\ChartOCX\KTBChart\PrintController.cpp

; 89   : 	if (hdcPrinter == NULL) 

  00061	85 f6		 test	 esi, esi
  00063	75 11		 jne	 SHORT $LN3@PopUpOsPri

; 90   : 	   AfxMessageBox(_T("Buy printer!"));

  00065	56		 push	 esi
  00066	56		 push	 esi
  00067	68 00 00 00 00	 push	 OFFSET ??_C@_0N@LCMHNOBI@Buy?5printer?$CB@
  0006c	e8 00 00 00 00	 call	 ?AfxMessageBox@@YGHPBDII@Z ; AfxMessageBox
  00071	e9 8b 00 00 00	 jmp	 $LN4@PopUpOsPri
$LN3@PopUpOsPri:

; 91   : 	else 
; 92   : 	{
; 93   : 	   // create a CDC and attach it to the default printer
; 94   : 	   CDC dcPrinter;

  00076	8d 4d e4	 lea	 ecx, DWORD PTR _dcPrinter$3[ebp]
  00079	e8 00 00 00 00	 call	 ??0CDC@@QAE@XZ		; CDC::CDC

; 95   : 	   dcPrinter.Attach(hdcPrinter);

  0007e	56		 push	 esi
  0007f	8d 4d e4	 lea	 ecx, DWORD PTR _dcPrinter$3[ebp]
  00082	c6 45 fc 01	 mov	 BYTE PTR __$EHRec$[ebp+8], 1
  00086	e8 00 00 00 00	 call	 ?Attach@CDC@@QAEHPAUHDC__@@@Z ; CDC::Attach
; File C:\Program Files (x86)\Microsoft Visual Studio\2019\Community\VC\Tools\MSVC\14.29.30133\atlmfc\include\afxwin1.inl

; 752  : 	{ ASSERT(m_hDC != NULL); return ::StartDoc(m_hDC, lpDocInfo); }

  0008b	8d 45 d0	 lea	 eax, DWORD PTR _docinfo$2[ebp]
; File D:\git\src\IBK\IBK_DRFN\ProjSrc\SrcChartEx\ChartOCX\KTBChart\PrintController.cpp

; 99   : 	   memset(&docinfo, 0, sizeof(docinfo));

  0008e	c7 45 e0 00 00
	00 00		 mov	 DWORD PTR _docinfo$2[ebp+16], 0
; File C:\Program Files (x86)\Microsoft Visual Studio\2019\Community\VC\Tools\MSVC\14.29.30133\atlmfc\include\afxwin1.inl

; 752  : 	{ ASSERT(m_hDC != NULL); return ::StartDoc(m_hDC, lpDocInfo); }

  00095	50		 push	 eax
  00096	ff 75 e8	 push	 DWORD PTR _dcPrinter$3[ebp+4]
  00099	0f 57 c0	 xorps	 xmm0, xmm0
; File D:\git\src\IBK\IBK_DRFN\ProjSrc\SrcChartEx\ChartOCX\KTBChart\PrintController.cpp

; 100  : 	   docinfo.cbSize = sizeof(docinfo);

  0009c	c7 45 d0 14 00
	00 00		 mov	 DWORD PTR _docinfo$2[ebp], 20 ; 00000014H
  000a3	66 0f 13 45 d8	 movlpd	 QWORD PTR _docinfo$2[ebp+8], xmm0

; 101  : 	   docinfo.lpszDocName = _T("NeoChart2001");

  000a8	c7 45 d4 00 00
	00 00		 mov	 DWORD PTR _docinfo$2[ebp+4], OFFSET ??_C@_0N@GIPCBNAK@NeoChart2001@
; File C:\Program Files (x86)\Microsoft Visual Studio\2019\Community\VC\Tools\MSVC\14.29.30133\atlmfc\include\afxwin1.inl

; 752  : 	{ ASSERT(m_hDC != NULL); return ::StartDoc(m_hDC, lpDocInfo); }

  000af	ff 15 00 00 00
	00		 call	 DWORD PTR __imp__StartDocA@8
; File D:\git\src\IBK\IBK_DRFN\ProjSrc\SrcChartEx\ChartOCX\KTBChart\PrintController.cpp

; 104  : 	   if (dcPrinter.StartDoc(&docinfo) < 0)

  000b5	85 c0		 test	 eax, eax
  000b7	79 10		 jns	 SHORT $LN5@PopUpOsPri

; 105  : 		  AfxMessageBox(_T("Printer Wouldn't initalize"));

  000b9	6a 00		 push	 0
  000bb	6a 00		 push	 0
  000bd	68 00 00 00 00	 push	 OFFSET ??_C@_0BL@BBEIPBHH@Printer?5Wouldn?8t?5initalize@
  000c2	e8 00 00 00 00	 call	 ?AfxMessageBox@@YGHPBDII@Z ; AfxMessageBox
  000c7	eb 2c		 jmp	 SHORT $LN6@PopUpOsPri
$LN5@PopUpOsPri:
; File C:\Program Files (x86)\Microsoft Visual Studio\2019\Community\VC\Tools\MSVC\14.29.30133\atlmfc\include\afxdlgs.inl

; 59   : 	{ return !PrintRange() && !PrintSelection() ? TRUE : FALSE; }

  000c9	ff 75 0c	 push	 DWORD PTR _pCtrl$[ebp]

; 57   : 	{ return m_pd.Flags & PD_PAGENUMS ? TRUE : FALSE; }

  000cc	8b 45 88	 mov	 eax, DWORD PTR _dlg$[ebp+168]

; 59   : 	{ return !PrintRange() && !PrintSelection() ? TRUE : FALSE; }

  000cf	8b cf		 mov	 ecx, edi
  000d1	ff 75 08	 push	 DWORD PTR _rcChartRegion$[ebp]
  000d4	6a 00		 push	 0
  000d6	f6 40 14 03	 test	 BYTE PTR [eax+20], 3
  000da	8d 45 e4	 lea	 eax, DWORD PTR _dcPrinter$3[ebp]
  000dd	50		 push	 eax
  000de	75 07		 jne	 SHORT $LN25@PopUpOsPri
; File D:\git\src\IBK\IBK_DRFN\ProjSrc\SrcChartEx\ChartOCX\KTBChart\PrintController.cpp

; 112  : 			  OnPrintCurrentPage(dcPrinter, 0, rcChartRegion, pCtrl);

  000e0	e8 00 00 00 00	 call	 ?OnPrintCurrentPage@CPrintController@@AAEXAAVCDC@@HABVCRect@@PAVCKTBChartCtrl@@@Z ; CPrintController::OnPrintCurrentPage
  000e5	eb 05		 jmp	 SHORT $LN8@PopUpOsPri
$LN25@PopUpOsPri:

; 106  : 	   else
; 107  : 	   {
; 108  : 		  // Data 
; 109  : 		  if(!dlg.PrintAll()) 
; 110  : 			  OnPrintTotalData(dcPrinter, 0, rcChartRegion, pCtrl);

  000e7	e8 00 00 00 00	 call	 ?OnPrintTotalData@CPrintController@@AAEXAAVCDC@@HABVCRect@@PAVCKTBChartCtrl@@@Z ; CPrintController::OnPrintTotalData
$LN8@PopUpOsPri:
; File C:\Program Files (x86)\Microsoft Visual Studio\2019\Community\VC\Tools\MSVC\14.29.30133\atlmfc\include\afxwin1.inl

; 762  : 	{ ASSERT(m_hDC != NULL); return ::EndDoc(m_hDC); }

  000ec	ff 75 e8	 push	 DWORD PTR _dcPrinter$3[ebp+4]
  000ef	ff 15 00 00 00
	00		 call	 DWORD PTR __imp__EndDoc@4
$LN6@PopUpOsPri:
; File D:\git\src\IBK\IBK_DRFN\ProjSrc\SrcChartEx\ChartOCX\KTBChart\PrintController.cpp

; 115  : 	}

  000f5	8d 4d e4	 lea	 ecx, DWORD PTR _dcPrinter$3[ebp]
  000f8	c6 45 fc 00	 mov	 BYTE PTR __$EHRec$[ebp+8], 0
  000fc	e8 00 00 00 00	 call	 ??1CDC@@UAE@XZ		; CDC::~CDC
$LN4@PopUpOsPri:

; 116  : 	CDC::FromHandle(hdcPrinter)->DeleteDC();

  00101	56		 push	 esi
  00102	e8 00 00 00 00	 call	 ?FromHandle@CDC@@SGPAV1@PAUHDC__@@@Z ; CDC::FromHandle
  00107	8b c8		 mov	 ecx, eax
  00109	e8 00 00 00 00	 call	 ?DeleteDC@CDC@@QAEHXZ	; CDC::DeleteDC
$LN12@PopUpOsPri:
; File C:\Program Files (x86)\Microsoft Visual Studio\2019\Community\VC\Tools\MSVC\14.29.30133\atlmfc\include\afxdlgs.h

; 110  :     virtual ~CCommonDialog() {};

  0010e	8d 8d e0 fe ff
	ff		 lea	 ecx, DWORD PTR _dlg$[ebp]
  00114	c7 85 e0 fe ff
	ff 00 00 00 00	 mov	 DWORD PTR _dlg$[ebp], OFFSET ??_7CCommonDialog@@6B@
  0011e	e8 00 00 00 00	 call	 ??1CDialog@@UAE@XZ	; CDialog::~CDialog
; File D:\git\src\IBK\IBK_DRFN\ProjSrc\SrcChartEx\ChartOCX\KTBChart\PrintController.cpp

; 117  : }

  00123	8b 4d f4	 mov	 ecx, DWORD PTR __$EHRec$[ebp]
  00126	64 89 0d 00 00
	00 00		 mov	 DWORD PTR fs:0, ecx
  0012d	59		 pop	 ecx
  0012e	5f		 pop	 edi
  0012f	5e		 pop	 esi
  00130	8b e5		 mov	 esp, ebp
  00132	5d		 pop	 ebp
  00133	c2 08 00	 ret	 8
_TEXT	ENDS
;	COMDAT text$x
text$x	SEGMENT
__unwindfunclet$?PopUpOsPrintDlg@CPrintController@@AAEXABVCRect@@PAVCKTBChartCtrl@@@Z$0:
  00000	8d 8d e0 fe ff
	ff		 lea	 ecx, DWORD PTR _dlg$[ebp]
  00006	e9 00 00 00 00	 jmp	 ??1CPrintDialog@@UAE@XZ
__unwindfunclet$?PopUpOsPrintDlg@CPrintController@@AAEXABVCRect@@PAVCKTBChartCtrl@@@Z$1:
  0000b	8d 4d e4	 lea	 ecx, DWORD PTR _dcPrinter$3[ebp]
  0000e	e9 00 00 00 00	 jmp	 ??1CDC@@UAE@XZ		; CDC::~CDC
  00013	cc		 int	 3
  00014	cc		 int	 3
  00015	cc		 int	 3
  00016	cc		 int	 3
  00017	cc		 int	 3
__ehhandler$?PopUpOsPrintDlg@CPrintController@@AAEXABVCRect@@PAVCKTBChartCtrl@@@Z:
  00018	90		 npad	 1
  00019	90		 npad	 1
  0001a	8b 54 24 08	 mov	 edx, DWORD PTR [esp+8]
  0001e	8d 42 0c	 lea	 eax, DWORD PTR [edx+12]
  00021	8b 8a e0 fe ff
	ff		 mov	 ecx, DWORD PTR [edx-288]
  00027	33 c8		 xor	 ecx, eax
  00029	e8 00 00 00 00	 call	 @__security_check_cookie@4
  0002e	b8 00 00 00 00	 mov	 eax, OFFSET __ehfuncinfo$?PopUpOsPrintDlg@CPrintController@@AAEXABVCRect@@PAVCKTBChartCtrl@@@Z
  00033	e9 00 00 00 00	 jmp	 ___CxxFrameHandler3
text$x	ENDS
?PopUpOsPrintDlg@CPrintController@@AAEXABVCRect@@PAVCKTBChartCtrl@@@Z ENDP ; CPrintController::PopUpOsPrintDlg
; Function compile flags: /Ogtp
; File D:\git\src\IBK\IBK_DRFN\ProjSrc\SrcChartEx\ChartOCX\KTBChart\PrintController.cpp
; File C:\Program Files (x86)\Microsoft Visual Studio\2019\Community\VC\Tools\MSVC\14.29.30133\atlmfc\include\afxwin2.inl
; File D:\git\src\IBK\IBK_DRFN\ProjSrc\SrcChartEx\ChartOCX\KTBChart\PrintController.cpp
; File C:\Program Files (x86)\Microsoft Visual Studio\2019\Community\VC\Tools\MSVC\14.29.30133\atlmfc\include\afxwin1.inl
; File D:\git\src\IBK\IBK_DRFN\ProjSrc\SrcChartEx\ChartOCX\Include_Chart\Dll_Load\IMetaTable.h
; File C:\Program Files (x86)\Microsoft Visual Studio\2019\Community\VC\Tools\MSVC\14.29.30133\atlmfc\include\afxwin1.inl
; File D:\git\src\IBK\IBK_DRFN\ProjSrc\SrcChartEx\ChartOCX\KTBChart\PrintController.cpp
; File C:\Program Files (x86)\Microsoft Visual Studio\2019\Community\VC\Tools\MSVC\14.29.30133\atlmfc\include\afxwin1.inl
; File D:\git\src\IBK\IBK_DRFN\ProjSrc\SrcChartEx\ChartOCX\KTBChart\PrintController.cpp
; File C:\Program Files (x86)\Microsoft Visual Studio\2019\Community\VC\Tools\MSVC\14.29.30133\atlmfc\include\afxwin1.inl
; File D:\git\src\IBK\IBK_DRFN\ProjSrc\SrcChartEx\ChartOCX\KTBChart\PrintController.cpp
; File C:\Program Files (x86)\Microsoft Visual Studio\2019\Community\VC\Tools\MSVC\14.29.30133\atlmfc\include\afxwin1.inl
; File D:\git\src\IBK\IBK_DRFN\ProjSrc\SrcChartEx\ChartOCX\KTBChart\PrintController.cpp
; File C:\Program Files (x86)\Microsoft Visual Studio\2019\Community\VC\Tools\MSVC\14.29.30133\atlmfc\include\afxwin1.inl
; File D:\git\src\IBK\IBK_DRFN\ProjSrc\SrcChartEx\ChartOCX\KTBChart\PrintController.cpp
; File D:\git\src\IBK\IBK_DRFN\ProjSrc\SrcChartEx\ChartOCX\Include_Chart\Dll_Load\IMetaTable.h
; File C:\Program Files (x86)\Microsoft Visual Studio\2019\Community\VC\Tools\MSVC\14.29.30133\atlmfc\include\afxwin1.inl
; File D:\git\src\IBK\IBK_DRFN\ProjSrc\SrcChartEx\ChartOCX\KTBChart\PrintController.cpp
;	COMDAT ?PopUpOsAndMyPrintDlg@CPrintController@@AAEXABVCRect@@PAVCKTBChartCtrl@@@Z
_TEXT	SEGMENT
_dlg$ = -368						; size = 312
_docinfo$2 = -56					; size = 20
___mlrs__$ = -36					; size = 4
_dcPrinter$3 = -32					; size = 16
_this$1$ = -16						; size = 4
__$EHRec$ = -12						; size = 12
_rcChartRegion$ = 8					; size = 4
_bColor$1$ = 12						; size = 4
_pCtrl$ = 12						; size = 4
?PopUpOsAndMyPrintDlg@CPrintController@@AAEXABVCRect@@PAVCKTBChartCtrl@@@Z PROC ; CPrintController::PopUpOsAndMyPrintDlg, COMDAT
; _this$ = ecx

; 242  : {

  00000	55		 push	 ebp
  00001	8b ec		 mov	 ebp, esp
  00003	6a ff		 push	 -1
  00005	68 00 00 00 00	 push	 __ehhandler$?PopUpOsAndMyPrintDlg@CPrintController@@AAEXABVCRect@@PAVCKTBChartCtrl@@@Z
  0000a	64 a1 00 00 00
	00		 mov	 eax, DWORD PTR fs:0
  00010	50		 push	 eax
  00011	81 ec 64 01 00
	00		 sub	 esp, 356		; 00000164H
  00017	53		 push	 ebx
  00018	56		 push	 esi
  00019	57		 push	 edi
  0001a	a1 00 00 00 00	 mov	 eax, DWORD PTR ___security_cookie
  0001f	33 c5		 xor	 eax, ebp
  00021	50		 push	 eax
  00022	8d 45 f4	 lea	 eax, DWORD PTR __$EHRec$[ebp]
  00025	64 a3 00 00 00
	00		 mov	 DWORD PTR fs:0, eax
  0002b	89 4d f0	 mov	 DWORD PTR _this$1$[ebp], ecx
; File C:\Program Files (x86)\Microsoft Visual Studio\2019\Community\VC\Tools\MSVC\14.29.30133\atlmfc\include\afxwin2.inl

; 25   : 	{ return this == NULL ? NULL : m_hWnd; }

  0002e	8b 5d 0c	 mov	 ebx, DWORD PTR _pCtrl$[ebp]
  00031	85 db		 test	 ebx, ebx
  00033	75 04		 jne	 SHORT $LN18@PopUpOsAnd
  00035	33 f6		 xor	 esi, esi
  00037	eb 03		 jmp	 SHORT $LN19@PopUpOsAnd
$LN18@PopUpOsAnd:
  00039	8b 73 20	 mov	 esi, DWORD PTR [ebx+32]
$LN19@PopUpOsAnd:
; File D:\git\src\IBK\IBK_DRFN\ProjSrc\SrcChartEx\ChartOCX\KTBChart\PrintController.cpp

; 244  : 	ML_SET_LANGUAGE_RES();

  0003c	e8 00 00 00 00	 call	 ?AfxGetStaticModuleState@@YGPAVAFX_MODULE_STATE@@XZ ; AfxGetStaticModuleState
  00041	b9 00 00 00 00	 mov	 ecx, OFFSET ?g_iMetaTable@@3VIMetaTable@@A ; g_iMetaTable
  00046	8b 40 08	 mov	 eax, DWORD PTR [eax+8]
  00049	50		 push	 eax
  0004a	56		 push	 esi
  0004b	e8 00 00 00 00	 call	 ?LoadResourceDLL@IMetaTable@@QAEPAUHINSTANCE__@@PAUHWND__@@PAU2@@Z ; IMetaTable::LoadResourceDLL
  00050	8b f8		 mov	 edi, eax
; File C:\Program Files (x86)\Microsoft Visual Studio\2019\Community\VC\Tools\MSVC\14.29.30133\atlmfc\include\afxwin1.inl

; 25   : 		return afxCurrentResourceHandle; }

  00052	e8 00 00 00 00	 call	 ?AfxGetModuleState@@YGPAVAFX_MODULE_STATE@@XZ ; AfxGetModuleState
; File D:\git\src\IBK\IBK_DRFN\ProjSrc\SrcChartEx\ChartOCX\Include_Chart\Dll_Load\IMetaTable.h

; 1032 : 		m_hInstance = AfxGetResourceHandle();

  00057	8b 70 0c	 mov	 esi, DWORD PTR [eax+12]
  0005a	89 75 dc	 mov	 DWORD PTR ___mlrs__$[ebp], esi
; File C:\Program Files (x86)\Microsoft Visual Studio\2019\Community\VC\Tools\MSVC\14.29.30133\atlmfc\include\afxwin1.inl

; 27   : 	{ ASSERT(hInstResource != NULL); afxCurrentResourceHandle = hInstResource; }

  0005d	e8 00 00 00 00	 call	 ?AfxGetModuleState@@YGPAVAFX_MODULE_STATE@@XZ ; AfxGetModuleState
  00062	89 78 0c	 mov	 DWORD PTR [eax+12], edi
; File D:\git\src\IBK\IBK_DRFN\ProjSrc\SrcChartEx\ChartOCX\KTBChart\PrintController.cpp

; 245  : 	CDlgPrintCfg dlg;

  00065	6a 00		 push	 0
  00067	8d 8d 90 fe ff
	ff		 lea	 ecx, DWORD PTR _dlg$[ebp]
  0006d	c7 45 fc 00 00
	00 00		 mov	 DWORD PTR __$EHRec$[ebp+8], 0
  00074	e8 00 00 00 00	 call	 ??0CDlgPrintCfg@@QAE@PAVCWnd@@@Z ; CDlgPrintCfg::CDlgPrintCfg

; 246  : 	if(dlg.DoModal() != IDOK)

  00079	8d 8d 90 fe ff
	ff		 lea	 ecx, DWORD PTR _dlg$[ebp]
  0007f	c6 45 fc 01	 mov	 BYTE PTR __$EHRec$[ebp+8], 1
  00083	e8 00 00 00 00	 call	 ?DoModal@CDialog@@UAEHXZ ; CDialog::DoModal
  00088	83 f8 01	 cmp	 eax, 1
  0008b	0f 85 ee 00 00
	00		 jne	 $LN4@PopUpOsAnd

; 247  : 		return;
; 248  : 
; 249  : 	HDC hdcPrinter = dlg.GetHDC();

  00091	8d 8d 90 fe ff
	ff		 lea	 ecx, DWORD PTR _dlg$[ebp]
  00097	e8 00 00 00 00	 call	 ?GetHDC@CDlgPrintCfg@@QAEPAUHDC__@@XZ ; CDlgPrintCfg::GetHDC
  0009c	8b f8		 mov	 edi, eax

; 250  : 	if (hdcPrinter == NULL)

  0009e	85 ff		 test	 edi, edi
  000a0	75 11		 jne	 SHORT $LN3@PopUpOsAnd

; 251  : 	   AfxMessageBox(_T("Buy a printer!"));

  000a2	50		 push	 eax
  000a3	50		 push	 eax
  000a4	68 00 00 00 00	 push	 OFFSET ??_C@_0P@DGIMNGKH@Buy?5a?5printer?$CB@
  000a9	e8 00 00 00 00	 call	 ?AfxMessageBox@@YGHPBDII@Z ; AfxMessageBox
  000ae	e9 cc 00 00 00	 jmp	 $LN4@PopUpOsAnd
$LN3@PopUpOsAnd:

; 252  : 	else
; 253  : 	{
; 254  : 	   CDC dcPrinter;

  000b3	8d 4d e0	 lea	 ecx, DWORD PTR _dcPrinter$3[ebp]
  000b6	e8 00 00 00 00	 call	 ??0CDC@@QAE@XZ		; CDC::CDC

; 255  : 	   dcPrinter.Attach(hdcPrinter);

  000bb	57		 push	 edi
  000bc	8d 4d e0	 lea	 ecx, DWORD PTR _dcPrinter$3[ebp]
  000bf	c6 45 fc 03	 mov	 BYTE PTR __$EHRec$[ebp+8], 3
  000c3	e8 00 00 00 00	 call	 ?Attach@CDC@@QAEHPAUHDC__@@@Z ; CDC::Attach
; File C:\Program Files (x86)\Microsoft Visual Studio\2019\Community\VC\Tools\MSVC\14.29.30133\atlmfc\include\afxwin1.inl

; 752  : 	{ ASSERT(m_hDC != NULL); return ::StartDoc(m_hDC, lpDocInfo); }

  000c8	8d 45 c8	 lea	 eax, DWORD PTR _docinfo$2[ebp]
; File D:\git\src\IBK\IBK_DRFN\ProjSrc\SrcChartEx\ChartOCX\KTBChart\PrintController.cpp

; 259  : 	   memset(&docinfo, 0, sizeof(docinfo));

  000cb	c7 45 d8 00 00
	00 00		 mov	 DWORD PTR _docinfo$2[ebp+16], 0
; File C:\Program Files (x86)\Microsoft Visual Studio\2019\Community\VC\Tools\MSVC\14.29.30133\atlmfc\include\afxwin1.inl

; 752  : 	{ ASSERT(m_hDC != NULL); return ::StartDoc(m_hDC, lpDocInfo); }

  000d2	50		 push	 eax
  000d3	ff 75 e4	 push	 DWORD PTR _dcPrinter$3[ebp+4]
  000d6	0f 57 c0	 xorps	 xmm0, xmm0
; File D:\git\src\IBK\IBK_DRFN\ProjSrc\SrcChartEx\ChartOCX\KTBChart\PrintController.cpp

; 260  : 	   docinfo.cbSize = sizeof(docinfo);

  000d9	c7 45 c8 14 00
	00 00		 mov	 DWORD PTR _docinfo$2[ebp], 20 ; 00000014H
  000e0	66 0f 13 45 d0	 movlpd	 QWORD PTR _docinfo$2[ebp+8], xmm0

; 261  : 	   docinfo.lpszDocName = _T("NeoChart2001");

  000e5	c7 45 cc 00 00
	00 00		 mov	 DWORD PTR _docinfo$2[ebp+4], OFFSET ??_C@_0N@GIPCBNAK@NeoChart2001@
; File C:\Program Files (x86)\Microsoft Visual Studio\2019\Community\VC\Tools\MSVC\14.29.30133\atlmfc\include\afxwin1.inl

; 752  : 	{ ASSERT(m_hDC != NULL); return ::StartDoc(m_hDC, lpDocInfo); }

  000ec	ff 15 00 00 00
	00		 call	 DWORD PTR __imp__StartDocA@8
; File D:\git\src\IBK\IBK_DRFN\ProjSrc\SrcChartEx\ChartOCX\KTBChart\PrintController.cpp

; 264  : 	   if (dcPrinter.StartDoc(&docinfo) < 0)

  000f2	85 c0		 test	 eax, eax
  000f4	79 10		 jns	 SHORT $LN5@PopUpOsAnd

; 265  : 		  AfxMessageBox(_T("Printer Wouldn't initalize"));

  000f6	6a 00		 push	 0
  000f8	6a 00		 push	 0
  000fa	68 00 00 00 00	 push	 OFFSET ??_C@_0BL@BBEIPBHH@Printer?5Wouldn?8t?5initalize@
  000ff	e8 00 00 00 00	 call	 ?AfxMessageBox@@YGHPBDII@Z ; AfxMessageBox
  00104	eb 64		 jmp	 SHORT $LN6@PopUpOsAnd
$LN5@PopUpOsAnd:

; 266  : 	   else 
; 267  : 	   {
; 268  : 		  BOOL bColor = dlg.GetPrintColor();

  00106	8d 8d 90 fe ff
	ff		 lea	 ecx, DWORD PTR _dlg$[ebp]
  0010c	e8 00 00 00 00	 call	 ?GetPrintColor@CDlgPrintCfg@@QAEHXZ ; CDlgPrintCfg::GetPrintColor

; 269  : 		  if(!dlg.GetPrintRange()) // Data 

  00111	8d 8d 90 fe ff
	ff		 lea	 ecx, DWORD PTR _dlg$[ebp]
  00117	89 45 0c	 mov	 DWORD PTR _bColor$1$[ebp], eax
  0011a	e8 00 00 00 00	 call	 ?GetPrintRange@CDlgPrintCfg@@QAEHXZ ; CDlgPrintCfg::GetPrintRange
  0011f	85 c0		 test	 eax, eax
  00121	75 15		 jne	 SHORT $LN7@PopUpOsAnd

; 270  : 			  OnPrintTotalData(dcPrinter, bColor, rcChartRegion, pCtrl);

  00123	8b 4d f0	 mov	 ecx, DWORD PTR _this$1$[ebp]
  00126	8d 45 e0	 lea	 eax, DWORD PTR _dcPrinter$3[ebp]
  00129	53		 push	 ebx
  0012a	ff 75 08	 push	 DWORD PTR _rcChartRegion$[ebp]
  0012d	ff 75 0c	 push	 DWORD PTR _bColor$1$[ebp]
  00130	50		 push	 eax
  00131	e8 00 00 00 00	 call	 ?OnPrintTotalData@CPrintController@@AAEXAAVCDC@@HABVCRect@@PAVCKTBChartCtrl@@@Z ; CPrintController::OnPrintTotalData
  00136	eb 29		 jmp	 SHORT $LN10@PopUpOsAnd
$LN7@PopUpOsAnd:

; 271  : 		  else // 
; 272  : 		  {  	
; 273  : 			  if(dlg.PrintAllByOnePageDataCount())//    

  00138	8d 8d 90 fe ff
	ff		 lea	 ecx, DWORD PTR _dlg$[ebp]
  0013e	e8 00 00 00 00	 call	 ?PrintAllByOnePageDataCount@CDlgPrintCfg@@QAEHXZ ; CDlgPrintCfg::PrintAllByOnePageDataCount
  00143	8b 4d f0	 mov	 ecx, DWORD PTR _this$1$[ebp]
  00146	85 c0		 test	 eax, eax
  00148	53		 push	 ebx
  00149	ff 75 08	 push	 DWORD PTR _rcChartRegion$[ebp]
  0014c	8d 45 e0	 lea	 eax, DWORD PTR _dcPrinter$3[ebp]
  0014f	ff 75 0c	 push	 DWORD PTR _bColor$1$[ebp]
  00152	50		 push	 eax
  00153	74 07		 je	 SHORT $LN9@PopUpOsAnd

; 274  : 				  OnPrintbyUserSetDataCountperOnePge(dcPrinter, bColor, rcChartRegion, pCtrl);

  00155	e8 00 00 00 00	 call	 ?OnPrintbyUserSetDataCountperOnePge@CPrintController@@AAEXAAVCDC@@HABVCRect@@PAVCKTBChartCtrl@@@Z ; CPrintController::OnPrintbyUserSetDataCountperOnePge
  0015a	eb 05		 jmp	 SHORT $LN10@PopUpOsAnd
$LN9@PopUpOsAnd:

; 275  : 			  else //  
; 276  : 				  OnPrintCurrentPage(dcPrinter, bColor, rcChartRegion, pCtrl);

  0015c	e8 00 00 00 00	 call	 ?OnPrintCurrentPage@CPrintController@@AAEXAAVCDC@@HABVCRect@@PAVCKTBChartCtrl@@@Z ; CPrintController::OnPrintCurrentPage
$LN10@PopUpOsAnd:
; File C:\Program Files (x86)\Microsoft Visual Studio\2019\Community\VC\Tools\MSVC\14.29.30133\atlmfc\include\afxwin1.inl

; 762  : 	{ ASSERT(m_hDC != NULL); return ::EndDoc(m_hDC); }

  00161	ff 75 e4	 push	 DWORD PTR _dcPrinter$3[ebp+4]
  00164	ff 15 00 00 00
	00		 call	 DWORD PTR __imp__EndDoc@4
$LN6@PopUpOsAnd:
; File D:\git\src\IBK\IBK_DRFN\ProjSrc\SrcChartEx\ChartOCX\KTBChart\PrintController.cpp

; 280  : 		CDC::FromHandle(hdcPrinter)->DeleteDC();

  0016a	57		 push	 edi
  0016b	e8 00 00 00 00	 call	 ?FromHandle@CDC@@SGPAV1@PAUHDC__@@@Z ; CDC::FromHandle
  00170	8b c8		 mov	 ecx, eax
  00172	e8 00 00 00 00	 call	 ?DeleteDC@CDC@@QAEHXZ	; CDC::DeleteDC

; 281  : 	}

  00177	8d 4d e0	 lea	 ecx, DWORD PTR _dcPrinter$3[ebp]
  0017a	e8 00 00 00 00	 call	 ??1CDC@@UAE@XZ		; CDC::~CDC
$LN4@PopUpOsAnd:
  0017f	8d 8d 38 ff ff
	ff		 lea	 ecx, DWORD PTR _dlg$[ebp+168]
  00185	e8 00 00 00 00	 call	 ??1CButton@@UAE@XZ	; CButton::~CButton
  0018a	8d 8d 90 fe ff
	ff		 lea	 ecx, DWORD PTR _dlg$[ebp]
  00190	e8 00 00 00 00	 call	 ??1CDialog@@UAE@XZ	; CDialog::~CDialog
; File D:\git\src\IBK\IBK_DRFN\ProjSrc\SrcChartEx\ChartOCX\Include_Chart\Dll_Load\IMetaTable.h

; 1036 : 	{

  00195	c7 45 fc 04 00
	00 00		 mov	 DWORD PTR __$EHRec$[ebp+8], 4
; File C:\Program Files (x86)\Microsoft Visual Studio\2019\Community\VC\Tools\MSVC\14.29.30133\atlmfc\include\afxwin1.inl

; 27   : 	{ ASSERT(hInstResource != NULL); afxCurrentResourceHandle = hInstResource; }

  0019c	e8 00 00 00 00	 call	 ?AfxGetModuleState@@YGPAVAFX_MODULE_STATE@@XZ ; AfxGetModuleState
  001a1	89 70 0c	 mov	 DWORD PTR [eax+12], esi
; File D:\git\src\IBK\IBK_DRFN\ProjSrc\SrcChartEx\ChartOCX\KTBChart\PrintController.cpp

; 282  : }

  001a4	8b 4d f4	 mov	 ecx, DWORD PTR __$EHRec$[ebp]
  001a7	64 89 0d 00 00
	00 00		 mov	 DWORD PTR fs:0, ecx
  001ae	59		 pop	 ecx
  001af	5f		 pop	 edi
  001b0	5e		 pop	 esi
  001b1	5b		 pop	 ebx
  001b2	8b e5		 mov	 esp, ebp
  001b4	5d		 pop	 ebp
  001b5	c2 08 00	 ret	 8
_TEXT	ENDS
;	COMDAT text$x
text$x	SEGMENT
__unwindfunclet$?PopUpOsAndMyPrintDlg@CPrintController@@AAEXABVCRect@@PAVCKTBChartCtrl@@@Z$0:
  00000	8d 4d dc	 lea	 ecx, DWORD PTR ___mlrs__$[ebp]
  00003	e9 00 00 00 00	 jmp	 ??1CMultiLanguageResourceSetter@@QAE@XZ ; CMultiLanguageResourceSetter::~CMultiLanguageResourceSetter
__unwindfunclet$?PopUpOsAndMyPrintDlg@CPrintController@@AAEXABVCRect@@PAVCKTBChartCtrl@@@Z$1:
  00008	8d 8d 90 fe ff
	ff		 lea	 ecx, DWORD PTR _dlg$[ebp]
  0000e	e9 00 00 00 00	 jmp	 ??1CDlgPrintCfg@@UAE@XZ
__unwindfunclet$?PopUpOsAndMyPrintDlg@CPrintController@@AAEXABVCRect@@PAVCKTBChartCtrl@@@Z$2:
  00013	8d 4d e0	 lea	 ecx, DWORD PTR _dcPrinter$3[ebp]
  00016	e9 00 00 00 00	 jmp	 ??1CDC@@UAE@XZ		; CDC::~CDC
  0001b	cc		 int	 3
  0001c	cc		 int	 3
  0001d	cc		 int	 3
  0001e	cc		 int	 3
  0001f	cc		 int	 3
__ehhandler$?PopUpOsAndMyPrintDlg@CPrintController@@AAEXABVCRect@@PAVCKTBChartCtrl@@@Z:
  00020	90		 npad	 1
  00021	90		 npad	 1
  00022	8b 54 24 08	 mov	 edx, DWORD PTR [esp+8]
  00026	8d 42 0c	 lea	 eax, DWORD PTR [edx+12]
  00029	8b 8a 8c fe ff
	ff		 mov	 ecx, DWORD PTR [edx-372]
  0002f	33 c8		 xor	 ecx, eax
  00031	e8 00 00 00 00	 call	 @__security_check_cookie@4
  00036	b8 00 00 00 00	 mov	 eax, OFFSET __ehfuncinfo$?PopUpOsAndMyPrintDlg@CPrintController@@AAEXABVCRect@@PAVCKTBChartCtrl@@@Z
  0003b	e9 00 00 00 00	 jmp	 ___CxxFrameHandler3
text$x	ENDS
?PopUpOsAndMyPrintDlg@CPrintController@@AAEXABVCRect@@PAVCKTBChartCtrl@@@Z ENDP ; CPrintController::PopUpOsAndMyPrintDlg
; Function compile flags: /Ogtp
; File D:\git\src\IBK\IBK_DRFN\ProjSrc\SrcChartEx\ChartOCX\KTBChart\PrintController.cpp
;	COMDAT ?OnPrint@CPrintController@@QAEXABVCRect@@PAVCKTBChartCtrl@@@Z
_TEXT	SEGMENT
_rcChartRegion$ = 8					; size = 4
_pCtrl$ = 12						; size = 4
?OnPrint@CPrintController@@QAEXABVCRect@@PAVCKTBChartCtrl@@@Z PROC ; CPrintController::OnPrint, COMDAT
; _this$ = ecx

; 23   : {

  00000	55		 push	 ebp
  00001	8b ec		 mov	 ebp, esp

; 25   : }

  00003	5d		 pop	 ebp

; 24   : 	PopUpOsAndMyPrintDlg(rcChartRegion, pCtrl);

  00004	e9 00 00 00 00	 jmp	 ?PopUpOsAndMyPrintDlg@CPrintController@@AAEXABVCRect@@PAVCKTBChartCtrl@@@Z ; CPrintController::PopUpOsAndMyPrintDlg
?OnPrint@CPrintController@@QAEXABVCRect@@PAVCKTBChartCtrl@@@Z ENDP ; CPrintController::OnPrint
_TEXT	ENDS
; Function compile flags: /Ogtp
; File C:\Program Files (x86)\Microsoft Visual Studio\2019\Community\VC\Tools\MSVC\14.29.30133\atlmfc\include\afxdlgs.h
;	COMDAT ??1CPrintDialog@@UAE@XZ
_TEXT	SEGMENT
??1CPrintDialog@@UAE@XZ PROC				; CPrintDialog::~CPrintDialog, COMDAT
; _this$ = ecx

; 110  :     virtual ~CCommonDialog() {};

  00000	c7 01 00 00 00
	00		 mov	 DWORD PTR [ecx], OFFSET ??_7CCommonDialog@@6B@
  00006	e9 00 00 00 00	 jmp	 ??1CDialog@@UAE@XZ	; CDialog::~CDialog
??1CPrintDialog@@UAE@XZ ENDP				; CPrintDialog::~CPrintDialog
_TEXT	ENDS
; Function compile flags: /Ogtp
; File C:\Program Files (x86)\Microsoft Visual Studio\2019\Community\VC\Tools\MSVC\14.29.30133\atlmfc\include\afxdlgs.h
; File C:\Program Files (x86)\Microsoft Visual Studio\2019\Community\VC\Tools\MSVC\14.29.30133\atlmfc\include\afx.inl
;	COMDAT ??_GCCommonDialog@@UAEPAXI@Z
_TEXT	SEGMENT
___flags$ = 8						; size = 4
??_GCCommonDialog@@UAEPAXI@Z PROC			; CCommonDialog::`scalar deleting destructor', COMDAT
; _this$ = ecx
  00000	55		 push	 ebp
  00001	8b ec		 mov	 ebp, esp
; File C:\Program Files (x86)\Microsoft Visual Studio\2019\Community\VC\Tools\MSVC\14.29.30133\atlmfc\include\afxdlgs.h

; 110  :     virtual ~CCommonDialog() {};

  00003	56		 push	 esi
  00004	8b f1		 mov	 esi, ecx
  00006	c7 06 00 00 00
	00		 mov	 DWORD PTR [esi], OFFSET ??_7CCommonDialog@@6B@
  0000c	e8 00 00 00 00	 call	 ??1CDialog@@UAE@XZ	; CDialog::~CDialog
  00011	8b 45 08	 mov	 eax, DWORD PTR ___flags$[ebp]
  00014	a8 01		 test	 al, 1
  00016	74 22		 je	 SHORT $LN12@scalar
  00018	a8 04		 test	 al, 4
  0001a	75 10		 jne	 SHORT $LN3@scalar
; File C:\Program Files (x86)\Microsoft Visual Studio\2019\Community\VC\Tools\MSVC\14.29.30133\atlmfc\include\afx.inl

; 112  : 	{ ::operator delete(p); }

  0001c	56		 push	 esi
  0001d	e8 00 00 00 00	 call	 ??3@YAXPAX@Z		; operator delete
  00022	83 c4 04	 add	 esp, 4
  00025	8b c6		 mov	 eax, esi
  00027	5e		 pop	 esi
  00028	5d		 pop	 ebp
  00029	c2 04 00	 ret	 4
$LN3@scalar:
  0002c	68 a8 00 00 00	 push	 168			; 000000a8H
  00031	56		 push	 esi
  00032	e8 00 00 00 00	 call	 ?__global_delete@@YAXPAXI@Z ; __global_delete
  00037	83 c4 08	 add	 esp, 8
$LN12@scalar:
  0003a	8b c6		 mov	 eax, esi
  0003c	5e		 pop	 esi
  0003d	5d		 pop	 ebp
  0003e	c2 04 00	 ret	 4
??_GCCommonDialog@@UAEPAXI@Z ENDP			; CCommonDialog::`scalar deleting destructor'
_TEXT	ENDS
; Function compile flags: /Ogtp
; File C:\Program Files (x86)\Microsoft Visual Studio\2019\Community\VC\Tools\MSVC\14.29.30133\atlmfc\include\afxdlgs.h
;	COMDAT ??1CCommonDialog@@UAE@XZ
_TEXT	SEGMENT
??1CCommonDialog@@UAE@XZ PROC				; CCommonDialog::~CCommonDialog, COMDAT
; _this$ = ecx

; 110  :     virtual ~CCommonDialog() {};

  00000	c7 01 00 00 00
	00		 mov	 DWORD PTR [ecx], OFFSET ??_7CCommonDialog@@6B@
  00006	e9 00 00 00 00	 jmp	 ??1CDialog@@UAE@XZ	; CDialog::~CDialog
??1CCommonDialog@@UAE@XZ ENDP				; CCommonDialog::~CCommonDialog
_TEXT	ENDS
; Function compile flags: /Ogtp
; File C:\Program Files (x86)\Microsoft Visual Studio\2019\Community\VC\Tools\MSVC\14.29.30133\atlmfc\include\afxwin2.inl
;	COMDAT ?Create@CDialog@@UAEHIPAVCWnd@@@Z
_TEXT	SEGMENT
_nIDTemplate$ = 8					; size = 4
_pParentWnd$ = 12					; size = 4
?Create@CDialog@@UAEHIPAVCWnd@@@Z PROC			; CDialog::Create, COMDAT
; _this$ = ecx

; 585  : 	{ return CDialog::Create(ATL_MAKEINTRESOURCE(nIDTemplate), pParentWnd); }

  00000	55		 push	 ebp
  00001	8b ec		 mov	 ebp, esp
  00003	0f b7 45 08	 movzx	 eax, WORD PTR _nIDTemplate$[ebp]
  00007	89 45 08	 mov	 DWORD PTR _nIDTemplate$[ebp], eax
  0000a	5d		 pop	 ebp
  0000b	e9 00 00 00 00	 jmp	 ?Create@CDialog@@UAEHPBDPAVCWnd@@@Z ; CDialog::Create
?Create@CDialog@@UAEHIPAVCWnd@@@Z ENDP			; CDialog::Create
_TEXT	ENDS
; Function compile flags: /Ogtp
; File C:\Program Files (x86)\Microsoft Visual Studio\2019\Community\VC\Tools\MSVC\14.29.30133\atlmfc\include\afxwin2.inl
;	COMDAT ?EndModalState@CWnd@@UAEXXZ
_TEXT	SEGMENT
?EndModalState@CWnd@@UAEXXZ PROC			; CWnd::EndModalState, COMDAT
; _this$ = ecx

; 567  : 	{ ::EnableWindow(m_hWnd, TRUE); }

  00000	6a 01		 push	 1
  00002	ff 71 20	 push	 DWORD PTR [ecx+32]
  00005	ff 15 00 00 00
	00		 call	 DWORD PTR __imp__EnableWindow@8
  0000b	c3		 ret	 0
?EndModalState@CWnd@@UAEXXZ ENDP			; CWnd::EndModalState
_TEXT	ENDS
; Function compile flags: /Ogtp
; File C:\Program Files (x86)\Microsoft Visual Studio\2019\Community\VC\Tools\MSVC\14.29.30133\atlmfc\include\afxwin2.inl
;	COMDAT ?BeginModalState@CWnd@@UAEXXZ
_TEXT	SEGMENT
?BeginModalState@CWnd@@UAEXXZ PROC			; CWnd::BeginModalState, COMDAT
; _this$ = ecx

; 565  : 	{ ::EnableWindow(m_hWnd, FALSE); }

  00000	6a 00		 push	 0
  00002	ff 71 20	 push	 DWORD PTR [ecx+32]
  00005	ff 15 00 00 00
	00		 call	 DWORD PTR __imp__EnableWindow@8
  0000b	c3		 ret	 0
?BeginModalState@CWnd@@UAEXXZ ENDP			; CWnd::BeginModalState
_TEXT	ENDS
; Function compile flags: /Ogtp
; File C:\Program Files (x86)\Microsoft Visual Studio\2019\Community\VC\Tools\MSVC\14.29.30133\atlmfc\include\afxwin2.inl
;	COMDAT ?DoDataExchange@CWnd@@MAEXPAVCDataExchange@@@Z
_TEXT	SEGMENT
___formal$ = 8						; size = 4
?DoDataExchange@CWnd@@MAEXPAVCDataExchange@@@Z PROC	; CWnd::DoDataExchange, COMDAT
; _this$ = ecx

; 561  : 	{ } // default does nothing

  00000	c2 04 00	 ret	 4
?DoDataExchange@CWnd@@MAEXPAVCDataExchange@@@Z ENDP	; CWnd::DoDataExchange
_TEXT	ENDS
; Function compile flags: /Ogtp
; File C:\Program Files (x86)\Microsoft Visual Studio\2019\Community\VC\Tools\MSVC\14.29.30133\atlmfc\include\afxwin1.inl
; File C:\Program Files (x86)\Microsoft Visual Studio\2019\Community\VC\Tools\MSVC\14.29.30133\atlmfc\include\afx.inl
;	COMDAT ??_GCBitmap@@UAEPAXI@Z
_TEXT	SEGMENT
___flags$ = 8						; size = 4
??_GCBitmap@@UAEPAXI@Z PROC				; CBitmap::`scalar deleting destructor', COMDAT
; _this$ = ecx
  00000	55		 push	 ebp
  00001	8b ec		 mov	 ebp, esp
; File C:\Program Files (x86)\Microsoft Visual Studio\2019\Community\VC\Tools\MSVC\14.29.30133\atlmfc\include\afxwin1.inl

; 179  : 	{ }

  00003	56		 push	 esi
  00004	8b f1		 mov	 esi, ecx
  00006	c7 06 00 00 00
	00		 mov	 DWORD PTR [esi], OFFSET ??_7CBitmap@@6B@
  0000c	e8 00 00 00 00	 call	 ??1CGdiObject@@UAE@XZ	; CGdiObject::~CGdiObject
  00011	8b 45 08	 mov	 eax, DWORD PTR ___flags$[ebp]
  00014	a8 01		 test	 al, 1
  00016	74 1f		 je	 SHORT $LN12@scalar
  00018	a8 04		 test	 al, 4
  0001a	75 10		 jne	 SHORT $LN3@scalar
; File C:\Program Files (x86)\Microsoft Visual Studio\2019\Community\VC\Tools\MSVC\14.29.30133\atlmfc\include\afx.inl

; 112  : 	{ ::operator delete(p); }

  0001c	56		 push	 esi
  0001d	e8 00 00 00 00	 call	 ??3@YAXPAX@Z		; operator delete
  00022	83 c4 04	 add	 esp, 4
  00025	8b c6		 mov	 eax, esi
  00027	5e		 pop	 esi
  00028	5d		 pop	 ebp
  00029	c2 04 00	 ret	 4
$LN3@scalar:
  0002c	6a 08		 push	 8
  0002e	56		 push	 esi
  0002f	e8 00 00 00 00	 call	 ?__global_delete@@YAXPAXI@Z ; __global_delete
  00034	83 c4 08	 add	 esp, 8
$LN12@scalar:
  00037	8b c6		 mov	 eax, esi
  00039	5e		 pop	 esi
  0003a	5d		 pop	 ebp
  0003b	c2 04 00	 ret	 4
??_GCBitmap@@UAEPAXI@Z ENDP				; CBitmap::`scalar deleting destructor'
_TEXT	ENDS
; Function compile flags: /Ogtp
; File C:\Program Files (x86)\Microsoft Visual Studio\2019\Community\VC\Tools\MSVC\14.29.30133\atlmfc\include\afxwin1.inl
;	COMDAT ??1CBitmap@@UAE@XZ
_TEXT	SEGMENT
??1CBitmap@@UAE@XZ PROC					; CBitmap::~CBitmap, COMDAT
; _this$ = ecx

; 179  : 	{ }

  00000	c7 01 00 00 00
	00		 mov	 DWORD PTR [ecx], OFFSET ??_7CBitmap@@6B@
  00006	e9 00 00 00 00	 jmp	 ??1CGdiObject@@UAE@XZ	; CGdiObject::~CGdiObject
??1CBitmap@@UAE@XZ ENDP					; CBitmap::~CBitmap
_TEXT	ENDS
; Function compile flags: /Ogtp
; File C:\Program Files (x86)\Microsoft Visual Studio\2019\Community\VC\Tools\MSVC\14.29.30133\atlmfc\include\afx.inl
;	COMDAT ??_GCGdiObject@@UAEPAXI@Z
_TEXT	SEGMENT
___flags$ = 8						; size = 4
??_GCGdiObject@@UAEPAXI@Z PROC				; CGdiObject::`scalar deleting destructor', COMDAT
; _this$ = ecx
  00000	55		 push	 ebp
  00001	8b ec		 mov	 ebp, esp
  00003	56		 push	 esi
  00004	8b f1		 mov	 esi, ecx
  00006	e8 00 00 00 00	 call	 ??1CGdiObject@@UAE@XZ	; CGdiObject::~CGdiObject
  0000b	8b 45 08	 mov	 eax, DWORD PTR ___flags$[ebp]
  0000e	a8 01		 test	 al, 1
  00010	74 1f		 je	 SHORT $LN9@scalar
  00012	a8 04		 test	 al, 4
  00014	75 10		 jne	 SHORT $LN3@scalar

; 112  : 	{ ::operator delete(p); }

  00016	56		 push	 esi
  00017	e8 00 00 00 00	 call	 ??3@YAXPAX@Z		; operator delete
  0001c	83 c4 04	 add	 esp, 4
  0001f	8b c6		 mov	 eax, esi
  00021	5e		 pop	 esi
  00022	5d		 pop	 ebp
  00023	c2 04 00	 ret	 4
$LN3@scalar:
  00026	6a 08		 push	 8
  00028	56		 push	 esi
  00029	e8 00 00 00 00	 call	 ?__global_delete@@YAXPAXI@Z ; __global_delete
  0002e	83 c4 08	 add	 esp, 8
$LN9@scalar:
  00031	8b c6		 mov	 eax, esi
  00033	5e		 pop	 esi
  00034	5d		 pop	 ebp
  00035	c2 04 00	 ret	 4
??_GCGdiObject@@UAEPAXI@Z ENDP				; CGdiObject::`scalar deleting destructor'
_TEXT	ENDS
; Function compile flags: /Ogtp
; File C:\Program Files (x86)\Microsoft Visual Studio\2019\Community\VC\Tools\MSVC\14.29.30133\atlmfc\include\afxwin1.inl
;	COMDAT ??1CGdiObject@@UAE@XZ
_TEXT	SEGMENT
_pException$2 = -540					; size = 4
_strMsg$3 = -536					; size = 4
_szErrorMessage$4 = -532				; size = 512
__$ArrayPad$ = -20					; size = 4
__$EHRec$ = -16						; size = 16
??1CGdiObject@@UAE@XZ PROC				; CGdiObject::~CGdiObject, COMDAT
; _this$ = ecx

; 74   : {

  00000	55		 push	 ebp
  00001	8b ec		 mov	 ebp, esp
  00003	6a ff		 push	 -1
  00005	68 00 00 00 00	 push	 __ehhandler$??1CGdiObject@@UAE@XZ
  0000a	64 a1 00 00 00
	00		 mov	 eax, DWORD PTR fs:0
  00010	50		 push	 eax
  00011	81 ec 10 02 00
	00		 sub	 esp, 528		; 00000210H
  00017	a1 00 00 00 00	 mov	 eax, DWORD PTR ___security_cookie
  0001c	33 c5		 xor	 eax, ebp
  0001e	89 45 ec	 mov	 DWORD PTR __$ArrayPad$[ebp], eax
  00021	53		 push	 ebx
  00022	56		 push	 esi
  00023	57		 push	 edi
  00024	50		 push	 eax
  00025	8d 45 f4	 lea	 eax, DWORD PTR __$EHRec$[ebp+4]
  00028	64 a3 00 00 00
	00		 mov	 DWORD PTR fs:0, eax
  0002e	89 65 f0	 mov	 DWORD PTR __$EHRec$[ebp], esp
  00031	c7 01 00 00 00
	00		 mov	 DWORD PTR [ecx], OFFSET ??_7CGdiObject@@6B@

; 75   : 	AFX_BEGIN_DESTRUCTOR

  00037	c7 45 fc 00 00
	00 00		 mov	 DWORD PTR __$EHRec$[ebp+12], 0

; 76   : 	DeleteObject();

  0003e	e8 00 00 00 00	 call	 ?DeleteObject@CGdiObject@@QAEHXZ ; CGdiObject::DeleteObject
$LN18@CGdiObject:

; 78   : }

  00043	8b 4d f4	 mov	 ecx, DWORD PTR __$EHRec$[ebp+4]
  00046	64 89 0d 00 00
	00 00		 mov	 DWORD PTR fs:0, ecx
  0004d	59		 pop	 ecx
  0004e	5f		 pop	 edi
  0004f	5e		 pop	 esi
  00050	5b		 pop	 ebx
  00051	8b 4d ec	 mov	 ecx, DWORD PTR __$ArrayPad$[ebp]
  00054	33 cd		 xor	 ecx, ebp
  00056	e8 00 00 00 00	 call	 @__security_check_cookie@4
  0005b	8b e5		 mov	 esp, ebp
  0005d	5d		 pop	 ebp
  0005e	c3		 ret	 0
__catch$??1CGdiObject@@UAE@XZ$0:

; 77   : 	AFX_END_DESTRUCTOR

  0005f	8d 8d e8 fd ff
	ff		 lea	 ecx, DWORD PTR _strMsg$3[ebp]
  00065	ff 15 00 00 00
	00		 call	 DWORD PTR __imp_??0?$CStringT@DV?$StrTraitMFC_DLL@DV?$ChTraitsCRT@D@ATL@@@@@ATL@@QAE@XZ
  0006b	8b b5 e4 fd ff
	ff		 mov	 esi, DWORD PTR _pException$2[ebp]
  00071	8d 8d ec fd ff
	ff		 lea	 ecx, DWORD PTR _szErrorMessage$4[ebp]
  00077	6a 00		 push	 0
  00079	68 00 02 00 00	 push	 512			; 00000200H
  0007e	51		 push	 ecx
  0007f	8b 06		 mov	 eax, DWORD PTR [esi]
  00081	8b ce		 mov	 ecx, esi
  00083	c6 45 fc 02	 mov	 BYTE PTR __$EHRec$[ebp+12], 2
  00087	ff 50 14	 call	 DWORD PTR [eax+20]
  0008a	85 c0		 test	 eax, eax
  0008c	74 2a		 je	 SHORT $LN9@CGdiObject
  0008e	8d 85 ec fd ff
	ff		 lea	 eax, DWORD PTR _szErrorMessage$4[ebp]
  00094	50		 push	 eax
  00095	6a 4d		 push	 77			; 0000004dH
  00097	68 00 00 00 00	 push	 OFFSET ??_C@_0HD@JJCHHHNK@C?3?2Program?5Files?5?$CIx86?$CJ?2Microsof@
  0009c	68 00 00 00 00	 push	 OFFSET ??_C@_0BP@OIEOKIDM@Exception?5thrown?5in?5destructor@
  000a1	8d 85 e8 fd ff
	ff		 lea	 eax, DWORD PTR _strMsg$3[ebp]
  000a7	68 00 00 00 00	 push	 OFFSET ??_C@_0BB@HBOOMJBF@?$CFTs?5?$CI?$CFTs?3?$CFd?$CJ?6?$CFTs@
  000ac	50		 push	 eax
  000ad	ff 15 00 00 00
	00		 call	 DWORD PTR __imp_?Format@?$CStringT@DV?$StrTraitMFC_DLL@DV?$ChTraitsCRT@D@ATL@@@@@ATL@@QAAXPBDZZ
  000b3	83 c4 18	 add	 esp, 24			; 00000018H
  000b6	eb 21		 jmp	 SHORT $LN10@CGdiObject
$LN9@CGdiObject:
  000b8	6a 4d		 push	 77			; 0000004dH
  000ba	68 00 00 00 00	 push	 OFFSET ??_C@_0HD@JJCHHHNK@C?3?2Program?5Files?5?$CIx86?$CJ?2Microsof@
  000bf	68 00 00 00 00	 push	 OFFSET ??_C@_0BP@OIEOKIDM@Exception?5thrown?5in?5destructor@
  000c4	8d 85 e8 fd ff
	ff		 lea	 eax, DWORD PTR _strMsg$3[ebp]
  000ca	68 00 00 00 00	 push	 OFFSET ??_C@_0N@OMEMOKLE@?$CFTs?5?$CI?$CFTs?3?$CFd?$CJ@
  000cf	50		 push	 eax
  000d0	ff 15 00 00 00
	00		 call	 DWORD PTR __imp_?Format@?$CStringT@DV?$StrTraitMFC_DLL@DV?$ChTraitsCRT@D@ATL@@@@@ATL@@QAAXPBDZZ
  000d6	83 c4 14	 add	 esp, 20			; 00000014H
$LN10@CGdiObject:
  000d9	6a 00		 push	 0
  000db	6a 00		 push	 0
  000dd	ff b5 e8 fd ff
	ff		 push	 DWORD PTR _strMsg$3[ebp]
  000e3	e8 00 00 00 00	 call	 ?AfxMessageBox@@YGHPBDII@Z ; AfxMessageBox
  000e8	8d 8d e8 fd ff
	ff		 lea	 ecx, DWORD PTR _strMsg$3[ebp]
  000ee	ff 15 00 00 00
	00		 call	 DWORD PTR __imp_??1?$CStringT@DV?$StrTraitMFC_DLL@DV?$ChTraitsCRT@D@ATL@@@@@ATL@@QAE@XZ
  000f4	8b 06		 mov	 eax, DWORD PTR [esi]
  000f6	8b ce		 mov	 ecx, esi
  000f8	6a 01		 push	 1
  000fa	ff 50 04	 call	 DWORD PTR [eax+4]
  000fd	b8 00 00 00 00	 mov	 eax, $LN18@CGdiObject
  00102	c3		 ret	 0
_TEXT	ENDS
;	COMDAT text$x
text$x	SEGMENT
__unwindfunclet$??1CGdiObject@@UAE@XZ$2:
  00000	8d 8d e8 fd ff
	ff		 lea	 ecx, DWORD PTR _strMsg$3[ebp]
  00006	ff 25 00 00 00
	00		 jmp	 DWORD PTR __imp_??1?$CStringT@DV?$StrTraitMFC_DLL@DV?$ChTraitsCRT@D@ATL@@@@@ATL@@QAE@XZ
  0000c	cc		 int	 3
  0000d	cc		 int	 3
  0000e	cc		 int	 3
  0000f	cc		 int	 3
  00010	cc		 int	 3
__ehhandler$??1CGdiObject@@UAE@XZ:
  00011	90		 npad	 1
  00012	90		 npad	 1
  00013	8b 54 24 08	 mov	 edx, DWORD PTR [esp+8]
  00017	8d 42 0c	 lea	 eax, DWORD PTR [edx+12]
  0001a	8b 8a e0 fd ff
	ff		 mov	 ecx, DWORD PTR [edx-544]
  00020	33 c8		 xor	 ecx, eax
  00022	e8 00 00 00 00	 call	 @__security_check_cookie@4
  00027	8b 4a f8	 mov	 ecx, DWORD PTR [edx-8]
  0002a	33 c8		 xor	 ecx, eax
  0002c	e8 00 00 00 00	 call	 @__security_check_cookie@4
  00031	b8 00 00 00 00	 mov	 eax, OFFSET __ehfuncinfo$??1CGdiObject@@UAE@XZ
  00036	e9 00 00 00 00	 jmp	 ___CxxFrameHandler3
text$x	ENDS
??1CGdiObject@@UAE@XZ ENDP				; CGdiObject::~CGdiObject
; Function compile flags: /Ogtp
; File C:\Program Files (x86)\Microsoft Visual Studio\2019\Community\VC\Tools\MSVC\14.29.30133\atlmfc\include\afx.inl
;	COMDAT ?Dump@CObject@@UBEXAAVCDumpContext@@@Z
_TEXT	SEGMENT
___formal$ = 8						; size = 4
?Dump@CObject@@UBEXAAVCDumpContext@@@Z PROC		; CObject::Dump, COMDAT
; _this$ = ecx

; 122  : 	{ /* no dumping in release builds */ }

  00000	c2 04 00	 ret	 4
?Dump@CObject@@UBEXAAVCDumpContext@@@Z ENDP		; CObject::Dump
_TEXT	ENDS
; Function compile flags: /Ogtp
; File C:\Program Files (x86)\Microsoft Visual Studio\2019\Community\VC\Tools\MSVC\14.29.30133\atlmfc\include\afx.inl
;	COMDAT ?AssertValid@CObject@@UBEXXZ
_TEXT	SEGMENT
?AssertValid@CObject@@UBEXXZ PROC			; CObject::AssertValid, COMDAT
; _this$ = ecx

; 120  : 	{ /* no asserts in release builds */ }

  00000	c2 00 00	 ret	 0
?AssertValid@CObject@@UBEXXZ ENDP			; CObject::AssertValid
_TEXT	ENDS
; Function compile flags: /Ogtp
; File C:\Program Files (x86)\Microsoft Visual Studio\2019\Community\VC\Tools\MSVC\14.29.30133\atlmfc\include\afx.inl
;	COMDAT ?Serialize@CObject@@UAEXAAVCArchive@@@Z
_TEXT	SEGMENT
___formal$ = 8						; size = 4
?Serialize@CObject@@UAEXAAVCArchive@@@Z PROC		; CObject::Serialize, COMDAT
; _this$ = ecx

; 106  : 	{ /* CObject does not serialize anything by default */ }

  00000	c2 04 00	 ret	 4
?Serialize@CObject@@UAEXAAVCArchive@@@Z ENDP		; CObject::Serialize
_TEXT	ENDS
; Function compile flags: /Ogtp
; File C:\Program Files (x86)\Microsoft Visual Studio\2019\Community\VC\Tools\MSVC\14.29.30133\atlmfc\include\afx.inl
;	COMDAT ??1CObject@@UAE@XZ
_TEXT	SEGMENT
??1CObject@@UAE@XZ PROC					; CObject::~CObject, COMDAT
; _this$ = ecx

; 104  : 	{ }

  00000	c2 00 00	 ret	 0
??1CObject@@UAE@XZ ENDP					; CObject::~CObject
_TEXT	ENDS
; Function compile flags: /Ogtp
; File D:\git\src\IBK\IBK_DRFN\ProjSrc\SrcChartEx\ChartOCX\KTBChart\PrintController.cpp
;	COMDAT ?__empty_global_delete@@YAXPAXI@Z
_TEXT	SEGMENT
___formal$ = 8						; size = 4
___formal$ = 12						; size = 4
?__empty_global_delete@@YAXPAXI@Z PROC			; __empty_global_delete, COMDAT

  00000	c2 00 00	 ret	 0
?__empty_global_delete@@YAXPAXI@Z ENDP			; __empty_global_delete
_TEXT	ENDS
; Function compile flags: /Ogtp
; File D:\git\src\IBK\IBK_DRFN\ProjSrc\SrcChartEx\ChartOCX\KTBChart\PrintController.cpp
;	COMDAT ?__empty_global_delete@@YAXPAX@Z
_TEXT	SEGMENT
___formal$ = 8						; size = 4
?__empty_global_delete@@YAXPAX@Z PROC			; __empty_global_delete, COMDAT

  00000	c2 00 00	 ret	 0
?__empty_global_delete@@YAXPAX@Z ENDP			; __empty_global_delete
_TEXT	ENDS
END
