; Listing generated by Microsoft (R) Optimizing Compiler Version 19.29.30148.0 

	TITLE	D:\git\src\IBK\IBK_DRFN\#DRfn-CS\_Obj\KTBChart\SaveChartCfgList.obj
	.686P
	.XMM
	include listing.inc
	.model	flat

INCLUDELIB MSVCRT
INCLUDELIB OLDNAMES

PUBLIC	?__empty_global_delete@@YAXPAX@Z		; __empty_global_delete
PUBLIC	?__empty_global_delete@@YAXPAXI@Z		; __empty_global_delete
PUBLIC	??3CObject@@SGXPAX@Z				; CObject::operator delete
PUBLIC	?AssertValid@CObject@@UBEXXZ			; CObject::AssertValid
PUBLIC	?Dump@CObject@@UBEXAAVCDumpContext@@@Z		; CObject::Dump
PUBLIC	??0CSaveChartCfgList@@QAE@XZ			; CSaveChartCfgList::CSaveChartCfgList
PUBLIC	??1CSaveChartCfgList@@UAE@XZ			; CSaveChartCfgList::~CSaveChartCfgList
PUBLIC	?AddChartCfg@CSaveChartCfgList@@QAE_NPAVCPropertyMap@@HHHHHHABV?$CStringT@DV?$StrTraitMFC_DLL@DV?$ChTraitsCRT@D@ATL@@@@@ATL@@1HHHHHHHHHHHHHHHHHHKKKKKKKKKKHPBDHHJJHH@Z ; CSaveChartCfgList::AddChartCfg
PUBLIC	?RemoveAll@CSaveChartCfgList@@QAEXXZ		; CSaveChartCfgList::RemoveAll
PUBLIC	?RemoveTail@CSaveChartCfgList@@QAE_NXZ		; CSaveChartCfgList::RemoveTail
PUBLIC	?GetCfgCount@CSaveChartCfgList@@QAEHXZ		; CSaveChartCfgList::GetCfgCount
PUBLIC	?GetHeadPosition@CSaveChartCfgList@@QBEPAU__POSITION@@XZ ; CSaveChartCfgList::GetHeadPosition
PUBLIC	?GetTailPosition@CSaveChartCfgList@@QBEPAU__POSITION@@XZ ; CSaveChartCfgList::GetTailPosition
PUBLIC	?GetChartCfg@CSaveChartCfgList@@QBEPAVCChartCfg@@H@Z ; CSaveChartCfgList::GetChartCfg
PUBLIC	?GetChartCfg@CSaveChartCfgList@@QAEPAVCChartCfg@@H_N@Z ; CSaveChartCfgList::GetChartCfg
PUBLIC	?GetNext@CSaveChartCfgList@@QBEPAVCChartCfg@@AAPAU__POSITION@@@Z ; CSaveChartCfgList::GetNext
PUBLIC	?GetPrev@CSaveChartCfgList@@QBEPAVCChartCfg@@AAPAU__POSITION@@@Z ; CSaveChartCfgList::GetPrev
PUBLIC	?GetChartCfg@CSaveChartCfgList@@QBE_NABV?$CStringT@DV?$StrTraitMFC_DLL@DV?$ChTraitsCRT@D@ATL@@@@@ATL@@AAPAVCChartCfg@@AAH@Z ; CSaveChartCfgList::GetChartCfg
PUBLIC	?RemoveFromIndexToEnd@CSaveChartCfgList@@QAE_NH@Z ; CSaveChartCfgList::RemoveFromIndexToEnd
PUBLIC	?GetIndex@CSaveChartCfgList@@ABEHPAVCChartCfg@@@Z ; CSaveChartCfgList::GetIndex
PUBLIC	??_G?$_CTypedPtrList@VCObList@@PAVCChartCfg@@@@UAEPAXI@Z ; _CTypedPtrList<CObList,CChartCfg *>::`scalar deleting destructor'
PUBLIC	??_G?$CTypedPtrList@VCObList@@PAVCChartCfg@@@@UAEPAXI@Z ; CTypedPtrList<CObList,CChartCfg *>::`scalar deleting destructor'
PUBLIC	??_GCSaveChartCfgList@@UAEPAXI@Z		; CSaveChartCfgList::`scalar deleting destructor'
PUBLIC	??_R0?AVCObject@@@8				; CObject `RTTI Type Descriptor'
PUBLIC	??_R3CObject@@8					; CObject::`RTTI Class Hierarchy Descriptor'
PUBLIC	??_R2CObject@@8					; CObject::`RTTI Base Class Array'
PUBLIC	??_R1A@?0A@EA@CObject@@8			; CObject::`RTTI Base Class Descriptor at (0,-1,0,64)'
PUBLIC	??_R1A@?0A@EA@CObList@@8			; CObList::`RTTI Base Class Descriptor at (0,-1,0,64)'
PUBLIC	??_R0?AVCObList@@@8				; CObList `RTTI Type Descriptor'
PUBLIC	??_R3CObList@@8					; CObList::`RTTI Class Hierarchy Descriptor'
PUBLIC	??_R2CObList@@8					; CObList::`RTTI Base Class Array'
PUBLIC	??_7?$_CTypedPtrList@VCObList@@PAVCChartCfg@@@@6B@ ; _CTypedPtrList<CObList,CChartCfg *>::`vftable'
PUBLIC	??_7?$CTypedPtrList@VCObList@@PAVCChartCfg@@@@6B@ ; CTypedPtrList<CObList,CChartCfg *>::`vftable'
PUBLIC	??_7CSaveChartCfgList@@6B@			; CSaveChartCfgList::`vftable'
PUBLIC	??_R4CSaveChartCfgList@@6B@			; CSaveChartCfgList::`RTTI Complete Object Locator'
PUBLIC	??_R0?AVCSaveChartCfgList@@@8			; CSaveChartCfgList `RTTI Type Descriptor'
PUBLIC	??_R3CSaveChartCfgList@@8			; CSaveChartCfgList::`RTTI Class Hierarchy Descriptor'
PUBLIC	??_R2CSaveChartCfgList@@8			; CSaveChartCfgList::`RTTI Base Class Array'
PUBLIC	??_R1A@?0A@EA@CSaveChartCfgList@@8		; CSaveChartCfgList::`RTTI Base Class Descriptor at (0,-1,0,64)'
PUBLIC	??_R4?$CTypedPtrList@VCObList@@PAVCChartCfg@@@@6B@ ; CTypedPtrList<CObList,CChartCfg *>::`RTTI Complete Object Locator'
PUBLIC	??_R0?AV?$CTypedPtrList@VCObList@@PAVCChartCfg@@@@@8 ; CTypedPtrList<CObList,CChartCfg *> `RTTI Type Descriptor'
PUBLIC	??_R3?$CTypedPtrList@VCObList@@PAVCChartCfg@@@@8 ; CTypedPtrList<CObList,CChartCfg *>::`RTTI Class Hierarchy Descriptor'
PUBLIC	??_R2?$CTypedPtrList@VCObList@@PAVCChartCfg@@@@8 ; CTypedPtrList<CObList,CChartCfg *>::`RTTI Base Class Array'
PUBLIC	??_R1A@?0A@EA@?$CTypedPtrList@VCObList@@PAVCChartCfg@@@@8 ; CTypedPtrList<CObList,CChartCfg *>::`RTTI Base Class Descriptor at (0,-1,0,64)'
PUBLIC	??_R1A@?0A@EA@?$_CTypedPtrList@VCObList@@PAVCChartCfg@@@@8 ; _CTypedPtrList<CObList,CChartCfg *>::`RTTI Base Class Descriptor at (0,-1,0,64)'
PUBLIC	??_R0?AV?$_CTypedPtrList@VCObList@@PAVCChartCfg@@@@@8 ; _CTypedPtrList<CObList,CChartCfg *> `RTTI Type Descriptor'
PUBLIC	??_R3?$_CTypedPtrList@VCObList@@PAVCChartCfg@@@@8 ; _CTypedPtrList<CObList,CChartCfg *>::`RTTI Class Hierarchy Descriptor'
PUBLIC	??_R2?$_CTypedPtrList@VCObList@@PAVCChartCfg@@@@8 ; _CTypedPtrList<CObList,CChartCfg *>::`RTTI Base Class Array'
PUBLIC	??_R4?$_CTypedPtrList@VCObList@@PAVCChartCfg@@@@6B@ ; _CTypedPtrList<CObList,CChartCfg *>::`RTTI Complete Object Locator'
EXTRN	??2@YAPAXI@Z:PROC				; operator new
EXTRN	??3@YAXPAX@Z:PROC				; operator delete
EXTRN	??3@YAXPAXI@Z:PROC				; operator delete
EXTRN	?__global_delete@@YAXPAXI@Z:PROC		; __global_delete
EXTRN	___std_terminate:PROC
EXTRN	?AfxThrowInvalidArgException@@YGXXZ:PROC	; AfxThrowInvalidArgException
EXTRN	__imp_?Concatenate@?$CSimpleStringT@D$00@ATL@@KAXAAV12@PBDH1H@Z:PROC
EXTRN	__imp_??0?$CStringT@DV?$StrTraitMFC_DLL@DV?$ChTraitsCRT@D@ATL@@@@@ATL@@QAE@PAUIAtlStringMgr@1@@Z:PROC
EXTRN	__imp_??0?$CStringT@DV?$StrTraitMFC_DLL@DV?$ChTraitsCRT@D@ATL@@@@@ATL@@QAE@ABV01@@Z:PROC
EXTRN	__imp_??1?$CStringT@DV?$StrTraitMFC_DLL@DV?$ChTraitsCRT@D@ATL@@@@@ATL@@QAE@XZ:PROC
EXTRN	__imp_?GetManager@?$CStringT@DV?$StrTraitMFC_DLL@DV?$ChTraitsCRT@D@ATL@@@@@ATL@@QBEPAUIAtlStringMgr@2@XZ:PROC
EXTRN	__imp_?Find@?$CStringT@DV?$StrTraitMFC_DLL@DV?$ChTraitsCRT@D@ATL@@@@@ATL@@QBEHPBDH@Z:PROC
EXTRN	?GetRuntimeClass@CObList@@UBEPAUCRuntimeClass@@XZ:PROC ; CObList::GetRuntimeClass
EXTRN	??0CObList@@QAE@H@Z:PROC			; CObList::CObList
EXTRN	?RemoveTail@CObList@@QAEPAVCObject@@XZ:PROC	; CObList::RemoveTail
EXTRN	?AddTail@CObList@@QAEPAU__POSITION@@PAVCObject@@@Z:PROC ; CObList::AddTail
EXTRN	?RemoveAll@CObList@@QAEXXZ:PROC			; CObList::RemoveAll
EXTRN	?FindIndex@CObList@@QBEPAU__POSITION@@H@Z:PROC	; CObList::FindIndex
EXTRN	??1CObList@@UAE@XZ:PROC				; CObList::~CObList
EXTRN	?Serialize@CObList@@UAEXAAVCArchive@@@Z:PROC	; CObList::Serialize
EXTRN	??_E?$_CTypedPtrList@VCObList@@PAVCChartCfg@@@@UAEPAXI@Z:PROC ; _CTypedPtrList<CObList,CChartCfg *>::`vector deleting destructor'
EXTRN	??_E?$CTypedPtrList@VCObList@@PAVCChartCfg@@@@UAEPAXI@Z:PROC ; CTypedPtrList<CObList,CChartCfg *>::`vector deleting destructor'
EXTRN	??_ECSaveChartCfgList@@UAEPAXI@Z:PROC		; CSaveChartCfgList::`vector deleting destructor'
EXTRN	??0CChartCfg@@QAE@PAVCPropertyMap@@HHHHHHV?$CStringT@DV?$StrTraitMFC_DLL@DV?$ChTraitsCRT@D@ATL@@@@@ATL@@1_NHHH222HH222222222KKKKKKKKKKHPBDHHJJHH@Z:PROC ; CChartCfg::CChartCfg
EXTRN	@__security_check_cookie@4:PROC
EXTRN	___CxxFrameHandler3:PROC
EXTRN	??_7type_info@@6B@:QWORD			; type_info::`vftable'
EXTRN	___security_cookie:DWORD
;	COMDAT ??_R4?$_CTypedPtrList@VCObList@@PAVCChartCfg@@@@6B@
rdata$r	SEGMENT
??_R4?$_CTypedPtrList@VCObList@@PAVCChartCfg@@@@6B@ DD 00H ; _CTypedPtrList<CObList,CChartCfg *>::`RTTI Complete Object Locator'
	DD	00H
	DD	00H
	DD	FLAT:??_R0?AV?$_CTypedPtrList@VCObList@@PAVCChartCfg@@@@@8
	DD	FLAT:??_R3?$_CTypedPtrList@VCObList@@PAVCChartCfg@@@@8
rdata$r	ENDS
;	COMDAT ??_R2?$_CTypedPtrList@VCObList@@PAVCChartCfg@@@@8
rdata$r	SEGMENT
??_R2?$_CTypedPtrList@VCObList@@PAVCChartCfg@@@@8 DD FLAT:??_R1A@?0A@EA@?$_CTypedPtrList@VCObList@@PAVCChartCfg@@@@8 ; _CTypedPtrList<CObList,CChartCfg *>::`RTTI Base Class Array'
	DD	FLAT:??_R1A@?0A@EA@CObList@@8
	DD	FLAT:??_R1A@?0A@EA@CObject@@8
rdata$r	ENDS
;	COMDAT ??_R3?$_CTypedPtrList@VCObList@@PAVCChartCfg@@@@8
rdata$r	SEGMENT
??_R3?$_CTypedPtrList@VCObList@@PAVCChartCfg@@@@8 DD 00H ; _CTypedPtrList<CObList,CChartCfg *>::`RTTI Class Hierarchy Descriptor'
	DD	00H
	DD	03H
	DD	FLAT:??_R2?$_CTypedPtrList@VCObList@@PAVCChartCfg@@@@8
rdata$r	ENDS
;	COMDAT ??_R0?AV?$_CTypedPtrList@VCObList@@PAVCChartCfg@@@@@8
data$rs	SEGMENT
??_R0?AV?$_CTypedPtrList@VCObList@@PAVCChartCfg@@@@@8 DD FLAT:??_7type_info@@6B@ ; _CTypedPtrList<CObList,CChartCfg *> `RTTI Type Descriptor'
	DD	00H
	DB	'.?AV?$_CTypedPtrList@VCObList@@PAVCChartCfg@@@@', 00H
data$rs	ENDS
;	COMDAT ??_R1A@?0A@EA@?$_CTypedPtrList@VCObList@@PAVCChartCfg@@@@8
rdata$r	SEGMENT
??_R1A@?0A@EA@?$_CTypedPtrList@VCObList@@PAVCChartCfg@@@@8 DD FLAT:??_R0?AV?$_CTypedPtrList@VCObList@@PAVCChartCfg@@@@@8 ; _CTypedPtrList<CObList,CChartCfg *>::`RTTI Base Class Descriptor at (0,-1,0,64)'
	DD	02H
	DD	00H
	DD	0ffffffffH
	DD	00H
	DD	040H
	DD	FLAT:??_R3?$_CTypedPtrList@VCObList@@PAVCChartCfg@@@@8
rdata$r	ENDS
;	COMDAT ??_R1A@?0A@EA@?$CTypedPtrList@VCObList@@PAVCChartCfg@@@@8
rdata$r	SEGMENT
??_R1A@?0A@EA@?$CTypedPtrList@VCObList@@PAVCChartCfg@@@@8 DD FLAT:??_R0?AV?$CTypedPtrList@VCObList@@PAVCChartCfg@@@@@8 ; CTypedPtrList<CObList,CChartCfg *>::`RTTI Base Class Descriptor at (0,-1,0,64)'
	DD	03H
	DD	00H
	DD	0ffffffffH
	DD	00H
	DD	040H
	DD	FLAT:??_R3?$CTypedPtrList@VCObList@@PAVCChartCfg@@@@8
rdata$r	ENDS
;	COMDAT ??_R2?$CTypedPtrList@VCObList@@PAVCChartCfg@@@@8
rdata$r	SEGMENT
??_R2?$CTypedPtrList@VCObList@@PAVCChartCfg@@@@8 DD FLAT:??_R1A@?0A@EA@?$CTypedPtrList@VCObList@@PAVCChartCfg@@@@8 ; CTypedPtrList<CObList,CChartCfg *>::`RTTI Base Class Array'
	DD	FLAT:??_R1A@?0A@EA@?$_CTypedPtrList@VCObList@@PAVCChartCfg@@@@8
	DD	FLAT:??_R1A@?0A@EA@CObList@@8
	DD	FLAT:??_R1A@?0A@EA@CObject@@8
rdata$r	ENDS
;	COMDAT ??_R3?$CTypedPtrList@VCObList@@PAVCChartCfg@@@@8
rdata$r	SEGMENT
??_R3?$CTypedPtrList@VCObList@@PAVCChartCfg@@@@8 DD 00H	; CTypedPtrList<CObList,CChartCfg *>::`RTTI Class Hierarchy Descriptor'
	DD	00H
	DD	04H
	DD	FLAT:??_R2?$CTypedPtrList@VCObList@@PAVCChartCfg@@@@8
rdata$r	ENDS
;	COMDAT ??_R0?AV?$CTypedPtrList@VCObList@@PAVCChartCfg@@@@@8
data$rs	SEGMENT
??_R0?AV?$CTypedPtrList@VCObList@@PAVCChartCfg@@@@@8 DD FLAT:??_7type_info@@6B@ ; CTypedPtrList<CObList,CChartCfg *> `RTTI Type Descriptor'
	DD	00H
	DB	'.?AV?$CTypedPtrList@VCObList@@PAVCChartCfg@@@@', 00H
data$rs	ENDS
;	COMDAT ??_R4?$CTypedPtrList@VCObList@@PAVCChartCfg@@@@6B@
rdata$r	SEGMENT
??_R4?$CTypedPtrList@VCObList@@PAVCChartCfg@@@@6B@ DD 00H ; CTypedPtrList<CObList,CChartCfg *>::`RTTI Complete Object Locator'
	DD	00H
	DD	00H
	DD	FLAT:??_R0?AV?$CTypedPtrList@VCObList@@PAVCChartCfg@@@@@8
	DD	FLAT:??_R3?$CTypedPtrList@VCObList@@PAVCChartCfg@@@@8
rdata$r	ENDS
;	COMDAT ??_R1A@?0A@EA@CSaveChartCfgList@@8
rdata$r	SEGMENT
??_R1A@?0A@EA@CSaveChartCfgList@@8 DD FLAT:??_R0?AVCSaveChartCfgList@@@8 ; CSaveChartCfgList::`RTTI Base Class Descriptor at (0,-1,0,64)'
	DD	00H
	DD	00H
	DD	0ffffffffH
	DD	00H
	DD	040H
	DD	FLAT:??_R3CSaveChartCfgList@@8
rdata$r	ENDS
;	COMDAT ??_R2CSaveChartCfgList@@8
rdata$r	SEGMENT
??_R2CSaveChartCfgList@@8 DD FLAT:??_R1A@?0A@EA@CSaveChartCfgList@@8 ; CSaveChartCfgList::`RTTI Base Class Array'
rdata$r	ENDS
;	COMDAT ??_R3CSaveChartCfgList@@8
rdata$r	SEGMENT
??_R3CSaveChartCfgList@@8 DD 00H			; CSaveChartCfgList::`RTTI Class Hierarchy Descriptor'
	DD	00H
	DD	01H
	DD	FLAT:??_R2CSaveChartCfgList@@8
rdata$r	ENDS
;	COMDAT ??_R0?AVCSaveChartCfgList@@@8
data$rs	SEGMENT
??_R0?AVCSaveChartCfgList@@@8 DD FLAT:??_7type_info@@6B@ ; CSaveChartCfgList `RTTI Type Descriptor'
	DD	00H
	DB	'.?AVCSaveChartCfgList@@', 00H
data$rs	ENDS
;	COMDAT ??_R4CSaveChartCfgList@@6B@
rdata$r	SEGMENT
??_R4CSaveChartCfgList@@6B@ DD 00H			; CSaveChartCfgList::`RTTI Complete Object Locator'
	DD	00H
	DD	00H
	DD	FLAT:??_R0?AVCSaveChartCfgList@@@8
	DD	FLAT:??_R3CSaveChartCfgList@@8
rdata$r	ENDS
;	COMDAT ??_7CSaveChartCfgList@@6B@
CONST	SEGMENT
??_7CSaveChartCfgList@@6B@ DD FLAT:??_R4CSaveChartCfgList@@6B@ ; CSaveChartCfgList::`vftable'
	DD	FLAT:??_ECSaveChartCfgList@@UAEPAXI@Z
CONST	ENDS
;	COMDAT ??_7?$CTypedPtrList@VCObList@@PAVCChartCfg@@@@6B@
CONST	SEGMENT
??_7?$CTypedPtrList@VCObList@@PAVCChartCfg@@@@6B@ DD FLAT:??_R4?$CTypedPtrList@VCObList@@PAVCChartCfg@@@@6B@ ; CTypedPtrList<CObList,CChartCfg *>::`vftable'
	DD	FLAT:?GetRuntimeClass@CObList@@UBEPAUCRuntimeClass@@XZ
	DD	FLAT:??_E?$CTypedPtrList@VCObList@@PAVCChartCfg@@@@UAEPAXI@Z
	DD	FLAT:?Serialize@CObList@@UAEXAAVCArchive@@@Z
	DD	FLAT:?AssertValid@CObject@@UBEXXZ
	DD	FLAT:?Dump@CObject@@UBEXAAVCDumpContext@@@Z
CONST	ENDS
;	COMDAT ??_7?$_CTypedPtrList@VCObList@@PAVCChartCfg@@@@6B@
CONST	SEGMENT
??_7?$_CTypedPtrList@VCObList@@PAVCChartCfg@@@@6B@ DD FLAT:??_R4?$_CTypedPtrList@VCObList@@PAVCChartCfg@@@@6B@ ; _CTypedPtrList<CObList,CChartCfg *>::`vftable'
	DD	FLAT:?GetRuntimeClass@CObList@@UBEPAUCRuntimeClass@@XZ
	DD	FLAT:??_E?$_CTypedPtrList@VCObList@@PAVCChartCfg@@@@UAEPAXI@Z
	DD	FLAT:?Serialize@CObList@@UAEXAAVCArchive@@@Z
	DD	FLAT:?AssertValid@CObject@@UBEXXZ
	DD	FLAT:?Dump@CObject@@UBEXAAVCDumpContext@@@Z
CONST	ENDS
;	COMDAT ??_R2CObList@@8
rdata$r	SEGMENT
??_R2CObList@@8 DD FLAT:??_R1A@?0A@EA@CObList@@8	; CObList::`RTTI Base Class Array'
	DD	FLAT:??_R1A@?0A@EA@CObject@@8
rdata$r	ENDS
;	COMDAT ??_R3CObList@@8
rdata$r	SEGMENT
??_R3CObList@@8 DD 00H					; CObList::`RTTI Class Hierarchy Descriptor'
	DD	00H
	DD	02H
	DD	FLAT:??_R2CObList@@8
rdata$r	ENDS
;	COMDAT ??_R0?AVCObList@@@8
data$rs	SEGMENT
??_R0?AVCObList@@@8 DD FLAT:??_7type_info@@6B@		; CObList `RTTI Type Descriptor'
	DD	00H
	DB	'.?AVCObList@@', 00H
data$rs	ENDS
;	COMDAT ??_R1A@?0A@EA@CObList@@8
rdata$r	SEGMENT
??_R1A@?0A@EA@CObList@@8 DD FLAT:??_R0?AVCObList@@@8	; CObList::`RTTI Base Class Descriptor at (0,-1,0,64)'
	DD	01H
	DD	00H
	DD	0ffffffffH
	DD	00H
	DD	040H
	DD	FLAT:??_R3CObList@@8
rdata$r	ENDS
;	COMDAT ??_R1A@?0A@EA@CObject@@8
rdata$r	SEGMENT
??_R1A@?0A@EA@CObject@@8 DD FLAT:??_R0?AVCObject@@@8	; CObject::`RTTI Base Class Descriptor at (0,-1,0,64)'
	DD	00H
	DD	00H
	DD	0ffffffffH
	DD	00H
	DD	040H
	DD	FLAT:??_R3CObject@@8
rdata$r	ENDS
;	COMDAT ??_R2CObject@@8
rdata$r	SEGMENT
??_R2CObject@@8 DD FLAT:??_R1A@?0A@EA@CObject@@8	; CObject::`RTTI Base Class Array'
rdata$r	ENDS
;	COMDAT ??_R3CObject@@8
rdata$r	SEGMENT
??_R3CObject@@8 DD 00H					; CObject::`RTTI Class Hierarchy Descriptor'
	DD	00H
	DD	01H
	DD	FLAT:??_R2CObject@@8
rdata$r	ENDS
;	COMDAT ??_R0?AVCObject@@@8
data$rs	SEGMENT
??_R0?AVCObject@@@8 DD FLAT:??_7type_info@@6B@		; CObject `RTTI Type Descriptor'
	DD	00H
	DB	'.?AVCObject@@', 00H
data$rs	ENDS
;	COMDAT xdata$x
xdata$x	SEGMENT
__unwindtable$??_GCSaveChartCfgList@@UAEPAXI@Z DD 0ffffffffH
	DD	FLAT:___std_terminate
__ehfuncinfo$??_GCSaveChartCfgList@@UAEPAXI@Z DD 019930522H
	DD	01H
	DD	FLAT:__unwindtable$??_GCSaveChartCfgList@@UAEPAXI@Z
	DD	2 DUP(00H)
	DD	2 DUP(00H)
	DD	00H
	DD	05H
xdata$x	ENDS
;	COMDAT xdata$x
xdata$x	SEGMENT
__unwindtable$?GetChartCfg@CSaveChartCfgList@@QBE_NABV?$CStringT@DV?$StrTraitMFC_DLL@DV?$ChTraitsCRT@D@ATL@@@@@ATL@@AAPAVCChartCfg@@AAH@Z DD 0ffffffffH
	DD	FLAT:__unwindfunclet$?GetChartCfg@CSaveChartCfgList@@QBE_NABV?$CStringT@DV?$StrTraitMFC_DLL@DV?$ChTraitsCRT@D@ATL@@@@@ATL@@AAPAVCChartCfg@@AAH@Z$0
	DD	00H
	DD	FLAT:__unwindfunclet$?GetChartCfg@CSaveChartCfgList@@QBE_NABV?$CStringT@DV?$StrTraitMFC_DLL@DV?$ChTraitsCRT@D@ATL@@@@@ATL@@AAPAVCChartCfg@@AAH@Z$3
__ehfuncinfo$?GetChartCfg@CSaveChartCfgList@@QBE_NABV?$CStringT@DV?$StrTraitMFC_DLL@DV?$ChTraitsCRT@D@ATL@@@@@ATL@@AAPAVCChartCfg@@AAH@Z DD 019930522H
	DD	02H
	DD	FLAT:__unwindtable$?GetChartCfg@CSaveChartCfgList@@QBE_NABV?$CStringT@DV?$StrTraitMFC_DLL@DV?$ChTraitsCRT@D@ATL@@@@@ATL@@AAPAVCChartCfg@@AAH@Z
	DD	2 DUP(00H)
	DD	2 DUP(00H)
	DD	00H
	DD	01H
xdata$x	ENDS
;	COMDAT xdata$x
xdata$x	SEGMENT
__unwindtable$?AddChartCfg@CSaveChartCfgList@@QAE_NPAVCPropertyMap@@HHHHHHABV?$CStringT@DV?$StrTraitMFC_DLL@DV?$ChTraitsCRT@D@ATL@@@@@ATL@@1HHHHHHHHHHHHHHHHHHKKKKKKKKKKHPBDHHJJHH@Z DD 0ffffffffH
	DD	FLAT:__unwindfunclet$?AddChartCfg@CSaveChartCfgList@@QAE_NPAVCPropertyMap@@HHHHHHABV?$CStringT@DV?$StrTraitMFC_DLL@DV?$ChTraitsCRT@D@ATL@@@@@ATL@@1HHHHHHHHHHHHHHHHHHKKKKKKKKKKHPBDHHJJHH@Z$0
	DD	00H
	DD	FLAT:__unwindfunclet$?AddChartCfg@CSaveChartCfgList@@QAE_NPAVCPropertyMap@@HHHHHHABV?$CStringT@DV?$StrTraitMFC_DLL@DV?$ChTraitsCRT@D@ATL@@@@@ATL@@1HHHHHHHHHHHHHHHHHHKKKKKKKKKKHPBDHHJJHH@Z$1
__ehfuncinfo$?AddChartCfg@CSaveChartCfgList@@QAE_NPAVCPropertyMap@@HHHHHHABV?$CStringT@DV?$StrTraitMFC_DLL@DV?$ChTraitsCRT@D@ATL@@@@@ATL@@1HHHHHHHHHHHHHHHHHHKKKKKKKKKKHPBDHHJJHH@Z DD 019930522H
	DD	02H
	DD	FLAT:__unwindtable$?AddChartCfg@CSaveChartCfgList@@QAE_NPAVCPropertyMap@@HHHHHHABV?$CStringT@DV?$StrTraitMFC_DLL@DV?$ChTraitsCRT@D@ATL@@@@@ATL@@1HHHHHHHHHHHHHHHHHHKKKKKKKKKKHPBDHHJJHH@Z
	DD	2 DUP(00H)
	DD	2 DUP(00H)
	DD	00H
	DD	01H
xdata$x	ENDS
;	COMDAT xdata$x
xdata$x	SEGMENT
__ehfuncinfo$??1CSaveChartCfgList@@UAE@XZ DD 019930522H
	DD	00H
	DD	00H
	DD	2 DUP(00H)
	DD	2 DUP(00H)
	DD	00H
	DD	05H
xdata$x	ENDS
;	COMDAT xdata$x
xdata$x	SEGMENT
__unwindtable$??HATL@@YA?AV?$CStringT@DV?$StrTraitMFC_DLL@DV?$ChTraitsCRT@D@ATL@@@@@0@ABV10@D@Z DD 0ffffffffH
	DD	FLAT:__unwindfunclet$??HATL@@YA?AV?$CStringT@DV?$StrTraitMFC_DLL@DV?$ChTraitsCRT@D@ATL@@@@@0@ABV10@D@Z$0
__ehfuncinfo$??HATL@@YA?AV?$CStringT@DV?$StrTraitMFC_DLL@DV?$ChTraitsCRT@D@ATL@@@@@0@ABV10@D@Z DD 019930522H
	DD	01H
	DD	FLAT:__unwindtable$??HATL@@YA?AV?$CStringT@DV?$StrTraitMFC_DLL@DV?$ChTraitsCRT@D@ATL@@@@@0@ABV10@D@Z
	DD	2 DUP(00H)
	DD	2 DUP(00H)
	DD	00H
	DD	01H
xdata$x	ENDS
; Function compile flags: /Ogtp
; File D:\git\src\IBK\IBK_DRFN\ProjSrc\SrcChartEx\ChartOCX\KTBChart\SaveChartCfgList.cpp
; File C:\Program Files (x86)\Microsoft Visual Studio\2019\Community\VC\Tools\MSVC\14.29.30133\atlmfc\include\afxcoll.inl
; File D:\git\src\IBK\IBK_DRFN\ProjSrc\SrcChartEx\ChartOCX\KTBChart\SaveChartCfgList.cpp
;	COMDAT ??_GCSaveChartCfgList@@UAEPAXI@Z
_TEXT	SEGMENT
__$EHRec$ = -12						; size = 12
___flags$ = 8						; size = 4
??_GCSaveChartCfgList@@UAEPAXI@Z PROC			; CSaveChartCfgList::`scalar deleting destructor', COMDAT
; _this$ = ecx
  00000	55		 push	 ebp
  00001	8b ec		 mov	 ebp, esp
  00003	6a ff		 push	 -1
  00005	68 00 00 00 00	 push	 __ehhandler$??_GCSaveChartCfgList@@UAEPAXI@Z
  0000a	64 a1 00 00 00
	00		 mov	 eax, DWORD PTR fs:0
  00010	50		 push	 eax
  00011	56		 push	 esi
  00012	57		 push	 edi
  00013	a1 00 00 00 00	 mov	 eax, DWORD PTR ___security_cookie
  00018	33 c5		 xor	 eax, ebp
  0001a	50		 push	 eax
  0001b	8d 45 f4	 lea	 eax, DWORD PTR __$EHRec$[ebp]
  0001e	64 a3 00 00 00
	00		 mov	 DWORD PTR fs:0, eax
  00024	8b f9		 mov	 edi, ecx

; 100  : 	POSITION pos = m_lstChartCfg.GetHeadPosition();

  00026	8b 77 08	 mov	 esi, DWORD PTR [edi+8]

; 26   : {

  00029	c7 45 fc 00 00
	00 00		 mov	 DWORD PTR __$EHRec$[ebp+8], 0
  00030	c7 07 00 00 00
	00		 mov	 DWORD PTR [edi], OFFSET ??_7CSaveChartCfgList@@6B@

; 101  : 	while(pos)	{

  00036	85 f6		 test	 esi, esi
  00038	74 1a		 je	 SHORT $LN9@scalar
  0003a	66 0f 1f 44 00
	00		 npad	 6
$LL8@scalar:

; 102  : 		CChartCfg * pChart = m_lstChartCfg.GetNext(pos);

  00040	8b 4e 08	 mov	 ecx, DWORD PTR [esi+8]
; File C:\Program Files (x86)\Microsoft Visual Studio\2019\Community\VC\Tools\MSVC\14.29.30133\atlmfc\include\afxcoll.inl

; 432  : 		rPosition = (POSITION) pNode->pNext;

  00043	8b 36		 mov	 esi, DWORD PTR [esi]
; File D:\git\src\IBK\IBK_DRFN\ProjSrc\SrcChartEx\ChartOCX\KTBChart\SaveChartCfgList.cpp

; 103  : 		if(pChart)

  00045	85 c9		 test	 ecx, ecx
  00047	74 07		 je	 SHORT $LN12@scalar

; 104  : 			delete pChart;

  00049	8b 01		 mov	 eax, DWORD PTR [ecx]
  0004b	6a 01		 push	 1
  0004d	ff 50 04	 call	 DWORD PTR [eax+4]
$LN12@scalar:

; 101  : 	while(pos)	{

  00050	85 f6		 test	 esi, esi
  00052	75 ec		 jne	 SHORT $LL8@scalar
$LN9@scalar:

; 105  : 		pChart = NULL;
; 106  : 	}
; 107  : 	m_lstChartCfg.RemoveAll();

  00054	8d 4f 04	 lea	 ecx, DWORD PTR [edi+4]
  00057	e8 00 00 00 00	 call	 ?RemoveAll@CObList@@QAEXXZ ; CObList::RemoveAll
  0005c	8d 4f 04	 lea	 ecx, DWORD PTR [edi+4]
  0005f	e8 00 00 00 00	 call	 ??1CObList@@UAE@XZ	; CObList::~CObList
  00064	f6 45 08 01	 test	 BYTE PTR ___flags$[ebp], 1
  00068	74 0b		 je	 SHORT $LN34@scalar
  0006a	6a 20		 push	 32			; 00000020H
  0006c	57		 push	 edi
  0006d	e8 00 00 00 00	 call	 ??3@YAXPAXI@Z		; operator delete
  00072	83 c4 08	 add	 esp, 8
$LN34@scalar:
  00075	8b c7		 mov	 eax, edi
  00077	8b 4d f4	 mov	 ecx, DWORD PTR __$EHRec$[ebp]
  0007a	64 89 0d 00 00
	00 00		 mov	 DWORD PTR fs:0, ecx
  00081	59		 pop	 ecx
  00082	5f		 pop	 edi
  00083	5e		 pop	 esi
  00084	8b e5		 mov	 esp, ebp
  00086	5d		 pop	 ebp
  00087	c2 04 00	 ret	 4
  0008a	cc		 int	 3
  0008b	cc		 int	 3
  0008c	cc		 int	 3
  0008d	cc		 int	 3
  0008e	cc		 int	 3
_TEXT	ENDS
;	COMDAT text$x
text$x	SEGMENT
__ehhandler$??_GCSaveChartCfgList@@UAEPAXI@Z:
  00000	90		 npad	 1
  00001	90		 npad	 1
  00002	8b 54 24 08	 mov	 edx, DWORD PTR [esp+8]
  00006	8d 42 0c	 lea	 eax, DWORD PTR [edx+12]
  00009	8b 4a f4	 mov	 ecx, DWORD PTR [edx-12]
  0000c	33 c8		 xor	 ecx, eax
  0000e	e8 00 00 00 00	 call	 @__security_check_cookie@4
  00013	b8 00 00 00 00	 mov	 eax, OFFSET __ehfuncinfo$??_GCSaveChartCfgList@@UAEPAXI@Z
  00018	e9 00 00 00 00	 jmp	 ___CxxFrameHandler3
text$x	ENDS
??_GCSaveChartCfgList@@UAEPAXI@Z ENDP			; CSaveChartCfgList::`scalar deleting destructor'
; Function compile flags: /Ogtp
; File C:\Program Files (x86)\Microsoft Visual Studio\2019\Community\VC\Tools\MSVC\14.29.30133\atlmfc\include\afx.inl
;	COMDAT ??_G?$CTypedPtrList@VCObList@@PAVCChartCfg@@@@UAEPAXI@Z
_TEXT	SEGMENT
___flags$ = 8						; size = 4
??_G?$CTypedPtrList@VCObList@@PAVCChartCfg@@@@UAEPAXI@Z PROC ; CTypedPtrList<CObList,CChartCfg *>::`scalar deleting destructor', COMDAT
; _this$ = ecx
  00000	55		 push	 ebp
  00001	8b ec		 mov	 ebp, esp
  00003	56		 push	 esi
  00004	8b f1		 mov	 esi, ecx
  00006	e8 00 00 00 00	 call	 ??1CObList@@UAE@XZ	; CObList::~CObList
  0000b	8b 45 08	 mov	 eax, DWORD PTR ___flags$[ebp]
  0000e	a8 01		 test	 al, 1
  00010	74 1f		 je	 SHORT $LN15@scalar
  00012	a8 04		 test	 al, 4
  00014	75 10		 jne	 SHORT $LN3@scalar

; 112  : 	{ ::operator delete(p); }

  00016	56		 push	 esi
  00017	e8 00 00 00 00	 call	 ??3@YAXPAX@Z		; operator delete
  0001c	83 c4 04	 add	 esp, 4
  0001f	8b c6		 mov	 eax, esi
  00021	5e		 pop	 esi
  00022	5d		 pop	 ebp
  00023	c2 04 00	 ret	 4
$LN3@scalar:
  00026	6a 1c		 push	 28			; 0000001cH
  00028	56		 push	 esi
  00029	e8 00 00 00 00	 call	 ?__global_delete@@YAXPAXI@Z ; __global_delete
  0002e	83 c4 08	 add	 esp, 8
$LN15@scalar:
  00031	8b c6		 mov	 eax, esi
  00033	5e		 pop	 esi
  00034	5d		 pop	 ebp
  00035	c2 04 00	 ret	 4
??_G?$CTypedPtrList@VCObList@@PAVCChartCfg@@@@UAEPAXI@Z ENDP ; CTypedPtrList<CObList,CChartCfg *>::`scalar deleting destructor'
_TEXT	ENDS
; Function compile flags: /Ogtp
; File C:\Program Files (x86)\Microsoft Visual Studio\2019\Community\VC\Tools\MSVC\14.29.30133\atlmfc\include\afx.inl
;	COMDAT ??_G?$_CTypedPtrList@VCObList@@PAVCChartCfg@@@@UAEPAXI@Z
_TEXT	SEGMENT
___flags$ = 8						; size = 4
??_G?$_CTypedPtrList@VCObList@@PAVCChartCfg@@@@UAEPAXI@Z PROC ; _CTypedPtrList<CObList,CChartCfg *>::`scalar deleting destructor', COMDAT
; _this$ = ecx
  00000	55		 push	 ebp
  00001	8b ec		 mov	 ebp, esp
  00003	56		 push	 esi
  00004	8b f1		 mov	 esi, ecx
  00006	e8 00 00 00 00	 call	 ??1CObList@@UAE@XZ	; CObList::~CObList
  0000b	8b 45 08	 mov	 eax, DWORD PTR ___flags$[ebp]
  0000e	a8 01		 test	 al, 1
  00010	74 1f		 je	 SHORT $LN12@scalar
  00012	a8 04		 test	 al, 4
  00014	75 10		 jne	 SHORT $LN3@scalar

; 112  : 	{ ::operator delete(p); }

  00016	56		 push	 esi
  00017	e8 00 00 00 00	 call	 ??3@YAXPAX@Z		; operator delete
  0001c	83 c4 04	 add	 esp, 4
  0001f	8b c6		 mov	 eax, esi
  00021	5e		 pop	 esi
  00022	5d		 pop	 ebp
  00023	c2 04 00	 ret	 4
$LN3@scalar:
  00026	6a 1c		 push	 28			; 0000001cH
  00028	56		 push	 esi
  00029	e8 00 00 00 00	 call	 ?__global_delete@@YAXPAXI@Z ; __global_delete
  0002e	83 c4 08	 add	 esp, 8
$LN12@scalar:
  00031	8b c6		 mov	 eax, esi
  00033	5e		 pop	 esi
  00034	5d		 pop	 ebp
  00035	c2 04 00	 ret	 4
??_G?$_CTypedPtrList@VCObList@@PAVCChartCfg@@@@UAEPAXI@Z ENDP ; _CTypedPtrList<CObList,CChartCfg *>::`scalar deleting destructor'
_TEXT	ENDS
; Function compile flags: /Ogtp
; File D:\git\src\IBK\IBK_DRFN\ProjSrc\SrcChartEx\ChartOCX\KTBChart\SaveChartCfgList.cpp
; File C:\Program Files (x86)\Microsoft Visual Studio\2019\Community\VC\Tools\MSVC\14.29.30133\atlmfc\include\afxcoll.inl
; File D:\git\src\IBK\IBK_DRFN\ProjSrc\SrcChartEx\ChartOCX\KTBChart\SaveChartCfgList.cpp
;	COMDAT ?GetIndex@CSaveChartCfgList@@ABEHPAVCChartCfg@@@Z
_TEXT	SEGMENT
_pChartCfg$ = 8						; size = 4
?GetIndex@CSaveChartCfgList@@ABEHPAVCChartCfg@@@Z PROC	; CSaveChartCfgList::GetIndex, COMDAT
; _this$ = ecx

; 235  : {

  00000	55		 push	 ebp
  00001	8b ec		 mov	 ebp, esp
  00003	56		 push	 esi

; 236  : 	if(pChartCfg == NULL)

  00004	8b 75 08	 mov	 esi, DWORD PTR _pChartCfg$[ebp]
  00007	85 f6		 test	 esi, esi
  00009	74 15		 je	 SHORT $LN3@GetIndex

; 237  : 		return -1;
; 238  : 
; 239  : 	int nIndex = 0;
; 240  : 	POSITION pos = m_lstChartCfg.GetHeadPosition();

  0000b	8b 49 08	 mov	 ecx, DWORD PTR [ecx+8]
  0000e	33 d2		 xor	 edx, edx

; 241  : 	while(pos != NULL)

  00010	85 c9		 test	 ecx, ecx
  00012	74 0c		 je	 SHORT $LN3@GetIndex
$LL2@GetIndex:

; 243  : 		if(pChartCfg == m_lstChartCfg.GetNext(pos))

  00014	3b 71 08	 cmp	 esi, DWORD PTR [ecx+8]
; File C:\Program Files (x86)\Microsoft Visual Studio\2019\Community\VC\Tools\MSVC\14.29.30133\atlmfc\include\afxcoll.inl

; 439  : 		rPosition = (POSITION) pNode->pNext;

  00017	8b 09		 mov	 ecx, DWORD PTR [ecx]
; File D:\git\src\IBK\IBK_DRFN\ProjSrc\SrcChartEx\ChartOCX\KTBChart\SaveChartCfgList.cpp

; 243  : 		if(pChartCfg == m_lstChartCfg.GetNext(pos))

  00019	74 0d		 je	 SHORT $LN16@GetIndex

; 245  : 		nIndex++;

  0001b	42		 inc	 edx
  0001c	85 c9		 test	 ecx, ecx
  0001e	75 f4		 jne	 SHORT $LL2@GetIndex
$LN3@GetIndex:

; 246  : 	}
; 247  : 	return -1;

  00020	83 c8 ff	 or	 eax, -1
  00023	5e		 pop	 esi

; 248  : }

  00024	5d		 pop	 ebp
  00025	c2 04 00	 ret	 4
$LN16@GetIndex:

; 244  : 			return nIndex;

  00028	8b c2		 mov	 eax, edx
  0002a	5e		 pop	 esi

; 248  : }

  0002b	5d		 pop	 ebp
  0002c	c2 04 00	 ret	 4
?GetIndex@CSaveChartCfgList@@ABEHPAVCChartCfg@@@Z ENDP	; CSaveChartCfgList::GetIndex
_TEXT	ENDS
; Function compile flags: /Ogtp
; File D:\git\src\IBK\IBK_DRFN\ProjSrc\SrcChartEx\ChartOCX\KTBChart\SaveChartCfgList.cpp
; File C:\Program Files (x86)\Microsoft Visual Studio\2019\Community\VC\Tools\MSVC\14.29.30133\atlmfc\include\afxtempl.h
; File D:\git\src\IBK\IBK_DRFN\ProjSrc\SrcChartEx\ChartOCX\KTBChart\SaveChartCfgList.cpp
;	COMDAT ?RemoveFromIndexToEnd@CSaveChartCfgList@@QAE_NH@Z
_TEXT	SEGMENT
_nIndex$ = 8						; size = 4
_bResult$1$ = 11					; size = 1
?RemoveFromIndexToEnd@CSaveChartCfgList@@QAE_NH@Z PROC	; CSaveChartCfgList::RemoveFromIndexToEnd, COMDAT
; _this$ = ecx

; 215  : {

  00000	55		 push	 ebp
  00001	8b ec		 mov	 ebp, esp
  00003	56		 push	 esi

; 216  : 	// 1. 먼저 Index의 유효성을 확인한다.
; 217  : 	int nCfgCount = GetCfgCount();

  00004	8b 71 10	 mov	 esi, DWORD PTR [ecx+16]
  00007	57		 push	 edi

; 218  : 	if( nIndex < 0 || nCfgCount <= nIndex)

  00008	8b 7d 08	 mov	 edi, DWORD PTR _nIndex$[ebp]
  0000b	85 ff		 test	 edi, edi
  0000d	78 36		 js	 SHORT $LN5@RemoveFrom
  0000f	3b f7		 cmp	 esi, edi
  00011	7e 32		 jle	 SHORT $LN5@RemoveFrom

; 220  : 
; 221  : 	// 2. Index이후의 CFG Item을 삭제한다.
; 222  : 	bool bResult = false;
; 223  : 	while( nIndex < nCfgCount - 1)

  00013	4e		 dec	 esi
  00014	32 c0		 xor	 al, al
  00016	3b fe		 cmp	 edi, esi
  00018	7d 2d		 jge	 SHORT $LN1@RemoveFrom

; 227  : 		bResult = true;

  0001a	53		 push	 ebx
  0001b	8d 59 04	 lea	 ebx, DWORD PTR [ecx+4]
  0001e	c6 45 0b 01	 mov	 BYTE PTR _bResult$1$[ebp], 1
$LL2@RemoveFrom:
; File C:\Program Files (x86)\Microsoft Visual Studio\2019\Community\VC\Tools\MSVC\14.29.30133\atlmfc\include\afxtempl.h

; 1892 : 		{ return (TYPE)BASE_CLASS::RemoveTail(); }

  00022	8b cb		 mov	 ecx, ebx
  00024	e8 00 00 00 00	 call	 ?RemoveTail@CObList@@QAEPAVCObject@@XZ ; CObList::RemoveTail
; File D:\git\src\IBK\IBK_DRFN\ProjSrc\SrcChartEx\ChartOCX\KTBChart\SaveChartCfgList.cpp

; 225  : 		delete m_lstChartCfg.RemoveTail();

  00029	85 c0		 test	 eax, eax
  0002b	74 09		 je	 SHORT $LN7@RemoveFrom
  0002d	8b 10		 mov	 edx, DWORD PTR [eax]
  0002f	8b c8		 mov	 ecx, eax
  00031	6a 01		 push	 1
  00033	ff 52 04	 call	 DWORD PTR [edx+4]
$LN7@RemoveFrom:

; 226  : 		nCfgCount--;

  00036	4e		 dec	 esi
  00037	3b f7		 cmp	 esi, edi
  00039	7f e7		 jg	 SHORT $LL2@RemoveFrom

; 228  : 	}
; 229  : 
; 230  : 	return bResult;
; 231  : }

  0003b	8a 45 0b	 mov	 al, BYTE PTR _bResult$1$[ebp]
  0003e	5b		 pop	 ebx
  0003f	5f		 pop	 edi
  00040	5e		 pop	 esi
  00041	5d		 pop	 ebp
  00042	c2 04 00	 ret	 4
$LN5@RemoveFrom:

; 219  : 		return false;

  00045	32 c0		 xor	 al, al
$LN1@RemoveFrom:
  00047	5f		 pop	 edi

; 228  : 	}
; 229  : 
; 230  : 	return bResult;
; 231  : }

  00048	5e		 pop	 esi
  00049	5d		 pop	 ebp
  0004a	c2 04 00	 ret	 4
?RemoveFromIndexToEnd@CSaveChartCfgList@@QAE_NH@Z ENDP	; CSaveChartCfgList::RemoveFromIndexToEnd
_TEXT	ENDS
; Function compile flags: /Ogtp
; File D:\git\src\IBK\IBK_DRFN\ProjSrc\SrcChartEx\ChartOCX\KTBChart\SaveChartCfgList.cpp
; File C:\Program Files (x86)\Microsoft Visual Studio\2019\Community\VC\Tools\MSVC\14.29.30133\atlmfc\include\atlsimpstr.h
; File D:\git\src\IBK\IBK_DRFN\ProjSrc\SrcChartEx\ChartOCX\KTBChart\SaveChartCfgList.cpp
; File C:\Program Files (x86)\Microsoft Visual Studio\2019\Community\VC\Tools\MSVC\14.29.30133\atlmfc\include\atlsimpstr.h
; File D:\git\src\IBK\IBK_DRFN\ProjSrc\SrcChartEx\ChartOCX\KTBChart\SaveChartCfgList.cpp
; File C:\Program Files (x86)\Microsoft Visual Studio\2019\Community\VC\Tools\MSVC\14.29.30133\atlmfc\include\afxcoll.inl
; File C:\Program Files (x86)\Microsoft Visual Studio\2019\Community\VC\Tools\MSVC\14.29.30133\atlmfc\include\afxtempl.h
; File D:\git\src\IBK\IBK_DRFN\ProjSrc\SrcChartEx\ChartOCX\KTBChart\SaveChartCfgList.cpp
; File D:\git\src\IBK\IBK_DRFN\ProjSrc\SrcChartEx\ChartOCX\KTBChart\ChartCfg.h
; File C:\Program Files (x86)\Microsoft Visual Studio\2019\Community\VC\Tools\MSVC\14.29.30133\atlmfc\include\cstringt.h
; File D:\git\src\IBK\IBK_DRFN\ProjSrc\SrcChartEx\ChartOCX\KTBChart\SaveChartCfgList.cpp
; File C:\Program Files (x86)\Microsoft Visual Studio\2019\Community\VC\Tools\MSVC\14.29.30133\atlmfc\include\cstringt.h
; File C:\Program Files (x86)\Microsoft Visual Studio\2019\Community\VC\Tools\MSVC\14.29.30133\atlmfc\include\atlsimpstr.h
; File C:\Program Files (x86)\Microsoft Visual Studio\2019\Community\VC\Tools\MSVC\14.29.30133\atlmfc\include\cstringt.h
; File C:\Program Files (x86)\Microsoft Visual Studio\2019\Community\VC\Tools\MSVC\14.29.30133\atlmfc\include\atlsimpstr.h
; File C:\Program Files (x86)\Microsoft Visual Studio\2019\Community\VC\Tools\MSVC\14.29.30133\atlmfc\include\cstringt.h
; File D:\git\src\IBK\IBK_DRFN\ProjSrc\SrcChartEx\ChartOCX\KTBChart\SaveChartCfgList.cpp
;	COMDAT ?GetChartCfg@CSaveChartCfgList@@QBE_NABV?$CStringT@DV?$StrTraitMFC_DLL@DV?$ChTraitsCRT@D@ATL@@@@@ATL@@AAPAVCChartCfg@@AAH@Z
_TEXT	SEGMENT
$T2 = -36						; size = 4
_strChartList$3 = -32					; size = 4
_i$1$ = -28						; size = 4
$T4 = -24						; size = 4
$T5 = -20						; size = 4
_chTemp$6 = -13						; size = 1
__$EHRec$ = -12						; size = 12
_strGraphName$ = 8					; size = 4
_pChartCfg$ = 12					; size = 4
_nIndex$ = 16						; size = 4
?GetChartCfg@CSaveChartCfgList@@QBE_NABV?$CStringT@DV?$StrTraitMFC_DLL@DV?$ChTraitsCRT@D@ATL@@@@@ATL@@AAPAVCChartCfg@@AAH@Z PROC ; CSaveChartCfgList::GetChartCfg, COMDAT
; _this$ = ecx

; 185  : {

  00000	55		 push	 ebp
  00001	8b ec		 mov	 ebp, esp
  00003	6a ff		 push	 -1
  00005	68 00 00 00 00	 push	 __ehhandler$?GetChartCfg@CSaveChartCfgList@@QBE_NABV?$CStringT@DV?$StrTraitMFC_DLL@DV?$ChTraitsCRT@D@ATL@@@@@ATL@@AAPAVCChartCfg@@AAH@Z
  0000a	64 a1 00 00 00
	00		 mov	 eax, DWORD PTR fs:0
  00010	50		 push	 eax
  00011	83 ec 18	 sub	 esp, 24			; 00000018H
  00014	53		 push	 ebx
  00015	56		 push	 esi
  00016	57		 push	 edi
  00017	a1 00 00 00 00	 mov	 eax, DWORD PTR ___security_cookie
  0001c	33 c5		 xor	 eax, ebp
  0001e	50		 push	 eax
  0001f	8d 45 f4	 lea	 eax, DWORD PTR __$EHRec$[ebp]
  00022	64 a3 00 00 00
	00		 mov	 DWORD PTR fs:0, eax
; File C:\Program Files (x86)\Microsoft Visual Studio\2019\Community\VC\Tools\MSVC\14.29.30133\atlmfc\include\atlsimpstr.h

; 519  : 		return( GetData()->nDataLength );

  00028	8b 45 08	 mov	 eax, DWORD PTR _strGraphName$[ebp]
; File D:\git\src\IBK\IBK_DRFN\ProjSrc\SrcChartEx\ChartOCX\KTBChart\SaveChartCfgList.cpp

; 185  : {

  0002b	33 ff		 xor	 edi, edi
  0002d	89 7d dc	 mov	 DWORD PTR $T2[ebp], edi
; File C:\Program Files (x86)\Microsoft Visual Studio\2019\Community\VC\Tools\MSVC\14.29.30133\atlmfc\include\atlsimpstr.h

; 519  : 		return( GetData()->nDataLength );

  00030	8b 00		 mov	 eax, DWORD PTR [eax]

; 533  : 		return( GetLength() == 0 );

  00032	39 78 f4	 cmp	 DWORD PTR [eax-12], edi
; File D:\git\src\IBK\IBK_DRFN\ProjSrc\SrcChartEx\ChartOCX\KTBChart\SaveChartCfgList.cpp

; 186  : 	if(strGraphName.IsEmpty())

  00035	0f 84 ca 00 00
	00		 je	 $LN3@GetChartCf

; 187  : 		return false;
; 188  : 
; 189  : 	pChartCfg = NULL;

  0003b	8b 45 0c	 mov	 eax, DWORD PTR _pChartCfg$[ebp]
  0003e	89 38		 mov	 DWORD PTR [eax], edi

; 190  : 	nIndex = -1;

  00040	8b 45 10	 mov	 eax, DWORD PTR _nIndex$[ebp]
  00043	c7 00 ff ff ff
	ff		 mov	 DWORD PTR [eax], -1

; 191  : 
; 192  : 	POSITION pos = m_lstChartCfg.GetHeadPosition();
; 193  : 	for(int i = 0; pos != NULL; i++)

  00049	33 c0		 xor	 eax, eax
  0004b	8b 71 08	 mov	 esi, DWORD PTR [ecx+8]
  0004e	89 45 e4	 mov	 DWORD PTR _i$1$[ebp], eax
  00051	85 f6		 test	 esi, esi
  00053	0f 84 ac 00 00
	00		 je	 $LN3@GetChartCf
  00059	0f 1f 80 00 00
	00 00		 npad	 7
$LL4@GetChartCf:
; File C:\Program Files (x86)\Microsoft Visual Studio\2019\Community\VC\Tools\MSVC\14.29.30133\atlmfc\include\afxcoll.inl

; 435  : 	{ CNode* pNode = (CNode*) rPosition;

  00060	8b c6		 mov	 eax, esi

; 436  : 		ASSERT(AfxIsValidAddress(pNode, sizeof(CNode)));
; 437  : 		if( pNode == NULL )
; 438  : 			AfxThrowInvalidArgException();
; 439  : 		rPosition = (POSITION) pNode->pNext;

  00062	8b 36		 mov	 esi, DWORD PTR [esi]
; File C:\Program Files (x86)\Microsoft Visual Studio\2019\Community\VC\Tools\MSVC\14.29.30133\atlmfc\include\afxtempl.h

; 1898 : 		{ return (TYPE)BASE_CLASS::GetNext(rPosition); }

  00064	8b 58 08	 mov	 ebx, DWORD PTR [eax+8]
; File D:\git\src\IBK\IBK_DRFN\ProjSrc\SrcChartEx\ChartOCX\KTBChart\SaveChartCfgList.cpp

; 196  : 		if(pChart == NULL)

  00067	85 db		 test	 ebx, ebx
  00069	0f 84 96 00 00
	00		 je	 $LN3@GetChartCf
; File D:\git\src\IBK\IBK_DRFN\ProjSrc\SrcChartEx\ChartOCX\KTBChart\ChartCfg.h

; 57   : 	CString GetChartList()	{return m_strChartList;}

  0006f	8d 43 1c	 lea	 eax, DWORD PTR [ebx+28]
  00072	50		 push	 eax
  00073	8d 4d e0	 lea	 ecx, DWORD PTR _strChartList$3[ebp]
  00076	ff 15 00 00 00
	00		 call	 DWORD PTR __imp_??0?$CStringT@DV?$StrTraitMFC_DLL@DV?$ChTraitsCRT@D@ATL@@@@@ATL@@QAE@ABV01@@Z
  0007c	83 cf 01	 or	 edi, 1
; File C:\Program Files (x86)\Microsoft Visual Studio\2019\Community\VC\Tools\MSVC\14.29.30133\atlmfc\include\cstringt.h

; 2429 : 		CStringT strResult( str1.GetManager() );

  0007f	8b 4d 08	 mov	 ecx, DWORD PTR _strGraphName$[ebp]
; File D:\git\src\IBK\IBK_DRFN\ProjSrc\SrcChartEx\ChartOCX\KTBChart\SaveChartCfgList.cpp

; 200  : 		if(strChartList.Find(strGraphName + ';') > 0)

  00082	c7 45 fc 01 00
	00 00		 mov	 DWORD PTR __$EHRec$[ebp+8], 1
; File C:\Program Files (x86)\Microsoft Visual Studio\2019\Community\VC\Tools\MSVC\14.29.30133\atlmfc\include\cstringt.h

; 2429 : 		CStringT strResult( str1.GetManager() );

  00089	ff 15 00 00 00
	00		 call	 DWORD PTR __imp_?GetManager@?$CStringT@DV?$StrTraitMFC_DLL@DV?$ChTraitsCRT@D@ATL@@@@@ATL@@QBEPAUIAtlStringMgr@2@XZ
  0008f	50		 push	 eax
  00090	8d 4d ec	 lea	 ecx, DWORD PTR $T5[ebp]
  00093	ff 15 00 00 00
	00		 call	 DWORD PTR __imp_??0?$CStringT@DV?$StrTraitMFC_DLL@DV?$ChTraitsCRT@D@ATL@@@@@ATL@@QAE@PAUIAtlStringMgr@1@@Z
; File C:\Program Files (x86)\Microsoft Visual Studio\2019\Community\VC\Tools\MSVC\14.29.30133\atlmfc\include\atlsimpstr.h

; 519  : 		return( GetData()->nDataLength );

  00099	8b 45 08	 mov	 eax, DWORD PTR _strGraphName$[ebp]
; File C:\Program Files (x86)\Microsoft Visual Studio\2019\Community\VC\Tools\MSVC\14.29.30133\atlmfc\include\cstringt.h

; 2432 : 		CThisSimpleString::Concatenate( strResult, str1, str1.GetLength(), &chTemp, 1 );

  0009c	8d 4d f3	 lea	 ecx, DWORD PTR _chTemp$6[ebp]
  0009f	6a 01		 push	 1
  000a1	51		 push	 ecx
  000a2	c6 45 f3 3b	 mov	 BYTE PTR _chTemp$6[ebp], 59 ; 0000003bH

; 2434 : 		return( strResult );

  000a6	83 cf 02	 or	 edi, 2
; File C:\Program Files (x86)\Microsoft Visual Studio\2019\Community\VC\Tools\MSVC\14.29.30133\atlmfc\include\atlsimpstr.h

; 519  : 		return( GetData()->nDataLength );

  000a9	8b 00		 mov	 eax, DWORD PTR [eax]
; File C:\Program Files (x86)\Microsoft Visual Studio\2019\Community\VC\Tools\MSVC\14.29.30133\atlmfc\include\cstringt.h

; 2434 : 		return( strResult );

  000ab	89 7d e8	 mov	 DWORD PTR $T4[ebp], edi
  000ae	89 7d dc	 mov	 DWORD PTR $T2[ebp], edi
  000b1	ff 70 f4	 push	 DWORD PTR [eax-12]
  000b4	50		 push	 eax
  000b5	8d 45 ec	 lea	 eax, DWORD PTR $T5[ebp]
  000b8	50		 push	 eax
  000b9	ff 15 00 00 00
	00		 call	 DWORD PTR __imp_?Concatenate@?$CSimpleStringT@D$00@ATL@@KAXAAV12@PBDH1H@Z
  000bf	83 c4 14	 add	 esp, 20			; 00000014H
; File D:\git\src\IBK\IBK_DRFN\ProjSrc\SrcChartEx\ChartOCX\KTBChart\SaveChartCfgList.cpp

; 200  : 		if(strChartList.Find(strGraphName + ';') > 0)

  000c2	8d 4d e0	 lea	 ecx, DWORD PTR _strChartList$3[ebp]
  000c5	6a 00		 push	 0
  000c7	ff 75 ec	 push	 DWORD PTR $T5[ebp]
  000ca	ff 15 00 00 00
	00		 call	 DWORD PTR __imp_?Find@?$CStringT@DV?$StrTraitMFC_DLL@DV?$ChTraitsCRT@D@ATL@@@@@ATL@@QBEHPBDH@Z
  000d0	83 65 e8 fd	 and	 DWORD PTR $T4[ebp], -3	; fffffffdH
  000d4	8d 4d ec	 lea	 ecx, DWORD PTR $T5[ebp]
  000d7	8b f8		 mov	 edi, eax
  000d9	c6 45 fc 00	 mov	 BYTE PTR __$EHRec$[ebp+8], 0
  000dd	ff 15 00 00 00
	00		 call	 DWORD PTR __imp_??1?$CStringT@DV?$StrTraitMFC_DLL@DV?$ChTraitsCRT@D@ATL@@@@@ATL@@QAE@XZ
  000e3	85 ff		 test	 edi, edi
  000e5	7f 34		 jg	 SHORT $LN43@GetChartCf

; 205  : 		}
; 206  : 	}

  000e7	8d 4d e0	 lea	 ecx, DWORD PTR _strChartList$3[ebp]
  000ea	c7 45 fc ff ff
	ff ff		 mov	 DWORD PTR __$EHRec$[ebp+8], -1
  000f1	ff 15 00 00 00
	00		 call	 DWORD PTR __imp_??1?$CStringT@DV?$StrTraitMFC_DLL@DV?$ChTraitsCRT@D@ATL@@@@@ATL@@QAE@XZ
  000f7	ff 45 e4	 inc	 DWORD PTR _i$1$[ebp]
  000fa	8b 7d e8	 mov	 edi, DWORD PTR $T4[ebp]
  000fd	85 f6		 test	 esi, esi
  000ff	0f 85 5b ff ff
	ff		 jne	 $LL4@GetChartCf
$LN3@GetChartCf:

; 207  : 
; 208  : 	return false;

  00105	32 c0		 xor	 al, al

; 209  : }

  00107	8b 4d f4	 mov	 ecx, DWORD PTR __$EHRec$[ebp]
  0010a	64 89 0d 00 00
	00 00		 mov	 DWORD PTR fs:0, ecx
  00111	59		 pop	 ecx
  00112	5f		 pop	 edi
  00113	5e		 pop	 esi
  00114	5b		 pop	 ebx
  00115	8b e5		 mov	 esp, ebp
  00117	5d		 pop	 ebp
  00118	c2 0c 00	 ret	 12			; 0000000cH
$LN43@GetChartCf:

; 201  : 		{
; 202  : 			pChartCfg = pChart;

  0011b	8b 45 0c	 mov	 eax, DWORD PTR _pChartCfg$[ebp]

; 203  : 			nIndex = i;

  0011e	8b 4d 10	 mov	 ecx, DWORD PTR _nIndex$[ebp]
  00121	89 18		 mov	 DWORD PTR [eax], ebx
  00123	8b 45 e4	 mov	 eax, DWORD PTR _i$1$[ebp]
  00126	89 01		 mov	 DWORD PTR [ecx], eax

; 204  : 			return true;

  00128	8d 4d e0	 lea	 ecx, DWORD PTR _strChartList$3[ebp]
  0012b	ff 15 00 00 00
	00		 call	 DWORD PTR __imp_??1?$CStringT@DV?$StrTraitMFC_DLL@DV?$ChTraitsCRT@D@ATL@@@@@ATL@@QAE@XZ
  00131	b0 01		 mov	 al, 1

; 209  : }

  00133	8b 4d f4	 mov	 ecx, DWORD PTR __$EHRec$[ebp]
  00136	64 89 0d 00 00
	00 00		 mov	 DWORD PTR fs:0, ecx
  0013d	59		 pop	 ecx
  0013e	5f		 pop	 edi
  0013f	5e		 pop	 esi
  00140	5b		 pop	 ebx
  00141	8b e5		 mov	 esp, ebp
  00143	5d		 pop	 ebp
  00144	c2 0c 00	 ret	 12			; 0000000cH
_TEXT	ENDS
;	COMDAT text$x
text$x	SEGMENT
__unwindfunclet$?GetChartCfg@CSaveChartCfgList@@QBE_NABV?$CStringT@DV?$StrTraitMFC_DLL@DV?$ChTraitsCRT@D@ATL@@@@@ATL@@AAPAVCChartCfg@@AAH@Z$0:
  00000	8d 4d e0	 lea	 ecx, DWORD PTR _strChartList$3[ebp]
  00003	ff 25 00 00 00
	00		 jmp	 DWORD PTR __imp_??1?$CStringT@DV?$StrTraitMFC_DLL@DV?$ChTraitsCRT@D@ATL@@@@@ATL@@QAE@XZ
__unwindfunclet$?GetChartCfg@CSaveChartCfgList@@QBE_NABV?$CStringT@DV?$StrTraitMFC_DLL@DV?$ChTraitsCRT@D@ATL@@@@@ATL@@AAPAVCChartCfg@@AAH@Z$3:
  00009	8b 45 dc	 mov	 eax, DWORD PTR $T2[ebp]
  0000c	83 e0 02	 and	 eax, 2
  0000f	0f 84 0d 00 00
	00		 je	 $LN31@GetChartCf
  00015	83 65 dc fd	 and	 DWORD PTR $T2[ebp], -3	; fffffffdH
  00019	8d 4d ec	 lea	 ecx, DWORD PTR $T5[ebp]
  0001c	ff 25 00 00 00
	00		 jmp	 DWORD PTR __imp_??1?$CStringT@DV?$StrTraitMFC_DLL@DV?$ChTraitsCRT@D@ATL@@@@@ATL@@QAE@XZ
$LN31@GetChartCf:
  00022	c3		 ret	 0
  00023	cc		 int	 3
  00024	cc		 int	 3
  00025	cc		 int	 3
  00026	cc		 int	 3
  00027	cc		 int	 3
__ehhandler$?GetChartCfg@CSaveChartCfgList@@QBE_NABV?$CStringT@DV?$StrTraitMFC_DLL@DV?$ChTraitsCRT@D@ATL@@@@@ATL@@AAPAVCChartCfg@@AAH@Z:
  00028	90		 npad	 1
  00029	90		 npad	 1
  0002a	8b 54 24 08	 mov	 edx, DWORD PTR [esp+8]
  0002e	8d 42 0c	 lea	 eax, DWORD PTR [edx+12]
  00031	8b 4a d8	 mov	 ecx, DWORD PTR [edx-40]
  00034	33 c8		 xor	 ecx, eax
  00036	e8 00 00 00 00	 call	 @__security_check_cookie@4
  0003b	b8 00 00 00 00	 mov	 eax, OFFSET __ehfuncinfo$?GetChartCfg@CSaveChartCfgList@@QBE_NABV?$CStringT@DV?$StrTraitMFC_DLL@DV?$ChTraitsCRT@D@ATL@@@@@ATL@@AAPAVCChartCfg@@AAH@Z
  00040	e9 00 00 00 00	 jmp	 ___CxxFrameHandler3
text$x	ENDS
?GetChartCfg@CSaveChartCfgList@@QBE_NABV?$CStringT@DV?$StrTraitMFC_DLL@DV?$ChTraitsCRT@D@ATL@@@@@ATL@@AAPAVCChartCfg@@AAH@Z ENDP ; CSaveChartCfgList::GetChartCfg
; Function compile flags: /Ogtp
; File D:\git\src\IBK\IBK_DRFN\ProjSrc\SrcChartEx\ChartOCX\KTBChart\SaveChartCfgList.cpp
; File C:\Program Files (x86)\Microsoft Visual Studio\2019\Community\VC\Tools\MSVC\14.29.30133\atlmfc\include\afxcoll.inl
; File D:\git\src\IBK\IBK_DRFN\ProjSrc\SrcChartEx\ChartOCX\KTBChart\SaveChartCfgList.cpp
;	COMDAT ?GetPrev@CSaveChartCfgList@@QBEPAVCChartCfg@@AAPAU__POSITION@@@Z
_TEXT	SEGMENT
_pos$ = 8						; size = 4
?GetPrev@CSaveChartCfgList@@QBEPAVCChartCfg@@AAPAU__POSITION@@@Z PROC ; CSaveChartCfgList::GetPrev, COMDAT
; _this$ = ecx

; 177  : {

  00000	55		 push	 ebp
  00001	8b ec		 mov	 ebp, esp

; 178  : 	if(pos == NULL)

  00003	8b 55 08	 mov	 edx, DWORD PTR _pos$[ebp]
  00006	8b 02		 mov	 eax, DWORD PTR [edx]
  00008	85 c0		 test	 eax, eax
  0000a	75 04		 jne	 SHORT $LN2@GetPrev

; 181  : }

  0000c	5d		 pop	 ebp
  0000d	c2 04 00	 ret	 4
$LN2@GetPrev:
; File C:\Program Files (x86)\Microsoft Visual Studio\2019\Community\VC\Tools\MSVC\14.29.30133\atlmfc\include\afxcoll.inl

; 453  : 		rPosition = (POSITION) pNode->pPrev;

  00010	8b 48 04	 mov	 ecx, DWORD PTR [eax+4]
  00013	89 0a		 mov	 DWORD PTR [edx], ecx
; File D:\git\src\IBK\IBK_DRFN\ProjSrc\SrcChartEx\ChartOCX\KTBChart\SaveChartCfgList.cpp

; 180  : 	return m_lstChartCfg.GetPrev(pos);

  00015	8b 40 08	 mov	 eax, DWORD PTR [eax+8]

; 181  : }

  00018	5d		 pop	 ebp
  00019	c2 04 00	 ret	 4
?GetPrev@CSaveChartCfgList@@QBEPAVCChartCfg@@AAPAU__POSITION@@@Z ENDP ; CSaveChartCfgList::GetPrev
_TEXT	ENDS
; Function compile flags: /Ogtp
; File D:\git\src\IBK\IBK_DRFN\ProjSrc\SrcChartEx\ChartOCX\KTBChart\SaveChartCfgList.cpp
; File C:\Program Files (x86)\Microsoft Visual Studio\2019\Community\VC\Tools\MSVC\14.29.30133\atlmfc\include\afxcoll.inl
; File D:\git\src\IBK\IBK_DRFN\ProjSrc\SrcChartEx\ChartOCX\KTBChart\SaveChartCfgList.cpp
;	COMDAT ?GetNext@CSaveChartCfgList@@QBEPAVCChartCfg@@AAPAU__POSITION@@@Z
_TEXT	SEGMENT
_pos$ = 8						; size = 4
?GetNext@CSaveChartCfgList@@QBEPAVCChartCfg@@AAPAU__POSITION@@@Z PROC ; CSaveChartCfgList::GetNext, COMDAT
; _this$ = ecx

; 170  : {

  00000	55		 push	 ebp
  00001	8b ec		 mov	 ebp, esp

; 171  : 	if(pos == NULL)

  00003	8b 55 08	 mov	 edx, DWORD PTR _pos$[ebp]
  00006	8b 02		 mov	 eax, DWORD PTR [edx]
  00008	85 c0		 test	 eax, eax
  0000a	75 04		 jne	 SHORT $LN2@GetNext

; 174  : }

  0000c	5d		 pop	 ebp
  0000d	c2 04 00	 ret	 4
$LN2@GetNext:
; File C:\Program Files (x86)\Microsoft Visual Studio\2019\Community\VC\Tools\MSVC\14.29.30133\atlmfc\include\afxcoll.inl

; 439  : 		rPosition = (POSITION) pNode->pNext;

  00010	8b 08		 mov	 ecx, DWORD PTR [eax]
  00012	89 0a		 mov	 DWORD PTR [edx], ecx
; File D:\git\src\IBK\IBK_DRFN\ProjSrc\SrcChartEx\ChartOCX\KTBChart\SaveChartCfgList.cpp

; 173  : 	return m_lstChartCfg.GetNext(pos);

  00014	8b 40 08	 mov	 eax, DWORD PTR [eax+8]

; 174  : }

  00017	5d		 pop	 ebp
  00018	c2 04 00	 ret	 4
?GetNext@CSaveChartCfgList@@QBEPAVCChartCfg@@AAPAU__POSITION@@@Z ENDP ; CSaveChartCfgList::GetNext
_TEXT	ENDS
; Function compile flags: /Ogtp
; File D:\git\src\IBK\IBK_DRFN\ProjSrc\SrcChartEx\ChartOCX\KTBChart\SaveChartCfgList.cpp
; File C:\Program Files (x86)\Microsoft Visual Studio\2019\Community\VC\Tools\MSVC\14.29.30133\atlmfc\include\afxcoll.inl
; File D:\git\src\IBK\IBK_DRFN\ProjSrc\SrcChartEx\ChartOCX\KTBChart\SaveChartCfgList.cpp
; File C:\Program Files (x86)\Microsoft Visual Studio\2019\Community\VC\Tools\MSVC\14.29.30133\atlmfc\include\afxcoll.inl
; File D:\git\src\IBK\IBK_DRFN\ProjSrc\SrcChartEx\ChartOCX\KTBChart\SaveChartCfgList.cpp
; File C:\Program Files (x86)\Microsoft Visual Studio\2019\Community\VC\Tools\MSVC\14.29.30133\atlmfc\include\afxtempl.h
; File D:\git\src\IBK\IBK_DRFN\ProjSrc\SrcChartEx\ChartOCX\KTBChart\SaveChartCfgList.cpp
; File C:\Program Files (x86)\Microsoft Visual Studio\2019\Community\VC\Tools\MSVC\14.29.30133\atlmfc\include\afxcoll.inl
; File D:\git\src\IBK\IBK_DRFN\ProjSrc\SrcChartEx\ChartOCX\KTBChart\SaveChartCfgList.cpp
;	COMDAT ?GetChartCfg@CSaveChartCfgList@@QAEPAVCChartCfg@@H_N@Z
_TEXT	SEGMENT
_this$1$ = -4						; size = 4
_pChartCfg$1$ = 8					; size = 4
_nIndex$ = 8						; size = 4
_bDelete$ = 12						; size = 1
?GetChartCfg@CSaveChartCfgList@@QAEPAVCChartCfg@@H_N@Z PROC ; CSaveChartCfgList::GetChartCfg, COMDAT
; _this$ = ecx

; 156  : {

  00000	55		 push	 ebp
  00001	8b ec		 mov	 ebp, esp
  00003	51		 push	 ecx
  00004	8b d1		 mov	 edx, ecx
  00006	53		 push	 ebx
  00007	89 55 fc	 mov	 DWORD PTR _this$1$[ebp], edx

; 142  : 	if(m_lstChartCfg.GetCount() <= 0)

  0000a	8b 42 10	 mov	 eax, DWORD PTR [edx+16]
  0000d	85 c0		 test	 eax, eax
  0000f	7f 0b		 jg	 SHORT $LN5@GetChartCf

; 143  : 		return NULL;

  00011	33 db		 xor	 ebx, ebx

; 160  : 	{
; 161  : 		int nDeleteStartIndex = GetIndex(pChartCfg);
; 162  : 		RemoveFromIndexToEnd(nDeleteStartIndex);
; 163  : 	}
; 164  : 
; 165  : 	return pChartCfg;

  00013	8b c3		 mov	 eax, ebx
  00015	5b		 pop	 ebx

; 166  : }

  00016	8b e5		 mov	 esp, ebp
  00018	5d		 pop	 ebp
  00019	c2 08 00	 ret	 8
$LN5@GetChartCf:

; 144  : 	if(m_lstChartCfg.GetCount() == 1)

  0001c	83 f8 01	 cmp	 eax, 1
  0001f	74 1a		 je	 SHORT $LN7@GetChartCf

; 145  : 		return m_lstChartCfg.GetTail();
; 146  : 
; 147  : 	if(nIndex < m_lstChartCfg.GetCount() - 1)

  00021	8b 4d 08	 mov	 ecx, DWORD PTR _nIndex$[ebp]
  00024	48		 dec	 eax
  00025	3b c8		 cmp	 ecx, eax
  00027	7d 12		 jge	 SHORT $LN7@GetChartCf

; 148  : 		return m_lstChartCfg.GetAt(m_lstChartCfg.FindIndex(nIndex));

  00029	51		 push	 ecx
  0002a	8d 4a 04	 lea	 ecx, DWORD PTR [edx+4]
  0002d	e8 00 00 00 00	 call	 ?FindIndex@CObList@@QBEPAU__POSITION@@H@Z ; CObList::FindIndex
; File C:\Program Files (x86)\Microsoft Visual Studio\2019\Community\VC\Tools\MSVC\14.29.30133\atlmfc\include\afxcoll.inl

; 464  : 		if( pNode == NULL )

  00032	85 c0		 test	 eax, eax
  00034	74 73		 je	 SHORT $LN63@GetChartCf
; File D:\git\src\IBK\IBK_DRFN\ProjSrc\SrcChartEx\ChartOCX\KTBChart\SaveChartCfgList.cpp

; 148  : 		return m_lstChartCfg.GetAt(m_lstChartCfg.FindIndex(nIndex));

  00036	8b 55 fc	 mov	 edx, DWORD PTR _this$1$[ebp]
  00039	eb 03		 jmp	 SHORT $LN61@GetChartCf
$LN7@GetChartCf:

; 157  : 	CChartCfg* pChartCfg = GetChartCfg(nIndex);
; 158  : 	// 뒷부분을 삭제한다.
; 159  : 	if(pChartCfg != NULL && bDelete)

  0003b	8b 42 0c	 mov	 eax, DWORD PTR [edx+12]
$LN61@GetChartCf:
  0003e	8b 58 08	 mov	 ebx, DWORD PTR [eax+8]
  00041	89 5d 08	 mov	 DWORD PTR _pChartCfg$1$[ebp], ebx
  00044	85 db		 test	 ebx, ebx
  00046	74 58		 je	 SHORT $LN42@GetChartCf
  00048	80 7d 0c 00	 cmp	 BYTE PTR _bDelete$[ebp], 0
  0004c	74 52		 je	 SHORT $LN42@GetChartCf

; 240  : 	POSITION pos = m_lstChartCfg.GetHeadPosition();

  0004e	8b 4a 08	 mov	 ecx, DWORD PTR [edx+8]
  00051	56		 push	 esi
  00052	33 f6		 xor	 esi, esi

; 241  : 	while(pos != NULL)

  00054	85 c9		 test	 ecx, ecx
  00056	74 47		 je	 SHORT $LN58@GetChartCf
$LL26@GetChartCf:

; 243  : 		if(pChartCfg == m_lstChartCfg.GetNext(pos))

  00058	3b 59 08	 cmp	 ebx, DWORD PTR [ecx+8]
; File C:\Program Files (x86)\Microsoft Visual Studio\2019\Community\VC\Tools\MSVC\14.29.30133\atlmfc\include\afxcoll.inl

; 439  : 		rPosition = (POSITION) pNode->pNext;

  0005b	8b 09		 mov	 ecx, DWORD PTR [ecx]
; File D:\git\src\IBK\IBK_DRFN\ProjSrc\SrcChartEx\ChartOCX\KTBChart\SaveChartCfgList.cpp

; 243  : 		if(pChartCfg == m_lstChartCfg.GetNext(pos))

  0005d	74 0f		 je	 SHORT $LN51@GetChartCf

; 244  : 			return nIndex;
; 245  : 		nIndex++;

  0005f	46		 inc	 esi
  00060	85 c9		 test	 ecx, ecx
  00062	75 f4		 jne	 SHORT $LL26@GetChartCf

; 160  : 	{
; 161  : 		int nDeleteStartIndex = GetIndex(pChartCfg);
; 162  : 		RemoveFromIndexToEnd(nDeleteStartIndex);
; 163  : 	}
; 164  : 
; 165  : 	return pChartCfg;

  00064	5e		 pop	 esi
  00065	8b c3		 mov	 eax, ebx
  00067	5b		 pop	 ebx

; 166  : }

  00068	8b e5		 mov	 esp, ebp
  0006a	5d		 pop	 ebp
  0006b	c2 08 00	 ret	 8
$LN51@GetChartCf:
  0006e	57		 push	 edi

; 217  : 	int nCfgCount = GetCfgCount();

  0006f	8b 7a 10	 mov	 edi, DWORD PTR [edx+16]

; 218  : 	if( nIndex < 0 || nCfgCount <= nIndex)

  00072	85 f6		 test	 esi, esi
  00074	78 28		 js	 SHORT $LN59@GetChartCf
  00076	3b fe		 cmp	 edi, esi
  00078	7e 24		 jle	 SHORT $LN59@GetChartCf

; 219  : 		return false;
; 220  : 
; 221  : 	// 2. Index이후의 CFG Item을 삭제한다.
; 222  : 	bool bResult = false;
; 223  : 	while( nIndex < nCfgCount - 1)

  0007a	4f		 dec	 edi
  0007b	3b f7		 cmp	 esi, edi
  0007d	7d 1f		 jge	 SHORT $LN59@GetChartCf
  0007f	8d 5a 04	 lea	 ebx, DWORD PTR [edx+4]
$LL39@GetChartCf:
; File C:\Program Files (x86)\Microsoft Visual Studio\2019\Community\VC\Tools\MSVC\14.29.30133\atlmfc\include\afxtempl.h

; 1892 : 		{ return (TYPE)BASE_CLASS::RemoveTail(); }

  00082	8b cb		 mov	 ecx, ebx
  00084	e8 00 00 00 00	 call	 ?RemoveTail@CObList@@QAEPAVCObject@@XZ ; CObList::RemoveTail
; File D:\git\src\IBK\IBK_DRFN\ProjSrc\SrcChartEx\ChartOCX\KTBChart\SaveChartCfgList.cpp

; 225  : 		delete m_lstChartCfg.RemoveTail();

  00089	85 c0		 test	 eax, eax
  0008b	74 09		 je	 SHORT $LN44@GetChartCf
  0008d	8b 10		 mov	 edx, DWORD PTR [eax]
  0008f	8b c8		 mov	 ecx, eax
  00091	6a 01		 push	 1
  00093	ff 52 04	 call	 DWORD PTR [edx+4]
$LN44@GetChartCf:

; 226  : 		nCfgCount--;

  00096	4f		 dec	 edi
  00097	3b fe		 cmp	 edi, esi
  00099	7f e7		 jg	 SHORT $LL39@GetChartCf
  0009b	8b 5d 08	 mov	 ebx, DWORD PTR _pChartCfg$1$[ebp]
$LN59@GetChartCf:
  0009e	5f		 pop	 edi
$LN58@GetChartCf:
  0009f	5e		 pop	 esi
$LN42@GetChartCf:

; 160  : 	{
; 161  : 		int nDeleteStartIndex = GetIndex(pChartCfg);
; 162  : 		RemoveFromIndexToEnd(nDeleteStartIndex);
; 163  : 	}
; 164  : 
; 165  : 	return pChartCfg;

  000a0	8b c3		 mov	 eax, ebx
  000a2	5b		 pop	 ebx

; 166  : }

  000a3	8b e5		 mov	 esp, ebp
  000a5	5d		 pop	 ebp
  000a6	c2 08 00	 ret	 8
$LN63@GetChartCf:
; File C:\Program Files (x86)\Microsoft Visual Studio\2019\Community\VC\Tools\MSVC\14.29.30133\atlmfc\include\afxcoll.inl

; 438  : 			AfxThrowInvalidArgException();

  000a9	e8 00 00 00 00	 call	 ?AfxThrowInvalidArgException@@YGXXZ ; AfxThrowInvalidArgException
$LN60@GetChartCf:
  000ae	cc		 int	 3
?GetChartCfg@CSaveChartCfgList@@QAEPAVCChartCfg@@H_N@Z ENDP ; CSaveChartCfgList::GetChartCfg
_TEXT	ENDS
; Function compile flags: /Ogtp
; File D:\git\src\IBK\IBK_DRFN\ProjSrc\SrcChartEx\ChartOCX\KTBChart\SaveChartCfgList.cpp
; File C:\Program Files (x86)\Microsoft Visual Studio\2019\Community\VC\Tools\MSVC\14.29.30133\atlmfc\include\afxcoll.inl
; File D:\git\src\IBK\IBK_DRFN\ProjSrc\SrcChartEx\ChartOCX\KTBChart\SaveChartCfgList.cpp
; File C:\Program Files (x86)\Microsoft Visual Studio\2019\Community\VC\Tools\MSVC\14.29.30133\atlmfc\include\afxcoll.inl
; File D:\git\src\IBK\IBK_DRFN\ProjSrc\SrcChartEx\ChartOCX\KTBChart\SaveChartCfgList.cpp
;	COMDAT ?GetChartCfg@CSaveChartCfgList@@QBEPAVCChartCfg@@H@Z
_TEXT	SEGMENT
_nIndex$ = 8						; size = 4
?GetChartCfg@CSaveChartCfgList@@QBEPAVCChartCfg@@H@Z PROC ; CSaveChartCfgList::GetChartCfg, COMDAT
; _this$ = ecx

; 141  : {

  00000	55		 push	 ebp
  00001	8b ec		 mov	 ebp, esp

; 142  : 	if(m_lstChartCfg.GetCount() <= 0)

  00003	8b 41 10	 mov	 eax, DWORD PTR [ecx+16]
  00006	85 c0		 test	 eax, eax
  00008	7f 06		 jg	 SHORT $LN2@GetChartCf

; 143  : 		return NULL;

  0000a	33 c0		 xor	 eax, eax

; 151  : }

  0000c	5d		 pop	 ebp
  0000d	c2 04 00	 ret	 4
$LN2@GetChartCf:

; 144  : 	if(m_lstChartCfg.GetCount() == 1)

  00010	83 f8 01	 cmp	 eax, 1
  00013	74 17		 je	 SHORT $LN4@GetChartCf

; 145  : 		return m_lstChartCfg.GetTail();
; 146  : 
; 147  : 	if(nIndex < m_lstChartCfg.GetCount() - 1)

  00015	8b 55 08	 mov	 edx, DWORD PTR _nIndex$[ebp]
  00018	48		 dec	 eax
  00019	3b d0		 cmp	 edx, eax
  0001b	7d 0f		 jge	 SHORT $LN4@GetChartCf

; 148  : 		return m_lstChartCfg.GetAt(m_lstChartCfg.FindIndex(nIndex));

  0001d	52		 push	 edx
  0001e	83 c1 04	 add	 ecx, 4
  00021	e8 00 00 00 00	 call	 ?FindIndex@CObList@@QBEPAU__POSITION@@H@Z ; CObList::FindIndex
; File C:\Program Files (x86)\Microsoft Visual Studio\2019\Community\VC\Tools\MSVC\14.29.30133\atlmfc\include\afxcoll.inl

; 464  : 		if( pNode == NULL )

  00026	85 c0		 test	 eax, eax
  00028	74 0c		 je	 SHORT $LN23@GetChartCf
  0002a	eb 03		 jmp	 SHORT $LN13@GetChartCf
$LN4@GetChartCf:
; File D:\git\src\IBK\IBK_DRFN\ProjSrc\SrcChartEx\ChartOCX\KTBChart\SaveChartCfgList.cpp

; 151  : }

  0002c	8b 41 0c	 mov	 eax, DWORD PTR [ecx+12]
$LN13@GetChartCf:
  0002f	8b 40 08	 mov	 eax, DWORD PTR [eax+8]
  00032	5d		 pop	 ebp
  00033	c2 04 00	 ret	 4
$LN23@GetChartCf:
; File C:\Program Files (x86)\Microsoft Visual Studio\2019\Community\VC\Tools\MSVC\14.29.30133\atlmfc\include\afxcoll.inl

; 465  : 			AfxThrowInvalidArgException();

  00036	e8 00 00 00 00	 call	 ?AfxThrowInvalidArgException@@YGXXZ ; AfxThrowInvalidArgException
$LN21@GetChartCf:
  0003b	cc		 int	 3
?GetChartCfg@CSaveChartCfgList@@QBEPAVCChartCfg@@H@Z ENDP ; CSaveChartCfgList::GetChartCfg
_TEXT	ENDS
; Function compile flags: /Ogtp
; File D:\git\src\IBK\IBK_DRFN\ProjSrc\SrcChartEx\ChartOCX\KTBChart\SaveChartCfgList.cpp
;	COMDAT ?GetTailPosition@CSaveChartCfgList@@QBEPAU__POSITION@@XZ
_TEXT	SEGMENT
?GetTailPosition@CSaveChartCfgList@@QBEPAU__POSITION@@XZ PROC ; CSaveChartCfgList::GetTailPosition, COMDAT
; _this$ = ecx

; 136  : 	return m_lstChartCfg.GetTailPosition();

  00000	8b 41 0c	 mov	 eax, DWORD PTR [ecx+12]

; 137  : }

  00003	c3		 ret	 0
?GetTailPosition@CSaveChartCfgList@@QBEPAU__POSITION@@XZ ENDP ; CSaveChartCfgList::GetTailPosition
_TEXT	ENDS
; Function compile flags: /Ogtp
; File D:\git\src\IBK\IBK_DRFN\ProjSrc\SrcChartEx\ChartOCX\KTBChart\SaveChartCfgList.cpp
;	COMDAT ?GetHeadPosition@CSaveChartCfgList@@QBEPAU__POSITION@@XZ
_TEXT	SEGMENT
?GetHeadPosition@CSaveChartCfgList@@QBEPAU__POSITION@@XZ PROC ; CSaveChartCfgList::GetHeadPosition, COMDAT
; _this$ = ecx

; 131  : 	return m_lstChartCfg.GetHeadPosition();

  00000	8b 41 08	 mov	 eax, DWORD PTR [ecx+8]

; 132  : }

  00003	c3		 ret	 0
?GetHeadPosition@CSaveChartCfgList@@QBEPAU__POSITION@@XZ ENDP ; CSaveChartCfgList::GetHeadPosition
_TEXT	ENDS
; Function compile flags: /Ogtp
; File D:\git\src\IBK\IBK_DRFN\ProjSrc\SrcChartEx\ChartOCX\KTBChart\SaveChartCfgList.cpp
;	COMDAT ?GetCfgCount@CSaveChartCfgList@@QAEHXZ
_TEXT	SEGMENT
?GetCfgCount@CSaveChartCfgList@@QAEHXZ PROC		; CSaveChartCfgList::GetCfgCount, COMDAT
; _this$ = ecx

; 126  : 	return m_lstChartCfg.GetCount();

  00000	8b 41 10	 mov	 eax, DWORD PTR [ecx+16]

; 127  : }

  00003	c3		 ret	 0
?GetCfgCount@CSaveChartCfgList@@QAEHXZ ENDP		; CSaveChartCfgList::GetCfgCount
_TEXT	ENDS
; Function compile flags: /Ogtp
; File D:\git\src\IBK\IBK_DRFN\ProjSrc\SrcChartEx\ChartOCX\KTBChart\SaveChartCfgList.cpp
; File C:\Program Files (x86)\Microsoft Visual Studio\2019\Community\VC\Tools\MSVC\14.29.30133\atlmfc\include\afxtempl.h
; File D:\git\src\IBK\IBK_DRFN\ProjSrc\SrcChartEx\ChartOCX\KTBChart\SaveChartCfgList.cpp
;	COMDAT ?RemoveTail@CSaveChartCfgList@@QAE_NXZ
_TEXT	SEGMENT
?RemoveTail@CSaveChartCfgList@@QAE_NXZ PROC		; CSaveChartCfgList::RemoveTail, COMDAT
; _this$ = ecx

; 112  : {

  00000	56		 push	 esi
  00001	8b f1		 mov	 esi, ecx

; 113  : 	CChartCfg * pChart = m_lstChartCfg.GetTail();

  00003	8b 46 0c	 mov	 eax, DWORD PTR [esi+12]
  00006	8b 48 08	 mov	 ecx, DWORD PTR [eax+8]

; 114  : 	if(pChart == NULL)

  00009	85 c9		 test	 ecx, ecx
  0000b	75 04		 jne	 SHORT $LN2@RemoveTail

; 115  : 		return false;

  0000d	32 c0		 xor	 al, al
  0000f	5e		 pop	 esi

; 120  : }

  00010	c3		 ret	 0
$LN2@RemoveTail:

; 116  : 
; 117  : 	delete pChart;

  00011	8b 01		 mov	 eax, DWORD PTR [ecx]
  00013	6a 01		 push	 1
  00015	ff 50 04	 call	 DWORD PTR [eax+4]

; 118  : 	m_lstChartCfg.RemoveTail();

  00018	8d 4e 04	 lea	 ecx, DWORD PTR [esi+4]
; File C:\Program Files (x86)\Microsoft Visual Studio\2019\Community\VC\Tools\MSVC\14.29.30133\atlmfc\include\afxtempl.h

; 1892 : 		{ return (TYPE)BASE_CLASS::RemoveTail(); }

  0001b	e8 00 00 00 00	 call	 ?RemoveTail@CObList@@QAEPAVCObject@@XZ ; CObList::RemoveTail
; File D:\git\src\IBK\IBK_DRFN\ProjSrc\SrcChartEx\ChartOCX\KTBChart\SaveChartCfgList.cpp

; 119  : 	return true;

  00020	b0 01		 mov	 al, 1
  00022	5e		 pop	 esi

; 120  : }

  00023	c3		 ret	 0
?RemoveTail@CSaveChartCfgList@@QAE_NXZ ENDP		; CSaveChartCfgList::RemoveTail
_TEXT	ENDS
; Function compile flags: /Ogtp
; File D:\git\src\IBK\IBK_DRFN\ProjSrc\SrcChartEx\ChartOCX\KTBChart\SaveChartCfgList.cpp
; File C:\Program Files (x86)\Microsoft Visual Studio\2019\Community\VC\Tools\MSVC\14.29.30133\atlmfc\include\afxcoll.inl
; File D:\git\src\IBK\IBK_DRFN\ProjSrc\SrcChartEx\ChartOCX\KTBChart\SaveChartCfgList.cpp
;	COMDAT ?RemoveAll@CSaveChartCfgList@@QAEXXZ
_TEXT	SEGMENT
?RemoveAll@CSaveChartCfgList@@QAEXXZ PROC		; CSaveChartCfgList::RemoveAll, COMDAT
; _this$ = ecx

; 99   : {

  00000	56		 push	 esi
  00001	57		 push	 edi
  00002	8b f9		 mov	 edi, ecx

; 100  : 	POSITION pos = m_lstChartCfg.GetHeadPosition();

  00004	8b 77 08	 mov	 esi, DWORD PTR [edi+8]

; 101  : 	while(pos)	{

  00007	85 f6		 test	 esi, esi
  00009	74 19		 je	 SHORT $LN3@RemoveAll
  0000b	0f 1f 44 00 00	 npad	 5
$LL2@RemoveAll:

; 102  : 		CChartCfg * pChart = m_lstChartCfg.GetNext(pos);

  00010	8b 4e 08	 mov	 ecx, DWORD PTR [esi+8]
; File C:\Program Files (x86)\Microsoft Visual Studio\2019\Community\VC\Tools\MSVC\14.29.30133\atlmfc\include\afxcoll.inl

; 432  : 		rPosition = (POSITION) pNode->pNext;

  00013	8b 36		 mov	 esi, DWORD PTR [esi]
; File D:\git\src\IBK\IBK_DRFN\ProjSrc\SrcChartEx\ChartOCX\KTBChart\SaveChartCfgList.cpp

; 103  : 		if(pChart)

  00015	85 c9		 test	 ecx, ecx
  00017	74 07		 je	 SHORT $LN6@RemoveAll

; 104  : 			delete pChart;

  00019	8b 01		 mov	 eax, DWORD PTR [ecx]
  0001b	6a 01		 push	 1
  0001d	ff 50 04	 call	 DWORD PTR [eax+4]
$LN6@RemoveAll:

; 101  : 	while(pos)	{

  00020	85 f6		 test	 esi, esi
  00022	75 ec		 jne	 SHORT $LL2@RemoveAll
$LN3@RemoveAll:

; 105  : 		pChart = NULL;
; 106  : 	}
; 107  : 	m_lstChartCfg.RemoveAll();

  00024	8d 4f 04	 lea	 ecx, DWORD PTR [edi+4]
  00027	5f		 pop	 edi
  00028	5e		 pop	 esi
  00029	e9 00 00 00 00	 jmp	 ?RemoveAll@CObList@@QAEXXZ ; CObList::RemoveAll
?RemoveAll@CSaveChartCfgList@@QAEXXZ ENDP		; CSaveChartCfgList::RemoveAll
_TEXT	ENDS
; Function compile flags: /Ogtp
; File D:\git\src\IBK\IBK_DRFN\ProjSrc\SrcChartEx\ChartOCX\KTBChart\SaveChartCfgList.cpp
; File C:\Program Files (x86)\Microsoft Visual Studio\2019\Community\VC\Tools\MSVC\14.29.30133\atlmfc\include\afx.inl
; File D:\git\src\IBK\IBK_DRFN\ProjSrc\SrcChartEx\ChartOCX\KTBChart\SaveChartCfgList.cpp
; File C:\Program Files (x86)\Microsoft Visual Studio\2019\Community\VC\Tools\MSVC\14.29.30133\atlmfc\include\afx.inl
; File D:\git\src\IBK\IBK_DRFN\ProjSrc\SrcChartEx\ChartOCX\KTBChart\SaveChartCfgList.cpp
; File C:\Program Files (x86)\Microsoft Visual Studio\2019\Community\VC\Tools\MSVC\14.29.30133\atlmfc\include\afxtempl.h
; File D:\git\src\IBK\IBK_DRFN\ProjSrc\SrcChartEx\ChartOCX\KTBChart\SaveChartCfgList.cpp
; File C:\Program Files (x86)\Microsoft Visual Studio\2019\Community\VC\Tools\MSVC\14.29.30133\atlmfc\include\afxtempl.h
; File D:\git\src\IBK\IBK_DRFN\ProjSrc\SrcChartEx\ChartOCX\KTBChart\SaveChartCfgList.cpp
;	COMDAT ?AddChartCfg@CSaveChartCfgList@@QAE_NPAVCPropertyMap@@HHHHHHABV?$CStringT@DV?$StrTraitMFC_DLL@DV?$ChTraitsCRT@D@ATL@@@@@ATL@@1HHHHHHHHHHHHHHHHHHKKKKKKKKKKHPBDHHJJHH@Z
_TEXT	SEGMENT
$T2 = -16						; size = 4
__$EHRec$ = -12						; size = 12
_p_pAddInEnvMap$ = 8					; size = 4
_nRowCount$ = 12					; size = 4
_nColumnCount$ = 16					; size = 4
_nRowDoubleSizeBlock$ = 20				; size = 4
_nColumnDoubleSizeBlock$ = 24				; size = 4
_nOnePageDataCount$ = 28				; size = 4
_nBongCountMargin$ = 32					; size = 4
_strChartList$ = 36					; size = 4
_strBlockRegion$ = 40					; size = 4
_bWholeView$ = 44					; size = 4
_nNumericalInquiryOption$ = 48				; size = 4
_nYScalePosition$ = 52					; size = 4
_nUseInquiryWithCrossline$ = 56				; size = 4
_bToolTipwithZoomIn$ = 60				; size = 4
_bUseConditiontoTitle$ = 64				; size = 4
_bUseDatatoTitle$ = 68					; size = 4
_nVertGap$ = 72						; size = 4
_nHorzGap$ = 76						; size = 4
_bShowMinMaxbyPrice$ = 80				; size = 4
_bAllGraphTitleHiding$ = 84				; size = 4
_bShowTrendLineText$ = 88				; size = 4
_bShowVerticalText$ = 92				; size = 4
_bShowHorizonTextLeft$ = 96				; size = 4
_bShowHorizonTextRight$ = 100				; size = 4
_bShowThreeText$ = 104					; size = 4
_bShowFourText$ = 108					; size = 4
_bShowFiboText$ = 112					; size = 4
_clrBackground$ = 116					; size = 4
_clrBackBorder$ = 120					; size = 4
_clrBlock$ = 124					; size = 4
_clrBlockBorder$ = 128					; size = 4
_clrScaleLine$ = 132					; size = 4
_clrScaleLine2$ = 136					; size = 4
_clrScaleText$ = 140					; size = 4
_clrAnalysisTool$ = 144					; size = 4
_clrInquiryWindow$ = 148				; size = 4
_clrLattice$ = 152					; size = 4
_p_bShowPriceMinMaxText$ = 156				; size = 4
_p_szMapIndicatorInfo$ = 160				; size = 4
_bDrawBaseLine$ = 164					; size = 4
_p_nVertScaleType$ = 168				; size = 4
_p_nRightMargin$ = 172					; size = 4
_p_nFutureTimeCount$ = 176				; size = 4
_p_nMouseWheelIndex$ = 180				; size = 4
$T3 = 184						; size = 4
_p_nMinMaxRatio$ = 184					; size = 4
?AddChartCfg@CSaveChartCfgList@@QAE_NPAVCPropertyMap@@HHHHHHABV?$CStringT@DV?$StrTraitMFC_DLL@DV?$ChTraitsCRT@D@ATL@@@@@ATL@@1HHHHHHHHHHHHHHHHHHKKKKKKKKKKHPBDHHJJHH@Z PROC ; CSaveChartCfgList::AddChartCfg, COMDAT
; _this$ = ecx

; 63   : {

  00000	55		 push	 ebp
  00001	8b ec		 mov	 ebp, esp
  00003	6a ff		 push	 -1
  00005	68 00 00 00 00	 push	 __ehhandler$?AddChartCfg@CSaveChartCfgList@@QAE_NPAVCPropertyMap@@HHHHHHABV?$CStringT@DV?$StrTraitMFC_DLL@DV?$ChTraitsCRT@D@ATL@@@@@ATL@@1HHHHHHHHHHHHHHHHHHKKKKKKKKKKHPBDHHJJHH@Z
  0000a	64 a1 00 00 00
	00		 mov	 eax, DWORD PTR fs:0
  00010	50		 push	 eax
  00011	51		 push	 ecx
  00012	56		 push	 esi
  00013	57		 push	 edi
  00014	a1 00 00 00 00	 mov	 eax, DWORD PTR ___security_cookie
  00019	33 c5		 xor	 eax, ebp
  0001b	50		 push	 eax
  0001c	8d 45 f4	 lea	 eax, DWORD PTR __$EHRec$[ebp]
  0001f	64 a3 00 00 00
	00		 mov	 DWORD PTR fs:0, eax
  00025	8b f9		 mov	 edi, ecx
; File C:\Program Files (x86)\Microsoft Visual Studio\2019\Community\VC\Tools\MSVC\14.29.30133\atlmfc\include\afx.inl

; 116  : 	{ return ::operator new(nSize); }

  00027	68 98 00 00 00	 push	 152			; 00000098H
  0002c	e8 00 00 00 00	 call	 ??2@YAPAXI@Z		; operator new
; File D:\git\src\IBK\IBK_DRFN\ProjSrc\SrcChartEx\ChartOCX\KTBChart\SaveChartCfgList.cpp

; 64   : 	CChartCfg * pChart = new CChartCfg(	p_pAddInEnvMap,

  00031	8b f0		 mov	 esi, eax
; File C:\Program Files (x86)\Microsoft Visual Studio\2019\Community\VC\Tools\MSVC\14.29.30133\atlmfc\include\afx.inl

; 116  : 	{ return ::operator new(nSize); }

  00033	83 c4 04	 add	 esp, 4
; File D:\git\src\IBK\IBK_DRFN\ProjSrc\SrcChartEx\ChartOCX\KTBChart\SaveChartCfgList.cpp

; 64   : 	CChartCfg * pChart = new CChartCfg(	p_pAddInEnvMap,

  00036	89 75 f0	 mov	 DWORD PTR $T2[ebp], esi
  00039	c7 45 fc 00 00
	00 00		 mov	 DWORD PTR __$EHRec$[ebp+8], 0
  00040	85 f6		 test	 esi, esi
  00042	0f 84 45 01 00
	00		 je	 $LN3@AddChartCf
  00048	ff b5 b8 00 00
	00		 push	 DWORD PTR _p_nMinMaxRatio$[ebp]
  0004e	83 7d 70 01	 cmp	 DWORD PTR _bShowFiboText$[ebp], 1
  00052	ff b5 b4 00 00
	00		 push	 DWORD PTR _p_nMouseWheelIndex$[ebp]
  00058	0f 94 c0	 sete	 al
  0005b	83 7d 6c 01	 cmp	 DWORD PTR _bShowFourText$[ebp], 1
  0005f	ff b5 b0 00 00
	00		 push	 DWORD PTR _p_nFutureTimeCount$[ebp]
  00065	0f b6 c0	 movzx	 eax, al
  00068	ff b5 ac 00 00
	00		 push	 DWORD PTR _p_nRightMargin$[ebp]
  0006e	ff b5 a8 00 00
	00		 push	 DWORD PTR _p_nVertScaleType$[ebp]
  00074	ff b5 a4 00 00
	00		 push	 DWORD PTR _bDrawBaseLine$[ebp]
  0007a	ff b5 a0 00 00
	00		 push	 DWORD PTR _p_szMapIndicatorInfo$[ebp]
  00080	ff b5 9c 00 00
	00		 push	 DWORD PTR _p_bShowPriceMinMaxText$[ebp]
  00086	ff b5 98 00 00
	00		 push	 DWORD PTR _clrLattice$[ebp]
  0008c	ff b5 94 00 00
	00		 push	 DWORD PTR _clrInquiryWindow$[ebp]
  00092	ff b5 90 00 00
	00		 push	 DWORD PTR _clrAnalysisTool$[ebp]
  00098	ff b5 8c 00 00
	00		 push	 DWORD PTR _clrScaleText$[ebp]
  0009e	ff b5 88 00 00
	00		 push	 DWORD PTR _clrScaleLine2$[ebp]
  000a4	ff b5 84 00 00
	00		 push	 DWORD PTR _clrScaleLine$[ebp]
  000aa	ff b5 80 00 00
	00		 push	 DWORD PTR _clrBlockBorder$[ebp]
  000b0	ff 75 7c	 push	 DWORD PTR _clrBlock$[ebp]
  000b3	ff 75 78	 push	 DWORD PTR _clrBackBorder$[ebp]
  000b6	ff 75 74	 push	 DWORD PTR _clrBackground$[ebp]
  000b9	50		 push	 eax
  000ba	0f 94 c0	 sete	 al
  000bd	83 7d 68 01	 cmp	 DWORD PTR _bShowThreeText$[ebp], 1
  000c1	0f b6 c0	 movzx	 eax, al
  000c4	50		 push	 eax
  000c5	0f 94 c0	 sete	 al
  000c8	83 7d 64 01	 cmp	 DWORD PTR _bShowHorizonTextRight$[ebp], 1
  000cc	0f b6 c0	 movzx	 eax, al
  000cf	50		 push	 eax
  000d0	0f 94 c0	 sete	 al
  000d3	83 7d 60 01	 cmp	 DWORD PTR _bShowHorizonTextLeft$[ebp], 1
  000d7	0f b6 c0	 movzx	 eax, al
  000da	50		 push	 eax
  000db	0f 94 c0	 sete	 al
  000de	83 7d 5c 01	 cmp	 DWORD PTR _bShowVerticalText$[ebp], 1
  000e2	0f b6 c0	 movzx	 eax, al
  000e5	50		 push	 eax
  000e6	0f 94 c0	 sete	 al
  000e9	83 7d 58 01	 cmp	 DWORD PTR _bShowTrendLineText$[ebp], 1
  000ed	0f b6 c0	 movzx	 eax, al
  000f0	50		 push	 eax
  000f1	0f 94 c0	 sete	 al
  000f4	83 7d 54 01	 cmp	 DWORD PTR _bAllGraphTitleHiding$[ebp], 1
  000f8	0f b6 c0	 movzx	 eax, al
  000fb	50		 push	 eax
  000fc	0f 94 c0	 sete	 al
  000ff	83 7d 50 01	 cmp	 DWORD PTR _bShowMinMaxbyPrice$[ebp], 1
  00103	0f b6 c0	 movzx	 eax, al
  00106	50		 push	 eax
  00107	0f 94 c0	 sete	 al
  0010a	83 7d 44 01	 cmp	 DWORD PTR _bUseDatatoTitle$[ebp], 1
  0010e	0f b6 c0	 movzx	 eax, al
  00111	50		 push	 eax
  00112	ff 75 4c	 push	 DWORD PTR _nHorzGap$[ebp]
  00115	0f 94 c0	 sete	 al
  00118	83 7d 40 01	 cmp	 DWORD PTR _bUseConditiontoTitle$[ebp], 1
  0011c	ff 75 48	 push	 DWORD PTR _nVertGap$[ebp]
  0011f	0f b6 c0	 movzx	 eax, al
  00122	50		 push	 eax
  00123	0f 94 c0	 sete	 al
  00126	83 7d 3c 01	 cmp	 DWORD PTR _bToolTipwithZoomIn$[ebp], 1
  0012a	0f b6 c0	 movzx	 eax, al
  0012d	50		 push	 eax
  0012e	0f 94 c0	 sete	 al
  00131	83 7d 2c 01	 cmp	 DWORD PTR _bWholeView$[ebp], 1
  00135	0f b6 c0	 movzx	 eax, al
  00138	50		 push	 eax
  00139	ff 75 38	 push	 DWORD PTR _nUseInquiryWithCrossline$[ebp]
  0013c	0f 94 c0	 sete	 al
  0013f	ff 75 34	 push	 DWORD PTR _nYScalePosition$[ebp]
  00142	0f b6 c0	 movzx	 eax, al
  00145	ff 75 30	 push	 DWORD PTR _nNumericalInquiryOption$[ebp]
  00148	50		 push	 eax
  00149	51		 push	 ecx
  0014a	8b cc		 mov	 ecx, esp
  0014c	89 a5 b8 00 00
	00		 mov	 DWORD PTR $T3[ebp], esp
  00152	ff 75 28	 push	 DWORD PTR _strBlockRegion$[ebp]
  00155	ff 15 00 00 00
	00		 call	 DWORD PTR __imp_??0?$CStringT@DV?$StrTraitMFC_DLL@DV?$ChTraitsCRT@D@ATL@@@@@ATL@@QAE@ABV01@@Z
  0015b	51		 push	 ecx
  0015c	8b cc		 mov	 ecx, esp
  0015e	c6 45 fc 01	 mov	 BYTE PTR __$EHRec$[ebp+8], 1
  00162	ff 75 24	 push	 DWORD PTR _strChartList$[ebp]
  00165	ff 15 00 00 00
	00		 call	 DWORD PTR __imp_??0?$CStringT@DV?$StrTraitMFC_DLL@DV?$ChTraitsCRT@D@ATL@@@@@ATL@@QAE@ABV01@@Z
  0016b	ff 75 20	 push	 DWORD PTR _nBongCountMargin$[ebp]
  0016e	8b ce		 mov	 ecx, esi
  00170	c6 45 fc 00	 mov	 BYTE PTR __$EHRec$[ebp+8], 0
  00174	ff 75 1c	 push	 DWORD PTR _nOnePageDataCount$[ebp]
  00177	ff 75 18	 push	 DWORD PTR _nColumnDoubleSizeBlock$[ebp]
  0017a	ff 75 14	 push	 DWORD PTR _nRowDoubleSizeBlock$[ebp]
  0017d	ff 75 10	 push	 DWORD PTR _nColumnCount$[ebp]
  00180	ff 75 0c	 push	 DWORD PTR _nRowCount$[ebp]
  00183	ff 75 08	 push	 DWORD PTR _p_pAddInEnvMap$[ebp]
  00186	e8 00 00 00 00	 call	 ??0CChartCfg@@QAE@PAVCPropertyMap@@HHHHHHV?$CStringT@DV?$StrTraitMFC_DLL@DV?$ChTraitsCRT@D@ATL@@@@@ATL@@1_NHHH222HH222222222KKKKKKKKKKHPBDHHJJHH@Z ; CChartCfg::CChartCfg
  0018b	eb 02		 jmp	 SHORT $LN4@AddChartCf
$LN3@AddChartCf:
  0018d	33 c0		 xor	 eax, eax
$LN4@AddChartCf:
; File C:\Program Files (x86)\Microsoft Visual Studio\2019\Community\VC\Tools\MSVC\14.29.30133\atlmfc\include\afxtempl.h

; 1959 : 		{ return BASE_CLASS::AddTail(newElement); }

  0018f	50		 push	 eax
; File D:\git\src\IBK\IBK_DRFN\ProjSrc\SrcChartEx\ChartOCX\KTBChart\SaveChartCfgList.cpp

; 94   : 	m_lstChartCfg.AddTail(pChart);

  00190	8d 4f 04	 lea	 ecx, DWORD PTR [edi+4]
  00193	c7 45 fc ff ff
	ff ff		 mov	 DWORD PTR __$EHRec$[ebp+8], -1
; File C:\Program Files (x86)\Microsoft Visual Studio\2019\Community\VC\Tools\MSVC\14.29.30133\atlmfc\include\afxtempl.h

; 1959 : 		{ return BASE_CLASS::AddTail(newElement); }

  0019a	e8 00 00 00 00	 call	 ?AddTail@CObList@@QAEPAU__POSITION@@PAVCObject@@@Z ; CObList::AddTail
; File D:\git\src\IBK\IBK_DRFN\ProjSrc\SrcChartEx\ChartOCX\KTBChart\SaveChartCfgList.cpp

; 95   : 	return true;

  0019f	b0 01		 mov	 al, 1

; 96   : }

  001a1	8b 4d f4	 mov	 ecx, DWORD PTR __$EHRec$[ebp]
  001a4	64 89 0d 00 00
	00 00		 mov	 DWORD PTR fs:0, ecx
  001ab	59		 pop	 ecx
  001ac	5f		 pop	 edi
  001ad	5e		 pop	 esi
  001ae	8b e5		 mov	 esp, ebp
  001b0	5d		 pop	 ebp
  001b1	c2 b4 00	 ret	 180			; 000000b4H
_TEXT	ENDS
;	COMDAT text$x
text$x	SEGMENT
__unwindfunclet$?AddChartCfg@CSaveChartCfgList@@QAE_NPAVCPropertyMap@@HHHHHHABV?$CStringT@DV?$StrTraitMFC_DLL@DV?$ChTraitsCRT@D@ATL@@@@@ATL@@1HHHHHHHHHHHHHHHHHHKKKKKKKKKKHPBDHHJJHH@Z$0:
  00000	8b 45 f0	 mov	 eax, DWORD PTR $T2[ebp]
  00003	50		 push	 eax
  00004	e8 00 00 00 00	 call	 ??3CObject@@SGXPAX@Z	; CObject::operator delete
  00009	c3		 ret	 0
__unwindfunclet$?AddChartCfg@CSaveChartCfgList@@QAE_NPAVCPropertyMap@@HHHHHHABV?$CStringT@DV?$StrTraitMFC_DLL@DV?$ChTraitsCRT@D@ATL@@@@@ATL@@1HHHHHHHHHHHHHHHHHHKKKKKKKKKKHPBDHHJJHH@Z$1:
  0000a	8b 8d b8 00 00
	00		 mov	 ecx, DWORD PTR $T3[ebp]
  00010	ff 25 00 00 00
	00		 jmp	 DWORD PTR __imp_??1?$CStringT@DV?$StrTraitMFC_DLL@DV?$ChTraitsCRT@D@ATL@@@@@ATL@@QAE@XZ
  00016	cc		 int	 3
  00017	cc		 int	 3
  00018	cc		 int	 3
  00019	cc		 int	 3
  0001a	cc		 int	 3
__ehhandler$?AddChartCfg@CSaveChartCfgList@@QAE_NPAVCPropertyMap@@HHHHHHABV?$CStringT@DV?$StrTraitMFC_DLL@DV?$ChTraitsCRT@D@ATL@@@@@ATL@@1HHHHHHHHHHHHHHHHHHKKKKKKKKKKHPBDHHJJHH@Z:
  0001b	90		 npad	 1
  0001c	90		 npad	 1
  0001d	8b 54 24 08	 mov	 edx, DWORD PTR [esp+8]
  00021	8d 42 0c	 lea	 eax, DWORD PTR [edx+12]
  00024	8b 4a f0	 mov	 ecx, DWORD PTR [edx-16]
  00027	33 c8		 xor	 ecx, eax
  00029	e8 00 00 00 00	 call	 @__security_check_cookie@4
  0002e	b8 00 00 00 00	 mov	 eax, OFFSET __ehfuncinfo$?AddChartCfg@CSaveChartCfgList@@QAE_NPAVCPropertyMap@@HHHHHHABV?$CStringT@DV?$StrTraitMFC_DLL@DV?$ChTraitsCRT@D@ATL@@@@@ATL@@1HHHHHHHHHHHHHHHHHHKKKKKKKKKKHPBDHHJJHH@Z
  00033	e9 00 00 00 00	 jmp	 ___CxxFrameHandler3
text$x	ENDS
?AddChartCfg@CSaveChartCfgList@@QAE_NPAVCPropertyMap@@HHHHHHABV?$CStringT@DV?$StrTraitMFC_DLL@DV?$ChTraitsCRT@D@ATL@@@@@ATL@@1HHHHHHHHHHHHHHHHHHKKKKKKKKKKHPBDHHJJHH@Z ENDP ; CSaveChartCfgList::AddChartCfg
; Function compile flags: /Ogtp
; File D:\git\src\IBK\IBK_DRFN\ProjSrc\SrcChartEx\ChartOCX\KTBChart\SaveChartCfgList.cpp
; File C:\Program Files (x86)\Microsoft Visual Studio\2019\Community\VC\Tools\MSVC\14.29.30133\atlmfc\include\afxcoll.inl
; File D:\git\src\IBK\IBK_DRFN\ProjSrc\SrcChartEx\ChartOCX\KTBChart\SaveChartCfgList.cpp
;	COMDAT ??1CSaveChartCfgList@@UAE@XZ
_TEXT	SEGMENT
__$EHRec$ = -12						; size = 12
??1CSaveChartCfgList@@UAE@XZ PROC			; CSaveChartCfgList::~CSaveChartCfgList, COMDAT
; _this$ = ecx

; 26   : {

  00000	55		 push	 ebp
  00001	8b ec		 mov	 ebp, esp
  00003	6a ff		 push	 -1
  00005	68 00 00 00 00	 push	 __ehhandler$??1CSaveChartCfgList@@UAE@XZ
  0000a	64 a1 00 00 00
	00		 mov	 eax, DWORD PTR fs:0
  00010	50		 push	 eax
  00011	56		 push	 esi
  00012	57		 push	 edi
  00013	a1 00 00 00 00	 mov	 eax, DWORD PTR ___security_cookie
  00018	33 c5		 xor	 eax, ebp
  0001a	50		 push	 eax
  0001b	8d 45 f4	 lea	 eax, DWORD PTR __$EHRec$[ebp]
  0001e	64 a3 00 00 00
	00		 mov	 DWORD PTR fs:0, eax
  00024	8b f9		 mov	 edi, ecx

; 100  : 	POSITION pos = m_lstChartCfg.GetHeadPosition();

  00026	8b 77 08	 mov	 esi, DWORD PTR [edi+8]

; 26   : {

  00029	c7 07 00 00 00
	00		 mov	 DWORD PTR [edi], OFFSET ??_7CSaveChartCfgList@@6B@

; 101  : 	while(pos)	{

  0002f	85 f6		 test	 esi, esi
  00031	74 14		 je	 SHORT $LN5@CSaveChart
$LL4@CSaveChart:

; 102  : 		CChartCfg * pChart = m_lstChartCfg.GetNext(pos);

  00033	8b 4e 08	 mov	 ecx, DWORD PTR [esi+8]
; File C:\Program Files (x86)\Microsoft Visual Studio\2019\Community\VC\Tools\MSVC\14.29.30133\atlmfc\include\afxcoll.inl

; 432  : 		rPosition = (POSITION) pNode->pNext;

  00036	8b 36		 mov	 esi, DWORD PTR [esi]
; File D:\git\src\IBK\IBK_DRFN\ProjSrc\SrcChartEx\ChartOCX\KTBChart\SaveChartCfgList.cpp

; 103  : 		if(pChart)

  00038	85 c9		 test	 ecx, ecx
  0003a	74 07		 je	 SHORT $LN8@CSaveChart

; 104  : 			delete pChart;

  0003c	8b 01		 mov	 eax, DWORD PTR [ecx]
  0003e	6a 01		 push	 1
  00040	ff 50 04	 call	 DWORD PTR [eax+4]
$LN8@CSaveChart:

; 101  : 	while(pos)	{

  00043	85 f6		 test	 esi, esi
  00045	75 ec		 jne	 SHORT $LL4@CSaveChart
$LN5@CSaveChart:

; 105  : 		pChart = NULL;
; 106  : 	}
; 107  : 	m_lstChartCfg.RemoveAll();

  00047	8d 4f 04	 lea	 ecx, DWORD PTR [edi+4]
  0004a	e8 00 00 00 00	 call	 ?RemoveAll@CObList@@QAEXXZ ; CObList::RemoveAll
  0004f	8d 4f 04	 lea	 ecx, DWORD PTR [edi+4]
  00052	e8 00 00 00 00	 call	 ??1CObList@@UAE@XZ	; CObList::~CObList

; 27   : 	RemoveAll();
; 28   : }

  00057	8b 4d f4	 mov	 ecx, DWORD PTR __$EHRec$[ebp]
  0005a	64 89 0d 00 00
	00 00		 mov	 DWORD PTR fs:0, ecx
  00061	59		 pop	 ecx
  00062	5f		 pop	 edi
  00063	5e		 pop	 esi
  00064	8b e5		 mov	 esp, ebp
  00066	5d		 pop	 ebp
  00067	c3		 ret	 0
  00068	cc		 int	 3
  00069	cc		 int	 3
  0006a	cc		 int	 3
  0006b	cc		 int	 3
  0006c	cc		 int	 3
_TEXT	ENDS
;	COMDAT text$x
text$x	SEGMENT
__ehhandler$??1CSaveChartCfgList@@UAE@XZ:
  00000	90		 npad	 1
  00001	90		 npad	 1
  00002	8b 54 24 08	 mov	 edx, DWORD PTR [esp+8]
  00006	8d 42 0c	 lea	 eax, DWORD PTR [edx+12]
  00009	8b 4a f4	 mov	 ecx, DWORD PTR [edx-12]
  0000c	33 c8		 xor	 ecx, eax
  0000e	e8 00 00 00 00	 call	 @__security_check_cookie@4
  00013	b8 00 00 00 00	 mov	 eax, OFFSET __ehfuncinfo$??1CSaveChartCfgList@@UAE@XZ
  00018	e9 00 00 00 00	 jmp	 ___CxxFrameHandler3
text$x	ENDS
??1CSaveChartCfgList@@UAE@XZ ENDP			; CSaveChartCfgList::~CSaveChartCfgList
; Function compile flags: /Ogtp
; File D:\git\src\IBK\IBK_DRFN\ProjSrc\SrcChartEx\ChartOCX\KTBChart\SaveChartCfgList.cpp
; File C:\Program Files (x86)\Microsoft Visual Studio\2019\Community\VC\Tools\MSVC\14.29.30133\atlmfc\include\afxtempl.h
; File D:\git\src\IBK\IBK_DRFN\ProjSrc\SrcChartEx\ChartOCX\KTBChart\SaveChartCfgList.cpp
; File C:\Program Files (x86)\Microsoft Visual Studio\2019\Community\VC\Tools\MSVC\14.29.30133\atlmfc\include\afxtempl.h
; File D:\git\src\IBK\IBK_DRFN\ProjSrc\SrcChartEx\ChartOCX\KTBChart\SaveChartCfgList.cpp
; File C:\Program Files (x86)\Microsoft Visual Studio\2019\Community\VC\Tools\MSVC\14.29.30133\atlmfc\include\afxtempl.h
; File D:\git\src\IBK\IBK_DRFN\ProjSrc\SrcChartEx\ChartOCX\KTBChart\SaveChartCfgList.cpp
; File C:\Program Files (x86)\Microsoft Visual Studio\2019\Community\VC\Tools\MSVC\14.29.30133\atlmfc\include\afxtempl.h
; File D:\git\src\IBK\IBK_DRFN\ProjSrc\SrcChartEx\ChartOCX\KTBChart\SaveChartCfgList.cpp
;	COMDAT ??0CSaveChartCfgList@@QAE@XZ
_TEXT	SEGMENT
_this$ = -4						; size = 4
_this$ = -4						; size = 4
??0CSaveChartCfgList@@QAE@XZ PROC			; CSaveChartCfgList::CSaveChartCfgList, COMDAT
; _this$ = ecx

; 21   : {

  00000	55		 push	 ebp
  00001	8b ec		 mov	 ebp, esp
  00003	51		 push	 ecx
  00004	56		 push	 esi
  00005	57		 push	 edi
  00006	8b f9		 mov	 edi, ecx
  00008	89 7d fc	 mov	 DWORD PTR _this$[ebp], edi
; File C:\Program Files (x86)\Microsoft Visual Studio\2019\Community\VC\Tools\MSVC\14.29.30133\atlmfc\include\afxtempl.h

; 1876 : 		: BASE_CLASS(nBlockSize) { }

  0000b	6a 0a		 push	 10			; 0000000aH
; File D:\git\src\IBK\IBK_DRFN\ProjSrc\SrcChartEx\ChartOCX\KTBChart\SaveChartCfgList.cpp

; 21   : {

  0000d	8d 77 04	 lea	 esi, DWORD PTR [edi+4]
  00010	c7 07 00 00 00
	00		 mov	 DWORD PTR [edi], OFFSET ??_7CSaveChartCfgList@@6B@
; File C:\Program Files (x86)\Microsoft Visual Studio\2019\Community\VC\Tools\MSVC\14.29.30133\atlmfc\include\afxtempl.h

; 1876 : 		: BASE_CLASS(nBlockSize) { }

  00016	8b ce		 mov	 ecx, esi
; File D:\git\src\IBK\IBK_DRFN\ProjSrc\SrcChartEx\ChartOCX\KTBChart\SaveChartCfgList.cpp

; 21   : {

  00018	89 75 fc	 mov	 DWORD PTR _this$[ebp], esi
; File C:\Program Files (x86)\Microsoft Visual Studio\2019\Community\VC\Tools\MSVC\14.29.30133\atlmfc\include\afxtempl.h

; 1876 : 		: BASE_CLASS(nBlockSize) { }

  0001b	e8 00 00 00 00	 call	 ??0CObList@@QAE@H@Z	; CObList::CObList
; File D:\git\src\IBK\IBK_DRFN\ProjSrc\SrcChartEx\ChartOCX\KTBChart\SaveChartCfgList.cpp

; 23   : }

  00020	8b c7		 mov	 eax, edi
; File C:\Program Files (x86)\Microsoft Visual Studio\2019\Community\VC\Tools\MSVC\14.29.30133\atlmfc\include\afxtempl.h

; 1953 : 		: _CTypedPtrList<BASE_CLASS, TYPE>(nBlockSize) { }

  00022	c7 06 00 00 00
	00		 mov	 DWORD PTR [esi], OFFSET ??_7?$CTypedPtrList@VCObList@@PAVCChartCfg@@@@6B@
; File D:\git\src\IBK\IBK_DRFN\ProjSrc\SrcChartEx\ChartOCX\KTBChart\SaveChartCfgList.cpp

; 23   : }

  00028	5f		 pop	 edi
  00029	5e		 pop	 esi
  0002a	8b e5		 mov	 esp, ebp
  0002c	5d		 pop	 ebp
  0002d	c3		 ret	 0
??0CSaveChartCfgList@@QAE@XZ ENDP			; CSaveChartCfgList::CSaveChartCfgList
_TEXT	ENDS
; Function compile flags: /Ogtp
; File C:\Program Files (x86)\Microsoft Visual Studio\2019\Community\VC\Tools\MSVC\14.29.30133\atlmfc\include\afx.inl
;	COMDAT ?Dump@CObject@@UBEXAAVCDumpContext@@@Z
_TEXT	SEGMENT
___formal$ = 8						; size = 4
?Dump@CObject@@UBEXAAVCDumpContext@@@Z PROC		; CObject::Dump, COMDAT
; _this$ = ecx

; 122  : 	{ /* no dumping in release builds */ }

  00000	c2 04 00	 ret	 4
?Dump@CObject@@UBEXAAVCDumpContext@@@Z ENDP		; CObject::Dump
_TEXT	ENDS
; Function compile flags: /Ogtp
; File C:\Program Files (x86)\Microsoft Visual Studio\2019\Community\VC\Tools\MSVC\14.29.30133\atlmfc\include\afx.inl
;	COMDAT ?AssertValid@CObject@@UBEXXZ
_TEXT	SEGMENT
?AssertValid@CObject@@UBEXXZ PROC			; CObject::AssertValid, COMDAT
; _this$ = ecx

; 120  : 	{ /* no asserts in release builds */ }

  00000	c2 00 00	 ret	 0
?AssertValid@CObject@@UBEXXZ ENDP			; CObject::AssertValid
_TEXT	ENDS
; Function compile flags: /Ogtp
; File C:\Program Files (x86)\Microsoft Visual Studio\2019\Community\VC\Tools\MSVC\14.29.30133\atlmfc\include\afx.inl
;	COMDAT ??3CObject@@SGXPAX@Z
_TEXT	SEGMENT
_p$ = 8							; size = 4
??3CObject@@SGXPAX@Z PROC				; CObject::operator delete, COMDAT

; 112  : 	{ ::operator delete(p); }

  00000	55		 push	 ebp
  00001	8b ec		 mov	 ebp, esp
  00003	ff 75 08	 push	 DWORD PTR _p$[ebp]
  00006	e8 00 00 00 00	 call	 ??3@YAXPAX@Z		; operator delete
  0000b	83 c4 04	 add	 esp, 4
  0000e	5d		 pop	 ebp
  0000f	c2 04 00	 ret	 4
??3CObject@@SGXPAX@Z ENDP				; CObject::operator delete
_TEXT	ENDS
; Function compile flags: /Ogtp
; File D:\git\src\IBK\IBK_DRFN\ProjSrc\SrcChartEx\ChartOCX\KTBChart\SaveChartCfgList.cpp
;	COMDAT ?__empty_global_delete@@YAXPAXI@Z
_TEXT	SEGMENT
___formal$ = 8						; size = 4
___formal$ = 12						; size = 4
?__empty_global_delete@@YAXPAXI@Z PROC			; __empty_global_delete, COMDAT

  00000	c2 00 00	 ret	 0
?__empty_global_delete@@YAXPAXI@Z ENDP			; __empty_global_delete
_TEXT	ENDS
; Function compile flags: /Ogtp
; File D:\git\src\IBK\IBK_DRFN\ProjSrc\SrcChartEx\ChartOCX\KTBChart\SaveChartCfgList.cpp
;	COMDAT ?__empty_global_delete@@YAXPAX@Z
_TEXT	SEGMENT
___formal$ = 8						; size = 4
?__empty_global_delete@@YAXPAX@Z PROC			; __empty_global_delete, COMDAT

  00000	c2 00 00	 ret	 0
?__empty_global_delete@@YAXPAX@Z ENDP			; __empty_global_delete
_TEXT	ENDS
END
