; Listing generated by Microsoft (R) Optimizing Compiler Version 19.29.30145.0 

	TITLE	D:\git\src\IBK\IBK_DRFN\#DRfn-CS\_Obj\KTBChart\ToolOption.obj
	.686P
	.XMM
	include listing.inc
	.model	flat

INCLUDELIB MSVCRT
INCLUDELIB OLDNAMES

PUBLIC	?__empty_global_delete@@YAXPAX@Z		; __empty_global_delete
PUBLIC	?__empty_global_delete@@YAXPAXI@Z		; __empty_global_delete
PUBLIC	??3CObject@@SGXPAX@Z				; CObject::operator delete
PUBLIC	?AssertValid@CObject@@UBEXXZ			; CObject::AssertValid
PUBLIC	?Dump@CObject@@UBEXAAVCDumpContext@@@Z		; CObject::Dump
PUBLIC	?SetTool@CToolOption@@QAEXW4OPTION@CToolOptionInfo@@W4TOOLOPTION@3@V?$CStringT@DV?$StrTraitMFC_DLL@DV?$ChTraitsCRT@D@ATL@@@@@ATL@@2H@Z ; CToolOption::SetTool
PUBLIC	?GetTool@CToolOption@@QAEPAVCObjTool@@W4TOOLOPTION@CToolOptionInfo@@@Z ; CToolOption::GetTool
PUBLIC	?GetTool@CToolOption@@QAEPAVCObjTool@@W4OPTION@CToolOptionInfo@@W4TOOLOPTION@4@@Z ; CToolOption::GetTool
PUBLIC	?UseTool@CToolOption@@QAEHW4OPTION@CToolOptionInfo@@W4TOOLOPTION@3@@Z ; CToolOption::UseTool
PUBLIC	?UseTool@CToolOption@@QAEHW4OPTION@CToolOptionInfo@@ABV?$CStringT@DV?$StrTraitMFC_DLL@DV?$ChTraitsCRT@D@ATL@@@@@ATL@@@Z ; CToolOption::UseTool
PUBLIC	?GetToolOptionList@CToolOption@@QAEPAV?$CTypedPtrList@VCObList@@PAVCObjTool@@@@W4OPTION@CToolOptionInfo@@@Z ; CToolOption::GetToolOptionList
PUBLIC	?Reset@CToolOption@@QAEXV?$CStringT@DV?$StrTraitMFC_DLL@DV?$ChTraitsCRT@D@ATL@@@@@ATL@@@Z ; CToolOption::Reset
PUBLIC	??0CToolOption@@QAE@V?$CStringT@DV?$StrTraitMFC_DLL@DV?$ChTraitsCRT@D@ATL@@@@@ATL@@@Z ; CToolOption::CToolOption
PUBLIC	??1CToolOption@@UAE@XZ				; CToolOption::~CToolOption
PUBLIC	?DeleteTool@CToolOption@@AAEHPAV?$CTypedPtrList@VCObList@@PAVCObjTool@@@@W4TOOLOPTION@CToolOptionInfo@@@Z ; CToolOption::DeleteTool
PUBLIC	?SetAll@CToolOption@@AAEXABV?$CStringT@DV?$StrTraitMFC_DLL@DV?$ChTraitsCRT@D@ATL@@@@@ATL@@@Z ; CToolOption::SetAll
PUBLIC	?DeleteAll@CToolOption@@AAEXXZ			; CToolOption::DeleteAll
PUBLIC	?SetListToolOption@CToolOption@@AAEXPAV?$CTypedPtrList@VCObList@@PAVCObjTool@@@@ABV?$CStringT@DV?$StrTraitMFC_DLL@DV?$ChTraitsCRT@D@ATL@@@@@ATL@@@Z ; CToolOption::SetListToolOption
PUBLIC	??_G?$_CTypedPtrList@VCObList@@PAVCObjTool@@@@UAEPAXI@Z ; _CTypedPtrList<CObList,CObjTool *>::`scalar deleting destructor'
PUBLIC	??1?$CTypedPtrList@VCObList@@PAVCObjTool@@@@UAE@XZ ; CTypedPtrList<CObList,CObjTool *>::~CTypedPtrList<CObList,CObjTool *>
PUBLIC	??_G?$CTypedPtrList@VCObList@@PAVCObjTool@@@@UAEPAXI@Z ; CTypedPtrList<CObList,CObjTool *>::`scalar deleting destructor'
PUBLIC	??_GCToolOption@@UAEPAXI@Z			; CToolOption::`scalar deleting destructor'
PUBLIC	??_R0?AVCObject@@@8				; CObject `RTTI Type Descriptor'
PUBLIC	??_R3CObject@@8					; CObject::`RTTI Class Hierarchy Descriptor'
PUBLIC	??_R2CObject@@8					; CObject::`RTTI Base Class Array'
PUBLIC	??_R1A@?0A@EA@CObject@@8			; CObject::`RTTI Base Class Descriptor at (0,-1,0,64)'
PUBLIC	??_R1A@?0A@EA@CObList@@8			; CObList::`RTTI Base Class Descriptor at (0,-1,0,64)'
PUBLIC	??_R0?AVCObList@@@8				; CObList `RTTI Type Descriptor'
PUBLIC	??_R3CObList@@8					; CObList::`RTTI Class Hierarchy Descriptor'
PUBLIC	??_R2CObList@@8					; CObList::`RTTI Base Class Array'
PUBLIC	??_7?$_CTypedPtrList@VCObList@@PAVCObjTool@@@@6B@ ; _CTypedPtrList<CObList,CObjTool *>::`vftable'
PUBLIC	??_7?$CTypedPtrList@VCObList@@PAVCObjTool@@@@6B@ ; CTypedPtrList<CObList,CObjTool *>::`vftable'
PUBLIC	??_7CToolOption@@6B@				; CToolOption::`vftable'
PUBLIC	??_C@_02PCIJFNDE@?$AN?6@			; `string'
PUBLIC	??_C@_01ICJEACDI@?$DL@				; `string'
PUBLIC	??_C@_07FFFPJHPP@RButton@			; `string'
PUBLIC	??_C@_09PHINFBD@RButton?$AN?6@			; `string'
PUBLIC	??_R4CToolOption@@6B@				; CToolOption::`RTTI Complete Object Locator'
PUBLIC	??_R0?AVCToolOption@@@8				; CToolOption `RTTI Type Descriptor'
PUBLIC	??_R3CToolOption@@8				; CToolOption::`RTTI Class Hierarchy Descriptor'
PUBLIC	??_R2CToolOption@@8				; CToolOption::`RTTI Base Class Array'
PUBLIC	??_R1A@?0A@EA@CToolOption@@8			; CToolOption::`RTTI Base Class Descriptor at (0,-1,0,64)'
PUBLIC	??_R4?$CTypedPtrList@VCObList@@PAVCObjTool@@@@6B@ ; CTypedPtrList<CObList,CObjTool *>::`RTTI Complete Object Locator'
PUBLIC	??_R0?AV?$CTypedPtrList@VCObList@@PAVCObjTool@@@@@8 ; CTypedPtrList<CObList,CObjTool *> `RTTI Type Descriptor'
PUBLIC	??_R3?$CTypedPtrList@VCObList@@PAVCObjTool@@@@8	; CTypedPtrList<CObList,CObjTool *>::`RTTI Class Hierarchy Descriptor'
PUBLIC	??_R2?$CTypedPtrList@VCObList@@PAVCObjTool@@@@8	; CTypedPtrList<CObList,CObjTool *>::`RTTI Base Class Array'
PUBLIC	??_R1A@?0A@EA@?$CTypedPtrList@VCObList@@PAVCObjTool@@@@8 ; CTypedPtrList<CObList,CObjTool *>::`RTTI Base Class Descriptor at (0,-1,0,64)'
PUBLIC	??_R1A@?0A@EA@?$_CTypedPtrList@VCObList@@PAVCObjTool@@@@8 ; _CTypedPtrList<CObList,CObjTool *>::`RTTI Base Class Descriptor at (0,-1,0,64)'
PUBLIC	??_R0?AV?$_CTypedPtrList@VCObList@@PAVCObjTool@@@@@8 ; _CTypedPtrList<CObList,CObjTool *> `RTTI Type Descriptor'
PUBLIC	??_R3?$_CTypedPtrList@VCObList@@PAVCObjTool@@@@8 ; _CTypedPtrList<CObList,CObjTool *>::`RTTI Class Hierarchy Descriptor'
PUBLIC	??_R2?$_CTypedPtrList@VCObList@@PAVCObjTool@@@@8 ; _CTypedPtrList<CObList,CObjTool *>::`RTTI Base Class Array'
PUBLIC	??_R4?$_CTypedPtrList@VCObList@@PAVCObjTool@@@@6B@ ; _CTypedPtrList<CObList,CObjTool *>::`RTTI Complete Object Locator'
EXTRN	??2@YAPAXI@Z:PROC				; operator new
EXTRN	??3@YAXPAX@Z:PROC				; operator delete
EXTRN	??3@YAXPAXI@Z:PROC				; operator delete
EXTRN	?__global_delete@@YAXPAXI@Z:PROC		; __global_delete
EXTRN	___std_terminate:PROC
EXTRN	?AfxThrowInvalidArgException@@YGXXZ:PROC	; AfxThrowInvalidArgException
EXTRN	__imp_?Empty@?$CSimpleStringT@D$00@ATL@@QAEXXZ:PROC
EXTRN	__imp_?Concatenate@?$CSimpleStringT@D$00@ATL@@KAXAAV12@PBDH1H@Z:PROC
EXTRN	__imp_??0?$CStringT@DV?$StrTraitMFC_DLL@DV?$ChTraitsCRT@D@ATL@@@@@ATL@@QAE@XZ:PROC
EXTRN	__imp_??0?$CStringT@DV?$StrTraitMFC_DLL@DV?$ChTraitsCRT@D@ATL@@@@@ATL@@QAE@PAUIAtlStringMgr@1@@Z:PROC
EXTRN	__imp_??0?$CStringT@DV?$StrTraitMFC_DLL@DV?$ChTraitsCRT@D@ATL@@@@@ATL@@QAE@ABV01@@Z:PROC
EXTRN	__imp_??0?$CStringT@DV?$StrTraitMFC_DLL@DV?$ChTraitsCRT@D@ATL@@@@@ATL@@QAE@PBD@Z:PROC
EXTRN	__imp_??1?$CStringT@DV?$StrTraitMFC_DLL@DV?$ChTraitsCRT@D@ATL@@@@@ATL@@QAE@XZ:PROC
EXTRN	__imp_??4?$CStringT@DV?$StrTraitMFC_DLL@DV?$ChTraitsCRT@D@ATL@@@@@ATL@@QAEAAV01@ABV01@@Z:PROC
EXTRN	__imp_?GetManager@?$CStringT@DV?$StrTraitMFC_DLL@DV?$ChTraitsCRT@D@ATL@@@@@ATL@@QBEPAUIAtlStringMgr@2@XZ:PROC
EXTRN	__imp_?Compare@?$CStringT@DV?$StrTraitMFC_DLL@DV?$ChTraitsCRT@D@ATL@@@@@ATL@@QBEHPBD@Z:PROC
EXTRN	__imp_?Find@?$CStringT@DV?$StrTraitMFC_DLL@DV?$ChTraitsCRT@D@ATL@@@@@ATL@@QBEHPBDH@Z:PROC
EXTRN	?GetRuntimeClass@CObList@@UBEPAUCRuntimeClass@@XZ:PROC ; CObList::GetRuntimeClass
EXTRN	??0CObList@@QAE@H@Z:PROC			; CObList::CObList
EXTRN	?AddTail@CObList@@QAEPAU__POSITION@@PAVCObject@@@Z:PROC ; CObList::AddTail
EXTRN	?RemoveAll@CObList@@QAEXXZ:PROC			; CObList::RemoveAll
EXTRN	?RemoveAt@CObList@@QAEXPAU__POSITION@@@Z:PROC	; CObList::RemoveAt
EXTRN	??1CObList@@UAE@XZ:PROC				; CObList::~CObList
EXTRN	?Serialize@CObList@@UAEXAAVCArchive@@@Z:PROC	; CObList::Serialize
EXTRN	??_E?$_CTypedPtrList@VCObList@@PAVCObjTool@@@@UAEPAXI@Z:PROC ; _CTypedPtrList<CObList,CObjTool *>::`vector deleting destructor'
EXTRN	??_E?$CTypedPtrList@VCObList@@PAVCObjTool@@@@UAEPAXI@Z:PROC ; CTypedPtrList<CObList,CObjTool *>::`vector deleting destructor'
EXTRN	??_ECToolOption@@UAEPAXI@Z:PROC			; CToolOption::`vector deleting destructor'
EXTRN	??0CObjTool@@QAE@V?$CStringT@DV?$StrTraitMFC_DLL@DV?$ChTraitsCRT@D@ATL@@@@@ATL@@00@Z:PROC ; CObjTool::CObjTool
EXTRN	?GetStringData@CDataConversion@@SA?AV?$CStringT@DV?$StrTraitMFC_DLL@DV?$ChTraitsCRT@D@ATL@@@@@ATL@@AAV23@ABV23@_N@Z:PROC ; CDataConversion::GetStringData
EXTRN	@__security_check_cookie@4:PROC
EXTRN	___CxxFrameHandler3:PROC
EXTRN	??_7type_info@@6B@:QWORD			; type_info::`vftable'
EXTRN	?m_eToolOptions@IMetaTable@@2PAW4E_METACODE@1@A:BYTE ; IMetaTable::m_eToolOptions
EXTRN	?g_iMetaTable@@3VIMetaTable@@A:BYTE		; g_iMetaTable
EXTRN	___security_cookie:DWORD
;	COMDAT ??_R4?$_CTypedPtrList@VCObList@@PAVCObjTool@@@@6B@
rdata$r	SEGMENT
??_R4?$_CTypedPtrList@VCObList@@PAVCObjTool@@@@6B@ DD 00H ; _CTypedPtrList<CObList,CObjTool *>::`RTTI Complete Object Locator'
	DD	00H
	DD	00H
	DD	FLAT:??_R0?AV?$_CTypedPtrList@VCObList@@PAVCObjTool@@@@@8
	DD	FLAT:??_R3?$_CTypedPtrList@VCObList@@PAVCObjTool@@@@8
rdata$r	ENDS
;	COMDAT ??_R2?$_CTypedPtrList@VCObList@@PAVCObjTool@@@@8
rdata$r	SEGMENT
??_R2?$_CTypedPtrList@VCObList@@PAVCObjTool@@@@8 DD FLAT:??_R1A@?0A@EA@?$_CTypedPtrList@VCObList@@PAVCObjTool@@@@8 ; _CTypedPtrList<CObList,CObjTool *>::`RTTI Base Class Array'
	DD	FLAT:??_R1A@?0A@EA@CObList@@8
	DD	FLAT:??_R1A@?0A@EA@CObject@@8
rdata$r	ENDS
;	COMDAT ??_R3?$_CTypedPtrList@VCObList@@PAVCObjTool@@@@8
rdata$r	SEGMENT
??_R3?$_CTypedPtrList@VCObList@@PAVCObjTool@@@@8 DD 00H	; _CTypedPtrList<CObList,CObjTool *>::`RTTI Class Hierarchy Descriptor'
	DD	00H
	DD	03H
	DD	FLAT:??_R2?$_CTypedPtrList@VCObList@@PAVCObjTool@@@@8
rdata$r	ENDS
;	COMDAT ??_R0?AV?$_CTypedPtrList@VCObList@@PAVCObjTool@@@@@8
data$rs	SEGMENT
??_R0?AV?$_CTypedPtrList@VCObList@@PAVCObjTool@@@@@8 DD FLAT:??_7type_info@@6B@ ; _CTypedPtrList<CObList,CObjTool *> `RTTI Type Descriptor'
	DD	00H
	DB	'.?AV?$_CTypedPtrList@VCObList@@PAVCObjTool@@@@', 00H
data$rs	ENDS
;	COMDAT ??_R1A@?0A@EA@?$_CTypedPtrList@VCObList@@PAVCObjTool@@@@8
rdata$r	SEGMENT
??_R1A@?0A@EA@?$_CTypedPtrList@VCObList@@PAVCObjTool@@@@8 DD FLAT:??_R0?AV?$_CTypedPtrList@VCObList@@PAVCObjTool@@@@@8 ; _CTypedPtrList<CObList,CObjTool *>::`RTTI Base Class Descriptor at (0,-1,0,64)'
	DD	02H
	DD	00H
	DD	0ffffffffH
	DD	00H
	DD	040H
	DD	FLAT:??_R3?$_CTypedPtrList@VCObList@@PAVCObjTool@@@@8
rdata$r	ENDS
;	COMDAT ??_R1A@?0A@EA@?$CTypedPtrList@VCObList@@PAVCObjTool@@@@8
rdata$r	SEGMENT
??_R1A@?0A@EA@?$CTypedPtrList@VCObList@@PAVCObjTool@@@@8 DD FLAT:??_R0?AV?$CTypedPtrList@VCObList@@PAVCObjTool@@@@@8 ; CTypedPtrList<CObList,CObjTool *>::`RTTI Base Class Descriptor at (0,-1,0,64)'
	DD	03H
	DD	00H
	DD	0ffffffffH
	DD	00H
	DD	040H
	DD	FLAT:??_R3?$CTypedPtrList@VCObList@@PAVCObjTool@@@@8
rdata$r	ENDS
;	COMDAT ??_R2?$CTypedPtrList@VCObList@@PAVCObjTool@@@@8
rdata$r	SEGMENT
??_R2?$CTypedPtrList@VCObList@@PAVCObjTool@@@@8 DD FLAT:??_R1A@?0A@EA@?$CTypedPtrList@VCObList@@PAVCObjTool@@@@8 ; CTypedPtrList<CObList,CObjTool *>::`RTTI Base Class Array'
	DD	FLAT:??_R1A@?0A@EA@?$_CTypedPtrList@VCObList@@PAVCObjTool@@@@8
	DD	FLAT:??_R1A@?0A@EA@CObList@@8
	DD	FLAT:??_R1A@?0A@EA@CObject@@8
rdata$r	ENDS
;	COMDAT ??_R3?$CTypedPtrList@VCObList@@PAVCObjTool@@@@8
rdata$r	SEGMENT
??_R3?$CTypedPtrList@VCObList@@PAVCObjTool@@@@8 DD 00H	; CTypedPtrList<CObList,CObjTool *>::`RTTI Class Hierarchy Descriptor'
	DD	00H
	DD	04H
	DD	FLAT:??_R2?$CTypedPtrList@VCObList@@PAVCObjTool@@@@8
rdata$r	ENDS
;	COMDAT ??_R0?AV?$CTypedPtrList@VCObList@@PAVCObjTool@@@@@8
data$rs	SEGMENT
??_R0?AV?$CTypedPtrList@VCObList@@PAVCObjTool@@@@@8 DD FLAT:??_7type_info@@6B@ ; CTypedPtrList<CObList,CObjTool *> `RTTI Type Descriptor'
	DD	00H
	DB	'.?AV?$CTypedPtrList@VCObList@@PAVCObjTool@@@@', 00H
data$rs	ENDS
;	COMDAT ??_R4?$CTypedPtrList@VCObList@@PAVCObjTool@@@@6B@
rdata$r	SEGMENT
??_R4?$CTypedPtrList@VCObList@@PAVCObjTool@@@@6B@ DD 00H ; CTypedPtrList<CObList,CObjTool *>::`RTTI Complete Object Locator'
	DD	00H
	DD	00H
	DD	FLAT:??_R0?AV?$CTypedPtrList@VCObList@@PAVCObjTool@@@@@8
	DD	FLAT:??_R3?$CTypedPtrList@VCObList@@PAVCObjTool@@@@8
rdata$r	ENDS
;	COMDAT ??_R1A@?0A@EA@CToolOption@@8
rdata$r	SEGMENT
??_R1A@?0A@EA@CToolOption@@8 DD FLAT:??_R0?AVCToolOption@@@8 ; CToolOption::`RTTI Base Class Descriptor at (0,-1,0,64)'
	DD	00H
	DD	00H
	DD	0ffffffffH
	DD	00H
	DD	040H
	DD	FLAT:??_R3CToolOption@@8
rdata$r	ENDS
;	COMDAT ??_R2CToolOption@@8
rdata$r	SEGMENT
??_R2CToolOption@@8 DD FLAT:??_R1A@?0A@EA@CToolOption@@8 ; CToolOption::`RTTI Base Class Array'
rdata$r	ENDS
;	COMDAT ??_R3CToolOption@@8
rdata$r	SEGMENT
??_R3CToolOption@@8 DD 00H				; CToolOption::`RTTI Class Hierarchy Descriptor'
	DD	00H
	DD	01H
	DD	FLAT:??_R2CToolOption@@8
rdata$r	ENDS
;	COMDAT ??_R0?AVCToolOption@@@8
data$rs	SEGMENT
??_R0?AVCToolOption@@@8 DD FLAT:??_7type_info@@6B@	; CToolOption `RTTI Type Descriptor'
	DD	00H
	DB	'.?AVCToolOption@@', 00H
data$rs	ENDS
;	COMDAT ??_R4CToolOption@@6B@
rdata$r	SEGMENT
??_R4CToolOption@@6B@ DD 00H				; CToolOption::`RTTI Complete Object Locator'
	DD	00H
	DD	00H
	DD	FLAT:??_R0?AVCToolOption@@@8
	DD	FLAT:??_R3CToolOption@@8
rdata$r	ENDS
;	COMDAT ??_C@_09PHINFBD@RButton?$AN?6@
CONST	SEGMENT
??_C@_09PHINFBD@RButton?$AN?6@ DB 'RButton', 0dH, 0aH, 00H ; `string'
CONST	ENDS
;	COMDAT ??_C@_07FFFPJHPP@RButton@
CONST	SEGMENT
??_C@_07FFFPJHPP@RButton@ DB 'RButton', 00H		; `string'
CONST	ENDS
;	COMDAT ??_C@_01ICJEACDI@?$DL@
CONST	SEGMENT
??_C@_01ICJEACDI@?$DL@ DB ';', 00H			; `string'
CONST	ENDS
;	COMDAT ??_C@_02PCIJFNDE@?$AN?6@
CONST	SEGMENT
??_C@_02PCIJFNDE@?$AN?6@ DB 0dH, 0aH, 00H		; `string'
CONST	ENDS
;	COMDAT ??_7CToolOption@@6B@
CONST	SEGMENT
??_7CToolOption@@6B@ DD FLAT:??_R4CToolOption@@6B@	; CToolOption::`vftable'
	DD	FLAT:??_ECToolOption@@UAEPAXI@Z
CONST	ENDS
;	COMDAT ??_7?$CTypedPtrList@VCObList@@PAVCObjTool@@@@6B@
CONST	SEGMENT
??_7?$CTypedPtrList@VCObList@@PAVCObjTool@@@@6B@ DD FLAT:??_R4?$CTypedPtrList@VCObList@@PAVCObjTool@@@@6B@ ; CTypedPtrList<CObList,CObjTool *>::`vftable'
	DD	FLAT:?GetRuntimeClass@CObList@@UBEPAUCRuntimeClass@@XZ
	DD	FLAT:??_E?$CTypedPtrList@VCObList@@PAVCObjTool@@@@UAEPAXI@Z
	DD	FLAT:?Serialize@CObList@@UAEXAAVCArchive@@@Z
	DD	FLAT:?AssertValid@CObject@@UBEXXZ
	DD	FLAT:?Dump@CObject@@UBEXAAVCDumpContext@@@Z
CONST	ENDS
;	COMDAT ??_7?$_CTypedPtrList@VCObList@@PAVCObjTool@@@@6B@
CONST	SEGMENT
??_7?$_CTypedPtrList@VCObList@@PAVCObjTool@@@@6B@ DD FLAT:??_R4?$_CTypedPtrList@VCObList@@PAVCObjTool@@@@6B@ ; _CTypedPtrList<CObList,CObjTool *>::`vftable'
	DD	FLAT:?GetRuntimeClass@CObList@@UBEPAUCRuntimeClass@@XZ
	DD	FLAT:??_E?$_CTypedPtrList@VCObList@@PAVCObjTool@@@@UAEPAXI@Z
	DD	FLAT:?Serialize@CObList@@UAEXAAVCArchive@@@Z
	DD	FLAT:?AssertValid@CObject@@UBEXXZ
	DD	FLAT:?Dump@CObject@@UBEXAAVCDumpContext@@@Z
CONST	ENDS
;	COMDAT ??_R2CObList@@8
rdata$r	SEGMENT
??_R2CObList@@8 DD FLAT:??_R1A@?0A@EA@CObList@@8	; CObList::`RTTI Base Class Array'
	DD	FLAT:??_R1A@?0A@EA@CObject@@8
rdata$r	ENDS
;	COMDAT ??_R3CObList@@8
rdata$r	SEGMENT
??_R3CObList@@8 DD 00H					; CObList::`RTTI Class Hierarchy Descriptor'
	DD	00H
	DD	02H
	DD	FLAT:??_R2CObList@@8
rdata$r	ENDS
;	COMDAT ??_R0?AVCObList@@@8
data$rs	SEGMENT
??_R0?AVCObList@@@8 DD FLAT:??_7type_info@@6B@		; CObList `RTTI Type Descriptor'
	DD	00H
	DB	'.?AVCObList@@', 00H
data$rs	ENDS
;	COMDAT ??_R1A@?0A@EA@CObList@@8
rdata$r	SEGMENT
??_R1A@?0A@EA@CObList@@8 DD FLAT:??_R0?AVCObList@@@8	; CObList::`RTTI Base Class Descriptor at (0,-1,0,64)'
	DD	01H
	DD	00H
	DD	0ffffffffH
	DD	00H
	DD	040H
	DD	FLAT:??_R3CObList@@8
rdata$r	ENDS
;	COMDAT ??_R1A@?0A@EA@CObject@@8
rdata$r	SEGMENT
??_R1A@?0A@EA@CObject@@8 DD FLAT:??_R0?AVCObject@@@8	; CObject::`RTTI Base Class Descriptor at (0,-1,0,64)'
	DD	00H
	DD	00H
	DD	0ffffffffH
	DD	00H
	DD	040H
	DD	FLAT:??_R3CObject@@8
rdata$r	ENDS
;	COMDAT ??_R2CObject@@8
rdata$r	SEGMENT
??_R2CObject@@8 DD FLAT:??_R1A@?0A@EA@CObject@@8	; CObject::`RTTI Base Class Array'
rdata$r	ENDS
;	COMDAT ??_R3CObject@@8
rdata$r	SEGMENT
??_R3CObject@@8 DD 00H					; CObject::`RTTI Class Hierarchy Descriptor'
	DD	00H
	DD	01H
	DD	FLAT:??_R2CObject@@8
rdata$r	ENDS
;	COMDAT ??_R0?AVCObject@@@8
data$rs	SEGMENT
??_R0?AVCObject@@@8 DD FLAT:??_7type_info@@6B@		; CObject `RTTI Type Descriptor'
	DD	00H
	DB	'.?AVCObject@@', 00H
data$rs	ENDS
;	COMDAT xdata$x
xdata$x	SEGMENT
__unwindtable$??_GCToolOption@@UAEPAXI@Z DD 0ffffffffH
	DD	FLAT:___std_terminate
__ehfuncinfo$??_GCToolOption@@UAEPAXI@Z DD 019930522H
	DD	01H
	DD	FLAT:__unwindtable$??_GCToolOption@@UAEPAXI@Z
	DD	2 DUP(00H)
	DD	2 DUP(00H)
	DD	00H
	DD	05H
xdata$x	ENDS
;	COMDAT xdata$x
xdata$x	SEGMENT
__ehfuncinfo$?SetListToolOption@CToolOption@@AAEXPAV?$CTypedPtrList@VCObList@@PAVCObjTool@@@@ABV?$CStringT@DV?$StrTraitMFC_DLL@DV?$ChTraitsCRT@D@ATL@@@@@ATL@@@Z DD 019930522H
	DD	010H
	DD	FLAT:__unwindtable$?SetListToolOption@CToolOption@@AAEXPAV?$CTypedPtrList@VCObList@@PAVCObjTool@@@@ABV?$CStringT@DV?$StrTraitMFC_DLL@DV?$ChTraitsCRT@D@ATL@@@@@ATL@@@Z
	DD	2 DUP(00H)
	DD	2 DUP(00H)
	DD	00H
	DD	01H
__unwindtable$?SetListToolOption@CToolOption@@AAEXPAV?$CTypedPtrList@VCObList@@PAVCObjTool@@@@ABV?$CStringT@DV?$StrTraitMFC_DLL@DV?$ChTraitsCRT@D@ATL@@@@@ATL@@@Z DD 0ffffffffH
	DD	FLAT:__unwindfunclet$?SetListToolOption@CToolOption@@AAEXPAV?$CTypedPtrList@VCObList@@PAVCObjTool@@@@ABV?$CStringT@DV?$StrTraitMFC_DLL@DV?$ChTraitsCRT@D@ATL@@@@@ATL@@@Z$0
	DD	00H
	DD	FLAT:__unwindfunclet$?SetListToolOption@CToolOption@@AAEXPAV?$CTypedPtrList@VCObList@@PAVCObjTool@@@@ABV?$CStringT@DV?$StrTraitMFC_DLL@DV?$ChTraitsCRT@D@ATL@@@@@ATL@@@Z$1
	DD	01H
	DD	FLAT:__unwindfunclet$?SetListToolOption@CToolOption@@AAEXPAV?$CTypedPtrList@VCObList@@PAVCObjTool@@@@ABV?$CStringT@DV?$StrTraitMFC_DLL@DV?$ChTraitsCRT@D@ATL@@@@@ATL@@@Z$2
	DD	00H
	DD	FLAT:__unwindfunclet$?SetListToolOption@CToolOption@@AAEXPAV?$CTypedPtrList@VCObList@@PAVCObjTool@@@@ABV?$CStringT@DV?$StrTraitMFC_DLL@DV?$ChTraitsCRT@D@ATL@@@@@ATL@@@Z$2
	DD	03H
	DD	FLAT:__unwindfunclet$?SetListToolOption@CToolOption@@AAEXPAV?$CTypedPtrList@VCObList@@PAVCObjTool@@@@ABV?$CStringT@DV?$StrTraitMFC_DLL@DV?$ChTraitsCRT@D@ATL@@@@@ATL@@@Z$3
	DD	04H
	DD	FLAT:__unwindfunclet$?SetListToolOption@CToolOption@@AAEXPAV?$CTypedPtrList@VCObList@@PAVCObjTool@@@@ABV?$CStringT@DV?$StrTraitMFC_DLL@DV?$ChTraitsCRT@D@ATL@@@@@ATL@@@Z$4
	DD	03H
	DD	FLAT:__unwindfunclet$?SetListToolOption@CToolOption@@AAEXPAV?$CTypedPtrList@VCObList@@PAVCObjTool@@@@ABV?$CStringT@DV?$StrTraitMFC_DLL@DV?$ChTraitsCRT@D@ATL@@@@@ATL@@@Z$4
	DD	06H
	DD	FLAT:__unwindfunclet$?SetListToolOption@CToolOption@@AAEXPAV?$CTypedPtrList@VCObList@@PAVCObjTool@@@@ABV?$CStringT@DV?$StrTraitMFC_DLL@DV?$ChTraitsCRT@D@ATL@@@@@ATL@@@Z$5
	DD	07H
	DD	FLAT:__unwindfunclet$?SetListToolOption@CToolOption@@AAEXPAV?$CTypedPtrList@VCObList@@PAVCObjTool@@@@ABV?$CStringT@DV?$StrTraitMFC_DLL@DV?$ChTraitsCRT@D@ATL@@@@@ATL@@@Z$6
	DD	06H
	DD	FLAT:__unwindfunclet$?SetListToolOption@CToolOption@@AAEXPAV?$CTypedPtrList@VCObList@@PAVCObjTool@@@@ABV?$CStringT@DV?$StrTraitMFC_DLL@DV?$ChTraitsCRT@D@ATL@@@@@ATL@@@Z$6
	DD	09H
	DD	FLAT:__unwindfunclet$?SetListToolOption@CToolOption@@AAEXPAV?$CTypedPtrList@VCObList@@PAVCObjTool@@@@ABV?$CStringT@DV?$StrTraitMFC_DLL@DV?$ChTraitsCRT@D@ATL@@@@@ATL@@@Z$7
	DD	0aH
	DD	FLAT:__unwindfunclet$?SetListToolOption@CToolOption@@AAEXPAV?$CTypedPtrList@VCObList@@PAVCObjTool@@@@ABV?$CStringT@DV?$StrTraitMFC_DLL@DV?$ChTraitsCRT@D@ATL@@@@@ATL@@@Z$8
	DD	09H
	DD	FLAT:__unwindfunclet$?SetListToolOption@CToolOption@@AAEXPAV?$CTypedPtrList@VCObList@@PAVCObjTool@@@@ABV?$CStringT@DV?$StrTraitMFC_DLL@DV?$ChTraitsCRT@D@ATL@@@@@ATL@@@Z$8
	DD	0cH
	DD	FLAT:__unwindfunclet$?SetListToolOption@CToolOption@@AAEXPAV?$CTypedPtrList@VCObList@@PAVCObjTool@@@@ABV?$CStringT@DV?$StrTraitMFC_DLL@DV?$ChTraitsCRT@D@ATL@@@@@ATL@@@Z$9
	DD	0dH
	DD	FLAT:__unwindfunclet$?SetListToolOption@CToolOption@@AAEXPAV?$CTypedPtrList@VCObList@@PAVCObjTool@@@@ABV?$CStringT@DV?$StrTraitMFC_DLL@DV?$ChTraitsCRT@D@ATL@@@@@ATL@@@Z$10
	DD	0eH
	DD	FLAT:__unwindfunclet$?SetListToolOption@CToolOption@@AAEXPAV?$CTypedPtrList@VCObList@@PAVCObjTool@@@@ABV?$CStringT@DV?$StrTraitMFC_DLL@DV?$ChTraitsCRT@D@ATL@@@@@ATL@@@Z$11
xdata$x	ENDS
;	COMDAT xdata$x
xdata$x	SEGMENT
__ehfuncinfo$?SetAll@CToolOption@@AAEXABV?$CStringT@DV?$StrTraitMFC_DLL@DV?$ChTraitsCRT@D@ATL@@@@@ATL@@@Z DD 019930522H
	DD	0aH
	DD	FLAT:__unwindtable$?SetAll@CToolOption@@AAEXABV?$CStringT@DV?$StrTraitMFC_DLL@DV?$ChTraitsCRT@D@ATL@@@@@ATL@@@Z
	DD	2 DUP(00H)
	DD	2 DUP(00H)
	DD	00H
	DD	01H
__unwindtable$?SetAll@CToolOption@@AAEXABV?$CStringT@DV?$StrTraitMFC_DLL@DV?$ChTraitsCRT@D@ATL@@@@@ATL@@@Z DD 0ffffffffH
	DD	FLAT:__unwindfunclet$?SetAll@CToolOption@@AAEXABV?$CStringT@DV?$StrTraitMFC_DLL@DV?$ChTraitsCRT@D@ATL@@@@@ATL@@@Z$0
	DD	00H
	DD	FLAT:__unwindfunclet$?SetAll@CToolOption@@AAEXABV?$CStringT@DV?$StrTraitMFC_DLL@DV?$ChTraitsCRT@D@ATL@@@@@ATL@@@Z$1
	DD	01H
	DD	FLAT:__unwindfunclet$?SetAll@CToolOption@@AAEXABV?$CStringT@DV?$StrTraitMFC_DLL@DV?$ChTraitsCRT@D@ATL@@@@@ATL@@@Z$8
	DD	02H
	DD	FLAT:__unwindfunclet$?SetAll@CToolOption@@AAEXABV?$CStringT@DV?$StrTraitMFC_DLL@DV?$ChTraitsCRT@D@ATL@@@@@ATL@@@Z$3
	DD	01H
	DD	FLAT:__unwindfunclet$?SetAll@CToolOption@@AAEXABV?$CStringT@DV?$StrTraitMFC_DLL@DV?$ChTraitsCRT@D@ATL@@@@@ATL@@@Z$3
	DD	00H
	DD	FLAT:__unwindfunclet$?SetAll@CToolOption@@AAEXABV?$CStringT@DV?$StrTraitMFC_DLL@DV?$ChTraitsCRT@D@ATL@@@@@ATL@@@Z$3
	DD	05H
	DD	FLAT:__unwindfunclet$?SetAll@CToolOption@@AAEXABV?$CStringT@DV?$StrTraitMFC_DLL@DV?$ChTraitsCRT@D@ATL@@@@@ATL@@@Z$4
	DD	06H
	DD	FLAT:__unwindfunclet$?SetAll@CToolOption@@AAEXABV?$CStringT@DV?$StrTraitMFC_DLL@DV?$ChTraitsCRT@D@ATL@@@@@ATL@@@Z$5
	DD	07H
	DD	FLAT:__unwindfunclet$?SetAll@CToolOption@@AAEXABV?$CStringT@DV?$StrTraitMFC_DLL@DV?$ChTraitsCRT@D@ATL@@@@@ATL@@@Z$6
	DD	06H
	DD	FLAT:__unwindfunclet$?SetAll@CToolOption@@AAEXABV?$CStringT@DV?$StrTraitMFC_DLL@DV?$ChTraitsCRT@D@ATL@@@@@ATL@@@Z$7
xdata$x	ENDS
;	COMDAT xdata$x
xdata$x	SEGMENT
__ehfuncinfo$??1CToolOption@@UAE@XZ DD 019930522H
	DD	00H
	DD	00H
	DD	2 DUP(00H)
	DD	2 DUP(00H)
	DD	00H
	DD	05H
xdata$x	ENDS
;	COMDAT xdata$x
xdata$x	SEGMENT
__unwindtable$??0CToolOption@@QAE@V?$CStringT@DV?$StrTraitMFC_DLL@DV?$ChTraitsCRT@D@ATL@@@@@ATL@@@Z DD 0ffffffffH
	DD	FLAT:__unwindfunclet$??0CToolOption@@QAE@V?$CStringT@DV?$StrTraitMFC_DLL@DV?$ChTraitsCRT@D@ATL@@@@@ATL@@@Z$0
	DD	00H
	DD	FLAT:__unwindfunclet$??0CToolOption@@QAE@V?$CStringT@DV?$StrTraitMFC_DLL@DV?$ChTraitsCRT@D@ATL@@@@@ATL@@@Z$1
	DD	01H
	DD	FLAT:__unwindfunclet$??0CToolOption@@QAE@V?$CStringT@DV?$StrTraitMFC_DLL@DV?$ChTraitsCRT@D@ATL@@@@@ATL@@@Z$2
	DD	02H
	DD	FLAT:__unwindfunclet$??0CToolOption@@QAE@V?$CStringT@DV?$StrTraitMFC_DLL@DV?$ChTraitsCRT@D@ATL@@@@@ATL@@@Z$3
__ehfuncinfo$??0CToolOption@@QAE@V?$CStringT@DV?$StrTraitMFC_DLL@DV?$ChTraitsCRT@D@ATL@@@@@ATL@@@Z DD 019930522H
	DD	04H
	DD	FLAT:__unwindtable$??0CToolOption@@QAE@V?$CStringT@DV?$StrTraitMFC_DLL@DV?$ChTraitsCRT@D@ATL@@@@@ATL@@@Z
	DD	2 DUP(00H)
	DD	2 DUP(00H)
	DD	00H
	DD	01H
xdata$x	ENDS
;	COMDAT xdata$x
xdata$x	SEGMENT
__unwindtable$?Reset@CToolOption@@QAEXV?$CStringT@DV?$StrTraitMFC_DLL@DV?$ChTraitsCRT@D@ATL@@@@@ATL@@@Z DD 0ffffffffH
	DD	FLAT:__unwindfunclet$?Reset@CToolOption@@QAEXV?$CStringT@DV?$StrTraitMFC_DLL@DV?$ChTraitsCRT@D@ATL@@@@@ATL@@@Z$0
__ehfuncinfo$?Reset@CToolOption@@QAEXV?$CStringT@DV?$StrTraitMFC_DLL@DV?$ChTraitsCRT@D@ATL@@@@@ATL@@@Z DD 019930522H
	DD	01H
	DD	FLAT:__unwindtable$?Reset@CToolOption@@QAEXV?$CStringT@DV?$StrTraitMFC_DLL@DV?$ChTraitsCRT@D@ATL@@@@@ATL@@@Z
	DD	2 DUP(00H)
	DD	2 DUP(00H)
	DD	00H
	DD	01H
xdata$x	ENDS
;	COMDAT xdata$x
xdata$x	SEGMENT
__unwindtable$?UseTool@CToolOption@@QAEHW4OPTION@CToolOptionInfo@@ABV?$CStringT@DV?$StrTraitMFC_DLL@DV?$ChTraitsCRT@D@ATL@@@@@ATL@@@Z DD 0ffffffffH
	DD	FLAT:__unwindfunclet$?UseTool@CToolOption@@QAEHW4OPTION@CToolOptionInfo@@ABV?$CStringT@DV?$StrTraitMFC_DLL@DV?$ChTraitsCRT@D@ATL@@@@@ATL@@@Z$0
__ehfuncinfo$?UseTool@CToolOption@@QAEHW4OPTION@CToolOptionInfo@@ABV?$CStringT@DV?$StrTraitMFC_DLL@DV?$ChTraitsCRT@D@ATL@@@@@ATL@@@Z DD 019930522H
	DD	01H
	DD	FLAT:__unwindtable$?UseTool@CToolOption@@QAEHW4OPTION@CToolOptionInfo@@ABV?$CStringT@DV?$StrTraitMFC_DLL@DV?$ChTraitsCRT@D@ATL@@@@@ATL@@@Z
	DD	2 DUP(00H)
	DD	2 DUP(00H)
	DD	00H
	DD	01H
xdata$x	ENDS
;	COMDAT xdata$x
xdata$x	SEGMENT
__ehfuncinfo$?SetTool@CToolOption@@QAEXW4OPTION@CToolOptionInfo@@W4TOOLOPTION@3@V?$CStringT@DV?$StrTraitMFC_DLL@DV?$ChTraitsCRT@D@ATL@@@@@ATL@@2H@Z DD 019930522H
	DD	06H
	DD	FLAT:__unwindtable$?SetTool@CToolOption@@QAEXW4OPTION@CToolOptionInfo@@W4TOOLOPTION@3@V?$CStringT@DV?$StrTraitMFC_DLL@DV?$ChTraitsCRT@D@ATL@@@@@ATL@@2H@Z
	DD	2 DUP(00H)
	DD	2 DUP(00H)
	DD	00H
	DD	01H
__unwindtable$?SetTool@CToolOption@@QAEXW4OPTION@CToolOptionInfo@@W4TOOLOPTION@3@V?$CStringT@DV?$StrTraitMFC_DLL@DV?$ChTraitsCRT@D@ATL@@@@@ATL@@2H@Z DD 0ffffffffH
	DD	FLAT:__unwindfunclet$?SetTool@CToolOption@@QAEXW4OPTION@CToolOptionInfo@@W4TOOLOPTION@3@V?$CStringT@DV?$StrTraitMFC_DLL@DV?$ChTraitsCRT@D@ATL@@@@@ATL@@2H@Z$0
	DD	00H
	DD	FLAT:__unwindfunclet$?SetTool@CToolOption@@QAEXW4OPTION@CToolOptionInfo@@W4TOOLOPTION@3@V?$CStringT@DV?$StrTraitMFC_DLL@DV?$ChTraitsCRT@D@ATL@@@@@ATL@@2H@Z$1
	DD	01H
	DD	FLAT:__unwindfunclet$?SetTool@CToolOption@@QAEXW4OPTION@CToolOptionInfo@@W4TOOLOPTION@3@V?$CStringT@DV?$StrTraitMFC_DLL@DV?$ChTraitsCRT@D@ATL@@@@@ATL@@2H@Z$2
	DD	02H
	DD	FLAT:__unwindfunclet$?SetTool@CToolOption@@QAEXW4OPTION@CToolOptionInfo@@W4TOOLOPTION@3@V?$CStringT@DV?$StrTraitMFC_DLL@DV?$ChTraitsCRT@D@ATL@@@@@ATL@@2H@Z$3
	DD	03H
	DD	FLAT:__unwindfunclet$?SetTool@CToolOption@@QAEXW4OPTION@CToolOptionInfo@@W4TOOLOPTION@3@V?$CStringT@DV?$StrTraitMFC_DLL@DV?$ChTraitsCRT@D@ATL@@@@@ATL@@2H@Z$4
	DD	04H
	DD	FLAT:__unwindfunclet$?SetTool@CToolOption@@QAEXW4OPTION@CToolOptionInfo@@W4TOOLOPTION@3@V?$CStringT@DV?$StrTraitMFC_DLL@DV?$ChTraitsCRT@D@ATL@@@@@ATL@@2H@Z$5
xdata$x	ENDS
;	COMDAT xdata$x
xdata$x	SEGMENT
__unwindtable$??HATL@@YA?AV?$CStringT@DV?$StrTraitMFC_DLL@DV?$ChTraitsCRT@D@ATL@@@@@0@ABV10@PBD@Z DD 0ffffffffH
	DD	FLAT:__unwindfunclet$??HATL@@YA?AV?$CStringT@DV?$StrTraitMFC_DLL@DV?$ChTraitsCRT@D@ATL@@@@@0@ABV10@PBD@Z$0
__ehfuncinfo$??HATL@@YA?AV?$CStringT@DV?$StrTraitMFC_DLL@DV?$ChTraitsCRT@D@ATL@@@@@0@ABV10@PBD@Z DD 019930522H
	DD	01H
	DD	FLAT:__unwindtable$??HATL@@YA?AV?$CStringT@DV?$StrTraitMFC_DLL@DV?$ChTraitsCRT@D@ATL@@@@@0@ABV10@PBD@Z
	DD	2 DUP(00H)
	DD	2 DUP(00H)
	DD	00H
	DD	01H
xdata$x	ENDS
; Function compile flags: /Ogtp
; File D:\git\src\IBK\IBK_DRFN\ProjSrc\SrcChartEx\ChartOCX\Include_Chart\ToolOption.cpp
;	COMDAT ??_GCToolOption@@UAEPAXI@Z
_TEXT	SEGMENT
__$EHRec$ = -12						; size = 12
___flags$ = 8						; size = 4
??_GCToolOption@@UAEPAXI@Z PROC				; CToolOption::`scalar deleting destructor', COMDAT
; _this$ = ecx
  00000	55		 push	 ebp
  00001	8b ec		 mov	 ebp, esp
  00003	6a ff		 push	 -1
  00005	68 00 00 00 00	 push	 __ehhandler$??_GCToolOption@@UAEPAXI@Z
  0000a	64 a1 00 00 00
	00		 mov	 eax, DWORD PTR fs:0
  00010	50		 push	 eax
  00011	56		 push	 esi
  00012	a1 00 00 00 00	 mov	 eax, DWORD PTR ___security_cookie
  00017	33 c5		 xor	 eax, ebp
  00019	50		 push	 eax
  0001a	8d 45 f4	 lea	 eax, DWORD PTR __$EHRec$[ebp]
  0001d	64 a3 00 00 00
	00		 mov	 DWORD PTR fs:0, eax
  00023	8b f1		 mov	 esi, ecx

; 29   : {

  00025	c7 45 fc 00 00
	00 00		 mov	 DWORD PTR __$EHRec$[ebp+8], 0
  0002c	c7 06 00 00 00
	00		 mov	 DWORD PTR [esi], OFFSET ??_7CToolOption@@6B@

; 30   : 	DeleteAll();

  00032	e8 00 00 00 00	 call	 ?DeleteAll@CToolOption@@AAEXXZ ; CToolOption::DeleteAll

; 31   : }

  00037	8d 4e 3c	 lea	 ecx, DWORD PTR [esi+60]
  0003a	e8 00 00 00 00	 call	 ??1CObList@@UAE@XZ	; CObList::~CObList
  0003f	8d 4e 20	 lea	 ecx, DWORD PTR [esi+32]
  00042	e8 00 00 00 00	 call	 ??1CObList@@UAE@XZ	; CObList::~CObList
  00047	8d 4e 04	 lea	 ecx, DWORD PTR [esi+4]
  0004a	e8 00 00 00 00	 call	 ??1CObList@@UAE@XZ	; CObList::~CObList
  0004f	f6 45 08 01	 test	 BYTE PTR ___flags$[ebp], 1
  00053	74 0b		 je	 SHORT $LN25@scalar
  00055	6a 58		 push	 88			; 00000058H
  00057	56		 push	 esi
  00058	e8 00 00 00 00	 call	 ??3@YAXPAXI@Z		; operator delete
  0005d	83 c4 08	 add	 esp, 8
$LN25@scalar:
  00060	8b c6		 mov	 eax, esi
  00062	8b 4d f4	 mov	 ecx, DWORD PTR __$EHRec$[ebp]
  00065	64 89 0d 00 00
	00 00		 mov	 DWORD PTR fs:0, ecx
  0006c	59		 pop	 ecx
  0006d	5e		 pop	 esi
  0006e	8b e5		 mov	 esp, ebp
  00070	5d		 pop	 ebp
  00071	c2 04 00	 ret	 4
  00074	cc		 int	 3
  00075	cc		 int	 3
  00076	cc		 int	 3
  00077	cc		 int	 3
  00078	cc		 int	 3
_TEXT	ENDS
;	COMDAT text$x
text$x	SEGMENT
__ehhandler$??_GCToolOption@@UAEPAXI@Z:
  00000	90		 npad	 1
  00001	90		 npad	 1
  00002	8b 54 24 08	 mov	 edx, DWORD PTR [esp+8]
  00006	8d 42 0c	 lea	 eax, DWORD PTR [edx+12]
  00009	8b 4a f8	 mov	 ecx, DWORD PTR [edx-8]
  0000c	33 c8		 xor	 ecx, eax
  0000e	e8 00 00 00 00	 call	 @__security_check_cookie@4
  00013	b8 00 00 00 00	 mov	 eax, OFFSET __ehfuncinfo$??_GCToolOption@@UAEPAXI@Z
  00018	e9 00 00 00 00	 jmp	 ___CxxFrameHandler3
text$x	ENDS
??_GCToolOption@@UAEPAXI@Z ENDP				; CToolOption::`scalar deleting destructor'
; Function compile flags: /Ogtp
; File C:\Program Files (x86)\Microsoft Visual Studio\2019\Community\VC\Tools\MSVC\14.29.30133\atlmfc\include\afx.inl
;	COMDAT ??_G?$CTypedPtrList@VCObList@@PAVCObjTool@@@@UAEPAXI@Z
_TEXT	SEGMENT
___flags$ = 8						; size = 4
??_G?$CTypedPtrList@VCObList@@PAVCObjTool@@@@UAEPAXI@Z PROC ; CTypedPtrList<CObList,CObjTool *>::`scalar deleting destructor', COMDAT
; _this$ = ecx
  00000	55		 push	 ebp
  00001	8b ec		 mov	 ebp, esp
  00003	56		 push	 esi
  00004	8b f1		 mov	 esi, ecx
  00006	e8 00 00 00 00	 call	 ??1CObList@@UAE@XZ	; CObList::~CObList
  0000b	8b 45 08	 mov	 eax, DWORD PTR ___flags$[ebp]
  0000e	a8 01		 test	 al, 1
  00010	74 1f		 je	 SHORT $LN15@scalar
  00012	a8 04		 test	 al, 4
  00014	75 10		 jne	 SHORT $LN3@scalar

; 112  : 	{ ::operator delete(p); }

  00016	56		 push	 esi
  00017	e8 00 00 00 00	 call	 ??3@YAXPAX@Z		; operator delete
  0001c	83 c4 04	 add	 esp, 4
  0001f	8b c6		 mov	 eax, esi
  00021	5e		 pop	 esi
  00022	5d		 pop	 ebp
  00023	c2 04 00	 ret	 4
$LN3@scalar:
  00026	6a 1c		 push	 28			; 0000001cH
  00028	56		 push	 esi
  00029	e8 00 00 00 00	 call	 ?__global_delete@@YAXPAXI@Z ; __global_delete
  0002e	83 c4 08	 add	 esp, 8
$LN15@scalar:
  00031	8b c6		 mov	 eax, esi
  00033	5e		 pop	 esi
  00034	5d		 pop	 ebp
  00035	c2 04 00	 ret	 4
??_G?$CTypedPtrList@VCObList@@PAVCObjTool@@@@UAEPAXI@Z ENDP ; CTypedPtrList<CObList,CObjTool *>::`scalar deleting destructor'
_TEXT	ENDS
; Function compile flags: /Ogtp
;	COMDAT ??1?$CTypedPtrList@VCObList@@PAVCObjTool@@@@UAE@XZ
_TEXT	SEGMENT
??1?$CTypedPtrList@VCObList@@PAVCObjTool@@@@UAE@XZ PROC	; CTypedPtrList<CObList,CObjTool *>::~CTypedPtrList<CObList,CObjTool *>, COMDAT
; _this$ = ecx
  00000	e9 00 00 00 00	 jmp	 ??1CObList@@UAE@XZ	; CObList::~CObList
??1?$CTypedPtrList@VCObList@@PAVCObjTool@@@@UAE@XZ ENDP	; CTypedPtrList<CObList,CObjTool *>::~CTypedPtrList<CObList,CObjTool *>
_TEXT	ENDS
; Function compile flags: /Ogtp
; File C:\Program Files (x86)\Microsoft Visual Studio\2019\Community\VC\Tools\MSVC\14.29.30133\atlmfc\include\afx.inl
;	COMDAT ??_G?$_CTypedPtrList@VCObList@@PAVCObjTool@@@@UAEPAXI@Z
_TEXT	SEGMENT
___flags$ = 8						; size = 4
??_G?$_CTypedPtrList@VCObList@@PAVCObjTool@@@@UAEPAXI@Z PROC ; _CTypedPtrList<CObList,CObjTool *>::`scalar deleting destructor', COMDAT
; _this$ = ecx
  00000	55		 push	 ebp
  00001	8b ec		 mov	 ebp, esp
  00003	56		 push	 esi
  00004	8b f1		 mov	 esi, ecx
  00006	e8 00 00 00 00	 call	 ??1CObList@@UAE@XZ	; CObList::~CObList
  0000b	8b 45 08	 mov	 eax, DWORD PTR ___flags$[ebp]
  0000e	a8 01		 test	 al, 1
  00010	74 1f		 je	 SHORT $LN12@scalar
  00012	a8 04		 test	 al, 4
  00014	75 10		 jne	 SHORT $LN3@scalar

; 112  : 	{ ::operator delete(p); }

  00016	56		 push	 esi
  00017	e8 00 00 00 00	 call	 ??3@YAXPAX@Z		; operator delete
  0001c	83 c4 04	 add	 esp, 4
  0001f	8b c6		 mov	 eax, esi
  00021	5e		 pop	 esi
  00022	5d		 pop	 ebp
  00023	c2 04 00	 ret	 4
$LN3@scalar:
  00026	6a 1c		 push	 28			; 0000001cH
  00028	56		 push	 esi
  00029	e8 00 00 00 00	 call	 ?__global_delete@@YAXPAXI@Z ; __global_delete
  0002e	83 c4 08	 add	 esp, 8
$LN12@scalar:
  00031	8b c6		 mov	 eax, esi
  00033	5e		 pop	 esi
  00034	5d		 pop	 ebp
  00035	c2 04 00	 ret	 4
??_G?$_CTypedPtrList@VCObList@@PAVCObjTool@@@@UAEPAXI@Z ENDP ; _CTypedPtrList<CObList,CObjTool *>::`scalar deleting destructor'
_TEXT	ENDS
; Function compile flags: /Ogtp
; File D:\git\src\IBK\IBK_DRFN\ProjSrc\SrcChartEx\ChartOCX\Include_Chart\ToolOption.cpp
; File C:\Program Files (x86)\Microsoft Visual Studio\2019\Community\VC\Tools\MSVC\14.29.30133\atlmfc\include\atlsimpstr.h
; File D:\git\src\IBK\IBK_DRFN\ProjSrc\SrcChartEx\ChartOCX\Include_Chart\ToolOption.cpp
; File C:\Program Files (x86)\Microsoft Visual Studio\2019\Community\VC\Tools\MSVC\14.29.30133\atlmfc\include\atlsimpstr.h
; File D:\git\src\IBK\IBK_DRFN\ProjSrc\SrcChartEx\ChartOCX\Include_Chart\ToolOption.cpp
; File C:\Program Files (x86)\Microsoft Visual Studio\2019\Community\VC\Tools\MSVC\14.29.30133\atlmfc\include\atlsimpstr.h
; File D:\git\src\IBK\IBK_DRFN\ProjSrc\SrcChartEx\ChartOCX\Include_Chart\ToolOption.cpp
; File C:\Program Files (x86)\Microsoft Visual Studio\2019\Community\VC\Tools\MSVC\14.29.30133\atlmfc\include\afx.inl
; File D:\git\src\IBK\IBK_DRFN\ProjSrc\SrcChartEx\ChartOCX\Include_Chart\ToolOption.cpp
; File C:\Program Files (x86)\Microsoft Visual Studio\2019\Community\VC\Tools\MSVC\14.29.30133\atlmfc\include\afx.inl
; File D:\git\src\IBK\IBK_DRFN\ProjSrc\SrcChartEx\ChartOCX\Include_Chart\ToolOption.cpp
; File C:\Program Files (x86)\Microsoft Visual Studio\2019\Community\VC\Tools\MSVC\14.29.30133\atlmfc\include\afxtempl.h
; File D:\git\src\IBK\IBK_DRFN\ProjSrc\SrcChartEx\ChartOCX\Include_Chart\ToolOption.cpp
; File C:\Program Files (x86)\Microsoft Visual Studio\2019\Community\VC\Tools\MSVC\14.29.30133\atlmfc\include\afxtempl.h
; File D:\git\src\IBK\IBK_DRFN\ProjSrc\SrcChartEx\ChartOCX\Include_Chart\ToolOption.cpp
; File C:\Program Files (x86)\Microsoft Visual Studio\2019\Community\VC\Tools\MSVC\14.29.30133\atlmfc\include\atlsimpstr.h
; File D:\git\src\IBK\IBK_DRFN\ProjSrc\SrcChartEx\ChartOCX\Include_Chart\ToolOption.cpp
;	COMDAT ?SetListToolOption@CToolOption@@AAEXPAV?$CTypedPtrList@VCObList@@PAVCObjTool@@@@ABV?$CStringT@DV?$StrTraitMFC_DLL@DV?$ChTraitsCRT@D@ATL@@@@@ATL@@@Z
_TEXT	SEGMENT
$T2 = -52						; size = 4
$T3 = -48						; size = 4
$T4 = -44						; size = 4
_strName$5 = -40					; size = 4
_strOption1$6 = -36					; size = 4
_strOption2$7 = -32					; size = 4
$T8 = -28						; size = 4
$T9 = -24						; size = 4
$T10 = -20						; size = 4
_strT$ = -16						; size = 4
__$EHRec$ = -12						; size = 12
$T11 = 8						; size = 4
_plstToolOption$ = 8					; size = 4
_strObj$12 = 12						; size = 4
_strOption$ = 12					; size = 4
?SetListToolOption@CToolOption@@AAEXPAV?$CTypedPtrList@VCObList@@PAVCObjTool@@@@ABV?$CStringT@DV?$StrTraitMFC_DLL@DV?$ChTraitsCRT@D@ATL@@@@@ATL@@@Z PROC ; CToolOption::SetListToolOption, COMDAT
; _this$ = ecx

; 34   : {

  00000	55		 push	 ebp
  00001	8b ec		 mov	 ebp, esp
  00003	6a ff		 push	 -1
  00005	68 00 00 00 00	 push	 __ehhandler$?SetListToolOption@CToolOption@@AAEXPAV?$CTypedPtrList@VCObList@@PAVCObjTool@@@@ABV?$CStringT@DV?$StrTraitMFC_DLL@DV?$ChTraitsCRT@D@ATL@@@@@ATL@@@Z
  0000a	64 a1 00 00 00
	00		 mov	 eax, DWORD PTR fs:0
  00010	50		 push	 eax
  00011	83 ec 2c	 sub	 esp, 44			; 0000002cH
  00014	56		 push	 esi
  00015	57		 push	 edi
  00016	a1 00 00 00 00	 mov	 eax, DWORD PTR ___security_cookie
  0001b	33 c5		 xor	 eax, ebp
  0001d	50		 push	 eax
  0001e	8d 45 f4	 lea	 eax, DWORD PTR __$EHRec$[ebp]
  00021	64 a3 00 00 00
	00		 mov	 DWORD PTR fs:0, eax

; 35   : 	CString strT = strOption;

  00027	ff 75 0c	 push	 DWORD PTR _strOption$[ebp]
  0002a	8d 4d f0	 lea	 ecx, DWORD PTR _strT$[ebp]
  0002d	ff 15 00 00 00
	00		 call	 DWORD PTR __imp_??0?$CStringT@DV?$StrTraitMFC_DLL@DV?$ChTraitsCRT@D@ATL@@@@@ATL@@QAE@ABV01@@Z
; File C:\Program Files (x86)\Microsoft Visual Studio\2019\Community\VC\Tools\MSVC\14.29.30133\atlmfc\include\atlsimpstr.h

; 519  : 		return( GetData()->nDataLength );

  00033	8b 45 f0	 mov	 eax, DWORD PTR _strT$[ebp]
; File D:\git\src\IBK\IBK_DRFN\ProjSrc\SrcChartEx\ChartOCX\Include_Chart\ToolOption.cpp

; 35   : 	CString strT = strOption;

  00036	c7 45 fc 00 00
	00 00		 mov	 DWORD PTR __$EHRec$[ebp+8], 0
; File C:\Program Files (x86)\Microsoft Visual Studio\2019\Community\VC\Tools\MSVC\14.29.30133\atlmfc\include\atlsimpstr.h

; 533  : 		return( GetLength() == 0 );

  0003d	83 78 f4 00	 cmp	 DWORD PTR [eax-12], 0
; File D:\git\src\IBK\IBK_DRFN\ProjSrc\SrcChartEx\ChartOCX\Include_Chart\ToolOption.cpp

; 37   : 	while(!strT.IsEmpty())	{

  00041	0f 84 9e 01 00
	00		 je	 $LN3@SetListToo
  00047	8b 7d 08	 mov	 edi, DWORD PTR _plstToolOption$[ebp]
  0004a	66 0f 1f 44 00
	00		 npad	 6
$LL2@SetListToo:

; 38   : 		CString strObj = CDataConversion::GetStringData(strT, "\r\n");

  00050	68 00 00 00 00	 push	 OFFSET ??_C@_02PCIJFNDE@?$AN?6@
  00055	8d 4d 08	 lea	 ecx, DWORD PTR $T11[ebp]
  00058	ff 15 00 00 00
	00		 call	 DWORD PTR __imp_??0?$CStringT@DV?$StrTraitMFC_DLL@DV?$ChTraitsCRT@D@ATL@@@@@ATL@@QAE@PBD@Z
  0005e	6a 01		 push	 1
  00060	8d 45 08	 lea	 eax, DWORD PTR $T11[ebp]
  00063	c6 45 fc 01	 mov	 BYTE PTR __$EHRec$[ebp+8], 1
  00067	50		 push	 eax
  00068	8d 45 f0	 lea	 eax, DWORD PTR _strT$[ebp]
  0006b	50		 push	 eax
  0006c	8d 45 0c	 lea	 eax, DWORD PTR _strObj$12[ebp]
  0006f	50		 push	 eax
  00070	e8 00 00 00 00	 call	 ?GetStringData@CDataConversion@@SA?AV?$CStringT@DV?$StrTraitMFC_DLL@DV?$ChTraitsCRT@D@ATL@@@@@ATL@@AAV23@ABV23@_N@Z ; CDataConversion::GetStringData
  00075	83 c4 10	 add	 esp, 16			; 00000010H
  00078	8d 4d 08	 lea	 ecx, DWORD PTR $T11[ebp]
  0007b	c6 45 fc 03	 mov	 BYTE PTR __$EHRec$[ebp+8], 3
  0007f	ff 15 00 00 00
	00		 call	 DWORD PTR __imp_??1?$CStringT@DV?$StrTraitMFC_DLL@DV?$ChTraitsCRT@D@ATL@@@@@ATL@@QAE@XZ
; File C:\Program Files (x86)\Microsoft Visual Studio\2019\Community\VC\Tools\MSVC\14.29.30133\atlmfc\include\atlsimpstr.h

; 519  : 		return( GetData()->nDataLength );

  00085	8b 45 0c	 mov	 eax, DWORD PTR _strObj$12[ebp]

; 533  : 		return( GetLength() == 0 );

  00088	83 78 f4 00	 cmp	 DWORD PTR [eax-12], 0
; File D:\git\src\IBK\IBK_DRFN\ProjSrc\SrcChartEx\ChartOCX\Include_Chart\ToolOption.cpp

; 39   : 		if(!strObj.IsEmpty() && strObj.Find(";") >= 0)	{

  0008c	0f 84 39 01 00
	00		 je	 $LN4@SetListToo
  00092	6a 00		 push	 0
  00094	68 00 00 00 00	 push	 OFFSET ??_C@_01ICJEACDI@?$DL@
  00099	8d 4d 0c	 lea	 ecx, DWORD PTR _strObj$12[ebp]
  0009c	ff 15 00 00 00
	00		 call	 DWORD PTR __imp_?Find@?$CStringT@DV?$StrTraitMFC_DLL@DV?$ChTraitsCRT@D@ATL@@@@@ATL@@QBEHPBDH@Z
  000a2	85 c0		 test	 eax, eax
  000a4	0f 88 21 01 00
	00		 js	 $LN4@SetListToo

; 40   : 			CString strName = CDataConversion::GetStringData(strObj, ";");

  000aa	68 00 00 00 00	 push	 OFFSET ??_C@_01ICJEACDI@?$DL@
  000af	8d 4d ec	 lea	 ecx, DWORD PTR $T10[ebp]
  000b2	ff 15 00 00 00
	00		 call	 DWORD PTR __imp_??0?$CStringT@DV?$StrTraitMFC_DLL@DV?$ChTraitsCRT@D@ATL@@@@@ATL@@QAE@PBD@Z
  000b8	6a 01		 push	 1
  000ba	8d 45 ec	 lea	 eax, DWORD PTR $T10[ebp]
  000bd	c6 45 fc 04	 mov	 BYTE PTR __$EHRec$[ebp+8], 4
  000c1	50		 push	 eax
  000c2	8d 45 0c	 lea	 eax, DWORD PTR _strObj$12[ebp]
  000c5	50		 push	 eax
  000c6	8d 45 d8	 lea	 eax, DWORD PTR _strName$5[ebp]
  000c9	50		 push	 eax
  000ca	e8 00 00 00 00	 call	 ?GetStringData@CDataConversion@@SA?AV?$CStringT@DV?$StrTraitMFC_DLL@DV?$ChTraitsCRT@D@ATL@@@@@ATL@@AAV23@ABV23@_N@Z ; CDataConversion::GetStringData
  000cf	83 c4 10	 add	 esp, 16			; 00000010H
  000d2	8d 4d ec	 lea	 ecx, DWORD PTR $T10[ebp]
  000d5	c6 45 fc 06	 mov	 BYTE PTR __$EHRec$[ebp+8], 6
  000d9	ff 15 00 00 00
	00		 call	 DWORD PTR __imp_??1?$CStringT@DV?$StrTraitMFC_DLL@DV?$ChTraitsCRT@D@ATL@@@@@ATL@@QAE@XZ

; 41   : 			CString strOption1 = CDataConversion::GetStringData(strObj, ";");

  000df	68 00 00 00 00	 push	 OFFSET ??_C@_01ICJEACDI@?$DL@
  000e4	8d 4d e8	 lea	 ecx, DWORD PTR $T9[ebp]
  000e7	ff 15 00 00 00
	00		 call	 DWORD PTR __imp_??0?$CStringT@DV?$StrTraitMFC_DLL@DV?$ChTraitsCRT@D@ATL@@@@@ATL@@QAE@PBD@Z
  000ed	6a 01		 push	 1
  000ef	8d 45 e8	 lea	 eax, DWORD PTR $T9[ebp]
  000f2	c6 45 fc 07	 mov	 BYTE PTR __$EHRec$[ebp+8], 7
  000f6	50		 push	 eax
  000f7	8d 45 0c	 lea	 eax, DWORD PTR _strObj$12[ebp]
  000fa	50		 push	 eax
  000fb	8d 45 dc	 lea	 eax, DWORD PTR _strOption1$6[ebp]
  000fe	50		 push	 eax
  000ff	e8 00 00 00 00	 call	 ?GetStringData@CDataConversion@@SA?AV?$CStringT@DV?$StrTraitMFC_DLL@DV?$ChTraitsCRT@D@ATL@@@@@ATL@@AAV23@ABV23@_N@Z ; CDataConversion::GetStringData
  00104	83 c4 10	 add	 esp, 16			; 00000010H
  00107	8d 4d e8	 lea	 ecx, DWORD PTR $T9[ebp]
  0010a	c6 45 fc 09	 mov	 BYTE PTR __$EHRec$[ebp+8], 9
  0010e	ff 15 00 00 00
	00		 call	 DWORD PTR __imp_??1?$CStringT@DV?$StrTraitMFC_DLL@DV?$ChTraitsCRT@D@ATL@@@@@ATL@@QAE@XZ

; 42   : 			CString strOption2 = CDataConversion::GetStringData(strObj, ";");

  00114	68 00 00 00 00	 push	 OFFSET ??_C@_01ICJEACDI@?$DL@
  00119	8d 4d e4	 lea	 ecx, DWORD PTR $T8[ebp]
  0011c	ff 15 00 00 00
	00		 call	 DWORD PTR __imp_??0?$CStringT@DV?$StrTraitMFC_DLL@DV?$ChTraitsCRT@D@ATL@@@@@ATL@@QAE@PBD@Z
  00122	6a 01		 push	 1
  00124	8d 45 e4	 lea	 eax, DWORD PTR $T8[ebp]
  00127	c6 45 fc 0a	 mov	 BYTE PTR __$EHRec$[ebp+8], 10 ; 0000000aH
  0012b	50		 push	 eax
  0012c	8d 45 0c	 lea	 eax, DWORD PTR _strObj$12[ebp]
  0012f	50		 push	 eax
  00130	8d 45 e0	 lea	 eax, DWORD PTR _strOption2$7[ebp]
  00133	50		 push	 eax
  00134	e8 00 00 00 00	 call	 ?GetStringData@CDataConversion@@SA?AV?$CStringT@DV?$StrTraitMFC_DLL@DV?$ChTraitsCRT@D@ATL@@@@@ATL@@AAV23@ABV23@_N@Z ; CDataConversion::GetStringData
  00139	83 c4 10	 add	 esp, 16			; 00000010H
  0013c	8d 4d e4	 lea	 ecx, DWORD PTR $T8[ebp]
  0013f	c6 45 fc 0c	 mov	 BYTE PTR __$EHRec$[ebp+8], 12 ; 0000000cH
  00143	ff 15 00 00 00
	00		 call	 DWORD PTR __imp_??1?$CStringT@DV?$StrTraitMFC_DLL@DV?$ChTraitsCRT@D@ATL@@@@@ATL@@QAE@XZ
; File C:\Program Files (x86)\Microsoft Visual Studio\2019\Community\VC\Tools\MSVC\14.29.30133\atlmfc\include\afx.inl

; 116  : 	{ return ::operator new(nSize); }

  00149	6a 14		 push	 20			; 00000014H
  0014b	e8 00 00 00 00	 call	 ??2@YAPAXI@Z		; operator new
; File D:\git\src\IBK\IBK_DRFN\ProjSrc\SrcChartEx\ChartOCX\Include_Chart\ToolOption.cpp

; 43   : 			CObjTool * pObjTool = new CObjTool(strName, strOption1, strOption2);

  00150	8b f0		 mov	 esi, eax
; File C:\Program Files (x86)\Microsoft Visual Studio\2019\Community\VC\Tools\MSVC\14.29.30133\atlmfc\include\afx.inl

; 116  : 	{ return ::operator new(nSize); }

  00152	83 c4 04	 add	 esp, 4
; File D:\git\src\IBK\IBK_DRFN\ProjSrc\SrcChartEx\ChartOCX\Include_Chart\ToolOption.cpp

; 43   : 			CObjTool * pObjTool = new CObjTool(strName, strOption1, strOption2);

  00155	89 75 d4	 mov	 DWORD PTR $T4[ebp], esi
  00158	c6 45 fc 0d	 mov	 BYTE PTR __$EHRec$[ebp+8], 13 ; 0000000dH
  0015c	85 f6		 test	 esi, esi
  0015e	74 42		 je	 SHORT $LN6@SetListToo
  00160	51		 push	 ecx
  00161	8d 45 e0	 lea	 eax, DWORD PTR _strOption2$7[ebp]
  00164	89 65 d0	 mov	 DWORD PTR $T3[ebp], esp
  00167	8b cc		 mov	 ecx, esp
  00169	50		 push	 eax
  0016a	ff 15 00 00 00
	00		 call	 DWORD PTR __imp_??0?$CStringT@DV?$StrTraitMFC_DLL@DV?$ChTraitsCRT@D@ATL@@@@@ATL@@QAE@ABV01@@Z
  00170	51		 push	 ecx
  00171	8d 45 dc	 lea	 eax, DWORD PTR _strOption1$6[ebp]
  00174	89 65 cc	 mov	 DWORD PTR $T2[ebp], esp
  00177	8b cc		 mov	 ecx, esp
  00179	c6 45 fc 0e	 mov	 BYTE PTR __$EHRec$[ebp+8], 14 ; 0000000eH
  0017d	50		 push	 eax
  0017e	ff 15 00 00 00
	00		 call	 DWORD PTR __imp_??0?$CStringT@DV?$StrTraitMFC_DLL@DV?$ChTraitsCRT@D@ATL@@@@@ATL@@QAE@ABV01@@Z
  00184	51		 push	 ecx
  00185	8d 45 d8	 lea	 eax, DWORD PTR _strName$5[ebp]
  00188	c6 45 fc 0f	 mov	 BYTE PTR __$EHRec$[ebp+8], 15 ; 0000000fH
  0018c	8b cc		 mov	 ecx, esp
  0018e	50		 push	 eax
  0018f	ff 15 00 00 00
	00		 call	 DWORD PTR __imp_??0?$CStringT@DV?$StrTraitMFC_DLL@DV?$ChTraitsCRT@D@ATL@@@@@ATL@@QAE@ABV01@@Z
  00195	8b ce		 mov	 ecx, esi
  00197	c6 45 fc 0d	 mov	 BYTE PTR __$EHRec$[ebp+8], 13 ; 0000000dH
  0019b	e8 00 00 00 00	 call	 ??0CObjTool@@QAE@V?$CStringT@DV?$StrTraitMFC_DLL@DV?$ChTraitsCRT@D@ATL@@@@@ATL@@00@Z ; CObjTool::CObjTool
  001a0	eb 02		 jmp	 SHORT $LN7@SetListToo
$LN6@SetListToo:
  001a2	33 c0		 xor	 eax, eax
$LN7@SetListToo:
; File C:\Program Files (x86)\Microsoft Visual Studio\2019\Community\VC\Tools\MSVC\14.29.30133\atlmfc\include\afxtempl.h

; 1959 : 		{ return BASE_CLASS::AddTail(newElement); }

  001a4	50		 push	 eax
  001a5	8b cf		 mov	 ecx, edi
; File D:\git\src\IBK\IBK_DRFN\ProjSrc\SrcChartEx\ChartOCX\Include_Chart\ToolOption.cpp

; 43   : 			CObjTool * pObjTool = new CObjTool(strName, strOption1, strOption2);

  001a7	c6 45 fc 0c	 mov	 BYTE PTR __$EHRec$[ebp+8], 12 ; 0000000cH
; File C:\Program Files (x86)\Microsoft Visual Studio\2019\Community\VC\Tools\MSVC\14.29.30133\atlmfc\include\afxtempl.h

; 1959 : 		{ return BASE_CLASS::AddTail(newElement); }

  001ab	e8 00 00 00 00	 call	 ?AddTail@CObList@@QAEPAU__POSITION@@PAVCObject@@@Z ; CObList::AddTail
; File D:\git\src\IBK\IBK_DRFN\ProjSrc\SrcChartEx\ChartOCX\Include_Chart\ToolOption.cpp

; 45   : 		}

  001b0	8d 4d e0	 lea	 ecx, DWORD PTR _strOption2$7[ebp]
  001b3	ff 15 00 00 00
	00		 call	 DWORD PTR __imp_??1?$CStringT@DV?$StrTraitMFC_DLL@DV?$ChTraitsCRT@D@ATL@@@@@ATL@@QAE@XZ
  001b9	8d 4d dc	 lea	 ecx, DWORD PTR _strOption1$6[ebp]
  001bc	ff 15 00 00 00
	00		 call	 DWORD PTR __imp_??1?$CStringT@DV?$StrTraitMFC_DLL@DV?$ChTraitsCRT@D@ATL@@@@@ATL@@QAE@XZ
  001c2	8d 4d d8	 lea	 ecx, DWORD PTR _strName$5[ebp]
  001c5	ff 15 00 00 00
	00		 call	 DWORD PTR __imp_??1?$CStringT@DV?$StrTraitMFC_DLL@DV?$ChTraitsCRT@D@ATL@@@@@ATL@@QAE@XZ
$LN4@SetListToo:

; 46   : 	}

  001cb	8d 4d 0c	 lea	 ecx, DWORD PTR _strObj$12[ebp]
  001ce	c6 45 fc 00	 mov	 BYTE PTR __$EHRec$[ebp+8], 0
  001d2	ff 15 00 00 00
	00		 call	 DWORD PTR __imp_??1?$CStringT@DV?$StrTraitMFC_DLL@DV?$ChTraitsCRT@D@ATL@@@@@ATL@@QAE@XZ
; File C:\Program Files (x86)\Microsoft Visual Studio\2019\Community\VC\Tools\MSVC\14.29.30133\atlmfc\include\atlsimpstr.h

; 533  : 		return( GetLength() == 0 );

  001d8	8b 45 f0	 mov	 eax, DWORD PTR _strT$[ebp]
  001db	83 78 f4 00	 cmp	 DWORD PTR [eax-12], 0
; File D:\git\src\IBK\IBK_DRFN\ProjSrc\SrcChartEx\ChartOCX\Include_Chart\ToolOption.cpp

; 37   : 	while(!strT.IsEmpty())	{

  001df	0f 85 6b fe ff
	ff		 jne	 $LL2@SetListToo
$LN3@SetListToo:

; 47   : }

  001e5	8d 4d f0	 lea	 ecx, DWORD PTR _strT$[ebp]
  001e8	ff 15 00 00 00
	00		 call	 DWORD PTR __imp_??1?$CStringT@DV?$StrTraitMFC_DLL@DV?$ChTraitsCRT@D@ATL@@@@@ATL@@QAE@XZ
  001ee	8b 4d f4	 mov	 ecx, DWORD PTR __$EHRec$[ebp]
  001f1	64 89 0d 00 00
	00 00		 mov	 DWORD PTR fs:0, ecx
  001f8	59		 pop	 ecx
  001f9	5f		 pop	 edi
  001fa	5e		 pop	 esi
  001fb	8b e5		 mov	 esp, ebp
  001fd	5d		 pop	 ebp
  001fe	c2 08 00	 ret	 8
_TEXT	ENDS
;	COMDAT text$x
text$x	SEGMENT
__unwindfunclet$?SetListToolOption@CToolOption@@AAEXPAV?$CTypedPtrList@VCObList@@PAVCObjTool@@@@ABV?$CStringT@DV?$StrTraitMFC_DLL@DV?$ChTraitsCRT@D@ATL@@@@@ATL@@@Z$0:
  00000	8d 4d f0	 lea	 ecx, DWORD PTR _strT$[ebp]
  00003	ff 25 00 00 00
	00		 jmp	 DWORD PTR __imp_??1?$CStringT@DV?$StrTraitMFC_DLL@DV?$ChTraitsCRT@D@ATL@@@@@ATL@@QAE@XZ
__unwindfunclet$?SetListToolOption@CToolOption@@AAEXPAV?$CTypedPtrList@VCObList@@PAVCObjTool@@@@ABV?$CStringT@DV?$StrTraitMFC_DLL@DV?$ChTraitsCRT@D@ATL@@@@@ATL@@@Z$1:
  00009	8d 4d 08	 lea	 ecx, DWORD PTR $T11[ebp]
  0000c	ff 25 00 00 00
	00		 jmp	 DWORD PTR __imp_??1?$CStringT@DV?$StrTraitMFC_DLL@DV?$ChTraitsCRT@D@ATL@@@@@ATL@@QAE@XZ
__unwindfunclet$?SetListToolOption@CToolOption@@AAEXPAV?$CTypedPtrList@VCObList@@PAVCObjTool@@@@ABV?$CStringT@DV?$StrTraitMFC_DLL@DV?$ChTraitsCRT@D@ATL@@@@@ATL@@@Z$2:
  00012	8d 4d 0c	 lea	 ecx, DWORD PTR _strObj$12[ebp]
  00015	ff 25 00 00 00
	00		 jmp	 DWORD PTR __imp_??1?$CStringT@DV?$StrTraitMFC_DLL@DV?$ChTraitsCRT@D@ATL@@@@@ATL@@QAE@XZ
__unwindfunclet$?SetListToolOption@CToolOption@@AAEXPAV?$CTypedPtrList@VCObList@@PAVCObjTool@@@@ABV?$CStringT@DV?$StrTraitMFC_DLL@DV?$ChTraitsCRT@D@ATL@@@@@ATL@@@Z$3:
  0001b	8d 4d ec	 lea	 ecx, DWORD PTR $T10[ebp]
  0001e	ff 25 00 00 00
	00		 jmp	 DWORD PTR __imp_??1?$CStringT@DV?$StrTraitMFC_DLL@DV?$ChTraitsCRT@D@ATL@@@@@ATL@@QAE@XZ
__unwindfunclet$?SetListToolOption@CToolOption@@AAEXPAV?$CTypedPtrList@VCObList@@PAVCObjTool@@@@ABV?$CStringT@DV?$StrTraitMFC_DLL@DV?$ChTraitsCRT@D@ATL@@@@@ATL@@@Z$4:
  00024	8d 4d d8	 lea	 ecx, DWORD PTR _strName$5[ebp]
  00027	ff 25 00 00 00
	00		 jmp	 DWORD PTR __imp_??1?$CStringT@DV?$StrTraitMFC_DLL@DV?$ChTraitsCRT@D@ATL@@@@@ATL@@QAE@XZ
__unwindfunclet$?SetListToolOption@CToolOption@@AAEXPAV?$CTypedPtrList@VCObList@@PAVCObjTool@@@@ABV?$CStringT@DV?$StrTraitMFC_DLL@DV?$ChTraitsCRT@D@ATL@@@@@ATL@@@Z$5:
  0002d	8d 4d e8	 lea	 ecx, DWORD PTR $T9[ebp]
  00030	ff 25 00 00 00
	00		 jmp	 DWORD PTR __imp_??1?$CStringT@DV?$StrTraitMFC_DLL@DV?$ChTraitsCRT@D@ATL@@@@@ATL@@QAE@XZ
__unwindfunclet$?SetListToolOption@CToolOption@@AAEXPAV?$CTypedPtrList@VCObList@@PAVCObjTool@@@@ABV?$CStringT@DV?$StrTraitMFC_DLL@DV?$ChTraitsCRT@D@ATL@@@@@ATL@@@Z$6:
  00036	8d 4d dc	 lea	 ecx, DWORD PTR _strOption1$6[ebp]
  00039	ff 25 00 00 00
	00		 jmp	 DWORD PTR __imp_??1?$CStringT@DV?$StrTraitMFC_DLL@DV?$ChTraitsCRT@D@ATL@@@@@ATL@@QAE@XZ
__unwindfunclet$?SetListToolOption@CToolOption@@AAEXPAV?$CTypedPtrList@VCObList@@PAVCObjTool@@@@ABV?$CStringT@DV?$StrTraitMFC_DLL@DV?$ChTraitsCRT@D@ATL@@@@@ATL@@@Z$7:
  0003f	8d 4d e4	 lea	 ecx, DWORD PTR $T8[ebp]
  00042	ff 25 00 00 00
	00		 jmp	 DWORD PTR __imp_??1?$CStringT@DV?$StrTraitMFC_DLL@DV?$ChTraitsCRT@D@ATL@@@@@ATL@@QAE@XZ
__unwindfunclet$?SetListToolOption@CToolOption@@AAEXPAV?$CTypedPtrList@VCObList@@PAVCObjTool@@@@ABV?$CStringT@DV?$StrTraitMFC_DLL@DV?$ChTraitsCRT@D@ATL@@@@@ATL@@@Z$8:
  00048	8d 4d e0	 lea	 ecx, DWORD PTR _strOption2$7[ebp]
  0004b	ff 25 00 00 00
	00		 jmp	 DWORD PTR __imp_??1?$CStringT@DV?$StrTraitMFC_DLL@DV?$ChTraitsCRT@D@ATL@@@@@ATL@@QAE@XZ
__unwindfunclet$?SetListToolOption@CToolOption@@AAEXPAV?$CTypedPtrList@VCObList@@PAVCObjTool@@@@ABV?$CStringT@DV?$StrTraitMFC_DLL@DV?$ChTraitsCRT@D@ATL@@@@@ATL@@@Z$9:
  00051	8b 45 d4	 mov	 eax, DWORD PTR $T4[ebp]
  00054	50		 push	 eax
  00055	e8 00 00 00 00	 call	 ??3CObject@@SGXPAX@Z	; CObject::operator delete
  0005a	c3		 ret	 0
__unwindfunclet$?SetListToolOption@CToolOption@@AAEXPAV?$CTypedPtrList@VCObList@@PAVCObjTool@@@@ABV?$CStringT@DV?$StrTraitMFC_DLL@DV?$ChTraitsCRT@D@ATL@@@@@ATL@@@Z$10:
  0005b	8b 4d d0	 mov	 ecx, DWORD PTR $T3[ebp]
  0005e	ff 25 00 00 00
	00		 jmp	 DWORD PTR __imp_??1?$CStringT@DV?$StrTraitMFC_DLL@DV?$ChTraitsCRT@D@ATL@@@@@ATL@@QAE@XZ
__unwindfunclet$?SetListToolOption@CToolOption@@AAEXPAV?$CTypedPtrList@VCObList@@PAVCObjTool@@@@ABV?$CStringT@DV?$StrTraitMFC_DLL@DV?$ChTraitsCRT@D@ATL@@@@@ATL@@@Z$11:
  00064	8b 4d cc	 mov	 ecx, DWORD PTR $T2[ebp]
  00067	ff 25 00 00 00
	00		 jmp	 DWORD PTR __imp_??1?$CStringT@DV?$StrTraitMFC_DLL@DV?$ChTraitsCRT@D@ATL@@@@@ATL@@QAE@XZ
  0006d	cc		 int	 3
  0006e	cc		 int	 3
  0006f	cc		 int	 3
  00070	cc		 int	 3
  00071	cc		 int	 3
__ehhandler$?SetListToolOption@CToolOption@@AAEXPAV?$CTypedPtrList@VCObList@@PAVCObjTool@@@@ABV?$CStringT@DV?$StrTraitMFC_DLL@DV?$ChTraitsCRT@D@ATL@@@@@ATL@@@Z:
  00072	90		 npad	 1
  00073	90		 npad	 1
  00074	8b 54 24 08	 mov	 edx, DWORD PTR [esp+8]
  00078	8d 42 0c	 lea	 eax, DWORD PTR [edx+12]
  0007b	8b 4a c8	 mov	 ecx, DWORD PTR [edx-56]
  0007e	33 c8		 xor	 ecx, eax
  00080	e8 00 00 00 00	 call	 @__security_check_cookie@4
  00085	b8 00 00 00 00	 mov	 eax, OFFSET __ehfuncinfo$?SetListToolOption@CToolOption@@AAEXPAV?$CTypedPtrList@VCObList@@PAVCObjTool@@@@ABV?$CStringT@DV?$StrTraitMFC_DLL@DV?$ChTraitsCRT@D@ATL@@@@@ATL@@@Z
  0008a	e9 00 00 00 00	 jmp	 ___CxxFrameHandler3
text$x	ENDS
?SetListToolOption@CToolOption@@AAEXPAV?$CTypedPtrList@VCObList@@PAVCObjTool@@@@ABV?$CStringT@DV?$StrTraitMFC_DLL@DV?$ChTraitsCRT@D@ATL@@@@@ATL@@@Z ENDP ; CToolOption::SetListToolOption
; Function compile flags: /Ogtp
; File D:\git\src\IBK\IBK_DRFN\ProjSrc\SrcChartEx\ChartOCX\Include_Chart\ToolOption.cpp
; File C:\Program Files (x86)\Microsoft Visual Studio\2019\Community\VC\Tools\MSVC\14.29.30133\atlmfc\include\afxcoll.inl
; File D:\git\src\IBK\IBK_DRFN\ProjSrc\SrcChartEx\ChartOCX\Include_Chart\ToolOption.cpp
; File C:\Program Files (x86)\Microsoft Visual Studio\2019\Community\VC\Tools\MSVC\14.29.30133\atlmfc\include\afxcoll.inl
; File D:\git\src\IBK\IBK_DRFN\ProjSrc\SrcChartEx\ChartOCX\Include_Chart\ToolOption.cpp
; File C:\Program Files (x86)\Microsoft Visual Studio\2019\Community\VC\Tools\MSVC\14.29.30133\atlmfc\include\afxcoll.inl
; File D:\git\src\IBK\IBK_DRFN\ProjSrc\SrcChartEx\ChartOCX\Include_Chart\ToolOption.cpp
;	COMDAT ?DeleteAll@CToolOption@@AAEXXZ
_TEXT	SEGMENT
?DeleteAll@CToolOption@@AAEXXZ PROC			; CToolOption::DeleteAll, COMDAT
; _this$ = ecx

; 56   : {

  00000	56		 push	 esi
  00001	57		 push	 edi
  00002	8b f9		 mov	 edi, ecx

; 57   : 	POSITION pos = lstToolInner.GetHeadPosition();

  00004	8b 77 08	 mov	 esi, DWORD PTR [edi+8]

; 58   : 	while(pos){

  00007	85 f6		 test	 esi, esi
  00009	74 19		 je	 SHORT $LN3@DeleteAll
  0000b	0f 1f 44 00 00	 npad	 5
$LL2@DeleteAll:

; 60   : 		delete pToolInner;

  00010	8b 4e 08	 mov	 ecx, DWORD PTR [esi+8]
; File C:\Program Files (x86)\Microsoft Visual Studio\2019\Community\VC\Tools\MSVC\14.29.30133\atlmfc\include\afxcoll.inl

; 432  : 		rPosition = (POSITION) pNode->pNext;

  00013	8b 36		 mov	 esi, DWORD PTR [esi]
; File D:\git\src\IBK\IBK_DRFN\ProjSrc\SrcChartEx\ChartOCX\Include_Chart\ToolOption.cpp

; 60   : 		delete pToolInner;

  00015	85 c9		 test	 ecx, ecx
  00017	74 07		 je	 SHORT $LN9@DeleteAll
  00019	8b 01		 mov	 eax, DWORD PTR [ecx]
  0001b	6a 01		 push	 1
  0001d	ff 50 04	 call	 DWORD PTR [eax+4]
$LN9@DeleteAll:

; 58   : 	while(pos){

  00020	85 f6		 test	 esi, esi
  00022	75 ec		 jne	 SHORT $LL2@DeleteAll
$LN3@DeleteAll:

; 61   : 		pToolInner = NULL;
; 62   : 	}
; 63   : 	lstToolInner.RemoveAll();

  00024	8d 4f 04	 lea	 ecx, DWORD PTR [edi+4]
  00027	e8 00 00 00 00	 call	 ?RemoveAll@CObList@@QAEXXZ ; CObList::RemoveAll

; 64   : 
; 65   : 	pos = lstToolOuter.GetHeadPosition();

  0002c	8b 77 24	 mov	 esi, DWORD PTR [edi+36]

; 66   : 	while(pos){

  0002f	85 f6		 test	 esi, esi
  00031	74 14		 je	 SHORT $LN5@DeleteAll
$LL4@DeleteAll:

; 68   : 		delete pToolOut;

  00033	8b 4e 08	 mov	 ecx, DWORD PTR [esi+8]
; File C:\Program Files (x86)\Microsoft Visual Studio\2019\Community\VC\Tools\MSVC\14.29.30133\atlmfc\include\afxcoll.inl

; 432  : 		rPosition = (POSITION) pNode->pNext;

  00036	8b 36		 mov	 esi, DWORD PTR [esi]
; File D:\git\src\IBK\IBK_DRFN\ProjSrc\SrcChartEx\ChartOCX\Include_Chart\ToolOption.cpp

; 68   : 		delete pToolOut;

  00038	85 c9		 test	 ecx, ecx
  0003a	74 07		 je	 SHORT $LN11@DeleteAll
  0003c	8b 01		 mov	 eax, DWORD PTR [ecx]
  0003e	6a 01		 push	 1
  00040	ff 50 04	 call	 DWORD PTR [eax+4]
$LN11@DeleteAll:

; 66   : 	while(pos){

  00043	85 f6		 test	 esi, esi
  00045	75 ec		 jne	 SHORT $LL4@DeleteAll
$LN5@DeleteAll:

; 69   : 		pToolOut = NULL;
; 70   : 	}
; 71   : 	lstToolOuter.RemoveAll();

  00047	8d 4f 20	 lea	 ecx, DWORD PTR [edi+32]
  0004a	e8 00 00 00 00	 call	 ?RemoveAll@CObList@@QAEXXZ ; CObList::RemoveAll

; 72   : 
; 73   : 	pos = lstToolMenu.GetHeadPosition();

  0004f	8b 77 40	 mov	 esi, DWORD PTR [edi+64]

; 74   : 	while(pos){

  00052	85 f6		 test	 esi, esi
  00054	74 14		 je	 SHORT $LN7@DeleteAll
$LL6@DeleteAll:

; 76   : 		delete pToolMenu;

  00056	8b 4e 08	 mov	 ecx, DWORD PTR [esi+8]
; File C:\Program Files (x86)\Microsoft Visual Studio\2019\Community\VC\Tools\MSVC\14.29.30133\atlmfc\include\afxcoll.inl

; 432  : 		rPosition = (POSITION) pNode->pNext;

  00059	8b 36		 mov	 esi, DWORD PTR [esi]
; File D:\git\src\IBK\IBK_DRFN\ProjSrc\SrcChartEx\ChartOCX\Include_Chart\ToolOption.cpp

; 76   : 		delete pToolMenu;

  0005b	85 c9		 test	 ecx, ecx
  0005d	74 07		 je	 SHORT $LN13@DeleteAll
  0005f	8b 01		 mov	 eax, DWORD PTR [ecx]
  00061	6a 01		 push	 1
  00063	ff 50 04	 call	 DWORD PTR [eax+4]
$LN13@DeleteAll:

; 74   : 	while(pos){

  00066	85 f6		 test	 esi, esi
  00068	75 ec		 jne	 SHORT $LL6@DeleteAll
$LN7@DeleteAll:

; 77   : 		pToolMenu = NULL;
; 78   : 	}
; 79   : 	lstToolMenu.RemoveAll();

  0006a	8d 4f 3c	 lea	 ecx, DWORD PTR [edi+60]
  0006d	5f		 pop	 edi
  0006e	5e		 pop	 esi
  0006f	e9 00 00 00 00	 jmp	 ?RemoveAll@CObList@@QAEXXZ ; CObList::RemoveAll
?DeleteAll@CToolOption@@AAEXXZ ENDP			; CToolOption::DeleteAll
_TEXT	ENDS
; Function compile flags: /Ogtp
; File D:\git\src\IBK\IBK_DRFN\ProjSrc\SrcChartEx\ChartOCX\Include_Chart\ToolOption.cpp
; File C:\Program Files (x86)\Microsoft Visual Studio\2019\Community\VC\Tools\MSVC\14.29.30133\atlmfc\include\cstringt.h
; File D:\git\src\IBK\IBK_DRFN\ProjSrc\SrcChartEx\ChartOCX\Include_Chart\ToolOption.cpp
; File C:\Program Files (x86)\Microsoft Visual Studio\2019\Community\VC\Tools\MSVC\14.29.30133\atlmfc\include\cstringt.h
; File C:\Program Files (x86)\Microsoft Visual Studio\2019\Community\VC\Tools\MSVC\14.29.30133\atlmfc\include\atlsimpstr.h
; File C:\Program Files (x86)\Microsoft Visual Studio\2019\Community\VC\Tools\MSVC\14.29.30133\atlmfc\include\cstringt.h
; File D:\git\src\IBK\IBK_DRFN\ProjSrc\SrcChartEx\ChartOCX\Include_Chart\ToolOption.cpp
;	COMDAT ?SetAll@CToolOption@@AAEXABV?$CStringT@DV?$StrTraitMFC_DLL@DV?$ChTraitsCRT@D@ATL@@@@@ATL@@@Z
_TEXT	SEGMENT
$T2 = -36						; size = 4
$T3 = -36						; size = 4
$T4 = -32						; size = 4
_strInner$ = -28					; size = 4
_strMenu$ = -24						; size = 4
$T5 = -20						; size = 4
$T6 = -20						; size = 4
_strOut$ = -16						; size = 4
__$EHRec$ = -12						; size = 12
_szToolbarOption$ = 8					; size = 4
_strToolbarOption$ = 8					; size = 4
?SetAll@CToolOption@@AAEXABV?$CStringT@DV?$StrTraitMFC_DLL@DV?$ChTraitsCRT@D@ATL@@@@@ATL@@@Z PROC ; CToolOption::SetAll, COMDAT
; _this$ = ecx

; 83   : {

  00000	55		 push	 ebp
  00001	8b ec		 mov	 ebp, esp
  00003	6a ff		 push	 -1
  00005	68 00 00 00 00	 push	 __ehhandler$?SetAll@CToolOption@@AAEXABV?$CStringT@DV?$StrTraitMFC_DLL@DV?$ChTraitsCRT@D@ATL@@@@@ATL@@@Z
  0000a	64 a1 00 00 00
	00		 mov	 eax, DWORD PTR fs:0
  00010	50		 push	 eax
  00011	83 ec 18	 sub	 esp, 24			; 00000018H
  00014	56		 push	 esi
  00015	57		 push	 edi
  00016	a1 00 00 00 00	 mov	 eax, DWORD PTR ___security_cookie
  0001b	33 c5		 xor	 eax, ebp
  0001d	50		 push	 eax
  0001e	8d 45 f4	 lea	 eax, DWORD PTR __$EHRec$[ebp]
  00021	64 a3 00 00 00
	00		 mov	 DWORD PTR fs:0, eax
  00027	8b f9		 mov	 edi, ecx
  00029	c7 45 e0 00 00
	00 00		 mov	 DWORD PTR $T4[ebp], 0

; 84   : 	CString szToolbarOption = strToolbarOption;

  00030	8d 4d 08	 lea	 ecx, DWORD PTR _szToolbarOption$[ebp]
  00033	ff 75 08	 push	 DWORD PTR _strToolbarOption$[ebp]
  00036	ff 15 00 00 00
	00		 call	 DWORD PTR __imp_??0?$CStringT@DV?$StrTraitMFC_DLL@DV?$ChTraitsCRT@D@ATL@@@@@ATL@@QAE@ABV01@@Z

; 85   : 	CString strInner = CDataConversion::GetStringData(szToolbarOption, CString( _MTEXT( C4_OUTER_TOOL_OPTION)) + "\r\n");

  0003c	a1 54 00 00 00	 mov	 eax, DWORD PTR ?g_iMetaTable@@3VIMetaTable@@A+84
  00041	8d 4d dc	 lea	 ecx, DWORD PTR $T3[ebp]
  00044	c7 45 fc 00 00
	00 00		 mov	 DWORD PTR __$EHRec$[ebp+8], 0
  0004b	ff b0 54 0e 00
	00		 push	 DWORD PTR [eax+3668]
  00051	ff 15 00 00 00
	00		 call	 DWORD PTR __imp_??0?$CStringT@DV?$StrTraitMFC_DLL@DV?$ChTraitsCRT@D@ATL@@@@@ATL@@QAE@PBD@Z
  00057	8b f0		 mov	 esi, eax
; File C:\Program Files (x86)\Microsoft Visual Studio\2019\Community\VC\Tools\MSVC\14.29.30133\atlmfc\include\cstringt.h

; 2401 : 		CStringT strResult( str1.GetManager() );

  00059	8b ce		 mov	 ecx, esi
; File D:\git\src\IBK\IBK_DRFN\ProjSrc\SrcChartEx\ChartOCX\Include_Chart\ToolOption.cpp

; 85   : 	CString strInner = CDataConversion::GetStringData(szToolbarOption, CString( _MTEXT( C4_OUTER_TOOL_OPTION)) + "\r\n");

  0005b	c6 45 fc 02	 mov	 BYTE PTR __$EHRec$[ebp+8], 2
; File C:\Program Files (x86)\Microsoft Visual Studio\2019\Community\VC\Tools\MSVC\14.29.30133\atlmfc\include\cstringt.h

; 2401 : 		CStringT strResult( str1.GetManager() );

  0005f	ff 15 00 00 00
	00		 call	 DWORD PTR __imp_?GetManager@?$CStringT@DV?$StrTraitMFC_DLL@DV?$ChTraitsCRT@D@ATL@@@@@ATL@@QBEPAUIAtlStringMgr@2@XZ
  00065	50		 push	 eax
  00066	8d 4d ec	 lea	 ecx, DWORD PTR $T6[ebp]
  00069	ff 15 00 00 00
	00		 call	 DWORD PTR __imp_??0?$CStringT@DV?$StrTraitMFC_DLL@DV?$ChTraitsCRT@D@ATL@@@@@ATL@@QAE@PAUIAtlStringMgr@1@@Z
; File C:\Program Files (x86)\Microsoft Visual Studio\2019\Community\VC\Tools\MSVC\14.29.30133\atlmfc\include\atlsimpstr.h

; 519  : 		return( GetData()->nDataLength );

  0006f	8b 06		 mov	 eax, DWORD PTR [esi]
; File C:\Program Files (x86)\Microsoft Visual Studio\2019\Community\VC\Tools\MSVC\14.29.30133\atlmfc\include\cstringt.h

; 2403 : 		CThisSimpleString::Concatenate( strResult, str1, str1.GetLength(), psz2, CThisSimpleString::StringLength( psz2 ) );

  00071	6a 02		 push	 2
  00073	68 00 00 00 00	 push	 OFFSET ??_C@_02PCIJFNDE@?$AN?6@

; 2404 : 
; 2405 : 		return( strResult );

  00078	c7 45 e0 01 00
	00 00		 mov	 DWORD PTR $T4[ebp], 1
  0007f	ff 70 f4	 push	 DWORD PTR [eax-12]
  00082	50		 push	 eax
  00083	8d 45 ec	 lea	 eax, DWORD PTR $T6[ebp]
  00086	50		 push	 eax
  00087	ff 15 00 00 00
	00		 call	 DWORD PTR __imp_?Concatenate@?$CSimpleStringT@D$00@ATL@@KAXAAV12@PBDH1H@Z
; File D:\git\src\IBK\IBK_DRFN\ProjSrc\SrcChartEx\ChartOCX\Include_Chart\ToolOption.cpp

; 85   : 	CString strInner = CDataConversion::GetStringData(szToolbarOption, CString( _MTEXT( C4_OUTER_TOOL_OPTION)) + "\r\n");

  0008d	6a 01		 push	 1
  0008f	8d 45 ec	 lea	 eax, DWORD PTR $T6[ebp]
  00092	50		 push	 eax
  00093	8d 45 08	 lea	 eax, DWORD PTR _szToolbarOption$[ebp]
  00096	50		 push	 eax
  00097	8d 45 e4	 lea	 eax, DWORD PTR _strInner$[ebp]
  0009a	50		 push	 eax
  0009b	e8 00 00 00 00	 call	 ?GetStringData@CDataConversion@@SA?AV?$CStringT@DV?$StrTraitMFC_DLL@DV?$ChTraitsCRT@D@ATL@@@@@ATL@@AAV23@ABV23@_N@Z ; CDataConversion::GetStringData
  000a0	83 c4 24	 add	 esp, 36			; 00000024H
  000a3	8d 4d ec	 lea	 ecx, DWORD PTR $T6[ebp]
  000a6	ff 15 00 00 00
	00		 call	 DWORD PTR __imp_??1?$CStringT@DV?$StrTraitMFC_DLL@DV?$ChTraitsCRT@D@ATL@@@@@ATL@@QAE@XZ
  000ac	8d 4d dc	 lea	 ecx, DWORD PTR $T3[ebp]
  000af	c6 45 fc 05	 mov	 BYTE PTR __$EHRec$[ebp+8], 5
  000b3	ff 15 00 00 00
	00		 call	 DWORD PTR __imp_??1?$CStringT@DV?$StrTraitMFC_DLL@DV?$ChTraitsCRT@D@ATL@@@@@ATL@@QAE@XZ

; 86   : 	SetListToolOption(&lstToolInner, strInner);

  000b9	8d 45 e4	 lea	 eax, DWORD PTR _strInner$[ebp]
  000bc	8b cf		 mov	 ecx, edi
  000be	50		 push	 eax
  000bf	8d 47 04	 lea	 eax, DWORD PTR [edi+4]
  000c2	50		 push	 eax
  000c3	e8 00 00 00 00	 call	 ?SetListToolOption@CToolOption@@AAEXPAV?$CTypedPtrList@VCObList@@PAVCObjTool@@@@ABV?$CStringT@DV?$StrTraitMFC_DLL@DV?$ChTraitsCRT@D@ATL@@@@@ATL@@@Z ; CToolOption::SetListToolOption

; 87   : 
; 88   : 	// (2004.04.09, )   , RButton ToolOption .
; 89   : 	//		 "RButton" Separator   .  .
; 90   : 	CString strOut;

  000c8	8d 4d f0	 lea	 ecx, DWORD PTR _strOut$[ebp]
  000cb	ff 15 00 00 00
	00		 call	 DWORD PTR __imp_??0?$CStringT@DV?$StrTraitMFC_DLL@DV?$ChTraitsCRT@D@ATL@@@@@ATL@@QAE@XZ

; 91   : 	if( 0 <= szToolbarOption.Find( "RButton"))

  000d1	6a 00		 push	 0
  000d3	68 00 00 00 00	 push	 OFFSET ??_C@_07FFFPJHPP@RButton@
  000d8	8d 4d 08	 lea	 ecx, DWORD PTR _szToolbarOption$[ebp]
  000db	c6 45 fc 06	 mov	 BYTE PTR __$EHRec$[ebp+8], 6
  000df	ff 15 00 00 00
	00		 call	 DWORD PTR __imp_?Find@?$CStringT@DV?$StrTraitMFC_DLL@DV?$ChTraitsCRT@D@ATL@@@@@ATL@@QBEHPBDH@Z
  000e5	85 c0		 test	 eax, eax
  000e7	78 4e		 js	 SHORT $LN2@SetAll

; 92   : 		strOut = CDataConversion::GetStringData(szToolbarOption, "RButton\r\n");

  000e9	68 00 00 00 00	 push	 OFFSET ??_C@_09PHINFBD@RButton?$AN?6@
  000ee	8d 4d ec	 lea	 ecx, DWORD PTR $T5[ebp]
  000f1	ff 15 00 00 00
	00		 call	 DWORD PTR __imp_??0?$CStringT@DV?$StrTraitMFC_DLL@DV?$ChTraitsCRT@D@ATL@@@@@ATL@@QAE@PBD@Z
  000f7	6a 01		 push	 1
  000f9	8d 45 ec	 lea	 eax, DWORD PTR $T5[ebp]
  000fc	c6 45 fc 07	 mov	 BYTE PTR __$EHRec$[ebp+8], 7
  00100	50		 push	 eax
  00101	8d 45 08	 lea	 eax, DWORD PTR _szToolbarOption$[ebp]
  00104	50		 push	 eax
  00105	8d 45 dc	 lea	 eax, DWORD PTR $T2[ebp]
  00108	50		 push	 eax
  00109	e8 00 00 00 00	 call	 ?GetStringData@CDataConversion@@SA?AV?$CStringT@DV?$StrTraitMFC_DLL@DV?$ChTraitsCRT@D@ATL@@@@@ATL@@AAV23@ABV23@_N@Z ; CDataConversion::GetStringData
  0010e	83 c4 10	 add	 esp, 16			; 00000010H
  00111	50		 push	 eax
  00112	8d 4d f0	 lea	 ecx, DWORD PTR _strOut$[ebp]
  00115	c6 45 fc 08	 mov	 BYTE PTR __$EHRec$[ebp+8], 8
  00119	ff 15 00 00 00
	00		 call	 DWORD PTR __imp_??4?$CStringT@DV?$StrTraitMFC_DLL@DV?$ChTraitsCRT@D@ATL@@@@@ATL@@QAEAAV01@ABV01@@Z
  0011f	8d 4d dc	 lea	 ecx, DWORD PTR $T2[ebp]
  00122	ff 15 00 00 00
	00		 call	 DWORD PTR __imp_??1?$CStringT@DV?$StrTraitMFC_DLL@DV?$ChTraitsCRT@D@ATL@@@@@ATL@@QAE@XZ
  00128	8d 4d ec	 lea	 ecx, DWORD PTR $T5[ebp]
  0012b	c6 45 fc 06	 mov	 BYTE PTR __$EHRec$[ebp+8], 6
  0012f	ff 15 00 00 00
	00		 call	 DWORD PTR __imp_??1?$CStringT@DV?$StrTraitMFC_DLL@DV?$ChTraitsCRT@D@ATL@@@@@ATL@@QAE@XZ
  00135	eb 16		 jmp	 SHORT $LN3@SetAll
$LN2@SetAll:

; 93   : 	else
; 94   : 	{
; 95   : 		strOut = szToolbarOption;

  00137	8d 45 08	 lea	 eax, DWORD PTR _szToolbarOption$[ebp]
  0013a	50		 push	 eax
  0013b	8d 4d f0	 lea	 ecx, DWORD PTR _strOut$[ebp]
  0013e	ff 15 00 00 00
	00		 call	 DWORD PTR __imp_??4?$CStringT@DV?$StrTraitMFC_DLL@DV?$ChTraitsCRT@D@ATL@@@@@ATL@@QAEAAV01@ABV01@@Z

; 96   : 		szToolbarOption.Empty();

  00144	8d 4d 08	 lea	 ecx, DWORD PTR _szToolbarOption$[ebp]
  00147	ff 15 00 00 00
	00		 call	 DWORD PTR __imp_?Empty@?$CSimpleStringT@D$00@ATL@@QAEXXZ
$LN3@SetAll:

; 97   : 	}
; 98   : 	
; 99   : 	SetListToolOption(&lstToolOuter, strOut);

  0014d	8d 45 f0	 lea	 eax, DWORD PTR _strOut$[ebp]
  00150	8b cf		 mov	 ecx, edi
  00152	50		 push	 eax
  00153	8d 47 20	 lea	 eax, DWORD PTR [edi+32]
  00156	50		 push	 eax
  00157	e8 00 00 00 00	 call	 ?SetListToolOption@CToolOption@@AAEXPAV?$CTypedPtrList@VCObList@@PAVCObjTool@@@@ABV?$CStringT@DV?$StrTraitMFC_DLL@DV?$ChTraitsCRT@D@ATL@@@@@ATL@@@Z ; CToolOption::SetListToolOption

; 100  : 	CString strMenu = szToolbarOption;

  0015c	8d 45 08	 lea	 eax, DWORD PTR _szToolbarOption$[ebp]
  0015f	50		 push	 eax
  00160	8d 4d e8	 lea	 ecx, DWORD PTR _strMenu$[ebp]
  00163	ff 15 00 00 00
	00		 call	 DWORD PTR __imp_??0?$CStringT@DV?$StrTraitMFC_DLL@DV?$ChTraitsCRT@D@ATL@@@@@ATL@@QAE@ABV01@@Z

; 101  : 	SetListToolOption(&lstToolMenu, strMenu);

  00169	8d 45 e8	 lea	 eax, DWORD PTR _strMenu$[ebp]
  0016c	c6 45 fc 09	 mov	 BYTE PTR __$EHRec$[ebp+8], 9
  00170	50		 push	 eax
  00171	8d 47 3c	 lea	 eax, DWORD PTR [edi+60]
  00174	8b cf		 mov	 ecx, edi
  00176	50		 push	 eax
  00177	e8 00 00 00 00	 call	 ?SetListToolOption@CToolOption@@AAEXPAV?$CTypedPtrList@VCObList@@PAVCObjTool@@@@ABV?$CStringT@DV?$StrTraitMFC_DLL@DV?$ChTraitsCRT@D@ATL@@@@@ATL@@@Z ; CToolOption::SetListToolOption

; 102  : }

  0017c	8d 4d e8	 lea	 ecx, DWORD PTR _strMenu$[ebp]
  0017f	ff 15 00 00 00
	00		 call	 DWORD PTR __imp_??1?$CStringT@DV?$StrTraitMFC_DLL@DV?$ChTraitsCRT@D@ATL@@@@@ATL@@QAE@XZ
  00185	8d 4d f0	 lea	 ecx, DWORD PTR _strOut$[ebp]
  00188	ff 15 00 00 00
	00		 call	 DWORD PTR __imp_??1?$CStringT@DV?$StrTraitMFC_DLL@DV?$ChTraitsCRT@D@ATL@@@@@ATL@@QAE@XZ
  0018e	8d 4d e4	 lea	 ecx, DWORD PTR _strInner$[ebp]
  00191	ff 15 00 00 00
	00		 call	 DWORD PTR __imp_??1?$CStringT@DV?$StrTraitMFC_DLL@DV?$ChTraitsCRT@D@ATL@@@@@ATL@@QAE@XZ
  00197	8d 4d 08	 lea	 ecx, DWORD PTR _szToolbarOption$[ebp]
  0019a	ff 15 00 00 00
	00		 call	 DWORD PTR __imp_??1?$CStringT@DV?$StrTraitMFC_DLL@DV?$ChTraitsCRT@D@ATL@@@@@ATL@@QAE@XZ
  001a0	8b 4d f4	 mov	 ecx, DWORD PTR __$EHRec$[ebp]
  001a3	64 89 0d 00 00
	00 00		 mov	 DWORD PTR fs:0, ecx
  001aa	59		 pop	 ecx
  001ab	5f		 pop	 edi
  001ac	5e		 pop	 esi
  001ad	8b e5		 mov	 esp, ebp
  001af	5d		 pop	 ebp
  001b0	c2 04 00	 ret	 4
_TEXT	ENDS
;	COMDAT text$x
text$x	SEGMENT
__unwindfunclet$?SetAll@CToolOption@@AAEXABV?$CStringT@DV?$StrTraitMFC_DLL@DV?$ChTraitsCRT@D@ATL@@@@@ATL@@@Z$0:
  00000	8d 4d 08	 lea	 ecx, DWORD PTR _szToolbarOption$[ebp]
  00003	ff 25 00 00 00
	00		 jmp	 DWORD PTR __imp_??1?$CStringT@DV?$StrTraitMFC_DLL@DV?$ChTraitsCRT@D@ATL@@@@@ATL@@QAE@XZ
__unwindfunclet$?SetAll@CToolOption@@AAEXABV?$CStringT@DV?$StrTraitMFC_DLL@DV?$ChTraitsCRT@D@ATL@@@@@ATL@@@Z$1:
  00009	8d 4d dc	 lea	 ecx, DWORD PTR $T3[ebp]
  0000c	ff 25 00 00 00
	00		 jmp	 DWORD PTR __imp_??1?$CStringT@DV?$StrTraitMFC_DLL@DV?$ChTraitsCRT@D@ATL@@@@@ATL@@QAE@XZ
__unwindfunclet$?SetAll@CToolOption@@AAEXABV?$CStringT@DV?$StrTraitMFC_DLL@DV?$ChTraitsCRT@D@ATL@@@@@ATL@@@Z$8:
  00012	8b 45 e0	 mov	 eax, DWORD PTR $T4[ebp]
  00015	83 e0 01	 and	 eax, 1
  00018	0f 84 0d 00 00
	00		 je	 $LN16@SetAll
  0001e	83 65 e0 fe	 and	 DWORD PTR $T4[ebp], -2	; fffffffeH
  00022	8d 4d ec	 lea	 ecx, DWORD PTR $T6[ebp]
  00025	ff 25 00 00 00
	00		 jmp	 DWORD PTR __imp_??1?$CStringT@DV?$StrTraitMFC_DLL@DV?$ChTraitsCRT@D@ATL@@@@@ATL@@QAE@XZ
$LN16@SetAll:
  0002b	c3		 ret	 0
__unwindfunclet$?SetAll@CToolOption@@AAEXABV?$CStringT@DV?$StrTraitMFC_DLL@DV?$ChTraitsCRT@D@ATL@@@@@ATL@@@Z$3:
  0002c	8d 4d e4	 lea	 ecx, DWORD PTR _strInner$[ebp]
  0002f	ff 25 00 00 00
	00		 jmp	 DWORD PTR __imp_??1?$CStringT@DV?$StrTraitMFC_DLL@DV?$ChTraitsCRT@D@ATL@@@@@ATL@@QAE@XZ
__unwindfunclet$?SetAll@CToolOption@@AAEXABV?$CStringT@DV?$StrTraitMFC_DLL@DV?$ChTraitsCRT@D@ATL@@@@@ATL@@@Z$4:
  00035	8d 4d f0	 lea	 ecx, DWORD PTR _strOut$[ebp]
  00038	ff 25 00 00 00
	00		 jmp	 DWORD PTR __imp_??1?$CStringT@DV?$StrTraitMFC_DLL@DV?$ChTraitsCRT@D@ATL@@@@@ATL@@QAE@XZ
__unwindfunclet$?SetAll@CToolOption@@AAEXABV?$CStringT@DV?$StrTraitMFC_DLL@DV?$ChTraitsCRT@D@ATL@@@@@ATL@@@Z$5:
  0003e	8d 4d ec	 lea	 ecx, DWORD PTR $T5[ebp]
  00041	ff 25 00 00 00
	00		 jmp	 DWORD PTR __imp_??1?$CStringT@DV?$StrTraitMFC_DLL@DV?$ChTraitsCRT@D@ATL@@@@@ATL@@QAE@XZ
__unwindfunclet$?SetAll@CToolOption@@AAEXABV?$CStringT@DV?$StrTraitMFC_DLL@DV?$ChTraitsCRT@D@ATL@@@@@ATL@@@Z$6:
  00047	8d 4d dc	 lea	 ecx, DWORD PTR $T2[ebp]
  0004a	ff 25 00 00 00
	00		 jmp	 DWORD PTR __imp_??1?$CStringT@DV?$StrTraitMFC_DLL@DV?$ChTraitsCRT@D@ATL@@@@@ATL@@QAE@XZ
__unwindfunclet$?SetAll@CToolOption@@AAEXABV?$CStringT@DV?$StrTraitMFC_DLL@DV?$ChTraitsCRT@D@ATL@@@@@ATL@@@Z$7:
  00050	8d 4d e8	 lea	 ecx, DWORD PTR _strMenu$[ebp]
  00053	ff 25 00 00 00
	00		 jmp	 DWORD PTR __imp_??1?$CStringT@DV?$StrTraitMFC_DLL@DV?$ChTraitsCRT@D@ATL@@@@@ATL@@QAE@XZ
  00059	cc		 int	 3
  0005a	cc		 int	 3
  0005b	cc		 int	 3
  0005c	cc		 int	 3
  0005d	cc		 int	 3
__ehhandler$?SetAll@CToolOption@@AAEXABV?$CStringT@DV?$StrTraitMFC_DLL@DV?$ChTraitsCRT@D@ATL@@@@@ATL@@@Z:
  0005e	90		 npad	 1
  0005f	90		 npad	 1
  00060	8b 54 24 08	 mov	 edx, DWORD PTR [esp+8]
  00064	8d 42 0c	 lea	 eax, DWORD PTR [edx+12]
  00067	8b 4a dc	 mov	 ecx, DWORD PTR [edx-36]
  0006a	33 c8		 xor	 ecx, eax
  0006c	e8 00 00 00 00	 call	 @__security_check_cookie@4
  00071	b8 00 00 00 00	 mov	 eax, OFFSET __ehfuncinfo$?SetAll@CToolOption@@AAEXABV?$CStringT@DV?$StrTraitMFC_DLL@DV?$ChTraitsCRT@D@ATL@@@@@ATL@@@Z
  00076	e9 00 00 00 00	 jmp	 ___CxxFrameHandler3
text$x	ENDS
?SetAll@CToolOption@@AAEXABV?$CStringT@DV?$StrTraitMFC_DLL@DV?$ChTraitsCRT@D@ATL@@@@@ATL@@@Z ENDP ; CToolOption::SetAll
; Function compile flags: /Ogtp
; File D:\git\src\IBK\IBK_DRFN\ProjSrc\SrcChartEx\ChartOCX\Include_Chart\ToolOption.cpp
; File C:\Program Files (x86)\Microsoft Visual Studio\2019\Community\VC\Tools\MSVC\14.29.30133\atlmfc\include\afxcoll.inl
; File D:\git\src\IBK\IBK_DRFN\ProjSrc\SrcChartEx\ChartOCX\Include_Chart\ToolOption.cpp
;	COMDAT ?DeleteTool@CToolOption@@AAEHPAV?$CTypedPtrList@VCObList@@PAVCObjTool@@@@W4TOOLOPTION@CToolOptionInfo@@@Z
_TEXT	SEGMENT
_plstToolOption$ = 8					; size = 4
_nToolType$ = 12					; size = 4
?DeleteTool@CToolOption@@AAEHPAV?$CTypedPtrList@VCObList@@PAVCObjTool@@@@W4TOOLOPTION@CToolOptionInfo@@@Z PROC ; CToolOption::DeleteTool, COMDAT
; _this$ = ecx

; 241  : {

  00000	55		 push	 ebp
  00001	8b ec		 mov	 ebp, esp

; 242  : 	POSITION pos = plstToolOption->GetHeadPosition();

  00003	8b 55 08	 mov	 edx, DWORD PTR _plstToolOption$[ebp]
  00006	56		 push	 esi
  00007	8b 42 04	 mov	 eax, DWORD PTR [edx+4]

; 243  : 	while(pos)	{

  0000a	85 c0		 test	 eax, eax
  0000c	74 11		 je	 SHORT $LN3@DeleteTool
  0000e	8b 4d 0c	 mov	 ecx, DWORD PTR _nToolType$[ebp]
$LL2@DeleteTool:

; 244  : 		CObjTool * pTool = plstToolOption->GetAt(pos);

  00011	8b 70 08	 mov	 esi, DWORD PTR [eax+8]

; 245  : 		if(pTool->GetType() == nToolType)	{

  00014	39 4e 10	 cmp	 DWORD PTR [esi+16], ecx
  00017	74 0d		 je	 SHORT $LN23@DeleteTool
; File C:\Program Files (x86)\Microsoft Visual Studio\2019\Community\VC\Tools\MSVC\14.29.30133\atlmfc\include\afxcoll.inl

; 432  : 		rPosition = (POSITION) pNode->pNext;

  00019	8b 00		 mov	 eax, DWORD PTR [eax]
; File D:\git\src\IBK\IBK_DRFN\ProjSrc\SrcChartEx\ChartOCX\Include_Chart\ToolOption.cpp

; 243  : 	while(pos)	{

  0001b	85 c0		 test	 eax, eax
  0001d	75 f2		 jne	 SHORT $LL2@DeleteTool
$LN3@DeleteTool:

; 250  : 		}
; 251  : 		plstToolOption->GetNext(pos);
; 252  : 	}
; 253  : 	return FALSE;

  0001f	33 c0		 xor	 eax, eax
  00021	5e		 pop	 esi

; 254  : }

  00022	5d		 pop	 ebp
  00023	c2 08 00	 ret	 8
$LN23@DeleteTool:

; 246  : 			plstToolOption->RemoveAt(pos);

  00026	50		 push	 eax
  00027	8b ca		 mov	 ecx, edx
  00029	e8 00 00 00 00	 call	 ?RemoveAt@CObList@@QAEXPAU__POSITION@@@Z ; CObList::RemoveAt

; 247  : 			delete pTool;

  0002e	8b 06		 mov	 eax, DWORD PTR [esi]
  00030	8b ce		 mov	 ecx, esi
  00032	6a 01		 push	 1
  00034	ff 50 04	 call	 DWORD PTR [eax+4]

; 248  : 			pTool = NULL;
; 249  : 			return TRUE;

  00037	b8 01 00 00 00	 mov	 eax, 1
  0003c	5e		 pop	 esi

; 254  : }

  0003d	5d		 pop	 ebp
  0003e	c2 08 00	 ret	 8
?DeleteTool@CToolOption@@AAEHPAV?$CTypedPtrList@VCObList@@PAVCObjTool@@@@W4TOOLOPTION@CToolOptionInfo@@@Z ENDP ; CToolOption::DeleteTool
_TEXT	ENDS
; Function compile flags: /Ogtp
; File D:\git\src\IBK\IBK_DRFN\ProjSrc\SrcChartEx\ChartOCX\Include_Chart\ToolOption.cpp
;	COMDAT ??1CToolOption@@UAE@XZ
_TEXT	SEGMENT
__$EHRec$ = -12						; size = 12
??1CToolOption@@UAE@XZ PROC				; CToolOption::~CToolOption, COMDAT
; _this$ = ecx

; 29   : {

  00000	55		 push	 ebp
  00001	8b ec		 mov	 ebp, esp
  00003	6a ff		 push	 -1
  00005	68 00 00 00 00	 push	 __ehhandler$??1CToolOption@@UAE@XZ
  0000a	64 a1 00 00 00
	00		 mov	 eax, DWORD PTR fs:0
  00010	50		 push	 eax
  00011	56		 push	 esi
  00012	a1 00 00 00 00	 mov	 eax, DWORD PTR ___security_cookie
  00017	33 c5		 xor	 eax, ebp
  00019	50		 push	 eax
  0001a	8d 45 f4	 lea	 eax, DWORD PTR __$EHRec$[ebp]
  0001d	64 a3 00 00 00
	00		 mov	 DWORD PTR fs:0, eax
  00023	8b f1		 mov	 esi, ecx
  00025	c7 06 00 00 00
	00		 mov	 DWORD PTR [esi], OFFSET ??_7CToolOption@@6B@

; 30   : 	DeleteAll();

  0002b	e8 00 00 00 00	 call	 ?DeleteAll@CToolOption@@AAEXXZ ; CToolOption::DeleteAll

; 31   : }

  00030	8d 4e 3c	 lea	 ecx, DWORD PTR [esi+60]
  00033	e8 00 00 00 00	 call	 ??1CObList@@UAE@XZ	; CObList::~CObList
  00038	8d 4e 20	 lea	 ecx, DWORD PTR [esi+32]
  0003b	e8 00 00 00 00	 call	 ??1CObList@@UAE@XZ	; CObList::~CObList
  00040	8d 4e 04	 lea	 ecx, DWORD PTR [esi+4]
  00043	e8 00 00 00 00	 call	 ??1CObList@@UAE@XZ	; CObList::~CObList
  00048	8b 4d f4	 mov	 ecx, DWORD PTR __$EHRec$[ebp]
  0004b	64 89 0d 00 00
	00 00		 mov	 DWORD PTR fs:0, ecx
  00052	59		 pop	 ecx
  00053	5e		 pop	 esi
  00054	8b e5		 mov	 esp, ebp
  00056	5d		 pop	 ebp
  00057	c3		 ret	 0
  00058	cc		 int	 3
  00059	cc		 int	 3
  0005a	cc		 int	 3
  0005b	cc		 int	 3
  0005c	cc		 int	 3
_TEXT	ENDS
;	COMDAT text$x
text$x	SEGMENT
__ehhandler$??1CToolOption@@UAE@XZ:
  00000	90		 npad	 1
  00001	90		 npad	 1
  00002	8b 54 24 08	 mov	 edx, DWORD PTR [esp+8]
  00006	8d 42 0c	 lea	 eax, DWORD PTR [edx+12]
  00009	8b 4a f8	 mov	 ecx, DWORD PTR [edx-8]
  0000c	33 c8		 xor	 ecx, eax
  0000e	e8 00 00 00 00	 call	 @__security_check_cookie@4
  00013	b8 00 00 00 00	 mov	 eax, OFFSET __ehfuncinfo$??1CToolOption@@UAE@XZ
  00018	e9 00 00 00 00	 jmp	 ___CxxFrameHandler3
text$x	ENDS
??1CToolOption@@UAE@XZ ENDP				; CToolOption::~CToolOption
; Function compile flags: /Ogtp
; File D:\git\src\IBK\IBK_DRFN\ProjSrc\SrcChartEx\ChartOCX\Include_Chart\ToolOption.cpp
; File C:\Program Files (x86)\Microsoft Visual Studio\2019\Community\VC\Tools\MSVC\14.29.30133\atlmfc\include\afxtempl.h
; File D:\git\src\IBK\IBK_DRFN\ProjSrc\SrcChartEx\ChartOCX\Include_Chart\ToolOption.cpp
; File C:\Program Files (x86)\Microsoft Visual Studio\2019\Community\VC\Tools\MSVC\14.29.30133\atlmfc\include\afxtempl.h
; File D:\git\src\IBK\IBK_DRFN\ProjSrc\SrcChartEx\ChartOCX\Include_Chart\ToolOption.cpp
; File C:\Program Files (x86)\Microsoft Visual Studio\2019\Community\VC\Tools\MSVC\14.29.30133\atlmfc\include\afxtempl.h
; File D:\git\src\IBK\IBK_DRFN\ProjSrc\SrcChartEx\ChartOCX\Include_Chart\ToolOption.cpp
; File C:\Program Files (x86)\Microsoft Visual Studio\2019\Community\VC\Tools\MSVC\14.29.30133\atlmfc\include\afxtempl.h
; File D:\git\src\IBK\IBK_DRFN\ProjSrc\SrcChartEx\ChartOCX\Include_Chart\ToolOption.cpp
; File C:\Program Files (x86)\Microsoft Visual Studio\2019\Community\VC\Tools\MSVC\14.29.30133\atlmfc\include\afxtempl.h
; File D:\git\src\IBK\IBK_DRFN\ProjSrc\SrcChartEx\ChartOCX\Include_Chart\ToolOption.cpp
; File C:\Program Files (x86)\Microsoft Visual Studio\2019\Community\VC\Tools\MSVC\14.29.30133\atlmfc\include\afxtempl.h
; File D:\git\src\IBK\IBK_DRFN\ProjSrc\SrcChartEx\ChartOCX\Include_Chart\ToolOption.cpp
;	COMDAT ??0CToolOption@@QAE@V?$CStringT@DV?$StrTraitMFC_DLL@DV?$ChTraitsCRT@D@ATL@@@@@ATL@@@Z
_TEXT	SEGMENT
_this$ = -20						; size = 4
_this$ = -20						; size = 4
_this$ = -20						; size = 4
_this$ = -16						; size = 4
__$EHRec$ = -12						; size = 12
_strToolOption$ = 8					; size = 4
??0CToolOption@@QAE@V?$CStringT@DV?$StrTraitMFC_DLL@DV?$ChTraitsCRT@D@ATL@@@@@ATL@@@Z PROC ; CToolOption::CToolOption, COMDAT
; _this$ = ecx

; 24   : {

  00000	55		 push	 ebp
  00001	8b ec		 mov	 ebp, esp
  00003	6a ff		 push	 -1
  00005	68 00 00 00 00	 push	 __ehhandler$??0CToolOption@@QAE@V?$CStringT@DV?$StrTraitMFC_DLL@DV?$ChTraitsCRT@D@ATL@@@@@ATL@@@Z
  0000a	64 a1 00 00 00
	00		 mov	 eax, DWORD PTR fs:0
  00010	50		 push	 eax
  00011	83 ec 08	 sub	 esp, 8
  00014	56		 push	 esi
  00015	57		 push	 edi
  00016	a1 00 00 00 00	 mov	 eax, DWORD PTR ___security_cookie
  0001b	33 c5		 xor	 eax, ebp
  0001d	50		 push	 eax
  0001e	8d 45 f4	 lea	 eax, DWORD PTR __$EHRec$[ebp]
  00021	64 a3 00 00 00
	00		 mov	 DWORD PTR fs:0, eax
  00027	8b f9		 mov	 edi, ecx
  00029	89 7d f0	 mov	 DWORD PTR _this$[ebp], edi
  0002c	8d 77 04	 lea	 esi, DWORD PTR [edi+4]
  0002f	c7 45 fc 00 00
	00 00		 mov	 DWORD PTR __$EHRec$[ebp+8], 0
; File C:\Program Files (x86)\Microsoft Visual Studio\2019\Community\VC\Tools\MSVC\14.29.30133\atlmfc\include\afxtempl.h

; 1876 : 		: BASE_CLASS(nBlockSize) { }

  00036	6a 0a		 push	 10			; 0000000aH
  00038	8b ce		 mov	 ecx, esi
; File D:\git\src\IBK\IBK_DRFN\ProjSrc\SrcChartEx\ChartOCX\Include_Chart\ToolOption.cpp

; 24   : {

  0003a	c7 07 00 00 00
	00		 mov	 DWORD PTR [edi], OFFSET ??_7CToolOption@@6B@
  00040	89 75 ec	 mov	 DWORD PTR _this$[ebp], esi
; File C:\Program Files (x86)\Microsoft Visual Studio\2019\Community\VC\Tools\MSVC\14.29.30133\atlmfc\include\afxtempl.h

; 1876 : 		: BASE_CLASS(nBlockSize) { }

  00043	e8 00 00 00 00	 call	 ??0CObList@@QAE@H@Z	; CObList::CObList

; 1953 : 		: _CTypedPtrList<BASE_CLASS, TYPE>(nBlockSize) { }

  00048	c7 06 00 00 00
	00		 mov	 DWORD PTR [esi], OFFSET ??_7?$CTypedPtrList@VCObList@@PAVCObjTool@@@@6B@
; File D:\git\src\IBK\IBK_DRFN\ProjSrc\SrcChartEx\ChartOCX\Include_Chart\ToolOption.cpp

; 24   : {

  0004e	8d 77 20	 lea	 esi, DWORD PTR [edi+32]
  00051	c6 45 fc 01	 mov	 BYTE PTR __$EHRec$[ebp+8], 1
; File C:\Program Files (x86)\Microsoft Visual Studio\2019\Community\VC\Tools\MSVC\14.29.30133\atlmfc\include\afxtempl.h

; 1876 : 		: BASE_CLASS(nBlockSize) { }

  00055	6a 0a		 push	 10			; 0000000aH
  00057	8b ce		 mov	 ecx, esi
; File D:\git\src\IBK\IBK_DRFN\ProjSrc\SrcChartEx\ChartOCX\Include_Chart\ToolOption.cpp

; 24   : {

  00059	89 75 ec	 mov	 DWORD PTR _this$[ebp], esi
; File C:\Program Files (x86)\Microsoft Visual Studio\2019\Community\VC\Tools\MSVC\14.29.30133\atlmfc\include\afxtempl.h

; 1876 : 		: BASE_CLASS(nBlockSize) { }

  0005c	e8 00 00 00 00	 call	 ??0CObList@@QAE@H@Z	; CObList::CObList

; 1953 : 		: _CTypedPtrList<BASE_CLASS, TYPE>(nBlockSize) { }

  00061	c7 06 00 00 00
	00		 mov	 DWORD PTR [esi], OFFSET ??_7?$CTypedPtrList@VCObList@@PAVCObjTool@@@@6B@
; File D:\git\src\IBK\IBK_DRFN\ProjSrc\SrcChartEx\ChartOCX\Include_Chart\ToolOption.cpp

; 24   : {

  00067	8d 77 3c	 lea	 esi, DWORD PTR [edi+60]
  0006a	c6 45 fc 02	 mov	 BYTE PTR __$EHRec$[ebp+8], 2
; File C:\Program Files (x86)\Microsoft Visual Studio\2019\Community\VC\Tools\MSVC\14.29.30133\atlmfc\include\afxtempl.h

; 1876 : 		: BASE_CLASS(nBlockSize) { }

  0006e	6a 0a		 push	 10			; 0000000aH
  00070	8b ce		 mov	 ecx, esi
; File D:\git\src\IBK\IBK_DRFN\ProjSrc\SrcChartEx\ChartOCX\Include_Chart\ToolOption.cpp

; 24   : {

  00072	89 75 ec	 mov	 DWORD PTR _this$[ebp], esi
; File C:\Program Files (x86)\Microsoft Visual Studio\2019\Community\VC\Tools\MSVC\14.29.30133\atlmfc\include\afxtempl.h

; 1876 : 		: BASE_CLASS(nBlockSize) { }

  00075	e8 00 00 00 00	 call	 ??0CObList@@QAE@H@Z	; CObList::CObList

; 1953 : 		: _CTypedPtrList<BASE_CLASS, TYPE>(nBlockSize) { }

  0007a	c7 06 00 00 00
	00		 mov	 DWORD PTR [esi], OFFSET ??_7?$CTypedPtrList@VCObList@@PAVCObjTool@@@@6B@
; File D:\git\src\IBK\IBK_DRFN\ProjSrc\SrcChartEx\ChartOCX\Include_Chart\ToolOption.cpp

; 25   : 	SetAll(strToolOption);

  00080	8d 45 08	 lea	 eax, DWORD PTR _strToolOption$[ebp]
  00083	c6 45 fc 03	 mov	 BYTE PTR __$EHRec$[ebp+8], 3
  00087	50		 push	 eax
  00088	8b cf		 mov	 ecx, edi
  0008a	e8 00 00 00 00	 call	 ?SetAll@CToolOption@@AAEXABV?$CStringT@DV?$StrTraitMFC_DLL@DV?$ChTraitsCRT@D@ATL@@@@@ATL@@@Z ; CToolOption::SetAll

; 26   : }

  0008f	8d 4d 08	 lea	 ecx, DWORD PTR _strToolOption$[ebp]
  00092	ff 15 00 00 00
	00		 call	 DWORD PTR __imp_??1?$CStringT@DV?$StrTraitMFC_DLL@DV?$ChTraitsCRT@D@ATL@@@@@ATL@@QAE@XZ
  00098	8b c7		 mov	 eax, edi
  0009a	8b 4d f4	 mov	 ecx, DWORD PTR __$EHRec$[ebp]
  0009d	64 89 0d 00 00
	00 00		 mov	 DWORD PTR fs:0, ecx
  000a4	59		 pop	 ecx
  000a5	5f		 pop	 edi
  000a6	5e		 pop	 esi
  000a7	8b e5		 mov	 esp, ebp
  000a9	5d		 pop	 ebp
  000aa	c2 04 00	 ret	 4
_TEXT	ENDS
;	COMDAT text$x
text$x	SEGMENT
__unwindfunclet$??0CToolOption@@QAE@V?$CStringT@DV?$StrTraitMFC_DLL@DV?$ChTraitsCRT@D@ATL@@@@@ATL@@@Z$0:
  00000	8d 4d 08	 lea	 ecx, DWORD PTR _strToolOption$[ebp]
  00003	ff 25 00 00 00
	00		 jmp	 DWORD PTR __imp_??1?$CStringT@DV?$StrTraitMFC_DLL@DV?$ChTraitsCRT@D@ATL@@@@@ATL@@QAE@XZ
__unwindfunclet$??0CToolOption@@QAE@V?$CStringT@DV?$StrTraitMFC_DLL@DV?$ChTraitsCRT@D@ATL@@@@@ATL@@@Z$1:
  00009	8b 4d f0	 mov	 ecx, DWORD PTR _this$[ebp]
  0000c	83 c1 04	 add	 ecx, 4
  0000f	e9 00 00 00 00	 jmp	 ??1?$CTypedPtrList@VCObList@@PAVCObjTool@@@@UAE@XZ
__unwindfunclet$??0CToolOption@@QAE@V?$CStringT@DV?$StrTraitMFC_DLL@DV?$ChTraitsCRT@D@ATL@@@@@ATL@@@Z$2:
  00014	8b 4d f0	 mov	 ecx, DWORD PTR _this$[ebp]
  00017	83 c1 20	 add	 ecx, 32			; 00000020H
  0001a	e9 00 00 00 00	 jmp	 ??1?$CTypedPtrList@VCObList@@PAVCObjTool@@@@UAE@XZ
__unwindfunclet$??0CToolOption@@QAE@V?$CStringT@DV?$StrTraitMFC_DLL@DV?$ChTraitsCRT@D@ATL@@@@@ATL@@@Z$3:
  0001f	8b 4d f0	 mov	 ecx, DWORD PTR _this$[ebp]
  00022	83 c1 3c	 add	 ecx, 60			; 0000003cH
  00025	e9 00 00 00 00	 jmp	 ??1?$CTypedPtrList@VCObList@@PAVCObjTool@@@@UAE@XZ
  0002a	cc		 int	 3
  0002b	cc		 int	 3
  0002c	cc		 int	 3
  0002d	cc		 int	 3
  0002e	cc		 int	 3
__ehhandler$??0CToolOption@@QAE@V?$CStringT@DV?$StrTraitMFC_DLL@DV?$ChTraitsCRT@D@ATL@@@@@ATL@@@Z:
  0002f	90		 npad	 1
  00030	90		 npad	 1
  00031	8b 54 24 08	 mov	 edx, DWORD PTR [esp+8]
  00035	8d 42 0c	 lea	 eax, DWORD PTR [edx+12]
  00038	8b 4a ec	 mov	 ecx, DWORD PTR [edx-20]
  0003b	33 c8		 xor	 ecx, eax
  0003d	e8 00 00 00 00	 call	 @__security_check_cookie@4
  00042	b8 00 00 00 00	 mov	 eax, OFFSET __ehfuncinfo$??0CToolOption@@QAE@V?$CStringT@DV?$StrTraitMFC_DLL@DV?$ChTraitsCRT@D@ATL@@@@@ATL@@@Z
  00047	e9 00 00 00 00	 jmp	 ___CxxFrameHandler3
text$x	ENDS
??0CToolOption@@QAE@V?$CStringT@DV?$StrTraitMFC_DLL@DV?$ChTraitsCRT@D@ATL@@@@@ATL@@@Z ENDP ; CToolOption::CToolOption
; Function compile flags: /Ogtp
; File D:\git\src\IBK\IBK_DRFN\ProjSrc\SrcChartEx\ChartOCX\Include_Chart\ToolOption.cpp
;	COMDAT ?Reset@CToolOption@@QAEXV?$CStringT@DV?$StrTraitMFC_DLL@DV?$ChTraitsCRT@D@ATL@@@@@ATL@@@Z
_TEXT	SEGMENT
__$EHRec$ = -12						; size = 12
_strToolOption$ = 8					; size = 4
?Reset@CToolOption@@QAEXV?$CStringT@DV?$StrTraitMFC_DLL@DV?$ChTraitsCRT@D@ATL@@@@@ATL@@@Z PROC ; CToolOption::Reset, COMDAT
; _this$ = ecx

; 50   : {

  00000	55		 push	 ebp
  00001	8b ec		 mov	 ebp, esp
  00003	6a ff		 push	 -1
  00005	68 00 00 00 00	 push	 __ehhandler$?Reset@CToolOption@@QAEXV?$CStringT@DV?$StrTraitMFC_DLL@DV?$ChTraitsCRT@D@ATL@@@@@ATL@@@Z
  0000a	64 a1 00 00 00
	00		 mov	 eax, DWORD PTR fs:0
  00010	50		 push	 eax
  00011	56		 push	 esi
  00012	a1 00 00 00 00	 mov	 eax, DWORD PTR ___security_cookie
  00017	33 c5		 xor	 eax, ebp
  00019	50		 push	 eax
  0001a	8d 45 f4	 lea	 eax, DWORD PTR __$EHRec$[ebp]
  0001d	64 a3 00 00 00
	00		 mov	 DWORD PTR fs:0, eax
  00023	8b f1		 mov	 esi, ecx
  00025	c7 45 fc 00 00
	00 00		 mov	 DWORD PTR __$EHRec$[ebp+8], 0

; 51   : 	DeleteAll();

  0002c	e8 00 00 00 00	 call	 ?DeleteAll@CToolOption@@AAEXXZ ; CToolOption::DeleteAll

; 52   : 	SetAll(strToolOption);	

  00031	8d 45 08	 lea	 eax, DWORD PTR _strToolOption$[ebp]
  00034	8b ce		 mov	 ecx, esi
  00036	50		 push	 eax
  00037	e8 00 00 00 00	 call	 ?SetAll@CToolOption@@AAEXABV?$CStringT@DV?$StrTraitMFC_DLL@DV?$ChTraitsCRT@D@ATL@@@@@ATL@@@Z ; CToolOption::SetAll

; 53   : }

  0003c	8d 4d 08	 lea	 ecx, DWORD PTR _strToolOption$[ebp]
  0003f	ff 15 00 00 00
	00		 call	 DWORD PTR __imp_??1?$CStringT@DV?$StrTraitMFC_DLL@DV?$ChTraitsCRT@D@ATL@@@@@ATL@@QAE@XZ
  00045	8b 4d f4	 mov	 ecx, DWORD PTR __$EHRec$[ebp]
  00048	64 89 0d 00 00
	00 00		 mov	 DWORD PTR fs:0, ecx
  0004f	59		 pop	 ecx
  00050	5e		 pop	 esi
  00051	8b e5		 mov	 esp, ebp
  00053	5d		 pop	 ebp
  00054	c2 04 00	 ret	 4
_TEXT	ENDS
;	COMDAT text$x
text$x	SEGMENT
__unwindfunclet$?Reset@CToolOption@@QAEXV?$CStringT@DV?$StrTraitMFC_DLL@DV?$ChTraitsCRT@D@ATL@@@@@ATL@@@Z$0:
  00000	8d 4d 08	 lea	 ecx, DWORD PTR _strToolOption$[ebp]
  00003	ff 25 00 00 00
	00		 jmp	 DWORD PTR __imp_??1?$CStringT@DV?$StrTraitMFC_DLL@DV?$ChTraitsCRT@D@ATL@@@@@ATL@@QAE@XZ
  00009	cc		 int	 3
  0000a	cc		 int	 3
  0000b	cc		 int	 3
  0000c	cc		 int	 3
  0000d	cc		 int	 3
__ehhandler$?Reset@CToolOption@@QAEXV?$CStringT@DV?$StrTraitMFC_DLL@DV?$ChTraitsCRT@D@ATL@@@@@ATL@@@Z:
  0000e	90		 npad	 1
  0000f	90		 npad	 1
  00010	8b 54 24 08	 mov	 edx, DWORD PTR [esp+8]
  00014	8d 42 0c	 lea	 eax, DWORD PTR [edx+12]
  00017	8b 4a f8	 mov	 ecx, DWORD PTR [edx-8]
  0001a	33 c8		 xor	 ecx, eax
  0001c	e8 00 00 00 00	 call	 @__security_check_cookie@4
  00021	b8 00 00 00 00	 mov	 eax, OFFSET __ehfuncinfo$?Reset@CToolOption@@QAEXV?$CStringT@DV?$StrTraitMFC_DLL@DV?$ChTraitsCRT@D@ATL@@@@@ATL@@@Z
  00026	e9 00 00 00 00	 jmp	 ___CxxFrameHandler3
text$x	ENDS
?Reset@CToolOption@@QAEXV?$CStringT@DV?$StrTraitMFC_DLL@DV?$ChTraitsCRT@D@ATL@@@@@ATL@@@Z ENDP ; CToolOption::Reset
; Function compile flags: /Ogtp
; File D:\git\src\IBK\IBK_DRFN\ProjSrc\SrcChartEx\ChartOCX\Include_Chart\ToolOption.cpp
;	COMDAT ?GetToolOptionList@CToolOption@@QAEPAV?$CTypedPtrList@VCObList@@PAVCObjTool@@@@W4OPTION@CToolOptionInfo@@@Z
_TEXT	SEGMENT
_nOption$ = 8						; size = 4
?GetToolOptionList@CToolOption@@QAEPAV?$CTypedPtrList@VCObList@@PAVCObjTool@@@@W4OPTION@CToolOptionInfo@@@Z PROC ; CToolOption::GetToolOptionList, COMDAT
; _this$ = ecx

; 105  : {

  00000	55		 push	 ebp
  00001	8b ec		 mov	 ebp, esp

; 106  : 	switch(nOption)	{

  00003	8b 45 08	 mov	 eax, DWORD PTR _nOption$[ebp]
  00006	83 e8 00	 sub	 eax, 0
  00009	74 1e		 je	 SHORT $LN4@GetToolOpt
  0000b	83 e8 01	 sub	 eax, 1
  0000e	74 12		 je	 SHORT $LN5@GetToolOpt
  00010	83 e8 01	 sub	 eax, 1
  00013	74 06		 je	 SHORT $LN6@GetToolOpt

; 115  : 		break;
; 116  : 	default:
; 117  : 		return NULL;

  00015	33 c0		 xor	 eax, eax

; 118  : 		break;
; 119  : 	}	
; 120  : }

  00017	5d		 pop	 ebp
  00018	c2 04 00	 ret	 4
$LN6@GetToolOpt:

; 112  : 		break;
; 113  : 	case CToolOptionInfo::MENU:
; 114  : 		return &lstToolMenu;

  0001b	8d 41 3c	 lea	 eax, DWORD PTR [ecx+60]

; 118  : 		break;
; 119  : 	}	
; 120  : }

  0001e	5d		 pop	 ebp
  0001f	c2 04 00	 ret	 4
$LN5@GetToolOpt:

; 109  : 		break;
; 110  : 	case CToolOptionInfo::OUTER:
; 111  : 		return &lstToolOuter;

  00022	8d 41 20	 lea	 eax, DWORD PTR [ecx+32]

; 118  : 		break;
; 119  : 	}	
; 120  : }

  00025	5d		 pop	 ebp
  00026	c2 04 00	 ret	 4
$LN4@GetToolOpt:

; 107  : 	case CToolOptionInfo::INNER:
; 108  : 		return &lstToolInner;

  00029	8d 41 04	 lea	 eax, DWORD PTR [ecx+4]

; 118  : 		break;
; 119  : 	}	
; 120  : }

  0002c	5d		 pop	 ebp
  0002d	c2 04 00	 ret	 4
?GetToolOptionList@CToolOption@@QAEPAV?$CTypedPtrList@VCObList@@PAVCObjTool@@@@W4OPTION@CToolOptionInfo@@@Z ENDP ; CToolOption::GetToolOptionList
_TEXT	ENDS
; Function compile flags: /Ogtp
; File D:\git\src\IBK\IBK_DRFN\ProjSrc\SrcChartEx\ChartOCX\Include_Chart\ToolOption.cpp
; File C:\Program Files (x86)\Microsoft Visual Studio\2019\Community\VC\Tools\MSVC\14.29.30133\atlmfc\include\atlsimpstr.h
; File D:\git\src\IBK\IBK_DRFN\ProjSrc\SrcChartEx\ChartOCX\Include_Chart\ToolOption.cpp
; File D:\git\src\IBK\IBK_DRFN\ProjSrc\SrcChartEx\ChartOCX\Include_Chart\ObjTool.h
; File C:\Program Files (x86)\Microsoft Visual Studio\2019\Community\VC\Tools\MSVC\14.29.30133\atlmfc\include\afxcoll.inl
; File D:\git\src\IBK\IBK_DRFN\ProjSrc\SrcChartEx\ChartOCX\Include_Chart\ObjTool.h
; File C:\Program Files (x86)\Microsoft Visual Studio\2019\Community\VC\Tools\MSVC\14.29.30133\atlmfc\include\cstringt.h
; File D:\git\src\IBK\IBK_DRFN\ProjSrc\SrcChartEx\ChartOCX\Include_Chart\ToolOption.cpp
; File C:\Program Files (x86)\Microsoft Visual Studio\2019\Community\VC\Tools\MSVC\14.29.30133\atlmfc\include\cstringt.h
; File D:\git\src\IBK\IBK_DRFN\ProjSrc\SrcChartEx\ChartOCX\Include_Chart\ToolOption.cpp
; File C:\Program Files (x86)\Microsoft Visual Studio\2019\Community\VC\Tools\MSVC\14.29.30133\atlmfc\include\cstringt.h
; File D:\git\src\IBK\IBK_DRFN\ProjSrc\SrcChartEx\ChartOCX\Include_Chart\ToolOption.cpp
;	COMDAT ?UseTool@CToolOption@@QAEHW4OPTION@CToolOptionInfo@@ABV?$CStringT@DV?$StrTraitMFC_DLL@DV?$ChTraitsCRT@D@ATL@@@@@ATL@@@Z
_TEXT	SEGMENT
__$EHRec$ = -12						; size = 12
_nOption$ = 8						; size = 4
$T2 = 12						; size = 4
_strToolName$ = 12					; size = 4
?UseTool@CToolOption@@QAEHW4OPTION@CToolOptionInfo@@ABV?$CStringT@DV?$StrTraitMFC_DLL@DV?$ChTraitsCRT@D@ATL@@@@@ATL@@@Z PROC ; CToolOption::UseTool, COMDAT
; _this$ = ecx

; 139  : {

  00000	55		 push	 ebp
  00001	8b ec		 mov	 ebp, esp
  00003	6a ff		 push	 -1
  00005	68 00 00 00 00	 push	 __ehhandler$?UseTool@CToolOption@@QAEHW4OPTION@CToolOptionInfo@@ABV?$CStringT@DV?$StrTraitMFC_DLL@DV?$ChTraitsCRT@D@ATL@@@@@ATL@@@Z
  0000a	64 a1 00 00 00
	00		 mov	 eax, DWORD PTR fs:0
  00010	50		 push	 eax
  00011	53		 push	 ebx
  00012	56		 push	 esi
  00013	57		 push	 edi
  00014	a1 00 00 00 00	 mov	 eax, DWORD PTR ___security_cookie
  00019	33 c5		 xor	 eax, ebp
  0001b	50		 push	 eax
  0001c	8d 45 f4	 lea	 eax, DWORD PTR __$EHRec$[ebp]
  0001f	64 a3 00 00 00
	00		 mov	 DWORD PTR fs:0, eax
; File C:\Program Files (x86)\Microsoft Visual Studio\2019\Community\VC\Tools\MSVC\14.29.30133\atlmfc\include\atlsimpstr.h

; 519  : 		return( GetData()->nDataLength );

  00025	8b 5d 0c	 mov	 ebx, DWORD PTR _strToolName$[ebp]
  00028	8b 03		 mov	 eax, DWORD PTR [ebx]

; 533  : 		return( GetLength() == 0 );

  0002a	83 78 f4 00	 cmp	 DWORD PTR [eax-12], 0
; File D:\git\src\IBK\IBK_DRFN\ProjSrc\SrcChartEx\ChartOCX\Include_Chart\ToolOption.cpp

; 140  : 	if(strToolName.IsEmpty())	return FALSE;

  0002e	74 7e		 je	 SHORT $LN6@UseTool

; 106  : 	switch(nOption)	{

  00030	8b 45 08	 mov	 eax, DWORD PTR _nOption$[ebp]
  00033	83 e8 00	 sub	 eax, 0
  00036	74 18		 je	 SHORT $LN19@UseTool
  00038	83 e8 01	 sub	 eax, 1
  0003b	74 0c		 je	 SHORT $LN20@UseTool
  0003d	83 e8 01	 sub	 eax, 1
  00040	75 6c		 jne	 SHORT $LN6@UseTool

; 112  : 		break;
; 113  : 	case CToolOptionInfo::MENU:
; 114  : 		return &lstToolMenu;

  00042	b8 3c 00 00 00	 mov	 eax, 60			; 0000003cH
  00047	eb 0c		 jmp	 SHORT $LN17@UseTool
$LN20@UseTool:

; 109  : 		break;
; 110  : 	case CToolOptionInfo::OUTER:
; 111  : 		return &lstToolOuter;

  00049	b8 20 00 00 00	 mov	 eax, 32			; 00000020H
  0004e	eb 05		 jmp	 SHORT $LN17@UseTool
$LN19@UseTool:

; 107  : 	case CToolOptionInfo::INNER:
; 108  : 		return &lstToolInner;

  00050	b8 04 00 00 00	 mov	 eax, 4
$LN17@UseTool:

; 141  : 	CTypedPtrList<CObList, CObjTool*> * lstTool = GetToolOptionList(nOption);
; 142  : 
; 143  : 	if(lstTool == NULL || lstTool->GetCount() <= 0)

  00055	8d 3c 01	 lea	 edi, DWORD PTR [ecx+eax]
  00058	85 ff		 test	 edi, edi
  0005a	74 52		 je	 SHORT $LN6@UseTool
  0005c	83 7f 0c 00	 cmp	 DWORD PTR [edi+12], 0
  00060	7e 4c		 jle	 SHORT $LN6@UseTool

; 145  : 	POSITION pos = lstTool->GetHeadPosition();

  00062	8b 7f 04	 mov	 edi, DWORD PTR [edi+4]

; 146  : 	while(pos)	{

  00065	85 ff		 test	 edi, edi
  00067	74 45		 je	 SHORT $LN6@UseTool
  00069	0f 1f 80 00 00
	00 00		 npad	 7
$LL2@UseTool:

; 147  : 		if(lstTool->GetNext(pos)->GetName() == strToolName)

  00070	8b 47 08	 mov	 eax, DWORD PTR [edi+8]
; File D:\git\src\IBK\IBK_DRFN\ProjSrc\SrcChartEx\ChartOCX\Include_Chart\ObjTool.h

; 18   : 	CString GetName()	{return m_strName;}

  00073	8d 4d 0c	 lea	 ecx, DWORD PTR $T2[ebp]
; File C:\Program Files (x86)\Microsoft Visual Studio\2019\Community\VC\Tools\MSVC\14.29.30133\atlmfc\include\afxcoll.inl

; 432  : 		rPosition = (POSITION) pNode->pNext;

  00076	8b 3f		 mov	 edi, DWORD PTR [edi]
; File D:\git\src\IBK\IBK_DRFN\ProjSrc\SrcChartEx\ChartOCX\Include_Chart\ObjTool.h

; 18   : 	CString GetName()	{return m_strName;}

  00078	83 c0 04	 add	 eax, 4
  0007b	50		 push	 eax
  0007c	ff 15 00 00 00
	00		 call	 DWORD PTR __imp_??0?$CStringT@DV?$StrTraitMFC_DLL@DV?$ChTraitsCRT@D@ATL@@@@@ATL@@QAE@ABV01@@Z
; File C:\Program Files (x86)\Microsoft Visual Studio\2019\Community\VC\Tools\MSVC\14.29.30133\atlmfc\include\cstringt.h

; 2479 : 		return(str1.Compare(str2) == 0);

  00082	ff 33		 push	 DWORD PTR [ebx]
  00084	8d 4d 0c	 lea	 ecx, DWORD PTR $T2[ebp]
; File D:\git\src\IBK\IBK_DRFN\ProjSrc\SrcChartEx\ChartOCX\Include_Chart\ToolOption.cpp

; 147  : 		if(lstTool->GetNext(pos)->GetName() == strToolName)

  00087	c7 45 fc 00 00
	00 00		 mov	 DWORD PTR __$EHRec$[ebp+8], 0
; File C:\Program Files (x86)\Microsoft Visual Studio\2019\Community\VC\Tools\MSVC\14.29.30133\atlmfc\include\cstringt.h

; 2479 : 		return(str1.Compare(str2) == 0);

  0008e	ff 15 00 00 00
	00		 call	 DWORD PTR __imp_?Compare@?$CStringT@DV?$StrTraitMFC_DLL@DV?$ChTraitsCRT@D@ATL@@@@@ATL@@QBEHPBD@Z
; File D:\git\src\IBK\IBK_DRFN\ProjSrc\SrcChartEx\ChartOCX\Include_Chart\ToolOption.cpp

; 147  : 		if(lstTool->GetNext(pos)->GetName() == strToolName)

  00094	8d 4d 0c	 lea	 ecx, DWORD PTR $T2[ebp]
  00097	c7 45 fc ff ff
	ff ff		 mov	 DWORD PTR __$EHRec$[ebp+8], -1
; File C:\Program Files (x86)\Microsoft Visual Studio\2019\Community\VC\Tools\MSVC\14.29.30133\atlmfc\include\cstringt.h

; 2479 : 		return(str1.Compare(str2) == 0);

  0009e	8b f0		 mov	 esi, eax
; File D:\git\src\IBK\IBK_DRFN\ProjSrc\SrcChartEx\ChartOCX\Include_Chart\ToolOption.cpp

; 147  : 		if(lstTool->GetNext(pos)->GetName() == strToolName)

  000a0	ff 15 00 00 00
	00		 call	 DWORD PTR __imp_??1?$CStringT@DV?$StrTraitMFC_DLL@DV?$ChTraitsCRT@D@ATL@@@@@ATL@@QAE@XZ
  000a6	85 f6		 test	 esi, esi
  000a8	74 1a		 je	 SHORT $LN41@UseTool

; 146  : 	while(pos)	{

  000aa	85 ff		 test	 edi, edi
  000ac	75 c2		 jne	 SHORT $LL2@UseTool
$LN6@UseTool:

; 144  : 		return FALSE;

  000ae	33 c0		 xor	 eax, eax

; 149  : 	}
; 150  : 	return FALSE;
; 151  : }

  000b0	8b 4d f4	 mov	 ecx, DWORD PTR __$EHRec$[ebp]
  000b3	64 89 0d 00 00
	00 00		 mov	 DWORD PTR fs:0, ecx
  000ba	59		 pop	 ecx
  000bb	5f		 pop	 edi
  000bc	5e		 pop	 esi
  000bd	5b		 pop	 ebx
  000be	8b e5		 mov	 esp, ebp
  000c0	5d		 pop	 ebp
  000c1	c2 08 00	 ret	 8
$LN41@UseTool:

; 148  : 			return TRUE;

  000c4	b8 01 00 00 00	 mov	 eax, 1

; 149  : 	}
; 150  : 	return FALSE;
; 151  : }

  000c9	8b 4d f4	 mov	 ecx, DWORD PTR __$EHRec$[ebp]
  000cc	64 89 0d 00 00
	00 00		 mov	 DWORD PTR fs:0, ecx
  000d3	59		 pop	 ecx
  000d4	5f		 pop	 edi
  000d5	5e		 pop	 esi
  000d6	5b		 pop	 ebx
  000d7	8b e5		 mov	 esp, ebp
  000d9	5d		 pop	 ebp
  000da	c2 08 00	 ret	 8
_TEXT	ENDS
;	COMDAT text$x
text$x	SEGMENT
__unwindfunclet$?UseTool@CToolOption@@QAEHW4OPTION@CToolOptionInfo@@ABV?$CStringT@DV?$StrTraitMFC_DLL@DV?$ChTraitsCRT@D@ATL@@@@@ATL@@@Z$0:
  00000	8d 4d 0c	 lea	 ecx, DWORD PTR $T2[ebp]
  00003	ff 25 00 00 00
	00		 jmp	 DWORD PTR __imp_??1?$CStringT@DV?$StrTraitMFC_DLL@DV?$ChTraitsCRT@D@ATL@@@@@ATL@@QAE@XZ
  00009	cc		 int	 3
  0000a	cc		 int	 3
  0000b	cc		 int	 3
  0000c	cc		 int	 3
  0000d	cc		 int	 3
__ehhandler$?UseTool@CToolOption@@QAEHW4OPTION@CToolOptionInfo@@ABV?$CStringT@DV?$StrTraitMFC_DLL@DV?$ChTraitsCRT@D@ATL@@@@@ATL@@@Z:
  0000e	90		 npad	 1
  0000f	90		 npad	 1
  00010	8b 54 24 08	 mov	 edx, DWORD PTR [esp+8]
  00014	8d 42 0c	 lea	 eax, DWORD PTR [edx+12]
  00017	8b 4a f0	 mov	 ecx, DWORD PTR [edx-16]
  0001a	33 c8		 xor	 ecx, eax
  0001c	e8 00 00 00 00	 call	 @__security_check_cookie@4
  00021	b8 00 00 00 00	 mov	 eax, OFFSET __ehfuncinfo$?UseTool@CToolOption@@QAEHW4OPTION@CToolOptionInfo@@ABV?$CStringT@DV?$StrTraitMFC_DLL@DV?$ChTraitsCRT@D@ATL@@@@@ATL@@@Z
  00026	e9 00 00 00 00	 jmp	 ___CxxFrameHandler3
text$x	ENDS
?UseTool@CToolOption@@QAEHW4OPTION@CToolOptionInfo@@ABV?$CStringT@DV?$StrTraitMFC_DLL@DV?$ChTraitsCRT@D@ATL@@@@@ATL@@@Z ENDP ; CToolOption::UseTool
; Function compile flags: /Ogtp
; File D:\git\src\IBK\IBK_DRFN\ProjSrc\SrcChartEx\ChartOCX\Include_Chart\ToolOption.cpp
; File C:\Program Files (x86)\Microsoft Visual Studio\2019\Community\VC\Tools\MSVC\14.29.30133\atlmfc\include\afxcoll.inl
; File D:\git\src\IBK\IBK_DRFN\ProjSrc\SrcChartEx\ChartOCX\Include_Chart\ToolOption.cpp
;	COMDAT ?UseTool@CToolOption@@QAEHW4OPTION@CToolOptionInfo@@W4TOOLOPTION@3@@Z
_TEXT	SEGMENT
_nOption$ = 8						; size = 4
_nToolType$ = 12					; size = 4
?UseTool@CToolOption@@QAEHW4OPTION@CToolOptionInfo@@W4TOOLOPTION@3@@Z PROC ; CToolOption::UseTool, COMDAT
; _this$ = ecx

; 123  : {

  00000	55		 push	 ebp
  00001	8b ec		 mov	 ebp, esp

; 106  : 	switch(nOption)	{

  00003	8b 45 08	 mov	 eax, DWORD PTR _nOption$[ebp]
  00006	83 e8 00	 sub	 eax, 0
  00009	74 18		 je	 SHORT $LN11@UseTool
  0000b	83 e8 01	 sub	 eax, 1
  0000e	74 0c		 je	 SHORT $LN12@UseTool
  00010	83 e8 01	 sub	 eax, 1
  00013	75 39		 jne	 SHORT $LN5@UseTool

; 112  : 		break;
; 113  : 	case CToolOptionInfo::MENU:
; 114  : 		return &lstToolMenu;

  00015	b8 3c 00 00 00	 mov	 eax, 60			; 0000003cH
  0001a	eb 0c		 jmp	 SHORT $LN9@UseTool
$LN12@UseTool:

; 109  : 		break;
; 110  : 	case CToolOptionInfo::OUTER:
; 111  : 		return &lstToolOuter;

  0001c	b8 20 00 00 00	 mov	 eax, 32			; 00000020H
  00021	eb 05		 jmp	 SHORT $LN9@UseTool
$LN11@UseTool:

; 107  : 	case CToolOptionInfo::INNER:
; 108  : 		return &lstToolInner;

  00023	b8 04 00 00 00	 mov	 eax, 4
$LN9@UseTool:

; 124  : 	CTypedPtrList<CObList, CObjTool*> * lstTool = GetToolOptionList(nOption);
; 125  : 
; 126  : 	if(lstTool == NULL || lstTool->GetCount() <= 0)

  00028	03 c8		 add	 ecx, eax
  0002a	74 22		 je	 SHORT $LN5@UseTool
  0002c	83 79 0c 00	 cmp	 DWORD PTR [ecx+12], 0
  00030	7e 1c		 jle	 SHORT $LN5@UseTool

; 128  : 	POSITION pos = lstTool->GetHeadPosition();

  00032	8b 49 04	 mov	 ecx, DWORD PTR [ecx+4]

; 129  : 	while(pos)	{

  00035	85 c9		 test	 ecx, ecx
  00037	74 15		 je	 SHORT $LN5@UseTool
  00039	8b 55 0c	 mov	 edx, DWORD PTR _nToolType$[ebp]
  0003c	0f 1f 40 00	 npad	 4
$LL2@UseTool:

; 131  : 		if(pObjTool->GetType() == nToolType)

  00040	8b 41 08	 mov	 eax, DWORD PTR [ecx+8]
; File C:\Program Files (x86)\Microsoft Visual Studio\2019\Community\VC\Tools\MSVC\14.29.30133\atlmfc\include\afxcoll.inl

; 432  : 		rPosition = (POSITION) pNode->pNext;

  00043	8b 09		 mov	 ecx, DWORD PTR [ecx]
; File D:\git\src\IBK\IBK_DRFN\ProjSrc\SrcChartEx\ChartOCX\Include_Chart\ToolOption.cpp

; 131  : 		if(pObjTool->GetType() == nToolType)

  00045	39 50 10	 cmp	 DWORD PTR [eax+16], edx
  00048	74 0a		 je	 SHORT $LN25@UseTool

; 129  : 	while(pos)	{

  0004a	85 c9		 test	 ecx, ecx
  0004c	75 f2		 jne	 SHORT $LL2@UseTool
$LN5@UseTool:

; 127  : 		return FALSE;

  0004e	33 c0		 xor	 eax, eax

; 134  : 	}
; 135  : 	return FALSE;
; 136  : }

  00050	5d		 pop	 ebp
  00051	c2 08 00	 ret	 8
$LN25@UseTool:

; 132  : 		//if(lstTool->GetNext(pos)->GetType() == nToolType)
; 133  : 			return TRUE;

  00054	b8 01 00 00 00	 mov	 eax, 1

; 134  : 	}
; 135  : 	return FALSE;
; 136  : }

  00059	5d		 pop	 ebp
  0005a	c2 08 00	 ret	 8
?UseTool@CToolOption@@QAEHW4OPTION@CToolOptionInfo@@W4TOOLOPTION@3@@Z ENDP ; CToolOption::UseTool
_TEXT	ENDS
; Function compile flags: /Ogtp
; File D:\git\src\IBK\IBK_DRFN\ProjSrc\SrcChartEx\ChartOCX\Include_Chart\ToolOption.cpp
; File C:\Program Files (x86)\Microsoft Visual Studio\2019\Community\VC\Tools\MSVC\14.29.30133\atlmfc\include\afxcoll.inl
; File D:\git\src\IBK\IBK_DRFN\ProjSrc\SrcChartEx\ChartOCX\Include_Chart\ToolOption.cpp
; File C:\Program Files (x86)\Microsoft Visual Studio\2019\Community\VC\Tools\MSVC\14.29.30133\atlmfc\include\afxcoll.inl
; File D:\git\src\IBK\IBK_DRFN\ProjSrc\SrcChartEx\ChartOCX\Include_Chart\ToolOption.cpp
;	COMDAT ?GetTool@CToolOption@@QAEPAVCObjTool@@W4OPTION@CToolOptionInfo@@W4TOOLOPTION@4@@Z
_TEXT	SEGMENT
_nOption$ = 8						; size = 4
_nToolType$ = 12					; size = 4
?GetTool@CToolOption@@QAEPAVCObjTool@@W4OPTION@CToolOptionInfo@@W4TOOLOPTION@4@@Z PROC ; CToolOption::GetTool, COMDAT
; _this$ = ecx

; 193  : {

  00000	55		 push	 ebp
  00001	8b ec		 mov	 ebp, esp

; 194  : 	if(nOption == CToolOptionInfo::INNER)	{

  00003	8b 45 08	 mov	 eax, DWORD PTR _nOption$[ebp]
  00006	85 c0		 test	 eax, eax
  00008	75 2a		 jne	 SHORT $LN6@GetTool

; 108  : 		return &lstToolInner;

  0000a	83 c1 04	 add	 ecx, 4

; 195  : 		CTypedPtrList<CObList, CObjTool*> * lstTool = GetToolOptionList(CToolOptionInfo::INNER);
; 196  : 		if(lstTool && lstTool->GetCount() > 0)	{

  0000d	74 4f		 je	 SHORT $LN5@GetTool
  0000f	39 41 0c	 cmp	 DWORD PTR [ecx+12], eax
  00012	7e 4a		 jle	 SHORT $LN5@GetTool

; 197  : 			POSITION pos = lstTool->GetHeadPosition();

  00014	8b 49 04	 mov	 ecx, DWORD PTR [ecx+4]

; 198  : 			while(pos)	{

  00017	85 c9		 test	 ecx, ecx
  00019	74 43		 je	 SHORT $LN5@GetTool
  0001b	8b 55 0c	 mov	 edx, DWORD PTR _nToolType$[ebp]
  0001e	66 90		 npad	 2
$LL2@GetTool:

; 199  : 				CObjTool * pTool = lstTool->GetNext(pos);

  00020	8b 41 08	 mov	 eax, DWORD PTR [ecx+8]
; File C:\Program Files (x86)\Microsoft Visual Studio\2019\Community\VC\Tools\MSVC\14.29.30133\atlmfc\include\afxcoll.inl

; 432  : 		rPosition = (POSITION) pNode->pNext;

  00023	8b 09		 mov	 ecx, DWORD PTR [ecx]
; File D:\git\src\IBK\IBK_DRFN\ProjSrc\SrcChartEx\ChartOCX\Include_Chart\ToolOption.cpp

; 200  : 				if(pTool->GetType() == nToolType)

  00025	39 50 10	 cmp	 DWORD PTR [eax+16], edx
  00028	74 36		 je	 SHORT $LN1@GetTool

; 198  : 			while(pos)	{

  0002a	85 c9		 test	 ecx, ecx
  0002c	75 f2		 jne	 SHORT $LL2@GetTool

; 212  : 					return pTool;
; 213  : 			}
; 214  : 		}
; 215  : 	}
; 216  : 	return NULL;

  0002e	33 c0		 xor	 eax, eax

; 217  : }

  00030	5d		 pop	 ebp
  00031	c2 08 00	 ret	 8
$LN6@GetTool:

; 201  : 					return pTool;
; 202  : 			}
; 203  : 		}
; 204  : 	}
; 205  : 	else if(nOption == CToolOptionInfo::OUTER)	{

  00034	83 f8 01	 cmp	 eax, 1
  00037	75 25		 jne	 SHORT $LN5@GetTool

; 111  : 		return &lstToolOuter;

  00039	83 c1 20	 add	 ecx, 32			; 00000020H

; 206  : 		CTypedPtrList<CObList, CObjTool*> * lstTool = GetToolOptionList(CToolOptionInfo::OUTER);
; 207  : 		if(lstTool && lstTool->GetCount() > 0)	{

  0003c	74 20		 je	 SHORT $LN5@GetTool
  0003e	83 79 0c 00	 cmp	 DWORD PTR [ecx+12], 0
  00042	7e 1a		 jle	 SHORT $LN5@GetTool

; 208  : 			POSITION pos = lstTool->GetHeadPosition();

  00044	8b 49 04	 mov	 ecx, DWORD PTR [ecx+4]

; 209  : 			while(pos)	{

  00047	85 c9		 test	 ecx, ecx
  00049	74 13		 je	 SHORT $LN5@GetTool
  0004b	8b 55 0c	 mov	 edx, DWORD PTR _nToolType$[ebp]
  0004e	66 90		 npad	 2
$LL4@GetTool:

; 210  : 				CObjTool * pTool = lstTool->GetNext(pos);

  00050	8b 41 08	 mov	 eax, DWORD PTR [ecx+8]
; File C:\Program Files (x86)\Microsoft Visual Studio\2019\Community\VC\Tools\MSVC\14.29.30133\atlmfc\include\afxcoll.inl

; 432  : 		rPosition = (POSITION) pNode->pNext;

  00053	8b 09		 mov	 ecx, DWORD PTR [ecx]
; File D:\git\src\IBK\IBK_DRFN\ProjSrc\SrcChartEx\ChartOCX\Include_Chart\ToolOption.cpp

; 211  : 				if(pTool->GetType() == nToolType)

  00055	39 50 10	 cmp	 DWORD PTR [eax+16], edx
  00058	74 06		 je	 SHORT $LN1@GetTool

; 209  : 			while(pos)	{

  0005a	85 c9		 test	 ecx, ecx
  0005c	75 f2		 jne	 SHORT $LL4@GetTool
$LN5@GetTool:

; 212  : 					return pTool;
; 213  : 			}
; 214  : 		}
; 215  : 	}
; 216  : 	return NULL;

  0005e	33 c0		 xor	 eax, eax
$LN1@GetTool:

; 217  : }

  00060	5d		 pop	 ebp
  00061	c2 08 00	 ret	 8
?GetTool@CToolOption@@QAEPAVCObjTool@@W4OPTION@CToolOptionInfo@@W4TOOLOPTION@4@@Z ENDP ; CToolOption::GetTool
_TEXT	ENDS
; Function compile flags: /Ogtp
; File D:\git\src\IBK\IBK_DRFN\ProjSrc\SrcChartEx\ChartOCX\Include_Chart\ToolOption.cpp
; File C:\Program Files (x86)\Microsoft Visual Studio\2019\Community\VC\Tools\MSVC\14.29.30133\atlmfc\include\afxcoll.inl
; File D:\git\src\IBK\IBK_DRFN\ProjSrc\SrcChartEx\ChartOCX\Include_Chart\ToolOption.cpp
; File C:\Program Files (x86)\Microsoft Visual Studio\2019\Community\VC\Tools\MSVC\14.29.30133\atlmfc\include\afxcoll.inl
; File D:\git\src\IBK\IBK_DRFN\ProjSrc\SrcChartEx\ChartOCX\Include_Chart\ToolOption.cpp
; File C:\Program Files (x86)\Microsoft Visual Studio\2019\Community\VC\Tools\MSVC\14.29.30133\atlmfc\include\afxcoll.inl
; File D:\git\src\IBK\IBK_DRFN\ProjSrc\SrcChartEx\ChartOCX\Include_Chart\ToolOption.cpp
; File C:\Program Files (x86)\Microsoft Visual Studio\2019\Community\VC\Tools\MSVC\14.29.30133\atlmfc\include\afxcoll.inl
; File D:\git\src\IBK\IBK_DRFN\ProjSrc\SrcChartEx\ChartOCX\Include_Chart\ToolOption.cpp
; File C:\Program Files (x86)\Microsoft Visual Studio\2019\Community\VC\Tools\MSVC\14.29.30133\atlmfc\include\afxcoll.inl
; File D:\git\src\IBK\IBK_DRFN\ProjSrc\SrcChartEx\ChartOCX\Include_Chart\ToolOption.cpp
; File C:\Program Files (x86)\Microsoft Visual Studio\2019\Community\VC\Tools\MSVC\14.29.30133\atlmfc\include\afxcoll.inl
; File D:\git\src\IBK\IBK_DRFN\ProjSrc\SrcChartEx\ChartOCX\Include_Chart\ToolOption.cpp
;	COMDAT ?GetTool@CToolOption@@QAEPAVCObjTool@@W4TOOLOPTION@CToolOptionInfo@@@Z
_TEXT	SEGMENT
_nToolType$ = 8						; size = 4
?GetTool@CToolOption@@QAEPAVCObjTool@@W4TOOLOPTION@CToolOptionInfo@@@Z PROC ; CToolOption::GetTool, COMDAT
; _this$ = ecx

; 154  : {

  00000	55		 push	 ebp
  00001	8b ec		 mov	 ebp, esp

; 126  : 	if(lstTool == NULL || lstTool->GetCount() <= 0)

  00003	8b 55 08	 mov	 edx, DWORD PTR _nToolType$[ebp]

; 154  : {

  00006	56		 push	 esi
  00007	57		 push	 edi
  00008	8b f9		 mov	 edi, ecx

; 108  : 		return &lstToolInner;

  0000a	8d 4f 04	 lea	 ecx, DWORD PTR [edi+4]

; 126  : 	if(lstTool == NULL || lstTool->GetCount() <= 0)

  0000d	85 c9		 test	 ecx, ecx
  0000f	74 2d		 je	 SHORT $LN3@GetTool
  00011	83 79 0c 00	 cmp	 DWORD PTR [ecx+12], 0
  00015	7e 27		 jle	 SHORT $LN3@GetTool

; 127  : 		return FALSE;
; 128  : 	POSITION pos = lstTool->GetHeadPosition();

  00017	8b 49 04	 mov	 ecx, DWORD PTR [ecx+4]
  0001a	8b f1		 mov	 esi, ecx

; 129  : 	while(pos)	{

  0001c	85 f6		 test	 esi, esi
  0001e	74 1e		 je	 SHORT $LN3@GetTool
$LL19@GetTool:

; 131  : 		if(pObjTool->GetType() == nToolType)

  00020	8b 46 08	 mov	 eax, DWORD PTR [esi+8]
; File C:\Program Files (x86)\Microsoft Visual Studio\2019\Community\VC\Tools\MSVC\14.29.30133\atlmfc\include\afxcoll.inl

; 432  : 		rPosition = (POSITION) pNode->pNext;

  00023	8b 36		 mov	 esi, DWORD PTR [esi]
; File D:\git\src\IBK\IBK_DRFN\ProjSrc\SrcChartEx\ChartOCX\Include_Chart\ToolOption.cpp

; 131  : 		if(pObjTool->GetType() == nToolType)

  00025	39 50 10	 cmp	 DWORD PTR [eax+16], edx
  00028	74 06		 je	 SHORT $LL2@GetTool

; 129  : 	while(pos)	{

  0002a	85 f6		 test	 esi, esi
  0002c	75 f2		 jne	 SHORT $LL19@GetTool

; 183  : 				if(pTool->GetType() == nToolType)

  0002e	eb 0e		 jmp	 SHORT $LN3@GetTool
$LL2@GetTool:

; 160  : 				CObjTool * pTool = lstTool->GetNext(pos);

  00030	8b 41 08	 mov	 eax, DWORD PTR [ecx+8]
; File C:\Program Files (x86)\Microsoft Visual Studio\2019\Community\VC\Tools\MSVC\14.29.30133\atlmfc\include\afxcoll.inl

; 432  : 		rPosition = (POSITION) pNode->pNext;

  00033	8b 09		 mov	 ecx, DWORD PTR [ecx]
; File D:\git\src\IBK\IBK_DRFN\ProjSrc\SrcChartEx\ChartOCX\Include_Chart\ToolOption.cpp

; 161  : 				if(pTool->GetType() == nToolType)

  00035	39 50 10	 cmp	 DWORD PTR [eax+16], edx
  00038	74 76		 je	 SHORT $LN1@GetTool

; 155  : 	if(UseTool(CToolOptionInfo::INNER, nToolType))	{
; 156  : 		CTypedPtrList<CObList, CObjTool*> * lstTool = GetToolOptionList(CToolOptionInfo::INNER);
; 157  : 		if(lstTool && lstTool->GetCount() > 0)	{
; 158  : 			POSITION pos = lstTool->GetHeadPosition();
; 159  : 			while(pos)	{

  0003a	85 c9		 test	 ecx, ecx
  0003c	75 f2		 jne	 SHORT $LL2@GetTool
$LN3@GetTool:

; 111  : 		return &lstToolOuter;

  0003e	8d 4f 20	 lea	 ecx, DWORD PTR [edi+32]

; 126  : 	if(lstTool == NULL || lstTool->GetCount() <= 0)

  00041	85 c9		 test	 ecx, ecx
  00043	74 2d		 je	 SHORT $LN5@GetTool
  00045	83 79 0c 00	 cmp	 DWORD PTR [ecx+12], 0
  00049	7e 27		 jle	 SHORT $LN5@GetTool

; 127  : 		return FALSE;
; 128  : 	POSITION pos = lstTool->GetHeadPosition();

  0004b	8b 49 04	 mov	 ecx, DWORD PTR [ecx+4]
  0004e	8b f1		 mov	 esi, ecx

; 129  : 	while(pos)	{

  00050	85 f6		 test	 esi, esi
  00052	74 1e		 je	 SHORT $LN5@GetTool
$LL56@GetTool:

; 131  : 		if(pObjTool->GetType() == nToolType)

  00054	8b 46 08	 mov	 eax, DWORD PTR [esi+8]
; File C:\Program Files (x86)\Microsoft Visual Studio\2019\Community\VC\Tools\MSVC\14.29.30133\atlmfc\include\afxcoll.inl

; 432  : 		rPosition = (POSITION) pNode->pNext;

  00057	8b 36		 mov	 esi, DWORD PTR [esi]
; File D:\git\src\IBK\IBK_DRFN\ProjSrc\SrcChartEx\ChartOCX\Include_Chart\ToolOption.cpp

; 131  : 		if(pObjTool->GetType() == nToolType)

  00059	39 50 10	 cmp	 DWORD PTR [eax+16], edx
  0005c	74 06		 je	 SHORT $LL4@GetTool

; 129  : 	while(pos)	{

  0005e	85 f6		 test	 esi, esi
  00060	75 f2		 jne	 SHORT $LL56@GetTool

; 183  : 				if(pTool->GetType() == nToolType)

  00062	eb 0e		 jmp	 SHORT $LN5@GetTool
$LL4@GetTool:

; 171  : 				CObjTool * pTool = lstTool->GetNext(pos);

  00064	8b 41 08	 mov	 eax, DWORD PTR [ecx+8]
; File C:\Program Files (x86)\Microsoft Visual Studio\2019\Community\VC\Tools\MSVC\14.29.30133\atlmfc\include\afxcoll.inl

; 432  : 		rPosition = (POSITION) pNode->pNext;

  00067	8b 09		 mov	 ecx, DWORD PTR [ecx]
; File D:\git\src\IBK\IBK_DRFN\ProjSrc\SrcChartEx\ChartOCX\Include_Chart\ToolOption.cpp

; 172  : 				if(pTool->GetType() == nToolType)

  00069	39 50 10	 cmp	 DWORD PTR [eax+16], edx
  0006c	74 42		 je	 SHORT $LN1@GetTool

; 162  : 					return pTool;
; 163  : 			}
; 164  : 		}
; 165  : 	}
; 166  : 	if(UseTool(CToolOptionInfo::OUTER, nToolType))	{
; 167  : 		CTypedPtrList<CObList, CObjTool*> * lstTool = GetToolOptionList(CToolOptionInfo::OUTER);
; 168  : 		if(lstTool && lstTool->GetCount() > 0)	{
; 169  : 			POSITION pos = lstTool->GetHeadPosition();
; 170  : 			while(pos)	{

  0006e	85 c9		 test	 ecx, ecx
  00070	75 f2		 jne	 SHORT $LL4@GetTool
$LN5@GetTool:

; 114  : 		return &lstToolMenu;

  00072	8d 4f 3c	 lea	 ecx, DWORD PTR [edi+60]

; 126  : 	if(lstTool == NULL || lstTool->GetCount() <= 0)

  00075	85 c9		 test	 ecx, ecx
  00077	74 35		 je	 SHORT $LN7@GetTool
  00079	83 79 0c 00	 cmp	 DWORD PTR [ecx+12], 0
  0007d	7e 2f		 jle	 SHORT $LN7@GetTool

; 127  : 		return FALSE;
; 128  : 	POSITION pos = lstTool->GetHeadPosition();

  0007f	8b 49 04	 mov	 ecx, DWORD PTR [ecx+4]
  00082	8b f1		 mov	 esi, ecx

; 129  : 	while(pos)	{

  00084	85 f6		 test	 esi, esi
  00086	74 26		 je	 SHORT $LN7@GetTool
$LL92@GetTool:

; 131  : 		if(pObjTool->GetType() == nToolType)

  00088	8b 46 08	 mov	 eax, DWORD PTR [esi+8]
; File C:\Program Files (x86)\Microsoft Visual Studio\2019\Community\VC\Tools\MSVC\14.29.30133\atlmfc\include\afxcoll.inl

; 432  : 		rPosition = (POSITION) pNode->pNext;

  0008b	8b 36		 mov	 esi, DWORD PTR [esi]
; File D:\git\src\IBK\IBK_DRFN\ProjSrc\SrcChartEx\ChartOCX\Include_Chart\ToolOption.cpp

; 131  : 		if(pObjTool->GetType() == nToolType)

  0008d	39 50 10	 cmp	 DWORD PTR [eax+16], edx
  00090	74 0e		 je	 SHORT $LL6@GetTool

; 129  : 	while(pos)	{

  00092	85 f6		 test	 esi, esi
  00094	75 f2		 jne	 SHORT $LL92@GetTool

; 184  : 					return pTool;
; 185  : 			}
; 186  : 		}
; 187  : 	}
; 188  : 
; 189  : 	return NULL;

  00096	5f		 pop	 edi
  00097	33 c0		 xor	 eax, eax

; 190  : }

  00099	5e		 pop	 esi
  0009a	5d		 pop	 ebp
  0009b	c2 04 00	 ret	 4
  0009e	66 90		 npad	 2
$LL6@GetTool:

; 182  : 				CObjTool * pTool = lstTool->GetNext(pos);

  000a0	8b 41 08	 mov	 eax, DWORD PTR [ecx+8]
; File C:\Program Files (x86)\Microsoft Visual Studio\2019\Community\VC\Tools\MSVC\14.29.30133\atlmfc\include\afxcoll.inl

; 432  : 		rPosition = (POSITION) pNode->pNext;

  000a3	8b 09		 mov	 ecx, DWORD PTR [ecx]
; File D:\git\src\IBK\IBK_DRFN\ProjSrc\SrcChartEx\ChartOCX\Include_Chart\ToolOption.cpp

; 183  : 				if(pTool->GetType() == nToolType)

  000a5	39 50 10	 cmp	 DWORD PTR [eax+16], edx
  000a8	74 06		 je	 SHORT $LN1@GetTool

; 173  : 					return pTool;
; 174  : 			}
; 175  : 		}
; 176  : 	}
; 177  : 	if(UseTool(CToolOptionInfo::MENU, nToolType))	{
; 178  : 		CTypedPtrList<CObList, CObjTool*> * lstTool = GetToolOptionList(CToolOptionInfo::MENU);
; 179  : 		if(lstTool && lstTool->GetCount() > 0)	{
; 180  : 			POSITION pos = lstTool->GetHeadPosition();
; 181  : 			while(pos)	{

  000aa	85 c9		 test	 ecx, ecx
  000ac	75 f2		 jne	 SHORT $LL6@GetTool
$LN7@GetTool:

; 184  : 					return pTool;
; 185  : 			}
; 186  : 		}
; 187  : 	}
; 188  : 
; 189  : 	return NULL;

  000ae	33 c0		 xor	 eax, eax
$LN1@GetTool:
  000b0	5f		 pop	 edi

; 190  : }

  000b1	5e		 pop	 esi
  000b2	5d		 pop	 ebp
  000b3	c2 04 00	 ret	 4
?GetTool@CToolOption@@QAEPAVCObjTool@@W4TOOLOPTION@CToolOptionInfo@@@Z ENDP ; CToolOption::GetTool
_TEXT	ENDS
; Function compile flags: /Ogtp
; File D:\git\src\IBK\IBK_DRFN\ProjSrc\SrcChartEx\ChartOCX\Include_Chart\ToolOption.cpp
; File C:\Program Files (x86)\Microsoft Visual Studio\2019\Community\VC\Tools\MSVC\14.29.30133\atlmfc\include\afxcoll.inl
; File D:\git\src\IBK\IBK_DRFN\ProjSrc\SrcChartEx\ChartOCX\Include_Chart\ToolOption.cpp
; File C:\Program Files (x86)\Microsoft Visual Studio\2019\Community\VC\Tools\MSVC\14.29.30133\atlmfc\include\afxcoll.inl
; File D:\git\src\IBK\IBK_DRFN\ProjSrc\SrcChartEx\ChartOCX\Include_Chart\ToolOption.cpp
; File C:\Program Files (x86)\Microsoft Visual Studio\2019\Community\VC\Tools\MSVC\14.29.30133\atlmfc\include\afxcoll.inl
; File D:\git\src\IBK\IBK_DRFN\ProjSrc\SrcChartEx\ChartOCX\Include_Chart\ToolOption.cpp
; File C:\Program Files (x86)\Microsoft Visual Studio\2019\Community\VC\Tools\MSVC\14.29.30133\atlmfc\include\afxcoll.inl
; File D:\git\src\IBK\IBK_DRFN\ProjSrc\SrcChartEx\ChartOCX\Include_Chart\ToolOption.cpp
; File C:\Program Files (x86)\Microsoft Visual Studio\2019\Community\VC\Tools\MSVC\14.29.30133\atlmfc\include\afxcoll.inl
; File D:\git\src\IBK\IBK_DRFN\ProjSrc\SrcChartEx\ChartOCX\Include_Chart\ToolOption.cpp
; File C:\Program Files (x86)\Microsoft Visual Studio\2019\Community\VC\Tools\MSVC\14.29.30133\atlmfc\include\afxcoll.inl
; File D:\git\src\IBK\IBK_DRFN\ProjSrc\SrcChartEx\ChartOCX\Include_Chart\ToolOption.cpp
; File C:\Program Files (x86)\Microsoft Visual Studio\2019\Community\VC\Tools\MSVC\14.29.30133\atlmfc\include\afxcoll.inl
; File D:\git\src\IBK\IBK_DRFN\ProjSrc\SrcChartEx\ChartOCX\Include_Chart\ToolOption.cpp
; File C:\Program Files (x86)\Microsoft Visual Studio\2019\Community\VC\Tools\MSVC\14.29.30133\atlmfc\include\afxcoll.inl
; File D:\git\src\IBK\IBK_DRFN\ProjSrc\SrcChartEx\ChartOCX\Include_Chart\ToolOption.cpp
; File C:\Program Files (x86)\Microsoft Visual Studio\2019\Community\VC\Tools\MSVC\14.29.30133\atlmfc\include\afxcoll.inl
; File D:\git\src\IBK\IBK_DRFN\ProjSrc\SrcChartEx\ChartOCX\Include_Chart\ToolOption.cpp
; File D:\git\src\IBK\IBK_DRFN\ProjSrc\SrcChartEx\ChartOCX\Include_Chart\ObjTool.h
; File D:\git\src\IBK\IBK_DRFN\ProjSrc\SrcChartEx\ChartOCX\Include_Chart\ToolOption.cpp
; File C:\Program Files (x86)\Microsoft Visual Studio\2019\Community\VC\Tools\MSVC\14.29.30133\atlmfc\include\afx.inl
; File D:\git\src\IBK\IBK_DRFN\ProjSrc\SrcChartEx\ChartOCX\Include_Chart\ToolOption.cpp
; File C:\Program Files (x86)\Microsoft Visual Studio\2019\Community\VC\Tools\MSVC\14.29.30133\atlmfc\include\afx.inl
; File D:\git\src\IBK\IBK_DRFN\ProjSrc\SrcChartEx\ChartOCX\Include_Chart\ToolOption.cpp
; File C:\Program Files (x86)\Microsoft Visual Studio\2019\Community\VC\Tools\MSVC\14.29.30133\atlmfc\include\afxtempl.h
; File D:\git\src\IBK\IBK_DRFN\ProjSrc\SrcChartEx\ChartOCX\Include_Chart\ToolOption.cpp
; File C:\Program Files (x86)\Microsoft Visual Studio\2019\Community\VC\Tools\MSVC\14.29.30133\atlmfc\include\afxtempl.h
; File D:\git\src\IBK\IBK_DRFN\ProjSrc\SrcChartEx\ChartOCX\Include_Chart\ToolOption.cpp
; File C:\Program Files (x86)\Microsoft Visual Studio\2019\Community\VC\Tools\MSVC\14.29.30133\atlmfc\include\afxtempl.h
; File D:\git\src\IBK\IBK_DRFN\ProjSrc\SrcChartEx\ChartOCX\Include_Chart\ToolOption.cpp
; File C:\Program Files (x86)\Microsoft Visual Studio\2019\Community\VC\Tools\MSVC\14.29.30133\atlmfc\include\afxtempl.h
; File D:\git\src\IBK\IBK_DRFN\ProjSrc\SrcChartEx\ChartOCX\Include_Chart\ToolOption.cpp
; File C:\Program Files (x86)\Microsoft Visual Studio\2019\Community\VC\Tools\MSVC\14.29.30133\atlmfc\include\afxcoll.inl
; File D:\git\src\IBK\IBK_DRFN\ProjSrc\SrcChartEx\ChartOCX\Include_Chart\ToolOption.cpp
; File C:\Program Files (x86)\Microsoft Visual Studio\2019\Community\VC\Tools\MSVC\14.29.30133\atlmfc\include\afxcoll.inl
; File D:\git\src\IBK\IBK_DRFN\ProjSrc\SrcChartEx\ChartOCX\Include_Chart\ToolOption.cpp
;	COMDAT ?SetTool@CToolOption@@QAEXW4OPTION@CToolOptionInfo@@W4TOOLOPTION@3@V?$CStringT@DV?$StrTraitMFC_DLL@DV?$ChTraitsCRT@D@ATL@@@@@ATL@@2H@Z
_TEXT	SEGMENT
$T2 = -16						; size = 4
__$EHRec$ = -12						; size = 12
$T3 = 8							; size = 4
_nOption$ = 8						; size = 4
_strName$4 = 12						; size = 4
_nToolType$ = 12					; size = 4
_strOption1$ = 16					; size = 4
_strOption2$ = 20					; size = 4
$T5 = 24						; size = 4
_bAdd$ = 24						; size = 4
?SetTool@CToolOption@@QAEXW4OPTION@CToolOptionInfo@@W4TOOLOPTION@3@V?$CStringT@DV?$StrTraitMFC_DLL@DV?$ChTraitsCRT@D@ATL@@@@@ATL@@2H@Z PROC ; CToolOption::SetTool, COMDAT
; _this$ = ecx

; 220  : {

  00000	55		 push	 ebp
  00001	8b ec		 mov	 ebp, esp
  00003	6a ff		 push	 -1
  00005	68 00 00 00 00	 push	 __ehhandler$?SetTool@CToolOption@@QAEXW4OPTION@CToolOptionInfo@@W4TOOLOPTION@3@V?$CStringT@DV?$StrTraitMFC_DLL@DV?$ChTraitsCRT@D@ATL@@@@@ATL@@2H@Z
  0000a	64 a1 00 00 00
	00		 mov	 eax, DWORD PTR fs:0
  00010	50		 push	 eax
  00011	83 ec 08	 sub	 esp, 8
  00014	53		 push	 ebx
  00015	56		 push	 esi
  00016	57		 push	 edi
  00017	a1 00 00 00 00	 mov	 eax, DWORD PTR ___security_cookie
  0001c	33 c5		 xor	 eax, ebp
  0001e	50		 push	 eax
  0001f	8d 45 f4	 lea	 eax, DWORD PTR __$EHRec$[ebp]
  00022	64 a3 00 00 00
	00		 mov	 DWORD PTR fs:0, eax
  00028	8b d9		 mov	 ebx, ecx

; 221  : 	if(bAdd)	{

  0002a	83 7d 18 00	 cmp	 DWORD PTR _bAdd$[ebp], 0
  0002e	8b 7d 0c	 mov	 edi, DWORD PTR _nToolType$[ebp]
  00031	c7 45 fc 01 00
	00 00		 mov	 DWORD PTR __$EHRec$[ebp+8], 1
  00038	0f 84 ba 01 00
	00		 je	 $LN2@SetTool

; 222  : 		CString strName = _MTEXT( m_eToolOptions[ nToolType]);		

  0003e	8b 14 bd 00 00
	00 00		 mov	 edx, DWORD PTR ?m_eToolOptions@IMetaTable@@2PAW4E_METACODE@1@A[edi*4]
  00045	8d 4d 0c	 lea	 ecx, DWORD PTR _strName$4[ebp]
  00048	a1 54 00 00 00	 mov	 eax, DWORD PTR ?g_iMetaTable@@3VIMetaTable@@A+84
  0004d	ff 34 90	 push	 DWORD PTR [eax+edx*4]
  00050	ff 15 00 00 00
	00		 call	 DWORD PTR __imp_??0?$CStringT@DV?$StrTraitMFC_DLL@DV?$ChTraitsCRT@D@ATL@@@@@ATL@@QAE@PBD@Z

; 223  : 		if(UseTool(nOption, nToolType))	{

  00056	8b 75 08	 mov	 esi, DWORD PTR _nOption$[ebp]
  00059	8b cb		 mov	 ecx, ebx
  0005b	57		 push	 edi
  0005c	56		 push	 esi
  0005d	c6 45 fc 02	 mov	 BYTE PTR __$EHRec$[ebp+8], 2
  00061	e8 00 00 00 00	 call	 ?UseTool@CToolOption@@QAEHW4OPTION@CToolOptionInfo@@W4TOOLOPTION@3@@Z ; CToolOption::UseTool
  00066	85 c0		 test	 eax, eax
  00068	0f 84 ca 00 00
	00		 je	 $LN4@SetTool

; 108  : 		return &lstToolInner;

  0006e	8d 4b 04	 lea	 ecx, DWORD PTR [ebx+4]

; 126  : 	if(lstTool == NULL || lstTool->GetCount() <= 0)

  00071	85 c9		 test	 ecx, ecx
  00073	74 2d		 je	 SHORT $LN20@SetTool
  00075	83 79 0c 00	 cmp	 DWORD PTR [ecx+12], 0
  00079	7e 27		 jle	 SHORT $LN20@SetTool

; 127  : 		return FALSE;
; 128  : 	POSITION pos = lstTool->GetHeadPosition();

  0007b	8b 49 04	 mov	 ecx, DWORD PTR [ecx+4]
  0007e	8b d1		 mov	 edx, ecx

; 129  : 	while(pos)	{

  00080	85 d2		 test	 edx, edx
  00082	74 1e		 je	 SHORT $LN20@SetTool
$LL36@SetTool:

; 131  : 		if(pObjTool->GetType() == nToolType)

  00084	8b 42 08	 mov	 eax, DWORD PTR [edx+8]
; File C:\Program Files (x86)\Microsoft Visual Studio\2019\Community\VC\Tools\MSVC\14.29.30133\atlmfc\include\afxcoll.inl

; 432  : 		rPosition = (POSITION) pNode->pNext;

  00087	8b 12		 mov	 edx, DWORD PTR [edx]
; File D:\git\src\IBK\IBK_DRFN\ProjSrc\SrcChartEx\ChartOCX\Include_Chart\ToolOption.cpp

; 131  : 		if(pObjTool->GetType() == nToolType)

  00089	39 78 10	 cmp	 DWORD PTR [eax+16], edi
  0008c	74 06		 je	 SHORT $LL19@SetTool

; 129  : 	while(pos)	{

  0008e	85 d2		 test	 edx, edx
  00090	75 f2		 jne	 SHORT $LL36@SetTool
; File C:\Program Files (x86)\Microsoft Visual Studio\2019\Community\VC\Tools\MSVC\14.29.30133\atlmfc\include\afxcoll.inl

; 430  : 		if( pNode == NULL )

  00092	eb 0e		 jmp	 SHORT $LN20@SetTool
$LL19@SetTool:
; File D:\git\src\IBK\IBK_DRFN\ProjSrc\SrcChartEx\ChartOCX\Include_Chart\ToolOption.cpp

; 160  : 				CObjTool * pTool = lstTool->GetNext(pos);

  00094	8b 71 08	 mov	 esi, DWORD PTR [ecx+8]
; File C:\Program Files (x86)\Microsoft Visual Studio\2019\Community\VC\Tools\MSVC\14.29.30133\atlmfc\include\afxcoll.inl

; 432  : 		rPosition = (POSITION) pNode->pNext;

  00097	8b 09		 mov	 ecx, DWORD PTR [ecx]
; File D:\git\src\IBK\IBK_DRFN\ProjSrc\SrcChartEx\ChartOCX\Include_Chart\ToolOption.cpp

; 161  : 				if(pTool->GetType() == nToolType)

  00099	39 7e 10	 cmp	 DWORD PTR [esi+16], edi
  0009c	74 72		 je	 SHORT $LN18@SetTool

; 132  : 		//if(lstTool->GetNext(pos)->GetType() == nToolType)
; 133  : 			return TRUE;
; 134  : 	}
; 135  : 	return FALSE;
; 136  : }
; 137  : 
; 138  : BOOL CToolOption::UseTool(CToolOptionInfo::OPTION nOption, const CString& strToolName)
; 139  : {
; 140  : 	if(strToolName.IsEmpty())	return FALSE;
; 141  : 	CTypedPtrList<CObList, CObjTool*> * lstTool = GetToolOptionList(nOption);
; 142  : 
; 143  : 	if(lstTool == NULL || lstTool->GetCount() <= 0)
; 144  : 		return FALSE;
; 145  : 	POSITION pos = lstTool->GetHeadPosition();
; 146  : 	while(pos)	{
; 147  : 		if(lstTool->GetNext(pos)->GetName() == strToolName)
; 148  : 			return TRUE;
; 149  : 	}
; 150  : 	return FALSE;
; 151  : }
; 152  : 
; 153  : CObjTool * CToolOption::GetTool(CToolOptionInfo::TOOLOPTION nToolType)
; 154  : {
; 155  : 	if(UseTool(CToolOptionInfo::INNER, nToolType))	{
; 156  : 		CTypedPtrList<CObList, CObjTool*> * lstTool = GetToolOptionList(CToolOptionInfo::INNER);
; 157  : 		if(lstTool && lstTool->GetCount() > 0)	{
; 158  : 			POSITION pos = lstTool->GetHeadPosition();
; 159  : 			while(pos)	{

  0009e	85 c9		 test	 ecx, ecx
  000a0	75 f2		 jne	 SHORT $LL19@SetTool
$LN20@SetTool:

; 111  : 		return &lstToolOuter;

  000a2	8d 4b 20	 lea	 ecx, DWORD PTR [ebx+32]

; 126  : 	if(lstTool == NULL || lstTool->GetCount() <= 0)

  000a5	85 c9		 test	 ecx, ecx
  000a7	74 2d		 je	 SHORT $LN22@SetTool
  000a9	83 79 0c 00	 cmp	 DWORD PTR [ecx+12], 0
  000ad	7e 27		 jle	 SHORT $LN22@SetTool

; 127  : 		return FALSE;
; 128  : 	POSITION pos = lstTool->GetHeadPosition();

  000af	8b 49 04	 mov	 ecx, DWORD PTR [ecx+4]
  000b2	8b d1		 mov	 edx, ecx

; 129  : 	while(pos)	{

  000b4	85 d2		 test	 edx, edx
  000b6	74 1e		 je	 SHORT $LN22@SetTool
$LL73@SetTool:

; 131  : 		if(pObjTool->GetType() == nToolType)

  000b8	8b 42 08	 mov	 eax, DWORD PTR [edx+8]
; File C:\Program Files (x86)\Microsoft Visual Studio\2019\Community\VC\Tools\MSVC\14.29.30133\atlmfc\include\afxcoll.inl

; 432  : 		rPosition = (POSITION) pNode->pNext;

  000bb	8b 12		 mov	 edx, DWORD PTR [edx]
; File D:\git\src\IBK\IBK_DRFN\ProjSrc\SrcChartEx\ChartOCX\Include_Chart\ToolOption.cpp

; 131  : 		if(pObjTool->GetType() == nToolType)

  000bd	39 78 10	 cmp	 DWORD PTR [eax+16], edi
  000c0	74 06		 je	 SHORT $LL21@SetTool

; 129  : 	while(pos)	{

  000c2	85 d2		 test	 edx, edx
  000c4	75 f2		 jne	 SHORT $LL73@SetTool
; File C:\Program Files (x86)\Microsoft Visual Studio\2019\Community\VC\Tools\MSVC\14.29.30133\atlmfc\include\afxcoll.inl

; 430  : 		if( pNode == NULL )

  000c6	eb 0e		 jmp	 SHORT $LN22@SetTool
$LL21@SetTool:
; File D:\git\src\IBK\IBK_DRFN\ProjSrc\SrcChartEx\ChartOCX\Include_Chart\ToolOption.cpp

; 171  : 				CObjTool * pTool = lstTool->GetNext(pos);

  000c8	8b 71 08	 mov	 esi, DWORD PTR [ecx+8]
; File C:\Program Files (x86)\Microsoft Visual Studio\2019\Community\VC\Tools\MSVC\14.29.30133\atlmfc\include\afxcoll.inl

; 432  : 		rPosition = (POSITION) pNode->pNext;

  000cb	8b 09		 mov	 ecx, DWORD PTR [ecx]
; File D:\git\src\IBK\IBK_DRFN\ProjSrc\SrcChartEx\ChartOCX\Include_Chart\ToolOption.cpp

; 172  : 				if(pTool->GetType() == nToolType)

  000cd	39 7e 10	 cmp	 DWORD PTR [esi+16], edi
  000d0	74 3e		 je	 SHORT $LN18@SetTool

; 162  : 					return pTool;
; 163  : 			}
; 164  : 		}
; 165  : 	}
; 166  : 	if(UseTool(CToolOptionInfo::OUTER, nToolType))	{
; 167  : 		CTypedPtrList<CObList, CObjTool*> * lstTool = GetToolOptionList(CToolOptionInfo::OUTER);
; 168  : 		if(lstTool && lstTool->GetCount() > 0)	{
; 169  : 			POSITION pos = lstTool->GetHeadPosition();
; 170  : 			while(pos)	{

  000d2	85 c9		 test	 ecx, ecx
  000d4	75 f2		 jne	 SHORT $LL21@SetTool
$LN22@SetTool:

; 114  : 		return &lstToolMenu;

  000d6	8d 4b 3c	 lea	 ecx, DWORD PTR [ebx+60]

; 126  : 	if(lstTool == NULL || lstTool->GetCount() <= 0)

  000d9	85 c9		 test	 ecx, ecx
  000db	74 31		 je	 SHORT $LN24@SetTool
  000dd	83 79 0c 00	 cmp	 DWORD PTR [ecx+12], 0
  000e1	7e 2b		 jle	 SHORT $LN24@SetTool

; 127  : 		return FALSE;
; 128  : 	POSITION pos = lstTool->GetHeadPosition();

  000e3	8b 49 04	 mov	 ecx, DWORD PTR [ecx+4]
  000e6	8b d1		 mov	 edx, ecx

; 129  : 	while(pos)	{

  000e8	85 d2		 test	 edx, edx
  000ea	74 22		 je	 SHORT $LN24@SetTool
  000ec	0f 1f 40 00	 npad	 4
$LL109@SetTool:

; 131  : 		if(pObjTool->GetType() == nToolType)

  000f0	8b 42 08	 mov	 eax, DWORD PTR [edx+8]
; File C:\Program Files (x86)\Microsoft Visual Studio\2019\Community\VC\Tools\MSVC\14.29.30133\atlmfc\include\afxcoll.inl

; 432  : 		rPosition = (POSITION) pNode->pNext;

  000f3	8b 12		 mov	 edx, DWORD PTR [edx]
; File D:\git\src\IBK\IBK_DRFN\ProjSrc\SrcChartEx\ChartOCX\Include_Chart\ToolOption.cpp

; 131  : 		if(pObjTool->GetType() == nToolType)

  000f5	39 78 10	 cmp	 DWORD PTR [eax+16], edi
  000f8	74 06		 je	 SHORT $LL23@SetTool

; 129  : 	while(pos)	{

  000fa	85 d2		 test	 edx, edx
  000fc	75 f2		 jne	 SHORT $LL109@SetTool
; File C:\Program Files (x86)\Microsoft Visual Studio\2019\Community\VC\Tools\MSVC\14.29.30133\atlmfc\include\afxcoll.inl

; 430  : 		if( pNode == NULL )

  000fe	eb 0e		 jmp	 SHORT $LN24@SetTool
$LL23@SetTool:
; File D:\git\src\IBK\IBK_DRFN\ProjSrc\SrcChartEx\ChartOCX\Include_Chart\ToolOption.cpp

; 182  : 				CObjTool * pTool = lstTool->GetNext(pos);

  00100	8b 71 08	 mov	 esi, DWORD PTR [ecx+8]
; File C:\Program Files (x86)\Microsoft Visual Studio\2019\Community\VC\Tools\MSVC\14.29.30133\atlmfc\include\afxcoll.inl

; 432  : 		rPosition = (POSITION) pNode->pNext;

  00103	8b 09		 mov	 ecx, DWORD PTR [ecx]
; File D:\git\src\IBK\IBK_DRFN\ProjSrc\SrcChartEx\ChartOCX\Include_Chart\ToolOption.cpp

; 183  : 				if(pTool->GetType() == nToolType)

  00105	39 7e 10	 cmp	 DWORD PTR [esi+16], edi
  00108	74 06		 je	 SHORT $LN18@SetTool

; 173  : 					return pTool;
; 174  : 			}
; 175  : 		}
; 176  : 	}
; 177  : 	if(UseTool(CToolOptionInfo::MENU, nToolType))	{
; 178  : 		CTypedPtrList<CObList, CObjTool*> * lstTool = GetToolOptionList(CToolOptionInfo::MENU);
; 179  : 		if(lstTool && lstTool->GetCount() > 0)	{
; 180  : 			POSITION pos = lstTool->GetHeadPosition();
; 181  : 			while(pos)	{

  0010a	85 c9		 test	 ecx, ecx
  0010c	75 f2		 jne	 SHORT $LL23@SetTool
$LN24@SetTool:

; 184  : 					return pTool;
; 185  : 			}
; 186  : 		}
; 187  : 	}
; 188  : 
; 189  : 	return NULL;

  0010e	33 f6		 xor	 esi, esi
$LN18@SetTool:
; File D:\git\src\IBK\IBK_DRFN\ProjSrc\SrcChartEx\ChartOCX\Include_Chart\ObjTool.h

; 17   : 	void SetOption(CString& strOption1, CString& strOption2)	{m_str1stOption = strOption1; m_str2ndOption = strOption2;}

  00110	8d 45 10	 lea	 eax, DWORD PTR _strOption1$[ebp]
  00113	50		 push	 eax
  00114	8d 4e 08	 lea	 ecx, DWORD PTR [esi+8]
  00117	ff 15 00 00 00
	00		 call	 DWORD PTR __imp_??4?$CStringT@DV?$StrTraitMFC_DLL@DV?$ChTraitsCRT@D@ATL@@@@@ATL@@QAEAAV01@ABV01@@Z
  0011d	8d 45 14	 lea	 eax, DWORD PTR _strOption2$[ebp]
  00120	50		 push	 eax
  00121	8d 4e 0c	 lea	 ecx, DWORD PTR [esi+12]
  00124	ff 15 00 00 00
	00		 call	 DWORD PTR __imp_??4?$CStringT@DV?$StrTraitMFC_DLL@DV?$ChTraitsCRT@D@ATL@@@@@ATL@@QAEAAV01@ABV01@@Z
; File D:\git\src\IBK\IBK_DRFN\ProjSrc\SrcChartEx\ChartOCX\Include_Chart\ToolOption.cpp

; 231  : 	}

  0012a	8d 4d 0c	 lea	 ecx, DWORD PTR _strName$4[ebp]
  0012d	ff 15 00 00 00
	00		 call	 DWORD PTR __imp_??1?$CStringT@DV?$StrTraitMFC_DLL@DV?$ChTraitsCRT@D@ATL@@@@@ATL@@QAE@XZ
  00133	e9 17 01 00 00	 jmp	 $LN169@SetTool
$LN4@SetTool:
; File C:\Program Files (x86)\Microsoft Visual Studio\2019\Community\VC\Tools\MSVC\14.29.30133\atlmfc\include\afx.inl

; 116  : 	{ return ::operator new(nSize); }

  00138	6a 14		 push	 20			; 00000014H
  0013a	e8 00 00 00 00	 call	 ??2@YAPAXI@Z		; operator new
; File D:\git\src\IBK\IBK_DRFN\ProjSrc\SrcChartEx\ChartOCX\Include_Chart\ToolOption.cpp

; 228  : 			CObjTool * pObjTool = new CObjTool(strName, strOption1, strOption2);

  0013f	8b f8		 mov	 edi, eax
; File C:\Program Files (x86)\Microsoft Visual Studio\2019\Community\VC\Tools\MSVC\14.29.30133\atlmfc\include\afx.inl

; 116  : 	{ return ::operator new(nSize); }

  00141	83 c4 04	 add	 esp, 4
; File D:\git\src\IBK\IBK_DRFN\ProjSrc\SrcChartEx\ChartOCX\Include_Chart\ToolOption.cpp

; 228  : 			CObjTool * pObjTool = new CObjTool(strName, strOption1, strOption2);

  00144	89 7d 08	 mov	 DWORD PTR $T3[ebp], edi
  00147	c6 45 fc 03	 mov	 BYTE PTR __$EHRec$[ebp+8], 3
  0014b	85 ff		 test	 edi, edi
  0014d	74 42		 je	 SHORT $LN8@SetTool
  0014f	51		 push	 ecx
  00150	8d 45 14	 lea	 eax, DWORD PTR _strOption2$[ebp]
  00153	89 65 18	 mov	 DWORD PTR $T5[ebp], esp
  00156	8b cc		 mov	 ecx, esp
  00158	50		 push	 eax
  00159	ff 15 00 00 00
	00		 call	 DWORD PTR __imp_??0?$CStringT@DV?$StrTraitMFC_DLL@DV?$ChTraitsCRT@D@ATL@@@@@ATL@@QAE@ABV01@@Z
  0015f	51		 push	 ecx
  00160	8d 45 10	 lea	 eax, DWORD PTR _strOption1$[ebp]
  00163	89 65 f0	 mov	 DWORD PTR $T2[ebp], esp
  00166	8b cc		 mov	 ecx, esp
  00168	c6 45 fc 04	 mov	 BYTE PTR __$EHRec$[ebp+8], 4
  0016c	50		 push	 eax
  0016d	ff 15 00 00 00
	00		 call	 DWORD PTR __imp_??0?$CStringT@DV?$StrTraitMFC_DLL@DV?$ChTraitsCRT@D@ATL@@@@@ATL@@QAE@ABV01@@Z
  00173	51		 push	 ecx
  00174	8d 45 0c	 lea	 eax, DWORD PTR _strName$4[ebp]
  00177	c6 45 fc 05	 mov	 BYTE PTR __$EHRec$[ebp+8], 5
  0017b	8b cc		 mov	 ecx, esp
  0017d	50		 push	 eax
  0017e	ff 15 00 00 00
	00		 call	 DWORD PTR __imp_??0?$CStringT@DV?$StrTraitMFC_DLL@DV?$ChTraitsCRT@D@ATL@@@@@ATL@@QAE@ABV01@@Z
  00184	8b cf		 mov	 ecx, edi
  00186	c6 45 fc 03	 mov	 BYTE PTR __$EHRec$[ebp+8], 3
  0018a	e8 00 00 00 00	 call	 ??0CObjTool@@QAE@V?$CStringT@DV?$StrTraitMFC_DLL@DV?$ChTraitsCRT@D@ATL@@@@@ATL@@00@Z ; CObjTool::CObjTool
  0018f	eb 02		 jmp	 SHORT $LN9@SetTool
$LN8@SetTool:
  00191	33 c0		 xor	 eax, eax
$LN9@SetTool:
  00193	c6 45 fc 02	 mov	 BYTE PTR __$EHRec$[ebp+8], 2

; 106  : 	switch(nOption)	{

  00197	83 ee 00	 sub	 esi, 0
  0019a	74 48		 je	 SHORT $LN152@SetTool
  0019c	83 ee 01	 sub	 esi, 1
  0019f	74 2f		 je	 SHORT $LN153@SetTool
  001a1	83 ee 01	 sub	 esi, 1
  001a4	74 16		 je	 SHORT $LN154@SetTool

; 115  : 		break;
; 116  : 	default:
; 117  : 		return NULL;

  001a6	33 c9		 xor	 ecx, ecx
; File C:\Program Files (x86)\Microsoft Visual Studio\2019\Community\VC\Tools\MSVC\14.29.30133\atlmfc\include\afxtempl.h

; 1959 : 		{ return BASE_CLASS::AddTail(newElement); }

  001a8	50		 push	 eax
  001a9	e8 00 00 00 00	 call	 ?AddTail@CObList@@QAEPAU__POSITION@@PAVCObject@@@Z ; CObList::AddTail
; File D:\git\src\IBK\IBK_DRFN\ProjSrc\SrcChartEx\ChartOCX\Include_Chart\ToolOption.cpp

; 231  : 	}

  001ae	8d 4d 0c	 lea	 ecx, DWORD PTR _strName$4[ebp]
  001b1	ff 15 00 00 00
	00		 call	 DWORD PTR __imp_??1?$CStringT@DV?$StrTraitMFC_DLL@DV?$ChTraitsCRT@D@ATL@@@@@ATL@@QAE@XZ
  001b7	e9 93 00 00 00	 jmp	 $LN169@SetTool
$LN154@SetTool:

; 114  : 		return &lstToolMenu;

  001bc	8d 4b 3c	 lea	 ecx, DWORD PTR [ebx+60]
; File C:\Program Files (x86)\Microsoft Visual Studio\2019\Community\VC\Tools\MSVC\14.29.30133\atlmfc\include\afxtempl.h

; 1959 : 		{ return BASE_CLASS::AddTail(newElement); }

  001bf	50		 push	 eax
  001c0	e8 00 00 00 00	 call	 ?AddTail@CObList@@QAEPAU__POSITION@@PAVCObject@@@Z ; CObList::AddTail
; File D:\git\src\IBK\IBK_DRFN\ProjSrc\SrcChartEx\ChartOCX\Include_Chart\ToolOption.cpp

; 231  : 	}

  001c5	8d 4d 0c	 lea	 ecx, DWORD PTR _strName$4[ebp]
  001c8	ff 15 00 00 00
	00		 call	 DWORD PTR __imp_??1?$CStringT@DV?$StrTraitMFC_DLL@DV?$ChTraitsCRT@D@ATL@@@@@ATL@@QAE@XZ
  001ce	eb 7f		 jmp	 SHORT $LN169@SetTool
$LN153@SetTool:

; 111  : 		return &lstToolOuter;

  001d0	8d 4b 20	 lea	 ecx, DWORD PTR [ebx+32]
; File C:\Program Files (x86)\Microsoft Visual Studio\2019\Community\VC\Tools\MSVC\14.29.30133\atlmfc\include\afxtempl.h

; 1959 : 		{ return BASE_CLASS::AddTail(newElement); }

  001d3	50		 push	 eax
  001d4	e8 00 00 00 00	 call	 ?AddTail@CObList@@QAEPAU__POSITION@@PAVCObject@@@Z ; CObList::AddTail
; File D:\git\src\IBK\IBK_DRFN\ProjSrc\SrcChartEx\ChartOCX\Include_Chart\ToolOption.cpp

; 231  : 	}

  001d9	8d 4d 0c	 lea	 ecx, DWORD PTR _strName$4[ebp]
  001dc	ff 15 00 00 00
	00		 call	 DWORD PTR __imp_??1?$CStringT@DV?$StrTraitMFC_DLL@DV?$ChTraitsCRT@D@ATL@@@@@ATL@@QAE@XZ
  001e2	eb 6b		 jmp	 SHORT $LN169@SetTool
$LN152@SetTool:

; 108  : 		return &lstToolInner;

  001e4	8d 4b 04	 lea	 ecx, DWORD PTR [ebx+4]
; File C:\Program Files (x86)\Microsoft Visual Studio\2019\Community\VC\Tools\MSVC\14.29.30133\atlmfc\include\afxtempl.h

; 1959 : 		{ return BASE_CLASS::AddTail(newElement); }

  001e7	50		 push	 eax
  001e8	e8 00 00 00 00	 call	 ?AddTail@CObList@@QAEPAU__POSITION@@PAVCObject@@@Z ; CObList::AddTail
; File D:\git\src\IBK\IBK_DRFN\ProjSrc\SrcChartEx\ChartOCX\Include_Chart\ToolOption.cpp

; 231  : 	}

  001ed	8d 4d 0c	 lea	 ecx, DWORD PTR _strName$4[ebp]
  001f0	ff 15 00 00 00
	00		 call	 DWORD PTR __imp_??1?$CStringT@DV?$StrTraitMFC_DLL@DV?$ChTraitsCRT@D@ATL@@@@@ATL@@QAE@XZ
  001f6	eb 57		 jmp	 SHORT $LN169@SetTool
$LN2@SetTool:

; 232  : 	else	{
; 233  : 		if(!UseTool(nOption, nToolType))

  001f8	8b 75 08	 mov	 esi, DWORD PTR _nOption$[ebp]
  001fb	8b cb		 mov	 ecx, ebx
  001fd	57		 push	 edi
  001fe	56		 push	 esi
  001ff	e8 00 00 00 00	 call	 ?UseTool@CToolOption@@QAEHW4OPTION@CToolOptionInfo@@W4TOOLOPTION@3@@Z ; CToolOption::UseTool
  00204	85 c0		 test	 eax, eax
  00206	74 47		 je	 SHORT $LN169@SetTool

; 106  : 	switch(nOption)	{

  00208	83 ee 00	 sub	 esi, 0
  0020b	74 18		 je	 SHORT $LN162@SetTool
  0020d	83 ee 01	 sub	 esi, 1
  00210	74 0e		 je	 SHORT $LN163@SetTool
  00212	83 ee 01	 sub	 esi, 1
  00215	74 04		 je	 SHORT $LN164@SetTool

; 115  : 		break;
; 116  : 	default:
; 117  : 		return NULL;

  00217	33 c9		 xor	 ecx, ecx
  00219	eb 0d		 jmp	 SHORT $LN160@SetTool
$LN164@SetTool:

; 112  : 		break;
; 113  : 	case CToolOptionInfo::MENU:
; 114  : 		return &lstToolMenu;

  0021b	8d 4b 3c	 lea	 ecx, DWORD PTR [ebx+60]
  0021e	eb 08		 jmp	 SHORT $LN160@SetTool
$LN163@SetTool:

; 109  : 		break;
; 110  : 	case CToolOptionInfo::OUTER:
; 111  : 		return &lstToolOuter;

  00220	8d 4b 20	 lea	 ecx, DWORD PTR [ebx+32]
  00223	eb 03		 jmp	 SHORT $LN160@SetTool
$LN162@SetTool:

; 107  : 	case CToolOptionInfo::INNER:
; 108  : 		return &lstToolInner;

  00225	8d 4b 04	 lea	 ecx, DWORD PTR [ebx+4]
$LN160@SetTool:

; 242  : 	POSITION pos = plstToolOption->GetHeadPosition();

  00228	8b 41 04	 mov	 eax, DWORD PTR [ecx+4]

; 243  : 	while(pos)	{

  0022b	85 c0		 test	 eax, eax
  0022d	74 20		 je	 SHORT $LN169@SetTool
  0022f	90		 npad	 1
$LL168@SetTool:

; 244  : 		CObjTool * pTool = plstToolOption->GetAt(pos);

  00230	8b 70 08	 mov	 esi, DWORD PTR [eax+8]

; 245  : 		if(pTool->GetType() == nToolType)	{

  00233	39 7e 10	 cmp	 DWORD PTR [esi+16], edi
  00236	74 08		 je	 SHORT $LN207@SetTool
; File C:\Program Files (x86)\Microsoft Visual Studio\2019\Community\VC\Tools\MSVC\14.29.30133\atlmfc\include\afxcoll.inl

; 432  : 		rPosition = (POSITION) pNode->pNext;

  00238	8b 00		 mov	 eax, DWORD PTR [eax]
; File D:\git\src\IBK\IBK_DRFN\ProjSrc\SrcChartEx\ChartOCX\Include_Chart\ToolOption.cpp

; 243  : 	while(pos)	{

  0023a	85 c0		 test	 eax, eax
  0023c	75 f2		 jne	 SHORT $LL168@SetTool
; File C:\Program Files (x86)\Microsoft Visual Studio\2019\Community\VC\Tools\MSVC\14.29.30133\atlmfc\include\afxcoll.inl

; 430  : 		if( pNode == NULL )

  0023e	eb 0f		 jmp	 SHORT $LN169@SetTool
$LN207@SetTool:
; File D:\git\src\IBK\IBK_DRFN\ProjSrc\SrcChartEx\ChartOCX\Include_Chart\ToolOption.cpp

; 246  : 			plstToolOption->RemoveAt(pos);

  00240	50		 push	 eax
  00241	e8 00 00 00 00	 call	 ?RemoveAt@CObList@@QAEXPAU__POSITION@@@Z ; CObList::RemoveAt

; 247  : 			delete pTool;

  00246	8b 06		 mov	 eax, DWORD PTR [esi]
  00248	8b ce		 mov	 ecx, esi
  0024a	6a 01		 push	 1
  0024c	ff 50 04	 call	 DWORD PTR [eax+4]
$LN169@SetTool:

; 234  : 			return;
; 235  : 		DeleteTool(GetToolOptionList(nOption), nToolType);
; 236  : 	}
; 237  : }

  0024f	8d 4d 10	 lea	 ecx, DWORD PTR _strOption1$[ebp]
  00252	ff 15 00 00 00
	00		 call	 DWORD PTR __imp_??1?$CStringT@DV?$StrTraitMFC_DLL@DV?$ChTraitsCRT@D@ATL@@@@@ATL@@QAE@XZ
  00258	8d 4d 14	 lea	 ecx, DWORD PTR _strOption2$[ebp]
  0025b	ff 15 00 00 00
	00		 call	 DWORD PTR __imp_??1?$CStringT@DV?$StrTraitMFC_DLL@DV?$ChTraitsCRT@D@ATL@@@@@ATL@@QAE@XZ
  00261	8b 4d f4	 mov	 ecx, DWORD PTR __$EHRec$[ebp]
  00264	64 89 0d 00 00
	00 00		 mov	 DWORD PTR fs:0, ecx
  0026b	59		 pop	 ecx
  0026c	5f		 pop	 edi
  0026d	5e		 pop	 esi
  0026e	5b		 pop	 ebx
  0026f	8b e5		 mov	 esp, ebp
  00271	5d		 pop	 ebp
  00272	c2 14 00	 ret	 20			; 00000014H
_TEXT	ENDS
;	COMDAT text$x
text$x	SEGMENT
__unwindfunclet$?SetTool@CToolOption@@QAEXW4OPTION@CToolOptionInfo@@W4TOOLOPTION@3@V?$CStringT@DV?$StrTraitMFC_DLL@DV?$ChTraitsCRT@D@ATL@@@@@ATL@@2H@Z$0:
  00000	8d 4d 14	 lea	 ecx, DWORD PTR _strOption2$[ebp]
  00003	ff 25 00 00 00
	00		 jmp	 DWORD PTR __imp_??1?$CStringT@DV?$StrTraitMFC_DLL@DV?$ChTraitsCRT@D@ATL@@@@@ATL@@QAE@XZ
__unwindfunclet$?SetTool@CToolOption@@QAEXW4OPTION@CToolOptionInfo@@W4TOOLOPTION@3@V?$CStringT@DV?$StrTraitMFC_DLL@DV?$ChTraitsCRT@D@ATL@@@@@ATL@@2H@Z$1:
  00009	8d 4d 10	 lea	 ecx, DWORD PTR _strOption1$[ebp]
  0000c	ff 25 00 00 00
	00		 jmp	 DWORD PTR __imp_??1?$CStringT@DV?$StrTraitMFC_DLL@DV?$ChTraitsCRT@D@ATL@@@@@ATL@@QAE@XZ
__unwindfunclet$?SetTool@CToolOption@@QAEXW4OPTION@CToolOptionInfo@@W4TOOLOPTION@3@V?$CStringT@DV?$StrTraitMFC_DLL@DV?$ChTraitsCRT@D@ATL@@@@@ATL@@2H@Z$2:
  00012	8d 4d 0c	 lea	 ecx, DWORD PTR _strName$4[ebp]
  00015	ff 25 00 00 00
	00		 jmp	 DWORD PTR __imp_??1?$CStringT@DV?$StrTraitMFC_DLL@DV?$ChTraitsCRT@D@ATL@@@@@ATL@@QAE@XZ
__unwindfunclet$?SetTool@CToolOption@@QAEXW4OPTION@CToolOptionInfo@@W4TOOLOPTION@3@V?$CStringT@DV?$StrTraitMFC_DLL@DV?$ChTraitsCRT@D@ATL@@@@@ATL@@2H@Z$3:
  0001b	8b 45 08	 mov	 eax, DWORD PTR $T3[ebp]
  0001e	50		 push	 eax
  0001f	e8 00 00 00 00	 call	 ??3CObject@@SGXPAX@Z	; CObject::operator delete
  00024	c3		 ret	 0
__unwindfunclet$?SetTool@CToolOption@@QAEXW4OPTION@CToolOptionInfo@@W4TOOLOPTION@3@V?$CStringT@DV?$StrTraitMFC_DLL@DV?$ChTraitsCRT@D@ATL@@@@@ATL@@2H@Z$4:
  00025	8b 4d 18	 mov	 ecx, DWORD PTR $T5[ebp]
  00028	ff 25 00 00 00
	00		 jmp	 DWORD PTR __imp_??1?$CStringT@DV?$StrTraitMFC_DLL@DV?$ChTraitsCRT@D@ATL@@@@@ATL@@QAE@XZ
__unwindfunclet$?SetTool@CToolOption@@QAEXW4OPTION@CToolOptionInfo@@W4TOOLOPTION@3@V?$CStringT@DV?$StrTraitMFC_DLL@DV?$ChTraitsCRT@D@ATL@@@@@ATL@@2H@Z$5:
  0002e	8b 4d f0	 mov	 ecx, DWORD PTR $T2[ebp]
  00031	ff 25 00 00 00
	00		 jmp	 DWORD PTR __imp_??1?$CStringT@DV?$StrTraitMFC_DLL@DV?$ChTraitsCRT@D@ATL@@@@@ATL@@QAE@XZ
  00037	cc		 int	 3
  00038	cc		 int	 3
  00039	cc		 int	 3
  0003a	cc		 int	 3
  0003b	cc		 int	 3
__ehhandler$?SetTool@CToolOption@@QAEXW4OPTION@CToolOptionInfo@@W4TOOLOPTION@3@V?$CStringT@DV?$StrTraitMFC_DLL@DV?$ChTraitsCRT@D@ATL@@@@@ATL@@2H@Z:
  0003c	90		 npad	 1
  0003d	90		 npad	 1
  0003e	8b 54 24 08	 mov	 edx, DWORD PTR [esp+8]
  00042	8d 42 0c	 lea	 eax, DWORD PTR [edx+12]
  00045	8b 4a e8	 mov	 ecx, DWORD PTR [edx-24]
  00048	33 c8		 xor	 ecx, eax
  0004a	e8 00 00 00 00	 call	 @__security_check_cookie@4
  0004f	b8 00 00 00 00	 mov	 eax, OFFSET __ehfuncinfo$?SetTool@CToolOption@@QAEXW4OPTION@CToolOptionInfo@@W4TOOLOPTION@3@V?$CStringT@DV?$StrTraitMFC_DLL@DV?$ChTraitsCRT@D@ATL@@@@@ATL@@2H@Z
  00054	e9 00 00 00 00	 jmp	 ___CxxFrameHandler3
text$x	ENDS
?SetTool@CToolOption@@QAEXW4OPTION@CToolOptionInfo@@W4TOOLOPTION@3@V?$CStringT@DV?$StrTraitMFC_DLL@DV?$ChTraitsCRT@D@ATL@@@@@ATL@@2H@Z ENDP ; CToolOption::SetTool
; Function compile flags: /Ogtp
; File C:\Program Files (x86)\Microsoft Visual Studio\2019\Community\VC\Tools\MSVC\14.29.30133\atlmfc\include\afx.inl
;	COMDAT ?Dump@CObject@@UBEXAAVCDumpContext@@@Z
_TEXT	SEGMENT
___formal$ = 8						; size = 4
?Dump@CObject@@UBEXAAVCDumpContext@@@Z PROC		; CObject::Dump, COMDAT
; _this$ = ecx

; 122  : 	{ /* no dumping in release builds */ }

  00000	c2 04 00	 ret	 4
?Dump@CObject@@UBEXAAVCDumpContext@@@Z ENDP		; CObject::Dump
_TEXT	ENDS
; Function compile flags: /Ogtp
; File C:\Program Files (x86)\Microsoft Visual Studio\2019\Community\VC\Tools\MSVC\14.29.30133\atlmfc\include\afx.inl
;	COMDAT ?AssertValid@CObject@@UBEXXZ
_TEXT	SEGMENT
?AssertValid@CObject@@UBEXXZ PROC			; CObject::AssertValid, COMDAT
; _this$ = ecx

; 120  : 	{ /* no asserts in release builds */ }

  00000	c2 00 00	 ret	 0
?AssertValid@CObject@@UBEXXZ ENDP			; CObject::AssertValid
_TEXT	ENDS
; Function compile flags: /Ogtp
; File C:\Program Files (x86)\Microsoft Visual Studio\2019\Community\VC\Tools\MSVC\14.29.30133\atlmfc\include\afx.inl
;	COMDAT ??3CObject@@SGXPAX@Z
_TEXT	SEGMENT
_p$ = 8							; size = 4
??3CObject@@SGXPAX@Z PROC				; CObject::operator delete, COMDAT

; 112  : 	{ ::operator delete(p); }

  00000	55		 push	 ebp
  00001	8b ec		 mov	 ebp, esp
  00003	ff 75 08	 push	 DWORD PTR _p$[ebp]
  00006	e8 00 00 00 00	 call	 ??3@YAXPAX@Z		; operator delete
  0000b	83 c4 04	 add	 esp, 4
  0000e	5d		 pop	 ebp
  0000f	c2 04 00	 ret	 4
??3CObject@@SGXPAX@Z ENDP				; CObject::operator delete
_TEXT	ENDS
; Function compile flags: /Ogtp
; File D:\git\src\IBK\IBK_DRFN\ProjSrc\SrcChartEx\ChartOCX\Include_Chart\ToolOption.cpp
;	COMDAT ?__empty_global_delete@@YAXPAXI@Z
_TEXT	SEGMENT
___formal$ = 8						; size = 4
___formal$ = 12						; size = 4
?__empty_global_delete@@YAXPAXI@Z PROC			; __empty_global_delete, COMDAT

  00000	c2 00 00	 ret	 0
?__empty_global_delete@@YAXPAXI@Z ENDP			; __empty_global_delete
_TEXT	ENDS
; Function compile flags: /Ogtp
; File D:\git\src\IBK\IBK_DRFN\ProjSrc\SrcChartEx\ChartOCX\Include_Chart\ToolOption.cpp
;	COMDAT ?__empty_global_delete@@YAXPAX@Z
_TEXT	SEGMENT
___formal$ = 8						; size = 4
?__empty_global_delete@@YAXPAX@Z PROC			; __empty_global_delete, COMDAT

  00000	c2 00 00	 ret	 0
?__empty_global_delete@@YAXPAX@Z ENDP			; __empty_global_delete
_TEXT	ENDS
END
