; Listing generated by Microsoft (R) Optimizing Compiler Version 19.29.30145.0 

	TITLE	D:\git\src\IBK\IBK_DRFN\#DRfn-CS\_Obj\ChartPatternAddin\CandlePattern.obj
	.686P
	.XMM
	include listing.inc
	.model	flat

INCLUDELIB MSVCRT
INCLUDELIB OLDNAMES

PUBLIC	?__empty_global_delete@@YAXPAX@Z		; __empty_global_delete
PUBLIC	?__empty_global_delete@@YAXPAXI@Z		; __empty_global_delete
PUBLIC	??1CObject@@UAE@XZ				; CObject::~CObject
PUBLIC	??3CObject@@SGXPAX@Z				; CObject::operator delete
PUBLIC	?Serialize@CObject@@UAEXAAVCArchive@@@Z		; CObject::Serialize
PUBLIC	?AssertValid@CObject@@UBEXXZ			; CObject::AssertValid
PUBLIC	?Dump@CObject@@UBEXAAVCDumpContext@@@Z		; CObject::Dump
PUBLIC	??0CCandlePattern@@QAE@XZ			; CCandlePattern::CCandlePattern
PUBLIC	??1CCandlePattern@@UAE@XZ			; CCandlePattern::~CCandlePattern
PUBLIC	?GetCandleHeight@CCandlePattern@@QAENPAU_STCANDLE_DATA@@H@Z ; CCandlePattern::GetCandleHeight
PUBLIC	?GetCandleAvgHeight@CCandlePattern@@QAENPAU_STCANDLE_DATA@@H@Z ; CCandlePattern::GetCandleAvgHeight
PUBLIC	?GetCandleBodyHeight@CCandlePattern@@QAENPAU_STCANDLE_DATA@@H@Z ; CCandlePattern::GetCandleBodyHeight
PUBLIC	?GetCandleBodyHighValue@CCandlePattern@@QAENPAU_STCANDLE_DATA@@H@Z ; CCandlePattern::GetCandleBodyHighValue
PUBLIC	?GetCandleBodyLowValue@CCandlePattern@@QAENPAU_STCANDLE_DATA@@H@Z ; CCandlePattern::GetCandleBodyLowValue
PUBLIC	?GetCandleBodyMidValue@CCandlePattern@@QAENPAU_STCANDLE_DATA@@H@Z ; CCandlePattern::GetCandleBodyMidValue
PUBLIC	?GetCandleShadowUp@CCandlePattern@@QAENPAU_STCANDLE_DATA@@H@Z ; CCandlePattern::GetCandleShadowUp
PUBLIC	?GetCandleShadowDown@CCandlePattern@@QAENPAU_STCANDLE_DATA@@H@Z ; CCandlePattern::GetCandleShadowDown
PUBLIC	?IsCandleWhite@CCandlePattern@@QAEHPAU_STCANDLE_DATA@@H@Z ; CCandlePattern::IsCandleWhite
PUBLIC	?IsCandleBlack@CCandlePattern@@QAEHPAU_STCANDLE_DATA@@H@Z ; CCandlePattern::IsCandleBlack
PUBLIC	?IsCandleLong@CCandlePattern@@QAEHPAU_STCANDLE_DATA@@H@Z ; CCandlePattern::IsCandleLong
PUBLIC	?IsCandleShort@CCandlePattern@@QAEHPAU_STCANDLE_DATA@@H@Z ; CCandlePattern::IsCandleShort
PUBLIC	?IsCandleDoji@CCandlePattern@@QAEHPAU_STCANDLE_DATA@@H@Z ; CCandlePattern::IsCandleDoji
PUBLIC	?IsCandleMarubozu@CCandlePattern@@QAEHPAU_STCANDLE_DATA@@H@Z ; CCandlePattern::IsCandleMarubozu
PUBLIC	?IsCandleTrendUp@CCandlePattern@@QAEHPAU_STCANDLE_DATA@@H@Z ; CCandlePattern::IsCandleTrendUp
PUBLIC	?IsCandleTrendDown@CCandlePattern@@QAEHPAU_STCANDLE_DATA@@H@Z ; CCandlePattern::IsCandleTrendDown
PUBLIC	?IsCandleGapUp@CCandlePattern@@QAEHPAU_STCANDLE_DATA@@H@Z ; CCandlePattern::IsCandleGapUp
PUBLIC	?IsCandleGapDown@CCandlePattern@@QAEHPAU_STCANDLE_DATA@@H@Z ; CCandlePattern::IsCandleGapDown
PUBLIC	?IsCandleHarami@CCandlePattern@@QAEHPAU_STCANDLE_DATA@@H@Z ; CCandlePattern::IsCandleHarami
PUBLIC	?IsCandleEngulfing@CCandlePattern@@QAEHPAU_STCANDLE_DATA@@H@Z ; CCandlePattern::IsCandleEngulfing
PUBLIC	?CDFind_Hammer@CCandlePattern@@QAEHPAU_STCANDLE_DATA@@PAVCObject@@@Z ; CCandlePattern::CDFind_Hammer
PUBLIC	?CDFind_HangingMan@CCandlePattern@@QAEHPAU_STCANDLE_DATA@@PAVCObject@@@Z ; CCandlePattern::CDFind_HangingMan
PUBLIC	?CDFind_InvertedHammer@CCandlePattern@@QAEHPAU_STCANDLE_DATA@@PAVCObject@@@Z ; CCandlePattern::CDFind_InvertedHammer
PUBLIC	?CDFind_ShootingStar@CCandlePattern@@QAEHPAU_STCANDLE_DATA@@PAVCObject@@@Z ; CCandlePattern::CDFind_ShootingStar
PUBLIC	?CDFind_Bullish_BeltHoldLine@CCandlePattern@@QAEHPAU_STCANDLE_DATA@@PAVCObject@@@Z ; CCandlePattern::CDFind_Bullish_BeltHoldLine
PUBLIC	?CDFind_Bearish_BeltHoldLine@CCandlePattern@@QAEHPAU_STCANDLE_DATA@@PAVCObject@@@Z ; CCandlePattern::CDFind_Bearish_BeltHoldLine
PUBLIC	?CDFind_Long_WhiteBody@CCandlePattern@@QAEHPAU_STCANDLE_DATA@@PAVCObject@@@Z ; CCandlePattern::CDFind_Long_WhiteBody
PUBLIC	?CDFind_Long_BlackBody@CCandlePattern@@QAEHPAU_STCANDLE_DATA@@PAVCObject@@@Z ; CCandlePattern::CDFind_Long_BlackBody
PUBLIC	?CDFind_Bullish_Harami@CCandlePattern@@QAEHPAU_STCANDLE_DATA@@PAVCObject@@@Z ; CCandlePattern::CDFind_Bullish_Harami
PUBLIC	?CDFind_Bearish_Harami@CCandlePattern@@QAEHPAU_STCANDLE_DATA@@PAVCObject@@@Z ; CCandlePattern::CDFind_Bearish_Harami
PUBLIC	?CDFind_Bullish_Engulfing@CCandlePattern@@QAEHPAU_STCANDLE_DATA@@PAVCObject@@@Z ; CCandlePattern::CDFind_Bullish_Engulfing
PUBLIC	?CDFind_Bearish_Engulfing@CCandlePattern@@QAEHPAU_STCANDLE_DATA@@PAVCObject@@@Z ; CCandlePattern::CDFind_Bearish_Engulfing
PUBLIC	?CDFind_Bullish_CounterattackLine@CCandlePattern@@QAEHPAU_STCANDLE_DATA@@PAVCObject@@@Z ; CCandlePattern::CDFind_Bullish_CounterattackLine
PUBLIC	?CDFind_Bearish_CounterattackLine@CCandlePattern@@QAEHPAU_STCANDLE_DATA@@PAVCObject@@@Z ; CCandlePattern::CDFind_Bearish_CounterattackLine
PUBLIC	?CDFind_PiercingPattern@CCandlePattern@@QAEHPAU_STCANDLE_DATA@@PAVCObject@@@Z ; CCandlePattern::CDFind_PiercingPattern
PUBLIC	?CDFind_DarkCloudCover@CCandlePattern@@QAEHPAU_STCANDLE_DATA@@PAVCObject@@@Z ; CCandlePattern::CDFind_DarkCloudCover
PUBLIC	?CDFind_MorningStar@CCandlePattern@@QAEHPAU_STCANDLE_DATA@@PAVCObject@@@Z ; CCandlePattern::CDFind_MorningStar
PUBLIC	?CDFind_EveningStar@CCandlePattern@@QAEHPAU_STCANDLE_DATA@@PAVCObject@@@Z ; CCandlePattern::CDFind_EveningStar
PUBLIC	?CDFind_MorningDojiStar@CCandlePattern@@QAEHPAU_STCANDLE_DATA@@PAVCObject@@@Z ; CCandlePattern::CDFind_MorningDojiStar
PUBLIC	?CDFind_EveningDojiStar@CCandlePattern@@QAEHPAU_STCANDLE_DATA@@PAVCObject@@@Z ; CCandlePattern::CDFind_EveningDojiStar
PUBLIC	?CDFind_AbandonedBabyInDowntrend@CCandlePattern@@QAEHPAU_STCANDLE_DATA@@PAVCObject@@@Z ; CCandlePattern::CDFind_AbandonedBabyInDowntrend
PUBLIC	?CDFind_AbandonedBabyInUptrend@CCandlePattern@@QAEHPAU_STCANDLE_DATA@@PAVCObject@@@Z ; CCandlePattern::CDFind_AbandonedBabyInUptrend
PUBLIC	?CDFind_ThreeIndiseUp@CCandlePattern@@QAEHPAU_STCANDLE_DATA@@PAVCObject@@@Z ; CCandlePattern::CDFind_ThreeIndiseUp
PUBLIC	?CDFind_ThreeIndiseDown@CCandlePattern@@QAEHPAU_STCANDLE_DATA@@PAVCObject@@@Z ; CCandlePattern::CDFind_ThreeIndiseDown
PUBLIC	?CDFind_ThreeOutsideUp@CCandlePattern@@QAEHPAU_STCANDLE_DATA@@PAVCObject@@@Z ; CCandlePattern::CDFind_ThreeOutsideUp
PUBLIC	?CDFind_ThreeOutsideDown@CCandlePattern@@QAEHPAU_STCANDLE_DATA@@PAVCObject@@@Z ; CCandlePattern::CDFind_ThreeOutsideDown
PUBLIC	?CDFind_UpsideGapTwoCrowsInUptrend@CCandlePattern@@QAEHPAU_STCANDLE_DATA@@PAVCObject@@@Z ; CCandlePattern::CDFind_UpsideGapTwoCrowsInUptrend
PUBLIC	?CDFind_ThreeWhiteSoldier@CCandlePattern@@QAEHPAU_STCANDLE_DATA@@PAVCObject@@@Z ; CCandlePattern::CDFind_ThreeWhiteSoldier
PUBLIC	?CDFind_ThreeBlackCorws@CCandlePattern@@QAEHPAU_STCANDLE_DATA@@PAVCObject@@@Z ; CCandlePattern::CDFind_ThreeBlackCorws
PUBLIC	?CDFind_StalledPattern@CCandlePattern@@QAEHPAU_STCANDLE_DATA@@PAVCObject@@@Z ; CCandlePattern::CDFind_StalledPattern
PUBLIC	?CDFind_AdvanceBlock@CCandlePattern@@QAEHPAU_STCANDLE_DATA@@PAVCObject@@@Z ; CCandlePattern::CDFind_AdvanceBlock
PUBLIC	?CDFind_UpsideGapTasuki@CCandlePattern@@QAEHPAU_STCANDLE_DATA@@PAVCObject@@@Z ; CCandlePattern::CDFind_UpsideGapTasuki
PUBLIC	?CDFind_DownsideGapTasuki@CCandlePattern@@QAEHPAU_STCANDLE_DATA@@PAVCObject@@@Z ; CCandlePattern::CDFind_DownsideGapTasuki
PUBLIC	?CDFind_MatHold@CCandlePattern@@QAEHPAU_STCANDLE_DATA@@PAVCObject@@@Z ; CCandlePattern::CDFind_MatHold
PUBLIC	?CDFind_Bullish_TriStar@CCandlePattern@@QAEHPAU_STCANDLE_DATA@@PAVCObject@@@Z ; CCandlePattern::CDFind_Bullish_TriStar
PUBLIC	?CDFind_Bearish_TriStar@CCandlePattern@@QAEHPAU_STCANDLE_DATA@@PAVCObject@@@Z ; CCandlePattern::CDFind_Bearish_TriStar
PUBLIC	?CDFind_UniqueThreeRiverBottom@CCandlePattern@@QAEHPAU_STCANDLE_DATA@@PAVCObject@@@Z ; CCandlePattern::CDFind_UniqueThreeRiverBottom
PUBLIC	?CDFind_IdenticalThreeCrows@CCandlePattern@@QAEHPAU_STCANDLE_DATA@@PAVCObject@@@Z ; CCandlePattern::CDFind_IdenticalThreeCrows
PUBLIC	?CDFind_Bullish_Breakaway@CCandlePattern@@QAEHPAU_STCANDLE_DATA@@PAVCObject@@@Z ; CCandlePattern::CDFind_Bullish_Breakaway
PUBLIC	?CDFind_Bearish_Breakaway@CCandlePattern@@QAEHPAU_STCANDLE_DATA@@PAVCObject@@@Z ; CCandlePattern::CDFind_Bearish_Breakaway
PUBLIC	?CDFind_TwoCrows@CCandlePattern@@QAEHPAU_STCANDLE_DATA@@PAVCObject@@@Z ; CCandlePattern::CDFind_TwoCrows
PUBLIC	?CDFind_ThreeStarsInTheSouth@CCandlePattern@@QAEHPAU_STCANDLE_DATA@@PAVCObject@@@Z ; CCandlePattern::CDFind_ThreeStarsInTheSouth
PUBLIC	?CDFind_ConcealingBabySwallow@CCandlePattern@@QAEHPAU_STCANDLE_DATA@@PAVCObject@@@Z ; CCandlePattern::CDFind_ConcealingBabySwallow
PUBLIC	?CDFind_StickSandwich@CCandlePattern@@QAEHPAU_STCANDLE_DATA@@PAVCObject@@@Z ; CCandlePattern::CDFind_StickSandwich
PUBLIC	?CDFind_Bullish_Kicking@CCandlePattern@@QAEHPAU_STCANDLE_DATA@@PAVCObject@@@Z ; CCandlePattern::CDFind_Bullish_Kicking
PUBLIC	?CDFind_Bearish_Kicking@CCandlePattern@@QAEHPAU_STCANDLE_DATA@@PAVCObject@@@Z ; CCandlePattern::CDFind_Bearish_Kicking
PUBLIC	?CDFind_HomingPigeon@CCandlePattern@@QAEHPAU_STCANDLE_DATA@@PAVCObject@@@Z ; CCandlePattern::CDFind_HomingPigeon
PUBLIC	?CDFind_LadderBottom@CCandlePattern@@QAEHPAU_STCANDLE_DATA@@PAVCObject@@@Z ; CCandlePattern::CDFind_LadderBottom
PUBLIC	?CDFind_MatchingLow@CCandlePattern@@QAEHPAU_STCANDLE_DATA@@PAVCObject@@@Z ; CCandlePattern::CDFind_MatchingLow
PUBLIC	?CDFind_Bullish_SideBySideWhiteLines@CCandlePattern@@QAEHPAU_STCANDLE_DATA@@PAVCObject@@@Z ; CCandlePattern::CDFind_Bullish_SideBySideWhiteLines
PUBLIC	?CDFind_Bearish_SideBySideWhiteLines@CCandlePattern@@QAEHPAU_STCANDLE_DATA@@PAVCObject@@@Z ; CCandlePattern::CDFind_Bearish_SideBySideWhiteLines
PUBLIC	?CDFind_RisingThreeMethods@CCandlePattern@@QAEHPAU_STCANDLE_DATA@@PAVCObject@@@Z ; CCandlePattern::CDFind_RisingThreeMethods
PUBLIC	?CDFind_FallingThreeMethods@CCandlePattern@@QAEHPAU_STCANDLE_DATA@@PAVCObject@@@Z ; CCandlePattern::CDFind_FallingThreeMethods
PUBLIC	?CDFind_Bullish_SeparatingLines@CCandlePattern@@QAEHPAU_STCANDLE_DATA@@PAVCObject@@@Z ; CCandlePattern::CDFind_Bullish_SeparatingLines
PUBLIC	?CDFind_Bearish_SeparatingLines@CCandlePattern@@QAEHPAU_STCANDLE_DATA@@PAVCObject@@@Z ; CCandlePattern::CDFind_Bearish_SeparatingLines
PUBLIC	?CDFind_Bullish_ThreeLineStrike@CCandlePattern@@QAEHPAU_STCANDLE_DATA@@PAVCObject@@@Z ; CCandlePattern::CDFind_Bullish_ThreeLineStrike
PUBLIC	?CDFind_Bearish_ThreeLineStrike@CCandlePattern@@QAEHPAU_STCANDLE_DATA@@PAVCObject@@@Z ; CCandlePattern::CDFind_Bearish_ThreeLineStrike
PUBLIC	?CDFind_UpsideGapThreeMethods@CCandlePattern@@QAEHPAU_STCANDLE_DATA@@PAVCObject@@@Z ; CCandlePattern::CDFind_UpsideGapThreeMethods
PUBLIC	?CDFind_DownsideGapThreeMethods@CCandlePattern@@QAEHPAU_STCANDLE_DATA@@PAVCObject@@@Z ; CCandlePattern::CDFind_DownsideGapThreeMethods
PUBLIC	?CDFind_OnNeck@CCandlePattern@@QAEHPAU_STCANDLE_DATA@@PAVCObject@@@Z ; CCandlePattern::CDFind_OnNeck
PUBLIC	?CDFind_InNeck@CCandlePattern@@QAEHPAU_STCANDLE_DATA@@PAVCObject@@@Z ; CCandlePattern::CDFind_InNeck
PUBLIC	?CDFind_ThrustingLine@CCandlePattern@@QAEHPAU_STCANDLE_DATA@@PAVCObject@@@Z ; CCandlePattern::CDFind_ThrustingLine
PUBLIC	?CDFind_Bullish_GraveStone@CCandlePattern@@QAEHPAU_STCANDLE_DATA@@PAVCObject@@@Z ; CCandlePattern::CDFind_Bullish_GraveStone
PUBLIC	?CDFind_Bullish_DragonFly@CCandlePattern@@QAEHPAU_STCANDLE_DATA@@PAVCObject@@@Z ; CCandlePattern::CDFind_Bullish_DragonFly
PUBLIC	?SetCandlePatternData@CCandlePattern@@QAEXPAVCObject@@PAU_STCANDLE_DATA@@HHH@Z ; CCandlePattern::SetCandlePatternData
PUBLIC	?CDFind_All_CandlePattern@CCandlePattern@@QAEXPAU_STCANDLE_DATA@@PAVCObject@@@Z ; CCandlePattern::CDFind_All_CandlePattern
PUBLIC	?GetCandlePatternName@CCandlePattern@@QAE?AV?$CStringT@DV?$StrTraitMFC_DLL@DV?$ChTraitsCRT@D@ATL@@@@@ATL@@H@Z ; CCandlePattern::GetCandlePatternName
PUBLIC	?GetCandlePatternTrend@CCandlePattern@@QAEHH@Z	; CCandlePattern::GetCandlePatternTrend
PUBLIC	?GetCandlePatternTrendName@CCandlePattern@@QAE?AV?$CStringT@DV?$StrTraitMFC_DLL@DV?$ChTraitsCRT@D@ATL@@@@@ATL@@H@Z ; CCandlePattern::GetCandlePatternTrendName
PUBLIC	?GetCandlePatternTrust@CCandlePattern@@QAEHH@Z	; CCandlePattern::GetCandlePatternTrust
PUBLIC	?GetCandlePatternHelpName@CCandlePattern@@QAE?AV?$CStringT@DV?$StrTraitMFC_DLL@DV?$ChTraitsCRT@D@ATL@@@@@ATL@@H@Z ; CCandlePattern::GetCandlePatternHelpName
PUBLIC	??_GCCandlePattern@@UAEPAXI@Z			; CCandlePattern::`scalar deleting destructor'
PUBLIC	??1CMultiLanguageResourceSetter@@QAE@XZ		; CMultiLanguageResourceSetter::~CMultiLanguageResourceSetter
PUBLIC	?SetSize@?$CArray@PAVCCandlePatternData@@PAV1@@@QAEXHH@Z ; CArray<CCandlePatternData *,CCandlePatternData *>::SetSize
PUBLIC	?SetAtGrow@?$CArray@PAVCCandlePatternData@@PAV1@@@QAEXHPAVCCandlePatternData@@@Z ; CArray<CCandlePatternData *,CCandlePatternData *>::SetAtGrow
PUBLIC	??_C@_00CNPNBAHC@@				; `string'
PUBLIC	??_R0?AVCObject@@@8				; CObject `RTTI Type Descriptor'
PUBLIC	??_R3CObject@@8					; CObject::`RTTI Class Hierarchy Descriptor'
PUBLIC	??_R2CObject@@8					; CObject::`RTTI Base Class Array'
PUBLIC	??_R1A@?0A@EA@CObject@@8			; CObject::`RTTI Base Class Descriptor at (0,-1,0,64)'
PUBLIC	??_7CCandlePattern@@6B@				; CCandlePattern::`vftable'
PUBLIC	??_C@_0BA@ENJOCHIO@LoadResourceDLL@		; `string'
PUBLIC	??_C@_0P@JAJMEEEP@Thrusting?5Line@		; `string'
PUBLIC	??_C@_06CNCEEJPN@Hammer@			; `string'
PUBLIC	??_C@_0L@FEIOIBPM@HangingMan@			; `string'
PUBLIC	??_C@_0P@CNANDPOE@InvertedHammer@		; `string'
PUBLIC	??_C@_0N@CLPFPDJD@Shootingstar@			; `string'
PUBLIC	??_C@_0BE@BCBGEGJJ@Bullishbeltholdline@		; `string'
PUBLIC	??_C@_0BE@KEIKNDJD@Bearishbeltholdline@		; `string'
PUBLIC	??_C@_0O@BHJLPBNB@LongWhiteBody@		; `string'
PUBLIC	??_C@_0O@MAGGDCPE@LongBlackBody@		; `string'
PUBLIC	??_C@_0O@PJPIHIJE@BullishHarami@		; `string'
PUBLIC	??_C@_0O@CPNADAGN@BearishHarami@		; `string'
PUBLIC	??_C@_0BB@EEMALNEB@BullishEngulfing@		; `string'
PUBLIC	??_C@_0BB@PDMAJIDP@BearishEngulfing@		; `string'
PUBLIC	??_C@_0BJ@IJEDFAPP@BullishCounterattackline@	; `string'
PUBLIC	??_C@_0BJ@PPLBBGC@BearishCounterattackline@	; `string'
PUBLIC	??_C@_0BA@PKALIIEL@PiercingPattern@		; `string'
PUBLIC	??_C@_0P@OJBMNKFG@DarkCloudCover@		; `string'
PUBLIC	??_C@_0M@EBPJGJJK@MorningStar@			; `string'
PUBLIC	??_C@_0M@FHDMHPLL@EveningStar@			; `string'
PUBLIC	??_C@_0BA@BMMKEGEJ@MorningDojiStar@		; `string'
PUBLIC	??_C@_0BA@FOLGMHIK@EveningDojiStar@		; `string'
PUBLIC	??_C@_0BJ@BKBKKPOD@Abandonedbabyindowntrend@	; `string'
PUBLIC	??_C@_0BH@INHJHLFE@Abandonedbabyinuptrend@	; `string'
PUBLIC	??_C@_0O@PKAGPBEI@ThreeInsideUp@		; `string'
PUBLIC	??_C@_0BA@MMOBBDIC@ThreeInsidedown@		; `string'
PUBLIC	??_C@_0P@MKDMNAPD@ThreeOutsideup@		; `string'
PUBLIC	??_C@_0BB@IHLJEEJF@ThreeOutsideDown@		; `string'
PUBLIC	??_C@_0BL@LGMFKHIH@Upsidegaptwocrowsinuptrend@	; `string'
PUBLIC	??_C@_0BC@MLOEHEBN@Threewhitesolider@		; `string'
PUBLIC	??_C@_0P@PCKOLE@ThreeBlackcrow@			; `string'
PUBLIC	??_C@_0P@JCEMDHFF@StalledPattern@		; `string'
PUBLIC	??_C@_0N@DBLCNOJN@AdvanceBlock@			; `string'
PUBLIC	??_C@_0BA@GAMIGEOK@UpsidegapTasuki@		; `string'
PUBLIC	??_C@_0BC@LHKADBMB@DownwardgapTasuki@		; `string'
PUBLIC	??_C@_08DCEAKMK@Mat?9hold@			; `string'
PUBLIC	??_C@_0P@GECEGHF@BullishTriStar@		; `string'
PUBLIC	??_C@_0P@MCPFCEIF@BearishTriStar@		; `string'
PUBLIC	??_C@_0BH@MCKBBFCB@UniqueThreeRiverBottom@	; `string'
PUBLIC	??_C@_0BE@BGFACJOH@IdenticalThreeCrows@		; `string'
PUBLIC	??_C@_0BB@PNKCBMBL@BullishBreakaway@		; `string'
PUBLIC	??_C@_0BB@EKKCDJGF@BearishBreakaway@		; `string'
PUBLIC	??_C@_08NBBECHHG@TwoCrows@			; `string'
PUBLIC	??_C@_0BF@HMPKPIOB@ThreeStarsintheSouth@	; `string'
PUBLIC	??_C@_0BG@OHHIAJBG@ConcealingBabySwallow@	; `string'
PUBLIC	??_C@_0O@KPLCJAKJ@StickSandwich@		; `string'
PUBLIC	??_C@_0P@GIFAFDIM@BullishKicking@		; `string'
PUBLIC	??_C@_0P@KMOHDBHM@BearishKicking@		; `string'
PUBLIC	??_C@_0N@CGMPNOKO@HomingPigeon@			; `string'
PUBLIC	??_C@_0N@PFCKJDBA@LadderBottom@			; `string'
PUBLIC	??_C@_0M@NHALKNBD@MatchingLow@			; `string'
PUBLIC	??_C@_0BG@OOLELMJ@BullishSide?9by?9SideWL@	; `string'
PUBLIC	??_C@_0BG@HEGBHCBE@BearishSide?9by?9SideWL@	; `string'
PUBLIC	??_C@_0BD@JPPPJHGK@RisingThreeMethods@		; `string'
PUBLIC	??_C@_0BE@FIEAPILD@FallingThreeMethods@		; `string'
PUBLIC	??_C@_0BH@GHDMCMEH@BullishSeparatingLines@	; `string'
PUBLIC	??_C@_0BH@JPCEAIBH@BearishSeparatingLines@	; `string'
PUBLIC	??_C@_0BI@JHBLEKCD@BullishThree?9LineStrike@	; `string'
PUBLIC	??_C@_0BI@PMIIADPD@BearishThree?9LineStrike@	; `string'
PUBLIC	??_C@_0BG@DBPNPCNP@UpsideGapThreeMethods@	; `string'
PUBLIC	??_C@_0BI@DKAEGGMK@DownsideGapThreeMethods@	; `string'
PUBLIC	??_C@_06MFINGNDH@OnNeck@			; `string'
PUBLIC	??_C@_06KGFNFIAN@InNeck@			; `string'
PUBLIC	??_C@_0O@DDBEEBNG@ThrustingLine@		; `string'
PUBLIC	??_R4CCandlePattern@@6B@			; CCandlePattern::`RTTI Complete Object Locator'
PUBLIC	??_R0?AVCCandlePattern@@@8			; CCandlePattern `RTTI Type Descriptor'
PUBLIC	??_R3CCandlePattern@@8				; CCandlePattern::`RTTI Class Hierarchy Descriptor'
PUBLIC	??_R2CCandlePattern@@8				; CCandlePattern::`RTTI Base Class Array'
PUBLIC	??_R1A@?0A@EA@CCandlePattern@@8			; CCandlePattern::`RTTI Base Class Descriptor at (0,-1,0,64)'
PUBLIC	__real@3fb999999999999a
PUBLIC	__real@3fe0000000000000
PUBLIC	__real@4034000000000000
PUBLIC	__xmm@7fffffffffffffff7fffffffffffffff
EXTRN	??2@YAPAXI@Z:PROC				; operator new
EXTRN	??3@YAXPAX@Z:PROC				; operator delete
EXTRN	?__global_delete@@YAXPAXI@Z:PROC		; __global_delete
EXTRN	??_U@YAPAXI@Z:PROC				; operator new[]
EXTRN	??_V@YAXPAX@Z:PROC				; operator delete[]
EXTRN	___std_terminate:PROC
EXTRN	__imp___invalid_parameter_noinfo:PROC
EXTRN	__imp___errno:PROC
EXTRN	__imp__GetProcAddress@8:PROC
EXTRN	?AfxThrowMemoryException@@YGXXZ:PROC		; AfxThrowMemoryException
EXTRN	?AfxThrowInvalidArgException@@YGXXZ:PROC	; AfxThrowInvalidArgException
EXTRN	?GetRuntimeClass@CObject@@UBEPAUCRuntimeClass@@XZ:PROC ; CObject::GetRuntimeClass
EXTRN	__imp_??0?$CStringT@DV?$StrTraitMFC_DLL@DV?$ChTraitsCRT@D@ATL@@@@@ATL@@QAE@XZ:PROC
EXTRN	__imp_??1?$CStringT@DV?$StrTraitMFC_DLL@DV?$ChTraitsCRT@D@ATL@@@@@ATL@@QAE@XZ:PROC
EXTRN	__imp_??4?$CStringT@DV?$StrTraitMFC_DLL@DV?$ChTraitsCRT@D@ATL@@@@@ATL@@QAEAAV01@PBD@Z:PROC
EXTRN	__imp_?LoadStringA@?$CStringT@DV?$StrTraitMFC_DLL@DV?$ChTraitsCRT@D@ATL@@@@@ATL@@QAEHI@Z:PROC
EXTRN	?AfxGetModuleState@@YGPAVAFX_MODULE_STATE@@XZ:PROC ; AfxGetModuleState
EXTRN	?AfxGetStaticModuleState@@YGPAVAFX_MODULE_STATE@@XZ:PROC ; AfxGetStaticModuleState
EXTRN	??_ECCandlePattern@@UAEPAXI@Z:PROC		; CCandlePattern::`vector deleting destructor'
EXTRN	??0CCandlePatternData@@QAE@XZ:PROC		; CCandlePatternData::CCandlePatternData
EXTRN	@__security_check_cookie@4:PROC
EXTRN	___CxxFrameHandler3:PROC
EXTRN	_memcpy:PROC
EXTRN	_memset:PROC
EXTRN	??_7type_info@@6B@:QWORD			; type_info::`vftable'
EXTRN	?g_iMetaTable@@3VIMetaTable@@A:BYTE		; g_iMetaTable
EXTRN	___security_cookie:DWORD
EXTRN	__fltused:DWORD
;	COMDAT __xmm@7fffffffffffffff7fffffffffffffff
CONST	SEGMENT
__xmm@7fffffffffffffff7fffffffffffffff DB 0ffH, 0ffH, 0ffH, 0ffH, 0ffH, 0ffH
	DB	0ffH, 07fH, 0ffH, 0ffH, 0ffH, 0ffH, 0ffH, 0ffH, 0ffH, 07fH
CONST	ENDS
;	COMDAT __real@4034000000000000
CONST	SEGMENT
__real@4034000000000000 DQ 04034000000000000r	; 20
CONST	ENDS
;	COMDAT __real@3fe0000000000000
CONST	SEGMENT
__real@3fe0000000000000 DQ 03fe0000000000000r	; 0.5
CONST	ENDS
;	COMDAT __real@3fb999999999999a
CONST	SEGMENT
__real@3fb999999999999a DQ 03fb999999999999ar	; 0.1
CONST	ENDS
;	COMDAT ??_R1A@?0A@EA@CCandlePattern@@8
rdata$r	SEGMENT
??_R1A@?0A@EA@CCandlePattern@@8 DD FLAT:??_R0?AVCCandlePattern@@@8 ; CCandlePattern::`RTTI Base Class Descriptor at (0,-1,0,64)'
	DD	01H
	DD	00H
	DD	0ffffffffH
	DD	00H
	DD	040H
	DD	FLAT:??_R3CCandlePattern@@8
rdata$r	ENDS
;	COMDAT ??_R2CCandlePattern@@8
rdata$r	SEGMENT
??_R2CCandlePattern@@8 DD FLAT:??_R1A@?0A@EA@CCandlePattern@@8 ; CCandlePattern::`RTTI Base Class Array'
	DD	FLAT:??_R1A@?0A@EA@CObject@@8
rdata$r	ENDS
;	COMDAT ??_R3CCandlePattern@@8
rdata$r	SEGMENT
??_R3CCandlePattern@@8 DD 00H				; CCandlePattern::`RTTI Class Hierarchy Descriptor'
	DD	00H
	DD	02H
	DD	FLAT:??_R2CCandlePattern@@8
rdata$r	ENDS
;	COMDAT ??_R0?AVCCandlePattern@@@8
data$rs	SEGMENT
??_R0?AVCCandlePattern@@@8 DD FLAT:??_7type_info@@6B@	; CCandlePattern `RTTI Type Descriptor'
	DD	00H
	DB	'.?AVCCandlePattern@@', 00H
data$rs	ENDS
;	COMDAT ??_R4CCandlePattern@@6B@
rdata$r	SEGMENT
??_R4CCandlePattern@@6B@ DD 00H				; CCandlePattern::`RTTI Complete Object Locator'
	DD	00H
	DD	00H
	DD	FLAT:??_R0?AVCCandlePattern@@@8
	DD	FLAT:??_R3CCandlePattern@@8
rdata$r	ENDS
;	COMDAT ??_C@_0O@DDBEEBNG@ThrustingLine@
CONST	SEGMENT
??_C@_0O@DDBEEBNG@ThrustingLine@ DB 'ThrustingLine', 00H ; `string'
CONST	ENDS
;	COMDAT ??_C@_06KGFNFIAN@InNeck@
CONST	SEGMENT
??_C@_06KGFNFIAN@InNeck@ DB 'InNeck', 00H		; `string'
CONST	ENDS
;	COMDAT ??_C@_06MFINGNDH@OnNeck@
CONST	SEGMENT
??_C@_06MFINGNDH@OnNeck@ DB 'OnNeck', 00H		; `string'
CONST	ENDS
;	COMDAT ??_C@_0BI@DKAEGGMK@DownsideGapThreeMethods@
CONST	SEGMENT
??_C@_0BI@DKAEGGMK@DownsideGapThreeMethods@ DB 'DownsideGapThreeMethods', 00H ; `string'
CONST	ENDS
;	COMDAT ??_C@_0BG@DBPNPCNP@UpsideGapThreeMethods@
CONST	SEGMENT
??_C@_0BG@DBPNPCNP@UpsideGapThreeMethods@ DB 'UpsideGapThreeMethods', 00H ; `string'
CONST	ENDS
;	COMDAT ??_C@_0BI@PMIIADPD@BearishThree?9LineStrike@
CONST	SEGMENT
??_C@_0BI@PMIIADPD@BearishThree?9LineStrike@ DB 'BearishThree-LineStrike', 00H ; `string'
CONST	ENDS
;	COMDAT ??_C@_0BI@JHBLEKCD@BullishThree?9LineStrike@
CONST	SEGMENT
??_C@_0BI@JHBLEKCD@BullishThree?9LineStrike@ DB 'BullishThree-LineStrike', 00H ; `string'
CONST	ENDS
;	COMDAT ??_C@_0BH@JPCEAIBH@BearishSeparatingLines@
CONST	SEGMENT
??_C@_0BH@JPCEAIBH@BearishSeparatingLines@ DB 'BearishSeparatingLines', 00H ; `string'
CONST	ENDS
;	COMDAT ??_C@_0BH@GHDMCMEH@BullishSeparatingLines@
CONST	SEGMENT
??_C@_0BH@GHDMCMEH@BullishSeparatingLines@ DB 'BullishSeparatingLines', 00H ; `string'
CONST	ENDS
;	COMDAT ??_C@_0BE@FIEAPILD@FallingThreeMethods@
CONST	SEGMENT
??_C@_0BE@FIEAPILD@FallingThreeMethods@ DB 'FallingThreeMethods', 00H ; `string'
CONST	ENDS
;	COMDAT ??_C@_0BD@JPPPJHGK@RisingThreeMethods@
CONST	SEGMENT
??_C@_0BD@JPPPJHGK@RisingThreeMethods@ DB 'RisingThreeMethods', 00H ; `string'
CONST	ENDS
;	COMDAT ??_C@_0BG@HEGBHCBE@BearishSide?9by?9SideWL@
CONST	SEGMENT
??_C@_0BG@HEGBHCBE@BearishSide?9by?9SideWL@ DB 'BearishSide-by-SideWL', 00H ; `string'
CONST	ENDS
;	COMDAT ??_C@_0BG@OOLELMJ@BullishSide?9by?9SideWL@
CONST	SEGMENT
??_C@_0BG@OOLELMJ@BullishSide?9by?9SideWL@ DB 'BullishSide-by-SideWL', 00H ; `string'
CONST	ENDS
;	COMDAT ??_C@_0M@NHALKNBD@MatchingLow@
CONST	SEGMENT
??_C@_0M@NHALKNBD@MatchingLow@ DB 'MatchingLow', 00H	; `string'
CONST	ENDS
;	COMDAT ??_C@_0N@PFCKJDBA@LadderBottom@
CONST	SEGMENT
??_C@_0N@PFCKJDBA@LadderBottom@ DB 'LadderBottom', 00H	; `string'
CONST	ENDS
;	COMDAT ??_C@_0N@CGMPNOKO@HomingPigeon@
CONST	SEGMENT
??_C@_0N@CGMPNOKO@HomingPigeon@ DB 'HomingPigeon', 00H	; `string'
CONST	ENDS
;	COMDAT ??_C@_0P@KMOHDBHM@BearishKicking@
CONST	SEGMENT
??_C@_0P@KMOHDBHM@BearishKicking@ DB 'BearishKicking', 00H ; `string'
CONST	ENDS
;	COMDAT ??_C@_0P@GIFAFDIM@BullishKicking@
CONST	SEGMENT
??_C@_0P@GIFAFDIM@BullishKicking@ DB 'BullishKicking', 00H ; `string'
CONST	ENDS
;	COMDAT ??_C@_0O@KPLCJAKJ@StickSandwich@
CONST	SEGMENT
??_C@_0O@KPLCJAKJ@StickSandwich@ DB 'StickSandwich', 00H ; `string'
CONST	ENDS
;	COMDAT ??_C@_0BG@OHHIAJBG@ConcealingBabySwallow@
CONST	SEGMENT
??_C@_0BG@OHHIAJBG@ConcealingBabySwallow@ DB 'ConcealingBabySwallow', 00H ; `string'
CONST	ENDS
;	COMDAT ??_C@_0BF@HMPKPIOB@ThreeStarsintheSouth@
CONST	SEGMENT
??_C@_0BF@HMPKPIOB@ThreeStarsintheSouth@ DB 'ThreeStarsintheSouth', 00H ; `string'
CONST	ENDS
;	COMDAT ??_C@_08NBBECHHG@TwoCrows@
CONST	SEGMENT
??_C@_08NBBECHHG@TwoCrows@ DB 'TwoCrows', 00H		; `string'
CONST	ENDS
;	COMDAT ??_C@_0BB@EKKCDJGF@BearishBreakaway@
CONST	SEGMENT
??_C@_0BB@EKKCDJGF@BearishBreakaway@ DB 'BearishBreakaway', 00H ; `string'
CONST	ENDS
;	COMDAT ??_C@_0BB@PNKCBMBL@BullishBreakaway@
CONST	SEGMENT
??_C@_0BB@PNKCBMBL@BullishBreakaway@ DB 'BullishBreakaway', 00H ; `string'
CONST	ENDS
;	COMDAT ??_C@_0BE@BGFACJOH@IdenticalThreeCrows@
CONST	SEGMENT
??_C@_0BE@BGFACJOH@IdenticalThreeCrows@ DB 'IdenticalThreeCrows', 00H ; `string'
CONST	ENDS
;	COMDAT ??_C@_0BH@MCKBBFCB@UniqueThreeRiverBottom@
CONST	SEGMENT
??_C@_0BH@MCKBBFCB@UniqueThreeRiverBottom@ DB 'UniqueThreeRiverBottom', 00H ; `string'
CONST	ENDS
;	COMDAT ??_C@_0P@MCPFCEIF@BearishTriStar@
CONST	SEGMENT
??_C@_0P@MCPFCEIF@BearishTriStar@ DB 'BearishTriStar', 00H ; `string'
CONST	ENDS
;	COMDAT ??_C@_0P@GECEGHF@BullishTriStar@
CONST	SEGMENT
??_C@_0P@GECEGHF@BullishTriStar@ DB 'BullishTriStar', 00H ; `string'
CONST	ENDS
;	COMDAT ??_C@_08DCEAKMK@Mat?9hold@
CONST	SEGMENT
??_C@_08DCEAKMK@Mat?9hold@ DB 'Mat-hold', 00H		; `string'
CONST	ENDS
;	COMDAT ??_C@_0BC@LHKADBMB@DownwardgapTasuki@
CONST	SEGMENT
??_C@_0BC@LHKADBMB@DownwardgapTasuki@ DB 'DownwardgapTasuki', 00H ; `string'
CONST	ENDS
;	COMDAT ??_C@_0BA@GAMIGEOK@UpsidegapTasuki@
CONST	SEGMENT
??_C@_0BA@GAMIGEOK@UpsidegapTasuki@ DB 'UpsidegapTasuki', 00H ; `string'
CONST	ENDS
;	COMDAT ??_C@_0N@DBLCNOJN@AdvanceBlock@
CONST	SEGMENT
??_C@_0N@DBLCNOJN@AdvanceBlock@ DB 'AdvanceBlock', 00H	; `string'
CONST	ENDS
;	COMDAT ??_C@_0P@JCEMDHFF@StalledPattern@
CONST	SEGMENT
??_C@_0P@JCEMDHFF@StalledPattern@ DB 'StalledPattern', 00H ; `string'
CONST	ENDS
;	COMDAT ??_C@_0P@PCKOLE@ThreeBlackcrow@
CONST	SEGMENT
??_C@_0P@PCKOLE@ThreeBlackcrow@ DB 'ThreeBlackcrow', 00H ; `string'
CONST	ENDS
;	COMDAT ??_C@_0BC@MLOEHEBN@Threewhitesolider@
CONST	SEGMENT
??_C@_0BC@MLOEHEBN@Threewhitesolider@ DB 'Threewhitesolider', 00H ; `string'
CONST	ENDS
;	COMDAT ??_C@_0BL@LGMFKHIH@Upsidegaptwocrowsinuptrend@
CONST	SEGMENT
??_C@_0BL@LGMFKHIH@Upsidegaptwocrowsinuptrend@ DB 'Upsidegaptwocrowsinupt'
	DB	'rend', 00H					; `string'
CONST	ENDS
;	COMDAT ??_C@_0BB@IHLJEEJF@ThreeOutsideDown@
CONST	SEGMENT
??_C@_0BB@IHLJEEJF@ThreeOutsideDown@ DB 'ThreeOutsideDown', 00H ; `string'
CONST	ENDS
;	COMDAT ??_C@_0P@MKDMNAPD@ThreeOutsideup@
CONST	SEGMENT
??_C@_0P@MKDMNAPD@ThreeOutsideup@ DB 'ThreeOutsideup', 00H ; `string'
CONST	ENDS
;	COMDAT ??_C@_0BA@MMOBBDIC@ThreeInsidedown@
CONST	SEGMENT
??_C@_0BA@MMOBBDIC@ThreeInsidedown@ DB 'ThreeInsidedown', 00H ; `string'
CONST	ENDS
;	COMDAT ??_C@_0O@PKAGPBEI@ThreeInsideUp@
CONST	SEGMENT
??_C@_0O@PKAGPBEI@ThreeInsideUp@ DB 'ThreeInsideUp', 00H ; `string'
CONST	ENDS
;	COMDAT ??_C@_0BH@INHJHLFE@Abandonedbabyinuptrend@
CONST	SEGMENT
??_C@_0BH@INHJHLFE@Abandonedbabyinuptrend@ DB 'Abandonedbabyinuptrend', 00H ; `string'
CONST	ENDS
;	COMDAT ??_C@_0BJ@BKBKKPOD@Abandonedbabyindowntrend@
CONST	SEGMENT
??_C@_0BJ@BKBKKPOD@Abandonedbabyindowntrend@ DB 'Abandonedbabyindowntrend'
	DB	00H						; `string'
CONST	ENDS
;	COMDAT ??_C@_0BA@FOLGMHIK@EveningDojiStar@
CONST	SEGMENT
??_C@_0BA@FOLGMHIK@EveningDojiStar@ DB 'EveningDojiStar', 00H ; `string'
CONST	ENDS
;	COMDAT ??_C@_0BA@BMMKEGEJ@MorningDojiStar@
CONST	SEGMENT
??_C@_0BA@BMMKEGEJ@MorningDojiStar@ DB 'MorningDojiStar', 00H ; `string'
CONST	ENDS
;	COMDAT ??_C@_0M@FHDMHPLL@EveningStar@
CONST	SEGMENT
??_C@_0M@FHDMHPLL@EveningStar@ DB 'EveningStar', 00H	; `string'
CONST	ENDS
;	COMDAT ??_C@_0M@EBPJGJJK@MorningStar@
CONST	SEGMENT
??_C@_0M@EBPJGJJK@MorningStar@ DB 'MorningStar', 00H	; `string'
CONST	ENDS
;	COMDAT ??_C@_0P@OJBMNKFG@DarkCloudCover@
CONST	SEGMENT
??_C@_0P@OJBMNKFG@DarkCloudCover@ DB 'DarkCloudCover', 00H ; `string'
CONST	ENDS
;	COMDAT ??_C@_0BA@PKALIIEL@PiercingPattern@
CONST	SEGMENT
??_C@_0BA@PKALIIEL@PiercingPattern@ DB 'PiercingPattern', 00H ; `string'
CONST	ENDS
;	COMDAT ??_C@_0BJ@PPLBBGC@BearishCounterattackline@
CONST	SEGMENT
??_C@_0BJ@PPLBBGC@BearishCounterattackline@ DB 'BearishCounterattackline', 00H ; `string'
CONST	ENDS
;	COMDAT ??_C@_0BJ@IJEDFAPP@BullishCounterattackline@
CONST	SEGMENT
??_C@_0BJ@IJEDFAPP@BullishCounterattackline@ DB 'BullishCounterattackline'
	DB	00H						; `string'
CONST	ENDS
;	COMDAT ??_C@_0BB@PDMAJIDP@BearishEngulfing@
CONST	SEGMENT
??_C@_0BB@PDMAJIDP@BearishEngulfing@ DB 'BearishEngulfing', 00H ; `string'
CONST	ENDS
;	COMDAT ??_C@_0BB@EEMALNEB@BullishEngulfing@
CONST	SEGMENT
??_C@_0BB@EEMALNEB@BullishEngulfing@ DB 'BullishEngulfing', 00H ; `string'
CONST	ENDS
;	COMDAT ??_C@_0O@CPNADAGN@BearishHarami@
CONST	SEGMENT
??_C@_0O@CPNADAGN@BearishHarami@ DB 'BearishHarami', 00H ; `string'
CONST	ENDS
;	COMDAT ??_C@_0O@PJPIHIJE@BullishHarami@
CONST	SEGMENT
??_C@_0O@PJPIHIJE@BullishHarami@ DB 'BullishHarami', 00H ; `string'
CONST	ENDS
;	COMDAT ??_C@_0O@MAGGDCPE@LongBlackBody@
CONST	SEGMENT
??_C@_0O@MAGGDCPE@LongBlackBody@ DB 'LongBlackBody', 00H ; `string'
CONST	ENDS
;	COMDAT ??_C@_0O@BHJLPBNB@LongWhiteBody@
CONST	SEGMENT
??_C@_0O@BHJLPBNB@LongWhiteBody@ DB 'LongWhiteBody', 00H ; `string'
CONST	ENDS
;	COMDAT ??_C@_0BE@KEIKNDJD@Bearishbeltholdline@
CONST	SEGMENT
??_C@_0BE@KEIKNDJD@Bearishbeltholdline@ DB 'Bearishbeltholdline', 00H ; `string'
CONST	ENDS
;	COMDAT ??_C@_0BE@BCBGEGJJ@Bullishbeltholdline@
CONST	SEGMENT
??_C@_0BE@BCBGEGJJ@Bullishbeltholdline@ DB 'Bullishbeltholdline', 00H ; `string'
CONST	ENDS
;	COMDAT ??_C@_0N@CLPFPDJD@Shootingstar@
CONST	SEGMENT
??_C@_0N@CLPFPDJD@Shootingstar@ DB 'Shootingstar', 00H	; `string'
CONST	ENDS
;	COMDAT ??_C@_0P@CNANDPOE@InvertedHammer@
CONST	SEGMENT
??_C@_0P@CNANDPOE@InvertedHammer@ DB 'InvertedHammer', 00H ; `string'
CONST	ENDS
;	COMDAT ??_C@_0L@FEIOIBPM@HangingMan@
CONST	SEGMENT
??_C@_0L@FEIOIBPM@HangingMan@ DB 'HangingMan', 00H	; `string'
CONST	ENDS
;	COMDAT ??_C@_06CNCEEJPN@Hammer@
CONST	SEGMENT
??_C@_06CNCEEJPN@Hammer@ DB 'Hammer', 00H		; `string'
CONST	ENDS
;	COMDAT ??_C@_0P@JAJMEEEP@Thrusting?5Line@
CONST	SEGMENT
??_C@_0P@JAJMEEEP@Thrusting?5Line@ DB 'Thrusting Line', 00H ; `string'
CONST	ENDS
;	COMDAT ??_C@_0BA@ENJOCHIO@LoadResourceDLL@
CONST	SEGMENT
??_C@_0BA@ENJOCHIO@LoadResourceDLL@ DB 'LoadResourceDLL', 00H ; `string'
CONST	ENDS
;	COMDAT ??_7CCandlePattern@@6B@
CONST	SEGMENT
??_7CCandlePattern@@6B@ DD FLAT:??_R4CCandlePattern@@6B@ ; CCandlePattern::`vftable'
	DD	FLAT:?GetRuntimeClass@CObject@@UBEPAUCRuntimeClass@@XZ
	DD	FLAT:??_ECCandlePattern@@UAEPAXI@Z
	DD	FLAT:?Serialize@CObject@@UAEXAAVCArchive@@@Z
	DD	FLAT:?AssertValid@CObject@@UBEXXZ
	DD	FLAT:?Dump@CObject@@UBEXAAVCDumpContext@@@Z
CONST	ENDS
;	COMDAT ??_R1A@?0A@EA@CObject@@8
rdata$r	SEGMENT
??_R1A@?0A@EA@CObject@@8 DD FLAT:??_R0?AVCObject@@@8	; CObject::`RTTI Base Class Descriptor at (0,-1,0,64)'
	DD	00H
	DD	00H
	DD	0ffffffffH
	DD	00H
	DD	040H
	DD	FLAT:??_R3CObject@@8
rdata$r	ENDS
;	COMDAT ??_R2CObject@@8
rdata$r	SEGMENT
??_R2CObject@@8 DD FLAT:??_R1A@?0A@EA@CObject@@8	; CObject::`RTTI Base Class Array'
rdata$r	ENDS
;	COMDAT ??_R3CObject@@8
rdata$r	SEGMENT
??_R3CObject@@8 DD 00H					; CObject::`RTTI Class Hierarchy Descriptor'
	DD	00H
	DD	01H
	DD	FLAT:??_R2CObject@@8
rdata$r	ENDS
;	COMDAT ??_R0?AVCObject@@@8
data$rs	SEGMENT
??_R0?AVCObject@@@8 DD FLAT:??_7type_info@@6B@		; CObject `RTTI Type Descriptor'
	DD	00H
	DB	'.?AVCObject@@', 00H
data$rs	ENDS
;	COMDAT ??_C@_00CNPNBAHC@@
CONST	SEGMENT
??_C@_00CNPNBAHC@@ DB 00H				; `string'
CONST	ENDS
;	COMDAT xdata$x
xdata$x	SEGMENT
__ehfuncinfo$??1CMultiLanguageResourceSetter@@QAE@XZ DD 019930522H
	DD	00H
	DD	00H
	DD	2 DUP(00H)
	DD	2 DUP(00H)
	DD	00H
	DD	05H
xdata$x	ENDS
;	COMDAT xdata$x
xdata$x	SEGMENT
__unwindtable$?GetCandlePatternHelpName@CCandlePattern@@QAE?AV?$CStringT@DV?$StrTraitMFC_DLL@DV?$ChTraitsCRT@D@ATL@@@@@ATL@@H@Z DD 0ffffffffH
	DD	FLAT:__unwindfunclet$?GetCandlePatternHelpName@CCandlePattern@@QAE?AV?$CStringT@DV?$StrTraitMFC_DLL@DV?$ChTraitsCRT@D@ATL@@@@@ATL@@H@Z$0
__ehfuncinfo$?GetCandlePatternHelpName@CCandlePattern@@QAE?AV?$CStringT@DV?$StrTraitMFC_DLL@DV?$ChTraitsCRT@D@ATL@@@@@ATL@@H@Z DD 019930522H
	DD	01H
	DD	FLAT:__unwindtable$?GetCandlePatternHelpName@CCandlePattern@@QAE?AV?$CStringT@DV?$StrTraitMFC_DLL@DV?$ChTraitsCRT@D@ATL@@@@@ATL@@H@Z
	DD	2 DUP(00H)
	DD	2 DUP(00H)
	DD	00H
	DD	01H
xdata$x	ENDS
;	COMDAT xdata$x
xdata$x	SEGMENT
__unwindtable$?GetCandlePatternTrendName@CCandlePattern@@QAE?AV?$CStringT@DV?$StrTraitMFC_DLL@DV?$ChTraitsCRT@D@ATL@@@@@ATL@@H@Z DD 0ffffffffH
	DD	FLAT:__unwindfunclet$?GetCandlePatternTrendName@CCandlePattern@@QAE?AV?$CStringT@DV?$StrTraitMFC_DLL@DV?$ChTraitsCRT@D@ATL@@@@@ATL@@H@Z$0
__ehfuncinfo$?GetCandlePatternTrendName@CCandlePattern@@QAE?AV?$CStringT@DV?$StrTraitMFC_DLL@DV?$ChTraitsCRT@D@ATL@@@@@ATL@@H@Z DD 019930522H
	DD	01H
	DD	FLAT:__unwindtable$?GetCandlePatternTrendName@CCandlePattern@@QAE?AV?$CStringT@DV?$StrTraitMFC_DLL@DV?$ChTraitsCRT@D@ATL@@@@@ATL@@H@Z
	DD	2 DUP(00H)
	DD	2 DUP(00H)
	DD	00H
	DD	01H
xdata$x	ENDS
;	COMDAT xdata$x
xdata$x	SEGMENT
__unwindtable$?GetCandlePatternName@CCandlePattern@@QAE?AV?$CStringT@DV?$StrTraitMFC_DLL@DV?$ChTraitsCRT@D@ATL@@@@@ATL@@H@Z DD 0ffffffffH
	DD	FLAT:__unwindfunclet$?GetCandlePatternName@CCandlePattern@@QAE?AV?$CStringT@DV?$StrTraitMFC_DLL@DV?$ChTraitsCRT@D@ATL@@@@@ATL@@H@Z$1
	DD	00H
	DD	FLAT:__unwindfunclet$?GetCandlePatternName@CCandlePattern@@QAE?AV?$CStringT@DV?$StrTraitMFC_DLL@DV?$ChTraitsCRT@D@ATL@@@@@ATL@@H@Z$0
	DD	00H
	DD	FLAT:___std_terminate
__ehfuncinfo$?GetCandlePatternName@CCandlePattern@@QAE?AV?$CStringT@DV?$StrTraitMFC_DLL@DV?$ChTraitsCRT@D@ATL@@@@@ATL@@H@Z DD 019930522H
	DD	03H
	DD	FLAT:__unwindtable$?GetCandlePatternName@CCandlePattern@@QAE?AV?$CStringT@DV?$StrTraitMFC_DLL@DV?$ChTraitsCRT@D@ATL@@@@@ATL@@H@Z
	DD	2 DUP(00H)
	DD	2 DUP(00H)
	DD	00H
	DD	01H
xdata$x	ENDS
;	COMDAT xdata$x
xdata$x	SEGMENT
__ehfuncinfo$?CDFind_All_CandlePattern@CCandlePattern@@QAEXPAU_STCANDLE_DATA@@PAVCObject@@@Z DD 019930522H
	DD	05H
	DD	FLAT:__unwindtable$?CDFind_All_CandlePattern@CCandlePattern@@QAEXPAU_STCANDLE_DATA@@PAVCObject@@@Z
	DD	2 DUP(00H)
	DD	2 DUP(00H)
	DD	00H
	DD	01H
__unwindtable$?CDFind_All_CandlePattern@CCandlePattern@@QAEXPAU_STCANDLE_DATA@@PAVCObject@@@Z DD 0ffffffffH
	DD	FLAT:__unwindfunclet$?CDFind_All_CandlePattern@CCandlePattern@@QAEXPAU_STCANDLE_DATA@@PAVCObject@@@Z$0
	DD	0ffffffffH
	DD	FLAT:__unwindfunclet$?CDFind_All_CandlePattern@CCandlePattern@@QAEXPAU_STCANDLE_DATA@@PAVCObject@@@Z$1
	DD	0ffffffffH
	DD	FLAT:__unwindfunclet$?CDFind_All_CandlePattern@CCandlePattern@@QAEXPAU_STCANDLE_DATA@@PAVCObject@@@Z$2
	DD	0ffffffffH
	DD	FLAT:__unwindfunclet$?CDFind_All_CandlePattern@CCandlePattern@@QAEXPAU_STCANDLE_DATA@@PAVCObject@@@Z$3
	DD	0ffffffffH
	DD	FLAT:__unwindfunclet$?CDFind_All_CandlePattern@CCandlePattern@@QAEXPAU_STCANDLE_DATA@@PAVCObject@@@Z$4
xdata$x	ENDS
;	COMDAT xdata$x
xdata$x	SEGMENT
__unwindtable$?CDFind_ThrustingLine@CCandlePattern@@QAEHPAU_STCANDLE_DATA@@PAVCObject@@@Z DD 0ffffffffH
	DD	FLAT:__unwindfunclet$?CDFind_ThrustingLine@CCandlePattern@@QAEHPAU_STCANDLE_DATA@@PAVCObject@@@Z$0
__ehfuncinfo$?CDFind_ThrustingLine@CCandlePattern@@QAEHPAU_STCANDLE_DATA@@PAVCObject@@@Z DD 019930522H
	DD	01H
	DD	FLAT:__unwindtable$?CDFind_ThrustingLine@CCandlePattern@@QAEHPAU_STCANDLE_DATA@@PAVCObject@@@Z
	DD	2 DUP(00H)
	DD	2 DUP(00H)
	DD	00H
	DD	01H
xdata$x	ENDS
;	COMDAT xdata$x
xdata$x	SEGMENT
__unwindtable$?CDFind_InNeck@CCandlePattern@@QAEHPAU_STCANDLE_DATA@@PAVCObject@@@Z DD 0ffffffffH
	DD	FLAT:__unwindfunclet$?CDFind_InNeck@CCandlePattern@@QAEHPAU_STCANDLE_DATA@@PAVCObject@@@Z$0
__ehfuncinfo$?CDFind_InNeck@CCandlePattern@@QAEHPAU_STCANDLE_DATA@@PAVCObject@@@Z DD 019930522H
	DD	01H
	DD	FLAT:__unwindtable$?CDFind_InNeck@CCandlePattern@@QAEHPAU_STCANDLE_DATA@@PAVCObject@@@Z
	DD	2 DUP(00H)
	DD	2 DUP(00H)
	DD	00H
	DD	01H
xdata$x	ENDS
;	COMDAT xdata$x
xdata$x	SEGMENT
__unwindtable$?CDFind_OnNeck@CCandlePattern@@QAEHPAU_STCANDLE_DATA@@PAVCObject@@@Z DD 0ffffffffH
	DD	FLAT:__unwindfunclet$?CDFind_OnNeck@CCandlePattern@@QAEHPAU_STCANDLE_DATA@@PAVCObject@@@Z$0
__ehfuncinfo$?CDFind_OnNeck@CCandlePattern@@QAEHPAU_STCANDLE_DATA@@PAVCObject@@@Z DD 019930522H
	DD	01H
	DD	FLAT:__unwindtable$?CDFind_OnNeck@CCandlePattern@@QAEHPAU_STCANDLE_DATA@@PAVCObject@@@Z
	DD	2 DUP(00H)
	DD	2 DUP(00H)
	DD	00H
	DD	01H
xdata$x	ENDS
;	COMDAT xdata$x
xdata$x	SEGMENT
__unwindtable$?CDFind_DownsideGapThreeMethods@CCandlePattern@@QAEHPAU_STCANDLE_DATA@@PAVCObject@@@Z DD 0ffffffffH
	DD	FLAT:__unwindfunclet$?CDFind_DownsideGapThreeMethods@CCandlePattern@@QAEHPAU_STCANDLE_DATA@@PAVCObject@@@Z$0
__ehfuncinfo$?CDFind_DownsideGapThreeMethods@CCandlePattern@@QAEHPAU_STCANDLE_DATA@@PAVCObject@@@Z DD 019930522H
	DD	01H
	DD	FLAT:__unwindtable$?CDFind_DownsideGapThreeMethods@CCandlePattern@@QAEHPAU_STCANDLE_DATA@@PAVCObject@@@Z
	DD	2 DUP(00H)
	DD	2 DUP(00H)
	DD	00H
	DD	01H
xdata$x	ENDS
;	COMDAT xdata$x
xdata$x	SEGMENT
__unwindtable$?CDFind_UpsideGapThreeMethods@CCandlePattern@@QAEHPAU_STCANDLE_DATA@@PAVCObject@@@Z DD 0ffffffffH
	DD	FLAT:__unwindfunclet$?CDFind_UpsideGapThreeMethods@CCandlePattern@@QAEHPAU_STCANDLE_DATA@@PAVCObject@@@Z$0
__ehfuncinfo$?CDFind_UpsideGapThreeMethods@CCandlePattern@@QAEHPAU_STCANDLE_DATA@@PAVCObject@@@Z DD 019930522H
	DD	01H
	DD	FLAT:__unwindtable$?CDFind_UpsideGapThreeMethods@CCandlePattern@@QAEHPAU_STCANDLE_DATA@@PAVCObject@@@Z
	DD	2 DUP(00H)
	DD	2 DUP(00H)
	DD	00H
	DD	01H
xdata$x	ENDS
;	COMDAT xdata$x
xdata$x	SEGMENT
__unwindtable$?CDFind_Bearish_ThreeLineStrike@CCandlePattern@@QAEHPAU_STCANDLE_DATA@@PAVCObject@@@Z DD 0ffffffffH
	DD	FLAT:__unwindfunclet$?CDFind_Bearish_ThreeLineStrike@CCandlePattern@@QAEHPAU_STCANDLE_DATA@@PAVCObject@@@Z$0
__ehfuncinfo$?CDFind_Bearish_ThreeLineStrike@CCandlePattern@@QAEHPAU_STCANDLE_DATA@@PAVCObject@@@Z DD 019930522H
	DD	01H
	DD	FLAT:__unwindtable$?CDFind_Bearish_ThreeLineStrike@CCandlePattern@@QAEHPAU_STCANDLE_DATA@@PAVCObject@@@Z
	DD	2 DUP(00H)
	DD	2 DUP(00H)
	DD	00H
	DD	01H
xdata$x	ENDS
;	COMDAT xdata$x
xdata$x	SEGMENT
__unwindtable$?CDFind_Bullish_ThreeLineStrike@CCandlePattern@@QAEHPAU_STCANDLE_DATA@@PAVCObject@@@Z DD 0ffffffffH
	DD	FLAT:__unwindfunclet$?CDFind_Bullish_ThreeLineStrike@CCandlePattern@@QAEHPAU_STCANDLE_DATA@@PAVCObject@@@Z$0
__ehfuncinfo$?CDFind_Bullish_ThreeLineStrike@CCandlePattern@@QAEHPAU_STCANDLE_DATA@@PAVCObject@@@Z DD 019930522H
	DD	01H
	DD	FLAT:__unwindtable$?CDFind_Bullish_ThreeLineStrike@CCandlePattern@@QAEHPAU_STCANDLE_DATA@@PAVCObject@@@Z
	DD	2 DUP(00H)
	DD	2 DUP(00H)
	DD	00H
	DD	01H
xdata$x	ENDS
;	COMDAT xdata$x
xdata$x	SEGMENT
__unwindtable$?CDFind_Bearish_SeparatingLines@CCandlePattern@@QAEHPAU_STCANDLE_DATA@@PAVCObject@@@Z DD 0ffffffffH
	DD	FLAT:__unwindfunclet$?CDFind_Bearish_SeparatingLines@CCandlePattern@@QAEHPAU_STCANDLE_DATA@@PAVCObject@@@Z$0
__ehfuncinfo$?CDFind_Bearish_SeparatingLines@CCandlePattern@@QAEHPAU_STCANDLE_DATA@@PAVCObject@@@Z DD 019930522H
	DD	01H
	DD	FLAT:__unwindtable$?CDFind_Bearish_SeparatingLines@CCandlePattern@@QAEHPAU_STCANDLE_DATA@@PAVCObject@@@Z
	DD	2 DUP(00H)
	DD	2 DUP(00H)
	DD	00H
	DD	01H
xdata$x	ENDS
;	COMDAT xdata$x
xdata$x	SEGMENT
__unwindtable$?CDFind_Bullish_SeparatingLines@CCandlePattern@@QAEHPAU_STCANDLE_DATA@@PAVCObject@@@Z DD 0ffffffffH
	DD	FLAT:__unwindfunclet$?CDFind_Bullish_SeparatingLines@CCandlePattern@@QAEHPAU_STCANDLE_DATA@@PAVCObject@@@Z$0
__ehfuncinfo$?CDFind_Bullish_SeparatingLines@CCandlePattern@@QAEHPAU_STCANDLE_DATA@@PAVCObject@@@Z DD 019930522H
	DD	01H
	DD	FLAT:__unwindtable$?CDFind_Bullish_SeparatingLines@CCandlePattern@@QAEHPAU_STCANDLE_DATA@@PAVCObject@@@Z
	DD	2 DUP(00H)
	DD	2 DUP(00H)
	DD	00H
	DD	01H
xdata$x	ENDS
;	COMDAT xdata$x
xdata$x	SEGMENT
__unwindtable$?CDFind_FallingThreeMethods@CCandlePattern@@QAEHPAU_STCANDLE_DATA@@PAVCObject@@@Z DD 0ffffffffH
	DD	FLAT:__unwindfunclet$?CDFind_FallingThreeMethods@CCandlePattern@@QAEHPAU_STCANDLE_DATA@@PAVCObject@@@Z$0
__ehfuncinfo$?CDFind_FallingThreeMethods@CCandlePattern@@QAEHPAU_STCANDLE_DATA@@PAVCObject@@@Z DD 019930522H
	DD	01H
	DD	FLAT:__unwindtable$?CDFind_FallingThreeMethods@CCandlePattern@@QAEHPAU_STCANDLE_DATA@@PAVCObject@@@Z
	DD	2 DUP(00H)
	DD	2 DUP(00H)
	DD	00H
	DD	01H
xdata$x	ENDS
;	COMDAT xdata$x
xdata$x	SEGMENT
__unwindtable$?CDFind_RisingThreeMethods@CCandlePattern@@QAEHPAU_STCANDLE_DATA@@PAVCObject@@@Z DD 0ffffffffH
	DD	FLAT:__unwindfunclet$?CDFind_RisingThreeMethods@CCandlePattern@@QAEHPAU_STCANDLE_DATA@@PAVCObject@@@Z$0
__ehfuncinfo$?CDFind_RisingThreeMethods@CCandlePattern@@QAEHPAU_STCANDLE_DATA@@PAVCObject@@@Z DD 019930522H
	DD	01H
	DD	FLAT:__unwindtable$?CDFind_RisingThreeMethods@CCandlePattern@@QAEHPAU_STCANDLE_DATA@@PAVCObject@@@Z
	DD	2 DUP(00H)
	DD	2 DUP(00H)
	DD	00H
	DD	01H
xdata$x	ENDS
;	COMDAT xdata$x
xdata$x	SEGMENT
__unwindtable$?CDFind_Bearish_SideBySideWhiteLines@CCandlePattern@@QAEHPAU_STCANDLE_DATA@@PAVCObject@@@Z DD 0ffffffffH
	DD	FLAT:__unwindfunclet$?CDFind_Bearish_SideBySideWhiteLines@CCandlePattern@@QAEHPAU_STCANDLE_DATA@@PAVCObject@@@Z$0
__ehfuncinfo$?CDFind_Bearish_SideBySideWhiteLines@CCandlePattern@@QAEHPAU_STCANDLE_DATA@@PAVCObject@@@Z DD 019930522H
	DD	01H
	DD	FLAT:__unwindtable$?CDFind_Bearish_SideBySideWhiteLines@CCandlePattern@@QAEHPAU_STCANDLE_DATA@@PAVCObject@@@Z
	DD	2 DUP(00H)
	DD	2 DUP(00H)
	DD	00H
	DD	01H
xdata$x	ENDS
;	COMDAT xdata$x
xdata$x	SEGMENT
__unwindtable$?CDFind_Bullish_SideBySideWhiteLines@CCandlePattern@@QAEHPAU_STCANDLE_DATA@@PAVCObject@@@Z DD 0ffffffffH
	DD	FLAT:__unwindfunclet$?CDFind_Bullish_SideBySideWhiteLines@CCandlePattern@@QAEHPAU_STCANDLE_DATA@@PAVCObject@@@Z$0
__ehfuncinfo$?CDFind_Bullish_SideBySideWhiteLines@CCandlePattern@@QAEHPAU_STCANDLE_DATA@@PAVCObject@@@Z DD 019930522H
	DD	01H
	DD	FLAT:__unwindtable$?CDFind_Bullish_SideBySideWhiteLines@CCandlePattern@@QAEHPAU_STCANDLE_DATA@@PAVCObject@@@Z
	DD	2 DUP(00H)
	DD	2 DUP(00H)
	DD	00H
	DD	01H
xdata$x	ENDS
;	COMDAT xdata$x
xdata$x	SEGMENT
__unwindtable$?CDFind_MatchingLow@CCandlePattern@@QAEHPAU_STCANDLE_DATA@@PAVCObject@@@Z DD 0ffffffffH
	DD	FLAT:__unwindfunclet$?CDFind_MatchingLow@CCandlePattern@@QAEHPAU_STCANDLE_DATA@@PAVCObject@@@Z$0
__ehfuncinfo$?CDFind_MatchingLow@CCandlePattern@@QAEHPAU_STCANDLE_DATA@@PAVCObject@@@Z DD 019930522H
	DD	01H
	DD	FLAT:__unwindtable$?CDFind_MatchingLow@CCandlePattern@@QAEHPAU_STCANDLE_DATA@@PAVCObject@@@Z
	DD	2 DUP(00H)
	DD	2 DUP(00H)
	DD	00H
	DD	01H
xdata$x	ENDS
;	COMDAT xdata$x
xdata$x	SEGMENT
__unwindtable$?CDFind_LadderBottom@CCandlePattern@@QAEHPAU_STCANDLE_DATA@@PAVCObject@@@Z DD 0ffffffffH
	DD	FLAT:__unwindfunclet$?CDFind_LadderBottom@CCandlePattern@@QAEHPAU_STCANDLE_DATA@@PAVCObject@@@Z$0
__ehfuncinfo$?CDFind_LadderBottom@CCandlePattern@@QAEHPAU_STCANDLE_DATA@@PAVCObject@@@Z DD 019930522H
	DD	01H
	DD	FLAT:__unwindtable$?CDFind_LadderBottom@CCandlePattern@@QAEHPAU_STCANDLE_DATA@@PAVCObject@@@Z
	DD	2 DUP(00H)
	DD	2 DUP(00H)
	DD	00H
	DD	01H
xdata$x	ENDS
;	COMDAT xdata$x
xdata$x	SEGMENT
__unwindtable$?CDFind_HomingPigeon@CCandlePattern@@QAEHPAU_STCANDLE_DATA@@PAVCObject@@@Z DD 0ffffffffH
	DD	FLAT:__unwindfunclet$?CDFind_HomingPigeon@CCandlePattern@@QAEHPAU_STCANDLE_DATA@@PAVCObject@@@Z$0
__ehfuncinfo$?CDFind_HomingPigeon@CCandlePattern@@QAEHPAU_STCANDLE_DATA@@PAVCObject@@@Z DD 019930522H
	DD	01H
	DD	FLAT:__unwindtable$?CDFind_HomingPigeon@CCandlePattern@@QAEHPAU_STCANDLE_DATA@@PAVCObject@@@Z
	DD	2 DUP(00H)
	DD	2 DUP(00H)
	DD	00H
	DD	01H
xdata$x	ENDS
;	COMDAT xdata$x
xdata$x	SEGMENT
__unwindtable$?CDFind_Bearish_Kicking@CCandlePattern@@QAEHPAU_STCANDLE_DATA@@PAVCObject@@@Z DD 0ffffffffH
	DD	FLAT:__unwindfunclet$?CDFind_Bearish_Kicking@CCandlePattern@@QAEHPAU_STCANDLE_DATA@@PAVCObject@@@Z$0
__ehfuncinfo$?CDFind_Bearish_Kicking@CCandlePattern@@QAEHPAU_STCANDLE_DATA@@PAVCObject@@@Z DD 019930522H
	DD	01H
	DD	FLAT:__unwindtable$?CDFind_Bearish_Kicking@CCandlePattern@@QAEHPAU_STCANDLE_DATA@@PAVCObject@@@Z
	DD	2 DUP(00H)
	DD	2 DUP(00H)
	DD	00H
	DD	01H
xdata$x	ENDS
;	COMDAT xdata$x
xdata$x	SEGMENT
__unwindtable$?CDFind_Bullish_Kicking@CCandlePattern@@QAEHPAU_STCANDLE_DATA@@PAVCObject@@@Z DD 0ffffffffH
	DD	FLAT:__unwindfunclet$?CDFind_Bullish_Kicking@CCandlePattern@@QAEHPAU_STCANDLE_DATA@@PAVCObject@@@Z$0
__ehfuncinfo$?CDFind_Bullish_Kicking@CCandlePattern@@QAEHPAU_STCANDLE_DATA@@PAVCObject@@@Z DD 019930522H
	DD	01H
	DD	FLAT:__unwindtable$?CDFind_Bullish_Kicking@CCandlePattern@@QAEHPAU_STCANDLE_DATA@@PAVCObject@@@Z
	DD	2 DUP(00H)
	DD	2 DUP(00H)
	DD	00H
	DD	01H
xdata$x	ENDS
;	COMDAT xdata$x
xdata$x	SEGMENT
__unwindtable$?CDFind_StickSandwich@CCandlePattern@@QAEHPAU_STCANDLE_DATA@@PAVCObject@@@Z DD 0ffffffffH
	DD	FLAT:__unwindfunclet$?CDFind_StickSandwich@CCandlePattern@@QAEHPAU_STCANDLE_DATA@@PAVCObject@@@Z$0
__ehfuncinfo$?CDFind_StickSandwich@CCandlePattern@@QAEHPAU_STCANDLE_DATA@@PAVCObject@@@Z DD 019930522H
	DD	01H
	DD	FLAT:__unwindtable$?CDFind_StickSandwich@CCandlePattern@@QAEHPAU_STCANDLE_DATA@@PAVCObject@@@Z
	DD	2 DUP(00H)
	DD	2 DUP(00H)
	DD	00H
	DD	01H
xdata$x	ENDS
;	COMDAT xdata$x
xdata$x	SEGMENT
__unwindtable$?CDFind_ConcealingBabySwallow@CCandlePattern@@QAEHPAU_STCANDLE_DATA@@PAVCObject@@@Z DD 0ffffffffH
	DD	FLAT:__unwindfunclet$?CDFind_ConcealingBabySwallow@CCandlePattern@@QAEHPAU_STCANDLE_DATA@@PAVCObject@@@Z$0
__ehfuncinfo$?CDFind_ConcealingBabySwallow@CCandlePattern@@QAEHPAU_STCANDLE_DATA@@PAVCObject@@@Z DD 019930522H
	DD	01H
	DD	FLAT:__unwindtable$?CDFind_ConcealingBabySwallow@CCandlePattern@@QAEHPAU_STCANDLE_DATA@@PAVCObject@@@Z
	DD	2 DUP(00H)
	DD	2 DUP(00H)
	DD	00H
	DD	01H
xdata$x	ENDS
;	COMDAT xdata$x
xdata$x	SEGMENT
__unwindtable$?CDFind_ThreeStarsInTheSouth@CCandlePattern@@QAEHPAU_STCANDLE_DATA@@PAVCObject@@@Z DD 0ffffffffH
	DD	FLAT:__unwindfunclet$?CDFind_ThreeStarsInTheSouth@CCandlePattern@@QAEHPAU_STCANDLE_DATA@@PAVCObject@@@Z$0
__ehfuncinfo$?CDFind_ThreeStarsInTheSouth@CCandlePattern@@QAEHPAU_STCANDLE_DATA@@PAVCObject@@@Z DD 019930522H
	DD	01H
	DD	FLAT:__unwindtable$?CDFind_ThreeStarsInTheSouth@CCandlePattern@@QAEHPAU_STCANDLE_DATA@@PAVCObject@@@Z
	DD	2 DUP(00H)
	DD	2 DUP(00H)
	DD	00H
	DD	01H
xdata$x	ENDS
;	COMDAT xdata$x
xdata$x	SEGMENT
__unwindtable$?CDFind_TwoCrows@CCandlePattern@@QAEHPAU_STCANDLE_DATA@@PAVCObject@@@Z DD 0ffffffffH
	DD	FLAT:__unwindfunclet$?CDFind_TwoCrows@CCandlePattern@@QAEHPAU_STCANDLE_DATA@@PAVCObject@@@Z$0
__ehfuncinfo$?CDFind_TwoCrows@CCandlePattern@@QAEHPAU_STCANDLE_DATA@@PAVCObject@@@Z DD 019930522H
	DD	01H
	DD	FLAT:__unwindtable$?CDFind_TwoCrows@CCandlePattern@@QAEHPAU_STCANDLE_DATA@@PAVCObject@@@Z
	DD	2 DUP(00H)
	DD	2 DUP(00H)
	DD	00H
	DD	01H
xdata$x	ENDS
;	COMDAT xdata$x
xdata$x	SEGMENT
__unwindtable$?CDFind_Bearish_Breakaway@CCandlePattern@@QAEHPAU_STCANDLE_DATA@@PAVCObject@@@Z DD 0ffffffffH
	DD	FLAT:__unwindfunclet$?CDFind_Bearish_Breakaway@CCandlePattern@@QAEHPAU_STCANDLE_DATA@@PAVCObject@@@Z$0
__ehfuncinfo$?CDFind_Bearish_Breakaway@CCandlePattern@@QAEHPAU_STCANDLE_DATA@@PAVCObject@@@Z DD 019930522H
	DD	01H
	DD	FLAT:__unwindtable$?CDFind_Bearish_Breakaway@CCandlePattern@@QAEHPAU_STCANDLE_DATA@@PAVCObject@@@Z
	DD	2 DUP(00H)
	DD	2 DUP(00H)
	DD	00H
	DD	01H
xdata$x	ENDS
;	COMDAT xdata$x
xdata$x	SEGMENT
__unwindtable$?CDFind_Bullish_Breakaway@CCandlePattern@@QAEHPAU_STCANDLE_DATA@@PAVCObject@@@Z DD 0ffffffffH
	DD	FLAT:__unwindfunclet$?CDFind_Bullish_Breakaway@CCandlePattern@@QAEHPAU_STCANDLE_DATA@@PAVCObject@@@Z$0
__ehfuncinfo$?CDFind_Bullish_Breakaway@CCandlePattern@@QAEHPAU_STCANDLE_DATA@@PAVCObject@@@Z DD 019930522H
	DD	01H
	DD	FLAT:__unwindtable$?CDFind_Bullish_Breakaway@CCandlePattern@@QAEHPAU_STCANDLE_DATA@@PAVCObject@@@Z
	DD	2 DUP(00H)
	DD	2 DUP(00H)
	DD	00H
	DD	01H
xdata$x	ENDS
;	COMDAT xdata$x
xdata$x	SEGMENT
__unwindtable$?CDFind_IdenticalThreeCrows@CCandlePattern@@QAEHPAU_STCANDLE_DATA@@PAVCObject@@@Z DD 0ffffffffH
	DD	FLAT:__unwindfunclet$?CDFind_IdenticalThreeCrows@CCandlePattern@@QAEHPAU_STCANDLE_DATA@@PAVCObject@@@Z$0
__ehfuncinfo$?CDFind_IdenticalThreeCrows@CCandlePattern@@QAEHPAU_STCANDLE_DATA@@PAVCObject@@@Z DD 019930522H
	DD	01H
	DD	FLAT:__unwindtable$?CDFind_IdenticalThreeCrows@CCandlePattern@@QAEHPAU_STCANDLE_DATA@@PAVCObject@@@Z
	DD	2 DUP(00H)
	DD	2 DUP(00H)
	DD	00H
	DD	01H
xdata$x	ENDS
;	COMDAT xdata$x
xdata$x	SEGMENT
__unwindtable$?CDFind_UniqueThreeRiverBottom@CCandlePattern@@QAEHPAU_STCANDLE_DATA@@PAVCObject@@@Z DD 0ffffffffH
	DD	FLAT:__unwindfunclet$?CDFind_UniqueThreeRiverBottom@CCandlePattern@@QAEHPAU_STCANDLE_DATA@@PAVCObject@@@Z$0
__ehfuncinfo$?CDFind_UniqueThreeRiverBottom@CCandlePattern@@QAEHPAU_STCANDLE_DATA@@PAVCObject@@@Z DD 019930522H
	DD	01H
	DD	FLAT:__unwindtable$?CDFind_UniqueThreeRiverBottom@CCandlePattern@@QAEHPAU_STCANDLE_DATA@@PAVCObject@@@Z
	DD	2 DUP(00H)
	DD	2 DUP(00H)
	DD	00H
	DD	01H
xdata$x	ENDS
;	COMDAT xdata$x
xdata$x	SEGMENT
__unwindtable$?CDFind_Bearish_TriStar@CCandlePattern@@QAEHPAU_STCANDLE_DATA@@PAVCObject@@@Z DD 0ffffffffH
	DD	FLAT:__unwindfunclet$?CDFind_Bearish_TriStar@CCandlePattern@@QAEHPAU_STCANDLE_DATA@@PAVCObject@@@Z$0
__ehfuncinfo$?CDFind_Bearish_TriStar@CCandlePattern@@QAEHPAU_STCANDLE_DATA@@PAVCObject@@@Z DD 019930522H
	DD	01H
	DD	FLAT:__unwindtable$?CDFind_Bearish_TriStar@CCandlePattern@@QAEHPAU_STCANDLE_DATA@@PAVCObject@@@Z
	DD	2 DUP(00H)
	DD	2 DUP(00H)
	DD	00H
	DD	01H
xdata$x	ENDS
;	COMDAT xdata$x
xdata$x	SEGMENT
__unwindtable$?CDFind_Bullish_TriStar@CCandlePattern@@QAEHPAU_STCANDLE_DATA@@PAVCObject@@@Z DD 0ffffffffH
	DD	FLAT:__unwindfunclet$?CDFind_Bullish_TriStar@CCandlePattern@@QAEHPAU_STCANDLE_DATA@@PAVCObject@@@Z$0
__ehfuncinfo$?CDFind_Bullish_TriStar@CCandlePattern@@QAEHPAU_STCANDLE_DATA@@PAVCObject@@@Z DD 019930522H
	DD	01H
	DD	FLAT:__unwindtable$?CDFind_Bullish_TriStar@CCandlePattern@@QAEHPAU_STCANDLE_DATA@@PAVCObject@@@Z
	DD	2 DUP(00H)
	DD	2 DUP(00H)
	DD	00H
	DD	01H
xdata$x	ENDS
;	COMDAT xdata$x
xdata$x	SEGMENT
__unwindtable$?CDFind_MatHold@CCandlePattern@@QAEHPAU_STCANDLE_DATA@@PAVCObject@@@Z DD 0ffffffffH
	DD	FLAT:__unwindfunclet$?CDFind_MatHold@CCandlePattern@@QAEHPAU_STCANDLE_DATA@@PAVCObject@@@Z$0
__ehfuncinfo$?CDFind_MatHold@CCandlePattern@@QAEHPAU_STCANDLE_DATA@@PAVCObject@@@Z DD 019930522H
	DD	01H
	DD	FLAT:__unwindtable$?CDFind_MatHold@CCandlePattern@@QAEHPAU_STCANDLE_DATA@@PAVCObject@@@Z
	DD	2 DUP(00H)
	DD	2 DUP(00H)
	DD	00H
	DD	01H
xdata$x	ENDS
;	COMDAT xdata$x
xdata$x	SEGMENT
__unwindtable$?CDFind_DownsideGapTasuki@CCandlePattern@@QAEHPAU_STCANDLE_DATA@@PAVCObject@@@Z DD 0ffffffffH
	DD	FLAT:__unwindfunclet$?CDFind_DownsideGapTasuki@CCandlePattern@@QAEHPAU_STCANDLE_DATA@@PAVCObject@@@Z$0
__ehfuncinfo$?CDFind_DownsideGapTasuki@CCandlePattern@@QAEHPAU_STCANDLE_DATA@@PAVCObject@@@Z DD 019930522H
	DD	01H
	DD	FLAT:__unwindtable$?CDFind_DownsideGapTasuki@CCandlePattern@@QAEHPAU_STCANDLE_DATA@@PAVCObject@@@Z
	DD	2 DUP(00H)
	DD	2 DUP(00H)
	DD	00H
	DD	01H
xdata$x	ENDS
;	COMDAT xdata$x
xdata$x	SEGMENT
__unwindtable$?CDFind_UpsideGapTasuki@CCandlePattern@@QAEHPAU_STCANDLE_DATA@@PAVCObject@@@Z DD 0ffffffffH
	DD	FLAT:__unwindfunclet$?CDFind_UpsideGapTasuki@CCandlePattern@@QAEHPAU_STCANDLE_DATA@@PAVCObject@@@Z$0
__ehfuncinfo$?CDFind_UpsideGapTasuki@CCandlePattern@@QAEHPAU_STCANDLE_DATA@@PAVCObject@@@Z DD 019930522H
	DD	01H
	DD	FLAT:__unwindtable$?CDFind_UpsideGapTasuki@CCandlePattern@@QAEHPAU_STCANDLE_DATA@@PAVCObject@@@Z
	DD	2 DUP(00H)
	DD	2 DUP(00H)
	DD	00H
	DD	01H
xdata$x	ENDS
;	COMDAT xdata$x
xdata$x	SEGMENT
__unwindtable$?CDFind_AdvanceBlock@CCandlePattern@@QAEHPAU_STCANDLE_DATA@@PAVCObject@@@Z DD 0ffffffffH
	DD	FLAT:__unwindfunclet$?CDFind_AdvanceBlock@CCandlePattern@@QAEHPAU_STCANDLE_DATA@@PAVCObject@@@Z$0
__ehfuncinfo$?CDFind_AdvanceBlock@CCandlePattern@@QAEHPAU_STCANDLE_DATA@@PAVCObject@@@Z DD 019930522H
	DD	01H
	DD	FLAT:__unwindtable$?CDFind_AdvanceBlock@CCandlePattern@@QAEHPAU_STCANDLE_DATA@@PAVCObject@@@Z
	DD	2 DUP(00H)
	DD	2 DUP(00H)
	DD	00H
	DD	01H
xdata$x	ENDS
;	COMDAT xdata$x
xdata$x	SEGMENT
__unwindtable$?CDFind_StalledPattern@CCandlePattern@@QAEHPAU_STCANDLE_DATA@@PAVCObject@@@Z DD 0ffffffffH
	DD	FLAT:__unwindfunclet$?CDFind_StalledPattern@CCandlePattern@@QAEHPAU_STCANDLE_DATA@@PAVCObject@@@Z$0
__ehfuncinfo$?CDFind_StalledPattern@CCandlePattern@@QAEHPAU_STCANDLE_DATA@@PAVCObject@@@Z DD 019930522H
	DD	01H
	DD	FLAT:__unwindtable$?CDFind_StalledPattern@CCandlePattern@@QAEHPAU_STCANDLE_DATA@@PAVCObject@@@Z
	DD	2 DUP(00H)
	DD	2 DUP(00H)
	DD	00H
	DD	01H
xdata$x	ENDS
;	COMDAT xdata$x
xdata$x	SEGMENT
__unwindtable$?CDFind_ThreeBlackCorws@CCandlePattern@@QAEHPAU_STCANDLE_DATA@@PAVCObject@@@Z DD 0ffffffffH
	DD	FLAT:__unwindfunclet$?CDFind_ThreeBlackCorws@CCandlePattern@@QAEHPAU_STCANDLE_DATA@@PAVCObject@@@Z$0
__ehfuncinfo$?CDFind_ThreeBlackCorws@CCandlePattern@@QAEHPAU_STCANDLE_DATA@@PAVCObject@@@Z DD 019930522H
	DD	01H
	DD	FLAT:__unwindtable$?CDFind_ThreeBlackCorws@CCandlePattern@@QAEHPAU_STCANDLE_DATA@@PAVCObject@@@Z
	DD	2 DUP(00H)
	DD	2 DUP(00H)
	DD	00H
	DD	01H
xdata$x	ENDS
;	COMDAT xdata$x
xdata$x	SEGMENT
__unwindtable$?CDFind_ThreeWhiteSoldier@CCandlePattern@@QAEHPAU_STCANDLE_DATA@@PAVCObject@@@Z DD 0ffffffffH
	DD	FLAT:__unwindfunclet$?CDFind_ThreeWhiteSoldier@CCandlePattern@@QAEHPAU_STCANDLE_DATA@@PAVCObject@@@Z$0
__ehfuncinfo$?CDFind_ThreeWhiteSoldier@CCandlePattern@@QAEHPAU_STCANDLE_DATA@@PAVCObject@@@Z DD 019930522H
	DD	01H
	DD	FLAT:__unwindtable$?CDFind_ThreeWhiteSoldier@CCandlePattern@@QAEHPAU_STCANDLE_DATA@@PAVCObject@@@Z
	DD	2 DUP(00H)
	DD	2 DUP(00H)
	DD	00H
	DD	01H
xdata$x	ENDS
;	COMDAT xdata$x
xdata$x	SEGMENT
__unwindtable$?CDFind_UpsideGapTwoCrowsInUptrend@CCandlePattern@@QAEHPAU_STCANDLE_DATA@@PAVCObject@@@Z DD 0ffffffffH
	DD	FLAT:__unwindfunclet$?CDFind_UpsideGapTwoCrowsInUptrend@CCandlePattern@@QAEHPAU_STCANDLE_DATA@@PAVCObject@@@Z$0
__ehfuncinfo$?CDFind_UpsideGapTwoCrowsInUptrend@CCandlePattern@@QAEHPAU_STCANDLE_DATA@@PAVCObject@@@Z DD 019930522H
	DD	01H
	DD	FLAT:__unwindtable$?CDFind_UpsideGapTwoCrowsInUptrend@CCandlePattern@@QAEHPAU_STCANDLE_DATA@@PAVCObject@@@Z
	DD	2 DUP(00H)
	DD	2 DUP(00H)
	DD	00H
	DD	01H
xdata$x	ENDS
;	COMDAT xdata$x
xdata$x	SEGMENT
__unwindtable$?CDFind_ThreeOutsideDown@CCandlePattern@@QAEHPAU_STCANDLE_DATA@@PAVCObject@@@Z DD 0ffffffffH
	DD	FLAT:__unwindfunclet$?CDFind_ThreeOutsideDown@CCandlePattern@@QAEHPAU_STCANDLE_DATA@@PAVCObject@@@Z$0
__ehfuncinfo$?CDFind_ThreeOutsideDown@CCandlePattern@@QAEHPAU_STCANDLE_DATA@@PAVCObject@@@Z DD 019930522H
	DD	01H
	DD	FLAT:__unwindtable$?CDFind_ThreeOutsideDown@CCandlePattern@@QAEHPAU_STCANDLE_DATA@@PAVCObject@@@Z
	DD	2 DUP(00H)
	DD	2 DUP(00H)
	DD	00H
	DD	01H
xdata$x	ENDS
;	COMDAT xdata$x
xdata$x	SEGMENT
__unwindtable$?CDFind_ThreeOutsideUp@CCandlePattern@@QAEHPAU_STCANDLE_DATA@@PAVCObject@@@Z DD 0ffffffffH
	DD	FLAT:__unwindfunclet$?CDFind_ThreeOutsideUp@CCandlePattern@@QAEHPAU_STCANDLE_DATA@@PAVCObject@@@Z$0
__ehfuncinfo$?CDFind_ThreeOutsideUp@CCandlePattern@@QAEHPAU_STCANDLE_DATA@@PAVCObject@@@Z DD 019930522H
	DD	01H
	DD	FLAT:__unwindtable$?CDFind_ThreeOutsideUp@CCandlePattern@@QAEHPAU_STCANDLE_DATA@@PAVCObject@@@Z
	DD	2 DUP(00H)
	DD	2 DUP(00H)
	DD	00H
	DD	01H
xdata$x	ENDS
;	COMDAT xdata$x
xdata$x	SEGMENT
__unwindtable$?CDFind_ThreeIndiseDown@CCandlePattern@@QAEHPAU_STCANDLE_DATA@@PAVCObject@@@Z DD 0ffffffffH
	DD	FLAT:__unwindfunclet$?CDFind_ThreeIndiseDown@CCandlePattern@@QAEHPAU_STCANDLE_DATA@@PAVCObject@@@Z$0
__ehfuncinfo$?CDFind_ThreeIndiseDown@CCandlePattern@@QAEHPAU_STCANDLE_DATA@@PAVCObject@@@Z DD 019930522H
	DD	01H
	DD	FLAT:__unwindtable$?CDFind_ThreeIndiseDown@CCandlePattern@@QAEHPAU_STCANDLE_DATA@@PAVCObject@@@Z
	DD	2 DUP(00H)
	DD	2 DUP(00H)
	DD	00H
	DD	01H
xdata$x	ENDS
;	COMDAT xdata$x
xdata$x	SEGMENT
__unwindtable$?CDFind_ThreeIndiseUp@CCandlePattern@@QAEHPAU_STCANDLE_DATA@@PAVCObject@@@Z DD 0ffffffffH
	DD	FLAT:__unwindfunclet$?CDFind_ThreeIndiseUp@CCandlePattern@@QAEHPAU_STCANDLE_DATA@@PAVCObject@@@Z$0
__ehfuncinfo$?CDFind_ThreeIndiseUp@CCandlePattern@@QAEHPAU_STCANDLE_DATA@@PAVCObject@@@Z DD 019930522H
	DD	01H
	DD	FLAT:__unwindtable$?CDFind_ThreeIndiseUp@CCandlePattern@@QAEHPAU_STCANDLE_DATA@@PAVCObject@@@Z
	DD	2 DUP(00H)
	DD	2 DUP(00H)
	DD	00H
	DD	01H
xdata$x	ENDS
;	COMDAT xdata$x
xdata$x	SEGMENT
__unwindtable$?CDFind_AbandonedBabyInUptrend@CCandlePattern@@QAEHPAU_STCANDLE_DATA@@PAVCObject@@@Z DD 0ffffffffH
	DD	FLAT:__unwindfunclet$?CDFind_AbandonedBabyInUptrend@CCandlePattern@@QAEHPAU_STCANDLE_DATA@@PAVCObject@@@Z$0
__ehfuncinfo$?CDFind_AbandonedBabyInUptrend@CCandlePattern@@QAEHPAU_STCANDLE_DATA@@PAVCObject@@@Z DD 019930522H
	DD	01H
	DD	FLAT:__unwindtable$?CDFind_AbandonedBabyInUptrend@CCandlePattern@@QAEHPAU_STCANDLE_DATA@@PAVCObject@@@Z
	DD	2 DUP(00H)
	DD	2 DUP(00H)
	DD	00H
	DD	01H
xdata$x	ENDS
;	COMDAT xdata$x
xdata$x	SEGMENT
__unwindtable$?CDFind_AbandonedBabyInDowntrend@CCandlePattern@@QAEHPAU_STCANDLE_DATA@@PAVCObject@@@Z DD 0ffffffffH
	DD	FLAT:__unwindfunclet$?CDFind_AbandonedBabyInDowntrend@CCandlePattern@@QAEHPAU_STCANDLE_DATA@@PAVCObject@@@Z$0
__ehfuncinfo$?CDFind_AbandonedBabyInDowntrend@CCandlePattern@@QAEHPAU_STCANDLE_DATA@@PAVCObject@@@Z DD 019930522H
	DD	01H
	DD	FLAT:__unwindtable$?CDFind_AbandonedBabyInDowntrend@CCandlePattern@@QAEHPAU_STCANDLE_DATA@@PAVCObject@@@Z
	DD	2 DUP(00H)
	DD	2 DUP(00H)
	DD	00H
	DD	01H
xdata$x	ENDS
;	COMDAT xdata$x
xdata$x	SEGMENT
__unwindtable$?CDFind_EveningDojiStar@CCandlePattern@@QAEHPAU_STCANDLE_DATA@@PAVCObject@@@Z DD 0ffffffffH
	DD	FLAT:__unwindfunclet$?CDFind_EveningDojiStar@CCandlePattern@@QAEHPAU_STCANDLE_DATA@@PAVCObject@@@Z$0
__ehfuncinfo$?CDFind_EveningDojiStar@CCandlePattern@@QAEHPAU_STCANDLE_DATA@@PAVCObject@@@Z DD 019930522H
	DD	01H
	DD	FLAT:__unwindtable$?CDFind_EveningDojiStar@CCandlePattern@@QAEHPAU_STCANDLE_DATA@@PAVCObject@@@Z
	DD	2 DUP(00H)
	DD	2 DUP(00H)
	DD	00H
	DD	01H
xdata$x	ENDS
;	COMDAT xdata$x
xdata$x	SEGMENT
__unwindtable$?CDFind_MorningDojiStar@CCandlePattern@@QAEHPAU_STCANDLE_DATA@@PAVCObject@@@Z DD 0ffffffffH
	DD	FLAT:__unwindfunclet$?CDFind_MorningDojiStar@CCandlePattern@@QAEHPAU_STCANDLE_DATA@@PAVCObject@@@Z$0
__ehfuncinfo$?CDFind_MorningDojiStar@CCandlePattern@@QAEHPAU_STCANDLE_DATA@@PAVCObject@@@Z DD 019930522H
	DD	01H
	DD	FLAT:__unwindtable$?CDFind_MorningDojiStar@CCandlePattern@@QAEHPAU_STCANDLE_DATA@@PAVCObject@@@Z
	DD	2 DUP(00H)
	DD	2 DUP(00H)
	DD	00H
	DD	01H
xdata$x	ENDS
;	COMDAT xdata$x
xdata$x	SEGMENT
__unwindtable$?CDFind_EveningStar@CCandlePattern@@QAEHPAU_STCANDLE_DATA@@PAVCObject@@@Z DD 0ffffffffH
	DD	FLAT:__unwindfunclet$?CDFind_EveningStar@CCandlePattern@@QAEHPAU_STCANDLE_DATA@@PAVCObject@@@Z$0
__ehfuncinfo$?CDFind_EveningStar@CCandlePattern@@QAEHPAU_STCANDLE_DATA@@PAVCObject@@@Z DD 019930522H
	DD	01H
	DD	FLAT:__unwindtable$?CDFind_EveningStar@CCandlePattern@@QAEHPAU_STCANDLE_DATA@@PAVCObject@@@Z
	DD	2 DUP(00H)
	DD	2 DUP(00H)
	DD	00H
	DD	01H
xdata$x	ENDS
;	COMDAT xdata$x
xdata$x	SEGMENT
__unwindtable$?CDFind_MorningStar@CCandlePattern@@QAEHPAU_STCANDLE_DATA@@PAVCObject@@@Z DD 0ffffffffH
	DD	FLAT:__unwindfunclet$?CDFind_MorningStar@CCandlePattern@@QAEHPAU_STCANDLE_DATA@@PAVCObject@@@Z$0
__ehfuncinfo$?CDFind_MorningStar@CCandlePattern@@QAEHPAU_STCANDLE_DATA@@PAVCObject@@@Z DD 019930522H
	DD	01H
	DD	FLAT:__unwindtable$?CDFind_MorningStar@CCandlePattern@@QAEHPAU_STCANDLE_DATA@@PAVCObject@@@Z
	DD	2 DUP(00H)
	DD	2 DUP(00H)
	DD	00H
	DD	01H
xdata$x	ENDS
;	COMDAT xdata$x
xdata$x	SEGMENT
__unwindtable$?CDFind_DarkCloudCover@CCandlePattern@@QAEHPAU_STCANDLE_DATA@@PAVCObject@@@Z DD 0ffffffffH
	DD	FLAT:__unwindfunclet$?CDFind_DarkCloudCover@CCandlePattern@@QAEHPAU_STCANDLE_DATA@@PAVCObject@@@Z$0
__ehfuncinfo$?CDFind_DarkCloudCover@CCandlePattern@@QAEHPAU_STCANDLE_DATA@@PAVCObject@@@Z DD 019930522H
	DD	01H
	DD	FLAT:__unwindtable$?CDFind_DarkCloudCover@CCandlePattern@@QAEHPAU_STCANDLE_DATA@@PAVCObject@@@Z
	DD	2 DUP(00H)
	DD	2 DUP(00H)
	DD	00H
	DD	01H
xdata$x	ENDS
;	COMDAT xdata$x
xdata$x	SEGMENT
__unwindtable$?CDFind_PiercingPattern@CCandlePattern@@QAEHPAU_STCANDLE_DATA@@PAVCObject@@@Z DD 0ffffffffH
	DD	FLAT:__unwindfunclet$?CDFind_PiercingPattern@CCandlePattern@@QAEHPAU_STCANDLE_DATA@@PAVCObject@@@Z$0
__ehfuncinfo$?CDFind_PiercingPattern@CCandlePattern@@QAEHPAU_STCANDLE_DATA@@PAVCObject@@@Z DD 019930522H
	DD	01H
	DD	FLAT:__unwindtable$?CDFind_PiercingPattern@CCandlePattern@@QAEHPAU_STCANDLE_DATA@@PAVCObject@@@Z
	DD	2 DUP(00H)
	DD	2 DUP(00H)
	DD	00H
	DD	01H
xdata$x	ENDS
;	COMDAT xdata$x
xdata$x	SEGMENT
__unwindtable$?CDFind_Bearish_CounterattackLine@CCandlePattern@@QAEHPAU_STCANDLE_DATA@@PAVCObject@@@Z DD 0ffffffffH
	DD	FLAT:__unwindfunclet$?CDFind_Bearish_CounterattackLine@CCandlePattern@@QAEHPAU_STCANDLE_DATA@@PAVCObject@@@Z$0
__ehfuncinfo$?CDFind_Bearish_CounterattackLine@CCandlePattern@@QAEHPAU_STCANDLE_DATA@@PAVCObject@@@Z DD 019930522H
	DD	01H
	DD	FLAT:__unwindtable$?CDFind_Bearish_CounterattackLine@CCandlePattern@@QAEHPAU_STCANDLE_DATA@@PAVCObject@@@Z
	DD	2 DUP(00H)
	DD	2 DUP(00H)
	DD	00H
	DD	01H
xdata$x	ENDS
;	COMDAT xdata$x
xdata$x	SEGMENT
__unwindtable$?CDFind_Bullish_CounterattackLine@CCandlePattern@@QAEHPAU_STCANDLE_DATA@@PAVCObject@@@Z DD 0ffffffffH
	DD	FLAT:__unwindfunclet$?CDFind_Bullish_CounterattackLine@CCandlePattern@@QAEHPAU_STCANDLE_DATA@@PAVCObject@@@Z$0
__ehfuncinfo$?CDFind_Bullish_CounterattackLine@CCandlePattern@@QAEHPAU_STCANDLE_DATA@@PAVCObject@@@Z DD 019930522H
	DD	01H
	DD	FLAT:__unwindtable$?CDFind_Bullish_CounterattackLine@CCandlePattern@@QAEHPAU_STCANDLE_DATA@@PAVCObject@@@Z
	DD	2 DUP(00H)
	DD	2 DUP(00H)
	DD	00H
	DD	01H
xdata$x	ENDS
;	COMDAT xdata$x
xdata$x	SEGMENT
__unwindtable$?CDFind_Bearish_Engulfing@CCandlePattern@@QAEHPAU_STCANDLE_DATA@@PAVCObject@@@Z DD 0ffffffffH
	DD	FLAT:__unwindfunclet$?CDFind_Bearish_Engulfing@CCandlePattern@@QAEHPAU_STCANDLE_DATA@@PAVCObject@@@Z$0
__ehfuncinfo$?CDFind_Bearish_Engulfing@CCandlePattern@@QAEHPAU_STCANDLE_DATA@@PAVCObject@@@Z DD 019930522H
	DD	01H
	DD	FLAT:__unwindtable$?CDFind_Bearish_Engulfing@CCandlePattern@@QAEHPAU_STCANDLE_DATA@@PAVCObject@@@Z
	DD	2 DUP(00H)
	DD	2 DUP(00H)
	DD	00H
	DD	01H
xdata$x	ENDS
;	COMDAT xdata$x
xdata$x	SEGMENT
__unwindtable$?CDFind_Bullish_Engulfing@CCandlePattern@@QAEHPAU_STCANDLE_DATA@@PAVCObject@@@Z DD 0ffffffffH
	DD	FLAT:__unwindfunclet$?CDFind_Bullish_Engulfing@CCandlePattern@@QAEHPAU_STCANDLE_DATA@@PAVCObject@@@Z$0
__ehfuncinfo$?CDFind_Bullish_Engulfing@CCandlePattern@@QAEHPAU_STCANDLE_DATA@@PAVCObject@@@Z DD 019930522H
	DD	01H
	DD	FLAT:__unwindtable$?CDFind_Bullish_Engulfing@CCandlePattern@@QAEHPAU_STCANDLE_DATA@@PAVCObject@@@Z
	DD	2 DUP(00H)
	DD	2 DUP(00H)
	DD	00H
	DD	01H
xdata$x	ENDS
;	COMDAT xdata$x
xdata$x	SEGMENT
__unwindtable$?CDFind_Bearish_Harami@CCandlePattern@@QAEHPAU_STCANDLE_DATA@@PAVCObject@@@Z DD 0ffffffffH
	DD	FLAT:__unwindfunclet$?CDFind_Bearish_Harami@CCandlePattern@@QAEHPAU_STCANDLE_DATA@@PAVCObject@@@Z$0
__ehfuncinfo$?CDFind_Bearish_Harami@CCandlePattern@@QAEHPAU_STCANDLE_DATA@@PAVCObject@@@Z DD 019930522H
	DD	01H
	DD	FLAT:__unwindtable$?CDFind_Bearish_Harami@CCandlePattern@@QAEHPAU_STCANDLE_DATA@@PAVCObject@@@Z
	DD	2 DUP(00H)
	DD	2 DUP(00H)
	DD	00H
	DD	01H
xdata$x	ENDS
;	COMDAT xdata$x
xdata$x	SEGMENT
__unwindtable$?CDFind_Bullish_Harami@CCandlePattern@@QAEHPAU_STCANDLE_DATA@@PAVCObject@@@Z DD 0ffffffffH
	DD	FLAT:__unwindfunclet$?CDFind_Bullish_Harami@CCandlePattern@@QAEHPAU_STCANDLE_DATA@@PAVCObject@@@Z$0
__ehfuncinfo$?CDFind_Bullish_Harami@CCandlePattern@@QAEHPAU_STCANDLE_DATA@@PAVCObject@@@Z DD 019930522H
	DD	01H
	DD	FLAT:__unwindtable$?CDFind_Bullish_Harami@CCandlePattern@@QAEHPAU_STCANDLE_DATA@@PAVCObject@@@Z
	DD	2 DUP(00H)
	DD	2 DUP(00H)
	DD	00H
	DD	01H
xdata$x	ENDS
;	COMDAT xdata$x
xdata$x	SEGMENT
__unwindtable$?CDFind_Long_BlackBody@CCandlePattern@@QAEHPAU_STCANDLE_DATA@@PAVCObject@@@Z DD 0ffffffffH
	DD	FLAT:__unwindfunclet$?CDFind_Long_BlackBody@CCandlePattern@@QAEHPAU_STCANDLE_DATA@@PAVCObject@@@Z$0
__ehfuncinfo$?CDFind_Long_BlackBody@CCandlePattern@@QAEHPAU_STCANDLE_DATA@@PAVCObject@@@Z DD 019930522H
	DD	01H
	DD	FLAT:__unwindtable$?CDFind_Long_BlackBody@CCandlePattern@@QAEHPAU_STCANDLE_DATA@@PAVCObject@@@Z
	DD	2 DUP(00H)
	DD	2 DUP(00H)
	DD	00H
	DD	01H
xdata$x	ENDS
;	COMDAT xdata$x
xdata$x	SEGMENT
__unwindtable$?CDFind_Long_WhiteBody@CCandlePattern@@QAEHPAU_STCANDLE_DATA@@PAVCObject@@@Z DD 0ffffffffH
	DD	FLAT:__unwindfunclet$?CDFind_Long_WhiteBody@CCandlePattern@@QAEHPAU_STCANDLE_DATA@@PAVCObject@@@Z$0
__ehfuncinfo$?CDFind_Long_WhiteBody@CCandlePattern@@QAEHPAU_STCANDLE_DATA@@PAVCObject@@@Z DD 019930522H
	DD	01H
	DD	FLAT:__unwindtable$?CDFind_Long_WhiteBody@CCandlePattern@@QAEHPAU_STCANDLE_DATA@@PAVCObject@@@Z
	DD	2 DUP(00H)
	DD	2 DUP(00H)
	DD	00H
	DD	01H
xdata$x	ENDS
;	COMDAT xdata$x
xdata$x	SEGMENT
__unwindtable$?CDFind_Bearish_BeltHoldLine@CCandlePattern@@QAEHPAU_STCANDLE_DATA@@PAVCObject@@@Z DD 0ffffffffH
	DD	FLAT:__unwindfunclet$?CDFind_Bearish_BeltHoldLine@CCandlePattern@@QAEHPAU_STCANDLE_DATA@@PAVCObject@@@Z$0
__ehfuncinfo$?CDFind_Bearish_BeltHoldLine@CCandlePattern@@QAEHPAU_STCANDLE_DATA@@PAVCObject@@@Z DD 019930522H
	DD	01H
	DD	FLAT:__unwindtable$?CDFind_Bearish_BeltHoldLine@CCandlePattern@@QAEHPAU_STCANDLE_DATA@@PAVCObject@@@Z
	DD	2 DUP(00H)
	DD	2 DUP(00H)
	DD	00H
	DD	01H
xdata$x	ENDS
;	COMDAT xdata$x
xdata$x	SEGMENT
__unwindtable$?CDFind_Bullish_BeltHoldLine@CCandlePattern@@QAEHPAU_STCANDLE_DATA@@PAVCObject@@@Z DD 0ffffffffH
	DD	FLAT:__unwindfunclet$?CDFind_Bullish_BeltHoldLine@CCandlePattern@@QAEHPAU_STCANDLE_DATA@@PAVCObject@@@Z$0
__ehfuncinfo$?CDFind_Bullish_BeltHoldLine@CCandlePattern@@QAEHPAU_STCANDLE_DATA@@PAVCObject@@@Z DD 019930522H
	DD	01H
	DD	FLAT:__unwindtable$?CDFind_Bullish_BeltHoldLine@CCandlePattern@@QAEHPAU_STCANDLE_DATA@@PAVCObject@@@Z
	DD	2 DUP(00H)
	DD	2 DUP(00H)
	DD	00H
	DD	01H
xdata$x	ENDS
;	COMDAT xdata$x
xdata$x	SEGMENT
__unwindtable$?CDFind_ShootingStar@CCandlePattern@@QAEHPAU_STCANDLE_DATA@@PAVCObject@@@Z DD 0ffffffffH
	DD	FLAT:__unwindfunclet$?CDFind_ShootingStar@CCandlePattern@@QAEHPAU_STCANDLE_DATA@@PAVCObject@@@Z$0
__ehfuncinfo$?CDFind_ShootingStar@CCandlePattern@@QAEHPAU_STCANDLE_DATA@@PAVCObject@@@Z DD 019930522H
	DD	01H
	DD	FLAT:__unwindtable$?CDFind_ShootingStar@CCandlePattern@@QAEHPAU_STCANDLE_DATA@@PAVCObject@@@Z
	DD	2 DUP(00H)
	DD	2 DUP(00H)
	DD	00H
	DD	01H
xdata$x	ENDS
;	COMDAT xdata$x
xdata$x	SEGMENT
__unwindtable$?CDFind_InvertedHammer@CCandlePattern@@QAEHPAU_STCANDLE_DATA@@PAVCObject@@@Z DD 0ffffffffH
	DD	FLAT:__unwindfunclet$?CDFind_InvertedHammer@CCandlePattern@@QAEHPAU_STCANDLE_DATA@@PAVCObject@@@Z$0
__ehfuncinfo$?CDFind_InvertedHammer@CCandlePattern@@QAEHPAU_STCANDLE_DATA@@PAVCObject@@@Z DD 019930522H
	DD	01H
	DD	FLAT:__unwindtable$?CDFind_InvertedHammer@CCandlePattern@@QAEHPAU_STCANDLE_DATA@@PAVCObject@@@Z
	DD	2 DUP(00H)
	DD	2 DUP(00H)
	DD	00H
	DD	01H
xdata$x	ENDS
;	COMDAT xdata$x
xdata$x	SEGMENT
__unwindtable$?CDFind_HangingMan@CCandlePattern@@QAEHPAU_STCANDLE_DATA@@PAVCObject@@@Z DD 0ffffffffH
	DD	FLAT:__unwindfunclet$?CDFind_HangingMan@CCandlePattern@@QAEHPAU_STCANDLE_DATA@@PAVCObject@@@Z$0
__ehfuncinfo$?CDFind_HangingMan@CCandlePattern@@QAEHPAU_STCANDLE_DATA@@PAVCObject@@@Z DD 019930522H
	DD	01H
	DD	FLAT:__unwindtable$?CDFind_HangingMan@CCandlePattern@@QAEHPAU_STCANDLE_DATA@@PAVCObject@@@Z
	DD	2 DUP(00H)
	DD	2 DUP(00H)
	DD	00H
	DD	01H
xdata$x	ENDS
;	COMDAT xdata$x
xdata$x	SEGMENT
__unwindtable$?CDFind_Hammer@CCandlePattern@@QAEHPAU_STCANDLE_DATA@@PAVCObject@@@Z DD 0ffffffffH
	DD	FLAT:__unwindfunclet$?CDFind_Hammer@CCandlePattern@@QAEHPAU_STCANDLE_DATA@@PAVCObject@@@Z$0
__ehfuncinfo$?CDFind_Hammer@CCandlePattern@@QAEHPAU_STCANDLE_DATA@@PAVCObject@@@Z DD 019930522H
	DD	01H
	DD	FLAT:__unwindtable$?CDFind_Hammer@CCandlePattern@@QAEHPAU_STCANDLE_DATA@@PAVCObject@@@Z
	DD	2 DUP(00H)
	DD	2 DUP(00H)
	DD	00H
	DD	01H
xdata$x	ENDS
; Function compile flags: /Ogtp
; File C:\Program Files (x86)\Microsoft Visual Studio\2019\Community\VC\Tools\MSVC\14.29.30133\atlmfc\include\afxtempl.h
;	COMDAT ?SetAtGrow@?$CArray@PAVCCandlePatternData@@PAV1@@@QAEXHPAVCCandlePatternData@@@Z
_TEXT	SEGMENT
_nIndex$ = 8						; size = 4
_newElement$ = 12					; size = 4
?SetAtGrow@?$CArray@PAVCCandlePatternData@@PAV1@@@QAEXHPAVCCandlePatternData@@@Z PROC ; CArray<CCandlePatternData *,CCandlePatternData *>::SetAtGrow, COMDAT
; _this$ = ecx

; 534  : {

  00000	55		 push	 ebp
  00001	8b ec		 mov	 ebp, esp
  00003	56		 push	 esi

; 535  : 	ASSERT_VALID(this);
; 536  : 	ASSERT(nIndex >= 0);
; 537  : 
; 538  : 	if(nIndex < 0)

  00004	8b 75 08	 mov	 esi, DWORD PTR _nIndex$[ebp]
  00007	57		 push	 edi
  00008	8b f9		 mov	 edi, ecx
  0000a	85 f6		 test	 esi, esi
  0000c	78 1f		 js	 SHORT $LN7@SetAtGrow

; 540  : 
; 541  : 	if (nIndex >= m_nSize)

  0000e	3b 77 08	 cmp	 esi, DWORD PTR [edi+8]
  00011	7c 0b		 jl	 SHORT $LN3@SetAtGrow

; 542  : 		SetSize(nIndex+1, -1);

  00013	6a ff		 push	 -1
  00015	8d 46 01	 lea	 eax, DWORD PTR [esi+1]
  00018	50		 push	 eax
  00019	e8 00 00 00 00	 call	 ?SetSize@?$CArray@PAVCCandlePatternData@@PAV1@@@QAEXHH@Z ; CArray<CCandlePatternData *,CCandlePatternData *>::SetSize
$LN3@SetAtGrow:

; 543  : 	m_pData[nIndex] = newElement;

  0001e	8b 4f 04	 mov	 ecx, DWORD PTR [edi+4]
  00021	8b 45 0c	 mov	 eax, DWORD PTR _newElement$[ebp]
  00024	5f		 pop	 edi
  00025	89 04 b1	 mov	 DWORD PTR [ecx+esi*4], eax
  00028	5e		 pop	 esi

; 544  : }

  00029	5d		 pop	 ebp
  0002a	c2 08 00	 ret	 8
$LN7@SetAtGrow:

; 539  : 		AfxThrowInvalidArgException();

  0002d	e8 00 00 00 00	 call	 ?AfxThrowInvalidArgException@@YGXXZ ; AfxThrowInvalidArgException
$LN5@SetAtGrow:
  00032	cc		 int	 3
?SetAtGrow@?$CArray@PAVCCandlePatternData@@PAV1@@@QAEXHPAVCCandlePatternData@@@Z ENDP ; CArray<CCandlePatternData *,CCandlePatternData *>::SetAtGrow
_TEXT	ENDS
; Function compile flags: /Ogtp
; File C:\Program Files (x86)\Microsoft Visual Studio\2019\Community\VC\Tools\MSVC\14.29.30133\atlmfc\include\afxtempl.h
; File C:\Program Files (x86)\Windows Kits\10\Include\10.0.22000.0\ucrt\corecrt_memcpy_s.h
; File C:\Program Files (x86)\Microsoft Visual Studio\2019\Community\VC\Tools\MSVC\14.29.30133\atlmfc\include\afxtempl.h
; File C:\Program Files (x86)\Windows Kits\10\Include\10.0.22000.0\ucrt\corecrt_memcpy_s.h
; File C:\Program Files (x86)\Microsoft Visual Studio\2019\Community\VC\Tools\MSVC\14.29.30133\atlmfc\include\afx.h
; File C:\Program Files (x86)\Microsoft Visual Studio\2019\Community\VC\Tools\MSVC\14.29.30133\atlmfc\include\afxtempl.h
;	COMDAT ?SetSize@?$CArray@PAVCCandlePatternData@@PAV1@@@QAEXHH@Z
_TEXT	SEGMENT
__N$1$ = -8						; size = 4
__S1max$1$ = -4						; size = 4
__S2$1$ = 8						; size = 4
_nNewSize$ = 8						; size = 4
_pNewData$1$ = 12					; size = 4
_nGrowBy$ = 12						; size = 4
?SetSize@?$CArray@PAVCCandlePatternData@@PAV1@@@QAEXHH@Z PROC ; CArray<CCandlePatternData *,CCandlePatternData *>::SetSize, COMDAT
; _this$ = ecx

; 368  : {

  00000	55		 push	 ebp
  00001	8b ec		 mov	 ebp, esp
  00003	83 ec 08	 sub	 esp, 8
  00006	53		 push	 ebx
  00007	56		 push	 esi

; 369  : 	ASSERT_VALID(this);
; 370  : 	ASSERT(nNewSize >= 0);
; 371  : 
; 372  : 	if(nNewSize < 0 )

  00008	8b 75 08	 mov	 esi, DWORD PTR _nNewSize$[ebp]
  0000b	8b d9		 mov	 ebx, ecx
  0000d	57		 push	 edi
  0000e	85 f6		 test	 esi, esi
  00010	0f 88 9a 01 00
	00		 js	 $LN56@SetSize

; 373  : 		AfxThrowInvalidArgException();
; 374  : 
; 375  : 	if (nGrowBy >= 0)

  00016	8b 45 0c	 mov	 eax, DWORD PTR _nGrowBy$[ebp]
  00019	85 c0		 test	 eax, eax
  0001b	78 03		 js	 SHORT $LN82@SetSize

; 376  : 		m_nGrowBy = nGrowBy;  // set new size

  0001d	89 43 10	 mov	 DWORD PTR [ebx+16], eax
$LN82@SetSize:

; 377  : 
; 378  : 	if (nNewSize == 0)

  00020	8b 4b 04	 mov	 ecx, DWORD PTR [ebx+4]
  00023	85 f6		 test	 esi, esi
  00025	75 27		 jne	 SHORT $LN19@SetSize

; 379  : 	{
; 380  : 		// shrink to nothing
; 381  : 		if (m_pData != NULL)

  00027	85 c9		 test	 ecx, ecx
  00029	74 0c		 je	 SHORT $LN21@SetSize

; 382  : 		{
; 383  : 			for( int i = 0; i < m_nSize; i++ )
; 384  : 				(m_pData + i)->~TYPE();
; 385  : 			delete[] (BYTE*)m_pData;

  0002b	51		 push	 ecx
  0002c	e8 00 00 00 00	 call	 ??_V@YAXPAX@Z		; operator delete[]
  00031	83 c4 04	 add	 esp, 4

; 386  : 			m_pData = NULL;

  00034	89 73 04	 mov	 DWORD PTR [ebx+4], esi
$LN21@SetSize:

; 475  : }

  00037	5f		 pop	 edi
  00038	5e		 pop	 esi
  00039	c7 43 0c 00 00
	00 00		 mov	 DWORD PTR [ebx+12], 0
  00040	c7 43 08 00 00
	00 00		 mov	 DWORD PTR [ebx+8], 0
  00047	5b		 pop	 ebx
  00048	8b e5		 mov	 esp, ebp
  0004a	5d		 pop	 ebp
  0004b	c2 08 00	 ret	 8
$LN19@SetSize:

; 387  : 		}
; 388  : 		m_nSize = m_nMaxSize = 0;
; 389  : 	}
; 390  : 	else if (m_pData == NULL)

  0004e	85 c9		 test	 ecx, ecx
  00050	75 36		 jne	 SHORT $LN22@SetSize

; 391  : 	{
; 392  : 		// create buffer big enough to hold number of requested elements or
; 393  : 		// m_nGrowBy elements, whichever is larger.
; 394  : #ifdef SIZE_T_MAX
; 395  : 		ASSERT(nNewSize <= SIZE_T_MAX/sizeof(TYPE));    // no overflow
; 396  : #endif
; 397  : 		size_t nAllocSize = __max(nNewSize, m_nGrowBy);

  00052	8b 7b 10	 mov	 edi, DWORD PTR [ebx+16]
  00055	3b f7		 cmp	 esi, edi
  00057	0f 4f fe	 cmovg	 edi, esi

; 398  : 		m_pData = (TYPE*) new BYTE[(size_t)nAllocSize * sizeof(TYPE)];

  0005a	8d 34 bd 00 00
	00 00		 lea	 esi, DWORD PTR [edi*4]
  00061	56		 push	 esi
  00062	e8 00 00 00 00	 call	 ??_U@YAPAXI@Z		; operator new[]

; 399  : 		memset((void*)m_pData, 0, (size_t)nAllocSize * sizeof(TYPE));

  00067	56		 push	 esi
  00068	6a 00		 push	 0
  0006a	50		 push	 eax
  0006b	89 43 04	 mov	 DWORD PTR [ebx+4], eax
  0006e	e8 00 00 00 00	 call	 _memset

; 400  : 		for( int i = 0; i < nNewSize; i++ )
; 401  : #pragma push_macro("new")
; 402  : #undef new
; 403  : 			::new( (void*)( m_pData + i ) ) TYPE;
; 404  : #pragma pop_macro("new")
; 405  : 		m_nSize = nNewSize;

  00073	8b 45 08	 mov	 eax, DWORD PTR _nNewSize$[ebp]
  00076	83 c4 10	 add	 esp, 16			; 00000010H

; 475  : }

  00079	89 7b 0c	 mov	 DWORD PTR [ebx+12], edi
  0007c	89 43 08	 mov	 DWORD PTR [ebx+8], eax
  0007f	5f		 pop	 edi
  00080	5e		 pop	 esi
  00081	5b		 pop	 ebx
  00082	8b e5		 mov	 esp, ebp
  00084	5d		 pop	 ebp
  00085	c2 08 00	 ret	 8
$LN22@SetSize:

; 406  : 		m_nMaxSize = nAllocSize;
; 407  : 	}
; 408  : 	else if (nNewSize <= m_nMaxSize)

  00088	8b 7b 0c	 mov	 edi, DWORD PTR [ebx+12]
  0008b	3b f7		 cmp	 esi, edi
  0008d	7f 29		 jg	 SHORT $LN24@SetSize

; 409  : 	{
; 410  : 		// it fits
; 411  : 		if (nNewSize > m_nSize)

  0008f	8b 53 08	 mov	 edx, DWORD PTR [ebx+8]
  00092	3b f2		 cmp	 esi, edx
  00094	7e 16		 jle	 SHORT $LN26@SetSize

; 412  : 		{
; 413  : 			// initialize the new elements
; 414  : 			memset((void*)(m_pData + m_nSize), 0, (size_t)(nNewSize-m_nSize) * sizeof(TYPE));

  00096	8b c6		 mov	 eax, esi
  00098	2b c2		 sub	 eax, edx
  0009a	c1 e0 02	 shl	 eax, 2
  0009d	50		 push	 eax
  0009e	8d 04 91	 lea	 eax, DWORD PTR [ecx+edx*4]
  000a1	6a 00		 push	 0
  000a3	50		 push	 eax
  000a4	e8 00 00 00 00	 call	 _memset
  000a9	83 c4 0c	 add	 esp, 12			; 0000000cH
$LN26@SetSize:

; 415  : 			for( int i = 0; i < nNewSize-m_nSize; i++ )
; 416  : #pragma push_macro("new")
; 417  : #undef new
; 418  : 				::new( (void*)( m_pData + m_nSize + i ) ) TYPE;
; 419  : #pragma pop_macro("new")
; 420  : 		}
; 421  : 		else if (m_nSize > nNewSize)
; 422  : 		{
; 423  : 			// destroy the old elements
; 424  : 			for( int i = 0; i < m_nSize-nNewSize; i++ )
; 425  : 				(m_pData + nNewSize + i)->~TYPE();
; 426  : 		}
; 427  : 		m_nSize = nNewSize;

  000ac	5f		 pop	 edi
  000ad	89 73 08	 mov	 DWORD PTR [ebx+8], esi

; 475  : }

  000b0	5e		 pop	 esi
  000b1	5b		 pop	 ebx
  000b2	8b e5		 mov	 esp, ebp
  000b4	5d		 pop	 ebp
  000b5	c2 08 00	 ret	 8
$LN24@SetSize:

; 428  : 	}
; 429  : 	else
; 430  : 	{
; 431  : 		// otherwise, grow array
; 432  : 		nGrowBy = m_nGrowBy;

  000b8	8b 43 10	 mov	 eax, DWORD PTR [ebx+16]

; 433  : 		if (nGrowBy == 0)

  000bb	85 c0		 test	 eax, eax
  000bd	75 22		 jne	 SHORT $LN37@SetSize

; 434  : 		{
; 435  : 			// heuristically determine growth when nGrowBy == 0
; 436  : 			//  (this avoids heap fragmentation in many situations)
; 437  : 			nGrowBy = m_nSize / 8;

  000bf	8b 43 08	 mov	 eax, DWORD PTR [ebx+8]
  000c2	99		 cdq
  000c3	83 e2 07	 and	 edx, 7
  000c6	03 c2		 add	 eax, edx
  000c8	c1 f8 03	 sar	 eax, 3

; 438  : 			nGrowBy = (nGrowBy < 4) ? 4 : ((nGrowBy > 1024) ? 1024 : nGrowBy);

  000cb	83 f8 04	 cmp	 eax, 4
  000ce	7d 07		 jge	 SHORT $LN36@SetSize
  000d0	b8 04 00 00 00	 mov	 eax, 4
  000d5	eb 0a		 jmp	 SHORT $LN37@SetSize
$LN36@SetSize:
  000d7	b9 00 04 00 00	 mov	 ecx, 1024		; 00000400H
  000dc	3b c1		 cmp	 eax, ecx
  000de	0f 4f c1	 cmovg	 eax, ecx
$LN37@SetSize:

; 439  : 		}
; 440  : 		INT_PTR nNewMax;
; 441  : 		if (nNewSize < m_nMaxSize + nGrowBy)

  000e1	03 f8		 add	 edi, eax
  000e3	3b f7		 cmp	 esi, edi
  000e5	7d 0b		 jge	 SHORT $LN30@SetSize

; 445  : 
; 446  : 		ASSERT(nNewMax >= m_nMaxSize);  // no wrap around
; 447  : 
; 448  : 		if(nNewMax  < m_nMaxSize)

  000e7	3b 7b 0c	 cmp	 edi, DWORD PTR [ebx+12]
  000ea	0f 8c c0 00 00
	00		 jl	 $LN56@SetSize
  000f0	eb 02		 jmp	 SHORT $LN32@SetSize
$LN30@SetSize:

; 442  : 			nNewMax = m_nMaxSize + nGrowBy;  // granularity
; 443  : 		else
; 444  : 			nNewMax = nNewSize;  // no slush

  000f2	8b fe		 mov	 edi, esi
$LN32@SetSize:

; 449  : 			AfxThrowInvalidArgException();
; 450  : 
; 451  : #ifdef SIZE_T_MAX
; 452  : 		ASSERT(nNewMax <= SIZE_T_MAX/sizeof(TYPE)); // no overflow
; 453  : #endif
; 454  : 		TYPE* pNewData = (TYPE*) new BYTE[(size_t)nNewMax * sizeof(TYPE)];

  000f4	8d 04 bd 00 00
	00 00		 lea	 eax, DWORD PTR [edi*4]
  000fb	50		 push	 eax
  000fc	89 45 fc	 mov	 DWORD PTR __S1max$1$[ebp], eax
  000ff	e8 00 00 00 00	 call	 ??_U@YAPAXI@Z		; operator new[]

; 455  : 
; 456  : 		// copy new data from old
; 457  : 		::ATL::Checked::memcpy_s(pNewData, (size_t)nNewMax * sizeof(TYPE),

  00104	8b 4b 08	 mov	 ecx, DWORD PTR [ebx+8]
  00107	83 c4 04	 add	 esp, 4
  0010a	8b 53 04	 mov	 edx, DWORD PTR [ebx+4]
  0010d	c1 e1 02	 shl	 ecx, 2
  00110	89 45 0c	 mov	 DWORD PTR _pNewData$1$[ebp], eax
  00113	89 4d f8	 mov	 DWORD PTR __N$1$[ebp], ecx
  00116	89 55 08	 mov	 DWORD PTR __S2$1$[ebp], edx
; File C:\Program Files (x86)\Windows Kits\10\Include\10.0.22000.0\ucrt\corecrt_memcpy_s.h

; 46   :         if (_SourceSize == 0)

  00119	85 c9		 test	 ecx, ecx
  0011b	74 20		 je	 SHORT $LN54@SetSize

; 47   :         {
; 48   :             return 0;
; 49   :         }
; 50   : 
; 51   :         _CRT_MEMCPY_S_VALIDATE_RETURN_ERRCODE(_Destination != NULL, EINVAL);

  0011d	85 c0		 test	 eax, eax
  0011f	74 7d		 je	 SHORT $LN84@SetSize

; 52   :         if (_Source == NULL || _DestinationSize < _SourceSize)

  00121	85 d2		 test	 edx, edx
  00123	74 51		 je	 SHORT $LN76@SetSize
  00125	8d 14 bd 00 00
	00 00		 lea	 edx, DWORD PTR [edi*4]
  0012c	3b d1		 cmp	 edx, ecx
  0012e	72 46		 jb	 SHORT $LN76@SetSize

; 58   : 
; 59   :             // Unreachable, but required to suppress /analyze warnings:
; 60   :             return EINVAL;
; 61   :         }
; 62   :         memcpy(_Destination, _Source, _SourceSize);

  00130	51		 push	 ecx
  00131	ff 75 08	 push	 DWORD PTR __S2$1$[ebp]
  00134	50		 push	 eax
  00135	e8 00 00 00 00	 call	 _memcpy
  0013a	83 c4 0c	 add	 esp, 12			; 0000000cH
$LN54@SetSize:
; File C:\Program Files (x86)\Microsoft Visual Studio\2019\Community\VC\Tools\MSVC\14.29.30133\atlmfc\include\afxtempl.h

; 462  : 		memset((void*)(pNewData + m_nSize), 0, (size_t)(nNewSize-m_nSize) * sizeof(TYPE));

  0013d	8b 4b 08	 mov	 ecx, DWORD PTR [ebx+8]
  00140	8b c6		 mov	 eax, esi
  00142	2b c1		 sub	 eax, ecx
  00144	c1 e0 02	 shl	 eax, 2
  00147	50		 push	 eax
  00148	8b 45 0c	 mov	 eax, DWORD PTR _pNewData$1$[ebp]
  0014b	6a 00		 push	 0
  0014d	8d 04 88	 lea	 eax, DWORD PTR [eax+ecx*4]
  00150	50		 push	 eax
  00151	e8 00 00 00 00	 call	 _memset

; 463  : 		for( int i = 0; i < nNewSize-m_nSize; i++ )
; 464  : #pragma push_macro("new")
; 465  : #undef new
; 466  : 			::new( (void*)( pNewData + m_nSize + i ) ) TYPE;
; 467  : #pragma pop_macro("new")
; 468  : 
; 469  : 		// get rid of old stuff (note: no destructors called)
; 470  : 		delete[] (BYTE*)m_pData;

  00156	ff 73 04	 push	 DWORD PTR [ebx+4]
  00159	e8 00 00 00 00	 call	 ??_V@YAXPAX@Z		; operator delete[]

; 471  : 		m_pData = pNewData;

  0015e	8b 45 0c	 mov	 eax, DWORD PTR _pNewData$1$[ebp]
  00161	83 c4 10	 add	 esp, 16			; 00000010H

; 475  : }

  00164	89 7b 0c	 mov	 DWORD PTR [ebx+12], edi
  00167	89 73 08	 mov	 DWORD PTR [ebx+8], esi
  0016a	89 43 04	 mov	 DWORD PTR [ebx+4], eax
  0016d	5f		 pop	 edi
  0016e	5e		 pop	 esi
  0016f	5b		 pop	 ebx
  00170	8b e5		 mov	 esp, ebp
  00172	5d		 pop	 ebp
  00173	c2 08 00	 ret	 8
$LN76@SetSize:
; File C:\Program Files (x86)\Windows Kits\10\Include\10.0.22000.0\ucrt\corecrt_memcpy_s.h

; 54   :             memset(_Destination, 0, _DestinationSize);

  00176	8b 5d fc	 mov	 ebx, DWORD PTR __S1max$1$[ebp]
  00179	53		 push	 ebx
  0017a	6a 00		 push	 0
  0017c	50		 push	 eax
  0017d	e8 00 00 00 00	 call	 _memset
  00182	83 c4 0c	 add	 esp, 12			; 0000000cH

; 55   : 
; 56   :             _CRT_MEMCPY_S_VALIDATE_RETURN_ERRCODE(_Source != NULL,                 EINVAL);

  00185	83 7d 08 00	 cmp	 DWORD PTR __S2$1$[ebp], 0
  00189	74 13		 je	 SHORT $LN84@SetSize

; 57   :             _CRT_MEMCPY_S_VALIDATE_RETURN_ERRCODE(_DestinationSize >= _SourceSize, ERANGE);

  0018b	3b 5d f8	 cmp	 ebx, DWORD PTR __N$1$[ebp]
  0018e	73 20		 jae	 SHORT $LN56@SetSize
  00190	ff 15 00 00 00
	00		 call	 DWORD PTR __imp___errno
  00196	c7 00 22 00 00
	00		 mov	 DWORD PTR [eax], 34	; 00000022H
  0019c	eb 0c		 jmp	 SHORT $LN85@SetSize
$LN84@SetSize:
; File C:\Program Files (x86)\Microsoft Visual Studio\2019\Community\VC\Tools\MSVC\14.29.30133\atlmfc\include\afx.h

; 517  : 		AfxThrowInvalidArgException();

  0019e	ff 15 00 00 00
	00		 call	 DWORD PTR __imp___errno
  001a4	c7 00 16 00 00
	00		 mov	 DWORD PTR [eax], 22	; 00000016H
$LN85@SetSize:
  001aa	ff 15 00 00 00
	00		 call	 DWORD PTR __imp___invalid_parameter_noinfo
$LN56@SetSize:
  001b0	e8 00 00 00 00	 call	 ?AfxThrowInvalidArgException@@YGXXZ ; AfxThrowInvalidArgException
$LN83@SetSize:
  001b5	cc		 int	 3
?SetSize@?$CArray@PAVCCandlePatternData@@PAV1@@@QAEXHH@Z ENDP ; CArray<CCandlePatternData *,CCandlePatternData *>::SetSize
_TEXT	ENDS
; Function compile flags: /Ogtp
; File D:\git\src\IBK\IBK_DRFN\ProjSrc\SrcChartEx\ChartAddIn\ChartPatternAddIn\Include_Chart\Dll_Load\IMetaTable.h
; File C:\Program Files (x86)\Microsoft Visual Studio\2019\Community\VC\Tools\MSVC\14.29.30133\atlmfc\include\afxwin1.inl
; File D:\git\src\IBK\IBK_DRFN\ProjSrc\SrcChartEx\ChartAddIn\ChartPatternAddIn\Include_Chart\Dll_Load\IMetaTable.h
;	COMDAT ??1CMultiLanguageResourceSetter@@QAE@XZ
_TEXT	SEGMENT
__$EHRec$ = -12						; size = 12
??1CMultiLanguageResourceSetter@@QAE@XZ PROC		; CMultiLanguageResourceSetter::~CMultiLanguageResourceSetter, COMDAT
; _this$ = ecx

; 1035 : 	{

  00000	55		 push	 ebp
  00001	8b ec		 mov	 ebp, esp
  00003	6a ff		 push	 -1
  00005	68 00 00 00 00	 push	 __ehhandler$??1CMultiLanguageResourceSetter@@QAE@XZ
  0000a	64 a1 00 00 00
	00		 mov	 eax, DWORD PTR fs:0
  00010	50		 push	 eax
  00011	56		 push	 esi
  00012	a1 00 00 00 00	 mov	 eax, DWORD PTR ___security_cookie
  00017	33 c5		 xor	 eax, ebp
  00019	50		 push	 eax
  0001a	8d 45 f4	 lea	 eax, DWORD PTR __$EHRec$[ebp]
  0001d	64 a3 00 00 00
	00		 mov	 DWORD PTR fs:0, eax

; 1036 : 		AfxSetResourceHandle( m_hInstance);

  00023	8b 31		 mov	 esi, DWORD PTR [ecx]
; File C:\Program Files (x86)\Microsoft Visual Studio\2019\Community\VC\Tools\MSVC\14.29.30133\atlmfc\include\afxwin1.inl

; 27   : 	{ ASSERT(hInstResource != NULL); afxCurrentResourceHandle = hInstResource; }

  00025	e8 00 00 00 00	 call	 ?AfxGetModuleState@@YGPAVAFX_MODULE_STATE@@XZ ; AfxGetModuleState
  0002a	89 70 0c	 mov	 DWORD PTR [eax+12], esi
; File D:\git\src\IBK\IBK_DRFN\ProjSrc\SrcChartEx\ChartAddIn\ChartPatternAddIn\Include_Chart\Dll_Load\IMetaTable.h

; 1037 : 	}

  0002d	8b 4d f4	 mov	 ecx, DWORD PTR __$EHRec$[ebp]
  00030	64 89 0d 00 00
	00 00		 mov	 DWORD PTR fs:0, ecx
  00037	59		 pop	 ecx
  00038	5e		 pop	 esi
  00039	8b e5		 mov	 esp, ebp
  0003b	5d		 pop	 ebp
  0003c	c3		 ret	 0
  0003d	cc		 int	 3
  0003e	cc		 int	 3
  0003f	cc		 int	 3
  00040	cc		 int	 3
  00041	cc		 int	 3
_TEXT	ENDS
;	COMDAT text$x
text$x	SEGMENT
__ehhandler$??1CMultiLanguageResourceSetter@@QAE@XZ:
  00000	90		 npad	 1
  00001	90		 npad	 1
  00002	8b 54 24 08	 mov	 edx, DWORD PTR [esp+8]
  00006	8d 42 0c	 lea	 eax, DWORD PTR [edx+12]
  00009	8b 4a f8	 mov	 ecx, DWORD PTR [edx-8]
  0000c	33 c8		 xor	 ecx, eax
  0000e	e8 00 00 00 00	 call	 @__security_check_cookie@4
  00013	b8 00 00 00 00	 mov	 eax, OFFSET __ehfuncinfo$??1CMultiLanguageResourceSetter@@QAE@XZ
  00018	e9 00 00 00 00	 jmp	 ___CxxFrameHandler3
text$x	ENDS
??1CMultiLanguageResourceSetter@@QAE@XZ ENDP		; CMultiLanguageResourceSetter::~CMultiLanguageResourceSetter
; Function compile flags: /Ogtp
; File C:\Program Files (x86)\Microsoft Visual Studio\2019\Community\VC\Tools\MSVC\14.29.30133\atlmfc\include\afx.inl
;	COMDAT ??_GCCandlePattern@@UAEPAXI@Z
_TEXT	SEGMENT
___flags$ = 8						; size = 4
??_GCCandlePattern@@UAEPAXI@Z PROC			; CCandlePattern::`scalar deleting destructor', COMDAT
; _this$ = ecx
  00000	55		 push	 ebp
  00001	8b ec		 mov	 ebp, esp
  00003	8b 45 08	 mov	 eax, DWORD PTR ___flags$[ebp]
  00006	56		 push	 esi
  00007	8b f1		 mov	 esi, ecx
  00009	c7 06 00 00 00
	00		 mov	 DWORD PTR [esi], OFFSET ??_7CCandlePattern@@6B@
  0000f	a8 01		 test	 al, 1
  00011	74 1f		 je	 SHORT $LN9@scalar
  00013	a8 04		 test	 al, 4
  00015	75 10		 jne	 SHORT $LN3@scalar

; 112  : 	{ ::operator delete(p); }

  00017	56		 push	 esi
  00018	e8 00 00 00 00	 call	 ??3@YAXPAX@Z		; operator delete
  0001d	83 c4 04	 add	 esp, 4
  00020	8b c6		 mov	 eax, esi
  00022	5e		 pop	 esi
  00023	5d		 pop	 ebp
  00024	c2 04 00	 ret	 4
$LN3@scalar:
  00027	6a 08		 push	 8
  00029	56		 push	 esi
  0002a	e8 00 00 00 00	 call	 ?__global_delete@@YAXPAXI@Z ; __global_delete
  0002f	83 c4 08	 add	 esp, 8
$LN9@scalar:
  00032	8b c6		 mov	 eax, esi
  00034	5e		 pop	 esi
  00035	5d		 pop	 ebp
  00036	c2 04 00	 ret	 4
??_GCCandlePattern@@UAEPAXI@Z ENDP			; CCandlePattern::`scalar deleting destructor'
_TEXT	ENDS
; Function compile flags: /Ogtp
; File D:\git\src\IBK\IBK_DRFN\ProjSrc\SrcChartEx\ChartAddIn\ChartPatternAddIn\CandlePattern.cpp
;	COMDAT ?GetCandlePatternHelpName@CCandlePattern@@QAE?AV?$CStringT@DV?$StrTraitMFC_DLL@DV?$ChTraitsCRT@D@ATL@@@@@ATL@@H@Z
_TEXT	SEGMENT
$T2 = -16						; size = 4
__$EHRec$ = -12						; size = 12
___$ReturnUdt$ = 8					; size = 4
_nCandlePatternType$ = 12				; size = 4
?GetCandlePatternHelpName@CCandlePattern@@QAE?AV?$CStringT@DV?$StrTraitMFC_DLL@DV?$ChTraitsCRT@D@ATL@@@@@ATL@@H@Z PROC ; CCandlePattern::GetCandlePatternHelpName, COMDAT
; _this$ = ecx

; 4002 : {

  00000	55		 push	 ebp
  00001	8b ec		 mov	 ebp, esp
  00003	6a ff		 push	 -1
  00005	68 00 00 00 00	 push	 __ehhandler$?GetCandlePatternHelpName@CCandlePattern@@QAE?AV?$CStringT@DV?$StrTraitMFC_DLL@DV?$ChTraitsCRT@D@ATL@@@@@ATL@@H@Z
  0000a	64 a1 00 00 00
	00		 mov	 eax, DWORD PTR fs:0
  00010	50		 push	 eax
  00011	51		 push	 ecx
  00012	56		 push	 esi
  00013	a1 00 00 00 00	 mov	 eax, DWORD PTR ___security_cookie
  00018	33 c5		 xor	 eax, ebp
  0001a	50		 push	 eax
  0001b	8d 45 f4	 lea	 eax, DWORD PTR __$EHRec$[ebp]
  0001e	64 a3 00 00 00
	00		 mov	 DWORD PTR fs:0, eax
  00024	c7 45 f0 00 00
	00 00		 mov	 DWORD PTR $T2[ebp], 0

; 4003 : 	CString strCandlePatternName;

  0002b	8b 75 08	 mov	 esi, DWORD PTR ___$ReturnUdt$[ebp]
  0002e	8b ce		 mov	 ecx, esi
  00030	ff 15 00 00 00
	00		 call	 DWORD PTR __imp_??0?$CStringT@DV?$StrTraitMFC_DLL@DV?$ChTraitsCRT@D@ATL@@@@@ATL@@QAE@XZ

; 4194 : 		break;
; 4195 : 	}
; 4196 : 
; 4197 : 	return	strCandlePatternName;

  00036	68 00 00 00 00	 push	 OFFSET ??_C@_00CNPNBAHC@@
  0003b	8b ce		 mov	 ecx, esi
  0003d	c7 45 fc 00 00
	00 00		 mov	 DWORD PTR __$EHRec$[ebp+8], 0
  00044	c7 45 f0 01 00
	00 00		 mov	 DWORD PTR $T2[ebp], 1
  0004b	ff 15 00 00 00
	00		 call	 DWORD PTR __imp_??4?$CStringT@DV?$StrTraitMFC_DLL@DV?$ChTraitsCRT@D@ATL@@@@@ATL@@QAEAAV01@PBD@Z
  00051	8b 45 0c	 mov	 eax, DWORD PTR _nCandlePatternType$[ebp]
  00054	05 bf e0 ff ff	 add	 eax, -8001		; ffffe0bfH
  00059	83 f8 3d	 cmp	 eax, 61			; 0000003dH
  0005c	0f 87 40 02 00
	00		 ja	 $LN2@GetCandleP

; 4004 : 	strCandlePatternName =_T("");
; 4005 : 
; 4006 : 	// Get Pattern Name
; 4007 : 	switch (nCandlePatternType)

  00062	ff 24 85 00 00
	00 00		 jmp	 DWORD PTR $LN69@GetCandleP[eax*4]
$LN4@GetCandleP:

; 4008 : 	{
; 4009 : 	case CPTN_HAMMER:							// Hammer							()          		
; 4010 : 		strCandlePatternName = STR_HTML_HAMMER;							

  00069	68 00 00 00 00	 push	 OFFSET ??_C@_06CNCEEJPN@Hammer@

; 4011 : 		break;

  0006e	e9 27 02 00 00	 jmp	 $LN71@GetCandleP
$LN5@GetCandleP:

; 4012 : 	case CPTN_HANGINGMAN:						// Hanging Man						()                                                      
; 4013 : 		strCandlePatternName = STR_HTML_HANGINGMAN;						

  00073	68 00 00 00 00	 push	 OFFSET ??_C@_0L@FEIOIBPM@HangingMan@

; 4014 : 		break;

  00078	e9 1d 02 00 00	 jmp	 $LN71@GetCandleP
$LN6@GetCandleP:

; 4015 : 	case CPTN_INVERTEDHAMMER:					// Inverted Hammer					()                                                    
; 4016 : 		strCandlePatternName = STR_HTML_INVERTEDHAMMER;					

  0007d	68 00 00 00 00	 push	 OFFSET ??_C@_0P@CNANDPOE@InvertedHammer@

; 4017 : 		break;

  00082	e9 13 02 00 00	 jmp	 $LN71@GetCandleP
$LN7@GetCandleP:

; 4018 : 	case CPTN_SHOOTINGSTAR:						// Shooting Star					()                                                      
; 4019 : 		strCandlePatternName = STR_HTML_SHOOTINGSTAR;				

  00087	68 00 00 00 00	 push	 OFFSET ??_C@_0N@CLPFPDJD@Shootingstar@

; 4020 : 		break;

  0008c	e9 09 02 00 00	 jmp	 $LN71@GetCandleP
$LN8@GetCandleP:

; 4021 : 	case CPTN_BULLISH_BELTHOLDLINE:				// Bullish Belt Hold Line			()                                                  
; 4022 : 		strCandlePatternName = STR_HTML_BULLISH_BELTHOLDLINE;			

  00091	68 00 00 00 00	 push	 OFFSET ??_C@_0BE@BCBGEGJJ@Bullishbeltholdline@

; 4023 : 		break;

  00096	e9 ff 01 00 00	 jmp	 $LN71@GetCandleP
$LN9@GetCandleP:

; 4024 : 	case CPTN_BEARISH_BELTHOLDLINE:				// Bearish Belt Hold Line			()                                                  
; 4025 : 		strCandlePatternName = STR_HTML_BEARISH_BELTHOLDLINE;		

  0009b	68 00 00 00 00	 push	 OFFSET ??_C@_0BE@KEIKNDJD@Bearishbeltholdline@

; 4026 : 		break;

  000a0	e9 f5 01 00 00	 jmp	 $LN71@GetCandleP
$LN10@GetCandleP:

; 4027 : 	case CPTN_LONG_WHITEBODY:					// Long White Body					()                                                    
; 4028 : 		strCandlePatternName = STR_HTML_LONG_WHITEBODY;					

  000a5	68 00 00 00 00	 push	 OFFSET ??_C@_0O@BHJLPBNB@LongWhiteBody@

; 4029 : 		break;

  000aa	e9 eb 01 00 00	 jmp	 $LN71@GetCandleP
$LN11@GetCandleP:

; 4030 : 	case CPTN_LONG_BLACKBODY:					// Long Black Body					()                                                    
; 4031 : 		strCandlePatternName = STR_HTML_LONG_BLACKBODY;					

  000af	68 00 00 00 00	 push	 OFFSET ??_C@_0O@MAGGDCPE@LongBlackBody@

; 4032 : 		break;

  000b4	e9 e1 01 00 00	 jmp	 $LN71@GetCandleP
$LN12@GetCandleP:

; 4033 : 	case CPTN_BULLISH_HARAMI:					// Bullish Harami					()                                                  
; 4034 : 		strCandlePatternName = STR_HTML_BULLISH_HARAMI;					

  000b9	68 00 00 00 00	 push	 OFFSET ??_C@_0O@PJPIHIJE@BullishHarami@

; 4035 : 		break;

  000be	e9 d7 01 00 00	 jmp	 $LN71@GetCandleP
$LN13@GetCandleP:

; 4036 : 	case CPTN_BEARISH_HARAMI:					// Bearish Harami					()                                                  
; 4037 : 		strCandlePatternName = STR_HTML_BEARISH_HARAMI;					

  000c3	68 00 00 00 00	 push	 OFFSET ??_C@_0O@CPNADAGN@BearishHarami@

; 4038 : 		break;

  000c8	e9 cd 01 00 00	 jmp	 $LN71@GetCandleP
$LN14@GetCandleP:

; 4039 : 	case CPTN_BULLISH_ENGULFING:				// Bullish Engulfing				()                                                  
; 4040 : 		strCandlePatternName = STR_HTML_BULLISH_ENGULFING;				

  000cd	68 00 00 00 00	 push	 OFFSET ??_C@_0BB@EEMALNEB@BullishEngulfing@

; 4041 : 		break;

  000d2	e9 c3 01 00 00	 jmp	 $LN71@GetCandleP
$LN15@GetCandleP:

; 4042 : 	case CPTN_BEARISH_ENGULFING:				// Bearish Engulfing				()                                                  
; 4043 : 		strCandlePatternName = STR_HTML_BEARISH_ENGULFING;				

  000d7	68 00 00 00 00	 push	 OFFSET ??_C@_0BB@PDMAJIDP@BearishEngulfing@

; 4044 : 		break;

  000dc	e9 b9 01 00 00	 jmp	 $LN71@GetCandleP
$LN16@GetCandleP:

; 4045 : 	case CPTN_BULLISH_COUNTERATTACKLINE:		// Bullish Counterattack Line		()                                                  
; 4046 : 		strCandlePatternName = STR_HTML_BULLISH_COUNTERATTACKLINE;		

  000e1	68 00 00 00 00	 push	 OFFSET ??_C@_0BJ@IJEDFAPP@BullishCounterattackline@

; 4047 : 		break;

  000e6	e9 af 01 00 00	 jmp	 $LN71@GetCandleP
$LN17@GetCandleP:

; 4048 : 	case CPTN_BEARISH_COUNTERATTACKLINE:		// Bearish Counterattack Line		()                                                  
; 4049 : 		strCandlePatternName = STR_HTML_BEARISH_COUNTERATTACKLINE;		

  000eb	68 00 00 00 00	 push	 OFFSET ??_C@_0BJ@PPLBBGC@BearishCounterattackline@

; 4050 : 		break;

  000f0	e9 a5 01 00 00	 jmp	 $LN71@GetCandleP
$LN18@GetCandleP:

; 4051 : 	case CPTN_PIERCINGPATTERN:					// Piercing Pattern					()                                                      
; 4052 : 		strCandlePatternName = STR_HTML_PIERCINGPATTERN;				    

  000f5	68 00 00 00 00	 push	 OFFSET ??_C@_0BA@PKALIIEL@PiercingPattern@

; 4053 : 		break;

  000fa	e9 9b 01 00 00	 jmp	 $LN71@GetCandleP
$LN19@GetCandleP:

; 4054 : 	case CPTN_DARKCLOUDCOVER:					// Dark Cloud Cover					()                                                    
; 4055 : 		strCandlePatternName = STR_HTML_DARKCLOUDCOVER;					

  000ff	68 00 00 00 00	 push	 OFFSET ??_C@_0P@OJBMNKFG@DarkCloudCover@

; 4056 : 		break;

  00104	e9 91 01 00 00	 jmp	 $LN71@GetCandleP
$LN20@GetCandleP:

; 4057 : 	case CPTN_MORNINGSTAR:						// Morning Star						()                                                      
; 4058 : 		strCandlePatternName = STR_HTML_MORNINGSTAR;					    

  00109	68 00 00 00 00	 push	 OFFSET ??_C@_0M@EBPJGJJK@MorningStar@

; 4059 : 		break;

  0010e	e9 87 01 00 00	 jmp	 $LN71@GetCandleP
$LN21@GetCandleP:

; 4060 : 	case CPTN_EVENINGSTAR:						// Evening Star						()                                                      
; 4061 : 		strCandlePatternName = STR_HTML_EVENINGSTAR;				    

  00113	68 00 00 00 00	 push	 OFFSET ??_C@_0M@FHDMHPLL@EveningStar@

; 4062 : 		break;

  00118	e9 7d 01 00 00	 jmp	 $LN71@GetCandleP
$LN22@GetCandleP:

; 4063 : 	case CPTN_MORNINTDOJISTAR:					// Morning Doji Star				()                                                  
; 4064 : 		strCandlePatternName = STR_HTML_MORNINTDOJISTAR;				    

  0011d	68 00 00 00 00	 push	 OFFSET ??_C@_0BA@BMMKEGEJ@MorningDojiStar@

; 4065 : 		break;

  00122	e9 73 01 00 00	 jmp	 $LN71@GetCandleP
$LN23@GetCandleP:

; 4066 : 	case CPTN_EVENINGDOJISTAR:					// Evening Doji Star				()                                                  
; 4067 : 		strCandlePatternName = STR_HTML_EVENINGDOJISTAR;				    

  00127	68 00 00 00 00	 push	 OFFSET ??_C@_0BA@FOLGMHIK@EveningDojiStar@

; 4068 : 		break;

  0012c	e9 69 01 00 00	 jmp	 $LN71@GetCandleP
$LN24@GetCandleP:

; 4069 : 	case CPTN_ABANDONEDBABY_INDOWNTREND:		// Abandoned Baby In Downtrend		()                                                  
; 4070 : 		strCandlePatternName = STR_HTML_ABANDONEDBABY_INDOWNTREND;		

  00131	68 00 00 00 00	 push	 OFFSET ??_C@_0BJ@BKBKKPOD@Abandonedbabyindowntrend@

; 4071 : 		break;

  00136	e9 5f 01 00 00	 jmp	 $LN71@GetCandleP
$LN25@GetCandleP:

; 4072 : 	case CPTN_ABANDONEDBABY_INUPTREND:			// Abandoned Baby In Uptrend		()                                                  
; 4073 : 		strCandlePatternName = STR_HTML_ABANDONEDBABY_INUPTREND;		    

  0013b	68 00 00 00 00	 push	 OFFSET ??_C@_0BH@INHJHLFE@Abandonedbabyinuptrend@

; 4074 : 		break;

  00140	e9 55 01 00 00	 jmp	 $LN71@GetCandleP
$LN26@GetCandleP:

; 4075 : 	case CPTN_THREE_INSIDEUP:					// Three Indise Up					()                                              
; 4076 : 		strCandlePatternName = STR_HTML_THREE_INSIDEUP;					

  00145	68 00 00 00 00	 push	 OFFSET ??_C@_0O@PKAGPBEI@ThreeInsideUp@

; 4077 : 		break;

  0014a	e9 4b 01 00 00	 jmp	 $LN71@GetCandleP
$LN27@GetCandleP:

; 4078 : 	case CPTN_THREE_INSIDEDOWN:					// Three Indise Down				()                                              
; 4079 : 		strCandlePatternName = STR_HTML_THREE_INSIDEDOWN;			

  0014f	68 00 00 00 00	 push	 OFFSET ??_C@_0BA@MMOBBDIC@ThreeInsidedown@

; 4080 : 		break;

  00154	e9 41 01 00 00	 jmp	 $LN71@GetCandleP
$LN28@GetCandleP:

; 4081 : 	case CPTN_THREE_OUTSIDEUP:					// Three Outside Up					()                                              
; 4082 : 		strCandlePatternName = STR_HTML_THREE_OUTSIDEUP;				    

  00159	68 00 00 00 00	 push	 OFFSET ??_C@_0P@MKDMNAPD@ThreeOutsideup@

; 4083 : 		break;

  0015e	e9 37 01 00 00	 jmp	 $LN71@GetCandleP
$LN29@GetCandleP:

; 4084 : 	case CPTN_THREE_OUTSIDEDOWN:				// Three Outside Down				()                                              
; 4085 : 		strCandlePatternName = STR_HTML_THREE_OUTSIDEDOWN;				

  00163	68 00 00 00 00	 push	 OFFSET ??_C@_0BB@IHLJEEJF@ThreeOutsideDown@

; 4086 : 		break;

  00168	e9 2d 01 00 00	 jmp	 $LN71@GetCandleP
$LN30@GetCandleP:

; 4087 : 	case CPTN_UPSIDEGAPTWOCROWS_INUPTREND:		// Upside Gap Two Crows In Uptrend	()                                                    
; 4088 : 		strCandlePatternName = STR_HTML_UPSIDEGAPTWOCROWS_INUPTREND;	    

  0016d	68 00 00 00 00	 push	 OFFSET ??_C@_0BL@LGMFKHIH@Upsidegaptwocrowsinuptrend@

; 4089 : 		break;

  00172	e9 23 01 00 00	 jmp	 $LN71@GetCandleP
$LN31@GetCandleP:

; 4090 : 	case CPTN_THREE_WHITESOLDIER:				// Three White Soldier				()                                                      
; 4091 : 		strCandlePatternName = STR_HTML_THREE_WHITESOLDIER;				

  00177	68 00 00 00 00	 push	 OFFSET ??_C@_0BC@MLOEHEBN@Threewhitesolider@

; 4092 : 		break;

  0017c	e9 19 01 00 00	 jmp	 $LN71@GetCandleP
$LN32@GetCandleP:

; 4093 : 	case CPTN_THREE_BLACKCROW:					// Three Black Corws				()                                                      
; 4094 : 		strCandlePatternName = STR_HTML_THREE_BLACKCROW;				    

  00181	68 00 00 00 00	 push	 OFFSET ??_C@_0P@PCKOLE@ThreeBlackcrow@

; 4095 : 		break;

  00186	e9 0f 01 00 00	 jmp	 $LN71@GetCandleP
$LN33@GetCandleP:

; 4096 : 	case CPTN_STALLEDPATTERN:					// Stalled Pattern					()                                                      
; 4097 : 		strCandlePatternName = STR_HTML_STALLEDPATTERN;					

  0018b	68 00 00 00 00	 push	 OFFSET ??_C@_0P@JCEMDHFF@StalledPattern@

; 4098 : 		break;

  00190	e9 05 01 00 00	 jmp	 $LN71@GetCandleP
$LN34@GetCandleP:

; 4099 : 	case CPTN_ADVANCEBLOCK:						// Advance Block					()                                                      
; 4100 : 		strCandlePatternName = STR_HTML_ADVANCEBLOCK;					

  00195	68 00 00 00 00	 push	 OFFSET ??_C@_0N@DBLCNOJN@AdvanceBlock@

; 4101 : 		break;

  0019a	e9 fb 00 00 00	 jmp	 $LN71@GetCandleP
$LN35@GetCandleP:

; 4102 : 	case CPTN_UPSIDEGAP_TASUKI:					// Upside Gap Tasuki				()                                              
; 4103 : 		strCandlePatternName = STR_HTML_UPSIDEGAP_TASUKI;				

  0019f	68 00 00 00 00	 push	 OFFSET ??_C@_0BA@GAMIGEOK@UpsidegapTasuki@

; 4104 : 		break;

  001a4	e9 f1 00 00 00	 jmp	 $LN71@GetCandleP
$LN36@GetCandleP:

; 4105 : 	case CPTN_DNSIDEGAP_TASUKI:					// Downside Gap Tasuki				()                                              
; 4106 : 		strCandlePatternName = STR_HTML_DNSIDEGAP_TASUKI;				

  001a9	68 00 00 00 00	 push	 OFFSET ??_C@_0BC@LHKADBMB@DownwardgapTasuki@

; 4107 : 		break;

  001ae	e9 e7 00 00 00	 jmp	 $LN71@GetCandleP
$LN37@GetCandleP:

; 4108 : 	case CPTN_MATHOLD:							// Mat-Hold							()                                                      
; 4109 : 		strCandlePatternName = STR_HTML_MATHOLD;						    

  001b3	68 00 00 00 00	 push	 OFFSET ??_C@_08DCEAKMK@Mat?9hold@

; 4110 : 		break;

  001b8	e9 dd 00 00 00	 jmp	 $LN71@GetCandleP
$LN38@GetCandleP:

; 4111 : 	case CPTN_BULLISH_TRISTAR:					// Bullish Tri Star					()                                                
; 4112 : 		strCandlePatternName = STR_HTML_BULLISH_TRISTAR;				    

  001bd	68 00 00 00 00	 push	 OFFSET ??_C@_0P@GECEGHF@BullishTriStar@

; 4113 : 		break;

  001c2	e9 d3 00 00 00	 jmp	 $LN71@GetCandleP
$LN39@GetCandleP:

; 4114 : 	case CPTN_BEARISH_TRISTAR:					// Bearish Tri Star					()                                                
; 4115 : 		strCandlePatternName = STR_HTML_BEARISH_TRISTAR;				    

  001c7	68 00 00 00 00	 push	 OFFSET ??_C@_0P@MCPFCEIF@BearishTriStar@

; 4116 : 		break;

  001cc	e9 c9 00 00 00	 jmp	 $LN71@GetCandleP
$LN40@GetCandleP:

; 4117 : 	case CPTN_UNIQUETHREERIVERBOTTOM:			// Unique Three River Bottom		()                                              
; 4118 : 		strCandlePatternName = STR_HTML_UNIQUETHREERIVERBOTTOM;			

  001d1	68 00 00 00 00	 push	 OFFSET ??_C@_0BH@MCKBBFCB@UniqueThreeRiverBottom@

; 4119 : 		break;

  001d6	e9 bf 00 00 00	 jmp	 $LN71@GetCandleP
$LN41@GetCandleP:

; 4120 : 	case CPTN_IDENTICAL_THREECROWS:				// Identical Three Corws			()                                                
; 4121 : 		strCandlePatternName = STR_HTML_IDENTICAL_THREECROWS;			

  001db	68 00 00 00 00	 push	 OFFSET ??_C@_0BE@BGFACJOH@IdenticalThreeCrows@

; 4122 : 		break;

  001e0	e9 b5 00 00 00	 jmp	 $LN71@GetCandleP
$LN42@GetCandleP:

; 4123 : 	case CPTN_BULLISH_BREAKAWAY:				// Bullish Breakaway				()                                                  
; 4124 : 		strCandlePatternName = STR_HTML_BULLISH_BREAKAWAY;				

  001e5	68 00 00 00 00	 push	 OFFSET ??_C@_0BB@PNKCBMBL@BullishBreakaway@

; 4125 : 		break;

  001ea	e9 ab 00 00 00	 jmp	 $LN71@GetCandleP
$LN43@GetCandleP:

; 4126 : 	case CPTN_BEARISH_BREAKAWAY:				// Bearish Breakaway				()                                                  
; 4127 : 		strCandlePatternName = STR_HTML_BEARISH_BREAKAWAY;				

  001ef	68 00 00 00 00	 push	 OFFSET ??_C@_0BB@EKKCDJGF@BearishBreakaway@

; 4128 : 		break;

  001f4	e9 a1 00 00 00	 jmp	 $LN71@GetCandleP
$LN44@GetCandleP:

; 4129 : 	case CPTN_TWOCORWS:							// Two Crows						()                                                
; 4130 : 		strCandlePatternName = STR_HTML_TWOCORWS;						

  001f9	68 00 00 00 00	 push	 OFFSET ??_C@_08NBBECHHG@TwoCrows@

; 4131 : 		break;

  001fe	e9 97 00 00 00	 jmp	 $LN71@GetCandleP
$LN45@GetCandleP:

; 4132 : 	case CPTN_THREESTARS_INTHESOUTH:			// Three Stars In The South			()                                                    
; 4133 : 		strCandlePatternName = STR_HTML_THREESTARS_INTHESOUTH;			

  00203	68 00 00 00 00	 push	 OFFSET ??_C@_0BF@HMPKPIOB@ThreeStarsintheSouth@

; 4134 : 		break;

  00208	e9 8d 00 00 00	 jmp	 $LN71@GetCandleP
$LN46@GetCandleP:

; 4135 : 	case CPTN_CONCEALINGBABY_SWALLOW:			// Concealing Baby Swallow			()                                            
; 4136 : 		strCandlePatternName = STR_HTML_CONCEALINGBABY_SWALLOW;			

  0020d	68 00 00 00 00	 push	 OFFSET ??_C@_0BG@OHHIAJBG@ConcealingBabySwallow@

; 4137 : 		break;

  00212	e9 83 00 00 00	 jmp	 $LN71@GetCandleP
$LN47@GetCandleP:

; 4138 : 	case CPTN_STICKSANDWICH:					// Stick Sandwich					()                                              
; 4139 : 		strCandlePatternName = STR_HTML_STICKSANDWICH;					

  00217	68 00 00 00 00	 push	 OFFSET ??_C@_0O@KPLCJAKJ@StickSandwich@

; 4140 : 		break;

  0021c	eb 7c		 jmp	 SHORT $LN71@GetCandleP
$LN48@GetCandleP:

; 4141 : 	case CPTN_BULLISH_KICKING:					// Bullish Kicking					()	                                              
; 4142 : 		strCandlePatternName = STR_HTML_BULLISH_KICKING;				    

  0021e	68 00 00 00 00	 push	 OFFSET ??_C@_0P@GIFAFDIM@BullishKicking@

; 4143 : 		break;

  00223	eb 75		 jmp	 SHORT $LN71@GetCandleP
$LN49@GetCandleP:

; 4144 : 	case CPTN_BEARISH_KICKING:					// Bearish Kicking					()                                                  
; 4145 : 		strCandlePatternName = STR_HTML_BEARISH_KICKING;				    

  00225	68 00 00 00 00	 push	 OFFSET ??_C@_0P@KMOHDBHM@BearishKicking@

; 4146 : 		break;

  0022a	eb 6e		 jmp	 SHORT $LN71@GetCandleP
$LN50@GetCandleP:

; 4147 : 	case CPTN_HOMINGPIGEON:						// Homing Pigeon					()                                                    
; 4148 : 		strCandlePatternName = STR_HTML_HOMINGPIGEON;				

  0022c	68 00 00 00 00	 push	 OFFSET ??_C@_0N@CGMPNOKO@HomingPigeon@

; 4149 : 		break;

  00231	eb 67		 jmp	 SHORT $LN71@GetCandleP
$LN51@GetCandleP:

; 4150 : 	case CPTN_LADDERBOTTOM:						// Ladder Bottom					()                                                
; 4151 : 		strCandlePatternName = STR_HTML_LADDERBOTTOM;					

  00233	68 00 00 00 00	 push	 OFFSET ??_C@_0N@PFCKJDBA@LadderBottom@

; 4152 : 		break;

  00238	eb 60		 jmp	 SHORT $LN71@GetCandleP
$LN52@GetCandleP:

; 4153 : 	case CPTN_MATCHINGLOW:						// Matching Low						()                                                  
; 4154 : 		strCandlePatternName = STR_HTML_MATCHINGLOW;					    

  0023a	68 00 00 00 00	 push	 OFFSET ??_C@_0M@NHALKNBD@MatchingLow@

; 4155 : 		break;

  0023f	eb 59		 jmp	 SHORT $LN71@GetCandleP
$LN53@GetCandleP:

; 4156 : 	case CPTN_BULLISH_SIDEBYSIDE_WHITELINE:		// Bullish Side-By-Side White Lines	()                                                
; 4157 : 		strCandlePatternName = STR_HTML_BULLISH_SIDEBYSIDE_WHITELINE;	

  00241	68 00 00 00 00	 push	 OFFSET ??_C@_0BG@OOLELMJ@BullishSide?9by?9SideWL@

; 4158 : 		break;

  00246	eb 52		 jmp	 SHORT $LN71@GetCandleP
$LN54@GetCandleP:

; 4159 : 	case CPTN_BEARISH_SIDEBYSIDE_WHITELINE:		// Bearish Side-By-Side White Lines	()                                                
; 4160 : 		strCandlePatternName = STR_HTML_BEARISH_SIDEBYSIDE_WHITELINE;	

  00248	68 00 00 00 00	 push	 OFFSET ??_C@_0BG@HEGBHCBE@BearishSide?9by?9SideWL@

; 4161 : 		break;

  0024d	eb 4b		 jmp	 SHORT $LN71@GetCandleP
$LN55@GetCandleP:

; 4162 : 	case CPTN_RISING_THREEMETHODS:				// Rising Three Methods				()                                                  
; 4163 : 		strCandlePatternName = STR_HTML_RISING_THREEMETHODS;			    

  0024f	68 00 00 00 00	 push	 OFFSET ??_C@_0BD@JPPPJHGK@RisingThreeMethods@

; 4164 : 		break;

  00254	eb 44		 jmp	 SHORT $LN71@GetCandleP
$LN56@GetCandleP:

; 4165 : 	case CPTN_FALLING_THREEMETHODS:				// Falling Three Methods			()                                                  
; 4166 : 		strCandlePatternName = STR_HTML_FALLING_THREEMETHODS;			

  00256	68 00 00 00 00	 push	 OFFSET ??_C@_0BE@FIEAPILD@FallingThreeMethods@

; 4167 : 		break;

  0025b	eb 3d		 jmp	 SHORT $LN71@GetCandleP
$LN57@GetCandleP:

; 4168 : 	case CPTN_BULLISH_SEPARATINGLINES:			// Bullish Separating Lines			()                                                
; 4169 : 		strCandlePatternName = STR_HTML_BULLISH_SEPARATINGLINES;		    

  0025d	68 00 00 00 00	 push	 OFFSET ??_C@_0BH@GHDMCMEH@BullishSeparatingLines@

; 4170 : 		break;

  00262	eb 36		 jmp	 SHORT $LN71@GetCandleP
$LN58@GetCandleP:

; 4171 : 	case CPTN_BEARISH_SEPARATINGLINES:			// Bearish Separating Lines			()                                                
; 4172 : 		strCandlePatternName = STR_HTML_BEARISH_SEPARATINGLINES;		    

  00264	68 00 00 00 00	 push	 OFFSET ??_C@_0BH@JPCEAIBH@BearishSeparatingLines@

; 4173 : 		break;

  00269	eb 2f		 jmp	 SHORT $LN71@GetCandleP
$LN59@GetCandleP:

; 4174 : 	case CPTN_BULLISH_THREELINESTRIKE:			// Bullish Three-Line Strike		()                                              
; 4175 : 		strCandlePatternName = STR_HTML_BULLISH_THREELINESTRIKE;		    

  0026b	68 00 00 00 00	 push	 OFFSET ??_C@_0BI@JHBLEKCD@BullishThree?9LineStrike@

; 4176 : 		break;

  00270	eb 28		 jmp	 SHORT $LN71@GetCandleP
$LN60@GetCandleP:

; 4177 : 	case CPTN_BEARISH_THREELINESTRIKE:			// Bearish Three-Line Strike		()                                              
; 4178 : 		strCandlePatternName = STR_HTML_BEARISH_THREELINESTRIKE;		    

  00272	68 00 00 00 00	 push	 OFFSET ??_C@_0BI@PMIIADPD@BearishThree?9LineStrike@

; 4179 : 		break;

  00277	eb 21		 jmp	 SHORT $LN71@GetCandleP
$LN61@GetCandleP:

; 4180 : 	case CPTN_UPSIDEGAP_THREEMETHODS:			// Upside Gap Three Methods			()                                                
; 4181 : 		strCandlePatternName = STR_HTML_UPSIDEGAP_THREEMETHODS;			

  00279	68 00 00 00 00	 push	 OFFSET ??_C@_0BG@DBPNPCNP@UpsideGapThreeMethods@

; 4182 : 		break;

  0027e	eb 1a		 jmp	 SHORT $LN71@GetCandleP
$LN62@GetCandleP:

; 4183 : 	case CPTN_DNSIDEGAP_THREEMETHODS:			// Downside Gap Three Methods		()                                                
; 4184 : 		strCandlePatternName = STR_HTML_DNSIDEGAP_THREEMETHODS;			

  00280	68 00 00 00 00	 push	 OFFSET ??_C@_0BI@DKAEGGMK@DownsideGapThreeMethods@

; 4185 : 		break;

  00285	eb 13		 jmp	 SHORT $LN71@GetCandleP
$LN63@GetCandleP:

; 4186 : 	case CPTN_ON_NECK:							// On Neck							()                                                      
; 4187 : 		strCandlePatternName = STR_HTML_ON_NECK;						    

  00287	68 00 00 00 00	 push	 OFFSET ??_C@_06MFINGNDH@OnNeck@

; 4188 : 		break;

  0028c	eb 0c		 jmp	 SHORT $LN71@GetCandleP
$LN64@GetCandleP:

; 4189 : 	case CPTN_IN_NECK:							// In Neck							()                                                      
; 4190 : 		strCandlePatternName = STR_HTML_IN_NECK;						    

  0028e	68 00 00 00 00	 push	 OFFSET ??_C@_06KGFNFIAN@InNeck@

; 4191 : 		break;

  00293	eb 05		 jmp	 SHORT $LN71@GetCandleP
$LN65@GetCandleP:

; 4192 : 	case CPTN_THRUSTINGLINE:					// Thrusting Line					(->Thrusitng Line)                                                      
; 4193 : 		strCandlePatternName = STR_HTML_THRUSTINGLINE;                   

  00295	68 00 00 00 00	 push	 OFFSET ??_C@_0O@DDBEEBNG@ThrustingLine@
$LN71@GetCandleP:

; 4194 : 		break;
; 4195 : 	}
; 4196 : 
; 4197 : 	return	strCandlePatternName;

  0029a	8b ce		 mov	 ecx, esi
  0029c	ff 15 00 00 00
	00		 call	 DWORD PTR __imp_??4?$CStringT@DV?$StrTraitMFC_DLL@DV?$ChTraitsCRT@D@ATL@@@@@ATL@@QAEAAV01@PBD@Z
$LN2@GetCandleP:
  002a2	8b c6		 mov	 eax, esi

; 4198 : }

  002a4	8b 4d f4	 mov	 ecx, DWORD PTR __$EHRec$[ebp]
  002a7	64 89 0d 00 00
	00 00		 mov	 DWORD PTR fs:0, ecx
  002ae	59		 pop	 ecx
  002af	5e		 pop	 esi
  002b0	8b e5		 mov	 esp, ebp
  002b2	5d		 pop	 ebp
  002b3	c2 08 00	 ret	 8
  002b6	66 90		 npad	 2
$LN69@GetCandleP:
  002b8	00 00 00 00	 DD	 $LN4@GetCandleP
  002bc	00 00 00 00	 DD	 $LN5@GetCandleP
  002c0	00 00 00 00	 DD	 $LN6@GetCandleP
  002c4	00 00 00 00	 DD	 $LN7@GetCandleP
  002c8	00 00 00 00	 DD	 $LN8@GetCandleP
  002cc	00 00 00 00	 DD	 $LN9@GetCandleP
  002d0	00 00 00 00	 DD	 $LN10@GetCandleP
  002d4	00 00 00 00	 DD	 $LN11@GetCandleP
  002d8	00 00 00 00	 DD	 $LN12@GetCandleP
  002dc	00 00 00 00	 DD	 $LN13@GetCandleP
  002e0	00 00 00 00	 DD	 $LN14@GetCandleP
  002e4	00 00 00 00	 DD	 $LN15@GetCandleP
  002e8	00 00 00 00	 DD	 $LN16@GetCandleP
  002ec	00 00 00 00	 DD	 $LN17@GetCandleP
  002f0	00 00 00 00	 DD	 $LN18@GetCandleP
  002f4	00 00 00 00	 DD	 $LN19@GetCandleP
  002f8	00 00 00 00	 DD	 $LN20@GetCandleP
  002fc	00 00 00 00	 DD	 $LN21@GetCandleP
  00300	00 00 00 00	 DD	 $LN22@GetCandleP
  00304	00 00 00 00	 DD	 $LN23@GetCandleP
  00308	00 00 00 00	 DD	 $LN24@GetCandleP
  0030c	00 00 00 00	 DD	 $LN25@GetCandleP
  00310	00 00 00 00	 DD	 $LN26@GetCandleP
  00314	00 00 00 00	 DD	 $LN27@GetCandleP
  00318	00 00 00 00	 DD	 $LN28@GetCandleP
  0031c	00 00 00 00	 DD	 $LN29@GetCandleP
  00320	00 00 00 00	 DD	 $LN30@GetCandleP
  00324	00 00 00 00	 DD	 $LN31@GetCandleP
  00328	00 00 00 00	 DD	 $LN32@GetCandleP
  0032c	00 00 00 00	 DD	 $LN33@GetCandleP
  00330	00 00 00 00	 DD	 $LN34@GetCandleP
  00334	00 00 00 00	 DD	 $LN35@GetCandleP
  00338	00 00 00 00	 DD	 $LN36@GetCandleP
  0033c	00 00 00 00	 DD	 $LN37@GetCandleP
  00340	00 00 00 00	 DD	 $LN38@GetCandleP
  00344	00 00 00 00	 DD	 $LN39@GetCandleP
  00348	00 00 00 00	 DD	 $LN40@GetCandleP
  0034c	00 00 00 00	 DD	 $LN41@GetCandleP
  00350	00 00 00 00	 DD	 $LN42@GetCandleP
  00354	00 00 00 00	 DD	 $LN43@GetCandleP
  00358	00 00 00 00	 DD	 $LN44@GetCandleP
  0035c	00 00 00 00	 DD	 $LN45@GetCandleP
  00360	00 00 00 00	 DD	 $LN46@GetCandleP
  00364	00 00 00 00	 DD	 $LN47@GetCandleP
  00368	00 00 00 00	 DD	 $LN48@GetCandleP
  0036c	00 00 00 00	 DD	 $LN49@GetCandleP
  00370	00 00 00 00	 DD	 $LN50@GetCandleP
  00374	00 00 00 00	 DD	 $LN51@GetCandleP
  00378	00 00 00 00	 DD	 $LN52@GetCandleP
  0037c	00 00 00 00	 DD	 $LN53@GetCandleP
  00380	00 00 00 00	 DD	 $LN54@GetCandleP
  00384	00 00 00 00	 DD	 $LN55@GetCandleP
  00388	00 00 00 00	 DD	 $LN56@GetCandleP
  0038c	00 00 00 00	 DD	 $LN57@GetCandleP
  00390	00 00 00 00	 DD	 $LN58@GetCandleP
  00394	00 00 00 00	 DD	 $LN59@GetCandleP
  00398	00 00 00 00	 DD	 $LN60@GetCandleP
  0039c	00 00 00 00	 DD	 $LN61@GetCandleP
  003a0	00 00 00 00	 DD	 $LN62@GetCandleP
  003a4	00 00 00 00	 DD	 $LN63@GetCandleP
  003a8	00 00 00 00	 DD	 $LN64@GetCandleP
  003ac	00 00 00 00	 DD	 $LN65@GetCandleP
_TEXT	ENDS
;	COMDAT text$x
text$x	SEGMENT
__unwindfunclet$?GetCandlePatternHelpName@CCandlePattern@@QAE?AV?$CStringT@DV?$StrTraitMFC_DLL@DV?$ChTraitsCRT@D@ATL@@@@@ATL@@H@Z$0:
  00000	8b 45 f0	 mov	 eax, DWORD PTR $T2[ebp]
  00003	83 e0 01	 and	 eax, 1
  00006	0f 84 0d 00 00
	00		 je	 $LN68@GetCandleP
  0000c	83 65 f0 fe	 and	 DWORD PTR $T2[ebp], -2	; fffffffeH
  00010	8b 4d 08	 mov	 ecx, DWORD PTR ___$ReturnUdt$[ebp]
  00013	ff 25 00 00 00
	00		 jmp	 DWORD PTR __imp_??1?$CStringT@DV?$StrTraitMFC_DLL@DV?$ChTraitsCRT@D@ATL@@@@@ATL@@QAE@XZ
$LN68@GetCandleP:
  00019	c3		 ret	 0
  0001a	cc		 int	 3
  0001b	cc		 int	 3
  0001c	cc		 int	 3
  0001d	cc		 int	 3
  0001e	cc		 int	 3
__ehhandler$?GetCandlePatternHelpName@CCandlePattern@@QAE?AV?$CStringT@DV?$StrTraitMFC_DLL@DV?$ChTraitsCRT@D@ATL@@@@@ATL@@H@Z:
  0001f	90		 npad	 1
  00020	90		 npad	 1
  00021	8b 54 24 08	 mov	 edx, DWORD PTR [esp+8]
  00025	8d 42 0c	 lea	 eax, DWORD PTR [edx+12]
  00028	8b 4a f4	 mov	 ecx, DWORD PTR [edx-12]
  0002b	33 c8		 xor	 ecx, eax
  0002d	e8 00 00 00 00	 call	 @__security_check_cookie@4
  00032	b8 00 00 00 00	 mov	 eax, OFFSET __ehfuncinfo$?GetCandlePatternHelpName@CCandlePattern@@QAE?AV?$CStringT@DV?$StrTraitMFC_DLL@DV?$ChTraitsCRT@D@ATL@@@@@ATL@@H@Z
  00037	e9 00 00 00 00	 jmp	 ___CxxFrameHandler3
text$x	ENDS
?GetCandlePatternHelpName@CCandlePattern@@QAE?AV?$CStringT@DV?$StrTraitMFC_DLL@DV?$ChTraitsCRT@D@ATL@@@@@ATL@@H@Z ENDP ; CCandlePattern::GetCandlePatternHelpName
; Function compile flags: /Ogtp
; File D:\git\src\IBK\IBK_DRFN\ProjSrc\SrcChartEx\ChartAddIn\ChartPatternAddIn\CandlePattern.cpp
;	COMDAT ?GetCandlePatternTrust@CCandlePattern@@QAEHH@Z
_TEXT	SEGMENT
_nCandlePatternType$ = 8				; size = 4
?GetCandlePatternTrust@CCandlePattern@@QAEHH@Z PROC	; CCandlePattern::GetCandlePatternTrust, COMDAT
; _this$ = ecx

; 3911 : {

  00000	55		 push	 ebp
  00001	8b ec		 mov	 ebp, esp

; 3912 : 	int nPatternLevel = 0;
; 3913 : 
; 3914 : 	// Get Pattern Trend
; 3915 : 	switch (nCandlePatternType)

  00003	8b 45 08	 mov	 eax, DWORD PTR _nCandlePatternType$[ebp]
  00006	33 c9		 xor	 ecx, ecx
  00008	05 bf e0 ff ff	 add	 eax, -8001		; ffffe0bfH
  0000d	83 f8 3d	 cmp	 eax, 61			; 0000003dH
  00010	77 4a		 ja	 SHORT $LN2@GetCandleP
  00012	0f b6 80 00 00
	00 00		 movzx	 eax, BYTE PTR $LN67@GetCandleP[eax]
  00019	ff 24 85 00 00
	00 00		 jmp	 DWORD PTR $LN68@GetCandleP[eax*4]
$LN4@GetCandleP:

; 3916 : 	{
; 3917 : 	case CPTN_HAMMER:							// Hammer							()  
; 3918 : 	case CPTN_MORNINGSTAR:						// Morning Star						() 
; 3919 : 	case CPTN_MORNINTDOJISTAR:					// Morning Doji Star				() 
; 3920 : 	case CPTN_THREE_INSIDEUP:					// Three Indise Up					()
; 3921 : 	case CPTN_THREE_OUTSIDEUP:					// Three Outside Up					()
; 3922 : 	case CPTN_CONCEALINGBABY_SWALLOW:			// Concealing Baby Swallow			() 
; 3923 : 	case CPTN_HOMINGPIGEON:						// Homing Pigeon					() 
; 3924 : 		nPatternLevel = UPWARD_LEVEL3;

  00020	b9 01 00 00 00	 mov	 ecx, 1

; 3992 : 		break;						
; 3993 : 	}
; 3994 : 
; 3995 : 	return	nPatternLevel;

  00025	8b c1		 mov	 eax, ecx

; 3996 : }

  00027	5d		 pop	 ebp
  00028	c2 04 00	 ret	 4
$LN11@GetCandleP:

; 3925 : 		break;
; 3926 : 	case CPTN_INVERTEDHAMMER:					// Inverted Hammer					()  
; 3927 : 	case CPTN_BULLISH_BELTHOLDLINE:				// Bullish Belt Hold Line			()
; 3928 : 	case CPTN_LONG_WHITEBODY:					// Long White Body					()
; 3929 : 	case CPTN_BULLISH_HARAMI:					// Bullish Harami					()
; 3930 : 	case CPTN_BULLISH_ENGULFING:				// Bullish Engulfing				() 
; 3931 : 	case CPTN_BULLISH_COUNTERATTACKLINE:		// Bullish Counterattack Line		()
; 3932 : 	case CPTN_THREE_WHITESOLDIER:				// Three White Soldier				() 	
; 3933 : 	case CPTN_STALLEDPATTERN:					// Stalled Pattern					()	
; 3934 : 	case CPTN_MATHOLD:							// Mat-Hold							()
; 3935 : 	case CPTN_BULLISH_TRISTAR:					// Bullish Tri Star					() 
; 3936 : 	case CPTN_UNIQUETHREERIVERBOTTOM:			// Unique Three River Bottom		() 
; 3937 : 	case CPTN_LADDERBOTTOM:						// Ladder Bottom					()                                                
; 3938 : 	case CPTN_MATCHINGLOW:						// Matching Low						() 
; 3939 : 	case CPTN_BULLISH_SIDEBYSIDE_WHITELINE:		// Bullish Side-By-Side White Lines	() 	
; 3940 : 	case CPTN_BULLISH_THREELINESTRIKE:			// Bullish Three-Line Strike		()
; 3941 : 	case CPTN_UPSIDEGAP_THREEMETHODS:			// Upside Gap Three Methods			() 
; 3942 : 	case CPTN_ADVANCEBLOCK:						// Advance Block					()
; 3943 : 		nPatternLevel = UPWARD_LEVEL2;

  0002b	b9 02 00 00 00	 mov	 ecx, 2

; 3992 : 		break;						
; 3993 : 	}
; 3994 : 
; 3995 : 	return	nPatternLevel;

  00030	8b c1		 mov	 eax, ecx

; 3996 : }

  00032	5d		 pop	 ebp
  00033	c2 04 00	 ret	 4
$LN28@GetCandleP:

; 3944 : 		break;
; 3945 : 	case CPTN_PIERCINGPATTERN:					// Piercing Pattern					() 
; 3946 : 	case CPTN_ABANDONEDBABY_INDOWNTREND:		// Abandoned Baby In Downtrend		()
; 3947 : 	case CPTN_UPSIDEGAP_TASUKI:					// Upside Gap Tasuki				()
; 3948 : 	case CPTN_BULLISH_BREAKAWAY:				// Bullish Breakaway				() 
; 3949 : 	case CPTN_THREESTARS_INTHESOUTH:			// Three Stars In The South			()
; 3950 : 	case CPTN_STICKSANDWICH:					// Stick Sandwich					() 
; 3951 : 	case CPTN_BULLISH_KICKING:					// Bullish Kicking					()
; 3952 : 	case CPTN_RISING_THREEMETHODS:				// Rising Three Methods				()  
; 3953 : 	case CPTN_BULLISH_SEPARATINGLINES:			// Bullish Separating Lines			()
; 3954 : //	case CPTN_BULLISH_GRAVESTONE:				// Bullish GraveStone				( )	
; 3955 : //	case CPTN_BULLISH_DRAGONFLY:				// Bullish DragonFly				( )									        		
; 3956 : 		nPatternLevel = UPWARD_LEVEL1;

  00036	b9 03 00 00 00	 mov	 ecx, 3

; 3992 : 		break;						
; 3993 : 	}
; 3994 : 
; 3995 : 	return	nPatternLevel;

  0003b	8b c1		 mov	 eax, ecx

; 3996 : }

  0003d	5d		 pop	 ebp
  0003e	c2 04 00	 ret	 4
$LN37@GetCandleP:

; 3957 : 		break;
; 3958 : 	case CPTN_HANGINGMAN:						// Hanging Man						()	
; 3959 : 	case CPTN_BEARISH_ENGULFING:				// Bearish Engulfing				()
; 3960 : 	case CPTN_EVENINGSTAR:						// Evening Star						() 
; 3961 : 	case CPTN_EVENINGDOJISTAR:					// Evening Doji Star				()
; 3962 : 	case CPTN_THREE_INSIDEDOWN:					// Three Indise Down				()
; 3963 : 	case CPTN_THREE_OUTSIDEDOWN:				// Three Outside Down				() 
; 3964 : 	case CPTN_IDENTICAL_THREECROWS:				// Identical Three Corws			() 
; 3965 : 		nPatternLevel = DNWARD_LEVEL3;

  00041	b9 04 00 00 00	 mov	 ecx, 4

; 3992 : 		break;						
; 3993 : 	}
; 3994 : 
; 3995 : 	return	nPatternLevel;

  00046	8b c1		 mov	 eax, ecx

; 3996 : }

  00048	5d		 pop	 ebp
  00049	c2 04 00	 ret	 4
$LN44@GetCandleP:

; 3966 : 		break;						
; 3967 : 	case CPTN_SHOOTINGSTAR:						// Shooting Star					()	
; 3968 : 	case CPTN_BEARISH_BELTHOLDLINE:				// Bearish Belt Hold Line			()
; 3969 : 	case CPTN_LONG_BLACKBODY:					// Long Black Body					() 
; 3970 : 	case CPTN_BEARISH_HARAMI:					// Bearish Harami					()
; 3971 : 	case CPTN_BEARISH_COUNTERATTACKLINE:		// Bearish Counterattack Line		() 
; 3972 : 	case CPTN_UPSIDEGAPTWOCROWS_INUPTREND:		// Upside Gap Two Crows In Uptrend	() 
; 3973 : 	case CPTN_THREE_BLACKCROW:					// Three Black Corws				()	
; 3974 : 	case CPTN_BEARISH_TRISTAR:					// Bearish Tri Star					()
; 3975 : 	case CPTN_DNSIDEGAP_THREEMETHODS:			// Downside Gap Three Methods		()
; 3976 : 	case CPTN_TWOCORWS:							// Two Crows						() 
; 3977 : 		nPatternLevel = DNWARD_LEVEL2;

  0004c	b9 05 00 00 00	 mov	 ecx, 5

; 3992 : 		break;						
; 3993 : 	}
; 3994 : 
; 3995 : 	return	nPatternLevel;

  00051	8b c1		 mov	 eax, ecx

; 3996 : }

  00053	5d		 pop	 ebp
  00054	c2 04 00	 ret	 4
$LN54@GetCandleP:

; 3978 : 		break;						
; 3979 : 	case CPTN_DARKCLOUDCOVER:					// Dark Cloud Cover					() 
; 3980 : 	case CPTN_ABANDONEDBABY_INUPTREND:			// Abandoned Baby In Uptrend		()
; 3981 : 	case CPTN_BEARISH_BREAKAWAY:				// Bearish Breakaway				()  
; 3982 : 	case CPTN_DNSIDEGAP_TASUKI:					// Downside Gap Tasuki				()
; 3983 : 	case CPTN_BEARISH_KICKING:					// Bearish Kicking					()	
; 3984 : 	case CPTN_BEARISH_SIDEBYSIDE_WHITELINE:		// Bearish Side-By-Side White Lines	() 
; 3985 : 	case CPTN_FALLING_THREEMETHODS:				// Falling Three Methods			()  
; 3986 : 	case CPTN_BEARISH_SEPARATINGLINES:			// Bearish Separating Lines			() 
; 3987 : 	case CPTN_BEARISH_THREELINESTRIKE:			// Bearish Three-Line Strike		() 
; 3988 : 	case CPTN_ON_NECK:							// On Neck							()  
; 3989 : 	case CPTN_IN_NECK:							// In Neck							()  
; 3990 : 	case CPTN_THRUSTINGLINE:					// Thrusting Line					()  	
; 3991 : 		nPatternLevel = DNWARD_LEVEL1;

  00057	b9 06 00 00 00	 mov	 ecx, 6
$LN2@GetCandleP:

; 3992 : 		break;						
; 3993 : 	}
; 3994 : 
; 3995 : 	return	nPatternLevel;

  0005c	8b c1		 mov	 eax, ecx

; 3996 : }

  0005e	5d		 pop	 ebp
  0005f	c2 04 00	 ret	 4
  00062	66 90		 npad	 2
$LN68@GetCandleP:
  00064	00 00 00 00	 DD	 $LN4@GetCandleP
  00068	00 00 00 00	 DD	 $LN37@GetCandleP
  0006c	00 00 00 00	 DD	 $LN11@GetCandleP
  00070	00 00 00 00	 DD	 $LN44@GetCandleP
  00074	00 00 00 00	 DD	 $LN28@GetCandleP
  00078	00 00 00 00	 DD	 $LN54@GetCandleP
$LN67@GetCandleP:
  0007c	00		 DB	 0
  0007d	01		 DB	 1
  0007e	02		 DB	 2
  0007f	03		 DB	 3
  00080	02		 DB	 2
  00081	03		 DB	 3
  00082	02		 DB	 2
  00083	03		 DB	 3
  00084	02		 DB	 2
  00085	03		 DB	 3
  00086	02		 DB	 2
  00087	01		 DB	 1
  00088	02		 DB	 2
  00089	03		 DB	 3
  0008a	04		 DB	 4
  0008b	05		 DB	 5
  0008c	00		 DB	 0
  0008d	01		 DB	 1
  0008e	00		 DB	 0
  0008f	01		 DB	 1
  00090	04		 DB	 4
  00091	05		 DB	 5
  00092	00		 DB	 0
  00093	01		 DB	 1
  00094	00		 DB	 0
  00095	01		 DB	 1
  00096	03		 DB	 3
  00097	02		 DB	 2
  00098	03		 DB	 3
  00099	02		 DB	 2
  0009a	02		 DB	 2
  0009b	04		 DB	 4
  0009c	05		 DB	 5
  0009d	02		 DB	 2
  0009e	02		 DB	 2
  0009f	03		 DB	 3
  000a0	02		 DB	 2
  000a1	01		 DB	 1
  000a2	04		 DB	 4
  000a3	05		 DB	 5
  000a4	03		 DB	 3
  000a5	04		 DB	 4
  000a6	00		 DB	 0
  000a7	04		 DB	 4
  000a8	04		 DB	 4
  000a9	05		 DB	 5
  000aa	00		 DB	 0
  000ab	02		 DB	 2
  000ac	02		 DB	 2
  000ad	02		 DB	 2
  000ae	05		 DB	 5
  000af	04		 DB	 4
  000b0	05		 DB	 5
  000b1	04		 DB	 4
  000b2	05		 DB	 5
  000b3	02		 DB	 2
  000b4	05		 DB	 5
  000b5	02		 DB	 2
  000b6	03		 DB	 3
  000b7	05		 DB	 5
  000b8	05		 DB	 5
  000b9	05		 DB	 5
?GetCandlePatternTrust@CCandlePattern@@QAEHH@Z ENDP	; CCandlePattern::GetCandlePatternTrust
_TEXT	ENDS
; Function compile flags: /Ogtp
; File D:\git\src\IBK\IBK_DRFN\ProjSrc\SrcChartEx\ChartAddIn\ChartPatternAddIn\CandlePattern.cpp
;	COMDAT ?GetCandlePatternTrendName@CCandlePattern@@QAE?AV?$CStringT@DV?$StrTraitMFC_DLL@DV?$ChTraitsCRT@D@ATL@@@@@ATL@@H@Z
_TEXT	SEGMENT
$T2 = -16						; size = 4
__$EHRec$ = -12						; size = 12
___$ReturnUdt$ = 8					; size = 4
_nCandlePatternType$ = 12				; size = 4
?GetCandlePatternTrendName@CCandlePattern@@QAE?AV?$CStringT@DV?$StrTraitMFC_DLL@DV?$ChTraitsCRT@D@ATL@@@@@ATL@@H@Z PROC ; CCandlePattern::GetCandlePatternTrendName, COMDAT
; _this$ = ecx

; 3873 : {

  00000	55		 push	 ebp
  00001	8b ec		 mov	 ebp, esp
  00003	6a ff		 push	 -1
  00005	68 00 00 00 00	 push	 __ehhandler$?GetCandlePatternTrendName@CCandlePattern@@QAE?AV?$CStringT@DV?$StrTraitMFC_DLL@DV?$ChTraitsCRT@D@ATL@@@@@ATL@@H@Z
  0000a	64 a1 00 00 00
	00		 mov	 eax, DWORD PTR fs:0
  00010	50		 push	 eax
  00011	51		 push	 ecx
  00012	56		 push	 esi
  00013	57		 push	 edi
  00014	a1 00 00 00 00	 mov	 eax, DWORD PTR ___security_cookie
  00019	33 c5		 xor	 eax, ebp
  0001b	50		 push	 eax
  0001c	8d 45 f4	 lea	 eax, DWORD PTR __$EHRec$[ebp]
  0001f	64 a3 00 00 00
	00		 mov	 DWORD PTR fs:0, eax

; 3786 : 	switch (nCandlePatternType)

  00025	8b 45 0c	 mov	 eax, DWORD PTR _nCandlePatternType$[ebp]
  00028	33 ff		 xor	 edi, edi
  0002a	05 bf e0 ff ff	 add	 eax, -8001		; ffffe0bfH

; 3873 : {

  0002f	c7 45 f0 00 00
	00 00		 mov	 DWORD PTR $T2[ebp], 0

; 3786 : 	switch (nCandlePatternType)

  00036	83 f8 3d	 cmp	 eax, 61			; 0000003dH
  00039	77 28		 ja	 SHORT $LN12@GetCandleP
  0003b	0f b6 80 00 00
	00 00		 movzx	 eax, BYTE PTR $LN77@GetCandleP[eax]
  00042	ff 24 85 00 00
	00 00		 jmp	 DWORD PTR $LN78@GetCandleP[eax*4]
$LN14@GetCandleP:

; 3787 : 	{
; 3788 : 	case CPTN_HAMMER:							// Hammer							()  
; 3789 : 	case CPTN_INVERTEDHAMMER:					// Inverted Hammer					()  
; 3790 : 	case CPTN_BULLISH_BELTHOLDLINE:				// Bullish Belt Hold Line			()
; 3791 : 	case CPTN_BULLISH_HARAMI:					// Bullish Harami					()
; 3792 : 	case CPTN_BULLISH_ENGULFING:				// Bullish Engulfing				() 
; 3793 : 	case CPTN_BULLISH_COUNTERATTACKLINE:		// Bullish Counterattack Line		()
; 3794 : 	case CPTN_PIERCINGPATTERN:					// Piercing Pattern					() 
; 3795 : 	case CPTN_MORNINGSTAR:						// Morning Star						() 
; 3796 : 	case CPTN_MORNINTDOJISTAR:					// Morning Doji Star				() 
; 3797 : 	case CPTN_ABANDONEDBABY_INDOWNTREND:		// Abandoned Baby In Downtrend		()
; 3798 : 	case CPTN_THREE_INSIDEUP:					// Three Indise Up					()
; 3799 : 	case CPTN_THREE_OUTSIDEUP:					// Three Outside Up					()
; 3800 : 	case CPTN_THREE_WHITESOLDIER:				// Three White Soldier				() 	
; 3801 : 	case CPTN_BULLISH_TRISTAR:					// Bullish Tri Star					() 
; 3802 : 	case CPTN_UNIQUETHREERIVERBOTTOM:			// Unique Three River Bottom		() 
; 3803 : 	case CPTN_BULLISH_BREAKAWAY:				// Bullish Breakaway				() 
; 3804 : 	case CPTN_THREESTARS_INTHESOUTH:			// Three Stars In The South			()
; 3805 : 	case CPTN_CONCEALINGBABY_SWALLOW:			// Concealing Baby Swallow			() 
; 3806 : 	case CPTN_STICKSANDWICH:					// Stick Sandwich					() 
; 3807 : 	case CPTN_BULLISH_KICKING:					// Bullish Kicking					()
; 3808 : 	case CPTN_HOMINGPIGEON:						// Homing Pigeon					() 
; 3809 : 	case CPTN_LADDERBOTTOM:						// Ladder Bottom					()                                                
; 3810 : 	case CPTN_MATCHINGLOW:						// Matching Low						() 
; 3811 : //	case CPTN_BULLISH_GRAVESTONE:				// Bullish GraveStone				( )	
; 3812 : //	case CPTN_BULLISH_DRAGONFLY:				// Bullish DragonFly				( )									        		
; 3813 : 		nPatternTrend = UPWARD_REVERSE;

  00049	bf b9 0b 00 00	 mov	 edi, 3001		; 00000bb9H

; 3814 : 		break;

  0004e	eb 13		 jmp	 SHORT $LN12@GetCandleP
$LN37@GetCandleP:

; 3815 : 		
; 3816 : 	case CPTN_HANGINGMAN:						// Hanging Man						()	
; 3817 : 	case CPTN_SHOOTINGSTAR:						// Shooting Star					()	
; 3818 : 	case CPTN_BEARISH_BELTHOLDLINE:				// Bearish Belt Hold Line			()
; 3819 : 	case CPTN_BEARISH_HARAMI:					// Bearish Harami					()
; 3820 : 	case CPTN_BEARISH_ENGULFING:				// Bearish Engulfing				()
; 3821 : 	case CPTN_BEARISH_COUNTERATTACKLINE:		// Bearish Counterattack Line		() 
; 3822 : 	case CPTN_DARKCLOUDCOVER:					// Dark Cloud Cover					() 
; 3823 : 	case CPTN_EVENINGSTAR:						// Evening Star						() 
; 3824 : 	case CPTN_EVENINGDOJISTAR:					// Evening Doji Star				()
; 3825 : 	case CPTN_ABANDONEDBABY_INUPTREND:			// Abandoned Baby In Uptrend		()
; 3826 : 	case CPTN_THREE_INSIDEDOWN:					// Three Indise Down				()
; 3827 : 	case CPTN_THREE_OUTSIDEDOWN:				// Three Outside Down				() 
; 3828 : 	case CPTN_UPSIDEGAPTWOCROWS_INUPTREND:		// Upside Gap Two Crows In Uptrend	() 
; 3829 : 	case CPTN_THREE_BLACKCROW:					// Three Black Corws				()	
; 3830 : 	case CPTN_BEARISH_TRISTAR:					// Bearish Tri Star					()
; 3831 : 	case CPTN_IDENTICAL_THREECROWS:				// Identical Three Corws			() 
; 3832 : 	case CPTN_BEARISH_BREAKAWAY:				// Bearish Breakaway				()  
; 3833 : 	case CPTN_TWOCORWS:							// Two Crows						() 
; 3834 : 	case CPTN_BEARISH_KICKING:					// Bearish Kicking					()					 			
; 3835 : 		nPatternTrend = DNWARD_REVERSE;

  00050	bf ba 0b 00 00	 mov	 edi, 3002		; 00000bbaH

; 3836 : 		break;

  00055	eb 0c		 jmp	 SHORT $LN12@GetCandleP
$LN56@GetCandleP:

; 3837 : 		
; 3838 : 	case CPTN_LONG_WHITEBODY:					// Long White Body					()
; 3839 : 	case CPTN_STALLEDPATTERN:					// Stalled Pattern					()	
; 3840 : 	case CPTN_ADVANCEBLOCK:						// Advance Block					()
; 3841 : 	case CPTN_UPSIDEGAP_TASUKI:					// Upside Gap Tasuki				()
; 3842 : 	case CPTN_MATHOLD:							// Mat-Hold							()
; 3843 : 	case CPTN_BULLISH_SIDEBYSIDE_WHITELINE:		// Bullish Side-By-Side White Lines	() 	
; 3844 : 	case CPTN_RISING_THREEMETHODS:				// Rising Three Methods				()  
; 3845 : 	case CPTN_BULLISH_SEPARATINGLINES:			// Bullish Separating Lines			()
; 3846 : 	case CPTN_BULLISH_THREELINESTRIKE:			// Bullish Three-Line Strike		()
; 3847 : 	case CPTN_UPSIDEGAP_THREEMETHODS:			// Upside Gap Three Methods			() 
; 3848 : 		nPatternTrend = UPWARD_CONTINUE;

  00057	bf bb 0b 00 00	 mov	 edi, 3003		; 00000bbbH

; 3849 : 		break;

  0005c	eb 05		 jmp	 SHORT $LN12@GetCandleP
$LN66@GetCandleP:

; 3850 : 		
; 3851 : 	case CPTN_LONG_BLACKBODY:					// Long Black Body					() 
; 3852 : 	case CPTN_DNSIDEGAP_TASUKI:					// Downside Gap Tasuki				()
; 3853 : 	case CPTN_BEARISH_SIDEBYSIDE_WHITELINE:		// Bearish Side-By-Side White Lines	() 
; 3854 : 	case CPTN_FALLING_THREEMETHODS:				// Falling Three Methods			()  
; 3855 : 	case CPTN_BEARISH_SEPARATINGLINES:			// Bearish Separating Lines			() 
; 3856 : 	case CPTN_BEARISH_THREELINESTRIKE:			// Bearish Three-Line Strike		() 
; 3857 : 	case CPTN_DNSIDEGAP_THREEMETHODS:			// Downside Gap Three Methods		()
; 3858 : 	case CPTN_ON_NECK:							// On Neck							()  
; 3859 : 	case CPTN_IN_NECK:							// In Neck							()  
; 3860 : 	case CPTN_THRUSTINGLINE:					// Thrusting Line					()  	
; 3861 : 		nPatternTrend = DNWARD_CONTINUE;

  0005e	bf bc 0b 00 00	 mov	 edi, 3004		; 00000bbcH
$LN12@GetCandleP:

; 3874 : 	int nPatternTrend = GetCandlePatternTrend( nCandlePatternType);
; 3875 : 
; 3876 : 	CString strRtnName;

  00063	8b 75 08	 mov	 esi, DWORD PTR ___$ReturnUdt$[ebp]
  00066	8b ce		 mov	 ecx, esi
  00068	ff 15 00 00 00
	00		 call	 DWORD PTR __imp_??0?$CStringT@DV?$StrTraitMFC_DLL@DV?$ChTraitsCRT@D@ATL@@@@@ATL@@QAE@XZ

; 3901 : 		break;
; 3902 : 	}
; 3903 : // 2008.02.20 by LYH <<
; 3904 : 	return strRtnName;

  0006e	68 00 00 00 00	 push	 OFFSET ??_C@_00CNPNBAHC@@
  00073	8b ce		 mov	 ecx, esi
  00075	c7 45 fc 00 00
	00 00		 mov	 DWORD PTR __$EHRec$[ebp+8], 0
  0007c	c7 45 f0 01 00
	00 00		 mov	 DWORD PTR $T2[ebp], 1
  00083	ff 15 00 00 00
	00		 call	 DWORD PTR __imp_??4?$CStringT@DV?$StrTraitMFC_DLL@DV?$ChTraitsCRT@D@ATL@@@@@ATL@@QAEAAV01@PBD@Z
  00089	81 c7 47 f4 ff
	ff		 add	 edi, -3001		; fffff447H
  0008f	83 ff 03	 cmp	 edi, 3
  00092	77 1d		 ja	 SHORT $LN2@GetCandleP

; 3877 : 	strRtnName =_T("");
; 3878 : 
; 3879 : 	// Get Pattern Trend
; 3880 : // 2008.02.20 by LYH >>
; 3881 : 	switch (nPatternTrend)

  00094	ff 24 bd 00 00
	00 00		 jmp	 DWORD PTR $LN79@GetCandleP[edi*4]
$LN4@GetCandleP:

; 3882 : 	{
; 3883 : 	case UPWARD_REVERSE:
; 3884 : 		//strRtnName = STR_UPWARD_REVERSE;
; 3885 : 		strRtnName.LoadString(IDS_UPWARD_REVERSE);

  0009b	6a 06		 push	 6

; 3886 : 		break;

  0009d	eb 0a		 jmp	 SHORT $LN81@GetCandleP
$LN5@GetCandleP:

; 3887 : 
; 3888 : 	case DNWARD_REVERSE:
; 3889 : 		//strRtnName = STR_DNWARD_REVERSE;
; 3890 : 		strRtnName.LoadString(IDS_DOWNWARD_REVERSE);

  0009f	6a 07		 push	 7

; 3891 : 		break;

  000a1	eb 06		 jmp	 SHORT $LN81@GetCandleP
$LN6@GetCandleP:

; 3892 : 
; 3893 : 	case UPWARD_CONTINUE:
; 3894 : 		//strRtnName = STR_UPWARD_CONTINUE;
; 3895 : 		strRtnName.LoadString(IDS_UPWARD_CONTINUE);

  000a3	6a 08		 push	 8

; 3896 : 		break;

  000a5	eb 02		 jmp	 SHORT $LN81@GetCandleP
$LN7@GetCandleP:

; 3897 : 
; 3898 : 	case DNWARD_CONTINUE:
; 3899 : 		//strRtnName = STR_DNWARD_CONTINUE;
; 3900 : 		strRtnName.LoadString(IDS_DOWNWARD_CONTINUE);

  000a7	6a 09		 push	 9
$LN81@GetCandleP:

; 3901 : 		break;
; 3902 : 	}
; 3903 : // 2008.02.20 by LYH <<
; 3904 : 	return strRtnName;

  000a9	8b ce		 mov	 ecx, esi
  000ab	ff 15 00 00 00
	00		 call	 DWORD PTR __imp_?LoadStringA@?$CStringT@DV?$StrTraitMFC_DLL@DV?$ChTraitsCRT@D@ATL@@@@@ATL@@QAEHI@Z
$LN2@GetCandleP:
  000b1	8b c6		 mov	 eax, esi

; 3905 : }

  000b3	8b 4d f4	 mov	 ecx, DWORD PTR __$EHRec$[ebp]
  000b6	64 89 0d 00 00
	00 00		 mov	 DWORD PTR fs:0, ecx
  000bd	59		 pop	 ecx
  000be	5f		 pop	 edi
  000bf	5e		 pop	 esi
  000c0	8b e5		 mov	 esp, ebp
  000c2	5d		 pop	 ebp
  000c3	c2 08 00	 ret	 8
  000c6	66 90		 npad	 2
$LN78@GetCandleP:
  000c8	00 00 00 00	 DD	 $LN14@GetCandleP
  000cc	00 00 00 00	 DD	 $LN37@GetCandleP
  000d0	00 00 00 00	 DD	 $LN56@GetCandleP
  000d4	00 00 00 00	 DD	 $LN66@GetCandleP
$LN77@GetCandleP:
  000d8	00		 DB	 0
  000d9	01		 DB	 1
  000da	00		 DB	 0
  000db	01		 DB	 1
  000dc	00		 DB	 0
  000dd	01		 DB	 1
  000de	02		 DB	 2
  000df	03		 DB	 3
  000e0	00		 DB	 0
  000e1	01		 DB	 1
  000e2	00		 DB	 0
  000e3	01		 DB	 1
  000e4	00		 DB	 0
  000e5	01		 DB	 1
  000e6	00		 DB	 0
  000e7	01		 DB	 1
  000e8	00		 DB	 0
  000e9	01		 DB	 1
  000ea	00		 DB	 0
  000eb	01		 DB	 1
  000ec	00		 DB	 0
  000ed	01		 DB	 1
  000ee	00		 DB	 0
  000ef	01		 DB	 1
  000f0	00		 DB	 0
  000f1	01		 DB	 1
  000f2	01		 DB	 1
  000f3	00		 DB	 0
  000f4	01		 DB	 1
  000f5	02		 DB	 2
  000f6	02		 DB	 2
  000f7	02		 DB	 2
  000f8	03		 DB	 3
  000f9	02		 DB	 2
  000fa	00		 DB	 0
  000fb	01		 DB	 1
  000fc	00		 DB	 0
  000fd	01		 DB	 1
  000fe	00		 DB	 0
  000ff	01		 DB	 1
  00100	01		 DB	 1
  00101	00		 DB	 0
  00102	00		 DB	 0
  00103	00		 DB	 0
  00104	00		 DB	 0
  00105	01		 DB	 1
  00106	00		 DB	 0
  00107	00		 DB	 0
  00108	00		 DB	 0
  00109	02		 DB	 2
  0010a	03		 DB	 3
  0010b	02		 DB	 2
  0010c	03		 DB	 3
  0010d	02		 DB	 2
  0010e	03		 DB	 3
  0010f	02		 DB	 2
  00110	03		 DB	 3
  00111	02		 DB	 2
  00112	03		 DB	 3
  00113	03		 DB	 3
  00114	03		 DB	 3
  00115	03		 DB	 3
  00116	66 90		 npad	 2
$LN79@GetCandleP:
  00118	00 00 00 00	 DD	 $LN4@GetCandleP
  0011c	00 00 00 00	 DD	 $LN5@GetCandleP
  00120	00 00 00 00	 DD	 $LN6@GetCandleP
  00124	00 00 00 00	 DD	 $LN7@GetCandleP
_TEXT	ENDS
;	COMDAT text$x
text$x	SEGMENT
__unwindfunclet$?GetCandlePatternTrendName@CCandlePattern@@QAE?AV?$CStringT@DV?$StrTraitMFC_DLL@DV?$ChTraitsCRT@D@ATL@@@@@ATL@@H@Z$0:
  00000	8b 45 f0	 mov	 eax, DWORD PTR $T2[ebp]
  00003	83 e0 01	 and	 eax, 1
  00006	0f 84 0d 00 00
	00		 je	 $LN10@GetCandleP
  0000c	83 65 f0 fe	 and	 DWORD PTR $T2[ebp], -2	; fffffffeH
  00010	8b 4d 08	 mov	 ecx, DWORD PTR ___$ReturnUdt$[ebp]
  00013	ff 25 00 00 00
	00		 jmp	 DWORD PTR __imp_??1?$CStringT@DV?$StrTraitMFC_DLL@DV?$ChTraitsCRT@D@ATL@@@@@ATL@@QAE@XZ
$LN10@GetCandleP:
  00019	c3		 ret	 0
  0001a	cc		 int	 3
  0001b	cc		 int	 3
  0001c	cc		 int	 3
  0001d	cc		 int	 3
  0001e	cc		 int	 3
__ehhandler$?GetCandlePatternTrendName@CCandlePattern@@QAE?AV?$CStringT@DV?$StrTraitMFC_DLL@DV?$ChTraitsCRT@D@ATL@@@@@ATL@@H@Z:
  0001f	90		 npad	 1
  00020	90		 npad	 1
  00021	8b 54 24 08	 mov	 edx, DWORD PTR [esp+8]
  00025	8d 42 0c	 lea	 eax, DWORD PTR [edx+12]
  00028	8b 4a f0	 mov	 ecx, DWORD PTR [edx-16]
  0002b	33 c8		 xor	 ecx, eax
  0002d	e8 00 00 00 00	 call	 @__security_check_cookie@4
  00032	b8 00 00 00 00	 mov	 eax, OFFSET __ehfuncinfo$?GetCandlePatternTrendName@CCandlePattern@@QAE?AV?$CStringT@DV?$StrTraitMFC_DLL@DV?$ChTraitsCRT@D@ATL@@@@@ATL@@H@Z
  00037	e9 00 00 00 00	 jmp	 ___CxxFrameHandler3
text$x	ENDS
?GetCandlePatternTrendName@CCandlePattern@@QAE?AV?$CStringT@DV?$StrTraitMFC_DLL@DV?$ChTraitsCRT@D@ATL@@@@@ATL@@H@Z ENDP ; CCandlePattern::GetCandlePatternTrendName
; Function compile flags: /Ogtp
; File D:\git\src\IBK\IBK_DRFN\ProjSrc\SrcChartEx\ChartAddIn\ChartPatternAddIn\CandlePattern.cpp
;	COMDAT ?GetCandlePatternTrend@CCandlePattern@@QAEHH@Z
_TEXT	SEGMENT
_nCandlePatternType$ = 8				; size = 4
?GetCandlePatternTrend@CCandlePattern@@QAEHH@Z PROC	; CCandlePattern::GetCandlePatternTrend, COMDAT
; _this$ = ecx

; 3782 : {

  00000	55		 push	 ebp
  00001	8b ec		 mov	 ebp, esp

; 3783 : 	int nPatternTrend = 0;
; 3784 : 
; 3785 : 	// Get Pattern Trend
; 3786 : 	switch (nCandlePatternType)

  00003	8b 45 08	 mov	 eax, DWORD PTR _nCandlePatternType$[ebp]
  00006	33 c9		 xor	 ecx, ecx
  00008	05 bf e0 ff ff	 add	 eax, -8001		; ffffe0bfH
  0000d	83 f8 3d	 cmp	 eax, 61			; 0000003dH
  00010	77 34		 ja	 SHORT $LN2@GetCandleP
  00012	0f b6 80 00 00
	00 00		 movzx	 eax, BYTE PTR $LN67@GetCandleP[eax]
  00019	ff 24 85 00 00
	00 00		 jmp	 DWORD PTR $LN68@GetCandleP[eax*4]
$LN4@GetCandleP:

; 3787 : 	{
; 3788 : 	case CPTN_HAMMER:							// Hammer							()  
; 3789 : 	case CPTN_INVERTEDHAMMER:					// Inverted Hammer					()  
; 3790 : 	case CPTN_BULLISH_BELTHOLDLINE:				// Bullish Belt Hold Line			()
; 3791 : 	case CPTN_BULLISH_HARAMI:					// Bullish Harami					()
; 3792 : 	case CPTN_BULLISH_ENGULFING:				// Bullish Engulfing				() 
; 3793 : 	case CPTN_BULLISH_COUNTERATTACKLINE:		// Bullish Counterattack Line		()
; 3794 : 	case CPTN_PIERCINGPATTERN:					// Piercing Pattern					() 
; 3795 : 	case CPTN_MORNINGSTAR:						// Morning Star						() 
; 3796 : 	case CPTN_MORNINTDOJISTAR:					// Morning Doji Star				() 
; 3797 : 	case CPTN_ABANDONEDBABY_INDOWNTREND:		// Abandoned Baby In Downtrend		()
; 3798 : 	case CPTN_THREE_INSIDEUP:					// Three Indise Up					()
; 3799 : 	case CPTN_THREE_OUTSIDEUP:					// Three Outside Up					()
; 3800 : 	case CPTN_THREE_WHITESOLDIER:				// Three White Soldier				() 	
; 3801 : 	case CPTN_BULLISH_TRISTAR:					// Bullish Tri Star					() 
; 3802 : 	case CPTN_UNIQUETHREERIVERBOTTOM:			// Unique Three River Bottom		() 
; 3803 : 	case CPTN_BULLISH_BREAKAWAY:				// Bullish Breakaway				() 
; 3804 : 	case CPTN_THREESTARS_INTHESOUTH:			// Three Stars In The South			()
; 3805 : 	case CPTN_CONCEALINGBABY_SWALLOW:			// Concealing Baby Swallow			() 
; 3806 : 	case CPTN_STICKSANDWICH:					// Stick Sandwich					() 
; 3807 : 	case CPTN_BULLISH_KICKING:					// Bullish Kicking					()
; 3808 : 	case CPTN_HOMINGPIGEON:						// Homing Pigeon					() 
; 3809 : 	case CPTN_LADDERBOTTOM:						// Ladder Bottom					()                                                
; 3810 : 	case CPTN_MATCHINGLOW:						// Matching Low						() 
; 3811 : //	case CPTN_BULLISH_GRAVESTONE:				// Bullish GraveStone				( )	
; 3812 : //	case CPTN_BULLISH_DRAGONFLY:				// Bullish DragonFly				( )									        		
; 3813 : 		nPatternTrend = UPWARD_REVERSE;

  00020	b9 b9 0b 00 00	 mov	 ecx, 3001		; 00000bb9H

; 3862 : 		break;						
; 3863 : 	}
; 3864 : 
; 3865 : 	return	nPatternTrend;

  00025	8b c1		 mov	 eax, ecx

; 3866 : }

  00027	5d		 pop	 ebp
  00028	c2 04 00	 ret	 4
$LN27@GetCandleP:

; 3814 : 		break;
; 3815 : 		
; 3816 : 	case CPTN_HANGINGMAN:						// Hanging Man						()	
; 3817 : 	case CPTN_SHOOTINGSTAR:						// Shooting Star					()	
; 3818 : 	case CPTN_BEARISH_BELTHOLDLINE:				// Bearish Belt Hold Line			()
; 3819 : 	case CPTN_BEARISH_HARAMI:					// Bearish Harami					()
; 3820 : 	case CPTN_BEARISH_ENGULFING:				// Bearish Engulfing				()
; 3821 : 	case CPTN_BEARISH_COUNTERATTACKLINE:		// Bearish Counterattack Line		() 
; 3822 : 	case CPTN_DARKCLOUDCOVER:					// Dark Cloud Cover					() 
; 3823 : 	case CPTN_EVENINGSTAR:						// Evening Star						() 
; 3824 : 	case CPTN_EVENINGDOJISTAR:					// Evening Doji Star				()
; 3825 : 	case CPTN_ABANDONEDBABY_INUPTREND:			// Abandoned Baby In Uptrend		()
; 3826 : 	case CPTN_THREE_INSIDEDOWN:					// Three Indise Down				()
; 3827 : 	case CPTN_THREE_OUTSIDEDOWN:				// Three Outside Down				() 
; 3828 : 	case CPTN_UPSIDEGAPTWOCROWS_INUPTREND:		// Upside Gap Two Crows In Uptrend	() 
; 3829 : 	case CPTN_THREE_BLACKCROW:					// Three Black Corws				()	
; 3830 : 	case CPTN_BEARISH_TRISTAR:					// Bearish Tri Star					()
; 3831 : 	case CPTN_IDENTICAL_THREECROWS:				// Identical Three Corws			() 
; 3832 : 	case CPTN_BEARISH_BREAKAWAY:				// Bearish Breakaway				()  
; 3833 : 	case CPTN_TWOCORWS:							// Two Crows						() 
; 3834 : 	case CPTN_BEARISH_KICKING:					// Bearish Kicking					()					 			
; 3835 : 		nPatternTrend = DNWARD_REVERSE;

  0002b	b9 ba 0b 00 00	 mov	 ecx, 3002		; 00000bbaH

; 3862 : 		break;						
; 3863 : 	}
; 3864 : 
; 3865 : 	return	nPatternTrend;

  00030	8b c1		 mov	 eax, ecx

; 3866 : }

  00032	5d		 pop	 ebp
  00033	c2 04 00	 ret	 4
$LN46@GetCandleP:

; 3836 : 		break;
; 3837 : 		
; 3838 : 	case CPTN_LONG_WHITEBODY:					// Long White Body					()
; 3839 : 	case CPTN_STALLEDPATTERN:					// Stalled Pattern					()	
; 3840 : 	case CPTN_ADVANCEBLOCK:						// Advance Block					()
; 3841 : 	case CPTN_UPSIDEGAP_TASUKI:					// Upside Gap Tasuki				()
; 3842 : 	case CPTN_MATHOLD:							// Mat-Hold							()
; 3843 : 	case CPTN_BULLISH_SIDEBYSIDE_WHITELINE:		// Bullish Side-By-Side White Lines	() 	
; 3844 : 	case CPTN_RISING_THREEMETHODS:				// Rising Three Methods				()  
; 3845 : 	case CPTN_BULLISH_SEPARATINGLINES:			// Bullish Separating Lines			()
; 3846 : 	case CPTN_BULLISH_THREELINESTRIKE:			// Bullish Three-Line Strike		()
; 3847 : 	case CPTN_UPSIDEGAP_THREEMETHODS:			// Upside Gap Three Methods			() 
; 3848 : 		nPatternTrend = UPWARD_CONTINUE;

  00036	b9 bb 0b 00 00	 mov	 ecx, 3003		; 00000bbbH

; 3862 : 		break;						
; 3863 : 	}
; 3864 : 
; 3865 : 	return	nPatternTrend;

  0003b	8b c1		 mov	 eax, ecx

; 3866 : }

  0003d	5d		 pop	 ebp
  0003e	c2 04 00	 ret	 4
$LN56@GetCandleP:

; 3849 : 		break;
; 3850 : 		
; 3851 : 	case CPTN_LONG_BLACKBODY:					// Long Black Body					() 
; 3852 : 	case CPTN_DNSIDEGAP_TASUKI:					// Downside Gap Tasuki				()
; 3853 : 	case CPTN_BEARISH_SIDEBYSIDE_WHITELINE:		// Bearish Side-By-Side White Lines	() 
; 3854 : 	case CPTN_FALLING_THREEMETHODS:				// Falling Three Methods			()  
; 3855 : 	case CPTN_BEARISH_SEPARATINGLINES:			// Bearish Separating Lines			() 
; 3856 : 	case CPTN_BEARISH_THREELINESTRIKE:			// Bearish Three-Line Strike		() 
; 3857 : 	case CPTN_DNSIDEGAP_THREEMETHODS:			// Downside Gap Three Methods		()
; 3858 : 	case CPTN_ON_NECK:							// On Neck							()  
; 3859 : 	case CPTN_IN_NECK:							// In Neck							()  
; 3860 : 	case CPTN_THRUSTINGLINE:					// Thrusting Line					()  	
; 3861 : 		nPatternTrend = DNWARD_CONTINUE;

  00041	b9 bc 0b 00 00	 mov	 ecx, 3004		; 00000bbcH
$LN2@GetCandleP:

; 3862 : 		break;						
; 3863 : 	}
; 3864 : 
; 3865 : 	return	nPatternTrend;

  00046	8b c1		 mov	 eax, ecx

; 3866 : }

  00048	5d		 pop	 ebp
  00049	c2 04 00	 ret	 4
$LN68@GetCandleP:
  0004c	00 00 00 00	 DD	 $LN4@GetCandleP
  00050	00 00 00 00	 DD	 $LN27@GetCandleP
  00054	00 00 00 00	 DD	 $LN46@GetCandleP
  00058	00 00 00 00	 DD	 $LN56@GetCandleP
$LN67@GetCandleP:
  0005c	00		 DB	 0
  0005d	01		 DB	 1
  0005e	00		 DB	 0
  0005f	01		 DB	 1
  00060	00		 DB	 0
  00061	01		 DB	 1
  00062	02		 DB	 2
  00063	03		 DB	 3
  00064	00		 DB	 0
  00065	01		 DB	 1
  00066	00		 DB	 0
  00067	01		 DB	 1
  00068	00		 DB	 0
  00069	01		 DB	 1
  0006a	00		 DB	 0
  0006b	01		 DB	 1
  0006c	00		 DB	 0
  0006d	01		 DB	 1
  0006e	00		 DB	 0
  0006f	01		 DB	 1
  00070	00		 DB	 0
  00071	01		 DB	 1
  00072	00		 DB	 0
  00073	01		 DB	 1
  00074	00		 DB	 0
  00075	01		 DB	 1
  00076	01		 DB	 1
  00077	00		 DB	 0
  00078	01		 DB	 1
  00079	02		 DB	 2
  0007a	02		 DB	 2
  0007b	02		 DB	 2
  0007c	03		 DB	 3
  0007d	02		 DB	 2
  0007e	00		 DB	 0
  0007f	01		 DB	 1
  00080	00		 DB	 0
  00081	01		 DB	 1
  00082	00		 DB	 0
  00083	01		 DB	 1
  00084	01		 DB	 1
  00085	00		 DB	 0
  00086	00		 DB	 0
  00087	00		 DB	 0
  00088	00		 DB	 0
  00089	01		 DB	 1
  0008a	00		 DB	 0
  0008b	00		 DB	 0
  0008c	00		 DB	 0
  0008d	02		 DB	 2
  0008e	03		 DB	 3
  0008f	02		 DB	 2
  00090	03		 DB	 3
  00091	02		 DB	 2
  00092	03		 DB	 3
  00093	02		 DB	 2
  00094	03		 DB	 3
  00095	02		 DB	 2
  00096	03		 DB	 3
  00097	03		 DB	 3
  00098	03		 DB	 3
  00099	03		 DB	 3
?GetCandlePatternTrend@CCandlePattern@@QAEHH@Z ENDP	; CCandlePattern::GetCandlePatternTrend
_TEXT	ENDS
; Function compile flags: /Ogtp
; File D:\git\src\IBK\IBK_DRFN\ProjSrc\SrcChartEx\ChartAddIn\ChartPatternAddIn\CandlePattern.cpp
; File D:\git\src\IBK\IBK_DRFN\ProjSrc\SrcChartEx\ChartAddIn\ChartPatternAddIn\Include_Chart\Dll_Load\IMetaTable.h
; File C:\Program Files (x86)\Microsoft Visual Studio\2019\Community\VC\Tools\MSVC\14.29.30133\atlmfc\include\afxwin1.inl
; File D:\git\src\IBK\IBK_DRFN\ProjSrc\SrcChartEx\ChartAddIn\ChartPatternAddIn\Include_Chart\Dll_Load\IMetaTable.h
; File C:\Program Files (x86)\Microsoft Visual Studio\2019\Community\VC\Tools\MSVC\14.29.30133\atlmfc\include\afxwin1.inl
; File D:\git\src\IBK\IBK_DRFN\ProjSrc\SrcChartEx\ChartAddIn\ChartPatternAddIn\CandlePattern.cpp
; File D:\git\src\IBK\IBK_DRFN\ProjSrc\SrcChartEx\ChartAddIn\ChartPatternAddIn\Include_Chart\Dll_Load\IMetaTable.h
; File C:\Program Files (x86)\Microsoft Visual Studio\2019\Community\VC\Tools\MSVC\14.29.30133\atlmfc\include\afxwin1.inl
; File D:\git\src\IBK\IBK_DRFN\ProjSrc\SrcChartEx\ChartAddIn\ChartPatternAddIn\CandlePattern.cpp
;	COMDAT ?GetCandlePatternName@CCandlePattern@@QAE?AV?$CStringT@DV?$StrTraitMFC_DLL@DV?$ChTraitsCRT@D@ATL@@@@@ATL@@H@Z
_TEXT	SEGMENT
___mlrs__$ = -20					; size = 4
$T2 = -16						; size = 4
__$EHRec$ = -12						; size = 12
___$ReturnUdt$ = 8					; size = 4
_nCandlePatternType$ = 12				; size = 4
?GetCandlePatternName@CCandlePattern@@QAE?AV?$CStringT@DV?$StrTraitMFC_DLL@DV?$ChTraitsCRT@D@ATL@@@@@ATL@@H@Z PROC ; CCandlePattern::GetCandlePatternName, COMDAT
; _this$ = ecx

; 3507 : {

  00000	55		 push	 ebp
  00001	8b ec		 mov	 ebp, esp
  00003	6a ff		 push	 -1
  00005	68 00 00 00 00	 push	 __ehhandler$?GetCandlePatternName@CCandlePattern@@QAE?AV?$CStringT@DV?$StrTraitMFC_DLL@DV?$ChTraitsCRT@D@ATL@@@@@ATL@@H@Z
  0000a	64 a1 00 00 00
	00		 mov	 eax, DWORD PTR fs:0
  00010	50		 push	 eax
  00011	83 ec 08	 sub	 esp, 8
  00014	53		 push	 ebx
  00015	56		 push	 esi
  00016	57		 push	 edi
  00017	a1 00 00 00 00	 mov	 eax, DWORD PTR ___security_cookie
  0001c	33 c5		 xor	 eax, ebp
  0001e	50		 push	 eax
  0001f	8d 45 f4	 lea	 eax, DWORD PTR __$EHRec$[ebp]
  00022	64 a3 00 00 00
	00		 mov	 DWORD PTR fs:0, eax
  00028	8b f1		 mov	 esi, ecx
  0002a	c7 45 fc 00 00
	00 00		 mov	 DWORD PTR __$EHRec$[ebp+8], 0
  00031	c7 45 f0 00 00
	00 00		 mov	 DWORD PTR $T2[ebp], 0

; 3508 : 	ML_SET_LANGUAGE_RES();

  00038	e8 00 00 00 00	 call	 ?AfxGetStaticModuleState@@YGPAVAFX_MODULE_STATE@@XZ ; AfxGetStaticModuleState
  0003d	8b 76 04	 mov	 esi, DWORD PTR [esi+4]
  00040	8b 78 08	 mov	 edi, DWORD PTR [eax+8]
; File D:\git\src\IBK\IBK_DRFN\ProjSrc\SrcChartEx\ChartAddIn\ChartPatternAddIn\Include_Chart\Dll_Load\IMetaTable.h

; 935  : 	DECLARE_FUNCTION2(	LoadResourceDLL,				HMODULE, AfxGetStaticModuleState()->m_hCurrentInstanceHandle, HWND, HMODULE);

  00043	a1 04 00 00 00	 mov	 eax, DWORD PTR ?g_iMetaTable@@3VIMetaTable@@A+4
  00048	85 c0		 test	 eax, eax
  0004a	74 46		 je	 SHORT $LN73@GetCandleP
  0004c	bb 80 0d 00 00	 mov	 ebx, 3456		; 00000d80H
  00051	66 3b 1d 94 00
	00 00		 cmp	 bx, WORD PTR ?g_iMetaTable@@3VIMetaTable@@A+148
  00058	74 24		 je	 SHORT $LN87@GetCandleP
  0005a	68 00 00 00 00	 push	 OFFSET ??_C@_0BA@ENJOCHIO@LoadResourceDLL@
  0005f	50		 push	 eax
  00060	c7 05 90 00 00
	00 00 00 00 00	 mov	 DWORD PTR ?g_iMetaTable@@3VIMetaTable@@A+144, 0
  0006a	ff 15 00 00 00
	00		 call	 DWORD PTR __imp__GetProcAddress@8
  00070	a3 90 00 00 00	 mov	 DWORD PTR ?g_iMetaTable@@3VIMetaTable@@A+144, eax
  00075	66 89 1d 94 00
	00 00		 mov	 WORD PTR ?g_iMetaTable@@3VIMetaTable@@A+148, bx
  0007c	eb 05		 jmp	 SHORT $LN72@GetCandleP
$LN87@GetCandleP:
  0007e	a1 90 00 00 00	 mov	 eax, DWORD PTR ?g_iMetaTable@@3VIMetaTable@@A+144
$LN72@GetCandleP:
  00083	85 c0		 test	 eax, eax
  00085	74 0b		 je	 SHORT $LN73@GetCandleP
  00087	57		 push	 edi
  00088	56		 push	 esi
  00089	ff d0		 call	 eax
  0008b	83 c4 08	 add	 esp, 8
  0008e	8b f8		 mov	 edi, eax
  00090	eb 08		 jmp	 SHORT $LN70@GetCandleP
$LN73@GetCandleP:
  00092	e8 00 00 00 00	 call	 ?AfxGetStaticModuleState@@YGPAVAFX_MODULE_STATE@@XZ ; AfxGetStaticModuleState
  00097	8b 78 08	 mov	 edi, DWORD PTR [eax+8]
$LN70@GetCandleP:
; File C:\Program Files (x86)\Microsoft Visual Studio\2019\Community\VC\Tools\MSVC\14.29.30133\atlmfc\include\afxwin1.inl

; 25   : 		return afxCurrentResourceHandle; }

  0009a	e8 00 00 00 00	 call	 ?AfxGetModuleState@@YGPAVAFX_MODULE_STATE@@XZ ; AfxGetModuleState
; File D:\git\src\IBK\IBK_DRFN\ProjSrc\SrcChartEx\ChartAddIn\ChartPatternAddIn\Include_Chart\Dll_Load\IMetaTable.h

; 1031 : 		m_hInstance = AfxGetResourceHandle();

  0009f	8b 70 0c	 mov	 esi, DWORD PTR [eax+12]
  000a2	89 75 ec	 mov	 DWORD PTR ___mlrs__$[ebp], esi
; File C:\Program Files (x86)\Microsoft Visual Studio\2019\Community\VC\Tools\MSVC\14.29.30133\atlmfc\include\afxwin1.inl

; 27   : 	{ ASSERT(hInstResource != NULL); afxCurrentResourceHandle = hInstResource; }

  000a5	e8 00 00 00 00	 call	 ?AfxGetModuleState@@YGPAVAFX_MODULE_STATE@@XZ ; AfxGetModuleState
  000aa	89 78 0c	 mov	 DWORD PTR [eax+12], edi
; File D:\git\src\IBK\IBK_DRFN\ProjSrc\SrcChartEx\ChartAddIn\ChartPatternAddIn\CandlePattern.cpp

; 3510 : 	CString strCandlePatternName;

  000ad	8b 7d 08	 mov	 edi, DWORD PTR ___$ReturnUdt$[ebp]
  000b0	8b cf		 mov	 ecx, edi
  000b2	c7 45 fc 01 00
	00 00		 mov	 DWORD PTR __$EHRec$[ebp+8], 1
  000b9	ff 15 00 00 00
	00		 call	 DWORD PTR __imp_??0?$CStringT@DV?$StrTraitMFC_DLL@DV?$ChTraitsCRT@D@ATL@@@@@ATL@@QAE@XZ

; 3774 : 	return	strCandlePatternName;

  000bf	68 00 00 00 00	 push	 OFFSET ??_C@_00CNPNBAHC@@
  000c4	8b cf		 mov	 ecx, edi
  000c6	c7 45 f0 01 00
	00 00		 mov	 DWORD PTR $T2[ebp], 1
  000cd	ff 15 00 00 00
	00		 call	 DWORD PTR __imp_??4?$CStringT@DV?$StrTraitMFC_DLL@DV?$ChTraitsCRT@D@ATL@@@@@ATL@@QAEAAV01@PBD@Z
  000d3	8b 45 0c	 mov	 eax, DWORD PTR _nCandlePatternType$[ebp]
  000d6	05 bf e0 ff ff	 add	 eax, -8001		; ffffe0bfH
  000db	83 f8 3d	 cmp	 eax, 61			; 0000003dH
  000de	0f 87 89 03 00
	00		 ja	 $LN2@GetCandleP

; 3511 : 	strCandlePatternName =_T("");
; 3512 : 
; 3513 : // 2008.02.20 by LYH >>
; 3514 : 	// Get Pattern Name
; 3515 : 	switch (nCandlePatternType)

  000e4	ff 24 85 00 00
	00 00		 jmp	 DWORD PTR $LN86@GetCandleP[eax*4]
$LN4@GetCandleP:

; 3516 : 	{
; 3517 : 	case CPTN_HAMMER:							// Hammer							()          		
; 3518 : 		//strCandlePatternName = STR_HAMMER;							
; 3519 : 		strCandlePatternName.LoadString(IDS_HAMMER);

  000eb	6a 1e		 push	 30			; 0000001eH
  000ed	8b cf		 mov	 ecx, edi
  000ef	ff 15 00 00 00
	00		 call	 DWORD PTR __imp_?LoadStringA@?$CStringT@DV?$StrTraitMFC_DLL@DV?$ChTraitsCRT@D@ATL@@@@@ATL@@QAEHI@Z

; 3520 : 		break;

  000f5	e9 73 03 00 00	 jmp	 $LN2@GetCandleP
$LN5@GetCandleP:

; 3521 : 	case CPTN_HANGINGMAN:						// Hanging Man						()                                                      
; 3522 : 		//strCandlePatternName = STR_HANGINGMAN;						
; 3523 : 		strCandlePatternName.LoadString(IDS_HANGINGMAN);						

  000fa	6a 1f		 push	 31			; 0000001fH
  000fc	8b cf		 mov	 ecx, edi
  000fe	ff 15 00 00 00
	00		 call	 DWORD PTR __imp_?LoadStringA@?$CStringT@DV?$StrTraitMFC_DLL@DV?$ChTraitsCRT@D@ATL@@@@@ATL@@QAEHI@Z

; 3524 : 		break;

  00104	e9 64 03 00 00	 jmp	 $LN2@GetCandleP
$LN6@GetCandleP:

; 3525 : 	case CPTN_INVERTEDHAMMER:					// Inverted Hammer					()                                                    
; 3526 : 		//strCandlePatternName = STR_INVERTEDHAMMER;					
; 3527 : 		strCandlePatternName.LoadString(IDS_INVERTEDHAMMER);					

  00109	6a 20		 push	 32			; 00000020H
  0010b	8b cf		 mov	 ecx, edi
  0010d	ff 15 00 00 00
	00		 call	 DWORD PTR __imp_?LoadStringA@?$CStringT@DV?$StrTraitMFC_DLL@DV?$ChTraitsCRT@D@ATL@@@@@ATL@@QAEHI@Z

; 3528 : 		break;

  00113	e9 55 03 00 00	 jmp	 $LN2@GetCandleP
$LN7@GetCandleP:

; 3529 : 	case CPTN_SHOOTINGSTAR:						// Shooting Star					()                                                      
; 3530 : 		//strCandlePatternName = STR_SHOOTINGSTAR;				
; 3531 : 		strCandlePatternName.LoadString(IDS_SHOOTINGSTAR);				

  00118	6a 21		 push	 33			; 00000021H
  0011a	8b cf		 mov	 ecx, edi
  0011c	ff 15 00 00 00
	00		 call	 DWORD PTR __imp_?LoadStringA@?$CStringT@DV?$StrTraitMFC_DLL@DV?$ChTraitsCRT@D@ATL@@@@@ATL@@QAEHI@Z

; 3532 : 		break;

  00122	e9 46 03 00 00	 jmp	 $LN2@GetCandleP
$LN8@GetCandleP:

; 3533 : 	case CPTN_BULLISH_BELTHOLDLINE:				// Bullish Belt Hold Line			()                                                  
; 3534 : 		//strCandlePatternName = STR_BULLISH_BELTHOLDLINE;			
; 3535 : 		strCandlePatternName.LoadString(IDS_BULLISH_BELTHOLDLINE);			

  00127	6a 22		 push	 34			; 00000022H
  00129	8b cf		 mov	 ecx, edi
  0012b	ff 15 00 00 00
	00		 call	 DWORD PTR __imp_?LoadStringA@?$CStringT@DV?$StrTraitMFC_DLL@DV?$ChTraitsCRT@D@ATL@@@@@ATL@@QAEHI@Z

; 3536 : 		break;

  00131	e9 37 03 00 00	 jmp	 $LN2@GetCandleP
$LN9@GetCandleP:

; 3537 : 	case CPTN_BEARISH_BELTHOLDLINE:				// Bearish Belt Hold Line			()                                                  
; 3538 : 		//strCandlePatternName = STR_BEARISH_BELTHOLDLINE;		
; 3539 : 		strCandlePatternName.LoadString(IDS_BEARISH_BELTHOLDLINE);		

  00136	6a 23		 push	 35			; 00000023H
  00138	8b cf		 mov	 ecx, edi
  0013a	ff 15 00 00 00
	00		 call	 DWORD PTR __imp_?LoadStringA@?$CStringT@DV?$StrTraitMFC_DLL@DV?$ChTraitsCRT@D@ATL@@@@@ATL@@QAEHI@Z

; 3540 : 		break;

  00140	e9 28 03 00 00	 jmp	 $LN2@GetCandleP
$LN10@GetCandleP:

; 3541 : 	case CPTN_LONG_WHITEBODY:					// Long White Body					()                                                    
; 3542 : 		//strCandlePatternName = STR_LONG_WHITEBODY;					
; 3543 : 		strCandlePatternName.LoadString(IDS_LONG_WHITEBODY);					

  00145	6a 24		 push	 36			; 00000024H
  00147	8b cf		 mov	 ecx, edi
  00149	ff 15 00 00 00
	00		 call	 DWORD PTR __imp_?LoadStringA@?$CStringT@DV?$StrTraitMFC_DLL@DV?$ChTraitsCRT@D@ATL@@@@@ATL@@QAEHI@Z

; 3544 : 		break;

  0014f	e9 19 03 00 00	 jmp	 $LN2@GetCandleP
$LN11@GetCandleP:

; 3545 : 	case CPTN_LONG_BLACKBODY:					// Long Black Body					()                                                    
; 3546 : 		//strCandlePatternName = STR_LONG_BLACKBODY;					
; 3547 : 		strCandlePatternName.LoadString(IDS_LONG_BLACKBODY);					

  00154	6a 25		 push	 37			; 00000025H
  00156	8b cf		 mov	 ecx, edi
  00158	ff 15 00 00 00
	00		 call	 DWORD PTR __imp_?LoadStringA@?$CStringT@DV?$StrTraitMFC_DLL@DV?$ChTraitsCRT@D@ATL@@@@@ATL@@QAEHI@Z

; 3548 : 		break;

  0015e	e9 0a 03 00 00	 jmp	 $LN2@GetCandleP
$LN12@GetCandleP:

; 3549 : 	case CPTN_BULLISH_HARAMI:					// Bullish Harami					()                                                  
; 3550 : 		//strCandlePatternName = STR_BULLISH_HARAMI;					
; 3551 : 		strCandlePatternName.LoadString(IDS_BULLISH_HARAMI);					

  00163	6a 26		 push	 38			; 00000026H
  00165	8b cf		 mov	 ecx, edi
  00167	ff 15 00 00 00
	00		 call	 DWORD PTR __imp_?LoadStringA@?$CStringT@DV?$StrTraitMFC_DLL@DV?$ChTraitsCRT@D@ATL@@@@@ATL@@QAEHI@Z

; 3552 : 		break;

  0016d	e9 fb 02 00 00	 jmp	 $LN2@GetCandleP
$LN13@GetCandleP:

; 3553 : 	case CPTN_BEARISH_HARAMI:					// Bearish Harami					()                                                  
; 3554 : 		//strCandlePatternName = STR_BEARISH_HARAMI;					
; 3555 : 		strCandlePatternName.LoadString(IDS_BEARISH_HARAMI);					

  00172	6a 27		 push	 39			; 00000027H
  00174	8b cf		 mov	 ecx, edi
  00176	ff 15 00 00 00
	00		 call	 DWORD PTR __imp_?LoadStringA@?$CStringT@DV?$StrTraitMFC_DLL@DV?$ChTraitsCRT@D@ATL@@@@@ATL@@QAEHI@Z

; 3556 : 		break;

  0017c	e9 ec 02 00 00	 jmp	 $LN2@GetCandleP
$LN14@GetCandleP:

; 3557 : 	case CPTN_BULLISH_ENGULFING:				// Bullish Engulfing				()                                                  
; 3558 : 		//strCandlePatternName = STR_BULLISH_ENGULFING;				
; 3559 : 		strCandlePatternName.LoadString(IDS_BULLISH_ENGULFING);				

  00181	6a 28		 push	 40			; 00000028H
  00183	8b cf		 mov	 ecx, edi
  00185	ff 15 00 00 00
	00		 call	 DWORD PTR __imp_?LoadStringA@?$CStringT@DV?$StrTraitMFC_DLL@DV?$ChTraitsCRT@D@ATL@@@@@ATL@@QAEHI@Z

; 3560 : 		break;

  0018b	e9 dd 02 00 00	 jmp	 $LN2@GetCandleP
$LN15@GetCandleP:

; 3561 : 	case CPTN_BEARISH_ENGULFING:				// Bearish Engulfing				()                                                  
; 3562 : 		//strCandlePatternName = STR_BEARISH_ENGULFING;				
; 3563 : 		strCandlePatternName.LoadString(IDS_BEARISH_ENGULFING);				

  00190	6a 29		 push	 41			; 00000029H
  00192	8b cf		 mov	 ecx, edi
  00194	ff 15 00 00 00
	00		 call	 DWORD PTR __imp_?LoadStringA@?$CStringT@DV?$StrTraitMFC_DLL@DV?$ChTraitsCRT@D@ATL@@@@@ATL@@QAEHI@Z

; 3564 : 		break;

  0019a	e9 ce 02 00 00	 jmp	 $LN2@GetCandleP
$LN16@GetCandleP:

; 3565 : 	case CPTN_BULLISH_COUNTERATTACKLINE:		// Bullish Counterattack Line		()                                                  
; 3566 : 		//strCandlePatternName = STR_BULLISH_COUNTERATTACKLINE;		
; 3567 : 		strCandlePatternName.LoadString(IDS_BULLISH_COUNTERATTACKLINE);		

  0019f	6a 2a		 push	 42			; 0000002aH
  001a1	8b cf		 mov	 ecx, edi
  001a3	ff 15 00 00 00
	00		 call	 DWORD PTR __imp_?LoadStringA@?$CStringT@DV?$StrTraitMFC_DLL@DV?$ChTraitsCRT@D@ATL@@@@@ATL@@QAEHI@Z

; 3568 : 		break;

  001a9	e9 bf 02 00 00	 jmp	 $LN2@GetCandleP
$LN17@GetCandleP:

; 3569 : 	case CPTN_BEARISH_COUNTERATTACKLINE:		// Bearish Counterattack Line		()                                                  
; 3570 : 		//strCandlePatternName = STR_BEARISH_COUNTERATTACKLINE;		
; 3571 : 		strCandlePatternName.LoadString(IDS_BEARISH_COUNTERATTACKLINE);		

  001ae	6a 2b		 push	 43			; 0000002bH
  001b0	8b cf		 mov	 ecx, edi
  001b2	ff 15 00 00 00
	00		 call	 DWORD PTR __imp_?LoadStringA@?$CStringT@DV?$StrTraitMFC_DLL@DV?$ChTraitsCRT@D@ATL@@@@@ATL@@QAEHI@Z

; 3572 : 		break;

  001b8	e9 b0 02 00 00	 jmp	 $LN2@GetCandleP
$LN18@GetCandleP:

; 3573 : 	case CPTN_PIERCINGPATTERN:					// Piercing Pattern					()                                                      
; 3574 : 		//strCandlePatternName = STR_PIERCINGPATTERN;				    
; 3575 : 		strCandlePatternName.LoadString(IDS_PIERCINGPATTERN);				    

  001bd	6a 2c		 push	 44			; 0000002cH
  001bf	8b cf		 mov	 ecx, edi
  001c1	ff 15 00 00 00
	00		 call	 DWORD PTR __imp_?LoadStringA@?$CStringT@DV?$StrTraitMFC_DLL@DV?$ChTraitsCRT@D@ATL@@@@@ATL@@QAEHI@Z

; 3576 : 		break;

  001c7	e9 a1 02 00 00	 jmp	 $LN2@GetCandleP
$LN19@GetCandleP:

; 3577 : 	case CPTN_DARKCLOUDCOVER:					// Dark Cloud Cover					()                                                    
; 3578 : 		//strCandlePatternName = STR_DARKCLOUDCOVER;					
; 3579 : 		strCandlePatternName.LoadString(IDS_DARKCLOUDCOVER);					

  001cc	6a 2d		 push	 45			; 0000002dH
  001ce	8b cf		 mov	 ecx, edi
  001d0	ff 15 00 00 00
	00		 call	 DWORD PTR __imp_?LoadStringA@?$CStringT@DV?$StrTraitMFC_DLL@DV?$ChTraitsCRT@D@ATL@@@@@ATL@@QAEHI@Z

; 3580 : 		break;

  001d6	e9 92 02 00 00	 jmp	 $LN2@GetCandleP
$LN20@GetCandleP:

; 3581 : 	case CPTN_MORNINGSTAR:						// Morning Star						()                                                      
; 3582 : 		//strCandlePatternName = STR_MORNINGSTAR;					    
; 3583 : 		strCandlePatternName.LoadString(IDS_MORNINGSTAR);					    

  001db	6a 2e		 push	 46			; 0000002eH
  001dd	8b cf		 mov	 ecx, edi
  001df	ff 15 00 00 00
	00		 call	 DWORD PTR __imp_?LoadStringA@?$CStringT@DV?$StrTraitMFC_DLL@DV?$ChTraitsCRT@D@ATL@@@@@ATL@@QAEHI@Z

; 3584 : 		break;

  001e5	e9 83 02 00 00	 jmp	 $LN2@GetCandleP
$LN21@GetCandleP:

; 3585 : 	case CPTN_EVENINGSTAR:						// Evening Star						()                                                      
; 3586 : 		//strCandlePatternName = STR_EVENINGSTAR;				    
; 3587 : 		strCandlePatternName.LoadString(IDS_EVENINGSTAR);				    

  001ea	6a 2f		 push	 47			; 0000002fH
  001ec	8b cf		 mov	 ecx, edi
  001ee	ff 15 00 00 00
	00		 call	 DWORD PTR __imp_?LoadStringA@?$CStringT@DV?$StrTraitMFC_DLL@DV?$ChTraitsCRT@D@ATL@@@@@ATL@@QAEHI@Z

; 3588 : 		break;

  001f4	e9 74 02 00 00	 jmp	 $LN2@GetCandleP
$LN22@GetCandleP:

; 3589 : 	case CPTN_MORNINTDOJISTAR:					// Morning Doji Star				()                                                  
; 3590 : 		//strCandlePatternName = STR_MORNINTDOJISTAR;				    
; 3591 : 		strCandlePatternName.LoadString(IDS_MORNINTDOJISTAR);				    

  001f9	6a 30		 push	 48			; 00000030H
  001fb	8b cf		 mov	 ecx, edi
  001fd	ff 15 00 00 00
	00		 call	 DWORD PTR __imp_?LoadStringA@?$CStringT@DV?$StrTraitMFC_DLL@DV?$ChTraitsCRT@D@ATL@@@@@ATL@@QAEHI@Z

; 3592 : 		break;

  00203	e9 65 02 00 00	 jmp	 $LN2@GetCandleP
$LN23@GetCandleP:

; 3593 : 	case CPTN_EVENINGDOJISTAR:					// Evening Doji Star				()                                                  
; 3594 : 		//strCandlePatternName = STR_EVENINGDOJISTAR;				    
; 3595 : 		strCandlePatternName.LoadString(IDS_EVENINGDOJISTAR);				    

  00208	6a 31		 push	 49			; 00000031H
  0020a	8b cf		 mov	 ecx, edi
  0020c	ff 15 00 00 00
	00		 call	 DWORD PTR __imp_?LoadStringA@?$CStringT@DV?$StrTraitMFC_DLL@DV?$ChTraitsCRT@D@ATL@@@@@ATL@@QAEHI@Z

; 3596 : 		break;

  00212	e9 56 02 00 00	 jmp	 $LN2@GetCandleP
$LN24@GetCandleP:

; 3597 : 	case CPTN_ABANDONEDBABY_INDOWNTREND:		// Abandoned Baby In Downtrend		()                                                  
; 3598 : 		//strCandlePatternName = STR_ABANDONEDBABY_INDOWNTREND;		
; 3599 : 		strCandlePatternName.LoadString(IDS_ABANDONEDBABY_INDOWNTREND);		

  00217	6a 32		 push	 50			; 00000032H
  00219	8b cf		 mov	 ecx, edi
  0021b	ff 15 00 00 00
	00		 call	 DWORD PTR __imp_?LoadStringA@?$CStringT@DV?$StrTraitMFC_DLL@DV?$ChTraitsCRT@D@ATL@@@@@ATL@@QAEHI@Z

; 3600 : 		break;

  00221	e9 47 02 00 00	 jmp	 $LN2@GetCandleP
$LN25@GetCandleP:

; 3601 : 	case CPTN_ABANDONEDBABY_INUPTREND:			// Abandoned Baby In Uptrend		()                                                  
; 3602 : 		//strCandlePatternName = STR_ABANDONEDBABY_INUPTREND;		    
; 3603 : 		strCandlePatternName.LoadString(IDS_ABANDONEDBABY_INUPTREND);		    

  00226	6a 33		 push	 51			; 00000033H
  00228	8b cf		 mov	 ecx, edi
  0022a	ff 15 00 00 00
	00		 call	 DWORD PTR __imp_?LoadStringA@?$CStringT@DV?$StrTraitMFC_DLL@DV?$ChTraitsCRT@D@ATL@@@@@ATL@@QAEHI@Z

; 3604 : 		break;

  00230	e9 38 02 00 00	 jmp	 $LN2@GetCandleP
$LN26@GetCandleP:

; 3605 : 	case CPTN_THREE_INSIDEUP:					// Three Indise Up					()                                              
; 3606 : 		//strCandlePatternName = STR_THREE_INSIDEUP;					
; 3607 : 		strCandlePatternName.LoadString(IDS_THREE_INSIDEUP);					

  00235	6a 34		 push	 52			; 00000034H
  00237	8b cf		 mov	 ecx, edi
  00239	ff 15 00 00 00
	00		 call	 DWORD PTR __imp_?LoadStringA@?$CStringT@DV?$StrTraitMFC_DLL@DV?$ChTraitsCRT@D@ATL@@@@@ATL@@QAEHI@Z

; 3608 : 		break;

  0023f	e9 29 02 00 00	 jmp	 $LN2@GetCandleP
$LN27@GetCandleP:

; 3609 : 	case CPTN_THREE_INSIDEDOWN:					// Three Indise Down				()                                              
; 3610 : 		//strCandlePatternName = STR_THREE_INSIDEDOWN;			
; 3611 : 		strCandlePatternName.LoadString(IDS_THREE_INSIDEDOWN);			

  00244	6a 35		 push	 53			; 00000035H
  00246	8b cf		 mov	 ecx, edi
  00248	ff 15 00 00 00
	00		 call	 DWORD PTR __imp_?LoadStringA@?$CStringT@DV?$StrTraitMFC_DLL@DV?$ChTraitsCRT@D@ATL@@@@@ATL@@QAEHI@Z

; 3612 : 		break;

  0024e	e9 1a 02 00 00	 jmp	 $LN2@GetCandleP
$LN28@GetCandleP:

; 3613 : 	case CPTN_THREE_OUTSIDEUP:					// Three Outside Up					()                                              
; 3614 : 		//strCandlePatternName = STR_THREE_OUTSIDEUP;				    
; 3615 : 		strCandlePatternName.LoadString(IDS_THREE_OUTSIDEUP);				    

  00253	6a 36		 push	 54			; 00000036H
  00255	8b cf		 mov	 ecx, edi
  00257	ff 15 00 00 00
	00		 call	 DWORD PTR __imp_?LoadStringA@?$CStringT@DV?$StrTraitMFC_DLL@DV?$ChTraitsCRT@D@ATL@@@@@ATL@@QAEHI@Z

; 3616 : 		break;

  0025d	e9 0b 02 00 00	 jmp	 $LN2@GetCandleP
$LN29@GetCandleP:

; 3617 : 	case CPTN_THREE_OUTSIDEDOWN:				// Three Outside Down				()                                              
; 3618 : 		//strCandlePatternName = STR_THREE_OUTSIDEDOWN;				
; 3619 : 		strCandlePatternName.LoadString(IDS_THREE_OUTSIDEDOWN);				

  00262	6a 37		 push	 55			; 00000037H
  00264	8b cf		 mov	 ecx, edi
  00266	ff 15 00 00 00
	00		 call	 DWORD PTR __imp_?LoadStringA@?$CStringT@DV?$StrTraitMFC_DLL@DV?$ChTraitsCRT@D@ATL@@@@@ATL@@QAEHI@Z

; 3620 : 		break;

  0026c	e9 fc 01 00 00	 jmp	 $LN2@GetCandleP
$LN30@GetCandleP:

; 3621 : 	case CPTN_UPSIDEGAPTWOCROWS_INUPTREND:		// Upside Gap Two Crows In Uptrend	()                                                    
; 3622 : 		//strCandlePatternName = STR_UPSIDEGAPTWOCROWS_INUPTREND;	    
; 3623 : 		strCandlePatternName.LoadString(IDS_UPSIDEGAPTWOCROWS_INUPTREND);	    

  00271	6a 38		 push	 56			; 00000038H
  00273	8b cf		 mov	 ecx, edi
  00275	ff 15 00 00 00
	00		 call	 DWORD PTR __imp_?LoadStringA@?$CStringT@DV?$StrTraitMFC_DLL@DV?$ChTraitsCRT@D@ATL@@@@@ATL@@QAEHI@Z

; 3624 : 		break;

  0027b	e9 ed 01 00 00	 jmp	 $LN2@GetCandleP
$LN31@GetCandleP:

; 3625 : 	case CPTN_THREE_WHITESOLDIER:				// Three White Soldier				()                                                      
; 3626 : 		//strCandlePatternName = STR_THREE_WHITESOLDIER;				
; 3627 : 		strCandlePatternName.LoadString(IDS_THREE_WHITESOLDIER);				

  00280	6a 39		 push	 57			; 00000039H
  00282	8b cf		 mov	 ecx, edi
  00284	ff 15 00 00 00
	00		 call	 DWORD PTR __imp_?LoadStringA@?$CStringT@DV?$StrTraitMFC_DLL@DV?$ChTraitsCRT@D@ATL@@@@@ATL@@QAEHI@Z

; 3628 : 		break;

  0028a	e9 de 01 00 00	 jmp	 $LN2@GetCandleP
$LN32@GetCandleP:

; 3629 : 	case CPTN_THREE_BLACKCROW:					// Three Black Corws				()                                                      
; 3630 : 		//strCandlePatternName = STR_THREE_BLACKCROW;				    
; 3631 : 		strCandlePatternName.LoadString(IDS_THREE_BLACKCROW);				    

  0028f	6a 3a		 push	 58			; 0000003aH
  00291	8b cf		 mov	 ecx, edi
  00293	ff 15 00 00 00
	00		 call	 DWORD PTR __imp_?LoadStringA@?$CStringT@DV?$StrTraitMFC_DLL@DV?$ChTraitsCRT@D@ATL@@@@@ATL@@QAEHI@Z

; 3632 : 		break;

  00299	e9 cf 01 00 00	 jmp	 $LN2@GetCandleP
$LN33@GetCandleP:

; 3633 : 	case CPTN_STALLEDPATTERN:					// Stalled Pattern					()                                                      
; 3634 : 		//strCandlePatternName = STR_STALLEDPATTERN;					
; 3635 : 		strCandlePatternName.LoadString(IDS_STALLEDPATTERN);					

  0029e	6a 3b		 push	 59			; 0000003bH
  002a0	8b cf		 mov	 ecx, edi
  002a2	ff 15 00 00 00
	00		 call	 DWORD PTR __imp_?LoadStringA@?$CStringT@DV?$StrTraitMFC_DLL@DV?$ChTraitsCRT@D@ATL@@@@@ATL@@QAEHI@Z

; 3636 : 		break;

  002a8	e9 c0 01 00 00	 jmp	 $LN2@GetCandleP
$LN34@GetCandleP:

; 3637 : 	case CPTN_ADVANCEBLOCK:						// Advance Block					()                                                      
; 3638 : 		//strCandlePatternName = STR_ADVANCEBLOCK;					
; 3639 : 		strCandlePatternName.LoadString(IDS_ADVANCEBLOCK);					

  002ad	6a 3c		 push	 60			; 0000003cH
  002af	8b cf		 mov	 ecx, edi
  002b1	ff 15 00 00 00
	00		 call	 DWORD PTR __imp_?LoadStringA@?$CStringT@DV?$StrTraitMFC_DLL@DV?$ChTraitsCRT@D@ATL@@@@@ATL@@QAEHI@Z

; 3640 : 		break;

  002b7	e9 b1 01 00 00	 jmp	 $LN2@GetCandleP
$LN35@GetCandleP:

; 3641 : 	case CPTN_UPSIDEGAP_TASUKI:					// Upside Gap Tasuki				()                                              
; 3642 : 		//strCandlePatternName = STR_UPSIDEGAP_TASUKI;				
; 3643 : 		strCandlePatternName.LoadString(IDS_UPSIDEGAP_TASUKI);				

  002bc	6a 3d		 push	 61			; 0000003dH
  002be	8b cf		 mov	 ecx, edi
  002c0	ff 15 00 00 00
	00		 call	 DWORD PTR __imp_?LoadStringA@?$CStringT@DV?$StrTraitMFC_DLL@DV?$ChTraitsCRT@D@ATL@@@@@ATL@@QAEHI@Z

; 3644 : 		break;

  002c6	e9 a2 01 00 00	 jmp	 $LN2@GetCandleP
$LN36@GetCandleP:

; 3645 : 	case CPTN_DNSIDEGAP_TASUKI:					// Downside Gap Tasuki				()                                              
; 3646 : 		//strCandlePatternName = STR_DNSIDEGAP_TASUKI;				
; 3647 : 		strCandlePatternName.LoadString(IDS_DNSIDEGAP_TASUKI);				

  002cb	6a 3e		 push	 62			; 0000003eH
  002cd	8b cf		 mov	 ecx, edi
  002cf	ff 15 00 00 00
	00		 call	 DWORD PTR __imp_?LoadStringA@?$CStringT@DV?$StrTraitMFC_DLL@DV?$ChTraitsCRT@D@ATL@@@@@ATL@@QAEHI@Z

; 3648 : 		break;

  002d5	e9 93 01 00 00	 jmp	 $LN2@GetCandleP
$LN37@GetCandleP:

; 3649 : 	case CPTN_MATHOLD:							// Mat-Hold							()                                                      
; 3650 : 		//strCandlePatternName = STR_MATHOLD;						    
; 3651 : 		strCandlePatternName.LoadString(IDS_MATHOLD);						    

  002da	6a 3f		 push	 63			; 0000003fH
  002dc	8b cf		 mov	 ecx, edi
  002de	ff 15 00 00 00
	00		 call	 DWORD PTR __imp_?LoadStringA@?$CStringT@DV?$StrTraitMFC_DLL@DV?$ChTraitsCRT@D@ATL@@@@@ATL@@QAEHI@Z

; 3652 : 		break;

  002e4	e9 84 01 00 00	 jmp	 $LN2@GetCandleP
$LN38@GetCandleP:

; 3653 : 	case CPTN_BULLISH_TRISTAR:					// Bullish Tri Star					()                                                
; 3654 : 		//strCandlePatternName = STR_BULLISH_TRISTAR;				    
; 3655 : 		strCandlePatternName.LoadString(IDS_BULLISH_TRISTAR);				    

  002e9	6a 40		 push	 64			; 00000040H
  002eb	8b cf		 mov	 ecx, edi
  002ed	ff 15 00 00 00
	00		 call	 DWORD PTR __imp_?LoadStringA@?$CStringT@DV?$StrTraitMFC_DLL@DV?$ChTraitsCRT@D@ATL@@@@@ATL@@QAEHI@Z

; 3656 : 		break;

  002f3	e9 75 01 00 00	 jmp	 $LN2@GetCandleP
$LN39@GetCandleP:

; 3657 : 	case CPTN_BEARISH_TRISTAR:					// Bearish Tri Star					()                                                
; 3658 : 		//strCandlePatternName = STR_BEARISH_TRISTAR;				    
; 3659 : 		strCandlePatternName.LoadString(IDS_BEARISH_TRISTAR);				    

  002f8	6a 41		 push	 65			; 00000041H
  002fa	8b cf		 mov	 ecx, edi
  002fc	ff 15 00 00 00
	00		 call	 DWORD PTR __imp_?LoadStringA@?$CStringT@DV?$StrTraitMFC_DLL@DV?$ChTraitsCRT@D@ATL@@@@@ATL@@QAEHI@Z

; 3660 : 		break;

  00302	e9 66 01 00 00	 jmp	 $LN2@GetCandleP
$LN40@GetCandleP:

; 3661 : 	case CPTN_UNIQUETHREERIVERBOTTOM:			// Unique Three River Bottom		()                                              
; 3662 : 		//strCandlePatternName = STR_UNIQUETHREERIVERBOTTOM;			
; 3663 : 		strCandlePatternName.LoadString(IDS_UNIQUETHREERIVERBOTTOM);			

  00307	6a 42		 push	 66			; 00000042H
  00309	8b cf		 mov	 ecx, edi
  0030b	ff 15 00 00 00
	00		 call	 DWORD PTR __imp_?LoadStringA@?$CStringT@DV?$StrTraitMFC_DLL@DV?$ChTraitsCRT@D@ATL@@@@@ATL@@QAEHI@Z

; 3664 : 		break;

  00311	e9 57 01 00 00	 jmp	 $LN2@GetCandleP
$LN41@GetCandleP:

; 3665 : 	case CPTN_IDENTICAL_THREECROWS:				// Identical Three Corws			()                                                
; 3666 : 		//strCandlePatternName = STR_IDENTICAL_THREECROWS;			
; 3667 : 		strCandlePatternName.LoadString(IDS_IDENTICAL_THREECROWS);			

  00316	6a 43		 push	 67			; 00000043H
  00318	8b cf		 mov	 ecx, edi
  0031a	ff 15 00 00 00
	00		 call	 DWORD PTR __imp_?LoadStringA@?$CStringT@DV?$StrTraitMFC_DLL@DV?$ChTraitsCRT@D@ATL@@@@@ATL@@QAEHI@Z

; 3668 : 		break;

  00320	e9 48 01 00 00	 jmp	 $LN2@GetCandleP
$LN42@GetCandleP:

; 3669 : 	case CPTN_BULLISH_BREAKAWAY:				// Bullish Breakaway				()                                                  
; 3670 : 		//strCandlePatternName = STR_BULLISH_BREAKAWAY;				
; 3671 : 		strCandlePatternName.LoadString(IDS_BULLISH_BREAKAWAY);				

  00325	6a 44		 push	 68			; 00000044H
  00327	8b cf		 mov	 ecx, edi
  00329	ff 15 00 00 00
	00		 call	 DWORD PTR __imp_?LoadStringA@?$CStringT@DV?$StrTraitMFC_DLL@DV?$ChTraitsCRT@D@ATL@@@@@ATL@@QAEHI@Z

; 3672 : 		break;

  0032f	e9 39 01 00 00	 jmp	 $LN2@GetCandleP
$LN43@GetCandleP:

; 3673 : 	case CPTN_BEARISH_BREAKAWAY:				// Bearish Breakaway				()                                                  
; 3674 : 		//strCandlePatternName = STR_BEARISH_BREAKAWAY;				
; 3675 : 		strCandlePatternName.LoadString(IDS_BEARISH_BREAKAWAY);				

  00334	6a 45		 push	 69			; 00000045H
  00336	8b cf		 mov	 ecx, edi
  00338	ff 15 00 00 00
	00		 call	 DWORD PTR __imp_?LoadStringA@?$CStringT@DV?$StrTraitMFC_DLL@DV?$ChTraitsCRT@D@ATL@@@@@ATL@@QAEHI@Z

; 3676 : 		break;

  0033e	e9 2a 01 00 00	 jmp	 $LN2@GetCandleP
$LN44@GetCandleP:

; 3677 : 	case CPTN_TWOCORWS:							// Two Crows						()                                                
; 3678 : 		//strCandlePatternName = STR_TWOCORWS;						
; 3679 : 		strCandlePatternName.LoadString(IDS_TWOCORWS);						

  00343	6a 46		 push	 70			; 00000046H
  00345	8b cf		 mov	 ecx, edi
  00347	ff 15 00 00 00
	00		 call	 DWORD PTR __imp_?LoadStringA@?$CStringT@DV?$StrTraitMFC_DLL@DV?$ChTraitsCRT@D@ATL@@@@@ATL@@QAEHI@Z

; 3680 : 		break;

  0034d	e9 1b 01 00 00	 jmp	 $LN2@GetCandleP
$LN45@GetCandleP:

; 3681 : 	case CPTN_THREESTARS_INTHESOUTH:			// Three Stars In The South			()                                                    
; 3682 : 		//strCandlePatternName = STR_THREESTARS_INTHESOUTH;			
; 3683 : 		strCandlePatternName.LoadString(IDS_THREESTARS_INTHESOUTH);			

  00352	6a 47		 push	 71			; 00000047H
  00354	8b cf		 mov	 ecx, edi
  00356	ff 15 00 00 00
	00		 call	 DWORD PTR __imp_?LoadStringA@?$CStringT@DV?$StrTraitMFC_DLL@DV?$ChTraitsCRT@D@ATL@@@@@ATL@@QAEHI@Z

; 3684 : 		break;

  0035c	e9 0c 01 00 00	 jmp	 $LN2@GetCandleP
$LN46@GetCandleP:

; 3685 : 	case CPTN_CONCEALINGBABY_SWALLOW:			// Concealing Baby Swallow			()                                            
; 3686 : 		//strCandlePatternName = STR_CONCEALINGBABY_SWALLOW;			
; 3687 : 		strCandlePatternName.LoadString(IDS_CONCEALINGBABY_SWALLOW);			

  00361	6a 48		 push	 72			; 00000048H
  00363	8b cf		 mov	 ecx, edi
  00365	ff 15 00 00 00
	00		 call	 DWORD PTR __imp_?LoadStringA@?$CStringT@DV?$StrTraitMFC_DLL@DV?$ChTraitsCRT@D@ATL@@@@@ATL@@QAEHI@Z

; 3688 : 		break;

  0036b	e9 fd 00 00 00	 jmp	 $LN2@GetCandleP
$LN47@GetCandleP:

; 3689 : 	case CPTN_STICKSANDWICH:					// Stick Sandwich					()                                              
; 3690 : 		//strCandlePatternName = STR_STICKSANDWICH;					
; 3691 : 		strCandlePatternName.LoadString(IDS_STICKSANDWICH);					

  00370	6a 49		 push	 73			; 00000049H
  00372	8b cf		 mov	 ecx, edi
  00374	ff 15 00 00 00
	00		 call	 DWORD PTR __imp_?LoadStringA@?$CStringT@DV?$StrTraitMFC_DLL@DV?$ChTraitsCRT@D@ATL@@@@@ATL@@QAEHI@Z

; 3692 : 		break;

  0037a	e9 ee 00 00 00	 jmp	 $LN2@GetCandleP
$LN48@GetCandleP:

; 3693 : 	case CPTN_BULLISH_KICKING:					// Bullish Kicking					()	                                              
; 3694 : 		//strCandlePatternName = STR_BULLISH_KICKING;				    
; 3695 : 		strCandlePatternName.LoadString(IDS_BULLISH_KICKING);				    

  0037f	6a 4a		 push	 74			; 0000004aH
  00381	8b cf		 mov	 ecx, edi
  00383	ff 15 00 00 00
	00		 call	 DWORD PTR __imp_?LoadStringA@?$CStringT@DV?$StrTraitMFC_DLL@DV?$ChTraitsCRT@D@ATL@@@@@ATL@@QAEHI@Z

; 3696 : 		break;

  00389	e9 df 00 00 00	 jmp	 $LN2@GetCandleP
$LN49@GetCandleP:

; 3697 : 	case CPTN_BEARISH_KICKING:					// Bearish Kicking					()                                                  
; 3698 : 		//strCandlePatternName = STR_BEARISH_KICKING;				    
; 3699 : 		strCandlePatternName.LoadString(IDS_BEARISH_KICKING);				    

  0038e	6a 4b		 push	 75			; 0000004bH
  00390	8b cf		 mov	 ecx, edi
  00392	ff 15 00 00 00
	00		 call	 DWORD PTR __imp_?LoadStringA@?$CStringT@DV?$StrTraitMFC_DLL@DV?$ChTraitsCRT@D@ATL@@@@@ATL@@QAEHI@Z

; 3700 : 		break;

  00398	e9 d0 00 00 00	 jmp	 $LN2@GetCandleP
$LN50@GetCandleP:

; 3701 : 	case CPTN_HOMINGPIGEON:						// Homing Pigeon					()                                                    
; 3702 : 		//strCandlePatternName = STR_HOMINGPIGEON;				
; 3703 : 		strCandlePatternName.LoadString(IDS_HOMINGPIGEON);				

  0039d	6a 4c		 push	 76			; 0000004cH
  0039f	8b cf		 mov	 ecx, edi
  003a1	ff 15 00 00 00
	00		 call	 DWORD PTR __imp_?LoadStringA@?$CStringT@DV?$StrTraitMFC_DLL@DV?$ChTraitsCRT@D@ATL@@@@@ATL@@QAEHI@Z

; 3704 : 		break;

  003a7	e9 c1 00 00 00	 jmp	 $LN2@GetCandleP
$LN51@GetCandleP:

; 3705 : 	case CPTN_LADDERBOTTOM:						// Ladder Bottom					()                                                
; 3706 : 		//strCandlePatternName = STR_LADDERBOTTOM;					
; 3707 : 		strCandlePatternName.LoadString(IDS_LADDERBOTTOM);					

  003ac	6a 4d		 push	 77			; 0000004dH
  003ae	8b cf		 mov	 ecx, edi
  003b0	ff 15 00 00 00
	00		 call	 DWORD PTR __imp_?LoadStringA@?$CStringT@DV?$StrTraitMFC_DLL@DV?$ChTraitsCRT@D@ATL@@@@@ATL@@QAEHI@Z

; 3708 : 		break;

  003b6	e9 b2 00 00 00	 jmp	 $LN2@GetCandleP
$LN52@GetCandleP:

; 3709 : 	case CPTN_MATCHINGLOW:						// Matching Low						()                                                  
; 3710 : 		//strCandlePatternName = STR_MATCHINGLOW;					    
; 3711 : 		strCandlePatternName.LoadString(IDS_MATCHINGLOW);					    

  003bb	6a 4e		 push	 78			; 0000004eH
  003bd	8b cf		 mov	 ecx, edi
  003bf	ff 15 00 00 00
	00		 call	 DWORD PTR __imp_?LoadStringA@?$CStringT@DV?$StrTraitMFC_DLL@DV?$ChTraitsCRT@D@ATL@@@@@ATL@@QAEHI@Z

; 3712 : 		break;

  003c5	e9 a3 00 00 00	 jmp	 $LN2@GetCandleP
$LN53@GetCandleP:

; 3713 : 	case CPTN_BULLISH_SIDEBYSIDE_WHITELINE:		// Bullish Side-By-Side White Lines	()                                                
; 3714 : 		//strCandlePatternName = STR_BULLISH_SIDEBYSIDE_WHITELINE;	
; 3715 : 		strCandlePatternName.LoadString(IDS_BULLISH_SIDEBYSIDE_WHITELINE);	

  003ca	6a 4f		 push	 79			; 0000004fH
  003cc	8b cf		 mov	 ecx, edi
  003ce	ff 15 00 00 00
	00		 call	 DWORD PTR __imp_?LoadStringA@?$CStringT@DV?$StrTraitMFC_DLL@DV?$ChTraitsCRT@D@ATL@@@@@ATL@@QAEHI@Z

; 3716 : 		break;

  003d4	e9 94 00 00 00	 jmp	 $LN2@GetCandleP
$LN54@GetCandleP:

; 3717 : 	case CPTN_BEARISH_SIDEBYSIDE_WHITELINE:		// Bearish Side-By-Side White Lines	()                                                
; 3718 : 		//strCandlePatternName = STR_BEARISH_SIDEBYSIDE_WHITELINE;	
; 3719 : 		strCandlePatternName.LoadString(IDS_BEARISH_SIDEBYSIDE_WHITELINE);	

  003d9	6a 50		 push	 80			; 00000050H
  003db	8b cf		 mov	 ecx, edi
  003dd	ff 15 00 00 00
	00		 call	 DWORD PTR __imp_?LoadStringA@?$CStringT@DV?$StrTraitMFC_DLL@DV?$ChTraitsCRT@D@ATL@@@@@ATL@@QAEHI@Z

; 3720 : 		break;

  003e3	e9 85 00 00 00	 jmp	 $LN2@GetCandleP
$LN55@GetCandleP:

; 3721 : 	case CPTN_RISING_THREEMETHODS:				// Rising Three Methods				()                                                  
; 3722 : 		//strCandlePatternName = STR_RISING_THREEMETHODS;			    
; 3723 : 		strCandlePatternName.LoadString(IDS_RISING_THREEMETHODS);			    

  003e8	6a 51		 push	 81			; 00000051H
  003ea	8b cf		 mov	 ecx, edi
  003ec	ff 15 00 00 00
	00		 call	 DWORD PTR __imp_?LoadStringA@?$CStringT@DV?$StrTraitMFC_DLL@DV?$ChTraitsCRT@D@ATL@@@@@ATL@@QAEHI@Z

; 3724 : 		break;

  003f2	eb 79		 jmp	 SHORT $LN2@GetCandleP
$LN56@GetCandleP:

; 3725 : 	case CPTN_FALLING_THREEMETHODS:				// Falling Three Methods			()                                                  
; 3726 : 		//strCandlePatternName = STR_FALLING_THREEMETHODS;			
; 3727 : 		strCandlePatternName.LoadString(IDS_FALLING_THREEMETHODS);			

  003f4	6a 52		 push	 82			; 00000052H
  003f6	8b cf		 mov	 ecx, edi
  003f8	ff 15 00 00 00
	00		 call	 DWORD PTR __imp_?LoadStringA@?$CStringT@DV?$StrTraitMFC_DLL@DV?$ChTraitsCRT@D@ATL@@@@@ATL@@QAEHI@Z

; 3728 : 		break;

  003fe	eb 6d		 jmp	 SHORT $LN2@GetCandleP
$LN57@GetCandleP:

; 3729 : 	case CPTN_BULLISH_SEPARATINGLINES:			// Bullish Separating Lines			()                                                
; 3730 : 		//strCandlePatternName = STR_BULLISH_SEPARATINGLINES;		    
; 3731 : 		strCandlePatternName.LoadString(IDS_BULLISH_SEPARATINGLINES);		    

  00400	6a 53		 push	 83			; 00000053H
  00402	8b cf		 mov	 ecx, edi
  00404	ff 15 00 00 00
	00		 call	 DWORD PTR __imp_?LoadStringA@?$CStringT@DV?$StrTraitMFC_DLL@DV?$ChTraitsCRT@D@ATL@@@@@ATL@@QAEHI@Z

; 3732 : 		break;

  0040a	eb 61		 jmp	 SHORT $LN2@GetCandleP
$LN58@GetCandleP:

; 3733 : 	case CPTN_BEARISH_SEPARATINGLINES:			// Bearish Separating Lines			()                                                
; 3734 : 		//strCandlePatternName = STR_BEARISH_SEPARATINGLINES;		    
; 3735 : 		strCandlePatternName.LoadString(IDS_BEARISH_SEPARATINGLINES);		    

  0040c	6a 54		 push	 84			; 00000054H
  0040e	8b cf		 mov	 ecx, edi
  00410	ff 15 00 00 00
	00		 call	 DWORD PTR __imp_?LoadStringA@?$CStringT@DV?$StrTraitMFC_DLL@DV?$ChTraitsCRT@D@ATL@@@@@ATL@@QAEHI@Z

; 3736 : 		break;

  00416	eb 55		 jmp	 SHORT $LN2@GetCandleP
$LN59@GetCandleP:

; 3737 : 	case CPTN_BULLISH_THREELINESTRIKE:			// Bullish Three-Line Strike		()                                              
; 3738 : 		//strCandlePatternName = STR_BULLISH_THREELINESTRIKE;		    
; 3739 : 		strCandlePatternName.LoadString(IDS_BULLISH_THREELINESTRIKE);		    

  00418	6a 55		 push	 85			; 00000055H
  0041a	8b cf		 mov	 ecx, edi
  0041c	ff 15 00 00 00
	00		 call	 DWORD PTR __imp_?LoadStringA@?$CStringT@DV?$StrTraitMFC_DLL@DV?$ChTraitsCRT@D@ATL@@@@@ATL@@QAEHI@Z

; 3740 : 		break;

  00422	eb 49		 jmp	 SHORT $LN2@GetCandleP
$LN60@GetCandleP:

; 3741 : 	case CPTN_BEARISH_THREELINESTRIKE:			// Bearish Three-Line Strike		()                                              
; 3742 : 		//strCandlePatternName = STR_BEARISH_THREELINESTRIKE;		    
; 3743 : 		strCandlePatternName.LoadString(IDS_BEARISH_THREELINESTRIKE);		    

  00424	6a 56		 push	 86			; 00000056H
  00426	8b cf		 mov	 ecx, edi
  00428	ff 15 00 00 00
	00		 call	 DWORD PTR __imp_?LoadStringA@?$CStringT@DV?$StrTraitMFC_DLL@DV?$ChTraitsCRT@D@ATL@@@@@ATL@@QAEHI@Z

; 3744 : 		break;

  0042e	eb 3d		 jmp	 SHORT $LN2@GetCandleP
$LN61@GetCandleP:

; 3745 : 	case CPTN_UPSIDEGAP_THREEMETHODS:			// Upside Gap Three Methods			()                                                
; 3746 : 		//strCandlePatternName = STR_UPSIDEGAP_THREEMETHODS;			
; 3747 : 		strCandlePatternName.LoadString(IDS_UPSIDEGAP_THREEMETHODS);			

  00430	6a 57		 push	 87			; 00000057H
  00432	8b cf		 mov	 ecx, edi
  00434	ff 15 00 00 00
	00		 call	 DWORD PTR __imp_?LoadStringA@?$CStringT@DV?$StrTraitMFC_DLL@DV?$ChTraitsCRT@D@ATL@@@@@ATL@@QAEHI@Z

; 3748 : 		break;

  0043a	eb 31		 jmp	 SHORT $LN2@GetCandleP
$LN62@GetCandleP:

; 3749 : 	case CPTN_DNSIDEGAP_THREEMETHODS:			// Downside Gap Three Methods		()                                                
; 3750 : 		//strCandlePatternName = STR_DNSIDEGAP_THREEMETHODS;			
; 3751 : 		strCandlePatternName.LoadString(IDS_DNSIDEGAP_THREEMETHODS);			

  0043c	6a 58		 push	 88			; 00000058H
  0043e	8b cf		 mov	 ecx, edi
  00440	ff 15 00 00 00
	00		 call	 DWORD PTR __imp_?LoadStringA@?$CStringT@DV?$StrTraitMFC_DLL@DV?$ChTraitsCRT@D@ATL@@@@@ATL@@QAEHI@Z

; 3752 : 		break;

  00446	eb 25		 jmp	 SHORT $LN2@GetCandleP
$LN63@GetCandleP:

; 3753 : 	case CPTN_ON_NECK:							// On Neck							()                                                      
; 3754 : 		//strCandlePatternName = STR_ON_NECK;						    
; 3755 : 		strCandlePatternName.LoadString(IDS_ON_NECK);						    

  00448	6a 59		 push	 89			; 00000059H
  0044a	8b cf		 mov	 ecx, edi
  0044c	ff 15 00 00 00
	00		 call	 DWORD PTR __imp_?LoadStringA@?$CStringT@DV?$StrTraitMFC_DLL@DV?$ChTraitsCRT@D@ATL@@@@@ATL@@QAEHI@Z

; 3756 : 		break;

  00452	eb 19		 jmp	 SHORT $LN2@GetCandleP
$LN64@GetCandleP:

; 3757 : 	case CPTN_IN_NECK:							// In Neck							()                                                      
; 3758 : 		//strCandlePatternName = STR_IN_NECK;						    
; 3759 : 		strCandlePatternName.LoadString(IDS_IN_NECK);						    

  00454	6a 5a		 push	 90			; 0000005aH
  00456	8b cf		 mov	 ecx, edi
  00458	ff 15 00 00 00
	00		 call	 DWORD PTR __imp_?LoadStringA@?$CStringT@DV?$StrTraitMFC_DLL@DV?$ChTraitsCRT@D@ATL@@@@@ATL@@QAEHI@Z

; 3760 : 		break;

  0045e	eb 0d		 jmp	 SHORT $LN2@GetCandleP
$LN65@GetCandleP:

; 3761 : 	case CPTN_THRUSTINGLINE:					// Thrusting Line					(->Thrusitng Line)                                                      
; 3762 : 		strCandlePatternName = STR_THRUSTINGLINE;                   

  00460	68 00 00 00 00	 push	 OFFSET ??_C@_0P@JAJMEEEP@Thrusting?5Line@
  00465	8b cf		 mov	 ecx, edi
  00467	ff 15 00 00 00
	00		 call	 DWORD PTR __imp_??4?$CStringT@DV?$StrTraitMFC_DLL@DV?$ChTraitsCRT@D@ATL@@@@@ATL@@QAEAAV01@PBD@Z
$LN2@GetCandleP:
; File D:\git\src\IBK\IBK_DRFN\ProjSrc\SrcChartEx\ChartAddIn\ChartPatternAddIn\Include_Chart\Dll_Load\IMetaTable.h

; 1035 : 	{

  0046d	c7 45 fc 02 00
	00 00		 mov	 DWORD PTR __$EHRec$[ebp+8], 2
; File C:\Program Files (x86)\Microsoft Visual Studio\2019\Community\VC\Tools\MSVC\14.29.30133\atlmfc\include\afxwin1.inl

; 27   : 	{ ASSERT(hInstResource != NULL); afxCurrentResourceHandle = hInstResource; }

  00474	e8 00 00 00 00	 call	 ?AfxGetModuleState@@YGPAVAFX_MODULE_STATE@@XZ ; AfxGetModuleState
  00479	89 70 0c	 mov	 DWORD PTR [eax+12], esi
; File D:\git\src\IBK\IBK_DRFN\ProjSrc\SrcChartEx\ChartAddIn\ChartPatternAddIn\CandlePattern.cpp

; 3774 : 	return	strCandlePatternName;

  0047c	8b c7		 mov	 eax, edi

; 3775 : }

  0047e	8b 4d f4	 mov	 ecx, DWORD PTR __$EHRec$[ebp]
  00481	64 89 0d 00 00
	00 00		 mov	 DWORD PTR fs:0, ecx
  00488	59		 pop	 ecx
  00489	5f		 pop	 edi
  0048a	5e		 pop	 esi
  0048b	5b		 pop	 ebx
  0048c	8b e5		 mov	 esp, ebp
  0048e	5d		 pop	 ebp
  0048f	c2 08 00	 ret	 8
  00492	66 90		 npad	 2
$LN86@GetCandleP:
  00494	00 00 00 00	 DD	 $LN4@GetCandleP
  00498	00 00 00 00	 DD	 $LN5@GetCandleP
  0049c	00 00 00 00	 DD	 $LN6@GetCandleP
  004a0	00 00 00 00	 DD	 $LN7@GetCandleP
  004a4	00 00 00 00	 DD	 $LN8@GetCandleP
  004a8	00 00 00 00	 DD	 $LN9@GetCandleP
  004ac	00 00 00 00	 DD	 $LN10@GetCandleP
  004b0	00 00 00 00	 DD	 $LN11@GetCandleP
  004b4	00 00 00 00	 DD	 $LN12@GetCandleP
  004b8	00 00 00 00	 DD	 $LN13@GetCandleP
  004bc	00 00 00 00	 DD	 $LN14@GetCandleP
  004c0	00 00 00 00	 DD	 $LN15@GetCandleP
  004c4	00 00 00 00	 DD	 $LN16@GetCandleP
  004c8	00 00 00 00	 DD	 $LN17@GetCandleP
  004cc	00 00 00 00	 DD	 $LN18@GetCandleP
  004d0	00 00 00 00	 DD	 $LN19@GetCandleP
  004d4	00 00 00 00	 DD	 $LN20@GetCandleP
  004d8	00 00 00 00	 DD	 $LN21@GetCandleP
  004dc	00 00 00 00	 DD	 $LN22@GetCandleP
  004e0	00 00 00 00	 DD	 $LN23@GetCandleP
  004e4	00 00 00 00	 DD	 $LN24@GetCandleP
  004e8	00 00 00 00	 DD	 $LN25@GetCandleP
  004ec	00 00 00 00	 DD	 $LN26@GetCandleP
  004f0	00 00 00 00	 DD	 $LN27@GetCandleP
  004f4	00 00 00 00	 DD	 $LN28@GetCandleP
  004f8	00 00 00 00	 DD	 $LN29@GetCandleP
  004fc	00 00 00 00	 DD	 $LN30@GetCandleP
  00500	00 00 00 00	 DD	 $LN31@GetCandleP
  00504	00 00 00 00	 DD	 $LN32@GetCandleP
  00508	00 00 00 00	 DD	 $LN33@GetCandleP
  0050c	00 00 00 00	 DD	 $LN34@GetCandleP
  00510	00 00 00 00	 DD	 $LN35@GetCandleP
  00514	00 00 00 00	 DD	 $LN36@GetCandleP
  00518	00 00 00 00	 DD	 $LN37@GetCandleP
  0051c	00 00 00 00	 DD	 $LN38@GetCandleP
  00520	00 00 00 00	 DD	 $LN39@GetCandleP
  00524	00 00 00 00	 DD	 $LN40@GetCandleP
  00528	00 00 00 00	 DD	 $LN41@GetCandleP
  0052c	00 00 00 00	 DD	 $LN42@GetCandleP
  00530	00 00 00 00	 DD	 $LN43@GetCandleP
  00534	00 00 00 00	 DD	 $LN44@GetCandleP
  00538	00 00 00 00	 DD	 $LN45@GetCandleP
  0053c	00 00 00 00	 DD	 $LN46@GetCandleP
  00540	00 00 00 00	 DD	 $LN47@GetCandleP
  00544	00 00 00 00	 DD	 $LN48@GetCandleP
  00548	00 00 00 00	 DD	 $LN49@GetCandleP
  0054c	00 00 00 00	 DD	 $LN50@GetCandleP
  00550	00 00 00 00	 DD	 $LN51@GetCandleP
  00554	00 00 00 00	 DD	 $LN52@GetCandleP
  00558	00 00 00 00	 DD	 $LN53@GetCandleP
  0055c	00 00 00 00	 DD	 $LN54@GetCandleP
  00560	00 00 00 00	 DD	 $LN55@GetCandleP
  00564	00 00 00 00	 DD	 $LN56@GetCandleP
  00568	00 00 00 00	 DD	 $LN57@GetCandleP
  0056c	00 00 00 00	 DD	 $LN58@GetCandleP
  00570	00 00 00 00	 DD	 $LN59@GetCandleP
  00574	00 00 00 00	 DD	 $LN60@GetCandleP
  00578	00 00 00 00	 DD	 $LN61@GetCandleP
  0057c	00 00 00 00	 DD	 $LN62@GetCandleP
  00580	00 00 00 00	 DD	 $LN63@GetCandleP
  00584	00 00 00 00	 DD	 $LN64@GetCandleP
  00588	00 00 00 00	 DD	 $LN65@GetCandleP
_TEXT	ENDS
;	COMDAT text$x
text$x	SEGMENT
__unwindfunclet$?GetCandlePatternName@CCandlePattern@@QAE?AV?$CStringT@DV?$StrTraitMFC_DLL@DV?$ChTraitsCRT@D@ATL@@@@@ATL@@H@Z$0:
  00000	8d 4d ec	 lea	 ecx, DWORD PTR ___mlrs__$[ebp]
  00003	e9 00 00 00 00	 jmp	 ??1CMultiLanguageResourceSetter@@QAE@XZ ; CMultiLanguageResourceSetter::~CMultiLanguageResourceSetter
__unwindfunclet$?GetCandlePatternName@CCandlePattern@@QAE?AV?$CStringT@DV?$StrTraitMFC_DLL@DV?$ChTraitsCRT@D@ATL@@@@@ATL@@H@Z$1:
  00008	8b 45 f0	 mov	 eax, DWORD PTR $T2[ebp]
  0000b	83 e0 01	 and	 eax, 1
  0000e	0f 84 0d 00 00
	00		 je	 $LN69@GetCandleP
  00014	83 65 f0 fe	 and	 DWORD PTR $T2[ebp], -2	; fffffffeH
  00018	8b 4d 08	 mov	 ecx, DWORD PTR ___$ReturnUdt$[ebp]
  0001b	ff 25 00 00 00
	00		 jmp	 DWORD PTR __imp_??1?$CStringT@DV?$StrTraitMFC_DLL@DV?$ChTraitsCRT@D@ATL@@@@@ATL@@QAE@XZ
$LN69@GetCandleP:
  00021	c3		 ret	 0
  00022	cc		 int	 3
  00023	cc		 int	 3
  00024	cc		 int	 3
  00025	cc		 int	 3
  00026	cc		 int	 3
__ehhandler$?GetCandlePatternName@CCandlePattern@@QAE?AV?$CStringT@DV?$StrTraitMFC_DLL@DV?$ChTraitsCRT@D@ATL@@@@@ATL@@H@Z:
  00027	90		 npad	 1
  00028	90		 npad	 1
  00029	8b 54 24 08	 mov	 edx, DWORD PTR [esp+8]
  0002d	8d 42 0c	 lea	 eax, DWORD PTR [edx+12]
  00030	8b 4a e8	 mov	 ecx, DWORD PTR [edx-24]
  00033	33 c8		 xor	 ecx, eax
  00035	e8 00 00 00 00	 call	 @__security_check_cookie@4
  0003a	b8 00 00 00 00	 mov	 eax, OFFSET __ehfuncinfo$?GetCandlePatternName@CCandlePattern@@QAE?AV?$CStringT@DV?$StrTraitMFC_DLL@DV?$ChTraitsCRT@D@ATL@@@@@ATL@@H@Z
  0003f	e9 00 00 00 00	 jmp	 ___CxxFrameHandler3
text$x	ENDS
?GetCandlePatternName@CCandlePattern@@QAE?AV?$CStringT@DV?$StrTraitMFC_DLL@DV?$ChTraitsCRT@D@ATL@@@@@ATL@@H@Z ENDP ; CCandlePattern::GetCandlePatternName
; Function compile flags: /Ogtp
; File D:\git\src\IBK\IBK_DRFN\ProjSrc\SrcChartEx\ChartAddIn\ChartPatternAddIn\CandlePattern.cpp
; File C:\Program Files (x86)\Microsoft Visual Studio\2019\Community\VC\Tools\MSVC\14.29.30133\atlmfc\include\afx.inl
; File D:\git\src\IBK\IBK_DRFN\ProjSrc\SrcChartEx\ChartAddIn\ChartPatternAddIn\CandlePattern.cpp
; File C:\Program Files (x86)\Microsoft Visual Studio\2019\Community\VC\Tools\MSVC\14.29.30133\atlmfc\include\afxtempl.h
; File D:\git\src\IBK\IBK_DRFN\ProjSrc\SrcChartEx\ChartAddIn\ChartPatternAddIn\CandlePattern.cpp
; File C:\Program Files (x86)\Microsoft Visual Studio\2019\Community\VC\Tools\MSVC\14.29.30133\atlmfc\include\afx.inl
; File D:\git\src\IBK\IBK_DRFN\ProjSrc\SrcChartEx\ChartAddIn\ChartPatternAddIn\CandlePattern.cpp
; File C:\Program Files (x86)\Microsoft Visual Studio\2019\Community\VC\Tools\MSVC\14.29.30133\atlmfc\include\afxtempl.h
; File D:\git\src\IBK\IBK_DRFN\ProjSrc\SrcChartEx\ChartAddIn\ChartPatternAddIn\CandlePattern.cpp
; File C:\Program Files (x86)\Microsoft Visual Studio\2019\Community\VC\Tools\MSVC\14.29.30133\atlmfc\include\afx.inl
; File D:\git\src\IBK\IBK_DRFN\ProjSrc\SrcChartEx\ChartAddIn\ChartPatternAddIn\CandlePattern.cpp
; File C:\Program Files (x86)\Microsoft Visual Studio\2019\Community\VC\Tools\MSVC\14.29.30133\atlmfc\include\afxtempl.h
; File D:\git\src\IBK\IBK_DRFN\ProjSrc\SrcChartEx\ChartAddIn\ChartPatternAddIn\CandlePattern.cpp
; File C:\Program Files (x86)\Microsoft Visual Studio\2019\Community\VC\Tools\MSVC\14.29.30133\atlmfc\include\afx.inl
; File D:\git\src\IBK\IBK_DRFN\ProjSrc\SrcChartEx\ChartAddIn\ChartPatternAddIn\CandlePattern.cpp
; File C:\Program Files (x86)\Microsoft Visual Studio\2019\Community\VC\Tools\MSVC\14.29.30133\atlmfc\include\afxtempl.h
; File D:\git\src\IBK\IBK_DRFN\ProjSrc\SrcChartEx\ChartAddIn\ChartPatternAddIn\CandlePattern.cpp
; File C:\Program Files (x86)\Microsoft Visual Studio\2019\Community\VC\Tools\MSVC\14.29.30133\atlmfc\include\afx.inl
; File D:\git\src\IBK\IBK_DRFN\ProjSrc\SrcChartEx\ChartAddIn\ChartPatternAddIn\CandlePattern.cpp
; File C:\Program Files (x86)\Microsoft Visual Studio\2019\Community\VC\Tools\MSVC\14.29.30133\atlmfc\include\afxtempl.h
; File D:\git\src\IBK\IBK_DRFN\ProjSrc\SrcChartEx\ChartAddIn\ChartPatternAddIn\CandlePattern.cpp
; File C:\Program Files (x86)\Microsoft Visual Studio\2019\Community\VC\Tools\MSVC\14.29.30133\atlmfc\include\afxtempl.h
; File D:\git\src\IBK\IBK_DRFN\ProjSrc\SrcChartEx\ChartAddIn\ChartPatternAddIn\CandlePattern.cpp
;	COMDAT ?CDFind_All_CandlePattern@CCandlePattern@@QAEXPAU_STCANDLE_DATA@@PAVCObject@@@Z
_TEXT	SEGMENT
tv4018 = -36						; size = 8
tv3392 = -36						; size = 8
$T2 = -28						; size = 4
$T3 = -28						; size = 4
$T4 = -28						; size = 4
$T5 = -28						; size = 4
$T6 = -28						; size = 4
tv4035 = -24						; size = 8
tv3412 = -24						; size = 8
_nIndex$1$ = -20					; size = 4
_nIndex$1$ = -20					; size = 4
_nIndex$1$ = -20					; size = 4
tv3885 = -20						; size = 4
tv3882 = -20						; size = 4
tv3879 = -20						; size = 4
tv3876 = -20						; size = 4
tv3873 = -20						; size = 4
_nIndex$1$ = -20					; size = 4
_nIndex$1$ = -20					; size = 4
_this$1$ = -16						; size = 4
__$EHRec$ = -12						; size = 12
$T7 = 8							; size = 4
$T8 = 8							; size = 4
$T9 = 8							; size = 4
tv3919 = 8						; size = 4
tv3897 = 8						; size = 4
tv3891 = 8						; size = 4
$T10 = 8						; size = 4
$T11 = 8						; size = 4
_pstCandleData$ = 8					; size = 4
_i$1$ = 12						; size = 4
_i$1$ = 12						; size = 4
_i$1$ = 12						; size = 4
_i$1$ = 12						; size = 4
_i$1$ = 12						; size = 4
_pObjCandlePatternData$ = 12				; size = 4
?CDFind_All_CandlePattern@CCandlePattern@@QAEXPAU_STCANDLE_DATA@@PAVCObject@@@Z PROC ; CCandlePattern::CDFind_All_CandlePattern, COMDAT
; _this$ = ecx

; 3371 : {

  00000	55		 push	 ebp
  00001	8b ec		 mov	 ebp, esp
  00003	6a ff		 push	 -1
  00005	68 00 00 00 00	 push	 __ehhandler$?CDFind_All_CandlePattern@CCandlePattern@@QAEXPAU_STCANDLE_DATA@@PAVCObject@@@Z
  0000a	64 a1 00 00 00
	00		 mov	 eax, DWORD PTR fs:0
  00010	50		 push	 eax
  00011	83 ec 18	 sub	 esp, 24			; 00000018H
  00014	56		 push	 esi
  00015	57		 push	 edi
  00016	a1 00 00 00 00	 mov	 eax, DWORD PTR ___security_cookie
  0001b	33 c5		 xor	 eax, ebp
  0001d	50		 push	 eax
  0001e	8d 45 f4	 lea	 eax, DWORD PTR __$EHRec$[ebp]
  00021	64 a3 00 00 00
	00		 mov	 DWORD PTR fs:0, eax
  00027	8b c1		 mov	 eax, ecx
  00029	89 45 f0	 mov	 DWORD PTR _this$1$[ebp], eax

; 3372 : 	// ## 01. Hammer							()           														
; 3373 : 	CDFind_Hammer(						pstCandleData, pObjCandlePatternData);

  0002c	8b 7d 0c	 mov	 edi, DWORD PTR _pObjCandlePatternData$[ebp]
  0002f	8b 75 08	 mov	 esi, DWORD PTR _pstCandleData$[ebp]
  00032	57		 push	 edi
  00033	56		 push	 esi
  00034	e8 00 00 00 00	 call	 ?CDFind_Hammer@CCandlePattern@@QAEHPAU_STCANDLE_DATA@@PAVCObject@@@Z ; CCandlePattern::CDFind_Hammer

; 3374 : 	// ## 02. Hanging Man						()           			                            		
; 3375 : 	CDFind_HangingMan(					pstCandleData, pObjCandlePatternData);

  00039	8b 4d f0	 mov	 ecx, DWORD PTR _this$1$[ebp]
  0003c	57		 push	 edi
  0003d	56		 push	 esi
  0003e	e8 00 00 00 00	 call	 ?CDFind_HangingMan@CCandlePattern@@QAEHPAU_STCANDLE_DATA@@PAVCObject@@@Z ; CCandlePattern::CDFind_HangingMan

; 3376 : 	// ## 03. Inverted Hammer					()         			                            		
; 3377 : 	CDFind_InvertedHammer(				pstCandleData, pObjCandlePatternData);

  00043	8b 4d f0	 mov	 ecx, DWORD PTR _this$1$[ebp]
  00046	57		 push	 edi
  00047	56		 push	 esi
  00048	e8 00 00 00 00	 call	 ?CDFind_InvertedHammer@CCandlePattern@@QAEHPAU_STCANDLE_DATA@@PAVCObject@@@Z ; CCandlePattern::CDFind_InvertedHammer

; 3378 : 	// ## 04. Shooting Star						()           			                            		
; 3379 : 	CDFind_ShootingStar(				pstCandleData, pObjCandlePatternData);

  0004d	8b 4d f0	 mov	 ecx, DWORD PTR _this$1$[ebp]
  00050	57		 push	 edi
  00051	56		 push	 esi
  00052	e8 00 00 00 00	 call	 ?CDFind_ShootingStar@CCandlePattern@@QAEHPAU_STCANDLE_DATA@@PAVCObject@@@Z ; CCandlePattern::CDFind_ShootingStar

; 3380 : 	// ## 05. Bullish Belt Hold Line			()       			
; 3381 : 	CDFind_Bullish_BeltHoldLine(		pstCandleData, pObjCandlePatternData);

  00057	8b 4d f0	 mov	 ecx, DWORD PTR _this$1$[ebp]
  0005a	57		 push	 edi
  0005b	56		 push	 esi
  0005c	e8 00 00 00 00	 call	 ?CDFind_Bullish_BeltHoldLine@CCandlePattern@@QAEHPAU_STCANDLE_DATA@@PAVCObject@@@Z ; CCandlePattern::CDFind_Bullish_BeltHoldLine

; 3382 : 	// ## 06. Bearish Belt Hold Line			()       			                                	
; 3383 : 	CDFind_Bearish_BeltHoldLine(		pstCandleData, pObjCandlePatternData);

  00061	8b 4d f0	 mov	 ecx, DWORD PTR _this$1$[ebp]
  00064	57		 push	 edi
  00065	56		 push	 esi
  00066	e8 00 00 00 00	 call	 ?CDFind_Bearish_BeltHoldLine@CCandlePattern@@QAEHPAU_STCANDLE_DATA@@PAVCObject@@@Z ; CCandlePattern::CDFind_Bearish_BeltHoldLine

; 3384 : 	// ## 07. Long White Body					()         			
; 3385 : 	CDFind_Long_WhiteBody(				pstCandleData, pObjCandlePatternData);

  0006b	8b 4d f0	 mov	 ecx, DWORD PTR _this$1$[ebp]
  0006e	57		 push	 edi
  0006f	56		 push	 esi
  00070	e8 00 00 00 00	 call	 ?CDFind_Long_WhiteBody@CCandlePattern@@QAEHPAU_STCANDLE_DATA@@PAVCObject@@@Z ; CCandlePattern::CDFind_Long_WhiteBody

; 3386 : 	// ## 08. Long Black Body					()         			                            		
; 3387 : 	CDFind_Long_BlackBody(				pstCandleData, pObjCandlePatternData);

  00075	8b 4d f0	 mov	 ecx, DWORD PTR _this$1$[ebp]
  00078	57		 push	 edi
  00079	56		 push	 esi
  0007a	e8 00 00 00 00	 call	 ?CDFind_Long_BlackBody@CCandlePattern@@QAEHPAU_STCANDLE_DATA@@PAVCObject@@@Z ; CCandlePattern::CDFind_Long_BlackBody

; 3388 : 	// ## 09. Bullish Harami					()       			                            		
; 3389 : 	CDFind_Bullish_Harami(				pstCandleData, pObjCandlePatternData);

  0007f	8b 4d f0	 mov	 ecx, DWORD PTR _this$1$[ebp]
  00082	57		 push	 edi
  00083	56		 push	 esi
  00084	e8 00 00 00 00	 call	 ?CDFind_Bullish_Harami@CCandlePattern@@QAEHPAU_STCANDLE_DATA@@PAVCObject@@@Z ; CCandlePattern::CDFind_Bullish_Harami

; 3390 : 	// ## 10. Bearish Harami					()       			                            		
; 3391 : 	CDFind_Bearish_Harami(				pstCandleData, pObjCandlePatternData);

  00089	8b 4d f0	 mov	 ecx, DWORD PTR _this$1$[ebp]
  0008c	57		 push	 edi
  0008d	56		 push	 esi
  0008e	e8 00 00 00 00	 call	 ?CDFind_Bearish_Harami@CCandlePattern@@QAEHPAU_STCANDLE_DATA@@PAVCObject@@@Z ; CCandlePattern::CDFind_Bearish_Harami

; 3392 : 	// ## 11. Bullish Engulfing					()       			
; 3393 : 	CDFind_Bullish_Engulfing(			pstCandleData, pObjCandlePatternData);

  00093	8b 4d f0	 mov	 ecx, DWORD PTR _this$1$[ebp]
  00096	57		 push	 edi
  00097	56		 push	 esi
  00098	e8 00 00 00 00	 call	 ?CDFind_Bullish_Engulfing@CCandlePattern@@QAEHPAU_STCANDLE_DATA@@PAVCObject@@@Z ; CCandlePattern::CDFind_Bullish_Engulfing

; 3394 : 	// ## 12. Bearish Engulfing					()       			                                	
; 3395 : 	CDFind_Bearish_Engulfing(			pstCandleData, pObjCandlePatternData);

  0009d	8b 4d f0	 mov	 ecx, DWORD PTR _this$1$[ebp]
  000a0	57		 push	 edi
  000a1	56		 push	 esi
  000a2	e8 00 00 00 00	 call	 ?CDFind_Bearish_Engulfing@CCandlePattern@@QAEHPAU_STCANDLE_DATA@@PAVCObject@@@Z ; CCandlePattern::CDFind_Bearish_Engulfing

; 841  : 	if ( pstCandleData->nDataCnt < NEED_PERIOD_20)

  000a7	8b 0e		 mov	 ecx, DWORD PTR [esi]
  000a9	83 f9 14	 cmp	 ecx, 20			; 00000014H
  000ac	0f 8c f2 02 00
	00		 jl	 $LN42@CDFind_All

; 846  : 	for ( int i = nMinDataCnt-1; i < pstCandleData->nDataCnt; i++)

  000b2	b8 13 00 00 00	 mov	 eax, 19			; 00000013H
  000b7	89 45 0c	 mov	 DWORD PTR _i$1$[ebp], eax
  000ba	66 0f 1f 44 00
	00		 npad	 6
$LL6@CDFind_All:

; 847  : 	{
; 848  : 		// Condition Check
; 849  : 		if (IsCandleTrendDown(	pstCandleData, i-1)																		&&
; 850  : 			IsCandleBlack(		pstCandleData, i-1)																		&&
; 851  : 			IsCandleLong(		pstCandleData, i-1)																		&&
; 852  : 			IsCandleWhite(		pstCandleData, i)																		&&

  000c0	8b 4d f0	 mov	 ecx, DWORD PTR _this$1$[ebp]
  000c3	48		 dec	 eax
  000c4	50		 push	 eax
  000c5	56		 push	 esi
  000c6	89 45 08	 mov	 DWORD PTR tv3919[ebp], eax
  000c9	e8 00 00 00 00	 call	 ?IsCandleTrendDown@CCandlePattern@@QAEHPAU_STCANDLE_DATA@@H@Z ; CCandlePattern::IsCandleTrendDown
  000ce	85 c0		 test	 eax, eax
  000d0	8b 45 0c	 mov	 eax, DWORD PTR _i$1$[ebp]
  000d3	0f 84 3f 01 00
	00		 je	 $LN4@CDFind_All

; 143  : 	if ( pstCandleData->dClose[nDataPos] < pstCandleData->dOpen[nDataPos])

  000d9	8b 56 08	 mov	 edx, DWORD PTR [esi+8]
  000dc	8b 4e 14	 mov	 ecx, DWORD PTR [esi+20]
  000df	f2 0f 10 44 c2
	f8		 movsd	 xmm0, QWORD PTR [edx+eax*8-8]
  000e5	66 0f 2f 44 c1
	f8		 comisd	 xmm0, QWORD PTR [ecx+eax*8-8]
  000eb	0f 86 27 01 00
	00		 jbe	 $LN4@CDFind_All

; 852  : 			IsCandleWhite(		pstCandleData, i)																		&&

  000f1	ff 75 08	 push	 DWORD PTR tv3919[ebp]
  000f4	8b 4d f0	 mov	 ecx, DWORD PTR _this$1$[ebp]
  000f7	56		 push	 esi
  000f8	e8 00 00 00 00	 call	 ?IsCandleLong@CCandlePattern@@QAEHPAU_STCANDLE_DATA@@H@Z ; CCandlePattern::IsCandleLong
  000fd	85 c0		 test	 eax, eax
  000ff	8b 45 0c	 mov	 eax, DWORD PTR _i$1$[ebp]
  00102	0f 84 10 01 00
	00		 je	 $LN4@CDFind_All

; 132  : 	if ( pstCandleData->dClose[nDataPos] > pstCandleData->dOpen[nDataPos])

  00108	8b 4e 14	 mov	 ecx, DWORD PTR [esi+20]
  0010b	8b 56 08	 mov	 edx, DWORD PTR [esi+8]
  0010e	f2 0f 10 04 c1	 movsd	 xmm0, QWORD PTR [ecx+eax*8]
  00113	66 0f 2f 04 c2	 comisd	 xmm0, QWORD PTR [edx+eax*8]
  00118	0f 86 fa 00 00
	00		 jbe	 $LN4@CDFind_All

; 852  : 			IsCandleWhite(		pstCandleData, i)																		&&

  0011e	f2 0f 5c 44 c1
	f8		 subsd	 xmm0, QWORD PTR [ecx+eax*8-8]
  00124	8b 4d f0	 mov	 ecx, DWORD PTR _this$1$[ebp]
  00127	50		 push	 eax
  00128	56		 push	 esi
  00129	0f 54 05 00 00
	00 00		 andps	 xmm0, QWORD PTR __xmm@7fffffffffffffff7fffffffffffffff
  00130	f2 0f 11 45 dc	 movsd	 QWORD PTR tv3392[ebp], xmm0
  00135	e8 00 00 00 00	 call	 ?GetCandleAvgHeight@CCandlePattern@@QAENPAU_STCANDLE_DATA@@H@Z ; CCandlePattern::GetCandleAvgHeight
  0013a	dc 0d 00 00 00
	00		 fmul	 QWORD PTR __real@3fb999999999999a
  00140	dd 5d e8	 fstp	 QWORD PTR tv4035[ebp]
  00143	f2 0f 10 45 e8	 movsd	 xmm0, QWORD PTR tv4035[ebp]
  00148	66 0f 2f 45 dc	 comisd	 xmm0, QWORD PTR tv3392[ebp]
  0014d	0f 86 c2 00 00
	00		 jbe	 $LN294@CDFind_All
; File C:\Program Files (x86)\Microsoft Visual Studio\2019\Community\VC\Tools\MSVC\14.29.30133\atlmfc\include\afx.inl

; 116  : 	{ return ::operator new(nSize); }

  00153	6a 60		 push	 96			; 00000060H
  00155	e8 00 00 00 00	 call	 ??2@YAPAXI@Z		; operator new
  0015a	83 c4 04	 add	 esp, 4
; File D:\git\src\IBK\IBK_DRFN\ProjSrc\SrcChartEx\ChartAddIn\ChartPatternAddIn\CandlePattern.cpp

; 857  : 			pCandlePatternData = new CCandlePatternData;

  0015d	89 45 e4	 mov	 DWORD PTR $T6[ebp], eax
  00160	c7 45 fc 00 00
	00 00		 mov	 DWORD PTR __$EHRec$[ebp+8], 0
  00167	85 c0		 test	 eax, eax
  00169	74 0e		 je	 SHORT $LN12@CDFind_All
  0016b	8b c8		 mov	 ecx, eax
  0016d	e8 00 00 00 00	 call	 ??0CCandlePatternData@@QAE@XZ ; CCandlePatternData::CCandlePatternData
  00172	8b c8		 mov	 ecx, eax
  00174	89 45 08	 mov	 DWORD PTR $T11[ebp], eax
  00177	eb 05		 jmp	 SHORT $LN13@CDFind_All
$LN12@CDFind_All:
  00179	33 c9		 xor	 ecx, ecx
  0017b	89 4d 08	 mov	 DWORD PTR $T11[ebp], ecx
$LN13@CDFind_All:

; 3350 : 	pCandlePatternData->m_dTime				= pstCandleData->dTime[nEndPos];

  0017e	8b 46 04	 mov	 eax, DWORD PTR [esi+4]
  00181	8b 55 0c	 mov	 edx, DWORD PTR _i$1$[ebp]

; 857  : 			pCandlePatternData = new CCandlePatternData;

  00184	c7 45 fc ff ff
	ff ff		 mov	 DWORD PTR __$EHRec$[ebp+8], -1

; 3350 : 	pCandlePatternData->m_dTime				= pstCandleData->dTime[nEndPos];

  0018b	f2 0f 10 04 d0	 movsd	 xmm0, QWORD PTR [eax+edx*8]

; 3351 : 	pCandlePatternData->m_nCandlePtnType	= nCandlePtnType;
; 3352 : 	pCandlePatternData->m_nStartPos			= nStPos;

  00190	8d 42 ff	 lea	 eax, DWORD PTR [edx-1]
  00193	f2 0f 11 41 08	 movsd	 QWORD PTR [ecx+8], xmm0
  00198	c7 41 10 4d 1f
	00 00		 mov	 DWORD PTR [ecx+16], 8013 ; 00001f4dH
  0019f	89 41 14	 mov	 DWORD PTR [ecx+20], eax

; 3353 : 	pCandlePatternData->m_nEndPos			= nEndPos;

  001a2	89 51 18	 mov	 DWORD PTR [ecx+24], edx

; 3354 : 	pCandlePatternData->m_dHigh				= pstCandleData->dHigh[nEndPos];

  001a5	8b 46 0c	 mov	 eax, DWORD PTR [esi+12]
  001a8	f2 0f 10 04 d0	 movsd	 xmm0, QWORD PTR [eax+edx*8]
  001ad	f2 0f 11 41 50	 movsd	 QWORD PTR [ecx+80], xmm0

; 3355 : 	pCandlePatternData->m_dLow				= pstCandleData->dLow[nEndPos];

  001b2	8b 46 10	 mov	 eax, DWORD PTR [esi+16]
  001b5	f2 0f 10 04 d0	 movsd	 xmm0, QWORD PTR [eax+edx*8]
  001ba	f2 0f 11 41 58	 movsd	 QWORD PTR [ecx+88], xmm0

; 3356 : 
; 3357 : 	// Close Price for Accumulation rise and fall rate
; 3358 : 	for ( int i = nEndPos; i < pstCandleData->nDataCnt; i++)

  001bf	8b ca		 mov	 ecx, edx
  001c1	3b 16		 cmp	 edx, DWORD PTR [esi]
  001c3	7d 2b		 jge	 SHORT $LN27@CDFind_All

; 857  : 			pCandlePatternData = new CCandlePatternData;

  001c5	8b 45 08	 mov	 eax, DWORD PTR $T11[ebp]
  001c8	33 d2		 xor	 edx, edx
  001ca	83 c0 20	 add	 eax, 32			; 00000020H
  001cd	89 45 ec	 mov	 DWORD PTR tv3885[ebp], eax
$LL28@CDFind_All:

; 3360 : 		if ( i-nEndPos < ACCUMULATION_PERIOD)

  001d0	83 fa 06	 cmp	 edx, 6
  001d3	7d 0f		 jge	 SHORT $LN26@CDFind_All

; 3361 : 		{
; 3362 : 			pCandlePatternData->m_dClose[i-nEndPos] = pstCandleData->dClose[i];

  001d5	8b 46 14	 mov	 eax, DWORD PTR [esi+20]
  001d8	f2 0f 10 04 c8	 movsd	 xmm0, QWORD PTR [eax+ecx*8]
  001dd	8b 45 ec	 mov	 eax, DWORD PTR tv3885[ebp]
  001e0	f2 0f 11 00	 movsd	 QWORD PTR [eax], xmm0
$LN26@CDFind_All:

; 3356 : 
; 3357 : 	// Close Price for Accumulation rise and fall rate
; 3358 : 	for ( int i = nEndPos; i < pstCandleData->nDataCnt; i++)

  001e4	41		 inc	 ecx
  001e5	83 c0 08	 add	 eax, 8
  001e8	42		 inc	 edx
  001e9	89 45 ec	 mov	 DWORD PTR tv3885[ebp], eax
  001ec	3b 0e		 cmp	 ecx, DWORD PTR [esi]
  001ee	7c e0		 jl	 SHORT $LL28@CDFind_All
$LN27@CDFind_All:
; File C:\Program Files (x86)\Microsoft Visual Studio\2019\Community\VC\Tools\MSVC\14.29.30133\atlmfc\include\afxtempl.h

; 333  : 	{ INT_PTR nIndex = m_nSize;

  001f0	8b 47 08	 mov	 eax, DWORD PTR [edi+8]
  001f3	89 45 ec	 mov	 DWORD PTR _nIndex$1$[ebp], eax

; 538  : 	if(nIndex < 0)

  001f6	85 c0		 test	 eax, eax
  001f8	0f 88 bb 07 00
	00		 js	 $LN238@CDFind_All

; 540  : 
; 541  : 	if (nIndex >= m_nSize)
; 542  : 		SetSize(nIndex+1, -1);

  001fe	6a ff		 push	 -1
  00200	40		 inc	 eax
  00201	8b cf		 mov	 ecx, edi
  00203	50		 push	 eax
  00204	e8 00 00 00 00	 call	 ?SetSize@?$CArray@PAVCCandlePatternData@@PAV1@@@QAEXHH@Z ; CArray<CCandlePatternData *,CCandlePatternData *>::SetSize

; 543  : 	m_pData[nIndex] = newElement;

  00209	8b 47 04	 mov	 eax, DWORD PTR [edi+4]
  0020c	8b 55 ec	 mov	 edx, DWORD PTR _nIndex$1$[ebp]
  0020f	8b 4d 08	 mov	 ecx, DWORD PTR $T11[ebp]
  00212	89 0c 90	 mov	 DWORD PTR [eax+edx*4], ecx
$LN294@CDFind_All:
; File D:\git\src\IBK\IBK_DRFN\ProjSrc\SrcChartEx\ChartAddIn\ChartPatternAddIn\CandlePattern.cpp

; 846  : 	for ( int i = nMinDataCnt-1; i < pstCandleData->nDataCnt; i++)

  00215	8b 45 0c	 mov	 eax, DWORD PTR _i$1$[ebp]
$LN4@CDFind_All:
  00218	8b 0e		 mov	 ecx, DWORD PTR [esi]
  0021a	40		 inc	 eax
  0021b	89 45 0c	 mov	 DWORD PTR _i$1$[ebp], eax
  0021e	3b c1		 cmp	 eax, ecx
  00220	0f 8c 9a fe ff
	ff		 jl	 $LL6@CDFind_All

; 882  : 	if ( pstCandleData->nDataCnt < NEED_PERIOD_20)

  00226	83 f9 14	 cmp	 ecx, 20			; 00000014H
  00229	0f 8c 75 01 00
	00		 jl	 $LN42@CDFind_All

; 887  : 	for ( int i = nMinDataCnt-1; i < pstCandleData->nDataCnt; i++)

  0022f	b8 13 00 00 00	 mov	 eax, 19			; 00000013H
  00234	89 45 0c	 mov	 DWORD PTR _i$1$[ebp], eax
$LL43@CDFind_All:

; 888  : 	{
; 889  : 		// Condition Check
; 890  : 		if (IsCandleTrendUp(	pstCandleData, i-1)																		&&
; 891  : 			IsCandleWhite(		pstCandleData, i-1)																		&&
; 892  : 			IsCandleLong(		pstCandleData, i-1)																		&&
; 893  : 			IsCandleBlack(		pstCandleData, i)																		&&

  00237	8b 4d f0	 mov	 ecx, DWORD PTR _this$1$[ebp]
  0023a	48		 dec	 eax
  0023b	50		 push	 eax
  0023c	56		 push	 esi
  0023d	89 45 08	 mov	 DWORD PTR tv3897[ebp], eax
  00240	e8 00 00 00 00	 call	 ?IsCandleTrendUp@CCandlePattern@@QAEHPAU_STCANDLE_DATA@@H@Z ; CCandlePattern::IsCandleTrendUp
  00245	85 c0		 test	 eax, eax
  00247	8b 45 0c	 mov	 eax, DWORD PTR _i$1$[ebp]
  0024a	0f 84 48 01 00
	00		 je	 $LN41@CDFind_All

; 132  : 	if ( pstCandleData->dClose[nDataPos] > pstCandleData->dOpen[nDataPos])

  00250	8b 4e 14	 mov	 ecx, DWORD PTR [esi+20]
  00253	8b 56 08	 mov	 edx, DWORD PTR [esi+8]
  00256	f2 0f 10 44 c1
	f8		 movsd	 xmm0, QWORD PTR [ecx+eax*8-8]
  0025c	66 0f 2f 44 c2
	f8		 comisd	 xmm0, QWORD PTR [edx+eax*8-8]
  00262	0f 86 30 01 00
	00		 jbe	 $LN41@CDFind_All

; 893  : 			IsCandleBlack(		pstCandleData, i)																		&&

  00268	ff 75 08	 push	 DWORD PTR tv3897[ebp]
  0026b	8b 4d f0	 mov	 ecx, DWORD PTR _this$1$[ebp]
  0026e	56		 push	 esi
  0026f	e8 00 00 00 00	 call	 ?IsCandleLong@CCandlePattern@@QAEHPAU_STCANDLE_DATA@@H@Z ; CCandlePattern::IsCandleLong
  00274	85 c0		 test	 eax, eax
  00276	8b 45 0c	 mov	 eax, DWORD PTR _i$1$[ebp]
  00279	0f 84 19 01 00
	00		 je	 $LN41@CDFind_All

; 143  : 	if ( pstCandleData->dClose[nDataPos] < pstCandleData->dOpen[nDataPos])

  0027f	8b 4e 14	 mov	 ecx, DWORD PTR [esi+20]
  00282	8b 56 08	 mov	 edx, DWORD PTR [esi+8]
  00285	f2 0f 10 0c c1	 movsd	 xmm1, QWORD PTR [ecx+eax*8]
  0028a	f2 0f 10 04 c2	 movsd	 xmm0, QWORD PTR [edx+eax*8]
  0028f	66 0f 2f c1	 comisd	 xmm0, xmm1
  00293	0f 86 ff 00 00
	00		 jbe	 $LN41@CDFind_All

; 893  : 			IsCandleBlack(		pstCandleData, i)																		&&

  00299	f2 0f 5c 4c c1
	f8		 subsd	 xmm1, QWORD PTR [ecx+eax*8-8]
  0029f	8b 4d f0	 mov	 ecx, DWORD PTR _this$1$[ebp]
  002a2	50		 push	 eax
  002a3	56		 push	 esi
  002a4	0f 54 0d 00 00
	00 00		 andps	 xmm1, QWORD PTR __xmm@7fffffffffffffff7fffffffffffffff
  002ab	f2 0f 11 4d e8	 movsd	 QWORD PTR tv3412[ebp], xmm1
  002b0	e8 00 00 00 00	 call	 ?GetCandleAvgHeight@CCandlePattern@@QAENPAU_STCANDLE_DATA@@H@Z ; CCandlePattern::GetCandleAvgHeight
  002b5	dc 0d 00 00 00
	00		 fmul	 QWORD PTR __real@3fb999999999999a
  002bb	dd 5d dc	 fstp	 QWORD PTR tv4018[ebp]
  002be	f2 0f 10 45 dc	 movsd	 xmm0, QWORD PTR tv4018[ebp]
  002c3	66 0f 2f 45 e8	 comisd	 xmm0, QWORD PTR tv3412[ebp]
  002c8	0f 86 c7 00 00
	00		 jbe	 $LN297@CDFind_All
; File C:\Program Files (x86)\Microsoft Visual Studio\2019\Community\VC\Tools\MSVC\14.29.30133\atlmfc\include\afx.inl

; 116  : 	{ return ::operator new(nSize); }

  002ce	6a 60		 push	 96			; 00000060H
  002d0	e8 00 00 00 00	 call	 ??2@YAPAXI@Z		; operator new
  002d5	83 c4 04	 add	 esp, 4
; File D:\git\src\IBK\IBK_DRFN\ProjSrc\SrcChartEx\ChartAddIn\ChartPatternAddIn\CandlePattern.cpp

; 898  : 			pCandlePatternData = new CCandlePatternData;

  002d8	89 45 e4	 mov	 DWORD PTR $T5[ebp], eax
  002db	c7 45 fc 01 00
	00 00		 mov	 DWORD PTR __$EHRec$[ebp+8], 1
  002e2	85 c0		 test	 eax, eax
  002e4	74 0e		 je	 SHORT $LN49@CDFind_All
  002e6	8b c8		 mov	 ecx, eax
  002e8	e8 00 00 00 00	 call	 ??0CCandlePatternData@@QAE@XZ ; CCandlePatternData::CCandlePatternData
  002ed	8b c8		 mov	 ecx, eax
  002ef	89 45 08	 mov	 DWORD PTR $T10[ebp], eax
  002f2	eb 05		 jmp	 SHORT $LN50@CDFind_All
$LN49@CDFind_All:
  002f4	33 c9		 xor	 ecx, ecx
  002f6	89 4d 08	 mov	 DWORD PTR $T10[ebp], ecx
$LN50@CDFind_All:

; 3350 : 	pCandlePatternData->m_dTime				= pstCandleData->dTime[nEndPos];

  002f9	8b 46 04	 mov	 eax, DWORD PTR [esi+4]
  002fc	8b 55 0c	 mov	 edx, DWORD PTR _i$1$[ebp]

; 898  : 			pCandlePatternData = new CCandlePatternData;

  002ff	c7 45 fc ff ff
	ff ff		 mov	 DWORD PTR __$EHRec$[ebp+8], -1

; 3350 : 	pCandlePatternData->m_dTime				= pstCandleData->dTime[nEndPos];

  00306	f2 0f 10 04 d0	 movsd	 xmm0, QWORD PTR [eax+edx*8]

; 3351 : 	pCandlePatternData->m_nCandlePtnType	= nCandlePtnType;
; 3352 : 	pCandlePatternData->m_nStartPos			= nStPos;

  0030b	8d 42 ff	 lea	 eax, DWORD PTR [edx-1]
  0030e	f2 0f 11 41 08	 movsd	 QWORD PTR [ecx+8], xmm0
  00313	c7 41 10 4e 1f
	00 00		 mov	 DWORD PTR [ecx+16], 8014 ; 00001f4eH
  0031a	89 41 14	 mov	 DWORD PTR [ecx+20], eax

; 3353 : 	pCandlePatternData->m_nEndPos			= nEndPos;

  0031d	89 51 18	 mov	 DWORD PTR [ecx+24], edx

; 3354 : 	pCandlePatternData->m_dHigh				= pstCandleData->dHigh[nEndPos];

  00320	8b 46 0c	 mov	 eax, DWORD PTR [esi+12]
  00323	f2 0f 10 04 d0	 movsd	 xmm0, QWORD PTR [eax+edx*8]
  00328	f2 0f 11 41 50	 movsd	 QWORD PTR [ecx+80], xmm0

; 3355 : 	pCandlePatternData->m_dLow				= pstCandleData->dLow[nEndPos];

  0032d	8b 46 10	 mov	 eax, DWORD PTR [esi+16]
  00330	f2 0f 10 04 d0	 movsd	 xmm0, QWORD PTR [eax+edx*8]
  00335	f2 0f 11 41 58	 movsd	 QWORD PTR [ecx+88], xmm0

; 3356 : 
; 3357 : 	// Close Price for Accumulation rise and fall rate
; 3358 : 	for ( int i = nEndPos; i < pstCandleData->nDataCnt; i++)

  0033a	8b ca		 mov	 ecx, edx
  0033c	3b 16		 cmp	 edx, DWORD PTR [esi]
  0033e	7d 30		 jge	 SHORT $LN64@CDFind_All

; 898  : 			pCandlePatternData = new CCandlePatternData;

  00340	8b 45 08	 mov	 eax, DWORD PTR $T10[ebp]
  00343	33 d2		 xor	 edx, edx
  00345	83 c0 20	 add	 eax, 32			; 00000020H
  00348	89 45 ec	 mov	 DWORD PTR tv3882[ebp], eax
  0034b	0f 1f 44 00 00	 npad	 5
$LL65@CDFind_All:

; 3360 : 		if ( i-nEndPos < ACCUMULATION_PERIOD)

  00350	83 fa 06	 cmp	 edx, 6
  00353	7d 0f		 jge	 SHORT $LN63@CDFind_All

; 3361 : 		{
; 3362 : 			pCandlePatternData->m_dClose[i-nEndPos] = pstCandleData->dClose[i];

  00355	8b 46 14	 mov	 eax, DWORD PTR [esi+20]
  00358	f2 0f 10 04 c8	 movsd	 xmm0, QWORD PTR [eax+ecx*8]
  0035d	8b 45 ec	 mov	 eax, DWORD PTR tv3882[ebp]
  00360	f2 0f 11 00	 movsd	 QWORD PTR [eax], xmm0
$LN63@CDFind_All:

; 3356 : 
; 3357 : 	// Close Price for Accumulation rise and fall rate
; 3358 : 	for ( int i = nEndPos; i < pstCandleData->nDataCnt; i++)

  00364	41		 inc	 ecx
  00365	83 c0 08	 add	 eax, 8
  00368	42		 inc	 edx
  00369	89 45 ec	 mov	 DWORD PTR tv3882[ebp], eax
  0036c	3b 0e		 cmp	 ecx, DWORD PTR [esi]
  0036e	7c e0		 jl	 SHORT $LL65@CDFind_All
$LN64@CDFind_All:
; File C:\Program Files (x86)\Microsoft Visual Studio\2019\Community\VC\Tools\MSVC\14.29.30133\atlmfc\include\afxtempl.h

; 333  : 	{ INT_PTR nIndex = m_nSize;

  00370	8b 47 08	 mov	 eax, DWORD PTR [edi+8]
  00373	89 45 ec	 mov	 DWORD PTR _nIndex$1$[ebp], eax

; 538  : 	if(nIndex < 0)

  00376	85 c0		 test	 eax, eax
  00378	0f 88 3b 06 00
	00		 js	 $LN238@CDFind_All

; 540  : 
; 541  : 	if (nIndex >= m_nSize)
; 542  : 		SetSize(nIndex+1, -1);

  0037e	6a ff		 push	 -1
  00380	40		 inc	 eax
  00381	8b cf		 mov	 ecx, edi
  00383	50		 push	 eax
  00384	e8 00 00 00 00	 call	 ?SetSize@?$CArray@PAVCCandlePatternData@@PAV1@@@QAEXHH@Z ; CArray<CCandlePatternData *,CCandlePatternData *>::SetSize

; 543  : 	m_pData[nIndex] = newElement;

  00389	8b 47 04	 mov	 eax, DWORD PTR [edi+4]
  0038c	8b 55 ec	 mov	 edx, DWORD PTR _nIndex$1$[ebp]
  0038f	8b 4d 08	 mov	 ecx, DWORD PTR $T10[ebp]
  00392	89 0c 90	 mov	 DWORD PTR [eax+edx*4], ecx
$LN297@CDFind_All:
; File D:\git\src\IBK\IBK_DRFN\ProjSrc\SrcChartEx\ChartAddIn\ChartPatternAddIn\CandlePattern.cpp

; 887  : 	for ( int i = nMinDataCnt-1; i < pstCandleData->nDataCnt; i++)

  00395	8b 45 0c	 mov	 eax, DWORD PTR _i$1$[ebp]
$LN41@CDFind_All:
  00398	40		 inc	 eax
  00399	89 45 0c	 mov	 DWORD PTR _i$1$[ebp], eax
  0039c	3b 06		 cmp	 eax, DWORD PTR [esi]
  0039e	0f 8c 93 fe ff
	ff		 jl	 $LL43@CDFind_All
$LN42@CDFind_All:

; 3396 : 	// ## 13. Bullish Counterattack Line		()       			
; 3397 : 	CDFind_Bullish_CounterattackLine(	pstCandleData, pObjCandlePatternData);
; 3398 : 	// ## 14. Bearish Counterattack Line		()       			
; 3399 : 	CDFind_Bearish_CounterattackLine(	pstCandleData, pObjCandlePatternData);
; 3400 : 	// ## 15. Piercing Pattern					()           			
; 3401 : 	CDFind_PiercingPattern(				pstCandleData, pObjCandlePatternData);

  003a4	8b 4d f0	 mov	 ecx, DWORD PTR _this$1$[ebp]
  003a7	57		 push	 edi
  003a8	56		 push	 esi
  003a9	e8 00 00 00 00	 call	 ?CDFind_PiercingPattern@CCandlePattern@@QAEHPAU_STCANDLE_DATA@@PAVCObject@@@Z ; CCandlePattern::CDFind_PiercingPattern

; 3402 : 	// ## 16. Dark Cloud Cover					()         			                            		
; 3403 : 	CDFind_DarkCloudCover(				pstCandleData, pObjCandlePatternData);

  003ae	8b 4d f0	 mov	 ecx, DWORD PTR _this$1$[ebp]
  003b1	57		 push	 edi
  003b2	56		 push	 esi
  003b3	e8 00 00 00 00	 call	 ?CDFind_DarkCloudCover@CCandlePattern@@QAEHPAU_STCANDLE_DATA@@PAVCObject@@@Z ; CCandlePattern::CDFind_DarkCloudCover

; 3404 : 	// ## 17. Morning Star						()           			                            		
; 3405 : 	CDFind_MorningStar(					pstCandleData, pObjCandlePatternData);

  003b8	8b 4d f0	 mov	 ecx, DWORD PTR _this$1$[ebp]
  003bb	57		 push	 edi
  003bc	56		 push	 esi
  003bd	e8 00 00 00 00	 call	 ?CDFind_MorningStar@CCandlePattern@@QAEHPAU_STCANDLE_DATA@@PAVCObject@@@Z ; CCandlePattern::CDFind_MorningStar

; 3406 : 	// ## 18. Evening Star						()           			                        			
; 3407 : 	CDFind_EveningStar(					pstCandleData, pObjCandlePatternData);

  003c2	8b 4d f0	 mov	 ecx, DWORD PTR _this$1$[ebp]
  003c5	57		 push	 edi
  003c6	56		 push	 esi
  003c7	e8 00 00 00 00	 call	 ?CDFind_EveningStar@CCandlePattern@@QAEHPAU_STCANDLE_DATA@@PAVCObject@@@Z ; CCandlePattern::CDFind_EveningStar

; 3408 : 	// ## 19. Morning Doji Star					()       			                            		
; 3409 : 	CDFind_MorningDojiStar(				pstCandleData, pObjCandlePatternData);

  003cc	8b 4d f0	 mov	 ecx, DWORD PTR _this$1$[ebp]
  003cf	57		 push	 edi
  003d0	56		 push	 esi
  003d1	e8 00 00 00 00	 call	 ?CDFind_MorningDojiStar@CCandlePattern@@QAEHPAU_STCANDLE_DATA@@PAVCObject@@@Z ; CCandlePattern::CDFind_MorningDojiStar

; 3410 : 	// ## 20. Evening Doji Star					()       			                            		
; 3411 : 	CDFind_EveningDojiStar(				pstCandleData, pObjCandlePatternData);

  003d6	8b 4d f0	 mov	 ecx, DWORD PTR _this$1$[ebp]
  003d9	57		 push	 edi
  003da	56		 push	 esi
  003db	e8 00 00 00 00	 call	 ?CDFind_EveningDojiStar@CCandlePattern@@QAEHPAU_STCANDLE_DATA@@PAVCObject@@@Z ; CCandlePattern::CDFind_EveningDojiStar

; 3412 : 	// ## 21. Abandoned Baby In Downtrend		()       			
; 3413 : 	CDFind_AbandonedBabyInDowntrend(	pstCandleData, pObjCandlePatternData);

  003e0	8b 4d f0	 mov	 ecx, DWORD PTR _this$1$[ebp]
  003e3	57		 push	 edi
  003e4	56		 push	 esi
  003e5	e8 00 00 00 00	 call	 ?CDFind_AbandonedBabyInDowntrend@CCandlePattern@@QAEHPAU_STCANDLE_DATA@@PAVCObject@@@Z ; CCandlePattern::CDFind_AbandonedBabyInDowntrend

; 3414 : 	// ## 22. Abandoned Baby In Uptrend			()       			
; 3415 : 	CDFind_AbandonedBabyInUptrend(		pstCandleData, pObjCandlePatternData);

  003ea	8b 4d f0	 mov	 ecx, DWORD PTR _this$1$[ebp]
  003ed	57		 push	 edi
  003ee	56		 push	 esi
  003ef	e8 00 00 00 00	 call	 ?CDFind_AbandonedBabyInUptrend@CCandlePattern@@QAEHPAU_STCANDLE_DATA@@PAVCObject@@@Z ; CCandlePattern::CDFind_AbandonedBabyInUptrend

; 3416 : 	// ## 23. Three Indise Up					()   			
; 3417 : 	CDFind_ThreeIndiseUp(				pstCandleData, pObjCandlePatternData);

  003f4	8b 4d f0	 mov	 ecx, DWORD PTR _this$1$[ebp]
  003f7	57		 push	 edi
  003f8	56		 push	 esi
  003f9	e8 00 00 00 00	 call	 ?CDFind_ThreeIndiseUp@CCandlePattern@@QAEHPAU_STCANDLE_DATA@@PAVCObject@@@Z ; CCandlePattern::CDFind_ThreeIndiseUp

; 3418 : 	// ## 24. Three Indise Down					()   			                            		
; 3419 : 	CDFind_ThreeIndiseDown(				pstCandleData, pObjCandlePatternData);

  003fe	8b 4d f0	 mov	 ecx, DWORD PTR _this$1$[ebp]
  00401	57		 push	 edi
  00402	56		 push	 esi
  00403	e8 00 00 00 00	 call	 ?CDFind_ThreeIndiseDown@CCandlePattern@@QAEHPAU_STCANDLE_DATA@@PAVCObject@@@Z ; CCandlePattern::CDFind_ThreeIndiseDown

; 3420 : 	// ## 25. Three Outside Up					()   			                            		
; 3421 : 	CDFind_ThreeOutsideUp(				pstCandleData, pObjCandlePatternData);

  00408	8b 4d f0	 mov	 ecx, DWORD PTR _this$1$[ebp]
  0040b	57		 push	 edi
  0040c	56		 push	 esi
  0040d	e8 00 00 00 00	 call	 ?CDFind_ThreeOutsideUp@CCandlePattern@@QAEHPAU_STCANDLE_DATA@@PAVCObject@@@Z ; CCandlePattern::CDFind_ThreeOutsideUp

; 3422 : 	// ## 26. Three Outside Down				()   			                                	
; 3423 : 	CDFind_ThreeOutsideDown(			pstCandleData, pObjCandlePatternData);

  00412	8b 4d f0	 mov	 ecx, DWORD PTR _this$1$[ebp]
  00415	57		 push	 edi
  00416	56		 push	 esi
  00417	e8 00 00 00 00	 call	 ?CDFind_ThreeOutsideDown@CCandlePattern@@QAEHPAU_STCANDLE_DATA@@PAVCObject@@@Z ; CCandlePattern::CDFind_ThreeOutsideDown

; 3424 : 	// ## 27. Upside Gap Two Crows In Uptrend	()         			
; 3425 : 	CDFind_UpsideGapTwoCrowsInUptrend(	pstCandleData, pObjCandlePatternData);

  0041c	8b 4d f0	 mov	 ecx, DWORD PTR _this$1$[ebp]
  0041f	57		 push	 edi
  00420	56		 push	 esi
  00421	e8 00 00 00 00	 call	 ?CDFind_UpsideGapTwoCrowsInUptrend@CCandlePattern@@QAEHPAU_STCANDLE_DATA@@PAVCObject@@@Z ; CCandlePattern::CDFind_UpsideGapTwoCrowsInUptrend

; 3426 : 	// ## 28. Three White Soldier				()           			
; 3427 : 	CDFind_ThreeWhiteSoldier(			pstCandleData, pObjCandlePatternData);

  00426	8b 4d f0	 mov	 ecx, DWORD PTR _this$1$[ebp]
  00429	57		 push	 edi
  0042a	56		 push	 esi
  0042b	e8 00 00 00 00	 call	 ?CDFind_ThreeWhiteSoldier@CCandlePattern@@QAEHPAU_STCANDLE_DATA@@PAVCObject@@@Z ; CCandlePattern::CDFind_ThreeWhiteSoldier

; 3428 : 	// ## 29. Three Black Corws					()           			                                	
; 3429 : 	CDFind_ThreeBlackCorws(				pstCandleData, pObjCandlePatternData);

  00430	8b 4d f0	 mov	 ecx, DWORD PTR _this$1$[ebp]
  00433	57		 push	 edi
  00434	56		 push	 esi
  00435	e8 00 00 00 00	 call	 ?CDFind_ThreeBlackCorws@CCandlePattern@@QAEHPAU_STCANDLE_DATA@@PAVCObject@@@Z ; CCandlePattern::CDFind_ThreeBlackCorws

; 3430 : 	// ## 30. Stalled Pattern					()           			                            		
; 3431 : 	CDFind_StalledPattern(				pstCandleData, pObjCandlePatternData);

  0043a	8b 4d f0	 mov	 ecx, DWORD PTR _this$1$[ebp]
  0043d	57		 push	 edi
  0043e	56		 push	 esi
  0043f	e8 00 00 00 00	 call	 ?CDFind_StalledPattern@CCandlePattern@@QAEHPAU_STCANDLE_DATA@@PAVCObject@@@Z ; CCandlePattern::CDFind_StalledPattern

; 3432 : 	// ## 31. Advance Block						()           			                            		
; 3433 : 	CDFind_AdvanceBlock(				pstCandleData, pObjCandlePatternData);

  00444	8b 4d f0	 mov	 ecx, DWORD PTR _this$1$[ebp]
  00447	57		 push	 edi
  00448	56		 push	 esi
  00449	e8 00 00 00 00	 call	 ?CDFind_AdvanceBlock@CCandlePattern@@QAEHPAU_STCANDLE_DATA@@PAVCObject@@@Z ; CCandlePattern::CDFind_AdvanceBlock

; 3434 : 	// ## 32. Upside Gap Tasuki					()   			                            		
; 3435 : 	CDFind_UpsideGapTasuki(				pstCandleData, pObjCandlePatternData);

  0044e	8b 4d f0	 mov	 ecx, DWORD PTR _this$1$[ebp]
  00451	57		 push	 edi
  00452	56		 push	 esi
  00453	e8 00 00 00 00	 call	 ?CDFind_UpsideGapTasuki@CCandlePattern@@QAEHPAU_STCANDLE_DATA@@PAVCObject@@@Z ; CCandlePattern::CDFind_UpsideGapTasuki

; 3436 : 	// ## 33. Downside Gap Tasuki				()   			                                	
; 3437 : 	CDFind_DownsideGapTasuki(			pstCandleData, pObjCandlePatternData);

  00458	8b 4d f0	 mov	 ecx, DWORD PTR _this$1$[ebp]
  0045b	57		 push	 edi
  0045c	56		 push	 esi
  0045d	e8 00 00 00 00	 call	 ?CDFind_DownsideGapTasuki@CCandlePattern@@QAEHPAU_STCANDLE_DATA@@PAVCObject@@@Z ; CCandlePattern::CDFind_DownsideGapTasuki

; 3438 : 	// ## 34. Mat-Hold							()           			
; 3439 : 	CDFind_MatHold(						pstCandleData, pObjCandlePatternData);

  00462	8b 4d f0	 mov	 ecx, DWORD PTR _this$1$[ebp]
  00465	57		 push	 edi
  00466	56		 push	 esi
  00467	e8 00 00 00 00	 call	 ?CDFind_MatHold@CCandlePattern@@QAEHPAU_STCANDLE_DATA@@PAVCObject@@@Z ; CCandlePattern::CDFind_MatHold

; 1870 : 	if ( pstCandleData->nDataCnt < NEED_PERIOD_20)

  0046c	8b 06		 mov	 eax, DWORD PTR [esi]
  0046e	83 f8 14	 cmp	 eax, 20			; 00000014H
  00471	0f 8c e1 02 00
	00		 jl	 $LN134@CDFind_All

; 1875 : 	for ( int i = nMinDataCnt-1; i < pstCandleData->nDataCnt; i++)

  00477	b9 13 00 00 00	 mov	 ecx, 19			; 00000013H
  0047c	89 4d 0c	 mov	 DWORD PTR _i$1$[ebp], ecx
  0047f	90		 npad	 1
$LL79@CDFind_All:

; 1876 : 	{
; 1877 : 		// Condition Check
; 1878 : 		if (IsCandleTrendDown(	pstCandleData, i-2)														&&
; 1879 : 			IsCandleDoji(		pstCandleData, i-2)														&&
; 1880 : 			IsCandleDoji(		pstCandleData, i-1)														&&
; 1881 : 
; 1882 : 			GetCandleBodyHighValue(	pstCandleData, i-1)	< GetCandleBodyLowValue( pstCandleData, i-2)	&&
; 1883 : 			IsCandleDoji(		pstCandleData, i)														&&

  00480	8d 41 fe	 lea	 eax, DWORD PTR [ecx-2]
  00483	8b 4d f0	 mov	 ecx, DWORD PTR _this$1$[ebp]
  00486	50		 push	 eax
  00487	56		 push	 esi
  00488	e8 00 00 00 00	 call	 ?IsCandleTrendDown@CCandlePattern@@QAEHPAU_STCANDLE_DATA@@H@Z ; CCandlePattern::IsCandleTrendDown
  0048d	8b 4d 0c	 mov	 ecx, DWORD PTR _i$1$[ebp]
  00490	85 c0		 test	 eax, eax
  00492	0f 84 40 01 00
	00		 je	 $LN77@CDFind_All

; 200  : 	if ( pstCandleData->dOpen[nDataPos] == pstCandleData->dClose[nDataPos])

  00498	8b 46 14	 mov	 eax, DWORD PTR [esi+20]
  0049b	8b 56 08	 mov	 edx, DWORD PTR [esi+8]
  0049e	f2 0f 10 5c c8
	f0		 movsd	 xmm3, QWORD PTR [eax+ecx*8-16]
  004a4	f2 0f 10 44 ca
	f0		 movsd	 xmm0, QWORD PTR [edx+ecx*8-16]
  004aa	66 0f 2e c3	 ucomisd xmm0, xmm3
  004ae	9f		 lahf
  004af	f6 c4 44	 test	 ah, 68			; 00000044H
  004b2	0f 8a 20 01 00
	00		 jp	 $LN77@CDFind_All
  004b8	8b 46 14	 mov	 eax, DWORD PTR [esi+20]
  004bb	f2 0f 10 4c ca
	f8		 movsd	 xmm1, QWORD PTR [edx+ecx*8-8]
  004c1	f2 0f 10 54 c8
	f8		 movsd	 xmm2, QWORD PTR [eax+ecx*8-8]
  004c7	66 0f 2e ca	 ucomisd xmm1, xmm2
  004cb	9f		 lahf
  004cc	f6 c4 44	 test	 ah, 68			; 00000044H
  004cf	0f 8a 03 01 00
	00		 jp	 $LN77@CDFind_All

; 92   : 	return max( pstCandleData->dOpen[nDataPos], pstCandleData->dClose[nDataPos]);

  004d5	f2 0f 5f ca	 maxsd	 xmm1, xmm2

; 100  : 	return min( pstCandleData->dOpen[nDataPos], pstCandleData->dClose[nDataPos]);

  004d9	f2 0f 5d c3	 minsd	 xmm0, xmm3

; 1883 : 			IsCandleDoji(		pstCandleData, i)														&&

  004dd	66 0f 2f c1	 comisd	 xmm0, xmm1
  004e1	0f 86 f1 00 00
	00		 jbe	 $LN77@CDFind_All

; 200  : 	if ( pstCandleData->dOpen[nDataPos] == pstCandleData->dClose[nDataPos])

  004e7	8b 46 14	 mov	 eax, DWORD PTR [esi+20]
  004ea	f2 0f 10 04 ca	 movsd	 xmm0, QWORD PTR [edx+ecx*8]
  004ef	f2 0f 10 14 c8	 movsd	 xmm2, QWORD PTR [eax+ecx*8]
  004f4	66 0f 2e c2	 ucomisd xmm0, xmm2
  004f8	9f		 lahf
  004f9	f6 c4 44	 test	 ah, 68			; 00000044H
  004fc	0f 8a d6 00 00
	00		 jp	 $LN77@CDFind_All

; 100  : 	return min( pstCandleData->dOpen[nDataPos], pstCandleData->dClose[nDataPos]);

  00502	f2 0f 5d c2	 minsd	 xmm0, xmm2

; 1883 : 			IsCandleDoji(		pstCandleData, i)														&&

  00506	66 0f 2f c1	 comisd	 xmm0, xmm1
  0050a	0f 86 c8 00 00
	00		 jbe	 $LN77@CDFind_All
; File C:\Program Files (x86)\Microsoft Visual Studio\2019\Community\VC\Tools\MSVC\14.29.30133\atlmfc\include\afx.inl

; 116  : 	{ return ::operator new(nSize); }

  00510	6a 60		 push	 96			; 00000060H
  00512	e8 00 00 00 00	 call	 ??2@YAPAXI@Z		; operator new
  00517	83 c4 04	 add	 esp, 4
; File D:\git\src\IBK\IBK_DRFN\ProjSrc\SrcChartEx\ChartAddIn\ChartPatternAddIn\CandlePattern.cpp

; 1888 : 			pCandlePatternData = new CCandlePatternData;

  0051a	89 45 e4	 mov	 DWORD PTR $T4[ebp], eax
  0051d	c7 45 fc 02 00
	00 00		 mov	 DWORD PTR __$EHRec$[ebp+8], 2
  00524	85 c0		 test	 eax, eax
  00526	74 0e		 je	 SHORT $LN85@CDFind_All
  00528	8b c8		 mov	 ecx, eax
  0052a	e8 00 00 00 00	 call	 ??0CCandlePatternData@@QAE@XZ ; CCandlePatternData::CCandlePatternData
  0052f	8b c8		 mov	 ecx, eax
  00531	89 45 08	 mov	 DWORD PTR $T9[ebp], eax
  00534	eb 05		 jmp	 SHORT $LN86@CDFind_All
$LN85@CDFind_All:
  00536	33 c9		 xor	 ecx, ecx
  00538	89 4d 08	 mov	 DWORD PTR $T9[ebp], ecx
$LN86@CDFind_All:

; 3350 : 	pCandlePatternData->m_dTime				= pstCandleData->dTime[nEndPos];

  0053b	8b 46 04	 mov	 eax, DWORD PTR [esi+4]
  0053e	8b 55 0c	 mov	 edx, DWORD PTR _i$1$[ebp]

; 1888 : 			pCandlePatternData = new CCandlePatternData;

  00541	c7 45 fc ff ff
	ff ff		 mov	 DWORD PTR __$EHRec$[ebp+8], -1

; 3350 : 	pCandlePatternData->m_dTime				= pstCandleData->dTime[nEndPos];

  00548	f2 0f 10 04 d0	 movsd	 xmm0, QWORD PTR [eax+edx*8]

; 3351 : 	pCandlePatternData->m_nCandlePtnType	= nCandlePtnType;
; 3352 : 	pCandlePatternData->m_nStartPos			= nStPos;

  0054d	8d 42 fe	 lea	 eax, DWORD PTR [edx-2]
  00550	f2 0f 11 41 08	 movsd	 QWORD PTR [ecx+8], xmm0
  00555	c7 41 10 63 1f
	00 00		 mov	 DWORD PTR [ecx+16], 8035 ; 00001f63H
  0055c	89 41 14	 mov	 DWORD PTR [ecx+20], eax

; 3353 : 	pCandlePatternData->m_nEndPos			= nEndPos;

  0055f	89 51 18	 mov	 DWORD PTR [ecx+24], edx

; 3354 : 	pCandlePatternData->m_dHigh				= pstCandleData->dHigh[nEndPos];

  00562	8b 46 0c	 mov	 eax, DWORD PTR [esi+12]
  00565	f2 0f 10 04 d0	 movsd	 xmm0, QWORD PTR [eax+edx*8]
  0056a	f2 0f 11 41 50	 movsd	 QWORD PTR [ecx+80], xmm0

; 3355 : 	pCandlePatternData->m_dLow				= pstCandleData->dLow[nEndPos];

  0056f	8b 46 10	 mov	 eax, DWORD PTR [esi+16]
  00572	f2 0f 10 04 d0	 movsd	 xmm0, QWORD PTR [eax+edx*8]
  00577	f2 0f 11 41 58	 movsd	 QWORD PTR [ecx+88], xmm0

; 3356 : 
; 3357 : 	// Close Price for Accumulation rise and fall rate
; 3358 : 	for ( int i = nEndPos; i < pstCandleData->nDataCnt; i++)

  0057c	8b ca		 mov	 ecx, edx
  0057e	3b 16		 cmp	 edx, DWORD PTR [esi]
  00580	7d 2e		 jge	 SHORT $LN120@CDFind_All

; 1888 : 			pCandlePatternData = new CCandlePatternData;

  00582	8b 45 08	 mov	 eax, DWORD PTR $T9[ebp]
  00585	33 d2		 xor	 edx, edx
  00587	83 c0 20	 add	 eax, 32			; 00000020H
  0058a	89 45 ec	 mov	 DWORD PTR tv3879[ebp], eax
  0058d	0f 1f 00	 npad	 3
$LL121@CDFind_All:

; 3360 : 		if ( i-nEndPos < ACCUMULATION_PERIOD)

  00590	83 fa 06	 cmp	 edx, 6
  00593	7d 0f		 jge	 SHORT $LN119@CDFind_All

; 3361 : 		{
; 3362 : 			pCandlePatternData->m_dClose[i-nEndPos] = pstCandleData->dClose[i];

  00595	8b 46 14	 mov	 eax, DWORD PTR [esi+20]
  00598	f2 0f 10 04 c8	 movsd	 xmm0, QWORD PTR [eax+ecx*8]
  0059d	8b 45 ec	 mov	 eax, DWORD PTR tv3879[ebp]
  005a0	f2 0f 11 00	 movsd	 QWORD PTR [eax], xmm0
$LN119@CDFind_All:

; 3356 : 
; 3357 : 	// Close Price for Accumulation rise and fall rate
; 3358 : 	for ( int i = nEndPos; i < pstCandleData->nDataCnt; i++)

  005a4	41		 inc	 ecx
  005a5	83 c0 08	 add	 eax, 8
  005a8	42		 inc	 edx
  005a9	89 45 ec	 mov	 DWORD PTR tv3879[ebp], eax
  005ac	3b 0e		 cmp	 ecx, DWORD PTR [esi]
  005ae	7c e0		 jl	 SHORT $LL121@CDFind_All
$LN120@CDFind_All:
; File C:\Program Files (x86)\Microsoft Visual Studio\2019\Community\VC\Tools\MSVC\14.29.30133\atlmfc\include\afxtempl.h

; 333  : 	{ INT_PTR nIndex = m_nSize;

  005b0	8b 47 08	 mov	 eax, DWORD PTR [edi+8]
  005b3	89 45 ec	 mov	 DWORD PTR _nIndex$1$[ebp], eax

; 538  : 	if(nIndex < 0)

  005b6	85 c0		 test	 eax, eax
  005b8	0f 88 fb 03 00
	00		 js	 $LN238@CDFind_All

; 540  : 
; 541  : 	if (nIndex >= m_nSize)
; 542  : 		SetSize(nIndex+1, -1);

  005be	6a ff		 push	 -1
  005c0	40		 inc	 eax
  005c1	8b cf		 mov	 ecx, edi
  005c3	50		 push	 eax
  005c4	e8 00 00 00 00	 call	 ?SetSize@?$CArray@PAVCCandlePatternData@@PAV1@@@QAEXHH@Z ; CArray<CCandlePatternData *,CCandlePatternData *>::SetSize

; 543  : 	m_pData[nIndex] = newElement;

  005c9	8b 47 04	 mov	 eax, DWORD PTR [edi+4]
  005cc	8b 55 ec	 mov	 edx, DWORD PTR _nIndex$1$[ebp]
  005cf	8b 4d 08	 mov	 ecx, DWORD PTR $T9[ebp]
  005d2	89 0c 90	 mov	 DWORD PTR [eax+edx*4], ecx
  005d5	8b 4d 0c	 mov	 ecx, DWORD PTR _i$1$[ebp]
$LN77@CDFind_All:
; File D:\git\src\IBK\IBK_DRFN\ProjSrc\SrcChartEx\ChartAddIn\ChartPatternAddIn\CandlePattern.cpp

; 1875 : 	for ( int i = nMinDataCnt-1; i < pstCandleData->nDataCnt; i++)

  005d8	8b 06		 mov	 eax, DWORD PTR [esi]
  005da	41		 inc	 ecx
  005db	89 4d 0c	 mov	 DWORD PTR _i$1$[ebp], ecx
  005de	3b c8		 cmp	 ecx, eax
  005e0	0f 8c 9a fe ff
	ff		 jl	 $LL79@CDFind_All

; 1913 : 	if ( pstCandleData->nDataCnt < NEED_PERIOD_20)

  005e6	83 f8 14	 cmp	 eax, 20			; 00000014H
  005e9	0f 8c 69 01 00
	00		 jl	 $LN134@CDFind_All

; 1918 : 	for ( int i = nMinDataCnt-1; i < pstCandleData->nDataCnt; i++)

  005ef	b9 13 00 00 00	 mov	 ecx, 19			; 00000013H
  005f4	89 4d 0c	 mov	 DWORD PTR _i$1$[ebp], ecx
$LL135@CDFind_All:

; 1919 : 	{
; 1920 : 		// Condition Check
; 1921 : 		if (IsCandleTrendUp(	pstCandleData, i-2)														&&
; 1922 : 			IsCandleDoji(		pstCandleData, i-2)														&&
; 1923 : 			IsCandleDoji(		pstCandleData, i-1)														&&
; 1924 : 
; 1925 : 			GetCandleBodyLowValue(	pstCandleData, i-1)	> GetCandleBodyHighValue( pstCandleData, i-2)	&&
; 1926 : 			IsCandleDoji(		pstCandleData, i)														&&

  005f7	8d 41 fe	 lea	 eax, DWORD PTR [ecx-2]
  005fa	8b 4d f0	 mov	 ecx, DWORD PTR _this$1$[ebp]
  005fd	50		 push	 eax
  005fe	56		 push	 esi
  005ff	e8 00 00 00 00	 call	 ?IsCandleTrendUp@CCandlePattern@@QAEHPAU_STCANDLE_DATA@@H@Z ; CCandlePattern::IsCandleTrendUp
  00604	8b 4d 0c	 mov	 ecx, DWORD PTR _i$1$[ebp]
  00607	85 c0		 test	 eax, eax
  00609	0f 84 3d 01 00
	00		 je	 $LN133@CDFind_All

; 200  : 	if ( pstCandleData->dOpen[nDataPos] == pstCandleData->dClose[nDataPos])

  0060f	8b 46 14	 mov	 eax, DWORD PTR [esi+20]
  00612	8b 56 08	 mov	 edx, DWORD PTR [esi+8]
  00615	f2 0f 10 5c c8
	f0		 movsd	 xmm3, QWORD PTR [eax+ecx*8-16]
  0061b	f2 0f 10 44 ca
	f0		 movsd	 xmm0, QWORD PTR [edx+ecx*8-16]
  00621	66 0f 2e c3	 ucomisd xmm0, xmm3
  00625	9f		 lahf
  00626	f6 c4 44	 test	 ah, 68			; 00000044H
  00629	0f 8a 1d 01 00
	00		 jp	 $LN133@CDFind_All
  0062f	8b 46 14	 mov	 eax, DWORD PTR [esi+20]
  00632	f2 0f 10 4c ca
	f8		 movsd	 xmm1, QWORD PTR [edx+ecx*8-8]
  00638	f2 0f 10 54 c8
	f8		 movsd	 xmm2, QWORD PTR [eax+ecx*8-8]
  0063e	66 0f 2e ca	 ucomisd xmm1, xmm2
  00642	9f		 lahf
  00643	f6 c4 44	 test	 ah, 68			; 00000044H
  00646	0f 8a 00 01 00
	00		 jp	 $LN133@CDFind_All

; 100  : 	return min( pstCandleData->dOpen[nDataPos], pstCandleData->dClose[nDataPos]);

  0064c	f2 0f 5d ca	 minsd	 xmm1, xmm2

; 92   : 	return max( pstCandleData->dOpen[nDataPos], pstCandleData->dClose[nDataPos]);

  00650	f2 0f 5f c3	 maxsd	 xmm0, xmm3

; 1926 : 			IsCandleDoji(		pstCandleData, i)														&&

  00654	66 0f 2f c8	 comisd	 xmm1, xmm0
  00658	0f 86 ee 00 00
	00		 jbe	 $LN133@CDFind_All

; 200  : 	if ( pstCandleData->dOpen[nDataPos] == pstCandleData->dClose[nDataPos])

  0065e	8b 46 14	 mov	 eax, DWORD PTR [esi+20]
  00661	f2 0f 10 04 ca	 movsd	 xmm0, QWORD PTR [edx+ecx*8]
  00666	f2 0f 10 14 c8	 movsd	 xmm2, QWORD PTR [eax+ecx*8]
  0066b	66 0f 2e c2	 ucomisd xmm0, xmm2
  0066f	9f		 lahf
  00670	f6 c4 44	 test	 ah, 68			; 00000044H
  00673	0f 8a d3 00 00
	00		 jp	 $LN133@CDFind_All

; 92   : 	return max( pstCandleData->dOpen[nDataPos], pstCandleData->dClose[nDataPos]);

  00679	f2 0f 5f c2	 maxsd	 xmm0, xmm2

; 1926 : 			IsCandleDoji(		pstCandleData, i)														&&

  0067d	66 0f 2f c8	 comisd	 xmm1, xmm0
  00681	0f 86 c5 00 00
	00		 jbe	 $LN133@CDFind_All
; File C:\Program Files (x86)\Microsoft Visual Studio\2019\Community\VC\Tools\MSVC\14.29.30133\atlmfc\include\afx.inl

; 116  : 	{ return ::operator new(nSize); }

  00687	6a 60		 push	 96			; 00000060H
  00689	e8 00 00 00 00	 call	 ??2@YAPAXI@Z		; operator new
  0068e	83 c4 04	 add	 esp, 4
; File D:\git\src\IBK\IBK_DRFN\ProjSrc\SrcChartEx\ChartAddIn\ChartPatternAddIn\CandlePattern.cpp

; 1931 : 			pCandlePatternData = new CCandlePatternData;

  00691	89 45 e4	 mov	 DWORD PTR $T3[ebp], eax
  00694	c7 45 fc 03 00
	00 00		 mov	 DWORD PTR __$EHRec$[ebp+8], 3
  0069b	85 c0		 test	 eax, eax
  0069d	74 0e		 je	 SHORT $LN141@CDFind_All
  0069f	8b c8		 mov	 ecx, eax
  006a1	e8 00 00 00 00	 call	 ??0CCandlePatternData@@QAE@XZ ; CCandlePatternData::CCandlePatternData
  006a6	8b c8		 mov	 ecx, eax
  006a8	89 45 08	 mov	 DWORD PTR $T8[ebp], eax
  006ab	eb 05		 jmp	 SHORT $LN142@CDFind_All
$LN141@CDFind_All:
  006ad	33 c9		 xor	 ecx, ecx
  006af	89 4d 08	 mov	 DWORD PTR $T8[ebp], ecx
$LN142@CDFind_All:

; 3350 : 	pCandlePatternData->m_dTime				= pstCandleData->dTime[nEndPos];

  006b2	8b 46 04	 mov	 eax, DWORD PTR [esi+4]
  006b5	8b 55 0c	 mov	 edx, DWORD PTR _i$1$[ebp]

; 1931 : 			pCandlePatternData = new CCandlePatternData;

  006b8	c7 45 fc ff ff
	ff ff		 mov	 DWORD PTR __$EHRec$[ebp+8], -1

; 3350 : 	pCandlePatternData->m_dTime				= pstCandleData->dTime[nEndPos];

  006bf	f2 0f 10 04 d0	 movsd	 xmm0, QWORD PTR [eax+edx*8]

; 3351 : 	pCandlePatternData->m_nCandlePtnType	= nCandlePtnType;
; 3352 : 	pCandlePatternData->m_nStartPos			= nStPos;

  006c4	8d 42 fe	 lea	 eax, DWORD PTR [edx-2]
  006c7	f2 0f 11 41 08	 movsd	 QWORD PTR [ecx+8], xmm0
  006cc	c7 41 10 64 1f
	00 00		 mov	 DWORD PTR [ecx+16], 8036 ; 00001f64H
  006d3	89 41 14	 mov	 DWORD PTR [ecx+20], eax

; 3353 : 	pCandlePatternData->m_nEndPos			= nEndPos;

  006d6	89 51 18	 mov	 DWORD PTR [ecx+24], edx

; 3354 : 	pCandlePatternData->m_dHigh				= pstCandleData->dHigh[nEndPos];

  006d9	8b 46 0c	 mov	 eax, DWORD PTR [esi+12]
  006dc	f2 0f 10 04 d0	 movsd	 xmm0, QWORD PTR [eax+edx*8]
  006e1	f2 0f 11 41 50	 movsd	 QWORD PTR [ecx+80], xmm0

; 3355 : 	pCandlePatternData->m_dLow				= pstCandleData->dLow[nEndPos];

  006e6	8b 46 10	 mov	 eax, DWORD PTR [esi+16]
  006e9	f2 0f 10 04 d0	 movsd	 xmm0, QWORD PTR [eax+edx*8]
  006ee	f2 0f 11 41 58	 movsd	 QWORD PTR [ecx+88], xmm0

; 3356 : 
; 3357 : 	// Close Price for Accumulation rise and fall rate
; 3358 : 	for ( int i = nEndPos; i < pstCandleData->nDataCnt; i++)

  006f3	8b ca		 mov	 ecx, edx
  006f5	3b 16		 cmp	 edx, DWORD PTR [esi]
  006f7	7d 2b		 jge	 SHORT $LN176@CDFind_All

; 1931 : 			pCandlePatternData = new CCandlePatternData;

  006f9	8b 45 08	 mov	 eax, DWORD PTR $T8[ebp]
  006fc	33 d2		 xor	 edx, edx
  006fe	83 c0 20	 add	 eax, 32			; 00000020H
  00701	89 45 ec	 mov	 DWORD PTR tv3876[ebp], eax
$LL177@CDFind_All:

; 3360 : 		if ( i-nEndPos < ACCUMULATION_PERIOD)

  00704	83 fa 06	 cmp	 edx, 6
  00707	7d 0f		 jge	 SHORT $LN175@CDFind_All

; 3361 : 		{
; 3362 : 			pCandlePatternData->m_dClose[i-nEndPos] = pstCandleData->dClose[i];

  00709	8b 46 14	 mov	 eax, DWORD PTR [esi+20]
  0070c	f2 0f 10 04 c8	 movsd	 xmm0, QWORD PTR [eax+ecx*8]
  00711	8b 45 ec	 mov	 eax, DWORD PTR tv3876[ebp]
  00714	f2 0f 11 00	 movsd	 QWORD PTR [eax], xmm0
$LN175@CDFind_All:

; 3356 : 
; 3357 : 	// Close Price for Accumulation rise and fall rate
; 3358 : 	for ( int i = nEndPos; i < pstCandleData->nDataCnt; i++)

  00718	41		 inc	 ecx
  00719	83 c0 08	 add	 eax, 8
  0071c	42		 inc	 edx
  0071d	89 45 ec	 mov	 DWORD PTR tv3876[ebp], eax
  00720	3b 0e		 cmp	 ecx, DWORD PTR [esi]
  00722	7c e0		 jl	 SHORT $LL177@CDFind_All
$LN176@CDFind_All:
; File C:\Program Files (x86)\Microsoft Visual Studio\2019\Community\VC\Tools\MSVC\14.29.30133\atlmfc\include\afxtempl.h

; 333  : 	{ INT_PTR nIndex = m_nSize;

  00724	8b 47 08	 mov	 eax, DWORD PTR [edi+8]
  00727	89 45 ec	 mov	 DWORD PTR _nIndex$1$[ebp], eax

; 538  : 	if(nIndex < 0)

  0072a	85 c0		 test	 eax, eax
  0072c	0f 88 87 02 00
	00		 js	 $LN238@CDFind_All

; 540  : 
; 541  : 	if (nIndex >= m_nSize)
; 542  : 		SetSize(nIndex+1, -1);

  00732	6a ff		 push	 -1
  00734	40		 inc	 eax
  00735	8b cf		 mov	 ecx, edi
  00737	50		 push	 eax
  00738	e8 00 00 00 00	 call	 ?SetSize@?$CArray@PAVCCandlePatternData@@PAV1@@@QAEXHH@Z ; CArray<CCandlePatternData *,CCandlePatternData *>::SetSize

; 543  : 	m_pData[nIndex] = newElement;

  0073d	8b 47 04	 mov	 eax, DWORD PTR [edi+4]
  00740	8b 55 ec	 mov	 edx, DWORD PTR _nIndex$1$[ebp]
  00743	8b 4d 08	 mov	 ecx, DWORD PTR $T8[ebp]
  00746	89 0c 90	 mov	 DWORD PTR [eax+edx*4], ecx
  00749	8b 4d 0c	 mov	 ecx, DWORD PTR _i$1$[ebp]
$LN133@CDFind_All:
; File D:\git\src\IBK\IBK_DRFN\ProjSrc\SrcChartEx\ChartAddIn\ChartPatternAddIn\CandlePattern.cpp

; 1918 : 	for ( int i = nMinDataCnt-1; i < pstCandleData->nDataCnt; i++)

  0074c	41		 inc	 ecx
  0074d	89 4d 0c	 mov	 DWORD PTR _i$1$[ebp], ecx
  00750	3b 0e		 cmp	 ecx, DWORD PTR [esi]
  00752	0f 8c 9f fe ff
	ff		 jl	 $LL135@CDFind_All
$LN134@CDFind_All:

; 3440 : 	// ## 35. Bullish Tri Star					()     			
; 3441 : 	CDFind_Bullish_TriStar(				pstCandleData, pObjCandlePatternData);
; 3442 : 	// ## 36. Bearish Tri Star					()     			                            		
; 3443 : 	CDFind_Bearish_TriStar(				pstCandleData, pObjCandlePatternData);
; 3444 : 	// ## 37. Unique Three River Bottom			()   			                            		
; 3445 : 	CDFind_UniqueThreeRiverBottom(		pstCandleData, pObjCandlePatternData);

  00758	8b 4d f0	 mov	 ecx, DWORD PTR _this$1$[ebp]
  0075b	57		 push	 edi
  0075c	56		 push	 esi
  0075d	e8 00 00 00 00	 call	 ?CDFind_UniqueThreeRiverBottom@CCandlePattern@@QAEHPAU_STCANDLE_DATA@@PAVCObject@@@Z ; CCandlePattern::CDFind_UniqueThreeRiverBottom

; 3446 : 	// ## 38. Identical Three Corws				()     			
; 3447 : 	CDFind_IdenticalThreeCrows(			pstCandleData, pObjCandlePatternData);

  00762	8b 4d f0	 mov	 ecx, DWORD PTR _this$1$[ebp]
  00765	57		 push	 edi
  00766	56		 push	 esi
  00767	e8 00 00 00 00	 call	 ?CDFind_IdenticalThreeCrows@CCandlePattern@@QAEHPAU_STCANDLE_DATA@@PAVCObject@@@Z ; CCandlePattern::CDFind_IdenticalThreeCrows

; 3448 : 	// ## 39. Bullish Breakaway					()       			                                	
; 3449 : 	CDFind_Bullish_Breakaway(			pstCandleData, pObjCandlePatternData);

  0076c	8b 4d f0	 mov	 ecx, DWORD PTR _this$1$[ebp]
  0076f	57		 push	 edi
  00770	56		 push	 esi
  00771	e8 00 00 00 00	 call	 ?CDFind_Bullish_Breakaway@CCandlePattern@@QAEHPAU_STCANDLE_DATA@@PAVCObject@@@Z ; CCandlePattern::CDFind_Bullish_Breakaway

; 3450 : 	// ## 40. Bearish Breakaway					()       			                                	
; 3451 : 	CDFind_Bearish_Breakaway(			pstCandleData, pObjCandlePatternData);

  00776	8b 4d f0	 mov	 ecx, DWORD PTR _this$1$[ebp]
  00779	57		 push	 edi
  0077a	56		 push	 esi
  0077b	e8 00 00 00 00	 call	 ?CDFind_Bearish_Breakaway@CCandlePattern@@QAEHPAU_STCANDLE_DATA@@PAVCObject@@@Z ; CCandlePattern::CDFind_Bearish_Breakaway

; 3452 : 	// ## 41. Two Crows							()     			                                	
; 3453 : 	CDFind_TwoCrows(					pstCandleData, pObjCandlePatternData);

  00780	8b 4d f0	 mov	 ecx, DWORD PTR _this$1$[ebp]
  00783	57		 push	 edi
  00784	56		 push	 esi
  00785	e8 00 00 00 00	 call	 ?CDFind_TwoCrows@CCandlePattern@@QAEHPAU_STCANDLE_DATA@@PAVCObject@@@Z ; CCandlePattern::CDFind_TwoCrows

; 3454 : 	// ## 42. Three Stars In The South			()         			
; 3455 : 	CDFind_ThreeStarsInTheSouth(		pstCandleData, pObjCandlePatternData);

  0078a	8b 4d f0	 mov	 ecx, DWORD PTR _this$1$[ebp]
  0078d	57		 push	 edi
  0078e	56		 push	 esi
  0078f	e8 00 00 00 00	 call	 ?CDFind_ThreeStarsInTheSouth@CCandlePattern@@QAEHPAU_STCANDLE_DATA@@PAVCObject@@@Z ; CCandlePattern::CDFind_ThreeStarsInTheSouth

; 3456 : 	// ## 43. Concealing Baby Swallow			() 			
; 3457 : 	CDFind_ConcealingBabySwallow(		pstCandleData, pObjCandlePatternData);

  00794	8b 4d f0	 mov	 ecx, DWORD PTR _this$1$[ebp]
  00797	57		 push	 edi
  00798	56		 push	 esi
  00799	e8 00 00 00 00	 call	 ?CDFind_ConcealingBabySwallow@CCandlePattern@@QAEHPAU_STCANDLE_DATA@@PAVCObject@@@Z ; CCandlePattern::CDFind_ConcealingBabySwallow

; 3458 : 	// ## 44. Stick Sandwich					()   			
; 3459 : 	CDFind_StickSandwich(				pstCandleData, pObjCandlePatternData);

  0079e	8b 4d f0	 mov	 ecx, DWORD PTR _this$1$[ebp]
  007a1	57		 push	 edi
  007a2	56		 push	 esi
  007a3	e8 00 00 00 00	 call	 ?CDFind_StickSandwich@CCandlePattern@@QAEHPAU_STCANDLE_DATA@@PAVCObject@@@Z ; CCandlePattern::CDFind_StickSandwich

; 3460 : 	// ## 45. Bullish Kicking					()	   			                            		
; 3461 : 	CDFind_Bullish_Kicking(				pstCandleData, pObjCandlePatternData);

  007a8	8b 4d f0	 mov	 ecx, DWORD PTR _this$1$[ebp]
  007ab	57		 push	 edi
  007ac	56		 push	 esi
  007ad	e8 00 00 00 00	 call	 ?CDFind_Bullish_Kicking@CCandlePattern@@QAEHPAU_STCANDLE_DATA@@PAVCObject@@@Z ; CCandlePattern::CDFind_Bullish_Kicking

; 3462 : 	// ## 46. Bearish Kicking					()       			                            		
; 3463 : 	CDFind_Bearish_Kicking(				pstCandleData, pObjCandlePatternData);

  007b2	8b 4d f0	 mov	 ecx, DWORD PTR _this$1$[ebp]
  007b5	57		 push	 edi
  007b6	56		 push	 esi
  007b7	e8 00 00 00 00	 call	 ?CDFind_Bearish_Kicking@CCandlePattern@@QAEHPAU_STCANDLE_DATA@@PAVCObject@@@Z ; CCandlePattern::CDFind_Bearish_Kicking

; 3464 : 	// ## 47. Homing Pigeon						()         			                            		
; 3465 : 	CDFind_HomingPigeon(				pstCandleData, pObjCandlePatternData);

  007bc	8b 4d f0	 mov	 ecx, DWORD PTR _this$1$[ebp]
  007bf	57		 push	 edi
  007c0	56		 push	 esi
  007c1	e8 00 00 00 00	 call	 ?CDFind_HomingPigeon@CCandlePattern@@QAEHPAU_STCANDLE_DATA@@PAVCObject@@@Z ; CCandlePattern::CDFind_HomingPigeon

; 3466 : 	// ## 48. Ladder Bottom						()     			                            		
; 3467 : 	CDFind_LadderBottom(				pstCandleData, pObjCandlePatternData);

  007c6	8b 4d f0	 mov	 ecx, DWORD PTR _this$1$[ebp]
  007c9	57		 push	 edi
  007ca	56		 push	 esi
  007cb	e8 00 00 00 00	 call	 ?CDFind_LadderBottom@CCandlePattern@@QAEHPAU_STCANDLE_DATA@@PAVCObject@@@Z ; CCandlePattern::CDFind_LadderBottom

; 2567 : 	if ( pstCandleData->nDataCnt < NEED_PERIOD_20)

  007d0	83 3e 14	 cmp	 DWORD PTR [esi], 20	; 00000014H
  007d3	0f 8c 4b 01 00
	00		 jl	 $LN288@CDFind_All

; 2572 : 	for ( int i = nMinDataCnt-1; i < pstCandleData->nDataCnt; i++)

  007d9	b8 13 00 00 00	 mov	 eax, 19			; 00000013H
  007de	89 45 0c	 mov	 DWORD PTR _i$1$[ebp], eax
$LL191@CDFind_All:

; 2573 : 	{
; 2574 : 		// Condition Check
; 2575 : 		if (IsCandleTrendDown(	pstCandleData, i-1)						&&
; 2576 : 			IsCandleBlack(		pstCandleData, i-1)						&&
; 2577 : 			IsCandleLong(		pstCandleData, i-1)						&&
; 2578 : 
; 2579 : 			IsCandleBlack(		pstCandleData, i)						&&

  007e1	8b 4d f0	 mov	 ecx, DWORD PTR _this$1$[ebp]
  007e4	48		 dec	 eax
  007e5	50		 push	 eax
  007e6	56		 push	 esi
  007e7	89 45 08	 mov	 DWORD PTR tv3891[ebp], eax
  007ea	e8 00 00 00 00	 call	 ?IsCandleTrendDown@CCandlePattern@@QAEHPAU_STCANDLE_DATA@@H@Z ; CCandlePattern::IsCandleTrendDown
  007ef	85 c0		 test	 eax, eax
  007f1	8b 45 0c	 mov	 eax, DWORD PTR _i$1$[ebp]
  007f4	0f 84 1e 01 00
	00		 je	 $LN189@CDFind_All

; 143  : 	if ( pstCandleData->dClose[nDataPos] < pstCandleData->dOpen[nDataPos])

  007fa	8b 56 08	 mov	 edx, DWORD PTR [esi+8]
  007fd	8b 4e 14	 mov	 ecx, DWORD PTR [esi+20]
  00800	f2 0f 10 44 c2
	f8		 movsd	 xmm0, QWORD PTR [edx+eax*8-8]
  00806	66 0f 2f 44 c1
	f8		 comisd	 xmm0, QWORD PTR [ecx+eax*8-8]
  0080c	0f 86 06 01 00
	00		 jbe	 $LN189@CDFind_All

; 2579 : 			IsCandleBlack(		pstCandleData, i)						&&

  00812	ff 75 08	 push	 DWORD PTR tv3891[ebp]
  00815	8b 4d f0	 mov	 ecx, DWORD PTR _this$1$[ebp]
  00818	56		 push	 esi
  00819	e8 00 00 00 00	 call	 ?IsCandleLong@CCandlePattern@@QAEHPAU_STCANDLE_DATA@@H@Z ; CCandlePattern::IsCandleLong
  0081e	85 c0		 test	 eax, eax
  00820	8b 45 0c	 mov	 eax, DWORD PTR _i$1$[ebp]
  00823	0f 84 ef 00 00
	00		 je	 $LN189@CDFind_All

; 143  : 	if ( pstCandleData->dClose[nDataPos] < pstCandleData->dOpen[nDataPos])

  00829	8b 4e 14	 mov	 ecx, DWORD PTR [esi+20]
  0082c	8b 56 08	 mov	 edx, DWORD PTR [esi+8]
  0082f	f2 0f 10 0c c1	 movsd	 xmm1, QWORD PTR [ecx+eax*8]
  00834	f2 0f 10 04 c2	 movsd	 xmm0, QWORD PTR [edx+eax*8]
  00839	66 0f 2f c1	 comisd	 xmm0, xmm1
  0083d	0f 86 d5 00 00
	00		 jbe	 $LN189@CDFind_All

; 2579 : 			IsCandleBlack(		pstCandleData, i)						&&

  00843	66 0f 2e 4c c1
	f8		 ucomisd xmm1, QWORD PTR [ecx+eax*8-8]
  00849	9f		 lahf
  0084a	f6 c4 44	 test	 ah, 68			; 00000044H
  0084d	0f 8a c2 00 00
	00		 jp	 $LN289@CDFind_All
; File C:\Program Files (x86)\Microsoft Visual Studio\2019\Community\VC\Tools\MSVC\14.29.30133\atlmfc\include\afx.inl

; 116  : 	{ return ::operator new(nSize); }

  00853	6a 60		 push	 96			; 00000060H
  00855	e8 00 00 00 00	 call	 ??2@YAPAXI@Z		; operator new
  0085a	83 c4 04	 add	 esp, 4
; File D:\git\src\IBK\IBK_DRFN\ProjSrc\SrcChartEx\ChartAddIn\ChartPatternAddIn\CandlePattern.cpp

; 2585 : 			pCandlePatternData = new CCandlePatternData;

  0085d	89 45 e4	 mov	 DWORD PTR $T2[ebp], eax
  00860	c7 45 fc 04 00
	00 00		 mov	 DWORD PTR __$EHRec$[ebp+8], 4
  00867	85 c0		 test	 eax, eax
  00869	74 0e		 je	 SHORT $LN197@CDFind_All
  0086b	8b c8		 mov	 ecx, eax
  0086d	e8 00 00 00 00	 call	 ??0CCandlePatternData@@QAE@XZ ; CCandlePatternData::CCandlePatternData
  00872	8b c8		 mov	 ecx, eax
  00874	89 45 08	 mov	 DWORD PTR $T7[ebp], eax
  00877	eb 05		 jmp	 SHORT $LN198@CDFind_All
$LN197@CDFind_All:
  00879	33 c9		 xor	 ecx, ecx
  0087b	89 4d 08	 mov	 DWORD PTR $T7[ebp], ecx
$LN198@CDFind_All:

; 3350 : 	pCandlePatternData->m_dTime				= pstCandleData->dTime[nEndPos];

  0087e	8b 46 04	 mov	 eax, DWORD PTR [esi+4]
  00881	8b 55 0c	 mov	 edx, DWORD PTR _i$1$[ebp]

; 2585 : 			pCandlePatternData = new CCandlePatternData;

  00884	c7 45 fc ff ff
	ff ff		 mov	 DWORD PTR __$EHRec$[ebp+8], -1

; 3350 : 	pCandlePatternData->m_dTime				= pstCandleData->dTime[nEndPos];

  0088b	f2 0f 10 04 d0	 movsd	 xmm0, QWORD PTR [eax+edx*8]

; 3351 : 	pCandlePatternData->m_nCandlePtnType	= nCandlePtnType;
; 3352 : 	pCandlePatternData->m_nStartPos			= nStPos;

  00890	8d 42 ff	 lea	 eax, DWORD PTR [edx-1]
  00893	f2 0f 11 41 08	 movsd	 QWORD PTR [ecx+8], xmm0
  00898	c7 41 10 71 1f
	00 00		 mov	 DWORD PTR [ecx+16], 8049 ; 00001f71H
  0089f	89 41 14	 mov	 DWORD PTR [ecx+20], eax

; 3353 : 	pCandlePatternData->m_nEndPos			= nEndPos;

  008a2	89 51 18	 mov	 DWORD PTR [ecx+24], edx

; 3354 : 	pCandlePatternData->m_dHigh				= pstCandleData->dHigh[nEndPos];

  008a5	8b 46 0c	 mov	 eax, DWORD PTR [esi+12]
  008a8	f2 0f 10 04 d0	 movsd	 xmm0, QWORD PTR [eax+edx*8]
  008ad	f2 0f 11 41 50	 movsd	 QWORD PTR [ecx+80], xmm0

; 3355 : 	pCandlePatternData->m_dLow				= pstCandleData->dLow[nEndPos];

  008b2	8b 46 10	 mov	 eax, DWORD PTR [esi+16]
  008b5	f2 0f 10 04 d0	 movsd	 xmm0, QWORD PTR [eax+edx*8]
  008ba	f2 0f 11 41 58	 movsd	 QWORD PTR [ecx+88], xmm0

; 3356 : 
; 3357 : 	// Close Price for Accumulation rise and fall rate
; 3358 : 	for ( int i = nEndPos; i < pstCandleData->nDataCnt; i++)

  008bf	8b ca		 mov	 ecx, edx
  008c1	3b 16		 cmp	 edx, DWORD PTR [esi]
  008c3	7d 2b		 jge	 SHORT $LN212@CDFind_All

; 2585 : 			pCandlePatternData = new CCandlePatternData;

  008c5	8b 45 08	 mov	 eax, DWORD PTR $T7[ebp]
  008c8	33 d2		 xor	 edx, edx
  008ca	83 c0 20	 add	 eax, 32			; 00000020H
  008cd	89 45 ec	 mov	 DWORD PTR tv3873[ebp], eax
$LL213@CDFind_All:

; 3360 : 		if ( i-nEndPos < ACCUMULATION_PERIOD)

  008d0	83 fa 06	 cmp	 edx, 6
  008d3	7d 0f		 jge	 SHORT $LN211@CDFind_All

; 3361 : 		{
; 3362 : 			pCandlePatternData->m_dClose[i-nEndPos] = pstCandleData->dClose[i];

  008d5	8b 46 14	 mov	 eax, DWORD PTR [esi+20]
  008d8	f2 0f 10 04 c8	 movsd	 xmm0, QWORD PTR [eax+ecx*8]
  008dd	8b 45 ec	 mov	 eax, DWORD PTR tv3873[ebp]
  008e0	f2 0f 11 00	 movsd	 QWORD PTR [eax], xmm0
$LN211@CDFind_All:

; 3356 : 
; 3357 : 	// Close Price for Accumulation rise and fall rate
; 3358 : 	for ( int i = nEndPos; i < pstCandleData->nDataCnt; i++)

  008e4	41		 inc	 ecx
  008e5	83 c0 08	 add	 eax, 8
  008e8	42		 inc	 edx
  008e9	89 45 ec	 mov	 DWORD PTR tv3873[ebp], eax
  008ec	3b 0e		 cmp	 ecx, DWORD PTR [esi]
  008ee	7c e0		 jl	 SHORT $LL213@CDFind_All
$LN212@CDFind_All:
