; Listing generated by Microsoft (R) Optimizing Compiler Version 19.29.30145.0 

	TITLE	D:\git\src\IBK\IBK_DRFN\#DRfn-CS\_Obj\ChartPatternAddin\DlgAnalysis.obj
	.686P
	.XMM
	include listing.inc
	.model	flat

INCLUDELIB MSVCRT
INCLUDELIB OLDNAMES

PUBLIC	??_H@YGXPAXIIP6EPAX0@Z@Z			; `vector constructor iterator'
PUBLIC	?__empty_global_delete@@YAXPAX@Z		; __empty_global_delete
PUBLIC	?__empty_global_delete@@YAXPAXI@Z		; __empty_global_delete
PUBLIC	??1CObject@@UAE@XZ				; CObject::~CObject
PUBLIC	??3CObject@@SGXPAX@Z				; CObject::operator delete
PUBLIC	?Serialize@CObject@@UAEXAAVCArchive@@@Z		; CObject::Serialize
PUBLIC	?AssertValid@CObject@@UBEXXZ			; CObject::AssertValid
PUBLIC	?Dump@CObject@@UBEXAAVCDumpContext@@@Z		; CObject::Dump
PUBLIC	?AtlThrowImpl@ATL@@YGXJ@Z			; ATL::AtlThrowImpl
PUBLIC	??HATL@@YA?AV?$CStringT@DV?$StrTraitMFC_DLL@DV?$ChTraitsCRT@D@ATL@@@@@0@ABV10@0@Z ; ATL::operator+
PUBLIC	?Format@CTime@ATL@@QBE?AV?$CStringT@DV?$StrTraitMFC_DLL@DV?$ChTraitsCRT@D@ATL@@@@@2@PBD@Z ; ATL::CTime::Format
PUBLIC	??1CGdiObject@@UAE@XZ				; CGdiObject::~CGdiObject
PUBLIC	??_GCGdiObject@@UAEPAXI@Z			; CGdiObject::`scalar deleting destructor'
PUBLIC	??1CBrush@@UAE@XZ				; CBrush::~CBrush
PUBLIC	??_GCBrush@@UAEPAXI@Z				; CBrush::`scalar deleting destructor'
PUBLIC	??1CFont@@UAE@XZ				; CFont::~CFont
PUBLIC	??_GCFont@@UAEPAXI@Z				; CFont::`scalar deleting destructor'
PUBLIC	?DoDataExchange@CWnd@@MAEXPAVCDataExchange@@@Z	; CWnd::DoDataExchange
PUBLIC	?BeginModalState@CWnd@@UAEXXZ			; CWnd::BeginModalState
PUBLIC	?EndModalState@CWnd@@UAEXXZ			; CWnd::EndModalState
PUBLIC	?Create@CDialog@@UAEHIPAVCWnd@@@Z		; CDialog::Create
PUBLIC	??_GCStatic@@UAEPAXI@Z				; CStatic::`scalar deleting destructor'
PUBLIC	??0CDlgAnalysis@@QAE@PAVCWnd@@PAVCPatternMaker@@@Z ; CDlgAnalysis::CDlgAnalysis
PUBLIC	?InitFont@CDlgAnalysis@@IAEXXZ			; CDlgAnalysis::InitFont
PUBLIC	?InitGrid_WaveRptType1@CDlgAnalysis@@QAEXXZ	; CDlgAnalysis::InitGrid_WaveRptType1
PUBLIC	?InitGridRowCol_WaveRptType1@CDlgAnalysis@@QAEXXZ ; CDlgAnalysis::InitGridRowCol_WaveRptType1
PUBLIC	?ResizeGridRowCol_WaveRptType1@CDlgAnalysis@@QAEXXZ ; CDlgAnalysis::ResizeGridRowCol_WaveRptType1
PUBLIC	?InitGridFormat_WaveRptType1@CDlgAnalysis@@QAEXXZ ; CDlgAnalysis::InitGridFormat_WaveRptType1
PUBLIC	?SetFoundWavePtnToGrid_RptType1@CDlgAnalysis@@QAEXPAVCObject@@PAN11H@Z ; CDlgAnalysis::SetFoundWavePtnToGrid_RptType1
PUBLIC	?InitGrid_CandleRptType1@CDlgAnalysis@@QAEXXZ	; CDlgAnalysis::InitGrid_CandleRptType1
PUBLIC	?InitGridRowCol_CandleRptType1@CDlgAnalysis@@QAEXXZ ; CDlgAnalysis::InitGridRowCol_CandleRptType1
PUBLIC	?ResizeGridRowCol_CandleRptType1@CDlgAnalysis@@QAEXXZ ; CDlgAnalysis::ResizeGridRowCol_CandleRptType1
PUBLIC	?InitGridFormat_CandleRptType1@CDlgAnalysis@@QAEXXZ ; CDlgAnalysis::InitGridFormat_CandleRptType1
PUBLIC	?SetFoundCandlePtnToGrid_RptType1@CDlgAnalysis@@QAEXPAVCObject@@@Z ; CDlgAnalysis::SetFoundCandlePtnToGrid_RptType1
PUBLIC	?SetPercentNColor@CDlgAnalysis@@QAEXPAVCGridCtrl@@HHN@Z ; CDlgAnalysis::SetPercentNColor
PUBLIC	?InsertGridRow@CDlgAnalysis@@QAEXPAVCGridCtrl@@H@Z ; CDlgAnalysis::InsertGridRow
PUBLIC	?InitInsertedGirdRow@CDlgAnalysis@@QAEXPAVCGridCtrl@@@Z ; CDlgAnalysis::InitInsertedGirdRow
PUBLIC	?SetReportTitleBasicInfo@CDlgAnalysis@@QAEXNNH@Z ; CDlgAnalysis::SetReportTitleBasicInfo
PUBLIC	?GetSelectedCandlePatternData@CDlgAnalysis@@QAEXH@Z ; CDlgAnalysis::GetSelectedCandlePatternData
PUBLIC	?SetShareData@CDlgAnalysis@@QAEXPAVCGridCtrl@@H@Z ; CDlgAnalysis::SetShareData
PUBLIC	?DoDataExchange@CDlgAnalysis@@MAEXPAVCDataExchange@@@Z ; CDlgAnalysis::DoDataExchange
PUBLIC	?WindowProc@CDlgAnalysis@@MAEJIIJ@Z		; CDlgAnalysis::WindowProc
PUBLIC	?OnInitDialog@CDlgAnalysis@@MAEHXZ		; CDlgAnalysis::OnInitDialog
PUBLIC	?OnDestroy@CDlgAnalysis@@IAEXXZ			; CDlgAnalysis::OnDestroy
PUBLIC	?OnCtlColor@CDlgAnalysis@@IAEPAUHBRUSH__@@PAVCDC@@PAVCWnd@@I@Z ; CDlgAnalysis::OnCtlColor
PUBLIC	?OnRdoWave@CDlgAnalysis@@IAEXXZ			; CDlgAnalysis::OnRdoWave
PUBLIC	?OnRdoCandle@CDlgAnalysis@@IAEXXZ		; CDlgAnalysis::OnRdoCandle
PUBLIC	?OnBtnEnvSetup@CDlgAnalysis@@IAEXXZ		; CDlgAnalysis::OnBtnEnvSetup
PUBLIC	?GetThisMessageMap@CDlgAnalysis@@KGPBUAFX_MSGMAP@@XZ ; CDlgAnalysis::GetThisMessageMap
PUBLIC	?GetMessageMap@CDlgAnalysis@@MBEPBUAFX_MSGMAP@@XZ ; CDlgAnalysis::GetMessageMap
PUBLIC	??_GCDlgAnalysis@@UAEPAXI@Z			; CDlgAnalysis::`scalar deleting destructor'
PUBLIC	?SetSize@?$CArray@PAVCRscDlg@@PAV1@@@QAEXHH@Z	; CArray<CRscDlg *,CRscDlg *>::SetSize
PUBLIC	??1?$CArray@PAVCRscDlg@@PAV1@@@UAE@XZ		; CArray<CRscDlg *,CRscDlg *>::~CArray<CRscDlg *,CRscDlg *>
PUBLIC	?Serialize@?$CArray@PAVCRscDlg@@PAV1@@@UAEXAAVCArchive@@@Z ; CArray<CRscDlg *,CRscDlg *>::Serialize
PUBLIC	??_G?$CArray@PAVCRscDlg@@PAV1@@@UAEPAXI@Z	; CArray<CRscDlg *,CRscDlg *>::`scalar deleting destructor'
PUBLIC	??1CDlgSetup@@UAE@XZ				; CDlgSetup::~CDlgSetup
PUBLIC	??1_GV_ITEM@@QAE@XZ				; _GV_ITEM::~_GV_ITEM
PUBLIC	?LoadResourceDLL@IMetaTable@@QAEPAUHINSTANCE__@@PAUHWND__@@PAU2@@Z ; IMetaTable::LoadResourceDLL
PUBLIC	??1CMultiLanguageResourceSetter@@QAE@XZ		; CMultiLanguageResourceSetter::~CMultiLanguageResourceSetter
PUBLIC	??$SerializeElements@PAVCRscDlg@@@@YGXAAVCArchive@@PAPAVCRscDlg@@H@Z ; SerializeElements<CRscDlg *>
PUBLIC	??_R0PAVCException@@@8				; CException * `RTTI Type Descriptor'
PUBLIC	??_C@_02DPKJAMEF@?$CFd@				; `string'
PUBLIC	??_C@_00CNPNBAHC@@				; `string'
PUBLIC	??_7CGdiObject@@6B@				; CGdiObject::`vftable'
PUBLIC	??_7CBrush@@6B@					; CBrush::`vftable'
PUBLIC	??_7CFont@@6B@					; CFont::`vftable'
PUBLIC	??_7CStatic@@6B@				; CStatic::`vftable'
PUBLIC	??_C@_0HD@JJCHHHNK@C?3?2Program?5Files?5?$CIx86?$CJ?2Microsof@ ; `string'
PUBLIC	??_C@_0BP@OIEOKIDM@Exception?5thrown?5in?5destructor@ ; `string'
PUBLIC	??_C@_0BB@HBOOMJBF@?$CFTs?5?$CI?$CFTs?3?$CFd?$CJ?6?$CFTs@ ; `string'
PUBLIC	??_C@_0N@OMEMOKLE@?$CFTs?5?$CI?$CFTs?3?$CFd?$CJ@ ; `string'
PUBLIC	??_R0?AVCObject@@@8				; CObject `RTTI Type Descriptor'
PUBLIC	??_R3CObject@@8					; CObject::`RTTI Class Hierarchy Descriptor'
PUBLIC	??_R2CObject@@8					; CObject::`RTTI Base Class Array'
PUBLIC	??_R1A@?0A@EA@CObject@@8			; CObject::`RTTI Base Class Descriptor at (0,-1,0,64)'
PUBLIC	??_R4CGdiObject@@6B@				; CGdiObject::`RTTI Complete Object Locator'
PUBLIC	??_R0?AVCGdiObject@@@8				; CGdiObject `RTTI Type Descriptor'
PUBLIC	??_R3CGdiObject@@8				; CGdiObject::`RTTI Class Hierarchy Descriptor'
PUBLIC	??_R2CGdiObject@@8				; CGdiObject::`RTTI Base Class Array'
PUBLIC	??_R1A@?0A@EA@CGdiObject@@8			; CGdiObject::`RTTI Base Class Descriptor at (0,-1,0,64)'
PUBLIC	??_R4CBrush@@6B@				; CBrush::`RTTI Complete Object Locator'
PUBLIC	??_R0?AVCBrush@@@8				; CBrush `RTTI Type Descriptor'
PUBLIC	??_R3CBrush@@8					; CBrush::`RTTI Class Hierarchy Descriptor'
PUBLIC	??_R2CBrush@@8					; CBrush::`RTTI Base Class Array'
PUBLIC	??_R1A@?0A@EA@CBrush@@8				; CBrush::`RTTI Base Class Descriptor at (0,-1,0,64)'
PUBLIC	??_R4CFont@@6B@					; CFont::`RTTI Complete Object Locator'
PUBLIC	??_R0?AVCFont@@@8				; CFont `RTTI Type Descriptor'
PUBLIC	??_R3CFont@@8					; CFont::`RTTI Class Hierarchy Descriptor'
PUBLIC	??_R2CFont@@8					; CFont::`RTTI Base Class Array'
PUBLIC	??_R1A@?0A@EA@CFont@@8				; CFont::`RTTI Base Class Descriptor at (0,-1,0,64)'
PUBLIC	??_R4CStatic@@6B@				; CStatic::`RTTI Complete Object Locator'
PUBLIC	??_R0?AVCStatic@@@8				; CStatic `RTTI Type Descriptor'
PUBLIC	??_R3CStatic@@8					; CStatic::`RTTI Class Hierarchy Descriptor'
PUBLIC	??_R2CStatic@@8					; CStatic::`RTTI Base Class Array'
PUBLIC	??_R1A@?0A@EA@CStatic@@8			; CStatic::`RTTI Base Class Descriptor at (0,-1,0,64)'
PUBLIC	??_R1A@?0A@EA@CWnd@@8				; CWnd::`RTTI Base Class Descriptor at (0,-1,0,64)'
PUBLIC	??_R0?AVCWnd@@@8				; CWnd `RTTI Type Descriptor'
PUBLIC	??_R3CWnd@@8					; CWnd::`RTTI Class Hierarchy Descriptor'
PUBLIC	??_R2CWnd@@8					; CWnd::`RTTI Base Class Array'
PUBLIC	??_R1A@?0A@EA@CCmdTarget@@8			; CCmdTarget::`RTTI Base Class Descriptor at (0,-1,0,64)'
PUBLIC	??_R0?AVCCmdTarget@@@8				; CCmdTarget `RTTI Type Descriptor'
PUBLIC	??_R3CCmdTarget@@8				; CCmdTarget::`RTTI Class Hierarchy Descriptor'
PUBLIC	??_R2CCmdTarget@@8				; CCmdTarget::`RTTI Base Class Array'
PUBLIC	??_R1A@?0A@EA@CDialog@@8			; CDialog::`RTTI Base Class Descriptor at (0,-1,0,64)'
PUBLIC	??_R0?AVCDialog@@@8				; CDialog `RTTI Type Descriptor'
PUBLIC	??_R3CDialog@@8					; CDialog::`RTTI Class Hierarchy Descriptor'
PUBLIC	??_R2CDialog@@8					; CDialog::`RTTI Base Class Array'
PUBLIC	??_7CDlgAnalysis@@6B@				; CDlgAnalysis::`vftable'
PUBLIC	??_7?$CArray@PAVCRscDlg@@PAV1@@@6B@		; CArray<CRscDlg *,CRscDlg *>::`vftable'
PUBLIC	??_C@_0BF@EGELCGDD@GetCurrentLanguageID@	; `string'
PUBLIC	??_C@_0BA@ENJOCHIO@LoadResourceDLL@		; `string'
PUBLIC	??_C@_07JPHDIPNG@DISPLAY@			; `string'
PUBLIC	??_R0PAVCMemoryException@@@8			; CMemoryException * `RTTI Type Descriptor'
PUBLIC	??_C@_03ONPMIKNM@No?4@				; `string'
PUBLIC	??_C@_04DKOJHJPH@?$LD?$KP?B?$KF@		; `string'
PUBLIC	??_C@_04OJCJMHBO@?$MA?$KP?G?$PM@		; `string'
PUBLIC	??_C@_0L@LPJFCNKL@?C?$NP?$LM?$LM?F?P?E?O?$LI?m@	; `string'
PUBLIC	??_C@_08LNOGFIKG@?$LB?$LI?$LM?$LK?$LK?$MA?$LM?v@ ; `string'
PUBLIC	??_C@_0N@PBPHHOB@?$LJ?$NP?$LL?$PN?$LK?$LA?$LF?$LF?$LE?$NO?$LH?$PM@ ; `string'
PUBLIC	??_C@_04FMEGDJGD@Date@				; `string'
PUBLIC	??_C@_04KOACHJEN@Type@				; `string'
PUBLIC	??_C@_0L@DJLPBPGN@Trend?5Name@			; `string'
PUBLIC	??_C@_08BGECMFMG@Bong?5Num@			; `string'
PUBLIC	??_C@_0BL@LCBDFPID@Hitting?5Rate?5by?5Occurrence@ ; `string'
PUBLIC	??_C@_0L@CBKFAJNJ@?$LP?$LJ?$LL?s?$LF?n?$LG?t?$LH?$PM@ ; `string'
PUBLIC	??_C@_0L@OJACLBNK@?$LN?G?A?$KG?$LF?n?$LG?t?$LH?$PM@ ; `string'
PUBLIC	??_C@_06BANOEBK@?$LF?$LF?$LE?$NO?$LH?$PM@	; `string'
PUBLIC	??_C@_0M@IHPMGMBN@Estimated?5?$CF@		; `string'
PUBLIC	??_C@_06ILPMMGLH@Real?5?$CF@			; `string'
PUBLIC	??_C@_09COFDECHD@Hitting?5?$CF@			; `string'
PUBLIC	??_C@_03EICDNICE@?$CF?4f@			; `string'
PUBLIC	??_C@_01JLIPDDHJ@?3@				; `string'
PUBLIC	??_C@_01KMDKNFGN@?1@				; `string'
PUBLIC	??_C@_01JOAMLHOP@?9@				; `string'
PUBLIC	??_C@_01GBGANLPD@0@				; `string'
PUBLIC	??_C@_03GONFLFCC@?901@				; `string'
PUBLIC	??_C@_01IHBHIGKO@?0@				; `string'
PUBLIC	??_C@_0L@OBAOOHGI@?D?$LF?$LF?i?F?P?E?O?$LI?m@	; `string'
PUBLIC	??_C@_0L@IEDJEJMI@?$LE?$KJ?$MA?$PL?$LF?n?$LG?t?$LH?$PM@ ; `string'
PUBLIC	??_C@_0M@PJJGJDFM@Candle?5Name@			; `string'
PUBLIC	??_C@_0BF@INFJIIDO@Accumulated?5?$CF?5Change@	; `string'
PUBLIC	??_C@_03ELOBOCOG@1?$MA?O@			; `string'
PUBLIC	??_C@_03FJFEENAI@2?$MA?O@			; `string'
PUBLIC	??_C@_03OBOICKGN@3?$MA?O@			; `string'
PUBLIC	??_C@_03HMDPBCNE@4?$MA?O@			; `string'
PUBLIC	??_C@_03MEIDHFLB@5?$MA?O@			; `string'
PUBLIC	??_C@_02CEIGAHOJ@1d@				; `string'
PUBLIC	??_C@_02CGMALJLA@2d@				; `string'
PUBLIC	??_C@_02CHACNDIH@3d@				; `string'
PUBLIC	??_C@_02CCENMFAC@4d@				; `string'
PUBLIC	??_C@_02CDIPKPDF@5d@				; `string'
PUBLIC	??_C@_04GEFJINEE@?$CF?42f@			; `string'
PUBLIC	??_C@_02FFEBEEPL@?$CFY@				; `string'
PUBLIC	??_C@_02PLJDPFIO@00@				; `string'
PUBLIC	??_C@_06CLONMKIH@?$CFY?$CFm?$CFd@		; `string'
PUBLIC	??_C@_09NAHCEPAB@?$LN?C?$LA?$KD?9?B?w?F?$KO@	; `string'
PUBLIC	??_R4CDlgAnalysis@@6B@				; CDlgAnalysis::`RTTI Complete Object Locator'
PUBLIC	??_R0?AVCDlgAnalysis@@@8			; CDlgAnalysis `RTTI Type Descriptor'
PUBLIC	??_R3CDlgAnalysis@@8				; CDlgAnalysis::`RTTI Class Hierarchy Descriptor'
PUBLIC	??_R2CDlgAnalysis@@8				; CDlgAnalysis::`RTTI Base Class Array'
PUBLIC	??_R1A@?0A@EA@CDlgAnalysis@@8			; CDlgAnalysis::`RTTI Base Class Descriptor at (0,-1,0,64)'
PUBLIC	??_R4?$CArray@PAVCRscDlg@@PAV1@@@6B@		; CArray<CRscDlg *,CRscDlg *>::`RTTI Complete Object Locator'
PUBLIC	??_R0?AV?$CArray@PAVCRscDlg@@PAV1@@@@8		; CArray<CRscDlg *,CRscDlg *> `RTTI Type Descriptor'
PUBLIC	??_R3?$CArray@PAVCRscDlg@@PAV1@@@8		; CArray<CRscDlg *,CRscDlg *>::`RTTI Class Hierarchy Descriptor'
PUBLIC	??_R2?$CArray@PAVCRscDlg@@PAV1@@@8		; CArray<CRscDlg *,CRscDlg *>::`RTTI Base Class Array'
PUBLIC	??_R1A@?0A@EA@?$CArray@PAVCRscDlg@@PAV1@@@8	; CArray<CRscDlg *,CRscDlg *>::`RTTI Base Class Descriptor at (0,-1,0,64)'
PUBLIC	__real@4059000000000000
PUBLIC	__real@bff0000000000000
PUBLIC	__real@c059000000000000
PUBLIC	__xmm@00000030000000300000003000000030
PUBLIC	__xmm@0000003c0000003c0000003c0000003c
PUBLIC	__xmm@00000064000000460000005700000016
PUBLIC	__xmm@7fffffffffffffff7fffffffffffffff
EXTRN	??2@YAPAXI@Z:PROC				; operator new
EXTRN	??3@YAXPAX@Z:PROC				; operator delete
EXTRN	?__global_delete@@YAXPAXI@Z:PROC		; __global_delete
EXTRN	??_U@YAPAXI@Z:PROC				; operator new[]
EXTRN	??_V@YAXPAX@Z:PROC				; operator delete[]
EXTRN	___std_terminate:PROC
EXTRN	__imp___invalid_parameter_noinfo:PROC
EXTRN	__imp___errno:PROC
EXTRN	__imp__GetProcAddress@8:PROC
EXTRN	__imp__MulDiv@12:PROC
EXTRN	__imp__CreateDCA@16:PROC
EXTRN	__imp__CreateFontIndirectA@4:PROC
EXTRN	__imp__CreateSolidBrush@4:PROC
EXTRN	__imp__DeleteDC@4:PROC
EXTRN	__imp__GetDeviceCaps@8:PROC
EXTRN	__imp__SendMessageA@16:PROC
EXTRN	__imp__EnableWindow@8:PROC
EXTRN	__imp__GetWindowRect@8:PROC
EXTRN	__imp__atof:PROC
EXTRN	__imp___localtime64_s:PROC
EXTRN	__imp__strftime:PROC
EXTRN	__imp___time64:PROC
EXTRN	?AfxThrowMemoryException@@YGXXZ:PROC		; AfxThrowMemoryException
EXTRN	?AfxThrowInvalidArgException@@YGXXZ:PROC	; AfxThrowInvalidArgException
EXTRN	?AfxThrowArchiveException@@YGXHPBD@Z:PROC	; AfxThrowArchiveException
EXTRN	?AfxThrowOleException@@YGXJ@Z:PROC		; AfxThrowOleException
EXTRN	?GetRuntimeClass@CObject@@UBEPAUCRuntimeClass@@XZ:PROC ; CObject::GetRuntimeClass
EXTRN	?Delete@CException@@QAEXXZ:PROC			; CException::Delete
EXTRN	__imp_?GetAt@?$CSimpleStringT@D$00@ATL@@QBEDH@Z:PROC
EXTRN	__imp_?Concatenate@?$CSimpleStringT@D$00@ATL@@KAXAAV12@PBDH1H@Z:PROC
EXTRN	__imp_??0?$CStringT@DV?$StrTraitMFC_DLL@DV?$ChTraitsCRT@D@ATL@@@@@ATL@@QAE@XZ:PROC
EXTRN	__imp_??0?$CStringT@DV?$StrTraitMFC_DLL@DV?$ChTraitsCRT@D@ATL@@@@@ATL@@QAE@PAUIAtlStringMgr@1@@Z:PROC
EXTRN	__imp_??0?$CStringT@DV?$StrTraitMFC_DLL@DV?$ChTraitsCRT@D@ATL@@@@@ATL@@QAE@ABV01@@Z:PROC
EXTRN	__imp_??0?$CStringT@DV?$StrTraitMFC_DLL@DV?$ChTraitsCRT@D@ATL@@@@@ATL@@QAE@PBD@Z:PROC
EXTRN	__imp_??1?$CStringT@DV?$StrTraitMFC_DLL@DV?$ChTraitsCRT@D@ATL@@@@@ATL@@QAE@XZ:PROC
EXTRN	__imp_??4?$CStringT@DV?$StrTraitMFC_DLL@DV?$ChTraitsCRT@D@ATL@@@@@ATL@@QAEAAV01@ABV01@@Z:PROC
EXTRN	__imp_??4?$CStringT@DV?$StrTraitMFC_DLL@DV?$ChTraitsCRT@D@ATL@@@@@ATL@@QAEAAV01@PBD@Z:PROC
EXTRN	__imp_?GetManager@?$CStringT@DV?$StrTraitMFC_DLL@DV?$ChTraitsCRT@D@ATL@@@@@ATL@@QBEPAUIAtlStringMgr@2@XZ:PROC
EXTRN	__imp_?Remove@?$CStringT@DV?$StrTraitMFC_DLL@DV?$ChTraitsCRT@D@ATL@@@@@ATL@@QAEHD@Z:PROC
EXTRN	__imp_?Find@?$CStringT@DV?$StrTraitMFC_DLL@DV?$ChTraitsCRT@D@ATL@@@@@ATL@@QBEHDH@Z:PROC
EXTRN	__imp_?Mid@?$CStringT@DV?$StrTraitMFC_DLL@DV?$ChTraitsCRT@D@ATL@@@@@ATL@@QBE?AV12@H@Z:PROC
EXTRN	__imp_?Mid@?$CStringT@DV?$StrTraitMFC_DLL@DV?$ChTraitsCRT@D@ATL@@@@@ATL@@QBE?AV12@HH@Z:PROC
EXTRN	__imp_?Left@?$CStringT@DV?$StrTraitMFC_DLL@DV?$ChTraitsCRT@D@ATL@@@@@ATL@@QBE?AV12@H@Z:PROC
EXTRN	__imp_?Format@?$CStringT@DV?$StrTraitMFC_DLL@DV?$ChTraitsCRT@D@ATL@@@@@ATL@@QAAXPBDZZ:PROC
EXTRN	__imp_?LoadStringA@?$CStringT@DV?$StrTraitMFC_DLL@DV?$ChTraitsCRT@D@ATL@@@@@ATL@@QAEHI@Z:PROC
EXTRN	?Read@CArchive@@QAEIPAXI@Z:PROC			; CArchive::Read
EXTRN	?Write@CArchive@@QAEXPBXI@Z:PROC		; CArchive::Write
EXTRN	?ReadCount@CArchive@@QAEKXZ:PROC		; CArchive::ReadCount
EXTRN	?WriteCount@CArchive@@QAEXK@Z:PROC		; CArchive::WriteCount
EXTRN	?AfxGetModuleState@@YGPAVAFX_MODULE_STATE@@XZ:PROC ; AfxGetModuleState
EXTRN	?AfxGetStaticModuleState@@YGPAVAFX_MODULE_STATE@@XZ:PROC ; AfxGetStaticModuleState
EXTRN	?GetRuntimeClass@CGdiObject@@UBEPAUCRuntimeClass@@XZ:PROC ; CGdiObject::GetRuntimeClass
EXTRN	?Attach@CGdiObject@@QAEHPAX@Z:PROC		; CGdiObject::Attach
EXTRN	?DeleteObject@CGdiObject@@QAEHXZ:PROC		; CGdiObject::DeleteObject
EXTRN	??_ECGdiObject@@UAEPAXI@Z:PROC			; CGdiObject::`vector deleting destructor'
EXTRN	?GetRuntimeClass@CBrush@@UBEPAUCRuntimeClass@@XZ:PROC ; CBrush::GetRuntimeClass
EXTRN	??_ECBrush@@UAEPAXI@Z:PROC			; CBrush::`vector deleting destructor'
EXTRN	?GetRuntimeClass@CFont@@UBEPAUCRuntimeClass@@XZ:PROC ; CFont::GetRuntimeClass
EXTRN	??_ECFont@@UAEPAXI@Z:PROC			; CFont::`vector deleting destructor'
EXTRN	?SetBkMode@CDC@@QAEHH@Z:PROC			; CDC::SetBkMode
EXTRN	??0CClientDC@@QAE@PAVCWnd@@@Z:PROC		; CClientDC::CClientDC
EXTRN	??1CClientDC@@UAE@XZ:PROC			; CClientDC::~CClientDC
EXTRN	?DDX_Radio@@YGXPAVCDataExchange@@HAAH@Z:PROC	; DDX_Radio
EXTRN	?DDX_Control@@YGXPAVCDataExchange@@HAAVCWnd@@@Z:PROC ; DDX_Control
EXTRN	?OnCmdMsg@CCmdTarget@@UAEHIHPAXPAUAFX_CMDHANDLERINFO@@@Z:PROC ; CCmdTarget::OnCmdMsg
EXTRN	?IsInvokeAllowed@CCmdTarget@@UAEHJ@Z:PROC	; CCmdTarget::IsInvokeAllowed
EXTRN	?GetDispatchIID@CCmdTarget@@UAEHPAU_GUID@@@Z:PROC ; CCmdTarget::GetDispatchIID
EXTRN	?GetTypeInfoCount@CCmdTarget@@UAEIXZ:PROC	; CCmdTarget::GetTypeInfoCount
EXTRN	?GetTypeLibCache@CCmdTarget@@UAEPAVCTypeLibCache@@XZ:PROC ; CCmdTarget::GetTypeLibCache
EXTRN	?GetTypeLib@CCmdTarget@@UAEJKPAPAUITypeLib@@@Z:PROC ; CCmdTarget::GetTypeLib
EXTRN	?GetCommandMap@CCmdTarget@@MBEPBUAFX_OLECMDMAP@@XZ:PROC ; CCmdTarget::GetCommandMap
EXTRN	?GetDispatchMap@CCmdTarget@@MBEPBUAFX_DISPMAP@@XZ:PROC ; CCmdTarget::GetDispatchMap
EXTRN	?GetConnectionMap@CCmdTarget@@MBEPBUAFX_CONNECTIONMAP@@XZ:PROC ; CCmdTarget::GetConnectionMap
EXTRN	?GetEventSinkMap@CCmdTarget@@MBEPBUAFX_EVENTSINKMAP@@XZ:PROC ; CCmdTarget::GetEventSinkMap
EXTRN	?OnCreateAggregates@CCmdTarget@@UAEHXZ:PROC	; CCmdTarget::OnCreateAggregates
EXTRN	?GetInterfaceHook@CCmdTarget@@UAEPAUIUnknown@@PBX@Z:PROC ; CCmdTarget::GetInterfaceHook
EXTRN	?GetExtraConnectionPoints@CCmdTarget@@MAEHPAVCPtrArray@@@Z:PROC ; CCmdTarget::GetExtraConnectionPoints
EXTRN	?GetConnectionHook@CCmdTarget@@MAEPAUIConnectionPoint@@ABU_GUID@@@Z:PROC ; CCmdTarget::GetConnectionHook
EXTRN	??0CWnd@@QAE@XZ:PROC				; CWnd::CWnd
EXTRN	?PreSubclassWindow@CWnd@@UAEXXZ:PROC		; CWnd::PreSubclassWindow
EXTRN	?Create@CWnd@@UAEHPBD0KABUtagRECT@@PAV1@IPAUCCreateContext@@@Z:PROC ; CWnd::Create
EXTRN	?CreateEx@CWnd@@UAEHKPBD0KHHHHPAUHWND__@@PAUHMENU__@@PAX@Z:PROC ; CWnd::CreateEx
EXTRN	?CreateEx@CWnd@@UAEHKPBD0KABUtagRECT@@PAV1@IPAX@Z:PROC ; CWnd::CreateEx
EXTRN	?DestroyWindow@CWnd@@UAEHXZ:PROC		; CWnd::DestroyWindow
EXTRN	?PreCreateWindow@CWnd@@UAEHAAUtagCREATESTRUCTA@@@Z:PROC ; CWnd::PreCreateWindow
EXTRN	?CalcWindowRect@CWnd@@UAEXPAUtagRECT@@I@Z:PROC	; CWnd::CalcWindowRect
EXTRN	?GetMenu@CWnd@@UBEPAVCMenu@@XZ:PROC		; CWnd::GetMenu
EXTRN	?SetMenu@CWnd@@UAEHPAVCMenu@@@Z:PROC		; CWnd::SetMenu
EXTRN	?SetWindowPos@CWnd@@QAEHPBV1@HHHHI@Z:PROC	; CWnd::SetWindowPos
EXTRN	?ScreenToClient@CWnd@@QBEXPAUtagRECT@@@Z:PROC	; CWnd::ScreenToClient
EXTRN	?ShowWindow@CWnd@@QAEHH@Z:PROC			; CWnd::ShowWindow
EXTRN	?OnToolHitTest@CWnd@@UBEHVCPoint@@PAUtagTOOLINFOA@@@Z:PROC ; CWnd::OnToolHitTest
EXTRN	?SetDlgItemTextA@CWnd@@QAEXHPBD@Z:PROC		; CWnd::SetDlgItemTextA
EXTRN	?GetScrollBarCtrl@CWnd@@UBEPAVCScrollBar@@H@Z:PROC ; CWnd::GetScrollBarCtrl
EXTRN	?WinHelpA@CWnd@@UAEXKI@Z:PROC			; CWnd::WinHelpA
EXTRN	?HtmlHelpA@CWnd@@UAEXKI@Z:PROC			; CWnd::HtmlHelpA
EXTRN	?WinHelpInternal@CWnd@@UAEXKI@Z:PROC		; CWnd::WinHelpInternal
EXTRN	?ContinueModal@CWnd@@UAEHXZ:PROC		; CWnd::ContinueModal
EXTRN	?EndModalLoop@CWnd@@UAEXH@Z:PROC		; CWnd::EndModalLoop
EXTRN	?OnDrawIconicThumbnailOrLivePreview@CWnd@@UAEXAAVCDC@@VCRect@@VCSize@@HAAH@Z:PROC ; CWnd::OnDrawIconicThumbnailOrLivePreview
EXTRN	?GetInterfaceMap@CWnd@@MBEPBUAFX_INTERFACEMAP@@XZ:PROC ; CWnd::GetInterfaceMap
EXTRN	?EnsureStdObj@CWnd@@UAEJXZ:PROC			; CWnd::EnsureStdObj
EXTRN	?get_accParent@CWnd@@UAEJPAPAUIDispatch@@@Z:PROC ; CWnd::get_accParent
EXTRN	?get_accChildCount@CWnd@@UAEJPAJ@Z:PROC		; CWnd::get_accChildCount
EXTRN	?get_accChild@CWnd@@UAEJUtagVARIANT@@PAPAUIDispatch@@@Z:PROC ; CWnd::get_accChild
EXTRN	?get_accName@CWnd@@UAEJUtagVARIANT@@PAPA_W@Z:PROC ; CWnd::get_accName
EXTRN	?get_accValue@CWnd@@UAEJUtagVARIANT@@PAPA_W@Z:PROC ; CWnd::get_accValue
EXTRN	?get_accDescription@CWnd@@UAEJUtagVARIANT@@PAPA_W@Z:PROC ; CWnd::get_accDescription
EXTRN	?get_accRole@CWnd@@UAEJUtagVARIANT@@PAU2@@Z:PROC ; CWnd::get_accRole
EXTRN	?get_accState@CWnd@@UAEJUtagVARIANT@@PAU2@@Z:PROC ; CWnd::get_accState
EXTRN	?get_accHelp@CWnd@@UAEJUtagVARIANT@@PAPA_W@Z:PROC ; CWnd::get_accHelp
EXTRN	?get_accHelpTopic@CWnd@@UAEJPAPA_WUtagVARIANT@@PAJ@Z:PROC ; CWnd::get_accHelpTopic
EXTRN	?get_accKeyboardShortcut@CWnd@@UAEJUtagVARIANT@@PAPA_W@Z:PROC ; CWnd::get_accKeyboardShortcut
EXTRN	?get_accFocus@CWnd@@UAEJPAUtagVARIANT@@@Z:PROC	; CWnd::get_accFocus
EXTRN	?get_accSelection@CWnd@@UAEJPAUtagVARIANT@@@Z:PROC ; CWnd::get_accSelection
EXTRN	?get_accDefaultAction@CWnd@@UAEJUtagVARIANT@@PAPA_W@Z:PROC ; CWnd::get_accDefaultAction
EXTRN	?accSelect@CWnd@@UAEJJUtagVARIANT@@@Z:PROC	; CWnd::accSelect
EXTRN	?accLocation@CWnd@@UAEJPAJ000UtagVARIANT@@@Z:PROC ; CWnd::accLocation
EXTRN	?accNavigate@CWnd@@UAEJJUtagVARIANT@@PAU2@@Z:PROC ; CWnd::accNavigate
EXTRN	?accHitTest@CWnd@@UAEJJJPAUtagVARIANT@@@Z:PROC	; CWnd::accHitTest
EXTRN	?accDoDefaultAction@CWnd@@UAEJUtagVARIANT@@@Z:PROC ; CWnd::accDoDefaultAction
EXTRN	?put_accName@CWnd@@UAEJUtagVARIANT@@PA_W@Z:PROC	; CWnd::put_accName
EXTRN	?put_accValue@CWnd@@UAEJUtagVARIANT@@PA_W@Z:PROC ; CWnd::put_accValue
EXTRN	?SetProxy@CWnd@@UAEJPAUIAccessibleProxy@@@Z:PROC ; CWnd::SetProxy
EXTRN	?CreateAccessibleProxy@CWnd@@UAEJIJPAJ@Z:PROC	; CWnd::CreateAccessibleProxy
EXTRN	?OnCommand@CWnd@@MAEHIJ@Z:PROC			; CWnd::OnCommand
EXTRN	?OnNotify@CWnd@@MAEHIJPAJ@Z:PROC		; CWnd::OnNotify
EXTRN	?OnCtlColor@CWnd@@IAEPAUHBRUSH__@@PAVCDC@@PAV1@I@Z:PROC ; CWnd::OnCtlColor
EXTRN	?OnDestroy@CWnd@@IAEXXZ:PROC			; CWnd::OnDestroy
EXTRN	?GetSuperWndProcAddr@CWnd@@MAEPAP6GJPAUHWND__@@IIJ@ZXZ:PROC ; CWnd::GetSuperWndProcAddr
EXTRN	?PreTranslateMessage@CWnd@@UAEHPAUtagMSG@@@Z:PROC ; CWnd::PreTranslateMessage
EXTRN	?OnAmbientProperty@CWnd@@UAEHPAVCOleControlSite@@JPAUtagVARIANT@@@Z:PROC ; CWnd::OnAmbientProperty
EXTRN	?WindowProc@CWnd@@MAEJIIJ@Z:PROC		; CWnd::WindowProc
EXTRN	?OnWndMsg@CWnd@@MAEHIIJPAJ@Z:PROC		; CWnd::OnWndMsg
EXTRN	?DefWindowProcA@CWnd@@MAEJIIJ@Z:PROC		; CWnd::DefWindowProcA
EXTRN	?PostNcDestroy@CWnd@@MAEXXZ:PROC		; CWnd::PostNcDestroy
EXTRN	?OnChildNotify@CWnd@@MAEHIIJPAJ@Z:PROC		; CWnd::OnChildNotify
EXTRN	?OnTouchInputs@CWnd@@MAEHIPAUtagTOUCHINPUT@@@Z:PROC ; CWnd::OnTouchInputs
EXTRN	?OnTouchInput@CWnd@@MAEHVCPoint@@HHPAUtagTOUCHINPUT@@@Z:PROC ; CWnd::OnTouchInput
EXTRN	?GetGestureStatus@CWnd@@MAEKVCPoint@@@Z:PROC	; CWnd::GetGestureStatus
EXTRN	?OnGestureZoom@CWnd@@MAEHVCPoint@@J@Z:PROC	; CWnd::OnGestureZoom
EXTRN	?OnGesturePan@CWnd@@MAEHVCPoint@@0@Z:PROC	; CWnd::OnGesturePan
EXTRN	?OnGestureRotate@CWnd@@MAEHVCPoint@@N@Z:PROC	; CWnd::OnGestureRotate
EXTRN	?OnGestureTwoFingerTap@CWnd@@MAEHVCPoint@@@Z:PROC ; CWnd::OnGestureTwoFingerTap
EXTRN	?OnGesturePressAndTap@CWnd@@MAEHVCPoint@@J@Z:PROC ; CWnd::OnGesturePressAndTap
EXTRN	?ResizeDynamicLayout@CWnd@@MAEXXZ:PROC		; CWnd::ResizeDynamicLayout
EXTRN	?CheckAutoCenter@CWnd@@UAEHXZ:PROC		; CWnd::CheckAutoCenter
EXTRN	?IsFrameWnd@CWnd@@UBEHXZ:PROC			; CWnd::IsFrameWnd
EXTRN	?OnFinalRelease@CWnd@@UAEXXZ:PROC		; CWnd::OnFinalRelease
EXTRN	?CreateControlContainer@CWnd@@MAEHPAPAVCOleControlContainer@@@Z:PROC ; CWnd::CreateControlContainer
EXTRN	?CreateControlSite@CWnd@@MAEHPAVCOleControlContainer@@PAPAVCOleControlSite@@IABU_GUID@@@Z:PROC ; CWnd::CreateControlSite
EXTRN	?SetOccDialogInfo@CWnd@@MAEHPAU_AFX_OCC_DIALOG_INFO@@@Z:PROC ; CWnd::SetOccDialogInfo
EXTRN	?GetOccDialogInfo@CWnd@@MAEPAU_AFX_OCC_DIALOG_INFO@@XZ:PROC ; CWnd::GetOccDialogInfo
EXTRN	?GetMessageMap@CWnd@@MBEPBUAFX_MSGMAP@@XZ:PROC	; CWnd::GetMessageMap
EXTRN	?GetRuntimeClass@CDialog@@UBEPAUCRuntimeClass@@XZ:PROC ; CDialog::GetRuntimeClass
EXTRN	?Create@CDialog@@UAEHPBDPAVCWnd@@@Z:PROC	; CDialog::Create
EXTRN	?CreateIndirect@CDialog@@UAEHPBUDLGTEMPLATE@@PAVCWnd@@PAX@Z:PROC ; CDialog::CreateIndirect
EXTRN	?CreateIndirect@CDialog@@UAEHPAXPAVCWnd@@@Z:PROC ; CDialog::CreateIndirect
EXTRN	??0CDialog@@QAE@IPAVCWnd@@@Z:PROC		; CDialog::CDialog
EXTRN	?DoModal@CDialog@@UAEHXZ:PROC			; CDialog::DoModal
EXTRN	?OnInitDialog@CDialog@@UAEHXZ:PROC		; CDialog::OnInitDialog
EXTRN	?OnSetFont@CDialog@@UAEXPAVCFont@@@Z:PROC	; CDialog::OnSetFont
EXTRN	?OnOK@CDialog@@MAEXXZ:PROC			; CDialog::OnOK
EXTRN	?OnCancel@CDialog@@MAEXXZ:PROC			; CDialog::OnCancel
EXTRN	??1CDialog@@UAE@XZ:PROC				; CDialog::~CDialog
EXTRN	?PreTranslateMessage@CDialog@@UAEHPAUtagMSG@@@Z:PROC ; CDialog::PreTranslateMessage
EXTRN	?OnCmdMsg@CDialog@@UAEHIHPAXPAUAFX_CMDHANDLERINFO@@@Z:PROC ; CDialog::OnCmdMsg
EXTRN	?CheckAutoCenter@CDialog@@UAEHXZ:PROC		; CDialog::CheckAutoCenter
EXTRN	?SetOccDialogInfo@CDialog@@MAEHPAU_AFX_OCC_DIALOG_INFO@@@Z:PROC ; CDialog::SetOccDialogInfo
EXTRN	?GetOccDialogInfo@CDialog@@MAEPAU_AFX_OCC_DIALOG_INFO@@XZ:PROC ; CDialog::GetOccDialogInfo
EXTRN	?PreInitDialog@CDialog@@MAEXXZ:PROC		; CDialog::PreInitDialog
EXTRN	?GetThisMessageMap@CDialog@@KGPBUAFX_MSGMAP@@XZ:PROC ; CDialog::GetThisMessageMap
EXTRN	?GetRuntimeClass@CStatic@@UBEPAUCRuntimeClass@@XZ:PROC ; CStatic::GetRuntimeClass
EXTRN	?Create@CStatic@@UAEHPBDKABUtagRECT@@PAVCWnd@@I@Z:PROC ; CStatic::Create
EXTRN	?DrawItem@CStatic@@UAEXPAUtagDRAWITEMSTRUCT@@@Z:PROC ; CStatic::DrawItem
EXTRN	??1CStatic@@UAE@XZ:PROC				; CStatic::~CStatic
EXTRN	?OnChildNotify@CStatic@@MAEHIIJPAJ@Z:PROC	; CStatic::OnChildNotify
EXTRN	??_ECStatic@@UAEPAXI@Z:PROC			; CStatic::`vector deleting destructor'
EXTRN	?AfxMessageBox@@YGHPBDII@Z:PROC			; AfxMessageBox
EXTRN	??_ECDlgAnalysis@@UAEPAXI@Z:PROC		; CDlgAnalysis::`vector deleting destructor'
EXTRN	??0CWavePattern@@QAE@XZ:PROC			; CWavePattern::CWavePattern
EXTRN	??1CWavePattern@@UAE@XZ:PROC			; CWavePattern::~CWavePattern
EXTRN	?GetPatternName@CWavePattern@@QAE?AV?$CStringT@DV?$StrTraitMFC_DLL@DV?$ChTraitsCRT@D@ATL@@@@@ATL@@H@Z:PROC ; CWavePattern::GetPatternName
EXTRN	?GetPatternTrend@CWavePattern@@QAEHH@Z:PROC	; CWavePattern::GetPatternTrend
EXTRN	?GetPatternTrendName@CWavePattern@@QAE?AV?$CStringT@DV?$StrTraitMFC_DLL@DV?$ChTraitsCRT@D@ATL@@@@@ATL@@H@Z:PROC ; CWavePattern::GetPatternTrendName
EXTRN	??0CCandlePattern@@QAE@XZ:PROC			; CCandlePattern::CCandlePattern
EXTRN	??1CCandlePattern@@UAE@XZ:PROC			; CCandlePattern::~CCandlePattern
EXTRN	?GetCandlePatternName@CCandlePattern@@QAE?AV?$CStringT@DV?$StrTraitMFC_DLL@DV?$ChTraitsCRT@D@ATL@@@@@ATL@@H@Z:PROC ; CCandlePattern::GetCandlePatternName
EXTRN	?GetCandlePatternTrend@CCandlePattern@@QAEHH@Z:PROC ; CCandlePattern::GetCandlePatternTrend
EXTRN	?GetCandlePatternTrendName@CCandlePattern@@QAE?AV?$CStringT@DV?$StrTraitMFC_DLL@DV?$ChTraitsCRT@D@ATL@@@@@ATL@@H@Z:PROC ; CCandlePattern::GetCandlePatternTrendName
EXTRN	?SetGSharedData@CPatternMaker@@QAEXV?$CStringT@DV?$StrTraitMFC_DLL@DV?$ChTraitsCRT@D@ATL@@@@@ATL@@0@Z:PROC ; CPatternMaker::SetGSharedData
EXTRN	?RefreshChart@CPatternMaker@@QAEXXZ:PROC	; CPatternMaker::RefreshChart
EXTRN	?GetAllData_AboutPattern@CPatternMaker@@QAEXXZ:PROC ; CPatternMaker::GetAllData_AboutPattern
EXTRN	?InitSelectedPatternData@CPatternMaker@@QAEXH@Z:PROC ; CPatternMaker::InitSelectedPatternData
EXTRN	?DeleteAllData@CPatternMaker@@QAEXXZ:PROC	; CPatternMaker::DeleteAllData
EXTRN	?GetAllData_AboutCandlePattern@CPatternMaker@@QAEXXZ:PROC ; CPatternMaker::GetAllData_AboutCandlePattern
EXTRN	?SetSelectedCandlePatternData@CPatternMaker@@QAEXNV?$CStringT@DV?$StrTraitMFC_DLL@DV?$ChTraitsCRT@D@ATL@@@@@ATL@@@Z:PROC ; CPatternMaker::SetSelectedCandlePatternData
EXTRN	?DoModal@CRscDlg@@UAEHXZ:PROC			; CRscDlg::DoModal
EXTRN	??1CXTabCtrl@@UAE@XZ:PROC			; CXTabCtrl::~CXTabCtrl
EXTRN	??0CDlgSetup@@QAE@PAVCWnd@@@Z:PROC		; CDlgSetup::CDlgSetup
EXTRN	?SetPatternEnvData@CDlgSetup@@QAEXPAVCPatternEnvData@@@Z:PROC ; CDlgSetup::SetPatternEnvData
EXTRN	??_E?$CArray@PAVCRscDlg@@PAV1@@@UAEPAXI@Z:PROC	; CArray<CRscDlg *,CRscDlg *>::`vector deleting destructor'
EXTRN	??0CGridCtrl@@QAE@HHHH@Z:PROC			; CGridCtrl::CGridCtrl
EXTRN	?Create@CGridCtrl@@QAEHABUtagRECT@@PAVCWnd@@IK@Z:PROC ; CGridCtrl::Create
EXTRN	?SetRowCount@CGridCtrl@@QAEHH@Z:PROC		; CGridCtrl::SetRowCount
EXTRN	?SetColumnCount@CGridCtrl@@QAEHH@Z:PROC		; CGridCtrl::SetColumnCount
EXTRN	?SetFixedRowCount@CGridCtrl@@QAEHH@Z:PROC	; CGridCtrl::SetFixedRowCount
EXTRN	?SetFixedColumnCount@CGridCtrl@@QAEHH@Z:PROC	; CGridCtrl::SetFixedColumnCount
EXTRN	?SetRowHeight@CGridCtrl@@QAEHHH@Z:PROC		; CGridCtrl::SetRowHeight
EXTRN	?SetRowHeight_NoReset@CGridCtrl@@QAEHHH@Z:PROC	; CGridCtrl::SetRowHeight_NoReset
EXTRN	?SetColumnWidth@CGridCtrl@@QAEHHH@Z:PROC	; CGridCtrl::SetColumnWidth
EXTRN	?SetListMode@CGridCtrl@@QAEXH@Z:PROC		; CGridCtrl::SetListMode
EXTRN	?SetItem@CGridCtrl@@QAEHPBU_GV_ITEM@@@Z:PROC	; CGridCtrl::SetItem
EXTRN	?SetItemText@CGridCtrl@@QAEHHHPBD@Z:PROC	; CGridCtrl::SetItemText
EXTRN	?GetItemText@CGridCtrl@@QBE?AV?$CStringT@DV?$StrTraitMFC_DLL@DV?$ChTraitsCRT@D@ATL@@@@@ATL@@HH@Z:PROC ; CGridCtrl::GetItemText
EXTRN	?SetItemBkColour@CGridCtrl@@QAEHHHK@Z:PROC	; CGridCtrl::SetItemBkColour
EXTRN	?Refresh@CGridCtrl@@QAEXXZ:PROC			; CGridCtrl::Refresh
EXTRN	?SetPatternReportType@CGridCtrl@@QAEXH@Z:PROC	; CGridCtrl::SetPatternReportType
EXTRN	?GetPatternReportType@CGridCtrl@@QAEHXZ:PROC	; CGridCtrl::GetPatternReportType
EXTRN	?Call_ResetScrollBars@CGridCtrl@@QAEXXZ:PROC	; CGridCtrl::Call_ResetScrollBars
EXTRN	@__security_check_cookie@4:PROC
EXTRN	___CxxFrameHandler3:PROC
EXTRN	_memcpy:PROC
EXTRN	_memset:PROC
EXTRN	??_7type_info@@6B@:QWORD			; type_info::`vftable'
EXTRN	?g_iMetaTable@@3VIMetaTable@@A:BYTE		; g_iMetaTable
EXTRN	___security_cookie:DWORD
EXTRN	__fltused:DWORD
;	COMDAT __xmm@7fffffffffffffff7fffffffffffffff
CONST	SEGMENT
__xmm@7fffffffffffffff7fffffffffffffff DB 0ffH, 0ffH, 0ffH, 0ffH, 0ffH, 0ffH
	DB	0ffH, 07fH, 0ffH, 0ffH, 0ffH, 0ffH, 0ffH, 0ffH, 0ffH, 07fH
CONST	ENDS
;	COMDAT __xmm@00000064000000460000005700000016
CONST	SEGMENT
__xmm@00000064000000460000005700000016 DB 016H, 00H, 00H, 00H, 'W', 00H, 00H
	DB	00H, 'F', 00H, 00H, 00H, 'd', 00H, 00H, 00H
CONST	ENDS
;	COMDAT __xmm@0000003c0000003c0000003c0000003c
CONST	SEGMENT
__xmm@0000003c0000003c0000003c0000003c DB '<', 00H, 00H, 00H, '<', 00H, 00H
	DB	00H, '<', 00H, 00H, 00H, '<', 00H, 00H, 00H
CONST	ENDS
;	COMDAT __xmm@00000030000000300000003000000030
CONST	SEGMENT
__xmm@00000030000000300000003000000030 DB '0', 00H, 00H, 00H, '0', 00H, 00H
	DB	00H, '0', 00H, 00H, 00H, '0', 00H, 00H, 00H
CONST	ENDS
;	COMDAT __real@c059000000000000
CONST	SEGMENT
__real@c059000000000000 DQ 0c059000000000000r	; -100
CONST	ENDS
;	COMDAT __real@bff0000000000000
CONST	SEGMENT
__real@bff0000000000000 DQ 0bff0000000000000r	; -1
CONST	ENDS
;	COMDAT __real@4059000000000000
CONST	SEGMENT
__real@4059000000000000 DQ 04059000000000000r	; 100
CONST	ENDS
;	COMDAT ??_R1A@?0A@EA@?$CArray@PAVCRscDlg@@PAV1@@@8
rdata$r	SEGMENT
??_R1A@?0A@EA@?$CArray@PAVCRscDlg@@PAV1@@@8 DD FLAT:??_R0?AV?$CArray@PAVCRscDlg@@PAV1@@@@8 ; CArray<CRscDlg *,CRscDlg *>::`RTTI Base Class Descriptor at (0,-1,0,64)'
	DD	01H
	DD	00H
	DD	0ffffffffH
	DD	00H
	DD	040H
	DD	FLAT:??_R3?$CArray@PAVCRscDlg@@PAV1@@@8
rdata$r	ENDS
;	COMDAT ??_R2?$CArray@PAVCRscDlg@@PAV1@@@8
rdata$r	SEGMENT
??_R2?$CArray@PAVCRscDlg@@PAV1@@@8 DD FLAT:??_R1A@?0A@EA@?$CArray@PAVCRscDlg@@PAV1@@@8 ; CArray<CRscDlg *,CRscDlg *>::`RTTI Base Class Array'
	DD	FLAT:??_R1A@?0A@EA@CObject@@8
rdata$r	ENDS
;	COMDAT ??_R3?$CArray@PAVCRscDlg@@PAV1@@@8
rdata$r	SEGMENT
??_R3?$CArray@PAVCRscDlg@@PAV1@@@8 DD 00H		; CArray<CRscDlg *,CRscDlg *>::`RTTI Class Hierarchy Descriptor'
	DD	00H
	DD	02H
	DD	FLAT:??_R2?$CArray@PAVCRscDlg@@PAV1@@@8
rdata$r	ENDS
;	COMDAT ??_R0?AV?$CArray@PAVCRscDlg@@PAV1@@@@8
data$rs	SEGMENT
??_R0?AV?$CArray@PAVCRscDlg@@PAV1@@@@8 DD FLAT:??_7type_info@@6B@ ; CArray<CRscDlg *,CRscDlg *> `RTTI Type Descriptor'
	DD	00H
	DB	'.?AV?$CArray@PAVCRscDlg@@PAV1@@@', 00H
data$rs	ENDS
;	COMDAT ??_R4?$CArray@PAVCRscDlg@@PAV1@@@6B@
rdata$r	SEGMENT
??_R4?$CArray@PAVCRscDlg@@PAV1@@@6B@ DD 00H		; CArray<CRscDlg *,CRscDlg *>::`RTTI Complete Object Locator'
	DD	00H
	DD	00H
	DD	FLAT:??_R0?AV?$CArray@PAVCRscDlg@@PAV1@@@@8
	DD	FLAT:??_R3?$CArray@PAVCRscDlg@@PAV1@@@8
rdata$r	ENDS
;	COMDAT ??_R1A@?0A@EA@CDlgAnalysis@@8
rdata$r	SEGMENT
??_R1A@?0A@EA@CDlgAnalysis@@8 DD FLAT:??_R0?AVCDlgAnalysis@@@8 ; CDlgAnalysis::`RTTI Base Class Descriptor at (0,-1,0,64)'
	DD	04H
	DD	00H
	DD	0ffffffffH
	DD	00H
	DD	040H
	DD	FLAT:??_R3CDlgAnalysis@@8
rdata$r	ENDS
;	COMDAT ??_R2CDlgAnalysis@@8
rdata$r	SEGMENT
??_R2CDlgAnalysis@@8 DD FLAT:??_R1A@?0A@EA@CDlgAnalysis@@8 ; CDlgAnalysis::`RTTI Base Class Array'
	DD	FLAT:??_R1A@?0A@EA@CDialog@@8
	DD	FLAT:??_R1A@?0A@EA@CWnd@@8
	DD	FLAT:??_R1A@?0A@EA@CCmdTarget@@8
	DD	FLAT:??_R1A@?0A@EA@CObject@@8
rdata$r	ENDS
;	COMDAT ??_R3CDlgAnalysis@@8
rdata$r	SEGMENT
??_R3CDlgAnalysis@@8 DD 00H				; CDlgAnalysis::`RTTI Class Hierarchy Descriptor'
	DD	00H
	DD	05H
	DD	FLAT:??_R2CDlgAnalysis@@8
rdata$r	ENDS
;	COMDAT ??_R0?AVCDlgAnalysis@@@8
data$rs	SEGMENT
??_R0?AVCDlgAnalysis@@@8 DD FLAT:??_7type_info@@6B@	; CDlgAnalysis `RTTI Type Descriptor'
	DD	00H
	DB	'.?AVCDlgAnalysis@@', 00H
data$rs	ENDS
;	COMDAT ??_R4CDlgAnalysis@@6B@
rdata$r	SEGMENT
??_R4CDlgAnalysis@@6B@ DD 00H				; CDlgAnalysis::`RTTI Complete Object Locator'
	DD	00H
	DD	00H
	DD	FLAT:??_R0?AVCDlgAnalysis@@@8
	DD	FLAT:??_R3CDlgAnalysis@@8
rdata$r	ENDS
;	COMDAT ??_C@_09NAHCEPAB@?$LN?C?$LA?$KD?9?B?w?F?$KO@
CONST	SEGMENT
??_C@_09NAHCEPAB@?$LN?C?$LA?$KD?9?B?w?F?$KO@ DB 0bdH, 0c3H, 0b0H, 0a3H, '-'
	DB	0c2H, 0f7H, 0c6H, 0aeH, 00H			; `string'
CONST	ENDS
;	COMDAT ??_C@_06CLONMKIH@?$CFY?$CFm?$CFd@
CONST	SEGMENT
??_C@_06CLONMKIH@?$CFY?$CFm?$CFd@ DB '%Y%m%d', 00H	; `string'
CONST	ENDS
;	COMDAT ??_C@_02PLJDPFIO@00@
CONST	SEGMENT
??_C@_02PLJDPFIO@00@ DB '00', 00H			; `string'
CONST	ENDS
;	COMDAT ??_C@_02FFEBEEPL@?$CFY@
CONST	SEGMENT
??_C@_02FFEBEEPL@?$CFY@ DB '%Y', 00H			; `string'
CONST	ENDS
;	COMDAT ??_C@_04GEFJINEE@?$CF?42f@
CONST	SEGMENT
??_C@_04GEFJINEE@?$CF?42f@ DB '%.2f', 00H		; `string'
CONST	ENDS
;	COMDAT ??_C@_02CDIPKPDF@5d@
CONST	SEGMENT
??_C@_02CDIPKPDF@5d@ DB '5d', 00H			; `string'
CONST	ENDS
;	COMDAT ??_C@_02CCENMFAC@4d@
CONST	SEGMENT
??_C@_02CCENMFAC@4d@ DB '4d', 00H			; `string'
CONST	ENDS
;	COMDAT ??_C@_02CHACNDIH@3d@
CONST	SEGMENT
??_C@_02CHACNDIH@3d@ DB '3d', 00H			; `string'
CONST	ENDS
;	COMDAT ??_C@_02CGMALJLA@2d@
CONST	SEGMENT
??_C@_02CGMALJLA@2d@ DB '2d', 00H			; `string'
CONST	ENDS
;	COMDAT ??_C@_02CEIGAHOJ@1d@
CONST	SEGMENT
??_C@_02CEIGAHOJ@1d@ DB '1d', 00H			; `string'
CONST	ENDS
;	COMDAT ??_C@_03MEIDHFLB@5?$MA?O@
CONST	SEGMENT
??_C@_03MEIDHFLB@5?$MA?O@ DB '5', 0c0H, 0cfH, 00H	; `string'
CONST	ENDS
;	COMDAT ??_C@_03HMDPBCNE@4?$MA?O@
CONST	SEGMENT
??_C@_03HMDPBCNE@4?$MA?O@ DB '4', 0c0H, 0cfH, 00H	; `string'
CONST	ENDS
;	COMDAT ??_C@_03OBOICKGN@3?$MA?O@
CONST	SEGMENT
??_C@_03OBOICKGN@3?$MA?O@ DB '3', 0c0H, 0cfH, 00H	; `string'
CONST	ENDS
;	COMDAT ??_C@_03FJFEENAI@2?$MA?O@
CONST	SEGMENT
??_C@_03FJFEENAI@2?$MA?O@ DB '2', 0c0H, 0cfH, 00H	; `string'
CONST	ENDS
;	COMDAT ??_C@_03ELOBOCOG@1?$MA?O@
CONST	SEGMENT
??_C@_03ELOBOCOG@1?$MA?O@ DB '1', 0c0H, 0cfH, 00H	; `string'
CONST	ENDS
;	COMDAT ??_C@_0BF@INFJIIDO@Accumulated?5?$CF?5Change@
CONST	SEGMENT
??_C@_0BF@INFJIIDO@Accumulated?5?$CF?5Change@ DB 'Accumulated % Change', 00H ; `string'
CONST	ENDS
;	COMDAT ??_C@_0M@PJJGJDFM@Candle?5Name@
CONST	SEGMENT
??_C@_0M@PJJGJDFM@Candle?5Name@ DB 'Candle Name', 00H	; `string'
CONST	ENDS
;	COMDAT ??_C@_0L@IEDJEJMI@?$LE?$KJ?$MA?$PL?$LF?n?$LG?t?$LH?$PM@
CONST	SEGMENT
??_C@_0L@IEDJEJMI@?$LE?$KJ?$MA?$PL?$LF?n?$LG?t?$LH?$PM@ DB 0b4H, 0a9H, 0c0H
	DB	0fbH, 0b5H, 0eeH, 0b6H, 0f4H, 0b7H, 0fcH, 00H ; `string'
CONST	ENDS
;	COMDAT ??_C@_0L@OBAOOHGI@?D?$LF?$LF?i?F?P?E?O?$LI?m@
CONST	SEGMENT
??_C@_0L@OBAOOHGI@?D?$LF?$LF?i?F?P?E?O?$LI?m@ DB 0c4H, 0b5H, 0b5H, 0e9H, 0c6H
	DB	0d0H, 0c5H, 0cfH, 0b8H, 0edH, 00H		; `string'
CONST	ENDS
;	COMDAT ??_C@_01IHBHIGKO@?0@
CONST	SEGMENT
??_C@_01IHBHIGKO@?0@ DB ',', 00H			; `string'
CONST	ENDS
;	COMDAT ??_C@_03GONFLFCC@?901@
CONST	SEGMENT
??_C@_03GONFLFCC@?901@ DB '-01', 00H			; `string'
CONST	ENDS
;	COMDAT ??_C@_01GBGANLPD@0@
CONST	SEGMENT
??_C@_01GBGANLPD@0@ DB '0', 00H				; `string'
CONST	ENDS
;	COMDAT ??_C@_01JOAMLHOP@?9@
CONST	SEGMENT
??_C@_01JOAMLHOP@?9@ DB '-', 00H			; `string'
CONST	ENDS
;	COMDAT ??_C@_01KMDKNFGN@?1@
CONST	SEGMENT
??_C@_01KMDKNFGN@?1@ DB '/', 00H			; `string'
CONST	ENDS
;	COMDAT ??_C@_01JLIPDDHJ@?3@
CONST	SEGMENT
??_C@_01JLIPDDHJ@?3@ DB ':', 00H			; `string'
CONST	ENDS
;	COMDAT ??_C@_03EICDNICE@?$CF?4f@
CONST	SEGMENT
??_C@_03EICDNICE@?$CF?4f@ DB '%.f', 00H			; `string'
CONST	ENDS
;	COMDAT ??_C@_09COFDECHD@Hitting?5?$CF@
CONST	SEGMENT
??_C@_09COFDECHD@Hitting?5?$CF@ DB 'Hitting %', 00H	; `string'
CONST	ENDS
;	COMDAT ??_C@_06ILPMMGLH@Real?5?$CF@
CONST	SEGMENT
??_C@_06ILPMMGLH@Real?5?$CF@ DB 'Real %', 00H		; `string'
CONST	ENDS
;	COMDAT ??_C@_0M@IHPMGMBN@Estimated?5?$CF@
CONST	SEGMENT
??_C@_0M@IHPMGMBN@Estimated?5?$CF@ DB 'Estimated %', 00H ; `string'
CONST	ENDS
;	COMDAT ??_C@_06BANOEBK@?$LF?$LF?$LE?$NO?$LH?$PM@
CONST	SEGMENT
??_C@_06BANOEBK@?$LF?$LF?$LE?$NO?$LH?$PM@ DB 0b5H, 0b5H, 0b4H, 0deH, 0b7H
	DB	0fcH, 00H					; `string'
CONST	ENDS
;	COMDAT ??_C@_0L@OJACLBNK@?$LN?G?A?$KG?$LF?n?$LG?t?$LH?$PM@
CONST	SEGMENT
??_C@_0L@OJACLBNK@?$LN?G?A?$KG?$LF?n?$LG?t?$LH?$PM@ DB 0bdH, 0c7H, 0c1H, 0a6H
	DB	0b5H, 0eeH, 0b6H, 0f4H, 0b7H, 0fcH, 00H	; `string'
CONST	ENDS
;	COMDAT ??_C@_0L@CBKFAJNJ@?$LP?$LJ?$LL?s?$LF?n?$LG?t?$LH?$PM@
CONST	SEGMENT
??_C@_0L@CBKFAJNJ@?$LP?$LJ?$LL?s?$LF?n?$LG?t?$LH?$PM@ DB 0bfH, 0b9H, 0bbH
	DB	0f3H, 0b5H, 0eeH, 0b6H, 0f4H, 0b7H, 0fcH, 00H ; `string'
CONST	ENDS
;	COMDAT ??_C@_0BL@LCBDFPID@Hitting?5Rate?5by?5Occurrence@
CONST	SEGMENT
??_C@_0BL@LCBDFPID@Hitting?5Rate?5by?5Occurrence@ DB 'Hitting Rate by Occ'
	DB	'urrence', 00H				; `string'
CONST	ENDS
;	COMDAT ??_C@_08BGECMFMG@Bong?5Num@
CONST	SEGMENT
??_C@_08BGECMFMG@Bong?5Num@ DB 'Bong Num', 00H		; `string'
CONST	ENDS
;	COMDAT ??_C@_0L@DJLPBPGN@Trend?5Name@
CONST	SEGMENT
??_C@_0L@DJLPBPGN@Trend?5Name@ DB 'Trend Name', 00H	; `string'
CONST	ENDS
;	COMDAT ??_C@_04KOACHJEN@Type@
CONST	SEGMENT
??_C@_04KOACHJEN@Type@ DB 'Type', 00H			; `string'
CONST	ENDS
;	COMDAT ??_C@_04FMEGDJGD@Date@
CONST	SEGMENT
??_C@_04FMEGDJGD@Date@ DB 'Date', 00H			; `string'
CONST	ENDS
;	COMDAT ??_C@_0N@PBPHHOB@?$LJ?$NP?$LL?$PN?$LK?$LA?$LF?$LF?$LE?$NO?$LH?$PM@
CONST	SEGMENT
??_C@_0N@PBPHHOB@?$LJ?$NP?$LL?$PN?$LK?$LA?$LF?$LF?$LE?$NO?$LH?$PM@ DB 0b9H
	DB	0dfH, 0bbH, 0fdH, 0baH, 0b0H, 0b5H, 0b5H, 0b4H, 0deH, 0b7H, 0fcH
	DB	00H						; `string'
CONST	ENDS
;	COMDAT ??_C@_08LNOGFIKG@?$LB?$LI?$LM?$LK?$LK?$MA?$LM?v@
CONST	SEGMENT
??_C@_08LNOGFIKG@?$LB?$LI?$LM?$LK?$LK?$MA?$LM?v@ DB 0b1H, 0b8H, 0bcH, 0baH
	DB	0baH, 0c0H, 0bcH, 0f6H, 00H			; `string'
CONST	ENDS
;	COMDAT ??_C@_0L@LPJFCNKL@?C?$NP?$LM?$LM?F?P?E?O?$LI?m@
CONST	SEGMENT
??_C@_0L@LPJFCNKL@?C?$NP?$LM?$LM?F?P?E?O?$LI?m@ DB 0c3H, 0dfH, 0bcH, 0bcH
	DB	0c6H, 0d0H, 0c5H, 0cfH, 0b8H, 0edH, 00H	; `string'
CONST	ENDS
;	COMDAT ??_C@_04OJCJMHBO@?$MA?$KP?G?$PM@
CONST	SEGMENT
??_C@_04OJCJMHBO@?$MA?$KP?G?$PM@ DB 0c0H, 0afH, 0c7H, 0fcH, 00H ; `string'
CONST	ENDS
;	COMDAT ??_C@_04DKOJHJPH@?$LD?$KP?B?$KF@
CONST	SEGMENT
??_C@_04DKOJHJPH@?$LD?$KP?B?$KF@ DB 0b3H, 0afH, 0c2H, 0a5H, 00H ; `string'
CONST	ENDS
;	COMDAT ??_C@_03ONPMIKNM@No?4@
CONST	SEGMENT
??_C@_03ONPMIKNM@No?4@ DB 'No.', 00H			; `string'
CONST	ENDS
;	COMDAT ??_R0PAVCMemoryException@@@8
data$r	SEGMENT
??_R0PAVCMemoryException@@@8 DD FLAT:??_7type_info@@6B@	; CMemoryException * `RTTI Type Descriptor'
	DD	00H
	DB	'.PAVCMemoryException@@', 00H
data$r	ENDS
;	COMDAT ??_C@_07JPHDIPNG@DISPLAY@
CONST	SEGMENT
??_C@_07JPHDIPNG@DISPLAY@ DB 'DISPLAY', 00H		; `string'
CONST	ENDS
;	COMDAT ?messageMap@?1??GetThisMessageMap@CDlgAnalysis@@KGPBUAFX_MSGMAP@@XZ@4U3@B
CONST	SEGMENT
?messageMap@?1??GetThisMessageMap@CDlgAnalysis@@KGPBUAFX_MSGMAP@@XZ@4U3@B DD FLAT:?GetThisMessageMap@CDialog@@KGPBUAFX_MSGMAP@@XZ ; `CDlgAnalysis::GetThisMessageMap'::`2'::messageMap
	DD	FLAT:?_messageEntries@?1??GetThisMessageMap@CDlgAnalysis@@KGPBUAFX_MSGMAP@@XZ@4QBUAFX_MSGMAP_ENTRY@@B
CONST	ENDS
;	COMDAT ?_messageEntries@?1??GetThisMessageMap@CDlgAnalysis@@KGPBUAFX_MSGMAP@@XZ@4QBUAFX_MSGMAP_ENTRY@@B
CONST	SEGMENT
?_messageEntries@?1??GetThisMessageMap@CDlgAnalysis@@KGPBUAFX_MSGMAP@@XZ@4QBUAFX_MSGMAP_ENTRY@@B DD 02H ; `CDlgAnalysis::GetThisMessageMap'::`2'::_messageEntries
	DD	00H
	DD	00H
	DD	00H
	DD	013H
	DD	FLAT:?OnDestroy@CDlgAnalysis@@IAEXXZ
	DD	019H
	DD	00H
	DD	00H
	DD	00H
	DD	08H
	DD	FLAT:?OnCtlColor@CDlgAnalysis@@IAEPAUHBRUSH__@@PAVCDC@@PAVCWnd@@I@Z
	DD	0111H
	DD	00H
	DD	07ecH
	DD	07ecH
	DD	03aH
	DD	FLAT:?OnRdoWave@CDlgAnalysis@@IAEXXZ
	DD	0111H
	DD	00H
	DD	07ebH
	DD	07ebH
	DD	03aH
	DD	FLAT:?OnRdoCandle@CDlgAnalysis@@IAEXXZ
	DD	0111H
	DD	00H
	DD	07edH
	DD	07edH
	DD	03aH
	DD	FLAT:?OnBtnEnvSetup@CDlgAnalysis@@IAEXXZ
	DD	00H
	DD	00H
	DD	00H
	DD	00H
	DD	00H
	DD	00H
CONST	ENDS
;	COMDAT ??_C@_0BA@ENJOCHIO@LoadResourceDLL@
CONST	SEGMENT
??_C@_0BA@ENJOCHIO@LoadResourceDLL@ DB 'LoadResourceDLL', 00H ; `string'
CONST	ENDS
;	COMDAT ??_C@_0BF@EGELCGDD@GetCurrentLanguageID@
CONST	SEGMENT
??_C@_0BF@EGELCGDD@GetCurrentLanguageID@ DB 'GetCurrentLanguageID', 00H ; `string'
CONST	ENDS
;	COMDAT ??_7?$CArray@PAVCRscDlg@@PAV1@@@6B@
CONST	SEGMENT
??_7?$CArray@PAVCRscDlg@@PAV1@@@6B@ DD FLAT:??_R4?$CArray@PAVCRscDlg@@PAV1@@@6B@ ; CArray<CRscDlg *,CRscDlg *>::`vftable'
	DD	FLAT:?GetRuntimeClass@CObject@@UBEPAUCRuntimeClass@@XZ
	DD	FLAT:??_E?$CArray@PAVCRscDlg@@PAV1@@@UAEPAXI@Z
	DD	FLAT:?Serialize@?$CArray@PAVCRscDlg@@PAV1@@@UAEXAAVCArchive@@@Z
	DD	FLAT:?AssertValid@CObject@@UBEXXZ
	DD	FLAT:?Dump@CObject@@UBEXAAVCDumpContext@@@Z
CONST	ENDS
;	COMDAT ??_7CDlgAnalysis@@6B@
CONST	SEGMENT
??_7CDlgAnalysis@@6B@ DD FLAT:??_R4CDlgAnalysis@@6B@	; CDlgAnalysis::`vftable'
	DD	FLAT:?GetRuntimeClass@CDialog@@UBEPAUCRuntimeClass@@XZ
	DD	FLAT:??_ECDlgAnalysis@@UAEPAXI@Z
	DD	FLAT:?Serialize@CObject@@UAEXAAVCArchive@@@Z
	DD	FLAT:?AssertValid@CObject@@UBEXXZ
	DD	FLAT:?Dump@CObject@@UBEXAAVCDumpContext@@@Z
	DD	FLAT:?OnCmdMsg@CDialog@@UAEHIHPAXPAUAFX_CMDHANDLERINFO@@@Z
	DD	FLAT:?OnFinalRelease@CWnd@@UAEXXZ
	DD	FLAT:?IsInvokeAllowed@CCmdTarget@@UAEHJ@Z
	DD	FLAT:?GetDispatchIID@CCmdTarget@@UAEHPAU_GUID@@@Z
	DD	FLAT:?GetTypeInfoCount@CCmdTarget@@UAEIXZ
	DD	FLAT:?GetTypeLibCache@CCmdTarget@@UAEPAVCTypeLibCache@@XZ
	DD	FLAT:?GetTypeLib@CCmdTarget@@UAEJKPAPAUITypeLib@@@Z
	DD	FLAT:?GetMessageMap@CDlgAnalysis@@MBEPBUAFX_MSGMAP@@XZ
	DD	FLAT:?GetCommandMap@CCmdTarget@@MBEPBUAFX_OLECMDMAP@@XZ
	DD	FLAT:?GetDispatchMap@CCmdTarget@@MBEPBUAFX_DISPMAP@@XZ
	DD	FLAT:?GetConnectionMap@CCmdTarget@@MBEPBUAFX_CONNECTIONMAP@@XZ
	DD	FLAT:?GetInterfaceMap@CWnd@@MBEPBUAFX_INTERFACEMAP@@XZ
	DD	FLAT:?GetEventSinkMap@CCmdTarget@@MBEPBUAFX_EVENTSINKMAP@@XZ
	DD	FLAT:?OnCreateAggregates@CCmdTarget@@UAEHXZ
	DD	FLAT:?GetInterfaceHook@CCmdTarget@@UAEPAUIUnknown@@PBX@Z
	DD	FLAT:?GetExtraConnectionPoints@CCmdTarget@@MAEHPAVCPtrArray@@@Z
	DD	FLAT:?GetConnectionHook@CCmdTarget@@MAEPAUIConnectionPoint@@ABU_GUID@@@Z
	DD	FLAT:?PreSubclassWindow@CWnd@@UAEXXZ
	DD	FLAT:?Create@CWnd@@UAEHPBD0KABUtagRECT@@PAV1@IPAUCCreateContext@@@Z
	DD	FLAT:?CreateEx@CWnd@@UAEHKPBD0KABUtagRECT@@PAV1@IPAX@Z
	DD	FLAT:?CreateEx@CWnd@@UAEHKPBD0KHHHHPAUHWND__@@PAUHMENU__@@PAX@Z
	DD	FLAT:?DestroyWindow@CWnd@@UAEHXZ
	DD	FLAT:?PreCreateWindow@CWnd@@UAEHAAUtagCREATESTRUCTA@@@Z
	DD	FLAT:?CalcWindowRect@CWnd@@UAEXPAUtagRECT@@I@Z
	DD	FLAT:?GetMenu@CWnd@@UBEPAVCMenu@@XZ
	DD	FLAT:?SetMenu@CWnd@@UAEHPAVCMenu@@@Z
	DD	FLAT:?OnToolHitTest@CWnd@@UBEHVCPoint@@PAUtagTOOLINFOA@@@Z
	DD	FLAT:?GetScrollBarCtrl@CWnd@@UBEPAVCScrollBar@@H@Z
	DD	FLAT:?WinHelpA@CWnd@@UAEXKI@Z
	DD	FLAT:?HtmlHelpA@CWnd@@UAEXKI@Z
	DD	FLAT:?WinHelpInternal@CWnd@@UAEXKI@Z
	DD	FLAT:?ContinueModal@CWnd@@UAEHXZ
	DD	FLAT:?EndModalLoop@CWnd@@UAEXH@Z
	DD	FLAT:?OnDrawIconicThumbnailOrLivePreview@CWnd@@UAEXAAVCDC@@VCRect@@VCSize@@HAAH@Z
	DD	FLAT:?EnsureStdObj@CWnd@@UAEJXZ
	DD	FLAT:?get_accParent@CWnd@@UAEJPAPAUIDispatch@@@Z
	DD	FLAT:?get_accChildCount@CWnd@@UAEJPAJ@Z
	DD	FLAT:?get_accChild@CWnd@@UAEJUtagVARIANT@@PAPAUIDispatch@@@Z
	DD	FLAT:?get_accName@CWnd@@UAEJUtagVARIANT@@PAPA_W@Z
	DD	FLAT:?get_accValue@CWnd@@UAEJUtagVARIANT@@PAPA_W@Z
	DD	FLAT:?get_accDescription@CWnd@@UAEJUtagVARIANT@@PAPA_W@Z
	DD	FLAT:?get_accRole@CWnd@@UAEJUtagVARIANT@@PAU2@@Z
	DD	FLAT:?get_accState@CWnd@@UAEJUtagVARIANT@@PAU2@@Z
	DD	FLAT:?get_accHelp@CWnd@@UAEJUtagVARIANT@@PAPA_W@Z
	DD	FLAT:?get_accHelpTopic@CWnd@@UAEJPAPA_WUtagVARIANT@@PAJ@Z
	DD	FLAT:?get_accKeyboardShortcut@CWnd@@UAEJUtagVARIANT@@PAPA_W@Z
	DD	FLAT:?get_accFocus@CWnd@@UAEJPAUtagVARIANT@@@Z
	DD	FLAT:?get_accSelection@CWnd@@UAEJPAUtagVARIANT@@@Z
	DD	FLAT:?get_accDefaultAction@CWnd@@UAEJUtagVARIANT@@PAPA_W@Z
	DD	FLAT:?accSelect@CWnd@@UAEJJUtagVARIANT@@@Z
	DD	FLAT:?accLocation@CWnd@@UAEJPAJ000UtagVARIANT@@@Z
	DD	FLAT:?accNavigate@CWnd@@UAEJJUtagVARIANT@@PAU2@@Z
	DD	FLAT:?accHitTest@CWnd@@UAEJJJPAUtagVARIANT@@@Z
	DD	FLAT:?accDoDefaultAction@CWnd@@UAEJUtagVARIANT@@@Z
	DD	FLAT:?put_accName@CWnd@@UAEJUtagVARIANT@@PA_W@Z
	DD	FLAT:?put_accValue@CWnd@@UAEJUtagVARIANT@@PA_W@Z
	DD	FLAT:?SetProxy@CWnd@@UAEJPAUIAccessibleProxy@@@Z
	DD	FLAT:?CreateAccessibleProxy@CWnd@@UAEJIJPAJ@Z
	DD	FLAT:?OnCommand@CWnd@@MAEHIJ@Z
	DD	FLAT:?OnNotify@CWnd@@MAEHIJPAJ@Z
	DD	FLAT:?GetSuperWndProcAddr@CWnd@@MAEPAP6GJPAUHWND__@@IIJ@ZXZ
	DD	FLAT:?DoDataExchange@CDlgAnalysis@@MAEXPAVCDataExchange@@@Z
	DD	FLAT:?BeginModalState@CWnd@@UAEXXZ
	DD	FLAT:?EndModalState@CWnd@@UAEXXZ
	DD	FLAT:?PreTranslateMessage@CDialog@@UAEHPAUtagMSG@@@Z
	DD	FLAT:?OnAmbientProperty@CWnd@@UAEHPAVCOleControlSite@@JPAUtagVARIANT@@@Z
	DD	FLAT:?WindowProc@CDlgAnalysis@@MAEJIIJ@Z
	DD	FLAT:?OnWndMsg@CWnd@@MAEHIIJPAJ@Z
	DD	FLAT:?DefWindowProcA@CWnd@@MAEJIIJ@Z
	DD	FLAT:?PostNcDestroy@CWnd@@MAEXXZ
	DD	FLAT:?OnChildNotify@CWnd@@MAEHIIJPAJ@Z
	DD	FLAT:?OnTouchInputs@CWnd@@MAEHIPAUtagTOUCHINPUT@@@Z
	DD	FLAT:?OnTouchInput@CWnd@@MAEHVCPoint@@HHPAUtagTOUCHINPUT@@@Z
	DD	FLAT:?GetGestureStatus@CWnd@@MAEKVCPoint@@@Z
	DD	FLAT:?OnGestureZoom@CWnd@@MAEHVCPoint@@J@Z
	DD	FLAT:?OnGesturePan@CWnd@@MAEHVCPoint@@0@Z
	DD	FLAT:?OnGestureRotate@CWnd@@MAEHVCPoint@@N@Z
	DD	FLAT:?OnGestureTwoFingerTap@CWnd@@MAEHVCPoint@@@Z
	DD	FLAT:?OnGesturePressAndTap@CWnd@@MAEHVCPoint@@J@Z
	DD	FLAT:?ResizeDynamicLayout@CWnd@@MAEXXZ
	DD	FLAT:?CheckAutoCenter@CDialog@@UAEHXZ
	DD	FLAT:?IsFrameWnd@CWnd@@UBEHXZ
	DD	FLAT:?CreateControlContainer@CWnd@@MAEHPAPAVCOleControlContainer@@@Z
	DD	FLAT:?CreateControlSite@CWnd@@MAEHPAVCOleControlContainer@@PAPAVCOleControlSite@@IABU_GUID@@@Z
	DD	FLAT:?SetOccDialogInfo@CDialog@@MAEHPAU_AFX_OCC_DIALOG_INFO@@@Z
	DD	FLAT:?GetOccDialogInfo@CDialog@@MAEPAU_AFX_OCC_DIALOG_INFO@@XZ
	DD	FLAT:?Create@CDialog@@UAEHIPAVCWnd@@@Z
	DD	FLAT:?Create@CDialog@@UAEHPBDPAVCWnd@@@Z
	DD	FLAT:?CreateIndirect@CDialog@@UAEHPAXPAVCWnd@@@Z
	DD	FLAT:?CreateIndirect@CDialog@@UAEHPBUDLGTEMPLATE@@PAVCWnd@@PAX@Z
	DD	FLAT:?DoModal@CDialog@@UAEHXZ
	DD	FLAT:?OnInitDialog@CDlgAnalysis@@MAEHXZ
	DD	FLAT:?OnSetFont@CDialog@@UAEXPAVCFont@@@Z
	DD	FLAT:?OnOK@CDialog@@MAEXXZ
	DD	FLAT:?OnCancel@CDialog@@MAEXXZ
	DD	FLAT:?PreInitDialog@CDialog@@MAEXXZ
CONST	ENDS
;	COMDAT ??_R2CDialog@@8
rdata$r	SEGMENT
??_R2CDialog@@8 DD FLAT:??_R1A@?0A@EA@CDialog@@8	; CDialog::`RTTI Base Class Array'
	DD	FLAT:??_R1A@?0A@EA@CWnd@@8
	DD	FLAT:??_R1A@?0A@EA@CCmdTarget@@8
	DD	FLAT:??_R1A@?0A@EA@CObject@@8
rdata$r	ENDS
;	COMDAT ??_R3CDialog@@8
rdata$r	SEGMENT
??_R3CDialog@@8 DD 00H					; CDialog::`RTTI Class Hierarchy Descriptor'
	DD	00H
	DD	04H
	DD	FLAT:??_R2CDialog@@8
rdata$r	ENDS
;	COMDAT ??_R0?AVCDialog@@@8
data$rs	SEGMENT
??_R0?AVCDialog@@@8 DD FLAT:??_7type_info@@6B@		; CDialog `RTTI Type Descriptor'
	DD	00H
	DB	'.?AVCDialog@@', 00H
data$rs	ENDS
;	COMDAT ??_R1A@?0A@EA@CDialog@@8
rdata$r	SEGMENT
??_R1A@?0A@EA@CDialog@@8 DD FLAT:??_R0?AVCDialog@@@8	; CDialog::`RTTI Base Class Descriptor at (0,-1,0,64)'
	DD	03H
	DD	00H
	DD	0ffffffffH
	DD	00H
	DD	040H
	DD	FLAT:??_R3CDialog@@8
rdata$r	ENDS
;	COMDAT ??_R2CCmdTarget@@8
rdata$r	SEGMENT
??_R2CCmdTarget@@8 DD FLAT:??_R1A@?0A@EA@CCmdTarget@@8	; CCmdTarget::`RTTI Base Class Array'
	DD	FLAT:??_R1A@?0A@EA@CObject@@8
rdata$r	ENDS
;	COMDAT ??_R3CCmdTarget@@8
rdata$r	SEGMENT
??_R3CCmdTarget@@8 DD 00H				; CCmdTarget::`RTTI Class Hierarchy Descriptor'
	DD	00H
	DD	02H
	DD	FLAT:??_R2CCmdTarget@@8
rdata$r	ENDS
;	COMDAT ??_R0?AVCCmdTarget@@@8
data$rs	SEGMENT
??_R0?AVCCmdTarget@@@8 DD FLAT:??_7type_info@@6B@	; CCmdTarget `RTTI Type Descriptor'
	DD	00H
	DB	'.?AVCCmdTarget@@', 00H
data$rs	ENDS
;	COMDAT ??_R1A@?0A@EA@CCmdTarget@@8
rdata$r	SEGMENT
??_R1A@?0A@EA@CCmdTarget@@8 DD FLAT:??_R0?AVCCmdTarget@@@8 ; CCmdTarget::`RTTI Base Class Descriptor at (0,-1,0,64)'
	DD	01H
	DD	00H
	DD	0ffffffffH
	DD	00H
	DD	040H
	DD	FLAT:??_R3CCmdTarget@@8
rdata$r	ENDS
;	COMDAT ??_R2CWnd@@8
rdata$r	SEGMENT
??_R2CWnd@@8 DD	FLAT:??_R1A@?0A@EA@CWnd@@8		; CWnd::`RTTI Base Class Array'
	DD	FLAT:??_R1A@?0A@EA@CCmdTarget@@8
	DD	FLAT:??_R1A@?0A@EA@CObject@@8
rdata$r	ENDS
;	COMDAT ??_R3CWnd@@8
rdata$r	SEGMENT
??_R3CWnd@@8 DD	00H					; CWnd::`RTTI Class Hierarchy Descriptor'
	DD	00H
	DD	03H
	DD	FLAT:??_R2CWnd@@8
rdata$r	ENDS
;	COMDAT ??_R0?AVCWnd@@@8
data$rs	SEGMENT
??_R0?AVCWnd@@@8 DD FLAT:??_7type_info@@6B@		; CWnd `RTTI Type Descriptor'
	DD	00H
	DB	'.?AVCWnd@@', 00H
data$rs	ENDS
;	COMDAT ??_R1A@?0A@EA@CWnd@@8
rdata$r	SEGMENT
??_R1A@?0A@EA@CWnd@@8 DD FLAT:??_R0?AVCWnd@@@8		; CWnd::`RTTI Base Class Descriptor at (0,-1,0,64)'
	DD	02H
	DD	00H
	DD	0ffffffffH
	DD	00H
	DD	040H
	DD	FLAT:??_R3CWnd@@8
rdata$r	ENDS
;	COMDAT ??_R1A@?0A@EA@CStatic@@8
rdata$r	SEGMENT
??_R1A@?0A@EA@CStatic@@8 DD FLAT:??_R0?AVCStatic@@@8	; CStatic::`RTTI Base Class Descriptor at (0,-1,0,64)'
	DD	03H
	DD	00H
	DD	0ffffffffH
	DD	00H
	DD	040H
	DD	FLAT:??_R3CStatic@@8
rdata$r	ENDS
;	COMDAT ??_R2CStatic@@8
rdata$r	SEGMENT
??_R2CStatic@@8 DD FLAT:??_R1A@?0A@EA@CStatic@@8	; CStatic::`RTTI Base Class Array'
	DD	FLAT:??_R1A@?0A@EA@CWnd@@8
	DD	FLAT:??_R1A@?0A@EA@CCmdTarget@@8
	DD	FLAT:??_R1A@?0A@EA@CObject@@8
rdata$r	ENDS
;	COMDAT ??_R3CStatic@@8
rdata$r	SEGMENT
??_R3CStatic@@8 DD 00H					; CStatic::`RTTI Class Hierarchy Descriptor'
	DD	00H
	DD	04H
	DD	FLAT:??_R2CStatic@@8
rdata$r	ENDS
;	COMDAT ??_R0?AVCStatic@@@8
data$rs	SEGMENT
??_R0?AVCStatic@@@8 DD FLAT:??_7type_info@@6B@		; CStatic `RTTI Type Descriptor'
	DD	00H
	DB	'.?AVCStatic@@', 00H
data$rs	ENDS
;	COMDAT ??_R4CStatic@@6B@
rdata$r	SEGMENT
??_R4CStatic@@6B@ DD 00H				; CStatic::`RTTI Complete Object Locator'
	DD	00H
	DD	00H
	DD	FLAT:??_R0?AVCStatic@@@8
	DD	FLAT:??_R3CStatic@@8
rdata$r	ENDS
;	COMDAT ??_R1A@?0A@EA@CFont@@8
rdata$r	SEGMENT
??_R1A@?0A@EA@CFont@@8 DD FLAT:??_R0?AVCFont@@@8	; CFont::`RTTI Base Class Descriptor at (0,-1,0,64)'
	DD	02H
	DD	00H
	DD	0ffffffffH
	DD	00H
	DD	040H
	DD	FLAT:??_R3CFont@@8
rdata$r	ENDS
;	COMDAT ??_R2CFont@@8
rdata$r	SEGMENT
??_R2CFont@@8 DD FLAT:??_R1A@?0A@EA@CFont@@8		; CFont::`RTTI Base Class Array'
	DD	FLAT:??_R1A@?0A@EA@CGdiObject@@8
	DD	FLAT:??_R1A@?0A@EA@CObject@@8
rdata$r	ENDS
;	COMDAT ??_R3CFont@@8
rdata$r	SEGMENT
??_R3CFont@@8 DD 00H					; CFont::`RTTI Class Hierarchy Descriptor'
	DD	00H
	DD	03H
	DD	FLAT:??_R2CFont@@8
rdata$r	ENDS
;	COMDAT ??_R0?AVCFont@@@8
data$rs	SEGMENT
??_R0?AVCFont@@@8 DD FLAT:??_7type_info@@6B@		; CFont `RTTI Type Descriptor'
	DD	00H
	DB	'.?AVCFont@@', 00H
data$rs	ENDS
;	COMDAT ??_R4CFont@@6B@
rdata$r	SEGMENT
??_R4CFont@@6B@ DD 00H					; CFont::`RTTI Complete Object Locator'
	DD	00H
	DD	00H
	DD	FLAT:??_R0?AVCFont@@@8
	DD	FLAT:??_R3CFont@@8
rdata$r	ENDS
;	COMDAT ??_R1A@?0A@EA@CBrush@@8
rdata$r	SEGMENT
??_R1A@?0A@EA@CBrush@@8 DD FLAT:??_R0?AVCBrush@@@8	; CBrush::`RTTI Base Class Descriptor at (0,-1,0,64)'
	DD	02H
	DD	00H
	DD	0ffffffffH
	DD	00H
	DD	040H
	DD	FLAT:??_R3CBrush@@8
rdata$r	ENDS
;	COMDAT ??_R2CBrush@@8
rdata$r	SEGMENT
??_R2CBrush@@8 DD FLAT:??_R1A@?0A@EA@CBrush@@8		; CBrush::`RTTI Base Class Array'
	DD	FLAT:??_R1A@?0A@EA@CGdiObject@@8
	DD	FLAT:??_R1A@?0A@EA@CObject@@8
rdata$r	ENDS
;	COMDAT ??_R3CBrush@@8
rdata$r	SEGMENT
??_R3CBrush@@8 DD 00H					; CBrush::`RTTI Class Hierarchy Descriptor'
	DD	00H
	DD	03H
	DD	FLAT:??_R2CBrush@@8
rdata$r	ENDS
;	COMDAT ??_R0?AVCBrush@@@8
data$rs	SEGMENT
??_R0?AVCBrush@@@8 DD FLAT:??_7type_info@@6B@		; CBrush `RTTI Type Descriptor'
	DD	00H
	DB	'.?AVCBrush@@', 00H
data$rs	ENDS
;	COMDAT ??_R4CBrush@@6B@
rdata$r	SEGMENT
??_R4CBrush@@6B@ DD 00H					; CBrush::`RTTI Complete Object Locator'
	DD	00H
	DD	00H
	DD	FLAT:??_R0?AVCBrush@@@8
	DD	FLAT:??_R3CBrush@@8
rdata$r	ENDS
;	COMDAT ??_R1A@?0A@EA@CGdiObject@@8
rdata$r	SEGMENT
??_R1A@?0A@EA@CGdiObject@@8 DD FLAT:??_R0?AVCGdiObject@@@8 ; CGdiObject::`RTTI Base Class Descriptor at (0,-1,0,64)'
	DD	01H
	DD	00H
	DD	0ffffffffH
	DD	00H
	DD	040H
	DD	FLAT:??_R3CGdiObject@@8
rdata$r	ENDS
;	COMDAT ??_R2CGdiObject@@8
rdata$r	SEGMENT
??_R2CGdiObject@@8 DD FLAT:??_R1A@?0A@EA@CGdiObject@@8	; CGdiObject::`RTTI Base Class Array'
	DD	FLAT:??_R1A@?0A@EA@CObject@@8
rdata$r	ENDS
;	COMDAT ??_R3CGdiObject@@8
rdata$r	SEGMENT
??_R3CGdiObject@@8 DD 00H				; CGdiObject::`RTTI Class Hierarchy Descriptor'
	DD	00H
	DD	02H
	DD	FLAT:??_R2CGdiObject@@8
rdata$r	ENDS
;	COMDAT ??_R0?AVCGdiObject@@@8
data$rs	SEGMENT
??_R0?AVCGdiObject@@@8 DD FLAT:??_7type_info@@6B@	; CGdiObject `RTTI Type Descriptor'
	DD	00H
	DB	'.?AVCGdiObject@@', 00H
data$rs	ENDS
;	COMDAT ??_R4CGdiObject@@6B@
rdata$r	SEGMENT
??_R4CGdiObject@@6B@ DD 00H				; CGdiObject::`RTTI Complete Object Locator'
	DD	00H
	DD	00H
	DD	FLAT:??_R0?AVCGdiObject@@@8
	DD	FLAT:??_R3CGdiObject@@8
rdata$r	ENDS
;	COMDAT ??_R1A@?0A@EA@CObject@@8
rdata$r	SEGMENT
??_R1A@?0A@EA@CObject@@8 DD FLAT:??_R0?AVCObject@@@8	; CObject::`RTTI Base Class Descriptor at (0,-1,0,64)'
	DD	00H
	DD	00H
	DD	0ffffffffH
	DD	00H
	DD	040H
	DD	FLAT:??_R3CObject@@8
rdata$r	ENDS
;	COMDAT ??_R2CObject@@8
rdata$r	SEGMENT
??_R2CObject@@8 DD FLAT:??_R1A@?0A@EA@CObject@@8	; CObject::`RTTI Base Class Array'
rdata$r	ENDS
;	COMDAT ??_R3CObject@@8
rdata$r	SEGMENT
??_R3CObject@@8 DD 00H					; CObject::`RTTI Class Hierarchy Descriptor'
	DD	00H
	DD	01H
	DD	FLAT:??_R2CObject@@8
rdata$r	ENDS
;	COMDAT ??_R0?AVCObject@@@8
data$rs	SEGMENT
??_R0?AVCObject@@@8 DD FLAT:??_7type_info@@6B@		; CObject `RTTI Type Descriptor'
	DD	00H
	DB	'.?AVCObject@@', 00H
data$rs	ENDS
;	COMDAT ??_C@_0N@OMEMOKLE@?$CFTs?5?$CI?$CFTs?3?$CFd?$CJ@
CONST	SEGMENT
??_C@_0N@OMEMOKLE@?$CFTs?5?$CI?$CFTs?3?$CFd?$CJ@ DB '%Ts (%Ts:%d)', 00H ; `string'
CONST	ENDS
;	COMDAT ??_C@_0BB@HBOOMJBF@?$CFTs?5?$CI?$CFTs?3?$CFd?$CJ?6?$CFTs@
CONST	SEGMENT
??_C@_0BB@HBOOMJBF@?$CFTs?5?$CI?$CFTs?3?$CFd?$CJ?6?$CFTs@ DB '%Ts (%Ts:%d'
	DB	')', 0aH, '%Ts', 00H				; `string'
CONST	ENDS
;	COMDAT ??_C@_0BP@OIEOKIDM@Exception?5thrown?5in?5destructor@
CONST	SEGMENT
??_C@_0BP@OIEOKIDM@Exception?5thrown?5in?5destructor@ DB 'Exception throw'
	DB	'n in destructor', 00H			; `string'
CONST	ENDS
;	COMDAT ??_C@_0HD@JJCHHHNK@C?3?2Program?5Files?5?$CIx86?$CJ?2Microsof@
CONST	SEGMENT
??_C@_0HD@JJCHHHNK@C?3?2Program?5Files?5?$CIx86?$CJ?2Microsof@ DB 'C:\Pro'
	DB	'gram Files (x86)\Microsoft Visual Studio\2019\Community\VC\To'
	DB	'ols\MSVC\14.29.30133\atlmfc\include\afxwin1.inl', 00H ; `string'
CONST	ENDS
;	COMDAT ??_7CStatic@@6B@
CONST	SEGMENT
??_7CStatic@@6B@ DD FLAT:??_R4CStatic@@6B@		; CStatic::`vftable'
	DD	FLAT:?GetRuntimeClass@CStatic@@UBEPAUCRuntimeClass@@XZ
	DD	FLAT:??_ECStatic@@UAEPAXI@Z
	DD	FLAT:?Serialize@CObject@@UAEXAAVCArchive@@@Z
	DD	FLAT:?AssertValid@CObject@@UBEXXZ
	DD	FLAT:?Dump@CObject@@UBEXAAVCDumpContext@@@Z
	DD	FLAT:?OnCmdMsg@CCmdTarget@@UAEHIHPAXPAUAFX_CMDHANDLERINFO@@@Z
	DD	FLAT:?OnFinalRelease@CWnd@@UAEXXZ
	DD	FLAT:?IsInvokeAllowed@CCmdTarget@@UAEHJ@Z
	DD	FLAT:?GetDispatchIID@CCmdTarget@@UAEHPAU_GUID@@@Z
	DD	FLAT:?GetTypeInfoCount@CCmdTarget@@UAEIXZ
	DD	FLAT:?GetTypeLibCache@CCmdTarget@@UAEPAVCTypeLibCache@@XZ
	DD	FLAT:?GetTypeLib@CCmdTarget@@UAEJKPAPAUITypeLib@@@Z
	DD	FLAT:?GetMessageMap@CWnd@@MBEPBUAFX_MSGMAP@@XZ
	DD	FLAT:?GetCommandMap@CCmdTarget@@MBEPBUAFX_OLECMDMAP@@XZ
	DD	FLAT:?GetDispatchMap@CCmdTarget@@MBEPBUAFX_DISPMAP@@XZ
	DD	FLAT:?GetConnectionMap@CCmdTarget@@MBEPBUAFX_CONNECTIONMAP@@XZ
	DD	FLAT:?GetInterfaceMap@CWnd@@MBEPBUAFX_INTERFACEMAP@@XZ
	DD	FLAT:?GetEventSinkMap@CCmdTarget@@MBEPBUAFX_EVENTSINKMAP@@XZ
	DD	FLAT:?OnCreateAggregates@CCmdTarget@@UAEHXZ
	DD	FLAT:?GetInterfaceHook@CCmdTarget@@UAEPAUIUnknown@@PBX@Z
	DD	FLAT:?GetExtraConnectionPoints@CCmdTarget@@MAEHPAVCPtrArray@@@Z
	DD	FLAT:?GetConnectionHook@CCmdTarget@@MAEPAUIConnectionPoint@@ABU_GUID@@@Z
	DD	FLAT:?PreSubclassWindow@CWnd@@UAEXXZ
	DD	FLAT:?Create@CWnd@@UAEHPBD0KABUtagRECT@@PAV1@IPAUCCreateContext@@@Z
	DD	FLAT:?CreateEx@CWnd@@UAEHKPBD0KABUtagRECT@@PAV1@IPAX@Z
	DD	FLAT:?CreateEx@CWnd@@UAEHKPBD0KHHHHPAUHWND__@@PAUHMENU__@@PAX@Z
	DD	FLAT:?DestroyWindow@CWnd@@UAEHXZ
	DD	FLAT:?PreCreateWindow@CWnd@@UAEHAAUtagCREATESTRUCTA@@@Z
	DD	FLAT:?CalcWindowRect@CWnd@@UAEXPAUtagRECT@@I@Z
	DD	FLAT:?GetMenu@CWnd@@UBEPAVCMenu@@XZ
	DD	FLAT:?SetMenu@CWnd@@UAEHPAVCMenu@@@Z
	DD	FLAT:?OnToolHitTest@CWnd@@UBEHVCPoint@@PAUtagTOOLINFOA@@@Z
	DD	FLAT:?GetScrollBarCtrl@CWnd@@UBEPAVCScrollBar@@H@Z
	DD	FLAT:?WinHelpA@CWnd@@UAEXKI@Z
	DD	FLAT:?HtmlHelpA@CWnd@@UAEXKI@Z
	DD	FLAT:?WinHelpInternal@CWnd@@UAEXKI@Z
	DD	FLAT:?ContinueModal@CWnd@@UAEHXZ
	DD	FLAT:?EndModalLoop@CWnd@@UAEXH@Z
	DD	FLAT:?OnDrawIconicThumbnailOrLivePreview@CWnd@@UAEXAAVCDC@@VCRect@@VCSize@@HAAH@Z
	DD	FLAT:?EnsureStdObj@CWnd@@UAEJXZ
	DD	FLAT:?get_accParent@CWnd@@UAEJPAPAUIDispatch@@@Z
	DD	FLAT:?get_accChildCount@CWnd@@UAEJPAJ@Z
	DD	FLAT:?get_accChild@CWnd@@UAEJUtagVARIANT@@PAPAUIDispatch@@@Z
	DD	FLAT:?get_accName@CWnd@@UAEJUtagVARIANT@@PAPA_W@Z
	DD	FLAT:?get_accValue@CWnd@@UAEJUtagVARIANT@@PAPA_W@Z
	DD	FLAT:?get_accDescription@CWnd@@UAEJUtagVARIANT@@PAPA_W@Z
	DD	FLAT:?get_accRole@CWnd@@UAEJUtagVARIANT@@PAU2@@Z
	DD	FLAT:?get_accState@CWnd@@UAEJUtagVARIANT@@PAU2@@Z
	DD	FLAT:?get_accHelp@CWnd@@UAEJUtagVARIANT@@PAPA_W@Z
	DD	FLAT:?get_accHelpTopic@CWnd@@UAEJPAPA_WUtagVARIANT@@PAJ@Z
	DD	FLAT:?get_accKeyboardShortcut@CWnd@@UAEJUtagVARIANT@@PAPA_W@Z
	DD	FLAT:?get_accFocus@CWnd@@UAEJPAUtagVARIANT@@@Z
	DD	FLAT:?get_accSelection@CWnd@@UAEJPAUtagVARIANT@@@Z
	DD	FLAT:?get_accDefaultAction@CWnd@@UAEJUtagVARIANT@@PAPA_W@Z
	DD	FLAT:?accSelect@CWnd@@UAEJJUtagVARIANT@@@Z
	DD	FLAT:?accLocation@CWnd@@UAEJPAJ000UtagVARIANT@@@Z
	DD	FLAT:?accNavigate@CWnd@@UAEJJUtagVARIANT@@PAU2@@Z
	DD	FLAT:?accHitTest@CWnd@@UAEJJJPAUtagVARIANT@@@Z
	DD	FLAT:?accDoDefaultAction@CWnd@@UAEJUtagVARIANT@@@Z
	DD	FLAT:?put_accName@CWnd@@UAEJUtagVARIANT@@PA_W@Z
	DD	FLAT:?put_accValue@CWnd@@UAEJUtagVARIANT@@PA_W@Z
	DD	FLAT:?SetProxy@CWnd@@UAEJPAUIAccessibleProxy@@@Z
	DD	FLAT:?CreateAccessibleProxy@CWnd@@UAEJIJPAJ@Z
	DD	FLAT:?OnCommand@CWnd@@MAEHIJ@Z
	DD	FLAT:?OnNotify@CWnd@@MAEHIJPAJ@Z
	DD	FLAT:?GetSuperWndProcAddr@CWnd@@MAEPAP6GJPAUHWND__@@IIJ@ZXZ
	DD	FLAT:?DoDataExchange@CWnd@@MAEXPAVCDataExchange@@@Z
	DD	FLAT:?BeginModalState@CWnd@@UAEXXZ
	DD	FLAT:?EndModalState@CWnd@@UAEXXZ
	DD	FLAT:?PreTranslateMessage@CWnd@@UAEHPAUtagMSG@@@Z
	DD	FLAT:?OnAmbientProperty@CWnd@@UAEHPAVCOleControlSite@@JPAUtagVARIANT@@@Z
	DD	FLAT:?WindowProc@CWnd@@MAEJIIJ@Z
	DD	FLAT:?OnWndMsg@CWnd@@MAEHIIJPAJ@Z
	DD	FLAT:?DefWindowProcA@CWnd@@MAEJIIJ@Z
	DD	FLAT:?PostNcDestroy@CWnd@@MAEXXZ
	DD	FLAT:?OnChildNotify@CStatic@@MAEHIIJPAJ@Z
	DD	FLAT:?OnTouchInputs@CWnd@@MAEHIPAUtagTOUCHINPUT@@@Z
	DD	FLAT:?OnTouchInput@CWnd@@MAEHVCPoint@@HHPAUtagTOUCHINPUT@@@Z
	DD	FLAT:?GetGestureStatus@CWnd@@MAEKVCPoint@@@Z
	DD	FLAT:?OnGestureZoom@CWnd@@MAEHVCPoint@@J@Z
	DD	FLAT:?OnGesturePan@CWnd@@MAEHVCPoint@@0@Z
	DD	FLAT:?OnGestureRotate@CWnd@@MAEHVCPoint@@N@Z
	DD	FLAT:?OnGestureTwoFingerTap@CWnd@@MAEHVCPoint@@@Z
	DD	FLAT:?OnGesturePressAndTap@CWnd@@MAEHVCPoint@@J@Z
	DD	FLAT:?ResizeDynamicLayout@CWnd@@MAEXXZ
	DD	FLAT:?CheckAutoCenter@CWnd@@UAEHXZ
	DD	FLAT:?IsFrameWnd@CWnd@@UBEHXZ
	DD	FLAT:?CreateControlContainer@CWnd@@MAEHPAPAVCOleControlContainer@@@Z
	DD	FLAT:?CreateControlSite@CWnd@@MAEHPAVCOleControlContainer@@PAPAVCOleControlSite@@IABU_GUID@@@Z
	DD	FLAT:?SetOccDialogInfo@CWnd@@MAEHPAU_AFX_OCC_DIALOG_INFO@@@Z
	DD	FLAT:?GetOccDialogInfo@CWnd@@MAEPAU_AFX_OCC_DIALOG_INFO@@XZ
	DD	FLAT:?Create@CStatic@@UAEHPBDKABUtagRECT@@PAVCWnd@@I@Z
	DD	FLAT:?DrawItem@CStatic@@UAEXPAUtagDRAWITEMSTRUCT@@@Z
CONST	ENDS
;	COMDAT ??_7CFont@@6B@
CONST	SEGMENT
??_7CFont@@6B@ DD FLAT:??_R4CFont@@6B@			; CFont::`vftable'
	DD	FLAT:?GetRuntimeClass@CFont@@UBEPAUCRuntimeClass@@XZ
	DD	FLAT:??_ECFont@@UAEPAXI@Z
	DD	FLAT:?Serialize@CObject@@UAEXAAVCArchive@@@Z
	DD	FLAT:?AssertValid@CObject@@UBEXXZ
	DD	FLAT:?Dump@CObject@@UBEXAAVCDumpContext@@@Z
CONST	ENDS
;	COMDAT ??_7CBrush@@6B@
CONST	SEGMENT
??_7CBrush@@6B@ DD FLAT:??_R4CBrush@@6B@		; CBrush::`vftable'
	DD	FLAT:?GetRuntimeClass@CBrush@@UBEPAUCRuntimeClass@@XZ
	DD	FLAT:??_ECBrush@@UAEPAXI@Z
	DD	FLAT:?Serialize@CObject@@UAEXAAVCArchive@@@Z
	DD	FLAT:?AssertValid@CObject@@UBEXXZ
	DD	FLAT:?Dump@CObject@@UBEXAAVCDumpContext@@@Z
CONST	ENDS
;	COMDAT ??_7CGdiObject@@6B@
CONST	SEGMENT
??_7CGdiObject@@6B@ DD FLAT:??_R4CGdiObject@@6B@	; CGdiObject::`vftable'
	DD	FLAT:?GetRuntimeClass@CGdiObject@@UBEPAUCRuntimeClass@@XZ
	DD	FLAT:??_ECGdiObject@@UAEPAXI@Z
	DD	FLAT:?Serialize@CObject@@UAEXAAVCArchive@@@Z
	DD	FLAT:?AssertValid@CObject@@UBEXXZ
	DD	FLAT:?Dump@CObject@@UBEXAAVCDumpContext@@@Z
CONST	ENDS
;	COMDAT ??_C@_00CNPNBAHC@@
CONST	SEGMENT
??_C@_00CNPNBAHC@@ DB 00H				; `string'
CONST	ENDS
;	COMDAT ??_C@_02DPKJAMEF@?$CFd@
CONST	SEGMENT
??_C@_02DPKJAMEF@?$CFd@ DB '%d', 00H			; `string'
CONST	ENDS
;	COMDAT ??_R0PAVCException@@@8
data$r	SEGMENT
??_R0PAVCException@@@8 DD FLAT:??_7type_info@@6B@	; CException * `RTTI Type Descriptor'
	DD	00H
	DB	'.PAVCException@@', 00H
data$r	ENDS
;	COMDAT xdata$x
xdata$x	SEGMENT
__ehfuncinfo$??1CMultiLanguageResourceSetter@@QAE@XZ DD 019930522H
	DD	00H
	DD	00H
	DD	2 DUP(00H)
	DD	2 DUP(00H)
	DD	00H
	DD	05H
xdata$x	ENDS
;	COMDAT xdata$x
xdata$x	SEGMENT
__unwindtable$?OnBtnEnvSetup@CDlgAnalysis@@IAEXXZ DD 0ffffffffH
	DD	FLAT:__unwindfunclet$?OnBtnEnvSetup@CDlgAnalysis@@IAEXXZ$0
	DD	00H
	DD	FLAT:__unwindfunclet$?OnBtnEnvSetup@CDlgAnalysis@@IAEXXZ$1
	DD	0ffffffffH
	DD	FLAT:___std_terminate
__ehfuncinfo$?OnBtnEnvSetup@CDlgAnalysis@@IAEXXZ DD 019930522H
	DD	03H
	DD	FLAT:__unwindtable$?OnBtnEnvSetup@CDlgAnalysis@@IAEXXZ
	DD	2 DUP(00H)
	DD	2 DUP(00H)
	DD	00H
	DD	01H
xdata$x	ENDS
;	COMDAT xdata$x
xdata$x	SEGMENT
__unwindtable$?OnInitDialog@CDlgAnalysis@@MAEHXZ DD 0ffffffffH
	DD	FLAT:__unwindfunclet$?OnInitDialog@CDlgAnalysis@@MAEHXZ$0
	DD	00H
	DD	FLAT:__unwindfunclet$?OnInitDialog@CDlgAnalysis@@MAEHXZ$1
	DD	01H
	DD	FLAT:__unwindfunclet$?OnInitDialog@CDlgAnalysis@@MAEHXZ$2
	DD	0ffffffffH
	DD	FLAT:___std_terminate
__ehfuncinfo$?OnInitDialog@CDlgAnalysis@@MAEHXZ DD 019930522H
	DD	04H
	DD	FLAT:__unwindtable$?OnInitDialog@CDlgAnalysis@@MAEHXZ
	DD	2 DUP(00H)
	DD	2 DUP(00H)
	DD	00H
	DD	01H
xdata$x	ENDS
;	COMDAT xdata$x
xdata$x	SEGMENT
__unwindtable$?WindowProc@CDlgAnalysis@@MAEJIIJ@Z DD 0ffffffffH
	DD	FLAT:__unwindfunclet$?WindowProc@CDlgAnalysis@@MAEJIIJ@Z$0
	DD	00H
	DD	FLAT:__unwindfunclet$?WindowProc@CDlgAnalysis@@MAEJIIJ@Z$1
	DD	01H
	DD	FLAT:__unwindfunclet$?WindowProc@CDlgAnalysis@@MAEJIIJ@Z$2
	DD	01H
	DD	FLAT:__unwindfunclet$?WindowProc@CDlgAnalysis@@MAEJIIJ@Z$3
__ehfuncinfo$?WindowProc@CDlgAnalysis@@MAEJIIJ@Z DD 019930522H
	DD	04H
	DD	FLAT:__unwindtable$?WindowProc@CDlgAnalysis@@MAEJIIJ@Z
	DD	2 DUP(00H)
	DD	2 DUP(00H)
	DD	00H
	DD	01H
xdata$x	ENDS
;	COMDAT xdata$x
xdata$x	SEGMENT
__ehfuncinfo$?SetShareData@CDlgAnalysis@@QAEXPAVCGridCtrl@@H@Z DD 019930522H
	DD	0cH
	DD	FLAT:__unwindtable$?SetShareData@CDlgAnalysis@@QAEXPAVCGridCtrl@@H@Z
	DD	2 DUP(00H)
	DD	2 DUP(00H)
	DD	00H
	DD	01H
__unwindtable$?SetShareData@CDlgAnalysis@@QAEXPAVCGridCtrl@@H@Z DD 0ffffffffH
	DD	FLAT:__unwindfunclet$?SetShareData@CDlgAnalysis@@QAEXPAVCGridCtrl@@H@Z$0
	DD	00H
	DD	FLAT:__unwindfunclet$?SetShareData@CDlgAnalysis@@QAEXPAVCGridCtrl@@H@Z$1
	DD	00H
	DD	FLAT:__unwindfunclet$?SetShareData@CDlgAnalysis@@QAEXPAVCGridCtrl@@H@Z$2
	DD	02H
	DD	FLAT:__unwindfunclet$?SetShareData@CDlgAnalysis@@QAEXPAVCGridCtrl@@H@Z$3
	DD	03H
	DD	FLAT:__unwindfunclet$?SetShareData@CDlgAnalysis@@QAEXPAVCGridCtrl@@H@Z$14
	DD	04H
	DD	FLAT:__unwindfunclet$?SetShareData@CDlgAnalysis@@QAEXPAVCGridCtrl@@H@Z$15
	DD	00H
	DD	FLAT:__unwindfunclet$?SetShareData@CDlgAnalysis@@QAEXPAVCGridCtrl@@H@Z$6
	DD	06H
	DD	FLAT:__unwindfunclet$?SetShareData@CDlgAnalysis@@QAEXPAVCGridCtrl@@H@Z$7
	DD	07H
	DD	FLAT:__unwindfunclet$?SetShareData@CDlgAnalysis@@QAEXPAVCGridCtrl@@H@Z$17
	DD	00H
	DD	FLAT:__unwindfunclet$?SetShareData@CDlgAnalysis@@QAEXPAVCGridCtrl@@H@Z$9
	DD	09H
	DD	FLAT:__unwindfunclet$?SetShareData@CDlgAnalysis@@QAEXPAVCGridCtrl@@H@Z$10
	DD	00H
	DD	FLAT:__unwindfunclet$?SetShareData@CDlgAnalysis@@QAEXPAVCGridCtrl@@H@Z$11
xdata$x	ENDS
;	COMDAT xdata$x
xdata$x	SEGMENT
__unwindtable$?GetSelectedCandlePatternData@CDlgAnalysis@@QAEXH@Z DD 0ffffffffH
	DD	FLAT:__unwindfunclet$?GetSelectedCandlePatternData@CDlgAnalysis@@QAEXH@Z$0
	DD	00H
	DD	FLAT:__unwindfunclet$?GetSelectedCandlePatternData@CDlgAnalysis@@QAEXH@Z$1
	DD	01H
	DD	FLAT:__unwindfunclet$?GetSelectedCandlePatternData@CDlgAnalysis@@QAEXH@Z$2
	DD	01H
	DD	FLAT:__unwindfunclet$?GetSelectedCandlePatternData@CDlgAnalysis@@QAEXH@Z$3
__ehfuncinfo$?GetSelectedCandlePatternData@CDlgAnalysis@@QAEXH@Z DD 019930522H
	DD	04H
	DD	FLAT:__unwindtable$?GetSelectedCandlePatternData@CDlgAnalysis@@QAEXH@Z
	DD	2 DUP(00H)
	DD	2 DUP(00H)
	DD	00H
	DD	01H
xdata$x	ENDS
;	COMDAT xdata$x
xdata$x	SEGMENT
__ehfuncinfo$?SetReportTitleBasicInfo@CDlgAnalysis@@QAEXNNH@Z DD 019930522H
	DD	056H
	DD	FLAT:__unwindtable$?SetReportTitleBasicInfo@CDlgAnalysis@@QAEXNNH@Z
	DD	2 DUP(00H)
	DD	2 DUP(00H)
	DD	00H
	DD	01H
__unwindtable$?SetReportTitleBasicInfo@CDlgAnalysis@@QAEXNNH@Z DD 0ffffffffH
	DD	FLAT:__unwindfunclet$?SetReportTitleBasicInfo@CDlgAnalysis@@QAEXNNH@Z$0
	DD	00H
	DD	FLAT:__unwindfunclet$?SetReportTitleBasicInfo@CDlgAnalysis@@QAEXNNH@Z$1
	DD	01H
	DD	FLAT:__unwindfunclet$?SetReportTitleBasicInfo@CDlgAnalysis@@QAEXNNH@Z$2
	DD	02H
	DD	FLAT:__unwindfunclet$?SetReportTitleBasicInfo@CDlgAnalysis@@QAEXNNH@Z$3
	DD	03H
	DD	FLAT:__unwindfunclet$?SetReportTitleBasicInfo@CDlgAnalysis@@QAEXNNH@Z$4
	DD	04H
	DD	FLAT:__unwindfunclet$?SetReportTitleBasicInfo@CDlgAnalysis@@QAEXNNH@Z$5
	DD	05H
	DD	FLAT:__unwindfunclet$?SetReportTitleBasicInfo@CDlgAnalysis@@QAEXNNH@Z$86
	DD	06H
	DD	FLAT:__unwindfunclet$?SetReportTitleBasicInfo@CDlgAnalysis@@QAEXNNH@Z$7
	DD	07H
	DD	FLAT:__unwindfunclet$?SetReportTitleBasicInfo@CDlgAnalysis@@QAEXNNH@Z$87
	DD	08H
	DD	FLAT:__unwindfunclet$?SetReportTitleBasicInfo@CDlgAnalysis@@QAEXNNH@Z$9
	DD	09H
	DD	FLAT:__unwindfunclet$?SetReportTitleBasicInfo@CDlgAnalysis@@QAEXNNH@Z$88
	DD	0aH
	DD	FLAT:__unwindfunclet$?SetReportTitleBasicInfo@CDlgAnalysis@@QAEXNNH@Z$11
	DD	01H
	DD	FLAT:__unwindfunclet$?SetReportTitleBasicInfo@CDlgAnalysis@@QAEXNNH@Z$12
	DD	0cH
	DD	FLAT:__unwindfunclet$?SetReportTitleBasicInfo@CDlgAnalysis@@QAEXNNH@Z$13
	DD	0dH
	DD	FLAT:__unwindfunclet$?SetReportTitleBasicInfo@CDlgAnalysis@@QAEXNNH@Z$14
	DD	0eH
	DD	FLAT:__unwindfunclet$?SetReportTitleBasicInfo@CDlgAnalysis@@QAEXNNH@Z$89
	DD	0fH
	DD	FLAT:__unwindfunclet$?SetReportTitleBasicInfo@CDlgAnalysis@@QAEXNNH@Z$90
	DD	010H
	DD	FLAT:__unwindfunclet$?SetReportTitleBasicInfo@CDlgAnalysis@@QAEXNNH@Z$91
	DD	011H
	DD	FLAT:__unwindfunclet$?SetReportTitleBasicInfo@CDlgAnalysis@@QAEXNNH@Z$92
	DD	01H
	DD	FLAT:__unwindfunclet$?SetReportTitleBasicInfo@CDlgAnalysis@@QAEXNNH@Z$19
	DD	013H
	DD	FLAT:__unwindfunclet$?SetReportTitleBasicInfo@CDlgAnalysis@@QAEXNNH@Z$20
	DD	014H
	DD	FLAT:__unwindfunclet$?SetReportTitleBasicInfo@CDlgAnalysis@@QAEXNNH@Z$21
	DD	015H
	DD	FLAT:__unwindfunclet$?SetReportTitleBasicInfo@CDlgAnalysis@@QAEXNNH@Z$22
	DD	016H
	DD	FLAT:__unwindfunclet$?SetReportTitleBasicInfo@CDlgAnalysis@@QAEXNNH@Z$93
	DD	017H
	DD	FLAT:__unwindfunclet$?SetReportTitleBasicInfo@CDlgAnalysis@@QAEXNNH@Z$94
	DD	018H
	DD	FLAT:__unwindfunclet$?SetReportTitleBasicInfo@CDlgAnalysis@@QAEXNNH@Z$25
	DD	019H
	DD	FLAT:__unwindfunclet$?SetReportTitleBasicInfo@CDlgAnalysis@@QAEXNNH@Z$95
	DD	01aH
	DD	FLAT:__unwindfunclet$?SetReportTitleBasicInfo@CDlgAnalysis@@QAEXNNH@Z$27
	DD	01bH
	DD	FLAT:__unwindfunclet$?SetReportTitleBasicInfo@CDlgAnalysis@@QAEXNNH@Z$96
	DD	01cH
	DD	FLAT:__unwindfunclet$?SetReportTitleBasicInfo@CDlgAnalysis@@QAEXNNH@Z$29
	DD	01H
	DD	FLAT:__unwindfunclet$?SetReportTitleBasicInfo@CDlgAnalysis@@QAEXNNH@Z$30
	DD	01eH
	DD	FLAT:__unwindfunclet$?SetReportTitleBasicInfo@CDlgAnalysis@@QAEXNNH@Z$31
	DD	01fH
	DD	FLAT:__unwindfunclet$?SetReportTitleBasicInfo@CDlgAnalysis@@QAEXNNH@Z$32
	DD	020H
	DD	FLAT:__unwindfunclet$?SetReportTitleBasicInfo@CDlgAnalysis@@QAEXNNH@Z$33
	DD	021H
	DD	FLAT:__unwindfunclet$?SetReportTitleBasicInfo@CDlgAnalysis@@QAEXNNH@Z$97
	DD	022H
	DD	FLAT:__unwindfunclet$?SetReportTitleBasicInfo@CDlgAnalysis@@QAEXNNH@Z$35
	DD	023H
	DD	FLAT:__unwindfunclet$?SetReportTitleBasicInfo@CDlgAnalysis@@QAEXNNH@Z$98
	DD	024H
	DD	FLAT:__unwindfunclet$?SetReportTitleBasicInfo@CDlgAnalysis@@QAEXNNH@Z$37
	DD	025H
	DD	FLAT:__unwindfunclet$?SetReportTitleBasicInfo@CDlgAnalysis@@QAEXNNH@Z$99
	DD	026H
	DD	FLAT:__unwindfunclet$?SetReportTitleBasicInfo@CDlgAnalysis@@QAEXNNH@Z$39
	DD	01H
	DD	FLAT:__unwindfunclet$?SetReportTitleBasicInfo@CDlgAnalysis@@QAEXNNH@Z$40
	DD	028H
	DD	FLAT:__unwindfunclet$?SetReportTitleBasicInfo@CDlgAnalysis@@QAEXNNH@Z$41
	DD	029H
	DD	FLAT:__unwindfunclet$?SetReportTitleBasicInfo@CDlgAnalysis@@QAEXNNH@Z$100
	DD	02aH
	DD	FLAT:__unwindfunclet$?SetReportTitleBasicInfo@CDlgAnalysis@@QAEXNNH@Z$43
	DD	01H
	DD	FLAT:__unwindfunclet$?SetReportTitleBasicInfo@CDlgAnalysis@@QAEXNNH@Z$44
	DD	02cH
	DD	FLAT:__unwindfunclet$?SetReportTitleBasicInfo@CDlgAnalysis@@QAEXNNH@Z$45
	DD	02dH
	DD	FLAT:__unwindfunclet$?SetReportTitleBasicInfo@CDlgAnalysis@@QAEXNNH@Z$46
	DD	02eH
	DD	FLAT:__unwindfunclet$?SetReportTitleBasicInfo@CDlgAnalysis@@QAEXNNH@Z$47
	DD	02fH
	DD	FLAT:__unwindfunclet$?SetReportTitleBasicInfo@CDlgAnalysis@@QAEXNNH@Z$101
	DD	030H
	DD	FLAT:__unwindfunclet$?SetReportTitleBasicInfo@CDlgAnalysis@@QAEXNNH@Z$49
	DD	031H
	DD	FLAT:__unwindfunclet$?SetReportTitleBasicInfo@CDlgAnalysis@@QAEXNNH@Z$102
	DD	032H
	DD	FLAT:__unwindfunclet$?SetReportTitleBasicInfo@CDlgAnalysis@@QAEXNNH@Z$51
	DD	033H
	DD	FLAT:__unwindfunclet$?SetReportTitleBasicInfo@CDlgAnalysis@@QAEXNNH@Z$103
	DD	034H
	DD	FLAT:__unwindfunclet$?SetReportTitleBasicInfo@CDlgAnalysis@@QAEXNNH@Z$53
	DD	01H
	DD	FLAT:__unwindfunclet$?SetReportTitleBasicInfo@CDlgAnalysis@@QAEXNNH@Z$54
	DD	036H
	DD	FLAT:__unwindfunclet$?SetReportTitleBasicInfo@CDlgAnalysis@@QAEXNNH@Z$55
	DD	037H
	DD	FLAT:__unwindfunclet$?SetReportTitleBasicInfo@CDlgAnalysis@@QAEXNNH@Z$56
	DD	038H
	DD	FLAT:__unwindfunclet$?SetReportTitleBasicInfo@CDlgAnalysis@@QAEXNNH@Z$104
	DD	039H
	DD	FLAT:__unwindfunclet$?SetReportTitleBasicInfo@CDlgAnalysis@@QAEXNNH@Z$105
	DD	03aH
	DD	FLAT:__unwindfunclet$?SetReportTitleBasicInfo@CDlgAnalysis@@QAEXNNH@Z$106
	DD	03bH
	DD	FLAT:__unwindfunclet$?SetReportTitleBasicInfo@CDlgAnalysis@@QAEXNNH@Z$107
	DD	01H
	DD	FLAT:__unwindfunclet$?SetReportTitleBasicInfo@CDlgAnalysis@@QAEXNNH@Z$61
	DD	03dH
	DD	FLAT:__unwindfunclet$?SetReportTitleBasicInfo@CDlgAnalysis@@QAEXNNH@Z$62
	DD	03eH
	DD	FLAT:__unwindfunclet$?SetReportTitleBasicInfo@CDlgAnalysis@@QAEXNNH@Z$63
	DD	03fH
	DD	FLAT:__unwindfunclet$?SetReportTitleBasicInfo@CDlgAnalysis@@QAEXNNH@Z$64
	DD	040H
	DD	FLAT:__unwindfunclet$?SetReportTitleBasicInfo@CDlgAnalysis@@QAEXNNH@Z$108
	DD	041H
	DD	FLAT:__unwindfunclet$?SetReportTitleBasicInfo@CDlgAnalysis@@QAEXNNH@Z$109
	DD	042H
	DD	FLAT:__unwindfunclet$?SetReportTitleBasicInfo@CDlgAnalysis@@QAEXNNH@Z$67
	DD	043H
	DD	FLAT:__unwindfunclet$?SetReportTitleBasicInfo@CDlgAnalysis@@QAEXNNH@Z$110
	DD	044H
	DD	FLAT:__unwindfunclet$?SetReportTitleBasicInfo@CDlgAnalysis@@QAEXNNH@Z$69
	DD	045H
	DD	FLAT:__unwindfunclet$?SetReportTitleBasicInfo@CDlgAnalysis@@QAEXNNH@Z$111
	DD	046H
	DD	FLAT:__unwindfunclet$?SetReportTitleBasicInfo@CDlgAnalysis@@QAEXNNH@Z$71
	DD	01H
	DD	FLAT:__unwindfunclet$?SetReportTitleBasicInfo@CDlgAnalysis@@QAEXNNH@Z$72
	DD	048H
	DD	FLAT:__unwindfunclet$?SetReportTitleBasicInfo@CDlgAnalysis@@QAEXNNH@Z$73
	DD	049H
	DD	FLAT:__unwindfunclet$?SetReportTitleBasicInfo@CDlgAnalysis@@QAEXNNH@Z$74
	DD	04aH
	DD	FLAT:__unwindfunclet$?SetReportTitleBasicInfo@CDlgAnalysis@@QAEXNNH@Z$75
	DD	04bH
	DD	FLAT:__unwindfunclet$?SetReportTitleBasicInfo@CDlgAnalysis@@QAEXNNH@Z$112
	DD	04cH
	DD	FLAT:__unwindfunclet$?SetReportTitleBasicInfo@CDlgAnalysis@@QAEXNNH@Z$77
	DD	04dH
	DD	FLAT:__unwindfunclet$?SetReportTitleBasicInfo@CDlgAnalysis@@QAEXNNH@Z$113
	DD	04eH
	DD	FLAT:__unwindfunclet$?SetReportTitleBasicInfo@CDlgAnalysis@@QAEXNNH@Z$79
	DD	04fH
	DD	FLAT:__unwindfunclet$?SetReportTitleBasicInfo@CDlgAnalysis@@QAEXNNH@Z$114
	DD	050H
	DD	FLAT:__unwindfunclet$?SetReportTitleBasicInfo@CDlgAnalysis@@QAEXNNH@Z$81
	DD	01H
	DD	FLAT:__unwindfunclet$?SetReportTitleBasicInfo@CDlgAnalysis@@QAEXNNH@Z$82
	DD	052H
	DD	FLAT:__unwindfunclet$?SetReportTitleBasicInfo@CDlgAnalysis@@QAEXNNH@Z$83
	DD	053H
	DD	FLAT:__unwindfunclet$?SetReportTitleBasicInfo@CDlgAnalysis@@QAEXNNH@Z$115
	DD	054H
	DD	FLAT:__unwindfunclet$?SetReportTitleBasicInfo@CDlgAnalysis@@QAEXNNH@Z$85
xdata$x	ENDS
;	COMDAT xdata$x
xdata$x	SEGMENT
__unwindtable$?InitInsertedGirdRow@CDlgAnalysis@@QAEXPAVCGridCtrl@@@Z DD 0ffffffffH
	DD	FLAT:__unwindfunclet$?InitInsertedGirdRow@CDlgAnalysis@@QAEXPAVCGridCtrl@@@Z$0
__ehfuncinfo$?InitInsertedGirdRow@CDlgAnalysis@@QAEXPAVCGridCtrl@@@Z DD 019930522H
	DD	01H
	DD	FLAT:__unwindtable$?InitInsertedGirdRow@CDlgAnalysis@@QAEXPAVCGridCtrl@@@Z
	DD	2 DUP(00H)
	DD	2 DUP(00H)
	DD	00H
	DD	01H
xdata$x	ENDS
;	COMDAT xdata$x
xdata$x	SEGMENT
__unwindtable$?InsertGridRow@CDlgAnalysis@@QAEXPAVCGridCtrl@@H@Z DD 0ffffffffH
	DD	FLAT:__unwindfunclet$?InsertGridRow@CDlgAnalysis@@QAEXPAVCGridCtrl@@H@Z$0
__ehfuncinfo$?InsertGridRow@CDlgAnalysis@@QAEXPAVCGridCtrl@@H@Z DD 019930522H
	DD	01H
	DD	FLAT:__unwindtable$?InsertGridRow@CDlgAnalysis@@QAEXPAVCGridCtrl@@H@Z
	DD	2 DUP(00H)
	DD	2 DUP(00H)
	DD	00H
	DD	01H
xdata$x	ENDS
;	COMDAT xdata$x
xdata$x	SEGMENT
__unwindtable$?SetPercentNColor@CDlgAnalysis@@QAEXPAVCGridCtrl@@HHN@Z DD 0ffffffffH
	DD	FLAT:__unwindfunclet$?SetPercentNColor@CDlgAnalysis@@QAEXPAVCGridCtrl@@HHN@Z$0
__ehfuncinfo$?SetPercentNColor@CDlgAnalysis@@QAEXPAVCGridCtrl@@HHN@Z DD 019930522H
	DD	01H
	DD	FLAT:__unwindtable$?SetPercentNColor@CDlgAnalysis@@QAEXPAVCGridCtrl@@HHN@Z
	DD	2 DUP(00H)
	DD	2 DUP(00H)
	DD	00H
	DD	01H
xdata$x	ENDS
;	COMDAT xdata$x
xdata$x	SEGMENT
__ehfuncinfo$?SetFoundCandlePtnToGrid_RptType1@CDlgAnalysis@@QAEXPAVCObject@@@Z DD 019930522H
	DD	042H
	DD	FLAT:__unwindtable$?SetFoundCandlePtnToGrid_RptType1@CDlgAnalysis@@QAEXPAVCObject@@@Z
	DD	2 DUP(00H)
	DD	2 DUP(00H)
	DD	00H
	DD	01H
__unwindtable$?SetFoundCandlePtnToGrid_RptType1@CDlgAnalysis@@QAEXPAVCObject@@@Z DD 0ffffffffH
	DD	FLAT:__unwindfunclet$?SetFoundCandlePtnToGrid_RptType1@CDlgAnalysis@@QAEXPAVCObject@@@Z$0
	DD	00H
	DD	FLAT:__unwindfunclet$?SetFoundCandlePtnToGrid_RptType1@CDlgAnalysis@@QAEXPAVCObject@@@Z$1
	DD	01H
	DD	FLAT:__unwindfunclet$?SetFoundCandlePtnToGrid_RptType1@CDlgAnalysis@@QAEXPAVCObject@@@Z$2
	DD	02H
	DD	FLAT:__unwindfunclet$?SetFoundCandlePtnToGrid_RptType1@CDlgAnalysis@@QAEXPAVCObject@@@Z$3
	DD	03H
	DD	FLAT:__unwindfunclet$?SetFoundCandlePtnToGrid_RptType1@CDlgAnalysis@@QAEXPAVCObject@@@Z$4
	DD	04H
	DD	FLAT:__unwindfunclet$?SetFoundCandlePtnToGrid_RptType1@CDlgAnalysis@@QAEXPAVCObject@@@Z$5
	DD	05H
	DD	FLAT:__unwindfunclet$?SetFoundCandlePtnToGrid_RptType1@CDlgAnalysis@@QAEXPAVCObject@@@Z$6
	DD	06H
	DD	FLAT:__unwindfunclet$?SetFoundCandlePtnToGrid_RptType1@CDlgAnalysis@@QAEXPAVCObject@@@Z$66
	DD	07H
	DD	FLAT:__unwindfunclet$?SetFoundCandlePtnToGrid_RptType1@CDlgAnalysis@@QAEXPAVCObject@@@Z$67
	DD	08H
	DD	FLAT:__unwindfunclet$?SetFoundCandlePtnToGrid_RptType1@CDlgAnalysis@@QAEXPAVCObject@@@Z$68
	DD	09H
	DD	FLAT:__unwindfunclet$?SetFoundCandlePtnToGrid_RptType1@CDlgAnalysis@@QAEXPAVCObject@@@Z$69
	DD	0aH
	DD	FLAT:__unwindfunclet$?SetFoundCandlePtnToGrid_RptType1@CDlgAnalysis@@QAEXPAVCObject@@@Z$70
	DD	0bH
	DD	FLAT:__unwindfunclet$?SetFoundCandlePtnToGrid_RptType1@CDlgAnalysis@@QAEXPAVCObject@@@Z$71
	DD	02H
	DD	FLAT:__unwindfunclet$?SetFoundCandlePtnToGrid_RptType1@CDlgAnalysis@@QAEXPAVCObject@@@Z$13
	DD	0dH
	DD	FLAT:__unwindfunclet$?SetFoundCandlePtnToGrid_RptType1@CDlgAnalysis@@QAEXPAVCObject@@@Z$14
	DD	0eH
	DD	FLAT:__unwindfunclet$?SetFoundCandlePtnToGrid_RptType1@CDlgAnalysis@@QAEXPAVCObject@@@Z$15
	DD	0fH
	DD	FLAT:__unwindfunclet$?SetFoundCandlePtnToGrid_RptType1@CDlgAnalysis@@QAEXPAVCObject@@@Z$72
	DD	010H
	DD	FLAT:__unwindfunclet$?SetFoundCandlePtnToGrid_RptType1@CDlgAnalysis@@QAEXPAVCObject@@@Z$73
	DD	011H
	DD	FLAT:__unwindfunclet$?SetFoundCandlePtnToGrid_RptType1@CDlgAnalysis@@QAEXPAVCObject@@@Z$74
	DD	012H
	DD	FLAT:__unwindfunclet$?SetFoundCandlePtnToGrid_RptType1@CDlgAnalysis@@QAEXPAVCObject@@@Z$75
	DD	02H
	DD	FLAT:__unwindfunclet$?SetFoundCandlePtnToGrid_RptType1@CDlgAnalysis@@QAEXPAVCObject@@@Z$20
	DD	014H
	DD	FLAT:__unwindfunclet$?SetFoundCandlePtnToGrid_RptType1@CDlgAnalysis@@QAEXPAVCObject@@@Z$21
	DD	015H
	DD	FLAT:__unwindfunclet$?SetFoundCandlePtnToGrid_RptType1@CDlgAnalysis@@QAEXPAVCObject@@@Z$22
	DD	016H
	DD	FLAT:__unwindfunclet$?SetFoundCandlePtnToGrid_RptType1@CDlgAnalysis@@QAEXPAVCObject@@@Z$23
	DD	017H
	DD	FLAT:__unwindfunclet$?SetFoundCandlePtnToGrid_RptType1@CDlgAnalysis@@QAEXPAVCObject@@@Z$76
	DD	018H
	DD	FLAT:__unwindfunclet$?SetFoundCandlePtnToGrid_RptType1@CDlgAnalysis@@QAEXPAVCObject@@@Z$77
	DD	019H
	DD	FLAT:__unwindfunclet$?SetFoundCandlePtnToGrid_RptType1@CDlgAnalysis@@QAEXPAVCObject@@@Z$78
	DD	01aH
	DD	FLAT:__unwindfunclet$?SetFoundCandlePtnToGrid_RptType1@CDlgAnalysis@@QAEXPAVCObject@@@Z$79
	DD	01bH
	DD	FLAT:__unwindfunclet$?SetFoundCandlePtnToGrid_RptType1@CDlgAnalysis@@QAEXPAVCObject@@@Z$80
	DD	01cH
	DD	FLAT:__unwindfunclet$?SetFoundCandlePtnToGrid_RptType1@CDlgAnalysis@@QAEXPAVCObject@@@Z$81
	DD	01dH
	DD	FLAT:__unwindfunclet$?SetFoundCandlePtnToGrid_RptType1@CDlgAnalysis@@QAEXPAVCObject@@@Z$82
	DD	02H
	DD	FLAT:__unwindfunclet$?SetFoundCandlePtnToGrid_RptType1@CDlgAnalysis@@QAEXPAVCObject@@@Z$31
	DD	01fH
	DD	FLAT:__unwindfunclet$?SetFoundCandlePtnToGrid_RptType1@CDlgAnalysis@@QAEXPAVCObject@@@Z$32
	DD	020H
	DD	FLAT:__unwindfunclet$?SetFoundCandlePtnToGrid_RptType1@CDlgAnalysis@@QAEXPAVCObject@@@Z$33
	DD	021H
	DD	FLAT:__unwindfunclet$?SetFoundCandlePtnToGrid_RptType1@CDlgAnalysis@@QAEXPAVCObject@@@Z$83
	DD	022H
	DD	FLAT:__unwindfunclet$?SetFoundCandlePtnToGrid_RptType1@CDlgAnalysis@@QAEXPAVCObject@@@Z$84
	DD	023H
	DD	FLAT:__unwindfunclet$?SetFoundCandlePtnToGrid_RptType1@CDlgAnalysis@@QAEXPAVCObject@@@Z$85
	DD	024H
	DD	FLAT:__unwindfunclet$?SetFoundCandlePtnToGrid_RptType1@CDlgAnalysis@@QAEXPAVCObject@@@Z$86
	DD	02H
	DD	FLAT:__unwindfunclet$?SetFoundCandlePtnToGrid_RptType1@CDlgAnalysis@@QAEXPAVCObject@@@Z$38
	DD	026H
	DD	FLAT:__unwindfunclet$?SetFoundCandlePtnToGrid_RptType1@CDlgAnalysis@@QAEXPAVCObject@@@Z$39
	DD	027H
	DD	FLAT:__unwindfunclet$?SetFoundCandlePtnToGrid_RptType1@CDlgAnalysis@@QAEXPAVCObject@@@Z$87
	DD	028H
	DD	FLAT:__unwindfunclet$?SetFoundCandlePtnToGrid_RptType1@CDlgAnalysis@@QAEXPAVCObject@@@Z$88
	DD	029H
	DD	FLAT:__unwindfunclet$?SetFoundCandlePtnToGrid_RptType1@CDlgAnalysis@@QAEXPAVCObject@@@Z$89
	DD	02H
	DD	FLAT:__unwindfunclet$?SetFoundCandlePtnToGrid_RptType1@CDlgAnalysis@@QAEXPAVCObject@@@Z$43
	DD	02bH
	DD	FLAT:__unwindfunclet$?SetFoundCandlePtnToGrid_RptType1@CDlgAnalysis@@QAEXPAVCObject@@@Z$44
	DD	02cH
	DD	FLAT:__unwindfunclet$?SetFoundCandlePtnToGrid_RptType1@CDlgAnalysis@@QAEXPAVCObject@@@Z$45
	DD	02dH
	DD	FLAT:__unwindfunclet$?SetFoundCandlePtnToGrid_RptType1@CDlgAnalysis@@QAEXPAVCObject@@@Z$90
	DD	02eH
	DD	FLAT:__unwindfunclet$?SetFoundCandlePtnToGrid_RptType1@CDlgAnalysis@@QAEXPAVCObject@@@Z$91
	DD	02fH
	DD	FLAT:__unwindfunclet$?SetFoundCandlePtnToGrid_RptType1@CDlgAnalysis@@QAEXPAVCObject@@@Z$92
	DD	030H
	DD	FLAT:__unwindfunclet$?SetFoundCandlePtnToGrid_RptType1@CDlgAnalysis@@QAEXPAVCObject@@@Z$93
	DD	031H
	DD	FLAT:__unwindfunclet$?SetFoundCandlePtnToGrid_RptType1@CDlgAnalysis@@QAEXPAVCObject@@@Z$94
	DD	02H
	DD	FLAT:__unwindfunclet$?SetFoundCandlePtnToGrid_RptType1@CDlgAnalysis@@QAEXPAVCObject@@@Z$51
	DD	033H
	DD	FLAT:__unwindfunclet$?SetFoundCandlePtnToGrid_RptType1@CDlgAnalysis@@QAEXPAVCObject@@@Z$52
	DD	034H
	DD	FLAT:__unwindfunclet$?SetFoundCandlePtnToGrid_RptType1@CDlgAnalysis@@QAEXPAVCObject@@@Z$53
	DD	035H
	DD	FLAT:__unwindfunclet$?SetFoundCandlePtnToGrid_RptType1@CDlgAnalysis@@QAEXPAVCObject@@@Z$54
	DD	036H
	DD	FLAT:__unwindfunclet$?SetFoundCandlePtnToGrid_RptType1@CDlgAnalysis@@QAEXPAVCObject@@@Z$55
	DD	037H
	DD	FLAT:__unwindfunclet$?SetFoundCandlePtnToGrid_RptType1@CDlgAnalysis@@QAEXPAVCObject@@@Z$95
	DD	038H
	DD	FLAT:__unwindfunclet$?SetFoundCandlePtnToGrid_RptType1@CDlgAnalysis@@QAEXPAVCObject@@@Z$96
	DD	039H
	DD	FLAT:__unwindfunclet$?SetFoundCandlePtnToGrid_RptType1@CDlgAnalysis@@QAEXPAVCObject@@@Z$97
	DD	03aH
	DD	FLAT:__unwindfunclet$?SetFoundCandlePtnToGrid_RptType1@CDlgAnalysis@@QAEXPAVCObject@@@Z$98
	DD	03bH
	DD	FLAT:__unwindfunclet$?SetFoundCandlePtnToGrid_RptType1@CDlgAnalysis@@QAEXPAVCObject@@@Z$99
	DD	03cH
	DD	FLAT:__unwindfunclet$?SetFoundCandlePtnToGrid_RptType1@CDlgAnalysis@@QAEXPAVCObject@@@Z$100
	DD	03dH
	DD	FLAT:__unwindfunclet$?SetFoundCandlePtnToGrid_RptType1@CDlgAnalysis@@QAEXPAVCObject@@@Z$101
	DD	03eH
	DD	FLAT:__unwindfunclet$?SetFoundCandlePtnToGrid_RptType1@CDlgAnalysis@@QAEXPAVCObject@@@Z$102
	DD	02H
	DD	FLAT:__unwindfunclet$?SetFoundCandlePtnToGrid_RptType1@CDlgAnalysis@@QAEXPAVCObject@@@Z$64
	DD	02H
	DD	FLAT:__unwindfunclet$?SetFoundCandlePtnToGrid_RptType1@CDlgAnalysis@@QAEXPAVCObject@@@Z$65
xdata$x	ENDS
;	COMDAT xdata$x
xdata$x	SEGMENT
__unwindtable$?InitGridFormat_CandleRptType1@CDlgAnalysis@@QAEXXZ DD 0ffffffffH
	DD	FLAT:__unwindfunclet$?InitGridFormat_CandleRptType1@CDlgAnalysis@@QAEXXZ$0
	DD	00H
	DD	FLAT:__unwindfunclet$?InitGridFormat_CandleRptType1@CDlgAnalysis@@QAEXXZ$1
__ehfuncinfo$?InitGridFormat_CandleRptType1@CDlgAnalysis@@QAEXXZ DD 019930522H
	DD	02H
	DD	FLAT:__unwindtable$?InitGridFormat_CandleRptType1@CDlgAnalysis@@QAEXXZ
	DD	2 DUP(00H)
	DD	2 DUP(00H)
	DD	00H
	DD	01H
xdata$x	ENDS
;	COMDAT xdata$x
xdata$x	SEGMENT
__catchsym$?InitGridRowCol_CandleRptType1@CDlgAnalysis@@QAEXXZ$2 DD 00H
	DD	FLAT:??_R0PAVCMemoryException@@@8
	DD	0ffffffecH
	DD	FLAT:__catch$?InitGridRowCol_CandleRptType1@CDlgAnalysis@@QAEXXZ$0
__unwindtable$?InitGridRowCol_CandleRptType1@CDlgAnalysis@@QAEXXZ DD 0ffffffffH
	DD	00H
	DD	0ffffffffH
	DD	00H
__tryblocktable$?InitGridRowCol_CandleRptType1@CDlgAnalysis@@QAEXXZ DD 00H
	DD	00H
	DD	01H
	DD	01H
	DD	FLAT:__catchsym$?InitGridRowCol_CandleRptType1@CDlgAnalysis@@QAEXXZ$2
__ehfuncinfo$?InitGridRowCol_CandleRptType1@CDlgAnalysis@@QAEXXZ DD 019930522H
	DD	02H
	DD	FLAT:__unwindtable$?InitGridRowCol_CandleRptType1@CDlgAnalysis@@QAEXXZ
	DD	01H
	DD	FLAT:__tryblocktable$?InitGridRowCol_CandleRptType1@CDlgAnalysis@@QAEXXZ
	DD	2 DUP(00H)
	DD	00H
	DD	01H
xdata$x	ENDS
;	COMDAT xdata$x
xdata$x	SEGMENT
__unwindtable$?InitGrid_CandleRptType1@CDlgAnalysis@@QAEXXZ DD 0ffffffffH
	DD	FLAT:__unwindfunclet$?InitGrid_CandleRptType1@CDlgAnalysis@@QAEXXZ$0
__ehfuncinfo$?InitGrid_CandleRptType1@CDlgAnalysis@@QAEXXZ DD 019930522H
	DD	01H
	DD	FLAT:__unwindtable$?InitGrid_CandleRptType1@CDlgAnalysis@@QAEXXZ
	DD	2 DUP(00H)
	DD	2 DUP(00H)
	DD	00H
	DD	01H
xdata$x	ENDS
;	COMDAT xdata$x
xdata$x	SEGMENT
__ehfuncinfo$?SetFoundWavePtnToGrid_RptType1@CDlgAnalysis@@QAEXPAVCObject@@PAN11H@Z DD 019930522H
	DD	042H
	DD	FLAT:__unwindtable$?SetFoundWavePtnToGrid_RptType1@CDlgAnalysis@@QAEXPAVCObject@@PAN11H@Z
	DD	2 DUP(00H)
	DD	2 DUP(00H)
	DD	00H
	DD	01H
__unwindtable$?SetFoundWavePtnToGrid_RptType1@CDlgAnalysis@@QAEXPAVCObject@@PAN11H@Z DD 0ffffffffH
	DD	FLAT:__unwindfunclet$?SetFoundWavePtnToGrid_RptType1@CDlgAnalysis@@QAEXPAVCObject@@PAN11H@Z$0
	DD	00H
	DD	FLAT:__unwindfunclet$?SetFoundWavePtnToGrid_RptType1@CDlgAnalysis@@QAEXPAVCObject@@PAN11H@Z$1
	DD	01H
	DD	FLAT:__unwindfunclet$?SetFoundWavePtnToGrid_RptType1@CDlgAnalysis@@QAEXPAVCObject@@PAN11H@Z$2
	DD	02H
	DD	FLAT:__unwindfunclet$?SetFoundWavePtnToGrid_RptType1@CDlgAnalysis@@QAEXPAVCObject@@PAN11H@Z$3
	DD	03H
	DD	FLAT:__unwindfunclet$?SetFoundWavePtnToGrid_RptType1@CDlgAnalysis@@QAEXPAVCObject@@PAN11H@Z$4
	DD	04H
	DD	FLAT:__unwindfunclet$?SetFoundWavePtnToGrid_RptType1@CDlgAnalysis@@QAEXPAVCObject@@PAN11H@Z$5
	DD	05H
	DD	FLAT:__unwindfunclet$?SetFoundWavePtnToGrid_RptType1@CDlgAnalysis@@QAEXPAVCObject@@PAN11H@Z$6
	DD	06H
	DD	FLAT:__unwindfunclet$?SetFoundWavePtnToGrid_RptType1@CDlgAnalysis@@QAEXPAVCObject@@PAN11H@Z$66
	DD	07H
	DD	FLAT:__unwindfunclet$?SetFoundWavePtnToGrid_RptType1@CDlgAnalysis@@QAEXPAVCObject@@PAN11H@Z$67
	DD	08H
	DD	FLAT:__unwindfunclet$?SetFoundWavePtnToGrid_RptType1@CDlgAnalysis@@QAEXPAVCObject@@PAN11H@Z$68
	DD	09H
	DD	FLAT:__unwindfunclet$?SetFoundWavePtnToGrid_RptType1@CDlgAnalysis@@QAEXPAVCObject@@PAN11H@Z$69
	DD	0aH
	DD	FLAT:__unwindfunclet$?SetFoundWavePtnToGrid_RptType1@CDlgAnalysis@@QAEXPAVCObject@@PAN11H@Z$70
	DD	0bH
	DD	FLAT:__unwindfunclet$?SetFoundWavePtnToGrid_RptType1@CDlgAnalysis@@QAEXPAVCObject@@PAN11H@Z$71
	DD	02H
	DD	FLAT:__unwindfunclet$?SetFoundWavePtnToGrid_RptType1@CDlgAnalysis@@QAEXPAVCObject@@PAN11H@Z$13
	DD	0dH
	DD	FLAT:__unwindfunclet$?SetFoundWavePtnToGrid_RptType1@CDlgAnalysis@@QAEXPAVCObject@@PAN11H@Z$14
	DD	0eH
	DD	FLAT:__unwindfunclet$?SetFoundWavePtnToGrid_RptType1@CDlgAnalysis@@QAEXPAVCObject@@PAN11H@Z$15
	DD	0fH
	DD	FLAT:__unwindfunclet$?SetFoundWavePtnToGrid_RptType1@CDlgAnalysis@@QAEXPAVCObject@@PAN11H@Z$72
	DD	010H
	DD	FLAT:__unwindfunclet$?SetFoundWavePtnToGrid_RptType1@CDlgAnalysis@@QAEXPAVCObject@@PAN11H@Z$73
	DD	011H
	DD	FLAT:__unwindfunclet$?SetFoundWavePtnToGrid_RptType1@CDlgAnalysis@@QAEXPAVCObject@@PAN11H@Z$74
	DD	012H
	DD	FLAT:__unwindfunclet$?SetFoundWavePtnToGrid_RptType1@CDlgAnalysis@@QAEXPAVCObject@@PAN11H@Z$75
	DD	02H
	DD	FLAT:__unwindfunclet$?SetFoundWavePtnToGrid_RptType1@CDlgAnalysis@@QAEXPAVCObject@@PAN11H@Z$20
	DD	014H
	DD	FLAT:__unwindfunclet$?SetFoundWavePtnToGrid_RptType1@CDlgAnalysis@@QAEXPAVCObject@@PAN11H@Z$21
	DD	015H
	DD	FLAT:__unwindfunclet$?SetFoundWavePtnToGrid_RptType1@CDlgAnalysis@@QAEXPAVCObject@@PAN11H@Z$22
	DD	016H
	DD	FLAT:__unwindfunclet$?SetFoundWavePtnToGrid_RptType1@CDlgAnalysis@@QAEXPAVCObject@@PAN11H@Z$23
	DD	017H
	DD	FLAT:__unwindfunclet$?SetFoundWavePtnToGrid_RptType1@CDlgAnalysis@@QAEXPAVCObject@@PAN11H@Z$76
	DD	018H
	DD	FLAT:__unwindfunclet$?SetFoundWavePtnToGrid_RptType1@CDlgAnalysis@@QAEXPAVCObject@@PAN11H@Z$77
	DD	019H
	DD	FLAT:__unwindfunclet$?SetFoundWavePtnToGrid_RptType1@CDlgAnalysis@@QAEXPAVCObject@@PAN11H@Z$78
	DD	01aH
	DD	FLAT:__unwindfunclet$?SetFoundWavePtnToGrid_RptType1@CDlgAnalysis@@QAEXPAVCObject@@PAN11H@Z$79
	DD	01bH
	DD	FLAT:__unwindfunclet$?SetFoundWavePtnToGrid_RptType1@CDlgAnalysis@@QAEXPAVCObject@@PAN11H@Z$80
	DD	01cH
	DD	FLAT:__unwindfunclet$?SetFoundWavePtnToGrid_RptType1@CDlgAnalysis@@QAEXPAVCObject@@PAN11H@Z$81
	DD	01dH
	DD	FLAT:__unwindfunclet$?SetFoundWavePtnToGrid_RptType1@CDlgAnalysis@@QAEXPAVCObject@@PAN11H@Z$82
	DD	02H
	DD	FLAT:__unwindfunclet$?SetFoundWavePtnToGrid_RptType1@CDlgAnalysis@@QAEXPAVCObject@@PAN11H@Z$31
	DD	01fH
	DD	FLAT:__unwindfunclet$?SetFoundWavePtnToGrid_RptType1@CDlgAnalysis@@QAEXPAVCObject@@PAN11H@Z$32
	DD	020H
	DD	FLAT:__unwindfunclet$?SetFoundWavePtnToGrid_RptType1@CDlgAnalysis@@QAEXPAVCObject@@PAN11H@Z$33
	DD	021H
	DD	FLAT:__unwindfunclet$?SetFoundWavePtnToGrid_RptType1@CDlgAnalysis@@QAEXPAVCObject@@PAN11H@Z$83
	DD	022H
	DD	FLAT:__unwindfunclet$?SetFoundWavePtnToGrid_RptType1@CDlgAnalysis@@QAEXPAVCObject@@PAN11H@Z$84
	DD	023H
	DD	FLAT:__unwindfunclet$?SetFoundWavePtnToGrid_RptType1@CDlgAnalysis@@QAEXPAVCObject@@PAN11H@Z$85
	DD	024H
	DD	FLAT:__unwindfunclet$?SetFoundWavePtnToGrid_RptType1@CDlgAnalysis@@QAEXPAVCObject@@PAN11H@Z$86
	DD	02H
	DD	FLAT:__unwindfunclet$?SetFoundWavePtnToGrid_RptType1@CDlgAnalysis@@QAEXPAVCObject@@PAN11H@Z$38
	DD	026H
	DD	FLAT:__unwindfunclet$?SetFoundWavePtnToGrid_RptType1@CDlgAnalysis@@QAEXPAVCObject@@PAN11H@Z$39
	DD	027H
	DD	FLAT:__unwindfunclet$?SetFoundWavePtnToGrid_RptType1@CDlgAnalysis@@QAEXPAVCObject@@PAN11H@Z$87
	DD	028H
	DD	FLAT:__unwindfunclet$?SetFoundWavePtnToGrid_RptType1@CDlgAnalysis@@QAEXPAVCObject@@PAN11H@Z$88
	DD	029H
	DD	FLAT:__unwindfunclet$?SetFoundWavePtnToGrid_RptType1@CDlgAnalysis@@QAEXPAVCObject@@PAN11H@Z$89
	DD	02H
	DD	FLAT:__unwindfunclet$?SetFoundWavePtnToGrid_RptType1@CDlgAnalysis@@QAEXPAVCObject@@PAN11H@Z$43
	DD	02bH
	DD	FLAT:__unwindfunclet$?SetFoundWavePtnToGrid_RptType1@CDlgAnalysis@@QAEXPAVCObject@@PAN11H@Z$44
	DD	02cH
	DD	FLAT:__unwindfunclet$?SetFoundWavePtnToGrid_RptType1@CDlgAnalysis@@QAEXPAVCObject@@PAN11H@Z$45
	DD	02dH
	DD	FLAT:__unwindfunclet$?SetFoundWavePtnToGrid_RptType1@CDlgAnalysis@@QAEXPAVCObject@@PAN11H@Z$90
	DD	02eH
	DD	FLAT:__unwindfunclet$?SetFoundWavePtnToGrid_RptType1@CDlgAnalysis@@QAEXPAVCObject@@PAN11H@Z$91
	DD	02fH
	DD	FLAT:__unwindfunclet$?SetFoundWavePtnToGrid_RptType1@CDlgAnalysis@@QAEXPAVCObject@@PAN11H@Z$92
	DD	030H
	DD	FLAT:__unwindfunclet$?SetFoundWavePtnToGrid_RptType1@CDlgAnalysis@@QAEXPAVCObject@@PAN11H@Z$93
	DD	031H
	DD	FLAT:__unwindfunclet$?SetFoundWavePtnToGrid_RptType1@CDlgAnalysis@@QAEXPAVCObject@@PAN11H@Z$94
	DD	02H
	DD	FLAT:__unwindfunclet$?SetFoundWavePtnToGrid_RptType1@CDlgAnalysis@@QAEXPAVCObject@@PAN11H@Z$51
	DD	033H
	DD	FLAT:__unwindfunclet$?SetFoundWavePtnToGrid_RptType1@CDlgAnalysis@@QAEXPAVCObject@@PAN11H@Z$52
	DD	034H
	DD	FLAT:__unwindfunclet$?SetFoundWavePtnToGrid_RptType1@CDlgAnalysis@@QAEXPAVCObject@@PAN11H@Z$53
	DD	035H
	DD	FLAT:__unwindfunclet$?SetFoundWavePtnToGrid_RptType1@CDlgAnalysis@@QAEXPAVCObject@@PAN11H@Z$54
	DD	036H
	DD	FLAT:__unwindfunclet$?SetFoundWavePtnToGrid_RptType1@CDlgAnalysis@@QAEXPAVCObject@@PAN11H@Z$55
	DD	037H
	DD	FLAT:__unwindfunclet$?SetFoundWavePtnToGrid_RptType1@CDlgAnalysis@@QAEXPAVCObject@@PAN11H@Z$95
	DD	038H
	DD	FLAT:__unwindfunclet$?SetFoundWavePtnToGrid_RptType1@CDlgAnalysis@@QAEXPAVCObject@@PAN11H@Z$96
	DD	039H
	DD	FLAT:__unwindfunclet$?SetFoundWavePtnToGrid_RptType1@CDlgAnalysis@@QAEXPAVCObject@@PAN11H@Z$97
	DD	03aH
	DD	FLAT:__unwindfunclet$?SetFoundWavePtnToGrid_RptType1@CDlgAnalysis@@QAEXPAVCObject@@PAN11H@Z$98
	DD	03bH
	DD	FLAT:__unwindfunclet$?SetFoundWavePtnToGrid_RptType1@CDlgAnalysis@@QAEXPAVCObject@@PAN11H@Z$99
	DD	03cH
	DD	FLAT:__unwindfunclet$?SetFoundWavePtnToGrid_RptType1@CDlgAnalysis@@QAEXPAVCObject@@PAN11H@Z$100
	DD	03dH
	DD	FLAT:__unwindfunclet$?SetFoundWavePtnToGrid_RptType1@CDlgAnalysis@@QAEXPAVCObject@@PAN11H@Z$101
	DD	03eH
	DD	FLAT:__unwindfunclet$?SetFoundWavePtnToGrid_RptType1@CDlgAnalysis@@QAEXPAVCObject@@PAN11H@Z$102
	DD	02H
	DD	FLAT:__unwindfunclet$?SetFoundWavePtnToGrid_RptType1@CDlgAnalysis@@QAEXPAVCObject@@PAN11H@Z$64
	DD	02H
	DD	FLAT:__unwindfunclet$?SetFoundWavePtnToGrid_RptType1@CDlgAnalysis@@QAEXPAVCObject@@PAN11H@Z$65
xdata$x	ENDS
;	COMDAT xdata$x
xdata$x	SEGMENT
__unwindtable$?InitGridFormat_WaveRptType1@CDlgAnalysis@@QAEXXZ DD 0ffffffffH
	DD	FLAT:__unwindfunclet$?InitGridFormat_WaveRptType1@CDlgAnalysis@@QAEXXZ$0
	DD	00H
	DD	FLAT:__unwindfunclet$?InitGridFormat_WaveRptType1@CDlgAnalysis@@QAEXXZ$1
__ehfuncinfo$?InitGridFormat_WaveRptType1@CDlgAnalysis@@QAEXXZ DD 019930522H
	DD	02H
	DD	FLAT:__unwindtable$?InitGridFormat_WaveRptType1@CDlgAnalysis@@QAEXXZ
	DD	2 DUP(00H)
	DD	2 DUP(00H)
	DD	00H
	DD	01H
xdata$x	ENDS
;	COMDAT xdata$x
xdata$x	SEGMENT
__catchsym$?InitGridRowCol_WaveRptType1@CDlgAnalysis@@QAEXXZ$2 DD 00H
	DD	FLAT:??_R0PAVCMemoryException@@@8
	DD	0ffffffecH
	DD	FLAT:__catch$?InitGridRowCol_WaveRptType1@CDlgAnalysis@@QAEXXZ$0
__unwindtable$?InitGridRowCol_WaveRptType1@CDlgAnalysis@@QAEXXZ DD 0ffffffffH
	DD	00H
	DD	0ffffffffH
	DD	00H
__tryblocktable$?InitGridRowCol_WaveRptType1@CDlgAnalysis@@QAEXXZ DD 00H
	DD	00H
	DD	01H
	DD	01H
	DD	FLAT:__catchsym$?InitGridRowCol_WaveRptType1@CDlgAnalysis@@QAEXXZ$2
__ehfuncinfo$?InitGridRowCol_WaveRptType1@CDlgAnalysis@@QAEXXZ DD 019930522H
	DD	02H
	DD	FLAT:__unwindtable$?InitGridRowCol_WaveRptType1@CDlgAnalysis@@QAEXXZ
	DD	01H
	DD	FLAT:__tryblocktable$?InitGridRowCol_WaveRptType1@CDlgAnalysis@@QAEXXZ
	DD	2 DUP(00H)
	DD	00H
	DD	01H
xdata$x	ENDS
;	COMDAT xdata$x
xdata$x	SEGMENT
__unwindtable$?InitGrid_WaveRptType1@CDlgAnalysis@@QAEXXZ DD 0ffffffffH
	DD	FLAT:__unwindfunclet$?InitGrid_WaveRptType1@CDlgAnalysis@@QAEXXZ$0
__ehfuncinfo$?InitGrid_WaveRptType1@CDlgAnalysis@@QAEXXZ DD 019930522H
	DD	01H
	DD	FLAT:__unwindtable$?InitGrid_WaveRptType1@CDlgAnalysis@@QAEXXZ
	DD	2 DUP(00H)
	DD	2 DUP(00H)
	DD	00H
	DD	01H
xdata$x	ENDS
;	COMDAT xdata$x
xdata$x	SEGMENT
__unwindtable$?InitFont@CDlgAnalysis@@IAEXXZ DD 0ffffffffH
	DD	FLAT:__unwindfunclet$?InitFont@CDlgAnalysis@@IAEXXZ$0
	DD	00H
	DD	FLAT:__unwindfunclet$?InitFont@CDlgAnalysis@@IAEXXZ$1
__ehfuncinfo$?InitFont@CDlgAnalysis@@IAEXXZ DD 019930522H
	DD	02H
	DD	FLAT:__unwindtable$?InitFont@CDlgAnalysis@@IAEXXZ
	DD	2 DUP(00H)
	DD	2 DUP(00H)
	DD	00H
	DD	01H
xdata$x	ENDS
;	COMDAT xdata$x
xdata$x	SEGMENT
__unwindtable$??0CDlgAnalysis@@QAE@PAVCWnd@@PAVCPatternMaker@@@Z DD 0ffffffffH
	DD	FLAT:__unwindfunclet$??0CDlgAnalysis@@QAE@PAVCWnd@@PAVCPatternMaker@@@Z$0
	DD	00H
	DD	FLAT:__unwindfunclet$??0CDlgAnalysis@@QAE@PAVCWnd@@PAVCPatternMaker@@@Z$1
	DD	01H
	DD	FLAT:__unwindfunclet$??0CDlgAnalysis@@QAE@PAVCWnd@@PAVCPatternMaker@@@Z$2
	DD	02H
	DD	FLAT:__unwindfunclet$??0CDlgAnalysis@@QAE@PAVCWnd@@PAVCPatternMaker@@@Z$3
__ehfuncinfo$??0CDlgAnalysis@@QAE@PAVCWnd@@PAVCPatternMaker@@@Z DD 019930522H
	DD	04H
	DD	FLAT:__unwindtable$??0CDlgAnalysis@@QAE@PAVCWnd@@PAVCPatternMaker@@@Z
	DD	2 DUP(00H)
	DD	2 DUP(00H)
	DD	00H
	DD	01H
xdata$x	ENDS
;	COMDAT xdata$x
xdata$x	SEGMENT
__catchsym$??1CGdiObject@@UAE@XZ$3 DD 00H
	DD	FLAT:??_R0PAVCException@@@8
	DD	0fffffde4H
	DD	FLAT:__catch$??1CGdiObject@@UAE@XZ$0
__tryblocktable$??1CGdiObject@@UAE@XZ DD 00H
	DD	00H
	DD	02H
	DD	01H
	DD	FLAT:__catchsym$??1CGdiObject@@UAE@XZ$3
__unwindtable$??1CGdiObject@@UAE@XZ DD 0ffffffffH
	DD	00H
	DD	0ffffffffH
	DD	00H
	DD	01H
	DD	FLAT:__unwindfunclet$??1CGdiObject@@UAE@XZ$2
__ehfuncinfo$??1CGdiObject@@UAE@XZ DD 019930522H
	DD	03H
	DD	FLAT:__unwindtable$??1CGdiObject@@UAE@XZ
	DD	01H
	DD	FLAT:__tryblocktable$??1CGdiObject@@UAE@XZ
	DD	2 DUP(00H)
	DD	00H
	DD	05H
xdata$x	ENDS
;	COMDAT xdata$x
xdata$x	SEGMENT
__unwindtable$??HATL@@YA?AV?$CStringT@DV?$StrTraitMFC_DLL@DV?$ChTraitsCRT@D@ATL@@@@@0@PBDABV10@@Z DD 0ffffffffH
	DD	FLAT:__unwindfunclet$??HATL@@YA?AV?$CStringT@DV?$StrTraitMFC_DLL@DV?$ChTraitsCRT@D@ATL@@@@@0@PBDABV10@@Z$0
__ehfuncinfo$??HATL@@YA?AV?$CStringT@DV?$StrTraitMFC_DLL@DV?$ChTraitsCRT@D@ATL@@@@@0@PBDABV10@@Z DD 019930522H
	DD	01H
	DD	FLAT:__unwindtable$??HATL@@YA?AV?$CStringT@DV?$StrTraitMFC_DLL@DV?$ChTraitsCRT@D@ATL@@@@@0@PBDABV10@@Z
	DD	2 DUP(00H)
	DD	2 DUP(00H)
	DD	00H
	DD	01H
xdata$x	ENDS
;	COMDAT xdata$x
xdata$x	SEGMENT
__unwindtable$??HATL@@YA?AV?$CStringT@DV?$StrTraitMFC_DLL@DV?$ChTraitsCRT@D@ATL@@@@@0@ABV10@PBD@Z DD 0ffffffffH
	DD	FLAT:__unwindfunclet$??HATL@@YA?AV?$CStringT@DV?$StrTraitMFC_DLL@DV?$ChTraitsCRT@D@ATL@@@@@0@ABV10@PBD@Z$0
__ehfuncinfo$??HATL@@YA?AV?$CStringT@DV?$StrTraitMFC_DLL@DV?$ChTraitsCRT@D@ATL@@@@@0@ABV10@PBD@Z DD 019930522H
	DD	01H
	DD	FLAT:__unwindtable$??HATL@@YA?AV?$CStringT@DV?$StrTraitMFC_DLL@DV?$ChTraitsCRT@D@ATL@@@@@0@ABV10@PBD@Z
	DD	2 DUP(00H)
	DD	2 DUP(00H)
	DD	00H
	DD	01H
xdata$x	ENDS
;	COMDAT xdata$x
xdata$x	SEGMENT
__unwindtable$??HATL@@YA?AV?$CStringT@DV?$StrTraitMFC_DLL@DV?$ChTraitsCRT@D@ATL@@@@@0@ABV10@0@Z DD 0ffffffffH
	DD	FLAT:__unwindfunclet$??HATL@@YA?AV?$CStringT@DV?$StrTraitMFC_DLL@DV?$ChTraitsCRT@D@ATL@@@@@0@ABV10@0@Z$0
__ehfuncinfo$??HATL@@YA?AV?$CStringT@DV?$StrTraitMFC_DLL@DV?$ChTraitsCRT@D@ATL@@@@@0@ABV10@0@Z DD 019930522H
	DD	01H
	DD	FLAT:__unwindtable$??HATL@@YA?AV?$CStringT@DV?$StrTraitMFC_DLL@DV?$ChTraitsCRT@D@ATL@@@@@0@ABV10@0@Z
	DD	2 DUP(00H)
	DD	2 DUP(00H)
	DD	00H
	DD	01H
xdata$x	ENDS
; Function compile flags: /Ogtp
; File C:\Program Files (x86)\Microsoft Visual Studio\2019\Community\VC\Tools\MSVC\14.29.30133\atlmfc\include\afxtempl.h
; File C:\Program Files (x86)\Microsoft Visual Studio\2019\Community\VC\Tools\MSVC\14.29.30133\atlmfc\include\afx.inl
; File C:\Program Files (x86)\Microsoft Visual Studio\2019\Community\VC\Tools\MSVC\14.29.30133\atlmfc\include\afxtempl.h
; File C:\Program Files (x86)\Microsoft Visual Studio\2019\Community\VC\Tools\MSVC\14.29.30133\atlmfc\include\afx.inl
; File C:\Program Files (x86)\Microsoft Visual Studio\2019\Community\VC\Tools\MSVC\14.29.30133\atlmfc\include\afxtempl.h
; File C:\Program Files (x86)\Microsoft Visual Studio\2019\Community\VC\Tools\MSVC\14.29.30133\atlmfc\include\afx.inl
; File C:\Program Files (x86)\Microsoft Visual Studio\2019\Community\VC\Tools\MSVC\14.29.30133\atlmfc\include\afxtempl.h
;	COMDAT ??$SerializeElements@PAVCRscDlg@@@@YGXAAVCArchive@@PAPAVCRscDlg@@H@Z
_TEXT	SEGMENT
_ar$ = 8						; size = 4
_pElements$ = 12					; size = 4
_nCount$ = 16						; size = 4
??$SerializeElements@PAVCRscDlg@@@@YGXAAVCArchive@@PAPAVCRscDlg@@H@Z PROC ; SerializeElements<CRscDlg *>, COMDAT

; 67   : {

  00000	55		 push	 ebp
  00001	8b ec		 mov	 ebp, esp

; 68   : 	ENSURE(nCount == 0 || pElements != NULL);

  00003	8b 4d 0c	 mov	 ecx, DWORD PTR _pElements$[ebp]
  00006	53		 push	 ebx
  00007	56		 push	 esi
  00008	8b 75 10	 mov	 esi, DWORD PTR _nCount$[ebp]
  0000b	57		 push	 edi
  0000c	85 f6		 test	 esi, esi
  0000e	74 08		 je	 SHORT $LN2@SerializeE
  00010	85 c9		 test	 ecx, ecx
  00012	0f 84 89 00 00
	00		 je	 $LN34@SerializeE
$LN2@SerializeE:
; File C:\Program Files (x86)\Microsoft Visual Studio\2019\Community\VC\Tools\MSVC\14.29.30133\atlmfc\include\afx.inl

; 212  : 	{ return (m_nMode & CArchive::load) == 0; }

  00018	8b 55 08	 mov	 edx, DWORD PTR _ar$[ebp]
  0001b	8b 42 18	 mov	 eax, DWORD PTR [edx+24]
  0001e	f7 d0		 not	 eax
  00020	a8 01		 test	 al, 1
; File C:\Program Files (x86)\Microsoft Visual Studio\2019\Community\VC\Tools\MSVC\14.29.30133\atlmfc\include\afxtempl.h

; 73   : 	if (ar.IsStoring())

  00022	74 3c		 je	 SHORT $LN10@SerializeE

; 74   : 	{
; 75   : 		TYPE* pData;
; 76   : 		UINT_PTR nElementsLeft;
; 77   : 
; 78   : 		nElementsLeft = nCount;
; 79   : 		pData = pElements;
; 80   : 		while( nElementsLeft > 0 )

  00024	85 f6		 test	 esi, esi
  00026	74 31		 je	 SHORT $LN8@SerializeE
  00028	0f 1f 84 00 00
	00 00 00	 npad	 8
$LL5@SerializeE:

; 81   : 		{
; 82   : 			UINT nElementsToWrite;
; 83   : 
; 84   : 			nElementsToWrite = UINT(__min(nElementsLeft, INT_MAX/sizeof(TYPE)));

  00030	bb ff ff ff 1f	 mov	 ebx, 536870911		; 1fffffffH
  00035	3b f3		 cmp	 esi, ebx
  00037	0f 42 de	 cmovb	 ebx, esi

; 85   : 			ar.Write(pData, nElementsToWrite*sizeof(TYPE));

  0003a	8d 3c 9d 00 00
	00 00		 lea	 edi, DWORD PTR [ebx*4]
  00041	57		 push	 edi
  00042	51		 push	 ecx
  00043	8b ca		 mov	 ecx, edx
  00045	e8 00 00 00 00	 call	 ?Write@CArchive@@QAEXPBXI@Z ; CArchive::Write

; 86   : 			nElementsLeft -= nElementsToWrite;
; 87   : 			pData += nElementsToWrite;

  0004a	8b 4d 0c	 mov	 ecx, DWORD PTR _pElements$[ebp]
  0004d	8b 55 08	 mov	 edx, DWORD PTR _ar$[ebp]
  00050	03 cf		 add	 ecx, edi
  00052	89 4d 0c	 mov	 DWORD PTR _pElements$[ebp], ecx
  00055	2b f3		 sub	 esi, ebx
  00057	75 d7		 jne	 SHORT $LL5@SerializeE
$LN8@SerializeE:
  00059	5f		 pop	 edi

; 105  : 		}
; 106  : 	}
; 107  : }

  0005a	5e		 pop	 esi
  0005b	5b		 pop	 ebx
  0005c	5d		 pop	 ebp
  0005d	c2 0c 00	 ret	 12			; 0000000cH
$LN10@SerializeE:

; 97   : 		while( nElementsLeft > 0 )

  00060	85 f6		 test	 esi, esi
  00062	74 f5		 je	 SHORT $LN8@SerializeE
$LL7@SerializeE:

; 98   : 		{
; 99   : 			UINT nElementsToRead;
; 100  : 
; 101  : 			nElementsToRead = UINT(__min(nElementsLeft, INT_MAX/sizeof(TYPE)));

  00064	bf ff ff ff 1f	 mov	 edi, 536870911		; 1fffffffH
  00069	3b f7		 cmp	 esi, edi
  0006b	0f 42 fe	 cmovb	 edi, esi

; 102  : 			ar.EnsureRead(pData, nElementsToRead*sizeof(TYPE));

  0006e	8d 1c bd 00 00
	00 00		 lea	 ebx, DWORD PTR [edi*4]
; File C:\Program Files (x86)\Microsoft Visual Studio\2019\Community\VC\Tools\MSVC\14.29.30133\atlmfc\include\afx.inl

; 399  : 	UINT nRead=Read(lpBuf, nCount);

  00075	53		 push	 ebx
  00076	51		 push	 ecx
  00077	8b ca		 mov	 ecx, edx
  00079	e8 00 00 00 00	 call	 ?Read@CArchive@@QAEIPAXI@Z ; CArchive::Read

; 400  : 	if(nRead!=nCount)

  0007e	3b c3		 cmp	 eax, ebx
  00080	75 16		 jne	 SHORT $LN23@SerializeE
; File C:\Program Files (x86)\Microsoft Visual Studio\2019\Community\VC\Tools\MSVC\14.29.30133\atlmfc\include\afxtempl.h

; 97   : 		while( nElementsLeft > 0 )

  00082	8b 4d 0c	 mov	 ecx, DWORD PTR _pElements$[ebp]
  00085	8b 55 08	 mov	 edx, DWORD PTR _ar$[ebp]

; 103  : 			nElementsLeft -= nElementsToRead;
; 104  : 			pData += nElementsToRead;

  00088	03 cb		 add	 ecx, ebx
  0008a	89 4d 0c	 mov	 DWORD PTR _pElements$[ebp], ecx
  0008d	2b f7		 sub	 esi, edi
  0008f	75 d3		 jne	 SHORT $LL7@SerializeE

; 105  : 		}
; 106  : 	}
; 107  : }

  00091	5f		 pop	 edi
  00092	5e		 pop	 esi
  00093	5b		 pop	 ebx
  00094	5d		 pop	 ebp
  00095	c2 0c 00	 ret	 12			; 0000000cH
$LN23@SerializeE:
; File C:\Program Files (x86)\Microsoft Visual Studio\2019\Community\VC\Tools\MSVC\14.29.30133\atlmfc\include\afx.inl

; 402  : 		AfxThrowArchiveException(CArchiveException::endOfFile);

  00098	6a 00		 push	 0
  0009a	6a 03		 push	 3
  0009c	e8 00 00 00 00	 call	 ?AfxThrowArchiveException@@YGXHPBD@Z ; AfxThrowArchiveException
$LN34@SerializeE:
; File C:\Program Files (x86)\Microsoft Visual Studio\2019\Community\VC\Tools\MSVC\14.29.30133\atlmfc\include\afxtempl.h

; 68   : 	ENSURE(nCount == 0 || pElements != NULL);

  000a1	e8 00 00 00 00	 call	 ?AfxThrowInvalidArgException@@YGXXZ ; AfxThrowInvalidArgException
$LN32@SerializeE:
  000a6	cc		 int	 3
??$SerializeElements@PAVCRscDlg@@@@YGXAAVCArchive@@PAPAVCRscDlg@@H@Z ENDP ; SerializeElements<CRscDlg *>
_TEXT	ENDS
; Function compile flags: /Ogtp
; File D:\git\src\IBK\IBK_DRFN\ProjSrc\SrcChartEx\ChartAddIn\ChartPatternAddIn\Include_Chart\Dll_Load\IMetaTable.h
; File C:\Program Files (x86)\Microsoft Visual Studio\2019\Community\VC\Tools\MSVC\14.29.30133\atlmfc\include\afxwin1.inl
; File D:\git\src\IBK\IBK_DRFN\ProjSrc\SrcChartEx\ChartAddIn\ChartPatternAddIn\Include_Chart\Dll_Load\IMetaTable.h
;	COMDAT ??1CMultiLanguageResourceSetter@@QAE@XZ
_TEXT	SEGMENT
__$EHRec$ = -12						; size = 12
??1CMultiLanguageResourceSetter@@QAE@XZ PROC		; CMultiLanguageResourceSetter::~CMultiLanguageResourceSetter, COMDAT
; _this$ = ecx

; 1035 : 	{

  00000	55		 push	 ebp
  00001	8b ec		 mov	 ebp, esp
  00003	6a ff		 push	 -1
  00005	68 00 00 00 00	 push	 __ehhandler$??1CMultiLanguageResourceSetter@@QAE@XZ
  0000a	64 a1 00 00 00
	00		 mov	 eax, DWORD PTR fs:0
  00010	50		 push	 eax
  00011	56		 push	 esi
  00012	a1 00 00 00 00	 mov	 eax, DWORD PTR ___security_cookie
  00017	33 c5		 xor	 eax, ebp
  00019	50		 push	 eax
  0001a	8d 45 f4	 lea	 eax, DWORD PTR __$EHRec$[ebp]
  0001d	64 a3 00 00 00
	00		 mov	 DWORD PTR fs:0, eax

; 1036 : 		AfxSetResourceHandle( m_hInstance);

  00023	8b 31		 mov	 esi, DWORD PTR [ecx]
; File C:\Program Files (x86)\Microsoft Visual Studio\2019\Community\VC\Tools\MSVC\14.29.30133\atlmfc\include\afxwin1.inl

; 27   : 	{ ASSERT(hInstResource != NULL); afxCurrentResourceHandle = hInstResource; }

  00025	e8 00 00 00 00	 call	 ?AfxGetModuleState@@YGPAVAFX_MODULE_STATE@@XZ ; AfxGetModuleState
  0002a	89 70 0c	 mov	 DWORD PTR [eax+12], esi
; File D:\git\src\IBK\IBK_DRFN\ProjSrc\SrcChartEx\ChartAddIn\ChartPatternAddIn\Include_Chart\Dll_Load\IMetaTable.h

; 1037 : 	}

  0002d	8b 4d f4	 mov	 ecx, DWORD PTR __$EHRec$[ebp]
  00030	64 89 0d 00 00
	00 00		 mov	 DWORD PTR fs:0, ecx
  00037	59		 pop	 ecx
  00038	5e		 pop	 esi
  00039	8b e5		 mov	 esp, ebp
  0003b	5d		 pop	 ebp
  0003c	c3		 ret	 0
  0003d	cc		 int	 3
  0003e	cc		 int	 3
  0003f	cc		 int	 3
  00040	cc		 int	 3
  00041	cc		 int	 3
_TEXT	ENDS
;	COMDAT text$x
text$x	SEGMENT
__ehhandler$??1CMultiLanguageResourceSetter@@QAE@XZ:
  00000	90		 npad	 1
  00001	90		 npad	 1
  00002	8b 54 24 08	 mov	 edx, DWORD PTR [esp+8]
  00006	8d 42 0c	 lea	 eax, DWORD PTR [edx+12]
  00009	8b 4a f8	 mov	 ecx, DWORD PTR [edx-8]
  0000c	33 c8		 xor	 ecx, eax
  0000e	e8 00 00 00 00	 call	 @__security_check_cookie@4
  00013	b8 00 00 00 00	 mov	 eax, OFFSET __ehfuncinfo$??1CMultiLanguageResourceSetter@@QAE@XZ
  00018	e9 00 00 00 00	 jmp	 ___CxxFrameHandler3
text$x	ENDS
??1CMultiLanguageResourceSetter@@QAE@XZ ENDP		; CMultiLanguageResourceSetter::~CMultiLanguageResourceSetter
; Function compile flags: /Ogtp
; File D:\git\src\IBK\IBK_DRFN\ProjSrc\SrcChartEx\ChartAddIn\ChartPatternAddIn\Include_Chart\Dll_Load\IMetaTable.h
;	COMDAT ?LoadResourceDLL@IMetaTable@@QAEPAUHINSTANCE__@@PAUHWND__@@PAU2@@Z
_TEXT	SEGMENT
_p1$ = 8						; size = 4
_p2$ = 12						; size = 4
?LoadResourceDLL@IMetaTable@@QAEPAUHINSTANCE__@@PAUHWND__@@PAU2@@Z PROC ; IMetaTable::LoadResourceDLL, COMDAT
; _this$ = ecx

; 935  : 	DECLARE_FUNCTION2(	LoadResourceDLL,				HMODULE, AfxGetStaticModuleState()->m_hCurrentInstanceHandle, HWND, HMODULE);

  00000	55		 push	 ebp
  00001	8b ec		 mov	 ebp, esp
  00003	56		 push	 esi
  00004	8b f1		 mov	 esi, ecx
  00006	8b 46 04	 mov	 eax, DWORD PTR [esi+4]
  00009	85 c0		 test	 eax, eax
  0000b	74 4d		 je	 SHORT $LN4@LoadResour
  0000d	57		 push	 edi
  0000e	bf 80 0d 00 00	 mov	 edi, 3456		; 00000d80H
  00013	66 3b be 94 00
	00 00		 cmp	 di, WORD PTR [esi+148]
  0001a	74 23		 je	 SHORT $LN3@LoadResour
  0001c	68 00 00 00 00	 push	 OFFSET ??_C@_0BA@ENJOCHIO@LoadResourceDLL@
  00021	50		 push	 eax
  00022	c7 86 90 00 00
	00 00 00 00 00	 mov	 DWORD PTR [esi+144], 0
  0002c	ff 15 00 00 00
	00		 call	 DWORD PTR __imp__GetProcAddress@8
  00032	89 86 90 00 00
	00		 mov	 DWORD PTR [esi+144], eax
  00038	66 89 be 94 00
	00 00		 mov	 WORD PTR [esi+148], di
$LN3@LoadResour:
  0003f	8b 86 90 00 00
	00		 mov	 eax, DWORD PTR [esi+144]
  00045	5f		 pop	 edi
  00046	85 c0		 test	 eax, eax
  00048	74 10		 je	 SHORT $LN4@LoadResour
  0004a	ff 75 0c	 push	 DWORD PTR _p2$[ebp]
  0004d	ff 75 08	 push	 DWORD PTR _p1$[ebp]
  00050	ff d0		 call	 eax
  00052	83 c4 08	 add	 esp, 8
  00055	5e		 pop	 esi
  00056	5d		 pop	 ebp
  00057	c2 08 00	 ret	 8
$LN4@LoadResour:
  0005a	e8 00 00 00 00	 call	 ?AfxGetStaticModuleState@@YGPAVAFX_MODULE_STATE@@XZ ; AfxGetStaticModuleState
  0005f	5e		 pop	 esi
  00060	8b 40 08	 mov	 eax, DWORD PTR [eax+8]
  00063	5d		 pop	 ebp
  00064	c2 08 00	 ret	 8
?LoadResourceDLL@IMetaTable@@QAEPAUHINSTANCE__@@PAUHWND__@@PAU2@@Z ENDP ; IMetaTable::LoadResourceDLL
_TEXT	ENDS
; Function compile flags: /Ogtp
;	COMDAT ??1_GV_ITEM@@QAE@XZ
_TEXT	SEGMENT
??1_GV_ITEM@@QAE@XZ PROC				; _GV_ITEM::~_GV_ITEM, COMDAT
; _this$ = ecx
  00000	83 c1 64	 add	 ecx, 100		; 00000064H
  00003	ff 25 00 00 00
	00		 jmp	 DWORD PTR __imp_??1?$CStringT@DV?$StrTraitMFC_DLL@DV?$ChTraitsCRT@D@ATL@@@@@ATL@@QAE@XZ
??1_GV_ITEM@@QAE@XZ ENDP				; _GV_ITEM::~_GV_ITEM
_TEXT	ENDS
; Function compile flags: /Ogtp
; File C:\Program Files (x86)\Microsoft Visual Studio\2019\Community\VC\Tools\MSVC\14.29.30133\atlmfc\include\afxwin1.inl
; File C:\Program Files (x86)\Microsoft Visual Studio\2019\Community\VC\Tools\MSVC\14.29.30133\atlmfc\include\afxtempl.h
;	COMDAT ??1CDlgSetup@@UAE@XZ
_TEXT	SEGMENT
??1CDlgSetup@@UAE@XZ PROC				; CDlgSetup::~CDlgSetup, COMDAT
; _this$ = ecx
; File C:\Program Files (x86)\Microsoft Visual Studio\2019\Community\VC\Tools\MSVC\14.29.30133\atlmfc\include\afxwin1.inl

; 130  : 	{ }

  00000	56		 push	 esi
  00001	8b f1		 mov	 esi, ecx
  00003	8d 8e e0 01 00
	00		 lea	 ecx, DWORD PTR [esi+480]
  00009	c7 01 00 00 00
	00		 mov	 DWORD PTR [ecx], OFFSET ??_7CBrush@@6B@
  0000f	e8 00 00 00 00	 call	 ??1CGdiObject@@UAE@XZ	; CGdiObject::~CGdiObject
; File C:\Program Files (x86)\Microsoft Visual Studio\2019\Community\VC\Tools\MSVC\14.29.30133\atlmfc\include\afxtempl.h

; 358  : 	if (m_pData != NULL)

  00014	8b 86 bc 01 00
	00		 mov	 eax, DWORD PTR [esi+444]
  0001a	c7 86 b8 01 00
	00 00 00 00 00	 mov	 DWORD PTR [esi+440], OFFSET ??_7?$CArray@PAVCRscDlg@@PAV1@@@6B@
  00024	85 c0		 test	 eax, eax
  00026	74 13		 je	 SHORT $LN10@CDlgSetup

; 359  : 	{
; 360  : 		for( int i = 0; i < m_nSize; i++ )

  00028	83 be c0 01 00
	00 00		 cmp	 DWORD PTR [esi+448], 0
  0002f	0f 4f c0	 cmovg	 eax, eax

; 361  : 			(m_pData + i)->~TYPE();
; 362  : 		delete[] (BYTE*)m_pData;

  00032	50		 push	 eax
  00033	e8 00 00 00 00	 call	 ??_V@YAXPAX@Z		; operator delete[]
  00038	83 c4 04	 add	 esp, 4
$LN10@CDlgSetup:
  0003b	8d 8e b0 00 00
	00		 lea	 ecx, DWORD PTR [esi+176]
  00041	e8 00 00 00 00	 call	 ??1CXTabCtrl@@UAE@XZ	; CXTabCtrl::~CXTabCtrl
  00046	8b ce		 mov	 ecx, esi
  00048	5e		 pop	 esi
  00049	e9 00 00 00 00	 jmp	 ??1CDialog@@UAE@XZ	; CDialog::~CDialog
??1CDlgSetup@@UAE@XZ ENDP				; CDlgSetup::~CDlgSetup
_TEXT	ENDS
; Function compile flags: /Ogtp
; File C:\Program Files (x86)\Microsoft Visual Studio\2019\Community\VC\Tools\MSVC\14.29.30133\atlmfc\include\afxtempl.h
; File C:\Program Files (x86)\Microsoft Visual Studio\2019\Community\VC\Tools\MSVC\14.29.30133\atlmfc\include\afx.inl
;	COMDAT ??_G?$CArray@PAVCRscDlg@@PAV1@@@UAEPAXI@Z
_TEXT	SEGMENT
___flags$ = 8						; size = 4
??_G?$CArray@PAVCRscDlg@@PAV1@@@UAEPAXI@Z PROC		; CArray<CRscDlg *,CRscDlg *>::`scalar deleting destructor', COMDAT
; _this$ = ecx
  00000	55		 push	 ebp
  00001	8b ec		 mov	 ebp, esp
; File C:\Program Files (x86)\Microsoft Visual Studio\2019\Community\VC\Tools\MSVC\14.29.30133\atlmfc\include\afxtempl.h

; 355  : {

  00003	56		 push	 esi
  00004	8b f1		 mov	 esi, ecx

; 356  : 	ASSERT_VALID(this);
; 357  : 
; 358  : 	if (m_pData != NULL)

  00006	8b 46 04	 mov	 eax, DWORD PTR [esi+4]
  00009	c7 06 00 00 00
	00		 mov	 DWORD PTR [esi], OFFSET ??_7?$CArray@PAVCRscDlg@@PAV1@@@6B@
  0000f	85 c0		 test	 eax, eax
  00011	74 09		 je	 SHORT $LN11@scalar

; 359  : 	{
; 360  : 		for( int i = 0; i < m_nSize; i++ )
; 361  : 			(m_pData + i)->~TYPE();
; 362  : 		delete[] (BYTE*)m_pData;

  00013	50		 push	 eax
  00014	e8 00 00 00 00	 call	 ??_V@YAXPAX@Z		; operator delete[]
  00019	83 c4 04	 add	 esp, 4
$LN11@scalar:
  0001c	8b 45 08	 mov	 eax, DWORD PTR ___flags$[ebp]
  0001f	a8 01		 test	 al, 1
  00021	74 1f		 je	 SHORT $LN20@scalar
  00023	a8 04		 test	 al, 4
  00025	75 10		 jne	 SHORT $LN3@scalar
; File C:\Program Files (x86)\Microsoft Visual Studio\2019\Community\VC\Tools\MSVC\14.29.30133\atlmfc\include\afx.inl

; 112  : 	{ ::operator delete(p); }

  00027	56		 push	 esi
  00028	e8 00 00 00 00	 call	 ??3@YAXPAX@Z		; operator delete
  0002d	83 c4 04	 add	 esp, 4
  00030	8b c6		 mov	 eax, esi
  00032	5e		 pop	 esi
  00033	5d		 pop	 ebp
  00034	c2 04 00	 ret	 4
$LN3@scalar:
  00037	6a 14		 push	 20			; 00000014H
  00039	56		 push	 esi
  0003a	e8 00 00 00 00	 call	 ?__global_delete@@YAXPAXI@Z ; __global_delete
  0003f	83 c4 08	 add	 esp, 8
$LN20@scalar:
  00042	8b c6		 mov	 eax, esi
  00044	5e		 pop	 esi
  00045	5d		 pop	 ebp
  00046	c2 04 00	 ret	 4
??_G?$CArray@PAVCRscDlg@@PAV1@@@UAEPAXI@Z ENDP		; CArray<CRscDlg *,CRscDlg *>::`scalar deleting destructor'
_TEXT	ENDS
; Function compile flags: /Ogtp
; File C:\Program Files (x86)\Microsoft Visual Studio\2019\Community\VC\Tools\MSVC\14.29.30133\atlmfc\include\afxtempl.h
; File C:\Program Files (x86)\Microsoft Visual Studio\2019\Community\VC\Tools\MSVC\14.29.30133\atlmfc\include\afx.inl
; File C:\Program Files (x86)\Microsoft Visual Studio\2019\Community\VC\Tools\MSVC\14.29.30133\atlmfc\include\afxtempl.h
; File C:\Program Files (x86)\Microsoft Visual Studio\2019\Community\VC\Tools\MSVC\14.29.30133\atlmfc\include\afx.inl
; File C:\Program Files (x86)\Microsoft Visual Studio\2019\Community\VC\Tools\MSVC\14.29.30133\atlmfc\include\afxtempl.h
; File C:\Program Files (x86)\Microsoft Visual Studio\2019\Community\VC\Tools\MSVC\14.29.30133\atlmfc\include\afx.inl
; File C:\Program Files (x86)\Microsoft Visual Studio\2019\Community\VC\Tools\MSVC\14.29.30133\atlmfc\include\afxtempl.h
; File C:\Program Files (x86)\Microsoft Visual Studio\2019\Community\VC\Tools\MSVC\14.29.30133\atlmfc\include\afx.inl
; File C:\Program Files (x86)\Microsoft Visual Studio\2019\Community\VC\Tools\MSVC\14.29.30133\atlmfc\include\afxtempl.h
;	COMDAT ?Serialize@?$CArray@PAVCRscDlg@@PAV1@@@UAEXAAVCArchive@@@Z
_TEXT	SEGMENT
_pData$1$ = -4						; size = 4
_ar$ = 8						; size = 4
?Serialize@?$CArray@PAVCRscDlg@@PAV1@@@UAEXAAVCArchive@@@Z PROC ; CArray<CRscDlg *,CRscDlg *>::Serialize, COMDAT
; _this$ = ecx

; 633  : {

  00000	55		 push	 ebp
  00001	8b ec		 mov	 ebp, esp
  00003	51		 push	 ecx
  00004	53		 push	 ebx
  00005	56		 push	 esi
  00006	57		 push	 edi
  00007	8b f9		 mov	 edi, ecx
; File C:\Program Files (x86)\Microsoft Visual Studio\2019\Community\VC\Tools\MSVC\14.29.30133\atlmfc\include\afx.inl

; 212  : 	{ return (m_nMode & CArchive::load) == 0; }

  00009	8b 4d 08	 mov	 ecx, DWORD PTR _ar$[ebp]
  0000c	8b 41 18	 mov	 eax, DWORD PTR [ecx+24]
  0000f	f7 d0		 not	 eax
  00011	a8 01		 test	 al, 1
; File C:\Program Files (x86)\Microsoft Visual Studio\2019\Community\VC\Tools\MSVC\14.29.30133\atlmfc\include\afxtempl.h

; 637  : 	if (ar.IsStoring())

  00013	74 0a		 je	 SHORT $LN2@Serialize

; 638  : 	{
; 639  : 		ar.WriteCount(m_nSize);

  00015	ff 77 08	 push	 DWORD PTR [edi+8]
  00018	e8 00 00 00 00	 call	 ?WriteCount@CArchive@@QAEXK@Z ; CArchive::WriteCount

; 640  : 	}

  0001d	eb 0f		 jmp	 SHORT $LN3@Serialize
$LN2@Serialize:

; 641  : 	else
; 642  : 	{
; 643  : 		DWORD_PTR nOldSize = ar.ReadCount();

  0001f	e8 00 00 00 00	 call	 ?ReadCount@CArchive@@QAEKXZ ; CArchive::ReadCount

; 644  : 		SetSize(nOldSize, -1);

  00024	6a ff		 push	 -1
  00026	50		 push	 eax
  00027	8b cf		 mov	 ecx, edi
  00029	e8 00 00 00 00	 call	 ?SetSize@?$CArray@PAVCRscDlg@@PAV1@@@QAEXHH@Z ; CArray<CRscDlg *,CRscDlg *>::SetSize
$LN3@Serialize:

; 645  : 	}
; 646  : 	SerializeElements<TYPE>(ar, m_pData, m_nSize);

  0002e	8b 77 08	 mov	 esi, DWORD PTR [edi+8]
  00031	8b 4f 04	 mov	 ecx, DWORD PTR [edi+4]
  00034	89 4d fc	 mov	 DWORD PTR _pData$1$[ebp], ecx

; 68   : 	ENSURE(nCount == 0 || pElements != NULL);

  00037	85 f6		 test	 esi, esi
  00039	74 08		 je	 SHORT $LN8@Serialize
  0003b	85 c9		 test	 ecx, ecx
  0003d	0f 84 8c 00 00
	00		 je	 $LN40@Serialize
$LN8@Serialize:
; File C:\Program Files (x86)\Microsoft Visual Studio\2019\Community\VC\Tools\MSVC\14.29.30133\atlmfc\include\afx.inl

; 212  : 	{ return (m_nMode & CArchive::load) == 0; }

  00043	8b 55 08	 mov	 edx, DWORD PTR _ar$[ebp]
  00046	8b 42 18	 mov	 eax, DWORD PTR [edx+24]
  00049	f7 d0		 not	 eax
  0004b	a8 01		 test	 al, 1
; File C:\Program Files (x86)\Microsoft Visual Studio\2019\Community\VC\Tools\MSVC\14.29.30133\atlmfc\include\afxtempl.h

; 73   : 	if (ar.IsStoring())

  0004d	74 36		 je	 SHORT $LN16@Serialize

; 74   : 	{
; 75   : 		TYPE* pData;
; 76   : 		UINT_PTR nElementsLeft;
; 77   : 
; 78   : 		nElementsLeft = nCount;
; 79   : 		pData = pElements;
; 80   : 		while( nElementsLeft > 0 )

  0004f	85 f6		 test	 esi, esi
  00051	74 29		 je	 SHORT $LN14@Serialize
$LL11@Serialize:

; 81   : 		{
; 82   : 			UINT nElementsToWrite;
; 83   : 
; 84   : 			nElementsToWrite = UINT(__min(nElementsLeft, INT_MAX/sizeof(TYPE)));

  00053	bb ff ff ff 1f	 mov	 ebx, 536870911		; 1fffffffH
  00058	3b f3		 cmp	 esi, ebx
  0005a	0f 42 de	 cmovb	 ebx, esi

; 85   : 			ar.Write(pData, nElementsToWrite*sizeof(TYPE));

  0005d	8d 3c 9d 00 00
	00 00		 lea	 edi, DWORD PTR [ebx*4]
  00064	57		 push	 edi
  00065	51		 push	 ecx
  00066	8b ca		 mov	 ecx, edx
  00068	e8 00 00 00 00	 call	 ?Write@CArchive@@QAEXPBXI@Z ; CArchive::Write

; 86   : 			nElementsLeft -= nElementsToWrite;
; 87   : 			pData += nElementsToWrite;

  0006d	8b 4d fc	 mov	 ecx, DWORD PTR _pData$1$[ebp]
  00070	8b 55 08	 mov	 edx, DWORD PTR _ar$[ebp]
  00073	03 cf		 add	 ecx, edi
  00075	89 4d fc	 mov	 DWORD PTR _pData$1$[ebp], ecx
  00078	2b f3		 sub	 esi, ebx
  0007a	75 d7		 jne	 SHORT $LL11@Serialize
$LN14@Serialize:
  0007c	5f		 pop	 edi

; 647  : }

  0007d	5e		 pop	 esi
  0007e	5b		 pop	 ebx
  0007f	8b e5		 mov	 esp, ebp
  00081	5d		 pop	 ebp
  00082	c2 04 00	 ret	 4
$LN16@Serialize:

; 97   : 		while( nElementsLeft > 0 )

  00085	85 f6		 test	 esi, esi
  00087	74 f3		 je	 SHORT $LN14@Serialize
  00089	0f 1f 80 00 00
	00 00		 npad	 7
$LL13@Serialize:

; 98   : 		{
; 99   : 			UINT nElementsToRead;
; 100  : 
; 101  : 			nElementsToRead = UINT(__min(nElementsLeft, INT_MAX/sizeof(TYPE)));

  00090	bf ff ff ff 1f	 mov	 edi, 536870911		; 1fffffffH
  00095	3b f7		 cmp	 esi, edi
  00097	0f 42 fe	 cmovb	 edi, esi

; 102  : 			ar.EnsureRead(pData, nElementsToRead*sizeof(TYPE));

  0009a	8d 1c bd 00 00
	00 00		 lea	 ebx, DWORD PTR [edi*4]
; File C:\Program Files (x86)\Microsoft Visual Studio\2019\Community\VC\Tools\MSVC\14.29.30133\atlmfc\include\afx.inl

; 399  : 	UINT nRead=Read(lpBuf, nCount);

  000a1	53		 push	 ebx
  000a2	51		 push	 ecx
  000a3	8b ca		 mov	 ecx, edx
  000a5	e8 00 00 00 00	 call	 ?Read@CArchive@@QAEIPAXI@Z ; CArchive::Read

; 400  : 	if(nRead!=nCount)

  000aa	3b c3		 cmp	 eax, ebx
  000ac	75 18		 jne	 SHORT $LN30@Serialize
; File C:\Program Files (x86)\Microsoft Visual Studio\2019\Community\VC\Tools\MSVC\14.29.30133\atlmfc\include\afxtempl.h

; 97   : 		while( nElementsLeft > 0 )

  000ae	8b 4d fc	 mov	 ecx, DWORD PTR _pData$1$[ebp]
  000b1	8b 55 08	 mov	 edx, DWORD PTR _ar$[ebp]

; 103  : 			nElementsLeft -= nElementsToRead;
; 104  : 			pData += nElementsToRead;

  000b4	03 cb		 add	 ecx, ebx
  000b6	89 4d fc	 mov	 DWORD PTR _pData$1$[ebp], ecx
  000b9	2b f7		 sub	 esi, edi
  000bb	75 d3		 jne	 SHORT $LL13@Serialize

; 647  : }

  000bd	5f		 pop	 edi
  000be	5e		 pop	 esi
  000bf	5b		 pop	 ebx
  000c0	8b e5		 mov	 esp, ebp
  000c2	5d		 pop	 ebp
  000c3	c2 04 00	 ret	 4
$LN30@Serialize:
; File C:\Program Files (x86)\Microsoft Visual Studio\2019\Community\VC\Tools\MSVC\14.29.30133\atlmfc\include\afx.inl

; 402  : 		AfxThrowArchiveException(CArchiveException::endOfFile);

  000c6	6a 00		 push	 0
  000c8	6a 03		 push	 3
  000ca	e8 00 00 00 00	 call	 ?AfxThrowArchiveException@@YGXHPBD@Z ; AfxThrowArchiveException
$LN40@Serialize:
; File C:\Program Files (x86)\Microsoft Visual Studio\2019\Community\VC\Tools\MSVC\14.29.30133\atlmfc\include\afxtempl.h

; 68   : 	ENSURE(nCount == 0 || pElements != NULL);

  000cf	e8 00 00 00 00	 call	 ?AfxThrowInvalidArgException@@YGXXZ ; AfxThrowInvalidArgException
$LN38@Serialize:
  000d4	cc		 int	 3
?Serialize@?$CArray@PAVCRscDlg@@PAV1@@@UAEXAAVCArchive@@@Z ENDP ; CArray<CRscDlg *,CRscDlg *>::Serialize
_TEXT	ENDS
; Function compile flags: /Ogtp
; File C:\Program Files (x86)\Microsoft Visual Studio\2019\Community\VC\Tools\MSVC\14.29.30133\atlmfc\include\afxtempl.h
;	COMDAT ??1?$CArray@PAVCRscDlg@@PAV1@@@UAE@XZ
_TEXT	SEGMENT
??1?$CArray@PAVCRscDlg@@PAV1@@@UAE@XZ PROC		; CArray<CRscDlg *,CRscDlg *>::~CArray<CRscDlg *,CRscDlg *>, COMDAT
; _this$ = ecx

; 356  : 	ASSERT_VALID(this);
; 357  : 
; 358  : 	if (m_pData != NULL)

  00000	8b 41 04	 mov	 eax, DWORD PTR [ecx+4]
  00003	c7 01 00 00 00
	00		 mov	 DWORD PTR [ecx], OFFSET ??_7?$CArray@PAVCRscDlg@@PAV1@@@6B@
  00009	85 c0		 test	 eax, eax
  0000b	74 07		 je	 SHORT $LN5@CArray

; 359  : 	{
; 360  : 		for( int i = 0; i < m_nSize; i++ )
; 361  : 			(m_pData + i)->~TYPE();
; 362  : 		delete[] (BYTE*)m_pData;

  0000d	50		 push	 eax
  0000e	e8 00 00 00 00	 call	 ??_V@YAXPAX@Z		; operator delete[]
  00013	59		 pop	 ecx
$LN5@CArray:

; 363  : 	}
; 364  : }

  00014	c3		 ret	 0
??1?$CArray@PAVCRscDlg@@PAV1@@@UAE@XZ ENDP		; CArray<CRscDlg *,CRscDlg *>::~CArray<CRscDlg *,CRscDlg *>
_TEXT	ENDS
; Function compile flags: /Ogtp
; File C:\Program Files (x86)\Microsoft Visual Studio\2019\Community\VC\Tools\MSVC\14.29.30133\atlmfc\include\afxtempl.h
; File C:\Program Files (x86)\Windows Kits\10\Include\10.0.22000.0\ucrt\corecrt_memcpy_s.h
; File C:\Program Files (x86)\Microsoft Visual Studio\2019\Community\VC\Tools\MSVC\14.29.30133\atlmfc\include\afxtempl.h
; File C:\Program Files (x86)\Windows Kits\10\Include\10.0.22000.0\ucrt\corecrt_memcpy_s.h
; File C:\Program Files (x86)\Microsoft Visual Studio\2019\Community\VC\Tools\MSVC\14.29.30133\atlmfc\include\afx.h
; File C:\Program Files (x86)\Microsoft Visual Studio\2019\Community\VC\Tools\MSVC\14.29.30133\atlmfc\include\afxtempl.h
;	COMDAT ?SetSize@?$CArray@PAVCRscDlg@@PAV1@@@QAEXHH@Z
_TEXT	SEGMENT
__N$1$ = -8						; size = 4
__S1max$1$ = -4						; size = 4
__S2$1$ = 8						; size = 4
_nNewSize$ = 8						; size = 4
_pNewData$1$ = 12					; size = 4
_nGrowBy$ = 12						; size = 4
?SetSize@?$CArray@PAVCRscDlg@@PAV1@@@QAEXHH@Z PROC	; CArray<CRscDlg *,CRscDlg *>::SetSize, COMDAT
; _this$ = ecx

; 368  : {

  00000	55		 push	 ebp
  00001	8b ec		 mov	 ebp, esp
  00003	83 ec 08	 sub	 esp, 8
  00006	53		 push	 ebx
  00007	56		 push	 esi

; 369  : 	ASSERT_VALID(this);
; 370  : 	ASSERT(nNewSize >= 0);
; 371  : 
; 372  : 	if(nNewSize < 0 )

  00008	8b 75 08	 mov	 esi, DWORD PTR _nNewSize$[ebp]
  0000b	8b d9		 mov	 ebx, ecx
  0000d	57		 push	 edi
  0000e	85 f6		 test	 esi, esi
  00010	0f 88 9a 01 00
	00		 js	 $LN56@SetSize

; 373  : 		AfxThrowInvalidArgException();
; 374  : 
; 375  : 	if (nGrowBy >= 0)

  00016	8b 45 0c	 mov	 eax, DWORD PTR _nGrowBy$[ebp]
  00019	85 c0		 test	 eax, eax
  0001b	78 03		 js	 SHORT $LN82@SetSize

; 376  : 		m_nGrowBy = nGrowBy;  // set new size

  0001d	89 43 10	 mov	 DWORD PTR [ebx+16], eax
$LN82@SetSize:

; 377  : 
; 378  : 	if (nNewSize == 0)

  00020	8b 4b 04	 mov	 ecx, DWORD PTR [ebx+4]
  00023	85 f6		 test	 esi, esi
  00025	75 27		 jne	 SHORT $LN19@SetSize

; 379  : 	{
; 380  : 		// shrink to nothing
; 381  : 		if (m_pData != NULL)

  00027	85 c9		 test	 ecx, ecx
  00029	74 0c		 je	 SHORT $LN21@SetSize

; 382  : 		{
; 383  : 			for( int i = 0; i < m_nSize; i++ )
; 384  : 				(m_pData + i)->~TYPE();
; 385  : 			delete[] (BYTE*)m_pData;

  0002b	51		 push	 ecx
  0002c	e8 00 00 00 00	 call	 ??_V@YAXPAX@Z		; operator delete[]
  00031	83 c4 04	 add	 esp, 4

; 386  : 			m_pData = NULL;

  00034	89 73 04	 mov	 DWORD PTR [ebx+4], esi
$LN21@SetSize:

; 475  : }

  00037	5f		 pop	 edi
  00038	5e		 pop	 esi
  00039	c7 43 0c 00 00
	00 00		 mov	 DWORD PTR [ebx+12], 0
  00040	c7 43 08 00 00
	00 00		 mov	 DWORD PTR [ebx+8], 0
  00047	5b		 pop	 ebx
  00048	8b e5		 mov	 esp, ebp
  0004a	5d		 pop	 ebp
  0004b	c2 08 00	 ret	 8
$LN19@SetSize:

; 387  : 		}
; 388  : 		m_nSize = m_nMaxSize = 0;
; 389  : 	}
; 390  : 	else if (m_pData == NULL)

  0004e	85 c9		 test	 ecx, ecx
  00050	75 36		 jne	 SHORT $LN22@SetSize

; 391  : 	{
; 392  : 		// create buffer big enough to hold number of requested elements or
; 393  : 		// m_nGrowBy elements, whichever is larger.
; 394  : #ifdef SIZE_T_MAX
; 395  : 		ASSERT(nNewSize <= SIZE_T_MAX/sizeof(TYPE));    // no overflow
; 396  : #endif
; 397  : 		size_t nAllocSize = __max(nNewSize, m_nGrowBy);

  00052	8b 7b 10	 mov	 edi, DWORD PTR [ebx+16]
  00055	3b f7		 cmp	 esi, edi
  00057	0f 4f fe	 cmovg	 edi, esi

; 398  : 		m_pData = (TYPE*) new BYTE[(size_t)nAllocSize * sizeof(TYPE)];

  0005a	8d 34 bd 00 00
	00 00		 lea	 esi, DWORD PTR [edi*4]
  00061	56		 push	 esi
  00062	e8 00 00 00 00	 call	 ??_U@YAPAXI@Z		; operator new[]

; 399  : 		memset((void*)m_pData, 0, (size_t)nAllocSize * sizeof(TYPE));

  00067	56		 push	 esi
  00068	6a 00		 push	 0
  0006a	50		 push	 eax
  0006b	89 43 04	 mov	 DWORD PTR [ebx+4], eax
  0006e	e8 00 00 00 00	 call	 _memset

; 400  : 		for( int i = 0; i < nNewSize; i++ )
; 401  : #pragma push_macro("new")
; 402  : #undef new
; 403  : 			::new( (void*)( m_pData + i ) ) TYPE;
; 404  : #pragma pop_macro("new")
; 405  : 		m_nSize = nNewSize;

  00073	8b 45 08	 mov	 eax, DWORD PTR _nNewSize$[ebp]
  00076	83 c4 10	 add	 esp, 16			; 00000010H

; 475  : }

  00079	89 7b 0c	 mov	 DWORD PTR [ebx+12], edi
  0007c	89 43 08	 mov	 DWORD PTR [ebx+8], eax
  0007f	5f		 pop	 edi
  00080	5e		 pop	 esi
  00081	5b		 pop	 ebx
  00082	8b e5		 mov	 esp, ebp
  00084	5d		 pop	 ebp
  00085	c2 08 00	 ret	 8
$LN22@SetSize:

; 406  : 		m_nMaxSize = nAllocSize;
; 407  : 	}
; 408  : 	else if (nNewSize <= m_nMaxSize)

  00088	8b 7b 0c	 mov	 edi, DWORD PTR [ebx+12]
  0008b	3b f7		 cmp	 esi, edi
  0008d	7f 29		 jg	 SHORT $LN24@SetSize

; 409  : 	{
; 410  : 		// it fits
; 411  : 		if (nNewSize > m_nSize)

  0008f	8b 53 08	 mov	 edx, DWORD PTR [ebx+8]
  00092	3b f2		 cmp	 esi, edx
  00094	7e 16		 jle	 SHORT $LN26@SetSize

; 412  : 		{
; 413  : 			// initialize the new elements
; 414  : 			memset((void*)(m_pData + m_nSize), 0, (size_t)(nNewSize-m_nSize) * sizeof(TYPE));

  00096	8b c6		 mov	 eax, esi
  00098	2b c2		 sub	 eax, edx
  0009a	c1 e0 02	 shl	 eax, 2
  0009d	50		 push	 eax
  0009e	8d 04 91	 lea	 eax, DWORD PTR [ecx+edx*4]
  000a1	6a 00		 push	 0
  000a3	50		 push	 eax
  000a4	e8 00 00 00 00	 call	 _memset
  000a9	83 c4 0c	 add	 esp, 12			; 0000000cH
$LN26@SetSize:

; 415  : 			for( int i = 0; i < nNewSize-m_nSize; i++ )
; 416  : #pragma push_macro("new")
; 417  : #undef new
; 418  : 				::new( (void*)( m_pData + m_nSize + i ) ) TYPE;
; 419  : #pragma pop_macro("new")
; 420  : 		}
; 421  : 		else if (m_nSize > nNewSize)
; 422  : 		{
; 423  : 			// destroy the old elements
; 424  : 			for( int i = 0; i < m_nSize-nNewSize; i++ )
; 425  : 				(m_pData + nNewSize + i)->~TYPE();
; 426  : 		}
; 427  : 		m_nSize = nNewSize;

  000ac	5f		 pop	 edi
  000ad	89 73 08	 mov	 DWORD PTR [ebx+8], esi

; 475  : }

  000b0	5e		 pop	 esi
  000b1	5b		 pop	 ebx
  000b2	8b e5		 mov	 esp, ebp
  000b4	5d		 pop	 ebp
  000b5	c2 08 00	 ret	 8
$LN24@SetSize:

; 428  : 	}
; 429  : 	else
; 430  : 	{
; 431  : 		// otherwise, grow array
; 432  : 		nGrowBy = m_nGrowBy;

  000b8	8b 43 10	 mov	 eax, DWORD PTR [ebx+16]

; 433  : 		if (nGrowBy == 0)

  000bb	85 c0		 test	 eax, eax
  000bd	75 22		 jne	 SHORT $LN37@SetSize

; 434  : 		{
; 435  : 			// heuristically determine growth when nGrowBy == 0
; 436  : 			//  (this avoids heap fragmentation in many situations)
; 437  : 			nGrowBy = m_nSize / 8;

  000bf	8b 43 08	 mov	 eax, DWORD PTR [ebx+8]
  000c2	99		 cdq
  000c3	83 e2 07	 and	 edx, 7
  000c6	03 c2		 add	 eax, edx
  000c8	c1 f8 03	 sar	 eax, 3

; 438  : 			nGrowBy = (nGrowBy < 4) ? 4 : ((nGrowBy > 1024) ? 1024 : nGrowBy);

  000cb	83 f8 04	 cmp	 eax, 4
  000ce	7d 07		 jge	 SHORT $LN36@SetSize
  000d0	b8 04 00 00 00	 mov	 eax, 4
  000d5	eb 0a		 jmp	 SHORT $LN37@SetSize
$LN36@SetSize:
  000d7	b9 00 04 00 00	 mov	 ecx, 1024		; 00000400H
  000dc	3b c1		 cmp	 eax, ecx
  000de	0f 4f c1	 cmovg	 eax, ecx
$LN37@SetSize:

; 439  : 		}
; 440  : 		INT_PTR nNewMax;
; 441  : 		if (nNewSize < m_nMaxSize + nGrowBy)

  000e1	03 f8		 add	 edi, eax
  000e3	3b f7		 cmp	 esi, edi
  000e5	7d 0b		 jge	 SHORT $LN30@SetSize

; 445  : 
; 446  : 		ASSERT(nNewMax >= m_nMaxSize);  // no wrap around
; 447  : 
; 448  : 		if(nNewMax  < m_nMaxSize)

  000e7	3b 7b 0c	 cmp	 edi, DWORD PTR [ebx+12]
  000ea	0f 8c c0 00 00
	00		 jl	 $LN56@SetSize
  000f0	eb 02		 jmp	 SHORT $LN32@SetSize
$LN30@SetSize:

; 442  : 			nNewMax = m_nMaxSize + nGrowBy;  // granularity
; 443  : 		else
; 444  : 			nNewMax = nNewSize;  // no slush

  000f2	8b fe		 mov	 edi, esi
$LN32@SetSize:

; 449  : 			AfxThrowInvalidArgException();
; 450  : 
; 451  : #ifdef SIZE_T_MAX
; 452  : 		ASSERT(nNewMax <= SIZE_T_MAX/sizeof(TYPE)); // no overflow
; 453  : #endif
; 454  : 		TYPE* pNewData = (TYPE*) new BYTE[(size_t)nNewMax * sizeof(TYPE)];

  000f4	8d 04 bd 00 00
	00 00		 lea	 eax, DWORD PTR [edi*4]
  000fb	50		 push	 eax
  000fc	89 45 fc	 mov	 DWORD PTR __S1max$1$[ebp], eax
  000ff	e8 00 00 00 00	 call	 ??_U@YAPAXI@Z		; operator new[]

; 455  : 
; 456  : 		// copy new data from old
; 457  : 		::ATL::Checked::memcpy_s(pNewData, (size_t)nNewMax * sizeof(TYPE),

  00104	8b 4b 08	 mov	 ecx, DWORD PTR [ebx+8]
  00107	83 c4 04	 add	 esp, 4
  0010a	8b 53 04	 mov	 edx, DWORD PTR [ebx+4]
  0010d	c1 e1 02	 shl	 ecx, 2
  00110	89 45 0c	 mov	 DWORD PTR _pNewData$1$[ebp], eax
  00113	89 4d f8	 mov	 DWORD PTR __N$1$[ebp], ecx
  00116	89 55 08	 mov	 DWORD PTR __S2$1$[ebp], edx
; File C:\Program Files (x86)\Windows Kits\10\Include\10.0.22000.0\ucrt\corecrt_memcpy_s.h

; 46   :         if (_SourceSize == 0)

  00119	85 c9		 test	 ecx, ecx
  0011b	74 20		 je	 SHORT $LN54@SetSize

; 47   :         {
; 48   :             return 0;
; 49   :         }
; 50   : 
; 51   :         _CRT_MEMCPY_S_VALIDATE_RETURN_ERRCODE(_Destination != NULL, EINVAL);

  0011d	85 c0		 test	 eax, eax
  0011f	74 7d		 je	 SHORT $LN84@SetSize

; 52   :         if (_Source == NULL || _DestinationSize < _SourceSize)

  00121	85 d2		 test	 edx, edx
  00123	74 51		 je	 SHORT $LN76@SetSize
  00125	8d 14 bd 00 00
	00 00		 lea	 edx, DWORD PTR [edi*4]
  0012c	3b d1		 cmp	 edx, ecx
  0012e	72 46		 jb	 SHORT $LN76@SetSize

; 58   : 
; 59   :             // Unreachable, but required to suppress /analyze warnings:
; 60   :             return EINVAL;
; 61   :         }
; 62   :         memcpy(_Destination, _Source, _SourceSize);

  00130	51		 push	 ecx
  00131	ff 75 08	 push	 DWORD PTR __S2$1$[ebp]
  00134	50		 push	 eax
  00135	e8 00 00 00 00	 call	 _memcpy
  0013a	83 c4 0c	 add	 esp, 12			; 0000000cH
$LN54@SetSize:
; File C:\Program Files (x86)\Microsoft Visual Studio\2019\Community\VC\Tools\MSVC\14.29.30133\atlmfc\include\afxtempl.h

; 462  : 		memset((void*)(pNewData + m_nSize), 0, (size_t)(nNewSize-m_nSize) * sizeof(TYPE));

  0013d	8b 4b 08	 mov	 ecx, DWORD PTR [ebx+8]
  00140	8b c6		 mov	 eax, esi
  00142	2b c1		 sub	 eax, ecx
  00144	c1 e0 02	 shl	 eax, 2
  00147	50		 push	 eax
  00148	8b 45 0c	 mov	 eax, DWORD PTR _pNewData$1$[ebp]
  0014b	6a 00		 push	 0
  0014d	8d 04 88	 lea	 eax, DWORD PTR [eax+ecx*4]
  00150	50		 push	 eax
  00151	e8 00 00 00 00	 call	 _memset

; 463  : 		for( int i = 0; i < nNewSize-m_nSize; i++ )
; 464  : #pragma push_macro("new")
; 465  : #undef new
; 466  : 			::new( (void*)( pNewData + m_nSize + i ) ) TYPE;
; 467  : #pragma pop_macro("new")
; 468  : 
; 469  : 		// get rid of old stuff (note: no destructors called)
; 470  : 		delete[] (BYTE*)m_pData;

  00156	ff 73 04	 push	 DWORD PTR [ebx+4]
  00159	e8 00 00 00 00	 call	 ??_V@YAXPAX@Z		; operator delete[]

; 471  : 		m_pData = pNewData;

  0015e	8b 45 0c	 mov	 eax, DWORD PTR _pNewData$1$[ebp]
  00161	83 c4 10	 add	 esp, 16			; 00000010H

; 475  : }

  00164	89 7b 0c	 mov	 DWORD PTR [ebx+12], edi
  00167	89 73 08	 mov	 DWORD PTR [ebx+8], esi
  0016a	89 43 04	 mov	 DWORD PTR [ebx+4], eax
  0016d	5f		 pop	 edi
  0016e	5e		 pop	 esi
  0016f	5b		 pop	 ebx
  00170	8b e5		 mov	 esp, ebp
  00172	5d		 pop	 ebp
  00173	c2 08 00	 ret	 8
$LN76@SetSize:
; File C:\Program Files (x86)\Windows Kits\10\Include\10.0.22000.0\ucrt\corecrt_memcpy_s.h

; 54   :             memset(_Destination, 0, _DestinationSize);

  00176	8b 5d fc	 mov	 ebx, DWORD PTR __S1max$1$[ebp]
  00179	53		 push	 ebx
  0017a	6a 00		 push	 0
  0017c	50		 push	 eax
  0017d	e8 00 00 00 00	 call	 _memset
  00182	83 c4 0c	 add	 esp, 12			; 0000000cH

; 55   : 
; 56   :             _CRT_MEMCPY_S_VALIDATE_RETURN_ERRCODE(_Source != NULL,                 EINVAL);

  00185	83 7d 08 00	 cmp	 DWORD PTR __S2$1$[ebp], 0
  00189	74 13		 je	 SHORT $LN84@SetSize

; 57   :             _CRT_MEMCPY_S_VALIDATE_RETURN_ERRCODE(_DestinationSize >= _SourceSize, ERANGE);

  0018b	3b 5d f8	 cmp	 ebx, DWORD PTR __N$1$[ebp]
  0018e	73 20		 jae	 SHORT $LN56@SetSize
  00190	ff 15 00 00 00
	00		 call	 DWORD PTR __imp___errno
  00196	c7 00 22 00 00
	00		 mov	 DWORD PTR [eax], 34	; 00000022H
  0019c	eb 0c		 jmp	 SHORT $LN85@SetSize
$LN84@SetSize:
; File C:\Program Files (x86)\Microsoft Visual Studio\2019\Community\VC\Tools\MSVC\14.29.30133\atlmfc\include\afx.h

; 517  : 		AfxThrowInvalidArgException();

  0019e	ff 15 00 00 00
	00		 call	 DWORD PTR __imp___errno
  001a4	c7 00 16 00 00
	00		 mov	 DWORD PTR [eax], 22	; 00000016H
$LN85@SetSize:
  001aa	ff 15 00 00 00
	00		 call	 DWORD PTR __imp___invalid_parameter_noinfo
$LN56@SetSize:
  001b0	e8 00 00 00 00	 call	 ?AfxThrowInvalidArgException@@YGXXZ ; AfxThrowInvalidArgException
$LN83@SetSize:
  001b5	cc		 int	 3
?SetSize@?$CArray@PAVCRscDlg@@PAV1@@@QAEXHH@Z ENDP	; CArray<CRscDlg *,CRscDlg *>::SetSize
_TEXT	ENDS
; Function compile flags: /Ogtp
; File C:\Program Files (x86)\Microsoft Visual Studio\2019\Community\VC\Tools\MSVC\14.29.30133\atlmfc\include\afxwin1.inl
; File C:\Program Files (x86)\Microsoft Visual Studio\2019\Community\VC\Tools\MSVC\14.29.30133\atlmfc\include\afx.inl
;	COMDAT ??_GCDlgAnalysis@@UAEPAXI@Z
_TEXT	SEGMENT
___flags$ = 8						; size = 4
??_GCDlgAnalysis@@UAEPAXI@Z PROC			; CDlgAnalysis::`scalar deleting destructor', COMDAT
; _this$ = ecx
  00000	55		 push	 ebp
  00001	8b ec		 mov	 ebp, esp
; File C:\Program Files (x86)\Microsoft Visual Studio\2019\Community\VC\Tools\MSVC\14.29.30133\atlmfc\include\afxwin1.inl

; 130  : 	{ }

  00003	56		 push	 esi
  00004	8b f1		 mov	 esi, ecx
  00006	8d 8e 10 01 00
	00		 lea	 ecx, DWORD PTR [esi+272]
  0000c	e8 00 00 00 00	 call	 ??1CStatic@@UAE@XZ	; CStatic::~CStatic
  00011	8d 8e 08 01 00
	00		 lea	 ecx, DWORD PTR [esi+264]
  00017	c7 01 00 00 00
	00		 mov	 DWORD PTR [ecx], OFFSET ??_7CBrush@@6B@
  0001d	e8 00 00 00 00	 call	 ??1CGdiObject@@UAE@XZ	; CGdiObject::~CGdiObject
  00022	8d 8e b4 00 00
	00		 lea	 ecx, DWORD PTR [esi+180]

; 155  : 	{ }

  00028	c7 01 00 00 00
	00		 mov	 DWORD PTR [ecx], OFFSET ??_7CFont@@6B@
  0002e	e8 00 00 00 00	 call	 ??1CGdiObject@@UAE@XZ	; CGdiObject::~CGdiObject
  00033	8b ce		 mov	 ecx, esi
  00035	e8 00 00 00 00	 call	 ??1CDialog@@UAE@XZ	; CDialog::~CDialog
  0003a	8b 45 08	 mov	 eax, DWORD PTR ___flags$[ebp]
  0003d	a8 01		 test	 al, 1
  0003f	74 22		 je	 SHORT $LN18@scalar
  00041	a8 04		 test	 al, 4
  00043	75 10		 jne	 SHORT $LN3@scalar
; File C:\Program Files (x86)\Microsoft Visual Studio\2019\Community\VC\Tools\MSVC\14.29.30133\atlmfc\include\afx.inl

; 112  : 	{ ::operator delete(p); }

  00045	56		 push	 esi
  00046	e8 00 00 00 00	 call	 ??3@YAXPAX@Z		; operator delete
  0004b	83 c4 04	 add	 esp, 4
  0004e	8b c6		 mov	 eax, esi
  00050	5e		 pop	 esi
  00051	5d		 pop	 ebp
  00052	c2 04 00	 ret	 4
$LN3@scalar:
  00055	68 98 01 00 00	 push	 408			; 00000198H
  0005a	56		 push	 esi
  0005b	e8 00 00 00 00	 call	 ?__global_delete@@YAXPAXI@Z ; __global_delete
  00060	83 c4 08	 add	 esp, 8
$LN18@scalar:
  00063	8b c6		 mov	 eax, esi
  00065	5e		 pop	 esi
  00066	5d		 pop	 ebp
  00067	c2 04 00	 ret	 4
??_GCDlgAnalysis@@UAEPAXI@Z ENDP			; CDlgAnalysis::`scalar deleting destructor'
_TEXT	ENDS
; Function compile flags: /Ogtp
; File D:\git\src\IBK\IBK_DRFN\ProjSrc\SrcChartEx\ChartAddIn\ChartPatternAddIn\DlgAnalysis.cpp
;	COMDAT ?GetMessageMap@CDlgAnalysis@@MBEPBUAFX_MSGMAP@@XZ
_TEXT	SEGMENT
?GetMessageMap@CDlgAnalysis@@MBEPBUAFX_MSGMAP@@XZ PROC	; CDlgAnalysis::GetMessageMap, COMDAT
; _this$ = ecx

; 59   : BEGIN_MESSAGE_MAP(CDlgAnalysis, CDialog)

  00000	b8 00 00 00 00	 mov	 eax, OFFSET ?messageMap@?1??GetThisMessageMap@CDlgAnalysis@@KGPBUAFX_MSGMAP@@XZ@4U3@B
  00005	c3		 ret	 0
?GetMessageMap@CDlgAnalysis@@MBEPBUAFX_MSGMAP@@XZ ENDP	; CDlgAnalysis::GetMessageMap
_TEXT	ENDS
; Function compile flags: /Ogtp
; File D:\git\src\IBK\IBK_DRFN\ProjSrc\SrcChartEx\ChartAddIn\ChartPatternAddIn\DlgAnalysis.cpp
;	COMDAT ?GetThisMessageMap@CDlgAnalysis@@KGPBUAFX_MSGMAP@@XZ
_TEXT	SEGMENT
?GetThisMessageMap@CDlgAnalysis@@KGPBUAFX_MSGMAP@@XZ PROC ; CDlgAnalysis::GetThisMessageMap, COMDAT

; 60   : 	//{{AFX_MSG_MAP(CDlgAnalysis)
; 61   : 	ON_WM_DESTROY()
; 62   : 	ON_WM_CTLCOLOR()
; 63   : 	ON_BN_CLICKED(IDC_RDO_WAVE, OnRdoWave)
; 64   : 	ON_BN_CLICKED(IDC_RDO_CANDLE, OnRdoCandle)
; 65   : 	ON_BN_CLICKED(IDC_BTN_ENVSETUP, OnBtnEnvSetup)
; 66   : 	//}}AFX_MSG_MAP
; 67   : END_MESSAGE_MAP()

  00000	b8 00 00 00 00	 mov	 eax, OFFSET ?messageMap@?1??GetThisMessageMap@CDlgAnalysis@@KGPBUAFX_MSGMAP@@XZ@4U3@B
  00005	c3		 ret	 0
?GetThisMessageMap@CDlgAnalysis@@KGPBUAFX_MSGMAP@@XZ ENDP ; CDlgAnalysis::GetThisMessageMap
_TEXT	ENDS
; Function compile flags: /Ogtp
; File D:\git\src\IBK\IBK_DRFN\ProjSrc\SrcChartEx\ChartAddIn\ChartPatternAddIn\DlgAnalysis.cpp
; File C:\Program Files (x86)\Microsoft Visual Studio\2019\Community\VC\Tools\MSVC\14.29.30133\atlmfc\include\afxwin1.inl
; File D:\git\src\IBK\IBK_DRFN\ProjSrc\SrcChartEx\ChartAddIn\ChartPatternAddIn\Include_Chart\Dll_Load\IMetaTable.h
; File C:\Program Files (x86)\Microsoft Visual Studio\2019\Community\VC\Tools\MSVC\14.29.30133\atlmfc\include\afxwin1.inl
; File D:\git\src\IBK\IBK_DRFN\ProjSrc\SrcChartEx\ChartAddIn\ChartPatternAddIn\DlgAnalysis.cpp
; File C:\Program Files (x86)\Microsoft Visual Studio\2019\Community\VC\Tools\MSVC\14.29.30133\atlmfc\include\afxwin1.inl
; File C:\Program Files (x86)\Microsoft Visual Studio\2019\Community\VC\Tools\MSVC\14.29.30133\atlmfc\include\afxtempl.h
; File D:\git\src\IBK\IBK_DRFN\ProjSrc\SrcChartEx\ChartAddIn\ChartPatternAddIn\Include_Chart\Dll_Load\IMetaTable.h
; File C:\Program Files (x86)\Microsoft Visual Studio\2019\Community\VC\Tools\MSVC\14.29.30133\atlmfc\include\afxwin1.inl
; File D:\git\src\IBK\IBK_DRFN\ProjSrc\SrcChartEx\ChartAddIn\ChartPatternAddIn\DlgAnalysis.cpp
;	COMDAT ?OnBtnEnvSetup@CDlgAnalysis@@IAEXXZ
_TEXT	SEGMENT
___mlrs__$ = -508					; size = 4
_dlgSetup$ = -504					; size = 488
__$ArrayPad$ = -16					; size = 4
__$EHRec$ = -12						; size = 12
?OnBtnEnvSetup@CDlgAnalysis@@IAEXXZ PROC		; CDlgAnalysis::OnBtnEnvSetup, COMDAT
; _this$ = ecx

; 1074 : {

  00000	55		 push	 ebp
  00001	8b ec		 mov	 ebp, esp
  00003	6a ff		 push	 -1
  00005	68 00 00 00 00	 push	 __ehhandler$?OnBtnEnvSetup@CDlgAnalysis@@IAEXXZ
  0000a	64 a1 00 00 00
	00		 mov	 eax, DWORD PTR fs:0
  00010	50		 push	 eax
  00011	81 ec f0 01 00
	00		 sub	 esp, 496		; 000001f0H
  00017	a1 00 00 00 00	 mov	 eax, DWORD PTR ___security_cookie
  0001c	33 c5		 xor	 eax, ebp
  0001e	89 45 f0	 mov	 DWORD PTR __$ArrayPad$[ebp], eax
  00021	53		 push	 ebx
  00022	56		 push	 esi
  00023	57		 push	 edi
  00024	50		 push	 eax
  00025	8d 45 f4	 lea	 eax, DWORD PTR __$EHRec$[ebp]
  00028	64 a3 00 00 00
	00		 mov	 DWORD PTR fs:0, eax
  0002e	8b d9		 mov	 ebx, ecx

; 1075 : 	// (2004.10.19, ) Resource   Module State .
; 1076 : 	//AFX_MANAGE_STATE( AfxGetStaticModuleState());
; 1077 : 
; 1078 : 	ML_SET_LANGUAGE_RES();

  00030	e8 00 00 00 00	 call	 ?AfxGetStaticModuleState@@YGPAVAFX_MODULE_STATE@@XZ ; AfxGetStaticModuleState
  00035	b9 00 00 00 00	 mov	 ecx, OFFSET ?g_iMetaTable@@3VIMetaTable@@A ; g_iMetaTable
  0003a	8b 40 08	 mov	 eax, DWORD PTR [eax+8]
  0003d	50		 push	 eax
  0003e	ff b3 94 01 00
	00		 push	 DWORD PTR [ebx+404]
  00044	e8 00 00 00 00	 call	 ?LoadResourceDLL@IMetaTable@@QAEPAUHINSTANCE__@@PAUHWND__@@PAU2@@Z ; IMetaTable::LoadResourceDLL
  00049	8b f8		 mov	 edi, eax
; File C:\Program Files (x86)\Microsoft Visual Studio\2019\Community\VC\Tools\MSVC\14.29.30133\atlmfc\include\afxwin1.inl

; 25   : 		return afxCurrentResourceHandle; }

  0004b	e8 00 00 00 00	 call	 ?AfxGetModuleState@@YGPAVAFX_MODULE_STATE@@XZ ; AfxGetModuleState
; File D:\git\src\IBK\IBK_DRFN\ProjSrc\SrcChartEx\ChartAddIn\ChartPatternAddIn\Include_Chart\Dll_Load\IMetaTable.h

; 1031 : 		m_hInstance = AfxGetResourceHandle();

  00050	8b 70 0c	 mov	 esi, DWORD PTR [eax+12]
  00053	89 b5 04 fe ff
	ff		 mov	 DWORD PTR ___mlrs__$[ebp], esi
; File C:\Program Files (x86)\Microsoft Visual Studio\2019\Community\VC\Tools\MSVC\14.29.30133\atlmfc\include\afxwin1.inl

; 27   : 	{ ASSERT(hInstResource != NULL); afxCurrentResourceHandle = hInstResource; }

  00059	e8 00 00 00 00	 call	 ?AfxGetModuleState@@YGPAVAFX_MODULE_STATE@@XZ ; AfxGetModuleState
  0005e	89 78 0c	 mov	 DWORD PTR [eax+12], edi
; File D:\git\src\IBK\IBK_DRFN\ProjSrc\SrcChartEx\ChartAddIn\ChartPatternAddIn\DlgAnalysis.cpp

; 1081 : 	CDlgSetup dlgSetup;

  00061	6a 00		 push	 0
  00063	8d 8d 08 fe ff
	ff		 lea	 ecx, DWORD PTR _dlgSetup$[ebp]
  00069	c7 45 fc 00 00
	00 00		 mov	 DWORD PTR __$EHRec$[ebp+8], 0
  00070	e8 00 00 00 00	 call	 ??0CDlgSetup@@QAE@PAVCWnd@@@Z ; CDlgSetup::CDlgSetup

; 1082 : 	dlgSetup.SetPatternEnvData(&(m_pPatternMaker->m_PatternEnvData));

  00075	8b 83 a8 00 00
	00		 mov	 eax, DWORD PTR [ebx+168]
  0007b	8d 8d 08 fe ff
	ff		 lea	 ecx, DWORD PTR _dlgSetup$[ebp]
  00081	83 c0 20	 add	 eax, 32			; 00000020H
  00084	c6 45 fc 01	 mov	 BYTE PTR __$EHRec$[ebp+8], 1
  00088	50		 push	 eax
  00089	e8 00 00 00 00	 call	 ?SetPatternEnvData@CDlgSetup@@QAEXPAVCPatternEnvData@@@Z ; CDlgSetup::SetPatternEnvData

; 1083 : 
; 1084 : 	if( dlgSetup.DoModal() == IDOK )

  0008e	8d 8d 08 fe ff
	ff		 lea	 ecx, DWORD PTR _dlgSetup$[ebp]
  00094	e8 00 00 00 00	 call	 ?DoModal@CRscDlg@@UAEHXZ ; CRscDlg::DoModal
  00099	83 f8 01	 cmp	 eax, 1
  0009c	75 2e		 jne	 SHORT $LN2@OnBtnEnvSe

; 1085 : 	{
; 1086 : 		m_pPatternMaker->DeleteAllData();				//    

  0009e	8b 8b a8 00 00
	00		 mov	 ecx, DWORD PTR [ebx+168]
  000a4	e8 00 00 00 00	 call	 ?DeleteAllData@CPatternMaker@@QAEXXZ ; CPatternMaker::DeleteAllData

; 1087 : 		m_pPatternMaker->InitSelectedPatternData();		// Init Selected Pattern Data

  000a9	8b 8b a8 00 00
	00		 mov	 ecx, DWORD PTR [ebx+168]
  000af	6a 00		 push	 0
  000b1	e8 00 00 00 00	 call	 ?InitSelectedPatternData@CPatternMaker@@QAEXH@Z ; CPatternMaker::InitSelectedPatternData

; 1088 : 
; 1089 : 		// Get All WavePattern Data
; 1090 : 		m_pPatternMaker->GetAllData_AboutPattern();

  000b6	8b 8b a8 00 00
	00		 mov	 ecx, DWORD PTR [ebx+168]
  000bc	e8 00 00 00 00	 call	 ?GetAllData_AboutPattern@CPatternMaker@@QAEXXZ ; CPatternMaker::GetAllData_AboutPattern

; 1091 : 		// Get All CandlePattern Data
; 1092 : 		m_pPatternMaker->GetAllData_AboutCandlePattern();

  000c1	8b 8b a8 00 00
	00		 mov	 ecx, DWORD PTR [ebx+168]
  000c7	e8 00 00 00 00	 call	 ?GetAllData_AboutCandlePattern@CPatternMaker@@QAEXXZ ; CPatternMaker::GetAllData_AboutCandlePattern
$LN2@OnBtnEnvSe:

; 1093 : 	}	
; 1094 : 
; 1095 : 	m_pPatternMaker->RefreshChart();

  000cc	8b 8b a8 00 00
	00		 mov	 ecx, DWORD PTR [ebx+168]
  000d2	e8 00 00 00 00	 call	 ?RefreshChart@CPatternMaker@@QAEXXZ ; CPatternMaker::RefreshChart
; File C:\Program Files (x86)\Microsoft Visual Studio\2019\Community\VC\Tools\MSVC\14.29.30133\atlmfc\include\afxwin1.inl

; 130  : 	{ }

  000d7	8d 4d e8	 lea	 ecx, DWORD PTR _dlgSetup$[ebp+480]
  000da	c7 45 e8 00 00
	00 00		 mov	 DWORD PTR _dlgSetup$[ebp+480], OFFSET ??_7CBrush@@6B@
  000e1	e8 00 00 00 00	 call	 ??1CGdiObject@@UAE@XZ	; CGdiObject::~CGdiObject
; File C:\Program Files (x86)\Microsoft Visual Studio\2019\Community\VC\Tools\MSVC\14.29.30133\atlmfc\include\afxtempl.h

; 358  : 	if (m_pData != NULL)

  000e6	8b 45 c4	 mov	 eax, DWORD PTR _dlgSetup$[ebp+444]
  000e9	c7 45 c0 00 00
	00 00		 mov	 DWORD PTR _dlgSetup$[ebp+440], OFFSET ??_7?$CArray@PAVCRscDlg@@PAV1@@@6B@
  000f0	85 c0		 test	 eax, eax
  000f2	74 09		 je	 SHORT $LN22@OnBtnEnvSe

; 359  : 	{
; 360  : 		for( int i = 0; i < m_nSize; i++ )
; 361  : 			(m_pData + i)->~TYPE();
; 362  : 		delete[] (BYTE*)m_pData;

  000f4	50		 push	 eax
  000f5	e8 00 00 00 00	 call	 ??_V@YAXPAX@Z		; operator delete[]
  000fa	83 c4 04	 add	 esp, 4
$LN22@OnBtnEnvSe:
  000fd	8d 8d b8 fe ff
	ff		 lea	 ecx, DWORD PTR _dlgSetup$[ebp+176]
  00103	e8 00 00 00 00	 call	 ??1CXTabCtrl@@UAE@XZ	; CXTabCtrl::~CXTabCtrl
  00108	8d 8d 08 fe ff
	ff		 lea	 ecx, DWORD PTR _dlgSetup$[ebp]
  0010e	e8 00 00 00 00	 call	 ??1CDialog@@UAE@XZ	; CDialog::~CDialog
; File D:\git\src\IBK\IBK_DRFN\ProjSrc\SrcChartEx\ChartAddIn\ChartPatternAddIn\Include_Chart\Dll_Load\IMetaTable.h

; 1035 : 	{

  00113	c7 45 fc 02 00
	00 00		 mov	 DWORD PTR __$EHRec$[ebp+8], 2
; File C:\Program Files (x86)\Microsoft Visual Studio\2019\Community\VC\Tools\MSVC\14.29.30133\atlmfc\include\afxwin1.inl

; 27   : 	{ ASSERT(hInstResource != NULL); afxCurrentResourceHandle = hInstResource; }

  0011a	e8 00 00 00 00	 call	 ?AfxGetModuleState@@YGPAVAFX_MODULE_STATE@@XZ ; AfxGetModuleState
  0011f	89 70 0c	 mov	 DWORD PTR [eax+12], esi
; File D:\git\src\IBK\IBK_DRFN\ProjSrc\SrcChartEx\ChartAddIn\ChartPatternAddIn\DlgAnalysis.cpp

; 1096 : }

  00122	8b 4d f4	 mov	 ecx, DWORD PTR __$EHRec$[ebp]
  00125	64 89 0d 00 00
	00 00		 mov	 DWORD PTR fs:0, ecx
  0012c	59		 pop	 ecx
  0012d	5f		 pop	 edi
  0012e	5e		 pop	 esi
  0012f	5b		 pop	 ebx
  00130	8b 4d f0	 mov	 ecx, DWORD PTR __$ArrayPad$[ebp]
  00133	33 cd		 xor	 ecx, ebp
  00135	e8 00 00 00 00	 call	 @__security_check_cookie@4
  0013a	8b e5		 mov	 esp, ebp
  0013c	5d		 pop	 ebp
  0013d	c3		 ret	 0
_TEXT	ENDS
;	COMDAT text$x
text$x	SEGMENT
__unwindfunclet$?OnBtnEnvSetup@CDlgAnalysis@@IAEXXZ$0:
  00000	8d 8d 04 fe ff
	ff		 lea	 ecx, DWORD PTR ___mlrs__$[ebp]
  00006	e9 00 00 00 00	 jmp	 ??1CMultiLanguageResourceSetter@@QAE@XZ ; CMultiLanguageResourceSetter::~CMultiLanguageResourceSetter
__unwindfunclet$?OnBtnEnvSetup@CDlgAnalysis@@IAEXXZ$1:
  0000b	8d 8d 08 fe ff
	ff		 lea	 ecx, DWORD PTR _dlgSetup$[ebp]
  00011	e9 00 00 00 00	 jmp	 ??1CDlgSetup@@UAE@XZ
  00016	cc		 int	 3
  00017	cc		 int	 3
  00018	cc		 int	 3
  00019	cc		 int	 3
  0001a	cc		 int	 3
__ehhandler$?OnBtnEnvSetup@CDlgAnalysis@@IAEXXZ:
  0001b	90		 npad	 1
  0001c	90		 npad	 1
  0001d	8b 54 24 08	 mov	 edx, DWORD PTR [esp+8]
  00021	8d 42 0c	 lea	 eax, DWORD PTR [edx+12]
  00024	8b 8a 00 fe ff
	ff		 mov	 ecx, DWORD PTR [edx-512]
  0002a	33 c8		 xor	 ecx, eax
  0002c	e8 00 00 00 00	 call	 @__security_check_cookie@4
  00031	8b 4a fc	 mov	 ecx, DWORD PTR [edx-4]
  00034	33 c8		 xor	 ecx, eax
  00036	e8 00 00 00 00	 call	 @__security_check_cookie@4
  0003b	b8 00 00 00 00	 mov	 eax, OFFSET __ehfuncinfo$?OnBtnEnvSetup@CDlgAnalysis@@IAEXXZ
  00040	e9 00 00 00 00	 jmp	 ___CxxFrameHandler3
text$x	ENDS
?OnBtnEnvSetup@CDlgAnalysis@@IAEXXZ ENDP		; CDlgAnalysis::OnBtnEnvSetup
; Function compile flags: /Ogtp
; File D:\git\src\IBK\IBK_DRFN\ProjSrc\SrcChartEx\ChartAddIn\ChartPatternAddIn\DlgAnalysis.cpp
;	COMDAT ?OnRdoCandle@CDlgAnalysis@@IAEXXZ
_TEXT	SEGMENT
?OnRdoCandle@CDlgAnalysis@@IAEXXZ PROC			; CDlgAnalysis::OnRdoCandle, COMDAT
; _this$ = ecx

; 962  : {

  00000	56		 push	 esi
  00001	8b f1		 mov	 esi, ecx

; 963  : 	if ( m_pGridWaveRptType1)

  00003	8b 8e b0 00 00
	00		 mov	 ecx, DWORD PTR [esi+176]
  00009	85 c9		 test	 ecx, ecx
  0000b	74 07		 je	 SHORT $LN2@OnRdoCandl

; 964  : 		m_pGridWaveRptType1->ShowWindow( SW_HIDE);

  0000d	6a 00		 push	 0
  0000f	e8 00 00 00 00	 call	 ?ShowWindow@CWnd@@QAEHH@Z ; CWnd::ShowWindow
$LN2@OnRdoCandl:

; 965  : 
; 966  : 	if ( m_pGridCandleRtpType1)

  00014	8b 8e ac 00 00
	00		 mov	 ecx, DWORD PTR [esi+172]
  0001a	5e		 pop	 esi
  0001b	85 c9		 test	 ecx, ecx
  0001d	74 07		 je	 SHORT $LN3@OnRdoCandl

; 967  : 		m_pGridCandleRtpType1->ShowWindow( SW_SHOW);

  0001f	6a 05		 push	 5
  00021	e8 00 00 00 00	 call	 ?ShowWindow@CWnd@@QAEHH@Z ; CWnd::ShowWindow
$LN3@OnRdoCandl:

; 968  : }

  00026	c3		 ret	 0
?OnRdoCandle@CDlgAnalysis@@IAEXXZ ENDP			; CDlgAnalysis::OnRdoCandle
_TEXT	ENDS
; Function compile flags: /Ogtp
; File D:\git\src\IBK\IBK_DRFN\ProjSrc\SrcChartEx\ChartAddIn\ChartPatternAddIn\DlgAnalysis.cpp
;	COMDAT ?OnRdoWave@CDlgAnalysis@@IAEXXZ
_TEXT	SEGMENT
?OnRdoWave@CDlgAnalysis@@IAEXXZ PROC			; CDlgAnalysis::OnRdoWave, COMDAT
; _this$ = ecx

; 953  : {

  00000	56		 push	 esi
  00001	8b f1		 mov	 esi, ecx

; 954  : 	if ( m_pGridWaveRptType1)

  00003	8b 8e b0 00 00
	00		 mov	 ecx, DWORD PTR [esi+176]
  00009	85 c9		 test	 ecx, ecx
  0000b	74 07		 je	 SHORT $LN2@OnRdoWave

; 955  : 		m_pGridWaveRptType1->ShowWindow( SW_SHOW);

  0000d	6a 05		 push	 5
  0000f	e8 00 00 00 00	 call	 ?ShowWindow@CWnd@@QAEHH@Z ; CWnd::ShowWindow
$LN2@OnRdoWave:

; 956  : 
; 957  : 	if ( m_pGridCandleRtpType1)

  00014	8b 8e ac 00 00
	00		 mov	 ecx, DWORD PTR [esi+172]
  0001a	5e		 pop	 esi
  0001b	85 c9		 test	 ecx, ecx
  0001d	74 07		 je	 SHORT $LN3@OnRdoWave

; 958  : 		m_pGridCandleRtpType1->ShowWindow( SW_HIDE);

  0001f	6a 00		 push	 0
  00021	e8 00 00 00 00	 call	 ?ShowWindow@CWnd@@QAEHH@Z ; CWnd::ShowWindow
$LN3@OnRdoWave:

; 959  : }

  00026	c3		 ret	 0
?OnRdoWave@CDlgAnalysis@@IAEXXZ ENDP			; CDlgAnalysis::OnRdoWave
_TEXT	ENDS
; Function compile flags: /Ogtp
; File D:\git\src\IBK\IBK_DRFN\ProjSrc\SrcChartEx\ChartAddIn\ChartPatternAddIn\DlgAnalysis.cpp
; File C:\Program Files (x86)\Microsoft Visual Studio\2019\Community\VC\Tools\MSVC\14.29.30133\atlmfc\include\afxwin1.inl
; File D:\git\src\IBK\IBK_DRFN\ProjSrc\SrcChartEx\ChartAddIn\ChartPatternAddIn\DlgAnalysis.cpp
;	COMDAT ?OnCtlColor@CDlgAnalysis@@IAEPAUHBRUSH__@@PAVCDC@@PAVCWnd@@I@Z
_TEXT	SEGMENT
_pDC$ = 8						; size = 4
_pWnd$ = 12						; size = 4
_nCtlColor$ = 16					; size = 4
?OnCtlColor@CDlgAnalysis@@IAEPAUHBRUSH__@@PAVCDC@@PAVCWnd@@I@Z PROC ; CDlgAnalysis::OnCtlColor, COMDAT
; _this$ = ecx

; 1057 : {

  00000	55		 push	 ebp
  00001	8b ec		 mov	 ebp, esp
  00003	57		 push	 edi

; 1058 : 	HBRUSH hbr = CDialog::OnCtlColor(pDC, pWnd, nCtlColor);

  00004	ff 75 10	 push	 DWORD PTR _nCtlColor$[ebp]
  00007	8b f9		 mov	 edi, ecx
  00009	ff 75 0c	 push	 DWORD PTR _pWnd$[ebp]
  0000c	ff 75 08	 push	 DWORD PTR _pDC$[ebp]
  0000f	e8 00 00 00 00	 call	 ?OnCtlColor@CWnd@@IAEPAUHBRUSH__@@PAVCDC@@PAV1@I@Z ; CWnd::OnCtlColor

; 1059 : 
; 1060 : 	
; 1061 : 	pDC->SetBkMode( TRANSPARENT);

  00014	8b 4d 08	 mov	 ecx, DWORD PTR _pDC$[ebp]
  00017	6a 01		 push	 1
  00019	e8 00 00 00 00	 call	 ?SetBkMode@CDC@@QAEHH@Z	; CDC::SetBkMode

; 1062 : 
; 1063 : 	if ( nCtlColor == CTLCOLOR_STATIC)
; 1064 : 	{
; 1065 : 	}
; 1066 : 
; 1067 : 	hbr = m_brBack;

  0001e	8d 87 08 01 00
	00		 lea	 eax, DWORD PTR [edi+264]
  00024	5f		 pop	 edi
; File C:\Program Files (x86)\Microsoft Visual Studio\2019\Community\VC\Tools\MSVC\14.29.30133\atlmfc\include\afxwin1.inl

; 124  : 	{ return (HBRUSH)(this == NULL ? NULL : m_hObject); }

  00025	85 c0		 test	 eax, eax
  00027	75 04		 jne	 SHORT $LN6@OnCtlColor
; File D:\git\src\IBK\IBK_DRFN\ProjSrc\SrcChartEx\ChartAddIn\ChartPatternAddIn\DlgAnalysis.cpp

; 1071 : }

  00029	5d		 pop	 ebp
  0002a	c2 0c 00	 ret	 12			; 0000000cH
$LN6@OnCtlColor:

; 1068 : 	
; 1069 : 	// TODO: Return a different brush if the default is not desired
; 1070 : 	return hbr;

  0002d	8b 40 04	 mov	 eax, DWORD PTR [eax+4]

; 1071 : }

  00030	5d		 pop	 ebp
  00031	c2 0c 00	 ret	 12			; 0000000cH
?OnCtlColor@CDlgAnalysis@@IAEPAUHBRUSH__@@PAVCDC@@PAVCWnd@@I@Z ENDP ; CDlgAnalysis::OnCtlColor
_TEXT	ENDS
; Function compile flags: /Ogtp
; File D:\git\src\IBK\IBK_DRFN\ProjSrc\SrcChartEx\ChartAddIn\ChartPatternAddIn\DlgAnalysis.cpp
; File C:\Program Files (x86)\Microsoft Visual Studio\2019\Community\VC\Tools\MSVC\14.29.30133\atlmfc\include\afxwin1.inl
; File D:\git\src\IBK\IBK_DRFN\ProjSrc\SrcChartEx\ChartAddIn\ChartPatternAddIn\DlgAnalysis.cpp
;	COMDAT ?OnDestroy@CDlgAnalysis@@IAEXXZ
_TEXT	SEGMENT
?OnDestroy@CDlgAnalysis@@IAEXXZ PROC			; CDlgAnalysis::OnDestroy, COMDAT
; _this$ = ecx

; 334  : {	

  00000	56		 push	 esi
  00001	8b f1		 mov	 esi, ecx

; 335  : 	// Wave Pattern Grid
; 336  : 	if( m_pGridWaveRptType1)	delete m_pGridWaveRptType1;

  00003	8b 8e b0 00 00
	00		 mov	 ecx, DWORD PTR [esi+176]
  00009	85 c9		 test	 ecx, ecx
  0000b	74 07		 je	 SHORT $LN6@OnDestroy
  0000d	8b 01		 mov	 eax, DWORD PTR [ecx]
  0000f	6a 01		 push	 1
  00011	ff 50 04	 call	 DWORD PTR [eax+4]
$LN6@OnDestroy:

; 337  : 	m_pGridWaveRptType1 = NULL;
; 338  : 
; 339  : 	// Candle Pattern Grid
; 340  : 	if( m_pGridCandleRtpType1)	delete m_pGridCandleRtpType1;

  00014	8b 8e ac 00 00
	00		 mov	 ecx, DWORD PTR [esi+172]
  0001a	c7 86 b0 00 00
	00 00 00 00 00	 mov	 DWORD PTR [esi+176], 0
  00024	85 c9		 test	 ecx, ecx
  00026	74 07		 je	 SHORT $LN8@OnDestroy
  00028	8b 01		 mov	 eax, DWORD PTR [ecx]
  0002a	6a 01		 push	 1
  0002c	ff 50 04	 call	 DWORD PTR [eax+4]
$LN8@OnDestroy:

; 345  : 	if ( m_brBack.GetSafeHandle())	m_brBack.DeleteObject();

  0002f	8d 8e 08 01 00
	00		 lea	 ecx, DWORD PTR [esi+264]
  00035	c7 86 ac 00 00
	00 00 00 00 00	 mov	 DWORD PTR [esi+172], 0
; File C:\Program Files (x86)\Microsoft Visual Studio\2019\Community\VC\Tools\MSVC\14.29.30133\atlmfc\include\afxwin1.inl

; 68   : 	{ return this == NULL ? NULL : m_hObject; }

  0003f	85 c9		 test	 ecx, ecx
  00041	74 0b		 je	 SHORT $LN4@OnDestroy
; File D:\git\src\IBK\IBK_DRFN\ProjSrc\SrcChartEx\ChartAddIn\ChartPatternAddIn\DlgAnalysis.cpp

; 345  : 	if ( m_brBack.GetSafeHandle())	m_brBack.DeleteObject();

  00043	83 79 04 00	 cmp	 DWORD PTR [ecx+4], 0
  00047	74 05		 je	 SHORT $LN4@OnDestroy
  00049	e8 00 00 00 00	 call	 ?DeleteObject@CGdiObject@@QAEHXZ ; CGdiObject::DeleteObject
$LN4@OnDestroy:

; 346  : 
; 347  : 
; 348  : 	CDialog::OnDestroy();

  0004e	8b ce		 mov	 ecx, esi
  00050	5e		 pop	 esi
  00051	e9 00 00 00 00	 jmp	 ?OnDestroy@CWnd@@IAEXXZ	; CWnd::OnDestroy
?OnDestroy@CDlgAnalysis@@IAEXXZ ENDP			; CDlgAnalysis::OnDestroy
_TEXT	ENDS
; Function compile flags: /Ogtp
; File D:\git\src\IBK\IBK_DRFN\ProjSrc\SrcChartEx\ChartAddIn\ChartPatternAddIn\DlgAnalysis.cpp
; File C:\Program Files (x86)\Microsoft Visual Studio\2019\Community\VC\Tools\MSVC\14.29.30133\atlmfc\include\afxwin1.inl
; File D:\git\src\IBK\IBK_DRFN\ProjSrc\SrcChartEx\ChartAddIn\ChartPatternAddIn\Include_Chart\Dll_Load\IMetaTable.h
; File C:\Program Files (x86)\Microsoft Visual Studio\2019\Community\VC\Tools\MSVC\14.29.30133\atlmfc\include\afxwin1.inl
; File D:\git\src\IBK\IBK_DRFN\ProjSrc\SrcChartEx\ChartAddIn\ChartPatternAddIn\DlgAnalysis.cpp
; File C:\Program Files (x86)\Microsoft Visual Studio\2019\Community\VC\Tools\MSVC\14.29.30133\atlmfc\include\atlsimpstr.h
; File D:\git\src\IBK\IBK_DRFN\ProjSrc\SrcChartEx\ChartAddIn\ChartPatternAddIn\DlgAnalysis.cpp
; File C:\Program Files (x86)\Microsoft Visual Studio\2019\Community\VC\Tools\MSVC\14.29.30133\atlmfc\include\afxwin1.inl
; File D:\git\src\IBK\IBK_DRFN\ProjSrc\SrcChartEx\ChartAddIn\ChartPatternAddIn\DlgAnalysis.cpp
; File C:\Program Files (x86)\Microsoft Visual Studio\2019\Community\VC\Tools\MSVC\14.29.30133\atlmfc\include\afxwin1.inl
; File D:\git\src\IBK\IBK_DRFN\ProjSrc\SrcChartEx\ChartAddIn\ChartPatternAddIn\DlgAnalysis.cpp
; File C:\Program Files (x86)\Microsoft Visual Studio\2019\Community\VC\Tools\MSVC\14.29.30133\atlmfc\include\afxwin2.inl
; File C:\Program Files (x86)\Microsoft Visual Studio\2019\Community\VC\Tools\MSVC\14.29.30133\atlmfc\include\atltypes.h
; File C:\Program Files (x86)\Microsoft Visual Studio\2019\Community\VC\Tools\MSVC\14.29.30133\atlmfc\include\afxwin2.inl
; File D:\git\src\IBK\IBK_DRFN\ProjSrc\SrcChartEx\ChartAddIn\ChartPatternAddIn\DlgAnalysis.cpp
; File C:\Program Files (x86)\Microsoft Visual Studio\2019\Community\VC\Tools\MSVC\14.29.30133\atlmfc\include\atltypes.h
; File D:\git\src\IBK\IBK_DRFN\ProjSrc\SrcChartEx\ChartAddIn\ChartPatternAddIn\DlgAnalysis.cpp
; File D:\git\src\IBK\IBK_DRFN\ProjSrc\SrcChartEx\ChartAddIn\ChartPatternAddIn\Include_Chart\Dll_Load\IMetaTable.h
; File C:\Program Files (x86)\Microsoft Visual Studio\2019\Community\VC\Tools\MSVC\14.29.30133\atlmfc\include\afxwin1.inl
; File D:\git\src\IBK\IBK_DRFN\ProjSrc\SrcChartEx\ChartAddIn\ChartPatternAddIn\DlgAnalysis.cpp
;	COMDAT ?OnInitDialog@CDlgAnalysis@@MAEHXZ
_TEXT	SEGMENT
_dc$2 = -68						; size = 20
___mlrs__$ = -48					; size = 4
_hDC$1$ = -44						; size = 4
_bReposWin$1$ = -40					; size = 4
_width$1$ = -36						; size = 4
_strFont$3 = -36					; size = 4
_dlgRect$ = -32						; size = 16
__$ArrayPad$ = -16					; size = 4
__$EHRec$ = -12						; size = 12
?OnInitDialog@CDlgAnalysis@@MAEHXZ PROC			; CDlgAnalysis::OnInitDialog, COMDAT
; _this$ = ecx

; 73   : {

  00000	55		 push	 ebp
  00001	8b ec		 mov	 ebp, esp
  00003	6a ff		 push	 -1
  00005	68 00 00 00 00	 push	 __ehhandler$?OnInitDialog@CDlgAnalysis@@MAEHXZ
  0000a	64 a1 00 00 00
	00		 mov	 eax, DWORD PTR fs:0
  00010	50		 push	 eax
  00011	83 ec 38	 sub	 esp, 56			; 00000038H
  00014	a1 00 00 00 00	 mov	 eax, DWORD PTR ___security_cookie
  00019	33 c5		 xor	 eax, ebp
  0001b	89 45 f0	 mov	 DWORD PTR __$ArrayPad$[ebp], eax
  0001e	53		 push	 ebx
  0001f	56		 push	 esi
  00020	57		 push	 edi
  00021	50		 push	 eax
  00022	8d 45 f4	 lea	 eax, DWORD PTR __$EHRec$[ebp]
  00025	64 a3 00 00 00
	00		 mov	 DWORD PTR fs:0, eax
  0002b	8b d9		 mov	 ebx, ecx

; 74   : 	CDialog::OnInitDialog();

  0002d	e8 00 00 00 00	 call	 ?OnInitDialog@CDialog@@UAEHXZ ; CDialog::OnInitDialog

; 75   : 
; 76   : 	ML_SET_LANGUAGE_RES();

  00032	e8 00 00 00 00	 call	 ?AfxGetStaticModuleState@@YGPAVAFX_MODULE_STATE@@XZ ; AfxGetStaticModuleState
  00037	b9 00 00 00 00	 mov	 ecx, OFFSET ?g_iMetaTable@@3VIMetaTable@@A ; g_iMetaTable
  0003c	8b 40 08	 mov	 eax, DWORD PTR [eax+8]
  0003f	50		 push	 eax
  00040	ff b3 94 01 00
	00		 push	 DWORD PTR [ebx+404]
  00046	e8 00 00 00 00	 call	 ?LoadResourceDLL@IMetaTable@@QAEPAUHINSTANCE__@@PAUHWND__@@PAU2@@Z ; IMetaTable::LoadResourceDLL
  0004b	8b f8		 mov	 edi, eax
; File C:\Program Files (x86)\Microsoft Visual Studio\2019\Community\VC\Tools\MSVC\14.29.30133\atlmfc\include\afxwin1.inl

; 25   : 		return afxCurrentResourceHandle; }

  0004d	e8 00 00 00 00	 call	 ?AfxGetModuleState@@YGPAVAFX_MODULE_STATE@@XZ ; AfxGetModuleState
; File D:\git\src\IBK\IBK_DRFN\ProjSrc\SrcChartEx\ChartAddIn\ChartPatternAddIn\Include_Chart\Dll_Load\IMetaTable.h

; 1031 : 		m_hInstance = AfxGetResourceHandle();

  00052	8b 70 0c	 mov	 esi, DWORD PTR [eax+12]
  00055	89 75 d0	 mov	 DWORD PTR ___mlrs__$[ebp], esi
; File C:\Program Files (x86)\Microsoft Visual Studio\2019\Community\VC\Tools\MSVC\14.29.30133\atlmfc\include\afxwin1.inl

; 27   : 	{ ASSERT(hInstResource != NULL); afxCurrentResourceHandle = hInstResource; }

  00058	e8 00 00 00 00	 call	 ?AfxGetModuleState@@YGPAVAFX_MODULE_STATE@@XZ ; AfxGetModuleState
  0005d	89 78 0c	 mov	 DWORD PTR [eax+12], edi
; File D:\git\src\IBK\IBK_DRFN\ProjSrc\SrcChartEx\ChartAddIn\ChartPatternAddIn\DlgAnalysis.cpp

; 127  : 	CClientDC dc(this);

  00060	53		 push	 ebx
  00061	8d 4d bc	 lea	 ecx, DWORD PTR _dc$2[ebp]

; 75   : 
; 76   : 	ML_SET_LANGUAGE_RES();

  00064	c7 45 fc 00 00
	00 00		 mov	 DWORD PTR __$EHRec$[ebp+8], 0

; 127  : 	CClientDC dc(this);

  0006b	e8 00 00 00 00	 call	 ??0CClientDC@@QAE@PAVCWnd@@@Z ; CClientDC::CClientDC

; 128  : 	int PointSize					= 9;
; 129  : 	m_logFont.lfHeight				= -MulDiv(PointSize, GetDeviceCaps(dc.GetSafeHdc(), LOGPIXELSY), 72);

  00070	6a 48		 push	 72			; 00000048H
  00072	6a 5a		 push	 90			; 0000005aH
  00074	ff 75 c0	 push	 DWORD PTR _dc$2[ebp+4]
  00077	ff 15 00 00 00
	00		 call	 DWORD PTR __imp__GetDeviceCaps@8
  0007d	50		 push	 eax
  0007e	6a 09		 push	 9
  00080	ff 15 00 00 00
	00		 call	 DWORD PTR __imp__MulDiv@12
  00086	f7 d8		 neg	 eax

; 130  : 	m_logFont.lfWidth				= 0;

  00088	c7 83 c0 00 00
	00 00 00 00 00	 mov	 DWORD PTR [ebx+192], 0

; 131  : 	m_logFont.lfEscapement			= 0;
; 132  : 	m_logFont.lfOrientation			= 0;
; 133  : 	m_logFont.lfWeight				= FW_THIN;
; 134  : 	m_logFont.lfItalic				= FALSE;
; 135  : 	m_logFont.lfUnderline			= FALSE;
; 136  : 	m_logFont.lfStrikeOut			= FALSE;
; 137  : 	m_logFont.lfCharSet				= DEFAULT_CHARSET;
; 138  : 	m_logFont.lfOutPrecision		= OUT_CHARACTER_PRECIS;
; 139  : 	m_logFont.lfClipPrecision		= CLIP_CHARACTER_PRECIS;
; 140  : 	m_logFont.lfQuality				= DEFAULT_QUALITY;
; 141  : 	m_logFont.lfPitchAndFamily		= DEFAULT_PITCH | FF_ROMAN;
; 142  : // 2008.02.20 by LYH >>
; 143  : 	//strcpy(m_logFont.lfFaceName, "");
; 144  : 	CString strFont;

  00092	8d 4d dc	 lea	 ecx, DWORD PTR _strFont$3[ebp]
  00095	89 83 bc 00 00
	00		 mov	 DWORD PTR [ebx+188], eax
  0009b	c7 83 c4 00 00
	00 00 00 00 00	 mov	 DWORD PTR [ebx+196], 0
  000a5	c7 83 c8 00 00
	00 00 00 00 00	 mov	 DWORD PTR [ebx+200], 0
  000af	c7 83 cc 00 00
	00 64 00 00 00	 mov	 DWORD PTR [ebx+204], 100 ; 00000064H
  000b9	c7 83 d0 00 00
	00 00 00 00 01	 mov	 DWORD PTR [ebx+208], 16777216 ; 01000000H
  000c3	c7 83 d4 00 00
	00 02 01 00 10	 mov	 DWORD PTR [ebx+212], 268435714 ; 10000102H
  000cd	ff 15 00 00 00
	00		 call	 DWORD PTR __imp_??0?$CStringT@DV?$StrTraitMFC_DLL@DV?$ChTraitsCRT@D@ATL@@@@@ATL@@QAE@XZ

; 145  : 	strFont.LoadString(IDS_STRING_FONT);

  000d3	6a 5c		 push	 92			; 0000005cH
  000d5	8d 4d dc	 lea	 ecx, DWORD PTR _strFont$3[ebp]
  000d8	c6 45 fc 02	 mov	 BYTE PTR __$EHRec$[ebp+8], 2
  000dc	ff 15 00 00 00
	00		 call	 DWORD PTR __imp_?LoadStringA@?$CStringT@DV?$StrTraitMFC_DLL@DV?$ChTraitsCRT@D@ATL@@@@@ATL@@QAEHI@Z
; File C:\Program Files (x86)\Microsoft Visual Studio\2019\Community\VC\Tools\MSVC\14.29.30133\atlmfc\include\atlsimpstr.h

; 377  : 		return( m_pszData );

  000e2	8b 45 dc	 mov	 eax, DWORD PTR _strFont$3[ebp]
; File D:\git\src\IBK\IBK_DRFN\ProjSrc\SrcChartEx\ChartAddIn\ChartPatternAddIn\DlgAnalysis.cpp

; 146  : 	strcpy(m_logFont.lfFaceName, strFont);

  000e5	8b d3		 mov	 edx, ebx
  000e7	2b d0		 sub	 edx, eax
  000e9	0f 1f 80 00 00
	00 00		 npad	 7
$LL16@OnInitDial:
  000f0	8a 08		 mov	 cl, BYTE PTR [eax]
  000f2	8d 40 01	 lea	 eax, DWORD PTR [eax+1]
  000f5	88 8c 02 d7 00
	00 00		 mov	 BYTE PTR [edx+eax+215], cl
  000fc	84 c9		 test	 cl, cl
  000fe	75 f0		 jne	 SHORT $LL16@OnInitDial

; 149  : 	if( m_Font.GetSafeHandle() )

  00100	8d bb b4 00 00
	00		 lea	 edi, DWORD PTR [ebx+180]
; File C:\Program Files (x86)\Microsoft Visual Studio\2019\Community\VC\Tools\MSVC\14.29.30133\atlmfc\include\afxwin1.inl

; 68   : 	{ return this == NULL ? NULL : m_hObject; }

  00106	85 ff		 test	 edi, edi
  00108	74 0d		 je	 SHORT $LN14@OnInitDial
; File D:\git\src\IBK\IBK_DRFN\ProjSrc\SrcChartEx\ChartAddIn\ChartPatternAddIn\DlgAnalysis.cpp

; 149  : 	if( m_Font.GetSafeHandle() )

  0010a	83 7f 04 00	 cmp	 DWORD PTR [edi+4], 0
  0010e	74 07		 je	 SHORT $LN14@OnInitDial

; 150  : 		m_Font.DeleteObject();

  00110	8b cf		 mov	 ecx, edi
  00112	e8 00 00 00 00	 call	 ?DeleteObject@CGdiObject@@QAEHXZ ; CGdiObject::DeleteObject
$LN14@OnInitDial:
; File C:\Program Files (x86)\Microsoft Visual Studio\2019\Community\VC\Tools\MSVC\14.29.30133\atlmfc\include\afxwin1.inl

; 157  : 	{ return Attach(::CreateFontIndirect(lpLogFont)); }

  00117	8d 83 bc 00 00
	00		 lea	 eax, DWORD PTR [ebx+188]
  0011d	50		 push	 eax
  0011e	ff 15 00 00 00
	00		 call	 DWORD PTR __imp__CreateFontIndirectA@4
  00124	50		 push	 eax
  00125	8b cf		 mov	 ecx, edi
  00127	e8 00 00 00 00	 call	 ?Attach@CGdiObject@@QAEHPAX@Z ; CGdiObject::Attach
; File D:\git\src\IBK\IBK_DRFN\ProjSrc\SrcChartEx\ChartAddIn\ChartPatternAddIn\DlgAnalysis.cpp

; 153  : }

  0012c	8d 4d dc	 lea	 ecx, DWORD PTR _strFont$3[ebp]
  0012f	ff 15 00 00 00
	00		 call	 DWORD PTR __imp_??1?$CStringT@DV?$StrTraitMFC_DLL@DV?$ChTraitsCRT@D@ATL@@@@@ATL@@QAE@XZ
  00135	8d 4d bc	 lea	 ecx, DWORD PTR _dc$2[ebp]
  00138	c6 45 fc 00	 mov	 BYTE PTR __$EHRec$[ebp+8], 0
  0013c	e8 00 00 00 00	 call	 ??1CClientDC@@UAE@XZ	; CClientDC::~CClientDC

; 77   : 	
; 78   : 	// TODO: Add extra initialization here
; 79   : 	//  
; 80   : 	InitFont();
; 81   : 
; 82   : 	//   
; 83   : 	InitGrid_WaveRptType1();

  00141	8b cb		 mov	 ecx, ebx
  00143	e8 00 00 00 00	 call	 ?InitGrid_WaveRptType1@CDlgAnalysis@@QAEXXZ ; CDlgAnalysis::InitGrid_WaveRptType1

; 84   : 
; 85   : 	//   
; 86   : 	InitGrid_CandleRptType1();

  00148	8b cb		 mov	 ecx, ebx
  0014a	e8 00 00 00 00	 call	 ?InitGrid_CandleRptType1@CDlgAnalysis@@QAEXXZ ; CDlgAnalysis::InitGrid_CandleRptType1
; File C:\Program Files (x86)\Microsoft Visual Studio\2019\Community\VC\Tools\MSVC\14.29.30133\atlmfc\include\afxwin2.inl

; 84   : 	{ ASSERT(::IsWindow(m_hWnd)); ::GetWindowRect(m_hWnd, lpRect); }

  0014f	8d 45 e0	 lea	 eax, DWORD PTR _dlgRect$[ebp]
  00152	0f 57 c0	 xorps	 xmm0, xmm0
  00155	50		 push	 eax
  00156	ff 73 20	 push	 DWORD PTR [ebx+32]
; File C:\Program Files (x86)\Microsoft Visual Studio\2019\Community\VC\Tools\MSVC\14.29.30133\atlmfc\include\atltypes.h

; 528  : 	left = 0;

  00159	0f 11 45 e0	 movups	 XMMWORD PTR _dlgRect$[ebp], xmm0
; File C:\Program Files (x86)\Microsoft Visual Studio\2019\Community\VC\Tools\MSVC\14.29.30133\atlmfc\include\afxwin2.inl

; 84   : 	{ ASSERT(::IsWindow(m_hWnd)); ::GetWindowRect(m_hWnd, lpRect); }

  0015d	ff 15 00 00 00
	00		 call	 DWORD PTR __imp__GetWindowRect@8
; File D:\git\src\IBK\IBK_DRFN\ProjSrc\SrcChartEx\ChartAddIn\ChartPatternAddIn\DlgAnalysis.cpp

; 95   : 	HDC hDC = CreateDC("DISPLAY", NULL, NULL, NULL);

  00163	6a 00		 push	 0
  00165	6a 00		 push	 0
  00167	6a 00		 push	 0
  00169	68 00 00 00 00	 push	 OFFSET ??_C@_07JPHDIPNG@DISPLAY@
  0016e	ff 15 00 00 00
	00		 call	 DWORD PTR __imp__CreateDCA@16
  00174	8b f8		 mov	 edi, eax

; 96   :     int width = GetDeviceCaps(hDC, HORZRES);

  00176	6a 08		 push	 8
  00178	57		 push	 edi
  00179	89 7d d4	 mov	 DWORD PTR _hDC$1$[ebp], edi
  0017c	ff 15 00 00 00
	00		 call	 DWORD PTR __imp__GetDeviceCaps@8

; 97   :     int height = GetDeviceCaps(hDC, VERTRES);

  00182	6a 0a		 push	 10			; 0000000aH
  00184	57		 push	 edi
  00185	89 45 dc	 mov	 DWORD PTR _width$1$[ebp], eax
  00188	ff 15 00 00 00
	00		 call	 DWORD PTR __imp__GetDeviceCaps@8

; 98   : 	
; 99   : 	BOOL bReposWin = FALSE;
; 100  : 	if(dlgRect.bottom > height)

  0018e	8b 7d ec	 mov	 edi, DWORD PTR _dlgRect$[ebp+12]
  00191	8b 4d e4	 mov	 ecx, DWORD PTR _dlgRect$[ebp+4]
  00194	c7 45 d8 00 00
	00 00		 mov	 DWORD PTR _bReposWin$1$[ebp], 0
  0019b	3b f8		 cmp	 edi, eax
  0019d	7e 0e		 jle	 SHORT $LN2@OnInitDial

; 101  : 	{
; 102  : 		bReposWin = TRUE;
; 103  : 		dlgRect.top = height - dlgRect.Height();

  0019f	2b c7		 sub	 eax, edi
  001a1	c7 45 d8 01 00
	00 00		 mov	 DWORD PTR _bReposWin$1$[ebp], 1
  001a8	03 c8		 add	 ecx, eax
  001aa	89 4d e4	 mov	 DWORD PTR _dlgRect$[ebp+4], ecx
$LN2@OnInitDial:

; 104  : 	}
; 105  : 	if(dlgRect.right  > width )

  001ad	8b 55 e8	 mov	 edx, DWORD PTR _dlgRect$[ebp+8]
  001b0	8b 45 dc	 mov	 eax, DWORD PTR _width$1$[ebp]
  001b3	3b d0		 cmp	 edx, eax
  001b5	7e 10		 jle	 SHORT $LN3@OnInitDial

; 106  : 	{
; 107  : 		bReposWin = TRUE;
; 108  : 		dlgRect.left = width - dlgRect.Width();

  001b7	2b c2		 sub	 eax, edx
  001b9	89 45 dc	 mov	 DWORD PTR _width$1$[ebp], eax
  001bc	8b 45 e0	 mov	 eax, DWORD PTR _dlgRect$[ebp]
  001bf	03 45 dc	 add	 eax, DWORD PTR _width$1$[ebp]
  001c2	89 45 e0	 mov	 DWORD PTR _dlgRect$[ebp], eax

; 109  : 	}
; 110  : 	
; 111  : 	if(bReposWin)

  001c5	eb 09		 jmp	 SHORT $LN51@OnInitDial
$LN3@OnInitDial:
  001c7	83 7d d8 00	 cmp	 DWORD PTR _bReposWin$1$[ebp], 0
  001cb	74 16		 je	 SHORT $LN4@OnInitDial
  001cd	8b 45 e0	 mov	 eax, DWORD PTR _dlgRect$[ebp]
$LN51@OnInitDial:

; 112  : 		SetWindowPos(NULL, dlgRect.left, dlgRect.top, dlgRect.Width(), dlgRect.Height(), SW_SHOW);

  001d0	6a 05		 push	 5
; File C:\Program Files (x86)\Microsoft Visual Studio\2019\Community\VC\Tools\MSVC\14.29.30133\atlmfc\include\atltypes.h

; 581  : 	return bottom - top;

  001d2	2b f9		 sub	 edi, ecx

; 576  : 	return right - left;

  001d4	2b d0		 sub	 edx, eax
; File D:\git\src\IBK\IBK_DRFN\ProjSrc\SrcChartEx\ChartAddIn\ChartPatternAddIn\DlgAnalysis.cpp

; 112  : 		SetWindowPos(NULL, dlgRect.left, dlgRect.top, dlgRect.Width(), dlgRect.Height(), SW_SHOW);

  001d6	57		 push	 edi
  001d7	52		 push	 edx
  001d8	51		 push	 ecx
  001d9	50		 push	 eax
  001da	6a 00		 push	 0
  001dc	8b cb		 mov	 ecx, ebx
  001de	e8 00 00 00 00	 call	 ?SetWindowPos@CWnd@@QAEHPBV1@HHHHI@Z ; CWnd::SetWindowPos
$LN4@OnInitDial:

; 113  : 	// <------------------------------------------------------------------------------------------
; 114  : 	DeleteDC(hDC);

  001e3	ff 75 d4	 push	 DWORD PTR _hDC$1$[ebp]
  001e6	ff 15 00 00 00
	00		 call	 DWORD PTR __imp__DeleteDC@4
; File D:\git\src\IBK\IBK_DRFN\ProjSrc\SrcChartEx\ChartAddIn\ChartPatternAddIn\Include_Chart\Dll_Load\IMetaTable.h

; 1035 : 	{

  001ec	c7 45 fc 03 00
	00 00		 mov	 DWORD PTR __$EHRec$[ebp+8], 3
; File C:\Program Files (x86)\Microsoft Visual Studio\2019\Community\VC\Tools\MSVC\14.29.30133\atlmfc\include\afxwin1.inl

; 27   : 	{ ASSERT(hInstResource != NULL); afxCurrentResourceHandle = hInstResource; }

  001f3	e8 00 00 00 00	 call	 ?AfxGetModuleState@@YGPAVAFX_MODULE_STATE@@XZ ; AfxGetModuleState
  001f8	89 70 0c	 mov	 DWORD PTR [eax+12], esi
; File D:\git\src\IBK\IBK_DRFN\ProjSrc\SrcChartEx\ChartAddIn\ChartPatternAddIn\DlgAnalysis.cpp

; 119  : 	return TRUE;  // return TRUE unless you set the focus to a control

  001fb	b8 01 00 00 00	 mov	 eax, 1

; 120  : 	              // EXCEPTION: OCX Property Pages should return FALSE
; 121  : }

  00200	8b 4d f4	 mov	 ecx, DWORD PTR __$EHRec$[ebp]
  00203	64 89 0d 00 00
	00 00		 mov	 DWORD PTR fs:0, ecx
  0020a	59		 pop	 ecx
  0020b	5f		 pop	 edi
  0020c	5e		 pop	 esi
  0020d	5b		 pop	 ebx
  0020e	8b 4d f0	 mov	 ecx, DWORD PTR __$ArrayPad$[ebp]
  00211	33 cd		 xor	 ecx, ebp
  00213	e8 00 00 00 00	 call	 @__security_check_cookie@4
  00218	8b e5		 mov	 esp, ebp
  0021a	5d		 pop	 ebp
  0021b	c3		 ret	 0
_TEXT	ENDS
;	COMDAT text$x
text$x	SEGMENT
__unwindfunclet$?OnInitDialog@CDlgAnalysis@@MAEHXZ$0:
  00000	8d 4d d0	 lea	 ecx, DWORD PTR ___mlrs__$[ebp]
  00003	e9 00 00 00 00	 jmp	 ??1CMultiLanguageResourceSetter@@QAE@XZ ; CMultiLanguageResourceSetter::~CMultiLanguageResourceSetter
__unwindfunclet$?OnInitDialog@CDlgAnalysis@@MAEHXZ$1:
  00008	8d 4d bc	 lea	 ecx, DWORD PTR _dc$2[ebp]
  0000b	e9 00 00 00 00	 jmp	 ??1CClientDC@@UAE@XZ	; CClientDC::~CClientDC
__unwindfunclet$?OnInitDialog@CDlgAnalysis@@MAEHXZ$2:
  00010	8d 4d dc	 lea	 ecx, DWORD PTR _strFont$3[ebp]
  00013	ff 25 00 00 00
	00		 jmp	 DWORD PTR __imp_??1?$CStringT@DV?$StrTraitMFC_DLL@DV?$ChTraitsCRT@D@ATL@@@@@ATL@@QAE@XZ
  00019	cc		 int	 3
  0001a	cc		 int	 3
  0001b	cc		 int	 3
  0001c	cc		 int	 3
  0001d	cc		 int	 3
__ehhandler$?OnInitDialog@CDlgAnalysis@@MAEHXZ:
  0001e	90		 npad	 1
  0001f	90		 npad	 1
  00020	8b 54 24 08	 mov	 edx, DWORD PTR [esp+8]
  00024	8d 42 0c	 lea	 eax, DWORD PTR [edx+12]
  00027	8b 4a b8	 mov	 ecx, DWORD PTR [edx-72]
  0002a	33 c8		 xor	 ecx, eax
  0002c	e8 00 00 00 00	 call	 @__security_check_cookie@4
  00031	8b 4a fc	 mov	 ecx, DWORD PTR [edx-4]
  00034	33 c8		 xor	 ecx, eax
  00036	e8 00 00 00 00	 call	 @__security_check_cookie@4
  0003b	b8 00 00 00 00	 mov	 eax, OFFSET __ehfuncinfo$?OnInitDialog@CDlgAnalysis@@MAEHXZ
  00040	e9 00 00 00 00	 jmp	 ___CxxFrameHandler3
text$x	ENDS
?OnInitDialog@CDlgAnalysis@@MAEHXZ ENDP			; CDlgAnalysis::OnInitDialog
; Function compile flags: /Ogtp
; File D:\git\src\IBK\IBK_DRFN\ProjSrc\SrcChartEx\ChartAddIn\ChartPatternAddIn\DlgAnalysis.cpp
;	COMDAT ?WindowProc@CDlgAnalysis@@MAEJIIJ@Z
_TEXT	SEGMENT
_dTime$2 = -32						; size = 8
$T3 = -20						; size = 4
$T4 = -20						; size = 4
_strPatternName$5 = -16					; size = 4
__$EHRec$ = -12						; size = 12
_message$ = 8						; size = 4
_wParam$ = 12						; size = 4
_strText$6 = 16						; size = 4
_lParam$ = 16						; size = 4
?WindowProc@CDlgAnalysis@@MAEJIIJ@Z PROC		; CDlgAnalysis::WindowProc, COMDAT
; _this$ = ecx

; 974  : {

  00000	55		 push	 ebp
  00001	8b ec		 mov	 ebp, esp
  00003	6a ff		 push	 -1
  00005	68 00 00 00 00	 push	 __ehhandler$?WindowProc@CDlgAnalysis@@MAEJIIJ@Z
  0000a	64 a1 00 00 00
	00		 mov	 eax, DWORD PTR fs:0
  00010	50		 push	 eax
  00011	83 ec 14	 sub	 esp, 20			; 00000014H
  00014	53		 push	 ebx
  00015	56		 push	 esi
  00016	57		 push	 edi
  00017	a1 00 00 00 00	 mov	 eax, DWORD PTR ___security_cookie
  0001c	33 c5		 xor	 eax, ebp
  0001e	50		 push	 eax
  0001f	8d 45 f4	 lea	 eax, DWORD PTR __$EHRec$[ebp]
  00022	64 a3 00 00 00
	00		 mov	 DWORD PTR fs:0, eax
  00028	8b d9		 mov	 ebx, ecx

; 975  : 	if(message == WM_NOTIFY)

  0002a	8b 75 08	 mov	 esi, DWORD PTR _message$[ebp]
  0002d	8b 7d 10	 mov	 edi, DWORD PTR _lParam$[ebp]
  00030	83 fe 4e	 cmp	 esi, 78			; 0000004eH
  00033	0f 85 36 01 00
	00		 jne	 $LN8@WindowProc

; 976  : 	{
; 977  : 		NM_GRIDVIEW *pNmgv = (NM_GRIDVIEW *)lParam;
; 978  : 		int nCode = pNmgv->hdr.code;
; 979  : 		
; 980  : 		if( nCode == NM_CLICK)				// LButton Click	(GVN_SELCHANGING ->  )

  00039	83 7f 08 fe	 cmp	 DWORD PTR [edi+8], -2	; fffffffeH
  0003d	0f 85 2c 01 00
	00		 jne	 $LN8@WindowProc

; 981  : 		{
; 982  : 			if(pNmgv->hdr.hwndFrom == m_pGridWaveRptType1->m_hWnd)

  00043	8b 8b b0 00 00
	00		 mov	 ecx, DWORD PTR [ebx+176]
  00049	8b 07		 mov	 eax, DWORD PTR [edi]
  0004b	3b 41 20	 cmp	 eax, DWORD PTR [ecx+32]
  0004e	75 1a		 jne	 SHORT $LN4@WindowProc

; 983  : 			{
; 984  : 				if ( pNmgv->iRow >= ROW_FIRSTDATA)

  00050	8b 47 0c	 mov	 eax, DWORD PTR [edi+12]
  00053	83 f8 02	 cmp	 eax, 2
  00056	0f 8c 13 01 00
	00		 jl	 $LN8@WindowProc

; 985  : 					SetShareData(m_pGridWaveRptType1, pNmgv->iRow);

  0005c	50		 push	 eax
  0005d	51		 push	 ecx
  0005e	8b cb		 mov	 ecx, ebx
  00060	e8 00 00 00 00	 call	 ?SetShareData@CDlgAnalysis@@QAEXPAVCGridCtrl@@H@Z ; CDlgAnalysis::SetShareData

; 986  : 			}

  00065	e9 05 01 00 00	 jmp	 $LN8@WindowProc
$LN4@WindowProc:

; 987  : 			else
; 988  : 			{
; 989  : 				if ( m_pGridCandleRtpType1->GetPatternReportType() == CANDLE_REPORTTYPE1)

  0006a	8b 8b ac 00 00
	00		 mov	 ecx, DWORD PTR [ebx+172]
  00070	e8 00 00 00 00	 call	 ?GetPatternReportType@CGridCtrl@@QAEHXZ ; CGridCtrl::GetPatternReportType
  00075	3d d1 07 00 00	 cmp	 eax, 2001		; 000007d1H
  0007a	0f 85 ef 00 00
	00		 jne	 $LN8@WindowProc

; 990  : 				{
; 991  : 					if ( pNmgv->iRow >= ROW_FIRSTDATA)

  00080	8b 47 0c	 mov	 eax, DWORD PTR [edi+12]
  00083	83 f8 02	 cmp	 eax, 2
  00086	0f 8c e3 00 00
	00		 jl	 $LN8@WindowProc

; 992  : 					{
; 993  : 						SetShareData(m_pGridCandleRtpType1, pNmgv->iRow);

  0008c	50		 push	 eax
  0008d	ff b3 ac 00 00
	00		 push	 DWORD PTR [ebx+172]
  00093	8b cb		 mov	 ecx, ebx
  00095	e8 00 00 00 00	 call	 ?SetShareData@CDlgAnalysis@@QAEXPAVCGridCtrl@@H@Z ; CDlgAnalysis::SetShareData

; 994  : 						GetSelectedCandlePatternData( pNmgv->iRow);

  0009a	8b 77 0c	 mov	 esi, DWORD PTR [edi+12]

; 1008 : 	CString strPatternName, strText;

  0009d	8d 4d f0	 lea	 ecx, DWORD PTR _strPatternName$5[ebp]
  000a0	ff 15 00 00 00
	00		 call	 DWORD PTR __imp_??0?$CStringT@DV?$StrTraitMFC_DLL@DV?$ChTraitsCRT@D@ATL@@@@@ATL@@QAE@XZ
  000a6	8d 4d 10	 lea	 ecx, DWORD PTR _strText$6[ebp]
  000a9	c7 45 fc 00 00
	00 00		 mov	 DWORD PTR __$EHRec$[ebp+8], 0
  000b0	ff 15 00 00 00
	00		 call	 DWORD PTR __imp_??0?$CStringT@DV?$StrTraitMFC_DLL@DV?$ChTraitsCRT@D@ATL@@@@@ATL@@QAE@XZ

; 1009 : 
; 1010 : 	strText = m_pGridCandleRtpType1->GetItemText( nRow, COL_CND1_TIME);

  000b6	8b 8b ac 00 00
	00		 mov	 ecx, DWORD PTR [ebx+172]
  000bc	8d 45 ec	 lea	 eax, DWORD PTR $T4[ebp]
  000bf	6a 01		 push	 1
  000c1	56		 push	 esi
  000c2	50		 push	 eax
  000c3	c6 45 fc 01	 mov	 BYTE PTR __$EHRec$[ebp+8], 1
  000c7	e8 00 00 00 00	 call	 ?GetItemText@CGridCtrl@@QBE?AV?$CStringT@DV?$StrTraitMFC_DLL@DV?$ChTraitsCRT@D@ATL@@@@@ATL@@HH@Z ; CGridCtrl::GetItemText
  000cc	50		 push	 eax
  000cd	8d 4d 10	 lea	 ecx, DWORD PTR _strText$6[ebp]
  000d0	c6 45 fc 02	 mov	 BYTE PTR __$EHRec$[ebp+8], 2
  000d4	ff 15 00 00 00
	00		 call	 DWORD PTR __imp_??4?$CStringT@DV?$StrTraitMFC_DLL@DV?$ChTraitsCRT@D@ATL@@@@@ATL@@QAEAAV01@ABV01@@Z
  000da	8d 4d ec	 lea	 ecx, DWORD PTR $T4[ebp]
  000dd	c6 45 fc 01	 mov	 BYTE PTR __$EHRec$[ebp+8], 1
  000e1	ff 15 00 00 00
	00		 call	 DWORD PTR __imp_??1?$CStringT@DV?$StrTraitMFC_DLL@DV?$ChTraitsCRT@D@ATL@@@@@ATL@@QAE@XZ

; 1011 : 	strText.Remove('-');

  000e7	6a 2d		 push	 45			; 0000002dH
  000e9	8d 4d 10	 lea	 ecx, DWORD PTR _strText$6[ebp]
  000ec	ff 15 00 00 00
	00		 call	 DWORD PTR __imp_?Remove@?$CStringT@DV?$StrTraitMFC_DLL@DV?$ChTraitsCRT@D@ATL@@@@@ATL@@QAEHD@Z

; 1012 : 	dTime = atof(strText);

  000f2	ff 75 10	 push	 DWORD PTR _strText$6[ebp]
  000f5	ff 15 00 00 00
	00		 call	 DWORD PTR __imp__atof

; 1013 : 
; 1014 : 	strPatternName = m_pGridCandleRtpType1->GetItemText( nRow, COL_CND1_NAME);

  000fb	8b 8b ac 00 00
	00		 mov	 ecx, DWORD PTR [ebx+172]
  00101	8d 45 ec	 lea	 eax, DWORD PTR $T3[ebp]
  00104	83 c4 04	 add	 esp, 4
  00107	dd 5d e0	 fstp	 QWORD PTR _dTime$2[ebp]
  0010a	6a 03		 push	 3
  0010c	56		 push	 esi
  0010d	50		 push	 eax
  0010e	e8 00 00 00 00	 call	 ?GetItemText@CGridCtrl@@QBE?AV?$CStringT@DV?$StrTraitMFC_DLL@DV?$ChTraitsCRT@D@ATL@@@@@ATL@@HH@Z ; CGridCtrl::GetItemText
  00113	50		 push	 eax
  00114	8d 4d f0	 lea	 ecx, DWORD PTR _strPatternName$5[ebp]
  00117	c6 45 fc 03	 mov	 BYTE PTR __$EHRec$[ebp+8], 3
  0011b	ff 15 00 00 00
	00		 call	 DWORD PTR __imp_??4?$CStringT@DV?$StrTraitMFC_DLL@DV?$ChTraitsCRT@D@ATL@@@@@ATL@@QAEAAV01@ABV01@@Z
  00121	8d 4d ec	 lea	 ecx, DWORD PTR $T3[ebp]
  00124	c6 45 fc 01	 mov	 BYTE PTR __$EHRec$[ebp+8], 1
  00128	ff 15 00 00 00
	00		 call	 DWORD PTR __imp_??1?$CStringT@DV?$StrTraitMFC_DLL@DV?$ChTraitsCRT@D@ATL@@@@@ATL@@QAE@XZ

; 1015 : 	m_pPatternMaker->SetSelectedCandlePatternData( dTime, strPatternName);

  0012e	51		 push	 ecx
  0012f	8d 45 f0	 lea	 eax, DWORD PTR _strPatternName$5[ebp]
  00132	8b cc		 mov	 ecx, esp
  00134	50		 push	 eax
  00135	ff 15 00 00 00
	00		 call	 DWORD PTR __imp_??0?$CStringT@DV?$StrTraitMFC_DLL@DV?$ChTraitsCRT@D@ATL@@@@@ATL@@QAE@ABV01@@Z
  0013b	f2 0f 10 45 e0	 movsd	 xmm0, QWORD PTR _dTime$2[ebp]
  00140	83 ec 08	 sub	 esp, 8
  00143	8b 8b a8 00 00
	00		 mov	 ecx, DWORD PTR [ebx+168]
  00149	f2 0f 11 04 24	 movsd	 QWORD PTR [esp], xmm0
  0014e	e8 00 00 00 00	 call	 ?SetSelectedCandlePatternData@CPatternMaker@@QAEXNV?$CStringT@DV?$StrTraitMFC_DLL@DV?$ChTraitsCRT@D@ATL@@@@@ATL@@@Z ; CPatternMaker::SetSelectedCandlePatternData

; 1016 : }

  00153	8d 4d 10	 lea	 ecx, DWORD PTR _strText$6[ebp]
  00156	ff 15 00 00 00
	00		 call	 DWORD PTR __imp_??1?$CStringT@DV?$StrTraitMFC_DLL@DV?$ChTraitsCRT@D@ATL@@@@@ATL@@QAE@XZ
  0015c	8d 4d f0	 lea	 ecx, DWORD PTR _strPatternName$5[ebp]
  0015f	c7 45 fc ff ff
	ff ff		 mov	 DWORD PTR __$EHRec$[ebp+8], -1
  00166	ff 15 00 00 00
	00		 call	 DWORD PTR __imp_??1?$CStringT@DV?$StrTraitMFC_DLL@DV?$ChTraitsCRT@D@ATL@@@@@ATL@@QAE@XZ
  0016c	8b 75 08	 mov	 esi, DWORD PTR _message$[ebp]
$LN8@WindowProc:

; 995  : 					}
; 996  : 				}
; 997  : 			}
; 998  : 		}
; 999  : 	}
; 1000 : 	
; 1001 : 	return CDialog::WindowProc(message, wParam, lParam);

  0016f	57		 push	 edi
  00170	ff 75 0c	 push	 DWORD PTR _wParam$[ebp]
  00173	8b cb		 mov	 ecx, ebx
  00175	56		 push	 esi
  00176	e8 00 00 00 00	 call	 ?WindowProc@CWnd@@MAEJIIJ@Z ; CWnd::WindowProc

; 1002 : }

  0017b	8b 4d f4	 mov	 ecx, DWORD PTR __$EHRec$[ebp]
  0017e	64 89 0d 00 00
	00 00		 mov	 DWORD PTR fs:0, ecx
  00185	59		 pop	 ecx
  00186	5f		 pop	 edi
  00187	5e		 pop	 esi
  00188	5b		 pop	 ebx
  00189	8b e5		 mov	 esp, ebp
  0018b	5d		 pop	 ebp
  0018c	c2 0c 00	 ret	 12			; 0000000cH
_TEXT	ENDS
;	COMDAT text$x
text$x	SEGMENT
__unwindfunclet$?WindowProc@CDlgAnalysis@@MAEJIIJ@Z$0:
  00000	8d 4d f0	 lea	 ecx, DWORD PTR _strPatternName$5[ebp]
  00003	ff 25 00 00 00
	00		 jmp	 DWORD PTR __imp_??1?$CStringT@DV?$StrTraitMFC_DLL@DV?$ChTraitsCRT@D@ATL@@@@@ATL@@QAE@XZ
__unwindfunclet$?WindowProc@CDlgAnalysis@@MAEJIIJ@Z$1:
  00009	8d 4d 10	 lea	 ecx, DWORD PTR _strText$6[ebp]
  0000c	ff 25 00 00 00
	00		 jmp	 DWORD PTR __imp_??1?$CStringT@DV?$StrTraitMFC_DLL@DV?$ChTraitsCRT@D@ATL@@@@@ATL@@QAE@XZ
__unwindfunclet$?WindowProc@CDlgAnalysis@@MAEJIIJ@Z$2:
  00012	8d 4d ec	 lea	 ecx, DWORD PTR $T4[ebp]
  00015	ff 25 00 00 00
	00		 jmp	 DWORD PTR __imp_??1?$CStringT@DV?$StrTraitMFC_DLL@DV?$ChTraitsCRT@D@ATL@@@@@ATL@@QAE@XZ
__unwindfunclet$?WindowProc@CDlgAnalysis@@MAEJIIJ@Z$3:
  0001b	8d 4d ec	 lea	 ecx, DWORD PTR $T3[ebp]
  0001e	ff 25 00 00 00
	00		 jmp	 DWORD PTR __imp_??1?$CStringT@DV?$StrTraitMFC_DLL@DV?$ChTraitsCRT@D@ATL@@@@@ATL@@QAE@XZ
  00024	cc		 int	 3
  00025	cc		 int	 3
  00026	cc		 int	 3
  00027	cc		 int	 3
  00028	cc		 int	 3
__ehhandler$?WindowProc@CDlgAnalysis@@MAEJIIJ@Z:
  00029	90		 npad	 1
  0002a	90		 npad	 1
  0002b	8b 54 24 08	 mov	 edx, DWORD PTR [esp+8]
  0002f	8d 42 0c	 lea	 eax, DWORD PTR [edx+12]
  00032	8b 4a dc	 mov	 ecx, DWORD PTR [edx-36]
  00035	33 c8		 xor	 ecx, eax
  00037	e8 00 00 00 00	 call	 @__security_check_cookie@4
  0003c	b8 00 00 00 00	 mov	 eax, OFFSET __ehfuncinfo$?WindowProc@CDlgAnalysis@@MAEJIIJ@Z
  00041	e9 00 00 00 00	 jmp	 ___CxxFrameHandler3
text$x	ENDS
?WindowProc@CDlgAnalysis@@MAEJIIJ@Z ENDP		; CDlgAnalysis::WindowProc
; Function compile flags: /Ogtp
; File D:\git\src\IBK\IBK_DRFN\ProjSrc\SrcChartEx\ChartAddIn\ChartPatternAddIn\DlgAnalysis.cpp
;	COMDAT ?DoDataExchange@CDlgAnalysis@@MAEXPAVCDataExchange@@@Z
_TEXT	SEGMENT
_pDX$ = 8						; size = 4
?DoDataExchange@CDlgAnalysis@@MAEXPAVCDataExchange@@@Z PROC ; CDlgAnalysis::DoDataExchange, COMDAT
; _this$ = ecx

; 50   : {

  00000	55		 push	 ebp
  00001	8b ec		 mov	 ebp, esp
  00003	57		 push	 edi
  00004	8b f9		 mov	 edi, ecx

; 51   : 	CDialog::DoDataExchange(pDX);
; 52   : 	//{{AFX_DATA_MAP(CDlgAnalysis)
; 53   : 	DDX_Control(pDX, IDC_STATIC_GRIDBASE, m_staticGridBase);

  00006	8d 87 10 01 00
	00		 lea	 eax, DWORD PTR [edi+272]
  0000c	50		 push	 eax
  0000d	68 de 07 00 00	 push	 2014			; 000007deH
  00012	ff 75 08	 push	 DWORD PTR _pDX$[ebp]
  00015	e8 00 00 00 00	 call	 ?DDX_Control@@YGXPAVCDataExchange@@HAAVCWnd@@@Z ; DDX_Control

; 54   : 	DDX_Radio(pDX, IDC_RDO_WAVE, m_rdo_nRptType);

  0001a	8d 87 90 01 00
	00		 lea	 eax, DWORD PTR [edi+400]
  00020	50		 push	 eax
  00021	68 ec 07 00 00	 push	 2028			; 000007ecH
  00026	ff 75 08	 push	 DWORD PTR _pDX$[ebp]
  00029	e8 00 00 00 00	 call	 ?DDX_Radio@@YGXPAVCDataExchange@@HAAH@Z ; DDX_Radio
  0002e	5f		 pop	 edi

; 55   : 	//}}AFX_DATA_MAP
; 56   : }

  0002f	5d		 pop	 ebp
  00030	c2 04 00	 ret	 4
?DoDataExchange@CDlgAnalysis@@MAEXPAVCDataExchange@@@Z ENDP ; CDlgAnalysis::DoDataExchange
_TEXT	ENDS
; Function compile flags: /Ogtp
; File D:\git\src\IBK\IBK_DRFN\ProjSrc\SrcChartEx\ChartAddIn\ChartPatternAddIn\DlgAnalysis.cpp
; File C:\Program Files (x86)\Microsoft Visual Studio\2019\Community\VC\Tools\MSVC\14.29.30133\atlmfc\include\atltime.h
; File D:\git\src\IBK\IBK_DRFN\ProjSrc\SrcChartEx\ChartAddIn\ChartPatternAddIn\DlgAnalysis.cpp
; File C:\Program Files (x86)\Microsoft Visual Studio\2019\Community\VC\Tools\MSVC\14.29.30133\atlmfc\include\cstringt.h
; File D:\git\src\IBK\IBK_DRFN\ProjSrc\SrcChartEx\ChartAddIn\ChartPatternAddIn\DlgAnalysis.cpp
; File C:\Program Files (x86)\Microsoft Visual Studio\2019\Community\VC\Tools\MSVC\14.29.30133\atlmfc\include\cstringt.h
; File C:\Program Files (x86)\Microsoft Visual Studio\2019\Community\VC\Tools\MSVC\14.29.30133\atlmfc\include\atlsimpstr.h
; File C:\Program Files (x86)\Microsoft Visual Studio\2019\Community\VC\Tools\MSVC\14.29.30133\atlmfc\include\cstringt.h
; File D:\git\src\IBK\IBK_DRFN\ProjSrc\SrcChartEx\ChartAddIn\ChartPatternAddIn\DlgAnalysis.cpp
; File C:\Program Files (x86)\Microsoft Visual Studio\2019\Community\VC\Tools\MSVC\14.29.30133\atlmfc\include\cstringt.h
; File C:\Program Files (x86)\Microsoft Visual Studio\2019\Community\VC\Tools\MSVC\14.29.30133\atlmfc\include\atlsimpstr.h
; File C:\Program Files (x86)\Microsoft Visual Studio\2019\Community\VC\Tools\MSVC\14.29.30133\atlmfc\include\cstringt.h
; File D:\git\src\IBK\IBK_DRFN\ProjSrc\SrcChartEx\ChartAddIn\ChartPatternAddIn\DlgAnalysis.cpp
; File C:\Program Files (x86)\Microsoft Visual Studio\2019\Community\VC\Tools\MSVC\14.29.30133\atlmfc\include\atltime.h
; File D:\git\src\IBK\IBK_DRFN\ProjSrc\SrcChartEx\ChartAddIn\ChartPatternAddIn\DlgAnalysis.cpp
; File C:\Program Files (x86)\Microsoft Visual Studio\2019\Community\VC\Tools\MSVC\14.29.30133\atlmfc\include\cstringt.h
; File D:\git\src\IBK\IBK_DRFN\ProjSrc\SrcChartEx\ChartAddIn\ChartPatternAddIn\DlgAnalysis.cpp
; File C:\Program Files (x86)\Microsoft Visual Studio\2019\Community\VC\Tools\MSVC\14.29.30133\atlmfc\include\cstringt.h
; File C:\Program Files (x86)\Microsoft Visual Studio\2019\Community\VC\Tools\MSVC\14.29.30133\atlmfc\include\atlsimpstr.h
; File C:\Program Files (x86)\Microsoft Visual Studio\2019\Community\VC\Tools\MSVC\14.29.30133\atlmfc\include\cstringt.h
; File D:\git\src\IBK\IBK_DRFN\ProjSrc\SrcChartEx\ChartAddIn\ChartPatternAddIn\DlgAnalysis.cpp
; File C:\Program Files (x86)\Microsoft Visual Studio\2019\Community\VC\Tools\MSVC\14.29.30133\atlmfc\include\atltime.h
; File D:\git\src\IBK\IBK_DRFN\ProjSrc\SrcChartEx\ChartAddIn\ChartPatternAddIn\DlgAnalysis.cpp
; File C:\Program Files (x86)\Microsoft Visual Studio\2019\Community\VC\Tools\MSVC\14.29.30133\atlmfc\include\atltime.h
; File D:\git\src\IBK\IBK_DRFN\ProjSrc\SrcChartEx\ChartAddIn\ChartPatternAddIn\DlgAnalysis.cpp
; File C:\Program Files (x86)\Microsoft Visual Studio\2019\Community\VC\Tools\MSVC\14.29.30133\atlmfc\include\atltime.h
; File D:\git\src\IBK\IBK_DRFN\ProjSrc\SrcChartEx\ChartAddIn\ChartPatternAddIn\DlgAnalysis.cpp
;	COMDAT ?SetShareData@CDlgAnalysis@@QAEXPAVCGridCtrl@@H@Z
_TEXT	SEGMENT
$T2 = -212						; size = 4
_currentTime$3 = -208					; size = 8
_currentTime$4 = -208					; size = 8
_currentTime$5 = -208					; size = 8
$T6 = -200						; size = 4
$T7 = -196						; size = 4
$T8 = -196						; size = 4
$T9 = -196						; size = 4
$T10 = -196						; size = 4
$T11 = -192						; size = 4
$T12 = -192						; size = 4
_strDate$13 = -188					; size = 4
_strYear$14 = -188					; size = 4
_strYear$15 = -188					; size = 4
$T16 = -188						; size = 4
_strText$ = -184					; size = 4
_ptmTemp$17 = -180					; size = 36
_ptmTemp$18 = -180					; size = 36
_szBuffer$19 = -144					; size = 128
_szBuffer$20 = -144					; size = 128
__$ArrayPad$ = -16					; size = 4
__$EHRec$ = -12						; size = 12
_pGrid$ = 8						; size = 4
_nRow$ = 12						; size = 4
?SetShareData@CDlgAnalysis@@QAEXPAVCGridCtrl@@H@Z PROC	; CDlgAnalysis::SetShareData, COMDAT
; _this$ = ecx

; 1019 : {

  00000	55		 push	 ebp
  00001	8b ec		 mov	 ebp, esp
  00003	6a ff		 push	 -1
  00005	68 00 00 00 00	 push	 __ehhandler$?SetShareData@CDlgAnalysis@@QAEXPAVCGridCtrl@@H@Z
  0000a	64 a1 00 00 00
	00		 mov	 eax, DWORD PTR fs:0
  00010	50		 push	 eax
  00011	81 ec c8 00 00
	00		 sub	 esp, 200		; 000000c8H
  00017	a1 00 00 00 00	 mov	 eax, DWORD PTR ___security_cookie
  0001c	33 c5		 xor	 eax, ebp
  0001e	89 45 f0	 mov	 DWORD PTR __$ArrayPad$[ebp], eax
  00021	53		 push	 ebx
  00022	56		 push	 esi
  00023	57		 push	 edi
  00024	50		 push	 eax
  00025	8d 45 f4	 lea	 eax, DWORD PTR __$EHRec$[ebp]
  00028	64 a3 00 00 00
	00		 mov	 DWORD PTR fs:0, eax
  0002e	8b d9		 mov	 ebx, ecx
  00030	8b 7d 08	 mov	 edi, DWORD PTR _pGrid$[ebp]

; 1020 : 	CString strText;

  00033	8d 8d 48 ff ff
	ff		 lea	 ecx, DWORD PTR _strText$[ebp]
  00039	8b 75 0c	 mov	 esi, DWORD PTR _nRow$[ebp]
  0003c	c7 85 2c ff ff
	ff 00 00 00 00	 mov	 DWORD PTR $T2[ebp], 0
  00046	ff 15 00 00 00
	00		 call	 DWORD PTR __imp_??0?$CStringT@DV?$StrTraitMFC_DLL@DV?$ChTraitsCRT@D@ATL@@@@@ATL@@QAE@XZ

; 1021 : 
; 1022 : 	strText = pGrid->GetItemText( nRow, COL_CND1_TIME);

  0004c	6a 01		 push	 1
  0004e	56		 push	 esi
  0004f	8d 85 44 ff ff
	ff		 lea	 eax, DWORD PTR $T16[ebp]
  00055	c7 45 fc 00 00
	00 00		 mov	 DWORD PTR __$EHRec$[ebp+8], 0
  0005c	50		 push	 eax
  0005d	8b cf		 mov	 ecx, edi
  0005f	e8 00 00 00 00	 call	 ?GetItemText@CGridCtrl@@QBE?AV?$CStringT@DV?$StrTraitMFC_DLL@DV?$ChTraitsCRT@D@ATL@@@@@ATL@@HH@Z ; CGridCtrl::GetItemText
  00064	50		 push	 eax
  00065	8d 8d 48 ff ff
	ff		 lea	 ecx, DWORD PTR _strText$[ebp]
  0006b	c6 45 fc 01	 mov	 BYTE PTR __$EHRec$[ebp+8], 1
  0006f	ff 15 00 00 00
	00		 call	 DWORD PTR __imp_??4?$CStringT@DV?$StrTraitMFC_DLL@DV?$ChTraitsCRT@D@ATL@@@@@ATL@@QAEAAV01@ABV01@@Z
  00075	8d 8d 44 ff ff
	ff		 lea	 ecx, DWORD PTR $T16[ebp]
  0007b	c6 45 fc 00	 mov	 BYTE PTR __$EHRec$[ebp+8], 0
  0007f	ff 15 00 00 00
	00		 call	 DWORD PTR __imp_??1?$CStringT@DV?$StrTraitMFC_DLL@DV?$ChTraitsCRT@D@ATL@@@@@ATL@@QAE@XZ

; 1023 : 
; 1024 : 	// 2011.01.06 by SYS >>  YYYY() 
; 1025 : 	if(strText.Find(',') > 0)

  00085	6a 00		 push	 0
  00087	6a 2c		 push	 44			; 0000002cH
  00089	8d 8d 48 ff ff
	ff		 lea	 ecx, DWORD PTR _strText$[ebp]
  0008f	ff 15 00 00 00
	00		 call	 DWORD PTR __imp_?Find@?$CStringT@DV?$StrTraitMFC_DLL@DV?$ChTraitsCRT@D@ATL@@@@@ATL@@QBEHDH@Z
  00095	8d 8d 48 ff ff
	ff		 lea	 ecx, DWORD PTR _strText$[ebp]
  0009b	85 c0		 test	 eax, eax
  0009d	0f 8e 6d 01 00
	00		 jle	 $LN2@SetShareDa

; 1026 : 	{
; 1027 : 		strText.Remove('/');

  000a3	6a 2f		 push	 47			; 0000002fH
  000a5	ff 15 00 00 00
	00		 call	 DWORD PTR __imp_?Remove@?$CStringT@DV?$StrTraitMFC_DLL@DV?$ChTraitsCRT@D@ATL@@@@@ATL@@QAEHD@Z

; 1028 : 		strText.Remove(':');

  000ab	6a 3a		 push	 58			; 0000003aH
  000ad	8d 8d 48 ff ff
	ff		 lea	 ecx, DWORD PTR _strText$[ebp]
  000b3	ff 15 00 00 00
	00		 call	 DWORD PTR __imp_?Remove@?$CStringT@DV?$StrTraitMFC_DLL@DV?$ChTraitsCRT@D@ATL@@@@@ATL@@QAEHD@Z

; 1029 : 		strText.Remove(',');

  000b9	6a 2c		 push	 44			; 0000002cH
  000bb	8d 8d 48 ff ff
	ff		 lea	 ecx, DWORD PTR _strText$[ebp]
  000c1	ff 15 00 00 00
	00		 call	 DWORD PTR __imp_?Remove@?$CStringT@DV?$StrTraitMFC_DLL@DV?$ChTraitsCRT@D@ATL@@@@@ATL@@QAEHD@Z
; File C:\Program Files (x86)\Microsoft Visual Studio\2019\Community\VC\Tools\MSVC\14.29.30133\atlmfc\include\atltime.h

; 374  : 	return( CTime( ::_time64( NULL ) ) );

  000c7	6a 00		 push	 0
  000c9	ff 15 00 00 00
	00		 call	 DWORD PTR __imp___time64

; 417  : 	m_time( time )

  000cf	89 85 30 ff ff
	ff		 mov	 DWORD PTR _currentTime$5[ebp], eax

; 1066 : 	if (_localtime64_s(&ptmTemp, &m_time) != 0)

  000d5	8d 85 30 ff ff
	ff		 lea	 eax, DWORD PTR _currentTime$5[ebp]
  000db	50		 push	 eax
  000dc	8d 85 4c ff ff
	ff		 lea	 eax, DWORD PTR _ptmTemp$18[ebp]

; 417  : 	m_time( time )

  000e2	89 95 34 ff ff
	ff		 mov	 DWORD PTR _currentTime$5[ebp+4], edx

; 1066 : 	if (_localtime64_s(&ptmTemp, &m_time) != 0)

  000e8	50		 push	 eax
  000e9	ff 15 00 00 00
	00		 call	 DWORD PTR __imp___localtime64_s
  000ef	83 c4 0c	 add	 esp, 12			; 0000000cH
  000f2	85 c0		 test	 eax, eax
  000f4	0f 85 43 03 00
	00		 jne	 $LN99@SetShareDa

; 1069 : 	}
; 1070 : 
; 1071 : 	if (!_tcsftime(szBuffer, maxTimeBufferSize, pFormat, &ptmTemp))

  000fa	8d 85 4c ff ff
	ff		 lea	 eax, DWORD PTR _ptmTemp$18[ebp]
  00100	50		 push	 eax
  00101	68 00 00 00 00	 push	 OFFSET ??_C@_02FFEBEEPL@?$CFY@
  00106	8d 85 70 ff ff
	ff		 lea	 eax, DWORD PTR _szBuffer$20[ebp]
  0010c	68 80 00 00 00	 push	 128			; 00000080H
  00111	50		 push	 eax
  00112	ff 15 00 00 00
	00		 call	 DWORD PTR __imp__strftime
  00118	83 c4 10	 add	 esp, 16			; 00000010H

; 1072 : 	{
; 1073 : 		szBuffer[0] = '\0';
; 1074 : 	}
; 1075 : 
; 1076 : 	return szBuffer;

  0011b	8d 8d 44 ff ff
	ff		 lea	 ecx, DWORD PTR _strYear$15[ebp]
  00121	f7 d8		 neg	 eax
  00123	1a c0		 sbb	 al, al
  00125	20 85 70 ff ff
	ff		 and	 BYTE PTR _szBuffer$20[ebp], al
  0012b	8d 85 70 ff ff
	ff		 lea	 eax, DWORD PTR _szBuffer$20[ebp]
  00131	50		 push	 eax
  00132	ff 15 00 00 00
	00		 call	 DWORD PTR __imp_??0?$CStringT@DV?$StrTraitMFC_DLL@DV?$ChTraitsCRT@D@ATL@@@@@ATL@@QAE@PBD@Z
; File D:\git\src\IBK\IBK_DRFN\ProjSrc\SrcChartEx\ChartAddIn\ChartPatternAddIn\DlgAnalysis.cpp

; 1032 : 		strText = strYear.Mid(0,2) + strText + "00";

  00138	6a 02		 push	 2
  0013a	6a 00		 push	 0
  0013c	8d 85 3c ff ff
	ff		 lea	 eax, DWORD PTR $T10[ebp]
  00142	c6 45 fc 02	 mov	 BYTE PTR __$EHRec$[ebp+8], 2
  00146	50		 push	 eax
  00147	8d 8d 44 ff ff
	ff		 lea	 ecx, DWORD PTR _strYear$15[ebp]
  0014d	ff 15 00 00 00
	00		 call	 DWORD PTR __imp_?Mid@?$CStringT@DV?$StrTraitMFC_DLL@DV?$ChTraitsCRT@D@ATL@@@@@ATL@@QBE?AV12@HH@Z
  00153	8b f0		 mov	 esi, eax
; File C:\Program Files (x86)\Microsoft Visual Studio\2019\Community\VC\Tools\MSVC\14.29.30133\atlmfc\include\cstringt.h

; 2390 : 		CStringT strResult( str1.GetManager() );

  00155	8b ce		 mov	 ecx, esi
; File D:\git\src\IBK\IBK_DRFN\ProjSrc\SrcChartEx\ChartAddIn\ChartPatternAddIn\DlgAnalysis.cpp

; 1032 : 		strText = strYear.Mid(0,2) + strText + "00";

  00157	c6 45 fc 04	 mov	 BYTE PTR __$EHRec$[ebp+8], 4
; File C:\Program Files (x86)\Microsoft Visual Studio\2019\Community\VC\Tools\MSVC\14.29.30133\atlmfc\include\cstringt.h

; 2390 : 		CStringT strResult( str1.GetManager() );

  0015b	ff 15 00 00 00
	00		 call	 DWORD PTR __imp_?GetManager@?$CStringT@DV?$StrTraitMFC_DLL@DV?$ChTraitsCRT@D@ATL@@@@@ATL@@QBEPAUIAtlStringMgr@2@XZ
  00161	50		 push	 eax
  00162	8d 8d 38 ff ff
	ff		 lea	 ecx, DWORD PTR $T6[ebp]
  00168	ff 15 00 00 00
	00		 call	 DWORD PTR __imp_??0?$CStringT@DV?$StrTraitMFC_DLL@DV?$ChTraitsCRT@D@ATL@@@@@ATL@@QAE@PAUIAtlStringMgr@1@@Z
; File C:\Program Files (x86)\Microsoft Visual Studio\2019\Community\VC\Tools\MSVC\14.29.30133\atlmfc\include\atlsimpstr.h

; 519  : 		return( GetData()->nDataLength );

  0016e	8b 85 48 ff ff
	ff		 mov	 eax, DWORD PTR _strText$[ebp]
  00174	8b 0e		 mov	 ecx, DWORD PTR [esi]
; File C:\Program Files (x86)\Microsoft Visual Studio\2019\Community\VC\Tools\MSVC\14.29.30133\atlmfc\include\cstringt.h

; 2394 : 		return( strResult );

  00176	c7 85 2c ff ff
	ff 03 00 00 00	 mov	 DWORD PTR $T2[ebp], 3
  00180	ff 70 f4	 push	 DWORD PTR [eax-12]
  00183	50		 push	 eax
  00184	ff 71 f4	 push	 DWORD PTR [ecx-12]
  00187	8d 85 38 ff ff
	ff		 lea	 eax, DWORD PTR $T6[ebp]
  0018d	51		 push	 ecx
  0018e	50		 push	 eax
  0018f	ff 15 00 00 00
	00		 call	 DWORD PTR __imp_?Concatenate@?$CSimpleStringT@D$00@ATL@@KAXAAV12@PBDH1H@Z
  00195	83 c4 14	 add	 esp, 20			; 00000014H

; 2401 : 		CStringT strResult( str1.GetManager() );

  00198	8d 8d 38 ff ff
	ff		 lea	 ecx, DWORD PTR $T6[ebp]
; File D:\git\src\IBK\IBK_DRFN\ProjSrc\SrcChartEx\ChartAddIn\ChartPatternAddIn\DlgAnalysis.cpp

; 1032 : 		strText = strYear.Mid(0,2) + strText + "00";

  0019e	c6 45 fc 05	 mov	 BYTE PTR __$EHRec$[ebp+8], 5
; File C:\Program Files (x86)\Microsoft Visual Studio\2019\Community\VC\Tools\MSVC\14.29.30133\atlmfc\include\cstringt.h

; 2401 : 		CStringT strResult( str1.GetManager() );

  001a2	ff 15 00 00 00
	00		 call	 DWORD PTR __imp_?GetManager@?$CStringT@DV?$StrTraitMFC_DLL@DV?$ChTraitsCRT@D@ATL@@@@@ATL@@QBEPAUIAtlStringMgr@2@XZ
  001a8	50		 push	 eax
  001a9	8d 8d 40 ff ff
	ff		 lea	 ecx, DWORD PTR $T12[ebp]
  001af	ff 15 00 00 00
	00		 call	 DWORD PTR __imp_??0?$CStringT@DV?$StrTraitMFC_DLL@DV?$ChTraitsCRT@D@ATL@@@@@ATL@@QAE@PAUIAtlStringMgr@1@@Z
; File C:\Program Files (x86)\Microsoft Visual Studio\2019\Community\VC\Tools\MSVC\14.29.30133\atlmfc\include\atlsimpstr.h

; 519  : 		return( GetData()->nDataLength );

  001b5	8b 85 38 ff ff
	ff		 mov	 eax, DWORD PTR $T6[ebp]
; File C:\Program Files (x86)\Microsoft Visual Studio\2019\Community\VC\Tools\MSVC\14.29.30133\atlmfc\include\cstringt.h

; 2403 : 		CThisSimpleString::Concatenate( strResult, str1, str1.GetLength(), psz2, CThisSimpleString::StringLength( psz2 ) );

  001bb	6a 02		 push	 2
  001bd	68 00 00 00 00	 push	 OFFSET ??_C@_02PLJDPFIO@00@

; 2404 : 
; 2405 : 		return( strResult );

  001c2	c7 85 2c ff ff
	ff 07 00 00 00	 mov	 DWORD PTR $T2[ebp], 7
  001cc	ff 70 f4	 push	 DWORD PTR [eax-12]
  001cf	50		 push	 eax
  001d0	8d 85 40 ff ff
	ff		 lea	 eax, DWORD PTR $T12[ebp]
  001d6	50		 push	 eax
  001d7	ff 15 00 00 00
	00		 call	 DWORD PTR __imp_?Concatenate@?$CSimpleStringT@D$00@ATL@@KAXAAV12@PBDH1H@Z
  001dd	83 c4 14	 add	 esp, 20			; 00000014H
; File D:\git\src\IBK\IBK_DRFN\ProjSrc\SrcChartEx\ChartAddIn\ChartPatternAddIn\DlgAnalysis.cpp

; 1032 : 		strText = strYear.Mid(0,2) + strText + "00";

  001e0	8d 85 40 ff ff
	ff		 lea	 eax, DWORD PTR $T12[ebp]
  001e6	8d 8d 48 ff ff
	ff		 lea	 ecx, DWORD PTR _strText$[ebp]
  001ec	50		 push	 eax
  001ed	ff 15 00 00 00
	00		 call	 DWORD PTR __imp_??4?$CStringT@DV?$StrTraitMFC_DLL@DV?$ChTraitsCRT@D@ATL@@@@@ATL@@QAEAAV01@ABV01@@Z
  001f3	8d 8d 40 ff ff
	ff		 lea	 ecx, DWORD PTR $T12[ebp]
  001f9	ff 15 00 00 00
	00		 call	 DWORD PTR __imp_??1?$CStringT@DV?$StrTraitMFC_DLL@DV?$ChTraitsCRT@D@ATL@@@@@ATL@@QAE@XZ
  001ff	8d 8d 38 ff ff
	ff		 lea	 ecx, DWORD PTR $T6[ebp]
  00205	ff 15 00 00 00
	00		 call	 DWORD PTR __imp_??1?$CStringT@DV?$StrTraitMFC_DLL@DV?$ChTraitsCRT@D@ATL@@@@@ATL@@QAE@XZ

; 1033 : 	}

  0020b	e9 a6 01 00 00	 jmp	 $LN97@SetShareDa
$LN2@SetShareDa:

; 1034 : 	// 2011.01.06 by SYS <<
; 1035 : 	else if(strText.Find('/') > 0)

  00210	6a 00		 push	 0
  00212	6a 2f		 push	 47			; 0000002fH
  00214	ff 15 00 00 00
	00		 call	 DWORD PTR __imp_?Find@?$CStringT@DV?$StrTraitMFC_DLL@DV?$ChTraitsCRT@D@ATL@@@@@ATL@@QBEHDH@Z
  0021a	8d 8d 48 ff ff
	ff		 lea	 ecx, DWORD PTR _strText$[ebp]
  00220	85 c0		 test	 eax, eax
  00222	0f 8e 0e 01 00
	00		 jle	 $LN4@SetShareDa

; 1036 : 	{
; 1037 : 		strText.Remove('/');

  00228	6a 2f		 push	 47			; 0000002fH
  0022a	ff 15 00 00 00
	00		 call	 DWORD PTR __imp_?Remove@?$CStringT@DV?$StrTraitMFC_DLL@DV?$ChTraitsCRT@D@ATL@@@@@ATL@@QAEHD@Z

; 1038 : 		strText.Remove(':');

  00230	6a 3a		 push	 58			; 0000003aH
  00232	8d 8d 48 ff ff
	ff		 lea	 ecx, DWORD PTR _strText$[ebp]
  00238	ff 15 00 00 00
	00		 call	 DWORD PTR __imp_?Remove@?$CStringT@DV?$StrTraitMFC_DLL@DV?$ChTraitsCRT@D@ATL@@@@@ATL@@QAEHD@Z
; File C:\Program Files (x86)\Microsoft Visual Studio\2019\Community\VC\Tools\MSVC\14.29.30133\atlmfc\include\atltime.h

; 374  : 	return( CTime( ::_time64( NULL ) ) );

  0023e	6a 00		 push	 0
  00240	ff 15 00 00 00
	00		 call	 DWORD PTR __imp___time64

; 417  : 	m_time( time )

  00246	89 85 30 ff ff
	ff		 mov	 DWORD PTR _currentTime$4[ebp], eax

; 1066 : 	if (_localtime64_s(&ptmTemp, &m_time) != 0)

  0024c	8d 85 30 ff ff
	ff		 lea	 eax, DWORD PTR _currentTime$4[ebp]
  00252	50		 push	 eax
  00253	8d 85 4c ff ff
	ff		 lea	 eax, DWORD PTR _ptmTemp$17[ebp]

; 417  : 	m_time( time )

  00259	89 95 34 ff ff
	ff		 mov	 DWORD PTR _currentTime$4[ebp+4], edx

; 1066 : 	if (_localtime64_s(&ptmTemp, &m_time) != 0)

  0025f	50		 push	 eax
  00260	ff 15 00 00 00
	00		 call	 DWORD PTR __imp___localtime64_s
  00266	83 c4 0c	 add	 esp, 12			; 0000000cH
  00269	85 c0		 test	 eax, eax
  0026b	0f 85 d6 01 00
	00		 jne	 $LN100@SetShareDa

; 1069 : 	}
; 1070 : 
; 1071 : 	if (!_tcsftime(szBuffer, maxTimeBufferSize, pFormat, &ptmTemp))

  00271	8d 85 4c ff ff
	ff		 lea	 eax, DWORD PTR _ptmTemp$17[ebp]
  00277	50		 push	 eax
  00278	68 00 00 00 00	 push	 OFFSET ??_C@_02FFEBEEPL@?$CFY@
  0027d	8d 85 70 ff ff
	ff		 lea	 eax, DWORD PTR _szBuffer$19[ebp]
  00283	68 80 00 00 00	 push	 128			; 00000080H
  00288	50		 push	 eax
  00289	ff 15 00 00 00
	00		 call	 DWORD PTR __imp__strftime
  0028f	83 c4 10	 add	 esp, 16			; 00000010H

; 1072 : 	{
; 1073 : 		szBuffer[0] = '\0';
; 1074 : 	}
; 1075 : 
; 1076 : 	return szBuffer;

  00292	8d 8d 44 ff ff
	ff		 lea	 ecx, DWORD PTR _strYear$14[ebp]
  00298	f7 d8		 neg	 eax
  0029a	1a c0		 sbb	 al, al
  0029c	20 85 70 ff ff
	ff		 and	 BYTE PTR _szBuffer$19[ebp], al
  002a2	8d 85 70 ff ff
	ff		 lea	 eax, DWORD PTR _szBuffer$19[ebp]
  002a8	50		 push	 eax
  002a9	ff 15 00 00 00
	00		 call	 DWORD PTR __imp_??0?$CStringT@DV?$StrTraitMFC_DLL@DV?$ChTraitsCRT@D@ATL@@@@@ATL@@QAE@PBD@Z
; File D:\git\src\IBK\IBK_DRFN\ProjSrc\SrcChartEx\ChartAddIn\ChartPatternAddIn\DlgAnalysis.cpp

; 1041 : 		strText = strYear + strText + "00";

  002af	8d 85 48 ff ff
	ff		 lea	 eax, DWORD PTR _strText$[ebp]
  002b5	c6 45 fc 06	 mov	 BYTE PTR __$EHRec$[ebp+8], 6
  002b9	50		 push	 eax
  002ba	8d 85 44 ff ff
	ff		 lea	 eax, DWORD PTR _strYear$14[ebp]
  002c0	50		 push	 eax
  002c1	8d 85 3c ff ff
	ff		 lea	 eax, DWORD PTR $T9[ebp]
  002c7	50		 push	 eax
  002c8	e8 00 00 00 00	 call	 ??HATL@@YA?AV?$CStringT@DV?$StrTraitMFC_DLL@DV?$ChTraitsCRT@D@ATL@@@@@0@ABV10@0@Z ; ATL::operator+
  002cd	83 c4 0c	 add	 esp, 12			; 0000000cH
  002d0	8b f0		 mov	 esi, eax
; File C:\Program Files (x86)\Microsoft Visual Studio\2019\Community\VC\Tools\MSVC\14.29.30133\atlmfc\include\cstringt.h

; 2401 : 		CStringT strResult( str1.GetManager() );

  002d2	8b ce		 mov	 ecx, esi
; File D:\git\src\IBK\IBK_DRFN\ProjSrc\SrcChartEx\ChartAddIn\ChartPatternAddIn\DlgAnalysis.cpp

; 1041 : 		strText = strYear + strText + "00";

  002d4	c6 45 fc 08	 mov	 BYTE PTR __$EHRec$[ebp+8], 8
; File C:\Program Files (x86)\Microsoft Visual Studio\2019\Community\VC\Tools\MSVC\14.29.30133\atlmfc\include\cstringt.h

; 2401 : 		CStringT strResult( str1.GetManager() );

  002d8	ff 15 00 00 00
	00		 call	 DWORD PTR __imp_?GetManager@?$CStringT@DV?$StrTraitMFC_DLL@DV?$ChTraitsCRT@D@ATL@@@@@ATL@@QBEPAUIAtlStringMgr@2@XZ
  002de	50		 push	 eax
  002df	8d 8d 40 ff ff
	ff		 lea	 ecx, DWORD PTR $T11[ebp]
  002e5	ff 15 00 00 00
	00		 call	 DWORD PTR __imp_??0?$CStringT@DV?$StrTraitMFC_DLL@DV?$ChTraitsCRT@D@ATL@@@@@ATL@@QAE@PAUIAtlStringMgr@1@@Z
; File C:\Program Files (x86)\Microsoft Visual Studio\2019\Community\VC\Tools\MSVC\14.29.30133\atlmfc\include\atlsimpstr.h

; 519  : 		return( GetData()->nDataLength );

  002eb	8b 06		 mov	 eax, DWORD PTR [esi]
; File C:\Program Files (x86)\Microsoft Visual Studio\2019\Community\VC\Tools\MSVC\14.29.30133\atlmfc\include\cstringt.h

; 2403 : 		CThisSimpleString::Concatenate( strResult, str1, str1.GetLength(), psz2, CThisSimpleString::StringLength( psz2 ) );

  002ed	6a 02		 push	 2
  002ef	68 00 00 00 00	 push	 OFFSET ??_C@_02PLJDPFIO@00@

; 2404 : 
; 2405 : 		return( strResult );

  002f4	c7 85 2c ff ff
	ff 18 00 00 00	 mov	 DWORD PTR $T2[ebp], 24	; 00000018H
  002fe	ff 70 f4	 push	 DWORD PTR [eax-12]
  00301	50		 push	 eax
  00302	8d 85 40 ff ff
	ff		 lea	 eax, DWORD PTR $T11[ebp]
  00308	50		 push	 eax
  00309	ff 15 00 00 00
	00		 call	 DWORD PTR __imp_?Concatenate@?$CSimpleStringT@D$00@ATL@@KAXAAV12@PBDH1H@Z
  0030f	83 c4 14	 add	 esp, 20			; 00000014H
; File D:\git\src\IBK\IBK_DRFN\ProjSrc\SrcChartEx\ChartAddIn\ChartPatternAddIn\DlgAnalysis.cpp

; 1041 : 		strText = strYear + strText + "00";

  00312	8d 85 40 ff ff
	ff		 lea	 eax, DWORD PTR $T11[ebp]
  00318	8d 8d 48 ff ff
	ff		 lea	 ecx, DWORD PTR _strText$[ebp]
  0031e	50		 push	 eax
  0031f	ff 15 00 00 00
	00		 call	 DWORD PTR __imp_??4?$CStringT@DV?$StrTraitMFC_DLL@DV?$ChTraitsCRT@D@ATL@@@@@ATL@@QAEAAV01@ABV01@@Z
  00325	8d 8d 40 ff ff
	ff		 lea	 ecx, DWORD PTR $T11[ebp]
  0032b	ff 15 00 00 00
	00		 call	 DWORD PTR __imp_??1?$CStringT@DV?$StrTraitMFC_DLL@DV?$ChTraitsCRT@D@ATL@@@@@ATL@@QAE@XZ

; 1042 : 	}

  00331	e9 80 00 00 00	 jmp	 $LN97@SetShareDa
$LN4@SetShareDa:

; 1043 : 	else if(strText.Find(':') > 0)

  00336	6a 00		 push	 0
  00338	6a 3a		 push	 58			; 0000003aH
  0033a	ff 15 00 00 00
	00		 call	 DWORD PTR __imp_?Find@?$CStringT@DV?$StrTraitMFC_DLL@DV?$ChTraitsCRT@D@ATL@@@@@ATL@@QBEHDH@Z
  00340	8d 8d 48 ff ff
	ff		 lea	 ecx, DWORD PTR _strText$[ebp]
  00346	85 c0		 test	 eax, eax
  00348	0f 8e 86 00 00
	00		 jle	 $LN6@SetShareDa

; 1044 : 	{
; 1045 : 		strText.Remove(':');

  0034e	6a 3a		 push	 58			; 0000003aH
  00350	ff 15 00 00 00
	00		 call	 DWORD PTR __imp_?Remove@?$CStringT@DV?$StrTraitMFC_DLL@DV?$ChTraitsCRT@D@ATL@@@@@ATL@@QAEHD@Z
; File C:\Program Files (x86)\Microsoft Visual Studio\2019\Community\VC\Tools\MSVC\14.29.30133\atlmfc\include\atltime.h

; 374  : 	return( CTime( ::_time64( NULL ) ) );

  00356	6a 00		 push	 0
  00358	ff 15 00 00 00
	00		 call	 DWORD PTR __imp___time64
  0035e	83 c4 04	 add	 esp, 4

; 417  : 	m_time( time )

  00361	89 85 30 ff ff
	ff		 mov	 DWORD PTR _currentTime$3[ebp], eax
; File D:\git\src\IBK\IBK_DRFN\ProjSrc\SrcChartEx\ChartAddIn\ChartPatternAddIn\DlgAnalysis.cpp

; 1047 : 		CString strDate = currentTime.Format("%Y%m%d");

  00367	8d 85 44 ff ff
	ff		 lea	 eax, DWORD PTR _strDate$13[ebp]
; File C:\Program Files (x86)\Microsoft Visual Studio\2019\Community\VC\Tools\MSVC\14.29.30133\atlmfc\include\atltime.h

; 417  : 	m_time( time )

  0036d	89 95 34 ff ff
	ff		 mov	 DWORD PTR _currentTime$3[ebp+4], edx
; File D:\git\src\IBK\IBK_DRFN\ProjSrc\SrcChartEx\ChartAddIn\ChartPatternAddIn\DlgAnalysis.cpp

; 1047 : 		CString strDate = currentTime.Format("%Y%m%d");

  00373	8d 8d 30 ff ff
	ff		 lea	 ecx, DWORD PTR _currentTime$3[ebp]
  00379	68 00 00 00 00	 push	 OFFSET ??_C@_06CLONMKIH@?$CFY?$CFm?$CFd@
  0037e	50		 push	 eax
  0037f	e8 00 00 00 00	 call	 ?Format@CTime@ATL@@QBE?AV?$CStringT@DV?$StrTraitMFC_DLL@DV?$ChTraitsCRT@D@ATL@@@@@2@PBD@Z ; ATL::CTime::Format

; 1048 : 		strText = strDate + strText;

  00384	8d 85 48 ff ff
	ff		 lea	 eax, DWORD PTR _strText$[ebp]
  0038a	c6 45 fc 09	 mov	 BYTE PTR __$EHRec$[ebp+8], 9
  0038e	50		 push	 eax
  0038f	8d 85 44 ff ff
	ff		 lea	 eax, DWORD PTR _strDate$13[ebp]
  00395	50		 push	 eax
  00396	8d 85 3c ff ff
	ff		 lea	 eax, DWORD PTR $T8[ebp]
  0039c	50		 push	 eax
  0039d	e8 00 00 00 00	 call	 ??HATL@@YA?AV?$CStringT@DV?$StrTraitMFC_DLL@DV?$ChTraitsCRT@D@ATL@@@@@0@ABV10@0@Z ; ATL::operator+
  003a2	83 c4 0c	 add	 esp, 12			; 0000000cH
  003a5	50		 push	 eax
  003a6	8d 8d 48 ff ff
	ff		 lea	 ecx, DWORD PTR _strText$[ebp]
  003ac	c6 45 fc 0a	 mov	 BYTE PTR __$EHRec$[ebp+8], 10 ; 0000000aH
  003b0	ff 15 00 00 00
	00		 call	 DWORD PTR __imp_??4?$CStringT@DV?$StrTraitMFC_DLL@DV?$ChTraitsCRT@D@ATL@@@@@ATL@@QAEAAV01@ABV01@@Z
$LN97@SetShareDa:

; 1052 : 
; 1053 : 	m_pPatternMaker->SetGSharedData("-",strText);

  003b6	8d 8d 3c ff ff
	ff		 lea	 ecx, DWORD PTR $T8[ebp]
  003bc	ff 15 00 00 00
	00		 call	 DWORD PTR __imp_??1?$CStringT@DV?$StrTraitMFC_DLL@DV?$ChTraitsCRT@D@ATL@@@@@ATL@@QAE@XZ
  003c2	8d 8d 44 ff ff
	ff		 lea	 ecx, DWORD PTR _strDate$13[ebp]
  003c8	c6 45 fc 00	 mov	 BYTE PTR __$EHRec$[ebp+8], 0
  003cc	ff 15 00 00 00
	00		 call	 DWORD PTR __imp_??1?$CStringT@DV?$StrTraitMFC_DLL@DV?$ChTraitsCRT@D@ATL@@@@@ATL@@QAE@XZ
  003d2	eb 08		 jmp	 SHORT $LN7@SetShareDa
$LN6@SetShareDa:

; 1049 : 	}
; 1050 : 	else
; 1051 : 		strText.Remove('-');

  003d4	6a 2d		 push	 45			; 0000002dH
  003d6	ff 15 00 00 00
	00		 call	 DWORD PTR __imp_?Remove@?$CStringT@DV?$StrTraitMFC_DLL@DV?$ChTraitsCRT@D@ATL@@@@@ATL@@QAEHD@Z
$LN7@SetShareDa:

; 1052 : 
; 1053 : 	m_pPatternMaker->SetGSharedData("-",strText);

  003dc	51		 push	 ecx
  003dd	8d 85 48 ff ff
	ff		 lea	 eax, DWORD PTR _strText$[ebp]
  003e3	89 a5 3c ff ff
	ff		 mov	 DWORD PTR $T7[ebp], esp
  003e9	8b cc		 mov	 ecx, esp
  003eb	50		 push	 eax
  003ec	ff 15 00 00 00
	00		 call	 DWORD PTR __imp_??0?$CStringT@DV?$StrTraitMFC_DLL@DV?$ChTraitsCRT@D@ATL@@@@@ATL@@QAE@ABV01@@Z
  003f2	51		 push	 ecx
  003f3	8b cc		 mov	 ecx, esp
  003f5	c6 45 fc 0b	 mov	 BYTE PTR __$EHRec$[ebp+8], 11 ; 0000000bH
  003f9	68 00 00 00 00	 push	 OFFSET ??_C@_09NAHCEPAB@?$LN?C?$LA?$KD?9?B?w?F?$KO@
  003fe	ff 15 00 00 00
	00		 call	 DWORD PTR __imp_??0?$CStringT@DV?$StrTraitMFC_DLL@DV?$ChTraitsCRT@D@ATL@@@@@ATL@@QAE@PBD@Z
  00404	c6 45 fc 00	 mov	 BYTE PTR __$EHRec$[ebp+8], 0
  00408	8b 8b a8 00 00
	00		 mov	 ecx, DWORD PTR [ebx+168]
  0040e	e8 00 00 00 00	 call	 ?SetGSharedData@CPatternMaker@@QAEXV?$CStringT@DV?$StrTraitMFC_DLL@DV?$ChTraitsCRT@D@ATL@@@@@ATL@@0@Z ; CPatternMaker::SetGSharedData

; 1054 : }

  00413	8d 8d 48 ff ff
	ff		 lea	 ecx, DWORD PTR _strText$[ebp]
  00419	ff 15 00 00 00
	00		 call	 DWORD PTR __imp_??1?$CStringT@DV?$StrTraitMFC_DLL@DV?$ChTraitsCRT@D@ATL@@@@@ATL@@QAE@XZ
  0041f	8b 4d f4	 mov	 ecx, DWORD PTR __$EHRec$[ebp]
  00422	64 89 0d 00 00
	00 00		 mov	 DWORD PTR fs:0, ecx
  00429	59		 pop	 ecx
  0042a	5f		 pop	 edi
  0042b	5e		 pop	 esi
  0042c	5b		 pop	 ebx
  0042d	8b 4d f0	 mov	 ecx, DWORD PTR __$ArrayPad$[ebp]
  00430	33 cd		 xor	 ecx, ebp
  00432	e8 00 00 00 00	 call	 @__security_check_cookie@4
  00437	8b e5		 mov	 esp, ebp
  00439	5d		 pop	 ebp
  0043a	c2 08 00	 ret	 8
$LN99@SetShareDa:
; File C:\Program Files (x86)\Microsoft Visual Studio\2019\Community\VC\Tools\MSVC\14.29.30133\atlmfc\include\atltime.h

; 1068 : 		AtlThrow(E_INVALIDARG);

  0043d	68 57 00 07 80	 push	 -2147024809		; 80070057H
  00442	e8 00 00 00 00	 call	 ?AtlThrowImpl@ATL@@YGXJ@Z ; ATL::AtlThrowImpl
$LN100@SetShareDa:
  00447	68 57 00 07 80	 push	 -2147024809		; 80070057H
  0044c	e8 00 00 00 00	 call	 ?AtlThrowImpl@ATL@@YGXJ@Z ; ATL::AtlThrowImpl
$LN96@SetShareDa:
  00451	cc		 int	 3
_TEXT	ENDS
;	COMDAT text$x
text$x	SEGMENT
__unwindfunclet$?SetShareData@CDlgAnalysis@@QAEXPAVCGridCtrl@@H@Z$0:
  00000	8d 8d 48 ff ff
	ff		 lea	 ecx, DWORD PTR _strText$[ebp]
  00006	ff 25 00 00 00
	00		 jmp	 DWORD PTR __imp_??1?$CStringT@DV?$StrTraitMFC_DLL@DV?$ChTraitsCRT@D@ATL@@@@@ATL@@QAE@XZ
__unwindfunclet$?SetShareData@CDlgAnalysis@@QAEXPAVCGridCtrl@@H@Z$1:
  0000c	8d 8d 44 ff ff
	ff		 lea	 ecx, DWORD PTR $T16[ebp]
  00012	ff 25 00 00 00
	00		 jmp	 DWORD PTR __imp_??1?$CStringT@DV?$StrTraitMFC_DLL@DV?$ChTraitsCRT@D@ATL@@@@@ATL@@QAE@XZ
__unwindfunclet$?SetShareData@CDlgAnalysis@@QAEXPAVCGridCtrl@@H@Z$2:
  00018	8d 8d 44 ff ff
	ff		 lea	 ecx, DWORD PTR _strYear$15[ebp]
  0001e	ff 25 00 00 00
	00		 jmp	 DWORD PTR __imp_??1?$CStringT@DV?$StrTraitMFC_DLL@DV?$ChTraitsCRT@D@ATL@@@@@ATL@@QAE@XZ
__unwindfunclet$?SetShareData@CDlgAnalysis@@QAEXPAVCGridCtrl@@H@Z$3:
  00024	8d 8d 3c ff ff
	ff		 lea	 ecx, DWORD PTR $T10[ebp]
  0002a	ff 25 00 00 00
	00		 jmp	 DWORD PTR __imp_??1?$CStringT@DV?$StrTraitMFC_DLL@DV?$ChTraitsCRT@D@ATL@@@@@ATL@@QAE@XZ
__unwindfunclet$?SetShareData@CDlgAnalysis@@QAEXPAVCGridCtrl@@H@Z$14:
  00030	8b 85 2c ff ff
	ff		 mov	 eax, DWORD PTR $T2[ebp]
  00036	83 e0 02	 and	 eax, 2
  00039	0f 84 13 00 00
	00		 je	 $LN39@SetShareDa
  0003f	83 a5 2c ff ff
	ff fd		 and	 DWORD PTR $T2[ebp], -3	; fffffffdH
  00046	8d 8d 38 ff ff
	ff		 lea	 ecx, DWORD PTR $T6[ebp]
  0004c	ff 25 00 00 00
	00		 jmp	 DWORD PTR __imp_??1?$CStringT@DV?$StrTraitMFC_DLL@DV?$ChTraitsCRT@D@ATL@@@@@ATL@@QAE@XZ
$LN39@SetShareDa:
  00052	c3		 ret	 0
__unwindfunclet$?SetShareData@CDlgAnalysis@@QAEXPAVCGridCtrl@@H@Z$15:
  00053	8b 85 2c ff ff
	ff		 mov	 eax, DWORD PTR $T2[ebp]
  00059	83 e0 04	 and	 eax, 4
  0005c	0f 84 13 00 00
	00		 je	 $LN55@SetShareDa
  00062	83 a5 2c ff ff
	ff fb		 and	 DWORD PTR $T2[ebp], -5	; fffffffbH
  00069	8d 8d 40 ff ff
	ff		 lea	 ecx, DWORD PTR $T12[ebp]
  0006f	ff 25 00 00 00
	00		 jmp	 DWORD PTR __imp_??1?$CStringT@DV?$StrTraitMFC_DLL@DV?$ChTraitsCRT@D@ATL@@@@@ATL@@QAE@XZ
$LN55@SetShareDa:
  00075	c3		 ret	 0
__unwindfunclet$?SetShareData@CDlgAnalysis@@QAEXPAVCGridCtrl@@H@Z$6:
  00076	8d 8d 44 ff ff
	ff		 lea	 ecx, DWORD PTR _strYear$14[ebp]
  0007c	ff 25 00 00 00
	00		 jmp	 DWORD PTR __imp_??1?$CStringT@DV?$StrTraitMFC_DLL@DV?$ChTraitsCRT@D@ATL@@@@@ATL@@QAE@XZ
__unwindfunclet$?SetShareData@CDlgAnalysis@@QAEXPAVCGridCtrl@@H@Z$7:
  00082	8d 8d 3c ff ff
	ff		 lea	 ecx, DWORD PTR $T9[ebp]
  00088	ff 25 00 00 00
	00		 jmp	 DWORD PTR __imp_??1?$CStringT@DV?$StrTraitMFC_DLL@DV?$ChTraitsCRT@D@ATL@@@@@ATL@@QAE@XZ
__unwindfunclet$?SetShareData@CDlgAnalysis@@QAEXPAVCGridCtrl@@H@Z$17:
  0008e	8b 85 2c ff ff
	ff		 mov	 eax, DWORD PTR $T2[ebp]
  00094	83 e0 10	 and	 eax, 16			; 00000010H
  00097	0f 84 13 00 00
	00		 je	 $LN81@SetShareDa
  0009d	83 a5 2c ff ff
	ff ef		 and	 DWORD PTR $T2[ebp], -17	; ffffffefH
  000a4	8d 8d 40 ff ff
	ff		 lea	 ecx, DWORD PTR $T11[ebp]
  000aa	ff 25 00 00 00
	00		 jmp	 DWORD PTR __imp_??1?$CStringT@DV?$StrTraitMFC_DLL@DV?$ChTraitsCRT@D@ATL@@@@@ATL@@QAE@XZ
$LN81@SetShareDa:
  000b0	c3		 ret	 0
__unwindfunclet$?SetShareData@CDlgAnalysis@@QAEXPAVCGridCtrl@@H@Z$9:
  000b1	8d 8d 44 ff ff
	ff		 lea	 ecx, DWORD PTR _strDate$13[ebp]
  000b7	ff 25 00 00 00
	00		 jmp	 DWORD PTR __imp_??1?$CStringT@DV?$StrTraitMFC_DLL@DV?$ChTraitsCRT@D@ATL@@@@@ATL@@QAE@XZ
__unwindfunclet$?SetShareData@CDlgAnalysis@@QAEXPAVCGridCtrl@@H@Z$10:
  000bd	8d 8d 3c ff ff
	ff		 lea	 ecx, DWORD PTR $T8[ebp]
  000c3	ff 25 00 00 00
	00		 jmp	 DWORD PTR __imp_??1?$CStringT@DV?$StrTraitMFC_DLL@DV?$ChTraitsCRT@D@ATL@@@@@ATL@@QAE@XZ
__unwindfunclet$?SetShareData@CDlgAnalysis@@QAEXPAVCGridCtrl@@H@Z$11:
  000c9	8b 8d 3c ff ff
	ff		 mov	 ecx, DWORD PTR $T7[ebp]
  000cf	ff 25 00 00 00
	00		 jmp	 DWORD PTR __imp_??1?$CStringT@DV?$StrTraitMFC_DLL@DV?$ChTraitsCRT@D@ATL@@@@@ATL@@QAE@XZ
  000d5	cc		 int	 3
  000d6	cc		 int	 3
  000d7	cc		 int	 3
  000d8	cc		 int	 3
  000d9	cc		 int	 3
__ehhandler$?SetShareData@CDlgAnalysis@@QAEXPAVCGridCtrl@@H@Z:
  000da	90		 npad	 1
  000db	90		 npad	 1
  000dc	8b 54 24 08	 mov	 edx, DWORD PTR [esp+8]
  000e0	8d 42 0c	 lea	 eax, DWORD PTR [edx+12]
  000e3	8b 8a 28 ff ff
	ff		 mov	 ecx, DWORD PTR [edx-216]
  000e9	33 c8		 xor	 ecx, eax
  000eb	e8 00 00 00 00	 call	 @__security_check_cookie@4
  000f0	8b 4a fc	 mov	 ecx, DWORD PTR [edx-4]
  000f3	33 c8		 xor	 ecx, eax
  000f5	e8 00 00 00 00	 call	 @__security_check_cookie@4
  000fa	b8 00 00 00 00	 mov	 eax, OFFSET __ehfuncinfo$?SetShareData@CDlgAnalysis@@QAEXPAVCGridCtrl@@H@Z
  000ff	e9 00 00 00 00	 jmp	 ___CxxFrameHandler3
text$x	ENDS
?SetShareData@CDlgAnalysis@@QAEXPAVCGridCtrl@@H@Z ENDP	; CDlgAnalysis::SetShareData
; Function compile flags: /Ogtp
; File D:\git\src\IBK\IBK_DRFN\ProjSrc\SrcChartEx\ChartAddIn\ChartPatternAddIn\DlgAnalysis.cpp
;	COMDAT ?GetSelectedCandlePatternData@CDlgAnalysis@@QAEXH@Z
_TEXT	SEGMENT
_dTime$ = -28						; size = 8
$T2 = -24						; size = 4
_strPatternName$ = -20					; size = 4
_strText$ = -16						; size = 4
__$EHRec$ = -12						; size = 12
$T3 = 8							; size = 4
_nRow$ = 8						; size = 4
?GetSelectedCandlePatternData@CDlgAnalysis@@QAEXH@Z PROC ; CDlgAnalysis::GetSelectedCandlePatternData, COMDAT
; _this$ = ecx

; 1006 : {

  00000	55		 push	 ebp
  00001	8b ec		 mov	 ebp, esp
  00003	6a ff		 push	 -1
  00005	68 00 00 00 00	 push	 __ehhandler$?GetSelectedCandlePatternData@CDlgAnalysis@@QAEXH@Z
  0000a	64 a1 00 00 00
	00		 mov	 eax, DWORD PTR fs:0
  00010	50		 push	 eax
  00011	83 ec 10	 sub	 esp, 16			; 00000010H
  00014	57		 push	 edi
  00015	a1 00 00 00 00	 mov	 eax, DWORD PTR ___security_cookie
  0001a	33 c5		 xor	 eax, ebp
  0001c	50		 push	 eax
  0001d	8d 45 f4	 lea	 eax, DWORD PTR __$EHRec$[ebp]
  00020	64 a3 00 00 00
	00		 mov	 DWORD PTR fs:0, eax
  00026	8b f9		 mov	 edi, ecx

; 1007 : 	double dTime;
; 1008 : 	CString strPatternName, strText;

  00028	8d 4d ec	 lea	 ecx, DWORD PTR _strPatternName$[ebp]
  0002b	ff 15 00 00 00
	00		 call	 DWORD PTR __imp_??0?$CStringT@DV?$StrTraitMFC_DLL@DV?$ChTraitsCRT@D@ATL@@@@@ATL@@QAE@XZ
  00031	8d 4d f0	 lea	 ecx, DWORD PTR _strText$[ebp]
  00034	c7 45 fc 00 00
	00 00		 mov	 DWORD PTR __$EHRec$[ebp+8], 0
  0003b	ff 15 00 00 00
	00		 call	 DWORD PTR __imp_??0?$CStringT@DV?$StrTraitMFC_DLL@DV?$ChTraitsCRT@D@ATL@@@@@ATL@@QAE@XZ

; 1009 : 
; 1010 : 	strText = m_pGridCandleRtpType1->GetItemText( nRow, COL_CND1_TIME);

  00041	8b 8f ac 00 00
	00		 mov	 ecx, DWORD PTR [edi+172]
  00047	8d 45 e8	 lea	 eax, DWORD PTR $T2[ebp]
  0004a	6a 01		 push	 1
  0004c	ff 75 08	 push	 DWORD PTR _nRow$[ebp]
  0004f	c6 45 fc 01	 mov	 BYTE PTR __$EHRec$[ebp+8], 1
  00053	50		 push	 eax
  00054	e8 00 00 00 00	 call	 ?GetItemText@CGridCtrl@@QBE?AV?$CStringT@DV?$StrTraitMFC_DLL@DV?$ChTraitsCRT@D@ATL@@@@@ATL@@HH@Z ; CGridCtrl::GetItemText
  00059	50		 push	 eax
  0005a	8d 4d f0	 lea	 ecx, DWORD PTR _strText$[ebp]
  0005d	c6 45 fc 02	 mov	 BYTE PTR __$EHRec$[ebp+8], 2
  00061	ff 15 00 00 00
	00		 call	 DWORD PTR __imp_??4?$CStringT@DV?$StrTraitMFC_DLL@DV?$ChTraitsCRT@D@ATL@@@@@ATL@@QAEAAV01@ABV01@@Z
  00067	8d 4d e8	 lea	 ecx, DWORD PTR $T2[ebp]
  0006a	c6 45 fc 01	 mov	 BYTE PTR __$EHRec$[ebp+8], 1
  0006e	ff 15 00 00 00
	00		 call	 DWORD PTR __imp_??1?$CStringT@DV?$StrTraitMFC_DLL@DV?$ChTraitsCRT@D@ATL@@@@@ATL@@QAE@XZ

; 1011 : 	strText.Remove('-');

  00074	6a 2d		 push	 45			; 0000002dH
  00076	8d 4d f0	 lea	 ecx, DWORD PTR _strText$[ebp]
  00079	ff 15 00 00 00
	00		 call	 DWORD PTR __imp_?Remove@?$CStringT@DV?$StrTraitMFC_DLL@DV?$ChTraitsCRT@D@ATL@@@@@ATL@@QAEHD@Z

; 1012 : 	dTime = atof(strText);

  0007f	ff 75 f0	 push	 DWORD PTR _strText$[ebp]
  00082	ff 15 00 00 00
	00		 call	 DWORD PTR __imp__atof

; 1013 : 
; 1014 : 	strPatternName = m_pGridCandleRtpType1->GetItemText( nRow, COL_CND1_NAME);

  00088	8b 8f ac 00 00
	00		 mov	 ecx, DWORD PTR [edi+172]
  0008e	8d 45 08	 lea	 eax, DWORD PTR $T3[ebp]
  00091	83 c4 04	 add	 esp, 4
  00094	dd 5d e4	 fstp	 QWORD PTR _dTime$[ebp]
  00097	6a 03		 push	 3
  00099	ff 75 08	 push	 DWORD PTR _nRow$[ebp]
  0009c	50		 push	 eax
  0009d	e8 00 00 00 00	 call	 ?GetItemText@CGridCtrl@@QBE?AV?$CStringT@DV?$StrTraitMFC_DLL@DV?$ChTraitsCRT@D@ATL@@@@@ATL@@HH@Z ; CGridCtrl::GetItemText
  000a2	50		 push	 eax
  000a3	8d 4d ec	 lea	 ecx, DWORD PTR _strPatternName$[ebp]
  000a6	c6 45 fc 03	 mov	 BYTE PTR __$EHRec$[ebp+8], 3
  000aa	ff 15 00 00 00
	00		 call	 DWORD PTR __imp_??4?$CStringT@DV?$StrTraitMFC_DLL@DV?$ChTraitsCRT@D@ATL@@@@@ATL@@QAEAAV01@ABV01@@Z
  000b0	8d 4d 08	 lea	 ecx, DWORD PTR $T3[ebp]
  000b3	c6 45 fc 01	 mov	 BYTE PTR __$EHRec$[ebp+8], 1
  000b7	ff 15 00 00 00
	00		 call	 DWORD PTR __imp_??1?$CStringT@DV?$StrTraitMFC_DLL@DV?$ChTraitsCRT@D@ATL@@@@@ATL@@QAE@XZ

; 1015 : 	m_pPatternMaker->SetSelectedCandlePatternData( dTime, strPatternName);

  000bd	51		 push	 ecx
  000be	8d 45 ec	 lea	 eax, DWORD PTR _strPatternName$[ebp]
  000c1	8b cc		 mov	 ecx, esp
  000c3	50		 push	 eax
  000c4	ff 15 00 00 00
	00		 call	 DWORD PTR __imp_??0?$CStringT@DV?$StrTraitMFC_DLL@DV?$ChTraitsCRT@D@ATL@@@@@ATL@@QAE@ABV01@@Z
  000ca	f2 0f 10 45 e4	 movsd	 xmm0, QWORD PTR _dTime$[ebp]
  000cf	83 ec 08	 sub	 esp, 8
  000d2	8b 8f a8 00 00
	00		 mov	 ecx, DWORD PTR [edi+168]
  000d8	f2 0f 11 04 24	 movsd	 QWORD PTR [esp], xmm0
  000dd	e8 00 00 00 00	 call	 ?SetSelectedCandlePatternData@CPatternMaker@@QAEXNV?$CStringT@DV?$StrTraitMFC_DLL@DV?$ChTraitsCRT@D@ATL@@@@@ATL@@@Z ; CPatternMaker::SetSelectedCandlePatternData

; 1016 : }

  000e2	8d 4d f0	 lea	 ecx, DWORD PTR _strText$[ebp]
  000e5	ff 15 00 00 00
	00		 call	 DWORD PTR __imp_??1?$CStringT@DV?$StrTraitMFC_DLL@DV?$ChTraitsCRT@D@ATL@@@@@ATL@@QAE@XZ
  000eb	8d 4d ec	 lea	 ecx, DWORD PTR _strPatternName$[ebp]
  000ee	ff 15 00 00 00
	00		 call	 DWORD PTR __imp_??1?$CStringT@DV?$StrTraitMFC_DLL@DV?$ChTraitsCRT@D@ATL@@@@@ATL@@QAE@XZ
  000f4	8b 4d f4	 mov	 ecx, DWORD PTR __$EHRec$[ebp]
  000f7	64 89 0d 00 00
	00 00		 mov	 DWORD PTR fs:0, ecx
  000fe	59		 pop	 ecx
  000ff	5f		 pop	 edi
  00100	8b e5		 mov	 esp, ebp
  00102	5d		 pop	 ebp
  00103	c2 04 00	 ret	 4
_TEXT	ENDS
;	COMDAT text$x
text$x	SEGMENT
__unwindfunclet$?GetSelectedCandlePatternData@CDlgAnalysis@@QAEXH@Z$0:
  00000	8d 4d ec	 lea	 ecx, DWORD PTR _strPatternName$[ebp]
  00003	ff 25 00 00 00
	00		 jmp	 DWORD PTR __imp_??1?$CStringT@DV?$StrTraitMFC_DLL@DV?$ChTraitsCRT@D@ATL@@@@@ATL@@QAE@XZ
__unwindfunclet$?GetSelectedCandlePatternData@CDlgAnalysis@@QAEXH@Z$1:
  00009	8d 4d f0	 lea	 ecx, DWORD PTR _strText$[ebp]
  0000c	ff 25 00 00 00
	00		 jmp	 DWORD PTR __imp_??1?$CStringT@DV?$StrTraitMFC_DLL@DV?$ChTraitsCRT@D@ATL@@@@@ATL@@QAE@XZ
__unwindfunclet$?GetSelectedCandlePatternData@CDlgAnalysis@@QAEXH@Z$2:
  00012	8d 4d e8	 lea	 ecx, DWORD PTR $T2[ebp]
  00015	ff 25 00 00 00
	00		 jmp	 DWORD PTR __imp_??1?$CStringT@DV?$StrTraitMFC_DLL@DV?$ChTraitsCRT@D@ATL@@@@@ATL@@QAE@XZ
__unwindfunclet$?GetSelectedCandlePatternData@CDlgAnalysis@@QAEXH@Z$3:
  0001b	8d 4d 08	 lea	 ecx, DWORD PTR $T3[ebp]
  0001e	ff 25 00 00 00
	00		 jmp	 DWORD PTR __imp_??1?$CStringT@DV?$StrTraitMFC_DLL@DV?$ChTraitsCRT@D@ATL@@@@@ATL@@QAE@XZ
  00024	cc		 int	 3
  00025	cc		 int	 3
  00026	cc		 int	 3
  00027	cc		 int	 3
  00028	cc		 int	 3
__ehhandler$?GetSelectedCandlePatternData@CDlgAnalysis@@QAEXH@Z:
  00029	90		 npad	 1
  0002a	90		 npad	 1
  0002b	8b 54 24 08	 mov	 edx, DWORD PTR [esp+8]
  0002f	8d 42 0c	 lea	 eax, DWORD PTR [edx+12]
  00032	8b 4a e8	 mov	 ecx, DWORD PTR [edx-24]
  00035	33 c8		 xor	 ecx, eax
  00037	e8 00 00 00 00	 call	 @__security_check_cookie@4
  0003c	b8 00 00 00 00	 mov	 eax, OFFSET __ehfuncinfo$?GetSelectedCandlePatternData@CDlgAnalysis@@QAEXH@Z
  00041	e9 00 00 00 00	 jmp	 ___CxxFrameHandler3
text$x	ENDS
?GetSelectedCandlePatternData@CDlgAnalysis@@QAEXH@Z ENDP ; CDlgAnalysis::GetSelectedCandlePatternData
; Function compile flags: /Ogtp
; File D:\git\src\IBK\IBK_DRFN\ProjSrc\SrcChartEx\ChartAddIn\ChartPatternAddIn\DlgAnalysis.cpp
; File C:\Program Files (x86)\Microsoft Visual Studio\2019\Community\VC\Tools\MSVC\14.29.30133\atlmfc\include\atlsimpstr.h
; File D:\git\src\IBK\IBK_DRFN\ProjSrc\SrcChartEx\ChartAddIn\ChartPatternAddIn\DlgAnalysis.cpp
; File C:\Program Files (x86)\Microsoft Visual Studio\2019\Community\VC\Tools\MSVC\14.29.30133\atlmfc\include\atlsimpstr.h
; File D:\git\src\IBK\IBK_DRFN\ProjSrc\SrcChartEx\ChartAddIn\ChartPatternAddIn\DlgAnalysis.cpp
; File C:\Program Files (x86)\Microsoft Visual Studio\2019\Community\VC\Tools\MSVC\14.29.30133\atlmfc\include\cstringt.h
; File D:\git\src\IBK\IBK_DRFN\ProjSrc\SrcChartEx\ChartAddIn\ChartPatternAddIn\DlgAnalysis.cpp
; File C:\Program Files (x86)\Microsoft Visual Studio\2019\Community\VC\Tools\MSVC\14.29.30133\atlmfc\include\cstringt.h
; File C:\Program Files (x86)\Microsoft Visual Studio\2019\Community\VC\Tools\MSVC\14.29.30133\atlmfc\include\atlsimpstr.h
; File C:\Program Files (x86)\Microsoft Visual Studio\2019\Community\VC\Tools\MSVC\14.29.30133\atlmfc\include\cstringt.h
; File D:\git\src\IBK\IBK_DRFN\ProjSrc\SrcChartEx\ChartAddIn\ChartPatternAddIn\DlgAnalysis.cpp
; File C:\Program Files (x86)\Microsoft Visual Studio\2019\Community\VC\Tools\MSVC\14.29.30133\atlmfc\include\cstringt.h
; File D:\git\src\IBK\IBK_DRFN\ProjSrc\SrcChartEx\ChartAddIn\ChartPatternAddIn\DlgAnalysis.cpp
; File C:\Program Files (x86)\Microsoft Visual Studio\2019\Community\VC\Tools\MSVC\14.29.30133\atlmfc\include\cstringt.h
; File C:\Program Files (x86)\Microsoft Visual Studio\2019\Community\VC\Tools\MSVC\14.29.30133\atlmfc\include\atlsimpstr.h
; File C:\Program Files (x86)\Microsoft Visual Studio\2019\Community\VC\Tools\MSVC\14.29.30133\atlmfc\include\cstringt.h
; File D:\git\src\IBK\IBK_DRFN\ProjSrc\SrcChartEx\ChartAddIn\ChartPatternAddIn\DlgAnalysis.cpp
; File C:\Program Files (x86)\Microsoft Visual Studio\2019\Community\VC\Tools\MSVC\14.29.30133\atlmfc\include\cstringt.h
; File D:\git\src\IBK\IBK_DRFN\ProjSrc\SrcChartEx\ChartAddIn\ChartPatternAddIn\DlgAnalysis.cpp
; File C:\Program Files (x86)\Microsoft Visual Studio\2019\Community\VC\Tools\MSVC\14.29.30133\atlmfc\include\cstringt.h
; File C:\Program Files (x86)\Microsoft Visual Studio\2019\Community\VC\Tools\MSVC\14.29.30133\atlmfc\include\atlsimpstr.h
; File C:\Program Files (x86)\Microsoft Visual Studio\2019\Community\VC\Tools\MSVC\14.29.30133\atlmfc\include\cstringt.h
; File D:\git\src\IBK\IBK_DRFN\ProjSrc\SrcChartEx\ChartAddIn\ChartPatternAddIn\DlgAnalysis.cpp
; File C:\Program Files (x86)\Microsoft Visual Studio\2019\Community\VC\Tools\MSVC\14.29.30133\atlmfc\include\cstringt.h
; File D:\git\src\IBK\IBK_DRFN\ProjSrc\SrcChartEx\ChartAddIn\ChartPatternAddIn\DlgAnalysis.cpp
; File C:\Program Files (x86)\Microsoft Visual Studio\2019\Community\VC\Tools\MSVC\14.29.30133\atlmfc\include\cstringt.h
; File C:\Program Files (x86)\Microsoft Visual Studio\2019\Community\VC\Tools\MSVC\14.29.30133\atlmfc\include\atlsimpstr.h
; File C:\Program Files (x86)\Microsoft Visual Studio\2019\Community\VC\Tools\MSVC\14.29.30133\atlmfc\include\cstringt.h
; File D:\git\src\IBK\IBK_DRFN\ProjSrc\SrcChartEx\ChartAddIn\ChartPatternAddIn\DlgAnalysis.cpp
; File C:\Program Files (x86)\Microsoft Visual Studio\2019\Community\VC\Tools\MSVC\14.29.30133\atlmfc\include\cstringt.h
; File C:\Program Files (x86)\Microsoft Visual Studio\2019\Community\VC\Tools\MSVC\14.29.30133\atlmfc\include\atlsimpstr.h
; File C:\Program Files (x86)\Microsoft Visual Studio\2019\Community\VC\Tools\MSVC\14.29.30133\atlmfc\include\cstringt.h
; File D:\git\src\IBK\IBK_DRFN\ProjSrc\SrcChartEx\ChartAddIn\ChartPatternAddIn\DlgAnalysis.cpp
; File C:\Program Files (x86)\Microsoft Visual Studio\2019\Community\VC\Tools\MSVC\14.29.30133\atlmfc\include\cstringt.h
; File C:\Program Files (x86)\Microsoft Visual Studio\2019\Community\VC\Tools\MSVC\14.29.30133\atlmfc\include\atlsimpstr.h
; File C:\Program Files (x86)\Microsoft Visual Studio\2019\Community\VC\Tools\MSVC\14.29.30133\atlmfc\include\cstringt.h
; File D:\git\src\IBK\IBK_DRFN\ProjSrc\SrcChartEx\ChartAddIn\ChartPatternAddIn\DlgAnalysis.cpp
; File C:\Program Files (x86)\Microsoft Visual Studio\2019\Community\VC\Tools\MSVC\14.29.30133\atlmfc\include\cstringt.h
; File C:\Program Files (x86)\Microsoft Visual Studio\2019\Community\VC\Tools\MSVC\14.29.30133\atlmfc\include\atlsimpstr.h
; File C:\Program Files (x86)\Microsoft Visual Studio\2019\Community\VC\Tools\MSVC\14.29.30133\atlmfc\include\cstringt.h
; File D:\git\src\IBK\IBK_DRFN\ProjSrc\SrcChartEx\ChartAddIn\ChartPatternAddIn\DlgAnalysis.cpp
; File C:\Program Files (x86)\Microsoft Visual Studio\2019\Community\VC\Tools\MSVC\14.29.30133\atlmfc\include\cstringt.h
; File D:\git\src\IBK\IBK_DRFN\ProjSrc\SrcChartEx\ChartAddIn\ChartPatternAddIn\DlgAnalysis.cpp
; File C:\Program Files (x86)\Microsoft Visual Studio\2019\Community\VC\Tools\MSVC\14.29.30133\atlmfc\include\cstringt.h
; File C:\Program Files (x86)\Microsoft Visual Studio\2019\Community\VC\Tools\MSVC\14.29.30133\atlmfc\include\atlsimpstr.h
; File C:\Program Files (x86)\Microsoft Visual Studio\2019\Community\VC\Tools\MSVC\14.29.30133\atlmfc\include\cstringt.h
; File D:\git\src\IBK\IBK_DRFN\ProjSrc\SrcChartEx\ChartAddIn\ChartPatternAddIn\DlgAnalysis.cpp
; File C:\Program Files (x86)\Microsoft Visual Studio\2019\Community\VC\Tools\MSVC\14.29.30133\atlmfc\include\cstringt.h
; File C:\Program Files (x86)\Microsoft Visual Studio\2019\Community\VC\Tools\MSVC\14.29.30133\atlmfc\include\atlsimpstr.h
; File C:\Program Files (x86)\Microsoft Visual Studio\2019\Community\VC\Tools\MSVC\14.29.30133\atlmfc\include\cstringt.h
; File D:\git\src\IBK\IBK_DRFN\ProjSrc\SrcChartEx\ChartAddIn\ChartPatternAddIn\DlgAnalysis.cpp
; File C:\Program Files (x86)\Microsoft Visual Studio\2019\Community\VC\Tools\MSVC\14.29.30133\atlmfc\include\cstringt.h
; File D:\git\src\IBK\IBK_DRFN\ProjSrc\SrcChartEx\ChartAddIn\ChartPatternAddIn\DlgAnalysis.cpp
; File C:\Program Files (x86)\Microsoft Visual Studio\2019\Community\VC\Tools\MSVC\14.29.30133\atlmfc\include\cstringt.h
; File C:\Program Files (x86)\Microsoft Visual Studio\2019\Community\VC\Tools\MSVC\14.29.30133\atlmfc\include\atlsimpstr.h
; File C:\Program Files (x86)\Microsoft Visual Studio\2019\Community\VC\Tools\MSVC\14.29.30133\atlmfc\include\cstringt.h
; File D:\git\src\IBK\IBK_DRFN\ProjSrc\SrcChartEx\ChartAddIn\ChartPatternAddIn\DlgAnalysis.cpp
; File C:\Program Files (x86)\Microsoft Visual Studio\2019\Community\VC\Tools\MSVC\14.29.30133\atlmfc\include\cstringt.h
; File D:\git\src\IBK\IBK_DRFN\ProjSrc\SrcChartEx\ChartAddIn\ChartPatternAddIn\DlgAnalysis.cpp
; File C:\Program Files (x86)\Microsoft Visual Studio\2019\Community\VC\Tools\MSVC\14.29.30133\atlmfc\include\cstringt.h
; File C:\Program Files (x86)\Microsoft Visual Studio\2019\Community\VC\Tools\MSVC\14.29.30133\atlmfc\include\atlsimpstr.h
; File C:\Program Files (x86)\Microsoft Visual Studio\2019\Community\VC\Tools\MSVC\14.29.30133\atlmfc\include\cstringt.h
; File D:\git\src\IBK\IBK_DRFN\ProjSrc\SrcChartEx\ChartAddIn\ChartPatternAddIn\DlgAnalysis.cpp
; File C:\Program Files (x86)\Microsoft Visual Studio\2019\Community\VC\Tools\MSVC\14.29.30133\atlmfc\include\cstringt.h
; File D:\git\src\IBK\IBK_DRFN\ProjSrc\SrcChartEx\ChartAddIn\ChartPatternAddIn\DlgAnalysis.cpp
; File C:\Program Files (x86)\Microsoft Visual Studio\2019\Community\VC\Tools\MSVC\14.29.30133\atlmfc\include\cstringt.h
; File C:\Program Files (x86)\Microsoft Visual Studio\2019\Community\VC\Tools\MSVC\14.29.30133\atlmfc\include\atlsimpstr.h
; File C:\Program Files (x86)\Microsoft Visual Studio\2019\Community\VC\Tools\MSVC\14.29.30133\atlmfc\include\cstringt.h
; File D:\git\src\IBK\IBK_DRFN\ProjSrc\SrcChartEx\ChartAddIn\ChartPatternAddIn\DlgAnalysis.cpp
; File C:\Program Files (x86)\Microsoft Visual Studio\2019\Community\VC\Tools\MSVC\14.29.30133\atlmfc\include\cstringt.h
; File D:\git\src\IBK\IBK_DRFN\ProjSrc\SrcChartEx\ChartAddIn\ChartPatternAddIn\DlgAnalysis.cpp
; File C:\Program Files (x86)\Microsoft Visual Studio\2019\Community\VC\Tools\MSVC\14.29.30133\atlmfc\include\cstringt.h
; File C:\Program Files (x86)\Microsoft Visual Studio\2019\Community\VC\Tools\MSVC\14.29.30133\atlmfc\include\atlsimpstr.h
; File C:\Program Files (x86)\Microsoft Visual Studio\2019\Community\VC\Tools\MSVC\14.29.30133\atlmfc\include\cstringt.h
; File D:\git\src\IBK\IBK_DRFN\ProjSrc\SrcChartEx\ChartAddIn\ChartPatternAddIn\DlgAnalysis.cpp
; File C:\Program Files (x86)\Microsoft Visual Studio\2019\Community\VC\Tools\MSVC\14.29.30133\atlmfc\include\cstringt.h
; File D:\git\src\IBK\IBK_DRFN\ProjSrc\SrcChartEx\ChartAddIn\ChartPatternAddIn\DlgAnalysis.cpp
; File C:\Program Files (x86)\Microsoft Visual Studio\2019\Community\VC\Tools\MSVC\14.29.30133\atlmfc\include\cstringt.h
; File C:\Program Files (x86)\Microsoft Visual Studio\2019\Community\VC\Tools\MSVC\14.29.30133\atlmfc\include\atlsimpstr.h
; File C:\Program Files (x86)\Microsoft Visual Studio\2019\Community\VC\Tools\MSVC\14.29.30133\atlmfc\include\cstringt.h
; File D:\git\src\IBK\IBK_DRFN\ProjSrc\SrcChartEx\ChartAddIn\ChartPatternAddIn\DlgAnalysis.cpp
; File C:\Program Files (x86)\Microsoft Visual Studio\2019\Community\VC\Tools\MSVC\14.29.30133\atlmfc\include\cstringt.h
; File D:\git\src\IBK\IBK_DRFN\ProjSrc\SrcChartEx\ChartAddIn\ChartPatternAddIn\DlgAnalysis.cpp
; File C:\Program Files (x86)\Microsoft Visual Studio\2019\Community\VC\Tools\MSVC\14.29.30133\atlmfc\include\cstringt.h
; File C:\Program Files (x86)\Microsoft Visual Studio\2019\Community\VC\Tools\MSVC\14.29.30133\atlmfc\include\atlsimpstr.h
; File C:\Program Files (x86)\Microsoft Visual Studio\2019\Community\VC\Tools\MSVC\14.29.30133\atlmfc\include\cstringt.h
; File D:\git\src\IBK\IBK_DRFN\ProjSrc\SrcChartEx\ChartAddIn\ChartPatternAddIn\DlgAnalysis.cpp
; File C:\Program Files (x86)\Microsoft Visual Studio\2019\Community\VC\Tools\MSVC\14.29.30133\atlmfc\include\atlsimpstr.h
; File D:\git\src\IBK\IBK_DRFN\ProjSrc\SrcChartEx\ChartAddIn\ChartPatternAddIn\DlgAnalysis.cpp
; File C:\Program Files (x86)\Microsoft Visual Studio\2019\Community\VC\Tools\MSVC\14.29.30133\atlmfc\include\atlsimpstr.h
; File D:\git\src\IBK\IBK_DRFN\ProjSrc\SrcChartEx\ChartAddIn\ChartPatternAddIn\DlgAnalysis.cpp
; File C:\Program Files (x86)\Microsoft Visual Studio\2019\Community\VC\Tools\MSVC\14.29.30133\atlmfc\include\cstringt.h
; File D:\git\src\IBK\IBK_DRFN\ProjSrc\SrcChartEx\ChartAddIn\ChartPatternAddIn\DlgAnalysis.cpp
; File C:\Program Files (x86)\Microsoft Visual Studio\2019\Community\VC\Tools\MSVC\14.29.30133\atlmfc\include\cstringt.h
; File C:\Program Files (x86)\Microsoft Visual Studio\2019\Community\VC\Tools\MSVC\14.29.30133\atlmfc\include\atlsimpstr.h
; File C:\Program Files (x86)\Microsoft Visual Studio\2019\Community\VC\Tools\MSVC\14.29.30133\atlmfc\include\cstringt.h
; File D:\git\src\IBK\IBK_DRFN\ProjSrc\SrcChartEx\ChartAddIn\ChartPatternAddIn\DlgAnalysis.cpp
; File C:\Program Files (x86)\Microsoft Visual Studio\2019\Community\VC\Tools\MSVC\14.29.30133\atlmfc\include\cstringt.h
; File D:\git\src\IBK\IBK_DRFN\ProjSrc\SrcChartEx\ChartAddIn\ChartPatternAddIn\DlgAnalysis.cpp
; File C:\Program Files (x86)\Microsoft Visual Studio\2019\Community\VC\Tools\MSVC\14.29.30133\atlmfc\include\cstringt.h
; File C:\Program Files (x86)\Microsoft Visual Studio\2019\Community\VC\Tools\MSVC\14.29.30133\atlmfc\include\atlsimpstr.h
; File C:\Program Files (x86)\Microsoft Visual Studio\2019\Community\VC\Tools\MSVC\14.29.30133\atlmfc\include\cstringt.h
; File D:\git\src\IBK\IBK_DRFN\ProjSrc\SrcChartEx\ChartAddIn\ChartPatternAddIn\DlgAnalysis.cpp
; File C:\Program Files (x86)\Microsoft Visual Studio\2019\Community\VC\Tools\MSVC\14.29.30133\atlmfc\include\cstringt.h
; File D:\git\src\IBK\IBK_DRFN\ProjSrc\SrcChartEx\ChartAddIn\ChartPatternAddIn\DlgAnalysis.cpp
; File C:\Program Files (x86)\Microsoft Visual Studio\2019\Community\VC\Tools\MSVC\14.29.30133\atlmfc\include\cstringt.h
; File C:\Program Files (x86)\Microsoft Visual Studio\2019\Community\VC\Tools\MSVC\14.29.30133\atlmfc\include\atlsimpstr.h
; File C:\Program Files (x86)\Microsoft Visual Studio\2019\Community\VC\Tools\MSVC\14.29.30133\atlmfc\include\cstringt.h
; File D:\git\src\IBK\IBK_DRFN\ProjSrc\SrcChartEx\ChartAddIn\ChartPatternAddIn\DlgAnalysis.cpp
; File C:\Program Files (x86)\Microsoft Visual Studio\2019\Community\VC\Tools\MSVC\14.29.30133\atlmfc\include\cstringt.h
; File D:\git\src\IBK\IBK_DRFN\ProjSrc\SrcChartEx\ChartAddIn\ChartPatternAddIn\DlgAnalysis.cpp
; File C:\Program Files (x86)\Microsoft Visual Studio\2019\Community\VC\Tools\MSVC\14.29.30133\atlmfc\include\cstringt.h
; File C:\Program Files (x86)\Microsoft Visual Studio\2019\Community\VC\Tools\MSVC\14.29.30133\atlmfc\include\atlsimpstr.h
; File C:\Program Files (x86)\Microsoft Visual Studio\2019\Community\VC\Tools\MSVC\14.29.30133\atlmfc\include\cstringt.h
; File D:\git\src\IBK\IBK_DRFN\ProjSrc\SrcChartEx\ChartAddIn\ChartPatternAddIn\DlgAnalysis.cpp
; File C:\Program Files (x86)\Microsoft Visual Studio\2019\Community\VC\Tools\MSVC\14.29.30133\atlmfc\include\cstringt.h
; File C:\Program Files (x86)\Microsoft Visual Studio\2019\Community\VC\Tools\MSVC\14.29.30133\atlmfc\include\atlsimpstr.h
; File C:\Program Files (x86)\Microsoft Visual Studio\2019\Community\VC\Tools\MSVC\14.29.30133\atlmfc\include\cstringt.h
; File D:\git\src\IBK\IBK_DRFN\ProjSrc\SrcChartEx\ChartAddIn\ChartPatternAddIn\DlgAnalysis.cpp
; File C:\Program Files (x86)\Microsoft Visual Studio\2019\Community\VC\Tools\MSVC\14.29.30133\atlmfc\include\cstringt.h
; File C:\Program Files (x86)\Microsoft Visual Studio\2019\Community\VC\Tools\MSVC\14.29.30133\atlmfc\include\atlsimpstr.h
; File C:\Program Files (x86)\Microsoft Visual Studio\2019\Community\VC\Tools\MSVC\14.29.30133\atlmfc\include\cstringt.h
; File D:\git\src\IBK\IBK_DRFN\ProjSrc\SrcChartEx\ChartAddIn\ChartPatternAddIn\DlgAnalysis.cpp
; File C:\Program Files (x86)\Microsoft Visual Studio\2019\Community\VC\Tools\MSVC\14.29.30133\atlmfc\include\cstringt.h
; File C:\Program Files (x86)\Microsoft Visual Studio\2019\Community\VC\Tools\MSVC\14.29.30133\atlmfc\include\atlsimpstr.h
; File C:\Program Files (x86)\Microsoft Visual Studio\2019\Community\VC\Tools\MSVC\14.29.30133\atlmfc\include\cstringt.h
; File D:\git\src\IBK\IBK_DRFN\ProjSrc\SrcChartEx\ChartAddIn\ChartPatternAddIn\DlgAnalysis.cpp
; File C:\Program Files (x86)\Microsoft Visual Studio\2019\Community\VC\Tools\MSVC\14.29.30133\atlmfc\include\cstringt.h
; File D:\git\src\IBK\IBK_DRFN\ProjSrc\SrcChartEx\ChartAddIn\ChartPatternAddIn\DlgAnalysis.cpp
; File C:\Program Files (x86)\Microsoft Visual Studio\2019\Community\VC\Tools\MSVC\14.29.30133\atlmfc\include\cstringt.h
; File C:\Program Files (x86)\Microsoft Visual Studio\2019\Community\VC\Tools\MSVC\14.29.30133\atlmfc\include\atlsimpstr.h
; File C:\Program Files (x86)\Microsoft Visual Studio\2019\Community\VC\Tools\MSVC\14.29.30133\atlmfc\include\cstringt.h
; File D:\git\src\IBK\IBK_DRFN\ProjSrc\SrcChartEx\ChartAddIn\ChartPatternAddIn\DlgAnalysis.cpp
; File C:\Program Files (x86)\Microsoft Visual Studio\2019\Community\VC\Tools\MSVC\14.29.30133\atlmfc\include\cstringt.h
; File C:\Program Files (x86)\Microsoft Visual Studio\2019\Community\VC\Tools\MSVC\14.29.30133\atlmfc\include\atlsimpstr.h
; File C:\Program Files (x86)\Microsoft Visual Studio\2019\Community\VC\Tools\MSVC\14.29.30133\atlmfc\include\cstringt.h
; File D:\git\src\IBK\IBK_DRFN\ProjSrc\SrcChartEx\ChartAddIn\ChartPatternAddIn\DlgAnalysis.cpp
; File C:\Program Files (x86)\Microsoft Visual Studio\2019\Community\VC\Tools\MSVC\14.29.30133\atlmfc\include\cstringt.h
; File D:\git\src\IBK\IBK_DRFN\ProjSrc\SrcChartEx\ChartAddIn\ChartPatternAddIn\DlgAnalysis.cpp
; File C:\Program Files (x86)\Microsoft Visual Studio\2019\Community\VC\Tools\MSVC\14.29.30133\atlmfc\include\cstringt.h
; File C:\Program Files (x86)\Microsoft Visual Studio\2019\Community\VC\Tools\MSVC\14.29.30133\atlmfc\include\atlsimpstr.h
; File C:\Program Files (x86)\Microsoft Visual Studio\2019\Community\VC\Tools\MSVC\14.29.30133\atlmfc\include\cstringt.h
; File D:\git\src\IBK\IBK_DRFN\ProjSrc\SrcChartEx\ChartAddIn\ChartPatternAddIn\DlgAnalysis.cpp
; File C:\Program Files (x86)\Microsoft Visual Studio\2019\Community\VC\Tools\MSVC\14.29.30133\atlmfc\include\cstringt.h
; File D:\git\src\IBK\IBK_DRFN\ProjSrc\SrcChartEx\ChartAddIn\ChartPatternAddIn\DlgAnalysis.cpp
; File C:\Program Files (x86)\Microsoft Visual Studio\2019\Community\VC\Tools\MSVC\14.29.30133\atlmfc\include\cstringt.h
; File C:\Program Files (x86)\Microsoft Visual Studio\2019\Community\VC\Tools\MSVC\14.29.30133\atlmfc\include\atlsimpstr.h
; File C:\Program Files (x86)\Microsoft Visual Studio\2019\Community\VC\Tools\MSVC\14.29.30133\atlmfc\include\cstringt.h
; File D:\git\src\IBK\IBK_DRFN\ProjSrc\SrcChartEx\ChartAddIn\ChartPatternAddIn\DlgAnalysis.cpp
; File C:\Program Files (x86)\Microsoft Visual Studio\2019\Community\VC\Tools\MSVC\14.29.30133\atlmfc\include\cstringt.h
; File D:\git\src\IBK\IBK_DRFN\ProjSrc\SrcChartEx\ChartAddIn\ChartPatternAddIn\DlgAnalysis.cpp
; File C:\Program Files (x86)\Microsoft Visual Studio\2019\Community\VC\Tools\MSVC\14.29.30133\atlmfc\include\cstringt.h
; File C:\Program Files (x86)\Microsoft Visual Studio\2019\Community\VC\Tools\MSVC\14.29.30133\atlmfc\include\atlsimpstr.h
; File C:\Program Files (x86)\Microsoft Visual Studio\2019\Community\VC\Tools\MSVC\14.29.30133\atlmfc\include\cstringt.h
; File D:\git\src\IBK\IBK_DRFN\ProjSrc\SrcChartEx\ChartAddIn\ChartPatternAddIn\DlgAnalysis.cpp
; File C:\Program Files (x86)\Microsoft Visual Studio\2019\Community\VC\Tools\MSVC\14.29.30133\atlmfc\include\cstringt.h
; File D:\git\src\IBK\IBK_DRFN\ProjSrc\SrcChartEx\ChartAddIn\ChartPatternAddIn\DlgAnalysis.cpp
; File C:\Program Files (x86)\Microsoft Visual Studio\2019\Community\VC\Tools\MSVC\14.29.30133\atlmfc\include\cstringt.h
; File C:\Program Files (x86)\Microsoft Visual Studio\2019\Community\VC\Tools\MSVC\14.29.30133\atlmfc\include\atlsimpstr.h
; File C:\Program Files (x86)\Microsoft Visual Studio\2019\Community\VC\Tools\MSVC\14.29.30133\atlmfc\include\cstringt.h
; File D:\git\src\IBK\IBK_DRFN\ProjSrc\SrcChartEx\ChartAddIn\ChartPatternAddIn\DlgAnalysis.cpp
; File C:\Program Files (x86)\Microsoft Visual Studio\2019\Community\VC\Tools\MSVC\14.29.30133\atlmfc\include\cstringt.h
; File D:\git\src\IBK\IBK_DRFN\ProjSrc\SrcChartEx\ChartAddIn\ChartPatternAddIn\DlgAnalysis.cpp
; File C:\Program Files (x86)\Microsoft Visual Studio\2019\Community\VC\Tools\MSVC\14.29.30133\atlmfc\include\cstringt.h
; File C:\Program Files (x86)\Microsoft Visual Studio\2019\Community\VC\Tools\MSVC\14.29.30133\atlmfc\include\atlsimpstr.h
; File C:\Program Files (x86)\Microsoft Visual Studio\2019\Community\VC\Tools\MSVC\14.29.30133\atlmfc\include\cstringt.h
; File D:\git\src\IBK\IBK_DRFN\ProjSrc\SrcChartEx\ChartAddIn\ChartPatternAddIn\DlgAnalysis.cpp
; File C:\Program Files (x86)\Microsoft Visual Studio\2019\Community\VC\Tools\MSVC\14.29.30133\atlmfc\include\cstringt.h
; File D:\git\src\IBK\IBK_DRFN\ProjSrc\SrcChartEx\ChartAddIn\ChartPatternAddIn\DlgAnalysis.cpp
; File C:\Program Files (x86)\Microsoft Visual Studio\2019\Community\VC\Tools\MSVC\14.29.30133\atlmfc\include\cstringt.h
; File C:\Program Files (x86)\Microsoft Visual Studio\2019\Community\VC\Tools\MSVC\14.29.30133\atlmfc\include\atlsimpstr.h
; File C:\Program Files (x86)\Microsoft Visual Studio\2019\Community\VC\Tools\MSVC\14.29.30133\atlmfc\include\cstringt.h
; File D:\git\src\IBK\IBK_DRFN\ProjSrc\SrcChartEx\ChartAddIn\ChartPatternAddIn\DlgAnalysis.cpp
;	COMDAT ?SetReportTitleBasicInfo@CDlgAnalysis@@QAEXNNH@Z
_TEXT	SEGMENT
tv2918 = -72						; size = 4
tv2912 = -72						; size = 4
tv2908 = -72						; size = 4
tv2904 = -72						; size = 4
$T2 = -72						; size = 4
$T3 = -72						; size = 4
$T4 = -72						; size = 4
$T5 = -72						; size = 4
tv2922 = -68						; size = 4
$T6 = -68						; size = 4
$T7 = -68						; size = 4
$T8 = -68						; size = 4
$T9 = -68						; size = 4
$T10 = -68						; size = 4
$T11 = -68						; size = 4
$T12 = -68						; size = 4
$T13 = -68						; size = 4
$T14 = -68						; size = 4
$T15 = -64						; size = 4
$T16 = -64						; size = 4
$T17 = -64						; size = 4
$T18 = -64						; size = 4
$T19 = -64						; size = 4
$T20 = -64						; size = 4
$T21 = -64						; size = 4
$T22 = -64						; size = 4
$T23 = -64						; size = 4
$T24 = -60						; size = 4
$T25 = -60						; size = 4
$T26 = -60						; size = 4
$T27 = -60						; size = 4
$T28 = -60						; size = 4
$T29 = -60						; size = 4
$T30 = -60						; size = 4
$T31 = -56						; size = 4
$T32 = -56						; size = 4
$T33 = -56						; size = 4
$T34 = -56						; size = 4
$T35 = -56						; size = 4
$T36 = -56						; size = 4
$T37 = -52						; size = 4
$T38 = -52						; size = 4
$T39 = -52						; size = 4
$T40 = -52						; size = 4
$T41 = -52						; size = 4
$T42 = -52						; size = 4
$T43 = -48						; size = 4
$T44 = -48						; size = 4
$T45 = -48						; size = 4
$T46 = -48						; size = 4
$T47 = -48						; size = 4
$T48 = -48						; size = 4
$T49 = -44						; size = 4
$T50 = -44						; size = 4
$T51 = -44						; size = 4
$T52 = -44						; size = 4
$T53 = -44						; size = 4
$T54 = -44						; size = 4
_this$1$ = -40						; size = 4
tv2926 = -36						; size = 4
$T55 = -36						; size = 4
$T56 = -36						; size = 4
$T57 = -36						; size = 4
$T58 = -36						; size = 4
$T59 = -36						; size = 4
$T60 = -36						; size = 4
$T61 = -36						; size = 4
$T62 = -32						; size = 4
$T63 = -32						; size = 4
$T64 = -32						; size = 4
$T65 = -32						; size = 4
$T66 = -32						; size = 4
$T67 = -32						; size = 4
$T68 = -28						; size = 4
$T69 = -28						; size = 4
$T70 = -28						; size = 4
_strTitle$ = -24					; size = 4
$T71 = -20						; size = 4
_strTemp$ = -16						; size = 4
__$EHRec$ = -12						; size = 12
_dStartDate$ = 8					; size = 8
$T72 = 12						; size = 4
$T73 = 12						; size = 4
$T74 = 12						; size = 4
$T75 = 12						; size = 4
$T76 = 12						; size = 4
$T77 = 12						; size = 4
$T78 = 12						; size = 4
$T79 = 12						; size = 4
$T80 = 12						; size = 4
$T81 = 12						; size = 4
_dEndDate$ = 16						; size = 8
$T82 = 20						; size = 4
$T83 = 20						; size = 4
$T84 = 20						; size = 4
$T85 = 20						; size = 4
$T86 = 20						; size = 4
_nDataCnt$ = 24						; size = 4
?SetReportTitleBasicInfo@CDlgAnalysis@@QAEXNNH@Z PROC	; CDlgAnalysis::SetReportTitleBasicInfo, COMDAT
; _this$ = ecx

; 889  : {

  00000	55		 push	 ebp
  00001	8b ec		 mov	 ebp, esp
  00003	6a ff		 push	 -1
  00005	68 00 00 00 00	 push	 __ehhandler$?SetReportTitleBasicInfo@CDlgAnalysis@@QAEXNNH@Z
  0000a	64 a1 00 00 00
	00		 mov	 eax, DWORD PTR fs:0
  00010	50		 push	 eax
  00011	83 ec 3c	 sub	 esp, 60			; 0000003cH
  00014	53		 push	 ebx
  00015	56		 push	 esi
  00016	57		 push	 edi
  00017	a1 00 00 00 00	 mov	 eax, DWORD PTR ___security_cookie
  0001c	33 c5		 xor	 eax, ebp
  0001e	50		 push	 eax
  0001f	8d 45 f4	 lea	 eax, DWORD PTR __$EHRec$[ebp]
  00022	64 a3 00 00 00
	00		 mov	 DWORD PTR fs:0, eax
  00028	89 4d d8	 mov	 DWORD PTR _this$1$[ebp], ecx

; 890  : 	CString strTitle, strTemp;

  0002b	8d 4d e8	 lea	 ecx, DWORD PTR _strTitle$[ebp]
  0002e	c7 45 ec 00 00
	00 00		 mov	 DWORD PTR $T71[ebp], 0
  00035	ff 15 00 00 00
	00		 call	 DWORD PTR __imp_??0?$CStringT@DV?$StrTraitMFC_DLL@DV?$ChTraitsCRT@D@ATL@@@@@ATL@@QAE@XZ
  0003b	8d 4d f0	 lea	 ecx, DWORD PTR _strTemp$[ebp]
  0003e	c7 45 fc 00 00
	00 00		 mov	 DWORD PTR __$EHRec$[ebp+8], 0
  00045	ff 15 00 00 00
	00		 call	 DWORD PTR __imp_??0?$CStringT@DV?$StrTraitMFC_DLL@DV?$ChTraitsCRT@D@ATL@@@@@ATL@@QAE@XZ

; 891  : 	
; 892  : 	strTemp.Format( "%.f", dStartDate);

  0004b	f2 0f 10 45 08	 movsd	 xmm0, QWORD PTR _dStartDate$[ebp]
  00050	8d 45 f0	 lea	 eax, DWORD PTR _strTemp$[ebp]
  00053	83 ec 08	 sub	 esp, 8
  00056	c6 45 fc 01	 mov	 BYTE PTR __$EHRec$[ebp+8], 1
  0005a	f2 0f 11 04 24	 movsd	 QWORD PTR [esp], xmm0
  0005f	68 00 00 00 00	 push	 OFFSET ??_C@_03EICDNICE@?$CF?4f@
  00064	50		 push	 eax
  00065	ff 15 00 00 00
	00		 call	 DWORD PTR __imp_?Format@?$CStringT@DV?$StrTraitMFC_DLL@DV?$ChTraitsCRT@D@ATL@@@@@ATL@@QAAXPBDZZ
; File C:\Program Files (x86)\Microsoft Visual Studio\2019\Community\VC\Tools\MSVC\14.29.30133\atlmfc\include\atlsimpstr.h

; 519  : 		return( GetData()->nDataLength );

  0006b	8b 45 f0	 mov	 eax, DWORD PTR _strTemp$[ebp]
; File D:\git\src\IBK\IBK_DRFN\ProjSrc\SrcChartEx\ChartAddIn\ChartPatternAddIn\DlgAnalysis.cpp

; 896  : 	if(strTemp.GetLength()==8)

  0006e	8d 4d f0	 lea	 ecx, DWORD PTR _strTemp$[ebp]
  00071	83 c4 10	 add	 esp, 16			; 00000010H
; File C:\Program Files (x86)\Microsoft Visual Studio\2019\Community\VC\Tools\MSVC\14.29.30133\atlmfc\include\atlsimpstr.h

; 519  : 		return( GetData()->nDataLength );

  00074	8b 40 f4	 mov	 eax, DWORD PTR [eax-12]
; File D:\git\src\IBK\IBK_DRFN\ProjSrc\SrcChartEx\ChartAddIn\ChartPatternAddIn\DlgAnalysis.cpp

; 896  : 	if(strTemp.GetLength()==8)

  00077	83 f8 08	 cmp	 eax, 8
  0007a	0f 85 1c 03 00
	00		 jne	 $LN2@SetReportT

; 897  : 	{
; 898  : 		// // 
; 899  : 		if(strTemp.GetAt(0) == '1' && ((strTemp.GetAt(1) - '1') < 3))

  00080	6a 00		 push	 0
  00082	ff 15 00 00 00
	00		 call	 DWORD PTR __imp_?GetAt@?$CSimpleStringT@D$00@ATL@@QBEDH@Z
  00088	3c 31		 cmp	 al, 49			; 00000031H
  0008a	0f 85 a4 01 00
	00		 jne	 $LN4@SetReportT
  00090	6a 01		 push	 1
  00092	8d 4d f0	 lea	 ecx, DWORD PTR _strTemp$[ebp]
  00095	ff 15 00 00 00
	00		 call	 DWORD PTR __imp_?GetAt@?$CSimpleStringT@D$00@ATL@@QBEDH@Z
  0009b	3c 34		 cmp	 al, 52			; 00000034H
  0009d	0f 8d 91 01 00
	00		 jge	 $LN4@SetReportT

; 900  : 			strTitle = strTemp.Left(2) + "/" + strTemp.Mid(2, 2) + "," + strTemp.Mid(4, 2) + ":" + strTemp.Mid(6);

  000a3	6a 06		 push	 6
  000a5	8d 45 bc	 lea	 eax, DWORD PTR $T14[ebp]
  000a8	50		 push	 eax
  000a9	8d 4d f0	 lea	 ecx, DWORD PTR _strTemp$[ebp]
  000ac	ff 15 00 00 00
	00		 call	 DWORD PTR __imp_?Mid@?$CStringT@DV?$StrTraitMFC_DLL@DV?$ChTraitsCRT@D@ATL@@@@@ATL@@QBE?AV12@H@Z
  000b2	89 45 dc	 mov	 DWORD PTR tv2926[ebp], eax
  000b5	6a 02		 push	 2
  000b7	6a 04		 push	 4
  000b9	8d 45 c0	 lea	 eax, DWORD PTR $T23[ebp]
  000bc	c6 45 fc 02	 mov	 BYTE PTR __$EHRec$[ebp+8], 2
  000c0	50		 push	 eax
  000c1	8d 4d f0	 lea	 ecx, DWORD PTR _strTemp$[ebp]
  000c4	ff 15 00 00 00
	00		 call	 DWORD PTR __imp_?Mid@?$CStringT@DV?$StrTraitMFC_DLL@DV?$ChTraitsCRT@D@ATL@@@@@ATL@@QBE?AV12@HH@Z
  000ca	8b d8		 mov	 ebx, eax
  000cc	6a 02		 push	 2
  000ce	6a 02		 push	 2
  000d0	8d 45 c4	 lea	 eax, DWORD PTR $T30[ebp]
  000d3	c6 45 fc 03	 mov	 BYTE PTR __$EHRec$[ebp+8], 3
  000d7	50		 push	 eax
  000d8	8d 4d f0	 lea	 ecx, DWORD PTR _strTemp$[ebp]
  000db	ff 15 00 00 00
	00		 call	 DWORD PTR __imp_?Mid@?$CStringT@DV?$StrTraitMFC_DLL@DV?$ChTraitsCRT@D@ATL@@@@@ATL@@QBE?AV12@HH@Z
  000e1	8b f8		 mov	 edi, eax
  000e3	6a 02		 push	 2
  000e5	8d 45 c8	 lea	 eax, DWORD PTR $T36[ebp]
  000e8	c6 45 fc 04	 mov	 BYTE PTR __$EHRec$[ebp+8], 4
  000ec	50		 push	 eax
  000ed	8d 4d f0	 lea	 ecx, DWORD PTR _strTemp$[ebp]
  000f0	ff 15 00 00 00
	00		 call	 DWORD PTR __imp_?Left@?$CStringT@DV?$StrTraitMFC_DLL@DV?$ChTraitsCRT@D@ATL@@@@@ATL@@QBE?AV12@H@Z
  000f6	8b f0		 mov	 esi, eax
; File C:\Program Files (x86)\Microsoft Visual Studio\2019\Community\VC\Tools\MSVC\14.29.30133\atlmfc\include\cstringt.h

; 2401 : 		CStringT strResult( str1.GetManager() );

  000f8	8b ce		 mov	 ecx, esi
; File D:\git\src\IBK\IBK_DRFN\ProjSrc\SrcChartEx\ChartAddIn\ChartPatternAddIn\DlgAnalysis.cpp

; 900  : 			strTitle = strTemp.Left(2) + "/" + strTemp.Mid(2, 2) + "," + strTemp.Mid(4, 2) + ":" + strTemp.Mid(6);

  000fa	c6 45 fc 06	 mov	 BYTE PTR __$EHRec$[ebp+8], 6
; File C:\Program Files (x86)\Microsoft Visual Studio\2019\Community\VC\Tools\MSVC\14.29.30133\atlmfc\include\cstringt.h

; 2401 : 		CStringT strResult( str1.GetManager() );

  000fe	ff 15 00 00 00
	00		 call	 DWORD PTR __imp_?GetManager@?$CStringT@DV?$StrTraitMFC_DLL@DV?$ChTraitsCRT@D@ATL@@@@@ATL@@QBEPAUIAtlStringMgr@2@XZ
  00104	50		 push	 eax
  00105	8d 4d e4	 lea	 ecx, DWORD PTR $T70[ebp]
  00108	ff 15 00 00 00
	00		 call	 DWORD PTR __imp_??0?$CStringT@DV?$StrTraitMFC_DLL@DV?$ChTraitsCRT@D@ATL@@@@@ATL@@QAE@PAUIAtlStringMgr@1@@Z
; File C:\Program Files (x86)\Microsoft Visual Studio\2019\Community\VC\Tools\MSVC\14.29.30133\atlmfc\include\atlsimpstr.h

; 519  : 		return( GetData()->nDataLength );

  0010e	8b 06		 mov	 eax, DWORD PTR [esi]
; File C:\Program Files (x86)\Microsoft Visual Studio\2019\Community\VC\Tools\MSVC\14.29.30133\atlmfc\include\cstringt.h

; 2403 : 		CThisSimpleString::Concatenate( strResult, str1, str1.GetLength(), psz2, CThisSimpleString::StringLength( psz2 ) );

  00110	6a 01		 push	 1
  00112	68 00 00 00 00	 push	 OFFSET ??_C@_01KMDKNFGN@?1@

; 2404 : 
; 2405 : 		return( strResult );

  00117	c7 45 ec 01 00
	00 00		 mov	 DWORD PTR $T71[ebp], 1
  0011e	ff 70 f4	 push	 DWORD PTR [eax-12]
  00121	50		 push	 eax
  00122	8d 45 e4	 lea	 eax, DWORD PTR $T70[ebp]
  00125	50		 push	 eax
  00126	ff 15 00 00 00
	00		 call	 DWORD PTR __imp_?Concatenate@?$CSimpleStringT@D$00@ATL@@KAXAAV12@PBDH1H@Z
; File D:\git\src\IBK\IBK_DRFN\ProjSrc\SrcChartEx\ChartAddIn\ChartPatternAddIn\DlgAnalysis.cpp

; 900  : 			strTitle = strTemp.Left(2) + "/" + strTemp.Mid(2, 2) + "," + strTemp.Mid(4, 2) + ":" + strTemp.Mid(6);

  0012c	57		 push	 edi
  0012d	8d 45 e4	 lea	 eax, DWORD PTR $T70[ebp]
  00130	50		 push	 eax
  00131	8d 45 cc	 lea	 eax, DWORD PTR $T42[ebp]
  00134	50		 push	 eax
  00135	e8 00 00 00 00	 call	 ??HATL@@YA?AV?$CStringT@DV?$StrTraitMFC_DLL@DV?$ChTraitsCRT@D@ATL@@@@@0@ABV10@0@Z ; ATL::operator+
  0013a	83 c4 20	 add	 esp, 32			; 00000020H
  0013d	8b f0		 mov	 esi, eax
; File C:\Program Files (x86)\Microsoft Visual Studio\2019\Community\VC\Tools\MSVC\14.29.30133\atlmfc\include\cstringt.h

; 2401 : 		CStringT strResult( str1.GetManager() );

  0013f	8b ce		 mov	 ecx, esi
; File D:\git\src\IBK\IBK_DRFN\ProjSrc\SrcChartEx\ChartAddIn\ChartPatternAddIn\DlgAnalysis.cpp

; 900  : 			strTitle = strTemp.Left(2) + "/" + strTemp.Mid(2, 2) + "," + strTemp.Mid(4, 2) + ":" + strTemp.Mid(6);

  00141	c6 45 fc 08	 mov	 BYTE PTR __$EHRec$[ebp+8], 8
; File C:\Program Files (x86)\Microsoft Visual Studio\2019\Community\VC\Tools\MSVC\14.29.30133\atlmfc\include\cstringt.h

; 2401 : 		CStringT strResult( str1.GetManager() );

  00145	ff 15 00 00 00
	00		 call	 DWORD PTR __imp_?GetManager@?$CStringT@DV?$StrTraitMFC_DLL@DV?$ChTraitsCRT@D@ATL@@@@@ATL@@QBEPAUIAtlStringMgr@2@XZ
  0014b	50		 push	 eax
  0014c	8d 4d e0	 lea	 ecx, DWORD PTR $T67[ebp]
  0014f	ff 15 00 00 00
	00		 call	 DWORD PTR __imp_??0?$CStringT@DV?$StrTraitMFC_DLL@DV?$ChTraitsCRT@D@ATL@@@@@ATL@@QAE@PAUIAtlStringMgr@1@@Z
; File C:\Program Files (x86)\Microsoft Visual Studio\2019\Community\VC\Tools\MSVC\14.29.30133\atlmfc\include\atlsimpstr.h

; 519  : 		return( GetData()->nDataLength );

  00155	8b 06		 mov	 eax, DWORD PTR [esi]
; File C:\Program Files (x86)\Microsoft Visual Studio\2019\Community\VC\Tools\MSVC\14.29.30133\atlmfc\include\cstringt.h

; 2403 : 		CThisSimpleString::Concatenate( strResult, str1, str1.GetLength(), psz2, CThisSimpleString::StringLength( psz2 ) );

  00157	6a 01		 push	 1
  00159	68 00 00 00 00	 push	 OFFSET ??_C@_01IHBHIGKO@?0@

; 2404 : 
; 2405 : 		return( strResult );

  0015e	c7 45 ec 03 00
	00 00		 mov	 DWORD PTR $T71[ebp], 3
  00165	ff 70 f4	 push	 DWORD PTR [eax-12]
  00168	50		 push	 eax
  00169	8d 45 e0	 lea	 eax, DWORD PTR $T67[ebp]
  0016c	50		 push	 eax
  0016d	ff 15 00 00 00
	00		 call	 DWORD PTR __imp_?Concatenate@?$CSimpleStringT@D$00@ATL@@KAXAAV12@PBDH1H@Z
; File D:\git\src\IBK\IBK_DRFN\ProjSrc\SrcChartEx\ChartAddIn\ChartPatternAddIn\DlgAnalysis.cpp

; 900  : 			strTitle = strTemp.Left(2) + "/" + strTemp.Mid(2, 2) + "," + strTemp.Mid(4, 2) + ":" + strTemp.Mid(6);

  00173	53		 push	 ebx
  00174	8d 45 e0	 lea	 eax, DWORD PTR $T67[ebp]
  00177	50		 push	 eax
  00178	8d 45 d0	 lea	 eax, DWORD PTR $T48[ebp]
  0017b	50		 push	 eax
  0017c	e8 00 00 00 00	 call	 ??HATL@@YA?AV?$CStringT@DV?$StrTraitMFC_DLL@DV?$ChTraitsCRT@D@ATL@@@@@0@ABV10@0@Z ; ATL::operator+
  00181	83 c4 20	 add	 esp, 32			; 00000020H
  00184	8b f0		 mov	 esi, eax
; File C:\Program Files (x86)\Microsoft Visual Studio\2019\Community\VC\Tools\MSVC\14.29.30133\atlmfc\include\cstringt.h

; 2401 : 		CStringT strResult( str1.GetManager() );

  00186	8b ce		 mov	 ecx, esi
; File D:\git\src\IBK\IBK_DRFN\ProjSrc\SrcChartEx\ChartAddIn\ChartPatternAddIn\DlgAnalysis.cpp

; 900  : 			strTitle = strTemp.Left(2) + "/" + strTemp.Mid(2, 2) + "," + strTemp.Mid(4, 2) + ":" + strTemp.Mid(6);

  00188	c6 45 fc 0a	 mov	 BYTE PTR __$EHRec$[ebp+8], 10 ; 0000000aH
; File C:\Program Files (x86)\Microsoft Visual Studio\2019\Community\VC\Tools\MSVC\14.29.30133\atlmfc\include\cstringt.h

; 2401 : 		CStringT strResult( str1.GetManager() );

  0018c	ff 15 00 00 00
	00		 call	 DWORD PTR __imp_?GetManager@?$CStringT@DV?$StrTraitMFC_DLL@DV?$ChTraitsCRT@D@ATL@@@@@ATL@@QBEPAUIAtlStringMgr@2@XZ
  00192	50		 push	 eax
  00193	8d 4d 0c	 lea	 ecx, DWORD PTR $T81[ebp]
  00196	ff 15 00 00 00
	00		 call	 DWORD PTR __imp_??0?$CStringT@DV?$StrTraitMFC_DLL@DV?$ChTraitsCRT@D@ATL@@@@@ATL@@QAE@PAUIAtlStringMgr@1@@Z
; File C:\Program Files (x86)\Microsoft Visual Studio\2019\Community\VC\Tools\MSVC\14.29.30133\atlmfc\include\atlsimpstr.h

; 519  : 		return( GetData()->nDataLength );

  0019c	8b 06		 mov	 eax, DWORD PTR [esi]
; File C:\Program Files (x86)\Microsoft Visual Studio\2019\Community\VC\Tools\MSVC\14.29.30133\atlmfc\include\cstringt.h

; 2403 : 		CThisSimpleString::Concatenate( strResult, str1, str1.GetLength(), psz2, CThisSimpleString::StringLength( psz2 ) );

  0019e	6a 01		 push	 1
  001a0	68 00 00 00 00	 push	 OFFSET ??_C@_01JLIPDDHJ@?3@

; 2404 : 
; 2405 : 		return( strResult );

  001a5	c7 45 ec 07 00
	00 00		 mov	 DWORD PTR $T71[ebp], 7
  001ac	ff 70 f4	 push	 DWORD PTR [eax-12]
  001af	50		 push	 eax
  001b0	8d 45 0c	 lea	 eax, DWORD PTR $T81[ebp]
  001b3	50		 push	 eax
  001b4	ff 15 00 00 00
	00		 call	 DWORD PTR __imp_?Concatenate@?$CSimpleStringT@D$00@ATL@@KAXAAV12@PBDH1H@Z
; File D:\git\src\IBK\IBK_DRFN\ProjSrc\SrcChartEx\ChartAddIn\ChartPatternAddIn\DlgAnalysis.cpp

; 900  : 			strTitle = strTemp.Left(2) + "/" + strTemp.Mid(2, 2) + "," + strTemp.Mid(4, 2) + ":" + strTemp.Mid(6);

  001ba	ff 75 dc	 push	 DWORD PTR tv2926[ebp]
  001bd	8d 45 0c	 lea	 eax, DWORD PTR $T81[ebp]
  001c0	50		 push	 eax
  001c1	8d 45 d4	 lea	 eax, DWORD PTR $T54[ebp]
  001c4	50		 push	 eax
  001c5	e8 00 00 00 00	 call	 ??HATL@@YA?AV?$CStringT@DV?$StrTraitMFC_DLL@DV?$ChTraitsCRT@D@ATL@@@@@0@ABV10@0@Z ; ATL::operator+
  001ca	83 c4 20	 add	 esp, 32			; 00000020H
  001cd	50		 push	 eax
  001ce	8d 4d e8	 lea	 ecx, DWORD PTR _strTitle$[ebp]
  001d1	c6 45 fc 0b	 mov	 BYTE PTR __$EHRec$[ebp+8], 11 ; 0000000bH
  001d5	ff 15 00 00 00
	00		 call	 DWORD PTR __imp_??4?$CStringT@DV?$StrTraitMFC_DLL@DV?$ChTraitsCRT@D@ATL@@@@@ATL@@QAEAAV01@ABV01@@Z
  001db	8d 4d d4	 lea	 ecx, DWORD PTR $T54[ebp]
  001de	ff 15 00 00 00
	00		 call	 DWORD PTR __imp_??1?$CStringT@DV?$StrTraitMFC_DLL@DV?$ChTraitsCRT@D@ATL@@@@@ATL@@QAE@XZ
  001e4	8d 4d 0c	 lea	 ecx, DWORD PTR $T81[ebp]
  001e7	ff 15 00 00 00
	00		 call	 DWORD PTR __imp_??1?$CStringT@DV?$StrTraitMFC_DLL@DV?$ChTraitsCRT@D@ATL@@@@@ATL@@QAE@XZ
  001ed	8d 4d d0	 lea	 ecx, DWORD PTR $T48[ebp]
  001f0	ff 15 00 00 00
	00		 call	 DWORD PTR __imp_??1?$CStringT@DV?$StrTraitMFC_DLL@DV?$ChTraitsCRT@D@ATL@@@@@ATL@@QAE@XZ
  001f6	8d 4d e0	 lea	 ecx, DWORD PTR $T67[ebp]
  001f9	ff 15 00 00 00
	00		 call	 DWORD PTR __imp_??1?$CStringT@DV?$StrTraitMFC_DLL@DV?$ChTraitsCRT@D@ATL@@@@@ATL@@QAE@XZ
  001ff	8d 4d cc	 lea	 ecx, DWORD PTR $T42[ebp]
  00202	ff 15 00 00 00
	00		 call	 DWORD PTR __imp_??1?$CStringT@DV?$StrTraitMFC_DLL@DV?$ChTraitsCRT@D@ATL@@@@@ATL@@QAE@XZ
  00208	8d 4d e4	 lea	 ecx, DWORD PTR $T70[ebp]
  0020b	ff 15 00 00 00
	00		 call	 DWORD PTR __imp_??1?$CStringT@DV?$StrTraitMFC_DLL@DV?$ChTraitsCRT@D@ATL@@@@@ATL@@QAE@XZ
  00211	8d 4d c8	 lea	 ecx, DWORD PTR $T36[ebp]
  00214	ff 15 00 00 00
	00		 call	 DWORD PTR __imp_??1?$CStringT@DV?$StrTraitMFC_DLL@DV?$ChTraitsCRT@D@ATL@@@@@ATL@@QAE@XZ
  0021a	8d 4d c4	 lea	 ecx, DWORD PTR $T30[ebp]
  0021d	ff 15 00 00 00
	00		 call	 DWORD PTR __imp_??1?$CStringT@DV?$StrTraitMFC_DLL@DV?$ChTraitsCRT@D@ATL@@@@@ATL@@QAE@XZ
  00223	8d 4d c0	 lea	 ecx, DWORD PTR $T23[ebp]
  00226	ff 15 00 00 00
	00		 call	 DWORD PTR __imp_??1?$CStringT@DV?$StrTraitMFC_DLL@DV?$ChTraitsCRT@D@ATL@@@@@ATL@@QAE@XZ
  0022c	8d 4d bc	 lea	 ecx, DWORD PTR $T14[ebp]
  0022f	e9 70 05 00 00	 jmp	 $LN538@SetReportT
$LN4@SetReportT:

; 902  : 			strTitle = strTemp.Left(4) + "-" + strTemp.Mid(4, 2) + "-" + strTemp.Mid(6);

  00234	6a 06		 push	 6
  00236	8d 45 c4	 lea	 eax, DWORD PTR $T29[ebp]
  00239	50		 push	 eax
  0023a	8d 4d f0	 lea	 ecx, DWORD PTR _strTemp$[ebp]
  0023d	ff 15 00 00 00
	00		 call	 DWORD PTR __imp_?Mid@?$CStringT@DV?$StrTraitMFC_DLL@DV?$ChTraitsCRT@D@ATL@@@@@ATL@@QBE?AV12@H@Z
  00243	8b d8		 mov	 ebx, eax
  00245	6a 02		 push	 2
  00247	6a 04		 push	 4
  00249	8d 45 c0	 lea	 eax, DWORD PTR $T22[ebp]
  0024c	c6 45 fc 0c	 mov	 BYTE PTR __$EHRec$[ebp+8], 12 ; 0000000cH
  00250	50		 push	 eax
  00251	8d 4d f0	 lea	 ecx, DWORD PTR _strTemp$[ebp]
  00254	ff 15 00 00 00
	00		 call	 DWORD PTR __imp_?Mid@?$CStringT@DV?$StrTraitMFC_DLL@DV?$ChTraitsCRT@D@ATL@@@@@ATL@@QBE?AV12@HH@Z
  0025a	8b f8		 mov	 edi, eax
  0025c	6a 04		 push	 4
  0025e	8d 45 bc	 lea	 eax, DWORD PTR $T13[ebp]
  00261	c6 45 fc 0d	 mov	 BYTE PTR __$EHRec$[ebp+8], 13 ; 0000000dH
  00265	50		 push	 eax
  00266	8d 4d f0	 lea	 ecx, DWORD PTR _strTemp$[ebp]
  00269	ff 15 00 00 00
	00		 call	 DWORD PTR __imp_?Left@?$CStringT@DV?$StrTraitMFC_DLL@DV?$ChTraitsCRT@D@ATL@@@@@ATL@@QBE?AV12@H@Z
  0026f	8b f0		 mov	 esi, eax
; File C:\Program Files (x86)\Microsoft Visual Studio\2019\Community\VC\Tools\MSVC\14.29.30133\atlmfc\include\cstringt.h

; 2401 : 		CStringT strResult( str1.GetManager() );

  00271	8b ce		 mov	 ecx, esi
; File D:\git\src\IBK\IBK_DRFN\ProjSrc\SrcChartEx\ChartAddIn\ChartPatternAddIn\DlgAnalysis.cpp

; 902  : 			strTitle = strTemp.Left(4) + "-" + strTemp.Mid(4, 2) + "-" + strTemp.Mid(6);

  00273	c6 45 fc 0f	 mov	 BYTE PTR __$EHRec$[ebp+8], 15 ; 0000000fH
; File C:\Program Files (x86)\Microsoft Visual Studio\2019\Community\VC\Tools\MSVC\14.29.30133\atlmfc\include\cstringt.h

; 2401 : 		CStringT strResult( str1.GetManager() );

  00277	ff 15 00 00 00
	00		 call	 DWORD PTR __imp_?GetManager@?$CStringT@DV?$StrTraitMFC_DLL@DV?$ChTraitsCRT@D@ATL@@@@@ATL@@QBEPAUIAtlStringMgr@2@XZ
  0027d	50		 push	 eax
  0027e	8d 4d e0	 lea	 ecx, DWORD PTR $T66[ebp]
  00281	ff 15 00 00 00
	00		 call	 DWORD PTR __imp_??0?$CStringT@DV?$StrTraitMFC_DLL@DV?$ChTraitsCRT@D@ATL@@@@@ATL@@QAE@PAUIAtlStringMgr@1@@Z
; File C:\Program Files (x86)\Microsoft Visual Studio\2019\Community\VC\Tools\MSVC\14.29.30133\atlmfc\include\atlsimpstr.h

; 519  : 		return( GetData()->nDataLength );

  00287	8b 06		 mov	 eax, DWORD PTR [esi]
; File C:\Program Files (x86)\Microsoft Visual Studio\2019\Community\VC\Tools\MSVC\14.29.30133\atlmfc\include\cstringt.h

; 2403 : 		CThisSimpleString::Concatenate( strResult, str1, str1.GetLength(), psz2, CThisSimpleString::StringLength( psz2 ) );

  00289	6a 01		 push	 1
  0028b	68 00 00 00 00	 push	 OFFSET ??_C@_01JOAMLHOP@?9@

; 2404 : 
; 2405 : 		return( strResult );

  00290	c7 45 ec 08 00
	00 00		 mov	 DWORD PTR $T71[ebp], 8
  00297	ff 70 f4	 push	 DWORD PTR [eax-12]
  0029a	50		 push	 eax
  0029b	8d 45 e0	 lea	 eax, DWORD PTR $T66[ebp]
  0029e	50		 push	 eax
  0029f	ff 15 00 00 00
	00		 call	 DWORD PTR __imp_?Concatenate@?$CSimpleStringT@D$00@ATL@@KAXAAV12@PBDH1H@Z
  002a5	83 c4 14	 add	 esp, 20			; 00000014H

; 2390 : 		CStringT strResult( str1.GetManager() );

  002a8	8d 4d e0	 lea	 ecx, DWORD PTR $T66[ebp]
; File D:\git\src\IBK\IBK_DRFN\ProjSrc\SrcChartEx\ChartAddIn\ChartPatternAddIn\DlgAnalysis.cpp

; 902  : 			strTitle = strTemp.Left(4) + "-" + strTemp.Mid(4, 2) + "-" + strTemp.Mid(6);

  002ab	c6 45 fc 10	 mov	 BYTE PTR __$EHRec$[ebp+8], 16 ; 00000010H
; File C:\Program Files (x86)\Microsoft Visual Studio\2019\Community\VC\Tools\MSVC\14.29.30133\atlmfc\include\cstringt.h

; 2390 : 		CStringT strResult( str1.GetManager() );

  002af	ff 15 00 00 00
	00		 call	 DWORD PTR __imp_?GetManager@?$CStringT@DV?$StrTraitMFC_DLL@DV?$ChTraitsCRT@D@ATL@@@@@ATL@@QBEPAUIAtlStringMgr@2@XZ
  002b5	50		 push	 eax
  002b6	8d 4d e4	 lea	 ecx, DWORD PTR $T69[ebp]
  002b9	ff 15 00 00 00
	00		 call	 DWORD PTR __imp_??0?$CStringT@DV?$StrTraitMFC_DLL@DV?$ChTraitsCRT@D@ATL@@@@@ATL@@QAE@PAUIAtlStringMgr@1@@Z
; File C:\Program Files (x86)\Microsoft Visual Studio\2019\Community\VC\Tools\MSVC\14.29.30133\atlmfc\include\atlsimpstr.h

; 519  : 		return( GetData()->nDataLength );

  002bf	8b 0f		 mov	 ecx, DWORD PTR [edi]
  002c1	8b 45 e0	 mov	 eax, DWORD PTR $T66[ebp]
; File C:\Program Files (x86)\Microsoft Visual Studio\2019\Community\VC\Tools\MSVC\14.29.30133\atlmfc\include\cstringt.h

; 2394 : 		return( strResult );

  002c4	c7 45 ec 18 00
	00 00		 mov	 DWORD PTR $T71[ebp], 24	; 00000018H
  002cb	ff 71 f4	 push	 DWORD PTR [ecx-12]
  002ce	51		 push	 ecx
  002cf	ff 70 f4	 push	 DWORD PTR [eax-12]
  002d2	50		 push	 eax
  002d3	8d 45 e4	 lea	 eax, DWORD PTR $T69[ebp]
  002d6	50		 push	 eax
  002d7	ff 15 00 00 00
	00		 call	 DWORD PTR __imp_?Concatenate@?$CSimpleStringT@D$00@ATL@@KAXAAV12@PBDH1H@Z
  002dd	83 c4 14	 add	 esp, 20			; 00000014H

; 2401 : 		CStringT strResult( str1.GetManager() );

  002e0	8d 4d e4	 lea	 ecx, DWORD PTR $T69[ebp]
; File D:\git\src\IBK\IBK_DRFN\ProjSrc\SrcChartEx\ChartAddIn\ChartPatternAddIn\DlgAnalysis.cpp

; 902  : 			strTitle = strTemp.Left(4) + "-" + strTemp.Mid(4, 2) + "-" + strTemp.Mid(6);

  002e3	c6 45 fc 11	 mov	 BYTE PTR __$EHRec$[ebp+8], 17 ; 00000011H
; File C:\Program Files (x86)\Microsoft Visual Studio\2019\Community\VC\Tools\MSVC\14.29.30133\atlmfc\include\cstringt.h

; 2401 : 		CStringT strResult( str1.GetManager() );

  002e7	ff 15 00 00 00
	00		 call	 DWORD PTR __imp_?GetManager@?$CStringT@DV?$StrTraitMFC_DLL@DV?$ChTraitsCRT@D@ATL@@@@@ATL@@QBEPAUIAtlStringMgr@2@XZ
  002ed	50		 push	 eax
  002ee	8d 4d 0c	 lea	 ecx, DWORD PTR $T80[ebp]
  002f1	ff 15 00 00 00
	00		 call	 DWORD PTR __imp_??0?$CStringT@DV?$StrTraitMFC_DLL@DV?$ChTraitsCRT@D@ATL@@@@@ATL@@QAE@PAUIAtlStringMgr@1@@Z
; File C:\Program Files (x86)\Microsoft Visual Studio\2019\Community\VC\Tools\MSVC\14.29.30133\atlmfc\include\atlsimpstr.h

; 519  : 		return( GetData()->nDataLength );

  002f7	8b 45 e4	 mov	 eax, DWORD PTR $T69[ebp]
; File C:\Program Files (x86)\Microsoft Visual Studio\2019\Community\VC\Tools\MSVC\14.29.30133\atlmfc\include\cstringt.h

; 2403 : 		CThisSimpleString::Concatenate( strResult, str1, str1.GetLength(), psz2, CThisSimpleString::StringLength( psz2 ) );

  002fa	6a 01		 push	 1
  002fc	68 00 00 00 00	 push	 OFFSET ??_C@_01JOAMLHOP@?9@

; 2404 : 
; 2405 : 		return( strResult );

  00301	c7 45 ec 38 00
	00 00		 mov	 DWORD PTR $T71[ebp], 56	; 00000038H
  00308	ff 70 f4	 push	 DWORD PTR [eax-12]
  0030b	50		 push	 eax
  0030c	8d 45 0c	 lea	 eax, DWORD PTR $T80[ebp]
  0030f	50		 push	 eax
  00310	ff 15 00 00 00
	00		 call	 DWORD PTR __imp_?Concatenate@?$CSimpleStringT@D$00@ATL@@KAXAAV12@PBDH1H@Z
  00316	83 c4 14	 add	 esp, 20			; 00000014H

; 2390 : 		CStringT strResult( str1.GetManager() );

  00319	8d 4d 0c	 lea	 ecx, DWORD PTR $T80[ebp]
; File D:\git\src\IBK\IBK_DRFN\ProjSrc\SrcChartEx\ChartAddIn\ChartPatternAddIn\DlgAnalysis.cpp

; 902  : 			strTitle = strTemp.Left(4) + "-" + strTemp.Mid(4, 2) + "-" + strTemp.Mid(6);

  0031c	c6 45 fc 12	 mov	 BYTE PTR __$EHRec$[ebp+8], 18 ; 00000012H
; File C:\Program Files (x86)\Microsoft Visual Studio\2019\Community\VC\Tools\MSVC\14.29.30133\atlmfc\include\cstringt.h

; 2390 : 		CStringT strResult( str1.GetManager() );

  00320	ff 15 00 00 00
	00		 call	 DWORD PTR __imp_?GetManager@?$CStringT@DV?$StrTraitMFC_DLL@DV?$ChTraitsCRT@D@ATL@@@@@ATL@@QBEPAUIAtlStringMgr@2@XZ
  00326	50		 push	 eax
  00327	8d 4d dc	 lea	 ecx, DWORD PTR $T61[ebp]
  0032a	ff 15 00 00 00
	00		 call	 DWORD PTR __imp_??0?$CStringT@DV?$StrTraitMFC_DLL@DV?$ChTraitsCRT@D@ATL@@@@@ATL@@QAE@PAUIAtlStringMgr@1@@Z
; File C:\Program Files (x86)\Microsoft Visual Studio\2019\Community\VC\Tools\MSVC\14.29.30133\atlmfc\include\atlsimpstr.h

; 519  : 		return( GetData()->nDataLength );

  00330	8b 0b		 mov	 ecx, DWORD PTR [ebx]
  00332	8b 45 0c	 mov	 eax, DWORD PTR $T80[ebp]
; File C:\Program Files (x86)\Microsoft Visual Studio\2019\Community\VC\Tools\MSVC\14.29.30133\atlmfc\include\cstringt.h

; 2394 : 		return( strResult );

  00335	c7 45 ec 78 00
	00 00		 mov	 DWORD PTR $T71[ebp], 120 ; 00000078H
  0033c	ff 71 f4	 push	 DWORD PTR [ecx-12]
  0033f	51		 push	 ecx
  00340	ff 70 f4	 push	 DWORD PTR [eax-12]
  00343	50		 push	 eax
  00344	8d 45 dc	 lea	 eax, DWORD PTR $T61[ebp]
  00347	50		 push	 eax
  00348	ff 15 00 00 00
	00		 call	 DWORD PTR __imp_?Concatenate@?$CSimpleStringT@D$00@ATL@@KAXAAV12@PBDH1H@Z
  0034e	83 c4 14	 add	 esp, 20			; 00000014H
; File D:\git\src\IBK\IBK_DRFN\ProjSrc\SrcChartEx\ChartAddIn\ChartPatternAddIn\DlgAnalysis.cpp

; 902  : 			strTitle = strTemp.Left(4) + "-" + strTemp.Mid(4, 2) + "-" + strTemp.Mid(6);

  00351	8d 45 dc	 lea	 eax, DWORD PTR $T61[ebp]
  00354	8d 4d e8	 lea	 ecx, DWORD PTR _strTitle$[ebp]
  00357	50		 push	 eax
  00358	ff 15 00 00 00
	00		 call	 DWORD PTR __imp_??4?$CStringT@DV?$StrTraitMFC_DLL@DV?$ChTraitsCRT@D@ATL@@@@@ATL@@QAEAAV01@ABV01@@Z
  0035e	8d 4d dc	 lea	 ecx, DWORD PTR $T61[ebp]
  00361	ff 15 00 00 00
	00		 call	 DWORD PTR __imp_??1?$CStringT@DV?$StrTraitMFC_DLL@DV?$ChTraitsCRT@D@ATL@@@@@ATL@@QAE@XZ
  00367	8d 4d 0c	 lea	 ecx, DWORD PTR $T80[ebp]
  0036a	ff 15 00 00 00
	00		 call	 DWORD PTR __imp_??1?$CStringT@DV?$StrTraitMFC_DLL@DV?$ChTraitsCRT@D@ATL@@@@@ATL@@QAE@XZ
  00370	8d 4d e4	 lea	 ecx, DWORD PTR $T69[ebp]
  00373	ff 15 00 00 00
	00		 call	 DWORD PTR __imp_??1?$CStringT@DV?$StrTraitMFC_DLL@DV?$ChTraitsCRT@D@ATL@@@@@ATL@@QAE@XZ
  00379	8d 4d e0	 lea	 ecx, DWORD PTR $T66[ebp]
  0037c	ff 15 00 00 00
	00		 call	 DWORD PTR __imp_??1?$CStringT@DV?$StrTraitMFC_DLL@DV?$ChTraitsCRT@D@ATL@@@@@ATL@@QAE@XZ
  00382	8d 4d bc	 lea	 ecx, DWORD PTR $T13[ebp]
  00385	ff 15 00 00 00
	00		 call	 DWORD PTR __imp_??1?$CStringT@DV?$StrTraitMFC_DLL@DV?$ChTraitsCRT@D@ATL@@@@@ATL@@QAE@XZ
  0038b	8d 4d c0	 lea	 ecx, DWORD PTR $T22[ebp]
  0038e	ff 15 00 00 00
	00		 call	 DWORD PTR __imp_??1?$CStringT@DV?$StrTraitMFC_DLL@DV?$ChTraitsCRT@D@ATL@@@@@ATL@@QAE@XZ
  00394	8d 4d c4	 lea	 ecx, DWORD PTR $T29[ebp]

; 903  : 	}

  00397	e9 08 04 00 00	 jmp	 $LN538@SetReportT
$LN2@SetReportT:

; 904  : 	else if(strTemp.GetLength() == 7)

  0039c	83 f8 07	 cmp	 eax, 7
  0039f	0f 85 d0 01 00
	00		 jne	 $LN6@SetReportT

; 906  : 		strTitle = "0" + strTemp.Left(1) + "/" + strTemp.Mid(1, 2) + "," + strTemp.Mid(3, 2) + ":" + strTemp.Mid(5);

  003a5	6a 05		 push	 5
  003a7	8d 45 b8	 lea	 eax, DWORD PTR $T5[ebp]
  003aa	50		 push	 eax
  003ab	ff 15 00 00 00
	00		 call	 DWORD PTR __imp_?Mid@?$CStringT@DV?$StrTraitMFC_DLL@DV?$ChTraitsCRT@D@ATL@@@@@ATL@@QBE?AV12@H@Z
  003b1	89 45 bc	 mov	 DWORD PTR tv2922[ebp], eax
  003b4	6a 02		 push	 2
  003b6	6a 03		 push	 3
  003b8	8d 45 d4	 lea	 eax, DWORD PTR $T53[ebp]
  003bb	c6 45 fc 13	 mov	 BYTE PTR __$EHRec$[ebp+8], 19 ; 00000013H
  003bf	50		 push	 eax
  003c0	8d 4d f0	 lea	 ecx, DWORD PTR _strTemp$[ebp]
  003c3	ff 15 00 00 00
	00		 call	 DWORD PTR __imp_?Mid@?$CStringT@DV?$StrTraitMFC_DLL@DV?$ChTraitsCRT@D@ATL@@@@@ATL@@QBE?AV12@HH@Z
  003c9	8b d8		 mov	 ebx, eax
  003cb	6a 02		 push	 2
  003cd	6a 01		 push	 1
  003cf	8d 45 d0	 lea	 eax, DWORD PTR $T47[ebp]
  003d2	c6 45 fc 14	 mov	 BYTE PTR __$EHRec$[ebp+8], 20 ; 00000014H
  003d6	50		 push	 eax
  003d7	8d 4d f0	 lea	 ecx, DWORD PTR _strTemp$[ebp]
  003da	ff 15 00 00 00
	00		 call	 DWORD PTR __imp_?Mid@?$CStringT@DV?$StrTraitMFC_DLL@DV?$ChTraitsCRT@D@ATL@@@@@ATL@@QBE?AV12@HH@Z
  003e0	8b f8		 mov	 edi, eax
  003e2	6a 01		 push	 1
  003e4	8d 45 cc	 lea	 eax, DWORD PTR $T41[ebp]
  003e7	c6 45 fc 15	 mov	 BYTE PTR __$EHRec$[ebp+8], 21 ; 00000015H
  003eb	50		 push	 eax
  003ec	8d 4d f0	 lea	 ecx, DWORD PTR _strTemp$[ebp]
  003ef	ff 15 00 00 00
	00		 call	 DWORD PTR __imp_?Left@?$CStringT@DV?$StrTraitMFC_DLL@DV?$ChTraitsCRT@D@ATL@@@@@ATL@@QBE?AV12@H@Z
  003f5	8b f0		 mov	 esi, eax
; File C:\Program Files (x86)\Microsoft Visual Studio\2019\Community\VC\Tools\MSVC\14.29.30133\atlmfc\include\cstringt.h

; 2412 : 		CStringT strResult( str2.GetManager() );

  003f7	8b ce		 mov	 ecx, esi
; File D:\git\src\IBK\IBK_DRFN\ProjSrc\SrcChartEx\ChartAddIn\ChartPatternAddIn\DlgAnalysis.cpp

; 906  : 		strTitle = "0" + strTemp.Left(1) + "/" + strTemp.Mid(1, 2) + "," + strTemp.Mid(3, 2) + ":" + strTemp.Mid(5);

  003f9	c6 45 fc 17	 mov	 BYTE PTR __$EHRec$[ebp+8], 23 ; 00000017H
; File C:\Program Files (x86)\Microsoft Visual Studio\2019\Community\VC\Tools\MSVC\14.29.30133\atlmfc\include\cstringt.h

; 2412 : 		CStringT strResult( str2.GetManager() );

  003fd	ff 15 00 00 00
	00		 call	 DWORD PTR __imp_?GetManager@?$CStringT@DV?$StrTraitMFC_DLL@DV?$ChTraitsCRT@D@ATL@@@@@ATL@@QBEPAUIAtlStringMgr@2@XZ
  00403	50		 push	 eax
  00404	8d 4d 0c	 lea	 ecx, DWORD PTR $T79[ebp]
  00407	ff 15 00 00 00
	00		 call	 DWORD PTR __imp_??0?$CStringT@DV?$StrTraitMFC_DLL@DV?$ChTraitsCRT@D@ATL@@@@@ATL@@QAE@PAUIAtlStringMgr@1@@Z
; File C:\Program Files (x86)\Microsoft Visual Studio\2019\Community\VC\Tools\MSVC\14.29.30133\atlmfc\include\atlsimpstr.h

; 519  : 		return( GetData()->nDataLength );

  0040d	8b 06		 mov	 eax, DWORD PTR [esi]
; File C:\Program Files (x86)\Microsoft Visual Studio\2019\Community\VC\Tools\MSVC\14.29.30133\atlmfc\include\cstringt.h

; 2416 : 		return( strResult );

  0040f	c7 45 ec 80 00
	00 00		 mov	 DWORD PTR $T71[ebp], 128 ; 00000080H
  00416	ff 70 f4	 push	 DWORD PTR [eax-12]
  00419	50		 push	 eax
  0041a	6a 01		 push	 1
  0041c	8d 45 0c	 lea	 eax, DWORD PTR $T79[ebp]
  0041f	68 00 00 00 00	 push	 OFFSET ??_C@_01GBGANLPD@0@
  00424	50		 push	 eax
  00425	ff 15 00 00 00
	00		 call	 DWORD PTR __imp_?Concatenate@?$CSimpleStringT@D$00@ATL@@KAXAAV12@PBDH1H@Z
  0042b	83 c4 14	 add	 esp, 20			; 00000014H

; 2401 : 		CStringT strResult( str1.GetManager() );

  0042e	8d 4d 0c	 lea	 ecx, DWORD PTR $T79[ebp]
; File D:\git\src\IBK\IBK_DRFN\ProjSrc\SrcChartEx\ChartAddIn\ChartPatternAddIn\DlgAnalysis.cpp

; 906  : 		strTitle = "0" + strTemp.Left(1) + "/" + strTemp.Mid(1, 2) + "," + strTemp.Mid(3, 2) + ":" + strTemp.Mid(5);

  00431	c6 45 fc 18	 mov	 BYTE PTR __$EHRec$[ebp+8], 24 ; 00000018H
; File C:\Program Files (x86)\Microsoft Visual Studio\2019\Community\VC\Tools\MSVC\14.29.30133\atlmfc\include\cstringt.h

; 2401 : 		CStringT strResult( str1.GetManager() );

  00435	ff 15 00 00 00
	00		 call	 DWORD PTR __imp_?GetManager@?$CStringT@DV?$StrTraitMFC_DLL@DV?$ChTraitsCRT@D@ATL@@@@@ATL@@QBEPAUIAtlStringMgr@2@XZ
  0043b	50		 push	 eax
  0043c	8d 4d e4	 lea	 ecx, DWORD PTR $T68[ebp]
  0043f	ff 15 00 00 00
	00		 call	 DWORD PTR __imp_??0?$CStringT@DV?$StrTraitMFC_DLL@DV?$ChTraitsCRT@D@ATL@@@@@ATL@@QAE@PAUIAtlStringMgr@1@@Z
; File C:\Program Files (x86)\Microsoft Visual Studio\2019\Community\VC\Tools\MSVC\14.29.30133\atlmfc\include\atlsimpstr.h

; 519  : 		return( GetData()->nDataLength );

  00445	8b 45 0c	 mov	 eax, DWORD PTR $T79[ebp]
; File C:\Program Files (x86)\Microsoft Visual Studio\2019\Community\VC\Tools\MSVC\14.29.30133\atlmfc\include\cstringt.h

; 2403 : 		CThisSimpleString::Concatenate( strResult, str1, str1.GetLength(), psz2, CThisSimpleString::StringLength( psz2 ) );

  00448	6a 01		 push	 1
  0044a	68 00 00 00 00	 push	 OFFSET ??_C@_01KMDKNFGN@?1@

; 2404 : 
; 2405 : 		return( strResult );

  0044f	c7 45 ec 80 01
	00 00		 mov	 DWORD PTR $T71[ebp], 384 ; 00000180H
  00456	ff 70 f4	 push	 DWORD PTR [eax-12]
  00459	50		 push	 eax
  0045a	8d 45 e4	 lea	 eax, DWORD PTR $T68[ebp]
  0045d	50		 push	 eax
  0045e	ff 15 00 00 00
	00		 call	 DWORD PTR __imp_?Concatenate@?$CSimpleStringT@D$00@ATL@@KAXAAV12@PBDH1H@Z
; File D:\git\src\IBK\IBK_DRFN\ProjSrc\SrcChartEx\ChartAddIn\ChartPatternAddIn\DlgAnalysis.cpp

; 906  : 		strTitle = "0" + strTemp.Left(1) + "/" + strTemp.Mid(1, 2) + "," + strTemp.Mid(3, 2) + ":" + strTemp.Mid(5);

  00464	57		 push	 edi
  00465	8d 45 e4	 lea	 eax, DWORD PTR $T68[ebp]
  00468	50		 push	 eax
  00469	8d 45 c8	 lea	 eax, DWORD PTR $T35[ebp]
  0046c	50		 push	 eax
  0046d	e8 00 00 00 00	 call	 ??HATL@@YA?AV?$CStringT@DV?$StrTraitMFC_DLL@DV?$ChTraitsCRT@D@ATL@@@@@0@ABV10@0@Z ; ATL::operator+
  00472	83 c4 20	 add	 esp, 32			; 00000020H
  00475	8b f0		 mov	 esi, eax
; File C:\Program Files (x86)\Microsoft Visual Studio\2019\Community\VC\Tools\MSVC\14.29.30133\atlmfc\include\cstringt.h

; 2401 : 		CStringT strResult( str1.GetManager() );

  00477	8b ce		 mov	 ecx, esi
; File D:\git\src\IBK\IBK_DRFN\ProjSrc\SrcChartEx\ChartAddIn\ChartPatternAddIn\DlgAnalysis.cpp

; 906  : 		strTitle = "0" + strTemp.Left(1) + "/" + strTemp.Mid(1, 2) + "," + strTemp.Mid(3, 2) + ":" + strTemp.Mid(5);

  00479	c6 45 fc 1a	 mov	 BYTE PTR __$EHRec$[ebp+8], 26 ; 0000001aH
; File C:\Program Files (x86)\Microsoft Visual Studio\2019\Community\VC\Tools\MSVC\14.29.30133\atlmfc\include\cstringt.h

; 2401 : 		CStringT strResult( str1.GetManager() );

  0047d	ff 15 00 00 00
	00		 call	 DWORD PTR __imp_?GetManager@?$CStringT@DV?$StrTraitMFC_DLL@DV?$ChTraitsCRT@D@ATL@@@@@ATL@@QBEPAUIAtlStringMgr@2@XZ
  00483	50		 push	 eax
  00484	8d 4d e0	 lea	 ecx, DWORD PTR $T65[ebp]
  00487	ff 15 00 00 00
	00		 call	 DWORD PTR __imp_??0?$CStringT@DV?$StrTraitMFC_DLL@DV?$ChTraitsCRT@D@ATL@@@@@ATL@@QAE@PAUIAtlStringMgr@1@@Z
; File C:\Program Files (x86)\Microsoft Visual Studio\2019\Community\VC\Tools\MSVC\14.29.30133\atlmfc\include\atlsimpstr.h

; 519  : 		return( GetData()->nDataLength );

  0048d	8b 06		 mov	 eax, DWORD PTR [esi]
; File C:\Program Files (x86)\Microsoft Visual Studio\2019\Community\VC\Tools\MSVC\14.29.30133\atlmfc\include\cstringt.h

; 2403 : 		CThisSimpleString::Concatenate( strResult, str1, str1.GetLength(), psz2, CThisSimpleString::StringLength( psz2 ) );

  0048f	6a 01		 push	 1
  00491	68 00 00 00 00	 push	 OFFSET ??_C@_01IHBHIGKO@?0@

; 2404 : 
; 2405 : 		return( strResult );

  00496	c7 45 ec 80 03
	00 00		 mov	 DWORD PTR $T71[ebp], 896 ; 00000380H
  0049d	ff 70 f4	 push	 DWORD PTR [eax-12]
  004a0	50		 push	 eax
  004a1	8d 45 e0	 lea	 eax, DWORD PTR $T65[ebp]
  004a4	50		 push	 eax
  004a5	ff 15 00 00 00
	00		 call	 DWORD PTR __imp_?Concatenate@?$CSimpleStringT@D$00@ATL@@KAXAAV12@PBDH1H@Z
; File D:\git\src\IBK\IBK_DRFN\ProjSrc\SrcChartEx\ChartAddIn\ChartPatternAddIn\DlgAnalysis.cpp

; 906  : 		strTitle = "0" + strTemp.Left(1) + "/" + strTemp.Mid(1, 2) + "," + strTemp.Mid(3, 2) + ":" + strTemp.Mid(5);

  004ab	53		 push	 ebx
  004ac	8d 45 e0	 lea	 eax, DWORD PTR $T65[ebp]
  004af	50		 push	 eax
  004b0	8d 45 c4	 lea	 eax, DWORD PTR $T28[ebp]
  004b3	50		 push	 eax
  004b4	e8 00 00 00 00	 call	 ??HATL@@YA?AV?$CStringT@DV?$StrTraitMFC_DLL@DV?$ChTraitsCRT@D@ATL@@@@@0@ABV10@0@Z ; ATL::operator+
  004b9	83 c4 20	 add	 esp, 32			; 00000020H
  004bc	8b f0		 mov	 esi, eax
; File C:\Program Files (x86)\Microsoft Visual Studio\2019\Community\VC\Tools\MSVC\14.29.30133\atlmfc\include\cstringt.h

; 2401 : 		CStringT strResult( str1.GetManager() );

  004be	8b ce		 mov	 ecx, esi
; File D:\git\src\IBK\IBK_DRFN\ProjSrc\SrcChartEx\ChartAddIn\ChartPatternAddIn\DlgAnalysis.cpp

; 906  : 		strTitle = "0" + strTemp.Left(1) + "/" + strTemp.Mid(1, 2) + "," + strTemp.Mid(3, 2) + ":" + strTemp.Mid(5);

  004c0	c6 45 fc 1c	 mov	 BYTE PTR __$EHRec$[ebp+8], 28 ; 0000001cH
; File C:\Program Files (x86)\Microsoft Visual Studio\2019\Community\VC\Tools\MSVC\14.29.30133\atlmfc\include\cstringt.h

; 2401 : 		CStringT strResult( str1.GetManager() );

  004c4	ff 15 00 00 00
	00		 call	 DWORD PTR __imp_?GetManager@?$CStringT@DV?$StrTraitMFC_DLL@DV?$ChTraitsCRT@D@ATL@@@@@ATL@@QBEPAUIAtlStringMgr@2@XZ
  004ca	50		 push	 eax
  004cb	8d 4d dc	 lea	 ecx, DWORD PTR $T60[ebp]
  004ce	ff 15 00 00 00
	00		 call	 DWORD PTR __imp_??0?$CStringT@DV?$StrTraitMFC_DLL@DV?$ChTraitsCRT@D@ATL@@@@@ATL@@QAE@PAUIAtlStringMgr@1@@Z
; File C:\Program Files (x86)\Microsoft Visual Studio\2019\Community\VC\Tools\MSVC\14.29.30133\atlmfc\include\atlsimpstr.h

; 519  : 		return( GetData()->nDataLength );

  004d4	8b 06		 mov	 eax, DWORD PTR [esi]
; File C:\Program Files (x86)\Microsoft Visual Studio\2019\Community\VC\Tools\MSVC\14.29.30133\atlmfc\include\cstringt.h

; 2403 : 		CThisSimpleString::Concatenate( strResult, str1, str1.GetLength(), psz2, CThisSimpleString::StringLength( psz2 ) );

  004d6	6a 01		 push	 1
  004d8	68 00 00 00 00	 push	 OFFSET ??_C@_01JLIPDDHJ@?3@

; 2404 : 
; 2405 : 		return( strResult );

  004dd	c7 45 ec 80 07
	00 00		 mov	 DWORD PTR $T71[ebp], 1920 ; 00000780H
  004e4	ff 70 f4	 push	 DWORD PTR [eax-12]
  004e7	50		 push	 eax
  004e8	8d 45 dc	 lea	 eax, DWORD PTR $T60[ebp]
  004eb	50		 push	 eax
  004ec	ff 15 00 00 00
	00		 call	 DWORD PTR __imp_?Concatenate@?$CSimpleStringT@D$00@ATL@@KAXAAV12@PBDH1H@Z
; File D:\git\src\IBK\IBK_DRFN\ProjSrc\SrcChartEx\ChartAddIn\ChartPatternAddIn\DlgAnalysis.cpp

; 906  : 		strTitle = "0" + strTemp.Left(1) + "/" + strTemp.Mid(1, 2) + "," + strTemp.Mid(3, 2) + ":" + strTemp.Mid(5);

  004f2	ff 75 bc	 push	 DWORD PTR tv2922[ebp]
  004f5	8d 45 dc	 lea	 eax, DWORD PTR $T60[ebp]
  004f8	50		 push	 eax
  004f9	8d 45 c0	 lea	 eax, DWORD PTR $T21[ebp]
  004fc	50		 push	 eax
  004fd	e8 00 00 00 00	 call	 ??HATL@@YA?AV?$CStringT@DV?$StrTraitMFC_DLL@DV?$ChTraitsCRT@D@ATL@@@@@0@ABV10@0@Z ; ATL::operator+
  00502	83 c4 20	 add	 esp, 32			; 00000020H
  00505	50		 push	 eax
  00506	8d 4d e8	 lea	 ecx, DWORD PTR _strTitle$[ebp]
  00509	c6 45 fc 1d	 mov	 BYTE PTR __$EHRec$[ebp+8], 29 ; 0000001dH
  0050d	ff 15 00 00 00
	00		 call	 DWORD PTR __imp_??4?$CStringT@DV?$StrTraitMFC_DLL@DV?$ChTraitsCRT@D@ATL@@@@@ATL@@QAEAAV01@ABV01@@Z
  00513	8d 4d c0	 lea	 ecx, DWORD PTR $T21[ebp]
  00516	ff 15 00 00 00
	00		 call	 DWORD PTR __imp_??1?$CStringT@DV?$StrTraitMFC_DLL@DV?$ChTraitsCRT@D@ATL@@@@@ATL@@QAE@XZ
  0051c	8d 4d dc	 lea	 ecx, DWORD PTR $T60[ebp]
  0051f	ff 15 00 00 00
	00		 call	 DWORD PTR __imp_??1?$CStringT@DV?$StrTraitMFC_DLL@DV?$ChTraitsCRT@D@ATL@@@@@ATL@@QAE@XZ
  00525	8d 4d c4	 lea	 ecx, DWORD PTR $T28[ebp]
  00528	ff 15 00 00 00
	00		 call	 DWORD PTR __imp_??1?$CStringT@DV?$StrTraitMFC_DLL@DV?$ChTraitsCRT@D@ATL@@@@@ATL@@QAE@XZ
  0052e	8d 4d e0	 lea	 ecx, DWORD PTR $T65[ebp]
  00531	ff 15 00 00 00
	00		 call	 DWORD PTR __imp_??1?$CStringT@DV?$StrTraitMFC_DLL@DV?$ChTraitsCRT@D@ATL@@@@@ATL@@QAE@XZ
  00537	8d 4d c8	 lea	 ecx, DWORD PTR $T35[ebp]
  0053a	ff 15 00 00 00
	00		 call	 DWORD PTR __imp_??1?$CStringT@DV?$StrTraitMFC_DLL@DV?$ChTraitsCRT@D@ATL@@@@@ATL@@QAE@XZ
  00540	8d 4d e4	 lea	 ecx, DWORD PTR $T68[ebp]
  00543	ff 15 00 00 00
	00		 call	 DWORD PTR __imp_??1?$CStringT@DV?$StrTraitMFC_DLL@DV?$ChTraitsCRT@D@ATL@@@@@ATL@@QAE@XZ
  00549	8d 4d 0c	 lea	 ecx, DWORD PTR $T79[ebp]
  0054c	ff 15 00 00 00
	00		 call	 DWORD PTR __imp_??1?$CStringT@DV?$StrTraitMFC_DLL@DV?$ChTraitsCRT@D@ATL@@@@@ATL@@QAE@XZ
  00552	8d 4d cc	 lea	 ecx, DWORD PTR $T41[ebp]
  00555	ff 15 00 00 00
	00		 call	 DWORD PTR __imp_??1?$CStringT@DV?$StrTraitMFC_DLL@DV?$ChTraitsCRT@D@ATL@@@@@ATL@@QAE@XZ
  0055b	8d 4d d0	 lea	 ecx, DWORD PTR $T47[ebp]
  0055e	ff 15 00 00 00
	00		 call	 DWORD PTR __imp_??1?$CStringT@DV?$StrTraitMFC_DLL@DV?$ChTraitsCRT@D@ATL@@@@@ATL@@QAE@XZ
  00564	8d 4d d4	 lea	 ecx, DWORD PTR $T53[ebp]
  00567	ff 15 00 00 00
	00		 call	 DWORD PTR __imp_??1?$CStringT@DV?$StrTraitMFC_DLL@DV?$ChTraitsCRT@D@ATL@@@@@ATL@@QAE@XZ
  0056d	8d 4d b8	 lea	 ecx, DWORD PTR $T5[ebp]

; 907  : 	}

  00570	e9 2f 02 00 00	 jmp	 $LN538@SetReportT
$LN6@SetReportT:

; 908  : 	else if(strTemp.GetLength()==14)

  00575	83 f8 0e	 cmp	 eax, 14			; 0000000eH
  00578	0f 85 92 01 00
	00		 jne	 $LN8@SetReportT

; 912  : 		strTitle = strTemp.Mid(4,2) + "/" + strTemp.Mid(6, 2) + "," + strTemp.Mid(8, 2) + ":" + strTemp.Mid(10,2);

  0057e	6a 02		 push	 2
  00580	6a 0a		 push	 10			; 0000000aH
  00582	8d 45 d4	 lea	 eax, DWORD PTR $T52[ebp]
  00585	50		 push	 eax
  00586	ff 15 00 00 00
	00		 call	 DWORD PTR __imp_?Mid@?$CStringT@DV?$StrTraitMFC_DLL@DV?$ChTraitsCRT@D@ATL@@@@@ATL@@QBE?AV12@HH@Z
  0058c	89 45 b8	 mov	 DWORD PTR tv2918[ebp], eax
  0058f	6a 02		 push	 2
  00591	6a 08		 push	 8
  00593	8d 45 d0	 lea	 eax, DWORD PTR $T46[ebp]
  00596	c6 45 fc 1e	 mov	 BYTE PTR __$EHRec$[ebp+8], 30 ; 0000001eH
  0059a	50		 push	 eax
  0059b	8d 4d f0	 lea	 ecx, DWORD PTR _strTemp$[ebp]
  0059e	ff 15 00 00 00
	00		 call	 DWORD PTR __imp_?Mid@?$CStringT@DV?$StrTraitMFC_DLL@DV?$ChTraitsCRT@D@ATL@@@@@ATL@@QBE?AV12@HH@Z
  005a4	8b d8		 mov	 ebx, eax
  005a6	6a 02		 push	 2
  005a8	6a 06		 push	 6
  005aa	8d 45 cc	 lea	 eax, DWORD PTR $T40[ebp]
  005ad	c6 45 fc 1f	 mov	 BYTE PTR __$EHRec$[ebp+8], 31 ; 0000001fH
  005b1	50		 push	 eax
  005b2	8d 4d f0	 lea	 ecx, DWORD PTR _strTemp$[ebp]
  005b5	ff 15 00 00 00
	00		 call	 DWORD PTR __imp_?Mid@?$CStringT@DV?$StrTraitMFC_DLL@DV?$ChTraitsCRT@D@ATL@@@@@ATL@@QBE?AV12@HH@Z
  005bb	8b f8		 mov	 edi, eax
  005bd	6a 02		 push	 2
  005bf	6a 04		 push	 4
  005c1	8d 45 c8	 lea	 eax, DWORD PTR $T34[ebp]
  005c4	c6 45 fc 20	 mov	 BYTE PTR __$EHRec$[ebp+8], 32 ; 00000020H
  005c8	50		 push	 eax
  005c9	8d 4d f0	 lea	 ecx, DWORD PTR _strTemp$[ebp]
  005cc	ff 15 00 00 00
	00		 call	 DWORD PTR __imp_?Mid@?$CStringT@DV?$StrTraitMFC_DLL@DV?$ChTraitsCRT@D@ATL@@@@@ATL@@QBE?AV12@HH@Z
  005d2	8b f0		 mov	 esi, eax
; File C:\Program Files (x86)\Microsoft Visual Studio\2019\Community\VC\Tools\MSVC\14.29.30133\atlmfc\include\cstringt.h

; 2401 : 		CStringT strResult( str1.GetManager() );

  005d4	8b ce		 mov	 ecx, esi
; File D:\git\src\IBK\IBK_DRFN\ProjSrc\SrcChartEx\ChartAddIn\ChartPatternAddIn\DlgAnalysis.cpp

; 912  : 		strTitle = strTemp.Mid(4,2) + "/" + strTemp.Mid(6, 2) + "," + strTemp.Mid(8, 2) + ":" + strTemp.Mid(10,2);

  005d6	c6 45 fc 22	 mov	 BYTE PTR __$EHRec$[ebp+8], 34 ; 00000022H
; File C:\Program Files (x86)\Microsoft Visual Studio\2019\Community\VC\Tools\MSVC\14.29.30133\atlmfc\include\cstringt.h

; 2401 : 		CStringT strResult( str1.GetManager() );

  005da	ff 15 00 00 00
	00		 call	 DWORD PTR __imp_?GetManager@?$CStringT@DV?$StrTraitMFC_DLL@DV?$ChTraitsCRT@D@ATL@@@@@ATL@@QBEPAUIAtlStringMgr@2@XZ
  005e0	50		 push	 eax
  005e1	8d 4d e0	 lea	 ecx, DWORD PTR $T64[ebp]
  005e4	ff 15 00 00 00
	00		 call	 DWORD PTR __imp_??0?$CStringT@DV?$StrTraitMFC_DLL@DV?$ChTraitsCRT@D@ATL@@@@@ATL@@QAE@PAUIAtlStringMgr@1@@Z
; File C:\Program Files (x86)\Microsoft Visual Studio\2019\Community\VC\Tools\MSVC\14.29.30133\atlmfc\include\atlsimpstr.h

; 519  : 		return( GetData()->nDataLength );

  005ea	8b 06		 mov	 eax, DWORD PTR [esi]
; File C:\Program Files (x86)\Microsoft Visual Studio\2019\Community\VC\Tools\MSVC\14.29.30133\atlmfc\include\cstringt.h

; 2403 : 		CThisSimpleString::Concatenate( strResult, str1, str1.GetLength(), psz2, CThisSimpleString::StringLength( psz2 ) );

  005ec	6a 01		 push	 1
  005ee	68 00 00 00 00	 push	 OFFSET ??_C@_01KMDKNFGN@?1@

; 2404 : 
; 2405 : 		return( strResult );

  005f3	c7 45 ec 00 08
	00 00		 mov	 DWORD PTR $T71[ebp], 2048 ; 00000800H
  005fa	ff 70 f4	 push	 DWORD PTR [eax-12]
  005fd	50		 push	 eax
  005fe	8d 45 e0	 lea	 eax, DWORD PTR $T64[ebp]
  00601	50		 push	 eax
  00602	ff 15 00 00 00
	00		 call	 DWORD PTR __imp_?Concatenate@?$CSimpleStringT@D$00@ATL@@KAXAAV12@PBDH1H@Z
; File D:\git\src\IBK\IBK_DRFN\ProjSrc\SrcChartEx\ChartAddIn\ChartPatternAddIn\DlgAnalysis.cpp

; 912  : 		strTitle = strTemp.Mid(4,2) + "/" + strTemp.Mid(6, 2) + "," + strTemp.Mid(8, 2) + ":" + strTemp.Mid(10,2);

  00608	57		 push	 edi
  00609	8d 45 e0	 lea	 eax, DWORD PTR $T64[ebp]
  0060c	50		 push	 eax
  0060d	8d 45 c4	 lea	 eax, DWORD PTR $T27[ebp]
  00610	50		 push	 eax
  00611	e8 00 00 00 00	 call	 ??HATL@@YA?AV?$CStringT@DV?$StrTraitMFC_DLL@DV?$ChTraitsCRT@D@ATL@@@@@0@ABV10@0@Z ; ATL::operator+
  00616	83 c4 20	 add	 esp, 32			; 00000020H
  00619	8b f0		 mov	 esi, eax
; File C:\Program Files (x86)\Microsoft Visual Studio\2019\Community\VC\Tools\MSVC\14.29.30133\atlmfc\include\cstringt.h

; 2401 : 		CStringT strResult( str1.GetManager() );

  0061b	8b ce		 mov	 ecx, esi
; File D:\git\src\IBK\IBK_DRFN\ProjSrc\SrcChartEx\ChartAddIn\ChartPatternAddIn\DlgAnalysis.cpp

; 912  : 		strTitle = strTemp.Mid(4,2) + "/" + strTemp.Mid(6, 2) + "," + strTemp.Mid(8, 2) + ":" + strTemp.Mid(10,2);

  0061d	c6 45 fc 24	 mov	 BYTE PTR __$EHRec$[ebp+8], 36 ; 00000024H
; File C:\Program Files (x86)\Microsoft Visual Studio\2019\Community\VC\Tools\MSVC\14.29.30133\atlmfc\include\cstringt.h

; 2401 : 		CStringT strResult( str1.GetManager() );

  00621	ff 15 00 00 00
	00		 call	 DWORD PTR __imp_?GetManager@?$CStringT@DV?$StrTraitMFC_DLL@DV?$ChTraitsCRT@D@ATL@@@@@ATL@@QBEPAUIAtlStringMgr@2@XZ
  00627	50		 push	 eax
  00628	8d 4d dc	 lea	 ecx, DWORD PTR $T59[ebp]
  0062b	ff 15 00 00 00
	00		 call	 DWORD PTR __imp_??0?$CStringT@DV?$StrTraitMFC_DLL@DV?$ChTraitsCRT@D@ATL@@@@@ATL@@QAE@PAUIAtlStringMgr@1@@Z
; File C:\Program Files (x86)\Microsoft Visual Studio\2019\Community\VC\Tools\MSVC\14.29.30133\atlmfc\include\atlsimpstr.h

; 519  : 		return( GetData()->nDataLength );

  00631	8b 06		 mov	 eax, DWORD PTR [esi]
; File C:\Program Files (x86)\Microsoft Visual Studio\2019\Community\VC\Tools\MSVC\14.29.30133\atlmfc\include\cstringt.h

; 2403 : 		CThisSimpleString::Concatenate( strResult, str1, str1.GetLength(), psz2, CThisSimpleString::StringLength( psz2 ) );

  00633	6a 01		 push	 1
  00635	68 00 00 00 00	 push	 OFFSET ??_C@_01IHBHIGKO@?0@

; 2404 : 
; 2405 : 		return( strResult );

  0063a	c7 45 ec 00 18
	00 00		 mov	 DWORD PTR $T71[ebp], 6144 ; 00001800H
  00641	ff 70 f4	 push	 DWORD PTR [eax-12]
  00644	50		 push	 eax
  00645	8d 45 dc	 lea	 eax, DWORD PTR $T59[ebp]
  00648	50		 push	 eax
  00649	ff 15 00 00 00
	00		 call	 DWORD PTR __imp_?Concatenate@?$CSimpleStringT@D$00@ATL@@KAXAAV12@PBDH1H@Z
; File D:\git\src\IBK\IBK_DRFN\ProjSrc\SrcChartEx\ChartAddIn\ChartPatternAddIn\DlgAnalysis.cpp

; 912  : 		strTitle = strTemp.Mid(4,2) + "/" + strTemp.Mid(6, 2) + "," + strTemp.Mid(8, 2) + ":" + strTemp.Mid(10,2);

  0064f	53		 push	 ebx
  00650	8d 45 dc	 lea	 eax, DWORD PTR $T59[ebp]
  00653	50		 push	 eax
  00654	8d 45 c0	 lea	 eax, DWORD PTR $T20[ebp]
  00657	50		 push	 eax
  00658	e8 00 00 00 00	 call	 ??HATL@@YA?AV?$CStringT@DV?$StrTraitMFC_DLL@DV?$ChTraitsCRT@D@ATL@@@@@0@ABV10@0@Z ; ATL::operator+
  0065d	83 c4 20	 add	 esp, 32			; 00000020H
  00660	8b f0		 mov	 esi, eax
; File C:\Program Files (x86)\Microsoft Visual Studio\2019\Community\VC\Tools\MSVC\14.29.30133\atlmfc\include\cstringt.h

; 2401 : 		CStringT strResult( str1.GetManager() );

  00662	8b ce		 mov	 ecx, esi
; File D:\git\src\IBK\IBK_DRFN\ProjSrc\SrcChartEx\ChartAddIn\ChartPatternAddIn\DlgAnalysis.cpp

; 912  : 		strTitle = strTemp.Mid(4,2) + "/" + strTemp.Mid(6, 2) + "," + strTemp.Mid(8, 2) + ":" + strTemp.Mid(10,2);

  00664	c6 45 fc 26	 mov	 BYTE PTR __$EHRec$[ebp+8], 38 ; 00000026H
; File C:\Program Files (x86)\Microsoft Visual Studio\2019\Community\VC\Tools\MSVC\14.29.30133\atlmfc\include\cstringt.h

; 2401 : 		CStringT strResult( str1.GetManager() );

  00668	ff 15 00 00 00
	00		 call	 DWORD PTR __imp_?GetManager@?$CStringT@DV?$StrTraitMFC_DLL@DV?$ChTraitsCRT@D@ATL@@@@@ATL@@QBEPAUIAtlStringMgr@2@XZ
  0066e	50		 push	 eax
  0066f	8d 4d 0c	 lea	 ecx, DWORD PTR $T78[ebp]
  00672	ff 15 00 00 00
	00		 call	 DWORD PTR __imp_??0?$CStringT@DV?$StrTraitMFC_DLL@DV?$ChTraitsCRT@D@ATL@@@@@ATL@@QAE@PAUIAtlStringMgr@1@@Z
; File C:\Program Files (x86)\Microsoft Visual Studio\2019\Community\VC\Tools\MSVC\14.29.30133\atlmfc\include\atlsimpstr.h

; 519  : 		return( GetData()->nDataLength );

  00678	8b 06		 mov	 eax, DWORD PTR [esi]
; File C:\Program Files (x86)\Microsoft Visual Studio\2019\Community\VC\Tools\MSVC\14.29.30133\atlmfc\include\cstringt.h

; 2403 : 		CThisSimpleString::Concatenate( strResult, str1, str1.GetLength(), psz2, CThisSimpleString::StringLength( psz2 ) );

  0067a	6a 01		 push	 1
  0067c	68 00 00 00 00	 push	 OFFSET ??_C@_01JLIPDDHJ@?3@

; 2404 : 
; 2405 : 		return( strResult );

  00681	c7 45 ec 00 38
	00 00		 mov	 DWORD PTR $T71[ebp], 14336 ; 00003800H
  00688	ff 70 f4	 push	 DWORD PTR [eax-12]
  0068b	50		 push	 eax
  0068c	8d 45 0c	 lea	 eax, DWORD PTR $T78[ebp]
  0068f	50		 push	 eax
  00690	ff 15 00 00 00
	00		 call	 DWORD PTR __imp_?Concatenate@?$CSimpleStringT@D$00@ATL@@KAXAAV12@PBDH1H@Z
; File D:\git\src\IBK\IBK_DRFN\ProjSrc\SrcChartEx\ChartAddIn\ChartPatternAddIn\DlgAnalysis.cpp

; 912  : 		strTitle = strTemp.Mid(4,2) + "/" + strTemp.Mid(6, 2) + "," + strTemp.Mid(8, 2) + ":" + strTemp.Mid(10,2);

  00696	ff 75 b8	 push	 DWORD PTR tv2918[ebp]
  00699	8d 45 0c	 lea	 eax, DWORD PTR $T78[ebp]
  0069c	50		 push	 eax
  0069d	8d 45 bc	 lea	 eax, DWORD PTR $T12[ebp]
  006a0	50		 push	 eax
  006a1	e8 00 00 00 00	 call	 ??HATL@@YA?AV?$CStringT@DV?$StrTraitMFC_DLL@DV?$ChTraitsCRT@D@ATL@@@@@0@ABV10@0@Z ; ATL::operator+
  006a6	83 c4 20	 add	 esp, 32			; 00000020H
  006a9	50		 push	 eax
  006aa	8d 4d e8	 lea	 ecx, DWORD PTR _strTitle$[ebp]
  006ad	c6 45 fc 27	 mov	 BYTE PTR __$EHRec$[ebp+8], 39 ; 00000027H
  006b1	ff 15 00 00 00
	00		 call	 DWORD PTR __imp_??4?$CStringT@DV?$StrTraitMFC_DLL@DV?$ChTraitsCRT@D@ATL@@@@@ATL@@QAEAAV01@ABV01@@Z
  006b7	8d 4d bc	 lea	 ecx, DWORD PTR $T12[ebp]
  006ba	ff 15 00 00 00
	00		 call	 DWORD PTR __imp_??1?$CStringT@DV?$StrTraitMFC_DLL@DV?$ChTraitsCRT@D@ATL@@@@@ATL@@QAE@XZ
  006c0	8d 4d 0c	 lea	 ecx, DWORD PTR $T78[ebp]
  006c3	ff 15 00 00 00
	00		 call	 DWORD PTR __imp_??1?$CStringT@DV?$StrTraitMFC_DLL@DV?$ChTraitsCRT@D@ATL@@@@@ATL@@QAE@XZ
  006c9	8d 4d c0	 lea	 ecx, DWORD PTR $T20[ebp]
  006cc	ff 15 00 00 00
	00		 call	 DWORD PTR __imp_??1?$CStringT@DV?$StrTraitMFC_DLL@DV?$ChTraitsCRT@D@ATL@@@@@ATL@@QAE@XZ
  006d2	8d 4d dc	 lea	 ecx, DWORD PTR $T59[ebp]
  006d5	ff 15 00 00 00
	00		 call	 DWORD PTR __imp_??1?$CStringT@DV?$StrTraitMFC_DLL@DV?$ChTraitsCRT@D@ATL@@@@@ATL@@QAE@XZ
  006db	8d 4d c4	 lea	 ecx, DWORD PTR $T27[ebp]
  006de	ff 15 00 00 00
	00		 call	 DWORD PTR __imp_??1?$CStringT@DV?$StrTraitMFC_DLL@DV?$ChTraitsCRT@D@ATL@@@@@ATL@@QAE@XZ
  006e4	8d 4d e0	 lea	 ecx, DWORD PTR $T64[ebp]
  006e7	ff 15 00 00 00
	00		 call	 DWORD PTR __imp_??1?$CStringT@DV?$StrTraitMFC_DLL@DV?$ChTraitsCRT@D@ATL@@@@@ATL@@QAE@XZ
  006ed	8d 4d c8	 lea	 ecx, DWORD PTR $T34[ebp]
  006f0	ff 15 00 00 00
	00		 call	 DWORD PTR __imp_??1?$CStringT@DV?$StrTraitMFC_DLL@DV?$ChTraitsCRT@D@ATL@@@@@ATL@@QAE@XZ
  006f6	8d 4d cc	 lea	 ecx, DWORD PTR $T40[ebp]
  006f9	ff 15 00 00 00
	00		 call	 DWORD PTR __imp_??1?$CStringT@DV?$StrTraitMFC_DLL@DV?$ChTraitsCRT@D@ATL@@@@@ATL@@QAE@XZ
  006ff	8d 4d d0	 lea	 ecx, DWORD PTR $T46[ebp]
  00702	ff 15 00 00 00
	00		 call	 DWORD PTR __imp_??1?$CStringT@DV?$StrTraitMFC_DLL@DV?$ChTraitsCRT@D@ATL@@@@@ATL@@QAE@XZ
  00708	8d 4d d4	 lea	 ecx, DWORD PTR $T52[ebp]

; 913  : 	}

  0070b	e9 94 00 00 00	 jmp	 $LN538@SetReportT
$LN8@SetReportT:

; 918  : 		strTitle = strTemp.Left(4) + "-" + strTemp.Mid(4);

  00710	6a 04		 push	 4
  00712	8d 45 c0	 lea	 eax, DWORD PTR $T19[ebp]
  00715	50		 push	 eax
  00716	ff 15 00 00 00
	00		 call	 DWORD PTR __imp_?Mid@?$CStringT@DV?$StrTraitMFC_DLL@DV?$ChTraitsCRT@D@ATL@@@@@ATL@@QBE?AV12@H@Z
  0071c	8b f8		 mov	 edi, eax
  0071e	6a 04		 push	 4
  00720	8d 45 bc	 lea	 eax, DWORD PTR $T11[ebp]
  00723	c6 45 fc 28	 mov	 BYTE PTR __$EHRec$[ebp+8], 40 ; 00000028H
  00727	50		 push	 eax
  00728	8d 4d f0	 lea	 ecx, DWORD PTR _strTemp$[ebp]
  0072b	ff 15 00 00 00
	00		 call	 DWORD PTR __imp_?Left@?$CStringT@DV?$StrTraitMFC_DLL@DV?$ChTraitsCRT@D@ATL@@@@@ATL@@QBE?AV12@H@Z
  00731	8b f0		 mov	 esi, eax
; File C:\Program Files (x86)\Microsoft Visual Studio\2019\Community\VC\Tools\MSVC\14.29.30133\atlmfc\include\cstringt.h

; 2401 : 		CStringT strResult( str1.GetManager() );

  00733	8b ce		 mov	 ecx, esi
; File D:\git\src\IBK\IBK_DRFN\ProjSrc\SrcChartEx\ChartAddIn\ChartPatternAddIn\DlgAnalysis.cpp

; 918  : 		strTitle = strTemp.Left(4) + "-" + strTemp.Mid(4);

  00735	c6 45 fc 2a	 mov	 BYTE PTR __$EHRec$[ebp+8], 42 ; 0000002aH
; File C:\Program Files (x86)\Microsoft Visual Studio\2019\Community\VC\Tools\MSVC\14.29.30133\atlmfc\include\cstringt.h

; 2401 : 		CStringT strResult( str1.GetManager() );

  00739	ff 15 00 00 00
	00		 call	 DWORD PTR __imp_?GetManager@?$CStringT@DV?$StrTraitMFC_DLL@DV?$ChTraitsCRT@D@ATL@@@@@ATL@@QBEPAUIAtlStringMgr@2@XZ
  0073f	50		 push	 eax
  00740	8d 4d 0c	 lea	 ecx, DWORD PTR $T77[ebp]
  00743	ff 15 00 00 00
	00		 call	 DWORD PTR __imp_??0?$CStringT@DV?$StrTraitMFC_DLL@DV?$ChTraitsCRT@D@ATL@@@@@ATL@@QAE@PAUIAtlStringMgr@1@@Z
; File C:\Program Files (x86)\Microsoft Visual Studio\2019\Community\VC\Tools\MSVC\14.29.30133\atlmfc\include\atlsimpstr.h

; 519  : 		return( GetData()->nDataLength );

  00749	8b 06		 mov	 eax, DWORD PTR [esi]
; File C:\Program Files (x86)\Microsoft Visual Studio\2019\Community\VC\Tools\MSVC\14.29.30133\atlmfc\include\cstringt.h

; 2403 : 		CThisSimpleString::Concatenate( strResult, str1, str1.GetLength(), psz2, CThisSimpleString::StringLength( psz2 ) );

  0074b	6a 01		 push	 1
  0074d	68 00 00 00 00	 push	 OFFSET ??_C@_01JOAMLHOP@?9@

; 2404 : 
; 2405 : 		return( strResult );

  00752	c7 45 ec 00 40
	00 00		 mov	 DWORD PTR $T71[ebp], 16384 ; 00004000H
  00759	ff 70 f4	 push	 DWORD PTR [eax-12]
  0075c	50		 push	 eax
  0075d	8d 45 0c	 lea	 eax, DWORD PTR $T77[ebp]
  00760	50		 push	 eax
  00761	ff 15 00 00 00
	00		 call	 DWORD PTR __imp_?Concatenate@?$CSimpleStringT@D$00@ATL@@KAXAAV12@PBDH1H@Z
; File D:\git\src\IBK\IBK_DRFN\ProjSrc\SrcChartEx\ChartAddIn\ChartPatternAddIn\DlgAnalysis.cpp

; 918  : 		strTitle = strTemp.Left(4) + "-" + strTemp.Mid(4);

  00767	57		 push	 edi
  00768	8d 45 0c	 lea	 eax, DWORD PTR $T77[ebp]
  0076b	50		 push	 eax
  0076c	8d 45 b8	 lea	 eax, DWORD PTR $T4[ebp]
  0076f	50		 push	 eax
  00770	e8 00 00 00 00	 call	 ??HATL@@YA?AV?$CStringT@DV?$StrTraitMFC_DLL@DV?$ChTraitsCRT@D@ATL@@@@@0@ABV10@0@Z ; ATL::operator+
  00775	83 c4 20	 add	 esp, 32			; 00000020H
  00778	50		 push	 eax
  00779	8d 4d e8	 lea	 ecx, DWORD PTR _strTitle$[ebp]
  0077c	c6 45 fc 2b	 mov	 BYTE PTR __$EHRec$[ebp+8], 43 ; 0000002bH
  00780	ff 15 00 00 00
	00		 call	 DWORD PTR __imp_??4?$CStringT@DV?$StrTraitMFC_DLL@DV?$ChTraitsCRT@D@ATL@@@@@ATL@@QAEAAV01@ABV01@@Z
  00786	8d 4d b8	 lea	 ecx, DWORD PTR $T4[ebp]
  00789	ff 15 00 00 00
	00		 call	 DWORD PTR __imp_??1?$CStringT@DV?$StrTraitMFC_DLL@DV?$ChTraitsCRT@D@ATL@@@@@ATL@@QAE@XZ
  0078f	8d 4d 0c	 lea	 ecx, DWORD PTR $T77[ebp]
  00792	ff 15 00 00 00
	00		 call	 DWORD PTR __imp_??1?$CStringT@DV?$StrTraitMFC_DLL@DV?$ChTraitsCRT@D@ATL@@@@@ATL@@QAE@XZ
  00798	8d 4d bc	 lea	 ecx, DWORD PTR $T11[ebp]
  0079b	ff 15 00 00 00
	00		 call	 DWORD PTR __imp_??1?$CStringT@DV?$StrTraitMFC_DLL@DV?$ChTraitsCRT@D@ATL@@@@@ATL@@QAE@XZ
  007a1	8d 4d c0	 lea	 ecx, DWORD PTR $T19[ebp]
$LN538@SetReportT:

; 919  : 	}
; 920  : 	SetDlgItemText( IDC_STATIC_STARTDATE, strTitle);

  007a4	c6 45 fc 01	 mov	 BYTE PTR __$EHRec$[ebp+8], 1
  007a8	ff 15 00 00 00
	00		 call	 DWORD PTR __imp_??1?$CStringT@DV?$StrTraitMFC_DLL@DV?$ChTraitsCRT@D@ATL@@@@@ATL@@QAE@XZ
  007ae	ff 75 e8	 push	 DWORD PTR _strTitle$[ebp]
  007b1	8b 4d d8	 mov	 ecx, DWORD PTR _this$1$[ebp]
  007b4	68 e6 07 00 00	 push	 2022			; 000007e6H
  007b9	e8 00 00 00 00	 call	 ?SetDlgItemTextA@CWnd@@QAEXHPBD@Z ; CWnd::SetDlgItemTextA

; 921  : 
; 922  : 	strTemp.Format( "%.f", dEndDate);

  007be	f2 0f 10 45 10	 movsd	 xmm0, QWORD PTR _dEndDate$[ebp]
  007c3	8d 45 f0	 lea	 eax, DWORD PTR _strTemp$[ebp]
  007c6	83 ec 08	 sub	 esp, 8
  007c9	f2 0f 11 04 24	 movsd	 QWORD PTR [esp], xmm0
  007ce	68 00 00 00 00	 push	 OFFSET ??_C@_03EICDNICE@?$CF?4f@
  007d3	50		 push	 eax
  007d4	ff 15 00 00 00
	00		 call	 DWORD PTR __imp_?Format@?$CStringT@DV?$StrTraitMFC_DLL@DV?$ChTraitsCRT@D@ATL@@@@@ATL@@QAAXPBDZZ
; File C:\Program Files (x86)\Microsoft Visual Studio\2019\Community\VC\Tools\MSVC\14.29.30133\atlmfc\include\atlsimpstr.h

; 519  : 		return( GetData()->nDataLength );

  007da	8b 45 f0	 mov	 eax, DWORD PTR _strTemp$[ebp]
; File D:\git\src\IBK\IBK_DRFN\ProjSrc\SrcChartEx\ChartAddIn\ChartPatternAddIn\DlgAnalysis.cpp

; 926  : 	if(strTemp.GetLength()==8)

  007dd	8d 4d f0	 lea	 ecx, DWORD PTR _strTemp$[ebp]
  007e0	83 c4 10	 add	 esp, 16			; 00000010H
; File C:\Program Files (x86)\Microsoft Visual Studio\2019\Community\VC\Tools\MSVC\14.29.30133\atlmfc\include\atlsimpstr.h

; 519  : 		return( GetData()->nDataLength );

  007e3	8b 40 f4	 mov	 eax, DWORD PTR [eax-12]
; File D:\git\src\IBK\IBK_DRFN\ProjSrc\SrcChartEx\ChartAddIn\ChartPatternAddIn\DlgAnalysis.cpp

; 926  : 	if(strTemp.GetLength()==8)

  007e6	83 f8 08	 cmp	 eax, 8
  007e9	0f 85 1c 03 00
	00		 jne	 $LN10@SetReportT

; 927  : 	{
; 928  : 		if(strTemp.GetAt(0) == '1' && ((strTemp.GetAt(1) - '1') < 3))

  007ef	6a 00		 push	 0
  007f1	ff 15 00 00 00
	00		 call	 DWORD PTR __imp_?GetAt@?$CSimpleStringT@D$00@ATL@@QBEDH@Z
  007f7	3c 31		 cmp	 al, 49			; 00000031H
  007f9	0f 85 a4 01 00
	00		 jne	 $LN12@SetReportT
  007ff	6a 01		 push	 1
  00801	8d 4d f0	 lea	 ecx, DWORD PTR _strTemp$[ebp]
  00804	ff 15 00 00 00
	00		 call	 DWORD PTR __imp_?GetAt@?$CSimpleStringT@D$00@ATL@@QBEDH@Z
  0080a	3c 34		 cmp	 al, 52			; 00000034H
  0080c	0f 8d 91 01 00
	00		 jge	 $LN12@SetReportT

; 929  : 			strTitle = strTemp.Left(2) + "/" + strTemp.Mid(2, 2) + "," + strTemp.Mid(4, 2) + ":" + strTemp.Mid(6);

  00812	6a 06		 push	 6
  00814	8d 45 d4	 lea	 eax, DWORD PTR $T51[ebp]
  00817	50		 push	 eax
  00818	8d 4d f0	 lea	 ecx, DWORD PTR _strTemp$[ebp]
  0081b	ff 15 00 00 00
	00		 call	 DWORD PTR __imp_?Mid@?$CStringT@DV?$StrTraitMFC_DLL@DV?$ChTraitsCRT@D@ATL@@@@@ATL@@QBE?AV12@H@Z
  00821	89 45 b8	 mov	 DWORD PTR tv2912[ebp], eax
  00824	6a 02		 push	 2
  00826	6a 04		 push	 4
  00828	8d 45 d0	 lea	 eax, DWORD PTR $T45[ebp]
  0082b	c6 45 fc 2c	 mov	 BYTE PTR __$EHRec$[ebp+8], 44 ; 0000002cH
  0082f	50		 push	 eax
  00830	8d 4d f0	 lea	 ecx, DWORD PTR _strTemp$[ebp]
  00833	ff 15 00 00 00
	00		 call	 DWORD PTR __imp_?Mid@?$CStringT@DV?$StrTraitMFC_DLL@DV?$ChTraitsCRT@D@ATL@@@@@ATL@@QBE?AV12@HH@Z
  00839	8b d8		 mov	 ebx, eax
  0083b	6a 02		 push	 2
  0083d	6a 02		 push	 2
  0083f	8d 45 cc	 lea	 eax, DWORD PTR $T39[ebp]
  00842	c6 45 fc 2d	 mov	 BYTE PTR __$EHRec$[ebp+8], 45 ; 0000002dH
  00846	50		 push	 eax
  00847	8d 4d f0	 lea	 ecx, DWORD PTR _strTemp$[ebp]
  0084a	ff 15 00 00 00
	00		 call	 DWORD PTR __imp_?Mid@?$CStringT@DV?$StrTraitMFC_DLL@DV?$ChTraitsCRT@D@ATL@@@@@ATL@@QBE?AV12@HH@Z
  00850	8b f8		 mov	 edi, eax
  00852	6a 02		 push	 2
  00854	8d 45 c8	 lea	 eax, DWORD PTR $T33[ebp]
  00857	c6 45 fc 2e	 mov	 BYTE PTR __$EHRec$[ebp+8], 46 ; 0000002eH
  0085b	50		 push	 eax
  0085c	8d 4d f0	 lea	 ecx, DWORD PTR _strTemp$[ebp]
  0085f	ff 15 00 00 00
	00		 call	 DWORD PTR __imp_?Left@?$CStringT@DV?$StrTraitMFC_DLL@DV?$ChTraitsCRT@D@ATL@@@@@ATL@@QBE?AV12@H@Z
  00865	8b f0		 mov	 esi, eax
; File C:\Program Files (x86)\Microsoft Visual Studio\2019\Community\VC\Tools\MSVC\14.29.30133\atlmfc\include\cstringt.h

; 2401 : 		CStringT strResult( str1.GetManager() );

  00867	8b ce		 mov	 ecx, esi
; File D:\git\src\IBK\IBK_DRFN\ProjSrc\SrcChartEx\ChartAddIn\ChartPatternAddIn\DlgAnalysis.cpp

; 929  : 			strTitle = strTemp.Left(2) + "/" + strTemp.Mid(2, 2) + "," + strTemp.Mid(4, 2) + ":" + strTemp.Mid(6);

  00869	c6 45 fc 30	 mov	 BYTE PTR __$EHRec$[ebp+8], 48 ; 00000030H
; File C:\Program Files (x86)\Microsoft Visual Studio\2019\Community\VC\Tools\MSVC\14.29.30133\atlmfc\include\cstringt.h

; 2401 : 		CStringT strResult( str1.GetManager() );

  0086d	ff 15 00 00 00
	00		 call	 DWORD PTR __imp_?GetManager@?$CStringT@DV?$StrTraitMFC_DLL@DV?$ChTraitsCRT@D@ATL@@@@@ATL@@QBEPAUIAtlStringMgr@2@XZ
  00873	50		 push	 eax
  00874	8d 4d dc	 lea	 ecx, DWORD PTR $T58[ebp]
  00877	ff 15 00 00 00
	00		 call	 DWORD PTR __imp_??0?$CStringT@DV?$StrTraitMFC_DLL@DV?$ChTraitsCRT@D@ATL@@@@@ATL@@QAE@PAUIAtlStringMgr@1@@Z
; File C:\Program Files (x86)\Microsoft Visual Studio\2019\Community\VC\Tools\MSVC\14.29.30133\atlmfc\include\atlsimpstr.h

; 519  : 		return( GetData()->nDataLength );

  0087d	8b 06		 mov	 eax, DWORD PTR [esi]
; File C:\Program Files (x86)\Microsoft Visual Studio\2019\Community\VC\Tools\MSVC\14.29.30133\atlmfc\include\cstringt.h

; 2403 : 		CThisSimpleString::Concatenate( strResult, str1, str1.GetLength(), psz2, CThisSimpleString::StringLength( psz2 ) );

  0087f	6a 01		 push	 1
  00881	68 00 00 00 00	 push	 OFFSET ??_C@_01KMDKNFGN@?1@

; 2404 : 
; 2405 : 		return( strResult );

  00886	c7 45 ec 00 80
	00 00		 mov	 DWORD PTR $T71[ebp], 32768 ; 00008000H
  0088d	ff 70 f4	 push	 DWORD PTR [eax-12]
  00890	50		 push	 eax
  00891	8d 45 dc	 lea	 eax, DWORD PTR $T58[ebp]
  00894	50		 push	 eax
  00895	ff 15 00 00 00
	00		 call	 DWORD PTR __imp_?Concatenate@?$CSimpleStringT@D$00@ATL@@KAXAAV12@PBDH1H@Z
; File D:\git\src\IBK\IBK_DRFN\ProjSrc\SrcChartEx\ChartAddIn\ChartPatternAddIn\DlgAnalysis.cpp

; 929  : 			strTitle = strTemp.Left(2) + "/" + strTemp.Mid(2, 2) + "," + strTemp.Mid(4, 2) + ":" + strTemp.Mid(6);

  0089b	57		 push	 edi
  0089c	8d 45 dc	 lea	 eax, DWORD PTR $T58[ebp]
  0089f	50		 push	 eax
  008a0	8d 45 c4	 lea	 eax, DWORD PTR $T26[ebp]
  008a3	50		 push	 eax
  008a4	e8 00 00 00 00	 call	 ??HATL@@YA?AV?$CStringT@DV?$StrTraitMFC_DLL@DV?$ChTraitsCRT@D@ATL@@@@@0@ABV10@0@Z ; ATL::operator+
  008a9	83 c4 20	 add	 esp, 32			; 00000020H
  008ac	8b f0		 mov	 esi, eax
; File C:\Program Files (x86)\Microsoft Visual Studio\2019\Community\VC\Tools\MSVC\14.29.30133\atlmfc\include\cstringt.h

; 2401 : 		CStringT strResult( str1.GetManager() );

  008ae	8b ce		 mov	 ecx, esi
; File D:\git\src\IBK\IBK_DRFN\ProjSrc\SrcChartEx\ChartAddIn\ChartPatternAddIn\DlgAnalysis.cpp

; 929  : 			strTitle = strTemp.Left(2) + "/" + strTemp.Mid(2, 2) + "," + strTemp.Mid(4, 2) + ":" + strTemp.Mid(6);

  008b0	c6 45 fc 32	 mov	 BYTE PTR __$EHRec$[ebp+8], 50 ; 00000032H
; File C:\Program Files (x86)\Microsoft Visual Studio\2019\Community\VC\Tools\MSVC\14.29.30133\atlmfc\include\cstringt.h

; 2401 : 		CStringT strResult( str1.GetManager() );

  008b4	ff 15 00 00 00
	00		 call	 DWORD PTR __imp_?GetManager@?$CStringT@DV?$StrTraitMFC_DLL@DV?$ChTraitsCRT@D@ATL@@@@@ATL@@QBEPAUIAtlStringMgr@2@XZ
  008ba	50		 push	 eax
  008bb	8d 4d 14	 lea	 ecx, DWORD PTR $T86[ebp]
  008be	ff 15 00 00 00
	00		 call	 DWORD PTR __imp_??0?$CStringT@DV?$StrTraitMFC_DLL@DV?$ChTraitsCRT@D@ATL@@@@@ATL@@QAE@PAUIAtlStringMgr@1@@Z
; File C:\Program Files (x86)\Microsoft Visual Studio\2019\Community\VC\Tools\MSVC\14.29.30133\atlmfc\include\atlsimpstr.h

; 519  : 		return( GetData()->nDataLength );

  008c4	8b 06		 mov	 eax, DWORD PTR [esi]
; File C:\Program Files (x86)\Microsoft Visual Studio\2019\Community\VC\Tools\MSVC\14.29.30133\atlmfc\include\cstringt.h

; 2403 : 		CThisSimpleString::Concatenate( strResult, str1, str1.GetLength(), psz2, CThisSimpleString::StringLength( psz2 ) );

  008c6	6a 01		 push	 1
  008c8	68 00 00 00 00	 push	 OFFSET ??_C@_01IHBHIGKO@?0@

; 2404 : 
; 2405 : 		return( strResult );

  008cd	c7 45 ec 00 80
	01 00		 mov	 DWORD PTR $T71[ebp], 98304 ; 00018000H
  008d4	ff 70 f4	 push	 DWORD PTR [eax-12]
  008d7	50		 push	 eax
  008d8	8d 45 14	 lea	 eax, DWORD PTR $T86[ebp]
  008db	50		 push	 eax
  008dc	ff 15 00 00 00
	00		 call	 DWORD PTR __imp_?Concatenate@?$CSimpleStringT@D$00@ATL@@KAXAAV12@PBDH1H@Z
; File D:\git\src\IBK\IBK_DRFN\ProjSrc\SrcChartEx\ChartAddIn\ChartPatternAddIn\DlgAnalysis.cpp

; 929  : 			strTitle = strTemp.Left(2) + "/" + strTemp.Mid(2, 2) + "," + strTemp.Mid(4, 2) + ":" + strTemp.Mid(6);

  008e2	53		 push	 ebx
  008e3	8d 45 14	 lea	 eax, DWORD PTR $T86[ebp]
  008e6	50		 push	 eax
  008e7	8d 45 c0	 lea	 eax, DWORD PTR $T18[ebp]
  008ea	50		 push	 eax
  008eb	e8 00 00 00 00	 call	 ??HATL@@YA?AV?$CStringT@DV?$StrTraitMFC_DLL@DV?$ChTraitsCRT@D@ATL@@@@@0@ABV10@0@Z ; ATL::operator+
  008f0	83 c4 20	 add	 esp, 32			; 00000020H
  008f3	8b f0		 mov	 esi, eax
; File C:\Program Files (x86)\Microsoft Visual Studio\2019\Community\VC\Tools\MSVC\14.29.30133\atlmfc\include\cstringt.h

; 2401 : 		CStringT strResult( str1.GetManager() );

  008f5	8b ce		 mov	 ecx, esi
; File D:\git\src\IBK\IBK_DRFN\ProjSrc\SrcChartEx\ChartAddIn\ChartPatternAddIn\DlgAnalysis.cpp

; 929  : 			strTitle = strTemp.Left(2) + "/" + strTemp.Mid(2, 2) + "," + strTemp.Mid(4, 2) + ":" + strTemp.Mid(6);

  008f7	c6 45 fc 34	 mov	 BYTE PTR __$EHRec$[ebp+8], 52 ; 00000034H
; File C:\Program Files (x86)\Microsoft Visual Studio\2019\Community\VC\Tools\MSVC\14.29.30133\atlmfc\include\cstringt.h

; 2401 : 		CStringT strResult( str1.GetManager() );

  008fb	ff 15 00 00 00
	00		 call	 DWORD PTR __imp_?GetManager@?$CStringT@DV?$StrTraitMFC_DLL@DV?$ChTraitsCRT@D@ATL@@@@@ATL@@QBEPAUIAtlStringMgr@2@XZ
  00901	50		 push	 eax
  00902	8d 4d 0c	 lea	 ecx, DWORD PTR $T76[ebp]
  00905	ff 15 00 00 00
	00		 call	 DWORD PTR __imp_??0?$CStringT@DV?$StrTraitMFC_DLL@DV?$ChTraitsCRT@D@ATL@@@@@ATL@@QAE@PAUIAtlStringMgr@1@@Z
; File C:\Program Files (x86)\Microsoft Visual Studio\2019\Community\VC\Tools\MSVC\14.29.30133\atlmfc\include\atlsimpstr.h

; 519  : 		return( GetData()->nDataLength );

  0090b	8b 06		 mov	 eax, DWORD PTR [esi]
; File C:\Program Files (x86)\Microsoft Visual Studio\2019\Community\VC\Tools\MSVC\14.29.30133\atlmfc\include\cstringt.h

; 2403 : 		CThisSimpleString::Concatenate( strResult, str1, str1.GetLength(), psz2, CThisSimpleString::StringLength( psz2 ) );

  0090d	6a 01		 push	 1
  0090f	68 00 00 00 00	 push	 OFFSET ??_C@_01JLIPDDHJ@?3@

; 2404 : 
; 2405 : 		return( strResult );

  00914	c7 45 ec 00 80
	03 00		 mov	 DWORD PTR $T71[ebp], 229376 ; 00038000H
  0091b	ff 70 f4	 push	 DWORD PTR [eax-12]
  0091e	50		 push	 eax
  0091f	8d 45 0c	 lea	 eax, DWORD PTR $T76[ebp]
  00922	50		 push	 eax
  00923	ff 15 00 00 00
	00		 call	 DWORD PTR __imp_?Concatenate@?$CSimpleStringT@D$00@ATL@@KAXAAV12@PBDH1H@Z
; File D:\git\src\IBK\IBK_DRFN\ProjSrc\SrcChartEx\ChartAddIn\ChartPatternAddIn\DlgAnalysis.cpp

; 929  : 			strTitle = strTemp.Left(2) + "/" + strTemp.Mid(2, 2) + "," + strTemp.Mid(4, 2) + ":" + strTemp.Mid(6);

  00929	ff 75 b8	 push	 DWORD PTR tv2912[ebp]
  0092c	8d 45 0c	 lea	 eax, DWORD PTR $T76[ebp]
  0092f	50		 push	 eax
  00930	8d 45 bc	 lea	 eax, DWORD PTR $T10[ebp]
  00933	50		 push	 eax
  00934	e8 00 00 00 00	 call	 ??HATL@@YA?AV?$CStringT@DV?$StrTraitMFC_DLL@DV?$ChTraitsCRT@D@ATL@@@@@0@ABV10@0@Z ; ATL::operator+
  00939	83 c4 20	 add	 esp, 32			; 00000020H
  0093c	c6 45 fc 35	 mov	 BYTE PTR __$EHRec$[ebp+8], 53 ; 00000035H
$LN541@SetReportT:

; 945  : 	SetDlgItemText( IDC_STATIC_ENDDATE, strTitle);

  00940	50		 push	 eax
  00941	8d 4d e8	 lea	 ecx, DWORD PTR _strTitle$[ebp]
  00944	ff 15 00 00 00
	00		 call	 DWORD PTR __imp_??4?$CStringT@DV?$StrTraitMFC_DLL@DV?$ChTraitsCRT@D@ATL@@@@@ATL@@QAEAAV01@ABV01@@Z
  0094a	8d 4d bc	 lea	 ecx, DWORD PTR $T10[ebp]
  0094d	ff 15 00 00 00
	00		 call	 DWORD PTR __imp_??1?$CStringT@DV?$StrTraitMFC_DLL@DV?$ChTraitsCRT@D@ATL@@@@@ATL@@QAE@XZ
  00953	8d 4d 0c	 lea	 ecx, DWORD PTR $T76[ebp]
  00956	ff 15 00 00 00
	00		 call	 DWORD PTR __imp_??1?$CStringT@DV?$StrTraitMFC_DLL@DV?$ChTraitsCRT@D@ATL@@@@@ATL@@QAE@XZ
  0095c	8d 4d c0	 lea	 ecx, DWORD PTR $T18[ebp]
  0095f	ff 15 00 00 00
	00		 call	 DWORD PTR __imp_??1?$CStringT@DV?$StrTraitMFC_DLL@DV?$ChTraitsCRT@D@ATL@@@@@ATL@@QAE@XZ
  00965	8d 4d 14	 lea	 ecx, DWORD PTR $T86[ebp]
  00968	ff 15 00 00 00
	00		 call	 DWORD PTR __imp_??1?$CStringT@DV?$StrTraitMFC_DLL@DV?$ChTraitsCRT@D@ATL@@@@@ATL@@QAE@XZ
  0096e	8d 4d c4	 lea	 ecx, DWORD PTR $T26[ebp]
  00971	ff 15 00 00 00
	00		 call	 DWORD PTR __imp_??1?$CStringT@DV?$StrTraitMFC_DLL@DV?$ChTraitsCRT@D@ATL@@@@@ATL@@QAE@XZ
  00977	8d 4d dc	 lea	 ecx, DWORD PTR $T58[ebp]
$LN540@SetReportT:
  0097a	ff 15 00 00 00
	00		 call	 DWORD PTR __imp_??1?$CStringT@DV?$StrTraitMFC_DLL@DV?$ChTraitsCRT@D@ATL@@@@@ATL@@QAE@XZ
  00980	8d 4d c8	 lea	 ecx, DWORD PTR $T33[ebp]
  00983	ff 15 00 00 00
	00		 call	 DWORD PTR __imp_??1?$CStringT@DV?$StrTraitMFC_DLL@DV?$ChTraitsCRT@D@ATL@@@@@ATL@@QAE@XZ
  00989	8d 4d cc	 lea	 ecx, DWORD PTR $T39[ebp]
  0098c	ff 15 00 00 00
	00		 call	 DWORD PTR __imp_??1?$CStringT@DV?$StrTraitMFC_DLL@DV?$ChTraitsCRT@D@ATL@@@@@ATL@@QAE@XZ
  00992	8d 4d d0	 lea	 ecx, DWORD PTR $T45[ebp]
  00995	ff 15 00 00 00
	00		 call	 DWORD PTR __imp_??1?$CStringT@DV?$StrTraitMFC_DLL@DV?$ChTraitsCRT@D@ATL@@@@@ATL@@QAE@XZ
  0099b	8d 4d d4	 lea	 ecx, DWORD PTR $T51[ebp]
  0099e	e9 ee 04 00 00	 jmp	 $LN539@SetReportT
$LN12@SetReportT:

; 931  : 			strTitle = strTemp.Left(4) + "-" + strTemp.Mid(4, 2) + "-" + strTemp.Mid(6);

  009a3	6a 06		 push	 6
  009a5	8d 45 c0	 lea	 eax, DWORD PTR $T17[ebp]
  009a8	50		 push	 eax
  009a9	8d 4d f0	 lea	 ecx, DWORD PTR _strTemp$[ebp]
  009ac	ff 15 00 00 00
	00		 call	 DWORD PTR __imp_?Mid@?$CStringT@DV?$StrTraitMFC_DLL@DV?$ChTraitsCRT@D@ATL@@@@@ATL@@QBE?AV12@H@Z
  009b2	8b d8		 mov	 ebx, eax
  009b4	6a 02		 push	 2
  009b6	6a 04		 push	 4
  009b8	8d 45 bc	 lea	 eax, DWORD PTR $T9[ebp]
  009bb	c6 45 fc 36	 mov	 BYTE PTR __$EHRec$[ebp+8], 54 ; 00000036H
  009bf	50		 push	 eax
  009c0	8d 4d f0	 lea	 ecx, DWORD PTR _strTemp$[ebp]
  009c3	ff 15 00 00 00
	00		 call	 DWORD PTR __imp_?Mid@?$CStringT@DV?$StrTraitMFC_DLL@DV?$ChTraitsCRT@D@ATL@@@@@ATL@@QBE?AV12@HH@Z
  009c9	8b f8		 mov	 edi, eax
  009cb	6a 04		 push	 4
  009cd	8d 45 b8	 lea	 eax, DWORD PTR $T3[ebp]
  009d0	c6 45 fc 37	 mov	 BYTE PTR __$EHRec$[ebp+8], 55 ; 00000037H
  009d4	50		 push	 eax
  009d5	8d 4d f0	 lea	 ecx, DWORD PTR _strTemp$[ebp]
  009d8	ff 15 00 00 00
	00		 call	 DWORD PTR __imp_?Left@?$CStringT@DV?$StrTraitMFC_DLL@DV?$ChTraitsCRT@D@ATL@@@@@ATL@@QBE?AV12@H@Z
  009de	8b f0		 mov	 esi, eax
; File C:\Program Files (x86)\Microsoft Visual Studio\2019\Community\VC\Tools\MSVC\14.29.30133\atlmfc\include\cstringt.h

; 2401 : 		CStringT strResult( str1.GetManager() );

  009e0	8b ce		 mov	 ecx, esi
; File D:\git\src\IBK\IBK_DRFN\ProjSrc\SrcChartEx\ChartAddIn\ChartPatternAddIn\DlgAnalysis.cpp

; 931  : 			strTitle = strTemp.Left(4) + "-" + strTemp.Mid(4, 2) + "-" + strTemp.Mid(6);

  009e2	c6 45 fc 39	 mov	 BYTE PTR __$EHRec$[ebp+8], 57 ; 00000039H
; File C:\Program Files (x86)\Microsoft Visual Studio\2019\Community\VC\Tools\MSVC\14.29.30133\atlmfc\include\cstringt.h

; 2401 : 		CStringT strResult( str1.GetManager() );

  009e6	ff 15 00 00 00
	00		 call	 DWORD PTR __imp_?GetManager@?$CStringT@DV?$StrTraitMFC_DLL@DV?$ChTraitsCRT@D@ATL@@@@@ATL@@QBEPAUIAtlStringMgr@2@XZ
  009ec	50		 push	 eax
  009ed	8d 4d e0	 lea	 ecx, DWORD PTR $T63[ebp]
  009f0	ff 15 00 00 00
	00		 call	 DWORD PTR __imp_??0?$CStringT@DV?$StrTraitMFC_DLL@DV?$ChTraitsCRT@D@ATL@@@@@ATL@@QAE@PAUIAtlStringMgr@1@@Z
; File C:\Program Files (x86)\Microsoft Visual Studio\2019\Community\VC\Tools\MSVC\14.29.30133\atlmfc\include\atlsimpstr.h

; 519  : 		return( GetData()->nDataLength );

  009f6	8b 06		 mov	 eax, DWORD PTR [esi]
; File C:\Program Files (x86)\Microsoft Visual Studio\2019\Community\VC\Tools\MSVC\14.29.30133\atlmfc\include\cstringt.h

; 2403 : 		CThisSimpleString::Concatenate( strResult, str1, str1.GetLength(), psz2, CThisSimpleString::StringLength( psz2 ) );

  009f8	6a 01		 push	 1
  009fa	68 00 00 00 00	 push	 OFFSET ??_C@_01JOAMLHOP@?9@

; 2404 : 
; 2405 : 		return( strResult );

  009ff	c7 45 ec 00 00
	04 00		 mov	 DWORD PTR $T71[ebp], 262144 ; 00040000H
  00a06	ff 70 f4	 push	 DWORD PTR [eax-12]
  00a09	50		 push	 eax
  00a0a	8d 45 e0	 lea	 eax, DWORD PTR $T63[ebp]
  00a0d	50		 push	 eax
  00a0e	ff 15 00 00 00
	00		 call	 DWORD PTR __imp_?Concatenate@?$CSimpleStringT@D$00@ATL@@KAXAAV12@PBDH1H@Z
  00a14	83 c4 14	 add	 esp, 20			; 00000014H

; 2390 : 		CStringT strResult( str1.GetManager() );

  00a17	8d 4d e0	 lea	 ecx, DWORD PTR $T63[ebp]
; File D:\git\src\IBK\IBK_DRFN\ProjSrc\SrcChartEx\ChartAddIn\ChartPatternAddIn\DlgAnalysis.cpp

; 931  : 			strTitle = strTemp.Left(4) + "-" + strTemp.Mid(4, 2) + "-" + strTemp.Mid(6);

  00a1a	c6 45 fc 3a	 mov	 BYTE PTR __$EHRec$[ebp+8], 58 ; 0000003aH
; File C:\Program Files (x86)\Microsoft Visual Studio\2019\Community\VC\Tools\MSVC\14.29.30133\atlmfc\include\cstringt.h

; 2390 : 		CStringT strResult( str1.GetManager() );

  00a1e	ff 15 00 00 00
	00		 call	 DWORD PTR __imp_?GetManager@?$CStringT@DV?$StrTraitMFC_DLL@DV?$ChTraitsCRT@D@ATL@@@@@ATL@@QBEPAUIAtlStringMgr@2@XZ
  00a24	50		 push	 eax
  00a25	8d 4d 14	 lea	 ecx, DWORD PTR $T85[ebp]
  00a28	ff 15 00 00 00
	00		 call	 DWORD PTR __imp_??0?$CStringT@DV?$StrTraitMFC_DLL@DV?$ChTraitsCRT@D@ATL@@@@@ATL@@QAE@PAUIAtlStringMgr@1@@Z
; File C:\Program Files (x86)\Microsoft Visual Studio\2019\Community\VC\Tools\MSVC\14.29.30133\atlmfc\include\atlsimpstr.h

; 519  : 		return( GetData()->nDataLength );

  00a2e	8b 0f		 mov	 ecx, DWORD PTR [edi]
  00a30	8b 45 e0	 mov	 eax, DWORD PTR $T63[ebp]
; File C:\Program Files (x86)\Microsoft Visual Studio\2019\Community\VC\Tools\MSVC\14.29.30133\atlmfc\include\cstringt.h

; 2394 : 		return( strResult );

  00a33	c7 45 ec 00 00
	0c 00		 mov	 DWORD PTR $T71[ebp], 786432 ; 000c0000H
  00a3a	ff 71 f4	 push	 DWORD PTR [ecx-12]
  00a3d	51		 push	 ecx
  00a3e	ff 70 f4	 push	 DWORD PTR [eax-12]
  00a41	50		 push	 eax
  00a42	8d 45 14	 lea	 eax, DWORD PTR $T85[ebp]
  00a45	50		 push	 eax
  00a46	ff 15 00 00 00
	00		 call	 DWORD PTR __imp_?Concatenate@?$CSimpleStringT@D$00@ATL@@KAXAAV12@PBDH1H@Z
  00a4c	83 c4 14	 add	 esp, 20			; 00000014H

; 2401 : 		CStringT strResult( str1.GetManager() );

  00a4f	8d 4d 14	 lea	 ecx, DWORD PTR $T85[ebp]
; File D:\git\src\IBK\IBK_DRFN\ProjSrc\SrcChartEx\ChartAddIn\ChartPatternAddIn\DlgAnalysis.cpp

; 931  : 			strTitle = strTemp.Left(4) + "-" + strTemp.Mid(4, 2) + "-" + strTemp.Mid(6);

  00a52	c6 45 fc 3b	 mov	 BYTE PTR __$EHRec$[ebp+8], 59 ; 0000003bH
; File C:\Program Files (x86)\Microsoft Visual Studio\2019\Community\VC\Tools\MSVC\14.29.30133\atlmfc\include\cstringt.h

; 2401 : 		CStringT strResult( str1.GetManager() );

  00a56	ff 15 00 00 00
	00		 call	 DWORD PTR __imp_?GetManager@?$CStringT@DV?$StrTraitMFC_DLL@DV?$ChTraitsCRT@D@ATL@@@@@ATL@@QBEPAUIAtlStringMgr@2@XZ
  00a5c	50		 push	 eax
  00a5d	8d 4d 0c	 lea	 ecx, DWORD PTR $T75[ebp]
  00a60	ff 15 00 00 00
	00		 call	 DWORD PTR __imp_??0?$CStringT@DV?$StrTraitMFC_DLL@DV?$ChTraitsCRT@D@ATL@@@@@ATL@@QAE@PAUIAtlStringMgr@1@@Z
; File C:\Program Files (x86)\Microsoft Visual Studio\2019\Community\VC\Tools\MSVC\14.29.30133\atlmfc\include\atlsimpstr.h

; 519  : 		return( GetData()->nDataLength );

  00a66	8b 45 14	 mov	 eax, DWORD PTR $T85[ebp]
; File C:\Program Files (x86)\Microsoft Visual Studio\2019\Community\VC\Tools\MSVC\14.29.30133\atlmfc\include\cstringt.h

; 2403 : 		CThisSimpleString::Concatenate( strResult, str1, str1.GetLength(), psz2, CThisSimpleString::StringLength( psz2 ) );

  00a69	6a 01		 push	 1
  00a6b	68 00 00 00 00	 push	 OFFSET ??_C@_01JOAMLHOP@?9@

; 2404 : 
; 2405 : 		return( strResult );

  00a70	c7 45 ec 00 00
	1c 00		 mov	 DWORD PTR $T71[ebp], 1835008 ; 001c0000H
  00a77	ff 70 f4	 push	 DWORD PTR [eax-12]
  00a7a	50		 push	 eax
  00a7b	8d 45 0c	 lea	 eax, DWORD PTR $T75[ebp]
  00a7e	50		 push	 eax
  00a7f	ff 15 00 00 00
	00		 call	 DWORD PTR __imp_?Concatenate@?$CSimpleStringT@D$00@ATL@@KAXAAV12@PBDH1H@Z
  00a85	83 c4 14	 add	 esp, 20			; 00000014H

; 2390 : 		CStringT strResult( str1.GetManager() );

  00a88	8d 4d 0c	 lea	 ecx, DWORD PTR $T75[ebp]
; File D:\git\src\IBK\IBK_DRFN\ProjSrc\SrcChartEx\ChartAddIn\ChartPatternAddIn\DlgAnalysis.cpp

; 931  : 			strTitle = strTemp.Left(4) + "-" + strTemp.Mid(4, 2) + "-" + strTemp.Mid(6);

  00a8b	c6 45 fc 3c	 mov	 BYTE PTR __$EHRec$[ebp+8], 60 ; 0000003cH
; File C:\Program Files (x86)\Microsoft Visual Studio\2019\Community\VC\Tools\MSVC\14.29.30133\atlmfc\include\cstringt.h

; 2390 : 		CStringT strResult( str1.GetManager() );

  00a8f	ff 15 00 00 00
	00		 call	 DWORD PTR __imp_?GetManager@?$CStringT@DV?$StrTraitMFC_DLL@DV?$ChTraitsCRT@D@ATL@@@@@ATL@@QBEPAUIAtlStringMgr@2@XZ
  00a95	50		 push	 eax
  00a96	8d 4d dc	 lea	 ecx, DWORD PTR $T57[ebp]
  00a99	ff 15 00 00 00
	00		 call	 DWORD PTR __imp_??0?$CStringT@DV?$StrTraitMFC_DLL@DV?$ChTraitsCRT@D@ATL@@@@@ATL@@QAE@PAUIAtlStringMgr@1@@Z
; File C:\Program Files (x86)\Microsoft Visual Studio\2019\Community\VC\Tools\MSVC\14.29.30133\atlmfc\include\atlsimpstr.h

; 519  : 		return( GetData()->nDataLength );

  00a9f	8b 0b		 mov	 ecx, DWORD PTR [ebx]
  00aa1	8b 45 0c	 mov	 eax, DWORD PTR $T75[ebp]
; File C:\Program Files (x86)\Microsoft Visual Studio\2019\Community\VC\Tools\MSVC\14.29.30133\atlmfc\include\cstringt.h

; 2394 : 		return( strResult );

  00aa4	c7 45 ec 00 00
	3c 00		 mov	 DWORD PTR $T71[ebp], 3932160 ; 003c0000H
  00aab	ff 71 f4	 push	 DWORD PTR [ecx-12]
  00aae	51		 push	 ecx
  00aaf	ff 70 f4	 push	 DWORD PTR [eax-12]
  00ab2	50		 push	 eax
  00ab3	8d 45 dc	 lea	 eax, DWORD PTR $T57[ebp]
  00ab6	50		 push	 eax
  00ab7	ff 15 00 00 00
	00		 call	 DWORD PTR __imp_?Concatenate@?$CSimpleStringT@D$00@ATL@@KAXAAV12@PBDH1H@Z
  00abd	83 c4 14	 add	 esp, 20			; 00000014H
; File D:\git\src\IBK\IBK_DRFN\ProjSrc\SrcChartEx\ChartAddIn\ChartPatternAddIn\DlgAnalysis.cpp

; 931  : 			strTitle = strTemp.Left(4) + "-" + strTemp.Mid(4, 2) + "-" + strTemp.Mid(6);

  00ac0	8d 45 dc	 lea	 eax, DWORD PTR $T57[ebp]
  00ac3	8d 4d e8	 lea	 ecx, DWORD PTR _strTitle$[ebp]
  00ac6	50		 push	 eax
  00ac7	ff 15 00 00 00
	00		 call	 DWORD PTR __imp_??4?$CStringT@DV?$StrTraitMFC_DLL@DV?$ChTraitsCRT@D@ATL@@@@@ATL@@QAEAAV01@ABV01@@Z
  00acd	8d 4d dc	 lea	 ecx, DWORD PTR $T57[ebp]
  00ad0	ff 15 00 00 00
	00		 call	 DWORD PTR __imp_??1?$CStringT@DV?$StrTraitMFC_DLL@DV?$ChTraitsCRT@D@ATL@@@@@ATL@@QAE@XZ
  00ad6	8d 4d 0c	 lea	 ecx, DWORD PTR $T75[ebp]
  00ad9	ff 15 00 00 00
	00		 call	 DWORD PTR __imp_??1?$CStringT@DV?$StrTraitMFC_DLL@DV?$ChTraitsCRT@D@ATL@@@@@ATL@@QAE@XZ
  00adf	8d 4d 14	 lea	 ecx, DWORD PTR $T85[ebp]
  00ae2	ff 15 00 00 00
	00		 call	 DWORD PTR __imp_??1?$CStringT@DV?$StrTraitMFC_DLL@DV?$ChTraitsCRT@D@ATL@@@@@ATL@@QAE@XZ
  00ae8	8d 4d e0	 lea	 ecx, DWORD PTR $T63[ebp]
  00aeb	ff 15 00 00 00
	00		 call	 DWORD PTR __imp_??1?$CStringT@DV?$StrTraitMFC_DLL@DV?$ChTraitsCRT@D@ATL@@@@@ATL@@QAE@XZ
  00af1	8d 4d b8	 lea	 ecx, DWORD PTR $T3[ebp]
  00af4	ff 15 00 00 00
	00		 call	 DWORD PTR __imp_??1?$CStringT@DV?$StrTraitMFC_DLL@DV?$ChTraitsCRT@D@ATL@@@@@ATL@@QAE@XZ
  00afa	8d 4d bc	 lea	 ecx, DWORD PTR $T9[ebp]
  00afd	ff 15 00 00 00
	00		 call	 DWORD PTR __imp_??1?$CStringT@DV?$StrTraitMFC_DLL@DV?$ChTraitsCRT@D@ATL@@@@@ATL@@QAE@XZ
  00b03	8d 4d c0	 lea	 ecx, DWORD PTR $T17[ebp]

; 932  : 	}

  00b06	e9 86 03 00 00	 jmp	 $LN539@SetReportT
$LN10@SetReportT:

; 933  : 	else if(strTemp.GetLength() == 7)

  00b0b	83 f8 07	 cmp	 eax, 7
  00b0e	0f 85 ac 01 00
	00		 jne	 $LN14@SetReportT

; 935  : 		strTitle = "0" + strTemp.Left(1) + "/" + strTemp.Mid(1, 2) + "," + strTemp.Mid(3, 2) + ":" + strTemp.Mid(5);

  00b14	6a 05		 push	 5
  00b16	8d 45 d4	 lea	 eax, DWORD PTR $T50[ebp]
  00b19	50		 push	 eax
  00b1a	ff 15 00 00 00
	00		 call	 DWORD PTR __imp_?Mid@?$CStringT@DV?$StrTraitMFC_DLL@DV?$ChTraitsCRT@D@ATL@@@@@ATL@@QBE?AV12@H@Z
  00b20	89 45 b8	 mov	 DWORD PTR tv2908[ebp], eax
  00b23	6a 02		 push	 2
  00b25	6a 03		 push	 3
  00b27	8d 45 d0	 lea	 eax, DWORD PTR $T44[ebp]
  00b2a	c6 45 fc 3d	 mov	 BYTE PTR __$EHRec$[ebp+8], 61 ; 0000003dH
  00b2e	50		 push	 eax
  00b2f	8d 4d f0	 lea	 ecx, DWORD PTR _strTemp$[ebp]
  00b32	ff 15 00 00 00
	00		 call	 DWORD PTR __imp_?Mid@?$CStringT@DV?$StrTraitMFC_DLL@DV?$ChTraitsCRT@D@ATL@@@@@ATL@@QBE?AV12@HH@Z
  00b38	8b d8		 mov	 ebx, eax
  00b3a	6a 02		 push	 2
  00b3c	6a 01		 push	 1
  00b3e	8d 45 cc	 lea	 eax, DWORD PTR $T38[ebp]
  00b41	c6 45 fc 3e	 mov	 BYTE PTR __$EHRec$[ebp+8], 62 ; 0000003eH
  00b45	50		 push	 eax
  00b46	8d 4d f0	 lea	 ecx, DWORD PTR _strTemp$[ebp]
  00b49	ff 15 00 00 00
	00		 call	 DWORD PTR __imp_?Mid@?$CStringT@DV?$StrTraitMFC_DLL@DV?$ChTraitsCRT@D@ATL@@@@@ATL@@QBE?AV12@HH@Z
  00b4f	8b f8		 mov	 edi, eax
  00b51	6a 01		 push	 1
  00b53	8d 45 c8	 lea	 eax, DWORD PTR $T32[ebp]
  00b56	c6 45 fc 3f	 mov	 BYTE PTR __$EHRec$[ebp+8], 63 ; 0000003fH
  00b5a	50		 push	 eax
  00b5b	8d 4d f0	 lea	 ecx, DWORD PTR _strTemp$[ebp]
  00b5e	ff 15 00 00 00
	00		 call	 DWORD PTR __imp_?Left@?$CStringT@DV?$StrTraitMFC_DLL@DV?$ChTraitsCRT@D@ATL@@@@@ATL@@QBE?AV12@H@Z
  00b64	8b f0		 mov	 esi, eax
; File C:\Program Files (x86)\Microsoft Visual Studio\2019\Community\VC\Tools\MSVC\14.29.30133\atlmfc\include\cstringt.h

; 2412 : 		CStringT strResult( str2.GetManager() );

  00b66	8b ce		 mov	 ecx, esi
; File D:\git\src\IBK\IBK_DRFN\ProjSrc\SrcChartEx\ChartAddIn\ChartPatternAddIn\DlgAnalysis.cpp

; 935  : 		strTitle = "0" + strTemp.Left(1) + "/" + strTemp.Mid(1, 2) + "," + strTemp.Mid(3, 2) + ":" + strTemp.Mid(5);

  00b68	c6 45 fc 41	 mov	 BYTE PTR __$EHRec$[ebp+8], 65 ; 00000041H
; File C:\Program Files (x86)\Microsoft Visual Studio\2019\Community\VC\Tools\MSVC\14.29.30133\atlmfc\include\cstringt.h

; 2412 : 		CStringT strResult( str2.GetManager() );

  00b6c	ff 15 00 00 00
	00		 call	 DWORD PTR __imp_?GetManager@?$CStringT@DV?$StrTraitMFC_DLL@DV?$ChTraitsCRT@D@ATL@@@@@ATL@@QBEPAUIAtlStringMgr@2@XZ
  00b72	50		 push	 eax
  00b73	8d 4d 0c	 lea	 ecx, DWORD PTR $T74[ebp]
  00b76	ff 15 00 00 00
	00		 call	 DWORD PTR __imp_??0?$CStringT@DV?$StrTraitMFC_DLL@DV?$ChTraitsCRT@D@ATL@@@@@ATL@@QAE@PAUIAtlStringMgr@1@@Z
; File C:\Program Files (x86)\Microsoft Visual Studio\2019\Community\VC\Tools\MSVC\14.29.30133\atlmfc\include\atlsimpstr.h

; 519  : 		return( GetData()->nDataLength );

  00b7c	8b 06		 mov	 eax, DWORD PTR [esi]
; File C:\Program Files (x86)\Microsoft Visual Studio\2019\Community\VC\Tools\MSVC\14.29.30133\atlmfc\include\cstringt.h

; 2416 : 		return( strResult );

  00b7e	c7 45 ec 00 00
	40 00		 mov	 DWORD PTR $T71[ebp], 4194304 ; 00400000H
  00b85	ff 70 f4	 push	 DWORD PTR [eax-12]
  00b88	50		 push	 eax
  00b89	6a 01		 push	 1
  00b8b	8d 45 0c	 lea	 eax, DWORD PTR $T74[ebp]
  00b8e	68 00 00 00 00	 push	 OFFSET ??_C@_01GBGANLPD@0@
  00b93	50		 push	 eax
  00b94	ff 15 00 00 00
	00		 call	 DWORD PTR __imp_?Concatenate@?$CSimpleStringT@D$00@ATL@@KAXAAV12@PBDH1H@Z
  00b9a	83 c4 14	 add	 esp, 20			; 00000014H

; 2401 : 		CStringT strResult( str1.GetManager() );

  00b9d	8d 4d 0c	 lea	 ecx, DWORD PTR $T74[ebp]
; File D:\git\src\IBK\IBK_DRFN\ProjSrc\SrcChartEx\ChartAddIn\ChartPatternAddIn\DlgAnalysis.cpp

; 935  : 		strTitle = "0" + strTemp.Left(1) + "/" + strTemp.Mid(1, 2) + "," + strTemp.Mid(3, 2) + ":" + strTemp.Mid(5);

  00ba0	c6 45 fc 42	 mov	 BYTE PTR __$EHRec$[ebp+8], 66 ; 00000042H
; File C:\Program Files (x86)\Microsoft Visual Studio\2019\Community\VC\Tools\MSVC\14.29.30133\atlmfc\include\cstringt.h

; 2401 : 		CStringT strResult( str1.GetManager() );

  00ba4	ff 15 00 00 00
	00		 call	 DWORD PTR __imp_?GetManager@?$CStringT@DV?$StrTraitMFC_DLL@DV?$ChTraitsCRT@D@ATL@@@@@ATL@@QBEPAUIAtlStringMgr@2@XZ
  00baa	50		 push	 eax
  00bab	8d 4d e0	 lea	 ecx, DWORD PTR $T62[ebp]
  00bae	ff 15 00 00 00
	00		 call	 DWORD PTR __imp_??0?$CStringT@DV?$StrTraitMFC_DLL@DV?$ChTraitsCRT@D@ATL@@@@@ATL@@QAE@PAUIAtlStringMgr@1@@Z
; File C:\Program Files (x86)\Microsoft Visual Studio\2019\Community\VC\Tools\MSVC\14.29.30133\atlmfc\include\atlsimpstr.h

; 519  : 		return( GetData()->nDataLength );

  00bb4	8b 45 0c	 mov	 eax, DWORD PTR $T74[ebp]
; File C:\Program Files (x86)\Microsoft Visual Studio\2019\Community\VC\Tools\MSVC\14.29.30133\atlmfc\include\cstringt.h

; 2403 : 		CThisSimpleString::Concatenate( strResult, str1, str1.GetLength(), psz2, CThisSimpleString::StringLength( psz2 ) );

  00bb7	6a 01		 push	 1
  00bb9	68 00 00 00 00	 push	 OFFSET ??_C@_01KMDKNFGN@?1@

; 2404 : 
; 2405 : 		return( strResult );

  00bbe	c7 45 ec 00 00
	c0 00		 mov	 DWORD PTR $T71[ebp], 12582912 ; 00c00000H
  00bc5	ff 70 f4	 push	 DWORD PTR [eax-12]
  00bc8	50		 push	 eax
  00bc9	8d 45 e0	 lea	 eax, DWORD PTR $T62[ebp]
  00bcc	50		 push	 eax
  00bcd	ff 15 00 00 00
	00		 call	 DWORD PTR __imp_?Concatenate@?$CSimpleStringT@D$00@ATL@@KAXAAV12@PBDH1H@Z
; File D:\git\src\IBK\IBK_DRFN\ProjSrc\SrcChartEx\ChartAddIn\ChartPatternAddIn\DlgAnalysis.cpp

; 935  : 		strTitle = "0" + strTemp.Left(1) + "/" + strTemp.Mid(1, 2) + "," + strTemp.Mid(3, 2) + ":" + strTemp.Mid(5);

  00bd3	57		 push	 edi
  00bd4	8d 45 e0	 lea	 eax, DWORD PTR $T62[ebp]
  00bd7	50		 push	 eax
  00bd8	8d 45 c4	 lea	 eax, DWORD PTR $T25[ebp]
  00bdb	50		 push	 eax
  00bdc	e8 00 00 00 00	 call	 ??HATL@@YA?AV?$CStringT@DV?$StrTraitMFC_DLL@DV?$ChTraitsCRT@D@ATL@@@@@0@ABV10@0@Z ; ATL::operator+
  00be1	83 c4 20	 add	 esp, 32			; 00000020H
  00be4	8b f0		 mov	 esi, eax
; File C:\Program Files (x86)\Microsoft Visual Studio\2019\Community\VC\Tools\MSVC\14.29.30133\atlmfc\include\cstringt.h

; 2401 : 		CStringT strResult( str1.GetManager() );

  00be6	8b ce		 mov	 ecx, esi
; File D:\git\src\IBK\IBK_DRFN\ProjSrc\SrcChartEx\ChartAddIn\ChartPatternAddIn\DlgAnalysis.cpp

; 935  : 		strTitle = "0" + strTemp.Left(1) + "/" + strTemp.Mid(1, 2) + "," + strTemp.Mid(3, 2) + ":" + strTemp.Mid(5);

  00be8	c6 45 fc 44	 mov	 BYTE PTR __$EHRec$[ebp+8], 68 ; 00000044H
; File C:\Program Files (x86)\Microsoft Visual Studio\2019\Community\VC\Tools\MSVC\14.29.30133\atlmfc\include\cstringt.h

; 2401 : 		CStringT strResult( str1.GetManager() );

  00bec	ff 15 00 00 00
	00		 call	 DWORD PTR __imp_?GetManager@?$CStringT@DV?$StrTraitMFC_DLL@DV?$ChTraitsCRT@D@ATL@@@@@ATL@@QBEPAUIAtlStringMgr@2@XZ
  00bf2	50		 push	 eax
  00bf3	8d 4d dc	 lea	 ecx, DWORD PTR $T56[ebp]
  00bf6	ff 15 00 00 00
	00		 call	 DWORD PTR __imp_??0?$CStringT@DV?$StrTraitMFC_DLL@DV?$ChTraitsCRT@D@ATL@@@@@ATL@@QAE@PAUIAtlStringMgr@1@@Z
; File C:\Program Files (x86)\Microsoft Visual Studio\2019\Community\VC\Tools\MSVC\14.29.30133\atlmfc\include\atlsimpstr.h

; 519  : 		return( GetData()->nDataLength );

  00bfc	8b 06		 mov	 eax, DWORD PTR [esi]
; File C:\Program Files (x86)\Microsoft Visual Studio\2019\Community\VC\Tools\MSVC\14.29.30133\atlmfc\include\cstringt.h

; 2403 : 		CThisSimpleString::Concatenate( strResult, str1, str1.GetLength(), psz2, CThisSimpleString::StringLength( psz2 ) );

  00bfe	6a 01		 push	 1
  00c00	68 00 00 00 00	 push	 OFFSET ??_C@_01IHBHIGKO@?0@

; 2404 : 
; 2405 : 		return( strResult );

  00c05	c7 45 ec 00 00
	c0 01		 mov	 DWORD PTR $T71[ebp], 29360128 ; 01c00000H
  00c0c	ff 70 f4	 push	 DWORD PTR [eax-12]
  00c0f	50		 push	 eax
  00c10	8d 45 dc	 lea	 eax, DWORD PTR $T56[ebp]
  00c13	50		 push	 eax
  00c14	ff 15 00 00 00
	00		 call	 DWORD PTR __imp_?Concatenate@?$CSimpleStringT@D$00@ATL@@KAXAAV12@PBDH1H@Z
; File D:\git\src\IBK\IBK_DRFN\ProjSrc\SrcChartEx\ChartAddIn\ChartPatternAddIn\DlgAnalysis.cpp

; 935  : 		strTitle = "0" + strTemp.Left(1) + "/" + strTemp.Mid(1, 2) + "," + strTemp.Mid(3, 2) + ":" + strTemp.Mid(5);

  00c1a	53		 push	 ebx
  00c1b	8d 45 dc	 lea	 eax, DWORD PTR $T56[ebp]
  00c1e	50		 push	 eax
  00c1f	8d 45 c0	 lea	 eax, DWORD PTR $T16[ebp]
  00c22	50		 push	 eax
  00c23	e8 00 00 00 00	 call	 ??HATL@@YA?AV?$CStringT@DV?$StrTraitMFC_DLL@DV?$ChTraitsCRT@D@ATL@@@@@0@ABV10@0@Z ; ATL::operator+
  00c28	83 c4 20	 add	 esp, 32			; 00000020H
  00c2b	8b f0		 mov	 esi, eax
; File C:\Program Files (x86)\Microsoft Visual Studio\2019\Community\VC\Tools\MSVC\14.29.30133\atlmfc\include\cstringt.h

; 2401 : 		CStringT strResult( str1.GetManager() );

  00c2d	8b ce		 mov	 ecx, esi
; File D:\git\src\IBK\IBK_DRFN\ProjSrc\SrcChartEx\ChartAddIn\ChartPatternAddIn\DlgAnalysis.cpp

; 935  : 		strTitle = "0" + strTemp.Left(1) + "/" + strTemp.Mid(1, 2) + "," + strTemp.Mid(3, 2) + ":" + strTemp.Mid(5);

  00c2f	c6 45 fc 46	 mov	 BYTE PTR __$EHRec$[ebp+8], 70 ; 00000046H
; File C:\Program Files (x86)\Microsoft Visual Studio\2019\Community\VC\Tools\MSVC\14.29.30133\atlmfc\include\cstringt.h

; 2401 : 		CStringT strResult( str1.GetManager() );

  00c33	ff 15 00 00 00
	00		 call	 DWORD PTR __imp_?GetManager@?$CStringT@DV?$StrTraitMFC_DLL@DV?$ChTraitsCRT@D@ATL@@@@@ATL@@QBEPAUIAtlStringMgr@2@XZ
  00c39	50		 push	 eax
  00c3a	8d 4d 14	 lea	 ecx, DWORD PTR $T84[ebp]
  00c3d	ff 15 00 00 00
	00		 call	 DWORD PTR __imp_??0?$CStringT@DV?$StrTraitMFC_DLL@DV?$ChTraitsCRT@D@ATL@@@@@ATL@@QAE@PAUIAtlStringMgr@1@@Z
; File C:\Program Files (x86)\Microsoft Visual Studio\2019\Community\VC\Tools\MSVC\14.29.30133\atlmfc\include\atlsimpstr.h

; 519  : 		return( GetData()->nDataLength );

  00c43	8b 06		 mov	 eax, DWORD PTR [esi]
; File C:\Program Files (x86)\Microsoft Visual Studio\2019\Community\VC\Tools\MSVC\14.29.30133\atlmfc\include\cstringt.h

; 2403 : 		CThisSimpleString::Concatenate( strResult, str1, str1.GetLength(), psz2, CThisSimpleString::StringLength( psz2 ) );

  00c45	6a 01		 push	 1
  00c47	68 00 00 00 00	 push	 OFFSET ??_C@_01JLIPDDHJ@?3@

; 2404 : 
; 2405 : 		return( strResult );

  00c4c	c7 45 ec 00 00
	c0 03		 mov	 DWORD PTR $T71[ebp], 62914560 ; 03c00000H
  00c53	ff 70 f4	 push	 DWORD PTR [eax-12]
  00c56	50		 push	 eax
  00c57	8d 45 14	 lea	 eax, DWORD PTR $T84[ebp]
  00c5a	50		 push	 eax
  00c5b	ff 15 00 00 00
	00		 call	 DWORD PTR __imp_?Concatenate@?$CSimpleStringT@D$00@ATL@@KAXAAV12@PBDH1H@Z
; File D:\git\src\IBK\IBK_DRFN\ProjSrc\SrcChartEx\ChartAddIn\ChartPatternAddIn\DlgAnalysis.cpp

; 935  : 		strTitle = "0" + strTemp.Left(1) + "/" + strTemp.Mid(1, 2) + "," + strTemp.Mid(3, 2) + ":" + strTemp.Mid(5);

  00c61	ff 75 b8	 push	 DWORD PTR tv2908[ebp]
  00c64	8d 45 14	 lea	 eax, DWORD PTR $T84[ebp]
  00c67	50		 push	 eax
  00c68	8d 45 bc	 lea	 eax, DWORD PTR $T8[ebp]
  00c6b	50		 push	 eax
  00c6c	e8 00 00 00 00	 call	 ??HATL@@YA?AV?$CStringT@DV?$StrTraitMFC_DLL@DV?$ChTraitsCRT@D@ATL@@@@@0@ABV10@0@Z ; ATL::operator+
  00c71	83 c4 20	 add	 esp, 32			; 00000020H
  00c74	50		 push	 eax
  00c75	8d 4d e8	 lea	 ecx, DWORD PTR _strTitle$[ebp]
  00c78	c6 45 fc 47	 mov	 BYTE PTR __$EHRec$[ebp+8], 71 ; 00000047H
  00c7c	ff 15 00 00 00
	00		 call	 DWORD PTR __imp_??4?$CStringT@DV?$StrTraitMFC_DLL@DV?$ChTraitsCRT@D@ATL@@@@@ATL@@QAEAAV01@ABV01@@Z
  00c82	8d 4d bc	 lea	 ecx, DWORD PTR $T8[ebp]
  00c85	ff 15 00 00 00
	00		 call	 DWORD PTR __imp_??1?$CStringT@DV?$StrTraitMFC_DLL@DV?$ChTraitsCRT@D@ATL@@@@@ATL@@QAE@XZ
  00c8b	8d 4d 14	 lea	 ecx, DWORD PTR $T84[ebp]
  00c8e	ff 15 00 00 00
	00		 call	 DWORD PTR __imp_??1?$CStringT@DV?$StrTraitMFC_DLL@DV?$ChTraitsCRT@D@ATL@@@@@ATL@@QAE@XZ
  00c94	8d 4d c0	 lea	 ecx, DWORD PTR $T16[ebp]
  00c97	ff 15 00 00 00
	00		 call	 DWORD PTR __imp_??1?$CStringT@DV?$StrTraitMFC_DLL@DV?$ChTraitsCRT@D@ATL@@@@@ATL@@QAE@XZ
  00c9d	8d 4d dc	 lea	 ecx, DWORD PTR $T56[ebp]
  00ca0	ff 15 00 00 00
	00		 call	 DWORD PTR __imp_??1?$CStringT@DV?$StrTraitMFC_DLL@DV?$ChTraitsCRT@D@ATL@@@@@ATL@@QAE@XZ
  00ca6	8d 4d c4	 lea	 ecx, DWORD PTR $T25[ebp]
  00ca9	ff 15 00 00 00
	00		 call	 DWORD PTR __imp_??1?$CStringT@DV?$StrTraitMFC_DLL@DV?$ChTraitsCRT@D@ATL@@@@@ATL@@QAE@XZ
  00caf	8d 4d e0	 lea	 ecx, DWORD PTR $T62[ebp]
  00cb2	ff 15 00 00 00
	00		 call	 DWORD PTR __imp_??1?$CStringT@DV?$StrTraitMFC_DLL@DV?$ChTraitsCRT@D@ATL@@@@@ATL@@QAE@XZ
  00cb8	8d 4d 0c	 lea	 ecx, DWORD PTR $T74[ebp]

; 936  : 	}

  00cbb	e9 ba fc ff ff	 jmp	 $LN540@SetReportT
$LN14@SetReportT:

; 937  : 	else if(strTemp.GetLength()==14)

  00cc0	83 f8 0e	 cmp	 eax, 14			; 0000000eH
  00cc3	0f 85 34 01 00
	00		 jne	 $LN16@SetReportT

; 940  : 		strTitle = strTemp.Mid(4,2) + "/" + strTemp.Mid(6, 2) + "," + strTemp.Mid(8, 2) + ":" + strTemp.Mid(10,2);

  00cc9	6a 02		 push	 2
  00ccb	6a 0a		 push	 10			; 0000000aH
  00ccd	8d 45 d4	 lea	 eax, DWORD PTR $T49[ebp]
  00cd0	50		 push	 eax
  00cd1	ff 15 00 00 00
	00		 call	 DWORD PTR __imp_?Mid@?$CStringT@DV?$StrTraitMFC_DLL@DV?$ChTraitsCRT@D@ATL@@@@@ATL@@QBE?AV12@HH@Z
  00cd7	89 45 b8	 mov	 DWORD PTR tv2904[ebp], eax
  00cda	6a 02		 push	 2
  00cdc	6a 08		 push	 8
  00cde	8d 45 d0	 lea	 eax, DWORD PTR $T43[ebp]
  00ce1	c6 45 fc 48	 mov	 BYTE PTR __$EHRec$[ebp+8], 72 ; 00000048H
  00ce5	50		 push	 eax
  00ce6	8d 4d f0	 lea	 ecx, DWORD PTR _strTemp$[ebp]
  00ce9	ff 15 00 00 00
	00		 call	 DWORD PTR __imp_?Mid@?$CStringT@DV?$StrTraitMFC_DLL@DV?$ChTraitsCRT@D@ATL@@@@@ATL@@QBE?AV12@HH@Z
  00cef	8b d8		 mov	 ebx, eax
  00cf1	6a 02		 push	 2
  00cf3	6a 06		 push	 6
  00cf5	8d 45 cc	 lea	 eax, DWORD PTR $T37[ebp]
  00cf8	c6 45 fc 49	 mov	 BYTE PTR __$EHRec$[ebp+8], 73 ; 00000049H
  00cfc	50		 push	 eax
  00cfd	8d 4d f0	 lea	 ecx, DWORD PTR _strTemp$[ebp]
  00d00	ff 15 00 00 00
	00		 call	 DWORD PTR __imp_?Mid@?$CStringT@DV?$StrTraitMFC_DLL@DV?$ChTraitsCRT@D@ATL@@@@@ATL@@QBE?AV12@HH@Z
  00d06	8b f8		 mov	 edi, eax
  00d08	6a 02		 push	 2
  00d0a	6a 04		 push	 4
  00d0c	8d 45 c8	 lea	 eax, DWORD PTR $T31[ebp]
  00d0f	c6 45 fc 4a	 mov	 BYTE PTR __$EHRec$[ebp+8], 74 ; 0000004aH
  00d13	50		 push	 eax
  00d14	8d 4d f0	 lea	 ecx, DWORD PTR _strTemp$[ebp]
  00d17	ff 15 00 00 00
	00		 call	 DWORD PTR __imp_?Mid@?$CStringT@DV?$StrTraitMFC_DLL@DV?$ChTraitsCRT@D@ATL@@@@@ATL@@QBE?AV12@HH@Z
  00d1d	8b f0		 mov	 esi, eax
; File C:\Program Files (x86)\Microsoft Visual Studio\2019\Community\VC\Tools\MSVC\14.29.30133\atlmfc\include\cstringt.h

; 2401 : 		CStringT strResult( str1.GetManager() );

  00d1f	8b ce		 mov	 ecx, esi
; File D:\git\src\IBK\IBK_DRFN\ProjSrc\SrcChartEx\ChartAddIn\ChartPatternAddIn\DlgAnalysis.cpp

; 940  : 		strTitle = strTemp.Mid(4,2) + "/" + strTemp.Mid(6, 2) + "," + strTemp.Mid(8, 2) + ":" + strTemp.Mid(10,2);

  00d21	c6 45 fc 4c	 mov	 BYTE PTR __$EHRec$[ebp+8], 76 ; 0000004cH
; File C:\Program Files (x86)\Microsoft Visual Studio\2019\Community\VC\Tools\MSVC\14.29.30133\atlmfc\include\cstringt.h

; 2401 : 		CStringT strResult( str1.GetManager() );

  00d25	ff 15 00 00 00
	00		 call	 DWORD PTR __imp_?GetManager@?$CStringT@DV?$StrTraitMFC_DLL@DV?$ChTraitsCRT@D@ATL@@@@@ATL@@QBEPAUIAtlStringMgr@2@XZ
  00d2b	50		 push	 eax
  00d2c	8d 4d dc	 lea	 ecx, DWORD PTR $T55[ebp]
  00d2f	ff 15 00 00 00
	00		 call	 DWORD PTR __imp_??0?$CStringT@DV?$StrTraitMFC_DLL@DV?$ChTraitsCRT@D@ATL@@@@@ATL@@QAE@PAUIAtlStringMgr@1@@Z
; File C:\Program Files (x86)\Microsoft Visual Studio\2019\Community\VC\Tools\MSVC\14.29.30133\atlmfc\include\atlsimpstr.h

; 519  : 		return( GetData()->nDataLength );

  00d35	8b 06		 mov	 eax, DWORD PTR [esi]
; File C:\Program Files (x86)\Microsoft Visual Studio\2019\Community\VC\Tools\MSVC\14.29.30133\atlmfc\include\cstringt.h

; 2403 : 		CThisSimpleString::Concatenate( strResult, str1, str1.GetLength(), psz2, CThisSimpleString::StringLength( psz2 ) );

  00d37	6a 01		 push	 1
  00d39	68 00 00 00 00	 push	 OFFSET ??_C@_01KMDKNFGN@?1@

; 2404 : 
; 2405 : 		return( strResult );

  00d3e	c7 45 ec 00 00
	00 04		 mov	 DWORD PTR $T71[ebp], 67108864 ; 04000000H
  00d45	ff 70 f4	 push	 DWORD PTR [eax-12]
  00d48	50		 push	 eax
  00d49	8d 45 dc	 lea	 eax, DWORD PTR $T55[ebp]
  00d4c	50		 push	 eax
  00d4d	ff 15 00 00 00
	00		 call	 DWORD PTR __imp_?Concatenate@?$CSimpleStringT@D$00@ATL@@KAXAAV12@PBDH1H@Z
; File D:\git\src\IBK\IBK_DRFN\ProjSrc\SrcChartEx\ChartAddIn\ChartPatternAddIn\DlgAnalysis.cpp

; 940  : 		strTitle = strTemp.Mid(4,2) + "/" + strTemp.Mid(6, 2) + "," + strTemp.Mid(8, 2) + ":" + strTemp.Mid(10,2);

  00d53	57		 push	 edi
  00d54	8d 45 dc	 lea	 eax, DWORD PTR $T55[ebp]
  00d57	50		 push	 eax
  00d58	8d 45 c4	 lea	 eax, DWORD PTR $T24[ebp]
  00d5b	50		 push	 eax
  00d5c	e8 00 00 00 00	 call	 ??HATL@@YA?AV?$CStringT@DV?$StrTraitMFC_DLL@DV?$ChTraitsCRT@D@ATL@@@@@0@ABV10@0@Z ; ATL::operator+
  00d61	83 c4 20	 add	 esp, 32			; 00000020H
  00d64	8b f0		 mov	 esi, eax
; File C:\Program Files (x86)\Microsoft Visual Studio\2019\Community\VC\Tools\MSVC\14.29.30133\atlmfc\include\cstringt.h

; 2401 : 		CStringT strResult( str1.GetManager() );

  00d66	8b ce		 mov	 ecx, esi
; File D:\git\src\IBK\IBK_DRFN\ProjSrc\SrcChartEx\ChartAddIn\ChartPatternAddIn\DlgAnalysis.cpp

; 940  : 		strTitle = strTemp.Mid(4,2) + "/" + strTemp.Mid(6, 2) + "," + strTemp.Mid(8, 2) + ":" + strTemp.Mid(10,2);

  00d68	c6 45 fc 4e	 mov	 BYTE PTR __$EHRec$[ebp+8], 78 ; 0000004eH
; File C:\Program Files (x86)\Microsoft Visual Studio\2019\Community\VC\Tools\MSVC\14.29.30133\atlmfc\include\cstringt.h

; 2401 : 		CStringT strResult( str1.GetManager() );

  00d6c	ff 15 00 00 00
	00		 call	 DWORD PTR __imp_?GetManager@?$CStringT@DV?$StrTraitMFC_DLL@DV?$ChTraitsCRT@D@ATL@@@@@ATL@@QBEPAUIAtlStringMgr@2@XZ
  00d72	50		 push	 eax
  00d73	8d 4d 14	 lea	 ecx, DWORD PTR $T83[ebp]
  00d76	ff 15 00 00 00
	00		 call	 DWORD PTR __imp_??0?$CStringT@DV?$StrTraitMFC_DLL@DV?$ChTraitsCRT@D@ATL@@@@@ATL@@QAE@PAUIAtlStringMgr@1@@Z
; File C:\Program Files (x86)\Microsoft Visual Studio\2019\Community\VC\Tools\MSVC\14.29.30133\atlmfc\include\atlsimpstr.h

; 519  : 		return( GetData()->nDataLength );

  00d7c	8b 06		 mov	 eax, DWORD PTR [esi]
; File C:\Program Files (x86)\Microsoft Visual Studio\2019\Community\VC\Tools\MSVC\14.29.30133\atlmfc\include\cstringt.h

; 2403 : 		CThisSimpleString::Concatenate( strResult, str1, str1.GetLength(), psz2, CThisSimpleString::StringLength( psz2 ) );

  00d7e	6a 01		 push	 1
  00d80	68 00 00 00 00	 push	 OFFSET ??_C@_01IHBHIGKO@?0@

; 2404 : 
; 2405 : 		return( strResult );

  00d85	c7 45 ec 00 00
	00 0c		 mov	 DWORD PTR $T71[ebp], 201326592 ; 0c000000H
  00d8c	ff 70 f4	 push	 DWORD PTR [eax-12]
  00d8f	50		 push	 eax
  00d90	8d 45 14	 lea	 eax, DWORD PTR $T83[ebp]
  00d93	50		 push	 eax
  00d94	ff 15 00 00 00
	00		 call	 DWORD PTR __imp_?Concatenate@?$CSimpleStringT@D$00@ATL@@KAXAAV12@PBDH1H@Z
; File D:\git\src\IBK\IBK_DRFN\ProjSrc\SrcChartEx\ChartAddIn\ChartPatternAddIn\DlgAnalysis.cpp

; 940  : 		strTitle = strTemp.Mid(4,2) + "/" + strTemp.Mid(6, 2) + "," + strTemp.Mid(8, 2) + ":" + strTemp.Mid(10,2);

  00d9a	53		 push	 ebx
  00d9b	8d 45 14	 lea	 eax, DWORD PTR $T83[ebp]
  00d9e	50		 push	 eax
  00d9f	8d 45 c0	 lea	 eax, DWORD PTR $T15[ebp]
  00da2	50		 push	 eax
  00da3	e8 00 00 00 00	 call	 ??HATL@@YA?AV?$CStringT@DV?$StrTraitMFC_DLL@DV?$ChTraitsCRT@D@ATL@@@@@0@ABV10@0@Z ; ATL::operator+
  00da8	83 c4 20	 add	 esp, 32			; 00000020H
  00dab	8b f0		 mov	 esi, eax
; File C:\Program Files (x86)\Microsoft Visual Studio\2019\Community\VC\Tools\MSVC\14.29.30133\atlmfc\include\cstringt.h

; 2401 : 		CStringT strResult( str1.GetManager() );

  00dad	8b ce		 mov	 ecx, esi
; File D:\git\src\IBK\IBK_DRFN\ProjSrc\SrcChartEx\ChartAddIn\ChartPatternAddIn\DlgAnalysis.cpp

; 940  : 		strTitle = strTemp.Mid(4,2) + "/" + strTemp.Mid(6, 2) + "," + strTemp.Mid(8, 2) + ":" + strTemp.Mid(10,2);

  00daf	c6 45 fc 50	 mov	 BYTE PTR __$EHRec$[ebp+8], 80 ; 00000050H
; File C:\Program Files (x86)\Microsoft Visual Studio\2019\Community\VC\Tools\MSVC\14.29.30133\atlmfc\include\cstringt.h

; 2401 : 		CStringT strResult( str1.GetManager() );

  00db3	ff 15 00 00 00
	00		 call	 DWORD PTR __imp_?GetManager@?$CStringT@DV?$StrTraitMFC_DLL@DV?$ChTraitsCRT@D@ATL@@@@@ATL@@QBEPAUIAtlStringMgr@2@XZ
  00db9	50		 push	 eax
  00dba	8d 4d 0c	 lea	 ecx, DWORD PTR $T73[ebp]
  00dbd	ff 15 00 00 00
	00		 call	 DWORD PTR __imp_??0?$CStringT@DV?$StrTraitMFC_DLL@DV?$ChTraitsCRT@D@ATL@@@@@ATL@@QAE@PAUIAtlStringMgr@1@@Z
; File C:\Program Files (x86)\Microsoft Visual Studio\2019\Community\VC\Tools\MSVC\14.29.30133\atlmfc\include\atlsimpstr.h

; 519  : 		return( GetData()->nDataLength );

  00dc3	8b 06		 mov	 eax, DWORD PTR [esi]
; File C:\Program Files (x86)\Microsoft Visual Studio\2019\Community\VC\Tools\MSVC\14.29.30133\atlmfc\include\cstringt.h

; 2403 : 		CThisSimpleString::Concatenate( strResult, str1, str1.GetLength(), psz2, CThisSimpleString::StringLength( psz2 ) );

  00dc5	6a 01		 push	 1
  00dc7	68 00 00 00 00	 push	 OFFSET ??_C@_01JLIPDDHJ@?3@

; 2404 : 
; 2405 : 		return( strResult );

  00dcc	c7 45 ec 00 00
	00 1c		 mov	 DWORD PTR $T71[ebp], 469762048 ; 1c000000H
  00dd3	ff 70 f4	 push	 DWORD PTR [eax-12]
  00dd6	50		 push	 eax
  00dd7	8d 45 0c	 lea	 eax, DWORD PTR $T73[ebp]
  00dda	50		 push	 eax
  00ddb	ff 15 00 00 00
	00		 call	 DWORD PTR __imp_?Concatenate@?$CSimpleStringT@D$00@ATL@@KAXAAV12@PBDH1H@Z
; File D:\git\src\IBK\IBK_DRFN\ProjSrc\SrcChartEx\ChartAddIn\ChartPatternAddIn\DlgAnalysis.cpp

; 940  : 		strTitle = strTemp.Mid(4,2) + "/" + strTemp.Mid(6, 2) + "," + strTemp.Mid(8, 2) + ":" + strTemp.Mid(10,2);

  00de1	ff 75 b8	 push	 DWORD PTR tv2904[ebp]
  00de4	8d 45 0c	 lea	 eax, DWORD PTR $T73[ebp]
  00de7	50		 push	 eax
  00de8	8d 45 bc	 lea	 eax, DWORD PTR $T7[ebp]
  00deb	50		 push	 eax
  00dec	e8 00 00 00 00	 call	 ??HATL@@YA?AV?$CStringT@DV?$StrTraitMFC_DLL@DV?$ChTraitsCRT@D@ATL@@@@@0@ABV10@0@Z ; ATL::operator+
  00df1	83 c4 20	 add	 esp, 32			; 00000020H
  00df4	c6 45 fc 51	 mov	 BYTE PTR __$EHRec$[ebp+8], 81 ; 00000051H

; 941  : 	}

  00df8	e9 43 fb ff ff	 jmp	 $LN541@SetReportT
$LN16@SetReportT:

; 944  : 		strTitle = strTemp.Left(4) + "-" + strTemp.Mid(4);

  00dfd	6a 04		 push	 4
  00dff	8d 45 bc	 lea	 eax, DWORD PTR $T6[ebp]
  00e02	50		 push	 eax
  00e03	ff 15 00 00 00
	00		 call	 DWORD PTR __imp_?Mid@?$CStringT@DV?$StrTraitMFC_DLL@DV?$ChTraitsCRT@D@ATL@@@@@ATL@@QBE?AV12@H@Z
  00e09	8b f8		 mov	 edi, eax
  00e0b	6a 04		 push	 4
  00e0d	8d 45 b8	 lea	 eax, DWORD PTR $T2[ebp]
  00e10	c6 45 fc 52	 mov	 BYTE PTR __$EHRec$[ebp+8], 82 ; 00000052H
  00e14	50		 push	 eax
  00e15	8d 4d f0	 lea	 ecx, DWORD PTR _strTemp$[ebp]
  00e18	ff 15 00 00 00
	00		 call	 DWORD PTR __imp_?Left@?$CStringT@DV?$StrTraitMFC_DLL@DV?$ChTraitsCRT@D@ATL@@@@@ATL@@QBE?AV12@H@Z
  00e1e	8b f0		 mov	 esi, eax
; File C:\Program Files (x86)\Microsoft Visual Studio\2019\Community\VC\Tools\MSVC\14.29.30133\atlmfc\include\cstringt.h

; 2401 : 		CStringT strResult( str1.GetManager() );

  00e20	8b ce		 mov	 ecx, esi
; File D:\git\src\IBK\IBK_DRFN\ProjSrc\SrcChartEx\ChartAddIn\ChartPatternAddIn\DlgAnalysis.cpp

; 944  : 		strTitle = strTemp.Left(4) + "-" + strTemp.Mid(4);

  00e22	c6 45 fc 54	 mov	 BYTE PTR __$EHRec$[ebp+8], 84 ; 00000054H
; File C:\Program Files (x86)\Microsoft Visual Studio\2019\Community\VC\Tools\MSVC\14.29.30133\atlmfc\include\cstringt.h

; 2401 : 		CStringT strResult( str1.GetManager() );

  00e26	ff 15 00 00 00
	00		 call	 DWORD PTR __imp_?GetManager@?$CStringT@DV?$StrTraitMFC_DLL@DV?$ChTraitsCRT@D@ATL@@@@@ATL@@QBEPAUIAtlStringMgr@2@XZ
  00e2c	50		 push	 eax
  00e2d	8d 4d 0c	 lea	 ecx, DWORD PTR $T72[ebp]
  00e30	ff 15 00 00 00
	00		 call	 DWORD PTR __imp_??0?$CStringT@DV?$StrTraitMFC_DLL@DV?$ChTraitsCRT@D@ATL@@@@@ATL@@QAE@PAUIAtlStringMgr@1@@Z
; File C:\Program Files (x86)\Microsoft Visual Studio\2019\Community\VC\Tools\MSVC\14.29.30133\atlmfc\include\atlsimpstr.h

; 519  : 		return( GetData()->nDataLength );

  00e36	8b 06		 mov	 eax, DWORD PTR [esi]
; File C:\Program Files (x86)\Microsoft Visual Studio\2019\Community\VC\Tools\MSVC\14.29.30133\atlmfc\include\cstringt.h

; 2403 : 		CThisSimpleString::Concatenate( strResult, str1, str1.GetLength(), psz2, CThisSimpleString::StringLength( psz2 ) );

  00e38	6a 01		 push	 1
  00e3a	68 00 00 00 00	 push	 OFFSET ??_C@_01JOAMLHOP@?9@

; 2404 : 
; 2405 : 		return( strResult );

  00e3f	c7 45 ec 00 00
	00 20		 mov	 DWORD PTR $T71[ebp], 536870912 ; 20000000H
  00e46	ff 70 f4	 push	 DWORD PTR [eax-12]
  00e49	50		 push	 eax
  00e4a	8d 45 0c	 lea	 eax, DWORD PTR $T72[ebp]
  00e4d	50		 push	 eax
  00e4e	ff 15 00 00 00
	00		 call	 DWORD PTR __imp_?Concatenate@?$CSimpleStringT@D$00@ATL@@KAXAAV12@PBDH1H@Z
; File D:\git\src\IBK\IBK_DRFN\ProjSrc\SrcChartEx\ChartAddIn\ChartPatternAddIn\DlgAnalysis.cpp

; 944  : 		strTitle = strTemp.Left(4) + "-" + strTemp.Mid(4);

  00e54	57		 push	 edi
  00e55	8d 45 0c	 lea	 eax, DWORD PTR $T72[ebp]
  00e58	50		 push	 eax
  00e59	8d 45 14	 lea	 eax, DWORD PTR $T82[ebp]
  00e5c	50		 push	 eax
  00e5d	e8 00 00 00 00	 call	 ??HATL@@YA?AV?$CStringT@DV?$StrTraitMFC_DLL@DV?$ChTraitsCRT@D@ATL@@@@@0@ABV10@0@Z ; ATL::operator+
  00e62	83 c4 20	 add	 esp, 32			; 00000020H
  00e65	50		 push	 eax
  00e66	8d 4d e8	 lea	 ecx, DWORD PTR _strTitle$[ebp]
  00e69	c6 45 fc 55	 mov	 BYTE PTR __$EHRec$[ebp+8], 85 ; 00000055H
  00e6d	ff 15 00 00 00
	00		 call	 DWORD PTR __imp_??4?$CStringT@DV?$StrTraitMFC_DLL@DV?$ChTraitsCRT@D@ATL@@@@@ATL@@QAEAAV01@ABV01@@Z
  00e73	8d 4d 14	 lea	 ecx, DWORD PTR $T82[ebp]
  00e76	ff 15 00 00 00
	00		 call	 DWORD PTR __imp_??1?$CStringT@DV?$StrTraitMFC_DLL@DV?$ChTraitsCRT@D@ATL@@@@@ATL@@QAE@XZ
  00e7c	8d 4d 0c	 lea	 ecx, DWORD PTR $T72[ebp]
  00e7f	ff 15 00 00 00
	00		 call	 DWORD PTR __imp_??1?$CStringT@DV?$StrTraitMFC_DLL@DV?$ChTraitsCRT@D@ATL@@@@@ATL@@QAE@XZ
  00e85	8d 4d b8	 lea	 ecx, DWORD PTR $T2[ebp]
  00e88	ff 15 00 00 00
	00		 call	 DWORD PTR __imp_??1?$CStringT@DV?$StrTraitMFC_DLL@DV?$ChTraitsCRT@D@ATL@@@@@ATL@@QAE@XZ
  00e8e	8d 4d bc	 lea	 ecx, DWORD PTR $T6[ebp]
$LN539@SetReportT:

; 945  : 	SetDlgItemText( IDC_STATIC_ENDDATE, strTitle);

  00e91	c6 45 fc 01	 mov	 BYTE PTR __$EHRec$[ebp+8], 1
  00e95	ff 15 00 00 00
	00		 call	 DWORD PTR __imp_??1?$CStringT@DV?$StrTraitMFC_DLL@DV?$ChTraitsCRT@D@ATL@@@@@ATL@@QAE@XZ
  00e9b	ff 75 e8	 push	 DWORD PTR _strTitle$[ebp]
  00e9e	8b 4d d8	 mov	 ecx, DWORD PTR _this$1$[ebp]
  00ea1	68 e7 07 00 00	 push	 2023			; 000007e7H
  00ea6	e8 00 00 00 00	 call	 ?SetDlgItemTextA@CWnd@@QAEXHPBD@Z ; CWnd::SetDlgItemTextA

; 946  : 
; 947  : 	strTitle.Format( "%d", nDataCnt);

  00eab	ff 75 18	 push	 DWORD PTR _nDataCnt$[ebp]
  00eae	8d 45 e8	 lea	 eax, DWORD PTR _strTitle$[ebp]
  00eb1	68 00 00 00 00	 push	 OFFSET ??_C@_02DPKJAMEF@?$CFd@
  00eb6	50		 push	 eax
  00eb7	ff 15 00 00 00
	00		 call	 DWORD PTR __imp_?Format@?$CStringT@DV?$StrTraitMFC_DLL@DV?$ChTraitsCRT@D@ATL@@@@@ATL@@QAAXPBDZZ

; 948  : 	SetDlgItemText( IDC_STATIC_DATACNT, strTitle);

  00ebd	8b 4d d8	 mov	 ecx, DWORD PTR _this$1$[ebp]
  00ec0	83 c4 0c	 add	 esp, 12			; 0000000cH
  00ec3	ff 75 e8	 push	 DWORD PTR _strTitle$[ebp]
  00ec6	68 e8 07 00 00	 push	 2024			; 000007e8H
  00ecb	e8 00 00 00 00	 call	 ?SetDlgItemTextA@CWnd@@QAEXHPBD@Z ; CWnd::SetDlgItemTextA

; 949  : }

  00ed0	8d 4d f0	 lea	 ecx, DWORD PTR _strTemp$[ebp]
  00ed3	ff 15 00 00 00
	00		 call	 DWORD PTR __imp_??1?$CStringT@DV?$StrTraitMFC_DLL@DV?$ChTraitsCRT@D@ATL@@@@@ATL@@QAE@XZ
  00ed9	8d 4d e8	 lea	 ecx, DWORD PTR _strTitle$[ebp]
  00edc	ff 15 00 00 00
	00		 call	 DWORD PTR __imp_??1?$CStringT@DV?$StrTraitMFC_DLL@DV?$ChTraitsCRT@D@ATL@@@@@ATL@@QAE@XZ
  00ee2	8b 4d f4	 mov	 ecx, DWORD PTR __$EHRec$[ebp]
  00ee5	64 89 0d 00 00
	00 00		 mov	 DWORD PTR fs:0, ecx
  00eec	59		 pop	 ecx
  00eed	5f		 pop	 edi
  00eee	5e		 pop	 esi
  00eef	5b		 pop	 ebx
  00ef0	8b e5		 mov	 esp, ebp
  00ef2	5d		 pop	 ebp
  00ef3	c2 14 00	 ret	 20			; 00000014H
_TEXT	ENDS
;	COMDAT text$x
text$x	SEGMENT
__unwindfunclet$?SetReportTitleBasicInfo@CDlgAnalysis@@QAEXNNH@Z$0:
  00000	8d 4d e8	 lea	 ecx, DWORD PTR _strTitle$[ebp]
  00003	ff 25 00 00 00
	00		 jmp	 DWORD PTR __imp_??1?$CStringT@DV?$StrTraitMFC_DLL@DV?$ChTraitsCRT@D@ATL@@@@@ATL@@QAE@XZ
__unwindfunclet$?SetReportTitleBasicInfo@CDlgAnalysis@@QAEXNNH@Z$1:
  00009	8d 4d f0	 lea	 ecx, DWORD PTR _strTemp$[ebp]
  0000c	ff 25 00 00 00
	00		 jmp	 DWORD PTR __imp_??1?$CStringT@DV?$StrTraitMFC_DLL@DV?$ChTraitsCRT@D@ATL@@@@@ATL@@QAE@XZ
__unwindfunclet$?SetReportTitleBasicInfo@CDlgAnalysis@@QAEXNNH@Z$2:
  00012	8d 4d bc	 lea	 ecx, DWORD PTR $T14[ebp]
  00015	ff 25 00 00 00
	00		 jmp	 DWORD PTR __imp_??1?$CStringT@DV?$StrTraitMFC_DLL@DV?$ChTraitsCRT@D@ATL@@@@@ATL@@QAE@XZ
__unwindfunclet$?SetReportTitleBasicInfo@CDlgAnalysis@@QAEXNNH@Z$3:
  0001b	8d 4d c0	 lea	 ecx, DWORD PTR $T23[ebp]
  0001e	ff 25 00 00 00
	00		 jmp	 DWORD PTR __imp_??1?$CStringT@DV?$StrTraitMFC_DLL@DV?$ChTraitsCRT@D@ATL@@@@@ATL@@QAE@XZ
__unwindfunclet$?SetReportTitleBasicInfo@CDlgAnalysis@@QAEXNNH@Z$4:
  00024	8d 4d c4	 lea	 ecx, DWORD PTR $T30[ebp]
  00027	ff 25 00 00 00
	00		 jmp	 DWORD PTR __imp_??1?$CStringT@DV?$StrTraitMFC_DLL@DV?$ChTraitsCRT@D@ATL@@@@@ATL@@QAE@XZ
__unwindfunclet$?SetReportTitleBasicInfo@CDlgAnalysis@@QAEXNNH@Z$5:
  0002d	8d 4d c8	 lea	 ecx, DWORD PTR $T36[ebp]
  00030	ff 25 00 00 00
	00		 jmp	 DWORD PTR __imp_??1?$CStringT@DV?$StrTraitMFC_DLL@DV?$ChTraitsCRT@D@ATL@@@@@ATL@@QAE@XZ
__unwindfunclet$?SetReportTitleBasicInfo@CDlgAnalysis@@QAEXNNH@Z$86:
  00036	8b 45 ec	 mov	 eax, DWORD PTR $T71[ebp]
  00039	83 e0 01	 and	 eax, 1
  0003c	0f 84 0d 00 00
	00		 je	 $LN112@SetReportT
  00042	83 65 ec fe	 and	 DWORD PTR $T71[ebp], -2	; fffffffeH
  00046	8d 4d e4	 lea	 ecx, DWORD PTR $T70[ebp]
  00049	ff 25 00 00 00
	00		 jmp	 DWORD PTR __imp_??1?$CStringT@DV?$StrTraitMFC_DLL@DV?$ChTraitsCRT@D@ATL@@@@@ATL@@QAE@XZ
$LN112@SetReportT:
  0004f	c3		 ret	 0
__unwindfunclet$?SetReportTitleBasicInfo@CDlgAnalysis@@QAEXNNH@Z$7:
  00050	8d 4d cc	 lea	 ecx, DWORD PTR $T42[ebp]
  00053	ff 25 00 00 00
	00		 jmp	 DWORD PTR __imp_??1?$CStringT@DV?$StrTraitMFC_DLL@DV?$ChTraitsCRT@D@ATL@@@@@ATL@@QAE@XZ
__unwindfunclet$?SetReportTitleBasicInfo@CDlgAnalysis@@QAEXNNH@Z$87:
  00059	8b 45 ec	 mov	 eax, DWORD PTR $T71[ebp]
  0005c	83 e0 02	 and	 eax, 2
  0005f	0f 84 0d 00 00
	00		 je	 $LN125@SetReportT
  00065	83 65 ec fd	 and	 DWORD PTR $T71[ebp], -3	; fffffffdH
  00069	8d 4d e0	 lea	 ecx, DWORD PTR $T67[ebp]
  0006c	ff 25 00 00 00
	00		 jmp	 DWORD PTR __imp_??1?$CStringT@DV?$StrTraitMFC_DLL@DV?$ChTraitsCRT@D@ATL@@@@@ATL@@QAE@XZ
$LN125@SetReportT:
  00072	c3		 ret	 0
__unwindfunclet$?SetReportTitleBasicInfo@CDlgAnalysis@@QAEXNNH@Z$9:
  00073	8d 4d d0	 lea	 ecx, DWORD PTR $T48[ebp]
  00076	ff 25 00 00 00
	00		 jmp	 DWORD PTR __imp_??1?$CStringT@DV?$StrTraitMFC_DLL@DV?$ChTraitsCRT@D@ATL@@@@@ATL@@QAE@XZ
__unwindfunclet$?SetReportTitleBasicInfo@CDlgAnalysis@@QAEXNNH@Z$88:
  0007c	8b 45 ec	 mov	 eax, DWORD PTR $T71[ebp]
  0007f	83 e0 04	 and	 eax, 4
  00082	0f 84 0d 00 00
	00		 je	 $LN138@SetReportT
  00088	83 65 ec fb	 and	 DWORD PTR $T71[ebp], -5	; fffffffbH
  0008c	8d 4d 0c	 lea	 ecx, DWORD PTR $T81[ebp]
  0008f	ff 25 00 00 00
	00		 jmp	 DWORD PTR __imp_??1?$CStringT@DV?$StrTraitMFC_DLL@DV?$ChTraitsCRT@D@ATL@@@@@ATL@@QAE@XZ
$LN138@SetReportT:
  00095	c3		 ret	 0
__unwindfunclet$?SetReportTitleBasicInfo@CDlgAnalysis@@QAEXNNH@Z$11:
  00096	8d 4d d4	 lea	 ecx, DWORD PTR $T54[ebp]
  00099	ff 25 00 00 00
	00		 jmp	 DWORD PTR __imp_??1?$CStringT@DV?$StrTraitMFC_DLL@DV?$ChTraitsCRT@D@ATL@@@@@ATL@@QAE@XZ
__unwindfunclet$?SetReportTitleBasicInfo@CDlgAnalysis@@QAEXNNH@Z$12:
  0009f	8d 4d c4	 lea	 ecx, DWORD PTR $T29[ebp]
  000a2	ff 25 00 00 00
	00		 jmp	 DWORD PTR __imp_??1?$CStringT@DV?$StrTraitMFC_DLL@DV?$ChTraitsCRT@D@ATL@@@@@ATL@@QAE@XZ
__unwindfunclet$?SetReportTitleBasicInfo@CDlgAnalysis@@QAEXNNH@Z$13:
  000a8	8d 4d c0	 lea	 ecx, DWORD PTR $T22[ebp]
  000ab	ff 25 00 00 00
	00		 jmp	 DWORD PTR __imp_??1?$CStringT@DV?$StrTraitMFC_DLL@DV?$ChTraitsCRT@D@ATL@@@@@ATL@@QAE@XZ
__unwindfunclet$?SetReportTitleBasicInfo@CDlgAnalysis@@QAEXNNH@Z$14:
  000b1	8d 4d bc	 lea	 ecx, DWORD PTR $T13[ebp]
  000b4	ff 25 00 00 00
	00		 jmp	 DWORD PTR __imp_??1?$CStringT@DV?$StrTraitMFC_DLL@DV?$ChTraitsCRT@D@ATL@@@@@ATL@@QAE@XZ
__unwindfunclet$?SetReportTitleBasicInfo@CDlgAnalysis@@QAEXNNH@Z$89:
  000ba	8b 45 ec	 mov	 eax, DWORD PTR $T71[ebp]
  000bd	83 e0 08	 and	 eax, 8
  000c0	0f 84 0d 00 00
	00		 je	 $LN151@SetReportT
  000c6	83 65 ec f7	 and	 DWORD PTR $T71[ebp], -9	; fffffff7H
  000ca	8d 4d e0	 lea	 ecx, DWORD PTR $T66[ebp]
  000cd	ff 25 00 00 00
	00		 jmp	 DWORD PTR __imp_??1?$CStringT@DV?$StrTraitMFC_DLL@DV?$ChTraitsCRT@D@ATL@@@@@ATL@@QAE@XZ
$LN151@SetReportT:
  000d3	c3		 ret	 0
__unwindfunclet$?SetReportTitleBasicInfo@CDlgAnalysis@@QAEXNNH@Z$90:
  000d4	8b 45 ec	 mov	 eax, DWORD PTR $T71[ebp]
  000d7	83 e0 10	 and	 eax, 16			; 00000010H
  000da	0f 84 0d 00 00
	00		 je	 $LN164@SetReportT
  000e0	83 65 ec ef	 and	 DWORD PTR $T71[ebp], -17 ; ffffffefH
  000e4	8d 4d e4	 lea	 ecx, DWORD PTR $T69[ebp]
  000e7	ff 25 00 00 00
	00		 jmp	 DWORD PTR __imp_??1?$CStringT@DV?$StrTraitMFC_DLL@DV?$ChTraitsCRT@D@ATL@@@@@ATL@@QAE@XZ
$LN164@SetReportT:
  000ed	c3		 ret	 0
__unwindfunclet$?SetReportTitleBasicInfo@CDlgAnalysis@@QAEXNNH@Z$91:
  000ee	8b 45 ec	 mov	 eax, DWORD PTR $T71[ebp]
  000f1	83 e0 20	 and	 eax, 32			; 00000020H
  000f4	0f 84 0d 00 00
	00		 je	 $LN180@SetReportT
  000fa	83 65 ec df	 and	 DWORD PTR $T71[ebp], -33 ; ffffffdfH
  000fe	8d 4d 0c	 lea	 ecx, DWORD PTR $T80[ebp]
  00101	ff 25 00 00 00
	00		 jmp	 DWORD PTR __imp_??1?$CStringT@DV?$StrTraitMFC_DLL@DV?$ChTraitsCRT@D@ATL@@@@@ATL@@QAE@XZ
$LN180@SetReportT:
  00107	c3		 ret	 0
__unwindfunclet$?SetReportTitleBasicInfo@CDlgAnalysis@@QAEXNNH@Z$92:
  00108	8b 45 ec	 mov	 eax, DWORD PTR $T71[ebp]
  0010b	83 e0 40	 and	 eax, 64			; 00000040H
  0010e	0f 84 0d 00 00
	00		 je	 $LN193@SetReportT
  00114	83 65 ec bf	 and	 DWORD PTR $T71[ebp], -65 ; ffffffbfH
  00118	8d 4d dc	 lea	 ecx, DWORD PTR $T61[ebp]
  0011b	ff 25 00 00 00
	00		 jmp	 DWORD PTR __imp_??1?$CStringT@DV?$StrTraitMFC_DLL@DV?$ChTraitsCRT@D@ATL@@@@@ATL@@QAE@XZ
$LN193@SetReportT:
  00121	c3		 ret	 0
__unwindfunclet$?SetReportTitleBasicInfo@CDlgAnalysis@@QAEXNNH@Z$19:
  00122	8d 4d b8	 lea	 ecx, DWORD PTR $T5[ebp]
  00125	ff 25 00 00 00
	00		 jmp	 DWORD PTR __imp_??1?$CStringT@DV?$StrTraitMFC_DLL@DV?$ChTraitsCRT@D@ATL@@@@@ATL@@QAE@XZ
__unwindfunclet$?SetReportTitleBasicInfo@CDlgAnalysis@@QAEXNNH@Z$20:
  0012b	8d 4d d4	 lea	 ecx, DWORD PTR $T53[ebp]
  0012e	ff 25 00 00 00
	00		 jmp	 DWORD PTR __imp_??1?$CStringT@DV?$StrTraitMFC_DLL@DV?$ChTraitsCRT@D@ATL@@@@@ATL@@QAE@XZ
__unwindfunclet$?SetReportTitleBasicInfo@CDlgAnalysis@@QAEXNNH@Z$21:
  00134	8d 4d d0	 lea	 ecx, DWORD PTR $T47[ebp]
  00137	ff 25 00 00 00
	00		 jmp	 DWORD PTR __imp_??1?$CStringT@DV?$StrTraitMFC_DLL@DV?$ChTraitsCRT@D@ATL@@@@@ATL@@QAE@XZ
__unwindfunclet$?SetReportTitleBasicInfo@CDlgAnalysis@@QAEXNNH@Z$22:
  0013d	8d 4d cc	 lea	 ecx, DWORD PTR $T41[ebp]
  00140	ff 25 00 00 00
	00		 jmp	 DWORD PTR __imp_??1?$CStringT@DV?$StrTraitMFC_DLL@DV?$ChTraitsCRT@D@ATL@@@@@ATL@@QAE@XZ
__unwindfunclet$?SetReportTitleBasicInfo@CDlgAnalysis@@QAEXNNH@Z$93:
  00146	8b 45 ec	 mov	 eax, DWORD PTR $T71[ebp]
  00149	25 80 00 00 00	 and	 eax, 128		; 00000080H
  0014e	0f 84 10 00 00
	00		 je	 $LN213@SetReportT
  00154	81 65 ec 7f ff
	ff ff		 and	 DWORD PTR $T71[ebp], -129 ; ffffff7fH
  0015b	8d 4d 0c	 lea	 ecx, DWORD PTR $T79[ebp]
  0015e	ff 25 00 00 00
	00		 jmp	 DWORD PTR __imp_??1?$CStringT@DV?$StrTraitMFC_DLL@DV?$ChTraitsCRT@D@ATL@@@@@ATL@@QAE@XZ
$LN213@SetReportT:
  00164	c3		 ret	 0
__unwindfunclet$?SetReportTitleBasicInfo@CDlgAnalysis@@QAEXNNH@Z$94:
  00165	8b 45 ec	 mov	 eax, DWORD PTR $T71[ebp]
  00168	25 00 01 00 00	 and	 eax, 256		; 00000100H
  0016d	0f 84 10 00 00
	00		 je	 $LN226@SetReportT
  00173	81 65 ec ff fe
	ff ff		 and	 DWORD PTR $T71[ebp], -257 ; fffffeffH
  0017a	8d 4d e4	 lea	 ecx, DWORD PTR $T68[ebp]
  0017d	ff 25 00 00 00
	00		 jmp	 DWORD PTR __imp_??1?$CStringT@DV?$StrTraitMFC_DLL@DV?$ChTraitsCRT@D@ATL@@@@@ATL@@QAE@XZ
$LN226@SetReportT:
  00183	c3		 ret	 0
__unwindfunclet$?SetReportTitleBasicInfo@CDlgAnalysis@@QAEXNNH@Z$25:
  00184	8d 4d c8	 lea	 ecx, DWORD PTR $T35[ebp]
  00187	ff 25 00 00 00
	00		 jmp	 DWORD PTR __imp_??1?$CStringT@DV?$StrTraitMFC_DLL@DV?$ChTraitsCRT@D@ATL@@@@@ATL@@QAE@XZ
__unwindfunclet$?SetReportTitleBasicInfo@CDlgAnalysis@@QAEXNNH@Z$95:
  0018d	8b 45 ec	 mov	 eax, DWORD PTR $T71[ebp]
  00190	25 00 02 00 00	 and	 eax, 512		; 00000200H
  00195	0f 84 10 00 00
	00		 je	 $LN239@SetReportT
  0019b	81 65 ec ff fd
	ff ff		 and	 DWORD PTR $T71[ebp], -513 ; fffffdffH
  001a2	8d 4d e0	 lea	 ecx, DWORD PTR $T65[ebp]
  001a5	ff 25 00 00 00
	00		 jmp	 DWORD PTR __imp_??1?$CStringT@DV?$StrTraitMFC_DLL@DV?$ChTraitsCRT@D@ATL@@@@@ATL@@QAE@XZ
$LN239@SetReportT:
  001ab	c3		 ret	 0
__unwindfunclet$?SetReportTitleBasicInfo@CDlgAnalysis@@QAEXNNH@Z$27:
  001ac	8d 4d c4	 lea	 ecx, DWORD PTR $T28[ebp]
  001af	ff 25 00 00 00
	00		 jmp	 DWORD PTR __imp_??1?$CStringT@DV?$StrTraitMFC_DLL@DV?$ChTraitsCRT@D@ATL@@@@@ATL@@QAE@XZ
__unwindfunclet$?SetReportTitleBasicInfo@CDlgAnalysis@@QAEXNNH@Z$96:
  001b5	8b 45 ec	 mov	 eax, DWORD PTR $T71[ebp]
  001b8	25 00 04 00 00	 and	 eax, 1024		; 00000400H
  001bd	0f 84 10 00 00
	00		 je	 $LN252@SetReportT
  001c3	81 65 ec ff fb
	ff ff		 and	 DWORD PTR $T71[ebp], -1025 ; fffffbffH
  001ca	8d 4d dc	 lea	 ecx, DWORD PTR $T60[ebp]
  001cd	ff 25 00 00 00
	00		 jmp	 DWORD PTR __imp_??1?$CStringT@DV?$StrTraitMFC_DLL@DV?$ChTraitsCRT@D@ATL@@@@@ATL@@QAE@XZ
$LN252@SetReportT:
  001d3	c3		 ret	 0
__unwindfunclet$?SetReportTitleBasicInfo@CDlgAnalysis@@QAEXNNH@Z$29:
  001d4	8d 4d c0	 lea	 ecx, DWORD PTR $T21[ebp]
  001d7	ff 25 00 00 00
	00		 jmp	 DWORD PTR __imp_??1?$CStringT@DV?$StrTraitMFC_DLL@DV?$ChTraitsCRT@D@ATL@@@@@ATL@@QAE@XZ
__unwindfunclet$?SetReportTitleBasicInfo@CDlgAnalysis@@QAEXNNH@Z$30:
  001dd	8d 4d d4	 lea	 ecx, DWORD PTR $T52[ebp]
  001e0	ff 25 00 00 00
	00		 jmp	 DWORD PTR __imp_??1?$CStringT@DV?$StrTraitMFC_DLL@DV?$ChTraitsCRT@D@ATL@@@@@ATL@@QAE@XZ
__unwindfunclet$?SetReportTitleBasicInfo@CDlgAnalysis@@QAEXNNH@Z$31:
  001e6	8d 4d d0	 lea	 ecx, DWORD PTR $T46[ebp]
  001e9	ff 25 00 00 00
	00		 jmp	 DWORD PTR __imp_??1?$CStringT@DV?$StrTraitMFC_DLL@DV?$ChTraitsCRT@D@ATL@@@@@ATL@@QAE@XZ
__unwindfunclet$?SetReportTitleBasicInfo@CDlgAnalysis@@QAEXNNH@Z$32:
  001ef	8d 4d cc	 lea	 ecx, DWORD PTR $T40[ebp]
  001f2	ff 25 00 00 00
	00		 jmp	 DWORD PTR __imp_??1?$CStringT@DV?$StrTraitMFC_DLL@DV?$ChTraitsCRT@D@ATL@@@@@ATL@@QAE@XZ
__unwindfunclet$?SetReportTitleBasicInfo@CDlgAnalysis@@QAEXNNH@Z$33:
  001f8	8d 4d c8	 lea	 ecx, DWORD PTR $T34[ebp]
  001fb	ff 25 00 00 00
	00		 jmp	 DWORD PTR __imp_??1?$CStringT@DV?$StrTraitMFC_DLL@DV?$ChTraitsCRT@D@ATL@@@@@ATL@@QAE@XZ
__unwindfunclet$?SetReportTitleBasicInfo@CDlgAnalysis@@QAEXNNH@Z$97:
  00201	8b 45 ec	 mov	 eax, DWORD PTR $T71[ebp]
  00204	25 00 08 00 00	 and	 eax, 2048		; 00000800H
  00209	0f 84 10 00 00
	00		 je	 $LN269@SetReportT
  0020f	81 65 ec ff f7
	ff ff		 and	 DWORD PTR $T71[ebp], -2049 ; fffff7ffH
  00216	8d 4d e0	 lea	 ecx, DWORD PTR $T64[ebp]
  00219	ff 25 00 00 00
	00		 jmp	 DWORD PTR __imp_??1?$CStringT@DV?$StrTraitMFC_DLL@DV?$ChTraitsCRT@D@ATL@@@@@ATL@@QAE@XZ
$LN269@SetReportT:
  0021f	c3		 ret	 0
__unwindfunclet$?SetReportTitleBasicInfo@CDlgAnalysis@@QAEXNNH@Z$35:
  00220	8d 4d c4	 lea	 ecx, DWORD PTR $T27[ebp]
  00223	ff 25 00 00 00
	00		 jmp	 DWORD PTR __imp_??1?$CStringT@DV?$StrTraitMFC_DLL@DV?$ChTraitsCRT@D@ATL@@@@@ATL@@QAE@XZ
__unwindfunclet$?SetReportTitleBasicInfo@CDlgAnalysis@@QAEXNNH@Z$98:
  00229	8b 45 ec	 mov	 eax, DWORD PTR $T71[ebp]
  0022c	25 00 10 00 00	 and	 eax, 4096		; 00001000H
  00231	0f 84 10 00 00
	00		 je	 $LN282@SetReportT
  00237	81 65 ec ff ef
	ff ff		 and	 DWORD PTR $T71[ebp], -4097 ; ffffefffH
  0023e	8d 4d dc	 lea	 ecx, DWORD PTR $T59[ebp]
  00241	ff 25 00 00 00
	00		 jmp	 DWORD PTR __imp_??1?$CStringT@DV?$StrTraitMFC_DLL@DV?$ChTraitsCRT@D@ATL@@@@@ATL@@QAE@XZ
$LN282@SetReportT:
  00247	c3		 ret	 0
__unwindfunclet$?SetReportTitleBasicInfo@CDlgAnalysis@@QAEXNNH@Z$37:
  00248	8d 4d c0	 lea	 ecx, DWORD PTR $T20[ebp]
  0024b	ff 25 00 00 00
	00		 jmp	 DWORD PTR __imp_??1?$CStringT@DV?$StrTraitMFC_DLL@DV?$ChTraitsCRT@D@ATL@@@@@ATL@@QAE@XZ
__unwindfunclet$?SetReportTitleBasicInfo@CDlgAnalysis@@QAEXNNH@Z$99:
  00251	8b 45 ec	 mov	 eax, DWORD PTR $T71[ebp]
  00254	25 00 20 00 00	 and	 eax, 8192		; 00002000H
  00259	0f 84 10 00 00
	00		 je	 $LN295@SetReportT
  0025f	81 65 ec ff df
	ff ff		 and	 DWORD PTR $T71[ebp], -8193 ; ffffdfffH
  00266	8d 4d 0c	 lea	 ecx, DWORD PTR $T78[ebp]
  00269	ff 25 00 00 00
	00		 jmp	 DWORD PTR __imp_??1?$CStringT@DV?$StrTraitMFC_DLL@DV?$ChTraitsCRT@D@ATL@@@@@ATL@@QAE@XZ
$LN295@SetReportT:
  0026f	c3		 ret	 0
__unwindfunclet$?SetReportTitleBasicInfo@CDlgAnalysis@@QAEXNNH@Z$39:
  00270	8d 4d bc	 lea	 ecx, DWORD PTR $T12[ebp]
  00273	ff 25 00 00 00
	00		 jmp	 DWORD PTR __imp_??1?$CStringT@DV?$StrTraitMFC_DLL@DV?$ChTraitsCRT@D@ATL@@@@@ATL@@QAE@XZ
__unwindfunclet$?SetReportTitleBasicInfo@CDlgAnalysis@@QAEXNNH@Z$40:
  00279	8d 4d c0	 lea	 ecx, DWORD PTR $T19[ebp]
  0027c	ff 25 00 00 00
	00		 jmp	 DWORD PTR __imp_??1?$CStringT@DV?$StrTraitMFC_DLL@DV?$ChTraitsCRT@D@ATL@@@@@ATL@@QAE@XZ
__unwindfunclet$?SetReportTitleBasicInfo@CDlgAnalysis@@QAEXNNH@Z$41:
  00282	8d 4d bc	 lea	 ecx, DWORD PTR $T11[ebp]
  00285	ff 25 00 00 00
	00		 jmp	 DWORD PTR __imp_??1?$CStringT@DV?$StrTraitMFC_DLL@DV?$ChTraitsCRT@D@ATL@@@@@ATL@@QAE@XZ
__unwindfunclet$?SetReportTitleBasicInfo@CDlgAnalysis@@QAEXNNH@Z$100:
  0028b	8b 45 ec	 mov	 eax, DWORD PTR $T71[ebp]
  0028e	25 00 40 00 00	 and	 eax, 16384		; 00004000H
  00293	0f 84 10 00 00
	00		 je	 $LN308@SetReportT
  00299	81 65 ec ff bf
	ff ff		 and	 DWORD PTR $T71[ebp], -16385 ; ffffbfffH
  002a0	8d 4d 0c	 lea	 ecx, DWORD PTR $T77[ebp]
  002a3	ff 25 00 00 00
	00		 jmp	 DWORD PTR __imp_??1?$CStringT@DV?$StrTraitMFC_DLL@DV?$ChTraitsCRT@D@ATL@@@@@ATL@@QAE@XZ
$LN308@SetReportT:
  002a9	c3		 ret	 0
__unwindfunclet$?SetReportTitleBasicInfo@CDlgAnalysis@@QAEXNNH@Z$43:
  002aa	8d 4d b8	 lea	 ecx, DWORD PTR $T4[ebp]
  002ad	ff 25 00 00 00
	00		 jmp	 DWORD PTR __imp_??1?$CStringT@DV?$StrTraitMFC_DLL@DV?$ChTraitsCRT@D@ATL@@@@@ATL@@QAE@XZ
__unwindfunclet$?SetReportTitleBasicInfo@CDlgAnalysis@@QAEXNNH@Z$44:
  002b3	8d 4d d4	 lea	 ecx, DWORD PTR $T51[ebp]
  002b6	ff 25 00 00 00
	00		 jmp	 DWORD PTR __imp_??1?$CStringT@DV?$StrTraitMFC_DLL@DV?$ChTraitsCRT@D@ATL@@@@@ATL@@QAE@XZ
__unwindfunclet$?SetReportTitleBasicInfo@CDlgAnalysis@@QAEXNNH@Z$45:
  002bc	8d 4d d0	 lea	 ecx, DWORD PTR $T45[ebp]
  002bf	ff 25 00 00 00
	00		 jmp	 DWORD PTR __imp_??1?$CStringT@DV?$StrTraitMFC_DLL@DV?$ChTraitsCRT@D@ATL@@@@@ATL@@QAE@XZ
__unwindfunclet$?SetReportTitleBasicInfo@CDlgAnalysis@@QAEXNNH@Z$46:
  002c5	8d 4d cc	 lea	 ecx, DWORD PTR $T39[ebp]
  002c8	ff 25 00 00 00
	00		 jmp	 DWORD PTR __imp_??1?$CStringT@DV?$StrTraitMFC_DLL@DV?$ChTraitsCRT@D@ATL@@@@@ATL@@QAE@XZ
__unwindfunclet$?SetReportTitleBasicInfo@CDlgAnalysis@@QAEXNNH@Z$47:
  002ce	8d 4d c8	 lea	 ecx, DWORD PTR $T33[ebp]
  002d1	ff 25 00 00 00
	00		 jmp	 DWORD PTR __imp_??1?$CStringT@DV?$StrTraitMFC_DLL@DV?$ChTraitsCRT@D@ATL@@@@@ATL@@QAE@XZ
__unwindfunclet$?SetReportTitleBasicInfo@CDlgAnalysis@@QAEXNNH@Z$101:
  002d7	8b 45 ec	 mov	 eax, DWORD PTR $T71[ebp]
  002da	25 00 80 00 00	 and	 eax, 32768		; 00008000H
  002df	0f 84 10 00 00
	00		 je	 $LN327@SetReportT
  002e5	81 65 ec ff 7f
	ff ff		 and	 DWORD PTR $T71[ebp], -32769 ; ffff7fffH
  002ec	8d 4d dc	 lea	 ecx, DWORD PTR $T58[ebp]
  002ef	ff 25 00 00 00
	00		 jmp	 DWORD PTR __imp_??1?$CStringT@DV?$StrTraitMFC_DLL@DV?$ChTraitsCRT@D@ATL@@@@@ATL@@QAE@XZ
$LN327@SetReportT:
  002f5	c3		 ret	 0
__unwindfunclet$?SetReportTitleBasicInfo@CDlgAnalysis@@QAEXNNH@Z$49:
  002f6	8d 4d c4	 lea	 ecx, DWORD PTR $T26[ebp]
  002f9	ff 25 00 00 00
	00		 jmp	 DWORD PTR __imp_??1?$CStringT@DV?$StrTraitMFC_DLL@DV?$ChTraitsCRT@D@ATL@@@@@ATL@@QAE@XZ
__unwindfunclet$?SetReportTitleBasicInfo@CDlgAnalysis@@QAEXNNH@Z$102:
  002ff	8b 45 ec	 mov	 eax, DWORD PTR $T71[ebp]
  00302	25 00 00 01 00	 and	 eax, 65536		; 00010000H
  00307	0f 84 10 00 00
	00		 je	 $LN340@SetReportT
  0030d	81 65 ec ff ff
	fe ff		 and	 DWORD PTR $T71[ebp], -65537 ; fffeffffH
  00314	8d 4d 14	 lea	 ecx, DWORD PTR $T86[ebp]
  00317	ff 25 00 00 00
	00		 jmp	 DWORD PTR __imp_??1?$CStringT@DV?$StrTraitMFC_DLL@DV?$ChTraitsCRT@D@ATL@@@@@ATL@@QAE@XZ
$LN340@SetReportT:
  0031d	c3		 ret	 0
__unwindfunclet$?SetReportTitleBasicInfo@CDlgAnalysis@@QAEXNNH@Z$51:
  0031e	8d 4d c0	 lea	 ecx, DWORD PTR $T18[ebp]
  00321	ff 25 00 00 00
	00		 jmp	 DWORD PTR __imp_??1?$CStringT@DV?$StrTraitMFC_DLL@DV?$ChTraitsCRT@D@ATL@@@@@ATL@@QAE@XZ
__unwindfunclet$?SetReportTitleBasicInfo@CDlgAnalysis@@QAEXNNH@Z$103:
  00327	8b 45 ec	 mov	 eax, DWORD PTR $T71[ebp]
  0032a	25 00 00 02 00	 and	 eax, 131072		; 00020000H
  0032f	0f 84 10 00 00
	00		 je	 $LN353@SetReportT
  00335	81 65 ec ff ff
	fd ff		 and	 DWORD PTR $T71[ebp], -131073 ; fffdffffH
  0033c	8d 4d 0c	 lea	 ecx, DWORD PTR $T76[ebp]
  0033f	ff 25 00 00 00
	00		 jmp	 DWORD PTR __imp_??1?$CStringT@DV?$StrTraitMFC_DLL@DV?$ChTraitsCRT@D@ATL@@@@@ATL@@QAE@XZ
$LN353@SetReportT:
  00345	c3		 ret	 0
__unwindfunclet$?SetReportTitleBasicInfo@CDlgAnalysis@@QAEXNNH@Z$53:
  00346	8d 4d bc	 lea	 ecx, DWORD PTR $T10[ebp]
  00349	ff 25 00 00 00
	00		 jmp	 DWORD PTR __imp_??1?$CStringT@DV?$StrTraitMFC_DLL@DV?$ChTraitsCRT@D@ATL@@@@@ATL@@QAE@XZ
__unwindfunclet$?SetReportTitleBasicInfo@CDlgAnalysis@@QAEXNNH@Z$54:
  0034f	8d 4d c0	 lea	 ecx, DWORD PTR $T17[ebp]
  00352	ff 25 00 00 00
	00		 jmp	 DWORD PTR __imp_??1?$CStringT@DV?$StrTraitMFC_DLL@DV?$ChTraitsCRT@D@ATL@@@@@ATL@@QAE@XZ
__unwindfunclet$?SetReportTitleBasicInfo@CDlgAnalysis@@QAEXNNH@Z$55:
  00358	8d 4d bc	 lea	 ecx, DWORD PTR $T9[ebp]
  0035b	ff 25 00 00 00
	00		 jmp	 DWORD PTR __imp_??1?$CStringT@DV?$StrTraitMFC_DLL@DV?$ChTraitsCRT@D@ATL@@@@@ATL@@QAE@XZ
__unwindfunclet$?SetReportTitleBasicInfo@CDlgAnalysis@@QAEXNNH@Z$56:
  00361	8d 4d b8	 lea	 ecx, DWORD PTR $T3[ebp]
  00364	ff 25 00 00 00
	00		 jmp	 DWORD PTR __imp_??1?$CStringT@DV?$StrTraitMFC_DLL@DV?$ChTraitsCRT@D@ATL@@@@@ATL@@QAE@XZ
__unwindfunclet$?SetReportTitleBasicInfo@CDlgAnalysis@@QAEXNNH@Z$104:
  0036a	8b 45 ec	 mov	 eax, DWORD PTR $T71[ebp]
  0036d	25 00 00 04 00	 and	 eax, 262144		; 00040000H
  00372	0f 84 10 00 00
	00		 je	 $LN366@SetReportT
  00378	81 65 ec ff ff
	fb ff		 and	 DWORD PTR $T71[ebp], -262145 ; fffbffffH
  0037f	8d 4d e0	 lea	 ecx, DWORD PTR $T63[ebp]
  00382	ff 25 00 00 00
	00		 jmp	 DWORD PTR __imp_??1?$CStringT@DV?$StrTraitMFC_DLL@DV?$ChTraitsCRT@D@ATL@@@@@ATL@@QAE@XZ
$LN366@SetReportT:
  00388	c3		 ret	 0
__unwindfunclet$?SetReportTitleBasicInfo@CDlgAnalysis@@QAEXNNH@Z$105:
  00389	8b 45 ec	 mov	 eax, DWORD PTR $T71[ebp]
  0038c	25 00 00 08 00	 and	 eax, 524288		; 00080000H
  00391	0f 84 10 00 00
	00		 je	 $LN379@SetReportT
  00397	81 65 ec ff ff
	f7 ff		 and	 DWORD PTR $T71[ebp], -524289 ; fff7ffffH
  0039e	8d 4d 14	 lea	 ecx, DWORD PTR $T85[ebp]
  003a1	ff 25 00 00 00
	00		 jmp	 DWORD PTR __imp_??1?$CStringT@DV?$StrTraitMFC_DLL@DV?$ChTraitsCRT@D@ATL@@@@@ATL@@QAE@XZ
$LN379@SetReportT:
  003a7	c3		 ret	 0
__unwindfunclet$?SetReportTitleBasicInfo@CDlgAnalysis@@QAEXNNH@Z$106:
  003a8	8b 45 ec	 mov	 eax, DWORD PTR $T71[ebp]
  003ab	25 00 00 10 00	 and	 eax, 1048576		; 00100000H
  003b0	0f 84 10 00 00
	00		 je	 $LN395@SetReportT
  003b6	81 65 ec ff ff
	ef ff		 and	 DWORD PTR $T71[ebp], -1048577 ; ffefffffH
  003bd	8d 4d 0c	 lea	 ecx, DWORD PTR $T75[ebp]
  003c0	ff 25 00 00 00
	00		 jmp	 DWORD PTR __imp_??1?$CStringT@DV?$StrTraitMFC_DLL@DV?$ChTraitsCRT@D@ATL@@@@@ATL@@QAE@XZ
$LN395@SetReportT:
  003c6	c3		 ret	 0
__unwindfunclet$?SetReportTitleBasicInfo@CDlgAnalysis@@QAEXNNH@Z$107:
  003c7	8b 45 ec	 mov	 eax, DWORD PTR $T71[ebp]
  003ca	25 00 00 20 00	 and	 eax, 2097152		; 00200000H
  003cf	0f 84 10 00 00
	00		 je	 $LN408@SetReportT
  003d5	81 65 ec ff ff
	df ff		 and	 DWORD PTR $T71[ebp], -2097153 ; ffdfffffH
  003dc	8d 4d dc	 lea	 ecx, DWORD PTR $T57[ebp]
  003df	ff 25 00 00 00
	00		 jmp	 DWORD PTR __imp_??1?$CStringT@DV?$StrTraitMFC_DLL@DV?$ChTraitsCRT@D@ATL@@@@@ATL@@QAE@XZ
$LN408@SetReportT:
  003e5	c3		 ret	 0
__unwindfunclet$?SetReportTitleBasicInfo@CDlgAnalysis@@QAEXNNH@Z$61:
  003e6	8d 4d d4	 lea	 ecx, DWORD PTR $T50[ebp]
  003e9	ff 25 00 00 00
	00		 jmp	 DWORD PTR __imp_??1?$CStringT@DV?$StrTraitMFC_DLL@DV?$ChTraitsCRT@D@ATL@@@@@ATL@@QAE@XZ
__unwindfunclet$?SetReportTitleBasicInfo@CDlgAnalysis@@QAEXNNH@Z$62:
  003ef	8d 4d d0	 lea	 ecx, DWORD PTR $T44[ebp]
  003f2	ff 25 00 00 00
	00		 jmp	 DWORD PTR __imp_??1?$CStringT@DV?$StrTraitMFC_DLL@DV?$ChTraitsCRT@D@ATL@@@@@ATL@@QAE@XZ
__unwindfunclet$?SetReportTitleBasicInfo@CDlgAnalysis@@QAEXNNH@Z$63:
  003f8	8d 4d cc	 lea	 ecx, DWORD PTR $T38[ebp]
  003fb	ff 25 00 00 00
	00		 jmp	 DWORD PTR __imp_??1?$CStringT@DV?$StrTraitMFC_DLL@DV?$ChTraitsCRT@D@ATL@@@@@ATL@@QAE@XZ
__unwindfunclet$?SetReportTitleBasicInfo@CDlgAnalysis@@QAEXNNH@Z$64:
  00401	8d 4d c8	 lea	 ecx, DWORD PTR $T32[ebp]
  00404	ff 25 00 00 00
	00		 jmp	 DWORD PTR __imp_??1?$CStringT@DV?$StrTraitMFC_DLL@DV?$ChTraitsCRT@D@ATL@@@@@ATL@@QAE@XZ
__unwindfunclet$?SetReportTitleBasicInfo@CDlgAnalysis@@QAEXNNH@Z$108:
  0040a	8b 45 ec	 mov	 eax, DWORD PTR $T71[ebp]
  0040d	25 00 00 40 00	 and	 eax, 4194304		; 00400000H
  00412	0f 84 10 00 00
	00		 je	 $LN428@SetReportT
  00418	81 65 ec ff ff
	bf ff		 and	 DWORD PTR $T71[ebp], -4194305 ; ffbfffffH
  0041f	8d 4d 0c	 lea	 ecx, DWORD PTR $T74[ebp]
  00422	ff 25 00 00 00
	00		 jmp	 DWORD PTR __imp_??1?$CStringT@DV?$StrTraitMFC_DLL@DV?$ChTraitsCRT@D@ATL@@@@@ATL@@QAE@XZ
$LN428@SetReportT:
  00428	c3		 ret	 0
__unwindfunclet$?SetReportTitleBasicInfo@CDlgAnalysis@@QAEXNNH@Z$109:
  00429	8b 45 ec	 mov	 eax, DWORD PTR $T71[ebp]
  0042c	25 00 00 80 00	 and	 eax, 8388608		; 00800000H
  00431	0f 84 10 00 00
	00		 je	 $LN441@SetReportT
  00437	81 65 ec ff ff
	7f ff		 and	 DWORD PTR $T71[ebp], -8388609 ; ff7fffffH
  0043e	8d 4d e0	 lea	 ecx, DWORD PTR $T62[ebp]
  00441	ff 25 00 00 00
	00		 jmp	 DWORD PTR __imp_??1?$CStringT@DV?$StrTraitMFC_DLL@DV?$ChTraitsCRT@D@ATL@@@@@ATL@@QAE@XZ
$LN441@SetReportT:
  00447	c3		 ret	 0
__unwindfunclet$?SetReportTitleBasicInfo@CDlgAnalysis@@QAEXNNH@Z$67:
  00448	8d 4d c4	 lea	 ecx, DWORD PTR $T25[ebp]
  0044b	ff 25 00 00 00
	00		 jmp	 DWORD PTR __imp_??1?$CStringT@DV?$StrTraitMFC_DLL@DV?$ChTraitsCRT@D@ATL@@@@@ATL@@QAE@XZ
__unwindfunclet$?SetReportTitleBasicInfo@CDlgAnalysis@@QAEXNNH@Z$110:
  00451	8b 45 ec	 mov	 eax, DWORD PTR $T71[ebp]
  00454	25 00 00 00 01	 and	 eax, 16777216		; 01000000H
  00459	0f 84 10 00 00
	00		 je	 $LN454@SetReportT
  0045f	81 65 ec ff ff
	ff fe		 and	 DWORD PTR $T71[ebp], -16777217 ; feffffffH
  00466	8d 4d dc	 lea	 ecx, DWORD PTR $T56[ebp]
  00469	ff 25 00 00 00
	00		 jmp	 DWORD PTR __imp_??1?$CStringT@DV?$StrTraitMFC_DLL@DV?$ChTraitsCRT@D@ATL@@@@@ATL@@QAE@XZ
$LN454@SetReportT:
  0046f	c3		 ret	 0
__unwindfunclet$?SetReportTitleBasicInfo@CDlgAnalysis@@QAEXNNH@Z$69:
  00470	8d 4d c0	 lea	 ecx, DWORD PTR $T16[ebp]
  00473	ff 25 00 00 00
	00		 jmp	 DWORD PTR __imp_??1?$CStringT@DV?$StrTraitMFC_DLL@DV?$ChTraitsCRT@D@ATL@@@@@ATL@@QAE@XZ
__unwindfunclet$?SetReportTitleBasicInfo@CDlgAnalysis@@QAEXNNH@Z$111:
  00479	8b 45 ec	 mov	 eax, DWORD PTR $T71[ebp]
  0047c	25 00 00 00 02	 and	 eax, 33554432		; 02000000H
  00481	0f 84 10 00 00
	00		 je	 $LN467@SetReportT
  00487	81 65 ec ff ff
	ff fd		 and	 DWORD PTR $T71[ebp], -33554433 ; fdffffffH
  0048e	8d 4d 14	 lea	 ecx, DWORD PTR $T84[ebp]
  00491	ff 25 00 00 00
	00		 jmp	 DWORD PTR __imp_??1?$CStringT@DV?$StrTraitMFC_DLL@DV?$ChTraitsCRT@D@ATL@@@@@ATL@@QAE@XZ
$LN467@SetReportT:
  00497	c3		 ret	 0
__unwindfunclet$?SetReportTitleBasicInfo@CDlgAnalysis@@QAEXNNH@Z$71:
  00498	8d 4d bc	 lea	 ecx, DWORD PTR $T8[ebp]
  0049b	ff 25 00 00 00
	00		 jmp	 DWORD PTR __imp_??1?$CStringT@DV?$StrTraitMFC_DLL@DV?$ChTraitsCRT@D@ATL@@@@@ATL@@QAE@XZ
__unwindfunclet$?SetReportTitleBasicInfo@CDlgAnalysis@@QAEXNNH@Z$72:
  004a1	8d 4d d4	 lea	 ecx, DWORD PTR $T49[ebp]
  004a4	ff 25 00 00 00
	00		 jmp	 DWORD PTR __imp_??1?$CStringT@DV?$StrTraitMFC_DLL@DV?$ChTraitsCRT@D@ATL@@@@@ATL@@QAE@XZ
__unwindfunclet$?SetReportTitleBasicInfo@CDlgAnalysis@@QAEXNNH@Z$73:
  004aa	8d 4d d0	 lea	 ecx, DWORD PTR $T43[ebp]
  004ad	ff 25 00 00 00
	00		 jmp	 DWORD PTR __imp_??1?$CStringT@DV?$StrTraitMFC_DLL@DV?$ChTraitsCRT@D@ATL@@@@@ATL@@QAE@XZ
__unwindfunclet$?SetReportTitleBasicInfo@CDlgAnalysis@@QAEXNNH@Z$74:
  004b3	8d 4d cc	 lea	 ecx, DWORD PTR $T37[ebp]
  004b6	ff 25 00 00 00
	00		 jmp	 DWORD PTR __imp_??1?$CStringT@DV?$StrTraitMFC_DLL@DV?$ChTraitsCRT@D@ATL@@@@@ATL@@QAE@XZ
__unwindfunclet$?SetReportTitleBasicInfo@CDlgAnalysis@@QAEXNNH@Z$75:
  004bc	8d 4d c8	 lea	 ecx, DWORD PTR $T31[ebp]
  004bf	ff 25 00 00 00
	00		 jmp	 DWORD PTR __imp_??1?$CStringT@DV?$StrTraitMFC_DLL@DV?$ChTraitsCRT@D@ATL@@@@@ATL@@QAE@XZ
__unwindfunclet$?SetReportTitleBasicInfo@CDlgAnalysis@@QAEXNNH@Z$112:
  004c5	8b 45 ec	 mov	 eax, DWORD PTR $T71[ebp]
  004c8	25 00 00 00 04	 and	 eax, 67108864		; 04000000H
  004cd	0f 84 10 00 00
	00		 je	 $LN484@SetReportT
  004d3	81 65 ec ff ff
	ff fb		 and	 DWORD PTR $T71[ebp], -67108865 ; fbffffffH
  004da	8d 4d dc	 lea	 ecx, DWORD PTR $T55[ebp]
  004dd	ff 25 00 00 00
	00		 jmp	 DWORD PTR __imp_??1?$CStringT@DV?$StrTraitMFC_DLL@DV?$ChTraitsCRT@D@ATL@@@@@ATL@@QAE@XZ
$LN484@SetReportT:
  004e3	c3		 ret	 0
__unwindfunclet$?SetReportTitleBasicInfo@CDlgAnalysis@@QAEXNNH@Z$77:
  004e4	8d 4d c4	 lea	 ecx, DWORD PTR $T24[ebp]
  004e7	ff 25 00 00 00
	00		 jmp	 DWORD PTR __imp_??1?$CStringT@DV?$StrTraitMFC_DLL@DV?$ChTraitsCRT@D@ATL@@@@@ATL@@QAE@XZ
__unwindfunclet$?SetReportTitleBasicInfo@CDlgAnalysis@@QAEXNNH@Z$113:
  004ed	8b 45 ec	 mov	 eax, DWORD PTR $T71[ebp]
  004f0	25 00 00 00 08	 and	 eax, 134217728		; 08000000H
  004f5	0f 84 10 00 00
	00		 je	 $LN497@SetReportT
  004fb	81 65 ec ff ff
	ff f7		 and	 DWORD PTR $T71[ebp], -134217729 ; f7ffffffH
  00502	8d 4d 14	 lea	 ecx, DWORD PTR $T83[ebp]
  00505	ff 25 00 00 00
	00		 jmp	 DWORD PTR __imp_??1?$CStringT@DV?$StrTraitMFC_DLL@DV?$ChTraitsCRT@D@ATL@@@@@ATL@@QAE@XZ
$LN497@SetReportT:
  0050b	c3		 ret	 0
__unwindfunclet$?SetReportTitleBasicInfo@CDlgAnalysis@@QAEXNNH@Z$79:
  0050c	8d 4d c0	 lea	 ecx, DWORD PTR $T15[ebp]
  0050f	ff 25 00 00 00
	00		 jmp	 DWORD PTR __imp_??1?$CStringT@DV?$StrTraitMFC_DLL@DV?$ChTraitsCRT@D@ATL@@@@@ATL@@QAE@XZ
__unwindfunclet$?SetReportTitleBasicInfo@CDlgAnalysis@@QAEXNNH@Z$114:
  00515	8b 45 ec	 mov	 eax, DWORD PTR $T71[ebp]
  00518	25 00 00 00 10	 and	 eax, 268435456		; 10000000H
  0051d	0f 84 10 00 00
	00		 je	 $LN510@SetReportT
  00523	81 65 ec ff ff
	ff ef		 and	 DWORD PTR $T71[ebp], -268435457 ; efffffffH
  0052a	8d 4d 0c	 lea	 ecx, DWORD PTR $T73[ebp]
  0052d	ff 25 00 00 00
	00		 jmp	 DWORD PTR __imp_??1?$CStringT@DV?$StrTraitMFC_DLL@DV?$ChTraitsCRT@D@ATL@@@@@ATL@@QAE@XZ
$LN510@SetReportT:
  00533	c3		 ret	 0
__unwindfunclet$?SetReportTitleBasicInfo@CDlgAnalysis@@QAEXNNH@Z$81:
  00534	8d 4d bc	 lea	 ecx, DWORD PTR $T7[ebp]
  00537	ff 25 00 00 00
	00		 jmp	 DWORD PTR __imp_??1?$CStringT@DV?$StrTraitMFC_DLL@DV?$ChTraitsCRT@D@ATL@@@@@ATL@@QAE@XZ
__unwindfunclet$?SetReportTitleBasicInfo@CDlgAnalysis@@QAEXNNH@Z$82:
  0053d	8d 4d bc	 lea	 ecx, DWORD PTR $T6[ebp]
  00540	ff 25 00 00 00
	00		 jmp	 DWORD PTR __imp_??1?$CStringT@DV?$StrTraitMFC_DLL@DV?$ChTraitsCRT@D@ATL@@@@@ATL@@QAE@XZ
__unwindfunclet$?SetReportTitleBasicInfo@CDlgAnalysis@@QAEXNNH@Z$83:
  00546	8d 4d b8	 lea	 ecx, DWORD PTR $T2[ebp]
  00549	ff 25 00 00 00
	00		 jmp	 DWORD PTR __imp_??1?$CStringT@DV?$StrTraitMFC_DLL@DV?$ChTraitsCRT@D@ATL@@@@@ATL@@QAE@XZ
__unwindfunclet$?SetReportTitleBasicInfo@CDlgAnalysis@@QAEXNNH@Z$115:
  0054f	8b 45 ec	 mov	 eax, DWORD PTR $T71[ebp]
  00552	25 00 00 00 20	 and	 eax, 536870912		; 20000000H
  00557	0f 84 10 00 00
	00		 je	 $LN523@SetReportT
  0055d	81 65 ec ff ff
	ff df		 and	 DWORD PTR $T71[ebp], -536870913 ; dfffffffH
  00564	8d 4d 0c	 lea	 ecx, DWORD PTR $T72[ebp]
  00567	ff 25 00 00 00
	00		 jmp	 DWORD PTR __imp_??1?$CStringT@DV?$StrTraitMFC_DLL@DV?$ChTraitsCRT@D@ATL@@@@@ATL@@QAE@XZ
$LN523@SetReportT:
  0056d	c3		 ret	 0
__unwindfunclet$?SetReportTitleBasicInfo@CDlgAnalysis@@QAEXNNH@Z$85:
  0056e	8d 4d 14	 lea	 ecx, DWORD PTR $T82[ebp]
  00571	ff 25 00 00 00
	00		 jmp	 DWORD PTR __imp_??1?$CStringT@DV?$StrTraitMFC_DLL@DV?$ChTraitsCRT@D@ATL@@@@@ATL@@QAE@XZ
  00577	cc		 int	 3
  00578	cc		 int	 3
  00579	cc		 int	 3
  0057a	cc		 int	 3
  0057b	cc		 int	 3
__ehhandler$?SetReportTitleBasicInfo@CDlgAnalysis@@QAEXNNH@Z:
  0057c	90		 npad	 1
  0057d	90		 npad	 1
  0057e	8b 54 24 08	 mov	 edx, DWORD PTR [esp+8]
  00582	8d 42 0c	 lea	 eax, DWORD PTR [edx+12]
  00585	8b 4a b4	 mov	 ecx, DWORD PTR [edx-76]
  00588	33 c8		 xor	 ecx, eax
  0058a	e8 00 00 00 00	 call	 @__security_check_cookie@4
  0058f	b8 00 00 00 00	 mov	 eax, OFFSET __ehfuncinfo$?SetReportTitleBasicInfo@CDlgAnalysis@@QAEXNNH@Z
  00594	e9 00 00 00 00	 jmp	 ___CxxFrameHandler3
text$x	ENDS
?SetReportTitleBasicInfo@CDlgAnalysis@@QAEXNNH@Z ENDP	; CDlgAnalysis::SetReportTitleBasicInfo
; Function compile flags: /Ogtp
; File D:\git\src\IBK\IBK_DRFN\ProjSrc\SrcChartEx\ChartAddIn\ChartPatternAddIn\DlgAnalysis.cpp
;	COMDAT ?InitInsertedGirdRow@CDlgAnalysis@@QAEXPAVCGridCtrl@@@Z
_TEXT	SEGMENT
_nRowCnt$1$ = -128					; size = 4
_nColCnt$1$ = -124					; size = 4
_Item$2 = -120						; size = 104
__$ArrayPad$ = -16					; size = 4
__$EHRec$ = -12						; size = 12
_pGridCtrl$ = 8						; size = 4
?InitInsertedGirdRow@CDlgAnalysis@@QAEXPAVCGridCtrl@@@Z PROC ; CDlgAnalysis::InitInsertedGirdRow, COMDAT
; _this$ = ecx

; 833  : {

  00000	55		 push	 ebp
  00001	8b ec		 mov	 ebp, esp
  00003	6a ff		 push	 -1
  00005	68 00 00 00 00	 push	 __ehhandler$?InitInsertedGirdRow@CDlgAnalysis@@QAEXPAVCGridCtrl@@@Z
  0000a	64 a1 00 00 00
	00		 mov	 eax, DWORD PTR fs:0
  00010	50		 push	 eax
  00011	83 ec 74	 sub	 esp, 116		; 00000074H
  00014	a1 00 00 00 00	 mov	 eax, DWORD PTR ___security_cookie
  00019	33 c5		 xor	 eax, ebp
  0001b	89 45 f0	 mov	 DWORD PTR __$ArrayPad$[ebp], eax
  0001e	53		 push	 ebx
  0001f	56		 push	 esi
  00020	57		 push	 edi
  00021	50		 push	 eax
  00022	8d 45 f4	 lea	 eax, DWORD PTR __$EHRec$[ebp]
  00025	64 a3 00 00 00
	00		 mov	 DWORD PTR fs:0, eax
  0002b	8b 7d 08	 mov	 edi, DWORD PTR _pGridCtrl$[ebp]

; 834  : 	int row, col;
; 835  : 	int nRowCnt = pGridCtrl->GetRowCount();
; 836  : 	int nColCnt = pGridCtrl->GetColumnCount();
; 837  : 
; 838  : 	// Reset Row Height and Set Column Format
; 839  : 	for (row = ROW_FIRSTDATA; row < nRowCnt; row++)

  0002e	bb 02 00 00 00	 mov	 ebx, 2
  00033	8b 8f 30 01 00
	00		 mov	 ecx, DWORD PTR [edi+304]
  00039	8b 87 38 01 00
	00		 mov	 eax, DWORD PTR [edi+312]
  0003f	89 4d 80	 mov	 DWORD PTR _nRowCnt$1$[ebp], ecx
  00042	89 45 84	 mov	 DWORD PTR _nColCnt$1$[ebp], eax
  00045	3b cb		 cmp	 ecx, ebx
  00047	0f 8e b3 00 00
	00		 jle	 $LN3@InitInsert
  0004d	0f 1f 00	 npad	 3
$LL4@InitInsert:

; 840  : 	{
; 841  : 		// Row Height
; 842  : 		pGridCtrl->SetRowHeight_NoReset(row, ROW_HEIGHT);

  00050	6a 10		 push	 16			; 00000010H
  00052	53		 push	 ebx
  00053	8b cf		 mov	 ecx, edi
  00055	e8 00 00 00 00	 call	 ?SetRowHeight_NoReset@CGridCtrl@@QAEHHH@Z ; CGridCtrl::SetRowHeight_NoReset

; 843  : 		
; 844  : 		// Column Format
; 845  : 		for (col = 0; col < nColCnt; col++)

  0005a	33 f6		 xor	 esi, esi
  0005c	39 75 84	 cmp	 DWORD PTR _nColCnt$1$[ebp], esi
  0005f	0f 8e 91 00 00
	00		 jle	 $LN2@InitInsert
$LL7@InitInsert:
  00065	8d 4d ec	 lea	 ecx, DWORD PTR _Item$2[ebp+100]
  00068	ff 15 00 00 00
	00		 call	 DWORD PTR __imp_??0?$CStringT@DV?$StrTraitMFC_DLL@DV?$ChTraitsCRT@D@ATL@@@@@ATL@@QAE@XZ

; 846  : 		{ 
; 847  : 			GV_ITEM Item;
; 848  : 			Item.mask = GVIF_TEXT|GVIF_FORMAT|GVIF_FGCLR|GVIF_BKCLR|GVIF_STATE;
; 849  : 			Item.nState = GVIS_READONLY | GVIS_MODIFIED ;//| GVIS_DROPHILITED;
; 850  : 			Item.row = row;
; 851  : 			Item.col = col;
; 852  : 			
; 853  : 			Item.nFormat = DT_VCENTER|DT_SINGLELINE|DT_NOPREFIX;//|DT_END_ELLIPSIS;
; 854  : 			
; 855  : 			if ( pGridCtrl->GetPatternReportType() == WAVE_REPORTTYPE1)

  0006e	8b cf		 mov	 ecx, edi
  00070	c7 45 fc 00 00
	00 00		 mov	 DWORD PTR __$EHRec$[ebp+8], 0
  00077	c7 45 90 79 00
	00 00		 mov	 DWORD PTR _Item$2[ebp+8], 121 ; 00000079H
  0007e	c7 45 94 88 00
	00 00		 mov	 DWORD PTR _Item$2[ebp+12], 136 ; 00000088H
  00085	89 5d 88	 mov	 DWORD PTR _Item$2[ebp], ebx
  00088	89 75 8c	 mov	 DWORD PTR _Item$2[ebp+4], esi
  0008b	c7 45 98 24 08
	00 00		 mov	 DWORD PTR _Item$2[ebp+16], 2084 ; 00000824H
  00092	e8 00 00 00 00	 call	 ?GetPatternReportType@CGridCtrl@@QAEHXZ ; CGridCtrl::GetPatternReportType
  00097	3d e9 03 00 00	 cmp	 eax, 1001		; 000003e9H
  0009c	74 0e		 je	 SHORT $LN34@InitInsert

; 856  : 			{
; 857  : 				if ( col == COL_WAV1_NAME)
; 858  : 					Item.nFormat |= DT_LEFT;
; 859  : 				else
; 860  : 					Item.nFormat |= DT_CENTER;
; 861  : 			}
; 862  : 			else if ( pGridCtrl->GetPatternReportType() == CANDLE_REPORTTYPE1)

  0009e	8b cf		 mov	 ecx, edi
  000a0	e8 00 00 00 00	 call	 ?GetPatternReportType@CGridCtrl@@QAEHXZ ; CGridCtrl::GetPatternReportType
  000a5	3d d1 07 00 00	 cmp	 eax, 2001		; 000007d1H
  000aa	75 05		 jne	 SHORT $LN12@InitInsert
$LN34@InitInsert:

; 863  : 			{
; 864  : 				if ( col == COL_CND1_NAME)
; 865  : 					Item.nFormat |= DT_LEFT;
; 866  : 				else
; 867  : 					Item.nFormat |= DT_CENTER;
; 868  : 			}
; 869  : 			else
; 870  : 			{
; 871  : 				Item.nFormat |= DT_CENTER;
; 872  : 			}
; 873  : 			
; 874  : 			Item.strText = "";

  000ac	83 fe 03	 cmp	 esi, 3
  000af	74 04		 je	 SHORT $LN13@InitInsert
$LN12@InitInsert:
  000b1	83 4d 98 01	 or	 DWORD PTR _Item$2[ebp+16], 1
$LN13@InitInsert:
  000b5	68 00 00 00 00	 push	 OFFSET ??_C@_00CNPNBAHC@@
  000ba	8d 4d ec	 lea	 ecx, DWORD PTR _Item$2[ebp+100]
  000bd	ff 15 00 00 00
	00		 call	 DWORD PTR __imp_??4?$CStringT@DV?$StrTraitMFC_DLL@DV?$ChTraitsCRT@D@ATL@@@@@ATL@@QAEAAV01@PBD@Z

; 875  : 			
; 876  : 			Item.crBkClr = COLOR_WHITE;
; 877  : 			Item.crFgClr = COLOR_BLACK;
; 878  : 			
; 879  : 			pGridCtrl->SetItem(&Item);

  000c3	8d 45 88	 lea	 eax, DWORD PTR _Item$2[ebp]
  000c6	c7 45 a0 ff ff
	ff 00		 mov	 DWORD PTR _Item$2[ebp+24], 16777215 ; 00ffffffH
  000cd	50		 push	 eax
  000ce	8b cf		 mov	 ecx, edi
  000d0	c7 45 a4 00 00
	00 00		 mov	 DWORD PTR _Item$2[ebp+28], 0
  000d7	e8 00 00 00 00	 call	 ?SetItem@CGridCtrl@@QAEHPBU_GV_ITEM@@@Z ; CGridCtrl::SetItem
  000dc	8d 4d ec	 lea	 ecx, DWORD PTR _Item$2[ebp+100]

; 880  : 		}

  000df	c7 45 fc ff ff
	ff ff		 mov	 DWORD PTR __$EHRec$[ebp+8], -1
  000e6	ff 15 00 00 00
	00		 call	 DWORD PTR __imp_??1?$CStringT@DV?$StrTraitMFC_DLL@DV?$ChTraitsCRT@D@ATL@@@@@ATL@@QAE@XZ
  000ec	46		 inc	 esi
  000ed	3b 75 84	 cmp	 esi, DWORD PTR _nColCnt$1$[ebp]
  000f0	0f 8c 6f ff ff
	ff		 jl	 $LL7@InitInsert
$LN2@InitInsert:

; 834  : 	int row, col;
; 835  : 	int nRowCnt = pGridCtrl->GetRowCount();
; 836  : 	int nColCnt = pGridCtrl->GetColumnCount();
; 837  : 
; 838  : 	// Reset Row Height and Set Column Format
; 839  : 	for (row = ROW_FIRSTDATA; row < nRowCnt; row++)

  000f6	43		 inc	 ebx
  000f7	3b 5d 80	 cmp	 ebx, DWORD PTR _nRowCnt$1$[ebp]
  000fa	0f 8c 50 ff ff
	ff		 jl	 $LL4@InitInsert
$LN3@InitInsert:

; 881  : 	}
; 882  : 	pGridCtrl->Call_ResetScrollBars();

  00100	8b cf		 mov	 ecx, edi
  00102	e8 00 00 00 00	 call	 ?Call_ResetScrollBars@CGridCtrl@@QAEXXZ ; CGridCtrl::Call_ResetScrollBars

; 883  : 
; 884  : 	pGridCtrl->Refresh();	

  00107	8b cf		 mov	 ecx, edi
  00109	e8 00 00 00 00	 call	 ?Refresh@CGridCtrl@@QAEXXZ ; CGridCtrl::Refresh

; 885  : }

  0010e	8b 4d f4	 mov	 ecx, DWORD PTR __$EHRec$[ebp]
  00111	64 89 0d 00 00
	00 00		 mov	 DWORD PTR fs:0, ecx
  00118	59		 pop	 ecx
  00119	5f		 pop	 edi
  0011a	5e		 pop	 esi
  0011b	5b		 pop	 ebx
  0011c	8b 4d f0	 mov	 ecx, DWORD PTR __$ArrayPad$[ebp]
  0011f	33 cd		 xor	 ecx, ebp
  00121	e8 00 00 00 00	 call	 @__security_check_cookie@4
  00126	8b e5		 mov	 esp, ebp
  00128	5d		 pop	 ebp
  00129	c2 04 00	 ret	 4
_TEXT	ENDS
;	COMDAT text$x
text$x	SEGMENT
__unwindfunclet$?InitInsertedGirdRow@CDlgAnalysis@@QAEXPAVCGridCtrl@@@Z$0:
  00000	8d 4d 88	 lea	 ecx, DWORD PTR _Item$2[ebp]
  00003	e9 00 00 00 00	 jmp	 ??1_GV_ITEM@@QAE@XZ
  00008	cc		 int	 3
  00009	cc		 int	 3
  0000a	cc		 int	 3
  0000b	cc		 int	 3
  0000c	cc		 int	 3
__ehhandler$?InitInsertedGirdRow@CDlgAnalysis@@QAEXPAVCGridCtrl@@@Z:
  0000d	90		 npad	 1
  0000e	90		 npad	 1
  0000f	8b 54 24 08	 mov	 edx, DWORD PTR [esp+8]
  00013	8d 42 0c	 lea	 eax, DWORD PTR [edx+12]
  00016	8b 8a 7c ff ff
	ff		 mov	 ecx, DWORD PTR [edx-132]
  0001c	33 c8		 xor	 ecx, eax
  0001e	e8 00 00 00 00	 call	 @__security_check_cookie@4
  00023	8b 4a fc	 mov	 ecx, DWORD PTR [edx-4]
  00026	33 c8		 xor	 ecx, eax
  00028	e8 00 00 00 00	 call	 @__security_check_cookie@4
  0002d	b8 00 00 00 00	 mov	 eax, OFFSET __ehfuncinfo$?InitInsertedGirdRow@CDlgAnalysis@@QAEXPAVCGridCtrl@@@Z
  00032	e9 00 00 00 00	 jmp	 ___CxxFrameHandler3
text$x	ENDS
?InitInsertedGirdRow@CDlgAnalysis@@QAEXPAVCGridCtrl@@@Z ENDP ; CDlgAnalysis::InitInsertedGirdRow
; Function compile flags: /Ogtp
; File D:\git\src\IBK\IBK_DRFN\ProjSrc\SrcChartEx\ChartAddIn\ChartPatternAddIn\DlgAnalysis.cpp
;	COMDAT ?InsertGridRow@CDlgAnalysis@@QAEXPAVCGridCtrl@@H@Z
_TEXT	SEGMENT
_nRowCnt$1$ = -128					; size = 4
_nColCnt$1$ = -124					; size = 4
_Item$2 = -120						; size = 104
__$ArrayPad$ = -16					; size = 4
__$EHRec$ = -12						; size = 12
_pGridCtrl$ = 8						; size = 4
_nAddRowCnt$ = 12					; size = 4
?InsertGridRow@CDlgAnalysis@@QAEXPAVCGridCtrl@@H@Z PROC	; CDlgAnalysis::InsertGridRow, COMDAT
; _this$ = ecx

; 822  : {

  00000	55		 push	 ebp
  00001	8b ec		 mov	 ebp, esp
  00003	6a ff		 push	 -1
  00005	68 00 00 00 00	 push	 __ehhandler$?InsertGridRow@CDlgAnalysis@@QAEXPAVCGridCtrl@@H@Z
  0000a	64 a1 00 00 00
	00		 mov	 eax, DWORD PTR fs:0
  00010	50		 push	 eax
  00011	83 ec 74	 sub	 esp, 116		; 00000074H
  00014	a1 00 00 00 00	 mov	 eax, DWORD PTR ___security_cookie
  00019	33 c5		 xor	 eax, ebp
  0001b	89 45 f0	 mov	 DWORD PTR __$ArrayPad$[ebp], eax
  0001e	53		 push	 ebx
  0001f	56		 push	 esi
  00020	57		 push	 edi
  00021	50		 push	 eax
  00022	8d 45 f4	 lea	 eax, DWORD PTR __$EHRec$[ebp]
  00025	64 a3 00 00 00
	00		 mov	 DWORD PTR fs:0, eax
  0002b	8b 7d 08	 mov	 edi, DWORD PTR _pGridCtrl$[ebp]

; 823  : 	int nFixedRowCnt = pGridCtrl->GetFixedRowCount();
; 824  : 
; 825  : 	pGridCtrl->SetRowCount( nFixedRowCnt + nAddRowCnt);

  0002e	8b cf		 mov	 ecx, edi
  00030	8b 45 0c	 mov	 eax, DWORD PTR _nAddRowCnt$[ebp]
  00033	03 87 34 01 00
	00		 add	 eax, DWORD PTR [edi+308]
  00039	50		 push	 eax
  0003a	e8 00 00 00 00	 call	 ?SetRowCount@CGridCtrl@@QAEHH@Z ; CGridCtrl::SetRowCount

; 835  : 	int nRowCnt = pGridCtrl->GetRowCount();

  0003f	8b 8f 30 01 00
	00		 mov	 ecx, DWORD PTR [edi+304]

; 836  : 	int nColCnt = pGridCtrl->GetColumnCount();
; 837  : 
; 838  : 	// Reset Row Height and Set Column Format
; 839  : 	for (row = ROW_FIRSTDATA; row < nRowCnt; row++)

  00045	bb 02 00 00 00	 mov	 ebx, 2
  0004a	8b 87 38 01 00
	00		 mov	 eax, DWORD PTR [edi+312]
  00050	89 4d 80	 mov	 DWORD PTR _nRowCnt$1$[ebp], ecx
  00053	89 45 84	 mov	 DWORD PTR _nColCnt$1$[ebp], eax
  00056	3b cb		 cmp	 ecx, ebx
  00058	0f 8e b2 00 00
	00		 jle	 $LN5@InsertGrid
  0005e	66 90		 npad	 2
$LL6@InsertGrid:

; 840  : 	{
; 841  : 		// Row Height
; 842  : 		pGridCtrl->SetRowHeight_NoReset(row, ROW_HEIGHT);

  00060	6a 10		 push	 16			; 00000010H
  00062	53		 push	 ebx
  00063	8b cf		 mov	 ecx, edi
  00065	e8 00 00 00 00	 call	 ?SetRowHeight_NoReset@CGridCtrl@@QAEHHH@Z ; CGridCtrl::SetRowHeight_NoReset

; 843  : 		
; 844  : 		// Column Format
; 845  : 		for (col = 0; col < nColCnt; col++)

  0006a	33 f6		 xor	 esi, esi
  0006c	39 75 84	 cmp	 DWORD PTR _nColCnt$1$[ebp], esi
  0006f	0f 8e 91 00 00
	00		 jle	 $LN4@InsertGrid
$LL9@InsertGrid:
  00075	8d 4d ec	 lea	 ecx, DWORD PTR _Item$2[ebp+100]
  00078	ff 15 00 00 00
	00		 call	 DWORD PTR __imp_??0?$CStringT@DV?$StrTraitMFC_DLL@DV?$ChTraitsCRT@D@ATL@@@@@ATL@@QAE@XZ

; 846  : 		{ 
; 847  : 			GV_ITEM Item;
; 848  : 			Item.mask = GVIF_TEXT|GVIF_FORMAT|GVIF_FGCLR|GVIF_BKCLR|GVIF_STATE;
; 849  : 			Item.nState = GVIS_READONLY | GVIS_MODIFIED ;//| GVIS_DROPHILITED;
; 850  : 			Item.row = row;
; 851  : 			Item.col = col;
; 852  : 			
; 853  : 			Item.nFormat = DT_VCENTER|DT_SINGLELINE|DT_NOPREFIX;//|DT_END_ELLIPSIS;
; 854  : 			
; 855  : 			if ( pGridCtrl->GetPatternReportType() == WAVE_REPORTTYPE1)

  0007e	8b cf		 mov	 ecx, edi
  00080	c7 45 fc 00 00
	00 00		 mov	 DWORD PTR __$EHRec$[ebp+8], 0
  00087	c7 45 90 79 00
	00 00		 mov	 DWORD PTR _Item$2[ebp+8], 121 ; 00000079H
  0008e	c7 45 94 88 00
	00 00		 mov	 DWORD PTR _Item$2[ebp+12], 136 ; 00000088H
  00095	89 5d 88	 mov	 DWORD PTR _Item$2[ebp], ebx
  00098	89 75 8c	 mov	 DWORD PTR _Item$2[ebp+4], esi
  0009b	c7 45 98 24 08
	00 00		 mov	 DWORD PTR _Item$2[ebp+16], 2084 ; 00000824H
  000a2	e8 00 00 00 00	 call	 ?GetPatternReportType@CGridCtrl@@QAEHXZ ; CGridCtrl::GetPatternReportType
  000a7	3d e9 03 00 00	 cmp	 eax, 1001		; 000003e9H
  000ac	74 0e		 je	 SHORT $LN36@InsertGrid

; 856  : 			{
; 857  : 				if ( col == COL_WAV1_NAME)
; 858  : 					Item.nFormat |= DT_LEFT;
; 859  : 				else
; 860  : 					Item.nFormat |= DT_CENTER;
; 861  : 			}
; 862  : 			else if ( pGridCtrl->GetPatternReportType() == CANDLE_REPORTTYPE1)

  000ae	8b cf		 mov	 ecx, edi
  000b0	e8 00 00 00 00	 call	 ?GetPatternReportType@CGridCtrl@@QAEHXZ ; CGridCtrl::GetPatternReportType
  000b5	3d d1 07 00 00	 cmp	 eax, 2001		; 000007d1H
  000ba	75 05		 jne	 SHORT $LN14@InsertGrid
$LN36@InsertGrid:

; 863  : 			{
; 864  : 				if ( col == COL_CND1_NAME)
; 865  : 					Item.nFormat |= DT_LEFT;
; 866  : 				else
; 867  : 					Item.nFormat |= DT_CENTER;
; 868  : 			}
; 869  : 			else
; 870  : 			{
; 871  : 				Item.nFormat |= DT_CENTER;
; 872  : 			}
; 873  : 			
; 874  : 			Item.strText = "";

  000bc	83 fe 03	 cmp	 esi, 3
  000bf	74 04		 je	 SHORT $LN15@InsertGrid
$LN14@InsertGrid:
  000c1	83 4d 98 01	 or	 DWORD PTR _Item$2[ebp+16], 1
$LN15@InsertGrid:
  000c5	68 00 00 00 00	 push	 OFFSET ??_C@_00CNPNBAHC@@
  000ca	8d 4d ec	 lea	 ecx, DWORD PTR _Item$2[ebp+100]
  000cd	ff 15 00 00 00
	00		 call	 DWORD PTR __imp_??4?$CStringT@DV?$StrTraitMFC_DLL@DV?$ChTraitsCRT@D@ATL@@@@@ATL@@QAEAAV01@PBD@Z

; 875  : 			
; 876  : 			Item.crBkClr = COLOR_WHITE;
; 877  : 			Item.crFgClr = COLOR_BLACK;
; 878  : 			
; 879  : 			pGridCtrl->SetItem(&Item);

  000d3	8d 45 88	 lea	 eax, DWORD PTR _Item$2[ebp]
  000d6	c7 45 a0 ff ff
	ff 00		 mov	 DWORD PTR _Item$2[ebp+24], 16777215 ; 00ffffffH
  000dd	50		 push	 eax
  000de	8b cf		 mov	 ecx, edi
  000e0	c7 45 a4 00 00
	00 00		 mov	 DWORD PTR _Item$2[ebp+28], 0
  000e7	e8 00 00 00 00	 call	 ?SetItem@CGridCtrl@@QAEHPBU_GV_ITEM@@@Z ; CGridCtrl::SetItem
  000ec	8d 4d ec	 lea	 ecx, DWORD PTR _Item$2[ebp+100]

; 880  : 		}

  000ef	c7 45 fc ff ff
	ff ff		 mov	 DWORD PTR __$EHRec$[ebp+8], -1
  000f6	ff 15 00 00 00
	00		 call	 DWORD PTR __imp_??1?$CStringT@DV?$StrTraitMFC_DLL@DV?$ChTraitsCRT@D@ATL@@@@@ATL@@QAE@XZ

; 843  : 		
; 844  : 		// Column Format
; 845  : 		for (col = 0; col < nColCnt; col++)

  000fc	46		 inc	 esi
  000fd	3b 75 84	 cmp	 esi, DWORD PTR _nColCnt$1$[ebp]
  00100	0f 8c 6f ff ff
	ff		 jl	 $LL9@InsertGrid
$LN4@InsertGrid:

; 836  : 	int nColCnt = pGridCtrl->GetColumnCount();
; 837  : 
; 838  : 	// Reset Row Height and Set Column Format
; 839  : 	for (row = ROW_FIRSTDATA; row < nRowCnt; row++)

  00106	43		 inc	 ebx
  00107	3b 5d 80	 cmp	 ebx, DWORD PTR _nRowCnt$1$[ebp]
  0010a	0f 8c 50 ff ff
	ff		 jl	 $LL6@InsertGrid
$LN5@InsertGrid:

; 881  : 	}
; 882  : 	pGridCtrl->Call_ResetScrollBars();

  00110	8b cf		 mov	 ecx, edi
  00112	e8 00 00 00 00	 call	 ?Call_ResetScrollBars@CGridCtrl@@QAEXXZ ; CGridCtrl::Call_ResetScrollBars

; 883  : 
; 884  : 	pGridCtrl->Refresh();	

  00117	8b cf		 mov	 ecx, edi
  00119	e8 00 00 00 00	 call	 ?Refresh@CGridCtrl@@QAEXXZ ; CGridCtrl::Refresh

; 826  : 
; 827  : 	InitInsertedGirdRow( pGridCtrl);
; 828  : }

  0011e	8b 4d f4	 mov	 ecx, DWORD PTR __$EHRec$[ebp]
  00121	64 89 0d 00 00
	00 00		 mov	 DWORD PTR fs:0, ecx
  00128	59		 pop	 ecx
  00129	5f		 pop	 edi
  0012a	5e		 pop	 esi
  0012b	5b		 pop	 ebx
  0012c	8b 4d f0	 mov	 ecx, DWORD PTR __$ArrayPad$[ebp]
  0012f	33 cd		 xor	 ecx, ebp
  00131	e8 00 00 00 00	 call	 @__security_check_cookie@4
  00136	8b e5		 mov	 esp, ebp
  00138	5d		 pop	 ebp
  00139	c2 08 00	 ret	 8
_TEXT	ENDS
;	COMDAT text$x
text$x	SEGMENT
__unwindfunclet$?InsertGridRow@CDlgAnalysis@@QAEXPAVCGridCtrl@@H@Z$0:
  00000	8d 4d 88	 lea	 ecx, DWORD PTR _Item$2[ebp]
  00003	e9 00 00 00 00	 jmp	 ??1_GV_ITEM@@QAE@XZ
  00008	cc		 int	 3
  00009	cc		 int	 3
  0000a	cc		 int	 3
  0000b	cc		 int	 3
  0000c	cc		 int	 3
__ehhandler$?InsertGridRow@CDlgAnalysis@@QAEXPAVCGridCtrl@@H@Z:
  0000d	90		 npad	 1
  0000e	90		 npad	 1
  0000f	8b 54 24 08	 mov	 edx, DWORD PTR [esp+8]
  00013	8d 42 0c	 lea	 eax, DWORD PTR [edx+12]
  00016	8b 8a 7c ff ff
	ff		 mov	 ecx, DWORD PTR [edx-132]
  0001c	33 c8		 xor	 ecx, eax
  0001e	e8 00 00 00 00	 call	 @__security_check_cookie@4
  00023	8b 4a fc	 mov	 ecx, DWORD PTR [edx-4]
  00026	33 c8		 xor	 ecx, eax
  00028	e8 00 00 00 00	 call	 @__security_check_cookie@4
  0002d	b8 00 00 00 00	 mov	 eax, OFFSET __ehfuncinfo$?InsertGridRow@CDlgAnalysis@@QAEXPAVCGridCtrl@@H@Z
  00032	e9 00 00 00 00	 jmp	 ___CxxFrameHandler3
text$x	ENDS
?InsertGridRow@CDlgAnalysis@@QAEXPAVCGridCtrl@@H@Z ENDP	; CDlgAnalysis::InsertGridRow
; Function compile flags: /Ogtp
; File D:\git\src\IBK\IBK_DRFN\ProjSrc\SrcChartEx\ChartAddIn\ChartPatternAddIn\DlgAnalysis.cpp
;	COMDAT ?SetPercentNColor@CDlgAnalysis@@QAEXPAVCGridCtrl@@HHN@Z
_TEXT	SEGMENT
_strText$ = -16						; size = 4
__$EHRec$ = -12						; size = 12
_pGridCtrl$ = 8						; size = 4
_nRow$ = 12						; size = 4
_nCol$ = 16						; size = 4
_dValue$ = 20						; size = 8
?SetPercentNColor@CDlgAnalysis@@QAEXPAVCGridCtrl@@HHN@Z PROC ; CDlgAnalysis::SetPercentNColor, COMDAT
; _this$ = ecx

; 799  : {

  00000	55		 push	 ebp
  00001	8b ec		 mov	 ebp, esp
  00003	6a ff		 push	 -1
  00005	68 00 00 00 00	 push	 __ehhandler$?SetPercentNColor@CDlgAnalysis@@QAEXPAVCGridCtrl@@HHN@Z
  0000a	64 a1 00 00 00
	00		 mov	 eax, DWORD PTR fs:0
  00010	50		 push	 eax
  00011	51		 push	 ecx
  00012	a1 00 00 00 00	 mov	 eax, DWORD PTR ___security_cookie
  00017	33 c5		 xor	 eax, ebp
  00019	50		 push	 eax
  0001a	8d 45 f4	 lea	 eax, DWORD PTR __$EHRec$[ebp]
  0001d	64 a3 00 00 00
	00		 mov	 DWORD PTR fs:0, eax

; 800  : 	if ( dValue == -100)

  00023	f2 0f 10 45 14	 movsd	 xmm0, QWORD PTR _dValue$[ebp]
  00028	66 0f 2e 05 00
	00 00 00	 ucomisd xmm0, QWORD PTR __real@c059000000000000
  00030	9f		 lahf
  00031	f6 c4 44	 test	 ah, 68			; 00000044H
  00034	7b 7e		 jnp	 SHORT $LN1@SetPercent

; 801  : 		return;
; 802  : 
; 803  : 	CString strText;

  00036	8d 4d f0	 lea	 ecx, DWORD PTR _strText$[ebp]
  00039	ff 15 00 00 00
	00		 call	 DWORD PTR __imp_??0?$CStringT@DV?$StrTraitMFC_DLL@DV?$ChTraitsCRT@D@ATL@@@@@ATL@@QAE@XZ

; 804  : 	COLORREF clrBG;
; 805  : 
; 806  : 	strText.Format("%.2f", dValue);

  0003f	f2 0f 10 45 14	 movsd	 xmm0, QWORD PTR _dValue$[ebp]
  00044	8d 45 f0	 lea	 eax, DWORD PTR _strText$[ebp]
  00047	83 ec 08	 sub	 esp, 8
  0004a	c7 45 fc 00 00
	00 00		 mov	 DWORD PTR __$EHRec$[ebp+8], 0
  00051	f2 0f 11 04 24	 movsd	 QWORD PTR [esp], xmm0
  00056	68 00 00 00 00	 push	 OFFSET ??_C@_04GEFJINEE@?$CF?42f@
  0005b	50		 push	 eax
  0005c	ff 15 00 00 00
	00		 call	 DWORD PTR __imp_?Format@?$CStringT@DV?$StrTraitMFC_DLL@DV?$ChTraitsCRT@D@ATL@@@@@ATL@@QAAXPBDZZ

; 807  : 	pGridCtrl->SetItemText( nRow, nCol, strText);

  00062	8b 4d 08	 mov	 ecx, DWORD PTR _pGridCtrl$[ebp]
  00065	83 c4 10	 add	 esp, 16			; 00000010H
  00068	ff 75 f0	 push	 DWORD PTR _strText$[ebp]
  0006b	ff 75 10	 push	 DWORD PTR _nCol$[ebp]
  0006e	ff 75 0c	 push	 DWORD PTR _nRow$[ebp]
  00071	e8 00 00 00 00	 call	 ?SetItemText@CGridCtrl@@QAEHHHPBD@Z ; CGridCtrl::SetItemText

; 808  : 
; 809  : 	if ( dValue > 0)		// 

  00076	f2 0f 10 45 14	 movsd	 xmm0, QWORD PTR _dValue$[ebp]
  0007b	0f 57 c9	 xorps	 xmm1, xmm1
  0007e	66 0f 2f c1	 comisd	 xmm0, xmm1
  00082	76 07		 jbe	 SHORT $LN3@SetPercent

; 810  : 		clrBG = COLOR_BG_UPWARD_REVERSE;

  00084	b8 fa aa cb 00	 mov	 eax, 13347578		; 00cbaafaH
  00089	eb 11		 jmp	 SHORT $LN5@SetPercent
$LN3@SetPercent:

; 811  : 	else if ( dValue < 0)	// 

  0008b	66 0f 2f c8	 comisd	 xmm1, xmm0
  0008f	b8 ff ff ff 00	 mov	 eax, 16777215		; 00ffffffH
  00094	b9 ca e3 fd 00	 mov	 ecx, 16638922		; 00fde3caH
  00099	0f 47 c1	 cmova	 eax, ecx
$LN5@SetPercent:

; 812  : 		clrBG = COLOR_BG_DNWARD_REVERSE;
; 813  : 	else					// 
; 814  : 		clrBG = COLOR_WHITE;
; 815  : 
; 816  : 	pGridCtrl->SetItemBkColour( nRow, nCol, clrBG);

  0009c	8b 4d 08	 mov	 ecx, DWORD PTR _pGridCtrl$[ebp]
  0009f	50		 push	 eax
  000a0	ff 75 10	 push	 DWORD PTR _nCol$[ebp]
  000a3	ff 75 0c	 push	 DWORD PTR _nRow$[ebp]
  000a6	e8 00 00 00 00	 call	 ?SetItemBkColour@CGridCtrl@@QAEHHHK@Z ; CGridCtrl::SetItemBkColour

; 817  : }

  000ab	8d 4d f0	 lea	 ecx, DWORD PTR _strText$[ebp]
  000ae	ff 15 00 00 00
	00		 call	 DWORD PTR __imp_??1?$CStringT@DV?$StrTraitMFC_DLL@DV?$ChTraitsCRT@D@ATL@@@@@ATL@@QAE@XZ
$LN1@SetPercent:
  000b4	8b 4d f4	 mov	 ecx, DWORD PTR __$EHRec$[ebp]
  000b7	64 89 0d 00 00
	00 00		 mov	 DWORD PTR fs:0, ecx
  000be	59		 pop	 ecx
  000bf	8b e5		 mov	 esp, ebp
  000c1	5d		 pop	 ebp
  000c2	c2 14 00	 ret	 20			; 00000014H
_TEXT	ENDS
;	COMDAT text$x
text$x	SEGMENT
__unwindfunclet$?SetPercentNColor@CDlgAnalysis@@QAEXPAVCGridCtrl@@HHN@Z$0:
  00000	8d 4d f0	 lea	 ecx, DWORD PTR _strText$[ebp]
  00003	ff 25 00 00 00
	00		 jmp	 DWORD PTR __imp_??1?$CStringT@DV?$StrTraitMFC_DLL@DV?$ChTraitsCRT@D@ATL@@@@@ATL@@QAE@XZ
  00009	cc		 int	 3
  0000a	cc		 int	 3
  0000b	cc		 int	 3
  0000c	cc		 int	 3
  0000d	cc		 int	 3
__ehhandler$?SetPercentNColor@CDlgAnalysis@@QAEXPAVCGridCtrl@@HHN@Z:
  0000e	90		 npad	 1
  0000f	90		 npad	 1
  00010	8b 54 24 08	 mov	 edx, DWORD PTR [esp+8]
  00014	8d 42 0c	 lea	 eax, DWORD PTR [edx+12]
  00017	8b 4a f8	 mov	 ecx, DWORD PTR [edx-8]
  0001a	33 c8		 xor	 ecx, eax
  0001c	e8 00 00 00 00	 call	 @__security_check_cookie@4
  00021	b8 00 00 00 00	 mov	 eax, OFFSET __ehfuncinfo$?SetPercentNColor@CDlgAnalysis@@QAEXPAVCGridCtrl@@HHN@Z
  00026	e9 00 00 00 00	 jmp	 ___CxxFrameHandler3
text$x	ENDS
?SetPercentNColor@CDlgAnalysis@@QAEXPAVCGridCtrl@@HHN@Z ENDP ; CDlgAnalysis::SetPercentNColor
; Function compile flags: /Ogtp
; File D:\git\src\IBK\IBK_DRFN\ProjSrc\SrcChartEx\ChartAddIn\ChartPatternAddIn\DlgAnalysis.cpp
; File C:\Program Files (x86)\Microsoft Visual Studio\2019\Community\VC\Tools\MSVC\14.29.30133\atlmfc\include\afxtempl.h
; File D:\git\src\IBK\IBK_DRFN\ProjSrc\SrcChartEx\ChartAddIn\ChartPatternAddIn\DlgAnalysis.cpp
; File C:\Program Files (x86)\Microsoft Visual Studio\2019\Community\VC\Tools\MSVC\14.29.30133\atlmfc\include\atlsimpstr.h
; File D:\git\src\IBK\IBK_DRFN\ProjSrc\SrcChartEx\ChartAddIn\ChartPatternAddIn\DlgAnalysis.cpp
; File C:\Program Files (x86)\Microsoft Visual Studio\2019\Community\VC\Tools\MSVC\14.29.30133\atlmfc\include\atlsimpstr.h
; File D:\git\src\IBK\IBK_DRFN\ProjSrc\SrcChartEx\ChartAddIn\ChartPatternAddIn\DlgAnalysis.cpp
; File C:\Program Files (x86)\Microsoft Visual Studio\2019\Community\VC\Tools\MSVC\14.29.30133\atlmfc\include\cstringt.h
; File D:\git\src\IBK\IBK_DRFN\ProjSrc\SrcChartEx\ChartAddIn\ChartPatternAddIn\DlgAnalysis.cpp
; File C:\Program Files (x86)\Microsoft Visual Studio\2019\Community\VC\Tools\MSVC\14.29.30133\atlmfc\include\cstringt.h
; File C:\Program Files (x86)\Microsoft Visual Studio\2019\Community\VC\Tools\MSVC\14.29.30133\atlmfc\include\atlsimpstr.h
; File C:\Program Files (x86)\Microsoft Visual Studio\2019\Community\VC\Tools\MSVC\14.29.30133\atlmfc\include\cstringt.h
; File D:\git\src\IBK\IBK_DRFN\ProjSrc\SrcChartEx\ChartAddIn\ChartPatternAddIn\DlgAnalysis.cpp
; File C:\Program Files (x86)\Microsoft Visual Studio\2019\Community\VC\Tools\MSVC\14.29.30133\atlmfc\include\cstringt.h
; File C:\Program Files (x86)\Microsoft Visual Studio\2019\Community\VC\Tools\MSVC\14.29.30133\atlmfc\include\atlsimpstr.h
; File C:\Program Files (x86)\Microsoft Visual Studio\2019\Community\VC\Tools\MSVC\14.29.30133\atlmfc\include\cstringt.h
; File D:\git\src\IBK\IBK_DRFN\ProjSrc\SrcChartEx\ChartAddIn\ChartPatternAddIn\DlgAnalysis.cpp
; File C:\Program Files (x86)\Microsoft Visual Studio\2019\Community\VC\Tools\MSVC\14.29.30133\atlmfc\include\cstringt.h
; File C:\Program Files (x86)\Microsoft Visual Studio\2019\Community\VC\Tools\MSVC\14.29.30133\atlmfc\include\atlsimpstr.h
; File C:\Program Files (x86)\Microsoft Visual Studio\2019\Community\VC\Tools\MSVC\14.29.30133\atlmfc\include\cstringt.h
; File D:\git\src\IBK\IBK_DRFN\ProjSrc\SrcChartEx\ChartAddIn\ChartPatternAddIn\DlgAnalysis.cpp
; File C:\Program Files (x86)\Microsoft Visual Studio\2019\Community\VC\Tools\MSVC\14.29.30133\atlmfc\include\cstringt.h
; File C:\Program Files (x86)\Microsoft Visual Studio\2019\Community\VC\Tools\MSVC\14.29.30133\atlmfc\include\atlsimpstr.h
; File C:\Program Files (x86)\Microsoft Visual Studio\2019\Community\VC\Tools\MSVC\14.29.30133\atlmfc\include\cstringt.h
; File C:\Program Files (x86)\Microsoft Visual Studio\2019\Community\VC\Tools\MSVC\14.29.30133\atlmfc\include\atlsimpstr.h
; File C:\Program Files (x86)\Microsoft Visual Studio\2019\Community\VC\Tools\MSVC\14.29.30133\atlmfc\include\cstringt.h
; File D:\git\src\IBK\IBK_DRFN\ProjSrc\SrcChartEx\ChartAddIn\ChartPatternAddIn\DlgAnalysis.cpp
; File C:\Program Files (x86)\Microsoft Visual Studio\2019\Community\VC\Tools\MSVC\14.29.30133\atlmfc\include\cstringt.h
; File C:\Program Files (x86)\Microsoft Visual Studio\2019\Community\VC\Tools\MSVC\14.29.30133\atlmfc\include\atlsimpstr.h
; File C:\Program Files (x86)\Microsoft Visual Studio\2019\Community\VC\Tools\MSVC\14.29.30133\atlmfc\include\cstringt.h
; File D:\git\src\IBK\IBK_DRFN\ProjSrc\SrcChartEx\ChartAddIn\ChartPatternAddIn\DlgAnalysis.cpp
; File C:\Program Files (x86)\Microsoft Visual Studio\2019\Community\VC\Tools\MSVC\14.29.30133\atlmfc\include\cstringt.h
; File C:\Program Files (x86)\Microsoft Visual Studio\2019\Community\VC\Tools\MSVC\14.29.30133\atlmfc\include\atlsimpstr.h
; File C:\Program Files (x86)\Microsoft Visual Studio\2019\Community\VC\Tools\MSVC\14.29.30133\atlmfc\include\cstringt.h
; File C:\Program Files (x86)\Microsoft Visual Studio\2019\Community\VC\Tools\MSVC\14.29.30133\atlmfc\include\atlsimpstr.h
; File C:\Program Files (x86)\Microsoft Visual Studio\2019\Community\VC\Tools\MSVC\14.29.30133\atlmfc\include\cstringt.h
; File C:\Program Files (x86)\Microsoft Visual Studio\2019\Community\VC\Tools\MSVC\14.29.30133\atlmfc\include\atlsimpstr.h
; File C:\Program Files (x86)\Microsoft Visual Studio\2019\Community\VC\Tools\MSVC\14.29.30133\atlmfc\include\cstringt.h
; File D:\git\src\IBK\IBK_DRFN\ProjSrc\SrcChartEx\ChartAddIn\ChartPatternAddIn\DlgAnalysis.cpp
; File C:\Program Files (x86)\Microsoft Visual Studio\2019\Community\VC\Tools\MSVC\14.29.30133\atlmfc\include\cstringt.h
; File D:\git\src\IBK\IBK_DRFN\ProjSrc\SrcChartEx\ChartAddIn\ChartPatternAddIn\DlgAnalysis.cpp
; File C:\Program Files (x86)\Microsoft Visual Studio\2019\Community\VC\Tools\MSVC\14.29.30133\atlmfc\include\cstringt.h
; File C:\Program Files (x86)\Microsoft Visual Studio\2019\Community\VC\Tools\MSVC\14.29.30133\atlmfc\include\atlsimpstr.h
; File C:\Program Files (x86)\Microsoft Visual Studio\2019\Community\VC\Tools\MSVC\14.29.30133\atlmfc\include\cstringt.h
; File D:\git\src\IBK\IBK_DRFN\ProjSrc\SrcChartEx\ChartAddIn\ChartPatternAddIn\DlgAnalysis.cpp
; File C:\Program Files (x86)\Microsoft Visual Studio\2019\Community\VC\Tools\MSVC\14.29.30133\atlmfc\include\cstringt.h
; File C:\Program Files (x86)\Microsoft Visual Studio\2019\Community\VC\Tools\MSVC\14.29.30133\atlmfc\include\atlsimpstr.h
; File C:\Program Files (x86)\Microsoft Visual Studio\2019\Community\VC\Tools\MSVC\14.29.30133\atlmfc\include\cstringt.h
; File D:\git\src\IBK\IBK_DRFN\ProjSrc\SrcChartEx\ChartAddIn\ChartPatternAddIn\DlgAnalysis.cpp
; File C:\Program Files (x86)\Microsoft Visual Studio\2019\Community\VC\Tools\MSVC\14.29.30133\atlmfc\include\cstringt.h
; File C:\Program Files (x86)\Microsoft Visual Studio\2019\Community\VC\Tools\MSVC\14.29.30133\atlmfc\include\atlsimpstr.h
; File C:\Program Files (x86)\Microsoft Visual Studio\2019\Community\VC\Tools\MSVC\14.29.30133\atlmfc\include\cstringt.h
; File D:\git\src\IBK\IBK_DRFN\ProjSrc\SrcChartEx\ChartAddIn\ChartPatternAddIn\DlgAnalysis.cpp
; File C:\Program Files (x86)\Microsoft Visual Studio\2019\Community\VC\Tools\MSVC\14.29.30133\atlmfc\include\cstringt.h
; File C:\Program Files (x86)\Microsoft Visual Studio\2019\Community\VC\Tools\MSVC\14.29.30133\atlmfc\include\atlsimpstr.h
; File C:\Program Files (x86)\Microsoft Visual Studio\2019\Community\VC\Tools\MSVC\14.29.30133\atlmfc\include\cstringt.h
; File C:\Program Files (x86)\Microsoft Visual Studio\2019\Community\VC\Tools\MSVC\14.29.30133\atlmfc\include\atlsimpstr.h
; File C:\Program Files (x86)\Microsoft Visual Studio\2019\Community\VC\Tools\MSVC\14.29.30133\atlmfc\include\cstringt.h
; File D:\git\src\IBK\IBK_DRFN\ProjSrc\SrcChartEx\ChartAddIn\ChartPatternAddIn\DlgAnalysis.cpp
; File C:\Program Files (x86)\Microsoft Visual Studio\2019\Community\VC\Tools\MSVC\14.29.30133\atlmfc\include\cstringt.h
; File D:\git\src\IBK\IBK_DRFN\ProjSrc\SrcChartEx\ChartAddIn\ChartPatternAddIn\DlgAnalysis.cpp
; File C:\Program Files (x86)\Microsoft Visual Studio\2019\Community\VC\Tools\MSVC\14.29.30133\atlmfc\include\cstringt.h
; File C:\Program Files (x86)\Microsoft Visual Studio\2019\Community\VC\Tools\MSVC\14.29.30133\atlmfc\include\atlsimpstr.h
; File C:\Program Files (x86)\Microsoft Visual Studio\2019\Community\VC\Tools\MSVC\14.29.30133\atlmfc\include\cstringt.h
; File D:\git\src\IBK\IBK_DRFN\ProjSrc\SrcChartEx\ChartAddIn\ChartPatternAddIn\DlgAnalysis.cpp
; File C:\Program Files (x86)\Microsoft Visual Studio\2019\Community\VC\Tools\MSVC\14.29.30133\atlmfc\include\cstringt.h
; File C:\Program Files (x86)\Microsoft Visual Studio\2019\Community\VC\Tools\MSVC\14.29.30133\atlmfc\include\atlsimpstr.h
; File C:\Program Files (x86)\Microsoft Visual Studio\2019\Community\VC\Tools\MSVC\14.29.30133\atlmfc\include\cstringt.h
; File D:\git\src\IBK\IBK_DRFN\ProjSrc\SrcChartEx\ChartAddIn\ChartPatternAddIn\DlgAnalysis.cpp
; File C:\Program Files (x86)\Microsoft Visual Studio\2019\Community\VC\Tools\MSVC\14.29.30133\atlmfc\include\cstringt.h
; File C:\Program Files (x86)\Microsoft Visual Studio\2019\Community\VC\Tools\MSVC\14.29.30133\atlmfc\include\atlsimpstr.h
; File C:\Program Files (x86)\Microsoft Visual Studio\2019\Community\VC\Tools\MSVC\14.29.30133\atlmfc\include\cstringt.h
; File D:\git\src\IBK\IBK_DRFN\ProjSrc\SrcChartEx\ChartAddIn\ChartPatternAddIn\DlgAnalysis.cpp
; File C:\Program Files (x86)\Microsoft Visual Studio\2019\Community\VC\Tools\MSVC\14.29.30133\atlmfc\include\cstringt.h
; File C:\Program Files (x86)\Microsoft Visual Studio\2019\Community\VC\Tools\MSVC\14.29.30133\atlmfc\include\atlsimpstr.h
; File C:\Program Files (x86)\Microsoft Visual Studio\2019\Community\VC\Tools\MSVC\14.29.30133\atlmfc\include\cstringt.h
; File D:\git\src\IBK\IBK_DRFN\ProjSrc\SrcChartEx\ChartAddIn\ChartPatternAddIn\DlgAnalysis.cpp
; File C:\Program Files (x86)\Microsoft Visual Studio\2019\Community\VC\Tools\MSVC\14.29.30133\atlmfc\include\cstringt.h
; File C:\Program Files (x86)\Microsoft Visual Studio\2019\Community\VC\Tools\MSVC\14.29.30133\atlmfc\include\atlsimpstr.h
; File C:\Program Files (x86)\Microsoft Visual Studio\2019\Community\VC\Tools\MSVC\14.29.30133\atlmfc\include\cstringt.h
; File C:\Program Files (x86)\Microsoft Visual Studio\2019\Community\VC\Tools\MSVC\14.29.30133\atlmfc\include\atlsimpstr.h
; File C:\Program Files (x86)\Microsoft Visual Studio\2019\Community\VC\Tools\MSVC\14.29.30133\atlmfc\include\cstringt.h
; File D:\git\src\IBK\IBK_DRFN\ProjSrc\SrcChartEx\ChartAddIn\ChartPatternAddIn\DlgAnalysis.cpp
; File C:\Program Files (x86)\Microsoft Visual Studio\2019\Community\VC\Tools\MSVC\14.29.30133\atlmfc\include\cstringt.h
; File C:\Program Files (x86)\Microsoft Visual Studio\2019\Community\VC\Tools\MSVC\14.29.30133\atlmfc\include\atlsimpstr.h
; File C:\Program Files (x86)\Microsoft Visual Studio\2019\Community\VC\Tools\MSVC\14.29.30133\atlmfc\include\cstringt.h
; File D:\git\src\IBK\IBK_DRFN\ProjSrc\SrcChartEx\ChartAddIn\ChartPatternAddIn\DlgAnalysis.cpp
; File C:\Program Files (x86)\Microsoft Visual Studio\2019\Community\VC\Tools\MSVC\14.29.30133\atlmfc\include\cstringt.h
; File C:\Program Files (x86)\Microsoft Visual Studio\2019\Community\VC\Tools\MSVC\14.29.30133\atlmfc\include\atlsimpstr.h
; File C:\Program Files (x86)\Microsoft Visual Studio\2019\Community\VC\Tools\MSVC\14.29.30133\atlmfc\include\cstringt.h
; File C:\Program Files (x86)\Microsoft Visual Studio\2019\Community\VC\Tools\MSVC\14.29.30133\atlmfc\include\atlsimpstr.h
; File C:\Program Files (x86)\Microsoft Visual Studio\2019\Community\VC\Tools\MSVC\14.29.30133\atlmfc\include\cstringt.h
; File C:\Program Files (x86)\Microsoft Visual Studio\2019\Community\VC\Tools\MSVC\14.29.30133\atlmfc\include\atlsimpstr.h
; File C:\Program Files (x86)\Microsoft Visual Studio\2019\Community\VC\Tools\MSVC\14.29.30133\atlmfc\include\cstringt.h
; File D:\git\src\IBK\IBK_DRFN\ProjSrc\SrcChartEx\ChartAddIn\ChartPatternAddIn\DlgAnalysis.cpp
; File C:\Program Files (x86)\Microsoft Visual Studio\2019\Community\VC\Tools\MSVC\14.29.30133\atlmfc\include\cstringt.h
; File D:\git\src\IBK\IBK_DRFN\ProjSrc\SrcChartEx\ChartAddIn\ChartPatternAddIn\DlgAnalysis.cpp
; File C:\Program Files (x86)\Microsoft Visual Studio\2019\Community\VC\Tools\MSVC\14.29.30133\atlmfc\include\cstringt.h
; File C:\Program Files (x86)\Microsoft Visual Studio\2019\Community\VC\Tools\MSVC\14.29.30133\atlmfc\include\atlsimpstr.h
; File C:\Program Files (x86)\Microsoft Visual Studio\2019\Community\VC\Tools\MSVC\14.29.30133\atlmfc\include\cstringt.h
; File D:\git\src\IBK\IBK_DRFN\ProjSrc\SrcChartEx\ChartAddIn\ChartPatternAddIn\DlgAnalysis.cpp
; File C:\Program Files (x86)\Microsoft Visual Studio\2019\Community\VC\Tools\MSVC\14.29.30133\atlmfc\include\cstringt.h
; File C:\Program Files (x86)\Microsoft Visual Studio\2019\Community\VC\Tools\MSVC\14.29.30133\atlmfc\include\atlsimpstr.h
; File C:\Program Files (x86)\Microsoft Visual Studio\2019\Community\VC\Tools\MSVC\14.29.30133\atlmfc\include\cstringt.h
; File D:\git\src\IBK\IBK_DRFN\ProjSrc\SrcChartEx\ChartAddIn\ChartPatternAddIn\DlgAnalysis.cpp
; File C:\Program Files (x86)\Microsoft Visual Studio\2019\Community\VC\Tools\MSVC\14.29.30133\atlmfc\include\cstringt.h
; File C:\Program Files (x86)\Microsoft Visual Studio\2019\Community\VC\Tools\MSVC\14.29.30133\atlmfc\include\atlsimpstr.h
; File C:\Program Files (x86)\Microsoft Visual Studio\2019\Community\VC\Tools\MSVC\14.29.30133\atlmfc\include\cstringt.h
; File D:\git\src\IBK\IBK_DRFN\ProjSrc\SrcChartEx\ChartAddIn\ChartPatternAddIn\DlgAnalysis.cpp
; File C:\Program Files (x86)\Microsoft Visual Studio\2019\Community\VC\Tools\MSVC\14.29.30133\atlmfc\include\cstringt.h
; File C:\Program Files (x86)\Microsoft Visual Studio\2019\Community\VC\Tools\MSVC\14.29.30133\atlmfc\include\atlsimpstr.h
; File C:\Program Files (x86)\Microsoft Visual Studio\2019\Community\VC\Tools\MSVC\14.29.30133\atlmfc\include\cstringt.h
; File C:\Program Files (x86)\Microsoft Visual Studio\2019\Community\VC\Tools\MSVC\14.29.30133\atlmfc\include\atlsimpstr.h
; File C:\Program Files (x86)\Microsoft Visual Studio\2019\Community\VC\Tools\MSVC\14.29.30133\atlmfc\include\cstringt.h
; File D:\git\src\IBK\IBK_DRFN\ProjSrc\SrcChartEx\ChartAddIn\ChartPatternAddIn\DlgAnalysis.cpp
; File C:\Program Files (x86)\Microsoft Visual Studio\2019\Community\VC\Tools\MSVC\14.29.30133\atlmfc\include\cstringt.h
; File D:\git\src\IBK\IBK_DRFN\ProjSrc\SrcChartEx\ChartAddIn\ChartPatternAddIn\DlgAnalysis.cpp
; File C:\Program Files (x86)\Microsoft Visual Studio\2019\Community\VC\Tools\MSVC\14.29.30133\atlmfc\include\cstringt.h
; File C:\Program Files (x86)\Microsoft Visual Studio\2019\Community\VC\Tools\MSVC\14.29.30133\atlmfc\include\atlsimpstr.h
; File C:\Program Files (x86)\Microsoft Visual Studio\2019\Community\VC\Tools\MSVC\14.29.30133\atlmfc\include\cstringt.h
; File D:\git\src\IBK\IBK_DRFN\ProjSrc\SrcChartEx\ChartAddIn\ChartPatternAddIn\DlgAnalysis.cpp
; File C:\Program Files (x86)\Microsoft Visual Studio\2019\Community\VC\Tools\MSVC\14.29.30133\atlmfc\include\cstringt.h
; File C:\Program Files (x86)\Microsoft Visual Studio\2019\Community\VC\Tools\MSVC\14.29.30133\atlmfc\include\atlsimpstr.h
; File C:\Program Files (x86)\Microsoft Visual Studio\2019\Community\VC\Tools\MSVC\14.29.30133\atlmfc\include\cstringt.h
; File C:\Program Files (x86)\Microsoft Visual Studio\2019\Community\VC\Tools\MSVC\14.29.30133\atlmfc\include\atlsimpstr.h
; File C:\Program Files (x86)\Microsoft Visual Studio\2019\Community\VC\Tools\MSVC\14.29.30133\atlmfc\include\cstringt.h
; File D:\git\src\IBK\IBK_DRFN\ProjSrc\SrcChartEx\ChartAddIn\ChartPatternAddIn\DlgAnalysis.cpp
; File C:\Program Files (x86)\Microsoft Visual Studio\2019\Community\VC\Tools\MSVC\14.29.30133\atlmfc\include\cstringt.h
; File C:\Program Files (x86)\Microsoft Visual Studio\2019\Community\VC\Tools\MSVC\14.29.30133\atlmfc\include\atlsimpstr.h
; File C:\Program Files (x86)\Microsoft Visual Studio\2019\Community\VC\Tools\MSVC\14.29.30133\atlmfc\include\cstringt.h
; File D:\git\src\IBK\IBK_DRFN\ProjSrc\SrcChartEx\ChartAddIn\ChartPatternAddIn\DlgAnalysis.cpp
; File C:\Program Files (x86)\Microsoft Visual Studio\2019\Community\VC\Tools\MSVC\14.29.30133\atlmfc\include\cstringt.h
; File D:\git\src\IBK\IBK_DRFN\ProjSrc\SrcChartEx\ChartAddIn\ChartPatternAddIn\DlgAnalysis.cpp
; File C:\Program Files (x86)\Microsoft Visual Studio\2019\Community\VC\Tools\MSVC\14.29.30133\atlmfc\include\cstringt.h
; File C:\Program Files (x86)\Microsoft Visual Studio\2019\Community\VC\Tools\MSVC\14.29.30133\atlmfc\include\atlsimpstr.h
; File C:\Program Files (x86)\Microsoft Visual Studio\2019\Community\VC\Tools\MSVC\14.29.30133\atlmfc\include\cstringt.h
; File D:\git\src\IBK\IBK_DRFN\ProjSrc\SrcChartEx\ChartAddIn\ChartPatternAddIn\DlgAnalysis.cpp
; File C:\Program Files (x86)\Microsoft Visual Studio\2019\Community\VC\Tools\MSVC\14.29.30133\atlmfc\include\cstringt.h
; File C:\Program Files (x86)\Microsoft Visual Studio\2019\Community\VC\Tools\MSVC\14.29.30133\atlmfc\include\atlsimpstr.h
; File C:\Program Files (x86)\Microsoft Visual Studio\2019\Community\VC\Tools\MSVC\14.29.30133\atlmfc\include\cstringt.h
; File D:\git\src\IBK\IBK_DRFN\ProjSrc\SrcChartEx\ChartAddIn\ChartPatternAddIn\DlgAnalysis.cpp
; File C:\Program Files (x86)\Microsoft Visual Studio\2019\Community\VC\Tools\MSVC\14.29.30133\atlmfc\include\cstringt.h
; File C:\Program Files (x86)\Microsoft Visual Studio\2019\Community\VC\Tools\MSVC\14.29.30133\atlmfc\include\atlsimpstr.h
; File C:\Program Files (x86)\Microsoft Visual Studio\2019\Community\VC\Tools\MSVC\14.29.30133\atlmfc\include\cstringt.h
; File C:\Program Files (x86)\Microsoft Visual Studio\2019\Community\VC\Tools\MSVC\14.29.30133\atlmfc\include\atlsimpstr.h
; File C:\Program Files (x86)\Microsoft Visual Studio\2019\Community\VC\Tools\MSVC\14.29.30133\atlmfc\include\cstringt.h
; File D:\git\src\IBK\IBK_DRFN\ProjSrc\SrcChartEx\ChartAddIn\ChartPatternAddIn\DlgAnalysis.cpp
; File C:\Program Files (x86)\Microsoft Visual Studio\2019\Community\VC\Tools\MSVC\14.29.30133\atlmfc\include\cstringt.h
; File C:\Program Files (x86)\Microsoft Visual Studio\2019\Community\VC\Tools\MSVC\14.29.30133\atlmfc\include\atlsimpstr.h
; File C:\Program Files (x86)\Microsoft Visual Studio\2019\Community\VC\Tools\MSVC\14.29.30133\atlmfc\include\cstringt.h
; File D:\git\src\IBK\IBK_DRFN\ProjSrc\SrcChartEx\ChartAddIn\ChartPatternAddIn\DlgAnalysis.cpp
; File C:\Program Files (x86)\Microsoft Visual Studio\2019\Community\VC\Tools\MSVC\14.29.30133\atlmfc\include\cstringt.h
; File C:\Program Files (x86)\Microsoft Visual Studio\2019\Community\VC\Tools\MSVC\14.29.30133\atlmfc\include\atlsimpstr.h
; File C:\Program Files (x86)\Microsoft Visual Studio\2019\Community\VC\Tools\MSVC\14.29.30133\atlmfc\include\cstringt.h
; File C:\Program Files (x86)\Microsoft Visual Studio\2019\Community\VC\Tools\MSVC\14.29.30133\atlmfc\include\atlsimpstr.h
; File C:\Program Files (x86)\Microsoft Visual Studio\2019\Community\VC\Tools\MSVC\14.29.30133\atlmfc\include\cstringt.h
; File D:\git\src\IBK\IBK_DRFN\ProjSrc\SrcChartEx\ChartAddIn\ChartPatternAddIn\DlgAnalysis.cpp
; File C:\Program Files (x86)\Microsoft Visual Studio\2019\Community\VC\Tools\MSVC\14.29.30133\atlmfc\include\cstringt.h
; File D:\git\src\IBK\IBK_DRFN\ProjSrc\SrcChartEx\ChartAddIn\ChartPatternAddIn\DlgAnalysis.cpp
; File C:\Program Files (x86)\Microsoft Visual Studio\2019\Community\VC\Tools\MSVC\14.29.30133\atlmfc\include\cstringt.h
; File C:\Program Files (x86)\Microsoft Visual Studio\2019\Community\VC\Tools\MSVC\14.29.30133\atlmfc\include\atlsimpstr.h
; File C:\Program Files (x86)\Microsoft Visual Studio\2019\Community\VC\Tools\MSVC\14.29.30133\atlmfc\include\cstringt.h
; File D:\git\src\IBK\IBK_DRFN\ProjSrc\SrcChartEx\ChartAddIn\ChartPatternAddIn\DlgAnalysis.cpp
; File C:\Program Files (x86)\Microsoft Visual Studio\2019\Community\VC\Tools\MSVC\14.29.30133\atlmfc\include\cstringt.h
; File C:\Program Files (x86)\Microsoft Visual Studio\2019\Community\VC\Tools\MSVC\14.29.30133\atlmfc\include\atlsimpstr.h
; File C:\Program Files (x86)\Microsoft Visual Studio\2019\Community\VC\Tools\MSVC\14.29.30133\atlmfc\include\cstringt.h
; File D:\git\src\IBK\IBK_DRFN\ProjSrc\SrcChartEx\ChartAddIn\ChartPatternAddIn\DlgAnalysis.cpp
; File C:\Program Files (x86)\Microsoft Visual Studio\2019\Community\VC\Tools\MSVC\14.29.30133\atlmfc\include\cstringt.h
; File C:\Program Files (x86)\Microsoft Visual Studio\2019\Community\VC\Tools\MSVC\14.29.30133\atlmfc\include\atlsimpstr.h
; File C:\Program Files (x86)\Microsoft Visual Studio\2019\Community\VC\Tools\MSVC\14.29.30133\atlmfc\include\cstringt.h
; File D:\git\src\IBK\IBK_DRFN\ProjSrc\SrcChartEx\ChartAddIn\ChartPatternAddIn\DlgAnalysis.cpp
; File C:\Program Files (x86)\Microsoft Visual Studio\2019\Community\VC\Tools\MSVC\14.29.30133\atlmfc\include\cstringt.h
; File C:\Program Files (x86)\Microsoft Visual Studio\2019\Community\VC\Tools\MSVC\14.29.30133\atlmfc\include\atlsimpstr.h
; File C:\Program Files (x86)\Microsoft Visual Studio\2019\Community\VC\Tools\MSVC\14.29.30133\atlmfc\include\cstringt.h
; File D:\git\src\IBK\IBK_DRFN\ProjSrc\SrcChartEx\ChartAddIn\ChartPatternAddIn\DlgAnalysis.cpp
; File C:\Program Files (x86)\Microsoft Visual Studio\2019\Community\VC\Tools\MSVC\14.29.30133\atlmfc\include\cstringt.h
; File C:\Program Files (x86)\Microsoft Visual Studio\2019\Community\VC\Tools\MSVC\14.29.30133\atlmfc\include\atlsimpstr.h
; File C:\Program Files (x86)\Microsoft Visual Studio\2019\Community\VC\Tools\MSVC\14.29.30133\atlmfc\include\cstringt.h
; File D:\git\src\IBK\IBK_DRFN\ProjSrc\SrcChartEx\ChartAddIn\ChartPatternAddIn\DlgAnalysis.cpp
; File C:\Program Files (x86)\Microsoft Visual Studio\2019\Community\VC\Tools\MSVC\14.29.30133\atlmfc\include\cstringt.h
; File C:\Program Files (x86)\Microsoft Visual Studio\2019\Community\VC\Tools\MSVC\14.29.30133\atlmfc\include\atlsimpstr.h
; File C:\Program Files (x86)\Microsoft Visual Studio\2019\Community\VC\Tools\MSVC\14.29.30133\atlmfc\include\cstringt.h
; File C:\Program Files (x86)\Microsoft Visual Studio\2019\Community\VC\Tools\MSVC\14.29.30133\atlmfc\include\atlsimpstr.h
; File C:\Program Files (x86)\Microsoft Visual Studio\2019\Community\VC\Tools\MSVC\14.29.30133\atlmfc\include\cstringt.h
; File C:\Program Files (x86)\Microsoft Visual Studio\2019\Community\VC\Tools\MSVC\14.29.30133\atlmfc\include\atlsimpstr.h
; File C:\Program Files (x86)\Microsoft Visual Studio\2019\Community\VC\Tools\MSVC\14.29.30133\atlmfc\include\cstringt.h
; File D:\git\src\IBK\IBK_DRFN\ProjSrc\SrcChartEx\ChartAddIn\ChartPatternAddIn\DlgAnalysis.cpp
; File C:\Program Files (x86)\Microsoft Visual Studio\2019\Community\VC\Tools\MSVC\14.29.30133\atlmfc\include\cstringt.h
; File C:\Program Files (x86)\Microsoft Visual Studio\2019\Community\VC\Tools\MSVC\14.29.30133\atlmfc\include\atlsimpstr.h
; File C:\Program Files (x86)\Microsoft Visual Studio\2019\Community\VC\Tools\MSVC\14.29.30133\atlmfc\include\cstringt.h
; File D:\git\src\IBK\IBK_DRFN\ProjSrc\SrcChartEx\ChartAddIn\ChartPatternAddIn\DlgAnalysis.cpp
; File C:\Program Files (x86)\Microsoft Visual Studio\2019\Community\VC\Tools\MSVC\14.29.30133\atlmfc\include\cstringt.h
; File C:\Program Files (x86)\Microsoft Visual Studio\2019\Community\VC\Tools\MSVC\14.29.30133\atlmfc\include\atlsimpstr.h
; File C:\Program Files (x86)\Microsoft Visual Studio\2019\Community\VC\Tools\MSVC\14.29.30133\atlmfc\include\cstringt.h
; File C:\Program Files (x86)\Microsoft Visual Studio\2019\Community\VC\Tools\MSVC\14.29.30133\atlmfc\include\atlsimpstr.h
; File C:\Program Files (x86)\Microsoft Visual Studio\2019\Community\VC\Tools\MSVC\14.29.30133\atlmfc\include\cstringt.h
; File C:\Program Files (x86)\Microsoft Visual Studio\2019\Community\VC\Tools\MSVC\14.29.30133\atlmfc\include\atlsimpstr.h
; File C:\Program Files (x86)\Microsoft Visual Studio\2019\Community\VC\Tools\MSVC\14.29.30133\atlmfc\include\cstringt.h
; File D:\git\src\IBK\IBK_DRFN\ProjSrc\SrcChartEx\ChartAddIn\ChartPatternAddIn\DlgAnalysis.cpp
; File C:\Program Files (x86)\Microsoft Visual Studio\2019\Community\VC\Tools\MSVC\14.29.30133\atlmfc\include\afxtempl.h
; File D:\git\src\IBK\IBK_DRFN\ProjSrc\SrcChartEx\ChartAddIn\ChartPatternAddIn\DlgAnalysis.cpp
;	COMDAT ?SetFoundCandlePtnToGrid_RptType1@CDlgAnalysis@@QAEXPAVCObject@@@Z
_TEXT	SEGMENT
$T2 = -332						; size = 4
$T3 = -328						; size = 4
$T4 = -324						; size = 4
$T5 = -320						; size = 4
$T6 = -316						; size = 4
$T7 = -312						; size = 4
$T8 = -308						; size = 4
$T9 = -304						; size = 4
$T10 = -300						; size = 4
$T11 = -296						; size = 4
$T12 = -292						; size = 4
$T13 = -288						; size = 4
$T14 = -284						; size = 4
$T15 = -280						; size = 4
$T16 = -276						; size = 4
$T17 = -272						; size = 4
$T18 = -268						; size = 4
$T19 = -264						; size = 4
$T20 = -260						; size = 4
$T21 = -256						; size = 4
$T22 = -252						; size = 4
$T23 = -248						; size = 4
$T24 = -244						; size = 4
$T25 = -240						; size = 4
$T26 = -236						; size = 4
$T27 = -232						; size = 4
$T28 = -228						; size = 4
_cpCandlePattern$ = -224				; size = 8
tv3400 = -216						; size = 4
$T29 = -212						; size = 4
_dBaseClose$1$ = -208					; size = 8
$T30 = -204						; size = 4
_nDataCnt$1$ = -200					; size = 4
$T31 = -196						; size = 4
$T32 = -192						; size = 4
$T33 = -188						; size = 4
$T34 = -184						; size = 4
$T35 = -180						; size = 4
$T36 = -176						; size = 4
$T37 = -172						; size = 4
$T38 = -168						; size = 4
$T39 = -164						; size = 4
$T40 = -160						; size = 4
$T41 = -156						; size = 4
$T42 = -152						; size = 4
$T43 = -148						; size = 4
$T44 = -144						; size = 4
$T45 = -140						; size = 4
$T46 = -136						; size = 4
$T47 = -132						; size = 4
$T48 = -128						; size = 4
$T49 = -124						; size = 4
$T50 = -120						; size = 4
$T51 = -116						; size = 4
$T52 = -112						; size = 4
$T53 = -108						; size = 4
$T54 = -104						; size = 4
$T55 = -100						; size = 4
$T56 = -96						; size = 4
$T57 = -92						; size = 4
$T58 = -88						; size = 4
$T59 = -84						; size = 4
$T60 = -80						; size = 4
$T61 = -76						; size = 4
$T62 = -72						; size = 4
$T63 = -68						; size = 4
$T64 = -64						; size = 4
$T65 = -60						; size = 4
$T66 = -56						; size = 4
$T67 = -52						; size = 4
_clrBG$ = -48						; size = 4
_this$1$ = -44						; size = 4
tv3401 = -40						; size = 4
$T68 = -36						; size = 4
$T69 = -36						; size = 4
$T70 = -36						; size = 4
_pCandlePatternData$1$ = -32				; size = 4
_strText$ = -28						; size = 4
_strTime$ = -24						; size = 4
$T71 = -20						; size = 4
$T72 = -16						; size = 4
__$EHRec$ = -12						; size = 12
_pObjCandlePatternData$ = 8				; size = 4
?SetFoundCandlePtnToGrid_RptType1@CDlgAnalysis@@QAEXPAVCObject@@@Z PROC ; CDlgAnalysis::SetFoundCandlePtnToGrid_RptType1, COMDAT
; _this$ = ecx

; 679  : {

  00000	55		 push	 ebp
  00001	8b ec		 mov	 ebp, esp
  00003	6a ff		 push	 -1
  00005	68 00 00 00 00	 push	 __ehhandler$?SetFoundCandlePtnToGrid_RptType1@CDlgAnalysis@@QAEXPAVCObject@@@Z
  0000a	64 a1 00 00 00
	00		 mov	 eax, DWORD PTR fs:0
  00010	50		 push	 eax
  00011	81 ec 40 01 00
	00		 sub	 esp, 320		; 00000140H
  00017	53		 push	 ebx
  00018	56		 push	 esi
  00019	57		 push	 edi
  0001a	a1 00 00 00 00	 mov	 eax, DWORD PTR ___security_cookie
  0001f	33 c5		 xor	 eax, ebp
  00021	50		 push	 eax
  00022	8d 45 f4	 lea	 eax, DWORD PTR __$EHRec$[ebp]
  00025	64 a3 00 00 00
	00		 mov	 DWORD PTR fs:0, eax
  0002b	8b f9		 mov	 edi, ecx
  0002d	89 7d d4	 mov	 DWORD PTR _this$1$[ebp], edi
  00030	33 db		 xor	 ebx, ebx
  00032	33 c0		 xor	 eax, eax
  00034	89 5d ec	 mov	 DWORD PTR $T71[ebp], ebx
  00037	89 45 dc	 mov	 DWORD PTR $T70[ebp], eax
  0003a	89 5d f0	 mov	 DWORD PTR $T72[ebp], ebx
  0003d	89 85 2c ff ff
	ff		 mov	 DWORD PTR $T29[ebp], eax

; 680  : 	if ( !m_pGridCandleRtpType1)	return;

  00043	39 87 ac 00 00
	00		 cmp	 DWORD PTR [edi+172], eax
  00049	0f 84 37 13 00
	00		 je	 $LN1@SetFoundCa

; 681  : 
; 682  : 
; 683  : 	CString strText, strTime;

  0004f	8d 4d e4	 lea	 ecx, DWORD PTR _strText$[ebp]
  00052	ff 15 00 00 00
	00		 call	 DWORD PTR __imp_??0?$CStringT@DV?$StrTraitMFC_DLL@DV?$ChTraitsCRT@D@ATL@@@@@ATL@@QAE@XZ
  00058	8d 4d e8	 lea	 ecx, DWORD PTR _strTime$[ebp]
  0005b	89 5d fc	 mov	 DWORD PTR __$EHRec$[ebp+8], ebx
  0005e	ff 15 00 00 00
	00		 call	 DWORD PTR __imp_??0?$CStringT@DV?$StrTraitMFC_DLL@DV?$ChTraitsCRT@D@ATL@@@@@ATL@@QAE@XZ

; 684  : 	int		nDataCnt, nRow, nPatternTrend;
; 685  : 	double	dBaseClose, dTemp;
; 686  : 	COLORREF clrBG;
; 687  : 
; 688  : 	CArrayObjPt(CCandlePatternData) paryCandlePatternData = NULL;
; 689  : 	paryCandlePatternData = (CArrayObjPt(CCandlePatternData))pObjCandlePatternData;
; 690  : 
; 691  : 	CCandlePattern cpCandlePattern;

  00064	8d 8d 20 ff ff
	ff		 lea	 ecx, DWORD PTR _cpCandlePattern$[ebp]
  0006a	c6 45 fc 01	 mov	 BYTE PTR __$EHRec$[ebp+8], 1
  0006e	e8 00 00 00 00	 call	 ??0CCandlePattern@@QAE@XZ ; CCandlePattern::CCandlePattern

; 692  : 	CCandlePatternData* pCandlePatternData = NULL;
; 693  : 
; 694  : 	nDataCnt = paryCandlePatternData->GetSize();

  00073	8b 45 08	 mov	 eax, DWORD PTR _pObjCandlePatternData$[ebp]

; 695  : 	InsertGridRow( m_pGridCandleRtpType1, nDataCnt);

  00076	8b cf		 mov	 ecx, edi
  00078	c6 45 fc 02	 mov	 BYTE PTR __$EHRec$[ebp+8], 2
  0007c	8b 70 08	 mov	 esi, DWORD PTR [eax+8]
  0007f	56		 push	 esi
  00080	ff b7 ac 00 00
	00		 push	 DWORD PTR [edi+172]
  00086	89 b5 38 ff ff
	ff		 mov	 DWORD PTR _nDataCnt$1$[ebp], esi
  0008c	e8 00 00 00 00	 call	 ?InsertGridRow@CDlgAnalysis@@QAEXPAVCGridCtrl@@H@Z ; CDlgAnalysis::InsertGridRow

; 696  : 
; 697  : 	for ( int i = 0; i < nDataCnt; i++)

  00091	85 f6		 test	 esi, esi
  00093	0f 8e c5 12 00
	00		 jle	 $LN3@SetFoundCa

; 681  : 
; 682  : 
; 683  : 	CString strText, strTime;

  00099	8b 8d 38 ff ff
	ff		 mov	 ecx, DWORD PTR _nDataCnt$1$[ebp]
  0009f	be 02 00 00 00	 mov	 esi, 2
  000a4	8b 95 38 ff ff
	ff		 mov	 edx, DWORD PTR _nDataCnt$1$[ebp]
  000aa	49		 dec	 ecx
  000ab	89 75 d8	 mov	 DWORD PTR tv3401[ebp], esi
  000ae	89 8d 28 ff ff
	ff		 mov	 DWORD PTR tv3400[ebp], ecx
$LL4@SetFoundCa:
; File C:\Program Files (x86)\Microsoft Visual Studio\2019\Community\VC\Tools\MSVC\14.29.30133\atlmfc\include\afxtempl.h

; 288  : 	if(nIndex >= 0 && nIndex < m_nSize)

  000b4	85 c9		 test	 ecx, ecx
  000b6	0f 88 de 12 00
	00		 js	 $LN95@SetFoundCa
  000bc	8b 45 08	 mov	 eax, DWORD PTR _pObjCandlePatternData$[ebp]
  000bf	3b 48 08	 cmp	 ecx, DWORD PTR [eax+8]
  000c2	0f 8d d2 12 00
	00		 jge	 $LN95@SetFoundCa

; 289  : 		return m_pData[nIndex];

  000c8	8b 40 04	 mov	 eax, DWORD PTR [eax+4]
; File D:\git\src\IBK\IBK_DRFN\ProjSrc\SrcChartEx\ChartAddIn\ChartPatternAddIn\DlgAnalysis.cpp

; 701  : 		pCandlePatternData = paryCandlePatternData->GetAt(nDataCnt-1-i);

  000cb	8b 04 88	 mov	 eax, DWORD PTR [eax+ecx*4]
  000ce	89 45 e0	 mov	 DWORD PTR _pCandlePatternData$1$[ebp], eax

; 702  : 
; 703  : 		if ( pCandlePatternData)

  000d1	85 c0		 test	 eax, eax
  000d3	0f 84 6f 12 00
	00		 je	 $LN2@SetFoundCa

; 704  : 		{
; 705  : 			// Number
; 706  : 			strText.Format("%d", i+1);

  000d9	8d 46 ff	 lea	 eax, DWORD PTR [esi-1]
  000dc	50		 push	 eax
  000dd	8d 45 e4	 lea	 eax, DWORD PTR _strText$[ebp]
  000e0	68 00 00 00 00	 push	 OFFSET ??_C@_02DPKJAMEF@?$CFd@
  000e5	50		 push	 eax
  000e6	ff 15 00 00 00
	00		 call	 DWORD PTR __imp_?Format@?$CStringT@DV?$StrTraitMFC_DLL@DV?$ChTraitsCRT@D@ATL@@@@@ATL@@QAAXPBDZZ

; 707  : 			m_pGridCandleRtpType1->SetItemText( nRow, COL_CND1_NUM, strText);

  000ec	8b 8f ac 00 00
	00		 mov	 ecx, DWORD PTR [edi+172]
  000f2	83 c4 0c	 add	 esp, 12			; 0000000cH
  000f5	ff 75 e4	 push	 DWORD PTR _strText$[ebp]
  000f8	6a 00		 push	 0
  000fa	56		 push	 esi
  000fb	e8 00 00 00 00	 call	 ?SetItemText@CGridCtrl@@QAEHHHPBD@Z ; CGridCtrl::SetItemText

; 710  : 			strTime.Format("%.f", pCandlePatternData->m_dTime);

  00100	8b 45 e0	 mov	 eax, DWORD PTR _pCandlePatternData$1$[ebp]
  00103	83 ec 08	 sub	 esp, 8
  00106	f2 0f 10 40 08	 movsd	 xmm0, QWORD PTR [eax+8]
  0010b	8d 45 e8	 lea	 eax, DWORD PTR _strTime$[ebp]
  0010e	f2 0f 11 04 24	 movsd	 QWORD PTR [esp], xmm0
  00113	68 00 00 00 00	 push	 OFFSET ??_C@_03EICDNICE@?$CF?4f@
  00118	50		 push	 eax
  00119	ff 15 00 00 00
	00		 call	 DWORD PTR __imp_?Format@?$CStringT@DV?$StrTraitMFC_DLL@DV?$ChTraitsCRT@D@ATL@@@@@ATL@@QAAXPBDZZ
; File C:\Program Files (x86)\Microsoft Visual Studio\2019\Community\VC\Tools\MSVC\14.29.30133\atlmfc\include\atlsimpstr.h

; 519  : 		return( GetData()->nDataLength );

  0011f	8b 45 e8	 mov	 eax, DWORD PTR _strTime$[ebp]
; File D:\git\src\IBK\IBK_DRFN\ProjSrc\SrcChartEx\ChartAddIn\ChartPatternAddIn\DlgAnalysis.cpp

; 710  : 			strTime.Format("%.f", pCandlePatternData->m_dTime);

  00122	83 c4 10	 add	 esp, 16			; 00000010H
; File C:\Program Files (x86)\Microsoft Visual Studio\2019\Community\VC\Tools\MSVC\14.29.30133\atlmfc\include\atlsimpstr.h

; 519  : 		return( GetData()->nDataLength );

  00125	8b 40 f4	 mov	 eax, DWORD PTR [eax-12]
; File D:\git\src\IBK\IBK_DRFN\ProjSrc\SrcChartEx\ChartAddIn\ChartPatternAddIn\DlgAnalysis.cpp

; 712  : 			if(strTime.GetLength() == 8)

  00128	83 f8 08	 cmp	 eax, 8
  0012b	0f 85 1d 04 00
	00		 jne	 $LN7@SetFoundCa

; 713  : 			{
; 714  : 				// /
; 715  : 				if(strTime.GetAt(0) == '1' && ((strTime.GetAt(1) - '1') < 3))

  00131	6a 00		 push	 0
  00133	8d 4d e8	 lea	 ecx, DWORD PTR _strTime$[ebp]
  00136	ff 15 00 00 00
	00		 call	 DWORD PTR __imp_?GetAt@?$CSimpleStringT@D$00@ATL@@QBEDH@Z
  0013c	3c 31		 cmp	 al, 49			; 00000031H
  0013e	0f 85 5e 02 00
	00		 jne	 $LN9@SetFoundCa
  00144	6a 01		 push	 1
  00146	8d 4d e8	 lea	 ecx, DWORD PTR _strTime$[ebp]
  00149	ff 15 00 00 00
	00		 call	 DWORD PTR __imp_?GetAt@?$CSimpleStringT@D$00@ATL@@QBEDH@Z
  0014f	3c 34		 cmp	 al, 52			; 00000034H
  00151	0f 8d 4b 02 00
	00		 jge	 $LN9@SetFoundCa

; 716  : 					strText = strTime.Left(2) + "/" + strTime.Mid(2, 2) + "/" + strTime.Mid(4, 2) + ":" + strTime.Mid(6);

  00157	6a 06		 push	 6
  00159	8d 85 10 ff ff
	ff		 lea	 eax, DWORD PTR $T25[ebp]
  0015f	50		 push	 eax
  00160	8d 4d e8	 lea	 ecx, DWORD PTR _strTime$[ebp]
  00163	ff 15 00 00 00
	00		 call	 DWORD PTR __imp_?Mid@?$CStringT@DV?$StrTraitMFC_DLL@DV?$ChTraitsCRT@D@ATL@@@@@ATL@@QBE?AV12@H@Z
  00169	89 45 dc	 mov	 DWORD PTR $T69[ebp], eax
  0016c	6a 02		 push	 2
  0016e	6a 04		 push	 4
  00170	8d 85 14 ff ff
	ff		 lea	 eax, DWORD PTR $T26[ebp]
  00176	c6 45 fc 03	 mov	 BYTE PTR __$EHRec$[ebp+8], 3
  0017a	50		 push	 eax
  0017b	8d 4d e8	 lea	 ecx, DWORD PTR _strTime$[ebp]
  0017e	ff 15 00 00 00
	00		 call	 DWORD PTR __imp_?Mid@?$CStringT@DV?$StrTraitMFC_DLL@DV?$ChTraitsCRT@D@ATL@@@@@ATL@@QBE?AV12@HH@Z
  00184	8b d8		 mov	 ebx, eax
  00186	6a 02		 push	 2
  00188	6a 02		 push	 2
  0018a	8d 85 18 ff ff
	ff		 lea	 eax, DWORD PTR $T27[ebp]
  00190	c6 45 fc 04	 mov	 BYTE PTR __$EHRec$[ebp+8], 4
  00194	50		 push	 eax
  00195	8d 4d e8	 lea	 ecx, DWORD PTR _strTime$[ebp]
  00198	ff 15 00 00 00
	00		 call	 DWORD PTR __imp_?Mid@?$CStringT@DV?$StrTraitMFC_DLL@DV?$ChTraitsCRT@D@ATL@@@@@ATL@@QBE?AV12@HH@Z
  0019e	8b f8		 mov	 edi, eax
  001a0	6a 02		 push	 2
  001a2	8d 85 1c ff ff
	ff		 lea	 eax, DWORD PTR $T28[ebp]
  001a8	c6 45 fc 05	 mov	 BYTE PTR __$EHRec$[ebp+8], 5
  001ac	50		 push	 eax
  001ad	8d 4d e8	 lea	 ecx, DWORD PTR _strTime$[ebp]
  001b0	ff 15 00 00 00
	00		 call	 DWORD PTR __imp_?Left@?$CStringT@DV?$StrTraitMFC_DLL@DV?$ChTraitsCRT@D@ATL@@@@@ATL@@QBE?AV12@H@Z
  001b6	8b f0		 mov	 esi, eax
; File C:\Program Files (x86)\Microsoft Visual Studio\2019\Community\VC\Tools\MSVC\14.29.30133\atlmfc\include\cstringt.h

; 2401 : 		CStringT strResult( str1.GetManager() );

  001b8	8b ce		 mov	 ecx, esi
; File D:\git\src\IBK\IBK_DRFN\ProjSrc\SrcChartEx\ChartAddIn\ChartPatternAddIn\DlgAnalysis.cpp

; 716  : 					strText = strTime.Left(2) + "/" + strTime.Mid(2, 2) + "/" + strTime.Mid(4, 2) + ":" + strTime.Mid(6);

  001ba	c6 45 fc 07	 mov	 BYTE PTR __$EHRec$[ebp+8], 7
; File C:\Program Files (x86)\Microsoft Visual Studio\2019\Community\VC\Tools\MSVC\14.29.30133\atlmfc\include\cstringt.h

; 2401 : 		CStringT strResult( str1.GetManager() );

  001be	ff 15 00 00 00
	00		 call	 DWORD PTR __imp_?GetManager@?$CStringT@DV?$StrTraitMFC_DLL@DV?$ChTraitsCRT@D@ATL@@@@@ATL@@QBEPAUIAtlStringMgr@2@XZ
  001c4	50		 push	 eax
  001c5	8d 4d bc	 lea	 ecx, DWORD PTR $T63[ebp]
  001c8	ff 15 00 00 00
	00		 call	 DWORD PTR __imp_??0?$CStringT@DV?$StrTraitMFC_DLL@DV?$ChTraitsCRT@D@ATL@@@@@ATL@@QAE@PAUIAtlStringMgr@1@@Z

; 2405 : 		return( strResult );

  001ce	8b 45 f0	 mov	 eax, DWORD PTR $T72[ebp]
  001d1	83 c8 01	 or	 eax, 1
  001d4	89 45 f0	 mov	 DWORD PTR $T72[ebp], eax
  001d7	89 45 ec	 mov	 DWORD PTR $T71[ebp], eax
; File C:\Program Files (x86)\Microsoft Visual Studio\2019\Community\VC\Tools\MSVC\14.29.30133\atlmfc\include\atlsimpstr.h

; 519  : 		return( GetData()->nDataLength );

  001da	8b 06		 mov	 eax, DWORD PTR [esi]
; File C:\Program Files (x86)\Microsoft Visual Studio\2019\Community\VC\Tools\MSVC\14.29.30133\atlmfc\include\cstringt.h

; 2403 : 		CThisSimpleString::Concatenate( strResult, str1, str1.GetLength(), psz2, CThisSimpleString::StringLength( psz2 ) );

  001dc	6a 01		 push	 1
  001de	68 00 00 00 00	 push	 OFFSET ??_C@_01KMDKNFGN@?1@
  001e3	ff 70 f4	 push	 DWORD PTR [eax-12]
  001e6	50		 push	 eax
  001e7	8d 45 bc	 lea	 eax, DWORD PTR $T63[ebp]
  001ea	50		 push	 eax
  001eb	ff 15 00 00 00
	00		 call	 DWORD PTR __imp_?Concatenate@?$CSimpleStringT@D$00@ATL@@KAXAAV12@PBDH1H@Z
  001f1	83 c4 14	 add	 esp, 20			; 00000014H

; 2390 : 		CStringT strResult( str1.GetManager() );

  001f4	8d 4d bc	 lea	 ecx, DWORD PTR $T63[ebp]
; File D:\git\src\IBK\IBK_DRFN\ProjSrc\SrcChartEx\ChartAddIn\ChartPatternAddIn\DlgAnalysis.cpp

; 716  : 					strText = strTime.Left(2) + "/" + strTime.Mid(2, 2) + "/" + strTime.Mid(4, 2) + ":" + strTime.Mid(6);

  001f7	c6 45 fc 08	 mov	 BYTE PTR __$EHRec$[ebp+8], 8
; File C:\Program Files (x86)\Microsoft Visual Studio\2019\Community\VC\Tools\MSVC\14.29.30133\atlmfc\include\cstringt.h

; 2390 : 		CStringT strResult( str1.GetManager() );

  001fb	ff 15 00 00 00
	00		 call	 DWORD PTR __imp_?GetManager@?$CStringT@DV?$StrTraitMFC_DLL@DV?$ChTraitsCRT@D@ATL@@@@@ATL@@QBEPAUIAtlStringMgr@2@XZ
  00201	50		 push	 eax
  00202	8d 4d c0	 lea	 ecx, DWORD PTR $T64[ebp]
  00205	ff 15 00 00 00
	00		 call	 DWORD PTR __imp_??0?$CStringT@DV?$StrTraitMFC_DLL@DV?$ChTraitsCRT@D@ATL@@@@@ATL@@QAE@PAUIAtlStringMgr@1@@Z
; File C:\Program Files (x86)\Microsoft Visual Studio\2019\Community\VC\Tools\MSVC\14.29.30133\atlmfc\include\atlsimpstr.h

; 519  : 		return( GetData()->nDataLength );

  0020b	8b 0f		 mov	 ecx, DWORD PTR [edi]
  0020d	8b 45 bc	 mov	 eax, DWORD PTR $T63[ebp]
; File C:\Program Files (x86)\Microsoft Visual Studio\2019\Community\VC\Tools\MSVC\14.29.30133\atlmfc\include\cstringt.h

; 2394 : 		return( strResult );

  00210	8b 75 f0	 mov	 esi, DWORD PTR $T72[ebp]
  00213	83 ce 02	 or	 esi, 2
  00216	ff 71 f4	 push	 DWORD PTR [ecx-12]
  00219	89 75 ec	 mov	 DWORD PTR $T71[ebp], esi
  0021c	51		 push	 ecx
  0021d	ff 70 f4	 push	 DWORD PTR [eax-12]
  00220	50		 push	 eax
  00221	8d 45 c0	 lea	 eax, DWORD PTR $T64[ebp]
  00224	50		 push	 eax
  00225	ff 15 00 00 00
	00		 call	 DWORD PTR __imp_?Concatenate@?$CSimpleStringT@D$00@ATL@@KAXAAV12@PBDH1H@Z
  0022b	83 c4 14	 add	 esp, 20			; 00000014H

; 2401 : 		CStringT strResult( str1.GetManager() );

  0022e	8d 4d c0	 lea	 ecx, DWORD PTR $T64[ebp]
; File D:\git\src\IBK\IBK_DRFN\ProjSrc\SrcChartEx\ChartAddIn\ChartPatternAddIn\DlgAnalysis.cpp

; 716  : 					strText = strTime.Left(2) + "/" + strTime.Mid(2, 2) + "/" + strTime.Mid(4, 2) + ":" + strTime.Mid(6);

  00231	c6 45 fc 09	 mov	 BYTE PTR __$EHRec$[ebp+8], 9
; File C:\Program Files (x86)\Microsoft Visual Studio\2019\Community\VC\Tools\MSVC\14.29.30133\atlmfc\include\cstringt.h

; 2401 : 		CStringT strResult( str1.GetManager() );

  00235	ff 15 00 00 00
	00		 call	 DWORD PTR __imp_?GetManager@?$CStringT@DV?$StrTraitMFC_DLL@DV?$ChTraitsCRT@D@ATL@@@@@ATL@@QBEPAUIAtlStringMgr@2@XZ
  0023b	50		 push	 eax
  0023c	8d 4d c4	 lea	 ecx, DWORD PTR $T65[ebp]
  0023f	ff 15 00 00 00
	00		 call	 DWORD PTR __imp_??0?$CStringT@DV?$StrTraitMFC_DLL@DV?$ChTraitsCRT@D@ATL@@@@@ATL@@QAE@PAUIAtlStringMgr@1@@Z

; 2405 : 		return( strResult );

  00245	83 ce 04	 or	 esi, 4
; File C:\Program Files (x86)\Microsoft Visual Studio\2019\Community\VC\Tools\MSVC\14.29.30133\atlmfc\include\atlsimpstr.h

; 519  : 		return( GetData()->nDataLength );

  00248	8b 45 c0	 mov	 eax, DWORD PTR $T64[ebp]
; File C:\Program Files (x86)\Microsoft Visual Studio\2019\Community\VC\Tools\MSVC\14.29.30133\atlmfc\include\cstringt.h

; 2403 : 		CThisSimpleString::Concatenate( strResult, str1, str1.GetLength(), psz2, CThisSimpleString::StringLength( psz2 ) );

  0024b	6a 01		 push	 1
  0024d	68 00 00 00 00	 push	 OFFSET ??_C@_01KMDKNFGN@?1@

; 2405 : 		return( strResult );

  00252	89 75 ec	 mov	 DWORD PTR $T71[ebp], esi
  00255	ff 70 f4	 push	 DWORD PTR [eax-12]
  00258	50		 push	 eax
  00259	8d 45 c4	 lea	 eax, DWORD PTR $T65[ebp]
  0025c	50		 push	 eax
  0025d	ff 15 00 00 00
	00		 call	 DWORD PTR __imp_?Concatenate@?$CSimpleStringT@D$00@ATL@@KAXAAV12@PBDH1H@Z
  00263	83 c4 14	 add	 esp, 20			; 00000014H

; 2390 : 		CStringT strResult( str1.GetManager() );

  00266	8d 4d c4	 lea	 ecx, DWORD PTR $T65[ebp]
; File D:\git\src\IBK\IBK_DRFN\ProjSrc\SrcChartEx\ChartAddIn\ChartPatternAddIn\DlgAnalysis.cpp

; 716  : 					strText = strTime.Left(2) + "/" + strTime.Mid(2, 2) + "/" + strTime.Mid(4, 2) + ":" + strTime.Mid(6);

  00269	c6 45 fc 0a	 mov	 BYTE PTR __$EHRec$[ebp+8], 10 ; 0000000aH
; File C:\Program Files (x86)\Microsoft Visual Studio\2019\Community\VC\Tools\MSVC\14.29.30133\atlmfc\include\cstringt.h

; 2390 : 		CStringT strResult( str1.GetManager() );

  0026d	ff 15 00 00 00
	00		 call	 DWORD PTR __imp_?GetManager@?$CStringT@DV?$StrTraitMFC_DLL@DV?$ChTraitsCRT@D@ATL@@@@@ATL@@QBEPAUIAtlStringMgr@2@XZ
  00273	50		 push	 eax
  00274	8d 4d c8	 lea	 ecx, DWORD PTR $T66[ebp]
  00277	ff 15 00 00 00
	00		 call	 DWORD PTR __imp_??0?$CStringT@DV?$StrTraitMFC_DLL@DV?$ChTraitsCRT@D@ATL@@@@@ATL@@QAE@PAUIAtlStringMgr@1@@Z
; File C:\Program Files (x86)\Microsoft Visual Studio\2019\Community\VC\Tools\MSVC\14.29.30133\atlmfc\include\atlsimpstr.h

; 519  : 		return( GetData()->nDataLength );

  0027d	8b 0b		 mov	 ecx, DWORD PTR [ebx]
; File C:\Program Files (x86)\Microsoft Visual Studio\2019\Community\VC\Tools\MSVC\14.29.30133\atlmfc\include\cstringt.h

; 2394 : 		return( strResult );

  0027f	83 ce 08	 or	 esi, 8
; File C:\Program Files (x86)\Microsoft Visual Studio\2019\Community\VC\Tools\MSVC\14.29.30133\atlmfc\include\atlsimpstr.h

; 519  : 		return( GetData()->nDataLength );

  00282	8b 45 c4	 mov	 eax, DWORD PTR $T65[ebp]
; File C:\Program Files (x86)\Microsoft Visual Studio\2019\Community\VC\Tools\MSVC\14.29.30133\atlmfc\include\cstringt.h

; 2394 : 		return( strResult );

  00285	89 75 ec	 mov	 DWORD PTR $T71[ebp], esi
  00288	ff 71 f4	 push	 DWORD PTR [ecx-12]
  0028b	51		 push	 ecx
  0028c	ff 70 f4	 push	 DWORD PTR [eax-12]
  0028f	50		 push	 eax
  00290	8d 45 c8	 lea	 eax, DWORD PTR $T66[ebp]
  00293	50		 push	 eax
  00294	ff 15 00 00 00
	00		 call	 DWORD PTR __imp_?Concatenate@?$CSimpleStringT@D$00@ATL@@KAXAAV12@PBDH1H@Z
  0029a	83 c4 14	 add	 esp, 20			; 00000014H

; 2401 : 		CStringT strResult( str1.GetManager() );

  0029d	8d 4d c8	 lea	 ecx, DWORD PTR $T66[ebp]
; File D:\git\src\IBK\IBK_DRFN\ProjSrc\SrcChartEx\ChartAddIn\ChartPatternAddIn\DlgAnalysis.cpp

; 716  : 					strText = strTime.Left(2) + "/" + strTime.Mid(2, 2) + "/" + strTime.Mid(4, 2) + ":" + strTime.Mid(6);

  002a0	c6 45 fc 0b	 mov	 BYTE PTR __$EHRec$[ebp+8], 11 ; 0000000bH
; File C:\Program Files (x86)\Microsoft Visual Studio\2019\Community\VC\Tools\MSVC\14.29.30133\atlmfc\include\cstringt.h

; 2401 : 		CStringT strResult( str1.GetManager() );

  002a4	ff 15 00 00 00
	00		 call	 DWORD PTR __imp_?GetManager@?$CStringT@DV?$StrTraitMFC_DLL@DV?$ChTraitsCRT@D@ATL@@@@@ATL@@QBEPAUIAtlStringMgr@2@XZ
  002aa	50		 push	 eax
  002ab	8d 4d cc	 lea	 ecx, DWORD PTR $T67[ebp]
  002ae	ff 15 00 00 00
	00		 call	 DWORD PTR __imp_??0?$CStringT@DV?$StrTraitMFC_DLL@DV?$ChTraitsCRT@D@ATL@@@@@ATL@@QAE@PAUIAtlStringMgr@1@@Z
; File C:\Program Files (x86)\Microsoft Visual Studio\2019\Community\VC\Tools\MSVC\14.29.30133\atlmfc\include\atlsimpstr.h

; 519  : 		return( GetData()->nDataLength );

  002b4	8b 45 c8	 mov	 eax, DWORD PTR $T66[ebp]
; File C:\Program Files (x86)\Microsoft Visual Studio\2019\Community\VC\Tools\MSVC\14.29.30133\atlmfc\include\cstringt.h

; 2405 : 		return( strResult );

  002b7	83 ce 10	 or	 esi, 16			; 00000010H
  002ba	6a 01		 push	 1
  002bc	68 00 00 00 00	 push	 OFFSET ??_C@_01JLIPDDHJ@?3@
  002c1	89 75 ec	 mov	 DWORD PTR $T71[ebp], esi
  002c4	ff 70 f4	 push	 DWORD PTR [eax-12]
  002c7	50		 push	 eax
  002c8	8d 45 cc	 lea	 eax, DWORD PTR $T67[ebp]
  002cb	50		 push	 eax
  002cc	ff 15 00 00 00
	00		 call	 DWORD PTR __imp_?Concatenate@?$CSimpleStringT@D$00@ATL@@KAXAAV12@PBDH1H@Z
  002d2	83 c4 14	 add	 esp, 20			; 00000014H

; 2390 : 		CStringT strResult( str1.GetManager() );

  002d5	8d 4d cc	 lea	 ecx, DWORD PTR $T67[ebp]
; File D:\git\src\IBK\IBK_DRFN\ProjSrc\SrcChartEx\ChartAddIn\ChartPatternAddIn\DlgAnalysis.cpp

; 716  : 					strText = strTime.Left(2) + "/" + strTime.Mid(2, 2) + "/" + strTime.Mid(4, 2) + ":" + strTime.Mid(6);

  002d8	c6 45 fc 0c	 mov	 BYTE PTR __$EHRec$[ebp+8], 12 ; 0000000cH
; File C:\Program Files (x86)\Microsoft Visual Studio\2019\Community\VC\Tools\MSVC\14.29.30133\atlmfc\include\cstringt.h

; 2390 : 		CStringT strResult( str1.GetManager() );

  002dc	ff 15 00 00 00
	00		 call	 DWORD PTR __imp_?GetManager@?$CStringT@DV?$StrTraitMFC_DLL@DV?$ChTraitsCRT@D@ATL@@@@@ATL@@QBEPAUIAtlStringMgr@2@XZ
  002e2	50		 push	 eax
  002e3	8d 8d 54 ff ff
	ff		 lea	 ecx, DWORD PTR $T37[ebp]
  002e9	ff 15 00 00 00
	00		 call	 DWORD PTR __imp_??0?$CStringT@DV?$StrTraitMFC_DLL@DV?$ChTraitsCRT@D@ATL@@@@@ATL@@QAE@PAUIAtlStringMgr@1@@Z
; File C:\Program Files (x86)\Microsoft Visual Studio\2019\Community\VC\Tools\MSVC\14.29.30133\atlmfc\include\atlsimpstr.h

; 519  : 		return( GetData()->nDataLength );

  002ef	8b 4d dc	 mov	 ecx, DWORD PTR $T69[ebp]
; File C:\Program Files (x86)\Microsoft Visual Studio\2019\Community\VC\Tools\MSVC\14.29.30133\atlmfc\include\cstringt.h

; 2394 : 		return( strResult );

  002f2	83 ce 20	 or	 esi, 32			; 00000020H
; File C:\Program Files (x86)\Microsoft Visual Studio\2019\Community\VC\Tools\MSVC\14.29.30133\atlmfc\include\atlsimpstr.h

; 519  : 		return( GetData()->nDataLength );

  002f5	8b 45 cc	 mov	 eax, DWORD PTR $T67[ebp]
; File C:\Program Files (x86)\Microsoft Visual Studio\2019\Community\VC\Tools\MSVC\14.29.30133\atlmfc\include\cstringt.h

; 2394 : 		return( strResult );

  002f8	89 75 ec	 mov	 DWORD PTR $T71[ebp], esi
; File C:\Program Files (x86)\Microsoft Visual Studio\2019\Community\VC\Tools\MSVC\14.29.30133\atlmfc\include\atlsimpstr.h

; 519  : 		return( GetData()->nDataLength );

  002fb	8b 09		 mov	 ecx, DWORD PTR [ecx]
; File C:\Program Files (x86)\Microsoft Visual Studio\2019\Community\VC\Tools\MSVC\14.29.30133\atlmfc\include\cstringt.h

; 2392 : 		CThisSimpleString::Concatenate( strResult, str1, str1.GetLength(), str2, str2.GetLength() );

  002fd	ff 71 f4	 push	 DWORD PTR [ecx-12]
  00300	51		 push	 ecx
  00301	ff 70 f4	 push	 DWORD PTR [eax-12]
  00304	50		 push	 eax
  00305	8d 85 54 ff ff
	ff		 lea	 eax, DWORD PTR $T37[ebp]
  0030b	50		 push	 eax
  0030c	ff 15 00 00 00
	00		 call	 DWORD PTR __imp_?Concatenate@?$CSimpleStringT@D$00@ATL@@KAXAAV12@PBDH1H@Z
  00312	83 c4 14	 add	 esp, 20			; 00000014H
; File D:\git\src\IBK\IBK_DRFN\ProjSrc\SrcChartEx\ChartAddIn\ChartPatternAddIn\DlgAnalysis.cpp

; 716  : 					strText = strTime.Left(2) + "/" + strTime.Mid(2, 2) + "/" + strTime.Mid(4, 2) + ":" + strTime.Mid(6);

  00315	8d 85 54 ff ff
	ff		 lea	 eax, DWORD PTR $T37[ebp]
  0031b	8d 4d e4	 lea	 ecx, DWORD PTR _strText$[ebp]
  0031e	50		 push	 eax
  0031f	ff 15 00 00 00
	00		 call	 DWORD PTR __imp_??4?$CStringT@DV?$StrTraitMFC_DLL@DV?$ChTraitsCRT@D@ATL@@@@@ATL@@QAEAAV01@ABV01@@Z
  00325	8d 8d 54 ff ff
	ff		 lea	 ecx, DWORD PTR $T37[ebp]
  0032b	83 e6 df	 and	 esi, -33		; ffffffdfH
  0032e	ff 15 00 00 00
	00		 call	 DWORD PTR __imp_??1?$CStringT@DV?$StrTraitMFC_DLL@DV?$ChTraitsCRT@D@ATL@@@@@ATL@@QAE@XZ
  00334	8d 4d cc	 lea	 ecx, DWORD PTR $T67[ebp]
  00337	83 e6 ef	 and	 esi, -17		; ffffffefH
  0033a	ff 15 00 00 00
	00		 call	 DWORD PTR __imp_??1?$CStringT@DV?$StrTraitMFC_DLL@DV?$ChTraitsCRT@D@ATL@@@@@ATL@@QAE@XZ
  00340	8d 4d c8	 lea	 ecx, DWORD PTR $T66[ebp]
  00343	83 e6 f7	 and	 esi, -9			; fffffff7H
  00346	ff 15 00 00 00
	00		 call	 DWORD PTR __imp_??1?$CStringT@DV?$StrTraitMFC_DLL@DV?$ChTraitsCRT@D@ATL@@@@@ATL@@QAE@XZ
  0034c	83 e6 fb	 and	 esi, -5			; fffffffbH
  0034f	8d 4d c4	 lea	 ecx, DWORD PTR $T65[ebp]
  00352	ff 15 00 00 00
	00		 call	 DWORD PTR __imp_??1?$CStringT@DV?$StrTraitMFC_DLL@DV?$ChTraitsCRT@D@ATL@@@@@ATL@@QAE@XZ
  00358	8d 4d c0	 lea	 ecx, DWORD PTR $T64[ebp]
  0035b	83 e6 fd	 and	 esi, -3			; fffffffdH
  0035e	ff 15 00 00 00
	00		 call	 DWORD PTR __imp_??1?$CStringT@DV?$StrTraitMFC_DLL@DV?$ChTraitsCRT@D@ATL@@@@@ATL@@QAE@XZ
  00364	83 e6 fe	 and	 esi, -2			; fffffffeH
  00367	8d 4d bc	 lea	 ecx, DWORD PTR $T63[ebp]
  0036a	89 75 f0	 mov	 DWORD PTR $T72[ebp], esi
  0036d	ff 15 00 00 00
	00		 call	 DWORD PTR __imp_??1?$CStringT@DV?$StrTraitMFC_DLL@DV?$ChTraitsCRT@D@ATL@@@@@ATL@@QAE@XZ
  00373	8d 8d 1c ff ff
	ff		 lea	 ecx, DWORD PTR $T28[ebp]
  00379	ff 15 00 00 00
	00		 call	 DWORD PTR __imp_??1?$CStringT@DV?$StrTraitMFC_DLL@DV?$ChTraitsCRT@D@ATL@@@@@ATL@@QAE@XZ
  0037f	8d 8d 18 ff ff
	ff		 lea	 ecx, DWORD PTR $T27[ebp]
  00385	ff 15 00 00 00
	00		 call	 DWORD PTR __imp_??1?$CStringT@DV?$StrTraitMFC_DLL@DV?$ChTraitsCRT@D@ATL@@@@@ATL@@QAE@XZ
  0038b	8d 8d 14 ff ff
	ff		 lea	 ecx, DWORD PTR $T26[ebp]
  00391	ff 15 00 00 00
	00		 call	 DWORD PTR __imp_??1?$CStringT@DV?$StrTraitMFC_DLL@DV?$ChTraitsCRT@D@ATL@@@@@ATL@@QAE@XZ
  00397	8d 8d 10 ff ff
	ff		 lea	 ecx, DWORD PTR $T25[ebp]
  0039d	e9 53 0d 00 00	 jmp	 $LN664@SetFoundCa
$LN9@SetFoundCa:

; 718  : 					strText = strTime.Left(4) + "-" + strTime.Mid(4, 2) + "-" + strTime.Mid(6);

  003a2	6a 06		 push	 6
  003a4	8d 85 04 ff ff
	ff		 lea	 eax, DWORD PTR $T22[ebp]
  003aa	50		 push	 eax
  003ab	8d 4d e8	 lea	 ecx, DWORD PTR _strTime$[ebp]
  003ae	ff 15 00 00 00
	00		 call	 DWORD PTR __imp_?Mid@?$CStringT@DV?$StrTraitMFC_DLL@DV?$ChTraitsCRT@D@ATL@@@@@ATL@@QBE?AV12@H@Z
  003b4	8b d8		 mov	 ebx, eax
  003b6	6a 02		 push	 2
  003b8	6a 04		 push	 4
  003ba	8d 85 08 ff ff
	ff		 lea	 eax, DWORD PTR $T23[ebp]
  003c0	c6 45 fc 0d	 mov	 BYTE PTR __$EHRec$[ebp+8], 13 ; 0000000dH
  003c4	50		 push	 eax
  003c5	8d 4d e8	 lea	 ecx, DWORD PTR _strTime$[ebp]
  003c8	ff 15 00 00 00
	00		 call	 DWORD PTR __imp_?Mid@?$CStringT@DV?$StrTraitMFC_DLL@DV?$ChTraitsCRT@D@ATL@@@@@ATL@@QBE?AV12@HH@Z
  003ce	8b f8		 mov	 edi, eax
  003d0	6a 04		 push	 4
  003d2	8d 85 0c ff ff
	ff		 lea	 eax, DWORD PTR $T24[ebp]
  003d8	c6 45 fc 0e	 mov	 BYTE PTR __$EHRec$[ebp+8], 14 ; 0000000eH
  003dc	50		 push	 eax
  003dd	8d 4d e8	 lea	 ecx, DWORD PTR _strTime$[ebp]
  003e0	ff 15 00 00 00
	00		 call	 DWORD PTR __imp_?Left@?$CStringT@DV?$StrTraitMFC_DLL@DV?$ChTraitsCRT@D@ATL@@@@@ATL@@QBE?AV12@H@Z
  003e6	8b f0		 mov	 esi, eax
; File C:\Program Files (x86)\Microsoft Visual Studio\2019\Community\VC\Tools\MSVC\14.29.30133\atlmfc\include\cstringt.h

; 2401 : 		CStringT strResult( str1.GetManager() );

  003e8	8b ce		 mov	 ecx, esi
; File D:\git\src\IBK\IBK_DRFN\ProjSrc\SrcChartEx\ChartAddIn\ChartPatternAddIn\DlgAnalysis.cpp

; 718  : 					strText = strTime.Left(4) + "-" + strTime.Mid(4, 2) + "-" + strTime.Mid(6);

  003ea	c6 45 fc 10	 mov	 BYTE PTR __$EHRec$[ebp+8], 16 ; 00000010H
; File C:\Program Files (x86)\Microsoft Visual Studio\2019\Community\VC\Tools\MSVC\14.29.30133\atlmfc\include\cstringt.h

; 2401 : 		CStringT strResult( str1.GetManager() );

  003ee	ff 15 00 00 00
	00		 call	 DWORD PTR __imp_?GetManager@?$CStringT@DV?$StrTraitMFC_DLL@DV?$ChTraitsCRT@D@ATL@@@@@ATL@@QBEPAUIAtlStringMgr@2@XZ
  003f4	50		 push	 eax
  003f5	8d 4d b0	 lea	 ecx, DWORD PTR $T60[ebp]
  003f8	ff 15 00 00 00
	00		 call	 DWORD PTR __imp_??0?$CStringT@DV?$StrTraitMFC_DLL@DV?$ChTraitsCRT@D@ATL@@@@@ATL@@QAE@PAUIAtlStringMgr@1@@Z

; 2405 : 		return( strResult );

  003fe	8b 45 f0	 mov	 eax, DWORD PTR $T72[ebp]
  00401	83 c8 40	 or	 eax, 64			; 00000040H
  00404	89 45 f0	 mov	 DWORD PTR $T72[ebp], eax
  00407	89 45 ec	 mov	 DWORD PTR $T71[ebp], eax
; File C:\Program Files (x86)\Microsoft Visual Studio\2019\Community\VC\Tools\MSVC\14.29.30133\atlmfc\include\atlsimpstr.h

; 519  : 		return( GetData()->nDataLength );

  0040a	8b 06		 mov	 eax, DWORD PTR [esi]
; File C:\Program Files (x86)\Microsoft Visual Studio\2019\Community\VC\Tools\MSVC\14.29.30133\atlmfc\include\cstringt.h

; 2403 : 		CThisSimpleString::Concatenate( strResult, str1, str1.GetLength(), psz2, CThisSimpleString::StringLength( psz2 ) );

  0040c	6a 01		 push	 1
  0040e	68 00 00 00 00	 push	 OFFSET ??_C@_01JOAMLHOP@?9@
  00413	ff 70 f4	 push	 DWORD PTR [eax-12]
  00416	50		 push	 eax
  00417	8d 45 b0	 lea	 eax, DWORD PTR $T60[ebp]
  0041a	50		 push	 eax
  0041b	ff 15 00 00 00
	00		 call	 DWORD PTR __imp_?Concatenate@?$CSimpleStringT@D$00@ATL@@KAXAAV12@PBDH1H@Z
  00421	83 c4 14	 add	 esp, 20			; 00000014H

; 2390 : 		CStringT strResult( str1.GetManager() );

  00424	8d 4d b0	 lea	 ecx, DWORD PTR $T60[ebp]
; File D:\git\src\IBK\IBK_DRFN\ProjSrc\SrcChartEx\ChartAddIn\ChartPatternAddIn\DlgAnalysis.cpp

; 718  : 					strText = strTime.Left(4) + "-" + strTime.Mid(4, 2) + "-" + strTime.Mid(6);

  00427	c6 45 fc 11	 mov	 BYTE PTR __$EHRec$[ebp+8], 17 ; 00000011H
; File C:\Program Files (x86)\Microsoft Visual Studio\2019\Community\VC\Tools\MSVC\14.29.30133\atlmfc\include\cstringt.h

; 2390 : 		CStringT strResult( str1.GetManager() );

  0042b	ff 15 00 00 00
	00		 call	 DWORD PTR __imp_?GetManager@?$CStringT@DV?$StrTraitMFC_DLL@DV?$ChTraitsCRT@D@ATL@@@@@ATL@@QBEPAUIAtlStringMgr@2@XZ
  00431	50		 push	 eax
  00432	8d 4d b4	 lea	 ecx, DWORD PTR $T61[ebp]
  00435	ff 15 00 00 00
	00		 call	 DWORD PTR __imp_??0?$CStringT@DV?$StrTraitMFC_DLL@DV?$ChTraitsCRT@D@ATL@@@@@ATL@@QAE@PAUIAtlStringMgr@1@@Z
; File C:\Program Files (x86)\Microsoft Visual Studio\2019\Community\VC\Tools\MSVC\14.29.30133\atlmfc\include\atlsimpstr.h

; 519  : 		return( GetData()->nDataLength );

  0043b	8b 0f		 mov	 ecx, DWORD PTR [edi]
  0043d	8b 45 b0	 mov	 eax, DWORD PTR $T60[ebp]
; File C:\Program Files (x86)\Microsoft Visual Studio\2019\Community\VC\Tools\MSVC\14.29.30133\atlmfc\include\cstringt.h

; 2394 : 		return( strResult );

  00440	8b 75 f0	 mov	 esi, DWORD PTR $T72[ebp]
  00443	81 ce 80 00 00
	00		 or	 esi, 128		; 00000080H
  00449	ff 71 f4	 push	 DWORD PTR [ecx-12]
  0044c	89 75 ec	 mov	 DWORD PTR $T71[ebp], esi
  0044f	51		 push	 ecx
  00450	ff 70 f4	 push	 DWORD PTR [eax-12]
  00453	50		 push	 eax
  00454	8d 45 b4	 lea	 eax, DWORD PTR $T61[ebp]
  00457	50		 push	 eax
  00458	ff 15 00 00 00
	00		 call	 DWORD PTR __imp_?Concatenate@?$CSimpleStringT@D$00@ATL@@KAXAAV12@PBDH1H@Z
  0045e	83 c4 14	 add	 esp, 20			; 00000014H

; 2401 : 		CStringT strResult( str1.GetManager() );

  00461	8d 4d b4	 lea	 ecx, DWORD PTR $T61[ebp]
; File D:\git\src\IBK\IBK_DRFN\ProjSrc\SrcChartEx\ChartAddIn\ChartPatternAddIn\DlgAnalysis.cpp

; 718  : 					strText = strTime.Left(4) + "-" + strTime.Mid(4, 2) + "-" + strTime.Mid(6);

  00464	c6 45 fc 12	 mov	 BYTE PTR __$EHRec$[ebp+8], 18 ; 00000012H
; File C:\Program Files (x86)\Microsoft Visual Studio\2019\Community\VC\Tools\MSVC\14.29.30133\atlmfc\include\cstringt.h

; 2401 : 		CStringT strResult( str1.GetManager() );

  00468	ff 15 00 00 00
	00		 call	 DWORD PTR __imp_?GetManager@?$CStringT@DV?$StrTraitMFC_DLL@DV?$ChTraitsCRT@D@ATL@@@@@ATL@@QBEPAUIAtlStringMgr@2@XZ
  0046e	50		 push	 eax
  0046f	8d 4d b8	 lea	 ecx, DWORD PTR $T62[ebp]
  00472	ff 15 00 00 00
	00		 call	 DWORD PTR __imp_??0?$CStringT@DV?$StrTraitMFC_DLL@DV?$ChTraitsCRT@D@ATL@@@@@ATL@@QAE@PAUIAtlStringMgr@1@@Z
; File C:\Program Files (x86)\Microsoft Visual Studio\2019\Community\VC\Tools\MSVC\14.29.30133\atlmfc\include\atlsimpstr.h

; 519  : 		return( GetData()->nDataLength );

  00478	8b 45 b4	 mov	 eax, DWORD PTR $T61[ebp]
; File C:\Program Files (x86)\Microsoft Visual Studio\2019\Community\VC\Tools\MSVC\14.29.30133\atlmfc\include\cstringt.h

; 2405 : 		return( strResult );

  0047b	81 ce 00 01 00
	00		 or	 esi, 256		; 00000100H
  00481	6a 01		 push	 1
  00483	68 00 00 00 00	 push	 OFFSET ??_C@_01JOAMLHOP@?9@
  00488	89 75 ec	 mov	 DWORD PTR $T71[ebp], esi
  0048b	ff 70 f4	 push	 DWORD PTR [eax-12]
  0048e	50		 push	 eax
  0048f	8d 45 b8	 lea	 eax, DWORD PTR $T62[ebp]
  00492	50		 push	 eax
  00493	ff 15 00 00 00
	00		 call	 DWORD PTR __imp_?Concatenate@?$CSimpleStringT@D$00@ATL@@KAXAAV12@PBDH1H@Z

; 2403 : 		CThisSimpleString::Concatenate( strResult, str1, str1.GetLength(), psz2, CThisSimpleString::StringLength( psz2 ) );

  00499	83 c4 14	 add	 esp, 20			; 00000014H

; 2390 : 		CStringT strResult( str1.GetManager() );

  0049c	8d 4d b8	 lea	 ecx, DWORD PTR $T62[ebp]
; File D:\git\src\IBK\IBK_DRFN\ProjSrc\SrcChartEx\ChartAddIn\ChartPatternAddIn\DlgAnalysis.cpp

; 718  : 					strText = strTime.Left(4) + "-" + strTime.Mid(4, 2) + "-" + strTime.Mid(6);

  0049f	c6 45 fc 13	 mov	 BYTE PTR __$EHRec$[ebp+8], 19 ; 00000013H
; File C:\Program Files (x86)\Microsoft Visual Studio\2019\Community\VC\Tools\MSVC\14.29.30133\atlmfc\include\cstringt.h

; 2390 : 		CStringT strResult( str1.GetManager() );

  004a3	ff 15 00 00 00
	00		 call	 DWORD PTR __imp_?GetManager@?$CStringT@DV?$StrTraitMFC_DLL@DV?$ChTraitsCRT@D@ATL@@@@@ATL@@QBEPAUIAtlStringMgr@2@XZ
  004a9	50		 push	 eax
  004aa	8d 8d 50 ff ff
	ff		 lea	 ecx, DWORD PTR $T36[ebp]
  004b0	ff 15 00 00 00
	00		 call	 DWORD PTR __imp_??0?$CStringT@DV?$StrTraitMFC_DLL@DV?$ChTraitsCRT@D@ATL@@@@@ATL@@QAE@PAUIAtlStringMgr@1@@Z
; File C:\Program Files (x86)\Microsoft Visual Studio\2019\Community\VC\Tools\MSVC\14.29.30133\atlmfc\include\atlsimpstr.h

; 519  : 		return( GetData()->nDataLength );

  004b6	8b 0b		 mov	 ecx, DWORD PTR [ebx]
; File C:\Program Files (x86)\Microsoft Visual Studio\2019\Community\VC\Tools\MSVC\14.29.30133\atlmfc\include\cstringt.h

; 2394 : 		return( strResult );

  004b8	81 ce 00 02 00
	00		 or	 esi, 512		; 00000200H
; File C:\Program Files (x86)\Microsoft Visual Studio\2019\Community\VC\Tools\MSVC\14.29.30133\atlmfc\include\atlsimpstr.h

; 519  : 		return( GetData()->nDataLength );

  004be	8b 45 b8	 mov	 eax, DWORD PTR $T62[ebp]
; File C:\Program Files (x86)\Microsoft Visual Studio\2019\Community\VC\Tools\MSVC\14.29.30133\atlmfc\include\cstringt.h

; 2394 : 		return( strResult );

  004c1	89 75 ec	 mov	 DWORD PTR $T71[ebp], esi
  004c4	ff 71 f4	 push	 DWORD PTR [ecx-12]
  004c7	51		 push	 ecx
  004c8	ff 70 f4	 push	 DWORD PTR [eax-12]
  004cb	50		 push	 eax
  004cc	8d 85 50 ff ff
	ff		 lea	 eax, DWORD PTR $T36[ebp]
  004d2	50		 push	 eax
  004d3	ff 15 00 00 00
	00		 call	 DWORD PTR __imp_?Concatenate@?$CSimpleStringT@D$00@ATL@@KAXAAV12@PBDH1H@Z
  004d9	83 c4 14	 add	 esp, 20			; 00000014H
; File D:\git\src\IBK\IBK_DRFN\ProjSrc\SrcChartEx\ChartAddIn\ChartPatternAddIn\DlgAnalysis.cpp

; 718  : 					strText = strTime.Left(4) + "-" + strTime.Mid(4, 2) + "-" + strTime.Mid(6);

  004dc	8d 85 50 ff ff
	ff		 lea	 eax, DWORD PTR $T36[ebp]
  004e2	8d 4d e4	 lea	 ecx, DWORD PTR _strText$[ebp]
  004e5	50		 push	 eax
  004e6	ff 15 00 00 00
	00		 call	 DWORD PTR __imp_??4?$CStringT@DV?$StrTraitMFC_DLL@DV?$ChTraitsCRT@D@ATL@@@@@ATL@@QAEAAV01@ABV01@@Z
  004ec	8d 8d 50 ff ff
	ff		 lea	 ecx, DWORD PTR $T36[ebp]
  004f2	81 e6 ff fd ff
	ff		 and	 esi, -513		; fffffdffH
  004f8	ff 15 00 00 00
	00		 call	 DWORD PTR __imp_??1?$CStringT@DV?$StrTraitMFC_DLL@DV?$ChTraitsCRT@D@ATL@@@@@ATL@@QAE@XZ
  004fe	8d 4d b8	 lea	 ecx, DWORD PTR $T62[ebp]
  00501	81 e6 ff fe ff
	ff		 and	 esi, -257		; fffffeffH
  00507	ff 15 00 00 00
	00		 call	 DWORD PTR __imp_??1?$CStringT@DV?$StrTraitMFC_DLL@DV?$ChTraitsCRT@D@ATL@@@@@ATL@@QAE@XZ
  0050d	8d 4d b4	 lea	 ecx, DWORD PTR $T61[ebp]
  00510	81 e6 7f ff ff
	ff		 and	 esi, -129		; ffffff7fH
  00516	ff 15 00 00 00
	00		 call	 DWORD PTR __imp_??1?$CStringT@DV?$StrTraitMFC_DLL@DV?$ChTraitsCRT@D@ATL@@@@@ATL@@QAE@XZ
  0051c	83 e6 bf	 and	 esi, -65		; ffffffbfH
  0051f	8d 4d b0	 lea	 ecx, DWORD PTR $T60[ebp]
  00522	89 75 f0	 mov	 DWORD PTR $T72[ebp], esi
  00525	ff 15 00 00 00
	00		 call	 DWORD PTR __imp_??1?$CStringT@DV?$StrTraitMFC_DLL@DV?$ChTraitsCRT@D@ATL@@@@@ATL@@QAE@XZ
  0052b	8d 8d 0c ff ff
	ff		 lea	 ecx, DWORD PTR $T24[ebp]
  00531	ff 15 00 00 00
	00		 call	 DWORD PTR __imp_??1?$CStringT@DV?$StrTraitMFC_DLL@DV?$ChTraitsCRT@D@ATL@@@@@ATL@@QAE@XZ
  00537	8d 8d 08 ff ff
	ff		 lea	 ecx, DWORD PTR $T23[ebp]
  0053d	ff 15 00 00 00
	00		 call	 DWORD PTR __imp_??1?$CStringT@DV?$StrTraitMFC_DLL@DV?$ChTraitsCRT@D@ATL@@@@@ATL@@QAE@XZ
  00543	8d 8d 04 ff ff
	ff		 lea	 ecx, DWORD PTR $T22[ebp]

; 719  : 			}

  00549	e9 a7 0b 00 00	 jmp	 $LN664@SetFoundCa
$LN7@SetFoundCa:

; 720  : 			else if(strTime.GetLength() == 7)

  0054e	83 f8 07	 cmp	 eax, 7
  00551	0f 85 b8 02 00
	00		 jne	 $LN11@SetFoundCa

; 722  : 				strText = "0" + strTime.Left(1) + "/" + strTime.Mid(1, 2) + "/" + strTime.Mid(3, 2) + ":" + strTime.Mid(5);

  00557	6a 05		 push	 5
  00559	8d 85 d4 fe ff
	ff		 lea	 eax, DWORD PTR $T10[ebp]
  0055f	50		 push	 eax
  00560	8d 4d e8	 lea	 ecx, DWORD PTR _strTime$[ebp]
  00563	ff 15 00 00 00
	00		 call	 DWORD PTR __imp_?Mid@?$CStringT@DV?$StrTraitMFC_DLL@DV?$ChTraitsCRT@D@ATL@@@@@ATL@@QBE?AV12@H@Z
  00569	89 45 dc	 mov	 DWORD PTR $T68[ebp], eax
  0056c	6a 02		 push	 2
  0056e	6a 03		 push	 3
  00570	8d 85 f8 fe ff
	ff		 lea	 eax, DWORD PTR $T19[ebp]
  00576	c6 45 fc 14	 mov	 BYTE PTR __$EHRec$[ebp+8], 20 ; 00000014H
  0057a	50		 push	 eax
  0057b	8d 4d e8	 lea	 ecx, DWORD PTR _strTime$[ebp]
  0057e	ff 15 00 00 00
	00		 call	 DWORD PTR __imp_?Mid@?$CStringT@DV?$StrTraitMFC_DLL@DV?$ChTraitsCRT@D@ATL@@@@@ATL@@QBE?AV12@HH@Z
  00584	8b d8		 mov	 ebx, eax
  00586	6a 02		 push	 2
  00588	6a 01		 push	 1
  0058a	8d 85 fc fe ff
	ff		 lea	 eax, DWORD PTR $T20[ebp]
  00590	c6 45 fc 15	 mov	 BYTE PTR __$EHRec$[ebp+8], 21 ; 00000015H
  00594	50		 push	 eax
  00595	8d 4d e8	 lea	 ecx, DWORD PTR _strTime$[ebp]
  00598	ff 15 00 00 00
	00		 call	 DWORD PTR __imp_?Mid@?$CStringT@DV?$StrTraitMFC_DLL@DV?$ChTraitsCRT@D@ATL@@@@@ATL@@QBE?AV12@HH@Z
  0059e	8b f8		 mov	 edi, eax
  005a0	6a 01		 push	 1
  005a2	8d 85 00 ff ff
	ff		 lea	 eax, DWORD PTR $T21[ebp]
  005a8	c6 45 fc 16	 mov	 BYTE PTR __$EHRec$[ebp+8], 22 ; 00000016H
  005ac	50		 push	 eax
  005ad	8d 4d e8	 lea	 ecx, DWORD PTR _strTime$[ebp]
  005b0	ff 15 00 00 00
	00		 call	 DWORD PTR __imp_?Left@?$CStringT@DV?$StrTraitMFC_DLL@DV?$ChTraitsCRT@D@ATL@@@@@ATL@@QBE?AV12@H@Z
  005b6	8b f0		 mov	 esi, eax
; File C:\Program Files (x86)\Microsoft Visual Studio\2019\Community\VC\Tools\MSVC\14.29.30133\atlmfc\include\cstringt.h

; 2412 : 		CStringT strResult( str2.GetManager() );

  005b8	8b ce		 mov	 ecx, esi
; File D:\git\src\IBK\IBK_DRFN\ProjSrc\SrcChartEx\ChartAddIn\ChartPatternAddIn\DlgAnalysis.cpp

; 722  : 				strText = "0" + strTime.Left(1) + "/" + strTime.Mid(1, 2) + "/" + strTime.Mid(3, 2) + ":" + strTime.Mid(5);

  005ba	c6 45 fc 18	 mov	 BYTE PTR __$EHRec$[ebp+8], 24 ; 00000018H
; File C:\Program Files (x86)\Microsoft Visual Studio\2019\Community\VC\Tools\MSVC\14.29.30133\atlmfc\include\cstringt.h

; 2412 : 		CStringT strResult( str2.GetManager() );

  005be	ff 15 00 00 00
	00		 call	 DWORD PTR __imp_?GetManager@?$CStringT@DV?$StrTraitMFC_DLL@DV?$ChTraitsCRT@D@ATL@@@@@ATL@@QBEPAUIAtlStringMgr@2@XZ
  005c4	50		 push	 eax
  005c5	8d 4d 98	 lea	 ecx, DWORD PTR $T54[ebp]
  005c8	ff 15 00 00 00
	00		 call	 DWORD PTR __imp_??0?$CStringT@DV?$StrTraitMFC_DLL@DV?$ChTraitsCRT@D@ATL@@@@@ATL@@QAE@PAUIAtlStringMgr@1@@Z

; 2415 : 
; 2416 : 		return( strResult );

  005ce	8b 45 f0	 mov	 eax, DWORD PTR $T72[ebp]
  005d1	0d 00 04 00 00	 or	 eax, 1024		; 00000400H
  005d6	89 45 f0	 mov	 DWORD PTR $T72[ebp], eax
  005d9	89 45 ec	 mov	 DWORD PTR $T71[ebp], eax
; File C:\Program Files (x86)\Microsoft Visual Studio\2019\Community\VC\Tools\MSVC\14.29.30133\atlmfc\include\atlsimpstr.h

; 519  : 		return( GetData()->nDataLength );

  005dc	8b 06		 mov	 eax, DWORD PTR [esi]
; File C:\Program Files (x86)\Microsoft Visual Studio\2019\Community\VC\Tools\MSVC\14.29.30133\atlmfc\include\cstringt.h

; 2414 : 		CThisSimpleString::Concatenate( strResult, psz1, CThisSimpleString::StringLength( psz1 ), str2, str2.GetLength() );

  005de	ff 70 f4	 push	 DWORD PTR [eax-12]
  005e1	50		 push	 eax
  005e2	6a 01		 push	 1
  005e4	8d 45 98	 lea	 eax, DWORD PTR $T54[ebp]
  005e7	68 00 00 00 00	 push	 OFFSET ??_C@_01GBGANLPD@0@
  005ec	50		 push	 eax
  005ed	ff 15 00 00 00
	00		 call	 DWORD PTR __imp_?Concatenate@?$CSimpleStringT@D$00@ATL@@KAXAAV12@PBDH1H@Z
  005f3	83 c4 14	 add	 esp, 20			; 00000014H

; 2401 : 		CStringT strResult( str1.GetManager() );

  005f6	8d 4d 98	 lea	 ecx, DWORD PTR $T54[ebp]
; File D:\git\src\IBK\IBK_DRFN\ProjSrc\SrcChartEx\ChartAddIn\ChartPatternAddIn\DlgAnalysis.cpp

; 722  : 				strText = "0" + strTime.Left(1) + "/" + strTime.Mid(1, 2) + "/" + strTime.Mid(3, 2) + ":" + strTime.Mid(5);

  005f9	c6 45 fc 19	 mov	 BYTE PTR __$EHRec$[ebp+8], 25 ; 00000019H
; File C:\Program Files (x86)\Microsoft Visual Studio\2019\Community\VC\Tools\MSVC\14.29.30133\atlmfc\include\cstringt.h

; 2401 : 		CStringT strResult( str1.GetManager() );

  005fd	ff 15 00 00 00
	00		 call	 DWORD PTR __imp_?GetManager@?$CStringT@DV?$StrTraitMFC_DLL@DV?$ChTraitsCRT@D@ATL@@@@@ATL@@QBEPAUIAtlStringMgr@2@XZ
  00603	50		 push	 eax
  00604	8d 4d 9c	 lea	 ecx, DWORD PTR $T55[ebp]
  00607	ff 15 00 00 00
	00		 call	 DWORD PTR __imp_??0?$CStringT@DV?$StrTraitMFC_DLL@DV?$ChTraitsCRT@D@ATL@@@@@ATL@@QAE@PAUIAtlStringMgr@1@@Z
; File C:\Program Files (x86)\Microsoft Visual Studio\2019\Community\VC\Tools\MSVC\14.29.30133\atlmfc\include\atlsimpstr.h

; 519  : 		return( GetData()->nDataLength );

  0060d	8b 45 98	 mov	 eax, DWORD PTR $T54[ebp]
; File C:\Program Files (x86)\Microsoft Visual Studio\2019\Community\VC\Tools\MSVC\14.29.30133\atlmfc\include\cstringt.h

; 2405 : 		return( strResult );

  00610	8b 75 f0	 mov	 esi, DWORD PTR $T72[ebp]
  00613	6a 01		 push	 1
  00615	68 00 00 00 00	 push	 OFFSET ??_C@_01KMDKNFGN@?1@
  0061a	ff 70 f4	 push	 DWORD PTR [eax-12]
  0061d	81 ce 00 08 00
	00		 or	 esi, 2048		; 00000800H
  00623	50		 push	 eax
  00624	8d 45 9c	 lea	 eax, DWORD PTR $T55[ebp]
  00627	89 75 ec	 mov	 DWORD PTR $T71[ebp], esi
  0062a	50		 push	 eax
  0062b	ff 15 00 00 00
	00		 call	 DWORD PTR __imp_?Concatenate@?$CSimpleStringT@D$00@ATL@@KAXAAV12@PBDH1H@Z
  00631	83 c4 14	 add	 esp, 20			; 00000014H

; 2390 : 		CStringT strResult( str1.GetManager() );

  00634	8d 4d 9c	 lea	 ecx, DWORD PTR $T55[ebp]
; File D:\git\src\IBK\IBK_DRFN\ProjSrc\SrcChartEx\ChartAddIn\ChartPatternAddIn\DlgAnalysis.cpp

; 722  : 				strText = "0" + strTime.Left(1) + "/" + strTime.Mid(1, 2) + "/" + strTime.Mid(3, 2) + ":" + strTime.Mid(5);

  00637	c6 45 fc 1a	 mov	 BYTE PTR __$EHRec$[ebp+8], 26 ; 0000001aH
; File C:\Program Files (x86)\Microsoft Visual Studio\2019\Community\VC\Tools\MSVC\14.29.30133\atlmfc\include\cstringt.h

; 2390 : 		CStringT strResult( str1.GetManager() );

  0063b	ff 15 00 00 00
	00		 call	 DWORD PTR __imp_?GetManager@?$CStringT@DV?$StrTraitMFC_DLL@DV?$ChTraitsCRT@D@ATL@@@@@ATL@@QBEPAUIAtlStringMgr@2@XZ
  00641	50		 push	 eax
  00642	8d 4d a0	 lea	 ecx, DWORD PTR $T56[ebp]
  00645	ff 15 00 00 00
	00		 call	 DWORD PTR __imp_??0?$CStringT@DV?$StrTraitMFC_DLL@DV?$ChTraitsCRT@D@ATL@@@@@ATL@@QAE@PAUIAtlStringMgr@1@@Z

; 2394 : 		return( strResult );

  0064b	81 ce 00 10 00
	00		 or	 esi, 4096		; 00001000H
  00651	89 75 ec	 mov	 DWORD PTR $T71[ebp], esi
; File C:\Program Files (x86)\Microsoft Visual Studio\2019\Community\VC\Tools\MSVC\14.29.30133\atlmfc\include\atlsimpstr.h

; 519  : 		return( GetData()->nDataLength );

  00654	8b 0f		 mov	 ecx, DWORD PTR [edi]
  00656	8b 45 9c	 mov	 eax, DWORD PTR $T55[ebp]
; File C:\Program Files (x86)\Microsoft Visual Studio\2019\Community\VC\Tools\MSVC\14.29.30133\atlmfc\include\cstringt.h

; 2392 : 		CThisSimpleString::Concatenate( strResult, str1, str1.GetLength(), str2, str2.GetLength() );

  00659	ff 71 f4	 push	 DWORD PTR [ecx-12]
  0065c	51		 push	 ecx
  0065d	ff 70 f4	 push	 DWORD PTR [eax-12]
  00660	50		 push	 eax
  00661	8d 45 a0	 lea	 eax, DWORD PTR $T56[ebp]
  00664	50		 push	 eax
  00665	ff 15 00 00 00
	00		 call	 DWORD PTR __imp_?Concatenate@?$CSimpleStringT@D$00@ATL@@KAXAAV12@PBDH1H@Z
  0066b	83 c4 14	 add	 esp, 20			; 00000014H

; 2401 : 		CStringT strResult( str1.GetManager() );

  0066e	8d 4d a0	 lea	 ecx, DWORD PTR $T56[ebp]
; File D:\git\src\IBK\IBK_DRFN\ProjSrc\SrcChartEx\ChartAddIn\ChartPatternAddIn\DlgAnalysis.cpp

; 722  : 				strText = "0" + strTime.Left(1) + "/" + strTime.Mid(1, 2) + "/" + strTime.Mid(3, 2) + ":" + strTime.Mid(5);

  00671	c6 45 fc 1b	 mov	 BYTE PTR __$EHRec$[ebp+8], 27 ; 0000001bH
; File C:\Program Files (x86)\Microsoft Visual Studio\2019\Community\VC\Tools\MSVC\14.29.30133\atlmfc\include\cstringt.h

; 2401 : 		CStringT strResult( str1.GetManager() );

  00675	ff 15 00 00 00
	00		 call	 DWORD PTR __imp_?GetManager@?$CStringT@DV?$StrTraitMFC_DLL@DV?$ChTraitsCRT@D@ATL@@@@@ATL@@QBEPAUIAtlStringMgr@2@XZ
  0067b	50		 push	 eax
  0067c	8d 4d a4	 lea	 ecx, DWORD PTR $T57[ebp]
  0067f	ff 15 00 00 00
	00		 call	 DWORD PTR __imp_??0?$CStringT@DV?$StrTraitMFC_DLL@DV?$ChTraitsCRT@D@ATL@@@@@ATL@@QAE@PAUIAtlStringMgr@1@@Z
; File C:\Program Files (x86)\Microsoft Visual Studio\2019\Community\VC\Tools\MSVC\14.29.30133\atlmfc\include\atlsimpstr.h

; 519  : 		return( GetData()->nDataLength );

  00685	8b 45 a0	 mov	 eax, DWORD PTR $T56[ebp]
; File C:\Program Files (x86)\Microsoft Visual Studio\2019\Community\VC\Tools\MSVC\14.29.30133\atlmfc\include\cstringt.h

; 2405 : 		return( strResult );

  00688	81 ce 00 20 00
	00		 or	 esi, 8192		; 00002000H
  0068e	6a 01		 push	 1
  00690	68 00 00 00 00	 push	 OFFSET ??_C@_01KMDKNFGN@?1@
  00695	89 75 ec	 mov	 DWORD PTR $T71[ebp], esi
  00698	ff 70 f4	 push	 DWORD PTR [eax-12]
  0069b	50		 push	 eax
  0069c	8d 45 a4	 lea	 eax, DWORD PTR $T57[ebp]
  0069f	50		 push	 eax
  006a0	ff 15 00 00 00
	00		 call	 DWORD PTR __imp_?Concatenate@?$CSimpleStringT@D$00@ATL@@KAXAAV12@PBDH1H@Z
  006a6	83 c4 14	 add	 esp, 20			; 00000014H

; 2390 : 		CStringT strResult( str1.GetManager() );

  006a9	8d 4d a4	 lea	 ecx, DWORD PTR $T57[ebp]
; File D:\git\src\IBK\IBK_DRFN\ProjSrc\SrcChartEx\ChartAddIn\ChartPatternAddIn\DlgAnalysis.cpp

; 722  : 				strText = "0" + strTime.Left(1) + "/" + strTime.Mid(1, 2) + "/" + strTime.Mid(3, 2) + ":" + strTime.Mid(5);

  006ac	c6 45 fc 1c	 mov	 BYTE PTR __$EHRec$[ebp+8], 28 ; 0000001cH
; File C:\Program Files (x86)\Microsoft Visual Studio\2019\Community\VC\Tools\MSVC\14.29.30133\atlmfc\include\cstringt.h

; 2390 : 		CStringT strResult( str1.GetManager() );

  006b0	ff 15 00 00 00
	00		 call	 DWORD PTR __imp_?GetManager@?$CStringT@DV?$StrTraitMFC_DLL@DV?$ChTraitsCRT@D@ATL@@@@@ATL@@QBEPAUIAtlStringMgr@2@XZ
  006b6	50		 push	 eax
  006b7	8d 4d a8	 lea	 ecx, DWORD PTR $T58[ebp]
  006ba	ff 15 00 00 00
	00		 call	 DWORD PTR __imp_??0?$CStringT@DV?$StrTraitMFC_DLL@DV?$ChTraitsCRT@D@ATL@@@@@ATL@@QAE@PAUIAtlStringMgr@1@@Z
; File C:\Program Files (x86)\Microsoft Visual Studio\2019\Community\VC\Tools\MSVC\14.29.30133\atlmfc\include\atlsimpstr.h

; 519  : 		return( GetData()->nDataLength );

  006c0	8b 0b		 mov	 ecx, DWORD PTR [ebx]
; File C:\Program Files (x86)\Microsoft Visual Studio\2019\Community\VC\Tools\MSVC\14.29.30133\atlmfc\include\cstringt.h

; 2394 : 		return( strResult );

  006c2	81 ce 00 40 00
	00		 or	 esi, 16384		; 00004000H
; File C:\Program Files (x86)\Microsoft Visual Studio\2019\Community\VC\Tools\MSVC\14.29.30133\atlmfc\include\atlsimpstr.h

; 519  : 		return( GetData()->nDataLength );

  006c8	8b 45 a4	 mov	 eax, DWORD PTR $T57[ebp]
; File C:\Program Files (x86)\Microsoft Visual Studio\2019\Community\VC\Tools\MSVC\14.29.30133\atlmfc\include\cstringt.h

; 2394 : 		return( strResult );

  006cb	89 75 ec	 mov	 DWORD PTR $T71[ebp], esi
  006ce	ff 71 f4	 push	 DWORD PTR [ecx-12]
  006d1	51		 push	 ecx
  006d2	ff 70 f4	 push	 DWORD PTR [eax-12]
  006d5	50		 push	 eax
  006d6	8d 45 a8	 lea	 eax, DWORD PTR $T58[ebp]
  006d9	50		 push	 eax
  006da	ff 15 00 00 00
	00		 call	 DWORD PTR __imp_?Concatenate@?$CSimpleStringT@D$00@ATL@@KAXAAV12@PBDH1H@Z
  006e0	83 c4 14	 add	 esp, 20			; 00000014H

; 2401 : 		CStringT strResult( str1.GetManager() );

  006e3	8d 4d a8	 lea	 ecx, DWORD PTR $T58[ebp]
; File D:\git\src\IBK\IBK_DRFN\ProjSrc\SrcChartEx\ChartAddIn\ChartPatternAddIn\DlgAnalysis.cpp

; 722  : 				strText = "0" + strTime.Left(1) + "/" + strTime.Mid(1, 2) + "/" + strTime.Mid(3, 2) + ":" + strTime.Mid(5);

  006e6	c6 45 fc 1d	 mov	 BYTE PTR __$EHRec$[ebp+8], 29 ; 0000001dH
; File C:\Program Files (x86)\Microsoft Visual Studio\2019\Community\VC\Tools\MSVC\14.29.30133\atlmfc\include\cstringt.h

; 2401 : 		CStringT strResult( str1.GetManager() );

  006ea	ff 15 00 00 00
	00		 call	 DWORD PTR __imp_?GetManager@?$CStringT@DV?$StrTraitMFC_DLL@DV?$ChTraitsCRT@D@ATL@@@@@ATL@@QBEPAUIAtlStringMgr@2@XZ
  006f0	50		 push	 eax
  006f1	8d 4d ac	 lea	 ecx, DWORD PTR $T59[ebp]
  006f4	ff 15 00 00 00
	00		 call	 DWORD PTR __imp_??0?$CStringT@DV?$StrTraitMFC_DLL@DV?$ChTraitsCRT@D@ATL@@@@@ATL@@QAE@PAUIAtlStringMgr@1@@Z
; File C:\Program Files (x86)\Microsoft Visual Studio\2019\Community\VC\Tools\MSVC\14.29.30133\atlmfc\include\atlsimpstr.h

; 519  : 		return( GetData()->nDataLength );

  006fa	8b 45 a8	 mov	 eax, DWORD PTR $T58[ebp]
; File C:\Program Files (x86)\Microsoft Visual Studio\2019\Community\VC\Tools\MSVC\14.29.30133\atlmfc\include\cstringt.h

; 2405 : 		return( strResult );

  006fd	81 ce 00 80 00
	00		 or	 esi, 32768		; 00008000H
  00703	6a 01		 push	 1
  00705	68 00 00 00 00	 push	 OFFSET ??_C@_01JLIPDDHJ@?3@
  0070a	89 75 ec	 mov	 DWORD PTR $T71[ebp], esi
  0070d	ff 70 f4	 push	 DWORD PTR [eax-12]
  00710	50		 push	 eax
  00711	8d 45 ac	 lea	 eax, DWORD PTR $T59[ebp]
  00714	50		 push	 eax
  00715	ff 15 00 00 00
	00		 call	 DWORD PTR __imp_?Concatenate@?$CSimpleStringT@D$00@ATL@@KAXAAV12@PBDH1H@Z
  0071b	83 c4 14	 add	 esp, 20			; 00000014H

; 2390 : 		CStringT strResult( str1.GetManager() );

  0071e	8d 4d ac	 lea	 ecx, DWORD PTR $T59[ebp]
; File D:\git\src\IBK\IBK_DRFN\ProjSrc\SrcChartEx\ChartAddIn\ChartPatternAddIn\DlgAnalysis.cpp

; 722  : 				strText = "0" + strTime.Left(1) + "/" + strTime.Mid(1, 2) + "/" + strTime.Mid(3, 2) + ":" + strTime.Mid(5);

  00721	c6 45 fc 1e	 mov	 BYTE PTR __$EHRec$[ebp+8], 30 ; 0000001eH
; File C:\Program Files (x86)\Microsoft Visual Studio\2019\Community\VC\Tools\MSVC\14.29.30133\atlmfc\include\cstringt.h

; 2390 : 		CStringT strResult( str1.GetManager() );

  00725	ff 15 00 00 00
	00		 call	 DWORD PTR __imp_?GetManager@?$CStringT@DV?$StrTraitMFC_DLL@DV?$ChTraitsCRT@D@ATL@@@@@ATL@@QBEPAUIAtlStringMgr@2@XZ
  0072b	50		 push	 eax
  0072c	8d 8d 4c ff ff
	ff		 lea	 ecx, DWORD PTR $T35[ebp]
  00732	ff 15 00 00 00
	00		 call	 DWORD PTR __imp_??0?$CStringT@DV?$StrTraitMFC_DLL@DV?$ChTraitsCRT@D@ATL@@@@@ATL@@QAE@PAUIAtlStringMgr@1@@Z
; File C:\Program Files (x86)\Microsoft Visual Studio\2019\Community\VC\Tools\MSVC\14.29.30133\atlmfc\include\atlsimpstr.h

; 519  : 		return( GetData()->nDataLength );

  00738	8b 4d dc	 mov	 ecx, DWORD PTR $T68[ebp]
; File C:\Program Files (x86)\Microsoft Visual Studio\2019\Community\VC\Tools\MSVC\14.29.30133\atlmfc\include\cstringt.h

; 2394 : 		return( strResult );

  0073b	81 ce 00 00 01
	00		 or	 esi, 65536		; 00010000H
; File C:\Program Files (x86)\Microsoft Visual Studio\2019\Community\VC\Tools\MSVC\14.29.30133\atlmfc\include\atlsimpstr.h

; 519  : 		return( GetData()->nDataLength );

  00741	8b 45 ac	 mov	 eax, DWORD PTR $T59[ebp]
; File C:\Program Files (x86)\Microsoft Visual Studio\2019\Community\VC\Tools\MSVC\14.29.30133\atlmfc\include\cstringt.h

; 2394 : 		return( strResult );

  00744	89 75 ec	 mov	 DWORD PTR $T71[ebp], esi
; File C:\Program Files (x86)\Microsoft Visual Studio\2019\Community\VC\Tools\MSVC\14.29.30133\atlmfc\include\atlsimpstr.h

; 519  : 		return( GetData()->nDataLength );

  00747	8b 09		 mov	 ecx, DWORD PTR [ecx]
; File C:\Program Files (x86)\Microsoft Visual Studio\2019\Community\VC\Tools\MSVC\14.29.30133\atlmfc\include\cstringt.h

; 2392 : 		CThisSimpleString::Concatenate( strResult, str1, str1.GetLength(), str2, str2.GetLength() );

  00749	ff 71 f4	 push	 DWORD PTR [ecx-12]
  0074c	51		 push	 ecx
  0074d	ff 70 f4	 push	 DWORD PTR [eax-12]
  00750	50		 push	 eax
  00751	8d 85 4c ff ff
	ff		 lea	 eax, DWORD PTR $T35[ebp]
  00757	50		 push	 eax
  00758	ff 15 00 00 00
	00		 call	 DWORD PTR __imp_?Concatenate@?$CSimpleStringT@D$00@ATL@@KAXAAV12@PBDH1H@Z
  0075e	83 c4 14	 add	 esp, 20			; 00000014H
; File D:\git\src\IBK\IBK_DRFN\ProjSrc\SrcChartEx\ChartAddIn\ChartPatternAddIn\DlgAnalysis.cpp

; 722  : 				strText = "0" + strTime.Left(1) + "/" + strTime.Mid(1, 2) + "/" + strTime.Mid(3, 2) + ":" + strTime.Mid(5);

  00761	8d 85 4c ff ff
	ff		 lea	 eax, DWORD PTR $T35[ebp]
  00767	8d 4d e4	 lea	 ecx, DWORD PTR _strText$[ebp]
  0076a	50		 push	 eax
  0076b	ff 15 00 00 00
	00		 call	 DWORD PTR __imp_??4?$CStringT@DV?$StrTraitMFC_DLL@DV?$ChTraitsCRT@D@ATL@@@@@ATL@@QAEAAV01@ABV01@@Z
  00771	8d 8d 4c ff ff
	ff		 lea	 ecx, DWORD PTR $T35[ebp]
  00777	81 e6 ff ff fe
	ff		 and	 esi, -65537		; fffeffffH
  0077d	ff 15 00 00 00
	00		 call	 DWORD PTR __imp_??1?$CStringT@DV?$StrTraitMFC_DLL@DV?$ChTraitsCRT@D@ATL@@@@@ATL@@QAE@XZ
  00783	8d 4d ac	 lea	 ecx, DWORD PTR $T59[ebp]
  00786	81 e6 ff 7f ff
	ff		 and	 esi, -32769		; ffff7fffH
  0078c	ff 15 00 00 00
	00		 call	 DWORD PTR __imp_??1?$CStringT@DV?$StrTraitMFC_DLL@DV?$ChTraitsCRT@D@ATL@@@@@ATL@@QAE@XZ
  00792	8d 4d a8	 lea	 ecx, DWORD PTR $T58[ebp]
  00795	81 e6 ff bf ff
	ff		 and	 esi, -16385		; ffffbfffH
  0079b	ff 15 00 00 00
	00		 call	 DWORD PTR __imp_??1?$CStringT@DV?$StrTraitMFC_DLL@DV?$ChTraitsCRT@D@ATL@@@@@ATL@@QAE@XZ
  007a1	8d 4d a4	 lea	 ecx, DWORD PTR $T57[ebp]
  007a4	81 e6 ff df ff
	ff		 and	 esi, -8193		; ffffdfffH
  007aa	ff 15 00 00 00
	00		 call	 DWORD PTR __imp_??1?$CStringT@DV?$StrTraitMFC_DLL@DV?$ChTraitsCRT@D@ATL@@@@@ATL@@QAE@XZ
  007b0	8d 4d a0	 lea	 ecx, DWORD PTR $T56[ebp]
  007b3	81 e6 ff ef ff
	ff		 and	 esi, -4097		; ffffefffH
  007b9	ff 15 00 00 00
	00		 call	 DWORD PTR __imp_??1?$CStringT@DV?$StrTraitMFC_DLL@DV?$ChTraitsCRT@D@ATL@@@@@ATL@@QAE@XZ
  007bf	8d 4d 9c	 lea	 ecx, DWORD PTR $T55[ebp]
  007c2	81 e6 ff f7 ff
	ff		 and	 esi, -2049		; fffff7ffH
  007c8	ff 15 00 00 00
	00		 call	 DWORD PTR __imp_??1?$CStringT@DV?$StrTraitMFC_DLL@DV?$ChTraitsCRT@D@ATL@@@@@ATL@@QAE@XZ
  007ce	81 e6 ff fb ff
	ff		 and	 esi, -1025		; fffffbffH
  007d4	8d 4d 98	 lea	 ecx, DWORD PTR $T54[ebp]
  007d7	89 75 f0	 mov	 DWORD PTR $T72[ebp], esi
  007da	ff 15 00 00 00
	00		 call	 DWORD PTR __imp_??1?$CStringT@DV?$StrTraitMFC_DLL@DV?$ChTraitsCRT@D@ATL@@@@@ATL@@QAE@XZ
  007e0	8d 8d 00 ff ff
	ff		 lea	 ecx, DWORD PTR $T21[ebp]
  007e6	ff 15 00 00 00
	00		 call	 DWORD PTR __imp_??1?$CStringT@DV?$StrTraitMFC_DLL@DV?$ChTraitsCRT@D@ATL@@@@@ATL@@QAE@XZ
  007ec	8d 8d fc fe ff
	ff		 lea	 ecx, DWORD PTR $T20[ebp]
  007f2	ff 15 00 00 00
	00		 call	 DWORD PTR __imp_??1?$CStringT@DV?$StrTraitMFC_DLL@DV?$ChTraitsCRT@D@ATL@@@@@ATL@@QAE@XZ
  007f8	8d 8d f8 fe ff
	ff		 lea	 ecx, DWORD PTR $T19[ebp]
  007fe	ff 15 00 00 00
	00		 call	 DWORD PTR __imp_??1?$CStringT@DV?$StrTraitMFC_DLL@DV?$ChTraitsCRT@D@ATL@@@@@ATL@@QAE@XZ
  00804	8d 8d d4 fe ff
	ff		 lea	 ecx, DWORD PTR $T10[ebp]

; 723  : 			}

  0080a	e9 e6 08 00 00	 jmp	 $LN664@SetFoundCa
$LN11@SetFoundCa:

; 724  : 			else if(strTime.GetLength() == 6)

  0080f	83 f8 06	 cmp	 eax, 6
  00812	0f 85 16 03 00
	00		 jne	 $LN13@SetFoundCa

; 725  : 			{
; 726  : 				// 
; 727  : 				if(strTime.GetAt(0) == '1' && ((strTime.GetAt(1) - '1') < 9))

  00818	6a 00		 push	 0
  0081a	8d 4d e8	 lea	 ecx, DWORD PTR _strTime$[ebp]
  0081d	ff 15 00 00 00
	00		 call	 DWORD PTR __imp_?GetAt@?$CSimpleStringT@D$00@ATL@@QBEDH@Z
  00823	3c 31		 cmp	 al, 49			; 00000031H
  00825	0f 85 c4 01 00
	00		 jne	 $LN15@SetFoundCa
  0082b	6a 01		 push	 1
  0082d	8d 4d e8	 lea	 ecx, DWORD PTR _strTime$[ebp]
  00830	ff 15 00 00 00
	00		 call	 DWORD PTR __imp_?GetAt@?$CSimpleStringT@D$00@ATL@@QBEDH@Z
  00836	3c 3a		 cmp	 al, 58			; 0000003aH
  00838	0f 8d b1 01 00
	00		 jge	 $LN15@SetFoundCa

; 728  : 					strText = strTime.Left(2) + ":" + strTime.Mid(2, 2) + ":" + strTime.Mid(4);

  0083e	6a 04		 push	 4
  00840	8d 85 ec fe ff
	ff		 lea	 eax, DWORD PTR $T16[ebp]
  00846	50		 push	 eax
  00847	8d 4d e8	 lea	 ecx, DWORD PTR _strTime$[ebp]
  0084a	ff 15 00 00 00
	00		 call	 DWORD PTR __imp_?Mid@?$CStringT@DV?$StrTraitMFC_DLL@DV?$ChTraitsCRT@D@ATL@@@@@ATL@@QBE?AV12@H@Z
  00850	8b d8		 mov	 ebx, eax
  00852	6a 02		 push	 2
  00854	6a 02		 push	 2
  00856	8d 85 f0 fe ff
	ff		 lea	 eax, DWORD PTR $T17[ebp]
  0085c	c6 45 fc 1f	 mov	 BYTE PTR __$EHRec$[ebp+8], 31 ; 0000001fH
  00860	50		 push	 eax
  00861	8d 4d e8	 lea	 ecx, DWORD PTR _strTime$[ebp]
  00864	ff 15 00 00 00
	00		 call	 DWORD PTR __imp_?Mid@?$CStringT@DV?$StrTraitMFC_DLL@DV?$ChTraitsCRT@D@ATL@@@@@ATL@@QBE?AV12@HH@Z
  0086a	8b f8		 mov	 edi, eax
  0086c	6a 02		 push	 2
  0086e	8d 85 f4 fe ff
	ff		 lea	 eax, DWORD PTR $T18[ebp]
  00874	c6 45 fc 20	 mov	 BYTE PTR __$EHRec$[ebp+8], 32 ; 00000020H
  00878	50		 push	 eax
  00879	8d 4d e8	 lea	 ecx, DWORD PTR _strTime$[ebp]
  0087c	ff 15 00 00 00
	00		 call	 DWORD PTR __imp_?Left@?$CStringT@DV?$StrTraitMFC_DLL@DV?$ChTraitsCRT@D@ATL@@@@@ATL@@QBE?AV12@H@Z
  00882	8b f0		 mov	 esi, eax
; File C:\Program Files (x86)\Microsoft Visual Studio\2019\Community\VC\Tools\MSVC\14.29.30133\atlmfc\include\cstringt.h

; 2401 : 		CStringT strResult( str1.GetManager() );

  00884	8b ce		 mov	 ecx, esi
; File D:\git\src\IBK\IBK_DRFN\ProjSrc\SrcChartEx\ChartAddIn\ChartPatternAddIn\DlgAnalysis.cpp

; 728  : 					strText = strTime.Left(2) + ":" + strTime.Mid(2, 2) + ":" + strTime.Mid(4);

  00886	c6 45 fc 22	 mov	 BYTE PTR __$EHRec$[ebp+8], 34 ; 00000022H
; File C:\Program Files (x86)\Microsoft Visual Studio\2019\Community\VC\Tools\MSVC\14.29.30133\atlmfc\include\cstringt.h

; 2401 : 		CStringT strResult( str1.GetManager() );

  0088a	ff 15 00 00 00
	00		 call	 DWORD PTR __imp_?GetManager@?$CStringT@DV?$StrTraitMFC_DLL@DV?$ChTraitsCRT@D@ATL@@@@@ATL@@QBEPAUIAtlStringMgr@2@XZ
  00890	50		 push	 eax
  00891	8d 4d 8c	 lea	 ecx, DWORD PTR $T51[ebp]
  00894	ff 15 00 00 00
	00		 call	 DWORD PTR __imp_??0?$CStringT@DV?$StrTraitMFC_DLL@DV?$ChTraitsCRT@D@ATL@@@@@ATL@@QAE@PAUIAtlStringMgr@1@@Z

; 2405 : 		return( strResult );

  0089a	8b 45 f0	 mov	 eax, DWORD PTR $T72[ebp]
  0089d	0d 00 00 02 00	 or	 eax, 131072		; 00020000H
  008a2	89 45 f0	 mov	 DWORD PTR $T72[ebp], eax
  008a5	89 45 ec	 mov	 DWORD PTR $T71[ebp], eax
; File C:\Program Files (x86)\Microsoft Visual Studio\2019\Community\VC\Tools\MSVC\14.29.30133\atlmfc\include\atlsimpstr.h

; 519  : 		return( GetData()->nDataLength );

  008a8	8b 06		 mov	 eax, DWORD PTR [esi]
; File C:\Program Files (x86)\Microsoft Visual Studio\2019\Community\VC\Tools\MSVC\14.29.30133\atlmfc\include\cstringt.h

; 2403 : 		CThisSimpleString::Concatenate( strResult, str1, str1.GetLength(), psz2, CThisSimpleString::StringLength( psz2 ) );

  008aa	6a 01		 push	 1
  008ac	68 00 00 00 00	 push	 OFFSET ??_C@_01JLIPDDHJ@?3@
  008b1	ff 70 f4	 push	 DWORD PTR [eax-12]
  008b4	50		 push	 eax
  008b5	8d 45 8c	 lea	 eax, DWORD PTR $T51[ebp]
  008b8	50		 push	 eax
  008b9	ff 15 00 00 00
	00		 call	 DWORD PTR __imp_?Concatenate@?$CSimpleStringT@D$00@ATL@@KAXAAV12@PBDH1H@Z
  008bf	83 c4 14	 add	 esp, 20			; 00000014H

; 2390 : 		CStringT strResult( str1.GetManager() );

  008c2	8d 4d 8c	 lea	 ecx, DWORD PTR $T51[ebp]
; File D:\git\src\IBK\IBK_DRFN\ProjSrc\SrcChartEx\ChartAddIn\ChartPatternAddIn\DlgAnalysis.cpp

; 728  : 					strText = strTime.Left(2) + ":" + strTime.Mid(2, 2) + ":" + strTime.Mid(4);

  008c5	c6 45 fc 23	 mov	 BYTE PTR __$EHRec$[ebp+8], 35 ; 00000023H
; File C:\Program Files (x86)\Microsoft Visual Studio\2019\Community\VC\Tools\MSVC\14.29.30133\atlmfc\include\cstringt.h

; 2390 : 		CStringT strResult( str1.GetManager() );

  008c9	ff 15 00 00 00
	00		 call	 DWORD PTR __imp_?GetManager@?$CStringT@DV?$StrTraitMFC_DLL@DV?$ChTraitsCRT@D@ATL@@@@@ATL@@QBEPAUIAtlStringMgr@2@XZ
  008cf	50		 push	 eax
  008d0	8d 4d 90	 lea	 ecx, DWORD PTR $T52[ebp]
  008d3	ff 15 00 00 00
	00		 call	 DWORD PTR __imp_??0?$CStringT@DV?$StrTraitMFC_DLL@DV?$ChTraitsCRT@D@ATL@@@@@ATL@@QAE@PAUIAtlStringMgr@1@@Z
; File C:\Program Files (x86)\Microsoft Visual Studio\2019\Community\VC\Tools\MSVC\14.29.30133\atlmfc\include\atlsimpstr.h

; 519  : 		return( GetData()->nDataLength );

  008d9	8b 0f		 mov	 ecx, DWORD PTR [edi]
  008db	8b 45 8c	 mov	 eax, DWORD PTR $T51[ebp]
; File C:\Program Files (x86)\Microsoft Visual Studio\2019\Community\VC\Tools\MSVC\14.29.30133\atlmfc\include\cstringt.h

; 2394 : 		return( strResult );

  008de	8b 75 f0	 mov	 esi, DWORD PTR $T72[ebp]
  008e1	81 ce 00 00 04
	00		 or	 esi, 262144		; 00040000H
  008e7	ff 71 f4	 push	 DWORD PTR [ecx-12]
  008ea	89 75 ec	 mov	 DWORD PTR $T71[ebp], esi
  008ed	51		 push	 ecx
  008ee	ff 70 f4	 push	 DWORD PTR [eax-12]
  008f1	50		 push	 eax
  008f2	8d 45 90	 lea	 eax, DWORD PTR $T52[ebp]
  008f5	50		 push	 eax
  008f6	ff 15 00 00 00
	00		 call	 DWORD PTR __imp_?Concatenate@?$CSimpleStringT@D$00@ATL@@KAXAAV12@PBDH1H@Z
  008fc	83 c4 14	 add	 esp, 20			; 00000014H

; 2401 : 		CStringT strResult( str1.GetManager() );

  008ff	8d 4d 90	 lea	 ecx, DWORD PTR $T52[ebp]
; File D:\git\src\IBK\IBK_DRFN\ProjSrc\SrcChartEx\ChartAddIn\ChartPatternAddIn\DlgAnalysis.cpp

; 728  : 					strText = strTime.Left(2) + ":" + strTime.Mid(2, 2) + ":" + strTime.Mid(4);

  00902	c6 45 fc 24	 mov	 BYTE PTR __$EHRec$[ebp+8], 36 ; 00000024H
; File C:\Program Files (x86)\Microsoft Visual Studio\2019\Community\VC\Tools\MSVC\14.29.30133\atlmfc\include\cstringt.h

; 2401 : 		CStringT strResult( str1.GetManager() );

  00906	ff 15 00 00 00
	00		 call	 DWORD PTR __imp_?GetManager@?$CStringT@DV?$StrTraitMFC_DLL@DV?$ChTraitsCRT@D@ATL@@@@@ATL@@QBEPAUIAtlStringMgr@2@XZ
  0090c	50		 push	 eax
  0090d	8d 4d 94	 lea	 ecx, DWORD PTR $T53[ebp]
  00910	ff 15 00 00 00
	00		 call	 DWORD PTR __imp_??0?$CStringT@DV?$StrTraitMFC_DLL@DV?$ChTraitsCRT@D@ATL@@@@@ATL@@QAE@PAUIAtlStringMgr@1@@Z
; File C:\Program Files (x86)\Microsoft Visual Studio\2019\Community\VC\Tools\MSVC\14.29.30133\atlmfc\include\atlsimpstr.h

; 519  : 		return( GetData()->nDataLength );

  00916	8b 45 90	 mov	 eax, DWORD PTR $T52[ebp]
; File C:\Program Files (x86)\Microsoft Visual Studio\2019\Community\VC\Tools\MSVC\14.29.30133\atlmfc\include\cstringt.h

; 2405 : 		return( strResult );

  00919	81 ce 00 00 08
	00		 or	 esi, 524288		; 00080000H
  0091f	6a 01		 push	 1
  00921	68 00 00 00 00	 push	 OFFSET ??_C@_01JLIPDDHJ@?3@
  00926	89 75 ec	 mov	 DWORD PTR $T71[ebp], esi
  00929	ff 70 f4	 push	 DWORD PTR [eax-12]
  0092c	50		 push	 eax
  0092d	8d 45 94	 lea	 eax, DWORD PTR $T53[ebp]
  00930	50		 push	 eax
  00931	ff 15 00 00 00
	00		 call	 DWORD PTR __imp_?Concatenate@?$CSimpleStringT@D$00@ATL@@KAXAAV12@PBDH1H@Z

; 2403 : 		CThisSimpleString::Concatenate( strResult, str1, str1.GetLength(), psz2, CThisSimpleString::StringLength( psz2 ) );

  00937	83 c4 14	 add	 esp, 20			; 00000014H

; 2390 : 		CStringT strResult( str1.GetManager() );

  0093a	8d 4d 94	 lea	 ecx, DWORD PTR $T53[ebp]
; File D:\git\src\IBK\IBK_DRFN\ProjSrc\SrcChartEx\ChartAddIn\ChartPatternAddIn\DlgAnalysis.cpp

; 728  : 					strText = strTime.Left(2) + ":" + strTime.Mid(2, 2) + ":" + strTime.Mid(4);

  0093d	c6 45 fc 25	 mov	 BYTE PTR __$EHRec$[ebp+8], 37 ; 00000025H
; File C:\Program Files (x86)\Microsoft Visual Studio\2019\Community\VC\Tools\MSVC\14.29.30133\atlmfc\include\cstringt.h

; 2390 : 		CStringT strResult( str1.GetManager() );

  00941	ff 15 00 00 00
	00		 call	 DWORD PTR __imp_?GetManager@?$CStringT@DV?$StrTraitMFC_DLL@DV?$ChTraitsCRT@D@ATL@@@@@ATL@@QBEPAUIAtlStringMgr@2@XZ
  00947	50		 push	 eax
  00948	8d 8d 48 ff ff
	ff		 lea	 ecx, DWORD PTR $T34[ebp]
  0094e	ff 15 00 00 00
	00		 call	 DWORD PTR __imp_??0?$CStringT@DV?$StrTraitMFC_DLL@DV?$ChTraitsCRT@D@ATL@@@@@ATL@@QAE@PAUIAtlStringMgr@1@@Z
; File C:\Program Files (x86)\Microsoft Visual Studio\2019\Community\VC\Tools\MSVC\14.29.30133\atlmfc\include\atlsimpstr.h

; 519  : 		return( GetData()->nDataLength );

  00954	8b 0b		 mov	 ecx, DWORD PTR [ebx]
; File C:\Program Files (x86)\Microsoft Visual Studio\2019\Community\VC\Tools\MSVC\14.29.30133\atlmfc\include\cstringt.h

; 2394 : 		return( strResult );

  00956	81 ce 00 00 10
	00		 or	 esi, 1048576		; 00100000H
; File C:\Program Files (x86)\Microsoft Visual Studio\2019\Community\VC\Tools\MSVC\14.29.30133\atlmfc\include\atlsimpstr.h

; 519  : 		return( GetData()->nDataLength );

  0095c	8b 45 94	 mov	 eax, DWORD PTR $T53[ebp]
; File C:\Program Files (x86)\Microsoft Visual Studio\2019\Community\VC\Tools\MSVC\14.29.30133\atlmfc\include\cstringt.h

; 2394 : 		return( strResult );

  0095f	89 75 ec	 mov	 DWORD PTR $T71[ebp], esi
  00962	ff 71 f4	 push	 DWORD PTR [ecx-12]
  00965	51		 push	 ecx
  00966	ff 70 f4	 push	 DWORD PTR [eax-12]
  00969	50		 push	 eax
  0096a	8d 85 48 ff ff
	ff		 lea	 eax, DWORD PTR $T34[ebp]
  00970	50		 push	 eax
  00971	ff 15 00 00 00
	00		 call	 DWORD PTR __imp_?Concatenate@?$CSimpleStringT@D$00@ATL@@KAXAAV12@PBDH1H@Z
  00977	83 c4 14	 add	 esp, 20			; 00000014H
; File D:\git\src\IBK\IBK_DRFN\ProjSrc\SrcChartEx\ChartAddIn\ChartPatternAddIn\DlgAnalysis.cpp

; 728  : 					strText = strTime.Left(2) + ":" + strTime.Mid(2, 2) + ":" + strTime.Mid(4);

  0097a	8d 85 48 ff ff
	ff		 lea	 eax, DWORD PTR $T34[ebp]
  00980	8d 4d e4	 lea	 ecx, DWORD PTR _strText$[ebp]
  00983	50		 push	 eax
  00984	ff 15 00 00 00
	00		 call	 DWORD PTR __imp_??4?$CStringT@DV?$StrTraitMFC_DLL@DV?$ChTraitsCRT@D@ATL@@@@@ATL@@QAEAAV01@ABV01@@Z
  0098a	8d 8d 48 ff ff
	ff		 lea	 ecx, DWORD PTR $T34[ebp]
  00990	81 e6 ff ff ef
	ff		 and	 esi, -1048577		; ffefffffH
  00996	ff 15 00 00 00
	00		 call	 DWORD PTR __imp_??1?$CStringT@DV?$StrTraitMFC_DLL@DV?$ChTraitsCRT@D@ATL@@@@@ATL@@QAE@XZ
  0099c	8d 4d 94	 lea	 ecx, DWORD PTR $T53[ebp]
  0099f	81 e6 ff ff f7
	ff		 and	 esi, -524289		; fff7ffffH
  009a5	ff 15 00 00 00
	00		 call	 DWORD PTR __imp_??1?$CStringT@DV?$StrTraitMFC_DLL@DV?$ChTraitsCRT@D@ATL@@@@@ATL@@QAE@XZ
  009ab	8d 4d 90	 lea	 ecx, DWORD PTR $T52[ebp]
  009ae	81 e6 ff ff fb
	ff		 and	 esi, -262145		; fffbffffH
  009b4	ff 15 00 00 00
	00		 call	 DWORD PTR __imp_??1?$CStringT@DV?$StrTraitMFC_DLL@DV?$ChTraitsCRT@D@ATL@@@@@ATL@@QAE@XZ
  009ba	81 e6 ff ff fd
	ff		 and	 esi, -131073		; fffdffffH
  009c0	8d 4d 8c	 lea	 ecx, DWORD PTR $T51[ebp]
  009c3	89 75 f0	 mov	 DWORD PTR $T72[ebp], esi
  009c6	ff 15 00 00 00
	00		 call	 DWORD PTR __imp_??1?$CStringT@DV?$StrTraitMFC_DLL@DV?$ChTraitsCRT@D@ATL@@@@@ATL@@QAE@XZ
  009cc	8d 8d f4 fe ff
	ff		 lea	 ecx, DWORD PTR $T18[ebp]
  009d2	ff 15 00 00 00
	00		 call	 DWORD PTR __imp_??1?$CStringT@DV?$StrTraitMFC_DLL@DV?$ChTraitsCRT@D@ATL@@@@@ATL@@QAE@XZ
  009d8	8d 8d f0 fe ff
	ff		 lea	 ecx, DWORD PTR $T17[ebp]
  009de	ff 15 00 00 00
	00		 call	 DWORD PTR __imp_??1?$CStringT@DV?$StrTraitMFC_DLL@DV?$ChTraitsCRT@D@ATL@@@@@ATL@@QAE@XZ
  009e4	8d 8d ec fe ff
	ff		 lea	 ecx, DWORD PTR $T16[ebp]
  009ea	e9 06 07 00 00	 jmp	 $LN664@SetFoundCa
$LN15@SetFoundCa:

; 730  : 					strText = strTime.Left(4) + "-" + strTime.Mid(4) + "-01";

  009ef	6a 04		 push	 4
  009f1	8d 85 e4 fe ff
	ff		 lea	 eax, DWORD PTR $T14[ebp]
  009f7	50		 push	 eax
  009f8	8d 4d e8	 lea	 ecx, DWORD PTR _strTime$[ebp]
  009fb	ff 15 00 00 00
	00		 call	 DWORD PTR __imp_?Mid@?$CStringT@DV?$StrTraitMFC_DLL@DV?$ChTraitsCRT@D@ATL@@@@@ATL@@QBE?AV12@H@Z
  00a01	8b f8		 mov	 edi, eax
  00a03	6a 04		 push	 4
  00a05	8d 85 e8 fe ff
	ff		 lea	 eax, DWORD PTR $T15[ebp]
  00a0b	c6 45 fc 26	 mov	 BYTE PTR __$EHRec$[ebp+8], 38 ; 00000026H
  00a0f	50		 push	 eax
  00a10	8d 4d e8	 lea	 ecx, DWORD PTR _strTime$[ebp]
  00a13	ff 15 00 00 00
	00		 call	 DWORD PTR __imp_?Left@?$CStringT@DV?$StrTraitMFC_DLL@DV?$ChTraitsCRT@D@ATL@@@@@ATL@@QBE?AV12@H@Z
  00a19	8b f0		 mov	 esi, eax
; File C:\Program Files (x86)\Microsoft Visual Studio\2019\Community\VC\Tools\MSVC\14.29.30133\atlmfc\include\cstringt.h

; 2401 : 		CStringT strResult( str1.GetManager() );

  00a1b	8b ce		 mov	 ecx, esi
; File D:\git\src\IBK\IBK_DRFN\ProjSrc\SrcChartEx\ChartAddIn\ChartPatternAddIn\DlgAnalysis.cpp

; 730  : 					strText = strTime.Left(4) + "-" + strTime.Mid(4) + "-01";

  00a1d	c6 45 fc 28	 mov	 BYTE PTR __$EHRec$[ebp+8], 40 ; 00000028H
; File C:\Program Files (x86)\Microsoft Visual Studio\2019\Community\VC\Tools\MSVC\14.29.30133\atlmfc\include\cstringt.h

; 2401 : 		CStringT strResult( str1.GetManager() );

  00a21	ff 15 00 00 00
	00		 call	 DWORD PTR __imp_?GetManager@?$CStringT@DV?$StrTraitMFC_DLL@DV?$ChTraitsCRT@D@ATL@@@@@ATL@@QBEPAUIAtlStringMgr@2@XZ
  00a27	50		 push	 eax
  00a28	8d 4d 84	 lea	 ecx, DWORD PTR $T49[ebp]
  00a2b	ff 15 00 00 00
	00		 call	 DWORD PTR __imp_??0?$CStringT@DV?$StrTraitMFC_DLL@DV?$ChTraitsCRT@D@ATL@@@@@ATL@@QAE@PAUIAtlStringMgr@1@@Z
; File C:\Program Files (x86)\Microsoft Visual Studio\2019\Community\VC\Tools\MSVC\14.29.30133\atlmfc\include\atlsimpstr.h

; 519  : 		return( GetData()->nDataLength );

  00a31	8b 06		 mov	 eax, DWORD PTR [esi]
; File C:\Program Files (x86)\Microsoft Visual Studio\2019\Community\VC\Tools\MSVC\14.29.30133\atlmfc\include\cstringt.h

; 2405 : 		return( strResult );

  00a33	81 cb 00 00 20
	00		 or	 ebx, 2097152		; 00200000H
  00a39	6a 01		 push	 1
  00a3b	68 00 00 00 00	 push	 OFFSET ??_C@_01JOAMLHOP@?9@
  00a40	89 5d f0	 mov	 DWORD PTR $T72[ebp], ebx
  00a43	ff 70 f4	 push	 DWORD PTR [eax-12]
  00a46	89 5d ec	 mov	 DWORD PTR $T71[ebp], ebx
  00a49	50		 push	 eax
  00a4a	8d 45 84	 lea	 eax, DWORD PTR $T49[ebp]
  00a4d	50		 push	 eax
  00a4e	ff 15 00 00 00
	00		 call	 DWORD PTR __imp_?Concatenate@?$CSimpleStringT@D$00@ATL@@KAXAAV12@PBDH1H@Z
  00a54	83 c4 14	 add	 esp, 20			; 00000014H

; 2390 : 		CStringT strResult( str1.GetManager() );

  00a57	8d 4d 84	 lea	 ecx, DWORD PTR $T49[ebp]
; File D:\git\src\IBK\IBK_DRFN\ProjSrc\SrcChartEx\ChartAddIn\ChartPatternAddIn\DlgAnalysis.cpp

; 730  : 					strText = strTime.Left(4) + "-" + strTime.Mid(4) + "-01";

  00a5a	c6 45 fc 29	 mov	 BYTE PTR __$EHRec$[ebp+8], 41 ; 00000029H
; File C:\Program Files (x86)\Microsoft Visual Studio\2019\Community\VC\Tools\MSVC\14.29.30133\atlmfc\include\cstringt.h

; 2390 : 		CStringT strResult( str1.GetManager() );

  00a5e	ff 15 00 00 00
	00		 call	 DWORD PTR __imp_?GetManager@?$CStringT@DV?$StrTraitMFC_DLL@DV?$ChTraitsCRT@D@ATL@@@@@ATL@@QBEPAUIAtlStringMgr@2@XZ
  00a64	50		 push	 eax
  00a65	8d 4d 88	 lea	 ecx, DWORD PTR $T50[ebp]
  00a68	ff 15 00 00 00
	00		 call	 DWORD PTR __imp_??0?$CStringT@DV?$StrTraitMFC_DLL@DV?$ChTraitsCRT@D@ATL@@@@@ATL@@QAE@PAUIAtlStringMgr@1@@Z
; File C:\Program Files (x86)\Microsoft Visual Studio\2019\Community\VC\Tools\MSVC\14.29.30133\atlmfc\include\atlsimpstr.h

; 519  : 		return( GetData()->nDataLength );

  00a6e	8b 0f		 mov	 ecx, DWORD PTR [edi]
; File C:\Program Files (x86)\Microsoft Visual Studio\2019\Community\VC\Tools\MSVC\14.29.30133\atlmfc\include\cstringt.h

; 2394 : 		return( strResult );

  00a70	8b f3		 mov	 esi, ebx
; File C:\Program Files (x86)\Microsoft Visual Studio\2019\Community\VC\Tools\MSVC\14.29.30133\atlmfc\include\atlsimpstr.h

; 519  : 		return( GetData()->nDataLength );

  00a72	8b 45 84	 mov	 eax, DWORD PTR $T49[ebp]
; File C:\Program Files (x86)\Microsoft Visual Studio\2019\Community\VC\Tools\MSVC\14.29.30133\atlmfc\include\cstringt.h

; 2394 : 		return( strResult );

  00a75	81 ce 00 00 40
	00		 or	 esi, 4194304		; 00400000H
  00a7b	89 75 ec	 mov	 DWORD PTR $T71[ebp], esi
  00a7e	ff 71 f4	 push	 DWORD PTR [ecx-12]
  00a81	51		 push	 ecx
  00a82	ff 70 f4	 push	 DWORD PTR [eax-12]
  00a85	50		 push	 eax
  00a86	8d 45 88	 lea	 eax, DWORD PTR $T50[ebp]
  00a89	50		 push	 eax
  00a8a	ff 15 00 00 00
	00		 call	 DWORD PTR __imp_?Concatenate@?$CSimpleStringT@D$00@ATL@@KAXAAV12@PBDH1H@Z
  00a90	83 c4 14	 add	 esp, 20			; 00000014H

; 2401 : 		CStringT strResult( str1.GetManager() );

  00a93	8d 4d 88	 lea	 ecx, DWORD PTR $T50[ebp]
; File D:\git\src\IBK\IBK_DRFN\ProjSrc\SrcChartEx\ChartAddIn\ChartPatternAddIn\DlgAnalysis.cpp

; 730  : 					strText = strTime.Left(4) + "-" + strTime.Mid(4) + "-01";

  00a96	c6 45 fc 2a	 mov	 BYTE PTR __$EHRec$[ebp+8], 42 ; 0000002aH
; File C:\Program Files (x86)\Microsoft Visual Studio\2019\Community\VC\Tools\MSVC\14.29.30133\atlmfc\include\cstringt.h

; 2401 : 		CStringT strResult( str1.GetManager() );

  00a9a	ff 15 00 00 00
	00		 call	 DWORD PTR __imp_?GetManager@?$CStringT@DV?$StrTraitMFC_DLL@DV?$ChTraitsCRT@D@ATL@@@@@ATL@@QBEPAUIAtlStringMgr@2@XZ
  00aa0	50		 push	 eax
  00aa1	8d 8d 44 ff ff
	ff		 lea	 ecx, DWORD PTR $T33[ebp]
  00aa7	ff 15 00 00 00
	00		 call	 DWORD PTR __imp_??0?$CStringT@DV?$StrTraitMFC_DLL@DV?$ChTraitsCRT@D@ATL@@@@@ATL@@QAE@PAUIAtlStringMgr@1@@Z
; File C:\Program Files (x86)\Microsoft Visual Studio\2019\Community\VC\Tools\MSVC\14.29.30133\atlmfc\include\atlsimpstr.h

; 519  : 		return( GetData()->nDataLength );

  00aad	8b 45 88	 mov	 eax, DWORD PTR $T50[ebp]
; File C:\Program Files (x86)\Microsoft Visual Studio\2019\Community\VC\Tools\MSVC\14.29.30133\atlmfc\include\cstringt.h

; 2405 : 		return( strResult );

  00ab0	81 ce 00 00 80
	00		 or	 esi, 8388608		; 00800000H
  00ab6	6a 03		 push	 3
  00ab8	68 00 00 00 00	 push	 OFFSET ??_C@_03GONFLFCC@?901@
  00abd	89 75 ec	 mov	 DWORD PTR $T71[ebp], esi
  00ac0	ff 70 f4	 push	 DWORD PTR [eax-12]
  00ac3	50		 push	 eax
  00ac4	8d 85 44 ff ff
	ff		 lea	 eax, DWORD PTR $T33[ebp]
  00aca	50		 push	 eax
  00acb	ff 15 00 00 00
	00		 call	 DWORD PTR __imp_?Concatenate@?$CSimpleStringT@D$00@ATL@@KAXAAV12@PBDH1H@Z
  00ad1	83 c4 14	 add	 esp, 20			; 00000014H
; File D:\git\src\IBK\IBK_DRFN\ProjSrc\SrcChartEx\ChartAddIn\ChartPatternAddIn\DlgAnalysis.cpp

; 730  : 					strText = strTime.Left(4) + "-" + strTime.Mid(4) + "-01";

  00ad4	8d 85 44 ff ff
	ff		 lea	 eax, DWORD PTR $T33[ebp]
  00ada	8d 4d e4	 lea	 ecx, DWORD PTR _strText$[ebp]
  00add	50		 push	 eax
  00ade	ff 15 00 00 00
	00		 call	 DWORD PTR __imp_??4?$CStringT@DV?$StrTraitMFC_DLL@DV?$ChTraitsCRT@D@ATL@@@@@ATL@@QAEAAV01@ABV01@@Z
  00ae4	8d 8d 44 ff ff
	ff		 lea	 ecx, DWORD PTR $T33[ebp]
  00aea	81 e6 ff ff 7f
	ff		 and	 esi, -8388609		; ff7fffffH
  00af0	ff 15 00 00 00
	00		 call	 DWORD PTR __imp_??1?$CStringT@DV?$StrTraitMFC_DLL@DV?$ChTraitsCRT@D@ATL@@@@@ATL@@QAE@XZ
  00af6	81 e6 ff ff bf
	ff		 and	 esi, -4194305		; ffbfffffH
  00afc	8d 4d 88	 lea	 ecx, DWORD PTR $T50[ebp]
  00aff	ff 15 00 00 00
	00		 call	 DWORD PTR __imp_??1?$CStringT@DV?$StrTraitMFC_DLL@DV?$ChTraitsCRT@D@ATL@@@@@ATL@@QAE@XZ
  00b05	81 e6 ff ff df
	ff		 and	 esi, -2097153		; ffdfffffH
  00b0b	8d 4d 84	 lea	 ecx, DWORD PTR $T49[ebp]
  00b0e	89 75 f0	 mov	 DWORD PTR $T72[ebp], esi
  00b11	ff 15 00 00 00
	00		 call	 DWORD PTR __imp_??1?$CStringT@DV?$StrTraitMFC_DLL@DV?$ChTraitsCRT@D@ATL@@@@@ATL@@QAE@XZ
  00b17	8d 8d e8 fe ff
	ff		 lea	 ecx, DWORD PTR $T15[ebp]
  00b1d	ff 15 00 00 00
	00		 call	 DWORD PTR __imp_??1?$CStringT@DV?$StrTraitMFC_DLL@DV?$ChTraitsCRT@D@ATL@@@@@ATL@@QAE@XZ
  00b23	8d 8d e4 fe ff
	ff		 lea	 ecx, DWORD PTR $T14[ebp]

; 731  : 			}

  00b29	e9 c7 05 00 00	 jmp	 $LN664@SetFoundCa
$LN13@SetFoundCa:

; 732  : 			else if(strTime.GetLength() == 5)

  00b2e	83 f8 05	 cmp	 eax, 5
  00b31	0f 85 28 02 00
	00		 jne	 $LN17@SetFoundCa

; 734  : 				strText = "0" + strTime.Left(1) + ":" + strTime.Mid(1, 2) + ":" + strTime.Mid(3);

  00b37	6a 03		 push	 3
  00b39	8d 85 d8 fe ff
	ff		 lea	 eax, DWORD PTR $T11[ebp]
  00b3f	50		 push	 eax
  00b40	8d 4d e8	 lea	 ecx, DWORD PTR _strTime$[ebp]
  00b43	ff 15 00 00 00
	00		 call	 DWORD PTR __imp_?Mid@?$CStringT@DV?$StrTraitMFC_DLL@DV?$ChTraitsCRT@D@ATL@@@@@ATL@@QBE?AV12@H@Z
  00b49	8b d8		 mov	 ebx, eax
  00b4b	6a 02		 push	 2
  00b4d	6a 01		 push	 1
  00b4f	8d 85 dc fe ff
	ff		 lea	 eax, DWORD PTR $T12[ebp]
  00b55	c6 45 fc 2b	 mov	 BYTE PTR __$EHRec$[ebp+8], 43 ; 0000002bH
  00b59	50		 push	 eax
  00b5a	8d 4d e8	 lea	 ecx, DWORD PTR _strTime$[ebp]
  00b5d	ff 15 00 00 00
	00		 call	 DWORD PTR __imp_?Mid@?$CStringT@DV?$StrTraitMFC_DLL@DV?$ChTraitsCRT@D@ATL@@@@@ATL@@QBE?AV12@HH@Z
  00b63	8b f8		 mov	 edi, eax
  00b65	6a 01		 push	 1
  00b67	8d 85 e0 fe ff
	ff		 lea	 eax, DWORD PTR $T13[ebp]
  00b6d	c6 45 fc 2c	 mov	 BYTE PTR __$EHRec$[ebp+8], 44 ; 0000002cH
  00b71	50		 push	 eax
  00b72	8d 4d e8	 lea	 ecx, DWORD PTR _strTime$[ebp]
  00b75	ff 15 00 00 00
	00		 call	 DWORD PTR __imp_?Left@?$CStringT@DV?$StrTraitMFC_DLL@DV?$ChTraitsCRT@D@ATL@@@@@ATL@@QBE?AV12@H@Z
  00b7b	8b f0		 mov	 esi, eax
; File C:\Program Files (x86)\Microsoft Visual Studio\2019\Community\VC\Tools\MSVC\14.29.30133\atlmfc\include\cstringt.h

; 2412 : 		CStringT strResult( str2.GetManager() );

  00b7d	8b ce		 mov	 ecx, esi
; File D:\git\src\IBK\IBK_DRFN\ProjSrc\SrcChartEx\ChartAddIn\ChartPatternAddIn\DlgAnalysis.cpp

; 734  : 				strText = "0" + strTime.Left(1) + ":" + strTime.Mid(1, 2) + ":" + strTime.Mid(3);

  00b7f	c6 45 fc 2e	 mov	 BYTE PTR __$EHRec$[ebp+8], 46 ; 0000002eH
; File C:\Program Files (x86)\Microsoft Visual Studio\2019\Community\VC\Tools\MSVC\14.29.30133\atlmfc\include\cstringt.h

; 2412 : 		CStringT strResult( str2.GetManager() );

  00b83	ff 15 00 00 00
	00		 call	 DWORD PTR __imp_?GetManager@?$CStringT@DV?$StrTraitMFC_DLL@DV?$ChTraitsCRT@D@ATL@@@@@ATL@@QBEPAUIAtlStringMgr@2@XZ
  00b89	50		 push	 eax
  00b8a	8d 8d 74 ff ff
	ff		 lea	 ecx, DWORD PTR $T45[ebp]
  00b90	ff 15 00 00 00
	00		 call	 DWORD PTR __imp_??0?$CStringT@DV?$StrTraitMFC_DLL@DV?$ChTraitsCRT@D@ATL@@@@@ATL@@QAE@PAUIAtlStringMgr@1@@Z

; 2415 : 
; 2416 : 		return( strResult );

  00b96	8b 45 f0	 mov	 eax, DWORD PTR $T72[ebp]
  00b99	0d 00 00 00 01	 or	 eax, 16777216		; 01000000H
  00b9e	89 45 f0	 mov	 DWORD PTR $T72[ebp], eax
  00ba1	89 45 ec	 mov	 DWORD PTR $T71[ebp], eax
; File C:\Program Files (x86)\Microsoft Visual Studio\2019\Community\VC\Tools\MSVC\14.29.30133\atlmfc\include\atlsimpstr.h

; 519  : 		return( GetData()->nDataLength );

  00ba4	8b 06		 mov	 eax, DWORD PTR [esi]
; File C:\Program Files (x86)\Microsoft Visual Studio\2019\Community\VC\Tools\MSVC\14.29.30133\atlmfc\include\cstringt.h

; 2414 : 		CThisSimpleString::Concatenate( strResult, psz1, CThisSimpleString::StringLength( psz1 ), str2, str2.GetLength() );

  00ba6	ff 70 f4	 push	 DWORD PTR [eax-12]
  00ba9	50		 push	 eax
  00baa	6a 01		 push	 1
  00bac	8d 85 74 ff ff
	ff		 lea	 eax, DWORD PTR $T45[ebp]
  00bb2	68 00 00 00 00	 push	 OFFSET ??_C@_01GBGANLPD@0@
  00bb7	50		 push	 eax
  00bb8	ff 15 00 00 00
	00		 call	 DWORD PTR __imp_?Concatenate@?$CSimpleStringT@D$00@ATL@@KAXAAV12@PBDH1H@Z
  00bbe	83 c4 14	 add	 esp, 20			; 00000014H

; 2401 : 		CStringT strResult( str1.GetManager() );

  00bc1	8d 8d 74 ff ff
	ff		 lea	 ecx, DWORD PTR $T45[ebp]
; File D:\git\src\IBK\IBK_DRFN\ProjSrc\SrcChartEx\ChartAddIn\ChartPatternAddIn\DlgAnalysis.cpp

; 734  : 				strText = "0" + strTime.Left(1) + ":" + strTime.Mid(1, 2) + ":" + strTime.Mid(3);

  00bc7	c6 45 fc 2f	 mov	 BYTE PTR __$EHRec$[ebp+8], 47 ; 0000002fH
; File C:\Program Files (x86)\Microsoft Visual Studio\2019\Community\VC\Tools\MSVC\14.29.30133\atlmfc\include\cstringt.h

; 2401 : 		CStringT strResult( str1.GetManager() );

  00bcb	ff 15 00 00 00
	00		 call	 DWORD PTR __imp_?GetManager@?$CStringT@DV?$StrTraitMFC_DLL@DV?$ChTraitsCRT@D@ATL@@@@@ATL@@QBEPAUIAtlStringMgr@2@XZ
  00bd1	50		 push	 eax
  00bd2	8d 8d 78 ff ff
	ff		 lea	 ecx, DWORD PTR $T46[ebp]
  00bd8	ff 15 00 00 00
	00		 call	 DWORD PTR __imp_??0?$CStringT@DV?$StrTraitMFC_DLL@DV?$ChTraitsCRT@D@ATL@@@@@ATL@@QAE@PAUIAtlStringMgr@1@@Z
; File C:\Program Files (x86)\Microsoft Visual Studio\2019\Community\VC\Tools\MSVC\14.29.30133\atlmfc\include\atlsimpstr.h

; 519  : 		return( GetData()->nDataLength );

  00bde	8b 85 74 ff ff
	ff		 mov	 eax, DWORD PTR $T45[ebp]
; File C:\Program Files (x86)\Microsoft Visual Studio\2019\Community\VC\Tools\MSVC\14.29.30133\atlmfc\include\cstringt.h

; 2405 : 		return( strResult );

  00be4	8b 75 f0	 mov	 esi, DWORD PTR $T72[ebp]
  00be7	6a 01		 push	 1
  00be9	68 00 00 00 00	 push	 OFFSET ??_C@_01JLIPDDHJ@?3@
  00bee	ff 70 f4	 push	 DWORD PTR [eax-12]
  00bf1	81 ce 00 00 00
	02		 or	 esi, 33554432		; 02000000H
  00bf7	50		 push	 eax
  00bf8	8d 85 78 ff ff
	ff		 lea	 eax, DWORD PTR $T46[ebp]
  00bfe	89 75 ec	 mov	 DWORD PTR $T71[ebp], esi
  00c01	50		 push	 eax
  00c02	ff 15 00 00 00
	00		 call	 DWORD PTR __imp_?Concatenate@?$CSimpleStringT@D$00@ATL@@KAXAAV12@PBDH1H@Z
  00c08	83 c4 14	 add	 esp, 20			; 00000014H

; 2390 : 		CStringT strResult( str1.GetManager() );

  00c0b	8d 8d 78 ff ff
	ff		 lea	 ecx, DWORD PTR $T46[ebp]
; File D:\git\src\IBK\IBK_DRFN\ProjSrc\SrcChartEx\ChartAddIn\ChartPatternAddIn\DlgAnalysis.cpp

; 734  : 				strText = "0" + strTime.Left(1) + ":" + strTime.Mid(1, 2) + ":" + strTime.Mid(3);

  00c11	c6 45 fc 30	 mov	 BYTE PTR __$EHRec$[ebp+8], 48 ; 00000030H
; File C:\Program Files (x86)\Microsoft Visual Studio\2019\Community\VC\Tools\MSVC\14.29.30133\atlmfc\include\cstringt.h

; 2390 : 		CStringT strResult( str1.GetManager() );

  00c15	ff 15 00 00 00
	00		 call	 DWORD PTR __imp_?GetManager@?$CStringT@DV?$StrTraitMFC_DLL@DV?$ChTraitsCRT@D@ATL@@@@@ATL@@QBEPAUIAtlStringMgr@2@XZ
  00c1b	50		 push	 eax
  00c1c	8d 8d 7c ff ff
	ff		 lea	 ecx, DWORD PTR $T47[ebp]
  00c22	ff 15 00 00 00
	00		 call	 DWORD PTR __imp_??0?$CStringT@DV?$StrTraitMFC_DLL@DV?$ChTraitsCRT@D@ATL@@@@@ATL@@QAE@PAUIAtlStringMgr@1@@Z
; File C:\Program Files (x86)\Microsoft Visual Studio\2019\Community\VC\Tools\MSVC\14.29.30133\atlmfc\include\atlsimpstr.h

; 519  : 		return( GetData()->nDataLength );

  00c28	8b 0f		 mov	 ecx, DWORD PTR [edi]
; File C:\Program Files (x86)\Microsoft Visual Studio\2019\Community\VC\Tools\MSVC\14.29.30133\atlmfc\include\cstringt.h

; 2394 : 		return( strResult );

  00c2a	81 ce 00 00 00
	04		 or	 esi, 67108864		; 04000000H
; File C:\Program Files (x86)\Microsoft Visual Studio\2019\Community\VC\Tools\MSVC\14.29.30133\atlmfc\include\atlsimpstr.h

; 519  : 		return( GetData()->nDataLength );

  00c30	8b 85 78 ff ff
	ff		 mov	 eax, DWORD PTR $T46[ebp]
; File C:\Program Files (x86)\Microsoft Visual Studio\2019\Community\VC\Tools\MSVC\14.29.30133\atlmfc\include\cstringt.h

; 2394 : 		return( strResult );

  00c36	89 75 ec	 mov	 DWORD PTR $T71[ebp], esi
  00c39	ff 71 f4	 push	 DWORD PTR [ecx-12]
  00c3c	51		 push	 ecx
  00c3d	ff 70 f4	 push	 DWORD PTR [eax-12]
  00c40	50		 push	 eax
  00c41	8d 85 7c ff ff
	ff		 lea	 eax, DWORD PTR $T47[ebp]
  00c47	50		 push	 eax
  00c48	ff 15 00 00 00
	00		 call	 DWORD PTR __imp_?Concatenate@?$CSimpleStringT@D$00@ATL@@KAXAAV12@PBDH1H@Z

; 2392 : 		CThisSimpleString::Concatenate( strResult, str1, str1.GetLength(), str2, str2.GetLength() );

  00c4e	83 c4 14	 add	 esp, 20			; 00000014H

; 2401 : 		CStringT strResult( str1.GetManager() );

  00c51	8d 8d 7c ff ff
	ff		 lea	 ecx, DWORD PTR $T47[ebp]
; File D:\git\src\IBK\IBK_DRFN\ProjSrc\SrcChartEx\ChartAddIn\ChartPatternAddIn\DlgAnalysis.cpp

; 734  : 				strText = "0" + strTime.Left(1) + ":" + strTime.Mid(1, 2) + ":" + strTime.Mid(3);

  00c57	c6 45 fc 31	 mov	 BYTE PTR __$EHRec$[ebp+8], 49 ; 00000031H
; File C:\Program Files (x86)\Microsoft Visual Studio\2019\Community\VC\Tools\MSVC\14.29.30133\atlmfc\include\cstringt.h

; 2401 : 		CStringT strResult( str1.GetManager() );

  00c5b	ff 15 00 00 00
	00		 call	 DWORD PTR __imp_?GetManager@?$CStringT@DV?$StrTraitMFC_DLL@DV?$ChTraitsCRT@D@ATL@@@@@ATL@@QBEPAUIAtlStringMgr@2@XZ
  00c61	50		 push	 eax
  00c62	8d 4d 80	 lea	 ecx, DWORD PTR $T48[ebp]
  00c65	ff 15 00 00 00
	00		 call	 DWORD PTR __imp_??0?$CStringT@DV?$StrTraitMFC_DLL@DV?$ChTraitsCRT@D@ATL@@@@@ATL@@QAE@PAUIAtlStringMgr@1@@Z
; File C:\Program Files (x86)\Microsoft Visual Studio\2019\Community\VC\Tools\MSVC\14.29.30133\atlmfc\include\atlsimpstr.h

; 519  : 		return( GetData()->nDataLength );

  00c6b	8b 85 7c ff ff
	ff		 mov	 eax, DWORD PTR $T47[ebp]
; File C:\Program Files (x86)\Microsoft Visual Studio\2019\Community\VC\Tools\MSVC\14.29.30133\atlmfc\include\cstringt.h

; 2405 : 		return( strResult );

  00c71	81 ce 00 00 00
	08		 or	 esi, 134217728		; 08000000H
  00c77	6a 01		 push	 1
  00c79	68 00 00 00 00	 push	 OFFSET ??_C@_01JLIPDDHJ@?3@
  00c7e	89 75 ec	 mov	 DWORD PTR $T71[ebp], esi
  00c81	ff 70 f4	 push	 DWORD PTR [eax-12]
  00c84	50		 push	 eax
  00c85	8d 45 80	 lea	 eax, DWORD PTR $T48[ebp]
  00c88	50		 push	 eax
  00c89	ff 15 00 00 00
	00		 call	 DWORD PTR __imp_?Concatenate@?$CSimpleStringT@D$00@ATL@@KAXAAV12@PBDH1H@Z
  00c8f	83 c4 14	 add	 esp, 20			; 00000014H

; 2390 : 		CStringT strResult( str1.GetManager() );

  00c92	8d 4d 80	 lea	 ecx, DWORD PTR $T48[ebp]
; File D:\git\src\IBK\IBK_DRFN\ProjSrc\SrcChartEx\ChartAddIn\ChartPatternAddIn\DlgAnalysis.cpp

; 734  : 				strText = "0" + strTime.Left(1) + ":" + strTime.Mid(1, 2) + ":" + strTime.Mid(3);

  00c95	c6 45 fc 32	 mov	 BYTE PTR __$EHRec$[ebp+8], 50 ; 00000032H
; File C:\Program Files (x86)\Microsoft Visual Studio\2019\Community\VC\Tools\MSVC\14.29.30133\atlmfc\include\cstringt.h

; 2390 : 		CStringT strResult( str1.GetManager() );

  00c99	ff 15 00 00 00
	00		 call	 DWORD PTR __imp_?GetManager@?$CStringT@DV?$StrTraitMFC_DLL@DV?$ChTraitsCRT@D@ATL@@@@@ATL@@QBEPAUIAtlStringMgr@2@XZ
  00c9f	50		 push	 eax
  00ca0	8d 8d 40 ff ff
	ff		 lea	 ecx, DWORD PTR $T32[ebp]
  00ca6	ff 15 00 00 00
	00		 call	 DWORD PTR __imp_??0?$CStringT@DV?$StrTraitMFC_DLL@DV?$ChTraitsCRT@D@ATL@@@@@ATL@@QAE@PAUIAtlStringMgr@1@@Z
; File C:\Program Files (x86)\Microsoft Visual Studio\2019\Community\VC\Tools\MSVC\14.29.30133\atlmfc\include\atlsimpstr.h

; 519  : 		return( GetData()->nDataLength );

  00cac	8b 0b		 mov	 ecx, DWORD PTR [ebx]
; File C:\Program Files (x86)\Microsoft Visual Studio\2019\Community\VC\Tools\MSVC\14.29.30133\atlmfc\include\cstringt.h

; 2394 : 		return( strResult );

  00cae	81 ce 00 00 00
	10		 or	 esi, 268435456		; 10000000H
; File C:\Program Files (x86)\Microsoft Visual Studio\2019\Community\VC\Tools\MSVC\14.29.30133\atlmfc\include\atlsimpstr.h

; 519  : 		return( GetData()->nDataLength );

  00cb4	8b 45 80	 mov	 eax, DWORD PTR $T48[ebp]
; File C:\Program Files (x86)\Microsoft Visual Studio\2019\Community\VC\Tools\MSVC\14.29.30133\atlmfc\include\cstringt.h

; 2394 : 		return( strResult );

  00cb7	89 75 ec	 mov	 DWORD PTR $T71[ebp], esi
  00cba	ff 71 f4	 push	 DWORD PTR [ecx-12]
  00cbd	51		 push	 ecx
  00cbe	ff 70 f4	 push	 DWORD PTR [eax-12]
  00cc1	50		 push	 eax
  00cc2	8d 85 40 ff ff
	ff		 lea	 eax, DWORD PTR $T32[ebp]
  00cc8	50		 push	 eax
  00cc9	ff 15 00 00 00
	00		 call	 DWORD PTR __imp_?Concatenate@?$CSimpleStringT@D$00@ATL@@KAXAAV12@PBDH1H@Z
  00ccf	83 c4 14	 add	 esp, 20			; 00000014H
; File D:\git\src\IBK\IBK_DRFN\ProjSrc\SrcChartEx\ChartAddIn\ChartPatternAddIn\DlgAnalysis.cpp

; 734  : 				strText = "0" + strTime.Left(1) + ":" + strTime.Mid(1, 2) + ":" + strTime.Mid(3);

  00cd2	8d 85 40 ff ff
	ff		 lea	 eax, DWORD PTR $T32[ebp]
  00cd8	8d 4d e4	 lea	 ecx, DWORD PTR _strText$[ebp]
  00cdb	50		 push	 eax
  00cdc	ff 15 00 00 00
	00		 call	 DWORD PTR __imp_??4?$CStringT@DV?$StrTraitMFC_DLL@DV?$ChTraitsCRT@D@ATL@@@@@ATL@@QAEAAV01@ABV01@@Z
  00ce2	8d 8d 40 ff ff
	ff		 lea	 ecx, DWORD PTR $T32[ebp]
  00ce8	81 e6 ff ff ff
	ef		 and	 esi, -268435457		; efffffffH
  00cee	ff 15 00 00 00
	00		 call	 DWORD PTR __imp_??1?$CStringT@DV?$StrTraitMFC_DLL@DV?$ChTraitsCRT@D@ATL@@@@@ATL@@QAE@XZ
  00cf4	8d 4d 80	 lea	 ecx, DWORD PTR $T48[ebp]
  00cf7	81 e6 ff ff ff
	f7		 and	 esi, -134217729		; f7ffffffH
  00cfd	ff 15 00 00 00
	00		 call	 DWORD PTR __imp_??1?$CStringT@DV?$StrTraitMFC_DLL@DV?$ChTraitsCRT@D@ATL@@@@@ATL@@QAE@XZ
  00d03	8d 8d 7c ff ff
	ff		 lea	 ecx, DWORD PTR $T47[ebp]
  00d09	81 e6 ff ff ff
	fb		 and	 esi, -67108865		; fbffffffH
  00d0f	ff 15 00 00 00
	00		 call	 DWORD PTR __imp_??1?$CStringT@DV?$StrTraitMFC_DLL@DV?$ChTraitsCRT@D@ATL@@@@@ATL@@QAE@XZ
  00d15	8d 8d 78 ff ff
	ff		 lea	 ecx, DWORD PTR $T46[ebp]
  00d1b	81 e6 ff ff ff
	fd		 and	 esi, -33554433		; fdffffffH
  00d21	ff 15 00 00 00
	00		 call	 DWORD PTR __imp_??1?$CStringT@DV?$StrTraitMFC_DLL@DV?$ChTraitsCRT@D@ATL@@@@@ATL@@QAE@XZ
  00d27	81 e6 ff ff ff
	fe		 and	 esi, -16777217		; feffffffH
  00d2d	8d 8d 74 ff ff
	ff		 lea	 ecx, DWORD PTR $T45[ebp]
  00d33	89 75 f0	 mov	 DWORD PTR $T72[ebp], esi
  00d36	ff 15 00 00 00
	00		 call	 DWORD PTR __imp_??1?$CStringT@DV?$StrTraitMFC_DLL@DV?$ChTraitsCRT@D@ATL@@@@@ATL@@QAE@XZ
  00d3c	8d 8d e0 fe ff
	ff		 lea	 ecx, DWORD PTR $T13[ebp]
  00d42	ff 15 00 00 00
	00		 call	 DWORD PTR __imp_??1?$CStringT@DV?$StrTraitMFC_DLL@DV?$ChTraitsCRT@D@ATL@@@@@ATL@@QAE@XZ
  00d48	8d 8d dc fe ff
	ff		 lea	 ecx, DWORD PTR $T12[ebp]
  00d4e	ff 15 00 00 00
	00		 call	 DWORD PTR __imp_??1?$CStringT@DV?$StrTraitMFC_DLL@DV?$ChTraitsCRT@D@ATL@@@@@ATL@@QAE@XZ
  00d54	8d 8d d8 fe ff
	ff		 lea	 ecx, DWORD PTR $T11[ebp]

; 735  : 			}

  00d5a	e9 96 03 00 00	 jmp	 $LN664@SetFoundCa
$LN17@SetFoundCa:

; 736  : 			// 2011.01.06 by SYS >>  YYYY() 
; 737  : 			else if(strTime.GetLength()==14)

  00d5f	83 f8 0e	 cmp	 eax, 14			; 0000000eH
  00d62	0f 85 a0 03 00
	00		 jne	 $LN19@SetFoundCa

; 741  : 				strText = strTime.Mid(2,2) + "/" + strTime.Mid(4,2) + "/" + strTime.Mid(6, 2) + "," + strTime.Mid(8, 2) + ":" + strTime.Mid(10,2);

  00d68	6a 02		 push	 2
  00d6a	6a 0a		 push	 10			; 0000000aH
  00d6c	8d 85 c0 fe ff
	ff		 lea	 eax, DWORD PTR $T5[ebp]
  00d72	50		 push	 eax
  00d73	8d 4d e8	 lea	 ecx, DWORD PTR _strTime$[ebp]
  00d76	ff 15 00 00 00
	00		 call	 DWORD PTR __imp_?Mid@?$CStringT@DV?$StrTraitMFC_DLL@DV?$ChTraitsCRT@D@ATL@@@@@ATL@@QBE?AV12@HH@Z
  00d7c	89 85 34 ff ff
	ff		 mov	 DWORD PTR $T30[ebp], eax
  00d82	6a 02		 push	 2
  00d84	6a 08		 push	 8
  00d86	8d 85 c4 fe ff
	ff		 lea	 eax, DWORD PTR $T6[ebp]
  00d8c	c6 45 fc 33	 mov	 BYTE PTR __$EHRec$[ebp+8], 51 ; 00000033H
  00d90	50		 push	 eax
  00d91	8d 4d e8	 lea	 ecx, DWORD PTR _strTime$[ebp]
  00d94	ff 15 00 00 00
	00		 call	 DWORD PTR __imp_?Mid@?$CStringT@DV?$StrTraitMFC_DLL@DV?$ChTraitsCRT@D@ATL@@@@@ATL@@QBE?AV12@HH@Z
  00d9a	89 85 b4 fe ff
	ff		 mov	 DWORD PTR $T2[ebp], eax
  00da0	6a 02		 push	 2
  00da2	6a 06		 push	 6
  00da4	8d 85 c8 fe ff
	ff		 lea	 eax, DWORD PTR $T7[ebp]
  00daa	c6 45 fc 34	 mov	 BYTE PTR __$EHRec$[ebp+8], 52 ; 00000034H
  00dae	50		 push	 eax
  00daf	8d 4d e8	 lea	 ecx, DWORD PTR _strTime$[ebp]
  00db2	ff 15 00 00 00
	00		 call	 DWORD PTR __imp_?Mid@?$CStringT@DV?$StrTraitMFC_DLL@DV?$ChTraitsCRT@D@ATL@@@@@ATL@@QBE?AV12@HH@Z
  00db8	8b d8		 mov	 ebx, eax
  00dba	6a 02		 push	 2
  00dbc	6a 04		 push	 4
  00dbe	8d 85 cc fe ff
	ff		 lea	 eax, DWORD PTR $T8[ebp]
  00dc4	c6 45 fc 35	 mov	 BYTE PTR __$EHRec$[ebp+8], 53 ; 00000035H
  00dc8	50		 push	 eax
  00dc9	8d 4d e8	 lea	 ecx, DWORD PTR _strTime$[ebp]
  00dcc	ff 15 00 00 00
	00		 call	 DWORD PTR __imp_?Mid@?$CStringT@DV?$StrTraitMFC_DLL@DV?$ChTraitsCRT@D@ATL@@@@@ATL@@QBE?AV12@HH@Z
  00dd2	8b f8		 mov	 edi, eax
  00dd4	6a 02		 push	 2
  00dd6	6a 02		 push	 2
  00dd8	8d 85 d0 fe ff
	ff		 lea	 eax, DWORD PTR $T9[ebp]
  00dde	c6 45 fc 36	 mov	 BYTE PTR __$EHRec$[ebp+8], 54 ; 00000036H
  00de2	50		 push	 eax
  00de3	8d 4d e8	 lea	 ecx, DWORD PTR _strTime$[ebp]
  00de6	ff 15 00 00 00
	00		 call	 DWORD PTR __imp_?Mid@?$CStringT@DV?$StrTraitMFC_DLL@DV?$ChTraitsCRT@D@ATL@@@@@ATL@@QBE?AV12@HH@Z
  00dec	8b f0		 mov	 esi, eax
; File C:\Program Files (x86)\Microsoft Visual Studio\2019\Community\VC\Tools\MSVC\14.29.30133\atlmfc\include\cstringt.h

; 2401 : 		CStringT strResult( str1.GetManager() );

  00dee	8b ce		 mov	 ecx, esi
; File D:\git\src\IBK\IBK_DRFN\ProjSrc\SrcChartEx\ChartAddIn\ChartPatternAddIn\DlgAnalysis.cpp

; 741  : 				strText = strTime.Mid(2,2) + "/" + strTime.Mid(4,2) + "/" + strTime.Mid(6, 2) + "," + strTime.Mid(8, 2) + ":" + strTime.Mid(10,2);

  00df0	c6 45 fc 38	 mov	 BYTE PTR __$EHRec$[ebp+8], 56 ; 00000038H
; File C:\Program Files (x86)\Microsoft Visual Studio\2019\Community\VC\Tools\MSVC\14.29.30133\atlmfc\include\cstringt.h

; 2401 : 		CStringT strResult( str1.GetManager() );

  00df4	ff 15 00 00 00
	00		 call	 DWORD PTR __imp_?GetManager@?$CStringT@DV?$StrTraitMFC_DLL@DV?$ChTraitsCRT@D@ATL@@@@@ATL@@QBEPAUIAtlStringMgr@2@XZ
  00dfa	50		 push	 eax
  00dfb	8d 8d 58 ff ff
	ff		 lea	 ecx, DWORD PTR $T38[ebp]
  00e01	ff 15 00 00 00
	00		 call	 DWORD PTR __imp_??0?$CStringT@DV?$StrTraitMFC_DLL@DV?$ChTraitsCRT@D@ATL@@@@@ATL@@QAE@PAUIAtlStringMgr@1@@Z

; 2405 : 		return( strResult );

  00e07	8b 45 f0	 mov	 eax, DWORD PTR $T72[ebp]
  00e0a	0d 00 00 00 20	 or	 eax, 536870912		; 20000000H
  00e0f	89 45 f0	 mov	 DWORD PTR $T72[ebp], eax
  00e12	89 45 ec	 mov	 DWORD PTR $T71[ebp], eax
; File C:\Program Files (x86)\Microsoft Visual Studio\2019\Community\VC\Tools\MSVC\14.29.30133\atlmfc\include\atlsimpstr.h

; 519  : 		return( GetData()->nDataLength );

  00e15	8b 06		 mov	 eax, DWORD PTR [esi]
; File C:\Program Files (x86)\Microsoft Visual Studio\2019\Community\VC\Tools\MSVC\14.29.30133\atlmfc\include\cstringt.h

; 2403 : 		CThisSimpleString::Concatenate( strResult, str1, str1.GetLength(), psz2, CThisSimpleString::StringLength( psz2 ) );

  00e17	6a 01		 push	 1
  00e19	68 00 00 00 00	 push	 OFFSET ??_C@_01KMDKNFGN@?1@
  00e1e	ff 70 f4	 push	 DWORD PTR [eax-12]
  00e21	50		 push	 eax
  00e22	8d 85 58 ff ff
	ff		 lea	 eax, DWORD PTR $T38[ebp]
  00e28	50		 push	 eax
  00e29	ff 15 00 00 00
	00		 call	 DWORD PTR __imp_?Concatenate@?$CSimpleStringT@D$00@ATL@@KAXAAV12@PBDH1H@Z
  00e2f	83 c4 14	 add	 esp, 20			; 00000014H

; 2390 : 		CStringT strResult( str1.GetManager() );

  00e32	8d 8d 58 ff ff
	ff		 lea	 ecx, DWORD PTR $T38[ebp]
; File D:\git\src\IBK\IBK_DRFN\ProjSrc\SrcChartEx\ChartAddIn\ChartPatternAddIn\DlgAnalysis.cpp

; 741  : 				strText = strTime.Mid(2,2) + "/" + strTime.Mid(4,2) + "/" + strTime.Mid(6, 2) + "," + strTime.Mid(8, 2) + ":" + strTime.Mid(10,2);

  00e38	c6 45 fc 39	 mov	 BYTE PTR __$EHRec$[ebp+8], 57 ; 00000039H
; File C:\Program Files (x86)\Microsoft Visual Studio\2019\Community\VC\Tools\MSVC\14.29.30133\atlmfc\include\cstringt.h

; 2390 : 		CStringT strResult( str1.GetManager() );

  00e3c	ff 15 00 00 00
	00		 call	 DWORD PTR __imp_?GetManager@?$CStringT@DV?$StrTraitMFC_DLL@DV?$ChTraitsCRT@D@ATL@@@@@ATL@@QBEPAUIAtlStringMgr@2@XZ
  00e42	50		 push	 eax
  00e43	8d 8d 5c ff ff
	ff		 lea	 ecx, DWORD PTR $T39[ebp]
  00e49	ff 15 00 00 00
	00		 call	 DWORD PTR __imp_??0?$CStringT@DV?$StrTraitMFC_DLL@DV?$ChTraitsCRT@D@ATL@@@@@ATL@@QAE@PAUIAtlStringMgr@1@@Z
; File C:\Program Files (x86)\Microsoft Visual Studio\2019\Community\VC\Tools\MSVC\14.29.30133\atlmfc\include\atlsimpstr.h

; 519  : 		return( GetData()->nDataLength );

  00e4f	8b 0f		 mov	 ecx, DWORD PTR [edi]
  00e51	8b 85 58 ff ff
	ff		 mov	 eax, DWORD PTR $T38[ebp]
; File C:\Program Files (x86)\Microsoft Visual Studio\2019\Community\VC\Tools\MSVC\14.29.30133\atlmfc\include\cstringt.h

; 2394 : 		return( strResult );

  00e57	8b 75 f0	 mov	 esi, DWORD PTR $T72[ebp]
  00e5a	81 ce 00 00 00
	40		 or	 esi, 1073741824		; 40000000H
  00e60	ff 71 f4	 push	 DWORD PTR [ecx-12]
  00e63	89 75 ec	 mov	 DWORD PTR $T71[ebp], esi
  00e66	51		 push	 ecx
  00e67	ff 70 f4	 push	 DWORD PTR [eax-12]
  00e6a	50		 push	 eax
  00e6b	8d 85 5c ff ff
	ff		 lea	 eax, DWORD PTR $T39[ebp]

; 2392 : 		CThisSimpleString::Concatenate( strResult, str1, str1.GetLength(), str2, str2.GetLength() );

  00e71	50		 push	 eax
  00e72	ff 15 00 00 00
	00		 call	 DWORD PTR __imp_?Concatenate@?$CSimpleStringT@D$00@ATL@@KAXAAV12@PBDH1H@Z
  00e78	83 c4 14	 add	 esp, 20			; 00000014H

; 2401 : 		CStringT strResult( str1.GetManager() );

  00e7b	8d 8d 5c ff ff
	ff		 lea	 ecx, DWORD PTR $T39[ebp]
; File D:\git\src\IBK\IBK_DRFN\ProjSrc\SrcChartEx\ChartAddIn\ChartPatternAddIn\DlgAnalysis.cpp

; 741  : 				strText = strTime.Mid(2,2) + "/" + strTime.Mid(4,2) + "/" + strTime.Mid(6, 2) + "," + strTime.Mid(8, 2) + ":" + strTime.Mid(10,2);

  00e81	c6 45 fc 3a	 mov	 BYTE PTR __$EHRec$[ebp+8], 58 ; 0000003aH
; File C:\Program Files (x86)\Microsoft Visual Studio\2019\Community\VC\Tools\MSVC\14.29.30133\atlmfc\include\cstringt.h

; 2401 : 		CStringT strResult( str1.GetManager() );

  00e85	ff 15 00 00 00
	00		 call	 DWORD PTR __imp_?GetManager@?$CStringT@DV?$StrTraitMFC_DLL@DV?$ChTraitsCRT@D@ATL@@@@@ATL@@QBEPAUIAtlStringMgr@2@XZ
  00e8b	50		 push	 eax
  00e8c	8d 8d 60 ff ff
	ff		 lea	 ecx, DWORD PTR $T40[ebp]
  00e92	ff 15 00 00 00
	00		 call	 DWORD PTR __imp_??0?$CStringT@DV?$StrTraitMFC_DLL@DV?$ChTraitsCRT@D@ATL@@@@@ATL@@QAE@PAUIAtlStringMgr@1@@Z
; File C:\Program Files (x86)\Microsoft Visual Studio\2019\Community\VC\Tools\MSVC\14.29.30133\atlmfc\include\atlsimpstr.h

; 519  : 		return( GetData()->nDataLength );

  00e98	8b 85 5c ff ff
	ff		 mov	 eax, DWORD PTR $T39[ebp]
; File C:\Program Files (x86)\Microsoft Visual Studio\2019\Community\VC\Tools\MSVC\14.29.30133\atlmfc\include\cstringt.h

; 2405 : 		return( strResult );

  00e9e	81 ce 00 00 00
	80		 or	 esi, -2147483648	; 80000000H
  00ea4	6a 01		 push	 1
  00ea6	68 00 00 00 00	 push	 OFFSET ??_C@_01KMDKNFGN@?1@
  00eab	89 75 ec	 mov	 DWORD PTR $T71[ebp], esi
  00eae	ff 70 f4	 push	 DWORD PTR [eax-12]
  00eb1	50		 push	 eax
  00eb2	8d 85 60 ff ff
	ff		 lea	 eax, DWORD PTR $T40[ebp]
  00eb8	50		 push	 eax
  00eb9	ff 15 00 00 00
	00		 call	 DWORD PTR __imp_?Concatenate@?$CSimpleStringT@D$00@ATL@@KAXAAV12@PBDH1H@Z
  00ebf	83 c4 14	 add	 esp, 20			; 00000014H

; 2390 : 		CStringT strResult( str1.GetManager() );

  00ec2	8d 8d 60 ff ff
	ff		 lea	 ecx, DWORD PTR $T40[ebp]
; File D:\git\src\IBK\IBK_DRFN\ProjSrc\SrcChartEx\ChartAddIn\ChartPatternAddIn\DlgAnalysis.cpp

; 741  : 				strText = strTime.Mid(2,2) + "/" + strTime.Mid(4,2) + "/" + strTime.Mid(6, 2) + "," + strTime.Mid(8, 2) + ":" + strTime.Mid(10,2);

  00ec8	c6 45 fc 3b	 mov	 BYTE PTR __$EHRec$[ebp+8], 59 ; 0000003bH
; File C:\Program Files (x86)\Microsoft Visual Studio\2019\Community\VC\Tools\MSVC\14.29.30133\atlmfc\include\cstringt.h

; 2390 : 		CStringT strResult( str1.GetManager() );

  00ecc	ff 15 00 00 00
	00		 call	 DWORD PTR __imp_?GetManager@?$CStringT@DV?$StrTraitMFC_DLL@DV?$ChTraitsCRT@D@ATL@@@@@ATL@@QBEPAUIAtlStringMgr@2@XZ
  00ed2	50		 push	 eax
  00ed3	8d 8d 64 ff ff
	ff		 lea	 ecx, DWORD PTR $T41[ebp]
  00ed9	ff 15 00 00 00
	00		 call	 DWORD PTR __imp_??0?$CStringT@DV?$StrTraitMFC_DLL@DV?$ChTraitsCRT@D@ATL@@@@@ATL@@QAE@PAUIAtlStringMgr@1@@Z
; File C:\Program Files (x86)\Microsoft Visual Studio\2019\Community\VC\Tools\MSVC\14.29.30133\atlmfc\include\atlsimpstr.h

; 519  : 		return( GetData()->nDataLength );

  00edf	8b 0b		 mov	 ecx, DWORD PTR [ebx]
  00ee1	8b 85 60 ff ff
	ff		 mov	 eax, DWORD PTR $T40[ebp]
; File C:\Program Files (x86)\Microsoft Visual Studio\2019\Community\VC\Tools\MSVC\14.29.30133\atlmfc\include\cstringt.h

; 2394 : 		return( strResult );

  00ee7	8b bd 2c ff ff
	ff		 mov	 edi, DWORD PTR $T29[ebp]
  00eed	83 cf 01	 or	 edi, 1
  00ef0	ff 71 f4	 push	 DWORD PTR [ecx-12]
  00ef3	89 7d dc	 mov	 DWORD PTR $T70[ebp], edi
  00ef6	51		 push	 ecx
  00ef7	ff 70 f4	 push	 DWORD PTR [eax-12]
  00efa	50		 push	 eax
  00efb	8d 85 64 ff ff
	ff		 lea	 eax, DWORD PTR $T41[ebp]
  00f01	50		 push	 eax
  00f02	ff 15 00 00 00
	00		 call	 DWORD PTR __imp_?Concatenate@?$CSimpleStringT@D$00@ATL@@KAXAAV12@PBDH1H@Z
  00f08	83 c4 14	 add	 esp, 20			; 00000014H

; 2401 : 		CStringT strResult( str1.GetManager() );

  00f0b	8d 8d 64 ff ff
	ff		 lea	 ecx, DWORD PTR $T41[ebp]
; File D:\git\src\IBK\IBK_DRFN\ProjSrc\SrcChartEx\ChartAddIn\ChartPatternAddIn\DlgAnalysis.cpp

; 741  : 				strText = strTime.Mid(2,2) + "/" + strTime.Mid(4,2) + "/" + strTime.Mid(6, 2) + "," + strTime.Mid(8, 2) + ":" + strTime.Mid(10,2);

  00f11	c6 45 fc 3c	 mov	 BYTE PTR __$EHRec$[ebp+8], 60 ; 0000003cH
; File C:\Program Files (x86)\Microsoft Visual Studio\2019\Community\VC\Tools\MSVC\14.29.30133\atlmfc\include\cstringt.h

; 2401 : 		CStringT strResult( str1.GetManager() );

  00f15	ff 15 00 00 00
	00		 call	 DWORD PTR __imp_?GetManager@?$CStringT@DV?$StrTraitMFC_DLL@DV?$ChTraitsCRT@D@ATL@@@@@ATL@@QBEPAUIAtlStringMgr@2@XZ
  00f1b	50		 push	 eax
  00f1c	8d 8d 68 ff ff
	ff		 lea	 ecx, DWORD PTR $T42[ebp]
  00f22	ff 15 00 00 00
	00		 call	 DWORD PTR __imp_??0?$CStringT@DV?$StrTraitMFC_DLL@DV?$ChTraitsCRT@D@ATL@@@@@ATL@@QAE@PAUIAtlStringMgr@1@@Z
; File C:\Program Files (x86)\Microsoft Visual Studio\2019\Community\VC\Tools\MSVC\14.29.30133\atlmfc\include\atlsimpstr.h

; 519  : 		return( GetData()->nDataLength );

  00f28	8b 85 64 ff ff
	ff		 mov	 eax, DWORD PTR $T41[ebp]
; File C:\Program Files (x86)\Microsoft Visual Studio\2019\Community\VC\Tools\MSVC\14.29.30133\atlmfc\include\cstringt.h

; 2405 : 		return( strResult );

  00f2e	83 cf 02	 or	 edi, 2
  00f31	6a 01		 push	 1
  00f33	68 00 00 00 00	 push	 OFFSET ??_C@_01IHBHIGKO@?0@
  00f38	89 7d dc	 mov	 DWORD PTR $T70[ebp], edi
  00f3b	ff 70 f4	 push	 DWORD PTR [eax-12]
  00f3e	50		 push	 eax
  00f3f	8d 85 68 ff ff
	ff		 lea	 eax, DWORD PTR $T42[ebp]
  00f45	50		 push	 eax
  00f46	ff 15 00 00 00
	00		 call	 DWORD PTR __imp_?Concatenate@?$CSimpleStringT@D$00@ATL@@KAXAAV12@PBDH1H@Z
  00f4c	83 c4 14	 add	 esp, 20			; 00000014H

; 2390 : 		CStringT strResult( str1.GetManager() );

  00f4f	8d 8d 68 ff ff
	ff		 lea	 ecx, DWORD PTR $T42[ebp]
; File D:\git\src\IBK\IBK_DRFN\ProjSrc\SrcChartEx\ChartAddIn\ChartPatternAddIn\DlgAnalysis.cpp

; 741  : 				strText = strTime.Mid(2,2) + "/" + strTime.Mid(4,2) + "/" + strTime.Mid(6, 2) + "," + strTime.Mid(8, 2) + ":" + strTime.Mid(10,2);

  00f55	c6 45 fc 3d	 mov	 BYTE PTR __$EHRec$[ebp+8], 61 ; 0000003dH
; File C:\Program Files (x86)\Microsoft Visual Studio\2019\Community\VC\Tools\MSVC\14.29.30133\atlmfc\include\cstringt.h

; 2390 : 		CStringT strResult( str1.GetManager() );

  00f59	ff 15 00 00 00
	00		 call	 DWORD PTR __imp_?GetManager@?$CStringT@DV?$StrTraitMFC_DLL@DV?$ChTraitsCRT@D@ATL@@@@@ATL@@QBEPAUIAtlStringMgr@2@XZ
  00f5f	50		 push	 eax
  00f60	8d 8d 6c ff ff
	ff		 lea	 ecx, DWORD PTR $T43[ebp]
  00f66	ff 15 00 00 00
	00		 call	 DWORD PTR __imp_??0?$CStringT@DV?$StrTraitMFC_DLL@DV?$ChTraitsCRT@D@ATL@@@@@ATL@@QAE@PAUIAtlStringMgr@1@@Z
; File C:\Program Files (x86)\Microsoft Visual Studio\2019\Community\VC\Tools\MSVC\14.29.30133\atlmfc\include\atlsimpstr.h

; 519  : 		return( GetData()->nDataLength );

  00f6c	8b 8d b4 fe ff
	ff		 mov	 ecx, DWORD PTR $T2[ebp]
; File C:\Program Files (x86)\Microsoft Visual Studio\2019\Community\VC\Tools\MSVC\14.29.30133\atlmfc\include\cstringt.h

; 2394 : 		return( strResult );

  00f72	83 cf 04	 or	 edi, 4
; File C:\Program Files (x86)\Microsoft Visual Studio\2019\Community\VC\Tools\MSVC\14.29.30133\atlmfc\include\atlsimpstr.h

; 519  : 		return( GetData()->nDataLength );

  00f75	8b 85 68 ff ff
	ff		 mov	 eax, DWORD PTR $T42[ebp]
; File C:\Program Files (x86)\Microsoft Visual Studio\2019\Community\VC\Tools\MSVC\14.29.30133\atlmfc\include\cstringt.h

; 2394 : 		return( strResult );

  00f7b	89 7d dc	 mov	 DWORD PTR $T70[ebp], edi
; File C:\Program Files (x86)\Microsoft Visual Studio\2019\Community\VC\Tools\MSVC\14.29.30133\atlmfc\include\atlsimpstr.h

; 519  : 		return( GetData()->nDataLength );

  00f7e	8b 09		 mov	 ecx, DWORD PTR [ecx]
; File C:\Program Files (x86)\Microsoft Visual Studio\2019\Community\VC\Tools\MSVC\14.29.30133\atlmfc\include\cstringt.h

; 2392 : 		CThisSimpleString::Concatenate( strResult, str1, str1.GetLength(), str2, str2.GetLength() );

  00f80	ff 71 f4	 push	 DWORD PTR [ecx-12]
  00f83	51		 push	 ecx
  00f84	ff 70 f4	 push	 DWORD PTR [eax-12]
  00f87	50		 push	 eax
  00f88	8d 85 6c ff ff
	ff		 lea	 eax, DWORD PTR $T43[ebp]
  00f8e	50		 push	 eax
  00f8f	ff 15 00 00 00
	00		 call	 DWORD PTR __imp_?Concatenate@?$CSimpleStringT@D$00@ATL@@KAXAAV12@PBDH1H@Z
  00f95	83 c4 14	 add	 esp, 20			; 00000014H
; File D:\git\src\IBK\IBK_DRFN\ProjSrc\SrcChartEx\ChartAddIn\ChartPatternAddIn\DlgAnalysis.cpp

; 741  : 				strText = strTime.Mid(2,2) + "/" + strTime.Mid(4,2) + "/" + strTime.Mid(6, 2) + "," + strTime.Mid(8, 2) + ":" + strTime.Mid(10,2);

  00f98	c6 45 fc 3e	 mov	 BYTE PTR __$EHRec$[ebp+8], 62 ; 0000003eH
; File C:\Program Files (x86)\Microsoft Visual Studio\2019\Community\VC\Tools\MSVC\14.29.30133\atlmfc\include\cstringt.h

; 2401 : 		CStringT strResult( str1.GetManager() );

  00f9c	8d 8d 6c ff ff
	ff		 lea	 ecx, DWORD PTR $T43[ebp]
  00fa2	ff 15 00 00 00
	00		 call	 DWORD PTR __imp_?GetManager@?$CStringT@DV?$StrTraitMFC_DLL@DV?$ChTraitsCRT@D@ATL@@@@@ATL@@QBEPAUIAtlStringMgr@2@XZ
  00fa8	50		 push	 eax
  00fa9	8d 8d 70 ff ff
	ff		 lea	 ecx, DWORD PTR $T44[ebp]
  00faf	ff 15 00 00 00
	00		 call	 DWORD PTR __imp_??0?$CStringT@DV?$StrTraitMFC_DLL@DV?$ChTraitsCRT@D@ATL@@@@@ATL@@QAE@PAUIAtlStringMgr@1@@Z
; File C:\Program Files (x86)\Microsoft Visual Studio\2019\Community\VC\Tools\MSVC\14.29.30133\atlmfc\include\atlsimpstr.h

; 519  : 		return( GetData()->nDataLength );

  00fb5	8b 85 6c ff ff
	ff		 mov	 eax, DWORD PTR $T43[ebp]
; File C:\Program Files (x86)\Microsoft Visual Studio\2019\Community\VC\Tools\MSVC\14.29.30133\atlmfc\include\cstringt.h

; 2405 : 		return( strResult );

  00fbb	83 cf 08	 or	 edi, 8
  00fbe	6a 01		 push	 1
  00fc0	68 00 00 00 00	 push	 OFFSET ??_C@_01JLIPDDHJ@?3@
  00fc5	89 7d dc	 mov	 DWORD PTR $T70[ebp], edi
  00fc8	ff 70 f4	 push	 DWORD PTR [eax-12]
  00fcb	50		 push	 eax
  00fcc	8d 85 70 ff ff
	ff		 lea	 eax, DWORD PTR $T44[ebp]
  00fd2	50		 push	 eax
  00fd3	ff 15 00 00 00
	00		 call	 DWORD PTR __imp_?Concatenate@?$CSimpleStringT@D$00@ATL@@KAXAAV12@PBDH1H@Z
  00fd9	83 c4 14	 add	 esp, 20			; 00000014H

; 2390 : 		CStringT strResult( str1.GetManager() );

  00fdc	8d 8d 70 ff ff
	ff		 lea	 ecx, DWORD PTR $T44[ebp]
; File D:\git\src\IBK\IBK_DRFN\ProjSrc\SrcChartEx\ChartAddIn\ChartPatternAddIn\DlgAnalysis.cpp

; 741  : 				strText = strTime.Mid(2,2) + "/" + strTime.Mid(4,2) + "/" + strTime.Mid(6, 2) + "," + strTime.Mid(8, 2) + ":" + strTime.Mid(10,2);

  00fe2	c6 45 fc 3f	 mov	 BYTE PTR __$EHRec$[ebp+8], 63 ; 0000003fH
; File C:\Program Files (x86)\Microsoft Visual Studio\2019\Community\VC\Tools\MSVC\14.29.30133\atlmfc\include\cstringt.h

; 2390 : 		CStringT strResult( str1.GetManager() );

  00fe6	ff 15 00 00 00
	00		 call	 DWORD PTR __imp_?GetManager@?$CStringT@DV?$StrTraitMFC_DLL@DV?$ChTraitsCRT@D@ATL@@@@@ATL@@QBEPAUIAtlStringMgr@2@XZ
  00fec	50		 push	 eax
  00fed	8d 8d 3c ff ff
	ff		 lea	 ecx, DWORD PTR $T31[ebp]
  00ff3	ff 15 00 00 00
	00		 call	 DWORD PTR __imp_??0?$CStringT@DV?$StrTraitMFC_DLL@DV?$ChTraitsCRT@D@ATL@@@@@ATL@@QAE@PAUIAtlStringMgr@1@@Z
; File C:\Program Files (x86)\Microsoft Visual Studio\2019\Community\VC\Tools\MSVC\14.29.30133\atlmfc\include\atlsimpstr.h

; 519  : 		return( GetData()->nDataLength );

  00ff9	8b 8d 34 ff ff
	ff		 mov	 ecx, DWORD PTR $T30[ebp]
; File C:\Program Files (x86)\Microsoft Visual Studio\2019\Community\VC\Tools\MSVC\14.29.30133\atlmfc\include\cstringt.h

; 2394 : 		return( strResult );

  00fff	83 cf 10	 or	 edi, 16			; 00000010H
; File C:\Program Files (x86)\Microsoft Visual Studio\2019\Community\VC\Tools\MSVC\14.29.30133\atlmfc\include\atlsimpstr.h

; 519  : 		return( GetData()->nDataLength );

  01002	8b 85 70 ff ff
	ff		 mov	 eax, DWORD PTR $T44[ebp]
; File C:\Program Files (x86)\Microsoft Visual Studio\2019\Community\VC\Tools\MSVC\14.29.30133\atlmfc\include\cstringt.h

; 2394 : 		return( strResult );

  01008	89 7d dc	 mov	 DWORD PTR $T70[ebp], edi
; File C:\Program Files (x86)\Microsoft Visual Studio\2019\Community\VC\Tools\MSVC\14.29.30133\atlmfc\include\atlsimpstr.h

; 519  : 		return( GetData()->nDataLength );

  0100b	8b 09		 mov	 ecx, DWORD PTR [ecx]
; File C:\Program Files (x86)\Microsoft Visual Studio\2019\Community\VC\Tools\MSVC\14.29.30133\atlmfc\include\cstringt.h

; 2392 : 		CThisSimpleString::Concatenate( strResult, str1, str1.GetLength(), str2, str2.GetLength() );

  0100d	ff 71 f4	 push	 DWORD PTR [ecx-12]
  01010	51		 push	 ecx
  01011	ff 70 f4	 push	 DWORD PTR [eax-12]
  01014	50		 push	 eax
  01015	8d 85 3c ff ff
	ff		 lea	 eax, DWORD PTR $T31[ebp]
  0101b	50		 push	 eax
  0101c	ff 15 00 00 00
	00		 call	 DWORD PTR __imp_?Concatenate@?$CSimpleStringT@D$00@ATL@@KAXAAV12@PBDH1H@Z
  01022	83 c4 14	 add	 esp, 20			; 00000014H
; File D:\git\src\IBK\IBK_DRFN\ProjSrc\SrcChartEx\ChartAddIn\ChartPatternAddIn\DlgAnalysis.cpp

; 741  : 				strText = strTime.Mid(2,2) + "/" + strTime.Mid(4,2) + "/" + strTime.Mid(6, 2) + "," + strTime.Mid(8, 2) + ":" + strTime.Mid(10,2);

  01025	8d 85 3c ff ff
	ff		 lea	 eax, DWORD PTR $T31[ebp]
  0102b	8d 4d e4	 lea	 ecx, DWORD PTR _strText$[ebp]
  0102e	50		 push	 eax
  0102f	ff 15 00 00 00
	00		 call	 DWORD PTR __imp_??4?$CStringT@DV?$StrTraitMFC_DLL@DV?$ChTraitsCRT@D@ATL@@@@@ATL@@QAEAAV01@ABV01@@Z
  01035	8d 8d 3c ff ff
	ff		 lea	 ecx, DWORD PTR $T31[ebp]
  0103b	83 e7 ef	 and	 edi, -17		; ffffffefH
  0103e	ff 15 00 00 00
	00		 call	 DWORD PTR __imp_??1?$CStringT@DV?$StrTraitMFC_DLL@DV?$ChTraitsCRT@D@ATL@@@@@ATL@@QAE@XZ
  01044	8d 8d 70 ff ff
	ff		 lea	 ecx, DWORD PTR $T44[ebp]
  0104a	83 e7 f7	 and	 edi, -9			; fffffff7H
  0104d	ff 15 00 00 00
	00		 call	 DWORD PTR __imp_??1?$CStringT@DV?$StrTraitMFC_DLL@DV?$ChTraitsCRT@D@ATL@@@@@ATL@@QAE@XZ
  01053	8d 8d 6c ff ff
	ff		 lea	 ecx, DWORD PTR $T43[ebp]
  01059	83 e7 fb	 and	 edi, -5			; fffffffbH
  0105c	ff 15 00 00 00
	00		 call	 DWORD PTR __imp_??1?$CStringT@DV?$StrTraitMFC_DLL@DV?$ChTraitsCRT@D@ATL@@@@@ATL@@QAE@XZ
  01062	8d 8d 68 ff ff
	ff		 lea	 ecx, DWORD PTR $T42[ebp]
  01068	83 e7 fd	 and	 edi, -3			; fffffffdH
  0106b	ff 15 00 00 00
	00		 call	 DWORD PTR __imp_??1?$CStringT@DV?$StrTraitMFC_DLL@DV?$ChTraitsCRT@D@ATL@@@@@ATL@@QAE@XZ
  01071	83 e7 fe	 and	 edi, -2			; fffffffeH
  01074	8d 8d 64 ff ff
	ff		 lea	 ecx, DWORD PTR $T41[ebp]
  0107a	89 bd 2c ff ff
	ff		 mov	 DWORD PTR $T29[ebp], edi
  01080	ff 15 00 00 00
	00		 call	 DWORD PTR __imp_??1?$CStringT@DV?$StrTraitMFC_DLL@DV?$ChTraitsCRT@D@ATL@@@@@ATL@@QAE@XZ
  01086	8d 8d 60 ff ff
	ff		 lea	 ecx, DWORD PTR $T40[ebp]
  0108c	81 e6 ff ff ff
	7f		 and	 esi, 2147483647		; 7fffffffH
  01092	ff 15 00 00 00
	00		 call	 DWORD PTR __imp_??1?$CStringT@DV?$StrTraitMFC_DLL@DV?$ChTraitsCRT@D@ATL@@@@@ATL@@QAE@XZ
  01098	8d 8d 5c ff ff
	ff		 lea	 ecx, DWORD PTR $T39[ebp]
  0109e	81 e6 ff ff ff
	bf		 and	 esi, -1073741825	; bfffffffH
  010a4	ff 15 00 00 00
	00		 call	 DWORD PTR __imp_??1?$CStringT@DV?$StrTraitMFC_DLL@DV?$ChTraitsCRT@D@ATL@@@@@ATL@@QAE@XZ
  010aa	81 e6 ff ff ff
	df		 and	 esi, -536870913		; dfffffffH
  010b0	8d 8d 58 ff ff
	ff		 lea	 ecx, DWORD PTR $T38[ebp]
  010b6	89 75 f0	 mov	 DWORD PTR $T72[ebp], esi
  010b9	ff 15 00 00 00
	00		 call	 DWORD PTR __imp_??1?$CStringT@DV?$StrTraitMFC_DLL@DV?$ChTraitsCRT@D@ATL@@@@@ATL@@QAE@XZ
  010bf	8d 8d d0 fe ff
	ff		 lea	 ecx, DWORD PTR $T9[ebp]
  010c5	ff 15 00 00 00
	00		 call	 DWORD PTR __imp_??1?$CStringT@DV?$StrTraitMFC_DLL@DV?$ChTraitsCRT@D@ATL@@@@@ATL@@QAE@XZ
  010cb	8d 8d cc fe ff
	ff		 lea	 ecx, DWORD PTR $T8[ebp]
  010d1	ff 15 00 00 00
	00		 call	 DWORD PTR __imp_??1?$CStringT@DV?$StrTraitMFC_DLL@DV?$ChTraitsCRT@D@ATL@@@@@ATL@@QAE@XZ
  010d7	8d 8d c8 fe ff
	ff		 lea	 ecx, DWORD PTR $T7[ebp]
  010dd	ff 15 00 00 00
	00		 call	 DWORD PTR __imp_??1?$CStringT@DV?$StrTraitMFC_DLL@DV?$ChTraitsCRT@D@ATL@@@@@ATL@@QAE@XZ
  010e3	8d 8d c4 fe ff
	ff		 lea	 ecx, DWORD PTR $T6[ebp]
  010e9	ff 15 00 00 00
	00		 call	 DWORD PTR __imp_??1?$CStringT@DV?$StrTraitMFC_DLL@DV?$ChTraitsCRT@D@ATL@@@@@ATL@@QAE@XZ
  010ef	8d 8d c0 fe ff
	ff		 lea	 ecx, DWORD PTR $T5[ebp]
$LN664@SetFoundCa:

; 742  : 			}
; 743  : 			// 2011.01.06 by SYS <<
; 744  : 
; 745  : 
; 746  : 			m_pGridCandleRtpType1->SetItemText( nRow, COL_CND1_TIME, strText);

  010f5	c6 45 fc 02	 mov	 BYTE PTR __$EHRec$[ebp+8], 2
  010f9	ff 15 00 00 00
	00		 call	 DWORD PTR __imp_??1?$CStringT@DV?$StrTraitMFC_DLL@DV?$ChTraitsCRT@D@ATL@@@@@ATL@@QAE@XZ
  010ff	8b 5d f0	 mov	 ebx, DWORD PTR $T72[ebp]
  01102	8b 75 d8	 mov	 esi, DWORD PTR tv3401[ebp]
  01105	8b 7d d4	 mov	 edi, DWORD PTR _this$1$[ebp]
$LN19@SetFoundCa:
  01108	ff 75 e4	 push	 DWORD PTR _strText$[ebp]
  0110b	8b 8f ac 00 00
	00		 mov	 ecx, DWORD PTR [edi+172]
  01111	6a 01		 push	 1
  01113	56		 push	 esi
  01114	e8 00 00 00 00	 call	 ?SetItemText@CGridCtrl@@QAEHHHPBD@Z ; CGridCtrl::SetItemText

; 747  : 
; 748  : 			// Candle Pattern Type
; 749  : 			strText = cpCandlePattern.GetCandlePatternTrendName( pCandlePatternData->m_nCandlePtnType);

  01119	8b 45 e0	 mov	 eax, DWORD PTR _pCandlePatternData$1$[ebp]
  0111c	8d 8d 20 ff ff
	ff		 lea	 ecx, DWORD PTR _cpCandlePattern$[ebp]
  01122	ff 70 10	 push	 DWORD PTR [eax+16]
  01125	8d 85 bc fe ff
	ff		 lea	 eax, DWORD PTR $T4[ebp]
  0112b	50		 push	 eax
  0112c	e8 00 00 00 00	 call	 ?GetCandlePatternTrendName@CCandlePattern@@QAE?AV?$CStringT@DV?$StrTraitMFC_DLL@DV?$ChTraitsCRT@D@ATL@@@@@ATL@@H@Z ; CCandlePattern::GetCandlePatternTrendName
  01131	50		 push	 eax
  01132	8d 4d e4	 lea	 ecx, DWORD PTR _strText$[ebp]
  01135	c6 45 fc 40	 mov	 BYTE PTR __$EHRec$[ebp+8], 64 ; 00000040H
  01139	ff 15 00 00 00
	00		 call	 DWORD PTR __imp_??4?$CStringT@DV?$StrTraitMFC_DLL@DV?$ChTraitsCRT@D@ATL@@@@@ATL@@QAEAAV01@ABV01@@Z
  0113f	8d 8d bc fe ff
	ff		 lea	 ecx, DWORD PTR $T4[ebp]
  01145	c6 45 fc 02	 mov	 BYTE PTR __$EHRec$[ebp+8], 2
  01149	ff 15 00 00 00
	00		 call	 DWORD PTR __imp_??1?$CStringT@DV?$StrTraitMFC_DLL@DV?$ChTraitsCRT@D@ATL@@@@@ATL@@QAE@XZ

; 750  : 			m_pGridCandleRtpType1->SetItemText( nRow, COL_CND1_TYPE, strText);

  0114f	ff 75 e4	 push	 DWORD PTR _strText$[ebp]
  01152	8b 8f ac 00 00
	00		 mov	 ecx, DWORD PTR [edi+172]
  01158	6a 02		 push	 2
  0115a	56		 push	 esi
  0115b	e8 00 00 00 00	 call	 ?SetItemText@CGridCtrl@@QAEHHHPBD@Z ; CGridCtrl::SetItemText

; 751  : 			
; 752  : 			// Candle Pattern Name
; 753  : 			strText = cpCandlePattern.GetCandlePatternName( pCandlePatternData->m_nCandlePtnType);

  01160	8b 45 e0	 mov	 eax, DWORD PTR _pCandlePatternData$1$[ebp]
  01163	8d 8d 20 ff ff
	ff		 lea	 ecx, DWORD PTR _cpCandlePattern$[ebp]
  01169	ff 70 10	 push	 DWORD PTR [eax+16]
  0116c	8d 85 b8 fe ff
	ff		 lea	 eax, DWORD PTR $T3[ebp]
  01172	50		 push	 eax
  01173	e8 00 00 00 00	 call	 ?GetCandlePatternName@CCandlePattern@@QAE?AV?$CStringT@DV?$StrTraitMFC_DLL@DV?$ChTraitsCRT@D@ATL@@@@@ATL@@H@Z ; CCandlePattern::GetCandlePatternName
  01178	50		 push	 eax
  01179	8d 4d e4	 lea	 ecx, DWORD PTR _strText$[ebp]
  0117c	c6 45 fc 41	 mov	 BYTE PTR __$EHRec$[ebp+8], 65 ; 00000041H
  01180	ff 15 00 00 00
	00		 call	 DWORD PTR __imp_??4?$CStringT@DV?$StrTraitMFC_DLL@DV?$ChTraitsCRT@D@ATL@@@@@ATL@@QAEAAV01@ABV01@@Z
  01186	8d 8d b8 fe ff
	ff		 lea	 ecx, DWORD PTR $T3[ebp]
  0118c	c6 45 fc 02	 mov	 BYTE PTR __$EHRec$[ebp+8], 2
  01190	ff 15 00 00 00
	00		 call	 DWORD PTR __imp_??1?$CStringT@DV?$StrTraitMFC_DLL@DV?$ChTraitsCRT@D@ATL@@@@@ATL@@QAE@XZ

; 754  : 			m_pGridCandleRtpType1->SetItemText( nRow, COL_CND1_NAME, strText);

  01196	ff 75 e4	 push	 DWORD PTR _strText$[ebp]
  01199	8b 8f ac 00 00
	00		 mov	 ecx, DWORD PTR [edi+172]
  0119f	6a 03		 push	 3
  011a1	56		 push	 esi
  011a2	e8 00 00 00 00	 call	 ?SetItemText@CGridCtrl@@QAEHHHPBD@Z ; CGridCtrl::SetItemText

; 755  : 
; 756  : 			// 1Day : Accumulation rise and fall rate
; 757  : 			dBaseClose = pCandlePatternData->m_dClose[0];

  011a7	8b 45 e0	 mov	 eax, DWORD PTR _pCandlePatternData$1$[ebp]

; 758  : 			dTemp = pCandlePatternData->m_dClose[1]/dBaseClose * 100 - 100.;
; 759  : 			SetPercentNColor( m_pGridCandleRtpType1, nRow, COL_CND1_DAY1, dTemp);

  011aa	83 ec 08	 sub	 esp, 8
  011ad	8b cf		 mov	 ecx, edi
  011af	f2 0f 10 48 20	 movsd	 xmm1, QWORD PTR [eax+32]
  011b4	f2 0f 10 40 28	 movsd	 xmm0, QWORD PTR [eax+40]
  011b9	f2 0f 5e c1	 divsd	 xmm0, xmm1
  011bd	f2 0f 11 8d 30
	ff ff ff	 movsd	 QWORD PTR _dBaseClose$1$[ebp], xmm1
  011c5	f2 0f 59 05 00
	00 00 00	 mulsd	 xmm0, QWORD PTR __real@4059000000000000
  011cd	f2 0f 5c 05 00
	00 00 00	 subsd	 xmm0, QWORD PTR __real@4059000000000000
  011d5	f2 0f 11 04 24	 movsd	 QWORD PTR [esp], xmm0
  011da	6a 04		 push	 4
  011dc	56		 push	 esi
  011dd	ff b7 ac 00 00
	00		 push	 DWORD PTR [edi+172]
  011e3	e8 00 00 00 00	 call	 ?SetPercentNColor@CDlgAnalysis@@QAEXPAVCGridCtrl@@HHN@Z ; CDlgAnalysis::SetPercentNColor

; 760  : 
; 761  : 			// 2Day : Accumulation rise and fall rate
; 762  : 			dTemp = pCandlePatternData->m_dClose[2]/dBaseClose * 100 - 100.;

  011e8	8b 45 e0	 mov	 eax, DWORD PTR _pCandlePatternData$1$[ebp]

; 763  : 			SetPercentNColor( m_pGridCandleRtpType1, nRow, COL_CND1_DAY2, dTemp);

  011eb	83 ec 08	 sub	 esp, 8
  011ee	8b cf		 mov	 ecx, edi
  011f0	f2 0f 10 40 30	 movsd	 xmm0, QWORD PTR [eax+48]
  011f5	f2 0f 5e 85 30
	ff ff ff	 divsd	 xmm0, QWORD PTR _dBaseClose$1$[ebp]
  011fd	f2 0f 59 05 00
	00 00 00	 mulsd	 xmm0, QWORD PTR __real@4059000000000000
  01205	f2 0f 5c 05 00
	00 00 00	 subsd	 xmm0, QWORD PTR __real@4059000000000000
  0120d	f2 0f 11 04 24	 movsd	 QWORD PTR [esp], xmm0
  01212	6a 05		 push	 5
  01214	56		 push	 esi
  01215	ff b7 ac 00 00
	00		 push	 DWORD PTR [edi+172]
  0121b	e8 00 00 00 00	 call	 ?SetPercentNColor@CDlgAnalysis@@QAEXPAVCGridCtrl@@HHN@Z ; CDlgAnalysis::SetPercentNColor

; 764  : 
; 765  : 			// 3Day : Accumulation rise and fall rate
; 766  : 			dTemp = pCandlePatternData->m_dClose[3]/dBaseClose * 100 - 100.;

  01220	8b 45 e0	 mov	 eax, DWORD PTR _pCandlePatternData$1$[ebp]

; 767  : 			SetPercentNColor( m_pGridCandleRtpType1, nRow, COL_CND1_DAY3, dTemp);

  01223	83 ec 08	 sub	 esp, 8
  01226	8b cf		 mov	 ecx, edi
  01228	f2 0f 10 40 38	 movsd	 xmm0, QWORD PTR [eax+56]
  0122d	f2 0f 5e 85 30
	ff ff ff	 divsd	 xmm0, QWORD PTR _dBaseClose$1$[ebp]
  01235	f2 0f 59 05 00
	00 00 00	 mulsd	 xmm0, QWORD PTR __real@4059000000000000
  0123d	f2 0f 5c 05 00
	00 00 00	 subsd	 xmm0, QWORD PTR __real@4059000000000000
  01245	f2 0f 11 04 24	 movsd	 QWORD PTR [esp], xmm0
  0124a	6a 06		 push	 6
  0124c	56		 push	 esi
  0124d	ff b7 ac 00 00
	00		 push	 DWORD PTR [edi+172]
  01253	e8 00 00 00 00	 call	 ?SetPercentNColor@CDlgAnalysis@@QAEXPAVCGridCtrl@@HHN@Z ; CDlgAnalysis::SetPercentNColor

; 768  : 
; 769  : 			// 4Day : Accumulation rise and fall rate
; 770  : 			dTemp = pCandlePatternData->m_dClose[4]/dBaseClose * 100 - 100.;

  01258	8b 45 e0	 mov	 eax, DWORD PTR _pCandlePatternData$1$[ebp]

; 771  : 			SetPercentNColor( m_pGridCandleRtpType1, nRow, COL_CND1_DAY4, dTemp);

  0125b	83 ec 08	 sub	 esp, 8
  0125e	8b cf		 mov	 ecx, edi
  01260	f2 0f 10 40 40	 movsd	 xmm0, QWORD PTR [eax+64]
  01265	f2 0f 5e 85 30
	ff ff ff	 divsd	 xmm0, QWORD PTR _dBaseClose$1$[ebp]
  0126d	f2 0f 59 05 00
	00 00 00	 mulsd	 xmm0, QWORD PTR __real@4059000000000000
  01275	f2 0f 5c 05 00
	00 00 00	 subsd	 xmm0, QWORD PTR __real@4059000000000000
  0127d	f2 0f 11 04 24	 movsd	 QWORD PTR [esp], xmm0
  01282	6a 07		 push	 7
  01284	56		 push	 esi
  01285	ff b7 ac 00 00
	00		 push	 DWORD PTR [edi+172]
  0128b	e8 00 00 00 00	 call	 ?SetPercentNColor@CDlgAnalysis@@QAEXPAVCGridCtrl@@HHN@Z ; CDlgAnalysis::SetPercentNColor

; 772  : 
; 773  : 			// 5Day : Accumulation rise and fall rate
; 774  : 			dTemp = pCandlePatternData->m_dClose[5]/dBaseClose * 100 - 100.;

  01290	8b 45 e0	 mov	 eax, DWORD PTR _pCandlePatternData$1$[ebp]

; 775  : 			SetPercentNColor( m_pGridCandleRtpType1, nRow, COL_CND1_DAY5, dTemp);

  01293	83 ec 08	 sub	 esp, 8
  01296	8b cf		 mov	 ecx, edi
  01298	f2 0f 10 40 48	 movsd	 xmm0, QWORD PTR [eax+72]
  0129d	f2 0f 5e 85 30
	ff ff ff	 divsd	 xmm0, QWORD PTR _dBaseClose$1$[ebp]
  012a5	f2 0f 59 05 00
	00 00 00	 mulsd	 xmm0, QWORD PTR __real@4059000000000000
  012ad	f2 0f 5c 05 00
	00 00 00	 subsd	 xmm0, QWORD PTR __real@4059000000000000
  012b5	f2 0f 11 04 24	 movsd	 QWORD PTR [esp], xmm0
  012ba	6a 08		 push	 8
  012bc	56		 push	 esi
  012bd	ff b7 ac 00 00
	00		 push	 DWORD PTR [edi+172]
  012c3	e8 00 00 00 00	 call	 ?SetPercentNColor@CDlgAnalysis@@QAEXPAVCGridCtrl@@HHN@Z ; CDlgAnalysis::SetPercentNColor

; 776  : 
; 777  : 
; 778  : 			// Grid Color Set
; 779  : 			nPatternTrend = cpCandlePattern.GetCandlePatternTrend( pCandlePatternData->m_nCandlePtnType);

  012c8	8b 45 e0	 mov	 eax, DWORD PTR _pCandlePatternData$1$[ebp]
  012cb	8d 8d 20 ff ff
	ff		 lea	 ecx, DWORD PTR _cpCandlePattern$[ebp]
  012d1	ff 70 10	 push	 DWORD PTR [eax+16]
  012d4	e8 00 00 00 00	 call	 ?GetCandlePatternTrend@CCandlePattern@@QAEHH@Z ; CCandlePattern::GetCandlePatternTrend
  012d9	8b c8		 mov	 ecx, eax

; 780  : 			if ( nPatternTrend == UPWARD_REVERSE)

  012db	81 f9 b9 0b 00
	00		 cmp	 ecx, 3001		; 00000bb9H
  012e1	75 07		 jne	 SHORT $LN20@SetFoundCa

; 781  : 				clrBG = COLOR_BG_UPWARD_REVERSE;

  012e3	b8 fa aa cb 00	 mov	 eax, 13347578		; 00cbaafaH
  012e8	eb 2f		 jmp	 SHORT $LN665@SetFoundCa
$LN20@SetFoundCa:

; 782  : 			else if ( nPatternTrend == DNWARD_REVERSE)

  012ea	81 f9 ba 0b 00
	00		 cmp	 ecx, 3002		; 00000bbaH
  012f0	75 07		 jne	 SHORT $LN22@SetFoundCa

; 783  : 				clrBG = COLOR_BG_DNWARD_REVERSE;

  012f2	b8 ca e3 fd 00	 mov	 eax, 16638922		; 00fde3caH
  012f7	eb 20		 jmp	 SHORT $LN665@SetFoundCa
$LN22@SetFoundCa:

; 784  : 			else if ( nPatternTrend == UPWARD_CONTINUE)

  012f9	81 f9 bb 0b 00
	00		 cmp	 ecx, 3003		; 00000bbbH
  012ff	75 07		 jne	 SHORT $LN24@SetFoundCa

; 785  : 				clrBG = COLOR_BG_UPWARD_CONTINUE;

  01301	b8 fa aa cb 00	 mov	 eax, 13347578		; 00cbaafaH
  01306	eb 11		 jmp	 SHORT $LN665@SetFoundCa
$LN24@SetFoundCa:

; 786  : 			else if ( nPatternTrend == DNWARD_CONTINUE)

  01308	8b 45 d0	 mov	 eax, DWORD PTR _clrBG$[ebp]
  0130b	81 f9 bc 0b 00
	00		 cmp	 ecx, 3004		; 00000bbcH
  01311	b9 ca e3 fd 00	 mov	 ecx, 16638922		; 00fde3caH
  01316	0f 44 c1	 cmove	 eax, ecx
$LN665@SetFoundCa:

; 787  : 				clrBG = COLOR_BG_DNWARD_CONTINUE;
; 788  : 				
; 789  : 			m_pGridCandleRtpType1->SetItemBkColour( nRow, COL_CND1_TYPE, clrBG);

  01319	8b 8f ac 00 00
	00		 mov	 ecx, DWORD PTR [edi+172]
  0131f	50		 push	 eax
  01320	6a 02		 push	 2
  01322	56		 push	 esi
  01323	89 45 d0	 mov	 DWORD PTR _clrBG$[ebp], eax
  01326	e8 00 00 00 00	 call	 ?SetItemBkColour@CGridCtrl@@QAEHHHK@Z ; CGridCtrl::SetItemBkColour

; 790  : 			m_pGridCandleRtpType1->SetItemBkColour( nRow, COL_CND1_NAME, clrBG);

  0132b	ff 75 d0	 push	 DWORD PTR _clrBG$[ebp]
  0132e	8b 8f ac 00 00
	00		 mov	 ecx, DWORD PTR [edi+172]
  01334	6a 03		 push	 3
  01336	56		 push	 esi
  01337	e8 00 00 00 00	 call	 ?SetItemBkColour@CGridCtrl@@QAEHHHK@Z ; CGridCtrl::SetItemBkColour
  0133c	8b 8d 28 ff ff
	ff		 mov	 ecx, DWORD PTR tv3400[ebp]
  01342	8b 95 38 ff ff
	ff		 mov	 edx, DWORD PTR _nDataCnt$1$[ebp]
$LN2@SetFoundCa:

; 696  : 
; 697  : 	for ( int i = 0; i < nDataCnt; i++)

  01348	46		 inc	 esi
  01349	49		 dec	 ecx
  0134a	89 75 d8	 mov	 DWORD PTR tv3401[ebp], esi
  0134d	89 8d 28 ff ff
	ff		 mov	 DWORD PTR tv3400[ebp], ecx
  01353	8d 46 fe	 lea	 eax, DWORD PTR [esi-2]
  01356	3b c2		 cmp	 eax, edx
  01358	0f 8c 56 ed ff
	ff		 jl	 $LL4@SetFoundCa
$LN3@SetFoundCa:

; 791  : 		}
; 792  : 	}
; 793  : 
; 794  : 	m_pGridCandleRtpType1->Refresh();

  0135e	8b 8f ac 00 00
	00		 mov	 ecx, DWORD PTR [edi+172]
  01364	e8 00 00 00 00	 call	 ?Refresh@CGridCtrl@@QAEXXZ ; CGridCtrl::Refresh

; 795  : }

  01369	8d 8d 20 ff ff
	ff		 lea	 ecx, DWORD PTR _cpCandlePattern$[ebp]
  0136f	e8 00 00 00 00	 call	 ??1CCandlePattern@@UAE@XZ ; CCandlePattern::~CCandlePattern
  01374	8d 4d e8	 lea	 ecx, DWORD PTR _strTime$[ebp]
  01377	ff 15 00 00 00
	00		 call	 DWORD PTR __imp_??1?$CStringT@DV?$StrTraitMFC_DLL@DV?$ChTraitsCRT@D@ATL@@@@@ATL@@QAE@XZ
  0137d	8d 4d e4	 lea	 ecx, DWORD PTR _strText$[ebp]
  01380	ff 15 00 00 00
	00		 call	 DWORD PTR __imp_??1?$CStringT@DV?$StrTraitMFC_DLL@DV?$ChTraitsCRT@D@ATL@@@@@ATL@@QAE@XZ
$LN1@SetFoundCa:
  01386	8b 4d f4	 mov	 ecx, DWORD PTR __$EHRec$[ebp]
  01389	64 89 0d 00 00
	00 00		 mov	 DWORD PTR fs:0, ecx
  01390	59		 pop	 ecx
  01391	5f		 pop	 edi
  01392	5e		 pop	 esi
  01393	5b		 pop	 ebx
  01394	8b e5		 mov	 esp, ebp
  01396	5d		 pop	 ebp
  01397	c2 04 00	 ret	 4
$LN95@SetFoundCa:
; File C:\Program Files (x86)\Microsoft Visual Studio\2019\Community\VC\Tools\MSVC\14.29.30133\atlmfc\include\afxtempl.h

; 290  : 	AfxThrowInvalidArgException();

  0139a	e8 00 00 00 00	 call	 ?AfxThrowInvalidArgException@@YGXXZ ; AfxThrowInvalidArgException
$LN663@SetFoundCa:
  0139f	cc		 int	 3
_TEXT	ENDS
;	COMDAT text$x
text$x	SEGMENT
__unwindfunclet$?SetFoundCandlePtnToGrid_RptType1@CDlgAnalysis@@QAEXPAVCObject@@@Z$0:
  00000	8d 4d e4	 lea	 ecx, DWORD PTR _strText$[ebp]
  00003	ff 25 00 00 00
	00		 jmp	 DWORD PTR __imp_??1?$CStringT@DV?$StrTraitMFC_DLL@DV?$ChTraitsCRT@D@ATL@@@@@ATL@@QAE@XZ
__unwindfunclet$?SetFoundCandlePtnToGrid_RptType1@CDlgAnalysis@@QAEXPAVCObject@@@Z$1:
  00009	8d 4d e8	 lea	 ecx, DWORD PTR _strTime$[ebp]
  0000c	ff 25 00 00 00
	00		 jmp	 DWORD PTR __imp_??1?$CStringT@DV?$StrTraitMFC_DLL@DV?$ChTraitsCRT@D@ATL@@@@@ATL@@QAE@XZ
__unwindfunclet$?SetFoundCandlePtnToGrid_RptType1@CDlgAnalysis@@QAEXPAVCObject@@@Z$2:
  00012	8d 8d 20 ff ff
	ff		 lea	 ecx, DWORD PTR _cpCandlePattern$[ebp]
  00018	e9 00 00 00 00	 jmp	 ??1CCandlePattern@@UAE@XZ ; CCandlePattern::~CCandlePattern
__unwindfunclet$?SetFoundCandlePtnToGrid_RptType1@CDlgAnalysis@@QAEXPAVCObject@@@Z$3:
  0001d	8d 8d 10 ff ff
	ff		 lea	 ecx, DWORD PTR $T25[ebp]
  00023	ff 25 00 00 00
	00		 jmp	 DWORD PTR __imp_??1?$CStringT@DV?$StrTraitMFC_DLL@DV?$ChTraitsCRT@D@ATL@@@@@ATL@@QAE@XZ
__unwindfunclet$?SetFoundCandlePtnToGrid_RptType1@CDlgAnalysis@@QAEXPAVCObject@@@Z$4:
  00029	8d 8d 14 ff ff
	ff		 lea	 ecx, DWORD PTR $T26[ebp]
  0002f	ff 25 00 00 00
	00		 jmp	 DWORD PTR __imp_??1?$CStringT@DV?$StrTraitMFC_DLL@DV?$ChTraitsCRT@D@ATL@@@@@ATL@@QAE@XZ
__unwindfunclet$?SetFoundCandlePtnToGrid_RptType1@CDlgAnalysis@@QAEXPAVCObject@@@Z$5:
  00035	8d 8d 18 ff ff
	ff		 lea	 ecx, DWORD PTR $T27[ebp]
  0003b	ff 25 00 00 00
	00		 jmp	 DWORD PTR __imp_??1?$CStringT@DV?$StrTraitMFC_DLL@DV?$ChTraitsCRT@D@ATL@@@@@ATL@@QAE@XZ
__unwindfunclet$?SetFoundCandlePtnToGrid_RptType1@CDlgAnalysis@@QAEXPAVCObject@@@Z$6:
  00041	8d 8d 1c ff ff
	ff		 lea	 ecx, DWORD PTR $T28[ebp]
  00047	ff 25 00 00 00
	00		 jmp	 DWORD PTR __imp_??1?$CStringT@DV?$StrTraitMFC_DLL@DV?$ChTraitsCRT@D@ATL@@@@@ATL@@QAE@XZ
__unwindfunclet$?SetFoundCandlePtnToGrid_RptType1@CDlgAnalysis@@QAEXPAVCObject@@@Z$66:
  0004d	8b 45 ec	 mov	 eax, DWORD PTR $T71[ebp]
  00050	83 e0 01	 and	 eax, 1
  00053	0f 84 0d 00 00
	00		 je	 $LN107@SetFoundCa
  00059	83 65 ec fe	 and	 DWORD PTR $T71[ebp], -2	; fffffffeH
  0005d	8d 4d bc	 lea	 ecx, DWORD PTR $T63[ebp]
  00060	ff 25 00 00 00
	00		 jmp	 DWORD PTR __imp_??1?$CStringT@DV?$StrTraitMFC_DLL@DV?$ChTraitsCRT@D@ATL@@@@@ATL@@QAE@XZ
$LN107@SetFoundCa:
  00066	c3		 ret	 0
__unwindfunclet$?SetFoundCandlePtnToGrid_RptType1@CDlgAnalysis@@QAEXPAVCObject@@@Z$67:
  00067	8b 45 ec	 mov	 eax, DWORD PTR $T71[ebp]
  0006a	83 e0 02	 and	 eax, 2
  0006d	0f 84 0d 00 00
	00		 je	 $LN120@SetFoundCa
  00073	83 65 ec fd	 and	 DWORD PTR $T71[ebp], -3	; fffffffdH
  00077	8d 4d c0	 lea	 ecx, DWORD PTR $T64[ebp]
  0007a	ff 25 00 00 00
	00		 jmp	 DWORD PTR __imp_??1?$CStringT@DV?$StrTraitMFC_DLL@DV?$ChTraitsCRT@D@ATL@@@@@ATL@@QAE@XZ
$LN120@SetFoundCa:
  00080	c3		 ret	 0
__unwindfunclet$?SetFoundCandlePtnToGrid_RptType1@CDlgAnalysis@@QAEXPAVCObject@@@Z$68:
  00081	8b 45 ec	 mov	 eax, DWORD PTR $T71[ebp]
  00084	83 e0 04	 and	 eax, 4
  00087	0f 84 0d 00 00
	00		 je	 $LN136@SetFoundCa
  0008d	83 65 ec fb	 and	 DWORD PTR $T71[ebp], -5	; fffffffbH
  00091	8d 4d c4	 lea	 ecx, DWORD PTR $T65[ebp]
  00094	ff 25 00 00 00
	00		 jmp	 DWORD PTR __imp_??1?$CStringT@DV?$StrTraitMFC_DLL@DV?$ChTraitsCRT@D@ATL@@@@@ATL@@QAE@XZ
$LN136@SetFoundCa:
  0009a	c3		 ret	 0
__unwindfunclet$?SetFoundCandlePtnToGrid_RptType1@CDlgAnalysis@@QAEXPAVCObject@@@Z$69:
  0009b	8b 45 ec	 mov	 eax, DWORD PTR $T71[ebp]
  0009e	83 e0 08	 and	 eax, 8
  000a1	0f 84 0d 00 00
	00		 je	 $LN149@SetFoundCa
  000a7	83 65 ec f7	 and	 DWORD PTR $T71[ebp], -9	; fffffff7H
  000ab	8d 4d c8	 lea	 ecx, DWORD PTR $T66[ebp]
  000ae	ff 25 00 00 00
	00		 jmp	 DWORD PTR __imp_??1?$CStringT@DV?$StrTraitMFC_DLL@DV?$ChTraitsCRT@D@ATL@@@@@ATL@@QAE@XZ
$LN149@SetFoundCa:
  000b4	c3		 ret	 0
__unwindfunclet$?SetFoundCandlePtnToGrid_RptType1@CDlgAnalysis@@QAEXPAVCObject@@@Z$70:
  000b5	8b 45 ec	 mov	 eax, DWORD PTR $T71[ebp]
  000b8	83 e0 10	 and	 eax, 16			; 00000010H
  000bb	0f 84 0d 00 00
	00		 je	 $LN165@SetFoundCa
  000c1	83 65 ec ef	 and	 DWORD PTR $T71[ebp], -17 ; ffffffefH
  000c5	8d 4d cc	 lea	 ecx, DWORD PTR $T67[ebp]
  000c8	ff 25 00 00 00
	00		 jmp	 DWORD PTR __imp_??1?$CStringT@DV?$StrTraitMFC_DLL@DV?$ChTraitsCRT@D@ATL@@@@@ATL@@QAE@XZ
$LN165@SetFoundCa:
  000ce	c3		 ret	 0
__unwindfunclet$?SetFoundCandlePtnToGrid_RptType1@CDlgAnalysis@@QAEXPAVCObject@@@Z$71:
  000cf	8b 45 ec	 mov	 eax, DWORD PTR $T71[ebp]
  000d2	83 e0 20	 and	 eax, 32			; 00000020H
  000d5	0f 84 10 00 00
	00		 je	 $LN178@SetFoundCa
  000db	83 65 ec df	 and	 DWORD PTR $T71[ebp], -33 ; ffffffdfH
  000df	8d 8d 54 ff ff
	ff		 lea	 ecx, DWORD PTR $T37[ebp]
  000e5	ff 25 00 00 00
	00		 jmp	 DWORD PTR __imp_??1?$CStringT@DV?$StrTraitMFC_DLL@DV?$ChTraitsCRT@D@ATL@@@@@ATL@@QAE@XZ
$LN178@SetFoundCa:
  000eb	c3		 ret	 0
__unwindfunclet$?SetFoundCandlePtnToGrid_RptType1@CDlgAnalysis@@QAEXPAVCObject@@@Z$13:
  000ec	8d 8d 04 ff ff
	ff		 lea	 ecx, DWORD PTR $T22[ebp]
  000f2	ff 25 00 00 00
	00		 jmp	 DWORD PTR __imp_??1?$CStringT@DV?$StrTraitMFC_DLL@DV?$ChTraitsCRT@D@ATL@@@@@ATL@@QAE@XZ
__unwindfunclet$?SetFoundCandlePtnToGrid_RptType1@CDlgAnalysis@@QAEXPAVCObject@@@Z$14:
  000f8	8d 8d 08 ff ff
	ff		 lea	 ecx, DWORD PTR $T23[ebp]
  000fe	ff 25 00 00 00
	00		 jmp	 DWORD PTR __imp_??1?$CStringT@DV?$StrTraitMFC_DLL@DV?$ChTraitsCRT@D@ATL@@@@@ATL@@QAE@XZ
__unwindfunclet$?SetFoundCandlePtnToGrid_RptType1@CDlgAnalysis@@QAEXPAVCObject@@@Z$15:
  00104	8d 8d 0c ff ff
	ff		 lea	 ecx, DWORD PTR $T24[ebp]
  0010a	ff 25 00 00 00
	00		 jmp	 DWORD PTR __imp_??1?$CStringT@DV?$StrTraitMFC_DLL@DV?$ChTraitsCRT@D@ATL@@@@@ATL@@QAE@XZ
__unwindfunclet$?SetFoundCandlePtnToGrid_RptType1@CDlgAnalysis@@QAEXPAVCObject@@@Z$72:
  00110	8b 45 ec	 mov	 eax, DWORD PTR $T71[ebp]
  00113	83 e0 40	 and	 eax, 64			; 00000040H
  00116	0f 84 0d 00 00
	00		 je	 $LN194@SetFoundCa
  0011c	83 65 ec bf	 and	 DWORD PTR $T71[ebp], -65 ; ffffffbfH
  00120	8d 4d b0	 lea	 ecx, DWORD PTR $T60[ebp]
  00123	ff 25 00 00 00
	00		 jmp	 DWORD PTR __imp_??1?$CStringT@DV?$StrTraitMFC_DLL@DV?$ChTraitsCRT@D@ATL@@@@@ATL@@QAE@XZ
$LN194@SetFoundCa:
  00129	c3		 ret	 0
__unwindfunclet$?SetFoundCandlePtnToGrid_RptType1@CDlgAnalysis@@QAEXPAVCObject@@@Z$73:
  0012a	8b 45 ec	 mov	 eax, DWORD PTR $T71[ebp]
  0012d	25 80 00 00 00	 and	 eax, 128		; 00000080H
  00132	0f 84 10 00 00
	00		 je	 $LN207@SetFoundCa
  00138	81 65 ec 7f ff
	ff ff		 and	 DWORD PTR $T71[ebp], -129 ; ffffff7fH
  0013f	8d 4d b4	 lea	 ecx, DWORD PTR $T61[ebp]
  00142	ff 25 00 00 00
	00		 jmp	 DWORD PTR __imp_??1?$CStringT@DV?$StrTraitMFC_DLL@DV?$ChTraitsCRT@D@ATL@@@@@ATL@@QAE@XZ
$LN207@SetFoundCa:
  00148	c3		 ret	 0
__unwindfunclet$?SetFoundCandlePtnToGrid_RptType1@CDlgAnalysis@@QAEXPAVCObject@@@Z$74:
  00149	8b 45 ec	 mov	 eax, DWORD PTR $T71[ebp]
  0014c	25 00 01 00 00	 and	 eax, 256		; 00000100H
  00151	0f 84 10 00 00
	00		 je	 $LN223@SetFoundCa
  00157	81 65 ec ff fe
	ff ff		 and	 DWORD PTR $T71[ebp], -257 ; fffffeffH
  0015e	8d 4d b8	 lea	 ecx, DWORD PTR $T62[ebp]
  00161	ff 25 00 00 00
	00		 jmp	 DWORD PTR __imp_??1?$CStringT@DV?$StrTraitMFC_DLL@DV?$ChTraitsCRT@D@ATL@@@@@ATL@@QAE@XZ
$LN223@SetFoundCa:
  00167	c3		 ret	 0
__unwindfunclet$?SetFoundCandlePtnToGrid_RptType1@CDlgAnalysis@@QAEXPAVCObject@@@Z$75:
  00168	8b 45 ec	 mov	 eax, DWORD PTR $T71[ebp]
  0016b	25 00 02 00 00	 and	 eax, 512		; 00000200H
  00170	0f 84 13 00 00
	00		 je	 $LN236@SetFoundCa
  00176	81 65 ec ff fd
	ff ff		 and	 DWORD PTR $T71[ebp], -513 ; fffffdffH
  0017d	8d 8d 50 ff ff
	ff		 lea	 ecx, DWORD PTR $T36[ebp]
  00183	ff 25 00 00 00
	00		 jmp	 DWORD PTR __imp_??1?$CStringT@DV?$StrTraitMFC_DLL@DV?$ChTraitsCRT@D@ATL@@@@@ATL@@QAE@XZ
$LN236@SetFoundCa:
  00189	c3		 ret	 0
__unwindfunclet$?SetFoundCandlePtnToGrid_RptType1@CDlgAnalysis@@QAEXPAVCObject@@@Z$20:
  0018a	8d 8d d4 fe ff
	ff		 lea	 ecx, DWORD PTR $T10[ebp]
  00190	ff 25 00 00 00
	00		 jmp	 DWORD PTR __imp_??1?$CStringT@DV?$StrTraitMFC_DLL@DV?$ChTraitsCRT@D@ATL@@@@@ATL@@QAE@XZ
__unwindfunclet$?SetFoundCandlePtnToGrid_RptType1@CDlgAnalysis@@QAEXPAVCObject@@@Z$21:
  00196	8d 8d f8 fe ff
	ff		 lea	 ecx, DWORD PTR $T19[ebp]
  0019c	ff 25 00 00 00
	00		 jmp	 DWORD PTR __imp_??1?$CStringT@DV?$StrTraitMFC_DLL@DV?$ChTraitsCRT@D@ATL@@@@@ATL@@QAE@XZ
__unwindfunclet$?SetFoundCandlePtnToGrid_RptType1@CDlgAnalysis@@QAEXPAVCObject@@@Z$22:
  001a2	8d 8d fc fe ff
	ff		 lea	 ecx, DWORD PTR $T20[ebp]
  001a8	ff 25 00 00 00
	00		 jmp	 DWORD PTR __imp_??1?$CStringT@DV?$StrTraitMFC_DLL@DV?$ChTraitsCRT@D@ATL@@@@@ATL@@QAE@XZ
__unwindfunclet$?SetFoundCandlePtnToGrid_RptType1@CDlgAnalysis@@QAEXPAVCObject@@@Z$23:
  001ae	8d 8d 00 ff ff
	ff		 lea	 ecx, DWORD PTR $T21[ebp]
  001b4	ff 25 00 00 00
	00		 jmp	 DWORD PTR __imp_??1?$CStringT@DV?$StrTraitMFC_DLL@DV?$ChTraitsCRT@D@ATL@@@@@ATL@@QAE@XZ
__unwindfunclet$?SetFoundCandlePtnToGrid_RptType1@CDlgAnalysis@@QAEXPAVCObject@@@Z$76:
  001ba	8b 45 ec	 mov	 eax, DWORD PTR $T71[ebp]
  001bd	25 00 04 00 00	 and	 eax, 1024		; 00000400H
  001c2	0f 84 10 00 00
	00		 je	 $LN256@SetFoundCa
  001c8	81 65 ec ff fb
	ff ff		 and	 DWORD PTR $T71[ebp], -1025 ; fffffbffH
  001cf	8d 4d 98	 lea	 ecx, DWORD PTR $T54[ebp]
  001d2	ff 25 00 00 00
	00		 jmp	 DWORD PTR __imp_??1?$CStringT@DV?$StrTraitMFC_DLL@DV?$ChTraitsCRT@D@ATL@@@@@ATL@@QAE@XZ
$LN256@SetFoundCa:
  001d8	c3		 ret	 0
__unwindfunclet$?SetFoundCandlePtnToGrid_RptType1@CDlgAnalysis@@QAEXPAVCObject@@@Z$77:
  001d9	8b 45 ec	 mov	 eax, DWORD PTR $T71[ebp]
  001dc	25 00 08 00 00	 and	 eax, 2048		; 00000800H
  001e1	0f 84 10 00 00
	00		 je	 $LN269@SetFoundCa
  001e7	81 65 ec ff f7
	ff ff		 and	 DWORD PTR $T71[ebp], -2049 ; fffff7ffH
  001ee	8d 4d 9c	 lea	 ecx, DWORD PTR $T55[ebp]
  001f1	ff 25 00 00 00
	00		 jmp	 DWORD PTR __imp_??1?$CStringT@DV?$StrTraitMFC_DLL@DV?$ChTraitsCRT@D@ATL@@@@@ATL@@QAE@XZ
$LN269@SetFoundCa:
  001f7	c3		 ret	 0
__unwindfunclet$?SetFoundCandlePtnToGrid_RptType1@CDlgAnalysis@@QAEXPAVCObject@@@Z$78:
  001f8	8b 45 ec	 mov	 eax, DWORD PTR $T71[ebp]
  001fb	25 00 10 00 00	 and	 eax, 4096		; 00001000H
  00200	0f 84 10 00 00
	00		 je	 $LN282@SetFoundCa
  00206	81 65 ec ff ef
	ff ff		 and	 DWORD PTR $T71[ebp], -4097 ; ffffefffH
  0020d	8d 4d a0	 lea	 ecx, DWORD PTR $T56[ebp]
  00210	ff 25 00 00 00
	00		 jmp	 DWORD PTR __imp_??1?$CStringT@DV?$StrTraitMFC_DLL@DV?$ChTraitsCRT@D@ATL@@@@@ATL@@QAE@XZ
$LN282@SetFoundCa:
  00216	c3		 ret	 0
__unwindfunclet$?SetFoundCandlePtnToGrid_RptType1@CDlgAnalysis@@QAEXPAVCObject@@@Z$79:
  00217	8b 45 ec	 mov	 eax, DWORD PTR $T71[ebp]
  0021a	25 00 20 00 00	 and	 eax, 8192		; 00002000H
  0021f	0f 84 10 00 00
	00		 je	 $LN298@SetFoundCa
  00225	81 65 ec ff df
	ff ff		 and	 DWORD PTR $T71[ebp], -8193 ; ffffdfffH
  0022c	8d 4d a4	 lea	 ecx, DWORD PTR $T57[ebp]
  0022f	ff 25 00 00 00
	00		 jmp	 DWORD PTR __imp_??1?$CStringT@DV?$StrTraitMFC_DLL@DV?$ChTraitsCRT@D@ATL@@@@@ATL@@QAE@XZ
$LN298@SetFoundCa:
  00235	c3		 ret	 0
__unwindfunclet$?SetFoundCandlePtnToGrid_RptType1@CDlgAnalysis@@QAEXPAVCObject@@@Z$80:
  00236	8b 45 ec	 mov	 eax, DWORD PTR $T71[ebp]
  00239	25 00 40 00 00	 and	 eax, 16384		; 00004000H
  0023e	0f 84 10 00 00
	00		 je	 $LN311@SetFoundCa
  00244	81 65 ec ff bf
	ff ff		 and	 DWORD PTR $T71[ebp], -16385 ; ffffbfffH
  0024b	8d 4d a8	 lea	 ecx, DWORD PTR $T58[ebp]
  0024e	ff 25 00 00 00
	00		 jmp	 DWORD PTR __imp_??1?$CStringT@DV?$StrTraitMFC_DLL@DV?$ChTraitsCRT@D@ATL@@@@@ATL@@QAE@XZ
$LN311@SetFoundCa:
  00254	c3		 ret	 0
__unwindfunclet$?SetFoundCandlePtnToGrid_RptType1@CDlgAnalysis@@QAEXPAVCObject@@@Z$81:
  00255	8b 45 ec	 mov	 eax, DWORD PTR $T71[ebp]
  00258	25 00 80 00 00	 and	 eax, 32768		; 00008000H
  0025d	0f 84 10 00 00
	00		 je	 $LN327@SetFoundCa
  00263	81 65 ec ff 7f
	ff ff		 and	 DWORD PTR $T71[ebp], -32769 ; ffff7fffH
  0026a	8d 4d ac	 lea	 ecx, DWORD PTR $T59[ebp]
  0026d	ff 25 00 00 00
	00		 jmp	 DWORD PTR __imp_??1?$CStringT@DV?$StrTraitMFC_DLL@DV?$ChTraitsCRT@D@ATL@@@@@ATL@@QAE@XZ
$LN327@SetFoundCa:
  00273	c3		 ret	 0
__unwindfunclet$?SetFoundCandlePtnToGrid_RptType1@CDlgAnalysis@@QAEXPAVCObject@@@Z$82:
  00274	8b 45 ec	 mov	 eax, DWORD PTR $T71[ebp]
  00277	25 00 00 01 00	 and	 eax, 65536		; 00010000H
  0027c	0f 84 13 00 00
	00		 je	 $LN340@SetFoundCa
  00282	81 65 ec ff ff
	fe ff		 and	 DWORD PTR $T71[ebp], -65537 ; fffeffffH
  00289	8d 8d 4c ff ff
	ff		 lea	 ecx, DWORD PTR $T35[ebp]
  0028f	ff 25 00 00 00
	00		 jmp	 DWORD PTR __imp_??1?$CStringT@DV?$StrTraitMFC_DLL@DV?$ChTraitsCRT@D@ATL@@@@@ATL@@QAE@XZ
$LN340@SetFoundCa:
  00295	c3		 ret	 0
__unwindfunclet$?SetFoundCandlePtnToGrid_RptType1@CDlgAnalysis@@QAEXPAVCObject@@@Z$31:
  00296	8d 8d ec fe ff
	ff		 lea	 ecx, DWORD PTR $T16[ebp]
  0029c	ff 25 00 00 00
	00		 jmp	 DWORD PTR __imp_??1?$CStringT@DV?$StrTraitMFC_DLL@DV?$ChTraitsCRT@D@ATL@@@@@ATL@@QAE@XZ
__unwindfunclet$?SetFoundCandlePtnToGrid_RptType1@CDlgAnalysis@@QAEXPAVCObject@@@Z$32:
  002a2	8d 8d f0 fe ff
	ff		 lea	 ecx, DWORD PTR $T17[ebp]
  002a8	ff 25 00 00 00
	00		 jmp	 DWORD PTR __imp_??1?$CStringT@DV?$StrTraitMFC_DLL@DV?$ChTraitsCRT@D@ATL@@@@@ATL@@QAE@XZ
__unwindfunclet$?SetFoundCandlePtnToGrid_RptType1@CDlgAnalysis@@QAEXPAVCObject@@@Z$33:
  002ae	8d 8d f4 fe ff
	ff		 lea	 ecx, DWORD PTR $T18[ebp]
  002b4	ff 25 00 00 00
	00		 jmp	 DWORD PTR __imp_??1?$CStringT@DV?$StrTraitMFC_DLL@DV?$ChTraitsCRT@D@ATL@@@@@ATL@@QAE@XZ
__unwindfunclet$?SetFoundCandlePtnToGrid_RptType1@CDlgAnalysis@@QAEXPAVCObject@@@Z$83:
  002ba	8b 45 ec	 mov	 eax, DWORD PTR $T71[ebp]
  002bd	25 00 00 02 00	 and	 eax, 131072		; 00020000H
  002c2	0f 84 10 00 00
	00		 je	 $LN360@SetFoundCa
  002c8	81 65 ec ff ff
	fd ff		 and	 DWORD PTR $T71[ebp], -131073 ; fffdffffH
  002cf	8d 4d 8c	 lea	 ecx, DWORD PTR $T51[ebp]
  002d2	ff 25 00 00 00
	00		 jmp	 DWORD PTR __imp_??1?$CStringT@DV?$StrTraitMFC_DLL@DV?$ChTraitsCRT@D@ATL@@@@@ATL@@QAE@XZ
$LN360@SetFoundCa:
  002d8	c3		 ret	 0
__unwindfunclet$?SetFoundCandlePtnToGrid_RptType1@CDlgAnalysis@@QAEXPAVCObject@@@Z$84:
  002d9	8b 45 ec	 mov	 eax, DWORD PTR $T71[ebp]
  002dc	25 00 00 04 00	 and	 eax, 262144		; 00040000H
  002e1	0f 84 10 00 00
	00		 je	 $LN373@SetFoundCa
  002e7	81 65 ec ff ff
	fb ff		 and	 DWORD PTR $T71[ebp], -262145 ; fffbffffH
  002ee	8d 4d 90	 lea	 ecx, DWORD PTR $T52[ebp]
  002f1	ff 25 00 00 00
	00		 jmp	 DWORD PTR __imp_??1?$CStringT@DV?$StrTraitMFC_DLL@DV?$ChTraitsCRT@D@ATL@@@@@ATL@@QAE@XZ
$LN373@SetFoundCa:
  002f7	c3		 ret	 0
__unwindfunclet$?SetFoundCandlePtnToGrid_RptType1@CDlgAnalysis@@QAEXPAVCObject@@@Z$85:
  002f8	8b 45 ec	 mov	 eax, DWORD PTR $T71[ebp]
  002fb	25 00 00 08 00	 and	 eax, 524288		; 00080000H
  00300	0f 84 10 00 00
	00		 je	 $LN389@SetFoundCa
  00306	81 65 ec ff ff
	f7 ff		 and	 DWORD PTR $T71[ebp], -524289 ; fff7ffffH
  0030d	8d 4d 94	 lea	 ecx, DWORD PTR $T53[ebp]
  00310	ff 25 00 00 00
	00		 jmp	 DWORD PTR __imp_??1?$CStringT@DV?$StrTraitMFC_DLL@DV?$ChTraitsCRT@D@ATL@@@@@ATL@@QAE@XZ
$LN389@SetFoundCa:
  00316	c3		 ret	 0
__unwindfunclet$?SetFoundCandlePtnToGrid_RptType1@CDlgAnalysis@@QAEXPAVCObject@@@Z$86:
  00317	8b 45 ec	 mov	 eax, DWORD PTR $T71[ebp]
  0031a	25 00 00 10 00	 and	 eax, 1048576		; 00100000H
  0031f	0f 84 13 00 00
	00		 je	 $LN402@SetFoundCa
  00325	81 65 ec ff ff
	ef ff		 and	 DWORD PTR $T71[ebp], -1048577 ; ffefffffH
  0032c	8d 8d 48 ff ff
	ff		 lea	 ecx, DWORD PTR $T34[ebp]
  00332	ff 25 00 00 00
	00		 jmp	 DWORD PTR __imp_??1?$CStringT@DV?$StrTraitMFC_DLL@DV?$ChTraitsCRT@D@ATL@@@@@ATL@@QAE@XZ
$LN402@SetFoundCa:
  00338	c3		 ret	 0
__unwindfunclet$?SetFoundCandlePtnToGrid_RptType1@CDlgAnalysis@@QAEXPAVCObject@@@Z$38:
  00339	8d 8d e4 fe ff
	ff		 lea	 ecx, DWORD PTR $T14[ebp]
  0033f	ff 25 00 00 00
	00		 jmp	 DWORD PTR __imp_??1?$CStringT@DV?$StrTraitMFC_DLL@DV?$ChTraitsCRT@D@ATL@@@@@ATL@@QAE@XZ
__unwindfunclet$?SetFoundCandlePtnToGrid_RptType1@CDlgAnalysis@@QAEXPAVCObject@@@Z$39:
  00345	8d 8d e8 fe ff
	ff		 lea	 ecx, DWORD PTR $T15[ebp]
  0034b	ff 25 00 00 00
	00		 jmp	 DWORD PTR __imp_??1?$CStringT@DV?$StrTraitMFC_DLL@DV?$ChTraitsCRT@D@ATL@@@@@ATL@@QAE@XZ
__unwindfunclet$?SetFoundCandlePtnToGrid_RptType1@CDlgAnalysis@@QAEXPAVCObject@@@Z$87:
  00351	8b 45 ec	 mov	 eax, DWORD PTR $T71[ebp]
  00354	25 00 00 20 00	 and	 eax, 2097152		; 00200000H
  00359	0f 84 10 00 00
	00		 je	 $LN418@SetFoundCa
  0035f	81 65 ec ff ff
	df ff		 and	 DWORD PTR $T71[ebp], -2097153 ; ffdfffffH
  00366	8d 4d 84	 lea	 ecx, DWORD PTR $T49[ebp]
  00369	ff 25 00 00 00
	00		 jmp	 DWORD PTR __imp_??1?$CStringT@DV?$StrTraitMFC_DLL@DV?$ChTraitsCRT@D@ATL@@@@@ATL@@QAE@XZ
$LN418@SetFoundCa:
  0036f	c3		 ret	 0
__unwindfunclet$?SetFoundCandlePtnToGrid_RptType1@CDlgAnalysis@@QAEXPAVCObject@@@Z$88:
  00370	8b 45 ec	 mov	 eax, DWORD PTR $T71[ebp]
  00373	25 00 00 40 00	 and	 eax, 4194304		; 00400000H
  00378	0f 84 10 00 00
	00		 je	 $LN431@SetFoundCa
  0037e	81 65 ec ff ff
	bf ff		 and	 DWORD PTR $T71[ebp], -4194305 ; ffbfffffH
  00385	8d 4d 88	 lea	 ecx, DWORD PTR $T50[ebp]
  00388	ff 25 00 00 00
	00		 jmp	 DWORD PTR __imp_??1?$CStringT@DV?$StrTraitMFC_DLL@DV?$ChTraitsCRT@D@ATL@@@@@ATL@@QAE@XZ
$LN431@SetFoundCa:
  0038e	c3		 ret	 0
__unwindfunclet$?SetFoundCandlePtnToGrid_RptType1@CDlgAnalysis@@QAEXPAVCObject@@@Z$89:
  0038f	8b 45 ec	 mov	 eax, DWORD PTR $T71[ebp]
  00392	25 00 00 80 00	 and	 eax, 8388608		; 00800000H
  00397	0f 84 13 00 00
	00		 je	 $LN447@SetFoundCa
  0039d	81 65 ec ff ff
	7f ff		 and	 DWORD PTR $T71[ebp], -8388609 ; ff7fffffH
  003a4	8d 8d 44 ff ff
	ff		 lea	 ecx, DWORD PTR $T33[ebp]
  003aa	ff 25 00 00 00
	00		 jmp	 DWORD PTR __imp_??1?$CStringT@DV?$StrTraitMFC_DLL@DV?$ChTraitsCRT@D@ATL@@@@@ATL@@QAE@XZ
$LN447@SetFoundCa:
  003b0	c3		 ret	 0
__unwindfunclet$?SetFoundCandlePtnToGrid_RptType1@CDlgAnalysis@@QAEXPAVCObject@@@Z$43:
  003b1	8d 8d d8 fe ff
	ff		 lea	 ecx, DWORD PTR $T11[ebp]
  003b7	ff 25 00 00 00
	00		 jmp	 DWORD PTR __imp_??1?$CStringT@DV?$StrTraitMFC_DLL@DV?$ChTraitsCRT@D@ATL@@@@@ATL@@QAE@XZ
__unwindfunclet$?SetFoundCandlePtnToGrid_RptType1@CDlgAnalysis@@QAEXPAVCObject@@@Z$44:
  003bd	8d 8d dc fe ff
	ff		 lea	 ecx, DWORD PTR $T12[ebp]
  003c3	ff 25 00 00 00
	00		 jmp	 DWORD PTR __imp_??1?$CStringT@DV?$StrTraitMFC_DLL@DV?$ChTraitsCRT@D@ATL@@@@@ATL@@QAE@XZ
__unwindfunclet$?SetFoundCandlePtnToGrid_RptType1@CDlgAnalysis@@QAEXPAVCObject@@@Z$45:
  003c9	8d 8d e0 fe ff
	ff		 lea	 ecx, DWORD PTR $T13[ebp]
  003cf	ff 25 00 00 00
	00		 jmp	 DWORD PTR __imp_??1?$CStringT@DV?$StrTraitMFC_DLL@DV?$ChTraitsCRT@D@ATL@@@@@ATL@@QAE@XZ
__unwindfunclet$?SetFoundCandlePtnToGrid_RptType1@CDlgAnalysis@@QAEXPAVCObject@@@Z$90:
  003d5	8b 45 ec	 mov	 eax, DWORD PTR $T71[ebp]
  003d8	25 00 00 00 01	 and	 eax, 16777216		; 01000000H
  003dd	0f 84 13 00 00
	00		 je	 $LN464@SetFoundCa
  003e3	81 65 ec ff ff
	ff fe		 and	 DWORD PTR $T71[ebp], -16777217 ; feffffffH
  003ea	8d 8d 74 ff ff
	ff		 lea	 ecx, DWORD PTR $T45[ebp]
  003f0	ff 25 00 00 00
	00		 jmp	 DWORD PTR __imp_??1?$CStringT@DV?$StrTraitMFC_DLL@DV?$ChTraitsCRT@D@ATL@@@@@ATL@@QAE@XZ
$LN464@SetFoundCa:
  003f6	c3		 ret	 0
__unwindfunclet$?SetFoundCandlePtnToGrid_RptType1@CDlgAnalysis@@QAEXPAVCObject@@@Z$91:
  003f7	8b 45 ec	 mov	 eax, DWORD PTR $T71[ebp]
  003fa	25 00 00 00 02	 and	 eax, 33554432		; 02000000H
  003ff	0f 84 13 00 00
	00		 je	 $LN477@SetFoundCa
  00405	81 65 ec ff ff
	ff fd		 and	 DWORD PTR $T71[ebp], -33554433 ; fdffffffH
  0040c	8d 8d 78 ff ff
	ff		 lea	 ecx, DWORD PTR $T46[ebp]
  00412	ff 25 00 00 00
	00		 jmp	 DWORD PTR __imp_??1?$CStringT@DV?$StrTraitMFC_DLL@DV?$ChTraitsCRT@D@ATL@@@@@ATL@@QAE@XZ
$LN477@SetFoundCa:
  00418	c3		 ret	 0
__unwindfunclet$?SetFoundCandlePtnToGrid_RptType1@CDlgAnalysis@@QAEXPAVCObject@@@Z$92:
  00419	8b 45 ec	 mov	 eax, DWORD PTR $T71[ebp]
  0041c	25 00 00 00 04	 and	 eax, 67108864		; 04000000H
  00421	0f 84 13 00 00
	00		 je	 $LN490@SetFoundCa
  00427	81 65 ec ff ff
	ff fb		 and	 DWORD PTR $T71[ebp], -67108865 ; fbffffffH
  0042e	8d 8d 7c ff ff
	ff		 lea	 ecx, DWORD PTR $T47[ebp]
  00434	ff 25 00 00 00
	00		 jmp	 DWORD PTR __imp_??1?$CStringT@DV?$StrTraitMFC_DLL@DV?$ChTraitsCRT@D@ATL@@@@@ATL@@QAE@XZ
$LN490@SetFoundCa:
  0043a	c3		 ret	 0
__unwindfunclet$?SetFoundCandlePtnToGrid_RptType1@CDlgAnalysis@@QAEXPAVCObject@@@Z$93:
  0043b	8b 45 ec	 mov	 eax, DWORD PTR $T71[ebp]
  0043e	25 00 00 00 08	 and	 eax, 134217728		; 08000000H
  00443	0f 84 10 00 00
	00		 je	 $LN506@SetFoundCa
  00449	81 65 ec ff ff
	ff f7		 and	 DWORD PTR $T71[ebp], -134217729 ; f7ffffffH
  00450	8d 4d 80	 lea	 ecx, DWORD PTR $T48[ebp]
  00453	ff 25 00 00 00
	00		 jmp	 DWORD PTR __imp_??1?$CStringT@DV?$StrTraitMFC_DLL@DV?$ChTraitsCRT@D@ATL@@@@@ATL@@QAE@XZ
$LN506@SetFoundCa:
  00459	c3		 ret	 0
__unwindfunclet$?SetFoundCandlePtnToGrid_RptType1@CDlgAnalysis@@QAEXPAVCObject@@@Z$94:
  0045a	8b 45 ec	 mov	 eax, DWORD PTR $T71[ebp]
  0045d	25 00 00 00 10	 and	 eax, 268435456		; 10000000H
  00462	0f 84 13 00 00
	00		 je	 $LN519@SetFoundCa
  00468	81 65 ec ff ff
	ff ef		 and	 DWORD PTR $T71[ebp], -268435457 ; efffffffH
  0046f	8d 8d 40 ff ff
	ff		 lea	 ecx, DWORD PTR $T32[ebp]
  00475	ff 25 00 00 00
	00		 jmp	 DWORD PTR __imp_??1?$CStringT@DV?$StrTraitMFC_DLL@DV?$ChTraitsCRT@D@ATL@@@@@ATL@@QAE@XZ
$LN519@SetFoundCa:
  0047b	c3		 ret	 0
__unwindfunclet$?SetFoundCandlePtnToGrid_RptType1@CDlgAnalysis@@QAEXPAVCObject@@@Z$51:
  0047c	8d 8d c0 fe ff
	ff		 lea	 ecx, DWORD PTR $T5[ebp]
  00482	ff 25 00 00 00
	00		 jmp	 DWORD PTR __imp_??1?$CStringT@DV?$StrTraitMFC_DLL@DV?$ChTraitsCRT@D@ATL@@@@@ATL@@QAE@XZ
__unwindfunclet$?SetFoundCandlePtnToGrid_RptType1@CDlgAnalysis@@QAEXPAVCObject@@@Z$52:
  00488	8d 8d c4 fe ff
	ff		 lea	 ecx, DWORD PTR $T6[ebp]
  0048e	ff 25 00 00 00
	00		 jmp	 DWORD PTR __imp_??1?$CStringT@DV?$StrTraitMFC_DLL@DV?$ChTraitsCRT@D@ATL@@@@@ATL@@QAE@XZ
__unwindfunclet$?SetFoundCandlePtnToGrid_RptType1@CDlgAnalysis@@QAEXPAVCObject@@@Z$53:
  00494	8d 8d c8 fe ff
	ff		 lea	 ecx, DWORD PTR $T7[ebp]
  0049a	ff 25 00 00 00
	00		 jmp	 DWORD PTR __imp_??1?$CStringT@DV?$StrTraitMFC_DLL@DV?$ChTraitsCRT@D@ATL@@@@@ATL@@QAE@XZ
__unwindfunclet$?SetFoundCandlePtnToGrid_RptType1@CDlgAnalysis@@QAEXPAVCObject@@@Z$54:
  004a0	8d 8d cc fe ff
	ff		 lea	 ecx, DWORD PTR $T8[ebp]
  004a6	ff 25 00 00 00
	00		 jmp	 DWORD PTR __imp_??1?$CStringT@DV?$StrTraitMFC_DLL@DV?$ChTraitsCRT@D@ATL@@@@@ATL@@QAE@XZ
__unwindfunclet$?SetFoundCandlePtnToGrid_RptType1@CDlgAnalysis@@QAEXPAVCObject@@@Z$55:
  004ac	8d 8d d0 fe ff
	ff		 lea	 ecx, DWORD PTR $T9[ebp]
  004b2	ff 25 00 00 00
	00		 jmp	 DWORD PTR __imp_??1?$CStringT@DV?$StrTraitMFC_DLL@DV?$ChTraitsCRT@D@ATL@@@@@ATL@@QAE@XZ
__unwindfunclet$?SetFoundCandlePtnToGrid_RptType1@CDlgAnalysis@@QAEXPAVCObject@@@Z$95:
  004b8	8b 45 ec	 mov	 eax, DWORD PTR $T71[ebp]
  004bb	25 00 00 00 20	 and	 eax, 536870912		; 20000000H
  004c0	0f 84 13 00 00
	00		 je	 $LN539@SetFoundCa
  004c6	81 65 ec ff ff
	ff df		 and	 DWORD PTR $T71[ebp], -536870913 ; dfffffffH
  004cd	8d 8d 58 ff ff
	ff		 lea	 ecx, DWORD PTR $T38[ebp]
  004d3	ff 25 00 00 00
	00		 jmp	 DWORD PTR __imp_??1?$CStringT@DV?$StrTraitMFC_DLL@DV?$ChTraitsCRT@D@ATL@@@@@ATL@@QAE@XZ
$LN539@SetFoundCa:
  004d9	c3		 ret	 0
__unwindfunclet$?SetFoundCandlePtnToGrid_RptType1@CDlgAnalysis@@QAEXPAVCObject@@@Z$96:
  004da	8b 45 ec	 mov	 eax, DWORD PTR $T71[ebp]
  004dd	25 00 00 00 40	 and	 eax, 1073741824		; 40000000H
  004e2	0f 84 13 00 00
	00		 je	 $LN552@SetFoundCa
  004e8	81 65 ec ff ff
	ff bf		 and	 DWORD PTR $T71[ebp], -1073741825 ; bfffffffH
  004ef	8d 8d 5c ff ff
	ff		 lea	 ecx, DWORD PTR $T39[ebp]
  004f5	ff 25 00 00 00
	00		 jmp	 DWORD PTR __imp_??1?$CStringT@DV?$StrTraitMFC_DLL@DV?$ChTraitsCRT@D@ATL@@@@@ATL@@QAE@XZ
$LN552@SetFoundCa:
  004fb	c3		 ret	 0
__unwindfunclet$?SetFoundCandlePtnToGrid_RptType1@CDlgAnalysis@@QAEXPAVCObject@@@Z$97:
  004fc	8b 45 ec	 mov	 eax, DWORD PTR $T71[ebp]
  004ff	25 00 00 00 80	 and	 eax, -2147483648	; 80000000H
  00504	0f 84 13 00 00
	00		 je	 $LN568@SetFoundCa
  0050a	81 65 ec ff ff
	ff 7f		 and	 DWORD PTR $T71[ebp], 2147483647 ; 7fffffffH
  00511	8d 8d 60 ff ff
	ff		 lea	 ecx, DWORD PTR $T40[ebp]
  00517	ff 25 00 00 00
	00		 jmp	 DWORD PTR __imp_??1?$CStringT@DV?$StrTraitMFC_DLL@DV?$ChTraitsCRT@D@ATL@@@@@ATL@@QAE@XZ
$LN568@SetFoundCa:
  0051d	c3		 ret	 0
__unwindfunclet$?SetFoundCandlePtnToGrid_RptType1@CDlgAnalysis@@QAEXPAVCObject@@@Z$98:
  0051e	8b 45 dc	 mov	 eax, DWORD PTR $T70[ebp]
  00521	83 e0 01	 and	 eax, 1
  00524	0f 84 10 00 00
	00		 je	 $LN581@SetFoundCa
  0052a	83 65 dc fe	 and	 DWORD PTR $T70[ebp], -2	; fffffffeH
  0052e	8d 8d 64 ff ff
	ff		 lea	 ecx, DWORD PTR $T41[ebp]
  00534	ff 25 00 00 00
	00		 jmp	 DWORD PTR __imp_??1?$CStringT@DV?$StrTraitMFC_DLL@DV?$ChTraitsCRT@D@ATL@@@@@ATL@@QAE@XZ
$LN581@SetFoundCa:
  0053a	c3		 ret	 0
__unwindfunclet$?SetFoundCandlePtnToGrid_RptType1@CDlgAnalysis@@QAEXPAVCObject@@@Z$99:
  0053b	8b 45 dc	 mov	 eax, DWORD PTR $T70[ebp]
  0053e	83 e0 02	 and	 eax, 2
  00541	0f 84 10 00 00
	00		 je	 $LN597@SetFoundCa
  00547	83 65 dc fd	 and	 DWORD PTR $T70[ebp], -3	; fffffffdH
  0054b	8d 8d 68 ff ff
	ff		 lea	 ecx, DWORD PTR $T42[ebp]
  00551	ff 25 00 00 00
	00		 jmp	 DWORD PTR __imp_??1?$CStringT@DV?$StrTraitMFC_DLL@DV?$ChTraitsCRT@D@ATL@@@@@ATL@@QAE@XZ
$LN597@SetFoundCa:
  00557	c3		 ret	 0
__unwindfunclet$?SetFoundCandlePtnToGrid_RptType1@CDlgAnalysis@@QAEXPAVCObject@@@Z$100:
  00558	8b 45 dc	 mov	 eax, DWORD PTR $T70[ebp]
  0055b	83 e0 04	 and	 eax, 4
  0055e	0f 84 10 00 00
	00		 je	 $LN610@SetFoundCa
  00564	83 65 dc fb	 and	 DWORD PTR $T70[ebp], -5	; fffffffbH
  00568	8d 8d 6c ff ff
	ff		 lea	 ecx, DWORD PTR $T43[ebp]
  0056e	ff 25 00 00 00
	00		 jmp	 DWORD PTR __imp_??1?$CStringT@DV?$StrTraitMFC_DLL@DV?$ChTraitsCRT@D@ATL@@@@@ATL@@QAE@XZ
$LN610@SetFoundCa:
  00574	c3		 ret	 0
__unwindfunclet$?SetFoundCandlePtnToGrid_RptType1@CDlgAnalysis@@QAEXPAVCObject@@@Z$101:
  00575	8b 45 dc	 mov	 eax, DWORD PTR $T70[ebp]
  00578	83 e0 08	 and	 eax, 8
  0057b	0f 84 10 00 00
	00		 je	 $LN626@SetFoundCa
  00581	83 65 dc f7	 and	 DWORD PTR $T70[ebp], -9	; fffffff7H
  00585	8d 8d 70 ff ff
	ff		 lea	 ecx, DWORD PTR $T44[ebp]
  0058b	ff 25 00 00 00
	00		 jmp	 DWORD PTR __imp_??1?$CStringT@DV?$StrTraitMFC_DLL@DV?$ChTraitsCRT@D@ATL@@@@@ATL@@QAE@XZ
$LN626@SetFoundCa:
  00591	c3		 ret	 0
__unwindfunclet$?SetFoundCandlePtnToGrid_RptType1@CDlgAnalysis@@QAEXPAVCObject@@@Z$102:
  00592	8b 45 dc	 mov	 eax, DWORD PTR $T70[ebp]
  00595	83 e0 10	 and	 eax, 16			; 00000010H
  00598	0f 84 10 00 00
	00		 je	 $LN639@SetFoundCa
  0059e	83 65 dc ef	 and	 DWORD PTR $T70[ebp], -17 ; ffffffefH
  005a2	8d 8d 3c ff ff
	ff		 lea	 ecx, DWORD PTR $T31[ebp]
  005a8	ff 25 00 00 00
	00		 jmp	 DWORD PTR __imp_??1?$CStringT@DV?$StrTraitMFC_DLL@DV?$ChTraitsCRT@D@ATL@@@@@ATL@@QAE@XZ
$LN639@SetFoundCa:
  005ae	c3		 ret	 0
__unwindfunclet$?SetFoundCandlePtnToGrid_RptType1@CDlgAnalysis@@QAEXPAVCObject@@@Z$64:
  005af	8d 8d bc fe ff
	ff		 lea	 ecx, DWORD PTR $T4[ebp]
  005b5	ff 25 00 00 00
	00		 jmp	 DWORD PTR __imp_??1?$CStringT@DV?$StrTraitMFC_DLL@DV?$ChTraitsCRT@D@ATL@@@@@ATL@@QAE@XZ
__unwindfunclet$?SetFoundCandlePtnToGrid_RptType1@CDlgAnalysis@@QAEXPAVCObject@@@Z$65:
  005bb	8d 8d b8 fe ff
	ff		 lea	 ecx, DWORD PTR $T3[ebp]
  005c1	ff 25 00 00 00
	00		 jmp	 DWORD PTR __imp_??1?$CStringT@DV?$StrTraitMFC_DLL@DV?$ChTraitsCRT@D@ATL@@@@@ATL@@QAE@XZ
  005c7	cc		 int	 3
  005c8	cc		 int	 3
  005c9	cc		 int	 3
  005ca	cc		 int	 3
  005cb	cc		 int	 3
__ehhandler$?SetFoundCandlePtnToGrid_RptType1@CDlgAnalysis@@QAEXPAVCObject@@@Z:
  005cc	90		 npad	 1
  005cd	90		 npad	 1
  005ce	8b 54 24 08	 mov	 edx, DWORD PTR [esp+8]
  005d2	8d 42 0c	 lea	 eax, DWORD PTR [edx+12]
  005d5	8b 8a b0 fe ff
	ff		 mov	 ecx, DWORD PTR [edx-336]
  005db	33 c8		 xor	 ecx, eax
  005dd	e8 00 00 00 00	 call	 @__security_check_cookie@4
  005e2	b8 00 00 00 00	 mov	 eax, OFFSET __ehfuncinfo$?SetFoundCandlePtnToGrid_RptType1@CDlgAnalysis@@QAEXPAVCObject@@@Z
  005e7	e9 00 00 00 00	 jmp	 ___CxxFrameHandler3
text$x	ENDS
?SetFoundCandlePtnToGrid_RptType1@CDlgAnalysis@@QAEXPAVCObject@@@Z ENDP ; CDlgAnalysis::SetFoundCandlePtnToGrid_RptType1
; Function compile flags: /Ogtp
; File D:\git\src\IBK\IBK_DRFN\ProjSrc\SrcChartEx\ChartAddIn\ChartPatternAddIn\DlgAnalysis.cpp
; File D:\git\src\IBK\IBK_DRFN\ProjSrc\SrcChartEx\ChartAddIn\ChartPatternAddIn\Include_Chart\Dll_Load\IMetaTable.h
; File D:\git\src\IBK\IBK_DRFN\ProjSrc\SrcChartEx\ChartAddIn\ChartPatternAddIn\DlgAnalysis.cpp
; File D:\git\src\IBK\IBK_DRFN\ProjSrc\SrcChartEx\ChartAddIn\ChartPatternAddIn\Include_Chart\Dll_Load\IMetaTable.h
; File D:\git\src\IBK\IBK_DRFN\ProjSrc\SrcChartEx\ChartAddIn\ChartPatternAddIn\DlgAnalysis.cpp
;	COMDAT ?InitGridFormat_CandleRptType1@CDlgAnalysis@@QAEXXZ
_TEXT	SEGMENT
_strTemp$ = -280					; size = 4
_this$GSCopy$1$ = -276					; size = 4
_nCol$1$ = -272						; size = 4
_nRow$1$ = -268						; size = 4
_Item$2 = -264						; size = 104
_szTitleSub_K$ = -160					; size = 36
_szTitleSub_E$ = -124					; size = 36
_szTitle_K$ = -88					; size = 36
_szTitle_E$ = -52					; size = 36
__$ArrayPad$ = -16					; size = 4
__$EHRec$ = -12						; size = 12
?InitGridFormat_CandleRptType1@CDlgAnalysis@@QAEXXZ PROC ; CDlgAnalysis::InitGridFormat_CandleRptType1, COMDAT
; _this$ = ecx

; 590  : {

  00000	55		 push	 ebp
  00001	8b ec		 mov	 ebp, esp
  00003	6a ff		 push	 -1
  00005	68 00 00 00 00	 push	 __ehhandler$?InitGridFormat_CandleRptType1@CDlgAnalysis@@QAEXXZ
  0000a	64 a1 00 00 00
	00		 mov	 eax, DWORD PTR fs:0
  00010	50		 push	 eax
  00011	81 ec 0c 01 00
	00		 sub	 esp, 268		; 0000010cH
  00017	a1 00 00 00 00	 mov	 eax, DWORD PTR ___security_cookie
  0001c	33 c5		 xor	 eax, ebp
  0001e	89 45 f0	 mov	 DWORD PTR __$ArrayPad$[ebp], eax
  00021	53		 push	 ebx
  00022	56		 push	 esi
  00023	57		 push	 edi
  00024	50		 push	 eax
  00025	8d 45 f4	 lea	 eax, DWORD PTR __$EHRec$[ebp]
  00028	64 a3 00 00 00
	00		 mov	 DWORD PTR fs:0, eax
  0002e	8b d9		 mov	 ebx, ecx
  00030	89 9d ec fe ff
	ff		 mov	 DWORD PTR _this$GSCopy$1$[ebp], ebx

; 591  : 	CString strTemp;

  00036	8d 8d e8 fe ff
	ff		 lea	 ecx, DWORD PTR _strTemp$[ebp]
  0003c	ff 15 00 00 00
	00		 call	 DWORD PTR __imp_??0?$CStringT@DV?$StrTraitMFC_DLL@DV?$ChTraitsCRT@D@ATL@@@@@ATL@@QAE@XZ

; 593  : 	int nCol = m_pGridCandleRtpType1->GetColumnCount();

  00042	8b 83 ac 00 00
	00		 mov	 eax, DWORD PTR [ebx+172]

; 601  : 
; 602  : 	IMetaTable::E_LANGUAGEID eLanguageID = g_iMetaTable.GetCurrentLanguageID( m_hOcxWnd);				

  00048	8b b3 94 01 00
	00		 mov	 esi, DWORD PTR [ebx+404]
  0004e	c7 45 fc 00 00
	00 00		 mov	 DWORD PTR __$EHRec$[ebp+8], 0
  00055	c7 45 a8 00 00
	00 00		 mov	 DWORD PTR _szTitle_K$[ebp], OFFSET ??_C@_03ONPMIKNM@No?4@
  0005c	8b 88 38 01 00
	00		 mov	 ecx, DWORD PTR [eax+312]
  00062	8b 80 30 01 00
	00		 mov	 eax, DWORD PTR [eax+304]
  00068	89 85 f4 fe ff
	ff		 mov	 DWORD PTR _nRow$1$[ebp], eax
; File D:\git\src\IBK\IBK_DRFN\ProjSrc\SrcChartEx\ChartAddIn\ChartPatternAddIn\Include_Chart\Dll_Load\IMetaTable.h

; 934  : 	DECLARE_FUNCTION1(	GetCurrentLanguageID,			E_LANGUAGEID, ENGLISH, HWND);

  0006e	a1 04 00 00 00	 mov	 eax, DWORD PTR ?g_iMetaTable@@3VIMetaTable@@A+4
; File D:\git\src\IBK\IBK_DRFN\ProjSrc\SrcChartEx\ChartAddIn\ChartPatternAddIn\DlgAnalysis.cpp

; 593  : 	int nCol = m_pGridCandleRtpType1->GetColumnCount();

  00073	89 8d f0 fe ff
	ff		 mov	 DWORD PTR _nCol$1$[ebp], ecx

; 594  : 	int nRow = m_pGridCandleRtpType1->GetRowCount();
; 595  : 
; 596  : // 2008.02.20 by LYH >>
; 597  : 	char *szTitle_K[]		= {	"No.", "", "", "", "",	"",	"",	"",	""};

  00079	c7 45 ac 00 00
	00 00		 mov	 DWORD PTR _szTitle_K$[ebp+4], OFFSET ??_C@_04DKOJHJPH@?$LD?$KP?B?$KF@
  00080	c7 45 b0 00 00
	00 00		 mov	 DWORD PTR _szTitle_K$[ebp+8], OFFSET ??_C@_04OJCJMHBO@?$MA?$KP?G?$PM@
  00087	c7 45 b4 00 00
	00 00		 mov	 DWORD PTR _szTitle_K$[ebp+12], OFFSET ??_C@_0L@OBAOOHGI@?D?$LF?$LF?i?F?P?E?O?$LI?m@
  0008e	c7 45 b8 00 00
	00 00		 mov	 DWORD PTR _szTitle_K$[ebp+16], OFFSET ??_C@_0L@IEDJEJMI@?$LE?$KJ?$MA?$PL?$LF?n?$LG?t?$LH?$PM@
  00095	c7 45 bc 00 00
	00 00		 mov	 DWORD PTR _szTitle_K$[ebp+20], OFFSET ??_C@_0L@IEDJEJMI@?$LE?$KJ?$MA?$PL?$LF?n?$LG?t?$LH?$PM@
  0009c	c7 45 c0 00 00
	00 00		 mov	 DWORD PTR _szTitle_K$[ebp+24], OFFSET ??_C@_0L@IEDJEJMI@?$LE?$KJ?$MA?$PL?$LF?n?$LG?t?$LH?$PM@
  000a3	c7 45 c4 00 00
	00 00		 mov	 DWORD PTR _szTitle_K$[ebp+28], OFFSET ??_C@_0L@IEDJEJMI@?$LE?$KJ?$MA?$PL?$LF?n?$LG?t?$LH?$PM@
  000aa	c7 45 c8 00 00
	00 00		 mov	 DWORD PTR _szTitle_K$[ebp+32], OFFSET ??_C@_0L@IEDJEJMI@?$LE?$KJ?$MA?$PL?$LF?n?$LG?t?$LH?$PM@

; 598  : 	char *szTitle_E[]		= {	"No.", "Date", "Type", "Candle Name", "Accumulated % Change",	"Accumulated % Change",	"Accumulated % Change",	"Accumulated % Change",	"Accumulated % Change"};

  000b1	c7 45 cc 00 00
	00 00		 mov	 DWORD PTR _szTitle_E$[ebp], OFFSET ??_C@_03ONPMIKNM@No?4@
  000b8	c7 45 d0 00 00
	00 00		 mov	 DWORD PTR _szTitle_E$[ebp+4], OFFSET ??_C@_04FMEGDJGD@Date@
  000bf	c7 45 d4 00 00
	00 00		 mov	 DWORD PTR _szTitle_E$[ebp+8], OFFSET ??_C@_04KOACHJEN@Type@
  000c6	c7 45 d8 00 00
	00 00		 mov	 DWORD PTR _szTitle_E$[ebp+12], OFFSET ??_C@_0M@PJJGJDFM@Candle?5Name@
  000cd	c7 45 dc 00 00
	00 00		 mov	 DWORD PTR _szTitle_E$[ebp+16], OFFSET ??_C@_0BF@INFJIIDO@Accumulated?5?$CF?5Change@
  000d4	c7 45 e0 00 00
	00 00		 mov	 DWORD PTR _szTitle_E$[ebp+20], OFFSET ??_C@_0BF@INFJIIDO@Accumulated?5?$CF?5Change@
  000db	c7 45 e4 00 00
	00 00		 mov	 DWORD PTR _szTitle_E$[ebp+24], OFFSET ??_C@_0BF@INFJIIDO@Accumulated?5?$CF?5Change@
  000e2	c7 45 e8 00 00
	00 00		 mov	 DWORD PTR _szTitle_E$[ebp+28], OFFSET ??_C@_0BF@INFJIIDO@Accumulated?5?$CF?5Change@
  000e9	c7 45 ec 00 00
	00 00		 mov	 DWORD PTR _szTitle_E$[ebp+32], OFFSET ??_C@_0BF@INFJIIDO@Accumulated?5?$CF?5Change@

; 599  : 	char *szTitleSub_K[]	= {	"No.", "", "", "", "1",			"2",			"3",			"4",			"5"		};

  000f0	c7 85 60 ff ff
	ff 00 00 00 00	 mov	 DWORD PTR _szTitleSub_K$[ebp], OFFSET ??_C@_03ONPMIKNM@No?4@
  000fa	c7 85 64 ff ff
	ff 00 00 00 00	 mov	 DWORD PTR _szTitleSub_K$[ebp+4], OFFSET ??_C@_04DKOJHJPH@?$LD?$KP?B?$KF@
  00104	c7 85 68 ff ff
	ff 00 00 00 00	 mov	 DWORD PTR _szTitleSub_K$[ebp+8], OFFSET ??_C@_04OJCJMHBO@?$MA?$KP?G?$PM@
  0010e	c7 85 6c ff ff
	ff 00 00 00 00	 mov	 DWORD PTR _szTitleSub_K$[ebp+12], OFFSET ??_C@_0L@OBAOOHGI@?D?$LF?$LF?i?F?P?E?O?$LI?m@
  00118	c7 85 70 ff ff
	ff 00 00 00 00	 mov	 DWORD PTR _szTitleSub_K$[ebp+16], OFFSET ??_C@_03ELOBOCOG@1?$MA?O@
  00122	c7 85 74 ff ff
	ff 00 00 00 00	 mov	 DWORD PTR _szTitleSub_K$[ebp+20], OFFSET ??_C@_03FJFEENAI@2?$MA?O@
  0012c	c7 85 78 ff ff
	ff 00 00 00 00	 mov	 DWORD PTR _szTitleSub_K$[ebp+24], OFFSET ??_C@_03OBOICKGN@3?$MA?O@
  00136	c7 85 7c ff ff
	ff 00 00 00 00	 mov	 DWORD PTR _szTitleSub_K$[ebp+28], OFFSET ??_C@_03HMDPBCNE@4?$MA?O@
  00140	c7 45 80 00 00
	00 00		 mov	 DWORD PTR _szTitleSub_K$[ebp+32], OFFSET ??_C@_03MEIDHFLB@5?$MA?O@

; 600  : 	char *szTitleSub_E[]	= {	"No.", "Date", "Type", "Candle Name", "1d",			"2d",			"3d",			"4d",			"5d"		};

  00147	c7 45 84 00 00
	00 00		 mov	 DWORD PTR _szTitleSub_E$[ebp], OFFSET ??_C@_03ONPMIKNM@No?4@
  0014e	c7 45 88 00 00
	00 00		 mov	 DWORD PTR _szTitleSub_E$[ebp+4], OFFSET ??_C@_04FMEGDJGD@Date@
  00155	c7 45 8c 00 00
	00 00		 mov	 DWORD PTR _szTitleSub_E$[ebp+8], OFFSET ??_C@_04KOACHJEN@Type@
  0015c	c7 45 90 00 00
	00 00		 mov	 DWORD PTR _szTitleSub_E$[ebp+12], OFFSET ??_C@_0M@PJJGJDFM@Candle?5Name@
  00163	c7 45 94 00 00
	00 00		 mov	 DWORD PTR _szTitleSub_E$[ebp+16], OFFSET ??_C@_02CEIGAHOJ@1d@
  0016a	c7 45 98 00 00
	00 00		 mov	 DWORD PTR _szTitleSub_E$[ebp+20], OFFSET ??_C@_02CGMALJLA@2d@
  00171	c7 45 9c 00 00
	00 00		 mov	 DWORD PTR _szTitleSub_E$[ebp+24], OFFSET ??_C@_02CHACNDIH@3d@
  00178	c7 45 a0 00 00
	00 00		 mov	 DWORD PTR _szTitleSub_E$[ebp+28], OFFSET ??_C@_02CCENMFAC@4d@
  0017f	c7 45 a4 00 00
	00 00		 mov	 DWORD PTR _szTitleSub_E$[ebp+32], OFFSET ??_C@_02CDIPKPDF@5d@
; File D:\git\src\IBK\IBK_DRFN\ProjSrc\SrcChartEx\ChartAddIn\ChartPatternAddIn\Include_Chart\Dll_Load\IMetaTable.h

; 934  : 	DECLARE_FUNCTION1(	GetCurrentLanguageID,			E_LANGUAGEID, ENGLISH, HWND);

  00186	85 c0		 test	 eax, eax
  00188	74 45		 je	 SHORT $LN41@InitGridFo
  0018a	bf 80 0d 00 00	 mov	 edi, 3456		; 00000d80H
  0018f	66 3b 3d 8c 00
	00 00		 cmp	 di, WORD PTR ?g_iMetaTable@@3VIMetaTable@@A+140
  00196	74 24		 je	 SHORT $LN42@InitGridFo
  00198	68 00 00 00 00	 push	 OFFSET ??_C@_0BF@EGELCGDD@GetCurrentLanguageID@
  0019d	50		 push	 eax
  0019e	c7 05 88 00 00
	00 00 00 00 00	 mov	 DWORD PTR ?g_iMetaTable@@3VIMetaTable@@A+136, 0
  001a8	ff 15 00 00 00
	00		 call	 DWORD PTR __imp__GetProcAddress@8
  001ae	a3 88 00 00 00	 mov	 DWORD PTR ?g_iMetaTable@@3VIMetaTable@@A+136, eax
  001b3	66 89 3d 8c 00
	00 00		 mov	 WORD PTR ?g_iMetaTable@@3VIMetaTable@@A+140, di
  001ba	eb 05		 jmp	 SHORT $LN23@InitGridFo
$LN42@InitGridFo:
  001bc	a1 88 00 00 00	 mov	 eax, DWORD PTR ?g_iMetaTable@@3VIMetaTable@@A+136
$LN23@InitGridFo:
  001c1	85 c0		 test	 eax, eax
  001c3	74 0a		 je	 SHORT $LN41@InitGridFo
  001c5	56		 push	 esi
  001c6	ff d0		 call	 eax
  001c8	83 c4 04	 add	 esp, 4
  001cb	8b d8		 mov	 ebx, eax
  001cd	eb 02		 jmp	 SHORT $LN21@InitGridFo
$LN41@InitGridFo:
  001cf	33 db		 xor	 ebx, ebx
$LN21@InitGridFo:
; File D:\git\src\IBK\IBK_DRFN\ProjSrc\SrcChartEx\ChartAddIn\ChartPatternAddIn\DlgAnalysis.cpp

; 607  : 	for (row = 0; row < nRow; row++)

  001d1	33 ff		 xor	 edi, edi
  001d3	39 bd f4 fe ff
	ff		 cmp	 DWORD PTR _nRow$1$[ebp], edi
  001d9	0f 8e 21 01 00
	00		 jle	 $LN3@InitGridFo
  001df	8b 85 f0 fe ff
	ff		 mov	 eax, DWORD PTR _nCol$1$[ebp]
  001e5	8b 8d f4 fe ff
	ff		 mov	 ecx, DWORD PTR _nRow$1$[ebp]
  001eb	0f 1f 44 00 00	 npad	 5
$LL4@InitGridFo:

; 608  : 	{
; 609  : 		for (col = 0; col < nCol; col++)		// JSJ_Modify

  001f0	33 f6		 xor	 esi, esi
  001f2	85 c0		 test	 eax, eax
  001f4	0f 8e fd 00 00
	00		 jle	 $LN2@InitGridFo
  001fa	66 0f 1f 44 00
	00		 npad	 6
$LL7@InitGridFo:
  00200	8d 8d 5c ff ff
	ff		 lea	 ecx, DWORD PTR _Item$2[ebp+100]
  00206	ff 15 00 00 00
	00		 call	 DWORD PTR __imp_??0?$CStringT@DV?$StrTraitMFC_DLL@DV?$ChTraitsCRT@D@ATL@@@@@ATL@@QAE@XZ

; 610  : 		{ 
; 611  : 			
; 612  : 			GV_ITEM Item;
; 613  : 			Item.mask = GVIF_TEXT|GVIF_FORMAT|GVIF_FGCLR|GVIF_BKCLR|GVIF_STATE;
; 614  : 			Item.nState = GVIS_READONLY | GVIS_MODIFIED ;//| GVIS_DROPHILITED;
; 615  : 			Item.row = row;
; 616  : 			Item.col = col;
; 617  : 			
; 618  : 			Item.nFormat = DT_VCENTER|DT_SINGLELINE|DT_NOPREFIX;//|DT_END_ELLIPSIS;
; 619  : 			
; 620  : 			// Text
; 621  : 			Item.strText = "";

  0020c	68 00 00 00 00	 push	 OFFSET ??_C@_00CNPNBAHC@@
  00211	8d 8d 5c ff ff
	ff		 lea	 ecx, DWORD PTR _Item$2[ebp+100]
  00217	c6 45 fc 01	 mov	 BYTE PTR __$EHRec$[ebp+8], 1
  0021b	c7 85 00 ff ff
	ff 79 00 00 00	 mov	 DWORD PTR _Item$2[ebp+8], 121 ; 00000079H
  00225	c7 85 04 ff ff
	ff 88 00 00 00	 mov	 DWORD PTR _Item$2[ebp+12], 136 ; 00000088H
  0022f	89 bd f8 fe ff
	ff		 mov	 DWORD PTR _Item$2[ebp], edi
  00235	89 b5 fc fe ff
	ff		 mov	 DWORD PTR _Item$2[ebp+4], esi
  0023b	c7 85 08 ff ff
	ff 24 08 00 00	 mov	 DWORD PTR _Item$2[ebp+16], 2084 ; 00000824H
  00245	ff 15 00 00 00
	00		 call	 DWORD PTR __imp_??4?$CStringT@DV?$StrTraitMFC_DLL@DV?$ChTraitsCRT@D@ATL@@@@@ATL@@QAEAAV01@PBD@Z

; 622  : 
; 623  : 			if( row == ROW_FIRST )

  0024b	85 ff		 test	 edi, edi
  0024d	75 2d		 jne	 SHORT $LN8@InitGridFo

; 624  : 			{
; 625  : 				// Text
; 626  : // 2008.02.20 by LYH >>
; 627  : 				//Item.strText = szTitle[col];
; 628  : 				if(eLanguageID == IMetaTable::ENGLISH)

  0024f	8d 8d 5c ff ff
	ff		 lea	 ecx, DWORD PTR _Item$2[ebp+100]
  00255	85 db		 test	 ebx, ebx
  00257	75 06		 jne	 SHORT $LN10@InitGridFo

; 629  : 					Item.strText = szTitle_E[col];

  00259	ff 74 b5 cc	 push	 DWORD PTR _szTitle_E$[ebp+esi*4]
  0025d	eb 04		 jmp	 SHORT $LN44@InitGridFo
$LN10@InitGridFo:

; 630  : 				else
; 631  : 					Item.strText = szTitle_K[col];

  0025f	ff 74 b5 a8	 push	 DWORD PTR _szTitle_K$[ebp+esi*4]
$LN44@InitGridFo:

; 668  : 				Item.crFgClr = COLOR_BLACK;
; 669  : 			}
; 670  : 
; 671  : 
; 672  : 			// SetItem
; 673  : 			m_pGridCandleRtpType1->SetItem(&Item);

  00263	ff 15 00 00 00
	00		 call	 DWORD PTR __imp_??4?$CStringT@DV?$StrTraitMFC_DLL@DV?$ChTraitsCRT@D@ATL@@@@@ATL@@QAEAAV01@PBD@Z
  00269	83 8d 08 ff ff
	ff 01		 or	 DWORD PTR _Item$2[ebp+16], 1
  00270	c7 85 10 ff ff
	ff d3 df f1 00	 mov	 DWORD PTR _Item$2[ebp+24], 15851475 ; 00f1dfd3H
  0027a	eb 34		 jmp	 SHORT $LN45@InitGridFo
$LN8@InitGridFo:

; 632  : // 2008.02.20 by LYH <<
; 633  : 				
; 634  : 				// Format
; 635  : 				Item.nFormat |= DT_CENTER;
; 636  : 
; 637  : 				// Color
; 638  : 				Item.crBkClr = COLOR_GRIDHEADER;
; 639  : 				Item.crFgClr = COLOR_BLACK;
; 640  : 			}
; 641  : 			else if( row == ROW_FIRST + 1 )

  0027c	83 ff 01	 cmp	 edi, 1
  0027f	75 19		 jne	 SHORT $LN12@InitGridFo

; 642  : 			{
; 643  : // 2008.02.20 by LYH >>
; 644  : 				// Text
; 645  : 				//Item.strText = szTitleSub[col];
; 646  : 				if(eLanguageID == IMetaTable::ENGLISH)

  00281	8d 8d 5c ff ff
	ff		 lea	 ecx, DWORD PTR _Item$2[ebp+100]
  00287	85 db		 test	 ebx, ebx
  00289	75 06		 jne	 SHORT $LN14@InitGridFo

; 647  : 					Item.strText = szTitleSub_E[col];

  0028b	ff 74 b5 84	 push	 DWORD PTR _szTitleSub_E$[ebp+esi*4]
  0028f	eb d2		 jmp	 SHORT $LN44@InitGridFo
$LN14@InitGridFo:

; 648  : 				else
; 649  : 					Item.strText = szTitleSub_K[col];

  00291	ff b4 b5 60 ff
	ff ff		 push	 DWORD PTR _szTitleSub_K$[ebp+esi*4]

; 650  : // 2008.02.20 by LYH <<
; 651  : 				
; 652  : 				// Format
; 653  : 				Item.nFormat |= DT_CENTER;
; 654  : 
; 655  : 				// Color
; 656  : 				Item.crBkClr = COLOR_GRIDHEADER;
; 657  : 				Item.crFgClr = COLOR_BLACK;
; 658  : 			}

  00298	eb c9		 jmp	 SHORT $LN44@InitGridFo
$LN12@InitGridFo:

; 659  : 			else
; 660  : 			{
; 661  : 				if ( col == COL_CND1_NAME)

  0029a	83 fe 03	 cmp	 esi, 3
  0029d	74 07		 je	 SHORT $LN17@InitGridFo

; 662  : 					Item.nFormat |= DT_LEFT;
; 663  : 				else
; 664  : 					Item.nFormat |= DT_CENTER;

  0029f	83 8d 08 ff ff
	ff 01		 or	 DWORD PTR _Item$2[ebp+16], 1
$LN17@InitGridFo:

; 665  : 
; 666  : 				// Color
; 667  : 				Item.crBkClr = COLOR_WHITE;

  002a6	c7 85 10 ff ff
	ff ff ff ff 00	 mov	 DWORD PTR _Item$2[ebp+24], 16777215 ; 00ffffffH
$LN45@InitGridFo:

; 668  : 				Item.crFgClr = COLOR_BLACK;
; 669  : 			}
; 670  : 
; 671  : 
; 672  : 			// SetItem
; 673  : 			m_pGridCandleRtpType1->SetItem(&Item);

  002b0	8d 85 f8 fe ff
	ff		 lea	 eax, DWORD PTR _Item$2[ebp]
  002b6	c7 85 14 ff ff
	ff 00 00 00 00	 mov	 DWORD PTR _Item$2[ebp+28], 0
  002c0	50		 push	 eax
  002c1	8b 85 ec fe ff
	ff		 mov	 eax, DWORD PTR _this$GSCopy$1$[ebp]
  002c7	8b 88 ac 00 00
	00		 mov	 ecx, DWORD PTR [eax+172]
  002cd	e8 00 00 00 00	 call	 ?SetItem@CGridCtrl@@QAEHPBU_GV_ITEM@@@Z ; CGridCtrl::SetItem
  002d2	8d 8d 5c ff ff
	ff		 lea	 ecx, DWORD PTR _Item$2[ebp+100]

; 674  : 		}

  002d8	c6 45 fc 00	 mov	 BYTE PTR __$EHRec$[ebp+8], 0
  002dc	ff 15 00 00 00
	00		 call	 DWORD PTR __imp_??1?$CStringT@DV?$StrTraitMFC_DLL@DV?$ChTraitsCRT@D@ATL@@@@@ATL@@QAE@XZ
  002e2	8b 85 f0 fe ff
	ff		 mov	 eax, DWORD PTR _nCol$1$[ebp]
  002e8	46		 inc	 esi
  002e9	3b f0		 cmp	 esi, eax
  002eb	0f 8c 0f ff ff
	ff		 jl	 $LL7@InitGridFo
  002f1	8b 8d f4 fe ff
	ff		 mov	 ecx, DWORD PTR _nRow$1$[ebp]
$LN2@InitGridFo:

; 607  : 	for (row = 0; row < nRow; row++)

  002f7	47		 inc	 edi
  002f8	3b f9		 cmp	 edi, ecx
  002fa	0f 8c f0 fe ff
	ff		 jl	 $LL4@InitGridFo
$LN3@InitGridFo:

; 675  : 	}
; 676  : }

  00300	8d 8d e8 fe ff
	ff		 lea	 ecx, DWORD PTR _strTemp$[ebp]
  00306	ff 15 00 00 00
	00		 call	 DWORD PTR __imp_??1?$CStringT@DV?$StrTraitMFC_DLL@DV?$ChTraitsCRT@D@ATL@@@@@ATL@@QAE@XZ
  0030c	8b 4d f4	 mov	 ecx, DWORD PTR __$EHRec$[ebp]
  0030f	64 89 0d 00 00
	00 00		 mov	 DWORD PTR fs:0, ecx
  00316	59		 pop	 ecx
  00317	5f		 pop	 edi
  00318	5e		 pop	 esi
  00319	5b		 pop	 ebx
  0031a	8b 4d f0	 mov	 ecx, DWORD PTR __$ArrayPad$[ebp]
  0031d	33 cd		 xor	 ecx, ebp
  0031f	e8 00 00 00 00	 call	 @__security_check_cookie@4
  00324	8b e5		 mov	 esp, ebp
  00326	5d		 pop	 ebp
  00327	c3		 ret	 0
_TEXT	ENDS
;	COMDAT text$x
text$x	SEGMENT
__unwindfunclet$?InitGridFormat_CandleRptType1@CDlgAnalysis@@QAEXXZ$0:
  00000	8d 8d e8 fe ff
	ff		 lea	 ecx, DWORD PTR _strTemp$[ebp]
  00006	ff 25 00 00 00
	00		 jmp	 DWORD PTR __imp_??1?$CStringT@DV?$StrTraitMFC_DLL@DV?$ChTraitsCRT@D@ATL@@@@@ATL@@QAE@XZ
__unwindfunclet$?InitGridFormat_CandleRptType1@CDlgAnalysis@@QAEXXZ$1:
  0000c	8d 8d f8 fe ff
	ff		 lea	 ecx, DWORD PTR _Item$2[ebp]
  00012	e9 00 00 00 00	 jmp	 ??1_GV_ITEM@@QAE@XZ
  00017	cc		 int	 3
  00018	cc		 int	 3
  00019	cc		 int	 3
  0001a	cc		 int	 3
  0001b	cc		 int	 3
__ehhandler$?InitGridFormat_CandleRptType1@CDlgAnalysis@@QAEXXZ:
  0001c	90		 npad	 1
  0001d	90		 npad	 1
  0001e	8b 54 24 08	 mov	 edx, DWORD PTR [esp+8]
  00022	8d 42 0c	 lea	 eax, DWORD PTR [edx+12]
  00025	8b 8a e4 fe ff
	ff		 mov	 ecx, DWORD PTR [edx-284]
  0002b	33 c8		 xor	 ecx, eax
  0002d	e8 00 00 00 00	 call	 @__security_check_cookie@4
  00032	8b 4a fc	 mov	 ecx, DWORD PTR [edx-4]
  00035	33 c8		 xor	 ecx, eax
  00037	e8 00 00 00 00	 call	 @__security_check_cookie@4
  0003c	b8 00 00 00 00	 mov	 eax, OFFSET __ehfuncinfo$?InitGridFormat_CandleRptType1@CDlgAnalysis@@QAEXXZ
  00041	e9 00 00 00 00	 jmp	 ___CxxFrameHandler3
text$x	ENDS
?InitGridFormat_CandleRptType1@CDlgAnalysis@@QAEXXZ ENDP ; CDlgAnalysis::InitGridFormat_CandleRptType1
; Function compile flags: /Ogtp
; File D:\git\src\IBK\IBK_DRFN\ProjSrc\SrcChartEx\ChartAddIn\ChartPatternAddIn\DlgAnalysis.cpp
;	COMDAT ?ResizeGridRowCol_CandleRptType1@CDlgAnalysis@@QAEXXZ
_TEXT	SEGMENT
_nCol$1$ = -44						; size = 4
_nColWidth$ = -40					; size = 36
__$ArrayPad$ = -4					; size = 4
?ResizeGridRowCol_CandleRptType1@CDlgAnalysis@@QAEXXZ PROC ; CDlgAnalysis::ResizeGridRowCol_CandleRptType1, COMDAT
; _this$ = ecx

; 563  : {

  00000	55		 push	 ebp
  00001	8b ec		 mov	 ebp, esp
  00003	83 ec 2c	 sub	 esp, 44			; 0000002cH
  00006	a1 00 00 00 00	 mov	 eax, DWORD PTR ___security_cookie
  0000b	33 c5		 xor	 eax, ebp
  0000d	89 45 fc	 mov	 DWORD PTR __$ArrayPad$[ebp], eax
  00010	53		 push	 ebx
  00011	56		 push	 esi
  00012	57		 push	 edi
  00013	8b f9		 mov	 edi, ecx
  00015	33 f6		 xor	 esi, esi

; 564  : 	int nCol = m_pGridCandleRtpType1->GetColumnCount();

  00017	8b 87 ac 00 00
	00		 mov	 eax, DWORD PTR [edi+172]

; 565  : 	int nRow = m_pGridCandleRtpType1->GetRowCount();

  0001d	8b 98 30 01 00
	00		 mov	 ebx, DWORD PTR [eax+304]
  00023	8b 88 38 01 00
	00		 mov	 ecx, DWORD PTR [eax+312]
  00029	89 4d d4	 mov	 DWORD PTR _nCol$1$[ebp], ecx

; 566  : 
; 567  : 	// fill rows/cols with text
; 568  : 	for (int row = 0; row < nRow; row++)

  0002c	85 db		 test	 ebx, ebx
  0002e	7e 13		 jle	 SHORT $LN3@ResizeGrid
$LL4@ResizeGrid:

; 569  : 	{
; 570  : 		// Set Row Height
; 571  : 		m_pGridCandleRtpType1->SetRowHeight(row, ROW_HEIGHT);

  00030	8b 8f ac 00 00
	00		 mov	 ecx, DWORD PTR [edi+172]
  00036	6a 10		 push	 16			; 00000010H
  00038	56		 push	 esi
  00039	e8 00 00 00 00	 call	 ?SetRowHeight@CGridCtrl@@QAEHHH@Z ; CGridCtrl::SetRowHeight
  0003e	46		 inc	 esi
  0003f	3b f3		 cmp	 esi, ebx
  00041	7c ed		 jl	 SHORT $LL4@ResizeGrid
$LN3@ResizeGrid:

; 572  : 
; 573  : 	}
; 574  : 
; 575  : 	
; 576  : 	int nColWidth[] = { COL_WIDTH_CND1_NUM,		COL_WIDTH_CND1_TIME,		COL_WIDTH_CND1_TYPE,	COL_WIDTH_CND1_NAME,	COL_WIDTH_CND1_DAY1,

  00043	0f 28 05 00 00
	00 00		 movaps	 xmm0, XMMWORD PTR __xmm@00000064000000460000005700000016
  0004a	33 f6		 xor	 esi, esi

; 577  : 						COL_WIDTH_CND1_DAY2,	COL_WIDTH_CND1_DAY3,		COL_WIDTH_CND1_DAY4,	COL_WIDTH_CND1_DAY5
; 578  : 					};
; 579  : 
; 580  : 	for (int col = 0; col < nCol; col++)

  0004c	8b 5d d4	 mov	 ebx, DWORD PTR _nCol$1$[ebp]
  0004f	c7 45 f8 30 00
	00 00		 mov	 DWORD PTR _nColWidth$[ebp+32], 48 ; 00000030H
  00056	0f 11 45 d8	 movups	 XMMWORD PTR _nColWidth$[ebp], xmm0
  0005a	0f 28 05 00 00
	00 00		 movaps	 xmm0, XMMWORD PTR __xmm@00000030000000300000003000000030
  00061	0f 11 45 e8	 movups	 XMMWORD PTR _nColWidth$[ebp+16], xmm0
  00065	85 db		 test	 ebx, ebx
  00067	7e 1c		 jle	 SHORT $LN6@ResizeGrid
  00069	0f 1f 80 00 00
	00 00		 npad	 7
$LL7@ResizeGrid:

; 581  : 	{
; 582  : 		// Set Column Width
; 583  : 		m_pGridCandleRtpType1->SetColumnWidth(col, nColWidth[col]);

  00070	ff 74 b5 d8	 push	 DWORD PTR _nColWidth$[ebp+esi*4]
  00074	8b 8f ac 00 00
	00		 mov	 ecx, DWORD PTR [edi+172]
  0007a	56		 push	 esi
  0007b	e8 00 00 00 00	 call	 ?SetColumnWidth@CGridCtrl@@QAEHHH@Z ; CGridCtrl::SetColumnWidth
  00080	46		 inc	 esi
  00081	3b f3		 cmp	 esi, ebx
  00083	7c eb		 jl	 SHORT $LL7@ResizeGrid
$LN6@ResizeGrid:

; 584  : 	}
; 585  : 
; 586  : }

  00085	8b 4d fc	 mov	 ecx, DWORD PTR __$ArrayPad$[ebp]
  00088	5f		 pop	 edi
  00089	5e		 pop	 esi
  0008a	33 cd		 xor	 ecx, ebp
  0008c	5b		 pop	 ebx
  0008d	e8 00 00 00 00	 call	 @__security_check_cookie@4
  00092	8b e5		 mov	 esp, ebp
  00094	5d		 pop	 ebp
  00095	c3		 ret	 0
?ResizeGridRowCol_CandleRptType1@CDlgAnalysis@@QAEXXZ ENDP ; CDlgAnalysis::ResizeGridRowCol_CandleRptType1
_TEXT	ENDS
; Function compile flags: /Ogtp
; File D:\git\src\IBK\IBK_DRFN\ProjSrc\SrcChartEx\ChartAddIn\ChartPatternAddIn\DlgAnalysis.cpp
;	COMDAT ?InitGridRowCol_CandleRptType1@CDlgAnalysis@@QAEXXZ
_TEXT	SEGMENT
_e$2 = -20						; size = 4
__$EHRec$ = -16						; size = 16
?InitGridRowCol_CandleRptType1@CDlgAnalysis@@QAEXXZ PROC ; CDlgAnalysis::InitGridRowCol_CandleRptType1, COMDAT
; _this$ = ecx

; 544  : {	

  00000	55		 push	 ebp
  00001	8b ec		 mov	 ebp, esp
  00003	6a ff		 push	 -1
  00005	68 00 00 00 00	 push	 __ehhandler$?InitGridRowCol_CandleRptType1@CDlgAnalysis@@QAEXXZ
  0000a	64 a1 00 00 00
	00		 mov	 eax, DWORD PTR fs:0
  00010	50		 push	 eax
  00011	83 ec 08	 sub	 esp, 8
  00014	53		 push	 ebx
  00015	56		 push	 esi
  00016	57		 push	 edi
  00017	a1 00 00 00 00	 mov	 eax, DWORD PTR ___security_cookie
  0001c	33 c5		 xor	 eax, ebp
  0001e	50		 push	 eax
  0001f	8d 45 f4	 lea	 eax, DWORD PTR __$EHRec$[ebp+4]
  00022	64 a3 00 00 00
	00		 mov	 DWORD PTR fs:0, eax
  00028	89 65 f0	 mov	 DWORD PTR __$EHRec$[ebp], esp
  0002b	8b f1		 mov	 esi, ecx

; 545  : 	try {
; 546  : 		m_pGridCandleRtpType1->SetRowCount(DEFAULT_ROW_CNT_CND1);

  0002d	8b 8e ac 00 00
	00		 mov	 ecx, DWORD PTR [esi+172]
  00033	6a 02		 push	 2
  00035	c7 45 fc 00 00
	00 00		 mov	 DWORD PTR __$EHRec$[ebp+12], 0
  0003c	e8 00 00 00 00	 call	 ?SetRowCount@CGridCtrl@@QAEHH@Z ; CGridCtrl::SetRowCount

; 547  : 		m_pGridCandleRtpType1->SetColumnCount(DEFAULT_COL_CNT_CND1);

  00041	8b 8e ac 00 00
	00		 mov	 ecx, DWORD PTR [esi+172]
  00047	6a 09		 push	 9
  00049	e8 00 00 00 00	 call	 ?SetColumnCount@CGridCtrl@@QAEHH@Z ; CGridCtrl::SetColumnCount

; 548  : 		m_pGridCandleRtpType1->SetFixedRowCount(2);

  0004e	8b 8e ac 00 00
	00		 mov	 ecx, DWORD PTR [esi+172]
  00054	6a 02		 push	 2
  00056	e8 00 00 00 00	 call	 ?SetFixedRowCount@CGridCtrl@@QAEHH@Z ; CGridCtrl::SetFixedRowCount

; 549  : 		m_pGridCandleRtpType1->SetFixedColumnCount(0);

  0005b	8b 8e ac 00 00
	00		 mov	 ecx, DWORD PTR [esi+172]
  00061	6a 00		 push	 0
  00063	e8 00 00 00 00	 call	 ?SetFixedColumnCount@CGridCtrl@@QAEHH@Z ; CGridCtrl::SetFixedColumnCount

; 550  : 
; 551  : 		m_pGridCandleRtpType1->SetBkColor(COLOR_WHITE);

  00068	8b 86 ac 00 00
	00		 mov	 eax, DWORD PTR [esi+172]
  0006e	c7 80 a0 00 00
	00 ff ff ff 00	 mov	 DWORD PTR [eax+160], 16777215 ; 00ffffffH
$LN7@InitGridRo:

; 558  : 	}
; 559  : }

  00078	8b 4d f4	 mov	 ecx, DWORD PTR __$EHRec$[ebp+4]
  0007b	64 89 0d 00 00
	00 00		 mov	 DWORD PTR fs:0, ecx
  00082	59		 pop	 ecx
  00083	5f		 pop	 edi
  00084	5e		 pop	 esi
  00085	5b		 pop	 ebx
  00086	8b e5		 mov	 esp, ebp
  00088	5d		 pop	 ebp
  00089	c3		 ret	 0
__catch$?InitGridRowCol_CandleRptType1@CDlgAnalysis@@QAEXXZ$0:

; 552  : 	}
; 553  : 	catch (CMemoryException* e)
; 554  : 	{
; 555  : 		e->ReportError();

  0008a	8b 75 ec	 mov	 esi, DWORD PTR _e$2[ebp]
  0008d	8b ce		 mov	 ecx, esi
  0008f	6a 00		 push	 0
  00091	6a 00		 push	 0
  00093	8b 06		 mov	 eax, DWORD PTR [esi]
  00095	ff 50 1c	 call	 DWORD PTR [eax+28]

; 556  : 		e->Delete();

  00098	8b ce		 mov	 ecx, esi
  0009a	e8 00 00 00 00	 call	 ?Delete@CException@@QAEXXZ ; CException::Delete

; 557  : 		return;

  0009f	b8 00 00 00 00	 mov	 eax, $LN7@InitGridRo
  000a4	c3		 ret	 0
  000a5	cc		 int	 3
  000a6	cc		 int	 3
  000a7	cc		 int	 3
  000a8	cc		 int	 3
  000a9	cc		 int	 3
_TEXT	ENDS
;	COMDAT text$x
text$x	SEGMENT
__ehhandler$?InitGridRowCol_CandleRptType1@CDlgAnalysis@@QAEXXZ:
  00000	90		 npad	 1
  00001	90		 npad	 1
  00002	8b 54 24 08	 mov	 edx, DWORD PTR [esp+8]
  00006	8d 42 0c	 lea	 eax, DWORD PTR [edx+12]
  00009	8b 4a e8	 mov	 ecx, DWORD PTR [edx-24]
  0000c	33 c8		 xor	 ecx, eax
  0000e	e8 00 00 00 00	 call	 @__security_check_cookie@4
  00013	b8 00 00 00 00	 mov	 eax, OFFSET __ehfuncinfo$?InitGridRowCol_CandleRptType1@CDlgAnalysis@@QAEXXZ
  00018	e9 00 00 00 00	 jmp	 ___CxxFrameHandler3
text$x	ENDS
?InitGridRowCol_CandleRptType1@CDlgAnalysis@@QAEXXZ ENDP ; CDlgAnalysis::InitGridRowCol_CandleRptType1
; Function compile flags: /Ogtp
; File D:\git\src\IBK\IBK_DRFN\ProjSrc\SrcChartEx\ChartAddIn\ChartPatternAddIn\DlgAnalysis.cpp
; File C:\Program Files (x86)\Microsoft Visual Studio\2019\Community\VC\Tools\MSVC\14.29.30133\atlmfc\include\afx.inl
; File D:\git\src\IBK\IBK_DRFN\ProjSrc\SrcChartEx\ChartAddIn\ChartPatternAddIn\DlgAnalysis.cpp
; File C:\Program Files (x86)\Microsoft Visual Studio\2019\Community\VC\Tools\MSVC\14.29.30133\atlmfc\include\afxwin2.inl
; File D:\git\src\IBK\IBK_DRFN\ProjSrc\SrcChartEx\ChartAddIn\ChartPatternAddIn\DlgAnalysis.cpp
; File C:\Program Files (x86)\Microsoft Visual Studio\2019\Community\VC\Tools\MSVC\14.29.30133\atlmfc\include\afxwin1.inl
; File C:\Program Files (x86)\Microsoft Visual Studio\2019\Community\VC\Tools\MSVC\14.29.30133\atlmfc\include\afxwin2.inl
; File D:\git\src\IBK\IBK_DRFN\ProjSrc\SrcChartEx\ChartAddIn\ChartPatternAddIn\DlgAnalysis.cpp
; File C:\Program Files (x86)\Microsoft Visual Studio\2019\Community\VC\Tools\MSVC\14.29.30133\atlmfc\include\afxwin2.inl
; File D:\git\src\IBK\IBK_DRFN\ProjSrc\SrcChartEx\ChartAddIn\ChartPatternAddIn\DlgAnalysis.cpp
;	COMDAT ?InitGrid_CandleRptType1@CDlgAnalysis@@QAEXXZ
_TEXT	SEGMENT
_nCol$1$ = -56						; size = 4
$T2 = -56						; size = 4
_nColWidth$3 = -52					; size = 36
__$ArrayPad$ = -16					; size = 4
__$EHRec$ = -12						; size = 12
?InitGrid_CandleRptType1@CDlgAnalysis@@QAEXXZ PROC	; CDlgAnalysis::InitGrid_CandleRptType1, COMDAT
; _this$ = ecx

; 505  : {

  00000	55		 push	 ebp
  00001	8b ec		 mov	 ebp, esp
  00003	6a ff		 push	 -1
  00005	68 00 00 00 00	 push	 __ehhandler$?InitGrid_CandleRptType1@CDlgAnalysis@@QAEXXZ
  0000a	64 a1 00 00 00
	00		 mov	 eax, DWORD PTR fs:0
  00010	50		 push	 eax
  00011	83 ec 30	 sub	 esp, 48			; 00000030H
  00014	a1 00 00 00 00	 mov	 eax, DWORD PTR ___security_cookie
  00019	33 c5		 xor	 eax, ebp
  0001b	89 45 f0	 mov	 DWORD PTR __$ArrayPad$[ebp], eax
  0001e	53		 push	 ebx
  0001f	56		 push	 esi
  00020	57		 push	 edi
  00021	50		 push	 eax
  00022	8d 45 f4	 lea	 eax, DWORD PTR __$EHRec$[ebp]
  00025	64 a3 00 00 00
	00		 mov	 DWORD PTR fs:0, eax
  0002b	8b f9		 mov	 edi, ecx

; 506  : 	if (m_pGridCandleRtpType1 == NULL)

  0002d	83 bf ac 00 00
	00 00		 cmp	 DWORD PTR [edi+172], 0
  00034	0f 85 a2 01 00
	00		 jne	 $LN2@InitGrid_C
; File C:\Program Files (x86)\Microsoft Visual Studio\2019\Community\VC\Tools\MSVC\14.29.30133\atlmfc\include\afx.inl

; 116  : 	{ return ::operator new(nSize); }

  0003a	68 00 04 00 00	 push	 1024			; 00000400H
  0003f	e8 00 00 00 00	 call	 ??2@YAPAXI@Z		; operator new
  00044	83 c4 04	 add	 esp, 4
; File D:\git\src\IBK\IBK_DRFN\ProjSrc\SrcChartEx\ChartAddIn\ChartPatternAddIn\DlgAnalysis.cpp

; 509  : 		m_pGridCandleRtpType1 = new CGridCtrl;

  00047	89 45 c8	 mov	 DWORD PTR $T2[ebp], eax
  0004a	c7 45 fc 00 00
	00 00		 mov	 DWORD PTR __$EHRec$[ebp+8], 0
  00051	85 c0		 test	 eax, eax
  00053	74 11		 je	 SHORT $LN5@InitGrid_C
  00055	6a 00		 push	 0
  00057	6a 00		 push	 0
  00059	6a 00		 push	 0
  0005b	6a 00		 push	 0
  0005d	8b c8		 mov	 ecx, eax
  0005f	e8 00 00 00 00	 call	 ??0CGridCtrl@@QAE@HHHH@Z ; CGridCtrl::CGridCtrl
  00064	eb 02		 jmp	 SHORT $LN6@InitGrid_C
$LN5@InitGrid_C:
  00066	33 c0		 xor	 eax, eax
$LN6@InitGrid_C:
  00068	c7 45 fc ff ff
	ff ff		 mov	 DWORD PTR __$EHRec$[ebp+8], -1
  0006f	89 87 ac 00 00
	00		 mov	 DWORD PTR [edi+172], eax

; 510  : 		if (!m_pGridCandleRtpType1) return;

  00075	85 c0		 test	 eax, eax
  00077	0f 84 5f 01 00
	00		 je	 $LN2@InitGrid_C

; 511  : 
; 512  : 		// Create the Gridctrl window
; 513  : 		m_staticGridBase.GetWindowRect(m_rectGrid);		

  0007d	8d b7 f8 00 00
	00		 lea	 esi, DWORD PTR [edi+248]
; File C:\Program Files (x86)\Microsoft Visual Studio\2019\Community\VC\Tools\MSVC\14.29.30133\atlmfc\include\afxwin2.inl

; 84   : 	{ ASSERT(::IsWindow(m_hWnd)); ::GetWindowRect(m_hWnd, lpRect); }

  00083	56		 push	 esi
  00084	ff b7 30 01 00
	00		 push	 DWORD PTR [edi+304]
  0008a	ff 15 00 00 00
	00		 call	 DWORD PTR __imp__GetWindowRect@8
; File D:\git\src\IBK\IBK_DRFN\ProjSrc\SrcChartEx\ChartAddIn\ChartPatternAddIn\DlgAnalysis.cpp

; 514  : 		ScreenToClient(&m_rectGrid);

  00090	56		 push	 esi
  00091	8b cf		 mov	 ecx, edi
  00093	e8 00 00 00 00	 call	 ?ScreenToClient@CWnd@@QBEXPAUtagRECT@@@Z ; CWnd::ScreenToClient

; 515  : 		m_pGridCandleRtpType1->Create(m_rectGrid, this, 100);

  00098	8b 8f ac 00 00
	00		 mov	 ecx, DWORD PTR [edi+172]
  0009e	68 00 00 01 50	 push	 1342242816		; 50010000H
  000a3	6a 64		 push	 100			; 00000064H
  000a5	57		 push	 edi
  000a6	56		 push	 esi
  000a7	e8 00 00 00 00	 call	 ?Create@CGridCtrl@@QAEHABUtagRECT@@PAVCWnd@@IK@Z ; CGridCtrl::Create

; 516  : 		
; 517  : 		// fill it up with stuff
; 518  : 		m_pGridCandleRtpType1->SetEditable(TRUE);

  000ac	8b 87 ac 00 00
	00		 mov	 eax, DWORD PTR [edi+172]
  000b2	c7 80 d0 00 00
	00 01 00 00 00	 mov	 DWORD PTR [eax+208], 1

; 519  : 		m_pGridCandleRtpType1->EnableDragAndDrop(FALSE);

  000bc	8b 87 ac 00 00
	00		 mov	 eax, DWORD PTR [edi+172]
  000c2	c7 80 d8 00 00
	00 00 00 00 00	 mov	 DWORD PTR [eax+216], 0

; 520  : 		m_pGridCandleRtpType1->SetFont(&m_Font, FALSE);

  000cc	8d 87 b4 00 00
	00		 lea	 eax, DWORD PTR [edi+180]
  000d2	8b 8f ac 00 00
	00		 mov	 ecx, DWORD PTR [edi+172]
; File C:\Program Files (x86)\Microsoft Visual Studio\2019\Community\VC\Tools\MSVC\14.29.30133\atlmfc\include\afxwin1.inl

; 68   : 	{ return this == NULL ? NULL : m_hObject; }

  000d8	85 c0		 test	 eax, eax
  000da	74 03		 je	 SHORT $LN17@InitGrid_C
$LN16@InitGrid_C:
  000dc	8b 40 04	 mov	 eax, DWORD PTR [eax+4]
$LN17@InitGrid_C:
; File C:\Program Files (x86)\Microsoft Visual Studio\2019\Community\VC\Tools\MSVC\14.29.30133\atlmfc\include\afxwin2.inl

; 43   : 	{ ASSERT(::IsWindow(m_hWnd)); ::SendMessage(m_hWnd, WM_SETFONT, (WPARAM)pFont->GetSafeHandle(), bRedraw); }

  000df	6a 00		 push	 0
  000e1	50		 push	 eax
  000e2	6a 30		 push	 48			; 00000030H
  000e4	ff 71 20	 push	 DWORD PTR [ecx+32]
  000e7	ff 15 00 00 00
	00		 call	 DWORD PTR __imp__SendMessageA@16
; File D:\git\src\IBK\IBK_DRFN\ProjSrc\SrcChartEx\ChartAddIn\ChartPatternAddIn\DlgAnalysis.cpp

; 521  : 		m_pGridCandleRtpType1->SetGridColor(COLOR_WHITE);

  000ed	8b 87 ac 00 00
	00		 mov	 eax, DWORD PTR [edi+172]

; 522  : 		m_pGridCandleRtpType1->SetGridLineColor(COLOR_GRIDLINE);
; 523  : 		m_pGridCandleRtpType1->SetListMode(TRUE);

  000f3	6a 01		 push	 1
  000f5	c7 80 a4 00 00
	00 ff ff ff 00	 mov	 DWORD PTR [eax+164], 16777215 ; 00ffffffH
  000ff	8b 87 ac 00 00
	00		 mov	 eax, DWORD PTR [edi+172]
  00105	c7 80 a4 00 00
	00 99 ac bf 00	 mov	 DWORD PTR [eax+164], 12561561 ; 00bfac99H
  0010f	8b 8f ac 00 00
	00		 mov	 ecx, DWORD PTR [edi+172]
  00115	e8 00 00 00 00	 call	 ?SetListMode@CGridCtrl@@QAEXH@Z ; CGridCtrl::SetListMode

; 524  : 		m_pGridCandleRtpType1->EnableColumnHide();

  0011a	8b 87 ac 00 00
	00		 mov	 eax, DWORD PTR [edi+172]

; 525  : 		m_pGridCandleRtpType1->EnableRowHide();
; 526  : 		m_pGridCandleRtpType1->SetPatternReportType( CANDLE_REPORTTYPE1);	// Report Grid Type

  00120	68 d1 07 00 00	 push	 2001			; 000007d1H
  00125	c7 80 18 01 00
	00 01 00 00 00	 mov	 DWORD PTR [eax+280], 1
  0012f	8b 87 ac 00 00
	00		 mov	 eax, DWORD PTR [edi+172]
  00135	c7 80 1c 01 00
	00 01 00 00 00	 mov	 DWORD PTR [eax+284], 1
  0013f	8b 8f ac 00 00
	00		 mov	 ecx, DWORD PTR [edi+172]
  00145	e8 00 00 00 00	 call	 ?SetPatternReportType@CGridCtrl@@QAEXH@Z ; CGridCtrl::SetPatternReportType

; 527  : 
; 528  : 
; 529  : 		m_pGridCandleRtpType1->ShowWindow( SW_HIDE);

  0014a	8b 8f ac 00 00
	00		 mov	 ecx, DWORD PTR [edi+172]
  00150	6a 00		 push	 0
  00152	e8 00 00 00 00	 call	 ?ShowWindow@CWnd@@QAEHH@Z ; CWnd::ShowWindow

; 530  : 
; 531  : 
; 532  : 		//   Default 
; 533  : 		InitGridRowCol_CandleRptType1();

  00157	8b cf		 mov	 ecx, edi
  00159	e8 00 00 00 00	 call	 ?InitGridRowCol_CandleRptType1@CDlgAnalysis@@QAEXXZ ; CDlgAnalysis::InitGridRowCol_CandleRptType1

; 564  : 	int nCol = m_pGridCandleRtpType1->GetColumnCount();

  0015e	8b 87 ac 00 00
	00		 mov	 eax, DWORD PTR [edi+172]
; File C:\Program Files (x86)\Microsoft Visual Studio\2019\Community\VC\Tools\MSVC\14.29.30133\atlmfc\include\afxwin2.inl

; 43   : 	{ ASSERT(::IsWindow(m_hWnd)); ::SendMessage(m_hWnd, WM_SETFONT, (WPARAM)pFont->GetSafeHandle(), bRedraw); }

  00164	33 f6		 xor	 esi, esi
; File D:\git\src\IBK\IBK_DRFN\ProjSrc\SrcChartEx\ChartAddIn\ChartPatternAddIn\DlgAnalysis.cpp

; 564  : 	int nCol = m_pGridCandleRtpType1->GetColumnCount();

  00166	8b 98 38 01 00
	00		 mov	 ebx, DWORD PTR [eax+312]

; 565  : 	int nRow = m_pGridCandleRtpType1->GetRowCount();

  0016c	8b 80 30 01 00
	00		 mov	 eax, DWORD PTR [eax+304]
  00172	89 5d c8	 mov	 DWORD PTR _nCol$1$[ebp], ebx

; 566  : 
; 567  : 	// fill rows/cols with text
; 568  : 	for (int row = 0; row < nRow; row++)

  00175	85 c0		 test	 eax, eax
  00177	7e 1d		 jle	 SHORT $LN20@InitGrid_C
  00179	8b d8		 mov	 ebx, eax
  0017b	0f 1f 44 00 00	 npad	 5
$LL21@InitGrid_C:

; 569  : 	{
; 570  : 		// Set Row Height
; 571  : 		m_pGridCandleRtpType1->SetRowHeight(row, ROW_HEIGHT);

  00180	8b 8f ac 00 00
	00		 mov	 ecx, DWORD PTR [edi+172]
  00186	6a 10		 push	 16			; 00000010H
  00188	56		 push	 esi
  00189	e8 00 00 00 00	 call	 ?SetRowHeight@CGridCtrl@@QAEHHH@Z ; CGridCtrl::SetRowHeight
  0018e	46		 inc	 esi
  0018f	3b f3		 cmp	 esi, ebx
  00191	7c ed		 jl	 SHORT $LL21@InitGrid_C
  00193	8b 5d c8	 mov	 ebx, DWORD PTR _nCol$1$[ebp]
$LN20@InitGrid_C:

; 572  : 
; 573  : 	}
; 574  : 
; 575  : 	
; 576  : 	int nColWidth[] = { COL_WIDTH_CND1_NUM,		COL_WIDTH_CND1_TIME,		COL_WIDTH_CND1_TYPE,	COL_WIDTH_CND1_NAME,	COL_WIDTH_CND1_DAY1,

  00196	0f 28 05 00 00
	00 00		 movaps	 xmm0, XMMWORD PTR __xmm@00000064000000460000005700000016
  0019d	33 f6		 xor	 esi, esi

; 577  : 						COL_WIDTH_CND1_DAY2,	COL_WIDTH_CND1_DAY3,		COL_WIDTH_CND1_DAY4,	COL_WIDTH_CND1_DAY5

  0019f	c7 45 ec 30 00
	00 00		 mov	 DWORD PTR _nColWidth$3[ebp+32], 48 ; 00000030H
  001a6	0f 11 45 cc	 movups	 XMMWORD PTR _nColWidth$3[ebp], xmm0
  001aa	0f 28 05 00 00
	00 00		 movaps	 xmm0, XMMWORD PTR __xmm@00000030000000300000003000000030
  001b1	0f 11 45 dc	 movups	 XMMWORD PTR _nColWidth$3[ebp+16], xmm0

; 578  : 					};
; 579  : 
; 580  : 	for (int col = 0; col < nCol; col++)

  001b5	85 db		 test	 ebx, ebx
  001b7	7e 1c		 jle	 SHORT $LN23@InitGrid_C
  001b9	0f 1f 80 00 00
	00 00		 npad	 7
$LL24@InitGrid_C:

; 581  : 	{
; 582  : 		// Set Column Width
; 583  : 		m_pGridCandleRtpType1->SetColumnWidth(col, nColWidth[col]);

  001c0	ff 74 b5 cc	 push	 DWORD PTR _nColWidth$3[ebp+esi*4]
  001c4	8b 8f ac 00 00
	00		 mov	 ecx, DWORD PTR [edi+172]
  001ca	56		 push	 esi
  001cb	e8 00 00 00 00	 call	 ?SetColumnWidth@CGridCtrl@@QAEHHH@Z ; CGridCtrl::SetColumnWidth
  001d0	46		 inc	 esi
  001d1	3b f3		 cmp	 esi, ebx
  001d3	7c eb		 jl	 SHORT $LL24@InitGrid_C
$LN23@InitGrid_C:

; 534  : 	
; 535  : 		//   
; 536  : 		ResizeGridRowCol_CandleRptType1();
; 537  : 
; 538  : 		//   
; 539  : 		InitGridFormat_CandleRptType1();

  001d5	8b cf		 mov	 ecx, edi
  001d7	e8 00 00 00 00	 call	 ?InitGridFormat_CandleRptType1@CDlgAnalysis@@QAEXXZ ; CDlgAnalysis::InitGridFormat_CandleRptType1
$LN2@InitGrid_C:

; 540  : 	}
; 541  : }

  001dc	8b 4d f4	 mov	 ecx, DWORD PTR __$EHRec$[ebp]
  001df	64 89 0d 00 00
	00 00		 mov	 DWORD PTR fs:0, ecx
  001e6	59		 pop	 ecx
  001e7	5f		 pop	 edi
  001e8	5e		 pop	 esi
  001e9	5b		 pop	 ebx
  001ea	8b 4d f0	 mov	 ecx, DWORD PTR __$ArrayPad$[ebp]
  001ed	33 cd		 xor	 ecx, ebp
  001ef	e8 00 00 00 00	 call	 @__security_check_cookie@4
  001f4	8b e5		 mov	 esp, ebp
  001f6	5d		 pop	 ebp
  001f7	c3		 ret	 0
_TEXT	ENDS
;	COMDAT text$x
text$x	SEGMENT
__unwindfunclet$?InitGrid_CandleRptType1@CDlgAnalysis@@QAEXXZ$0:
  00000	8b 45 c8	 mov	 eax, DWORD PTR $T2[ebp]
  00003	50		 push	 eax
  00004	e8 00 00 00 00	 call	 ??3CObject@@SGXPAX@Z	; CObject::operator delete
  00009	c3		 ret	 0
  0000a	cc		 int	 3
  0000b	cc		 int	 3
  0000c	cc		 int	 3
  0000d	cc		 int	 3
  0000e	cc		 int	 3
__ehhandler$?InitGrid_CandleRptType1@CDlgAnalysis@@QAEXXZ:
  0000f	90		 npad	 1
  00010	90		 npad	 1
  00011	8b 54 24 08	 mov	 edx, DWORD PTR [esp+8]
  00015	8d 42 0c	 lea	 eax, DWORD PTR [edx+12]
  00018	8b 4a c0	 mov	 ecx, DWORD PTR [edx-64]
  0001b	33 c8		 xor	 ecx, eax
  0001d	e8 00 00 00 00	 call	 @__security_check_cookie@4
  00022	8b 4a fc	 mov	 ecx, DWORD PTR [edx-4]
  00025	33 c8		 xor	 ecx, eax
  00027	e8 00 00 00 00	 call	 @__security_check_cookie@4
  0002c	b8 00 00 00 00	 mov	 eax, OFFSET __ehfuncinfo$?InitGrid_CandleRptType1@CDlgAnalysis@@QAEXXZ
  00031	e9 00 00 00 00	 jmp	 ___CxxFrameHandler3
text$x	ENDS
?InitGrid_CandleRptType1@CDlgAnalysis@@QAEXXZ ENDP	; CDlgAnalysis::InitGrid_CandleRptType1
; Function compile flags: /Ogtp
; File D:\git\src\IBK\IBK_DRFN\ProjSrc\SrcChartEx\ChartAddIn\ChartPatternAddIn\DlgAnalysis.cpp
; File C:\Program Files (x86)\Microsoft Visual Studio\2019\Community\VC\Tools\MSVC\14.29.30133\atlmfc\include\afxtempl.h
; File D:\git\src\IBK\IBK_DRFN\ProjSrc\SrcChartEx\ChartAddIn\ChartPatternAddIn\DlgAnalysis.cpp
; File C:\Program Files (x86)\Microsoft Visual Studio\2019\Community\VC\Tools\MSVC\14.29.30133\atlmfc\include\atlsimpstr.h
; File D:\git\src\IBK\IBK_DRFN\ProjSrc\SrcChartEx\ChartAddIn\ChartPatternAddIn\DlgAnalysis.cpp
; File C:\Program Files (x86)\Microsoft Visual Studio\2019\Community\VC\Tools\MSVC\14.29.30133\atlmfc\include\atlsimpstr.h
; File D:\git\src\IBK\IBK_DRFN\ProjSrc\SrcChartEx\ChartAddIn\ChartPatternAddIn\DlgAnalysis.cpp
; File C:\Program Files (x86)\Microsoft Visual Studio\2019\Community\VC\Tools\MSVC\14.29.30133\atlmfc\include\cstringt.h
; File D:\git\src\IBK\IBK_DRFN\ProjSrc\SrcChartEx\ChartAddIn\ChartPatternAddIn\DlgAnalysis.cpp
; File C:\Program Files (x86)\Microsoft Visual Studio\2019\Community\VC\Tools\MSVC\14.29.30133\atlmfc\include\cstringt.h
; File C:\Program Files (x86)\Microsoft Visual Studio\2019\Community\VC\Tools\MSVC\14.29.30133\atlmfc\include\atlsimpstr.h
; File C:\Program Files (x86)\Microsoft Visual Studio\2019\Community\VC\Tools\MSVC\14.29.30133\atlmfc\include\cstringt.h
; File D:\git\src\IBK\IBK_DRFN\ProjSrc\SrcChartEx\ChartAddIn\ChartPatternAddIn\DlgAnalysis.cpp
; File C:\Program Files (x86)\Microsoft Visual Studio\2019\Community\VC\Tools\MSVC\14.29.30133\atlmfc\include\cstringt.h
; File C:\Program Files (x86)\Microsoft Visual Studio\2019\Community\VC\Tools\MSVC\14.29.30133\atlmfc\include\atlsimpstr.h
; File C:\Program Files (x86)\Microsoft Visual Studio\2019\Community\VC\Tools\MSVC\14.29.30133\atlmfc\include\cstringt.h
; File D:\git\src\IBK\IBK_DRFN\ProjSrc\SrcChartEx\ChartAddIn\ChartPatternAddIn\DlgAnalysis.cpp
; File C:\Program Files (x86)\Microsoft Visual Studio\2019\Community\VC\Tools\MSVC\14.29.30133\atlmfc\include\cstringt.h
; File C:\Program Files (x86)\Microsoft Visual Studio\2019\Community\VC\Tools\MSVC\14.29.30133\atlmfc\include\atlsimpstr.h
; File C:\Program Files (x86)\Microsoft Visual Studio\2019\Community\VC\Tools\MSVC\14.29.30133\atlmfc\include\cstringt.h
; File D:\git\src\IBK\IBK_DRFN\ProjSrc\SrcChartEx\ChartAddIn\ChartPatternAddIn\DlgAnalysis.cpp
; File C:\Program Files (x86)\Microsoft Visual Studio\2019\Community\VC\Tools\MSVC\14.29.30133\atlmfc\include\cstringt.h
; File C:\Program Files (x86)\Microsoft Visual Studio\2019\Community\VC\Tools\MSVC\14.29.30133\atlmfc\include\atlsimpstr.h
; File C:\Program Files (x86)\Microsoft Visual Studio\2019\Community\VC\Tools\MSVC\14.29.30133\atlmfc\include\cstringt.h
; File C:\Program Files (x86)\Microsoft Visual Studio\2019\Community\VC\Tools\MSVC\14.29.30133\atlmfc\include\atlsimpstr.h
; File C:\Program Files (x86)\Microsoft Visual Studio\2019\Community\VC\Tools\MSVC\14.29.30133\atlmfc\include\cstringt.h
; File C:\Program Files (x86)\Microsoft Visual Studio\2019\Community\VC\Tools\MSVC\14.29.30133\atlmfc\include\atlsimpstr.h
; File C:\Program Files (x86)\Microsoft Visual Studio\2019\Community\VC\Tools\MSVC\14.29.30133\atlmfc\include\cstringt.h
; File D:\git\src\IBK\IBK_DRFN\ProjSrc\SrcChartEx\ChartAddIn\ChartPatternAddIn\DlgAnalysis.cpp
; File C:\Program Files (x86)\Microsoft Visual Studio\2019\Community\VC\Tools\MSVC\14.29.30133\atlmfc\include\cstringt.h
; File C:\Program Files (x86)\Microsoft Visual Studio\2019\Community\VC\Tools\MSVC\14.29.30133\atlmfc\include\atlsimpstr.h
; File C:\Program Files (x86)\Microsoft Visual Studio\2019\Community\VC\Tools\MSVC\14.29.30133\atlmfc\include\cstringt.h
; File D:\git\src\IBK\IBK_DRFN\ProjSrc\SrcChartEx\ChartAddIn\ChartPatternAddIn\DlgAnalysis.cpp
; File C:\Program Files (x86)\Microsoft Visual Studio\2019\Community\VC\Tools\MSVC\14.29.30133\atlmfc\include\cstringt.h
; File C:\Program Files (x86)\Microsoft Visual Studio\2019\Community\VC\Tools\MSVC\14.29.30133\atlmfc\include\atlsimpstr.h
; File C:\Program Files (x86)\Microsoft Visual Studio\2019\Community\VC\Tools\MSVC\14.29.30133\atlmfc\include\cstringt.h
; File C:\Program Files (x86)\Microsoft Visual Studio\2019\Community\VC\Tools\MSVC\14.29.30133\atlmfc\include\atlsimpstr.h
; File C:\Program Files (x86)\Microsoft Visual Studio\2019\Community\VC\Tools\MSVC\14.29.30133\atlmfc\include\cstringt.h
; File C:\Program Files (x86)\Microsoft Visual Studio\2019\Community\VC\Tools\MSVC\14.29.30133\atlmfc\include\atlsimpstr.h
; File C:\Program Files (x86)\Microsoft Visual Studio\2019\Community\VC\Tools\MSVC\14.29.30133\atlmfc\include\cstringt.h
; File D:\git\src\IBK\IBK_DRFN\ProjSrc\SrcChartEx\ChartAddIn\ChartPatternAddIn\DlgAnalysis.cpp
; File C:\Program Files (x86)\Microsoft Visual Studio\2019\Community\VC\Tools\MSVC\14.29.30133\atlmfc\include\cstringt.h
; File D:\git\src\IBK\IBK_DRFN\ProjSrc\SrcChartEx\ChartAddIn\ChartPatternAddIn\DlgAnalysis.cpp
; File C:\Program Files (x86)\Microsoft Visual Studio\2019\Community\VC\Tools\MSVC\14.29.30133\atlmfc\include\cstringt.h
; File C:\Program Files (x86)\Microsoft Visual Studio\2019\Community\VC\Tools\MSVC\14.29.30133\atlmfc\include\atlsimpstr.h
; File C:\Program Files (x86)\Microsoft Visual Studio\2019\Community\VC\Tools\MSVC\14.29.30133\atlmfc\include\cstringt.h
; File D:\git\src\IBK\IBK_DRFN\ProjSrc\SrcChartEx\ChartAddIn\ChartPatternAddIn\DlgAnalysis.cpp
; File C:\Program Files (x86)\Microsoft Visual Studio\2019\Community\VC\Tools\MSVC\14.29.30133\atlmfc\include\cstringt.h
; File C:\Program Files (x86)\Microsoft Visual Studio\2019\Community\VC\Tools\MSVC\14.29.30133\atlmfc\include\atlsimpstr.h
; File C:\Program Files (x86)\Microsoft Visual Studio\2019\Community\VC\Tools\MSVC\14.29.30133\atlmfc\include\cstringt.h
; File D:\git\src\IBK\IBK_DRFN\ProjSrc\SrcChartEx\ChartAddIn\ChartPatternAddIn\DlgAnalysis.cpp
; File C:\Program Files (x86)\Microsoft Visual Studio\2019\Community\VC\Tools\MSVC\14.29.30133\atlmfc\include\cstringt.h
; File C:\Program Files (x86)\Microsoft Visual Studio\2019\Community\VC\Tools\MSVC\14.29.30133\atlmfc\include\atlsimpstr.h
; File C:\Program Files (x86)\Microsoft Visual Studio\2019\Community\VC\Tools\MSVC\14.29.30133\atlmfc\include\cstringt.h
; File D:\git\src\IBK\IBK_DRFN\ProjSrc\SrcChartEx\ChartAddIn\ChartPatternAddIn\DlgAnalysis.cpp
; File C:\Program Files (x86)\Microsoft Visual Studio\2019\Community\VC\Tools\MSVC\14.29.30133\atlmfc\include\cstringt.h
; File C:\Program Files (x86)\Microsoft Visual Studio\2019\Community\VC\Tools\MSVC\14.29.30133\atlmfc\include\atlsimpstr.h
; File C:\Program Files (x86)\Microsoft Visual Studio\2019\Community\VC\Tools\MSVC\14.29.30133\atlmfc\include\cstringt.h
; File C:\Program Files (x86)\Microsoft Visual Studio\2019\Community\VC\Tools\MSVC\14.29.30133\atlmfc\include\atlsimpstr.h
; File C:\Program Files (x86)\Microsoft Visual Studio\2019\Community\VC\Tools\MSVC\14.29.30133\atlmfc\include\cstringt.h
; File C:\Program Files (x86)\Microsoft Visual Studio\2019\Community\VC\Tools\MSVC\14.29.30133\atlmfc\include\atlsimpstr.h
; File C:\Program Files (x86)\Microsoft Visual Studio\2019\Community\VC\Tools\MSVC\14.29.30133\atlmfc\include\cstringt.h
; File D:\git\src\IBK\IBK_DRFN\ProjSrc\SrcChartEx\ChartAddIn\ChartPatternAddIn\DlgAnalysis.cpp
; File C:\Program Files (x86)\Microsoft Visual Studio\2019\Community\VC\Tools\MSVC\14.29.30133\atlmfc\include\cstringt.h
; File D:\git\src\IBK\IBK_DRFN\ProjSrc\SrcChartEx\ChartAddIn\ChartPatternAddIn\DlgAnalysis.cpp
; File C:\Program Files (x86)\Microsoft Visual Studio\2019\Community\VC\Tools\MSVC\14.29.30133\atlmfc\include\cstringt.h
; File C:\Program Files (x86)\Microsoft Visual Studio\2019\Community\VC\Tools\MSVC\14.29.30133\atlmfc\include\atlsimpstr.h
; File C:\Program Files (x86)\Microsoft Visual Studio\2019\Community\VC\Tools\MSVC\14.29.30133\atlmfc\include\cstringt.h
; File D:\git\src\IBK\IBK_DRFN\ProjSrc\SrcChartEx\ChartAddIn\ChartPatternAddIn\DlgAnalysis.cpp
; File C:\Program Files (x86)\Microsoft Visual Studio\2019\Community\VC\Tools\MSVC\14.29.30133\atlmfc\include\cstringt.h
; File C:\Program Files (x86)\Microsoft Visual Studio\2019\Community\VC\Tools\MSVC\14.29.30133\atlmfc\include\atlsimpstr.h
; File C:\Program Files (x86)\Microsoft Visual Studio\2019\Community\VC\Tools\MSVC\14.29.30133\atlmfc\include\cstringt.h
; File D:\git\src\IBK\IBK_DRFN\ProjSrc\SrcChartEx\ChartAddIn\ChartPatternAddIn\DlgAnalysis.cpp
; File C:\Program Files (x86)\Microsoft Visual Studio\2019\Community\VC\Tools\MSVC\14.29.30133\atlmfc\include\cstringt.h
; File C:\Program Files (x86)\Microsoft Visual Studio\2019\Community\VC\Tools\MSVC\14.29.30133\atlmfc\include\atlsimpstr.h
; File C:\Program Files (x86)\Microsoft Visual Studio\2019\Community\VC\Tools\MSVC\14.29.30133\atlmfc\include\cstringt.h
; File D:\git\src\IBK\IBK_DRFN\ProjSrc\SrcChartEx\ChartAddIn\ChartPatternAddIn\DlgAnalysis.cpp
; File C:\Program Files (x86)\Microsoft Visual Studio\2019\Community\VC\Tools\MSVC\14.29.30133\atlmfc\include\cstringt.h
; File C:\Program Files (x86)\Microsoft Visual Studio\2019\Community\VC\Tools\MSVC\14.29.30133\atlmfc\include\atlsimpstr.h
; File C:\Program Files (x86)\Microsoft Visual Studio\2019\Community\VC\Tools\MSVC\14.29.30133\atlmfc\include\cstringt.h
; File D:\git\src\IBK\IBK_DRFN\ProjSrc\SrcChartEx\ChartAddIn\ChartPatternAddIn\DlgAnalysis.cpp
; File C:\Program Files (x86)\Microsoft Visual Studio\2019\Community\VC\Tools\MSVC\14.29.30133\atlmfc\include\cstringt.h
; File C:\Program Files (x86)\Microsoft Visual Studio\2019\Community\VC\Tools\MSVC\14.29.30133\atlmfc\include\atlsimpstr.h
; File C:\Program Files (x86)\Microsoft Visual Studio\2019\Community\VC\Tools\MSVC\14.29.30133\atlmfc\include\cstringt.h
; File C:\Program Files (x86)\Microsoft Visual Studio\2019\Community\VC\Tools\MSVC\14.29.30133\atlmfc\include\atlsimpstr.h
; File C:\Program Files (x86)\Microsoft Visual Studio\2019\Community\VC\Tools\MSVC\14.29.30133\atlmfc\include\cstringt.h
; File C:\Program Files (x86)\Microsoft Visual Studio\2019\Community\VC\Tools\MSVC\14.29.30133\atlmfc\include\atlsimpstr.h
; File C:\Program Files (x86)\Microsoft Visual Studio\2019\Community\VC\Tools\MSVC\14.29.30133\atlmfc\include\cstringt.h
; File D:\git\src\IBK\IBK_DRFN\ProjSrc\SrcChartEx\ChartAddIn\ChartPatternAddIn\DlgAnalysis.cpp
; File C:\Program Files (x86)\Microsoft Visual Studio\2019\Community\VC\Tools\MSVC\14.29.30133\atlmfc\include\cstringt.h
; File C:\Program Files (x86)\Microsoft Visual Studio\2019\Community\VC\Tools\MSVC\14.29.30133\atlmfc\include\atlsimpstr.h
; File C:\Program Files (x86)\Microsoft Visual Studio\2019\Community\VC\Tools\MSVC\14.29.30133\atlmfc\include\cstringt.h
; File D:\git\src\IBK\IBK_DRFN\ProjSrc\SrcChartEx\ChartAddIn\ChartPatternAddIn\DlgAnalysis.cpp
; File C:\Program Files (x86)\Microsoft Visual Studio\2019\Community\VC\Tools\MSVC\14.29.30133\atlmfc\include\cstringt.h
; File C:\Program Files (x86)\Microsoft Visual Studio\2019\Community\VC\Tools\MSVC\14.29.30133\atlmfc\include\atlsimpstr.h
; File C:\Program Files (x86)\Microsoft Visual Studio\2019\Community\VC\Tools\MSVC\14.29.30133\atlmfc\include\cstringt.h
; File C:\Program Files (x86)\Microsoft Visual Studio\2019\Community\VC\Tools\MSVC\14.29.30133\atlmfc\include\atlsimpstr.h
; File C:\Program Files (x86)\Microsoft Visual Studio\2019\Community\VC\Tools\MSVC\14.29.30133\atlmfc\include\cstringt.h
; File C:\Program Files (x86)\Microsoft Visual Studio\2019\Community\VC\Tools\MSVC\14.29.30133\atlmfc\include\atlsimpstr.h
; File C:\Program Files (x86)\Microsoft Visual Studio\2019\Community\VC\Tools\MSVC\14.29.30133\atlmfc\include\cstringt.h
; File D:\git\src\IBK\IBK_DRFN\ProjSrc\SrcChartEx\ChartAddIn\ChartPatternAddIn\DlgAnalysis.cpp
; File C:\Program Files (x86)\Microsoft Visual Studio\2019\Community\VC\Tools\MSVC\14.29.30133\atlmfc\include\cstringt.h
; File D:\git\src\IBK\IBK_DRFN\ProjSrc\SrcChartEx\ChartAddIn\ChartPatternAddIn\DlgAnalysis.cpp
; File C:\Program Files (x86)\Microsoft Visual Studio\2019\Community\VC\Tools\MSVC\14.29.30133\atlmfc\include\cstringt.h
; File C:\Program Files (x86)\Microsoft Visual Studio\2019\Community\VC\Tools\MSVC\14.29.30133\atlmfc\include\atlsimpstr.h
; File C:\Program Files (x86)\Microsoft Visual Studio\2019\Community\VC\Tools\MSVC\14.29.30133\atlmfc\include\cstringt.h
; File D:\git\src\IBK\IBK_DRFN\ProjSrc\SrcChartEx\ChartAddIn\ChartPatternAddIn\DlgAnalysis.cpp
; File C:\Program Files (x86)\Microsoft Visual Studio\2019\Community\VC\Tools\MSVC\14.29.30133\atlmfc\include\cstringt.h
; File C:\Program Files (x86)\Microsoft Visual Studio\2019\Community\VC\Tools\MSVC\14.29.30133\atlmfc\include\atlsimpstr.h
; File C:\Program Files (x86)\Microsoft Visual Studio\2019\Community\VC\Tools\MSVC\14.29.30133\atlmfc\include\cstringt.h
; File D:\git\src\IBK\IBK_DRFN\ProjSrc\SrcChartEx\ChartAddIn\ChartPatternAddIn\DlgAnalysis.cpp
; File C:\Program Files (x86)\Microsoft Visual Studio\2019\Community\VC\Tools\MSVC\14.29.30133\atlmfc\include\cstringt.h
; File C:\Program Files (x86)\Microsoft Visual Studio\2019\Community\VC\Tools\MSVC\14.29.30133\atlmfc\include\atlsimpstr.h
; File C:\Program Files (x86)\Microsoft Visual Studio\2019\Community\VC\Tools\MSVC\14.29.30133\atlmfc\include\cstringt.h
; File D:\git\src\IBK\IBK_DRFN\ProjSrc\SrcChartEx\ChartAddIn\ChartPatternAddIn\DlgAnalysis.cpp
; File C:\Program Files (x86)\Microsoft Visual Studio\2019\Community\VC\Tools\MSVC\14.29.30133\atlmfc\include\cstringt.h
; File C:\Program Files (x86)\Microsoft Visual Studio\2019\Community\VC\Tools\MSVC\14.29.30133\atlmfc\include\atlsimpstr.h
; File C:\Program Files (x86)\Microsoft Visual Studio\2019\Community\VC\Tools\MSVC\14.29.30133\atlmfc\include\cstringt.h
; File C:\Program Files (x86)\Microsoft Visual Studio\2019\Community\VC\Tools\MSVC\14.29.30133\atlmfc\include\atlsimpstr.h
; File C:\Program Files (x86)\Microsoft Visual Studio\2019\Community\VC\Tools\MSVC\14.29.30133\atlmfc\include\cstringt.h
; File C:\Program Files (x86)\Microsoft Visual Studio\2019\Community\VC\Tools\MSVC\14.29.30133\atlmfc\include\atlsimpstr.h
; File C:\Program Files (x86)\Microsoft Visual Studio\2019\Community\VC\Tools\MSVC\14.29.30133\atlmfc\include\cstringt.h
; File D:\git\src\IBK\IBK_DRFN\ProjSrc\SrcChartEx\ChartAddIn\ChartPatternAddIn\DlgAnalysis.cpp
; File C:\Program Files (x86)\Microsoft Visual Studio\2019\Community\VC\Tools\MSVC\14.29.30133\atlmfc\include\cstringt.h
; File D:\git\src\IBK\IBK_DRFN\ProjSrc\SrcChartEx\ChartAddIn\ChartPatternAddIn\DlgAnalysis.cpp
; File C:\Program Files (x86)\Microsoft Visual Studio\2019\Community\VC\Tools\MSVC\14.29.30133\atlmfc\include\cstringt.h
; File C:\Program Files (x86)\Microsoft Visual Studio\2019\Community\VC\Tools\MSVC\14.29.30133\atlmfc\include\atlsimpstr.h
; File C:\Program Files (x86)\Microsoft Visual Studio\2019\Community\VC\Tools\MSVC\14.29.30133\atlmfc\include\cstringt.h
; File D:\git\src\IBK\IBK_DRFN\ProjSrc\SrcChartEx\ChartAddIn\ChartPatternAddIn\DlgAnalysis.cpp
; File C:\Program Files (x86)\Microsoft Visual Studio\2019\Community\VC\Tools\MSVC\14.29.30133\atlmfc\include\cstringt.h
; File C:\Program Files (x86)\Microsoft Visual Studio\2019\Community\VC\Tools\MSVC\14.29.30133\atlmfc\include\atlsimpstr.h
; File C:\Program Files (x86)\Microsoft Visual Studio\2019\Community\VC\Tools\MSVC\14.29.30133\atlmfc\include\cstringt.h
; File D:\git\src\IBK\IBK_DRFN\ProjSrc\SrcChartEx\ChartAddIn\ChartPatternAddIn\DlgAnalysis.cpp
; File C:\Program Files (x86)\Microsoft Visual Studio\2019\Community\VC\Tools\MSVC\14.29.30133\atlmfc\include\cstringt.h
; File C:\Program Files (x86)\Microsoft Visual Studio\2019\Community\VC\Tools\MSVC\14.29.30133\atlmfc\include\atlsimpstr.h
; File C:\Program Files (x86)\Microsoft Visual Studio\2019\Community\VC\Tools\MSVC\14.29.30133\atlmfc\include\cstringt.h
; File D:\git\src\IBK\IBK_DRFN\ProjSrc\SrcChartEx\ChartAddIn\ChartPatternAddIn\DlgAnalysis.cpp
; File C:\Program Files (x86)\Microsoft Visual Studio\2019\Community\VC\Tools\MSVC\14.29.30133\atlmfc\include\cstringt.h
; File D:\git\src\IBK\IBK_DRFN\ProjSrc\SrcChartEx\ChartAddIn\ChartPatternAddIn\DlgAnalysis.cpp
; File C:\Program Files (x86)\Microsoft Visual Studio\2019\Community\VC\Tools\MSVC\14.29.30133\atlmfc\include\cstringt.h
; File C:\Program Files (x86)\Microsoft Visual Studio\2019\Community\VC\Tools\MSVC\14.29.30133\atlmfc\include\atlsimpstr.h
; File C:\Program Files (x86)\Microsoft Visual Studio\2019\Community\VC\Tools\MSVC\14.29.30133\atlmfc\include\cstringt.h
; File D:\git\src\IBK\IBK_DRFN\ProjSrc\SrcChartEx\ChartAddIn\ChartPatternAddIn\DlgAnalysis.cpp
; File C:\Program Files (x86)\Microsoft Visual Studio\2019\Community\VC\Tools\MSVC\14.29.30133\atlmfc\include\cstringt.h
; File C:\Program Files (x86)\Microsoft Visual Studio\2019\Community\VC\Tools\MSVC\14.29.30133\atlmfc\include\atlsimpstr.h
; File C:\Program Files (x86)\Microsoft Visual Studio\2019\Community\VC\Tools\MSVC\14.29.30133\atlmfc\include\cstringt.h
; File D:\git\src\IBK\IBK_DRFN\ProjSrc\SrcChartEx\ChartAddIn\ChartPatternAddIn\DlgAnalysis.cpp
; File C:\Program Files (x86)\Microsoft Visual Studio\2019\Community\VC\Tools\MSVC\14.29.30133\atlmfc\include\cstringt.h
; File C:\Program Files (x86)\Microsoft Visual Studio\2019\Community\VC\Tools\MSVC\14.29.30133\atlmfc\include\atlsimpstr.h
; File C:\Program Files (x86)\Microsoft Visual Studio\2019\Community\VC\Tools\MSVC\14.29.30133\atlmfc\include\cstringt.h
; File C:\Program Files (x86)\Microsoft Visual Studio\2019\Community\VC\Tools\MSVC\14.29.30133\atlmfc\include\atlsimpstr.h
; File C:\Program Files (x86)\Microsoft Visual Studio\2019\Community\VC\Tools\MSVC\14.29.30133\atlmfc\include\cstringt.h
; File D:\git\src\IBK\IBK_DRFN\ProjSrc\SrcChartEx\ChartAddIn\ChartPatternAddIn\DlgAnalysis.cpp
; File C:\Program Files (x86)\Microsoft Visual Studio\2019\Community\VC\Tools\MSVC\14.29.30133\atlmfc\include\cstringt.h
; File C:\Program Files (x86)\Microsoft Visual Studio\2019\Community\VC\Tools\MSVC\14.29.30133\atlmfc\include\atlsimpstr.h
; File C:\Program Files (x86)\Microsoft Visual Studio\2019\Community\VC\Tools\MSVC\14.29.30133\atlmfc\include\cstringt.h
; File D:\git\src\IBK\IBK_DRFN\ProjSrc\SrcChartEx\ChartAddIn\ChartPatternAddIn\DlgAnalysis.cpp
; File C:\Program Files (x86)\Microsoft Visual Studio\2019\Community\VC\Tools\MSVC\14.29.30133\atlmfc\include\cstringt.h
; File C:\Program Files (x86)\Microsoft Visual Studio\2019\Community\VC\Tools\MSVC\14.29.30133\atlmfc\include\atlsimpstr.h
; File C:\Program Files (x86)\Microsoft Visual Studio\2019\Community\VC\Tools\MSVC\14.29.30133\atlmfc\include\cstringt.h
; File C:\Program Files (x86)\Microsoft Visual Studio\2019\Community\VC\Tools\MSVC\14.29.30133\atlmfc\include\atlsimpstr.h
; File C:\Program Files (x86)\Microsoft Visual Studio\2019\Community\VC\Tools\MSVC\14.29.30133\atlmfc\include\cstringt.h
; File C:\Program Files (x86)\Microsoft Visual Studio\2019\Community\VC\Tools\MSVC\14.29.30133\atlmfc\include\atlsimpstr.h
; File C:\Program Files (x86)\Microsoft Visual Studio\2019\Community\VC\Tools\MSVC\14.29.30133\atlmfc\include\cstringt.h
; File D:\git\src\IBK\IBK_DRFN\ProjSrc\SrcChartEx\ChartAddIn\ChartPatternAddIn\DlgAnalysis.cpp
; File C:\Program Files (x86)\Microsoft Visual Studio\2019\Community\VC\Tools\MSVC\14.29.30133\atlmfc\include\cstringt.h
; File D:\git\src\IBK\IBK_DRFN\ProjSrc\SrcChartEx\ChartAddIn\ChartPatternAddIn\DlgAnalysis.cpp
; File C:\Program Files (x86)\Microsoft Visual Studio\2019\Community\VC\Tools\MSVC\14.29.30133\atlmfc\include\cstringt.h
; File C:\Program Files (x86)\Microsoft Visual Studio\2019\Community\VC\Tools\MSVC\14.29.30133\atlmfc\include\atlsimpstr.h
; File C:\Program Files (x86)\Microsoft Visual Studio\2019\Community\VC\Tools\MSVC\14.29.30133\atlmfc\include\cstringt.h
; File D:\git\src\IBK\IBK_DRFN\ProjSrc\SrcChartEx\ChartAddIn\ChartPatternAddIn\DlgAnalysis.cpp
; File C:\Program Files (x86)\Microsoft Visual Studio\2019\Community\VC\Tools\MSVC\14.29.30133\atlmfc\include\cstringt.h
; File C:\Program Files (x86)\Microsoft Visual Studio\2019\Community\VC\Tools\MSVC\14.29.30133\atlmfc\include\atlsimpstr.h
; File C:\Program Files (x86)\Microsoft Visual Studio\2019\Community\VC\Tools\MSVC\14.29.30133\atlmfc\include\cstringt.h
; File D:\git\src\IBK\IBK_DRFN\ProjSrc\SrcChartEx\ChartAddIn\ChartPatternAddIn\DlgAnalysis.cpp
; File C:\Program Files (x86)\Microsoft Visual Studio\2019\Community\VC\Tools\MSVC\14.29.30133\atlmfc\include\cstringt.h
; File C:\Program Files (x86)\Microsoft Visual Studio\2019\Community\VC\Tools\MSVC\14.29.30133\atlmfc\include\atlsimpstr.h
; File C:\Program Files (x86)\Microsoft Visual Studio\2019\Community\VC\Tools\MSVC\14.29.30133\atlmfc\include\cstringt.h
; File D:\git\src\IBK\IBK_DRFN\ProjSrc\SrcChartEx\ChartAddIn\ChartPatternAddIn\DlgAnalysis.cpp
; File C:\Program Files (x86)\Microsoft Visual Studio\2019\Community\VC\Tools\MSVC\14.29.30133\atlmfc\include\cstringt.h
; File C:\Program Files (x86)\Microsoft Visual Studio\2019\Community\VC\Tools\MSVC\14.29.30133\atlmfc\include\atlsimpstr.h
; File C:\Program Files (x86)\Microsoft Visual Studio\2019\Community\VC\Tools\MSVC\14.29.30133\atlmfc\include\cstringt.h
; File C:\Program Files (x86)\Microsoft Visual Studio\2019\Community\VC\Tools\MSVC\14.29.30133\atlmfc\include\atlsimpstr.h
; File C:\Program Files (x86)\Microsoft Visual Studio\2019\Community\VC\Tools\MSVC\14.29.30133\atlmfc\include\cstringt.h
; File D:\git\src\IBK\IBK_DRFN\ProjSrc\SrcChartEx\ChartAddIn\ChartPatternAddIn\DlgAnalysis.cpp
; File C:\Program Files (x86)\Microsoft Visual Studio\2019\Community\VC\Tools\MSVC\14.29.30133\atlmfc\include\cstringt.h
; File C:\Program Files (x86)\Microsoft Visual Studio\2019\Community\VC\Tools\MSVC\14.29.30133\atlmfc\include\atlsimpstr.h
; File C:\Program Files (x86)\Microsoft Visual Studio\2019\Community\VC\Tools\MSVC\14.29.30133\atlmfc\include\cstringt.h
; File D:\git\src\IBK\IBK_DRFN\ProjSrc\SrcChartEx\ChartAddIn\ChartPatternAddIn\DlgAnalysis.cpp
; File C:\Program Files (x86)\Microsoft Visual Studio\2019\Community\VC\Tools\MSVC\14.29.30133\atlmfc\include\cstringt.h
; File C:\Program Files (x86)\Microsoft Visual Studio\2019\Community\VC\Tools\MSVC\14.29.30133\atlmfc\include\atlsimpstr.h
; File C:\Program Files (x86)\Microsoft Visual Studio\2019\Community\VC\Tools\MSVC\14.29.30133\atlmfc\include\cstringt.h
; File C:\Program Files (x86)\Microsoft Visual Studio\2019\Community\VC\Tools\MSVC\14.29.30133\atlmfc\include\atlsimpstr.h
; File C:\Program Files (x86)\Microsoft Visual Studio\2019\Community\VC\Tools\MSVC\14.29.30133\atlmfc\include\cstringt.h
; File C:\Program Files (x86)\Microsoft Visual Studio\2019\Community\VC\Tools\MSVC\14.29.30133\atlmfc\include\atlsimpstr.h
; File C:\Program Files (x86)\Microsoft Visual Studio\2019\Community\VC\Tools\MSVC\14.29.30133\atlmfc\include\cstringt.h
; File D:\git\src\IBK\IBK_DRFN\ProjSrc\SrcChartEx\ChartAddIn\ChartPatternAddIn\DlgAnalysis.cpp
; File C:\Program Files (x86)\Microsoft Visual Studio\2019\Community\VC\Tools\MSVC\14.29.30133\atlmfc\include\cstringt.h
; File C:\Program Files (x86)\Microsoft Visual Studio\2019\Community\VC\Tools\MSVC\14.29.30133\atlmfc\include\atlsimpstr.h
; File C:\Program Files (x86)\Microsoft Visual Studio\2019\Community\VC\Tools\MSVC\14.29.30133\atlmfc\include\cstringt.h
; File D:\git\src\IBK\IBK_DRFN\ProjSrc\SrcChartEx\ChartAddIn\ChartPatternAddIn\DlgAnalysis.cpp
; File C:\Program Files (x86)\Microsoft Visual Studio\2019\Community\VC\Tools\MSVC\14.29.30133\atlmfc\include\cstringt.h
; File C:\Program Files (x86)\Microsoft Visual Studio\2019\Community\VC\Tools\MSVC\14.29.30133\atlmfc\include\atlsimpstr.h
; File C:\Program Files (x86)\Microsoft Visual Studio\2019\Community\VC\Tools\MSVC\14.29.30133\atlmfc\include\cstringt.h
; File C:\Program Files (x86)\Microsoft Visual Studio\2019\Community\VC\Tools\MSVC\14.29.30133\atlmfc\include\atlsimpstr.h
; File C:\Program Files (x86)\Microsoft Visual Studio\2019\Community\VC\Tools\MSVC\14.29.30133\atlmfc\include\cstringt.h
; File C:\Program Files (x86)\Microsoft Visual Studio\2019\Community\VC\Tools\MSVC\14.29.30133\atlmfc\include\atlsimpstr.h
; File C:\Program Files (x86)\Microsoft Visual Studio\2019\Community\VC\Tools\MSVC\14.29.30133\atlmfc\include\cstringt.h
; File D:\git\src\IBK\IBK_DRFN\ProjSrc\SrcChartEx\ChartAddIn\ChartPatternAddIn\DlgAnalysis.cpp
; File C:\Program Files (x86)\Microsoft Visual Studio\2019\Community\VC\Tools\MSVC\14.29.30133\atlmfc\include\afxtempl.h
; File D:\git\src\IBK\IBK_DRFN\ProjSrc\SrcChartEx\ChartAddIn\ChartPatternAddIn\DlgAnalysis.cpp
;	COMDAT ?SetFoundWavePtnToGrid_RptType1@CDlgAnalysis@@QAEXPAVCObject@@PAN11H@Z
_TEXT	SEGMENT
$T2 = -340						; size = 8
$T3 = -336						; size = 4
$T4 = -332						; size = 4
$T5 = -328						; size = 4
$T6 = -324						; size = 4
$T7 = -320						; size = 4
$T8 = -316						; size = 4
$T9 = -312						; size = 4
$T10 = -308						; size = 4
$T11 = -304						; size = 4
$T12 = -300						; size = 4
$T13 = -296						; size = 4
$T14 = -292						; size = 4
$T15 = -288						; size = 4
$T16 = -284						; size = 4
$T17 = -280						; size = 4
$T18 = -276						; size = 4
$T19 = -272						; size = 4
$T20 = -268						; size = 4
$T21 = -264						; size = 4
$T22 = -260						; size = 4
$T23 = -256						; size = 4
$T24 = -252						; size = 4
$T25 = -248						; size = 4
$T26 = -244						; size = 4
$T27 = -240						; size = 4
$T28 = -236						; size = 4
$T29 = -232						; size = 4
tv3544 = -228						; size = 4
$T30 = -224						; size = 4
_wpWavePattern$ = -220					; size = 8
_dExpUpDownPer$1$ = -212				; size = 8
$T31 = -208						; size = 4
$T32 = -204						; size = 4
_nDataCnt$1$ = -200					; size = 4
$T33 = -196						; size = 4
$T34 = -192						; size = 4
$T35 = -188						; size = 4
$T36 = -184						; size = 4
$T37 = -180						; size = 4
$T38 = -176						; size = 4
$T39 = -172						; size = 4
$T40 = -168						; size = 4
$T41 = -164						; size = 4
$T42 = -160						; size = 4
$T43 = -156						; size = 4
$T44 = -152						; size = 4
$T45 = -148						; size = 4
$T46 = -144						; size = 4
$T47 = -140						; size = 4
$T48 = -136						; size = 4
$T49 = -132						; size = 4
$T50 = -128						; size = 4
$T51 = -124						; size = 4
$T52 = -120						; size = 4
$T53 = -116						; size = 4
$T54 = -112						; size = 4
$T55 = -108						; size = 4
$T56 = -104						; size = 4
$T57 = -100						; size = 4
$T58 = -96						; size = 4
$T59 = -92						; size = 4
$T60 = -88						; size = 4
$T61 = -84						; size = 4
$T62 = -80						; size = 4
$T63 = -76						; size = 4
$T64 = -72						; size = 4
$T65 = -68						; size = 4
$T66 = -64						; size = 4
$T67 = -60						; size = 4
$T68 = -56						; size = 4
_clrBG$ = -52						; size = 4
_pWavePatternData$1$ = -48				; size = 4
tv3545 = -44						; size = 4
$T69 = -40						; size = 4
$T70 = -40						; size = 4
$T71 = -40						; size = 4
_this$1$ = -36						; size = 4
$T72 = -32						; size = 4
$T73 = -32						; size = 4
$T74 = -32						; size = 4
$T75 = -32						; size = 4
$T76 = -32						; size = 4
$T77 = -32						; size = 4
_strText$ = -28						; size = 4
$T78 = -24						; size = 4
_strTime$ = -20						; size = 4
$T79 = -16						; size = 4
__$EHRec$ = -12						; size = 12
_pObjWavePatternData$ = 8				; size = 4
_p_dTime$ = 12						; size = 4
_p_dHigh$ = 16						; size = 4
_p_dLow$ = 20						; size = 4
_nTotalDataCnt$ = 24					; size = 4
?SetFoundWavePtnToGrid_RptType1@CDlgAnalysis@@QAEXPAVCObject@@PAN11H@Z PROC ; CDlgAnalysis::SetFoundWavePtnToGrid_RptType1, COMDAT
; _this$ = ecx

; 353  : {

  00000	55		 push	 ebp
  00001	8b ec		 mov	 ebp, esp
  00003	6a ff		 push	 -1
  00005	68 00 00 00 00	 push	 __ehhandler$?SetFoundWavePtnToGrid_RptType1@CDlgAnalysis@@QAEXPAVCObject@@PAN11H@Z
  0000a	64 a1 00 00 00
	00		 mov	 eax, DWORD PTR fs:0
  00010	50		 push	 eax
  00011	81 ec 48 01 00
	00		 sub	 esp, 328		; 00000148H
  00017	56		 push	 esi
  00018	57		 push	 edi
  00019	a1 00 00 00 00	 mov	 eax, DWORD PTR ___security_cookie
  0001e	33 c5		 xor	 eax, ebp
  00020	50		 push	 eax
  00021	8d 45 f4	 lea	 eax, DWORD PTR __$EHRec$[ebp]
  00024	64 a3 00 00 00
	00		 mov	 DWORD PTR fs:0, eax
  0002a	8b f1		 mov	 esi, ecx
  0002c	89 75 dc	 mov	 DWORD PTR _this$1$[ebp], esi
  0002f	33 c0		 xor	 eax, eax
  00031	89 45 f0	 mov	 DWORD PTR $T79[ebp], eax
  00034	89 45 d8	 mov	 DWORD PTR $T71[ebp], eax
  00037	89 45 e8	 mov	 DWORD PTR $T78[ebp], eax
  0003a	89 85 20 ff ff
	ff		 mov	 DWORD PTR $T30[ebp], eax

; 354  : 	if ( !m_pGridWaveRptType1)	return;

  00040	39 86 b0 00 00
	00		 cmp	 DWORD PTR [esi+176], eax
  00046	0f 84 c0 13 00
	00		 je	 $LN1@SetFoundWa

; 355  : 
; 356  : 
; 357  : 	CString strText, strTime;

  0004c	8d 4d e4	 lea	 ecx, DWORD PTR _strText$[ebp]
  0004f	ff 15 00 00 00
	00		 call	 DWORD PTR __imp_??0?$CStringT@DV?$StrTraitMFC_DLL@DV?$ChTraitsCRT@D@ATL@@@@@ATL@@QAE@XZ
  00055	8d 4d ec	 lea	 ecx, DWORD PTR _strTime$[ebp]
  00058	c7 45 fc 00 00
	00 00		 mov	 DWORD PTR __$EHRec$[ebp+8], 0
  0005f	ff 15 00 00 00
	00		 call	 DWORD PTR __imp_??0?$CStringT@DV?$StrTraitMFC_DLL@DV?$ChTraitsCRT@D@ATL@@@@@ATL@@QAE@XZ

; 358  : 	int		nDataCnt, nRow, nPatternTrend;
; 359  : 	double	dExpUpDownPer, dTemp, dActUpDownPer;
; 360  : 	COLORREF clrBG;
; 361  : 
; 362  : 	CArrayObjPt(CWavePatternData) paryWavePatternData = NULL;
; 363  : 	paryWavePatternData = (CArrayObjPt(CWavePatternData))pObjWavePatternData;
; 364  : 
; 365  : 	CWavePattern wpWavePattern;

  00065	8d 8d 24 ff ff
	ff		 lea	 ecx, DWORD PTR _wpWavePattern$[ebp]
  0006b	c6 45 fc 01	 mov	 BYTE PTR __$EHRec$[ebp+8], 1
  0006f	e8 00 00 00 00	 call	 ??0CWavePattern@@QAE@XZ	; CWavePattern::CWavePattern

; 366  : 	CWavePatternData* pWavePatternData = NULL;
; 367  : 
; 368  : 	nDataCnt = paryWavePatternData->GetSize();

  00074	8b 45 08	 mov	 eax, DWORD PTR _pObjWavePatternData$[ebp]

; 369  : 	InsertGridRow( m_pGridWaveRptType1, nDataCnt);

  00077	8b ce		 mov	 ecx, esi
  00079	c6 45 fc 02	 mov	 BYTE PTR __$EHRec$[ebp+8], 2
  0007d	8b 78 08	 mov	 edi, DWORD PTR [eax+8]
  00080	57		 push	 edi
  00081	ff b6 b0 00 00
	00		 push	 DWORD PTR [esi+176]
  00087	89 bd 38 ff ff
	ff		 mov	 DWORD PTR _nDataCnt$1$[ebp], edi
  0008d	e8 00 00 00 00	 call	 ?InsertGridRow@CDlgAnalysis@@QAEXPAVCGridCtrl@@H@Z ; CDlgAnalysis::InsertGridRow

; 370  : 
; 371  : 	for ( int i = 0; i < nDataCnt; i++)

  00092	85 ff		 test	 edi, edi
  00094	0f 8e 4a 13 00
	00		 jle	 $LN3@SetFoundWa

; 355  : 
; 356  : 
; 357  : 	CString strText, strTime;

  0009a	8b 8d 38 ff ff
	ff		 mov	 ecx, DWORD PTR _nDataCnt$1$[ebp]
  000a0	bf 02 00 00 00	 mov	 edi, 2
  000a5	8b 95 38 ff ff
	ff		 mov	 edx, DWORD PTR _nDataCnt$1$[ebp]
  000ab	49		 dec	 ecx
  000ac	89 7d d4	 mov	 DWORD PTR tv3545[ebp], edi
  000af	89 8d 1c ff ff
	ff		 mov	 DWORD PTR tv3544[ebp], ecx
$LL4@SetFoundWa:
; File C:\Program Files (x86)\Microsoft Visual Studio\2019\Community\VC\Tools\MSVC\14.29.30133\atlmfc\include\afxtempl.h

; 288  : 	if(nIndex >= 0 && nIndex < m_nSize)

  000b5	85 c9		 test	 ecx, ecx
  000b7	0f 88 62 13 00
	00		 js	 $LN100@SetFoundWa
  000bd	8b 45 08	 mov	 eax, DWORD PTR _pObjWavePatternData$[ebp]
  000c0	3b 48 08	 cmp	 ecx, DWORD PTR [eax+8]
  000c3	0f 8d 56 13 00
	00		 jge	 $LN100@SetFoundWa

; 289  : 		return m_pData[nIndex];

  000c9	8b 40 04	 mov	 eax, DWORD PTR [eax+4]
; File D:\git\src\IBK\IBK_DRFN\ProjSrc\SrcChartEx\ChartAddIn\ChartPatternAddIn\DlgAnalysis.cpp

; 375  : 		pWavePatternData = paryWavePatternData->GetAt(nDataCnt-1-i);

  000cc	8b 34 88	 mov	 esi, DWORD PTR [eax+ecx*4]
  000cf	89 75 d0	 mov	 DWORD PTR _pWavePatternData$1$[ebp], esi

; 376  : 
; 377  : 		if ( pWavePatternData)

  000d2	85 f6		 test	 esi, esi
  000d4	0f 84 f1 12 00
	00		 je	 $LN670@SetFoundWa

; 378  : 		{
; 379  : 			// Number
; 380  : 			strText.Format("%d", i+1);

  000da	8d 47 ff	 lea	 eax, DWORD PTR [edi-1]
  000dd	50		 push	 eax
  000de	8d 45 e4	 lea	 eax, DWORD PTR _strText$[ebp]
  000e1	68 00 00 00 00	 push	 OFFSET ??_C@_02DPKJAMEF@?$CFd@
  000e6	50		 push	 eax
  000e7	ff 15 00 00 00
	00		 call	 DWORD PTR __imp_?Format@?$CStringT@DV?$StrTraitMFC_DLL@DV?$ChTraitsCRT@D@ATL@@@@@ATL@@QAAXPBDZZ

; 381  : 			m_pGridWaveRptType1->SetItemText( nRow, COL_WAV1_NUM,		strText);

  000ed	8b 4d dc	 mov	 ecx, DWORD PTR _this$1$[ebp]
  000f0	83 c4 0c	 add	 esp, 12			; 0000000cH
  000f3	ff 75 e4	 push	 DWORD PTR _strText$[ebp]
  000f6	8b 89 b0 00 00
	00		 mov	 ecx, DWORD PTR [ecx+176]
  000fc	6a 00		 push	 0
  000fe	57		 push	 edi
  000ff	e8 00 00 00 00	 call	 ?SetItemText@CGridCtrl@@QAEHHHPBD@Z ; CGridCtrl::SetItemText

; 384  : 			strTime.Format("%.f", p_dTime[pWavePatternData->m_nEndSeq] );		// TEMPORARY - SeoJeong - 2005/05/23

  00104	8b 46 10	 mov	 eax, DWORD PTR [esi+16]
  00107	83 ec 08	 sub	 esp, 8
  0010a	8b 4d 0c	 mov	 ecx, DWORD PTR _p_dTime$[ebp]
  0010d	f2 0f 10 04 c1	 movsd	 xmm0, QWORD PTR [ecx+eax*8]
  00112	8d 45 ec	 lea	 eax, DWORD PTR _strTime$[ebp]
  00115	f2 0f 11 04 24	 movsd	 QWORD PTR [esp], xmm0
  0011a	68 00 00 00 00	 push	 OFFSET ??_C@_03EICDNICE@?$CF?4f@
  0011f	50		 push	 eax
  00120	ff 15 00 00 00
	00		 call	 DWORD PTR __imp_?Format@?$CStringT@DV?$StrTraitMFC_DLL@DV?$ChTraitsCRT@D@ATL@@@@@ATL@@QAAXPBDZZ
; File C:\Program Files (x86)\Microsoft Visual Studio\2019\Community\VC\Tools\MSVC\14.29.30133\atlmfc\include\atlsimpstr.h

; 519  : 		return( GetData()->nDataLength );

  00126	8b 45 ec	 mov	 eax, DWORD PTR _strTime$[ebp]
; File D:\git\src\IBK\IBK_DRFN\ProjSrc\SrcChartEx\ChartAddIn\ChartPatternAddIn\DlgAnalysis.cpp

; 384  : 			strTime.Format("%.f", p_dTime[pWavePatternData->m_nEndSeq] );		// TEMPORARY - SeoJeong - 2005/05/23

  00129	83 c4 10	 add	 esp, 16			; 00000010H
; File C:\Program Files (x86)\Microsoft Visual Studio\2019\Community\VC\Tools\MSVC\14.29.30133\atlmfc\include\atlsimpstr.h

; 519  : 		return( GetData()->nDataLength );

  0012c	8b 40 f4	 mov	 eax, DWORD PTR [eax-12]
; File D:\git\src\IBK\IBK_DRFN\ProjSrc\SrcChartEx\ChartAddIn\ChartPatternAddIn\DlgAnalysis.cpp

; 385  : 			if(strTime.GetLength() == 8)

  0012f	83 f8 08	 cmp	 eax, 8
  00132	0f 85 25 04 00
	00		 jne	 $LN7@SetFoundWa

; 386  : 			{
; 387  : 				// /
; 388  : 				if(strTime.GetAt(0) == '1' && ((strTime.GetAt(1) - '1') < 3))

  00138	6a 00		 push	 0
  0013a	8d 4d ec	 lea	 ecx, DWORD PTR _strTime$[ebp]
  0013d	ff 15 00 00 00
	00		 call	 DWORD PTR __imp_?GetAt@?$CSimpleStringT@D$00@ATL@@QBEDH@Z
  00143	3c 31		 cmp	 al, 49			; 00000031H
  00145	0f 85 62 02 00
	00		 jne	 $LN9@SetFoundWa
  0014b	6a 01		 push	 1
  0014d	8d 4d ec	 lea	 ecx, DWORD PTR _strTime$[ebp]
  00150	ff 15 00 00 00
	00		 call	 DWORD PTR __imp_?GetAt@?$CSimpleStringT@D$00@ATL@@QBEDH@Z
  00156	3c 34		 cmp	 al, 52			; 00000034H
  00158	0f 8d 4f 02 00
	00		 jge	 $LN9@SetFoundWa

; 389  : 					strText = strTime.Left(2) + "/" + strTime.Mid(2, 2) + "/" + strTime.Mid(4, 2) + ":" + strTime.Mid(6);

  0015e	6a 06		 push	 6
  00160	8d 85 0c ff ff
	ff		 lea	 eax, DWORD PTR $T26[ebp]
  00166	50		 push	 eax
  00167	8d 4d ec	 lea	 ecx, DWORD PTR _strTime$[ebp]
  0016a	ff 15 00 00 00
	00		 call	 DWORD PTR __imp_?Mid@?$CStringT@DV?$StrTraitMFC_DLL@DV?$ChTraitsCRT@D@ATL@@@@@ATL@@QBE?AV12@H@Z
  00170	89 45 e0	 mov	 DWORD PTR $T77[ebp], eax
  00173	6a 02		 push	 2
  00175	6a 04		 push	 4
  00177	8d 85 10 ff ff
	ff		 lea	 eax, DWORD PTR $T27[ebp]
  0017d	c6 45 fc 03	 mov	 BYTE PTR __$EHRec$[ebp+8], 3
  00181	50		 push	 eax
  00182	8d 4d ec	 lea	 ecx, DWORD PTR _strTime$[ebp]
  00185	ff 15 00 00 00
	00		 call	 DWORD PTR __imp_?Mid@?$CStringT@DV?$StrTraitMFC_DLL@DV?$ChTraitsCRT@D@ATL@@@@@ATL@@QBE?AV12@HH@Z
  0018b	89 45 d8	 mov	 DWORD PTR $T70[ebp], eax
  0018e	6a 02		 push	 2
  00190	6a 02		 push	 2
  00192	8d 85 14 ff ff
	ff		 lea	 eax, DWORD PTR $T28[ebp]
  00198	c6 45 fc 04	 mov	 BYTE PTR __$EHRec$[ebp+8], 4
  0019c	50		 push	 eax
  0019d	8d 4d ec	 lea	 ecx, DWORD PTR _strTime$[ebp]
  001a0	ff 15 00 00 00
	00		 call	 DWORD PTR __imp_?Mid@?$CStringT@DV?$StrTraitMFC_DLL@DV?$ChTraitsCRT@D@ATL@@@@@ATL@@QBE?AV12@HH@Z
  001a6	8b f8		 mov	 edi, eax
  001a8	6a 02		 push	 2
  001aa	8d 85 18 ff ff
	ff		 lea	 eax, DWORD PTR $T29[ebp]
  001b0	c6 45 fc 05	 mov	 BYTE PTR __$EHRec$[ebp+8], 5
  001b4	50		 push	 eax
  001b5	8d 4d ec	 lea	 ecx, DWORD PTR _strTime$[ebp]
  001b8	ff 15 00 00 00
	00		 call	 DWORD PTR __imp_?Left@?$CStringT@DV?$StrTraitMFC_DLL@DV?$ChTraitsCRT@D@ATL@@@@@ATL@@QBE?AV12@H@Z
  001be	8b f0		 mov	 esi, eax
; File C:\Program Files (x86)\Microsoft Visual Studio\2019\Community\VC\Tools\MSVC\14.29.30133\atlmfc\include\cstringt.h

; 2401 : 		CStringT strResult( str1.GetManager() );

  001c0	8b ce		 mov	 ecx, esi
; File D:\git\src\IBK\IBK_DRFN\ProjSrc\SrcChartEx\ChartAddIn\ChartPatternAddIn\DlgAnalysis.cpp

; 389  : 					strText = strTime.Left(2) + "/" + strTime.Mid(2, 2) + "/" + strTime.Mid(4, 2) + ":" + strTime.Mid(6);

  001c2	c6 45 fc 07	 mov	 BYTE PTR __$EHRec$[ebp+8], 7
; File C:\Program Files (x86)\Microsoft Visual Studio\2019\Community\VC\Tools\MSVC\14.29.30133\atlmfc\include\cstringt.h

; 2401 : 		CStringT strResult( str1.GetManager() );

  001c6	ff 15 00 00 00
	00		 call	 DWORD PTR __imp_?GetManager@?$CStringT@DV?$StrTraitMFC_DLL@DV?$ChTraitsCRT@D@ATL@@@@@ATL@@QBEPAUIAtlStringMgr@2@XZ
  001cc	50		 push	 eax
  001cd	8d 4d b8	 lea	 ecx, DWORD PTR $T64[ebp]
  001d0	ff 15 00 00 00
	00		 call	 DWORD PTR __imp_??0?$CStringT@DV?$StrTraitMFC_DLL@DV?$ChTraitsCRT@D@ATL@@@@@ATL@@QAE@PAUIAtlStringMgr@1@@Z

; 2405 : 		return( strResult );

  001d6	8b 45 e8	 mov	 eax, DWORD PTR $T78[ebp]
  001d9	83 c8 01	 or	 eax, 1
  001dc	89 45 e8	 mov	 DWORD PTR $T78[ebp], eax
  001df	89 45 f0	 mov	 DWORD PTR $T79[ebp], eax
; File C:\Program Files (x86)\Microsoft Visual Studio\2019\Community\VC\Tools\MSVC\14.29.30133\atlmfc\include\atlsimpstr.h

; 519  : 		return( GetData()->nDataLength );

  001e2	8b 06		 mov	 eax, DWORD PTR [esi]
; File C:\Program Files (x86)\Microsoft Visual Studio\2019\Community\VC\Tools\MSVC\14.29.30133\atlmfc\include\cstringt.h

; 2403 : 		CThisSimpleString::Concatenate( strResult, str1, str1.GetLength(), psz2, CThisSimpleString::StringLength( psz2 ) );

  001e4	6a 01		 push	 1
  001e6	68 00 00 00 00	 push	 OFFSET ??_C@_01KMDKNFGN@?1@
  001eb	ff 70 f4	 push	 DWORD PTR [eax-12]
  001ee	50		 push	 eax
  001ef	8d 45 b8	 lea	 eax, DWORD PTR $T64[ebp]
  001f2	50		 push	 eax
  001f3	ff 15 00 00 00
	00		 call	 DWORD PTR __imp_?Concatenate@?$CSimpleStringT@D$00@ATL@@KAXAAV12@PBDH1H@Z
  001f9	83 c4 14	 add	 esp, 20			; 00000014H

; 2390 : 		CStringT strResult( str1.GetManager() );

  001fc	8d 4d b8	 lea	 ecx, DWORD PTR $T64[ebp]
; File D:\git\src\IBK\IBK_DRFN\ProjSrc\SrcChartEx\ChartAddIn\ChartPatternAddIn\DlgAnalysis.cpp

; 389  : 					strText = strTime.Left(2) + "/" + strTime.Mid(2, 2) + "/" + strTime.Mid(4, 2) + ":" + strTime.Mid(6);

  001ff	c6 45 fc 08	 mov	 BYTE PTR __$EHRec$[ebp+8], 8
; File C:\Program Files (x86)\Microsoft Visual Studio\2019\Community\VC\Tools\MSVC\14.29.30133\atlmfc\include\cstringt.h

; 2390 : 		CStringT strResult( str1.GetManager() );

  00203	ff 15 00 00 00
	00		 call	 DWORD PTR __imp_?GetManager@?$CStringT@DV?$StrTraitMFC_DLL@DV?$ChTraitsCRT@D@ATL@@@@@ATL@@QBEPAUIAtlStringMgr@2@XZ
  00209	50		 push	 eax
  0020a	8d 4d bc	 lea	 ecx, DWORD PTR $T65[ebp]
  0020d	ff 15 00 00 00
	00		 call	 DWORD PTR __imp_??0?$CStringT@DV?$StrTraitMFC_DLL@DV?$ChTraitsCRT@D@ATL@@@@@ATL@@QAE@PAUIAtlStringMgr@1@@Z
; File C:\Program Files (x86)\Microsoft Visual Studio\2019\Community\VC\Tools\MSVC\14.29.30133\atlmfc\include\atlsimpstr.h

; 519  : 		return( GetData()->nDataLength );

  00213	8b 0f		 mov	 ecx, DWORD PTR [edi]
  00215	8b 45 b8	 mov	 eax, DWORD PTR $T64[ebp]
; File C:\Program Files (x86)\Microsoft Visual Studio\2019\Community\VC\Tools\MSVC\14.29.30133\atlmfc\include\cstringt.h

; 2394 : 		return( strResult );

  00218	8b 75 e8	 mov	 esi, DWORD PTR $T78[ebp]
  0021b	83 ce 02	 or	 esi, 2
  0021e	ff 71 f4	 push	 DWORD PTR [ecx-12]
  00221	89 75 f0	 mov	 DWORD PTR $T79[ebp], esi
  00224	51		 push	 ecx
  00225	ff 70 f4	 push	 DWORD PTR [eax-12]
  00228	50		 push	 eax
  00229	8d 45 bc	 lea	 eax, DWORD PTR $T65[ebp]
  0022c	50		 push	 eax
  0022d	ff 15 00 00 00
	00		 call	 DWORD PTR __imp_?Concatenate@?$CSimpleStringT@D$00@ATL@@KAXAAV12@PBDH1H@Z
  00233	83 c4 14	 add	 esp, 20			; 00000014H

; 2401 : 		CStringT strResult( str1.GetManager() );

  00236	8d 4d bc	 lea	 ecx, DWORD PTR $T65[ebp]
; File D:\git\src\IBK\IBK_DRFN\ProjSrc\SrcChartEx\ChartAddIn\ChartPatternAddIn\DlgAnalysis.cpp

; 389  : 					strText = strTime.Left(2) + "/" + strTime.Mid(2, 2) + "/" + strTime.Mid(4, 2) + ":" + strTime.Mid(6);

  00239	c6 45 fc 09	 mov	 BYTE PTR __$EHRec$[ebp+8], 9
; File C:\Program Files (x86)\Microsoft Visual Studio\2019\Community\VC\Tools\MSVC\14.29.30133\atlmfc\include\cstringt.h

; 2401 : 		CStringT strResult( str1.GetManager() );

  0023d	ff 15 00 00 00
	00		 call	 DWORD PTR __imp_?GetManager@?$CStringT@DV?$StrTraitMFC_DLL@DV?$ChTraitsCRT@D@ATL@@@@@ATL@@QBEPAUIAtlStringMgr@2@XZ
  00243	50		 push	 eax
  00244	8d 4d c0	 lea	 ecx, DWORD PTR $T66[ebp]
  00247	ff 15 00 00 00
	00		 call	 DWORD PTR __imp_??0?$CStringT@DV?$StrTraitMFC_DLL@DV?$ChTraitsCRT@D@ATL@@@@@ATL@@QAE@PAUIAtlStringMgr@1@@Z

; 2405 : 		return( strResult );

  0024d	83 ce 04	 or	 esi, 4
; File C:\Program Files (x86)\Microsoft Visual Studio\2019\Community\VC\Tools\MSVC\14.29.30133\atlmfc\include\atlsimpstr.h

; 519  : 		return( GetData()->nDataLength );

  00250	8b 45 bc	 mov	 eax, DWORD PTR $T65[ebp]
; File C:\Program Files (x86)\Microsoft Visual Studio\2019\Community\VC\Tools\MSVC\14.29.30133\atlmfc\include\cstringt.h

; 2403 : 		CThisSimpleString::Concatenate( strResult, str1, str1.GetLength(), psz2, CThisSimpleString::StringLength( psz2 ) );

  00253	6a 01		 push	 1
  00255	68 00 00 00 00	 push	 OFFSET ??_C@_01KMDKNFGN@?1@

; 2405 : 		return( strResult );

  0025a	89 75 f0	 mov	 DWORD PTR $T79[ebp], esi
  0025d	ff 70 f4	 push	 DWORD PTR [eax-12]
  00260	50		 push	 eax
  00261	8d 45 c0	 lea	 eax, DWORD PTR $T66[ebp]
  00264	50		 push	 eax
  00265	ff 15 00 00 00
	00		 call	 DWORD PTR __imp_?Concatenate@?$CSimpleStringT@D$00@ATL@@KAXAAV12@PBDH1H@Z
  0026b	83 c4 14	 add	 esp, 20			; 00000014H

; 2390 : 		CStringT strResult( str1.GetManager() );

  0026e	8d 4d c0	 lea	 ecx, DWORD PTR $T66[ebp]
; File D:\git\src\IBK\IBK_DRFN\ProjSrc\SrcChartEx\ChartAddIn\ChartPatternAddIn\DlgAnalysis.cpp

; 389  : 					strText = strTime.Left(2) + "/" + strTime.Mid(2, 2) + "/" + strTime.Mid(4, 2) + ":" + strTime.Mid(6);

  00271	c6 45 fc 0a	 mov	 BYTE PTR __$EHRec$[ebp+8], 10 ; 0000000aH
; File C:\Program Files (x86)\Microsoft Visual Studio\2019\Community\VC\Tools\MSVC\14.29.30133\atlmfc\include\cstringt.h

; 2390 : 		CStringT strResult( str1.GetManager() );

  00275	ff 15 00 00 00
	00		 call	 DWORD PTR __imp_?GetManager@?$CStringT@DV?$StrTraitMFC_DLL@DV?$ChTraitsCRT@D@ATL@@@@@ATL@@QBEPAUIAtlStringMgr@2@XZ
  0027b	50		 push	 eax
  0027c	8d 4d c4	 lea	 ecx, DWORD PTR $T67[ebp]
  0027f	ff 15 00 00 00
	00		 call	 DWORD PTR __imp_??0?$CStringT@DV?$StrTraitMFC_DLL@DV?$ChTraitsCRT@D@ATL@@@@@ATL@@QAE@PAUIAtlStringMgr@1@@Z
; File C:\Program Files (x86)\Microsoft Visual Studio\2019\Community\VC\Tools\MSVC\14.29.30133\atlmfc\include\atlsimpstr.h

; 519  : 		return( GetData()->nDataLength );

  00285	8b 4d d8	 mov	 ecx, DWORD PTR $T70[ebp]
; File C:\Program Files (x86)\Microsoft Visual Studio\2019\Community\VC\Tools\MSVC\14.29.30133\atlmfc\include\cstringt.h

; 2394 : 		return( strResult );

  00288	83 ce 08	 or	 esi, 8
; File C:\Program Files (x86)\Microsoft Visual Studio\2019\Community\VC\Tools\MSVC\14.29.30133\atlmfc\include\atlsimpstr.h

; 519  : 		return( GetData()->nDataLength );

  0028b	8b 45 c0	 mov	 eax, DWORD PTR $T66[ebp]
; File C:\Program Files (x86)\Microsoft Visual Studio\2019\Community\VC\Tools\MSVC\14.29.30133\atlmfc\include\cstringt.h

; 2394 : 		return( strResult );

  0028e	89 75 f0	 mov	 DWORD PTR $T79[ebp], esi
; File C:\Program Files (x86)\Microsoft Visual Studio\2019\Community\VC\Tools\MSVC\14.29.30133\atlmfc\include\atlsimpstr.h

; 519  : 		return( GetData()->nDataLength );

  00291	8b 09		 mov	 ecx, DWORD PTR [ecx]
; File C:\Program Files (x86)\Microsoft Visual Studio\2019\Community\VC\Tools\MSVC\14.29.30133\atlmfc\include\cstringt.h

; 2392 : 		CThisSimpleString::Concatenate( strResult, str1, str1.GetLength(), str2, str2.GetLength() );

  00293	ff 71 f4	 push	 DWORD PTR [ecx-12]
  00296	51		 push	 ecx
  00297	ff 70 f4	 push	 DWORD PTR [eax-12]
  0029a	50		 push	 eax
  0029b	8d 45 c4	 lea	 eax, DWORD PTR $T67[ebp]
  0029e	50		 push	 eax
  0029f	ff 15 00 00 00
	00		 call	 DWORD PTR __imp_?Concatenate@?$CSimpleStringT@D$00@ATL@@KAXAAV12@PBDH1H@Z
  002a5	83 c4 14	 add	 esp, 20			; 00000014H

; 2401 : 		CStringT strResult( str1.GetManager() );

  002a8	8d 4d c4	 lea	 ecx, DWORD PTR $T67[ebp]
; File D:\git\src\IBK\IBK_DRFN\ProjSrc\SrcChartEx\ChartAddIn\ChartPatternAddIn\DlgAnalysis.cpp

; 389  : 					strText = strTime.Left(2) + "/" + strTime.Mid(2, 2) + "/" + strTime.Mid(4, 2) + ":" + strTime.Mid(6);

  002ab	c6 45 fc 0b	 mov	 BYTE PTR __$EHRec$[ebp+8], 11 ; 0000000bH
; File C:\Program Files (x86)\Microsoft Visual Studio\2019\Community\VC\Tools\MSVC\14.29.30133\atlmfc\include\cstringt.h

; 2401 : 		CStringT strResult( str1.GetManager() );

  002af	ff 15 00 00 00
	00		 call	 DWORD PTR __imp_?GetManager@?$CStringT@DV?$StrTraitMFC_DLL@DV?$ChTraitsCRT@D@ATL@@@@@ATL@@QBEPAUIAtlStringMgr@2@XZ
  002b5	50		 push	 eax
  002b6	8d 4d c8	 lea	 ecx, DWORD PTR $T68[ebp]
  002b9	ff 15 00 00 00
	00		 call	 DWORD PTR __imp_??0?$CStringT@DV?$StrTraitMFC_DLL@DV?$ChTraitsCRT@D@ATL@@@@@ATL@@QAE@PAUIAtlStringMgr@1@@Z
; File C:\Program Files (x86)\Microsoft Visual Studio\2019\Community\VC\Tools\MSVC\14.29.30133\atlmfc\include\atlsimpstr.h

; 519  : 		return( GetData()->nDataLength );

  002bf	8b 45 c4	 mov	 eax, DWORD PTR $T67[ebp]
; File C:\Program Files (x86)\Microsoft Visual Studio\2019\Community\VC\Tools\MSVC\14.29.30133\atlmfc\include\cstringt.h

; 2405 : 		return( strResult );

  002c2	83 ce 10	 or	 esi, 16			; 00000010H
  002c5	6a 01		 push	 1
  002c7	68 00 00 00 00	 push	 OFFSET ??_C@_01JLIPDDHJ@?3@
  002cc	89 75 f0	 mov	 DWORD PTR $T79[ebp], esi
  002cf	ff 70 f4	 push	 DWORD PTR [eax-12]
  002d2	50		 push	 eax
  002d3	8d 45 c8	 lea	 eax, DWORD PTR $T68[ebp]
  002d6	50		 push	 eax
  002d7	ff 15 00 00 00
	00		 call	 DWORD PTR __imp_?Concatenate@?$CSimpleStringT@D$00@ATL@@KAXAAV12@PBDH1H@Z
  002dd	83 c4 14	 add	 esp, 20			; 00000014H

; 2390 : 		CStringT strResult( str1.GetManager() );

  002e0	8d 4d c8	 lea	 ecx, DWORD PTR $T68[ebp]
; File D:\git\src\IBK\IBK_DRFN\ProjSrc\SrcChartEx\ChartAddIn\ChartPatternAddIn\DlgAnalysis.cpp

; 389  : 					strText = strTime.Left(2) + "/" + strTime.Mid(2, 2) + "/" + strTime.Mid(4, 2) + ":" + strTime.Mid(6);

  002e3	c6 45 fc 0c	 mov	 BYTE PTR __$EHRec$[ebp+8], 12 ; 0000000cH
; File C:\Program Files (x86)\Microsoft Visual Studio\2019\Community\VC\Tools\MSVC\14.29.30133\atlmfc\include\cstringt.h

; 2390 : 		CStringT strResult( str1.GetManager() );

  002e7	ff 15 00 00 00
	00		 call	 DWORD PTR __imp_?GetManager@?$CStringT@DV?$StrTraitMFC_DLL@DV?$ChTraitsCRT@D@ATL@@@@@ATL@@QBEPAUIAtlStringMgr@2@XZ
  002ed	50		 push	 eax
  002ee	8d 8d 34 ff ff
	ff		 lea	 ecx, DWORD PTR $T32[ebp]
  002f4	ff 15 00 00 00
	00		 call	 DWORD PTR __imp_??0?$CStringT@DV?$StrTraitMFC_DLL@DV?$ChTraitsCRT@D@ATL@@@@@ATL@@QAE@PAUIAtlStringMgr@1@@Z
; File C:\Program Files (x86)\Microsoft Visual Studio\2019\Community\VC\Tools\MSVC\14.29.30133\atlmfc\include\atlsimpstr.h

; 519  : 		return( GetData()->nDataLength );

  002fa	8b 4d e0	 mov	 ecx, DWORD PTR $T77[ebp]
; File C:\Program Files (x86)\Microsoft Visual Studio\2019\Community\VC\Tools\MSVC\14.29.30133\atlmfc\include\cstringt.h

; 2394 : 		return( strResult );

  002fd	83 ce 20	 or	 esi, 32			; 00000020H
; File C:\Program Files (x86)\Microsoft Visual Studio\2019\Community\VC\Tools\MSVC\14.29.30133\atlmfc\include\atlsimpstr.h

; 519  : 		return( GetData()->nDataLength );

  00300	8b 45 c8	 mov	 eax, DWORD PTR $T68[ebp]
; File C:\Program Files (x86)\Microsoft Visual Studio\2019\Community\VC\Tools\MSVC\14.29.30133\atlmfc\include\cstringt.h

; 2394 : 		return( strResult );

  00303	89 75 f0	 mov	 DWORD PTR $T79[ebp], esi
; File C:\Program Files (x86)\Microsoft Visual Studio\2019\Community\VC\Tools\MSVC\14.29.30133\atlmfc\include\atlsimpstr.h

; 519  : 		return( GetData()->nDataLength );

  00306	8b 09		 mov	 ecx, DWORD PTR [ecx]
; File C:\Program Files (x86)\Microsoft Visual Studio\2019\Community\VC\Tools\MSVC\14.29.30133\atlmfc\include\cstringt.h

; 2392 : 		CThisSimpleString::Concatenate( strResult, str1, str1.GetLength(), str2, str2.GetLength() );

  00308	ff 71 f4	 push	 DWORD PTR [ecx-12]
  0030b	51		 push	 ecx
  0030c	ff 70 f4	 push	 DWORD PTR [eax-12]
  0030f	50		 push	 eax
  00310	8d 85 34 ff ff
	ff		 lea	 eax, DWORD PTR $T32[ebp]
  00316	50		 push	 eax
  00317	ff 15 00 00 00
	00		 call	 DWORD PTR __imp_?Concatenate@?$CSimpleStringT@D$00@ATL@@KAXAAV12@PBDH1H@Z
  0031d	83 c4 14	 add	 esp, 20			; 00000014H
; File D:\git\src\IBK\IBK_DRFN\ProjSrc\SrcChartEx\ChartAddIn\ChartPatternAddIn\DlgAnalysis.cpp

; 389  : 					strText = strTime.Left(2) + "/" + strTime.Mid(2, 2) + "/" + strTime.Mid(4, 2) + ":" + strTime.Mid(6);

  00320	8d 85 34 ff ff
	ff		 lea	 eax, DWORD PTR $T32[ebp]
  00326	8d 4d e4	 lea	 ecx, DWORD PTR _strText$[ebp]
  00329	50		 push	 eax
  0032a	ff 15 00 00 00
	00		 call	 DWORD PTR __imp_??4?$CStringT@DV?$StrTraitMFC_DLL@DV?$ChTraitsCRT@D@ATL@@@@@ATL@@QAEAAV01@ABV01@@Z
  00330	8d 8d 34 ff ff
	ff		 lea	 ecx, DWORD PTR $T32[ebp]
  00336	83 e6 df	 and	 esi, -33		; ffffffdfH
  00339	ff 15 00 00 00
	00		 call	 DWORD PTR __imp_??1?$CStringT@DV?$StrTraitMFC_DLL@DV?$ChTraitsCRT@D@ATL@@@@@ATL@@QAE@XZ
  0033f	8d 4d c8	 lea	 ecx, DWORD PTR $T68[ebp]
  00342	83 e6 ef	 and	 esi, -17		; ffffffefH
  00345	ff 15 00 00 00
	00		 call	 DWORD PTR __imp_??1?$CStringT@DV?$StrTraitMFC_DLL@DV?$ChTraitsCRT@D@ATL@@@@@ATL@@QAE@XZ
  0034b	8d 4d c4	 lea	 ecx, DWORD PTR $T67[ebp]
  0034e	83 e6 f7	 and	 esi, -9			; fffffff7H
  00351	ff 15 00 00 00
	00		 call	 DWORD PTR __imp_??1?$CStringT@DV?$StrTraitMFC_DLL@DV?$ChTraitsCRT@D@ATL@@@@@ATL@@QAE@XZ
  00357	8d 4d c0	 lea	 ecx, DWORD PTR $T66[ebp]
  0035a	83 e6 fb	 and	 esi, -5			; fffffffbH
  0035d	ff 15 00 00 00
	00		 call	 DWORD PTR __imp_??1?$CStringT@DV?$StrTraitMFC_DLL@DV?$ChTraitsCRT@D@ATL@@@@@ATL@@QAE@XZ
  00363	8d 4d bc	 lea	 ecx, DWORD PTR $T65[ebp]
  00366	83 e6 fd	 and	 esi, -3			; fffffffdH
  00369	ff 15 00 00 00
	00		 call	 DWORD PTR __imp_??1?$CStringT@DV?$StrTraitMFC_DLL@DV?$ChTraitsCRT@D@ATL@@@@@ATL@@QAE@XZ
  0036f	83 e6 fe	 and	 esi, -2			; fffffffeH
  00372	8d 4d b8	 lea	 ecx, DWORD PTR $T64[ebp]
  00375	89 75 e8	 mov	 DWORD PTR $T78[ebp], esi
  00378	ff 15 00 00 00
	00		 call	 DWORD PTR __imp_??1?$CStringT@DV?$StrTraitMFC_DLL@DV?$ChTraitsCRT@D@ATL@@@@@ATL@@QAE@XZ
  0037e	8d 8d 18 ff ff
	ff		 lea	 ecx, DWORD PTR $T29[ebp]
  00384	ff 15 00 00 00
	00		 call	 DWORD PTR __imp_??1?$CStringT@DV?$StrTraitMFC_DLL@DV?$ChTraitsCRT@D@ATL@@@@@ATL@@QAE@XZ
  0038a	8d 8d 14 ff ff
	ff		 lea	 ecx, DWORD PTR $T28[ebp]
  00390	ff 15 00 00 00
	00		 call	 DWORD PTR __imp_??1?$CStringT@DV?$StrTraitMFC_DLL@DV?$ChTraitsCRT@D@ATL@@@@@ATL@@QAE@XZ
  00396	8d 8d 10 ff ff
	ff		 lea	 ecx, DWORD PTR $T27[ebp]
  0039c	ff 15 00 00 00
	00		 call	 DWORD PTR __imp_??1?$CStringT@DV?$StrTraitMFC_DLL@DV?$ChTraitsCRT@D@ATL@@@@@ATL@@QAE@XZ
  003a2	8d 8d 0c ff ff
	ff		 lea	 ecx, DWORD PTR $T26[ebp]
  003a8	e9 79 0d 00 00	 jmp	 $LN673@SetFoundWa
$LN9@SetFoundWa:

; 391  : 					strText = strTime.Left(4) + "-" + strTime.Mid(4, 2) + "-" + strTime.Mid(6);

  003ad	6a 06		 push	 6
  003af	8d 85 00 ff ff
	ff		 lea	 eax, DWORD PTR $T23[ebp]
  003b5	50		 push	 eax
  003b6	8d 4d ec	 lea	 ecx, DWORD PTR _strTime$[ebp]
  003b9	ff 15 00 00 00
	00		 call	 DWORD PTR __imp_?Mid@?$CStringT@DV?$StrTraitMFC_DLL@DV?$ChTraitsCRT@D@ATL@@@@@ATL@@QBE?AV12@H@Z
  003bf	89 45 e0	 mov	 DWORD PTR $T76[ebp], eax
  003c2	6a 02		 push	 2
  003c4	6a 04		 push	 4
  003c6	8d 85 04 ff ff
	ff		 lea	 eax, DWORD PTR $T24[ebp]
  003cc	c6 45 fc 0d	 mov	 BYTE PTR __$EHRec$[ebp+8], 13 ; 0000000dH
  003d0	50		 push	 eax
  003d1	8d 4d ec	 lea	 ecx, DWORD PTR _strTime$[ebp]
  003d4	ff 15 00 00 00
	00		 call	 DWORD PTR __imp_?Mid@?$CStringT@DV?$StrTraitMFC_DLL@DV?$ChTraitsCRT@D@ATL@@@@@ATL@@QBE?AV12@HH@Z
  003da	8b f8		 mov	 edi, eax
  003dc	6a 04		 push	 4
  003de	8d 85 08 ff ff
	ff		 lea	 eax, DWORD PTR $T25[ebp]
  003e4	c6 45 fc 0e	 mov	 BYTE PTR __$EHRec$[ebp+8], 14 ; 0000000eH
  003e8	50		 push	 eax
  003e9	8d 4d ec	 lea	 ecx, DWORD PTR _strTime$[ebp]
  003ec	ff 15 00 00 00
	00		 call	 DWORD PTR __imp_?Left@?$CStringT@DV?$StrTraitMFC_DLL@DV?$ChTraitsCRT@D@ATL@@@@@ATL@@QBE?AV12@H@Z
  003f2	8b f0		 mov	 esi, eax
; File C:\Program Files (x86)\Microsoft Visual Studio\2019\Community\VC\Tools\MSVC\14.29.30133\atlmfc\include\cstringt.h

; 2401 : 		CStringT strResult( str1.GetManager() );

  003f4	8b ce		 mov	 ecx, esi
; File D:\git\src\IBK\IBK_DRFN\ProjSrc\SrcChartEx\ChartAddIn\ChartPatternAddIn\DlgAnalysis.cpp

; 391  : 					strText = strTime.Left(4) + "-" + strTime.Mid(4, 2) + "-" + strTime.Mid(6);

  003f6	c6 45 fc 10	 mov	 BYTE PTR __$EHRec$[ebp+8], 16 ; 00000010H
; File C:\Program Files (x86)\Microsoft Visual Studio\2019\Community\VC\Tools\MSVC\14.29.30133\atlmfc\include\cstringt.h

; 2401 : 		CStringT strResult( str1.GetManager() );

  003fa	ff 15 00 00 00
	00		 call	 DWORD PTR __imp_?GetManager@?$CStringT@DV?$StrTraitMFC_DLL@DV?$ChTraitsCRT@D@ATL@@@@@ATL@@QBEPAUIAtlStringMgr@2@XZ
  00400	50		 push	 eax
  00401	8d 4d ac	 lea	 ecx, DWORD PTR $T61[ebp]
  00404	ff 15 00 00 00
	00		 call	 DWORD PTR __imp_??0?$CStringT@DV?$StrTraitMFC_DLL@DV?$ChTraitsCRT@D@ATL@@@@@ATL@@QAE@PAUIAtlStringMgr@1@@Z

; 2405 : 		return( strResult );

  0040a	8b 45 e8	 mov	 eax, DWORD PTR $T78[ebp]
  0040d	83 c8 40	 or	 eax, 64			; 00000040H
  00410	89 45 e8	 mov	 DWORD PTR $T78[ebp], eax
  00413	89 45 f0	 mov	 DWORD PTR $T79[ebp], eax
; File C:\Program Files (x86)\Microsoft Visual Studio\2019\Community\VC\Tools\MSVC\14.29.30133\atlmfc\include\atlsimpstr.h

; 519  : 		return( GetData()->nDataLength );

  00416	8b 06		 mov	 eax, DWORD PTR [esi]
; File C:\Program Files (x86)\Microsoft Visual Studio\2019\Community\VC\Tools\MSVC\14.29.30133\atlmfc\include\cstringt.h

; 2403 : 		CThisSimpleString::Concatenate( strResult, str1, str1.GetLength(), psz2, CThisSimpleString::StringLength( psz2 ) );

  00418	6a 01		 push	 1
  0041a	68 00 00 00 00	 push	 OFFSET ??_C@_01JOAMLHOP@?9@
  0041f	ff 70 f4	 push	 DWORD PTR [eax-12]
  00422	50		 push	 eax
  00423	8d 45 ac	 lea	 eax, DWORD PTR $T61[ebp]
  00426	50		 push	 eax
  00427	ff 15 00 00 00
	00		 call	 DWORD PTR __imp_?Concatenate@?$CSimpleStringT@D$00@ATL@@KAXAAV12@PBDH1H@Z
  0042d	83 c4 14	 add	 esp, 20			; 00000014H

; 2390 : 		CStringT strResult( str1.GetManager() );

  00430	8d 4d ac	 lea	 ecx, DWORD PTR $T61[ebp]
; File D:\git\src\IBK\IBK_DRFN\ProjSrc\SrcChartEx\ChartAddIn\ChartPatternAddIn\DlgAnalysis.cpp

; 391  : 					strText = strTime.Left(4) + "-" + strTime.Mid(4, 2) + "-" + strTime.Mid(6);

  00433	c6 45 fc 11	 mov	 BYTE PTR __$EHRec$[ebp+8], 17 ; 00000011H
; File C:\Program Files (x86)\Microsoft Visual Studio\2019\Community\VC\Tools\MSVC\14.29.30133\atlmfc\include\cstringt.h

; 2390 : 		CStringT strResult( str1.GetManager() );

  00437	ff 15 00 00 00
	00		 call	 DWORD PTR __imp_?GetManager@?$CStringT@DV?$StrTraitMFC_DLL@DV?$ChTraitsCRT@D@ATL@@@@@ATL@@QBEPAUIAtlStringMgr@2@XZ
  0043d	50		 push	 eax
  0043e	8d 4d b0	 lea	 ecx, DWORD PTR $T62[ebp]
  00441	ff 15 00 00 00
	00		 call	 DWORD PTR __imp_??0?$CStringT@DV?$StrTraitMFC_DLL@DV?$ChTraitsCRT@D@ATL@@@@@ATL@@QAE@PAUIAtlStringMgr@1@@Z
; File C:\Program Files (x86)\Microsoft Visual Studio\2019\Community\VC\Tools\MSVC\14.29.30133\atlmfc\include\atlsimpstr.h

; 519  : 		return( GetData()->nDataLength );

  00447	8b 0f		 mov	 ecx, DWORD PTR [edi]
  00449	8b 45 ac	 mov	 eax, DWORD PTR $T61[ebp]
; File C:\Program Files (x86)\Microsoft Visual Studio\2019\Community\VC\Tools\MSVC\14.29.30133\atlmfc\include\cstringt.h

; 2394 : 		return( strResult );

  0044c	8b 75 e8	 mov	 esi, DWORD PTR $T78[ebp]
  0044f	81 ce 80 00 00
	00		 or	 esi, 128		; 00000080H
  00455	ff 71 f4	 push	 DWORD PTR [ecx-12]
  00458	89 75 f0	 mov	 DWORD PTR $T79[ebp], esi
  0045b	51		 push	 ecx
  0045c	ff 70 f4	 push	 DWORD PTR [eax-12]
  0045f	50		 push	 eax
  00460	8d 45 b0	 lea	 eax, DWORD PTR $T62[ebp]
  00463	50		 push	 eax
  00464	ff 15 00 00 00
	00		 call	 DWORD PTR __imp_?Concatenate@?$CSimpleStringT@D$00@ATL@@KAXAAV12@PBDH1H@Z
  0046a	83 c4 14	 add	 esp, 20			; 00000014H

; 2401 : 		CStringT strResult( str1.GetManager() );

  0046d	8d 4d b0	 lea	 ecx, DWORD PTR $T62[ebp]
; File D:\git\src\IBK\IBK_DRFN\ProjSrc\SrcChartEx\ChartAddIn\ChartPatternAddIn\DlgAnalysis.cpp

; 391  : 					strText = strTime.Left(4) + "-" + strTime.Mid(4, 2) + "-" + strTime.Mid(6);

  00470	c6 45 fc 12	 mov	 BYTE PTR __$EHRec$[ebp+8], 18 ; 00000012H
; File C:\Program Files (x86)\Microsoft Visual Studio\2019\Community\VC\Tools\MSVC\14.29.30133\atlmfc\include\cstringt.h

; 2401 : 		CStringT strResult( str1.GetManager() );

  00474	ff 15 00 00 00
	00		 call	 DWORD PTR __imp_?GetManager@?$CStringT@DV?$StrTraitMFC_DLL@DV?$ChTraitsCRT@D@ATL@@@@@ATL@@QBEPAUIAtlStringMgr@2@XZ
  0047a	50		 push	 eax
  0047b	8d 4d b4	 lea	 ecx, DWORD PTR $T63[ebp]
  0047e	ff 15 00 00 00
	00		 call	 DWORD PTR __imp_??0?$CStringT@DV?$StrTraitMFC_DLL@DV?$ChTraitsCRT@D@ATL@@@@@ATL@@QAE@PAUIAtlStringMgr@1@@Z
; File C:\Program Files (x86)\Microsoft Visual Studio\2019\Community\VC\Tools\MSVC\14.29.30133\atlmfc\include\atlsimpstr.h

; 519  : 		return( GetData()->nDataLength );

  00484	8b 45 b0	 mov	 eax, DWORD PTR $T62[ebp]
; File C:\Program Files (x86)\Microsoft Visual Studio\2019\Community\VC\Tools\MSVC\14.29.30133\atlmfc\include\cstringt.h

; 2405 : 		return( strResult );

  00487	81 ce 00 01 00
	00		 or	 esi, 256		; 00000100H
  0048d	6a 01		 push	 1
  0048f	68 00 00 00 00	 push	 OFFSET ??_C@_01JOAMLHOP@?9@
  00494	89 75 f0	 mov	 DWORD PTR $T79[ebp], esi
  00497	ff 70 f4	 push	 DWORD PTR [eax-12]
  0049a	50		 push	 eax
  0049b	8d 45 b4	 lea	 eax, DWORD PTR $T63[ebp]
  0049e	50		 push	 eax
  0049f	ff 15 00 00 00
	00		 call	 DWORD PTR __imp_?Concatenate@?$CSimpleStringT@D$00@ATL@@KAXAAV12@PBDH1H@Z

; 2403 : 		CThisSimpleString::Concatenate( strResult, str1, str1.GetLength(), psz2, CThisSimpleString::StringLength( psz2 ) );

  004a5	83 c4 14	 add	 esp, 20			; 00000014H

; 2390 : 		CStringT strResult( str1.GetManager() );

  004a8	8d 4d b4	 lea	 ecx, DWORD PTR $T63[ebp]
; File D:\git\src\IBK\IBK_DRFN\ProjSrc\SrcChartEx\ChartAddIn\ChartPatternAddIn\DlgAnalysis.cpp

; 391  : 					strText = strTime.Left(4) + "-" + strTime.Mid(4, 2) + "-" + strTime.Mid(6);

  004ab	c6 45 fc 13	 mov	 BYTE PTR __$EHRec$[ebp+8], 19 ; 00000013H
; File C:\Program Files (x86)\Microsoft Visual Studio\2019\Community\VC\Tools\MSVC\14.29.30133\atlmfc\include\cstringt.h

; 2390 : 		CStringT strResult( str1.GetManager() );

  004af	ff 15 00 00 00
	00		 call	 DWORD PTR __imp_?GetManager@?$CStringT@DV?$StrTraitMFC_DLL@DV?$ChTraitsCRT@D@ATL@@@@@ATL@@QBEPAUIAtlStringMgr@2@XZ
  004b5	50		 push	 eax
  004b6	8d 8d 50 ff ff
	ff		 lea	 ecx, DWORD PTR $T38[ebp]
  004bc	ff 15 00 00 00
	00		 call	 DWORD PTR __imp_??0?$CStringT@DV?$StrTraitMFC_DLL@DV?$ChTraitsCRT@D@ATL@@@@@ATL@@QAE@PAUIAtlStringMgr@1@@Z
; File C:\Program Files (x86)\Microsoft Visual Studio\2019\Community\VC\Tools\MSVC\14.29.30133\atlmfc\include\atlsimpstr.h

; 519  : 		return( GetData()->nDataLength );

  004c2	8b 4d e0	 mov	 ecx, DWORD PTR $T76[ebp]
; File C:\Program Files (x86)\Microsoft Visual Studio\2019\Community\VC\Tools\MSVC\14.29.30133\atlmfc\include\cstringt.h

; 2394 : 		return( strResult );

  004c5	81 ce 00 02 00
	00		 or	 esi, 512		; 00000200H
; File C:\Program Files (x86)\Microsoft Visual Studio\2019\Community\VC\Tools\MSVC\14.29.30133\atlmfc\include\atlsimpstr.h

; 519  : 		return( GetData()->nDataLength );

  004cb	8b 45 b4	 mov	 eax, DWORD PTR $T63[ebp]
; File C:\Program Files (x86)\Microsoft Visual Studio\2019\Community\VC\Tools\MSVC\14.29.30133\atlmfc\include\cstringt.h

; 2394 : 		return( strResult );

  004ce	89 75 f0	 mov	 DWORD PTR $T79[ebp], esi
; File C:\Program Files (x86)\Microsoft Visual Studio\2019\Community\VC\Tools\MSVC\14.29.30133\atlmfc\include\atlsimpstr.h

; 519  : 		return( GetData()->nDataLength );

  004d1	8b 09		 mov	 ecx, DWORD PTR [ecx]
; File C:\Program Files (x86)\Microsoft Visual Studio\2019\Community\VC\Tools\MSVC\14.29.30133\atlmfc\include\cstringt.h

; 2392 : 		CThisSimpleString::Concatenate( strResult, str1, str1.GetLength(), str2, str2.GetLength() );

  004d3	ff 71 f4	 push	 DWORD PTR [ecx-12]
  004d6	51		 push	 ecx
  004d7	ff 70 f4	 push	 DWORD PTR [eax-12]
  004da	50		 push	 eax
  004db	8d 85 50 ff ff
	ff		 lea	 eax, DWORD PTR $T38[ebp]
  004e1	50		 push	 eax
  004e2	ff 15 00 00 00
	00		 call	 DWORD PTR __imp_?Concatenate@?$CSimpleStringT@D$00@ATL@@KAXAAV12@PBDH1H@Z
  004e8	83 c4 14	 add	 esp, 20			; 00000014H
; File D:\git\src\IBK\IBK_DRFN\ProjSrc\SrcChartEx\ChartAddIn\ChartPatternAddIn\DlgAnalysis.cpp

; 391  : 					strText = strTime.Left(4) + "-" + strTime.Mid(4, 2) + "-" + strTime.Mid(6);

  004eb	8d 85 50 ff ff
	ff		 lea	 eax, DWORD PTR $T38[ebp]
  004f1	8d 4d e4	 lea	 ecx, DWORD PTR _strText$[ebp]
  004f4	50		 push	 eax
  004f5	ff 15 00 00 00
	00		 call	 DWORD PTR __imp_??4?$CStringT@DV?$StrTraitMFC_DLL@DV?$ChTraitsCRT@D@ATL@@@@@ATL@@QAEAAV01@ABV01@@Z
  004fb	8d 8d 50 ff ff
	ff		 lea	 ecx, DWORD PTR $T38[ebp]
  00501	81 e6 ff fd ff
	ff		 and	 esi, -513		; fffffdffH
  00507	ff 15 00 00 00
	00		 call	 DWORD PTR __imp_??1?$CStringT@DV?$StrTraitMFC_DLL@DV?$ChTraitsCRT@D@ATL@@@@@ATL@@QAE@XZ
  0050d	8d 4d b4	 lea	 ecx, DWORD PTR $T63[ebp]
  00510	81 e6 ff fe ff
	ff		 and	 esi, -257		; fffffeffH
  00516	ff 15 00 00 00
	00		 call	 DWORD PTR __imp_??1?$CStringT@DV?$StrTraitMFC_DLL@DV?$ChTraitsCRT@D@ATL@@@@@ATL@@QAE@XZ
  0051c	8d 4d b0	 lea	 ecx, DWORD PTR $T62[ebp]
  0051f	81 e6 7f ff ff
	ff		 and	 esi, -129		; ffffff7fH
  00525	ff 15 00 00 00
	00		 call	 DWORD PTR __imp_??1?$CStringT@DV?$StrTraitMFC_DLL@DV?$ChTraitsCRT@D@ATL@@@@@ATL@@QAE@XZ
  0052b	83 e6 bf	 and	 esi, -65		; ffffffbfH
  0052e	8d 4d ac	 lea	 ecx, DWORD PTR $T61[ebp]
  00531	89 75 e8	 mov	 DWORD PTR $T78[ebp], esi
  00534	ff 15 00 00 00
	00		 call	 DWORD PTR __imp_??1?$CStringT@DV?$StrTraitMFC_DLL@DV?$ChTraitsCRT@D@ATL@@@@@ATL@@QAE@XZ
  0053a	8d 8d 08 ff ff
	ff		 lea	 ecx, DWORD PTR $T25[ebp]
  00540	ff 15 00 00 00
	00		 call	 DWORD PTR __imp_??1?$CStringT@DV?$StrTraitMFC_DLL@DV?$ChTraitsCRT@D@ATL@@@@@ATL@@QAE@XZ
  00546	8d 8d 04 ff ff
	ff		 lea	 ecx, DWORD PTR $T24[ebp]
  0054c	ff 15 00 00 00
	00		 call	 DWORD PTR __imp_??1?$CStringT@DV?$StrTraitMFC_DLL@DV?$ChTraitsCRT@D@ATL@@@@@ATL@@QAE@XZ
  00552	8d 8d 00 ff ff
	ff		 lea	 ecx, DWORD PTR $T23[ebp]

; 392  : 			}

  00558	e9 c9 0b 00 00	 jmp	 $LN673@SetFoundWa
$LN7@SetFoundWa:

; 393  : 			else if(strTime.GetLength() == 7)

  0055d	83 f8 07	 cmp	 eax, 7
  00560	0f 85 cb 02 00
	00		 jne	 $LN11@SetFoundWa

; 395  : 				strText = "0" + strTime.Left(1) + "/" + strTime.Mid(1, 2) + "/" + strTime.Mid(3, 2) + ":" + strTime.Mid(5);

  00566	6a 05		 push	 5
  00568	8d 85 d0 fe ff
	ff		 lea	 eax, DWORD PTR $T11[ebp]
  0056e	50		 push	 eax
  0056f	8d 4d ec	 lea	 ecx, DWORD PTR _strTime$[ebp]
  00572	ff 15 00 00 00
	00		 call	 DWORD PTR __imp_?Mid@?$CStringT@DV?$StrTraitMFC_DLL@DV?$ChTraitsCRT@D@ATL@@@@@ATL@@QBE?AV12@H@Z
  00578	89 45 d8	 mov	 DWORD PTR $T69[ebp], eax
  0057b	6a 02		 push	 2
  0057d	6a 03		 push	 3
  0057f	8d 85 f4 fe ff
	ff		 lea	 eax, DWORD PTR $T20[ebp]
  00585	c6 45 fc 14	 mov	 BYTE PTR __$EHRec$[ebp+8], 20 ; 00000014H
  00589	50		 push	 eax
  0058a	8d 4d ec	 lea	 ecx, DWORD PTR _strTime$[ebp]
  0058d	ff 15 00 00 00
	00		 call	 DWORD PTR __imp_?Mid@?$CStringT@DV?$StrTraitMFC_DLL@DV?$ChTraitsCRT@D@ATL@@@@@ATL@@QBE?AV12@HH@Z
  00593	89 45 e0	 mov	 DWORD PTR $T75[ebp], eax
  00596	6a 02		 push	 2
  00598	6a 01		 push	 1
  0059a	8d 85 f8 fe ff
	ff		 lea	 eax, DWORD PTR $T21[ebp]
  005a0	c6 45 fc 15	 mov	 BYTE PTR __$EHRec$[ebp+8], 21 ; 00000015H
  005a4	50		 push	 eax
  005a5	8d 4d ec	 lea	 ecx, DWORD PTR _strTime$[ebp]
  005a8	ff 15 00 00 00
	00		 call	 DWORD PTR __imp_?Mid@?$CStringT@DV?$StrTraitMFC_DLL@DV?$ChTraitsCRT@D@ATL@@@@@ATL@@QBE?AV12@HH@Z
  005ae	8b f8		 mov	 edi, eax
  005b0	6a 01		 push	 1
  005b2	8d 85 fc fe ff
	ff		 lea	 eax, DWORD PTR $T22[ebp]
  005b8	c6 45 fc 16	 mov	 BYTE PTR __$EHRec$[ebp+8], 22 ; 00000016H
  005bc	50		 push	 eax
  005bd	8d 4d ec	 lea	 ecx, DWORD PTR _strTime$[ebp]
  005c0	ff 15 00 00 00
	00		 call	 DWORD PTR __imp_?Left@?$CStringT@DV?$StrTraitMFC_DLL@DV?$ChTraitsCRT@D@ATL@@@@@ATL@@QBE?AV12@H@Z
  005c6	8b f0		 mov	 esi, eax
; File C:\Program Files (x86)\Microsoft Visual Studio\2019\Community\VC\Tools\MSVC\14.29.30133\atlmfc\include\cstringt.h

; 2412 : 		CStringT strResult( str2.GetManager() );

  005c8	8b ce		 mov	 ecx, esi
; File D:\git\src\IBK\IBK_DRFN\ProjSrc\SrcChartEx\ChartAddIn\ChartPatternAddIn\DlgAnalysis.cpp

; 395  : 				strText = "0" + strTime.Left(1) + "/" + strTime.Mid(1, 2) + "/" + strTime.Mid(3, 2) + ":" + strTime.Mid(5);

  005ca	c6 45 fc 18	 mov	 BYTE PTR __$EHRec$[ebp+8], 24 ; 00000018H
; File C:\Program Files (x86)\Microsoft Visual Studio\2019\Community\VC\Tools\MSVC\14.29.30133\atlmfc\include\cstringt.h

; 2412 : 		CStringT strResult( str2.GetManager() );

  005ce	ff 15 00 00 00
	00		 call	 DWORD PTR __imp_?GetManager@?$CStringT@DV?$StrTraitMFC_DLL@DV?$ChTraitsCRT@D@ATL@@@@@ATL@@QBEPAUIAtlStringMgr@2@XZ
  005d4	50		 push	 eax
  005d5	8d 4d 98	 lea	 ecx, DWORD PTR $T56[ebp]
  005d8	ff 15 00 00 00
	00		 call	 DWORD PTR __imp_??0?$CStringT@DV?$StrTraitMFC_DLL@DV?$ChTraitsCRT@D@ATL@@@@@ATL@@QAE@PAUIAtlStringMgr@1@@Z

; 2415 : 
; 2416 : 		return( strResult );

  005de	8b 45 e8	 mov	 eax, DWORD PTR $T78[ebp]
  005e1	0d 00 04 00 00	 or	 eax, 1024		; 00000400H
  005e6	89 45 e8	 mov	 DWORD PTR $T78[ebp], eax
  005e9	89 45 f0	 mov	 DWORD PTR $T79[ebp], eax
; File C:\Program Files (x86)\Microsoft Visual Studio\2019\Community\VC\Tools\MSVC\14.29.30133\atlmfc\include\atlsimpstr.h

; 519  : 		return( GetData()->nDataLength );

  005ec	8b 06		 mov	 eax, DWORD PTR [esi]
; File C:\Program Files (x86)\Microsoft Visual Studio\2019\Community\VC\Tools\MSVC\14.29.30133\atlmfc\include\cstringt.h

; 2414 : 		CThisSimpleString::Concatenate( strResult, psz1, CThisSimpleString::StringLength( psz1 ), str2, str2.GetLength() );

  005ee	ff 70 f4	 push	 DWORD PTR [eax-12]
  005f1	50		 push	 eax
  005f2	6a 01		 push	 1
  005f4	8d 45 98	 lea	 eax, DWORD PTR $T56[ebp]
  005f7	68 00 00 00 00	 push	 OFFSET ??_C@_01GBGANLPD@0@
  005fc	50		 push	 eax
  005fd	ff 15 00 00 00
	00		 call	 DWORD PTR __imp_?Concatenate@?$CSimpleStringT@D$00@ATL@@KAXAAV12@PBDH1H@Z
  00603	83 c4 14	 add	 esp, 20			; 00000014H

; 2401 : 		CStringT strResult( str1.GetManager() );

  00606	8d 4d 98	 lea	 ecx, DWORD PTR $T56[ebp]
; File D:\git\src\IBK\IBK_DRFN\ProjSrc\SrcChartEx\ChartAddIn\ChartPatternAddIn\DlgAnalysis.cpp

; 395  : 				strText = "0" + strTime.Left(1) + "/" + strTime.Mid(1, 2) + "/" + strTime.Mid(3, 2) + ":" + strTime.Mid(5);

  00609	c6 45 fc 19	 mov	 BYTE PTR __$EHRec$[ebp+8], 25 ; 00000019H
; File C:\Program Files (x86)\Microsoft Visual Studio\2019\Community\VC\Tools\MSVC\14.29.30133\atlmfc\include\cstringt.h

; 2401 : 		CStringT strResult( str1.GetManager() );

  0060d	ff 15 00 00 00
	00		 call	 DWORD PTR __imp_?GetManager@?$CStringT@DV?$StrTraitMFC_DLL@DV?$ChTraitsCRT@D@ATL@@@@@ATL@@QBEPAUIAtlStringMgr@2@XZ
  00613	50		 push	 eax
  00614	8d 4d 9c	 lea	 ecx, DWORD PTR $T57[ebp]
  00617	ff 15 00 00 00
	00		 call	 DWORD PTR __imp_??0?$CStringT@DV?$StrTraitMFC_DLL@DV?$ChTraitsCRT@D@ATL@@@@@ATL@@QAE@PAUIAtlStringMgr@1@@Z
; File C:\Program Files (x86)\Microsoft Visual Studio\2019\Community\VC\Tools\MSVC\14.29.30133\atlmfc\include\atlsimpstr.h

; 519  : 		return( GetData()->nDataLength );

  0061d	8b 45 98	 mov	 eax, DWORD PTR $T56[ebp]
; File C:\Program Files (x86)\Microsoft Visual Studio\2019\Community\VC\Tools\MSVC\14.29.30133\atlmfc\include\cstringt.h

; 2405 : 		return( strResult );

  00620	8b 75 e8	 mov	 esi, DWORD PTR $T78[ebp]
  00623	6a 01		 push	 1
  00625	68 00 00 00 00	 push	 OFFSET ??_C@_01KMDKNFGN@?1@
  0062a	ff 70 f4	 push	 DWORD PTR [eax-12]
  0062d	81 ce 00 08 00
	00		 or	 esi, 2048		; 00000800H
  00633	50		 push	 eax
  00634	8d 45 9c	 lea	 eax, DWORD PTR $T57[ebp]
  00637	89 75 f0	 mov	 DWORD PTR $T79[ebp], esi
  0063a	50		 push	 eax
  0063b	ff 15 00 00 00
	00		 call	 DWORD PTR __imp_?Concatenate@?$CSimpleStringT@D$00@ATL@@KAXAAV12@PBDH1H@Z
  00641	83 c4 14	 add	 esp, 20			; 00000014H

; 2390 : 		CStringT strResult( str1.GetManager() );

  00644	8d 4d 9c	 lea	 ecx, DWORD PTR $T57[ebp]
; File D:\git\src\IBK\IBK_DRFN\ProjSrc\SrcChartEx\ChartAddIn\ChartPatternAddIn\DlgAnalysis.cpp

; 395  : 				strText = "0" + strTime.Left(1) + "/" + strTime.Mid(1, 2) + "/" + strTime.Mid(3, 2) + ":" + strTime.Mid(5);

  00647	c6 45 fc 1a	 mov	 BYTE PTR __$EHRec$[ebp+8], 26 ; 0000001aH
; File C:\Program Files (x86)\Microsoft Visual Studio\2019\Community\VC\Tools\MSVC\14.29.30133\atlmfc\include\cstringt.h

; 2390 : 		CStringT strResult( str1.GetManager() );

  0064b	ff 15 00 00 00
	00		 call	 DWORD PTR __imp_?GetManager@?$CStringT@DV?$StrTraitMFC_DLL@DV?$ChTraitsCRT@D@ATL@@@@@ATL@@QBEPAUIAtlStringMgr@2@XZ
  00651	50		 push	 eax
  00652	8d 8d 54 ff ff
	ff		 lea	 ecx, DWORD PTR $T39[ebp]
  00658	ff 15 00 00 00
	00		 call	 DWORD PTR __imp_??0?$CStringT@DV?$StrTraitMFC_DLL@DV?$ChTraitsCRT@D@ATL@@@@@ATL@@QAE@PAUIAtlStringMgr@1@@Z

; 2394 : 		return( strResult );

  0065e	81 ce 00 10 00
	00		 or	 esi, 4096		; 00001000H
  00664	89 75 f0	 mov	 DWORD PTR $T79[ebp], esi
; File C:\Program Files (x86)\Microsoft Visual Studio\2019\Community\VC\Tools\MSVC\14.29.30133\atlmfc\include\atlsimpstr.h

; 519  : 		return( GetData()->nDataLength );

  00667	8b 0f		 mov	 ecx, DWORD PTR [edi]
  00669	8b 45 9c	 mov	 eax, DWORD PTR $T57[ebp]
; File C:\Program Files (x86)\Microsoft Visual Studio\2019\Community\VC\Tools\MSVC\14.29.30133\atlmfc\include\cstringt.h

; 2392 : 		CThisSimpleString::Concatenate( strResult, str1, str1.GetLength(), str2, str2.GetLength() );

  0066c	ff 71 f4	 push	 DWORD PTR [ecx-12]
  0066f	51		 push	 ecx
  00670	ff 70 f4	 push	 DWORD PTR [eax-12]
  00673	50		 push	 eax
  00674	8d 85 54 ff ff
	ff		 lea	 eax, DWORD PTR $T39[ebp]
  0067a	50		 push	 eax
  0067b	ff 15 00 00 00
	00		 call	 DWORD PTR __imp_?Concatenate@?$CSimpleStringT@D$00@ATL@@KAXAAV12@PBDH1H@Z
  00681	83 c4 14	 add	 esp, 20			; 00000014H

; 2401 : 		CStringT strResult( str1.GetManager() );

  00684	8d 8d 54 ff ff
	ff		 lea	 ecx, DWORD PTR $T39[ebp]
; File D:\git\src\IBK\IBK_DRFN\ProjSrc\SrcChartEx\ChartAddIn\ChartPatternAddIn\DlgAnalysis.cpp

; 395  : 				strText = "0" + strTime.Left(1) + "/" + strTime.Mid(1, 2) + "/" + strTime.Mid(3, 2) + ":" + strTime.Mid(5);

  0068a	c6 45 fc 1b	 mov	 BYTE PTR __$EHRec$[ebp+8], 27 ; 0000001bH
; File C:\Program Files (x86)\Microsoft Visual Studio\2019\Community\VC\Tools\MSVC\14.29.30133\atlmfc\include\cstringt.h

; 2401 : 		CStringT strResult( str1.GetManager() );

  0068e	ff 15 00 00 00
	00		 call	 DWORD PTR __imp_?GetManager@?$CStringT@DV?$StrTraitMFC_DLL@DV?$ChTraitsCRT@D@ATL@@@@@ATL@@QBEPAUIAtlStringMgr@2@XZ
  00694	50		 push	 eax
  00695	8d 4d a0	 lea	 ecx, DWORD PTR $T58[ebp]
  00698	ff 15 00 00 00
	00		 call	 DWORD PTR __imp_??0?$CStringT@DV?$StrTraitMFC_DLL@DV?$ChTraitsCRT@D@ATL@@@@@ATL@@QAE@PAUIAtlStringMgr@1@@Z
; File C:\Program Files (x86)\Microsoft Visual Studio\2019\Community\VC\Tools\MSVC\14.29.30133\atlmfc\include\atlsimpstr.h

; 519  : 		return( GetData()->nDataLength );

  0069e	8b 85 54 ff ff
	ff		 mov	 eax, DWORD PTR $T39[ebp]
; File C:\Program Files (x86)\Microsoft Visual Studio\2019\Community\VC\Tools\MSVC\14.29.30133\atlmfc\include\cstringt.h

; 2405 : 		return( strResult );

  006a4	81 ce 00 20 00
	00		 or	 esi, 8192		; 00002000H
  006aa	6a 01		 push	 1
  006ac	68 00 00 00 00	 push	 OFFSET ??_C@_01KMDKNFGN@?1@
  006b1	89 75 f0	 mov	 DWORD PTR $T79[ebp], esi
  006b4	ff 70 f4	 push	 DWORD PTR [eax-12]
  006b7	50		 push	 eax
  006b8	8d 45 a0	 lea	 eax, DWORD PTR $T58[ebp]
  006bb	50		 push	 eax
  006bc	ff 15 00 00 00
	00		 call	 DWORD PTR __imp_?Concatenate@?$CSimpleStringT@D$00@ATL@@KAXAAV12@PBDH1H@Z
  006c2	83 c4 14	 add	 esp, 20			; 00000014H

; 2390 : 		CStringT strResult( str1.GetManager() );

  006c5	8d 4d a0	 lea	 ecx, DWORD PTR $T58[ebp]
; File D:\git\src\IBK\IBK_DRFN\ProjSrc\SrcChartEx\ChartAddIn\ChartPatternAddIn\DlgAnalysis.cpp

; 395  : 				strText = "0" + strTime.Left(1) + "/" + strTime.Mid(1, 2) + "/" + strTime.Mid(3, 2) + ":" + strTime.Mid(5);

  006c8	c6 45 fc 1c	 mov	 BYTE PTR __$EHRec$[ebp+8], 28 ; 0000001cH
; File C:\Program Files (x86)\Microsoft Visual Studio\2019\Community\VC\Tools\MSVC\14.29.30133\atlmfc\include\cstringt.h

; 2390 : 		CStringT strResult( str1.GetManager() );

  006cc	ff 15 00 00 00
	00		 call	 DWORD PTR __imp_?GetManager@?$CStringT@DV?$StrTraitMFC_DLL@DV?$ChTraitsCRT@D@ATL@@@@@ATL@@QBEPAUIAtlStringMgr@2@XZ
  006d2	50		 push	 eax
  006d3	8d 4d a4	 lea	 ecx, DWORD PTR $T59[ebp]
  006d6	ff 15 00 00 00
	00		 call	 DWORD PTR __imp_??0?$CStringT@DV?$StrTraitMFC_DLL@DV?$ChTraitsCRT@D@ATL@@@@@ATL@@QAE@PAUIAtlStringMgr@1@@Z
; File C:\Program Files (x86)\Microsoft Visual Studio\2019\Community\VC\Tools\MSVC\14.29.30133\atlmfc\include\atlsimpstr.h

; 519  : 		return( GetData()->nDataLength );

  006dc	8b 4d e0	 mov	 ecx, DWORD PTR $T75[ebp]
; File C:\Program Files (x86)\Microsoft Visual Studio\2019\Community\VC\Tools\MSVC\14.29.30133\atlmfc\include\cstringt.h

; 2394 : 		return( strResult );

  006df	81 ce 00 40 00
	00		 or	 esi, 16384		; 00004000H
; File C:\Program Files (x86)\Microsoft Visual Studio\2019\Community\VC\Tools\MSVC\14.29.30133\atlmfc\include\atlsimpstr.h

; 519  : 		return( GetData()->nDataLength );

  006e5	8b 45 a0	 mov	 eax, DWORD PTR $T58[ebp]
; File C:\Program Files (x86)\Microsoft Visual Studio\2019\Community\VC\Tools\MSVC\14.29.30133\atlmfc\include\cstringt.h

; 2394 : 		return( strResult );

  006e8	89 75 f0	 mov	 DWORD PTR $T79[ebp], esi
; File C:\Program Files (x86)\Microsoft Visual Studio\2019\Community\VC\Tools\MSVC\14.29.30133\atlmfc\include\atlsimpstr.h

; 519  : 		return( GetData()->nDataLength );

  006eb	8b 09		 mov	 ecx, DWORD PTR [ecx]
; File C:\Program Files (x86)\Microsoft Visual Studio\2019\Community\VC\Tools\MSVC\14.29.30133\atlmfc\include\cstringt.h

; 2392 : 		CThisSimpleString::Concatenate( strResult, str1, str1.GetLength(), str2, str2.GetLength() );

  006ed	ff 71 f4	 push	 DWORD PTR [ecx-12]
  006f0	51		 push	 ecx
  006f1	ff 70 f4	 push	 DWORD PTR [eax-12]
  006f4	50		 push	 eax
  006f5	8d 45 a4	 lea	 eax, DWORD PTR $T59[ebp]
  006f8	50		 push	 eax
  006f9	ff 15 00 00 00
	00		 call	 DWORD PTR __imp_?Concatenate@?$CSimpleStringT@D$00@ATL@@KAXAAV12@PBDH1H@Z
  006ff	83 c4 14	 add	 esp, 20			; 00000014H

; 2401 : 		CStringT strResult( str1.GetManager() );

  00702	8d 4d a4	 lea	 ecx, DWORD PTR $T59[ebp]
; File D:\git\src\IBK\IBK_DRFN\ProjSrc\SrcChartEx\ChartAddIn\ChartPatternAddIn\DlgAnalysis.cpp

; 395  : 				strText = "0" + strTime.Left(1) + "/" + strTime.Mid(1, 2) + "/" + strTime.Mid(3, 2) + ":" + strTime.Mid(5);

  00705	c6 45 fc 1d	 mov	 BYTE PTR __$EHRec$[ebp+8], 29 ; 0000001dH
; File C:\Program Files (x86)\Microsoft Visual Studio\2019\Community\VC\Tools\MSVC\14.29.30133\atlmfc\include\cstringt.h

; 2401 : 		CStringT strResult( str1.GetManager() );

  00709	ff 15 00 00 00
	00		 call	 DWORD PTR __imp_?GetManager@?$CStringT@DV?$StrTraitMFC_DLL@DV?$ChTraitsCRT@D@ATL@@@@@ATL@@QBEPAUIAtlStringMgr@2@XZ
  0070f	50		 push	 eax
  00710	8d 4d a8	 lea	 ecx, DWORD PTR $T60[ebp]
  00713	ff 15 00 00 00
	00		 call	 DWORD PTR __imp_??0?$CStringT@DV?$StrTraitMFC_DLL@DV?$ChTraitsCRT@D@ATL@@@@@ATL@@QAE@PAUIAtlStringMgr@1@@Z
; File C:\Program Files (x86)\Microsoft Visual Studio\2019\Community\VC\Tools\MSVC\14.29.30133\atlmfc\include\atlsimpstr.h

; 519  : 		return( GetData()->nDataLength );

  00719	8b 45 a4	 mov	 eax, DWORD PTR $T59[ebp]
; File C:\Program Files (x86)\Microsoft Visual Studio\2019\Community\VC\Tools\MSVC\14.29.30133\atlmfc\include\cstringt.h

; 2405 : 		return( strResult );

  0071c	81 ce 00 80 00
	00		 or	 esi, 32768		; 00008000H
  00722	6a 01		 push	 1
  00724	68 00 00 00 00	 push	 OFFSET ??_C@_01JLIPDDHJ@?3@
  00729	89 75 f0	 mov	 DWORD PTR $T79[ebp], esi
  0072c	ff 70 f4	 push	 DWORD PTR [eax-12]
  0072f	50		 push	 eax
  00730	8d 45 a8	 lea	 eax, DWORD PTR $T60[ebp]
  00733	50		 push	 eax
  00734	ff 15 00 00 00
	00		 call	 DWORD PTR __imp_?Concatenate@?$CSimpleStringT@D$00@ATL@@KAXAAV12@PBDH1H@Z
  0073a	83 c4 14	 add	 esp, 20			; 00000014H

; 2390 : 		CStringT strResult( str1.GetManager() );

  0073d	8d 4d a8	 lea	 ecx, DWORD PTR $T60[ebp]
; File D:\git\src\IBK\IBK_DRFN\ProjSrc\SrcChartEx\ChartAddIn\ChartPatternAddIn\DlgAnalysis.cpp

; 395  : 				strText = "0" + strTime.Left(1) + "/" + strTime.Mid(1, 2) + "/" + strTime.Mid(3, 2) + ":" + strTime.Mid(5);

  00740	c6 45 fc 1e	 mov	 BYTE PTR __$EHRec$[ebp+8], 30 ; 0000001eH
; File C:\Program Files (x86)\Microsoft Visual Studio\2019\Community\VC\Tools\MSVC\14.29.30133\atlmfc\include\cstringt.h

; 2390 : 		CStringT strResult( str1.GetManager() );

  00744	ff 15 00 00 00
	00		 call	 DWORD PTR __imp_?GetManager@?$CStringT@DV?$StrTraitMFC_DLL@DV?$ChTraitsCRT@D@ATL@@@@@ATL@@QBEPAUIAtlStringMgr@2@XZ
  0074a	50		 push	 eax
  0074b	8d 8d 4c ff ff
	ff		 lea	 ecx, DWORD PTR $T37[ebp]
  00751	ff 15 00 00 00
	00		 call	 DWORD PTR __imp_??0?$CStringT@DV?$StrTraitMFC_DLL@DV?$ChTraitsCRT@D@ATL@@@@@ATL@@QAE@PAUIAtlStringMgr@1@@Z
; File C:\Program Files (x86)\Microsoft Visual Studio\2019\Community\VC\Tools\MSVC\14.29.30133\atlmfc\include\atlsimpstr.h

; 519  : 		return( GetData()->nDataLength );

  00757	8b 4d d8	 mov	 ecx, DWORD PTR $T69[ebp]
; File C:\Program Files (x86)\Microsoft Visual Studio\2019\Community\VC\Tools\MSVC\14.29.30133\atlmfc\include\cstringt.h

; 2394 : 		return( strResult );

  0075a	81 ce 00 00 01
	00		 or	 esi, 65536		; 00010000H
; File C:\Program Files (x86)\Microsoft Visual Studio\2019\Community\VC\Tools\MSVC\14.29.30133\atlmfc\include\atlsimpstr.h

; 519  : 		return( GetData()->nDataLength );

  00760	8b 45 a8	 mov	 eax, DWORD PTR $T60[ebp]
; File C:\Program Files (x86)\Microsoft Visual Studio\2019\Community\VC\Tools\MSVC\14.29.30133\atlmfc\include\cstringt.h

; 2394 : 		return( strResult );

  00763	89 75 f0	 mov	 DWORD PTR $T79[ebp], esi
; File C:\Program Files (x86)\Microsoft Visual Studio\2019\Community\VC\Tools\MSVC\14.29.30133\atlmfc\include\atlsimpstr.h

; 519  : 		return( GetData()->nDataLength );

  00766	8b 09		 mov	 ecx, DWORD PTR [ecx]
; File C:\Program Files (x86)\Microsoft Visual Studio\2019\Community\VC\Tools\MSVC\14.29.30133\atlmfc\include\cstringt.h

; 2392 : 		CThisSimpleString::Concatenate( strResult, str1, str1.GetLength(), str2, str2.GetLength() );

  00768	ff 71 f4	 push	 DWORD PTR [ecx-12]
  0076b	51		 push	 ecx
  0076c	ff 70 f4	 push	 DWORD PTR [eax-12]
  0076f	50		 push	 eax
  00770	8d 85 4c ff ff
	ff		 lea	 eax, DWORD PTR $T37[ebp]
  00776	50		 push	 eax
  00777	ff 15 00 00 00
	00		 call	 DWORD PTR __imp_?Concatenate@?$CSimpleStringT@D$00@ATL@@KAXAAV12@PBDH1H@Z
  0077d	83 c4 14	 add	 esp, 20			; 00000014H
; File D:\git\src\IBK\IBK_DRFN\ProjSrc\SrcChartEx\ChartAddIn\ChartPatternAddIn\DlgAnalysis.cpp

; 395  : 				strText = "0" + strTime.Left(1) + "/" + strTime.Mid(1, 2) + "/" + strTime.Mid(3, 2) + ":" + strTime.Mid(5);

  00780	8d 85 4c ff ff
	ff		 lea	 eax, DWORD PTR $T37[ebp]
  00786	8d 4d e4	 lea	 ecx, DWORD PTR _strText$[ebp]
  00789	50		 push	 eax
  0078a	ff 15 00 00 00
	00		 call	 DWORD PTR __imp_??4?$CStringT@DV?$StrTraitMFC_DLL@DV?$ChTraitsCRT@D@ATL@@@@@ATL@@QAEAAV01@ABV01@@Z
  00790	8d 8d 4c ff ff
	ff		 lea	 ecx, DWORD PTR $T37[ebp]
  00796	81 e6 ff ff fe
	ff		 and	 esi, -65537		; fffeffffH
  0079c	ff 15 00 00 00
	00		 call	 DWORD PTR __imp_??1?$CStringT@DV?$StrTraitMFC_DLL@DV?$ChTraitsCRT@D@ATL@@@@@ATL@@QAE@XZ
  007a2	8d 4d a8	 lea	 ecx, DWORD PTR $T60[ebp]
  007a5	81 e6 ff 7f ff
	ff		 and	 esi, -32769		; ffff7fffH
  007ab	ff 15 00 00 00
	00		 call	 DWORD PTR __imp_??1?$CStringT@DV?$StrTraitMFC_DLL@DV?$ChTraitsCRT@D@ATL@@@@@ATL@@QAE@XZ
  007b1	8d 4d a4	 lea	 ecx, DWORD PTR $T59[ebp]
  007b4	81 e6 ff bf ff
	ff		 and	 esi, -16385		; ffffbfffH
  007ba	ff 15 00 00 00
	00		 call	 DWORD PTR __imp_??1?$CStringT@DV?$StrTraitMFC_DLL@DV?$ChTraitsCRT@D@ATL@@@@@ATL@@QAE@XZ
  007c0	8d 4d a0	 lea	 ecx, DWORD PTR $T58[ebp]
  007c3	81 e6 ff df ff
	ff		 and	 esi, -8193		; ffffdfffH
  007c9	ff 15 00 00 00
	00		 call	 DWORD PTR __imp_??1?$CStringT@DV?$StrTraitMFC_DLL@DV?$ChTraitsCRT@D@ATL@@@@@ATL@@QAE@XZ
  007cf	8d 8d 54 ff ff
	ff		 lea	 ecx, DWORD PTR $T39[ebp]
  007d5	81 e6 ff ef ff
	ff		 and	 esi, -4097		; ffffefffH
  007db	ff 15 00 00 00
	00		 call	 DWORD PTR __imp_??1?$CStringT@DV?$StrTraitMFC_DLL@DV?$ChTraitsCRT@D@ATL@@@@@ATL@@QAE@XZ
  007e1	8d 4d 9c	 lea	 ecx, DWORD PTR $T57[ebp]
  007e4	81 e6 ff f7 ff
	ff		 and	 esi, -2049		; fffff7ffH
  007ea	ff 15 00 00 00
	00		 call	 DWORD PTR __imp_??1?$CStringT@DV?$StrTraitMFC_DLL@DV?$ChTraitsCRT@D@ATL@@@@@ATL@@QAE@XZ
  007f0	81 e6 ff fb ff
	ff		 and	 esi, -1025		; fffffbffH
  007f6	8d 4d 98	 lea	 ecx, DWORD PTR $T56[ebp]
  007f9	89 75 e8	 mov	 DWORD PTR $T78[ebp], esi
  007fc	ff 15 00 00 00
	00		 call	 DWORD PTR __imp_??1?$CStringT@DV?$StrTraitMFC_DLL@DV?$ChTraitsCRT@D@ATL@@@@@ATL@@QAE@XZ
  00802	8d 8d fc fe ff
	ff		 lea	 ecx, DWORD PTR $T22[ebp]
  00808	ff 15 00 00 00
	00		 call	 DWORD PTR __imp_??1?$CStringT@DV?$StrTraitMFC_DLL@DV?$ChTraitsCRT@D@ATL@@@@@ATL@@QAE@XZ
  0080e	8d 8d f8 fe ff
	ff		 lea	 ecx, DWORD PTR $T21[ebp]
  00814	ff 15 00 00 00
	00		 call	 DWORD PTR __imp_??1?$CStringT@DV?$StrTraitMFC_DLL@DV?$ChTraitsCRT@D@ATL@@@@@ATL@@QAE@XZ
  0081a	8d 8d f4 fe ff
	ff		 lea	 ecx, DWORD PTR $T20[ebp]
  00820	ff 15 00 00 00
	00		 call	 DWORD PTR __imp_??1?$CStringT@DV?$StrTraitMFC_DLL@DV?$ChTraitsCRT@D@ATL@@@@@ATL@@QAE@XZ
  00826	8d 8d d0 fe ff
	ff		 lea	 ecx, DWORD PTR $T11[ebp]

; 396  : 			}

  0082c	e9 f5 08 00 00	 jmp	 $LN673@SetFoundWa
$LN11@SetFoundWa:

; 397  : 			else if(strTime.GetLength() == 6)

  00831	83 f8 06	 cmp	 eax, 6
  00834	0f 85 1d 03 00
	00		 jne	 $LN13@SetFoundWa

; 398  : 			{
; 399  : 				// 
; 400  : 				//strText = strTime.Left(2) + ":" + strTime.Mid(2, 2) + ":" + strTime.Mid(4);
; 401  : 				if(strTime.GetAt(0) == '1' && ((strTime.GetAt(1) - '1') < 9))

  0083a	6a 00		 push	 0
  0083c	8d 4d ec	 lea	 ecx, DWORD PTR _strTime$[ebp]
  0083f	ff 15 00 00 00
	00		 call	 DWORD PTR __imp_?GetAt@?$CSimpleStringT@D$00@ATL@@QBEDH@Z
  00845	3c 31		 cmp	 al, 49			; 00000031H
  00847	0f 85 c8 01 00
	00		 jne	 $LN15@SetFoundWa
  0084d	6a 01		 push	 1
  0084f	8d 4d ec	 lea	 ecx, DWORD PTR _strTime$[ebp]
  00852	ff 15 00 00 00
	00		 call	 DWORD PTR __imp_?GetAt@?$CSimpleStringT@D$00@ATL@@QBEDH@Z
  00858	3c 3a		 cmp	 al, 58			; 0000003aH
  0085a	0f 8d b5 01 00
	00		 jge	 $LN15@SetFoundWa

; 402  : 					strText = strTime.Left(2) + ":" + strTime.Mid(2, 2) + ":" + strTime.Mid(4);

  00860	6a 04		 push	 4
  00862	8d 85 e8 fe ff
	ff		 lea	 eax, DWORD PTR $T17[ebp]
  00868	50		 push	 eax
  00869	8d 4d ec	 lea	 ecx, DWORD PTR _strTime$[ebp]
  0086c	ff 15 00 00 00
	00		 call	 DWORD PTR __imp_?Mid@?$CStringT@DV?$StrTraitMFC_DLL@DV?$ChTraitsCRT@D@ATL@@@@@ATL@@QBE?AV12@H@Z
  00872	89 45 e0	 mov	 DWORD PTR $T74[ebp], eax
  00875	6a 02		 push	 2
  00877	6a 02		 push	 2
  00879	8d 85 ec fe ff
	ff		 lea	 eax, DWORD PTR $T18[ebp]
  0087f	c6 45 fc 1f	 mov	 BYTE PTR __$EHRec$[ebp+8], 31 ; 0000001fH
  00883	50		 push	 eax
  00884	8d 4d ec	 lea	 ecx, DWORD PTR _strTime$[ebp]
  00887	ff 15 00 00 00
	00		 call	 DWORD PTR __imp_?Mid@?$CStringT@DV?$StrTraitMFC_DLL@DV?$ChTraitsCRT@D@ATL@@@@@ATL@@QBE?AV12@HH@Z
  0088d	8b f8		 mov	 edi, eax
  0088f	6a 02		 push	 2
  00891	8d 85 f0 fe ff
	ff		 lea	 eax, DWORD PTR $T19[ebp]
  00897	c6 45 fc 20	 mov	 BYTE PTR __$EHRec$[ebp+8], 32 ; 00000020H
  0089b	50		 push	 eax
  0089c	8d 4d ec	 lea	 ecx, DWORD PTR _strTime$[ebp]
  0089f	ff 15 00 00 00
	00		 call	 DWORD PTR __imp_?Left@?$CStringT@DV?$StrTraitMFC_DLL@DV?$ChTraitsCRT@D@ATL@@@@@ATL@@QBE?AV12@H@Z
  008a5	8b f0		 mov	 esi, eax
; File C:\Program Files (x86)\Microsoft Visual Studio\2019\Community\VC\Tools\MSVC\14.29.30133\atlmfc\include\cstringt.h

; 2401 : 		CStringT strResult( str1.GetManager() );

  008a7	8b ce		 mov	 ecx, esi
; File D:\git\src\IBK\IBK_DRFN\ProjSrc\SrcChartEx\ChartAddIn\ChartPatternAddIn\DlgAnalysis.cpp

; 402  : 					strText = strTime.Left(2) + ":" + strTime.Mid(2, 2) + ":" + strTime.Mid(4);

  008a9	c6 45 fc 22	 mov	 BYTE PTR __$EHRec$[ebp+8], 34 ; 00000022H
; File C:\Program Files (x86)\Microsoft Visual Studio\2019\Community\VC\Tools\MSVC\14.29.30133\atlmfc\include\cstringt.h

; 2401 : 		CStringT strResult( str1.GetManager() );

  008ad	ff 15 00 00 00
	00		 call	 DWORD PTR __imp_?GetManager@?$CStringT@DV?$StrTraitMFC_DLL@DV?$ChTraitsCRT@D@ATL@@@@@ATL@@QBEPAUIAtlStringMgr@2@XZ
  008b3	50		 push	 eax
  008b4	8d 4d 8c	 lea	 ecx, DWORD PTR $T53[ebp]
  008b7	ff 15 00 00 00
	00		 call	 DWORD PTR __imp_??0?$CStringT@DV?$StrTraitMFC_DLL@DV?$ChTraitsCRT@D@ATL@@@@@ATL@@QAE@PAUIAtlStringMgr@1@@Z

; 2405 : 		return( strResult );

  008bd	8b 45 e8	 mov	 eax, DWORD PTR $T78[ebp]
  008c0	0d 00 00 02 00	 or	 eax, 131072		; 00020000H
  008c5	89 45 e8	 mov	 DWORD PTR $T78[ebp], eax
  008c8	89 45 f0	 mov	 DWORD PTR $T79[ebp], eax
; File C:\Program Files (x86)\Microsoft Visual Studio\2019\Community\VC\Tools\MSVC\14.29.30133\atlmfc\include\atlsimpstr.h

; 519  : 		return( GetData()->nDataLength );

  008cb	8b 06		 mov	 eax, DWORD PTR [esi]
; File C:\Program Files (x86)\Microsoft Visual Studio\2019\Community\VC\Tools\MSVC\14.29.30133\atlmfc\include\cstringt.h

; 2403 : 		CThisSimpleString::Concatenate( strResult, str1, str1.GetLength(), psz2, CThisSimpleString::StringLength( psz2 ) );

  008cd	6a 01		 push	 1
  008cf	68 00 00 00 00	 push	 OFFSET ??_C@_01JLIPDDHJ@?3@
  008d4	ff 70 f4	 push	 DWORD PTR [eax-12]
  008d7	50		 push	 eax
  008d8	8d 45 8c	 lea	 eax, DWORD PTR $T53[ebp]
  008db	50		 push	 eax
  008dc	ff 15 00 00 00
	00		 call	 DWORD PTR __imp_?Concatenate@?$CSimpleStringT@D$00@ATL@@KAXAAV12@PBDH1H@Z
  008e2	83 c4 14	 add	 esp, 20			; 00000014H

; 2390 : 		CStringT strResult( str1.GetManager() );

  008e5	8d 4d 8c	 lea	 ecx, DWORD PTR $T53[ebp]
; File D:\git\src\IBK\IBK_DRFN\ProjSrc\SrcChartEx\ChartAddIn\ChartPatternAddIn\DlgAnalysis.cpp

; 402  : 					strText = strTime.Left(2) + ":" + strTime.Mid(2, 2) + ":" + strTime.Mid(4);

  008e8	c6 45 fc 23	 mov	 BYTE PTR __$EHRec$[ebp+8], 35 ; 00000023H
; File C:\Program Files (x86)\Microsoft Visual Studio\2019\Community\VC\Tools\MSVC\14.29.30133\atlmfc\include\cstringt.h

; 2390 : 		CStringT strResult( str1.GetManager() );

  008ec	ff 15 00 00 00
	00		 call	 DWORD PTR __imp_?GetManager@?$CStringT@DV?$StrTraitMFC_DLL@DV?$ChTraitsCRT@D@ATL@@@@@ATL@@QBEPAUIAtlStringMgr@2@XZ
  008f2	50		 push	 eax
  008f3	8d 4d 90	 lea	 ecx, DWORD PTR $T54[ebp]
  008f6	ff 15 00 00 00
	00		 call	 DWORD PTR __imp_??0?$CStringT@DV?$StrTraitMFC_DLL@DV?$ChTraitsCRT@D@ATL@@@@@ATL@@QAE@PAUIAtlStringMgr@1@@Z
; File C:\Program Files (x86)\Microsoft Visual Studio\2019\Community\VC\Tools\MSVC\14.29.30133\atlmfc\include\atlsimpstr.h

; 519  : 		return( GetData()->nDataLength );

  008fc	8b 0f		 mov	 ecx, DWORD PTR [edi]
  008fe	8b 45 8c	 mov	 eax, DWORD PTR $T53[ebp]
; File C:\Program Files (x86)\Microsoft Visual Studio\2019\Community\VC\Tools\MSVC\14.29.30133\atlmfc\include\cstringt.h

; 2394 : 		return( strResult );

  00901	8b 75 e8	 mov	 esi, DWORD PTR $T78[ebp]
  00904	81 ce 00 00 04
	00		 or	 esi, 262144		; 00040000H
  0090a	ff 71 f4	 push	 DWORD PTR [ecx-12]
  0090d	89 75 f0	 mov	 DWORD PTR $T79[ebp], esi
  00910	51		 push	 ecx
  00911	ff 70 f4	 push	 DWORD PTR [eax-12]
  00914	50		 push	 eax
  00915	8d 45 90	 lea	 eax, DWORD PTR $T54[ebp]
  00918	50		 push	 eax
  00919	ff 15 00 00 00
	00		 call	 DWORD PTR __imp_?Concatenate@?$CSimpleStringT@D$00@ATL@@KAXAAV12@PBDH1H@Z
  0091f	83 c4 14	 add	 esp, 20			; 00000014H

; 2401 : 		CStringT strResult( str1.GetManager() );

  00922	8d 4d 90	 lea	 ecx, DWORD PTR $T54[ebp]
; File D:\git\src\IBK\IBK_DRFN\ProjSrc\SrcChartEx\ChartAddIn\ChartPatternAddIn\DlgAnalysis.cpp

; 402  : 					strText = strTime.Left(2) + ":" + strTime.Mid(2, 2) + ":" + strTime.Mid(4);

  00925	c6 45 fc 24	 mov	 BYTE PTR __$EHRec$[ebp+8], 36 ; 00000024H
; File C:\Program Files (x86)\Microsoft Visual Studio\2019\Community\VC\Tools\MSVC\14.29.30133\atlmfc\include\cstringt.h

; 2401 : 		CStringT strResult( str1.GetManager() );

  00929	ff 15 00 00 00
	00		 call	 DWORD PTR __imp_?GetManager@?$CStringT@DV?$StrTraitMFC_DLL@DV?$ChTraitsCRT@D@ATL@@@@@ATL@@QBEPAUIAtlStringMgr@2@XZ
  0092f	50		 push	 eax
  00930	8d 4d 94	 lea	 ecx, DWORD PTR $T55[ebp]
  00933	ff 15 00 00 00
	00		 call	 DWORD PTR __imp_??0?$CStringT@DV?$StrTraitMFC_DLL@DV?$ChTraitsCRT@D@ATL@@@@@ATL@@QAE@PAUIAtlStringMgr@1@@Z
; File C:\Program Files (x86)\Microsoft Visual Studio\2019\Community\VC\Tools\MSVC\14.29.30133\atlmfc\include\atlsimpstr.h

; 519  : 		return( GetData()->nDataLength );

  00939	8b 45 90	 mov	 eax, DWORD PTR $T54[ebp]
; File C:\Program Files (x86)\Microsoft Visual Studio\2019\Community\VC\Tools\MSVC\14.29.30133\atlmfc\include\cstringt.h

; 2405 : 		return( strResult );

  0093c	81 ce 00 00 08
	00		 or	 esi, 524288		; 00080000H
  00942	6a 01		 push	 1
  00944	68 00 00 00 00	 push	 OFFSET ??_C@_01JLIPDDHJ@?3@
  00949	89 75 f0	 mov	 DWORD PTR $T79[ebp], esi
  0094c	ff 70 f4	 push	 DWORD PTR [eax-12]
  0094f	50		 push	 eax
  00950	8d 45 94	 lea	 eax, DWORD PTR $T55[ebp]
  00953	50		 push	 eax
  00954	ff 15 00 00 00
	00		 call	 DWORD PTR __imp_?Concatenate@?$CSimpleStringT@D$00@ATL@@KAXAAV12@PBDH1H@Z

; 2403 : 		CThisSimpleString::Concatenate( strResult, str1, str1.GetLength(), psz2, CThisSimpleString::StringLength( psz2 ) );

  0095a	83 c4 14	 add	 esp, 20			; 00000014H

; 2390 : 		CStringT strResult( str1.GetManager() );

  0095d	8d 4d 94	 lea	 ecx, DWORD PTR $T55[ebp]
; File D:\git\src\IBK\IBK_DRFN\ProjSrc\SrcChartEx\ChartAddIn\ChartPatternAddIn\DlgAnalysis.cpp

; 402  : 					strText = strTime.Left(2) + ":" + strTime.Mid(2, 2) + ":" + strTime.Mid(4);

  00960	c6 45 fc 25	 mov	 BYTE PTR __$EHRec$[ebp+8], 37 ; 00000025H
; File C:\Program Files (x86)\Microsoft Visual Studio\2019\Community\VC\Tools\MSVC\14.29.30133\atlmfc\include\cstringt.h

; 2390 : 		CStringT strResult( str1.GetManager() );

  00964	ff 15 00 00 00
	00		 call	 DWORD PTR __imp_?GetManager@?$CStringT@DV?$StrTraitMFC_DLL@DV?$ChTraitsCRT@D@ATL@@@@@ATL@@QBEPAUIAtlStringMgr@2@XZ
  0096a	50		 push	 eax
  0096b	8d 8d 48 ff ff
	ff		 lea	 ecx, DWORD PTR $T36[ebp]
  00971	ff 15 00 00 00
	00		 call	 DWORD PTR __imp_??0?$CStringT@DV?$StrTraitMFC_DLL@DV?$ChTraitsCRT@D@ATL@@@@@ATL@@QAE@PAUIAtlStringMgr@1@@Z
; File C:\Program Files (x86)\Microsoft Visual Studio\2019\Community\VC\Tools\MSVC\14.29.30133\atlmfc\include\atlsimpstr.h

; 519  : 		return( GetData()->nDataLength );

  00977	8b 4d e0	 mov	 ecx, DWORD PTR $T74[ebp]
; File C:\Program Files (x86)\Microsoft Visual Studio\2019\Community\VC\Tools\MSVC\14.29.30133\atlmfc\include\cstringt.h

; 2394 : 		return( strResult );

  0097a	81 ce 00 00 10
	00		 or	 esi, 1048576		; 00100000H
; File C:\Program Files (x86)\Microsoft Visual Studio\2019\Community\VC\Tools\MSVC\14.29.30133\atlmfc\include\atlsimpstr.h

; 519  : 		return( GetData()->nDataLength );

  00980	8b 45 94	 mov	 eax, DWORD PTR $T55[ebp]
; File C:\Program Files (x86)\Microsoft Visual Studio\2019\Community\VC\Tools\MSVC\14.29.30133\atlmfc\include\cstringt.h

; 2394 : 		return( strResult );

  00983	89 75 f0	 mov	 DWORD PTR $T79[ebp], esi
; File C:\Program Files (x86)\Microsoft Visual Studio\2019\Community\VC\Tools\MSVC\14.29.30133\atlmfc\include\atlsimpstr.h

; 519  : 		return( GetData()->nDataLength );

  00986	8b 09		 mov	 ecx, DWORD PTR [ecx]
; File C:\Program Files (x86)\Microsoft Visual Studio\2019\Community\VC\Tools\MSVC\14.29.30133\atlmfc\include\cstringt.h

; 2392 : 		CThisSimpleString::Concatenate( strResult, str1, str1.GetLength(), str2, str2.GetLength() );

  00988	ff 71 f4	 push	 DWORD PTR [ecx-12]
  0098b	51		 push	 ecx
  0098c	ff 70 f4	 push	 DWORD PTR [eax-12]
  0098f	50		 push	 eax
  00990	8d 85 48 ff ff
	ff		 lea	 eax, DWORD PTR $T36[ebp]
  00996	50		 push	 eax
  00997	ff 15 00 00 00
	00		 call	 DWORD PTR __imp_?Concatenate@?$CSimpleStringT@D$00@ATL@@KAXAAV12@PBDH1H@Z
  0099d	83 c4 14	 add	 esp, 20			; 00000014H
; File D:\git\src\IBK\IBK_DRFN\ProjSrc\SrcChartEx\ChartAddIn\ChartPatternAddIn\DlgAnalysis.cpp

; 402  : 					strText = strTime.Left(2) + ":" + strTime.Mid(2, 2) + ":" + strTime.Mid(4);

  009a0	8d 85 48 ff ff
	ff		 lea	 eax, DWORD PTR $T36[ebp]
  009a6	8d 4d e4	 lea	 ecx, DWORD PTR _strText$[ebp]
  009a9	50		 push	 eax
  009aa	ff 15 00 00 00
	00		 call	 DWORD PTR __imp_??4?$CStringT@DV?$StrTraitMFC_DLL@DV?$ChTraitsCRT@D@ATL@@@@@ATL@@QAEAAV01@ABV01@@Z
  009b0	8d 8d 48 ff ff
	ff		 lea	 ecx, DWORD PTR $T36[ebp]
  009b6	81 e6 ff ff ef
	ff		 and	 esi, -1048577		; ffefffffH
  009bc	ff 15 00 00 00
	00		 call	 DWORD PTR __imp_??1?$CStringT@DV?$StrTraitMFC_DLL@DV?$ChTraitsCRT@D@ATL@@@@@ATL@@QAE@XZ
  009c2	8d 4d 94	 lea	 ecx, DWORD PTR $T55[ebp]
  009c5	81 e6 ff ff f7
	ff		 and	 esi, -524289		; fff7ffffH
  009cb	ff 15 00 00 00
	00		 call	 DWORD PTR __imp_??1?$CStringT@DV?$StrTraitMFC_DLL@DV?$ChTraitsCRT@D@ATL@@@@@ATL@@QAE@XZ
  009d1	8d 4d 90	 lea	 ecx, DWORD PTR $T54[ebp]
  009d4	81 e6 ff ff fb
	ff		 and	 esi, -262145		; fffbffffH
  009da	ff 15 00 00 00
	00		 call	 DWORD PTR __imp_??1?$CStringT@DV?$StrTraitMFC_DLL@DV?$ChTraitsCRT@D@ATL@@@@@ATL@@QAE@XZ
  009e0	81 e6 ff ff fd
	ff		 and	 esi, -131073		; fffdffffH
  009e6	8d 4d 8c	 lea	 ecx, DWORD PTR $T53[ebp]
  009e9	89 75 e8	 mov	 DWORD PTR $T78[ebp], esi
  009ec	ff 15 00 00 00
	00		 call	 DWORD PTR __imp_??1?$CStringT@DV?$StrTraitMFC_DLL@DV?$ChTraitsCRT@D@ATL@@@@@ATL@@QAE@XZ
  009f2	8d 8d f0 fe ff
	ff		 lea	 ecx, DWORD PTR $T19[ebp]
  009f8	ff 15 00 00 00
	00		 call	 DWORD PTR __imp_??1?$CStringT@DV?$StrTraitMFC_DLL@DV?$ChTraitsCRT@D@ATL@@@@@ATL@@QAE@XZ
  009fe	8d 8d ec fe ff
	ff		 lea	 ecx, DWORD PTR $T18[ebp]
  00a04	ff 15 00 00 00
	00		 call	 DWORD PTR __imp_??1?$CStringT@DV?$StrTraitMFC_DLL@DV?$ChTraitsCRT@D@ATL@@@@@ATL@@QAE@XZ
  00a0a	8d 8d e8 fe ff
	ff		 lea	 ecx, DWORD PTR $T17[ebp]
  00a10	e9 11 07 00 00	 jmp	 $LN673@SetFoundWa
$LN15@SetFoundWa:

; 404  : 					strText = strTime.Left(4) + "-" + strTime.Mid(4) + "-01";

  00a15	6a 04		 push	 4
  00a17	8d 85 e0 fe ff
	ff		 lea	 eax, DWORD PTR $T15[ebp]
  00a1d	50		 push	 eax
  00a1e	8d 4d ec	 lea	 ecx, DWORD PTR _strTime$[ebp]
  00a21	ff 15 00 00 00
	00		 call	 DWORD PTR __imp_?Mid@?$CStringT@DV?$StrTraitMFC_DLL@DV?$ChTraitsCRT@D@ATL@@@@@ATL@@QBE?AV12@H@Z
  00a27	8b f8		 mov	 edi, eax
  00a29	6a 04		 push	 4
  00a2b	8d 85 e4 fe ff
	ff		 lea	 eax, DWORD PTR $T16[ebp]
  00a31	c6 45 fc 26	 mov	 BYTE PTR __$EHRec$[ebp+8], 38 ; 00000026H
  00a35	50		 push	 eax
  00a36	8d 4d ec	 lea	 ecx, DWORD PTR _strTime$[ebp]
  00a39	ff 15 00 00 00
	00		 call	 DWORD PTR __imp_?Left@?$CStringT@DV?$StrTraitMFC_DLL@DV?$ChTraitsCRT@D@ATL@@@@@ATL@@QBE?AV12@H@Z
  00a3f	8b f0		 mov	 esi, eax
; File C:\Program Files (x86)\Microsoft Visual Studio\2019\Community\VC\Tools\MSVC\14.29.30133\atlmfc\include\cstringt.h

; 2401 : 		CStringT strResult( str1.GetManager() );

  00a41	8b ce		 mov	 ecx, esi
; File D:\git\src\IBK\IBK_DRFN\ProjSrc\SrcChartEx\ChartAddIn\ChartPatternAddIn\DlgAnalysis.cpp

; 404  : 					strText = strTime.Left(4) + "-" + strTime.Mid(4) + "-01";

  00a43	c6 45 fc 28	 mov	 BYTE PTR __$EHRec$[ebp+8], 40 ; 00000028H
; File C:\Program Files (x86)\Microsoft Visual Studio\2019\Community\VC\Tools\MSVC\14.29.30133\atlmfc\include\cstringt.h

; 2401 : 		CStringT strResult( str1.GetManager() );

  00a47	ff 15 00 00 00
	00		 call	 DWORD PTR __imp_?GetManager@?$CStringT@DV?$StrTraitMFC_DLL@DV?$ChTraitsCRT@D@ATL@@@@@ATL@@QBEPAUIAtlStringMgr@2@XZ
  00a4d	50		 push	 eax
  00a4e	8d 4d 84	 lea	 ecx, DWORD PTR $T51[ebp]
  00a51	ff 15 00 00 00
	00		 call	 DWORD PTR __imp_??0?$CStringT@DV?$StrTraitMFC_DLL@DV?$ChTraitsCRT@D@ATL@@@@@ATL@@QAE@PAUIAtlStringMgr@1@@Z

; 2405 : 		return( strResult );

  00a57	8b 45 e8	 mov	 eax, DWORD PTR $T78[ebp]
  00a5a	0d 00 00 20 00	 or	 eax, 2097152		; 00200000H
  00a5f	89 45 e8	 mov	 DWORD PTR $T78[ebp], eax
  00a62	89 45 f0	 mov	 DWORD PTR $T79[ebp], eax
; File C:\Program Files (x86)\Microsoft Visual Studio\2019\Community\VC\Tools\MSVC\14.29.30133\atlmfc\include\atlsimpstr.h

; 519  : 		return( GetData()->nDataLength );

  00a65	8b 06		 mov	 eax, DWORD PTR [esi]
; File C:\Program Files (x86)\Microsoft Visual Studio\2019\Community\VC\Tools\MSVC\14.29.30133\atlmfc\include\cstringt.h

; 2403 : 		CThisSimpleString::Concatenate( strResult, str1, str1.GetLength(), psz2, CThisSimpleString::StringLength( psz2 ) );

  00a67	6a 01		 push	 1
  00a69	68 00 00 00 00	 push	 OFFSET ??_C@_01JOAMLHOP@?9@
  00a6e	ff 70 f4	 push	 DWORD PTR [eax-12]
  00a71	50		 push	 eax
  00a72	8d 45 84	 lea	 eax, DWORD PTR $T51[ebp]
  00a75	50		 push	 eax
  00a76	ff 15 00 00 00
	00		 call	 DWORD PTR __imp_?Concatenate@?$CSimpleStringT@D$00@ATL@@KAXAAV12@PBDH1H@Z
  00a7c	83 c4 14	 add	 esp, 20			; 00000014H

; 2390 : 		CStringT strResult( str1.GetManager() );

  00a7f	8d 4d 84	 lea	 ecx, DWORD PTR $T51[ebp]
; File D:\git\src\IBK\IBK_DRFN\ProjSrc\SrcChartEx\ChartAddIn\ChartPatternAddIn\DlgAnalysis.cpp

; 404  : 					strText = strTime.Left(4) + "-" + strTime.Mid(4) + "-01";

  00a82	c6 45 fc 29	 mov	 BYTE PTR __$EHRec$[ebp+8], 41 ; 00000029H
; File C:\Program Files (x86)\Microsoft Visual Studio\2019\Community\VC\Tools\MSVC\14.29.30133\atlmfc\include\cstringt.h

; 2390 : 		CStringT strResult( str1.GetManager() );

  00a86	ff 15 00 00 00
	00		 call	 DWORD PTR __imp_?GetManager@?$CStringT@DV?$StrTraitMFC_DLL@DV?$ChTraitsCRT@D@ATL@@@@@ATL@@QBEPAUIAtlStringMgr@2@XZ
  00a8c	50		 push	 eax
  00a8d	8d 4d 88	 lea	 ecx, DWORD PTR $T52[ebp]
  00a90	ff 15 00 00 00
	00		 call	 DWORD PTR __imp_??0?$CStringT@DV?$StrTraitMFC_DLL@DV?$ChTraitsCRT@D@ATL@@@@@ATL@@QAE@PAUIAtlStringMgr@1@@Z
; File C:\Program Files (x86)\Microsoft Visual Studio\2019\Community\VC\Tools\MSVC\14.29.30133\atlmfc\include\atlsimpstr.h

; 519  : 		return( GetData()->nDataLength );

  00a96	8b 0f		 mov	 ecx, DWORD PTR [edi]
  00a98	8b 45 84	 mov	 eax, DWORD PTR $T51[ebp]
; File C:\Program Files (x86)\Microsoft Visual Studio\2019\Community\VC\Tools\MSVC\14.29.30133\atlmfc\include\cstringt.h

; 2394 : 		return( strResult );

  00a9b	8b 75 e8	 mov	 esi, DWORD PTR $T78[ebp]
  00a9e	81 ce 00 00 40
	00		 or	 esi, 4194304		; 00400000H
  00aa4	ff 71 f4	 push	 DWORD PTR [ecx-12]
  00aa7	89 75 f0	 mov	 DWORD PTR $T79[ebp], esi
  00aaa	51		 push	 ecx
  00aab	ff 70 f4	 push	 DWORD PTR [eax-12]
  00aae	50		 push	 eax
  00aaf	8d 45 88	 lea	 eax, DWORD PTR $T52[ebp]
  00ab2	50		 push	 eax
  00ab3	ff 15 00 00 00
	00		 call	 DWORD PTR __imp_?Concatenate@?$CSimpleStringT@D$00@ATL@@KAXAAV12@PBDH1H@Z
  00ab9	83 c4 14	 add	 esp, 20			; 00000014H

; 2401 : 		CStringT strResult( str1.GetManager() );

  00abc	8d 4d 88	 lea	 ecx, DWORD PTR $T52[ebp]
; File D:\git\src\IBK\IBK_DRFN\ProjSrc\SrcChartEx\ChartAddIn\ChartPatternAddIn\DlgAnalysis.cpp

; 404  : 					strText = strTime.Left(4) + "-" + strTime.Mid(4) + "-01";

  00abf	c6 45 fc 2a	 mov	 BYTE PTR __$EHRec$[ebp+8], 42 ; 0000002aH
; File C:\Program Files (x86)\Microsoft Visual Studio\2019\Community\VC\Tools\MSVC\14.29.30133\atlmfc\include\cstringt.h

; 2401 : 		CStringT strResult( str1.GetManager() );

  00ac3	ff 15 00 00 00
	00		 call	 DWORD PTR __imp_?GetManager@?$CStringT@DV?$StrTraitMFC_DLL@DV?$ChTraitsCRT@D@ATL@@@@@ATL@@QBEPAUIAtlStringMgr@2@XZ
  00ac9	50		 push	 eax
  00aca	8d 8d 44 ff ff
	ff		 lea	 ecx, DWORD PTR $T35[ebp]
  00ad0	ff 15 00 00 00
	00		 call	 DWORD PTR __imp_??0?$CStringT@DV?$StrTraitMFC_DLL@DV?$ChTraitsCRT@D@ATL@@@@@ATL@@QAE@PAUIAtlStringMgr@1@@Z
; File C:\Program Files (x86)\Microsoft Visual Studio\2019\Community\VC\Tools\MSVC\14.29.30133\atlmfc\include\atlsimpstr.h

; 519  : 		return( GetData()->nDataLength );

  00ad6	8b 45 88	 mov	 eax, DWORD PTR $T52[ebp]
; File C:\Program Files (x86)\Microsoft Visual Studio\2019\Community\VC\Tools\MSVC\14.29.30133\atlmfc\include\cstringt.h

; 2405 : 		return( strResult );

  00ad9	81 ce 00 00 80
	00		 or	 esi, 8388608		; 00800000H
  00adf	6a 03		 push	 3
  00ae1	68 00 00 00 00	 push	 OFFSET ??_C@_03GONFLFCC@?901@
  00ae6	89 75 f0	 mov	 DWORD PTR $T79[ebp], esi
  00ae9	ff 70 f4	 push	 DWORD PTR [eax-12]
  00aec	50		 push	 eax
  00aed	8d 85 44 ff ff
	ff		 lea	 eax, DWORD PTR $T35[ebp]
  00af3	50		 push	 eax
  00af4	ff 15 00 00 00
	00		 call	 DWORD PTR __imp_?Concatenate@?$CSimpleStringT@D$00@ATL@@KAXAAV12@PBDH1H@Z
  00afa	83 c4 14	 add	 esp, 20			; 00000014H
; File D:\git\src\IBK\IBK_DRFN\ProjSrc\SrcChartEx\ChartAddIn\ChartPatternAddIn\DlgAnalysis.cpp

; 404  : 					strText = strTime.Left(4) + "-" + strTime.Mid(4) + "-01";

  00afd	8d 85 44 ff ff
	ff		 lea	 eax, DWORD PTR $T35[ebp]
  00b03	8d 4d e4	 lea	 ecx, DWORD PTR _strText$[ebp]
  00b06	50		 push	 eax
  00b07	ff 15 00 00 00
	00		 call	 DWORD PTR __imp_??4?$CStringT@DV?$StrTraitMFC_DLL@DV?$ChTraitsCRT@D@ATL@@@@@ATL@@QAEAAV01@ABV01@@Z
  00b0d	8d 8d 44 ff ff
	ff		 lea	 ecx, DWORD PTR $T35[ebp]
  00b13	81 e6 ff ff 7f
	ff		 and	 esi, -8388609		; ff7fffffH
  00b19	ff 15 00 00 00
	00		 call	 DWORD PTR __imp_??1?$CStringT@DV?$StrTraitMFC_DLL@DV?$ChTraitsCRT@D@ATL@@@@@ATL@@QAE@XZ
  00b1f	81 e6 ff ff bf
	ff		 and	 esi, -4194305		; ffbfffffH
  00b25	8d 4d 88	 lea	 ecx, DWORD PTR $T52[ebp]
  00b28	ff 15 00 00 00
	00		 call	 DWORD PTR __imp_??1?$CStringT@DV?$StrTraitMFC_DLL@DV?$ChTraitsCRT@D@ATL@@@@@ATL@@QAE@XZ
  00b2e	81 e6 ff ff df
	ff		 and	 esi, -2097153		; ffdfffffH
  00b34	8d 4d 84	 lea	 ecx, DWORD PTR $T51[ebp]
  00b37	89 75 e8	 mov	 DWORD PTR $T78[ebp], esi
  00b3a	ff 15 00 00 00
	00		 call	 DWORD PTR __imp_??1?$CStringT@DV?$StrTraitMFC_DLL@DV?$ChTraitsCRT@D@ATL@@@@@ATL@@QAE@XZ
  00b40	8d 8d e4 fe ff
	ff		 lea	 ecx, DWORD PTR $T16[ebp]
  00b46	ff 15 00 00 00
	00		 call	 DWORD PTR __imp_??1?$CStringT@DV?$StrTraitMFC_DLL@DV?$ChTraitsCRT@D@ATL@@@@@ATL@@QAE@XZ
  00b4c	8d 8d e0 fe ff
	ff		 lea	 ecx, DWORD PTR $T15[ebp]

; 405  : 			}

  00b52	e9 cf 05 00 00	 jmp	 $LN673@SetFoundWa
$LN13@SetFoundWa:

; 406  : 			else if(strTime.GetLength() == 5)

  00b57	83 f8 05	 cmp	 eax, 5
  00b5a	0f 85 2c 02 00
	00		 jne	 $LN17@SetFoundWa

; 408  : 				strText = "0" + strTime.Left(1) + ":" + strTime.Mid(1, 2) + ":" + strTime.Mid(3);

  00b60	6a 03		 push	 3
  00b62	8d 85 d4 fe ff
	ff		 lea	 eax, DWORD PTR $T12[ebp]
  00b68	50		 push	 eax
  00b69	8d 4d ec	 lea	 ecx, DWORD PTR _strTime$[ebp]
  00b6c	ff 15 00 00 00
	00		 call	 DWORD PTR __imp_?Mid@?$CStringT@DV?$StrTraitMFC_DLL@DV?$ChTraitsCRT@D@ATL@@@@@ATL@@QBE?AV12@H@Z
  00b72	89 45 e0	 mov	 DWORD PTR $T73[ebp], eax
  00b75	6a 02		 push	 2
  00b77	6a 01		 push	 1
  00b79	8d 85 d8 fe ff
	ff		 lea	 eax, DWORD PTR $T13[ebp]
  00b7f	c6 45 fc 2b	 mov	 BYTE PTR __$EHRec$[ebp+8], 43 ; 0000002bH
  00b83	50		 push	 eax
  00b84	8d 4d ec	 lea	 ecx, DWORD PTR _strTime$[ebp]
  00b87	ff 15 00 00 00
	00		 call	 DWORD PTR __imp_?Mid@?$CStringT@DV?$StrTraitMFC_DLL@DV?$ChTraitsCRT@D@ATL@@@@@ATL@@QBE?AV12@HH@Z
  00b8d	8b f8		 mov	 edi, eax
  00b8f	6a 01		 push	 1
  00b91	8d 85 dc fe ff
	ff		 lea	 eax, DWORD PTR $T14[ebp]
  00b97	c6 45 fc 2c	 mov	 BYTE PTR __$EHRec$[ebp+8], 44 ; 0000002cH
  00b9b	50		 push	 eax
  00b9c	8d 4d ec	 lea	 ecx, DWORD PTR _strTime$[ebp]
  00b9f	ff 15 00 00 00
	00		 call	 DWORD PTR __imp_?Left@?$CStringT@DV?$StrTraitMFC_DLL@DV?$ChTraitsCRT@D@ATL@@@@@ATL@@QBE?AV12@H@Z
  00ba5	8b f0		 mov	 esi, eax
; File C:\Program Files (x86)\Microsoft Visual Studio\2019\Community\VC\Tools\MSVC\14.29.30133\atlmfc\include\cstringt.h

; 2412 : 		CStringT strResult( str2.GetManager() );

  00ba7	8b ce		 mov	 ecx, esi
; File D:\git\src\IBK\IBK_DRFN\ProjSrc\SrcChartEx\ChartAddIn\ChartPatternAddIn\DlgAnalysis.cpp

; 408  : 				strText = "0" + strTime.Left(1) + ":" + strTime.Mid(1, 2) + ":" + strTime.Mid(3);

  00ba9	c6 45 fc 2e	 mov	 BYTE PTR __$EHRec$[ebp+8], 46 ; 0000002eH
; File C:\Program Files (x86)\Microsoft Visual Studio\2019\Community\VC\Tools\MSVC\14.29.30133\atlmfc\include\cstringt.h

; 2412 : 		CStringT strResult( str2.GetManager() );

  00bad	ff 15 00 00 00
	00		 call	 DWORD PTR __imp_?GetManager@?$CStringT@DV?$StrTraitMFC_DLL@DV?$ChTraitsCRT@D@ATL@@@@@ATL@@QBEPAUIAtlStringMgr@2@XZ
  00bb3	50		 push	 eax
  00bb4	8d 8d 74 ff ff
	ff		 lea	 ecx, DWORD PTR $T47[ebp]
  00bba	ff 15 00 00 00
	00		 call	 DWORD PTR __imp_??0?$CStringT@DV?$StrTraitMFC_DLL@DV?$ChTraitsCRT@D@ATL@@@@@ATL@@QAE@PAUIAtlStringMgr@1@@Z

; 2415 : 
; 2416 : 		return( strResult );

  00bc0	8b 45 e8	 mov	 eax, DWORD PTR $T78[ebp]
  00bc3	0d 00 00 00 01	 or	 eax, 16777216		; 01000000H
  00bc8	89 45 e8	 mov	 DWORD PTR $T78[ebp], eax
  00bcb	89 45 f0	 mov	 DWORD PTR $T79[ebp], eax
; File C:\Program Files (x86)\Microsoft Visual Studio\2019\Community\VC\Tools\MSVC\14.29.30133\atlmfc\include\atlsimpstr.h

; 519  : 		return( GetData()->nDataLength );

  00bce	8b 06		 mov	 eax, DWORD PTR [esi]
; File C:\Program Files (x86)\Microsoft Visual Studio\2019\Community\VC\Tools\MSVC\14.29.30133\atlmfc\include\cstringt.h

; 2414 : 		CThisSimpleString::Concatenate( strResult, psz1, CThisSimpleString::StringLength( psz1 ), str2, str2.GetLength() );

  00bd0	ff 70 f4	 push	 DWORD PTR [eax-12]
  00bd3	50		 push	 eax
  00bd4	6a 01		 push	 1
  00bd6	8d 85 74 ff ff
	ff		 lea	 eax, DWORD PTR $T47[ebp]
  00bdc	68 00 00 00 00	 push	 OFFSET ??_C@_01GBGANLPD@0@
  00be1	50		 push	 eax
  00be2	ff 15 00 00 00
	00		 call	 DWORD PTR __imp_?Concatenate@?$CSimpleStringT@D$00@ATL@@KAXAAV12@PBDH1H@Z
  00be8	83 c4 14	 add	 esp, 20			; 00000014H

; 2401 : 		CStringT strResult( str1.GetManager() );

  00beb	8d 8d 74 ff ff
	ff		 lea	 ecx, DWORD PTR $T47[ebp]
; File D:\git\src\IBK\IBK_DRFN\ProjSrc\SrcChartEx\ChartAddIn\ChartPatternAddIn\DlgAnalysis.cpp

; 408  : 				strText = "0" + strTime.Left(1) + ":" + strTime.Mid(1, 2) + ":" + strTime.Mid(3);

  00bf1	c6 45 fc 2f	 mov	 BYTE PTR __$EHRec$[ebp+8], 47 ; 0000002fH
; File C:\Program Files (x86)\Microsoft Visual Studio\2019\Community\VC\Tools\MSVC\14.29.30133\atlmfc\include\cstringt.h

; 2401 : 		CStringT strResult( str1.GetManager() );

  00bf5	ff 15 00 00 00
	00		 call	 DWORD PTR __imp_?GetManager@?$CStringT@DV?$StrTraitMFC_DLL@DV?$ChTraitsCRT@D@ATL@@@@@ATL@@QBEPAUIAtlStringMgr@2@XZ
  00bfb	50		 push	 eax
  00bfc	8d 8d 78 ff ff
	ff		 lea	 ecx, DWORD PTR $T48[ebp]
  00c02	ff 15 00 00 00
	00		 call	 DWORD PTR __imp_??0?$CStringT@DV?$StrTraitMFC_DLL@DV?$ChTraitsCRT@D@ATL@@@@@ATL@@QAE@PAUIAtlStringMgr@1@@Z
; File C:\Program Files (x86)\Microsoft Visual Studio\2019\Community\VC\Tools\MSVC\14.29.30133\atlmfc\include\atlsimpstr.h

; 519  : 		return( GetData()->nDataLength );

  00c08	8b 85 74 ff ff
	ff		 mov	 eax, DWORD PTR $T47[ebp]
; File C:\Program Files (x86)\Microsoft Visual Studio\2019\Community\VC\Tools\MSVC\14.29.30133\atlmfc\include\cstringt.h

; 2405 : 		return( strResult );

  00c0e	8b 75 e8	 mov	 esi, DWORD PTR $T78[ebp]
  00c11	6a 01		 push	 1
  00c13	68 00 00 00 00	 push	 OFFSET ??_C@_01JLIPDDHJ@?3@
  00c18	ff 70 f4	 push	 DWORD PTR [eax-12]
  00c1b	81 ce 00 00 00
	02		 or	 esi, 33554432		; 02000000H
  00c21	50		 push	 eax
  00c22	8d 85 78 ff ff
	ff		 lea	 eax, DWORD PTR $T48[ebp]
  00c28	89 75 f0	 mov	 DWORD PTR $T79[ebp], esi
  00c2b	50		 push	 eax
  00c2c	ff 15 00 00 00
	00		 call	 DWORD PTR __imp_?Concatenate@?$CSimpleStringT@D$00@ATL@@KAXAAV12@PBDH1H@Z
  00c32	83 c4 14	 add	 esp, 20			; 00000014H

; 2390 : 		CStringT strResult( str1.GetManager() );

  00c35	8d 8d 78 ff ff
	ff		 lea	 ecx, DWORD PTR $T48[ebp]
; File D:\git\src\IBK\IBK_DRFN\ProjSrc\SrcChartEx\ChartAddIn\ChartPatternAddIn\DlgAnalysis.cpp

; 408  : 				strText = "0" + strTime.Left(1) + ":" + strTime.Mid(1, 2) + ":" + strTime.Mid(3);

  00c3b	c6 45 fc 30	 mov	 BYTE PTR __$EHRec$[ebp+8], 48 ; 00000030H
; File C:\Program Files (x86)\Microsoft Visual Studio\2019\Community\VC\Tools\MSVC\14.29.30133\atlmfc\include\cstringt.h

; 2390 : 		CStringT strResult( str1.GetManager() );

  00c3f	ff 15 00 00 00
	00		 call	 DWORD PTR __imp_?GetManager@?$CStringT@DV?$StrTraitMFC_DLL@DV?$ChTraitsCRT@D@ATL@@@@@ATL@@QBEPAUIAtlStringMgr@2@XZ
  00c45	50		 push	 eax
  00c46	8d 8d 7c ff ff
	ff		 lea	 ecx, DWORD PTR $T49[ebp]
  00c4c	ff 15 00 00 00
	00		 call	 DWORD PTR __imp_??0?$CStringT@DV?$StrTraitMFC_DLL@DV?$ChTraitsCRT@D@ATL@@@@@ATL@@QAE@PAUIAtlStringMgr@1@@Z
; File C:\Program Files (x86)\Microsoft Visual Studio\2019\Community\VC\Tools\MSVC\14.29.30133\atlmfc\include\atlsimpstr.h

; 519  : 		return( GetData()->nDataLength );

  00c52	8b 0f		 mov	 ecx, DWORD PTR [edi]
; File C:\Program Files (x86)\Microsoft Visual Studio\2019\Community\VC\Tools\MSVC\14.29.30133\atlmfc\include\cstringt.h

; 2394 : 		return( strResult );

  00c54	81 ce 00 00 00
	04		 or	 esi, 67108864		; 04000000H
; File C:\Program Files (x86)\Microsoft Visual Studio\2019\Community\VC\Tools\MSVC\14.29.30133\atlmfc\include\atlsimpstr.h

; 519  : 		return( GetData()->nDataLength );

  00c5a	8b 85 78 ff ff
	ff		 mov	 eax, DWORD PTR $T48[ebp]
; File C:\Program Files (x86)\Microsoft Visual Studio\2019\Community\VC\Tools\MSVC\14.29.30133\atlmfc\include\cstringt.h

; 2394 : 		return( strResult );

  00c60	89 75 f0	 mov	 DWORD PTR $T79[ebp], esi
  00c63	ff 71 f4	 push	 DWORD PTR [ecx-12]
  00c66	51		 push	 ecx
  00c67	ff 70 f4	 push	 DWORD PTR [eax-12]
  00c6a	50		 push	 eax
  00c6b	8d 85 7c ff ff
	ff		 lea	 eax, DWORD PTR $T49[ebp]
  00c71	50		 push	 eax
  00c72	ff 15 00 00 00
	00		 call	 DWORD PTR __imp_?Concatenate@?$CSimpleStringT@D$00@ATL@@KAXAAV12@PBDH1H@Z

; 2392 : 		CThisSimpleString::Concatenate( strResult, str1, str1.GetLength(), str2, str2.GetLength() );

  00c78	83 c4 14	 add	 esp, 20			; 00000014H

; 2401 : 		CStringT strResult( str1.GetManager() );

  00c7b	8d 8d 7c ff ff
	ff		 lea	 ecx, DWORD PTR $T49[ebp]
; File D:\git\src\IBK\IBK_DRFN\ProjSrc\SrcChartEx\ChartAddIn\ChartPatternAddIn\DlgAnalysis.cpp

; 408  : 				strText = "0" + strTime.Left(1) + ":" + strTime.Mid(1, 2) + ":" + strTime.Mid(3);

  00c81	c6 45 fc 31	 mov	 BYTE PTR __$EHRec$[ebp+8], 49 ; 00000031H
; File C:\Program Files (x86)\Microsoft Visual Studio\2019\Community\VC\Tools\MSVC\14.29.30133\atlmfc\include\cstringt.h

; 2401 : 		CStringT strResult( str1.GetManager() );

  00c85	ff 15 00 00 00
	00		 call	 DWORD PTR __imp_?GetManager@?$CStringT@DV?$StrTraitMFC_DLL@DV?$ChTraitsCRT@D@ATL@@@@@ATL@@QBEPAUIAtlStringMgr@2@XZ
  00c8b	50		 push	 eax
  00c8c	8d 4d 80	 lea	 ecx, DWORD PTR $T50[ebp]
  00c8f	ff 15 00 00 00
	00		 call	 DWORD PTR __imp_??0?$CStringT@DV?$StrTraitMFC_DLL@DV?$ChTraitsCRT@D@ATL@@@@@ATL@@QAE@PAUIAtlStringMgr@1@@Z
; File C:\Program Files (x86)\Microsoft Visual Studio\2019\Community\VC\Tools\MSVC\14.29.30133\atlmfc\include\atlsimpstr.h

; 519  : 		return( GetData()->nDataLength );

  00c95	8b 85 7c ff ff
	ff		 mov	 eax, DWORD PTR $T49[ebp]
; File C:\Program Files (x86)\Microsoft Visual Studio\2019\Community\VC\Tools\MSVC\14.29.30133\atlmfc\include\cstringt.h

; 2405 : 		return( strResult );

  00c9b	81 ce 00 00 00
	08		 or	 esi, 134217728		; 08000000H
  00ca1	6a 01		 push	 1
  00ca3	68 00 00 00 00	 push	 OFFSET ??_C@_01JLIPDDHJ@?3@
  00ca8	89 75 f0	 mov	 DWORD PTR $T79[ebp], esi
  00cab	ff 70 f4	 push	 DWORD PTR [eax-12]
  00cae	50		 push	 eax
  00caf	8d 45 80	 lea	 eax, DWORD PTR $T50[ebp]
  00cb2	50		 push	 eax
  00cb3	ff 15 00 00 00
	00		 call	 DWORD PTR __imp_?Concatenate@?$CSimpleStringT@D$00@ATL@@KAXAAV12@PBDH1H@Z
  00cb9	83 c4 14	 add	 esp, 20			; 00000014H

; 2390 : 		CStringT strResult( str1.GetManager() );

  00cbc	8d 4d 80	 lea	 ecx, DWORD PTR $T50[ebp]
; File D:\git\src\IBK\IBK_DRFN\ProjSrc\SrcChartEx\ChartAddIn\ChartPatternAddIn\DlgAnalysis.cpp

; 408  : 				strText = "0" + strTime.Left(1) + ":" + strTime.Mid(1, 2) + ":" + strTime.Mid(3);

  00cbf	c6 45 fc 32	 mov	 BYTE PTR __$EHRec$[ebp+8], 50 ; 00000032H
; File C:\Program Files (x86)\Microsoft Visual Studio\2019\Community\VC\Tools\MSVC\14.29.30133\atlmfc\include\cstringt.h

; 2390 : 		CStringT strResult( str1.GetManager() );

  00cc3	ff 15 00 00 00
	00		 call	 DWORD PTR __imp_?GetManager@?$CStringT@DV?$StrTraitMFC_DLL@DV?$ChTraitsCRT@D@ATL@@@@@ATL@@QBEPAUIAtlStringMgr@2@XZ
  00cc9	50		 push	 eax
  00cca	8d 8d 40 ff ff
	ff		 lea	 ecx, DWORD PTR $T34[ebp]
  00cd0	ff 15 00 00 00
	00		 call	 DWORD PTR __imp_??0?$CStringT@DV?$StrTraitMFC_DLL@DV?$ChTraitsCRT@D@ATL@@@@@ATL@@QAE@PAUIAtlStringMgr@1@@Z
; File C:\Program Files (x86)\Microsoft Visual Studio\2019\Community\VC\Tools\MSVC\14.29.30133\atlmfc\include\atlsimpstr.h

; 519  : 		return( GetData()->nDataLength );

  00cd6	8b 4d e0	 mov	 ecx, DWORD PTR $T73[ebp]
; File C:\Program Files (x86)\Microsoft Visual Studio\2019\Community\VC\Tools\MSVC\14.29.30133\atlmfc\include\cstringt.h

; 2394 : 		return( strResult );

  00cd9	81 ce 00 00 00
	10		 or	 esi, 268435456		; 10000000H
; File C:\Program Files (x86)\Microsoft Visual Studio\2019\Community\VC\Tools\MSVC\14.29.30133\atlmfc\include\atlsimpstr.h

; 519  : 		return( GetData()->nDataLength );

  00cdf	8b 45 80	 mov	 eax, DWORD PTR $T50[ebp]
; File C:\Program Files (x86)\Microsoft Visual Studio\2019\Community\VC\Tools\MSVC\14.29.30133\atlmfc\include\cstringt.h

; 2394 : 		return( strResult );

  00ce2	89 75 f0	 mov	 DWORD PTR $T79[ebp], esi
; File C:\Program Files (x86)\Microsoft Visual Studio\2019\Community\VC\Tools\MSVC\14.29.30133\atlmfc\include\atlsimpstr.h

; 519  : 		return( GetData()->nDataLength );

  00ce5	8b 09		 mov	 ecx, DWORD PTR [ecx]
; File C:\Program Files (x86)\Microsoft Visual Studio\2019\Community\VC\Tools\MSVC\14.29.30133\atlmfc\include\cstringt.h

; 2392 : 		CThisSimpleString::Concatenate( strResult, str1, str1.GetLength(), str2, str2.GetLength() );

  00ce7	ff 71 f4	 push	 DWORD PTR [ecx-12]
  00cea	51		 push	 ecx
  00ceb	ff 70 f4	 push	 DWORD PTR [eax-12]
  00cee	50		 push	 eax
  00cef	8d 85 40 ff ff
	ff		 lea	 eax, DWORD PTR $T34[ebp]
  00cf5	50		 push	 eax
  00cf6	ff 15 00 00 00
	00		 call	 DWORD PTR __imp_?Concatenate@?$CSimpleStringT@D$00@ATL@@KAXAAV12@PBDH1H@Z
  00cfc	83 c4 14	 add	 esp, 20			; 00000014H
; File D:\git\src\IBK\IBK_DRFN\ProjSrc\SrcChartEx\ChartAddIn\ChartPatternAddIn\DlgAnalysis.cpp

; 408  : 				strText = "0" + strTime.Left(1) + ":" + strTime.Mid(1, 2) + ":" + strTime.Mid(3);

  00cff	8d 85 40 ff ff
	ff		 lea	 eax, DWORD PTR $T34[ebp]
  00d05	8d 4d e4	 lea	 ecx, DWORD PTR _strText$[ebp]
  00d08	50		 push	 eax
  00d09	ff 15 00 00 00
	00		 call	 DWORD PTR __imp_??4?$CStringT@DV?$StrTraitMFC_DLL@DV?$ChTraitsCRT@D@ATL@@@@@ATL@@QAEAAV01@ABV01@@Z
  00d0f	8d 8d 40 ff ff
	ff		 lea	 ecx, DWORD PTR $T34[ebp]
  00d15	81 e6 ff ff ff
	ef		 and	 esi, -268435457		; efffffffH
  00d1b	ff 15 00 00 00
	00		 call	 DWORD PTR __imp_??1?$CStringT@DV?$StrTraitMFC_DLL@DV?$ChTraitsCRT@D@ATL@@@@@ATL@@QAE@XZ
  00d21	8d 4d 80	 lea	 ecx, DWORD PTR $T50[ebp]
  00d24	81 e6 ff ff ff
	f7		 and	 esi, -134217729		; f7ffffffH
  00d2a	ff 15 00 00 00
	00		 call	 DWORD PTR __imp_??1?$CStringT@DV?$StrTraitMFC_DLL@DV?$ChTraitsCRT@D@ATL@@@@@ATL@@QAE@XZ
  00d30	8d 8d 7c ff ff
	ff		 lea	 ecx, DWORD PTR $T49[ebp]
  00d36	81 e6 ff ff ff
	fb		 and	 esi, -67108865		; fbffffffH
  00d3c	ff 15 00 00 00
	00		 call	 DWORD PTR __imp_??1?$CStringT@DV?$StrTraitMFC_DLL@DV?$ChTraitsCRT@D@ATL@@@@@ATL@@QAE@XZ
  00d42	8d 8d 78 ff ff
	ff		 lea	 ecx, DWORD PTR $T48[ebp]
  00d48	81 e6 ff ff ff
	fd		 and	 esi, -33554433		; fdffffffH
  00d4e	ff 15 00 00 00
	00		 call	 DWORD PTR __imp_??1?$CStringT@DV?$StrTraitMFC_DLL@DV?$ChTraitsCRT@D@ATL@@@@@ATL@@QAE@XZ
  00d54	81 e6 ff ff ff
	fe		 and	 esi, -16777217		; feffffffH
  00d5a	8d 8d 74 ff ff
	ff		 lea	 ecx, DWORD PTR $T47[ebp]
  00d60	89 75 e8	 mov	 DWORD PTR $T78[ebp], esi
  00d63	ff 15 00 00 00
	00		 call	 DWORD PTR __imp_??1?$CStringT@DV?$StrTraitMFC_DLL@DV?$ChTraitsCRT@D@ATL@@@@@ATL@@QAE@XZ
  00d69	8d 8d dc fe ff
	ff		 lea	 ecx, DWORD PTR $T14[ebp]
  00d6f	ff 15 00 00 00
	00		 call	 DWORD PTR __imp_??1?$CStringT@DV?$StrTraitMFC_DLL@DV?$ChTraitsCRT@D@ATL@@@@@ATL@@QAE@XZ
  00d75	8d 8d d8 fe ff
	ff		 lea	 ecx, DWORD PTR $T13[ebp]
  00d7b	ff 15 00 00 00
	00		 call	 DWORD PTR __imp_??1?$CStringT@DV?$StrTraitMFC_DLL@DV?$ChTraitsCRT@D@ATL@@@@@ATL@@QAE@XZ
  00d81	8d 8d d4 fe ff
	ff		 lea	 ecx, DWORD PTR $T12[ebp]

; 409  : 			}

  00d87	e9 9a 03 00 00	 jmp	 $LN673@SetFoundWa
$LN17@SetFoundWa:

; 410  : 			// 2011.01.06 by SYS >>  YYYY() 
; 411  : 			else if(strTime.GetLength()==14)

  00d8c	83 f8 0e	 cmp	 eax, 14			; 0000000eH
  00d8f	0f 85 a1 03 00
	00		 jne	 $LN19@SetFoundWa

; 415  : 				strText = strTime.Mid(2,2) + "/" + strTime.Mid(4,2) + "/" + strTime.Mid(6, 2) + "," + strTime.Mid(8, 2) + ":" + strTime.Mid(10,2);

  00d95	6a 02		 push	 2
  00d97	6a 0a		 push	 10			; 0000000aH
  00d99	8d 85 bc fe ff
	ff		 lea	 eax, DWORD PTR $T6[ebp]
  00d9f	50		 push	 eax
  00da0	8d 4d ec	 lea	 ecx, DWORD PTR _strTime$[ebp]
  00da3	ff 15 00 00 00
	00		 call	 DWORD PTR __imp_?Mid@?$CStringT@DV?$StrTraitMFC_DLL@DV?$ChTraitsCRT@D@ATL@@@@@ATL@@QBE?AV12@HH@Z
  00da9	89 85 30 ff ff
	ff		 mov	 DWORD PTR $T31[ebp], eax
  00daf	6a 02		 push	 2
  00db1	6a 08		 push	 8
  00db3	8d 85 c0 fe ff
	ff		 lea	 eax, DWORD PTR $T7[ebp]
  00db9	c6 45 fc 33	 mov	 BYTE PTR __$EHRec$[ebp+8], 51 ; 00000033H
  00dbd	50		 push	 eax
  00dbe	8d 4d ec	 lea	 ecx, DWORD PTR _strTime$[ebp]
  00dc1	ff 15 00 00 00
	00		 call	 DWORD PTR __imp_?Mid@?$CStringT@DV?$StrTraitMFC_DLL@DV?$ChTraitsCRT@D@ATL@@@@@ATL@@QBE?AV12@HH@Z
  00dc7	89 85 b0 fe ff
	ff		 mov	 DWORD PTR $T3[ebp], eax
  00dcd	6a 02		 push	 2
  00dcf	6a 06		 push	 6
  00dd1	8d 85 c4 fe ff
	ff		 lea	 eax, DWORD PTR $T8[ebp]
  00dd7	c6 45 fc 34	 mov	 BYTE PTR __$EHRec$[ebp+8], 52 ; 00000034H
  00ddb	50		 push	 eax
  00ddc	8d 4d ec	 lea	 ecx, DWORD PTR _strTime$[ebp]
  00ddf	ff 15 00 00 00
	00		 call	 DWORD PTR __imp_?Mid@?$CStringT@DV?$StrTraitMFC_DLL@DV?$ChTraitsCRT@D@ATL@@@@@ATL@@QBE?AV12@HH@Z
  00de5	89 45 e0	 mov	 DWORD PTR $T72[ebp], eax
  00de8	6a 02		 push	 2
  00dea	6a 04		 push	 4
  00dec	8d 85 c8 fe ff
	ff		 lea	 eax, DWORD PTR $T9[ebp]
  00df2	c6 45 fc 35	 mov	 BYTE PTR __$EHRec$[ebp+8], 53 ; 00000035H
  00df6	50		 push	 eax
  00df7	8d 4d ec	 lea	 ecx, DWORD PTR _strTime$[ebp]
  00dfa	ff 15 00 00 00
	00		 call	 DWORD PTR __imp_?Mid@?$CStringT@DV?$StrTraitMFC_DLL@DV?$ChTraitsCRT@D@ATL@@@@@ATL@@QBE?AV12@HH@Z
  00e00	8b f8		 mov	 edi, eax
  00e02	6a 02		 push	 2
  00e04	6a 02		 push	 2
  00e06	8d 85 cc fe ff
	ff		 lea	 eax, DWORD PTR $T10[ebp]
  00e0c	c6 45 fc 36	 mov	 BYTE PTR __$EHRec$[ebp+8], 54 ; 00000036H
  00e10	50		 push	 eax
  00e11	8d 4d ec	 lea	 ecx, DWORD PTR _strTime$[ebp]
  00e14	ff 15 00 00 00
	00		 call	 DWORD PTR __imp_?Mid@?$CStringT@DV?$StrTraitMFC_DLL@DV?$ChTraitsCRT@D@ATL@@@@@ATL@@QBE?AV12@HH@Z
  00e1a	8b f0		 mov	 esi, eax
; File C:\Program Files (x86)\Microsoft Visual Studio\2019\Community\VC\Tools\MSVC\14.29.30133\atlmfc\include\cstringt.h

; 2401 : 		CStringT strResult( str1.GetManager() );

  00e1c	8b ce		 mov	 ecx, esi
; File D:\git\src\IBK\IBK_DRFN\ProjSrc\SrcChartEx\ChartAddIn\ChartPatternAddIn\DlgAnalysis.cpp

; 415  : 				strText = strTime.Mid(2,2) + "/" + strTime.Mid(4,2) + "/" + strTime.Mid(6, 2) + "," + strTime.Mid(8, 2) + ":" + strTime.Mid(10,2);

  00e1e	c6 45 fc 38	 mov	 BYTE PTR __$EHRec$[ebp+8], 56 ; 00000038H
; File C:\Program Files (x86)\Microsoft Visual Studio\2019\Community\VC\Tools\MSVC\14.29.30133\atlmfc\include\cstringt.h

; 2401 : 		CStringT strResult( str1.GetManager() );

  00e22	ff 15 00 00 00
	00		 call	 DWORD PTR __imp_?GetManager@?$CStringT@DV?$StrTraitMFC_DLL@DV?$ChTraitsCRT@D@ATL@@@@@ATL@@QBEPAUIAtlStringMgr@2@XZ
  00e28	50		 push	 eax
  00e29	8d 8d 58 ff ff
	ff		 lea	 ecx, DWORD PTR $T40[ebp]
  00e2f	ff 15 00 00 00
	00		 call	 DWORD PTR __imp_??0?$CStringT@DV?$StrTraitMFC_DLL@DV?$ChTraitsCRT@D@ATL@@@@@ATL@@QAE@PAUIAtlStringMgr@1@@Z

; 2405 : 		return( strResult );

  00e35	8b 45 e8	 mov	 eax, DWORD PTR $T78[ebp]
  00e38	0d 00 00 00 20	 or	 eax, 536870912		; 20000000H
  00e3d	89 45 e8	 mov	 DWORD PTR $T78[ebp], eax
  00e40	89 45 f0	 mov	 DWORD PTR $T79[ebp], eax
; File C:\Program Files (x86)\Microsoft Visual Studio\2019\Community\VC\Tools\MSVC\14.29.30133\atlmfc\include\atlsimpstr.h

; 519  : 		return( GetData()->nDataLength );

  00e43	8b 06		 mov	 eax, DWORD PTR [esi]
; File C:\Program Files (x86)\Microsoft Visual Studio\2019\Community\VC\Tools\MSVC\14.29.30133\atlmfc\include\cstringt.h

; 2403 : 		CThisSimpleString::Concatenate( strResult, str1, str1.GetLength(), psz2, CThisSimpleString::StringLength( psz2 ) );

  00e45	6a 01		 push	 1
  00e47	68 00 00 00 00	 push	 OFFSET ??_C@_01KMDKNFGN@?1@
  00e4c	ff 70 f4	 push	 DWORD PTR [eax-12]
  00e4f	50		 push	 eax
  00e50	8d 85 58 ff ff
	ff		 lea	 eax, DWORD PTR $T40[ebp]
  00e56	50		 push	 eax
  00e57	ff 15 00 00 00
	00		 call	 DWORD PTR __imp_?Concatenate@?$CSimpleStringT@D$00@ATL@@KAXAAV12@PBDH1H@Z
  00e5d	83 c4 14	 add	 esp, 20			; 00000014H

; 2390 : 		CStringT strResult( str1.GetManager() );

  00e60	8d 8d 58 ff ff
	ff		 lea	 ecx, DWORD PTR $T40[ebp]
; File D:\git\src\IBK\IBK_DRFN\ProjSrc\SrcChartEx\ChartAddIn\ChartPatternAddIn\DlgAnalysis.cpp

; 415  : 				strText = strTime.Mid(2,2) + "/" + strTime.Mid(4,2) + "/" + strTime.Mid(6, 2) + "," + strTime.Mid(8, 2) + ":" + strTime.Mid(10,2);

  00e66	c6 45 fc 39	 mov	 BYTE PTR __$EHRec$[ebp+8], 57 ; 00000039H
; File C:\Program Files (x86)\Microsoft Visual Studio\2019\Community\VC\Tools\MSVC\14.29.30133\atlmfc\include\cstringt.h

; 2390 : 		CStringT strResult( str1.GetManager() );

  00e6a	ff 15 00 00 00
	00		 call	 DWORD PTR __imp_?GetManager@?$CStringT@DV?$StrTraitMFC_DLL@DV?$ChTraitsCRT@D@ATL@@@@@ATL@@QBEPAUIAtlStringMgr@2@XZ
  00e70	50		 push	 eax
  00e71	8d 8d 5c ff ff
	ff		 lea	 ecx, DWORD PTR $T41[ebp]
  00e77	ff 15 00 00 00
	00		 call	 DWORD PTR __imp_??0?$CStringT@DV?$StrTraitMFC_DLL@DV?$ChTraitsCRT@D@ATL@@@@@ATL@@QAE@PAUIAtlStringMgr@1@@Z
; File C:\Program Files (x86)\Microsoft Visual Studio\2019\Community\VC\Tools\MSVC\14.29.30133\atlmfc\include\atlsimpstr.h

; 519  : 		return( GetData()->nDataLength );

  00e7d	8b 0f		 mov	 ecx, DWORD PTR [edi]
  00e7f	8b 85 58 ff ff
	ff		 mov	 eax, DWORD PTR $T40[ebp]
; File C:\Program Files (x86)\Microsoft Visual Studio\2019\Community\VC\Tools\MSVC\14.29.30133\atlmfc\include\cstringt.h

; 2394 : 		return( strResult );

  00e85	8b 75 e8	 mov	 esi, DWORD PTR $T78[ebp]
  00e88	81 ce 00 00 00
	40		 or	 esi, 1073741824		; 40000000H
  00e8e	ff 71 f4	 push	 DWORD PTR [ecx-12]
  00e91	89 75 f0	 mov	 DWORD PTR $T79[ebp], esi
  00e94	51		 push	 ecx
  00e95	ff 70 f4	 push	 DWORD PTR [eax-12]
  00e98	50		 push	 eax
  00e99	8d 85 5c ff ff
	ff		 lea	 eax, DWORD PTR $T41[ebp]

; 2392 : 		CThisSimpleString::Concatenate( strResult, str1, str1.GetLength(), str2, str2.GetLength() );

  00e9f	50		 push	 eax
  00ea0	ff 15 00 00 00
	00		 call	 DWORD PTR __imp_?Concatenate@?$CSimpleStringT@D$00@ATL@@KAXAAV12@PBDH1H@Z
  00ea6	83 c4 14	 add	 esp, 20			; 00000014H

; 2401 : 		CStringT strResult( str1.GetManager() );

  00ea9	8d 8d 5c ff ff
	ff		 lea	 ecx, DWORD PTR $T41[ebp]
; File D:\git\src\IBK\IBK_DRFN\ProjSrc\SrcChartEx\ChartAddIn\ChartPatternAddIn\DlgAnalysis.cpp

; 415  : 				strText = strTime.Mid(2,2) + "/" + strTime.Mid(4,2) + "/" + strTime.Mid(6, 2) + "," + strTime.Mid(8, 2) + ":" + strTime.Mid(10,2);

  00eaf	c6 45 fc 3a	 mov	 BYTE PTR __$EHRec$[ebp+8], 58 ; 0000003aH
; File C:\Program Files (x86)\Microsoft Visual Studio\2019\Community\VC\Tools\MSVC\14.29.30133\atlmfc\include\cstringt.h

; 2401 : 		CStringT strResult( str1.GetManager() );

  00eb3	ff 15 00 00 00
	00		 call	 DWORD PTR __imp_?GetManager@?$CStringT@DV?$StrTraitMFC_DLL@DV?$ChTraitsCRT@D@ATL@@@@@ATL@@QBEPAUIAtlStringMgr@2@XZ
  00eb9	50		 push	 eax
  00eba	8d 8d 60 ff ff
	ff		 lea	 ecx, DWORD PTR $T42[ebp]
  00ec0	ff 15 00 00 00
	00		 call	 DWORD PTR __imp_??0?$CStringT@DV?$StrTraitMFC_DLL@DV?$ChTraitsCRT@D@ATL@@@@@ATL@@QAE@PAUIAtlStringMgr@1@@Z
; File C:\Program Files (x86)\Microsoft Visual Studio\2019\Community\VC\Tools\MSVC\14.29.30133\atlmfc\include\atlsimpstr.h

; 519  : 		return( GetData()->nDataLength );

  00ec6	8b 85 5c ff ff
	ff		 mov	 eax, DWORD PTR $T41[ebp]
; File C:\Program Files (x86)\Microsoft Visual Studio\2019\Community\VC\Tools\MSVC\14.29.30133\atlmfc\include\cstringt.h

; 2405 : 		return( strResult );

  00ecc	81 ce 00 00 00
	80		 or	 esi, -2147483648	; 80000000H
  00ed2	6a 01		 push	 1
  00ed4	68 00 00 00 00	 push	 OFFSET ??_C@_01KMDKNFGN@?1@
  00ed9	89 75 f0	 mov	 DWORD PTR $T79[ebp], esi
  00edc	ff 70 f4	 push	 DWORD PTR [eax-12]
  00edf	50		 push	 eax
  00ee0	8d 85 60 ff ff
	ff		 lea	 eax, DWORD PTR $T42[ebp]
  00ee6	50		 push	 eax
  00ee7	ff 15 00 00 00
	00		 call	 DWORD PTR __imp_?Concatenate@?$CSimpleStringT@D$00@ATL@@KAXAAV12@PBDH1H@Z
  00eed	83 c4 14	 add	 esp, 20			; 00000014H

; 2390 : 		CStringT strResult( str1.GetManager() );

  00ef0	8d 8d 60 ff ff
	ff		 lea	 ecx, DWORD PTR $T42[ebp]
; File D:\git\src\IBK\IBK_DRFN\ProjSrc\SrcChartEx\ChartAddIn\ChartPatternAddIn\DlgAnalysis.cpp

; 415  : 				strText = strTime.Mid(2,2) + "/" + strTime.Mid(4,2) + "/" + strTime.Mid(6, 2) + "," + strTime.Mid(8, 2) + ":" + strTime.Mid(10,2);

  00ef6	c6 45 fc 3b	 mov	 BYTE PTR __$EHRec$[ebp+8], 59 ; 0000003bH
; File C:\Program Files (x86)\Microsoft Visual Studio\2019\Community\VC\Tools\MSVC\14.29.30133\atlmfc\include\cstringt.h

; 2390 : 		CStringT strResult( str1.GetManager() );

  00efa	ff 15 00 00 00
	00		 call	 DWORD PTR __imp_?GetManager@?$CStringT@DV?$StrTraitMFC_DLL@DV?$ChTraitsCRT@D@ATL@@@@@ATL@@QBEPAUIAtlStringMgr@2@XZ
  00f00	50		 push	 eax
  00f01	8d 8d 64 ff ff
	ff		 lea	 ecx, DWORD PTR $T43[ebp]
  00f07	ff 15 00 00 00
	00		 call	 DWORD PTR __imp_??0?$CStringT@DV?$StrTraitMFC_DLL@DV?$ChTraitsCRT@D@ATL@@@@@ATL@@QAE@PAUIAtlStringMgr@1@@Z
; File C:\Program Files (x86)\Microsoft Visual Studio\2019\Community\VC\Tools\MSVC\14.29.30133\atlmfc\include\atlsimpstr.h

; 519  : 		return( GetData()->nDataLength );

  00f0d	8b 4d e0	 mov	 ecx, DWORD PTR $T72[ebp]
  00f10	8b 85 60 ff ff
	ff		 mov	 eax, DWORD PTR $T42[ebp]
; File C:\Program Files (x86)\Microsoft Visual Studio\2019\Community\VC\Tools\MSVC\14.29.30133\atlmfc\include\cstringt.h

; 2394 : 		return( strResult );

  00f16	8b bd 20 ff ff
	ff		 mov	 edi, DWORD PTR $T30[ebp]
  00f1c	83 cf 01	 or	 edi, 1
; File C:\Program Files (x86)\Microsoft Visual Studio\2019\Community\VC\Tools\MSVC\14.29.30133\atlmfc\include\atlsimpstr.h

; 519  : 		return( GetData()->nDataLength );

  00f1f	8b 09		 mov	 ecx, DWORD PTR [ecx]
; File C:\Program Files (x86)\Microsoft Visual Studio\2019\Community\VC\Tools\MSVC\14.29.30133\atlmfc\include\cstringt.h

; 2394 : 		return( strResult );

  00f21	89 7d d8	 mov	 DWORD PTR $T71[ebp], edi
  00f24	ff 71 f4	 push	 DWORD PTR [ecx-12]
  00f27	51		 push	 ecx
  00f28	ff 70 f4	 push	 DWORD PTR [eax-12]
  00f2b	50		 push	 eax
  00f2c	8d 85 64 ff ff
	ff		 lea	 eax, DWORD PTR $T43[ebp]
  00f32	50		 push	 eax
  00f33	ff 15 00 00 00
	00		 call	 DWORD PTR __imp_?Concatenate@?$CSimpleStringT@D$00@ATL@@KAXAAV12@PBDH1H@Z
  00f39	83 c4 14	 add	 esp, 20			; 00000014H

; 2401 : 		CStringT strResult( str1.GetManager() );

  00f3c	8d 8d 64 ff ff
	ff		 lea	 ecx, DWORD PTR $T43[ebp]
; File D:\git\src\IBK\IBK_DRFN\ProjSrc\SrcChartEx\ChartAddIn\ChartPatternAddIn\DlgAnalysis.cpp

; 415  : 				strText = strTime.Mid(2,2) + "/" + strTime.Mid(4,2) + "/" + strTime.Mid(6, 2) + "," + strTime.Mid(8, 2) + ":" + strTime.Mid(10,2);

  00f42	c6 45 fc 3c	 mov	 BYTE PTR __$EHRec$[ebp+8], 60 ; 0000003cH
; File C:\Program Files (x86)\Microsoft Visual Studio\2019\Community\VC\Tools\MSVC\14.29.30133\atlmfc\include\cstringt.h

; 2401 : 		CStringT strResult( str1.GetManager() );

  00f46	ff 15 00 00 00
	00		 call	 DWORD PTR __imp_?GetManager@?$CStringT@DV?$StrTraitMFC_DLL@DV?$ChTraitsCRT@D@ATL@@@@@ATL@@QBEPAUIAtlStringMgr@2@XZ
  00f4c	50		 push	 eax
  00f4d	8d 8d 68 ff ff
	ff		 lea	 ecx, DWORD PTR $T44[ebp]
  00f53	ff 15 00 00 00
	00		 call	 DWORD PTR __imp_??0?$CStringT@DV?$StrTraitMFC_DLL@DV?$ChTraitsCRT@D@ATL@@@@@ATL@@QAE@PAUIAtlStringMgr@1@@Z
; File C:\Program Files (x86)\Microsoft Visual Studio\2019\Community\VC\Tools\MSVC\14.29.30133\atlmfc\include\atlsimpstr.h

; 519  : 		return( GetData()->nDataLength );

  00f59	8b 85 64 ff ff
	ff		 mov	 eax, DWORD PTR $T43[ebp]
; File C:\Program Files (x86)\Microsoft Visual Studio\2019\Community\VC\Tools\MSVC\14.29.30133\atlmfc\include\cstringt.h

; 2405 : 		return( strResult );

  00f5f	83 cf 02	 or	 edi, 2
  00f62	6a 01		 push	 1
  00f64	68 00 00 00 00	 push	 OFFSET ??_C@_01IHBHIGKO@?0@
  00f69	89 7d d8	 mov	 DWORD PTR $T71[ebp], edi
  00f6c	ff 70 f4	 push	 DWORD PTR [eax-12]
  00f6f	50		 push	 eax
  00f70	8d 85 68 ff ff
	ff		 lea	 eax, DWORD PTR $T44[ebp]
  00f76	50		 push	 eax
  00f77	ff 15 00 00 00
	00		 call	 DWORD PTR __imp_?Concatenate@?$CSimpleStringT@D$00@ATL@@KAXAAV12@PBDH1H@Z
  00f7d	83 c4 14	 add	 esp, 20			; 00000014H

; 2390 : 		CStringT strResult( str1.GetManager() );

  00f80	8d 8d 68 ff ff
	ff		 lea	 ecx, DWORD PTR $T44[ebp]
; File D:\git\src\IBK\IBK_DRFN\ProjSrc\SrcChartEx\ChartAddIn\ChartPatternAddIn\DlgAnalysis.cpp

; 415  : 				strText = strTime.Mid(2,2) + "/" + strTime.Mid(4,2) + "/" + strTime.Mid(6, 2) + "," + strTime.Mid(8, 2) + ":" + strTime.Mid(10,2);

  00f86	c6 45 fc 3d	 mov	 BYTE PTR __$EHRec$[ebp+8], 61 ; 0000003dH
; File C:\Program Files (x86)\Microsoft Visual Studio\2019\Community\VC\Tools\MSVC\14.29.30133\atlmfc\include\cstringt.h

; 2390 : 		CStringT strResult( str1.GetManager() );

  00f8a	ff 15 00 00 00
	00		 call	 DWORD PTR __imp_?GetManager@?$CStringT@DV?$StrTraitMFC_DLL@DV?$ChTraitsCRT@D@ATL@@@@@ATL@@QBEPAUIAtlStringMgr@2@XZ
  00f90	50		 push	 eax
  00f91	8d 8d 6c ff ff
	ff		 lea	 ecx, DWORD PTR $T45[ebp]
  00f97	ff 15 00 00 00
	00		 call	 DWORD PTR __imp_??0?$CStringT@DV?$StrTraitMFC_DLL@DV?$ChTraitsCRT@D@ATL@@@@@ATL@@QAE@PAUIAtlStringMgr@1@@Z
; File C:\Program Files (x86)\Microsoft Visual Studio\2019\Community\VC\Tools\MSVC\14.29.30133\atlmfc\include\atlsimpstr.h

; 519  : 		return( GetData()->nDataLength );

  00f9d	8b 8d b0 fe ff
	ff		 mov	 ecx, DWORD PTR $T3[ebp]
; File C:\Program Files (x86)\Microsoft Visual Studio\2019\Community\VC\Tools\MSVC\14.29.30133\atlmfc\include\cstringt.h

; 2394 : 		return( strResult );

  00fa3	83 cf 04	 or	 edi, 4
; File C:\Program Files (x86)\Microsoft Visual Studio\2019\Community\VC\Tools\MSVC\14.29.30133\atlmfc\include\atlsimpstr.h

; 519  : 		return( GetData()->nDataLength );

  00fa6	8b 85 68 ff ff
	ff		 mov	 eax, DWORD PTR $T44[ebp]
; File C:\Program Files (x86)\Microsoft Visual Studio\2019\Community\VC\Tools\MSVC\14.29.30133\atlmfc\include\cstringt.h

; 2394 : 		return( strResult );

  00fac	89 7d d8	 mov	 DWORD PTR $T71[ebp], edi
; File C:\Program Files (x86)\Microsoft Visual Studio\2019\Community\VC\Tools\MSVC\14.29.30133\atlmfc\include\atlsimpstr.h

; 519  : 		return( GetData()->nDataLength );

  00faf	8b 09		 mov	 ecx, DWORD PTR [ecx]
; File C:\Program Files (x86)\Microsoft Visual Studio\2019\Community\VC\Tools\MSVC\14.29.30133\atlmfc\include\cstringt.h

; 2392 : 		CThisSimpleString::Concatenate( strResult, str1, str1.GetLength(), str2, str2.GetLength() );

  00fb1	ff 71 f4	 push	 DWORD PTR [ecx-12]
  00fb4	51		 push	 ecx
  00fb5	ff 70 f4	 push	 DWORD PTR [eax-12]
  00fb8	50		 push	 eax
  00fb9	8d 85 6c ff ff
	ff		 lea	 eax, DWORD PTR $T45[ebp]
  00fbf	50		 push	 eax
  00fc0	ff 15 00 00 00
	00		 call	 DWORD PTR __imp_?Concatenate@?$CSimpleStringT@D$00@ATL@@KAXAAV12@PBDH1H@Z
  00fc6	83 c4 14	 add	 esp, 20			; 00000014H

; 2401 : 		CStringT strResult( str1.GetManager() );

  00fc9	8d 8d 6c ff ff
	ff		 lea	 ecx, DWORD PTR $T45[ebp]
; File D:\git\src\IBK\IBK_DRFN\ProjSrc\SrcChartEx\ChartAddIn\ChartPatternAddIn\DlgAnalysis.cpp

; 415  : 				strText = strTime.Mid(2,2) + "/" + strTime.Mid(4,2) + "/" + strTime.Mid(6, 2) + "," + strTime.Mid(8, 2) + ":" + strTime.Mid(10,2);

  00fcf	c6 45 fc 3e	 mov	 BYTE PTR __$EHRec$[ebp+8], 62 ; 0000003eH
; File C:\Program Files (x86)\Microsoft Visual Studio\2019\Community\VC\Tools\MSVC\14.29.30133\atlmfc\include\cstringt.h

; 2401 : 		CStringT strResult( str1.GetManager() );

  00fd3	ff 15 00 00 00
	00		 call	 DWORD PTR __imp_?GetManager@?$CStringT@DV?$StrTraitMFC_DLL@DV?$ChTraitsCRT@D@ATL@@@@@ATL@@QBEPAUIAtlStringMgr@2@XZ
  00fd9	50		 push	 eax
  00fda	8d 8d 70 ff ff
	ff		 lea	 ecx, DWORD PTR $T46[ebp]
  00fe0	ff 15 00 00 00
	00		 call	 DWORD PTR __imp_??0?$CStringT@DV?$StrTraitMFC_DLL@DV?$ChTraitsCRT@D@ATL@@@@@ATL@@QAE@PAUIAtlStringMgr@1@@Z
; File C:\Program Files (x86)\Microsoft Visual Studio\2019\Community\VC\Tools\MSVC\14.29.30133\atlmfc\include\atlsimpstr.h

; 519  : 		return( GetData()->nDataLength );

  00fe6	8b 85 6c ff ff
	ff		 mov	 eax, DWORD PTR $T45[ebp]
; File C:\Program Files (x86)\Microsoft Visual Studio\2019\Community\VC\Tools\MSVC\14.29.30133\atlmfc\include\cstringt.h

; 2405 : 		return( strResult );

  00fec	83 cf 08	 or	 edi, 8
  00fef	6a 01		 push	 1
  00ff1	68 00 00 00 00	 push	 OFFSET ??_C@_01JLIPDDHJ@?3@
  00ff6	89 7d d8	 mov	 DWORD PTR $T71[ebp], edi
  00ff9	ff 70 f4	 push	 DWORD PTR [eax-12]
  00ffc	50		 push	 eax
  00ffd	8d 85 70 ff ff
	ff		 lea	 eax, DWORD PTR $T46[ebp]
  01003	50		 push	 eax
  01004	ff 15 00 00 00
	00		 call	 DWORD PTR __imp_?Concatenate@?$CSimpleStringT@D$00@ATL@@KAXAAV12@PBDH1H@Z
  0100a	83 c4 14	 add	 esp, 20			; 00000014H

; 2390 : 		CStringT strResult( str1.GetManager() );

  0100d	8d 8d 70 ff ff
	ff		 lea	 ecx, DWORD PTR $T46[ebp]
; File D:\git\src\IBK\IBK_DRFN\ProjSrc\SrcChartEx\ChartAddIn\ChartPatternAddIn\DlgAnalysis.cpp

; 415  : 				strText = strTime.Mid(2,2) + "/" + strTime.Mid(4,2) + "/" + strTime.Mid(6, 2) + "," + strTime.Mid(8, 2) + ":" + strTime.Mid(10,2);

  01013	c6 45 fc 3f	 mov	 BYTE PTR __$EHRec$[ebp+8], 63 ; 0000003fH
; File C:\Program Files (x86)\Microsoft Visual Studio\2019\Community\VC\Tools\MSVC\14.29.30133\atlmfc\include\cstringt.h

; 2390 : 		CStringT strResult( str1.GetManager() );

  01017	ff 15 00 00 00
	00		 call	 DWORD PTR __imp_?GetManager@?$CStringT@DV?$StrTraitMFC_DLL@DV?$ChTraitsCRT@D@ATL@@@@@ATL@@QBEPAUIAtlStringMgr@2@XZ
  0101d	50		 push	 eax
  0101e	8d 8d 3c ff ff
	ff		 lea	 ecx, DWORD PTR $T33[ebp]
  01024	ff 15 00 00 00
	00		 call	 DWORD PTR __imp_??0?$CStringT@DV?$StrTraitMFC_DLL@DV?$ChTraitsCRT@D@ATL@@@@@ATL@@QAE@PAUIAtlStringMgr@1@@Z
; File C:\Program Files (x86)\Microsoft Visual Studio\2019\Community\VC\Tools\MSVC\14.29.30133\atlmfc\include\atlsimpstr.h

; 519  : 		return( GetData()->nDataLength );

  0102a	8b 8d 30 ff ff
	ff		 mov	 ecx, DWORD PTR $T31[ebp]
; File C:\Program Files (x86)\Microsoft Visual Studio\2019\Community\VC\Tools\MSVC\14.29.30133\atlmfc\include\cstringt.h

; 2394 : 		return( strResult );

  01030	83 cf 10	 or	 edi, 16			; 00000010H
; File C:\Program Files (x86)\Microsoft Visual Studio\2019\Community\VC\Tools\MSVC\14.29.30133\atlmfc\include\atlsimpstr.h

; 519  : 		return( GetData()->nDataLength );

  01033	8b 85 70 ff ff
	ff		 mov	 eax, DWORD PTR $T46[ebp]
; File C:\Program Files (x86)\Microsoft Visual Studio\2019\Community\VC\Tools\MSVC\14.29.30133\atlmfc\include\cstringt.h

; 2394 : 		return( strResult );

  01039	89 7d d8	 mov	 DWORD PTR $T71[ebp], edi
; File C:\Program Files (x86)\Microsoft Visual Studio\2019\Community\VC\Tools\MSVC\14.29.30133\atlmfc\include\atlsimpstr.h

; 519  : 		return( GetData()->nDataLength );

  0103c	8b 09		 mov	 ecx, DWORD PTR [ecx]
; File C:\Program Files (x86)\Microsoft Visual Studio\2019\Community\VC\Tools\MSVC\14.29.30133\atlmfc\include\cstringt.h

; 2392 : 		CThisSimpleString::Concatenate( strResult, str1, str1.GetLength(), str2, str2.GetLength() );

  0103e	ff 71 f4	 push	 DWORD PTR [ecx-12]
  01041	51		 push	 ecx
  01042	ff 70 f4	 push	 DWORD PTR [eax-12]
  01045	50		 push	 eax
  01046	8d 85 3c ff ff
	ff		 lea	 eax, DWORD PTR $T33[ebp]
  0104c	50		 push	 eax
  0104d	ff 15 00 00 00
	00		 call	 DWORD PTR __imp_?Concatenate@?$CSimpleStringT@D$00@ATL@@KAXAAV12@PBDH1H@Z
  01053	83 c4 14	 add	 esp, 20			; 00000014H
; File D:\git\src\IBK\IBK_DRFN\ProjSrc\SrcChartEx\ChartAddIn\ChartPatternAddIn\DlgAnalysis.cpp

; 415  : 				strText = strTime.Mid(2,2) + "/" + strTime.Mid(4,2) + "/" + strTime.Mid(6, 2) + "," + strTime.Mid(8, 2) + ":" + strTime.Mid(10,2);

  01056	8d 85 3c ff ff
	ff		 lea	 eax, DWORD PTR $T33[ebp]
  0105c	8d 4d e4	 lea	 ecx, DWORD PTR _strText$[ebp]
  0105f	50		 push	 eax
  01060	ff 15 00 00 00
	00		 call	 DWORD PTR __imp_??4?$CStringT@DV?$StrTraitMFC_DLL@DV?$ChTraitsCRT@D@ATL@@@@@ATL@@QAEAAV01@ABV01@@Z
  01066	8d 8d 3c ff ff
	ff		 lea	 ecx, DWORD PTR $T33[ebp]
  0106c	83 e7 ef	 and	 edi, -17		; ffffffefH
  0106f	ff 15 00 00 00
	00		 call	 DWORD PTR __imp_??1?$CStringT@DV?$StrTraitMFC_DLL@DV?$ChTraitsCRT@D@ATL@@@@@ATL@@QAE@XZ
  01075	8d 8d 70 ff ff
	ff		 lea	 ecx, DWORD PTR $T46[ebp]
  0107b	83 e7 f7	 and	 edi, -9			; fffffff7H
  0107e	ff 15 00 00 00
	00		 call	 DWORD PTR __imp_??1?$CStringT@DV?$StrTraitMFC_DLL@DV?$ChTraitsCRT@D@ATL@@@@@ATL@@QAE@XZ
  01084	8d 8d 6c ff ff
	ff		 lea	 ecx, DWORD PTR $T45[ebp]
  0108a	83 e7 fb	 and	 edi, -5			; fffffffbH
  0108d	ff 15 00 00 00
	00		 call	 DWORD PTR __imp_??1?$CStringT@DV?$StrTraitMFC_DLL@DV?$ChTraitsCRT@D@ATL@@@@@ATL@@QAE@XZ
  01093	8d 8d 68 ff ff
	ff		 lea	 ecx, DWORD PTR $T44[ebp]
  01099	83 e7 fd	 and	 edi, -3			; fffffffdH
  0109c	ff 15 00 00 00
	00		 call	 DWORD PTR __imp_??1?$CStringT@DV?$StrTraitMFC_DLL@DV?$ChTraitsCRT@D@ATL@@@@@ATL@@QAE@XZ
  010a2	83 e7 fe	 and	 edi, -2			; fffffffeH
  010a5	8d 8d 64 ff ff
	ff		 lea	 ecx, DWORD PTR $T43[ebp]
  010ab	89 bd 20 ff ff
	ff		 mov	 DWORD PTR $T30[ebp], edi
  010b1	ff 15 00 00 00
	00		 call	 DWORD PTR __imp_??1?$CStringT@DV?$StrTraitMFC_DLL@DV?$ChTraitsCRT@D@ATL@@@@@ATL@@QAE@XZ
  010b7	8d 8d 60 ff ff
	ff		 lea	 ecx, DWORD PTR $T42[ebp]
  010bd	81 e6 ff ff ff
	7f		 and	 esi, 2147483647		; 7fffffffH
  010c3	ff 15 00 00 00
	00		 call	 DWORD PTR __imp_??1?$CStringT@DV?$StrTraitMFC_DLL@DV?$ChTraitsCRT@D@ATL@@@@@ATL@@QAE@XZ
  010c9	8d 8d 5c ff ff
	ff		 lea	 ecx, DWORD PTR $T41[ebp]
  010cf	81 e6 ff ff ff
	bf		 and	 esi, -1073741825	; bfffffffH
  010d5	ff 15 00 00 00
	00		 call	 DWORD PTR __imp_??1?$CStringT@DV?$StrTraitMFC_DLL@DV?$ChTraitsCRT@D@ATL@@@@@ATL@@QAE@XZ
  010db	81 e6 ff ff ff
	df		 and	 esi, -536870913		; dfffffffH
  010e1	8d 8d 58 ff ff
	ff		 lea	 ecx, DWORD PTR $T40[ebp]
  010e7	89 75 e8	 mov	 DWORD PTR $T78[ebp], esi
  010ea	ff 15 00 00 00
	00		 call	 DWORD PTR __imp_??1?$CStringT@DV?$StrTraitMFC_DLL@DV?$ChTraitsCRT@D@ATL@@@@@ATL@@QAE@XZ
  010f0	8d 8d cc fe ff
	ff		 lea	 ecx, DWORD PTR $T10[ebp]
  010f6	ff 15 00 00 00
	00		 call	 DWORD PTR __imp_??1?$CStringT@DV?$StrTraitMFC_DLL@DV?$ChTraitsCRT@D@ATL@@@@@ATL@@QAE@XZ
  010fc	8d 8d c8 fe ff
	ff		 lea	 ecx, DWORD PTR $T9[ebp]
  01102	ff 15 00 00 00
	00		 call	 DWORD PTR __imp_??1?$CStringT@DV?$StrTraitMFC_DLL@DV?$ChTraitsCRT@D@ATL@@@@@ATL@@QAE@XZ
  01108	8d 8d c4 fe ff
	ff		 lea	 ecx, DWORD PTR $T8[ebp]
  0110e	ff 15 00 00 00
	00		 call	 DWORD PTR __imp_??1?$CStringT@DV?$StrTraitMFC_DLL@DV?$ChTraitsCRT@D@ATL@@@@@ATL@@QAE@XZ
  01114	8d 8d c0 fe ff
	ff		 lea	 ecx, DWORD PTR $T7[ebp]
  0111a	ff 15 00 00 00
	00		 call	 DWORD PTR __imp_??1?$CStringT@DV?$StrTraitMFC_DLL@DV?$ChTraitsCRT@D@ATL@@@@@ATL@@QAE@XZ
  01120	8d 8d bc fe ff
	ff		 lea	 ecx, DWORD PTR $T6[ebp]
$LN673@SetFoundWa:

; 416  : 			}
; 417  : 			// 2011.01.06 by SYS <<
; 418  : 			
; 419  : 			m_pGridWaveRptType1->SetItemText( nRow, COL_WAV1_TIME,		strText);

  01126	c6 45 fc 02	 mov	 BYTE PTR __$EHRec$[ebp+8], 2
  0112a	ff 15 00 00 00
	00		 call	 DWORD PTR __imp_??1?$CStringT@DV?$StrTraitMFC_DLL@DV?$ChTraitsCRT@D@ATL@@@@@ATL@@QAE@XZ
  01130	8b 75 d0	 mov	 esi, DWORD PTR _pWavePatternData$1$[ebp]
  01133	8b 7d d4	 mov	 edi, DWORD PTR tv3545[ebp]
$LN19@SetFoundWa:
  01136	ff 75 e4	 push	 DWORD PTR _strText$[ebp]
  01139	8b 45 dc	 mov	 eax, DWORD PTR _this$1$[ebp]
  0113c	6a 01		 push	 1
  0113e	57		 push	 edi
  0113f	8b 88 b0 00 00
	00		 mov	 ecx, DWORD PTR [eax+176]
  01145	e8 00 00 00 00	 call	 ?SetItemText@CGridCtrl@@QAEHHHPBD@Z ; CGridCtrl::SetItemText

; 420  : 
; 421  : 			// Wave Pattern Type
; 422  : 			strText = wpWavePattern.GetPatternTrendName( pWavePatternData->m_nPatternType);

  0114a	ff 76 04	 push	 DWORD PTR [esi+4]
  0114d	8d 85 b8 fe ff
	ff		 lea	 eax, DWORD PTR $T5[ebp]
  01153	50		 push	 eax
  01154	8d 8d 24 ff ff
	ff		 lea	 ecx, DWORD PTR _wpWavePattern$[ebp]
  0115a	e8 00 00 00 00	 call	 ?GetPatternTrendName@CWavePattern@@QAE?AV?$CStringT@DV?$StrTraitMFC_DLL@DV?$ChTraitsCRT@D@ATL@@@@@ATL@@H@Z ; CWavePattern::GetPatternTrendName
  0115f	50		 push	 eax
  01160	8d 4d e4	 lea	 ecx, DWORD PTR _strText$[ebp]
  01163	c6 45 fc 40	 mov	 BYTE PTR __$EHRec$[ebp+8], 64 ; 00000040H
  01167	ff 15 00 00 00
	00		 call	 DWORD PTR __imp_??4?$CStringT@DV?$StrTraitMFC_DLL@DV?$ChTraitsCRT@D@ATL@@@@@ATL@@QAEAAV01@ABV01@@Z
  0116d	8d 8d b8 fe ff
	ff		 lea	 ecx, DWORD PTR $T5[ebp]
  01173	c6 45 fc 02	 mov	 BYTE PTR __$EHRec$[ebp+8], 2
  01177	ff 15 00 00 00
	00		 call	 DWORD PTR __imp_??1?$CStringT@DV?$StrTraitMFC_DLL@DV?$ChTraitsCRT@D@ATL@@@@@ATL@@QAE@XZ

; 423  : 			m_pGridWaveRptType1->SetItemText( nRow, COL_WAV1_TYPE,		strText);

  0117d	ff 75 e4	 push	 DWORD PTR _strText$[ebp]
  01180	8b 45 dc	 mov	 eax, DWORD PTR _this$1$[ebp]
  01183	6a 02		 push	 2
  01185	57		 push	 edi
  01186	8b 88 b0 00 00
	00		 mov	 ecx, DWORD PTR [eax+176]
  0118c	e8 00 00 00 00	 call	 ?SetItemText@CGridCtrl@@QAEHHHPBD@Z ; CGridCtrl::SetItemText

; 424  : 			
; 425  : 			// Wave Pattern Name
; 426  : 			strText = wpWavePattern.GetPatternName( pWavePatternData->m_nPatternType);

  01191	ff 76 04	 push	 DWORD PTR [esi+4]
  01194	8d 85 b4 fe ff
	ff		 lea	 eax, DWORD PTR $T4[ebp]
  0119a	50		 push	 eax
  0119b	8d 8d 24 ff ff
	ff		 lea	 ecx, DWORD PTR _wpWavePattern$[ebp]
  011a1	e8 00 00 00 00	 call	 ?GetPatternName@CWavePattern@@QAE?AV?$CStringT@DV?$StrTraitMFC_DLL@DV?$ChTraitsCRT@D@ATL@@@@@ATL@@H@Z ; CWavePattern::GetPatternName
  011a6	50		 push	 eax
  011a7	8d 4d e4	 lea	 ecx, DWORD PTR _strText$[ebp]
  011aa	c6 45 fc 41	 mov	 BYTE PTR __$EHRec$[ebp+8], 65 ; 00000041H
  011ae	ff 15 00 00 00
	00		 call	 DWORD PTR __imp_??4?$CStringT@DV?$StrTraitMFC_DLL@DV?$ChTraitsCRT@D@ATL@@@@@ATL@@QAEAAV01@ABV01@@Z
  011b4	8d 8d b4 fe ff
	ff		 lea	 ecx, DWORD PTR $T4[ebp]
  011ba	c6 45 fc 02	 mov	 BYTE PTR __$EHRec$[ebp+8], 2
  011be	ff 15 00 00 00
	00		 call	 DWORD PTR __imp_??1?$CStringT@DV?$StrTraitMFC_DLL@DV?$ChTraitsCRT@D@ATL@@@@@ATL@@QAE@XZ

; 427  : 			m_pGridWaveRptType1->SetItemText( nRow, COL_WAV1_NAME,		strText);

  011c4	ff 75 e4	 push	 DWORD PTR _strText$[ebp]
  011c7	8b 45 dc	 mov	 eax, DWORD PTR _this$1$[ebp]
  011ca	6a 03		 push	 3
  011cc	57		 push	 edi
  011cd	8b 88 b0 00 00
	00		 mov	 ecx, DWORD PTR [eax+176]
  011d3	e8 00 00 00 00	 call	 ?SetItemText@CGridCtrl@@QAEHHHPBD@Z ; CGridCtrl::SetItemText

; 428  : 
; 429  : 			// Consist Candle Count
; 430  : 			strText.Format("%d", pWavePatternData->m_nEndSeq - pWavePatternData->m_nStartSeq + 1);

  011d8	8b 46 10	 mov	 eax, DWORD PTR [esi+16]
  011db	2b 46 0c	 sub	 eax, DWORD PTR [esi+12]
  011de	40		 inc	 eax
  011df	50		 push	 eax
  011e0	8d 45 e4	 lea	 eax, DWORD PTR _strText$[ebp]
  011e3	68 00 00 00 00	 push	 OFFSET ??_C@_02DPKJAMEF@?$CFd@
  011e8	50		 push	 eax
  011e9	ff 15 00 00 00
	00		 call	 DWORD PTR __imp_?Format@?$CStringT@DV?$StrTraitMFC_DLL@DV?$ChTraitsCRT@D@ATL@@@@@ATL@@QAAXPBDZZ

; 431  : 			m_pGridWaveRptType1->SetItemText( nRow, COL_WAV1_CANDLECNT, strText);

  011ef	8b 45 dc	 mov	 eax, DWORD PTR _this$1$[ebp]
  011f2	83 c4 0c	 add	 esp, 12			; 0000000cH
  011f5	ff 75 e4	 push	 DWORD PTR _strText$[ebp]
  011f8	8b 88 b0 00 00
	00		 mov	 ecx, DWORD PTR [eax+176]
  011fe	6a 04		 push	 4
  01200	57		 push	 edi
  01201	e8 00 00 00 00	 call	 ?SetItemText@CGridCtrl@@QAEHHHPBD@Z ; CGridCtrl::SetItemText

; 432  : 
; 433  : 			// Expect UpDown Percent Rate
; 434  : 			dTemp = fabs(pWavePatternData->m_dNeckBaseYPt1 - pWavePatternData->m_dNeckBaseYPt2);
; 435  : 			if ( pWavePatternData->m_dNeckYPt2 != ZERO)

  01206	f2 0f 10 4e 70	 movsd	 xmm1, QWORD PTR [esi+112]
  0120b	0f 57 c0	 xorps	 xmm0, xmm0
  0120e	66 0f 2e c8	 ucomisd xmm1, xmm0
  01212	9f		 lahf
  01213	f6 c4 44	 test	 ah, 68			; 00000044H
  01216	0f 8b 1c 01 00
	00		 jnp	 $LN20@SetFoundWa

; 436  : 			{
; 437  : 				dExpUpDownPer = dTemp / pWavePatternData->m_dNeckYPt2 * 100;
; 438  : 				if (wpWavePattern.GetPatternTrend( pWavePatternData->m_nPatternType) == DNWARD_REVERSE	|| 

  0121c	f2 0f 10 46 78	 movsd	 xmm0, QWORD PTR [esi+120]
  01221	8d 8d 24 ff ff
	ff		 lea	 ecx, DWORD PTR _wpWavePattern$[ebp]
  01227	f2 0f 5c 86 80
	00 00 00	 subsd	 xmm0, QWORD PTR [esi+128]
  0122f	ff 76 04	 push	 DWORD PTR [esi+4]
  01232	0f 54 05 00 00
	00 00		 andps	 xmm0, QWORD PTR __xmm@7fffffffffffffff7fffffffffffffff
  01239	f2 0f 5e c1	 divsd	 xmm0, xmm1
  0123d	f2 0f 59 05 00
	00 00 00	 mulsd	 xmm0, QWORD PTR __real@4059000000000000
  01245	f2 0f 11 85 2c
	ff ff ff	 movsd	 QWORD PTR _dExpUpDownPer$1$[ebp], xmm0
  0124d	e8 00 00 00 00	 call	 ?GetPatternTrend@CWavePattern@@QAEHH@Z ; CWavePattern::GetPatternTrend
  01252	3d ba 0b 00 00	 cmp	 eax, 3002		; 00000bbaH
  01257	74 15		 je	 SHORT $LN22@SetFoundWa
  01259	ff 76 04	 push	 DWORD PTR [esi+4]
  0125c	8d 8d 24 ff ff
	ff		 lea	 ecx, DWORD PTR _wpWavePattern$[ebp]
  01262	e8 00 00 00 00	 call	 ?GetPatternTrend@CWavePattern@@QAEHH@Z ; CWavePattern::GetPatternTrend
  01267	3d bc 0b 00 00	 cmp	 eax, 3004		; 00000bbcH
  0126c	75 1a		 jne	 SHORT $LN669@SetFoundWa
$LN22@SetFoundWa:

; 439  : 					wpWavePattern.GetPatternTrend( pWavePatternData->m_nPatternType) == DNWARD_CONTINUE	)
; 440  : 					dExpUpDownPer *= -1;

  0126e	f2 0f 10 85 2c
	ff ff ff	 movsd	 xmm0, QWORD PTR _dExpUpDownPer$1$[ebp]
  01276	f2 0f 59 05 00
	00 00 00	 mulsd	 xmm0, QWORD PTR __real@bff0000000000000
  0127e	f2 0f 11 85 2c
	ff ff ff	 movsd	 QWORD PTR _dExpUpDownPer$1$[ebp], xmm0
  01286	eb 08		 jmp	 SHORT $LN21@SetFoundWa
$LN669@SetFoundWa:

; 436  : 			{
; 437  : 				dExpUpDownPer = dTemp / pWavePatternData->m_dNeckYPt2 * 100;
; 438  : 				if (wpWavePattern.GetPatternTrend( pWavePatternData->m_nPatternType) == DNWARD_REVERSE	|| 

  01288	f2 0f 10 85 2c
	ff ff ff	 movsd	 xmm0, QWORD PTR _dExpUpDownPer$1$[ebp]
$LN21@SetFoundWa:

; 441  : 
; 442  : 				SetPercentNColor( m_pGridWaveRptType1, nRow, COL_WAV1_EXPUPDOWN_PER, dExpUpDownPer);

  01290	8b 45 dc	 mov	 eax, DWORD PTR _this$1$[ebp]
  01293	83 ec 08	 sub	 esp, 8
  01296	8b c8		 mov	 ecx, eax
  01298	f2 0f 11 04 24	 movsd	 QWORD PTR [esp], xmm0
  0129d	6a 05		 push	 5
  0129f	57		 push	 edi
  012a0	ff b0 b0 00 00
	00		 push	 DWORD PTR [eax+176]
  012a6	e8 00 00 00 00	 call	 ?SetPercentNColor@CDlgAnalysis@@QAEXPAVCGridCtrl@@HHN@Z ; CDlgAnalysis::SetPercentNColor

; 443  : 
; 444  : 				// Real UpDown Percent Rate
; 445  : 				if(dExpUpDownPer>0)

  012ab	f2 0f 10 85 2c
	ff ff ff	 movsd	 xmm0, QWORD PTR _dExpUpDownPer$1$[ebp]
  012b3	0f 57 c9	 xorps	 xmm1, xmm1
  012b6	66 0f 2f c1	 comisd	 xmm0, xmm1
  012ba	8b 46 10	 mov	 eax, DWORD PTR [esi+16]

; 446  : 				{
; 447  : 					dActUpDownPer = (p_dHigh[pWavePatternData->m_nEndSeq] - pWavePatternData->m_dNeckYPt2) / pWavePatternData->m_dNeckYPt2 * 100;

  012bd	8b 4d 10	 mov	 ecx, DWORD PTR _p_dHigh$[ebp]
  012c0	77 03		 ja	 SHORT $LN674@SetFoundWa

; 448  : 					SetPercentNColor( m_pGridWaveRptType1, nRow, COL_WAV1_ACTUPDOWN_PER, dActUpDownPer);
; 449  : 				}
; 450  : 				else 
; 451  : 				{
; 452  : 					dActUpDownPer = (p_dLow[pWavePatternData->m_nEndSeq] - pWavePatternData->m_dNeckYPt2) / pWavePatternData->m_dNeckYPt2 * 100;

  012c2	8b 4d 14	 mov	 ecx, DWORD PTR _p_dLow$[ebp]
$LN674@SetFoundWa:

; 453  : 					SetPercentNColor( m_pGridWaveRptType1, nRow, COL_WAV1_ACTUPDOWN_PER, dActUpDownPer);
; 454  : 				}
; 455  : 
; 456  : 				int rate = (int)(dActUpDownPer/dExpUpDownPer)*100;	//  = / * 100

  012c5	f2 0f 10 0c c1	 movsd	 xmm1, QWORD PTR [ecx+eax*8]
  012ca	83 ec 08	 sub	 esp, 8
  012cd	f2 0f 5c 4e 70	 subsd	 xmm1, QWORD PTR [esi+112]
  012d2	8b 4d dc	 mov	 ecx, DWORD PTR _this$1$[ebp]
  012d5	f2 0f 5e 4e 70	 divsd	 xmm1, QWORD PTR [esi+112]
  012da	8b 81 b0 00 00
	00		 mov	 eax, DWORD PTR [ecx+176]
  012e0	f2 0f 59 0d 00
	00 00 00	 mulsd	 xmm1, QWORD PTR __real@4059000000000000
  012e8	f2 0f 11 0c 24	 movsd	 QWORD PTR [esp], xmm1
  012ed	6a 06		 push	 6
  012ef	57		 push	 edi
  012f0	50		 push	 eax
  012f1	f2 0f 11 8d ac
	fe ff ff	 movsd	 QWORD PTR $T2[ebp], xmm1
  012f9	e8 00 00 00 00	 call	 ?SetPercentNColor@CDlgAnalysis@@QAEXPAVCGridCtrl@@HHN@Z ; CDlgAnalysis::SetPercentNColor
  012fe	f2 0f 10 85 ac
	fe ff ff	 movsd	 xmm0, QWORD PTR $T2[ebp]

; 457  : 				SetPercentNColor( m_pGridWaveRptType1, nRow, COL_WAV1_ACHIEVE_PER, rate);

  01306	83 ec 08	 sub	 esp, 8
  01309	f2 0f 5e 85 2c
	ff ff ff	 divsd	 xmm0, QWORD PTR _dExpUpDownPer$1$[ebp]
  01311	f2 0f 2c c0	 cvttsd2si eax, xmm0
  01315	6b c0 64	 imul	 eax, eax, 100
  01318	66 0f 6e c0	 movd	 xmm0, eax
  0131c	8b 45 dc	 mov	 eax, DWORD PTR _this$1$[ebp]
  0131f	8b c8		 mov	 ecx, eax
  01321	f3 0f e6 c0	 cvtdq2pd xmm0, xmm0
  01325	f2 0f 11 04 24	 movsd	 QWORD PTR [esp], xmm0
  0132a	6a 07		 push	 7
  0132c	57		 push	 edi
  0132d	ff b0 b0 00 00
	00		 push	 DWORD PTR [eax+176]
  01333	e8 00 00 00 00	 call	 ?SetPercentNColor@CDlgAnalysis@@QAEXPAVCGridCtrl@@HHN@Z ; CDlgAnalysis::SetPercentNColor
$LN20@SetFoundWa:

; 458  : 			}
; 459  : 
; 460  : //			// Real UpDown Percent Rate
; 461  : //			if ( pWavePatternData->m_dNeckYPt2 != ZERO)
; 462  : //			{
; 463  : //				double dOffset = pWavePatternData->m_dNeckSeq2 + (pWavePatternData->m_dNeckSeq2 - pWavePatternData->m_dNeckSeq1);
; 464  : //				
; 465  : //				int nCloseOffset;
; 466  : //				nCloseOffset = floor(dOffset+0.5);
; 467  : //				if(nCloseOffset < nTotalDataCnt)
; 468  : //				{
; 469  : //					dExpUpDownPer = (p_dClose[nCloseOffset] - pWavePatternData->m_dNeckYPt2) / pWavePatternData->m_dNeckYPt2 * 100;
; 470  : //					//if (wpWavePattern.GetPatternTrend( pWavePatternData->m_nPatternType) == DNWARD_REVERSE	|| 
; 471  : //					//	wpWavePattern.GetPatternTrend( pWavePatternData->m_nPatternType) == DNWARD_CONTINUE	)
; 472  : //					//	dExpUpDownPer *= -1;
; 473  : //
; 474  : //					SetPercentNColor( m_pGridWaveRptType1, nRow, COL_WAV1_ACTUPDOWN_PER, dExpUpDownPer);
; 475  : //				}
; 476  : //			}
; 477  : 
; 478  : 
; 479  : 			// Grid Color Set
; 480  : 			nPatternTrend = wpWavePattern.GetPatternTrend( pWavePatternData->m_nPatternType);

  01338	ff 76 04	 push	 DWORD PTR [esi+4]
  0133b	8d 8d 24 ff ff
	ff		 lea	 ecx, DWORD PTR _wpWavePattern$[ebp]
  01341	e8 00 00 00 00	 call	 ?GetPatternTrend@CWavePattern@@QAEHH@Z ; CWavePattern::GetPatternTrend
  01346	8b c8		 mov	 ecx, eax

; 481  : 			if ( nPatternTrend == UPWARD_REVERSE)

  01348	81 f9 b9 0b 00
	00		 cmp	 ecx, 3001		; 00000bb9H
  0134e	75 07		 jne	 SHORT $LN25@SetFoundWa

; 482  : 				clrBG = COLOR_BG_UPWARD_REVERSE;

  01350	b8 fa aa cb 00	 mov	 eax, 13347578		; 00cbaafaH
  01355	eb 2f		 jmp	 SHORT $LN675@SetFoundWa
$LN25@SetFoundWa:

; 483  : 			else if ( nPatternTrend == DNWARD_REVERSE)

  01357	81 f9 ba 0b 00
	00		 cmp	 ecx, 3002		; 00000bbaH
  0135d	75 07		 jne	 SHORT $LN27@SetFoundWa

; 484  : 				clrBG = COLOR_BG_DNWARD_REVERSE;

  0135f	b8 ca e3 fd 00	 mov	 eax, 16638922		; 00fde3caH
  01364	eb 20		 jmp	 SHORT $LN675@SetFoundWa
$LN27@SetFoundWa:

; 485  : 			else if ( nPatternTrend == UPWARD_CONTINUE)

  01366	81 f9 bb 0b 00
	00		 cmp	 ecx, 3003		; 00000bbbH
  0136c	75 07		 jne	 SHORT $LN29@SetFoundWa

; 486  : 				clrBG = COLOR_BG_UPWARD_CONTINUE;

  0136e	b8 fa aa cb 00	 mov	 eax, 13347578		; 00cbaafaH
  01373	eb 11		 jmp	 SHORT $LN675@SetFoundWa
$LN29@SetFoundWa:

; 487  : 			else if ( nPatternTrend == DNWARD_CONTINUE)

  01375	8b 45 cc	 mov	 eax, DWORD PTR _clrBG$[ebp]
  01378	81 f9 bc 0b 00
	00		 cmp	 ecx, 3004		; 00000bbcH
  0137e	b9 ca e3 fd 00	 mov	 ecx, 16638922		; 00fde3caH
  01383	0f 44 c1	 cmove	 eax, ecx
$LN675@SetFoundWa:

; 488  : 				clrBG = COLOR_BG_DNWARD_CONTINUE;
; 489  : 				
; 490  : 			m_pGridWaveRptType1->SetItemBkColour( nRow, COL_WAV1_TYPE,		clrBG);

  01386	8b 75 dc	 mov	 esi, DWORD PTR _this$1$[ebp]
  01389	50		 push	 eax
  0138a	6a 02		 push	 2
  0138c	57		 push	 edi
  0138d	8b 8e b0 00 00
	00		 mov	 ecx, DWORD PTR [esi+176]
  01393	89 45 cc	 mov	 DWORD PTR _clrBG$[ebp], eax
  01396	e8 00 00 00 00	 call	 ?SetItemBkColour@CGridCtrl@@QAEHHHK@Z ; CGridCtrl::SetItemBkColour

; 491  : 			m_pGridWaveRptType1->SetItemBkColour( nRow, COL_WAV1_NAME,		clrBG);

  0139b	ff 75 cc	 push	 DWORD PTR _clrBG$[ebp]
  0139e	8b 8e b0 00 00
	00		 mov	 ecx, DWORD PTR [esi+176]
  013a4	6a 03		 push	 3
  013a6	57		 push	 edi
  013a7	e8 00 00 00 00	 call	 ?SetItemBkColour@CGridCtrl@@QAEHHHK@Z ; CGridCtrl::SetItemBkColour

; 492  : 			m_pGridWaveRptType1->SetItemBkColour( nRow, COL_WAV1_CANDLECNT, clrBG);

  013ac	ff 75 cc	 push	 DWORD PTR _clrBG$[ebp]
  013af	8b 8e b0 00 00
	00		 mov	 ecx, DWORD PTR [esi+176]
  013b5	6a 04		 push	 4
  013b7	57		 push	 edi
  013b8	e8 00 00 00 00	 call	 ?SetItemBkColour@CGridCtrl@@QAEHHHK@Z ; CGridCtrl::SetItemBkColour
  013bd	8b 8d 1c ff ff
	ff		 mov	 ecx, DWORD PTR tv3544[ebp]
  013c3	8b 95 38 ff ff
	ff		 mov	 edx, DWORD PTR _nDataCnt$1$[ebp]
  013c9	eb 03		 jmp	 SHORT $LN2@SetFoundWa
$LN670@SetFoundWa:

; 376  : 
; 377  : 		if ( pWavePatternData)

  013cb	8b 75 dc	 mov	 esi, DWORD PTR _this$1$[ebp]
$LN2@SetFoundWa:

; 370  : 
; 371  : 	for ( int i = 0; i < nDataCnt; i++)

  013ce	47		 inc	 edi
  013cf	49		 dec	 ecx
  013d0	89 7d d4	 mov	 DWORD PTR tv3545[ebp], edi
  013d3	89 8d 1c ff ff
	ff		 mov	 DWORD PTR tv3544[ebp], ecx
  013d9	8d 47 fe	 lea	 eax, DWORD PTR [edi-2]
  013dc	3b c2		 cmp	 eax, edx
  013de	0f 8c d1 ec ff
	ff		 jl	 $LL4@SetFoundWa
$LN3@SetFoundWa:

; 493  : 		}
; 494  : 	}
; 495  : 
; 496  : 	m_pGridCandleRtpType1->Refresh();

  013e4	8b 8e ac 00 00
	00		 mov	 ecx, DWORD PTR [esi+172]
  013ea	e8 00 00 00 00	 call	 ?Refresh@CGridCtrl@@QAEXXZ ; CGridCtrl::Refresh

; 497  : }

  013ef	8d 8d 24 ff ff
	ff		 lea	 ecx, DWORD PTR _wpWavePattern$[ebp]
  013f5	e8 00 00 00 00	 call	 ??1CWavePattern@@UAE@XZ	; CWavePattern::~CWavePattern
  013fa	8d 4d ec	 lea	 ecx, DWORD PTR _strTime$[ebp]
  013fd	ff 15 00 00 00
	00		 call	 DWORD PTR __imp_??1?$CStringT@DV?$StrTraitMFC_DLL@DV?$ChTraitsCRT@D@ATL@@@@@ATL@@QAE@XZ
  01403	8d 4d e4	 lea	 ecx, DWORD PTR _strText$[ebp]
  01406	ff 15 00 00 00
	00		 call	 DWORD PTR __imp_??1?$CStringT@DV?$StrTraitMFC_DLL@DV?$ChTraitsCRT@D@ATL@@@@@ATL@@QAE@XZ
$LN1@SetFoundWa:
  0140c	8b 4d f4	 mov	 ecx, DWORD PTR __$EHRec$[ebp]
  0140f	64 89 0d 00 00
	00 00		 mov	 DWORD PTR fs:0, ecx
  01416	59		 pop	 ecx
  01417	5f		 pop	 edi
  01418	5e		 pop	 esi
  01419	8b e5		 mov	 esp, ebp
  0141b	5d		 pop	 ebp
  0141c	c2 14 00	 ret	 20			; 00000014H
$LN100@SetFoundWa:
; File C:\Program Files (x86)\Microsoft Visual Studio\2019\Community\VC\Tools\MSVC\14.29.30133\atlmfc\include\afxtempl.h

; 290  : 	AfxThrowInvalidArgException();

  0141f	e8 00 00 00 00	 call	 ?AfxThrowInvalidArgException@@YGXXZ ; AfxThrowInvalidArgException
$LN672@SetFoundWa:
  01424	cc		 int	 3
_TEXT	ENDS
;	COMDAT text$x
text$x	SEGMENT
__unwindfunclet$?SetFoundWavePtnToGrid_RptType1@CDlgAnalysis@@QAEXPAVCObject@@PAN11H@Z$0:
  00000	8d 4d e4	 lea	 ecx, DWORD PTR _strText$[ebp]
  00003	ff 25 00 00 00
	00		 jmp	 DWORD PTR __imp_??1?$CStringT@DV?$StrTraitMFC_DLL@DV?$ChTraitsCRT@D@ATL@@@@@ATL@@QAE@XZ
__unwindfunclet$?SetFoundWavePtnToGrid_RptType1@CDlgAnalysis@@QAEXPAVCObject@@PAN11H@Z$1:
  00009	8d 4d ec	 lea	 ecx, DWORD PTR _strTime$[ebp]
  0000c	ff 25 00 00 00
	00		 jmp	 DWORD PTR __imp_??1?$CStringT@DV?$StrTraitMFC_DLL@DV?$ChTraitsCRT@D@ATL@@@@@ATL@@QAE@XZ
__unwindfunclet$?SetFoundWavePtnToGrid_RptType1@CDlgAnalysis@@QAEXPAVCObject@@PAN11H@Z$2:
  00012	8d 8d 24 ff ff
	ff		 lea	 ecx, DWORD PTR _wpWavePattern$[ebp]
  00018	e9 00 00 00 00	 jmp	 ??1CWavePattern@@UAE@XZ	; CWavePattern::~CWavePattern
__unwindfunclet$?SetFoundWavePtnToGrid_RptType1@CDlgAnalysis@@QAEXPAVCObject@@PAN11H@Z$3:
  0001d	8d 8d 0c ff ff
	ff		 lea	 ecx, DWORD PTR $T26[ebp]
  00023	ff 25 00 00 00
	00		 jmp	 DWORD PTR __imp_??1?$CStringT@DV?$StrTraitMFC_DLL@DV?$ChTraitsCRT@D@ATL@@@@@ATL@@QAE@XZ
__unwindfunclet$?SetFoundWavePtnToGrid_RptType1@CDlgAnalysis@@QAEXPAVCObject@@PAN11H@Z$4:
  00029	8d 8d 10 ff ff
	ff		 lea	 ecx, DWORD PTR $T27[ebp]
  0002f	ff 25 00 00 00
	00		 jmp	 DWORD PTR __imp_??1?$CStringT@DV?$StrTraitMFC_DLL@DV?$ChTraitsCRT@D@ATL@@@@@ATL@@QAE@XZ
__unwindfunclet$?SetFoundWavePtnToGrid_RptType1@CDlgAnalysis@@QAEXPAVCObject@@PAN11H@Z$5:
  00035	8d 8d 14 ff ff
	ff		 lea	 ecx, DWORD PTR $T28[ebp]
  0003b	ff 25 00 00 00
	00		 jmp	 DWORD PTR __imp_??1?$CStringT@DV?$StrTraitMFC_DLL@DV?$ChTraitsCRT@D@ATL@@@@@ATL@@QAE@XZ
__unwindfunclet$?SetFoundWavePtnToGrid_RptType1@CDlgAnalysis@@QAEXPAVCObject@@PAN11H@Z$6:
  00041	8d 8d 18 ff ff
	ff		 lea	 ecx, DWORD PTR $T29[ebp]
  00047	ff 25 00 00 00
	00		 jmp	 DWORD PTR __imp_??1?$CStringT@DV?$StrTraitMFC_DLL@DV?$ChTraitsCRT@D@ATL@@@@@ATL@@QAE@XZ
__unwindfunclet$?SetFoundWavePtnToGrid_RptType1@CDlgAnalysis@@QAEXPAVCObject@@PAN11H@Z$66:
  0004d	8b 45 f0	 mov	 eax, DWORD PTR $T79[ebp]
  00050	83 e0 01	 and	 eax, 1
  00053	0f 84 0d 00 00
	00		 je	 $LN112@SetFoundWa
  00059	83 65 f0 fe	 and	 DWORD PTR $T79[ebp], -2	; fffffffeH
  0005d	8d 4d b8	 lea	 ecx, DWORD PTR $T64[ebp]
  00060	ff 25 00 00 00
	00		 jmp	 DWORD PTR __imp_??1?$CStringT@DV?$StrTraitMFC_DLL@DV?$ChTraitsCRT@D@ATL@@@@@ATL@@QAE@XZ
$LN112@SetFoundWa:
  00066	c3		 ret	 0
__unwindfunclet$?SetFoundWavePtnToGrid_RptType1@CDlgAnalysis@@QAEXPAVCObject@@PAN11H@Z$67:
  00067	8b 45 f0	 mov	 eax, DWORD PTR $T79[ebp]
  0006a	83 e0 02	 and	 eax, 2
  0006d	0f 84 0d 00 00
	00		 je	 $LN125@SetFoundWa
  00073	83 65 f0 fd	 and	 DWORD PTR $T79[ebp], -3	; fffffffdH
  00077	8d 4d bc	 lea	 ecx, DWORD PTR $T65[ebp]
  0007a	ff 25 00 00 00
	00		 jmp	 DWORD PTR __imp_??1?$CStringT@DV?$StrTraitMFC_DLL@DV?$ChTraitsCRT@D@ATL@@@@@ATL@@QAE@XZ
$LN125@SetFoundWa:
  00080	c3		 ret	 0
__unwindfunclet$?SetFoundWavePtnToGrid_RptType1@CDlgAnalysis@@QAEXPAVCObject@@PAN11H@Z$68:
  00081	8b 45 f0	 mov	 eax, DWORD PTR $T79[ebp]
  00084	83 e0 04	 and	 eax, 4
  00087	0f 84 0d 00 00
	00		 je	 $LN141@SetFoundWa
  0008d	83 65 f0 fb	 and	 DWORD PTR $T79[ebp], -5	; fffffffbH
  00091	8d 4d c0	 lea	 ecx, DWORD PTR $T66[ebp]
  00094	ff 25 00 00 00
	00		 jmp	 DWORD PTR __imp_??1?$CStringT@DV?$StrTraitMFC_DLL@DV?$ChTraitsCRT@D@ATL@@@@@ATL@@QAE@XZ
$LN141@SetFoundWa:
  0009a	c3		 ret	 0
__unwindfunclet$?SetFoundWavePtnToGrid_RptType1@CDlgAnalysis@@QAEXPAVCObject@@PAN11H@Z$69:
  0009b	8b 45 f0	 mov	 eax, DWORD PTR $T79[ebp]
  0009e	83 e0 08	 and	 eax, 8
  000a1	0f 84 0d 00 00
	00		 je	 $LN154@SetFoundWa
  000a7	83 65 f0 f7	 and	 DWORD PTR $T79[ebp], -9	; fffffff7H
  000ab	8d 4d c4	 lea	 ecx, DWORD PTR $T67[ebp]
  000ae	ff 25 00 00 00
	00		 jmp	 DWORD PTR __imp_??1?$CStringT@DV?$StrTraitMFC_DLL@DV?$ChTraitsCRT@D@ATL@@@@@ATL@@QAE@XZ
$LN154@SetFoundWa:
  000b4	c3		 ret	 0
__unwindfunclet$?SetFoundWavePtnToGrid_RptType1@CDlgAnalysis@@QAEXPAVCObject@@PAN11H@Z$70:
  000b5	8b 45 f0	 mov	 eax, DWORD PTR $T79[ebp]
  000b8	83 e0 10	 and	 eax, 16			; 00000010H
  000bb	0f 84 0d 00 00
	00		 je	 $LN170@SetFoundWa
  000c1	83 65 f0 ef	 and	 DWORD PTR $T79[ebp], -17 ; ffffffefH
  000c5	8d 4d c8	 lea	 ecx, DWORD PTR $T68[ebp]
  000c8	ff 25 00 00 00
	00		 jmp	 DWORD PTR __imp_??1?$CStringT@DV?$StrTraitMFC_DLL@DV?$ChTraitsCRT@D@ATL@@@@@ATL@@QAE@XZ
$LN170@SetFoundWa:
  000ce	c3		 ret	 0
__unwindfunclet$?SetFoundWavePtnToGrid_RptType1@CDlgAnalysis@@QAEXPAVCObject@@PAN11H@Z$71:
  000cf	8b 45 f0	 mov	 eax, DWORD PTR $T79[ebp]
  000d2	83 e0 20	 and	 eax, 32			; 00000020H
  000d5	0f 84 10 00 00
	00		 je	 $LN183@SetFoundWa
  000db	83 65 f0 df	 and	 DWORD PTR $T79[ebp], -33 ; ffffffdfH
  000df	8d 8d 34 ff ff
	ff		 lea	 ecx, DWORD PTR $T32[ebp]
  000e5	ff 25 00 00 00
	00		 jmp	 DWORD PTR __imp_??1?$CStringT@DV?$StrTraitMFC_DLL@DV?$ChTraitsCRT@D@ATL@@@@@ATL@@QAE@XZ
$LN183@SetFoundWa:
  000eb	c3		 ret	 0
__unwindfunclet$?SetFoundWavePtnToGrid_RptType1@CDlgAnalysis@@QAEXPAVCObject@@PAN11H@Z$13:
  000ec	8d 8d 00 ff ff
	ff		 lea	 ecx, DWORD PTR $T23[ebp]
  000f2	ff 25 00 00 00
	00		 jmp	 DWORD PTR __imp_??1?$CStringT@DV?$StrTraitMFC_DLL@DV?$ChTraitsCRT@D@ATL@@@@@ATL@@QAE@XZ
__unwindfunclet$?SetFoundWavePtnToGrid_RptType1@CDlgAnalysis@@QAEXPAVCObject@@PAN11H@Z$14:
  000f8	8d 8d 04 ff ff
	ff		 lea	 ecx, DWORD PTR $T24[ebp]
  000fe	ff 25 00 00 00
	00		 jmp	 DWORD PTR __imp_??1?$CStringT@DV?$StrTraitMFC_DLL@DV?$ChTraitsCRT@D@ATL@@@@@ATL@@QAE@XZ
__unwindfunclet$?SetFoundWavePtnToGrid_RptType1@CDlgAnalysis@@QAEXPAVCObject@@PAN11H@Z$15:
  00104	8d 8d 08 ff ff
	ff		 lea	 ecx, DWORD PTR $T25[ebp]
  0010a	ff 25 00 00 00
	00		 jmp	 DWORD PTR __imp_??1?$CStringT@DV?$StrTraitMFC_DLL@DV?$ChTraitsCRT@D@ATL@@@@@ATL@@QAE@XZ
__unwindfunclet$?SetFoundWavePtnToGrid_RptType1@CDlgAnalysis@@QAEXPAVCObject@@PAN11H@Z$72:
  00110	8b 45 f0	 mov	 eax, DWORD PTR $T79[ebp]
  00113	83 e0 40	 and	 eax, 64			; 00000040H
  00116	0f 84 0d 00 00
	00		 je	 $LN199@SetFoundWa
  0011c	83 65 f0 bf	 and	 DWORD PTR $T79[ebp], -65 ; ffffffbfH
  00120	8d 4d ac	 lea	 ecx, DWORD PTR $T61[ebp]
  00123	ff 25 00 00 00
	00		 jmp	 DWORD PTR __imp_??1?$CStringT@DV?$StrTraitMFC_DLL@DV?$ChTraitsCRT@D@ATL@@@@@ATL@@QAE@XZ
$LN199@SetFoundWa:
  00129	c3		 ret	 0
__unwindfunclet$?SetFoundWavePtnToGrid_RptType1@CDlgAnalysis@@QAEXPAVCObject@@PAN11H@Z$73:
  0012a	8b 45 f0	 mov	 eax, DWORD PTR $T79[ebp]
  0012d	25 80 00 00 00	 and	 eax, 128		; 00000080H
  00132	0f 84 10 00 00
	00		 je	 $LN212@SetFoundWa
  00138	81 65 f0 7f ff
	ff ff		 and	 DWORD PTR $T79[ebp], -129 ; ffffff7fH
  0013f	8d 4d b0	 lea	 ecx, DWORD PTR $T62[ebp]
  00142	ff 25 00 00 00
	00		 jmp	 DWORD PTR __imp_??1?$CStringT@DV?$StrTraitMFC_DLL@DV?$ChTraitsCRT@D@ATL@@@@@ATL@@QAE@XZ
$LN212@SetFoundWa:
  00148	c3		 ret	 0
__unwindfunclet$?SetFoundWavePtnToGrid_RptType1@CDlgAnalysis@@QAEXPAVCObject@@PAN11H@Z$74:
  00149	8b 45 f0	 mov	 eax, DWORD PTR $T79[ebp]
  0014c	25 00 01 00 00	 and	 eax, 256		; 00000100H
  00151	0f 84 10 00 00
	00		 je	 $LN228@SetFoundWa
  00157	81 65 f0 ff fe
	ff ff		 and	 DWORD PTR $T79[ebp], -257 ; fffffeffH
  0015e	8d 4d b4	 lea	 ecx, DWORD PTR $T63[ebp]
  00161	ff 25 00 00 00
	00		 jmp	 DWORD PTR __imp_??1?$CStringT@DV?$StrTraitMFC_DLL@DV?$ChTraitsCRT@D@ATL@@@@@ATL@@QAE@XZ
$LN228@SetFoundWa:
  00167	c3		 ret	 0
__unwindfunclet$?SetFoundWavePtnToGrid_RptType1@CDlgAnalysis@@QAEXPAVCObject@@PAN11H@Z$75:
  00168	8b 45 f0	 mov	 eax, DWORD PTR $T79[ebp]
  0016b	25 00 02 00 00	 and	 eax, 512		; 00000200H
  00170	0f 84 13 00 00
	00		 je	 $LN241@SetFoundWa
  00176	81 65 f0 ff fd
	ff ff		 and	 DWORD PTR $T79[ebp], -513 ; fffffdffH
  0017d	8d 8d 50 ff ff
	ff		 lea	 ecx, DWORD PTR $T38[ebp]
  00183	ff 25 00 00 00
	00		 jmp	 DWORD PTR __imp_??1?$CStringT@DV?$StrTraitMFC_DLL@DV?$ChTraitsCRT@D@ATL@@@@@ATL@@QAE@XZ
$LN241@SetFoundWa:
  00189	c3		 ret	 0
__unwindfunclet$?SetFoundWavePtnToGrid_RptType1@CDlgAnalysis@@QAEXPAVCObject@@PAN11H@Z$20:
  0018a	8d 8d d0 fe ff
	ff		 lea	 ecx, DWORD PTR $T11[ebp]
  00190	ff 25 00 00 00
	00		 jmp	 DWORD PTR __imp_??1?$CStringT@DV?$StrTraitMFC_DLL@DV?$ChTraitsCRT@D@ATL@@@@@ATL@@QAE@XZ
__unwindfunclet$?SetFoundWavePtnToGrid_RptType1@CDlgAnalysis@@QAEXPAVCObject@@PAN11H@Z$21:
  00196	8d 8d f4 fe ff
	ff		 lea	 ecx, DWORD PTR $T20[ebp]
  0019c	ff 25 00 00 00
	00		 jmp	 DWORD PTR __imp_??1?$CStringT@DV?$StrTraitMFC_DLL@DV?$ChTraitsCRT@D@ATL@@@@@ATL@@QAE@XZ
__unwindfunclet$?SetFoundWavePtnToGrid_RptType1@CDlgAnalysis@@QAEXPAVCObject@@PAN11H@Z$22:
  001a2	8d 8d f8 fe ff
	ff		 lea	 ecx, DWORD PTR $T21[ebp]
  001a8	ff 25 00 00 00
	00		 jmp	 DWORD PTR __imp_??1?$CStringT@DV?$StrTraitMFC_DLL@DV?$ChTraitsCRT@D@ATL@@@@@ATL@@QAE@XZ
__unwindfunclet$?SetFoundWavePtnToGrid_RptType1@CDlgAnalysis@@QAEXPAVCObject@@PAN11H@Z$23:
  001ae	8d 8d fc fe ff
	ff		 lea	 ecx, DWORD PTR $T22[ebp]
  001b4	ff 25 00 00 00
	00		 jmp	 DWORD PTR __imp_??1?$CStringT@DV?$StrTraitMFC_DLL@DV?$ChTraitsCRT@D@ATL@@@@@ATL@@QAE@XZ
__unwindfunclet$?SetFoundWavePtnToGrid_RptType1@CDlgAnalysis@@QAEXPAVCObject@@PAN11H@Z$76:
  001ba	8b 45 f0	 mov	 eax, DWORD PTR $T79[ebp]
  001bd	25 00 04 00 00	 and	 eax, 1024		; 00000400H
  001c2	0f 84 10 00 00
	00		 je	 $LN261@SetFoundWa
  001c8	81 65 f0 ff fb
	ff ff		 and	 DWORD PTR $T79[ebp], -1025 ; fffffbffH
  001cf	8d 4d 98	 lea	 ecx, DWORD PTR $T56[ebp]
  001d2	ff 25 00 00 00
	00		 jmp	 DWORD PTR __imp_??1?$CStringT@DV?$StrTraitMFC_DLL@DV?$ChTraitsCRT@D@ATL@@@@@ATL@@QAE@XZ
$LN261@SetFoundWa:
  001d8	c3		 ret	 0
__unwindfunclet$?SetFoundWavePtnToGrid_RptType1@CDlgAnalysis@@QAEXPAVCObject@@PAN11H@Z$77:
  001d9	8b 45 f0	 mov	 eax, DWORD PTR $T79[ebp]
  001dc	25 00 08 00 00	 and	 eax, 2048		; 00000800H
  001e1	0f 84 10 00 00
	00		 je	 $LN274@SetFoundWa
  001e7	81 65 f0 ff f7
	ff ff		 and	 DWORD PTR $T79[ebp], -2049 ; fffff7ffH
  001ee	8d 4d 9c	 lea	 ecx, DWORD PTR $T57[ebp]
  001f1	ff 25 00 00 00
	00		 jmp	 DWORD PTR __imp_??1?$CStringT@DV?$StrTraitMFC_DLL@DV?$ChTraitsCRT@D@ATL@@@@@ATL@@QAE@XZ
$LN274@SetFoundWa:
  001f7	c3		 ret	 0
__unwindfunclet$?SetFoundWavePtnToGrid_RptType1@CDlgAnalysis@@QAEXPAVCObject@@PAN11H@Z$78:
  001f8	8b 45 f0	 mov	 eax, DWORD PTR $T79[ebp]
  001fb	25 00 10 00 00	 and	 eax, 4096		; 00001000H
  00200	0f 84 13 00 00
	00		 je	 $LN287@SetFoundWa
  00206	81 65 f0 ff ef
	ff ff		 and	 DWORD PTR $T79[ebp], -4097 ; ffffefffH
  0020d	8d 8d 54 ff ff
	ff		 lea	 ecx, DWORD PTR $T39[ebp]
  00213	ff 25 00 00 00
	00		 jmp	 DWORD PTR __imp_??1?$CStringT@DV?$StrTraitMFC_DLL@DV?$ChTraitsCRT@D@ATL@@@@@ATL@@QAE@XZ
$LN287@SetFoundWa:
  00219	c3		 ret	 0
__unwindfunclet$?SetFoundWavePtnToGrid_RptType1@CDlgAnalysis@@QAEXPAVCObject@@PAN11H@Z$79:
  0021a	8b 45 f0	 mov	 eax, DWORD PTR $T79[ebp]
  0021d	25 00 20 00 00	 and	 eax, 8192		; 00002000H
  00222	0f 84 10 00 00
	00		 je	 $LN303@SetFoundWa
  00228	81 65 f0 ff df
	ff ff		 and	 DWORD PTR $T79[ebp], -8193 ; ffffdfffH
  0022f	8d 4d a0	 lea	 ecx, DWORD PTR $T58[ebp]
  00232	ff 25 00 00 00
	00		 jmp	 DWORD PTR __imp_??1?$CStringT@DV?$StrTraitMFC_DLL@DV?$ChTraitsCRT@D@ATL@@@@@ATL@@QAE@XZ
$LN303@SetFoundWa:
  00238	c3		 ret	 0
__unwindfunclet$?SetFoundWavePtnToGrid_RptType1@CDlgAnalysis@@QAEXPAVCObject@@PAN11H@Z$80:
  00239	8b 45 f0	 mov	 eax, DWORD PTR $T79[ebp]
  0023c	25 00 40 00 00	 and	 eax, 16384		; 00004000H
  00241	0f 84 10 00 00
	00		 je	 $LN316@SetFoundWa
  00247	81 65 f0 ff bf
	ff ff		 and	 DWORD PTR $T79[ebp], -16385 ; ffffbfffH
  0024e	8d 4d a4	 lea	 ecx, DWORD PTR $T59[ebp]
  00251	ff 25 00 00 00
	00		 jmp	 DWORD PTR __imp_??1?$CStringT@DV?$StrTraitMFC_DLL@DV?$ChTraitsCRT@D@ATL@@@@@ATL@@QAE@XZ
$LN316@SetFoundWa:
  00257	c3		 ret	 0
__unwindfunclet$?SetFoundWavePtnToGrid_RptType1@CDlgAnalysis@@QAEXPAVCObject@@PAN11H@Z$81:
  00258	8b 45 f0	 mov	 eax, DWORD PTR $T79[ebp]
  0025b	25 00 80 00 00	 and	 eax, 32768		; 00008000H
  00260	0f 84 10 00 00
	00		 je	 $LN332@SetFoundWa
  00266	81 65 f0 ff 7f
	ff ff		 and	 DWORD PTR $T79[ebp], -32769 ; ffff7fffH
  0026d	8d 4d a8	 lea	 ecx, DWORD PTR $T60[ebp]
  00270	ff 25 00 00 00
	00		 jmp	 DWORD PTR __imp_??1?$CStringT@DV?$StrTraitMFC_DLL@DV?$ChTraitsCRT@D@ATL@@@@@ATL@@QAE@XZ
$LN332@SetFoundWa:
  00276	c3		 ret	 0
__unwindfunclet$?SetFoundWavePtnToGrid_RptType1@CDlgAnalysis@@QAEXPAVCObject@@PAN11H@Z$82:
  00277	8b 45 f0	 mov	 eax, DWORD PTR $T79[ebp]
  0027a	25 00 00 01 00	 and	 eax, 65536		; 00010000H
  0027f	0f 84 13 00 00
	00		 je	 $LN345@SetFoundWa
  00285	81 65 f0 ff ff
	fe ff		 and	 DWORD PTR $T79[ebp], -65537 ; fffeffffH
  0028c	8d 8d 4c ff ff
	ff		 lea	 ecx, DWORD PTR $T37[ebp]
  00292	ff 25 00 00 00
	00		 jmp	 DWORD PTR __imp_??1?$CStringT@DV?$StrTraitMFC_DLL@DV?$ChTraitsCRT@D@ATL@@@@@ATL@@QAE@XZ
$LN345@SetFoundWa:
  00298	c3		 ret	 0
__unwindfunclet$?SetFoundWavePtnToGrid_RptType1@CDlgAnalysis@@QAEXPAVCObject@@PAN11H@Z$31:
  00299	8d 8d e8 fe ff
	ff		 lea	 ecx, DWORD PTR $T17[ebp]
  0029f	ff 25 00 00 00
	00		 jmp	 DWORD PTR __imp_??1?$CStringT@DV?$StrTraitMFC_DLL@DV?$ChTraitsCRT@D@ATL@@@@@ATL@@QAE@XZ
__unwindfunclet$?SetFoundWavePtnToGrid_RptType1@CDlgAnalysis@@QAEXPAVCObject@@PAN11H@Z$32:
  002a5	8d 8d ec fe ff
	ff		 lea	 ecx, DWORD PTR $T18[ebp]
  002ab	ff 25 00 00 00
	00		 jmp	 DWORD PTR __imp_??1?$CStringT@DV?$StrTraitMFC_DLL@DV?$ChTraitsCRT@D@ATL@@@@@ATL@@QAE@XZ
__unwindfunclet$?SetFoundWavePtnToGrid_RptType1@CDlgAnalysis@@QAEXPAVCObject@@PAN11H@Z$33:
  002b1	8d 8d f0 fe ff
	ff		 lea	 ecx, DWORD PTR $T19[ebp]
  002b7	ff 25 00 00 00
	00		 jmp	 DWORD PTR __imp_??1?$CStringT@DV?$StrTraitMFC_DLL@DV?$ChTraitsCRT@D@ATL@@@@@ATL@@QAE@XZ
__unwindfunclet$?SetFoundWavePtnToGrid_RptType1@CDlgAnalysis@@QAEXPAVCObject@@PAN11H@Z$83:
  002bd	8b 45 f0	 mov	 eax, DWORD PTR $T79[ebp]
  002c0	25 00 00 02 00	 and	 eax, 131072		; 00020000H
  002c5	0f 84 10 00 00
	00		 je	 $LN365@SetFoundWa
  002cb	81 65 f0 ff ff
	fd ff		 and	 DWORD PTR $T79[ebp], -131073 ; fffdffffH
  002d2	8d 4d 8c	 lea	 ecx, DWORD PTR $T53[ebp]
  002d5	ff 25 00 00 00
	00		 jmp	 DWORD PTR __imp_??1?$CStringT@DV?$StrTraitMFC_DLL@DV?$ChTraitsCRT@D@ATL@@@@@ATL@@QAE@XZ
$LN365@SetFoundWa:
  002db	c3		 ret	 0
__unwindfunclet$?SetFoundWavePtnToGrid_RptType1@CDlgAnalysis@@QAEXPAVCObject@@PAN11H@Z$84:
  002dc	8b 45 f0	 mov	 eax, DWORD PTR $T79[ebp]
  002df	25 00 00 04 00	 and	 eax, 262144		; 00040000H
  002e4	0f 84 10 00 00
	00		 je	 $LN378@SetFoundWa
  002ea	81 65 f0 ff ff
	fb ff		 and	 DWORD PTR $T79[ebp], -262145 ; fffbffffH
  002f1	8d 4d 90	 lea	 ecx, DWORD PTR $T54[ebp]
  002f4	ff 25 00 00 00
	00		 jmp	 DWORD PTR __imp_??1?$CStringT@DV?$StrTraitMFC_DLL@DV?$ChTraitsCRT@D@ATL@@@@@ATL@@QAE@XZ
$LN378@SetFoundWa:
  002fa	c3		 ret	 0
__unwindfunclet$?SetFoundWavePtnToGrid_RptType1@CDlgAnalysis@@QAEXPAVCObject@@PAN11H@Z$85:
  002fb	8b 45 f0	 mov	 eax, DWORD PTR $T79[ebp]
  002fe	25 00 00 08 00	 and	 eax, 524288		; 00080000H
  00303	0f 84 10 00 00
	00		 je	 $LN394@SetFoundWa
  00309	81 65 f0 ff ff
	f7 ff		 and	 DWORD PTR $T79[ebp], -524289 ; fff7ffffH
  00310	8d 4d 94	 lea	 ecx, DWORD PTR $T55[ebp]
  00313	ff 25 00 00 00
	00		 jmp	 DWORD PTR __imp_??1?$CStringT@DV?$StrTraitMFC_DLL@DV?$ChTraitsCRT@D@ATL@@@@@ATL@@QAE@XZ
$LN394@SetFoundWa:
  00319	c3		 ret	 0
__unwindfunclet$?SetFoundWavePtnToGrid_RptType1@CDlgAnalysis@@QAEXPAVCObject@@PAN11H@Z$86:
  0031a	8b 45 f0	 mov	 eax, DWORD PTR $T79[ebp]
  0031d	25 00 00 10 00	 and	 eax, 1048576		; 00100000H
  00322	0f 84 13 00 00
	00		 je	 $LN407@SetFoundWa
  00328	81 65 f0 ff ff
	ef ff		 and	 DWORD PTR $T79[ebp], -1048577 ; ffefffffH
  0032f	8d 8d 48 ff ff
	ff		 lea	 ecx, DWORD PTR $T36[ebp]
  00335	ff 25 00 00 00
	00		 jmp	 DWORD PTR __imp_??1?$CStringT@DV?$StrTraitMFC_DLL@DV?$ChTraitsCRT@D@ATL@@@@@ATL@@QAE@XZ
$LN407@SetFoundWa:
  0033b	c3		 ret	 0
__unwindfunclet$?SetFoundWavePtnToGrid_RptType1@CDlgAnalysis@@QAEXPAVCObject@@PAN11H@Z$38:
  0033c	8d 8d e0 fe ff
	ff		 lea	 ecx, DWORD PTR $T15[ebp]
  00342	ff 25 00 00 00
	00		 jmp	 DWORD PTR __imp_??1?$CStringT@DV?$StrTraitMFC_DLL@DV?$ChTraitsCRT@D@ATL@@@@@ATL@@QAE@XZ
__unwindfunclet$?SetFoundWavePtnToGrid_RptType1@CDlgAnalysis@@QAEXPAVCObject@@PAN11H@Z$39:
  00348	8d 8d e4 fe ff
	ff		 lea	 ecx, DWORD PTR $T16[ebp]
  0034e	ff 25 00 00 00
	00		 jmp	 DWORD PTR __imp_??1?$CStringT@DV?$StrTraitMFC_DLL@DV?$ChTraitsCRT@D@ATL@@@@@ATL@@QAE@XZ
__unwindfunclet$?SetFoundWavePtnToGrid_RptType1@CDlgAnalysis@@QAEXPAVCObject@@PAN11H@Z$87:
  00354	8b 45 f0	 mov	 eax, DWORD PTR $T79[ebp]
  00357	25 00 00 20 00	 and	 eax, 2097152		; 00200000H
  0035c	0f 84 10 00 00
	00		 je	 $LN423@SetFoundWa
  00362	81 65 f0 ff ff
	df ff		 and	 DWORD PTR $T79[ebp], -2097153 ; ffdfffffH
  00369	8d 4d 84	 lea	 ecx, DWORD PTR $T51[ebp]
  0036c	ff 25 00 00 00
	00		 jmp	 DWORD PTR __imp_??1?$CStringT@DV?$StrTraitMFC_DLL@DV?$ChTraitsCRT@D@ATL@@@@@ATL@@QAE@XZ
$LN423@SetFoundWa:
  00372	c3		 ret	 0
__unwindfunclet$?SetFoundWavePtnToGrid_RptType1@CDlgAnalysis@@QAEXPAVCObject@@PAN11H@Z$88:
  00373	8b 45 f0	 mov	 eax, DWORD PTR $T79[ebp]
  00376	25 00 00 40 00	 and	 eax, 4194304		; 00400000H
  0037b	0f 84 10 00 00
	00		 je	 $LN436@SetFoundWa
  00381	81 65 f0 ff ff
	bf ff		 and	 DWORD PTR $T79[ebp], -4194305 ; ffbfffffH
  00388	8d 4d 88	 lea	 ecx, DWORD PTR $T52[ebp]
  0038b	ff 25 00 00 00
	00		 jmp	 DWORD PTR __imp_??1?$CStringT@DV?$StrTraitMFC_DLL@DV?$ChTraitsCRT@D@ATL@@@@@ATL@@QAE@XZ
$LN436@SetFoundWa:
  00391	c3		 ret	 0
__unwindfunclet$?SetFoundWavePtnToGrid_RptType1@CDlgAnalysis@@QAEXPAVCObject@@PAN11H@Z$89:
  00392	8b 45 f0	 mov	 eax, DWORD PTR $T79[ebp]
  00395	25 00 00 80 00	 and	 eax, 8388608		; 00800000H
  0039a	0f 84 13 00 00
	00		 je	 $LN452@SetFoundWa
  003a0	81 65 f0 ff ff
	7f ff		 and	 DWORD PTR $T79[ebp], -8388609 ; ff7fffffH
  003a7	8d 8d 44 ff ff
	ff		 lea	 ecx, DWORD PTR $T35[ebp]
  003ad	ff 25 00 00 00
	00		 jmp	 DWORD PTR __imp_??1?$CStringT@DV?$StrTraitMFC_DLL@DV?$ChTraitsCRT@D@ATL@@@@@ATL@@QAE@XZ
$LN452@SetFoundWa:
  003b3	c3		 ret	 0
__unwindfunclet$?SetFoundWavePtnToGrid_RptType1@CDlgAnalysis@@QAEXPAVCObject@@PAN11H@Z$43:
  003b4	8d 8d d4 fe ff
	ff		 lea	 ecx, DWORD PTR $T12[ebp]
  003ba	ff 25 00 00 00
	00		 jmp	 DWORD PTR __imp_??1?$CStringT@DV?$StrTraitMFC_DLL@DV?$ChTraitsCRT@D@ATL@@@@@ATL@@QAE@XZ
__unwindfunclet$?SetFoundWavePtnToGrid_RptType1@CDlgAnalysis@@QAEXPAVCObject@@PAN11H@Z$44:
  003c0	8d 8d d8 fe ff
	ff		 lea	 ecx, DWORD PTR $T13[ebp]
  003c6	ff 25 00 00 00
	00		 jmp	 DWORD PTR __imp_??1?$CStringT@DV?$StrTraitMFC_DLL@DV?$ChTraitsCRT@D@ATL@@@@@ATL@@QAE@XZ
__unwindfunclet$?SetFoundWavePtnToGrid_RptType1@CDlgAnalysis@@QAEXPAVCObject@@PAN11H@Z$45:
  003cc	8d 8d dc fe ff
	ff		 lea	 ecx, DWORD PTR $T14[ebp]
  003d2	ff 25 00 00 00
	00		 jmp	 DWORD PTR __imp_??1?$CStringT@DV?$StrTraitMFC_DLL@DV?$ChTraitsCRT@D@ATL@@@@@ATL@@QAE@XZ
__unwindfunclet$?SetFoundWavePtnToGrid_RptType1@CDlgAnalysis@@QAEXPAVCObject@@PAN11H@Z$90:
  003d8	8b 45 f0	 mov	 eax, DWORD PTR $T79[ebp]
  003db	25 00 00 00 01	 and	 eax, 16777216		; 01000000H
  003e0	0f 84 13 00 00
	00		 je	 $LN469@SetFoundWa
  003e6	81 65 f0 ff ff
	ff fe		 and	 DWORD PTR $T79[ebp], -16777217 ; feffffffH
  003ed	8d 8d 74 ff ff
	ff		 lea	 ecx, DWORD PTR $T47[ebp]
  003f3	ff 25 00 00 00
	00		 jmp	 DWORD PTR __imp_??1?$CStringT@DV?$StrTraitMFC_DLL@DV?$ChTraitsCRT@D@ATL@@@@@ATL@@QAE@XZ
$LN469@SetFoundWa:
  003f9	c3		 ret	 0
__unwindfunclet$?SetFoundWavePtnToGrid_RptType1@CDlgAnalysis@@QAEXPAVCObject@@PAN11H@Z$91:
  003fa	8b 45 f0	 mov	 eax, DWORD PTR $T79[ebp]
  003fd	25 00 00 00 02	 and	 eax, 33554432		; 02000000H
  00402	0f 84 13 00 00
	00		 je	 $LN482@SetFoundWa
  00408	81 65 f0 ff ff
	ff fd		 and	 DWORD PTR $T79[ebp], -33554433 ; fdffffffH
  0040f	8d 8d 78 ff ff
	ff		 lea	 ecx, DWORD PTR $T48[ebp]
  00415	ff 25 00 00 00
	00		 jmp	 DWORD PTR __imp_??1?$CStringT@DV?$StrTraitMFC_DLL@DV?$ChTraitsCRT@D@ATL@@@@@ATL@@QAE@XZ
$LN482@SetFoundWa:
  0041b	c3		 ret	 0
__unwindfunclet$?SetFoundWavePtnToGrid_RptType1@CDlgAnalysis@@QAEXPAVCObject@@PAN11H@Z$92:
  0041c	8b 45 f0	 mov	 eax, DWORD PTR $T79[ebp]
  0041f	25 00 00 00 04	 and	 eax, 67108864		; 04000000H
  00424	0f 84 13 00 00
	00		 je	 $LN495@SetFoundWa
  0042a	81 65 f0 ff ff
	ff fb		 and	 DWORD PTR $T79[ebp], -67108865 ; fbffffffH
  00431	8d 8d 7c ff ff
	ff		 lea	 ecx, DWORD PTR $T49[ebp]
  00437	ff 25 00 00 00
	00		 jmp	 DWORD PTR __imp_??1?$CStringT@DV?$StrTraitMFC_DLL@DV?$ChTraitsCRT@D@ATL@@@@@ATL@@QAE@XZ
$LN495@SetFoundWa:
  0043d	c3		 ret	 0
__unwindfunclet$?SetFoundWavePtnToGrid_RptType1@CDlgAnalysis@@QAEXPAVCObject@@PAN11H@Z$93:
  0043e	8b 45 f0	 mov	 eax, DWORD PTR $T79[ebp]
  00441	25 00 00 00 08	 and	 eax, 134217728		; 08000000H
  00446	0f 84 10 00 00
	00		 je	 $LN511@SetFoundWa
  0044c	81 65 f0 ff ff
	ff f7		 and	 DWORD PTR $T79[ebp], -134217729 ; f7ffffffH
  00453	8d 4d 80	 lea	 ecx, DWORD PTR $T50[ebp]
  00456	ff 25 00 00 00
	00		 jmp	 DWORD PTR __imp_??1?$CStringT@DV?$StrTraitMFC_DLL@DV?$ChTraitsCRT@D@ATL@@@@@ATL@@QAE@XZ
$LN511@SetFoundWa:
  0045c	c3		 ret	 0
__unwindfunclet$?SetFoundWavePtnToGrid_RptType1@CDlgAnalysis@@QAEXPAVCObject@@PAN11H@Z$94:
  0045d	8b 45 f0	 mov	 eax, DWORD PTR $T79[ebp]
  00460	25 00 00 00 10	 and	 eax, 268435456		; 10000000H
  00465	0f 84 13 00 00
	00		 je	 $LN524@SetFoundWa
  0046b	81 65 f0 ff ff
	ff ef		 and	 DWORD PTR $T79[ebp], -268435457 ; efffffffH
  00472	8d 8d 40 ff ff
	ff		 lea	 ecx, DWORD PTR $T34[ebp]
  00478	ff 25 00 00 00
	00		 jmp	 DWORD PTR __imp_??1?$CStringT@DV?$StrTraitMFC_DLL@DV?$ChTraitsCRT@D@ATL@@@@@ATL@@QAE@XZ
$LN524@SetFoundWa:
  0047e	c3		 ret	 0
__unwindfunclet$?SetFoundWavePtnToGrid_RptType1@CDlgAnalysis@@QAEXPAVCObject@@PAN11H@Z$51:
  0047f	8d 8d bc fe ff
	ff		 lea	 ecx, DWORD PTR $T6[ebp]
  00485	ff 25 00 00 00
	00		 jmp	 DWORD PTR __imp_??1?$CStringT@DV?$StrTraitMFC_DLL@DV?$ChTraitsCRT@D@ATL@@@@@ATL@@QAE@XZ
__unwindfunclet$?SetFoundWavePtnToGrid_RptType1@CDlgAnalysis@@QAEXPAVCObject@@PAN11H@Z$52:
  0048b	8d 8d c0 fe ff
	ff		 lea	 ecx, DWORD PTR $T7[ebp]
  00491	ff 25 00 00 00
	00		 jmp	 DWORD PTR __imp_??1?$CStringT@DV?$StrTraitMFC_DLL@DV?$ChTraitsCRT@D@ATL@@@@@ATL@@QAE@XZ
__unwindfunclet$?SetFoundWavePtnToGrid_RptType1@CDlgAnalysis@@QAEXPAVCObject@@PAN11H@Z$53:
  00497	8d 8d c4 fe ff
	ff		 lea	 ecx, DWORD PTR $T8[ebp]
  0049d	ff 25 00 00 00
	00		 jmp	 DWORD PTR __imp_??1?$CStringT@DV?$StrTraitMFC_DLL@DV?$ChTraitsCRT@D@ATL@@@@@ATL@@QAE@XZ
__unwindfunclet$?SetFoundWavePtnToGrid_RptType1@CDlgAnalysis@@QAEXPAVCObject@@PAN11H@Z$54:
  004a3	8d 8d c8 fe ff
	ff		 lea	 ecx, DWORD PTR $T9[ebp]
  004a9	ff 25 00 00 00
	00		 jmp	 DWORD PTR __imp_??1?$CStringT@DV?$StrTraitMFC_DLL@DV?$ChTraitsCRT@D@ATL@@@@@ATL@@QAE@XZ
__unwindfunclet$?SetFoundWavePtnToGrid_RptType1@CDlgAnalysis@@QAEXPAVCObject@@PAN11H@Z$55:
  004af	8d 8d cc fe ff
	ff		 lea	 ecx, DWORD PTR $T10[ebp]
  004b5	ff 25 00 00 00
	00		 jmp	 DWORD PTR __imp_??1?$CStringT@DV?$StrTraitMFC_DLL@DV?$ChTraitsCRT@D@ATL@@@@@ATL@@QAE@XZ
__unwindfunclet$?SetFoundWavePtnToGrid_RptType1@CDlgAnalysis@@QAEXPAVCObject@@PAN11H@Z$95:
  004bb	8b 45 f0	 mov	 eax, DWORD PTR $T79[ebp]
  004be	25 00 00 00 20	 and	 eax, 536870912		; 20000000H
  004c3	0f 84 13 00 00
	00		 je	 $LN544@SetFoundWa
  004c9	81 65 f0 ff ff
	ff df		 and	 DWORD PTR $T79[ebp], -536870913 ; dfffffffH
  004d0	8d 8d 58 ff ff
	ff		 lea	 ecx, DWORD PTR $T40[ebp]
  004d6	ff 25 00 00 00
	00		 jmp	 DWORD PTR __imp_??1?$CStringT@DV?$StrTraitMFC_DLL@DV?$ChTraitsCRT@D@ATL@@@@@ATL@@QAE@XZ
$LN544@SetFoundWa:
  004dc	c3		 ret	 0
__unwindfunclet$?SetFoundWavePtnToGrid_RptType1@CDlgAnalysis@@QAEXPAVCObject@@PAN11H@Z$96:
  004dd	8b 45 f0	 mov	 eax, DWORD PTR $T79[ebp]
  004e0	25 00 00 00 40	 and	 eax, 1073741824		; 40000000H
  004e5	0f 84 13 00 00
	00		 je	 $LN557@SetFoundWa
  004eb	81 65 f0 ff ff
	ff bf		 and	 DWORD PTR $T79[ebp], -1073741825 ; bfffffffH
  004f2	8d 8d 5c ff ff
	ff		 lea	 ecx, DWORD PTR $T41[ebp]
  004f8	ff 25 00 00 00
	00		 jmp	 DWORD PTR __imp_??1?$CStringT@DV?$StrTraitMFC_DLL@DV?$ChTraitsCRT@D@ATL@@@@@ATL@@QAE@XZ
$LN557@SetFoundWa:
  004fe	c3		 ret	 0
__unwindfunclet$?SetFoundWavePtnToGrid_RptType1@CDlgAnalysis@@QAEXPAVCObject@@PAN11H@Z$97:
  004ff	8b 45 f0	 mov	 eax, DWORD PTR $T79[ebp]
  00502	25 00 00 00 80	 and	 eax, -2147483648	; 80000000H
  00507	0f 84 13 00 00
	00		 je	 $LN573@SetFoundWa
  0050d	81 65 f0 ff ff
	ff 7f		 and	 DWORD PTR $T79[ebp], 2147483647 ; 7fffffffH
  00514	8d 8d 60 ff ff
	ff		 lea	 ecx, DWORD PTR $T42[ebp]
  0051a	ff 25 00 00 00
	00		 jmp	 DWORD PTR __imp_??1?$CStringT@DV?$StrTraitMFC_DLL@DV?$ChTraitsCRT@D@ATL@@@@@ATL@@QAE@XZ
$LN573@SetFoundWa:
  00520	c3		 ret	 0
__unwindfunclet$?SetFoundWavePtnToGrid_RptType1@CDlgAnalysis@@QAEXPAVCObject@@PAN11H@Z$98:
  00521	8b 45 d8	 mov	 eax, DWORD PTR $T71[ebp]
  00524	83 e0 01	 and	 eax, 1
  00527	0f 84 10 00 00
	00		 je	 $LN586@SetFoundWa
  0052d	83 65 d8 fe	 and	 DWORD PTR $T71[ebp], -2	; fffffffeH
  00531	8d 8d 64 ff ff
	ff		 lea	 ecx, DWORD PTR $T43[ebp]
  00537	ff 25 00 00 00
	00		 jmp	 DWORD PTR __imp_??1?$CStringT@DV?$StrTraitMFC_DLL@DV?$ChTraitsCRT@D@ATL@@@@@ATL@@QAE@XZ
$LN586@SetFoundWa:
  0053d	c3		 ret	 0
__unwindfunclet$?SetFoundWavePtnToGrid_RptType1@CDlgAnalysis@@QAEXPAVCObject@@PAN11H@Z$99:
  0053e	8b 45 d8	 mov	 eax, DWORD PTR $T71[ebp]
  00541	83 e0 02	 and	 eax, 2
  00544	0f 84 10 00 00
	00		 je	 $LN602@SetFoundWa
  0054a	83 65 d8 fd	 and	 DWORD PTR $T71[ebp], -3	; fffffffdH
  0054e	8d 8d 68 ff ff
	ff		 lea	 ecx, DWORD PTR $T44[ebp]
  00554	ff 25 00 00 00
	00		 jmp	 DWORD PTR __imp_??1?$CStringT@DV?$StrTraitMFC_DLL@DV?$ChTraitsCRT@D@ATL@@@@@ATL@@QAE@XZ
$LN602@SetFoundWa:
  0055a	c3		 ret	 0
__unwindfunclet$?SetFoundWavePtnToGrid_RptType1@CDlgAnalysis@@QAEXPAVCObject@@PAN11H@Z$100:
  0055b	8b 45 d8	 mov	 eax, DWORD PTR $T71[ebp]
  0055e	83 e0 04	 and	 eax, 4
  00561	0f 84 10 00 00
	00		 je	 $LN615@SetFoundWa
  00567	83 65 d8 fb	 and	 DWORD PTR $T71[ebp], -5	; fffffffbH
  0056b	8d 8d 6c ff ff
	ff		 lea	 ecx, DWORD PTR $T45[ebp]
  00571	ff 25 00 00 00
	00		 jmp	 DWORD PTR __imp_??1?$CStringT@DV?$StrTraitMFC_DLL@DV?$ChTraitsCRT@D@ATL@@@@@ATL@@QAE@XZ
$LN615@SetFoundWa:
  00577	c3		 ret	 0
__unwindfunclet$?SetFoundWavePtnToGrid_RptType1@CDlgAnalysis@@QAEXPAVCObject@@PAN11H@Z$101:
  00578	8b 45 d8	 mov	 eax, DWORD PTR $T71[ebp]
  0057b	83 e0 08	 and	 eax, 8
  0057e	0f 84 10 00 00
	00		 je	 $LN631@SetFoundWa
  00584	83 65 d8 f7	 and	 DWORD PTR $T71[ebp], -9	; fffffff7H
  00588	8d 8d 70 ff ff
	ff		 lea	 ecx, DWORD PTR $T46[ebp]
  0058e	ff 25 00 00 00
	00		 jmp	 DWORD PTR __imp_??1?$CStringT@DV?$StrTraitMFC_DLL@DV?$ChTraitsCRT@D@ATL@@@@@ATL@@QAE@XZ
$LN631@SetFoundWa:
  00594	c3		 ret	 0
__unwindfunclet$?SetFoundWavePtnToGrid_RptType1@CDlgAnalysis@@QAEXPAVCObject@@PAN11H@Z$102:
  00595	8b 45 d8	 mov	 eax, DWORD PTR $T71[ebp]
  00598	83 e0 10	 and	 eax, 16			; 00000010H
  0059b	0f 84 10 00 00
	00		 je	 $LN644@SetFoundWa
  005a1	83 65 d8 ef	 and	 DWORD PTR $T71[ebp], -17 ; ffffffefH
  005a5	8d 8d 3c ff ff
	ff		 lea	 ecx, DWORD PTR $T33[ebp]
  005ab	ff 25 00 00 00
	00		 jmp	 DWORD PTR __imp_??1?$CStringT@DV?$StrTraitMFC_DLL@DV?$ChTraitsCRT@D@ATL@@@@@ATL@@QAE@XZ
$LN644@SetFoundWa:
  005b1	c3		 ret	 0
__unwindfunclet$?SetFoundWavePtnToGrid_RptType1@CDlgAnalysis@@QAEXPAVCObject@@PAN11H@Z$64:
  005b2	8d 8d b8 fe ff
	ff		 lea	 ecx, DWORD PTR $T5[ebp]
  005b8	ff 25 00 00 00
	00		 jmp	 DWORD PTR __imp_??1?$CStringT@DV?$StrTraitMFC_DLL@DV?$ChTraitsCRT@D@ATL@@@@@ATL@@QAE@XZ
__unwindfunclet$?SetFoundWavePtnToGrid_RptType1@CDlgAnalysis@@QAEXPAVCObject@@PAN11H@Z$65:
  005be	8d 8d b4 fe ff
	ff		 lea	 ecx, DWORD PTR $T4[ebp]
  005c4	ff 25 00 00 00
	00		 jmp	 DWORD PTR __imp_??1?$CStringT@DV?$StrTraitMFC_DLL@DV?$ChTraitsCRT@D@ATL@@@@@ATL@@QAE@XZ
  005ca	cc		 int	 3
  005cb	cc		 int	 3
  005cc	cc		 int	 3
  005cd	cc		 int	 3
  005ce	cc		 int	 3
__ehhandler$?SetFoundWavePtnToGrid_RptType1@CDlgAnalysis@@QAEXPAVCObject@@PAN11H@Z:
  005cf	90		 npad	 1
  005d0	90		 npad	 1
  005d1	8b 54 24 08	 mov	 edx, DWORD PTR [esp+8]
  005d5	8d 42 0c	 lea	 eax, DWORD PTR [edx+12]
  005d8	8b 8a ac fe ff
	ff		 mov	 ecx, DWORD PTR [edx-340]
  005de	33 c8		 xor	 ecx, eax
  005e0	e8 00 00 00 00	 call	 @__security_check_cookie@4
  005e5	b8 00 00 00 00	 mov	 eax, OFFSET __ehfuncinfo$?SetFoundWavePtnToGrid_RptType1@CDlgAnalysis@@QAEXPAVCObject@@PAN11H@Z
  005ea	e9 00 00 00 00	 jmp	 ___CxxFrameHandler3
text$x	ENDS
?SetFoundWavePtnToGrid_RptType1@CDlgAnalysis@@QAEXPAVCObject@@PAN11H@Z ENDP ; CDlgAnalysis::SetFoundWavePtnToGrid_RptType1
; Function compile flags: /Ogtp
; File D:\git\src\IBK\IBK_DRFN\ProjSrc\SrcChartEx\ChartAddIn\ChartPatternAddIn\DlgAnalysis.cpp
; File D:\git\src\IBK\IBK_DRFN\ProjSrc\SrcChartEx\ChartAddIn\ChartPatternAddIn\Include_Chart\Dll_Load\IMetaTable.h
; File D:\git\src\IBK\IBK_DRFN\ProjSrc\SrcChartEx\ChartAddIn\ChartPatternAddIn\DlgAnalysis.cpp
; File D:\git\src\IBK\IBK_DRFN\ProjSrc\SrcChartEx\ChartAddIn\ChartPatternAddIn\Include_Chart\Dll_Load\IMetaTable.h
; File D:\git\src\IBK\IBK_DRFN\ProjSrc\SrcChartEx\ChartAddIn\ChartPatternAddIn\DlgAnalysis.cpp
;	COMDAT ?InitGridFormat_WaveRptType1@CDlgAnalysis@@QAEXXZ
_TEXT	SEGMENT
_strTemp$ = -264					; size = 4
_this$GSCopy$1$ = -260					; size = 4
_nCol$1$ = -256						; size = 4
_nRow$1$ = -252						; size = 4
_Item$2 = -248						; size = 104
_szTitleSub_K$ = -144					; size = 32
_szTitleSub_E$ = -112					; size = 32
_szTitle_K$ = -80					; size = 32
_szTitle_E$ = -48					; size = 32
__$ArrayPad$ = -16					; size = 4
__$EHRec$ = -12						; size = 12
?InitGridFormat_WaveRptType1@CDlgAnalysis@@QAEXXZ PROC	; CDlgAnalysis::InitGridFormat_WaveRptType1, COMDAT
; _this$ = ecx

; 245  : {

  00000	55		 push	 ebp
  00001	8b ec		 mov	 ebp, esp
  00003	6a ff		 push	 -1
  00005	68 00 00 00 00	 push	 __ehhandler$?InitGridFormat_WaveRptType1@CDlgAnalysis@@QAEXXZ
  0000a	64 a1 00 00 00
	00		 mov	 eax, DWORD PTR fs:0
  00010	50		 push	 eax
  00011	81 ec fc 00 00
	00		 sub	 esp, 252		; 000000fcH
  00017	a1 00 00 00 00	 mov	 eax, DWORD PTR ___security_cookie
  0001c	33 c5		 xor	 eax, ebp
  0001e	89 45 f0	 mov	 DWORD PTR __$ArrayPad$[ebp], eax
  00021	53		 push	 ebx
  00022	56		 push	 esi
  00023	57		 push	 edi
  00024	50		 push	 eax
  00025	8d 45 f4	 lea	 eax, DWORD PTR __$EHRec$[ebp]
  00028	64 a3 00 00 00
	00		 mov	 DWORD PTR fs:0, eax
  0002e	8b d9		 mov	 ebx, ecx
  00030	89 9d fc fe ff
	ff		 mov	 DWORD PTR _this$GSCopy$1$[ebp], ebx

; 246  : 	CString strTemp;

  00036	8d 8d f8 fe ff
	ff		 lea	 ecx, DWORD PTR _strTemp$[ebp]
  0003c	ff 15 00 00 00
	00		 call	 DWORD PTR __imp_??0?$CStringT@DV?$StrTraitMFC_DLL@DV?$ChTraitsCRT@D@ATL@@@@@ATL@@QAE@XZ

; 248  : 	int nCol = m_pGridWaveRptType1->GetColumnCount();

  00042	8b 83 b0 00 00
	00		 mov	 eax, DWORD PTR [ebx+176]

; 256  : 
; 257  : 	IMetaTable::E_LANGUAGEID eLanguageID = g_iMetaTable.GetCurrentLanguageID( m_hOcxWnd);

  00048	8b b3 94 01 00
	00		 mov	 esi, DWORD PTR [ebx+404]
  0004e	c7 45 fc 00 00
	00 00		 mov	 DWORD PTR __$EHRec$[ebp+8], 0
  00055	c7 45 b0 00 00
	00 00		 mov	 DWORD PTR _szTitle_K$[ebp], OFFSET ??_C@_03ONPMIKNM@No?4@
  0005c	8b 88 38 01 00
	00		 mov	 ecx, DWORD PTR [eax+312]
  00062	8b 80 30 01 00
	00		 mov	 eax, DWORD PTR [eax+304]
  00068	89 85 04 ff ff
	ff		 mov	 DWORD PTR _nRow$1$[ebp], eax
; File D:\git\src\IBK\IBK_DRFN\ProjSrc\SrcChartEx\ChartAddIn\ChartPatternAddIn\Include_Chart\Dll_Load\IMetaTable.h

; 934  : 	DECLARE_FUNCTION1(	GetCurrentLanguageID,			E_LANGUAGEID, ENGLISH, HWND);

  0006e	a1 04 00 00 00	 mov	 eax, DWORD PTR ?g_iMetaTable@@3VIMetaTable@@A+4
; File D:\git\src\IBK\IBK_DRFN\ProjSrc\SrcChartEx\ChartAddIn\ChartPatternAddIn\DlgAnalysis.cpp

; 248  : 	int nCol = m_pGridWaveRptType1->GetColumnCount();

  00073	89 8d 00 ff ff
	ff		 mov	 DWORD PTR _nCol$1$[ebp], ecx

; 249  : 	int nRow = m_pGridWaveRptType1->GetRowCount();
; 250  : 
; 251  : // 2008.02.20 by LYH >>
; 252  : 	char *szTitle_K[]		= {	"No.", "", "", "", "", "",	"",	""	};

  00079	c7 45 b4 00 00
	00 00		 mov	 DWORD PTR _szTitle_K$[ebp+4], OFFSET ??_C@_04DKOJHJPH@?$LD?$KP?B?$KF@
  00080	c7 45 b8 00 00
	00 00		 mov	 DWORD PTR _szTitle_K$[ebp+8], OFFSET ??_C@_04OJCJMHBO@?$MA?$KP?G?$PM@
  00087	c7 45 bc 00 00
	00 00		 mov	 DWORD PTR _szTitle_K$[ebp+12], OFFSET ??_C@_0L@LPJFCNKL@?C?$NP?$LM?$LM?F?P?E?O?$LI?m@
  0008e	c7 45 c0 00 00
	00 00		 mov	 DWORD PTR _szTitle_K$[ebp+16], OFFSET ??_C@_08LNOGFIKG@?$LB?$LI?$LM?$LK?$LK?$MA?$LM?v@
  00095	c7 45 c4 00 00
	00 00		 mov	 DWORD PTR _szTitle_K$[ebp+20], OFFSET ??_C@_0N@PBPHHOB@?$LJ?$NP?$LL?$PN?$LK?$LA?$LF?$LF?$LE?$NO?$LH?$PM@
  0009c	c7 45 c8 00 00
	00 00		 mov	 DWORD PTR _szTitle_K$[ebp+24], OFFSET ??_C@_0N@PBPHHOB@?$LJ?$NP?$LL?$PN?$LK?$LA?$LF?$LF?$LE?$NO?$LH?$PM@
  000a3	c7 45 cc 00 00
	00 00		 mov	 DWORD PTR _szTitle_K$[ebp+28], OFFSET ??_C@_0N@PBPHHOB@?$LJ?$NP?$LL?$PN?$LK?$LA?$LF?$LF?$LE?$NO?$LH?$PM@

; 253  : 	char *szTitle_E[]		= {	"No.", "Date", "Type", "Trend Name", "Bong Num", "Hitting Rate by Occurrence",	"Hitting Rate by Occurrence",	"Hitting Rate by Occurrence"	};

  000aa	c7 45 d0 00 00
	00 00		 mov	 DWORD PTR _szTitle_E$[ebp], OFFSET ??_C@_03ONPMIKNM@No?4@
  000b1	c7 45 d4 00 00
	00 00		 mov	 DWORD PTR _szTitle_E$[ebp+4], OFFSET ??_C@_04FMEGDJGD@Date@
  000b8	c7 45 d8 00 00
	00 00		 mov	 DWORD PTR _szTitle_E$[ebp+8], OFFSET ??_C@_04KOACHJEN@Type@
  000bf	c7 45 dc 00 00
	00 00		 mov	 DWORD PTR _szTitle_E$[ebp+12], OFFSET ??_C@_0L@DJLPBPGN@Trend?5Name@
  000c6	c7 45 e0 00 00
	00 00		 mov	 DWORD PTR _szTitle_E$[ebp+16], OFFSET ??_C@_08BGECMFMG@Bong?5Num@
  000cd	c7 45 e4 00 00
	00 00		 mov	 DWORD PTR _szTitle_E$[ebp+20], OFFSET ??_C@_0BL@LCBDFPID@Hitting?5Rate?5by?5Occurrence@
  000d4	c7 45 e8 00 00
	00 00		 mov	 DWORD PTR _szTitle_E$[ebp+24], OFFSET ??_C@_0BL@LCBDFPID@Hitting?5Rate?5by?5Occurrence@
  000db	c7 45 ec 00 00
	00 00		 mov	 DWORD PTR _szTitle_E$[ebp+28], OFFSET ??_C@_0BL@LCBDFPID@Hitting?5Rate?5by?5Occurrence@

; 254  : 	char *szTitleSub_K[]	= {	"No.", "", "", "", "", "",		"",	""		};

  000e2	c7 85 70 ff ff
	ff 00 00 00 00	 mov	 DWORD PTR _szTitleSub_K$[ebp], OFFSET ??_C@_03ONPMIKNM@No?4@
  000ec	c7 85 74 ff ff
	ff 00 00 00 00	 mov	 DWORD PTR _szTitleSub_K$[ebp+4], OFFSET ??_C@_04DKOJHJPH@?$LD?$KP?B?$KF@
  000f6	c7 85 78 ff ff
	ff 00 00 00 00	 mov	 DWORD PTR _szTitleSub_K$[ebp+8], OFFSET ??_C@_04OJCJMHBO@?$MA?$KP?G?$PM@
  00100	c7 85 7c ff ff
	ff 00 00 00 00	 mov	 DWORD PTR _szTitleSub_K$[ebp+12], OFFSET ??_C@_0L@LPJFCNKL@?C?$NP?$LM?$LM?F?P?E?O?$LI?m@
  0010a	c7 45 80 00 00
	00 00		 mov	 DWORD PTR _szTitleSub_K$[ebp+16], OFFSET ??_C@_08LNOGFIKG@?$LB?$LI?$LM?$LK?$LK?$MA?$LM?v@
  00111	c7 45 84 00 00
	00 00		 mov	 DWORD PTR _szTitleSub_K$[ebp+20], OFFSET ??_C@_0L@CBKFAJNJ@?$LP?$LJ?$LL?s?$LF?n?$LG?t?$LH?$PM@
  00118	c7 45 88 00 00
	00 00		 mov	 DWORD PTR _szTitleSub_K$[ebp+24], OFFSET ??_C@_0L@OJACLBNK@?$LN?G?A?$KG?$LF?n?$LG?t?$LH?$PM@
  0011f	c7 45 8c 00 00
	00 00		 mov	 DWORD PTR _szTitleSub_K$[ebp+28], OFFSET ??_C@_06BANOEBK@?$LF?$LF?$LE?$NO?$LH?$PM@

; 255  : 	char *szTitleSub_E[]	= {	"No.", "Date", "Type", "Trend Name", "Bong Num", "Estimated %",		"Real %",	"Hitting %"		};

  00126	c7 45 90 00 00
	00 00		 mov	 DWORD PTR _szTitleSub_E$[ebp], OFFSET ??_C@_03ONPMIKNM@No?4@
  0012d	c7 45 94 00 00
	00 00		 mov	 DWORD PTR _szTitleSub_E$[ebp+4], OFFSET ??_C@_04FMEGDJGD@Date@
  00134	c7 45 98 00 00
	00 00		 mov	 DWORD PTR _szTitleSub_E$[ebp+8], OFFSET ??_C@_04KOACHJEN@Type@
  0013b	c7 45 9c 00 00
	00 00		 mov	 DWORD PTR _szTitleSub_E$[ebp+12], OFFSET ??_C@_0L@DJLPBPGN@Trend?5Name@
  00142	c7 45 a0 00 00
	00 00		 mov	 DWORD PTR _szTitleSub_E$[ebp+16], OFFSET ??_C@_08BGECMFMG@Bong?5Num@
  00149	c7 45 a4 00 00
	00 00		 mov	 DWORD PTR _szTitleSub_E$[ebp+20], OFFSET ??_C@_0M@IHPMGMBN@Estimated?5?$CF@
  00150	c7 45 a8 00 00
	00 00		 mov	 DWORD PTR _szTitleSub_E$[ebp+24], OFFSET ??_C@_06ILPMMGLH@Real?5?$CF@
  00157	c7 45 ac 00 00
	00 00		 mov	 DWORD PTR _szTitleSub_E$[ebp+28], OFFSET ??_C@_09COFDECHD@Hitting?5?$CF@
; File D:\git\src\IBK\IBK_DRFN\ProjSrc\SrcChartEx\ChartAddIn\ChartPatternAddIn\Include_Chart\Dll_Load\IMetaTable.h

; 934  : 	DECLARE_FUNCTION1(	GetCurrentLanguageID,			E_LANGUAGEID, ENGLISH, HWND);

  0015e	85 c0		 test	 eax, eax
  00160	74 45		 je	 SHORT $LN41@InitGridFo
  00162	bf 80 0d 00 00	 mov	 edi, 3456		; 00000d80H
  00167	66 3b 3d 8c 00
	00 00		 cmp	 di, WORD PTR ?g_iMetaTable@@3VIMetaTable@@A+140
  0016e	74 24		 je	 SHORT $LN42@InitGridFo
  00170	68 00 00 00 00	 push	 OFFSET ??_C@_0BF@EGELCGDD@GetCurrentLanguageID@
  00175	50		 push	 eax
  00176	c7 05 88 00 00
	00 00 00 00 00	 mov	 DWORD PTR ?g_iMetaTable@@3VIMetaTable@@A+136, 0
  00180	ff 15 00 00 00
	00		 call	 DWORD PTR __imp__GetProcAddress@8
  00186	a3 88 00 00 00	 mov	 DWORD PTR ?g_iMetaTable@@3VIMetaTable@@A+136, eax
  0018b	66 89 3d 8c 00
	00 00		 mov	 WORD PTR ?g_iMetaTable@@3VIMetaTable@@A+140, di
  00192	eb 05		 jmp	 SHORT $LN23@InitGridFo
$LN42@InitGridFo:
  00194	a1 88 00 00 00	 mov	 eax, DWORD PTR ?g_iMetaTable@@3VIMetaTable@@A+136
$LN23@InitGridFo:
  00199	85 c0		 test	 eax, eax
  0019b	74 0a		 je	 SHORT $LN41@InitGridFo
  0019d	56		 push	 esi
  0019e	ff d0		 call	 eax
  001a0	83 c4 04	 add	 esp, 4
  001a3	8b d8		 mov	 ebx, eax
  001a5	eb 02		 jmp	 SHORT $LN21@InitGridFo
$LN41@InitGridFo:
  001a7	33 db		 xor	 ebx, ebx
$LN21@InitGridFo:
; File D:\git\src\IBK\IBK_DRFN\ProjSrc\SrcChartEx\ChartAddIn\ChartPatternAddIn\DlgAnalysis.cpp

; 262  : 	for (row = 0; row < nRow; row++)

  001a9	33 ff		 xor	 edi, edi
  001ab	39 bd 04 ff ff
	ff		 cmp	 DWORD PTR _nRow$1$[ebp], edi
  001b1	0f 8e 19 01 00
	00		 jle	 $LN3@InitGridFo
  001b7	8b 85 00 ff ff
	ff		 mov	 eax, DWORD PTR _nCol$1$[ebp]
  001bd	8b 8d 04 ff ff
	ff		 mov	 ecx, DWORD PTR _nRow$1$[ebp]
$LL4@InitGridFo:

; 263  : 	{
; 264  : 		for (col = 0; col < nCol; col++)		// JSJ_Modify

  001c3	33 f6		 xor	 esi, esi
  001c5	85 c0		 test	 eax, eax
  001c7	0f 8e fa 00 00
	00		 jle	 $LN2@InitGridFo
  001cd	0f 1f 00	 npad	 3
$LL7@InitGridFo:
  001d0	8d 8d 6c ff ff
	ff		 lea	 ecx, DWORD PTR _Item$2[ebp+100]
  001d6	ff 15 00 00 00
	00		 call	 DWORD PTR __imp_??0?$CStringT@DV?$StrTraitMFC_DLL@DV?$ChTraitsCRT@D@ATL@@@@@ATL@@QAE@XZ

; 265  : 		{ 
; 266  : 			
; 267  : 			GV_ITEM Item;
; 268  : 			Item.mask = GVIF_TEXT|GVIF_FORMAT|GVIF_FGCLR|GVIF_BKCLR|GVIF_STATE;
; 269  : 			Item.nState = GVIS_READONLY | GVIS_MODIFIED ;//| GVIS_DROPHILITED;
; 270  : 			Item.row = row;
; 271  : 			Item.col = col;
; 272  : 			
; 273  : 			Item.nFormat = DT_VCENTER|DT_SINGLELINE|DT_NOPREFIX;//|DT_END_ELLIPSIS;
; 274  : 			
; 275  : 			// Text
; 276  : 			Item.strText = "";

  001dc	68 00 00 00 00	 push	 OFFSET ??_C@_00CNPNBAHC@@
  001e1	8d 8d 6c ff ff
	ff		 lea	 ecx, DWORD PTR _Item$2[ebp+100]
  001e7	c6 45 fc 01	 mov	 BYTE PTR __$EHRec$[ebp+8], 1
  001eb	c7 85 10 ff ff
	ff 79 00 00 00	 mov	 DWORD PTR _Item$2[ebp+8], 121 ; 00000079H
  001f5	c7 85 14 ff ff
	ff 88 00 00 00	 mov	 DWORD PTR _Item$2[ebp+12], 136 ; 00000088H
  001ff	89 bd 08 ff ff
	ff		 mov	 DWORD PTR _Item$2[ebp], edi
  00205	89 b5 0c ff ff
	ff		 mov	 DWORD PTR _Item$2[ebp+4], esi
  0020b	c7 85 18 ff ff
	ff 24 08 00 00	 mov	 DWORD PTR _Item$2[ebp+16], 2084 ; 00000824H
  00215	ff 15 00 00 00
	00		 call	 DWORD PTR __imp_??4?$CStringT@DV?$StrTraitMFC_DLL@DV?$ChTraitsCRT@D@ATL@@@@@ATL@@QAEAAV01@PBD@Z

; 277  : 
; 278  : 			if( row == ROW_FIRST )

  0021b	85 ff		 test	 edi, edi
  0021d	75 2d		 jne	 SHORT $LN8@InitGridFo

; 279  : 			{
; 280  : // 2008.02.20 by LYH >>
; 281  : 				// Text
; 282  : 				//Item.strText = szTitle[col];
; 283  : 				if(eLanguageID == IMetaTable::ENGLISH)

  0021f	8d 8d 6c ff ff
	ff		 lea	 ecx, DWORD PTR _Item$2[ebp+100]
  00225	85 db		 test	 ebx, ebx
  00227	75 06		 jne	 SHORT $LN10@InitGridFo

; 284  : 					Item.strText = szTitle_E[col];

  00229	ff 74 b5 d0	 push	 DWORD PTR _szTitle_E$[ebp+esi*4]
  0022d	eb 04		 jmp	 SHORT $LN44@InitGridFo
$LN10@InitGridFo:

; 285  : 				else
; 286  : 					Item.strText = szTitle_K[col];

  0022f	ff 74 b5 b0	 push	 DWORD PTR _szTitle_K$[ebp+esi*4]
$LN44@InitGridFo:

; 323  : 				Item.crFgClr = COLOR_BLACK;
; 324  : 			}
; 325  : 
; 326  : 
; 327  : 			// SetItem
; 328  : 			m_pGridWaveRptType1->SetItem(&Item);

  00233	ff 15 00 00 00
	00		 call	 DWORD PTR __imp_??4?$CStringT@DV?$StrTraitMFC_DLL@DV?$ChTraitsCRT@D@ATL@@@@@ATL@@QAEAAV01@PBD@Z
  00239	83 8d 18 ff ff
	ff 01		 or	 DWORD PTR _Item$2[ebp+16], 1
  00240	c7 85 20 ff ff
	ff d3 df f1 00	 mov	 DWORD PTR _Item$2[ebp+24], 15851475 ; 00f1dfd3H
  0024a	eb 34		 jmp	 SHORT $LN45@InitGridFo
$LN8@InitGridFo:

; 287  : // 2008.02.20 by LYH <<
; 288  : 				
; 289  : 				// Format
; 290  : 				Item.nFormat |= DT_CENTER;
; 291  : 
; 292  : 				// Color
; 293  : 				Item.crBkClr = COLOR_GRIDHEADER;
; 294  : 				Item.crFgClr = COLOR_BLACK;
; 295  : 			}
; 296  : 			else if( row == ROW_FIRST + 1 )

  0024c	83 ff 01	 cmp	 edi, 1
  0024f	75 19		 jne	 SHORT $LN12@InitGridFo

; 297  : 			{
; 298  : // 2008.02.20 by LYH >>
; 299  : 				// Text
; 300  : 				//Item.strText = szTitleSub[col];
; 301  : 				if(eLanguageID == IMetaTable::ENGLISH)

  00251	8d 8d 6c ff ff
	ff		 lea	 ecx, DWORD PTR _Item$2[ebp+100]
  00257	85 db		 test	 ebx, ebx
  00259	75 06		 jne	 SHORT $LN14@InitGridFo

; 302  : 					Item.strText = szTitleSub_E[col];

  0025b	ff 74 b5 90	 push	 DWORD PTR _szTitleSub_E$[ebp+esi*4]
  0025f	eb d2		 jmp	 SHORT $LN44@InitGridFo
$LN14@InitGridFo:

; 303  : 				else
; 304  : 					Item.strText = szTitleSub_K[col];

  00261	ff b4 b5 70 ff
	ff ff		 push	 DWORD PTR _szTitleSub_K$[ebp+esi*4]

; 305  : // 2008.02.20 by LYH <<
; 306  : 				
; 307  : 				// Format
; 308  : 				Item.nFormat |= DT_CENTER;
; 309  : 
; 310  : 				// Color
; 311  : 				Item.crBkClr = COLOR_GRIDHEADER;
; 312  : 				Item.crFgClr = COLOR_BLACK;
; 313  : 			}

  00268	eb c9		 jmp	 SHORT $LN44@InitGridFo
$LN12@InitGridFo:

; 314  : 			else
; 315  : 			{
; 316  : 				if ( col == COL_WAV1_NAME)

  0026a	83 fe 03	 cmp	 esi, 3
  0026d	74 07		 je	 SHORT $LN17@InitGridFo

; 317  : 					Item.nFormat |= DT_LEFT;
; 318  : 				else
; 319  : 					Item.nFormat |= DT_CENTER;

  0026f	83 8d 18 ff ff
	ff 01		 or	 DWORD PTR _Item$2[ebp+16], 1
$LN17@InitGridFo:

; 320  : 
; 321  : 				// Color
; 322  : 				Item.crBkClr = COLOR_WHITE;

  00276	c7 85 20 ff ff
	ff ff ff ff 00	 mov	 DWORD PTR _Item$2[ebp+24], 16777215 ; 00ffffffH
$LN45@InitGridFo:

; 323  : 				Item.crFgClr = COLOR_BLACK;
; 324  : 			}
; 325  : 
; 326  : 
; 327  : 			// SetItem
; 328  : 			m_pGridWaveRptType1->SetItem(&Item);

  00280	8d 85 08 ff ff
	ff		 lea	 eax, DWORD PTR _Item$2[ebp]
  00286	c7 85 24 ff ff
	ff 00 00 00 00	 mov	 DWORD PTR _Item$2[ebp+28], 0
  00290	50		 push	 eax
  00291	8b 85 fc fe ff
	ff		 mov	 eax, DWORD PTR _this$GSCopy$1$[ebp]
  00297	8b 88 b0 00 00
	00		 mov	 ecx, DWORD PTR [eax+176]
  0029d	e8 00 00 00 00	 call	 ?SetItem@CGridCtrl@@QAEHPBU_GV_ITEM@@@Z ; CGridCtrl::SetItem
  002a2	8d 8d 6c ff ff
	ff		 lea	 ecx, DWORD PTR _Item$2[ebp+100]

; 329  : 		}

  002a8	c6 45 fc 00	 mov	 BYTE PTR __$EHRec$[ebp+8], 0
  002ac	ff 15 00 00 00
	00		 call	 DWORD PTR __imp_??1?$CStringT@DV?$StrTraitMFC_DLL@DV?$ChTraitsCRT@D@ATL@@@@@ATL@@QAE@XZ
  002b2	8b 85 00 ff ff
	ff		 mov	 eax, DWORD PTR _nCol$1$[ebp]
  002b8	46		 inc	 esi
  002b9	3b f0		 cmp	 esi, eax
  002bb	0f 8c 0f ff ff
	ff		 jl	 $LL7@InitGridFo
  002c1	8b 8d 04 ff ff
	ff		 mov	 ecx, DWORD PTR _nRow$1$[ebp]
$LN2@InitGridFo:

; 262  : 	for (row = 0; row < nRow; row++)

  002c7	47		 inc	 edi
  002c8	3b f9		 cmp	 edi, ecx
  002ca	0f 8c f3 fe ff
	ff		 jl	 $LL4@InitGridFo
$LN3@InitGridFo:

; 330  : 	}
; 331  : }

  002d0	8d 8d f8 fe ff
	ff		 lea	 ecx, DWORD PTR _strTemp$[ebp]
  002d6	ff 15 00 00 00
	00		 call	 DWORD PTR __imp_??1?$CStringT@DV?$StrTraitMFC_DLL@DV?$ChTraitsCRT@D@ATL@@@@@ATL@@QAE@XZ
  002dc	8b 4d f4	 mov	 ecx, DWORD PTR __$EHRec$[ebp]
  002df	64 89 0d 00 00
	00 00		 mov	 DWORD PTR fs:0, ecx
  002e6	59		 pop	 ecx
  002e7	5f		 pop	 edi
  002e8	5e		 pop	 esi
  002e9	5b		 pop	 ebx
  002ea	8b 4d f0	 mov	 ecx, DWORD PTR __$ArrayPad$[ebp]
  002ed	33 cd		 xor	 ecx, ebp
  002ef	e8 00 00 00 00	 call	 @__security_check_cookie@4
  002f4	8b e5		 mov	 esp, ebp
  002f6	5d		 pop	 ebp
  002f7	c3		 ret	 0
_TEXT	ENDS
;	COMDAT text$x
text$x	SEGMENT
__unwindfunclet$?InitGridFormat_WaveRptType1@CDlgAnalysis@@QAEXXZ$0:
  00000	8d 8d f8 fe ff
	ff		 lea	 ecx, DWORD PTR _strTemp$[ebp]
  00006	ff 25 00 00 00
	00		 jmp	 DWORD PTR __imp_??1?$CStringT@DV?$StrTraitMFC_DLL@DV?$ChTraitsCRT@D@ATL@@@@@ATL@@QAE@XZ
__unwindfunclet$?InitGridFormat_WaveRptType1@CDlgAnalysis@@QAEXXZ$1:
  0000c	8d 8d 08 ff ff
	ff		 lea	 ecx, DWORD PTR _Item$2[ebp]
  00012	e9 00 00 00 00	 jmp	 ??1_GV_ITEM@@QAE@XZ
  00017	cc		 int	 3
  00018	cc		 int	 3
  00019	cc		 int	 3
  0001a	cc		 int	 3
  0001b	cc		 int	 3
__ehhandler$?InitGridFormat_WaveRptType1@CDlgAnalysis@@QAEXXZ:
  0001c	90		 npad	 1
  0001d	90		 npad	 1
  0001e	8b 54 24 08	 mov	 edx, DWORD PTR [esp+8]
  00022	8d 42 0c	 lea	 eax, DWORD PTR [edx+12]
  00025	8b 8a f4 fe ff
	ff		 mov	 ecx, DWORD PTR [edx-268]
  0002b	33 c8		 xor	 ecx, eax
  0002d	e8 00 00 00 00	 call	 @__security_check_cookie@4
  00032	8b 4a fc	 mov	 ecx, DWORD PTR [edx-4]
  00035	33 c8		 xor	 ecx, eax
  00037	e8 00 00 00 00	 call	 @__security_check_cookie@4
  0003c	b8 00 00 00 00	 mov	 eax, OFFSET __ehfuncinfo$?InitGridFormat_WaveRptType1@CDlgAnalysis@@QAEXXZ
  00041	e9 00 00 00 00	 jmp	 ___CxxFrameHandler3
text$x	ENDS
?InitGridFormat_WaveRptType1@CDlgAnalysis@@QAEXXZ ENDP	; CDlgAnalysis::InitGridFormat_WaveRptType1
; Function compile flags: /Ogtp
; File D:\git\src\IBK\IBK_DRFN\ProjSrc\SrcChartEx\ChartAddIn\ChartPatternAddIn\DlgAnalysis.cpp
;	COMDAT ?ResizeGridRowCol_WaveRptType1@CDlgAnalysis@@QAEXXZ
_TEXT	SEGMENT
_nCol$1$ = -40						; size = 4
_nColWidth$ = -36					; size = 32
__$ArrayPad$ = -4					; size = 4
?ResizeGridRowCol_WaveRptType1@CDlgAnalysis@@QAEXXZ PROC ; CDlgAnalysis::ResizeGridRowCol_WaveRptType1, COMDAT
; _this$ = ecx

; 218  : {

  00000	55		 push	 ebp
  00001	8b ec		 mov	 ebp, esp
  00003	83 ec 28	 sub	 esp, 40			; 00000028H
  00006	a1 00 00 00 00	 mov	 eax, DWORD PTR ___security_cookie
  0000b	33 c5		 xor	 eax, ebp
  0000d	89 45 fc	 mov	 DWORD PTR __$ArrayPad$[ebp], eax
  00010	53		 push	 ebx
  00011	56		 push	 esi
  00012	57		 push	 edi
  00013	8b f9		 mov	 edi, ecx
  00015	33 f6		 xor	 esi, esi

; 219  : 	int nCol = m_pGridWaveRptType1->GetColumnCount();

  00017	8b 87 b0 00 00
	00		 mov	 eax, DWORD PTR [edi+176]

; 220  : 	int nRow = m_pGridWaveRptType1->GetRowCount();

  0001d	8b 98 30 01 00
	00		 mov	 ebx, DWORD PTR [eax+304]
  00023	8b 88 38 01 00
	00		 mov	 ecx, DWORD PTR [eax+312]
  00029	89 4d d8	 mov	 DWORD PTR _nCol$1$[ebp], ecx

; 221  : 
; 222  : 	// fill rows/cols with text
; 223  : 	for (int row = 0; row < nRow; row++)

  0002c	85 db		 test	 ebx, ebx
  0002e	7e 13		 jle	 SHORT $LN3@ResizeGrid
$LL4@ResizeGrid:

; 224  : 	{
; 225  : 		// Set Row Height
; 226  : 		m_pGridWaveRptType1->SetRowHeight(row, ROW_HEIGHT);

  00030	8b 8f b0 00 00
	00		 mov	 ecx, DWORD PTR [edi+176]
  00036	6a 10		 push	 16			; 00000010H
  00038	56		 push	 esi
  00039	e8 00 00 00 00	 call	 ?SetRowHeight@CGridCtrl@@QAEHHH@Z ; CGridCtrl::SetRowHeight
  0003e	46		 inc	 esi
  0003f	3b f3		 cmp	 esi, ebx
  00041	7c ed		 jl	 SHORT $LL4@ResizeGrid
$LN3@ResizeGrid:

; 227  : 
; 228  : 	}
; 229  : 
; 230  : 	
; 231  : 	int nColWidth[] = { COL_WIDTH_WAV1_NUM,				COL_WIDTH_WAV1_TIME,			COL_WIDTH_WAV1_TYPE,			COL_WIDTH_WAV1_NAME,	

  00043	0f 28 05 00 00
	00 00		 movaps	 xmm0, XMMWORD PTR __xmm@00000064000000460000005700000016

; 232  : 						COL_WIDTH_WAV1_CANDLECNT,		COL_WIDTH_WAV1_EXPUPDOWN_PER,	COL_WIDTH_WAV1_ACTUPDOWN_PER,	COL_WIDTH_WAV1_ACHIEVE_PER
; 233  : 					};
; 234  : 
; 235  : 	for (int col = 0; col < nCol; col++)

  0004a	33 f6		 xor	 esi, esi
  0004c	8b 5d d8	 mov	 ebx, DWORD PTR _nCol$1$[ebp]
  0004f	0f 11 45 dc	 movups	 XMMWORD PTR _nColWidth$[ebp], xmm0
  00053	0f 28 05 00 00
	00 00		 movaps	 xmm0, XMMWORD PTR __xmm@0000003c0000003c0000003c0000003c
  0005a	0f 11 45 ec	 movups	 XMMWORD PTR _nColWidth$[ebp+16], xmm0
  0005e	85 db		 test	 ebx, ebx
  00060	7e 15		 jle	 SHORT $LN6@ResizeGrid
$LL7@ResizeGrid:

; 236  : 	{
; 237  : 		// Set Column Width
; 238  : 		m_pGridWaveRptType1->SetColumnWidth(col, nColWidth[col]);

  00062	ff 74 b5 dc	 push	 DWORD PTR _nColWidth$[ebp+esi*4]
  00066	8b 8f b0 00 00
	00		 mov	 ecx, DWORD PTR [edi+176]
  0006c	56		 push	 esi
  0006d	e8 00 00 00 00	 call	 ?SetColumnWidth@CGridCtrl@@QAEHHH@Z ; CGridCtrl::SetColumnWidth
  00072	46		 inc	 esi
  00073	3b f3		 cmp	 esi, ebx
  00075	7c eb		 jl	 SHORT $LL7@ResizeGrid
$LN6@ResizeGrid:

; 239  : 	}
; 240  : 
; 241  : }

  00077	8b 4d fc	 mov	 ecx, DWORD PTR __$ArrayPad$[ebp]
  0007a	5f		 pop	 edi
  0007b	5e		 pop	 esi
  0007c	33 cd		 xor	 ecx, ebp
  0007e	5b		 pop	 ebx
  0007f	e8 00 00 00 00	 call	 @__security_check_cookie@4
  00084	8b e5		 mov	 esp, ebp
  00086	5d		 pop	 ebp
  00087	c3		 ret	 0
?ResizeGridRowCol_WaveRptType1@CDlgAnalysis@@QAEXXZ ENDP ; CDlgAnalysis::ResizeGridRowCol_WaveRptType1
_TEXT	ENDS
; Function compile flags: /Ogtp
; File D:\git\src\IBK\IBK_DRFN\ProjSrc\SrcChartEx\ChartAddIn\ChartPatternAddIn\DlgAnalysis.cpp
;	COMDAT ?InitGridRowCol_WaveRptType1@CDlgAnalysis@@QAEXXZ
_TEXT	SEGMENT
_e$2 = -20						; size = 4
__$EHRec$ = -16						; size = 16
?InitGridRowCol_WaveRptType1@CDlgAnalysis@@QAEXXZ PROC	; CDlgAnalysis::InitGridRowCol_WaveRptType1, COMDAT
; _this$ = ecx

; 199  : {	

  00000	55		 push	 ebp
  00001	8b ec		 mov	 ebp, esp
  00003	6a ff		 push	 -1
  00005	68 00 00 00 00	 push	 __ehhandler$?InitGridRowCol_WaveRptType1@CDlgAnalysis@@QAEXXZ
  0000a	64 a1 00 00 00
	00		 mov	 eax, DWORD PTR fs:0
  00010	50		 push	 eax
  00011	83 ec 08	 sub	 esp, 8
  00014	53		 push	 ebx
  00015	56		 push	 esi
  00016	57		 push	 edi
  00017	a1 00 00 00 00	 mov	 eax, DWORD PTR ___security_cookie
  0001c	33 c5		 xor	 eax, ebp
  0001e	50		 push	 eax
  0001f	8d 45 f4	 lea	 eax, DWORD PTR __$EHRec$[ebp+4]
  00022	64 a3 00 00 00
	00		 mov	 DWORD PTR fs:0, eax
  00028	89 65 f0	 mov	 DWORD PTR __$EHRec$[ebp], esp
  0002b	8b f1		 mov	 esi, ecx

; 200  : 	try {
; 201  : 		m_pGridWaveRptType1->SetRowCount(DEFAULT_ROW_CNT_WAV1);

  0002d	8b 8e b0 00 00
	00		 mov	 ecx, DWORD PTR [esi+176]
  00033	6a 02		 push	 2
  00035	c7 45 fc 00 00
	00 00		 mov	 DWORD PTR __$EHRec$[ebp+12], 0
  0003c	e8 00 00 00 00	 call	 ?SetRowCount@CGridCtrl@@QAEHH@Z ; CGridCtrl::SetRowCount

; 202  : 		m_pGridWaveRptType1->SetColumnCount(DEFAULT_COL_CNT_WAV1);

  00041	8b 8e b0 00 00
	00		 mov	 ecx, DWORD PTR [esi+176]
  00047	6a 08		 push	 8
  00049	e8 00 00 00 00	 call	 ?SetColumnCount@CGridCtrl@@QAEHH@Z ; CGridCtrl::SetColumnCount

; 203  : 		m_pGridWaveRptType1->SetFixedRowCount(2);

  0004e	8b 8e b0 00 00
	00		 mov	 ecx, DWORD PTR [esi+176]
  00054	6a 02		 push	 2
  00056	e8 00 00 00 00	 call	 ?SetFixedRowCount@CGridCtrl@@QAEHH@Z ; CGridCtrl::SetFixedRowCount

; 204  : 		m_pGridWaveRptType1->SetFixedColumnCount(0);

  0005b	8b 8e b0 00 00
	00		 mov	 ecx, DWORD PTR [esi+176]
  00061	6a 00		 push	 0
  00063	e8 00 00 00 00	 call	 ?SetFixedColumnCount@CGridCtrl@@QAEHH@Z ; CGridCtrl::SetFixedColumnCount

; 205  : 
; 206  : 		m_pGridWaveRptType1->SetBkColor(COLOR_WHITE);

  00068	8b 86 b0 00 00
	00		 mov	 eax, DWORD PTR [esi+176]
  0006e	c7 80 a0 00 00
	00 ff ff ff 00	 mov	 DWORD PTR [eax+160], 16777215 ; 00ffffffH
$LN7@InitGridRo:

; 213  : 	}
; 214  : }

  00078	8b 4d f4	 mov	 ecx, DWORD PTR __$EHRec$[ebp+4]
  0007b	64 89 0d 00 00
	00 00		 mov	 DWORD PTR fs:0, ecx
  00082	59		 pop	 ecx
  00083	5f		 pop	 edi
  00084	5e		 pop	 esi
  00085	5b		 pop	 ebx
  00086	8b e5		 mov	 esp, ebp
  00088	5d		 pop	 ebp
  00089	c3		 ret	 0
__catch$?InitGridRowCol_WaveRptType1@CDlgAnalysis@@QAEXXZ$0:

; 207  : 	}
; 208  : 	catch (CMemoryException* e)
; 209  : 	{
; 210  : 		e->ReportError();

  0008a	8b 75 ec	 mov	 esi, DWORD PTR _e$2[ebp]
  0008d	8b ce		 mov	 ecx, esi
  0008f	6a 00		 push	 0
  00091	6a 00		 push	 0
  00093	8b 06		 mov	 eax, DWORD PTR [esi]
  00095	ff 50 1c	 call	 DWORD PTR [eax+28]

; 211  : 		e->Delete();

  00098	8b ce		 mov	 ecx, esi
  0009a	e8 00 00 00 00	 call	 ?Delete@CException@@QAEXXZ ; CException::Delete

; 212  : 		return;

  0009f	b8 00 00 00 00	 mov	 eax, $LN7@InitGridRo
  000a4	c3		 ret	 0
  000a5	cc		 int	 3
  000a6	cc		 int	 3
  000a7	cc		 int	 3
  000a8	cc		 int	 3
  000a9	cc		 int	 3
_TEXT	ENDS
;	COMDAT text$x
text$x	SEGMENT
__ehhandler$?InitGridRowCol_WaveRptType1@CDlgAnalysis@@QAEXXZ:
  00000	90		 npad	 1
  00001	90		 npad	 1
  00002	8b 54 24 08	 mov	 edx, DWORD PTR [esp+8]
  00006	8d 42 0c	 lea	 eax, DWORD PTR [edx+12]
  00009	8b 4a e8	 mov	 ecx, DWORD PTR [edx-24]
  0000c	33 c8		 xor	 ecx, eax
  0000e	e8 00 00 00 00	 call	 @__security_check_cookie@4
  00013	b8 00 00 00 00	 mov	 eax, OFFSET __ehfuncinfo$?InitGridRowCol_WaveRptType1@CDlgAnalysis@@QAEXXZ
  00018	e9 00 00 00 00	 jmp	 ___CxxFrameHandler3
text$x	ENDS
?InitGridRowCol_WaveRptType1@CDlgAnalysis@@QAEXXZ ENDP	; CDlgAnalysis::InitGridRowCol_WaveRptType1
; Function compile flags: /Ogtp
; File D:\git\src\IBK\IBK_DRFN\ProjSrc\SrcChartEx\ChartAddIn\ChartPatternAddIn\DlgAnalysis.cpp
; File C:\Program Files (x86)\Microsoft Visual Studio\2019\Community\VC\Tools\MSVC\14.29.30133\atlmfc\include\afx.inl
; File D:\git\src\IBK\IBK_DRFN\ProjSrc\SrcChartEx\ChartAddIn\ChartPatternAddIn\DlgAnalysis.cpp
; File C:\Program Files (x86)\Microsoft Visual Studio\2019\Community\VC\Tools\MSVC\14.29.30133\atlmfc\include\afxwin2.inl
; File D:\git\src\IBK\IBK_DRFN\ProjSrc\SrcChartEx\ChartAddIn\ChartPatternAddIn\DlgAnalysis.cpp
; File C:\Program Files (x86)\Microsoft Visual Studio\2019\Community\VC\Tools\MSVC\14.29.30133\atlmfc\include\afxwin1.inl
; File C:\Program Files (x86)\Microsoft Visual Studio\2019\Community\VC\Tools\MSVC\14.29.30133\atlmfc\include\afxwin2.inl
; File D:\git\src\IBK\IBK_DRFN\ProjSrc\SrcChartEx\ChartAddIn\ChartPatternAddIn\DlgAnalysis.cpp
; File C:\Program Files (x86)\Microsoft Visual Studio\2019\Community\VC\Tools\MSVC\14.29.30133\atlmfc\include\afxwin2.inl
; File D:\git\src\IBK\IBK_DRFN\ProjSrc\SrcChartEx\ChartAddIn\ChartPatternAddIn\DlgAnalysis.cpp
;	COMDAT ?InitGrid_WaveRptType1@CDlgAnalysis@@QAEXXZ
_TEXT	SEGMENT
_nCol$1$ = -52						; size = 4
$T2 = -52						; size = 4
_nColWidth$3 = -48					; size = 32
__$ArrayPad$ = -16					; size = 4
__$EHRec$ = -12						; size = 12
?InitGrid_WaveRptType1@CDlgAnalysis@@QAEXXZ PROC	; CDlgAnalysis::InitGrid_WaveRptType1, COMDAT
; _this$ = ecx

; 160  : {

  00000	55		 push	 ebp
  00001	8b ec		 mov	 ebp, esp
  00003	6a ff		 push	 -1
  00005	68 00 00 00 00	 push	 __ehhandler$?InitGrid_WaveRptType1@CDlgAnalysis@@QAEXXZ
  0000a	64 a1 00 00 00
	00		 mov	 eax, DWORD PTR fs:0
  00010	50		 push	 eax
  00011	83 ec 2c	 sub	 esp, 44			; 0000002cH
  00014	a1 00 00 00 00	 mov	 eax, DWORD PTR ___security_cookie
  00019	33 c5		 xor	 eax, ebp
  0001b	89 45 f0	 mov	 DWORD PTR __$ArrayPad$[ebp], eax
  0001e	53		 push	 ebx
  0001f	56		 push	 esi
  00020	57		 push	 edi
  00021	50		 push	 eax
  00022	8d 45 f4	 lea	 eax, DWORD PTR __$EHRec$[ebp]
  00025	64 a3 00 00 00
	00		 mov	 DWORD PTR fs:0, eax
  0002b	8b f9		 mov	 edi, ecx

; 161  : 	if (m_pGridWaveRptType1 == NULL)

  0002d	83 bf b0 00 00
	00 00		 cmp	 DWORD PTR [edi+176], 0
  00034	0f 85 94 01 00
	00		 jne	 $LN2@InitGrid_W
; File C:\Program Files (x86)\Microsoft Visual Studio\2019\Community\VC\Tools\MSVC\14.29.30133\atlmfc\include\afx.inl

; 116  : 	{ return ::operator new(nSize); }

  0003a	68 00 04 00 00	 push	 1024			; 00000400H
  0003f	e8 00 00 00 00	 call	 ??2@YAPAXI@Z		; operator new
  00044	83 c4 04	 add	 esp, 4
; File D:\git\src\IBK\IBK_DRFN\ProjSrc\SrcChartEx\ChartAddIn\ChartPatternAddIn\DlgAnalysis.cpp

; 164  : 		m_pGridWaveRptType1 = new CGridCtrl;

  00047	89 45 cc	 mov	 DWORD PTR $T2[ebp], eax
  0004a	c7 45 fc 00 00
	00 00		 mov	 DWORD PTR __$EHRec$[ebp+8], 0
  00051	85 c0		 test	 eax, eax
  00053	74 11		 je	 SHORT $LN5@InitGrid_W
  00055	6a 00		 push	 0
  00057	6a 00		 push	 0
  00059	6a 00		 push	 0
  0005b	6a 00		 push	 0
  0005d	8b c8		 mov	 ecx, eax
  0005f	e8 00 00 00 00	 call	 ??0CGridCtrl@@QAE@HHHH@Z ; CGridCtrl::CGridCtrl
  00064	eb 02		 jmp	 SHORT $LN6@InitGrid_W
$LN5@InitGrid_W:
  00066	33 c0		 xor	 eax, eax
$LN6@InitGrid_W:
  00068	c7 45 fc ff ff
	ff ff		 mov	 DWORD PTR __$EHRec$[ebp+8], -1
  0006f	89 87 b0 00 00
	00		 mov	 DWORD PTR [edi+176], eax

; 165  : 		if (!m_pGridWaveRptType1) return;

  00075	85 c0		 test	 eax, eax
  00077	0f 84 51 01 00
	00		 je	 $LN2@InitGrid_W

; 166  : 
; 167  : 		// Create the Gridctrl window
; 168  : 		m_staticGridBase.GetWindowRect(m_rectGrid);		

  0007d	8d b7 f8 00 00
	00		 lea	 esi, DWORD PTR [edi+248]
; File C:\Program Files (x86)\Microsoft Visual Studio\2019\Community\VC\Tools\MSVC\14.29.30133\atlmfc\include\afxwin2.inl

; 84   : 	{ ASSERT(::IsWindow(m_hWnd)); ::GetWindowRect(m_hWnd, lpRect); }

  00083	56		 push	 esi
  00084	ff b7 30 01 00
	00		 push	 DWORD PTR [edi+304]
  0008a	ff 15 00 00 00
	00		 call	 DWORD PTR __imp__GetWindowRect@8
; File D:\git\src\IBK\IBK_DRFN\ProjSrc\SrcChartEx\ChartAddIn\ChartPatternAddIn\DlgAnalysis.cpp

; 169  : 		ScreenToClient(&m_rectGrid);

  00090	56		 push	 esi
  00091	8b cf		 mov	 ecx, edi
  00093	e8 00 00 00 00	 call	 ?ScreenToClient@CWnd@@QBEXPAUtagRECT@@@Z ; CWnd::ScreenToClient

; 170  : 		m_pGridWaveRptType1->Create(m_rectGrid, this, 100);

  00098	8b 8f b0 00 00
	00		 mov	 ecx, DWORD PTR [edi+176]
  0009e	68 00 00 01 50	 push	 1342242816		; 50010000H
  000a3	6a 64		 push	 100			; 00000064H
  000a5	57		 push	 edi
  000a6	56		 push	 esi
  000a7	e8 00 00 00 00	 call	 ?Create@CGridCtrl@@QAEHABUtagRECT@@PAVCWnd@@IK@Z ; CGridCtrl::Create

; 171  : 		
; 172  : 		// fill it up with stuff
; 173  : 		m_pGridWaveRptType1->SetEditable(TRUE);

  000ac	8b 87 b0 00 00
	00		 mov	 eax, DWORD PTR [edi+176]
  000b2	c7 80 d0 00 00
	00 01 00 00 00	 mov	 DWORD PTR [eax+208], 1

; 174  : 		m_pGridWaveRptType1->EnableDragAndDrop(FALSE);

  000bc	8b 87 b0 00 00
	00		 mov	 eax, DWORD PTR [edi+176]
  000c2	c7 80 d8 00 00
	00 00 00 00 00	 mov	 DWORD PTR [eax+216], 0

; 175  : 		m_pGridWaveRptType1->SetFont(&m_Font, FALSE);

  000cc	8d 87 b4 00 00
	00		 lea	 eax, DWORD PTR [edi+180]
  000d2	8b 8f b0 00 00
	00		 mov	 ecx, DWORD PTR [edi+176]
; File C:\Program Files (x86)\Microsoft Visual Studio\2019\Community\VC\Tools\MSVC\14.29.30133\atlmfc\include\afxwin1.inl

; 68   : 	{ return this == NULL ? NULL : m_hObject; }

  000d8	85 c0		 test	 eax, eax
  000da	74 03		 je	 SHORT $LN17@InitGrid_W
$LN16@InitGrid_W:
  000dc	8b 40 04	 mov	 eax, DWORD PTR [eax+4]
$LN17@InitGrid_W:
; File C:\Program Files (x86)\Microsoft Visual Studio\2019\Community\VC\Tools\MSVC\14.29.30133\atlmfc\include\afxwin2.inl

; 43   : 	{ ASSERT(::IsWindow(m_hWnd)); ::SendMessage(m_hWnd, WM_SETFONT, (WPARAM)pFont->GetSafeHandle(), bRedraw); }

  000df	6a 00		 push	 0
  000e1	50		 push	 eax
  000e2	6a 30		 push	 48			; 00000030H
  000e4	ff 71 20	 push	 DWORD PTR [ecx+32]
  000e7	ff 15 00 00 00
	00		 call	 DWORD PTR __imp__SendMessageA@16
; File D:\git\src\IBK\IBK_DRFN\ProjSrc\SrcChartEx\ChartAddIn\ChartPatternAddIn\DlgAnalysis.cpp

; 176  : 		m_pGridWaveRptType1->SetGridColor(COLOR_WHITE);

  000ed	8b 87 b0 00 00
	00		 mov	 eax, DWORD PTR [edi+176]

; 177  : 		m_pGridWaveRptType1->SetGridLineColor(COLOR_GRIDLINE);
; 178  : 		m_pGridWaveRptType1->SetListMode(TRUE);

  000f3	6a 01		 push	 1
  000f5	c7 80 a4 00 00
	00 ff ff ff 00	 mov	 DWORD PTR [eax+164], 16777215 ; 00ffffffH
  000ff	8b 87 b0 00 00
	00		 mov	 eax, DWORD PTR [edi+176]
  00105	c7 80 a4 00 00
	00 99 ac bf 00	 mov	 DWORD PTR [eax+164], 12561561 ; 00bfac99H
  0010f	8b 8f b0 00 00
	00		 mov	 ecx, DWORD PTR [edi+176]
  00115	e8 00 00 00 00	 call	 ?SetListMode@CGridCtrl@@QAEXH@Z ; CGridCtrl::SetListMode

; 179  : 		m_pGridWaveRptType1->EnableColumnHide();

  0011a	8b 87 b0 00 00
	00		 mov	 eax, DWORD PTR [edi+176]

; 180  : 		m_pGridWaveRptType1->EnableRowHide();
; 181  : 		m_pGridWaveRptType1->SetPatternReportType( WAVE_REPORTTYPE1);	// Report Grid Type

  00120	68 e9 03 00 00	 push	 1001			; 000003e9H
  00125	c7 80 18 01 00
	00 01 00 00 00	 mov	 DWORD PTR [eax+280], 1
  0012f	8b 87 b0 00 00
	00		 mov	 eax, DWORD PTR [edi+176]
  00135	c7 80 1c 01 00
	00 01 00 00 00	 mov	 DWORD PTR [eax+284], 1
  0013f	8b 8f b0 00 00
	00		 mov	 ecx, DWORD PTR [edi+176]
  00145	e8 00 00 00 00	 call	 ?SetPatternReportType@CGridCtrl@@QAEXH@Z ; CGridCtrl::SetPatternReportType

; 182  : 
; 183  : 
; 184  : 		m_pGridWaveRptType1->ShowWindow( SW_SHOW);

  0014a	8b 8f b0 00 00
	00		 mov	 ecx, DWORD PTR [edi+176]
  00150	6a 05		 push	 5
  00152	e8 00 00 00 00	 call	 ?ShowWindow@CWnd@@QAEHH@Z ; CWnd::ShowWindow

; 185  : 
; 186  : 		
; 187  : 		//   Default 
; 188  : 		InitGridRowCol_WaveRptType1();

  00157	8b cf		 mov	 ecx, edi
  00159	e8 00 00 00 00	 call	 ?InitGridRowCol_WaveRptType1@CDlgAnalysis@@QAEXXZ ; CDlgAnalysis::InitGridRowCol_WaveRptType1

; 219  : 	int nCol = m_pGridWaveRptType1->GetColumnCount();

  0015e	8b 87 b0 00 00
	00		 mov	 eax, DWORD PTR [edi+176]
; File C:\Program Files (x86)\Microsoft Visual Studio\2019\Community\VC\Tools\MSVC\14.29.30133\atlmfc\include\afxwin2.inl

; 43   : 	{ ASSERT(::IsWindow(m_hWnd)); ::SendMessage(m_hWnd, WM_SETFONT, (WPARAM)pFont->GetSafeHandle(), bRedraw); }

  00164	33 f6		 xor	 esi, esi
; File D:\git\src\IBK\IBK_DRFN\ProjSrc\SrcChartEx\ChartAddIn\ChartPatternAddIn\DlgAnalysis.cpp

; 219  : 	int nCol = m_pGridWaveRptType1->GetColumnCount();

  00166	8b 98 38 01 00
	00		 mov	 ebx, DWORD PTR [eax+312]

; 220  : 	int nRow = m_pGridWaveRptType1->GetRowCount();

  0016c	8b 80 30 01 00
	00		 mov	 eax, DWORD PTR [eax+304]
  00172	89 5d cc	 mov	 DWORD PTR _nCol$1$[ebp], ebx

; 221  : 
; 222  : 	// fill rows/cols with text
; 223  : 	for (int row = 0; row < nRow; row++)

  00175	85 c0		 test	 eax, eax
  00177	7e 1d		 jle	 SHORT $LN20@InitGrid_W
  00179	8b d8		 mov	 ebx, eax
  0017b	0f 1f 44 00 00	 npad	 5
$LL21@InitGrid_W:

; 224  : 	{
; 225  : 		// Set Row Height
; 226  : 		m_pGridWaveRptType1->SetRowHeight(row, ROW_HEIGHT);

  00180	8b 8f b0 00 00
	00		 mov	 ecx, DWORD PTR [edi+176]
  00186	6a 10		 push	 16			; 00000010H
  00188	56		 push	 esi
  00189	e8 00 00 00 00	 call	 ?SetRowHeight@CGridCtrl@@QAEHHH@Z ; CGridCtrl::SetRowHeight
  0018e	46		 inc	 esi
  0018f	3b f3		 cmp	 esi, ebx
  00191	7c ed		 jl	 SHORT $LL21@InitGrid_W
  00193	8b 5d cc	 mov	 ebx, DWORD PTR _nCol$1$[ebp]
$LN20@InitGrid_W:

; 227  : 
; 228  : 	}
; 229  : 
; 230  : 	
; 231  : 	int nColWidth[] = { COL_WIDTH_WAV1_NUM,				COL_WIDTH_WAV1_TIME,			COL_WIDTH_WAV1_TYPE,			COL_WIDTH_WAV1_NAME,	

  00196	0f 28 05 00 00
	00 00		 movaps	 xmm0, XMMWORD PTR __xmm@00000064000000460000005700000016

; 232  : 						COL_WIDTH_WAV1_CANDLECNT,		COL_WIDTH_WAV1_EXPUPDOWN_PER,	COL_WIDTH_WAV1_ACTUPDOWN_PER,	COL_WIDTH_WAV1_ACHIEVE_PER
; 233  : 					};
; 234  : 
; 235  : 	for (int col = 0; col < nCol; col++)

  0019d	33 f6		 xor	 esi, esi
  0019f	0f 11 45 d0	 movups	 XMMWORD PTR _nColWidth$3[ebp], xmm0
  001a3	0f 28 05 00 00
	00 00		 movaps	 xmm0, XMMWORD PTR __xmm@0000003c0000003c0000003c0000003c
  001aa	0f 11 45 e0	 movups	 XMMWORD PTR _nColWidth$3[ebp+16], xmm0
  001ae	85 db		 test	 ebx, ebx
  001b0	7e 15		 jle	 SHORT $LN23@InitGrid_W
$LL24@InitGrid_W:

; 236  : 	{
; 237  : 		// Set Column Width
; 238  : 		m_pGridWaveRptType1->SetColumnWidth(col, nColWidth[col]);

  001b2	ff 74 b5 d0	 push	 DWORD PTR _nColWidth$3[ebp+esi*4]
  001b6	8b 8f b0 00 00
	00		 mov	 ecx, DWORD PTR [edi+176]
  001bc	56		 push	 esi
  001bd	e8 00 00 00 00	 call	 ?SetColumnWidth@CGridCtrl@@QAEHHH@Z ; CGridCtrl::SetColumnWidth
  001c2	46		 inc	 esi
  001c3	3b f3		 cmp	 esi, ebx
  001c5	7c eb		 jl	 SHORT $LL24@InitGrid_W
$LN23@InitGrid_W:

; 189  : 	
; 190  : 		//   
; 191  : 		ResizeGridRowCol_WaveRptType1();
; 192  : 
; 193  : 		//   
; 194  : 		InitGridFormat_WaveRptType1();

  001c7	8b cf		 mov	 ecx, edi
  001c9	e8 00 00 00 00	 call	 ?InitGridFormat_WaveRptType1@CDlgAnalysis@@QAEXXZ ; CDlgAnalysis::InitGridFormat_WaveRptType1
$LN2@InitGrid_W:

; 195  : 	}
; 196  : }

  001ce	8b 4d f4	 mov	 ecx, DWORD PTR __$EHRec$[ebp]
  001d1	64 89 0d 00 00
	00 00		 mov	 DWORD PTR fs:0, ecx
  001d8	59		 pop	 ecx
  001d9	5f		 pop	 edi
  001da	5e		 pop	 esi
  001db	5b		 pop	 ebx
  001dc	8b 4d f0	 mov	 ecx, DWORD PTR __$ArrayPad$[ebp]
  001df	33 cd		 xor	 ecx, ebp
  001e1	e8 00 00 00 00	 call	 @__security_check_cookie@4
  001e6	8b e5		 mov	 esp, ebp
  001e8	5d		 pop	 ebp
  001e9	c3		 ret	 0
_TEXT	ENDS
;	COMDAT text$x
text$x	SEGMENT
__unwindfunclet$?InitGrid_WaveRptType1@CDlgAnalysis@@QAEXXZ$0:
  00000	8b 45 cc	 mov	 eax, DWORD PTR $T2[ebp]
  00003	50		 push	 eax
  00004	e8 00 00 00 00	 call	 ??3CObject@@SGXPAX@Z	; CObject::operator delete
  00009	c3		 ret	 0
  0000a	cc		 int	 3
  0000b	cc		 int	 3
  0000c	cc		 int	 3
  0000d	cc		 int	 3
  0000e	cc		 int	 3
__ehhandler$?InitGrid_WaveRptType1@CDlgAnalysis@@QAEXXZ:
  0000f	90		 npad	 1
  00010	90		 npad	 1
  00011	8b 54 24 08	 mov	 edx, DWORD PTR [esp+8]
  00015	8d 42 0c	 lea	 eax, DWORD PTR [edx+12]
  00018	8b 4a c4	 mov	 ecx, DWORD PTR [edx-60]
  0001b	33 c8		 xor	 ecx, eax
  0001d	e8 00 00 00 00	 call	 @__security_check_cookie@4
  00022	8b 4a fc	 mov	 ecx, DWORD PTR [edx-4]
  00025	33 c8		 xor	 ecx, eax
  00027	e8 00 00 00 00	 call	 @__security_check_cookie@4
  0002c	b8 00 00 00 00	 mov	 eax, OFFSET __ehfuncinfo$?InitGrid_WaveRptType1@CDlgAnalysis@@QAEXXZ
  00031	e9 00 00 00 00	 jmp	 ___CxxFrameHandler3
text$x	ENDS
?InitGrid_WaveRptType1@CDlgAnalysis@@QAEXXZ ENDP	; CDlgAnalysis::InitGrid_WaveRptType1
; Function compile flags: /Ogtp
; File D:\git\src\IBK\IBK_DRFN\ProjSrc\SrcChartEx\ChartAddIn\ChartPatternAddIn\DlgAnalysis.cpp
; File C:\Program Files (x86)\Microsoft Visual Studio\2019\Community\VC\Tools\MSVC\14.29.30133\atlmfc\include\atlsimpstr.h
; File D:\git\src\IBK\IBK_DRFN\ProjSrc\SrcChartEx\ChartAddIn\ChartPatternAddIn\DlgAnalysis.cpp
; File C:\Program Files (x86)\Microsoft Visual Studio\2019\Community\VC\Tools\MSVC\14.29.30133\atlmfc\include\afxwin1.inl
; File D:\git\src\IBK\IBK_DRFN\ProjSrc\SrcChartEx\ChartAddIn\ChartPatternAddIn\DlgAnalysis.cpp
; File C:\Program Files (x86)\Microsoft Visual Studio\2019\Community\VC\Tools\MSVC\14.29.30133\atlmfc\include\afxwin1.inl
; File D:\git\src\IBK\IBK_DRFN\ProjSrc\SrcChartEx\ChartAddIn\ChartPatternAddIn\DlgAnalysis.cpp
;	COMDAT ?InitFont@CDlgAnalysis@@IAEXXZ
_TEXT	SEGMENT
_dc$ = -36						; size = 20
_strFont$ = -16						; size = 4
__$EHRec$ = -12						; size = 12
?InitFont@CDlgAnalysis@@IAEXXZ PROC			; CDlgAnalysis::InitFont, COMDAT
; _this$ = ecx

; 126  : {

  00000	55		 push	 ebp
  00001	8b ec		 mov	 ebp, esp
  00003	6a ff		 push	 -1
  00005	68 00 00 00 00	 push	 __ehhandler$?InitFont@CDlgAnalysis@@IAEXXZ
  0000a	64 a1 00 00 00
	00		 mov	 eax, DWORD PTR fs:0
  00010	50		 push	 eax
  00011	83 ec 18	 sub	 esp, 24			; 00000018H
  00014	56		 push	 esi
  00015	57		 push	 edi
  00016	a1 00 00 00 00	 mov	 eax, DWORD PTR ___security_cookie
  0001b	33 c5		 xor	 eax, ebp
  0001d	50		 push	 eax
  0001e	8d 45 f4	 lea	 eax, DWORD PTR __$EHRec$[ebp]
  00021	64 a3 00 00 00
	00		 mov	 DWORD PTR fs:0, eax
  00027	8b f1		 mov	 esi, ecx

; 127  : 	CClientDC dc(this);

  00029	56		 push	 esi
  0002a	8d 4d dc	 lea	 ecx, DWORD PTR _dc$[ebp]
  0002d	e8 00 00 00 00	 call	 ??0CClientDC@@QAE@PAVCWnd@@@Z ; CClientDC::CClientDC

; 128  : 	int PointSize					= 9;
; 129  : 	m_logFont.lfHeight				= -MulDiv(PointSize, GetDeviceCaps(dc.GetSafeHdc(), LOGPIXELSY), 72);

  00032	6a 48		 push	 72			; 00000048H
  00034	6a 5a		 push	 90			; 0000005aH
  00036	ff 75 e0	 push	 DWORD PTR _dc$[ebp+4]
  00039	c7 45 fc 00 00
	00 00		 mov	 DWORD PTR __$EHRec$[ebp+8], 0
  00040	8d be bc 00 00
	00		 lea	 edi, DWORD PTR [esi+188]
  00046	ff 15 00 00 00
	00		 call	 DWORD PTR __imp__GetDeviceCaps@8
  0004c	50		 push	 eax
  0004d	6a 09		 push	 9
  0004f	ff 15 00 00 00
	00		 call	 DWORD PTR __imp__MulDiv@12
  00055	f7 d8		 neg	 eax

; 130  : 	m_logFont.lfWidth				= 0;

  00057	c7 86 c0 00 00
	00 00 00 00 00	 mov	 DWORD PTR [esi+192], 0

; 131  : 	m_logFont.lfEscapement			= 0;
; 132  : 	m_logFont.lfOrientation			= 0;
; 133  : 	m_logFont.lfWeight				= FW_THIN;
; 134  : 	m_logFont.lfItalic				= FALSE;
; 135  : 	m_logFont.lfUnderline			= FALSE;
; 136  : 	m_logFont.lfStrikeOut			= FALSE;
; 137  : 	m_logFont.lfCharSet				= DEFAULT_CHARSET;
; 138  : 	m_logFont.lfOutPrecision		= OUT_CHARACTER_PRECIS;
; 139  : 	m_logFont.lfClipPrecision		= CLIP_CHARACTER_PRECIS;
; 140  : 	m_logFont.lfQuality				= DEFAULT_QUALITY;
; 141  : 	m_logFont.lfPitchAndFamily		= DEFAULT_PITCH | FF_ROMAN;
; 142  : // 2008.02.20 by LYH >>
; 143  : 	//strcpy(m_logFont.lfFaceName, "");
; 144  : 	CString strFont;

  00061	8d 4d f0	 lea	 ecx, DWORD PTR _strFont$[ebp]
  00064	89 07		 mov	 DWORD PTR [edi], eax
  00066	c7 86 c4 00 00
	00 00 00 00 00	 mov	 DWORD PTR [esi+196], 0
  00070	c7 86 c8 00 00
	00 00 00 00 00	 mov	 DWORD PTR [esi+200], 0
  0007a	c7 86 cc 00 00
	00 64 00 00 00	 mov	 DWORD PTR [esi+204], 100 ; 00000064H
  00084	c7 86 d0 00 00
	00 00 00 00 01	 mov	 DWORD PTR [esi+208], 16777216 ; 01000000H
  0008e	c7 86 d4 00 00
	00 02 01 00 10	 mov	 DWORD PTR [esi+212], 268435714 ; 10000102H
  00098	ff 15 00 00 00
	00		 call	 DWORD PTR __imp_??0?$CStringT@DV?$StrTraitMFC_DLL@DV?$ChTraitsCRT@D@ATL@@@@@ATL@@QAE@XZ

; 145  : 	strFont.LoadString(IDS_STRING_FONT);

  0009e	6a 5c		 push	 92			; 0000005cH
  000a0	8d 4d f0	 lea	 ecx, DWORD PTR _strFont$[ebp]
  000a3	c6 45 fc 01	 mov	 BYTE PTR __$EHRec$[ebp+8], 1
  000a7	ff 15 00 00 00
	00		 call	 DWORD PTR __imp_?LoadStringA@?$CStringT@DV?$StrTraitMFC_DLL@DV?$ChTraitsCRT@D@ATL@@@@@ATL@@QAEHI@Z
; File C:\Program Files (x86)\Microsoft Visual Studio\2019\Community\VC\Tools\MSVC\14.29.30133\atlmfc\include\atlsimpstr.h

; 377  : 		return( m_pszData );

  000ad	8b 45 f0	 mov	 eax, DWORD PTR _strFont$[ebp]
; File D:\git\src\IBK\IBK_DRFN\ProjSrc\SrcChartEx\ChartAddIn\ChartPatternAddIn\DlgAnalysis.cpp

; 146  : 	strcpy(m_logFont.lfFaceName, strFont);

  000b0	8b d6		 mov	 edx, esi
  000b2	2b d0		 sub	 edx, eax
$LL4@InitFont:
  000b4	8a 08		 mov	 cl, BYTE PTR [eax]
  000b6	8d 40 01	 lea	 eax, DWORD PTR [eax+1]
  000b9	88 8c 02 d7 00
	00 00		 mov	 BYTE PTR [edx+eax+215], cl
  000c0	84 c9		 test	 cl, cl
  000c2	75 f0		 jne	 SHORT $LL4@InitFont

; 149  : 	if( m_Font.GetSafeHandle() )

  000c4	81 c6 b4 00 00
	00		 add	 esi, 180		; 000000b4H
; File C:\Program Files (x86)\Microsoft Visual Studio\2019\Community\VC\Tools\MSVC\14.29.30133\atlmfc\include\afxwin1.inl

; 68   : 	{ return this == NULL ? NULL : m_hObject; }

  000ca	74 0d		 je	 SHORT $LN2@InitFont
; File D:\git\src\IBK\IBK_DRFN\ProjSrc\SrcChartEx\ChartAddIn\ChartPatternAddIn\DlgAnalysis.cpp

; 149  : 	if( m_Font.GetSafeHandle() )

  000cc	83 7e 04 00	 cmp	 DWORD PTR [esi+4], 0
  000d0	74 07		 je	 SHORT $LN2@InitFont

; 150  : 		m_Font.DeleteObject();

  000d2	8b ce		 mov	 ecx, esi
  000d4	e8 00 00 00 00	 call	 ?DeleteObject@CGdiObject@@QAEHXZ ; CGdiObject::DeleteObject
$LN2@InitFont:
; File C:\Program Files (x86)\Microsoft Visual Studio\2019\Community\VC\Tools\MSVC\14.29.30133\atlmfc\include\afxwin1.inl

; 157  : 	{ return Attach(::CreateFontIndirect(lpLogFont)); }

  000d9	57		 push	 edi
  000da	ff 15 00 00 00
	00		 call	 DWORD PTR __imp__CreateFontIndirectA@4
  000e0	50		 push	 eax
  000e1	8b ce		 mov	 ecx, esi
  000e3	e8 00 00 00 00	 call	 ?Attach@CGdiObject@@QAEHPAX@Z ; CGdiObject::Attach
; File D:\git\src\IBK\IBK_DRFN\ProjSrc\SrcChartEx\ChartAddIn\ChartPatternAddIn\DlgAnalysis.cpp

; 153  : }

  000e8	8d 4d f0	 lea	 ecx, DWORD PTR _strFont$[ebp]
  000eb	ff 15 00 00 00
	00		 call	 DWORD PTR __imp_??1?$CStringT@DV?$StrTraitMFC_DLL@DV?$ChTraitsCRT@D@ATL@@@@@ATL@@QAE@XZ
  000f1	8d 4d dc	 lea	 ecx, DWORD PTR _dc$[ebp]
  000f4	e8 00 00 00 00	 call	 ??1CClientDC@@UAE@XZ	; CClientDC::~CClientDC
  000f9	8b 4d f4	 mov	 ecx, DWORD PTR __$EHRec$[ebp]
  000fc	64 89 0d 00 00
	00 00		 mov	 DWORD PTR fs:0, ecx
  00103	59		 pop	 ecx
  00104	5f		 pop	 edi
  00105	5e		 pop	 esi
  00106	8b e5		 mov	 esp, ebp
  00108	5d		 pop	 ebp
  00109	c3		 ret	 0
_TEXT	ENDS
;	COMDAT text$x
text$x	SEGMENT
__unwindfunclet$?InitFont@CDlgAnalysis@@IAEXXZ$0:
  00000	8d 4d dc	 lea	 ecx, DWORD PTR _dc$[ebp]
  00003	e9 00 00 00 00	 jmp	 ??1CClientDC@@UAE@XZ	; CClientDC::~CClientDC
__unwindfunclet$?InitFont@CDlgAnalysis@@IAEXXZ$1:
  00008	8d 4d f0	 lea	 ecx, DWORD PTR _strFont$[ebp]
  0000b	ff 25 00 00 00
	00		 jmp	 DWORD PTR __imp_??1?$CStringT@DV?$StrTraitMFC_DLL@DV?$ChTraitsCRT@D@ATL@@@@@ATL@@QAE@XZ
  00011	cc		 int	 3
  00012	cc		 int	 3
  00013	cc		 int	 3
  00014	cc		 int	 3
  00015	cc		 int	 3
__ehhandler$?InitFont@CDlgAnalysis@@IAEXXZ:
  00016	90		 npad	 1
  00017	90		 npad	 1
  00018	8b 54 24 08	 mov	 edx, DWORD PTR [esp+8]
  0001c	8d 42 0c	 lea	 eax, DWORD PTR [edx+12]
  0001f	8b 4a dc	 mov	 ecx, DWORD PTR [edx-36]
  00022	33 c8		 xor	 ecx, eax
  00024	e8 00 00 00 00	 call	 @__security_check_cookie@4
  00029	b8 00 00 00 00	 mov	 eax, OFFSET __ehfuncinfo$?InitFont@CDlgAnalysis@@IAEXXZ
  0002e	e9 00 00 00 00	 jmp	 ___CxxFrameHandler3
text$x	ENDS
?InitFont@CDlgAnalysis@@IAEXXZ ENDP			; CDlgAnalysis::InitFont
; Function compile flags: /Ogtp
; File D:\git\src\IBK\IBK_DRFN\ProjSrc\SrcChartEx\ChartAddIn\ChartPatternAddIn\DlgAnalysis.cpp
; File C:\Program Files (x86)\Microsoft Visual Studio\2019\Community\VC\Tools\MSVC\14.29.30133\atlmfc\include\afxwin1.inl
; File C:\Program Files (x86)\Microsoft Visual Studio\2019\Community\VC\Tools\MSVC\14.29.30133\atlmfc\include\atltypes.h
; File C:\Program Files (x86)\Microsoft Visual Studio\2019\Community\VC\Tools\MSVC\14.29.30133\atlmfc\include\afxwin1.inl
; File D:\git\src\IBK\IBK_DRFN\ProjSrc\SrcChartEx\ChartAddIn\ChartPatternAddIn\DlgAnalysis.cpp
; File C:\Program Files (x86)\Microsoft Visual Studio\2019\Community\VC\Tools\MSVC\14.29.30133\atlmfc\include\afxwin2.inl
; File D:\git\src\IBK\IBK_DRFN\ProjSrc\SrcChartEx\ChartAddIn\ChartPatternAddIn\DlgAnalysis.cpp
; File C:\Program Files (x86)\Microsoft Visual Studio\2019\Community\VC\Tools\MSVC\14.29.30133\atlmfc\include\afxwin2.inl
; File D:\git\src\IBK\IBK_DRFN\ProjSrc\SrcChartEx\ChartAddIn\ChartPatternAddIn\DlgAnalysis.cpp
; File C:\Program Files (x86)\Microsoft Visual Studio\2019\Community\VC\Tools\MSVC\14.29.30133\atlmfc\include\afxwin1.inl
; File D:\git\src\IBK\IBK_DRFN\ProjSrc\SrcChartEx\ChartAddIn\ChartPatternAddIn\DlgAnalysis.cpp
; File C:\Program Files (x86)\Microsoft Visual Studio\2019\Community\VC\Tools\MSVC\14.29.30133\atlmfc\include\afxwin1.inl
; File D:\git\src\IBK\IBK_DRFN\ProjSrc\SrcChartEx\ChartAddIn\ChartPatternAddIn\DlgAnalysis.cpp
;	COMDAT ??0CDlgAnalysis@@QAE@PAVCWnd@@PAVCPatternMaker@@@Z
_TEXT	SEGMENT
_this$ = -16						; size = 4
__$EHRec$ = -12						; size = 12
_this$ = 8						; size = 4
_pParent$ = 8						; size = 4
_pPatternMaker$ = 12					; size = 4
??0CDlgAnalysis@@QAE@PAVCWnd@@PAVCPatternMaker@@@Z PROC	; CDlgAnalysis::CDlgAnalysis, COMDAT
; _this$ = ecx

; 30   : {

  00000	55		 push	 ebp
  00001	8b ec		 mov	 ebp, esp
  00003	6a ff		 push	 -1
  00005	68 00 00 00 00	 push	 __ehhandler$??0CDlgAnalysis@@QAE@PAVCWnd@@PAVCPatternMaker@@@Z
  0000a	64 a1 00 00 00
	00		 mov	 eax, DWORD PTR fs:0
  00010	50		 push	 eax
  00011	51		 push	 ecx
  00012	53		 push	 ebx
  00013	56		 push	 esi
  00014	57		 push	 edi
  00015	a1 00 00 00 00	 mov	 eax, DWORD PTR ___security_cookie
  0001a	33 c5		 xor	 eax, ebp
  0001c	50		 push	 eax
  0001d	8d 45 f4	 lea	 eax, DWORD PTR __$EHRec$[ebp]
  00020	64 a3 00 00 00
	00		 mov	 DWORD PTR fs:0, eax
  00026	8b d9		 mov	 ebx, ecx
  00028	89 5d f0	 mov	 DWORD PTR _this$[ebp], ebx

; 29   : 	: CDialog(CDlgAnalysis::IDD, pParent)

  0002b	ff 75 08	 push	 DWORD PTR _pParent$[ebp]
  0002e	68 d3 07 00 00	 push	 2003			; 000007d3H
  00033	e8 00 00 00 00	 call	 ??0CDialog@@QAE@IPAVCWnd@@@Z ; CDialog::CDialog

; 30   : {

  00038	c7 03 00 00 00
	00		 mov	 DWORD PTR [ebx], OFFSET ??_7CDlgAnalysis@@6B@
  0003e	c7 45 fc 00 00
	00 00		 mov	 DWORD PTR __$EHRec$[ebp+8], 0
; File C:\Program Files (x86)\Microsoft Visual Studio\2019\Community\VC\Tools\MSVC\14.29.30133\atlmfc\include\afxwin1.inl

; 70   : 	{ m_hObject = NULL; }

  00045	c7 83 b8 00 00
	00 00 00 00 00	 mov	 DWORD PTR [ebx+184], 0

; 153  : 	{ }

  0004f	c7 83 b4 00 00
	00 00 00 00 00	 mov	 DWORD PTR [ebx+180], OFFSET ??_7CFont@@6B@
; File C:\Program Files (x86)\Microsoft Visual Studio\2019\Community\VC\Tools\MSVC\14.29.30133\atlmfc\include\atltypes.h

; 528  : 	left = 0;

  00059	c7 83 f8 00 00
	00 00 00 00 00	 mov	 DWORD PTR [ebx+248], 0

; 529  : 	top = 0;

  00063	c7 83 fc 00 00
	00 00 00 00 00	 mov	 DWORD PTR [ebx+252], 0

; 530  : 	right = 0;

  0006d	c7 83 00 01 00
	00 00 00 00 00	 mov	 DWORD PTR [ebx+256], 0

; 531  : 	bottom = 0;

  00077	c7 83 04 01 00
	00 00 00 00 00	 mov	 DWORD PTR [ebx+260], 0
; File C:\Program Files (x86)\Microsoft Visual Studio\2019\Community\VC\Tools\MSVC\14.29.30133\atlmfc\include\afxwin1.inl

; 70   : 	{ m_hObject = NULL; }

  00081	c7 83 0c 01 00
	00 00 00 00 00	 mov	 DWORD PTR [ebx+268], 0

; 128  : 	{ }

  0008b	c7 83 08 01 00
	00 00 00 00 00	 mov	 DWORD PTR [ebx+264], OFFSET ??_7CBrush@@6B@
; File D:\git\src\IBK\IBK_DRFN\ProjSrc\SrcChartEx\ChartAddIn\ChartPatternAddIn\DlgAnalysis.cpp

; 30   : {

  00095	8d b3 10 01 00
	00		 lea	 esi, DWORD PTR [ebx+272]
  0009b	c6 45 fc 02	 mov	 BYTE PTR __$EHRec$[ebp+8], 2
; File C:\Program Files (x86)\Microsoft Visual Studio\2019\Community\VC\Tools\MSVC\14.29.30133\atlmfc\include\afxwin2.inl

; 603  : 	{ }

  0009f	8b ce		 mov	 ecx, esi
; File D:\git\src\IBK\IBK_DRFN\ProjSrc\SrcChartEx\ChartAddIn\ChartPatternAddIn\DlgAnalysis.cpp

; 30   : {

  000a1	89 75 08	 mov	 DWORD PTR _this$[ebp], esi
; File C:\Program Files (x86)\Microsoft Visual Studio\2019\Community\VC\Tools\MSVC\14.29.30133\atlmfc\include\afxwin2.inl

; 603  : 	{ }

  000a4	e8 00 00 00 00	 call	 ??0CWnd@@QAE@XZ		; CWnd::CWnd
  000a9	c7 06 00 00 00
	00		 mov	 DWORD PTR [esi], OFFSET ??_7CStatic@@6B@
; File D:\git\src\IBK\IBK_DRFN\ProjSrc\SrcChartEx\ChartAddIn\ChartPatternAddIn\DlgAnalysis.cpp

; 35   : 	m_pPatternMaker = pPatternMaker;

  000af	8b 45 0c	 mov	 eax, DWORD PTR _pPatternMaker$[ebp]
; File C:\Program Files (x86)\Microsoft Visual Studio\2019\Community\VC\Tools\MSVC\14.29.30133\atlmfc\include\afxwin1.inl

; 132  : 	{ return Attach(::CreateSolidBrush(crColor)); }

  000b2	68 dd e0 e9 00	 push	 15327453		; 00e9e0ddH
; File D:\git\src\IBK\IBK_DRFN\ProjSrc\SrcChartEx\ChartAddIn\ChartPatternAddIn\DlgAnalysis.cpp

; 30   : {

  000b7	c6 45 fc 03	 mov	 BYTE PTR __$EHRec$[ebp+8], 3

; 31   : 	//{{AFX_DATA_INIT(CDlgAnalysis)
; 32   : 	m_rdo_nRptType = 0;

  000bb	c7 83 90 01 00
	00 00 00 00 00	 mov	 DWORD PTR [ebx+400], 0

; 35   : 	m_pPatternMaker = pPatternMaker;

  000c5	89 83 a8 00 00
	00		 mov	 DWORD PTR [ebx+168], eax

; 36   : 
; 37   : 
; 38   : 	m_pGridWaveRptType1		= NULL;

  000cb	c7 83 b0 00 00
	00 00 00 00 00	 mov	 DWORD PTR [ebx+176], 0

; 39   : 	m_pGridCandleRtpType1	= NULL;

  000d5	c7 83 ac 00 00
	00 00 00 00 00	 mov	 DWORD PTR [ebx+172], 0
; File C:\Program Files (x86)\Microsoft Visual Studio\2019\Community\VC\Tools\MSVC\14.29.30133\atlmfc\include\afxwin1.inl

; 132  : 	{ return Attach(::CreateSolidBrush(crColor)); }

  000df	ff 15 00 00 00
	00		 call	 DWORD PTR __imp__CreateSolidBrush@4
  000e5	50		 push	 eax
  000e6	8d 8b 08 01 00
	00		 lea	 ecx, DWORD PTR [ebx+264]
  000ec	e8 00 00 00 00	 call	 ?Attach@CGdiObject@@QAEHPAX@Z ; CGdiObject::Attach
; File D:\git\src\IBK\IBK_DRFN\ProjSrc\SrcChartEx\ChartAddIn\ChartPatternAddIn\DlgAnalysis.cpp

; 44   : 	m_hOcxWnd = NULL;

  000f1	c7 83 94 01 00
	00 00 00 00 00	 mov	 DWORD PTR [ebx+404], 0

; 45   : // 2008.02.20 by LYH <<
; 46   : }

  000fb	8b c3		 mov	 eax, ebx
  000fd	8b 4d f4	 mov	 ecx, DWORD PTR __$EHRec$[ebp]
  00100	64 89 0d 00 00
	00 00		 mov	 DWORD PTR fs:0, ecx
  00107	59		 pop	 ecx
  00108	5f		 pop	 edi
  00109	5e		 pop	 esi
  0010a	5b		 pop	 ebx
  0010b	8b e5		 mov	 esp, ebp
  0010d	5d		 pop	 ebp
  0010e	c2 08 00	 ret	 8
_TEXT	ENDS
;	COMDAT text$x
text$x	SEGMENT
__unwindfunclet$??0CDlgAnalysis@@QAE@PAVCWnd@@PAVCPatternMaker@@@Z$0:
  00000	8b 4d f0	 mov	 ecx, DWORD PTR _this$[ebp]
  00003	e9 00 00 00 00	 jmp	 ??1CDialog@@UAE@XZ	; CDialog::~CDialog
__unwindfunclet$??0CDlgAnalysis@@QAE@PAVCWnd@@PAVCPatternMaker@@@Z$1:
  00008	8b 4d f0	 mov	 ecx, DWORD PTR _this$[ebp]
  0000b	81 c1 b4 00 00
	00		 add	 ecx, 180		; 000000b4H
  00011	e9 00 00 00 00	 jmp	 ??1CFont@@UAE@XZ	; CFont::~CFont
__unwindfunclet$??0CDlgAnalysis@@QAE@PAVCWnd@@PAVCPatternMaker@@@Z$2:
  00016	8b 4d f0	 mov	 ecx, DWORD PTR _this$[ebp]
  00019	81 c1 08 01 00
	00		 add	 ecx, 264		; 00000108H
  0001f	e9 00 00 00 00	 jmp	 ??1CBrush@@UAE@XZ	; CBrush::~CBrush
__unwindfunclet$??0CDlgAnalysis@@QAE@PAVCWnd@@PAVCPatternMaker@@@Z$3:
  00024	8b 4d f0	 mov	 ecx, DWORD PTR _this$[ebp]
  00027	81 c1 10 01 00
	00		 add	 ecx, 272		; 00000110H
  0002d	e9 00 00 00 00	 jmp	 ??1CStatic@@UAE@XZ	; CStatic::~CStatic
  00032	cc		 int	 3
  00033	cc		 int	 3
  00034	cc		 int	 3
  00035	cc		 int	 3
  00036	cc		 int	 3
__ehhandler$??0CDlgAnalysis@@QAE@PAVCWnd@@PAVCPatternMaker@@@Z:
  00037	90		 npad	 1
  00038	90		 npad	 1
  00039	8b 54 24 08	 mov	 edx, DWORD PTR [esp+8]
  0003d	8d 42 0c	 lea	 eax, DWORD PTR [edx+12]
  00040	8b 4a ec	 mov	 ecx, DWORD PTR [edx-20]
  00043	33 c8		 xor	 ecx, eax
  00045	e8 00 00 00 00	 call	 @__security_check_cookie@4
  0004a	b8 00 00 00 00	 mov	 eax, OFFSET __ehfuncinfo$??0CDlgAnalysis@@QAE@PAVCWnd@@PAVCPatternMaker@@@Z
  0004f	e9 00 00 00 00	 jmp	 ___CxxFrameHandler3
text$x	ENDS
??0CDlgAnalysis@@QAE@PAVCWnd@@PAVCPatternMaker@@@Z ENDP	; CDlgAnalysis::CDlgAnalysis
; Function compile flags: /Ogtp
; File C:\Program Files (x86)\Microsoft Visual Studio\2019\Community\VC\Tools\MSVC\14.29.30133\atlmfc\include\afx.inl
;	COMDAT ??_GCStatic@@UAEPAXI@Z
_TEXT	SEGMENT
___flags$ = 8						; size = 4
??_GCStatic@@UAEPAXI@Z PROC				; CStatic::`scalar deleting destructor', COMDAT
; _this$ = ecx
  00000	55		 push	 ebp
  00001	8b ec		 mov	 ebp, esp
  00003	56		 push	 esi
  00004	8b f1		 mov	 esi, ecx
  00006	e8 00 00 00 00	 call	 ??1CStatic@@UAE@XZ	; CStatic::~CStatic
  0000b	8b 45 08	 mov	 eax, DWORD PTR ___flags$[ebp]
  0000e	a8 01		 test	 al, 1
  00010	74 22		 je	 SHORT $LN9@scalar
  00012	a8 04		 test	 al, 4
  00014	75 10		 jne	 SHORT $LN3@scalar

; 112  : 	{ ::operator delete(p); }

  00016	56		 push	 esi
  00017	e8 00 00 00 00	 call	 ??3@YAXPAX@Z		; operator delete
  0001c	83 c4 04	 add	 esp, 4
  0001f	8b c6		 mov	 eax, esi
  00021	5e		 pop	 esi
  00022	5d		 pop	 ebp
  00023	c2 04 00	 ret	 4
$LN3@scalar:
  00026	68 80 00 00 00	 push	 128			; 00000080H
  0002b	56		 push	 esi
  0002c	e8 00 00 00 00	 call	 ?__global_delete@@YAXPAXI@Z ; __global_delete
  00031	83 c4 08	 add	 esp, 8
$LN9@scalar:
  00034	8b c6		 mov	 eax, esi
  00036	5e		 pop	 esi
  00037	5d		 pop	 ebp
  00038	c2 04 00	 ret	 4
??_GCStatic@@UAEPAXI@Z ENDP				; CStatic::`scalar deleting destructor'
_TEXT	ENDS
; Function compile flags: /Ogtp
; File C:\Program Files (x86)\Microsoft Visual Studio\2019\Community\VC\Tools\MSVC\14.29.30133\atlmfc\include\afxwin2.inl
;	COMDAT ?Create@CDialog@@UAEHIPAVCWnd@@@Z
_TEXT	SEGMENT
_nIDTemplate$ = 8					; size = 4
_pParentWnd$ = 12					; size = 4
?Create@CDialog@@UAEHIPAVCWnd@@@Z PROC			; CDialog::Create, COMDAT
; _this$ = ecx

; 585  : 	{ return CDialog::Create(ATL_MAKEINTRESOURCE(nIDTemplate), pParentWnd); }

  00000	55		 push	 ebp
  00001	8b ec		 mov	 ebp, esp
  00003	0f b7 45 08	 movzx	 eax, WORD PTR _nIDTemplate$[ebp]
  00007	89 45 08	 mov	 DWORD PTR _nIDTemplate$[ebp], eax
  0000a	5d		 pop	 ebp
  0000b	e9 00 00 00 00	 jmp	 ?Create@CDialog@@UAEHPBDPAVCWnd@@@Z ; CDialog::Create
?Create@CDialog@@UAEHIPAVCWnd@@@Z ENDP			; CDialog::Create
_TEXT	ENDS
; Function compile flags: /Ogtp
; File C:\Program Files (x86)\Microsoft Visual Studio\2019\Community\VC\Tools\MSVC\14.29.30133\atlmfc\include\afxwin2.inl
;	COMDAT ?EndModalState@CWnd@@UAEXXZ
_TEXT	SEGMENT
?EndModalState@CWnd@@UAEXXZ PROC			; CWnd::EndModalState, COMDAT
; _this$ = ecx

; 567  : 	{ ::EnableWindow(m_hWnd, TRUE); }

  00000	6a 01		 push	 1
  00002	ff 71 20	 push	 DWORD PTR [ecx+32]
  00005	ff 15 00 00 00
	00		 call	 DWORD PTR __imp__EnableWindow@8
  0000b	c3		 ret	 0
?EndModalState@CWnd@@UAEXXZ ENDP			; CWnd::EndModalState
_TEXT	ENDS
; Function compile flags: /Ogtp
; File C:\Program Files (x86)\Microsoft Visual Studio\2019\Community\VC\Tools\MSVC\14.29.30133\atlmfc\include\afxwin2.inl
;	COMDAT ?BeginModalState@CWnd@@UAEXXZ
_TEXT	SEGMENT
?BeginModalState@CWnd@@UAEXXZ PROC			; CWnd::BeginModalState, COMDAT
; _this$ = ecx

; 565  : 	{ ::EnableWindow(m_hWnd, FALSE); }

  00000	6a 00		 push	 0
  00002	ff 71 20	 push	 DWORD PTR [ecx+32]
  00005	ff 15 00 00 00
	00		 call	 DWORD PTR __imp__EnableWindow@8
  0000b	c3		 ret	 0
?BeginModalState@CWnd@@UAEXXZ ENDP			; CWnd::BeginModalState
_TEXT	ENDS
; Function compile flags: /Ogtp
; File C:\Program Files (x86)\Microsoft Visual Studio\2019\Community\VC\Tools\MSVC\14.29.30133\atlmfc\include\afxwin2.inl
;	COMDAT ?DoDataExchange@CWnd@@MAEXPAVCDataExchange@@@Z
_TEXT	SEGMENT
___formal$ = 8						; size = 4
?DoDataExchange@CWnd@@MAEXPAVCDataExchange@@@Z PROC	; CWnd::DoDataExchange, COMDAT
; _this$ = ecx

; 561  : 	{ } // default does nothing

  00000	c2 04 00	 ret	 4
?DoDataExchange@CWnd@@MAEXPAVCDataExchange@@@Z ENDP	; CWnd::DoDataExchange
_TEXT	ENDS
; Function compile flags: /Ogtp
; File C:\Program Files (x86)\Microsoft Visual Studio\2019\Community\VC\Tools\MSVC\14.29.30133\atlmfc\include\afxwin1.inl
; File C:\Program Files (x86)\Microsoft Visual Studio\2019\Community\VC\Tools\MSVC\14.29.30133\atlmfc\include\afx.inl
;	COMDAT ??_GCFont@@UAEPAXI@Z
_TEXT	SEGMENT
___flags$ = 8						; size = 4
??_GCFont@@UAEPAXI@Z PROC				; CFont::`scalar deleting destructor', COMDAT
; _this$ = ecx
  00000	55		 push	 ebp
  00001	8b ec		 mov	 ebp, esp
; File C:\Program Files (x86)\Microsoft Visual Studio\2019\Community\VC\Tools\MSVC\14.29.30133\atlmfc\include\afxwin1.inl

; 155  : 	{ }

  00003	56		 push	 esi
  00004	8b f1		 mov	 esi, ecx
  00006	c7 06 00 00 00
	00		 mov	 DWORD PTR [esi], OFFSET ??_7CFont@@6B@
  0000c	e8 00 00 00 00	 call	 ??1CGdiObject@@UAE@XZ	; CGdiObject::~CGdiObject
  00011	8b 45 08	 mov	 eax, DWORD PTR ___flags$[ebp]
  00014	a8 01		 test	 al, 1
  00016	74 1f		 je	 SHORT $LN12@scalar
  00018	a8 04		 test	 al, 4
  0001a	75 10		 jne	 SHORT $LN3@scalar
; File C:\Program Files (x86)\Microsoft Visual Studio\2019\Community\VC\Tools\MSVC\14.29.30133\atlmfc\include\afx.inl

; 112  : 	{ ::operator delete(p); }

  0001c	56		 push	 esi
  0001d	e8 00 00 00 00	 call	 ??3@YAXPAX@Z		; operator delete
  00022	83 c4 04	 add	 esp, 4
  00025	8b c6		 mov	 eax, esi
  00027	5e		 pop	 esi
  00028	5d		 pop	 ebp
  00029	c2 04 00	 ret	 4
$LN3@scalar:
  0002c	6a 08		 push	 8
  0002e	56		 push	 esi
  0002f	e8 00 00 00 00	 call	 ?__global_delete@@YAXPAXI@Z ; __global_delete
  00034	83 c4 08	 add	 esp, 8
$LN12@scalar:
  00037	8b c6		 mov	 eax, esi
  00039	5e		 pop	 esi
  0003a	5d		 pop	 ebp
  0003b	c2 04 00	 ret	 4
??_GCFont@@UAEPAXI@Z ENDP				; CFont::`scalar deleting destructor'
_TEXT	ENDS
; Function compile flags: /Ogtp
; File C:\Program Files (x86)\Microsoft Visual Studio\2019\Community\VC\Tools\MSVC\14.29.30133\atlmfc\include\afxwin1.inl
;	COMDAT ??1CFont@@UAE@XZ
_TEXT	SEGMENT
??1CFont@@UAE@XZ PROC					; CFont::~CFont, COMDAT
; _this$ = ecx

; 155  : 	{ }

  00000	c7 01 00 00 00
	00		 mov	 DWORD PTR [ecx], OFFSET ??_7CFont@@6B@
  00006	e9 00 00 00 00	 jmp	 ??1CGdiObject@@UAE@XZ	; CGdiObject::~CGdiObject
??1CFont@@UAE@XZ ENDP					; CFont::~CFont
_TEXT	ENDS
; Function compile flags: /Ogtp
; File C:\Program Files (x86)\Microsoft Visual Studio\2019\Community\VC\Tools\MSVC\14.29.30133\atlmfc\include\afxwin1.inl
; File C:\Program Files (x86)\Microsoft Visual Studio\2019\Community\VC\Tools\MSVC\14.29.30133\atlmfc\include\afx.inl
;	COMDAT ??_GCBrush@@UAEPAXI@Z
_TEXT	SEGMENT
___flags$ = 8						; size = 4
??_GCBrush@@UAEPAXI@Z PROC				; CBrush::`scalar deleting destructor', COMDAT
; _this$ = ecx
  00000	55		 push	 ebp
  00001	8b ec		 mov	 ebp, esp
; File C:\Program Files (x86)\Microsoft Visual Studio\2019\Community\VC\Tools\MSVC\14.29.30133\atlmfc\include\afxwin1.inl

; 130  : 	{ }

  00003	56		 push	 esi
  00004	8b f1		 mov	 esi, ecx
  00006	c7 06 00 00 00
	00		 mov	 DWORD PTR [esi], OFFSET ??_7CBrush@@6B@
  0000c	e8 00 00 00 00	 call	 ??1CGdiObject@@UAE@XZ	; CGdiObject::~CGdiObject
  00011	8b 45 08	 mov	 eax, DWORD PTR ___flags$[ebp]
  00014	a8 01		 test	 al, 1
  00016	74 1f		 je	 SHORT $LN12@scalar
  00018	a8 04		 test	 al, 4
  0001a	75 10		 jne	 SHORT $LN3@scalar
; File C:\Program Files (x86)\Microsoft Visual Studio\2019\Community\VC\Tools\MSVC\14.29.30133\atlmfc\include\afx.inl

; 112  : 	{ ::operator delete(p); }

  0001c	56		 push	 esi
  0001d	e8 00 00 00 00	 call	 ??3@YAXPAX@Z		; operator delete
  00022	83 c4 04	 add	 esp, 4
  00025	8b c6		 mov	 eax, esi
  00027	5e		 pop	 esi
  00028	5d		 pop	 ebp
  00029	c2 04 00	 ret	 4
$LN3@scalar:
  0002c	6a 08		 push	 8
  0002e	56		 push	 esi
  0002f	e8 00 00 00 00	 call	 ?__global_delete@@YAXPAXI@Z ; __global_delete
  00034	83 c4 08	 add	 esp, 8
$LN12@scalar:
  00037	8b c6		 mov	 eax, esi
  00039	5e		 pop	 esi
  0003a	5d		 pop	 ebp
  0003b	c2 04 00	 ret	 4
??_GCBrush@@UAEPAXI@Z ENDP				; CBrush::`scalar deleting destructor'
_TEXT	ENDS
; Function compile flags: /Ogtp
; File C:\Program Files (x86)\Microsoft Visual Studio\2019\Community\VC\Tools\MSVC\14.29.30133\atlmfc\include\afxwin1.inl
;	COMDAT ??1CBrush@@UAE@XZ
_TEXT	SEGMENT
??1CBrush@@UAE@XZ PROC					; CBrush::~CBrush, COMDAT
; _this$ = ecx

; 130  : 	{ }

  00000	c7 01 00 00 00
	00		 mov	 DWORD PTR [ecx], OFFSET ??_7CBrush@@6B@
  00006	e9 00 00 00 00	 jmp	 ??1CGdiObject@@UAE@XZ	; CGdiObject::~CGdiObject
??1CBrush@@UAE@XZ ENDP					; CBrush::~CBrush
_TEXT	ENDS
; Function compile flags: /Ogtp
; File C:\Program Files (x86)\Microsoft Visual Studio\2019\Community\VC\Tools\MSVC\14.29.30133\atlmfc\include\afx.inl
;	COMDAT ??_GCGdiObject@@UAEPAXI@Z
_TEXT	SEGMENT
___flags$ = 8						; size = 4
??_GCGdiObject@@UAEPAXI@Z PROC				; CGdiObject::`scalar deleting destructor', COMDAT
; _this$ = ecx
  00000	55		 push	 ebp
  00001	8b ec		 mov	 ebp, esp
  00003	56		 push	 esi
  00004	8b f1		 mov	 esi, ecx
  00006	e8 00 00 00 00	 call	 ??1CGdiObject@@UAE@XZ	; CGdiObject::~CGdiObject
  0000b	8b 45 08	 mov	 eax, DWORD PTR ___flags$[ebp]
  0000e	a8 01		 test	 al, 1
  00010	74 1f		 je	 SHORT $LN9@scalar
  00012	a8 04		 test	 al, 4
  00014	75 10		 jne	 SHORT $LN3@scalar

; 112  : 	{ ::operator delete(p); }

  00016	56		 push	 esi
  00017	e8 00 00 00 00	 call	 ??3@YAXPAX@Z		; operator delete
  0001c	83 c4 04	 add	 esp, 4
  0001f	8b c6		 mov	 eax, esi
  00021	5e		 pop	 esi
  00022	5d		 pop	 ebp
  00023	c2 04 00	 ret	 4
$LN3@scalar:
  00026	6a 08		 push	 8
  00028	56		 push	 esi
  00029	e8 00 00 00 00	 call	 ?__global_delete@@YAXPAXI@Z ; __global_delete
  0002e	83 c4 08	 add	 esp, 8
$LN9@scalar:
  00031	8b c6		 mov	 eax, esi
  00033	5e		 pop	 esi
  00034	5d		 pop	 ebp
  00035	c2 04 00	 ret	 4
??_GCGdiObject@@UAEPAXI@Z ENDP				; CGdiObject::`scalar deleting destructor'
_TEXT	ENDS
; Function compile flags: /Ogtp
; File C:\Program Files (x86)\Microsoft Visual Studio\2019\Community\VC\Tools\MSVC\14.29.30133\atlmfc\include\afxwin1.inl
;	COMDAT ??1CGdiObject@@UAE@XZ
_TEXT	SEGMENT
_pException$2 = -540					; size = 4
_strMsg$3 = -536					; size = 4
_szErrorMessage$4 = -532				; size = 512
__$ArrayPad$ = -20					; size = 4
__$EHRec$ = -16						; size = 16
??1CGdiObject@@UAE@XZ PROC				; CGdiObject::~CGdiObject, COMDAT
; _this$ = ecx

; 74   : {

  00000	55		 push	 ebp
  00001	8b ec		 mov	 ebp, esp
  00003	6a ff		 push	 -1
  00005	68 00 00 00 00	 push	 __ehhandler$??1CGdiObject@@UAE@XZ
  0000a	64 a1 00 00 00
	00		 mov	 eax, DWORD PTR fs:0
  00010	50		 push	 eax
  00011	81 ec 10 02 00
	00		 sub	 esp, 528		; 00000210H
  00017	a1 00 00 00 00	 mov	 eax, DWORD PTR ___security_cookie
  0001c	33 c5		 xor	 eax, ebp
  0001e	89 45 ec	 mov	 DWORD PTR __$ArrayPad$[ebp], eax
  00021	53		 push	 ebx
  00022	56		 push	 esi
  00023	57		 push	 edi
  00024	50		 push	 eax
  00025	8d 45 f4	 lea	 eax, DWORD PTR __$EHRec$[ebp+4]
  00028	64 a3 00 00 00
	00		 mov	 DWORD PTR fs:0, eax
  0002e	89 65 f0	 mov	 DWORD PTR __$EHRec$[ebp], esp
  00031	c7 01 00 00 00
	00		 mov	 DWORD PTR [ecx], OFFSET ??_7CGdiObject@@6B@

; 75   : 	AFX_BEGIN_DESTRUCTOR

  00037	c7 45 fc 00 00
	00 00		 mov	 DWORD PTR __$EHRec$[ebp+12], 0

; 76   : 	DeleteObject();

  0003e	e8 00 00 00 00	 call	 ?DeleteObject@CGdiObject@@QAEHXZ ; CGdiObject::DeleteObject
$LN18@CGdiObject:

; 78   : }

  00043	8b 4d f4	 mov	 ecx, DWORD PTR __$EHRec$[ebp+4]
  00046	64 89 0d 00 00
	00 00		 mov	 DWORD PTR fs:0, ecx
  0004d	59		 pop	 ecx
  0004e	5f		 pop	 edi
  0004f	5e		 pop	 esi
  00050	5b		 pop	 ebx
  00051	8b 4d ec	 mov	 ecx, DWORD PTR __$ArrayPad$[ebp]
  00054	33 cd		 xor	 ecx, ebp
  00056	e8 00 00 00 00	 call	 @__security_check_cookie@4
  0005b	8b e5		 mov	 esp, ebp
  0005d	5d		 pop	 ebp
  0005e	c3		 ret	 0
__catch$??1CGdiObject@@UAE@XZ$0:

; 77   : 	AFX_END_DESTRUCTOR

  0005f	8d 8d e8 fd ff
	ff		 lea	 ecx, DWORD PTR _strMsg$3[ebp]
  00065	ff 15 00 00 00
	00		 call	 DWORD PTR __imp_??0?$CStringT@DV?$StrTraitMFC_DLL@DV?$ChTraitsCRT@D@ATL@@@@@ATL@@QAE@XZ
  0006b	8b b5 e4 fd ff
	ff		 mov	 esi, DWORD PTR _pException$2[ebp]
  00071	8d 8d ec fd ff
	ff		 lea	 ecx, DWORD PTR _szErrorMessage$4[ebp]
  00077	6a 00		 push	 0
  00079	68 00 02 00 00	 push	 512			; 00000200H
  0007e	51		 push	 ecx
  0007f	8b 06		 mov	 eax, DWORD PTR [esi]
  00081	8b ce		 mov	 ecx, esi
  00083	c6 45 fc 02	 mov	 BYTE PTR __$EHRec$[ebp+12], 2
  00087	ff 50 14	 call	 DWORD PTR [eax+20]
  0008a	85 c0		 test	 eax, eax
  0008c	74 2a		 je	 SHORT $LN9@CGdiObject
  0008e	8d 85 ec fd ff
	ff		 lea	 eax, DWORD PTR _szErrorMessage$4[ebp]
  00094	50		 push	 eax
  00095	6a 4d		 push	 77			; 0000004dH
  00097	68 00 00 00 00	 push	 OFFSET ??_C@_0HD@JJCHHHNK@C?3?2Program?5Files?5?$CIx86?$CJ?2Microsof@
  0009c	68 00 00 00 00	 push	 OFFSET ??_C@_0BP@OIEOKIDM@Exception?5thrown?5in?5destructor@
  000a1	8d 85 e8 fd ff
	ff		 lea	 eax, DWORD PTR _strMsg$3[ebp]
  000a7	68 00 00 00 00	 push	 OFFSET ??_C@_0BB@HBOOMJBF@?$CFTs?5?$CI?$CFTs?3?$CFd?$CJ?6?$CFTs@
  000ac	50		 push	 eax
  000ad	ff 15 00 00 00
	00		 call	 DWORD PTR __imp_?Format@?$CStringT@DV?$StrTraitMFC_DLL@DV?$ChTraitsCRT@D@ATL@@@@@ATL@@QAAXPBDZZ
  000b3	83 c4 18	 add	 esp, 24			; 00000018H
  000b6	eb 21		 jmp	 SHORT $LN10@CGdiObject
$LN9@CGdiObject:
  000b8	6a 4d		 push	 77			; 0000004dH
  000ba	68 00 00 00 00	 push	 OFFSET ??_C@_0HD@JJCHHHNK@C?3?2Program?5Files?5?$CIx86?$CJ?2Microsof@
  000bf	68 00 00 00 00	 push	 OFFSET ??_C@_0BP@OIEOKIDM@Exception?5thrown?5in?5destructor@
  000c4	8d 85 e8 fd ff
	ff		 lea	 eax, DWORD PTR _strMsg$3[ebp]
  000ca	68 00 00 00 00	 push	 OFFSET ??_C@_0N@OMEMOKLE@?$CFTs?5?$CI?$CFTs?3?$CFd?$CJ@
  000cf	50		 push	 eax
  000d0	ff 15 00 00 00
	00		 call	 DWORD PTR __imp_?Format@?$CStringT@DV?$StrTraitMFC_DLL@DV?$ChTraitsCRT@D@ATL@@@@@ATL@@QAAXPBDZZ
  000d6	83 c4 14	 add	 esp, 20			; 00000014H
$LN10@CGdiObject:
  000d9	6a 00		 push	 0
  000db	6a 00		 push	 0
  000dd	ff b5 e8 fd ff
	ff		 push	 DWORD PTR _strMsg$3[ebp]
  000e3	e8 00 00 00 00	 call	 ?AfxMessageBox@@YGHPBDII@Z ; AfxMessageBox
  000e8	8d 8d e8 fd ff
	ff		 lea	 ecx, DWORD PTR _strMsg$3[ebp]
  000ee	ff 15 00 00 00
	00		 call	 DWORD PTR __imp_??1?$CStringT@DV?$StrTraitMFC_DLL@DV?$ChTraitsCRT@D@ATL@@@@@ATL@@QAE@XZ
  000f4	8b 06		 mov	 eax, DWORD PTR [esi]
  000f6	8b ce		 mov	 ecx, esi
  000f8	6a 01		 push	 1
  000fa	ff 50 04	 call	 DWORD PTR [eax+4]
  000fd	b8 00 00 00 00	 mov	 eax, $LN18@CGdiObject
  00102	c3		 ret	 0
_TEXT	ENDS
;	COMDAT text$x
text$x	SEGMENT
__unwindfunclet$??1CGdiObject@@UAE@XZ$2:
  00000	8d 8d e8 fd ff
	ff		 lea	 ecx, DWORD PTR _strMsg$3[ebp]
  00006	ff 25 00 00 00
	00		 jmp	 DWORD PTR __imp_??1?$CStringT@DV?$StrTraitMFC_DLL@DV?$ChTraitsCRT@D@ATL@@@@@ATL@@QAE@XZ
  0000c	cc		 int	 3
  0000d	cc		 int	 3
  0000e	cc		 int	 3
  0000f	cc		 int	 3
  00010	cc		 int	 3
__ehhandler$??1CGdiObject@@UAE@XZ:
  00011	90		 npad	 1
  00012	90		 npad	 1
  00013	8b 54 24 08	 mov	 edx, DWORD PTR [esp+8]
  00017	8d 42 0c	 lea	 eax, DWORD PTR [edx+12]
  0001a	8b 8a e0 fd ff
	ff		 mov	 ecx, DWORD PTR [edx-544]
  00020	33 c8		 xor	 ecx, eax
  00022	e8 00 00 00 00	 call	 @__security_check_cookie@4
  00027	8b 4a f8	 mov	 ecx, DWORD PTR [edx-8]
  0002a	33 c8		 xor	 ecx, eax
  0002c	e8 00 00 00 00	 call	 @__security_check_cookie@4
  00031	b8 00 00 00 00	 mov	 eax, OFFSET __ehfuncinfo$??1CGdiObject@@UAE@XZ
  00036	e9 00 00 00 00	 jmp	 ___CxxFrameHandler3
text$x	ENDS
??1CGdiObject@@UAE@XZ ENDP				; CGdiObject::~CGdiObject
; Function compile flags: /Ogtp
; File C:\Program Files (x86)\Microsoft Visual Studio\2019\Community\VC\Tools\MSVC\14.29.30133\atlmfc\include\atltime.h
;	COMDAT ?Format@CTime@ATL@@QBE?AV?$CStringT@DV?$StrTraitMFC_DLL@DV?$ChTraitsCRT@D@ATL@@@@@2@PBD@Z
_TEXT	SEGMENT
___$ReturnUdt$GSCopy$ = -172				; size = 4
_ptmTemp$ = -168					; size = 36
_szBuffer$ = -132					; size = 128
__$ArrayPad$ = -4					; size = 4
___$ReturnUdt$ = 8					; size = 4
_pFormat$ = 12						; size = 4
?Format@CTime@ATL@@QBE?AV?$CStringT@DV?$StrTraitMFC_DLL@DV?$ChTraitsCRT@D@ATL@@@@@2@PBD@Z PROC ; ATL::CTime::Format, COMDAT
; _this$ = ecx

; 1057 : {

  00000	55		 push	 ebp
  00001	8b ec		 mov	 ebp, esp
  00003	81 ec ac 00 00
	00		 sub	 esp, 172		; 000000acH
  00009	a1 00 00 00 00	 mov	 eax, DWORD PTR ___security_cookie
  0000e	33 c5		 xor	 eax, ebp
  00010	89 45 fc	 mov	 DWORD PTR __$ArrayPad$[ebp], eax
  00013	56		 push	 esi
  00014	8b 75 08	 mov	 esi, DWORD PTR ___$ReturnUdt$[ebp]
  00017	57		 push	 edi
  00018	8b 7d 0c	 mov	 edi, DWORD PTR _pFormat$[ebp]
  0001b	89 b5 54 ff ff
	ff		 mov	 DWORD PTR ___$ReturnUdt$GSCopy$[ebp], esi

; 1058 : 	if(pFormat == NULL)

  00021	85 ff		 test	 edi, edi
  00023	75 03		 jne	 SHORT $LN2@Format

; 1059 : 	{
; 1060 : 		return pFormat;

  00025	57		 push	 edi
  00026	eb 43		 jmp	 SHORT $LN11@Format
$LN2@Format:

; 1061 : 	}
; 1062 : 
; 1063 : 	TCHAR szBuffer[maxTimeBufferSize];
; 1064 : 	struct tm ptmTemp;
; 1065 : 
; 1066 : 	if (_localtime64_s(&ptmTemp, &m_time) != 0)

  00028	51		 push	 ecx
  00029	8d 85 58 ff ff
	ff		 lea	 eax, DWORD PTR _ptmTemp$[ebp]
  0002f	50		 push	 eax
  00030	ff 15 00 00 00
	00		 call	 DWORD PTR __imp___localtime64_s
  00036	83 c4 08	 add	 esp, 8
  00039	85 c0		 test	 eax, eax
  0003b	75 4a		 jne	 SHORT $LN13@Format

; 1069 : 	}
; 1070 : 
; 1071 : 	if (!_tcsftime(szBuffer, maxTimeBufferSize, pFormat, &ptmTemp))

  0003d	8d 85 58 ff ff
	ff		 lea	 eax, DWORD PTR _ptmTemp$[ebp]
  00043	50		 push	 eax
  00044	57		 push	 edi
  00045	8d 85 7c ff ff
	ff		 lea	 eax, DWORD PTR _szBuffer$[ebp]
  0004b	68 80 00 00 00	 push	 128			; 00000080H
  00050	50		 push	 eax
  00051	ff 15 00 00 00
	00		 call	 DWORD PTR __imp__strftime
  00057	83 c4 10	 add	 esp, 16			; 00000010H
  0005a	f7 d8		 neg	 eax
  0005c	1a c0		 sbb	 al, al
  0005e	20 85 7c ff ff
	ff		 and	 BYTE PTR _szBuffer$[ebp], al

; 1072 : 	{
; 1073 : 		szBuffer[0] = '\0';
; 1074 : 	}
; 1075 : 
; 1076 : 	return szBuffer;

  00064	8d 85 7c ff ff
	ff		 lea	 eax, DWORD PTR _szBuffer$[ebp]
  0006a	50		 push	 eax
$LN11@Format:

; 1077 : }

  0006b	8b ce		 mov	 ecx, esi
  0006d	ff 15 00 00 00
	00		 call	 DWORD PTR __imp_??0?$CStringT@DV?$StrTraitMFC_DLL@DV?$ChTraitsCRT@D@ATL@@@@@ATL@@QAE@PBD@Z
  00073	8b 4d fc	 mov	 ecx, DWORD PTR __$ArrayPad$[ebp]
  00076	8b c6		 mov	 eax, esi
  00078	5f		 pop	 edi
  00079	33 cd		 xor	 ecx, ebp
  0007b	5e		 pop	 esi
  0007c	e8 00 00 00 00	 call	 @__security_check_cookie@4
  00081	8b e5		 mov	 esp, ebp
  00083	5d		 pop	 ebp
  00084	c2 08 00	 ret	 8
$LN13@Format:

; 1067 : 	{
; 1068 : 		AtlThrow(E_INVALIDARG);

  00087	68 57 00 07 80	 push	 -2147024809		; 80070057H
  0008c	e8 00 00 00 00	 call	 ?AtlThrowImpl@ATL@@YGXJ@Z ; ATL::AtlThrowImpl
$LN10@Format:
  00091	cc		 int	 3
?Format@CTime@ATL@@QBE?AV?$CStringT@DV?$StrTraitMFC_DLL@DV?$ChTraitsCRT@D@ATL@@@@@2@PBD@Z ENDP ; ATL::CTime::Format
_TEXT	ENDS
; Function compile flags: /Ogtp
; File C:\Program Files (x86)\Microsoft Visual Studio\2019\Community\VC\Tools\MSVC\14.29.30133\atlmfc\include\cstringt.h
; File C:\Program Files (x86)\Microsoft Visual Studio\2019\Community\VC\Tools\MSVC\14.29.30133\atlmfc\include\atlsimpstr.h
; File C:\Program Files (x86)\Microsoft Visual Studio\2019\Community\VC\Tools\MSVC\14.29.30133\atlmfc\include\cstringt.h
; File C:\Program Files (x86)\Microsoft Visual Studio\2019\Community\VC\Tools\MSVC\14.29.30133\atlmfc\include\atlsimpstr.h
; File C:\Program Files (x86)\Microsoft Visual Studio\2019\Community\VC\Tools\MSVC\14.29.30133\atlmfc\include\cstringt.h
;	COMDAT ??HATL@@YA?AV?$CStringT@DV?$StrTraitMFC_DLL@DV?$ChTraitsCRT@D@ATL@@@@@0@ABV10@0@Z
_TEXT	SEGMENT
$T2 = -16						; size = 4
__$EHRec$ = -12						; size = 12
___$ReturnUdt$ = 8					; size = 4
_str1$ = 12						; size = 4
_str2$ = 16						; size = 4
??HATL@@YA?AV?$CStringT@DV?$StrTraitMFC_DLL@DV?$ChTraitsCRT@D@ATL@@@@@0@ABV10@0@Z PROC ; ATL::operator+, COMDAT

; 2389 : 	{

  00000	55		 push	 ebp
  00001	8b ec		 mov	 ebp, esp
  00003	6a ff		 push	 -1
  00005	68 00 00 00 00	 push	 __ehhandler$??HATL@@YA?AV?$CStringT@DV?$StrTraitMFC_DLL@DV?$ChTraitsCRT@D@ATL@@@@@0@ABV10@0@Z
  0000a	64 a1 00 00 00
	00		 mov	 eax, DWORD PTR fs:0
  00010	50		 push	 eax
  00011	51		 push	 ecx
  00012	56		 push	 esi
  00013	57		 push	 edi
  00014	a1 00 00 00 00	 mov	 eax, DWORD PTR ___security_cookie
  00019	33 c5		 xor	 eax, ebp
  0001b	50		 push	 eax
  0001c	8d 45 f4	 lea	 eax, DWORD PTR __$EHRec$[ebp]
  0001f	64 a3 00 00 00
	00		 mov	 DWORD PTR fs:0, eax

; 2390 : 		CStringT strResult( str1.GetManager() );

  00025	8b 75 0c	 mov	 esi, DWORD PTR _str1$[ebp]
  00028	8b ce		 mov	 ecx, esi
  0002a	c7 45 f0 00 00
	00 00		 mov	 DWORD PTR $T2[ebp], 0
  00031	ff 15 00 00 00
	00		 call	 DWORD PTR __imp_?GetManager@?$CStringT@DV?$StrTraitMFC_DLL@DV?$ChTraitsCRT@D@ATL@@@@@ATL@@QBEPAUIAtlStringMgr@2@XZ
  00037	8b 7d 08	 mov	 edi, DWORD PTR ___$ReturnUdt$[ebp]
  0003a	8b cf		 mov	 ecx, edi
  0003c	50		 push	 eax
  0003d	ff 15 00 00 00
	00		 call	 DWORD PTR __imp_??0?$CStringT@DV?$StrTraitMFC_DLL@DV?$ChTraitsCRT@D@ATL@@@@@ATL@@QAE@PAUIAtlStringMgr@1@@Z
; File C:\Program Files (x86)\Microsoft Visual Studio\2019\Community\VC\Tools\MSVC\14.29.30133\atlmfc\include\atlsimpstr.h

; 519  : 		return( GetData()->nDataLength );

  00043	8b 45 10	 mov	 eax, DWORD PTR _str2$[ebp]
  00046	8b 16		 mov	 edx, DWORD PTR [esi]
; File C:\Program Files (x86)\Microsoft Visual Studio\2019\Community\VC\Tools\MSVC\14.29.30133\atlmfc\include\cstringt.h

; 2394 : 		return( strResult );

  00048	c7 45 fc 00 00
	00 00		 mov	 DWORD PTR __$EHRec$[ebp+8], 0
  0004f	c7 45 f0 01 00
	00 00		 mov	 DWORD PTR $T2[ebp], 1
; File C:\Program Files (x86)\Microsoft Visual Studio\2019\Community\VC\Tools\MSVC\14.29.30133\atlmfc\include\atlsimpstr.h

; 519  : 		return( GetData()->nDataLength );

  00056	8b 08		 mov	 ecx, DWORD PTR [eax]
; File C:\Program Files (x86)\Microsoft Visual Studio\2019\Community\VC\Tools\MSVC\14.29.30133\atlmfc\include\cstringt.h

; 2392 : 		CThisSimpleString::Concatenate( strResult, str1, str1.GetLength(), str2, str2.GetLength() );

  00058	ff 71 f4	 push	 DWORD PTR [ecx-12]
  0005b	51		 push	 ecx
  0005c	ff 72 f4	 push	 DWORD PTR [edx-12]
  0005f	52		 push	 edx
  00060	57		 push	 edi
  00061	ff 15 00 00 00
	00		 call	 DWORD PTR __imp_?Concatenate@?$CSimpleStringT@D$00@ATL@@KAXAAV12@PBDH1H@Z
  00067	83 c4 14	 add	 esp, 20			; 00000014H

; 2394 : 		return( strResult );

  0006a	8b c7		 mov	 eax, edi

; 2395 : 	}

  0006c	8b 4d f4	 mov	 ecx, DWORD PTR __$EHRec$[ebp]
  0006f	64 89 0d 00 00
	00 00		 mov	 DWORD PTR fs:0, ecx
  00076	59		 pop	 ecx
  00077	5f		 pop	 edi
  00078	5e		 pop	 esi
  00079	8b e5		 mov	 esp, ebp
  0007b	5d		 pop	 ebp
  0007c	c3		 ret	 0
_TEXT	ENDS
;	COMDAT text$x
text$x	SEGMENT
__unwindfunclet$??HATL@@YA?AV?$CStringT@DV?$StrTraitMFC_DLL@DV?$ChTraitsCRT@D@ATL@@@@@0@ABV10@0@Z$0:
  00000	8b 45 f0	 mov	 eax, DWORD PTR $T2[ebp]
  00003	83 e0 01	 and	 eax, 1
  00006	0f 84 0d 00 00
	00		 je	 $LN4@operator
  0000c	83 65 f0 fe	 and	 DWORD PTR $T2[ebp], -2	; fffffffeH
  00010	8b 4d 08	 mov	 ecx, DWORD PTR ___$ReturnUdt$[ebp]
  00013	ff 25 00 00 00
	00		 jmp	 DWORD PTR __imp_??1?$CStringT@DV?$StrTraitMFC_DLL@DV?$ChTraitsCRT@D@ATL@@@@@ATL@@QAE@XZ
$LN4@operator:
  00019	c3		 ret	 0
  0001a	cc		 int	 3
  0001b	cc		 int	 3
  0001c	cc		 int	 3
  0001d	cc		 int	 3
  0001e	cc		 int	 3
__ehhandler$??HATL@@YA?AV?$CStringT@DV?$StrTraitMFC_DLL@DV?$ChTraitsCRT@D@ATL@@@@@0@ABV10@0@Z:
  0001f	90		 npad	 1
  00020	90		 npad	 1
  00021	8b 54 24 08	 mov	 edx, DWORD PTR [esp+8]
  00025	8d 42 0c	 lea	 eax, DWORD PTR [edx+12]
  00028	8b 4a f0	 mov	 ecx, DWORD PTR [edx-16]
  0002b	33 c8		 xor	 ecx, eax
  0002d	e8 00 00 00 00	 call	 @__security_check_cookie@4
  00032	b8 00 00 00 00	 mov	 eax, OFFSET __ehfuncinfo$??HATL@@YA?AV?$CStringT@DV?$StrTraitMFC_DLL@DV?$ChTraitsCRT@D@ATL@@@@@0@ABV10@0@Z
  00037	e9 00 00 00 00	 jmp	 ___CxxFrameHandler3
text$x	ENDS
??HATL@@YA?AV?$CStringT@DV?$StrTraitMFC_DLL@DV?$ChTraitsCRT@D@ATL@@@@@0@ABV10@0@Z ENDP ; ATL::operator+
; Function compile flags: /Ogtp
; File C:\Program Files (x86)\Microsoft Visual Studio\2019\Community\VC\Tools\MSVC\14.29.30133\atlmfc\include\atlexcept.h
;	COMDAT ?AtlThrowImpl@ATL@@YGXJ@Z
_TEXT	SEGMENT
_hr$ = 8						; size = 4
?AtlThrowImpl@ATL@@YGXJ@Z PROC				; ATL::AtlThrowImpl, COMDAT

; 65   : {

  00000	55		 push	 ebp
  00001	8b ec		 mov	 ebp, esp

; 66   : 	ATLTRACE(atlTraceException, 0, _T("AtlThrow: hr = 0x%x\n"), hr );
; 67   : #ifdef _AFX
; 68   : 	if( hr == E_OUTOFMEMORY )

  00003	8b 45 08	 mov	 eax, DWORD PTR _hr$[ebp]
  00006	3d 0e 00 07 80	 cmp	 eax, -2147024882	; 8007000eH
  0000b	75 05		 jne	 SHORT $LN2@AtlThrowIm

; 69   : 	{
; 70   : 		AfxThrowMemoryException();

  0000d	e8 00 00 00 00	 call	 ?AfxThrowMemoryException@@YGXXZ ; AfxThrowMemoryException
$LN2@AtlThrowIm:

; 71   : 	}
; 72   : 	else
; 73   : 	{
; 74   : 		AfxThrowOleException( hr );

  00012	50		 push	 eax
  00013	e8 00 00 00 00	 call	 ?AfxThrowOleException@@YGXJ@Z ; AfxThrowOleException
$LN5@AtlThrowIm:
  00018	cc		 int	 3
?AtlThrowImpl@ATL@@YGXJ@Z ENDP				; ATL::AtlThrowImpl
_TEXT	ENDS
; Function compile flags: /Ogtp
; File C:\Program Files (x86)\Microsoft Visual Studio\2019\Community\VC\Tools\MSVC\14.29.30133\atlmfc\include\afx.inl
;	COMDAT ?Dump@CObject@@UBEXAAVCDumpContext@@@Z
_TEXT	SEGMENT
___formal$ = 8						; size = 4
?Dump@CObject@@UBEXAAVCDumpContext@@@Z PROC		; CObject::Dump, COMDAT
; _this$ = ecx

; 122  : 	{ /* no dumping in release builds */ }

  00000	c2 04 00	 ret	 4
?Dump@CObject@@UBEXAAVCDumpContext@@@Z ENDP		; CObject::Dump
_TEXT	ENDS
; Function compile flags: /Ogtp
; File C:\Program Files (x86)\Microsoft Visual Studio\2019\Community\VC\Tools\MSVC\14.29.30133\atlmfc\include\afx.inl
;	COMDAT ?AssertValid@CObject@@UBEXXZ
_TEXT	SEGMENT
?AssertValid@CObject@@UBEXXZ PROC			; CObject::AssertValid, COMDAT
; _this$ = ecx

; 120  : 	{ /* no asserts in release builds */ }

  00000	c2 00 00	 ret	 0
?AssertValid@CObject@@UBEXXZ ENDP			; CObject::AssertValid
_TEXT	ENDS
; Function compile flags: /Ogtp
; File C:\Program Files (x86)\Microsoft Visual Studio\2019\Community\VC\Tools\MSVC\14.29.30133\atlmfc\include\afx.inl
;	COMDAT ?Serialize@CObject@@UAEXAAVCArchive@@@Z
_TEXT	SEGMENT
___formal$ = 8						; size = 4
?Serialize@CObject@@UAEXAAVCArchive@@@Z PROC		; CObject::Serialize, COMDAT
; _this$ = ecx

; 106  : 	{ /* CObject does not serialize anything by default */ }

  00000	c2 04 00	 ret	 4
?Serialize@CObject@@UAEXAAVCArchive@@@Z ENDP		; CObject::Serialize
_TEXT	ENDS
; Function compile flags: /Ogtp
; File C:\Program Files (x86)\Microsoft Visual Studio\2019\Community\VC\Tools\MSVC\14.29.30133\atlmfc\include\afx.inl
;	COMDAT ??3CObject@@SGXPAX@Z
_TEXT	SEGMENT
_p$ = 8							; size = 4
??3CObject@@SGXPAX@Z PROC				; CObject::operator delete, COMDAT

; 112  : 	{ ::operator delete(p); }

  00000	55		 push	 ebp
  00001	8b ec		 mov	 ebp, esp
  00003	ff 75 08	 push	 DWORD PTR _p$[ebp]
  00006	e8 00 00 00 00	 call	 ??3@YAXPAX@Z		; operator delete
  0000b	83 c4 04	 add	 esp, 4
  0000e	5d		 pop	 ebp
  0000f	c2 04 00	 ret	 4
??3CObject@@SGXPAX@Z ENDP				; CObject::operator delete
_TEXT	ENDS
; Function compile flags: /Ogtp
; File C:\Program Files (x86)\Microsoft Visual Studio\2019\Community\VC\Tools\MSVC\14.29.30133\atlmfc\include\afx.inl
;	COMDAT ??1CObject@@UAE@XZ
_TEXT	SEGMENT
??1CObject@@UAE@XZ PROC					; CObject::~CObject, COMDAT
; _this$ = ecx

; 104  : 	{ }

  00000	c2 00 00	 ret	 0
??1CObject@@UAE@XZ ENDP					; CObject::~CObject
_TEXT	ENDS
; Function compile flags: /Ogtp
; File D:\git\src\IBK\IBK_DRFN\ProjSrc\SrcChartEx\ChartAddIn\ChartPatternAddIn\DlgAnalysis.cpp
;	COMDAT ?__empty_global_delete@@YAXPAXI@Z
_TEXT	SEGMENT
___formal$ = 8						; size = 4
___formal$ = 12						; size = 4
?__empty_global_delete@@YAXPAXI@Z PROC			; __empty_global_delete, COMDAT

  00000	c2 00 00	 ret	 0
?__empty_global_delete@@YAXPAXI@Z ENDP			; __empty_global_delete
_TEXT	ENDS
; Function compile flags: /Ogtp
; File D:\git\src\IBK\IBK_DRFN\ProjSrc\SrcChartEx\ChartAddIn\ChartPatternAddIn\DlgAnalysis.cpp
;	COMDAT ?__empty_global_delete@@YAXPAX@Z
_TEXT	SEGMENT
___formal$ = 8						; size = 4
?__empty_global_delete@@YAXPAX@Z PROC			; __empty_global_delete, COMDAT

  00000	c2 00 00	 ret	 0
?__empty_global_delete@@YAXPAX@Z ENDP			; __empty_global_delete
_TEXT	ENDS
; Function compile flags: /Ogtp
;	COMDAT ??_H@YGXPAXIIP6EPAX0@Z@Z
_TEXT	SEGMENT
___t$ = 8						; size = 4
___s$ = 12						; size = 4
___n$ = 16						; size = 4
___f$ = 20						; size = 4
??_H@YGXPAXIIP6EPAX0@Z@Z PROC				; `vector constructor iterator', COMDAT
  00000	55		 push	 ebp
  00001	8b ec		 mov	 ebp, esp
  00003	56		 push	 esi
  00004	8b 75 10	 mov	 esi, DWORD PTR ___n$[ebp]
  00007	85 f6		 test	 esi, esi
  00009	74 16		 je	 SHORT $LN6@vector
  0000b	53		 push	 ebx
  0000c	8b 5d 14	 mov	 ebx, DWORD PTR ___f$[ebp]
  0000f	57		 push	 edi
  00010	8b 7d 08	 mov	 edi, DWORD PTR ___t$[ebp]
$LL2@vector:
  00013	8b cf		 mov	 ecx, edi
  00015	ff d3		 call	 ebx
  00017	03 7d 0c	 add	 edi, DWORD PTR ___s$[ebp]
  0001a	83 ee 01	 sub	 esi, 1
  0001d	75 f4		 jne	 SHORT $LL2@vector
  0001f	5f		 pop	 edi
  00020	5b		 pop	 ebx
$LN6@vector:
  00021	5e		 pop	 esi
  00022	5d		 pop	 ebp
  00023	c2 10 00	 ret	 16			; 00000010H
??_H@YGXPAXIIP6EPAX0@Z@Z ENDP				; `vector constructor iterator'
_TEXT	ENDS
END
