; Listing generated by Microsoft (R) Optimizing Compiler Version 19.29.30145.0 

	TITLE	D:\git\src\IBK\IBK_DRFN\#DRfn-CS\_Obj\ChartPatternAddin\DlgEnvSetup4.obj
	.686P
	.XMM
	include listing.inc
	.model	flat

INCLUDELIB MSVCRT
INCLUDELIB OLDNAMES

PUBLIC	?__empty_global_delete@@YAXPAX@Z		; __empty_global_delete
PUBLIC	?__empty_global_delete@@YAXPAXI@Z		; __empty_global_delete
PUBLIC	??1CObject@@UAE@XZ				; CObject::~CObject
PUBLIC	?Serialize@CObject@@UAEXAAVCArchive@@@Z		; CObject::Serialize
PUBLIC	?AssertValid@CObject@@UBEXXZ			; CObject::AssertValid
PUBLIC	?Dump@CObject@@UBEXAAVCDumpContext@@@Z		; CObject::Dump
PUBLIC	??1CGdiObject@@UAE@XZ				; CGdiObject::~CGdiObject
PUBLIC	??_GCGdiObject@@UAEPAXI@Z			; CGdiObject::`scalar deleting destructor'
PUBLIC	??1CBrush@@UAE@XZ				; CBrush::~CBrush
PUBLIC	??_GCBrush@@UAEPAXI@Z				; CBrush::`scalar deleting destructor'
PUBLIC	?DoDataExchange@CWnd@@MAEXPAVCDataExchange@@@Z	; CWnd::DoDataExchange
PUBLIC	?BeginModalState@CWnd@@UAEXXZ			; CWnd::BeginModalState
PUBLIC	?EndModalState@CWnd@@UAEXXZ			; CWnd::EndModalState
PUBLIC	?Create@CDialog@@UAEHIPAVCWnd@@@Z		; CDialog::Create
PUBLIC	??_GCButton@@UAEPAXI@Z				; CButton::`scalar deleting destructor'
PUBLIC	??_GCTreeCtrl@@UAEPAXI@Z			; CTreeCtrl::`scalar deleting destructor'
PUBLIC	?SetSize@?$CArray@HH@@QAEXHH@Z			; CArray<int,int>::SetSize
PUBLIC	?SetAtGrow@?$CArray@HH@@QAEXHH@Z		; CArray<int,int>::SetAtGrow
PUBLIC	??0CDlgEnvSetup4@@QAE@PAVCWnd@@@Z		; CDlgEnvSetup4::CDlgEnvSetup4
PUBLIC	?SetPatternEnvData@CDlgEnvSetup4@@QAEXPAVCPatternEnvData@@@Z ; CDlgEnvSetup4::SetPatternEnvData
PUBLIC	?SetPatternEnvDataToControl@CDlgEnvSetup4@@QAEXXZ ; CDlgEnvSetup4::SetPatternEnvDataToControl
PUBLIC	?OnOK@CDlgEnvSetup4@@UAEXXZ			; CDlgEnvSetup4::OnOK
PUBLIC	?DoDataExchange@CDlgEnvSetup4@@MAEXPAVCDataExchange@@@Z ; CDlgEnvSetup4::DoDataExchange
PUBLIC	?WindowProc@CDlgEnvSetup4@@MAEJIIJ@Z		; CDlgEnvSetup4::WindowProc
PUBLIC	?OnInitDialog@CDlgEnvSetup4@@MAEHXZ		; CDlgEnvSetup4::OnInitDialog
PUBLIC	?OnCtlColor@CDlgEnvSetup4@@IAEPAUHBRUSH__@@PAVCDC@@PAVCWnd@@I@Z ; CDlgEnvSetup4::OnCtlColor
PUBLIC	?OnDestroy@CDlgEnvSetup4@@IAEXXZ		; CDlgEnvSetup4::OnDestroy
PUBLIC	?OnButtonAllcheck@CDlgEnvSetup4@@IAEXXZ		; CDlgEnvSetup4::OnButtonAllcheck
PUBLIC	?OnButtonAlluncheck@CDlgEnvSetup4@@IAEXXZ	; CDlgEnvSetup4::OnButtonAlluncheck
PUBLIC	?GetThisMessageMap@CDlgEnvSetup4@@KGPBUAFX_MSGMAP@@XZ ; CDlgEnvSetup4::GetThisMessageMap
PUBLIC	?GetMessageMap@CDlgEnvSetup4@@MBEPBUAFX_MSGMAP@@XZ ; CDlgEnvSetup4::GetMessageMap
PUBLIC	??_GCDlgEnvSetup4@@UAEPAXI@Z			; CDlgEnvSetup4::`scalar deleting destructor'
PUBLIC	??_R0PAVCException@@@8				; CException * `RTTI Type Descriptor'
PUBLIC	??_7CGdiObject@@6B@				; CGdiObject::`vftable'
PUBLIC	??_7CBrush@@6B@					; CBrush::`vftable'
PUBLIC	??_7CButton@@6B@				; CButton::`vftable'
PUBLIC	??_C@_0HD@JJCHHHNK@C?3?2Program?5Files?5?$CIx86?$CJ?2Microsof@ ; `string'
PUBLIC	??_C@_0BP@OIEOKIDM@Exception?5thrown?5in?5destructor@ ; `string'
PUBLIC	??_C@_0BB@HBOOMJBF@?$CFTs?5?$CI?$CFTs?3?$CFd?$CJ?6?$CFTs@ ; `string'
PUBLIC	??_C@_0N@OMEMOKLE@?$CFTs?5?$CI?$CFTs?3?$CFd?$CJ@ ; `string'
PUBLIC	??_7CTreeCtrl@@6B@				; CTreeCtrl::`vftable'
PUBLIC	??_R0?AVCObject@@@8				; CObject `RTTI Type Descriptor'
PUBLIC	??_R3CObject@@8					; CObject::`RTTI Class Hierarchy Descriptor'
PUBLIC	??_R2CObject@@8					; CObject::`RTTI Base Class Array'
PUBLIC	??_R1A@?0A@EA@CObject@@8			; CObject::`RTTI Base Class Descriptor at (0,-1,0,64)'
PUBLIC	??_R4CGdiObject@@6B@				; CGdiObject::`RTTI Complete Object Locator'
PUBLIC	??_R0?AVCGdiObject@@@8				; CGdiObject `RTTI Type Descriptor'
PUBLIC	??_R3CGdiObject@@8				; CGdiObject::`RTTI Class Hierarchy Descriptor'
PUBLIC	??_R2CGdiObject@@8				; CGdiObject::`RTTI Base Class Array'
PUBLIC	??_R1A@?0A@EA@CGdiObject@@8			; CGdiObject::`RTTI Base Class Descriptor at (0,-1,0,64)'
PUBLIC	??_R4CBrush@@6B@				; CBrush::`RTTI Complete Object Locator'
PUBLIC	??_R0?AVCBrush@@@8				; CBrush `RTTI Type Descriptor'
PUBLIC	??_R3CBrush@@8					; CBrush::`RTTI Class Hierarchy Descriptor'
PUBLIC	??_R2CBrush@@8					; CBrush::`RTTI Base Class Array'
PUBLIC	??_R1A@?0A@EA@CBrush@@8				; CBrush::`RTTI Base Class Descriptor at (0,-1,0,64)'
PUBLIC	??_R1A@?0A@EA@CWnd@@8				; CWnd::`RTTI Base Class Descriptor at (0,-1,0,64)'
PUBLIC	??_R0?AVCWnd@@@8				; CWnd `RTTI Type Descriptor'
PUBLIC	??_R3CWnd@@8					; CWnd::`RTTI Class Hierarchy Descriptor'
PUBLIC	??_R2CWnd@@8					; CWnd::`RTTI Base Class Array'
PUBLIC	??_R1A@?0A@EA@CCmdTarget@@8			; CCmdTarget::`RTTI Base Class Descriptor at (0,-1,0,64)'
PUBLIC	??_R0?AVCCmdTarget@@@8				; CCmdTarget `RTTI Type Descriptor'
PUBLIC	??_R3CCmdTarget@@8				; CCmdTarget::`RTTI Class Hierarchy Descriptor'
PUBLIC	??_R2CCmdTarget@@8				; CCmdTarget::`RTTI Base Class Array'
PUBLIC	??_R4CButton@@6B@				; CButton::`RTTI Complete Object Locator'
PUBLIC	??_R0?AVCButton@@@8				; CButton `RTTI Type Descriptor'
PUBLIC	??_R3CButton@@8					; CButton::`RTTI Class Hierarchy Descriptor'
PUBLIC	??_R2CButton@@8					; CButton::`RTTI Base Class Array'
PUBLIC	??_R1A@?0A@EA@CButton@@8			; CButton::`RTTI Base Class Descriptor at (0,-1,0,64)'
PUBLIC	??_R1A@?0A@EA@CDialog@@8			; CDialog::`RTTI Base Class Descriptor at (0,-1,0,64)'
PUBLIC	??_R0?AVCDialog@@@8				; CDialog `RTTI Type Descriptor'
PUBLIC	??_R3CDialog@@8					; CDialog::`RTTI Class Hierarchy Descriptor'
PUBLIC	??_R2CDialog@@8					; CDialog::`RTTI Base Class Array'
PUBLIC	??_R4CTreeCtrl@@6B@				; CTreeCtrl::`RTTI Complete Object Locator'
PUBLIC	??_R0?AVCTreeCtrl@@@8				; CTreeCtrl `RTTI Type Descriptor'
PUBLIC	??_R3CTreeCtrl@@8				; CTreeCtrl::`RTTI Class Hierarchy Descriptor'
PUBLIC	??_R2CTreeCtrl@@8				; CTreeCtrl::`RTTI Base Class Array'
PUBLIC	??_R1A@?0A@EA@CTreeCtrl@@8			; CTreeCtrl::`RTTI Base Class Descriptor at (0,-1,0,64)'
PUBLIC	??_7CDlgEnvSetup4@@6B@				; CDlgEnvSetup4::`vftable'
PUBLIC	??_R4CDlgEnvSetup4@@6B@				; CDlgEnvSetup4::`RTTI Complete Object Locator'
PUBLIC	??_R0?AVCDlgEnvSetup4@@@8			; CDlgEnvSetup4 `RTTI Type Descriptor'
PUBLIC	??_R3CDlgEnvSetup4@@8				; CDlgEnvSetup4::`RTTI Class Hierarchy Descriptor'
PUBLIC	??_R2CDlgEnvSetup4@@8				; CDlgEnvSetup4::`RTTI Base Class Array'
PUBLIC	??_R1A@?0A@EA@CDlgEnvSetup4@@8			; CDlgEnvSetup4::`RTTI Base Class Descriptor at (0,-1,0,64)'
EXTRN	??3@YAXPAX@Z:PROC				; operator delete
EXTRN	?__global_delete@@YAXPAXI@Z:PROC		; __global_delete
EXTRN	??_U@YAPAXI@Z:PROC				; operator new[]
EXTRN	??_V@YAXPAX@Z:PROC				; operator delete[]
EXTRN	__imp___invalid_parameter_noinfo:PROC
EXTRN	__imp___errno:PROC
EXTRN	__imp__CreateSolidBrush@4:PROC
EXTRN	__imp__SendMessageA@16:PROC
EXTRN	__imp__EnableWindow@8:PROC
EXTRN	?AfxThrowMemoryException@@YGXXZ:PROC		; AfxThrowMemoryException
EXTRN	?AfxThrowInvalidArgException@@YGXXZ:PROC	; AfxThrowInvalidArgException
EXTRN	__imp_??0?$CStringT@DV?$StrTraitMFC_DLL@DV?$ChTraitsCRT@D@ATL@@@@@ATL@@QAE@XZ:PROC
EXTRN	__imp_??1?$CStringT@DV?$StrTraitMFC_DLL@DV?$ChTraitsCRT@D@ATL@@@@@ATL@@QAE@XZ:PROC
EXTRN	__imp_??4?$CStringT@DV?$StrTraitMFC_DLL@DV?$ChTraitsCRT@D@ATL@@@@@ATL@@QAEAAV01@ABV01@@Z:PROC
EXTRN	__imp_?Format@?$CStringT@DV?$StrTraitMFC_DLL@DV?$ChTraitsCRT@D@ATL@@@@@ATL@@QAAXPBDZZ:PROC
EXTRN	?GetRuntimeClass@CGdiObject@@UBEPAUCRuntimeClass@@XZ:PROC ; CGdiObject::GetRuntimeClass
EXTRN	?Attach@CGdiObject@@QAEHPAX@Z:PROC		; CGdiObject::Attach
EXTRN	?DeleteObject@CGdiObject@@QAEHXZ:PROC		; CGdiObject::DeleteObject
EXTRN	??_ECGdiObject@@UAEPAXI@Z:PROC			; CGdiObject::`vector deleting destructor'
EXTRN	?GetRuntimeClass@CBrush@@UBEPAUCRuntimeClass@@XZ:PROC ; CBrush::GetRuntimeClass
EXTRN	??_ECBrush@@UAEPAXI@Z:PROC			; CBrush::`vector deleting destructor'
EXTRN	?DDX_Control@@YGXPAVCDataExchange@@HAAVCWnd@@@Z:PROC ; DDX_Control
EXTRN	?OnCmdMsg@CCmdTarget@@UAEHIHPAXPAUAFX_CMDHANDLERINFO@@@Z:PROC ; CCmdTarget::OnCmdMsg
EXTRN	?IsInvokeAllowed@CCmdTarget@@UAEHJ@Z:PROC	; CCmdTarget::IsInvokeAllowed
EXTRN	?GetDispatchIID@CCmdTarget@@UAEHPAU_GUID@@@Z:PROC ; CCmdTarget::GetDispatchIID
EXTRN	?GetTypeInfoCount@CCmdTarget@@UAEIXZ:PROC	; CCmdTarget::GetTypeInfoCount
EXTRN	?GetTypeLibCache@CCmdTarget@@UAEPAVCTypeLibCache@@XZ:PROC ; CCmdTarget::GetTypeLibCache
EXTRN	?GetTypeLib@CCmdTarget@@UAEJKPAPAUITypeLib@@@Z:PROC ; CCmdTarget::GetTypeLib
EXTRN	?GetCommandMap@CCmdTarget@@MBEPBUAFX_OLECMDMAP@@XZ:PROC ; CCmdTarget::GetCommandMap
EXTRN	?GetDispatchMap@CCmdTarget@@MBEPBUAFX_DISPMAP@@XZ:PROC ; CCmdTarget::GetDispatchMap
EXTRN	?GetConnectionMap@CCmdTarget@@MBEPBUAFX_CONNECTIONMAP@@XZ:PROC ; CCmdTarget::GetConnectionMap
EXTRN	?GetEventSinkMap@CCmdTarget@@MBEPBUAFX_EVENTSINKMAP@@XZ:PROC ; CCmdTarget::GetEventSinkMap
EXTRN	?OnCreateAggregates@CCmdTarget@@UAEHXZ:PROC	; CCmdTarget::OnCreateAggregates
EXTRN	?GetInterfaceHook@CCmdTarget@@UAEPAUIUnknown@@PBX@Z:PROC ; CCmdTarget::GetInterfaceHook
EXTRN	?GetExtraConnectionPoints@CCmdTarget@@MAEHPAVCPtrArray@@@Z:PROC ; CCmdTarget::GetExtraConnectionPoints
EXTRN	?GetConnectionHook@CCmdTarget@@MAEPAUIConnectionPoint@@ABU_GUID@@@Z:PROC ; CCmdTarget::GetConnectionHook
EXTRN	?ModifyStyle@CWnd@@QAEHKKI@Z:PROC		; CWnd::ModifyStyle
EXTRN	??0CWnd@@QAE@XZ:PROC				; CWnd::CWnd
EXTRN	?PreSubclassWindow@CWnd@@UAEXXZ:PROC		; CWnd::PreSubclassWindow
EXTRN	?Create@CWnd@@UAEHPBD0KABUtagRECT@@PAV1@IPAUCCreateContext@@@Z:PROC ; CWnd::Create
EXTRN	?CreateEx@CWnd@@UAEHKPBD0KHHHHPAUHWND__@@PAUHMENU__@@PAX@Z:PROC ; CWnd::CreateEx
EXTRN	?CreateEx@CWnd@@UAEHKPBD0KABUtagRECT@@PAV1@IPAX@Z:PROC ; CWnd::CreateEx
EXTRN	?DestroyWindow@CWnd@@UAEHXZ:PROC		; CWnd::DestroyWindow
EXTRN	?PreCreateWindow@CWnd@@UAEHAAUtagCREATESTRUCTA@@@Z:PROC ; CWnd::PreCreateWindow
EXTRN	?CalcWindowRect@CWnd@@UAEXPAUtagRECT@@I@Z:PROC	; CWnd::CalcWindowRect
EXTRN	?GetMenu@CWnd@@UBEPAVCMenu@@XZ:PROC		; CWnd::GetMenu
EXTRN	?SetMenu@CWnd@@UAEHPAVCMenu@@@Z:PROC		; CWnd::SetMenu
EXTRN	?OnToolHitTest@CWnd@@UBEHVCPoint@@PAUtagTOOLINFOA@@@Z:PROC ; CWnd::OnToolHitTest
EXTRN	?GetScrollBarCtrl@CWnd@@UBEPAVCScrollBar@@H@Z:PROC ; CWnd::GetScrollBarCtrl
EXTRN	?UpdateData@CWnd@@QAEHH@Z:PROC			; CWnd::UpdateData
EXTRN	?WinHelpA@CWnd@@UAEXKI@Z:PROC			; CWnd::WinHelpA
EXTRN	?HtmlHelpA@CWnd@@UAEXKI@Z:PROC			; CWnd::HtmlHelpA
EXTRN	?WinHelpInternal@CWnd@@UAEXKI@Z:PROC		; CWnd::WinHelpInternal
EXTRN	?ContinueModal@CWnd@@UAEHXZ:PROC		; CWnd::ContinueModal
EXTRN	?EndModalLoop@CWnd@@UAEXH@Z:PROC		; CWnd::EndModalLoop
EXTRN	?OnDrawIconicThumbnailOrLivePreview@CWnd@@UAEXAAVCDC@@VCRect@@VCSize@@HAAH@Z:PROC ; CWnd::OnDrawIconicThumbnailOrLivePreview
EXTRN	?GetInterfaceMap@CWnd@@MBEPBUAFX_INTERFACEMAP@@XZ:PROC ; CWnd::GetInterfaceMap
EXTRN	?EnsureStdObj@CWnd@@UAEJXZ:PROC			; CWnd::EnsureStdObj
EXTRN	?get_accParent@CWnd@@UAEJPAPAUIDispatch@@@Z:PROC ; CWnd::get_accParent
EXTRN	?get_accChildCount@CWnd@@UAEJPAJ@Z:PROC		; CWnd::get_accChildCount
EXTRN	?get_accChild@CWnd@@UAEJUtagVARIANT@@PAPAUIDispatch@@@Z:PROC ; CWnd::get_accChild
EXTRN	?get_accName@CWnd@@UAEJUtagVARIANT@@PAPA_W@Z:PROC ; CWnd::get_accName
EXTRN	?get_accValue@CWnd@@UAEJUtagVARIANT@@PAPA_W@Z:PROC ; CWnd::get_accValue
EXTRN	?get_accDescription@CWnd@@UAEJUtagVARIANT@@PAPA_W@Z:PROC ; CWnd::get_accDescription
EXTRN	?get_accRole@CWnd@@UAEJUtagVARIANT@@PAU2@@Z:PROC ; CWnd::get_accRole
EXTRN	?get_accState@CWnd@@UAEJUtagVARIANT@@PAU2@@Z:PROC ; CWnd::get_accState
EXTRN	?get_accHelp@CWnd@@UAEJUtagVARIANT@@PAPA_W@Z:PROC ; CWnd::get_accHelp
EXTRN	?get_accHelpTopic@CWnd@@UAEJPAPA_WUtagVARIANT@@PAJ@Z:PROC ; CWnd::get_accHelpTopic
EXTRN	?get_accKeyboardShortcut@CWnd@@UAEJUtagVARIANT@@PAPA_W@Z:PROC ; CWnd::get_accKeyboardShortcut
EXTRN	?get_accFocus@CWnd@@UAEJPAUtagVARIANT@@@Z:PROC	; CWnd::get_accFocus
EXTRN	?get_accSelection@CWnd@@UAEJPAUtagVARIANT@@@Z:PROC ; CWnd::get_accSelection
EXTRN	?get_accDefaultAction@CWnd@@UAEJUtagVARIANT@@PAPA_W@Z:PROC ; CWnd::get_accDefaultAction
EXTRN	?accSelect@CWnd@@UAEJJUtagVARIANT@@@Z:PROC	; CWnd::accSelect
EXTRN	?accLocation@CWnd@@UAEJPAJ000UtagVARIANT@@@Z:PROC ; CWnd::accLocation
EXTRN	?accNavigate@CWnd@@UAEJJUtagVARIANT@@PAU2@@Z:PROC ; CWnd::accNavigate
EXTRN	?accHitTest@CWnd@@UAEJJJPAUtagVARIANT@@@Z:PROC	; CWnd::accHitTest
EXTRN	?accDoDefaultAction@CWnd@@UAEJUtagVARIANT@@@Z:PROC ; CWnd::accDoDefaultAction
EXTRN	?put_accName@CWnd@@UAEJUtagVARIANT@@PA_W@Z:PROC	; CWnd::put_accName
EXTRN	?put_accValue@CWnd@@UAEJUtagVARIANT@@PA_W@Z:PROC ; CWnd::put_accValue
EXTRN	?SetProxy@CWnd@@UAEJPAUIAccessibleProxy@@@Z:PROC ; CWnd::SetProxy
EXTRN	?CreateAccessibleProxy@CWnd@@UAEJIJPAJ@Z:PROC	; CWnd::CreateAccessibleProxy
EXTRN	?OnCommand@CWnd@@MAEHIJ@Z:PROC			; CWnd::OnCommand
EXTRN	?OnNotify@CWnd@@MAEHIJPAJ@Z:PROC		; CWnd::OnNotify
EXTRN	?OnCtlColor@CWnd@@IAEPAUHBRUSH__@@PAVCDC@@PAV1@I@Z:PROC ; CWnd::OnCtlColor
EXTRN	?OnDestroy@CWnd@@IAEXXZ:PROC			; CWnd::OnDestroy
EXTRN	?GetSuperWndProcAddr@CWnd@@MAEPAP6GJPAUHWND__@@IIJ@ZXZ:PROC ; CWnd::GetSuperWndProcAddr
EXTRN	?PreTranslateMessage@CWnd@@UAEHPAUtagMSG@@@Z:PROC ; CWnd::PreTranslateMessage
EXTRN	?OnAmbientProperty@CWnd@@UAEHPAVCOleControlSite@@JPAUtagVARIANT@@@Z:PROC ; CWnd::OnAmbientProperty
EXTRN	?WindowProc@CWnd@@MAEJIIJ@Z:PROC		; CWnd::WindowProc
EXTRN	?OnWndMsg@CWnd@@MAEHIIJPAJ@Z:PROC		; CWnd::OnWndMsg
EXTRN	?DefWindowProcA@CWnd@@MAEJIIJ@Z:PROC		; CWnd::DefWindowProcA
EXTRN	?PostNcDestroy@CWnd@@MAEXXZ:PROC		; CWnd::PostNcDestroy
EXTRN	?OnChildNotify@CWnd@@MAEHIIJPAJ@Z:PROC		; CWnd::OnChildNotify
EXTRN	?OnTouchInputs@CWnd@@MAEHIPAUtagTOUCHINPUT@@@Z:PROC ; CWnd::OnTouchInputs
EXTRN	?OnTouchInput@CWnd@@MAEHVCPoint@@HHPAUtagTOUCHINPUT@@@Z:PROC ; CWnd::OnTouchInput
EXTRN	?GetGestureStatus@CWnd@@MAEKVCPoint@@@Z:PROC	; CWnd::GetGestureStatus
EXTRN	?OnGestureZoom@CWnd@@MAEHVCPoint@@J@Z:PROC	; CWnd::OnGestureZoom
EXTRN	?OnGesturePan@CWnd@@MAEHVCPoint@@0@Z:PROC	; CWnd::OnGesturePan
EXTRN	?OnGestureRotate@CWnd@@MAEHVCPoint@@N@Z:PROC	; CWnd::OnGestureRotate
EXTRN	?OnGestureTwoFingerTap@CWnd@@MAEHVCPoint@@@Z:PROC ; CWnd::OnGestureTwoFingerTap
EXTRN	?OnGesturePressAndTap@CWnd@@MAEHVCPoint@@J@Z:PROC ; CWnd::OnGesturePressAndTap
EXTRN	?ResizeDynamicLayout@CWnd@@MAEXXZ:PROC		; CWnd::ResizeDynamicLayout
EXTRN	?CheckAutoCenter@CWnd@@UAEHXZ:PROC		; CWnd::CheckAutoCenter
EXTRN	?IsFrameWnd@CWnd@@UBEHXZ:PROC			; CWnd::IsFrameWnd
EXTRN	?OnFinalRelease@CWnd@@UAEXXZ:PROC		; CWnd::OnFinalRelease
EXTRN	?CreateControlContainer@CWnd@@MAEHPAPAVCOleControlContainer@@@Z:PROC ; CWnd::CreateControlContainer
EXTRN	?CreateControlSite@CWnd@@MAEHPAVCOleControlContainer@@PAPAVCOleControlSite@@IABU_GUID@@@Z:PROC ; CWnd::CreateControlSite
EXTRN	?SetOccDialogInfo@CWnd@@MAEHPAU_AFX_OCC_DIALOG_INFO@@@Z:PROC ; CWnd::SetOccDialogInfo
EXTRN	?GetOccDialogInfo@CWnd@@MAEPAU_AFX_OCC_DIALOG_INFO@@XZ:PROC ; CWnd::GetOccDialogInfo
EXTRN	?GetMessageMap@CWnd@@MBEPBUAFX_MSGMAP@@XZ:PROC	; CWnd::GetMessageMap
EXTRN	?GetRuntimeClass@CDialog@@UBEPAUCRuntimeClass@@XZ:PROC ; CDialog::GetRuntimeClass
EXTRN	?Create@CDialog@@UAEHPBDPAVCWnd@@@Z:PROC	; CDialog::Create
EXTRN	?CreateIndirect@CDialog@@UAEHPBUDLGTEMPLATE@@PAVCWnd@@PAX@Z:PROC ; CDialog::CreateIndirect
EXTRN	?CreateIndirect@CDialog@@UAEHPAXPAVCWnd@@@Z:PROC ; CDialog::CreateIndirect
EXTRN	??0CDialog@@QAE@IPAVCWnd@@@Z:PROC		; CDialog::CDialog
EXTRN	?DoModal@CDialog@@UAEHXZ:PROC			; CDialog::DoModal
EXTRN	?OnInitDialog@CDialog@@UAEHXZ:PROC		; CDialog::OnInitDialog
EXTRN	?OnSetFont@CDialog@@UAEXPAVCFont@@@Z:PROC	; CDialog::OnSetFont
EXTRN	?OnCancel@CDialog@@MAEXXZ:PROC			; CDialog::OnCancel
EXTRN	??1CDialog@@UAE@XZ:PROC				; CDialog::~CDialog
EXTRN	?PreTranslateMessage@CDialog@@UAEHPAUtagMSG@@@Z:PROC ; CDialog::PreTranslateMessage
EXTRN	?OnCmdMsg@CDialog@@UAEHIHPAXPAUAFX_CMDHANDLERINFO@@@Z:PROC ; CDialog::OnCmdMsg
EXTRN	?CheckAutoCenter@CDialog@@UAEHXZ:PROC		; CDialog::CheckAutoCenter
EXTRN	?SetOccDialogInfo@CDialog@@MAEHPAU_AFX_OCC_DIALOG_INFO@@@Z:PROC ; CDialog::SetOccDialogInfo
EXTRN	?GetOccDialogInfo@CDialog@@MAEPAU_AFX_OCC_DIALOG_INFO@@XZ:PROC ; CDialog::GetOccDialogInfo
EXTRN	?PreInitDialog@CDialog@@MAEXXZ:PROC		; CDialog::PreInitDialog
EXTRN	?GetThisMessageMap@CDialog@@KGPBUAFX_MSGMAP@@XZ:PROC ; CDialog::GetThisMessageMap
EXTRN	?GetRuntimeClass@CButton@@UBEPAUCRuntimeClass@@XZ:PROC ; CButton::GetRuntimeClass
EXTRN	?Create@CButton@@UAEHPBDKABUtagRECT@@PAVCWnd@@I@Z:PROC ; CButton::Create
EXTRN	?DrawItem@CButton@@UAEXPAUtagDRAWITEMSTRUCT@@@Z:PROC ; CButton::DrawItem
EXTRN	??1CButton@@UAE@XZ:PROC				; CButton::~CButton
EXTRN	?OnChildNotify@CButton@@MAEHIIJPAJ@Z:PROC	; CButton::OnChildNotify
EXTRN	??_ECButton@@UAEPAXI@Z:PROC			; CButton::`vector deleting destructor'
EXTRN	?AfxMessageBox@@YGHPBDII@Z:PROC			; AfxMessageBox
EXTRN	?GetRuntimeClass@CTreeCtrl@@UBEPAUCRuntimeClass@@XZ:PROC ; CTreeCtrl::GetRuntimeClass
EXTRN	?SetItem@CTreeCtrl@@QAEHPAU_TREEITEM@@IPBDHHIIJ@Z:PROC ; CTreeCtrl::SetItem
EXTRN	?GetCheck@CTreeCtrl@@QBEHPAU_TREEITEM@@@Z:PROC	; CTreeCtrl::GetCheck
EXTRN	?SetCheck@CTreeCtrl@@QAEHPAU_TREEITEM@@H@Z:PROC	; CTreeCtrl::SetCheck
EXTRN	?InsertItem@CTreeCtrl@@QAEPAU_TREEITEM@@IPBDHHIIJPAU2@1@Z:PROC ; CTreeCtrl::InsertItem
EXTRN	??1CTreeCtrl@@UAE@XZ:PROC			; CTreeCtrl::~CTreeCtrl
EXTRN	?GetMessageMap@CTreeCtrl@@MBEPBUAFX_MSGMAP@@XZ:PROC ; CTreeCtrl::GetMessageMap
EXTRN	??_ECTreeCtrl@@UAEPAXI@Z:PROC			; CTreeCtrl::`vector deleting destructor'
EXTRN	?IsDisplayCandle@CPatternEnvData@@QAEHH@Z:PROC	; CPatternEnvData::IsDisplayCandle
EXTRN	??_ECDlgEnvSetup4@@UAEPAXI@Z:PROC		; CDlgEnvSetup4::`vector deleting destructor'
EXTRN	??0CCandlePattern@@QAE@XZ:PROC			; CCandlePattern::CCandlePattern
EXTRN	??1CCandlePattern@@UAE@XZ:PROC			; CCandlePattern::~CCandlePattern
EXTRN	?GetCandlePatternName@CCandlePattern@@QAE?AV?$CStringT@DV?$StrTraitMFC_DLL@DV?$ChTraitsCRT@D@ATL@@@@@ATL@@H@Z:PROC ; CCandlePattern::GetCandlePatternName
EXTRN	@__security_check_cookie@4:PROC
EXTRN	___CxxFrameHandler3:PROC
EXTRN	_memcpy:PROC
EXTRN	_memset:PROC
EXTRN	??_7type_info@@6B@:QWORD			; type_info::`vftable'
EXTRN	___security_cookie:DWORD
;	COMDAT ??_R1A@?0A@EA@CDlgEnvSetup4@@8
rdata$r	SEGMENT
??_R1A@?0A@EA@CDlgEnvSetup4@@8 DD FLAT:??_R0?AVCDlgEnvSetup4@@@8 ; CDlgEnvSetup4::`RTTI Base Class Descriptor at (0,-1,0,64)'
	DD	04H
	DD	00H
	DD	0ffffffffH
	DD	00H
	DD	040H
	DD	FLAT:??_R3CDlgEnvSetup4@@8
rdata$r	ENDS
;	COMDAT ??_R2CDlgEnvSetup4@@8
rdata$r	SEGMENT
??_R2CDlgEnvSetup4@@8 DD FLAT:??_R1A@?0A@EA@CDlgEnvSetup4@@8 ; CDlgEnvSetup4::`RTTI Base Class Array'
	DD	FLAT:??_R1A@?0A@EA@CDialog@@8
	DD	FLAT:??_R1A@?0A@EA@CWnd@@8
	DD	FLAT:??_R1A@?0A@EA@CCmdTarget@@8
	DD	FLAT:??_R1A@?0A@EA@CObject@@8
rdata$r	ENDS
;	COMDAT ??_R3CDlgEnvSetup4@@8
rdata$r	SEGMENT
??_R3CDlgEnvSetup4@@8 DD 00H				; CDlgEnvSetup4::`RTTI Class Hierarchy Descriptor'
	DD	00H
	DD	05H
	DD	FLAT:??_R2CDlgEnvSetup4@@8
rdata$r	ENDS
;	COMDAT ??_R0?AVCDlgEnvSetup4@@@8
data$rs	SEGMENT
??_R0?AVCDlgEnvSetup4@@@8 DD FLAT:??_7type_info@@6B@	; CDlgEnvSetup4 `RTTI Type Descriptor'
	DD	00H
	DB	'.?AVCDlgEnvSetup4@@', 00H
data$rs	ENDS
;	COMDAT ??_R4CDlgEnvSetup4@@6B@
rdata$r	SEGMENT
??_R4CDlgEnvSetup4@@6B@ DD 00H				; CDlgEnvSetup4::`RTTI Complete Object Locator'
	DD	00H
	DD	00H
	DD	FLAT:??_R0?AVCDlgEnvSetup4@@@8
	DD	FLAT:??_R3CDlgEnvSetup4@@8
rdata$r	ENDS
;	COMDAT ?messageMap@?1??GetThisMessageMap@CDlgEnvSetup4@@KGPBUAFX_MSGMAP@@XZ@4U3@B
CONST	SEGMENT
?messageMap@?1??GetThisMessageMap@CDlgEnvSetup4@@KGPBUAFX_MSGMAP@@XZ@4U3@B DD FLAT:?GetThisMessageMap@CDialog@@KGPBUAFX_MSGMAP@@XZ ; `CDlgEnvSetup4::GetThisMessageMap'::`2'::messageMap
	DD	FLAT:?_messageEntries@?1??GetThisMessageMap@CDlgEnvSetup4@@KGPBUAFX_MSGMAP@@XZ@4QBUAFX_MSGMAP_ENTRY@@B
CONST	ENDS
;	COMDAT ?_messageEntries@?1??GetThisMessageMap@CDlgEnvSetup4@@KGPBUAFX_MSGMAP@@XZ@4QBUAFX_MSGMAP_ENTRY@@B
CONST	SEGMENT
?_messageEntries@?1??GetThisMessageMap@CDlgEnvSetup4@@KGPBUAFX_MSGMAP@@XZ@4QBUAFX_MSGMAP_ENTRY@@B DD 019H ; `CDlgEnvSetup4::GetThisMessageMap'::`2'::_messageEntries
	DD	00H
	DD	00H
	DD	00H
	DD	08H
	DD	FLAT:?OnCtlColor@CDlgEnvSetup4@@IAEPAUHBRUSH__@@PAVCDC@@PAVCWnd@@I@Z
	DD	02H
	DD	00H
	DD	00H
	DD	00H
	DD	013H
	DD	FLAT:?OnDestroy@CDlgEnvSetup4@@IAEXXZ
	DD	0111H
	DD	00H
	DD	07f2H
	DD	07f2H
	DD	03aH
	DD	FLAT:?OnButtonAllcheck@CDlgEnvSetup4@@IAEXXZ
	DD	0111H
	DD	00H
	DD	07f3H
	DD	07f3H
	DD	03aH
	DD	FLAT:?OnButtonAlluncheck@CDlgEnvSetup4@@IAEXXZ
	DD	00H
	DD	00H
	DD	00H
	DD	00H
	DD	00H
	DD	00H
CONST	ENDS
;	COMDAT ??_7CDlgEnvSetup4@@6B@
CONST	SEGMENT
??_7CDlgEnvSetup4@@6B@ DD FLAT:??_R4CDlgEnvSetup4@@6B@	; CDlgEnvSetup4::`vftable'
	DD	FLAT:?GetRuntimeClass@CDialog@@UBEPAUCRuntimeClass@@XZ
	DD	FLAT:??_ECDlgEnvSetup4@@UAEPAXI@Z
	DD	FLAT:?Serialize@CObject@@UAEXAAVCArchive@@@Z
	DD	FLAT:?AssertValid@CObject@@UBEXXZ
	DD	FLAT:?Dump@CObject@@UBEXAAVCDumpContext@@@Z
	DD	FLAT:?OnCmdMsg@CDialog@@UAEHIHPAXPAUAFX_CMDHANDLERINFO@@@Z
	DD	FLAT:?OnFinalRelease@CWnd@@UAEXXZ
	DD	FLAT:?IsInvokeAllowed@CCmdTarget@@UAEHJ@Z
	DD	FLAT:?GetDispatchIID@CCmdTarget@@UAEHPAU_GUID@@@Z
	DD	FLAT:?GetTypeInfoCount@CCmdTarget@@UAEIXZ
	DD	FLAT:?GetTypeLibCache@CCmdTarget@@UAEPAVCTypeLibCache@@XZ
	DD	FLAT:?GetTypeLib@CCmdTarget@@UAEJKPAPAUITypeLib@@@Z
	DD	FLAT:?GetMessageMap@CDlgEnvSetup4@@MBEPBUAFX_MSGMAP@@XZ
	DD	FLAT:?GetCommandMap@CCmdTarget@@MBEPBUAFX_OLECMDMAP@@XZ
	DD	FLAT:?GetDispatchMap@CCmdTarget@@MBEPBUAFX_DISPMAP@@XZ
	DD	FLAT:?GetConnectionMap@CCmdTarget@@MBEPBUAFX_CONNECTIONMAP@@XZ
	DD	FLAT:?GetInterfaceMap@CWnd@@MBEPBUAFX_INTERFACEMAP@@XZ
	DD	FLAT:?GetEventSinkMap@CCmdTarget@@MBEPBUAFX_EVENTSINKMAP@@XZ
	DD	FLAT:?OnCreateAggregates@CCmdTarget@@UAEHXZ
	DD	FLAT:?GetInterfaceHook@CCmdTarget@@UAEPAUIUnknown@@PBX@Z
	DD	FLAT:?GetExtraConnectionPoints@CCmdTarget@@MAEHPAVCPtrArray@@@Z
	DD	FLAT:?GetConnectionHook@CCmdTarget@@MAEPAUIConnectionPoint@@ABU_GUID@@@Z
	DD	FLAT:?PreSubclassWindow@CWnd@@UAEXXZ
	DD	FLAT:?Create@CWnd@@UAEHPBD0KABUtagRECT@@PAV1@IPAUCCreateContext@@@Z
	DD	FLAT:?CreateEx@CWnd@@UAEHKPBD0KABUtagRECT@@PAV1@IPAX@Z
	DD	FLAT:?CreateEx@CWnd@@UAEHKPBD0KHHHHPAUHWND__@@PAUHMENU__@@PAX@Z
	DD	FLAT:?DestroyWindow@CWnd@@UAEHXZ
	DD	FLAT:?PreCreateWindow@CWnd@@UAEHAAUtagCREATESTRUCTA@@@Z
	DD	FLAT:?CalcWindowRect@CWnd@@UAEXPAUtagRECT@@I@Z
	DD	FLAT:?GetMenu@CWnd@@UBEPAVCMenu@@XZ
	DD	FLAT:?SetMenu@CWnd@@UAEHPAVCMenu@@@Z
	DD	FLAT:?OnToolHitTest@CWnd@@UBEHVCPoint@@PAUtagTOOLINFOA@@@Z
	DD	FLAT:?GetScrollBarCtrl@CWnd@@UBEPAVCScrollBar@@H@Z
	DD	FLAT:?WinHelpA@CWnd@@UAEXKI@Z
	DD	FLAT:?HtmlHelpA@CWnd@@UAEXKI@Z
	DD	FLAT:?WinHelpInternal@CWnd@@UAEXKI@Z
	DD	FLAT:?ContinueModal@CWnd@@UAEHXZ
	DD	FLAT:?EndModalLoop@CWnd@@UAEXH@Z
	DD	FLAT:?OnDrawIconicThumbnailOrLivePreview@CWnd@@UAEXAAVCDC@@VCRect@@VCSize@@HAAH@Z
	DD	FLAT:?EnsureStdObj@CWnd@@UAEJXZ
	DD	FLAT:?get_accParent@CWnd@@UAEJPAPAUIDispatch@@@Z
	DD	FLAT:?get_accChildCount@CWnd@@UAEJPAJ@Z
	DD	FLAT:?get_accChild@CWnd@@UAEJUtagVARIANT@@PAPAUIDispatch@@@Z
	DD	FLAT:?get_accName@CWnd@@UAEJUtagVARIANT@@PAPA_W@Z
	DD	FLAT:?get_accValue@CWnd@@UAEJUtagVARIANT@@PAPA_W@Z
	DD	FLAT:?get_accDescription@CWnd@@UAEJUtagVARIANT@@PAPA_W@Z
	DD	FLAT:?get_accRole@CWnd@@UAEJUtagVARIANT@@PAU2@@Z
	DD	FLAT:?get_accState@CWnd@@UAEJUtagVARIANT@@PAU2@@Z
	DD	FLAT:?get_accHelp@CWnd@@UAEJUtagVARIANT@@PAPA_W@Z
	DD	FLAT:?get_accHelpTopic@CWnd@@UAEJPAPA_WUtagVARIANT@@PAJ@Z
	DD	FLAT:?get_accKeyboardShortcut@CWnd@@UAEJUtagVARIANT@@PAPA_W@Z
	DD	FLAT:?get_accFocus@CWnd@@UAEJPAUtagVARIANT@@@Z
	DD	FLAT:?get_accSelection@CWnd@@UAEJPAUtagVARIANT@@@Z
	DD	FLAT:?get_accDefaultAction@CWnd@@UAEJUtagVARIANT@@PAPA_W@Z
	DD	FLAT:?accSelect@CWnd@@UAEJJUtagVARIANT@@@Z
	DD	FLAT:?accLocation@CWnd@@UAEJPAJ000UtagVARIANT@@@Z
	DD	FLAT:?accNavigate@CWnd@@UAEJJUtagVARIANT@@PAU2@@Z
	DD	FLAT:?accHitTest@CWnd@@UAEJJJPAUtagVARIANT@@@Z
	DD	FLAT:?accDoDefaultAction@CWnd@@UAEJUtagVARIANT@@@Z
	DD	FLAT:?put_accName@CWnd@@UAEJUtagVARIANT@@PA_W@Z
	DD	FLAT:?put_accValue@CWnd@@UAEJUtagVARIANT@@PA_W@Z
	DD	FLAT:?SetProxy@CWnd@@UAEJPAUIAccessibleProxy@@@Z
	DD	FLAT:?CreateAccessibleProxy@CWnd@@UAEJIJPAJ@Z
	DD	FLAT:?OnCommand@CWnd@@MAEHIJ@Z
	DD	FLAT:?OnNotify@CWnd@@MAEHIJPAJ@Z
	DD	FLAT:?GetSuperWndProcAddr@CWnd@@MAEPAP6GJPAUHWND__@@IIJ@ZXZ
	DD	FLAT:?DoDataExchange@CDlgEnvSetup4@@MAEXPAVCDataExchange@@@Z
	DD	FLAT:?BeginModalState@CWnd@@UAEXXZ
	DD	FLAT:?EndModalState@CWnd@@UAEXXZ
	DD	FLAT:?PreTranslateMessage@CDialog@@UAEHPAUtagMSG@@@Z
	DD	FLAT:?OnAmbientProperty@CWnd@@UAEHPAVCOleControlSite@@JPAUtagVARIANT@@@Z
	DD	FLAT:?WindowProc@CDlgEnvSetup4@@MAEJIIJ@Z
	DD	FLAT:?OnWndMsg@CWnd@@MAEHIIJPAJ@Z
	DD	FLAT:?DefWindowProcA@CWnd@@MAEJIIJ@Z
	DD	FLAT:?PostNcDestroy@CWnd@@MAEXXZ
	DD	FLAT:?OnChildNotify@CWnd@@MAEHIIJPAJ@Z
	DD	FLAT:?OnTouchInputs@CWnd@@MAEHIPAUtagTOUCHINPUT@@@Z
	DD	FLAT:?OnTouchInput@CWnd@@MAEHVCPoint@@HHPAUtagTOUCHINPUT@@@Z
	DD	FLAT:?GetGestureStatus@CWnd@@MAEKVCPoint@@@Z
	DD	FLAT:?OnGestureZoom@CWnd@@MAEHVCPoint@@J@Z
	DD	FLAT:?OnGesturePan@CWnd@@MAEHVCPoint@@0@Z
	DD	FLAT:?OnGestureRotate@CWnd@@MAEHVCPoint@@N@Z
	DD	FLAT:?OnGestureTwoFingerTap@CWnd@@MAEHVCPoint@@@Z
	DD	FLAT:?OnGesturePressAndTap@CWnd@@MAEHVCPoint@@J@Z
	DD	FLAT:?ResizeDynamicLayout@CWnd@@MAEXXZ
	DD	FLAT:?CheckAutoCenter@CDialog@@UAEHXZ
	DD	FLAT:?IsFrameWnd@CWnd@@UBEHXZ
	DD	FLAT:?CreateControlContainer@CWnd@@MAEHPAPAVCOleControlContainer@@@Z
	DD	FLAT:?CreateControlSite@CWnd@@MAEHPAVCOleControlContainer@@PAPAVCOleControlSite@@IABU_GUID@@@Z
	DD	FLAT:?SetOccDialogInfo@CDialog@@MAEHPAU_AFX_OCC_DIALOG_INFO@@@Z
	DD	FLAT:?GetOccDialogInfo@CDialog@@MAEPAU_AFX_OCC_DIALOG_INFO@@XZ
	DD	FLAT:?Create@CDialog@@UAEHIPAVCWnd@@@Z
	DD	FLAT:?Create@CDialog@@UAEHPBDPAVCWnd@@@Z
	DD	FLAT:?CreateIndirect@CDialog@@UAEHPAXPAVCWnd@@@Z
	DD	FLAT:?CreateIndirect@CDialog@@UAEHPBUDLGTEMPLATE@@PAVCWnd@@PAX@Z
	DD	FLAT:?DoModal@CDialog@@UAEHXZ
	DD	FLAT:?OnInitDialog@CDlgEnvSetup4@@MAEHXZ
	DD	FLAT:?OnSetFont@CDialog@@UAEXPAVCFont@@@Z
	DD	FLAT:?OnOK@CDlgEnvSetup4@@UAEXXZ
	DD	FLAT:?OnCancel@CDialog@@MAEXXZ
	DD	FLAT:?PreInitDialog@CDialog@@MAEXXZ
CONST	ENDS
;	COMDAT ??_R1A@?0A@EA@CTreeCtrl@@8
rdata$r	SEGMENT
??_R1A@?0A@EA@CTreeCtrl@@8 DD FLAT:??_R0?AVCTreeCtrl@@@8 ; CTreeCtrl::`RTTI Base Class Descriptor at (0,-1,0,64)'
	DD	03H
	DD	00H
	DD	0ffffffffH
	DD	00H
	DD	040H
	DD	FLAT:??_R3CTreeCtrl@@8
rdata$r	ENDS
;	COMDAT ??_R2CTreeCtrl@@8
rdata$r	SEGMENT
??_R2CTreeCtrl@@8 DD FLAT:??_R1A@?0A@EA@CTreeCtrl@@8	; CTreeCtrl::`RTTI Base Class Array'
	DD	FLAT:??_R1A@?0A@EA@CWnd@@8
	DD	FLAT:??_R1A@?0A@EA@CCmdTarget@@8
	DD	FLAT:??_R1A@?0A@EA@CObject@@8
rdata$r	ENDS
;	COMDAT ??_R3CTreeCtrl@@8
rdata$r	SEGMENT
??_R3CTreeCtrl@@8 DD 00H				; CTreeCtrl::`RTTI Class Hierarchy Descriptor'
	DD	00H
	DD	04H
	DD	FLAT:??_R2CTreeCtrl@@8
rdata$r	ENDS
;	COMDAT ??_R0?AVCTreeCtrl@@@8
data$rs	SEGMENT
??_R0?AVCTreeCtrl@@@8 DD FLAT:??_7type_info@@6B@	; CTreeCtrl `RTTI Type Descriptor'
	DD	00H
	DB	'.?AVCTreeCtrl@@', 00H
data$rs	ENDS
;	COMDAT ??_R4CTreeCtrl@@6B@
rdata$r	SEGMENT
??_R4CTreeCtrl@@6B@ DD 00H				; CTreeCtrl::`RTTI Complete Object Locator'
	DD	00H
	DD	00H
	DD	FLAT:??_R0?AVCTreeCtrl@@@8
	DD	FLAT:??_R3CTreeCtrl@@8
rdata$r	ENDS
;	COMDAT ??_R2CDialog@@8
rdata$r	SEGMENT
??_R2CDialog@@8 DD FLAT:??_R1A@?0A@EA@CDialog@@8	; CDialog::`RTTI Base Class Array'
	DD	FLAT:??_R1A@?0A@EA@CWnd@@8
	DD	FLAT:??_R1A@?0A@EA@CCmdTarget@@8
	DD	FLAT:??_R1A@?0A@EA@CObject@@8
rdata$r	ENDS
;	COMDAT ??_R3CDialog@@8
rdata$r	SEGMENT
??_R3CDialog@@8 DD 00H					; CDialog::`RTTI Class Hierarchy Descriptor'
	DD	00H
	DD	04H
	DD	FLAT:??_R2CDialog@@8
rdata$r	ENDS
;	COMDAT ??_R0?AVCDialog@@@8
data$rs	SEGMENT
??_R0?AVCDialog@@@8 DD FLAT:??_7type_info@@6B@		; CDialog `RTTI Type Descriptor'
	DD	00H
	DB	'.?AVCDialog@@', 00H
data$rs	ENDS
;	COMDAT ??_R1A@?0A@EA@CDialog@@8
rdata$r	SEGMENT
??_R1A@?0A@EA@CDialog@@8 DD FLAT:??_R0?AVCDialog@@@8	; CDialog::`RTTI Base Class Descriptor at (0,-1,0,64)'
	DD	03H
	DD	00H
	DD	0ffffffffH
	DD	00H
	DD	040H
	DD	FLAT:??_R3CDialog@@8
rdata$r	ENDS
;	COMDAT ??_R1A@?0A@EA@CButton@@8
rdata$r	SEGMENT
??_R1A@?0A@EA@CButton@@8 DD FLAT:??_R0?AVCButton@@@8	; CButton::`RTTI Base Class Descriptor at (0,-1,0,64)'
	DD	03H
	DD	00H
	DD	0ffffffffH
	DD	00H
	DD	040H
	DD	FLAT:??_R3CButton@@8
rdata$r	ENDS
;	COMDAT ??_R2CButton@@8
rdata$r	SEGMENT
??_R2CButton@@8 DD FLAT:??_R1A@?0A@EA@CButton@@8	; CButton::`RTTI Base Class Array'
	DD	FLAT:??_R1A@?0A@EA@CWnd@@8
	DD	FLAT:??_R1A@?0A@EA@CCmdTarget@@8
	DD	FLAT:??_R1A@?0A@EA@CObject@@8
rdata$r	ENDS
;	COMDAT ??_R3CButton@@8
rdata$r	SEGMENT
??_R3CButton@@8 DD 00H					; CButton::`RTTI Class Hierarchy Descriptor'
	DD	00H
	DD	04H
	DD	FLAT:??_R2CButton@@8
rdata$r	ENDS
;	COMDAT ??_R0?AVCButton@@@8
data$rs	SEGMENT
??_R0?AVCButton@@@8 DD FLAT:??_7type_info@@6B@		; CButton `RTTI Type Descriptor'
	DD	00H
	DB	'.?AVCButton@@', 00H
data$rs	ENDS
;	COMDAT ??_R4CButton@@6B@
rdata$r	SEGMENT
??_R4CButton@@6B@ DD 00H				; CButton::`RTTI Complete Object Locator'
	DD	00H
	DD	00H
	DD	FLAT:??_R0?AVCButton@@@8
	DD	FLAT:??_R3CButton@@8
rdata$r	ENDS
;	COMDAT ??_R2CCmdTarget@@8
rdata$r	SEGMENT
??_R2CCmdTarget@@8 DD FLAT:??_R1A@?0A@EA@CCmdTarget@@8	; CCmdTarget::`RTTI Base Class Array'
	DD	FLAT:??_R1A@?0A@EA@CObject@@8
rdata$r	ENDS
;	COMDAT ??_R3CCmdTarget@@8
rdata$r	SEGMENT
??_R3CCmdTarget@@8 DD 00H				; CCmdTarget::`RTTI Class Hierarchy Descriptor'
	DD	00H
	DD	02H
	DD	FLAT:??_R2CCmdTarget@@8
rdata$r	ENDS
;	COMDAT ??_R0?AVCCmdTarget@@@8
data$rs	SEGMENT
??_R0?AVCCmdTarget@@@8 DD FLAT:??_7type_info@@6B@	; CCmdTarget `RTTI Type Descriptor'
	DD	00H
	DB	'.?AVCCmdTarget@@', 00H
data$rs	ENDS
;	COMDAT ??_R1A@?0A@EA@CCmdTarget@@8
rdata$r	SEGMENT
??_R1A@?0A@EA@CCmdTarget@@8 DD FLAT:??_R0?AVCCmdTarget@@@8 ; CCmdTarget::`RTTI Base Class Descriptor at (0,-1,0,64)'
	DD	01H
	DD	00H
	DD	0ffffffffH
	DD	00H
	DD	040H
	DD	FLAT:??_R3CCmdTarget@@8
rdata$r	ENDS
;	COMDAT ??_R2CWnd@@8
rdata$r	SEGMENT
??_R2CWnd@@8 DD	FLAT:??_R1A@?0A@EA@CWnd@@8		; CWnd::`RTTI Base Class Array'
	DD	FLAT:??_R1A@?0A@EA@CCmdTarget@@8
	DD	FLAT:??_R1A@?0A@EA@CObject@@8
rdata$r	ENDS
;	COMDAT ??_R3CWnd@@8
rdata$r	SEGMENT
??_R3CWnd@@8 DD	00H					; CWnd::`RTTI Class Hierarchy Descriptor'
	DD	00H
	DD	03H
	DD	FLAT:??_R2CWnd@@8
rdata$r	ENDS
;	COMDAT ??_R0?AVCWnd@@@8
data$rs	SEGMENT
??_R0?AVCWnd@@@8 DD FLAT:??_7type_info@@6B@		; CWnd `RTTI Type Descriptor'
	DD	00H
	DB	'.?AVCWnd@@', 00H
data$rs	ENDS
;	COMDAT ??_R1A@?0A@EA@CWnd@@8
rdata$r	SEGMENT
??_R1A@?0A@EA@CWnd@@8 DD FLAT:??_R0?AVCWnd@@@8		; CWnd::`RTTI Base Class Descriptor at (0,-1,0,64)'
	DD	02H
	DD	00H
	DD	0ffffffffH
	DD	00H
	DD	040H
	DD	FLAT:??_R3CWnd@@8
rdata$r	ENDS
;	COMDAT ??_R1A@?0A@EA@CBrush@@8
rdata$r	SEGMENT
??_R1A@?0A@EA@CBrush@@8 DD FLAT:??_R0?AVCBrush@@@8	; CBrush::`RTTI Base Class Descriptor at (0,-1,0,64)'
	DD	02H
	DD	00H
	DD	0ffffffffH
	DD	00H
	DD	040H
	DD	FLAT:??_R3CBrush@@8
rdata$r	ENDS
;	COMDAT ??_R2CBrush@@8
rdata$r	SEGMENT
??_R2CBrush@@8 DD FLAT:??_R1A@?0A@EA@CBrush@@8		; CBrush::`RTTI Base Class Array'
	DD	FLAT:??_R1A@?0A@EA@CGdiObject@@8
	DD	FLAT:??_R1A@?0A@EA@CObject@@8
rdata$r	ENDS
;	COMDAT ??_R3CBrush@@8
rdata$r	SEGMENT
??_R3CBrush@@8 DD 00H					; CBrush::`RTTI Class Hierarchy Descriptor'
	DD	00H
	DD	03H
	DD	FLAT:??_R2CBrush@@8
rdata$r	ENDS
;	COMDAT ??_R0?AVCBrush@@@8
data$rs	SEGMENT
??_R0?AVCBrush@@@8 DD FLAT:??_7type_info@@6B@		; CBrush `RTTI Type Descriptor'
	DD	00H
	DB	'.?AVCBrush@@', 00H
data$rs	ENDS
;	COMDAT ??_R4CBrush@@6B@
rdata$r	SEGMENT
??_R4CBrush@@6B@ DD 00H					; CBrush::`RTTI Complete Object Locator'
	DD	00H
	DD	00H
	DD	FLAT:??_R0?AVCBrush@@@8
	DD	FLAT:??_R3CBrush@@8
rdata$r	ENDS
;	COMDAT ??_R1A@?0A@EA@CGdiObject@@8
rdata$r	SEGMENT
??_R1A@?0A@EA@CGdiObject@@8 DD FLAT:??_R0?AVCGdiObject@@@8 ; CGdiObject::`RTTI Base Class Descriptor at (0,-1,0,64)'
	DD	01H
	DD	00H
	DD	0ffffffffH
	DD	00H
	DD	040H
	DD	FLAT:??_R3CGdiObject@@8
rdata$r	ENDS
;	COMDAT ??_R2CGdiObject@@8
rdata$r	SEGMENT
??_R2CGdiObject@@8 DD FLAT:??_R1A@?0A@EA@CGdiObject@@8	; CGdiObject::`RTTI Base Class Array'
	DD	FLAT:??_R1A@?0A@EA@CObject@@8
rdata$r	ENDS
;	COMDAT ??_R3CGdiObject@@8
rdata$r	SEGMENT
??_R3CGdiObject@@8 DD 00H				; CGdiObject::`RTTI Class Hierarchy Descriptor'
	DD	00H
	DD	02H
	DD	FLAT:??_R2CGdiObject@@8
rdata$r	ENDS
;	COMDAT ??_R0?AVCGdiObject@@@8
data$rs	SEGMENT
??_R0?AVCGdiObject@@@8 DD FLAT:??_7type_info@@6B@	; CGdiObject `RTTI Type Descriptor'
	DD	00H
	DB	'.?AVCGdiObject@@', 00H
data$rs	ENDS
;	COMDAT ??_R4CGdiObject@@6B@
rdata$r	SEGMENT
??_R4CGdiObject@@6B@ DD 00H				; CGdiObject::`RTTI Complete Object Locator'
	DD	00H
	DD	00H
	DD	FLAT:??_R0?AVCGdiObject@@@8
	DD	FLAT:??_R3CGdiObject@@8
rdata$r	ENDS
;	COMDAT ??_R1A@?0A@EA@CObject@@8
rdata$r	SEGMENT
??_R1A@?0A@EA@CObject@@8 DD FLAT:??_R0?AVCObject@@@8	; CObject::`RTTI Base Class Descriptor at (0,-1,0,64)'
	DD	00H
	DD	00H
	DD	0ffffffffH
	DD	00H
	DD	040H
	DD	FLAT:??_R3CObject@@8
rdata$r	ENDS
;	COMDAT ??_R2CObject@@8
rdata$r	SEGMENT
??_R2CObject@@8 DD FLAT:??_R1A@?0A@EA@CObject@@8	; CObject::`RTTI Base Class Array'
rdata$r	ENDS
;	COMDAT ??_R3CObject@@8
rdata$r	SEGMENT
??_R3CObject@@8 DD 00H					; CObject::`RTTI Class Hierarchy Descriptor'
	DD	00H
	DD	01H
	DD	FLAT:??_R2CObject@@8
rdata$r	ENDS
;	COMDAT ??_R0?AVCObject@@@8
data$rs	SEGMENT
??_R0?AVCObject@@@8 DD FLAT:??_7type_info@@6B@		; CObject `RTTI Type Descriptor'
	DD	00H
	DB	'.?AVCObject@@', 00H
data$rs	ENDS
;	COMDAT ??_7CTreeCtrl@@6B@
CONST	SEGMENT
??_7CTreeCtrl@@6B@ DD FLAT:??_R4CTreeCtrl@@6B@		; CTreeCtrl::`vftable'
	DD	FLAT:?GetRuntimeClass@CTreeCtrl@@UBEPAUCRuntimeClass@@XZ
	DD	FLAT:??_ECTreeCtrl@@UAEPAXI@Z
	DD	FLAT:?Serialize@CObject@@UAEXAAVCArchive@@@Z
	DD	FLAT:?AssertValid@CObject@@UBEXXZ
	DD	FLAT:?Dump@CObject@@UBEXAAVCDumpContext@@@Z
	DD	FLAT:?OnCmdMsg@CCmdTarget@@UAEHIHPAXPAUAFX_CMDHANDLERINFO@@@Z
	DD	FLAT:?OnFinalRelease@CWnd@@UAEXXZ
	DD	FLAT:?IsInvokeAllowed@CCmdTarget@@UAEHJ@Z
	DD	FLAT:?GetDispatchIID@CCmdTarget@@UAEHPAU_GUID@@@Z
	DD	FLAT:?GetTypeInfoCount@CCmdTarget@@UAEIXZ
	DD	FLAT:?GetTypeLibCache@CCmdTarget@@UAEPAVCTypeLibCache@@XZ
	DD	FLAT:?GetTypeLib@CCmdTarget@@UAEJKPAPAUITypeLib@@@Z
	DD	FLAT:?GetMessageMap@CTreeCtrl@@MBEPBUAFX_MSGMAP@@XZ
	DD	FLAT:?GetCommandMap@CCmdTarget@@MBEPBUAFX_OLECMDMAP@@XZ
	DD	FLAT:?GetDispatchMap@CCmdTarget@@MBEPBUAFX_DISPMAP@@XZ
	DD	FLAT:?GetConnectionMap@CCmdTarget@@MBEPBUAFX_CONNECTIONMAP@@XZ
	DD	FLAT:?GetInterfaceMap@CWnd@@MBEPBUAFX_INTERFACEMAP@@XZ
	DD	FLAT:?GetEventSinkMap@CCmdTarget@@MBEPBUAFX_EVENTSINKMAP@@XZ
	DD	FLAT:?OnCreateAggregates@CCmdTarget@@UAEHXZ
	DD	FLAT:?GetInterfaceHook@CCmdTarget@@UAEPAUIUnknown@@PBX@Z
	DD	FLAT:?GetExtraConnectionPoints@CCmdTarget@@MAEHPAVCPtrArray@@@Z
	DD	FLAT:?GetConnectionHook@CCmdTarget@@MAEPAUIConnectionPoint@@ABU_GUID@@@Z
	DD	FLAT:?PreSubclassWindow@CWnd@@UAEXXZ
	DD	FLAT:?Create@CWnd@@UAEHPBD0KABUtagRECT@@PAV1@IPAUCCreateContext@@@Z
	DD	FLAT:?CreateEx@CWnd@@UAEHKPBD0KABUtagRECT@@PAV1@IPAX@Z
	DD	FLAT:?CreateEx@CWnd@@UAEHKPBD0KHHHHPAUHWND__@@PAUHMENU__@@PAX@Z
	DD	FLAT:?DestroyWindow@CWnd@@UAEHXZ
	DD	FLAT:?PreCreateWindow@CWnd@@UAEHAAUtagCREATESTRUCTA@@@Z
	DD	FLAT:?CalcWindowRect@CWnd@@UAEXPAUtagRECT@@I@Z
	DD	FLAT:?GetMenu@CWnd@@UBEPAVCMenu@@XZ
	DD	FLAT:?SetMenu@CWnd@@UAEHPAVCMenu@@@Z
	DD	FLAT:?OnToolHitTest@CWnd@@UBEHVCPoint@@PAUtagTOOLINFOA@@@Z
	DD	FLAT:?GetScrollBarCtrl@CWnd@@UBEPAVCScrollBar@@H@Z
	DD	FLAT:?WinHelpA@CWnd@@UAEXKI@Z
	DD	FLAT:?HtmlHelpA@CWnd@@UAEXKI@Z
	DD	FLAT:?WinHelpInternal@CWnd@@UAEXKI@Z
	DD	FLAT:?ContinueModal@CWnd@@UAEHXZ
	DD	FLAT:?EndModalLoop@CWnd@@UAEXH@Z
	DD	FLAT:?OnDrawIconicThumbnailOrLivePreview@CWnd@@UAEXAAVCDC@@VCRect@@VCSize@@HAAH@Z
	DD	FLAT:?EnsureStdObj@CWnd@@UAEJXZ
	DD	FLAT:?get_accParent@CWnd@@UAEJPAPAUIDispatch@@@Z
	DD	FLAT:?get_accChildCount@CWnd@@UAEJPAJ@Z
	DD	FLAT:?get_accChild@CWnd@@UAEJUtagVARIANT@@PAPAUIDispatch@@@Z
	DD	FLAT:?get_accName@CWnd@@UAEJUtagVARIANT@@PAPA_W@Z
	DD	FLAT:?get_accValue@CWnd@@UAEJUtagVARIANT@@PAPA_W@Z
	DD	FLAT:?get_accDescription@CWnd@@UAEJUtagVARIANT@@PAPA_W@Z
	DD	FLAT:?get_accRole@CWnd@@UAEJUtagVARIANT@@PAU2@@Z
	DD	FLAT:?get_accState@CWnd@@UAEJUtagVARIANT@@PAU2@@Z
	DD	FLAT:?get_accHelp@CWnd@@UAEJUtagVARIANT@@PAPA_W@Z
	DD	FLAT:?get_accHelpTopic@CWnd@@UAEJPAPA_WUtagVARIANT@@PAJ@Z
	DD	FLAT:?get_accKeyboardShortcut@CWnd@@UAEJUtagVARIANT@@PAPA_W@Z
	DD	FLAT:?get_accFocus@CWnd@@UAEJPAUtagVARIANT@@@Z
	DD	FLAT:?get_accSelection@CWnd@@UAEJPAUtagVARIANT@@@Z
	DD	FLAT:?get_accDefaultAction@CWnd@@UAEJUtagVARIANT@@PAPA_W@Z
	DD	FLAT:?accSelect@CWnd@@UAEJJUtagVARIANT@@@Z
	DD	FLAT:?accLocation@CWnd@@UAEJPAJ000UtagVARIANT@@@Z
	DD	FLAT:?accNavigate@CWnd@@UAEJJUtagVARIANT@@PAU2@@Z
	DD	FLAT:?accHitTest@CWnd@@UAEJJJPAUtagVARIANT@@@Z
	DD	FLAT:?accDoDefaultAction@CWnd@@UAEJUtagVARIANT@@@Z
	DD	FLAT:?put_accName@CWnd@@UAEJUtagVARIANT@@PA_W@Z
	DD	FLAT:?put_accValue@CWnd@@UAEJUtagVARIANT@@PA_W@Z
	DD	FLAT:?SetProxy@CWnd@@UAEJPAUIAccessibleProxy@@@Z
	DD	FLAT:?CreateAccessibleProxy@CWnd@@UAEJIJPAJ@Z
	DD	FLAT:?OnCommand@CWnd@@MAEHIJ@Z
	DD	FLAT:?OnNotify@CWnd@@MAEHIJPAJ@Z
	DD	FLAT:?GetSuperWndProcAddr@CWnd@@MAEPAP6GJPAUHWND__@@IIJ@ZXZ
	DD	FLAT:?DoDataExchange@CWnd@@MAEXPAVCDataExchange@@@Z
	DD	FLAT:?BeginModalState@CWnd@@UAEXXZ
	DD	FLAT:?EndModalState@CWnd@@UAEXXZ
	DD	FLAT:?PreTranslateMessage@CWnd@@UAEHPAUtagMSG@@@Z
	DD	FLAT:?OnAmbientProperty@CWnd@@UAEHPAVCOleControlSite@@JPAUtagVARIANT@@@Z
	DD	FLAT:?WindowProc@CWnd@@MAEJIIJ@Z
	DD	FLAT:?OnWndMsg@CWnd@@MAEHIIJPAJ@Z
	DD	FLAT:?DefWindowProcA@CWnd@@MAEJIIJ@Z
	DD	FLAT:?PostNcDestroy@CWnd@@MAEXXZ
	DD	FLAT:?OnChildNotify@CWnd@@MAEHIIJPAJ@Z
	DD	FLAT:?OnTouchInputs@CWnd@@MAEHIPAUtagTOUCHINPUT@@@Z
	DD	FLAT:?OnTouchInput@CWnd@@MAEHVCPoint@@HHPAUtagTOUCHINPUT@@@Z
	DD	FLAT:?GetGestureStatus@CWnd@@MAEKVCPoint@@@Z
	DD	FLAT:?OnGestureZoom@CWnd@@MAEHVCPoint@@J@Z
	DD	FLAT:?OnGesturePan@CWnd@@MAEHVCPoint@@0@Z
	DD	FLAT:?OnGestureRotate@CWnd@@MAEHVCPoint@@N@Z
	DD	FLAT:?OnGestureTwoFingerTap@CWnd@@MAEHVCPoint@@@Z
	DD	FLAT:?OnGesturePressAndTap@CWnd@@MAEHVCPoint@@J@Z
	DD	FLAT:?ResizeDynamicLayout@CWnd@@MAEXXZ
	DD	FLAT:?CheckAutoCenter@CWnd@@UAEHXZ
	DD	FLAT:?IsFrameWnd@CWnd@@UBEHXZ
	DD	FLAT:?CreateControlContainer@CWnd@@MAEHPAPAVCOleControlContainer@@@Z
	DD	FLAT:?CreateControlSite@CWnd@@MAEHPAVCOleControlContainer@@PAPAVCOleControlSite@@IABU_GUID@@@Z
	DD	FLAT:?SetOccDialogInfo@CWnd@@MAEHPAU_AFX_OCC_DIALOG_INFO@@@Z
	DD	FLAT:?GetOccDialogInfo@CWnd@@MAEPAU_AFX_OCC_DIALOG_INFO@@XZ
CONST	ENDS
;	COMDAT ??_C@_0N@OMEMOKLE@?$CFTs?5?$CI?$CFTs?3?$CFd?$CJ@
CONST	SEGMENT
??_C@_0N@OMEMOKLE@?$CFTs?5?$CI?$CFTs?3?$CFd?$CJ@ DB '%Ts (%Ts:%d)', 00H ; `string'
CONST	ENDS
;	COMDAT ??_C@_0BB@HBOOMJBF@?$CFTs?5?$CI?$CFTs?3?$CFd?$CJ?6?$CFTs@
CONST	SEGMENT
??_C@_0BB@HBOOMJBF@?$CFTs?5?$CI?$CFTs?3?$CFd?$CJ?6?$CFTs@ DB '%Ts (%Ts:%d'
	DB	')', 0aH, '%Ts', 00H				; `string'
CONST	ENDS
;	COMDAT ??_C@_0BP@OIEOKIDM@Exception?5thrown?5in?5destructor@
CONST	SEGMENT
??_C@_0BP@OIEOKIDM@Exception?5thrown?5in?5destructor@ DB 'Exception throw'
	DB	'n in destructor', 00H			; `string'
CONST	ENDS
;	COMDAT ??_C@_0HD@JJCHHHNK@C?3?2Program?5Files?5?$CIx86?$CJ?2Microsof@
CONST	SEGMENT
??_C@_0HD@JJCHHHNK@C?3?2Program?5Files?5?$CIx86?$CJ?2Microsof@ DB 'C:\Pro'
	DB	'gram Files (x86)\Microsoft Visual Studio\2019\Community\VC\To'
	DB	'ols\MSVC\14.29.30133\atlmfc\include\afxwin1.inl', 00H ; `string'
CONST	ENDS
;	COMDAT ??_7CButton@@6B@
CONST	SEGMENT
??_7CButton@@6B@ DD FLAT:??_R4CButton@@6B@		; CButton::`vftable'
	DD	FLAT:?GetRuntimeClass@CButton@@UBEPAUCRuntimeClass@@XZ
	DD	FLAT:??_ECButton@@UAEPAXI@Z
	DD	FLAT:?Serialize@CObject@@UAEXAAVCArchive@@@Z
	DD	FLAT:?AssertValid@CObject@@UBEXXZ
	DD	FLAT:?Dump@CObject@@UBEXAAVCDumpContext@@@Z
	DD	FLAT:?OnCmdMsg@CCmdTarget@@UAEHIHPAXPAUAFX_CMDHANDLERINFO@@@Z
	DD	FLAT:?OnFinalRelease@CWnd@@UAEXXZ
	DD	FLAT:?IsInvokeAllowed@CCmdTarget@@UAEHJ@Z
	DD	FLAT:?GetDispatchIID@CCmdTarget@@UAEHPAU_GUID@@@Z
	DD	FLAT:?GetTypeInfoCount@CCmdTarget@@UAEIXZ
	DD	FLAT:?GetTypeLibCache@CCmdTarget@@UAEPAVCTypeLibCache@@XZ
	DD	FLAT:?GetTypeLib@CCmdTarget@@UAEJKPAPAUITypeLib@@@Z
	DD	FLAT:?GetMessageMap@CWnd@@MBEPBUAFX_MSGMAP@@XZ
	DD	FLAT:?GetCommandMap@CCmdTarget@@MBEPBUAFX_OLECMDMAP@@XZ
	DD	FLAT:?GetDispatchMap@CCmdTarget@@MBEPBUAFX_DISPMAP@@XZ
	DD	FLAT:?GetConnectionMap@CCmdTarget@@MBEPBUAFX_CONNECTIONMAP@@XZ
	DD	FLAT:?GetInterfaceMap@CWnd@@MBEPBUAFX_INTERFACEMAP@@XZ
	DD	FLAT:?GetEventSinkMap@CCmdTarget@@MBEPBUAFX_EVENTSINKMAP@@XZ
	DD	FLAT:?OnCreateAggregates@CCmdTarget@@UAEHXZ
	DD	FLAT:?GetInterfaceHook@CCmdTarget@@UAEPAUIUnknown@@PBX@Z
	DD	FLAT:?GetExtraConnectionPoints@CCmdTarget@@MAEHPAVCPtrArray@@@Z
	DD	FLAT:?GetConnectionHook@CCmdTarget@@MAEPAUIConnectionPoint@@ABU_GUID@@@Z
	DD	FLAT:?PreSubclassWindow@CWnd@@UAEXXZ
	DD	FLAT:?Create@CWnd@@UAEHPBD0KABUtagRECT@@PAV1@IPAUCCreateContext@@@Z
	DD	FLAT:?CreateEx@CWnd@@UAEHKPBD0KABUtagRECT@@PAV1@IPAX@Z
	DD	FLAT:?CreateEx@CWnd@@UAEHKPBD0KHHHHPAUHWND__@@PAUHMENU__@@PAX@Z
	DD	FLAT:?DestroyWindow@CWnd@@UAEHXZ
	DD	FLAT:?PreCreateWindow@CWnd@@UAEHAAUtagCREATESTRUCTA@@@Z
	DD	FLAT:?CalcWindowRect@CWnd@@UAEXPAUtagRECT@@I@Z
	DD	FLAT:?GetMenu@CWnd@@UBEPAVCMenu@@XZ
	DD	FLAT:?SetMenu@CWnd@@UAEHPAVCMenu@@@Z
	DD	FLAT:?OnToolHitTest@CWnd@@UBEHVCPoint@@PAUtagTOOLINFOA@@@Z
	DD	FLAT:?GetScrollBarCtrl@CWnd@@UBEPAVCScrollBar@@H@Z
	DD	FLAT:?WinHelpA@CWnd@@UAEXKI@Z
	DD	FLAT:?HtmlHelpA@CWnd@@UAEXKI@Z
	DD	FLAT:?WinHelpInternal@CWnd@@UAEXKI@Z
	DD	FLAT:?ContinueModal@CWnd@@UAEHXZ
	DD	FLAT:?EndModalLoop@CWnd@@UAEXH@Z
	DD	FLAT:?OnDrawIconicThumbnailOrLivePreview@CWnd@@UAEXAAVCDC@@VCRect@@VCSize@@HAAH@Z
	DD	FLAT:?EnsureStdObj@CWnd@@UAEJXZ
	DD	FLAT:?get_accParent@CWnd@@UAEJPAPAUIDispatch@@@Z
	DD	FLAT:?get_accChildCount@CWnd@@UAEJPAJ@Z
	DD	FLAT:?get_accChild@CWnd@@UAEJUtagVARIANT@@PAPAUIDispatch@@@Z
	DD	FLAT:?get_accName@CWnd@@UAEJUtagVARIANT@@PAPA_W@Z
	DD	FLAT:?get_accValue@CWnd@@UAEJUtagVARIANT@@PAPA_W@Z
	DD	FLAT:?get_accDescription@CWnd@@UAEJUtagVARIANT@@PAPA_W@Z
	DD	FLAT:?get_accRole@CWnd@@UAEJUtagVARIANT@@PAU2@@Z
	DD	FLAT:?get_accState@CWnd@@UAEJUtagVARIANT@@PAU2@@Z
	DD	FLAT:?get_accHelp@CWnd@@UAEJUtagVARIANT@@PAPA_W@Z
	DD	FLAT:?get_accHelpTopic@CWnd@@UAEJPAPA_WUtagVARIANT@@PAJ@Z
	DD	FLAT:?get_accKeyboardShortcut@CWnd@@UAEJUtagVARIANT@@PAPA_W@Z
	DD	FLAT:?get_accFocus@CWnd@@UAEJPAUtagVARIANT@@@Z
	DD	FLAT:?get_accSelection@CWnd@@UAEJPAUtagVARIANT@@@Z
	DD	FLAT:?get_accDefaultAction@CWnd@@UAEJUtagVARIANT@@PAPA_W@Z
	DD	FLAT:?accSelect@CWnd@@UAEJJUtagVARIANT@@@Z
	DD	FLAT:?accLocation@CWnd@@UAEJPAJ000UtagVARIANT@@@Z
	DD	FLAT:?accNavigate@CWnd@@UAEJJUtagVARIANT@@PAU2@@Z
	DD	FLAT:?accHitTest@CWnd@@UAEJJJPAUtagVARIANT@@@Z
	DD	FLAT:?accDoDefaultAction@CWnd@@UAEJUtagVARIANT@@@Z
	DD	FLAT:?put_accName@CWnd@@UAEJUtagVARIANT@@PA_W@Z
	DD	FLAT:?put_accValue@CWnd@@UAEJUtagVARIANT@@PA_W@Z
	DD	FLAT:?SetProxy@CWnd@@UAEJPAUIAccessibleProxy@@@Z
	DD	FLAT:?CreateAccessibleProxy@CWnd@@UAEJIJPAJ@Z
	DD	FLAT:?OnCommand@CWnd@@MAEHIJ@Z
	DD	FLAT:?OnNotify@CWnd@@MAEHIJPAJ@Z
	DD	FLAT:?GetSuperWndProcAddr@CWnd@@MAEPAP6GJPAUHWND__@@IIJ@ZXZ
	DD	FLAT:?DoDataExchange@CWnd@@MAEXPAVCDataExchange@@@Z
	DD	FLAT:?BeginModalState@CWnd@@UAEXXZ
	DD	FLAT:?EndModalState@CWnd@@UAEXXZ
	DD	FLAT:?PreTranslateMessage@CWnd@@UAEHPAUtagMSG@@@Z
	DD	FLAT:?OnAmbientProperty@CWnd@@UAEHPAVCOleControlSite@@JPAUtagVARIANT@@@Z
	DD	FLAT:?WindowProc@CWnd@@MAEJIIJ@Z
	DD	FLAT:?OnWndMsg@CWnd@@MAEHIIJPAJ@Z
	DD	FLAT:?DefWindowProcA@CWnd@@MAEJIIJ@Z
	DD	FLAT:?PostNcDestroy@CWnd@@MAEXXZ
	DD	FLAT:?OnChildNotify@CButton@@MAEHIIJPAJ@Z
	DD	FLAT:?OnTouchInputs@CWnd@@MAEHIPAUtagTOUCHINPUT@@@Z
	DD	FLAT:?OnTouchInput@CWnd@@MAEHVCPoint@@HHPAUtagTOUCHINPUT@@@Z
	DD	FLAT:?GetGestureStatus@CWnd@@MAEKVCPoint@@@Z
	DD	FLAT:?OnGestureZoom@CWnd@@MAEHVCPoint@@J@Z
	DD	FLAT:?OnGesturePan@CWnd@@MAEHVCPoint@@0@Z
	DD	FLAT:?OnGestureRotate@CWnd@@MAEHVCPoint@@N@Z
	DD	FLAT:?OnGestureTwoFingerTap@CWnd@@MAEHVCPoint@@@Z
	DD	FLAT:?OnGesturePressAndTap@CWnd@@MAEHVCPoint@@J@Z
	DD	FLAT:?ResizeDynamicLayout@CWnd@@MAEXXZ
	DD	FLAT:?CheckAutoCenter@CWnd@@UAEHXZ
	DD	FLAT:?IsFrameWnd@CWnd@@UBEHXZ
	DD	FLAT:?CreateControlContainer@CWnd@@MAEHPAPAVCOleControlContainer@@@Z
	DD	FLAT:?CreateControlSite@CWnd@@MAEHPAVCOleControlContainer@@PAPAVCOleControlSite@@IABU_GUID@@@Z
	DD	FLAT:?SetOccDialogInfo@CWnd@@MAEHPAU_AFX_OCC_DIALOG_INFO@@@Z
	DD	FLAT:?GetOccDialogInfo@CWnd@@MAEPAU_AFX_OCC_DIALOG_INFO@@XZ
	DD	FLAT:?Create@CButton@@UAEHPBDKABUtagRECT@@PAVCWnd@@I@Z
	DD	FLAT:?DrawItem@CButton@@UAEXPAUtagDRAWITEMSTRUCT@@@Z
CONST	ENDS
;	COMDAT ??_7CBrush@@6B@
CONST	SEGMENT
??_7CBrush@@6B@ DD FLAT:??_R4CBrush@@6B@		; CBrush::`vftable'
	DD	FLAT:?GetRuntimeClass@CBrush@@UBEPAUCRuntimeClass@@XZ
	DD	FLAT:??_ECBrush@@UAEPAXI@Z
	DD	FLAT:?Serialize@CObject@@UAEXAAVCArchive@@@Z
	DD	FLAT:?AssertValid@CObject@@UBEXXZ
	DD	FLAT:?Dump@CObject@@UBEXAAVCDumpContext@@@Z
CONST	ENDS
;	COMDAT ??_7CGdiObject@@6B@
CONST	SEGMENT
??_7CGdiObject@@6B@ DD FLAT:??_R4CGdiObject@@6B@	; CGdiObject::`vftable'
	DD	FLAT:?GetRuntimeClass@CGdiObject@@UBEPAUCRuntimeClass@@XZ
	DD	FLAT:??_ECGdiObject@@UAEPAXI@Z
	DD	FLAT:?Serialize@CObject@@UAEXAAVCArchive@@@Z
	DD	FLAT:?AssertValid@CObject@@UBEXXZ
	DD	FLAT:?Dump@CObject@@UBEXAAVCDumpContext@@@Z
CONST	ENDS
;	COMDAT ??_R0PAVCException@@@8
data$r	SEGMENT
??_R0PAVCException@@@8 DD FLAT:??_7type_info@@6B@	; CException * `RTTI Type Descriptor'
	DD	00H
	DB	'.PAVCException@@', 00H
data$r	ENDS
;	COMDAT xdata$x
xdata$x	SEGMENT
__unwindtable$?OnInitDialog@CDlgEnvSetup4@@MAEHXZ DD 0ffffffffH
	DD	FLAT:__unwindfunclet$?OnInitDialog@CDlgEnvSetup4@@MAEHXZ$0
	DD	00H
	DD	FLAT:__unwindfunclet$?OnInitDialog@CDlgEnvSetup4@@MAEHXZ$1
	DD	01H
	DD	FLAT:__unwindfunclet$?OnInitDialog@CDlgEnvSetup4@@MAEHXZ$2
__ehfuncinfo$?OnInitDialog@CDlgEnvSetup4@@MAEHXZ DD 019930522H
	DD	03H
	DD	FLAT:__unwindtable$?OnInitDialog@CDlgEnvSetup4@@MAEHXZ
	DD	2 DUP(00H)
	DD	2 DUP(00H)
	DD	00H
	DD	01H
xdata$x	ENDS
;	COMDAT xdata$x
xdata$x	SEGMENT
__unwindtable$?SetPatternEnvDataToControl@CDlgEnvSetup4@@QAEXXZ DD 0ffffffffH
	DD	FLAT:__unwindfunclet$?SetPatternEnvDataToControl@CDlgEnvSetup4@@QAEXXZ$0
	DD	00H
	DD	FLAT:__unwindfunclet$?SetPatternEnvDataToControl@CDlgEnvSetup4@@QAEXXZ$1
	DD	01H
	DD	FLAT:__unwindfunclet$?SetPatternEnvDataToControl@CDlgEnvSetup4@@QAEXXZ$2
__ehfuncinfo$?SetPatternEnvDataToControl@CDlgEnvSetup4@@QAEXXZ DD 019930522H
	DD	03H
	DD	FLAT:__unwindtable$?SetPatternEnvDataToControl@CDlgEnvSetup4@@QAEXXZ
	DD	2 DUP(00H)
	DD	2 DUP(00H)
	DD	00H
	DD	01H
xdata$x	ENDS
;	COMDAT xdata$x
xdata$x	SEGMENT
__ehfuncinfo$??0CDlgEnvSetup4@@QAE@PAVCWnd@@@Z DD 019930522H
	DD	05H
	DD	FLAT:__unwindtable$??0CDlgEnvSetup4@@QAE@PAVCWnd@@@Z
	DD	2 DUP(00H)
	DD	2 DUP(00H)
	DD	00H
	DD	01H
__unwindtable$??0CDlgEnvSetup4@@QAE@PAVCWnd@@@Z DD 0ffffffffH
	DD	FLAT:__unwindfunclet$??0CDlgEnvSetup4@@QAE@PAVCWnd@@@Z$0
	DD	00H
	DD	FLAT:__unwindfunclet$??0CDlgEnvSetup4@@QAE@PAVCWnd@@@Z$1
	DD	01H
	DD	FLAT:__unwindfunclet$??0CDlgEnvSetup4@@QAE@PAVCWnd@@@Z$2
	DD	02H
	DD	FLAT:__unwindfunclet$??0CDlgEnvSetup4@@QAE@PAVCWnd@@@Z$3
	DD	03H
	DD	FLAT:__unwindfunclet$??0CDlgEnvSetup4@@QAE@PAVCWnd@@@Z$4
xdata$x	ENDS
;	COMDAT xdata$x
xdata$x	SEGMENT
__catchsym$??1CGdiObject@@UAE@XZ$3 DD 00H
	DD	FLAT:??_R0PAVCException@@@8
	DD	0fffffde4H
	DD	FLAT:__catch$??1CGdiObject@@UAE@XZ$0
__tryblocktable$??1CGdiObject@@UAE@XZ DD 00H
	DD	00H
	DD	02H
	DD	01H
	DD	FLAT:__catchsym$??1CGdiObject@@UAE@XZ$3
__unwindtable$??1CGdiObject@@UAE@XZ DD 0ffffffffH
	DD	00H
	DD	0ffffffffH
	DD	00H
	DD	01H
	DD	FLAT:__unwindfunclet$??1CGdiObject@@UAE@XZ$2
__ehfuncinfo$??1CGdiObject@@UAE@XZ DD 019930522H
	DD	03H
	DD	FLAT:__unwindtable$??1CGdiObject@@UAE@XZ
	DD	01H
	DD	FLAT:__tryblocktable$??1CGdiObject@@UAE@XZ
	DD	2 DUP(00H)
	DD	00H
	DD	05H
xdata$x	ENDS
; Function compile flags: /Ogtp
; File C:\Program Files (x86)\Microsoft Visual Studio\2019\Community\VC\Tools\MSVC\14.29.30133\atlmfc\include\afxwin1.inl
; File C:\Program Files (x86)\Microsoft Visual Studio\2019\Community\VC\Tools\MSVC\14.29.30133\atlmfc\include\afx.inl
;	COMDAT ??_GCDlgEnvSetup4@@UAEPAXI@Z
_TEXT	SEGMENT
___flags$ = 8						; size = 4
??_GCDlgEnvSetup4@@UAEPAXI@Z PROC			; CDlgEnvSetup4::`scalar deleting destructor', COMDAT
; _this$ = ecx
  00000	55		 push	 ebp
  00001	8b ec		 mov	 ebp, esp
; File C:\Program Files (x86)\Microsoft Visual Studio\2019\Community\VC\Tools\MSVC\14.29.30133\atlmfc\include\afxwin1.inl

; 130  : 	{ }

  00003	56		 push	 esi
  00004	8b f1		 mov	 esi, ecx
  00006	8d 8e 40 01 00
	00		 lea	 ecx, DWORD PTR [esi+320]
  0000c	e8 00 00 00 00	 call	 ??1CButton@@UAE@XZ	; CButton::~CButton
  00011	8d 8e c0 00 00
	00		 lea	 ecx, DWORD PTR [esi+192]
  00017	e8 00 00 00 00	 call	 ??1CTreeCtrl@@UAE@XZ	; CTreeCtrl::~CTreeCtrl
  0001c	8d 8e b0 00 00
	00		 lea	 ecx, DWORD PTR [esi+176]
  00022	c7 01 00 00 00
	00		 mov	 DWORD PTR [ecx], OFFSET ??_7CBrush@@6B@
  00028	e8 00 00 00 00	 call	 ??1CGdiObject@@UAE@XZ	; CGdiObject::~CGdiObject
  0002d	8d 8e a8 00 00
	00		 lea	 ecx, DWORD PTR [esi+168]
  00033	c7 01 00 00 00
	00		 mov	 DWORD PTR [ecx], OFFSET ??_7CBrush@@6B@
  00039	e8 00 00 00 00	 call	 ??1CGdiObject@@UAE@XZ	; CGdiObject::~CGdiObject
  0003e	8b ce		 mov	 ecx, esi
  00040	e8 00 00 00 00	 call	 ??1CDialog@@UAE@XZ	; CDialog::~CDialog
  00045	8b 45 08	 mov	 eax, DWORD PTR ___flags$[ebp]
  00048	a8 01		 test	 al, 1
  0004a	74 22		 je	 SHORT $LN18@scalar
  0004c	a8 04		 test	 al, 4
  0004e	75 10		 jne	 SHORT $LN3@scalar
; File C:\Program Files (x86)\Microsoft Visual Studio\2019\Community\VC\Tools\MSVC\14.29.30133\atlmfc\include\afx.inl

; 112  : 	{ ::operator delete(p); }

  00050	56		 push	 esi
  00051	e8 00 00 00 00	 call	 ??3@YAXPAX@Z		; operator delete
  00056	83 c4 04	 add	 esp, 4
  00059	8b c6		 mov	 eax, esi
  0005b	5e		 pop	 esi
  0005c	5d		 pop	 ebp
  0005d	c2 04 00	 ret	 4
$LN3@scalar:
  00060	68 c0 01 00 00	 push	 448			; 000001c0H
  00065	56		 push	 esi
  00066	e8 00 00 00 00	 call	 ?__global_delete@@YAXPAXI@Z ; __global_delete
  0006b	83 c4 08	 add	 esp, 8
$LN18@scalar:
  0006e	8b c6		 mov	 eax, esi
  00070	5e		 pop	 esi
  00071	5d		 pop	 ebp
  00072	c2 04 00	 ret	 4
??_GCDlgEnvSetup4@@UAEPAXI@Z ENDP			; CDlgEnvSetup4::`scalar deleting destructor'
_TEXT	ENDS
; Function compile flags: /Ogtp
; File D:\git\src\IBK\IBK_DRFN\ProjSrc\SrcChartEx\ChartAddIn\ChartPatternAddIn\DlgEnvSetup4.cpp
;	COMDAT ?GetMessageMap@CDlgEnvSetup4@@MBEPBUAFX_MSGMAP@@XZ
_TEXT	SEGMENT
?GetMessageMap@CDlgEnvSetup4@@MBEPBUAFX_MSGMAP@@XZ PROC	; CDlgEnvSetup4::GetMessageMap, COMDAT
; _this$ = ecx

; 47   : BEGIN_MESSAGE_MAP(CDlgEnvSetup4, CDialog)

  00000	b8 00 00 00 00	 mov	 eax, OFFSET ?messageMap@?1??GetThisMessageMap@CDlgEnvSetup4@@KGPBUAFX_MSGMAP@@XZ@4U3@B
  00005	c3		 ret	 0
?GetMessageMap@CDlgEnvSetup4@@MBEPBUAFX_MSGMAP@@XZ ENDP	; CDlgEnvSetup4::GetMessageMap
_TEXT	ENDS
; Function compile flags: /Ogtp
; File D:\git\src\IBK\IBK_DRFN\ProjSrc\SrcChartEx\ChartAddIn\ChartPatternAddIn\DlgEnvSetup4.cpp
;	COMDAT ?GetThisMessageMap@CDlgEnvSetup4@@KGPBUAFX_MSGMAP@@XZ
_TEXT	SEGMENT
?GetThisMessageMap@CDlgEnvSetup4@@KGPBUAFX_MSGMAP@@XZ PROC ; CDlgEnvSetup4::GetThisMessageMap, COMDAT

; 48   : 	//{{AFX_MSG_MAP(CDlgEnvSetup4)
; 49   : 	ON_WM_CTLCOLOR()
; 50   : 	ON_WM_DESTROY()
; 51   : 	ON_BN_CLICKED(IDC_BUTTON_ALLCHECK, OnButtonAllcheck)
; 52   : 	ON_BN_CLICKED(IDC_BUTTON_ALLUNCHECK, OnButtonAlluncheck)
; 53   : 	//}}AFX_MSG_MAP
; 54   : END_MESSAGE_MAP()

  00000	b8 00 00 00 00	 mov	 eax, OFFSET ?messageMap@?1??GetThisMessageMap@CDlgEnvSetup4@@KGPBUAFX_MSGMAP@@XZ@4U3@B
  00005	c3		 ret	 0
?GetThisMessageMap@CDlgEnvSetup4@@KGPBUAFX_MSGMAP@@XZ ENDP ; CDlgEnvSetup4::GetThisMessageMap
_TEXT	ENDS
; Function compile flags: /Ogtp
; File D:\git\src\IBK\IBK_DRFN\ProjSrc\SrcChartEx\ChartAddIn\ChartPatternAddIn\DlgEnvSetup4.cpp
; File C:\Program Files (x86)\Microsoft Visual Studio\2019\Community\VC\Tools\MSVC\14.29.30133\atlmfc\include\afxcmn.inl
; File D:\git\src\IBK\IBK_DRFN\ProjSrc\SrcChartEx\ChartAddIn\ChartPatternAddIn\DlgEnvSetup4.cpp
; File C:\Program Files (x86)\Microsoft Visual Studio\2019\Community\VC\Tools\MSVC\14.29.30133\atlmfc\include\afxcmn.inl
; File D:\git\src\IBK\IBK_DRFN\ProjSrc\SrcChartEx\ChartAddIn\ChartPatternAddIn\DlgEnvSetup4.cpp
; File C:\Program Files (x86)\Microsoft Visual Studio\2019\Community\VC\Tools\MSVC\14.29.30133\atlmfc\include\afxcmn.inl
; File D:\git\src\IBK\IBK_DRFN\ProjSrc\SrcChartEx\ChartAddIn\ChartPatternAddIn\DlgEnvSetup4.cpp
; File C:\Program Files (x86)\Microsoft Visual Studio\2019\Community\VC\Tools\MSVC\14.29.30133\atlmfc\include\afxcmn.inl
; File D:\git\src\IBK\IBK_DRFN\ProjSrc\SrcChartEx\ChartAddIn\ChartPatternAddIn\DlgEnvSetup4.cpp
;	COMDAT ?OnButtonAlluncheck@CDlgEnvSetup4@@IAEXXZ
_TEXT	SEGMENT
?OnButtonAlluncheck@CDlgEnvSetup4@@IAEXXZ PROC		; CDlgEnvSetup4::OnButtonAlluncheck, COMDAT
; _this$ = ecx

; 197  : {

  00000	53		 push	 ebx
; File C:\Program Files (x86)\Microsoft Visual Studio\2019\Community\VC\Tools\MSVC\14.29.30133\atlmfc\include\afxcmn.inl

; 322  : 	{ ASSERT(::IsWindow(m_hWnd)); return (HTREEITEM)::SendMessage(m_hWnd, TVM_GETNEXTITEM, TVGN_ROOT, 0); }

  00001	8b 1d 00 00 00
	00		 mov	 ebx, DWORD PTR __imp__SendMessageA@16
; File D:\git\src\IBK\IBK_DRFN\ProjSrc\SrcChartEx\ChartAddIn\ChartPatternAddIn\DlgEnvSetup4.cpp

; 197  : {

  00007	56		 push	 esi
  00008	57		 push	 edi
; File C:\Program Files (x86)\Microsoft Visual Studio\2019\Community\VC\Tools\MSVC\14.29.30133\atlmfc\include\afxcmn.inl

; 322  : 	{ ASSERT(::IsWindow(m_hWnd)); return (HTREEITEM)::SendMessage(m_hWnd, TVM_GETNEXTITEM, TVGN_ROOT, 0); }

  00009	6a 00		 push	 0
; File D:\git\src\IBK\IBK_DRFN\ProjSrc\SrcChartEx\ChartAddIn\ChartPatternAddIn\DlgEnvSetup4.cpp

; 197  : {

  0000b	8b f9		 mov	 edi, ecx
; File C:\Program Files (x86)\Microsoft Visual Studio\2019\Community\VC\Tools\MSVC\14.29.30133\atlmfc\include\afxcmn.inl

; 322  : 	{ ASSERT(::IsWindow(m_hWnd)); return (HTREEITEM)::SendMessage(m_hWnd, TVM_GETNEXTITEM, TVGN_ROOT, 0); }

  0000d	6a 00		 push	 0
  0000f	68 0a 11 00 00	 push	 4362			; 0000110aH
  00014	ff b7 e0 00 00
	00		 push	 DWORD PTR [edi+224]
  0001a	ff d3		 call	 ebx
; File D:\git\src\IBK\IBK_DRFN\ProjSrc\SrcChartEx\ChartAddIn\ChartPatternAddIn\DlgEnvSetup4.cpp

; 199  : 	HTREEITEM hNextItem = m_treeItem.GetRootItem();

  0001c	8b f0		 mov	 esi, eax

; 200  : 	int nIdx=0;
; 201  : 	while (hNextItem != NULL)

  0001e	85 f6		 test	 esi, esi
  00020	74 2c		 je	 SHORT $LN3@OnButtonAl
  00022	8d 87 c0 00 00
	00		 lea	 eax, DWORD PTR [edi+192]
$LL2@OnButtonAl:

; 202  : 	{
; 203  : 			
; 204  : 		m_treeItem.SetCheck(hNextItem, FALSE);

  00028	6a 00		 push	 0
  0002a	56		 push	 esi
  0002b	8b c8		 mov	 ecx, eax
  0002d	e8 00 00 00 00	 call	 ?SetCheck@CTreeCtrl@@QAEHPAU_TREEITEM@@H@Z ; CTreeCtrl::SetCheck
; File C:\Program Files (x86)\Microsoft Visual Studio\2019\Community\VC\Tools\MSVC\14.29.30133\atlmfc\include\afxcmn.inl

; 298  : 	{ ASSERT(::IsWindow(m_hWnd)); return (HTREEITEM)::SendMessage(m_hWnd, TVM_GETNEXTITEM, nCode, (LPARAM)hItem); }

  00032	56		 push	 esi
  00033	6a 01		 push	 1
  00035	68 0a 11 00 00	 push	 4362			; 0000110aH
  0003a	ff b7 e0 00 00
	00		 push	 DWORD PTR [edi+224]
  00040	ff d3		 call	 ebx
; File D:\git\src\IBK\IBK_DRFN\ProjSrc\SrcChartEx\ChartAddIn\ChartPatternAddIn\DlgEnvSetup4.cpp

; 205  : 		hNextItem = m_treeItem.GetNextItem(hNextItem, TVGN_NEXT);

  00042	8b f0		 mov	 esi, eax
  00044	8d 87 c0 00 00
	00		 lea	 eax, DWORD PTR [edi+192]
  0004a	85 f6		 test	 esi, esi
  0004c	75 da		 jne	 SHORT $LL2@OnButtonAl
$LN3@OnButtonAl:
  0004e	5f		 pop	 edi

; 206  : 		nIdx++;
; 207  : 	}
; 208  : }

  0004f	5e		 pop	 esi
  00050	5b		 pop	 ebx
  00051	c3		 ret	 0
?OnButtonAlluncheck@CDlgEnvSetup4@@IAEXXZ ENDP		; CDlgEnvSetup4::OnButtonAlluncheck
_TEXT	ENDS
; Function compile flags: /Ogtp
; File D:\git\src\IBK\IBK_DRFN\ProjSrc\SrcChartEx\ChartAddIn\ChartPatternAddIn\DlgEnvSetup4.cpp
; File C:\Program Files (x86)\Microsoft Visual Studio\2019\Community\VC\Tools\MSVC\14.29.30133\atlmfc\include\afxcmn.inl
; File D:\git\src\IBK\IBK_DRFN\ProjSrc\SrcChartEx\ChartAddIn\ChartPatternAddIn\DlgEnvSetup4.cpp
; File C:\Program Files (x86)\Microsoft Visual Studio\2019\Community\VC\Tools\MSVC\14.29.30133\atlmfc\include\afxcmn.inl
; File D:\git\src\IBK\IBK_DRFN\ProjSrc\SrcChartEx\ChartAddIn\ChartPatternAddIn\DlgEnvSetup4.cpp
; File C:\Program Files (x86)\Microsoft Visual Studio\2019\Community\VC\Tools\MSVC\14.29.30133\atlmfc\include\afxcmn.inl
; File D:\git\src\IBK\IBK_DRFN\ProjSrc\SrcChartEx\ChartAddIn\ChartPatternAddIn\DlgEnvSetup4.cpp
; File C:\Program Files (x86)\Microsoft Visual Studio\2019\Community\VC\Tools\MSVC\14.29.30133\atlmfc\include\afxcmn.inl
; File D:\git\src\IBK\IBK_DRFN\ProjSrc\SrcChartEx\ChartAddIn\ChartPatternAddIn\DlgEnvSetup4.cpp
;	COMDAT ?OnButtonAllcheck@CDlgEnvSetup4@@IAEXXZ
_TEXT	SEGMENT
?OnButtonAllcheck@CDlgEnvSetup4@@IAEXXZ PROC		; CDlgEnvSetup4::OnButtonAllcheck, COMDAT
; _this$ = ecx

; 182  : {

  00000	53		 push	 ebx
; File C:\Program Files (x86)\Microsoft Visual Studio\2019\Community\VC\Tools\MSVC\14.29.30133\atlmfc\include\afxcmn.inl

; 322  : 	{ ASSERT(::IsWindow(m_hWnd)); return (HTREEITEM)::SendMessage(m_hWnd, TVM_GETNEXTITEM, TVGN_ROOT, 0); }

  00001	8b 1d 00 00 00
	00		 mov	 ebx, DWORD PTR __imp__SendMessageA@16
; File D:\git\src\IBK\IBK_DRFN\ProjSrc\SrcChartEx\ChartAddIn\ChartPatternAddIn\DlgEnvSetup4.cpp

; 182  : {

  00007	56		 push	 esi
  00008	57		 push	 edi
; File C:\Program Files (x86)\Microsoft Visual Studio\2019\Community\VC\Tools\MSVC\14.29.30133\atlmfc\include\afxcmn.inl

; 322  : 	{ ASSERT(::IsWindow(m_hWnd)); return (HTREEITEM)::SendMessage(m_hWnd, TVM_GETNEXTITEM, TVGN_ROOT, 0); }

  00009	6a 00		 push	 0
; File D:\git\src\IBK\IBK_DRFN\ProjSrc\SrcChartEx\ChartAddIn\ChartPatternAddIn\DlgEnvSetup4.cpp

; 182  : {

  0000b	8b f9		 mov	 edi, ecx
; File C:\Program Files (x86)\Microsoft Visual Studio\2019\Community\VC\Tools\MSVC\14.29.30133\atlmfc\include\afxcmn.inl

; 322  : 	{ ASSERT(::IsWindow(m_hWnd)); return (HTREEITEM)::SendMessage(m_hWnd, TVM_GETNEXTITEM, TVGN_ROOT, 0); }

  0000d	6a 00		 push	 0
  0000f	68 0a 11 00 00	 push	 4362			; 0000110aH
  00014	ff b7 e0 00 00
	00		 push	 DWORD PTR [edi+224]
  0001a	ff d3		 call	 ebx
; File D:\git\src\IBK\IBK_DRFN\ProjSrc\SrcChartEx\ChartAddIn\ChartPatternAddIn\DlgEnvSetup4.cpp

; 184  : 	HTREEITEM hNextItem = m_treeItem.GetRootItem();

  0001c	8b f0		 mov	 esi, eax

; 185  : 	int nIdx=0;
; 186  : 	while (hNextItem != NULL)

  0001e	85 f6		 test	 esi, esi
  00020	74 2c		 je	 SHORT $LN3@OnButtonAl
  00022	8d 87 c0 00 00
	00		 lea	 eax, DWORD PTR [edi+192]
$LL2@OnButtonAl:

; 187  : 	{
; 188  : 			
; 189  : 		m_treeItem.SetCheck(hNextItem, TRUE);

  00028	6a 01		 push	 1
  0002a	56		 push	 esi
  0002b	8b c8		 mov	 ecx, eax
  0002d	e8 00 00 00 00	 call	 ?SetCheck@CTreeCtrl@@QAEHPAU_TREEITEM@@H@Z ; CTreeCtrl::SetCheck
; File C:\Program Files (x86)\Microsoft Visual Studio\2019\Community\VC\Tools\MSVC\14.29.30133\atlmfc\include\afxcmn.inl

; 298  : 	{ ASSERT(::IsWindow(m_hWnd)); return (HTREEITEM)::SendMessage(m_hWnd, TVM_GETNEXTITEM, nCode, (LPARAM)hItem); }

  00032	56		 push	 esi
  00033	6a 01		 push	 1
  00035	68 0a 11 00 00	 push	 4362			; 0000110aH
  0003a	ff b7 e0 00 00
	00		 push	 DWORD PTR [edi+224]
  00040	ff d3		 call	 ebx
; File D:\git\src\IBK\IBK_DRFN\ProjSrc\SrcChartEx\ChartAddIn\ChartPatternAddIn\DlgEnvSetup4.cpp

; 190  : 		hNextItem = m_treeItem.GetNextItem(hNextItem, TVGN_NEXT);

  00042	8b f0		 mov	 esi, eax
  00044	8d 87 c0 00 00
	00		 lea	 eax, DWORD PTR [edi+192]
  0004a	85 f6		 test	 esi, esi
  0004c	75 da		 jne	 SHORT $LL2@OnButtonAl
$LN3@OnButtonAl:
  0004e	5f		 pop	 edi

; 191  : 		nIdx++;
; 192  : 	}
; 193  : 
; 194  : }

  0004f	5e		 pop	 esi
  00050	5b		 pop	 ebx
  00051	c3		 ret	 0
?OnButtonAllcheck@CDlgEnvSetup4@@IAEXXZ ENDP		; CDlgEnvSetup4::OnButtonAllcheck
_TEXT	ENDS
; Function compile flags: /Ogtp
; File D:\git\src\IBK\IBK_DRFN\ProjSrc\SrcChartEx\ChartAddIn\ChartPatternAddIn\DlgEnvSetup4.cpp
; File C:\Program Files (x86)\Microsoft Visual Studio\2019\Community\VC\Tools\MSVC\14.29.30133\atlmfc\include\afxwin1.inl
; File D:\git\src\IBK\IBK_DRFN\ProjSrc\SrcChartEx\ChartAddIn\ChartPatternAddIn\DlgEnvSetup4.cpp
; File C:\Program Files (x86)\Microsoft Visual Studio\2019\Community\VC\Tools\MSVC\14.29.30133\atlmfc\include\afxwin1.inl
; File D:\git\src\IBK\IBK_DRFN\ProjSrc\SrcChartEx\ChartAddIn\ChartPatternAddIn\DlgEnvSetup4.cpp
;	COMDAT ?OnDestroy@CDlgEnvSetup4@@IAEXXZ
_TEXT	SEGMENT
?OnDestroy@CDlgEnvSetup4@@IAEXXZ PROC			; CDlgEnvSetup4::OnDestroy, COMDAT
; _this$ = ecx

; 171  : {

  00000	56		 push	 esi
  00001	8b f1		 mov	 esi, ecx

; 173  : 	if ( m_brBack.GetSafeHandle())	m_brBack.DeleteObject();

  00003	8d 8e a8 00 00
	00		 lea	 ecx, DWORD PTR [esi+168]
; File C:\Program Files (x86)\Microsoft Visual Studio\2019\Community\VC\Tools\MSVC\14.29.30133\atlmfc\include\afxwin1.inl

; 68   : 	{ return this == NULL ? NULL : m_hObject; }

  00009	85 c9		 test	 ecx, ecx
  0000b	74 0b		 je	 SHORT $LN2@OnDestroy
; File D:\git\src\IBK\IBK_DRFN\ProjSrc\SrcChartEx\ChartAddIn\ChartPatternAddIn\DlgEnvSetup4.cpp

; 173  : 	if ( m_brBack.GetSafeHandle())	m_brBack.DeleteObject();

  0000d	83 79 04 00	 cmp	 DWORD PTR [ecx+4], 0
  00011	74 05		 je	 SHORT $LN2@OnDestroy
  00013	e8 00 00 00 00	 call	 ?DeleteObject@CGdiObject@@QAEHXZ ; CGdiObject::DeleteObject
$LN2@OnDestroy:

; 174  : 	if ( m_brWhite.GetSafeHandle())	m_brWhite.DeleteObject();

  00018	8d 8e b0 00 00
	00		 lea	 ecx, DWORD PTR [esi+176]
; File C:\Program Files (x86)\Microsoft Visual Studio\2019\Community\VC\Tools\MSVC\14.29.30133\atlmfc\include\afxwin1.inl

; 68   : 	{ return this == NULL ? NULL : m_hObject; }

  0001e	85 c9		 test	 ecx, ecx
  00020	74 0b		 je	 SHORT $LN3@OnDestroy
; File D:\git\src\IBK\IBK_DRFN\ProjSrc\SrcChartEx\ChartAddIn\ChartPatternAddIn\DlgEnvSetup4.cpp

; 174  : 	if ( m_brWhite.GetSafeHandle())	m_brWhite.DeleteObject();

  00022	83 79 04 00	 cmp	 DWORD PTR [ecx+4], 0
  00026	74 05		 je	 SHORT $LN3@OnDestroy
  00028	e8 00 00 00 00	 call	 ?DeleteObject@CGdiObject@@QAEHXZ ; CGdiObject::DeleteObject
$LN3@OnDestroy:

; 175  : 
; 176  : 
; 177  : 	CDialog::OnDestroy();

  0002d	8b ce		 mov	 ecx, esi
  0002f	5e		 pop	 esi
  00030	e9 00 00 00 00	 jmp	 ?OnDestroy@CWnd@@IAEXXZ	; CWnd::OnDestroy
?OnDestroy@CDlgEnvSetup4@@IAEXXZ ENDP			; CDlgEnvSetup4::OnDestroy
_TEXT	ENDS
; Function compile flags: /Ogtp
; File D:\git\src\IBK\IBK_DRFN\ProjSrc\SrcChartEx\ChartAddIn\ChartPatternAddIn\DlgEnvSetup4.cpp
;	COMDAT ?OnCtlColor@CDlgEnvSetup4@@IAEPAUHBRUSH__@@PAVCDC@@PAVCWnd@@I@Z
_TEXT	SEGMENT
_pDC$ = 8						; size = 4
_pWnd$ = 12						; size = 4
_nCtlColor$ = 16					; size = 4
?OnCtlColor@CDlgEnvSetup4@@IAEPAUHBRUSH__@@PAVCDC@@PAVCWnd@@I@Z PROC ; CDlgEnvSetup4::OnCtlColor, COMDAT
; _this$ = ecx

; 149  : {

  00000	55		 push	 ebp
  00001	8b ec		 mov	 ebp, esp
  00003	53		 push	 ebx
  00004	57		 push	 edi

; 150  : 	HBRUSH hbr = CDialog::OnCtlColor(pDC, pWnd, nCtlColor);

  00005	ff 75 10	 push	 DWORD PTR _nCtlColor$[ebp]
  00008	8b 7d 08	 mov	 edi, DWORD PTR _pDC$[ebp]
  0000b	8b d9		 mov	 ebx, ecx
  0000d	ff 75 0c	 push	 DWORD PTR _pWnd$[ebp]
  00010	57		 push	 edi
  00011	e8 00 00 00 00	 call	 ?OnCtlColor@CWnd@@IAEPAUHBRUSH__@@PAVCDC@@PAV1@I@Z ; CWnd::OnCtlColor

; 151  : 	
; 152  : //	pDC->SetBkMode( TRANSPARENT);
; 153  : 
; 154  : 	if ( nCtlColor == CTLCOLOR_EDIT)

  00016	83 7d 10 01	 cmp	 DWORD PTR _nCtlColor$[ebp], 1
  0001a	8b cf		 mov	 ecx, edi
  0001c	8b 07		 mov	 eax, DWORD PTR [edi]
  0001e	75 10		 jne	 SHORT $LN2@OnCtlColor

; 155  : 	{
; 156  : 		pDC->SetBkColor( COLOR_WHITE);

  00020	68 ff ff ff 00	 push	 16777215		; 00ffffffH
  00025	ff 50 34	 call	 DWORD PTR [eax+52]

; 157  : 
; 158  : 		hbr = m_brWhite;

  00028	8d 83 b0 00 00
	00		 lea	 eax, DWORD PTR [ebx+176]

; 159  : 	}

  0002e	eb 0e		 jmp	 SHORT $LN15@OnCtlColor
$LN2@OnCtlColor:

; 160  : 	else
; 161  : 	{
; 162  : 		pDC->SetBkColor( COLOR_BG_ANLYS_DLG);

  00030	68 dd e0 e9 00	 push	 15327453		; 00e9e0ddH
  00035	ff 50 34	 call	 DWORD PTR [eax+52]

; 163  : 		hbr = m_brBack;

  00038	8d 83 a8 00 00
	00		 lea	 eax, DWORD PTR [ebx+168]
$LN15@OnCtlColor:

; 164  : 	}
; 165  : 		
; 166  : 	// TODO: Return a different brush if the default is not desired
; 167  : 	return hbr;
; 168  : }

  0003e	85 c0		 test	 eax, eax
  00040	75 06		 jne	 SHORT $LN11@OnCtlColor
  00042	5f		 pop	 edi
  00043	5b		 pop	 ebx
  00044	5d		 pop	 ebp
  00045	c2 0c 00	 ret	 12			; 0000000cH
$LN11@OnCtlColor:
  00048	8b 40 04	 mov	 eax, DWORD PTR [eax+4]
  0004b	5f		 pop	 edi
  0004c	5b		 pop	 ebx
  0004d	5d		 pop	 ebp
  0004e	c2 0c 00	 ret	 12			; 0000000cH
?OnCtlColor@CDlgEnvSetup4@@IAEPAUHBRUSH__@@PAVCDC@@PAVCWnd@@I@Z ENDP ; CDlgEnvSetup4::OnCtlColor
_TEXT	ENDS
; Function compile flags: /Ogtp
; File D:\git\src\IBK\IBK_DRFN\ProjSrc\SrcChartEx\ChartAddIn\ChartPatternAddIn\DlgEnvSetup4.cpp
; File C:\Program Files (x86)\Microsoft Visual Studio\2019\Community\VC\Tools\MSVC\14.29.30133\atlmfc\include\afxwin2.inl
; File D:\git\src\IBK\IBK_DRFN\ProjSrc\SrcChartEx\ChartAddIn\ChartPatternAddIn\DlgEnvSetup4.cpp
; File C:\Program Files (x86)\Microsoft Visual Studio\2019\Community\VC\Tools\MSVC\14.29.30133\atlmfc\include\afxcmn.inl
; File D:\git\src\IBK\IBK_DRFN\ProjSrc\SrcChartEx\ChartAddIn\ChartPatternAddIn\DlgEnvSetup4.cpp
; File C:\Program Files (x86)\Microsoft Visual Studio\2019\Community\VC\Tools\MSVC\14.29.30133\atlmfc\include\afxcmn.inl
; File D:\git\src\IBK\IBK_DRFN\ProjSrc\SrcChartEx\ChartAddIn\ChartPatternAddIn\DlgEnvSetup4.cpp
;	COMDAT ?OnInitDialog@CDlgEnvSetup4@@MAEHXZ
_TEXT	SEGMENT
_candlePattern$2 = -28					; size = 8
$T3 = -20						; size = 4
_strName$4 = -16					; size = 4
__$EHRec$ = -12						; size = 12
?OnInitDialog@CDlgEnvSetup4@@MAEHXZ PROC		; CDlgEnvSetup4::OnInitDialog, COMDAT
; _this$ = ecx

; 61   : {

  00000	55		 push	 ebp
  00001	8b ec		 mov	 ebp, esp
  00003	6a ff		 push	 -1
  00005	68 00 00 00 00	 push	 __ehhandler$?OnInitDialog@CDlgEnvSetup4@@MAEHXZ
  0000a	64 a1 00 00 00
	00		 mov	 eax, DWORD PTR fs:0
  00010	50		 push	 eax
  00011	83 ec 10	 sub	 esp, 16			; 00000010H
  00014	53		 push	 ebx
  00015	56		 push	 esi
  00016	57		 push	 edi
  00017	a1 00 00 00 00	 mov	 eax, DWORD PTR ___security_cookie
  0001c	33 c5		 xor	 eax, ebp
  0001e	50		 push	 eax
  0001f	8d 45 f4	 lea	 eax, DWORD PTR __$EHRec$[ebp]
  00022	64 a3 00 00 00
	00		 mov	 DWORD PTR fs:0, eax
  00028	8b f9		 mov	 edi, ecx

; 62   : 	CDialog::OnInitDialog();

  0002a	e8 00 00 00 00	 call	 ?OnInitDialog@CDialog@@UAEHXZ ; CDialog::OnInitDialog

; 80   : 	if ( m_pPatternEnvData)

  0002f	8b 87 b8 00 00
	00		 mov	 eax, DWORD PTR [edi+184]
  00035	85 c0		 test	 eax, eax
  00037	0f 84 04 01 00
	00		 je	 $LN27@OnInitDial
; File C:\Program Files (x86)\Microsoft Visual Studio\2019\Community\VC\Tools\MSVC\14.29.30133\atlmfc\include\afxwin2.inl

; 630  : 	{ ASSERT(::IsWindow(m_hWnd)); ::SendMessage(m_hWnd, BM_SETCHECK, nCheck, 0); }

  0003d	6a 00		 push	 0
  0003f	ff b0 88 00 00
	00		 push	 DWORD PTR [eax+136]
  00045	68 f1 00 00 00	 push	 241			; 000000f1H
  0004a	ff b7 60 01 00
	00		 push	 DWORD PTR [edi+352]
  00050	ff 15 00 00 00
	00		 call	 DWORD PTR __imp__SendMessageA@16
; File D:\git\src\IBK\IBK_DRFN\ProjSrc\SrcChartEx\ChartAddIn\ChartPatternAddIn\DlgEnvSetup4.cpp

; 86   : 		m_treeItem.ModifyStyle(0, WS_VISIBLE | WS_TABSTOP | WS_CHILD | WS_BORDER | TVS_DISABLEDRAGDROP | 

  00056	6a 00		 push	 0
  00058	68 91 01 81 50	 push	 1350631825		; 50810191H
  0005d	8d b7 c0 00 00
	00		 lea	 esi, DWORD PTR [edi+192]
  00063	6a 00		 push	 0
  00065	8b ce		 mov	 ecx, esi
  00067	e8 00 00 00 00	 call	 ?ModifyStyle@CWnd@@QAEHKKI@Z ; CWnd::ModifyStyle

; 87   : 			TVS_HASBUTTONS | TVS_NOTOOLTIPS | 
; 88   : 			TVS_CHECKBOXES);
; 89   : 		//	m_treeItem.ModifyStyle(TVS_CHECKBOXES,0);
; 90   : 		//	m_treeItem.ModifyStyle(0,TVS_CHECKBOXES);
; 91   : 
; 92   : 		HTREEITEM hFirst=0;
; 93   : 
; 94   : 		CCandlePattern candlePattern;

  0006c	8d 4d e4	 lea	 ecx, DWORD PTR _candlePattern$2[ebp]
  0006f	e8 00 00 00 00	 call	 ??0CCandlePattern@@QAE@XZ ; CCandlePattern::CCandlePattern

; 95   : 		CString strName;

  00074	8d 4d f0	 lea	 ecx, DWORD PTR _strName$4[ebp]
  00077	c7 45 fc 00 00
	00 00		 mov	 DWORD PTR __$EHRec$[ebp+8], 0
  0007e	ff 15 00 00 00
	00		 call	 DWORD PTR __imp_??0?$CStringT@DV?$StrTraitMFC_DLL@DV?$ChTraitsCRT@D@ATL@@@@@ATL@@QAE@XZ
  00084	c6 45 fc 01	 mov	 BYTE PTR __$EHRec$[ebp+8], 1

; 96   : 		HTREEITEM hItem = NULL;
; 97   : 		int nItem=0;
; 98   : 
; 99   : 		//for(int i = CPTN_HAMMER; i<=CPTN_BULLISH_DRAGONFLY; i++)
; 100  : 		for(int i = CPTN_HAMMER; i<=CPTN_THRUSTINGLINE; i++)

  00088	bb 41 1f 00 00	 mov	 ebx, 8001		; 00001f41H
  0008d	0f 1f 00	 npad	 3
$LL6@OnInitDial:

; 101  : 		{
; 102  : 			strName = candlePattern.GetCandlePatternName(i);

  00090	53		 push	 ebx
  00091	8d 45 ec	 lea	 eax, DWORD PTR $T3[ebp]
  00094	50		 push	 eax
  00095	8d 4d e4	 lea	 ecx, DWORD PTR _candlePattern$2[ebp]
  00098	e8 00 00 00 00	 call	 ?GetCandlePatternName@CCandlePattern@@QAE?AV?$CStringT@DV?$StrTraitMFC_DLL@DV?$ChTraitsCRT@D@ATL@@@@@ATL@@H@Z ; CCandlePattern::GetCandlePatternName
  0009d	50		 push	 eax
  0009e	8d 4d f0	 lea	 ecx, DWORD PTR _strName$4[ebp]
  000a1	c6 45 fc 02	 mov	 BYTE PTR __$EHRec$[ebp+8], 2
  000a5	ff 15 00 00 00
	00		 call	 DWORD PTR __imp_??4?$CStringT@DV?$StrTraitMFC_DLL@DV?$ChTraitsCRT@D@ATL@@@@@ATL@@QAEAAV01@ABV01@@Z
  000ab	8d 4d ec	 lea	 ecx, DWORD PTR $T3[ebp]
  000ae	c6 45 fc 01	 mov	 BYTE PTR __$EHRec$[ebp+8], 1
  000b2	ff 15 00 00 00
	00		 call	 DWORD PTR __imp_??1?$CStringT@DV?$StrTraitMFC_DLL@DV?$ChTraitsCRT@D@ATL@@@@@ATL@@QAE@XZ
; File C:\Program Files (x86)\Microsoft Visual Studio\2019\Community\VC\Tools\MSVC\14.29.30133\atlmfc\include\afxcmn.inl

; 271  : 	{ ASSERT(::IsWindow(m_hWnd)); return InsertItem(TVIF_TEXT, lpszItem, 0, 0, 0, 0, 0, hParent, hInsertAfter); }

  000b8	68 02 00 ff ff	 push	 -65534			; ffff0002H
  000bd	68 00 00 ff ff	 push	 -65536			; ffff0000H
  000c2	6a 00		 push	 0
  000c4	6a 00		 push	 0
  000c6	6a 00		 push	 0
  000c8	6a 00		 push	 0
  000ca	6a 00		 push	 0
  000cc	ff 75 f0	 push	 DWORD PTR _strName$4[ebp]
  000cf	8b ce		 mov	 ecx, esi
  000d1	6a 01		 push	 1
  000d3	e8 00 00 00 00	 call	 ?InsertItem@CTreeCtrl@@QAEPAU_TREEITEM@@IPBDHHIIJPAU2@1@Z ; CTreeCtrl::InsertItem

; 342  : 	{ ASSERT(::IsWindow(m_hWnd)); return SetItem(hItem, TVIF_PARAM, NULL, 0, 0, 0, 0, (LPARAM)dwData); }

  000d8	8d 8b bf e0 ff
	ff		 lea	 ecx, DWORD PTR [ebx-8001]
; File D:\git\src\IBK\IBK_DRFN\ProjSrc\SrcChartEx\ChartAddIn\ChartPatternAddIn\DlgEnvSetup4.cpp

; 103  : 			hItem = m_treeItem.InsertItem(strName);	

  000de	8b f0		 mov	 esi, eax
; File C:\Program Files (x86)\Microsoft Visual Studio\2019\Community\VC\Tools\MSVC\14.29.30133\atlmfc\include\afxcmn.inl

; 342  : 	{ ASSERT(::IsWindow(m_hWnd)); return SetItem(hItem, TVIF_PARAM, NULL, 0, 0, 0, 0, (LPARAM)dwData); }

  000e0	51		 push	 ecx
  000e1	6a 00		 push	 0
  000e3	6a 00		 push	 0
  000e5	6a 00		 push	 0
  000e7	6a 00		 push	 0
  000e9	6a 00		 push	 0
  000eb	6a 04		 push	 4
  000ed	56		 push	 esi
  000ee	8d 8f c0 00 00
	00		 lea	 ecx, DWORD PTR [edi+192]
  000f4	e8 00 00 00 00	 call	 ?SetItem@CTreeCtrl@@QAEHPAU_TREEITEM@@IPBDHHIIJ@Z ; CTreeCtrl::SetItem
; File D:\git\src\IBK\IBK_DRFN\ProjSrc\SrcChartEx\ChartAddIn\ChartPatternAddIn\DlgEnvSetup4.cpp

; 107  : 			if(m_pPatternEnvData->IsDisplayCandle(i))

  000f9	8b 8f b8 00 00
	00		 mov	 ecx, DWORD PTR [edi+184]
  000ff	53		 push	 ebx
  00100	e8 00 00 00 00	 call	 ?IsDisplayCandle@CPatternEnvData@@QAEHH@Z ; CPatternEnvData::IsDisplayCandle
  00105	f7 d8		 neg	 eax
  00107	1b c0		 sbb	 eax, eax
  00109	f7 d8		 neg	 eax

; 108  : 				m_treeItem.SetCheck(hItem,TRUE);		
; 109  : 			else 
; 110  : 				m_treeItem.SetCheck(hItem,FALSE);
; 111  : 			nItem++;

  0010b	50		 push	 eax
  0010c	56		 push	 esi
  0010d	8d b7 c0 00 00
	00		 lea	 esi, DWORD PTR [edi+192]
  00113	8b ce		 mov	 ecx, esi
  00115	e8 00 00 00 00	 call	 ?SetCheck@CTreeCtrl@@QAEHPAU_TREEITEM@@H@Z ; CTreeCtrl::SetCheck
  0011a	43		 inc	 ebx
  0011b	81 fb 7e 1f 00
	00		 cmp	 ebx, 8062		; 00001f7eH
  00121	0f 8e 69 ff ff
	ff		 jle	 $LL6@OnInitDial

; 112  : 		}
; 113  : 		//m_treeItem.SelectItem(hFirst);
; 114  : 		UpdateData(FALSE);

  00127	6a 00		 push	 0
  00129	8b cf		 mov	 ecx, edi
  0012b	e8 00 00 00 00	 call	 ?UpdateData@CWnd@@QAEHH@Z ; CWnd::UpdateData

; 115  : 	}

  00130	8d 4d f0	 lea	 ecx, DWORD PTR _strName$4[ebp]
  00133	ff 15 00 00 00
	00		 call	 DWORD PTR __imp_??1?$CStringT@DV?$StrTraitMFC_DLL@DV?$ChTraitsCRT@D@ATL@@@@@ATL@@QAE@XZ
  00139	8d 4d e4	 lea	 ecx, DWORD PTR _candlePattern$2[ebp]
  0013c	e8 00 00 00 00	 call	 ??1CCandlePattern@@UAE@XZ ; CCandlePattern::~CCandlePattern
$LN27@OnInitDial:

; 63   : 	
; 64   : 	// TODO: Add extra initialization here
; 65   : 	SetPatternEnvDataToControl();
; 66   : 	return TRUE;  // return TRUE unless you set the focus to a control
; 67   : 	              // EXCEPTION: OCX Property Pages should return FALSE
; 68   : }

  00141	b8 01 00 00 00	 mov	 eax, 1
  00146	8b 4d f4	 mov	 ecx, DWORD PTR __$EHRec$[ebp]
  00149	64 89 0d 00 00
	00 00		 mov	 DWORD PTR fs:0, ecx
  00150	59		 pop	 ecx
  00151	5f		 pop	 edi
  00152	5e		 pop	 esi
  00153	5b		 pop	 ebx
  00154	8b e5		 mov	 esp, ebp
  00156	5d		 pop	 ebp
  00157	c3		 ret	 0
_TEXT	ENDS
;	COMDAT text$x
text$x	SEGMENT
__unwindfunclet$?OnInitDialog@CDlgEnvSetup4@@MAEHXZ$0:
  00000	8d 4d e4	 lea	 ecx, DWORD PTR _candlePattern$2[ebp]
  00003	e9 00 00 00 00	 jmp	 ??1CCandlePattern@@UAE@XZ ; CCandlePattern::~CCandlePattern
__unwindfunclet$?OnInitDialog@CDlgEnvSetup4@@MAEHXZ$1:
  00008	8d 4d f0	 lea	 ecx, DWORD PTR _strName$4[ebp]
  0000b	ff 25 00 00 00
	00		 jmp	 DWORD PTR __imp_??1?$CStringT@DV?$StrTraitMFC_DLL@DV?$ChTraitsCRT@D@ATL@@@@@ATL@@QAE@XZ
__unwindfunclet$?OnInitDialog@CDlgEnvSetup4@@MAEHXZ$2:
  00011	8d 4d ec	 lea	 ecx, DWORD PTR $T3[ebp]
  00014	ff 25 00 00 00
	00		 jmp	 DWORD PTR __imp_??1?$CStringT@DV?$StrTraitMFC_DLL@DV?$ChTraitsCRT@D@ATL@@@@@ATL@@QAE@XZ
  0001a	cc		 int	 3
  0001b	cc		 int	 3
  0001c	cc		 int	 3
  0001d	cc		 int	 3
  0001e	cc		 int	 3
__ehhandler$?OnInitDialog@CDlgEnvSetup4@@MAEHXZ:
  0001f	90		 npad	 1
  00020	90		 npad	 1
  00021	8b 54 24 08	 mov	 edx, DWORD PTR [esp+8]
  00025	8d 42 0c	 lea	 eax, DWORD PTR [edx+12]
  00028	8b 4a e0	 mov	 ecx, DWORD PTR [edx-32]
  0002b	33 c8		 xor	 ecx, eax
  0002d	e8 00 00 00 00	 call	 @__security_check_cookie@4
  00032	b8 00 00 00 00	 mov	 eax, OFFSET __ehfuncinfo$?OnInitDialog@CDlgEnvSetup4@@MAEHXZ
  00037	e9 00 00 00 00	 jmp	 ___CxxFrameHandler3
text$x	ENDS
?OnInitDialog@CDlgEnvSetup4@@MAEHXZ ENDP		; CDlgEnvSetup4::OnInitDialog
; Function compile flags: /Ogtp
; File D:\git\src\IBK\IBK_DRFN\ProjSrc\SrcChartEx\ChartAddIn\ChartPatternAddIn\DlgEnvSetup4.cpp
;	COMDAT ?WindowProc@CDlgEnvSetup4@@MAEJIIJ@Z
_TEXT	SEGMENT
_message$ = 8						; size = 4
_wParam$ = 12						; size = 4
_lParam$ = 16						; size = 4
?WindowProc@CDlgEnvSetup4@@MAEJIIJ@Z PROC		; CDlgEnvSetup4::WindowProc, COMDAT
; _this$ = ecx

; 211  : {

  00000	55		 push	 ebp
  00001	8b ec		 mov	 ebp, esp

; 240  : }

  00003	5d		 pop	 ebp

; 212  : 	// TODO: Add your specialized code here and/or call the base class
; 213  : //	if(message == WM_NOTIFY)
; 214  : //	{
; 215  : //	   LPNMHDR lpnmh = (LPNMHDR) lParam;
; 216  : //	   TVHITTESTINFO ht = {0};
; 217  : //    
; 218  : //	   if((lpnmh->code  == NM_CLICK) && (lpnmh->idFrom == IDC_TREE_ITEMLIST))
; 219  : //	   {
; 220  : //		  DWORD dwpos = GetMessagePos();
; 221  : //
; 222  : //		  // include <windowsx.h> and <windows.h> header files
; 223  : //		  ht.pt.x = GET_X_LPARAM(dwpos);
; 224  : //		  ht.pt.y = GET_Y_LPARAM(dwpos);
; 225  : //		  CWnd::MapWindowPoints(&m_treeItem, &ht.pt, 1);
; 226  : //
; 227  : //		  TreeView_HitTest(lpnmh->hwndFrom, &ht);
; 228  : //         
; 229  : //		  if(TVHT_ONITEMSTATEICON & ht.flags)
; 230  : //		  {
; 231  : //			  m_treeItem.SelectItem(ht.hItem);
; 232  : //			  AfxMessageBox("TEST");
; 233  : //			  return FALSE;
; 234  : //			
; 235  : //			 //PostMessage(hWnd, UM_CHECKSTATECHANGE, 0, (LPARAM)ht.hItem);
; 236  : //		  }
; 237  : //	   }
; 238  : //	}
; 239  : 	return CDialog::WindowProc(message, wParam, lParam);

  00004	e9 00 00 00 00	 jmp	 ?WindowProc@CWnd@@MAEJIIJ@Z ; CWnd::WindowProc
?WindowProc@CDlgEnvSetup4@@MAEJIIJ@Z ENDP		; CDlgEnvSetup4::WindowProc
_TEXT	ENDS
; Function compile flags: /Ogtp
; File D:\git\src\IBK\IBK_DRFN\ProjSrc\SrcChartEx\ChartAddIn\ChartPatternAddIn\DlgEnvSetup4.cpp
;	COMDAT ?DoDataExchange@CDlgEnvSetup4@@MAEXPAVCDataExchange@@@Z
_TEXT	SEGMENT
_pDX$ = 8						; size = 4
?DoDataExchange@CDlgEnvSetup4@@MAEXPAVCDataExchange@@@Z PROC ; CDlgEnvSetup4::DoDataExchange, COMDAT
; _this$ = ecx

; 38   : {

  00000	55		 push	 ebp
  00001	8b ec		 mov	 ebp, esp
  00003	57		 push	 edi
  00004	8b f9		 mov	 edi, ecx

; 39   : 	CDialog::DoDataExchange(pDX);
; 40   : 	//{{AFX_DATA_MAP(CDlgEnvSetup4)
; 41   : 	DDX_Control(pDX, IDC_CHK_DISPLAYNAME, m_chkDisplayName);

  00006	8d 87 40 01 00
	00		 lea	 eax, DWORD PTR [edi+320]
  0000c	50		 push	 eax
  0000d	68 ee 07 00 00	 push	 2030			; 000007eeH
  00012	ff 75 08	 push	 DWORD PTR _pDX$[ebp]
  00015	e8 00 00 00 00	 call	 ?DDX_Control@@YGXPAVCDataExchange@@HAAVCWnd@@@Z ; DDX_Control

; 42   : 	DDX_Control(pDX, IDC_TREE_ITEMLIST, m_treeItem);

  0001a	8d 87 c0 00 00
	00		 lea	 eax, DWORD PTR [edi+192]
  00020	50		 push	 eax
  00021	68 f2 0b 00 00	 push	 3058			; 00000bf2H
  00026	ff 75 08	 push	 DWORD PTR _pDX$[ebp]
  00029	e8 00 00 00 00	 call	 ?DDX_Control@@YGXPAVCDataExchange@@HAAVCWnd@@@Z ; DDX_Control
  0002e	5f		 pop	 edi

; 43   : 	//}}AFX_DATA_MAP
; 44   : }

  0002f	5d		 pop	 ebp
  00030	c2 04 00	 ret	 4
?DoDataExchange@CDlgEnvSetup4@@MAEXPAVCDataExchange@@@Z ENDP ; CDlgEnvSetup4::DoDataExchange
_TEXT	ENDS
; Function compile flags: /Ogtp
; File D:\git\src\IBK\IBK_DRFN\ProjSrc\SrcChartEx\ChartAddIn\ChartPatternAddIn\DlgEnvSetup4.cpp
; File C:\Program Files (x86)\Microsoft Visual Studio\2019\Community\VC\Tools\MSVC\14.29.30133\atlmfc\include\afxwin2.inl
; File D:\git\src\IBK\IBK_DRFN\ProjSrc\SrcChartEx\ChartAddIn\ChartPatternAddIn\DlgEnvSetup4.cpp
; File C:\Program Files (x86)\Microsoft Visual Studio\2019\Community\VC\Tools\MSVC\14.29.30133\atlmfc\include\afxtempl.h
; File C:\Program Files (x86)\Microsoft Visual Studio\2019\Community\VC\Tools\MSVC\14.29.30133\atlmfc\include\afxcmn.inl
; File C:\Program Files (x86)\Microsoft Visual Studio\2019\Community\VC\Tools\MSVC\14.29.30133\atlmfc\include\afxtempl.h
; File C:\Program Files (x86)\Microsoft Visual Studio\2019\Community\VC\Tools\MSVC\14.29.30133\atlmfc\include\afxcmn.inl
; File D:\git\src\IBK\IBK_DRFN\ProjSrc\SrcChartEx\ChartAddIn\ChartPatternAddIn\DlgEnvSetup4.cpp
; File C:\Program Files (x86)\Microsoft Visual Studio\2019\Community\VC\Tools\MSVC\14.29.30133\atlmfc\include\afxtempl.h
; File D:\git\src\IBK\IBK_DRFN\ProjSrc\SrcChartEx\ChartAddIn\ChartPatternAddIn\DlgEnvSetup4.cpp
; File C:\Program Files (x86)\Microsoft Visual Studio\2019\Community\VC\Tools\MSVC\14.29.30133\atlmfc\include\afxtempl.h
; File C:\Program Files (x86)\Microsoft Visual Studio\2019\Community\VC\Tools\MSVC\14.29.30133\atlmfc\include\afxcmn.inl
; File D:\git\src\IBK\IBK_DRFN\ProjSrc\SrcChartEx\ChartAddIn\ChartPatternAddIn\DlgEnvSetup4.cpp
; File C:\Program Files (x86)\Microsoft Visual Studio\2019\Community\VC\Tools\MSVC\14.29.30133\atlmfc\include\afxtempl.h
; File D:\git\src\IBK\IBK_DRFN\ProjSrc\SrcChartEx\ChartAddIn\ChartPatternAddIn\DlgEnvSetup4.cpp
;	COMDAT ?OnOK@CDlgEnvSetup4@@UAEXXZ
_TEXT	SEGMENT
_this$1$ = -8						; size = 4
tv498 = -4						; size = 4
?OnOK@CDlgEnvSetup4@@UAEXXZ PROC			; CDlgEnvSetup4::OnOK, COMDAT
; _this$ = ecx

; 119  : {

  00000	55		 push	 ebp
  00001	8b ec		 mov	 ebp, esp
  00003	83 ec 08	 sub	 esp, 8
  00006	53		 push	 ebx
  00007	8b d9		 mov	 ebx, ecx
  00009	89 5d f8	 mov	 DWORD PTR _this$1$[ebp], ebx

; 120  : 	// TODO: Add extra validation here
; 121  : 	if ( m_pPatternEnvData)	

  0000c	83 bb b8 00 00
	00 00		 cmp	 DWORD PTR [ebx+184], 0
  00013	0f 84 e4 00 00
	00		 je	 $LN92@OnOK

; 122  : 	{
; 123  : 		UpdateData(TRUE);

  00019	56		 push	 esi
  0001a	57		 push	 edi
  0001b	6a 01		 push	 1
  0001d	e8 00 00 00 00	 call	 ?UpdateData@CWnd@@QAEHH@Z ; CWnd::UpdateData
; File C:\Program Files (x86)\Microsoft Visual Studio\2019\Community\VC\Tools\MSVC\14.29.30133\atlmfc\include\afxwin2.inl

; 628  : 	{ ASSERT(::IsWindow(m_hWnd)); return (int)::SendMessage(m_hWnd, BM_GETCHECK, 0, 0); }

  00022	8b 3d 00 00 00
	00		 mov	 edi, DWORD PTR __imp__SendMessageA@16
  00028	6a 00		 push	 0
  0002a	6a 00		 push	 0
  0002c	68 f0 00 00 00	 push	 240			; 000000f0H
  00031	ff b3 60 01 00
	00		 push	 DWORD PTR [ebx+352]
  00037	ff d7		 call	 edi
; File D:\git\src\IBK\IBK_DRFN\ProjSrc\SrcChartEx\ChartAddIn\ChartPatternAddIn\DlgEnvSetup4.cpp

; 124  : 		m_pPatternEnvData->m_bDrawPatternName = m_chkDisplayName.GetCheck();

  00039	8b 8b b8 00 00
	00		 mov	 ecx, DWORD PTR [ebx+184]
  0003f	89 81 88 00 00
	00		 mov	 DWORD PTR [ecx+136], eax

; 125  : 		
; 126  : 		m_pPatternEnvData->m_arrNotDisplayCandleItems.RemoveAll();

  00045	8b b3 b8 00 00
	00		 mov	 esi, DWORD PTR [ebx+184]
; File C:\Program Files (x86)\Microsoft Visual Studio\2019\Community\VC\Tools\MSVC\14.29.30133\atlmfc\include\afxtempl.h

; 381  : 		if (m_pData != NULL)

  0004b	8b 86 90 00 00
	00		 mov	 eax, DWORD PTR [esi+144]
  00051	85 c0		 test	 eax, eax
  00053	74 13		 je	 SHORT $LN31@OnOK

; 382  : 		{
; 383  : 			for( int i = 0; i < m_nSize; i++ )
; 384  : 				(m_pData + i)->~TYPE();
; 385  : 			delete[] (BYTE*)m_pData;

  00055	50		 push	 eax
  00056	e8 00 00 00 00	 call	 ??_V@YAXPAX@Z		; operator delete[]
  0005b	83 c4 04	 add	 esp, 4

; 386  : 			m_pData = NULL;

  0005e	c7 86 90 00 00
	00 00 00 00 00	 mov	 DWORD PTR [esi+144], 0
$LN31@OnOK:
; File C:\Program Files (x86)\Microsoft Visual Studio\2019\Community\VC\Tools\MSVC\14.29.30133\atlmfc\include\afxcmn.inl

; 322  : 	{ ASSERT(::IsWindow(m_hWnd)); return (HTREEITEM)::SendMessage(m_hWnd, TVM_GETNEXTITEM, TVGN_ROOT, 0); }

  00068	6a 00		 push	 0
  0006a	6a 00		 push	 0
  0006c	68 0a 11 00 00	 push	 4362			; 0000110aH
; File C:\Program Files (x86)\Microsoft Visual Studio\2019\Community\VC\Tools\MSVC\14.29.30133\atlmfc\include\afxtempl.h

; 388  : 		m_nSize = m_nMaxSize = 0;

  00071	c7 86 98 00 00
	00 00 00 00 00	 mov	 DWORD PTR [esi+152], 0
  0007b	c7 86 94 00 00
	00 00 00 00 00	 mov	 DWORD PTR [esi+148], 0
; File C:\Program Files (x86)\Microsoft Visual Studio\2019\Community\VC\Tools\MSVC\14.29.30133\atlmfc\include\afxcmn.inl

; 322  : 	{ ASSERT(::IsWindow(m_hWnd)); return (HTREEITEM)::SendMessage(m_hWnd, TVM_GETNEXTITEM, TVGN_ROOT, 0); }

  00085	ff b3 e0 00 00
	00		 push	 DWORD PTR [ebx+224]
  0008b	ff d7		 call	 edi
; File D:\git\src\IBK\IBK_DRFN\ProjSrc\SrcChartEx\ChartAddIn\ChartPatternAddIn\DlgEnvSetup4.cpp

; 127  : 		HTREEITEM hNextItem = m_treeItem.GetRootItem();

  0008d	8b f8		 mov	 edi, eax

; 128  : 		//HTREEITEM hNextItem;
; 129  : 		int nIdx=0;
; 130  : 		while (hNextItem != NULL)

  0008f	85 ff		 test	 edi, edi
  00091	74 68		 je	 SHORT $LN93@OnOK
; File C:\Program Files (x86)\Microsoft Visual Studio\2019\Community\VC\Tools\MSVC\14.29.30133\atlmfc\include\afxtempl.h

; 388  : 		m_nSize = m_nMaxSize = 0;

  00093	be 41 1f 00 00	 mov	 esi, 8001		; 00001f41H
  00098	89 75 fc	 mov	 DWORD PTR tv498[ebp], esi
$LN96@OnOK:
; File D:\git\src\IBK\IBK_DRFN\ProjSrc\SrcChartEx\ChartAddIn\ChartPatternAddIn\DlgEnvSetup4.cpp

; 133  : 			BOOL bCheck = m_treeItem.GetCheck(hNextItem);

  0009b	8d 83 c0 00 00
	00		 lea	 eax, DWORD PTR [ebx+192]
  000a1	57		 push	 edi
  000a2	8b c8		 mov	 ecx, eax
  000a4	e8 00 00 00 00	 call	 ?GetCheck@CTreeCtrl@@QBEHPAU_TREEITEM@@@Z ; CTreeCtrl::GetCheck

; 134  : 			if(!bCheck)

  000a9	85 c0		 test	 eax, eax
  000ab	75 30		 jne	 SHORT $LN79@OnOK

; 135  : 			{
; 136  : 				m_pPatternEnvData->m_arrNotDisplayCandleItems.Add(nIdx + CPTN_HAMMER);

  000ad	8b b3 b8 00 00
	00		 mov	 esi, DWORD PTR [ebx+184]
; File C:\Program Files (x86)\Microsoft Visual Studio\2019\Community\VC\Tools\MSVC\14.29.30133\atlmfc\include\afxtempl.h

; 333  : 	{ INT_PTR nIndex = m_nSize;

  000b3	8b 9e 94 00 00
	00		 mov	 ebx, DWORD PTR [esi+148]

; 538  : 	if(nIndex < 0)

  000b9	85 db		 test	 ebx, ebx
  000bb	78 45		 js	 SHORT $LN85@OnOK

; 540  : 
; 541  : 	if (nIndex >= m_nSize)
; 542  : 		SetSize(nIndex+1, -1);

  000bd	6a ff		 push	 -1
  000bf	8d 43 01	 lea	 eax, DWORD PTR [ebx+1]
  000c2	50		 push	 eax
  000c3	8d 8e 8c 00 00
	00		 lea	 ecx, DWORD PTR [esi+140]
  000c9	e8 00 00 00 00	 call	 ?SetSize@?$CArray@HH@@QAEXHH@Z ; CArray<int,int>::SetSize

; 543  : 	m_pData[nIndex] = newElement;

  000ce	8b 86 90 00 00
	00		 mov	 eax, DWORD PTR [esi+144]
  000d4	8b 75 fc	 mov	 esi, DWORD PTR tv498[ebp]
  000d7	89 34 98	 mov	 DWORD PTR [eax+ebx*4], esi
  000da	8b 5d f8	 mov	 ebx, DWORD PTR _this$1$[ebp]
$LN79@OnOK:
; File C:\Program Files (x86)\Microsoft Visual Studio\2019\Community\VC\Tools\MSVC\14.29.30133\atlmfc\include\afxcmn.inl

; 298  : 	{ ASSERT(::IsWindow(m_hWnd)); return (HTREEITEM)::SendMessage(m_hWnd, TVM_GETNEXTITEM, nCode, (LPARAM)hItem); }

  000dd	57		 push	 edi
  000de	6a 01		 push	 1
  000e0	68 0a 11 00 00	 push	 4362			; 0000110aH
  000e5	ff b3 e0 00 00
	00		 push	 DWORD PTR [ebx+224]
  000eb	ff 15 00 00 00
	00		 call	 DWORD PTR __imp__SendMessageA@16
; File D:\git\src\IBK\IBK_DRFN\ProjSrc\SrcChartEx\ChartAddIn\ChartPatternAddIn\DlgEnvSetup4.cpp

; 138  : 			hNextItem = m_treeItem.GetNextItem(hNextItem, TVGN_NEXT);

  000f1	8b f8		 mov	 edi, eax

; 139  : 			//hChildItem = hNextItem;
; 140  : 			nIdx++;

  000f3	46		 inc	 esi
  000f4	89 75 fc	 mov	 DWORD PTR tv498[ebp], esi
  000f7	85 ff		 test	 edi, edi
  000f9	75 a0		 jne	 SHORT $LN96@OnOK
$LN93@OnOK:
  000fb	5f		 pop	 edi
  000fc	5e		 pop	 esi
$LN92@OnOK:
  000fd	5b		 pop	 ebx

; 145  : }

  000fe	8b e5		 mov	 esp, ebp
  00100	5d		 pop	 ebp
  00101	c3		 ret	 0
$LN85@OnOK:
; File C:\Program Files (x86)\Microsoft Visual Studio\2019\Community\VC\Tools\MSVC\14.29.30133\atlmfc\include\afxtempl.h

; 539  : 		AfxThrowInvalidArgException();

  00102	e8 00 00 00 00	 call	 ?AfxThrowInvalidArgException@@YGXXZ ; AfxThrowInvalidArgException
$LN95@OnOK:
  00107	cc		 int	 3
?OnOK@CDlgEnvSetup4@@UAEXXZ ENDP			; CDlgEnvSetup4::OnOK
_TEXT	ENDS
; Function compile flags: /Ogtp
; File D:\git\src\IBK\IBK_DRFN\ProjSrc\SrcChartEx\ChartAddIn\ChartPatternAddIn\DlgEnvSetup4.cpp
; File C:\Program Files (x86)\Microsoft Visual Studio\2019\Community\VC\Tools\MSVC\14.29.30133\atlmfc\include\afxwin2.inl
; File D:\git\src\IBK\IBK_DRFN\ProjSrc\SrcChartEx\ChartAddIn\ChartPatternAddIn\DlgEnvSetup4.cpp
; File C:\Program Files (x86)\Microsoft Visual Studio\2019\Community\VC\Tools\MSVC\14.29.30133\atlmfc\include\afxcmn.inl
; File D:\git\src\IBK\IBK_DRFN\ProjSrc\SrcChartEx\ChartAddIn\ChartPatternAddIn\DlgEnvSetup4.cpp
; File C:\Program Files (x86)\Microsoft Visual Studio\2019\Community\VC\Tools\MSVC\14.29.30133\atlmfc\include\afxcmn.inl
; File D:\git\src\IBK\IBK_DRFN\ProjSrc\SrcChartEx\ChartAddIn\ChartPatternAddIn\DlgEnvSetup4.cpp
;	COMDAT ?SetPatternEnvDataToControl@CDlgEnvSetup4@@QAEXXZ
_TEXT	SEGMENT
_candlePattern$2 = -28					; size = 8
$T3 = -20						; size = 4
_strName$4 = -16					; size = 4
__$EHRec$ = -12						; size = 12
?SetPatternEnvDataToControl@CDlgEnvSetup4@@QAEXXZ PROC	; CDlgEnvSetup4::SetPatternEnvDataToControl, COMDAT
; _this$ = ecx

; 79   : {

  00000	55		 push	 ebp
  00001	8b ec		 mov	 ebp, esp
  00003	6a ff		 push	 -1
  00005	68 00 00 00 00	 push	 __ehhandler$?SetPatternEnvDataToControl@CDlgEnvSetup4@@QAEXXZ
  0000a	64 a1 00 00 00
	00		 mov	 eax, DWORD PTR fs:0
  00010	50		 push	 eax
  00011	83 ec 10	 sub	 esp, 16			; 00000010H
  00014	53		 push	 ebx
  00015	56		 push	 esi
  00016	57		 push	 edi
  00017	a1 00 00 00 00	 mov	 eax, DWORD PTR ___security_cookie
  0001c	33 c5		 xor	 eax, ebp
  0001e	50		 push	 eax
  0001f	8d 45 f4	 lea	 eax, DWORD PTR __$EHRec$[ebp]
  00022	64 a3 00 00 00
	00		 mov	 DWORD PTR fs:0, eax
  00028	8b d9		 mov	 ebx, ecx

; 80   : 	if ( m_pPatternEnvData)

  0002a	8b 83 b8 00 00
	00		 mov	 eax, DWORD PTR [ebx+184]
  00030	85 c0		 test	 eax, eax
  00032	0f 84 01 01 00
	00		 je	 $LN5@SetPattern
; File C:\Program Files (x86)\Microsoft Visual Studio\2019\Community\VC\Tools\MSVC\14.29.30133\atlmfc\include\afxwin2.inl

; 630  : 	{ ASSERT(::IsWindow(m_hWnd)); ::SendMessage(m_hWnd, BM_SETCHECK, nCheck, 0); }

  00038	6a 00		 push	 0
  0003a	ff b0 88 00 00
	00		 push	 DWORD PTR [eax+136]
  00040	68 f1 00 00 00	 push	 241			; 000000f1H
  00045	ff b3 60 01 00
	00		 push	 DWORD PTR [ebx+352]
  0004b	ff 15 00 00 00
	00		 call	 DWORD PTR __imp__SendMessageA@16
; File D:\git\src\IBK\IBK_DRFN\ProjSrc\SrcChartEx\ChartAddIn\ChartPatternAddIn\DlgEnvSetup4.cpp

; 86   : 		m_treeItem.ModifyStyle(0, WS_VISIBLE | WS_TABSTOP | WS_CHILD | WS_BORDER | TVS_DISABLEDRAGDROP | 

  00051	6a 00		 push	 0
  00053	68 91 01 81 50	 push	 1350631825		; 50810191H
  00058	8d b3 c0 00 00
	00		 lea	 esi, DWORD PTR [ebx+192]
  0005e	6a 00		 push	 0
  00060	8b ce		 mov	 ecx, esi
  00062	e8 00 00 00 00	 call	 ?ModifyStyle@CWnd@@QAEHKKI@Z ; CWnd::ModifyStyle

; 87   : 			TVS_HASBUTTONS | TVS_NOTOOLTIPS | 
; 88   : 			TVS_CHECKBOXES);
; 89   : 		//	m_treeItem.ModifyStyle(TVS_CHECKBOXES,0);
; 90   : 		//	m_treeItem.ModifyStyle(0,TVS_CHECKBOXES);
; 91   : 
; 92   : 		HTREEITEM hFirst=0;
; 93   : 
; 94   : 		CCandlePattern candlePattern;

  00067	8d 4d e4	 lea	 ecx, DWORD PTR _candlePattern$2[ebp]
  0006a	e8 00 00 00 00	 call	 ??0CCandlePattern@@QAE@XZ ; CCandlePattern::CCandlePattern

; 95   : 		CString strName;

  0006f	8d 4d f0	 lea	 ecx, DWORD PTR _strName$4[ebp]
  00072	c7 45 fc 00 00
	00 00		 mov	 DWORD PTR __$EHRec$[ebp+8], 0
  00079	ff 15 00 00 00
	00		 call	 DWORD PTR __imp_??0?$CStringT@DV?$StrTraitMFC_DLL@DV?$ChTraitsCRT@D@ATL@@@@@ATL@@QAE@XZ
  0007f	c6 45 fc 01	 mov	 BYTE PTR __$EHRec$[ebp+8], 1

; 96   : 		HTREEITEM hItem = NULL;
; 97   : 		int nItem=0;
; 98   : 
; 99   : 		//for(int i = CPTN_HAMMER; i<=CPTN_BULLISH_DRAGONFLY; i++)
; 100  : 		for(int i = CPTN_HAMMER; i<=CPTN_THRUSTINGLINE; i++)

  00083	bf 41 1f 00 00	 mov	 edi, 8001		; 00001f41H
$LL4@SetPattern:

; 101  : 		{
; 102  : 			strName = candlePattern.GetCandlePatternName(i);

  00088	57		 push	 edi
  00089	8d 45 ec	 lea	 eax, DWORD PTR $T3[ebp]
  0008c	50		 push	 eax
  0008d	8d 4d e4	 lea	 ecx, DWORD PTR _candlePattern$2[ebp]
  00090	e8 00 00 00 00	 call	 ?GetCandlePatternName@CCandlePattern@@QAE?AV?$CStringT@DV?$StrTraitMFC_DLL@DV?$ChTraitsCRT@D@ATL@@@@@ATL@@H@Z ; CCandlePattern::GetCandlePatternName
  00095	50		 push	 eax
  00096	8d 4d f0	 lea	 ecx, DWORD PTR _strName$4[ebp]
  00099	c6 45 fc 02	 mov	 BYTE PTR __$EHRec$[ebp+8], 2
  0009d	ff 15 00 00 00
	00		 call	 DWORD PTR __imp_??4?$CStringT@DV?$StrTraitMFC_DLL@DV?$ChTraitsCRT@D@ATL@@@@@ATL@@QAEAAV01@ABV01@@Z
  000a3	8d 4d ec	 lea	 ecx, DWORD PTR $T3[ebp]
  000a6	c6 45 fc 01	 mov	 BYTE PTR __$EHRec$[ebp+8], 1
  000aa	ff 15 00 00 00
	00		 call	 DWORD PTR __imp_??1?$CStringT@DV?$StrTraitMFC_DLL@DV?$ChTraitsCRT@D@ATL@@@@@ATL@@QAE@XZ
; File C:\Program Files (x86)\Microsoft Visual Studio\2019\Community\VC\Tools\MSVC\14.29.30133\atlmfc\include\afxcmn.inl

; 271  : 	{ ASSERT(::IsWindow(m_hWnd)); return InsertItem(TVIF_TEXT, lpszItem, 0, 0, 0, 0, 0, hParent, hInsertAfter); }

  000b0	68 02 00 ff ff	 push	 -65534			; ffff0002H
  000b5	68 00 00 ff ff	 push	 -65536			; ffff0000H
  000ba	6a 00		 push	 0
  000bc	6a 00		 push	 0
  000be	6a 00		 push	 0
  000c0	6a 00		 push	 0
  000c2	6a 00		 push	 0
  000c4	ff 75 f0	 push	 DWORD PTR _strName$4[ebp]
  000c7	8b ce		 mov	 ecx, esi
  000c9	6a 01		 push	 1
  000cb	e8 00 00 00 00	 call	 ?InsertItem@CTreeCtrl@@QAEPAU_TREEITEM@@IPBDHHIIJPAU2@1@Z ; CTreeCtrl::InsertItem

; 342  : 	{ ASSERT(::IsWindow(m_hWnd)); return SetItem(hItem, TVIF_PARAM, NULL, 0, 0, 0, 0, (LPARAM)dwData); }

  000d0	8d 8f bf e0 ff
	ff		 lea	 ecx, DWORD PTR [edi-8001]
; File D:\git\src\IBK\IBK_DRFN\ProjSrc\SrcChartEx\ChartAddIn\ChartPatternAddIn\DlgEnvSetup4.cpp

; 103  : 			hItem = m_treeItem.InsertItem(strName);	

  000d6	8b f0		 mov	 esi, eax
; File C:\Program Files (x86)\Microsoft Visual Studio\2019\Community\VC\Tools\MSVC\14.29.30133\atlmfc\include\afxcmn.inl

; 342  : 	{ ASSERT(::IsWindow(m_hWnd)); return SetItem(hItem, TVIF_PARAM, NULL, 0, 0, 0, 0, (LPARAM)dwData); }

  000d8	51		 push	 ecx
  000d9	6a 00		 push	 0
  000db	6a 00		 push	 0
  000dd	6a 00		 push	 0
  000df	6a 00		 push	 0
  000e1	6a 00		 push	 0
  000e3	6a 04		 push	 4
  000e5	56		 push	 esi
  000e6	8d 8b c0 00 00
	00		 lea	 ecx, DWORD PTR [ebx+192]
  000ec	e8 00 00 00 00	 call	 ?SetItem@CTreeCtrl@@QAEHPAU_TREEITEM@@IPBDHHIIJ@Z ; CTreeCtrl::SetItem
; File D:\git\src\IBK\IBK_DRFN\ProjSrc\SrcChartEx\ChartAddIn\ChartPatternAddIn\DlgEnvSetup4.cpp

; 107  : 			if(m_pPatternEnvData->IsDisplayCandle(i))

  000f1	8b 8b b8 00 00
	00		 mov	 ecx, DWORD PTR [ebx+184]
  000f7	57		 push	 edi
  000f8	e8 00 00 00 00	 call	 ?IsDisplayCandle@CPatternEnvData@@QAEHH@Z ; CPatternEnvData::IsDisplayCandle
  000fd	f7 d8		 neg	 eax
  000ff	1b c0		 sbb	 eax, eax
  00101	f7 d8		 neg	 eax

; 108  : 				m_treeItem.SetCheck(hItem,TRUE);		
; 109  : 			else 
; 110  : 				m_treeItem.SetCheck(hItem,FALSE);
; 111  : 			nItem++;

  00103	50		 push	 eax
  00104	56		 push	 esi
  00105	8d b3 c0 00 00
	00		 lea	 esi, DWORD PTR [ebx+192]
  0010b	8b ce		 mov	 ecx, esi
  0010d	e8 00 00 00 00	 call	 ?SetCheck@CTreeCtrl@@QAEHPAU_TREEITEM@@H@Z ; CTreeCtrl::SetCheck
  00112	47		 inc	 edi
  00113	81 ff 7e 1f 00
	00		 cmp	 edi, 8062		; 00001f7eH
  00119	0f 8e 69 ff ff
	ff		 jle	 $LL4@SetPattern

; 112  : 		}
; 113  : 		//m_treeItem.SelectItem(hFirst);
; 114  : 		UpdateData(FALSE);

  0011f	6a 00		 push	 0
  00121	8b cb		 mov	 ecx, ebx
  00123	e8 00 00 00 00	 call	 ?UpdateData@CWnd@@QAEHH@Z ; CWnd::UpdateData

; 115  : 	}

  00128	8d 4d f0	 lea	 ecx, DWORD PTR _strName$4[ebp]
  0012b	ff 15 00 00 00
	00		 call	 DWORD PTR __imp_??1?$CStringT@DV?$StrTraitMFC_DLL@DV?$ChTraitsCRT@D@ATL@@@@@ATL@@QAE@XZ
  00131	8d 4d e4	 lea	 ecx, DWORD PTR _candlePattern$2[ebp]
  00134	e8 00 00 00 00	 call	 ??1CCandlePattern@@UAE@XZ ; CCandlePattern::~CCandlePattern
$LN5@SetPattern:

; 116  : }

  00139	8b 4d f4	 mov	 ecx, DWORD PTR __$EHRec$[ebp]
  0013c	64 89 0d 00 00
	00 00		 mov	 DWORD PTR fs:0, ecx
  00143	59		 pop	 ecx
  00144	5f		 pop	 edi
  00145	5e		 pop	 esi
  00146	5b		 pop	 ebx
  00147	8b e5		 mov	 esp, ebp
  00149	5d		 pop	 ebp
  0014a	c3		 ret	 0
_TEXT	ENDS
;	COMDAT text$x
text$x	SEGMENT
__unwindfunclet$?SetPatternEnvDataToControl@CDlgEnvSetup4@@QAEXXZ$0:
  00000	8d 4d e4	 lea	 ecx, DWORD PTR _candlePattern$2[ebp]
  00003	e9 00 00 00 00	 jmp	 ??1CCandlePattern@@UAE@XZ ; CCandlePattern::~CCandlePattern
__unwindfunclet$?SetPatternEnvDataToControl@CDlgEnvSetup4@@QAEXXZ$1:
  00008	8d 4d f0	 lea	 ecx, DWORD PTR _strName$4[ebp]
  0000b	ff 25 00 00 00
	00		 jmp	 DWORD PTR __imp_??1?$CStringT@DV?$StrTraitMFC_DLL@DV?$ChTraitsCRT@D@ATL@@@@@ATL@@QAE@XZ
__unwindfunclet$?SetPatternEnvDataToControl@CDlgEnvSetup4@@QAEXXZ$2:
  00011	8d 4d ec	 lea	 ecx, DWORD PTR $T3[ebp]
  00014	ff 25 00 00 00
	00		 jmp	 DWORD PTR __imp_??1?$CStringT@DV?$StrTraitMFC_DLL@DV?$ChTraitsCRT@D@ATL@@@@@ATL@@QAE@XZ
  0001a	cc		 int	 3
  0001b	cc		 int	 3
  0001c	cc		 int	 3
  0001d	cc		 int	 3
  0001e	cc		 int	 3
__ehhandler$?SetPatternEnvDataToControl@CDlgEnvSetup4@@QAEXXZ:
  0001f	90		 npad	 1
  00020	90		 npad	 1
  00021	8b 54 24 08	 mov	 edx, DWORD PTR [esp+8]
  00025	8d 42 0c	 lea	 eax, DWORD PTR [edx+12]
  00028	8b 4a e0	 mov	 ecx, DWORD PTR [edx-32]
  0002b	33 c8		 xor	 ecx, eax
  0002d	e8 00 00 00 00	 call	 @__security_check_cookie@4
  00032	b8 00 00 00 00	 mov	 eax, OFFSET __ehfuncinfo$?SetPatternEnvDataToControl@CDlgEnvSetup4@@QAEXXZ
  00037	e9 00 00 00 00	 jmp	 ___CxxFrameHandler3
text$x	ENDS
?SetPatternEnvDataToControl@CDlgEnvSetup4@@QAEXXZ ENDP	; CDlgEnvSetup4::SetPatternEnvDataToControl
; Function compile flags: /Ogtp
; File D:\git\src\IBK\IBK_DRFN\ProjSrc\SrcChartEx\ChartAddIn\ChartPatternAddIn\DlgEnvSetup4.cpp
;	COMDAT ?SetPatternEnvData@CDlgEnvSetup4@@QAEXPAVCPatternEnvData@@@Z
_TEXT	SEGMENT
_pPatternEnvData$ = 8					; size = 4
?SetPatternEnvData@CDlgEnvSetup4@@QAEXPAVCPatternEnvData@@@Z PROC ; CDlgEnvSetup4::SetPatternEnvData, COMDAT
; _this$ = ecx

; 71   : {

  00000	55		 push	 ebp
  00001	8b ec		 mov	 ebp, esp

; 72   : 	if ( pPatternEnvData)

  00003	8b 45 08	 mov	 eax, DWORD PTR _pPatternEnvData$[ebp]
  00006	85 c0		 test	 eax, eax
  00008	74 06		 je	 SHORT $LN2@SetPattern

; 73   : 	{
; 74   : 		m_pPatternEnvData = pPatternEnvData;

  0000a	89 81 b8 00 00
	00		 mov	 DWORD PTR [ecx+184], eax
$LN2@SetPattern:

; 75   : 	}
; 76   : }

  00010	5d		 pop	 ebp
  00011	c2 04 00	 ret	 4
?SetPatternEnvData@CDlgEnvSetup4@@QAEXPAVCPatternEnvData@@@Z ENDP ; CDlgEnvSetup4::SetPatternEnvData
_TEXT	ENDS
; Function compile flags: /Ogtp
; File D:\git\src\IBK\IBK_DRFN\ProjSrc\SrcChartEx\ChartAddIn\ChartPatternAddIn\DlgEnvSetup4.cpp
; File C:\Program Files (x86)\Microsoft Visual Studio\2019\Community\VC\Tools\MSVC\14.29.30133\atlmfc\include\afxwin1.inl
; File D:\git\src\IBK\IBK_DRFN\ProjSrc\SrcChartEx\ChartAddIn\ChartPatternAddIn\DlgEnvSetup4.cpp
; File C:\Program Files (x86)\Microsoft Visual Studio\2019\Community\VC\Tools\MSVC\14.29.30133\atlmfc\include\afxwin1.inl
; File D:\git\src\IBK\IBK_DRFN\ProjSrc\SrcChartEx\ChartAddIn\ChartPatternAddIn\DlgEnvSetup4.cpp
; File C:\Program Files (x86)\Microsoft Visual Studio\2019\Community\VC\Tools\MSVC\14.29.30133\atlmfc\include\afxcmn.inl
; File D:\git\src\IBK\IBK_DRFN\ProjSrc\SrcChartEx\ChartAddIn\ChartPatternAddIn\DlgEnvSetup4.cpp
; File C:\Program Files (x86)\Microsoft Visual Studio\2019\Community\VC\Tools\MSVC\14.29.30133\atlmfc\include\afxcmn.inl
; File D:\git\src\IBK\IBK_DRFN\ProjSrc\SrcChartEx\ChartAddIn\ChartPatternAddIn\DlgEnvSetup4.cpp
; File C:\Program Files (x86)\Microsoft Visual Studio\2019\Community\VC\Tools\MSVC\14.29.30133\atlmfc\include\afxwin2.inl
; File D:\git\src\IBK\IBK_DRFN\ProjSrc\SrcChartEx\ChartAddIn\ChartPatternAddIn\DlgEnvSetup4.cpp
; File C:\Program Files (x86)\Microsoft Visual Studio\2019\Community\VC\Tools\MSVC\14.29.30133\atlmfc\include\afxwin2.inl
; File D:\git\src\IBK\IBK_DRFN\ProjSrc\SrcChartEx\ChartAddIn\ChartPatternAddIn\DlgEnvSetup4.cpp
; File C:\Program Files (x86)\Microsoft Visual Studio\2019\Community\VC\Tools\MSVC\14.29.30133\atlmfc\include\afxwin1.inl
; File D:\git\src\IBK\IBK_DRFN\ProjSrc\SrcChartEx\ChartAddIn\ChartPatternAddIn\DlgEnvSetup4.cpp
; File C:\Program Files (x86)\Microsoft Visual Studio\2019\Community\VC\Tools\MSVC\14.29.30133\atlmfc\include\afxwin1.inl
; File D:\git\src\IBK\IBK_DRFN\ProjSrc\SrcChartEx\ChartAddIn\ChartPatternAddIn\DlgEnvSetup4.cpp
;	COMDAT ??0CDlgEnvSetup4@@QAE@PAVCWnd@@@Z
_TEXT	SEGMENT
_this$ = -16						; size = 4
__$EHRec$ = -12						; size = 12
_this$ = 8						; size = 4
_this$ = 8						; size = 4
_pParent$ = 8						; size = 4
??0CDlgEnvSetup4@@QAE@PAVCWnd@@@Z PROC			; CDlgEnvSetup4::CDlgEnvSetup4, COMDAT
; _this$ = ecx

; 25   : {

  00000	55		 push	 ebp
  00001	8b ec		 mov	 ebp, esp
  00003	6a ff		 push	 -1
  00005	68 00 00 00 00	 push	 __ehhandler$??0CDlgEnvSetup4@@QAE@PAVCWnd@@@Z
  0000a	64 a1 00 00 00
	00		 mov	 eax, DWORD PTR fs:0
  00010	50		 push	 eax
  00011	51		 push	 ecx
  00012	53		 push	 ebx
  00013	56		 push	 esi
  00014	57		 push	 edi
  00015	a1 00 00 00 00	 mov	 eax, DWORD PTR ___security_cookie
  0001a	33 c5		 xor	 eax, ebp
  0001c	50		 push	 eax
  0001d	8d 45 f4	 lea	 eax, DWORD PTR __$EHRec$[ebp]
  00020	64 a3 00 00 00
	00		 mov	 DWORD PTR fs:0, eax
  00026	8b f1		 mov	 esi, ecx
  00028	89 75 f0	 mov	 DWORD PTR _this$[ebp], esi

; 24   : 	: CDialog(CDlgEnvSetup4::IDD, pParent)

  0002b	ff 75 08	 push	 DWORD PTR _pParent$[ebp]
  0002e	68 0c 52 00 00	 push	 21004			; 0000520cH
  00033	e8 00 00 00 00	 call	 ??0CDialog@@QAE@IPAVCWnd@@@Z ; CDialog::CDialog

; 25   : {

  00038	8d be a8 00 00
	00		 lea	 edi, DWORD PTR [esi+168]
  0003e	c7 06 00 00 00
	00		 mov	 DWORD PTR [esi], OFFSET ??_7CDlgEnvSetup4@@6B@
  00044	c7 45 fc 00 00
	00 00		 mov	 DWORD PTR __$EHRec$[ebp+8], 0
; File C:\Program Files (x86)\Microsoft Visual Studio\2019\Community\VC\Tools\MSVC\14.29.30133\atlmfc\include\afxwin1.inl

; 70   : 	{ m_hObject = NULL; }

  0004b	c7 47 04 00 00
	00 00		 mov	 DWORD PTR [edi+4], 0

; 128  : 	{ }

  00052	c7 07 00 00 00
	00		 mov	 DWORD PTR [edi], OFFSET ??_7CBrush@@6B@
; File D:\git\src\IBK\IBK_DRFN\ProjSrc\SrcChartEx\ChartAddIn\ChartPatternAddIn\DlgEnvSetup4.cpp

; 25   : {

  00058	8d 9e b0 00 00
	00		 lea	 ebx, DWORD PTR [esi+176]
; File C:\Program Files (x86)\Microsoft Visual Studio\2019\Community\VC\Tools\MSVC\14.29.30133\atlmfc\include\afxwin1.inl

; 70   : 	{ m_hObject = NULL; }

  0005e	c7 43 04 00 00
	00 00		 mov	 DWORD PTR [ebx+4], 0

; 128  : 	{ }

  00065	c7 03 00 00 00
	00		 mov	 DWORD PTR [ebx], OFFSET ??_7CBrush@@6B@
; File D:\git\src\IBK\IBK_DRFN\ProjSrc\SrcChartEx\ChartAddIn\ChartPatternAddIn\DlgEnvSetup4.cpp

; 25   : {

  0006b	81 c6 c0 00 00
	00		 add	 esi, 192		; 000000c0H
  00071	c6 45 fc 02	 mov	 BYTE PTR __$EHRec$[ebp+8], 2
; File C:\Program Files (x86)\Microsoft Visual Studio\2019\Community\VC\Tools\MSVC\14.29.30133\atlmfc\include\afxcmn.inl

; 264  : 	{ }

  00075	8b ce		 mov	 ecx, esi
; File D:\git\src\IBK\IBK_DRFN\ProjSrc\SrcChartEx\ChartAddIn\ChartPatternAddIn\DlgEnvSetup4.cpp

; 25   : {

  00077	89 75 08	 mov	 DWORD PTR _this$[ebp], esi
; File C:\Program Files (x86)\Microsoft Visual Studio\2019\Community\VC\Tools\MSVC\14.29.30133\atlmfc\include\afxcmn.inl

; 264  : 	{ }

  0007a	e8 00 00 00 00	 call	 ??0CWnd@@QAE@XZ		; CWnd::CWnd
  0007f	c7 06 00 00 00
	00		 mov	 DWORD PTR [esi], OFFSET ??_7CTreeCtrl@@6B@
; File D:\git\src\IBK\IBK_DRFN\ProjSrc\SrcChartEx\ChartAddIn\ChartPatternAddIn\DlgEnvSetup4.cpp

; 25   : {

  00085	8b 75 f0	 mov	 esi, DWORD PTR _this$[ebp]
  00088	81 c6 40 01 00
	00		 add	 esi, 320		; 00000140H
  0008e	c6 45 fc 03	 mov	 BYTE PTR __$EHRec$[ebp+8], 3
; File C:\Program Files (x86)\Microsoft Visual Studio\2019\Community\VC\Tools\MSVC\14.29.30133\atlmfc\include\afxwin2.inl

; 622  : 	{ }

  00092	8b ce		 mov	 ecx, esi
; File D:\git\src\IBK\IBK_DRFN\ProjSrc\SrcChartEx\ChartAddIn\ChartPatternAddIn\DlgEnvSetup4.cpp

; 25   : {

  00094	89 75 08	 mov	 DWORD PTR _this$[ebp], esi
; File C:\Program Files (x86)\Microsoft Visual Studio\2019\Community\VC\Tools\MSVC\14.29.30133\atlmfc\include\afxwin2.inl

; 622  : 	{ }

  00097	e8 00 00 00 00	 call	 ??0CWnd@@QAE@XZ		; CWnd::CWnd
  0009c	c7 06 00 00 00
	00		 mov	 DWORD PTR [esi], OFFSET ??_7CButton@@6B@
; File D:\git\src\IBK\IBK_DRFN\ProjSrc\SrcChartEx\ChartAddIn\ChartPatternAddIn\DlgEnvSetup4.cpp

; 29   : 	m_pPatternEnvData = NULL;

  000a2	8b 45 f0	 mov	 eax, DWORD PTR _this$[ebp]
; File C:\Program Files (x86)\Microsoft Visual Studio\2019\Community\VC\Tools\MSVC\14.29.30133\atlmfc\include\afxwin1.inl

; 132  : 	{ return Attach(::CreateSolidBrush(crColor)); }

  000a5	8b 35 00 00 00
	00		 mov	 esi, DWORD PTR __imp__CreateSolidBrush@4
  000ab	68 dd e0 e9 00	 push	 15327453		; 00e9e0ddH
; File D:\git\src\IBK\IBK_DRFN\ProjSrc\SrcChartEx\ChartAddIn\ChartPatternAddIn\DlgEnvSetup4.cpp

; 25   : {

  000b0	c6 45 fc 04	 mov	 BYTE PTR __$EHRec$[ebp+8], 4

; 29   : 	m_pPatternEnvData = NULL;

  000b4	c7 80 b8 00 00
	00 00 00 00 00	 mov	 DWORD PTR [eax+184], 0
; File C:\Program Files (x86)\Microsoft Visual Studio\2019\Community\VC\Tools\MSVC\14.29.30133\atlmfc\include\afxwin1.inl

; 132  : 	{ return Attach(::CreateSolidBrush(crColor)); }

  000be	ff d6		 call	 esi
  000c0	50		 push	 eax
  000c1	8b cf		 mov	 ecx, edi
  000c3	e8 00 00 00 00	 call	 ?Attach@CGdiObject@@QAEHPAX@Z ; CGdiObject::Attach
  000c8	68 ff ff ff 00	 push	 16777215		; 00ffffffH
  000cd	ff d6		 call	 esi
  000cf	50		 push	 eax
  000d0	8b cb		 mov	 ecx, ebx
  000d2	e8 00 00 00 00	 call	 ?Attach@CGdiObject@@QAEHPAX@Z ; CGdiObject::Attach
; File D:\git\src\IBK\IBK_DRFN\ProjSrc\SrcChartEx\ChartAddIn\ChartPatternAddIn\DlgEnvSetup4.cpp

; 34   : }

  000d7	8b 45 f0	 mov	 eax, DWORD PTR _this$[ebp]
  000da	8b 4d f4	 mov	 ecx, DWORD PTR __$EHRec$[ebp]
  000dd	64 89 0d 00 00
	00 00		 mov	 DWORD PTR fs:0, ecx
  000e4	59		 pop	 ecx
  000e5	5f		 pop	 edi
  000e6	5e		 pop	 esi
  000e7	5b		 pop	 ebx
  000e8	8b e5		 mov	 esp, ebp
  000ea	5d		 pop	 ebp
  000eb	c2 04 00	 ret	 4
_TEXT	ENDS
;	COMDAT text$x
text$x	SEGMENT
__unwindfunclet$??0CDlgEnvSetup4@@QAE@PAVCWnd@@@Z$0:
  00000	8b 4d f0	 mov	 ecx, DWORD PTR _this$[ebp]
  00003	e9 00 00 00 00	 jmp	 ??1CDialog@@UAE@XZ	; CDialog::~CDialog
__unwindfunclet$??0CDlgEnvSetup4@@QAE@PAVCWnd@@@Z$1:
  00008	8b 4d f0	 mov	 ecx, DWORD PTR _this$[ebp]
  0000b	81 c1 a8 00 00
	00		 add	 ecx, 168		; 000000a8H
  00011	e9 00 00 00 00	 jmp	 ??1CBrush@@UAE@XZ	; CBrush::~CBrush
__unwindfunclet$??0CDlgEnvSetup4@@QAE@PAVCWnd@@@Z$2:
  00016	8b 4d f0	 mov	 ecx, DWORD PTR _this$[ebp]
  00019	81 c1 b0 00 00
	00		 add	 ecx, 176		; 000000b0H
  0001f	e9 00 00 00 00	 jmp	 ??1CBrush@@UAE@XZ	; CBrush::~CBrush
__unwindfunclet$??0CDlgEnvSetup4@@QAE@PAVCWnd@@@Z$3:
  00024	8b 4d f0	 mov	 ecx, DWORD PTR _this$[ebp]
  00027	81 c1 c0 00 00
	00		 add	 ecx, 192		; 000000c0H
  0002d	e9 00 00 00 00	 jmp	 ??1CTreeCtrl@@UAE@XZ	; CTreeCtrl::~CTreeCtrl
__unwindfunclet$??0CDlgEnvSetup4@@QAE@PAVCWnd@@@Z$4:
  00032	8b 4d f0	 mov	 ecx, DWORD PTR _this$[ebp]
  00035	81 c1 40 01 00
	00		 add	 ecx, 320		; 00000140H
  0003b	e9 00 00 00 00	 jmp	 ??1CButton@@UAE@XZ	; CButton::~CButton
  00040	cc		 int	 3
  00041	cc		 int	 3
  00042	cc		 int	 3
  00043	cc		 int	 3
  00044	cc		 int	 3
__ehhandler$??0CDlgEnvSetup4@@QAE@PAVCWnd@@@Z:
  00045	90		 npad	 1
  00046	90		 npad	 1
  00047	8b 54 24 08	 mov	 edx, DWORD PTR [esp+8]
  0004b	8d 42 0c	 lea	 eax, DWORD PTR [edx+12]
  0004e	8b 4a ec	 mov	 ecx, DWORD PTR [edx-20]
  00051	33 c8		 xor	 ecx, eax
  00053	e8 00 00 00 00	 call	 @__security_check_cookie@4
  00058	b8 00 00 00 00	 mov	 eax, OFFSET __ehfuncinfo$??0CDlgEnvSetup4@@QAE@PAVCWnd@@@Z
  0005d	e9 00 00 00 00	 jmp	 ___CxxFrameHandler3
text$x	ENDS
??0CDlgEnvSetup4@@QAE@PAVCWnd@@@Z ENDP			; CDlgEnvSetup4::CDlgEnvSetup4
; Function compile flags: /Ogtp
; File C:\Program Files (x86)\Microsoft Visual Studio\2019\Community\VC\Tools\MSVC\14.29.30133\atlmfc\include\afxtempl.h
;	COMDAT ?SetAtGrow@?$CArray@HH@@QAEXHH@Z
_TEXT	SEGMENT
_nIndex$ = 8						; size = 4
_newElement$ = 12					; size = 4
?SetAtGrow@?$CArray@HH@@QAEXHH@Z PROC			; CArray<int,int>::SetAtGrow, COMDAT
; _this$ = ecx

; 534  : {

  00000	55		 push	 ebp
  00001	8b ec		 mov	 ebp, esp
  00003	56		 push	 esi

; 535  : 	ASSERT_VALID(this);
; 536  : 	ASSERT(nIndex >= 0);
; 537  : 
; 538  : 	if(nIndex < 0)

  00004	8b 75 08	 mov	 esi, DWORD PTR _nIndex$[ebp]
  00007	57		 push	 edi
  00008	8b f9		 mov	 edi, ecx
  0000a	85 f6		 test	 esi, esi
  0000c	78 1f		 js	 SHORT $LN7@SetAtGrow

; 540  : 
; 541  : 	if (nIndex >= m_nSize)

  0000e	3b 77 08	 cmp	 esi, DWORD PTR [edi+8]
  00011	7c 0b		 jl	 SHORT $LN3@SetAtGrow

; 542  : 		SetSize(nIndex+1, -1);

  00013	6a ff		 push	 -1
  00015	8d 46 01	 lea	 eax, DWORD PTR [esi+1]
  00018	50		 push	 eax
  00019	e8 00 00 00 00	 call	 ?SetSize@?$CArray@HH@@QAEXHH@Z ; CArray<int,int>::SetSize
$LN3@SetAtGrow:

; 543  : 	m_pData[nIndex] = newElement;

  0001e	8b 4f 04	 mov	 ecx, DWORD PTR [edi+4]
  00021	8b 45 0c	 mov	 eax, DWORD PTR _newElement$[ebp]
  00024	5f		 pop	 edi
  00025	89 04 b1	 mov	 DWORD PTR [ecx+esi*4], eax
  00028	5e		 pop	 esi

; 544  : }

  00029	5d		 pop	 ebp
  0002a	c2 08 00	 ret	 8
$LN7@SetAtGrow:

; 539  : 		AfxThrowInvalidArgException();

  0002d	e8 00 00 00 00	 call	 ?AfxThrowInvalidArgException@@YGXXZ ; AfxThrowInvalidArgException
$LN5@SetAtGrow:
  00032	cc		 int	 3
?SetAtGrow@?$CArray@HH@@QAEXHH@Z ENDP			; CArray<int,int>::SetAtGrow
_TEXT	ENDS
; Function compile flags: /Ogtp
; File C:\Program Files (x86)\Microsoft Visual Studio\2019\Community\VC\Tools\MSVC\14.29.30133\atlmfc\include\afxtempl.h
; File C:\Program Files (x86)\Windows Kits\10\Include\10.0.22000.0\ucrt\corecrt_memcpy_s.h
; File C:\Program Files (x86)\Microsoft Visual Studio\2019\Community\VC\Tools\MSVC\14.29.30133\atlmfc\include\afxtempl.h
; File C:\Program Files (x86)\Windows Kits\10\Include\10.0.22000.0\ucrt\corecrt_memcpy_s.h
; File C:\Program Files (x86)\Microsoft Visual Studio\2019\Community\VC\Tools\MSVC\14.29.30133\atlmfc\include\afx.h
; File C:\Program Files (x86)\Microsoft Visual Studio\2019\Community\VC\Tools\MSVC\14.29.30133\atlmfc\include\afxtempl.h
;	COMDAT ?SetSize@?$CArray@HH@@QAEXHH@Z
_TEXT	SEGMENT
__N$1$ = -8						; size = 4
__S1max$1$ = -4						; size = 4
__S2$1$ = 8						; size = 4
_nNewSize$ = 8						; size = 4
_pNewData$1$ = 12					; size = 4
_nGrowBy$ = 12						; size = 4
?SetSize@?$CArray@HH@@QAEXHH@Z PROC			; CArray<int,int>::SetSize, COMDAT
; _this$ = ecx

; 368  : {

  00000	55		 push	 ebp
  00001	8b ec		 mov	 ebp, esp
  00003	83 ec 08	 sub	 esp, 8
  00006	53		 push	 ebx
  00007	56		 push	 esi

; 369  : 	ASSERT_VALID(this);
; 370  : 	ASSERT(nNewSize >= 0);
; 371  : 
; 372  : 	if(nNewSize < 0 )

  00008	8b 75 08	 mov	 esi, DWORD PTR _nNewSize$[ebp]
  0000b	8b d9		 mov	 ebx, ecx
  0000d	57		 push	 edi
  0000e	85 f6		 test	 esi, esi
  00010	0f 88 9a 01 00
	00		 js	 $LN56@SetSize

; 373  : 		AfxThrowInvalidArgException();
; 374  : 
; 375  : 	if (nGrowBy >= 0)

  00016	8b 45 0c	 mov	 eax, DWORD PTR _nGrowBy$[ebp]
  00019	85 c0		 test	 eax, eax
  0001b	78 03		 js	 SHORT $LN82@SetSize

; 376  : 		m_nGrowBy = nGrowBy;  // set new size

  0001d	89 43 10	 mov	 DWORD PTR [ebx+16], eax
$LN82@SetSize:

; 377  : 
; 378  : 	if (nNewSize == 0)

  00020	8b 4b 04	 mov	 ecx, DWORD PTR [ebx+4]
  00023	85 f6		 test	 esi, esi
  00025	75 27		 jne	 SHORT $LN19@SetSize

; 379  : 	{
; 380  : 		// shrink to nothing
; 381  : 		if (m_pData != NULL)

  00027	85 c9		 test	 ecx, ecx
  00029	74 0c		 je	 SHORT $LN21@SetSize

; 382  : 		{
; 383  : 			for( int i = 0; i < m_nSize; i++ )
; 384  : 				(m_pData + i)->~TYPE();
; 385  : 			delete[] (BYTE*)m_pData;

  0002b	51		 push	 ecx
  0002c	e8 00 00 00 00	 call	 ??_V@YAXPAX@Z		; operator delete[]
  00031	83 c4 04	 add	 esp, 4

; 386  : 			m_pData = NULL;

  00034	89 73 04	 mov	 DWORD PTR [ebx+4], esi
$LN21@SetSize:

; 475  : }

  00037	5f		 pop	 edi
  00038	5e		 pop	 esi
  00039	c7 43 0c 00 00
	00 00		 mov	 DWORD PTR [ebx+12], 0
  00040	c7 43 08 00 00
	00 00		 mov	 DWORD PTR [ebx+8], 0
  00047	5b		 pop	 ebx
  00048	8b e5		 mov	 esp, ebp
  0004a	5d		 pop	 ebp
  0004b	c2 08 00	 ret	 8
$LN19@SetSize:

; 387  : 		}
; 388  : 		m_nSize = m_nMaxSize = 0;
; 389  : 	}
; 390  : 	else if (m_pData == NULL)

  0004e	85 c9		 test	 ecx, ecx
  00050	75 36		 jne	 SHORT $LN22@SetSize

; 391  : 	{
; 392  : 		// create buffer big enough to hold number of requested elements or
; 393  : 		// m_nGrowBy elements, whichever is larger.
; 394  : #ifdef SIZE_T_MAX
; 395  : 		ASSERT(nNewSize <= SIZE_T_MAX/sizeof(TYPE));    // no overflow
; 396  : #endif
; 397  : 		size_t nAllocSize = __max(nNewSize, m_nGrowBy);

  00052	8b 7b 10	 mov	 edi, DWORD PTR [ebx+16]
  00055	3b f7		 cmp	 esi, edi
  00057	0f 4f fe	 cmovg	 edi, esi

; 398  : 		m_pData = (TYPE*) new BYTE[(size_t)nAllocSize * sizeof(TYPE)];

  0005a	8d 34 bd 00 00
	00 00		 lea	 esi, DWORD PTR [edi*4]
  00061	56		 push	 esi
  00062	e8 00 00 00 00	 call	 ??_U@YAPAXI@Z		; operator new[]

; 399  : 		memset((void*)m_pData, 0, (size_t)nAllocSize * sizeof(TYPE));

  00067	56		 push	 esi
  00068	6a 00		 push	 0
  0006a	50		 push	 eax
  0006b	89 43 04	 mov	 DWORD PTR [ebx+4], eax
  0006e	e8 00 00 00 00	 call	 _memset

; 400  : 		for( int i = 0; i < nNewSize; i++ )
; 401  : #pragma push_macro("new")
; 402  : #undef new
; 403  : 			::new( (void*)( m_pData + i ) ) TYPE;
; 404  : #pragma pop_macro("new")
; 405  : 		m_nSize = nNewSize;

  00073	8b 45 08	 mov	 eax, DWORD PTR _nNewSize$[ebp]
  00076	83 c4 10	 add	 esp, 16			; 00000010H

; 475  : }

  00079	89 7b 0c	 mov	 DWORD PTR [ebx+12], edi
  0007c	89 43 08	 mov	 DWORD PTR [ebx+8], eax
  0007f	5f		 pop	 edi
  00080	5e		 pop	 esi
  00081	5b		 pop	 ebx
  00082	8b e5		 mov	 esp, ebp
  00084	5d		 pop	 ebp
  00085	c2 08 00	 ret	 8
$LN22@SetSize:

; 406  : 		m_nMaxSize = nAllocSize;
; 407  : 	}
; 408  : 	else if (nNewSize <= m_nMaxSize)

  00088	8b 7b 0c	 mov	 edi, DWORD PTR [ebx+12]
  0008b	3b f7		 cmp	 esi, edi
  0008d	7f 29		 jg	 SHORT $LN24@SetSize

; 409  : 	{
; 410  : 		// it fits
; 411  : 		if (nNewSize > m_nSize)

  0008f	8b 53 08	 mov	 edx, DWORD PTR [ebx+8]
  00092	3b f2		 cmp	 esi, edx
  00094	7e 16		 jle	 SHORT $LN26@SetSize

; 412  : 		{
; 413  : 			// initialize the new elements
; 414  : 			memset((void*)(m_pData + m_nSize), 0, (size_t)(nNewSize-m_nSize) * sizeof(TYPE));

  00096	8b c6		 mov	 eax, esi
  00098	2b c2		 sub	 eax, edx
  0009a	c1 e0 02	 shl	 eax, 2
  0009d	50		 push	 eax
  0009e	8d 04 91	 lea	 eax, DWORD PTR [ecx+edx*4]
  000a1	6a 00		 push	 0
  000a3	50		 push	 eax
  000a4	e8 00 00 00 00	 call	 _memset
  000a9	83 c4 0c	 add	 esp, 12			; 0000000cH
$LN26@SetSize:

; 415  : 			for( int i = 0; i < nNewSize-m_nSize; i++ )
; 416  : #pragma push_macro("new")
; 417  : #undef new
; 418  : 				::new( (void*)( m_pData + m_nSize + i ) ) TYPE;
; 419  : #pragma pop_macro("new")
; 420  : 		}
; 421  : 		else if (m_nSize > nNewSize)
; 422  : 		{
; 423  : 			// destroy the old elements
; 424  : 			for( int i = 0; i < m_nSize-nNewSize; i++ )
; 425  : 				(m_pData + nNewSize + i)->~TYPE();
; 426  : 		}
; 427  : 		m_nSize = nNewSize;

  000ac	5f		 pop	 edi
  000ad	89 73 08	 mov	 DWORD PTR [ebx+8], esi

; 475  : }

  000b0	5e		 pop	 esi
  000b1	5b		 pop	 ebx
  000b2	8b e5		 mov	 esp, ebp
  000b4	5d		 pop	 ebp
  000b5	c2 08 00	 ret	 8
$LN24@SetSize:

; 428  : 	}
; 429  : 	else
; 430  : 	{
; 431  : 		// otherwise, grow array
; 432  : 		nGrowBy = m_nGrowBy;

  000b8	8b 43 10	 mov	 eax, DWORD PTR [ebx+16]

; 433  : 		if (nGrowBy == 0)

  000bb	85 c0		 test	 eax, eax
  000bd	75 22		 jne	 SHORT $LN37@SetSize

; 434  : 		{
; 435  : 			// heuristically determine growth when nGrowBy == 0
; 436  : 			//  (this avoids heap fragmentation in many situations)
; 437  : 			nGrowBy = m_nSize / 8;

  000bf	8b 43 08	 mov	 eax, DWORD PTR [ebx+8]
  000c2	99		 cdq
  000c3	83 e2 07	 and	 edx, 7
  000c6	03 c2		 add	 eax, edx
  000c8	c1 f8 03	 sar	 eax, 3

; 438  : 			nGrowBy = (nGrowBy < 4) ? 4 : ((nGrowBy > 1024) ? 1024 : nGrowBy);

  000cb	83 f8 04	 cmp	 eax, 4
  000ce	7d 07		 jge	 SHORT $LN36@SetSize
  000d0	b8 04 00 00 00	 mov	 eax, 4
  000d5	eb 0a		 jmp	 SHORT $LN37@SetSize
$LN36@SetSize:
  000d7	b9 00 04 00 00	 mov	 ecx, 1024		; 00000400H
  000dc	3b c1		 cmp	 eax, ecx
  000de	0f 4f c1	 cmovg	 eax, ecx
$LN37@SetSize:

; 439  : 		}
; 440  : 		INT_PTR nNewMax;
; 441  : 		if (nNewSize < m_nMaxSize + nGrowBy)

  000e1	03 f8		 add	 edi, eax
  000e3	3b f7		 cmp	 esi, edi
  000e5	7d 0b		 jge	 SHORT $LN30@SetSize

; 445  : 
; 446  : 		ASSERT(nNewMax >= m_nMaxSize);  // no wrap around
; 447  : 
; 448  : 		if(nNewMax  < m_nMaxSize)

  000e7	3b 7b 0c	 cmp	 edi, DWORD PTR [ebx+12]
  000ea	0f 8c c0 00 00
	00		 jl	 $LN56@SetSize
  000f0	eb 02		 jmp	 SHORT $LN32@SetSize
$LN30@SetSize:

; 442  : 			nNewMax = m_nMaxSize + nGrowBy;  // granularity
; 443  : 		else
; 444  : 			nNewMax = nNewSize;  // no slush

  000f2	8b fe		 mov	 edi, esi
$LN32@SetSize:

; 449  : 			AfxThrowInvalidArgException();
; 450  : 
; 451  : #ifdef SIZE_T_MAX
; 452  : 		ASSERT(nNewMax <= SIZE_T_MAX/sizeof(TYPE)); // no overflow
; 453  : #endif
; 454  : 		TYPE* pNewData = (TYPE*) new BYTE[(size_t)nNewMax * sizeof(TYPE)];

  000f4	8d 04 bd 00 00
	00 00		 lea	 eax, DWORD PTR [edi*4]
  000fb	50		 push	 eax
  000fc	89 45 fc	 mov	 DWORD PTR __S1max$1$[ebp], eax
  000ff	e8 00 00 00 00	 call	 ??_U@YAPAXI@Z		; operator new[]

; 455  : 
; 456  : 		// copy new data from old
; 457  : 		::ATL::Checked::memcpy_s(pNewData, (size_t)nNewMax * sizeof(TYPE),

  00104	8b 4b 08	 mov	 ecx, DWORD PTR [ebx+8]
  00107	83 c4 04	 add	 esp, 4
  0010a	8b 53 04	 mov	 edx, DWORD PTR [ebx+4]
  0010d	c1 e1 02	 shl	 ecx, 2
  00110	89 45 0c	 mov	 DWORD PTR _pNewData$1$[ebp], eax
  00113	89 4d f8	 mov	 DWORD PTR __N$1$[ebp], ecx
  00116	89 55 08	 mov	 DWORD PTR __S2$1$[ebp], edx
; File C:\Program Files (x86)\Windows Kits\10\Include\10.0.22000.0\ucrt\corecrt_memcpy_s.h

; 46   :         if (_SourceSize == 0)

  00119	85 c9		 test	 ecx, ecx
  0011b	74 20		 je	 SHORT $LN54@SetSize

; 47   :         {
; 48   :             return 0;
; 49   :         }
; 50   : 
; 51   :         _CRT_MEMCPY_S_VALIDATE_RETURN_ERRCODE(_Destination != NULL, EINVAL);

  0011d	85 c0		 test	 eax, eax
  0011f	74 7d		 je	 SHORT $LN84@SetSize

; 52   :         if (_Source == NULL || _DestinationSize < _SourceSize)

  00121	85 d2		 test	 edx, edx
  00123	74 51		 je	 SHORT $LN76@SetSize
  00125	8d 14 bd 00 00
	00 00		 lea	 edx, DWORD PTR [edi*4]
  0012c	3b d1		 cmp	 edx, ecx
  0012e	72 46		 jb	 SHORT $LN76@SetSize

; 58   : 
; 59   :             // Unreachable, but required to suppress /analyze warnings:
; 60   :             return EINVAL;
; 61   :         }
; 62   :         memcpy(_Destination, _Source, _SourceSize);

  00130	51		 push	 ecx
  00131	ff 75 08	 push	 DWORD PTR __S2$1$[ebp]
  00134	50		 push	 eax
  00135	e8 00 00 00 00	 call	 _memcpy
  0013a	83 c4 0c	 add	 esp, 12			; 0000000cH
$LN54@SetSize:
; File C:\Program Files (x86)\Microsoft Visual Studio\2019\Community\VC\Tools\MSVC\14.29.30133\atlmfc\include\afxtempl.h

; 462  : 		memset((void*)(pNewData + m_nSize), 0, (size_t)(nNewSize-m_nSize) * sizeof(TYPE));

  0013d	8b 4b 08	 mov	 ecx, DWORD PTR [ebx+8]
  00140	8b c6		 mov	 eax, esi
  00142	2b c1		 sub	 eax, ecx
  00144	c1 e0 02	 shl	 eax, 2
  00147	50		 push	 eax
  00148	8b 45 0c	 mov	 eax, DWORD PTR _pNewData$1$[ebp]
  0014b	6a 00		 push	 0
  0014d	8d 04 88	 lea	 eax, DWORD PTR [eax+ecx*4]
  00150	50		 push	 eax
  00151	e8 00 00 00 00	 call	 _memset

; 463  : 		for( int i = 0; i < nNewSize-m_nSize; i++ )
; 464  : #pragma push_macro("new")
; 465  : #undef new
; 466  : 			::new( (void*)( pNewData + m_nSize + i ) ) TYPE;
; 467  : #pragma pop_macro("new")
; 468  : 
; 469  : 		// get rid of old stuff (note: no destructors called)
; 470  : 		delete[] (BYTE*)m_pData;

  00156	ff 73 04	 push	 DWORD PTR [ebx+4]
  00159	e8 00 00 00 00	 call	 ??_V@YAXPAX@Z		; operator delete[]

; 471  : 		m_pData = pNewData;

  0015e	8b 45 0c	 mov	 eax, DWORD PTR _pNewData$1$[ebp]
  00161	83 c4 10	 add	 esp, 16			; 00000010H

; 475  : }

  00164	89 7b 0c	 mov	 DWORD PTR [ebx+12], edi
  00167	89 73 08	 mov	 DWORD PTR [ebx+8], esi
  0016a	89 43 04	 mov	 DWORD PTR [ebx+4], eax
  0016d	5f		 pop	 edi
  0016e	5e		 pop	 esi
  0016f	5b		 pop	 ebx
  00170	8b e5		 mov	 esp, ebp
  00172	5d		 pop	 ebp
  00173	c2 08 00	 ret	 8
$LN76@SetSize:
; File C:\Program Files (x86)\Windows Kits\10\Include\10.0.22000.0\ucrt\corecrt_memcpy_s.h

; 54   :             memset(_Destination, 0, _DestinationSize);

  00176	8b 5d fc	 mov	 ebx, DWORD PTR __S1max$1$[ebp]
  00179	53		 push	 ebx
  0017a	6a 00		 push	 0
  0017c	50		 push	 eax
  0017d	e8 00 00 00 00	 call	 _memset
  00182	83 c4 0c	 add	 esp, 12			; 0000000cH

; 55   : 
; 56   :             _CRT_MEMCPY_S_VALIDATE_RETURN_ERRCODE(_Source != NULL,                 EINVAL);

  00185	83 7d 08 00	 cmp	 DWORD PTR __S2$1$[ebp], 0
  00189	74 13		 je	 SHORT $LN84@SetSize

; 57   :             _CRT_MEMCPY_S_VALIDATE_RETURN_ERRCODE(_DestinationSize >= _SourceSize, ERANGE);

  0018b	3b 5d f8	 cmp	 ebx, DWORD PTR __N$1$[ebp]
  0018e	73 20		 jae	 SHORT $LN56@SetSize
  00190	ff 15 00 00 00
	00		 call	 DWORD PTR __imp___errno
  00196	c7 00 22 00 00
	00		 mov	 DWORD PTR [eax], 34	; 00000022H
  0019c	eb 0c		 jmp	 SHORT $LN85@SetSize
$LN84@SetSize:
; File C:\Program Files (x86)\Microsoft Visual Studio\2019\Community\VC\Tools\MSVC\14.29.30133\atlmfc\include\afx.h

; 517  : 		AfxThrowInvalidArgException();

  0019e	ff 15 00 00 00
	00		 call	 DWORD PTR __imp___errno
  001a4	c7 00 16 00 00
	00		 mov	 DWORD PTR [eax], 22	; 00000016H
$LN85@SetSize:
  001aa	ff 15 00 00 00
	00		 call	 DWORD PTR __imp___invalid_parameter_noinfo
$LN56@SetSize:
  001b0	e8 00 00 00 00	 call	 ?AfxThrowInvalidArgException@@YGXXZ ; AfxThrowInvalidArgException
$LN83@SetSize:
  001b5	cc		 int	 3
?SetSize@?$CArray@HH@@QAEXHH@Z ENDP			; CArray<int,int>::SetSize
_TEXT	ENDS
; Function compile flags: /Ogtp
; File C:\Program Files (x86)\Microsoft Visual Studio\2019\Community\VC\Tools\MSVC\14.29.30133\atlmfc\include\afx.inl
;	COMDAT ??_GCTreeCtrl@@UAEPAXI@Z
_TEXT	SEGMENT
___flags$ = 8						; size = 4
??_GCTreeCtrl@@UAEPAXI@Z PROC				; CTreeCtrl::`scalar deleting destructor', COMDAT
; _this$ = ecx
  00000	55		 push	 ebp
  00001	8b ec		 mov	 ebp, esp
  00003	56		 push	 esi
  00004	8b f1		 mov	 esi, ecx
  00006	e8 00 00 00 00	 call	 ??1CTreeCtrl@@UAE@XZ	; CTreeCtrl::~CTreeCtrl
  0000b	8b 45 08	 mov	 eax, DWORD PTR ___flags$[ebp]
  0000e	a8 01		 test	 al, 1
  00010	74 22		 je	 SHORT $LN9@scalar
  00012	a8 04		 test	 al, 4
  00014	75 10		 jne	 SHORT $LN3@scalar

; 112  : 	{ ::operator delete(p); }

  00016	56		 push	 esi
  00017	e8 00 00 00 00	 call	 ??3@YAXPAX@Z		; operator delete
  0001c	83 c4 04	 add	 esp, 4
  0001f	8b c6		 mov	 eax, esi
  00021	5e		 pop	 esi
  00022	5d		 pop	 ebp
  00023	c2 04 00	 ret	 4
$LN3@scalar:
  00026	68 80 00 00 00	 push	 128			; 00000080H
  0002b	56		 push	 esi
  0002c	e8 00 00 00 00	 call	 ?__global_delete@@YAXPAXI@Z ; __global_delete
  00031	83 c4 08	 add	 esp, 8
$LN9@scalar:
  00034	8b c6		 mov	 eax, esi
  00036	5e		 pop	 esi
  00037	5d		 pop	 ebp
  00038	c2 04 00	 ret	 4
??_GCTreeCtrl@@UAEPAXI@Z ENDP				; CTreeCtrl::`scalar deleting destructor'
_TEXT	ENDS
; Function compile flags: /Ogtp
; File C:\Program Files (x86)\Microsoft Visual Studio\2019\Community\VC\Tools\MSVC\14.29.30133\atlmfc\include\afx.inl
;	COMDAT ??_GCButton@@UAEPAXI@Z
_TEXT	SEGMENT
___flags$ = 8						; size = 4
??_GCButton@@UAEPAXI@Z PROC				; CButton::`scalar deleting destructor', COMDAT
; _this$ = ecx
  00000	55		 push	 ebp
  00001	8b ec		 mov	 ebp, esp
  00003	56		 push	 esi
  00004	8b f1		 mov	 esi, ecx
  00006	e8 00 00 00 00	 call	 ??1CButton@@UAE@XZ	; CButton::~CButton
  0000b	8b 45 08	 mov	 eax, DWORD PTR ___flags$[ebp]
  0000e	a8 01		 test	 al, 1
  00010	74 22		 je	 SHORT $LN9@scalar
  00012	a8 04		 test	 al, 4
  00014	75 10		 jne	 SHORT $LN3@scalar

; 112  : 	{ ::operator delete(p); }

  00016	56		 push	 esi
  00017	e8 00 00 00 00	 call	 ??3@YAXPAX@Z		; operator delete
  0001c	83 c4 04	 add	 esp, 4
  0001f	8b c6		 mov	 eax, esi
  00021	5e		 pop	 esi
  00022	5d		 pop	 ebp
  00023	c2 04 00	 ret	 4
$LN3@scalar:
  00026	68 80 00 00 00	 push	 128			; 00000080H
  0002b	56		 push	 esi
  0002c	e8 00 00 00 00	 call	 ?__global_delete@@YAXPAXI@Z ; __global_delete
  00031	83 c4 08	 add	 esp, 8
$LN9@scalar:
  00034	8b c6		 mov	 eax, esi
  00036	5e		 pop	 esi
  00037	5d		 pop	 ebp
  00038	c2 04 00	 ret	 4
??_GCButton@@UAEPAXI@Z ENDP				; CButton::`scalar deleting destructor'
_TEXT	ENDS
; Function compile flags: /Ogtp
; File C:\Program Files (x86)\Microsoft Visual Studio\2019\Community\VC\Tools\MSVC\14.29.30133\atlmfc\include\afxwin2.inl
;	COMDAT ?Create@CDialog@@UAEHIPAVCWnd@@@Z
_TEXT	SEGMENT
_nIDTemplate$ = 8					; size = 4
_pParentWnd$ = 12					; size = 4
?Create@CDialog@@UAEHIPAVCWnd@@@Z PROC			; CDialog::Create, COMDAT
; _this$ = ecx

; 585  : 	{ return CDialog::Create(ATL_MAKEINTRESOURCE(nIDTemplate), pParentWnd); }

  00000	55		 push	 ebp
  00001	8b ec		 mov	 ebp, esp
  00003	0f b7 45 08	 movzx	 eax, WORD PTR _nIDTemplate$[ebp]
  00007	89 45 08	 mov	 DWORD PTR _nIDTemplate$[ebp], eax
  0000a	5d		 pop	 ebp
  0000b	e9 00 00 00 00	 jmp	 ?Create@CDialog@@UAEHPBDPAVCWnd@@@Z ; CDialog::Create
?Create@CDialog@@UAEHIPAVCWnd@@@Z ENDP			; CDialog::Create
_TEXT	ENDS
; Function compile flags: /Ogtp
; File C:\Program Files (x86)\Microsoft Visual Studio\2019\Community\VC\Tools\MSVC\14.29.30133\atlmfc\include\afxwin2.inl
;	COMDAT ?EndModalState@CWnd@@UAEXXZ
_TEXT	SEGMENT
?EndModalState@CWnd@@UAEXXZ PROC			; CWnd::EndModalState, COMDAT
; _this$ = ecx

; 567  : 	{ ::EnableWindow(m_hWnd, TRUE); }

  00000	6a 01		 push	 1
  00002	ff 71 20	 push	 DWORD PTR [ecx+32]
  00005	ff 15 00 00 00
	00		 call	 DWORD PTR __imp__EnableWindow@8
  0000b	c3		 ret	 0
?EndModalState@CWnd@@UAEXXZ ENDP			; CWnd::EndModalState
_TEXT	ENDS
; Function compile flags: /Ogtp
; File C:\Program Files (x86)\Microsoft Visual Studio\2019\Community\VC\Tools\MSVC\14.29.30133\atlmfc\include\afxwin2.inl
;	COMDAT ?BeginModalState@CWnd@@UAEXXZ
_TEXT	SEGMENT
?BeginModalState@CWnd@@UAEXXZ PROC			; CWnd::BeginModalState, COMDAT
; _this$ = ecx

; 565  : 	{ ::EnableWindow(m_hWnd, FALSE); }

  00000	6a 00		 push	 0
  00002	ff 71 20	 push	 DWORD PTR [ecx+32]
  00005	ff 15 00 00 00
	00		 call	 DWORD PTR __imp__EnableWindow@8
  0000b	c3		 ret	 0
?BeginModalState@CWnd@@UAEXXZ ENDP			; CWnd::BeginModalState
_TEXT	ENDS
; Function compile flags: /Ogtp
; File C:\Program Files (x86)\Microsoft Visual Studio\2019\Community\VC\Tools\MSVC\14.29.30133\atlmfc\include\afxwin2.inl
;	COMDAT ?DoDataExchange@CWnd@@MAEXPAVCDataExchange@@@Z
_TEXT	SEGMENT
___formal$ = 8						; size = 4
?DoDataExchange@CWnd@@MAEXPAVCDataExchange@@@Z PROC	; CWnd::DoDataExchange, COMDAT
; _this$ = ecx

; 561  : 	{ } // default does nothing

  00000	c2 04 00	 ret	 4
?DoDataExchange@CWnd@@MAEXPAVCDataExchange@@@Z ENDP	; CWnd::DoDataExchange
_TEXT	ENDS
; Function compile flags: /Ogtp
; File C:\Program Files (x86)\Microsoft Visual Studio\2019\Community\VC\Tools\MSVC\14.29.30133\atlmfc\include\afxwin1.inl
; File C:\Program Files (x86)\Microsoft Visual Studio\2019\Community\VC\Tools\MSVC\14.29.30133\atlmfc\include\afx.inl
;	COMDAT ??_GCBrush@@UAEPAXI@Z
_TEXT	SEGMENT
___flags$ = 8						; size = 4
??_GCBrush@@UAEPAXI@Z PROC				; CBrush::`scalar deleting destructor', COMDAT
; _this$ = ecx
  00000	55		 push	 ebp
  00001	8b ec		 mov	 ebp, esp
; File C:\Program Files (x86)\Microsoft Visual Studio\2019\Community\VC\Tools\MSVC\14.29.30133\atlmfc\include\afxwin1.inl

; 130  : 	{ }

  00003	56		 push	 esi
  00004	8b f1		 mov	 esi, ecx
  00006	c7 06 00 00 00
	00		 mov	 DWORD PTR [esi], OFFSET ??_7CBrush@@6B@
  0000c	e8 00 00 00 00	 call	 ??1CGdiObject@@UAE@XZ	; CGdiObject::~CGdiObject
  00011	8b 45 08	 mov	 eax, DWORD PTR ___flags$[ebp]
  00014	a8 01		 test	 al, 1
  00016	74 1f		 je	 SHORT $LN12@scalar
  00018	a8 04		 test	 al, 4
  0001a	75 10		 jne	 SHORT $LN3@scalar
; File C:\Program Files (x86)\Microsoft Visual Studio\2019\Community\VC\Tools\MSVC\14.29.30133\atlmfc\include\afx.inl

; 112  : 	{ ::operator delete(p); }

  0001c	56		 push	 esi
  0001d	e8 00 00 00 00	 call	 ??3@YAXPAX@Z		; operator delete
  00022	83 c4 04	 add	 esp, 4
  00025	8b c6		 mov	 eax, esi
  00027	5e		 pop	 esi
  00028	5d		 pop	 ebp
  00029	c2 04 00	 ret	 4
$LN3@scalar:
  0002c	6a 08		 push	 8
  0002e	56		 push	 esi
  0002f	e8 00 00 00 00	 call	 ?__global_delete@@YAXPAXI@Z ; __global_delete
  00034	83 c4 08	 add	 esp, 8
$LN12@scalar:
  00037	8b c6		 mov	 eax, esi
  00039	5e		 pop	 esi
  0003a	5d		 pop	 ebp
  0003b	c2 04 00	 ret	 4
??_GCBrush@@UAEPAXI@Z ENDP				; CBrush::`scalar deleting destructor'
_TEXT	ENDS
; Function compile flags: /Ogtp
; File C:\Program Files (x86)\Microsoft Visual Studio\2019\Community\VC\Tools\MSVC\14.29.30133\atlmfc\include\afxwin1.inl
;	COMDAT ??1CBrush@@UAE@XZ
_TEXT	SEGMENT
??1CBrush@@UAE@XZ PROC					; CBrush::~CBrush, COMDAT
; _this$ = ecx

; 130  : 	{ }

  00000	c7 01 00 00 00
	00		 mov	 DWORD PTR [ecx], OFFSET ??_7CBrush@@6B@
  00006	e9 00 00 00 00	 jmp	 ??1CGdiObject@@UAE@XZ	; CGdiObject::~CGdiObject
??1CBrush@@UAE@XZ ENDP					; CBrush::~CBrush
_TEXT	ENDS
; Function compile flags: /Ogtp
; File C:\Program Files (x86)\Microsoft Visual Studio\2019\Community\VC\Tools\MSVC\14.29.30133\atlmfc\include\afx.inl
;	COMDAT ??_GCGdiObject@@UAEPAXI@Z
_TEXT	SEGMENT
___flags$ = 8						; size = 4
??_GCGdiObject@@UAEPAXI@Z PROC				; CGdiObject::`scalar deleting destructor', COMDAT
; _this$ = ecx
  00000	55		 push	 ebp
  00001	8b ec		 mov	 ebp, esp
  00003	56		 push	 esi
  00004	8b f1		 mov	 esi, ecx
  00006	e8 00 00 00 00	 call	 ??1CGdiObject@@UAE@XZ	; CGdiObject::~CGdiObject
  0000b	8b 45 08	 mov	 eax, DWORD PTR ___flags$[ebp]
  0000e	a8 01		 test	 al, 1
  00010	74 1f		 je	 SHORT $LN9@scalar
  00012	a8 04		 test	 al, 4
  00014	75 10		 jne	 SHORT $LN3@scalar

; 112  : 	{ ::operator delete(p); }

  00016	56		 push	 esi
  00017	e8 00 00 00 00	 call	 ??3@YAXPAX@Z		; operator delete
  0001c	83 c4 04	 add	 esp, 4
  0001f	8b c6		 mov	 eax, esi
  00021	5e		 pop	 esi
  00022	5d		 pop	 ebp
  00023	c2 04 00	 ret	 4
$LN3@scalar:
  00026	6a 08		 push	 8
  00028	56		 push	 esi
  00029	e8 00 00 00 00	 call	 ?__global_delete@@YAXPAXI@Z ; __global_delete
  0002e	83 c4 08	 add	 esp, 8
$LN9@scalar:
  00031	8b c6		 mov	 eax, esi
  00033	5e		 pop	 esi
  00034	5d		 pop	 ebp
  00035	c2 04 00	 ret	 4
??_GCGdiObject@@UAEPAXI@Z ENDP				; CGdiObject::`scalar deleting destructor'
_TEXT	ENDS
; Function compile flags: /Ogtp
; File C:\Program Files (x86)\Microsoft Visual Studio\2019\Community\VC\Tools\MSVC\14.29.30133\atlmfc\include\afxwin1.inl
;	COMDAT ??1CGdiObject@@UAE@XZ
_TEXT	SEGMENT
_pException$2 = -540					; size = 4
_strMsg$3 = -536					; size = 4
_szErrorMessage$4 = -532				; size = 512
__$ArrayPad$ = -20					; size = 4
__$EHRec$ = -16						; size = 16
??1CGdiObject@@UAE@XZ PROC				; CGdiObject::~CGdiObject, COMDAT
; _this$ = ecx

; 74   : {

  00000	55		 push	 ebp
  00001	8b ec		 mov	 ebp, esp
  00003	6a ff		 push	 -1
  00005	68 00 00 00 00	 push	 __ehhandler$??1CGdiObject@@UAE@XZ
  0000a	64 a1 00 00 00
	00		 mov	 eax, DWORD PTR fs:0
  00010	50		 push	 eax
  00011	81 ec 10 02 00
	00		 sub	 esp, 528		; 00000210H
  00017	a1 00 00 00 00	 mov	 eax, DWORD PTR ___security_cookie
  0001c	33 c5		 xor	 eax, ebp
  0001e	89 45 ec	 mov	 DWORD PTR __$ArrayPad$[ebp], eax
  00021	53		 push	 ebx
  00022	56		 push	 esi
  00023	57		 push	 edi
  00024	50		 push	 eax
  00025	8d 45 f4	 lea	 eax, DWORD PTR __$EHRec$[ebp+4]
  00028	64 a3 00 00 00
	00		 mov	 DWORD PTR fs:0, eax
  0002e	89 65 f0	 mov	 DWORD PTR __$EHRec$[ebp], esp
  00031	c7 01 00 00 00
	00		 mov	 DWORD PTR [ecx], OFFSET ??_7CGdiObject@@6B@

; 75   : 	AFX_BEGIN_DESTRUCTOR

  00037	c7 45 fc 00 00
	00 00		 mov	 DWORD PTR __$EHRec$[ebp+12], 0

; 76   : 	DeleteObject();

  0003e	e8 00 00 00 00	 call	 ?DeleteObject@CGdiObject@@QAEHXZ ; CGdiObject::DeleteObject
$LN18@CGdiObject:

; 78   : }

  00043	8b 4d f4	 mov	 ecx, DWORD PTR __$EHRec$[ebp+4]
  00046	64 89 0d 00 00
	00 00		 mov	 DWORD PTR fs:0, ecx
  0004d	59		 pop	 ecx
  0004e	5f		 pop	 edi
  0004f	5e		 pop	 esi
  00050	5b		 pop	 ebx
  00051	8b 4d ec	 mov	 ecx, DWORD PTR __$ArrayPad$[ebp]
  00054	33 cd		 xor	 ecx, ebp
  00056	e8 00 00 00 00	 call	 @__security_check_cookie@4
  0005b	8b e5		 mov	 esp, ebp
  0005d	5d		 pop	 ebp
  0005e	c3		 ret	 0
__catch$??1CGdiObject@@UAE@XZ$0:

; 77   : 	AFX_END_DESTRUCTOR

  0005f	8d 8d e8 fd ff
	ff		 lea	 ecx, DWORD PTR _strMsg$3[ebp]
  00065	ff 15 00 00 00
	00		 call	 DWORD PTR __imp_??0?$CStringT@DV?$StrTraitMFC_DLL@DV?$ChTraitsCRT@D@ATL@@@@@ATL@@QAE@XZ
  0006b	8b b5 e4 fd ff
	ff		 mov	 esi, DWORD PTR _pException$2[ebp]
  00071	8d 8d ec fd ff
	ff		 lea	 ecx, DWORD PTR _szErrorMessage$4[ebp]
  00077	6a 00		 push	 0
  00079	68 00 02 00 00	 push	 512			; 00000200H
  0007e	51		 push	 ecx
  0007f	8b 06		 mov	 eax, DWORD PTR [esi]
  00081	8b ce		 mov	 ecx, esi
  00083	c6 45 fc 02	 mov	 BYTE PTR __$EHRec$[ebp+12], 2
  00087	ff 50 14	 call	 DWORD PTR [eax+20]
  0008a	85 c0		 test	 eax, eax
  0008c	74 2a		 je	 SHORT $LN9@CGdiObject
  0008e	8d 85 ec fd ff
	ff		 lea	 eax, DWORD PTR _szErrorMessage$4[ebp]
  00094	50		 push	 eax
  00095	6a 4d		 push	 77			; 0000004dH
  00097	68 00 00 00 00	 push	 OFFSET ??_C@_0HD@JJCHHHNK@C?3?2Program?5Files?5?$CIx86?$CJ?2Microsof@
  0009c	68 00 00 00 00	 push	 OFFSET ??_C@_0BP@OIEOKIDM@Exception?5thrown?5in?5destructor@
  000a1	8d 85 e8 fd ff
	ff		 lea	 eax, DWORD PTR _strMsg$3[ebp]
  000a7	68 00 00 00 00	 push	 OFFSET ??_C@_0BB@HBOOMJBF@?$CFTs?5?$CI?$CFTs?3?$CFd?$CJ?6?$CFTs@
  000ac	50		 push	 eax
  000ad	ff 15 00 00 00
	00		 call	 DWORD PTR __imp_?Format@?$CStringT@DV?$StrTraitMFC_DLL@DV?$ChTraitsCRT@D@ATL@@@@@ATL@@QAAXPBDZZ
  000b3	83 c4 18	 add	 esp, 24			; 00000018H
  000b6	eb 21		 jmp	 SHORT $LN10@CGdiObject
$LN9@CGdiObject:
  000b8	6a 4d		 push	 77			; 0000004dH
  000ba	68 00 00 00 00	 push	 OFFSET ??_C@_0HD@JJCHHHNK@C?3?2Program?5Files?5?$CIx86?$CJ?2Microsof@
  000bf	68 00 00 00 00	 push	 OFFSET ??_C@_0BP@OIEOKIDM@Exception?5thrown?5in?5destructor@
  000c4	8d 85 e8 fd ff
	ff		 lea	 eax, DWORD PTR _strMsg$3[ebp]
  000ca	68 00 00 00 00	 push	 OFFSET ??_C@_0N@OMEMOKLE@?$CFTs?5?$CI?$CFTs?3?$CFd?$CJ@
  000cf	50		 push	 eax
  000d0	ff 15 00 00 00
	00		 call	 DWORD PTR __imp_?Format@?$CStringT@DV?$StrTraitMFC_DLL@DV?$ChTraitsCRT@D@ATL@@@@@ATL@@QAAXPBDZZ
  000d6	83 c4 14	 add	 esp, 20			; 00000014H
$LN10@CGdiObject:
  000d9	6a 00		 push	 0
  000db	6a 00		 push	 0
  000dd	ff b5 e8 fd ff
	ff		 push	 DWORD PTR _strMsg$3[ebp]
  000e3	e8 00 00 00 00	 call	 ?AfxMessageBox@@YGHPBDII@Z ; AfxMessageBox
  000e8	8d 8d e8 fd ff
	ff		 lea	 ecx, DWORD PTR _strMsg$3[ebp]
  000ee	ff 15 00 00 00
	00		 call	 DWORD PTR __imp_??1?$CStringT@DV?$StrTraitMFC_DLL@DV?$ChTraitsCRT@D@ATL@@@@@ATL@@QAE@XZ
  000f4	8b 06		 mov	 eax, DWORD PTR [esi]
  000f6	8b ce		 mov	 ecx, esi
  000f8	6a 01		 push	 1
  000fa	ff 50 04	 call	 DWORD PTR [eax+4]
  000fd	b8 00 00 00 00	 mov	 eax, $LN18@CGdiObject
  00102	c3		 ret	 0
_TEXT	ENDS
;	COMDAT text$x
text$x	SEGMENT
__unwindfunclet$??1CGdiObject@@UAE@XZ$2:
  00000	8d 8d e8 fd ff
	ff		 lea	 ecx, DWORD PTR _strMsg$3[ebp]
  00006	ff 25 00 00 00
	00		 jmp	 DWORD PTR __imp_??1?$CStringT@DV?$StrTraitMFC_DLL@DV?$ChTraitsCRT@D@ATL@@@@@ATL@@QAE@XZ
  0000c	cc		 int	 3
  0000d	cc		 int	 3
  0000e	cc		 int	 3
  0000f	cc		 int	 3
  00010	cc		 int	 3
__ehhandler$??1CGdiObject@@UAE@XZ:
  00011	90		 npad	 1
  00012	90		 npad	 1
  00013	8b 54 24 08	 mov	 edx, DWORD PTR [esp+8]
  00017	8d 42 0c	 lea	 eax, DWORD PTR [edx+12]
  0001a	8b 8a e0 fd ff
	ff		 mov	 ecx, DWORD PTR [edx-544]
  00020	33 c8		 xor	 ecx, eax
  00022	e8 00 00 00 00	 call	 @__security_check_cookie@4
  00027	8b 4a f8	 mov	 ecx, DWORD PTR [edx-8]
  0002a	33 c8		 xor	 ecx, eax
  0002c	e8 00 00 00 00	 call	 @__security_check_cookie@4
  00031	b8 00 00 00 00	 mov	 eax, OFFSET __ehfuncinfo$??1CGdiObject@@UAE@XZ
  00036	e9 00 00 00 00	 jmp	 ___CxxFrameHandler3
text$x	ENDS
??1CGdiObject@@UAE@XZ ENDP				; CGdiObject::~CGdiObject
; Function compile flags: /Ogtp
; File C:\Program Files (x86)\Microsoft Visual Studio\2019\Community\VC\Tools\MSVC\14.29.30133\atlmfc\include\afx.inl
;	COMDAT ?Dump@CObject@@UBEXAAVCDumpContext@@@Z
_TEXT	SEGMENT
___formal$ = 8						; size = 4
?Dump@CObject@@UBEXAAVCDumpContext@@@Z PROC		; CObject::Dump, COMDAT
; _this$ = ecx

; 122  : 	{ /* no dumping in release builds */ }

  00000	c2 04 00	 ret	 4
?Dump@CObject@@UBEXAAVCDumpContext@@@Z ENDP		; CObject::Dump
_TEXT	ENDS
; Function compile flags: /Ogtp
; File C:\Program Files (x86)\Microsoft Visual Studio\2019\Community\VC\Tools\MSVC\14.29.30133\atlmfc\include\afx.inl
;	COMDAT ?AssertValid@CObject@@UBEXXZ
_TEXT	SEGMENT
?AssertValid@CObject@@UBEXXZ PROC			; CObject::AssertValid, COMDAT
; _this$ = ecx

; 120  : 	{ /* no asserts in release builds */ }

  00000	c2 00 00	 ret	 0
?AssertValid@CObject@@UBEXXZ ENDP			; CObject::AssertValid
_TEXT	ENDS
; Function compile flags: /Ogtp
; File C:\Program Files (x86)\Microsoft Visual Studio\2019\Community\VC\Tools\MSVC\14.29.30133\atlmfc\include\afx.inl
;	COMDAT ?Serialize@CObject@@UAEXAAVCArchive@@@Z
_TEXT	SEGMENT
___formal$ = 8						; size = 4
?Serialize@CObject@@UAEXAAVCArchive@@@Z PROC		; CObject::Serialize, COMDAT
; _this$ = ecx

; 106  : 	{ /* CObject does not serialize anything by default */ }

  00000	c2 04 00	 ret	 4
?Serialize@CObject@@UAEXAAVCArchive@@@Z ENDP		; CObject::Serialize
_TEXT	ENDS
; Function compile flags: /Ogtp
; File C:\Program Files (x86)\Microsoft Visual Studio\2019\Community\VC\Tools\MSVC\14.29.30133\atlmfc\include\afx.inl
;	COMDAT ??1CObject@@UAE@XZ
_TEXT	SEGMENT
??1CObject@@UAE@XZ PROC					; CObject::~CObject, COMDAT
; _this$ = ecx

; 104  : 	{ }

  00000	c2 00 00	 ret	 0
??1CObject@@UAE@XZ ENDP					; CObject::~CObject
_TEXT	ENDS
; Function compile flags: /Ogtp
; File D:\git\src\IBK\IBK_DRFN\ProjSrc\SrcChartEx\ChartAddIn\ChartPatternAddIn\DlgEnvSetup4.cpp
;	COMDAT ?__empty_global_delete@@YAXPAXI@Z
_TEXT	SEGMENT
___formal$ = 8						; size = 4
___formal$ = 12						; size = 4
?__empty_global_delete@@YAXPAXI@Z PROC			; __empty_global_delete, COMDAT

  00000	c2 00 00	 ret	 0
?__empty_global_delete@@YAXPAXI@Z ENDP			; __empty_global_delete
_TEXT	ENDS
; Function compile flags: /Ogtp
; File D:\git\src\IBK\IBK_DRFN\ProjSrc\SrcChartEx\ChartAddIn\ChartPatternAddIn\DlgEnvSetup4.cpp
;	COMDAT ?__empty_global_delete@@YAXPAX@Z
_TEXT	SEGMENT
___formal$ = 8						; size = 4
?__empty_global_delete@@YAXPAX@Z PROC			; __empty_global_delete, COMDAT

  00000	c2 00 00	 ret	 0
?__empty_global_delete@@YAXPAX@Z ENDP			; __empty_global_delete
_TEXT	ENDS
END
