; Listing generated by Microsoft (R) Optimizing Compiler Version 19.29.30145.0 

	TITLE	D:\git\src\IBK\IBK_DRFN\#DRfn-CS\_Obj\ChartPatternAddin\DlgPatternEnvSetup.obj
	.686P
	.XMM
	include listing.inc
	.model	flat

INCLUDELIB MSVCRT
INCLUDELIB OLDNAMES

PUBLIC	?__empty_global_delete@@YAXPAX@Z		; __empty_global_delete
PUBLIC	?__empty_global_delete@@YAXPAXI@Z		; __empty_global_delete
PUBLIC	??1CObject@@UAE@XZ				; CObject::~CObject
PUBLIC	?Serialize@CObject@@UAEXAAVCArchive@@@Z		; CObject::Serialize
PUBLIC	?AssertValid@CObject@@UBEXXZ			; CObject::AssertValid
PUBLIC	?Dump@CObject@@UBEXAAVCDumpContext@@@Z		; CObject::Dump
PUBLIC	??1CGdiObject@@UAE@XZ				; CGdiObject::~CGdiObject
PUBLIC	??_GCGdiObject@@UAEPAXI@Z			; CGdiObject::`scalar deleting destructor'
PUBLIC	??1CBrush@@UAE@XZ				; CBrush::~CBrush
PUBLIC	??_GCBrush@@UAEPAXI@Z				; CBrush::`scalar deleting destructor'
PUBLIC	?DoDataExchange@CWnd@@MAEXPAVCDataExchange@@@Z	; CWnd::DoDataExchange
PUBLIC	?BeginModalState@CWnd@@UAEXXZ			; CWnd::BeginModalState
PUBLIC	?EndModalState@CWnd@@UAEXXZ			; CWnd::EndModalState
PUBLIC	?Create@CDialog@@UAEHIPAVCWnd@@@Z		; CDialog::Create
PUBLIC	??_GCButton@@UAEPAXI@Z				; CButton::`scalar deleting destructor'
PUBLIC	??_GCEdit@@UAEPAXI@Z				; CEdit::`scalar deleting destructor'
PUBLIC	??0CDlgPatternEnvSetup@@QAE@PAVCWnd@@@Z		; CDlgPatternEnvSetup::CDlgPatternEnvSetup
PUBLIC	?SetPatternEnvData@CDlgPatternEnvSetup@@QAEXPAVCPatternEnvData@@@Z ; CDlgPatternEnvSetup::SetPatternEnvData
PUBLIC	?SetPatternEnvDataToControl@CDlgPatternEnvSetup@@QAEXXZ ; CDlgPatternEnvSetup::SetPatternEnvDataToControl
PUBLIC	?DoDataExchange@CDlgPatternEnvSetup@@MAEXPAVCDataExchange@@@Z ; CDlgPatternEnvSetup::DoDataExchange
PUBLIC	?OnInitDialog@CDlgPatternEnvSetup@@MAEHXZ	; CDlgPatternEnvSetup::OnInitDialog
PUBLIC	?OnOK@CDlgPatternEnvSetup@@MAEXXZ		; CDlgPatternEnvSetup::OnOK
PUBLIC	?OnRadioMma@CDlgPatternEnvSetup@@IAEXXZ		; CDlgPatternEnvSetup::OnRadioMma
PUBLIC	?OnRadioCandle@CDlgPatternEnvSetup@@IAEXXZ	; CDlgPatternEnvSetup::OnRadioCandle
PUBLIC	?OnCtlColor@CDlgPatternEnvSetup@@IAEPAUHBRUSH__@@PAVCDC@@PAVCWnd@@I@Z ; CDlgPatternEnvSetup::OnCtlColor
PUBLIC	?OnDestroy@CDlgPatternEnvSetup@@IAEXXZ		; CDlgPatternEnvSetup::OnDestroy
PUBLIC	?GetThisMessageMap@CDlgPatternEnvSetup@@KGPBUAFX_MSGMAP@@XZ ; CDlgPatternEnvSetup::GetThisMessageMap
PUBLIC	?GetMessageMap@CDlgPatternEnvSetup@@MBEPBUAFX_MSGMAP@@XZ ; CDlgPatternEnvSetup::GetMessageMap
PUBLIC	??_GCDlgPatternEnvSetup@@UAEPAXI@Z		; CDlgPatternEnvSetup::`scalar deleting destructor'
PUBLIC	??_R0PAVCException@@@8				; CException * `RTTI Type Descriptor'
PUBLIC	??_C@_02DPKJAMEF@?$CFd@				; `string'
PUBLIC	??_7CGdiObject@@6B@				; CGdiObject::`vftable'
PUBLIC	??_7CBrush@@6B@					; CBrush::`vftable'
PUBLIC	??_7CButton@@6B@				; CButton::`vftable'
PUBLIC	??_7CEdit@@6B@					; CEdit::`vftable'
PUBLIC	??_C@_0HD@JJCHHHNK@C?3?2Program?5Files?5?$CIx86?$CJ?2Microsof@ ; `string'
PUBLIC	??_C@_0BP@OIEOKIDM@Exception?5thrown?5in?5destructor@ ; `string'
PUBLIC	??_C@_0BB@HBOOMJBF@?$CFTs?5?$CI?$CFTs?3?$CFd?$CJ?6?$CFTs@ ; `string'
PUBLIC	??_C@_0N@OMEMOKLE@?$CFTs?5?$CI?$CFTs?3?$CFd?$CJ@ ; `string'
PUBLIC	??_R0?AVCObject@@@8				; CObject `RTTI Type Descriptor'
PUBLIC	??_R3CObject@@8					; CObject::`RTTI Class Hierarchy Descriptor'
PUBLIC	??_R2CObject@@8					; CObject::`RTTI Base Class Array'
PUBLIC	??_R1A@?0A@EA@CObject@@8			; CObject::`RTTI Base Class Descriptor at (0,-1,0,64)'
PUBLIC	??_R4CGdiObject@@6B@				; CGdiObject::`RTTI Complete Object Locator'
PUBLIC	??_R0?AVCGdiObject@@@8				; CGdiObject `RTTI Type Descriptor'
PUBLIC	??_R3CGdiObject@@8				; CGdiObject::`RTTI Class Hierarchy Descriptor'
PUBLIC	??_R2CGdiObject@@8				; CGdiObject::`RTTI Base Class Array'
PUBLIC	??_R1A@?0A@EA@CGdiObject@@8			; CGdiObject::`RTTI Base Class Descriptor at (0,-1,0,64)'
PUBLIC	??_R4CBrush@@6B@				; CBrush::`RTTI Complete Object Locator'
PUBLIC	??_R0?AVCBrush@@@8				; CBrush `RTTI Type Descriptor'
PUBLIC	??_R3CBrush@@8					; CBrush::`RTTI Class Hierarchy Descriptor'
PUBLIC	??_R2CBrush@@8					; CBrush::`RTTI Base Class Array'
PUBLIC	??_R1A@?0A@EA@CBrush@@8				; CBrush::`RTTI Base Class Descriptor at (0,-1,0,64)'
PUBLIC	??_R1A@?0A@EA@CWnd@@8				; CWnd::`RTTI Base Class Descriptor at (0,-1,0,64)'
PUBLIC	??_R0?AVCWnd@@@8				; CWnd `RTTI Type Descriptor'
PUBLIC	??_R3CWnd@@8					; CWnd::`RTTI Class Hierarchy Descriptor'
PUBLIC	??_R2CWnd@@8					; CWnd::`RTTI Base Class Array'
PUBLIC	??_R1A@?0A@EA@CCmdTarget@@8			; CCmdTarget::`RTTI Base Class Descriptor at (0,-1,0,64)'
PUBLIC	??_R0?AVCCmdTarget@@@8				; CCmdTarget `RTTI Type Descriptor'
PUBLIC	??_R3CCmdTarget@@8				; CCmdTarget::`RTTI Class Hierarchy Descriptor'
PUBLIC	??_R2CCmdTarget@@8				; CCmdTarget::`RTTI Base Class Array'
PUBLIC	??_R4CButton@@6B@				; CButton::`RTTI Complete Object Locator'
PUBLIC	??_R0?AVCButton@@@8				; CButton `RTTI Type Descriptor'
PUBLIC	??_R3CButton@@8					; CButton::`RTTI Class Hierarchy Descriptor'
PUBLIC	??_R2CButton@@8					; CButton::`RTTI Base Class Array'
PUBLIC	??_R1A@?0A@EA@CButton@@8			; CButton::`RTTI Base Class Descriptor at (0,-1,0,64)'
PUBLIC	??_R4CEdit@@6B@					; CEdit::`RTTI Complete Object Locator'
PUBLIC	??_R0?AVCEdit@@@8				; CEdit `RTTI Type Descriptor'
PUBLIC	??_R3CEdit@@8					; CEdit::`RTTI Class Hierarchy Descriptor'
PUBLIC	??_R2CEdit@@8					; CEdit::`RTTI Base Class Array'
PUBLIC	??_R1A@?0A@EA@CEdit@@8				; CEdit::`RTTI Base Class Descriptor at (0,-1,0,64)'
PUBLIC	??_R1A@?0A@EA@CDialog@@8			; CDialog::`RTTI Base Class Descriptor at (0,-1,0,64)'
PUBLIC	??_R0?AVCDialog@@@8				; CDialog `RTTI Type Descriptor'
PUBLIC	??_R3CDialog@@8					; CDialog::`RTTI Class Hierarchy Descriptor'
PUBLIC	??_R2CDialog@@8					; CDialog::`RTTI Base Class Array'
PUBLIC	??_7CDlgPatternEnvSetup@@6B@			; CDlgPatternEnvSetup::`vftable'
PUBLIC	??_C@_04GGBPDDBN@?$CF?41f@			; `string'
PUBLIC	??_R4CDlgPatternEnvSetup@@6B@			; CDlgPatternEnvSetup::`RTTI Complete Object Locator'
PUBLIC	??_R0?AVCDlgPatternEnvSetup@@@8			; CDlgPatternEnvSetup `RTTI Type Descriptor'
PUBLIC	??_R3CDlgPatternEnvSetup@@8			; CDlgPatternEnvSetup::`RTTI Class Hierarchy Descriptor'
PUBLIC	??_R2CDlgPatternEnvSetup@@8			; CDlgPatternEnvSetup::`RTTI Base Class Array'
PUBLIC	??_R1A@?0A@EA@CDlgPatternEnvSetup@@8		; CDlgPatternEnvSetup::`RTTI Base Class Descriptor at (0,-1,0,64)'
EXTRN	??3@YAXPAX@Z:PROC				; operator delete
EXTRN	?__global_delete@@YAXPAXI@Z:PROC		; __global_delete
EXTRN	__imp__CreateSolidBrush@4:PROC
EXTRN	__imp__SendMessageA@16:PROC
EXTRN	__imp__EnableWindow@8:PROC
EXTRN	__imp__atof:PROC
EXTRN	__imp__atoi:PROC
EXTRN	__imp_??0?$CStringT@DV?$StrTraitMFC_DLL@DV?$ChTraitsCRT@D@ATL@@@@@ATL@@QAE@XZ:PROC
EXTRN	__imp_??1?$CStringT@DV?$StrTraitMFC_DLL@DV?$ChTraitsCRT@D@ATL@@@@@ATL@@QAE@XZ:PROC
EXTRN	__imp_?Remove@?$CStringT@DV?$StrTraitMFC_DLL@DV?$ChTraitsCRT@D@ATL@@@@@ATL@@QAEHD@Z:PROC
EXTRN	__imp_?Format@?$CStringT@DV?$StrTraitMFC_DLL@DV?$ChTraitsCRT@D@ATL@@@@@ATL@@QAAXPBDZZ:PROC
EXTRN	?GetRuntimeClass@CGdiObject@@UBEPAUCRuntimeClass@@XZ:PROC ; CGdiObject::GetRuntimeClass
EXTRN	?Attach@CGdiObject@@QAEHPAX@Z:PROC		; CGdiObject::Attach
EXTRN	?DeleteObject@CGdiObject@@QAEHXZ:PROC		; CGdiObject::DeleteObject
EXTRN	??_ECGdiObject@@UAEPAXI@Z:PROC			; CGdiObject::`vector deleting destructor'
EXTRN	?GetRuntimeClass@CBrush@@UBEPAUCRuntimeClass@@XZ:PROC ; CBrush::GetRuntimeClass
EXTRN	??_ECBrush@@UAEPAXI@Z:PROC			; CBrush::`vector deleting destructor'
EXTRN	?DDX_Radio@@YGXPAVCDataExchange@@HAAH@Z:PROC	; DDX_Radio
EXTRN	?DDX_Control@@YGXPAVCDataExchange@@HAAVCWnd@@@Z:PROC ; DDX_Control
EXTRN	?OnCmdMsg@CCmdTarget@@UAEHIHPAXPAUAFX_CMDHANDLERINFO@@@Z:PROC ; CCmdTarget::OnCmdMsg
EXTRN	?IsInvokeAllowed@CCmdTarget@@UAEHJ@Z:PROC	; CCmdTarget::IsInvokeAllowed
EXTRN	?GetDispatchIID@CCmdTarget@@UAEHPAU_GUID@@@Z:PROC ; CCmdTarget::GetDispatchIID
EXTRN	?GetTypeInfoCount@CCmdTarget@@UAEIXZ:PROC	; CCmdTarget::GetTypeInfoCount
EXTRN	?GetTypeLibCache@CCmdTarget@@UAEPAVCTypeLibCache@@XZ:PROC ; CCmdTarget::GetTypeLibCache
EXTRN	?GetTypeLib@CCmdTarget@@UAEJKPAPAUITypeLib@@@Z:PROC ; CCmdTarget::GetTypeLib
EXTRN	?GetCommandMap@CCmdTarget@@MBEPBUAFX_OLECMDMAP@@XZ:PROC ; CCmdTarget::GetCommandMap
EXTRN	?GetDispatchMap@CCmdTarget@@MBEPBUAFX_DISPMAP@@XZ:PROC ; CCmdTarget::GetDispatchMap
EXTRN	?GetConnectionMap@CCmdTarget@@MBEPBUAFX_CONNECTIONMAP@@XZ:PROC ; CCmdTarget::GetConnectionMap
EXTRN	?GetEventSinkMap@CCmdTarget@@MBEPBUAFX_EVENTSINKMAP@@XZ:PROC ; CCmdTarget::GetEventSinkMap
EXTRN	?OnCreateAggregates@CCmdTarget@@UAEHXZ:PROC	; CCmdTarget::OnCreateAggregates
EXTRN	?GetInterfaceHook@CCmdTarget@@UAEPAUIUnknown@@PBX@Z:PROC ; CCmdTarget::GetInterfaceHook
EXTRN	?GetExtraConnectionPoints@CCmdTarget@@MAEHPAVCPtrArray@@@Z:PROC ; CCmdTarget::GetExtraConnectionPoints
EXTRN	?GetConnectionHook@CCmdTarget@@MAEPAUIConnectionPoint@@ABU_GUID@@@Z:PROC ; CCmdTarget::GetConnectionHook
EXTRN	??0CWnd@@QAE@XZ:PROC				; CWnd::CWnd
EXTRN	?PreSubclassWindow@CWnd@@UAEXXZ:PROC		; CWnd::PreSubclassWindow
EXTRN	?Create@CWnd@@UAEHPBD0KABUtagRECT@@PAV1@IPAUCCreateContext@@@Z:PROC ; CWnd::Create
EXTRN	?CreateEx@CWnd@@UAEHKPBD0KHHHHPAUHWND__@@PAUHMENU__@@PAX@Z:PROC ; CWnd::CreateEx
EXTRN	?CreateEx@CWnd@@UAEHKPBD0KABUtagRECT@@PAV1@IPAX@Z:PROC ; CWnd::CreateEx
EXTRN	?DestroyWindow@CWnd@@UAEHXZ:PROC		; CWnd::DestroyWindow
EXTRN	?PreCreateWindow@CWnd@@UAEHAAUtagCREATESTRUCTA@@@Z:PROC ; CWnd::PreCreateWindow
EXTRN	?CalcWindowRect@CWnd@@UAEXPAUtagRECT@@I@Z:PROC	; CWnd::CalcWindowRect
EXTRN	?GetDlgItem@CWnd@@QBEPAV1@H@Z:PROC		; CWnd::GetDlgItem
EXTRN	?SetWindowTextA@CWnd@@QAEXPBD@Z:PROC		; CWnd::SetWindowTextA
EXTRN	?GetWindowTextA@CWnd@@QBEXAAV?$CStringT@DV?$StrTraitMFC_DLL@DV?$ChTraitsCRT@D@ATL@@@@@ATL@@@Z:PROC ; CWnd::GetWindowTextA
EXTRN	?GetMenu@CWnd@@UBEPAVCMenu@@XZ:PROC		; CWnd::GetMenu
EXTRN	?SetMenu@CWnd@@UAEHPAVCMenu@@@Z:PROC		; CWnd::SetMenu
EXTRN	?OnToolHitTest@CWnd@@UBEHVCPoint@@PAUtagTOOLINFOA@@@Z:PROC ; CWnd::OnToolHitTest
EXTRN	?EnableWindow@CWnd@@QAEHH@Z:PROC		; CWnd::EnableWindow
EXTRN	?GetDlgItemTextA@CWnd@@QBEHHAAV?$CStringT@DV?$StrTraitMFC_DLL@DV?$ChTraitsCRT@D@ATL@@@@@ATL@@@Z:PROC ; CWnd::GetDlgItemTextA
EXTRN	?SetDlgItemTextA@CWnd@@QAEXHPBD@Z:PROC		; CWnd::SetDlgItemTextA
EXTRN	?GetScrollBarCtrl@CWnd@@UBEPAVCScrollBar@@H@Z:PROC ; CWnd::GetScrollBarCtrl
EXTRN	?UpdateData@CWnd@@QAEHH@Z:PROC			; CWnd::UpdateData
EXTRN	?WinHelpA@CWnd@@UAEXKI@Z:PROC			; CWnd::WinHelpA
EXTRN	?HtmlHelpA@CWnd@@UAEXKI@Z:PROC			; CWnd::HtmlHelpA
EXTRN	?WinHelpInternal@CWnd@@UAEXKI@Z:PROC		; CWnd::WinHelpInternal
EXTRN	?ContinueModal@CWnd@@UAEHXZ:PROC		; CWnd::ContinueModal
EXTRN	?EndModalLoop@CWnd@@UAEXH@Z:PROC		; CWnd::EndModalLoop
EXTRN	?OnDrawIconicThumbnailOrLivePreview@CWnd@@UAEXAAVCDC@@VCRect@@VCSize@@HAAH@Z:PROC ; CWnd::OnDrawIconicThumbnailOrLivePreview
EXTRN	?GetInterfaceMap@CWnd@@MBEPBUAFX_INTERFACEMAP@@XZ:PROC ; CWnd::GetInterfaceMap
EXTRN	?EnsureStdObj@CWnd@@UAEJXZ:PROC			; CWnd::EnsureStdObj
EXTRN	?get_accParent@CWnd@@UAEJPAPAUIDispatch@@@Z:PROC ; CWnd::get_accParent
EXTRN	?get_accChildCount@CWnd@@UAEJPAJ@Z:PROC		; CWnd::get_accChildCount
EXTRN	?get_accChild@CWnd@@UAEJUtagVARIANT@@PAPAUIDispatch@@@Z:PROC ; CWnd::get_accChild
EXTRN	?get_accName@CWnd@@UAEJUtagVARIANT@@PAPA_W@Z:PROC ; CWnd::get_accName
EXTRN	?get_accValue@CWnd@@UAEJUtagVARIANT@@PAPA_W@Z:PROC ; CWnd::get_accValue
EXTRN	?get_accDescription@CWnd@@UAEJUtagVARIANT@@PAPA_W@Z:PROC ; CWnd::get_accDescription
EXTRN	?get_accRole@CWnd@@UAEJUtagVARIANT@@PAU2@@Z:PROC ; CWnd::get_accRole
EXTRN	?get_accState@CWnd@@UAEJUtagVARIANT@@PAU2@@Z:PROC ; CWnd::get_accState
EXTRN	?get_accHelp@CWnd@@UAEJUtagVARIANT@@PAPA_W@Z:PROC ; CWnd::get_accHelp
EXTRN	?get_accHelpTopic@CWnd@@UAEJPAPA_WUtagVARIANT@@PAJ@Z:PROC ; CWnd::get_accHelpTopic
EXTRN	?get_accKeyboardShortcut@CWnd@@UAEJUtagVARIANT@@PAPA_W@Z:PROC ; CWnd::get_accKeyboardShortcut
EXTRN	?get_accFocus@CWnd@@UAEJPAUtagVARIANT@@@Z:PROC	; CWnd::get_accFocus
EXTRN	?get_accSelection@CWnd@@UAEJPAUtagVARIANT@@@Z:PROC ; CWnd::get_accSelection
EXTRN	?get_accDefaultAction@CWnd@@UAEJUtagVARIANT@@PAPA_W@Z:PROC ; CWnd::get_accDefaultAction
EXTRN	?accSelect@CWnd@@UAEJJUtagVARIANT@@@Z:PROC	; CWnd::accSelect
EXTRN	?accLocation@CWnd@@UAEJPAJ000UtagVARIANT@@@Z:PROC ; CWnd::accLocation
EXTRN	?accNavigate@CWnd@@UAEJJUtagVARIANT@@PAU2@@Z:PROC ; CWnd::accNavigate
EXTRN	?accHitTest@CWnd@@UAEJJJPAUtagVARIANT@@@Z:PROC	; CWnd::accHitTest
EXTRN	?accDoDefaultAction@CWnd@@UAEJUtagVARIANT@@@Z:PROC ; CWnd::accDoDefaultAction
EXTRN	?put_accName@CWnd@@UAEJUtagVARIANT@@PA_W@Z:PROC	; CWnd::put_accName
EXTRN	?put_accValue@CWnd@@UAEJUtagVARIANT@@PA_W@Z:PROC ; CWnd::put_accValue
EXTRN	?SetProxy@CWnd@@UAEJPAUIAccessibleProxy@@@Z:PROC ; CWnd::SetProxy
EXTRN	?CreateAccessibleProxy@CWnd@@UAEJIJPAJ@Z:PROC	; CWnd::CreateAccessibleProxy
EXTRN	?OnCommand@CWnd@@MAEHIJ@Z:PROC			; CWnd::OnCommand
EXTRN	?OnNotify@CWnd@@MAEHIJPAJ@Z:PROC		; CWnd::OnNotify
EXTRN	?OnCtlColor@CWnd@@IAEPAUHBRUSH__@@PAVCDC@@PAV1@I@Z:PROC ; CWnd::OnCtlColor
EXTRN	?OnDestroy@CWnd@@IAEXXZ:PROC			; CWnd::OnDestroy
EXTRN	?GetSuperWndProcAddr@CWnd@@MAEPAP6GJPAUHWND__@@IIJ@ZXZ:PROC ; CWnd::GetSuperWndProcAddr
EXTRN	?PreTranslateMessage@CWnd@@UAEHPAUtagMSG@@@Z:PROC ; CWnd::PreTranslateMessage
EXTRN	?OnAmbientProperty@CWnd@@UAEHPAVCOleControlSite@@JPAUtagVARIANT@@@Z:PROC ; CWnd::OnAmbientProperty
EXTRN	?WindowProc@CWnd@@MAEJIIJ@Z:PROC		; CWnd::WindowProc
EXTRN	?OnWndMsg@CWnd@@MAEHIIJPAJ@Z:PROC		; CWnd::OnWndMsg
EXTRN	?DefWindowProcA@CWnd@@MAEJIIJ@Z:PROC		; CWnd::DefWindowProcA
EXTRN	?PostNcDestroy@CWnd@@MAEXXZ:PROC		; CWnd::PostNcDestroy
EXTRN	?OnChildNotify@CWnd@@MAEHIIJPAJ@Z:PROC		; CWnd::OnChildNotify
EXTRN	?OnTouchInputs@CWnd@@MAEHIPAUtagTOUCHINPUT@@@Z:PROC ; CWnd::OnTouchInputs
EXTRN	?OnTouchInput@CWnd@@MAEHVCPoint@@HHPAUtagTOUCHINPUT@@@Z:PROC ; CWnd::OnTouchInput
EXTRN	?GetGestureStatus@CWnd@@MAEKVCPoint@@@Z:PROC	; CWnd::GetGestureStatus
EXTRN	?OnGestureZoom@CWnd@@MAEHVCPoint@@J@Z:PROC	; CWnd::OnGestureZoom
EXTRN	?OnGesturePan@CWnd@@MAEHVCPoint@@0@Z:PROC	; CWnd::OnGesturePan
EXTRN	?OnGestureRotate@CWnd@@MAEHVCPoint@@N@Z:PROC	; CWnd::OnGestureRotate
EXTRN	?OnGestureTwoFingerTap@CWnd@@MAEHVCPoint@@@Z:PROC ; CWnd::OnGestureTwoFingerTap
EXTRN	?OnGesturePressAndTap@CWnd@@MAEHVCPoint@@J@Z:PROC ; CWnd::OnGesturePressAndTap
EXTRN	?ResizeDynamicLayout@CWnd@@MAEXXZ:PROC		; CWnd::ResizeDynamicLayout
EXTRN	?CheckAutoCenter@CWnd@@UAEHXZ:PROC		; CWnd::CheckAutoCenter
EXTRN	?IsFrameWnd@CWnd@@UBEHXZ:PROC			; CWnd::IsFrameWnd
EXTRN	?OnFinalRelease@CWnd@@UAEXXZ:PROC		; CWnd::OnFinalRelease
EXTRN	?CreateControlContainer@CWnd@@MAEHPAPAVCOleControlContainer@@@Z:PROC ; CWnd::CreateControlContainer
EXTRN	?CreateControlSite@CWnd@@MAEHPAVCOleControlContainer@@PAPAVCOleControlSite@@IABU_GUID@@@Z:PROC ; CWnd::CreateControlSite
EXTRN	?SetOccDialogInfo@CWnd@@MAEHPAU_AFX_OCC_DIALOG_INFO@@@Z:PROC ; CWnd::SetOccDialogInfo
EXTRN	?GetOccDialogInfo@CWnd@@MAEPAU_AFX_OCC_DIALOG_INFO@@XZ:PROC ; CWnd::GetOccDialogInfo
EXTRN	?GetMessageMap@CWnd@@MBEPBUAFX_MSGMAP@@XZ:PROC	; CWnd::GetMessageMap
EXTRN	?GetRuntimeClass@CDialog@@UBEPAUCRuntimeClass@@XZ:PROC ; CDialog::GetRuntimeClass
EXTRN	?Create@CDialog@@UAEHPBDPAVCWnd@@@Z:PROC	; CDialog::Create
EXTRN	?CreateIndirect@CDialog@@UAEHPBUDLGTEMPLATE@@PAVCWnd@@PAX@Z:PROC ; CDialog::CreateIndirect
EXTRN	?CreateIndirect@CDialog@@UAEHPAXPAVCWnd@@@Z:PROC ; CDialog::CreateIndirect
EXTRN	??0CDialog@@QAE@IPAVCWnd@@@Z:PROC		; CDialog::CDialog
EXTRN	?DoModal@CDialog@@UAEHXZ:PROC			; CDialog::DoModal
EXTRN	?OnInitDialog@CDialog@@UAEHXZ:PROC		; CDialog::OnInitDialog
EXTRN	?OnSetFont@CDialog@@UAEXPAVCFont@@@Z:PROC	; CDialog::OnSetFont
EXTRN	?OnOK@CDialog@@MAEXXZ:PROC			; CDialog::OnOK
EXTRN	?OnCancel@CDialog@@MAEXXZ:PROC			; CDialog::OnCancel
EXTRN	??1CDialog@@UAE@XZ:PROC				; CDialog::~CDialog
EXTRN	?PreTranslateMessage@CDialog@@UAEHPAUtagMSG@@@Z:PROC ; CDialog::PreTranslateMessage
EXTRN	?OnCmdMsg@CDialog@@UAEHIHPAXPAUAFX_CMDHANDLERINFO@@@Z:PROC ; CDialog::OnCmdMsg
EXTRN	?CheckAutoCenter@CDialog@@UAEHXZ:PROC		; CDialog::CheckAutoCenter
EXTRN	?SetOccDialogInfo@CDialog@@MAEHPAU_AFX_OCC_DIALOG_INFO@@@Z:PROC ; CDialog::SetOccDialogInfo
EXTRN	?GetOccDialogInfo@CDialog@@MAEPAU_AFX_OCC_DIALOG_INFO@@XZ:PROC ; CDialog::GetOccDialogInfo
EXTRN	?PreInitDialog@CDialog@@MAEXXZ:PROC		; CDialog::PreInitDialog
EXTRN	?GetThisMessageMap@CDialog@@KGPBUAFX_MSGMAP@@XZ:PROC ; CDialog::GetThisMessageMap
EXTRN	?GetRuntimeClass@CButton@@UBEPAUCRuntimeClass@@XZ:PROC ; CButton::GetRuntimeClass
EXTRN	?Create@CButton@@UAEHPBDKABUtagRECT@@PAVCWnd@@I@Z:PROC ; CButton::Create
EXTRN	?DrawItem@CButton@@UAEXPAUtagDRAWITEMSTRUCT@@@Z:PROC ; CButton::DrawItem
EXTRN	??1CButton@@UAE@XZ:PROC				; CButton::~CButton
EXTRN	?OnChildNotify@CButton@@MAEHIIJPAJ@Z:PROC	; CButton::OnChildNotify
EXTRN	??_ECButton@@UAEPAXI@Z:PROC			; CButton::`vector deleting destructor'
EXTRN	?GetRuntimeClass@CEdit@@UBEPAUCRuntimeClass@@XZ:PROC ; CEdit::GetRuntimeClass
EXTRN	??1CEdit@@UAE@XZ:PROC				; CEdit::~CEdit
EXTRN	??_ECEdit@@UAEPAXI@Z:PROC			; CEdit::`vector deleting destructor'
EXTRN	?AfxMessageBox@@YGHPBDII@Z:PROC			; AfxMessageBox
EXTRN	??_ECDlgPatternEnvSetup@@UAEPAXI@Z:PROC		; CDlgPatternEnvSetup::`vector deleting destructor'
EXTRN	@__security_check_cookie@4:PROC
EXTRN	___CxxFrameHandler3:PROC
EXTRN	??_7type_info@@6B@:QWORD			; type_info::`vftable'
EXTRN	___security_cookie:DWORD
EXTRN	__fltused:DWORD
;	COMDAT ??_R1A@?0A@EA@CDlgPatternEnvSetup@@8
rdata$r	SEGMENT
??_R1A@?0A@EA@CDlgPatternEnvSetup@@8 DD FLAT:??_R0?AVCDlgPatternEnvSetup@@@8 ; CDlgPatternEnvSetup::`RTTI Base Class Descriptor at (0,-1,0,64)'
	DD	04H
	DD	00H
	DD	0ffffffffH
	DD	00H
	DD	040H
	DD	FLAT:??_R3CDlgPatternEnvSetup@@8
rdata$r	ENDS
;	COMDAT ??_R2CDlgPatternEnvSetup@@8
rdata$r	SEGMENT
??_R2CDlgPatternEnvSetup@@8 DD FLAT:??_R1A@?0A@EA@CDlgPatternEnvSetup@@8 ; CDlgPatternEnvSetup::`RTTI Base Class Array'
	DD	FLAT:??_R1A@?0A@EA@CDialog@@8
	DD	FLAT:??_R1A@?0A@EA@CWnd@@8
	DD	FLAT:??_R1A@?0A@EA@CCmdTarget@@8
	DD	FLAT:??_R1A@?0A@EA@CObject@@8
rdata$r	ENDS
;	COMDAT ??_R3CDlgPatternEnvSetup@@8
rdata$r	SEGMENT
??_R3CDlgPatternEnvSetup@@8 DD 00H			; CDlgPatternEnvSetup::`RTTI Class Hierarchy Descriptor'
	DD	00H
	DD	05H
	DD	FLAT:??_R2CDlgPatternEnvSetup@@8
rdata$r	ENDS
;	COMDAT ??_R0?AVCDlgPatternEnvSetup@@@8
data$rs	SEGMENT
??_R0?AVCDlgPatternEnvSetup@@@8 DD FLAT:??_7type_info@@6B@ ; CDlgPatternEnvSetup `RTTI Type Descriptor'
	DD	00H
	DB	'.?AVCDlgPatternEnvSetup@@', 00H
data$rs	ENDS
;	COMDAT ??_R4CDlgPatternEnvSetup@@6B@
rdata$r	SEGMENT
??_R4CDlgPatternEnvSetup@@6B@ DD 00H			; CDlgPatternEnvSetup::`RTTI Complete Object Locator'
	DD	00H
	DD	00H
	DD	FLAT:??_R0?AVCDlgPatternEnvSetup@@@8
	DD	FLAT:??_R3CDlgPatternEnvSetup@@8
rdata$r	ENDS
;	COMDAT ??_C@_04GGBPDDBN@?$CF?41f@
CONST	SEGMENT
??_C@_04GGBPDDBN@?$CF?41f@ DB '%.1f', 00H		; `string'
CONST	ENDS
;	COMDAT ?messageMap@?1??GetThisMessageMap@CDlgPatternEnvSetup@@KGPBUAFX_MSGMAP@@XZ@4U3@B
CONST	SEGMENT
?messageMap@?1??GetThisMessageMap@CDlgPatternEnvSetup@@KGPBUAFX_MSGMAP@@XZ@4U3@B DD FLAT:?GetThisMessageMap@CDialog@@KGPBUAFX_MSGMAP@@XZ ; `CDlgPatternEnvSetup::GetThisMessageMap'::`2'::messageMap
	DD	FLAT:?_messageEntries@?1??GetThisMessageMap@CDlgPatternEnvSetup@@KGPBUAFX_MSGMAP@@XZ@4QBUAFX_MSGMAP_ENTRY@@B
CONST	ENDS
;	COMDAT ?_messageEntries@?1??GetThisMessageMap@CDlgPatternEnvSetup@@KGPBUAFX_MSGMAP@@XZ@4QBUAFX_MSGMAP_ENTRY@@B
CONST	SEGMENT
?_messageEntries@?1??GetThisMessageMap@CDlgPatternEnvSetup@@KGPBUAFX_MSGMAP@@XZ@4QBUAFX_MSGMAP_ENTRY@@B DD 0111H ; `CDlgPatternEnvSetup::GetThisMessageMap'::`2'::_messageEntries
	DD	00H
	DD	07d9H
	DD	07d9H
	DD	03aH
	DD	FLAT:?OnRadioMma@CDlgPatternEnvSetup@@IAEXXZ
	DD	0111H
	DD	00H
	DD	07daH
	DD	07daH
	DD	03aH
	DD	FLAT:?OnRadioCandle@CDlgPatternEnvSetup@@IAEXXZ
	DD	019H
	DD	00H
	DD	00H
	DD	00H
	DD	08H
	DD	FLAT:?OnCtlColor@CDlgPatternEnvSetup@@IAEPAUHBRUSH__@@PAVCDC@@PAVCWnd@@I@Z
	DD	02H
	DD	00H
	DD	00H
	DD	00H
	DD	013H
	DD	FLAT:?OnDestroy@CDlgPatternEnvSetup@@IAEXXZ
	DD	00H
	DD	00H
	DD	00H
	DD	00H
	DD	00H
	DD	00H
CONST	ENDS
;	COMDAT ??_7CDlgPatternEnvSetup@@6B@
CONST	SEGMENT
??_7CDlgPatternEnvSetup@@6B@ DD FLAT:??_R4CDlgPatternEnvSetup@@6B@ ; CDlgPatternEnvSetup::`vftable'
	DD	FLAT:?GetRuntimeClass@CDialog@@UBEPAUCRuntimeClass@@XZ
	DD	FLAT:??_ECDlgPatternEnvSetup@@UAEPAXI@Z
	DD	FLAT:?Serialize@CObject@@UAEXAAVCArchive@@@Z
	DD	FLAT:?AssertValid@CObject@@UBEXXZ
	DD	FLAT:?Dump@CObject@@UBEXAAVCDumpContext@@@Z
	DD	FLAT:?OnCmdMsg@CDialog@@UAEHIHPAXPAUAFX_CMDHANDLERINFO@@@Z
	DD	FLAT:?OnFinalRelease@CWnd@@UAEXXZ
	DD	FLAT:?IsInvokeAllowed@CCmdTarget@@UAEHJ@Z
	DD	FLAT:?GetDispatchIID@CCmdTarget@@UAEHPAU_GUID@@@Z
	DD	FLAT:?GetTypeInfoCount@CCmdTarget@@UAEIXZ
	DD	FLAT:?GetTypeLibCache@CCmdTarget@@UAEPAVCTypeLibCache@@XZ
	DD	FLAT:?GetTypeLib@CCmdTarget@@UAEJKPAPAUITypeLib@@@Z
	DD	FLAT:?GetMessageMap@CDlgPatternEnvSetup@@MBEPBUAFX_MSGMAP@@XZ
	DD	FLAT:?GetCommandMap@CCmdTarget@@MBEPBUAFX_OLECMDMAP@@XZ
	DD	FLAT:?GetDispatchMap@CCmdTarget@@MBEPBUAFX_DISPMAP@@XZ
	DD	FLAT:?GetConnectionMap@CCmdTarget@@MBEPBUAFX_CONNECTIONMAP@@XZ
	DD	FLAT:?GetInterfaceMap@CWnd@@MBEPBUAFX_INTERFACEMAP@@XZ
	DD	FLAT:?GetEventSinkMap@CCmdTarget@@MBEPBUAFX_EVENTSINKMAP@@XZ
	DD	FLAT:?OnCreateAggregates@CCmdTarget@@UAEHXZ
	DD	FLAT:?GetInterfaceHook@CCmdTarget@@UAEPAUIUnknown@@PBX@Z
	DD	FLAT:?GetExtraConnectionPoints@CCmdTarget@@MAEHPAVCPtrArray@@@Z
	DD	FLAT:?GetConnectionHook@CCmdTarget@@MAEPAUIConnectionPoint@@ABU_GUID@@@Z
	DD	FLAT:?PreSubclassWindow@CWnd@@UAEXXZ
	DD	FLAT:?Create@CWnd@@UAEHPBD0KABUtagRECT@@PAV1@IPAUCCreateContext@@@Z
	DD	FLAT:?CreateEx@CWnd@@UAEHKPBD0KABUtagRECT@@PAV1@IPAX@Z
	DD	FLAT:?CreateEx@CWnd@@UAEHKPBD0KHHHHPAUHWND__@@PAUHMENU__@@PAX@Z
	DD	FLAT:?DestroyWindow@CWnd@@UAEHXZ
	DD	FLAT:?PreCreateWindow@CWnd@@UAEHAAUtagCREATESTRUCTA@@@Z
	DD	FLAT:?CalcWindowRect@CWnd@@UAEXPAUtagRECT@@I@Z
	DD	FLAT:?GetMenu@CWnd@@UBEPAVCMenu@@XZ
	DD	FLAT:?SetMenu@CWnd@@UAEHPAVCMenu@@@Z
	DD	FLAT:?OnToolHitTest@CWnd@@UBEHVCPoint@@PAUtagTOOLINFOA@@@Z
	DD	FLAT:?GetScrollBarCtrl@CWnd@@UBEPAVCScrollBar@@H@Z
	DD	FLAT:?WinHelpA@CWnd@@UAEXKI@Z
	DD	FLAT:?HtmlHelpA@CWnd@@UAEXKI@Z
	DD	FLAT:?WinHelpInternal@CWnd@@UAEXKI@Z
	DD	FLAT:?ContinueModal@CWnd@@UAEHXZ
	DD	FLAT:?EndModalLoop@CWnd@@UAEXH@Z
	DD	FLAT:?OnDrawIconicThumbnailOrLivePreview@CWnd@@UAEXAAVCDC@@VCRect@@VCSize@@HAAH@Z
	DD	FLAT:?EnsureStdObj@CWnd@@UAEJXZ
	DD	FLAT:?get_accParent@CWnd@@UAEJPAPAUIDispatch@@@Z
	DD	FLAT:?get_accChildCount@CWnd@@UAEJPAJ@Z
	DD	FLAT:?get_accChild@CWnd@@UAEJUtagVARIANT@@PAPAUIDispatch@@@Z
	DD	FLAT:?get_accName@CWnd@@UAEJUtagVARIANT@@PAPA_W@Z
	DD	FLAT:?get_accValue@CWnd@@UAEJUtagVARIANT@@PAPA_W@Z
	DD	FLAT:?get_accDescription@CWnd@@UAEJUtagVARIANT@@PAPA_W@Z
	DD	FLAT:?get_accRole@CWnd@@UAEJUtagVARIANT@@PAU2@@Z
	DD	FLAT:?get_accState@CWnd@@UAEJUtagVARIANT@@PAU2@@Z
	DD	FLAT:?get_accHelp@CWnd@@UAEJUtagVARIANT@@PAPA_W@Z
	DD	FLAT:?get_accHelpTopic@CWnd@@UAEJPAPA_WUtagVARIANT@@PAJ@Z
	DD	FLAT:?get_accKeyboardShortcut@CWnd@@UAEJUtagVARIANT@@PAPA_W@Z
	DD	FLAT:?get_accFocus@CWnd@@UAEJPAUtagVARIANT@@@Z
	DD	FLAT:?get_accSelection@CWnd@@UAEJPAUtagVARIANT@@@Z
	DD	FLAT:?get_accDefaultAction@CWnd@@UAEJUtagVARIANT@@PAPA_W@Z
	DD	FLAT:?accSelect@CWnd@@UAEJJUtagVARIANT@@@Z
	DD	FLAT:?accLocation@CWnd@@UAEJPAJ000UtagVARIANT@@@Z
	DD	FLAT:?accNavigate@CWnd@@UAEJJUtagVARIANT@@PAU2@@Z
	DD	FLAT:?accHitTest@CWnd@@UAEJJJPAUtagVARIANT@@@Z
	DD	FLAT:?accDoDefaultAction@CWnd@@UAEJUtagVARIANT@@@Z
	DD	FLAT:?put_accName@CWnd@@UAEJUtagVARIANT@@PA_W@Z
	DD	FLAT:?put_accValue@CWnd@@UAEJUtagVARIANT@@PA_W@Z
	DD	FLAT:?SetProxy@CWnd@@UAEJPAUIAccessibleProxy@@@Z
	DD	FLAT:?CreateAccessibleProxy@CWnd@@UAEJIJPAJ@Z
	DD	FLAT:?OnCommand@CWnd@@MAEHIJ@Z
	DD	FLAT:?OnNotify@CWnd@@MAEHIJPAJ@Z
	DD	FLAT:?GetSuperWndProcAddr@CWnd@@MAEPAP6GJPAUHWND__@@IIJ@ZXZ
	DD	FLAT:?DoDataExchange@CDlgPatternEnvSetup@@MAEXPAVCDataExchange@@@Z
	DD	FLAT:?BeginModalState@CWnd@@UAEXXZ
	DD	FLAT:?EndModalState@CWnd@@UAEXXZ
	DD	FLAT:?PreTranslateMessage@CDialog@@UAEHPAUtagMSG@@@Z
	DD	FLAT:?OnAmbientProperty@CWnd@@UAEHPAVCOleControlSite@@JPAUtagVARIANT@@@Z
	DD	FLAT:?WindowProc@CWnd@@MAEJIIJ@Z
	DD	FLAT:?OnWndMsg@CWnd@@MAEHIIJPAJ@Z
	DD	FLAT:?DefWindowProcA@CWnd@@MAEJIIJ@Z
	DD	FLAT:?PostNcDestroy@CWnd@@MAEXXZ
	DD	FLAT:?OnChildNotify@CWnd@@MAEHIIJPAJ@Z
	DD	FLAT:?OnTouchInputs@CWnd@@MAEHIPAUtagTOUCHINPUT@@@Z
	DD	FLAT:?OnTouchInput@CWnd@@MAEHVCPoint@@HHPAUtagTOUCHINPUT@@@Z
	DD	FLAT:?GetGestureStatus@CWnd@@MAEKVCPoint@@@Z
	DD	FLAT:?OnGestureZoom@CWnd@@MAEHVCPoint@@J@Z
	DD	FLAT:?OnGesturePan@CWnd@@MAEHVCPoint@@0@Z
	DD	FLAT:?OnGestureRotate@CWnd@@MAEHVCPoint@@N@Z
	DD	FLAT:?OnGestureTwoFingerTap@CWnd@@MAEHVCPoint@@@Z
	DD	FLAT:?OnGesturePressAndTap@CWnd@@MAEHVCPoint@@J@Z
	DD	FLAT:?ResizeDynamicLayout@CWnd@@MAEXXZ
	DD	FLAT:?CheckAutoCenter@CDialog@@UAEHXZ
	DD	FLAT:?IsFrameWnd@CWnd@@UBEHXZ
	DD	FLAT:?CreateControlContainer@CWnd@@MAEHPAPAVCOleControlContainer@@@Z
	DD	FLAT:?CreateControlSite@CWnd@@MAEHPAVCOleControlContainer@@PAPAVCOleControlSite@@IABU_GUID@@@Z
	DD	FLAT:?SetOccDialogInfo@CDialog@@MAEHPAU_AFX_OCC_DIALOG_INFO@@@Z
	DD	FLAT:?GetOccDialogInfo@CDialog@@MAEPAU_AFX_OCC_DIALOG_INFO@@XZ
	DD	FLAT:?Create@CDialog@@UAEHIPAVCWnd@@@Z
	DD	FLAT:?Create@CDialog@@UAEHPBDPAVCWnd@@@Z
	DD	FLAT:?CreateIndirect@CDialog@@UAEHPAXPAVCWnd@@@Z
	DD	FLAT:?CreateIndirect@CDialog@@UAEHPBUDLGTEMPLATE@@PAVCWnd@@PAX@Z
	DD	FLAT:?DoModal@CDialog@@UAEHXZ
	DD	FLAT:?OnInitDialog@CDlgPatternEnvSetup@@MAEHXZ
	DD	FLAT:?OnSetFont@CDialog@@UAEXPAVCFont@@@Z
	DD	FLAT:?OnOK@CDlgPatternEnvSetup@@MAEXXZ
	DD	FLAT:?OnCancel@CDialog@@MAEXXZ
	DD	FLAT:?PreInitDialog@CDialog@@MAEXXZ
CONST	ENDS
;	COMDAT ??_R2CDialog@@8
rdata$r	SEGMENT
??_R2CDialog@@8 DD FLAT:??_R1A@?0A@EA@CDialog@@8	; CDialog::`RTTI Base Class Array'
	DD	FLAT:??_R1A@?0A@EA@CWnd@@8
	DD	FLAT:??_R1A@?0A@EA@CCmdTarget@@8
	DD	FLAT:??_R1A@?0A@EA@CObject@@8
rdata$r	ENDS
;	COMDAT ??_R3CDialog@@8
rdata$r	SEGMENT
??_R3CDialog@@8 DD 00H					; CDialog::`RTTI Class Hierarchy Descriptor'
	DD	00H
	DD	04H
	DD	FLAT:??_R2CDialog@@8
rdata$r	ENDS
;	COMDAT ??_R0?AVCDialog@@@8
data$rs	SEGMENT
??_R0?AVCDialog@@@8 DD FLAT:??_7type_info@@6B@		; CDialog `RTTI Type Descriptor'
	DD	00H
	DB	'.?AVCDialog@@', 00H
data$rs	ENDS
;	COMDAT ??_R1A@?0A@EA@CDialog@@8
rdata$r	SEGMENT
??_R1A@?0A@EA@CDialog@@8 DD FLAT:??_R0?AVCDialog@@@8	; CDialog::`RTTI Base Class Descriptor at (0,-1,0,64)'
	DD	03H
	DD	00H
	DD	0ffffffffH
	DD	00H
	DD	040H
	DD	FLAT:??_R3CDialog@@8
rdata$r	ENDS
;	COMDAT ??_R1A@?0A@EA@CEdit@@8
rdata$r	SEGMENT
??_R1A@?0A@EA@CEdit@@8 DD FLAT:??_R0?AVCEdit@@@8	; CEdit::`RTTI Base Class Descriptor at (0,-1,0,64)'
	DD	03H
	DD	00H
	DD	0ffffffffH
	DD	00H
	DD	040H
	DD	FLAT:??_R3CEdit@@8
rdata$r	ENDS
;	COMDAT ??_R2CEdit@@8
rdata$r	SEGMENT
??_R2CEdit@@8 DD FLAT:??_R1A@?0A@EA@CEdit@@8		; CEdit::`RTTI Base Class Array'
	DD	FLAT:??_R1A@?0A@EA@CWnd@@8
	DD	FLAT:??_R1A@?0A@EA@CCmdTarget@@8
	DD	FLAT:??_R1A@?0A@EA@CObject@@8
rdata$r	ENDS
;	COMDAT ??_R3CEdit@@8
rdata$r	SEGMENT
??_R3CEdit@@8 DD 00H					; CEdit::`RTTI Class Hierarchy Descriptor'
	DD	00H
	DD	04H
	DD	FLAT:??_R2CEdit@@8
rdata$r	ENDS
;	COMDAT ??_R0?AVCEdit@@@8
data$rs	SEGMENT
??_R0?AVCEdit@@@8 DD FLAT:??_7type_info@@6B@		; CEdit `RTTI Type Descriptor'
	DD	00H
	DB	'.?AVCEdit@@', 00H
data$rs	ENDS
;	COMDAT ??_R4CEdit@@6B@
rdata$r	SEGMENT
??_R4CEdit@@6B@ DD 00H					; CEdit::`RTTI Complete Object Locator'
	DD	00H
	DD	00H
	DD	FLAT:??_R0?AVCEdit@@@8
	DD	FLAT:??_R3CEdit@@8
rdata$r	ENDS
;	COMDAT ??_R1A@?0A@EA@CButton@@8
rdata$r	SEGMENT
??_R1A@?0A@EA@CButton@@8 DD FLAT:??_R0?AVCButton@@@8	; CButton::`RTTI Base Class Descriptor at (0,-1,0,64)'
	DD	03H
	DD	00H
	DD	0ffffffffH
	DD	00H
	DD	040H
	DD	FLAT:??_R3CButton@@8
rdata$r	ENDS
;	COMDAT ??_R2CButton@@8
rdata$r	SEGMENT
??_R2CButton@@8 DD FLAT:??_R1A@?0A@EA@CButton@@8	; CButton::`RTTI Base Class Array'
	DD	FLAT:??_R1A@?0A@EA@CWnd@@8
	DD	FLAT:??_R1A@?0A@EA@CCmdTarget@@8
	DD	FLAT:??_R1A@?0A@EA@CObject@@8
rdata$r	ENDS
;	COMDAT ??_R3CButton@@8
rdata$r	SEGMENT
??_R3CButton@@8 DD 00H					; CButton::`RTTI Class Hierarchy Descriptor'
	DD	00H
	DD	04H
	DD	FLAT:??_R2CButton@@8
rdata$r	ENDS
;	COMDAT ??_R0?AVCButton@@@8
data$rs	SEGMENT
??_R0?AVCButton@@@8 DD FLAT:??_7type_info@@6B@		; CButton `RTTI Type Descriptor'
	DD	00H
	DB	'.?AVCButton@@', 00H
data$rs	ENDS
;	COMDAT ??_R4CButton@@6B@
rdata$r	SEGMENT
??_R4CButton@@6B@ DD 00H				; CButton::`RTTI Complete Object Locator'
	DD	00H
	DD	00H
	DD	FLAT:??_R0?AVCButton@@@8
	DD	FLAT:??_R3CButton@@8
rdata$r	ENDS
;	COMDAT ??_R2CCmdTarget@@8
rdata$r	SEGMENT
??_R2CCmdTarget@@8 DD FLAT:??_R1A@?0A@EA@CCmdTarget@@8	; CCmdTarget::`RTTI Base Class Array'
	DD	FLAT:??_R1A@?0A@EA@CObject@@8
rdata$r	ENDS
;	COMDAT ??_R3CCmdTarget@@8
rdata$r	SEGMENT
??_R3CCmdTarget@@8 DD 00H				; CCmdTarget::`RTTI Class Hierarchy Descriptor'
	DD	00H
	DD	02H
	DD	FLAT:??_R2CCmdTarget@@8
rdata$r	ENDS
;	COMDAT ??_R0?AVCCmdTarget@@@8
data$rs	SEGMENT
??_R0?AVCCmdTarget@@@8 DD FLAT:??_7type_info@@6B@	; CCmdTarget `RTTI Type Descriptor'
	DD	00H
	DB	'.?AVCCmdTarget@@', 00H
data$rs	ENDS
;	COMDAT ??_R1A@?0A@EA@CCmdTarget@@8
rdata$r	SEGMENT
??_R1A@?0A@EA@CCmdTarget@@8 DD FLAT:??_R0?AVCCmdTarget@@@8 ; CCmdTarget::`RTTI Base Class Descriptor at (0,-1,0,64)'
	DD	01H
	DD	00H
	DD	0ffffffffH
	DD	00H
	DD	040H
	DD	FLAT:??_R3CCmdTarget@@8
rdata$r	ENDS
;	COMDAT ??_R2CWnd@@8
rdata$r	SEGMENT
??_R2CWnd@@8 DD	FLAT:??_R1A@?0A@EA@CWnd@@8		; CWnd::`RTTI Base Class Array'
	DD	FLAT:??_R1A@?0A@EA@CCmdTarget@@8
	DD	FLAT:??_R1A@?0A@EA@CObject@@8
rdata$r	ENDS
;	COMDAT ??_R3CWnd@@8
rdata$r	SEGMENT
??_R3CWnd@@8 DD	00H					; CWnd::`RTTI Class Hierarchy Descriptor'
	DD	00H
	DD	03H
	DD	FLAT:??_R2CWnd@@8
rdata$r	ENDS
;	COMDAT ??_R0?AVCWnd@@@8
data$rs	SEGMENT
??_R0?AVCWnd@@@8 DD FLAT:??_7type_info@@6B@		; CWnd `RTTI Type Descriptor'
	DD	00H
	DB	'.?AVCWnd@@', 00H
data$rs	ENDS
;	COMDAT ??_R1A@?0A@EA@CWnd@@8
rdata$r	SEGMENT
??_R1A@?0A@EA@CWnd@@8 DD FLAT:??_R0?AVCWnd@@@8		; CWnd::`RTTI Base Class Descriptor at (0,-1,0,64)'
	DD	02H
	DD	00H
	DD	0ffffffffH
	DD	00H
	DD	040H
	DD	FLAT:??_R3CWnd@@8
rdata$r	ENDS
;	COMDAT ??_R1A@?0A@EA@CBrush@@8
rdata$r	SEGMENT
??_R1A@?0A@EA@CBrush@@8 DD FLAT:??_R0?AVCBrush@@@8	; CBrush::`RTTI Base Class Descriptor at (0,-1,0,64)'
	DD	02H
	DD	00H
	DD	0ffffffffH
	DD	00H
	DD	040H
	DD	FLAT:??_R3CBrush@@8
rdata$r	ENDS
;	COMDAT ??_R2CBrush@@8
rdata$r	SEGMENT
??_R2CBrush@@8 DD FLAT:??_R1A@?0A@EA@CBrush@@8		; CBrush::`RTTI Base Class Array'
	DD	FLAT:??_R1A@?0A@EA@CGdiObject@@8
	DD	FLAT:??_R1A@?0A@EA@CObject@@8
rdata$r	ENDS
;	COMDAT ??_R3CBrush@@8
rdata$r	SEGMENT
??_R3CBrush@@8 DD 00H					; CBrush::`RTTI Class Hierarchy Descriptor'
	DD	00H
	DD	03H
	DD	FLAT:??_R2CBrush@@8
rdata$r	ENDS
;	COMDAT ??_R0?AVCBrush@@@8
data$rs	SEGMENT
??_R0?AVCBrush@@@8 DD FLAT:??_7type_info@@6B@		; CBrush `RTTI Type Descriptor'
	DD	00H
	DB	'.?AVCBrush@@', 00H
data$rs	ENDS
;	COMDAT ??_R4CBrush@@6B@
rdata$r	SEGMENT
??_R4CBrush@@6B@ DD 00H					; CBrush::`RTTI Complete Object Locator'
	DD	00H
	DD	00H
	DD	FLAT:??_R0?AVCBrush@@@8
	DD	FLAT:??_R3CBrush@@8
rdata$r	ENDS
;	COMDAT ??_R1A@?0A@EA@CGdiObject@@8
rdata$r	SEGMENT
??_R1A@?0A@EA@CGdiObject@@8 DD FLAT:??_R0?AVCGdiObject@@@8 ; CGdiObject::`RTTI Base Class Descriptor at (0,-1,0,64)'
	DD	01H
	DD	00H
	DD	0ffffffffH
	DD	00H
	DD	040H
	DD	FLAT:??_R3CGdiObject@@8
rdata$r	ENDS
;	COMDAT ??_R2CGdiObject@@8
rdata$r	SEGMENT
??_R2CGdiObject@@8 DD FLAT:??_R1A@?0A@EA@CGdiObject@@8	; CGdiObject::`RTTI Base Class Array'
	DD	FLAT:??_R1A@?0A@EA@CObject@@8
rdata$r	ENDS
;	COMDAT ??_R3CGdiObject@@8
rdata$r	SEGMENT
??_R3CGdiObject@@8 DD 00H				; CGdiObject::`RTTI Class Hierarchy Descriptor'
	DD	00H
	DD	02H
	DD	FLAT:??_R2CGdiObject@@8
rdata$r	ENDS
;	COMDAT ??_R0?AVCGdiObject@@@8
data$rs	SEGMENT
??_R0?AVCGdiObject@@@8 DD FLAT:??_7type_info@@6B@	; CGdiObject `RTTI Type Descriptor'
	DD	00H
	DB	'.?AVCGdiObject@@', 00H
data$rs	ENDS
;	COMDAT ??_R4CGdiObject@@6B@
rdata$r	SEGMENT
??_R4CGdiObject@@6B@ DD 00H				; CGdiObject::`RTTI Complete Object Locator'
	DD	00H
	DD	00H
	DD	FLAT:??_R0?AVCGdiObject@@@8
	DD	FLAT:??_R3CGdiObject@@8
rdata$r	ENDS
;	COMDAT ??_R1A@?0A@EA@CObject@@8
rdata$r	SEGMENT
??_R1A@?0A@EA@CObject@@8 DD FLAT:??_R0?AVCObject@@@8	; CObject::`RTTI Base Class Descriptor at (0,-1,0,64)'
	DD	00H
	DD	00H
	DD	0ffffffffH
	DD	00H
	DD	040H
	DD	FLAT:??_R3CObject@@8
rdata$r	ENDS
;	COMDAT ??_R2CObject@@8
rdata$r	SEGMENT
??_R2CObject@@8 DD FLAT:??_R1A@?0A@EA@CObject@@8	; CObject::`RTTI Base Class Array'
rdata$r	ENDS
;	COMDAT ??_R3CObject@@8
rdata$r	SEGMENT
??_R3CObject@@8 DD 00H					; CObject::`RTTI Class Hierarchy Descriptor'
	DD	00H
	DD	01H
	DD	FLAT:??_R2CObject@@8
rdata$r	ENDS
;	COMDAT ??_R0?AVCObject@@@8
data$rs	SEGMENT
??_R0?AVCObject@@@8 DD FLAT:??_7type_info@@6B@		; CObject `RTTI Type Descriptor'
	DD	00H
	DB	'.?AVCObject@@', 00H
data$rs	ENDS
;	COMDAT ??_C@_0N@OMEMOKLE@?$CFTs?5?$CI?$CFTs?3?$CFd?$CJ@
CONST	SEGMENT
??_C@_0N@OMEMOKLE@?$CFTs?5?$CI?$CFTs?3?$CFd?$CJ@ DB '%Ts (%Ts:%d)', 00H ; `string'
CONST	ENDS
;	COMDAT ??_C@_0BB@HBOOMJBF@?$CFTs?5?$CI?$CFTs?3?$CFd?$CJ?6?$CFTs@
CONST	SEGMENT
??_C@_0BB@HBOOMJBF@?$CFTs?5?$CI?$CFTs?3?$CFd?$CJ?6?$CFTs@ DB '%Ts (%Ts:%d'
	DB	')', 0aH, '%Ts', 00H				; `string'
CONST	ENDS
;	COMDAT ??_C@_0BP@OIEOKIDM@Exception?5thrown?5in?5destructor@
CONST	SEGMENT
??_C@_0BP@OIEOKIDM@Exception?5thrown?5in?5destructor@ DB 'Exception throw'
	DB	'n in destructor', 00H			; `string'
CONST	ENDS
;	COMDAT ??_C@_0HD@JJCHHHNK@C?3?2Program?5Files?5?$CIx86?$CJ?2Microsof@
CONST	SEGMENT
??_C@_0HD@JJCHHHNK@C?3?2Program?5Files?5?$CIx86?$CJ?2Microsof@ DB 'C:\Pro'
	DB	'gram Files (x86)\Microsoft Visual Studio\2019\Community\VC\To'
	DB	'ols\MSVC\14.29.30133\atlmfc\include\afxwin1.inl', 00H ; `string'
CONST	ENDS
;	COMDAT ??_7CEdit@@6B@
CONST	SEGMENT
??_7CEdit@@6B@ DD FLAT:??_R4CEdit@@6B@			; CEdit::`vftable'
	DD	FLAT:?GetRuntimeClass@CEdit@@UBEPAUCRuntimeClass@@XZ
	DD	FLAT:??_ECEdit@@UAEPAXI@Z
	DD	FLAT:?Serialize@CObject@@UAEXAAVCArchive@@@Z
	DD	FLAT:?AssertValid@CObject@@UBEXXZ
	DD	FLAT:?Dump@CObject@@UBEXAAVCDumpContext@@@Z
	DD	FLAT:?OnCmdMsg@CCmdTarget@@UAEHIHPAXPAUAFX_CMDHANDLERINFO@@@Z
	DD	FLAT:?OnFinalRelease@CWnd@@UAEXXZ
	DD	FLAT:?IsInvokeAllowed@CCmdTarget@@UAEHJ@Z
	DD	FLAT:?GetDispatchIID@CCmdTarget@@UAEHPAU_GUID@@@Z
	DD	FLAT:?GetTypeInfoCount@CCmdTarget@@UAEIXZ
	DD	FLAT:?GetTypeLibCache@CCmdTarget@@UAEPAVCTypeLibCache@@XZ
	DD	FLAT:?GetTypeLib@CCmdTarget@@UAEJKPAPAUITypeLib@@@Z
	DD	FLAT:?GetMessageMap@CWnd@@MBEPBUAFX_MSGMAP@@XZ
	DD	FLAT:?GetCommandMap@CCmdTarget@@MBEPBUAFX_OLECMDMAP@@XZ
	DD	FLAT:?GetDispatchMap@CCmdTarget@@MBEPBUAFX_DISPMAP@@XZ
	DD	FLAT:?GetConnectionMap@CCmdTarget@@MBEPBUAFX_CONNECTIONMAP@@XZ
	DD	FLAT:?GetInterfaceMap@CWnd@@MBEPBUAFX_INTERFACEMAP@@XZ
	DD	FLAT:?GetEventSinkMap@CCmdTarget@@MBEPBUAFX_EVENTSINKMAP@@XZ
	DD	FLAT:?OnCreateAggregates@CCmdTarget@@UAEHXZ
	DD	FLAT:?GetInterfaceHook@CCmdTarget@@UAEPAUIUnknown@@PBX@Z
	DD	FLAT:?GetExtraConnectionPoints@CCmdTarget@@MAEHPAVCPtrArray@@@Z
	DD	FLAT:?GetConnectionHook@CCmdTarget@@MAEPAUIConnectionPoint@@ABU_GUID@@@Z
	DD	FLAT:?PreSubclassWindow@CWnd@@UAEXXZ
	DD	FLAT:?Create@CWnd@@UAEHPBD0KABUtagRECT@@PAV1@IPAUCCreateContext@@@Z
	DD	FLAT:?CreateEx@CWnd@@UAEHKPBD0KABUtagRECT@@PAV1@IPAX@Z
	DD	FLAT:?CreateEx@CWnd@@UAEHKPBD0KHHHHPAUHWND__@@PAUHMENU__@@PAX@Z
	DD	FLAT:?DestroyWindow@CWnd@@UAEHXZ
	DD	FLAT:?PreCreateWindow@CWnd@@UAEHAAUtagCREATESTRUCTA@@@Z
	DD	FLAT:?CalcWindowRect@CWnd@@UAEXPAUtagRECT@@I@Z
	DD	FLAT:?GetMenu@CWnd@@UBEPAVCMenu@@XZ
	DD	FLAT:?SetMenu@CWnd@@UAEHPAVCMenu@@@Z
	DD	FLAT:?OnToolHitTest@CWnd@@UBEHVCPoint@@PAUtagTOOLINFOA@@@Z
	DD	FLAT:?GetScrollBarCtrl@CWnd@@UBEPAVCScrollBar@@H@Z
	DD	FLAT:?WinHelpA@CWnd@@UAEXKI@Z
	DD	FLAT:?HtmlHelpA@CWnd@@UAEXKI@Z
	DD	FLAT:?WinHelpInternal@CWnd@@UAEXKI@Z
	DD	FLAT:?ContinueModal@CWnd@@UAEHXZ
	DD	FLAT:?EndModalLoop@CWnd@@UAEXH@Z
	DD	FLAT:?OnDrawIconicThumbnailOrLivePreview@CWnd@@UAEXAAVCDC@@VCRect@@VCSize@@HAAH@Z
	DD	FLAT:?EnsureStdObj@CWnd@@UAEJXZ
	DD	FLAT:?get_accParent@CWnd@@UAEJPAPAUIDispatch@@@Z
	DD	FLAT:?get_accChildCount@CWnd@@UAEJPAJ@Z
	DD	FLAT:?get_accChild@CWnd@@UAEJUtagVARIANT@@PAPAUIDispatch@@@Z
	DD	FLAT:?get_accName@CWnd@@UAEJUtagVARIANT@@PAPA_W@Z
	DD	FLAT:?get_accValue@CWnd@@UAEJUtagVARIANT@@PAPA_W@Z
	DD	FLAT:?get_accDescription@CWnd@@UAEJUtagVARIANT@@PAPA_W@Z
	DD	FLAT:?get_accRole@CWnd@@UAEJUtagVARIANT@@PAU2@@Z
	DD	FLAT:?get_accState@CWnd@@UAEJUtagVARIANT@@PAU2@@Z
	DD	FLAT:?get_accHelp@CWnd@@UAEJUtagVARIANT@@PAPA_W@Z
	DD	FLAT:?get_accHelpTopic@CWnd@@UAEJPAPA_WUtagVARIANT@@PAJ@Z
	DD	FLAT:?get_accKeyboardShortcut@CWnd@@UAEJUtagVARIANT@@PAPA_W@Z
	DD	FLAT:?get_accFocus@CWnd@@UAEJPAUtagVARIANT@@@Z
	DD	FLAT:?get_accSelection@CWnd@@UAEJPAUtagVARIANT@@@Z
	DD	FLAT:?get_accDefaultAction@CWnd@@UAEJUtagVARIANT@@PAPA_W@Z
	DD	FLAT:?accSelect@CWnd@@UAEJJUtagVARIANT@@@Z
	DD	FLAT:?accLocation@CWnd@@UAEJPAJ000UtagVARIANT@@@Z
	DD	FLAT:?accNavigate@CWnd@@UAEJJUtagVARIANT@@PAU2@@Z
	DD	FLAT:?accHitTest@CWnd@@UAEJJJPAUtagVARIANT@@@Z
	DD	FLAT:?accDoDefaultAction@CWnd@@UAEJUtagVARIANT@@@Z
	DD	FLAT:?put_accName@CWnd@@UAEJUtagVARIANT@@PA_W@Z
	DD	FLAT:?put_accValue@CWnd@@UAEJUtagVARIANT@@PA_W@Z
	DD	FLAT:?SetProxy@CWnd@@UAEJPAUIAccessibleProxy@@@Z
	DD	FLAT:?CreateAccessibleProxy@CWnd@@UAEJIJPAJ@Z
	DD	FLAT:?OnCommand@CWnd@@MAEHIJ@Z
	DD	FLAT:?OnNotify@CWnd@@MAEHIJPAJ@Z
	DD	FLAT:?GetSuperWndProcAddr@CWnd@@MAEPAP6GJPAUHWND__@@IIJ@ZXZ
	DD	FLAT:?DoDataExchange@CWnd@@MAEXPAVCDataExchange@@@Z
	DD	FLAT:?BeginModalState@CWnd@@UAEXXZ
	DD	FLAT:?EndModalState@CWnd@@UAEXXZ
	DD	FLAT:?PreTranslateMessage@CWnd@@UAEHPAUtagMSG@@@Z
	DD	FLAT:?OnAmbientProperty@CWnd@@UAEHPAVCOleControlSite@@JPAUtagVARIANT@@@Z
	DD	FLAT:?WindowProc@CWnd@@MAEJIIJ@Z
	DD	FLAT:?OnWndMsg@CWnd@@MAEHIIJPAJ@Z
	DD	FLAT:?DefWindowProcA@CWnd@@MAEJIIJ@Z
	DD	FLAT:?PostNcDestroy@CWnd@@MAEXXZ
	DD	FLAT:?OnChildNotify@CWnd@@MAEHIIJPAJ@Z
	DD	FLAT:?OnTouchInputs@CWnd@@MAEHIPAUtagTOUCHINPUT@@@Z
	DD	FLAT:?OnTouchInput@CWnd@@MAEHVCPoint@@HHPAUtagTOUCHINPUT@@@Z
	DD	FLAT:?GetGestureStatus@CWnd@@MAEKVCPoint@@@Z
	DD	FLAT:?OnGestureZoom@CWnd@@MAEHVCPoint@@J@Z
	DD	FLAT:?OnGesturePan@CWnd@@MAEHVCPoint@@0@Z
	DD	FLAT:?OnGestureRotate@CWnd@@MAEHVCPoint@@N@Z
	DD	FLAT:?OnGestureTwoFingerTap@CWnd@@MAEHVCPoint@@@Z
	DD	FLAT:?OnGesturePressAndTap@CWnd@@MAEHVCPoint@@J@Z
	DD	FLAT:?ResizeDynamicLayout@CWnd@@MAEXXZ
	DD	FLAT:?CheckAutoCenter@CWnd@@UAEHXZ
	DD	FLAT:?IsFrameWnd@CWnd@@UBEHXZ
	DD	FLAT:?CreateControlContainer@CWnd@@MAEHPAPAVCOleControlContainer@@@Z
	DD	FLAT:?CreateControlSite@CWnd@@MAEHPAVCOleControlContainer@@PAPAVCOleControlSite@@IABU_GUID@@@Z
	DD	FLAT:?SetOccDialogInfo@CWnd@@MAEHPAU_AFX_OCC_DIALOG_INFO@@@Z
	DD	FLAT:?GetOccDialogInfo@CWnd@@MAEPAU_AFX_OCC_DIALOG_INFO@@XZ
CONST	ENDS
;	COMDAT ??_7CButton@@6B@
CONST	SEGMENT
??_7CButton@@6B@ DD FLAT:??_R4CButton@@6B@		; CButton::`vftable'
	DD	FLAT:?GetRuntimeClass@CButton@@UBEPAUCRuntimeClass@@XZ
	DD	FLAT:??_ECButton@@UAEPAXI@Z
	DD	FLAT:?Serialize@CObject@@UAEXAAVCArchive@@@Z
	DD	FLAT:?AssertValid@CObject@@UBEXXZ
	DD	FLAT:?Dump@CObject@@UBEXAAVCDumpContext@@@Z
	DD	FLAT:?OnCmdMsg@CCmdTarget@@UAEHIHPAXPAUAFX_CMDHANDLERINFO@@@Z
	DD	FLAT:?OnFinalRelease@CWnd@@UAEXXZ
	DD	FLAT:?IsInvokeAllowed@CCmdTarget@@UAEHJ@Z
	DD	FLAT:?GetDispatchIID@CCmdTarget@@UAEHPAU_GUID@@@Z
	DD	FLAT:?GetTypeInfoCount@CCmdTarget@@UAEIXZ
	DD	FLAT:?GetTypeLibCache@CCmdTarget@@UAEPAVCTypeLibCache@@XZ
	DD	FLAT:?GetTypeLib@CCmdTarget@@UAEJKPAPAUITypeLib@@@Z
	DD	FLAT:?GetMessageMap@CWnd@@MBEPBUAFX_MSGMAP@@XZ
	DD	FLAT:?GetCommandMap@CCmdTarget@@MBEPBUAFX_OLECMDMAP@@XZ
	DD	FLAT:?GetDispatchMap@CCmdTarget@@MBEPBUAFX_DISPMAP@@XZ
	DD	FLAT:?GetConnectionMap@CCmdTarget@@MBEPBUAFX_CONNECTIONMAP@@XZ
	DD	FLAT:?GetInterfaceMap@CWnd@@MBEPBUAFX_INTERFACEMAP@@XZ
	DD	FLAT:?GetEventSinkMap@CCmdTarget@@MBEPBUAFX_EVENTSINKMAP@@XZ
	DD	FLAT:?OnCreateAggregates@CCmdTarget@@UAEHXZ
	DD	FLAT:?GetInterfaceHook@CCmdTarget@@UAEPAUIUnknown@@PBX@Z
	DD	FLAT:?GetExtraConnectionPoints@CCmdTarget@@MAEHPAVCPtrArray@@@Z
	DD	FLAT:?GetConnectionHook@CCmdTarget@@MAEPAUIConnectionPoint@@ABU_GUID@@@Z
	DD	FLAT:?PreSubclassWindow@CWnd@@UAEXXZ
	DD	FLAT:?Create@CWnd@@UAEHPBD0KABUtagRECT@@PAV1@IPAUCCreateContext@@@Z
	DD	FLAT:?CreateEx@CWnd@@UAEHKPBD0KABUtagRECT@@PAV1@IPAX@Z
	DD	FLAT:?CreateEx@CWnd@@UAEHKPBD0KHHHHPAUHWND__@@PAUHMENU__@@PAX@Z
	DD	FLAT:?DestroyWindow@CWnd@@UAEHXZ
	DD	FLAT:?PreCreateWindow@CWnd@@UAEHAAUtagCREATESTRUCTA@@@Z
	DD	FLAT:?CalcWindowRect@CWnd@@UAEXPAUtagRECT@@I@Z
	DD	FLAT:?GetMenu@CWnd@@UBEPAVCMenu@@XZ
	DD	FLAT:?SetMenu@CWnd@@UAEHPAVCMenu@@@Z
	DD	FLAT:?OnToolHitTest@CWnd@@UBEHVCPoint@@PAUtagTOOLINFOA@@@Z
	DD	FLAT:?GetScrollBarCtrl@CWnd@@UBEPAVCScrollBar@@H@Z
	DD	FLAT:?WinHelpA@CWnd@@UAEXKI@Z
	DD	FLAT:?HtmlHelpA@CWnd@@UAEXKI@Z
	DD	FLAT:?WinHelpInternal@CWnd@@UAEXKI@Z
	DD	FLAT:?ContinueModal@CWnd@@UAEHXZ
	DD	FLAT:?EndModalLoop@CWnd@@UAEXH@Z
	DD	FLAT:?OnDrawIconicThumbnailOrLivePreview@CWnd@@UAEXAAVCDC@@VCRect@@VCSize@@HAAH@Z
	DD	FLAT:?EnsureStdObj@CWnd@@UAEJXZ
	DD	FLAT:?get_accParent@CWnd@@UAEJPAPAUIDispatch@@@Z
	DD	FLAT:?get_accChildCount@CWnd@@UAEJPAJ@Z
	DD	FLAT:?get_accChild@CWnd@@UAEJUtagVARIANT@@PAPAUIDispatch@@@Z
	DD	FLAT:?get_accName@CWnd@@UAEJUtagVARIANT@@PAPA_W@Z
	DD	FLAT:?get_accValue@CWnd@@UAEJUtagVARIANT@@PAPA_W@Z
	DD	FLAT:?get_accDescription@CWnd@@UAEJUtagVARIANT@@PAPA_W@Z
	DD	FLAT:?get_accRole@CWnd@@UAEJUtagVARIANT@@PAU2@@Z
	DD	FLAT:?get_accState@CWnd@@UAEJUtagVARIANT@@PAU2@@Z
	DD	FLAT:?get_accHelp@CWnd@@UAEJUtagVARIANT@@PAPA_W@Z
	DD	FLAT:?get_accHelpTopic@CWnd@@UAEJPAPA_WUtagVARIANT@@PAJ@Z
	DD	FLAT:?get_accKeyboardShortcut@CWnd@@UAEJUtagVARIANT@@PAPA_W@Z
	DD	FLAT:?get_accFocus@CWnd@@UAEJPAUtagVARIANT@@@Z
	DD	FLAT:?get_accSelection@CWnd@@UAEJPAUtagVARIANT@@@Z
	DD	FLAT:?get_accDefaultAction@CWnd@@UAEJUtagVARIANT@@PAPA_W@Z
	DD	FLAT:?accSelect@CWnd@@UAEJJUtagVARIANT@@@Z
	DD	FLAT:?accLocation@CWnd@@UAEJPAJ000UtagVARIANT@@@Z
	DD	FLAT:?accNavigate@CWnd@@UAEJJUtagVARIANT@@PAU2@@Z
	DD	FLAT:?accHitTest@CWnd@@UAEJJJPAUtagVARIANT@@@Z
	DD	FLAT:?accDoDefaultAction@CWnd@@UAEJUtagVARIANT@@@Z
	DD	FLAT:?put_accName@CWnd@@UAEJUtagVARIANT@@PA_W@Z
	DD	FLAT:?put_accValue@CWnd@@UAEJUtagVARIANT@@PA_W@Z
	DD	FLAT:?SetProxy@CWnd@@UAEJPAUIAccessibleProxy@@@Z
	DD	FLAT:?CreateAccessibleProxy@CWnd@@UAEJIJPAJ@Z
	DD	FLAT:?OnCommand@CWnd@@MAEHIJ@Z
	DD	FLAT:?OnNotify@CWnd@@MAEHIJPAJ@Z
	DD	FLAT:?GetSuperWndProcAddr@CWnd@@MAEPAP6GJPAUHWND__@@IIJ@ZXZ
	DD	FLAT:?DoDataExchange@CWnd@@MAEXPAVCDataExchange@@@Z
	DD	FLAT:?BeginModalState@CWnd@@UAEXXZ
	DD	FLAT:?EndModalState@CWnd@@UAEXXZ
	DD	FLAT:?PreTranslateMessage@CWnd@@UAEHPAUtagMSG@@@Z
	DD	FLAT:?OnAmbientProperty@CWnd@@UAEHPAVCOleControlSite@@JPAUtagVARIANT@@@Z
	DD	FLAT:?WindowProc@CWnd@@MAEJIIJ@Z
	DD	FLAT:?OnWndMsg@CWnd@@MAEHIIJPAJ@Z
	DD	FLAT:?DefWindowProcA@CWnd@@MAEJIIJ@Z
	DD	FLAT:?PostNcDestroy@CWnd@@MAEXXZ
	DD	FLAT:?OnChildNotify@CButton@@MAEHIIJPAJ@Z
	DD	FLAT:?OnTouchInputs@CWnd@@MAEHIPAUtagTOUCHINPUT@@@Z
	DD	FLAT:?OnTouchInput@CWnd@@MAEHVCPoint@@HHPAUtagTOUCHINPUT@@@Z
	DD	FLAT:?GetGestureStatus@CWnd@@MAEKVCPoint@@@Z
	DD	FLAT:?OnGestureZoom@CWnd@@MAEHVCPoint@@J@Z
	DD	FLAT:?OnGesturePan@CWnd@@MAEHVCPoint@@0@Z
	DD	FLAT:?OnGestureRotate@CWnd@@MAEHVCPoint@@N@Z
	DD	FLAT:?OnGestureTwoFingerTap@CWnd@@MAEHVCPoint@@@Z
	DD	FLAT:?OnGesturePressAndTap@CWnd@@MAEHVCPoint@@J@Z
	DD	FLAT:?ResizeDynamicLayout@CWnd@@MAEXXZ
	DD	FLAT:?CheckAutoCenter@CWnd@@UAEHXZ
	DD	FLAT:?IsFrameWnd@CWnd@@UBEHXZ
	DD	FLAT:?CreateControlContainer@CWnd@@MAEHPAPAVCOleControlContainer@@@Z
	DD	FLAT:?CreateControlSite@CWnd@@MAEHPAVCOleControlContainer@@PAPAVCOleControlSite@@IABU_GUID@@@Z
	DD	FLAT:?SetOccDialogInfo@CWnd@@MAEHPAU_AFX_OCC_DIALOG_INFO@@@Z
	DD	FLAT:?GetOccDialogInfo@CWnd@@MAEPAU_AFX_OCC_DIALOG_INFO@@XZ
	DD	FLAT:?Create@CButton@@UAEHPBDKABUtagRECT@@PAVCWnd@@I@Z
	DD	FLAT:?DrawItem@CButton@@UAEXPAUtagDRAWITEMSTRUCT@@@Z
CONST	ENDS
;	COMDAT ??_7CBrush@@6B@
CONST	SEGMENT
??_7CBrush@@6B@ DD FLAT:??_R4CBrush@@6B@		; CBrush::`vftable'
	DD	FLAT:?GetRuntimeClass@CBrush@@UBEPAUCRuntimeClass@@XZ
	DD	FLAT:??_ECBrush@@UAEPAXI@Z
	DD	FLAT:?Serialize@CObject@@UAEXAAVCArchive@@@Z
	DD	FLAT:?AssertValid@CObject@@UBEXXZ
	DD	FLAT:?Dump@CObject@@UBEXAAVCDumpContext@@@Z
CONST	ENDS
;	COMDAT ??_7CGdiObject@@6B@
CONST	SEGMENT
??_7CGdiObject@@6B@ DD FLAT:??_R4CGdiObject@@6B@	; CGdiObject::`vftable'
	DD	FLAT:?GetRuntimeClass@CGdiObject@@UBEPAUCRuntimeClass@@XZ
	DD	FLAT:??_ECGdiObject@@UAEPAXI@Z
	DD	FLAT:?Serialize@CObject@@UAEXAAVCArchive@@@Z
	DD	FLAT:?AssertValid@CObject@@UBEXXZ
	DD	FLAT:?Dump@CObject@@UBEXAAVCDumpContext@@@Z
CONST	ENDS
;	COMDAT ??_C@_02DPKJAMEF@?$CFd@
CONST	SEGMENT
??_C@_02DPKJAMEF@?$CFd@ DB '%d', 00H			; `string'
CONST	ENDS
;	COMDAT ??_R0PAVCException@@@8
data$r	SEGMENT
??_R0PAVCException@@@8 DD FLAT:??_7type_info@@6B@	; CException * `RTTI Type Descriptor'
	DD	00H
	DB	'.PAVCException@@', 00H
data$r	ENDS
;	COMDAT xdata$x
xdata$x	SEGMENT
__unwindtable$?OnOK@CDlgPatternEnvSetup@@MAEXXZ DD 0ffffffffH
	DD	FLAT:__unwindfunclet$?OnOK@CDlgPatternEnvSetup@@MAEXXZ$0
__ehfuncinfo$?OnOK@CDlgPatternEnvSetup@@MAEXXZ DD 019930522H
	DD	01H
	DD	FLAT:__unwindtable$?OnOK@CDlgPatternEnvSetup@@MAEXXZ
	DD	2 DUP(00H)
	DD	2 DUP(00H)
	DD	00H
	DD	01H
xdata$x	ENDS
;	COMDAT xdata$x
xdata$x	SEGMENT
__unwindtable$?OnInitDialog@CDlgPatternEnvSetup@@MAEHXZ DD 0ffffffffH
	DD	FLAT:__unwindfunclet$?OnInitDialog@CDlgPatternEnvSetup@@MAEHXZ$0
__ehfuncinfo$?OnInitDialog@CDlgPatternEnvSetup@@MAEHXZ DD 019930522H
	DD	01H
	DD	FLAT:__unwindtable$?OnInitDialog@CDlgPatternEnvSetup@@MAEHXZ
	DD	2 DUP(00H)
	DD	2 DUP(00H)
	DD	00H
	DD	01H
xdata$x	ENDS
;	COMDAT xdata$x
xdata$x	SEGMENT
__unwindtable$?SetPatternEnvDataToControl@CDlgPatternEnvSetup@@QAEXXZ DD 0ffffffffH
	DD	FLAT:__unwindfunclet$?SetPatternEnvDataToControl@CDlgPatternEnvSetup@@QAEXXZ$0
__ehfuncinfo$?SetPatternEnvDataToControl@CDlgPatternEnvSetup@@QAEXXZ DD 019930522H
	DD	01H
	DD	FLAT:__unwindtable$?SetPatternEnvDataToControl@CDlgPatternEnvSetup@@QAEXXZ
	DD	2 DUP(00H)
	DD	2 DUP(00H)
	DD	00H
	DD	01H
xdata$x	ENDS
;	COMDAT xdata$x
xdata$x	SEGMENT
__ehfuncinfo$??0CDlgPatternEnvSetup@@QAE@PAVCWnd@@@Z DD 019930522H
	DD	0cH
	DD	FLAT:__unwindtable$??0CDlgPatternEnvSetup@@QAE@PAVCWnd@@@Z
	DD	2 DUP(00H)
	DD	2 DUP(00H)
	DD	00H
	DD	01H
__unwindtable$??0CDlgPatternEnvSetup@@QAE@PAVCWnd@@@Z DD 0ffffffffH
	DD	FLAT:__unwindfunclet$??0CDlgPatternEnvSetup@@QAE@PAVCWnd@@@Z$0
	DD	00H
	DD	FLAT:__unwindfunclet$??0CDlgPatternEnvSetup@@QAE@PAVCWnd@@@Z$1
	DD	01H
	DD	FLAT:__unwindfunclet$??0CDlgPatternEnvSetup@@QAE@PAVCWnd@@@Z$2
	DD	02H
	DD	FLAT:__unwindfunclet$??0CDlgPatternEnvSetup@@QAE@PAVCWnd@@@Z$3
	DD	03H
	DD	FLAT:__unwindfunclet$??0CDlgPatternEnvSetup@@QAE@PAVCWnd@@@Z$4
	DD	04H
	DD	FLAT:__unwindfunclet$??0CDlgPatternEnvSetup@@QAE@PAVCWnd@@@Z$5
	DD	05H
	DD	FLAT:__unwindfunclet$??0CDlgPatternEnvSetup@@QAE@PAVCWnd@@@Z$6
	DD	06H
	DD	FLAT:__unwindfunclet$??0CDlgPatternEnvSetup@@QAE@PAVCWnd@@@Z$7
	DD	07H
	DD	FLAT:__unwindfunclet$??0CDlgPatternEnvSetup@@QAE@PAVCWnd@@@Z$8
	DD	08H
	DD	FLAT:__unwindfunclet$??0CDlgPatternEnvSetup@@QAE@PAVCWnd@@@Z$9
	DD	09H
	DD	FLAT:__unwindfunclet$??0CDlgPatternEnvSetup@@QAE@PAVCWnd@@@Z$10
	DD	0aH
	DD	FLAT:__unwindfunclet$??0CDlgPatternEnvSetup@@QAE@PAVCWnd@@@Z$11
xdata$x	ENDS
;	COMDAT xdata$x
xdata$x	SEGMENT
__catchsym$??1CGdiObject@@UAE@XZ$3 DD 00H
	DD	FLAT:??_R0PAVCException@@@8
	DD	0fffffde4H
	DD	FLAT:__catch$??1CGdiObject@@UAE@XZ$0
__tryblocktable$??1CGdiObject@@UAE@XZ DD 00H
	DD	00H
	DD	02H
	DD	01H
	DD	FLAT:__catchsym$??1CGdiObject@@UAE@XZ$3
__unwindtable$??1CGdiObject@@UAE@XZ DD 0ffffffffH
	DD	00H
	DD	0ffffffffH
	DD	00H
	DD	01H
	DD	FLAT:__unwindfunclet$??1CGdiObject@@UAE@XZ$2
__ehfuncinfo$??1CGdiObject@@UAE@XZ DD 019930522H
	DD	03H
	DD	FLAT:__unwindtable$??1CGdiObject@@UAE@XZ
	DD	01H
	DD	FLAT:__tryblocktable$??1CGdiObject@@UAE@XZ
	DD	2 DUP(00H)
	DD	00H
	DD	05H
xdata$x	ENDS
; Function compile flags: /Ogtp
; File C:\Program Files (x86)\Microsoft Visual Studio\2019\Community\VC\Tools\MSVC\14.29.30133\atlmfc\include\afxwin1.inl
; File C:\Program Files (x86)\Microsoft Visual Studio\2019\Community\VC\Tools\MSVC\14.29.30133\atlmfc\include\afx.inl
;	COMDAT ??_GCDlgPatternEnvSetup@@UAEPAXI@Z
_TEXT	SEGMENT
___flags$ = 8						; size = 4
??_GCDlgPatternEnvSetup@@UAEPAXI@Z PROC			; CDlgPatternEnvSetup::`scalar deleting destructor', COMDAT
; _this$ = ecx
  00000	55		 push	 ebp
  00001	8b ec		 mov	 ebp, esp
; File C:\Program Files (x86)\Microsoft Visual Studio\2019\Community\VC\Tools\MSVC\14.29.30133\atlmfc\include\afxwin1.inl

; 130  : 	{ }

  00003	56		 push	 esi
  00004	8b f1		 mov	 esi, ecx
  00006	8d 8e c0 04 00
	00		 lea	 ecx, DWORD PTR [esi+1216]
  0000c	e8 00 00 00 00	 call	 ??1CButton@@UAE@XZ	; CButton::~CButton
  00011	8d 8e 40 04 00
	00		 lea	 ecx, DWORD PTR [esi+1088]
  00017	e8 00 00 00 00	 call	 ??1CButton@@UAE@XZ	; CButton::~CButton
  0001c	8d 8e c0 03 00
	00		 lea	 ecx, DWORD PTR [esi+960]
  00022	e8 00 00 00 00	 call	 ??1CButton@@UAE@XZ	; CButton::~CButton
  00027	8d 8e 40 03 00
	00		 lea	 ecx, DWORD PTR [esi+832]
  0002d	e8 00 00 00 00	 call	 ??1CButton@@UAE@XZ	; CButton::~CButton
  00032	8d 8e c0 02 00
	00		 lea	 ecx, DWORD PTR [esi+704]
  00038	e8 00 00 00 00	 call	 ??1CButton@@UAE@XZ	; CButton::~CButton
  0003d	8d 8e 40 02 00
	00		 lea	 ecx, DWORD PTR [esi+576]
  00043	e8 00 00 00 00	 call	 ??1CButton@@UAE@XZ	; CButton::~CButton
  00048	8d 8e c0 01 00
	00		 lea	 ecx, DWORD PTR [esi+448]
  0004e	e8 00 00 00 00	 call	 ??1CEdit@@UAE@XZ	; CEdit::~CEdit
  00053	8d 8e 40 01 00
	00		 lea	 ecx, DWORD PTR [esi+320]
  00059	e8 00 00 00 00	 call	 ??1CEdit@@UAE@XZ	; CEdit::~CEdit
  0005e	8d 8e c0 00 00
	00		 lea	 ecx, DWORD PTR [esi+192]
  00064	e8 00 00 00 00	 call	 ??1CButton@@UAE@XZ	; CButton::~CButton
  00069	8d 8e b0 00 00
	00		 lea	 ecx, DWORD PTR [esi+176]
  0006f	c7 01 00 00 00
	00		 mov	 DWORD PTR [ecx], OFFSET ??_7CBrush@@6B@
  00075	e8 00 00 00 00	 call	 ??1CGdiObject@@UAE@XZ	; CGdiObject::~CGdiObject
  0007a	8d 8e a8 00 00
	00		 lea	 ecx, DWORD PTR [esi+168]
  00080	c7 01 00 00 00
	00		 mov	 DWORD PTR [ecx], OFFSET ??_7CBrush@@6B@
  00086	e8 00 00 00 00	 call	 ??1CGdiObject@@UAE@XZ	; CGdiObject::~CGdiObject
  0008b	8b ce		 mov	 ecx, esi
  0008d	e8 00 00 00 00	 call	 ??1CDialog@@UAE@XZ	; CDialog::~CDialog
  00092	8b 45 08	 mov	 eax, DWORD PTR ___flags$[ebp]
  00095	a8 01		 test	 al, 1
  00097	74 22		 je	 SHORT $LN18@scalar
  00099	a8 04		 test	 al, 4
  0009b	75 10		 jne	 SHORT $LN3@scalar
; File C:\Program Files (x86)\Microsoft Visual Studio\2019\Community\VC\Tools\MSVC\14.29.30133\atlmfc\include\afx.inl

; 112  : 	{ ::operator delete(p); }

  0009d	56		 push	 esi
  0009e	e8 00 00 00 00	 call	 ??3@YAXPAX@Z		; operator delete
  000a3	83 c4 04	 add	 esp, 4
  000a6	8b c6		 mov	 eax, esi
  000a8	5e		 pop	 esi
  000a9	5d		 pop	 ebp
  000aa	c2 04 00	 ret	 4
$LN3@scalar:
  000ad	68 48 05 00 00	 push	 1352			; 00000548H
  000b2	56		 push	 esi
  000b3	e8 00 00 00 00	 call	 ?__global_delete@@YAXPAXI@Z ; __global_delete
  000b8	83 c4 08	 add	 esp, 8
$LN18@scalar:
  000bb	8b c6		 mov	 eax, esi
  000bd	5e		 pop	 esi
  000be	5d		 pop	 ebp
  000bf	c2 04 00	 ret	 4
??_GCDlgPatternEnvSetup@@UAEPAXI@Z ENDP			; CDlgPatternEnvSetup::`scalar deleting destructor'
_TEXT	ENDS
; Function compile flags: /Ogtp
; File D:\git\src\IBK\IBK_DRFN\ProjSrc\SrcChartEx\ChartAddIn\ChartPatternAddIn\DlgPatternEnvSetup.cpp
;	COMDAT ?GetMessageMap@CDlgPatternEnvSetup@@MBEPBUAFX_MSGMAP@@XZ
_TEXT	SEGMENT
?GetMessageMap@CDlgPatternEnvSetup@@MBEPBUAFX_MSGMAP@@XZ PROC ; CDlgPatternEnvSetup::GetMessageMap, COMDAT
; _this$ = ecx

; 54   : BEGIN_MESSAGE_MAP(CDlgPatternEnvSetup, CDialog)

  00000	b8 00 00 00 00	 mov	 eax, OFFSET ?messageMap@?1??GetThisMessageMap@CDlgPatternEnvSetup@@KGPBUAFX_MSGMAP@@XZ@4U3@B
  00005	c3		 ret	 0
?GetMessageMap@CDlgPatternEnvSetup@@MBEPBUAFX_MSGMAP@@XZ ENDP ; CDlgPatternEnvSetup::GetMessageMap
_TEXT	ENDS
; Function compile flags: /Ogtp
; File D:\git\src\IBK\IBK_DRFN\ProjSrc\SrcChartEx\ChartAddIn\ChartPatternAddIn\DlgPatternEnvSetup.cpp
;	COMDAT ?GetThisMessageMap@CDlgPatternEnvSetup@@KGPBUAFX_MSGMAP@@XZ
_TEXT	SEGMENT
?GetThisMessageMap@CDlgPatternEnvSetup@@KGPBUAFX_MSGMAP@@XZ PROC ; CDlgPatternEnvSetup::GetThisMessageMap, COMDAT

; 55   : 	//{{AFX_MSG_MAP(CDlgPatternEnvSetup)
; 56   : 	ON_BN_CLICKED(IDC_RADIO_MMA, OnRadioMma)
; 57   : 	ON_BN_CLICKED(IDC_RADIO_CANDLE, OnRadioCandle)
; 58   : 	ON_WM_CTLCOLOR()
; 59   : 	ON_WM_DESTROY()
; 60   : 	//}}AFX_MSG_MAP
; 61   : END_MESSAGE_MAP()

  00000	b8 00 00 00 00	 mov	 eax, OFFSET ?messageMap@?1??GetThisMessageMap@CDlgPatternEnvSetup@@KGPBUAFX_MSGMAP@@XZ@4U3@B
  00005	c3		 ret	 0
?GetThisMessageMap@CDlgPatternEnvSetup@@KGPBUAFX_MSGMAP@@XZ ENDP ; CDlgPatternEnvSetup::GetThisMessageMap
_TEXT	ENDS
; Function compile flags: /Ogtp
; File D:\git\src\IBK\IBK_DRFN\ProjSrc\SrcChartEx\ChartAddIn\ChartPatternAddIn\DlgPatternEnvSetup.cpp
; File C:\Program Files (x86)\Microsoft Visual Studio\2019\Community\VC\Tools\MSVC\14.29.30133\atlmfc\include\afxwin1.inl
; File D:\git\src\IBK\IBK_DRFN\ProjSrc\SrcChartEx\ChartAddIn\ChartPatternAddIn\DlgPatternEnvSetup.cpp
; File C:\Program Files (x86)\Microsoft Visual Studio\2019\Community\VC\Tools\MSVC\14.29.30133\atlmfc\include\afxwin1.inl
; File D:\git\src\IBK\IBK_DRFN\ProjSrc\SrcChartEx\ChartAddIn\ChartPatternAddIn\DlgPatternEnvSetup.cpp
;	COMDAT ?OnDestroy@CDlgPatternEnvSetup@@IAEXXZ
_TEXT	SEGMENT
?OnDestroy@CDlgPatternEnvSetup@@IAEXXZ PROC		; CDlgPatternEnvSetup::OnDestroy, COMDAT
; _this$ = ecx

; 256  : {

  00000	56		 push	 esi
  00001	8b f1		 mov	 esi, ecx

; 258  : 	if ( m_brBack.GetSafeHandle())	m_brBack.DeleteObject();

  00003	8d 8e a8 00 00
	00		 lea	 ecx, DWORD PTR [esi+168]
; File C:\Program Files (x86)\Microsoft Visual Studio\2019\Community\VC\Tools\MSVC\14.29.30133\atlmfc\include\afxwin1.inl

; 68   : 	{ return this == NULL ? NULL : m_hObject; }

  00009	85 c9		 test	 ecx, ecx
  0000b	74 0b		 je	 SHORT $LN2@OnDestroy
; File D:\git\src\IBK\IBK_DRFN\ProjSrc\SrcChartEx\ChartAddIn\ChartPatternAddIn\DlgPatternEnvSetup.cpp

; 258  : 	if ( m_brBack.GetSafeHandle())	m_brBack.DeleteObject();

  0000d	83 79 04 00	 cmp	 DWORD PTR [ecx+4], 0
  00011	74 05		 je	 SHORT $LN2@OnDestroy
  00013	e8 00 00 00 00	 call	 ?DeleteObject@CGdiObject@@QAEHXZ ; CGdiObject::DeleteObject
$LN2@OnDestroy:

; 259  : 	if ( m_brWhite.GetSafeHandle())	m_brWhite.DeleteObject();

  00018	8d 8e b0 00 00
	00		 lea	 ecx, DWORD PTR [esi+176]
; File C:\Program Files (x86)\Microsoft Visual Studio\2019\Community\VC\Tools\MSVC\14.29.30133\atlmfc\include\afxwin1.inl

; 68   : 	{ return this == NULL ? NULL : m_hObject; }

  0001e	85 c9		 test	 ecx, ecx
  00020	74 0b		 je	 SHORT $LN3@OnDestroy
; File D:\git\src\IBK\IBK_DRFN\ProjSrc\SrcChartEx\ChartAddIn\ChartPatternAddIn\DlgPatternEnvSetup.cpp

; 259  : 	if ( m_brWhite.GetSafeHandle())	m_brWhite.DeleteObject();

  00022	83 79 04 00	 cmp	 DWORD PTR [ecx+4], 0
  00026	74 05		 je	 SHORT $LN3@OnDestroy
  00028	e8 00 00 00 00	 call	 ?DeleteObject@CGdiObject@@QAEHXZ ; CGdiObject::DeleteObject
$LN3@OnDestroy:

; 260  : 
; 261  : 
; 262  : 	CDialog::OnDestroy();

  0002d	8b ce		 mov	 ecx, esi
  0002f	5e		 pop	 esi
  00030	e9 00 00 00 00	 jmp	 ?OnDestroy@CWnd@@IAEXXZ	; CWnd::OnDestroy
?OnDestroy@CDlgPatternEnvSetup@@IAEXXZ ENDP		; CDlgPatternEnvSetup::OnDestroy
_TEXT	ENDS
; Function compile flags: /Ogtp
; File D:\git\src\IBK\IBK_DRFN\ProjSrc\SrcChartEx\ChartAddIn\ChartPatternAddIn\DlgPatternEnvSetup.cpp
;	COMDAT ?OnCtlColor@CDlgPatternEnvSetup@@IAEPAUHBRUSH__@@PAVCDC@@PAVCWnd@@I@Z
_TEXT	SEGMENT
_pDC$ = 8						; size = 4
_pWnd$ = 12						; size = 4
_nCtlColor$ = 16					; size = 4
?OnCtlColor@CDlgPatternEnvSetup@@IAEPAUHBRUSH__@@PAVCDC@@PAVCWnd@@I@Z PROC ; CDlgPatternEnvSetup::OnCtlColor, COMDAT
; _this$ = ecx

; 234  : {

  00000	55		 push	 ebp
  00001	8b ec		 mov	 ebp, esp
  00003	53		 push	 ebx
  00004	57		 push	 edi

; 235  : 	HBRUSH hbr = CDialog::OnCtlColor(pDC, pWnd, nCtlColor);

  00005	ff 75 10	 push	 DWORD PTR _nCtlColor$[ebp]
  00008	8b 7d 08	 mov	 edi, DWORD PTR _pDC$[ebp]
  0000b	8b d9		 mov	 ebx, ecx
  0000d	ff 75 0c	 push	 DWORD PTR _pWnd$[ebp]
  00010	57		 push	 edi
  00011	e8 00 00 00 00	 call	 ?OnCtlColor@CWnd@@IAEPAUHBRUSH__@@PAVCDC@@PAV1@I@Z ; CWnd::OnCtlColor

; 236  : 	
; 237  : //	pDC->SetBkMode( TRANSPARENT);
; 238  : 
; 239  : 	if ( nCtlColor == CTLCOLOR_EDIT)

  00016	83 7d 10 01	 cmp	 DWORD PTR _nCtlColor$[ebp], 1
  0001a	8b cf		 mov	 ecx, edi
  0001c	8b 07		 mov	 eax, DWORD PTR [edi]
  0001e	75 10		 jne	 SHORT $LN2@OnCtlColor

; 240  : 	{
; 241  : 		pDC->SetBkColor( COLOR_WHITE);

  00020	68 ff ff ff 00	 push	 16777215		; 00ffffffH
  00025	ff 50 34	 call	 DWORD PTR [eax+52]

; 242  : 
; 243  : 		hbr = m_brWhite;

  00028	8d 83 b0 00 00
	00		 lea	 eax, DWORD PTR [ebx+176]

; 244  : 	}

  0002e	eb 0e		 jmp	 SHORT $LN15@OnCtlColor
$LN2@OnCtlColor:

; 245  : 	else
; 246  : 	{
; 247  : 		pDC->SetBkColor( COLOR_BG_ANLYS_DLG);

  00030	68 dd e0 e9 00	 push	 15327453		; 00e9e0ddH
  00035	ff 50 34	 call	 DWORD PTR [eax+52]

; 248  : 		hbr = m_brBack;

  00038	8d 83 a8 00 00
	00		 lea	 eax, DWORD PTR [ebx+168]
$LN15@OnCtlColor:

; 249  : 	}
; 250  : 		
; 251  : 	// TODO: Return a different brush if the default is not desired
; 252  : 	return hbr;
; 253  : }

  0003e	85 c0		 test	 eax, eax
  00040	75 06		 jne	 SHORT $LN11@OnCtlColor
  00042	5f		 pop	 edi
  00043	5b		 pop	 ebx
  00044	5d		 pop	 ebp
  00045	c2 0c 00	 ret	 12			; 0000000cH
$LN11@OnCtlColor:
  00048	8b 40 04	 mov	 eax, DWORD PTR [eax+4]
  0004b	5f		 pop	 edi
  0004c	5b		 pop	 ebx
  0004d	5d		 pop	 ebp
  0004e	c2 0c 00	 ret	 12			; 0000000cH
?OnCtlColor@CDlgPatternEnvSetup@@IAEPAUHBRUSH__@@PAVCDC@@PAVCWnd@@I@Z ENDP ; CDlgPatternEnvSetup::OnCtlColor
_TEXT	ENDS
; Function compile flags: /Ogtp
; File D:\git\src\IBK\IBK_DRFN\ProjSrc\SrcChartEx\ChartAddIn\ChartPatternAddIn\DlgPatternEnvSetup.cpp
;	COMDAT ?OnRadioCandle@CDlgPatternEnvSetup@@IAEXXZ
_TEXT	SEGMENT
_nID$ = -20						; size = 16
__$ArrayPad$ = -4					; size = 4
?OnRadioCandle@CDlgPatternEnvSetup@@IAEXXZ PROC		; CDlgPatternEnvSetup::OnRadioCandle, COMDAT
; _this$ = ecx

; 214  : {

  00000	55		 push	 ebp
  00001	8b ec		 mov	 ebp, esp
  00003	83 ec 14	 sub	 esp, 20			; 00000014H
  00006	a1 00 00 00 00	 mov	 eax, DWORD PTR ___security_cookie
  0000b	33 c5		 xor	 eax, ebp
  0000d	89 45 fc	 mov	 DWORD PTR __$ArrayPad$[ebp], eax
  00010	56		 push	 esi
  00011	57		 push	 edi
  00012	8b f9		 mov	 edi, ecx

; 215  : 	// TODO: Add your control notification handler code here
; 216  : 	UINT nID[] = {	IDC_EDIT_MMA,		

  00014	c7 45 ec db 07
	00 00		 mov	 DWORD PTR _nID$[ebp], 2011 ; 000007dbH

; 217  : 					IDC_TIT_COND1,	IDC_EDIT_HLPT_ALLOWABLE,	IDC_TIT_CONDPER1,	

  0001b	c7 45 f0 df 07
	00 00		 mov	 DWORD PTR _nID$[ebp+4], 2015 ; 000007dfH
  00022	33 f6		 xor	 esi, esi
  00024	c7 45 f4 d6 07
	00 00		 mov	 DWORD PTR _nID$[ebp+8], 2006 ; 000007d6H
  0002b	c7 45 f8 e1 07
	00 00		 mov	 DWORD PTR _nID$[ebp+12], 2017 ; 000007e1H
$LL4@OnRadioCan:

; 224  : 	{
; 225  : 		pWnd = GetDlgItem(nID[i]);

  00032	ff 74 b5 ec	 push	 DWORD PTR _nID$[ebp+esi*4]
  00036	8b cf		 mov	 ecx, edi
  00038	e8 00 00 00 00	 call	 ?GetDlgItem@CWnd@@QBEPAV1@H@Z ; CWnd::GetDlgItem

; 226  : 		if ( pWnd)

  0003d	85 c0		 test	 eax, eax
  0003f	74 09		 je	 SHORT $LN2@OnRadioCan

; 227  : 			pWnd->EnableWindow(FALSE);

  00041	6a 00		 push	 0
  00043	8b c8		 mov	 ecx, eax
  00045	e8 00 00 00 00	 call	 ?EnableWindow@CWnd@@QAEHH@Z ; CWnd::EnableWindow
$LN2@OnRadioCan:

; 218  : 				};
; 219  : 
; 220  : 	int nIDCnt = sizeof(nID) / sizeof(UINT);
; 221  : 	CWnd *pWnd = NULL;
; 222  : 
; 223  : 	for ( int i = 0; i < nIDCnt; i++)

  0004a	46		 inc	 esi
  0004b	83 fe 04	 cmp	 esi, 4
  0004e	7c e2		 jl	 SHORT $LL4@OnRadioCan

; 228  : 	}
; 229  : 
; 230  : 	GetDlgItem(IDC_EDIT_CANDLE)->EnableWindow(TRUE);

  00050	6a 01		 push	 1
  00052	68 dc 07 00 00	 push	 2012			; 000007dcH
  00057	8b cf		 mov	 ecx, edi
  00059	e8 00 00 00 00	 call	 ?GetDlgItem@CWnd@@QBEPAV1@H@Z ; CWnd::GetDlgItem
  0005e	8b c8		 mov	 ecx, eax
  00060	e8 00 00 00 00	 call	 ?EnableWindow@CWnd@@QAEHH@Z ; CWnd::EnableWindow

; 231  : }

  00065	8b 4d fc	 mov	 ecx, DWORD PTR __$ArrayPad$[ebp]
  00068	5f		 pop	 edi
  00069	33 cd		 xor	 ecx, ebp
  0006b	5e		 pop	 esi
  0006c	e8 00 00 00 00	 call	 @__security_check_cookie@4
  00071	8b e5		 mov	 esp, ebp
  00073	5d		 pop	 ebp
  00074	c3		 ret	 0
?OnRadioCandle@CDlgPatternEnvSetup@@IAEXXZ ENDP		; CDlgPatternEnvSetup::OnRadioCandle
_TEXT	ENDS
; Function compile flags: /Ogtp
; File D:\git\src\IBK\IBK_DRFN\ProjSrc\SrcChartEx\ChartAddIn\ChartPatternAddIn\DlgPatternEnvSetup.cpp
;	COMDAT ?OnRadioMma@CDlgPatternEnvSetup@@IAEXXZ
_TEXT	SEGMENT
_nID$ = -20						; size = 16
__$ArrayPad$ = -4					; size = 4
?OnRadioMma@CDlgPatternEnvSetup@@IAEXXZ PROC		; CDlgPatternEnvSetup::OnRadioMma, COMDAT
; _this$ = ecx

; 192  : {

  00000	55		 push	 ebp
  00001	8b ec		 mov	 ebp, esp
  00003	83 ec 14	 sub	 esp, 20			; 00000014H
  00006	a1 00 00 00 00	 mov	 eax, DWORD PTR ___security_cookie
  0000b	33 c5		 xor	 eax, ebp
  0000d	89 45 fc	 mov	 DWORD PTR __$ArrayPad$[ebp], eax
  00010	56		 push	 esi
  00011	57		 push	 edi
  00012	8b f9		 mov	 edi, ecx

; 193  : 	// TODO: Add your control notification handler code here
; 194  : 
; 195  : 	UINT nID[] = {	IDC_EDIT_MMA,		

  00014	c7 45 ec db 07
	00 00		 mov	 DWORD PTR _nID$[ebp], 2011 ; 000007dbH

; 196  : 					IDC_TIT_COND1,	IDC_EDIT_HLPT_ALLOWABLE,	IDC_TIT_CONDPER1,	

  0001b	c7 45 f0 df 07
	00 00		 mov	 DWORD PTR _nID$[ebp+4], 2015 ; 000007dfH
  00022	33 f6		 xor	 esi, esi
  00024	c7 45 f4 d6 07
	00 00		 mov	 DWORD PTR _nID$[ebp+8], 2006 ; 000007d6H
  0002b	c7 45 f8 e1 07
	00 00		 mov	 DWORD PTR _nID$[ebp+12], 2017 ; 000007e1H
$LL4@OnRadioMma:

; 203  : 	{
; 204  : 		pWnd = GetDlgItem(nID[i]);

  00032	ff 74 b5 ec	 push	 DWORD PTR _nID$[ebp+esi*4]
  00036	8b cf		 mov	 ecx, edi
  00038	e8 00 00 00 00	 call	 ?GetDlgItem@CWnd@@QBEPAV1@H@Z ; CWnd::GetDlgItem

; 205  : 		if ( pWnd)

  0003d	85 c0		 test	 eax, eax
  0003f	74 09		 je	 SHORT $LN2@OnRadioMma

; 206  : 			pWnd->EnableWindow(TRUE);

  00041	6a 01		 push	 1
  00043	8b c8		 mov	 ecx, eax
  00045	e8 00 00 00 00	 call	 ?EnableWindow@CWnd@@QAEHH@Z ; CWnd::EnableWindow
$LN2@OnRadioMma:

; 197  : 				};
; 198  : 
; 199  : 	int nIDCnt = sizeof(nID) / sizeof(UINT);
; 200  : 	CWnd *pWnd = NULL;
; 201  : 
; 202  : 	for ( int i = 0; i < nIDCnt; i++)

  0004a	46		 inc	 esi
  0004b	83 fe 04	 cmp	 esi, 4
  0004e	7c e2		 jl	 SHORT $LL4@OnRadioMma

; 207  : 	}
; 208  : 
; 209  : 	GetDlgItem(IDC_EDIT_CANDLE)->EnableWindow(FALSE);

  00050	6a 00		 push	 0
  00052	68 dc 07 00 00	 push	 2012			; 000007dcH
  00057	8b cf		 mov	 ecx, edi
  00059	e8 00 00 00 00	 call	 ?GetDlgItem@CWnd@@QBEPAV1@H@Z ; CWnd::GetDlgItem
  0005e	8b c8		 mov	 ecx, eax
  00060	e8 00 00 00 00	 call	 ?EnableWindow@CWnd@@QAEHH@Z ; CWnd::EnableWindow

; 210  : }

  00065	8b 4d fc	 mov	 ecx, DWORD PTR __$ArrayPad$[ebp]
  00068	5f		 pop	 edi
  00069	33 cd		 xor	 ecx, ebp
  0006b	5e		 pop	 esi
  0006c	e8 00 00 00 00	 call	 @__security_check_cookie@4
  00071	8b e5		 mov	 esp, ebp
  00073	5d		 pop	 ebp
  00074	c3		 ret	 0
?OnRadioMma@CDlgPatternEnvSetup@@IAEXXZ ENDP		; CDlgPatternEnvSetup::OnRadioMma
_TEXT	ENDS
; Function compile flags: /Ogtp
; File D:\git\src\IBK\IBK_DRFN\ProjSrc\SrcChartEx\ChartAddIn\ChartPatternAddIn\DlgPatternEnvSetup.cpp
; File C:\Program Files (x86)\Microsoft Visual Studio\2019\Community\VC\Tools\MSVC\14.29.30133\atlmfc\include\afxwin2.inl
; File D:\git\src\IBK\IBK_DRFN\ProjSrc\SrcChartEx\ChartAddIn\ChartPatternAddIn\DlgPatternEnvSetup.cpp
; File C:\Program Files (x86)\Microsoft Visual Studio\2019\Community\VC\Tools\MSVC\14.29.30133\atlmfc\include\afxwin2.inl
; File D:\git\src\IBK\IBK_DRFN\ProjSrc\SrcChartEx\ChartAddIn\ChartPatternAddIn\DlgPatternEnvSetup.cpp
; File C:\Program Files (x86)\Microsoft Visual Studio\2019\Community\VC\Tools\MSVC\14.29.30133\atlmfc\include\afxwin2.inl
; File D:\git\src\IBK\IBK_DRFN\ProjSrc\SrcChartEx\ChartAddIn\ChartPatternAddIn\DlgPatternEnvSetup.cpp
; File C:\Program Files (x86)\Microsoft Visual Studio\2019\Community\VC\Tools\MSVC\14.29.30133\atlmfc\include\afxwin2.inl
; File D:\git\src\IBK\IBK_DRFN\ProjSrc\SrcChartEx\ChartAddIn\ChartPatternAddIn\DlgPatternEnvSetup.cpp
; File C:\Program Files (x86)\Microsoft Visual Studio\2019\Community\VC\Tools\MSVC\14.29.30133\atlmfc\include\afxwin2.inl
; File D:\git\src\IBK\IBK_DRFN\ProjSrc\SrcChartEx\ChartAddIn\ChartPatternAddIn\DlgPatternEnvSetup.cpp
; File C:\Program Files (x86)\Microsoft Visual Studio\2019\Community\VC\Tools\MSVC\14.29.30133\atlmfc\include\afxwin2.inl
; File D:\git\src\IBK\IBK_DRFN\ProjSrc\SrcChartEx\ChartAddIn\ChartPatternAddIn\DlgPatternEnvSetup.cpp
; File C:\Program Files (x86)\Microsoft Visual Studio\2019\Community\VC\Tools\MSVC\14.29.30133\atlmfc\include\afxwin2.inl
; File D:\git\src\IBK\IBK_DRFN\ProjSrc\SrcChartEx\ChartAddIn\ChartPatternAddIn\DlgPatternEnvSetup.cpp
; File C:\Program Files (x86)\Microsoft Visual Studio\2019\Community\VC\Tools\MSVC\14.29.30133\atlmfc\include\afxwin2.inl
; File D:\git\src\IBK\IBK_DRFN\ProjSrc\SrcChartEx\ChartAddIn\ChartPatternAddIn\DlgPatternEnvSetup.cpp
; File C:\Program Files (x86)\Microsoft Visual Studio\2019\Community\VC\Tools\MSVC\14.29.30133\atlmfc\include\afxwin2.inl
; File D:\git\src\IBK\IBK_DRFN\ProjSrc\SrcChartEx\ChartAddIn\ChartPatternAddIn\DlgPatternEnvSetup.cpp
; File C:\Program Files (x86)\Microsoft Visual Studio\2019\Community\VC\Tools\MSVC\14.29.30133\atlmfc\include\afxwin2.inl
; File D:\git\src\IBK\IBK_DRFN\ProjSrc\SrcChartEx\ChartAddIn\ChartPatternAddIn\DlgPatternEnvSetup.cpp
; File C:\Program Files (x86)\Microsoft Visual Studio\2019\Community\VC\Tools\MSVC\14.29.30133\atlmfc\include\afxwin2.inl
; File D:\git\src\IBK\IBK_DRFN\ProjSrc\SrcChartEx\ChartAddIn\ChartPatternAddIn\DlgPatternEnvSetup.cpp
; File C:\Program Files (x86)\Microsoft Visual Studio\2019\Community\VC\Tools\MSVC\14.29.30133\atlmfc\include\afxwin2.inl
; File D:\git\src\IBK\IBK_DRFN\ProjSrc\SrcChartEx\ChartAddIn\ChartPatternAddIn\DlgPatternEnvSetup.cpp
; File C:\Program Files (x86)\Microsoft Visual Studio\2019\Community\VC\Tools\MSVC\14.29.30133\atlmfc\include\afxwin2.inl
; File D:\git\src\IBK\IBK_DRFN\ProjSrc\SrcChartEx\ChartAddIn\ChartPatternAddIn\DlgPatternEnvSetup.cpp
; File C:\Program Files (x86)\Microsoft Visual Studio\2019\Community\VC\Tools\MSVC\14.29.30133\atlmfc\include\afxwin2.inl
; File D:\git\src\IBK\IBK_DRFN\ProjSrc\SrcChartEx\ChartAddIn\ChartPatternAddIn\DlgPatternEnvSetup.cpp
;	COMDAT ?OnOK@CDlgPatternEnvSetup@@MAEXXZ
_TEXT	SEGMENT
tv231 = -24						; size = 8
tv203 = -24						; size = 8
_strTemp$2 = -16					; size = 4
__$EHRec$ = -12						; size = 12
?OnOK@CDlgPatternEnvSetup@@MAEXXZ PROC			; CDlgPatternEnvSetup::OnOK, COMDAT
; _this$ = ecx

; 138  : {

  00000	55		 push	 ebp
  00001	8b ec		 mov	 ebp, esp
  00003	6a ff		 push	 -1
  00005	68 00 00 00 00	 push	 __ehhandler$?OnOK@CDlgPatternEnvSetup@@MAEXXZ
  0000a	64 a1 00 00 00
	00		 mov	 eax, DWORD PTR fs:0
  00010	50		 push	 eax
  00011	83 ec 0c	 sub	 esp, 12			; 0000000cH
  00014	53		 push	 ebx
  00015	56		 push	 esi
  00016	57		 push	 edi
  00017	a1 00 00 00 00	 mov	 eax, DWORD PTR ___security_cookie
  0001c	33 c5		 xor	 eax, ebp
  0001e	50		 push	 eax
  0001f	8d 45 f4	 lea	 eax, DWORD PTR __$EHRec$[ebp]
  00022	64 a3 00 00 00
	00		 mov	 DWORD PTR fs:0, eax
  00028	8b d9		 mov	 ebx, ecx

; 139  : 	// TODO: Add extra validation here
; 140  : 	if ( m_pPatternEnvData)	

  0002a	83 bb b8 00 00
	00 00		 cmp	 DWORD PTR [ebx+184], 0
  00031	0f 84 e2 01 00
	00		 je	 $LN2@OnOK

; 141  : 	{
; 142  : 		UpdateData(TRUE);

  00037	6a 01		 push	 1
  00039	e8 00 00 00 00	 call	 ?UpdateData@CWnd@@QAEHH@Z ; CWnd::UpdateData

; 145  : 		CString strTemp;

  0003e	8d 4d f0	 lea	 ecx, DWORD PTR _strTemp$2[ebp]
  00041	ff 15 00 00 00
	00		 call	 DWORD PTR __imp_??0?$CStringT@DV?$StrTraitMFC_DLL@DV?$ChTraitsCRT@D@ATL@@@@@ATL@@QAE@XZ
; File C:\Program Files (x86)\Microsoft Visual Studio\2019\Community\VC\Tools\MSVC\14.29.30133\atlmfc\include\afxwin2.inl

; 628  : 	{ ASSERT(::IsWindow(m_hWnd)); return (int)::SendMessage(m_hWnd, BM_GETCHECK, 0, 0); }

  00047	8b 3d 00 00 00
	00		 mov	 edi, DWORD PTR __imp__SendMessageA@16
  0004d	6a 00		 push	 0
  0004f	6a 00		 push	 0
  00051	68 f0 00 00 00	 push	 240			; 000000f0H
  00056	ff b3 e0 00 00
	00		 push	 DWORD PTR [ebx+224]
; File D:\git\src\IBK\IBK_DRFN\ProjSrc\SrcChartEx\ChartAddIn\ChartPatternAddIn\DlgPatternEnvSetup.cpp

; 145  : 		CString strTemp;

  0005c	c7 45 fc 00 00
	00 00		 mov	 DWORD PTR __$EHRec$[ebp+8], 0
; File C:\Program Files (x86)\Microsoft Visual Studio\2019\Community\VC\Tools\MSVC\14.29.30133\atlmfc\include\afxwin2.inl

; 628  : 	{ ASSERT(::IsWindow(m_hWnd)); return (int)::SendMessage(m_hWnd, BM_GETCHECK, 0, 0); }

  00063	ff d7		 call	 edi
; File D:\git\src\IBK\IBK_DRFN\ProjSrc\SrcChartEx\ChartAddIn\ChartPatternAddIn\DlgPatternEnvSetup.cpp

; 148  : 		m_pPatternEnvData->m_bNotDrawAll = m_chkNotDrawAll.GetCheck();

  00065	8b 8b b8 00 00
	00		 mov	 ecx, DWORD PTR [ebx+184]
  0006b	89 41 04	 mov	 DWORD PTR [ecx+4], eax

; 149  : 
; 150  : 		//  (0: , 1:)
; 151  : 		m_pPatternEnvData->m_nDrawMethod = m_radiovalMMA;

  0006e	8b 8b b8 00 00
	00		 mov	 ecx, DWORD PTR [ebx+184]
  00074	8b 83 40 05 00
	00		 mov	 eax, DWORD PTR [ebx+1344]
  0007a	89 41 08	 mov	 DWORD PTR [ecx+8], eax

; 152  : 
; 153  : 		//  
; 154  : 		GetDlgItemText(IDC_EDIT_MMA, strTemp);

  0007d	8d 45 f0	 lea	 eax, DWORD PTR _strTemp$2[ebp]
  00080	50		 push	 eax
  00081	68 db 07 00 00	 push	 2011			; 000007dbH
  00086	8b cb		 mov	 ecx, ebx
  00088	e8 00 00 00 00	 call	 ?GetDlgItemTextA@CWnd@@QBEHHAAV?$CStringT@DV?$StrTraitMFC_DLL@DV?$ChTraitsCRT@D@ATL@@@@@ATL@@@Z ; CWnd::GetDlgItemTextA

; 155  : 		strTemp.Remove(',');

  0008d	6a 2c		 push	 44			; 0000002cH
  0008f	8d 4d f0	 lea	 ecx, DWORD PTR _strTemp$2[ebp]
  00092	ff 15 00 00 00
	00		 call	 DWORD PTR __imp_?Remove@?$CStringT@DV?$StrTraitMFC_DLL@DV?$ChTraitsCRT@D@ATL@@@@@ATL@@QAEHD@Z

; 156  : 		m_pPatternEnvData->m_nMAPeriod = atoi(strTemp);

  00098	ff 75 f0	 push	 DWORD PTR _strTemp$2[ebp]
  0009b	8b 35 00 00 00
	00		 mov	 esi, DWORD PTR __imp__atoi
  000a1	ff d6		 call	 esi
  000a3	8b 8b b8 00 00
	00		 mov	 ecx, DWORD PTR [ebx+184]
  000a9	83 c4 04	 add	 esp, 4
  000ac	89 41 0c	 mov	 DWORD PTR [ecx+12], eax

; 157  : 		
; 158  : 		//  
; 159  : 		GetDlgItemText(IDC_EDIT_CANDLE, strTemp);

  000af	8d 45 f0	 lea	 eax, DWORD PTR _strTemp$2[ebp]
  000b2	50		 push	 eax
  000b3	68 dc 07 00 00	 push	 2012			; 000007dcH
  000b8	8b cb		 mov	 ecx, ebx
  000ba	e8 00 00 00 00	 call	 ?GetDlgItemTextA@CWnd@@QBEHHAAV?$CStringT@DV?$StrTraitMFC_DLL@DV?$ChTraitsCRT@D@ATL@@@@@ATL@@@Z ; CWnd::GetDlgItemTextA

; 160  : 		strTemp.Remove(',');

  000bf	6a 2c		 push	 44			; 0000002cH
  000c1	8d 4d f0	 lea	 ecx, DWORD PTR _strTemp$2[ebp]
  000c4	ff 15 00 00 00
	00		 call	 DWORD PTR __imp_?Remove@?$CStringT@DV?$StrTraitMFC_DLL@DV?$ChTraitsCRT@D@ATL@@@@@ATL@@QAEHD@Z

; 161  : 		m_pPatternEnvData->m_nCandleCnt = atoi(strTemp);

  000ca	ff 75 f0	 push	 DWORD PTR _strTemp$2[ebp]
  000cd	ff d6		 call	 esi
  000cf	8b 8b b8 00 00
	00		 mov	 ecx, DWORD PTR [ebx+184]
  000d5	83 c4 04	 add	 esp, 4
; File C:\Program Files (x86)\Microsoft Visual Studio\2019\Community\VC\Tools\MSVC\14.29.30133\atlmfc\include\afxwin2.inl

; 628  : 	{ ASSERT(::IsWindow(m_hWnd)); return (int)::SendMessage(m_hWnd, BM_GETCHECK, 0, 0); }

  000d8	6a 00		 push	 0
  000da	6a 00		 push	 0
  000dc	68 f0 00 00 00	 push	 240			; 000000f0H
; File D:\git\src\IBK\IBK_DRFN\ProjSrc\SrcChartEx\ChartAddIn\ChartPatternAddIn\DlgPatternEnvSetup.cpp

; 161  : 		m_pPatternEnvData->m_nCandleCnt = atoi(strTemp);

  000e1	89 41 10	 mov	 DWORD PTR [ecx+16], eax
; File C:\Program Files (x86)\Microsoft Visual Studio\2019\Community\VC\Tools\MSVC\14.29.30133\atlmfc\include\afxwin2.inl

; 628  : 	{ ASSERT(::IsWindow(m_hWnd)); return (int)::SendMessage(m_hWnd, BM_GETCHECK, 0, 0); }

  000e4	ff b3 e0 04 00
	00		 push	 DWORD PTR [ebx+1248]
  000ea	ff d7		 call	 edi
; File D:\git\src\IBK\IBK_DRFN\ProjSrc\SrcChartEx\ChartAddIn\ChartPatternAddIn\DlgPatternEnvSetup.cpp

; 164  : 		m_pPatternEnvData->m_bDrawHighLowPtLine = m_chkHighLowPtLine.GetCheck();

  000ec	8b 8b b8 00 00
	00		 mov	 ecx, DWORD PTR [ebx+184]
; File C:\Program Files (x86)\Microsoft Visual Studio\2019\Community\VC\Tools\MSVC\14.29.30133\atlmfc\include\afxwin2.inl

; 628  : 	{ ASSERT(::IsWindow(m_hWnd)); return (int)::SendMessage(m_hWnd, BM_GETCHECK, 0, 0); }

  000f2	6a 00		 push	 0
  000f4	6a 00		 push	 0
  000f6	68 f0 00 00 00	 push	 240			; 000000f0H
; File D:\git\src\IBK\IBK_DRFN\ProjSrc\SrcChartEx\ChartAddIn\ChartPatternAddIn\DlgPatternEnvSetup.cpp

; 164  : 		m_pPatternEnvData->m_bDrawHighLowPtLine = m_chkHighLowPtLine.GetCheck();

  000fb	89 41 1c	 mov	 DWORD PTR [ecx+28], eax
; File C:\Program Files (x86)\Microsoft Visual Studio\2019\Community\VC\Tools\MSVC\14.29.30133\atlmfc\include\afxwin2.inl

; 628  : 	{ ASSERT(::IsWindow(m_hWnd)); return (int)::SendMessage(m_hWnd, BM_GETCHECK, 0, 0); }

  000fe	ff b3 60 02 00
	00		 push	 DWORD PTR [ebx+608]
  00104	ff d7		 call	 edi
; File D:\git\src\IBK\IBK_DRFN\ProjSrc\SrcChartEx\ChartAddIn\ChartPatternAddIn\DlgPatternEnvSetup.cpp

; 167  : 		m_pPatternEnvData->m_bDrawMMa = m_chkMMa.GetCheck();

  00106	8b 8b b8 00 00
	00		 mov	 ecx, DWORD PTR [ebx+184]
; File C:\Program Files (x86)\Microsoft Visual Studio\2019\Community\VC\Tools\MSVC\14.29.30133\atlmfc\include\afxwin2.inl

; 628  : 	{ ASSERT(::IsWindow(m_hWnd)); return (int)::SendMessage(m_hWnd, BM_GETCHECK, 0, 0); }

  0010c	6a 00		 push	 0
  0010e	6a 00		 push	 0
  00110	68 f0 00 00 00	 push	 240			; 000000f0H
; File D:\git\src\IBK\IBK_DRFN\ProjSrc\SrcChartEx\ChartAddIn\ChartPatternAddIn\DlgPatternEnvSetup.cpp

; 167  : 		m_pPatternEnvData->m_bDrawMMa = m_chkMMa.GetCheck();

  00115	89 41 20	 mov	 DWORD PTR [ecx+32], eax
; File C:\Program Files (x86)\Microsoft Visual Studio\2019\Community\VC\Tools\MSVC\14.29.30133\atlmfc\include\afxwin2.inl

; 628  : 	{ ASSERT(::IsWindow(m_hWnd)); return (int)::SendMessage(m_hWnd, BM_GETCHECK, 0, 0); }

  00118	ff b3 60 04 00
	00		 push	 DWORD PTR [ebx+1120]
  0011e	ff d7		 call	 edi
; File D:\git\src\IBK\IBK_DRFN\ProjSrc\SrcChartEx\ChartAddIn\ChartPatternAddIn\DlgPatternEnvSetup.cpp

; 170  : 		m_pPatternEnvData->m_bDrawHighPtHLine = m_chkHighPtHLine.GetCheck();

  00120	8b 8b b8 00 00
	00		 mov	 ecx, DWORD PTR [ebx+184]
; File C:\Program Files (x86)\Microsoft Visual Studio\2019\Community\VC\Tools\MSVC\14.29.30133\atlmfc\include\afxwin2.inl

; 628  : 	{ ASSERT(::IsWindow(m_hWnd)); return (int)::SendMessage(m_hWnd, BM_GETCHECK, 0, 0); }

  00126	6a 00		 push	 0
  00128	6a 00		 push	 0
  0012a	68 f0 00 00 00	 push	 240			; 000000f0H
; File D:\git\src\IBK\IBK_DRFN\ProjSrc\SrcChartEx\ChartAddIn\ChartPatternAddIn\DlgPatternEnvSetup.cpp

; 170  : 		m_pPatternEnvData->m_bDrawHighPtHLine = m_chkHighPtHLine.GetCheck();

  0012f	89 41 24	 mov	 DWORD PTR [ecx+36], eax
; File C:\Program Files (x86)\Microsoft Visual Studio\2019\Community\VC\Tools\MSVC\14.29.30133\atlmfc\include\afxwin2.inl

; 628  : 	{ ASSERT(::IsWindow(m_hWnd)); return (int)::SendMessage(m_hWnd, BM_GETCHECK, 0, 0); }

  00132	ff b3 60 03 00
	00		 push	 DWORD PTR [ebx+864]
  00138	ff d7		 call	 edi
; File D:\git\src\IBK\IBK_DRFN\ProjSrc\SrcChartEx\ChartAddIn\ChartPatternAddIn\DlgPatternEnvSetup.cpp

; 171  : 		m_pPatternEnvData->m_bDrawLowPtHLine = m_chkLowPtHLine.GetCheck();

  0013a	8b 8b b8 00 00
	00		 mov	 ecx, DWORD PTR [ebx+184]
; File C:\Program Files (x86)\Microsoft Visual Studio\2019\Community\VC\Tools\MSVC\14.29.30133\atlmfc\include\afxwin2.inl

; 628  : 	{ ASSERT(::IsWindow(m_hWnd)); return (int)::SendMessage(m_hWnd, BM_GETCHECK, 0, 0); }

  00140	6a 00		 push	 0
  00142	6a 00		 push	 0
  00144	68 f0 00 00 00	 push	 240			; 000000f0H
; File D:\git\src\IBK\IBK_DRFN\ProjSrc\SrcChartEx\ChartAddIn\ChartPatternAddIn\DlgPatternEnvSetup.cpp

; 171  : 		m_pPatternEnvData->m_bDrawLowPtHLine = m_chkLowPtHLine.GetCheck();

  00149	89 41 28	 mov	 DWORD PTR [ecx+40], eax
; File C:\Program Files (x86)\Microsoft Visual Studio\2019\Community\VC\Tools\MSVC\14.29.30133\atlmfc\include\afxwin2.inl

; 628  : 	{ ASSERT(::IsWindow(m_hWnd)); return (int)::SendMessage(m_hWnd, BM_GETCHECK, 0, 0); }

  0014c	ff b3 e0 03 00
	00		 push	 DWORD PTR [ebx+992]
  00152	ff d7		 call	 edi
; File D:\git\src\IBK\IBK_DRFN\ProjSrc\SrcChartEx\ChartAddIn\ChartPatternAddIn\DlgPatternEnvSetup.cpp

; 174  : 		m_pPatternEnvData->m_bDrawHighRegistLine = m_chkHighPtRegistLine.GetCheck();

  00154	8b 8b b8 00 00
	00		 mov	 ecx, DWORD PTR [ebx+184]
; File C:\Program Files (x86)\Microsoft Visual Studio\2019\Community\VC\Tools\MSVC\14.29.30133\atlmfc\include\afxwin2.inl

; 628  : 	{ ASSERT(::IsWindow(m_hWnd)); return (int)::SendMessage(m_hWnd, BM_GETCHECK, 0, 0); }

  0015a	6a 00		 push	 0
  0015c	6a 00		 push	 0
; File D:\git\src\IBK\IBK_DRFN\ProjSrc\SrcChartEx\ChartAddIn\ChartPatternAddIn\DlgPatternEnvSetup.cpp

; 174  : 		m_pPatternEnvData->m_bDrawHighRegistLine = m_chkHighPtRegistLine.GetCheck();

  0015e	89 41 2c	 mov	 DWORD PTR [ecx+44], eax
; File C:\Program Files (x86)\Microsoft Visual Studio\2019\Community\VC\Tools\MSVC\14.29.30133\atlmfc\include\afxwin2.inl

; 628  : 	{ ASSERT(::IsWindow(m_hWnd)); return (int)::SendMessage(m_hWnd, BM_GETCHECK, 0, 0); }

  00161	68 f0 00 00 00	 push	 240			; 000000f0H
  00166	ff b3 e0 02 00
	00		 push	 DWORD PTR [ebx+736]
  0016c	ff d7		 call	 edi
; File D:\git\src\IBK\IBK_DRFN\ProjSrc\SrcChartEx\ChartAddIn\ChartPatternAddIn\DlgPatternEnvSetup.cpp

; 175  : 		m_pPatternEnvData->m_bDrawLowSupportLine = m_chkLowPtSupportLine.GetCheck();

  0016e	8b 8b b8 00 00
	00		 mov	 ecx, DWORD PTR [ebx+184]
  00174	89 41 30	 mov	 DWORD PTR [ecx+48], eax

; 176  : 		
; 177  : 		// ,  %
; 178  : 		m_edtHLPtAllowable.GetWindowText(strTemp);

  00177	8d 45 f0	 lea	 eax, DWORD PTR _strTemp$2[ebp]
  0017a	50		 push	 eax
  0017b	8d 8b c0 01 00
	00		 lea	 ecx, DWORD PTR [ebx+448]
  00181	e8 00 00 00 00	 call	 ?GetWindowTextA@CWnd@@QBEXAAV?$CStringT@DV?$StrTraitMFC_DLL@DV?$ChTraitsCRT@D@ATL@@@@@ATL@@@Z ; CWnd::GetWindowTextA

; 179  : 		strTemp.Format("%.1f", atof(strTemp));

  00186	ff 75 f0	 push	 DWORD PTR _strTemp$2[ebp]
  00189	ff 15 00 00 00
	00		 call	 DWORD PTR __imp__atof
  0018f	8b 35 00 00 00
	00		 mov	 esi, DWORD PTR __imp_?Format@?$CStringT@DV?$StrTraitMFC_DLL@DV?$ChTraitsCRT@D@ATL@@@@@ATL@@QAAXPBDZZ
  00195	8d 45 f0	 lea	 eax, DWORD PTR _strTemp$2[ebp]
  00198	51		 push	 ecx
  00199	dd 1c 24	 fstp	 QWORD PTR [esp]
  0019c	68 00 00 00 00	 push	 OFFSET ??_C@_04GGBPDDBN@?$CF?41f@
  001a1	50		 push	 eax
  001a2	ff d6		 call	 esi

; 180  : 		m_pPatternEnvData->m_dHLPtAllowalbeError = atof(strTemp);

  001a4	ff 75 f0	 push	 DWORD PTR _strTemp$2[ebp]
  001a7	ff 15 00 00 00
	00		 call	 DWORD PTR __imp__atof
  001ad	8b 83 b8 00 00
	00		 mov	 eax, DWORD PTR [ebx+184]

; 181  : 		
; 182  : 		//  %(    )
; 183  : 		m_edtNextPtAllowable.GetWindowText(strTemp);

  001b3	8d 8b 40 01 00
	00		 lea	 ecx, DWORD PTR [ebx+320]
  001b9	dd 5d e8	 fstp	 QWORD PTR tv203[ebp]
  001bc	f2 0f 10 45 e8	 movsd	 xmm0, QWORD PTR tv203[ebp]
  001c1	83 c4 14	 add	 esp, 20			; 00000014H
  001c4	f2 0f 11 40 38	 movsd	 QWORD PTR [eax+56], xmm0
  001c9	8d 45 f0	 lea	 eax, DWORD PTR _strTemp$2[ebp]
  001cc	50		 push	 eax
  001cd	e8 00 00 00 00	 call	 ?GetWindowTextA@CWnd@@QBEXAAV?$CStringT@DV?$StrTraitMFC_DLL@DV?$ChTraitsCRT@D@ATL@@@@@ATL@@@Z ; CWnd::GetWindowTextA

; 184  : 		strTemp.Format("%.1f", atof(strTemp));

  001d2	ff 75 f0	 push	 DWORD PTR _strTemp$2[ebp]
  001d5	ff 15 00 00 00
	00		 call	 DWORD PTR __imp__atof
  001db	51		 push	 ecx
  001dc	dd 1c 24	 fstp	 QWORD PTR [esp]
  001df	8d 45 f0	 lea	 eax, DWORD PTR _strTemp$2[ebp]
  001e2	68 00 00 00 00	 push	 OFFSET ??_C@_04GGBPDDBN@?$CF?41f@
  001e7	50		 push	 eax
  001e8	ff d6		 call	 esi

; 185  : 		m_pPatternEnvData->m_dNextPtAllowableError = atof(strTemp);

  001ea	ff 75 f0	 push	 DWORD PTR _strTemp$2[ebp]
  001ed	ff 15 00 00 00
	00		 call	 DWORD PTR __imp__atof
  001f3	8b 83 b8 00 00
	00		 mov	 eax, DWORD PTR [ebx+184]

; 186  : 	}

  001f9	8d 4d f0	 lea	 ecx, DWORD PTR _strTemp$2[ebp]
  001fc	dd 5d e8	 fstp	 QWORD PTR tv231[ebp]
  001ff	f2 0f 10 45 e8	 movsd	 xmm0, QWORD PTR tv231[ebp]
  00204	83 c4 14	 add	 esp, 20			; 00000014H
  00207	c7 45 fc ff ff
	ff ff		 mov	 DWORD PTR __$EHRec$[ebp+8], -1
  0020e	f2 0f 11 40 40	 movsd	 QWORD PTR [eax+64], xmm0
  00213	ff 15 00 00 00
	00		 call	 DWORD PTR __imp_??1?$CStringT@DV?$StrTraitMFC_DLL@DV?$ChTraitsCRT@D@ATL@@@@@ATL@@QAE@XZ
$LN2@OnOK:

; 187  : 
; 188  : 	CDialog::OnOK();

  00219	8b cb		 mov	 ecx, ebx
  0021b	e8 00 00 00 00	 call	 ?OnOK@CDialog@@MAEXXZ	; CDialog::OnOK

; 189  : }

  00220	8b 4d f4	 mov	 ecx, DWORD PTR __$EHRec$[ebp]
  00223	64 89 0d 00 00
	00 00		 mov	 DWORD PTR fs:0, ecx
  0022a	59		 pop	 ecx
  0022b	5f		 pop	 edi
  0022c	5e		 pop	 esi
  0022d	5b		 pop	 ebx
  0022e	8b e5		 mov	 esp, ebp
  00230	5d		 pop	 ebp
  00231	c3		 ret	 0
_TEXT	ENDS
;	COMDAT text$x
text$x	SEGMENT
__unwindfunclet$?OnOK@CDlgPatternEnvSetup@@MAEXXZ$0:
  00000	8d 4d f0	 lea	 ecx, DWORD PTR _strTemp$2[ebp]
  00003	ff 25 00 00 00
	00		 jmp	 DWORD PTR __imp_??1?$CStringT@DV?$StrTraitMFC_DLL@DV?$ChTraitsCRT@D@ATL@@@@@ATL@@QAE@XZ
  00009	cc		 int	 3
  0000a	cc		 int	 3
  0000b	cc		 int	 3
  0000c	cc		 int	 3
  0000d	cc		 int	 3
__ehhandler$?OnOK@CDlgPatternEnvSetup@@MAEXXZ:
  0000e	90		 npad	 1
  0000f	90		 npad	 1
  00010	8b 54 24 08	 mov	 edx, DWORD PTR [esp+8]
  00014	8d 42 0c	 lea	 eax, DWORD PTR [edx+12]
  00017	8b 4a e4	 mov	 ecx, DWORD PTR [edx-28]
  0001a	33 c8		 xor	 ecx, eax
  0001c	e8 00 00 00 00	 call	 @__security_check_cookie@4
  00021	b8 00 00 00 00	 mov	 eax, OFFSET __ehfuncinfo$?OnOK@CDlgPatternEnvSetup@@MAEXXZ
  00026	e9 00 00 00 00	 jmp	 ___CxxFrameHandler3
text$x	ENDS
?OnOK@CDlgPatternEnvSetup@@MAEXXZ ENDP			; CDlgPatternEnvSetup::OnOK
; Function compile flags: /Ogtp
; File D:\git\src\IBK\IBK_DRFN\ProjSrc\SrcChartEx\ChartAddIn\ChartPatternAddIn\DlgPatternEnvSetup.cpp
; File C:\Program Files (x86)\Microsoft Visual Studio\2019\Community\VC\Tools\MSVC\14.29.30133\atlmfc\include\afxwin2.inl
; File D:\git\src\IBK\IBK_DRFN\ProjSrc\SrcChartEx\ChartAddIn\ChartPatternAddIn\DlgPatternEnvSetup.cpp
; File C:\Program Files (x86)\Microsoft Visual Studio\2019\Community\VC\Tools\MSVC\14.29.30133\atlmfc\include\afxwin2.inl
; File D:\git\src\IBK\IBK_DRFN\ProjSrc\SrcChartEx\ChartAddIn\ChartPatternAddIn\DlgPatternEnvSetup.cpp
; File C:\Program Files (x86)\Microsoft Visual Studio\2019\Community\VC\Tools\MSVC\14.29.30133\atlmfc\include\afxwin2.inl
; File D:\git\src\IBK\IBK_DRFN\ProjSrc\SrcChartEx\ChartAddIn\ChartPatternAddIn\DlgPatternEnvSetup.cpp
;	COMDAT ?OnInitDialog@CDlgPatternEnvSetup@@MAEHXZ
_TEXT	SEGMENT
_strTemp$2 = -16					; size = 4
__$EHRec$ = -12						; size = 12
?OnInitDialog@CDlgPatternEnvSetup@@MAEHXZ PROC		; CDlgPatternEnvSetup::OnInitDialog, COMDAT
; _this$ = ecx

; 68   : {

  00000	55		 push	 ebp
  00001	8b ec		 mov	 ebp, esp
  00003	6a ff		 push	 -1
  00005	68 00 00 00 00	 push	 __ehhandler$?OnInitDialog@CDlgPatternEnvSetup@@MAEHXZ
  0000a	64 a1 00 00 00
	00		 mov	 eax, DWORD PTR fs:0
  00010	50		 push	 eax
  00011	51		 push	 ecx
  00012	53		 push	 ebx
  00013	56		 push	 esi
  00014	57		 push	 edi
  00015	a1 00 00 00 00	 mov	 eax, DWORD PTR ___security_cookie
  0001a	33 c5		 xor	 eax, ebp
  0001c	50		 push	 eax
  0001d	8d 45 f4	 lea	 eax, DWORD PTR __$EHRec$[ebp]
  00020	64 a3 00 00 00
	00		 mov	 DWORD PTR fs:0, eax
  00026	8b f9		 mov	 edi, ecx

; 69   : 	CDialog::OnInitDialog();

  00028	e8 00 00 00 00	 call	 ?OnInitDialog@CDialog@@UAEHXZ ; CDialog::OnInitDialog

; 88   : 	if ( m_pPatternEnvData)

  0002d	83 bf b8 00 00
	00 00		 cmp	 DWORD PTR [edi+184], 0
  00034	0f 84 a1 01 00
	00		 je	 $LN31@OnInitDial

; 90   : 		CString strTemp;

  0003a	8d 4d f0	 lea	 ecx, DWORD PTR _strTemp$2[ebp]
  0003d	ff 15 00 00 00
	00		 call	 DWORD PTR __imp_??0?$CStringT@DV?$StrTraitMFC_DLL@DV?$ChTraitsCRT@D@ATL@@@@@ATL@@QAE@XZ
; File C:\Program Files (x86)\Microsoft Visual Studio\2019\Community\VC\Tools\MSVC\14.29.30133\atlmfc\include\afxwin2.inl

; 630  : 	{ ASSERT(::IsWindow(m_hWnd)); ::SendMessage(m_hWnd, BM_SETCHECK, nCheck, 0); }

  00043	8b 87 b8 00 00
	00		 mov	 eax, DWORD PTR [edi+184]
  00049	8b 1d 00 00 00
	00		 mov	 ebx, DWORD PTR __imp__SendMessageA@16
  0004f	6a 00		 push	 0
; File D:\git\src\IBK\IBK_DRFN\ProjSrc\SrcChartEx\ChartAddIn\ChartPatternAddIn\DlgPatternEnvSetup.cpp

; 90   : 		CString strTemp;

  00051	c7 45 fc 00 00
	00 00		 mov	 DWORD PTR __$EHRec$[ebp+8], 0
; File C:\Program Files (x86)\Microsoft Visual Studio\2019\Community\VC\Tools\MSVC\14.29.30133\atlmfc\include\afxwin2.inl

; 630  : 	{ ASSERT(::IsWindow(m_hWnd)); ::SendMessage(m_hWnd, BM_SETCHECK, nCheck, 0); }

  00058	ff 70 04	 push	 DWORD PTR [eax+4]
  0005b	68 f1 00 00 00	 push	 241			; 000000f1H
  00060	ff b7 e0 00 00
	00		 push	 DWORD PTR [edi+224]
  00066	ff d3		 call	 ebx
; File D:\git\src\IBK\IBK_DRFN\ProjSrc\SrcChartEx\ChartAddIn\ChartPatternAddIn\DlgPatternEnvSetup.cpp

; 96   : 		m_radiovalMMA = m_pPatternEnvData->m_nDrawMethod;

  00068	8b 87 b8 00 00
	00		 mov	 eax, DWORD PTR [edi+184]

; 97   : 		if ( m_radiovalMMA == 0)

  0006e	8b cf		 mov	 ecx, edi
  00070	8b 40 08	 mov	 eax, DWORD PTR [eax+8]
  00073	89 87 40 05 00
	00		 mov	 DWORD PTR [edi+1344], eax
  00079	85 c0		 test	 eax, eax
  0007b	75 07		 jne	 SHORT $LN5@OnInitDial

; 98   : 			OnRadioMma();

  0007d	e8 00 00 00 00	 call	 ?OnRadioMma@CDlgPatternEnvSetup@@IAEXXZ ; CDlgPatternEnvSetup::OnRadioMma
  00082	eb 05		 jmp	 SHORT $LN6@OnInitDial
$LN5@OnInitDial:

; 99   : 		else
; 100  : 			OnRadioCandle();

  00084	e8 00 00 00 00	 call	 ?OnRadioCandle@CDlgPatternEnvSetup@@IAEXXZ ; CDlgPatternEnvSetup::OnRadioCandle
$LN6@OnInitDial:

; 101  : 
; 102  : 		//  
; 103  : 		strTemp.Format("%d", m_pPatternEnvData->m_nMAPeriod);

  00089	8b 87 b8 00 00
	00		 mov	 eax, DWORD PTR [edi+184]
  0008f	8b 35 00 00 00
	00		 mov	 esi, DWORD PTR __imp_?Format@?$CStringT@DV?$StrTraitMFC_DLL@DV?$ChTraitsCRT@D@ATL@@@@@ATL@@QAAXPBDZZ
  00095	ff 70 0c	 push	 DWORD PTR [eax+12]
  00098	8d 45 f0	 lea	 eax, DWORD PTR _strTemp$2[ebp]
  0009b	68 00 00 00 00	 push	 OFFSET ??_C@_02DPKJAMEF@?$CFd@
  000a0	50		 push	 eax
  000a1	ff d6		 call	 esi
  000a3	83 c4 0c	 add	 esp, 12			; 0000000cH

; 104  : 		SetDlgItemText(IDC_EDIT_MMA, strTemp);

  000a6	8b cf		 mov	 ecx, edi
  000a8	ff 75 f0	 push	 DWORD PTR _strTemp$2[ebp]
  000ab	68 db 07 00 00	 push	 2011			; 000007dbH
  000b0	e8 00 00 00 00	 call	 ?SetDlgItemTextA@CWnd@@QAEXHPBD@Z ; CWnd::SetDlgItemTextA

; 105  : 
; 106  : 		//  
; 107  : 		strTemp.Format("%d", m_pPatternEnvData->m_nCandleCnt);

  000b5	8b 87 b8 00 00
	00		 mov	 eax, DWORD PTR [edi+184]
  000bb	ff 70 10	 push	 DWORD PTR [eax+16]
  000be	8d 45 f0	 lea	 eax, DWORD PTR _strTemp$2[ebp]
  000c1	68 00 00 00 00	 push	 OFFSET ??_C@_02DPKJAMEF@?$CFd@
  000c6	50		 push	 eax
  000c7	ff d6		 call	 esi
  000c9	83 c4 0c	 add	 esp, 12			; 0000000cH

; 108  : 		SetDlgItemText(IDC_EDIT_CANDLE, strTemp);

  000cc	8b cf		 mov	 ecx, edi
  000ce	ff 75 f0	 push	 DWORD PTR _strTemp$2[ebp]
  000d1	68 dc 07 00 00	 push	 2012			; 000007dcH
  000d6	e8 00 00 00 00	 call	 ?SetDlgItemTextA@CWnd@@QAEXHPBD@Z ; CWnd::SetDlgItemTextA
; File C:\Program Files (x86)\Microsoft Visual Studio\2019\Community\VC\Tools\MSVC\14.29.30133\atlmfc\include\afxwin2.inl

; 630  : 	{ ASSERT(::IsWindow(m_hWnd)); ::SendMessage(m_hWnd, BM_SETCHECK, nCheck, 0); }

  000db	8b 87 b8 00 00
	00		 mov	 eax, DWORD PTR [edi+184]
  000e1	6a 00		 push	 0
  000e3	ff 70 1c	 push	 DWORD PTR [eax+28]
  000e6	68 f1 00 00 00	 push	 241			; 000000f1H
  000eb	ff b7 e0 04 00
	00		 push	 DWORD PTR [edi+1248]
  000f1	ff d3		 call	 ebx
  000f3	8b 87 b8 00 00
	00		 mov	 eax, DWORD PTR [edi+184]
  000f9	6a 00		 push	 0
  000fb	ff 70 20	 push	 DWORD PTR [eax+32]
  000fe	68 f1 00 00 00	 push	 241			; 000000f1H
  00103	ff b7 60 02 00
	00		 push	 DWORD PTR [edi+608]
  00109	ff d3		 call	 ebx
  0010b	8b 87 b8 00 00
	00		 mov	 eax, DWORD PTR [edi+184]
  00111	6a 00		 push	 0
  00113	ff 70 24	 push	 DWORD PTR [eax+36]
  00116	68 f1 00 00 00	 push	 241			; 000000f1H
  0011b	ff b7 60 04 00
	00		 push	 DWORD PTR [edi+1120]
  00121	ff d3		 call	 ebx
  00123	8b 87 b8 00 00
	00		 mov	 eax, DWORD PTR [edi+184]
  00129	6a 00		 push	 0
  0012b	ff 70 28	 push	 DWORD PTR [eax+40]
  0012e	68 f1 00 00 00	 push	 241			; 000000f1H
  00133	ff b7 60 03 00
	00		 push	 DWORD PTR [edi+864]
  00139	ff d3		 call	 ebx
  0013b	8b 87 b8 00 00
	00		 mov	 eax, DWORD PTR [edi+184]
  00141	6a 00		 push	 0
  00143	ff 70 2c	 push	 DWORD PTR [eax+44]
  00146	68 f1 00 00 00	 push	 241			; 000000f1H
  0014b	ff b7 e0 03 00
	00		 push	 DWORD PTR [edi+992]
  00151	ff d3		 call	 ebx
  00153	8b 87 b8 00 00
	00		 mov	 eax, DWORD PTR [edi+184]
  00159	6a 00		 push	 0
  0015b	ff 70 30	 push	 DWORD PTR [eax+48]
  0015e	68 f1 00 00 00	 push	 241			; 000000f1H
  00163	ff b7 e0 02 00
	00		 push	 DWORD PTR [edi+736]
  00169	ff d3		 call	 ebx
; File D:\git\src\IBK\IBK_DRFN\ProjSrc\SrcChartEx\ChartAddIn\ChartPatternAddIn\DlgPatternEnvSetup.cpp

; 125  : 		strTemp.Format("%.1f", m_pPatternEnvData->m_dHLPtAllowalbeError);

  0016b	8b 87 b8 00 00
	00		 mov	 eax, DWORD PTR [edi+184]
  00171	83 ec 08	 sub	 esp, 8
  00174	f2 0f 10 40 38	 movsd	 xmm0, QWORD PTR [eax+56]
  00179	8d 45 f0	 lea	 eax, DWORD PTR _strTemp$2[ebp]
  0017c	f2 0f 11 04 24	 movsd	 QWORD PTR [esp], xmm0
  00181	68 00 00 00 00	 push	 OFFSET ??_C@_04GGBPDDBN@?$CF?41f@
  00186	50		 push	 eax
  00187	ff d6		 call	 esi
  00189	83 c4 10	 add	 esp, 16			; 00000010H

; 126  : 		m_edtHLPtAllowable.SetWindowText(strTemp);

  0018c	8d 8f c0 01 00
	00		 lea	 ecx, DWORD PTR [edi+448]
  00192	ff 75 f0	 push	 DWORD PTR _strTemp$2[ebp]
  00195	e8 00 00 00 00	 call	 ?SetWindowTextA@CWnd@@QAEXPBD@Z ; CWnd::SetWindowTextA

; 127  : 		
; 128  : 		//  %(    )
; 129  : 		strTemp.Format("%.1f", m_pPatternEnvData->m_dNextPtAllowableError);

  0019a	8b 87 b8 00 00
	00		 mov	 eax, DWORD PTR [edi+184]
  001a0	83 ec 08	 sub	 esp, 8
  001a3	f2 0f 10 40 40	 movsd	 xmm0, QWORD PTR [eax+64]
  001a8	8d 45 f0	 lea	 eax, DWORD PTR _strTemp$2[ebp]
  001ab	f2 0f 11 04 24	 movsd	 QWORD PTR [esp], xmm0
  001b0	68 00 00 00 00	 push	 OFFSET ??_C@_04GGBPDDBN@?$CF?41f@
  001b5	50		 push	 eax
  001b6	ff d6		 call	 esi
  001b8	83 c4 10	 add	 esp, 16			; 00000010H

; 130  : 		m_edtNextPtAllowable.SetWindowText(strTemp);

  001bb	ff 75 f0	 push	 DWORD PTR _strTemp$2[ebp]
  001be	8d 8f 40 01 00
	00		 lea	 ecx, DWORD PTR [edi+320]
  001c4	e8 00 00 00 00	 call	 ?SetWindowTextA@CWnd@@QAEXPBD@Z ; CWnd::SetWindowTextA

; 131  : 
; 132  : 
; 133  : 		UpdateData(FALSE);

  001c9	6a 00		 push	 0
  001cb	8b cf		 mov	 ecx, edi
  001cd	e8 00 00 00 00	 call	 ?UpdateData@CWnd@@QAEHH@Z ; CWnd::UpdateData

; 134  : 	}

  001d2	8d 4d f0	 lea	 ecx, DWORD PTR _strTemp$2[ebp]
  001d5	ff 15 00 00 00
	00		 call	 DWORD PTR __imp_??1?$CStringT@DV?$StrTraitMFC_DLL@DV?$ChTraitsCRT@D@ATL@@@@@ATL@@QAE@XZ
$LN31@OnInitDial:

; 70   : 	
; 71   : 	// TODO: Add extra initialization here
; 72   : 	SetPatternEnvDataToControl();
; 73   : 	
; 74   : 	return TRUE;  // return TRUE unless you set the focus to a control
; 75   : 	              // EXCEPTION: OCX Property Pages should return FALSE
; 76   : }

  001db	b8 01 00 00 00	 mov	 eax, 1
  001e0	8b 4d f4	 mov	 ecx, DWORD PTR __$EHRec$[ebp]
  001e3	64 89 0d 00 00
	00 00		 mov	 DWORD PTR fs:0, ecx
  001ea	59		 pop	 ecx
  001eb	5f		 pop	 edi
  001ec	5e		 pop	 esi
  001ed	5b		 pop	 ebx
  001ee	8b e5		 mov	 esp, ebp
  001f0	5d		 pop	 ebp
  001f1	c3		 ret	 0
_TEXT	ENDS
;	COMDAT text$x
text$x	SEGMENT
__unwindfunclet$?OnInitDialog@CDlgPatternEnvSetup@@MAEHXZ$0:
  00000	8d 4d f0	 lea	 ecx, DWORD PTR _strTemp$2[ebp]
  00003	ff 25 00 00 00
	00		 jmp	 DWORD PTR __imp_??1?$CStringT@DV?$StrTraitMFC_DLL@DV?$ChTraitsCRT@D@ATL@@@@@ATL@@QAE@XZ
  00009	cc		 int	 3
  0000a	cc		 int	 3
  0000b	cc		 int	 3
  0000c	cc		 int	 3
  0000d	cc		 int	 3
__ehhandler$?OnInitDialog@CDlgPatternEnvSetup@@MAEHXZ:
  0000e	90		 npad	 1
  0000f	90		 npad	 1
  00010	8b 54 24 08	 mov	 edx, DWORD PTR [esp+8]
  00014	8d 42 0c	 lea	 eax, DWORD PTR [edx+12]
  00017	8b 4a ec	 mov	 ecx, DWORD PTR [edx-20]
  0001a	33 c8		 xor	 ecx, eax
  0001c	e8 00 00 00 00	 call	 @__security_check_cookie@4
  00021	b8 00 00 00 00	 mov	 eax, OFFSET __ehfuncinfo$?OnInitDialog@CDlgPatternEnvSetup@@MAEHXZ
  00026	e9 00 00 00 00	 jmp	 ___CxxFrameHandler3
text$x	ENDS
?OnInitDialog@CDlgPatternEnvSetup@@MAEHXZ ENDP		; CDlgPatternEnvSetup::OnInitDialog
; Function compile flags: /Ogtp
; File D:\git\src\IBK\IBK_DRFN\ProjSrc\SrcChartEx\ChartAddIn\ChartPatternAddIn\DlgPatternEnvSetup.cpp
;	COMDAT ?DoDataExchange@CDlgPatternEnvSetup@@MAEXPAVCDataExchange@@@Z
_TEXT	SEGMENT
_pDX$ = 8						; size = 4
?DoDataExchange@CDlgPatternEnvSetup@@MAEXPAVCDataExchange@@@Z PROC ; CDlgPatternEnvSetup::DoDataExchange, COMDAT
; _this$ = ecx

; 37   : {

  00000	55		 push	 ebp
  00001	8b ec		 mov	 ebp, esp
  00003	56		 push	 esi

; 38   : 	CDialog::DoDataExchange(pDX);
; 39   : 	//{{AFX_DATA_MAP(CDlgPatternEnvSetup)
; 40   : 	DDX_Control(pDX, IDC_CHK_NOTDRAWALL, m_chkNotDrawAll);

  00004	8b 75 08	 mov	 esi, DWORD PTR _pDX$[ebp]
  00007	57		 push	 edi
  00008	8b f9		 mov	 edi, ecx
  0000a	8d 87 c0 00 00
	00		 lea	 eax, DWORD PTR [edi+192]
  00010	50		 push	 eax
  00011	68 d8 07 00 00	 push	 2008			; 000007d8H
  00016	56		 push	 esi
  00017	e8 00 00 00 00	 call	 ?DDX_Control@@YGXPAVCDataExchange@@HAAVCWnd@@@Z ; DDX_Control

; 41   : 	DDX_Control(pDX, IDC_EDIT_NEXTPT_ALLOWABLE, m_edtNextPtAllowable);

  0001c	8d 87 40 01 00
	00		 lea	 eax, DWORD PTR [edi+320]
  00022	50		 push	 eax
  00023	68 d7 07 00 00	 push	 2007			; 000007d7H
  00028	56		 push	 esi
  00029	e8 00 00 00 00	 call	 ?DDX_Control@@YGXPAVCDataExchange@@HAAVCWnd@@@Z ; DDX_Control

; 42   : 	DDX_Control(pDX, IDC_EDIT_HLPT_ALLOWABLE, m_edtHLPtAllowable);

  0002e	8d 87 c0 01 00
	00		 lea	 eax, DWORD PTR [edi+448]
  00034	50		 push	 eax
  00035	68 d6 07 00 00	 push	 2006			; 000007d6H
  0003a	56		 push	 esi
  0003b	e8 00 00 00 00	 call	 ?DDX_Control@@YGXPAVCDataExchange@@HAAVCWnd@@@Z ; DDX_Control

; 43   : 	DDX_Control(pDX, IDC_CHK_MMA, m_chkMMa);

  00040	8d 87 40 02 00
	00		 lea	 eax, DWORD PTR [edi+576]
  00046	50		 push	 eax
  00047	68 d0 07 00 00	 push	 2000			; 000007d0H
  0004c	56		 push	 esi
  0004d	e8 00 00 00 00	 call	 ?DDX_Control@@YGXPAVCDataExchange@@HAAVCWnd@@@Z ; DDX_Control

; 44   : 	DDX_Control(pDX, IDC_CHK_LOWPTSUPPORTLINE, m_chkLowPtSupportLine);

  00052	8d 87 c0 02 00
	00		 lea	 eax, DWORD PTR [edi+704]
  00058	50		 push	 eax
  00059	68 d5 07 00 00	 push	 2005			; 000007d5H
  0005e	56		 push	 esi
  0005f	e8 00 00 00 00	 call	 ?DDX_Control@@YGXPAVCDataExchange@@HAAVCWnd@@@Z ; DDX_Control

; 45   : 	DDX_Control(pDX, IDC_CHK_LOWPTHLINE, m_chkLowPtHLine);

  00064	8d 87 40 03 00
	00		 lea	 eax, DWORD PTR [edi+832]
  0006a	50		 push	 eax
  0006b	68 d3 07 00 00	 push	 2003			; 000007d3H
  00070	56		 push	 esi
  00071	e8 00 00 00 00	 call	 ?DDX_Control@@YGXPAVCDataExchange@@HAAVCWnd@@@Z ; DDX_Control

; 46   : 	DDX_Control(pDX, IDC_CHK_HIGHPTREGISTLINE, m_chkHighPtRegistLine);

  00076	8d 87 c0 03 00
	00		 lea	 eax, DWORD PTR [edi+960]
  0007c	50		 push	 eax
  0007d	68 d4 07 00 00	 push	 2004			; 000007d4H
  00082	56		 push	 esi
  00083	e8 00 00 00 00	 call	 ?DDX_Control@@YGXPAVCDataExchange@@HAAVCWnd@@@Z ; DDX_Control

; 47   : 	DDX_Control(pDX, IDC_CHK_HIGHPTHLINE, m_chkHighPtHLine);

  00088	8d 87 40 04 00
	00		 lea	 eax, DWORD PTR [edi+1088]
  0008e	50		 push	 eax
  0008f	68 d2 07 00 00	 push	 2002			; 000007d2H
  00094	56		 push	 esi
  00095	e8 00 00 00 00	 call	 ?DDX_Control@@YGXPAVCDataExchange@@HAAVCWnd@@@Z ; DDX_Control

; 48   : 	DDX_Control(pDX, IDC_CHK_HIGHLOWPTLINE, m_chkHighLowPtLine);

  0009a	8d 87 c0 04 00
	00		 lea	 eax, DWORD PTR [edi+1216]
  000a0	50		 push	 eax
  000a1	68 d1 07 00 00	 push	 2001			; 000007d1H
  000a6	56		 push	 esi
  000a7	e8 00 00 00 00	 call	 ?DDX_Control@@YGXPAVCDataExchange@@HAAVCWnd@@@Z ; DDX_Control

; 49   : 	DDX_Radio(pDX, IDC_RADIO_MMA, m_radiovalMMA);

  000ac	8d 87 40 05 00
	00		 lea	 eax, DWORD PTR [edi+1344]
  000b2	50		 push	 eax
  000b3	68 d9 07 00 00	 push	 2009			; 000007d9H
  000b8	56		 push	 esi
  000b9	e8 00 00 00 00	 call	 ?DDX_Radio@@YGXPAVCDataExchange@@HAAH@Z ; DDX_Radio
  000be	5f		 pop	 edi
  000bf	5e		 pop	 esi

; 50   : 	//}}AFX_DATA_MAP
; 51   : }

  000c0	5d		 pop	 ebp
  000c1	c2 04 00	 ret	 4
?DoDataExchange@CDlgPatternEnvSetup@@MAEXPAVCDataExchange@@@Z ENDP ; CDlgPatternEnvSetup::DoDataExchange
_TEXT	ENDS
; Function compile flags: /Ogtp
; File D:\git\src\IBK\IBK_DRFN\ProjSrc\SrcChartEx\ChartAddIn\ChartPatternAddIn\DlgPatternEnvSetup.cpp
; File C:\Program Files (x86)\Microsoft Visual Studio\2019\Community\VC\Tools\MSVC\14.29.30133\atlmfc\include\afxwin2.inl
; File D:\git\src\IBK\IBK_DRFN\ProjSrc\SrcChartEx\ChartAddIn\ChartPatternAddIn\DlgPatternEnvSetup.cpp
; File C:\Program Files (x86)\Microsoft Visual Studio\2019\Community\VC\Tools\MSVC\14.29.30133\atlmfc\include\afxwin2.inl
; File D:\git\src\IBK\IBK_DRFN\ProjSrc\SrcChartEx\ChartAddIn\ChartPatternAddIn\DlgPatternEnvSetup.cpp
; File C:\Program Files (x86)\Microsoft Visual Studio\2019\Community\VC\Tools\MSVC\14.29.30133\atlmfc\include\afxwin2.inl
; File D:\git\src\IBK\IBK_DRFN\ProjSrc\SrcChartEx\ChartAddIn\ChartPatternAddIn\DlgPatternEnvSetup.cpp
;	COMDAT ?SetPatternEnvDataToControl@CDlgPatternEnvSetup@@QAEXXZ
_TEXT	SEGMENT
_strTemp$2 = -16					; size = 4
__$EHRec$ = -12						; size = 12
?SetPatternEnvDataToControl@CDlgPatternEnvSetup@@QAEXXZ PROC ; CDlgPatternEnvSetup::SetPatternEnvDataToControl, COMDAT
; _this$ = ecx

; 87   : {

  00000	55		 push	 ebp
  00001	8b ec		 mov	 ebp, esp
  00003	6a ff		 push	 -1
  00005	68 00 00 00 00	 push	 __ehhandler$?SetPatternEnvDataToControl@CDlgPatternEnvSetup@@QAEXXZ
  0000a	64 a1 00 00 00
	00		 mov	 eax, DWORD PTR fs:0
  00010	50		 push	 eax
  00011	51		 push	 ecx
  00012	53		 push	 ebx
  00013	56		 push	 esi
  00014	57		 push	 edi
  00015	a1 00 00 00 00	 mov	 eax, DWORD PTR ___security_cookie
  0001a	33 c5		 xor	 eax, ebp
  0001c	50		 push	 eax
  0001d	8d 45 f4	 lea	 eax, DWORD PTR __$EHRec$[ebp]
  00020	64 a3 00 00 00
	00		 mov	 DWORD PTR fs:0, eax
  00026	8b f9		 mov	 edi, ecx

; 88   : 	if ( m_pPatternEnvData)

  00028	83 bf b8 00 00
	00 00		 cmp	 DWORD PTR [edi+184], 0
  0002f	0f 84 a1 01 00
	00		 je	 $LN2@SetPattern

; 90   : 		CString strTemp;

  00035	8d 4d f0	 lea	 ecx, DWORD PTR _strTemp$2[ebp]
  00038	ff 15 00 00 00
	00		 call	 DWORD PTR __imp_??0?$CStringT@DV?$StrTraitMFC_DLL@DV?$ChTraitsCRT@D@ATL@@@@@ATL@@QAE@XZ
; File C:\Program Files (x86)\Microsoft Visual Studio\2019\Community\VC\Tools\MSVC\14.29.30133\atlmfc\include\afxwin2.inl

; 630  : 	{ ASSERT(::IsWindow(m_hWnd)); ::SendMessage(m_hWnd, BM_SETCHECK, nCheck, 0); }

  0003e	8b 87 b8 00 00
	00		 mov	 eax, DWORD PTR [edi+184]
  00044	8b 1d 00 00 00
	00		 mov	 ebx, DWORD PTR __imp__SendMessageA@16
  0004a	6a 00		 push	 0
; File D:\git\src\IBK\IBK_DRFN\ProjSrc\SrcChartEx\ChartAddIn\ChartPatternAddIn\DlgPatternEnvSetup.cpp

; 90   : 		CString strTemp;

  0004c	c7 45 fc 00 00
	00 00		 mov	 DWORD PTR __$EHRec$[ebp+8], 0
; File C:\Program Files (x86)\Microsoft Visual Studio\2019\Community\VC\Tools\MSVC\14.29.30133\atlmfc\include\afxwin2.inl

; 630  : 	{ ASSERT(::IsWindow(m_hWnd)); ::SendMessage(m_hWnd, BM_SETCHECK, nCheck, 0); }

  00053	ff 70 04	 push	 DWORD PTR [eax+4]
  00056	68 f1 00 00 00	 push	 241			; 000000f1H
  0005b	ff b7 e0 00 00
	00		 push	 DWORD PTR [edi+224]
  00061	ff d3		 call	 ebx
; File D:\git\src\IBK\IBK_DRFN\ProjSrc\SrcChartEx\ChartAddIn\ChartPatternAddIn\DlgPatternEnvSetup.cpp

; 96   : 		m_radiovalMMA = m_pPatternEnvData->m_nDrawMethod;

  00063	8b 87 b8 00 00
	00		 mov	 eax, DWORD PTR [edi+184]

; 97   : 		if ( m_radiovalMMA == 0)

  00069	8b cf		 mov	 ecx, edi
  0006b	8b 40 08	 mov	 eax, DWORD PTR [eax+8]
  0006e	89 87 40 05 00
	00		 mov	 DWORD PTR [edi+1344], eax
  00074	85 c0		 test	 eax, eax
  00076	75 07		 jne	 SHORT $LN3@SetPattern

; 98   : 			OnRadioMma();

  00078	e8 00 00 00 00	 call	 ?OnRadioMma@CDlgPatternEnvSetup@@IAEXXZ ; CDlgPatternEnvSetup::OnRadioMma
  0007d	eb 05		 jmp	 SHORT $LN4@SetPattern
$LN3@SetPattern:

; 99   : 		else
; 100  : 			OnRadioCandle();

  0007f	e8 00 00 00 00	 call	 ?OnRadioCandle@CDlgPatternEnvSetup@@IAEXXZ ; CDlgPatternEnvSetup::OnRadioCandle
$LN4@SetPattern:

; 101  : 
; 102  : 		//  
; 103  : 		strTemp.Format("%d", m_pPatternEnvData->m_nMAPeriod);

  00084	8b 87 b8 00 00
	00		 mov	 eax, DWORD PTR [edi+184]
  0008a	8b 35 00 00 00
	00		 mov	 esi, DWORD PTR __imp_?Format@?$CStringT@DV?$StrTraitMFC_DLL@DV?$ChTraitsCRT@D@ATL@@@@@ATL@@QAAXPBDZZ
  00090	ff 70 0c	 push	 DWORD PTR [eax+12]
  00093	8d 45 f0	 lea	 eax, DWORD PTR _strTemp$2[ebp]
  00096	68 00 00 00 00	 push	 OFFSET ??_C@_02DPKJAMEF@?$CFd@
  0009b	50		 push	 eax
  0009c	ff d6		 call	 esi
  0009e	83 c4 0c	 add	 esp, 12			; 0000000cH

; 104  : 		SetDlgItemText(IDC_EDIT_MMA, strTemp);

  000a1	8b cf		 mov	 ecx, edi
  000a3	ff 75 f0	 push	 DWORD PTR _strTemp$2[ebp]
  000a6	68 db 07 00 00	 push	 2011			; 000007dbH
  000ab	e8 00 00 00 00	 call	 ?SetDlgItemTextA@CWnd@@QAEXHPBD@Z ; CWnd::SetDlgItemTextA

; 105  : 
; 106  : 		//  
; 107  : 		strTemp.Format("%d", m_pPatternEnvData->m_nCandleCnt);

  000b0	8b 87 b8 00 00
	00		 mov	 eax, DWORD PTR [edi+184]
  000b6	ff 70 10	 push	 DWORD PTR [eax+16]
  000b9	8d 45 f0	 lea	 eax, DWORD PTR _strTemp$2[ebp]
  000bc	68 00 00 00 00	 push	 OFFSET ??_C@_02DPKJAMEF@?$CFd@
  000c1	50		 push	 eax
  000c2	ff d6		 call	 esi
  000c4	83 c4 0c	 add	 esp, 12			; 0000000cH

; 108  : 		SetDlgItemText(IDC_EDIT_CANDLE, strTemp);

  000c7	8b cf		 mov	 ecx, edi
  000c9	ff 75 f0	 push	 DWORD PTR _strTemp$2[ebp]
  000cc	68 dc 07 00 00	 push	 2012			; 000007dcH
  000d1	e8 00 00 00 00	 call	 ?SetDlgItemTextA@CWnd@@QAEXHPBD@Z ; CWnd::SetDlgItemTextA
; File C:\Program Files (x86)\Microsoft Visual Studio\2019\Community\VC\Tools\MSVC\14.29.30133\atlmfc\include\afxwin2.inl

; 630  : 	{ ASSERT(::IsWindow(m_hWnd)); ::SendMessage(m_hWnd, BM_SETCHECK, nCheck, 0); }

  000d6	8b 87 b8 00 00
	00		 mov	 eax, DWORD PTR [edi+184]
  000dc	6a 00		 push	 0
  000de	ff 70 1c	 push	 DWORD PTR [eax+28]
  000e1	68 f1 00 00 00	 push	 241			; 000000f1H
  000e6	ff b7 e0 04 00
	00		 push	 DWORD PTR [edi+1248]
  000ec	ff d3		 call	 ebx
  000ee	8b 87 b8 00 00
	00		 mov	 eax, DWORD PTR [edi+184]
  000f4	6a 00		 push	 0
  000f6	ff 70 20	 push	 DWORD PTR [eax+32]
  000f9	68 f1 00 00 00	 push	 241			; 000000f1H
  000fe	ff b7 60 02 00
	00		 push	 DWORD PTR [edi+608]
  00104	ff d3		 call	 ebx
  00106	8b 87 b8 00 00
	00		 mov	 eax, DWORD PTR [edi+184]
  0010c	6a 00		 push	 0
  0010e	ff 70 24	 push	 DWORD PTR [eax+36]
  00111	68 f1 00 00 00	 push	 241			; 000000f1H
  00116	ff b7 60 04 00
	00		 push	 DWORD PTR [edi+1120]
  0011c	ff d3		 call	 ebx
  0011e	8b 87 b8 00 00
	00		 mov	 eax, DWORD PTR [edi+184]
  00124	6a 00		 push	 0
  00126	ff 70 28	 push	 DWORD PTR [eax+40]
  00129	68 f1 00 00 00	 push	 241			; 000000f1H
  0012e	ff b7 60 03 00
	00		 push	 DWORD PTR [edi+864]
  00134	ff d3		 call	 ebx
  00136	8b 87 b8 00 00
	00		 mov	 eax, DWORD PTR [edi+184]
  0013c	6a 00		 push	 0
  0013e	ff 70 2c	 push	 DWORD PTR [eax+44]
  00141	68 f1 00 00 00	 push	 241			; 000000f1H
  00146	ff b7 e0 03 00
	00		 push	 DWORD PTR [edi+992]
  0014c	ff d3		 call	 ebx
  0014e	8b 87 b8 00 00
	00		 mov	 eax, DWORD PTR [edi+184]
  00154	6a 00		 push	 0
  00156	ff 70 30	 push	 DWORD PTR [eax+48]
  00159	68 f1 00 00 00	 push	 241			; 000000f1H
  0015e	ff b7 e0 02 00
	00		 push	 DWORD PTR [edi+736]
  00164	ff d3		 call	 ebx
; File D:\git\src\IBK\IBK_DRFN\ProjSrc\SrcChartEx\ChartAddIn\ChartPatternAddIn\DlgPatternEnvSetup.cpp

; 125  : 		strTemp.Format("%.1f", m_pPatternEnvData->m_dHLPtAllowalbeError);

  00166	8b 87 b8 00 00
	00		 mov	 eax, DWORD PTR [edi+184]
  0016c	83 ec 08	 sub	 esp, 8
  0016f	f2 0f 10 40 38	 movsd	 xmm0, QWORD PTR [eax+56]
  00174	8d 45 f0	 lea	 eax, DWORD PTR _strTemp$2[ebp]
  00177	f2 0f 11 04 24	 movsd	 QWORD PTR [esp], xmm0
  0017c	68 00 00 00 00	 push	 OFFSET ??_C@_04GGBPDDBN@?$CF?41f@
  00181	50		 push	 eax
  00182	ff d6		 call	 esi
  00184	83 c4 10	 add	 esp, 16			; 00000010H

; 126  : 		m_edtHLPtAllowable.SetWindowText(strTemp);

  00187	8d 8f c0 01 00
	00		 lea	 ecx, DWORD PTR [edi+448]
  0018d	ff 75 f0	 push	 DWORD PTR _strTemp$2[ebp]
  00190	e8 00 00 00 00	 call	 ?SetWindowTextA@CWnd@@QAEXPBD@Z ; CWnd::SetWindowTextA

; 127  : 		
; 128  : 		//  %(    )
; 129  : 		strTemp.Format("%.1f", m_pPatternEnvData->m_dNextPtAllowableError);

  00195	8b 87 b8 00 00
	00		 mov	 eax, DWORD PTR [edi+184]
  0019b	83 ec 08	 sub	 esp, 8
  0019e	f2 0f 10 40 40	 movsd	 xmm0, QWORD PTR [eax+64]
  001a3	8d 45 f0	 lea	 eax, DWORD PTR _strTemp$2[ebp]
  001a6	f2 0f 11 04 24	 movsd	 QWORD PTR [esp], xmm0
  001ab	68 00 00 00 00	 push	 OFFSET ??_C@_04GGBPDDBN@?$CF?41f@
  001b0	50		 push	 eax
  001b1	ff d6		 call	 esi
  001b3	83 c4 10	 add	 esp, 16			; 00000010H

; 130  : 		m_edtNextPtAllowable.SetWindowText(strTemp);

  001b6	ff 75 f0	 push	 DWORD PTR _strTemp$2[ebp]
  001b9	8d 8f 40 01 00
	00		 lea	 ecx, DWORD PTR [edi+320]
  001bf	e8 00 00 00 00	 call	 ?SetWindowTextA@CWnd@@QAEXPBD@Z ; CWnd::SetWindowTextA

; 131  : 
; 132  : 
; 133  : 		UpdateData(FALSE);

  001c4	6a 00		 push	 0
  001c6	8b cf		 mov	 ecx, edi
  001c8	e8 00 00 00 00	 call	 ?UpdateData@CWnd@@QAEHH@Z ; CWnd::UpdateData

; 134  : 	}

  001cd	8d 4d f0	 lea	 ecx, DWORD PTR _strTemp$2[ebp]
  001d0	ff 15 00 00 00
	00		 call	 DWORD PTR __imp_??1?$CStringT@DV?$StrTraitMFC_DLL@DV?$ChTraitsCRT@D@ATL@@@@@ATL@@QAE@XZ
$LN2@SetPattern:

; 135  : }

  001d6	8b 4d f4	 mov	 ecx, DWORD PTR __$EHRec$[ebp]
  001d9	64 89 0d 00 00
	00 00		 mov	 DWORD PTR fs:0, ecx
  001e0	59		 pop	 ecx
  001e1	5f		 pop	 edi
  001e2	5e		 pop	 esi
  001e3	5b		 pop	 ebx
  001e4	8b e5		 mov	 esp, ebp
  001e6	5d		 pop	 ebp
  001e7	c3		 ret	 0
_TEXT	ENDS
;	COMDAT text$x
text$x	SEGMENT
__unwindfunclet$?SetPatternEnvDataToControl@CDlgPatternEnvSetup@@QAEXXZ$0:
  00000	8d 4d f0	 lea	 ecx, DWORD PTR _strTemp$2[ebp]
  00003	ff 25 00 00 00
	00		 jmp	 DWORD PTR __imp_??1?$CStringT@DV?$StrTraitMFC_DLL@DV?$ChTraitsCRT@D@ATL@@@@@ATL@@QAE@XZ
  00009	cc		 int	 3
  0000a	cc		 int	 3
  0000b	cc		 int	 3
  0000c	cc		 int	 3
  0000d	cc		 int	 3
__ehhandler$?SetPatternEnvDataToControl@CDlgPatternEnvSetup@@QAEXXZ:
  0000e	90		 npad	 1
  0000f	90		 npad	 1
  00010	8b 54 24 08	 mov	 edx, DWORD PTR [esp+8]
  00014	8d 42 0c	 lea	 eax, DWORD PTR [edx+12]
  00017	8b 4a ec	 mov	 ecx, DWORD PTR [edx-20]
  0001a	33 c8		 xor	 ecx, eax
  0001c	e8 00 00 00 00	 call	 @__security_check_cookie@4
  00021	b8 00 00 00 00	 mov	 eax, OFFSET __ehfuncinfo$?SetPatternEnvDataToControl@CDlgPatternEnvSetup@@QAEXXZ
  00026	e9 00 00 00 00	 jmp	 ___CxxFrameHandler3
text$x	ENDS
?SetPatternEnvDataToControl@CDlgPatternEnvSetup@@QAEXXZ ENDP ; CDlgPatternEnvSetup::SetPatternEnvDataToControl
; Function compile flags: /Ogtp
; File D:\git\src\IBK\IBK_DRFN\ProjSrc\SrcChartEx\ChartAddIn\ChartPatternAddIn\DlgPatternEnvSetup.cpp
;	COMDAT ?SetPatternEnvData@CDlgPatternEnvSetup@@QAEXPAVCPatternEnvData@@@Z
_TEXT	SEGMENT
_pPatternEnvData$ = 8					; size = 4
?SetPatternEnvData@CDlgPatternEnvSetup@@QAEXPAVCPatternEnvData@@@Z PROC ; CDlgPatternEnvSetup::SetPatternEnvData, COMDAT
; _this$ = ecx

; 79   : {

  00000	55		 push	 ebp
  00001	8b ec		 mov	 ebp, esp

; 80   : 	if ( pPatternEnvData)

  00003	8b 45 08	 mov	 eax, DWORD PTR _pPatternEnvData$[ebp]
  00006	85 c0		 test	 eax, eax
  00008	74 06		 je	 SHORT $LN2@SetPattern

; 81   : 	{
; 82   : 		m_pPatternEnvData = pPatternEnvData;

  0000a	89 81 b8 00 00
	00		 mov	 DWORD PTR [ecx+184], eax
$LN2@SetPattern:

; 83   : 	}
; 84   : }

  00010	5d		 pop	 ebp
  00011	c2 04 00	 ret	 4
?SetPatternEnvData@CDlgPatternEnvSetup@@QAEXPAVCPatternEnvData@@@Z ENDP ; CDlgPatternEnvSetup::SetPatternEnvData
_TEXT	ENDS
; Function compile flags: /Ogtp
; File D:\git\src\IBK\IBK_DRFN\ProjSrc\SrcChartEx\ChartAddIn\ChartPatternAddIn\DlgPatternEnvSetup.cpp
; File C:\Program Files (x86)\Microsoft Visual Studio\2019\Community\VC\Tools\MSVC\14.29.30133\atlmfc\include\afxwin1.inl
; File D:\git\src\IBK\IBK_DRFN\ProjSrc\SrcChartEx\ChartAddIn\ChartPatternAddIn\DlgPatternEnvSetup.cpp
; File C:\Program Files (x86)\Microsoft Visual Studio\2019\Community\VC\Tools\MSVC\14.29.30133\atlmfc\include\afxwin1.inl
; File D:\git\src\IBK\IBK_DRFN\ProjSrc\SrcChartEx\ChartAddIn\ChartPatternAddIn\DlgPatternEnvSetup.cpp
; File C:\Program Files (x86)\Microsoft Visual Studio\2019\Community\VC\Tools\MSVC\14.29.30133\atlmfc\include\afxwin2.inl
; File D:\git\src\IBK\IBK_DRFN\ProjSrc\SrcChartEx\ChartAddIn\ChartPatternAddIn\DlgPatternEnvSetup.cpp
; File C:\Program Files (x86)\Microsoft Visual Studio\2019\Community\VC\Tools\MSVC\14.29.30133\atlmfc\include\afxwin2.inl
; File D:\git\src\IBK\IBK_DRFN\ProjSrc\SrcChartEx\ChartAddIn\ChartPatternAddIn\DlgPatternEnvSetup.cpp
; File C:\Program Files (x86)\Microsoft Visual Studio\2019\Community\VC\Tools\MSVC\14.29.30133\atlmfc\include\afxwin2.inl
; File D:\git\src\IBK\IBK_DRFN\ProjSrc\SrcChartEx\ChartAddIn\ChartPatternAddIn\DlgPatternEnvSetup.cpp
; File C:\Program Files (x86)\Microsoft Visual Studio\2019\Community\VC\Tools\MSVC\14.29.30133\atlmfc\include\afxwin2.inl
; File D:\git\src\IBK\IBK_DRFN\ProjSrc\SrcChartEx\ChartAddIn\ChartPatternAddIn\DlgPatternEnvSetup.cpp
; File C:\Program Files (x86)\Microsoft Visual Studio\2019\Community\VC\Tools\MSVC\14.29.30133\atlmfc\include\afxwin2.inl
; File D:\git\src\IBK\IBK_DRFN\ProjSrc\SrcChartEx\ChartAddIn\ChartPatternAddIn\DlgPatternEnvSetup.cpp
; File C:\Program Files (x86)\Microsoft Visual Studio\2019\Community\VC\Tools\MSVC\14.29.30133\atlmfc\include\afxwin2.inl
; File D:\git\src\IBK\IBK_DRFN\ProjSrc\SrcChartEx\ChartAddIn\ChartPatternAddIn\DlgPatternEnvSetup.cpp
; File C:\Program Files (x86)\Microsoft Visual Studio\2019\Community\VC\Tools\MSVC\14.29.30133\atlmfc\include\afxwin2.inl
; File D:\git\src\IBK\IBK_DRFN\ProjSrc\SrcChartEx\ChartAddIn\ChartPatternAddIn\DlgPatternEnvSetup.cpp
; File C:\Program Files (x86)\Microsoft Visual Studio\2019\Community\VC\Tools\MSVC\14.29.30133\atlmfc\include\afxwin2.inl
; File D:\git\src\IBK\IBK_DRFN\ProjSrc\SrcChartEx\ChartAddIn\ChartPatternAddIn\DlgPatternEnvSetup.cpp
; File C:\Program Files (x86)\Microsoft Visual Studio\2019\Community\VC\Tools\MSVC\14.29.30133\atlmfc\include\afxwin2.inl
; File D:\git\src\IBK\IBK_DRFN\ProjSrc\SrcChartEx\ChartAddIn\ChartPatternAddIn\DlgPatternEnvSetup.cpp
; File C:\Program Files (x86)\Microsoft Visual Studio\2019\Community\VC\Tools\MSVC\14.29.30133\atlmfc\include\afxwin2.inl
; File D:\git\src\IBK\IBK_DRFN\ProjSrc\SrcChartEx\ChartAddIn\ChartPatternAddIn\DlgPatternEnvSetup.cpp
; File C:\Program Files (x86)\Microsoft Visual Studio\2019\Community\VC\Tools\MSVC\14.29.30133\atlmfc\include\afxwin2.inl
; File D:\git\src\IBK\IBK_DRFN\ProjSrc\SrcChartEx\ChartAddIn\ChartPatternAddIn\DlgPatternEnvSetup.cpp
; File C:\Program Files (x86)\Microsoft Visual Studio\2019\Community\VC\Tools\MSVC\14.29.30133\atlmfc\include\afxwin2.inl
; File D:\git\src\IBK\IBK_DRFN\ProjSrc\SrcChartEx\ChartAddIn\ChartPatternAddIn\DlgPatternEnvSetup.cpp
; File C:\Program Files (x86)\Microsoft Visual Studio\2019\Community\VC\Tools\MSVC\14.29.30133\atlmfc\include\afxwin2.inl
; File D:\git\src\IBK\IBK_DRFN\ProjSrc\SrcChartEx\ChartAddIn\ChartPatternAddIn\DlgPatternEnvSetup.cpp
; File C:\Program Files (x86)\Microsoft Visual Studio\2019\Community\VC\Tools\MSVC\14.29.30133\atlmfc\include\afxwin2.inl
; File D:\git\src\IBK\IBK_DRFN\ProjSrc\SrcChartEx\ChartAddIn\ChartPatternAddIn\DlgPatternEnvSetup.cpp
; File C:\Program Files (x86)\Microsoft Visual Studio\2019\Community\VC\Tools\MSVC\14.29.30133\atlmfc\include\afxwin2.inl
; File D:\git\src\IBK\IBK_DRFN\ProjSrc\SrcChartEx\ChartAddIn\ChartPatternAddIn\DlgPatternEnvSetup.cpp
; File C:\Program Files (x86)\Microsoft Visual Studio\2019\Community\VC\Tools\MSVC\14.29.30133\atlmfc\include\afxwin2.inl
; File D:\git\src\IBK\IBK_DRFN\ProjSrc\SrcChartEx\ChartAddIn\ChartPatternAddIn\DlgPatternEnvSetup.cpp
; File C:\Program Files (x86)\Microsoft Visual Studio\2019\Community\VC\Tools\MSVC\14.29.30133\atlmfc\include\afxwin2.inl
; File D:\git\src\IBK\IBK_DRFN\ProjSrc\SrcChartEx\ChartAddIn\ChartPatternAddIn\DlgPatternEnvSetup.cpp
; File C:\Program Files (x86)\Microsoft Visual Studio\2019\Community\VC\Tools\MSVC\14.29.30133\atlmfc\include\afxwin1.inl
; File D:\git\src\IBK\IBK_DRFN\ProjSrc\SrcChartEx\ChartAddIn\ChartPatternAddIn\DlgPatternEnvSetup.cpp
; File C:\Program Files (x86)\Microsoft Visual Studio\2019\Community\VC\Tools\MSVC\14.29.30133\atlmfc\include\afxwin1.inl
; File D:\git\src\IBK\IBK_DRFN\ProjSrc\SrcChartEx\ChartAddIn\ChartPatternAddIn\DlgPatternEnvSetup.cpp
;	COMDAT ??0CDlgPatternEnvSetup@@QAE@PAVCWnd@@@Z
_TEXT	SEGMENT
_this$ = -16						; size = 4
__$EHRec$ = -12						; size = 12
_this$ = 8						; size = 4
_this$ = 8						; size = 4
_this$ = 8						; size = 4
_this$ = 8						; size = 4
_this$ = 8						; size = 4
_this$ = 8						; size = 4
_this$ = 8						; size = 4
_this$ = 8						; size = 4
_this$ = 8						; size = 4
_pParent$ = 8						; size = 4
??0CDlgPatternEnvSetup@@QAE@PAVCWnd@@@Z PROC		; CDlgPatternEnvSetup::CDlgPatternEnvSetup, COMDAT
; _this$ = ecx

; 23   : {

  00000	55		 push	 ebp
  00001	8b ec		 mov	 ebp, esp
  00003	6a ff		 push	 -1
  00005	68 00 00 00 00	 push	 __ehhandler$??0CDlgPatternEnvSetup@@QAE@PAVCWnd@@@Z
  0000a	64 a1 00 00 00
	00		 mov	 eax, DWORD PTR fs:0
  00010	50		 push	 eax
  00011	51		 push	 ecx
  00012	53		 push	 ebx
  00013	56		 push	 esi
  00014	57		 push	 edi
  00015	a1 00 00 00 00	 mov	 eax, DWORD PTR ___security_cookie
  0001a	33 c5		 xor	 eax, ebp
  0001c	50		 push	 eax
  0001d	8d 45 f4	 lea	 eax, DWORD PTR __$EHRec$[ebp]
  00020	64 a3 00 00 00
	00		 mov	 DWORD PTR fs:0, eax
  00026	8b f1		 mov	 esi, ecx
  00028	89 75 f0	 mov	 DWORD PTR _this$[ebp], esi

; 22   : 	: CDialog(CDlgPatternEnvSetup::IDD, pParent)

  0002b	ff 75 08	 push	 DWORD PTR _pParent$[ebp]
  0002e	68 d0 07 00 00	 push	 2000			; 000007d0H
  00033	e8 00 00 00 00	 call	 ??0CDialog@@QAE@IPAVCWnd@@@Z ; CDialog::CDialog

; 23   : {

  00038	8d be a8 00 00
	00		 lea	 edi, DWORD PTR [esi+168]
  0003e	c7 06 00 00 00
	00		 mov	 DWORD PTR [esi], OFFSET ??_7CDlgPatternEnvSetup@@6B@
  00044	c7 45 fc 00 00
	00 00		 mov	 DWORD PTR __$EHRec$[ebp+8], 0
; File C:\Program Files (x86)\Microsoft Visual Studio\2019\Community\VC\Tools\MSVC\14.29.30133\atlmfc\include\afxwin1.inl

; 70   : 	{ m_hObject = NULL; }

  0004b	c7 47 04 00 00
	00 00		 mov	 DWORD PTR [edi+4], 0

; 128  : 	{ }

  00052	c7 07 00 00 00
	00		 mov	 DWORD PTR [edi], OFFSET ??_7CBrush@@6B@
; File D:\git\src\IBK\IBK_DRFN\ProjSrc\SrcChartEx\ChartAddIn\ChartPatternAddIn\DlgPatternEnvSetup.cpp

; 23   : {

  00058	8d 9e b0 00 00
	00		 lea	 ebx, DWORD PTR [esi+176]
; File C:\Program Files (x86)\Microsoft Visual Studio\2019\Community\VC\Tools\MSVC\14.29.30133\atlmfc\include\afxwin1.inl

; 70   : 	{ m_hObject = NULL; }

  0005e	c7 43 04 00 00
	00 00		 mov	 DWORD PTR [ebx+4], 0

; 128  : 	{ }

  00065	c7 03 00 00 00
	00		 mov	 DWORD PTR [ebx], OFFSET ??_7CBrush@@6B@
; File D:\git\src\IBK\IBK_DRFN\ProjSrc\SrcChartEx\ChartAddIn\ChartPatternAddIn\DlgPatternEnvSetup.cpp

; 23   : {

  0006b	81 c6 c0 00 00
	00		 add	 esi, 192		; 000000c0H
  00071	c6 45 fc 02	 mov	 BYTE PTR __$EHRec$[ebp+8], 2
; File C:\Program Files (x86)\Microsoft Visual Studio\2019\Community\VC\Tools\MSVC\14.29.30133\atlmfc\include\afxwin2.inl

; 622  : 	{ }

  00075	8b ce		 mov	 ecx, esi
; File D:\git\src\IBK\IBK_DRFN\ProjSrc\SrcChartEx\ChartAddIn\ChartPatternAddIn\DlgPatternEnvSetup.cpp

; 23   : {

  00077	89 75 08	 mov	 DWORD PTR _this$[ebp], esi
; File C:\Program Files (x86)\Microsoft Visual Studio\2019\Community\VC\Tools\MSVC\14.29.30133\atlmfc\include\afxwin2.inl

; 622  : 	{ }

  0007a	e8 00 00 00 00	 call	 ??0CWnd@@QAE@XZ		; CWnd::CWnd
  0007f	c7 06 00 00 00
	00		 mov	 DWORD PTR [esi], OFFSET ??_7CButton@@6B@
; File D:\git\src\IBK\IBK_DRFN\ProjSrc\SrcChartEx\ChartAddIn\ChartPatternAddIn\DlgPatternEnvSetup.cpp

; 23   : {

  00085	8b 75 f0	 mov	 esi, DWORD PTR _this$[ebp]
  00088	81 c6 40 01 00
	00		 add	 esi, 320		; 00000140H
  0008e	c6 45 fc 03	 mov	 BYTE PTR __$EHRec$[ebp+8], 3
; File C:\Program Files (x86)\Microsoft Visual Studio\2019\Community\VC\Tools\MSVC\14.29.30133\atlmfc\include\afxwin2.inl

; 851  : 	{ }

  00092	8b ce		 mov	 ecx, esi
; File D:\git\src\IBK\IBK_DRFN\ProjSrc\SrcChartEx\ChartAddIn\ChartPatternAddIn\DlgPatternEnvSetup.cpp

; 23   : {

  00094	89 75 08	 mov	 DWORD PTR _this$[ebp], esi
; File C:\Program Files (x86)\Microsoft Visual Studio\2019\Community\VC\Tools\MSVC\14.29.30133\atlmfc\include\afxwin2.inl

; 851  : 	{ }

  00097	e8 00 00 00 00	 call	 ??0CWnd@@QAE@XZ		; CWnd::CWnd
  0009c	c7 06 00 00 00
	00		 mov	 DWORD PTR [esi], OFFSET ??_7CEdit@@6B@
; File D:\git\src\IBK\IBK_DRFN\ProjSrc\SrcChartEx\ChartAddIn\ChartPatternAddIn\DlgPatternEnvSetup.cpp

; 23   : {

  000a2	8b 75 f0	 mov	 esi, DWORD PTR _this$[ebp]
  000a5	81 c6 c0 01 00
	00		 add	 esi, 448		; 000001c0H
  000ab	c6 45 fc 04	 mov	 BYTE PTR __$EHRec$[ebp+8], 4
; File C:\Program Files (x86)\Microsoft Visual Studio\2019\Community\VC\Tools\MSVC\14.29.30133\atlmfc\include\afxwin2.inl

; 851  : 	{ }

  000af	8b ce		 mov	 ecx, esi
; File D:\git\src\IBK\IBK_DRFN\ProjSrc\SrcChartEx\ChartAddIn\ChartPatternAddIn\DlgPatternEnvSetup.cpp

; 23   : {

  000b1	89 75 08	 mov	 DWORD PTR _this$[ebp], esi
; File C:\Program Files (x86)\Microsoft Visual Studio\2019\Community\VC\Tools\MSVC\14.29.30133\atlmfc\include\afxwin2.inl

; 851  : 	{ }

  000b4	e8 00 00 00 00	 call	 ??0CWnd@@QAE@XZ		; CWnd::CWnd
  000b9	c7 06 00 00 00
	00		 mov	 DWORD PTR [esi], OFFSET ??_7CEdit@@6B@
; File D:\git\src\IBK\IBK_DRFN\ProjSrc\SrcChartEx\ChartAddIn\ChartPatternAddIn\DlgPatternEnvSetup.cpp

; 23   : {

  000bf	8b 75 f0	 mov	 esi, DWORD PTR _this$[ebp]
  000c2	81 c6 40 02 00
	00		 add	 esi, 576		; 00000240H
  000c8	c6 45 fc 05	 mov	 BYTE PTR __$EHRec$[ebp+8], 5
; File C:\Program Files (x86)\Microsoft Visual Studio\2019\Community\VC\Tools\MSVC\14.29.30133\atlmfc\include\afxwin2.inl

; 622  : 	{ }

  000cc	8b ce		 mov	 ecx, esi
; File D:\git\src\IBK\IBK_DRFN\ProjSrc\SrcChartEx\ChartAddIn\ChartPatternAddIn\DlgPatternEnvSetup.cpp

; 23   : {

  000ce	89 75 08	 mov	 DWORD PTR _this$[ebp], esi
; File C:\Program Files (x86)\Microsoft Visual Studio\2019\Community\VC\Tools\MSVC\14.29.30133\atlmfc\include\afxwin2.inl

; 622  : 	{ }

  000d1	e8 00 00 00 00	 call	 ??0CWnd@@QAE@XZ		; CWnd::CWnd
  000d6	c7 06 00 00 00
	00		 mov	 DWORD PTR [esi], OFFSET ??_7CButton@@6B@
; File D:\git\src\IBK\IBK_DRFN\ProjSrc\SrcChartEx\ChartAddIn\ChartPatternAddIn\DlgPatternEnvSetup.cpp

; 23   : {

  000dc	8b 75 f0	 mov	 esi, DWORD PTR _this$[ebp]
  000df	81 c6 c0 02 00
	00		 add	 esi, 704		; 000002c0H
  000e5	c6 45 fc 06	 mov	 BYTE PTR __$EHRec$[ebp+8], 6
; File C:\Program Files (x86)\Microsoft Visual Studio\2019\Community\VC\Tools\MSVC\14.29.30133\atlmfc\include\afxwin2.inl

; 622  : 	{ }

  000e9	8b ce		 mov	 ecx, esi
; File D:\git\src\IBK\IBK_DRFN\ProjSrc\SrcChartEx\ChartAddIn\ChartPatternAddIn\DlgPatternEnvSetup.cpp

; 23   : {

  000eb	89 75 08	 mov	 DWORD PTR _this$[ebp], esi
; File C:\Program Files (x86)\Microsoft Visual Studio\2019\Community\VC\Tools\MSVC\14.29.30133\atlmfc\include\afxwin2.inl

; 622  : 	{ }

  000ee	e8 00 00 00 00	 call	 ??0CWnd@@QAE@XZ		; CWnd::CWnd
  000f3	c7 06 00 00 00
	00		 mov	 DWORD PTR [esi], OFFSET ??_7CButton@@6B@
; File D:\git\src\IBK\IBK_DRFN\ProjSrc\SrcChartEx\ChartAddIn\ChartPatternAddIn\DlgPatternEnvSetup.cpp

; 23   : {

  000f9	8b 75 f0	 mov	 esi, DWORD PTR _this$[ebp]
  000fc	81 c6 40 03 00
	00		 add	 esi, 832		; 00000340H
  00102	c6 45 fc 07	 mov	 BYTE PTR __$EHRec$[ebp+8], 7
; File C:\Program Files (x86)\Microsoft Visual Studio\2019\Community\VC\Tools\MSVC\14.29.30133\atlmfc\include\afxwin2.inl

; 622  : 	{ }

  00106	8b ce		 mov	 ecx, esi
; File D:\git\src\IBK\IBK_DRFN\ProjSrc\SrcChartEx\ChartAddIn\ChartPatternAddIn\DlgPatternEnvSetup.cpp

; 23   : {

  00108	89 75 08	 mov	 DWORD PTR _this$[ebp], esi
; File C:\Program Files (x86)\Microsoft Visual Studio\2019\Community\VC\Tools\MSVC\14.29.30133\atlmfc\include\afxwin2.inl

; 622  : 	{ }

  0010b	e8 00 00 00 00	 call	 ??0CWnd@@QAE@XZ		; CWnd::CWnd
  00110	c7 06 00 00 00
	00		 mov	 DWORD PTR [esi], OFFSET ??_7CButton@@6B@
; File D:\git\src\IBK\IBK_DRFN\ProjSrc\SrcChartEx\ChartAddIn\ChartPatternAddIn\DlgPatternEnvSetup.cpp

; 23   : {

  00116	8b 75 f0	 mov	 esi, DWORD PTR _this$[ebp]
  00119	81 c6 c0 03 00
	00		 add	 esi, 960		; 000003c0H
  0011f	c6 45 fc 08	 mov	 BYTE PTR __$EHRec$[ebp+8], 8
; File C:\Program Files (x86)\Microsoft Visual Studio\2019\Community\VC\Tools\MSVC\14.29.30133\atlmfc\include\afxwin2.inl

; 622  : 	{ }

  00123	8b ce		 mov	 ecx, esi
; File D:\git\src\IBK\IBK_DRFN\ProjSrc\SrcChartEx\ChartAddIn\ChartPatternAddIn\DlgPatternEnvSetup.cpp

; 23   : {

  00125	89 75 08	 mov	 DWORD PTR _this$[ebp], esi
; File C:\Program Files (x86)\Microsoft Visual Studio\2019\Community\VC\Tools\MSVC\14.29.30133\atlmfc\include\afxwin2.inl

; 622  : 	{ }

  00128	e8 00 00 00 00	 call	 ??0CWnd@@QAE@XZ		; CWnd::CWnd
  0012d	c7 06 00 00 00
	00		 mov	 DWORD PTR [esi], OFFSET ??_7CButton@@6B@
; File D:\git\src\IBK\IBK_DRFN\ProjSrc\SrcChartEx\ChartAddIn\ChartPatternAddIn\DlgPatternEnvSetup.cpp

; 23   : {

  00133	8b 75 f0	 mov	 esi, DWORD PTR _this$[ebp]
  00136	81 c6 40 04 00
	00		 add	 esi, 1088		; 00000440H
  0013c	c6 45 fc 09	 mov	 BYTE PTR __$EHRec$[ebp+8], 9
; File C:\Program Files (x86)\Microsoft Visual Studio\2019\Community\VC\Tools\MSVC\14.29.30133\atlmfc\include\afxwin2.inl

; 622  : 	{ }

  00140	8b ce		 mov	 ecx, esi
; File D:\git\src\IBK\IBK_DRFN\ProjSrc\SrcChartEx\ChartAddIn\ChartPatternAddIn\DlgPatternEnvSetup.cpp

; 23   : {

  00142	89 75 08	 mov	 DWORD PTR _this$[ebp], esi
; File C:\Program Files (x86)\Microsoft Visual Studio\2019\Community\VC\Tools\MSVC\14.29.30133\atlmfc\include\afxwin2.inl

; 622  : 	{ }

  00145	e8 00 00 00 00	 call	 ??0CWnd@@QAE@XZ		; CWnd::CWnd
  0014a	c7 06 00 00 00
	00		 mov	 DWORD PTR [esi], OFFSET ??_7CButton@@6B@
; File D:\git\src\IBK\IBK_DRFN\ProjSrc\SrcChartEx\ChartAddIn\ChartPatternAddIn\DlgPatternEnvSetup.cpp

; 23   : {

  00150	8b 75 f0	 mov	 esi, DWORD PTR _this$[ebp]
  00153	81 c6 c0 04 00
	00		 add	 esi, 1216		; 000004c0H
  00159	c6 45 fc 0a	 mov	 BYTE PTR __$EHRec$[ebp+8], 10 ; 0000000aH
  0015d	89 75 08	 mov	 DWORD PTR _this$[ebp], esi
; File C:\Program Files (x86)\Microsoft Visual Studio\2019\Community\VC\Tools\MSVC\14.29.30133\atlmfc\include\afxwin2.inl

; 622  : 	{ }

  00160	8b ce		 mov	 ecx, esi
  00162	e8 00 00 00 00	 call	 ??0CWnd@@QAE@XZ		; CWnd::CWnd
  00167	c7 06 00 00 00
	00		 mov	 DWORD PTR [esi], OFFSET ??_7CButton@@6B@
; File D:\git\src\IBK\IBK_DRFN\ProjSrc\SrcChartEx\ChartAddIn\ChartPatternAddIn\DlgPatternEnvSetup.cpp

; 25   : 	m_radiovalMMA = -1;

  0016d	8b 45 f0	 mov	 eax, DWORD PTR _this$[ebp]
; File C:\Program Files (x86)\Microsoft Visual Studio\2019\Community\VC\Tools\MSVC\14.29.30133\atlmfc\include\afxwin1.inl

; 132  : 	{ return Attach(::CreateSolidBrush(crColor)); }

  00170	8b 35 00 00 00
	00		 mov	 esi, DWORD PTR __imp__CreateSolidBrush@4
  00176	68 dd e0 e9 00	 push	 15327453		; 00e9e0ddH
; File D:\git\src\IBK\IBK_DRFN\ProjSrc\SrcChartEx\ChartAddIn\ChartPatternAddIn\DlgPatternEnvSetup.cpp

; 23   : {

  0017b	c6 45 fc 0b	 mov	 BYTE PTR __$EHRec$[ebp+8], 11 ; 0000000bH

; 25   : 	m_radiovalMMA = -1;

  0017f	c7 80 40 05 00
	00 ff ff ff ff	 mov	 DWORD PTR [eax+1344], -1

; 26   : 	//}}AFX_DATA_INIT
; 27   : 
; 28   : 	m_pPatternEnvData = NULL;

  00189	c7 80 b8 00 00
	00 00 00 00 00	 mov	 DWORD PTR [eax+184], 0
; File C:\Program Files (x86)\Microsoft Visual Studio\2019\Community\VC\Tools\MSVC\14.29.30133\atlmfc\include\afxwin1.inl

; 132  : 	{ return Attach(::CreateSolidBrush(crColor)); }

  00193	ff d6		 call	 esi
  00195	50		 push	 eax
  00196	8b cf		 mov	 ecx, edi
  00198	e8 00 00 00 00	 call	 ?Attach@CGdiObject@@QAEHPAX@Z ; CGdiObject::Attach
  0019d	68 ff ff ff 00	 push	 16777215		; 00ffffffH
  001a2	ff d6		 call	 esi
  001a4	50		 push	 eax
  001a5	8b cb		 mov	 ecx, ebx
  001a7	e8 00 00 00 00	 call	 ?Attach@CGdiObject@@QAEHPAX@Z ; CGdiObject::Attach
; File D:\git\src\IBK\IBK_DRFN\ProjSrc\SrcChartEx\ChartAddIn\ChartPatternAddIn\DlgPatternEnvSetup.cpp

; 33   : }

  001ac	8b 45 f0	 mov	 eax, DWORD PTR _this$[ebp]
  001af	8b 4d f4	 mov	 ecx, DWORD PTR __$EHRec$[ebp]
  001b2	64 89 0d 00 00
	00 00		 mov	 DWORD PTR fs:0, ecx
  001b9	59		 pop	 ecx
  001ba	5f		 pop	 edi
  001bb	5e		 pop	 esi
  001bc	5b		 pop	 ebx
  001bd	8b e5		 mov	 esp, ebp
  001bf	5d		 pop	 ebp
  001c0	c2 04 00	 ret	 4
_TEXT	ENDS
;	COMDAT text$x
text$x	SEGMENT
__unwindfunclet$??0CDlgPatternEnvSetup@@QAE@PAVCWnd@@@Z$0:
  00000	8b 4d f0	 mov	 ecx, DWORD PTR _this$[ebp]
  00003	e9 00 00 00 00	 jmp	 ??1CDialog@@UAE@XZ	; CDialog::~CDialog
__unwindfunclet$??0CDlgPatternEnvSetup@@QAE@PAVCWnd@@@Z$1:
  00008	8b 4d f0	 mov	 ecx, DWORD PTR _this$[ebp]
  0000b	81 c1 a8 00 00
	00		 add	 ecx, 168		; 000000a8H
  00011	e9 00 00 00 00	 jmp	 ??1CBrush@@UAE@XZ	; CBrush::~CBrush
__unwindfunclet$??0CDlgPatternEnvSetup@@QAE@PAVCWnd@@@Z$2:
  00016	8b 4d f0	 mov	 ecx, DWORD PTR _this$[ebp]
  00019	81 c1 b0 00 00
	00		 add	 ecx, 176		; 000000b0H
  0001f	e9 00 00 00 00	 jmp	 ??1CBrush@@UAE@XZ	; CBrush::~CBrush
__unwindfunclet$??0CDlgPatternEnvSetup@@QAE@PAVCWnd@@@Z$3:
  00024	8b 4d f0	 mov	 ecx, DWORD PTR _this$[ebp]
  00027	81 c1 c0 00 00
	00		 add	 ecx, 192		; 000000c0H
  0002d	e9 00 00 00 00	 jmp	 ??1CButton@@UAE@XZ	; CButton::~CButton
__unwindfunclet$??0CDlgPatternEnvSetup@@QAE@PAVCWnd@@@Z$4:
  00032	8b 4d f0	 mov	 ecx, DWORD PTR _this$[ebp]
  00035	81 c1 40 01 00
	00		 add	 ecx, 320		; 00000140H
  0003b	e9 00 00 00 00	 jmp	 ??1CEdit@@UAE@XZ	; CEdit::~CEdit
__unwindfunclet$??0CDlgPatternEnvSetup@@QAE@PAVCWnd@@@Z$5:
  00040	8b 4d f0	 mov	 ecx, DWORD PTR _this$[ebp]
  00043	81 c1 c0 01 00
	00		 add	 ecx, 448		; 000001c0H
  00049	e9 00 00 00 00	 jmp	 ??1CEdit@@UAE@XZ	; CEdit::~CEdit
__unwindfunclet$??0CDlgPatternEnvSetup@@QAE@PAVCWnd@@@Z$6:
  0004e	8b 4d f0	 mov	 ecx, DWORD PTR _this$[ebp]
  00051	81 c1 40 02 00
	00		 add	 ecx, 576		; 00000240H
  00057	e9 00 00 00 00	 jmp	 ??1CButton@@UAE@XZ	; CButton::~CButton
__unwindfunclet$??0CDlgPatternEnvSetup@@QAE@PAVCWnd@@@Z$7:
  0005c	8b 4d f0	 mov	 ecx, DWORD PTR _this$[ebp]
  0005f	81 c1 c0 02 00
	00		 add	 ecx, 704		; 000002c0H
  00065	e9 00 00 00 00	 jmp	 ??1CButton@@UAE@XZ	; CButton::~CButton
__unwindfunclet$??0CDlgPatternEnvSetup@@QAE@PAVCWnd@@@Z$8:
  0006a	8b 4d f0	 mov	 ecx, DWORD PTR _this$[ebp]
  0006d	81 c1 40 03 00
	00		 add	 ecx, 832		; 00000340H
  00073	e9 00 00 00 00	 jmp	 ??1CButton@@UAE@XZ	; CButton::~CButton
__unwindfunclet$??0CDlgPatternEnvSetup@@QAE@PAVCWnd@@@Z$9:
  00078	8b 4d f0	 mov	 ecx, DWORD PTR _this$[ebp]
  0007b	81 c1 c0 03 00
	00		 add	 ecx, 960		; 000003c0H
  00081	e9 00 00 00 00	 jmp	 ??1CButton@@UAE@XZ	; CButton::~CButton
__unwindfunclet$??0CDlgPatternEnvSetup@@QAE@PAVCWnd@@@Z$10:
  00086	8b 4d f0	 mov	 ecx, DWORD PTR _this$[ebp]
  00089	81 c1 40 04 00
	00		 add	 ecx, 1088		; 00000440H
  0008f	e9 00 00 00 00	 jmp	 ??1CButton@@UAE@XZ	; CButton::~CButton
__unwindfunclet$??0CDlgPatternEnvSetup@@QAE@PAVCWnd@@@Z$11:
  00094	8b 4d f0	 mov	 ecx, DWORD PTR _this$[ebp]
  00097	81 c1 c0 04 00
	00		 add	 ecx, 1216		; 000004c0H
  0009d	e9 00 00 00 00	 jmp	 ??1CButton@@UAE@XZ	; CButton::~CButton
  000a2	cc		 int	 3
  000a3	cc		 int	 3
  000a4	cc		 int	 3
  000a5	cc		 int	 3
  000a6	cc		 int	 3
__ehhandler$??0CDlgPatternEnvSetup@@QAE@PAVCWnd@@@Z:
  000a7	90		 npad	 1
  000a8	90		 npad	 1
  000a9	8b 54 24 08	 mov	 edx, DWORD PTR [esp+8]
  000ad	8d 42 0c	 lea	 eax, DWORD PTR [edx+12]
  000b0	8b 4a ec	 mov	 ecx, DWORD PTR [edx-20]
  000b3	33 c8		 xor	 ecx, eax
  000b5	e8 00 00 00 00	 call	 @__security_check_cookie@4
  000ba	b8 00 00 00 00	 mov	 eax, OFFSET __ehfuncinfo$??0CDlgPatternEnvSetup@@QAE@PAVCWnd@@@Z
  000bf	e9 00 00 00 00	 jmp	 ___CxxFrameHandler3
text$x	ENDS
??0CDlgPatternEnvSetup@@QAE@PAVCWnd@@@Z ENDP		; CDlgPatternEnvSetup::CDlgPatternEnvSetup
; Function compile flags: /Ogtp
; File C:\Program Files (x86)\Microsoft Visual Studio\2019\Community\VC\Tools\MSVC\14.29.30133\atlmfc\include\afx.inl
;	COMDAT ??_GCEdit@@UAEPAXI@Z
_TEXT	SEGMENT
___flags$ = 8						; size = 4
??_GCEdit@@UAEPAXI@Z PROC				; CEdit::`scalar deleting destructor', COMDAT
; _this$ = ecx
  00000	55		 push	 ebp
  00001	8b ec		 mov	 ebp, esp
  00003	56		 push	 esi
  00004	8b f1		 mov	 esi, ecx
  00006	e8 00 00 00 00	 call	 ??1CEdit@@UAE@XZ	; CEdit::~CEdit
  0000b	8b 45 08	 mov	 eax, DWORD PTR ___flags$[ebp]
  0000e	a8 01		 test	 al, 1
  00010	74 22		 je	 SHORT $LN9@scalar
  00012	a8 04		 test	 al, 4
  00014	75 10		 jne	 SHORT $LN3@scalar

; 112  : 	{ ::operator delete(p); }

  00016	56		 push	 esi
  00017	e8 00 00 00 00	 call	 ??3@YAXPAX@Z		; operator delete
  0001c	83 c4 04	 add	 esp, 4
  0001f	8b c6		 mov	 eax, esi
  00021	5e		 pop	 esi
  00022	5d		 pop	 ebp
  00023	c2 04 00	 ret	 4
$LN3@scalar:
  00026	68 80 00 00 00	 push	 128			; 00000080H
  0002b	56		 push	 esi
  0002c	e8 00 00 00 00	 call	 ?__global_delete@@YAXPAXI@Z ; __global_delete
  00031	83 c4 08	 add	 esp, 8
$LN9@scalar:
  00034	8b c6		 mov	 eax, esi
  00036	5e		 pop	 esi
  00037	5d		 pop	 ebp
  00038	c2 04 00	 ret	 4
??_GCEdit@@UAEPAXI@Z ENDP				; CEdit::`scalar deleting destructor'
_TEXT	ENDS
; Function compile flags: /Ogtp
; File C:\Program Files (x86)\Microsoft Visual Studio\2019\Community\VC\Tools\MSVC\14.29.30133\atlmfc\include\afx.inl
;	COMDAT ??_GCButton@@UAEPAXI@Z
_TEXT	SEGMENT
___flags$ = 8						; size = 4
??_GCButton@@UAEPAXI@Z PROC				; CButton::`scalar deleting destructor', COMDAT
; _this$ = ecx
  00000	55		 push	 ebp
  00001	8b ec		 mov	 ebp, esp
  00003	56		 push	 esi
  00004	8b f1		 mov	 esi, ecx
  00006	e8 00 00 00 00	 call	 ??1CButton@@UAE@XZ	; CButton::~CButton
  0000b	8b 45 08	 mov	 eax, DWORD PTR ___flags$[ebp]
  0000e	a8 01		 test	 al, 1
  00010	74 22		 je	 SHORT $LN9@scalar
  00012	a8 04		 test	 al, 4
  00014	75 10		 jne	 SHORT $LN3@scalar

; 112  : 	{ ::operator delete(p); }

  00016	56		 push	 esi
  00017	e8 00 00 00 00	 call	 ??3@YAXPAX@Z		; operator delete
  0001c	83 c4 04	 add	 esp, 4
  0001f	8b c6		 mov	 eax, esi
  00021	5e		 pop	 esi
  00022	5d		 pop	 ebp
  00023	c2 04 00	 ret	 4
$LN3@scalar:
  00026	68 80 00 00 00	 push	 128			; 00000080H
  0002b	56		 push	 esi
  0002c	e8 00 00 00 00	 call	 ?__global_delete@@YAXPAXI@Z ; __global_delete
  00031	83 c4 08	 add	 esp, 8
$LN9@scalar:
  00034	8b c6		 mov	 eax, esi
  00036	5e		 pop	 esi
  00037	5d		 pop	 ebp
  00038	c2 04 00	 ret	 4
??_GCButton@@UAEPAXI@Z ENDP				; CButton::`scalar deleting destructor'
_TEXT	ENDS
; Function compile flags: /Ogtp
; File C:\Program Files (x86)\Microsoft Visual Studio\2019\Community\VC\Tools\MSVC\14.29.30133\atlmfc\include\afxwin2.inl
;	COMDAT ?Create@CDialog@@UAEHIPAVCWnd@@@Z
_TEXT	SEGMENT
_nIDTemplate$ = 8					; size = 4
_pParentWnd$ = 12					; size = 4
?Create@CDialog@@UAEHIPAVCWnd@@@Z PROC			; CDialog::Create, COMDAT
; _this$ = ecx

; 585  : 	{ return CDialog::Create(ATL_MAKEINTRESOURCE(nIDTemplate), pParentWnd); }

  00000	55		 push	 ebp
  00001	8b ec		 mov	 ebp, esp
  00003	0f b7 45 08	 movzx	 eax, WORD PTR _nIDTemplate$[ebp]
  00007	89 45 08	 mov	 DWORD PTR _nIDTemplate$[ebp], eax
  0000a	5d		 pop	 ebp
  0000b	e9 00 00 00 00	 jmp	 ?Create@CDialog@@UAEHPBDPAVCWnd@@@Z ; CDialog::Create
?Create@CDialog@@UAEHIPAVCWnd@@@Z ENDP			; CDialog::Create
_TEXT	ENDS
; Function compile flags: /Ogtp
; File C:\Program Files (x86)\Microsoft Visual Studio\2019\Community\VC\Tools\MSVC\14.29.30133\atlmfc\include\afxwin2.inl
;	COMDAT ?EndModalState@CWnd@@UAEXXZ
_TEXT	SEGMENT
?EndModalState@CWnd@@UAEXXZ PROC			; CWnd::EndModalState, COMDAT
; _this$ = ecx

; 567  : 	{ ::EnableWindow(m_hWnd, TRUE); }

  00000	6a 01		 push	 1
  00002	ff 71 20	 push	 DWORD PTR [ecx+32]
  00005	ff 15 00 00 00
	00		 call	 DWORD PTR __imp__EnableWindow@8
  0000b	c3		 ret	 0
?EndModalState@CWnd@@UAEXXZ ENDP			; CWnd::EndModalState
_TEXT	ENDS
; Function compile flags: /Ogtp
; File C:\Program Files (x86)\Microsoft Visual Studio\2019\Community\VC\Tools\MSVC\14.29.30133\atlmfc\include\afxwin2.inl
;	COMDAT ?BeginModalState@CWnd@@UAEXXZ
_TEXT	SEGMENT
?BeginModalState@CWnd@@UAEXXZ PROC			; CWnd::BeginModalState, COMDAT
; _this$ = ecx

; 565  : 	{ ::EnableWindow(m_hWnd, FALSE); }

  00000	6a 00		 push	 0
  00002	ff 71 20	 push	 DWORD PTR [ecx+32]
  00005	ff 15 00 00 00
	00		 call	 DWORD PTR __imp__EnableWindow@8
  0000b	c3		 ret	 0
?BeginModalState@CWnd@@UAEXXZ ENDP			; CWnd::BeginModalState
_TEXT	ENDS
; Function compile flags: /Ogtp
; File C:\Program Files (x86)\Microsoft Visual Studio\2019\Community\VC\Tools\MSVC\14.29.30133\atlmfc\include\afxwin2.inl
;	COMDAT ?DoDataExchange@CWnd@@MAEXPAVCDataExchange@@@Z
_TEXT	SEGMENT
___formal$ = 8						; size = 4
?DoDataExchange@CWnd@@MAEXPAVCDataExchange@@@Z PROC	; CWnd::DoDataExchange, COMDAT
; _this$ = ecx

; 561  : 	{ } // default does nothing

  00000	c2 04 00	 ret	 4
?DoDataExchange@CWnd@@MAEXPAVCDataExchange@@@Z ENDP	; CWnd::DoDataExchange
_TEXT	ENDS
; Function compile flags: /Ogtp
; File C:\Program Files (x86)\Microsoft Visual Studio\2019\Community\VC\Tools\MSVC\14.29.30133\atlmfc\include\afxwin1.inl
; File C:\Program Files (x86)\Microsoft Visual Studio\2019\Community\VC\Tools\MSVC\14.29.30133\atlmfc\include\afx.inl
;	COMDAT ??_GCBrush@@UAEPAXI@Z
_TEXT	SEGMENT
___flags$ = 8						; size = 4
??_GCBrush@@UAEPAXI@Z PROC				; CBrush::`scalar deleting destructor', COMDAT
; _this$ = ecx
  00000	55		 push	 ebp
  00001	8b ec		 mov	 ebp, esp
; File C:\Program Files (x86)\Microsoft Visual Studio\2019\Community\VC\Tools\MSVC\14.29.30133\atlmfc\include\afxwin1.inl

; 130  : 	{ }

  00003	56		 push	 esi
  00004	8b f1		 mov	 esi, ecx
  00006	c7 06 00 00 00
	00		 mov	 DWORD PTR [esi], OFFSET ??_7CBrush@@6B@
  0000c	e8 00 00 00 00	 call	 ??1CGdiObject@@UAE@XZ	; CGdiObject::~CGdiObject
  00011	8b 45 08	 mov	 eax, DWORD PTR ___flags$[ebp]
  00014	a8 01		 test	 al, 1
  00016	74 1f		 je	 SHORT $LN12@scalar
  00018	a8 04		 test	 al, 4
  0001a	75 10		 jne	 SHORT $LN3@scalar
; File C:\Program Files (x86)\Microsoft Visual Studio\2019\Community\VC\Tools\MSVC\14.29.30133\atlmfc\include\afx.inl

; 112  : 	{ ::operator delete(p); }

  0001c	56		 push	 esi
  0001d	e8 00 00 00 00	 call	 ??3@YAXPAX@Z		; operator delete
  00022	83 c4 04	 add	 esp, 4
  00025	8b c6		 mov	 eax, esi
  00027	5e		 pop	 esi
  00028	5d		 pop	 ebp
  00029	c2 04 00	 ret	 4
$LN3@scalar:
  0002c	6a 08		 push	 8
  0002e	56		 push	 esi
  0002f	e8 00 00 00 00	 call	 ?__global_delete@@YAXPAXI@Z ; __global_delete
  00034	83 c4 08	 add	 esp, 8
$LN12@scalar:
  00037	8b c6		 mov	 eax, esi
  00039	5e		 pop	 esi
  0003a	5d		 pop	 ebp
  0003b	c2 04 00	 ret	 4
??_GCBrush@@UAEPAXI@Z ENDP				; CBrush::`scalar deleting destructor'
_TEXT	ENDS
; Function compile flags: /Ogtp
; File C:\Program Files (x86)\Microsoft Visual Studio\2019\Community\VC\Tools\MSVC\14.29.30133\atlmfc\include\afxwin1.inl
;	COMDAT ??1CBrush@@UAE@XZ
_TEXT	SEGMENT
??1CBrush@@UAE@XZ PROC					; CBrush::~CBrush, COMDAT
; _this$ = ecx

; 130  : 	{ }

  00000	c7 01 00 00 00
	00		 mov	 DWORD PTR [ecx], OFFSET ??_7CBrush@@6B@
  00006	e9 00 00 00 00	 jmp	 ??1CGdiObject@@UAE@XZ	; CGdiObject::~CGdiObject
??1CBrush@@UAE@XZ ENDP					; CBrush::~CBrush
_TEXT	ENDS
; Function compile flags: /Ogtp
; File C:\Program Files (x86)\Microsoft Visual Studio\2019\Community\VC\Tools\MSVC\14.29.30133\atlmfc\include\afx.inl
;	COMDAT ??_GCGdiObject@@UAEPAXI@Z
_TEXT	SEGMENT
___flags$ = 8						; size = 4
??_GCGdiObject@@UAEPAXI@Z PROC				; CGdiObject::`scalar deleting destructor', COMDAT
; _this$ = ecx
  00000	55		 push	 ebp
  00001	8b ec		 mov	 ebp, esp
  00003	56		 push	 esi
  00004	8b f1		 mov	 esi, ecx
  00006	e8 00 00 00 00	 call	 ??1CGdiObject@@UAE@XZ	; CGdiObject::~CGdiObject
  0000b	8b 45 08	 mov	 eax, DWORD PTR ___flags$[ebp]
  0000e	a8 01		 test	 al, 1
  00010	74 1f		 je	 SHORT $LN9@scalar
  00012	a8 04		 test	 al, 4
  00014	75 10		 jne	 SHORT $LN3@scalar

; 112  : 	{ ::operator delete(p); }

  00016	56		 push	 esi
  00017	e8 00 00 00 00	 call	 ??3@YAXPAX@Z		; operator delete
  0001c	83 c4 04	 add	 esp, 4
  0001f	8b c6		 mov	 eax, esi
  00021	5e		 pop	 esi
  00022	5d		 pop	 ebp
  00023	c2 04 00	 ret	 4
$LN3@scalar:
  00026	6a 08		 push	 8
  00028	56		 push	 esi
  00029	e8 00 00 00 00	 call	 ?__global_delete@@YAXPAXI@Z ; __global_delete
  0002e	83 c4 08	 add	 esp, 8
$LN9@scalar:
  00031	8b c6		 mov	 eax, esi
  00033	5e		 pop	 esi
  00034	5d		 pop	 ebp
  00035	c2 04 00	 ret	 4
??_GCGdiObject@@UAEPAXI@Z ENDP				; CGdiObject::`scalar deleting destructor'
_TEXT	ENDS
; Function compile flags: /Ogtp
; File C:\Program Files (x86)\Microsoft Visual Studio\2019\Community\VC\Tools\MSVC\14.29.30133\atlmfc\include\afxwin1.inl
;	COMDAT ??1CGdiObject@@UAE@XZ
_TEXT	SEGMENT
_pException$2 = -540					; size = 4
_strMsg$3 = -536					; size = 4
_szErrorMessage$4 = -532				; size = 512
__$ArrayPad$ = -20					; size = 4
__$EHRec$ = -16						; size = 16
??1CGdiObject@@UAE@XZ PROC				; CGdiObject::~CGdiObject, COMDAT
; _this$ = ecx

; 74   : {

  00000	55		 push	 ebp
  00001	8b ec		 mov	 ebp, esp
  00003	6a ff		 push	 -1
  00005	68 00 00 00 00	 push	 __ehhandler$??1CGdiObject@@UAE@XZ
  0000a	64 a1 00 00 00
	00		 mov	 eax, DWORD PTR fs:0
  00010	50		 push	 eax
  00011	81 ec 10 02 00
	00		 sub	 esp, 528		; 00000210H
  00017	a1 00 00 00 00	 mov	 eax, DWORD PTR ___security_cookie
  0001c	33 c5		 xor	 eax, ebp
  0001e	89 45 ec	 mov	 DWORD PTR __$ArrayPad$[ebp], eax
  00021	53		 push	 ebx
  00022	56		 push	 esi
  00023	57		 push	 edi
  00024	50		 push	 eax
  00025	8d 45 f4	 lea	 eax, DWORD PTR __$EHRec$[ebp+4]
  00028	64 a3 00 00 00
	00		 mov	 DWORD PTR fs:0, eax
  0002e	89 65 f0	 mov	 DWORD PTR __$EHRec$[ebp], esp
  00031	c7 01 00 00 00
	00		 mov	 DWORD PTR [ecx], OFFSET ??_7CGdiObject@@6B@

; 75   : 	AFX_BEGIN_DESTRUCTOR

  00037	c7 45 fc 00 00
	00 00		 mov	 DWORD PTR __$EHRec$[ebp+12], 0

; 76   : 	DeleteObject();

  0003e	e8 00 00 00 00	 call	 ?DeleteObject@CGdiObject@@QAEHXZ ; CGdiObject::DeleteObject
$LN18@CGdiObject:

; 78   : }

  00043	8b 4d f4	 mov	 ecx, DWORD PTR __$EHRec$[ebp+4]
  00046	64 89 0d 00 00
	00 00		 mov	 DWORD PTR fs:0, ecx
  0004d	59		 pop	 ecx
  0004e	5f		 pop	 edi
  0004f	5e		 pop	 esi
  00050	5b		 pop	 ebx
  00051	8b 4d ec	 mov	 ecx, DWORD PTR __$ArrayPad$[ebp]
  00054	33 cd		 xor	 ecx, ebp
  00056	e8 00 00 00 00	 call	 @__security_check_cookie@4
  0005b	8b e5		 mov	 esp, ebp
  0005d	5d		 pop	 ebp
  0005e	c3		 ret	 0
__catch$??1CGdiObject@@UAE@XZ$0:

; 77   : 	AFX_END_DESTRUCTOR

  0005f	8d 8d e8 fd ff
	ff		 lea	 ecx, DWORD PTR _strMsg$3[ebp]
  00065	ff 15 00 00 00
	00		 call	 DWORD PTR __imp_??0?$CStringT@DV?$StrTraitMFC_DLL@DV?$ChTraitsCRT@D@ATL@@@@@ATL@@QAE@XZ
  0006b	8b b5 e4 fd ff
	ff		 mov	 esi, DWORD PTR _pException$2[ebp]
  00071	8d 8d ec fd ff
	ff		 lea	 ecx, DWORD PTR _szErrorMessage$4[ebp]
  00077	6a 00		 push	 0
  00079	68 00 02 00 00	 push	 512			; 00000200H
  0007e	51		 push	 ecx
  0007f	8b 06		 mov	 eax, DWORD PTR [esi]
  00081	8b ce		 mov	 ecx, esi
  00083	c6 45 fc 02	 mov	 BYTE PTR __$EHRec$[ebp+12], 2
  00087	ff 50 14	 call	 DWORD PTR [eax+20]
  0008a	85 c0		 test	 eax, eax
  0008c	74 2a		 je	 SHORT $LN9@CGdiObject
  0008e	8d 85 ec fd ff
	ff		 lea	 eax, DWORD PTR _szErrorMessage$4[ebp]
  00094	50		 push	 eax
  00095	6a 4d		 push	 77			; 0000004dH
  00097	68 00 00 00 00	 push	 OFFSET ??_C@_0HD@JJCHHHNK@C?3?2Program?5Files?5?$CIx86?$CJ?2Microsof@
  0009c	68 00 00 00 00	 push	 OFFSET ??_C@_0BP@OIEOKIDM@Exception?5thrown?5in?5destructor@
  000a1	8d 85 e8 fd ff
	ff		 lea	 eax, DWORD PTR _strMsg$3[ebp]
  000a7	68 00 00 00 00	 push	 OFFSET ??_C@_0BB@HBOOMJBF@?$CFTs?5?$CI?$CFTs?3?$CFd?$CJ?6?$CFTs@
  000ac	50		 push	 eax
  000ad	ff 15 00 00 00
	00		 call	 DWORD PTR __imp_?Format@?$CStringT@DV?$StrTraitMFC_DLL@DV?$ChTraitsCRT@D@ATL@@@@@ATL@@QAAXPBDZZ
  000b3	83 c4 18	 add	 esp, 24			; 00000018H
  000b6	eb 21		 jmp	 SHORT $LN10@CGdiObject
$LN9@CGdiObject:
  000b8	6a 4d		 push	 77			; 0000004dH
  000ba	68 00 00 00 00	 push	 OFFSET ??_C@_0HD@JJCHHHNK@C?3?2Program?5Files?5?$CIx86?$CJ?2Microsof@
  000bf	68 00 00 00 00	 push	 OFFSET ??_C@_0BP@OIEOKIDM@Exception?5thrown?5in?5destructor@
  000c4	8d 85 e8 fd ff
	ff		 lea	 eax, DWORD PTR _strMsg$3[ebp]
  000ca	68 00 00 00 00	 push	 OFFSET ??_C@_0N@OMEMOKLE@?$CFTs?5?$CI?$CFTs?3?$CFd?$CJ@
  000cf	50		 push	 eax
  000d0	ff 15 00 00 00
	00		 call	 DWORD PTR __imp_?Format@?$CStringT@DV?$StrTraitMFC_DLL@DV?$ChTraitsCRT@D@ATL@@@@@ATL@@QAAXPBDZZ
  000d6	83 c4 14	 add	 esp, 20			; 00000014H
$LN10@CGdiObject:
  000d9	6a 00		 push	 0
  000db	6a 00		 push	 0
  000dd	ff b5 e8 fd ff
	ff		 push	 DWORD PTR _strMsg$3[ebp]
  000e3	e8 00 00 00 00	 call	 ?AfxMessageBox@@YGHPBDII@Z ; AfxMessageBox
  000e8	8d 8d e8 fd ff
	ff		 lea	 ecx, DWORD PTR _strMsg$3[ebp]
  000ee	ff 15 00 00 00
	00		 call	 DWORD PTR __imp_??1?$CStringT@DV?$StrTraitMFC_DLL@DV?$ChTraitsCRT@D@ATL@@@@@ATL@@QAE@XZ
  000f4	8b 06		 mov	 eax, DWORD PTR [esi]
  000f6	8b ce		 mov	 ecx, esi
  000f8	6a 01		 push	 1
  000fa	ff 50 04	 call	 DWORD PTR [eax+4]
  000fd	b8 00 00 00 00	 mov	 eax, $LN18@CGdiObject
  00102	c3		 ret	 0
_TEXT	ENDS
;	COMDAT text$x
text$x	SEGMENT
__unwindfunclet$??1CGdiObject@@UAE@XZ$2:
  00000	8d 8d e8 fd ff
	ff		 lea	 ecx, DWORD PTR _strMsg$3[ebp]
  00006	ff 25 00 00 00
	00		 jmp	 DWORD PTR __imp_??1?$CStringT@DV?$StrTraitMFC_DLL@DV?$ChTraitsCRT@D@ATL@@@@@ATL@@QAE@XZ
  0000c	cc		 int	 3
  0000d	cc		 int	 3
  0000e	cc		 int	 3
  0000f	cc		 int	 3
  00010	cc		 int	 3
__ehhandler$??1CGdiObject@@UAE@XZ:
  00011	90		 npad	 1
  00012	90		 npad	 1
  00013	8b 54 24 08	 mov	 edx, DWORD PTR [esp+8]
  00017	8d 42 0c	 lea	 eax, DWORD PTR [edx+12]
  0001a	8b 8a e0 fd ff
	ff		 mov	 ecx, DWORD PTR [edx-544]
  00020	33 c8		 xor	 ecx, eax
  00022	e8 00 00 00 00	 call	 @__security_check_cookie@4
  00027	8b 4a f8	 mov	 ecx, DWORD PTR [edx-8]
  0002a	33 c8		 xor	 ecx, eax
  0002c	e8 00 00 00 00	 call	 @__security_check_cookie@4
  00031	b8 00 00 00 00	 mov	 eax, OFFSET __ehfuncinfo$??1CGdiObject@@UAE@XZ
  00036	e9 00 00 00 00	 jmp	 ___CxxFrameHandler3
text$x	ENDS
??1CGdiObject@@UAE@XZ ENDP				; CGdiObject::~CGdiObject
; Function compile flags: /Ogtp
; File C:\Program Files (x86)\Microsoft Visual Studio\2019\Community\VC\Tools\MSVC\14.29.30133\atlmfc\include\afx.inl
;	COMDAT ?Dump@CObject@@UBEXAAVCDumpContext@@@Z
_TEXT	SEGMENT
___formal$ = 8						; size = 4
?Dump@CObject@@UBEXAAVCDumpContext@@@Z PROC		; CObject::Dump, COMDAT
; _this$ = ecx

; 122  : 	{ /* no dumping in release builds */ }

  00000	c2 04 00	 ret	 4
?Dump@CObject@@UBEXAAVCDumpContext@@@Z ENDP		; CObject::Dump
_TEXT	ENDS
; Function compile flags: /Ogtp
; File C:\Program Files (x86)\Microsoft Visual Studio\2019\Community\VC\Tools\MSVC\14.29.30133\atlmfc\include\afx.inl
;	COMDAT ?AssertValid@CObject@@UBEXXZ
_TEXT	SEGMENT
?AssertValid@CObject@@UBEXXZ PROC			; CObject::AssertValid, COMDAT
; _this$ = ecx

; 120  : 	{ /* no asserts in release builds */ }

  00000	c2 00 00	 ret	 0
?AssertValid@CObject@@UBEXXZ ENDP			; CObject::AssertValid
_TEXT	ENDS
; Function compile flags: /Ogtp
; File C:\Program Files (x86)\Microsoft Visual Studio\2019\Community\VC\Tools\MSVC\14.29.30133\atlmfc\include\afx.inl
;	COMDAT ?Serialize@CObject@@UAEXAAVCArchive@@@Z
_TEXT	SEGMENT
___formal$ = 8						; size = 4
?Serialize@CObject@@UAEXAAVCArchive@@@Z PROC		; CObject::Serialize, COMDAT
; _this$ = ecx

; 106  : 	{ /* CObject does not serialize anything by default */ }

  00000	c2 04 00	 ret	 4
?Serialize@CObject@@UAEXAAVCArchive@@@Z ENDP		; CObject::Serialize
_TEXT	ENDS
; Function compile flags: /Ogtp
; File C:\Program Files (x86)\Microsoft Visual Studio\2019\Community\VC\Tools\MSVC\14.29.30133\atlmfc\include\afx.inl
;	COMDAT ??1CObject@@UAE@XZ
_TEXT	SEGMENT
??1CObject@@UAE@XZ PROC					; CObject::~CObject, COMDAT
; _this$ = ecx

; 104  : 	{ }

  00000	c2 00 00	 ret	 0
??1CObject@@UAE@XZ ENDP					; CObject::~CObject
_TEXT	ENDS
; Function compile flags: /Ogtp
; File D:\git\src\IBK\IBK_DRFN\ProjSrc\SrcChartEx\ChartAddIn\ChartPatternAddIn\DlgPatternEnvSetup.cpp
;	COMDAT ?__empty_global_delete@@YAXPAXI@Z
_TEXT	SEGMENT
___formal$ = 8						; size = 4
___formal$ = 12						; size = 4
?__empty_global_delete@@YAXPAXI@Z PROC			; __empty_global_delete, COMDAT

  00000	c2 00 00	 ret	 0
?__empty_global_delete@@YAXPAXI@Z ENDP			; __empty_global_delete
_TEXT	ENDS
; Function compile flags: /Ogtp
; File D:\git\src\IBK\IBK_DRFN\ProjSrc\SrcChartEx\ChartAddIn\ChartPatternAddIn\DlgPatternEnvSetup.cpp
;	COMDAT ?__empty_global_delete@@YAXPAX@Z
_TEXT	SEGMENT
___formal$ = 8						; size = 4
?__empty_global_delete@@YAXPAX@Z PROC			; __empty_global_delete, COMDAT

  00000	c2 00 00	 ret	 0
?__empty_global_delete@@YAXPAX@Z ENDP			; __empty_global_delete
_TEXT	ENDS
END
