; Listing generated by Microsoft (R) Optimizing Compiler Version 19.29.30145.0 

	TITLE	D:\git\src\IBK\IBK_DRFN\#DRfn-CS\_Obj\ChartPatternAddin\GridCell.obj
	.686P
	.XMM
	include listing.inc
	.model	flat

INCLUDELIB MSVCRT
INCLUDELIB OLDNAMES

PUBLIC	??_H@YGXPAXIIP6EPAX0@Z@Z			; `vector constructor iterator'
PUBLIC	?__empty_global_delete@@YAXPAX@Z		; __empty_global_delete
PUBLIC	?__empty_global_delete@@YAXPAXI@Z		; __empty_global_delete
PUBLIC	??1CObject@@UAE@XZ				; CObject::~CObject
PUBLIC	??3CObject@@SGXPAX@Z				; CObject::operator delete
PUBLIC	?Serialize@CObject@@UAEXAAVCArchive@@@Z		; CObject::Serialize
PUBLIC	?AssertValid@CObject@@UBEXXZ			; CObject::AssertValid
PUBLIC	?Dump@CObject@@UBEXAAVCDumpContext@@@Z		; CObject::Dump
PUBLIC	??1CGdiObject@@UAE@XZ				; CGdiObject::~CGdiObject
PUBLIC	??_GCGdiObject@@UAEPAXI@Z			; CGdiObject::`scalar deleting destructor'
PUBLIC	??1CFont@@UAE@XZ				; CFont::~CFont
PUBLIC	??_GCFont@@UAEPAXI@Z				; CFont::`scalar deleting destructor'
PUBLIC	?SetState@CGridCellBase@@UAEXK@Z		; CGridCellBase::SetState
PUBLIC	?GetTipText@CGridCellBase@@UBEPBDXZ		; CGridCellBase::GetTipText
PUBLIC	?GetState@CGridCellBase@@UBEKXZ			; CGridCellBase::GetState
PUBLIC	?IsFocused@CGridCellBase@@UBEHXZ		; CGridCellBase::IsFocused
PUBLIC	?IsFixed@CGridCellBase@@UBEHXZ			; CGridCellBase::IsFixed
PUBLIC	?IsFixedCol@CGridCellBase@@UBEHXZ		; CGridCellBase::IsFixedCol
PUBLIC	?IsFixedRow@CGridCellBase@@UBEHXZ		; CGridCellBase::IsFixedRow
PUBLIC	?IsSelected@CGridCellBase@@UBEHXZ		; CGridCellBase::IsSelected
PUBLIC	?IsReadOnly@CGridCellBase@@UBEHXZ		; CGridCellBase::IsReadOnly
PUBLIC	?IsModified@CGridCellBase@@UBEHXZ		; CGridCellBase::IsModified
PUBLIC	?IsDropHighlighted@CGridCellBase@@UBEHXZ	; CGridCellBase::IsDropHighlighted
PUBLIC	?GetTipTextRect@CGridCellBase@@UAEHPAUtagRECT@@@Z ; CGridCellBase::GetTipTextRect
PUBLIC	?_GetBaseClass@CGridCell@@KGPAUCRuntimeClass@@XZ ; CGridCell::_GetBaseClass
PUBLIC	?GetThisClass@CGridCell@@SGPAUCRuntimeClass@@XZ	; CGridCell::GetThisClass
PUBLIC	?GetRuntimeClass@CGridCell@@UBEPAUCRuntimeClass@@XZ ; CGridCell::GetRuntimeClass
PUBLIC	?CreateObject@CGridCell@@SGPAVCObject@@XZ	; CGridCell::CreateObject
PUBLIC	??0CGridCell@@QAE@XZ				; CGridCell::CGridCell
PUBLIC	??1CGridCell@@UAE@XZ				; CGridCell::~CGridCell
PUBLIC	??4CGridCell@@QAEXABV0@@Z			; CGridCell::operator=
PUBLIC	?SetText@CGridCell@@UAEXPBD@Z			; CGridCell::SetText
PUBLIC	?SetImage@CGridCell@@UAEXH@Z			; CGridCell::SetImage
PUBLIC	?SetData@CGridCell@@UAEXJ@Z			; CGridCell::SetData
PUBLIC	?SetGrid@CGridCell@@UAEXPAVCGridCtrl@@@Z	; CGridCell::SetGrid
PUBLIC	?SetFormat@CGridCell@@UAEXK@Z			; CGridCell::SetFormat
PUBLIC	?SetTextClr@CGridCell@@UAEXK@Z			; CGridCell::SetTextClr
PUBLIC	?SetBackClr@CGridCell@@UAEXK@Z			; CGridCell::SetBackClr
PUBLIC	?SetFont@CGridCell@@UAEXPBUtagLOGFONTA@@@Z	; CGridCell::SetFont
PUBLIC	?SetMargin@CGridCell@@UAEXI@Z			; CGridCell::SetMargin
PUBLIC	?GetEditWnd@CGridCell@@UBEPAVCWnd@@XZ		; CGridCell::GetEditWnd
PUBLIC	?SetCoords@CGridCell@@UAEXHH@Z			; CGridCell::SetCoords
PUBLIC	?GetText@CGridCell@@UBEPBDXZ			; CGridCell::GetText
PUBLIC	?GetImage@CGridCell@@UBEHXZ			; CGridCell::GetImage
PUBLIC	?GetData@CGridCell@@UBEJXZ			; CGridCell::GetData
PUBLIC	?GetGrid@CGridCell@@UBEPAVCGridCtrl@@XZ		; CGridCell::GetGrid
PUBLIC	?GetFormat@CGridCell@@UBEKXZ			; CGridCell::GetFormat
PUBLIC	?GetTextClr@CGridCell@@UBEKXZ			; CGridCell::GetTextClr
PUBLIC	?GetBackClr@CGridCell@@UBEKXZ			; CGridCell::GetBackClr
PUBLIC	?GetFont@CGridCell@@UBEPAUtagLOGFONTA@@XZ	; CGridCell::GetFont
PUBLIC	?GetFontObject@CGridCell@@UBEPAVCFont@@XZ	; CGridCell::GetFontObject
PUBLIC	?GetMargin@CGridCell@@UBEIXZ			; CGridCell::GetMargin
PUBLIC	?IsEditing@CGridCell@@UBEHXZ			; CGridCell::IsEditing
PUBLIC	?IsDefaultFont@CGridCell@@UBEHXZ		; CGridCell::IsDefaultFont
PUBLIC	?Reset@CGridCell@@UAEXXZ			; CGridCell::Reset
PUBLIC	?Edit@CGridCell@@UAEHHHVCRect@@VCPoint@@II@Z	; CGridCell::Edit
PUBLIC	?EndEdit@CGridCell@@UAEXXZ			; CGridCell::EndEdit
PUBLIC	?OnEndEdit@CGridCell@@MAEXXZ			; CGridCell::OnEndEdit
PUBLIC	??_GCGridCell@@UAEPAXI@Z			; CGridCell::`scalar deleting destructor'
PUBLIC	?_GetBaseClass@CGridDefaultCell@@KGPAUCRuntimeClass@@XZ ; CGridDefaultCell::_GetBaseClass
PUBLIC	?GetThisClass@CGridDefaultCell@@SGPAUCRuntimeClass@@XZ ; CGridDefaultCell::GetThisClass
PUBLIC	?GetRuntimeClass@CGridDefaultCell@@UBEPAUCRuntimeClass@@XZ ; CGridDefaultCell::GetRuntimeClass
PUBLIC	?CreateObject@CGridDefaultCell@@SGPAVCObject@@XZ ; CGridDefaultCell::CreateObject
PUBLIC	??0CGridDefaultCell@@QAE@XZ			; CGridDefaultCell::CGridDefaultCell
PUBLIC	??1CGridDefaultCell@@UAE@XZ			; CGridDefaultCell::~CGridDefaultCell
PUBLIC	?GetStyle@CGridDefaultCell@@UBEKXZ		; CGridDefaultCell::GetStyle
PUBLIC	?SetStyle@CGridDefaultCell@@UAEXK@Z		; CGridDefaultCell::SetStyle
PUBLIC	?GetWidth@CGridDefaultCell@@UBEHXZ		; CGridDefaultCell::GetWidth
PUBLIC	?GetHeight@CGridDefaultCell@@UBEHXZ		; CGridDefaultCell::GetHeight
PUBLIC	?SetWidth@CGridDefaultCell@@UAEXH@Z		; CGridDefaultCell::SetWidth
PUBLIC	?SetHeight@CGridDefaultCell@@UAEXH@Z		; CGridDefaultCell::SetHeight
PUBLIC	?SetData@CGridDefaultCell@@UAEXJ@Z		; CGridDefaultCell::SetData
PUBLIC	?SetState@CGridDefaultCell@@UAEXK@Z		; CGridDefaultCell::SetState
PUBLIC	?GetState@CGridDefaultCell@@UBEKXZ		; CGridDefaultCell::GetState
PUBLIC	?SetCoords@CGridDefaultCell@@UAEXHH@Z		; CGridDefaultCell::SetCoords
PUBLIC	?SetFont@CGridDefaultCell@@UAEXPBUtagLOGFONTA@@@Z ; CGridDefaultCell::SetFont
PUBLIC	?GetFont@CGridDefaultCell@@UBEPAUtagLOGFONTA@@XZ ; CGridDefaultCell::GetFont
PUBLIC	?GetFontObject@CGridDefaultCell@@UBEPAVCFont@@XZ ; CGridDefaultCell::GetFontObject
PUBLIC	??_GCGridDefaultCell@@UAEPAXI@Z			; CGridDefaultCell::`scalar deleting destructor'
PUBLIC	??_R0PAVCException@@@8				; CException * `RTTI Type Descriptor'
PUBLIC	??_C@_00CNPNBAHC@@				; `string'
PUBLIC	??_7CGdiObject@@6B@				; CGdiObject::`vftable'
PUBLIC	??_7CFont@@6B@					; CFont::`vftable'
PUBLIC	??_C@_0HD@JJCHHHNK@C?3?2Program?5Files?5?$CIx86?$CJ?2Microsof@ ; `string'
PUBLIC	??_C@_0BP@OIEOKIDM@Exception?5thrown?5in?5destructor@ ; `string'
PUBLIC	??_C@_0BB@HBOOMJBF@?$CFTs?5?$CI?$CFTs?3?$CFd?$CJ?6?$CFTs@ ; `string'
PUBLIC	??_C@_0N@OMEMOKLE@?$CFTs?5?$CI?$CFTs?3?$CFd?$CJ@ ; `string'
PUBLIC	??_R0?AVCObject@@@8				; CObject `RTTI Type Descriptor'
PUBLIC	??_R3CObject@@8					; CObject::`RTTI Class Hierarchy Descriptor'
PUBLIC	??_R2CObject@@8					; CObject::`RTTI Base Class Array'
PUBLIC	??_R1A@?0A@EA@CObject@@8			; CObject::`RTTI Base Class Descriptor at (0,-1,0,64)'
PUBLIC	??_R4CGdiObject@@6B@				; CGdiObject::`RTTI Complete Object Locator'
PUBLIC	??_R0?AVCGdiObject@@@8				; CGdiObject `RTTI Type Descriptor'
PUBLIC	??_R3CGdiObject@@8				; CGdiObject::`RTTI Class Hierarchy Descriptor'
PUBLIC	??_R2CGdiObject@@8				; CGdiObject::`RTTI Base Class Array'
PUBLIC	??_R1A@?0A@EA@CGdiObject@@8			; CGdiObject::`RTTI Base Class Descriptor at (0,-1,0,64)'
PUBLIC	??_R4CFont@@6B@					; CFont::`RTTI Complete Object Locator'
PUBLIC	??_R0?AVCFont@@@8				; CFont `RTTI Type Descriptor'
PUBLIC	??_R3CFont@@8					; CFont::`RTTI Class Hierarchy Descriptor'
PUBLIC	??_R2CFont@@8					; CFont::`RTTI Base Class Array'
PUBLIC	??_R1A@?0A@EA@CFont@@8				; CFont::`RTTI Base Class Descriptor at (0,-1,0,64)'
PUBLIC	?classCGridCell@CGridCell@@2UCRuntimeClass@@B	; CGridCell::classCGridCell
PUBLIC	??_7CGridCell@@6B@				; CGridCell::`vftable'
PUBLIC	?classCGridDefaultCell@CGridDefaultCell@@2UCRuntimeClass@@B ; CGridDefaultCell::classCGridDefaultCell
PUBLIC	??_7CGridDefaultCell@@6B@			; CGridDefaultCell::`vftable'
PUBLIC	??_C@_09CLBLKEDE@CGridCell@			; `string'
PUBLIC	??_C@_0BB@IPGMAHPB@CGridDefaultCell@		; `string'
PUBLIC	??_C@_01CLKCMJKC@?5@				; `string'
PUBLIC	??_C@_0P@PLKEPLKE@?5XXXXXXXXXXXX?5@		; `string'
PUBLIC	??_R4CGridCell@@6B@				; CGridCell::`RTTI Complete Object Locator'
PUBLIC	??_R0?AVCGridCell@@@8				; CGridCell `RTTI Type Descriptor'
PUBLIC	??_R3CGridCell@@8				; CGridCell::`RTTI Class Hierarchy Descriptor'
PUBLIC	??_R2CGridCell@@8				; CGridCell::`RTTI Base Class Array'
PUBLIC	??_R1A@?0A@EA@CGridCell@@8			; CGridCell::`RTTI Base Class Descriptor at (0,-1,0,64)'
PUBLIC	??_R1A@?0A@EA@CGridCellBase@@8			; CGridCellBase::`RTTI Base Class Descriptor at (0,-1,0,64)'
PUBLIC	??_R0?AVCGridCellBase@@@8			; CGridCellBase `RTTI Type Descriptor'
PUBLIC	??_R3CGridCellBase@@8				; CGridCellBase::`RTTI Class Hierarchy Descriptor'
PUBLIC	??_R2CGridCellBase@@8				; CGridCellBase::`RTTI Base Class Array'
PUBLIC	??_R4CGridDefaultCell@@6B@			; CGridDefaultCell::`RTTI Complete Object Locator'
PUBLIC	??_R0?AVCGridDefaultCell@@@8			; CGridDefaultCell `RTTI Type Descriptor'
PUBLIC	??_R3CGridDefaultCell@@8			; CGridDefaultCell::`RTTI Class Hierarchy Descriptor'
PUBLIC	??_R2CGridDefaultCell@@8			; CGridDefaultCell::`RTTI Base Class Array'
PUBLIC	??_R1A@?0A@EA@CGridDefaultCell@@8		; CGridDefaultCell::`RTTI Base Class Descriptor at (0,-1,0,64)'
EXTRN	??2@YAPAXI@Z:PROC				; operator new
EXTRN	??3@YAXPAX@Z:PROC				; operator delete
EXTRN	??3@YAXPAXI@Z:PROC				; operator delete
EXTRN	?__global_delete@@YAXPAXI@Z:PROC		; __global_delete
EXTRN	_atexit:PROC
EXTRN	__Init_thread_header:PROC
EXTRN	__Init_thread_footer:PROC
EXTRN	___std_terminate:PROC
EXTRN	__imp__CreateFontIndirectA@4:PROC
EXTRN	__imp__GetTextExtentPoint32A@16:PROC
EXTRN	__imp__SendMessageA@16:PROC
EXTRN	__imp__GetDC@4:PROC
EXTRN	__imp__ReleaseDC@8:PROC
EXTRN	__imp__SystemParametersInfoA@16:PROC
EXTRN	__imp_?Empty@?$CSimpleStringT@D$00@ATL@@QAEXXZ:PROC
EXTRN	__imp_??0?$CStringT@DV?$StrTraitMFC_DLL@DV?$ChTraitsCRT@D@ATL@@@@@ATL@@QAE@XZ:PROC
EXTRN	__imp_??0?$CStringT@DV?$StrTraitMFC_DLL@DV?$ChTraitsCRT@D@ATL@@@@@ATL@@QAE@PBD@Z:PROC
EXTRN	__imp_??1?$CStringT@DV?$StrTraitMFC_DLL@DV?$ChTraitsCRT@D@ATL@@@@@ATL@@QAE@XZ:PROC
EXTRN	__imp_??4?$CStringT@DV?$StrTraitMFC_DLL@DV?$ChTraitsCRT@D@ATL@@@@@ATL@@QAEAAV01@PBD@Z:PROC
EXTRN	__imp_?Format@?$CStringT@DV?$StrTraitMFC_DLL@DV?$ChTraitsCRT@D@ATL@@@@@ATL@@QAAXPBDZZ:PROC
EXTRN	?GetRuntimeClass@CGdiObject@@UBEPAUCRuntimeClass@@XZ:PROC ; CGdiObject::GetRuntimeClass
EXTRN	?Attach@CGdiObject@@QAEHPAX@Z:PROC		; CGdiObject::Attach
EXTRN	?DeleteObject@CGdiObject@@QAEHXZ:PROC		; CGdiObject::DeleteObject
EXTRN	??_ECGdiObject@@UAEPAXI@Z:PROC			; CGdiObject::`vector deleting destructor'
EXTRN	?GetRuntimeClass@CFont@@UBEPAUCRuntimeClass@@XZ:PROC ; CFont::GetRuntimeClass
EXTRN	??_ECFont@@UAEPAXI@Z:PROC			; CFont::`vector deleting destructor'
EXTRN	?FromHandle@CDC@@SGPAV1@PAUHDC__@@@Z:PROC	; CDC::FromHandle
EXTRN	?AfxMessageBox@@YGHPBDII@Z:PROC			; AfxMessageBox
EXTRN	?GetThisClass@CGridCellBase@@SGPAUCRuntimeClass@@XZ:PROC ; CGridCellBase::GetThisClass
EXTRN	??0CGridCellBase@@QAE@XZ:PROC			; CGridCellBase::CGridCellBase
EXTRN	??1CGridCellBase@@UAE@XZ:PROC			; CGridCellBase::~CGridCellBase
EXTRN	?GetDefaultCell@CGridCellBase@@UBEPAV1@XZ:PROC	; CGridCellBase::GetDefaultCell
EXTRN	??4CGridCellBase@@UAEXABV0@@Z:PROC		; CGridCellBase::operator=
EXTRN	?Reset@CGridCellBase@@UAEXXZ:PROC		; CGridCellBase::Reset
EXTRN	?Draw@CGridCellBase@@UAEHPAVCDC@@HHVCRect@@H@Z:PROC ; CGridCellBase::Draw
EXTRN	?GetTextRect@CGridCellBase@@UAEHPAUtagRECT@@@Z:PROC ; CGridCellBase::GetTextRect
EXTRN	?GetTextExtent@CGridCellBase@@UAE?AVCSize@@PBDPAVCDC@@@Z:PROC ; CGridCellBase::GetTextExtent
EXTRN	?GetCellExtent@CGridCellBase@@UAE?AVCSize@@PAVCDC@@@Z:PROC ; CGridCellBase::GetCellExtent
EXTRN	?ValidateEdit@CGridCellBase@@UAEHPBD@Z:PROC	; CGridCellBase::ValidateEdit
EXTRN	?PrintCell@CGridCellBase@@UAEHPAVCDC@@HHVCRect@@@Z:PROC ; CGridCellBase::PrintCell
EXTRN	?OnMouseEnter@CGridCellBase@@MAEXXZ:PROC	; CGridCellBase::OnMouseEnter
EXTRN	?OnMouseOver@CGridCellBase@@MAEXXZ:PROC		; CGridCellBase::OnMouseOver
EXTRN	?OnMouseLeave@CGridCellBase@@MAEXXZ:PROC	; CGridCellBase::OnMouseLeave
EXTRN	?OnClick@CGridCellBase@@MAEXVCPoint@@@Z:PROC	; CGridCellBase::OnClick
EXTRN	?OnClickDown@CGridCellBase@@MAEXVCPoint@@@Z:PROC ; CGridCellBase::OnClickDown
EXTRN	?OnRClick@CGridCellBase@@MAEXVCPoint@@@Z:PROC	; CGridCellBase::OnRClick
EXTRN	?OnDblClick@CGridCellBase@@MAEXVCPoint@@@Z:PROC	; CGridCellBase::OnDblClick
EXTRN	?OnSetCursor@CGridCellBase@@MAEHXZ:PROC		; CGridCellBase::OnSetCursor
EXTRN	??_ECGridCell@@UAEPAXI@Z:PROC			; CGridCell::`vector deleting destructor'
EXTRN	??_ECGridDefaultCell@@UAEPAXI@Z:PROC		; CGridDefaultCell::`vector deleting destructor'
EXTRN	??0CInPlaceEdit@@QAE@PAVCWnd@@AAVCRect@@KIHHV?$CStringT@DV?$StrTraitMFC_DLL@DV?$ChTraitsCRT@D@ATL@@@@@ATL@@I@Z:PROC ; CInPlaceEdit::CInPlaceEdit
EXTRN	?EndEdit@CInPlaceEdit@@QAEXXZ:PROC		; CInPlaceEdit::EndEdit
EXTRN	@__security_check_cookie@4:PROC
EXTRN	___CxxFrameHandler3:PROC
EXTRN	__Init_thread_epoch:DWORD
EXTRN	??_7type_info@@6B@:QWORD			; type_info::`vftable'
EXTRN	___security_cookie:DWORD
EXTRN	__tls_array:DWORD
EXTRN	__tls_index:DWORD
;	COMDAT ?$TSS0@?8??GetFontObject@CGridCell@@UBEPAVCFont@@XZ@4HA
_BSS	SEGMENT
?$TSS0@?8??GetFontObject@CGridCell@@UBEPAVCFont@@XZ@4HA DD 01H DUP (?) ; `CGridCell::GetFontObject'::`9'::$TSS0
_BSS	ENDS
;	COMDAT ??_R1A@?0A@EA@CGridDefaultCell@@8
rdata$r	SEGMENT
??_R1A@?0A@EA@CGridDefaultCell@@8 DD FLAT:??_R0?AVCGridDefaultCell@@@8 ; CGridDefaultCell::`RTTI Base Class Descriptor at (0,-1,0,64)'
	DD	03H
	DD	00H
	DD	0ffffffffH
	DD	00H
	DD	040H
	DD	FLAT:??_R3CGridDefaultCell@@8
rdata$r	ENDS
;	COMDAT ??_R2CGridDefaultCell@@8
rdata$r	SEGMENT
??_R2CGridDefaultCell@@8 DD FLAT:??_R1A@?0A@EA@CGridDefaultCell@@8 ; CGridDefaultCell::`RTTI Base Class Array'
	DD	FLAT:??_R1A@?0A@EA@CGridCell@@8
	DD	FLAT:??_R1A@?0A@EA@CGridCellBase@@8
	DD	FLAT:??_R1A@?0A@EA@CObject@@8
rdata$r	ENDS
;	COMDAT ??_R3CGridDefaultCell@@8
rdata$r	SEGMENT
??_R3CGridDefaultCell@@8 DD 00H				; CGridDefaultCell::`RTTI Class Hierarchy Descriptor'
	DD	00H
	DD	04H
	DD	FLAT:??_R2CGridDefaultCell@@8
rdata$r	ENDS
;	COMDAT ??_R0?AVCGridDefaultCell@@@8
data$rs	SEGMENT
??_R0?AVCGridDefaultCell@@@8 DD FLAT:??_7type_info@@6B@	; CGridDefaultCell `RTTI Type Descriptor'
	DD	00H
	DB	'.?AVCGridDefaultCell@@', 00H
data$rs	ENDS
;	COMDAT ??_R4CGridDefaultCell@@6B@
rdata$r	SEGMENT
??_R4CGridDefaultCell@@6B@ DD 00H			; CGridDefaultCell::`RTTI Complete Object Locator'
	DD	00H
	DD	00H
	DD	FLAT:??_R0?AVCGridDefaultCell@@@8
	DD	FLAT:??_R3CGridDefaultCell@@8
rdata$r	ENDS
;	COMDAT ??_R2CGridCellBase@@8
rdata$r	SEGMENT
??_R2CGridCellBase@@8 DD FLAT:??_R1A@?0A@EA@CGridCellBase@@8 ; CGridCellBase::`RTTI Base Class Array'
	DD	FLAT:??_R1A@?0A@EA@CObject@@8
rdata$r	ENDS
;	COMDAT ??_R3CGridCellBase@@8
rdata$r	SEGMENT
??_R3CGridCellBase@@8 DD 00H				; CGridCellBase::`RTTI Class Hierarchy Descriptor'
	DD	00H
	DD	02H
	DD	FLAT:??_R2CGridCellBase@@8
rdata$r	ENDS
;	COMDAT ??_R0?AVCGridCellBase@@@8
data$rs	SEGMENT
??_R0?AVCGridCellBase@@@8 DD FLAT:??_7type_info@@6B@	; CGridCellBase `RTTI Type Descriptor'
	DD	00H
	DB	'.?AVCGridCellBase@@', 00H
data$rs	ENDS
;	COMDAT ??_R1A@?0A@EA@CGridCellBase@@8
rdata$r	SEGMENT
??_R1A@?0A@EA@CGridCellBase@@8 DD FLAT:??_R0?AVCGridCellBase@@@8 ; CGridCellBase::`RTTI Base Class Descriptor at (0,-1,0,64)'
	DD	01H
	DD	00H
	DD	0ffffffffH
	DD	00H
	DD	040H
	DD	FLAT:??_R3CGridCellBase@@8
rdata$r	ENDS
;	COMDAT ??_R1A@?0A@EA@CGridCell@@8
rdata$r	SEGMENT
??_R1A@?0A@EA@CGridCell@@8 DD FLAT:??_R0?AVCGridCell@@@8 ; CGridCell::`RTTI Base Class Descriptor at (0,-1,0,64)'
	DD	02H
	DD	00H
	DD	0ffffffffH
	DD	00H
	DD	040H
	DD	FLAT:??_R3CGridCell@@8
rdata$r	ENDS
;	COMDAT ??_R2CGridCell@@8
rdata$r	SEGMENT
??_R2CGridCell@@8 DD FLAT:??_R1A@?0A@EA@CGridCell@@8	; CGridCell::`RTTI Base Class Array'
	DD	FLAT:??_R1A@?0A@EA@CGridCellBase@@8
	DD	FLAT:??_R1A@?0A@EA@CObject@@8
rdata$r	ENDS
;	COMDAT ??_R3CGridCell@@8
rdata$r	SEGMENT
??_R3CGridCell@@8 DD 00H				; CGridCell::`RTTI Class Hierarchy Descriptor'
	DD	00H
	DD	03H
	DD	FLAT:??_R2CGridCell@@8
rdata$r	ENDS
;	COMDAT ??_R0?AVCGridCell@@@8
data$rs	SEGMENT
??_R0?AVCGridCell@@@8 DD FLAT:??_7type_info@@6B@	; CGridCell `RTTI Type Descriptor'
	DD	00H
	DB	'.?AVCGridCell@@', 00H
data$rs	ENDS
;	COMDAT ??_R4CGridCell@@6B@
rdata$r	SEGMENT
??_R4CGridCell@@6B@ DD 00H				; CGridCell::`RTTI Complete Object Locator'
	DD	00H
	DD	00H
	DD	FLAT:??_R0?AVCGridCell@@@8
	DD	FLAT:??_R3CGridCell@@8
rdata$r	ENDS
;	COMDAT ??_C@_0P@PLKEPLKE@?5XXXXXXXXXXXX?5@
CONST	SEGMENT
??_C@_0P@PLKEPLKE@?5XXXXXXXXXXXX?5@ DB ' XXXXXXXXXXXX ', 00H ; `string'
CONST	ENDS
;	COMDAT ??_C@_01CLKCMJKC@?5@
CONST	SEGMENT
??_C@_01CLKCMJKC@?5@ DB ' ', 00H			; `string'
CONST	ENDS
;	COMDAT ?Font@?8??GetFontObject@CGridCell@@UBEPAVCFont@@XZ@4V3@A
_DATA	SEGMENT
?Font@?8??GetFontObject@CGridCell@@UBEPAVCFont@@XZ@4V3@A DD FLAT:??_7CFont@@6B@ ; `CGridCell::GetFontObject'::`9'::Font
_DATA	ENDS
;	COMDAT ??_C@_0BB@IPGMAHPB@CGridDefaultCell@
CONST	SEGMENT
??_C@_0BB@IPGMAHPB@CGridDefaultCell@ DB 'CGridDefaultCell', 00H ; `string'
CONST	ENDS
;	COMDAT ??_C@_09CLBLKEDE@CGridCell@
CONST	SEGMENT
??_C@_09CLBLKEDE@CGridCell@ DB 'CGridCell', 00H		; `string'
CONST	ENDS
;	COMDAT ??_7CGridDefaultCell@@6B@
CONST	SEGMENT
??_7CGridDefaultCell@@6B@ DD FLAT:??_R4CGridDefaultCell@@6B@ ; CGridDefaultCell::`vftable'
	DD	FLAT:?GetRuntimeClass@CGridDefaultCell@@UBEPAUCRuntimeClass@@XZ
	DD	FLAT:??_ECGridDefaultCell@@UAEPAXI@Z
	DD	FLAT:?Serialize@CObject@@UAEXAAVCArchive@@@Z
	DD	FLAT:?AssertValid@CObject@@UBEXXZ
	DD	FLAT:?Dump@CObject@@UBEXAAVCDumpContext@@@Z
	DD	FLAT:?SetText@CGridCell@@UAEXPBD@Z
	DD	FLAT:?SetImage@CGridCell@@UAEXH@Z
	DD	FLAT:?SetData@CGridDefaultCell@@UAEXJ@Z
	DD	FLAT:?SetState@CGridDefaultCell@@UAEXK@Z
	DD	FLAT:?SetFormat@CGridCell@@UAEXK@Z
	DD	FLAT:?SetTextClr@CGridCell@@UAEXK@Z
	DD	FLAT:?SetBackClr@CGridCell@@UAEXK@Z
	DD	FLAT:?SetFont@CGridDefaultCell@@UAEXPBUtagLOGFONTA@@@Z
	DD	FLAT:?SetMargin@CGridCell@@UAEXI@Z
	DD	FLAT:?SetGrid@CGridCell@@UAEXPAVCGridCtrl@@@Z
	DD	FLAT:?SetCoords@CGridDefaultCell@@UAEXHH@Z
	DD	FLAT:?GetText@CGridCell@@UBEPBDXZ
	DD	FLAT:?GetTipText@CGridCellBase@@UBEPBDXZ
	DD	FLAT:?GetImage@CGridCell@@UBEHXZ
	DD	FLAT:?GetData@CGridCell@@UBEJXZ
	DD	FLAT:?GetState@CGridDefaultCell@@UBEKXZ
	DD	FLAT:?GetFormat@CGridCell@@UBEKXZ
	DD	FLAT:?GetTextClr@CGridCell@@UBEKXZ
	DD	FLAT:?GetBackClr@CGridCell@@UBEKXZ
	DD	FLAT:?GetFont@CGridDefaultCell@@UBEPAUtagLOGFONTA@@XZ
	DD	FLAT:?GetFontObject@CGridDefaultCell@@UBEPAVCFont@@XZ
	DD	FLAT:?GetGrid@CGridCell@@UBEPAVCGridCtrl@@XZ
	DD	FLAT:?GetEditWnd@CGridCell@@UBEPAVCWnd@@XZ
	DD	FLAT:?GetMargin@CGridCell@@UBEIXZ
	DD	FLAT:?GetDefaultCell@CGridCellBase@@UBEPAV1@XZ
	DD	FLAT:?IsDefaultFont@CGridCell@@UBEHXZ
	DD	FLAT:?IsEditing@CGridCell@@UBEHXZ
	DD	FLAT:?IsFocused@CGridCellBase@@UBEHXZ
	DD	FLAT:?IsFixed@CGridCellBase@@UBEHXZ
	DD	FLAT:?IsFixedCol@CGridCellBase@@UBEHXZ
	DD	FLAT:?IsFixedRow@CGridCellBase@@UBEHXZ
	DD	FLAT:?IsSelected@CGridCellBase@@UBEHXZ
	DD	FLAT:?IsReadOnly@CGridCellBase@@UBEHXZ
	DD	FLAT:?IsModified@CGridCellBase@@UBEHXZ
	DD	FLAT:?IsDropHighlighted@CGridCellBase@@UBEHXZ
	DD	FLAT:??4CGridCellBase@@UAEXABV0@@Z
	DD	FLAT:?Reset@CGridCell@@UAEXXZ
	DD	FLAT:?Draw@CGridCellBase@@UAEHPAVCDC@@HHVCRect@@H@Z
	DD	FLAT:?GetTextRect@CGridCellBase@@UAEHPAUtagRECT@@@Z
	DD	FLAT:?GetTipTextRect@CGridCellBase@@UAEHPAUtagRECT@@@Z
	DD	FLAT:?GetTextExtent@CGridCellBase@@UAE?AVCSize@@PBDPAVCDC@@@Z
	DD	FLAT:?GetCellExtent@CGridCellBase@@UAE?AVCSize@@PAVCDC@@@Z
	DD	FLAT:?Edit@CGridCell@@UAEHHHVCRect@@VCPoint@@II@Z
	DD	FLAT:?ValidateEdit@CGridCellBase@@UAEHPBD@Z
	DD	FLAT:?EndEdit@CGridCell@@UAEXXZ
	DD	FLAT:?PrintCell@CGridCellBase@@UAEHPAVCDC@@HHVCRect@@@Z
	DD	FLAT:?OnEndEdit@CGridCell@@MAEXXZ
	DD	FLAT:?OnMouseEnter@CGridCellBase@@MAEXXZ
	DD	FLAT:?OnMouseOver@CGridCellBase@@MAEXXZ
	DD	FLAT:?OnMouseLeave@CGridCellBase@@MAEXXZ
	DD	FLAT:?OnClick@CGridCellBase@@MAEXVCPoint@@@Z
	DD	FLAT:?OnClickDown@CGridCellBase@@MAEXVCPoint@@@Z
	DD	FLAT:?OnRClick@CGridCellBase@@MAEXVCPoint@@@Z
	DD	FLAT:?OnDblClick@CGridCellBase@@MAEXVCPoint@@@Z
	DD	FLAT:?OnSetCursor@CGridCellBase@@MAEHXZ
	DD	FLAT:?GetStyle@CGridDefaultCell@@UBEKXZ
	DD	FLAT:?SetStyle@CGridDefaultCell@@UAEXK@Z
	DD	FLAT:?GetWidth@CGridDefaultCell@@UBEHXZ
	DD	FLAT:?GetHeight@CGridDefaultCell@@UBEHXZ
	DD	FLAT:?SetWidth@CGridDefaultCell@@UAEXH@Z
	DD	FLAT:?SetHeight@CGridDefaultCell@@UAEXH@Z
CONST	ENDS
;	COMDAT ?classCGridDefaultCell@CGridDefaultCell@@2UCRuntimeClass@@B
CONST	SEGMENT
?classCGridDefaultCell@CGridDefaultCell@@2UCRuntimeClass@@B DD FLAT:??_C@_0BB@IPGMAHPB@CGridDefaultCell@ ; CGridDefaultCell::classCGridDefaultCell
	DD	048H
	DD	0ffffH
	DD	FLAT:?CreateObject@CGridDefaultCell@@SGPAVCObject@@XZ
	DD	FLAT:?_GetBaseClass@CGridDefaultCell@@KGPAUCRuntimeClass@@XZ
	DD	00H
	DD	00H
CONST	ENDS
;	COMDAT ??_7CGridCell@@6B@
CONST	SEGMENT
??_7CGridCell@@6B@ DD FLAT:??_R4CGridCell@@6B@		; CGridCell::`vftable'
	DD	FLAT:?GetRuntimeClass@CGridCell@@UBEPAUCRuntimeClass@@XZ
	DD	FLAT:??_ECGridCell@@UAEPAXI@Z
	DD	FLAT:?Serialize@CObject@@UAEXAAVCArchive@@@Z
	DD	FLAT:?AssertValid@CObject@@UBEXXZ
	DD	FLAT:?Dump@CObject@@UBEXAAVCDumpContext@@@Z
	DD	FLAT:?SetText@CGridCell@@UAEXPBD@Z
	DD	FLAT:?SetImage@CGridCell@@UAEXH@Z
	DD	FLAT:?SetData@CGridCell@@UAEXJ@Z
	DD	FLAT:?SetState@CGridCellBase@@UAEXK@Z
	DD	FLAT:?SetFormat@CGridCell@@UAEXK@Z
	DD	FLAT:?SetTextClr@CGridCell@@UAEXK@Z
	DD	FLAT:?SetBackClr@CGridCell@@UAEXK@Z
	DD	FLAT:?SetFont@CGridCell@@UAEXPBUtagLOGFONTA@@@Z
	DD	FLAT:?SetMargin@CGridCell@@UAEXI@Z
	DD	FLAT:?SetGrid@CGridCell@@UAEXPAVCGridCtrl@@@Z
	DD	FLAT:?SetCoords@CGridCell@@UAEXHH@Z
	DD	FLAT:?GetText@CGridCell@@UBEPBDXZ
	DD	FLAT:?GetTipText@CGridCellBase@@UBEPBDXZ
	DD	FLAT:?GetImage@CGridCell@@UBEHXZ
	DD	FLAT:?GetData@CGridCell@@UBEJXZ
	DD	FLAT:?GetState@CGridCellBase@@UBEKXZ
	DD	FLAT:?GetFormat@CGridCell@@UBEKXZ
	DD	FLAT:?GetTextClr@CGridCell@@UBEKXZ
	DD	FLAT:?GetBackClr@CGridCell@@UBEKXZ
	DD	FLAT:?GetFont@CGridCell@@UBEPAUtagLOGFONTA@@XZ
	DD	FLAT:?GetFontObject@CGridCell@@UBEPAVCFont@@XZ
	DD	FLAT:?GetGrid@CGridCell@@UBEPAVCGridCtrl@@XZ
	DD	FLAT:?GetEditWnd@CGridCell@@UBEPAVCWnd@@XZ
	DD	FLAT:?GetMargin@CGridCell@@UBEIXZ
	DD	FLAT:?GetDefaultCell@CGridCellBase@@UBEPAV1@XZ
	DD	FLAT:?IsDefaultFont@CGridCell@@UBEHXZ
	DD	FLAT:?IsEditing@CGridCell@@UBEHXZ
	DD	FLAT:?IsFocused@CGridCellBase@@UBEHXZ
	DD	FLAT:?IsFixed@CGridCellBase@@UBEHXZ
	DD	FLAT:?IsFixedCol@CGridCellBase@@UBEHXZ
	DD	FLAT:?IsFixedRow@CGridCellBase@@UBEHXZ
	DD	FLAT:?IsSelected@CGridCellBase@@UBEHXZ
	DD	FLAT:?IsReadOnly@CGridCellBase@@UBEHXZ
	DD	FLAT:?IsModified@CGridCellBase@@UBEHXZ
	DD	FLAT:?IsDropHighlighted@CGridCellBase@@UBEHXZ
	DD	FLAT:??4CGridCellBase@@UAEXABV0@@Z
	DD	FLAT:?Reset@CGridCell@@UAEXXZ
	DD	FLAT:?Draw@CGridCellBase@@UAEHPAVCDC@@HHVCRect@@H@Z
	DD	FLAT:?GetTextRect@CGridCellBase@@UAEHPAUtagRECT@@@Z
	DD	FLAT:?GetTipTextRect@CGridCellBase@@UAEHPAUtagRECT@@@Z
	DD	FLAT:?GetTextExtent@CGridCellBase@@UAE?AVCSize@@PBDPAVCDC@@@Z
	DD	FLAT:?GetCellExtent@CGridCellBase@@UAE?AVCSize@@PAVCDC@@@Z
	DD	FLAT:?Edit@CGridCell@@UAEHHHVCRect@@VCPoint@@II@Z
	DD	FLAT:?ValidateEdit@CGridCellBase@@UAEHPBD@Z
	DD	FLAT:?EndEdit@CGridCell@@UAEXXZ
	DD	FLAT:?PrintCell@CGridCellBase@@UAEHPAVCDC@@HHVCRect@@@Z
	DD	FLAT:?OnEndEdit@CGridCell@@MAEXXZ
	DD	FLAT:?OnMouseEnter@CGridCellBase@@MAEXXZ
	DD	FLAT:?OnMouseOver@CGridCellBase@@MAEXXZ
	DD	FLAT:?OnMouseLeave@CGridCellBase@@MAEXXZ
	DD	FLAT:?OnClick@CGridCellBase@@MAEXVCPoint@@@Z
	DD	FLAT:?OnClickDown@CGridCellBase@@MAEXVCPoint@@@Z
	DD	FLAT:?OnRClick@CGridCellBase@@MAEXVCPoint@@@Z
	DD	FLAT:?OnDblClick@CGridCellBase@@MAEXVCPoint@@@Z
	DD	FLAT:?OnSetCursor@CGridCellBase@@MAEHXZ
CONST	ENDS
;	COMDAT ?classCGridCell@CGridCell@@2UCRuntimeClass@@B
CONST	SEGMENT
?classCGridCell@CGridCell@@2UCRuntimeClass@@B DD FLAT:??_C@_09CLBLKEDE@CGridCell@ ; CGridCell::classCGridCell
	DD	034H
	DD	0ffffH
	DD	FLAT:?CreateObject@CGridCell@@SGPAVCObject@@XZ
	DD	FLAT:?_GetBaseClass@CGridCell@@KGPAUCRuntimeClass@@XZ
	DD	00H
	DD	00H
CONST	ENDS
;	COMDAT ??_R1A@?0A@EA@CFont@@8
rdata$r	SEGMENT
??_R1A@?0A@EA@CFont@@8 DD FLAT:??_R0?AVCFont@@@8	; CFont::`RTTI Base Class Descriptor at (0,-1,0,64)'
	DD	02H
	DD	00H
	DD	0ffffffffH
	DD	00H
	DD	040H
	DD	FLAT:??_R3CFont@@8
rdata$r	ENDS
;	COMDAT ??_R2CFont@@8
rdata$r	SEGMENT
??_R2CFont@@8 DD FLAT:??_R1A@?0A@EA@CFont@@8		; CFont::`RTTI Base Class Array'
	DD	FLAT:??_R1A@?0A@EA@CGdiObject@@8
	DD	FLAT:??_R1A@?0A@EA@CObject@@8
rdata$r	ENDS
;	COMDAT ??_R3CFont@@8
rdata$r	SEGMENT
??_R3CFont@@8 DD 00H					; CFont::`RTTI Class Hierarchy Descriptor'
	DD	00H
	DD	03H
	DD	FLAT:??_R2CFont@@8
rdata$r	ENDS
;	COMDAT ??_R0?AVCFont@@@8
data$rs	SEGMENT
??_R0?AVCFont@@@8 DD FLAT:??_7type_info@@6B@		; CFont `RTTI Type Descriptor'
	DD	00H
	DB	'.?AVCFont@@', 00H
data$rs	ENDS
;	COMDAT ??_R4CFont@@6B@
rdata$r	SEGMENT
??_R4CFont@@6B@ DD 00H					; CFont::`RTTI Complete Object Locator'
	DD	00H
	DD	00H
	DD	FLAT:??_R0?AVCFont@@@8
	DD	FLAT:??_R3CFont@@8
rdata$r	ENDS
;	COMDAT ??_R1A@?0A@EA@CGdiObject@@8
rdata$r	SEGMENT
??_R1A@?0A@EA@CGdiObject@@8 DD FLAT:??_R0?AVCGdiObject@@@8 ; CGdiObject::`RTTI Base Class Descriptor at (0,-1,0,64)'
	DD	01H
	DD	00H
	DD	0ffffffffH
	DD	00H
	DD	040H
	DD	FLAT:??_R3CGdiObject@@8
rdata$r	ENDS
;	COMDAT ??_R2CGdiObject@@8
rdata$r	SEGMENT
??_R2CGdiObject@@8 DD FLAT:??_R1A@?0A@EA@CGdiObject@@8	; CGdiObject::`RTTI Base Class Array'
	DD	FLAT:??_R1A@?0A@EA@CObject@@8
rdata$r	ENDS
;	COMDAT ??_R3CGdiObject@@8
rdata$r	SEGMENT
??_R3CGdiObject@@8 DD 00H				; CGdiObject::`RTTI Class Hierarchy Descriptor'
	DD	00H
	DD	02H
	DD	FLAT:??_R2CGdiObject@@8
rdata$r	ENDS
;	COMDAT ??_R0?AVCGdiObject@@@8
data$rs	SEGMENT
??_R0?AVCGdiObject@@@8 DD FLAT:??_7type_info@@6B@	; CGdiObject `RTTI Type Descriptor'
	DD	00H
	DB	'.?AVCGdiObject@@', 00H
data$rs	ENDS
;	COMDAT ??_R4CGdiObject@@6B@
rdata$r	SEGMENT
??_R4CGdiObject@@6B@ DD 00H				; CGdiObject::`RTTI Complete Object Locator'
	DD	00H
	DD	00H
	DD	FLAT:??_R0?AVCGdiObject@@@8
	DD	FLAT:??_R3CGdiObject@@8
rdata$r	ENDS
;	COMDAT ??_R1A@?0A@EA@CObject@@8
rdata$r	SEGMENT
??_R1A@?0A@EA@CObject@@8 DD FLAT:??_R0?AVCObject@@@8	; CObject::`RTTI Base Class Descriptor at (0,-1,0,64)'
	DD	00H
	DD	00H
	DD	0ffffffffH
	DD	00H
	DD	040H
	DD	FLAT:??_R3CObject@@8
rdata$r	ENDS
;	COMDAT ??_R2CObject@@8
rdata$r	SEGMENT
??_R2CObject@@8 DD FLAT:??_R1A@?0A@EA@CObject@@8	; CObject::`RTTI Base Class Array'
rdata$r	ENDS
;	COMDAT ??_R3CObject@@8
rdata$r	SEGMENT
??_R3CObject@@8 DD 00H					; CObject::`RTTI Class Hierarchy Descriptor'
	DD	00H
	DD	01H
	DD	FLAT:??_R2CObject@@8
rdata$r	ENDS
;	COMDAT ??_R0?AVCObject@@@8
data$rs	SEGMENT
??_R0?AVCObject@@@8 DD FLAT:??_7type_info@@6B@		; CObject `RTTI Type Descriptor'
	DD	00H
	DB	'.?AVCObject@@', 00H
data$rs	ENDS
;	COMDAT ??_C@_0N@OMEMOKLE@?$CFTs?5?$CI?$CFTs?3?$CFd?$CJ@
CONST	SEGMENT
??_C@_0N@OMEMOKLE@?$CFTs?5?$CI?$CFTs?3?$CFd?$CJ@ DB '%Ts (%Ts:%d)', 00H ; `string'
CONST	ENDS
;	COMDAT ??_C@_0BB@HBOOMJBF@?$CFTs?5?$CI?$CFTs?3?$CFd?$CJ?6?$CFTs@
CONST	SEGMENT
??_C@_0BB@HBOOMJBF@?$CFTs?5?$CI?$CFTs?3?$CFd?$CJ?6?$CFTs@ DB '%Ts (%Ts:%d'
	DB	')', 0aH, '%Ts', 00H				; `string'
CONST	ENDS
;	COMDAT ??_C@_0BP@OIEOKIDM@Exception?5thrown?5in?5destructor@
CONST	SEGMENT
??_C@_0BP@OIEOKIDM@Exception?5thrown?5in?5destructor@ DB 'Exception throw'
	DB	'n in destructor', 00H			; `string'
CONST	ENDS
;	COMDAT ??_C@_0HD@JJCHHHNK@C?3?2Program?5Files?5?$CIx86?$CJ?2Microsof@
CONST	SEGMENT
??_C@_0HD@JJCHHHNK@C?3?2Program?5Files?5?$CIx86?$CJ?2Microsof@ DB 'C:\Pro'
	DB	'gram Files (x86)\Microsoft Visual Studio\2019\Community\VC\To'
	DB	'ols\MSVC\14.29.30133\atlmfc\include\afxwin1.inl', 00H ; `string'
CONST	ENDS
;	COMDAT ??_7CFont@@6B@
CONST	SEGMENT
??_7CFont@@6B@ DD FLAT:??_R4CFont@@6B@			; CFont::`vftable'
	DD	FLAT:?GetRuntimeClass@CFont@@UBEPAUCRuntimeClass@@XZ
	DD	FLAT:??_ECFont@@UAEPAXI@Z
	DD	FLAT:?Serialize@CObject@@UAEXAAVCArchive@@@Z
	DD	FLAT:?AssertValid@CObject@@UBEXXZ
	DD	FLAT:?Dump@CObject@@UBEXAAVCDumpContext@@@Z
CONST	ENDS
;	COMDAT ??_7CGdiObject@@6B@
CONST	SEGMENT
??_7CGdiObject@@6B@ DD FLAT:??_R4CGdiObject@@6B@	; CGdiObject::`vftable'
	DD	FLAT:?GetRuntimeClass@CGdiObject@@UBEPAUCRuntimeClass@@XZ
	DD	FLAT:??_ECGdiObject@@UAEPAXI@Z
	DD	FLAT:?Serialize@CObject@@UAEXAAVCArchive@@@Z
	DD	FLAT:?AssertValid@CObject@@UBEXXZ
	DD	FLAT:?Dump@CObject@@UBEXAAVCDumpContext@@@Z
CONST	ENDS
;	COMDAT ??_C@_00CNPNBAHC@@
CONST	SEGMENT
??_C@_00CNPNBAHC@@ DB 00H				; `string'
CONST	ENDS
;	COMDAT ??_R0PAVCException@@@8
data$r	SEGMENT
??_R0PAVCException@@@8 DD FLAT:??_7type_info@@6B@	; CException * `RTTI Type Descriptor'
	DD	00H
	DB	'.PAVCException@@', 00H
data$r	ENDS
;	COMDAT xdata$x
xdata$x	SEGMENT
__unwindtable$??_GCGridDefaultCell@@UAEPAXI@Z DD 0ffffffffH
	DD	FLAT:___std_terminate
__ehfuncinfo$??_GCGridDefaultCell@@UAEPAXI@Z DD 019930522H
	DD	01H
	DD	FLAT:__unwindtable$??_GCGridDefaultCell@@UAEPAXI@Z
	DD	2 DUP(00H)
	DD	2 DUP(00H)
	DD	00H
	DD	05H
xdata$x	ENDS
;	COMDAT xdata$x
xdata$x	SEGMENT
__ehfuncinfo$??1CGridDefaultCell@@UAE@XZ DD 019930522H
	DD	00H
	DD	00H
	DD	2 DUP(00H)
	DD	2 DUP(00H)
	DD	00H
	DD	05H
xdata$x	ENDS
;	COMDAT xdata$x
xdata$x	SEGMENT
__unwindtable$??0CGridDefaultCell@@QAE@XZ DD 0ffffffffH
	DD	FLAT:__unwindfunclet$??0CGridDefaultCell@@QAE@XZ$0
	DD	00H
	DD	FLAT:__unwindfunclet$??0CGridDefaultCell@@QAE@XZ$1
__ehfuncinfo$??0CGridDefaultCell@@QAE@XZ DD 019930522H
	DD	02H
	DD	FLAT:__unwindtable$??0CGridDefaultCell@@QAE@XZ
	DD	2 DUP(00H)
	DD	2 DUP(00H)
	DD	00H
	DD	01H
xdata$x	ENDS
;	COMDAT xdata$x
xdata$x	SEGMENT
__unwindtable$?CreateObject@CGridDefaultCell@@SGPAVCObject@@XZ DD 0ffffffffH
	DD	FLAT:__unwindfunclet$?CreateObject@CGridDefaultCell@@SGPAVCObject@@XZ$0
__ehfuncinfo$?CreateObject@CGridDefaultCell@@SGPAVCObject@@XZ DD 019930522H
	DD	01H
	DD	FLAT:__unwindtable$?CreateObject@CGridDefaultCell@@SGPAVCObject@@XZ
	DD	2 DUP(00H)
	DD	2 DUP(00H)
	DD	00H
	DD	01H
xdata$x	ENDS
;	COMDAT xdata$x
xdata$x	SEGMENT
__unwindtable$?Edit@CGridCell@@UAEHHHVCRect@@VCPoint@@II@Z DD 0ffffffffH
	DD	FLAT:__unwindfunclet$?Edit@CGridCell@@UAEHHHVCRect@@VCPoint@@II@Z$0
__ehfuncinfo$?Edit@CGridCell@@UAEHHHVCRect@@VCPoint@@II@Z DD 019930522H
	DD	01H
	DD	FLAT:__unwindtable$?Edit@CGridCell@@UAEHHHVCRect@@VCPoint@@II@Z
	DD	2 DUP(00H)
	DD	2 DUP(00H)
	DD	00H
	DD	01H
xdata$x	ENDS
;	COMDAT xdata$x
xdata$x	SEGMENT
__unwindtable$??0CGridCell@@QAE@XZ DD 0ffffffffH
	DD	FLAT:__unwindfunclet$??0CGridCell@@QAE@XZ$0
	DD	00H
	DD	FLAT:__unwindfunclet$??0CGridCell@@QAE@XZ$1
__ehfuncinfo$??0CGridCell@@QAE@XZ DD 019930522H
	DD	02H
	DD	FLAT:__unwindtable$??0CGridCell@@QAE@XZ
	DD	2 DUP(00H)
	DD	2 DUP(00H)
	DD	00H
	DD	01H
xdata$x	ENDS
;	COMDAT xdata$x
xdata$x	SEGMENT
__unwindtable$?CreateObject@CGridCell@@SGPAVCObject@@XZ DD 0ffffffffH
	DD	FLAT:__unwindfunclet$?CreateObject@CGridCell@@SGPAVCObject@@XZ$0
__ehfuncinfo$?CreateObject@CGridCell@@SGPAVCObject@@XZ DD 019930522H
	DD	01H
	DD	FLAT:__unwindtable$?CreateObject@CGridCell@@SGPAVCObject@@XZ
	DD	2 DUP(00H)
	DD	2 DUP(00H)
	DD	00H
	DD	01H
xdata$x	ENDS
;	COMDAT xdata$x
xdata$x	SEGMENT
__catchsym$??1CGdiObject@@UAE@XZ$3 DD 00H
	DD	FLAT:??_R0PAVCException@@@8
	DD	0fffffde4H
	DD	FLAT:__catch$??1CGdiObject@@UAE@XZ$0
__tryblocktable$??1CGdiObject@@UAE@XZ DD 00H
	DD	00H
	DD	02H
	DD	01H
	DD	FLAT:__catchsym$??1CGdiObject@@UAE@XZ$3
__unwindtable$??1CGdiObject@@UAE@XZ DD 0ffffffffH
	DD	00H
	DD	0ffffffffH
	DD	00H
	DD	01H
	DD	FLAT:__unwindfunclet$??1CGdiObject@@UAE@XZ$2
__ehfuncinfo$??1CGdiObject@@UAE@XZ DD 019930522H
	DD	03H
	DD	FLAT:__unwindtable$??1CGdiObject@@UAE@XZ
	DD	01H
	DD	FLAT:__tryblocktable$??1CGdiObject@@UAE@XZ
	DD	2 DUP(00H)
	DD	00H
	DD	05H
xdata$x	ENDS
; Function compile flags: /Ogtp
; File C:\Program Files (x86)\Microsoft Visual Studio\2019\Community\VC\Tools\MSVC\14.29.30133\atlmfc\include\afxwin1.inl
;	COMDAT ??__FFont@?8??GetFontObject@CGridCell@@UBEPAVCFont@@XZ@YAXXZ
text$yd	SEGMENT
??__FFont@?8??GetFontObject@CGridCell@@UBEPAVCFont@@XZ@YAXXZ PROC ; `CGridCell::GetFontObject'::`9'::`dynamic atexit destructor for 'Font'', COMDAT

; 155  : 	{ }

  00000	c7 05 00 00 00
	00 00 00 00 00	 mov	 DWORD PTR ?Font@?8??GetFontObject@CGridCell@@UBEPAVCFont@@XZ@4V3@A, OFFSET ??_7CFont@@6B@
  0000a	b9 00 00 00 00	 mov	 ecx, OFFSET ?Font@?8??GetFontObject@CGridCell@@UBEPAVCFont@@XZ@4V3@A
  0000f	e9 00 00 00 00	 jmp	 ??1CGdiObject@@UAE@XZ	; CGdiObject::~CGdiObject
??__FFont@?8??GetFontObject@CGridCell@@UBEPAVCFont@@XZ@YAXXZ ENDP ; `CGridCell::GetFontObject'::`9'::`dynamic atexit destructor for 'Font''
text$yd	ENDS
; Function compile flags: /Ogtp
; File D:\git\src\IBK\IBK_DRFN\ProjSrc\SrcChartEx\ChartAddIn\ChartPatternAddIn\Control_Grid\GridCell.cpp
; File C:\Program Files (x86)\Microsoft Visual Studio\2019\Community\VC\Tools\MSVC\14.29.30133\atlmfc\include\afxwin1.inl
; File D:\git\src\IBK\IBK_DRFN\ProjSrc\SrcChartEx\ChartAddIn\ChartPatternAddIn\Control_Grid\GridCell.cpp
; File C:\Program Files (x86)\Microsoft Visual Studio\2019\Community\VC\Tools\MSVC\14.29.30133\atlmfc\include\afx.inl
;	COMDAT ??_GCGridDefaultCell@@UAEPAXI@Z
_TEXT	SEGMENT
__$EHRec$ = -12						; size = 12
___flags$ = 8						; size = 4
??_GCGridDefaultCell@@UAEPAXI@Z PROC			; CGridDefaultCell::`scalar deleting destructor', COMDAT
; _this$ = ecx
  00000	55		 push	 ebp
  00001	8b ec		 mov	 ebp, esp
  00003	6a ff		 push	 -1
  00005	68 00 00 00 00	 push	 __ehhandler$??_GCGridDefaultCell@@UAEPAXI@Z
  0000a	64 a1 00 00 00
	00		 mov	 eax, DWORD PTR fs:0
  00010	50		 push	 eax
  00011	56		 push	 esi
  00012	57		 push	 edi
  00013	a1 00 00 00 00	 mov	 eax, DWORD PTR ___security_cookie
  00018	33 c5		 xor	 eax, ebp
  0001a	50		 push	 eax
  0001b	8d 45 f4	 lea	 eax, DWORD PTR __$EHRec$[ebp]
  0001e	64 a3 00 00 00
	00		 mov	 DWORD PTR fs:0, eax
  00024	8b f9		 mov	 edi, ecx
; File D:\git\src\IBK\IBK_DRFN\ProjSrc\SrcChartEx\ChartAddIn\ChartPatternAddIn\Control_Grid\GridCell.cpp

; 234  :     m_Font.DeleteObject(); 

  00026	8d 4f 3c	 lea	 ecx, DWORD PTR [edi+60]
  00029	c7 45 fc 00 00
	00 00		 mov	 DWORD PTR __$EHRec$[ebp+8], 0
  00030	c7 07 00 00 00
	00		 mov	 DWORD PTR [edi], OFFSET ??_7CGridDefaultCell@@6B@
  00036	e8 00 00 00 00	 call	 ?DeleteObject@CGdiObject@@QAEHXZ ; CGdiObject::DeleteObject
; File C:\Program Files (x86)\Microsoft Visual Studio\2019\Community\VC\Tools\MSVC\14.29.30133\atlmfc\include\afxwin1.inl

; 155  : 	{ }

  0003b	8d 4f 3c	 lea	 ecx, DWORD PTR [edi+60]
  0003e	c7 47 3c 00 00
	00 00		 mov	 DWORD PTR [edi+60], OFFSET ??_7CFont@@6B@
  00045	e8 00 00 00 00	 call	 ??1CGdiObject@@UAE@XZ	; CGdiObject::~CGdiObject
; File D:\git\src\IBK\IBK_DRFN\ProjSrc\SrcChartEx\ChartAddIn\ChartPatternAddIn\Control_Grid\GridCell.cpp

; 58   :     delete m_plfFont;

  0004a	6a 3c		 push	 60			; 0000003cH
  0004c	ff 77 20	 push	 DWORD PTR [edi+32]
  0004f	c7 07 00 00 00
	00		 mov	 DWORD PTR [edi], OFFSET ??_7CGridCell@@6B@
  00055	e8 00 00 00 00	 call	 ??3@YAXPAXI@Z		; operator delete
  0005a	83 c4 08	 add	 esp, 8

; 59   : }

  0005d	8d 4f 08	 lea	 ecx, DWORD PTR [edi+8]
  00060	ff 15 00 00 00
	00		 call	 DWORD PTR __imp_??1?$CStringT@DV?$StrTraitMFC_DLL@DV?$ChTraitsCRT@D@ATL@@@@@ATL@@QAE@XZ
  00066	8b cf		 mov	 ecx, edi
  00068	e8 00 00 00 00	 call	 ??1CGridCellBase@@UAE@XZ ; CGridCellBase::~CGridCellBase
  0006d	8b 45 08	 mov	 eax, DWORD PTR ___flags$[ebp]
  00070	a8 01		 test	 al, 1
  00072	74 1a		 je	 SHORT $LN18@scalar
  00074	a8 04		 test	 al, 4
  00076	75 0b		 jne	 SHORT $LN3@scalar
; File C:\Program Files (x86)\Microsoft Visual Studio\2019\Community\VC\Tools\MSVC\14.29.30133\atlmfc\include\afx.inl

; 112  : 	{ ::operator delete(p); }

  00078	57		 push	 edi
  00079	e8 00 00 00 00	 call	 ??3@YAXPAX@Z		; operator delete
  0007e	83 c4 04	 add	 esp, 4
  00081	eb 0b		 jmp	 SHORT $LN18@scalar
$LN3@scalar:
  00083	6a 48		 push	 72			; 00000048H
  00085	57		 push	 edi
  00086	e8 00 00 00 00	 call	 ?__global_delete@@YAXPAXI@Z ; __global_delete
  0008b	83 c4 08	 add	 esp, 8
$LN18@scalar:
  0008e	8b c7		 mov	 eax, edi
  00090	8b 4d f4	 mov	 ecx, DWORD PTR __$EHRec$[ebp]
  00093	64 89 0d 00 00
	00 00		 mov	 DWORD PTR fs:0, ecx
  0009a	59		 pop	 ecx
  0009b	5f		 pop	 edi
  0009c	5e		 pop	 esi
  0009d	8b e5		 mov	 esp, ebp
  0009f	5d		 pop	 ebp
  000a0	c2 04 00	 ret	 4
  000a3	cc		 int	 3
  000a4	cc		 int	 3
  000a5	cc		 int	 3
  000a6	cc		 int	 3
  000a7	cc		 int	 3
_TEXT	ENDS
;	COMDAT text$x
text$x	SEGMENT
__ehhandler$??_GCGridDefaultCell@@UAEPAXI@Z:
  00000	90		 npad	 1
  00001	90		 npad	 1
  00002	8b 54 24 08	 mov	 edx, DWORD PTR [esp+8]
  00006	8d 42 0c	 lea	 eax, DWORD PTR [edx+12]
  00009	8b 4a f4	 mov	 ecx, DWORD PTR [edx-12]
  0000c	33 c8		 xor	 ecx, eax
  0000e	e8 00 00 00 00	 call	 @__security_check_cookie@4
  00013	b8 00 00 00 00	 mov	 eax, OFFSET __ehfuncinfo$??_GCGridDefaultCell@@UAEPAXI@Z
  00018	e9 00 00 00 00	 jmp	 ___CxxFrameHandler3
text$x	ENDS
??_GCGridDefaultCell@@UAEPAXI@Z ENDP			; CGridDefaultCell::`scalar deleting destructor'
; Function compile flags: /Ogtp
; File D:\git\src\IBK\IBK_DRFN\ProjSrc\SrcChartEx\ChartAddIn\ChartPatternAddIn\Control_Grid\GridCell.cpp
;	COMDAT ?GetFontObject@CGridDefaultCell@@UBEPAVCFont@@XZ
_TEXT	SEGMENT
?GetFontObject@CGridDefaultCell@@UBEPAVCFont@@XZ PROC	; CGridDefaultCell::GetFontObject, COMDAT
; _this$ = ecx

; 276  :     ASSERT(m_Font.GetSafeHandle());
; 277  :     return (CFont*) &m_Font; 

  00000	8d 41 3c	 lea	 eax, DWORD PTR [ecx+60]

; 278  : }

  00003	c3		 ret	 0
?GetFontObject@CGridDefaultCell@@UBEPAVCFont@@XZ ENDP	; CGridDefaultCell::GetFontObject
_TEXT	ENDS
; Function compile flags: /Ogtp
; File D:\git\src\IBK\IBK_DRFN\ProjSrc\SrcChartEx\ChartAddIn\ChartPatternAddIn\Control_Grid\GridCell.cpp
;	COMDAT ?GetFont@CGridDefaultCell@@UBEPAUtagLOGFONTA@@XZ
_TEXT	SEGMENT
?GetFont@CGridDefaultCell@@UBEPAUtagLOGFONTA@@XZ PROC	; CGridDefaultCell::GetFont, COMDAT
; _this$ = ecx

; 270  :     ASSERT(m_plfFont);  // This is the default - it CAN'T be NULL!
; 271  :     return m_plfFont;

  00000	8b 41 20	 mov	 eax, DWORD PTR [ecx+32]

; 272  : }

  00003	c3		 ret	 0
?GetFont@CGridDefaultCell@@UBEPAUtagLOGFONTA@@XZ ENDP	; CGridDefaultCell::GetFont
_TEXT	ENDS
; Function compile flags: /Ogtp
; File D:\git\src\IBK\IBK_DRFN\ProjSrc\SrcChartEx\ChartAddIn\ChartPatternAddIn\Control_Grid\GridCell.cpp
; File C:\Program Files (x86)\Microsoft Visual Studio\2019\Community\VC\Tools\MSVC\14.29.30133\atlmfc\include\afxwin1.inl
; File D:\git\src\IBK\IBK_DRFN\ProjSrc\SrcChartEx\ChartAddIn\ChartPatternAddIn\Control_Grid\GridCell.cpp
; File C:\Program Files (x86)\Microsoft Visual Studio\2019\Community\VC\Tools\MSVC\14.29.30133\atlmfc\include\afxwin1.inl
; File D:\git\src\IBK\IBK_DRFN\ProjSrc\SrcChartEx\ChartAddIn\ChartPatternAddIn\Control_Grid\GridCell.cpp
; File C:\Program Files (x86)\Microsoft Visual Studio\2019\Community\VC\Tools\MSVC\14.29.30133\atlmfc\include\afxwin1.inl
; File D:\git\src\IBK\IBK_DRFN\ProjSrc\SrcChartEx\ChartAddIn\ChartPatternAddIn\Control_Grid\GridCell.cpp
;	COMDAT ?SetFont@CGridDefaultCell@@UAEXPBUtagLOGFONTA@@@Z
_TEXT	SEGMENT
_size$1 = -8						; size = 8
_size$2 = -8						; size = 8
_pDC$1$ = 8						; size = 4
_plf$ = 8						; size = 4
?SetFont@CGridDefaultCell@@UAEXPBUtagLOGFONTA@@@Z PROC	; CGridDefaultCell::SetFont, COMDAT
; _this$ = ecx

; 238  : {

  00000	55		 push	 ebp
  00001	8b ec		 mov	 ebp, esp
  00003	83 ec 08	 sub	 esp, 8
  00006	53		 push	 ebx
  00007	56		 push	 esi

; 239  :     ASSERT(plf);
; 240  : 
; 241  :     if (!plf) return;

  00008	8b 75 08	 mov	 esi, DWORD PTR _plf$[ebp]
  0000b	8b d9		 mov	 ebx, ecx
  0000d	85 f6		 test	 esi, esi
  0000f	0f 84 fb 00 00
	00		 je	 $LN4@SetFont

; 242  : 
; 243  :     m_Font.DeleteObject();

  00015	57		 push	 edi
  00016	8d 7b 3c	 lea	 edi, DWORD PTR [ebx+60]
  00019	8b cf		 mov	 ecx, edi
  0001b	e8 00 00 00 00	 call	 ?DeleteObject@CGdiObject@@QAEHXZ ; CGdiObject::DeleteObject
; File C:\Program Files (x86)\Microsoft Visual Studio\2019\Community\VC\Tools\MSVC\14.29.30133\atlmfc\include\afxwin1.inl

; 157  : 	{ return Attach(::CreateFontIndirect(lpLogFont)); }

  00020	56		 push	 esi
  00021	ff 15 00 00 00
	00		 call	 DWORD PTR __imp__CreateFontIndirectA@4
  00027	50		 push	 eax
  00028	8b cf		 mov	 ecx, edi
  0002a	e8 00 00 00 00	 call	 ?Attach@CGdiObject@@QAEHPAX@Z ; CGdiObject::Attach
; File D:\git\src\IBK\IBK_DRFN\ProjSrc\SrcChartEx\ChartAddIn\ChartPatternAddIn\Control_Grid\GridCell.cpp

; 97   :         if (!m_plfFont)

  0002f	8b 4b 20	 mov	 ecx, DWORD PTR [ebx+32]
  00032	85 c9		 test	 ecx, ecx
  00034	75 13		 jne	 SHORT $LN30@SetFont

; 98   :             m_plfFont = new LOGFONT;

  00036	6a 3c		 push	 60			; 0000003cH
  00038	e8 00 00 00 00	 call	 ??2@YAPAXI@Z		; operator new
  0003d	8b c8		 mov	 ecx, eax
  0003f	83 c4 04	 add	 esp, 4
  00042	89 4b 20	 mov	 DWORD PTR [ebx+32], ecx

; 99   :         if (m_plfFont)

  00045	85 c9		 test	 ecx, ecx
  00047	74 26		 je	 SHORT $LN12@SetFont
$LN30@SetFont:

; 100  :             memcpy(m_plfFont, plf, sizeof(LOGFONT)); 

  00049	0f 10 06	 movups	 xmm0, XMMWORD PTR [esi]
  0004c	0f 11 01	 movups	 XMMWORD PTR [ecx], xmm0
  0004f	0f 10 46 10	 movups	 xmm0, XMMWORD PTR [esi+16]
  00053	0f 11 41 10	 movups	 XMMWORD PTR [ecx+16], xmm0
  00057	0f 10 46 20	 movups	 xmm0, XMMWORD PTR [esi+32]
  0005b	0f 11 41 20	 movups	 XMMWORD PTR [ecx+32], xmm0
  0005f	f3 0f 7e 46 30	 movq	 xmm0, QWORD PTR [esi+48]
  00064	66 0f d6 41 30	 movq	 QWORD PTR [ecx+48], xmm0
  00069	8b 46 38	 mov	 eax, DWORD PTR [esi+56]
  0006c	89 41 38	 mov	 DWORD PTR [ecx+56], eax
$LN12@SetFont:

; 244  :     m_Font.CreateFontIndirect(plf);
; 245  : 
; 246  :     CGridCell::SetFont(plf);
; 247  : 
; 248  :     // Get the font size and hence the default cell size
; 249  :     CDC* pDC = CDC::FromHandle(::GetDC(NULL));

  0006f	6a 00		 push	 0
  00071	ff 15 00 00 00
	00		 call	 DWORD PTR __imp__GetDC@4
  00077	50		 push	 eax
  00078	e8 00 00 00 00	 call	 ?FromHandle@CDC@@SGPAV1@PAUHDC__@@@Z ; CDC::FromHandle
  0007d	8b f0		 mov	 esi, eax
  0007f	89 75 08	 mov	 DWORD PTR _pDC$1$[ebp], esi

; 250  :     if (pDC)

  00082	85 f6		 test	 esi, esi
  00084	74 72		 je	 SHORT $LN3@SetFont

; 251  :     {
; 252  :         CFont* pOldFont = pDC->SelectObject(&m_Font);

  00086	8b 16		 mov	 edx, DWORD PTR [esi]
  00088	8b ce		 mov	 ecx, esi
  0008a	57		 push	 edi
  0008b	ff 52 30	 call	 DWORD PTR [edx+48]
  0008e	8b f8		 mov	 edi, eax
; File C:\Program Files (x86)\Microsoft Visual Studio\2019\Community\VC\Tools\MSVC\14.29.30133\atlmfc\include\afxwin1.inl

; 632  : 		VERIFY(::GetTextExtentPoint32(m_hAttribDC, lpszString, nCount, &size));

  00090	8d 45 f8	 lea	 eax, DWORD PTR _size$2[ebp]
  00093	50		 push	 eax
  00094	6a 01		 push	 1
  00096	68 00 00 00 00	 push	 OFFSET ??_C@_01CLKCMJKC@?5@
  0009b	ff 76 08	 push	 DWORD PTR [esi+8]
  0009e	8b 35 00 00 00
	00		 mov	 esi, DWORD PTR __imp__GetTextExtentPoint32A@16
  000a4	ff d6		 call	 esi
; File D:\git\src\IBK\IBK_DRFN\ProjSrc\SrcChartEx\ChartAddIn\ChartPatternAddIn\Control_Grid\GridCell.cpp

; 254  :         SetMargin(pDC->GetTextExtent(_T(" "), 1).cx);

  000a6	8b 03		 mov	 eax, DWORD PTR [ebx]
  000a8	8b cb		 mov	 ecx, ebx
  000aa	ff 75 f8	 push	 DWORD PTR _size$2[ebp]
  000ad	ff 50 34	 call	 DWORD PTR [eax+52]
; File C:\Program Files (x86)\Microsoft Visual Studio\2019\Community\VC\Tools\MSVC\14.29.30133\atlmfc\include\afxwin1.inl

; 632  : 		VERIFY(::GetTextExtentPoint32(m_hAttribDC, lpszString, nCount, &size));

  000b0	8d 45 f8	 lea	 eax, DWORD PTR _size$1[ebp]
  000b3	50		 push	 eax
  000b4	8b 45 08	 mov	 eax, DWORD PTR _pDC$1$[ebp]
  000b7	6a 0e		 push	 14			; 0000000eH
  000b9	68 00 00 00 00	 push	 OFFSET ??_C@_0P@PLKEPLKE@?5XXXXXXXXXXXX?5@
  000be	ff 70 08	 push	 DWORD PTR [eax+8]
  000c1	ff d6		 call	 esi
; File D:\git\src\IBK\IBK_DRFN\ProjSrc\SrcChartEx\ChartAddIn\ChartPatternAddIn\Control_Grid\GridCell.cpp

; 255  :         m_Size = pDC->GetTextExtent(_T(" XXXXXXXXXXXX "), 14);

  000c3	8b 45 f8	 mov	 eax, DWORD PTR _size$1[ebp]
  000c6	8b 4d fc	 mov	 ecx, DWORD PTR _size$1[ebp+4]
  000c9	89 43 34	 mov	 DWORD PTR [ebx+52], eax

; 256  :         m_Size.cy = (m_Size.cy * 3) / 2;

  000cc	8b c1		 mov	 eax, ecx

; 257  : 
; 258  :         pDC->SelectObject(pOldFont);

  000ce	57		 push	 edi
  000cf	8d 04 40	 lea	 eax, DWORD PTR [eax+eax*2]
  000d2	99		 cdq
  000d3	2b c2		 sub	 eax, edx
  000d5	d1 f8		 sar	 eax, 1
  000d7	89 43 38	 mov	 DWORD PTR [ebx+56], eax
  000da	8b 5d 08	 mov	 ebx, DWORD PTR _pDC$1$[ebp]
  000dd	8b cb		 mov	 ecx, ebx
  000df	8b 03		 mov	 eax, DWORD PTR [ebx]
  000e1	ff 50 30	 call	 DWORD PTR [eax+48]

; 259  :         ReleaseDC(NULL, pDC->GetSafeHdc());

  000e4	ff 73 04	 push	 DWORD PTR [ebx+4]
  000e7	6a 00		 push	 0
  000e9	ff 15 00 00 00
	00		 call	 DWORD PTR __imp__ReleaseDC@8
  000ef	5f		 pop	 edi
  000f0	5e		 pop	 esi

; 265  :     }
; 266  : }

  000f1	5b		 pop	 ebx
  000f2	8b e5		 mov	 esp, ebp
  000f4	5d		 pop	 ebp
  000f5	c2 04 00	 ret	 4
$LN3@SetFont:

; 260  :     }
; 261  :     else
; 262  :     {
; 263  :         SetMargin(3);

  000f8	8b 03		 mov	 eax, DWORD PTR [ebx]
  000fa	8b cb		 mov	 ecx, ebx
  000fc	6a 03		 push	 3
  000fe	ff 50 34	 call	 DWORD PTR [eax+52]

; 264  :         m_Size = CSize(40,16);

  00101	c7 43 34 28 00
	00 00		 mov	 DWORD PTR [ebx+52], 40	; 00000028H
  00108	c7 43 38 10 00
	00 00		 mov	 DWORD PTR [ebx+56], 16	; 00000010H
  0010f	5f		 pop	 edi
$LN4@SetFont:

; 265  :     }
; 266  : }

  00110	5e		 pop	 esi
  00111	5b		 pop	 ebx
  00112	8b e5		 mov	 esp, ebp
  00114	5d		 pop	 ebp
  00115	c2 04 00	 ret	 4
?SetFont@CGridDefaultCell@@UAEXPBUtagLOGFONTA@@@Z ENDP	; CGridDefaultCell::SetFont
_TEXT	ENDS
; Function compile flags: /Ogtp
; File D:\git\src\IBK\IBK_DRFN\ProjSrc\SrcChartEx\ChartAddIn\ChartPatternAddIn\Control_Grid\GridCell.h
;	COMDAT ?SetCoords@CGridDefaultCell@@UAEXHH@Z
_TEXT	SEGMENT
___formal$ = 8						; size = 4
___formal$ = 12						; size = 4
?SetCoords@CGridDefaultCell@@UAEXHH@Z PROC		; CGridDefaultCell::SetCoords, COMDAT
; _this$ = ecx

; 129  :     virtual void     SetCoords( int /*row*/, int /*col*/)   { ASSERT(FALSE);         }

  00000	c2 08 00	 ret	 8
?SetCoords@CGridDefaultCell@@UAEXHH@Z ENDP		; CGridDefaultCell::SetCoords
_TEXT	ENDS
; Function compile flags: /Ogtp
; File D:\git\src\IBK\IBK_DRFN\ProjSrc\SrcChartEx\ChartAddIn\ChartPatternAddIn\Control_Grid\GridCell.h
;	COMDAT ?GetState@CGridDefaultCell@@UBEKXZ
_TEXT	SEGMENT
?GetState@CGridDefaultCell@@UBEKXZ PROC			; CGridDefaultCell::GetState, COMDAT
; _this$ = ecx

; 128  :     virtual DWORD    GetState() const                       { return CGridCell::GetState()|GVIS_READONLY; }

  00000	8b 41 04	 mov	 eax, DWORD PTR [ecx+4]
  00003	83 c8 08	 or	 eax, 8
  00006	c3		 ret	 0
?GetState@CGridDefaultCell@@UBEKXZ ENDP			; CGridDefaultCell::GetState
_TEXT	ENDS
; Function compile flags: /Ogtp
; File D:\git\src\IBK\IBK_DRFN\ProjSrc\SrcChartEx\ChartAddIn\ChartPatternAddIn\Control_Grid\GridCell.h
;	COMDAT ?SetState@CGridDefaultCell@@UAEXK@Z
_TEXT	SEGMENT
___formal$ = 8						; size = 4
?SetState@CGridDefaultCell@@UAEXK@Z PROC		; CGridDefaultCell::SetState, COMDAT
; _this$ = ecx

; 127  :     virtual void     SetState(DWORD /*nState*/)             { ASSERT(FALSE);         }

  00000	c2 04 00	 ret	 4
?SetState@CGridDefaultCell@@UAEXK@Z ENDP		; CGridDefaultCell::SetState
_TEXT	ENDS
; Function compile flags: /Ogtp
; File D:\git\src\IBK\IBK_DRFN\ProjSrc\SrcChartEx\ChartAddIn\ChartPatternAddIn\Control_Grid\GridCell.h
;	COMDAT ?SetData@CGridDefaultCell@@UAEXJ@Z
_TEXT	SEGMENT
___formal$ = 8						; size = 4
?SetData@CGridDefaultCell@@UAEXJ@Z PROC			; CGridDefaultCell::SetData, COMDAT
; _this$ = ecx

; 126  :     virtual void     SetData(LPARAM /*lParam*/)             { ASSERT(FALSE);         }      

  00000	c2 04 00	 ret	 4
?SetData@CGridDefaultCell@@UAEXJ@Z ENDP			; CGridDefaultCell::SetData
_TEXT	ENDS
; Function compile flags: /Ogtp
; File D:\git\src\IBK\IBK_DRFN\ProjSrc\SrcChartEx\ChartAddIn\ChartPatternAddIn\Control_Grid\GridCell.h
;	COMDAT ?SetHeight@CGridDefaultCell@@UAEXH@Z
_TEXT	SEGMENT
_nHeight$ = 8						; size = 4
?SetHeight@CGridDefaultCell@@UAEXH@Z PROC		; CGridDefaultCell::SetHeight, COMDAT
; _this$ = ecx

; 123  :     virtual void  SetHeight(int nHeight)                { m_Size.cy = nHeight;   }

  00000	55		 push	 ebp
  00001	8b ec		 mov	 ebp, esp
  00003	8b 45 08	 mov	 eax, DWORD PTR _nHeight$[ebp]
  00006	89 41 38	 mov	 DWORD PTR [ecx+56], eax
  00009	5d		 pop	 ebp
  0000a	c2 04 00	 ret	 4
?SetHeight@CGridDefaultCell@@UAEXH@Z ENDP		; CGridDefaultCell::SetHeight
_TEXT	ENDS
; Function compile flags: /Ogtp
; File D:\git\src\IBK\IBK_DRFN\ProjSrc\SrcChartEx\ChartAddIn\ChartPatternAddIn\Control_Grid\GridCell.h
;	COMDAT ?SetWidth@CGridDefaultCell@@UAEXH@Z
_TEXT	SEGMENT
_nWidth$ = 8						; size = 4
?SetWidth@CGridDefaultCell@@UAEXH@Z PROC		; CGridDefaultCell::SetWidth, COMDAT
; _this$ = ecx

; 122  :     virtual void  SetWidth(int nWidth)                  { m_Size.cx = nWidth;    }

  00000	55		 push	 ebp
  00001	8b ec		 mov	 ebp, esp
  00003	8b 45 08	 mov	 eax, DWORD PTR _nWidth$[ebp]
  00006	89 41 34	 mov	 DWORD PTR [ecx+52], eax
  00009	5d		 pop	 ebp
  0000a	c2 04 00	 ret	 4
?SetWidth@CGridDefaultCell@@UAEXH@Z ENDP		; CGridDefaultCell::SetWidth
_TEXT	ENDS
; Function compile flags: /Ogtp
; File D:\git\src\IBK\IBK_DRFN\ProjSrc\SrcChartEx\ChartAddIn\ChartPatternAddIn\Control_Grid\GridCell.h
;	COMDAT ?GetHeight@CGridDefaultCell@@UBEHXZ
_TEXT	SEGMENT
?GetHeight@CGridDefaultCell@@UBEHXZ PROC		; CGridDefaultCell::GetHeight, COMDAT
; _this$ = ecx

; 121  :     virtual int   GetHeight() const                     { return m_Size.cy;      }

  00000	8b 41 38	 mov	 eax, DWORD PTR [ecx+56]
  00003	c3		 ret	 0
?GetHeight@CGridDefaultCell@@UBEHXZ ENDP		; CGridDefaultCell::GetHeight
_TEXT	ENDS
; Function compile flags: /Ogtp
; File D:\git\src\IBK\IBK_DRFN\ProjSrc\SrcChartEx\ChartAddIn\ChartPatternAddIn\Control_Grid\GridCell.h
;	COMDAT ?GetWidth@CGridDefaultCell@@UBEHXZ
_TEXT	SEGMENT
?GetWidth@CGridDefaultCell@@UBEHXZ PROC			; CGridDefaultCell::GetWidth, COMDAT
; _this$ = ecx

; 120  :     virtual int   GetWidth() const                      { return m_Size.cx;      }

  00000	8b 41 34	 mov	 eax, DWORD PTR [ecx+52]
  00003	c3		 ret	 0
?GetWidth@CGridDefaultCell@@UBEHXZ ENDP			; CGridDefaultCell::GetWidth
_TEXT	ENDS
; Function compile flags: /Ogtp
; File D:\git\src\IBK\IBK_DRFN\ProjSrc\SrcChartEx\ChartAddIn\ChartPatternAddIn\Control_Grid\GridCell.h
;	COMDAT ?SetStyle@CGridDefaultCell@@UAEXK@Z
_TEXT	SEGMENT
_dwStyle$ = 8						; size = 4
?SetStyle@CGridDefaultCell@@UAEXK@Z PROC		; CGridDefaultCell::SetStyle, COMDAT
; _this$ = ecx

; 119  :     virtual void  SetStyle(DWORD dwStyle)               { m_dwStyle = dwStyle;   }

  00000	55		 push	 ebp
  00001	8b ec		 mov	 ebp, esp
  00003	8b 45 08	 mov	 eax, DWORD PTR _dwStyle$[ebp]
  00006	89 41 44	 mov	 DWORD PTR [ecx+68], eax
  00009	5d		 pop	 ebp
  0000a	c2 04 00	 ret	 4
?SetStyle@CGridDefaultCell@@UAEXK@Z ENDP		; CGridDefaultCell::SetStyle
_TEXT	ENDS
; Function compile flags: /Ogtp
; File D:\git\src\IBK\IBK_DRFN\ProjSrc\SrcChartEx\ChartAddIn\ChartPatternAddIn\Control_Grid\GridCell.h
;	COMDAT ?GetStyle@CGridDefaultCell@@UBEKXZ
_TEXT	SEGMENT
?GetStyle@CGridDefaultCell@@UBEKXZ PROC			; CGridDefaultCell::GetStyle, COMDAT
; _this$ = ecx

; 118  :     virtual DWORD GetStyle() const                      { return m_dwStyle;      }

  00000	8b 41 44	 mov	 eax, DWORD PTR [ecx+68]
  00003	c3		 ret	 0
?GetStyle@CGridDefaultCell@@UBEKXZ ENDP			; CGridDefaultCell::GetStyle
_TEXT	ENDS
; Function compile flags: /Ogtp
; File D:\git\src\IBK\IBK_DRFN\ProjSrc\SrcChartEx\ChartAddIn\ChartPatternAddIn\Control_Grid\GridCell.cpp
; File C:\Program Files (x86)\Microsoft Visual Studio\2019\Community\VC\Tools\MSVC\14.29.30133\atlmfc\include\afxwin1.inl
; File D:\git\src\IBK\IBK_DRFN\ProjSrc\SrcChartEx\ChartAddIn\ChartPatternAddIn\Control_Grid\GridCell.cpp
;	COMDAT ??1CGridDefaultCell@@UAE@XZ
_TEXT	SEGMENT
__$EHRec$ = -12						; size = 12
??1CGridDefaultCell@@UAE@XZ PROC			; CGridDefaultCell::~CGridDefaultCell, COMDAT
; _this$ = ecx

; 233  : {

  00000	55		 push	 ebp
  00001	8b ec		 mov	 ebp, esp
  00003	6a ff		 push	 -1
  00005	68 00 00 00 00	 push	 __ehhandler$??1CGridDefaultCell@@UAE@XZ
  0000a	64 a1 00 00 00
	00		 mov	 eax, DWORD PTR fs:0
  00010	50		 push	 eax
  00011	56		 push	 esi
  00012	57		 push	 edi
  00013	a1 00 00 00 00	 mov	 eax, DWORD PTR ___security_cookie
  00018	33 c5		 xor	 eax, ebp
  0001a	50		 push	 eax
  0001b	8d 45 f4	 lea	 eax, DWORD PTR __$EHRec$[ebp]
  0001e	64 a3 00 00 00
	00		 mov	 DWORD PTR fs:0, eax
  00024	8b f9		 mov	 edi, ecx

; 234  :     m_Font.DeleteObject(); 

  00026	8d 4f 3c	 lea	 ecx, DWORD PTR [edi+60]
  00029	c7 07 00 00 00
	00		 mov	 DWORD PTR [edi], OFFSET ??_7CGridDefaultCell@@6B@
  0002f	e8 00 00 00 00	 call	 ?DeleteObject@CGdiObject@@QAEHXZ ; CGdiObject::DeleteObject
; File C:\Program Files (x86)\Microsoft Visual Studio\2019\Community\VC\Tools\MSVC\14.29.30133\atlmfc\include\afxwin1.inl

; 155  : 	{ }

  00034	8d 4f 3c	 lea	 ecx, DWORD PTR [edi+60]
  00037	c7 47 3c 00 00
	00 00		 mov	 DWORD PTR [edi+60], OFFSET ??_7CFont@@6B@
  0003e	e8 00 00 00 00	 call	 ??1CGdiObject@@UAE@XZ	; CGdiObject::~CGdiObject
; File D:\git\src\IBK\IBK_DRFN\ProjSrc\SrcChartEx\ChartAddIn\ChartPatternAddIn\Control_Grid\GridCell.cpp

; 58   :     delete m_plfFont;

  00043	6a 3c		 push	 60			; 0000003cH
  00045	ff 77 20	 push	 DWORD PTR [edi+32]
  00048	c7 07 00 00 00
	00		 mov	 DWORD PTR [edi], OFFSET ??_7CGridCell@@6B@
  0004e	e8 00 00 00 00	 call	 ??3@YAXPAXI@Z		; operator delete
  00053	83 c4 08	 add	 esp, 8

; 59   : }

  00056	8d 4f 08	 lea	 ecx, DWORD PTR [edi+8]
  00059	ff 15 00 00 00
	00		 call	 DWORD PTR __imp_??1?$CStringT@DV?$StrTraitMFC_DLL@DV?$ChTraitsCRT@D@ATL@@@@@ATL@@QAE@XZ
  0005f	8b cf		 mov	 ecx, edi
  00061	e8 00 00 00 00	 call	 ??1CGridCellBase@@UAE@XZ ; CGridCellBase::~CGridCellBase

; 235  : }

  00066	8b 4d f4	 mov	 ecx, DWORD PTR __$EHRec$[ebp]
  00069	64 89 0d 00 00
	00 00		 mov	 DWORD PTR fs:0, ecx
  00070	59		 pop	 ecx
  00071	5f		 pop	 edi
  00072	5e		 pop	 esi
  00073	8b e5		 mov	 esp, ebp
  00075	5d		 pop	 ebp
  00076	c3		 ret	 0
  00077	cc		 int	 3
  00078	cc		 int	 3
  00079	cc		 int	 3
  0007a	cc		 int	 3
  0007b	cc		 int	 3
_TEXT	ENDS
;	COMDAT text$x
text$x	SEGMENT
__ehhandler$??1CGridDefaultCell@@UAE@XZ:
  00000	90		 npad	 1
  00001	90		 npad	 1
  00002	8b 54 24 08	 mov	 edx, DWORD PTR [esp+8]
  00006	8d 42 0c	 lea	 eax, DWORD PTR [edx+12]
  00009	8b 4a f4	 mov	 ecx, DWORD PTR [edx-12]
  0000c	33 c8		 xor	 ecx, eax
  0000e	e8 00 00 00 00	 call	 @__security_check_cookie@4
  00013	b8 00 00 00 00	 mov	 eax, OFFSET __ehfuncinfo$??1CGridDefaultCell@@UAE@XZ
  00018	e9 00 00 00 00	 jmp	 ___CxxFrameHandler3
text$x	ENDS
??1CGridDefaultCell@@UAE@XZ ENDP			; CGridDefaultCell::~CGridDefaultCell
; Function compile flags: /Ogtp
; File D:\git\src\IBK\IBK_DRFN\ProjSrc\SrcChartEx\ChartAddIn\ChartPatternAddIn\Control_Grid\GridCell.cpp
; File C:\Program Files (x86)\Microsoft Visual Studio\2019\Community\VC\Tools\MSVC\14.29.30133\atlmfc\include\atltypes.h
; File D:\git\src\IBK\IBK_DRFN\ProjSrc\SrcChartEx\ChartAddIn\ChartPatternAddIn\Control_Grid\GridCell.cpp
; File C:\Program Files (x86)\Microsoft Visual Studio\2019\Community\VC\Tools\MSVC\14.29.30133\atlmfc\include\afxwin1.inl
; File D:\git\src\IBK\IBK_DRFN\ProjSrc\SrcChartEx\ChartAddIn\ChartPatternAddIn\Control_Grid\GridCell.cpp
; File C:\Program Files (x86)\Microsoft Visual Studio\2019\Community\VC\Tools\MSVC\14.29.30133\atlmfc\include\afxwin1.inl
; File D:\git\src\IBK\IBK_DRFN\ProjSrc\SrcChartEx\ChartAddIn\ChartPatternAddIn\Control_Grid\GridCell.cpp
; File C:\Program Files (x86)\Microsoft Visual Studio\2019\Community\VC\Tools\MSVC\14.29.30133\atlmfc\include\afxwin1.inl
; File D:\git\src\IBK\IBK_DRFN\ProjSrc\SrcChartEx\ChartAddIn\ChartPatternAddIn\Control_Grid\GridCell.cpp
; File D:\git\src\IBK\IBK_DRFN\ProjSrc\SrcChartEx\ChartAddIn\ChartPatternAddIn\Control_Grid\GridCell.h
; File D:\git\src\IBK\IBK_DRFN\ProjSrc\SrcChartEx\ChartAddIn\ChartPatternAddIn\Control_Grid\GridCell.cpp
; File C:\Program Files (x86)\Microsoft Visual Studio\2019\Community\VC\Tools\MSVC\14.29.30133\atlmfc\include\afxwin1.inl
; File D:\git\src\IBK\IBK_DRFN\ProjSrc\SrcChartEx\ChartAddIn\ChartPatternAddIn\Control_Grid\GridCell.cpp
; File D:\git\src\IBK\IBK_DRFN\ProjSrc\SrcChartEx\ChartAddIn\ChartPatternAddIn\Control_Grid\GridCell.h
; File D:\git\src\IBK\IBK_DRFN\ProjSrc\SrcChartEx\ChartAddIn\ChartPatternAddIn\Control_Grid\GridCell.cpp
;	COMDAT ??0CGridDefaultCell@@QAE@XZ
_TEXT	SEGMENT
_this$GSCopy$ = -376					; size = 4
_size$2 = -372						; size = 8
_size$3 = -372						; size = 8
_pOldFont$1$ = -364					; size = 4
_this$ = -364						; size = 4
_ncm$ = -360						; size = 344
__$ArrayPad$ = -16					; size = 4
__$EHRec$ = -12						; size = 12
??0CGridDefaultCell@@QAE@XZ PROC			; CGridDefaultCell::CGridDefaultCell, COMDAT
; _this$ = ecx

; 209  : {

  00000	55		 push	 ebp
  00001	8b ec		 mov	 ebp, esp
  00003	6a ff		 push	 -1
  00005	68 00 00 00 00	 push	 __ehhandler$??0CGridDefaultCell@@QAE@XZ
  0000a	64 a1 00 00 00
	00		 mov	 eax, DWORD PTR fs:0
  00010	50		 push	 eax
  00011	81 ec 6c 01 00
	00		 sub	 esp, 364		; 0000016cH
  00017	a1 00 00 00 00	 mov	 eax, DWORD PTR ___security_cookie
  0001c	33 c5		 xor	 eax, ebp
  0001e	89 45 f0	 mov	 DWORD PTR __$ArrayPad$[ebp], eax
  00021	56		 push	 esi
  00022	57		 push	 edi
  00023	50		 push	 eax
  00024	8d 45 f4	 lea	 eax, DWORD PTR __$EHRec$[ebp]
  00027	64 a3 00 00 00
	00		 mov	 DWORD PTR fs:0, eax
  0002d	8b f1		 mov	 esi, ecx
  0002f	89 b5 94 fe ff
	ff		 mov	 DWORD PTR _this$[ebp], esi
  00035	89 b5 88 fe ff
	ff		 mov	 DWORD PTR _this$GSCopy$[ebp], esi
  0003b	e8 00 00 00 00	 call	 ??0CGridCell@@QAE@XZ	; CGridCell::CGridCell
  00040	c7 06 00 00 00
	00		 mov	 DWORD PTR [esi], OFFSET ??_7CGridDefaultCell@@6B@
; File C:\Program Files (x86)\Microsoft Visual Studio\2019\Community\VC\Tools\MSVC\14.29.30133\atlmfc\include\atltypes.h

; 304  : 	cx = 0;

  00046	c7 46 34 00 00
	00 00		 mov	 DWORD PTR [esi+52], 0

; 305  : 	cy = 0;

  0004d	c7 46 38 00 00
	00 00		 mov	 DWORD PTR [esi+56], 0
; File D:\git\src\IBK\IBK_DRFN\ProjSrc\SrcChartEx\ChartAddIn\ChartPatternAddIn\Control_Grid\GridCell.cpp

; 209  : {

  00054	c7 45 fc 00 00
	00 00		 mov	 DWORD PTR __$EHRec$[ebp+8], 0
; File C:\Program Files (x86)\Microsoft Visual Studio\2019\Community\VC\Tools\MSVC\14.29.30133\atlmfc\include\afxwin1.inl

; 70   : 	{ m_hObject = NULL; }

  0005b	c7 46 40 00 00
	00 00		 mov	 DWORD PTR [esi+64], 0

; 153  : 	{ }

  00062	c7 46 3c 00 00
	00 00		 mov	 DWORD PTR [esi+60], OFFSET ??_7CFont@@6B@
; File D:\git\src\IBK\IBK_DRFN\ProjSrc\SrcChartEx\ChartAddIn\ChartPatternAddIn\Control_Grid\GridCell.cpp

; 227  :     VERIFY(SystemParametersInfo(SPI_GETNONCLIENTMETRICS, sizeof(NONCLIENTMETRICS), &ncm, 0));

  00069	6a 00		 push	 0
  0006b	8d 85 98 fe ff
	ff		 lea	 eax, DWORD PTR _ncm$[ebp]
  00071	c6 45 fc 01	 mov	 BYTE PTR __$EHRec$[ebp+8], 1
  00075	50		 push	 eax
  00076	68 58 01 00 00	 push	 344			; 00000158H
  0007b	6a 29		 push	 41			; 00000029H
  0007d	c7 46 14 24 88
	00 00		 mov	 DWORD PTR [esi+20], 34852 ; 00008824H
  00084	c7 46 18 00 00
	00 ff		 mov	 DWORD PTR [esi+24], -16777216 ; ff000000H
  0008b	c7 46 1c 00 00
	00 ff		 mov	 DWORD PTR [esi+28], -16777216 ; ff000000H
  00092	c7 46 34 1e 00
	00 00		 mov	 DWORD PTR [esi+52], 30	; 0000001eH
  00099	c7 46 38 0a 00
	00 00		 mov	 DWORD PTR [esi+56], 10	; 0000000aH
  000a0	c7 46 44 00 00
	00 00		 mov	 DWORD PTR [esi+68], 0
  000a7	c7 85 98 fe ff
	ff 58 01 00 00	 mov	 DWORD PTR _ncm$[ebp], 344 ; 00000158H
  000b1	ff 15 00 00 00
	00		 call	 DWORD PTR __imp__SystemParametersInfoA@16

; 243  :     m_Font.DeleteObject();

  000b7	8d 4e 3c	 lea	 ecx, DWORD PTR [esi+60]
  000ba	e8 00 00 00 00	 call	 ?DeleteObject@CGdiObject@@QAEHXZ ; CGdiObject::DeleteObject
; File C:\Program Files (x86)\Microsoft Visual Studio\2019\Community\VC\Tools\MSVC\14.29.30133\atlmfc\include\afxwin1.inl

; 157  : 	{ return Attach(::CreateFontIndirect(lpLogFont)); }

  000bf	8d 45 b0	 lea	 eax, DWORD PTR _ncm$[ebp+280]
  000c2	50		 push	 eax
  000c3	ff 15 00 00 00
	00		 call	 DWORD PTR __imp__CreateFontIndirectA@4
  000c9	50		 push	 eax
  000ca	8d 4e 3c	 lea	 ecx, DWORD PTR [esi+60]
  000cd	e8 00 00 00 00	 call	 ?Attach@CGdiObject@@QAEHPAX@Z ; CGdiObject::Attach
; File D:\git\src\IBK\IBK_DRFN\ProjSrc\SrcChartEx\ChartAddIn\ChartPatternAddIn\Control_Grid\GridCell.cpp

; 97   :         if (!m_plfFont)

  000d2	8b 4e 20	 mov	 ecx, DWORD PTR [esi+32]
  000d5	85 c9		 test	 ecx, ecx
  000d7	75 13		 jne	 SHORT $LN50@CGridDefau

; 98   :             m_plfFont = new LOGFONT;

  000d9	6a 3c		 push	 60			; 0000003cH
  000db	e8 00 00 00 00	 call	 ??2@YAPAXI@Z		; operator new
  000e0	8b c8		 mov	 ecx, eax
  000e2	89 46 20	 mov	 DWORD PTR [esi+32], eax
  000e5	83 c4 04	 add	 esp, 4

; 99   :         if (m_plfFont)

  000e8	85 c9		 test	 ecx, ecx
  000ea	74 27		 je	 SHORT $LN24@CGridDefau
$LN50@CGridDefau:

; 100  :             memcpy(m_plfFont, plf, sizeof(LOGFONT)); 

  000ec	0f 10 45 b0	 movups	 xmm0, XMMWORD PTR _ncm$[ebp+280]
  000f0	0f 11 01	 movups	 XMMWORD PTR [ecx], xmm0
  000f3	0f 10 45 c0	 movups	 xmm0, XMMWORD PTR _ncm$[ebp+296]
  000f7	0f 11 41 10	 movups	 XMMWORD PTR [ecx+16], xmm0
  000fb	0f 10 45 d0	 movups	 xmm0, XMMWORD PTR _ncm$[ebp+312]
  000ff	0f 11 41 20	 movups	 XMMWORD PTR [ecx+32], xmm0
  00103	f3 0f 7e 45 e0	 movq	 xmm0, QWORD PTR _ncm$[ebp+328]
  00108	66 0f d6 41 30	 movq	 QWORD PTR [ecx+48], xmm0
  0010d	8b 45 e8	 mov	 eax, DWORD PTR _ncm$[ebp+336]
  00110	89 41 38	 mov	 DWORD PTR [ecx+56], eax
$LN24@CGridDefau:

; 249  :     CDC* pDC = CDC::FromHandle(::GetDC(NULL));

  00113	6a 00		 push	 0
  00115	ff 15 00 00 00
	00		 call	 DWORD PTR __imp__GetDC@4
  0011b	50		 push	 eax
  0011c	e8 00 00 00 00	 call	 ?FromHandle@CDC@@SGPAV1@PAUHDC__@@@Z ; CDC::FromHandle
  00121	8b f8		 mov	 edi, eax

; 250  :     if (pDC)

  00123	85 ff		 test	 edi, edi
  00125	0f 84 98 00 00
	00		 je	 $LN15@CGridDefau

; 251  :     {
; 252  :         CFont* pOldFont = pDC->SelectObject(&m_Font);

  0012b	8b 07		 mov	 eax, DWORD PTR [edi]
  0012d	8d 4e 3c	 lea	 ecx, DWORD PTR [esi+60]
  00130	51		 push	 ecx
  00131	8b cf		 mov	 ecx, edi
  00133	8b 40 30	 mov	 eax, DWORD PTR [eax+48]
  00136	ff d0		 call	 eax
  00138	89 85 94 fe ff
	ff		 mov	 DWORD PTR _pOldFont$1$[ebp], eax
; File C:\Program Files (x86)\Microsoft Visual Studio\2019\Community\VC\Tools\MSVC\14.29.30133\atlmfc\include\afxwin1.inl

; 632  : 		VERIFY(::GetTextExtentPoint32(m_hAttribDC, lpszString, nCount, &size));

  0013e	8d 85 8c fe ff
	ff		 lea	 eax, DWORD PTR _size$3[ebp]
  00144	50		 push	 eax
  00145	6a 01		 push	 1
  00147	68 00 00 00 00	 push	 OFFSET ??_C@_01CLKCMJKC@?5@
  0014c	ff 77 08	 push	 DWORD PTR [edi+8]
  0014f	ff 15 00 00 00
	00		 call	 DWORD PTR __imp__GetTextExtentPoint32A@16
; File D:\git\src\IBK\IBK_DRFN\ProjSrc\SrcChartEx\ChartAddIn\ChartPatternAddIn\Control_Grid\GridCell.cpp

; 254  :         SetMargin(pDC->GetTextExtent(_T(" "), 1).cx);

  00155	8b 06		 mov	 eax, DWORD PTR [esi]
  00157	8b 40 34	 mov	 eax, DWORD PTR [eax+52]
  0015a	3d 00 00 00 00	 cmp	 eax, OFFSET ?SetMargin@CGridCell@@UAEXI@Z ; CGridCell::SetMargin
  0015f	75 0b		 jne	 SHORT $LN31@CGridDefau
; File D:\git\src\IBK\IBK_DRFN\ProjSrc\SrcChartEx\ChartAddIn\ChartPatternAddIn\Control_Grid\GridCell.h

; 62   :     virtual void  SetMargin(UINT nMargin)        { m_nMargin = nMargin; }

  00161	8b 85 8c fe ff
	ff		 mov	 eax, DWORD PTR _size$3[ebp]
  00167	89 46 24	 mov	 DWORD PTR [esi+36], eax
  0016a	eb 0a		 jmp	 SHORT $LN30@CGridDefau
$LN31@CGridDefau:
; File D:\git\src\IBK\IBK_DRFN\ProjSrc\SrcChartEx\ChartAddIn\ChartPatternAddIn\Control_Grid\GridCell.cpp

; 254  :         SetMargin(pDC->GetTextExtent(_T(" "), 1).cx);

  0016c	ff b5 8c fe ff
	ff		 push	 DWORD PTR _size$3[ebp]
  00172	8b ce		 mov	 ecx, esi
  00174	ff d0		 call	 eax
$LN30@CGridDefau:
; File C:\Program Files (x86)\Microsoft Visual Studio\2019\Community\VC\Tools\MSVC\14.29.30133\atlmfc\include\afxwin1.inl

; 632  : 		VERIFY(::GetTextExtentPoint32(m_hAttribDC, lpszString, nCount, &size));

  00176	8d 85 8c fe ff
	ff		 lea	 eax, DWORD PTR _size$2[ebp]
  0017c	50		 push	 eax
  0017d	6a 0e		 push	 14			; 0000000eH
  0017f	68 00 00 00 00	 push	 OFFSET ??_C@_0P@PLKEPLKE@?5XXXXXXXXXXXX?5@
  00184	ff 77 08	 push	 DWORD PTR [edi+8]
  00187	ff 15 00 00 00
	00		 call	 DWORD PTR __imp__GetTextExtentPoint32A@16
; File D:\git\src\IBK\IBK_DRFN\ProjSrc\SrcChartEx\ChartAddIn\ChartPatternAddIn\Control_Grid\GridCell.cpp

; 255  :         m_Size = pDC->GetTextExtent(_T(" XXXXXXXXXXXX "), 14);

  0018d	8b 85 8c fe ff
	ff		 mov	 eax, DWORD PTR _size$2[ebp]
  00193	8b 8d 90 fe ff
	ff		 mov	 ecx, DWORD PTR _size$2[ebp+4]

; 256  :         m_Size.cy = (m_Size.cy * 3) / 2;
; 257  : 
; 258  :         pDC->SelectObject(pOldFont);

  00199	ff b5 94 fe ff
	ff		 push	 DWORD PTR _pOldFont$1$[ebp]
  0019f	89 46 34	 mov	 DWORD PTR [esi+52], eax
  001a2	8b c1		 mov	 eax, ecx
  001a4	8b cf		 mov	 ecx, edi
  001a6	8d 04 40	 lea	 eax, DWORD PTR [eax+eax*2]
  001a9	99		 cdq
  001aa	2b c2		 sub	 eax, edx
  001ac	d1 f8		 sar	 eax, 1
  001ae	89 46 38	 mov	 DWORD PTR [esi+56], eax
  001b1	8b 17		 mov	 edx, DWORD PTR [edi]
  001b3	ff 52 30	 call	 DWORD PTR [edx+48]

; 259  :         ReleaseDC(NULL, pDC->GetSafeHdc());

  001b6	ff 77 04	 push	 DWORD PTR [edi+4]
  001b9	6a 00		 push	 0
  001bb	ff 15 00 00 00
	00		 call	 DWORD PTR __imp__ReleaseDC@8

; 260  :     }

  001c1	eb 29		 jmp	 SHORT $LN51@CGridDefau
$LN15@CGridDefau:

; 259  :         ReleaseDC(NULL, pDC->GetSafeHdc());

  001c3	8b 06		 mov	 eax, DWORD PTR [esi]
  001c5	8b 40 34	 mov	 eax, DWORD PTR [eax+52]
  001c8	3d 00 00 00 00	 cmp	 eax, OFFSET ?SetMargin@CGridCell@@UAEXI@Z ; CGridCell::SetMargin

; 261  :     else
; 262  :     {
; 263  :         SetMargin(3);

  001cd	75 09		 jne	 SHORT $LN43@CGridDefau
; File D:\git\src\IBK\IBK_DRFN\ProjSrc\SrcChartEx\ChartAddIn\ChartPatternAddIn\Control_Grid\GridCell.h

; 62   :     virtual void  SetMargin(UINT nMargin)        { m_nMargin = nMargin; }

  001cf	c7 46 24 03 00
	00 00		 mov	 DWORD PTR [esi+36], 3
  001d6	eb 06		 jmp	 SHORT $LN42@CGridDefau
$LN43@CGridDefau:
; File D:\git\src\IBK\IBK_DRFN\ProjSrc\SrcChartEx\ChartAddIn\ChartPatternAddIn\Control_Grid\GridCell.cpp

; 259  :         ReleaseDC(NULL, pDC->GetSafeHdc());

  001d8	6a 03		 push	 3
  001da	8b ce		 mov	 ecx, esi

; 261  :     else
; 262  :     {
; 263  :         SetMargin(3);

  001dc	ff d0		 call	 eax
$LN42@CGridDefau:

; 264  :         m_Size = CSize(40,16);

  001de	c7 46 34 28 00
	00 00		 mov	 DWORD PTR [esi+52], 40	; 00000028H
  001e5	c7 46 38 10 00
	00 00		 mov	 DWORD PTR [esi+56], 16	; 00000010H
$LN51@CGridDefau:

; 228  :     SetFont(&(ncm.lfMessageFont));
; 229  : #endif
; 230  : }

  001ec	8b c6		 mov	 eax, esi
  001ee	8b 4d f4	 mov	 ecx, DWORD PTR __$EHRec$[ebp]
  001f1	64 89 0d 00 00
	00 00		 mov	 DWORD PTR fs:0, ecx
  001f8	59		 pop	 ecx
  001f9	5f		 pop	 edi
  001fa	5e		 pop	 esi
  001fb	8b 4d f0	 mov	 ecx, DWORD PTR __$ArrayPad$[ebp]
  001fe	33 cd		 xor	 ecx, ebp
  00200	e8 00 00 00 00	 call	 @__security_check_cookie@4
  00205	8b e5		 mov	 esp, ebp
  00207	5d		 pop	 ebp
  00208	c3		 ret	 0
_TEXT	ENDS
;	COMDAT text$x
text$x	SEGMENT
__unwindfunclet$??0CGridDefaultCell@@QAE@XZ$0:
  00000	8b 8d 88 fe ff
	ff		 mov	 ecx, DWORD PTR _this$GSCopy$[ebp]
  00006	e9 00 00 00 00	 jmp	 ??1CGridCell@@UAE@XZ	; CGridCell::~CGridCell
__unwindfunclet$??0CGridDefaultCell@@QAE@XZ$1:
  0000b	8b 8d 88 fe ff
	ff		 mov	 ecx, DWORD PTR _this$GSCopy$[ebp]
  00011	83 c1 3c	 add	 ecx, 60			; 0000003cH
  00014	e9 00 00 00 00	 jmp	 ??1CFont@@UAE@XZ	; CFont::~CFont
  00019	cc		 int	 3
  0001a	cc		 int	 3
  0001b	cc		 int	 3
  0001c	cc		 int	 3
  0001d	cc		 int	 3
__ehhandler$??0CGridDefaultCell@@QAE@XZ:
  0001e	90		 npad	 1
  0001f	90		 npad	 1
  00020	8b 54 24 08	 mov	 edx, DWORD PTR [esp+8]
  00024	8d 42 0c	 lea	 eax, DWORD PTR [edx+12]
  00027	8b 8a 88 fe ff
	ff		 mov	 ecx, DWORD PTR [edx-376]
  0002d	33 c8		 xor	 ecx, eax
  0002f	e8 00 00 00 00	 call	 @__security_check_cookie@4
  00034	8b 4a fc	 mov	 ecx, DWORD PTR [edx-4]
  00037	33 c8		 xor	 ecx, eax
  00039	e8 00 00 00 00	 call	 @__security_check_cookie@4
  0003e	b8 00 00 00 00	 mov	 eax, OFFSET __ehfuncinfo$??0CGridDefaultCell@@QAE@XZ
  00043	e9 00 00 00 00	 jmp	 ___CxxFrameHandler3
text$x	ENDS
??0CGridDefaultCell@@QAE@XZ ENDP			; CGridDefaultCell::CGridDefaultCell
; Function compile flags: /Ogtp
; File D:\git\src\IBK\IBK_DRFN\ProjSrc\SrcChartEx\ChartAddIn\ChartPatternAddIn\Control_Grid\GridCell.cpp
; File C:\Program Files (x86)\Microsoft Visual Studio\2019\Community\VC\Tools\MSVC\14.29.30133\atlmfc\include\afx.inl
; File D:\git\src\IBK\IBK_DRFN\ProjSrc\SrcChartEx\ChartAddIn\ChartPatternAddIn\Control_Grid\GridCell.cpp
;	COMDAT ?CreateObject@CGridDefaultCell@@SGPAVCObject@@XZ
_TEXT	SEGMENT
$T2 = -16						; size = 4
__$EHRec$ = -12						; size = 12
?CreateObject@CGridDefaultCell@@SGPAVCObject@@XZ PROC	; CGridDefaultCell::CreateObject, COMDAT

; 45   : IMPLEMENT_DYNCREATE(CGridDefaultCell, CGridCell)

  00000	55		 push	 ebp
  00001	8b ec		 mov	 ebp, esp
  00003	6a ff		 push	 -1
  00005	68 00 00 00 00	 push	 __ehhandler$?CreateObject@CGridDefaultCell@@SGPAVCObject@@XZ
  0000a	64 a1 00 00 00
	00		 mov	 eax, DWORD PTR fs:0
  00010	50		 push	 eax
  00011	51		 push	 ecx
  00012	a1 00 00 00 00	 mov	 eax, DWORD PTR ___security_cookie
  00017	33 c5		 xor	 eax, ebp
  00019	50		 push	 eax
  0001a	8d 45 f4	 lea	 eax, DWORD PTR __$EHRec$[ebp]
  0001d	64 a3 00 00 00
	00		 mov	 DWORD PTR fs:0, eax
; File C:\Program Files (x86)\Microsoft Visual Studio\2019\Community\VC\Tools\MSVC\14.29.30133\atlmfc\include\afx.inl

; 116  : 	{ return ::operator new(nSize); }

  00023	6a 48		 push	 72			; 00000048H
  00025	e8 00 00 00 00	 call	 ??2@YAPAXI@Z		; operator new
  0002a	83 c4 04	 add	 esp, 4
; File D:\git\src\IBK\IBK_DRFN\ProjSrc\SrcChartEx\ChartAddIn\ChartPatternAddIn\Control_Grid\GridCell.cpp

; 45   : IMPLEMENT_DYNCREATE(CGridDefaultCell, CGridCell)

  0002d	89 45 f0	 mov	 DWORD PTR $T2[ebp], eax
  00030	c7 45 fc 00 00
	00 00		 mov	 DWORD PTR __$EHRec$[ebp+8], 0
  00037	85 c0		 test	 eax, eax
  00039	74 16		 je	 SHORT $LN3@CreateObje
  0003b	8b c8		 mov	 ecx, eax
  0003d	e8 00 00 00 00	 call	 ??0CGridDefaultCell@@QAE@XZ ; CGridDefaultCell::CGridDefaultCell
  00042	8b 4d f4	 mov	 ecx, DWORD PTR __$EHRec$[ebp]
  00045	64 89 0d 00 00
	00 00		 mov	 DWORD PTR fs:0, ecx
  0004c	59		 pop	 ecx
  0004d	8b e5		 mov	 esp, ebp
  0004f	5d		 pop	 ebp
  00050	c3		 ret	 0
$LN3@CreateObje:
  00051	33 c0		 xor	 eax, eax
  00053	8b 4d f4	 mov	 ecx, DWORD PTR __$EHRec$[ebp]
  00056	64 89 0d 00 00
	00 00		 mov	 DWORD PTR fs:0, ecx
  0005d	59		 pop	 ecx
  0005e	8b e5		 mov	 esp, ebp
  00060	5d		 pop	 ebp
  00061	c3		 ret	 0
_TEXT	ENDS
;	COMDAT text$x
text$x	SEGMENT
__unwindfunclet$?CreateObject@CGridDefaultCell@@SGPAVCObject@@XZ$0:
  00000	8b 45 f0	 mov	 eax, DWORD PTR $T2[ebp]
  00003	50		 push	 eax
  00004	e8 00 00 00 00	 call	 ??3CObject@@SGXPAX@Z	; CObject::operator delete
  00009	c3		 ret	 0
  0000a	cc		 int	 3
  0000b	cc		 int	 3
  0000c	cc		 int	 3
  0000d	cc		 int	 3
  0000e	cc		 int	 3
__ehhandler$?CreateObject@CGridDefaultCell@@SGPAVCObject@@XZ:
  0000f	90		 npad	 1
  00010	90		 npad	 1
  00011	8b 54 24 08	 mov	 edx, DWORD PTR [esp+8]
  00015	8d 42 0c	 lea	 eax, DWORD PTR [edx+12]
  00018	8b 4a f8	 mov	 ecx, DWORD PTR [edx-8]
  0001b	33 c8		 xor	 ecx, eax
  0001d	e8 00 00 00 00	 call	 @__security_check_cookie@4
  00022	b8 00 00 00 00	 mov	 eax, OFFSET __ehfuncinfo$?CreateObject@CGridDefaultCell@@SGPAVCObject@@XZ
  00027	e9 00 00 00 00	 jmp	 ___CxxFrameHandler3
text$x	ENDS
?CreateObject@CGridDefaultCell@@SGPAVCObject@@XZ ENDP	; CGridDefaultCell::CreateObject
; Function compile flags: /Ogtp
; File D:\git\src\IBK\IBK_DRFN\ProjSrc\SrcChartEx\ChartAddIn\ChartPatternAddIn\Control_Grid\GridCell.cpp
;	COMDAT ?GetRuntimeClass@CGridDefaultCell@@UBEPAUCRuntimeClass@@XZ
_TEXT	SEGMENT
?GetRuntimeClass@CGridDefaultCell@@UBEPAUCRuntimeClass@@XZ PROC ; CGridDefaultCell::GetRuntimeClass, COMDAT
; _this$ = ecx

; 45   : IMPLEMENT_DYNCREATE(CGridDefaultCell, CGridCell)

  00000	b8 00 00 00 00	 mov	 eax, OFFSET ?classCGridDefaultCell@CGridDefaultCell@@2UCRuntimeClass@@B ; CGridDefaultCell::classCGridDefaultCell
  00005	c3		 ret	 0
?GetRuntimeClass@CGridDefaultCell@@UBEPAUCRuntimeClass@@XZ ENDP ; CGridDefaultCell::GetRuntimeClass
_TEXT	ENDS
; Function compile flags: /Ogtp
; File D:\git\src\IBK\IBK_DRFN\ProjSrc\SrcChartEx\ChartAddIn\ChartPatternAddIn\Control_Grid\GridCell.cpp
;	COMDAT ?GetThisClass@CGridDefaultCell@@SGPAUCRuntimeClass@@XZ
_TEXT	SEGMENT
?GetThisClass@CGridDefaultCell@@SGPAUCRuntimeClass@@XZ PROC ; CGridDefaultCell::GetThisClass, COMDAT

; 45   : IMPLEMENT_DYNCREATE(CGridDefaultCell, CGridCell)

  00000	b8 00 00 00 00	 mov	 eax, OFFSET ?classCGridDefaultCell@CGridDefaultCell@@2UCRuntimeClass@@B ; CGridDefaultCell::classCGridDefaultCell
  00005	c3		 ret	 0
?GetThisClass@CGridDefaultCell@@SGPAUCRuntimeClass@@XZ ENDP ; CGridDefaultCell::GetThisClass
_TEXT	ENDS
; Function compile flags: /Ogtp
; File D:\git\src\IBK\IBK_DRFN\ProjSrc\SrcChartEx\ChartAddIn\ChartPatternAddIn\Control_Grid\GridCell.cpp
;	COMDAT ?_GetBaseClass@CGridDefaultCell@@KGPAUCRuntimeClass@@XZ
_TEXT	SEGMENT
?_GetBaseClass@CGridDefaultCell@@KGPAUCRuntimeClass@@XZ PROC ; CGridDefaultCell::_GetBaseClass, COMDAT

; 45   : IMPLEMENT_DYNCREATE(CGridDefaultCell, CGridCell)

  00000	b8 00 00 00 00	 mov	 eax, OFFSET ?classCGridCell@CGridCell@@2UCRuntimeClass@@B ; CGridCell::classCGridCell
  00005	c3		 ret	 0
?_GetBaseClass@CGridDefaultCell@@KGPAUCRuntimeClass@@XZ ENDP ; CGridDefaultCell::_GetBaseClass
_TEXT	ENDS
; Function compile flags: /Ogtp
; File D:\git\src\IBK\IBK_DRFN\ProjSrc\SrcChartEx\ChartAddIn\ChartPatternAddIn\Control_Grid\GridCell.cpp
; File C:\Program Files (x86)\Microsoft Visual Studio\2019\Community\VC\Tools\MSVC\14.29.30133\atlmfc\include\afx.inl
;	COMDAT ??_GCGridCell@@UAEPAXI@Z
_TEXT	SEGMENT
___flags$ = 8						; size = 4
??_GCGridCell@@UAEPAXI@Z PROC				; CGridCell::`scalar deleting destructor', COMDAT
; _this$ = ecx
  00000	55		 push	 ebp
  00001	8b ec		 mov	 ebp, esp
; File D:\git\src\IBK\IBK_DRFN\ProjSrc\SrcChartEx\ChartAddIn\ChartPatternAddIn\Control_Grid\GridCell.cpp

; 57   : {

  00003	56		 push	 esi
  00004	8b f1		 mov	 esi, ecx

; 58   :     delete m_plfFont;

  00006	6a 3c		 push	 60			; 0000003cH
  00008	ff 76 20	 push	 DWORD PTR [esi+32]
  0000b	c7 06 00 00 00
	00		 mov	 DWORD PTR [esi], OFFSET ??_7CGridCell@@6B@
  00011	e8 00 00 00 00	 call	 ??3@YAXPAXI@Z		; operator delete
  00016	83 c4 08	 add	 esp, 8

; 59   : }

  00019	8d 4e 08	 lea	 ecx, DWORD PTR [esi+8]
  0001c	ff 15 00 00 00
	00		 call	 DWORD PTR __imp_??1?$CStringT@DV?$StrTraitMFC_DLL@DV?$ChTraitsCRT@D@ATL@@@@@ATL@@QAE@XZ
  00022	8b ce		 mov	 ecx, esi
  00024	e8 00 00 00 00	 call	 ??1CGridCellBase@@UAE@XZ ; CGridCellBase::~CGridCellBase
  00029	8b 45 08	 mov	 eax, DWORD PTR ___flags$[ebp]
  0002c	a8 01		 test	 al, 1
  0002e	74 1f		 je	 SHORT $LN12@scalar
  00030	a8 04		 test	 al, 4
  00032	75 10		 jne	 SHORT $LN3@scalar
; File C:\Program Files (x86)\Microsoft Visual Studio\2019\Community\VC\Tools\MSVC\14.29.30133\atlmfc\include\afx.inl

; 112  : 	{ ::operator delete(p); }

  00034	56		 push	 esi
  00035	e8 00 00 00 00	 call	 ??3@YAXPAX@Z		; operator delete
  0003a	83 c4 04	 add	 esp, 4
  0003d	8b c6		 mov	 eax, esi
  0003f	5e		 pop	 esi
  00040	5d		 pop	 ebp
  00041	c2 04 00	 ret	 4
$LN3@scalar:
  00044	6a 34		 push	 52			; 00000034H
  00046	56		 push	 esi
  00047	e8 00 00 00 00	 call	 ?__global_delete@@YAXPAXI@Z ; __global_delete
  0004c	83 c4 08	 add	 esp, 8
$LN12@scalar:
  0004f	8b c6		 mov	 eax, esi
  00051	5e		 pop	 esi
  00052	5d		 pop	 ebp
  00053	c2 04 00	 ret	 4
??_GCGridCell@@UAEPAXI@Z ENDP				; CGridCell::`scalar deleting destructor'
_TEXT	ENDS
; Function compile flags: /Ogtp
; File D:\git\src\IBK\IBK_DRFN\ProjSrc\SrcChartEx\ChartAddIn\ChartPatternAddIn\Control_Grid\GridCell.cpp
;	COMDAT ?OnEndEdit@CGridCell@@MAEXXZ
_TEXT	SEGMENT
?OnEndEdit@CGridCell@@MAEXXZ PROC			; CGridCell::OnEndEdit, COMDAT
; _this$ = ecx

; 201  :     m_bEditing = FALSE;

  00000	c7 41 28 00 00
	00 00		 mov	 DWORD PTR [ecx+40], 0

; 202  :     m_pEditWnd = NULL;

  00007	c7 41 30 00 00
	00 00		 mov	 DWORD PTR [ecx+48], 0

; 203  : }

  0000e	c3		 ret	 0
?OnEndEdit@CGridCell@@MAEXXZ ENDP			; CGridCell::OnEndEdit
_TEXT	ENDS
; Function compile flags: /Ogtp
; File D:\git\src\IBK\IBK_DRFN\ProjSrc\SrcChartEx\ChartAddIn\ChartPatternAddIn\Control_Grid\GridCell.cpp
;	COMDAT ?EndEdit@CGridCell@@UAEXXZ
_TEXT	SEGMENT
?EndEdit@CGridCell@@UAEXXZ PROC				; CGridCell::EndEdit, COMDAT
; _this$ = ecx

; 195  :     if (m_pEditWnd)

  00000	8b 49 30	 mov	 ecx, DWORD PTR [ecx+48]
  00003	85 c9		 test	 ecx, ecx
  00005	0f 85 00 00 00
	00		 jne	 ?EndEdit@CInPlaceEdit@@QAEXXZ ; CInPlaceEdit::EndEdit

; 196  :         ((CInPlaceEdit*)m_pEditWnd)->EndEdit();
; 197  : }

  0000b	c3		 ret	 0
?EndEdit@CGridCell@@UAEXXZ ENDP				; CGridCell::EndEdit
_TEXT	ENDS
; Function compile flags: /Ogtp
; File D:\git\src\IBK\IBK_DRFN\ProjSrc\SrcChartEx\ChartAddIn\ChartPatternAddIn\Control_Grid\GridCell.cpp
; File C:\Program Files (x86)\Microsoft Visual Studio\2019\Community\VC\Tools\MSVC\14.29.30133\atlmfc\include\afxwin2.inl
; File D:\git\src\IBK\IBK_DRFN\ProjSrc\SrcChartEx\ChartAddIn\ChartPatternAddIn\Control_Grid\GridCell.cpp
; File C:\Program Files (x86)\Microsoft Visual Studio\2019\Community\VC\Tools\MSVC\14.29.30133\atlmfc\include\afx.inl
; File D:\git\src\IBK\IBK_DRFN\ProjSrc\SrcChartEx\ChartAddIn\ChartPatternAddIn\Control_Grid\GridCell.cpp
; File C:\Program Files (x86)\Microsoft Visual Studio\2019\Community\VC\Tools\MSVC\14.29.30133\atlmfc\include\afx.inl
; File D:\git\src\IBK\IBK_DRFN\ProjSrc\SrcChartEx\ChartAddIn\ChartPatternAddIn\Control_Grid\GridCell.cpp
;	COMDAT ?Edit@CGridCell@@UAEHHHVCRect@@VCPoint@@II@Z
_TEXT	SEGMENT
$T2 = -32						; size = 4
_pGrid$1$ = -28						; size = 4
_nID$GSCopy$1$ = -24					; size = 4
_nRow$GSCopy$1$ = -20					; size = 4
_nCol$GSCopy$1$ = -16					; size = 4
__$EHRec$ = -12						; size = 12
_nRow$ = 8						; size = 4
_nCol$ = 12						; size = 4
_rect$ = 16						; size = 16
___formal$ = 32						; size = 8
_nID$ = 40						; size = 4
_nChar$ = 44						; size = 4
?Edit@CGridCell@@UAEHHHVCRect@@VCPoint@@II@Z PROC	; CGridCell::Edit, COMDAT
; _this$ = ecx

; 170  : {

  00000	55		 push	 ebp
  00001	8b ec		 mov	 ebp, esp
  00003	6a ff		 push	 -1
  00005	68 00 00 00 00	 push	 __ehhandler$?Edit@CGridCell@@UAEHHHVCRect@@VCPoint@@II@Z
  0000a	64 a1 00 00 00
	00		 mov	 eax, DWORD PTR fs:0
  00010	50		 push	 eax
  00011	83 ec 18	 sub	 esp, 24			; 00000018H
  00014	53		 push	 ebx
  00015	56		 push	 esi
  00016	57		 push	 edi
  00017	a1 00 00 00 00	 mov	 eax, DWORD PTR ___security_cookie
  0001c	33 c5		 xor	 eax, ebp
  0001e	50		 push	 eax
  0001f	8d 45 f4	 lea	 eax, DWORD PTR __$EHRec$[ebp]
  00022	64 a3 00 00 00
	00		 mov	 DWORD PTR fs:0, eax
  00028	8b f9		 mov	 edi, ecx

; 171  :     if ( m_bEditing )

  0002a	83 7f 28 00	 cmp	 DWORD PTR [edi+40], 0
  0002e	8b 45 08	 mov	 eax, DWORD PTR _nRow$[ebp]
  00031	8b 75 2c	 mov	 esi, DWORD PTR _nChar$[ebp]
  00034	89 45 ec	 mov	 DWORD PTR _nRow$GSCopy$1$[ebp], eax
  00037	8b 45 0c	 mov	 eax, DWORD PTR _nCol$[ebp]
  0003a	89 45 f0	 mov	 DWORD PTR _nCol$GSCopy$1$[ebp], eax
  0003d	8b 45 28	 mov	 eax, DWORD PTR _nID$[ebp]
  00040	89 45 e8	 mov	 DWORD PTR _nID$GSCopy$1$[ebp], eax
  00043	74 21		 je	 SHORT $LN2@Edit

; 172  : 	{      
; 173  :         if (m_pEditWnd)

  00045	8b 47 30	 mov	 eax, DWORD PTR [edi+48]
  00048	85 c0		 test	 eax, eax
  0004a	0f 84 99 00 00
	00		 je	 $LN19@Edit
; File C:\Program Files (x86)\Microsoft Visual Studio\2019\Community\VC\Tools\MSVC\14.29.30133\atlmfc\include\afxwin2.inl

; 32   : 	{ ASSERT(::IsWindow(m_hWnd)); return ::SendMessage(m_hWnd, message, wParam, lParam); }

  00050	6a 00		 push	 0
  00052	56		 push	 esi
  00053	68 02 01 00 00	 push	 258			; 00000102H
  00058	ff 70 20	 push	 DWORD PTR [eax+32]
  0005b	ff 15 00 00 00
	00		 call	 DWORD PTR __imp__SendMessageA@16
; File D:\git\src\IBK\IBK_DRFN\ProjSrc\SrcChartEx\ChartAddIn\ChartPatternAddIn\Control_Grid\GridCell.cpp

; 175  :     }  

  00061	e9 83 00 00 00	 jmp	 $LN19@Edit
$LN2@Edit:

; 176  : 	else  
; 177  : 	{   
; 178  : 		DWORD dwStyle = ES_LEFT;
; 179  : 		if (GetFormat() & DT_RIGHT) 

  00066	8b 07		 mov	 eax, DWORD PTR [edi]
  00068	33 db		 xor	 ebx, ebx
  0006a	ff 50 54	 call	 DWORD PTR [eax+84]
  0006d	a8 02		 test	 al, 2
  0006f	74 07		 je	 SHORT $LN5@Edit

; 180  : 			dwStyle = ES_RIGHT;

  00071	bb 02 00 00 00	 mov	 ebx, 2
  00076	eb 11		 jmp	 SHORT $LN7@Edit
$LN5@Edit:

; 181  : 		else if (GetFormat() & DT_CENTER) 

  00078	8b 07		 mov	 eax, DWORD PTR [edi]
  0007a	8b cf		 mov	 ecx, edi
  0007c	ff 50 54	 call	 DWORD PTR [eax+84]
  0007f	a8 01		 test	 al, 1
  00081	b8 01 00 00 00	 mov	 eax, 1
  00086	0f 45 d8	 cmovne	 ebx, eax
$LN7@Edit:

; 187  : 		CGridCtrl* pGrid = GetGrid();

  00089	8b 07		 mov	 eax, DWORD PTR [edi]
  0008b	8b cf		 mov	 ecx, edi
  0008d	c7 47 28 01 00
	00 00		 mov	 DWORD PTR [edi+40], 1
  00094	ff 50 68	 call	 DWORD PTR [eax+104]
; File C:\Program Files (x86)\Microsoft Visual Studio\2019\Community\VC\Tools\MSVC\14.29.30133\atlmfc\include\afx.inl

; 116  : 	{ return ::operator new(nSize); }

  00097	68 a8 00 00 00	 push	 168			; 000000a8H
; File D:\git\src\IBK\IBK_DRFN\ProjSrc\SrcChartEx\ChartAddIn\ChartPatternAddIn\Control_Grid\GridCell.cpp

; 187  : 		CGridCtrl* pGrid = GetGrid();

  0009c	89 45 e4	 mov	 DWORD PTR _pGrid$1$[ebp], eax
; File C:\Program Files (x86)\Microsoft Visual Studio\2019\Community\VC\Tools\MSVC\14.29.30133\atlmfc\include\afx.inl

; 116  : 	{ return ::operator new(nSize); }

  0009f	e8 00 00 00 00	 call	 ??2@YAPAXI@Z		; operator new
  000a4	83 c4 04	 add	 esp, 4
; File D:\git\src\IBK\IBK_DRFN\ProjSrc\SrcChartEx\ChartAddIn\ChartPatternAddIn\Control_Grid\GridCell.cpp

; 188  : 		m_pEditWnd = new CInPlaceEdit(pGrid, rect, dwStyle, nID, nRow, nCol, GetText(), nChar);

  000a7	89 45 e0	 mov	 DWORD PTR $T2[ebp], eax
  000aa	c7 45 fc 00 00
	00 00		 mov	 DWORD PTR __$EHRec$[ebp+8], 0
  000b1	85 c0		 test	 eax, eax
  000b3	74 2f		 je	 SHORT $LN9@Edit
  000b5	8b 07		 mov	 eax, DWORD PTR [edi]
  000b7	56		 push	 esi
  000b8	51		 push	 ecx
  000b9	8b cf		 mov	 ecx, edi
  000bb	8b f4		 mov	 esi, esp
  000bd	ff 50 40	 call	 DWORD PTR [eax+64]
  000c0	50		 push	 eax
  000c1	8b ce		 mov	 ecx, esi
  000c3	ff 15 00 00 00
	00		 call	 DWORD PTR __imp_??0?$CStringT@DV?$StrTraitMFC_DLL@DV?$ChTraitsCRT@D@ATL@@@@@ATL@@QAE@PBD@Z
  000c9	ff 75 f0	 push	 DWORD PTR _nCol$GSCopy$1$[ebp]
  000cc	8b 4d e0	 mov	 ecx, DWORD PTR $T2[ebp]
  000cf	8d 45 10	 lea	 eax, DWORD PTR _rect$[ebp]
  000d2	ff 75 ec	 push	 DWORD PTR _nRow$GSCopy$1$[ebp]
  000d5	ff 75 e8	 push	 DWORD PTR _nID$GSCopy$1$[ebp]
  000d8	53		 push	 ebx
  000d9	50		 push	 eax
  000da	ff 75 e4	 push	 DWORD PTR _pGrid$1$[ebp]
  000dd	e8 00 00 00 00	 call	 ??0CInPlaceEdit@@QAE@PAVCWnd@@AAVCRect@@KIHHV?$CStringT@DV?$StrTraitMFC_DLL@DV?$ChTraitsCRT@D@ATL@@@@@ATL@@I@Z ; CInPlaceEdit::CInPlaceEdit
  000e2	eb 02		 jmp	 SHORT $LN10@Edit
$LN9@Edit:
  000e4	33 c0		 xor	 eax, eax
$LN10@Edit:
  000e6	89 47 30	 mov	 DWORD PTR [edi+48], eax
$LN19@Edit:

; 189  :     }
; 190  :     return TRUE;
; 191  : }

  000e9	b8 01 00 00 00	 mov	 eax, 1
  000ee	8b 4d f4	 mov	 ecx, DWORD PTR __$EHRec$[ebp]
  000f1	64 89 0d 00 00
	00 00		 mov	 DWORD PTR fs:0, ecx
  000f8	59		 pop	 ecx
  000f9	5f		 pop	 edi
  000fa	5e		 pop	 esi
  000fb	5b		 pop	 ebx
  000fc	8b e5		 mov	 esp, ebp
  000fe	5d		 pop	 ebp
  000ff	c2 28 00	 ret	 40			; 00000028H
_TEXT	ENDS
;	COMDAT text$x
text$x	SEGMENT
__unwindfunclet$?Edit@CGridCell@@UAEHHHVCRect@@VCPoint@@II@Z$0:
  00000	8b 45 e0	 mov	 eax, DWORD PTR $T2[ebp]
  00003	50		 push	 eax
  00004	e8 00 00 00 00	 call	 ??3CObject@@SGXPAX@Z	; CObject::operator delete
  00009	c3		 ret	 0
  0000a	cc		 int	 3
  0000b	cc		 int	 3
  0000c	cc		 int	 3
  0000d	cc		 int	 3
  0000e	cc		 int	 3
__ehhandler$?Edit@CGridCell@@UAEHHHVCRect@@VCPoint@@II@Z:
  0000f	90		 npad	 1
  00010	90		 npad	 1
  00011	8b 54 24 08	 mov	 edx, DWORD PTR [esp+8]
  00015	8d 42 0c	 lea	 eax, DWORD PTR [edx+12]
  00018	8b 4a d8	 mov	 ecx, DWORD PTR [edx-40]
  0001b	33 c8		 xor	 ecx, eax
  0001d	e8 00 00 00 00	 call	 @__security_check_cookie@4
  00022	b8 00 00 00 00	 mov	 eax, OFFSET __ehfuncinfo$?Edit@CGridCell@@UAEHHHVCRect@@VCPoint@@II@Z
  00027	e9 00 00 00 00	 jmp	 ___CxxFrameHandler3
text$x	ENDS
?Edit@CGridCell@@UAEHHHVCRect@@VCPoint@@II@Z ENDP	; CGridCell::Edit
; Function compile flags: /Ogtp
; File D:\git\src\IBK\IBK_DRFN\ProjSrc\SrcChartEx\ChartAddIn\ChartPatternAddIn\Control_Grid\GridCell.cpp
;	COMDAT ?Reset@CGridCell@@UAEXXZ
_TEXT	SEGMENT
?Reset@CGridCell@@UAEXXZ PROC				; CGridCell::Reset, COMDAT
; _this$ = ecx

; 70   : {

  00000	56		 push	 esi
  00001	8b f1		 mov	 esi, ecx

; 71   :     CGridCellBase::Reset();

  00003	e8 00 00 00 00	 call	 ?Reset@CGridCellBase@@UAEXXZ ; CGridCellBase::Reset

; 72   : 
; 73   :     m_strText.Empty();

  00008	8d 4e 08	 lea	 ecx, DWORD PTR [esi+8]
  0000b	ff 15 00 00 00
	00		 call	 DWORD PTR __imp_?Empty@?$CSimpleStringT@D$00@ATL@@QAEXXZ

; 74   :     m_nImage   = -1;
; 75   :     m_pGrid    = NULL;
; 76   :     m_bEditing = FALSE;
; 77   :     m_pEditWnd = NULL;
; 78   : 
; 79   :     m_nFormat = (DWORD)-1;       // Use default from CGridDefaultCell
; 80   :     m_crBkClr = CLR_DEFAULT;     // Background colour (or CLR_DEFAULT)
; 81   :     m_crFgClr = CLR_DEFAULT;     // Forground colour (or CLR_DEFAULT)
; 82   :     m_nMargin = (UINT)-1;        // Use default from CGridDefaultCell
; 83   : 
; 84   :     delete m_plfFont;

  00011	6a 3c		 push	 60			; 0000003cH
  00013	ff 76 20	 push	 DWORD PTR [esi+32]
  00016	c7 46 10 ff ff
	ff ff		 mov	 DWORD PTR [esi+16], -1
  0001d	c7 46 2c 00 00
	00 00		 mov	 DWORD PTR [esi+44], 0
  00024	c7 46 28 00 00
	00 00		 mov	 DWORD PTR [esi+40], 0
  0002b	c7 46 30 00 00
	00 00		 mov	 DWORD PTR [esi+48], 0
  00032	c7 46 14 ff ff
	ff ff		 mov	 DWORD PTR [esi+20], -1
  00039	c7 46 1c 00 00
	00 ff		 mov	 DWORD PTR [esi+28], -16777216 ; ff000000H
  00040	c7 46 18 00 00
	00 ff		 mov	 DWORD PTR [esi+24], -16777216 ; ff000000H
  00047	c7 46 24 ff ff
	ff ff		 mov	 DWORD PTR [esi+36], -1
  0004e	e8 00 00 00 00	 call	 ??3@YAXPAXI@Z		; operator delete
  00053	83 c4 08	 add	 esp, 8

; 85   :     m_plfFont = NULL;            // Cell font

  00056	c7 46 20 00 00
	00 00		 mov	 DWORD PTR [esi+32], 0
  0005d	5e		 pop	 esi

; 86   : }

  0005e	c3		 ret	 0
?Reset@CGridCell@@UAEXXZ ENDP				; CGridCell::Reset
_TEXT	ENDS
; Function compile flags: /Ogtp
; File D:\git\src\IBK\IBK_DRFN\ProjSrc\SrcChartEx\ChartAddIn\ChartPatternAddIn\Control_Grid\GridCell.h
;	COMDAT ?IsDefaultFont@CGridCell@@UBEHXZ
_TEXT	SEGMENT
?IsDefaultFont@CGridCell@@UBEHXZ PROC			; CGridCell::IsDefaultFont, COMDAT
; _this$ = ecx

; 80   :     virtual BOOL        IsDefaultFont() const       { return (m_plfFont == NULL); }

  00000	33 c0		 xor	 eax, eax
  00002	39 41 20	 cmp	 DWORD PTR [ecx+32], eax
  00005	0f 94 c0	 sete	 al
  00008	c3		 ret	 0
?IsDefaultFont@CGridCell@@UBEHXZ ENDP			; CGridCell::IsDefaultFont
_TEXT	ENDS
; Function compile flags: /Ogtp
; File D:\git\src\IBK\IBK_DRFN\ProjSrc\SrcChartEx\ChartAddIn\ChartPatternAddIn\Control_Grid\GridCell.h
;	COMDAT ?IsEditing@CGridCell@@UBEHXZ
_TEXT	SEGMENT
?IsEditing@CGridCell@@UBEHXZ PROC			; CGridCell::IsEditing, COMDAT
; _this$ = ecx

; 79   :     virtual BOOL        IsEditing() const           { return m_bEditing; }

  00000	8b 41 28	 mov	 eax, DWORD PTR [ecx+40]
  00003	c3		 ret	 0
?IsEditing@CGridCell@@UBEHXZ ENDP			; CGridCell::IsEditing
_TEXT	ENDS
; Function compile flags: /Ogtp
; File D:\git\src\IBK\IBK_DRFN\ProjSrc\SrcChartEx\ChartAddIn\ChartPatternAddIn\Control_Grid\GridCell.cpp
;	COMDAT ?GetMargin@CGridCell@@UBEIXZ
_TEXT	SEGMENT
?GetMargin@CGridCell@@UBEIXZ PROC			; CGridCell::GetMargin, COMDAT
; _this$ = ecx

; 154  :     if (m_nMargin == (UINT)-1)

  00000	8b 41 24	 mov	 eax, DWORD PTR [ecx+36]
  00003	83 f8 ff	 cmp	 eax, -1
  00006	75 0b		 jne	 SHORT $LN1@GetMargin

; 155  :     {
; 156  :         CGridDefaultCell *pDefaultCell = (CGridDefaultCell*) GetDefaultCell();

  00008	8b 01		 mov	 eax, DWORD PTR [ecx]
  0000a	ff 50 74	 call	 DWORD PTR [eax+116]
  0000d	8b c8		 mov	 ecx, eax

; 157  :         if (!pDefaultCell)

  0000f	85 c9		 test	 ecx, ecx
  00011	75 01		 jne	 SHORT $LN3@GetMargin
$LN1@GetMargin:

; 161  :     }
; 162  : 
; 163  :     return m_nMargin; 
; 164  : }

  00013	c3		 ret	 0
$LN3@GetMargin:

; 158  :             return 0;
; 159  : 
; 160  :         return pDefaultCell->GetMargin();

  00014	8b 01		 mov	 eax, DWORD PTR [ecx]
  00016	ff 60 70	 jmp	 DWORD PTR [eax+112]
?GetMargin@CGridCell@@UBEIXZ ENDP			; CGridCell::GetMargin
_TEXT	ENDS
; Function compile flags: /Ogtp
; File D:\git\src\IBK\IBK_DRFN\ProjSrc\SrcChartEx\ChartAddIn\ChartPatternAddIn\Control_Grid\GridCell.cpp
; File C:\Program Files (x86)\Microsoft Visual Studio\2019\Community\VC\Tools\MSVC\14.29.30133\atlmfc\include\afxwin1.inl
; File D:\git\src\IBK\IBK_DRFN\ProjSrc\SrcChartEx\ChartAddIn\ChartPatternAddIn\Control_Grid\GridCell.cpp
;	COMDAT ?GetFontObject@CGridCell@@UBEPAVCFont@@XZ
_TEXT	SEGMENT
?GetFontObject@CGridCell@@UBEPAVCFont@@XZ PROC		; CGridCell::GetFontObject, COMDAT
; _this$ = ecx

; 119  : {

  00000	56		 push	 esi
  00001	8b f1		 mov	 esi, ecx

; 120  :     // If the default font is specified, use the default cell implementation
; 121  :     if (m_plfFont == NULL)

  00003	83 7e 20 00	 cmp	 DWORD PTR [esi+32], 0
  00007	75 13		 jne	 SHORT $LN3@GetFontObj

; 122  :     {
; 123  :         CGridDefaultCell *pDefaultCell = (CGridDefaultCell*) GetDefaultCell();

  00009	8b 06		 mov	 eax, DWORD PTR [esi]
  0000b	ff 50 74	 call	 DWORD PTR [eax+116]
  0000e	8b c8		 mov	 ecx, eax

; 124  :         if (!pDefaultCell)

  00010	85 c9		 test	 ecx, ecx
  00012	75 02		 jne	 SHORT $LN5@GetFontObj
  00014	5e		 pop	 esi

; 135  :     }
; 136  : }

  00015	c3		 ret	 0
$LN5@GetFontObj:

; 125  :             return NULL;
; 126  : 
; 127  :         return pDefaultCell->GetFontObject();

  00016	8b 01		 mov	 eax, DWORD PTR [ecx]
  00018	5e		 pop	 esi
  00019	ff 60 64	 jmp	 DWORD PTR [eax+100]
$LN3@GetFontObj:

; 128  :     }
; 129  :     else
; 130  :     {
; 131  :         static CFont Font;

  0001c	64 a1 00 00 00
	00		 mov	 eax, DWORD PTR fs:__tls_array
  00022	8b 0d 00 00 00
	00		 mov	 ecx, DWORD PTR __tls_index
  00028	8b 0c 88	 mov	 ecx, DWORD PTR [eax+ecx*4]
  0002b	a1 00 00 00 00	 mov	 eax, DWORD PTR ?$TSS0@?8??GetFontObject@CGridCell@@UBEPAVCFont@@XZ@4HA
  00030	3b 81 00 00 00
	00		 cmp	 eax, DWORD PTR __Init_thread_epoch[ecx]
  00036	7f 25		 jg	 SHORT $LN16@GetFontObj
$LN2@GetFontObj:

; 132  :         Font.DeleteObject();

  00038	b9 00 00 00 00	 mov	 ecx, OFFSET ?Font@?8??GetFontObject@CGridCell@@UBEPAVCFont@@XZ@4V3@A
  0003d	e8 00 00 00 00	 call	 ?DeleteObject@CGdiObject@@QAEHXZ ; CGdiObject::DeleteObject
; File C:\Program Files (x86)\Microsoft Visual Studio\2019\Community\VC\Tools\MSVC\14.29.30133\atlmfc\include\afxwin1.inl

; 157  : 	{ return Attach(::CreateFontIndirect(lpLogFont)); }

  00042	ff 76 20	 push	 DWORD PTR [esi+32]
  00045	ff 15 00 00 00
	00		 call	 DWORD PTR __imp__CreateFontIndirectA@4
  0004b	50		 push	 eax
  0004c	b9 00 00 00 00	 mov	 ecx, OFFSET ?Font@?8??GetFontObject@CGridCell@@UBEPAVCFont@@XZ@4V3@A
  00051	e8 00 00 00 00	 call	 ?Attach@CGdiObject@@QAEHPAX@Z ; CGdiObject::Attach
; File D:\git\src\IBK\IBK_DRFN\ProjSrc\SrcChartEx\ChartAddIn\ChartPatternAddIn\Control_Grid\GridCell.cpp

; 134  :         return &Font;

  00056	b8 00 00 00 00	 mov	 eax, OFFSET ?Font@?8??GetFontObject@CGridCell@@UBEPAVCFont@@XZ@4V3@A
  0005b	5e		 pop	 esi

; 135  :     }
; 136  : }

  0005c	c3		 ret	 0
$LN16@GetFontObj:

; 128  :     }
; 129  :     else
; 130  :     {
; 131  :         static CFont Font;

  0005d	68 00 00 00 00	 push	 OFFSET ?$TSS0@?8??GetFontObject@CGridCell@@UBEPAVCFont@@XZ@4HA
  00062	e8 00 00 00 00	 call	 __Init_thread_header
  00067	83 c4 04	 add	 esp, 4
  0006a	83 3d 00 00 00
	00 ff		 cmp	 DWORD PTR ?$TSS0@?8??GetFontObject@CGridCell@@UBEPAVCFont@@XZ@4HA, -1
  00071	75 c5		 jne	 SHORT $LN2@GetFontObj
  00073	68 00 00 00 00	 push	 OFFSET ??__FFont@?8??GetFontObject@CGridCell@@UBEPAVCFont@@XZ@YAXXZ ; `CGridCell::GetFontObject'::`9'::`dynamic atexit destructor for 'Font''
  00078	e8 00 00 00 00	 call	 _atexit
  0007d	68 00 00 00 00	 push	 OFFSET ?$TSS0@?8??GetFontObject@CGridCell@@UBEPAVCFont@@XZ@4HA
  00082	e8 00 00 00 00	 call	 __Init_thread_footer
  00087	83 c4 08	 add	 esp, 8
  0008a	eb ac		 jmp	 SHORT $LN2@GetFontObj
?GetFontObject@CGridCell@@UBEPAVCFont@@XZ ENDP		; CGridCell::GetFontObject
_TEXT	ENDS
; Function compile flags: /Ogtp
; File D:\git\src\IBK\IBK_DRFN\ProjSrc\SrcChartEx\ChartAddIn\ChartPatternAddIn\Control_Grid\GridCell.cpp
;	COMDAT ?GetFont@CGridCell@@UBEPAUtagLOGFONTA@@XZ
_TEXT	SEGMENT
?GetFont@CGridCell@@UBEPAUtagLOGFONTA@@XZ PROC		; CGridCell::GetFont, COMDAT
; _this$ = ecx

; 106  :     if (m_plfFont == NULL)

  00000	8b 41 20	 mov	 eax, DWORD PTR [ecx+32]
  00003	85 c0		 test	 eax, eax
  00005	75 0b		 jne	 SHORT $LN1@GetFont

; 107  :     {
; 108  :         CGridDefaultCell *pDefaultCell = (CGridDefaultCell*) GetDefaultCell();

  00007	8b 01		 mov	 eax, DWORD PTR [ecx]
  00009	ff 50 74	 call	 DWORD PTR [eax+116]
  0000c	8b c8		 mov	 ecx, eax

; 109  :         if (!pDefaultCell)

  0000e	85 c9		 test	 ecx, ecx
  00010	75 01		 jne	 SHORT $LN3@GetFont
$LN1@GetFont:

; 113  :     }
; 114  : 
; 115  :     return m_plfFont; 
; 116  : }

  00012	c3		 ret	 0
$LN3@GetFont:

; 110  :             return NULL;
; 111  : 
; 112  :         return pDefaultCell->GetFont();

  00013	8b 01		 mov	 eax, DWORD PTR [ecx]
  00015	ff 60 60	 jmp	 DWORD PTR [eax+96]
?GetFont@CGridCell@@UBEPAUtagLOGFONTA@@XZ ENDP		; CGridCell::GetFont
_TEXT	ENDS
; Function compile flags: /Ogtp
; File D:\git\src\IBK\IBK_DRFN\ProjSrc\SrcChartEx\ChartAddIn\ChartPatternAddIn\Control_Grid\GridCell.h
;	COMDAT ?GetBackClr@CGridCell@@UBEKXZ
_TEXT	SEGMENT
?GetBackClr@CGridCell@@UBEKXZ PROC			; CGridCell::GetBackClr, COMDAT
; _this$ = ecx

; 74   :     virtual COLORREF    GetBackClr() const          { return m_crBkClr; }

  00000	8b 41 1c	 mov	 eax, DWORD PTR [ecx+28]
  00003	c3		 ret	 0
?GetBackClr@CGridCell@@UBEKXZ ENDP			; CGridCell::GetBackClr
_TEXT	ENDS
; Function compile flags: /Ogtp
; File D:\git\src\IBK\IBK_DRFN\ProjSrc\SrcChartEx\ChartAddIn\ChartPatternAddIn\Control_Grid\GridCell.h
;	COMDAT ?GetTextClr@CGridCell@@UBEKXZ
_TEXT	SEGMENT
?GetTextClr@CGridCell@@UBEKXZ PROC			; CGridCell::GetTextClr, COMDAT
; _this$ = ecx

; 73   :     virtual COLORREF    GetTextClr() const          { return m_crFgClr; } // TODO: change to use default cell

  00000	8b 41 18	 mov	 eax, DWORD PTR [ecx+24]
  00003	c3		 ret	 0
?GetTextClr@CGridCell@@UBEKXZ ENDP			; CGridCell::GetTextClr
_TEXT	ENDS
; Function compile flags: /Ogtp
; File D:\git\src\IBK\IBK_DRFN\ProjSrc\SrcChartEx\ChartAddIn\ChartPatternAddIn\Control_Grid\GridCell.cpp
;	COMDAT ?GetFormat@CGridCell@@UBEKXZ
_TEXT	SEGMENT
?GetFormat@CGridCell@@UBEKXZ PROC			; CGridCell::GetFormat, COMDAT
; _this$ = ecx

; 140  :     if (m_nFormat == (DWORD)-1)

  00000	8b 41 14	 mov	 eax, DWORD PTR [ecx+20]
  00003	83 f8 ff	 cmp	 eax, -1
  00006	75 0b		 jne	 SHORT $LN1@GetFormat

; 141  :     {
; 142  :         CGridDefaultCell *pDefaultCell = (CGridDefaultCell*) GetDefaultCell();

  00008	8b 01		 mov	 eax, DWORD PTR [ecx]
  0000a	ff 50 74	 call	 DWORD PTR [eax+116]
  0000d	8b c8		 mov	 ecx, eax

; 143  :         if (!pDefaultCell)

  0000f	85 c9		 test	 ecx, ecx
  00011	75 01		 jne	 SHORT $LN3@GetFormat
$LN1@GetFormat:

; 147  :     }
; 148  : 
; 149  :     return m_nFormat; 
; 150  : }

  00013	c3		 ret	 0
$LN3@GetFormat:

; 144  :             return 0;
; 145  : 
; 146  :         return pDefaultCell->GetFormat();

  00014	8b 01		 mov	 eax, DWORD PTR [ecx]
  00016	ff 60 54	 jmp	 DWORD PTR [eax+84]
?GetFormat@CGridCell@@UBEKXZ ENDP			; CGridCell::GetFormat
_TEXT	ENDS
; Function compile flags: /Ogtp
; File D:\git\src\IBK\IBK_DRFN\ProjSrc\SrcChartEx\ChartAddIn\ChartPatternAddIn\Control_Grid\GridCell.h
;	COMDAT ?GetGrid@CGridCell@@UBEPAVCGridCtrl@@XZ
_TEXT	SEGMENT
?GetGrid@CGridCell@@UBEPAVCGridCtrl@@XZ PROC		; CGridCell::GetGrid, COMDAT
; _this$ = ecx

; 70   :     virtual CGridCtrl*  GetGrid() const             { return m_pGrid;   }

  00000	8b 41 2c	 mov	 eax, DWORD PTR [ecx+44]
  00003	c3		 ret	 0
?GetGrid@CGridCell@@UBEPAVCGridCtrl@@XZ ENDP		; CGridCell::GetGrid
_TEXT	ENDS
; Function compile flags: /Ogtp
; File D:\git\src\IBK\IBK_DRFN\ProjSrc\SrcChartEx\ChartAddIn\ChartPatternAddIn\Control_Grid\GridCell.h
;	COMDAT ?GetData@CGridCell@@UBEJXZ
_TEXT	SEGMENT
?GetData@CGridCell@@UBEJXZ PROC				; CGridCell::GetData, COMDAT
; _this$ = ecx

; 69   :     virtual LPARAM      GetData() const             { return m_lParam;  }

  00000	8b 41 0c	 mov	 eax, DWORD PTR [ecx+12]
  00003	c3		 ret	 0
?GetData@CGridCell@@UBEJXZ ENDP				; CGridCell::GetData
_TEXT	ENDS
; Function compile flags: /Ogtp
; File D:\git\src\IBK\IBK_DRFN\ProjSrc\SrcChartEx\ChartAddIn\ChartPatternAddIn\Control_Grid\GridCell.h
;	COMDAT ?GetImage@CGridCell@@UBEHXZ
_TEXT	SEGMENT
?GetImage@CGridCell@@UBEHXZ PROC			; CGridCell::GetImage, COMDAT
; _this$ = ecx

; 68   :     virtual int         GetImage() const            { return m_nImage;  }

  00000	8b 41 10	 mov	 eax, DWORD PTR [ecx+16]
  00003	c3		 ret	 0
?GetImage@CGridCell@@UBEHXZ ENDP			; CGridCell::GetImage
_TEXT	ENDS
; Function compile flags: /Ogtp
; File D:\git\src\IBK\IBK_DRFN\ProjSrc\SrcChartEx\ChartAddIn\ChartPatternAddIn\Control_Grid\GridCell.h
; File C:\Program Files (x86)\Microsoft Visual Studio\2019\Community\VC\Tools\MSVC\14.29.30133\atlmfc\include\atlsimpstr.h
; File D:\git\src\IBK\IBK_DRFN\ProjSrc\SrcChartEx\ChartAddIn\ChartPatternAddIn\Control_Grid\GridCell.h
; File C:\Program Files (x86)\Microsoft Visual Studio\2019\Community\VC\Tools\MSVC\14.29.30133\atlmfc\include\atlsimpstr.h
; File D:\git\src\IBK\IBK_DRFN\ProjSrc\SrcChartEx\ChartAddIn\ChartPatternAddIn\Control_Grid\GridCell.h
;	COMDAT ?GetText@CGridCell@@UBEPBDXZ
_TEXT	SEGMENT
?GetText@CGridCell@@UBEPBDXZ PROC			; CGridCell::GetText, COMDAT
; _this$ = ecx
; File C:\Program Files (x86)\Microsoft Visual Studio\2019\Community\VC\Tools\MSVC\14.29.30133\atlmfc\include\atlsimpstr.h

; 519  : 		return( GetData()->nDataLength );

  00000	8b 49 08	 mov	 ecx, DWORD PTR [ecx+8]
; File D:\git\src\IBK\IBK_DRFN\ProjSrc\SrcChartEx\ChartAddIn\ChartPatternAddIn\Control_Grid\GridCell.h

; 67   :     virtual LPCTSTR     GetText() const             { return (m_strText.IsEmpty())? _T("") : m_strText; }

  00003	b8 00 00 00 00	 mov	 eax, OFFSET ??_C@_00CNPNBAHC@@
; File C:\Program Files (x86)\Microsoft Visual Studio\2019\Community\VC\Tools\MSVC\14.29.30133\atlmfc\include\atlsimpstr.h

; 533  : 		return( GetLength() == 0 );

  00008	83 79 f4 00	 cmp	 DWORD PTR [ecx-12], 0
; File D:\git\src\IBK\IBK_DRFN\ProjSrc\SrcChartEx\ChartAddIn\ChartPatternAddIn\Control_Grid\GridCell.h

; 67   :     virtual LPCTSTR     GetText() const             { return (m_strText.IsEmpty())? _T("") : m_strText; }

  0000c	0f 45 c1	 cmovne	 eax, ecx
  0000f	c3		 ret	 0
?GetText@CGridCell@@UBEPBDXZ ENDP			; CGridCell::GetText
_TEXT	ENDS
; Function compile flags: /Ogtp
; File D:\git\src\IBK\IBK_DRFN\ProjSrc\SrcChartEx\ChartAddIn\ChartPatternAddIn\Control_Grid\GridCell.h
;	COMDAT ?SetCoords@CGridCell@@UAEXHH@Z
_TEXT	SEGMENT
___formal$ = 8						; size = 4
___formal$ = 12						; size = 4
?SetCoords@CGridCell@@UAEXHH@Z PROC			; CGridCell::SetCoords, COMDAT
; _this$ = ecx

; 64   :     virtual void  SetCoords( int /* nRow */, int /* nCol */) {}  // don't need to know the row and

  00000	c2 08 00	 ret	 8
?SetCoords@CGridCell@@UAEXHH@Z ENDP			; CGridCell::SetCoords
_TEXT	ENDS
; Function compile flags: /Ogtp
; File D:\git\src\IBK\IBK_DRFN\ProjSrc\SrcChartEx\ChartAddIn\ChartPatternAddIn\Control_Grid\GridCell.h
;	COMDAT ?GetEditWnd@CGridCell@@UBEPAVCWnd@@XZ
_TEXT	SEGMENT
?GetEditWnd@CGridCell@@UBEPAVCWnd@@XZ PROC		; CGridCell::GetEditWnd, COMDAT
; _this$ = ecx

; 63   :     virtual CWnd* GetEditWnd() const             { return m_pEditWnd;   }

  00000	8b 41 30	 mov	 eax, DWORD PTR [ecx+48]
  00003	c3		 ret	 0
?GetEditWnd@CGridCell@@UBEPAVCWnd@@XZ ENDP		; CGridCell::GetEditWnd
_TEXT	ENDS
; Function compile flags: /Ogtp
; File D:\git\src\IBK\IBK_DRFN\ProjSrc\SrcChartEx\ChartAddIn\ChartPatternAddIn\Control_Grid\GridCell.h
;	COMDAT ?SetMargin@CGridCell@@UAEXI@Z
_TEXT	SEGMENT
_nMargin$ = 8						; size = 4
?SetMargin@CGridCell@@UAEXI@Z PROC			; CGridCell::SetMargin, COMDAT
; _this$ = ecx

; 62   :     virtual void  SetMargin(UINT nMargin)        { m_nMargin = nMargin; }

  00000	55		 push	 ebp
  00001	8b ec		 mov	 ebp, esp
  00003	8b 45 08	 mov	 eax, DWORD PTR _nMargin$[ebp]
  00006	89 41 24	 mov	 DWORD PTR [ecx+36], eax
  00009	5d		 pop	 ebp
  0000a	c2 04 00	 ret	 4
?SetMargin@CGridCell@@UAEXI@Z ENDP			; CGridCell::SetMargin
_TEXT	ENDS
; Function compile flags: /Ogtp
; File D:\git\src\IBK\IBK_DRFN\ProjSrc\SrcChartEx\ChartAddIn\ChartPatternAddIn\Control_Grid\GridCell.cpp
;	COMDAT ?SetFont@CGridCell@@UAEXPBUtagLOGFONTA@@@Z
_TEXT	SEGMENT
_plf$ = 8						; size = 4
?SetFont@CGridCell@@UAEXPBUtagLOGFONTA@@@Z PROC		; CGridCell::SetFont, COMDAT
; _this$ = ecx

; 89   : {

  00000	55		 push	 ebp
  00001	8b ec		 mov	 ebp, esp
  00003	56		 push	 esi
  00004	57		 push	 edi

; 90   :     if (plf == NULL)

  00005	8b 7d 08	 mov	 edi, DWORD PTR _plf$[ebp]
  00008	8b f1		 mov	 esi, ecx
  0000a	85 ff		 test	 edi, edi
  0000c	75 16		 jne	 SHORT $LN2@SetFont

; 91   :     {
; 92   :         delete m_plfFont;

  0000e	6a 3c		 push	 60			; 0000003cH
  00010	ff 76 20	 push	 DWORD PTR [esi+32]
  00013	e8 00 00 00 00	 call	 ??3@YAXPAXI@Z		; operator delete
  00018	83 c4 08	 add	 esp, 8

; 93   :         m_plfFont = NULL;

  0001b	89 7e 20	 mov	 DWORD PTR [esi+32], edi
  0001e	5f		 pop	 edi

; 101  :     }
; 102  : }

  0001f	5e		 pop	 esi
  00020	5d		 pop	 ebp
  00021	c2 04 00	 ret	 4
$LN2@SetFont:

; 94   :     }
; 95   :     else
; 96   :     {
; 97   :         if (!m_plfFont)

  00024	8b 4e 20	 mov	 ecx, DWORD PTR [esi+32]
  00027	85 c9		 test	 ecx, ecx
  00029	75 13		 jne	 SHORT $LN8@SetFont

; 98   :             m_plfFont = new LOGFONT;

  0002b	6a 3c		 push	 60			; 0000003cH
  0002d	e8 00 00 00 00	 call	 ??2@YAPAXI@Z		; operator new
  00032	8b c8		 mov	 ecx, eax
  00034	83 c4 04	 add	 esp, 4
  00037	89 4e 20	 mov	 DWORD PTR [esi+32], ecx

; 99   :         if (m_plfFont)

  0003a	85 c9		 test	 ecx, ecx
  0003c	74 26		 je	 SHORT $LN5@SetFont
$LN8@SetFont:

; 100  :             memcpy(m_plfFont, plf, sizeof(LOGFONT)); 

  0003e	0f 10 07	 movups	 xmm0, XMMWORD PTR [edi]
  00041	0f 11 01	 movups	 XMMWORD PTR [ecx], xmm0
  00044	0f 10 47 10	 movups	 xmm0, XMMWORD PTR [edi+16]
  00048	0f 11 41 10	 movups	 XMMWORD PTR [ecx+16], xmm0
  0004c	0f 10 47 20	 movups	 xmm0, XMMWORD PTR [edi+32]
  00050	0f 11 41 20	 movups	 XMMWORD PTR [ecx+32], xmm0
  00054	f3 0f 7e 47 30	 movq	 xmm0, QWORD PTR [edi+48]
  00059	66 0f d6 41 30	 movq	 QWORD PTR [ecx+48], xmm0
  0005e	8b 47 38	 mov	 eax, DWORD PTR [edi+56]
  00061	89 41 38	 mov	 DWORD PTR [ecx+56], eax
$LN5@SetFont:

; 101  :     }
; 102  : }

  00064	5f		 pop	 edi
  00065	5e		 pop	 esi
  00066	5d		 pop	 ebp
  00067	c2 04 00	 ret	 4
?SetFont@CGridCell@@UAEXPBUtagLOGFONTA@@@Z ENDP		; CGridCell::SetFont
_TEXT	ENDS
; Function compile flags: /Ogtp
; File D:\git\src\IBK\IBK_DRFN\ProjSrc\SrcChartEx\ChartAddIn\ChartPatternAddIn\Control_Grid\GridCell.h
;	COMDAT ?SetBackClr@CGridCell@@UAEXK@Z
_TEXT	SEGMENT
_clr$ = 8						; size = 4
?SetBackClr@CGridCell@@UAEXK@Z PROC			; CGridCell::SetBackClr, COMDAT
; _this$ = ecx

; 60   :     virtual void  SetBackClr(COLORREF clr)       { m_crBkClr = clr;     }                          

  00000	55		 push	 ebp
  00001	8b ec		 mov	 ebp, esp
  00003	8b 45 08	 mov	 eax, DWORD PTR _clr$[ebp]
  00006	89 41 1c	 mov	 DWORD PTR [ecx+28], eax
  00009	5d		 pop	 ebp
  0000a	c2 04 00	 ret	 4
?SetBackClr@CGridCell@@UAEXK@Z ENDP			; CGridCell::SetBackClr
_TEXT	ENDS
; Function compile flags: /Ogtp
; File D:\git\src\IBK\IBK_DRFN\ProjSrc\SrcChartEx\ChartAddIn\ChartPatternAddIn\Control_Grid\GridCell.h
;	COMDAT ?SetTextClr@CGridCell@@UAEXK@Z
_TEXT	SEGMENT
_clr$ = 8						; size = 4
?SetTextClr@CGridCell@@UAEXK@Z PROC			; CGridCell::SetTextClr, COMDAT
; _this$ = ecx

; 59   :     virtual void  SetTextClr(COLORREF clr)       { m_crFgClr = clr;     }                          

  00000	55		 push	 ebp
  00001	8b ec		 mov	 ebp, esp
  00003	8b 45 08	 mov	 eax, DWORD PTR _clr$[ebp]
  00006	89 41 18	 mov	 DWORD PTR [ecx+24], eax
  00009	5d		 pop	 ebp
  0000a	c2 04 00	 ret	 4
?SetTextClr@CGridCell@@UAEXK@Z ENDP			; CGridCell::SetTextClr
_TEXT	ENDS
; Function compile flags: /Ogtp
; File D:\git\src\IBK\IBK_DRFN\ProjSrc\SrcChartEx\ChartAddIn\ChartPatternAddIn\Control_Grid\GridCell.h
;	COMDAT ?SetFormat@CGridCell@@UAEXK@Z
_TEXT	SEGMENT
_nFormat$ = 8						; size = 4
?SetFormat@CGridCell@@UAEXK@Z PROC			; CGridCell::SetFormat, COMDAT
; _this$ = ecx

; 58   :     virtual void  SetFormat(DWORD nFormat)       { m_nFormat = nFormat; }                      

  00000	55		 push	 ebp
  00001	8b ec		 mov	 ebp, esp
  00003	8b 45 08	 mov	 eax, DWORD PTR _nFormat$[ebp]
  00006	89 41 14	 mov	 DWORD PTR [ecx+20], eax
  00009	5d		 pop	 ebp
  0000a	c2 04 00	 ret	 4
?SetFormat@CGridCell@@UAEXK@Z ENDP			; CGridCell::SetFormat
_TEXT	ENDS
; Function compile flags: /Ogtp
; File D:\git\src\IBK\IBK_DRFN\ProjSrc\SrcChartEx\ChartAddIn\ChartPatternAddIn\Control_Grid\GridCell.h
;	COMDAT ?SetGrid@CGridCell@@UAEXPAVCGridCtrl@@@Z
_TEXT	SEGMENT
_pGrid$ = 8						; size = 4
?SetGrid@CGridCell@@UAEXPAVCGridCtrl@@@Z PROC		; CGridCell::SetGrid, COMDAT
; _this$ = ecx

; 56   :     virtual void  SetGrid(CGridCtrl* pGrid)      { m_pGrid = pGrid;     }                          

  00000	55		 push	 ebp
  00001	8b ec		 mov	 ebp, esp
  00003	8b 45 08	 mov	 eax, DWORD PTR _pGrid$[ebp]
  00006	89 41 2c	 mov	 DWORD PTR [ecx+44], eax
  00009	5d		 pop	 ebp
  0000a	c2 04 00	 ret	 4
?SetGrid@CGridCell@@UAEXPAVCGridCtrl@@@Z ENDP		; CGridCell::SetGrid
_TEXT	ENDS
; Function compile flags: /Ogtp
; File D:\git\src\IBK\IBK_DRFN\ProjSrc\SrcChartEx\ChartAddIn\ChartPatternAddIn\Control_Grid\GridCell.h
;	COMDAT ?SetData@CGridCell@@UAEXJ@Z
_TEXT	SEGMENT
_lParam$ = 8						; size = 4
?SetData@CGridCell@@UAEXJ@Z PROC			; CGridCell::SetData, COMDAT
; _this$ = ecx

; 55   :     virtual void  SetData(LPARAM lParam)         { m_lParam = lParam;   }      

  00000	55		 push	 ebp
  00001	8b ec		 mov	 ebp, esp
  00003	8b 45 08	 mov	 eax, DWORD PTR _lParam$[ebp]
  00006	89 41 0c	 mov	 DWORD PTR [ecx+12], eax
  00009	5d		 pop	 ebp
  0000a	c2 04 00	 ret	 4
?SetData@CGridCell@@UAEXJ@Z ENDP			; CGridCell::SetData
_TEXT	ENDS
; Function compile flags: /Ogtp
; File D:\git\src\IBK\IBK_DRFN\ProjSrc\SrcChartEx\ChartAddIn\ChartPatternAddIn\Control_Grid\GridCell.h
;	COMDAT ?SetImage@CGridCell@@UAEXH@Z
_TEXT	SEGMENT
_nImage$ = 8						; size = 4
?SetImage@CGridCell@@UAEXH@Z PROC			; CGridCell::SetImage, COMDAT
; _this$ = ecx

; 54   :     virtual void  SetImage(int nImage)           { m_nImage = nImage;   }                        

  00000	55		 push	 ebp
  00001	8b ec		 mov	 ebp, esp
  00003	8b 45 08	 mov	 eax, DWORD PTR _nImage$[ebp]
  00006	89 41 10	 mov	 DWORD PTR [ecx+16], eax
  00009	5d		 pop	 ebp
  0000a	c2 04 00	 ret	 4
?SetImage@CGridCell@@UAEXH@Z ENDP			; CGridCell::SetImage
_TEXT	ENDS
; Function compile flags: /Ogtp
; File D:\git\src\IBK\IBK_DRFN\ProjSrc\SrcChartEx\ChartAddIn\ChartPatternAddIn\Control_Grid\GridCell.h
;	COMDAT ?SetText@CGridCell@@UAEXPBD@Z
_TEXT	SEGMENT
_szText$ = 8						; size = 4
?SetText@CGridCell@@UAEXPBD@Z PROC			; CGridCell::SetText, COMDAT
; _this$ = ecx

; 53   :     virtual void  SetText(LPCTSTR szText)        { m_strText = szText;  }                       

  00000	55		 push	 ebp
  00001	8b ec		 mov	 ebp, esp
  00003	83 c1 08	 add	 ecx, 8
  00006	5d		 pop	 ebp
  00007	ff 25 00 00 00
	00		 jmp	 DWORD PTR __imp_??4?$CStringT@DV?$StrTraitMFC_DLL@DV?$ChTraitsCRT@D@ATL@@@@@ATL@@QAEAAV01@PBD@Z
?SetText@CGridCell@@UAEXPBD@Z ENDP			; CGridCell::SetText
_TEXT	ENDS
; Function compile flags: /Ogtp
; File D:\git\src\IBK\IBK_DRFN\ProjSrc\SrcChartEx\ChartAddIn\ChartPatternAddIn\Control_Grid\GridCell.cpp
;	COMDAT ??4CGridCell@@QAEXABV0@@Z
_TEXT	SEGMENT
_cell$ = 8						; size = 4
??4CGridCell@@QAEXABV0@@Z PROC				; CGridCell::operator=, COMDAT
; _this$ = ecx

; 65   : {

  00000	55		 push	 ebp
  00001	8b ec		 mov	 ebp, esp

; 67   : }

  00003	5d		 pop	 ebp

; 66   :     CGridCellBase::operator=(  cell);

  00004	e9 00 00 00 00	 jmp	 ??4CGridCellBase@@UAEXABV0@@Z ; CGridCellBase::operator=
??4CGridCell@@QAEXABV0@@Z ENDP				; CGridCell::operator=
_TEXT	ENDS
; Function compile flags: /Ogtp
; File D:\git\src\IBK\IBK_DRFN\ProjSrc\SrcChartEx\ChartAddIn\ChartPatternAddIn\Control_Grid\GridCell.cpp
;	COMDAT ??1CGridCell@@UAE@XZ
_TEXT	SEGMENT
??1CGridCell@@UAE@XZ PROC				; CGridCell::~CGridCell, COMDAT
; _this$ = ecx

; 57   : {

  00000	56		 push	 esi
  00001	8b f1		 mov	 esi, ecx

; 58   :     delete m_plfFont;

  00003	6a 3c		 push	 60			; 0000003cH
  00005	ff 76 20	 push	 DWORD PTR [esi+32]
  00008	c7 06 00 00 00
	00		 mov	 DWORD PTR [esi], OFFSET ??_7CGridCell@@6B@
  0000e	e8 00 00 00 00	 call	 ??3@YAXPAXI@Z		; operator delete
  00013	83 c4 08	 add	 esp, 8

; 59   : }

  00016	8d 4e 08	 lea	 ecx, DWORD PTR [esi+8]
  00019	ff 15 00 00 00
	00		 call	 DWORD PTR __imp_??1?$CStringT@DV?$StrTraitMFC_DLL@DV?$ChTraitsCRT@D@ATL@@@@@ATL@@QAE@XZ
  0001f	8b ce		 mov	 ecx, esi
  00021	5e		 pop	 esi
  00022	e9 00 00 00 00	 jmp	 ??1CGridCellBase@@UAE@XZ ; CGridCellBase::~CGridCellBase
??1CGridCell@@UAE@XZ ENDP				; CGridCell::~CGridCell
_TEXT	ENDS
; Function compile flags: /Ogtp
; File D:\git\src\IBK\IBK_DRFN\ProjSrc\SrcChartEx\ChartAddIn\ChartPatternAddIn\Control_Grid\GridCell.cpp
;	COMDAT ??0CGridCell@@QAE@XZ
_TEXT	SEGMENT
_this$ = -16						; size = 4
__$EHRec$ = -12						; size = 12
??0CGridCell@@QAE@XZ PROC				; CGridCell::CGridCell, COMDAT
; _this$ = ecx

; 51   : {

  00000	55		 push	 ebp
  00001	8b ec		 mov	 ebp, esp
  00003	6a ff		 push	 -1
  00005	68 00 00 00 00	 push	 __ehhandler$??0CGridCell@@QAE@XZ
  0000a	64 a1 00 00 00
	00		 mov	 eax, DWORD PTR fs:0
  00010	50		 push	 eax
  00011	51		 push	 ecx
  00012	56		 push	 esi
  00013	57		 push	 edi
  00014	a1 00 00 00 00	 mov	 eax, DWORD PTR ___security_cookie
  00019	33 c5		 xor	 eax, ebp
  0001b	50		 push	 eax
  0001c	8d 45 f4	 lea	 eax, DWORD PTR __$EHRec$[ebp]
  0001f	64 a3 00 00 00
	00		 mov	 DWORD PTR fs:0, eax
  00025	8b f9		 mov	 edi, ecx
  00027	89 7d f0	 mov	 DWORD PTR _this$[ebp], edi
  0002a	e8 00 00 00 00	 call	 ??0CGridCellBase@@QAE@XZ ; CGridCellBase::CGridCellBase
  0002f	8d 4f 08	 lea	 ecx, DWORD PTR [edi+8]
  00032	c7 45 fc 00 00
	00 00		 mov	 DWORD PTR __$EHRec$[ebp+8], 0
  00039	c7 07 00 00 00
	00		 mov	 DWORD PTR [edi], OFFSET ??_7CGridCell@@6B@
  0003f	ff 15 00 00 00
	00		 call	 DWORD PTR __imp_??0?$CStringT@DV?$StrTraitMFC_DLL@DV?$ChTraitsCRT@D@ATL@@@@@ATL@@QAE@XZ

; 71   :     CGridCellBase::Reset();

  00045	8b cf		 mov	 ecx, edi

; 51   : {

  00047	c6 45 fc 01	 mov	 BYTE PTR __$EHRec$[ebp+8], 1

; 52   :     m_plfFont = NULL;

  0004b	c7 47 20 00 00
	00 00		 mov	 DWORD PTR [edi+32], 0

; 71   :     CGridCellBase::Reset();

  00052	e8 00 00 00 00	 call	 ?Reset@CGridCellBase@@UAEXXZ ; CGridCellBase::Reset

; 72   : 
; 73   :     m_strText.Empty();

  00057	8d 4f 08	 lea	 ecx, DWORD PTR [edi+8]
  0005a	ff 15 00 00 00
	00		 call	 DWORD PTR __imp_?Empty@?$CSimpleStringT@D$00@ATL@@QAEXXZ

; 74   :     m_nImage   = -1;
; 75   :     m_pGrid    = NULL;
; 76   :     m_bEditing = FALSE;
; 77   :     m_pEditWnd = NULL;
; 78   : 
; 79   :     m_nFormat = (DWORD)-1;       // Use default from CGridDefaultCell
; 80   :     m_crBkClr = CLR_DEFAULT;     // Background colour (or CLR_DEFAULT)
; 81   :     m_crFgClr = CLR_DEFAULT;     // Forground colour (or CLR_DEFAULT)
; 82   :     m_nMargin = (UINT)-1;        // Use default from CGridDefaultCell
; 83   : 
; 84   :     delete m_plfFont;

  00060	6a 3c		 push	 60			; 0000003cH
  00062	ff 77 20	 push	 DWORD PTR [edi+32]
  00065	c7 47 10 ff ff
	ff ff		 mov	 DWORD PTR [edi+16], -1
  0006c	c7 47 2c 00 00
	00 00		 mov	 DWORD PTR [edi+44], 0
  00073	c7 47 28 00 00
	00 00		 mov	 DWORD PTR [edi+40], 0
  0007a	c7 47 30 00 00
	00 00		 mov	 DWORD PTR [edi+48], 0
  00081	c7 47 14 ff ff
	ff ff		 mov	 DWORD PTR [edi+20], -1
  00088	c7 47 1c 00 00
	00 ff		 mov	 DWORD PTR [edi+28], -16777216 ; ff000000H
  0008f	c7 47 18 00 00
	00 ff		 mov	 DWORD PTR [edi+24], -16777216 ; ff000000H
  00096	c7 47 24 ff ff
	ff ff		 mov	 DWORD PTR [edi+36], -1
  0009d	e8 00 00 00 00	 call	 ??3@YAXPAXI@Z		; operator delete
  000a2	83 c4 08	 add	 esp, 8

; 85   :     m_plfFont = NULL;            // Cell font

  000a5	c7 47 20 00 00
	00 00		 mov	 DWORD PTR [edi+32], 0

; 53   :     Reset();
; 54   : }

  000ac	8b c7		 mov	 eax, edi
  000ae	8b 4d f4	 mov	 ecx, DWORD PTR __$EHRec$[ebp]
  000b1	64 89 0d 00 00
	00 00		 mov	 DWORD PTR fs:0, ecx
  000b8	59		 pop	 ecx
  000b9	5f		 pop	 edi
  000ba	5e		 pop	 esi
  000bb	8b e5		 mov	 esp, ebp
  000bd	5d		 pop	 ebp
  000be	c3		 ret	 0
_TEXT	ENDS
;	COMDAT text$x
text$x	SEGMENT
__unwindfunclet$??0CGridCell@@QAE@XZ$0:
  00000	8b 4d f0	 mov	 ecx, DWORD PTR _this$[ebp]
  00003	e9 00 00 00 00	 jmp	 ??1CGridCellBase@@UAE@XZ ; CGridCellBase::~CGridCellBase
__unwindfunclet$??0CGridCell@@QAE@XZ$1:
  00008	8b 4d f0	 mov	 ecx, DWORD PTR _this$[ebp]
  0000b	83 c1 08	 add	 ecx, 8
  0000e	ff 25 00 00 00
	00		 jmp	 DWORD PTR __imp_??1?$CStringT@DV?$StrTraitMFC_DLL@DV?$ChTraitsCRT@D@ATL@@@@@ATL@@QAE@XZ
  00014	cc		 int	 3
  00015	cc		 int	 3
  00016	cc		 int	 3
  00017	cc		 int	 3
  00018	cc		 int	 3
__ehhandler$??0CGridCell@@QAE@XZ:
  00019	90		 npad	 1
  0001a	90		 npad	 1
  0001b	8b 54 24 08	 mov	 edx, DWORD PTR [esp+8]
  0001f	8d 42 0c	 lea	 eax, DWORD PTR [edx+12]
  00022	8b 4a f0	 mov	 ecx, DWORD PTR [edx-16]
  00025	33 c8		 xor	 ecx, eax
  00027	e8 00 00 00 00	 call	 @__security_check_cookie@4
  0002c	b8 00 00 00 00	 mov	 eax, OFFSET __ehfuncinfo$??0CGridCell@@QAE@XZ
  00031	e9 00 00 00 00	 jmp	 ___CxxFrameHandler3
text$x	ENDS
??0CGridCell@@QAE@XZ ENDP				; CGridCell::CGridCell
; Function compile flags: /Ogtp
; File D:\git\src\IBK\IBK_DRFN\ProjSrc\SrcChartEx\ChartAddIn\ChartPatternAddIn\Control_Grid\GridCell.cpp
; File C:\Program Files (x86)\Microsoft Visual Studio\2019\Community\VC\Tools\MSVC\14.29.30133\atlmfc\include\afx.inl
; File D:\git\src\IBK\IBK_DRFN\ProjSrc\SrcChartEx\ChartAddIn\ChartPatternAddIn\Control_Grid\GridCell.cpp
;	COMDAT ?CreateObject@CGridCell@@SGPAVCObject@@XZ
_TEXT	SEGMENT
$T2 = -16						; size = 4
__$EHRec$ = -12						; size = 12
?CreateObject@CGridCell@@SGPAVCObject@@XZ PROC		; CGridCell::CreateObject, COMDAT

; 44   : IMPLEMENT_DYNCREATE(CGridCell, CGridCellBase)

  00000	55		 push	 ebp
  00001	8b ec		 mov	 ebp, esp
  00003	6a ff		 push	 -1
  00005	68 00 00 00 00	 push	 __ehhandler$?CreateObject@CGridCell@@SGPAVCObject@@XZ
  0000a	64 a1 00 00 00
	00		 mov	 eax, DWORD PTR fs:0
  00010	50		 push	 eax
  00011	51		 push	 ecx
  00012	a1 00 00 00 00	 mov	 eax, DWORD PTR ___security_cookie
  00017	33 c5		 xor	 eax, ebp
  00019	50		 push	 eax
  0001a	8d 45 f4	 lea	 eax, DWORD PTR __$EHRec$[ebp]
  0001d	64 a3 00 00 00
	00		 mov	 DWORD PTR fs:0, eax
; File C:\Program Files (x86)\Microsoft Visual Studio\2019\Community\VC\Tools\MSVC\14.29.30133\atlmfc\include\afx.inl

; 116  : 	{ return ::operator new(nSize); }

  00023	6a 34		 push	 52			; 00000034H
  00025	e8 00 00 00 00	 call	 ??2@YAPAXI@Z		; operator new
  0002a	83 c4 04	 add	 esp, 4
; File D:\git\src\IBK\IBK_DRFN\ProjSrc\SrcChartEx\ChartAddIn\ChartPatternAddIn\Control_Grid\GridCell.cpp

; 44   : IMPLEMENT_DYNCREATE(CGridCell, CGridCellBase)

  0002d	89 45 f0	 mov	 DWORD PTR $T2[ebp], eax
  00030	c7 45 fc 00 00
	00 00		 mov	 DWORD PTR __$EHRec$[ebp+8], 0
  00037	85 c0		 test	 eax, eax
  00039	74 16		 je	 SHORT $LN3@CreateObje
  0003b	8b c8		 mov	 ecx, eax
  0003d	e8 00 00 00 00	 call	 ??0CGridCell@@QAE@XZ	; CGridCell::CGridCell
  00042	8b 4d f4	 mov	 ecx, DWORD PTR __$EHRec$[ebp]
  00045	64 89 0d 00 00
	00 00		 mov	 DWORD PTR fs:0, ecx
  0004c	59		 pop	 ecx
  0004d	8b e5		 mov	 esp, ebp
  0004f	5d		 pop	 ebp
  00050	c3		 ret	 0
$LN3@CreateObje:
  00051	33 c0		 xor	 eax, eax
  00053	8b 4d f4	 mov	 ecx, DWORD PTR __$EHRec$[ebp]
  00056	64 89 0d 00 00
	00 00		 mov	 DWORD PTR fs:0, ecx
  0005d	59		 pop	 ecx
  0005e	8b e5		 mov	 esp, ebp
  00060	5d		 pop	 ebp
  00061	c3		 ret	 0
_TEXT	ENDS
;	COMDAT text$x
text$x	SEGMENT
__unwindfunclet$?CreateObject@CGridCell@@SGPAVCObject@@XZ$0:
  00000	8b 45 f0	 mov	 eax, DWORD PTR $T2[ebp]
  00003	50		 push	 eax
  00004	e8 00 00 00 00	 call	 ??3CObject@@SGXPAX@Z	; CObject::operator delete
  00009	c3		 ret	 0
  0000a	cc		 int	 3
  0000b	cc		 int	 3
  0000c	cc		 int	 3
  0000d	cc		 int	 3
  0000e	cc		 int	 3
__ehhandler$?CreateObject@CGridCell@@SGPAVCObject@@XZ:
  0000f	90		 npad	 1
  00010	90		 npad	 1
  00011	8b 54 24 08	 mov	 edx, DWORD PTR [esp+8]
  00015	8d 42 0c	 lea	 eax, DWORD PTR [edx+12]
  00018	8b 4a f8	 mov	 ecx, DWORD PTR [edx-8]
  0001b	33 c8		 xor	 ecx, eax
  0001d	e8 00 00 00 00	 call	 @__security_check_cookie@4
  00022	b8 00 00 00 00	 mov	 eax, OFFSET __ehfuncinfo$?CreateObject@CGridCell@@SGPAVCObject@@XZ
  00027	e9 00 00 00 00	 jmp	 ___CxxFrameHandler3
text$x	ENDS
?CreateObject@CGridCell@@SGPAVCObject@@XZ ENDP		; CGridCell::CreateObject
; Function compile flags: /Ogtp
; File D:\git\src\IBK\IBK_DRFN\ProjSrc\SrcChartEx\ChartAddIn\ChartPatternAddIn\Control_Grid\GridCell.cpp
;	COMDAT ?GetRuntimeClass@CGridCell@@UBEPAUCRuntimeClass@@XZ
_TEXT	SEGMENT
?GetRuntimeClass@CGridCell@@UBEPAUCRuntimeClass@@XZ PROC ; CGridCell::GetRuntimeClass, COMDAT
; _this$ = ecx

; 44   : IMPLEMENT_DYNCREATE(CGridCell, CGridCellBase)

  00000	b8 00 00 00 00	 mov	 eax, OFFSET ?classCGridCell@CGridCell@@2UCRuntimeClass@@B ; CGridCell::classCGridCell
  00005	c3		 ret	 0
?GetRuntimeClass@CGridCell@@UBEPAUCRuntimeClass@@XZ ENDP ; CGridCell::GetRuntimeClass
_TEXT	ENDS
; Function compile flags: /Ogtp
; File D:\git\src\IBK\IBK_DRFN\ProjSrc\SrcChartEx\ChartAddIn\ChartPatternAddIn\Control_Grid\GridCell.cpp
;	COMDAT ?GetThisClass@CGridCell@@SGPAUCRuntimeClass@@XZ
_TEXT	SEGMENT
?GetThisClass@CGridCell@@SGPAUCRuntimeClass@@XZ PROC	; CGridCell::GetThisClass, COMDAT

; 44   : IMPLEMENT_DYNCREATE(CGridCell, CGridCellBase)

  00000	b8 00 00 00 00	 mov	 eax, OFFSET ?classCGridCell@CGridCell@@2UCRuntimeClass@@B ; CGridCell::classCGridCell
  00005	c3		 ret	 0
?GetThisClass@CGridCell@@SGPAUCRuntimeClass@@XZ ENDP	; CGridCell::GetThisClass
_TEXT	ENDS
; Function compile flags: /Ogtp
; File D:\git\src\IBK\IBK_DRFN\ProjSrc\SrcChartEx\ChartAddIn\ChartPatternAddIn\Control_Grid\GridCell.cpp
;	COMDAT ?_GetBaseClass@CGridCell@@KGPAUCRuntimeClass@@XZ
_TEXT	SEGMENT
?_GetBaseClass@CGridCell@@KGPAUCRuntimeClass@@XZ PROC	; CGridCell::_GetBaseClass, COMDAT

; 44   : IMPLEMENT_DYNCREATE(CGridCell, CGridCellBase)

  00000	e9 00 00 00 00	 jmp	 ?GetThisClass@CGridCellBase@@SGPAUCRuntimeClass@@XZ ; CGridCellBase::GetThisClass
?_GetBaseClass@CGridCell@@KGPAUCRuntimeClass@@XZ ENDP	; CGridCell::_GetBaseClass
_TEXT	ENDS
; Function compile flags: /Ogtp
; File D:\git\src\IBK\IBK_DRFN\ProjSrc\SrcChartEx\ChartAddIn\ChartPatternAddIn\Control_Grid\GridCellBase.h
;	COMDAT ?GetTipTextRect@CGridCellBase@@UAEHPAUtagRECT@@@Z
_TEXT	SEGMENT
_pRect$ = 8						; size = 4
?GetTipTextRect@CGridCellBase@@UAEHPAUtagRECT@@@Z PROC	; CGridCellBase::GetTipTextRect, COMDAT
; _this$ = ecx

; 143  :     virtual BOOL GetTipTextRect( LPRECT pRect) { return GetTextRect( pRect); }  // may override for btns, etc.

  00000	55		 push	 ebp
  00001	8b ec		 mov	 ebp, esp
  00003	8b 01		 mov	 eax, DWORD PTR [ecx]
  00005	5d		 pop	 ebp
  00006	ff a0 ac 00 00
	00		 jmp	 DWORD PTR [eax+172]
?GetTipTextRect@CGridCellBase@@UAEHPAUtagRECT@@@Z ENDP	; CGridCellBase::GetTipTextRect
_TEXT	ENDS
; Function compile flags: /Ogtp
; File D:\git\src\IBK\IBK_DRFN\ProjSrc\SrcChartEx\ChartAddIn\ChartPatternAddIn\Control_Grid\GridCellBase.h
;	COMDAT ?IsDropHighlighted@CGridCellBase@@UBEHXZ
_TEXT	SEGMENT
?IsDropHighlighted@CGridCellBase@@UBEHXZ PROC		; CGridCellBase::IsDropHighlighted, COMDAT
; _this$ = ecx

; 131  :     virtual BOOL IsDropHighlighted() const                  { return (m_nState & GVIS_DROPHILITED); }

  00000	8b 41 04	 mov	 eax, DWORD PTR [ecx+4]
  00003	83 e0 04	 and	 eax, 4
  00006	c3		 ret	 0
?IsDropHighlighted@CGridCellBase@@UBEHXZ ENDP		; CGridCellBase::IsDropHighlighted
_TEXT	ENDS
; Function compile flags: /Ogtp
; File D:\git\src\IBK\IBK_DRFN\ProjSrc\SrcChartEx\ChartAddIn\ChartPatternAddIn\Control_Grid\GridCellBase.h
;	COMDAT ?IsModified@CGridCellBase@@UBEHXZ
_TEXT	SEGMENT
?IsModified@CGridCellBase@@UBEHXZ PROC			; CGridCellBase::IsModified, COMDAT
; _this$ = ecx

; 130  :     virtual BOOL IsModified() const                         { return (m_nState & GVIS_MODIFIED); }

  00000	8b 41 04	 mov	 eax, DWORD PTR [ecx+4]
  00003	25 80 00 00 00	 and	 eax, 128		; 00000080H
  00008	c3		 ret	 0
?IsModified@CGridCellBase@@UBEHXZ ENDP			; CGridCellBase::IsModified
_TEXT	ENDS
; Function compile flags: /Ogtp
; File D:\git\src\IBK\IBK_DRFN\ProjSrc\SrcChartEx\ChartAddIn\ChartPatternAddIn\Control_Grid\GridCellBase.h
;	COMDAT ?IsReadOnly@CGridCellBase@@UBEHXZ
_TEXT	SEGMENT
?IsReadOnly@CGridCellBase@@UBEHXZ PROC			; CGridCellBase::IsReadOnly, COMDAT
; _this$ = ecx

; 129  :     virtual BOOL IsReadOnly() const                         { return (m_nState & GVIS_READONLY); }

  00000	8b 41 04	 mov	 eax, DWORD PTR [ecx+4]
  00003	83 e0 08	 and	 eax, 8
  00006	c3		 ret	 0
?IsReadOnly@CGridCellBase@@UBEHXZ ENDP			; CGridCellBase::IsReadOnly
_TEXT	ENDS
; Function compile flags: /Ogtp
; File D:\git\src\IBK\IBK_DRFN\ProjSrc\SrcChartEx\ChartAddIn\ChartPatternAddIn\Control_Grid\GridCellBase.h
;	COMDAT ?IsSelected@CGridCellBase@@UBEHXZ
_TEXT	SEGMENT
?IsSelected@CGridCellBase@@UBEHXZ PROC			; CGridCellBase::IsSelected, COMDAT
; _this$ = ecx

; 128  :     virtual BOOL IsSelected() const                         { return (m_nState & GVIS_SELECTED); }

  00000	8b 41 04	 mov	 eax, DWORD PTR [ecx+4]
  00003	83 e0 02	 and	 eax, 2
  00006	c3		 ret	 0
?IsSelected@CGridCellBase@@UBEHXZ ENDP			; CGridCellBase::IsSelected
_TEXT	ENDS
; Function compile flags: /Ogtp
; File D:\git\src\IBK\IBK_DRFN\ProjSrc\SrcChartEx\ChartAddIn\ChartPatternAddIn\Control_Grid\GridCellBase.h
;	COMDAT ?IsFixedRow@CGridCellBase@@UBEHXZ
_TEXT	SEGMENT
?IsFixedRow@CGridCellBase@@UBEHXZ PROC			; CGridCellBase::IsFixedRow, COMDAT
; _this$ = ecx

; 127  :     virtual BOOL IsFixedRow() const                         { return (m_nState & GVIS_FIXEDROW); }

  00000	8b 41 04	 mov	 eax, DWORD PTR [ecx+4]
  00003	83 e0 20	 and	 eax, 32			; 00000020H
  00006	c3		 ret	 0
?IsFixedRow@CGridCellBase@@UBEHXZ ENDP			; CGridCellBase::IsFixedRow
_TEXT	ENDS
; Function compile flags: /Ogtp
; File D:\git\src\IBK\IBK_DRFN\ProjSrc\SrcChartEx\ChartAddIn\ChartPatternAddIn\Control_Grid\GridCellBase.h
;	COMDAT ?IsFixedCol@CGridCellBase@@UBEHXZ
_TEXT	SEGMENT
?IsFixedCol@CGridCellBase@@UBEHXZ PROC			; CGridCellBase::IsFixedCol, COMDAT
; _this$ = ecx

; 126  :     virtual BOOL IsFixedCol() const                         { return (m_nState & GVIS_FIXEDCOL); }

  00000	8b 41 04	 mov	 eax, DWORD PTR [ecx+4]
  00003	83 e0 40	 and	 eax, 64			; 00000040H
  00006	c3		 ret	 0
?IsFixedCol@CGridCellBase@@UBEHXZ ENDP			; CGridCellBase::IsFixedCol
_TEXT	ENDS
; Function compile flags: /Ogtp
; File D:\git\src\IBK\IBK_DRFN\ProjSrc\SrcChartEx\ChartAddIn\ChartPatternAddIn\Control_Grid\GridCellBase.h
;	COMDAT ?IsFixed@CGridCellBase@@UBEHXZ
_TEXT	SEGMENT
?IsFixed@CGridCellBase@@UBEHXZ PROC			; CGridCellBase::IsFixed, COMDAT
; _this$ = ecx

; 125  :     virtual BOOL IsFixed()    const                         { return (m_nState & GVIS_FIXED);    }

  00000	8b 41 04	 mov	 eax, DWORD PTR [ecx+4]
  00003	83 e0 10	 and	 eax, 16			; 00000010H
  00006	c3		 ret	 0
?IsFixed@CGridCellBase@@UBEHXZ ENDP			; CGridCellBase::IsFixed
_TEXT	ENDS
; Function compile flags: /Ogtp
; File D:\git\src\IBK\IBK_DRFN\ProjSrc\SrcChartEx\ChartAddIn\ChartPatternAddIn\Control_Grid\GridCellBase.h
;	COMDAT ?IsFocused@CGridCellBase@@UBEHXZ
_TEXT	SEGMENT
?IsFocused@CGridCellBase@@UBEHXZ PROC			; CGridCellBase::IsFocused, COMDAT
; _this$ = ecx

; 124  :     virtual BOOL IsFocused()  const                         { return (m_nState & GVIS_FOCUSED);  }

  00000	8b 41 04	 mov	 eax, DWORD PTR [ecx+4]
  00003	83 e0 01	 and	 eax, 1
  00006	c3		 ret	 0
?IsFocused@CGridCellBase@@UBEHXZ ENDP			; CGridCellBase::IsFocused
_TEXT	ENDS
; Function compile flags: /Ogtp
; File D:\git\src\IBK\IBK_DRFN\ProjSrc\SrcChartEx\ChartAddIn\ChartPatternAddIn\Control_Grid\GridCellBase.h
;	COMDAT ?GetState@CGridCellBase@@UBEKXZ
_TEXT	SEGMENT
?GetState@CGridCellBase@@UBEKXZ PROC			; CGridCellBase::GetState, COMDAT
; _this$ = ecx

; 110  :     virtual DWORD    GetState() const                       { return m_nState;              }

  00000	8b 41 04	 mov	 eax, DWORD PTR [ecx+4]
  00003	c3		 ret	 0
?GetState@CGridCellBase@@UBEKXZ ENDP			; CGridCellBase::GetState
_TEXT	ENDS
; Function compile flags: /Ogtp
; File D:\git\src\IBK\IBK_DRFN\ProjSrc\SrcChartEx\ChartAddIn\ChartPatternAddIn\Control_Grid\GridCellBase.h
;	COMDAT ?GetTipText@CGridCellBase@@UBEPBDXZ
_TEXT	SEGMENT
?GetTipText@CGridCellBase@@UBEPBDXZ PROC		; CGridCellBase::GetTipText, COMDAT
; _this$ = ecx

; 107  :     virtual LPCTSTR  GetTipText() const                     { return GetText();             } // may override TitleTip return

  00000	8b 01		 mov	 eax, DWORD PTR [ecx]
  00002	ff 60 40	 jmp	 DWORD PTR [eax+64]
?GetTipText@CGridCellBase@@UBEPBDXZ ENDP		; CGridCellBase::GetTipText
_TEXT	ENDS
; Function compile flags: /Ogtp
; File D:\git\src\IBK\IBK_DRFN\ProjSrc\SrcChartEx\ChartAddIn\ChartPatternAddIn\Control_Grid\GridCellBase.h
;	COMDAT ?SetState@CGridCellBase@@UAEXK@Z
_TEXT	SEGMENT
_nState$ = 8						; size = 4
?SetState@CGridCellBase@@UAEXK@Z PROC			; CGridCellBase::SetState, COMDAT
; _this$ = ecx

; 97   :     virtual void SetState(DWORD nState)                     { m_nState = nState; }

  00000	55		 push	 ebp
  00001	8b ec		 mov	 ebp, esp
  00003	8b 45 08	 mov	 eax, DWORD PTR _nState$[ebp]
  00006	89 41 04	 mov	 DWORD PTR [ecx+4], eax
  00009	5d		 pop	 ebp
  0000a	c2 04 00	 ret	 4
?SetState@CGridCellBase@@UAEXK@Z ENDP			; CGridCellBase::SetState
_TEXT	ENDS
; Function compile flags: /Ogtp
; File C:\Program Files (x86)\Microsoft Visual Studio\2019\Community\VC\Tools\MSVC\14.29.30133\atlmfc\include\afxwin1.inl
; File C:\Program Files (x86)\Microsoft Visual Studio\2019\Community\VC\Tools\MSVC\14.29.30133\atlmfc\include\afx.inl
;	COMDAT ??_GCFont@@UAEPAXI@Z
_TEXT	SEGMENT
___flags$ = 8						; size = 4
??_GCFont@@UAEPAXI@Z PROC				; CFont::`scalar deleting destructor', COMDAT
; _this$ = ecx
  00000	55		 push	 ebp
  00001	8b ec		 mov	 ebp, esp
; File C:\Program Files (x86)\Microsoft Visual Studio\2019\Community\VC\Tools\MSVC\14.29.30133\atlmfc\include\afxwin1.inl

; 155  : 	{ }

  00003	56		 push	 esi
  00004	8b f1		 mov	 esi, ecx
  00006	c7 06 00 00 00
	00		 mov	 DWORD PTR [esi], OFFSET ??_7CFont@@6B@
  0000c	e8 00 00 00 00	 call	 ??1CGdiObject@@UAE@XZ	; CGdiObject::~CGdiObject
  00011	8b 45 08	 mov	 eax, DWORD PTR ___flags$[ebp]
  00014	a8 01		 test	 al, 1
  00016	74 1f		 je	 SHORT $LN12@scalar
  00018	a8 04		 test	 al, 4
  0001a	75 10		 jne	 SHORT $LN3@scalar
; File C:\Program Files (x86)\Microsoft Visual Studio\2019\Community\VC\Tools\MSVC\14.29.30133\atlmfc\include\afx.inl

; 112  : 	{ ::operator delete(p); }

  0001c	56		 push	 esi
  0001d	e8 00 00 00 00	 call	 ??3@YAXPAX@Z		; operator delete
  00022	83 c4 04	 add	 esp, 4
  00025	8b c6		 mov	 eax, esi
  00027	5e		 pop	 esi
  00028	5d		 pop	 ebp
  00029	c2 04 00	 ret	 4
$LN3@scalar:
  0002c	6a 08		 push	 8
  0002e	56		 push	 esi
  0002f	e8 00 00 00 00	 call	 ?__global_delete@@YAXPAXI@Z ; __global_delete
  00034	83 c4 08	 add	 esp, 8
$LN12@scalar:
  00037	8b c6		 mov	 eax, esi
  00039	5e		 pop	 esi
  0003a	5d		 pop	 ebp
  0003b	c2 04 00	 ret	 4
??_GCFont@@UAEPAXI@Z ENDP				; CFont::`scalar deleting destructor'
_TEXT	ENDS
; Function compile flags: /Ogtp
; File C:\Program Files (x86)\Microsoft Visual Studio\2019\Community\VC\Tools\MSVC\14.29.30133\atlmfc\include\afxwin1.inl
;	COMDAT ??1CFont@@UAE@XZ
_TEXT	SEGMENT
??1CFont@@UAE@XZ PROC					; CFont::~CFont, COMDAT
; _this$ = ecx

; 155  : 	{ }

  00000	c7 01 00 00 00
	00		 mov	 DWORD PTR [ecx], OFFSET ??_7CFont@@6B@
  00006	e9 00 00 00 00	 jmp	 ??1CGdiObject@@UAE@XZ	; CGdiObject::~CGdiObject
??1CFont@@UAE@XZ ENDP					; CFont::~CFont
_TEXT	ENDS
; Function compile flags: /Ogtp
; File C:\Program Files (x86)\Microsoft Visual Studio\2019\Community\VC\Tools\MSVC\14.29.30133\atlmfc\include\afx.inl
;	COMDAT ??_GCGdiObject@@UAEPAXI@Z
_TEXT	SEGMENT
___flags$ = 8						; size = 4
??_GCGdiObject@@UAEPAXI@Z PROC				; CGdiObject::`scalar deleting destructor', COMDAT
; _this$ = ecx
  00000	55		 push	 ebp
  00001	8b ec		 mov	 ebp, esp
  00003	56		 push	 esi
  00004	8b f1		 mov	 esi, ecx
  00006	e8 00 00 00 00	 call	 ??1CGdiObject@@UAE@XZ	; CGdiObject::~CGdiObject
  0000b	8b 45 08	 mov	 eax, DWORD PTR ___flags$[ebp]
  0000e	a8 01		 test	 al, 1
  00010	74 1f		 je	 SHORT $LN9@scalar
  00012	a8 04		 test	 al, 4
  00014	75 10		 jne	 SHORT $LN3@scalar

; 112  : 	{ ::operator delete(p); }

  00016	56		 push	 esi
  00017	e8 00 00 00 00	 call	 ??3@YAXPAX@Z		; operator delete
  0001c	83 c4 04	 add	 esp, 4
  0001f	8b c6		 mov	 eax, esi
  00021	5e		 pop	 esi
  00022	5d		 pop	 ebp
  00023	c2 04 00	 ret	 4
$LN3@scalar:
  00026	6a 08		 push	 8
  00028	56		 push	 esi
  00029	e8 00 00 00 00	 call	 ?__global_delete@@YAXPAXI@Z ; __global_delete
  0002e	83 c4 08	 add	 esp, 8
$LN9@scalar:
  00031	8b c6		 mov	 eax, esi
  00033	5e		 pop	 esi
  00034	5d		 pop	 ebp
  00035	c2 04 00	 ret	 4
??_GCGdiObject@@UAEPAXI@Z ENDP				; CGdiObject::`scalar deleting destructor'
_TEXT	ENDS
; Function compile flags: /Ogtp
; File C:\Program Files (x86)\Microsoft Visual Studio\2019\Community\VC\Tools\MSVC\14.29.30133\atlmfc\include\afxwin1.inl
;	COMDAT ??1CGdiObject@@UAE@XZ
_TEXT	SEGMENT
_pException$2 = -540					; size = 4
_strMsg$3 = -536					; size = 4
_szErrorMessage$4 = -532				; size = 512
__$ArrayPad$ = -20					; size = 4
__$EHRec$ = -16						; size = 16
??1CGdiObject@@UAE@XZ PROC				; CGdiObject::~CGdiObject, COMDAT
; _this$ = ecx

; 74   : {

  00000	55		 push	 ebp
  00001	8b ec		 mov	 ebp, esp
  00003	6a ff		 push	 -1
  00005	68 00 00 00 00	 push	 __ehhandler$??1CGdiObject@@UAE@XZ
  0000a	64 a1 00 00 00
	00		 mov	 eax, DWORD PTR fs:0
  00010	50		 push	 eax
  00011	81 ec 10 02 00
	00		 sub	 esp, 528		; 00000210H
  00017	a1 00 00 00 00	 mov	 eax, DWORD PTR ___security_cookie
  0001c	33 c5		 xor	 eax, ebp
  0001e	89 45 ec	 mov	 DWORD PTR __$ArrayPad$[ebp], eax
  00021	53		 push	 ebx
  00022	56		 push	 esi
  00023	57		 push	 edi
  00024	50		 push	 eax
  00025	8d 45 f4	 lea	 eax, DWORD PTR __$EHRec$[ebp+4]
  00028	64 a3 00 00 00
	00		 mov	 DWORD PTR fs:0, eax
  0002e	89 65 f0	 mov	 DWORD PTR __$EHRec$[ebp], esp
  00031	c7 01 00 00 00
	00		 mov	 DWORD PTR [ecx], OFFSET ??_7CGdiObject@@6B@

; 75   : 	AFX_BEGIN_DESTRUCTOR

  00037	c7 45 fc 00 00
	00 00		 mov	 DWORD PTR __$EHRec$[ebp+12], 0

; 76   : 	DeleteObject();

  0003e	e8 00 00 00 00	 call	 ?DeleteObject@CGdiObject@@QAEHXZ ; CGdiObject::DeleteObject
$LN18@CGdiObject:

; 78   : }

  00043	8b 4d f4	 mov	 ecx, DWORD PTR __$EHRec$[ebp+4]
  00046	64 89 0d 00 00
	00 00		 mov	 DWORD PTR fs:0, ecx
  0004d	59		 pop	 ecx
  0004e	5f		 pop	 edi
  0004f	5e		 pop	 esi
  00050	5b		 pop	 ebx
  00051	8b 4d ec	 mov	 ecx, DWORD PTR __$ArrayPad$[ebp]
  00054	33 cd		 xor	 ecx, ebp
  00056	e8 00 00 00 00	 call	 @__security_check_cookie@4
  0005b	8b e5		 mov	 esp, ebp
  0005d	5d		 pop	 ebp
  0005e	c3		 ret	 0
__catch$??1CGdiObject@@UAE@XZ$0:

; 77   : 	AFX_END_DESTRUCTOR

  0005f	8d 8d e8 fd ff
	ff		 lea	 ecx, DWORD PTR _strMsg$3[ebp]
  00065	ff 15 00 00 00
	00		 call	 DWORD PTR __imp_??0?$CStringT@DV?$StrTraitMFC_DLL@DV?$ChTraitsCRT@D@ATL@@@@@ATL@@QAE@XZ
  0006b	8b b5 e4 fd ff
	ff		 mov	 esi, DWORD PTR _pException$2[ebp]
  00071	8d 8d ec fd ff
	ff		 lea	 ecx, DWORD PTR _szErrorMessage$4[ebp]
  00077	6a 00		 push	 0
  00079	68 00 02 00 00	 push	 512			; 00000200H
  0007e	51		 push	 ecx
  0007f	8b 06		 mov	 eax, DWORD PTR [esi]
  00081	8b ce		 mov	 ecx, esi
  00083	c6 45 fc 02	 mov	 BYTE PTR __$EHRec$[ebp+12], 2
  00087	ff 50 14	 call	 DWORD PTR [eax+20]
  0008a	85 c0		 test	 eax, eax
  0008c	74 2a		 je	 SHORT $LN9@CGdiObject
  0008e	8d 85 ec fd ff
	ff		 lea	 eax, DWORD PTR _szErrorMessage$4[ebp]
  00094	50		 push	 eax
  00095	6a 4d		 push	 77			; 0000004dH
  00097	68 00 00 00 00	 push	 OFFSET ??_C@_0HD@JJCHHHNK@C?3?2Program?5Files?5?$CIx86?$CJ?2Microsof@
  0009c	68 00 00 00 00	 push	 OFFSET ??_C@_0BP@OIEOKIDM@Exception?5thrown?5in?5destructor@
  000a1	8d 85 e8 fd ff
	ff		 lea	 eax, DWORD PTR _strMsg$3[ebp]
  000a7	68 00 00 00 00	 push	 OFFSET ??_C@_0BB@HBOOMJBF@?$CFTs?5?$CI?$CFTs?3?$CFd?$CJ?6?$CFTs@
  000ac	50		 push	 eax
  000ad	ff 15 00 00 00
	00		 call	 DWORD PTR __imp_?Format@?$CStringT@DV?$StrTraitMFC_DLL@DV?$ChTraitsCRT@D@ATL@@@@@ATL@@QAAXPBDZZ
  000b3	83 c4 18	 add	 esp, 24			; 00000018H
  000b6	eb 21		 jmp	 SHORT $LN10@CGdiObject
$LN9@CGdiObject:
  000b8	6a 4d		 push	 77			; 0000004dH
  000ba	68 00 00 00 00	 push	 OFFSET ??_C@_0HD@JJCHHHNK@C?3?2Program?5Files?5?$CIx86?$CJ?2Microsof@
  000bf	68 00 00 00 00	 push	 OFFSET ??_C@_0BP@OIEOKIDM@Exception?5thrown?5in?5destructor@
  000c4	8d 85 e8 fd ff
	ff		 lea	 eax, DWORD PTR _strMsg$3[ebp]
  000ca	68 00 00 00 00	 push	 OFFSET ??_C@_0N@OMEMOKLE@?$CFTs?5?$CI?$CFTs?3?$CFd?$CJ@
  000cf	50		 push	 eax
  000d0	ff 15 00 00 00
	00		 call	 DWORD PTR __imp_?Format@?$CStringT@DV?$StrTraitMFC_DLL@DV?$ChTraitsCRT@D@ATL@@@@@ATL@@QAAXPBDZZ
  000d6	83 c4 14	 add	 esp, 20			; 00000014H
$LN10@CGdiObject:
  000d9	6a 00		 push	 0
  000db	6a 00		 push	 0
  000dd	ff b5 e8 fd ff
	ff		 push	 DWORD PTR _strMsg$3[ebp]
  000e3	e8 00 00 00 00	 call	 ?AfxMessageBox@@YGHPBDII@Z ; AfxMessageBox
  000e8	8d 8d e8 fd ff
	ff		 lea	 ecx, DWORD PTR _strMsg$3[ebp]
  000ee	ff 15 00 00 00
	00		 call	 DWORD PTR __imp_??1?$CStringT@DV?$StrTraitMFC_DLL@DV?$ChTraitsCRT@D@ATL@@@@@ATL@@QAE@XZ
  000f4	8b 06		 mov	 eax, DWORD PTR [esi]
  000f6	8b ce		 mov	 ecx, esi
  000f8	6a 01		 push	 1
  000fa	ff 50 04	 call	 DWORD PTR [eax+4]
  000fd	b8 00 00 00 00	 mov	 eax, $LN18@CGdiObject
  00102	c3		 ret	 0
_TEXT	ENDS
;	COMDAT text$x
text$x	SEGMENT
__unwindfunclet$??1CGdiObject@@UAE@XZ$2:
  00000	8d 8d e8 fd ff
	ff		 lea	 ecx, DWORD PTR _strMsg$3[ebp]
  00006	ff 25 00 00 00
	00		 jmp	 DWORD PTR __imp_??1?$CStringT@DV?$StrTraitMFC_DLL@DV?$ChTraitsCRT@D@ATL@@@@@ATL@@QAE@XZ
  0000c	cc		 int	 3
  0000d	cc		 int	 3
  0000e	cc		 int	 3
  0000f	cc		 int	 3
  00010	cc		 int	 3
__ehhandler$??1CGdiObject@@UAE@XZ:
  00011	90		 npad	 1
  00012	90		 npad	 1
  00013	8b 54 24 08	 mov	 edx, DWORD PTR [esp+8]
  00017	8d 42 0c	 lea	 eax, DWORD PTR [edx+12]
  0001a	8b 8a e0 fd ff
	ff		 mov	 ecx, DWORD PTR [edx-544]
  00020	33 c8		 xor	 ecx, eax
  00022	e8 00 00 00 00	 call	 @__security_check_cookie@4
  00027	8b 4a f8	 mov	 ecx, DWORD PTR [edx-8]
  0002a	33 c8		 xor	 ecx, eax
  0002c	e8 00 00 00 00	 call	 @__security_check_cookie@4
  00031	b8 00 00 00 00	 mov	 eax, OFFSET __ehfuncinfo$??1CGdiObject@@UAE@XZ
  00036	e9 00 00 00 00	 jmp	 ___CxxFrameHandler3
text$x	ENDS
??1CGdiObject@@UAE@XZ ENDP				; CGdiObject::~CGdiObject
; Function compile flags: /Ogtp
; File C:\Program Files (x86)\Microsoft Visual Studio\2019\Community\VC\Tools\MSVC\14.29.30133\atlmfc\include\afx.inl
;	COMDAT ?Dump@CObject@@UBEXAAVCDumpContext@@@Z
_TEXT	SEGMENT
___formal$ = 8						; size = 4
?Dump@CObject@@UBEXAAVCDumpContext@@@Z PROC		; CObject::Dump, COMDAT
; _this$ = ecx

; 122  : 	{ /* no dumping in release builds */ }

  00000	c2 04 00	 ret	 4
?Dump@CObject@@UBEXAAVCDumpContext@@@Z ENDP		; CObject::Dump
_TEXT	ENDS
; Function compile flags: /Ogtp
; File C:\Program Files (x86)\Microsoft Visual Studio\2019\Community\VC\Tools\MSVC\14.29.30133\atlmfc\include\afx.inl
;	COMDAT ?AssertValid@CObject@@UBEXXZ
_TEXT	SEGMENT
?AssertValid@CObject@@UBEXXZ PROC			; CObject::AssertValid, COMDAT
; _this$ = ecx

; 120  : 	{ /* no asserts in release builds */ }

  00000	c2 00 00	 ret	 0
?AssertValid@CObject@@UBEXXZ ENDP			; CObject::AssertValid
_TEXT	ENDS
; Function compile flags: /Ogtp
; File C:\Program Files (x86)\Microsoft Visual Studio\2019\Community\VC\Tools\MSVC\14.29.30133\atlmfc\include\afx.inl
;	COMDAT ?Serialize@CObject@@UAEXAAVCArchive@@@Z
_TEXT	SEGMENT
___formal$ = 8						; size = 4
?Serialize@CObject@@UAEXAAVCArchive@@@Z PROC		; CObject::Serialize, COMDAT
; _this$ = ecx

; 106  : 	{ /* CObject does not serialize anything by default */ }

  00000	c2 04 00	 ret	 4
?Serialize@CObject@@UAEXAAVCArchive@@@Z ENDP		; CObject::Serialize
_TEXT	ENDS
; Function compile flags: /Ogtp
; File C:\Program Files (x86)\Microsoft Visual Studio\2019\Community\VC\Tools\MSVC\14.29.30133\atlmfc\include\afx.inl
;	COMDAT ??3CObject@@SGXPAX@Z
_TEXT	SEGMENT
_p$ = 8							; size = 4
??3CObject@@SGXPAX@Z PROC				; CObject::operator delete, COMDAT

; 112  : 	{ ::operator delete(p); }

  00000	55		 push	 ebp
  00001	8b ec		 mov	 ebp, esp
  00003	ff 75 08	 push	 DWORD PTR _p$[ebp]
  00006	e8 00 00 00 00	 call	 ??3@YAXPAX@Z		; operator delete
  0000b	83 c4 04	 add	 esp, 4
  0000e	5d		 pop	 ebp
  0000f	c2 04 00	 ret	 4
??3CObject@@SGXPAX@Z ENDP				; CObject::operator delete
_TEXT	ENDS
; Function compile flags: /Ogtp
; File C:\Program Files (x86)\Microsoft Visual Studio\2019\Community\VC\Tools\MSVC\14.29.30133\atlmfc\include\afx.inl
;	COMDAT ??1CObject@@UAE@XZ
_TEXT	SEGMENT
??1CObject@@UAE@XZ PROC					; CObject::~CObject, COMDAT
; _this$ = ecx

; 104  : 	{ }

  00000	c2 00 00	 ret	 0
??1CObject@@UAE@XZ ENDP					; CObject::~CObject
_TEXT	ENDS
; Function compile flags: /Ogtp
; File D:\git\src\IBK\IBK_DRFN\ProjSrc\SrcChartEx\ChartAddIn\ChartPatternAddIn\Control_Grid\GridCell.cpp
;	COMDAT ?__empty_global_delete@@YAXPAXI@Z
_TEXT	SEGMENT
___formal$ = 8						; size = 4
___formal$ = 12						; size = 4
?__empty_global_delete@@YAXPAXI@Z PROC			; __empty_global_delete, COMDAT

  00000	c2 00 00	 ret	 0
?__empty_global_delete@@YAXPAXI@Z ENDP			; __empty_global_delete
_TEXT	ENDS
; Function compile flags: /Ogtp
; File D:\git\src\IBK\IBK_DRFN\ProjSrc\SrcChartEx\ChartAddIn\ChartPatternAddIn\Control_Grid\GridCell.cpp
;	COMDAT ?__empty_global_delete@@YAXPAX@Z
_TEXT	SEGMENT
___formal$ = 8						; size = 4
?__empty_global_delete@@YAXPAX@Z PROC			; __empty_global_delete, COMDAT

  00000	c2 00 00	 ret	 0
?__empty_global_delete@@YAXPAX@Z ENDP			; __empty_global_delete
_TEXT	ENDS
; Function compile flags: /Ogtp
;	COMDAT ??_H@YGXPAXIIP6EPAX0@Z@Z
_TEXT	SEGMENT
___t$ = 8						; size = 4
___s$ = 12						; size = 4
___n$ = 16						; size = 4
___f$ = 20						; size = 4
??_H@YGXPAXIIP6EPAX0@Z@Z PROC				; `vector constructor iterator', COMDAT
  00000	55		 push	 ebp
  00001	8b ec		 mov	 ebp, esp
  00003	56		 push	 esi
  00004	8b 75 10	 mov	 esi, DWORD PTR ___n$[ebp]
  00007	85 f6		 test	 esi, esi
  00009	74 16		 je	 SHORT $LN6@vector
  0000b	53		 push	 ebx
  0000c	8b 5d 14	 mov	 ebx, DWORD PTR ___f$[ebp]
  0000f	57		 push	 edi
  00010	8b 7d 08	 mov	 edi, DWORD PTR ___t$[ebp]
$LL2@vector:
  00013	8b cf		 mov	 ecx, edi
  00015	ff d3		 call	 ebx
  00017	03 7d 0c	 add	 edi, DWORD PTR ___s$[ebp]
  0001a	83 ee 01	 sub	 esi, 1
  0001d	75 f4		 jne	 SHORT $LL2@vector
  0001f	5f		 pop	 edi
  00020	5b		 pop	 ebx
$LN6@vector:
  00021	5e		 pop	 esi
  00022	5d		 pop	 ebp
  00023	c2 10 00	 ret	 16			; 00000010H
??_H@YGXPAXIIP6EPAX0@Z@Z ENDP				; `vector constructor iterator'
_TEXT	ENDS
END
