; Listing generated by Microsoft (R) Optimizing Compiler Version 19.29.30145.0 

	TITLE	D:\git\src\IBK\IBK_DRFN\#DRfn-CS\_Obj\ChartPatternAddin\GridDropTarget.obj
	.686P
	.XMM
	include listing.inc
	.model	flat

INCLUDELIB MSVCRT
INCLUDELIB OLDNAMES

PUBLIC	??_H@YGXPAXIIP6EPAX0@Z@Z			; `vector constructor iterator'
PUBLIC	?__empty_global_delete@@YAXPAX@Z		; __empty_global_delete
PUBLIC	?__empty_global_delete@@YAXPAXI@Z		; __empty_global_delete
PUBLIC	?Serialize@CObject@@UAEXAAVCArchive@@@Z		; CObject::Serialize
PUBLIC	?AssertValid@CObject@@UBEXXZ			; CObject::AssertValid
PUBLIC	?Dump@CObject@@UBEXAAVCDumpContext@@@Z		; CObject::Dump
PUBLIC	??0CGridDropTarget@@QAE@XZ			; CGridDropTarget::CGridDropTarget
PUBLIC	??1CGridDropTarget@@UAE@XZ			; CGridDropTarget::~CGridDropTarget
PUBLIC	?Register@CGridDropTarget@@QAEHPAVCGridCtrl@@@Z	; CGridDropTarget::Register
PUBLIC	?Revoke@CGridDropTarget@@UAEXXZ			; CGridDropTarget::Revoke
PUBLIC	?OnDrop@CGridDropTarget@@UAEHPAVCWnd@@PAVCOleDataObject@@KVCPoint@@@Z ; CGridDropTarget::OnDrop
PUBLIC	?OnDragEnter@CGridDropTarget@@UAEKPAVCWnd@@PAVCOleDataObject@@KVCPoint@@@Z ; CGridDropTarget::OnDragEnter
PUBLIC	?OnDragLeave@CGridDropTarget@@UAEXPAVCWnd@@@Z	; CGridDropTarget::OnDragLeave
PUBLIC	?OnDragOver@CGridDropTarget@@UAEKPAVCWnd@@PAVCOleDataObject@@KVCPoint@@@Z ; CGridDropTarget::OnDragOver
PUBLIC	?OnDragScroll@CGridDropTarget@@UAEKPAVCWnd@@KVCPoint@@@Z ; CGridDropTarget::OnDragScroll
PUBLIC	?GetThisMessageMap@CGridDropTarget@@KGPBUAFX_MSGMAP@@XZ ; CGridDropTarget::GetThisMessageMap
PUBLIC	?GetMessageMap@CGridDropTarget@@MBEPBUAFX_MSGMAP@@XZ ; CGridDropTarget::GetMessageMap
PUBLIC	??_GCGridDropTarget@@UAEPAXI@Z			; CGridDropTarget::`scalar deleting destructor'
PUBLIC	??_C@_00CNPNBAHC@@				; `string'
PUBLIC	??_R0?AVCObject@@@8				; CObject `RTTI Type Descriptor'
PUBLIC	??_R3CObject@@8					; CObject::`RTTI Class Hierarchy Descriptor'
PUBLIC	??_R2CObject@@8					; CObject::`RTTI Base Class Array'
PUBLIC	??_R1A@?0A@EA@CObject@@8			; CObject::`RTTI Base Class Descriptor at (0,-1,0,64)'
PUBLIC	??_R1A@?0A@EA@CCmdTarget@@8			; CCmdTarget::`RTTI Base Class Descriptor at (0,-1,0,64)'
PUBLIC	??_R0?AVCCmdTarget@@@8				; CCmdTarget `RTTI Type Descriptor'
PUBLIC	??_R3CCmdTarget@@8				; CCmdTarget::`RTTI Class Hierarchy Descriptor'
PUBLIC	??_R2CCmdTarget@@8				; CCmdTarget::`RTTI Base Class Array'
PUBLIC	??_7CGridDropTarget@@6B@			; CGridDropTarget::`vftable'
PUBLIC	??_R4CGridDropTarget@@6B@			; CGridDropTarget::`RTTI Complete Object Locator'
PUBLIC	??_R0?AVCGridDropTarget@@@8			; CGridDropTarget `RTTI Type Descriptor'
PUBLIC	??_R3CGridDropTarget@@8				; CGridDropTarget::`RTTI Class Hierarchy Descriptor'
PUBLIC	??_R2CGridDropTarget@@8				; CGridDropTarget::`RTTI Base Class Array'
PUBLIC	??_R1A@?0A@EA@CGridDropTarget@@8		; CGridDropTarget::`RTTI Base Class Descriptor at (0,-1,0,64)'
PUBLIC	??_R1A@?0A@EA@COleDropTarget@@8			; COleDropTarget::`RTTI Base Class Descriptor at (0,-1,0,64)'
PUBLIC	??_R0?AVCOleDropTarget@@@8			; COleDropTarget `RTTI Type Descriptor'
PUBLIC	??_R3COleDropTarget@@8				; COleDropTarget::`RTTI Class Hierarchy Descriptor'
PUBLIC	??_R2COleDropTarget@@8				; COleDropTarget::`RTTI Base Class Array'
EXTRN	??3@YAXPAX@Z:PROC				; operator delete
EXTRN	?__global_delete@@YAXPAXI@Z:PROC		; __global_delete
EXTRN	?IsKindOf@CObject@@QBEHPBUCRuntimeClass@@@Z:PROC ; CObject::IsKindOf
EXTRN	__imp_??1?$CStringT@DV?$StrTraitMFC_DLL@DV?$ChTraitsCRT@D@ATL@@@@@ATL@@QAE@XZ:PROC
EXTRN	__imp_?Compare@?$CStringT@DV?$StrTraitMFC_DLL@DV?$ChTraitsCRT@D@ATL@@@@@ATL@@QBEHPBD@Z:PROC
EXTRN	?GetRuntimeClass@CCmdTarget@@UBEPAUCRuntimeClass@@XZ:PROC ; CCmdTarget::GetRuntimeClass
EXTRN	?OnCmdMsg@CCmdTarget@@UAEHIHPAXPAUAFX_CMDHANDLERINFO@@@Z:PROC ; CCmdTarget::OnCmdMsg
EXTRN	?OnFinalRelease@CCmdTarget@@UAEXXZ:PROC		; CCmdTarget::OnFinalRelease
EXTRN	?IsInvokeAllowed@CCmdTarget@@UAEHJ@Z:PROC	; CCmdTarget::IsInvokeAllowed
EXTRN	?GetDispatchIID@CCmdTarget@@UAEHPAU_GUID@@@Z:PROC ; CCmdTarget::GetDispatchIID
EXTRN	?GetTypeInfoCount@CCmdTarget@@UAEIXZ:PROC	; CCmdTarget::GetTypeInfoCount
EXTRN	?GetTypeLibCache@CCmdTarget@@UAEPAVCTypeLibCache@@XZ:PROC ; CCmdTarget::GetTypeLibCache
EXTRN	?GetTypeLib@CCmdTarget@@UAEJKPAPAUITypeLib@@@Z:PROC ; CCmdTarget::GetTypeLib
EXTRN	?GetThisMessageMap@CCmdTarget@@KGPBUAFX_MSGMAP@@XZ:PROC ; CCmdTarget::GetThisMessageMap
EXTRN	?GetCommandMap@CCmdTarget@@MBEPBUAFX_OLECMDMAP@@XZ:PROC ; CCmdTarget::GetCommandMap
EXTRN	?GetDispatchMap@CCmdTarget@@MBEPBUAFX_DISPMAP@@XZ:PROC ; CCmdTarget::GetDispatchMap
EXTRN	?GetConnectionMap@CCmdTarget@@MBEPBUAFX_CONNECTIONMAP@@XZ:PROC ; CCmdTarget::GetConnectionMap
EXTRN	?GetEventSinkMap@CCmdTarget@@MBEPBUAFX_EVENTSINKMAP@@XZ:PROC ; CCmdTarget::GetEventSinkMap
EXTRN	?OnCreateAggregates@CCmdTarget@@UAEHXZ:PROC	; CCmdTarget::OnCreateAggregates
EXTRN	?GetInterfaceHook@CCmdTarget@@UAEPAUIUnknown@@PBX@Z:PROC ; CCmdTarget::GetInterfaceHook
EXTRN	?GetExtraConnectionPoints@CCmdTarget@@MAEHPAVCPtrArray@@@Z:PROC ; CCmdTarget::GetExtraConnectionPoints
EXTRN	?GetConnectionHook@CCmdTarget@@MAEPAUIConnectionPoint@@ABU_GUID@@@Z:PROC ; CCmdTarget::GetConnectionHook
EXTRN	??0COleDropTarget@@QAE@XZ:PROC			; COleDropTarget::COleDropTarget
EXTRN	?Register@COleDropTarget@@QAEHPAVCWnd@@@Z:PROC	; COleDropTarget::Register
EXTRN	?Revoke@COleDropTarget@@UAEXXZ:PROC		; COleDropTarget::Revoke
EXTRN	?OnDropEx@COleDropTarget@@UAEKPAVCWnd@@PAVCOleDataObject@@KKVCPoint@@@Z:PROC ; COleDropTarget::OnDropEx
EXTRN	??1COleDropTarget@@UAE@XZ:PROC			; COleDropTarget::~COleDropTarget
EXTRN	?GetInterfaceMap@COleDropTarget@@MBEPBUAFX_INTERFACEMAP@@XZ:PROC ; COleDropTarget::GetInterfaceMap
EXTRN	??_ECGridDropTarget@@UAEPAXI@Z:PROC		; CGridDropTarget::`vector deleting destructor'
EXTRN	?GetThisClass@CGridCtrl@@SGPAUCRuntimeClass@@XZ:PROC ; CGridCtrl::GetThisClass
EXTRN	?GetCellFromPt@CGridCtrl@@QAE?AVCCellID@@VCPoint@@H@Z:PROC ; CGridCtrl::GetCellFromPt
EXTRN	?GetItemText@CGridCtrl@@QBE?AV?$CStringT@DV?$StrTraitMFC_DLL@DV?$ChTraitsCRT@D@ATL@@@@@ATL@@HH@Z:PROC ; CGridCtrl::GetItemText
EXTRN	@__security_check_cookie@4:PROC
EXTRN	___CxxFrameHandler3:PROC
EXTRN	??_7type_info@@6B@:QWORD			; type_info::`vftable'
EXTRN	___security_cookie:DWORD
;	COMDAT ?bInProcedure@?1??Register@CGridDropTarget@@QAEHPAVCGridCtrl@@@Z@4HA
_BSS	SEGMENT
?bInProcedure@?1??Register@CGridDropTarget@@QAEHPAVCGridCtrl@@@Z@4HA DD 01H DUP (?) ; `CGridDropTarget::Register'::`2'::bInProcedure
_BSS	ENDS
;	COMDAT ??_R2COleDropTarget@@8
rdata$r	SEGMENT
??_R2COleDropTarget@@8 DD FLAT:??_R1A@?0A@EA@COleDropTarget@@8 ; COleDropTarget::`RTTI Base Class Array'
	DD	FLAT:??_R1A@?0A@EA@CCmdTarget@@8
	DD	FLAT:??_R1A@?0A@EA@CObject@@8
rdata$r	ENDS
;	COMDAT ??_R3COleDropTarget@@8
rdata$r	SEGMENT
??_R3COleDropTarget@@8 DD 00H				; COleDropTarget::`RTTI Class Hierarchy Descriptor'
	DD	00H
	DD	03H
	DD	FLAT:??_R2COleDropTarget@@8
rdata$r	ENDS
;	COMDAT ??_R0?AVCOleDropTarget@@@8
data$rs	SEGMENT
??_R0?AVCOleDropTarget@@@8 DD FLAT:??_7type_info@@6B@	; COleDropTarget `RTTI Type Descriptor'
	DD	00H
	DB	'.?AVCOleDropTarget@@', 00H
data$rs	ENDS
;	COMDAT ??_R1A@?0A@EA@COleDropTarget@@8
rdata$r	SEGMENT
??_R1A@?0A@EA@COleDropTarget@@8 DD FLAT:??_R0?AVCOleDropTarget@@@8 ; COleDropTarget::`RTTI Base Class Descriptor at (0,-1,0,64)'
	DD	02H
	DD	00H
	DD	0ffffffffH
	DD	00H
	DD	040H
	DD	FLAT:??_R3COleDropTarget@@8
rdata$r	ENDS
;	COMDAT ??_R1A@?0A@EA@CGridDropTarget@@8
rdata$r	SEGMENT
??_R1A@?0A@EA@CGridDropTarget@@8 DD FLAT:??_R0?AVCGridDropTarget@@@8 ; CGridDropTarget::`RTTI Base Class Descriptor at (0,-1,0,64)'
	DD	03H
	DD	00H
	DD	0ffffffffH
	DD	00H
	DD	040H
	DD	FLAT:??_R3CGridDropTarget@@8
rdata$r	ENDS
;	COMDAT ??_R2CGridDropTarget@@8
rdata$r	SEGMENT
??_R2CGridDropTarget@@8 DD FLAT:??_R1A@?0A@EA@CGridDropTarget@@8 ; CGridDropTarget::`RTTI Base Class Array'
	DD	FLAT:??_R1A@?0A@EA@COleDropTarget@@8
	DD	FLAT:??_R1A@?0A@EA@CCmdTarget@@8
	DD	FLAT:??_R1A@?0A@EA@CObject@@8
rdata$r	ENDS
;	COMDAT ??_R3CGridDropTarget@@8
rdata$r	SEGMENT
??_R3CGridDropTarget@@8 DD 00H				; CGridDropTarget::`RTTI Class Hierarchy Descriptor'
	DD	00H
	DD	04H
	DD	FLAT:??_R2CGridDropTarget@@8
rdata$r	ENDS
;	COMDAT ??_R0?AVCGridDropTarget@@@8
data$rs	SEGMENT
??_R0?AVCGridDropTarget@@@8 DD FLAT:??_7type_info@@6B@	; CGridDropTarget `RTTI Type Descriptor'
	DD	00H
	DB	'.?AVCGridDropTarget@@', 00H
data$rs	ENDS
;	COMDAT ??_R4CGridDropTarget@@6B@
rdata$r	SEGMENT
??_R4CGridDropTarget@@6B@ DD 00H			; CGridDropTarget::`RTTI Complete Object Locator'
	DD	00H
	DD	00H
	DD	FLAT:??_R0?AVCGridDropTarget@@@8
	DD	FLAT:??_R3CGridDropTarget@@8
rdata$r	ENDS
;	COMDAT ?messageMap@?1??GetThisMessageMap@CGridDropTarget@@KGPBUAFX_MSGMAP@@XZ@4U3@B
CONST	SEGMENT
?messageMap@?1??GetThisMessageMap@CGridDropTarget@@KGPBUAFX_MSGMAP@@XZ@4U3@B DD FLAT:?GetThisMessageMap@CCmdTarget@@KGPBUAFX_MSGMAP@@XZ ; `CGridDropTarget::GetThisMessageMap'::`2'::messageMap
	DD	FLAT:?_messageEntries@?1??GetThisMessageMap@CGridDropTarget@@KGPBUAFX_MSGMAP@@XZ@4QBUAFX_MSGMAP_ENTRY@@B
CONST	ENDS
;	COMDAT ?_messageEntries@?1??GetThisMessageMap@CGridDropTarget@@KGPBUAFX_MSGMAP@@XZ@4QBUAFX_MSGMAP_ENTRY@@B
CONST	SEGMENT
?_messageEntries@?1??GetThisMessageMap@CGridDropTarget@@KGPBUAFX_MSGMAP@@XZ@4QBUAFX_MSGMAP_ENTRY@@B DD 00H ; `CGridDropTarget::GetThisMessageMap'::`2'::_messageEntries
	DD	00H
	DD	00H
	DD	00H
	DD	00H
	DD	00H
CONST	ENDS
;	COMDAT ??_7CGridDropTarget@@6B@
CONST	SEGMENT
??_7CGridDropTarget@@6B@ DD FLAT:??_R4CGridDropTarget@@6B@ ; CGridDropTarget::`vftable'
	DD	FLAT:?GetRuntimeClass@CCmdTarget@@UBEPAUCRuntimeClass@@XZ
	DD	FLAT:??_ECGridDropTarget@@UAEPAXI@Z
	DD	FLAT:?Serialize@CObject@@UAEXAAVCArchive@@@Z
	DD	FLAT:?AssertValid@CObject@@UBEXXZ
	DD	FLAT:?Dump@CObject@@UBEXAAVCDumpContext@@@Z
	DD	FLAT:?OnCmdMsg@CCmdTarget@@UAEHIHPAXPAUAFX_CMDHANDLERINFO@@@Z
	DD	FLAT:?OnFinalRelease@CCmdTarget@@UAEXXZ
	DD	FLAT:?IsInvokeAllowed@CCmdTarget@@UAEHJ@Z
	DD	FLAT:?GetDispatchIID@CCmdTarget@@UAEHPAU_GUID@@@Z
	DD	FLAT:?GetTypeInfoCount@CCmdTarget@@UAEIXZ
	DD	FLAT:?GetTypeLibCache@CCmdTarget@@UAEPAVCTypeLibCache@@XZ
	DD	FLAT:?GetTypeLib@CCmdTarget@@UAEJKPAPAUITypeLib@@@Z
	DD	FLAT:?GetMessageMap@CGridDropTarget@@MBEPBUAFX_MSGMAP@@XZ
	DD	FLAT:?GetCommandMap@CCmdTarget@@MBEPBUAFX_OLECMDMAP@@XZ
	DD	FLAT:?GetDispatchMap@CCmdTarget@@MBEPBUAFX_DISPMAP@@XZ
	DD	FLAT:?GetConnectionMap@CCmdTarget@@MBEPBUAFX_CONNECTIONMAP@@XZ
	DD	FLAT:?GetInterfaceMap@COleDropTarget@@MBEPBUAFX_INTERFACEMAP@@XZ
	DD	FLAT:?GetEventSinkMap@CCmdTarget@@MBEPBUAFX_EVENTSINKMAP@@XZ
	DD	FLAT:?OnCreateAggregates@CCmdTarget@@UAEHXZ
	DD	FLAT:?GetInterfaceHook@CCmdTarget@@UAEPAUIUnknown@@PBX@Z
	DD	FLAT:?GetExtraConnectionPoints@CCmdTarget@@MAEHPAVCPtrArray@@@Z
	DD	FLAT:?GetConnectionHook@CCmdTarget@@MAEPAUIConnectionPoint@@ABU_GUID@@@Z
	DD	FLAT:?Revoke@CGridDropTarget@@UAEXXZ
	DD	FLAT:?OnDragEnter@CGridDropTarget@@UAEKPAVCWnd@@PAVCOleDataObject@@KVCPoint@@@Z
	DD	FLAT:?OnDragOver@CGridDropTarget@@UAEKPAVCWnd@@PAVCOleDataObject@@KVCPoint@@@Z
	DD	FLAT:?OnDrop@CGridDropTarget@@UAEHPAVCWnd@@PAVCOleDataObject@@KVCPoint@@@Z
	DD	FLAT:?OnDropEx@COleDropTarget@@UAEKPAVCWnd@@PAVCOleDataObject@@KKVCPoint@@@Z
	DD	FLAT:?OnDragLeave@CGridDropTarget@@UAEXPAVCWnd@@@Z
	DD	FLAT:?OnDragScroll@CGridDropTarget@@UAEKPAVCWnd@@KVCPoint@@@Z
CONST	ENDS
;	COMDAT ??_R2CCmdTarget@@8
rdata$r	SEGMENT
??_R2CCmdTarget@@8 DD FLAT:??_R1A@?0A@EA@CCmdTarget@@8	; CCmdTarget::`RTTI Base Class Array'
	DD	FLAT:??_R1A@?0A@EA@CObject@@8
rdata$r	ENDS
;	COMDAT ??_R3CCmdTarget@@8
rdata$r	SEGMENT
??_R3CCmdTarget@@8 DD 00H				; CCmdTarget::`RTTI Class Hierarchy Descriptor'
	DD	00H
	DD	02H
	DD	FLAT:??_R2CCmdTarget@@8
rdata$r	ENDS
;	COMDAT ??_R0?AVCCmdTarget@@@8
data$rs	SEGMENT
??_R0?AVCCmdTarget@@@8 DD FLAT:??_7type_info@@6B@	; CCmdTarget `RTTI Type Descriptor'
	DD	00H
	DB	'.?AVCCmdTarget@@', 00H
data$rs	ENDS
;	COMDAT ??_R1A@?0A@EA@CCmdTarget@@8
rdata$r	SEGMENT
??_R1A@?0A@EA@CCmdTarget@@8 DD FLAT:??_R0?AVCCmdTarget@@@8 ; CCmdTarget::`RTTI Base Class Descriptor at (0,-1,0,64)'
	DD	01H
	DD	00H
	DD	0ffffffffH
	DD	00H
	DD	040H
	DD	FLAT:??_R3CCmdTarget@@8
rdata$r	ENDS
;	COMDAT ??_R1A@?0A@EA@CObject@@8
rdata$r	SEGMENT
??_R1A@?0A@EA@CObject@@8 DD FLAT:??_R0?AVCObject@@@8	; CObject::`RTTI Base Class Descriptor at (0,-1,0,64)'
	DD	00H
	DD	00H
	DD	0ffffffffH
	DD	00H
	DD	040H
	DD	FLAT:??_R3CObject@@8
rdata$r	ENDS
;	COMDAT ??_R2CObject@@8
rdata$r	SEGMENT
??_R2CObject@@8 DD FLAT:??_R1A@?0A@EA@CObject@@8	; CObject::`RTTI Base Class Array'
rdata$r	ENDS
;	COMDAT ??_R3CObject@@8
rdata$r	SEGMENT
??_R3CObject@@8 DD 00H					; CObject::`RTTI Class Hierarchy Descriptor'
	DD	00H
	DD	01H
	DD	FLAT:??_R2CObject@@8
rdata$r	ENDS
;	COMDAT ??_R0?AVCObject@@@8
data$rs	SEGMENT
??_R0?AVCObject@@@8 DD FLAT:??_7type_info@@6B@		; CObject `RTTI Type Descriptor'
	DD	00H
	DB	'.?AVCObject@@', 00H
data$rs	ENDS
;	COMDAT ??_C@_00CNPNBAHC@@
CONST	SEGMENT
??_C@_00CNPNBAHC@@ DB 00H				; `string'
CONST	ENDS
;	COMDAT xdata$x
xdata$x	SEGMENT
__unwindtable$?OnDragOver@CGridDropTarget@@UAEKPAVCWnd@@PAVCOleDataObject@@KVCPoint@@@Z DD 0ffffffffH
	DD	FLAT:__unwindfunclet$?OnDragOver@CGridDropTarget@@UAEKPAVCWnd@@PAVCOleDataObject@@KVCPoint@@@Z$0
__ehfuncinfo$?OnDragOver@CGridDropTarget@@UAEKPAVCWnd@@PAVCOleDataObject@@KVCPoint@@@Z DD 019930522H
	DD	01H
	DD	FLAT:__unwindtable$?OnDragOver@CGridDropTarget@@UAEKPAVCWnd@@PAVCOleDataObject@@KVCPoint@@@Z
	DD	2 DUP(00H)
	DD	2 DUP(00H)
	DD	00H
	DD	01H
xdata$x	ENDS
; Function compile flags: /Ogtp
; File D:\git\src\IBK\IBK_DRFN\ProjSrc\SrcChartEx\ChartAddIn\ChartPatternAddIn\Control_Grid\GridDropTarget.cpp
; File C:\Program Files (x86)\Microsoft Visual Studio\2019\Community\VC\Tools\MSVC\14.29.30133\atlmfc\include\afx.inl
;	COMDAT ??_GCGridDropTarget@@UAEPAXI@Z
_TEXT	SEGMENT
___flags$ = 8						; size = 4
??_GCGridDropTarget@@UAEPAXI@Z PROC			; CGridDropTarget::`scalar deleting destructor', COMDAT
; _this$ = ecx
  00000	55		 push	 ebp
  00001	8b ec		 mov	 ebp, esp
; File D:\git\src\IBK\IBK_DRFN\ProjSrc\SrcChartEx\ChartAddIn\ChartPatternAddIn\Control_Grid\GridDropTarget.cpp

; 50   : {

  00003	56		 push	 esi
  00004	8b f1		 mov	 esi, ecx
  00006	c7 06 00 00 00
	00		 mov	 DWORD PTR [esi], OFFSET ??_7CGridDropTarget@@6B@

; 51   : }

  0000c	e8 00 00 00 00	 call	 ??1COleDropTarget@@UAE@XZ ; COleDropTarget::~COleDropTarget
  00011	8b 45 08	 mov	 eax, DWORD PTR ___flags$[ebp]
  00014	a8 01		 test	 al, 1
  00016	74 1f		 je	 SHORT $LN12@scalar
  00018	a8 04		 test	 al, 4
  0001a	75 10		 jne	 SHORT $LN3@scalar
; File C:\Program Files (x86)\Microsoft Visual Studio\2019\Community\VC\Tools\MSVC\14.29.30133\atlmfc\include\afx.inl

; 112  : 	{ ::operator delete(p); }

  0001c	56		 push	 esi
  0001d	e8 00 00 00 00	 call	 ??3@YAXPAX@Z		; operator delete
  00022	83 c4 04	 add	 esp, 4
  00025	8b c6		 mov	 eax, esi
  00027	5e		 pop	 esi
  00028	5d		 pop	 ebp
  00029	c2 04 00	 ret	 4
$LN3@scalar:
  0002c	6a 40		 push	 64			; 00000040H
  0002e	56		 push	 esi
  0002f	e8 00 00 00 00	 call	 ?__global_delete@@YAXPAXI@Z ; __global_delete
  00034	83 c4 08	 add	 esp, 8
$LN12@scalar:
  00037	8b c6		 mov	 eax, esi
  00039	5e		 pop	 esi
  0003a	5d		 pop	 ebp
  0003b	c2 04 00	 ret	 4
??_GCGridDropTarget@@UAEPAXI@Z ENDP			; CGridDropTarget::`scalar deleting destructor'
_TEXT	ENDS
; Function compile flags: /Ogtp
; File D:\git\src\IBK\IBK_DRFN\ProjSrc\SrcChartEx\ChartAddIn\ChartPatternAddIn\Control_Grid\GridDropTarget.cpp
;	COMDAT ?GetMessageMap@CGridDropTarget@@MBEPBUAFX_MSGMAP@@XZ
_TEXT	SEGMENT
?GetMessageMap@CGridDropTarget@@MBEPBUAFX_MSGMAP@@XZ PROC ; CGridDropTarget::GetMessageMap, COMDAT
; _this$ = ecx

; 90   : BEGIN_MESSAGE_MAP(CGridDropTarget, COleDropTarget)

  00000	b8 00 00 00 00	 mov	 eax, OFFSET ?messageMap@?1??GetThisMessageMap@CGridDropTarget@@KGPBUAFX_MSGMAP@@XZ@4U3@B
  00005	c3		 ret	 0
?GetMessageMap@CGridDropTarget@@MBEPBUAFX_MSGMAP@@XZ ENDP ; CGridDropTarget::GetMessageMap
_TEXT	ENDS
; Function compile flags: /Ogtp
; File D:\git\src\IBK\IBK_DRFN\ProjSrc\SrcChartEx\ChartAddIn\ChartPatternAddIn\Control_Grid\GridDropTarget.cpp
;	COMDAT ?GetThisMessageMap@CGridDropTarget@@KGPBUAFX_MSGMAP@@XZ
_TEXT	SEGMENT
?GetThisMessageMap@CGridDropTarget@@KGPBUAFX_MSGMAP@@XZ PROC ; CGridDropTarget::GetThisMessageMap, COMDAT

; 91   :     //{{AFX_MSG_MAP(CGridDropTarget)
; 92   :     //}}AFX_MSG_MAP
; 93   : END_MESSAGE_MAP()

  00000	b8 00 00 00 00	 mov	 eax, OFFSET ?messageMap@?1??GetThisMessageMap@CGridDropTarget@@KGPBUAFX_MSGMAP@@XZ@4U3@B
  00005	c3		 ret	 0
?GetThisMessageMap@CGridDropTarget@@KGPBUAFX_MSGMAP@@XZ ENDP ; CGridDropTarget::GetThisMessageMap
_TEXT	ENDS
; Function compile flags: /Ogtp
; File D:\git\src\IBK\IBK_DRFN\ProjSrc\SrcChartEx\ChartAddIn\ChartPatternAddIn\Control_Grid\GridDropTarget.cpp
;	COMDAT ?OnDragScroll@CGridDropTarget@@UAEKPAVCWnd@@KVCPoint@@@Z
_TEXT	SEGMENT
_pWnd$ = 8						; size = 4
_dwKeyState$ = 12					; size = 4
___formal$ = 16						; size = 8
?OnDragScroll@CGridDropTarget@@UAEKPAVCWnd@@KVCPoint@@@Z PROC ; CGridDropTarget::OnDragScroll, COMDAT
; _this$ = ecx

; 100  :     //TRACE("In CGridDropTarget::OnDragScroll\n");
; 101  :     //if (pWnd->GetSafeHwnd() == m_pGridCtrl->GetSafeHwnd())
; 102  :     {
; 103  : 		// 수 정 자 : 김용식 (2002년2월14일   16시55분)
; 104  : 		// 수정사항 : 카피 방지
; 105  : 		/*
; 106  : 		if (dwKeyState & MK_CONTROL)
; 107  :             return DROPEFFECT_COPY;
; 108  :         else
; 109  : 		*/
; 110  : 		// 수정완료 :(2002년2월14일 16시55분)        
; 111  :             return DROPEFFECT_MOVE;

  00000	b8 02 00 00 00	 mov	 eax, 2

; 112  :     } 
; 113  : 	//else
; 114  :     //    return DROPEFFECT_NONE;
; 115  : }

  00005	c2 10 00	 ret	 16			; 00000010H
?OnDragScroll@CGridDropTarget@@UAEKPAVCWnd@@KVCPoint@@@Z ENDP ; CGridDropTarget::OnDragScroll
_TEXT	ENDS
; Function compile flags: /Ogtp
; File D:\git\src\IBK\IBK_DRFN\ProjSrc\SrcChartEx\ChartAddIn\ChartPatternAddIn\Control_Grid\GridDropTarget.cpp
; File D:\git\src\IBK\IBK_DRFN\ProjSrc\SrcChartEx\ChartAddIn\ChartPatternAddIn\Control_Grid\GridCtrl.h
; File D:\git\src\IBK\IBK_DRFN\ProjSrc\SrcChartEx\ChartAddIn\ChartPatternAddIn\Control_Grid\GridDropTarget.cpp
; File C:\Program Files (x86)\Microsoft Visual Studio\2019\Community\VC\Tools\MSVC\14.29.30133\atlmfc\include\cstringt.h
; File D:\git\src\IBK\IBK_DRFN\ProjSrc\SrcChartEx\ChartAddIn\ChartPatternAddIn\Control_Grid\GridDropTarget.cpp
; File C:\Program Files (x86)\Microsoft Visual Studio\2019\Community\VC\Tools\MSVC\14.29.30133\atlmfc\include\cstringt.h
; File D:\git\src\IBK\IBK_DRFN\ProjSrc\SrcChartEx\ChartAddIn\ChartPatternAddIn\Control_Grid\GridDropTarget.cpp
; File C:\Program Files (x86)\Microsoft Visual Studio\2019\Community\VC\Tools\MSVC\14.29.30133\atlmfc\include\cstringt.h
; File D:\git\src\IBK\IBK_DRFN\ProjSrc\SrcChartEx\ChartAddIn\ChartPatternAddIn\Control_Grid\GridDropTarget.cpp
;	COMDAT ?OnDragOver@CGridDropTarget@@UAEKPAVCWnd@@PAVCOleDataObject@@KVCPoint@@@Z
_TEXT	SEGMENT
tv149 = -24						; size = 8
$T2 = -24						; size = 8
$T3 = -16						; size = 4
__$EHRec$ = -12						; size = 12
_pWnd$ = 8						; size = 4
_pDataObject$ = 12					; size = 4
_dwKeyState$ = 16					; size = 4
_point$ = 20						; size = 8
?OnDragOver@CGridDropTarget@@UAEKPAVCWnd@@PAVCOleDataObject@@KVCPoint@@@Z PROC ; CGridDropTarget::OnDragOver, COMDAT
; _this$ = ecx

; 138  : {

  00000	55		 push	 ebp
  00001	8b ec		 mov	 ebp, esp
  00003	6a ff		 push	 -1
  00005	68 00 00 00 00	 push	 __ehhandler$?OnDragOver@CGridDropTarget@@UAEKPAVCWnd@@PAVCOleDataObject@@KVCPoint@@@Z
  0000a	64 a1 00 00 00
	00		 mov	 eax, DWORD PTR fs:0
  00010	50		 push	 eax
  00011	83 ec 0c	 sub	 esp, 12			; 0000000cH
  00014	53		 push	 ebx
  00015	56		 push	 esi
  00016	57		 push	 edi
  00017	a1 00 00 00 00	 mov	 eax, DWORD PTR ___security_cookie
  0001c	33 c5		 xor	 eax, ebp
  0001e	50		 push	 eax
  0001f	8d 45 f4	 lea	 eax, DWORD PTR __$EHRec$[ebp]
  00022	64 a3 00 00 00
	00		 mov	 DWORD PTR fs:0, eax
  00028	8b f9		 mov	 edi, ecx

; 139  :  //   TRACE("In CGridDropTarget::OnDragOver\n");
; 140  :     ASSERT(m_pGridCtrl);
; 141  : 	
; 142  : 	// 수 정 자 : 김용식 (2002년2월6일   20시09분)
; 143  : 	// 수정사항 : 특정 위치의 Drag & Drop을 막음
; 144  : 	CCellID cell, cellLast;
; 145  : 	cell = m_pGridCtrl->GetCellFromPt(point);

  0002a	8b 4f 38	 mov	 ecx, DWORD PTR [edi+56]
  0002d	8d 45 e8	 lea	 eax, DWORD PTR $T2[ebp]
  00030	6a 01		 push	 1
  00032	ff 75 18	 push	 DWORD PTR _point$[ebp+4]
  00035	ff 75 14	 push	 DWORD PTR _point$[ebp]
  00038	50		 push	 eax
  00039	e8 00 00 00 00	 call	 ?GetCellFromPt@CGridCtrl@@QAE?AVCCellID@@VCPoint@@H@Z ; CGridCtrl::GetCellFromPt

; 146  : 	cellLast = m_pGridCtrl->GetLeftClickDownCell();

  0003e	8b 4f 38	 mov	 ecx, DWORD PTR [edi+56]
  00041	8b 30		 mov	 esi, DWORD PTR [eax]
  00043	8b 58 04	 mov	 ebx, DWORD PTR [eax+4]
; File D:\git\src\IBK\IBK_DRFN\ProjSrc\SrcChartEx\ChartAddIn\ChartPatternAddIn\Control_Grid\GridCtrl.h

; 220  : 	CCellID GetLeftClickDownCell() { return m_LeftClickDownCell; }

  00046	8b 91 d4 02 00
	00		 mov	 edx, DWORD PTR [ecx+724]
  0004c	8b 81 d0 02 00
	00		 mov	 eax, DWORD PTR [ecx+720]
  00052	89 45 e8	 mov	 DWORD PTR tv149[ebp], eax
; File D:\git\src\IBK\IBK_DRFN\ProjSrc\SrcChartEx\ChartAddIn\ChartPatternAddIn\Control_Grid\GridDropTarget.cpp

; 146  : 	cellLast = m_pGridCtrl->GetLeftClickDownCell();

  00055	83 fa 01	 cmp	 edx, 1

; 147  : //	TRACE("[Before] cell.row = %d, cell.col = %d    cellLast.row = %d, cellLast.col = %d\n", 
; 148  : //		cell.row, cell.col, cellLast.row, cellLast.col);
; 149  : 
; 150  : 
; 151  : 	// JSJ_ITCastle_Modify
; 152  : 	// 드래그 시작점이 매수주문 이거나, 매도주문 행이 아니면 리턴
; 153  : 	if( !(cellLast.col == MAEDO_COL || cellLast.col == MAESU_COL) )

  00058	74 05		 je	 SHORT $LN2@OnDragOver
  0005a	83 fa 08	 cmp	 edx, 8
  0005d	75 35		 jne	 SHORT $LN14@OnDragOver
$LN2@OnDragOver:

; 185  : 	if( m_pGridCtrl->GetItemText(cell.row, cell.col) == "")

  0005f	53		 push	 ebx
  00060	56		 push	 esi
  00061	8d 45 f0	 lea	 eax, DWORD PTR $T3[ebp]
  00064	50		 push	 eax
  00065	e8 00 00 00 00	 call	 ?GetItemText@CGridCtrl@@QBE?AV?$CStringT@DV?$StrTraitMFC_DLL@DV?$ChTraitsCRT@D@ATL@@@@@ATL@@HH@Z ; CGridCtrl::GetItemText
; File C:\Program Files (x86)\Microsoft Visual Studio\2019\Community\VC\Tools\MSVC\14.29.30133\atlmfc\include\cstringt.h

; 2486 : 		return(str1.Compare(psz2) == 0);

  0006a	68 00 00 00 00	 push	 OFFSET ??_C@_00CNPNBAHC@@
  0006f	8b c8		 mov	 ecx, eax
; File D:\git\src\IBK\IBK_DRFN\ProjSrc\SrcChartEx\ChartAddIn\ChartPatternAddIn\Control_Grid\GridDropTarget.cpp

; 185  : 	if( m_pGridCtrl->GetItemText(cell.row, cell.col) == "")

  00071	c7 45 fc 00 00
	00 00		 mov	 DWORD PTR __$EHRec$[ebp+8], 0
; File C:\Program Files (x86)\Microsoft Visual Studio\2019\Community\VC\Tools\MSVC\14.29.30133\atlmfc\include\cstringt.h

; 2486 : 		return(str1.Compare(psz2) == 0);

  00078	ff 15 00 00 00
	00		 call	 DWORD PTR __imp_?Compare@?$CStringT@DV?$StrTraitMFC_DLL@DV?$ChTraitsCRT@D@ATL@@@@@ATL@@QBEHPBD@Z
; File D:\git\src\IBK\IBK_DRFN\ProjSrc\SrcChartEx\ChartAddIn\ChartPatternAddIn\Control_Grid\GridDropTarget.cpp

; 185  : 	if( m_pGridCtrl->GetItemText(cell.row, cell.col) == "")

  0007e	8d 4d f0	 lea	 ecx, DWORD PTR $T3[ebp]
  00081	c7 45 fc ff ff
	ff ff		 mov	 DWORD PTR __$EHRec$[ebp+8], -1
; File C:\Program Files (x86)\Microsoft Visual Studio\2019\Community\VC\Tools\MSVC\14.29.30133\atlmfc\include\cstringt.h

; 2486 : 		return(str1.Compare(psz2) == 0);

  00088	8b f0		 mov	 esi, eax
; File D:\git\src\IBK\IBK_DRFN\ProjSrc\SrcChartEx\ChartAddIn\ChartPatternAddIn\Control_Grid\GridDropTarget.cpp

; 185  : 	if( m_pGridCtrl->GetItemText(cell.row, cell.col) == "")

  0008a	ff 15 00 00 00
	00		 call	 DWORD PTR __imp_??1?$CStringT@DV?$StrTraitMFC_DLL@DV?$ChTraitsCRT@D@ATL@@@@@ATL@@QAE@XZ
  00090	85 f6		 test	 esi, esi
  00092	75 16		 jne	 SHORT $LN3@OnDragOver
$LN14@OnDragOver:

; 186  : 		return DROPEFFECT_NONE;

  00094	33 c0		 xor	 eax, eax

; 194  :     //else
; 195  :     //    return DROPEFFECT_NONE;
; 196  : }

  00096	8b 4d f4	 mov	 ecx, DWORD PTR __$EHRec$[ebp]
  00099	64 89 0d 00 00
	00 00		 mov	 DWORD PTR fs:0, ecx
  000a0	59		 pop	 ecx
  000a1	5f		 pop	 edi
  000a2	5e		 pop	 esi
  000a3	5b		 pop	 ebx
  000a4	8b e5		 mov	 esp, ebp
  000a6	5d		 pop	 ebp
  000a7	c2 14 00	 ret	 20			; 00000014H
$LN3@OnDragOver:

; 187  : 	
; 188  : 		
; 189  : 	//TRACE("[After] cell.row = %d, cell.col = %d    cellLast.row = %d, cellLast.col = %d\n", 
; 190  : 	//	cell.row, cell.col, cellLast.row, cellLast.col);
; 191  : 	
; 192  :     //if (pWnd->GetSafeHwnd() == m_pGridCtrl->GetSafeHwnd())
; 193  : 	return m_pGridCtrl->OnDragOver(pDataObject, dwKeyState, point);

  000aa	ff 75 18	 push	 DWORD PTR _point$[ebp+4]
  000ad	8b 4f 38	 mov	 ecx, DWORD PTR [edi+56]
  000b0	ff 75 14	 push	 DWORD PTR _point$[ebp]
  000b3	ff 75 10	 push	 DWORD PTR _dwKeyState$[ebp]
  000b6	8b 01		 mov	 eax, DWORD PTR [ecx]
  000b8	ff 75 0c	 push	 DWORD PTR _pDataObject$[ebp]
  000bb	ff 90 80 01 00
	00		 call	 DWORD PTR [eax+384]

; 194  :     //else
; 195  :     //    return DROPEFFECT_NONE;
; 196  : }

  000c1	8b 4d f4	 mov	 ecx, DWORD PTR __$EHRec$[ebp]
  000c4	64 89 0d 00 00
	00 00		 mov	 DWORD PTR fs:0, ecx
  000cb	59		 pop	 ecx
  000cc	5f		 pop	 edi
  000cd	5e		 pop	 esi
  000ce	5b		 pop	 ebx
  000cf	8b e5		 mov	 esp, ebp
  000d1	5d		 pop	 ebp
  000d2	c2 14 00	 ret	 20			; 00000014H
_TEXT	ENDS
;	COMDAT text$x
text$x	SEGMENT
__unwindfunclet$?OnDragOver@CGridDropTarget@@UAEKPAVCWnd@@PAVCOleDataObject@@KVCPoint@@@Z$0:
  00000	8d 4d f0	 lea	 ecx, DWORD PTR $T3[ebp]
  00003	ff 25 00 00 00
	00		 jmp	 DWORD PTR __imp_??1?$CStringT@DV?$StrTraitMFC_DLL@DV?$ChTraitsCRT@D@ATL@@@@@ATL@@QAE@XZ
  00009	cc		 int	 3
  0000a	cc		 int	 3
  0000b	cc		 int	 3
  0000c	cc		 int	 3
  0000d	cc		 int	 3
__ehhandler$?OnDragOver@CGridDropTarget@@UAEKPAVCWnd@@PAVCOleDataObject@@KVCPoint@@@Z:
  0000e	90		 npad	 1
  0000f	90		 npad	 1
  00010	8b 54 24 08	 mov	 edx, DWORD PTR [esp+8]
  00014	8d 42 0c	 lea	 eax, DWORD PTR [edx+12]
  00017	8b 4a e4	 mov	 ecx, DWORD PTR [edx-28]
  0001a	33 c8		 xor	 ecx, eax
  0001c	e8 00 00 00 00	 call	 @__security_check_cookie@4
  00021	b8 00 00 00 00	 mov	 eax, OFFSET __ehfuncinfo$?OnDragOver@CGridDropTarget@@UAEKPAVCWnd@@PAVCOleDataObject@@KVCPoint@@@Z
  00026	e9 00 00 00 00	 jmp	 ___CxxFrameHandler3
text$x	ENDS
?OnDragOver@CGridDropTarget@@UAEKPAVCWnd@@PAVCOleDataObject@@KVCPoint@@@Z ENDP ; CGridDropTarget::OnDragOver
; Function compile flags: /Ogtp
; File D:\git\src\IBK\IBK_DRFN\ProjSrc\SrcChartEx\ChartAddIn\ChartPatternAddIn\Control_Grid\GridDropTarget.cpp
;	COMDAT ?OnDragLeave@CGridDropTarget@@UAEXPAVCWnd@@@Z
_TEXT	SEGMENT
_pWnd$ = 8						; size = 4
?OnDragLeave@CGridDropTarget@@UAEXPAVCWnd@@@Z PROC	; CGridDropTarget::OnDragLeave, COMDAT
; _this$ = ecx

; 130  :     TRACE(_T("In CGridDropTarget::OnDragLeave\n"));
; 131  :     ASSERT(m_pGridCtrl);
; 132  : 
; 133  :     //if (pWnd->GetSafeHwnd() == m_pGridCtrl->GetSafeHwnd())
; 134  :         m_pGridCtrl->OnDragLeave();

  00000	8b 49 38	 mov	 ecx, DWORD PTR [ecx+56]
  00003	8b 01		 mov	 eax, DWORD PTR [ecx]
  00005	ff 90 84 01 00
	00		 call	 DWORD PTR [eax+388]

; 135  : }

  0000b	c2 04 00	 ret	 4
?OnDragLeave@CGridDropTarget@@UAEXPAVCWnd@@@Z ENDP	; CGridDropTarget::OnDragLeave
_TEXT	ENDS
; Function compile flags: /Ogtp
; File D:\git\src\IBK\IBK_DRFN\ProjSrc\SrcChartEx\ChartAddIn\ChartPatternAddIn\Control_Grid\GridDropTarget.cpp
;	COMDAT ?OnDragEnter@CGridDropTarget@@UAEKPAVCWnd@@PAVCOleDataObject@@KVCPoint@@@Z
_TEXT	SEGMENT
_pWnd$ = 8						; size = 4
_pDataObject$ = 12					; size = 4
_dwKeyState$ = 16					; size = 4
_point$ = 20						; size = 8
?OnDragEnter@CGridDropTarget@@UAEKPAVCWnd@@PAVCOleDataObject@@KVCPoint@@@Z PROC ; CGridDropTarget::OnDragEnter, COMDAT
; _this$ = ecx

; 118  : {

  00000	55		 push	 ebp
  00001	8b ec		 mov	 ebp, esp

; 119  :     TRACE(_T("In CGridDropTarget::OnDragEnter\n"));
; 120  :     ASSERT(m_pGridCtrl);
; 121  : 
; 122  : 	//if (pWnd->GetSafeHwnd() == m_pGridCtrl->GetSafeHwnd())
; 123  :         return m_pGridCtrl->OnDragEnter(pDataObject, dwKeyState, point);

  00003	ff 75 18	 push	 DWORD PTR _point$[ebp+4]
  00006	8b 49 38	 mov	 ecx, DWORD PTR [ecx+56]
  00009	ff 75 14	 push	 DWORD PTR _point$[ebp]
  0000c	ff 75 10	 push	 DWORD PTR _dwKeyState$[ebp]
  0000f	8b 01		 mov	 eax, DWORD PTR [ecx]
  00011	ff 75 0c	 push	 DWORD PTR _pDataObject$[ebp]
  00014	ff 90 7c 01 00
	00		 call	 DWORD PTR [eax+380]

; 124  :     //else
; 125  :     //    return DROPEFFECT_NONE;
; 126  : }

  0001a	5d		 pop	 ebp
  0001b	c2 14 00	 ret	 20			; 00000014H
?OnDragEnter@CGridDropTarget@@UAEKPAVCWnd@@PAVCOleDataObject@@KVCPoint@@@Z ENDP ; CGridDropTarget::OnDragEnter
_TEXT	ENDS
; Function compile flags: /Ogtp
; File D:\git\src\IBK\IBK_DRFN\ProjSrc\SrcChartEx\ChartAddIn\ChartPatternAddIn\Control_Grid\GridDropTarget.cpp
; File D:\git\src\IBK\IBK_DRFN\ProjSrc\SrcChartEx\ChartAddIn\ChartPatternAddIn\Control_Grid\GridCtrl.h
; File D:\git\src\IBK\IBK_DRFN\ProjSrc\SrcChartEx\ChartAddIn\ChartPatternAddIn\Control_Grid\GridDropTarget.cpp
;	COMDAT ?OnDrop@CGridDropTarget@@UAEHPAVCWnd@@PAVCOleDataObject@@KVCPoint@@@Z
_TEXT	SEGMENT
tv86 = -8						; size = 8
$T1 = -8						; size = 8
_pWnd$ = 8						; size = 4
_pDataObject$ = 12					; size = 4
_dropEffect$ = 16					; size = 4
_point$ = 20						; size = 8
?OnDrop@CGridDropTarget@@UAEHPAVCWnd@@PAVCOleDataObject@@KVCPoint@@@Z PROC ; CGridDropTarget::OnDrop, COMDAT
; _this$ = ecx

; 199  : {

  00000	55		 push	 ebp
  00001	8b ec		 mov	 ebp, esp
  00003	83 ec 08	 sub	 esp, 8
  00006	56		 push	 esi

; 200  : //    TRACE(_T("In CGridDropTarget::OnDrop\n"));
; 201  :     ASSERT(m_pGridCtrl);
; 202  : 
; 203  : 	// 수 정 자 : 김용식 (2002년2월6일   20시09분)
; 204  : 	// 수정사항 : 특정 위치의 Drag & Drop을 막음
; 205  : 	CCellID cell, cellLast;
; 206  : 	cell = m_pGridCtrl->GetCellFromPt(point);

  00007	6a 01		 push	 1
  00009	ff 75 18	 push	 DWORD PTR _point$[ebp+4]
  0000c	8b f1		 mov	 esi, ecx
  0000e	8d 45 f8	 lea	 eax, DWORD PTR $T1[ebp]
  00011	ff 75 14	 push	 DWORD PTR _point$[ebp]
  00014	50		 push	 eax
  00015	8b 4e 38	 mov	 ecx, DWORD PTR [esi+56]
  00018	e8 00 00 00 00	 call	 ?GetCellFromPt@CGridCtrl@@QAE?AVCCellID@@VCPoint@@H@Z ; CGridCtrl::GetCellFromPt
; File D:\git\src\IBK\IBK_DRFN\ProjSrc\SrcChartEx\ChartAddIn\ChartPatternAddIn\Control_Grid\GridCtrl.h

; 220  : 	CCellID GetLeftClickDownCell() { return m_LeftClickDownCell; }

  0001d	8b 4e 38	 mov	 ecx, DWORD PTR [esi+56]
; File D:\git\src\IBK\IBK_DRFN\ProjSrc\SrcChartEx\ChartAddIn\ChartPatternAddIn\Control_Grid\GridDropTarget.cpp

; 207  : 	cellLast = m_pGridCtrl->GetLeftClickDownCell();

  00020	5e		 pop	 esi
  00021	8b 91 d4 02 00
	00		 mov	 edx, DWORD PTR [ecx+724]
  00027	8b 81 d0 02 00
	00		 mov	 eax, DWORD PTR [ecx+720]
  0002d	89 45 f8	 mov	 DWORD PTR tv86[ebp], eax
  00030	83 fa 01	 cmp	 edx, 1

; 208  : //	TRACE("row = %d, col = %d\n", cell.row, cell.col);
; 209  : 
; 210  : 
; 211  : 	// JSJ_ITCastle_Modify
; 212  : 	// 드래그 시작점이 매수주문 이거나, 매도주문 행이 아니면 리턴
; 213  : 	if( !(cellLast.col == MAEDO_COL || cellLast.col == MAESU_COL) )

  00033	74 0d		 je	 SHORT $LN2@OnDrop
  00035	83 fa 08	 cmp	 edx, 8
  00038	74 08		 je	 SHORT $LN2@OnDrop

; 214  : 	{
; 215  : 		return DROPEFFECT_NONE;

  0003a	33 c0		 xor	 eax, eax

; 261  :     //else
; 262  :     //    return FALSE;
; 263  : }

  0003c	8b e5		 mov	 esp, ebp
  0003e	5d		 pop	 ebp
  0003f	c2 14 00	 ret	 20			; 00000014H
$LN2@OnDrop:

; 216  : 	}
; 217  : 	
; 218  : /*
; 219  : 	// 취소 행의 추가로 인한 드래그앤 드랍 명령 변경
; 220  : 	if( cell.row == ROW_END )
; 221  : 	{
; 222  : 		if (cell.col != COL_FIRST && cell.col != COL_END)
; 223  : 			return DROPEFFECT_NONE;
; 224  : 	}
; 225  : 	else if( cell.col != cellLast.col )				
; 226  : 	{													  
; 227  : 		// 취소 스태틱
; 228  : 		if( cell.col == COL_FIRST || cell.col == COL_END )//|| (cell.row > ROW_FIRST && cell.col > MAEDO_COL && cell.col < MAESU_COL) )
; 229  : 		{
; 230  : 			if (cell.row == ROW_FIRST)		// JSJ_Modify
; 231  : 				return DROPEFFECT_NONE;
; 232  : //			if( cell.col == COL_FIRST )
; 233  : //				if( !m_pGridCtrl->InsideStaticLeft(cell.row, cell.col) )		// 좌측 취소 스태틱 (ROW_FIRST+1,COL_FIRST) -> (ROW_END, COL_FIRST)
; 234  : //					return DROPEFFECT_NONE;
; 235  : //				
; 236  : //			if( cell.col == COL_END )
; 237  : //				if( !m_pGridCtrl->InsideStaticRight(cell.row, cell.col) )		// 우측 취소 스태틱 (ROW_FIRST+1,COL_END) -> (ROW_END, COL_END)
; 238  : // 					return DROPEFFECT_NONE;
; 239  : 		}
; 240  : 		else 
; 241  : 			return DROPEFFECT_NONE;
; 242  : 	}	
; 243  : 
; 244  : 	if( cell.col == MAEDO_COL || cell.col == MAESU_COL )
; 245  : 	{
; 246  : 		CString strText = m_pGridCtrl->GetItemText(cell.row, COL_CENTER);
; 247  : 		strText.TrimLeft();
; 248  : 		strText.TrimRight();
; 249  : 		if( strText == "" )
; 250  : 			return DROPEFFECT_NONE;
; 251  : 	}*/
; 252  : 
; 253  : 
; 254  : //	if( m_pGridCtrl->GetItemText(cell.row, cell.col) == "")		// JSJ_Block
; 255  : //		return DROPEFFECT_NONE;
; 256  : 
; 257  : 	// 수정완료 :(2002년2월6일 20시09분)
; 258  : 
; 259  :     //if (pWnd->GetSafeHwnd() == m_pGridCtrl->GetSafeHwnd())
; 260  :     return m_pGridCtrl->OnDrop(pDataObject, dropEffect, point);

  00042	ff 75 18	 push	 DWORD PTR _point$[ebp+4]
  00045	8b 01		 mov	 eax, DWORD PTR [ecx]
  00047	ff 75 14	 push	 DWORD PTR _point$[ebp]
  0004a	ff 75 10	 push	 DWORD PTR _dropEffect$[ebp]
  0004d	ff 75 0c	 push	 DWORD PTR _pDataObject$[ebp]
  00050	ff 90 88 01 00
	00		 call	 DWORD PTR [eax+392]

; 261  :     //else
; 262  :     //    return FALSE;
; 263  : }

  00056	8b e5		 mov	 esp, ebp
  00058	5d		 pop	 ebp
  00059	c2 14 00	 ret	 20			; 00000014H
?OnDrop@CGridDropTarget@@UAEHPAVCWnd@@PAVCOleDataObject@@KVCPoint@@@Z ENDP ; CGridDropTarget::OnDrop
_TEXT	ENDS
; Function compile flags: /Ogtp
; File D:\git\src\IBK\IBK_DRFN\ProjSrc\SrcChartEx\ChartAddIn\ChartPatternAddIn\Control_Grid\GridDropTarget.cpp
;	COMDAT ?Revoke@CGridDropTarget@@UAEXXZ
_TEXT	SEGMENT
?Revoke@CGridDropTarget@@UAEXXZ PROC			; CGridDropTarget::Revoke, COMDAT
; _this$ = ecx

; 86   :     m_bRegistered = FALSE;

  00000	c7 41 3c 00 00
	00 00		 mov	 DWORD PTR [ecx+60], 0

; 87   :     COleDropTarget::Revoke();

  00007	e9 00 00 00 00	 jmp	 ?Revoke@COleDropTarget@@UAEXXZ ; COleDropTarget::Revoke
?Revoke@CGridDropTarget@@UAEXXZ ENDP			; CGridDropTarget::Revoke
_TEXT	ENDS
; Function compile flags: /Ogtp
; File D:\git\src\IBK\IBK_DRFN\ProjSrc\SrcChartEx\ChartAddIn\ChartPatternAddIn\Control_Grid\GridDropTarget.cpp
;	COMDAT ?Register@CGridDropTarget@@QAEHPAVCGridCtrl@@@Z
_TEXT	SEGMENT
_pGridCtrl$ = 8						; size = 4
?Register@CGridDropTarget@@QAEHPAVCGridCtrl@@@Z PROC	; CGridDropTarget::Register, COMDAT
; _this$ = ecx

; 57   : {

  00000	55		 push	 ebp
  00001	8b ec		 mov	 ebp, esp
  00003	57		 push	 edi
  00004	8b f9		 mov	 edi, ecx

; 58   :     if (m_bRegistered)

  00006	83 7f 3c 00	 cmp	 DWORD PTR [edi+60], 0
  0000a	75 5c		 jne	 SHORT $LN7@Register

; 59   :         return FALSE;
; 60   : 
; 61   :     // Stop re-entry problems
; 62   :     static BOOL bInProcedure = FALSE;
; 63   :     if (bInProcedure)

  0000c	83 3d 00 00 00
	00 00		 cmp	 DWORD PTR ?bInProcedure@?1??Register@CGridDropTarget@@QAEHPAVCGridCtrl@@@Z@4HA, 0
  00013	75 53		 jne	 SHORT $LN7@Register

; 65   :     bInProcedure = TRUE;

  00015	56		 push	 esi

; 66   : 
; 67   :     ASSERT(pGridCtrl->IsKindOf(RUNTIME_CLASS(CGridCtrl)));
; 68   :     ASSERT(pGridCtrl);
; 69   : 
; 70   :     if (!pGridCtrl || !pGridCtrl->IsKindOf(RUNTIME_CLASS(CGridCtrl)))

  00016	8b 75 08	 mov	 esi, DWORD PTR _pGridCtrl$[ebp]
  00019	c7 05 00 00 00
	00 01 00 00 00	 mov	 DWORD PTR ?bInProcedure@?1??Register@CGridDropTarget@@QAEHPAVCGridCtrl@@@Z@4HA, 1
  00023	85 f6		 test	 esi, esi
  00025	74 2f		 je	 SHORT $LN5@Register
  00027	e8 00 00 00 00	 call	 ?GetThisClass@CGridCtrl@@SGPAUCRuntimeClass@@XZ ; CGridCtrl::GetThisClass
  0002c	50		 push	 eax
  0002d	8b ce		 mov	 ecx, esi
  0002f	e8 00 00 00 00	 call	 ?IsKindOf@CObject@@QBEHPBUCRuntimeClass@@@Z ; CObject::IsKindOf
  00034	85 c0		 test	 eax, eax
  00036	74 1e		 je	 SHORT $LN5@Register

; 74   :     }
; 75   : 
; 76   :     m_pGridCtrl = pGridCtrl;
; 77   : 
; 78   :     m_bRegistered = COleDropTarget::Register(pGridCtrl);

  00038	56		 push	 esi
  00039	8b cf		 mov	 ecx, edi
  0003b	89 77 38	 mov	 DWORD PTR [edi+56], esi
  0003e	e8 00 00 00 00	 call	 ?Register@COleDropTarget@@QAEHPAVCWnd@@@Z ; COleDropTarget::Register
  00043	5e		 pop	 esi
  00044	89 47 3c	 mov	 DWORD PTR [edi+60], eax

; 79   : 
; 80   :     bInProcedure = FALSE;

  00047	c7 05 00 00 00
	00 00 00 00 00	 mov	 DWORD PTR ?bInProcedure@?1??Register@CGridDropTarget@@QAEHPAVCGridCtrl@@@Z@4HA, 0
  00051	5f		 pop	 edi

; 81   :     return m_bRegistered;
; 82   : }

  00052	5d		 pop	 ebp
  00053	c2 04 00	 ret	 4
$LN5@Register:
  00056	5e		 pop	 esi

; 71   :     {
; 72   :         bInProcedure = FALSE;

  00057	c7 05 00 00 00
	00 00 00 00 00	 mov	 DWORD PTR ?bInProcedure@?1??Register@CGridDropTarget@@QAEHPAVCGridCtrl@@@Z@4HA, 0

; 73   :         return FALSE;

  00061	33 c0		 xor	 eax, eax
  00063	5f		 pop	 edi

; 81   :     return m_bRegistered;
; 82   : }

  00064	5d		 pop	 ebp
  00065	c2 04 00	 ret	 4
$LN7@Register:

; 64   :         return FALSE;

  00068	33 c0		 xor	 eax, eax
  0006a	5f		 pop	 edi

; 81   :     return m_bRegistered;
; 82   : }

  0006b	5d		 pop	 ebp
  0006c	c2 04 00	 ret	 4
?Register@CGridDropTarget@@QAEHPAVCGridCtrl@@@Z ENDP	; CGridDropTarget::Register
_TEXT	ENDS
; Function compile flags: /Ogtp
; File D:\git\src\IBK\IBK_DRFN\ProjSrc\SrcChartEx\ChartAddIn\ChartPatternAddIn\Control_Grid\GridDropTarget.cpp
;	COMDAT ??1CGridDropTarget@@UAE@XZ
_TEXT	SEGMENT
??1CGridDropTarget@@UAE@XZ PROC				; CGridDropTarget::~CGridDropTarget, COMDAT
; _this$ = ecx

; 50   : {

  00000	c7 01 00 00 00
	00		 mov	 DWORD PTR [ecx], OFFSET ??_7CGridDropTarget@@6B@

; 51   : }

  00006	e9 00 00 00 00	 jmp	 ??1COleDropTarget@@UAE@XZ ; COleDropTarget::~COleDropTarget
??1CGridDropTarget@@UAE@XZ ENDP				; CGridDropTarget::~CGridDropTarget
_TEXT	ENDS
; Function compile flags: /Ogtp
; File D:\git\src\IBK\IBK_DRFN\ProjSrc\SrcChartEx\ChartAddIn\ChartPatternAddIn\Control_Grid\GridDropTarget.cpp
;	COMDAT ??0CGridDropTarget@@QAE@XZ
_TEXT	SEGMENT
_this$ = -4						; size = 4
??0CGridDropTarget@@QAE@XZ PROC				; CGridDropTarget::CGridDropTarget, COMDAT
; _this$ = ecx

; 44   : {

  00000	55		 push	 ebp
  00001	8b ec		 mov	 ebp, esp
  00003	51		 push	 ecx
  00004	56		 push	 esi
  00005	8b f1		 mov	 esi, ecx
  00007	89 75 fc	 mov	 DWORD PTR _this$[ebp], esi
  0000a	e8 00 00 00 00	 call	 ??0COleDropTarget@@QAE@XZ ; COleDropTarget::COleDropTarget
  0000f	c7 06 00 00 00
	00		 mov	 DWORD PTR [esi], OFFSET ??_7CGridDropTarget@@6B@

; 45   :     m_pGridCtrl = NULL;
; 46   :     m_bRegistered = FALSE;
; 47   : }

  00015	8b c6		 mov	 eax, esi
  00017	c7 46 38 00 00
	00 00		 mov	 DWORD PTR [esi+56], 0
  0001e	c7 46 3c 00 00
	00 00		 mov	 DWORD PTR [esi+60], 0
  00025	5e		 pop	 esi
  00026	8b e5		 mov	 esp, ebp
  00028	5d		 pop	 ebp
  00029	c3		 ret	 0
??0CGridDropTarget@@QAE@XZ ENDP				; CGridDropTarget::CGridDropTarget
_TEXT	ENDS
; Function compile flags: /Ogtp
; File C:\Program Files (x86)\Microsoft Visual Studio\2019\Community\VC\Tools\MSVC\14.29.30133\atlmfc\include\afx.inl
;	COMDAT ?Dump@CObject@@UBEXAAVCDumpContext@@@Z
_TEXT	SEGMENT
___formal$ = 8						; size = 4
?Dump@CObject@@UBEXAAVCDumpContext@@@Z PROC		; CObject::Dump, COMDAT
; _this$ = ecx

; 122  : 	{ /* no dumping in release builds */ }

  00000	c2 04 00	 ret	 4
?Dump@CObject@@UBEXAAVCDumpContext@@@Z ENDP		; CObject::Dump
_TEXT	ENDS
; Function compile flags: /Ogtp
; File C:\Program Files (x86)\Microsoft Visual Studio\2019\Community\VC\Tools\MSVC\14.29.30133\atlmfc\include\afx.inl
;	COMDAT ?AssertValid@CObject@@UBEXXZ
_TEXT	SEGMENT
?AssertValid@CObject@@UBEXXZ PROC			; CObject::AssertValid, COMDAT
; _this$ = ecx

; 120  : 	{ /* no asserts in release builds */ }

  00000	c2 00 00	 ret	 0
?AssertValid@CObject@@UBEXXZ ENDP			; CObject::AssertValid
_TEXT	ENDS
; Function compile flags: /Ogtp
; File C:\Program Files (x86)\Microsoft Visual Studio\2019\Community\VC\Tools\MSVC\14.29.30133\atlmfc\include\afx.inl
;	COMDAT ?Serialize@CObject@@UAEXAAVCArchive@@@Z
_TEXT	SEGMENT
___formal$ = 8						; size = 4
?Serialize@CObject@@UAEXAAVCArchive@@@Z PROC		; CObject::Serialize, COMDAT
; _this$ = ecx

; 106  : 	{ /* CObject does not serialize anything by default */ }

  00000	c2 04 00	 ret	 4
?Serialize@CObject@@UAEXAAVCArchive@@@Z ENDP		; CObject::Serialize
_TEXT	ENDS
; Function compile flags: /Ogtp
; File D:\git\src\IBK\IBK_DRFN\ProjSrc\SrcChartEx\ChartAddIn\ChartPatternAddIn\Control_Grid\GridDropTarget.cpp
;	COMDAT ?__empty_global_delete@@YAXPAXI@Z
_TEXT	SEGMENT
___formal$ = 8						; size = 4
___formal$ = 12						; size = 4
?__empty_global_delete@@YAXPAXI@Z PROC			; __empty_global_delete, COMDAT

  00000	c2 00 00	 ret	 0
?__empty_global_delete@@YAXPAXI@Z ENDP			; __empty_global_delete
_TEXT	ENDS
; Function compile flags: /Ogtp
; File D:\git\src\IBK\IBK_DRFN\ProjSrc\SrcChartEx\ChartAddIn\ChartPatternAddIn\Control_Grid\GridDropTarget.cpp
;	COMDAT ?__empty_global_delete@@YAXPAX@Z
_TEXT	SEGMENT
___formal$ = 8						; size = 4
?__empty_global_delete@@YAXPAX@Z PROC			; __empty_global_delete, COMDAT

  00000	c2 00 00	 ret	 0
?__empty_global_delete@@YAXPAX@Z ENDP			; __empty_global_delete
_TEXT	ENDS
; Function compile flags: /Ogtp
;	COMDAT ??_H@YGXPAXIIP6EPAX0@Z@Z
_TEXT	SEGMENT
___t$ = 8						; size = 4
___s$ = 12						; size = 4
___n$ = 16						; size = 4
___f$ = 20						; size = 4
??_H@YGXPAXIIP6EPAX0@Z@Z PROC				; `vector constructor iterator', COMDAT
  00000	55		 push	 ebp
  00001	8b ec		 mov	 ebp, esp
  00003	56		 push	 esi
  00004	8b 75 10	 mov	 esi, DWORD PTR ___n$[ebp]
  00007	85 f6		 test	 esi, esi
  00009	74 16		 je	 SHORT $LN6@vector
  0000b	53		 push	 ebx
  0000c	8b 5d 14	 mov	 ebx, DWORD PTR ___f$[ebp]
  0000f	57		 push	 edi
  00010	8b 7d 08	 mov	 edi, DWORD PTR ___t$[ebp]
$LL2@vector:
  00013	8b cf		 mov	 ecx, edi
  00015	ff d3		 call	 ebx
  00017	03 7d 0c	 add	 edi, DWORD PTR ___s$[ebp]
  0001a	83 ee 01	 sub	 esi, 1
  0001d	75 f4		 jne	 SHORT $LL2@vector
  0001f	5f		 pop	 edi
  00020	5b		 pop	 ebx
$LN6@vector:
  00021	5e		 pop	 esi
  00022	5d		 pop	 ebp
  00023	c2 10 00	 ret	 16			; 00000010H
??_H@YGXPAXIIP6EPAX0@Z@Z ENDP				; `vector constructor iterator'
_TEXT	ENDS
END
