; Listing generated by Microsoft (R) Optimizing Compiler Version 19.29.30145.0 

	TITLE	D:\git\src\IBK\IBK_DRFN\#DRfn-CS\_Obj\ChartPatternAddin\GridCellBase.obj
	.686P
	.XMM
	include listing.inc
	.model	flat

INCLUDELIB MSVCRT
INCLUDELIB OLDNAMES

PUBLIC	??_H@YGXPAXIIP6EPAX0@Z@Z			; `vector constructor iterator'
PUBLIC	?__empty_global_delete@@YAXPAX@Z		; __empty_global_delete
PUBLIC	?__empty_global_delete@@YAXPAXI@Z		; __empty_global_delete
PUBLIC	??1CObject@@UAE@XZ				; CObject::~CObject
PUBLIC	?Serialize@CObject@@UAEXAAVCArchive@@@Z		; CObject::Serialize
PUBLIC	?AssertValid@CObject@@UBEXXZ			; CObject::AssertValid
PUBLIC	?Dump@CObject@@UBEXAAVCDumpContext@@@Z		; CObject::Dump
PUBLIC	??1AFX_EXCEPTION_LINK@@QAE@XZ			; AFX_EXCEPTION_LINK::~AFX_EXCEPTION_LINK
PUBLIC	??1CGdiObject@@UAE@XZ				; CGdiObject::~CGdiObject
PUBLIC	??_GCGdiObject@@UAEPAXI@Z			; CGdiObject::`scalar deleting destructor'
PUBLIC	??1CPen@@UAE@XZ					; CPen::~CPen
PUBLIC	??_GCPen@@UAEPAXI@Z				; CPen::`scalar deleting destructor'
PUBLIC	??1CBrush@@UAE@XZ				; CBrush::~CBrush
PUBLIC	??_GCBrush@@UAEPAXI@Z				; CBrush::`scalar deleting destructor'
PUBLIC	??1_GV_ITEM@@QAE@XZ				; _GV_ITEM::~_GV_ITEM
PUBLIC	?_GetBaseClass@CGridCellBase@@KGPAUCRuntimeClass@@XZ ; CGridCellBase::_GetBaseClass
PUBLIC	?GetThisClass@CGridCellBase@@SGPAUCRuntimeClass@@XZ ; CGridCellBase::GetThisClass
PUBLIC	?GetRuntimeClass@CGridCellBase@@UBEPAUCRuntimeClass@@XZ ; CGridCellBase::GetRuntimeClass
PUBLIC	?CreateObject@CGridCellBase@@SGPAVCObject@@XZ	; CGridCellBase::CreateObject
PUBLIC	??0CGridCellBase@@QAE@XZ			; CGridCellBase::CGridCellBase
PUBLIC	??1CGridCellBase@@UAE@XZ			; CGridCellBase::~CGridCellBase
PUBLIC	?SetText@CGridCellBase@@UAEXPBD@Z		; CGridCellBase::SetText
PUBLIC	?SetImage@CGridCellBase@@UAEXH@Z		; CGridCellBase::SetImage
PUBLIC	?SetData@CGridCellBase@@UAEXJ@Z			; CGridCellBase::SetData
PUBLIC	?SetState@CGridCellBase@@UAEXK@Z		; CGridCellBase::SetState
PUBLIC	?SetFormat@CGridCellBase@@UAEXK@Z		; CGridCellBase::SetFormat
PUBLIC	?SetTextClr@CGridCellBase@@UAEXK@Z		; CGridCellBase::SetTextClr
PUBLIC	?SetBackClr@CGridCellBase@@UAEXK@Z		; CGridCellBase::SetBackClr
PUBLIC	?SetFont@CGridCellBase@@UAEXPBUtagLOGFONTA@@@Z	; CGridCellBase::SetFont
PUBLIC	?SetMargin@CGridCellBase@@UAEXI@Z		; CGridCellBase::SetMargin
PUBLIC	?SetGrid@CGridCellBase@@UAEXPAVCGridCtrl@@@Z	; CGridCellBase::SetGrid
PUBLIC	?SetCoords@CGridCellBase@@UAEXHH@Z		; CGridCellBase::SetCoords
PUBLIC	?GetText@CGridCellBase@@UBEPBDXZ		; CGridCellBase::GetText
PUBLIC	?GetTipText@CGridCellBase@@UBEPBDXZ		; CGridCellBase::GetTipText
PUBLIC	?GetImage@CGridCellBase@@UBEHXZ			; CGridCellBase::GetImage
PUBLIC	?GetData@CGridCellBase@@UBEJXZ			; CGridCellBase::GetData
PUBLIC	?GetState@CGridCellBase@@UBEKXZ			; CGridCellBase::GetState
PUBLIC	?GetFormat@CGridCellBase@@UBEKXZ		; CGridCellBase::GetFormat
PUBLIC	?GetTextClr@CGridCellBase@@UBEKXZ		; CGridCellBase::GetTextClr
PUBLIC	?GetBackClr@CGridCellBase@@UBEKXZ		; CGridCellBase::GetBackClr
PUBLIC	?GetFont@CGridCellBase@@UBEPAUtagLOGFONTA@@XZ	; CGridCellBase::GetFont
PUBLIC	?GetFontObject@CGridCellBase@@UBEPAVCFont@@XZ	; CGridCellBase::GetFontObject
PUBLIC	?GetGrid@CGridCellBase@@UBEPAVCGridCtrl@@XZ	; CGridCellBase::GetGrid
PUBLIC	?GetEditWnd@CGridCellBase@@UBEPAVCWnd@@XZ	; CGridCellBase::GetEditWnd
PUBLIC	?GetMargin@CGridCellBase@@UBEIXZ		; CGridCellBase::GetMargin
PUBLIC	?GetDefaultCell@CGridCellBase@@UBEPAV1@XZ	; CGridCellBase::GetDefaultCell
PUBLIC	?IsDefaultFont@CGridCellBase@@UBEHXZ		; CGridCellBase::IsDefaultFont
PUBLIC	?IsEditing@CGridCellBase@@UBEHXZ		; CGridCellBase::IsEditing
PUBLIC	?IsFocused@CGridCellBase@@UBEHXZ		; CGridCellBase::IsFocused
PUBLIC	?IsFixed@CGridCellBase@@UBEHXZ			; CGridCellBase::IsFixed
PUBLIC	?IsFixedCol@CGridCellBase@@UBEHXZ		; CGridCellBase::IsFixedCol
PUBLIC	?IsFixedRow@CGridCellBase@@UBEHXZ		; CGridCellBase::IsFixedRow
PUBLIC	?IsSelected@CGridCellBase@@UBEHXZ		; CGridCellBase::IsSelected
PUBLIC	?IsReadOnly@CGridCellBase@@UBEHXZ		; CGridCellBase::IsReadOnly
PUBLIC	?IsModified@CGridCellBase@@UBEHXZ		; CGridCellBase::IsModified
PUBLIC	?IsDropHighlighted@CGridCellBase@@UBEHXZ	; CGridCellBase::IsDropHighlighted
PUBLIC	??4CGridCellBase@@UAEXABV0@@Z			; CGridCellBase::operator=
PUBLIC	?Reset@CGridCellBase@@UAEXXZ			; CGridCellBase::Reset
PUBLIC	?Draw@CGridCellBase@@UAEHPAVCDC@@HHVCRect@@H@Z	; CGridCellBase::Draw
PUBLIC	?GetTextRect@CGridCellBase@@UAEHPAUtagRECT@@@Z	; CGridCellBase::GetTextRect
PUBLIC	?GetTipTextRect@CGridCellBase@@UAEHPAUtagRECT@@@Z ; CGridCellBase::GetTipTextRect
PUBLIC	?GetTextExtent@CGridCellBase@@UAE?AVCSize@@PBDPAVCDC@@@Z ; CGridCellBase::GetTextExtent
PUBLIC	?GetCellExtent@CGridCellBase@@UAE?AVCSize@@PAVCDC@@@Z ; CGridCellBase::GetCellExtent
PUBLIC	?Edit@CGridCellBase@@UAEHHHVCRect@@VCPoint@@II@Z ; CGridCellBase::Edit
PUBLIC	?ValidateEdit@CGridCellBase@@UAEHPBD@Z		; CGridCellBase::ValidateEdit
PUBLIC	?EndEdit@CGridCellBase@@UAEXXZ			; CGridCellBase::EndEdit
PUBLIC	?PrintCell@CGridCellBase@@UAEHPAVCDC@@HHVCRect@@@Z ; CGridCellBase::PrintCell
PUBLIC	?SendMessageToParent@CGridCellBase@@QAEJHHH@Z	; CGridCellBase::SendMessageToParent
PUBLIC	?OnEndEdit@CGridCellBase@@MAEXXZ		; CGridCellBase::OnEndEdit
PUBLIC	?OnMouseEnter@CGridCellBase@@MAEXXZ		; CGridCellBase::OnMouseEnter
PUBLIC	?OnMouseOver@CGridCellBase@@MAEXXZ		; CGridCellBase::OnMouseOver
PUBLIC	?OnMouseLeave@CGridCellBase@@MAEXXZ		; CGridCellBase::OnMouseLeave
PUBLIC	?OnClick@CGridCellBase@@MAEXVCPoint@@@Z		; CGridCellBase::OnClick
PUBLIC	?OnClickDown@CGridCellBase@@MAEXVCPoint@@@Z	; CGridCellBase::OnClickDown
PUBLIC	?OnRClick@CGridCellBase@@MAEXVCPoint@@@Z	; CGridCellBase::OnRClick
PUBLIC	?OnDblClick@CGridCellBase@@MAEXVCPoint@@@Z	; CGridCellBase::OnDblClick
PUBLIC	?OnSetCursor@CGridCellBase@@MAEHXZ		; CGridCellBase::OnSetCursor
PUBLIC	??_GCGridCellBase@@UAEPAXI@Z			; CGridCellBase::`scalar deleting destructor'
PUBLIC	??_R0PAVCException@@@8				; CException * `RTTI Type Descriptor'
PUBLIC	??_7CGdiObject@@6B@				; CGdiObject::`vftable'
PUBLIC	??_7CPen@@6B@					; CPen::`vftable'
PUBLIC	??_7CBrush@@6B@					; CBrush::`vftable'
PUBLIC	??_C@_0HD@JJCHHHNK@C?3?2Program?5Files?5?$CIx86?$CJ?2Microsof@ ; `string'
PUBLIC	??_C@_0BP@OIEOKIDM@Exception?5thrown?5in?5destructor@ ; `string'
PUBLIC	??_C@_0BB@HBOOMJBF@?$CFTs?5?$CI?$CFTs?3?$CFd?$CJ?6?$CFTs@ ; `string'
PUBLIC	??_C@_0N@OMEMOKLE@?$CFTs?5?$CI?$CFTs?3?$CFd?$CJ@ ; `string'
PUBLIC	??_R0?AVCObject@@@8				; CObject `RTTI Type Descriptor'
PUBLIC	??_R3CObject@@8					; CObject::`RTTI Class Hierarchy Descriptor'
PUBLIC	??_R2CObject@@8					; CObject::`RTTI Base Class Array'
PUBLIC	??_R1A@?0A@EA@CObject@@8			; CObject::`RTTI Base Class Descriptor at (0,-1,0,64)'
PUBLIC	??_R4CGdiObject@@6B@				; CGdiObject::`RTTI Complete Object Locator'
PUBLIC	??_R0?AVCGdiObject@@@8				; CGdiObject `RTTI Type Descriptor'
PUBLIC	??_R3CGdiObject@@8				; CGdiObject::`RTTI Class Hierarchy Descriptor'
PUBLIC	??_R2CGdiObject@@8				; CGdiObject::`RTTI Base Class Array'
PUBLIC	??_R1A@?0A@EA@CGdiObject@@8			; CGdiObject::`RTTI Base Class Descriptor at (0,-1,0,64)'
PUBLIC	??_R4CPen@@6B@					; CPen::`RTTI Complete Object Locator'
PUBLIC	??_R0?AVCPen@@@8				; CPen `RTTI Type Descriptor'
PUBLIC	??_R3CPen@@8					; CPen::`RTTI Class Hierarchy Descriptor'
PUBLIC	??_R2CPen@@8					; CPen::`RTTI Base Class Array'
PUBLIC	??_R1A@?0A@EA@CPen@@8				; CPen::`RTTI Base Class Descriptor at (0,-1,0,64)'
PUBLIC	??_R4CBrush@@6B@				; CBrush::`RTTI Complete Object Locator'
PUBLIC	??_R0?AVCBrush@@@8				; CBrush `RTTI Type Descriptor'
PUBLIC	??_R3CBrush@@8					; CBrush::`RTTI Class Hierarchy Descriptor'
PUBLIC	??_R2CBrush@@8					; CBrush::`RTTI Base Class Array'
PUBLIC	??_R1A@?0A@EA@CBrush@@8				; CBrush::`RTTI Base Class Descriptor at (0,-1,0,64)'
PUBLIC	?classCGridCellBase@CGridCellBase@@2UCRuntimeClass@@B ; CGridCellBase::classCGridCellBase
PUBLIC	??_7CGridCellBase@@6B@				; CGridCellBase::`vftable'
PUBLIC	??_C@_0O@ELCGHKDE@CGridCellBase@		; `string'
PUBLIC	??_R0PAVCResourceException@@@8			; CResourceException * `RTTI Type Descriptor'
PUBLIC	??_R4CGridCellBase@@6B@				; CGridCellBase::`RTTI Complete Object Locator'
PUBLIC	??_R0?AVCGridCellBase@@@8			; CGridCellBase `RTTI Type Descriptor'
PUBLIC	??_R3CGridCellBase@@8				; CGridCellBase::`RTTI Class Hierarchy Descriptor'
PUBLIC	??_R2CGridCellBase@@8				; CGridCellBase::`RTTI Base Class Array'
PUBLIC	??_R1A@?0A@EA@CGridCellBase@@8			; CGridCellBase::`RTTI Base Class Descriptor at (0,-1,0,64)'
PUBLIC	__real@3fbc28f5c28f5c29
PUBLIC	__real@3fd3333333333333
PUBLIC	__real@3fe2e147ae147ae1
EXTRN	??2@YAPAXI@Z:PROC				; operator new
EXTRN	??3@YAXPAX@Z:PROC				; operator delete
EXTRN	?__global_delete@@YAXPAXI@Z:PROC		; __global_delete
EXTRN	___std_terminate:PROC
EXTRN	__imp__GetCurrentObject@8:PROC
EXTRN	__imp__GetDeviceCaps@8:PROC
EXTRN	__imp__GetTextExtentPoint32A@16:PROC
EXTRN	__imp__GetTextMetricsA@8:PROC
EXTRN	__imp__DrawTextA@20:PROC
EXTRN	__imp__GetDC@4:PROC
EXTRN	__imp__ReleaseDC@8:PROC
EXTRN	__imp__SetCursor@4:PROC
EXTRN	__imp__GetSysColor@4:PROC
EXTRN	__imp__FillRect@12:PROC
EXTRN	__imp__SetRect@20:PROC
EXTRN	__imp__InflateRect@12:PROC
EXTRN	__imp__OffsetRect@12:PROC
EXTRN	__imp__LoadCursorA@8:PROC
EXTRN	__imp__ImageList_Draw@24:PROC
EXTRN	__imp__ImageList_GetImageInfo@12:PROC
EXTRN	?GetThisClass@CObject@@SGPAUCRuntimeClass@@XZ:PROC ; CObject::GetThisClass
EXTRN	__imp_??0?$CStringT@DV?$StrTraitMFC_DLL@DV?$ChTraitsCRT@D@ATL@@@@@ATL@@QAE@XZ:PROC
EXTRN	__imp_??0?$CStringT@DV?$StrTraitMFC_DLL@DV?$ChTraitsCRT@D@ATL@@@@@ATL@@QAE@ABV01@@Z:PROC
EXTRN	__imp_??0?$CStringT@DV?$StrTraitMFC_DLL@DV?$ChTraitsCRT@D@ATL@@@@@ATL@@QAE@PBD@Z:PROC
EXTRN	__imp_??1?$CStringT@DV?$StrTraitMFC_DLL@DV?$ChTraitsCRT@D@ATL@@@@@ATL@@QAE@XZ:PROC
EXTRN	__imp_??4?$CStringT@DV?$StrTraitMFC_DLL@DV?$ChTraitsCRT@D@ATL@@@@@ATL@@QAEAAV01@ABV01@@Z:PROC
EXTRN	__imp_?Find@?$CStringT@DV?$StrTraitMFC_DLL@DV?$ChTraitsCRT@D@ATL@@@@@ATL@@QBEHDH@Z:PROC
EXTRN	__imp_?Mid@?$CStringT@DV?$StrTraitMFC_DLL@DV?$ChTraitsCRT@D@ATL@@@@@ATL@@QBE?AV12@H@Z:PROC
EXTRN	__imp_?Left@?$CStringT@DV?$StrTraitMFC_DLL@DV?$ChTraitsCRT@D@ATL@@@@@ATL@@QBE?AV12@H@Z:PROC
EXTRN	__imp_?Format@?$CStringT@DV?$StrTraitMFC_DLL@DV?$ChTraitsCRT@D@ATL@@@@@ATL@@QAAXPBDZZ:PROC
EXTRN	?AfxTryCleanup@@YGXXZ:PROC			; AfxTryCleanup
EXTRN	??0AFX_EXCEPTION_LINK@@QAE@XZ:PROC		; AFX_EXCEPTION_LINK::AFX_EXCEPTION_LINK
EXTRN	?AfxGetModuleState@@YGPAVAFX_MODULE_STATE@@XZ:PROC ; AfxGetModuleState
EXTRN	?GetRuntimeClass@CGdiObject@@UBEPAUCRuntimeClass@@XZ:PROC ; CGdiObject::GetRuntimeClass
EXTRN	?FromHandle@CGdiObject@@SGPAV1@PAX@Z:PROC	; CGdiObject::FromHandle
EXTRN	?DeleteObject@CGdiObject@@QAEHXZ:PROC		; CGdiObject::DeleteObject
EXTRN	??_ECGdiObject@@UAEPAXI@Z:PROC			; CGdiObject::`vector deleting destructor'
EXTRN	?GetRuntimeClass@CPen@@UBEPAUCRuntimeClass@@XZ:PROC ; CPen::GetRuntimeClass
EXTRN	??0CPen@@QAE@HHK@Z:PROC				; CPen::CPen
EXTRN	??_ECPen@@UAEPAXI@Z:PROC			; CPen::`vector deleting destructor'
EXTRN	?GetRuntimeClass@CBrush@@UBEPAUCRuntimeClass@@XZ:PROC ; CBrush::GetRuntimeClass
EXTRN	??0CBrush@@QAE@K@Z:PROC				; CBrush::CBrush
EXTRN	??_ECBrush@@UAEPAXI@Z:PROC			; CBrush::`vector deleting destructor'
EXTRN	?FromHandle@CDC@@SGPAV1@PAUHDC__@@@Z:PROC	; CDC::FromHandle
EXTRN	?SelectObject@CDC@@QAEPAVCPen@@PAV2@@Z:PROC	; CDC::SelectObject
EXTRN	?SetBkMode@CDC@@QAEHH@Z:PROC			; CDC::SetBkMode
EXTRN	?MoveTo@CDC@@QAE?AVCPoint@@HH@Z:PROC		; CDC::MoveTo
EXTRN	?LineTo@CDC@@QAEHHH@Z:PROC			; CDC::LineTo
EXTRN	?FillSolidRect@CDC@@QAEXPBUtagRECT@@K@Z:PROC	; CDC::FillSolidRect
EXTRN	?Draw3dRect@CDC@@QAEXPBUtagRECT@@KK@Z:PROC	; CDC::Draw3dRect
EXTRN	?AfxMessageBox@@YGHPBDII@Z:PROC			; AfxMessageBox
EXTRN	??_ECGridCellBase@@UAEPAXI@Z:PROC		; CGridCellBase::`vector deleting destructor'
EXTRN	?GetCellRect@CGridCtrl@@QAEHHHPAUtagRECT@@@Z:PROC ; CGridCtrl::GetCellRect
EXTRN	?GetItemFormat@CGridCtrl@@QBEIHH@Z:PROC		; CGridCtrl::GetItemFormat
EXTRN	?GetPatternReportType@CGridCtrl@@QAEHXZ:PROC	; CGridCtrl::GetPatternReportType
EXTRN	?SendMessageToParent@CGridCtrl@@IBEJHHH@Z:PROC	; CGridCtrl::SendMessageToParent
EXTRN	@__security_check_cookie@4:PROC
EXTRN	___CxxFrameHandler3:PROC
EXTRN	??_7type_info@@6B@:QWORD			; type_info::`vftable'
EXTRN	___security_cookie:DWORD
EXTRN	__fltused:DWORD
;	COMDAT __real@3fe2e147ae147ae1
CONST	SEGMENT
__real@3fe2e147ae147ae1 DQ 03fe2e147ae147ae1r	; 0.59
CONST	ENDS
;	COMDAT __real@3fd3333333333333
CONST	SEGMENT
__real@3fd3333333333333 DQ 03fd3333333333333r	; 0.3
CONST	ENDS
;	COMDAT __real@3fbc28f5c28f5c29
CONST	SEGMENT
__real@3fbc28f5c28f5c29 DQ 03fbc28f5c28f5c29r	; 0.11
CONST	ENDS
;	COMDAT ??_R1A@?0A@EA@CGridCellBase@@8
rdata$r	SEGMENT
??_R1A@?0A@EA@CGridCellBase@@8 DD FLAT:??_R0?AVCGridCellBase@@@8 ; CGridCellBase::`RTTI Base Class Descriptor at (0,-1,0,64)'
	DD	01H
	DD	00H
	DD	0ffffffffH
	DD	00H
	DD	040H
	DD	FLAT:??_R3CGridCellBase@@8
rdata$r	ENDS
;	COMDAT ??_R2CGridCellBase@@8
rdata$r	SEGMENT
??_R2CGridCellBase@@8 DD FLAT:??_R1A@?0A@EA@CGridCellBase@@8 ; CGridCellBase::`RTTI Base Class Array'
	DD	FLAT:??_R1A@?0A@EA@CObject@@8
rdata$r	ENDS
;	COMDAT ??_R3CGridCellBase@@8
rdata$r	SEGMENT
??_R3CGridCellBase@@8 DD 00H				; CGridCellBase::`RTTI Class Hierarchy Descriptor'
	DD	00H
	DD	02H
	DD	FLAT:??_R2CGridCellBase@@8
rdata$r	ENDS
;	COMDAT ??_R0?AVCGridCellBase@@@8
data$rs	SEGMENT
??_R0?AVCGridCellBase@@@8 DD FLAT:??_7type_info@@6B@	; CGridCellBase `RTTI Type Descriptor'
	DD	00H
	DB	'.?AVCGridCellBase@@', 00H
data$rs	ENDS
;	COMDAT ??_R4CGridCellBase@@6B@
rdata$r	SEGMENT
??_R4CGridCellBase@@6B@ DD 00H				; CGridCellBase::`RTTI Complete Object Locator'
	DD	00H
	DD	00H
	DD	FLAT:??_R0?AVCGridCellBase@@@8
	DD	FLAT:??_R3CGridCellBase@@8
rdata$r	ENDS
;	COMDAT ??_R0PAVCResourceException@@@8
data$r	SEGMENT
??_R0PAVCResourceException@@@8 DD FLAT:??_7type_info@@6B@ ; CResourceException * `RTTI Type Descriptor'
	DD	00H
	DB	'.PAVCResourceException@@', 00H
data$r	ENDS
;	COMDAT ??_C@_0O@ELCGHKDE@CGridCellBase@
CONST	SEGMENT
??_C@_0O@ELCGHKDE@CGridCellBase@ DB 'CGridCellBase', 00H ; `string'
CONST	ENDS
;	COMDAT ??_7CGridCellBase@@6B@
CONST	SEGMENT
??_7CGridCellBase@@6B@ DD FLAT:??_R4CGridCellBase@@6B@	; CGridCellBase::`vftable'
	DD	FLAT:?GetRuntimeClass@CGridCellBase@@UBEPAUCRuntimeClass@@XZ
	DD	FLAT:??_ECGridCellBase@@UAEPAXI@Z
	DD	FLAT:?Serialize@CObject@@UAEXAAVCArchive@@@Z
	DD	FLAT:?AssertValid@CObject@@UBEXXZ
	DD	FLAT:?Dump@CObject@@UBEXAAVCDumpContext@@@Z
	DD	FLAT:?SetText@CGridCellBase@@UAEXPBD@Z
	DD	FLAT:?SetImage@CGridCellBase@@UAEXH@Z
	DD	FLAT:?SetData@CGridCellBase@@UAEXJ@Z
	DD	FLAT:?SetState@CGridCellBase@@UAEXK@Z
	DD	FLAT:?SetFormat@CGridCellBase@@UAEXK@Z
	DD	FLAT:?SetTextClr@CGridCellBase@@UAEXK@Z
	DD	FLAT:?SetBackClr@CGridCellBase@@UAEXK@Z
	DD	FLAT:?SetFont@CGridCellBase@@UAEXPBUtagLOGFONTA@@@Z
	DD	FLAT:?SetMargin@CGridCellBase@@UAEXI@Z
	DD	FLAT:?SetGrid@CGridCellBase@@UAEXPAVCGridCtrl@@@Z
	DD	FLAT:?SetCoords@CGridCellBase@@UAEXHH@Z
	DD	FLAT:?GetText@CGridCellBase@@UBEPBDXZ
	DD	FLAT:?GetTipText@CGridCellBase@@UBEPBDXZ
	DD	FLAT:?GetImage@CGridCellBase@@UBEHXZ
	DD	FLAT:?GetData@CGridCellBase@@UBEJXZ
	DD	FLAT:?GetState@CGridCellBase@@UBEKXZ
	DD	FLAT:?GetFormat@CGridCellBase@@UBEKXZ
	DD	FLAT:?GetTextClr@CGridCellBase@@UBEKXZ
	DD	FLAT:?GetBackClr@CGridCellBase@@UBEKXZ
	DD	FLAT:?GetFont@CGridCellBase@@UBEPAUtagLOGFONTA@@XZ
	DD	FLAT:?GetFontObject@CGridCellBase@@UBEPAVCFont@@XZ
	DD	FLAT:?GetGrid@CGridCellBase@@UBEPAVCGridCtrl@@XZ
	DD	FLAT:?GetEditWnd@CGridCellBase@@UBEPAVCWnd@@XZ
	DD	FLAT:?GetMargin@CGridCellBase@@UBEIXZ
	DD	FLAT:?GetDefaultCell@CGridCellBase@@UBEPAV1@XZ
	DD	FLAT:?IsDefaultFont@CGridCellBase@@UBEHXZ
	DD	FLAT:?IsEditing@CGridCellBase@@UBEHXZ
	DD	FLAT:?IsFocused@CGridCellBase@@UBEHXZ
	DD	FLAT:?IsFixed@CGridCellBase@@UBEHXZ
	DD	FLAT:?IsFixedCol@CGridCellBase@@UBEHXZ
	DD	FLAT:?IsFixedRow@CGridCellBase@@UBEHXZ
	DD	FLAT:?IsSelected@CGridCellBase@@UBEHXZ
	DD	FLAT:?IsReadOnly@CGridCellBase@@UBEHXZ
	DD	FLAT:?IsModified@CGridCellBase@@UBEHXZ
	DD	FLAT:?IsDropHighlighted@CGridCellBase@@UBEHXZ
	DD	FLAT:??4CGridCellBase@@UAEXABV0@@Z
	DD	FLAT:?Reset@CGridCellBase@@UAEXXZ
	DD	FLAT:?Draw@CGridCellBase@@UAEHPAVCDC@@HHVCRect@@H@Z
	DD	FLAT:?GetTextRect@CGridCellBase@@UAEHPAUtagRECT@@@Z
	DD	FLAT:?GetTipTextRect@CGridCellBase@@UAEHPAUtagRECT@@@Z
	DD	FLAT:?GetTextExtent@CGridCellBase@@UAE?AVCSize@@PBDPAVCDC@@@Z
	DD	FLAT:?GetCellExtent@CGridCellBase@@UAE?AVCSize@@PAVCDC@@@Z
	DD	FLAT:?Edit@CGridCellBase@@UAEHHHVCRect@@VCPoint@@II@Z
	DD	FLAT:?ValidateEdit@CGridCellBase@@UAEHPBD@Z
	DD	FLAT:?EndEdit@CGridCellBase@@UAEXXZ
	DD	FLAT:?PrintCell@CGridCellBase@@UAEHPAVCDC@@HHVCRect@@@Z
	DD	FLAT:?OnEndEdit@CGridCellBase@@MAEXXZ
	DD	FLAT:?OnMouseEnter@CGridCellBase@@MAEXXZ
	DD	FLAT:?OnMouseOver@CGridCellBase@@MAEXXZ
	DD	FLAT:?OnMouseLeave@CGridCellBase@@MAEXXZ
	DD	FLAT:?OnClick@CGridCellBase@@MAEXVCPoint@@@Z
	DD	FLAT:?OnClickDown@CGridCellBase@@MAEXVCPoint@@@Z
	DD	FLAT:?OnRClick@CGridCellBase@@MAEXVCPoint@@@Z
	DD	FLAT:?OnDblClick@CGridCellBase@@MAEXVCPoint@@@Z
	DD	FLAT:?OnSetCursor@CGridCellBase@@MAEHXZ
CONST	ENDS
;	COMDAT ?classCGridCellBase@CGridCellBase@@2UCRuntimeClass@@B
CONST	SEGMENT
?classCGridCellBase@CGridCellBase@@2UCRuntimeClass@@B DD FLAT:??_C@_0O@ELCGHKDE@CGridCellBase@ ; CGridCellBase::classCGridCellBase
	DD	08H
	DD	0ffffH
	DD	FLAT:?CreateObject@CGridCellBase@@SGPAVCObject@@XZ
	DD	FLAT:?_GetBaseClass@CGridCellBase@@KGPAUCRuntimeClass@@XZ
	DD	00H
	DD	00H
CONST	ENDS
;	COMDAT ??_R1A@?0A@EA@CBrush@@8
rdata$r	SEGMENT
??_R1A@?0A@EA@CBrush@@8 DD FLAT:??_R0?AVCBrush@@@8	; CBrush::`RTTI Base Class Descriptor at (0,-1,0,64)'
	DD	02H
	DD	00H
	DD	0ffffffffH
	DD	00H
	DD	040H
	DD	FLAT:??_R3CBrush@@8
rdata$r	ENDS
;	COMDAT ??_R2CBrush@@8
rdata$r	SEGMENT
??_R2CBrush@@8 DD FLAT:??_R1A@?0A@EA@CBrush@@8		; CBrush::`RTTI Base Class Array'
	DD	FLAT:??_R1A@?0A@EA@CGdiObject@@8
	DD	FLAT:??_R1A@?0A@EA@CObject@@8
rdata$r	ENDS
;	COMDAT ??_R3CBrush@@8
rdata$r	SEGMENT
??_R3CBrush@@8 DD 00H					; CBrush::`RTTI Class Hierarchy Descriptor'
	DD	00H
	DD	03H
	DD	FLAT:??_R2CBrush@@8
rdata$r	ENDS
;	COMDAT ??_R0?AVCBrush@@@8
data$rs	SEGMENT
??_R0?AVCBrush@@@8 DD FLAT:??_7type_info@@6B@		; CBrush `RTTI Type Descriptor'
	DD	00H
	DB	'.?AVCBrush@@', 00H
data$rs	ENDS
;	COMDAT ??_R4CBrush@@6B@
rdata$r	SEGMENT
??_R4CBrush@@6B@ DD 00H					; CBrush::`RTTI Complete Object Locator'
	DD	00H
	DD	00H
	DD	FLAT:??_R0?AVCBrush@@@8
	DD	FLAT:??_R3CBrush@@8
rdata$r	ENDS
;	COMDAT ??_R1A@?0A@EA@CPen@@8
rdata$r	SEGMENT
??_R1A@?0A@EA@CPen@@8 DD FLAT:??_R0?AVCPen@@@8		; CPen::`RTTI Base Class Descriptor at (0,-1,0,64)'
	DD	02H
	DD	00H
	DD	0ffffffffH
	DD	00H
	DD	040H
	DD	FLAT:??_R3CPen@@8
rdata$r	ENDS
;	COMDAT ??_R2CPen@@8
rdata$r	SEGMENT
??_R2CPen@@8 DD	FLAT:??_R1A@?0A@EA@CPen@@8		; CPen::`RTTI Base Class Array'
	DD	FLAT:??_R1A@?0A@EA@CGdiObject@@8
	DD	FLAT:??_R1A@?0A@EA@CObject@@8
rdata$r	ENDS
;	COMDAT ??_R3CPen@@8
rdata$r	SEGMENT
??_R3CPen@@8 DD	00H					; CPen::`RTTI Class Hierarchy Descriptor'
	DD	00H
	DD	03H
	DD	FLAT:??_R2CPen@@8
rdata$r	ENDS
;	COMDAT ??_R0?AVCPen@@@8
data$rs	SEGMENT
??_R0?AVCPen@@@8 DD FLAT:??_7type_info@@6B@		; CPen `RTTI Type Descriptor'
	DD	00H
	DB	'.?AVCPen@@', 00H
data$rs	ENDS
;	COMDAT ??_R4CPen@@6B@
rdata$r	SEGMENT
??_R4CPen@@6B@ DD 00H					; CPen::`RTTI Complete Object Locator'
	DD	00H
	DD	00H
	DD	FLAT:??_R0?AVCPen@@@8
	DD	FLAT:??_R3CPen@@8
rdata$r	ENDS
;	COMDAT ??_R1A@?0A@EA@CGdiObject@@8
rdata$r	SEGMENT
??_R1A@?0A@EA@CGdiObject@@8 DD FLAT:??_R0?AVCGdiObject@@@8 ; CGdiObject::`RTTI Base Class Descriptor at (0,-1,0,64)'
	DD	01H
	DD	00H
	DD	0ffffffffH
	DD	00H
	DD	040H
	DD	FLAT:??_R3CGdiObject@@8
rdata$r	ENDS
;	COMDAT ??_R2CGdiObject@@8
rdata$r	SEGMENT
??_R2CGdiObject@@8 DD FLAT:??_R1A@?0A@EA@CGdiObject@@8	; CGdiObject::`RTTI Base Class Array'
	DD	FLAT:??_R1A@?0A@EA@CObject@@8
rdata$r	ENDS
;	COMDAT ??_R3CGdiObject@@8
rdata$r	SEGMENT
??_R3CGdiObject@@8 DD 00H				; CGdiObject::`RTTI Class Hierarchy Descriptor'
	DD	00H
	DD	02H
	DD	FLAT:??_R2CGdiObject@@8
rdata$r	ENDS
;	COMDAT ??_R0?AVCGdiObject@@@8
data$rs	SEGMENT
??_R0?AVCGdiObject@@@8 DD FLAT:??_7type_info@@6B@	; CGdiObject `RTTI Type Descriptor'
	DD	00H
	DB	'.?AVCGdiObject@@', 00H
data$rs	ENDS
;	COMDAT ??_R4CGdiObject@@6B@
rdata$r	SEGMENT
??_R4CGdiObject@@6B@ DD 00H				; CGdiObject::`RTTI Complete Object Locator'
	DD	00H
	DD	00H
	DD	FLAT:??_R0?AVCGdiObject@@@8
	DD	FLAT:??_R3CGdiObject@@8
rdata$r	ENDS
;	COMDAT ??_R1A@?0A@EA@CObject@@8
rdata$r	SEGMENT
??_R1A@?0A@EA@CObject@@8 DD FLAT:??_R0?AVCObject@@@8	; CObject::`RTTI Base Class Descriptor at (0,-1,0,64)'
	DD	00H
	DD	00H
	DD	0ffffffffH
	DD	00H
	DD	040H
	DD	FLAT:??_R3CObject@@8
rdata$r	ENDS
;	COMDAT ??_R2CObject@@8
rdata$r	SEGMENT
??_R2CObject@@8 DD FLAT:??_R1A@?0A@EA@CObject@@8	; CObject::`RTTI Base Class Array'
rdata$r	ENDS
;	COMDAT ??_R3CObject@@8
rdata$r	SEGMENT
??_R3CObject@@8 DD 00H					; CObject::`RTTI Class Hierarchy Descriptor'
	DD	00H
	DD	01H
	DD	FLAT:??_R2CObject@@8
rdata$r	ENDS
;	COMDAT ??_R0?AVCObject@@@8
data$rs	SEGMENT
??_R0?AVCObject@@@8 DD FLAT:??_7type_info@@6B@		; CObject `RTTI Type Descriptor'
	DD	00H
	DB	'.?AVCObject@@', 00H
data$rs	ENDS
;	COMDAT ??_C@_0N@OMEMOKLE@?$CFTs?5?$CI?$CFTs?3?$CFd?$CJ@
CONST	SEGMENT
??_C@_0N@OMEMOKLE@?$CFTs?5?$CI?$CFTs?3?$CFd?$CJ@ DB '%Ts (%Ts:%d)', 00H ; `string'
CONST	ENDS
;	COMDAT ??_C@_0BB@HBOOMJBF@?$CFTs?5?$CI?$CFTs?3?$CFd?$CJ?6?$CFTs@
CONST	SEGMENT
??_C@_0BB@HBOOMJBF@?$CFTs?5?$CI?$CFTs?3?$CFd?$CJ?6?$CFTs@ DB '%Ts (%Ts:%d'
	DB	')', 0aH, '%Ts', 00H				; `string'
CONST	ENDS
;	COMDAT ??_C@_0BP@OIEOKIDM@Exception?5thrown?5in?5destructor@
CONST	SEGMENT
??_C@_0BP@OIEOKIDM@Exception?5thrown?5in?5destructor@ DB 'Exception throw'
	DB	'n in destructor', 00H			; `string'
CONST	ENDS
;	COMDAT ??_C@_0HD@JJCHHHNK@C?3?2Program?5Files?5?$CIx86?$CJ?2Microsof@
CONST	SEGMENT
??_C@_0HD@JJCHHHNK@C?3?2Program?5Files?5?$CIx86?$CJ?2Microsof@ DB 'C:\Pro'
	DB	'gram Files (x86)\Microsoft Visual Studio\2019\Community\VC\To'
	DB	'ols\MSVC\14.29.30133\atlmfc\include\afxwin1.inl', 00H ; `string'
CONST	ENDS
;	COMDAT ??_7CBrush@@6B@
CONST	SEGMENT
??_7CBrush@@6B@ DD FLAT:??_R4CBrush@@6B@		; CBrush::`vftable'
	DD	FLAT:?GetRuntimeClass@CBrush@@UBEPAUCRuntimeClass@@XZ
	DD	FLAT:??_ECBrush@@UAEPAXI@Z
	DD	FLAT:?Serialize@CObject@@UAEXAAVCArchive@@@Z
	DD	FLAT:?AssertValid@CObject@@UBEXXZ
	DD	FLAT:?Dump@CObject@@UBEXAAVCDumpContext@@@Z
CONST	ENDS
;	COMDAT ??_7CPen@@6B@
CONST	SEGMENT
??_7CPen@@6B@ DD FLAT:??_R4CPen@@6B@			; CPen::`vftable'
	DD	FLAT:?GetRuntimeClass@CPen@@UBEPAUCRuntimeClass@@XZ
	DD	FLAT:??_ECPen@@UAEPAXI@Z
	DD	FLAT:?Serialize@CObject@@UAEXAAVCArchive@@@Z
	DD	FLAT:?AssertValid@CObject@@UBEXXZ
	DD	FLAT:?Dump@CObject@@UBEXAAVCDumpContext@@@Z
CONST	ENDS
;	COMDAT ??_7CGdiObject@@6B@
CONST	SEGMENT
??_7CGdiObject@@6B@ DD FLAT:??_R4CGdiObject@@6B@	; CGdiObject::`vftable'
	DD	FLAT:?GetRuntimeClass@CGdiObject@@UBEPAUCRuntimeClass@@XZ
	DD	FLAT:??_ECGdiObject@@UAEPAXI@Z
	DD	FLAT:?Serialize@CObject@@UAEXAAVCArchive@@@Z
	DD	FLAT:?AssertValid@CObject@@UBEXXZ
	DD	FLAT:?Dump@CObject@@UBEXAAVCDumpContext@@@Z
CONST	ENDS
;	COMDAT ??_R0PAVCException@@@8
data$r	SEGMENT
??_R0PAVCException@@@8 DD FLAT:??_7type_info@@6B@	; CException * `RTTI Type Descriptor'
	DD	00H
	DB	'.PAVCException@@', 00H
data$r	ENDS
;	COMDAT xdata$x
xdata$x	SEGMENT
__unwindtable$?PrintCell@CGridCellBase@@UAEHPAVCDC@@HHVCRect@@@Z DD 0ffffffffH
	DD	FLAT:__unwindfunclet$?PrintCell@CGridCellBase@@UAEHPAVCDC@@HHVCRect@@@Z$0
	DD	00H
	DD	FLAT:__unwindfunclet$?PrintCell@CGridCellBase@@UAEHPAVCDC@@HHVCRect@@@Z$2
	DD	01H
	DD	FLAT:__unwindfunclet$?PrintCell@CGridCellBase@@UAEHPAVCDC@@HHVCRect@@@Z$3
__ehfuncinfo$?PrintCell@CGridCellBase@@UAEHPAVCDC@@HHVCRect@@@Z DD 019930522H
	DD	03H
	DD	FLAT:__unwindtable$?PrintCell@CGridCellBase@@UAEHPAVCDC@@HHVCRect@@@Z
	DD	2 DUP(00H)
	DD	2 DUP(00H)
	DD	00H
	DD	01H
xdata$x	ENDS
;	COMDAT xdata$x
xdata$x	SEGMENT
__ehfuncinfo$?GetTextExtent@CGridCellBase@@UAE?AVCSize@@PBDPAVCDC@@@Z DD 019930522H
	DD	07H
	DD	FLAT:__unwindtable$?GetTextExtent@CGridCellBase@@UAE?AVCSize@@PBDPAVCDC@@@Z
	DD	2 DUP(00H)
	DD	2 DUP(00H)
	DD	00H
	DD	01H
__unwindtable$?GetTextExtent@CGridCellBase@@UAE?AVCSize@@PBDPAVCDC@@@Z DD 0ffffffffH
	DD	FLAT:__unwindfunclet$?GetTextExtent@CGridCellBase@@UAE?AVCSize@@PBDPAVCDC@@@Z$0
	DD	00H
	DD	FLAT:__unwindfunclet$?GetTextExtent@CGridCellBase@@UAE?AVCSize@@PBDPAVCDC@@@Z$1
	DD	01H
	DD	FLAT:__unwindfunclet$?GetTextExtent@CGridCellBase@@UAE?AVCSize@@PBDPAVCDC@@@Z$2
	DD	02H
	DD	FLAT:__unwindfunclet$?GetTextExtent@CGridCellBase@@UAE?AVCSize@@PBDPAVCDC@@@Z$3
	DD	01H
	DD	FLAT:__unwindfunclet$?GetTextExtent@CGridCellBase@@UAE?AVCSize@@PBDPAVCDC@@@Z$3
	DD	00H
	DD	FLAT:__unwindfunclet$?GetTextExtent@CGridCellBase@@UAE?AVCSize@@PBDPAVCDC@@@Z$3
	DD	05H
	DD	FLAT:__unwindfunclet$?GetTextExtent@CGridCellBase@@UAE?AVCSize@@PBDPAVCDC@@@Z$4
xdata$x	ENDS
;	COMDAT xdata$x
xdata$x	SEGMENT
__catchsym$?Draw@CGridCellBase@@UAEHPAVCDC@@HHVCRect@@H@Z$12 DD 00H
	DD	FLAT:??_R0PAVCResourceException@@@8
	DD	0ffffff8cH
	DD	FLAT:__catch$?Draw@CGridCellBase@@UAEHPAVCDC@@HHVCRect@@H@Z$0
__tryblocktable$?Draw@CGridCellBase@@UAEHPAVCDC@@HHVCRect@@H@Z DD 01H
	DD	01H
	DD	02H
	DD	01H
	DD	FLAT:__catchsym$?Draw@CGridCellBase@@UAEHPAVCDC@@HHVCRect@@H@Z$12
__ehfuncinfo$?Draw@CGridCellBase@@UAEHPAVCDC@@HHVCRect@@H@Z DD 019930522H
	DD	07H
	DD	FLAT:__unwindtable$?Draw@CGridCellBase@@UAEHPAVCDC@@HHVCRect@@H@Z
	DD	01H
	DD	FLAT:__tryblocktable$?Draw@CGridCellBase@@UAEHPAVCDC@@HHVCRect@@H@Z
	DD	2 DUP(00H)
	DD	00H
	DD	01H
__unwindtable$?Draw@CGridCellBase@@UAEHPAVCDC@@HHVCRect@@H@Z DD 0ffffffffH
	DD	FLAT:__unwindfunclet$?Draw@CGridCellBase@@UAEHPAVCDC@@HHVCRect@@H@Z$4
	DD	00H
	DD	00H
	DD	00H
	DD	00H
	DD	0ffffffffH
	DD	FLAT:___std_terminate
	DD	0ffffffffH
	DD	00H
	DD	0ffffffffH
	DD	00H
	DD	0ffffffffH
	DD	FLAT:___std_terminate
xdata$x	ENDS
;	COMDAT xdata$x
xdata$x	SEGMENT
__catchsym$??1CGdiObject@@UAE@XZ$3 DD 00H
	DD	FLAT:??_R0PAVCException@@@8
	DD	0fffffde4H
	DD	FLAT:__catch$??1CGdiObject@@UAE@XZ$0
__tryblocktable$??1CGdiObject@@UAE@XZ DD 00H
	DD	00H
	DD	02H
	DD	01H
	DD	FLAT:__catchsym$??1CGdiObject@@UAE@XZ$3
__unwindtable$??1CGdiObject@@UAE@XZ DD 0ffffffffH
	DD	00H
	DD	0ffffffffH
	DD	00H
	DD	01H
	DD	FLAT:__unwindfunclet$??1CGdiObject@@UAE@XZ$2
__ehfuncinfo$??1CGdiObject@@UAE@XZ DD 019930522H
	DD	03H
	DD	FLAT:__unwindtable$??1CGdiObject@@UAE@XZ
	DD	01H
	DD	FLAT:__tryblocktable$??1CGdiObject@@UAE@XZ
	DD	2 DUP(00H)
	DD	00H
	DD	05H
xdata$x	ENDS
;	COMDAT xdata$x
xdata$x	SEGMENT
__ehfuncinfo$??1AFX_EXCEPTION_LINK@@QAE@XZ DD 019930522H
	DD	00H
	DD	00H
	DD	2 DUP(00H)
	DD	2 DUP(00H)
	DD	00H
	DD	05H
xdata$x	ENDS
; Function compile flags: /Ogtp
; File C:\Program Files (x86)\Microsoft Visual Studio\2019\Community\VC\Tools\MSVC\14.29.30133\atlmfc\include\afx.inl
;	COMDAT ??_GCGridCellBase@@UAEPAXI@Z
_TEXT	SEGMENT
___flags$ = 8						; size = 4
??_GCGridCellBase@@UAEPAXI@Z PROC			; CGridCellBase::`scalar deleting destructor', COMDAT
; _this$ = ecx
  00000	55		 push	 ebp
  00001	8b ec		 mov	 ebp, esp
  00003	8b 45 08	 mov	 eax, DWORD PTR ___flags$[ebp]
  00006	56		 push	 esi
  00007	8b f1		 mov	 esi, ecx
  00009	c7 06 00 00 00
	00		 mov	 DWORD PTR [esi], OFFSET ??_7CGridCellBase@@6B@
  0000f	a8 01		 test	 al, 1
  00011	74 1f		 je	 SHORT $LN9@scalar
  00013	a8 04		 test	 al, 4
  00015	75 10		 jne	 SHORT $LN3@scalar

; 112  : 	{ ::operator delete(p); }

  00017	56		 push	 esi
  00018	e8 00 00 00 00	 call	 ??3@YAXPAX@Z		; operator delete
  0001d	83 c4 04	 add	 esp, 4
  00020	8b c6		 mov	 eax, esi
  00022	5e		 pop	 esi
  00023	5d		 pop	 ebp
  00024	c2 04 00	 ret	 4
$LN3@scalar:
  00027	6a 08		 push	 8
  00029	56		 push	 esi
  0002a	e8 00 00 00 00	 call	 ?__global_delete@@YAXPAXI@Z ; __global_delete
  0002f	83 c4 08	 add	 esp, 8
$LN9@scalar:
  00032	8b c6		 mov	 eax, esi
  00034	5e		 pop	 esi
  00035	5d		 pop	 ebp
  00036	c2 04 00	 ret	 4
??_GCGridCellBase@@UAEPAXI@Z ENDP			; CGridCellBase::`scalar deleting destructor'
_TEXT	ENDS
; Function compile flags: /Ogtp
; File D:\git\src\IBK\IBK_DRFN\ProjSrc\SrcChartEx\ChartAddIn\ChartPatternAddIn\Control_Grid\GridCellBase.cpp
; File C:\Program Files (x86)\Microsoft Visual Studio\2019\Community\VC\Tools\MSVC\14.29.30133\atlmfc\include\afxwin1.inl
; File C:\Program Files (x86)\Microsoft Visual Studio\2019\Community\VC\Tools\MSVC\14.29.30133\atlmfc\include\afxwin2.inl
; File D:\git\src\IBK\IBK_DRFN\ProjSrc\SrcChartEx\ChartAddIn\ChartPatternAddIn\Control_Grid\GridCellBase.cpp
;	COMDAT ?OnSetCursor@CGridCellBase@@MAEHXZ
_TEXT	SEGMENT
?OnSetCursor@CGridCellBase@@MAEHXZ PROC			; CGridCellBase::OnSetCursor, COMDAT
; _this$ = ecx
; File C:\Program Files (x86)\Microsoft Visual Studio\2019\Community\VC\Tools\MSVC\14.29.30133\atlmfc\include\afxwin1.inl

; 19   : 	{ return afxCurrentWinApp; }

  00000	e8 00 00 00 00	 call	 ?AfxGetModuleState@@YGPAVAFX_MODULE_STATE@@XZ ; AfxGetModuleState
; File C:\Program Files (x86)\Microsoft Visual Studio\2019\Community\VC\Tools\MSVC\14.29.30133\atlmfc\include\afxwin2.inl

; 1047 : 	{ return ::LoadCursor(NULL, lpszCursorName); }

  00005	68 00 7f 00 00	 push	 32512			; 00007f00H
  0000a	6a 00		 push	 0
  0000c	ff 15 00 00 00
	00		 call	 DWORD PTR __imp__LoadCursorA@8
; File D:\git\src\IBK\IBK_DRFN\ProjSrc\SrcChartEx\ChartAddIn\ChartPatternAddIn\Control_Grid\GridCellBase.cpp

; 756  :     SetCursor(AfxGetApp()->LoadStandardCursor(IDC_ARROW));

  00012	50		 push	 eax
  00013	ff 15 00 00 00
	00		 call	 DWORD PTR __imp__SetCursor@4

; 757  : #endif
; 758  :     return TRUE;

  00019	b8 01 00 00 00	 mov	 eax, 1

; 759  : }

  0001e	c3		 ret	 0
?OnSetCursor@CGridCellBase@@MAEHXZ ENDP			; CGridCellBase::OnSetCursor
_TEXT	ENDS
; Function compile flags: /Ogtp
; File D:\git\src\IBK\IBK_DRFN\ProjSrc\SrcChartEx\ChartAddIn\ChartPatternAddIn\Control_Grid\GridCellBase.cpp
;	COMDAT ?OnDblClick@CGridCellBase@@MAEXVCPoint@@@Z
_TEXT	SEGMENT
_PointCellRelative$ = 8					; size = 8
?OnDblClick@CGridCellBase@@MAEXVCPoint@@@Z PROC		; CGridCellBase::OnDblClick, COMDAT
; _this$ = ecx

; 748  :     UNUSED_ALWAYS(PointCellRelative);
; 749  :     TRACE2("Mouse double-clicked in cell at x=%i y=%i\n", PointCellRelative.x, PointCellRelative.y);
; 750  : }

  00000	c2 08 00	 ret	 8
?OnDblClick@CGridCellBase@@MAEXVCPoint@@@Z ENDP		; CGridCellBase::OnDblClick
_TEXT	ENDS
; Function compile flags: /Ogtp
; File D:\git\src\IBK\IBK_DRFN\ProjSrc\SrcChartEx\ChartAddIn\ChartPatternAddIn\Control_Grid\GridCellBase.cpp
;	COMDAT ?OnRClick@CGridCellBase@@MAEXVCPoint@@@Z
_TEXT	SEGMENT
_PointCellRelative$ = 8					; size = 8
?OnRClick@CGridCellBase@@MAEXVCPoint@@@Z PROC		; CGridCellBase::OnRClick, COMDAT
; _this$ = ecx

; 742  :     UNUSED_ALWAYS(PointCellRelative);
; 743  :     TRACE2("Mouse right-clicked in cell at x=%i y=%i\n", PointCellRelative.x, PointCellRelative.y);
; 744  : }

  00000	c2 08 00	 ret	 8
?OnRClick@CGridCellBase@@MAEXVCPoint@@@Z ENDP		; CGridCellBase::OnRClick
_TEXT	ENDS
; Function compile flags: /Ogtp
; File D:\git\src\IBK\IBK_DRFN\ProjSrc\SrcChartEx\ChartAddIn\ChartPatternAddIn\Control_Grid\GridCellBase.cpp
;	COMDAT ?OnClickDown@CGridCellBase@@MAEXVCPoint@@@Z
_TEXT	SEGMENT
_PointCellRelative$ = 8					; size = 8
?OnClickDown@CGridCellBase@@MAEXVCPoint@@@Z PROC	; CGridCellBase::OnClickDown, COMDAT
; _this$ = ecx

; 736  :     UNUSED_ALWAYS(PointCellRelative);
; 737  :     TRACE2("Mouse Left btn down in cell at x=%i y=%i\n", PointCellRelative.x, PointCellRelative.y);
; 738  : }

  00000	c2 08 00	 ret	 8
?OnClickDown@CGridCellBase@@MAEXVCPoint@@@Z ENDP	; CGridCellBase::OnClickDown
_TEXT	ENDS
; Function compile flags: /Ogtp
; File D:\git\src\IBK\IBK_DRFN\ProjSrc\SrcChartEx\ChartAddIn\ChartPatternAddIn\Control_Grid\GridCellBase.cpp
;	COMDAT ?OnClick@CGridCellBase@@MAEXVCPoint@@@Z
_TEXT	SEGMENT
_PointCellRelative$ = 8					; size = 8
?OnClick@CGridCellBase@@MAEXVCPoint@@@Z PROC		; CGridCellBase::OnClick, COMDAT
; _this$ = ecx

; 730  :     UNUSED_ALWAYS(PointCellRelative);
; 731  :     TRACE2("Mouse Left btn up in cell at x=%i y=%i\n", PointCellRelative.x, PointCellRelative.y);
; 732  : }

  00000	c2 08 00	 ret	 8
?OnClick@CGridCellBase@@MAEXVCPoint@@@Z ENDP		; CGridCellBase::OnClick
_TEXT	ENDS
; Function compile flags: /Ogtp
; File D:\git\src\IBK\IBK_DRFN\ProjSrc\SrcChartEx\ChartAddIn\ChartPatternAddIn\Control_Grid\GridCellBase.cpp
;	COMDAT ?OnMouseLeave@CGridCellBase@@MAEXXZ
_TEXT	SEGMENT
?OnMouseLeave@CGridCellBase@@MAEXXZ PROC		; CGridCellBase::OnMouseLeave, COMDAT
; _this$ = ecx

; 725  :     TRACE0("Mouse left cell\n");
; 726  : }

  00000	c2 00 00	 ret	 0
?OnMouseLeave@CGridCellBase@@MAEXXZ ENDP		; CGridCellBase::OnMouseLeave
_TEXT	ENDS
; Function compile flags: /Ogtp
; File D:\git\src\IBK\IBK_DRFN\ProjSrc\SrcChartEx\ChartAddIn\ChartPatternAddIn\Control_Grid\GridCellBase.cpp
;	COMDAT ?OnMouseOver@CGridCellBase@@MAEXXZ
_TEXT	SEGMENT
?OnMouseOver@CGridCellBase@@MAEXXZ PROC			; CGridCellBase::OnMouseOver, COMDAT
; _this$ = ecx

; 719  :     //TRACE0("Mouse over cell\n");
; 720  : }

  00000	c2 00 00	 ret	 0
?OnMouseOver@CGridCellBase@@MAEXXZ ENDP			; CGridCellBase::OnMouseOver
_TEXT	ENDS
; Function compile flags: /Ogtp
; File D:\git\src\IBK\IBK_DRFN\ProjSrc\SrcChartEx\ChartAddIn\ChartPatternAddIn\Control_Grid\GridCellBase.cpp
;	COMDAT ?OnMouseEnter@CGridCellBase@@MAEXXZ
_TEXT	SEGMENT
?OnMouseEnter@CGridCellBase@@MAEXXZ PROC		; CGridCellBase::OnMouseEnter, COMDAT
; _this$ = ecx

; 714  :     TRACE0("Mouse entered cell\n");
; 715  : }

  00000	c2 00 00	 ret	 0
?OnMouseEnter@CGridCellBase@@MAEXXZ ENDP		; CGridCellBase::OnMouseEnter
_TEXT	ENDS
; Function compile flags: /Ogtp
; File D:\git\src\IBK\IBK_DRFN\ProjSrc\SrcChartEx\ChartAddIn\ChartPatternAddIn\Control_Grid\GridCellBase.cpp
;	COMDAT ?OnEndEdit@CGridCellBase@@MAEXXZ
_TEXT	SEGMENT
?OnEndEdit@CGridCellBase@@MAEXXZ PROC			; CGridCellBase::OnEndEdit, COMDAT
; _this$ = ecx

; 766  : 	ASSERT( FALSE); 
; 767  : }

  00000	c2 00 00	 ret	 0
?OnEndEdit@CGridCellBase@@MAEXXZ ENDP			; CGridCellBase::OnEndEdit
_TEXT	ENDS
; Function compile flags: /Ogtp
; File D:\git\src\IBK\IBK_DRFN\ProjSrc\SrcChartEx\ChartAddIn\ChartPatternAddIn\Control_Grid\GridCellBase.cpp
;	COMDAT ?SendMessageToParent@CGridCellBase@@QAEJHHH@Z
_TEXT	SEGMENT
_nRow$ = 8						; size = 4
_nCol$ = 12						; size = 4
_nMessage$ = 16						; size = 4
?SendMessageToParent@CGridCellBase@@QAEJHHH@Z PROC	; CGridCellBase::SendMessageToParent, COMDAT
; _this$ = ecx

; 1064 : {

  00000	55		 push	 ebp
  00001	8b ec		 mov	 ebp, esp

; 1065 :     CGridCtrl* pGrid = GetGrid();

  00003	8b 01		 mov	 eax, DWORD PTR [ecx]
  00005	ff 50 68	 call	 DWORD PTR [eax+104]

; 1066 :     if( pGrid)

  00008	85 c0		 test	 eax, eax
  0000a	74 08		 je	 SHORT $LN2@SendMessag

; 1067 :         return pGrid->SendMessageToParent(nRow, nCol, nMessage);

  0000c	8b c8		 mov	 ecx, eax

; 1070 : }

  0000e	5d		 pop	 ebp

; 1067 :         return pGrid->SendMessageToParent(nRow, nCol, nMessage);

  0000f	e9 00 00 00 00	 jmp	 ?SendMessageToParent@CGridCtrl@@IBEJHHH@Z ; CGridCtrl::SendMessageToParent
$LN2@SendMessag:

; 1068 :     else
; 1069 :         return 0;

  00014	33 c0		 xor	 eax, eax

; 1070 : }

  00016	5d		 pop	 ebp
  00017	c2 0c 00	 ret	 12			; 0000000cH
?SendMessageToParent@CGridCellBase@@QAEJHHH@Z ENDP	; CGridCellBase::SendMessageToParent
_TEXT	ENDS
; Function compile flags: /Ogtp
; File D:\git\src\IBK\IBK_DRFN\ProjSrc\SrcChartEx\ChartAddIn\ChartPatternAddIn\Control_Grid\GridCellBase.cpp
; File C:\Program Files (x86)\Microsoft Visual Studio\2019\Community\VC\Tools\MSVC\14.29.30133\atlmfc\include\atltypes.h
; File D:\git\src\IBK\IBK_DRFN\ProjSrc\SrcChartEx\ChartAddIn\ChartPatternAddIn\Control_Grid\GridCellBase.cpp
; File C:\Program Files (x86)\Microsoft Visual Studio\2019\Community\VC\Tools\MSVC\14.29.30133\atlmfc\include\atltypes.h
; File D:\git\src\IBK\IBK_DRFN\ProjSrc\SrcChartEx\ChartAddIn\ChartPatternAddIn\Control_Grid\GridCellBase.cpp
; File C:\Program Files (x86)\Microsoft Visual Studio\2019\Community\VC\Tools\MSVC\14.29.30133\atlmfc\include\afxwin1.inl
; File D:\git\src\IBK\IBK_DRFN\ProjSrc\SrcChartEx\ChartAddIn\ChartPatternAddIn\Control_Grid\GridCellBase.cpp
; File C:\Program Files (x86)\Microsoft Visual Studio\2019\Community\VC\Tools\MSVC\14.29.30133\atlmfc\include\afxwin1.inl
; File D:\git\src\IBK\IBK_DRFN\ProjSrc\SrcChartEx\ChartAddIn\ChartPatternAddIn\Control_Grid\GridCellBase.cpp
; File C:\Program Files (x86)\Microsoft Visual Studio\2019\Community\VC\Tools\MSVC\14.29.30133\atlmfc\include\afxwin1.inl
; File D:\git\src\IBK\IBK_DRFN\ProjSrc\SrcChartEx\ChartAddIn\ChartPatternAddIn\Control_Grid\GridCellBase.cpp
; File C:\Program Files (x86)\Microsoft Visual Studio\2019\Community\VC\Tools\MSVC\14.29.30133\atlmfc\include\afxwin1.inl
; File D:\git\src\IBK\IBK_DRFN\ProjSrc\SrcChartEx\ChartAddIn\ChartPatternAddIn\Control_Grid\GridCellBase.cpp
; File C:\Program Files (x86)\Microsoft Visual Studio\2019\Community\VC\Tools\MSVC\14.29.30133\atlmfc\include\afxwin1.inl
; File D:\git\src\IBK\IBK_DRFN\ProjSrc\SrcChartEx\ChartAddIn\ChartPatternAddIn\Control_Grid\GridCellBase.cpp
; File C:\Program Files (x86)\Microsoft Visual Studio\2019\Community\VC\Tools\MSVC\14.29.30133\atlmfc\include\afxwin1.inl
; File D:\git\src\IBK\IBK_DRFN\ProjSrc\SrcChartEx\ChartAddIn\ChartPatternAddIn\Control_Grid\GridCellBase.cpp
; File C:\Program Files (x86)\Microsoft Visual Studio\2019\Community\VC\Tools\MSVC\14.29.30133\atlmfc\include\afxwin1.inl
; File D:\git\src\IBK\IBK_DRFN\ProjSrc\SrcChartEx\ChartAddIn\ChartPatternAddIn\Control_Grid\GridCellBase.cpp
; File C:\Program Files (x86)\Microsoft Visual Studio\2019\Community\VC\Tools\MSVC\14.29.30133\atlmfc\include\afxwin1.inl
; File D:\git\src\IBK\IBK_DRFN\ProjSrc\SrcChartEx\ChartAddIn\ChartPatternAddIn\Control_Grid\GridCellBase.cpp
; File C:\Program Files (x86)\Microsoft Visual Studio\2019\Community\VC\Tools\MSVC\14.29.30133\atlmfc\include\atltypes.h
; File D:\git\src\IBK\IBK_DRFN\ProjSrc\SrcChartEx\ChartAddIn\ChartPatternAddIn\Control_Grid\GridCellBase.cpp
; File C:\Program Files (x86)\Microsoft Visual Studio\2019\Community\VC\Tools\MSVC\14.29.30133\atlmfc\include\afxwin1.inl
; File D:\git\src\IBK\IBK_DRFN\ProjSrc\SrcChartEx\ChartAddIn\ChartPatternAddIn\Control_Grid\GridCellBase.cpp
; File C:\Program Files (x86)\Microsoft Visual Studio\2019\Community\VC\Tools\MSVC\14.29.30133\atlmfc\include\afxwin1.inl
; File D:\git\src\IBK\IBK_DRFN\ProjSrc\SrcChartEx\ChartAddIn\ChartPatternAddIn\Control_Grid\GridCellBase.cpp
; File C:\Program Files (x86)\Microsoft Visual Studio\2019\Community\VC\Tools\MSVC\14.29.30133\atlmfc\include\atltypes.h
; File D:\git\src\IBK\IBK_DRFN\ProjSrc\SrcChartEx\ChartAddIn\ChartPatternAddIn\Control_Grid\GridCellBase.cpp
; File C:\Program Files (x86)\Microsoft Visual Studio\2019\Community\VC\Tools\MSVC\14.29.30133\atlmfc\include\afxwin1.inl
; File D:\git\src\IBK\IBK_DRFN\ProjSrc\SrcChartEx\ChartAddIn\ChartPatternAddIn\Control_Grid\GridCellBase.cpp
; File C:\Program Files (x86)\Microsoft Visual Studio\2019\Community\VC\Tools\MSVC\14.29.30133\atlmfc\include\afxwin1.inl
; File D:\git\src\IBK\IBK_DRFN\ProjSrc\SrcChartEx\ChartAddIn\ChartPatternAddIn\Control_Grid\GridCellBase.cpp
; File C:\Program Files (x86)\Microsoft Visual Studio\2019\Community\VC\Tools\MSVC\14.29.30133\atlmfc\include\afxwin1.inl
; File D:\git\src\IBK\IBK_DRFN\ProjSrc\SrcChartEx\ChartAddIn\ChartPatternAddIn\Control_Grid\GridCellBase.cpp
; File C:\Program Files (x86)\Microsoft Visual Studio\2019\Community\VC\Tools\MSVC\14.29.30133\atlmfc\include\afxwin1.inl
; File D:\git\src\IBK\IBK_DRFN\ProjSrc\SrcChartEx\ChartAddIn\ChartPatternAddIn\Control_Grid\GridCellBase.cpp
;	COMDAT ?PrintCell@CGridCellBase@@UAEHPAVCDC@@HHVCRect@@@Z
_TEXT	SEGMENT
$T2 = -200						; size = 8
$T3 = -200						; size = 8
_brush$4 = -192						; size = 8
_nSavedDC$1$ = -184					; size = 4
_pDC$GSCopy$1$ = -180					; size = 4
_this$GSCopy$1$ = -176					; size = 4
_pGrid$1$ = -172					; size = 4
_lightpen$5 = -168					; size = 8
_crBG$1$ = -164						; size = 4
_darkpen$6 = -160					; size = 8
_crFG$1$ = -156						; size = 4
_pDefaultCell$1$ = -156					; size = 4
_Item$ = -152						; size = 104
_Info$7 = -48						; size = 32
__$ArrayPad$ = -16					; size = 4
__$EHRec$ = -12						; size = 12
_pDC$ = 8						; size = 4
___formal$ = 12						; size = 4
___formal$ = 16						; size = 4
_rect$ = 20						; size = 16
?PrintCell@CGridCellBase@@UAEHPAVCDC@@HHVCRect@@@Z PROC	; CGridCellBase::PrintCell, COMDAT
; _this$ = ecx

; 904  : {

  00000	55		 push	 ebp
  00001	8b ec		 mov	 ebp, esp
  00003	6a ff		 push	 -1
  00005	68 00 00 00 00	 push	 __ehhandler$?PrintCell@CGridCellBase@@UAEHPAVCDC@@HHVCRect@@@Z
  0000a	64 a1 00 00 00
	00		 mov	 eax, DWORD PTR fs:0
  00010	50		 push	 eax
  00011	81 ec bc 00 00
	00		 sub	 esp, 188		; 000000bcH
  00017	a1 00 00 00 00	 mov	 eax, DWORD PTR ___security_cookie
  0001c	33 c5		 xor	 eax, ebp
  0001e	89 45 f0	 mov	 DWORD PTR __$ArrayPad$[ebp], eax
  00021	53		 push	 ebx
  00022	56		 push	 esi
  00023	57		 push	 edi
  00024	50		 push	 eax
  00025	8d 45 f4	 lea	 eax, DWORD PTR __$EHRec$[ebp]
  00028	64 a3 00 00 00
	00		 mov	 DWORD PTR fs:0, eax
  0002e	8b f9		 mov	 edi, ecx
  00030	89 bd 50 ff ff
	ff		 mov	 DWORD PTR _this$GSCopy$1$[ebp], edi
  00036	8b 5d 08	 mov	 ebx, DWORD PTR _pDC$[ebp]
  00039	8d 4d cc	 lea	 ecx, DWORD PTR _Item$[ebp+100]
  0003c	89 9d 4c ff ff
	ff		 mov	 DWORD PTR _pDC$GSCopy$1$[ebp], ebx
  00042	ff 15 00 00 00
	00		 call	 DWORD PTR __imp_??0?$CStringT@DV?$StrTraitMFC_DLL@DV?$ChTraitsCRT@D@ATL@@@@@ATL@@QAE@XZ

; 905  : #if defined(_WIN32_WCE_NO_PRINTING) || defined(GRIDCONTROL_NO_PRINTING)
; 906  :     return FALSE;
; 907  : #else
; 908  :     COLORREF crFG, crBG;
; 909  :     GV_ITEM Item;
; 910  : 
; 911  :     CGridCtrl* pGrid = GetGrid();

  00048	8b 07		 mov	 eax, DWORD PTR [edi]
  0004a	8b cf		 mov	 ecx, edi
  0004c	c7 45 fc 00 00
	00 00		 mov	 DWORD PTR __$EHRec$[ebp+8], 0
  00053	ff 50 68	 call	 DWORD PTR [eax+104]
  00056	8b f0		 mov	 esi, eax
  00058	89 b5 54 ff ff
	ff		 mov	 DWORD PTR _pGrid$1$[ebp], esi

; 912  :     if (!pGrid || !pDC)

  0005e	85 f6		 test	 esi, esi
  00060	0f 84 3e 04 00
	00		 je	 $LN5@PrintCell
  00066	85 db		 test	 ebx, ebx
  00068	0f 84 36 04 00
	00		 je	 $LN5@PrintCell
; File C:\Program Files (x86)\Microsoft Visual Studio\2019\Community\VC\Tools\MSVC\14.29.30133\atlmfc\include\atltypes.h

; 576  : 	return right - left;

  0006e	8b 4d 1c	 mov	 ecx, DWORD PTR _rect$[ebp+8]
  00071	2b 4d 14	 sub	 ecx, DWORD PTR _rect$[ebp]
; File D:\git\src\IBK\IBK_DRFN\ProjSrc\SrcChartEx\ChartAddIn\ChartPatternAddIn\Control_Grid\GridCellBase.cpp

; 916  :         || rect.Height() <= 0)  // prevents imagelist item from drawing even

  00074	85 c9		 test	 ecx, ecx
  00076	0f 8e 28 04 00
	00		 jle	 $LN5@PrintCell
; File C:\Program Files (x86)\Microsoft Visual Studio\2019\Community\VC\Tools\MSVC\14.29.30133\atlmfc\include\atltypes.h

; 581  : 	return bottom - top;

  0007c	8b 45 20	 mov	 eax, DWORD PTR _rect$[ebp+12]
  0007f	2b 45 18	 sub	 eax, DWORD PTR _rect$[ebp+4]
; File D:\git\src\IBK\IBK_DRFN\ProjSrc\SrcChartEx\ChartAddIn\ChartPatternAddIn\Control_Grid\GridCellBase.cpp

; 916  :         || rect.Height() <= 0)  // prevents imagelist item from drawing even

  00082	85 c0		 test	 eax, eax
  00084	0f 8e 1a 04 00
	00		 jle	 $LN5@PrintCell

; 917  :         return FALSE;           //  though cell is hidden
; 918  : 
; 919  :     int nSavedDC = pDC->SaveDC();

  0008a	8b 03		 mov	 eax, DWORD PTR [ebx]
  0008c	8b cb		 mov	 ecx, ebx
  0008e	ff 50 24	 call	 DWORD PTR [eax+36]

; 920  : 
; 921  :     pDC->SetBkMode(TRANSPARENT);

  00091	6a 01		 push	 1
  00093	8b cb		 mov	 ecx, ebx
  00095	89 85 48 ff ff
	ff		 mov	 DWORD PTR _nSavedDC$1$[ebp], eax
  0009b	e8 00 00 00 00	 call	 ?SetBkMode@CDC@@QAEHH@Z	; CDC::SetBkMode

; 922  : 
; 923  :     if(pGrid->GetShadedPrintOut())

  000a0	83 be e0 03 00
	00 00		 cmp	 DWORD PTR [esi+992], 0
  000a7	0f 84 c1 01 00
	00		 je	 $LN6@PrintCell

; 924  :     {
; 925  :         // Get the default cell implementation for this kind of cell. We use it if this cell
; 926  :         // has anything marked as "default"
; 927  :         CGridDefaultCell *pDefaultCell = (CGridDefaultCell*) GetDefaultCell();

  000ad	8b 17		 mov	 edx, DWORD PTR [edi]
  000af	8b cf		 mov	 ecx, edi
  000b1	ff 52 74	 call	 DWORD PTR [edx+116]
  000b4	8b f0		 mov	 esi, eax
  000b6	89 b5 64 ff ff
	ff		 mov	 DWORD PTR _pDefaultCell$1$[ebp], esi

; 928  :         if (!pDefaultCell)

  000bc	85 f6		 test	 esi, esi
  000be	0f 84 e0 03 00
	00		 je	 $LN5@PrintCell

; 929  :             return FALSE;
; 930  : 
; 931  :         // Use custom color if it doesn't match the default color and the
; 932  :         // default grid background color.  If not, leave it alone.
; 933  :         if(IsFixed())

  000c4	8b 17		 mov	 edx, DWORD PTR [edi]
  000c6	8b cf		 mov	 ecx, edi
  000c8	ff 92 84 00 00
	00		 call	 DWORD PTR [edx+132]
  000ce	8b 0f		 mov	 ecx, DWORD PTR [edi]
  000d0	8b 51 5c	 mov	 edx, DWORD PTR [ecx+92]
  000d3	8b cf		 mov	 ecx, edi
  000d5	85 c0		 test	 eax, eax
  000d7	74 27		 je	 SHORT $LN9@PrintCell

; 934  :             crBG = (GetBackClr() != CLR_DEFAULT) ? GetBackClr() : pDefaultCell->GetBackClr();

  000d9	ff d2		 call	 edx
  000db	3d 00 00 00 ff	 cmp	 eax, -16777216		; ff000000H
  000e0	74 0f		 je	 SHORT $LN20@PrintCell
  000e2	8b 07		 mov	 eax, DWORD PTR [edi]
  000e4	8b cf		 mov	 ecx, edi
  000e6	ff 50 5c	 call	 DWORD PTR [eax+92]
  000e9	89 85 5c ff ff
	ff		 mov	 DWORD PTR _crBG$1$[ebp], eax
  000ef	eb 45		 jmp	 SHORT $LN23@PrintCell
$LN20@PrintCell:
  000f1	8b 06		 mov	 eax, DWORD PTR [esi]
  000f3	8b ce		 mov	 ecx, esi
  000f5	ff 50 5c	 call	 DWORD PTR [eax+92]
  000f8	89 85 5c ff ff
	ff		 mov	 DWORD PTR _crBG$1$[ebp], eax
  000fe	eb 36		 jmp	 SHORT $LN23@PrintCell
$LN9@PrintCell:

; 935  :         else
; 936  :             crBG = (GetBackClr() != CLR_DEFAULT && GetBackClr() != pDefaultCell->GetBackClr()) ?

  00100	ff d2		 call	 edx
  00102	3d 00 00 00 ff	 cmp	 eax, -16777216		; ff000000H
  00107	74 23		 je	 SHORT $LN22@PrintCell
  00109	8b 06		 mov	 eax, DWORD PTR [esi]
  0010b	8b ce		 mov	 ecx, esi
  0010d	ff 50 5c	 call	 DWORD PTR [eax+92]
  00110	8b 17		 mov	 edx, DWORD PTR [edi]
  00112	8b cf		 mov	 ecx, edi
  00114	8b f0		 mov	 esi, eax
  00116	ff 52 5c	 call	 DWORD PTR [edx+92]
  00119	3b c6		 cmp	 eax, esi
  0011b	74 0f		 je	 SHORT $LN22@PrintCell
  0011d	8b 07		 mov	 eax, DWORD PTR [edi]
  0011f	8b cf		 mov	 ecx, edi
  00121	ff 50 5c	 call	 DWORD PTR [eax+92]
  00124	89 85 5c ff ff
	ff		 mov	 DWORD PTR _crBG$1$[ebp], eax
  0012a	eb 0a		 jmp	 SHORT $LN23@PrintCell
$LN22@PrintCell:
  0012c	c7 85 5c ff ff
	ff 00 00 00 ff	 mov	 DWORD PTR _crBG$1$[ebp], -16777216 ; ff000000H
$LN23@PrintCell:

; 937  :                 GetBackClr() : CLR_DEFAULT;
; 938  : 
; 939  :         // Use custom color if the background is different or if it doesn't
; 940  :         // match the default color and the default grid text color.  If not,
; 941  :         // use black to guarantee the text is visible.
; 942  :         if(IsFixed())

  00136	8b 07		 mov	 eax, DWORD PTR [edi]
  00138	8b cf		 mov	 ecx, edi
  0013a	ff 90 84 00 00
	00		 call	 DWORD PTR [eax+132]
  00140	8b 0f		 mov	 ecx, DWORD PTR [edi]
  00142	8b 51 5c	 mov	 edx, DWORD PTR [ecx+92]
  00145	8b cf		 mov	 ecx, edi
  00147	85 c0		 test	 eax, eax
  00149	74 13		 je	 SHORT $LN11@PrintCell

; 943  :             crFG = (GetBackClr() != CLR_DEFAULT) ? GetTextClr() : pDefaultCell->GetTextClr();

  0014b	ff d2		 call	 edx
  0014d	3d 00 00 00 ff	 cmp	 eax, -16777216		; ff000000H
  00152	75 3d		 jne	 SHORT $LN27@PrintCell
  00154	8b 8d 64 ff ff
	ff		 mov	 ecx, DWORD PTR _pDefaultCell$1$[ebp]
  0015a	8b 01		 mov	 eax, DWORD PTR [ecx]
  0015c	eb 37		 jmp	 SHORT $LN90@PrintCell
$LN11@PrintCell:

; 944  :         else
; 945  :             crFG = (GetBackClr() != CLR_DEFAULT ||

  0015e	ff d2		 call	 edx
  00160	3d 00 00 00 ff	 cmp	 eax, -16777216		; ff000000H
  00165	75 2a		 jne	 SHORT $LN27@PrintCell
  00167	8b 07		 mov	 eax, DWORD PTR [edi]
  00169	8b cf		 mov	 ecx, edi
  0016b	ff 50 58	 call	 DWORD PTR [eax+88]
  0016e	3d 00 00 00 ff	 cmp	 eax, -16777216		; ff000000H
  00173	74 18		 je	 SHORT $LN26@PrintCell
  00175	8b 8d 64 ff ff
	ff		 mov	 ecx, DWORD PTR _pDefaultCell$1$[ebp]
  0017b	8b 01		 mov	 eax, DWORD PTR [ecx]
  0017d	ff 50 58	 call	 DWORD PTR [eax+88]
  00180	8b 17		 mov	 edx, DWORD PTR [edi]
  00182	8b cf		 mov	 ecx, edi
  00184	8b f0		 mov	 esi, eax
  00186	ff 52 58	 call	 DWORD PTR [edx+88]
  00189	3b c6		 cmp	 eax, esi
  0018b	75 04		 jne	 SHORT $LN27@PrintCell
$LN26@PrintCell:
  0018d	33 f6		 xor	 esi, esi
  0018f	eb 09		 jmp	 SHORT $LN91@PrintCell
$LN27@PrintCell:
; File C:\Program Files (x86)\Microsoft Visual Studio\2019\Community\VC\Tools\MSVC\14.29.30133\atlmfc\include\afxwin1.inl

; 334  : 	{ ASSERT(m_hAttribDC != NULL); return ::GetDeviceCaps(m_hAttribDC, nIndex); }

  00191	8b 07		 mov	 eax, DWORD PTR [edi]
  00193	8b cf		 mov	 ecx, edi
$LN90@PrintCell:
  00195	ff 50 58	 call	 DWORD PTR [eax+88]
  00198	8b f0		 mov	 esi, eax
$LN91@PrintCell:
  0019a	6a 18		 push	 24			; 00000018H
  0019c	ff 73 08	 push	 DWORD PTR [ebx+8]
  0019f	89 b5 64 ff ff
	ff		 mov	 DWORD PTR _crFG$1$[ebp], esi
  001a5	ff 15 00 00 00
	00		 call	 DWORD PTR __imp__GetDeviceCaps@8
; File D:\git\src\IBK\IBK_DRFN\ProjSrc\SrcChartEx\ChartAddIn\ChartPatternAddIn\Control_Grid\GridCellBase.cpp

; 954  :         if(pDC->GetDeviceCaps(NUMCOLORS) == 2 && crBG == CLR_DEFAULT)

  001ab	83 f8 02	 cmp	 eax, 2
  001ae	8b 85 5c ff ff
	ff		 mov	 eax, DWORD PTR _crBG$1$[ebp]
  001b4	75 6f		 jne	 SHORT $LN13@PrintCell
  001b6	3d 00 00 00 ff	 cmp	 eax, -16777216		; ff000000H
  001bb	75 6f		 jne	 SHORT $LN88@PrintCell

; 955  :             crFG = RGB(GetRValue(crFG) * 0.30, GetGValue(crFG) * 0.59,

  001bd	8b d6		 mov	 edx, esi
  001bf	8b c2		 mov	 eax, edx
  001c1	c1 e8 10	 shr	 eax, 16			; 00000010H
  001c4	0f b6 c0	 movzx	 eax, al
  001c7	66 0f 6e c0	 movd	 xmm0, eax
  001cb	f3 0f e6 c0	 cvtdq2pd xmm0, xmm0
  001cf	f2 0f 59 05 00
	00 00 00	 mulsd	 xmm0, QWORD PTR __real@3fbc28f5c28f5c29
  001d7	f2 0f 2c c0	 cvttsd2si eax, xmm0
  001db	0f b6 f0	 movzx	 esi, al
  001de	66 8b c2	 mov	 ax, dx
  001e1	66 c1 e8 08	 shr	 ax, 8
  001e5	0f b7 c0	 movzx	 eax, ax
  001e8	c1 e6 08	 shl	 esi, 8
  001eb	66 0f 6e c0	 movd	 xmm0, eax
  001ef	f3 0f e6 c0	 cvtdq2pd xmm0, xmm0
  001f3	f2 0f 59 05 00
	00 00 00	 mulsd	 xmm0, QWORD PTR __real@3fe2e147ae147ae1
  001fb	f2 0f 2c c0	 cvttsd2si eax, xmm0
  001ff	0f b6 c0	 movzx	 eax, al
  00202	0b f0		 or	 esi, eax
  00204	0f b6 c2	 movzx	 eax, dl
  00207	c1 e6 08	 shl	 esi, 8
  0020a	66 0f 6e c0	 movd	 xmm0, eax
  0020e	f3 0f e6 c0	 cvtdq2pd xmm0, xmm0
  00212	f2 0f 59 05 00
	00 00 00	 mulsd	 xmm0, QWORD PTR __real@3fd3333333333333
  0021a	f2 0f 2c c0	 cvttsd2si eax, xmm0
  0021e	0f b6 c0	 movzx	 eax, al
  00221	0b f0		 or	 esi, eax

; 956  :                 GetBValue(crFG) * 0.11);
; 957  : 
; 958  :         // Only erase the background if the color is not the default
; 959  :         // grid background color.
; 960  :         if(crBG != CLR_DEFAULT)

  00223	eb 4b		 jmp	 SHORT $LN7@PrintCell
$LN13@PrintCell:
  00225	3d 00 00 00 ff	 cmp	 eax, -16777216		; ff000000H
  0022a	74 44		 je	 SHORT $LN7@PrintCell
$LN88@PrintCell:

; 961  :         {
; 962  :             CBrush brush(crBG);

  0022c	50		 push	 eax
  0022d	8d 8d 40 ff ff
	ff		 lea	 ecx, DWORD PTR _brush$4[ebp]
  00233	e8 00 00 00 00	 call	 ??0CBrush@@QAE@K@Z	; CBrush::CBrush
; File C:\Program Files (x86)\Microsoft Visual Studio\2019\Community\VC\Tools\MSVC\14.29.30133\atlmfc\include\afxwin1.inl

; 476  : 	{ ASSERT(m_hDC != NULL); ::FillRect(m_hDC, lpRect, (HBRUSH)pBrush->GetSafeHandle()); }

  00238	ff b5 44 ff ff
	ff		 push	 DWORD PTR _brush$4[ebp+4]
; File D:\git\src\IBK\IBK_DRFN\ProjSrc\SrcChartEx\ChartAddIn\ChartPatternAddIn\Control_Grid\GridCellBase.cpp

; 963  :             rect.right++; rect.bottom++;

  0023e	ff 45 1c	 inc	 DWORD PTR _rect$[ebp+8]
; File C:\Program Files (x86)\Microsoft Visual Studio\2019\Community\VC\Tools\MSVC\14.29.30133\atlmfc\include\afxwin1.inl

; 476  : 	{ ASSERT(m_hDC != NULL); ::FillRect(m_hDC, lpRect, (HBRUSH)pBrush->GetSafeHandle()); }

  00241	8d 45 14	 lea	 eax, DWORD PTR _rect$[ebp]
; File D:\git\src\IBK\IBK_DRFN\ProjSrc\SrcChartEx\ChartAddIn\ChartPatternAddIn\Control_Grid\GridCellBase.cpp

; 963  :             rect.right++; rect.bottom++;

  00244	ff 45 20	 inc	 DWORD PTR _rect$[ebp+12]
; File C:\Program Files (x86)\Microsoft Visual Studio\2019\Community\VC\Tools\MSVC\14.29.30133\atlmfc\include\afxwin1.inl

; 476  : 	{ ASSERT(m_hDC != NULL); ::FillRect(m_hDC, lpRect, (HBRUSH)pBrush->GetSafeHandle()); }

  00247	50		 push	 eax
  00248	ff 73 04	 push	 DWORD PTR [ebx+4]
  0024b	ff 15 00 00 00
	00		 call	 DWORD PTR __imp__FillRect@12
; File D:\git\src\IBK\IBK_DRFN\ProjSrc\SrcChartEx\ChartAddIn\ChartPatternAddIn\Control_Grid\GridCellBase.cpp

; 965  :             rect.right--; rect.bottom--;

  00251	ff 4d 1c	 dec	 DWORD PTR _rect$[ebp+8]
; File C:\Program Files (x86)\Microsoft Visual Studio\2019\Community\VC\Tools\MSVC\14.29.30133\atlmfc\include\afxwin1.inl

; 130  : 	{ }

  00254	8d 8d 40 ff ff
	ff		 lea	 ecx, DWORD PTR _brush$4[ebp]
; File D:\git\src\IBK\IBK_DRFN\ProjSrc\SrcChartEx\ChartAddIn\ChartPatternAddIn\Control_Grid\GridCellBase.cpp

; 965  :             rect.right--; rect.bottom--;

  0025a	ff 4d 20	 dec	 DWORD PTR _rect$[ebp+12]
; File C:\Program Files (x86)\Microsoft Visual Studio\2019\Community\VC\Tools\MSVC\14.29.30133\atlmfc\include\afxwin1.inl

; 130  : 	{ }

  0025d	c7 85 40 ff ff
	ff 00 00 00 00	 mov	 DWORD PTR _brush$4[ebp], OFFSET ??_7CBrush@@6B@
  00267	e8 00 00 00 00	 call	 ??1CGdiObject@@UAE@XZ	; CGdiObject::~CGdiObject
; File D:\git\src\IBK\IBK_DRFN\ProjSrc\SrcChartEx\ChartAddIn\ChartPatternAddIn\Control_Grid\GridCellBase.cpp

; 967  :     }

  0026c	eb 02		 jmp	 SHORT $LN7@PrintCell
$LN6@PrintCell:

; 968  :     else
; 969  :     {
; 970  :         crBG = CLR_DEFAULT;
; 971  :         crFG = RGB(0, 0, 0);

  0026e	33 f6		 xor	 esi, esi
$LN7@PrintCell:

; 972  :     }
; 973  : 
; 974  :     pDC->SetTextColor(crFG);

  00270	8b 03		 mov	 eax, DWORD PTR [ebx]
  00272	8b cb		 mov	 ecx, ebx
  00274	56		 push	 esi
  00275	ff 50 38	 call	 DWORD PTR [eax+56]

; 975  : 
; 976  :     CFont *pFont = GetFontObject();

  00278	8b 07		 mov	 eax, DWORD PTR [edi]
  0027a	8b cf		 mov	 ecx, edi
  0027c	ff 50 64	 call	 DWORD PTR [eax+100]

; 977  :     if (pFont)

  0027f	85 c0		 test	 eax, eax
  00281	74 08		 je	 SHORT $LN15@PrintCell

; 978  :         pDC->SelectObject(pFont);

  00283	8b 13		 mov	 edx, DWORD PTR [ebx]
  00285	8b cb		 mov	 ecx, ebx
  00287	50		 push	 eax
  00288	ff 52 30	 call	 DWORD PTR [edx+48]
$LN15@PrintCell:

; 979  : 
; 980  :     /*
; 981  :     // ***************************************************
; 982  :     // Disabled - if you need this functionality then you'll need to rewrite.
; 983  :     // Create the appropriate font and select into DC.
; 984  :     CFont Font;
; 985  :     // Bold the fixed cells if not shading the print out.  Use italic
; 986  :     // font it it is enabled.
; 987  :     const LOGFONT* plfFont = GetFont();
; 988  :     if(IsFixed() && !pGrid->GetShadedPrintOut())
; 989  :     {
; 990  :         Font.CreateFont(plfFont->lfHeight, 0, 0, 0, FW_BOLD, plfFont->lfItalic, 0, 0,
; 991  :             ANSI_CHARSET, OUT_DEFAULT_PRECIS, CLIP_DEFAULT_PRECIS,
; 992  : #ifndef _WIN32_WCE
; 993  :             PROOF_QUALITY,
; 994  : #else
; 995  :             DEFAULT_QUALITY,
; 996  : #endif
; 997  :             VARIABLE_PITCH | FF_SWISS, plfFont->lfFaceName);
; 998  :     }
; 999  :     else
; 1000 :         Font.CreateFontIndirect(plfFont);
; 1001 : 
; 1002 :     pDC->SelectObject(&Font);
; 1003 :     // ***************************************************
; 1004 :     */
; 1005 : 
; 1006 :     // Draw lines only when wanted on fixed cells.  Normal cell grid lines
; 1007 :     // are handled in OnPrint.
; 1008 :     if(pGrid->GetGridLines() != GVL_NONE && IsFixed())

  0028b	8b b5 54 ff ff
	ff		 mov	 esi, DWORD PTR _pGrid$1$[ebp]
  00291	83 be cc 00 00
	00 00		 cmp	 DWORD PTR [esi+204], 0
  00298	0f 84 33 01 00
	00		 je	 $LN73@PrintCell
  0029e	8b 07		 mov	 eax, DWORD PTR [edi]
  002a0	8b cf		 mov	 ecx, edi
  002a2	ff 90 84 00 00
	00		 call	 DWORD PTR [eax+132]
  002a8	85 c0		 test	 eax, eax
  002aa	0f 84 21 01 00
	00		 je	 $LN73@PrintCell

; 1009 :     {
; 1010 :         CPen lightpen(PS_SOLID, 1,  ::GetSysColor(COLOR_3DHIGHLIGHT)),

  002b0	8b 35 00 00 00
	00		 mov	 esi, DWORD PTR __imp__GetSysColor@4
  002b6	6a 14		 push	 20			; 00000014H
  002b8	ff d6		 call	 esi
  002ba	50		 push	 eax
  002bb	6a 01		 push	 1
  002bd	6a 00		 push	 0
  002bf	8d 8d 58 ff ff
	ff		 lea	 ecx, DWORD PTR _lightpen$5[ebp]
  002c5	e8 00 00 00 00	 call	 ??0CPen@@QAE@HHK@Z	; CPen::CPen

; 1011 :              darkpen(PS_SOLID,  1, ::GetSysColor(COLOR_3DDKSHADOW)),

  002ca	6a 15		 push	 21			; 00000015H
  002cc	c6 45 fc 01	 mov	 BYTE PTR __$EHRec$[ebp+8], 1
  002d0	ff d6		 call	 esi
  002d2	50		 push	 eax
  002d3	6a 01		 push	 1
  002d5	6a 00		 push	 0
  002d7	8d 8d 60 ff ff
	ff		 lea	 ecx, DWORD PTR _darkpen$6[ebp]
  002dd	e8 00 00 00 00	 call	 ??0CPen@@QAE@HHK@Z	; CPen::CPen
; File C:\Program Files (x86)\Microsoft Visual Studio\2019\Community\VC\Tools\MSVC\14.29.30133\atlmfc\include\afxwin1.inl

; 790  : 	{ ASSERT(m_hAttribDC != NULL); return CPen::FromHandle((HPEN)::GetCurrentObject(m_hAttribDC, OBJ_PEN)); }

  002e2	6a 01		 push	 1
  002e4	ff 73 08	 push	 DWORD PTR [ebx+8]
; File D:\git\src\IBK\IBK_DRFN\ProjSrc\SrcChartEx\ChartAddIn\ChartPatternAddIn\Control_Grid\GridCellBase.cpp

; 1011 :              darkpen(PS_SOLID,  1, ::GetSysColor(COLOR_3DDKSHADOW)),

  002e7	c6 45 fc 02	 mov	 BYTE PTR __$EHRec$[ebp+8], 2
; File C:\Program Files (x86)\Microsoft Visual Studio\2019\Community\VC\Tools\MSVC\14.29.30133\atlmfc\include\afxwin1.inl

; 790  : 	{ ASSERT(m_hAttribDC != NULL); return CPen::FromHandle((HPEN)::GetCurrentObject(m_hAttribDC, OBJ_PEN)); }

  002eb	ff 15 00 00 00
	00		 call	 DWORD PTR __imp__GetCurrentObject@8

; 102  : 	{ return (CPen*) CGdiObject::FromHandle(hPen); }

  002f1	50		 push	 eax
  002f2	e8 00 00 00 00	 call	 ?FromHandle@CGdiObject@@SGPAV1@PAX@Z ; CGdiObject::FromHandle
; File D:\git\src\IBK\IBK_DRFN\ProjSrc\SrcChartEx\ChartAddIn\ChartPatternAddIn\Control_Grid\GridCellBase.cpp

; 1012 :             *pOldPen = pDC->GetCurrentPen();

  002f7	8b f0		 mov	 esi, eax

; 1013 : 
; 1014 :         pDC->SelectObject(&lightpen);

  002f9	8b cb		 mov	 ecx, ebx
  002fb	8d 85 58 ff ff
	ff		 lea	 eax, DWORD PTR _lightpen$5[ebp]
  00301	50		 push	 eax
  00302	e8 00 00 00 00	 call	 ?SelectObject@CDC@@QAEPAVCPen@@PAV2@@Z ; CDC::SelectObject

; 1015 :         pDC->MoveTo(rect.right, rect.top);

  00307	ff 75 18	 push	 DWORD PTR _rect$[ebp+4]
  0030a	8d 85 38 ff ff
	ff		 lea	 eax, DWORD PTR $T3[ebp]
  00310	8b cb		 mov	 ecx, ebx
  00312	ff 75 1c	 push	 DWORD PTR _rect$[ebp+8]
  00315	50		 push	 eax
  00316	e8 00 00 00 00	 call	 ?MoveTo@CDC@@QAE?AVCPoint@@HH@Z ; CDC::MoveTo

; 1016 :         pDC->LineTo(rect.left, rect.top);

  0031b	ff 75 18	 push	 DWORD PTR _rect$[ebp+4]
  0031e	8b cb		 mov	 ecx, ebx
  00320	ff 75 14	 push	 DWORD PTR _rect$[ebp]
  00323	e8 00 00 00 00	 call	 ?LineTo@CDC@@QAEHHH@Z	; CDC::LineTo

; 1017 :         pDC->LineTo(rect.left, rect.bottom);

  00328	ff 75 20	 push	 DWORD PTR _rect$[ebp+12]
  0032b	8b cb		 mov	 ecx, ebx
  0032d	ff 75 14	 push	 DWORD PTR _rect$[ebp]
  00330	e8 00 00 00 00	 call	 ?LineTo@CDC@@QAEHHH@Z	; CDC::LineTo

; 1018 : 		lightpen.DeleteObject();

  00335	8d 8d 58 ff ff
	ff		 lea	 ecx, DWORD PTR _lightpen$5[ebp]
  0033b	e8 00 00 00 00	 call	 ?DeleteObject@CGdiObject@@QAEHXZ ; CGdiObject::DeleteObject

; 1019 : 
; 1020 :         pDC->SelectObject(&darkpen);

  00340	8d 85 60 ff ff
	ff		 lea	 eax, DWORD PTR _darkpen$6[ebp]
  00346	8b cb		 mov	 ecx, ebx
  00348	50		 push	 eax
  00349	e8 00 00 00 00	 call	 ?SelectObject@CDC@@QAEPAVCPen@@PAV2@@Z ; CDC::SelectObject

; 1021 :         pDC->MoveTo(rect.right, rect.top);

  0034e	ff 75 18	 push	 DWORD PTR _rect$[ebp+4]
  00351	8d 85 38 ff ff
	ff		 lea	 eax, DWORD PTR $T2[ebp]
  00357	8b cb		 mov	 ecx, ebx
  00359	ff 75 1c	 push	 DWORD PTR _rect$[ebp+8]
  0035c	50		 push	 eax
  0035d	e8 00 00 00 00	 call	 ?MoveTo@CDC@@QAE?AVCPoint@@HH@Z ; CDC::MoveTo

; 1022 :         pDC->LineTo(rect.right, rect.bottom);

  00362	ff 75 20	 push	 DWORD PTR _rect$[ebp+12]
  00365	8b cb		 mov	 ecx, ebx
  00367	ff 75 1c	 push	 DWORD PTR _rect$[ebp+8]
  0036a	e8 00 00 00 00	 call	 ?LineTo@CDC@@QAEHHH@Z	; CDC::LineTo

; 1023 :         pDC->LineTo(rect.left, rect.bottom);

  0036f	ff 75 20	 push	 DWORD PTR _rect$[ebp+12]
  00372	8b cb		 mov	 ecx, ebx
  00374	ff 75 14	 push	 DWORD PTR _rect$[ebp]
  00377	e8 00 00 00 00	 call	 ?LineTo@CDC@@QAEHHH@Z	; CDC::LineTo
; File C:\Program Files (x86)\Microsoft Visual Studio\2019\Community\VC\Tools\MSVC\14.29.30133\atlmfc\include\atltypes.h

; 698  : 	::InflateRect(this, -x, -y);

  0037c	6a ff		 push	 -1
  0037e	6a ff		 push	 -1
  00380	8d 45 14	 lea	 eax, DWORD PTR _rect$[ebp]
  00383	50		 push	 eax
  00384	ff 15 00 00 00
	00		 call	 DWORD PTR __imp__InflateRect@12
; File D:\git\src\IBK\IBK_DRFN\ProjSrc\SrcChartEx\ChartAddIn\ChartPatternAddIn\Control_Grid\GridCellBase.cpp

; 1026 :         pDC->SelectObject(pOldPen);

  0038a	56		 push	 esi
  0038b	8b cb		 mov	 ecx, ebx
  0038d	e8 00 00 00 00	 call	 ?SelectObject@CDC@@QAEPAVCPen@@PAV2@@Z ; CDC::SelectObject

; 1027 : 		darkpen.DeleteObject();

  00392	8d 8d 60 ff ff
	ff		 lea	 ecx, DWORD PTR _darkpen$6[ebp]
  00398	e8 00 00 00 00	 call	 ?DeleteObject@CGdiObject@@QAEHXZ ; CGdiObject::DeleteObject
; File C:\Program Files (x86)\Microsoft Visual Studio\2019\Community\VC\Tools\MSVC\14.29.30133\atlmfc\include\afxwin1.inl

; 106  : 	{ }

  0039d	8d 8d 60 ff ff
	ff		 lea	 ecx, DWORD PTR _darkpen$6[ebp]
  003a3	c7 85 60 ff ff
	ff 00 00 00 00	 mov	 DWORD PTR _darkpen$6[ebp], OFFSET ??_7CPen@@6B@
  003ad	e8 00 00 00 00	 call	 ??1CGdiObject@@UAE@XZ	; CGdiObject::~CGdiObject
  003b2	8d 8d 58 ff ff
	ff		 lea	 ecx, DWORD PTR _lightpen$5[ebp]
; File D:\git\src\IBK\IBK_DRFN\ProjSrc\SrcChartEx\ChartAddIn\ChartPatternAddIn\Control_Grid\GridCellBase.cpp

; 1028 :     }

  003b8	c6 45 fc 00	 mov	 BYTE PTR __$EHRec$[ebp+8], 0
; File C:\Program Files (x86)\Microsoft Visual Studio\2019\Community\VC\Tools\MSVC\14.29.30133\atlmfc\include\afxwin1.inl

; 106  : 	{ }

  003bc	c7 85 58 ff ff
	ff 00 00 00 00	 mov	 DWORD PTR _lightpen$5[ebp], OFFSET ??_7CPen@@6B@
  003c6	e8 00 00 00 00	 call	 ??1CGdiObject@@UAE@XZ	; CGdiObject::~CGdiObject
  003cb	8b b5 54 ff ff
	ff		 mov	 esi, DWORD PTR _pGrid$1$[ebp]
$LN73@PrintCell:
; File D:\git\src\IBK\IBK_DRFN\ProjSrc\SrcChartEx\ChartAddIn\ChartPatternAddIn\Control_Grid\GridCellBase.cpp

; 1030 :     rect.DeflateRect(GetMargin(), 0);

  003d1	8b 07		 mov	 eax, DWORD PTR [edi]
  003d3	8b cf		 mov	 ecx, edi
  003d5	ff 50 70	 call	 DWORD PTR [eax+112]
; File C:\Program Files (x86)\Microsoft Visual Studio\2019\Community\VC\Tools\MSVC\14.29.30133\atlmfc\include\atltypes.h

; 698  : 	::InflateRect(this, -x, -y);

  003d8	6a 00		 push	 0
  003da	f7 d8		 neg	 eax
  003dc	50		 push	 eax
  003dd	8d 45 14	 lea	 eax, DWORD PTR _rect$[ebp]
  003e0	50		 push	 eax
  003e1	ff 15 00 00 00
	00		 call	 DWORD PTR __imp__InflateRect@12
; File D:\git\src\IBK\IBK_DRFN\ProjSrc\SrcChartEx\ChartAddIn\ChartPatternAddIn\Control_Grid\GridCellBase.cpp

; 1032 :     if(pGrid->GetImageList() && GetImage() >= 0)

  003e7	83 be 9c 02 00
	00 00		 cmp	 DWORD PTR [esi+668], 0
  003ee	74 7c		 je	 SHORT $LN18@PrintCell
  003f0	8b 07		 mov	 eax, DWORD PTR [edi]
  003f2	8b cf		 mov	 ecx, edi
  003f4	ff 50 48	 call	 DWORD PTR [eax+72]
  003f7	85 c0		 test	 eax, eax
  003f9	78 71		 js	 SHORT $LN18@PrintCell

; 1041 :         if(pGrid->GetImageList()->GetImageInfo(GetImage(), &Info))

  003fb	8b 07		 mov	 eax, DWORD PTR [edi]
  003fd	8b cf		 mov	 ecx, edi
  003ff	ff 50 48	 call	 DWORD PTR [eax+72]
  00402	8b 8e 9c 02 00
	00		 mov	 ecx, DWORD PTR [esi+668]
; File C:\Program Files (x86)\Microsoft Visual Studio\2019\Community\VC\Tools\MSVC\14.29.30133\atlmfc\include\afxwin1.inl

; 881  : 	{ ASSERT(m_hImageList != NULL); return ImageList_GetImageInfo(m_hImageList, nImage, pImageInfo); }

  00408	8d 55 d0	 lea	 edx, DWORD PTR _Info$7[ebp]
  0040b	52		 push	 edx
  0040c	50		 push	 eax
  0040d	ff 71 04	 push	 DWORD PTR [ecx+4]
  00410	ff 15 00 00 00
	00		 call	 DWORD PTR __imp__ImageList_GetImageInfo@12
; File D:\git\src\IBK\IBK_DRFN\ProjSrc\SrcChartEx\ChartAddIn\ChartPatternAddIn\Control_Grid\GridCellBase.cpp

; 1041 :         if(pGrid->GetImageList()->GetImageInfo(GetImage(), &Info))

  00416	85 c0		 test	 eax, eax
  00418	74 52		 je	 SHORT $LN18@PrintCell

; 1044 :             pGrid->GetImageList()->Draw(pDC, GetImage(), rect.TopLeft(), ILD_NORMAL);

  0041a	8b 8d 50 ff ff
	ff		 mov	 ecx, DWORD PTR _this$GSCopy$1$[ebp]
  00420	8b 5d e8	 mov	 ebx, DWORD PTR _Info$7[ebp+24]
  00423	2b 5d e0	 sub	 ebx, DWORD PTR _Info$7[ebp+16]
  00426	8b 7d 14	 mov	 edi, DWORD PTR _rect$[ebp]
  00429	8b 01		 mov	 eax, DWORD PTR [ecx]
  0042b	8b 75 18	 mov	 esi, DWORD PTR _rect$[ebp+4]
  0042e	ff 50 48	 call	 DWORD PTR [eax+72]
; File C:\Program Files (x86)\Microsoft Visual Studio\2019\Community\VC\Tools\MSVC\14.29.30133\atlmfc\include\afxwin1.inl

; 871  : 	{ ASSERT(m_hImageList != NULL); ASSERT(pDC != NULL); return ImageList_Draw(m_hImageList, nImage, pDC->GetSafeHdc(), pt.x, pt.y, nStyle); }

  00431	8b 95 4c ff ff
	ff		 mov	 edx, DWORD PTR _pDC$GSCopy$1$[ebp]
; File D:\git\src\IBK\IBK_DRFN\ProjSrc\SrcChartEx\ChartAddIn\ChartPatternAddIn\Control_Grid\GridCellBase.cpp

; 1044 :             pGrid->GetImageList()->Draw(pDC, GetImage(), rect.TopLeft(), ILD_NORMAL);

  00437	8b 8d 54 ff ff
	ff		 mov	 ecx, DWORD PTR _pGrid$1$[ebp]
; File C:\Program Files (x86)\Microsoft Visual Studio\2019\Community\VC\Tools\MSVC\14.29.30133\atlmfc\include\afxwin1.inl

; 871  : 	{ ASSERT(m_hImageList != NULL); ASSERT(pDC != NULL); return ImageList_Draw(m_hImageList, nImage, pDC->GetSafeHdc(), pt.x, pt.y, nStyle); }

  0043d	6a 00		 push	 0
  0043f	56		 push	 esi
  00440	57		 push	 edi
  00441	ff 72 04	 push	 DWORD PTR [edx+4]
; File D:\git\src\IBK\IBK_DRFN\ProjSrc\SrcChartEx\ChartAddIn\ChartPatternAddIn\Control_Grid\GridCellBase.cpp

; 1044 :             pGrid->GetImageList()->Draw(pDC, GetImage(), rect.TopLeft(), ILD_NORMAL);

  00444	8b 89 9c 02 00
	00		 mov	 ecx, DWORD PTR [ecx+668]
; File C:\Program Files (x86)\Microsoft Visual Studio\2019\Community\VC\Tools\MSVC\14.29.30133\atlmfc\include\afxwin1.inl

; 871  : 	{ ASSERT(m_hImageList != NULL); ASSERT(pDC != NULL); return ImageList_Draw(m_hImageList, nImage, pDC->GetSafeHdc(), pt.x, pt.y, nStyle); }

  0044a	50		 push	 eax
  0044b	ff 71 04	 push	 DWORD PTR [ecx+4]
  0044e	ff 15 00 00 00
	00		 call	 DWORD PTR __imp__ImageList_Draw@24
; File D:\git\src\IBK\IBK_DRFN\ProjSrc\SrcChartEx\ChartAddIn\ChartPatternAddIn\Control_Grid\GridCellBase.cpp

; 1045 :             rect.left += nImageWidth+GetMargin();

  00454	8b bd 50 ff ff
	ff		 mov	 edi, DWORD PTR _this$GSCopy$1$[ebp]
  0045a	8b cf		 mov	 ecx, edi
  0045c	8b 07		 mov	 eax, DWORD PTR [edi]
  0045e	ff 50 70	 call	 DWORD PTR [eax+112]
  00461	03 c3		 add	 eax, ebx
  00463	8b 9d 4c ff ff
	ff		 mov	 ebx, DWORD PTR _pDC$GSCopy$1$[ebp]
  00469	01 45 14	 add	 DWORD PTR _rect$[ebp], eax
$LN18@PrintCell:

; 1046 :         }
; 1047 :     }
; 1048 : 
; 1049 :     // Draw without clipping so as not to lose text when printed for real
; 1050 : 	// DT_NOCLIP removed 01.01.01. Slower, but who cares - we are printing!
; 1051 :     DrawText(pDC->m_hDC, GetText(), -1, rect,

  0046c	8b 07		 mov	 eax, DWORD PTR [edi]
  0046e	8b cf		 mov	 ecx, edi
  00470	ff 50 54	 call	 DWORD PTR [eax+84]
  00473	0d 00 08 00 00	 or	 eax, 2048		; 00000800H
  00478	8b cf		 mov	 ecx, edi
  0047a	50		 push	 eax
  0047b	8d 45 14	 lea	 eax, DWORD PTR _rect$[ebp]
  0047e	50		 push	 eax
  0047f	8b 07		 mov	 eax, DWORD PTR [edi]
  00481	6a ff		 push	 -1
  00483	ff 50 40	 call	 DWORD PTR [eax+64]
  00486	50		 push	 eax
  00487	ff 73 04	 push	 DWORD PTR [ebx+4]
  0048a	ff 15 00 00 00
	00		 call	 DWORD PTR __imp__DrawTextA@20

; 1052 :         GetFormat() | /*DT_NOCLIP | */ DT_NOPREFIX);
; 1053 : 
; 1054 :     pDC->RestoreDC(nSavedDC);

  00490	8b 03		 mov	 eax, DWORD PTR [ebx]
  00492	8b cb		 mov	 ecx, ebx
  00494	ff b5 48 ff ff
	ff		 push	 DWORD PTR _nSavedDC$1$[ebp]
  0049a	ff 50 28	 call	 DWORD PTR [eax+40]

; 1055 : 
; 1056 :     return TRUE;

  0049d	be 01 00 00 00	 mov	 esi, 1
  004a2	eb 02		 jmp	 SHORT $LN35@PrintCell
$LN5@PrintCell:
  004a4	33 f6		 xor	 esi, esi
$LN35@PrintCell:
  004a6	8d 4d cc	 lea	 ecx, DWORD PTR _Item$[ebp+100]
  004a9	ff 15 00 00 00
	00		 call	 DWORD PTR __imp_??1?$CStringT@DV?$StrTraitMFC_DLL@DV?$ChTraitsCRT@D@ATL@@@@@ATL@@QAE@XZ
  004af	8b c6		 mov	 eax, esi

; 1057 : #endif
; 1058 : }

  004b1	8b 4d f4	 mov	 ecx, DWORD PTR __$EHRec$[ebp]
  004b4	64 89 0d 00 00
	00 00		 mov	 DWORD PTR fs:0, ecx
  004bb	59		 pop	 ecx
  004bc	5f		 pop	 edi
  004bd	5e		 pop	 esi
  004be	5b		 pop	 ebx
  004bf	8b 4d f0	 mov	 ecx, DWORD PTR __$ArrayPad$[ebp]
  004c2	33 cd		 xor	 ecx, ebp
  004c4	e8 00 00 00 00	 call	 @__security_check_cookie@4
  004c9	8b e5		 mov	 esp, ebp
  004cb	5d		 pop	 ebp
  004cc	c2 1c 00	 ret	 28			; 0000001cH
_TEXT	ENDS
;	COMDAT text$x
text$x	SEGMENT
__unwindfunclet$?PrintCell@CGridCellBase@@UAEHPAVCDC@@HHVCRect@@@Z$0:
  00000	8d 8d 68 ff ff
	ff		 lea	 ecx, DWORD PTR _Item$[ebp]
  00006	e9 00 00 00 00	 jmp	 ??1_GV_ITEM@@QAE@XZ
__unwindfunclet$?PrintCell@CGridCellBase@@UAEHPAVCDC@@HHVCRect@@@Z$2:
  0000b	8d 8d 58 ff ff
	ff		 lea	 ecx, DWORD PTR _lightpen$5[ebp]
  00011	e9 00 00 00 00	 jmp	 ??1CPen@@UAE@XZ		; CPen::~CPen
__unwindfunclet$?PrintCell@CGridCellBase@@UAEHPAVCDC@@HHVCRect@@@Z$3:
  00016	8d 8d 60 ff ff
	ff		 lea	 ecx, DWORD PTR _darkpen$6[ebp]
  0001c	e9 00 00 00 00	 jmp	 ??1CPen@@UAE@XZ		; CPen::~CPen
  00021	cc		 int	 3
  00022	cc		 int	 3
  00023	cc		 int	 3
  00024	cc		 int	 3
  00025	cc		 int	 3
__ehhandler$?PrintCell@CGridCellBase@@UAEHPAVCDC@@HHVCRect@@@Z:
  00026	90		 npad	 1
  00027	90		 npad	 1
  00028	8b 54 24 08	 mov	 edx, DWORD PTR [esp+8]
  0002c	8d 42 0c	 lea	 eax, DWORD PTR [edx+12]
  0002f	8b 8a 34 ff ff
	ff		 mov	 ecx, DWORD PTR [edx-204]
  00035	33 c8		 xor	 ecx, eax
  00037	e8 00 00 00 00	 call	 @__security_check_cookie@4
  0003c	8b 4a fc	 mov	 ecx, DWORD PTR [edx-4]
  0003f	33 c8		 xor	 ecx, eax
  00041	e8 00 00 00 00	 call	 @__security_check_cookie@4
  00046	b8 00 00 00 00	 mov	 eax, OFFSET __ehfuncinfo$?PrintCell@CGridCellBase@@UAEHPAVCDC@@HHVCRect@@@Z
  0004b	e9 00 00 00 00	 jmp	 ___CxxFrameHandler3
text$x	ENDS
?PrintCell@CGridCellBase@@UAEHPAVCDC@@HHVCRect@@@Z ENDP	; CGridCellBase::PrintCell
; Function compile flags: /Ogtp
; File D:\git\src\IBK\IBK_DRFN\ProjSrc\SrcChartEx\ChartAddIn\ChartPatternAddIn\Control_Grid\GridCellBase.h
;	COMDAT ?EndEdit@CGridCellBase@@UAEXXZ
_TEXT	SEGMENT
?EndEdit@CGridCellBase@@UAEXXZ PROC			; CGridCellBase::EndEdit, COMDAT
; _this$ = ecx

; 151  :     virtual void EndEdit() {}

  00000	c2 00 00	 ret	 0
?EndEdit@CGridCellBase@@UAEXXZ ENDP			; CGridCellBase::EndEdit
_TEXT	ENDS
; Function compile flags: /Ogtp
; File D:\git\src\IBK\IBK_DRFN\ProjSrc\SrcChartEx\ChartAddIn\ChartPatternAddIn\Control_Grid\GridCellBase.cpp
;	COMDAT ?ValidateEdit@CGridCellBase@@UAEHPBD@Z
_TEXT	SEGMENT
_str$ = 8						; size = 4
?ValidateEdit@CGridCellBase@@UAEHPBD@Z PROC		; CGridCellBase::ValidateEdit, COMDAT
; _this$ = ecx

; 771  :     UNUSED_ALWAYS(str);
; 772  : 	return TRUE;

  00000	b8 01 00 00 00	 mov	 eax, 1

; 773  : }

  00005	c2 04 00	 ret	 4
?ValidateEdit@CGridCellBase@@UAEHPBD@Z ENDP		; CGridCellBase::ValidateEdit
_TEXT	ENDS
; Function compile flags: /Ogtp
; File D:\git\src\IBK\IBK_DRFN\ProjSrc\SrcChartEx\ChartAddIn\ChartPatternAddIn\Control_Grid\GridCellBase.h
;	COMDAT ?Edit@CGridCellBase@@UAEHHHVCRect@@VCPoint@@II@Z
_TEXT	SEGMENT
___formal$ = 8						; size = 4
___formal$ = 12						; size = 4
___formal$ = 16						; size = 16
___formal$ = 32						; size = 8
___formal$ = 40						; size = 4
___formal$ = 44						; size = 4
?Edit@CGridCellBase@@UAEHHHVCRect@@VCPoint@@II@Z PROC	; CGridCellBase::Edit, COMDAT
; _this$ = ecx

; 149  :                        UINT /* nID */, UINT /* nChar */) { ASSERT( FALSE); return FALSE;}

  00000	33 c0		 xor	 eax, eax
  00002	c2 28 00	 ret	 40			; 00000028H
?Edit@CGridCellBase@@UAEHHHVCRect@@VCPoint@@II@Z ENDP	; CGridCellBase::Edit
_TEXT	ENDS
; Function compile flags: /Ogtp
; File D:\git\src\IBK\IBK_DRFN\ProjSrc\SrcChartEx\ChartAddIn\ChartPatternAddIn\Control_Grid\GridCellBase.cpp
; File C:\Program Files (x86)\Microsoft Visual Studio\2019\Community\VC\Tools\MSVC\14.29.30133\atlmfc\include\atltypes.h
; File D:\git\src\IBK\IBK_DRFN\ProjSrc\SrcChartEx\ChartAddIn\ChartPatternAddIn\Control_Grid\GridCellBase.cpp
; File C:\Program Files (x86)\Microsoft Visual Studio\2019\Community\VC\Tools\MSVC\14.29.30133\atlmfc\include\afxwin1.inl
; File D:\git\src\IBK\IBK_DRFN\ProjSrc\SrcChartEx\ChartAddIn\ChartPatternAddIn\Control_Grid\GridCellBase.cpp
; File C:\Program Files (x86)\Microsoft Visual Studio\2019\Community\VC\Tools\MSVC\14.29.30133\atlmfc\include\atltypes.h
; File D:\git\src\IBK\IBK_DRFN\ProjSrc\SrcChartEx\ChartAddIn\ChartPatternAddIn\Control_Grid\GridCellBase.cpp
; File C:\Program Files (x86)\Microsoft Visual Studio\2019\Community\VC\Tools\MSVC\14.29.30133\atlmfc\include\atltypes.h
; File D:\git\src\IBK\IBK_DRFN\ProjSrc\SrcChartEx\ChartAddIn\ChartPatternAddIn\Control_Grid\GridCellBase.cpp
; File C:\Program Files (x86)\Microsoft Visual Studio\2019\Community\VC\Tools\MSVC\14.29.30133\atlmfc\include\atltypes.h
; File D:\git\src\IBK\IBK_DRFN\ProjSrc\SrcChartEx\ChartAddIn\ChartPatternAddIn\Control_Grid\GridCellBase.cpp
; File C:\Program Files (x86)\Microsoft Visual Studio\2019\Community\VC\Tools\MSVC\14.29.30133\atlmfc\include\atltypes.h
; File D:\git\src\IBK\IBK_DRFN\ProjSrc\SrcChartEx\ChartAddIn\ChartPatternAddIn\Control_Grid\GridCellBase.cpp
; File C:\Program Files (x86)\Microsoft Visual Studio\2019\Community\VC\Tools\MSVC\14.29.30133\atlmfc\include\atltypes.h
; File D:\git\src\IBK\IBK_DRFN\ProjSrc\SrcChartEx\ChartAddIn\ChartPatternAddIn\Control_Grid\GridCellBase.cpp
;	COMDAT ?GetCellExtent@CGridCellBase@@UAE?AVCSize@@PAVCDC@@@Z
_TEXT	SEGMENT
_size$ = -52						; size = 8
___$ReturnUdt$GSCopy$1$ = -44				; size = 4
_nImage$1$ = -40					; size = 4
_Info$2 = -36						; size = 32
__$ArrayPad$ = -4					; size = 4
___$ReturnUdt$ = 8					; size = 4
_pDC$ = 12						; size = 4
?GetCellExtent@CGridCellBase@@UAE?AVCSize@@PAVCDC@@@Z PROC ; CGridCellBase::GetCellExtent, COMDAT
; _this$ = ecx

; 879  : {

  00000	55		 push	 ebp
  00001	8b ec		 mov	 ebp, esp
  00003	83 ec 34	 sub	 esp, 52			; 00000034H
  00006	a1 00 00 00 00	 mov	 eax, DWORD PTR ___security_cookie
  0000b	33 c5		 xor	 eax, ebp
  0000d	89 45 fc	 mov	 DWORD PTR __$ArrayPad$[ebp], eax
  00010	8b 45 08	 mov	 eax, DWORD PTR ___$ReturnUdt$[ebp]
  00013	53		 push	 ebx
  00014	8b d9		 mov	 ebx, ecx
  00016	89 45 d4	 mov	 DWORD PTR ___$ReturnUdt$GSCopy$1$[ebp], eax
  00019	8b 45 0c	 mov	 eax, DWORD PTR _pDC$[ebp]
  0001c	56		 push	 esi
  0001d	57		 push	 edi

; 880  :     CSize size = GetTextExtent(GetText(), pDC);

  0001e	8b 33		 mov	 esi, DWORD PTR [ebx]
  00020	50		 push	 eax
  00021	ff 56 40	 call	 DWORD PTR [esi+64]
  00024	50		 push	 eax
  00025	8d 45 cc	 lea	 eax, DWORD PTR _size$[ebp]
  00028	8b cb		 mov	 ecx, ebx
  0002a	50		 push	 eax
  0002b	ff 96 b4 00 00
	00		 call	 DWORD PTR [esi+180]

; 883  :     int nImage = GetImage();

  00031	8b 03		 mov	 eax, DWORD PTR [ebx]
  00033	8b cb		 mov	 ecx, ebx
; File C:\Program Files (x86)\Microsoft Visual Studio\2019\Community\VC\Tools\MSVC\14.29.30133\atlmfc\include\atltypes.h

; 312  : 	cx = initCX;

  00035	33 ff		 xor	 edi, edi

; 313  : 	cy = initCY;

  00037	33 f6		 xor	 esi, esi
; File D:\git\src\IBK\IBK_DRFN\ProjSrc\SrcChartEx\ChartAddIn\ChartPatternAddIn\Control_Grid\GridCellBase.cpp

; 883  :     int nImage = GetImage();

  00039	ff 50 48	 call	 DWORD PTR [eax+72]
  0003c	89 45 d8	 mov	 DWORD PTR _nImage$1$[ebp], eax

; 884  :     if (nImage >= 0) 

  0003f	85 c0		 test	 eax, eax
  00041	78 33		 js	 SHORT $LN4@GetCellExt

; 885  :     {
; 886  :         CGridCtrl* pGrid = GetGrid();

  00043	8b 03		 mov	 eax, DWORD PTR [ebx]
  00045	8b cb		 mov	 ecx, ebx
  00047	ff 50 68	 call	 DWORD PTR [eax+104]

; 887  :         ASSERT(pGrid);
; 888  : 
; 889  :         if (pGrid->GetImageList()) 

  0004a	8b 80 9c 02 00
	00		 mov	 eax, DWORD PTR [eax+668]
  00050	85 c0		 test	 eax, eax
  00052	74 22		 je	 SHORT $LN4@GetCellExt
; File C:\Program Files (x86)\Microsoft Visual Studio\2019\Community\VC\Tools\MSVC\14.29.30133\atlmfc\include\afxwin1.inl

; 881  : 	{ ASSERT(m_hImageList != NULL); return ImageList_GetImageInfo(m_hImageList, nImage, pImageInfo); }

  00054	8d 4d dc	 lea	 ecx, DWORD PTR _Info$2[ebp]
  00057	51		 push	 ecx
  00058	ff 75 d8	 push	 DWORD PTR _nImage$1$[ebp]
  0005b	ff 70 04	 push	 DWORD PTR [eax+4]
  0005e	ff 15 00 00 00
	00		 call	 DWORD PTR __imp__ImageList_GetImageInfo@12
; File D:\git\src\IBK\IBK_DRFN\ProjSrc\SrcChartEx\ChartAddIn\ChartPatternAddIn\Control_Grid\GridCellBase.cpp

; 892  :             if (pGrid->GetImageList()->GetImageInfo(nImage, &Info))

  00064	85 c0		 test	 eax, eax
  00066	74 0e		 je	 SHORT $LN4@GetCellExt
; File C:\Program Files (x86)\Microsoft Visual Studio\2019\Community\VC\Tools\MSVC\14.29.30133\atlmfc\include\atltypes.h

; 312  : 	cx = initCX;

  00068	8b 7d f4	 mov	 edi, DWORD PTR _Info$2[ebp+24]
  0006b	2b 7d ec	 sub	 edi, DWORD PTR _Info$2[ebp+16]

; 313  : 	cy = initCY;

  0006e	8b 75 f8	 mov	 esi, DWORD PTR _Info$2[ebp+28]
; File D:\git\src\IBK\IBK_DRFN\ProjSrc\SrcChartEx\ChartAddIn\ChartPatternAddIn\Control_Grid\GridCellBase.cpp

; 893  :                 ImageSize = CSize(Info.rcImage.right-Info.rcImage.left+1, 

  00071	47		 inc	 edi
; File C:\Program Files (x86)\Microsoft Visual Studio\2019\Community\VC\Tools\MSVC\14.29.30133\atlmfc\include\atltypes.h

; 313  : 	cy = initCY;

  00072	2b 75 f0	 sub	 esi, DWORD PTR _Info$2[ebp+20]
; File D:\git\src\IBK\IBK_DRFN\ProjSrc\SrcChartEx\ChartAddIn\ChartPatternAddIn\Control_Grid\GridCellBase.cpp

; 893  :                 ImageSize = CSize(Info.rcImage.right-Info.rcImage.left+1, 

  00075	46		 inc	 esi
$LN4@GetCellExt:

; 898  :     return CSize(size.cx + ImageSize.cx, max(size.cy, ImageSize.cy));

  00076	8b 4d cc	 mov	 ecx, DWORD PTR _size$[ebp]
; File C:\Program Files (x86)\Microsoft Visual Studio\2019\Community\VC\Tools\MSVC\14.29.30133\atlmfc\include\atltypes.h

; 312  : 	cx = initCX;

  00079	8b 45 d4	 mov	 eax, DWORD PTR ___$ReturnUdt$GSCopy$1$[ebp]
; File D:\git\src\IBK\IBK_DRFN\ProjSrc\SrcChartEx\ChartAddIn\ChartPatternAddIn\Control_Grid\GridCellBase.cpp

; 898  :     return CSize(size.cx + ImageSize.cx, max(size.cy, ImageSize.cy));

  0007c	03 cf		 add	 ecx, edi
  0007e	39 75 d0	 cmp	 DWORD PTR _size$[ebp+4], esi
  00081	5f		 pop	 edi
  00082	0f 4f 75 d0	 cmovg	 esi, DWORD PTR _size$[ebp+4]
; File C:\Program Files (x86)\Microsoft Visual Studio\2019\Community\VC\Tools\MSVC\14.29.30133\atlmfc\include\atltypes.h

; 312  : 	cx = initCX;

  00086	89 08		 mov	 DWORD PTR [eax], ecx
; File D:\git\src\IBK\IBK_DRFN\ProjSrc\SrcChartEx\ChartAddIn\ChartPatternAddIn\Control_Grid\GridCellBase.cpp

; 899  : }

  00088	8b 4d fc	 mov	 ecx, DWORD PTR __$ArrayPad$[ebp]
; File C:\Program Files (x86)\Microsoft Visual Studio\2019\Community\VC\Tools\MSVC\14.29.30133\atlmfc\include\atltypes.h

; 313  : 	cy = initCY;

  0008b	89 70 04	 mov	 DWORD PTR [eax+4], esi
; File D:\git\src\IBK\IBK_DRFN\ProjSrc\SrcChartEx\ChartAddIn\ChartPatternAddIn\Control_Grid\GridCellBase.cpp

; 899  : }

  0008e	33 cd		 xor	 ecx, ebp
  00090	5e		 pop	 esi
  00091	5b		 pop	 ebx
  00092	e8 00 00 00 00	 call	 @__security_check_cookie@4
  00097	8b e5		 mov	 esp, ebp
  00099	5d		 pop	 ebp
  0009a	c2 08 00	 ret	 8
?GetCellExtent@CGridCellBase@@UAE?AVCSize@@PAVCDC@@@Z ENDP ; CGridCellBase::GetCellExtent
_TEXT	ENDS
; Function compile flags: /Ogtp
; File D:\git\src\IBK\IBK_DRFN\ProjSrc\SrcChartEx\ChartAddIn\ChartPatternAddIn\Control_Grid\GridCellBase.cpp
; File C:\Program Files (x86)\Microsoft Visual Studio\2019\Community\VC\Tools\MSVC\14.29.30133\atlmfc\include\atltypes.h
; File D:\git\src\IBK\IBK_DRFN\ProjSrc\SrcChartEx\ChartAddIn\ChartPatternAddIn\Control_Grid\GridCellBase.cpp
; File C:\Program Files (x86)\Microsoft Visual Studio\2019\Community\VC\Tools\MSVC\14.29.30133\atlmfc\include\atltypes.h
; File D:\git\src\IBK\IBK_DRFN\ProjSrc\SrcChartEx\ChartAddIn\ChartPatternAddIn\Control_Grid\GridCellBase.cpp
; File C:\Program Files (x86)\Microsoft Visual Studio\2019\Community\VC\Tools\MSVC\14.29.30133\atlmfc\include\afxwin2.inl
; File D:\git\src\IBK\IBK_DRFN\ProjSrc\SrcChartEx\ChartAddIn\ChartPatternAddIn\Control_Grid\GridCellBase.cpp
; File C:\Program Files (x86)\Microsoft Visual Studio\2019\Community\VC\Tools\MSVC\14.29.30133\atlmfc\include\atlsimpstr.h
; File C:\Program Files (x86)\Microsoft Visual Studio\2019\Community\VC\Tools\MSVC\14.29.30133\atlmfc\include\afxwin1.inl
; File D:\git\src\IBK\IBK_DRFN\ProjSrc\SrcChartEx\ChartAddIn\ChartPatternAddIn\Control_Grid\GridCellBase.cpp
; File C:\Program Files (x86)\Microsoft Visual Studio\2019\Community\VC\Tools\MSVC\14.29.30133\atlmfc\include\atltypes.h
; File D:\git\src\IBK\IBK_DRFN\ProjSrc\SrcChartEx\ChartAddIn\ChartPatternAddIn\Control_Grid\GridCellBase.cpp
; File C:\Program Files (x86)\Microsoft Visual Studio\2019\Community\VC\Tools\MSVC\14.29.30133\atlmfc\include\atltypes.h
; File D:\git\src\IBK\IBK_DRFN\ProjSrc\SrcChartEx\ChartAddIn\ChartPatternAddIn\Control_Grid\GridCellBase.cpp
; File C:\Program Files (x86)\Microsoft Visual Studio\2019\Community\VC\Tools\MSVC\14.29.30133\atlmfc\include\atltypes.h
; File D:\git\src\IBK\IBK_DRFN\ProjSrc\SrcChartEx\ChartAddIn\ChartPatternAddIn\Control_Grid\GridCellBase.cpp
; File C:\Program Files (x86)\Microsoft Visual Studio\2019\Community\VC\Tools\MSVC\14.29.30133\atlmfc\include\atltypes.h
; File D:\git\src\IBK\IBK_DRFN\ProjSrc\SrcChartEx\ChartAddIn\ChartPatternAddIn\Control_Grid\GridCellBase.cpp
; File C:\Program Files (x86)\Microsoft Visual Studio\2019\Community\VC\Tools\MSVC\14.29.30133\atlmfc\include\afxwin1.inl
; File D:\git\src\IBK\IBK_DRFN\ProjSrc\SrcChartEx\ChartAddIn\ChartPatternAddIn\Control_Grid\GridCellBase.cpp
; File C:\Program Files (x86)\Microsoft Visual Studio\2019\Community\VC\Tools\MSVC\14.29.30133\atlmfc\include\afxwin1.inl
; File D:\git\src\IBK\IBK_DRFN\ProjSrc\SrcChartEx\ChartAddIn\ChartPatternAddIn\Control_Grid\GridCellBase.cpp
; File C:\Program Files (x86)\Microsoft Visual Studio\2019\Community\VC\Tools\MSVC\14.29.30133\atlmfc\include\afxwin1.inl
; File D:\git\src\IBK\IBK_DRFN\ProjSrc\SrcChartEx\ChartAddIn\ChartPatternAddIn\Control_Grid\GridCellBase.cpp
; File C:\Program Files (x86)\Microsoft Visual Studio\2019\Community\VC\Tools\MSVC\14.29.30133\atlmfc\include\atltypes.h
; File D:\git\src\IBK\IBK_DRFN\ProjSrc\SrcChartEx\ChartAddIn\ChartPatternAddIn\Control_Grid\GridCellBase.cpp
; File C:\Program Files (x86)\Microsoft Visual Studio\2019\Community\VC\Tools\MSVC\14.29.30133\atlmfc\include\atltypes.h
; File D:\git\src\IBK\IBK_DRFN\ProjSrc\SrcChartEx\ChartAddIn\ChartPatternAddIn\Control_Grid\GridCellBase.cpp
; File C:\Program Files (x86)\Microsoft Visual Studio\2019\Community\VC\Tools\MSVC\14.29.30133\atlmfc\include\atltypes.h
; File D:\git\src\IBK\IBK_DRFN\ProjSrc\SrcChartEx\ChartAddIn\ChartPatternAddIn\Control_Grid\GridCellBase.cpp
; File C:\Program Files (x86)\Microsoft Visual Studio\2019\Community\VC\Tools\MSVC\14.29.30133\atlmfc\include\atltypes.h
; File D:\git\src\IBK\IBK_DRFN\ProjSrc\SrcChartEx\ChartAddIn\ChartPatternAddIn\Control_Grid\GridCellBase.cpp
; File C:\Program Files (x86)\Microsoft Visual Studio\2019\Community\VC\Tools\MSVC\14.29.30133\atlmfc\include\afxwin2.inl
; File D:\git\src\IBK\IBK_DRFN\ProjSrc\SrcChartEx\ChartAddIn\ChartPatternAddIn\Control_Grid\GridCellBase.cpp
;	COMDAT ?GetTextExtent@CGridCellBase@@UAE?AVCSize@@PBDPAVCDC@@@Z
_TEXT	SEGMENT
_size$6 = -156						; size = 8
_pGrid$1$ = -148					; size = 4
$T7 = -144						; size = 4
_size$8 = -140						; size = 8
$T9 = -136						; size = 4
___$ReturnUdt$GSCopy$1$ = -132				; size = 4
_bReleaseDC$1$ = -128					; size = 4
_this$GSCopy$1$ = -124					; size = 4
_pOldFont$1$ = -120					; size = 4
_size$2$ = -116						; size = 4
$T10 = -116						; size = 4
_TempStr$11 = -112					; size = 4
$T12 = -108						; size = 4
tv713 = -104						; size = 4
tv704 = -104						; size = 4
_nFormat$1$ = -104					; size = 4
_szText$GSCopy$1$ = -100				; size = 4
_size$3$ = -96						; size = 4
_nMaxWidth$1$ = -96					; size = 4
_str$13 = -92						; size = 4
_tm$ = -88						; size = 56
_rect$14 = -32						; size = 16
__$ArrayPad$ = -16					; size = 4
__$EHRec$ = -12						; size = 12
___$ReturnUdt$ = 8					; size = 4
_szText$ = 12						; size = 4
_pDC$ = 16						; size = 4
?GetTextExtent@CGridCellBase@@UAE?AVCSize@@PBDPAVCDC@@@Z PROC ; CGridCellBase::GetTextExtent, COMDAT
; _this$ = ecx

; 799  : {

  00000	55		 push	 ebp
  00001	8b ec		 mov	 ebp, esp
  00003	6a ff		 push	 -1
  00005	68 00 00 00 00	 push	 __ehhandler$?GetTextExtent@CGridCellBase@@UAE?AVCSize@@PBDPAVCDC@@@Z
  0000a	64 a1 00 00 00
	00		 mov	 eax, DWORD PTR fs:0
  00010	50		 push	 eax
  00011	81 ec 90 00 00
	00		 sub	 esp, 144		; 00000090H
  00017	a1 00 00 00 00	 mov	 eax, DWORD PTR ___security_cookie
  0001c	33 c5		 xor	 eax, ebp
  0001e	89 45 f0	 mov	 DWORD PTR __$ArrayPad$[ebp], eax
  00021	53		 push	 ebx
  00022	56		 push	 esi
  00023	57		 push	 edi
  00024	50		 push	 eax
  00025	8d 45 f4	 lea	 eax, DWORD PTR __$EHRec$[ebp]
  00028	64 a3 00 00 00
	00		 mov	 DWORD PTR fs:0, eax
  0002e	8b f1		 mov	 esi, ecx
  00030	89 75 84	 mov	 DWORD PTR _this$GSCopy$1$[ebp], esi
  00033	8b 45 08	 mov	 eax, DWORD PTR ___$ReturnUdt$[ebp]
  00036	33 db		 xor	 ebx, ebx
  00038	8b 7d 10	 mov	 edi, DWORD PTR _pDC$[ebp]
  0003b	89 85 7c ff ff
	ff		 mov	 DWORD PTR ___$ReturnUdt$GSCopy$1$[ebp], eax
  00041	8b 45 0c	 mov	 eax, DWORD PTR _szText$[ebp]
  00044	89 45 9c	 mov	 DWORD PTR _szText$GSCopy$1$[ebp], eax
  00047	89 5d 94	 mov	 DWORD PTR $T12[ebp], ebx

; 800  :     CGridCtrl* pGrid = GetGrid();

  0004a	8b 06		 mov	 eax, DWORD PTR [esi]
  0004c	ff 50 68	 call	 DWORD PTR [eax+104]
  0004f	89 85 6c ff ff
	ff		 mov	 DWORD PTR _pGrid$1$[ebp], eax

; 801  :     ASSERT(pGrid);
; 802  : 
; 803  :     BOOL bReleaseDC = FALSE;

  00055	89 5d 80	 mov	 DWORD PTR _bReleaseDC$1$[ebp], ebx

; 804  :     if (pDC == NULL || szText == NULL)

  00058	85 ff		 test	 edi, edi
  0005a	74 4f		 je	 SHORT $LN5@GetTextExt
  0005c	39 5d 9c	 cmp	 DWORD PTR _szText$GSCopy$1$[ebp], ebx
  0005f	75 6b		 jne	 SHORT $LN4@GetTextExt
$LN8@GetTextExt:

; 809  :         {
; 810  :             CGridDefaultCell* pDefCell = (CGridDefaultCell*) GetDefaultCell();

  00061	8b 06		 mov	 eax, DWORD PTR [esi]
  00063	8b ce		 mov	 ecx, esi
  00065	ff 50 74	 call	 DWORD PTR [eax+116]
  00068	8b f8		 mov	 edi, eax

; 812  :             return CSize(pDefCell->GetWidth(), pDefCell->GetHeight());

  0006a	8b cf		 mov	 ecx, edi
  0006c	8b 17		 mov	 edx, DWORD PTR [edi]
  0006e	ff 92 fc 00 00
	00		 call	 DWORD PTR [edx+252]
  00074	8b 17		 mov	 edx, DWORD PTR [edi]
  00076	8b cf		 mov	 ecx, edi
  00078	8b f0		 mov	 esi, eax
  0007a	ff 92 f8 00 00
	00		 call	 DWORD PTR [edx+248]
; File C:\Program Files (x86)\Microsoft Visual Studio\2019\Community\VC\Tools\MSVC\14.29.30133\atlmfc\include\atltypes.h

; 312  : 	cx = initCX;

  00080	8b 8d 7c ff ff
	ff		 mov	 ecx, DWORD PTR ___$ReturnUdt$GSCopy$1$[ebp]
  00086	89 01		 mov	 DWORD PTR [ecx], eax
; File D:\git\src\IBK\IBK_DRFN\ProjSrc\SrcChartEx\ChartAddIn\ChartPatternAddIn\Control_Grid\GridCellBase.cpp

; 812  :             return CSize(pDefCell->GetWidth(), pDefCell->GetHeight());

  00088	8b c1		 mov	 eax, ecx
; File C:\Program Files (x86)\Microsoft Visual Studio\2019\Community\VC\Tools\MSVC\14.29.30133\atlmfc\include\atltypes.h

; 313  : 	cy = initCY;

  0008a	89 71 04	 mov	 DWORD PTR [ecx+4], esi
$LN1@GetTextExt:
; File D:\git\src\IBK\IBK_DRFN\ProjSrc\SrcChartEx\ChartAddIn\ChartPatternAddIn\Control_Grid\GridCellBase.cpp

; 876  : }

  0008d	8b 4d f4	 mov	 ecx, DWORD PTR __$EHRec$[ebp]
  00090	64 89 0d 00 00
	00 00		 mov	 DWORD PTR fs:0, ecx
  00097	59		 pop	 ecx
  00098	5f		 pop	 edi
  00099	5e		 pop	 esi
  0009a	5b		 pop	 ebx
  0009b	8b 4d f0	 mov	 ecx, DWORD PTR __$ArrayPad$[ebp]
  0009e	33 cd		 xor	 ecx, ebp
  000a0	e8 00 00 00 00	 call	 @__security_check_cookie@4
  000a5	8b e5		 mov	 esp, ebp
  000a7	5d		 pop	 ebp
  000a8	c2 0c 00	 ret	 12			; 0000000cH
$LN5@GetTextExt:

; 805  :     {
; 806  :         if (szText)

  000ab	39 5d 9c	 cmp	 DWORD PTR _szText$GSCopy$1$[ebp], ebx
  000ae	74 b1		 je	 SHORT $LN8@GetTextExt
; File C:\Program Files (x86)\Microsoft Visual Studio\2019\Community\VC\Tools\MSVC\14.29.30133\atlmfc\include\afxwin2.inl

; 100  : 	{ ASSERT(::IsWindow(m_hWnd)); return CDC::FromHandle(::GetDC(m_hWnd)); }

  000b0	ff 70 20	 push	 DWORD PTR [eax+32]
  000b3	ff 15 00 00 00
	00		 call	 DWORD PTR __imp__GetDC@4
  000b9	50		 push	 eax
  000ba	e8 00 00 00 00	 call	 ?FromHandle@CDC@@SGPAV1@PAUHDC__@@@Z ; CDC::FromHandle
; File D:\git\src\IBK\IBK_DRFN\ProjSrc\SrcChartEx\ChartAddIn\ChartPatternAddIn\Control_Grid\GridCellBase.cpp

; 807  : 			pDC = pGrid->GetDC();

  000bf	8b f8		 mov	 edi, eax

; 808  :         if (pDC == NULL || szText == NULL) 

  000c1	85 ff		 test	 edi, edi
  000c3	74 9c		 je	 SHORT $LN8@GetTextExt

; 813  :         }
; 814  :         bReleaseDC = TRUE;

  000c5	c7 45 80 01 00
	00 00		 mov	 DWORD PTR _bReleaseDC$1$[ebp], 1
$LN4@GetTextExt:

; 815  :     }
; 816  : 
; 817  :     CFont *pOldFont = NULL,
; 818  :           *pFont = GetFontObject();

  000cc	8b 06		 mov	 eax, DWORD PTR [esi]
  000ce	8b ce		 mov	 ecx, esi
  000d0	89 5d 88	 mov	 DWORD PTR _pOldFont$1$[ebp], ebx
  000d3	ff 50 64	 call	 DWORD PTR [eax+100]
  000d6	8b c8		 mov	 ecx, eax

; 819  :     if (pFont)

  000d8	85 c9		 test	 ecx, ecx
  000da	74 0b		 je	 SHORT $LN9@GetTextExt

; 820  :         pOldFont = pDC->SelectObject(pFont);

  000dc	8b 07		 mov	 eax, DWORD PTR [edi]
  000de	51		 push	 ecx
  000df	8b cf		 mov	 ecx, edi
  000e1	ff 50 30	 call	 DWORD PTR [eax+48]
  000e4	89 45 88	 mov	 DWORD PTR _pOldFont$1$[ebp], eax
$LN9@GetTextExt:

; 821  : 
; 822  :     CSize size;
; 823  :     int nFormat = GetFormat();

  000e7	8b 06		 mov	 eax, DWORD PTR [esi]
  000e9	8b ce		 mov	 ecx, esi
  000eb	ff 50 54	 call	 DWORD PTR [eax+84]
  000ee	89 45 98	 mov	 DWORD PTR _nFormat$1$[ebp], eax
  000f1	24 30		 and	 al, 48			; 00000030H
  000f3	3c 10		 cmp	 al, 16			; 00000010H

; 824  : 
; 825  :     // If the cell is a multiline cell, then use the width of the cell
; 826  :     // to get the height
; 827  :     if ((nFormat & DT_WORDBREAK) && !(nFormat & DT_SINGLELINE))

  000f5	0f 85 7f 01 00
	00		 jne	 $LN10@GetTextExt

; 828  :     {
; 829  :         CString str = szText;

  000fb	ff 75 9c	 push	 DWORD PTR _szText$GSCopy$1$[ebp]
  000fe	8d 4d a4	 lea	 ecx, DWORD PTR _str$13[ebp]
  00101	ff 15 00 00 00
	00		 call	 DWORD PTR __imp_??0?$CStringT@DV?$StrTraitMFC_DLL@DV?$ChTraitsCRT@D@ATL@@@@@ATL@@QAE@PBD@Z

; 830  :         int nMaxWidth = 0;

  00107	33 c0		 xor	 eax, eax
  00109	c7 45 fc 00 00
	00 00		 mov	 DWORD PTR __$EHRec$[ebp+8], 0
  00110	89 45 a0	 mov	 DWORD PTR _nMaxWidth$1$[ebp], eax
$LL2@GetTextExt:

; 831  :         while (TRUE)
; 832  :         {
; 833  :             int nPos = str.Find(_T('\n'));

  00113	6a 00		 push	 0
  00115	6a 0a		 push	 10			; 0000000aH
  00117	8d 4d a4	 lea	 ecx, DWORD PTR _str$13[ebp]
  0011a	ff 15 00 00 00
	00		 call	 DWORD PTR __imp_?Find@?$CStringT@DV?$StrTraitMFC_DLL@DV?$ChTraitsCRT@D@ATL@@@@@ATL@@QBEHDH@Z
  00120	8b f0		 mov	 esi, eax

; 834  :             CString TempStr = (nPos < 0)? str : str.Left(nPos);

  00122	85 f6		 test	 esi, esi
  00124	79 19		 jns	 SHORT $LN19@GetTextExt
  00126	8d 45 a4	 lea	 eax, DWORD PTR _str$13[ebp]
  00129	50		 push	 eax
  0012a	8d 8d 78 ff ff
	ff		 lea	 ecx, DWORD PTR $T9[ebp]
  00130	ff 15 00 00 00
	00		 call	 DWORD PTR __imp_??0?$CStringT@DV?$StrTraitMFC_DLL@DV?$ChTraitsCRT@D@ATL@@@@@ATL@@QAE@ABV01@@Z
  00136	c6 45 fc 01	 mov	 BYTE PTR __$EHRec$[ebp+8], 1
  0013a	83 cb 01	 or	 ebx, 1
  0013d	eb 1b		 jmp	 SHORT $LN80@GetTextExt
$LN19@GetTextExt:
  0013f	56		 push	 esi
  00140	8d 85 70 ff ff
	ff		 lea	 eax, DWORD PTR $T7[ebp]
  00146	50		 push	 eax
  00147	8d 4d a4	 lea	 ecx, DWORD PTR _str$13[ebp]
  0014a	ff 15 00 00 00
	00		 call	 DWORD PTR __imp_?Left@?$CStringT@DV?$StrTraitMFC_DLL@DV?$ChTraitsCRT@D@ATL@@@@@ATL@@QBE?AV12@H@Z
  00150	c7 45 fc 02 00
	00 00		 mov	 DWORD PTR __$EHRec$[ebp+8], 2
  00157	83 cb 02	 or	 ebx, 2
$LN80@GetTextExt:
  0015a	50		 push	 eax
  0015b	8d 4d 90	 lea	 ecx, DWORD PTR _TempStr$11[ebp]
  0015e	89 5d 94	 mov	 DWORD PTR $T12[ebp], ebx
  00161	ff 15 00 00 00
	00		 call	 DWORD PTR __imp_??0?$CStringT@DV?$StrTraitMFC_DLL@DV?$ChTraitsCRT@D@ATL@@@@@ATL@@QAE@ABV01@@Z
  00167	c7 45 fc 03 00
	00 00		 mov	 DWORD PTR __$EHRec$[ebp+8], 3
  0016e	f6 c3 02	 test	 bl, 2
  00171	74 12		 je	 SHORT $LN27@GetTextExt
  00173	83 e3 fd	 and	 ebx, -3			; fffffffdH
  00176	8d 8d 70 ff ff
	ff		 lea	 ecx, DWORD PTR $T7[ebp]
  0017c	89 5d 94	 mov	 DWORD PTR $T12[ebp], ebx
  0017f	ff 15 00 00 00
	00		 call	 DWORD PTR __imp_??1?$CStringT@DV?$StrTraitMFC_DLL@DV?$ChTraitsCRT@D@ATL@@@@@ATL@@QAE@XZ
$LN27@GetTextExt:
  00185	c6 45 fc 05	 mov	 BYTE PTR __$EHRec$[ebp+8], 5
  00189	f6 c3 01	 test	 bl, 1
  0018c	74 12		 je	 SHORT $LN28@GetTextExt
  0018e	83 e3 fe	 and	 ebx, -2			; fffffffeH
  00191	8d 8d 78 ff ff
	ff		 lea	 ecx, DWORD PTR $T9[ebp]
  00197	89 5d 94	 mov	 DWORD PTR $T12[ebp], ebx
  0019a	ff 15 00 00 00
	00		 call	 DWORD PTR __imp_??1?$CStringT@DV?$StrTraitMFC_DLL@DV?$ChTraitsCRT@D@ATL@@@@@ATL@@QAE@XZ
$LN28@GetTextExt:
; File C:\Program Files (x86)\Microsoft Visual Studio\2019\Community\VC\Tools\MSVC\14.29.30133\atlmfc\include\atlsimpstr.h

; 519  : 		return( GetData()->nDataLength );

  001a0	8b 45 90	 mov	 eax, DWORD PTR _TempStr$11[ebp]
; File C:\Program Files (x86)\Microsoft Visual Studio\2019\Community\VC\Tools\MSVC\14.29.30133\atlmfc\include\afxwin1.inl

; 639  : 		VERIFY(::GetTextExtentPoint32(m_hAttribDC, str, (int)str.GetLength(), &size));

  001a3	8d 8d 64 ff ff
	ff		 lea	 ecx, DWORD PTR _size$6[ebp]
  001a9	51		 push	 ecx
  001aa	ff 70 f4	 push	 DWORD PTR [eax-12]
  001ad	50		 push	 eax
  001ae	ff 77 08	 push	 DWORD PTR [edi+8]
  001b1	ff 15 00 00 00
	00		 call	 DWORD PTR __imp__GetTextExtentPoint32A@16
; File D:\git\src\IBK\IBK_DRFN\ProjSrc\SrcChartEx\ChartAddIn\ChartPatternAddIn\Control_Grid\GridCellBase.cpp

; 839  :             if (nPos < 0)

  001b7	8b 85 64 ff ff
	ff		 mov	 eax, DWORD PTR _size$6[ebp]
  001bd	3b 45 a0	 cmp	 eax, DWORD PTR _nMaxWidth$1$[ebp]
  001c0	0f 4e 45 a0	 cmovle	 eax, DWORD PTR _nMaxWidth$1$[ebp]
  001c4	89 45 a0	 mov	 DWORD PTR _nMaxWidth$1$[ebp], eax
  001c7	85 f6		 test	 esi, esi
  001c9	78 3a		 js	 SHORT $LN73@GetTextExt

; 841  :             str = str.Mid(nPos + 1);    // Bug fix by Thomas Steinborn

  001cb	8d 46 01	 lea	 eax, DWORD PTR [esi+1]
  001ce	50		 push	 eax
  001cf	8d 45 8c	 lea	 eax, DWORD PTR $T10[ebp]
  001d2	50		 push	 eax
  001d3	8d 4d a4	 lea	 ecx, DWORD PTR _str$13[ebp]
  001d6	ff 15 00 00 00
	00		 call	 DWORD PTR __imp_?Mid@?$CStringT@DV?$StrTraitMFC_DLL@DV?$ChTraitsCRT@D@ATL@@@@@ATL@@QBE?AV12@H@Z
  001dc	50		 push	 eax
  001dd	8d 4d a4	 lea	 ecx, DWORD PTR _str$13[ebp]
  001e0	c6 45 fc 06	 mov	 BYTE PTR __$EHRec$[ebp+8], 6
  001e4	ff 15 00 00 00
	00		 call	 DWORD PTR __imp_??4?$CStringT@DV?$StrTraitMFC_DLL@DV?$ChTraitsCRT@D@ATL@@@@@ATL@@QAEAAV01@ABV01@@Z
  001ea	8d 4d 8c	 lea	 ecx, DWORD PTR $T10[ebp]
  001ed	ff 15 00 00 00
	00		 call	 DWORD PTR __imp_??1?$CStringT@DV?$StrTraitMFC_DLL@DV?$ChTraitsCRT@D@ATL@@@@@ATL@@QAE@XZ

; 842  :         }

  001f3	8d 4d 90	 lea	 ecx, DWORD PTR _TempStr$11[ebp]
  001f6	c6 45 fc 00	 mov	 BYTE PTR __$EHRec$[ebp+8], 0
  001fa	ff 15 00 00 00
	00		 call	 DWORD PTR __imp_??1?$CStringT@DV?$StrTraitMFC_DLL@DV?$ChTraitsCRT@D@ATL@@@@@ATL@@QAE@XZ
  00200	e9 0e ff ff ff	 jmp	 $LL2@GetTextExt
$LN73@GetTextExt:

; 840  :                 break;

  00205	8d 4d 90	 lea	 ecx, DWORD PTR _TempStr$11[ebp]
  00208	c6 45 fc 00	 mov	 BYTE PTR __$EHRec$[ebp+8], 0
  0020c	ff 15 00 00 00
	00		 call	 DWORD PTR __imp_??1?$CStringT@DV?$StrTraitMFC_DLL@DV?$ChTraitsCRT@D@ATL@@@@@ATL@@QAE@XZ

; 845  :         rect.SetRect(0,0, nMaxWidth+1, 0);

  00212	8b 45 a0	 mov	 eax, DWORD PTR _nMaxWidth$1$[ebp]
  00215	0f 57 c0	 xorps	 xmm0, xmm0
; File C:\Program Files (x86)\Microsoft Visual Studio\2019\Community\VC\Tools\MSVC\14.29.30133\atlmfc\include\atltypes.h

; 657  : 	::SetRect(this, x1, y1, x2, y2);

  00218	6a 00		 push	 0
; File D:\git\src\IBK\IBK_DRFN\ProjSrc\SrcChartEx\ChartAddIn\ChartPatternAddIn\Control_Grid\GridCellBase.cpp

; 845  :         rect.SetRect(0,0, nMaxWidth+1, 0);

  0021a	40		 inc	 eax
; File C:\Program Files (x86)\Microsoft Visual Studio\2019\Community\VC\Tools\MSVC\14.29.30133\atlmfc\include\atltypes.h

; 657  : 	::SetRect(this, x1, y1, x2, y2);

  0021b	50		 push	 eax
  0021c	6a 00		 push	 0
  0021e	6a 00		 push	 0
  00220	8d 45 e0	 lea	 eax, DWORD PTR _rect$14[ebp]
  00223	50		 push	 eax

; 528  : 	left = 0;

  00224	0f 11 45 e0	 movups	 XMMWORD PTR _rect$14[ebp], xmm0

; 657  : 	::SetRect(this, x1, y1, x2, y2);

  00228	ff 15 00 00 00
	00		 call	 DWORD PTR __imp__SetRect@20

; 710  : 	::OffsetRect(this, x, y);

  0022e	6a 01		 push	 1
  00230	6a 00		 push	 0
  00232	8d 45 e0	 lea	 eax, DWORD PTR _rect$14[ebp]
  00235	50		 push	 eax
  00236	ff 15 00 00 00
	00		 call	 DWORD PTR __imp__OffsetRect@12
; File D:\git\src\IBK\IBK_DRFN\ProjSrc\SrcChartEx\ChartAddIn\ChartPatternAddIn\Control_Grid\GridCellBase.cpp

; 847  :         pDC->DrawText(szText, -1, rect, nFormat | DT_CALCRECT);

  0023c	8b 4d 98	 mov	 ecx, DWORD PTR _nFormat$1$[ebp]
  0023f	8b 07		 mov	 eax, DWORD PTR [edi]
  00241	81 c9 00 04 00
	00		 or	 ecx, 1024		; 00000400H
  00247	51		 push	 ecx
  00248	8d 4d e0	 lea	 ecx, DWORD PTR _rect$14[ebp]
  0024b	51		 push	 ecx
  0024c	6a ff		 push	 -1
  0024e	ff 75 9c	 push	 DWORD PTR _szText$GSCopy$1$[ebp]
  00251	8b cf		 mov	 ecx, edi
  00253	ff 50 70	 call	 DWORD PTR [eax+112]
; File C:\Program Files (x86)\Microsoft Visual Studio\2019\Community\VC\Tools\MSVC\14.29.30133\atlmfc\include\atltypes.h

; 586  : 	return CSize(right - left, bottom - top);

  00256	8b 45 ec	 mov	 eax, DWORD PTR _rect$14[ebp+12]
; File D:\git\src\IBK\IBK_DRFN\ProjSrc\SrcChartEx\ChartAddIn\ChartPatternAddIn\Control_Grid\GridCellBase.cpp

; 849  :     }

  00259	8d 4d a4	 lea	 ecx, DWORD PTR _str$13[ebp]
; File C:\Program Files (x86)\Microsoft Visual Studio\2019\Community\VC\Tools\MSVC\14.29.30133\atlmfc\include\atltypes.h

; 586  : 	return CSize(right - left, bottom - top);

  0025c	2b 45 e4	 sub	 eax, DWORD PTR _rect$14[ebp+4]
  0025f	8b 5d e8	 mov	 ebx, DWORD PTR _rect$14[ebp+8]
  00262	2b 5d e0	 sub	 ebx, DWORD PTR _rect$14[ebp]
  00265	89 45 a0	 mov	 DWORD PTR _size$3$[ebp], eax
; File D:\git\src\IBK\IBK_DRFN\ProjSrc\SrcChartEx\ChartAddIn\ChartPatternAddIn\Control_Grid\GridCellBase.cpp

; 849  :     }

  00268	c7 45 fc ff ff
	ff ff		 mov	 DWORD PTR __$EHRec$[ebp+8], -1
  0026f	ff 15 00 00 00
	00		 call	 DWORD PTR __imp_??1?$CStringT@DV?$StrTraitMFC_DLL@DV?$ChTraitsCRT@D@ATL@@@@@ATL@@QAE@XZ
  00275	8b 75 84	 mov	 esi, DWORD PTR _this$GSCopy$1$[ebp]
  00278	eb 32		 jmp	 SHORT $LN11@GetTextExt
$LN10@GetTextExt:

; 851  :         size = pDC->GetTextExtent(szText, _tcslen(szText));

  0027a	8b 55 9c	 mov	 edx, DWORD PTR _szText$GSCopy$1$[ebp]
  0027d	8b ca		 mov	 ecx, edx
  0027f	8d 59 01	 lea	 ebx, DWORD PTR [ecx+1]
$LL77@GetTextExt:
  00282	8a 01		 mov	 al, BYTE PTR [ecx]
  00284	41		 inc	 ecx
  00285	84 c0		 test	 al, al
  00287	75 f9		 jne	 SHORT $LL77@GetTextExt
; File C:\Program Files (x86)\Microsoft Visual Studio\2019\Community\VC\Tools\MSVC\14.29.30133\atlmfc\include\afxwin1.inl

; 632  : 		VERIFY(::GetTextExtentPoint32(m_hAttribDC, lpszString, nCount, &size));

  00289	8d 85 74 ff ff
	ff		 lea	 eax, DWORD PTR _size$8[ebp]
; File D:\git\src\IBK\IBK_DRFN\ProjSrc\SrcChartEx\ChartAddIn\ChartPatternAddIn\Control_Grid\GridCellBase.cpp

; 851  :         size = pDC->GetTextExtent(szText, _tcslen(szText));

  0028f	2b cb		 sub	 ecx, ebx
; File C:\Program Files (x86)\Microsoft Visual Studio\2019\Community\VC\Tools\MSVC\14.29.30133\atlmfc\include\afxwin1.inl

; 632  : 		VERIFY(::GetTextExtentPoint32(m_hAttribDC, lpszString, nCount, &size));

  00291	50		 push	 eax
  00292	51		 push	 ecx
  00293	52		 push	 edx
  00294	ff 77 08	 push	 DWORD PTR [edi+8]
  00297	ff 15 00 00 00
	00		 call	 DWORD PTR __imp__GetTextExtentPoint32A@16
; File D:\git\src\IBK\IBK_DRFN\ProjSrc\SrcChartEx\ChartAddIn\ChartPatternAddIn\Control_Grid\GridCellBase.cpp

; 851  :         size = pDC->GetTextExtent(szText, _tcslen(szText));

  0029d	8b 85 78 ff ff
	ff		 mov	 eax, DWORD PTR _size$8[ebp+4]
  002a3	8b 9d 74 ff ff
	ff		 mov	 ebx, DWORD PTR _size$8[ebp]
  002a9	89 45 a0	 mov	 DWORD PTR _size$3$[ebp], eax
$LN11@GetTextExt:
; File C:\Program Files (x86)\Microsoft Visual Studio\2019\Community\VC\Tools\MSVC\14.29.30133\atlmfc\include\afxwin1.inl

; 689  : 	{ ASSERT(m_hAttribDC != NULL); return ::GetTextMetrics(m_hAttribDC, lpMetrics); }

  002ac	8d 45 a8	 lea	 eax, DWORD PTR _tm$[ebp]
  002af	50		 push	 eax
  002b0	ff 77 08	 push	 DWORD PTR [edi+8]
  002b3	ff 15 00 00 00
	00		 call	 DWORD PTR __imp__GetTextMetricsA@8
; File D:\git\src\IBK\IBK_DRFN\ProjSrc\SrcChartEx\ChartAddIn\ChartPatternAddIn\Control_Grid\GridCellBase.cpp

; 855  :     size.cx += (tm.tmOverhang);

  002b9	8b 45 c8	 mov	 eax, DWORD PTR _tm$[ebp+32]

; 856  : 
; 857  :     if (pOldFont)

  002bc	8b 4d 88	 mov	 ecx, DWORD PTR _pOldFont$1$[ebp]
  002bf	03 c3		 add	 eax, ebx
  002c1	89 45 98	 mov	 DWORD PTR tv713[ebp], eax
  002c4	85 c9		 test	 ecx, ecx
  002c6	74 08		 je	 SHORT $LN14@GetTextExt

; 858  :         pDC->SelectObject(pOldFont);

  002c8	8b 07		 mov	 eax, DWORD PTR [edi]
  002ca	51		 push	 ecx
  002cb	8b cf		 mov	 ecx, edi
  002cd	ff 50 30	 call	 DWORD PTR [eax+48]
$LN14@GetTextExt:

; 859  :     
; 860  :     size += CSize(4*GetMargin(), 2*GetMargin());

  002d0	8b 06		 mov	 eax, DWORD PTR [esi]
  002d2	8b ce		 mov	 ecx, esi
  002d4	ff 50 70	 call	 DWORD PTR [eax+112]
  002d7	8b 5d 84	 mov	 ebx, DWORD PTR _this$GSCopy$1$[ebp]
  002da	8b f0		 mov	 esi, eax
  002dc	8b cb		 mov	 ecx, ebx
  002de	03 f6		 add	 esi, esi
  002e0	8b 03		 mov	 eax, DWORD PTR [ebx]
  002e2	ff 50 70	 call	 DWORD PTR [eax+112]
; File C:\Program Files (x86)\Microsoft Visual Studio\2019\Community\VC\Tools\MSVC\14.29.30133\atlmfc\include\atltypes.h

; 345  : 	cy += size.cy;

  002e5	03 75 a0	 add	 esi, DWORD PTR _size$3$[ebp]
; File D:\git\src\IBK\IBK_DRFN\ProjSrc\SrcChartEx\ChartAddIn\ChartPatternAddIn\Control_Grid\GridCellBase.cpp

; 863  :     LOGFONT *pLF = GetFont();

  002e8	8b cb		 mov	 ecx, ebx
  002ea	c1 e0 02	 shl	 eax, 2
  002ed	03 45 98	 add	 eax, DWORD PTR tv713[ebp]
  002f0	89 45 98	 mov	 DWORD PTR tv704[ebp], eax
; File C:\Program Files (x86)\Microsoft Visual Studio\2019\Community\VC\Tools\MSVC\14.29.30133\atlmfc\include\atltypes.h

; 344  : 	cx += size.cx;

  002f3	89 45 8c	 mov	 DWORD PTR _size$2$[ebp], eax
; File D:\git\src\IBK\IBK_DRFN\ProjSrc\SrcChartEx\ChartAddIn\ChartPatternAddIn\Control_Grid\GridCellBase.cpp

; 863  :     LOGFONT *pLF = GetFont();

  002f6	8b 03		 mov	 eax, DWORD PTR [ebx]
  002f8	ff 50 60	 call	 DWORD PTR [eax+96]

; 864  :     if (pLF->lfEscapement == 900 || pLF->lfEscapement == -900)

  002fb	8b 40 08	 mov	 eax, DWORD PTR [eax+8]
  002fe	3d 84 03 00 00	 cmp	 eax, 900		; 00000384H
  00303	74 07		 je	 SHORT $LN16@GetTextExt
  00305	3d 7c fc ff ff	 cmp	 eax, -900		; fffffc7cH
  0030a	75 13		 jne	 SHORT $LN78@GetTextExt
$LN16@GetTextExt:

; 869  :         size += CSize(0, 4*GetMargin());

  0030c	8b 03		 mov	 eax, DWORD PTR [ebx]
  0030e	8b cb		 mov	 ecx, ebx
  00310	ff 50 70	 call	 DWORD PTR [eax+112]
; File C:\Program Files (x86)\Microsoft Visual Studio\2019\Community\VC\Tools\MSVC\14.29.30133\atlmfc\include\atltypes.h

; 344  : 	cx += size.cx;

  00313	8b de		 mov	 ebx, esi
; File D:\git\src\IBK\IBK_DRFN\ProjSrc\SrcChartEx\ChartAddIn\ChartPatternAddIn\Control_Grid\GridCellBase.cpp

; 869  :         size += CSize(0, 4*GetMargin());

  00315	c1 e0 02	 shl	 eax, 2
; File C:\Program Files (x86)\Microsoft Visual Studio\2019\Community\VC\Tools\MSVC\14.29.30133\atlmfc\include\atltypes.h

; 344  : 	cx += size.cx;

  00318	8b 75 98	 mov	 esi, DWORD PTR tv704[ebp]
  0031b	03 f0		 add	 esi, eax
; File D:\git\src\IBK\IBK_DRFN\ProjSrc\SrcChartEx\ChartAddIn\ChartPatternAddIn\Control_Grid\GridCellBase.cpp

; 864  :     if (pLF->lfEscapement == 900 || pLF->lfEscapement == -900)

  0031d	eb 03		 jmp	 SHORT $LN15@GetTextExt
$LN78@GetTextExt:
  0031f	8b 5d 8c	 mov	 ebx, DWORD PTR _size$2$[ebp]
$LN15@GetTextExt:

; 870  :     }
; 871  :     
; 872  :     if (bReleaseDC)

  00322	83 7d 80 00	 cmp	 DWORD PTR _bReleaseDC$1$[ebp], 0
  00326	74 12		 je	 SHORT $LN17@GetTextExt
; File C:\Program Files (x86)\Microsoft Visual Studio\2019\Community\VC\Tools\MSVC\14.29.30133\atlmfc\include\afxwin2.inl

; 104  : 	{ ASSERT(::IsWindow(m_hWnd)); return ::ReleaseDC(m_hWnd, pDC->m_hDC); }

  00328	8b 85 6c ff ff
	ff		 mov	 eax, DWORD PTR _pGrid$1$[ebp]
  0032e	ff 77 04	 push	 DWORD PTR [edi+4]
  00331	ff 70 20	 push	 DWORD PTR [eax+32]
  00334	ff 15 00 00 00
	00		 call	 DWORD PTR __imp__ReleaseDC@8
$LN17@GetTextExt:
; File D:\git\src\IBK\IBK_DRFN\ProjSrc\SrcChartEx\ChartAddIn\ChartPatternAddIn\Control_Grid\GridCellBase.cpp

; 875  :     return size;

  0033a	8b 85 7c ff ff
	ff		 mov	 eax, DWORD PTR ___$ReturnUdt$GSCopy$1$[ebp]
  00340	89 18		 mov	 DWORD PTR [eax], ebx
  00342	89 70 04	 mov	 DWORD PTR [eax+4], esi
  00345	e9 43 fd ff ff	 jmp	 $LN1@GetTextExt
_TEXT	ENDS
;	COMDAT text$x
text$x	SEGMENT
__unwindfunclet$?GetTextExtent@CGridCellBase@@UAE?AVCSize@@PBDPAVCDC@@@Z$0:
  00000	8d 4d a4	 lea	 ecx, DWORD PTR _str$13[ebp]
  00003	ff 25 00 00 00
	00		 jmp	 DWORD PTR __imp_??1?$CStringT@DV?$StrTraitMFC_DLL@DV?$ChTraitsCRT@D@ATL@@@@@ATL@@QAE@XZ
__unwindfunclet$?GetTextExtent@CGridCellBase@@UAE?AVCSize@@PBDPAVCDC@@@Z$1:
  00009	8b 45 94	 mov	 eax, DWORD PTR $T12[ebp]
  0000c	83 e0 01	 and	 eax, 1
  0000f	0f 84 10 00 00
	00		 je	 $LN23@GetTextExt
  00015	83 65 94 fe	 and	 DWORD PTR $T12[ebp], -2	; fffffffeH
  00019	8d 8d 78 ff ff
	ff		 lea	 ecx, DWORD PTR $T9[ebp]
  0001f	ff 25 00 00 00
	00		 jmp	 DWORD PTR __imp_??1?$CStringT@DV?$StrTraitMFC_DLL@DV?$ChTraitsCRT@D@ATL@@@@@ATL@@QAE@XZ
$LN23@GetTextExt:
  00025	c3		 ret	 0
__unwindfunclet$?GetTextExtent@CGridCellBase@@UAE?AVCSize@@PBDPAVCDC@@@Z$2:
  00026	8b 45 94	 mov	 eax, DWORD PTR $T12[ebp]
  00029	83 e0 02	 and	 eax, 2
  0002c	0f 84 10 00 00
	00		 je	 $LN25@GetTextExt
  00032	83 65 94 fd	 and	 DWORD PTR $T12[ebp], -3	; fffffffdH
  00036	8d 8d 70 ff ff
	ff		 lea	 ecx, DWORD PTR $T7[ebp]
  0003c	ff 25 00 00 00
	00		 jmp	 DWORD PTR __imp_??1?$CStringT@DV?$StrTraitMFC_DLL@DV?$ChTraitsCRT@D@ATL@@@@@ATL@@QAE@XZ
$LN25@GetTextExt:
  00042	c3		 ret	 0
__unwindfunclet$?GetTextExtent@CGridCellBase@@UAE?AVCSize@@PBDPAVCDC@@@Z$3:
  00043	8d 4d 90	 lea	 ecx, DWORD PTR _TempStr$11[ebp]
  00046	ff 25 00 00 00
	00		 jmp	 DWORD PTR __imp_??1?$CStringT@DV?$StrTraitMFC_DLL@DV?$ChTraitsCRT@D@ATL@@@@@ATL@@QAE@XZ
__unwindfunclet$?GetTextExtent@CGridCellBase@@UAE?AVCSize@@PBDPAVCDC@@@Z$4:
  0004c	8d 4d 8c	 lea	 ecx, DWORD PTR $T10[ebp]
  0004f	ff 25 00 00 00
	00		 jmp	 DWORD PTR __imp_??1?$CStringT@DV?$StrTraitMFC_DLL@DV?$ChTraitsCRT@D@ATL@@@@@ATL@@QAE@XZ
  00055	cc		 int	 3
  00056	cc		 int	 3
  00057	cc		 int	 3
  00058	cc		 int	 3
  00059	cc		 int	 3
__ehhandler$?GetTextExtent@CGridCellBase@@UAE?AVCSize@@PBDPAVCDC@@@Z:
  0005a	90		 npad	 1
  0005b	90		 npad	 1
  0005c	8b 54 24 08	 mov	 edx, DWORD PTR [esp+8]
  00060	8d 42 0c	 lea	 eax, DWORD PTR [edx+12]
  00063	8b 8a 60 ff ff
	ff		 mov	 ecx, DWORD PTR [edx-160]
  00069	33 c8		 xor	 ecx, eax
  0006b	e8 00 00 00 00	 call	 @__security_check_cookie@4
  00070	8b 4a fc	 mov	 ecx, DWORD PTR [edx-4]
  00073	33 c8		 xor	 ecx, eax
  00075	e8 00 00 00 00	 call	 @__security_check_cookie@4
  0007a	b8 00 00 00 00	 mov	 eax, OFFSET __ehfuncinfo$?GetTextExtent@CGridCellBase@@UAE?AVCSize@@PBDPAVCDC@@@Z
  0007f	e9 00 00 00 00	 jmp	 ___CxxFrameHandler3
text$x	ENDS
?GetTextExtent@CGridCellBase@@UAE?AVCSize@@PBDPAVCDC@@@Z ENDP ; CGridCellBase::GetTextExtent
; Function compile flags: /Ogtp
; File D:\git\src\IBK\IBK_DRFN\ProjSrc\SrcChartEx\ChartAddIn\ChartPatternAddIn\Control_Grid\GridCellBase.h
;	COMDAT ?GetTipTextRect@CGridCellBase@@UAEHPAUtagRECT@@@Z
_TEXT	SEGMENT
_pRect$ = 8						; size = 4
?GetTipTextRect@CGridCellBase@@UAEHPAUtagRECT@@@Z PROC	; CGridCellBase::GetTipTextRect, COMDAT
; _this$ = ecx

; 143  :     virtual BOOL GetTipTextRect( LPRECT pRect) { return GetTextRect( pRect); }  // may override for btns, etc.

  00000	55		 push	 ebp
  00001	8b ec		 mov	 ebp, esp
  00003	8b 01		 mov	 eax, DWORD PTR [ecx]
  00005	5d		 pop	 ebp
  00006	ff a0 ac 00 00
	00		 jmp	 DWORD PTR [eax+172]
?GetTipTextRect@CGridCellBase@@UAEHPAUtagRECT@@@Z ENDP	; CGridCellBase::GetTipTextRect
_TEXT	ENDS
; Function compile flags: /Ogtp
; File D:\git\src\IBK\IBK_DRFN\ProjSrc\SrcChartEx\ChartAddIn\ChartPatternAddIn\Control_Grid\GridCellBase.cpp
; File C:\Program Files (x86)\Microsoft Visual Studio\2019\Community\VC\Tools\MSVC\14.29.30133\atlmfc\include\afxwin1.inl
; File D:\git\src\IBK\IBK_DRFN\ProjSrc\SrcChartEx\ChartAddIn\ChartPatternAddIn\Control_Grid\GridCellBase.cpp
;	COMDAT ?GetTextRect@CGridCellBase@@UAEHPAUtagRECT@@@Z
_TEXT	SEGMENT
_Info$1 = -36						; size = 32
__$ArrayPad$ = -4					; size = 4
_pRect$ = 8						; size = 4
?GetTextRect@CGridCellBase@@UAEHPAUtagRECT@@@Z PROC	; CGridCellBase::GetTextRect, COMDAT
; _this$ = ecx

; 779  : {

  00000	55		 push	 ebp
  00001	8b ec		 mov	 ebp, esp
  00003	83 ec 24	 sub	 esp, 36			; 00000024H
  00006	a1 00 00 00 00	 mov	 eax, DWORD PTR ___security_cookie
  0000b	33 c5		 xor	 eax, ebp
  0000d	89 45 fc	 mov	 DWORD PTR __$ArrayPad$[ebp], eax
  00010	53		 push	 ebx
  00011	8b 5d 08	 mov	 ebx, DWORD PTR _pRect$[ebp]
  00014	57		 push	 edi
  00015	8b f9		 mov	 edi, ecx

; 780  :     if (GetImage() >= 0)

  00017	8b 07		 mov	 eax, DWORD PTR [edi]
  00019	ff 50 48	 call	 DWORD PTR [eax+72]
  0001c	85 c0		 test	 eax, eax
  0001e	78 55		 js	 SHORT $LN9@GetTextRec

; 781  :     {
; 782  :         IMAGEINFO Info;
; 783  : 
; 784  :         CGridCtrl* pGrid = GetGrid();

  00020	8b 07		 mov	 eax, DWORD PTR [edi]
  00022	8b cf		 mov	 ecx, edi
  00024	56		 push	 esi
  00025	ff 50 68	 call	 DWORD PTR [eax+104]

; 785  :         CImageList* pImageList = pGrid->GetImageList();

  00028	8b b0 9c 02 00
	00		 mov	 esi, DWORD PTR [eax+668]

; 787  :         if (pImageList && pImageList->GetImageInfo( GetImage(), &Info))

  0002e	85 f6		 test	 esi, esi
  00030	74 2b		 je	 SHORT $LN8@GetTextRec
  00032	8b 07		 mov	 eax, DWORD PTR [edi]
  00034	8b cf		 mov	 ecx, edi
  00036	ff 50 48	 call	 DWORD PTR [eax+72]
; File C:\Program Files (x86)\Microsoft Visual Studio\2019\Community\VC\Tools\MSVC\14.29.30133\atlmfc\include\afxwin1.inl

; 881  : 	{ ASSERT(m_hImageList != NULL); return ImageList_GetImageInfo(m_hImageList, nImage, pImageInfo); }

  00039	8d 4d dc	 lea	 ecx, DWORD PTR _Info$1[ebp]
  0003c	51		 push	 ecx
  0003d	50		 push	 eax
  0003e	ff 76 04	 push	 DWORD PTR [esi+4]
  00041	ff 15 00 00 00
	00		 call	 DWORD PTR __imp__ImageList_GetImageInfo@12
; File D:\git\src\IBK\IBK_DRFN\ProjSrc\SrcChartEx\ChartAddIn\ChartPatternAddIn\Control_Grid\GridCellBase.cpp

; 787  :         if (pImageList && pImageList->GetImageInfo( GetImage(), &Info))

  00047	85 c0		 test	 eax, eax
  00049	74 12		 je	 SHORT $LN8@GetTextRec

; 788  :         {
; 789  :             int nImageWidth = Info.rcImage.right-Info.rcImage.left+1;
; 790  :             pRect->left += nImageWidth + GetMargin();

  0004b	8b 07		 mov	 eax, DWORD PTR [edi]
  0004d	8b cf		 mov	 ecx, edi
  0004f	8b 75 f4	 mov	 esi, DWORD PTR _Info$1[ebp+24]
  00052	2b 75 ec	 sub	 esi, DWORD PTR _Info$1[ebp+16]
  00055	ff 50 70	 call	 DWORD PTR [eax+112]
  00058	46		 inc	 esi
  00059	03 c6		 add	 eax, esi
  0005b	01 03		 add	 DWORD PTR [ebx], eax
$LN8@GetTextRec:

; 791  :         }
; 792  :     }
; 793  : 
; 794  :     return TRUE;

  0005d	5e		 pop	 esi
  0005e	5f		 pop	 edi
  0005f	b8 01 00 00 00	 mov	 eax, 1

; 795  : }

  00064	5b		 pop	 ebx
  00065	8b 4d fc	 mov	 ecx, DWORD PTR __$ArrayPad$[ebp]
  00068	33 cd		 xor	 ecx, ebp
  0006a	e8 00 00 00 00	 call	 @__security_check_cookie@4
  0006f	8b e5		 mov	 esp, ebp
  00071	5d		 pop	 ebp
  00072	c2 04 00	 ret	 4
$LN9@GetTextRec:
  00075	8b 4d fc	 mov	 ecx, DWORD PTR __$ArrayPad$[ebp]
  00078	b8 01 00 00 00	 mov	 eax, 1
  0007d	5f		 pop	 edi
  0007e	33 cd		 xor	 ecx, ebp
  00080	5b		 pop	 ebx
  00081	e8 00 00 00 00	 call	 @__security_check_cookie@4
  00086	8b e5		 mov	 esp, ebp
  00088	5d		 pop	 ebp
  00089	c2 04 00	 ret	 4
?GetTextRect@CGridCellBase@@UAEHPAUtagRECT@@@Z ENDP	; CGridCellBase::GetTextRect
_TEXT	ENDS
; Function compile flags: /Ogtp
; File D:\git\src\IBK\IBK_DRFN\ProjSrc\SrcChartEx\ChartAddIn\ChartPatternAddIn\Control_Grid\GridCellBase.cpp
; File C:\Program Files (x86)\Microsoft Visual Studio\2019\Community\VC\Tools\MSVC\14.29.30133\atlmfc\include\atltypes.h
; File D:\git\src\IBK\IBK_DRFN\ProjSrc\SrcChartEx\ChartAddIn\ChartPatternAddIn\Control_Grid\GridCellBase.cpp
; File C:\Program Files (x86)\Microsoft Visual Studio\2019\Community\VC\Tools\MSVC\14.29.30133\atlmfc\include\atltypes.h
; File D:\git\src\IBK\IBK_DRFN\ProjSrc\SrcChartEx\ChartAddIn\ChartPatternAddIn\Control_Grid\GridCellBase.cpp
; File C:\Program Files (x86)\Microsoft Visual Studio\2019\Community\VC\Tools\MSVC\14.29.30133\atlmfc\include\afxwin1.inl
; File D:\git\src\IBK\IBK_DRFN\ProjSrc\SrcChartEx\ChartAddIn\ChartPatternAddIn\Control_Grid\GridCellBase.cpp
; File C:\Program Files (x86)\Microsoft Visual Studio\2019\Community\VC\Tools\MSVC\14.29.30133\atlmfc\include\afx.h
; File D:\git\src\IBK\IBK_DRFN\ProjSrc\SrcChartEx\ChartAddIn\ChartPatternAddIn\Control_Grid\GridCellBase.cpp
; File C:\Program Files (x86)\Microsoft Visual Studio\2019\Community\VC\Tools\MSVC\14.29.30133\atlmfc\include\afx.h
; File D:\git\src\IBK\IBK_DRFN\ProjSrc\SrcChartEx\ChartAddIn\ChartPatternAddIn\Control_Grid\GridCellBase.cpp
; File C:\Program Files (x86)\Microsoft Visual Studio\2019\Community\VC\Tools\MSVC\14.29.30133\atlmfc\include\atltypes.h
; File D:\git\src\IBK\IBK_DRFN\ProjSrc\SrcChartEx\ChartAddIn\ChartPatternAddIn\Control_Grid\GridCellBase.cpp
; File C:\Program Files (x86)\Microsoft Visual Studio\2019\Community\VC\Tools\MSVC\14.29.30133\atlmfc\include\afxwin1.inl
; File D:\git\src\IBK\IBK_DRFN\ProjSrc\SrcChartEx\ChartAddIn\ChartPatternAddIn\Control_Grid\GridCellBase.cpp
; File C:\Program Files (x86)\Microsoft Visual Studio\2019\Community\VC\Tools\MSVC\14.29.30133\atlmfc\include\afxwin1.inl
; File D:\git\src\IBK\IBK_DRFN\ProjSrc\SrcChartEx\ChartAddIn\ChartPatternAddIn\Control_Grid\GridCellBase.cpp
; File C:\Program Files (x86)\Microsoft Visual Studio\2019\Community\VC\Tools\MSVC\14.29.30133\atlmfc\include\afxwin1.inl
; File D:\git\src\IBK\IBK_DRFN\ProjSrc\SrcChartEx\ChartAddIn\ChartPatternAddIn\Control_Grid\GridCellBase.cpp
; File C:\Program Files (x86)\Microsoft Visual Studio\2019\Community\VC\Tools\MSVC\14.29.30133\atlmfc\include\atltypes.h
; File D:\git\src\IBK\IBK_DRFN\ProjSrc\SrcChartEx\ChartAddIn\ChartPatternAddIn\Control_Grid\GridCellBase.cpp
; File C:\Program Files (x86)\Microsoft Visual Studio\2019\Community\VC\Tools\MSVC\14.29.30133\atlmfc\include\afxwin1.inl
; File D:\git\src\IBK\IBK_DRFN\ProjSrc\SrcChartEx\ChartAddIn\ChartPatternAddIn\Control_Grid\GridCellBase.cpp
; File C:\Program Files (x86)\Microsoft Visual Studio\2019\Community\VC\Tools\MSVC\14.29.30133\atlmfc\include\atltypes.h
; File D:\git\src\IBK\IBK_DRFN\ProjSrc\SrcChartEx\ChartAddIn\ChartPatternAddIn\Control_Grid\GridCellBase.cpp
; File C:\Program Files (x86)\Microsoft Visual Studio\2019\Community\VC\Tools\MSVC\14.29.30133\atlmfc\include\atltypes.h
; File D:\git\src\IBK\IBK_DRFN\ProjSrc\SrcChartEx\ChartAddIn\ChartPatternAddIn\Control_Grid\GridCellBase.cpp
; File C:\Program Files (x86)\Microsoft Visual Studio\2019\Community\VC\Tools\MSVC\14.29.30133\atlmfc\include\atltypes.h
; File D:\git\src\IBK\IBK_DRFN\ProjSrc\SrcChartEx\ChartAddIn\ChartPatternAddIn\Control_Grid\GridCellBase.cpp
; File C:\Program Files (x86)\Microsoft Visual Studio\2019\Community\VC\Tools\MSVC\14.29.30133\atlmfc\include\atltypes.h
; File D:\git\src\IBK\IBK_DRFN\ProjSrc\SrcChartEx\ChartAddIn\ChartPatternAddIn\Control_Grid\GridCellBase.cpp
; File C:\Program Files (x86)\Microsoft Visual Studio\2019\Community\VC\Tools\MSVC\14.29.30133\atlmfc\include\atltypes.h
; File D:\git\src\IBK\IBK_DRFN\ProjSrc\SrcChartEx\ChartAddIn\ChartPatternAddIn\Control_Grid\GridCellBase.cpp
; File C:\Program Files (x86)\Microsoft Visual Studio\2019\Community\VC\Tools\MSVC\14.29.30133\atlmfc\include\atltypes.h
; File D:\git\src\IBK\IBK_DRFN\ProjSrc\SrcChartEx\ChartAddIn\ChartPatternAddIn\Control_Grid\GridCellBase.cpp
; File C:\Program Files (x86)\Microsoft Visual Studio\2019\Community\VC\Tools\MSVC\14.29.30133\atlmfc\include\atltypes.h
; File D:\git\src\IBK\IBK_DRFN\ProjSrc\SrcChartEx\ChartAddIn\ChartPatternAddIn\Control_Grid\GridCellBase.cpp
; File C:\Program Files (x86)\Microsoft Visual Studio\2019\Community\VC\Tools\MSVC\14.29.30133\atlmfc\include\atltypes.h
; File D:\git\src\IBK\IBK_DRFN\ProjSrc\SrcChartEx\ChartAddIn\ChartPatternAddIn\Control_Grid\GridCellBase.cpp
;	COMDAT ?Draw@CGridCellBase@@UAEHPAVCDC@@HHVCRect@@H@Z
_TEXT	SEGMENT
_e$6 = -116						; size = 4
_brush$7 = -112						; size = 8
_brush$8 = -104						; size = 8
_nSavedDC$ = -96					; size = 4
_TextClr$ = -92						; size = 4
_nImageHeight$1$ = -88					; size = 4
_this$GSCopy$ = -88					; size = 4
_pGrid$ = -84						; size = 4
_TextBkClr$1$ = -80					; size = 4
_pDefaultCell$1$ = -80					; size = 4
_TextClr$1$ = -76					; size = 4
_pDC$GSCopy$ = -72					; size = 4
_rectTemp$9 = -68					; size = 16
_Info$10 = -52						; size = 32
_rectTemp$11 = -36					; size = 16
_rectTemp$12 = -36					; size = 16
_rectTemp$13 = -36					; size = 16
__afxExceptionLink$14 = -28				; size = 8
__afxExceptionLink$15 = -28				; size = 8
__$ArrayPad$ = -20					; size = 4
__$EHRec$ = -16						; size = 16
_pDC$ = 8						; size = 4
_nRow$ = 12						; size = 4
_nCol$ = 16						; size = 4
_rect$ = 20						; size = 16
_bEraseBkgnd$ = 36					; size = 4
?Draw@CGridCellBase@@UAEHPAVCDC@@HHVCRect@@H@Z PROC	; CGridCellBase::Draw, COMDAT
; _this$ = ecx

; 111  : {

  00000	55		 push	 ebp
  00001	8b ec		 mov	 ebp, esp
  00003	6a ff		 push	 -1
  00005	68 00 00 00 00	 push	 __ehhandler$?Draw@CGridCellBase@@UAEHPAVCDC@@HHVCRect@@H@Z
  0000a	64 a1 00 00 00
	00		 mov	 eax, DWORD PTR fs:0
  00010	50		 push	 eax
  00011	83 ec 68	 sub	 esp, 104		; 00000068H
  00014	a1 00 00 00 00	 mov	 eax, DWORD PTR ___security_cookie
  00019	33 c5		 xor	 eax, ebp
  0001b	89 45 ec	 mov	 DWORD PTR __$ArrayPad$[ebp], eax
  0001e	53		 push	 ebx
  0001f	56		 push	 esi
  00020	57		 push	 edi
  00021	50		 push	 eax
  00022	8d 45 f4	 lea	 eax, DWORD PTR __$EHRec$[ebp+4]
  00025	64 a3 00 00 00
	00		 mov	 DWORD PTR fs:0, eax
  0002b	89 65 f0	 mov	 DWORD PTR __$EHRec$[ebp], esp
  0002e	8b d9		 mov	 ebx, ecx

; 112  : 	// Note - all through this function we totally brutalise 'rect'. Do not
; 113  :     // depend on it's value being that which was passed in.
; 114  : 
; 115  :     CGridCtrl* pGrid = GetGrid();

  00030	8b 03		 mov	 eax, DWORD PTR [ebx]
  00032	8b 75 08	 mov	 esi, DWORD PTR _pDC$[ebp]
  00035	89 5d a8	 mov	 DWORD PTR _this$GSCopy$[ebp], ebx
  00038	89 75 b8	 mov	 DWORD PTR _pDC$GSCopy$[ebp], esi
  0003b	ff 50 68	 call	 DWORD PTR [eax+104]
  0003e	8b f8		 mov	 edi, eax
  00040	89 7d ac	 mov	 DWORD PTR _pGrid$[ebp], edi

; 116  :     ASSERT(pGrid);
; 117  : 
; 118  :     if (!pGrid || !pDC)

  00043	85 ff		 test	 edi, edi
  00045	0f 84 7b 06 00
	00		 je	 $LN3@Draw
  0004b	85 f6		 test	 esi, esi
  0004d	0f 84 73 06 00
	00		 je	 $LN3@Draw
; File C:\Program Files (x86)\Microsoft Visual Studio\2019\Community\VC\Tools\MSVC\14.29.30133\atlmfc\include\atltypes.h

; 576  : 	return right - left;

  00053	8b 4d 1c	 mov	 ecx, DWORD PTR _rect$[ebp+8]
  00056	2b 4d 14	 sub	 ecx, DWORD PTR _rect$[ebp]
; File D:\git\src\IBK\IBK_DRFN\ProjSrc\SrcChartEx\ChartAddIn\ChartPatternAddIn\Control_Grid\GridCellBase.cpp

; 121  :     if( rect.Width() <= 0 || rect.Height() <= 0)  // prevents imagelist item from drawing even

  00059	85 c9		 test	 ecx, ecx
  0005b	0f 8e 65 06 00
	00		 jle	 $LN3@Draw
; File C:\Program Files (x86)\Microsoft Visual Studio\2019\Community\VC\Tools\MSVC\14.29.30133\atlmfc\include\atltypes.h

; 581  : 	return bottom - top;

  00061	8b 45 20	 mov	 eax, DWORD PTR _rect$[ebp+12]
  00064	2b 45 18	 sub	 eax, DWORD PTR _rect$[ebp+4]
; File D:\git\src\IBK\IBK_DRFN\ProjSrc\SrcChartEx\ChartAddIn\ChartPatternAddIn\Control_Grid\GridCellBase.cpp

; 121  :     if( rect.Width() <= 0 || rect.Height() <= 0)  // prevents imagelist item from drawing even

  00067	85 c0		 test	 eax, eax
  00069	0f 8e 57 06 00
	00		 jle	 $LN3@Draw

; 122  :         return FALSE;                             //  though cell is hidden
; 123  : 
; 124  :     //TRACE3("Drawing %scell %d, %d\n", IsFixed()? _T("Fixed ") : _T(""), nRow, nCol);
; 125  : 
; 126  :     int nSavedDC = pDC->SaveDC();

  0006f	8b 06		 mov	 eax, DWORD PTR [esi]
  00071	8b ce		 mov	 ecx, esi
  00073	ff 50 24	 call	 DWORD PTR [eax+36]

; 127  :     pDC->SetBkMode(TRANSPARENT);

  00076	6a 01		 push	 1
  00078	8b ce		 mov	 ecx, esi
  0007a	89 45 a0	 mov	 DWORD PTR _nSavedDC$[ebp], eax
  0007d	e8 00 00 00 00	 call	 ?SetBkMode@CDC@@QAEHH@Z	; CDC::SetBkMode

; 128  : 
; 129  :     // Get the default cell implementation for this kind of cell. We use it if this cell
; 130  :     // has anything marked as "default"
; 131  :     CGridDefaultCell *pDefaultCell = (CGridDefaultCell*) GetDefaultCell();

  00082	8b 13		 mov	 edx, DWORD PTR [ebx]
  00084	8b cb		 mov	 ecx, ebx
  00086	ff 52 74	 call	 DWORD PTR [edx+116]
  00089	89 45 b0	 mov	 DWORD PTR _pDefaultCell$1$[ebp], eax

; 132  :     if (!pDefaultCell)

  0008c	85 c0		 test	 eax, eax
  0008e	0f 84 32 06 00
	00		 je	 $LN3@Draw

; 133  :         return FALSE;
; 134  : 
; 135  :     // Set up text and background colours
; 136  :     COLORREF TextClr, TextBkClr;
; 137  : 
; 138  :     TextClr = (GetTextClr() == CLR_DEFAULT)? pDefaultCell->GetTextClr() : GetTextClr();

  00094	8b 13		 mov	 edx, DWORD PTR [ebx]
  00096	8b cb		 mov	 ecx, ebx
  00098	ff 52 58	 call	 DWORD PTR [edx+88]
  0009b	3d 00 00 00 ff	 cmp	 eax, -16777216		; ff000000H
  000a0	75 07		 jne	 SHORT $LN64@Draw
  000a2	8b 4d b0	 mov	 ecx, DWORD PTR _pDefaultCell$1$[ebp]
  000a5	8b 01		 mov	 eax, DWORD PTR [ecx]
  000a7	eb 04		 jmp	 SHORT $LN158@Draw
$LN64@Draw:
  000a9	8b 03		 mov	 eax, DWORD PTR [ebx]
  000ab	8b cb		 mov	 ecx, ebx
$LN158@Draw:

; 139  :     if (GetBackClr() == CLR_DEFAULT)

  000ad	ff 50 58	 call	 DWORD PTR [eax+88]
  000b0	89 45 b4	 mov	 DWORD PTR _TextClr$1$[ebp], eax
  000b3	8b cb		 mov	 ecx, ebx
  000b5	8b 03		 mov	 eax, DWORD PTR [ebx]
  000b7	ff 50 5c	 call	 DWORD PTR [eax+92]
  000ba	3d 00 00 00 ff	 cmp	 eax, -16777216		; ff000000H
  000bf	75 07		 jne	 SHORT $LN7@Draw

; 140  :         TextBkClr = pDefaultCell->GetBackClr();

  000c1	8b 4d b0	 mov	 ecx, DWORD PTR _pDefaultCell$1$[ebp]
  000c4	8b 01		 mov	 eax, DWORD PTR [ecx]
  000c6	eb 0b		 jmp	 SHORT $LN159@Draw
$LN7@Draw:

; 141  :     else
; 142  :     {
; 143  :         bEraseBkgnd = TRUE;
; 144  :         TextBkClr = GetBackClr();

  000c8	8b 03		 mov	 eax, DWORD PTR [ebx]
  000ca	8b cb		 mov	 ecx, ebx
  000cc	c7 45 24 01 00
	00 00		 mov	 DWORD PTR _bEraseBkgnd$[ebp], 1
$LN159@Draw:

; 145  :     }
; 146  : 
; 147  : 	// Draw cell background and highlighting (if necessary)
; 148  :     if (/* IsFocused() ||*/ IsDropHighlighted() )	// 2005/05/20 - SeoJeong - Block Focused cell color

  000d3	ff 50 5c	 call	 DWORD PTR [eax+92]
  000d6	89 45 b0	 mov	 DWORD PTR _TextBkClr$1$[ebp], eax
  000d9	8b cb		 mov	 ecx, ebx
  000db	8b 03		 mov	 eax, DWORD PTR [ebx]
  000dd	ff 90 9c 00 00
	00		 call	 DWORD PTR [eax+156]
  000e3	8b 0b		 mov	 ecx, DWORD PTR [ebx]
  000e5	8b 51 50	 mov	 edx, DWORD PTR [ecx+80]
  000e8	8b cb		 mov	 ecx, ebx
  000ea	85 c0		 test	 eax, eax
  000ec	0f 84 13 01 00
	00		 je	 $LN9@Draw

; 149  : 	{
; 150  :         // Always draw even in list mode so that we can tell where the
; 151  :         // cursor is at.  Use the highlight colors though.
; 152  : 	    if(GetState() & GVIS_SELECTED)

  000f2	ff d2		 call	 edx
  000f4	a8 02		 test	 al, 2
  000f6	74 22		 je	 SHORT $LN11@Draw

; 153  :         {
; 154  : 			TextBkClr = ::GetSysColor(COLOR_HIGHLIGHT);

  000f8	8b 35 00 00 00
	00		 mov	 esi, DWORD PTR __imp__GetSysColor@4
  000fe	6a 0d		 push	 13			; 0000000dH
  00100	ff d6		 call	 esi

; 155  : 			TextClr = ::GetSysColor(COLOR_HIGHLIGHTTEXT);

  00102	6a 0e		 push	 14			; 0000000eH
  00104	89 45 b0	 mov	 DWORD PTR _TextBkClr$1$[ebp], eax
  00107	ff d6		 call	 esi

; 156  :             bEraseBkgnd = TRUE;

  00109	ff 45 1c	 inc	 DWORD PTR _rect$[ebp+8]
  0010c	ff 45 20	 inc	 DWORD PTR _rect$[ebp+12]
  0010f	8b 75 b8	 mov	 esi, DWORD PTR _pDC$GSCopy$[ebp]
  00112	89 45 b4	 mov	 DWORD PTR _TextClr$1$[ebp], eax
  00115	89 45 a4	 mov	 DWORD PTR _TextClr$[ebp], eax
  00118	eb 1a		 jmp	 SHORT $LN152@Draw
$LN11@Draw:

; 157  :         }
; 158  : 	
; 159  :         rect.right++; rect.bottom++;    // FillRect doesn't draw RHS or bottom

  0011a	8b 45 1c	 mov	 eax, DWORD PTR _rect$[ebp+8]
  0011d	8b 4d 20	 mov	 ecx, DWORD PTR _rect$[ebp+12]
  00120	40		 inc	 eax
  00121	8b 55 b4	 mov	 edx, DWORD PTR _TextClr$1$[ebp]
  00124	41		 inc	 ecx

; 160  :         if (bEraseBkgnd)

  00125	83 7d 24 00	 cmp	 DWORD PTR _bEraseBkgnd$[ebp], 0
  00129	89 45 1c	 mov	 DWORD PTR _rect$[ebp+8], eax
  0012c	89 4d 20	 mov	 DWORD PTR _rect$[ebp+12], ecx
  0012f	89 55 a4	 mov	 DWORD PTR _TextClr$[ebp], edx
  00132	74 73		 je	 SHORT $LN92@Draw
$LN152@Draw:

; 161  :         {
; 162  :             TRY 

  00134	8d 4d e4	 lea	 ecx, DWORD PTR __afxExceptionLink$15[ebp]
  00137	e8 00 00 00 00	 call	 ??0AFX_EXCEPTION_LINK@@QAE@XZ ; AFX_EXCEPTION_LINK::AFX_EXCEPTION_LINK

; 163  :             {
; 164  :                 CBrush brush(TextBkClr);

  0013c	ff 75 b0	 push	 DWORD PTR _TextBkClr$1$[ebp]
  0013f	c7 45 fc 00 00
	00 00		 mov	 DWORD PTR __$EHRec$[ebp+12], 0
  00146	8d 4d 98	 lea	 ecx, DWORD PTR _brush$8[ebp]
  00149	c6 45 fc 01	 mov	 BYTE PTR __$EHRec$[ebp+12], 1
  0014d	e8 00 00 00 00	 call	 ??0CBrush@@QAE@K@Z	; CBrush::CBrush
; File C:\Program Files (x86)\Microsoft Visual Studio\2019\Community\VC\Tools\MSVC\14.29.30133\atlmfc\include\afxwin1.inl

; 476  : 	{ ASSERT(m_hDC != NULL); ::FillRect(m_hDC, lpRect, (HBRUSH)pBrush->GetSafeHandle()); }

  00152	ff 75 9c	 push	 DWORD PTR _brush$8[ebp+4]
  00155	8d 45 14	 lea	 eax, DWORD PTR _rect$[ebp]
  00158	50		 push	 eax
  00159	ff 76 04	 push	 DWORD PTR [esi+4]
  0015c	ff 15 00 00 00
	00		 call	 DWORD PTR __imp__FillRect@12

; 130  : 	{ }

  00162	8d 4d 98	 lea	 ecx, DWORD PTR _brush$8[ebp]
  00165	c7 45 98 00 00
	00 00		 mov	 DWORD PTR _brush$8[ebp], OFFSET ??_7CBrush@@6B@
  0016c	e8 00 00 00 00	 call	 ??1CGdiObject@@UAE@XZ	; CGdiObject::~CGdiObject
; File D:\git\src\IBK\IBK_DRFN\ProjSrc\SrcChartEx\ChartAddIn\ChartPatternAddIn\Control_Grid\GridCellBase.cpp

; 166  :             } 

  00171	eb 1b		 jmp	 SHORT $LN75@Draw
__catch$?Draw@CGridCellBase@@UAEHPAVCDC@@HHVCRect@@H@Z$0:

; 167  :             CATCH(CResourceException, e)

  00173	8b 45 8c	 mov	 eax, DWORD PTR _e$6[ebp]
  00176	89 45 e8	 mov	 DWORD PTR __afxExceptionLink$15[ebp+4], eax

; 168  :             {
; 169  :                 //e->ReportError();
; 170  :             }
; 171  :             END_CATCH

  00179	b8 00 00 00 00	 mov	 eax, $LN153@Draw
  0017e	c3		 ret	 0
$LN153@Draw:
  0017f	8b 45 a4	 mov	 eax, DWORD PTR _TextClr$[ebp]
  00182	8b 5d a8	 mov	 ebx, DWORD PTR _this$GSCopy$[ebp]
  00185	8b 75 b8	 mov	 esi, DWORD PTR _pDC$GSCopy$[ebp]
  00188	8b 7d ac	 mov	 edi, DWORD PTR _pGrid$[ebp]
  0018b	89 45 b4	 mov	 DWORD PTR _TextClr$1$[ebp], eax
$LN75@Draw:
; File C:\Program Files (x86)\Microsoft Visual Studio\2019\Community\VC\Tools\MSVC\14.29.30133\atlmfc\include\afx.h

; 819  : 		{ AfxTryCleanup(); };

  0018e	c7 45 fc 03 00
	00 00		 mov	 DWORD PTR __$EHRec$[ebp+12], 3
  00195	e8 00 00 00 00	 call	 ?AfxTryCleanup@@YGXXZ	; AfxTryCleanup
  0019a	8b 4d 20	 mov	 ecx, DWORD PTR _rect$[ebp+12]
  0019d	8b 45 1c	 mov	 eax, DWORD PTR _rect$[ebp+8]
  001a0	c7 45 fc ff ff
	ff ff		 mov	 DWORD PTR __$EHRec$[ebp+12], -1
$LN92@Draw:
; File D:\git\src\IBK\IBK_DRFN\ProjSrc\SrcChartEx\ChartAddIn\ChartPatternAddIn\Control_Grid\GridCellBase.cpp

; 176  :         if(pGrid->GetGridLines() != GVL_NONE)

  001a7	83 bf cc 00 00
	00 00		 cmp	 DWORD PTR [edi+204], 0
  001ae	74 08		 je	 SHORT $LN14@Draw

; 177  :         {
; 178  :             rect.right--;

  001b0	48		 dec	 eax

; 179  :             rect.bottom--;

  001b1	49		 dec	 ecx
  001b2	89 45 1c	 mov	 DWORD PTR _rect$[ebp+8], eax
  001b5	89 4d 20	 mov	 DWORD PTR _rect$[ebp+12], ecx
$LN14@Draw:

; 180  :         }
; 181  : 
; 182  :         if (pGrid->GetFrameFocusCell())

  001b8	83 bf 28 01 00
	00 00		 cmp	 DWORD PTR [edi+296], 0
  001bf	74 1b		 je	 SHORT $LN95@Draw

; 183  :         {
; 184  : 			// Use same color as text to outline the cell so that it shows
; 185  : 			// up if the background is black.
; 186  :             TRY 

  001c1	8d 4d e4	 lea	 ecx, DWORD PTR __afxExceptionLink$14[ebp]
  001c4	e8 00 00 00 00	 call	 ??0AFX_EXCEPTION_LINK@@QAE@XZ ; AFX_EXCEPTION_LINK::AFX_EXCEPTION_LINK
; File C:\Program Files (x86)\Microsoft Visual Studio\2019\Community\VC\Tools\MSVC\14.29.30133\atlmfc\include\afx.h

; 819  : 		{ AfxTryCleanup(); };

  001c9	c7 45 fc 06 00
	00 00		 mov	 DWORD PTR __$EHRec$[ebp+12], 6
  001d0	e8 00 00 00 00	 call	 ?AfxTryCleanup@@YGXXZ	; AfxTryCleanup
  001d5	c7 45 fc ff ff
	ff ff		 mov	 DWORD PTR __$EHRec$[ebp+12], -1
$LN95@Draw:
; File D:\git\src\IBK\IBK_DRFN\ProjSrc\SrcChartEx\ChartAddIn\ChartPatternAddIn\Control_Grid\GridCellBase.cpp

; 203  :         pDC->SetTextColor(TextClr);

  001dc	8b 06		 mov	 eax, DWORD PTR [esi]
  001de	8b ce		 mov	 ecx, esi
  001e0	ff 75 b4	 push	 DWORD PTR _TextClr$1$[ebp]
  001e3	ff 50 38	 call	 DWORD PTR [eax+56]

; 204  : 
; 205  :         // Adjust rect after frame draw if no grid lines
; 206  :         if(pGrid->GetGridLines() == GVL_NONE)

  001e6	83 bf cc 00 00
	00 00		 cmp	 DWORD PTR [edi+204], 0
  001ed	75 06		 jne	 SHORT $LN17@Draw

; 207  :         {
; 208  :             rect.right--;

  001ef	ff 4d 1c	 dec	 DWORD PTR _rect$[ebp+8]

; 209  :             rect.bottom--;

  001f2	ff 4d 20	 dec	 DWORD PTR _rect$[ebp+12]
$LN17@Draw:
; File C:\Program Files (x86)\Microsoft Visual Studio\2019\Community\VC\Tools\MSVC\14.29.30133\atlmfc\include\atltypes.h

; 698  : 	::InflateRect(this, -x, -y);

  001f5	6a ff		 push	 -1
  001f7	6a ff		 push	 -1
  001f9	8d 45 14	 lea	 eax, DWORD PTR _rect$[ebp]
  001fc	50		 push	 eax
  001fd	ff 15 00 00 00
	00		 call	 DWORD PTR __imp__InflateRect@12
; File D:\git\src\IBK\IBK_DRFN\ProjSrc\SrcChartEx\ChartAddIn\ChartPatternAddIn\Control_Grid\GridCellBase.cpp

; 213  :     }

  00203	eb 6a		 jmp	 SHORT $LN19@Draw
$LN9@Draw:

; 214  : 	//   JSJ_Modify ----------------------------------------->>>>
; 215  : 	else if ((GetState() & GVIS_SELECTED))

  00205	ff d2		 call	 edx
  00207	a8 02		 test	 al, 2
  00209	74 1e		 je	 SHORT $LN18@Draw

; 216  : 	{
; 217  : 		{
; 218  : 			rect.right++; rect.bottom++;    // FillRect doesn't draw RHS or bottom

  0020b	ff 45 1c	 inc	 DWORD PTR _rect$[ebp+8]

; 219  : 			pDC->FillSolidRect(rect, COLOR_SELECTED_CELL);	

  0020e	8d 45 14	 lea	 eax, DWORD PTR _rect$[ebp]
  00211	ff 45 20	 inc	 DWORD PTR _rect$[ebp+12]
  00214	8b ce		 mov	 ecx, esi
  00216	68 e0 ed e0 00	 push	 14740960		; 00e0ede0H
  0021b	50		 push	 eax
  0021c	e8 00 00 00 00	 call	 ?FillSolidRect@CDC@@QAEXPBUtagRECT@@K@Z ; CDC::FillSolidRect

; 220  : 			rect.right--; rect.bottom--;

  00221	ff 4d 1c	 dec	 DWORD PTR _rect$[ebp+8]
  00224	ff 4d 20	 dec	 DWORD PTR _rect$[ebp+12]

; 221  : 			pDC->SetTextColor(TextClr);
; 222  : 		}
; 223  :     }

  00227	eb 3c		 jmp	 SHORT $LN106@Draw
$LN18@Draw:

; 224  : 	// <<<<---------------------------------------------------------------
; 225  : 	else
; 226  :     {
; 227  : 		if (bEraseBkgnd)

  00229	83 7d 24 00	 cmp	 DWORD PTR _bEraseBkgnd$[ebp], 0
  0022d	74 36		 je	 SHORT $LN106@Draw

; 228  :         {
; 229  :             rect.right++; rect.bottom++;    // FillRect doesn't draw RHS or bottom
; 230  : 
; 231  : 			CBrush brush(TextBkClr);

  0022f	ff 75 b0	 push	 DWORD PTR _TextBkClr$1$[ebp]
  00232	ff 45 1c	 inc	 DWORD PTR _rect$[ebp+8]
  00235	8d 4d 90	 lea	 ecx, DWORD PTR _brush$7[ebp]
  00238	ff 45 20	 inc	 DWORD PTR _rect$[ebp+12]
  0023b	e8 00 00 00 00	 call	 ??0CBrush@@QAE@K@Z	; CBrush::CBrush
; File C:\Program Files (x86)\Microsoft Visual Studio\2019\Community\VC\Tools\MSVC\14.29.30133\atlmfc\include\afxwin1.inl

; 476  : 	{ ASSERT(m_hDC != NULL); ::FillRect(m_hDC, lpRect, (HBRUSH)pBrush->GetSafeHandle()); }

  00240	ff 75 94	 push	 DWORD PTR _brush$7[ebp+4]
  00243	8d 45 14	 lea	 eax, DWORD PTR _rect$[ebp]
  00246	50		 push	 eax
  00247	ff 76 04	 push	 DWORD PTR [esi+4]
  0024a	ff 15 00 00 00
	00		 call	 DWORD PTR __imp__FillRect@12
; File D:\git\src\IBK\IBK_DRFN\ProjSrc\SrcChartEx\ChartAddIn\ChartPatternAddIn\Control_Grid\GridCellBase.cpp

; 234  : 			rect.right--; rect.bottom--;

  00250	ff 4d 1c	 dec	 DWORD PTR _rect$[ebp+8]
; File C:\Program Files (x86)\Microsoft Visual Studio\2019\Community\VC\Tools\MSVC\14.29.30133\atlmfc\include\afxwin1.inl

; 130  : 	{ }

  00253	8d 4d 90	 lea	 ecx, DWORD PTR _brush$7[ebp]
; File D:\git\src\IBK\IBK_DRFN\ProjSrc\SrcChartEx\ChartAddIn\ChartPatternAddIn\Control_Grid\GridCellBase.cpp

; 234  : 			rect.right--; rect.bottom--;

  00256	ff 4d 20	 dec	 DWORD PTR _rect$[ebp+12]
; File C:\Program Files (x86)\Microsoft Visual Studio\2019\Community\VC\Tools\MSVC\14.29.30133\atlmfc\include\afxwin1.inl

; 130  : 	{ }

  00259	c7 45 90 00 00
	00 00		 mov	 DWORD PTR _brush$7[ebp], OFFSET ??_7CBrush@@6B@
  00260	e8 00 00 00 00	 call	 ??1CGdiObject@@UAE@XZ	; CGdiObject::~CGdiObject
$LN106@Draw:
; File D:\git\src\IBK\IBK_DRFN\ProjSrc\SrcChartEx\ChartAddIn\ChartPatternAddIn\Control_Grid\GridCellBase.cpp

; 241  : 	if(GetState() & GVIS_STATIC)

  00265	8b 06		 mov	 eax, DWORD PTR [esi]
  00267	8b ce		 mov	 ecx, esi
  00269	ff 75 b4	 push	 DWORD PTR _TextClr$1$[ebp]
  0026c	ff 50 38	 call	 DWORD PTR [eax+56]
$LN19@Draw:
  0026f	8b 03		 mov	 eax, DWORD PTR [ebx]
  00271	8b cb		 mov	 ecx, ebx
  00273	ff 50 50	 call	 DWORD PTR [eax+80]
  00276	a9 00 01 00 00	 test	 eax, 256		; 00000100H
  0027b	74 1c		 je	 SHORT $LN21@Draw

; 242  : 	{
; 243  : 		rect.right++; rect.bottom++;    // FillRect doesn't draw RHS or bottom

  0027d	ff 45 1c	 inc	 DWORD PTR _rect$[ebp+8]

; 244  : 		pDC->FillSolidRect(rect, COLOR_SELECTED_CELL);	

  00280	8d 45 14	 lea	 eax, DWORD PTR _rect$[ebp]
  00283	ff 45 20	 inc	 DWORD PTR _rect$[ebp+12]
  00286	8b ce		 mov	 ecx, esi
  00288	68 e0 ed e0 00	 push	 14740960		; 00e0ede0H
  0028d	50		 push	 eax
  0028e	e8 00 00 00 00	 call	 ?FillSolidRect@CDC@@QAEXPBUtagRECT@@K@Z ; CDC::FillSolidRect

; 245  : 		rect.right--; rect.bottom--;

  00293	ff 4d 1c	 dec	 DWORD PTR _rect$[ebp+8]
  00296	ff 4d 20	 dec	 DWORD PTR _rect$[ebp+12]
$LN21@Draw:

; 246  : 	}        
; 247  : 	// <------------------------------------------------------------------
; 248  : 
; 249  : 
; 250  : 	// Draw Text and image
; 251  :     if (!pDC->m_bPrinting)

  00299	83 7e 0c 00	 cmp	 DWORD PTR [esi+12], 0
  0029d	75 13		 jne	 SHORT $LN23@Draw

; 252  :     {
; 253  :         CFont *pFont = GetFontObject();

  0029f	8b 03		 mov	 eax, DWORD PTR [ebx]
  002a1	8b cb		 mov	 ecx, ebx
  002a3	ff 50 64	 call	 DWORD PTR [eax+100]

; 254  :         if (pFont)

  002a6	85 c0		 test	 eax, eax
  002a8	74 08		 je	 SHORT $LN23@Draw

; 255  :             pDC->SelectObject(pFont);

  002aa	8b 16		 mov	 edx, DWORD PTR [esi]
  002ac	8b ce		 mov	 ecx, esi
  002ae	50		 push	 eax
  002af	ff 52 30	 call	 DWORD PTR [edx+48]
$LN23@Draw:

; 256  :     }
; 257  : 
; 258  : 	rect.DeflateRect(GetMargin(), 0);

  002b2	8b 03		 mov	 eax, DWORD PTR [ebx]
  002b4	8b cb		 mov	 ecx, ebx
  002b6	ff 50 70	 call	 DWORD PTR [eax+112]
; File C:\Program Files (x86)\Microsoft Visual Studio\2019\Community\VC\Tools\MSVC\14.29.30133\atlmfc\include\atltypes.h

; 698  : 	::InflateRect(this, -x, -y);

  002b9	6a 00		 push	 0
  002bb	f7 d8		 neg	 eax
  002bd	50		 push	 eax
  002be	8d 45 14	 lea	 eax, DWORD PTR _rect$[ebp]
  002c1	50		 push	 eax
  002c2	ff 15 00 00 00
	00		 call	 DWORD PTR __imp__InflateRect@12
; File D:\git\src\IBK\IBK_DRFN\ProjSrc\SrcChartEx\ChartAddIn\ChartPatternAddIn\Control_Grid\GridCellBase.cpp

; 260  : 	if (pGrid->GetImageList() && GetImage() >= 0)

  002c8	83 bf 9c 02 00
	00 00		 cmp	 DWORD PTR [edi+668], 0
  002cf	0f 84 b7 00 00
	00		 je	 $LN28@Draw
  002d5	8b 03		 mov	 eax, DWORD PTR [ebx]
  002d7	8b cb		 mov	 ecx, ebx
  002d9	ff 50 48	 call	 DWORD PTR [eax+72]
  002dc	85 c0		 test	 eax, eax
  002de	0f 88 a8 00 00
	00		 js	 $LN28@Draw

; 263  :         if (pGrid->GetImageList()->GetImageInfo(GetImage(), &Info))

  002e4	8b 03		 mov	 eax, DWORD PTR [ebx]
  002e6	8b cb		 mov	 ecx, ebx
  002e8	ff 50 48	 call	 DWORD PTR [eax+72]
  002eb	8b 8f 9c 02 00
	00		 mov	 ecx, DWORD PTR [edi+668]
; File C:\Program Files (x86)\Microsoft Visual Studio\2019\Community\VC\Tools\MSVC\14.29.30133\atlmfc\include\afxwin1.inl

; 881  : 	{ ASSERT(m_hImageList != NULL); return ImageList_GetImageInfo(m_hImageList, nImage, pImageInfo); }

  002f1	8d 55 cc	 lea	 edx, DWORD PTR _Info$10[ebp]
  002f4	52		 push	 edx
  002f5	50		 push	 eax
  002f6	ff 71 04	 push	 DWORD PTR [ecx+4]
  002f9	ff 15 00 00 00
	00		 call	 DWORD PTR __imp__ImageList_GetImageInfo@12
; File D:\git\src\IBK\IBK_DRFN\ProjSrc\SrcChartEx\ChartAddIn\ChartPatternAddIn\Control_Grid\GridCellBase.cpp

; 263  :         if (pGrid->GetImageList()->GetImageInfo(GetImage(), &Info))

  002ff	85 c0		 test	 eax, eax
  00301	0f 84 85 00 00
	00		 je	 $LN28@Draw

; 264  :         {
; 265  :             //  would like to use a clipping region but seems to have issue
; 266  :             //  working with CMemDC directly.  Instead, don't display image
; 267  :             //  if any part of it cut-off
; 268  :             //
; 269  :             // CRgn rgn;
; 270  :             // rgn.CreateRectRgnIndirect(rect);
; 271  :             // pDC->SelectClipRgn(&rgn);
; 272  :             // rgn.DeleteObject();
; 273  : 
; 274  :             int nImageWidth = Info.rcImage.right-Info.rcImage.left+1;
; 275  : 			int nImageHeight = Info.rcImage.bottom-Info.rcImage.top+1;

  00307	8b 45 e8	 mov	 eax, DWORD PTR _Info$10[ebp+28]

; 276  : 
; 277  :             if( nImageWidth + rect.left <= rect.right + (int)(2*GetMargin())
; 278  :                 && nImageHeight + rect.top <= rect.bottom + (int)(2*GetMargin())  )

  0030a	8b cb		 mov	 ecx, ebx
  0030c	2b 45 e0	 sub	 eax, DWORD PTR _Info$10[ebp+20]
  0030f	8b 75 e4	 mov	 esi, DWORD PTR _Info$10[ebp+24]
  00312	40		 inc	 eax
  00313	2b 75 dc	 sub	 esi, DWORD PTR _Info$10[ebp+16]
  00316	89 45 a8	 mov	 DWORD PTR _nImageHeight$1$[ebp], eax
  00319	46		 inc	 esi
  0031a	8b 03		 mov	 eax, DWORD PTR [ebx]
  0031c	ff 50 70	 call	 DWORD PTR [eax+112]
  0031f	8b 4d 1c	 mov	 ecx, DWORD PTR _rect$[ebp+8]
  00322	8d 0c 41	 lea	 ecx, DWORD PTR [ecx+eax*2]
  00325	8b 45 14	 mov	 eax, DWORD PTR _rect$[ebp]
  00328	03 c6		 add	 eax, esi
  0032a	3b c1		 cmp	 eax, ecx
  0032c	7f 5b		 jg	 SHORT $LN156@Draw
  0032e	8b 03		 mov	 eax, DWORD PTR [ebx]
  00330	8b cb		 mov	 ecx, ebx
  00332	ff 50 70	 call	 DWORD PTR [eax+112]
  00335	8b 4d 20	 mov	 ecx, DWORD PTR _rect$[ebp+12]
  00338	8d 0c 41	 lea	 ecx, DWORD PTR [ecx+eax*2]
  0033b	8b 45 18	 mov	 eax, DWORD PTR _rect$[ebp+4]
  0033e	03 45 a8	 add	 eax, DWORD PTR _nImageHeight$1$[ebp]
  00341	3b c1		 cmp	 eax, ecx
  00343	7f 44		 jg	 SHORT $LN156@Draw

; 279  :             {
; 280  : 				if( GetImage() == 0 || GetImage() == 1 )		//   

  00345	8b 03		 mov	 eax, DWORD PTR [ebx]
  00347	8b cb		 mov	 ecx, ebx
  00349	ff 50 48	 call	 DWORD PTR [eax+72]
  0034c	85 c0		 test	 eax, eax
  0034e	74 07		 je	 SHORT $LN29@Draw
  00350	8b 03		 mov	 eax, DWORD PTR [ebx]
  00352	8b cb		 mov	 ecx, ebx
  00354	ff 50 48	 call	 DWORD PTR [eax+72]
$LN29@Draw:

; 281  : 				{
; 282  : 					CPoint pt;
; 283  : 					pt.x = rect.left;
; 284  : 					pt.y = rect.top+3;
; 285  : 					pGrid->GetImageList()->Draw(pDC, GetImage(), pt, ILD_NORMAL);
; 286  : 					//pGrid->GetImageList()->Draw(pDC, GetImage(), rect.TopLeft(), ILD_NORMAL);
; 287  : 				}
; 288  : 				else											//   
; 289  : 				{
; 290  : 					CPoint pt;
; 291  : 					pt.x = rect.left;
; 292  : 					pt.y = rect.top+3;
; 293  : 					pGrid->GetImageList()->Draw(pDC, GetImage(), pt, ILD_NORMAL);
; 294  : 				}
; 295  :             }
; 296  : 
; 297  :             //rect.left += nImageWidth+GetMargin();
; 298  :         }
; 299  :     }
; 300  : 	
; 301  :     // We want to see '&' characters so use DT_NOPREFIX
; 302  : 
; 303  : 	// JSJ_Modify_040601		COMMENT:      ---------->>
; 304  : 	if ( pGrid->GetPatternReportType() == WAVE_REPORTTYPE1)

  00357	8b 03		 mov	 eax, DWORD PTR [ebx]
  00359	8b cb		 mov	 ecx, ebx
  0035b	8b 7d 18	 mov	 edi, DWORD PTR _rect$[ebp+4]
  0035e	8b 75 14	 mov	 esi, DWORD PTR _rect$[ebp]
  00361	83 c7 03	 add	 edi, 3
  00364	ff 50 48	 call	 DWORD PTR [eax+72]
  00367	8b 4d ac	 mov	 ecx, DWORD PTR _pGrid$[ebp]
  0036a	6a 00		 push	 0
  0036c	57		 push	 edi
  0036d	56		 push	 esi
  0036e	8b 75 b8	 mov	 esi, DWORD PTR _pDC$GSCopy$[ebp]
  00371	8b 89 9c 02 00
	00		 mov	 ecx, DWORD PTR [ecx+668]
  00377	ff 76 04	 push	 DWORD PTR [esi+4]
  0037a	50		 push	 eax
  0037b	ff 71 04	 push	 DWORD PTR [ecx+4]
  0037e	ff 15 00 00 00
	00		 call	 DWORD PTR __imp__ImageList_Draw@24
  00384	8b 7d ac	 mov	 edi, DWORD PTR _pGrid$[ebp]
  00387	eb 03		 jmp	 SHORT $LN28@Draw
$LN156@Draw:
  00389	8b 75 b8	 mov	 esi, DWORD PTR _pDC$GSCopy$[ebp]
$LN28@Draw:
  0038c	8b cf		 mov	 ecx, edi
  0038e	e8 00 00 00 00	 call	 ?GetPatternReportType@CGridCtrl@@QAEHXZ ; CGridCtrl::GetPatternReportType
  00393	3d e9 03 00 00	 cmp	 eax, 1001		; 000003e9H
  00398	0f 85 d7 01 00
	00		 jne	 $LN30@Draw

; 305  : 	{
; 306  : 		if ( nRow == ROW_FIRST )			//   

  0039e	8b 45 0c	 mov	 eax, DWORD PTR _nRow$[ebp]
  003a1	85 c0		 test	 eax, eax
  003a3	0f 85 ee 00 00
	00		 jne	 $LN32@Draw

; 311  : 			if ( nCol == COL_WAV1_NUM || nCol == COL_WAV1_TIME || nCol == COL_WAV1_TYPE || nCol == COL_WAV1_NAME || nCol == COL_WAV1_CANDLECNT)

  003a9	8b 4d 10	 mov	 ecx, DWORD PTR _nCol$[ebp]
  003ac	0f 57 c0	 xorps	 xmm0, xmm0
; File C:\Program Files (x86)\Microsoft Visual Studio\2019\Community\VC\Tools\MSVC\14.29.30133\atlmfc\include\atltypes.h

; 528  : 	left = 0;

  003af	0f 11 45 dc	 movups	 XMMWORD PTR _rectTemp$13[ebp], xmm0
; File D:\git\src\IBK\IBK_DRFN\ProjSrc\SrcChartEx\ChartAddIn\ChartPatternAddIn\Control_Grid\GridCellBase.cpp

; 311  : 			if ( nCol == COL_WAV1_NUM || nCol == COL_WAV1_TIME || nCol == COL_WAV1_TYPE || nCol == COL_WAV1_NAME || nCol == COL_WAV1_CANDLECNT)

  003b3	85 c9		 test	 ecx, ecx
  003b5	74 51		 je	 SHORT $LN36@Draw
  003b7	83 f9 01	 cmp	 ecx, 1
  003ba	74 4c		 je	 SHORT $LN36@Draw
  003bc	83 f9 02	 cmp	 ecx, 2
  003bf	74 47		 je	 SHORT $LN36@Draw
  003c1	83 f9 03	 cmp	 ecx, 3
  003c4	74 42		 je	 SHORT $LN36@Draw
  003c6	83 f9 04	 cmp	 ecx, 4
  003c9	74 3d		 je	 SHORT $LN36@Draw

; 312  : 			{
; 313  : 				pGrid->GetCellRect(ROW_FIRST,	nCol, rect);
; 314  : 				pGrid->GetCellRect(ROW_FIRST+1,	nCol, rectTemp);
; 315  : 				rect.bottom = rectTemp.bottom;
; 316  : 			}
; 317  : 			// <<-------------------------------------------------
; 318  : 			else if ( nCol >=  COL_WAV1_EXPUPDOWN_PER && nCol <=  COL_WAV1_ACHIEVE_PER)

  003cb	8d 41 fb	 lea	 eax, DWORD PTR [ecx-5]
  003ce	83 f8 02	 cmp	 eax, 2
  003d1	8d 45 14	 lea	 eax, DWORD PTR _rect$[ebp]
  003d4	50		 push	 eax
  003d5	77 22		 ja	 SHORT $LN37@Draw

; 319  : 			{
; 320  : 				pGrid->GetCellRect(ROW_FIRST, COL_WAV1_EXPUPDOWN_PER, rect);

  003d7	6a 05		 push	 5
  003d9	6a 00		 push	 0
  003db	8b cf		 mov	 ecx, edi
  003dd	e8 00 00 00 00	 call	 ?GetCellRect@CGridCtrl@@QAEHHHPAUtagRECT@@@Z ; CGridCtrl::GetCellRect

; 321  : 				pGrid->GetCellRect(ROW_FIRST, COL_WAV1_ACHIEVE_PER, rectTemp);

  003e2	8d 45 dc	 lea	 eax, DWORD PTR _rectTemp$13[ebp]
  003e5	8b cf		 mov	 ecx, edi
  003e7	50		 push	 eax
  003e8	6a 07		 push	 7
  003ea	6a 00		 push	 0
  003ec	e8 00 00 00 00	 call	 ?GetCellRect@CGridCtrl@@QAEHHHPAUtagRECT@@@Z ; CGridCtrl::GetCellRect

; 322  : 				rect.right = rectTemp.right;

  003f1	8b 45 e4	 mov	 eax, DWORD PTR _rectTemp$13[ebp+8]

; 323  : 			}

  003f4	8b 4d 20	 mov	 ecx, DWORD PTR _rect$[ebp+12]
  003f7	eb 33		 jmp	 SHORT $LN38@Draw
$LN37@Draw:

; 444  : 		}
; 445  : 	}
; 446  : 	// <<-----------------------------------------------------------------------------------
; 447  :    
; 448  : 
; 449  :     pDC->RestoreDC(nSavedDC);

  003f9	51		 push	 ecx
  003fa	6a 00		 push	 0
  003fc	8b cf		 mov	 ecx, edi
  003fe	e8 00 00 00 00	 call	 ?GetCellRect@CGridCtrl@@QAEHHHPAUtagRECT@@@Z ; CGridCtrl::GetCellRect
  00403	8b 4d 20	 mov	 ecx, DWORD PTR _rect$[ebp+12]
  00406	eb 21		 jmp	 SHORT $LN160@Draw
$LN36@Draw:
  00408	8d 45 14	 lea	 eax, DWORD PTR _rect$[ebp]
  0040b	50		 push	 eax
  0040c	51		 push	 ecx
  0040d	6a 00		 push	 0
  0040f	8b cf		 mov	 ecx, edi
  00411	e8 00 00 00 00	 call	 ?GetCellRect@CGridCtrl@@QAEHHHPAUtagRECT@@@Z ; CGridCtrl::GetCellRect
  00416	8d 45 dc	 lea	 eax, DWORD PTR _rectTemp$13[ebp]
  00419	8b cf		 mov	 ecx, edi
  0041b	50		 push	 eax
  0041c	ff 75 10	 push	 DWORD PTR _nCol$[ebp]
  0041f	6a 01		 push	 1
  00421	e8 00 00 00 00	 call	 ?GetCellRect@CGridCtrl@@QAEHHHPAUtagRECT@@@Z ; CGridCtrl::GetCellRect
  00426	8b 4d e8	 mov	 ecx, DWORD PTR _rectTemp$13[ebp+12]
$LN160@Draw:
  00429	8b 45 1c	 mov	 eax, DWORD PTR _rect$[ebp+8]
$LN38@Draw:
  0042c	ff 4d 14	 dec	 DWORD PTR _rect$[ebp]
  0042f	40		 inc	 eax
  00430	ff 4d 18	 dec	 DWORD PTR _rect$[ebp+4]
  00433	41		 inc	 ecx
  00434	89 45 1c	 mov	 DWORD PTR _rect$[ebp+8], eax
  00437	89 4d 20	 mov	 DWORD PTR _rect$[ebp+12], ecx
$LN162@Draw:
  0043a	68 99 ac bf 00	 push	 12561561		; 00bfac99H
  0043f	68 99 ac bf 00	 push	 12561561		; 00bfac99H
  00444	8d 45 14	 lea	 eax, DWORD PTR _rect$[ebp]
  00447	8b ce		 mov	 ecx, esi
  00449	50		 push	 eax
  0044a	e8 00 00 00 00	 call	 ?Draw3dRect@CDC@@QAEXPBUtagRECT@@KK@Z ; CDC::Draw3dRect
  0044f	8b 03		 mov	 eax, DWORD PTR [ebx]
  00451	8b cb		 mov	 ecx, ebx
  00453	ff 45 14	 inc	 DWORD PTR _rect$[ebp]
  00456	ff 4d 1c	 dec	 DWORD PTR _rect$[ebp+8]
  00459	ff 4d 20	 dec	 DWORD PTR _rect$[ebp+12]
  0045c	83 45 18 03	 add	 DWORD PTR _rect$[ebp+4], 3
  00460	ff 50 54	 call	 DWORD PTR [eax+84]
  00463	0d 00 08 00 00	 or	 eax, 2048		; 00000800H
  00468	8b cb		 mov	 ecx, ebx
  0046a	50		 push	 eax
  0046b	8d 45 14	 lea	 eax, DWORD PTR _rect$[ebp]
  0046e	50		 push	 eax
  0046f	8b 03		 mov	 eax, DWORD PTR [ebx]
  00471	6a ff		 push	 -1
  00473	ff 50 40	 call	 DWORD PTR [eax+64]
  00476	50		 push	 eax
  00477	ff 76 04	 push	 DWORD PTR [esi+4]
  0047a	ff 15 00 00 00
	00		 call	 DWORD PTR __imp__DrawTextA@20
$LN154@Draw:
  00480	8b 75 b8	 mov	 esi, DWORD PTR _pDC$GSCopy$[ebp]
  00483	8b ce		 mov	 ecx, esi
  00485	ff 75 a0	 push	 DWORD PTR _nSavedDC$[ebp]
  00488	8b 06		 mov	 eax, DWORD PTR [esi]
  0048a	ff 50 28	 call	 DWORD PTR [eax+40]

; 450  : 
; 451  :     return TRUE;

  0048d	b8 01 00 00 00	 mov	 eax, 1
  00492	e9 31 02 00 00	 jmp	 $LN1@Draw
$LN32@Draw:

; 324  : 			else																//  
; 325  : 			{
; 326  : 				pGrid->GetCellRect(nRow, nCol, rect);
; 327  : 			}
; 328  : 			
; 329  : 			rect.InflateRect(1,1,1,1);
; 330  : 			pDC->Draw3dRect(rect, COLOR_GRIDLINE, COLOR_GRIDLINE);
; 331  : 			rect.DeflateRect(1,1,1,1);
; 332  : 			
; 333  : 			rect.top += 2;
; 334  : 			DrawText(pDC->m_hDC, GetText(), -1, rect, GetFormat() | DT_NOPREFIX);
; 335  : 		}
; 336  : 		else if ( nRow == ROW_FIRST+1)			//   

  00497	83 f8 01	 cmp	 eax, 1
  0049a	75 78		 jne	 SHORT $LN39@Draw

; 341  : 			if ( nCol == COL_WAV1_NUM || nCol == COL_WAV1_TIME || nCol == COL_WAV1_TYPE || nCol == COL_WAV1_NAME || nCol == COL_WAV1_CANDLECNT)

  0049c	8b 45 10	 mov	 eax, DWORD PTR _nCol$[ebp]
  0049f	0f 57 c0	 xorps	 xmm0, xmm0
; File C:\Program Files (x86)\Microsoft Visual Studio\2019\Community\VC\Tools\MSVC\14.29.30133\atlmfc\include\atltypes.h

; 528  : 	left = 0;

  004a2	0f 11 45 dc	 movups	 XMMWORD PTR _rectTemp$12[ebp], xmm0
; File D:\git\src\IBK\IBK_DRFN\ProjSrc\SrcChartEx\ChartAddIn\ChartPatternAddIn\Control_Grid\GridCellBase.cpp

; 341  : 			if ( nCol == COL_WAV1_NUM || nCol == COL_WAV1_TIME || nCol == COL_WAV1_TYPE || nCol == COL_WAV1_NAME || nCol == COL_WAV1_CANDLECNT)

  004a6	85 c0		 test	 eax, eax
  004a8	74 37		 je	 SHORT $LN43@Draw
  004aa	83 f8 01	 cmp	 eax, 1
  004ad	74 32		 je	 SHORT $LN43@Draw
  004af	83 f8 02	 cmp	 eax, 2
  004b2	74 2d		 je	 SHORT $LN43@Draw
  004b4	83 f8 03	 cmp	 eax, 3
  004b7	74 28		 je	 SHORT $LN43@Draw
  004b9	83 f8 04	 cmp	 eax, 4
  004bc	74 23		 je	 SHORT $LN43@Draw

; 346  : 			}
; 347  : 			// <<-------------------------------------------------
; 348  : 			else																//  
; 349  : 			{
; 350  : 				pGrid->GetCellRect(nRow, nCol, rect);

  004be	8d 4d 14	 lea	 ecx, DWORD PTR _rect$[ebp]
  004c1	51		 push	 ecx
  004c2	50		 push	 eax
  004c3	6a 01		 push	 1
  004c5	8b cf		 mov	 ecx, edi
  004c7	e8 00 00 00 00	 call	 ?GetCellRect@CGridCtrl@@QAEHHHPAUtagRECT@@@Z ; CGridCtrl::GetCellRect
  004cc	8b 45 20	 mov	 eax, DWORD PTR _rect$[ebp+12]
; File C:\Program Files (x86)\Microsoft Visual Studio\2019\Community\VC\Tools\MSVC\14.29.30133\atlmfc\include\atltypes.h

; 912  : 	left -= l;

  004cf	ff 4d 14	 dec	 DWORD PTR _rect$[ebp]

; 913  : 	top -= t;

  004d2	ff 4d 18	 dec	 DWORD PTR _rect$[ebp+4]

; 914  : 	right += r;

  004d5	ff 45 1c	 inc	 DWORD PTR _rect$[ebp+8]

; 915  : 	bottom += b;

  004d8	40		 inc	 eax
  004d9	89 45 20	 mov	 DWORD PTR _rect$[ebp+12], eax
; File D:\git\src\IBK\IBK_DRFN\ProjSrc\SrcChartEx\ChartAddIn\ChartPatternAddIn\Control_Grid\GridCellBase.cpp

; 359  : 		}

  004dc	e9 59 ff ff ff	 jmp	 $LN162@Draw
$LN43@Draw:

; 342  : 			{
; 343  : 				pGrid->GetCellRect(ROW_FIRST,	nCol, rect);

  004e1	8d 4d 14	 lea	 ecx, DWORD PTR _rect$[ebp]
  004e4	51		 push	 ecx
  004e5	50		 push	 eax
  004e6	6a 00		 push	 0
  004e8	8b cf		 mov	 ecx, edi
  004ea	e8 00 00 00 00	 call	 ?GetCellRect@CGridCtrl@@QAEHHHPAUtagRECT@@@Z ; CGridCtrl::GetCellRect

; 344  : 				pGrid->GetCellRect(ROW_FIRST+1,	nCol, rectTemp);

  004ef	8d 45 dc	 lea	 eax, DWORD PTR _rectTemp$12[ebp]
  004f2	8b cf		 mov	 ecx, edi
  004f4	50		 push	 eax
  004f5	ff 75 10	 push	 DWORD PTR _nCol$[ebp]
  004f8	6a 01		 push	 1
  004fa	e8 00 00 00 00	 call	 ?GetCellRect@CGridCtrl@@QAEHHHPAUtagRECT@@@Z ; CGridCtrl::GetCellRect

; 345  : 				rect.bottom = rectTemp.bottom;

  004ff	8b 45 e8	 mov	 eax, DWORD PTR _rectTemp$12[ebp+12]
; File C:\Program Files (x86)\Microsoft Visual Studio\2019\Community\VC\Tools\MSVC\14.29.30133\atlmfc\include\atltypes.h

; 912  : 	left -= l;

  00502	ff 4d 14	 dec	 DWORD PTR _rect$[ebp]

; 913  : 	top -= t;

  00505	ff 4d 18	 dec	 DWORD PTR _rect$[ebp+4]

; 914  : 	right += r;

  00508	ff 45 1c	 inc	 DWORD PTR _rect$[ebp+8]

; 915  : 	bottom += b;

  0050b	40		 inc	 eax
  0050c	89 45 20	 mov	 DWORD PTR _rect$[ebp+12], eax
; File D:\git\src\IBK\IBK_DRFN\ProjSrc\SrcChartEx\ChartAddIn\ChartPatternAddIn\Control_Grid\GridCellBase.cpp

; 359  : 		}

  0050f	e9 26 ff ff ff	 jmp	 $LN162@Draw
$LN39@Draw:

; 360  : 		else
; 361  : 		{
; 362  : 			pGrid->GetCellRect(nRow, nCol, rect);

  00514	8b 75 10	 mov	 esi, DWORD PTR _nCol$[ebp]
  00517	8d 4d 14	 lea	 ecx, DWORD PTR _rect$[ebp]
  0051a	51		 push	 ecx
  0051b	56		 push	 esi
  0051c	50		 push	 eax
  0051d	8b cf		 mov	 ecx, edi
  0051f	e8 00 00 00 00	 call	 ?GetCellRect@CGridCtrl@@QAEHHHPAUtagRECT@@@Z ; CGridCtrl::GetCellRect

; 363  : 			
; 364  : 			UINT nFlag = pGrid->GetItemFormat(nRow, nCol);

  00524	56		 push	 esi
  00525	ff 75 0c	 push	 DWORD PTR _nRow$[ebp]
  00528	8b cf		 mov	 ecx, edi
  0052a	e8 00 00 00 00	 call	 ?GetItemFormat@CGridCtrl@@QBEIHH@Z ; CGridCtrl::GetItemFormat

; 365  : 			if (nFlag & DT_LEFT)
; 366  : 				rect.left += 3;
; 367  : 			else if (nFlag & DT_RIGHT)

  0052f	a8 02		 test	 al, 2
  00531	74 04		 je	 SHORT $LN46@Draw

; 368  : 				rect.right -= 3;

  00533	83 6d 1c 03	 sub	 DWORD PTR _rect$[ebp+8], 3
$LN46@Draw:

; 369  : 			
; 370  : 			rect.top += 1;
; 371  : 			
; 372  : 			DrawText(pDC->m_hDC, GetText(), -1, rect, GetFormat() | DT_NOPREFIX);

  00537	8b 03		 mov	 eax, DWORD PTR [ebx]
  00539	8b cb		 mov	 ecx, ebx
  0053b	ff 45 18	 inc	 DWORD PTR _rect$[ebp+4]
  0053e	ff 50 54	 call	 DWORD PTR [eax+84]
  00541	0d 00 08 00 00	 or	 eax, 2048		; 00000800H
  00546	8b cb		 mov	 ecx, ebx
  00548	50		 push	 eax
  00549	8d 45 14	 lea	 eax, DWORD PTR _rect$[ebp]
  0054c	50		 push	 eax
  0054d	8b 03		 mov	 eax, DWORD PTR [ebx]
  0054f	6a ff		 push	 -1
  00551	ff 50 40	 call	 DWORD PTR [eax+64]
  00554	8b 75 b8	 mov	 esi, DWORD PTR _pDC$GSCopy$[ebp]
  00557	50		 push	 eax
  00558	ff 76 04	 push	 DWORD PTR [esi+4]
  0055b	ff 15 00 00 00
	00		 call	 DWORD PTR __imp__DrawTextA@20

; 444  : 		}
; 445  : 	}
; 446  : 	// <<-----------------------------------------------------------------------------------
; 447  :    
; 448  : 
; 449  :     pDC->RestoreDC(nSavedDC);

  00561	8b 06		 mov	 eax, DWORD PTR [esi]
  00563	8b ce		 mov	 ecx, esi
  00565	ff 75 a0	 push	 DWORD PTR _nSavedDC$[ebp]
  00568	ff 50 28	 call	 DWORD PTR [eax+40]

; 450  : 
; 451  :     return TRUE;

  0056b	b8 01 00 00 00	 mov	 eax, 1
  00570	e9 53 01 00 00	 jmp	 $LN1@Draw
$LN30@Draw:

; 373  : 		}
; 374  : 	}
; 375  : 	else if ( pGrid->GetPatternReportType() == CANDLE_REPORTTYPE1)

  00575	8b cf		 mov	 ecx, edi
  00577	e8 00 00 00 00	 call	 ?GetPatternReportType@CGridCtrl@@QAEHXZ ; CGridCtrl::GetPatternReportType
  0057c	3d d1 07 00 00	 cmp	 eax, 2001		; 000007d1H
  00581	0f 85 f9 fe ff
	ff		 jne	 $LN154@Draw

; 376  : 	{
; 377  : 		if ( nRow == ROW_FIRST )			//   

  00587	8b 45 0c	 mov	 eax, DWORD PTR _nRow$[ebp]
  0058a	85 c0		 test	 eax, eax
  0058c	75 62		 jne	 SHORT $LN48@Draw

; 382  : 			if ( nCol == COL_CND1_NUM || nCol == COL_CND1_TIME || nCol == COL_CND1_TYPE || nCol == COL_CND1_NAME)

  0058e	8b 4d 10	 mov	 ecx, DWORD PTR _nCol$[ebp]
  00591	0f 57 c0	 xorps	 xmm0, xmm0
; File C:\Program Files (x86)\Microsoft Visual Studio\2019\Community\VC\Tools\MSVC\14.29.30133\atlmfc\include\atltypes.h

; 528  : 	left = 0;

  00594	0f 11 45 dc	 movups	 XMMWORD PTR _rectTemp$11[ebp], xmm0
; File D:\git\src\IBK\IBK_DRFN\ProjSrc\SrcChartEx\ChartAddIn\ChartPatternAddIn\Control_Grid\GridCellBase.cpp

; 382  : 			if ( nCol == COL_CND1_NUM || nCol == COL_CND1_TIME || nCol == COL_CND1_TYPE || nCol == COL_CND1_NAME)

  00598	85 c9		 test	 ecx, ecx
  0059a	0f 84 68 fe ff
	ff		 je	 $LN36@Draw
  005a0	83 f9 01	 cmp	 ecx, 1
  005a3	0f 84 5f fe ff
	ff		 je	 $LN36@Draw
  005a9	83 f9 02	 cmp	 ecx, 2
  005ac	0f 84 56 fe ff
	ff		 je	 $LN36@Draw
  005b2	83 f9 03	 cmp	 ecx, 3
  005b5	0f 84 4d fe ff
	ff		 je	 $LN36@Draw

; 383  : 			{
; 384  : 				pGrid->GetCellRect(ROW_FIRST,	nCol, rect);
; 385  : 				pGrid->GetCellRect(ROW_FIRST+1,	nCol, rectTemp);
; 386  : 				rect.bottom = rectTemp.bottom;
; 387  : 			}
; 388  : 			// <<-------------------------------------------------		
; 389  : 			else if ( nCol >=  COL_CND1_DAY1 && nCol <=  COL_CND1_DAY5)

  005bb	8d 41 fc	 lea	 eax, DWORD PTR [ecx-4]
  005be	83 f8 04	 cmp	 eax, 4
  005c1	8d 45 14	 lea	 eax, DWORD PTR _rect$[ebp]
  005c4	50		 push	 eax
  005c5	0f 87 2e fe ff
	ff		 ja	 $LN37@Draw

; 390  : 			{
; 391  : 				pGrid->GetCellRect(ROW_FIRST, COL_CND1_DAY1, rect);

  005cb	6a 04		 push	 4
  005cd	6a 00		 push	 0
  005cf	8b cf		 mov	 ecx, edi
  005d1	e8 00 00 00 00	 call	 ?GetCellRect@CGridCtrl@@QAEHHHPAUtagRECT@@@Z ; CGridCtrl::GetCellRect

; 392  : 				pGrid->GetCellRect(ROW_FIRST, COL_CND1_DAY5, rectTemp);

  005d6	8d 45 dc	 lea	 eax, DWORD PTR _rectTemp$11[ebp]
  005d9	8b cf		 mov	 ecx, edi
  005db	50		 push	 eax
  005dc	6a 08		 push	 8
  005de	6a 00		 push	 0
  005e0	e8 00 00 00 00	 call	 ?GetCellRect@CGridCtrl@@QAEHHHPAUtagRECT@@@Z ; CGridCtrl::GetCellRect

; 393  : 				rect.right = rectTemp.right;

  005e5	8b 45 e4	 mov	 eax, DWORD PTR _rectTemp$11[ebp+8]

; 394  : 			}

  005e8	8b 4d 20	 mov	 ecx, DWORD PTR _rect$[ebp+12]
  005eb	e9 3c fe ff ff	 jmp	 $LN38@Draw
$LN48@Draw:

; 395  : 			else																//  
; 396  : 			{
; 397  : 				pGrid->GetCellRect(nRow, nCol, rect);
; 398  : 			}
; 399  : 			
; 400  : 			rect.InflateRect(1,1,1,1);
; 401  : 			pDC->Draw3dRect(rect, COLOR_GRIDLINE, COLOR_GRIDLINE);
; 402  : 			rect.DeflateRect(1,1,1,1);
; 403  : 			
; 404  : 			rect.top += 2;
; 405  : 			DrawText(pDC->m_hDC, GetText(), -1, rect, GetFormat() | DT_NOPREFIX);
; 406  : 		}
; 407  : 		else if ( nRow == ROW_FIRST+1)			//   

  005f0	83 f8 01	 cmp	 eax, 1
  005f3	75 73		 jne	 SHORT $LN55@Draw

; 412  : 			if ( nCol == COL_CND1_NUM || nCol == COL_CND1_TIME || nCol == COL_CND1_TYPE || nCol == COL_CND1_NAME)

  005f5	8b 45 10	 mov	 eax, DWORD PTR _nCol$[ebp]
  005f8	0f 57 c0	 xorps	 xmm0, xmm0
; File C:\Program Files (x86)\Microsoft Visual Studio\2019\Community\VC\Tools\MSVC\14.29.30133\atlmfc\include\atltypes.h

; 528  : 	left = 0;

  005fb	0f 11 45 bc	 movups	 XMMWORD PTR _rectTemp$9[ebp], xmm0
; File D:\git\src\IBK\IBK_DRFN\ProjSrc\SrcChartEx\ChartAddIn\ChartPatternAddIn\Control_Grid\GridCellBase.cpp

; 412  : 			if ( nCol == COL_CND1_NUM || nCol == COL_CND1_TIME || nCol == COL_CND1_TYPE || nCol == COL_CND1_NAME)

  005ff	85 c0		 test	 eax, eax
  00601	74 32		 je	 SHORT $LN59@Draw
  00603	83 f8 01	 cmp	 eax, 1
  00606	74 2d		 je	 SHORT $LN59@Draw
  00608	83 f8 02	 cmp	 eax, 2
  0060b	74 28		 je	 SHORT $LN59@Draw
  0060d	83 f8 03	 cmp	 eax, 3
  00610	74 23		 je	 SHORT $LN59@Draw

; 417  : 			}
; 418  : 			// <<-------------------------------------------------	
; 419  : 			else																//  
; 420  : 			{
; 421  : 				pGrid->GetCellRect(nRow, nCol, rect);

  00612	8d 4d 14	 lea	 ecx, DWORD PTR _rect$[ebp]
  00615	51		 push	 ecx
  00616	50		 push	 eax
  00617	6a 01		 push	 1
  00619	8b cf		 mov	 ecx, edi
  0061b	e8 00 00 00 00	 call	 ?GetCellRect@CGridCtrl@@QAEHHHPAUtagRECT@@@Z ; CGridCtrl::GetCellRect
  00620	8b 45 20	 mov	 eax, DWORD PTR _rect$[ebp+12]
; File C:\Program Files (x86)\Microsoft Visual Studio\2019\Community\VC\Tools\MSVC\14.29.30133\atlmfc\include\atltypes.h

; 912  : 	left -= l;

  00623	ff 4d 14	 dec	 DWORD PTR _rect$[ebp]

; 913  : 	top -= t;

  00626	ff 4d 18	 dec	 DWORD PTR _rect$[ebp+4]

; 914  : 	right += r;

  00629	ff 45 1c	 inc	 DWORD PTR _rect$[ebp+8]

; 915  : 	bottom += b;

  0062c	40		 inc	 eax
  0062d	89 45 20	 mov	 DWORD PTR _rect$[ebp+12], eax
; File D:\git\src\IBK\IBK_DRFN\ProjSrc\SrcChartEx\ChartAddIn\ChartPatternAddIn\Control_Grid\GridCellBase.cpp

; 430  : 		}

  00630	e9 05 fe ff ff	 jmp	 $LN162@Draw
$LN59@Draw:

; 413  : 			{
; 414  : 				pGrid->GetCellRect(ROW_FIRST,	nCol, rect);

  00635	8d 4d 14	 lea	 ecx, DWORD PTR _rect$[ebp]
  00638	51		 push	 ecx
  00639	50		 push	 eax
  0063a	6a 00		 push	 0
  0063c	8b cf		 mov	 ecx, edi
  0063e	e8 00 00 00 00	 call	 ?GetCellRect@CGridCtrl@@QAEHHHPAUtagRECT@@@Z ; CGridCtrl::GetCellRect

; 415  : 				pGrid->GetCellRect(ROW_FIRST+1,	nCol, rectTemp);

  00643	8d 45 bc	 lea	 eax, DWORD PTR _rectTemp$9[ebp]
  00646	8b cf		 mov	 ecx, edi
  00648	50		 push	 eax
  00649	ff 75 10	 push	 DWORD PTR _nCol$[ebp]
  0064c	6a 01		 push	 1
  0064e	e8 00 00 00 00	 call	 ?GetCellRect@CGridCtrl@@QAEHHHPAUtagRECT@@@Z ; CGridCtrl::GetCellRect

; 416  : 				rect.bottom = rectTemp.bottom;

  00653	8b 45 c8	 mov	 eax, DWORD PTR _rectTemp$9[ebp+12]
; File C:\Program Files (x86)\Microsoft Visual Studio\2019\Community\VC\Tools\MSVC\14.29.30133\atlmfc\include\atltypes.h

; 912  : 	left -= l;

  00656	ff 4d 14	 dec	 DWORD PTR _rect$[ebp]

; 913  : 	top -= t;

  00659	ff 4d 18	 dec	 DWORD PTR _rect$[ebp+4]

; 914  : 	right += r;

  0065c	ff 45 1c	 inc	 DWORD PTR _rect$[ebp+8]

; 915  : 	bottom += b;

  0065f	40		 inc	 eax
  00660	89 45 20	 mov	 DWORD PTR _rect$[ebp+12], eax
; File D:\git\src\IBK\IBK_DRFN\ProjSrc\SrcChartEx\ChartAddIn\ChartPatternAddIn\Control_Grid\GridCellBase.cpp

; 430  : 		}

  00663	e9 d2 fd ff ff	 jmp	 $LN162@Draw
$LN55@Draw:

; 431  : 		else
; 432  : 		{
; 433  : 			pGrid->GetCellRect(nRow, nCol, rect);

  00668	8b 75 10	 mov	 esi, DWORD PTR _nCol$[ebp]
  0066b	8d 4d 14	 lea	 ecx, DWORD PTR _rect$[ebp]
  0066e	51		 push	 ecx
  0066f	56		 push	 esi
  00670	50		 push	 eax
  00671	8b cf		 mov	 ecx, edi
  00673	e8 00 00 00 00	 call	 ?GetCellRect@CGridCtrl@@QAEHHHPAUtagRECT@@@Z ; CGridCtrl::GetCellRect

; 434  : 			
; 435  : 			UINT nFlag = pGrid->GetItemFormat(nRow, nCol);

  00678	56		 push	 esi
  00679	ff 75 0c	 push	 DWORD PTR _nRow$[ebp]
  0067c	8b cf		 mov	 ecx, edi
  0067e	e8 00 00 00 00	 call	 ?GetItemFormat@CGridCtrl@@QBEIHH@Z ; CGridCtrl::GetItemFormat

; 436  : 			if (nFlag & DT_LEFT)
; 437  : 				rect.left += 3;
; 438  : 			else if (nFlag & DT_RIGHT)

  00683	a8 02		 test	 al, 2
  00685	74 04		 je	 SHORT $LN62@Draw

; 439  : 				rect.right -= 3;

  00687	83 6d 1c 03	 sub	 DWORD PTR _rect$[ebp+8], 3
$LN62@Draw:

; 440  : 			
; 441  : 			rect.top += 1;
; 442  : 			
; 443  : 			DrawText(pDC->m_hDC, GetText(), -1, rect, GetFormat() | DT_NOPREFIX);

  0068b	8b 03		 mov	 eax, DWORD PTR [ebx]
  0068d	8b cb		 mov	 ecx, ebx
  0068f	ff 45 18	 inc	 DWORD PTR _rect$[ebp+4]
  00692	ff 50 54	 call	 DWORD PTR [eax+84]
  00695	0d 00 08 00 00	 or	 eax, 2048		; 00000800H
  0069a	8b cb		 mov	 ecx, ebx
  0069c	50		 push	 eax
  0069d	8d 45 14	 lea	 eax, DWORD PTR _rect$[ebp]
  006a0	50		 push	 eax
  006a1	8b 03		 mov	 eax, DWORD PTR [ebx]
  006a3	6a ff		 push	 -1
  006a5	ff 50 40	 call	 DWORD PTR [eax+64]
  006a8	8b 75 b8	 mov	 esi, DWORD PTR _pDC$GSCopy$[ebp]
  006ab	50		 push	 eax
  006ac	ff 76 04	 push	 DWORD PTR [esi+4]
  006af	ff 15 00 00 00
	00		 call	 DWORD PTR __imp__DrawTextA@20

; 444  : 		}
; 445  : 	}
; 446  : 	// <<-----------------------------------------------------------------------------------
; 447  :    
; 448  : 
; 449  :     pDC->RestoreDC(nSavedDC);

  006b5	8b 06		 mov	 eax, DWORD PTR [esi]
  006b7	8b ce		 mov	 ecx, esi
  006b9	ff 75 a0	 push	 DWORD PTR _nSavedDC$[ebp]
  006bc	ff 50 28	 call	 DWORD PTR [eax+40]

; 450  : 
; 451  :     return TRUE;

  006bf	b8 01 00 00 00	 mov	 eax, 1
  006c4	eb 02		 jmp	 SHORT $LN1@Draw
$LN3@Draw:

; 119  :         return FALSE;

  006c6	33 c0		 xor	 eax, eax
$LN1@Draw:

; 452  : 	
; 453  : //	// Draw cell background and highlighting (if necessary)
; 454  : //    if ( IsFocused() || IsDropHighlighted() )
; 455  : //    {
; 456  : //        // Always draw even in list mode so that we can tell where the
; 457  : //        // cursor is at.  Use the highlight colors though.
; 458  : //	    if(GetState() & GVIS_SELECTED)
; 459  : //        {
; 460  : //			TextBkClr = ::GetSysColor(COLOR_HIGHLIGHT);
; 461  : //			TextClr = ::GetSysColor(COLOR_HIGHLIGHTTEXT);
; 462  : //            bEraseBkgnd = TRUE;
; 463  : //        }
; 464  : //	
; 465  : //        rect.right++; rect.bottom++;    // FillRect doesn't draw RHS or bottom
; 466  : //        if (bEraseBkgnd)
; 467  : //        {
; 468  : //            TRY 
; 469  : //            {
; 470  : //                CBrush brush(TextBkClr);
; 471  : //                pDC->FillRect(rect, &brush);
; 472  : //            } 
; 473  : //            CATCH(CResourceException, e)
; 474  : //            {
; 475  : //                //e->ReportError();
; 476  : //            }
; 477  : //            END_CATCH
; 478  : //        }
; 479  : //
; 480  : //        // Don't adjust frame rect if no grid lines so that the
; 481  : //        // whole cell is enclosed.
; 482  : //        if(pGrid->GetGridLines() != GVL_NONE)
; 483  : //        {
; 484  : //            rect.right--;
; 485  : //            rect.bottom--;
; 486  : //        }
; 487  : //
; 488  : //        if (pGrid->GetFrameFocusCell())
; 489  : //        {
; 490  : //			// Use same color as text to outline the cell so that it shows
; 491  : //			// up if the background is black.
; 492  : //            TRY 
; 493  : //            {
; 494  : //					//CBrush brush(TextClr);
; 495  : //					//pDC->FrameRect(rect, &brush);				
; 496  : //					pDC->FillSolidRect(&rect, RGB(255, 251, 187));
; 497  : //					CBrush brush(RGB(255, 0, 0));
; 498  : //					pDC->FrameRect(rect, &brush);									
; 499  : //            }
; 500  : //            CATCH(CResourceException, e)
; 501  : //            {
; 502  : //                //e->ReportError();
; 503  : //            }
; 504  : //            END_CATCH
; 505  : //        }
; 506  : //        pDC->SetTextColor(TextClr);
; 507  : //
; 508  : //        // Adjust rect after frame draw if no grid lines
; 509  : //        if(pGrid->GetGridLines() == GVL_NONE)
; 510  : //        {
; 511  : //            rect.right--;
; 512  : //            rect.bottom--;
; 513  : //        }
; 514  : //
; 515  : //        rect.DeflateRect(1,1);
; 516  : //    }
; 517  : //	else if ((GetState() & GVIS_SELECTED))
; 518  : //    {
; 519  : //		rect.right++; rect.bottom++;    // FillRect doesn't draw RHS or bottom
; 520  : //        pDC->FillSolidRect(rect, ::GetSysColor(COLOR_HIGHLIGHT));
; 521  : //        rect.right--; rect.bottom--;
; 522  : //        pDC->SetTextColor(::GetSysColor(COLOR_HIGHLIGHTTEXT));
; 523  : //    }
; 524  : //	else
; 525  : //    {
; 526  : //		if (bEraseBkgnd)
; 527  : //        {
; 528  : //            rect.right++; rect.bottom++;    // FillRect doesn't draw RHS or bottom
; 529  : //
; 530  : //				CBrush brush(TextBkClr);
; 531  : //				pDC->FillRect(rect, &brush);
; 532  : //            rect.right--; rect.bottom--;
; 533  : //        }
; 534  : //        pDC->SetTextColor(TextClr);
; 535  : //    }
; 536  : //
; 537  : //	//    :  (2002214   1540)
; 538  : //	//  :    
; 539  : //	/*
; 540  : //	// Draw lines only when wanted
; 541  : //    if (IsFixed() && pGrid->GetGridLines() != GVL_NONE)
; 542  : //    {
; 543  : //        CCellID FocusCell = pGrid->GetFocusCell();
; 544  : //
; 545  : //        // As above, always show current location even in list mode so
; 546  : //        // that we know where the cursor is at.
; 547  : //        BOOL bHiliteFixed = pGrid->GetTrackFocusCell() && pGrid->IsValid(FocusCell) &&
; 548  : //                            (FocusCell.row == nRow || FocusCell.col == nCol);
; 549  : //
; 550  : //        // If this fixed cell is on the same row/col as the focus cell,
; 551  : //        // highlight it.
; 552  : //        if (bHiliteFixed)
; 553  : //        {
; 554  : //            rect.right++; rect.bottom++;
; 555  : //            pDC->DrawEdge(rect, BDR_SUNKENINNER , BF_RECT);	// EDGE_RAISED
; 556  : //            rect.DeflateRect(1,1);
; 557  : //        }
; 558  : //        else
; 559  : //        {
; 560  : //            CPen lightpen(PS_SOLID, 1,  ::GetSysColor(COLOR_3DHIGHLIGHT)),
; 561  : //                darkpen(PS_SOLID,  1, ::GetSysColor(COLOR_3DDKSHADOW)),
; 562  : //                *pOldPen = pDC->GetCurrentPen();
; 563  : //
; 564  : //            pDC->SelectObject(&lightpen);
; 565  : //            pDC->MoveTo(rect.right, rect.top);
; 566  : //            pDC->LineTo(rect.left, rect.top);
; 567  : //            pDC->LineTo(rect.left, rect.bottom);
; 568  : //
; 569  : //            pDC->SelectObject(&darkpen);
; 570  : //            pDC->MoveTo(rect.right, rect.top);
; 571  : //            pDC->LineTo(rect.right, rect.bottom);
; 572  : //            pDC->LineTo(rect.left, rect.bottom);
; 573  : //
; 574  : //            pDC->SelectObject(pOldPen);
; 575  : //            rect.DeflateRect(1,1);
; 576  : //        }
; 577  : //    }
; 578  : //	*/
; 579  : //	//  :(2002214 1540)
; 580  : //
; 581  : //	// Draw Text and image
; 582  : //    if (!pDC->m_bPrinting)
; 583  : //    {
; 584  : //        CFont *pFont = GetFontObject();
; 585  : //        if (pFont)
; 586  : //            pDC->SelectObject(pFont);
; 587  : //    }
; 588  : //
; 589  : //    rect.DeflateRect(GetMargin(), 0);
; 590  : //
; 591  : //	if (pGrid->GetImageList() && GetImage() >= 0)
; 592  : //    {
; 593  : //        IMAGEINFO Info;
; 594  : //        if (pGrid->GetImageList()->GetImageInfo(GetImage(), &Info))
; 595  : //        {
; 596  : //            //  would like to use a clipping region but seems to have issue
; 597  : //            //  working with CMemDC directly.  Instead, don't display image
; 598  : //            //  if any part of it cut-off
; 599  : //            //
; 600  : //            // CRgn rgn;
; 601  : //            // rgn.CreateRectRgnIndirect(rect);
; 602  : //            // pDC->SelectClipRgn(&rgn);
; 603  : //            // rgn.DeleteObject();
; 604  : //
; 605  : //            int nImageWidth = Info.rcImage.right-Info.rcImage.left+1;
; 606  : //            int nImageHeight = Info.rcImage.bottom-Info.rcImage.top+1;
; 607  : //
; 608  : //            if( nImageWidth + rect.left <= rect.right + (int)(2*GetMargin())
; 609  : //                && nImageHeight + rect.top <= rect.bottom + (int)(2*GetMargin())  )
; 610  : //            {
; 611  : //                pGrid->GetImageList()->Draw(pDC, GetImage(), rect.TopLeft(), ILD_NORMAL);
; 612  : //            }
; 613  : //
; 614  : //            //rect.left += nImageWidth+GetMargin();
; 615  : //        }
; 616  : //    }
; 617  : //
; 618  : //	//    :  (2002214   1540)
; 619  : //	//  :    
; 620  : //	/*
; 621  : //    // Draw sort arrow
; 622  : //	if (pGrid->GetSortColumn() == nCol && nRow == 0)
; 623  : //    {
; 624  : //        CSize size = pDC->GetTextExtent(_T("M"));
; 625  : //        int nOffset = 2;
; 626  : //
; 627  : //        // Base the size of the triangle on the smaller of the column
; 628  : //        // height or text height with a slight offset top and bottom.
; 629  : //        // Otherwise, it can get drawn outside the bounds of the cell.
; 630  : //        size.cy -= (nOffset * 2);
; 631  : //
; 632  : //        if (size.cy >= rect.Height())
; 633  : //            size.cy = rect.Height() - (nOffset * 2);
; 634  : //
; 635  : //        size.cx = size.cy;      // Make the dimensions square
; 636  : //
; 637  : //        // Kludge for vertical text
; 638  : //        BOOL bVertical = (GetFont()->lfEscapement == 900);
; 639  : //
; 640  : //        // Only draw if it'll fit!
; 641  : //        if (size.cx + rect.left < rect.right + (int)(2*GetMargin()))
; 642  : //        {
; 643  : //            int nTriangleBase = rect.bottom - nOffset - size.cy;    // Triangle bottom right
; 644  : //            //int nTriangleBase = (rect.top + rect.bottom - size.cy)/2; // Triangle middle right
; 645  : //            //int nTriangleBase = rect.top + nOffset;                 // Triangle top right
; 646  : //
; 647  : //            //int nTriangleLeft = rect.right - size.cx;                 // Triangle RHS
; 648  : //            //int nTriangleLeft = (rect.right + rect.left - size.cx)/2; // Triangle middle
; 649  : //            //int nTriangleLeft = rect.left;                            // Triangle LHS
; 650  : //
; 651  : //            int nTriangleLeft;
; 652  : //            if (bVertical)
; 653  : //                nTriangleLeft = (rect.right + rect.left - size.cx)/2; // Triangle middle
; 654  : //            else
; 655  : //                nTriangleLeft = rect.right - size.cx;               // Triangle RHS
; 656  : //
; 657  : //            CPen penShadow(PS_SOLID, 0, ::GetSysColor(COLOR_3DSHADOW));
; 658  : //            CPen penLight(PS_SOLID, 0, ::GetSysColor(COLOR_3DHILIGHT));
; 659  : //            if (pGrid->GetSortAscending())
; 660  : //            {
; 661  : //                // Draw triangle pointing upwards
; 662  : //                CPen *pOldPen = (CPen*) pDC->SelectObject(&penLight);
; 663  : //                pDC->MoveTo( nTriangleLeft + 1, nTriangleBase + size.cy + 1);
; 664  : //                pDC->LineTo( nTriangleLeft + (size.cx / 2) + 1, nTriangleBase + 1 );
; 665  : //                pDC->LineTo( nTriangleLeft + size.cx + 1, nTriangleBase + size.cy + 1);
; 666  : //                pDC->LineTo( nTriangleLeft + 1, nTriangleBase + size.cy + 1);
; 667  : //
; 668  : //                pDC->SelectObject(&penShadow);
; 669  : //                pDC->MoveTo( nTriangleLeft, nTriangleBase + size.cy );
; 670  : //                pDC->LineTo( nTriangleLeft + (size.cx / 2), nTriangleBase );
; 671  : //                pDC->LineTo( nTriangleLeft + size.cx, nTriangleBase + size.cy );
; 672  : //                pDC->LineTo( nTriangleLeft, nTriangleBase + size.cy );
; 673  : //                pDC->SelectObject(pOldPen);
; 674  : //            }
; 675  : //            else
; 676  : //            {
; 677  : //                // Draw triangle pointing downwards
; 678  : //                CPen *pOldPen = (CPen*) pDC->SelectObject(&penLight);
; 679  : //                pDC->MoveTo( nTriangleLeft + 1, nTriangleBase + 1 );
; 680  : //                pDC->LineTo( nTriangleLeft + (size.cx / 2) + 1, nTriangleBase + size.cy + 1 );
; 681  : //                pDC->LineTo( nTriangleLeft + size.cx + 1, nTriangleBase + 1 );
; 682  : //                pDC->LineTo( nTriangleLeft + 1, nTriangleBase + 1 );
; 683  : //    
; 684  : //                pDC->SelectObject(&penShadow);
; 685  : //                pDC->MoveTo( nTriangleLeft, nTriangleBase );
; 686  : //                pDC->LineTo( nTriangleLeft + (size.cx / 2), nTriangleBase + size.cy );
; 687  : //                pDC->LineTo( nTriangleLeft + size.cx, nTriangleBase );
; 688  : //                pDC->LineTo( nTriangleLeft, nTriangleBase );
; 689  : //                pDC->SelectObject(pOldPen);
; 690  : //            }
; 691  : //            
; 692  : //            if (!bVertical)
; 693  : //                rect.right -= size.cy;
; 694  : //        }
; 695  : //    }
; 696  : //	*/
; 697  : //	//  :(2002214 1540)
; 698  : //	
; 699  : //    // We want to see '&' characters so use DT_NOPREFIX
; 700  : //    GetTextRect(rect);
; 701  : //    DrawText(pDC->m_hDC, GetText(), -1, rect, GetFormat() | DT_NOPREFIX);
; 702  : //
; 703  : //    pDC->RestoreDC(nSavedDC);
; 704  : //
; 705  : //    return TRUE;
; 706  : }

  006c8	8b 4d f4	 mov	 ecx, DWORD PTR __$EHRec$[ebp+4]
  006cb	64 89 0d 00 00
	00 00		 mov	 DWORD PTR fs:0, ecx
  006d2	59		 pop	 ecx
  006d3	5f		 pop	 edi
  006d4	5e		 pop	 esi
  006d5	5b		 pop	 ebx
  006d6	8b 4d ec	 mov	 ecx, DWORD PTR __$ArrayPad$[ebp]
  006d9	33 cd		 xor	 ecx, ebp
  006db	e8 00 00 00 00	 call	 @__security_check_cookie@4
  006e0	8b e5		 mov	 esp, ebp
  006e2	5d		 pop	 ebp
  006e3	c2 20 00	 ret	 32			; 00000020H
_TEXT	ENDS
;	COMDAT text$x
text$x	SEGMENT
__unwindfunclet$?Draw@CGridCellBase@@UAEHPAVCDC@@HHVCRect@@H@Z$4:
  00000	8d 4d e4	 lea	 ecx, DWORD PTR __afxExceptionLink$15[ebp]
  00003	e9 00 00 00 00	 jmp	 ??1AFX_EXCEPTION_LINK@@QAE@XZ ; AFX_EXCEPTION_LINK::~AFX_EXCEPTION_LINK
  00008	cc		 int	 3
  00009	cc		 int	 3
  0000a	cc		 int	 3
  0000b	cc		 int	 3
  0000c	cc		 int	 3
__ehhandler$?Draw@CGridCellBase@@UAEHPAVCDC@@HHVCRect@@H@Z:
  0000d	90		 npad	 1
  0000e	90		 npad	 1
  0000f	8b 54 24 08	 mov	 edx, DWORD PTR [esp+8]
  00013	8d 42 0c	 lea	 eax, DWORD PTR [edx+12]
  00016	8b 4a 88	 mov	 ecx, DWORD PTR [edx-120]
  00019	33 c8		 xor	 ecx, eax
  0001b	e8 00 00 00 00	 call	 @__security_check_cookie@4
  00020	8b 4a f8	 mov	 ecx, DWORD PTR [edx-8]
  00023	33 c8		 xor	 ecx, eax
  00025	e8 00 00 00 00	 call	 @__security_check_cookie@4
  0002a	b8 00 00 00 00	 mov	 eax, OFFSET __ehfuncinfo$?Draw@CGridCellBase@@UAEHPAVCDC@@HHVCRect@@H@Z
  0002f	e9 00 00 00 00	 jmp	 ___CxxFrameHandler3
text$x	ENDS
?Draw@CGridCellBase@@UAEHPAVCDC@@HHVCRect@@H@Z ENDP	; CGridCellBase::Draw
; Function compile flags: /Ogtp
; File D:\git\src\IBK\IBK_DRFN\ProjSrc\SrcChartEx\ChartAddIn\ChartPatternAddIn\Control_Grid\GridCellBase.cpp
;	COMDAT ?Reset@CGridCellBase@@UAEXXZ
_TEXT	SEGMENT
?Reset@CGridCellBase@@UAEXXZ PROC			; CGridCellBase::Reset, COMDAT
; _this$ = ecx

; 73   :     m_nState  = 0;

  00000	c7 41 04 00 00
	00 00		 mov	 DWORD PTR [ecx+4], 0

; 74   : }

  00007	c3		 ret	 0
?Reset@CGridCellBase@@UAEXXZ ENDP			; CGridCellBase::Reset
_TEXT	ENDS
; Function compile flags: /Ogtp
; File D:\git\src\IBK\IBK_DRFN\ProjSrc\SrcChartEx\ChartAddIn\ChartPatternAddIn\Control_Grid\GridCellBase.cpp
;	COMDAT ??4CGridCellBase@@UAEXABV0@@Z
_TEXT	SEGMENT
_cell$ = 8						; size = 4
??4CGridCellBase@@UAEXABV0@@Z PROC			; CGridCellBase::operator=, COMDAT
; _this$ = ecx

; 77   : {

  00000	55		 push	 ebp
  00001	8b ec		 mov	 ebp, esp
  00003	53		 push	 ebx
  00004	56		 push	 esi
  00005	57		 push	 edi

; 78   :     SetGrid(cell.GetGrid());    // do first in case of dependencies

  00006	8b 7d 08	 mov	 edi, DWORD PTR _cell$[ebp]
  00009	8b d9		 mov	 ebx, ecx
  0000b	8b cf		 mov	 ecx, edi
  0000d	8b 07		 mov	 eax, DWORD PTR [edi]
  0000f	8b 33		 mov	 esi, DWORD PTR [ebx]
  00011	ff 50 68	 call	 DWORD PTR [eax+104]
  00014	50		 push	 eax
  00015	8b cb		 mov	 ecx, ebx
  00017	ff 56 38	 call	 DWORD PTR [esi+56]

; 79   : 
; 80   :     SetText(cell.GetText());

  0001a	8b 07		 mov	 eax, DWORD PTR [edi]
  0001c	8b cf		 mov	 ecx, edi
  0001e	8b 33		 mov	 esi, DWORD PTR [ebx]
  00020	ff 50 40	 call	 DWORD PTR [eax+64]
  00023	50		 push	 eax
  00024	8b cb		 mov	 ecx, ebx
  00026	ff 56 14	 call	 DWORD PTR [esi+20]

; 81   :     SetImage(cell.GetImage());

  00029	8b 07		 mov	 eax, DWORD PTR [edi]
  0002b	8b cf		 mov	 ecx, edi
  0002d	8b 33		 mov	 esi, DWORD PTR [ebx]
  0002f	ff 50 48	 call	 DWORD PTR [eax+72]
  00032	50		 push	 eax
  00033	8b cb		 mov	 ecx, ebx
  00035	ff 56 18	 call	 DWORD PTR [esi+24]

; 82   :     SetData(cell.GetData());

  00038	8b 07		 mov	 eax, DWORD PTR [edi]
  0003a	8b cf		 mov	 ecx, edi
  0003c	8b 33		 mov	 esi, DWORD PTR [ebx]
  0003e	ff 50 4c	 call	 DWORD PTR [eax+76]
  00041	50		 push	 eax
  00042	8b cb		 mov	 ecx, ebx
  00044	ff 56 1c	 call	 DWORD PTR [esi+28]

; 83   :     SetState(cell.GetState());

  00047	8b 07		 mov	 eax, DWORD PTR [edi]
  00049	8b cf		 mov	 ecx, edi
  0004b	8b 33		 mov	 esi, DWORD PTR [ebx]
  0004d	ff 50 50	 call	 DWORD PTR [eax+80]
  00050	50		 push	 eax
  00051	8b cb		 mov	 ecx, ebx
  00053	ff 56 20	 call	 DWORD PTR [esi+32]

; 84   :     SetFormat(cell.GetFormat());

  00056	8b 07		 mov	 eax, DWORD PTR [edi]
  00058	8b cf		 mov	 ecx, edi
  0005a	8b 33		 mov	 esi, DWORD PTR [ebx]
  0005c	ff 50 54	 call	 DWORD PTR [eax+84]
  0005f	50		 push	 eax
  00060	8b cb		 mov	 ecx, ebx
  00062	ff 56 24	 call	 DWORD PTR [esi+36]

; 85   :     SetTextClr(cell.GetTextClr());

  00065	8b 07		 mov	 eax, DWORD PTR [edi]
  00067	8b cf		 mov	 ecx, edi
  00069	8b 33		 mov	 esi, DWORD PTR [ebx]
  0006b	ff 50 58	 call	 DWORD PTR [eax+88]
  0006e	50		 push	 eax
  0006f	8b cb		 mov	 ecx, ebx
  00071	ff 56 28	 call	 DWORD PTR [esi+40]

; 86   :     SetBackClr(cell.GetBackClr());

  00074	8b 07		 mov	 eax, DWORD PTR [edi]
  00076	8b cf		 mov	 ecx, edi
  00078	8b 33		 mov	 esi, DWORD PTR [ebx]
  0007a	ff 50 5c	 call	 DWORD PTR [eax+92]
  0007d	50		 push	 eax
  0007e	8b cb		 mov	 ecx, ebx
  00080	ff 56 2c	 call	 DWORD PTR [esi+44]

; 87   :     SetFont(cell.IsDefaultFont()? NULL : cell.GetFont());

  00083	8b 07		 mov	 eax, DWORD PTR [edi]
  00085	8b cf		 mov	 ecx, edi
  00087	ff 50 78	 call	 DWORD PTR [eax+120]
  0008a	85 c0		 test	 eax, eax
  0008c	74 04		 je	 SHORT $LN3@operator
  0008e	33 c0		 xor	 eax, eax
  00090	eb 07		 jmp	 SHORT $LN4@operator
$LN3@operator:
  00092	8b 07		 mov	 eax, DWORD PTR [edi]
  00094	8b cf		 mov	 ecx, edi
  00096	ff 50 60	 call	 DWORD PTR [eax+96]
$LN4@operator:
  00099	8b 13		 mov	 edx, DWORD PTR [ebx]
  0009b	8b cb		 mov	 ecx, ebx
  0009d	50		 push	 eax
  0009e	ff 52 30	 call	 DWORD PTR [edx+48]

; 88   :     SetMargin(cell.GetMargin());

  000a1	8b 07		 mov	 eax, DWORD PTR [edi]
  000a3	8b cf		 mov	 ecx, edi
  000a5	8b 33		 mov	 esi, DWORD PTR [ebx]
  000a7	ff 50 70	 call	 DWORD PTR [eax+112]
  000aa	50		 push	 eax
  000ab	8b cb		 mov	 ecx, ebx
  000ad	ff 56 34	 call	 DWORD PTR [esi+52]
  000b0	5f		 pop	 edi
  000b1	5e		 pop	 esi
  000b2	5b		 pop	 ebx

; 89   : }

  000b3	5d		 pop	 ebp
  000b4	c2 04 00	 ret	 4
??4CGridCellBase@@UAEXABV0@@Z ENDP			; CGridCellBase::operator=
_TEXT	ENDS
; Function compile flags: /Ogtp
; File D:\git\src\IBK\IBK_DRFN\ProjSrc\SrcChartEx\ChartAddIn\ChartPatternAddIn\Control_Grid\GridCellBase.h
;	COMDAT ?IsDropHighlighted@CGridCellBase@@UBEHXZ
_TEXT	SEGMENT
?IsDropHighlighted@CGridCellBase@@UBEHXZ PROC		; CGridCellBase::IsDropHighlighted, COMDAT
; _this$ = ecx

; 131  :     virtual BOOL IsDropHighlighted() const                  { return (m_nState & GVIS_DROPHILITED); }

  00000	8b 41 04	 mov	 eax, DWORD PTR [ecx+4]
  00003	83 e0 04	 and	 eax, 4
  00006	c3		 ret	 0
?IsDropHighlighted@CGridCellBase@@UBEHXZ ENDP		; CGridCellBase::IsDropHighlighted
_TEXT	ENDS
; Function compile flags: /Ogtp
; File D:\git\src\IBK\IBK_DRFN\ProjSrc\SrcChartEx\ChartAddIn\ChartPatternAddIn\Control_Grid\GridCellBase.h
;	COMDAT ?IsModified@CGridCellBase@@UBEHXZ
_TEXT	SEGMENT
?IsModified@CGridCellBase@@UBEHXZ PROC			; CGridCellBase::IsModified, COMDAT
; _this$ = ecx

; 130  :     virtual BOOL IsModified() const                         { return (m_nState & GVIS_MODIFIED); }

  00000	8b 41 04	 mov	 eax, DWORD PTR [ecx+4]
  00003	25 80 00 00 00	 and	 eax, 128		; 00000080H
  00008	c3		 ret	 0
?IsModified@CGridCellBase@@UBEHXZ ENDP			; CGridCellBase::IsModified
_TEXT	ENDS
; Function compile flags: /Ogtp
; File D:\git\src\IBK\IBK_DRFN\ProjSrc\SrcChartEx\ChartAddIn\ChartPatternAddIn\Control_Grid\GridCellBase.h
;	COMDAT ?IsReadOnly@CGridCellBase@@UBEHXZ
_TEXT	SEGMENT
?IsReadOnly@CGridCellBase@@UBEHXZ PROC			; CGridCellBase::IsReadOnly, COMDAT
; _this$ = ecx

; 129  :     virtual BOOL IsReadOnly() const                         { return (m_nState & GVIS_READONLY); }

  00000	8b 41 04	 mov	 eax, DWORD PTR [ecx+4]
  00003	83 e0 08	 and	 eax, 8
  00006	c3		 ret	 0
?IsReadOnly@CGridCellBase@@UBEHXZ ENDP			; CGridCellBase::IsReadOnly
_TEXT	ENDS
; Function compile flags: /Ogtp
; File D:\git\src\IBK\IBK_DRFN\ProjSrc\SrcChartEx\ChartAddIn\ChartPatternAddIn\Control_Grid\GridCellBase.h
;	COMDAT ?IsSelected@CGridCellBase@@UBEHXZ
_TEXT	SEGMENT
?IsSelected@CGridCellBase@@UBEHXZ PROC			; CGridCellBase::IsSelected, COMDAT
; _this$ = ecx

; 128  :     virtual BOOL IsSelected() const                         { return (m_nState & GVIS_SELECTED); }

  00000	8b 41 04	 mov	 eax, DWORD PTR [ecx+4]
  00003	83 e0 02	 and	 eax, 2
  00006	c3		 ret	 0
?IsSelected@CGridCellBase@@UBEHXZ ENDP			; CGridCellBase::IsSelected
_TEXT	ENDS
; Function compile flags: /Ogtp
; File D:\git\src\IBK\IBK_DRFN\ProjSrc\SrcChartEx\ChartAddIn\ChartPatternAddIn\Control_Grid\GridCellBase.h
;	COMDAT ?IsFixedRow@CGridCellBase@@UBEHXZ
_TEXT	SEGMENT
?IsFixedRow@CGridCellBase@@UBEHXZ PROC			; CGridCellBase::IsFixedRow, COMDAT
; _this$ = ecx

; 127  :     virtual BOOL IsFixedRow() const                         { return (m_nState & GVIS_FIXEDROW); }

  00000	8b 41 04	 mov	 eax, DWORD PTR [ecx+4]
  00003	83 e0 20	 and	 eax, 32			; 00000020H
  00006	c3		 ret	 0
?IsFixedRow@CGridCellBase@@UBEHXZ ENDP			; CGridCellBase::IsFixedRow
_TEXT	ENDS
; Function compile flags: /Ogtp
; File D:\git\src\IBK\IBK_DRFN\ProjSrc\SrcChartEx\ChartAddIn\ChartPatternAddIn\Control_Grid\GridCellBase.h
;	COMDAT ?IsFixedCol@CGridCellBase@@UBEHXZ
_TEXT	SEGMENT
?IsFixedCol@CGridCellBase@@UBEHXZ PROC			; CGridCellBase::IsFixedCol, COMDAT
; _this$ = ecx

; 126  :     virtual BOOL IsFixedCol() const                         { return (m_nState & GVIS_FIXEDCOL); }

  00000	8b 41 04	 mov	 eax, DWORD PTR [ecx+4]
  00003	83 e0 40	 and	 eax, 64			; 00000040H
  00006	c3		 ret	 0
?IsFixedCol@CGridCellBase@@UBEHXZ ENDP			; CGridCellBase::IsFixedCol
_TEXT	ENDS
; Function compile flags: /Ogtp
; File D:\git\src\IBK\IBK_DRFN\ProjSrc\SrcChartEx\ChartAddIn\ChartPatternAddIn\Control_Grid\GridCellBase.h
;	COMDAT ?IsFixed@CGridCellBase@@UBEHXZ
_TEXT	SEGMENT
?IsFixed@CGridCellBase@@UBEHXZ PROC			; CGridCellBase::IsFixed, COMDAT
; _this$ = ecx

; 125  :     virtual BOOL IsFixed()    const                         { return (m_nState & GVIS_FIXED);    }

  00000	8b 41 04	 mov	 eax, DWORD PTR [ecx+4]
  00003	83 e0 10	 and	 eax, 16			; 00000010H
  00006	c3		 ret	 0
?IsFixed@CGridCellBase@@UBEHXZ ENDP			; CGridCellBase::IsFixed
_TEXT	ENDS
; Function compile flags: /Ogtp
; File D:\git\src\IBK\IBK_DRFN\ProjSrc\SrcChartEx\ChartAddIn\ChartPatternAddIn\Control_Grid\GridCellBase.h
;	COMDAT ?IsFocused@CGridCellBase@@UBEHXZ
_TEXT	SEGMENT
?IsFocused@CGridCellBase@@UBEHXZ PROC			; CGridCellBase::IsFocused, COMDAT
; _this$ = ecx

; 124  :     virtual BOOL IsFocused()  const                         { return (m_nState & GVIS_FOCUSED);  }

  00000	8b 41 04	 mov	 eax, DWORD PTR [ecx+4]
  00003	83 e0 01	 and	 eax, 1
  00006	c3		 ret	 0
?IsFocused@CGridCellBase@@UBEHXZ ENDP			; CGridCellBase::IsFocused
_TEXT	ENDS
; Function compile flags: /Ogtp
; File D:\git\src\IBK\IBK_DRFN\ProjSrc\SrcChartEx\ChartAddIn\ChartPatternAddIn\Control_Grid\GridCellBase.h
;	COMDAT ?IsEditing@CGridCellBase@@UBEHXZ
_TEXT	SEGMENT
?IsEditing@CGridCellBase@@UBEHXZ PROC			; CGridCellBase::IsEditing, COMDAT
; _this$ = ecx

; 123  :     virtual BOOL IsEditing() const                          { ASSERT( FALSE); return FALSE; }

  00000	33 c0		 xor	 eax, eax
  00002	c3		 ret	 0
?IsEditing@CGridCellBase@@UBEHXZ ENDP			; CGridCellBase::IsEditing
_TEXT	ENDS
; Function compile flags: /Ogtp
; File D:\git\src\IBK\IBK_DRFN\ProjSrc\SrcChartEx\ChartAddIn\ChartPatternAddIn\Control_Grid\GridCellBase.h
;	COMDAT ?IsDefaultFont@CGridCellBase@@UBEHXZ
_TEXT	SEGMENT
?IsDefaultFont@CGridCellBase@@UBEHXZ PROC		; CGridCellBase::IsDefaultFont, COMDAT
; _this$ = ecx

; 122  :     virtual BOOL IsDefaultFont() const                      { ASSERT( FALSE); return FALSE; }

  00000	33 c0		 xor	 eax, eax
  00002	c3		 ret	 0
?IsDefaultFont@CGridCellBase@@UBEHXZ ENDP		; CGridCellBase::IsDefaultFont
_TEXT	ENDS
; Function compile flags: /Ogtp
; File D:\git\src\IBK\IBK_DRFN\ProjSrc\SrcChartEx\ChartAddIn\ChartPatternAddIn\Control_Grid\GridCellBase.cpp
; File D:\git\src\IBK\IBK_DRFN\ProjSrc\SrcChartEx\ChartAddIn\ChartPatternAddIn\Control_Grid\GridCtrl.h
; File D:\git\src\IBK\IBK_DRFN\ProjSrc\SrcChartEx\ChartAddIn\ChartPatternAddIn\Control_Grid\GridCellBase.cpp
; File D:\git\src\IBK\IBK_DRFN\ProjSrc\SrcChartEx\ChartAddIn\ChartPatternAddIn\Control_Grid\GridCtrl.h
; File D:\git\src\IBK\IBK_DRFN\ProjSrc\SrcChartEx\ChartAddIn\ChartPatternAddIn\Control_Grid\GridCellBase.cpp
; File D:\git\src\IBK\IBK_DRFN\ProjSrc\SrcChartEx\ChartAddIn\ChartPatternAddIn\Control_Grid\GridCtrl.h
; File D:\git\src\IBK\IBK_DRFN\ProjSrc\SrcChartEx\ChartAddIn\ChartPatternAddIn\Control_Grid\GridCellBase.cpp
; File D:\git\src\IBK\IBK_DRFN\ProjSrc\SrcChartEx\ChartAddIn\ChartPatternAddIn\Control_Grid\GridCtrl.h
; File D:\git\src\IBK\IBK_DRFN\ProjSrc\SrcChartEx\ChartAddIn\ChartPatternAddIn\Control_Grid\GridCellBase.cpp
; File D:\git\src\IBK\IBK_DRFN\ProjSrc\SrcChartEx\ChartAddIn\ChartPatternAddIn\Control_Grid\GridCtrl.h
; File D:\git\src\IBK\IBK_DRFN\ProjSrc\SrcChartEx\ChartAddIn\ChartPatternAddIn\Control_Grid\GridCellBase.cpp
;	COMDAT ?GetDefaultCell@CGridCellBase@@UBEPAV1@XZ
_TEXT	SEGMENT
?GetDefaultCell@CGridCellBase@@UBEPAV1@XZ PROC		; CGridCellBase::GetDefaultCell, COMDAT
; _this$ = ecx

; 96   : {

  00000	57		 push	 edi
  00001	8b f9		 mov	 edi, ecx

; 97   :     if (GetGrid())

  00003	8b 07		 mov	 eax, DWORD PTR [edi]
  00005	ff 50 68	 call	 DWORD PTR [eax+104]
  00008	85 c0		 test	 eax, eax
  0000a	74 4f		 je	 SHORT $LN2@GetDefault

; 98   :         return GetGrid()->GetDefaultCell(IsFixedRow(), IsFixedCol());

  0000c	8b 07		 mov	 eax, DWORD PTR [edi]
  0000e	8b cf		 mov	 ecx, edi
  00010	53		 push	 ebx
  00011	56		 push	 esi
  00012	ff 90 88 00 00
	00		 call	 DWORD PTR [eax+136]
  00018	8b 17		 mov	 edx, DWORD PTR [edi]
  0001a	8b cf		 mov	 ecx, edi
  0001c	8b d8		 mov	 ebx, eax
  0001e	ff 92 8c 00 00
	00		 call	 DWORD PTR [edx+140]
  00024	8b 17		 mov	 edx, DWORD PTR [edi]
  00026	8b cf		 mov	 ecx, edi
  00028	8b f0		 mov	 esi, eax
  0002a	ff 52 68	 call	 DWORD PTR [edx+104]
; File D:\git\src\IBK\IBK_DRFN\ProjSrc\SrcChartEx\ChartAddIn\ChartPatternAddIn\Control_Grid\GridCtrl.h

; 855  :     if (bFixedRow && bFixedCol) return (CGridCellBase*) &m_cellFixedRowColDef;

  0002d	85 f6		 test	 esi, esi
  0002f	74 15		 je	 SHORT $LN6@GetDefault
; File D:\git\src\IBK\IBK_DRFN\ProjSrc\SrcChartEx\ChartAddIn\ChartPatternAddIn\Control_Grid\GridCellBase.cpp

; 98   :         return GetGrid()->GetDefaultCell(IsFixedRow(), IsFixedCol());

  00031	85 db		 test	 ebx, ebx
; File D:\git\src\IBK\IBK_DRFN\ProjSrc\SrcChartEx\ChartAddIn\ChartPatternAddIn\Control_Grid\GridCtrl.h

; 855  :     if (bFixedRow && bFixedCol) return (CGridCellBase*) &m_cellFixedRowColDef;

  00033	b9 04 02 00 00	 mov	 ecx, 516		; 00000204H
; File D:\git\src\IBK\IBK_DRFN\ProjSrc\SrcChartEx\ChartAddIn\ChartPatternAddIn\Control_Grid\GridCellBase.cpp

; 98   :         return GetGrid()->GetDefaultCell(IsFixedRow(), IsFixedCol());

  00038	5e		 pop	 esi
; File D:\git\src\IBK\IBK_DRFN\ProjSrc\SrcChartEx\ChartAddIn\ChartPatternAddIn\Control_Grid\GridCtrl.h

; 855  :     if (bFixedRow && bFixedCol) return (CGridCellBase*) &m_cellFixedRowColDef;

  00039	ba 4c 02 00 00	 mov	 edx, 588		; 0000024cH
; File D:\git\src\IBK\IBK_DRFN\ProjSrc\SrcChartEx\ChartAddIn\ChartPatternAddIn\Control_Grid\GridCellBase.cpp

; 98   :         return GetGrid()->GetDefaultCell(IsFixedRow(), IsFixedCol());

  0003e	0f 45 ca	 cmovne	 ecx, edx
  00041	5b		 pop	 ebx
  00042	03 c1		 add	 eax, ecx
  00044	5f		 pop	 edi

; 100  : }

  00045	c3		 ret	 0
$LN6@GetDefault:

; 98   :         return GetGrid()->GetDefaultCell(IsFixedRow(), IsFixedCol());

  00046	85 db		 test	 ebx, ebx
; File D:\git\src\IBK\IBK_DRFN\ProjSrc\SrcChartEx\ChartAddIn\ChartPatternAddIn\Control_Grid\GridCtrl.h

; 857  :     if (bFixedCol)              return (CGridCellBase*) &m_cellFixedColDef;

  00048	b9 74 01 00 00	 mov	 ecx, 372		; 00000174H
; File D:\git\src\IBK\IBK_DRFN\ProjSrc\SrcChartEx\ChartAddIn\ChartPatternAddIn\Control_Grid\GridCellBase.cpp

; 98   :         return GetGrid()->GetDefaultCell(IsFixedRow(), IsFixedCol());

  0004d	5e		 pop	 esi
; File D:\git\src\IBK\IBK_DRFN\ProjSrc\SrcChartEx\ChartAddIn\ChartPatternAddIn\Control_Grid\GridCtrl.h

; 857  :     if (bFixedCol)              return (CGridCellBase*) &m_cellFixedColDef;

  0004e	ba bc 01 00 00	 mov	 edx, 444		; 000001bcH
; File D:\git\src\IBK\IBK_DRFN\ProjSrc\SrcChartEx\ChartAddIn\ChartPatternAddIn\Control_Grid\GridCellBase.cpp

; 98   :         return GetGrid()->GetDefaultCell(IsFixedRow(), IsFixedCol());

  00053	0f 45 ca	 cmovne	 ecx, edx
  00056	5b		 pop	 ebx
  00057	03 c1		 add	 eax, ecx
  00059	5f		 pop	 edi

; 100  : }

  0005a	c3		 ret	 0
$LN2@GetDefault:

; 99   :     return NULL;

  0005b	33 c0		 xor	 eax, eax
  0005d	5f		 pop	 edi

; 100  : }

  0005e	c3		 ret	 0
?GetDefaultCell@CGridCellBase@@UBEPAV1@XZ ENDP		; CGridCellBase::GetDefaultCell
_TEXT	ENDS
; Function compile flags: /Ogtp
; File D:\git\src\IBK\IBK_DRFN\ProjSrc\SrcChartEx\ChartAddIn\ChartPatternAddIn\Control_Grid\GridCellBase.h
;	COMDAT ?GetMargin@CGridCellBase@@UBEIXZ
_TEXT	SEGMENT
?GetMargin@CGridCellBase@@UBEIXZ PROC			; CGridCellBase::GetMargin, COMDAT
; _this$ = ecx

; 118  :     virtual UINT     GetMargin() const                      { ASSERT( FALSE); return 0;     }

  00000	33 c0		 xor	 eax, eax
  00002	c3		 ret	 0
?GetMargin@CGridCellBase@@UBEIXZ ENDP			; CGridCellBase::GetMargin
_TEXT	ENDS
; Function compile flags: /Ogtp
; File D:\git\src\IBK\IBK_DRFN\ProjSrc\SrcChartEx\ChartAddIn\ChartPatternAddIn\Control_Grid\GridCellBase.h
;	COMDAT ?GetEditWnd@CGridCellBase@@UBEPAVCWnd@@XZ
_TEXT	SEGMENT
?GetEditWnd@CGridCellBase@@UBEPAVCWnd@@XZ PROC		; CGridCellBase::GetEditWnd, COMDAT
; _this$ = ecx

; 117  :     virtual CWnd*    GetEditWnd() const                     { ASSERT( FALSE); return NULL;  }

  00000	33 c0		 xor	 eax, eax
  00002	c3		 ret	 0
?GetEditWnd@CGridCellBase@@UBEPAVCWnd@@XZ ENDP		; CGridCellBase::GetEditWnd
_TEXT	ENDS
; Function compile flags: /Ogtp
; File D:\git\src\IBK\IBK_DRFN\ProjSrc\SrcChartEx\ChartAddIn\ChartPatternAddIn\Control_Grid\GridCellBase.h
;	COMDAT ?GetGrid@CGridCellBase@@UBEPAVCGridCtrl@@XZ
_TEXT	SEGMENT
?GetGrid@CGridCellBase@@UBEPAVCGridCtrl@@XZ PROC	; CGridCellBase::GetGrid, COMDAT
; _this$ = ecx

; 116  :     virtual CGridCtrl* GetGrid() const                      { ASSERT( FALSE); return NULL;  }

  00000	33 c0		 xor	 eax, eax
  00002	c3		 ret	 0
?GetGrid@CGridCellBase@@UBEPAVCGridCtrl@@XZ ENDP	; CGridCellBase::GetGrid
_TEXT	ENDS
; Function compile flags: /Ogtp
; File D:\git\src\IBK\IBK_DRFN\ProjSrc\SrcChartEx\ChartAddIn\ChartPatternAddIn\Control_Grid\GridCellBase.h
;	COMDAT ?GetFontObject@CGridCellBase@@UBEPAVCFont@@XZ
_TEXT	SEGMENT
?GetFontObject@CGridCellBase@@UBEPAVCFont@@XZ PROC	; CGridCellBase::GetFontObject, COMDAT
; _this$ = ecx

; 115  :     virtual CFont*   GetFontObject() const                  { ASSERT( FALSE); return NULL;  }

  00000	33 c0		 xor	 eax, eax
  00002	c3		 ret	 0
?GetFontObject@CGridCellBase@@UBEPAVCFont@@XZ ENDP	; CGridCellBase::GetFontObject
_TEXT	ENDS
; Function compile flags: /Ogtp
; File D:\git\src\IBK\IBK_DRFN\ProjSrc\SrcChartEx\ChartAddIn\ChartPatternAddIn\Control_Grid\GridCellBase.h
;	COMDAT ?GetFont@CGridCellBase@@UBEPAUtagLOGFONTA@@XZ
_TEXT	SEGMENT
?GetFont@CGridCellBase@@UBEPAUtagLOGFONTA@@XZ PROC	; CGridCellBase::GetFont, COMDAT
; _this$ = ecx

; 114  :     virtual LOGFONT* GetFont() const                        { ASSERT( FALSE); return NULL;  }

  00000	33 c0		 xor	 eax, eax
  00002	c3		 ret	 0
?GetFont@CGridCellBase@@UBEPAUtagLOGFONTA@@XZ ENDP	; CGridCellBase::GetFont
_TEXT	ENDS
; Function compile flags: /Ogtp
; File D:\git\src\IBK\IBK_DRFN\ProjSrc\SrcChartEx\ChartAddIn\ChartPatternAddIn\Control_Grid\GridCellBase.h
;	COMDAT ?GetBackClr@CGridCellBase@@UBEKXZ
_TEXT	SEGMENT
?GetBackClr@CGridCellBase@@UBEKXZ PROC			; CGridCellBase::GetBackClr, COMDAT
; _this$ = ecx

; 113  :     virtual COLORREF GetBackClr() const                     { ASSERT( FALSE); return 0;     }

  00000	33 c0		 xor	 eax, eax
  00002	c3		 ret	 0
?GetBackClr@CGridCellBase@@UBEKXZ ENDP			; CGridCellBase::GetBackClr
_TEXT	ENDS
; Function compile flags: /Ogtp
; File D:\git\src\IBK\IBK_DRFN\ProjSrc\SrcChartEx\ChartAddIn\ChartPatternAddIn\Control_Grid\GridCellBase.h
;	COMDAT ?GetTextClr@CGridCellBase@@UBEKXZ
_TEXT	SEGMENT
?GetTextClr@CGridCellBase@@UBEKXZ PROC			; CGridCellBase::GetTextClr, COMDAT
; _this$ = ecx

; 112  :     virtual COLORREF GetTextClr() const                     { ASSERT( FALSE); return 0;     }

  00000	33 c0		 xor	 eax, eax
  00002	c3		 ret	 0
?GetTextClr@CGridCellBase@@UBEKXZ ENDP			; CGridCellBase::GetTextClr
_TEXT	ENDS
; Function compile flags: /Ogtp
; File D:\git\src\IBK\IBK_DRFN\ProjSrc\SrcChartEx\ChartAddIn\ChartPatternAddIn\Control_Grid\GridCellBase.h
;	COMDAT ?GetFormat@CGridCellBase@@UBEKXZ
_TEXT	SEGMENT
?GetFormat@CGridCellBase@@UBEKXZ PROC			; CGridCellBase::GetFormat, COMDAT
; _this$ = ecx

; 111  :     virtual DWORD    GetFormat() const                      { ASSERT( FALSE); return 0;     }

  00000	33 c0		 xor	 eax, eax
  00002	c3		 ret	 0
?GetFormat@CGridCellBase@@UBEKXZ ENDP			; CGridCellBase::GetFormat
_TEXT	ENDS
; Function compile flags: /Ogtp
; File D:\git\src\IBK\IBK_DRFN\ProjSrc\SrcChartEx\ChartAddIn\ChartPatternAddIn\Control_Grid\GridCellBase.h
;	COMDAT ?GetState@CGridCellBase@@UBEKXZ
_TEXT	SEGMENT
?GetState@CGridCellBase@@UBEKXZ PROC			; CGridCellBase::GetState, COMDAT
; _this$ = ecx

; 110  :     virtual DWORD    GetState() const                       { return m_nState;              }

  00000	8b 41 04	 mov	 eax, DWORD PTR [ecx+4]
  00003	c3		 ret	 0
?GetState@CGridCellBase@@UBEKXZ ENDP			; CGridCellBase::GetState
_TEXT	ENDS
; Function compile flags: /Ogtp
; File D:\git\src\IBK\IBK_DRFN\ProjSrc\SrcChartEx\ChartAddIn\ChartPatternAddIn\Control_Grid\GridCellBase.h
;	COMDAT ?GetData@CGridCellBase@@UBEJXZ
_TEXT	SEGMENT
?GetData@CGridCellBase@@UBEJXZ PROC			; CGridCellBase::GetData, COMDAT
; _this$ = ecx

; 109  :     virtual LPARAM   GetData() const                        { ASSERT( FALSE); return 0;     }

  00000	33 c0		 xor	 eax, eax
  00002	c3		 ret	 0
?GetData@CGridCellBase@@UBEJXZ ENDP			; CGridCellBase::GetData
_TEXT	ENDS
; Function compile flags: /Ogtp
; File D:\git\src\IBK\IBK_DRFN\ProjSrc\SrcChartEx\ChartAddIn\ChartPatternAddIn\Control_Grid\GridCellBase.h
;	COMDAT ?GetImage@CGridCellBase@@UBEHXZ
_TEXT	SEGMENT
?GetImage@CGridCellBase@@UBEHXZ PROC			; CGridCellBase::GetImage, COMDAT
; _this$ = ecx

; 108  :     virtual int      GetImage() const                       { ASSERT( FALSE); return -1;    }

  00000	83 c8 ff	 or	 eax, -1
  00003	c3		 ret	 0
?GetImage@CGridCellBase@@UBEHXZ ENDP			; CGridCellBase::GetImage
_TEXT	ENDS
; Function compile flags: /Ogtp
; File D:\git\src\IBK\IBK_DRFN\ProjSrc\SrcChartEx\ChartAddIn\ChartPatternAddIn\Control_Grid\GridCellBase.h
;	COMDAT ?GetTipText@CGridCellBase@@UBEPBDXZ
_TEXT	SEGMENT
?GetTipText@CGridCellBase@@UBEPBDXZ PROC		; CGridCellBase::GetTipText, COMDAT
; _this$ = ecx

; 107  :     virtual LPCTSTR  GetTipText() const                     { return GetText();             } // may override TitleTip return

  00000	8b 01		 mov	 eax, DWORD PTR [ecx]
  00002	ff 60 40	 jmp	 DWORD PTR [eax+64]
?GetTipText@CGridCellBase@@UBEPBDXZ ENDP		; CGridCellBase::GetTipText
_TEXT	ENDS
; Function compile flags: /Ogtp
; File D:\git\src\IBK\IBK_DRFN\ProjSrc\SrcChartEx\ChartAddIn\ChartPatternAddIn\Control_Grid\GridCellBase.h
;	COMDAT ?GetText@CGridCellBase@@UBEPBDXZ
_TEXT	SEGMENT
?GetText@CGridCellBase@@UBEPBDXZ PROC			; CGridCellBase::GetText, COMDAT
; _this$ = ecx

; 106  :     virtual LPCTSTR  GetText() const                        { ASSERT( FALSE); return NULL;  }

  00000	33 c0		 xor	 eax, eax
  00002	c3		 ret	 0
?GetText@CGridCellBase@@UBEPBDXZ ENDP			; CGridCellBase::GetText
_TEXT	ENDS
; Function compile flags: /Ogtp
; File D:\git\src\IBK\IBK_DRFN\ProjSrc\SrcChartEx\ChartAddIn\ChartPatternAddIn\Control_Grid\GridCellBase.h
;	COMDAT ?SetCoords@CGridCellBase@@UAEXHH@Z
_TEXT	SEGMENT
___formal$ = 8						; size = 4
___formal$ = 12						; size = 4
?SetCoords@CGridCellBase@@UAEXHH@Z PROC			; CGridCellBase::SetCoords, COMDAT
; _this$ = ecx

; 104  :     virtual void SetCoords( int /* nRow */, int /* nCol */) { ASSERT( FALSE);    }

  00000	c2 08 00	 ret	 8
?SetCoords@CGridCellBase@@UAEXHH@Z ENDP			; CGridCellBase::SetCoords
_TEXT	ENDS
; Function compile flags: /Ogtp
; File D:\git\src\IBK\IBK_DRFN\ProjSrc\SrcChartEx\ChartAddIn\ChartPatternAddIn\Control_Grid\GridCellBase.h
;	COMDAT ?SetGrid@CGridCellBase@@UAEXPAVCGridCtrl@@@Z
_TEXT	SEGMENT
___formal$ = 8						; size = 4
?SetGrid@CGridCellBase@@UAEXPAVCGridCtrl@@@Z PROC	; CGridCellBase::SetGrid, COMDAT
; _this$ = ecx

; 103  :     virtual void SetGrid(CGridCtrl* /* pGrid */)            { ASSERT( FALSE);    }

  00000	c2 04 00	 ret	 4
?SetGrid@CGridCellBase@@UAEXPAVCGridCtrl@@@Z ENDP	; CGridCellBase::SetGrid
_TEXT	ENDS
; Function compile flags: /Ogtp
; File D:\git\src\IBK\IBK_DRFN\ProjSrc\SrcChartEx\ChartAddIn\ChartPatternAddIn\Control_Grid\GridCellBase.h
;	COMDAT ?SetMargin@CGridCellBase@@UAEXI@Z
_TEXT	SEGMENT
___formal$ = 8						; size = 4
?SetMargin@CGridCellBase@@UAEXI@Z PROC			; CGridCellBase::SetMargin, COMDAT
; _this$ = ecx

; 102  :     virtual void SetMargin( UINT /* nMargin */)             { ASSERT( FALSE);    }

  00000	c2 04 00	 ret	 4
?SetMargin@CGridCellBase@@UAEXI@Z ENDP			; CGridCellBase::SetMargin
_TEXT	ENDS
; Function compile flags: /Ogtp
; File D:\git\src\IBK\IBK_DRFN\ProjSrc\SrcChartEx\ChartAddIn\ChartPatternAddIn\Control_Grid\GridCellBase.h
;	COMDAT ?SetFont@CGridCellBase@@UAEXPBUtagLOGFONTA@@@Z
_TEXT	SEGMENT
___formal$ = 8						; size = 4
?SetFont@CGridCellBase@@UAEXPBUtagLOGFONTA@@@Z PROC	; CGridCellBase::SetFont, COMDAT
; _this$ = ecx

; 101  :     virtual void SetFont(const LOGFONT* /* plf */)          { ASSERT( FALSE);    }

  00000	c2 04 00	 ret	 4
?SetFont@CGridCellBase@@UAEXPBUtagLOGFONTA@@@Z ENDP	; CGridCellBase::SetFont
_TEXT	ENDS
; Function compile flags: /Ogtp
; File D:\git\src\IBK\IBK_DRFN\ProjSrc\SrcChartEx\ChartAddIn\ChartPatternAddIn\Control_Grid\GridCellBase.h
;	COMDAT ?SetBackClr@CGridCellBase@@UAEXK@Z
_TEXT	SEGMENT
___formal$ = 8						; size = 4
?SetBackClr@CGridCellBase@@UAEXK@Z PROC			; CGridCellBase::SetBackClr, COMDAT
; _this$ = ecx

; 100  :     virtual void SetBackClr(COLORREF /* clr */)             { ASSERT( FALSE);    }

  00000	c2 04 00	 ret	 4
?SetBackClr@CGridCellBase@@UAEXK@Z ENDP			; CGridCellBase::SetBackClr
_TEXT	ENDS
; Function compile flags: /Ogtp
; File D:\git\src\IBK\IBK_DRFN\ProjSrc\SrcChartEx\ChartAddIn\ChartPatternAddIn\Control_Grid\GridCellBase.h
;	COMDAT ?SetTextClr@CGridCellBase@@UAEXK@Z
_TEXT	SEGMENT
___formal$ = 8						; size = 4
?SetTextClr@CGridCellBase@@UAEXK@Z PROC			; CGridCellBase::SetTextClr, COMDAT
; _this$ = ecx

; 99   :     virtual void SetTextClr(COLORREF /* clr */)             { ASSERT( FALSE);    }

  00000	c2 04 00	 ret	 4
?SetTextClr@CGridCellBase@@UAEXK@Z ENDP			; CGridCellBase::SetTextClr
_TEXT	ENDS
; Function compile flags: /Ogtp
; File D:\git\src\IBK\IBK_DRFN\ProjSrc\SrcChartEx\ChartAddIn\ChartPatternAddIn\Control_Grid\GridCellBase.h
;	COMDAT ?SetFormat@CGridCellBase@@UAEXK@Z
_TEXT	SEGMENT
___formal$ = 8						; size = 4
?SetFormat@CGridCellBase@@UAEXK@Z PROC			; CGridCellBase::SetFormat, COMDAT
; _this$ = ecx

; 98   :     virtual void SetFormat(DWORD /* nFormat */)             { ASSERT( FALSE);    }

  00000	c2 04 00	 ret	 4
?SetFormat@CGridCellBase@@UAEXK@Z ENDP			; CGridCellBase::SetFormat
_TEXT	ENDS
; Function compile flags: /Ogtp
; File D:\git\src\IBK\IBK_DRFN\ProjSrc\SrcChartEx\ChartAddIn\ChartPatternAddIn\Control_Grid\GridCellBase.h
;	COMDAT ?SetState@CGridCellBase@@UAEXK@Z
_TEXT	SEGMENT
_nState$ = 8						; size = 4
?SetState@CGridCellBase@@UAEXK@Z PROC			; CGridCellBase::SetState, COMDAT
; _this$ = ecx

; 97   :     virtual void SetState(DWORD nState)                     { m_nState = nState; }

  00000	55		 push	 ebp
  00001	8b ec		 mov	 ebp, esp
  00003	8b 45 08	 mov	 eax, DWORD PTR _nState$[ebp]
  00006	89 41 04	 mov	 DWORD PTR [ecx+4], eax
  00009	5d		 pop	 ebp
  0000a	c2 04 00	 ret	 4
?SetState@CGridCellBase@@UAEXK@Z ENDP			; CGridCellBase::SetState
_TEXT	ENDS
; Function compile flags: /Ogtp
; File D:\git\src\IBK\IBK_DRFN\ProjSrc\SrcChartEx\ChartAddIn\ChartPatternAddIn\Control_Grid\GridCellBase.h
;	COMDAT ?SetData@CGridCellBase@@UAEXJ@Z
_TEXT	SEGMENT
___formal$ = 8						; size = 4
?SetData@CGridCellBase@@UAEXJ@Z PROC			; CGridCellBase::SetData, COMDAT
; _this$ = ecx

; 96   :     virtual void SetData(LPARAM /* lParam */)               { ASSERT( FALSE);    }

  00000	c2 04 00	 ret	 4
?SetData@CGridCellBase@@UAEXJ@Z ENDP			; CGridCellBase::SetData
_TEXT	ENDS
; Function compile flags: /Ogtp
; File D:\git\src\IBK\IBK_DRFN\ProjSrc\SrcChartEx\ChartAddIn\ChartPatternAddIn\Control_Grid\GridCellBase.h
;	COMDAT ?SetImage@CGridCellBase@@UAEXH@Z
_TEXT	SEGMENT
___formal$ = 8						; size = 4
?SetImage@CGridCellBase@@UAEXH@Z PROC			; CGridCellBase::SetImage, COMDAT
; _this$ = ecx

; 95   :     virtual void SetImage(int /* nImage */)                 { ASSERT( FALSE);    }

  00000	c2 04 00	 ret	 4
?SetImage@CGridCellBase@@UAEXH@Z ENDP			; CGridCellBase::SetImage
_TEXT	ENDS
; Function compile flags: /Ogtp
; File D:\git\src\IBK\IBK_DRFN\ProjSrc\SrcChartEx\ChartAddIn\ChartPatternAddIn\Control_Grid\GridCellBase.h
;	COMDAT ?SetText@CGridCellBase@@UAEXPBD@Z
_TEXT	SEGMENT
___formal$ = 8						; size = 4
?SetText@CGridCellBase@@UAEXPBD@Z PROC			; CGridCellBase::SetText, COMDAT
; _this$ = ecx

; 94   :     virtual void SetText(LPCTSTR /* szText */)              { ASSERT( FALSE);    }

  00000	c2 04 00	 ret	 4
?SetText@CGridCellBase@@UAEXPBD@Z ENDP			; CGridCellBase::SetText
_TEXT	ENDS
; Function compile flags: /Ogtp
; File D:\git\src\IBK\IBK_DRFN\ProjSrc\SrcChartEx\ChartAddIn\ChartPatternAddIn\Control_Grid\GridCellBase.cpp
;	COMDAT ??1CGridCellBase@@UAE@XZ
_TEXT	SEGMENT
??1CGridCellBase@@UAE@XZ PROC				; CGridCellBase::~CGridCellBase, COMDAT
; _this$ = ecx

; 65   : {

  00000	c7 01 00 00 00
	00		 mov	 DWORD PTR [ecx], OFFSET ??_7CGridCellBase@@6B@

; 66   : }

  00006	c3		 ret	 0
??1CGridCellBase@@UAE@XZ ENDP				; CGridCellBase::~CGridCellBase
_TEXT	ENDS
; Function compile flags: /Ogtp
; File D:\git\src\IBK\IBK_DRFN\ProjSrc\SrcChartEx\ChartAddIn\ChartPatternAddIn\Control_Grid\GridCellBase.cpp
;	COMDAT ??0CGridCellBase@@QAE@XZ
_TEXT	SEGMENT
??0CGridCellBase@@QAE@XZ PROC				; CGridCellBase::CGridCellBase, COMDAT
; _this$ = ecx

; 60   : {

  00000	c7 01 00 00 00
	00		 mov	 DWORD PTR [ecx], OFFSET ??_7CGridCellBase@@6B@

; 61   :     Reset();
; 62   : }

  00006	8b c1		 mov	 eax, ecx
  00008	c7 41 04 00 00
	00 00		 mov	 DWORD PTR [ecx+4], 0
  0000f	c3		 ret	 0
??0CGridCellBase@@QAE@XZ ENDP				; CGridCellBase::CGridCellBase
_TEXT	ENDS
; Function compile flags: /Ogtp
; File D:\git\src\IBK\IBK_DRFN\ProjSrc\SrcChartEx\ChartAddIn\ChartPatternAddIn\Control_Grid\GridCellBase.cpp
; File C:\Program Files (x86)\Microsoft Visual Studio\2019\Community\VC\Tools\MSVC\14.29.30133\atlmfc\include\afx.inl
; File D:\git\src\IBK\IBK_DRFN\ProjSrc\SrcChartEx\ChartAddIn\ChartPatternAddIn\Control_Grid\GridCellBase.cpp
;	COMDAT ?CreateObject@CGridCellBase@@SGPAVCObject@@XZ
_TEXT	SEGMENT
$T1 = -4						; size = 4
?CreateObject@CGridCellBase@@SGPAVCObject@@XZ PROC	; CGridCellBase::CreateObject, COMDAT

; 54   : IMPLEMENT_DYNCREATE(CGridCellBase, CObject)

  00000	55		 push	 ebp
  00001	8b ec		 mov	 ebp, esp
  00003	51		 push	 ecx
; File C:\Program Files (x86)\Microsoft Visual Studio\2019\Community\VC\Tools\MSVC\14.29.30133\atlmfc\include\afx.inl

; 116  : 	{ return ::operator new(nSize); }

  00004	6a 08		 push	 8
  00006	e8 00 00 00 00	 call	 ??2@YAPAXI@Z		; operator new
  0000b	83 c4 04	 add	 esp, 4
; File D:\git\src\IBK\IBK_DRFN\ProjSrc\SrcChartEx\ChartAddIn\ChartPatternAddIn\Control_Grid\GridCellBase.cpp

; 54   : IMPLEMENT_DYNCREATE(CGridCellBase, CObject)

  0000e	89 45 fc	 mov	 DWORD PTR $T1[ebp], eax
  00011	85 c0		 test	 eax, eax
  00013	74 11		 je	 SHORT $LN3@CreateObje

; 60   : {

  00015	c7 00 00 00 00
	00		 mov	 DWORD PTR [eax], OFFSET ??_7CGridCellBase@@6B@

; 61   :     Reset();

  0001b	c7 40 04 00 00
	00 00		 mov	 DWORD PTR [eax+4], 0

; 54   : IMPLEMENT_DYNCREATE(CGridCellBase, CObject)

  00022	8b e5		 mov	 esp, ebp
  00024	5d		 pop	 ebp
  00025	c3		 ret	 0
$LN3@CreateObje:
  00026	33 c0		 xor	 eax, eax
  00028	8b e5		 mov	 esp, ebp
  0002a	5d		 pop	 ebp
  0002b	c3		 ret	 0
?CreateObject@CGridCellBase@@SGPAVCObject@@XZ ENDP	; CGridCellBase::CreateObject
_TEXT	ENDS
; Function compile flags: /Ogtp
; File D:\git\src\IBK\IBK_DRFN\ProjSrc\SrcChartEx\ChartAddIn\ChartPatternAddIn\Control_Grid\GridCellBase.cpp
;	COMDAT ?GetRuntimeClass@CGridCellBase@@UBEPAUCRuntimeClass@@XZ
_TEXT	SEGMENT
?GetRuntimeClass@CGridCellBase@@UBEPAUCRuntimeClass@@XZ PROC ; CGridCellBase::GetRuntimeClass, COMDAT
; _this$ = ecx

; 54   : IMPLEMENT_DYNCREATE(CGridCellBase, CObject)

  00000	b8 00 00 00 00	 mov	 eax, OFFSET ?classCGridCellBase@CGridCellBase@@2UCRuntimeClass@@B ; CGridCellBase::classCGridCellBase
  00005	c3		 ret	 0
?GetRuntimeClass@CGridCellBase@@UBEPAUCRuntimeClass@@XZ ENDP ; CGridCellBase::GetRuntimeClass
_TEXT	ENDS
; Function compile flags: /Ogtp
; File D:\git\src\IBK\IBK_DRFN\ProjSrc\SrcChartEx\ChartAddIn\ChartPatternAddIn\Control_Grid\GridCellBase.cpp
;	COMDAT ?GetThisClass@CGridCellBase@@SGPAUCRuntimeClass@@XZ
_TEXT	SEGMENT
?GetThisClass@CGridCellBase@@SGPAUCRuntimeClass@@XZ PROC ; CGridCellBase::GetThisClass, COMDAT

; 54   : IMPLEMENT_DYNCREATE(CGridCellBase, CObject)

  00000	b8 00 00 00 00	 mov	 eax, OFFSET ?classCGridCellBase@CGridCellBase@@2UCRuntimeClass@@B ; CGridCellBase::classCGridCellBase
  00005	c3		 ret	 0
?GetThisClass@CGridCellBase@@SGPAUCRuntimeClass@@XZ ENDP ; CGridCellBase::GetThisClass
_TEXT	ENDS
; Function compile flags: /Ogtp
; File D:\git\src\IBK\IBK_DRFN\ProjSrc\SrcChartEx\ChartAddIn\ChartPatternAddIn\Control_Grid\GridCellBase.cpp
;	COMDAT ?_GetBaseClass@CGridCellBase@@KGPAUCRuntimeClass@@XZ
_TEXT	SEGMENT
?_GetBaseClass@CGridCellBase@@KGPAUCRuntimeClass@@XZ PROC ; CGridCellBase::_GetBaseClass, COMDAT

; 54   : IMPLEMENT_DYNCREATE(CGridCellBase, CObject)

  00000	e9 00 00 00 00	 jmp	 ?GetThisClass@CObject@@SGPAUCRuntimeClass@@XZ ; CObject::GetThisClass
?_GetBaseClass@CGridCellBase@@KGPAUCRuntimeClass@@XZ ENDP ; CGridCellBase::_GetBaseClass
_TEXT	ENDS
; Function compile flags: /Ogtp
;	COMDAT ??1_GV_ITEM@@QAE@XZ
_TEXT	SEGMENT
??1_GV_ITEM@@QAE@XZ PROC				; _GV_ITEM::~_GV_ITEM, COMDAT
; _this$ = ecx
  00000	83 c1 64	 add	 ecx, 100		; 00000064H
  00003	ff 25 00 00 00
	00		 jmp	 DWORD PTR __imp_??1?$CStringT@DV?$StrTraitMFC_DLL@DV?$ChTraitsCRT@D@ATL@@@@@ATL@@QAE@XZ
??1_GV_ITEM@@QAE@XZ ENDP				; _GV_ITEM::~_GV_ITEM
_TEXT	ENDS
; Function compile flags: /Ogtp
; File C:\Program Files (x86)\Microsoft Visual Studio\2019\Community\VC\Tools\MSVC\14.29.30133\atlmfc\include\afxwin1.inl
; File C:\Program Files (x86)\Microsoft Visual Studio\2019\Community\VC\Tools\MSVC\14.29.30133\atlmfc\include\afx.inl
;	COMDAT ??_GCBrush@@UAEPAXI@Z
_TEXT	SEGMENT
___flags$ = 8						; size = 4
??_GCBrush@@UAEPAXI@Z PROC				; CBrush::`scalar deleting destructor', COMDAT
; _this$ = ecx
  00000	55		 push	 ebp
  00001	8b ec		 mov	 ebp, esp
; File C:\Program Files (x86)\Microsoft Visual Studio\2019\Community\VC\Tools\MSVC\14.29.30133\atlmfc\include\afxwin1.inl

; 130  : 	{ }

  00003	56		 push	 esi
  00004	8b f1		 mov	 esi, ecx
  00006	c7 06 00 00 00
	00		 mov	 DWORD PTR [esi], OFFSET ??_7CBrush@@6B@
  0000c	e8 00 00 00 00	 call	 ??1CGdiObject@@UAE@XZ	; CGdiObject::~CGdiObject
  00011	8b 45 08	 mov	 eax, DWORD PTR ___flags$[ebp]
  00014	a8 01		 test	 al, 1
  00016	74 1f		 je	 SHORT $LN12@scalar
  00018	a8 04		 test	 al, 4
  0001a	75 10		 jne	 SHORT $LN3@scalar
; File C:\Program Files (x86)\Microsoft Visual Studio\2019\Community\VC\Tools\MSVC\14.29.30133\atlmfc\include\afx.inl

; 112  : 	{ ::operator delete(p); }

  0001c	56		 push	 esi
  0001d	e8 00 00 00 00	 call	 ??3@YAXPAX@Z		; operator delete
  00022	83 c4 04	 add	 esp, 4
  00025	8b c6		 mov	 eax, esi
  00027	5e		 pop	 esi
  00028	5d		 pop	 ebp
  00029	c2 04 00	 ret	 4
$LN3@scalar:
  0002c	6a 08		 push	 8
  0002e	56		 push	 esi
  0002f	e8 00 00 00 00	 call	 ?__global_delete@@YAXPAXI@Z ; __global_delete
  00034	83 c4 08	 add	 esp, 8
$LN12@scalar:
  00037	8b c6		 mov	 eax, esi
  00039	5e		 pop	 esi
  0003a	5d		 pop	 ebp
  0003b	c2 04 00	 ret	 4
??_GCBrush@@UAEPAXI@Z ENDP				; CBrush::`scalar deleting destructor'
_TEXT	ENDS
; Function compile flags: /Ogtp
; File C:\Program Files (x86)\Microsoft Visual Studio\2019\Community\VC\Tools\MSVC\14.29.30133\atlmfc\include\afxwin1.inl
;	COMDAT ??1CBrush@@UAE@XZ
_TEXT	SEGMENT
??1CBrush@@UAE@XZ PROC					; CBrush::~CBrush, COMDAT
; _this$ = ecx

; 130  : 	{ }

  00000	c7 01 00 00 00
	00		 mov	 DWORD PTR [ecx], OFFSET ??_7CBrush@@6B@
  00006	e9 00 00 00 00	 jmp	 ??1CGdiObject@@UAE@XZ	; CGdiObject::~CGdiObject
??1CBrush@@UAE@XZ ENDP					; CBrush::~CBrush
_TEXT	ENDS
; Function compile flags: /Ogtp
; File C:\Program Files (x86)\Microsoft Visual Studio\2019\Community\VC\Tools\MSVC\14.29.30133\atlmfc\include\afxwin1.inl
; File C:\Program Files (x86)\Microsoft Visual Studio\2019\Community\VC\Tools\MSVC\14.29.30133\atlmfc\include\afx.inl
;	COMDAT ??_GCPen@@UAEPAXI@Z
_TEXT	SEGMENT
___flags$ = 8						; size = 4
??_GCPen@@UAEPAXI@Z PROC				; CPen::`scalar deleting destructor', COMDAT
; _this$ = ecx
  00000	55		 push	 ebp
  00001	8b ec		 mov	 ebp, esp
; File C:\Program Files (x86)\Microsoft Visual Studio\2019\Community\VC\Tools\MSVC\14.29.30133\atlmfc\include\afxwin1.inl

; 106  : 	{ }

  00003	56		 push	 esi
  00004	8b f1		 mov	 esi, ecx
  00006	c7 06 00 00 00
	00		 mov	 DWORD PTR [esi], OFFSET ??_7CPen@@6B@
  0000c	e8 00 00 00 00	 call	 ??1CGdiObject@@UAE@XZ	; CGdiObject::~CGdiObject
  00011	8b 45 08	 mov	 eax, DWORD PTR ___flags$[ebp]
  00014	a8 01		 test	 al, 1
  00016	74 1f		 je	 SHORT $LN12@scalar
  00018	a8 04		 test	 al, 4
  0001a	75 10		 jne	 SHORT $LN3@scalar
; File C:\Program Files (x86)\Microsoft Visual Studio\2019\Community\VC\Tools\MSVC\14.29.30133\atlmfc\include\afx.inl

; 112  : 	{ ::operator delete(p); }

  0001c	56		 push	 esi
  0001d	e8 00 00 00 00	 call	 ??3@YAXPAX@Z		; operator delete
  00022	83 c4 04	 add	 esp, 4
  00025	8b c6		 mov	 eax, esi
  00027	5e		 pop	 esi
  00028	5d		 pop	 ebp
  00029	c2 04 00	 ret	 4
$LN3@scalar:
  0002c	6a 08		 push	 8
  0002e	56		 push	 esi
  0002f	e8 00 00 00 00	 call	 ?__global_delete@@YAXPAXI@Z ; __global_delete
  00034	83 c4 08	 add	 esp, 8
$LN12@scalar:
  00037	8b c6		 mov	 eax, esi
  00039	5e		 pop	 esi
  0003a	5d		 pop	 ebp
  0003b	c2 04 00	 ret	 4
??_GCPen@@UAEPAXI@Z ENDP				; CPen::`scalar deleting destructor'
_TEXT	ENDS
; Function compile flags: /Ogtp
; File C:\Program Files (x86)\Microsoft Visual Studio\2019\Community\VC\Tools\MSVC\14.29.30133\atlmfc\include\afxwin1.inl
;	COMDAT ??1CPen@@UAE@XZ
_TEXT	SEGMENT
??1CPen@@UAE@XZ PROC					; CPen::~CPen, COMDAT
; _this$ = ecx

; 106  : 	{ }

  00000	c7 01 00 00 00
	00		 mov	 DWORD PTR [ecx], OFFSET ??_7CPen@@6B@
  00006	e9 00 00 00 00	 jmp	 ??1CGdiObject@@UAE@XZ	; CGdiObject::~CGdiObject
??1CPen@@UAE@XZ ENDP					; CPen::~CPen
_TEXT	ENDS
; Function compile flags: /Ogtp
; File C:\Program Files (x86)\Microsoft Visual Studio\2019\Community\VC\Tools\MSVC\14.29.30133\atlmfc\include\afx.inl
;	COMDAT ??_GCGdiObject@@UAEPAXI@Z
_TEXT	SEGMENT
___flags$ = 8						; size = 4
??_GCGdiObject@@UAEPAXI@Z PROC				; CGdiObject::`scalar deleting destructor', COMDAT
; _this$ = ecx
  00000	55		 push	 ebp
  00001	8b ec		 mov	 ebp, esp
  00003	56		 push	 esi
  00004	8b f1		 mov	 esi, ecx
  00006	e8 00 00 00 00	 call	 ??1CGdiObject@@UAE@XZ	; CGdiObject::~CGdiObject
  0000b	8b 45 08	 mov	 eax, DWORD PTR ___flags$[ebp]
  0000e	a8 01		 test	 al, 1
  00010	74 1f		 je	 SHORT $LN9@scalar
  00012	a8 04		 test	 al, 4
  00014	75 10		 jne	 SHORT $LN3@scalar

; 112  : 	{ ::operator delete(p); }

  00016	56		 push	 esi
  00017	e8 00 00 00 00	 call	 ??3@YAXPAX@Z		; operator delete
  0001c	83 c4 04	 add	 esp, 4
  0001f	8b c6		 mov	 eax, esi
  00021	5e		 pop	 esi
  00022	5d		 pop	 ebp
  00023	c2 04 00	 ret	 4
$LN3@scalar:
  00026	6a 08		 push	 8
  00028	56		 push	 esi
  00029	e8 00 00 00 00	 call	 ?__global_delete@@YAXPAXI@Z ; __global_delete
  0002e	83 c4 08	 add	 esp, 8
$LN9@scalar:
  00031	8b c6		 mov	 eax, esi
  00033	5e		 pop	 esi
  00034	5d		 pop	 ebp
  00035	c2 04 00	 ret	 4
??_GCGdiObject@@UAEPAXI@Z ENDP				; CGdiObject::`scalar deleting destructor'
_TEXT	ENDS
; Function compile flags: /Ogtp
; File C:\Program Files (x86)\Microsoft Visual Studio\2019\Community\VC\Tools\MSVC\14.29.30133\atlmfc\include\afxwin1.inl
;	COMDAT ??1CGdiObject@@UAE@XZ
_TEXT	SEGMENT
_pException$2 = -540					; size = 4
_strMsg$3 = -536					; size = 4
_szErrorMessage$4 = -532				; size = 512
__$ArrayPad$ = -20					; size = 4
__$EHRec$ = -16						; size = 16
??1CGdiObject@@UAE@XZ PROC				; CGdiObject::~CGdiObject, COMDAT
; _this$ = ecx

; 74   : {

  00000	55		 push	 ebp
  00001	8b ec		 mov	 ebp, esp
  00003	6a ff		 push	 -1
  00005	68 00 00 00 00	 push	 __ehhandler$??1CGdiObject@@UAE@XZ
  0000a	64 a1 00 00 00
	00		 mov	 eax, DWORD PTR fs:0
  00010	50		 push	 eax
  00011	81 ec 10 02 00
	00		 sub	 esp, 528		; 00000210H
  00017	a1 00 00 00 00	 mov	 eax, DWORD PTR ___security_cookie
  0001c	33 c5		 xor	 eax, ebp
  0001e	89 45 ec	 mov	 DWORD PTR __$ArrayPad$[ebp], eax
  00021	53		 push	 ebx
  00022	56		 push	 esi
  00023	57		 push	 edi
  00024	50		 push	 eax
  00025	8d 45 f4	 lea	 eax, DWORD PTR __$EHRec$[ebp+4]
  00028	64 a3 00 00 00
	00		 mov	 DWORD PTR fs:0, eax
  0002e	89 65 f0	 mov	 DWORD PTR __$EHRec$[ebp], esp
  00031	c7 01 00 00 00
	00		 mov	 DWORD PTR [ecx], OFFSET ??_7CGdiObject@@6B@

; 75   : 	AFX_BEGIN_DESTRUCTOR

  00037	c7 45 fc 00 00
	00 00		 mov	 DWORD PTR __$EHRec$[ebp+12], 0

; 76   : 	DeleteObject();

  0003e	e8 00 00 00 00	 call	 ?DeleteObject@CGdiObject@@QAEHXZ ; CGdiObject::DeleteObject
$LN18@CGdiObject:

; 78   : }

  00043	8b 4d f4	 mov	 ecx, DWORD PTR __$EHRec$[ebp+4]
  00046	64 89 0d 00 00
	00 00		 mov	 DWORD PTR fs:0, ecx
  0004d	59		 pop	 ecx
  0004e	5f		 pop	 edi
  0004f	5e		 pop	 esi
  00050	5b		 pop	 ebx
  00051	8b 4d ec	 mov	 ecx, DWORD PTR __$ArrayPad$[ebp]
  00054	33 cd		 xor	 ecx, ebp
  00056	e8 00 00 00 00	 call	 @__security_check_cookie@4
  0005b	8b e5		 mov	 esp, ebp
  0005d	5d		 pop	 ebp
  0005e	c3		 ret	 0
__catch$??1CGdiObject@@UAE@XZ$0:

; 77   : 	AFX_END_DESTRUCTOR

  0005f	8d 8d e8 fd ff
	ff		 lea	 ecx, DWORD PTR _strMsg$3[ebp]
  00065	ff 15 00 00 00
	00		 call	 DWORD PTR __imp_??0?$CStringT@DV?$StrTraitMFC_DLL@DV?$ChTraitsCRT@D@ATL@@@@@ATL@@QAE@XZ
  0006b	8b b5 e4 fd ff
	ff		 mov	 esi, DWORD PTR _pException$2[ebp]
  00071	8d 8d ec fd ff
	ff		 lea	 ecx, DWORD PTR _szErrorMessage$4[ebp]
  00077	6a 00		 push	 0
  00079	68 00 02 00 00	 push	 512			; 00000200H
  0007e	51		 push	 ecx
  0007f	8b 06		 mov	 eax, DWORD PTR [esi]
  00081	8b ce		 mov	 ecx, esi
  00083	c6 45 fc 02	 mov	 BYTE PTR __$EHRec$[ebp+12], 2
  00087	ff 50 14	 call	 DWORD PTR [eax+20]
  0008a	85 c0		 test	 eax, eax
  0008c	74 2a		 je	 SHORT $LN9@CGdiObject
  0008e	8d 85 ec fd ff
	ff		 lea	 eax, DWORD PTR _szErrorMessage$4[ebp]
  00094	50		 push	 eax
  00095	6a 4d		 push	 77			; 0000004dH
  00097	68 00 00 00 00	 push	 OFFSET ??_C@_0HD@JJCHHHNK@C?3?2Program?5Files?5?$CIx86?$CJ?2Microsof@
  0009c	68 00 00 00 00	 push	 OFFSET ??_C@_0BP@OIEOKIDM@Exception?5thrown?5in?5destructor@
  000a1	8d 85 e8 fd ff
	ff		 lea	 eax, DWORD PTR _strMsg$3[ebp]
  000a7	68 00 00 00 00	 push	 OFFSET ??_C@_0BB@HBOOMJBF@?$CFTs?5?$CI?$CFTs?3?$CFd?$CJ?6?$CFTs@
  000ac	50		 push	 eax
  000ad	ff 15 00 00 00
	00		 call	 DWORD PTR __imp_?Format@?$CStringT@DV?$StrTraitMFC_DLL@DV?$ChTraitsCRT@D@ATL@@@@@ATL@@QAAXPBDZZ
  000b3	83 c4 18	 add	 esp, 24			; 00000018H
  000b6	eb 21		 jmp	 SHORT $LN10@CGdiObject
$LN9@CGdiObject:
  000b8	6a 4d		 push	 77			; 0000004dH
  000ba	68 00 00 00 00	 push	 OFFSET ??_C@_0HD@JJCHHHNK@C?3?2Program?5Files?5?$CIx86?$CJ?2Microsof@
  000bf	68 00 00 00 00	 push	 OFFSET ??_C@_0BP@OIEOKIDM@Exception?5thrown?5in?5destructor@
  000c4	8d 85 e8 fd ff
	ff		 lea	 eax, DWORD PTR _strMsg$3[ebp]
  000ca	68 00 00 00 00	 push	 OFFSET ??_C@_0N@OMEMOKLE@?$CFTs?5?$CI?$CFTs?3?$CFd?$CJ@
  000cf	50		 push	 eax
  000d0	ff 15 00 00 00
	00		 call	 DWORD PTR __imp_?Format@?$CStringT@DV?$StrTraitMFC_DLL@DV?$ChTraitsCRT@D@ATL@@@@@ATL@@QAAXPBDZZ
  000d6	83 c4 14	 add	 esp, 20			; 00000014H
$LN10@CGdiObject:
  000d9	6a 00		 push	 0
  000db	6a 00		 push	 0
  000dd	ff b5 e8 fd ff
	ff		 push	 DWORD PTR _strMsg$3[ebp]
  000e3	e8 00 00 00 00	 call	 ?AfxMessageBox@@YGHPBDII@Z ; AfxMessageBox
  000e8	8d 8d e8 fd ff
	ff		 lea	 ecx, DWORD PTR _strMsg$3[ebp]
  000ee	ff 15 00 00 00
	00		 call	 DWORD PTR __imp_??1?$CStringT@DV?$StrTraitMFC_DLL@DV?$ChTraitsCRT@D@ATL@@@@@ATL@@QAE@XZ
  000f4	8b 06		 mov	 eax, DWORD PTR [esi]
  000f6	8b ce		 mov	 ecx, esi
  000f8	6a 01		 push	 1
  000fa	ff 50 04	 call	 DWORD PTR [eax+4]
  000fd	b8 00 00 00 00	 mov	 eax, $LN18@CGdiObject
  00102	c3		 ret	 0
_TEXT	ENDS
;	COMDAT text$x
text$x	SEGMENT
__unwindfunclet$??1CGdiObject@@UAE@XZ$2:
  00000	8d 8d e8 fd ff
	ff		 lea	 ecx, DWORD PTR _strMsg$3[ebp]
  00006	ff 25 00 00 00
	00		 jmp	 DWORD PTR __imp_??1?$CStringT@DV?$StrTraitMFC_DLL@DV?$ChTraitsCRT@D@ATL@@@@@ATL@@QAE@XZ
  0000c	cc		 int	 3
  0000d	cc		 int	 3
  0000e	cc		 int	 3
  0000f	cc		 int	 3
  00010	cc		 int	 3
__ehhandler$??1CGdiObject@@UAE@XZ:
  00011	90		 npad	 1
  00012	90		 npad	 1
  00013	8b 54 24 08	 mov	 edx, DWORD PTR [esp+8]
  00017	8d 42 0c	 lea	 eax, DWORD PTR [edx+12]
  0001a	8b 8a e0 fd ff
	ff		 mov	 ecx, DWORD PTR [edx-544]
  00020	33 c8		 xor	 ecx, eax
  00022	e8 00 00 00 00	 call	 @__security_check_cookie@4
  00027	8b 4a f8	 mov	 ecx, DWORD PTR [edx-8]
  0002a	33 c8		 xor	 ecx, eax
  0002c	e8 00 00 00 00	 call	 @__security_check_cookie@4
  00031	b8 00 00 00 00	 mov	 eax, OFFSET __ehfuncinfo$??1CGdiObject@@UAE@XZ
  00036	e9 00 00 00 00	 jmp	 ___CxxFrameHandler3
text$x	ENDS
??1CGdiObject@@UAE@XZ ENDP				; CGdiObject::~CGdiObject
; Function compile flags: /Ogtp
; File C:\Program Files (x86)\Microsoft Visual Studio\2019\Community\VC\Tools\MSVC\14.29.30133\atlmfc\include\afx.h
;	COMDAT ??1AFX_EXCEPTION_LINK@@QAE@XZ
_TEXT	SEGMENT
__$EHRec$ = -12						; size = 12
??1AFX_EXCEPTION_LINK@@QAE@XZ PROC			; AFX_EXCEPTION_LINK::~AFX_EXCEPTION_LINK, COMDAT
; _this$ = ecx

; 819  : 		{ AfxTryCleanup(); };

  00000	55		 push	 ebp
  00001	8b ec		 mov	 ebp, esp
  00003	6a ff		 push	 -1
  00005	68 00 00 00 00	 push	 __ehhandler$??1AFX_EXCEPTION_LINK@@QAE@XZ
  0000a	64 a1 00 00 00
	00		 mov	 eax, DWORD PTR fs:0
  00010	50		 push	 eax
  00011	a1 00 00 00 00	 mov	 eax, DWORD PTR ___security_cookie
  00016	33 c5		 xor	 eax, ebp
  00018	50		 push	 eax
  00019	8d 45 f4	 lea	 eax, DWORD PTR __$EHRec$[ebp]
  0001c	64 a3 00 00 00
	00		 mov	 DWORD PTR fs:0, eax
  00022	e8 00 00 00 00	 call	 ?AfxTryCleanup@@YGXXZ	; AfxTryCleanup
  00027	8b 4d f4	 mov	 ecx, DWORD PTR __$EHRec$[ebp]
  0002a	64 89 0d 00 00
	00 00		 mov	 DWORD PTR fs:0, ecx
  00031	59		 pop	 ecx
  00032	8b e5		 mov	 esp, ebp
  00034	5d		 pop	 ebp
  00035	c3		 ret	 0
  00036	cc		 int	 3
  00037	cc		 int	 3
  00038	cc		 int	 3
  00039	cc		 int	 3
  0003a	cc		 int	 3
_TEXT	ENDS
;	COMDAT text$x
text$x	SEGMENT
__ehhandler$??1AFX_EXCEPTION_LINK@@QAE@XZ:
  00000	90		 npad	 1
  00001	90		 npad	 1
  00002	8b 54 24 08	 mov	 edx, DWORD PTR [esp+8]
  00006	8d 42 0c	 lea	 eax, DWORD PTR [edx+12]
  00009	8b 4a fc	 mov	 ecx, DWORD PTR [edx-4]
  0000c	33 c8		 xor	 ecx, eax
  0000e	e8 00 00 00 00	 call	 @__security_check_cookie@4
  00013	b8 00 00 00 00	 mov	 eax, OFFSET __ehfuncinfo$??1AFX_EXCEPTION_LINK@@QAE@XZ
  00018	e9 00 00 00 00	 jmp	 ___CxxFrameHandler3
text$x	ENDS
??1AFX_EXCEPTION_LINK@@QAE@XZ ENDP			; AFX_EXCEPTION_LINK::~AFX_EXCEPTION_LINK
; Function compile flags: /Ogtp
; File C:\Program Files (x86)\Microsoft Visual Studio\2019\Community\VC\Tools\MSVC\14.29.30133\atlmfc\include\afx.inl
;	COMDAT ?Dump@CObject@@UBEXAAVCDumpContext@@@Z
_TEXT	SEGMENT
___formal$ = 8						; size = 4
?Dump@CObject@@UBEXAAVCDumpContext@@@Z PROC		; CObject::Dump, COMDAT
; _this$ = ecx

; 122  : 	{ /* no dumping in release builds */ }

  00000	c2 04 00	 ret	 4
?Dump@CObject@@UBEXAAVCDumpContext@@@Z ENDP		; CObject::Dump
_TEXT	ENDS
; Function compile flags: /Ogtp
; File C:\Program Files (x86)\Microsoft Visual Studio\2019\Community\VC\Tools\MSVC\14.29.30133\atlmfc\include\afx.inl
;	COMDAT ?AssertValid@CObject@@UBEXXZ
_TEXT	SEGMENT
?AssertValid@CObject@@UBEXXZ PROC			; CObject::AssertValid, COMDAT
; _this$ = ecx

; 120  : 	{ /* no asserts in release builds */ }

  00000	c2 00 00	 ret	 0
?AssertValid@CObject@@UBEXXZ ENDP			; CObject::AssertValid
_TEXT	ENDS
; Function compile flags: /Ogtp
; File C:\Program Files (x86)\Microsoft Visual Studio\2019\Community\VC\Tools\MSVC\14.29.30133\atlmfc\include\afx.inl
;	COMDAT ?Serialize@CObject@@UAEXAAVCArchive@@@Z
_TEXT	SEGMENT
___formal$ = 8						; size = 4
?Serialize@CObject@@UAEXAAVCArchive@@@Z PROC		; CObject::Serialize, COMDAT
; _this$ = ecx

; 106  : 	{ /* CObject does not serialize anything by default */ }

  00000	c2 04 00	 ret	 4
?Serialize@CObject@@UAEXAAVCArchive@@@Z ENDP		; CObject::Serialize
_TEXT	ENDS
; Function compile flags: /Ogtp
; File C:\Program Files (x86)\Microsoft Visual Studio\2019\Community\VC\Tools\MSVC\14.29.30133\atlmfc\include\afx.inl
;	COMDAT ??1CObject@@UAE@XZ
_TEXT	SEGMENT
??1CObject@@UAE@XZ PROC					; CObject::~CObject, COMDAT
; _this$ = ecx

; 104  : 	{ }

  00000	c2 00 00	 ret	 0
??1CObject@@UAE@XZ ENDP					; CObject::~CObject
_TEXT	ENDS
; Function compile flags: /Ogtp
; File D:\git\src\IBK\IBK_DRFN\ProjSrc\SrcChartEx\ChartAddIn\ChartPatternAddIn\Control_Grid\GridCellBase.cpp
;	COMDAT ?__empty_global_delete@@YAXPAXI@Z
_TEXT	SEGMENT
___formal$ = 8						; size = 4
___formal$ = 12						; size = 4
?__empty_global_delete@@YAXPAXI@Z PROC			; __empty_global_delete, COMDAT

  00000	c2 00 00	 ret	 0
?__empty_global_delete@@YAXPAXI@Z ENDP			; __empty_global_delete
_TEXT	ENDS
; Function compile flags: /Ogtp
; File D:\git\src\IBK\IBK_DRFN\ProjSrc\SrcChartEx\ChartAddIn\ChartPatternAddIn\Control_Grid\GridCellBase.cpp
;	COMDAT ?__empty_global_delete@@YAXPAX@Z
_TEXT	SEGMENT
___formal$ = 8						; size = 4
?__empty_global_delete@@YAXPAX@Z PROC			; __empty_global_delete, COMDAT

  00000	c2 00 00	 ret	 0
?__empty_global_delete@@YAXPAX@Z ENDP			; __empty_global_delete
_TEXT	ENDS
; Function compile flags: /Ogtp
;	COMDAT ??_H@YGXPAXIIP6EPAX0@Z@Z
_TEXT	SEGMENT
___t$ = 8						; size = 4
___s$ = 12						; size = 4
___n$ = 16						; size = 4
___f$ = 20						; size = 4
??_H@YGXPAXIIP6EPAX0@Z@Z PROC				; `vector constructor iterator', COMDAT
  00000	55		 push	 ebp
  00001	8b ec		 mov	 ebp, esp
  00003	56		 push	 esi
  00004	8b 75 10	 mov	 esi, DWORD PTR ___n$[ebp]
  00007	85 f6		 test	 esi, esi
  00009	74 16		 je	 SHORT $LN6@vector
  0000b	53		 push	 ebx
  0000c	8b 5d 14	 mov	 ebx, DWORD PTR ___f$[ebp]
  0000f	57		 push	 edi
  00010	8b 7d 08	 mov	 edi, DWORD PTR ___t$[ebp]
$LL2@vector:
  00013	8b cf		 mov	 ecx, edi
  00015	ff d3		 call	 ebx
  00017	03 7d 0c	 add	 edi, DWORD PTR ___s$[ebp]
  0001a	83 ee 01	 sub	 esi, 1
  0001d	75 f4		 jne	 SHORT $LL2@vector
  0001f	5f		 pop	 edi
  00020	5b		 pop	 ebx
$LN6@vector:
  00021	5e		 pop	 esi
  00022	5d		 pop	 ebp
  00023	c2 10 00	 ret	 16			; 00000010H
??_H@YGXPAXIIP6EPAX0@Z@Z ENDP				; `vector constructor iterator'
_TEXT	ENDS
END
