; Listing generated by Microsoft (R) Optimizing Compiler Version 19.29.30145.0 

	TITLE	D:\git\src\IBK\IBK_DRFN\#DRfn-CS\_Obj\ChartPatternAddin\HelpHtmlCtrl.obj
	.686P
	.XMM
	include listing.inc
	.model	flat

INCLUDELIB MSVCRT
INCLUDELIB OLDNAMES

PUBLIC	?__empty_global_delete@@YAXPAX@Z		; __empty_global_delete
PUBLIC	?__empty_global_delete@@YAXPAXI@Z		; __empty_global_delete
PUBLIC	??3CObject@@SGXPAX@Z				; CObject::operator delete
PUBLIC	?Serialize@CObject@@UAEXAAVCArchive@@@Z		; CObject::Serialize
PUBLIC	?AssertValid@CObject@@UBEXXZ			; CObject::AssertValid
PUBLIC	?Dump@CObject@@UBEXAAVCDumpContext@@@Z		; CObject::Dump
PUBLIC	?DoDataExchange@CWnd@@MAEXPAVCDataExchange@@@Z	; CWnd::DoDataExchange
PUBLIC	?BeginModalState@CWnd@@UAEXXZ			; CWnd::BeginModalState
PUBLIC	?EndModalState@CWnd@@UAEXXZ			; CWnd::EndModalState
PUBLIC	?get_accChild@CFormView@@UAEJUtagVARIANT@@PAPAUIDispatch@@@Z ; CFormView::get_accChild
PUBLIC	?get_accChildCount@CFormView@@UAEJPAJ@Z		; CFormView::get_accChildCount
PUBLIC	?get_accName@CFormView@@UAEJUtagVARIANT@@PAPA_W@Z ; CFormView::get_accName
PUBLIC	?accLocation@CFormView@@UAEJPAJ000UtagVARIANT@@@Z ; CFormView::accLocation
PUBLIC	?accHitTest@CFormView@@UAEJJJPAUtagVARIANT@@@Z	; CFormView::accHitTest
PUBLIC	??1COleVariant@@QAE@XZ				; COleVariant::~COleVariant
PUBLIC	??0CHelpHtmlCtrl@@QAE@XZ			; CHelpHtmlCtrl::CHelpHtmlCtrl
PUBLIC	??1CHelpHtmlCtrl@@UAE@XZ			; CHelpHtmlCtrl::~CHelpHtmlCtrl
PUBLIC	?GetHtmlView@CHelpHtmlCtrl@@SAPAV1@XZ		; CHelpHtmlCtrl::GetHtmlView
PUBLIC	?CreateWnd@CHelpHtmlCtrl@@QAEHVCRect@@PAVCWnd@@I@Z ; CHelpHtmlCtrl::CreateWnd
PUBLIC	?PostNcDestroy@CHelpHtmlCtrl@@UAEXXZ		; CHelpHtmlCtrl::PostNcDestroy
PUBLIC	?_GetBaseClass@CHelpHtmlCtrl@@KGPAUCRuntimeClass@@XZ ; CHelpHtmlCtrl::_GetBaseClass
PUBLIC	?GetThisClass@CHelpHtmlCtrl@@SGPAUCRuntimeClass@@XZ ; CHelpHtmlCtrl::GetThisClass
PUBLIC	?GetRuntimeClass@CHelpHtmlCtrl@@UBEPAUCRuntimeClass@@XZ ; CHelpHtmlCtrl::GetRuntimeClass
PUBLIC	?CreateObject@CHelpHtmlCtrl@@SGPAVCObject@@XZ	; CHelpHtmlCtrl::CreateObject
PUBLIC	?OnDocumentComplete@CHelpHtmlCtrl@@UAEXPBD@Z	; CHelpHtmlCtrl::OnDocumentComplete
PUBLIC	?PreTranslateMessage@CHelpHtmlCtrl@@UAEHPAUtagMSG@@@Z ; CHelpHtmlCtrl::PreTranslateMessage
PUBLIC	?DoDataExchange@CHelpHtmlCtrl@@MAEXPAVCDataExchange@@@Z ; CHelpHtmlCtrl::DoDataExchange
PUBLIC	?OnDestroy@CHelpHtmlCtrl@@IAEXXZ		; CHelpHtmlCtrl::OnDestroy
PUBLIC	?OnShowWindow@CHelpHtmlCtrl@@IAEXHI@Z		; CHelpHtmlCtrl::OnShowWindow
PUBLIC	?OnMouseActivate@CHelpHtmlCtrl@@IAEHPAVCWnd@@II@Z ; CHelpHtmlCtrl::OnMouseActivate
PUBLIC	?GetThisMessageMap@CHelpHtmlCtrl@@KGPBUAFX_MSGMAP@@XZ ; CHelpHtmlCtrl::GetThisMessageMap
PUBLIC	?GetMessageMap@CHelpHtmlCtrl@@MBEPBUAFX_MSGMAP@@XZ ; CHelpHtmlCtrl::GetMessageMap
PUBLIC	??_GCHelpHtmlCtrl@@UAEPAXI@Z			; CHelpHtmlCtrl::`scalar deleting destructor'
PUBLIC	??_R0?AVCObject@@@8				; CObject `RTTI Type Descriptor'
PUBLIC	??_R3CObject@@8					; CObject::`RTTI Class Hierarchy Descriptor'
PUBLIC	??_R2CObject@@8					; CObject::`RTTI Base Class Array'
PUBLIC	??_R1A@?0A@EA@CObject@@8			; CObject::`RTTI Base Class Descriptor at (0,-1,0,64)'
PUBLIC	??_R1A@?0A@EA@CWnd@@8				; CWnd::`RTTI Base Class Descriptor at (0,-1,0,64)'
PUBLIC	??_R0?AVCWnd@@@8				; CWnd `RTTI Type Descriptor'
PUBLIC	??_R3CWnd@@8					; CWnd::`RTTI Class Hierarchy Descriptor'
PUBLIC	??_R2CWnd@@8					; CWnd::`RTTI Base Class Array'
PUBLIC	??_R1A@?0A@EA@CCmdTarget@@8			; CCmdTarget::`RTTI Base Class Descriptor at (0,-1,0,64)'
PUBLIC	??_R0?AVCCmdTarget@@@8				; CCmdTarget `RTTI Type Descriptor'
PUBLIC	??_R3CCmdTarget@@8				; CCmdTarget::`RTTI Class Hierarchy Descriptor'
PUBLIC	??_R2CCmdTarget@@8				; CCmdTarget::`RTTI Base Class Array'
PUBLIC	?classCHelpHtmlCtrl@CHelpHtmlCtrl@@2UCRuntimeClass@@B ; CHelpHtmlCtrl::classCHelpHtmlCtrl
PUBLIC	??_7CHelpHtmlCtrl@@6B@				; CHelpHtmlCtrl::`vftable'
PUBLIC	??_C@_0O@FFFANNBN@CHelpHtmlCtrl@		; `string'
PUBLIC	??_R4CHelpHtmlCtrl@@6B@				; CHelpHtmlCtrl::`RTTI Complete Object Locator'
PUBLIC	??_R0?AVCHelpHtmlCtrl@@@8			; CHelpHtmlCtrl `RTTI Type Descriptor'
PUBLIC	??_R3CHelpHtmlCtrl@@8				; CHelpHtmlCtrl::`RTTI Class Hierarchy Descriptor'
PUBLIC	??_R2CHelpHtmlCtrl@@8				; CHelpHtmlCtrl::`RTTI Base Class Array'
PUBLIC	??_R1A@?0A@EA@CHelpHtmlCtrl@@8			; CHelpHtmlCtrl::`RTTI Base Class Descriptor at (0,-1,0,64)'
PUBLIC	??_R1A@?0A@EA@CHtmlView@@8			; CHtmlView::`RTTI Base Class Descriptor at (0,-1,0,64)'
PUBLIC	??_R0?AVCHtmlView@@@8				; CHtmlView `RTTI Type Descriptor'
PUBLIC	??_R3CHtmlView@@8				; CHtmlView::`RTTI Class Hierarchy Descriptor'
PUBLIC	??_R2CHtmlView@@8				; CHtmlView::`RTTI Base Class Array'
PUBLIC	??_R1A@?0A@EA@CFormView@@8			; CFormView::`RTTI Base Class Descriptor at (0,-1,0,64)'
PUBLIC	??_R0?AVCFormView@@@8				; CFormView `RTTI Type Descriptor'
PUBLIC	??_R3CFormView@@8				; CFormView::`RTTI Class Hierarchy Descriptor'
PUBLIC	??_R2CFormView@@8				; CFormView::`RTTI Base Class Array'
PUBLIC	??_R1A@?0A@EA@CScrollView@@8			; CScrollView::`RTTI Base Class Descriptor at (0,-1,0,64)'
PUBLIC	??_R0?AVCScrollView@@@8				; CScrollView `RTTI Type Descriptor'
PUBLIC	??_R3CScrollView@@8				; CScrollView::`RTTI Class Hierarchy Descriptor'
PUBLIC	??_R2CScrollView@@8				; CScrollView::`RTTI Base Class Array'
PUBLIC	??_R1A@?0A@EA@CView@@8				; CView::`RTTI Base Class Descriptor at (0,-1,0,64)'
PUBLIC	??_R0?AVCView@@@8				; CView `RTTI Type Descriptor'
PUBLIC	??_R3CView@@8					; CView::`RTTI Class Hierarchy Descriptor'
PUBLIC	??_R2CView@@8					; CView::`RTTI Base Class Array'
EXTRN	??2@YAPAXI@Z:PROC				; operator new
EXTRN	??3@YAXPAX@Z:PROC				; operator delete
EXTRN	?__global_delete@@YAXPAXI@Z:PROC		; __global_delete
EXTRN	__imp__GetKeyState@4:PROC
EXTRN	__imp__EnableWindow@8:PROC
EXTRN	__imp__InvalidateRect@12:PROC
EXTRN	__imp__VariantClear@4:PROC
EXTRN	?IsInvokeAllowed@CCmdTarget@@UAEHJ@Z:PROC	; CCmdTarget::IsInvokeAllowed
EXTRN	?GetDispatchIID@CCmdTarget@@UAEHPAU_GUID@@@Z:PROC ; CCmdTarget::GetDispatchIID
EXTRN	?GetTypeInfoCount@CCmdTarget@@UAEIXZ:PROC	; CCmdTarget::GetTypeInfoCount
EXTRN	?GetTypeLibCache@CCmdTarget@@UAEPAVCTypeLibCache@@XZ:PROC ; CCmdTarget::GetTypeLibCache
EXTRN	?GetTypeLib@CCmdTarget@@UAEJKPAPAUITypeLib@@@Z:PROC ; CCmdTarget::GetTypeLib
EXTRN	?GetCommandMap@CCmdTarget@@MBEPBUAFX_OLECMDMAP@@XZ:PROC ; CCmdTarget::GetCommandMap
EXTRN	?GetDispatchMap@CCmdTarget@@MBEPBUAFX_DISPMAP@@XZ:PROC ; CCmdTarget::GetDispatchMap
EXTRN	?GetConnectionMap@CCmdTarget@@MBEPBUAFX_CONNECTIONMAP@@XZ:PROC ; CCmdTarget::GetConnectionMap
EXTRN	?OnCreateAggregates@CCmdTarget@@UAEHXZ:PROC	; CCmdTarget::OnCreateAggregates
EXTRN	?GetInterfaceHook@CCmdTarget@@UAEPAUIUnknown@@PBX@Z:PROC ; CCmdTarget::GetInterfaceHook
EXTRN	?GetExtraConnectionPoints@CCmdTarget@@MAEHPAVCPtrArray@@@Z:PROC ; CCmdTarget::GetExtraConnectionPoints
EXTRN	?GetConnectionHook@CCmdTarget@@MAEPAUIConnectionPoint@@ABU_GUID@@@Z:PROC ; CCmdTarget::GetConnectionHook
EXTRN	?ModifyStyle@CWnd@@QAEHKKI@Z:PROC		; CWnd::ModifyStyle
EXTRN	?PreSubclassWindow@CWnd@@UAEXXZ:PROC		; CWnd::PreSubclassWindow
EXTRN	?CreateEx@CWnd@@UAEHKPBD0KHHHHPAUHWND__@@PAUHMENU__@@PAX@Z:PROC ; CWnd::CreateEx
EXTRN	?CreateEx@CWnd@@UAEHKPBD0KABUtagRECT@@PAV1@IPAX@Z:PROC ; CWnd::CreateEx
EXTRN	?DestroyWindow@CWnd@@UAEHXZ:PROC		; CWnd::DestroyWindow
EXTRN	?GetMenu@CWnd@@UBEPAVCMenu@@XZ:PROC		; CWnd::GetMenu
EXTRN	?SetMenu@CWnd@@UAEHPAVCMenu@@@Z:PROC		; CWnd::SetMenu
EXTRN	?OnToolHitTest@CWnd@@UBEHVCPoint@@PAUtagTOOLINFOA@@@Z:PROC ; CWnd::OnToolHitTest
EXTRN	?WinHelpA@CWnd@@UAEXKI@Z:PROC			; CWnd::WinHelpA
EXTRN	?HtmlHelpA@CWnd@@UAEXKI@Z:PROC			; CWnd::HtmlHelpA
EXTRN	?WinHelpInternal@CWnd@@UAEXKI@Z:PROC		; CWnd::WinHelpInternal
EXTRN	?ContinueModal@CWnd@@UAEHXZ:PROC		; CWnd::ContinueModal
EXTRN	?EndModalLoop@CWnd@@UAEXH@Z:PROC		; CWnd::EndModalLoop
EXTRN	?GetInterfaceMap@CWnd@@MBEPBUAFX_INTERFACEMAP@@XZ:PROC ; CWnd::GetInterfaceMap
EXTRN	?EnsureStdObj@CWnd@@UAEJXZ:PROC			; CWnd::EnsureStdObj
EXTRN	?get_accParent@CWnd@@UAEJPAPAUIDispatch@@@Z:PROC ; CWnd::get_accParent
EXTRN	?get_accValue@CWnd@@UAEJUtagVARIANT@@PAPA_W@Z:PROC ; CWnd::get_accValue
EXTRN	?get_accDescription@CWnd@@UAEJUtagVARIANT@@PAPA_W@Z:PROC ; CWnd::get_accDescription
EXTRN	?get_accRole@CWnd@@UAEJUtagVARIANT@@PAU2@@Z:PROC ; CWnd::get_accRole
EXTRN	?get_accState@CWnd@@UAEJUtagVARIANT@@PAU2@@Z:PROC ; CWnd::get_accState
EXTRN	?get_accHelp@CWnd@@UAEJUtagVARIANT@@PAPA_W@Z:PROC ; CWnd::get_accHelp
EXTRN	?get_accHelpTopic@CWnd@@UAEJPAPA_WUtagVARIANT@@PAJ@Z:PROC ; CWnd::get_accHelpTopic
EXTRN	?get_accKeyboardShortcut@CWnd@@UAEJUtagVARIANT@@PAPA_W@Z:PROC ; CWnd::get_accKeyboardShortcut
EXTRN	?get_accFocus@CWnd@@UAEJPAUtagVARIANT@@@Z:PROC	; CWnd::get_accFocus
EXTRN	?get_accSelection@CWnd@@UAEJPAUtagVARIANT@@@Z:PROC ; CWnd::get_accSelection
EXTRN	?get_accDefaultAction@CWnd@@UAEJUtagVARIANT@@PAPA_W@Z:PROC ; CWnd::get_accDefaultAction
EXTRN	?accSelect@CWnd@@UAEJJUtagVARIANT@@@Z:PROC	; CWnd::accSelect
EXTRN	?accNavigate@CWnd@@UAEJJUtagVARIANT@@PAU2@@Z:PROC ; CWnd::accNavigate
EXTRN	?accDoDefaultAction@CWnd@@UAEJUtagVARIANT@@@Z:PROC ; CWnd::accDoDefaultAction
EXTRN	?put_accName@CWnd@@UAEJUtagVARIANT@@PA_W@Z:PROC	; CWnd::put_accName
EXTRN	?put_accValue@CWnd@@UAEJUtagVARIANT@@PA_W@Z:PROC ; CWnd::put_accValue
EXTRN	?SetProxy@CWnd@@UAEJPAUIAccessibleProxy@@@Z:PROC ; CWnd::SetProxy
EXTRN	?CreateAccessibleProxy@CWnd@@UAEJIJPAJ@Z:PROC	; CWnd::CreateAccessibleProxy
EXTRN	?GetAccessibleChildCount@CWnd@@QAEJXZ:PROC	; CWnd::GetAccessibleChildCount
EXTRN	?GetAccessibleChild@CWnd@@QAEJUtagVARIANT@@PAPAUIDispatch@@@Z:PROC ; CWnd::GetAccessibleChild
EXTRN	?GetAccessibleName@CWnd@@QAEJUtagVARIANT@@PAPA_W@Z:PROC ; CWnd::GetAccessibleName
EXTRN	?GetAccessibilityLocation@CWnd@@QAEJUtagVARIANT@@PAJ111@Z:PROC ; CWnd::GetAccessibilityLocation
EXTRN	?GetAccessibilityHitTest@CWnd@@QAEJJJPAUtagVARIANT@@@Z:PROC ; CWnd::GetAccessibilityHitTest
EXTRN	?OnCommand@CWnd@@MAEHIJ@Z:PROC			; CWnd::OnCommand
EXTRN	?OnNotify@CWnd@@MAEHIJPAJ@Z:PROC		; CWnd::OnNotify
EXTRN	?OnDestroy@CWnd@@IAEXXZ:PROC			; CWnd::OnDestroy
EXTRN	?GetSuperWndProcAddr@CWnd@@MAEPAP6GJPAUHWND__@@IIJ@ZXZ:PROC ; CWnd::GetSuperWndProcAddr
EXTRN	?OnAmbientProperty@CWnd@@UAEHPAVCOleControlSite@@JPAUtagVARIANT@@@Z:PROC ; CWnd::OnAmbientProperty
EXTRN	?WindowProc@CWnd@@MAEJIIJ@Z:PROC		; CWnd::WindowProc
EXTRN	?OnWndMsg@CWnd@@MAEHIIJPAJ@Z:PROC		; CWnd::OnWndMsg
EXTRN	?Default@CWnd@@IAEJXZ:PROC			; CWnd::Default
EXTRN	?DefWindowProcA@CWnd@@MAEJIIJ@Z:PROC		; CWnd::DefWindowProcA
EXTRN	?OnChildNotify@CWnd@@MAEHIIJPAJ@Z:PROC		; CWnd::OnChildNotify
EXTRN	?OnTouchInputs@CWnd@@MAEHIPAUtagTOUCHINPUT@@@Z:PROC ; CWnd::OnTouchInputs
EXTRN	?OnTouchInput@CWnd@@MAEHVCPoint@@HHPAUtagTOUCHINPUT@@@Z:PROC ; CWnd::OnTouchInput
EXTRN	?GetGestureStatus@CWnd@@MAEKVCPoint@@@Z:PROC	; CWnd::GetGestureStatus
EXTRN	?OnGestureZoom@CWnd@@MAEHVCPoint@@J@Z:PROC	; CWnd::OnGestureZoom
EXTRN	?OnGesturePan@CWnd@@MAEHVCPoint@@0@Z:PROC	; CWnd::OnGesturePan
EXTRN	?OnGestureRotate@CWnd@@MAEHVCPoint@@N@Z:PROC	; CWnd::OnGestureRotate
EXTRN	?OnGestureTwoFingerTap@CWnd@@MAEHVCPoint@@@Z:PROC ; CWnd::OnGestureTwoFingerTap
EXTRN	?OnGesturePressAndTap@CWnd@@MAEHVCPoint@@J@Z:PROC ; CWnd::OnGesturePressAndTap
EXTRN	?ResizeDynamicLayout@CWnd@@MAEXXZ:PROC		; CWnd::ResizeDynamicLayout
EXTRN	?CheckAutoCenter@CWnd@@UAEHXZ:PROC		; CWnd::CheckAutoCenter
EXTRN	?IsFrameWnd@CWnd@@UBEHXZ:PROC			; CWnd::IsFrameWnd
EXTRN	?OnFinalRelease@CWnd@@UAEXXZ:PROC		; CWnd::OnFinalRelease
EXTRN	?CreateControlContainer@CWnd@@MAEHPAPAVCOleControlContainer@@@Z:PROC ; CWnd::CreateControlContainer
EXTRN	?AfxRegisterWndClass@@YGPBDIPAUHICON__@@PAUHBRUSH__@@0@Z:PROC ; AfxRegisterWndClass
EXTRN	?IsSelected@CView@@UBEHPBVCObject@@@Z:PROC	; CView::IsSelected
EXTRN	?OnDragEnter@CView@@UAEKPAVCOleDataObject@@KVCPoint@@@Z:PROC ; CView::OnDragEnter
EXTRN	?OnDragOver@CView@@UAEKPAVCOleDataObject@@KVCPoint@@@Z:PROC ; CView::OnDragOver
EXTRN	?OnDragLeave@CView@@UAEXXZ:PROC			; CView::OnDragLeave
EXTRN	?OnDrop@CView@@UAEHPAVCOleDataObject@@KVCPoint@@@Z:PROC ; CView::OnDrop
EXTRN	?OnDropEx@CView@@UAEKPAVCOleDataObject@@KKVCPoint@@@Z:PROC ; CView::OnDropEx
EXTRN	?OnDragScroll@CView@@UAEKKVCPoint@@@Z:PROC	; CView::OnDragScroll
EXTRN	?OnUpdate@CView@@MAEXPAV1@JPAVCObject@@@Z:PROC	; CView::OnUpdate
EXTRN	?OnPreparePrinting@CView@@MAEHPAUCPrintInfo@@@Z:PROC ; CView::OnPreparePrinting
EXTRN	?OnBeginPrinting@CView@@MAEXPAVCDC@@PAUCPrintInfo@@@Z:PROC ; CView::OnBeginPrinting
EXTRN	?OnPrint@CView@@MAEXPAVCDC@@PAUCPrintInfo@@@Z:PROC ; CView::OnPrint
EXTRN	?OnEndPrinting@CView@@MAEXPAVCDC@@PAUCPrintInfo@@@Z:PROC ; CView::OnEndPrinting
EXTRN	?OnEndPrintPreview@CView@@MAEXPAVCDC@@PAUCPrintInfo@@UtagPOINT@@PAVCPreviewView@@@Z:PROC ; CView::OnEndPrintPreview
EXTRN	?GetScrollBarCtrl@CView@@UBEPAVCScrollBar@@H@Z:PROC ; CView::GetScrollBarCtrl
EXTRN	?OnCmdMsg@CView@@UAEHIHPAXPAUAFX_CMDHANDLERINFO@@@Z:PROC ; CView::OnCmdMsg
EXTRN	?CalcWindowRect@CScrollView@@UAEXPAUtagRECT@@I@Z:PROC ; CScrollView::CalcWindowRect
EXTRN	?OnPrepareDC@CScrollView@@UAEXPAVCDC@@PAUCPrintInfo@@@Z:PROC ; CScrollView::OnPrepareDC
EXTRN	?GetWheelScrollDistance@CScrollView@@UAE?AVCSize@@V2@HH@Z:PROC ; CScrollView::GetWheelScrollDistance
EXTRN	?OnScroll@CScrollView@@UAEHIIH@Z:PROC		; CScrollView::OnScroll
EXTRN	?OnScrollBy@CScrollView@@UAEHVCSize@@H@Z:PROC	; CScrollView::OnScrollBy
EXTRN	?OnInitialUpdate@CFormView@@UAEXXZ:PROC		; CFormView::OnInitialUpdate
EXTRN	?OnActivateView@CFormView@@MAEXHPAVCView@@0@Z:PROC ; CFormView::OnActivateView
EXTRN	?OnActivateFrame@CFormView@@MAEXIPAVCFrameWnd@@@Z:PROC ; CFormView::OnActivateFrame
EXTRN	?SetOccDialogInfo@CFormView@@MAEHPAU_AFX_OCC_DIALOG_INFO@@@Z:PROC ; CFormView::SetOccDialogInfo
EXTRN	?GetOccDialogInfo@CFormView@@MAEPAU_AFX_OCC_DIALOG_INFO@@XZ:PROC ; CFormView::GetOccDialogInfo
EXTRN	??0COleVariant@@QAE@JG@Z:PROC			; COleVariant::COleVariant
EXTRN	??0CHtmlView@@IAE@XZ:PROC			; CHtmlView::CHtmlView
EXTRN	?GetThisClass@CHtmlView@@SGPAUCRuntimeClass@@XZ:PROC ; CHtmlView::GetThisClass
EXTRN	?GetEventSinkMap@CHtmlView@@MBEPBUAFX_EVENTSINKMAP@@XZ:PROC ; CHtmlView::GetEventSinkMap
EXTRN	?ExecWB@CHtmlView@@QAEXW4OLECMDID@@W4OLECMDEXECOPT@@PAUtagVARIANT@@2@Z:PROC ; CHtmlView::ExecWB
EXTRN	?GetSource@CHtmlView@@UAEHAAV?$CStringT@DV?$StrTraitMFC_DLL@DV?$ChTraitsCRT@D@ATL@@@@@ATL@@@Z:PROC ; CHtmlView::GetSource
EXTRN	?CreateControlSite@CHtmlView@@UAEHPAVCOleControlContainer@@PAPAVCOleControlSite@@IABU_GUID@@@Z:PROC ; CHtmlView::CreateControlSite
EXTRN	?Create@CHtmlView@@UAEHPBD0KABUtagRECT@@PAVCWnd@@IPAUCCreateContext@@@Z:PROC ; CHtmlView::Create
EXTRN	?PreTranslateMessage@CHtmlView@@UAEHPAUtagMSG@@@Z:PROC ; CHtmlView::PreTranslateMessage
EXTRN	?PreCreateWindow@CHtmlView@@UAEHAAUtagCREATESTRUCTA@@@Z:PROC ; CHtmlView::PreCreateWindow
EXTRN	?OnShowContextMenu@CHtmlView@@UAEJKPAUtagPOINT@@PAUIUnknown@@PAUIDispatch@@@Z:PROC ; CHtmlView::OnShowContextMenu
EXTRN	?OnGetExternal@CHtmlView@@UAEJPAPAUIDispatch@@@Z:PROC ; CHtmlView::OnGetExternal
EXTRN	?OnGetHostInfo@CHtmlView@@UAEJPAU_DOCHOSTUIINFO@@@Z:PROC ; CHtmlView::OnGetHostInfo
EXTRN	?OnShowUI@CHtmlView@@UAEJKPAUIOleInPlaceActiveObject@@PAUIOleCommandTarget@@PAUIOleInPlaceFrame@@PAUIOleInPlaceUIWindow@@@Z:PROC ; CHtmlView::OnShowUI
EXTRN	?OnHideUI@CHtmlView@@UAEJXZ:PROC		; CHtmlView::OnHideUI
EXTRN	?OnUpdateUI@CHtmlView@@UAEJXZ:PROC		; CHtmlView::OnUpdateUI
EXTRN	?OnEnableModeless@CHtmlView@@UAEJH@Z:PROC	; CHtmlView::OnEnableModeless
EXTRN	?OnDocWindowActivate@CHtmlView@@UAEJH@Z:PROC	; CHtmlView::OnDocWindowActivate
EXTRN	?OnFrameWindowActivate@CHtmlView@@UAEJH@Z:PROC	; CHtmlView::OnFrameWindowActivate
EXTRN	?OnResizeBorder@CHtmlView@@UAEJPBUtagRECT@@PAUIOleInPlaceUIWindow@@H@Z:PROC ; CHtmlView::OnResizeBorder
EXTRN	?OnTranslateAccelerator@CHtmlView@@UAEJPAUtagMSG@@PBU_GUID@@K@Z:PROC ; CHtmlView::OnTranslateAccelerator
EXTRN	?OnGetOptionKeyPath@CHtmlView@@UAEJPAPA_WK@Z:PROC ; CHtmlView::OnGetOptionKeyPath
EXTRN	?OnFilterDataObject@CHtmlView@@UAEJPAUIDataObject@@PAPAU2@@Z:PROC ; CHtmlView::OnFilterDataObject
EXTRN	?OnTranslateUrl@CHtmlView@@UAEJKPA_WPAPA_W@Z:PROC ; CHtmlView::OnTranslateUrl
EXTRN	?OnGetDropTarget@CHtmlView@@UAEJPAUIDropTarget@@PAPAU2@@Z:PROC ; CHtmlView::OnGetDropTarget
EXTRN	?OnNavigateComplete2@CHtmlView@@UAEXPBD@Z:PROC	; CHtmlView::OnNavigateComplete2
EXTRN	?OnBeforeNavigate2@CHtmlView@@UAEXPBDK0AAVCByteArray@@0PAH@Z:PROC ; CHtmlView::OnBeforeNavigate2
EXTRN	?OnStatusTextChange@CHtmlView@@UAEXPBD@Z:PROC	; CHtmlView::OnStatusTextChange
EXTRN	?OnProgressChange@CHtmlView@@UAEXJJ@Z:PROC	; CHtmlView::OnProgressChange
EXTRN	?OnCommandStateChange@CHtmlView@@UAEXJH@Z:PROC	; CHtmlView::OnCommandStateChange
EXTRN	?OnDownloadBegin@CHtmlView@@UAEXXZ:PROC		; CHtmlView::OnDownloadBegin
EXTRN	?OnDownloadComplete@CHtmlView@@UAEXXZ:PROC	; CHtmlView::OnDownloadComplete
EXTRN	?OnTitleChange@CHtmlView@@UAEXPBD@Z:PROC	; CHtmlView::OnTitleChange
EXTRN	?OnPropertyChange@CHtmlView@@UAEXPBD@Z:PROC	; CHtmlView::OnPropertyChange
EXTRN	?OnNewWindow2@CHtmlView@@UAEXPAPAUIDispatch@@PAH@Z:PROC ; CHtmlView::OnNewWindow2
EXTRN	?OnDocumentComplete@CHtmlView@@UAEXPBD@Z:PROC	; CHtmlView::OnDocumentComplete
EXTRN	?OnQuit@CHtmlView@@UAEXXZ:PROC			; CHtmlView::OnQuit
EXTRN	?OnVisible@CHtmlView@@UAEXH@Z:PROC		; CHtmlView::OnVisible
EXTRN	?OnToolBar@CHtmlView@@UAEXH@Z:PROC		; CHtmlView::OnToolBar
EXTRN	?OnMenuBar@CHtmlView@@UAEXH@Z:PROC		; CHtmlView::OnMenuBar
EXTRN	?OnStatusBar@CHtmlView@@UAEXH@Z:PROC		; CHtmlView::OnStatusBar
EXTRN	?OnFullScreen@CHtmlView@@UAEXH@Z:PROC		; CHtmlView::OnFullScreen
EXTRN	?OnTheaterMode@CHtmlView@@UAEXH@Z:PROC		; CHtmlView::OnTheaterMode
EXTRN	?OnNavigateError@CHtmlView@@UAEXPBD0KPAH@Z:PROC	; CHtmlView::OnNavigateError
EXTRN	?OnDrawIconicThumbnailOrLivePreview@CHtmlView@@UAEXAAVCDC@@VCRect@@VCSize@@HAAH@Z:PROC ; CHtmlView::OnDrawIconicThumbnailOrLivePreview
EXTRN	??1CHtmlView@@UAE@XZ:PROC			; CHtmlView::~CHtmlView
EXTRN	?OnDraw@CHtmlView@@UAEXPAVCDC@@@Z:PROC		; CHtmlView::OnDraw
EXTRN	?NavigateComplete2@CHtmlView@@MAEXPAUIDispatch@@PAUtagVARIANT@@@Z:PROC ; CHtmlView::NavigateComplete2
EXTRN	?BeforeNavigate2@CHtmlView@@MAEXPAUIDispatch@@PAUtagVARIANT@@1111PAF@Z:PROC ; CHtmlView::BeforeNavigate2
EXTRN	?DocumentComplete@CHtmlView@@MAEXPAUIDispatch@@PAUtagVARIANT@@@Z:PROC ; CHtmlView::DocumentComplete
EXTRN	?NavigateError@CHtmlView@@MAEXPAUIDispatch@@PAUtagVARIANT@@11PAF@Z:PROC ; CHtmlView::NavigateError
EXTRN	?GetThisMessageMap@CHtmlView@@KGPBUAFX_MSGMAP@@XZ:PROC ; CHtmlView::GetThisMessageMap
EXTRN	??_ECHelpHtmlCtrl@@UAEPAXI@Z:PROC		; CHelpHtmlCtrl::`vector deleting destructor'
EXTRN	@__security_check_cookie@4:PROC
EXTRN	___CxxFrameHandler3:PROC
EXTRN	??_7type_info@@6B@:QWORD			; type_info::`vftable'
EXTRN	___security_cookie:DWORD
;	COMDAT ??_R2CView@@8
rdata$r	SEGMENT
??_R2CView@@8 DD FLAT:??_R1A@?0A@EA@CView@@8		; CView::`RTTI Base Class Array'
	DD	FLAT:??_R1A@?0A@EA@CWnd@@8
	DD	FLAT:??_R1A@?0A@EA@CCmdTarget@@8
	DD	FLAT:??_R1A@?0A@EA@CObject@@8
rdata$r	ENDS
;	COMDAT ??_R3CView@@8
rdata$r	SEGMENT
??_R3CView@@8 DD 00H					; CView::`RTTI Class Hierarchy Descriptor'
	DD	00H
	DD	04H
	DD	FLAT:??_R2CView@@8
rdata$r	ENDS
;	COMDAT ??_R0?AVCView@@@8
data$rs	SEGMENT
??_R0?AVCView@@@8 DD FLAT:??_7type_info@@6B@		; CView `RTTI Type Descriptor'
	DD	00H
	DB	'.?AVCView@@', 00H
data$rs	ENDS
;	COMDAT ??_R1A@?0A@EA@CView@@8
rdata$r	SEGMENT
??_R1A@?0A@EA@CView@@8 DD FLAT:??_R0?AVCView@@@8	; CView::`RTTI Base Class Descriptor at (0,-1,0,64)'
	DD	03H
	DD	00H
	DD	0ffffffffH
	DD	00H
	DD	040H
	DD	FLAT:??_R3CView@@8
rdata$r	ENDS
;	COMDAT ??_R2CScrollView@@8
rdata$r	SEGMENT
??_R2CScrollView@@8 DD FLAT:??_R1A@?0A@EA@CScrollView@@8 ; CScrollView::`RTTI Base Class Array'
	DD	FLAT:??_R1A@?0A@EA@CView@@8
	DD	FLAT:??_R1A@?0A@EA@CWnd@@8
	DD	FLAT:??_R1A@?0A@EA@CCmdTarget@@8
	DD	FLAT:??_R1A@?0A@EA@CObject@@8
rdata$r	ENDS
;	COMDAT ??_R3CScrollView@@8
rdata$r	SEGMENT
??_R3CScrollView@@8 DD 00H				; CScrollView::`RTTI Class Hierarchy Descriptor'
	DD	00H
	DD	05H
	DD	FLAT:??_R2CScrollView@@8
rdata$r	ENDS
;	COMDAT ??_R0?AVCScrollView@@@8
data$rs	SEGMENT
??_R0?AVCScrollView@@@8 DD FLAT:??_7type_info@@6B@	; CScrollView `RTTI Type Descriptor'
	DD	00H
	DB	'.?AVCScrollView@@', 00H
data$rs	ENDS
;	COMDAT ??_R1A@?0A@EA@CScrollView@@8
rdata$r	SEGMENT
??_R1A@?0A@EA@CScrollView@@8 DD FLAT:??_R0?AVCScrollView@@@8 ; CScrollView::`RTTI Base Class Descriptor at (0,-1,0,64)'
	DD	04H
	DD	00H
	DD	0ffffffffH
	DD	00H
	DD	040H
	DD	FLAT:??_R3CScrollView@@8
rdata$r	ENDS
;	COMDAT ??_R2CFormView@@8
rdata$r	SEGMENT
??_R2CFormView@@8 DD FLAT:??_R1A@?0A@EA@CFormView@@8	; CFormView::`RTTI Base Class Array'
	DD	FLAT:??_R1A@?0A@EA@CScrollView@@8
	DD	FLAT:??_R1A@?0A@EA@CView@@8
	DD	FLAT:??_R1A@?0A@EA@CWnd@@8
	DD	FLAT:??_R1A@?0A@EA@CCmdTarget@@8
	DD	FLAT:??_R1A@?0A@EA@CObject@@8
rdata$r	ENDS
;	COMDAT ??_R3CFormView@@8
rdata$r	SEGMENT
??_R3CFormView@@8 DD 00H				; CFormView::`RTTI Class Hierarchy Descriptor'
	DD	00H
	DD	06H
	DD	FLAT:??_R2CFormView@@8
rdata$r	ENDS
;	COMDAT ??_R0?AVCFormView@@@8
data$rs	SEGMENT
??_R0?AVCFormView@@@8 DD FLAT:??_7type_info@@6B@	; CFormView `RTTI Type Descriptor'
	DD	00H
	DB	'.?AVCFormView@@', 00H
data$rs	ENDS
;	COMDAT ??_R1A@?0A@EA@CFormView@@8
rdata$r	SEGMENT
??_R1A@?0A@EA@CFormView@@8 DD FLAT:??_R0?AVCFormView@@@8 ; CFormView::`RTTI Base Class Descriptor at (0,-1,0,64)'
	DD	05H
	DD	00H
	DD	0ffffffffH
	DD	00H
	DD	040H
	DD	FLAT:??_R3CFormView@@8
rdata$r	ENDS
;	COMDAT ??_R2CHtmlView@@8
rdata$r	SEGMENT
??_R2CHtmlView@@8 DD FLAT:??_R1A@?0A@EA@CHtmlView@@8	; CHtmlView::`RTTI Base Class Array'
	DD	FLAT:??_R1A@?0A@EA@CFormView@@8
	DD	FLAT:??_R1A@?0A@EA@CScrollView@@8
	DD	FLAT:??_R1A@?0A@EA@CView@@8
	DD	FLAT:??_R1A@?0A@EA@CWnd@@8
	DD	FLAT:??_R1A@?0A@EA@CCmdTarget@@8
	DD	FLAT:??_R1A@?0A@EA@CObject@@8
rdata$r	ENDS
;	COMDAT ??_R3CHtmlView@@8
rdata$r	SEGMENT
??_R3CHtmlView@@8 DD 00H				; CHtmlView::`RTTI Class Hierarchy Descriptor'
	DD	00H
	DD	07H
	DD	FLAT:??_R2CHtmlView@@8
rdata$r	ENDS
;	COMDAT ??_R0?AVCHtmlView@@@8
data$rs	SEGMENT
??_R0?AVCHtmlView@@@8 DD FLAT:??_7type_info@@6B@	; CHtmlView `RTTI Type Descriptor'
	DD	00H
	DB	'.?AVCHtmlView@@', 00H
data$rs	ENDS
;	COMDAT ??_R1A@?0A@EA@CHtmlView@@8
rdata$r	SEGMENT
??_R1A@?0A@EA@CHtmlView@@8 DD FLAT:??_R0?AVCHtmlView@@@8 ; CHtmlView::`RTTI Base Class Descriptor at (0,-1,0,64)'
	DD	06H
	DD	00H
	DD	0ffffffffH
	DD	00H
	DD	040H
	DD	FLAT:??_R3CHtmlView@@8
rdata$r	ENDS
;	COMDAT ??_R1A@?0A@EA@CHelpHtmlCtrl@@8
rdata$r	SEGMENT
??_R1A@?0A@EA@CHelpHtmlCtrl@@8 DD FLAT:??_R0?AVCHelpHtmlCtrl@@@8 ; CHelpHtmlCtrl::`RTTI Base Class Descriptor at (0,-1,0,64)'
	DD	07H
	DD	00H
	DD	0ffffffffH
	DD	00H
	DD	040H
	DD	FLAT:??_R3CHelpHtmlCtrl@@8
rdata$r	ENDS
;	COMDAT ??_R2CHelpHtmlCtrl@@8
rdata$r	SEGMENT
??_R2CHelpHtmlCtrl@@8 DD FLAT:??_R1A@?0A@EA@CHelpHtmlCtrl@@8 ; CHelpHtmlCtrl::`RTTI Base Class Array'
	DD	FLAT:??_R1A@?0A@EA@CHtmlView@@8
	DD	FLAT:??_R1A@?0A@EA@CFormView@@8
	DD	FLAT:??_R1A@?0A@EA@CScrollView@@8
	DD	FLAT:??_R1A@?0A@EA@CView@@8
	DD	FLAT:??_R1A@?0A@EA@CWnd@@8
	DD	FLAT:??_R1A@?0A@EA@CCmdTarget@@8
	DD	FLAT:??_R1A@?0A@EA@CObject@@8
rdata$r	ENDS
;	COMDAT ??_R3CHelpHtmlCtrl@@8
rdata$r	SEGMENT
??_R3CHelpHtmlCtrl@@8 DD 00H				; CHelpHtmlCtrl::`RTTI Class Hierarchy Descriptor'
	DD	00H
	DD	08H
	DD	FLAT:??_R2CHelpHtmlCtrl@@8
rdata$r	ENDS
;	COMDAT ??_R0?AVCHelpHtmlCtrl@@@8
data$rs	SEGMENT
??_R0?AVCHelpHtmlCtrl@@@8 DD FLAT:??_7type_info@@6B@	; CHelpHtmlCtrl `RTTI Type Descriptor'
	DD	00H
	DB	'.?AVCHelpHtmlCtrl@@', 00H
data$rs	ENDS
;	COMDAT ??_R4CHelpHtmlCtrl@@6B@
rdata$r	SEGMENT
??_R4CHelpHtmlCtrl@@6B@ DD 00H				; CHelpHtmlCtrl::`RTTI Complete Object Locator'
	DD	00H
	DD	00H
	DD	FLAT:??_R0?AVCHelpHtmlCtrl@@@8
	DD	FLAT:??_R3CHelpHtmlCtrl@@8
rdata$r	ENDS
;	COMDAT ?messageMap@?1??GetThisMessageMap@CHelpHtmlCtrl@@KGPBUAFX_MSGMAP@@XZ@4U3@B
CONST	SEGMENT
?messageMap@?1??GetThisMessageMap@CHelpHtmlCtrl@@KGPBUAFX_MSGMAP@@XZ@4U3@B DD FLAT:?GetThisMessageMap@CHtmlView@@KGPBUAFX_MSGMAP@@XZ ; `CHelpHtmlCtrl::GetThisMessageMap'::`2'::messageMap
	DD	FLAT:?_messageEntries@?1??GetThisMessageMap@CHelpHtmlCtrl@@KGPBUAFX_MSGMAP@@XZ@4QBUAFX_MSGMAP_ENTRY@@B
CONST	ENDS
;	COMDAT ?_messageEntries@?1??GetThisMessageMap@CHelpHtmlCtrl@@KGPBUAFX_MSGMAP@@XZ@4QBUAFX_MSGMAP_ENTRY@@B
CONST	SEGMENT
?_messageEntries@?1??GetThisMessageMap@CHelpHtmlCtrl@@KGPBUAFX_MSGMAP@@XZ@4QBUAFX_MSGMAP_ENTRY@@B DD 02H ; `CHelpHtmlCtrl::GetThisMessageMap'::`2'::_messageEntries
	DD	00H
	DD	00H
	DD	00H
	DD	013H
	DD	FLAT:?OnDestroy@CHelpHtmlCtrl@@IAEXXZ
	DD	018H
	DD	00H
	DD	00H
	DD	00H
	DD	016H
	DD	FLAT:?OnShowWindow@CHelpHtmlCtrl@@IAEXHI@Z
	DD	021H
	DD	00H
	DD	00H
	DD	00H
	DD	0cH
	DD	FLAT:?OnMouseActivate@CHelpHtmlCtrl@@IAEHPAVCWnd@@II@Z
	DD	00H
	DD	00H
	DD	00H
	DD	00H
	DD	00H
	DD	00H
CONST	ENDS
;	COMDAT ??_C@_0O@FFFANNBN@CHelpHtmlCtrl@
CONST	SEGMENT
??_C@_0O@FFFANNBN@CHelpHtmlCtrl@ DB 'CHelpHtmlCtrl', 00H ; `string'
CONST	ENDS
;	COMDAT ??_7CHelpHtmlCtrl@@6B@
CONST	SEGMENT
??_7CHelpHtmlCtrl@@6B@ DD FLAT:??_R4CHelpHtmlCtrl@@6B@	; CHelpHtmlCtrl::`vftable'
	DD	FLAT:?GetRuntimeClass@CHelpHtmlCtrl@@UBEPAUCRuntimeClass@@XZ
	DD	FLAT:??_ECHelpHtmlCtrl@@UAEPAXI@Z
	DD	FLAT:?Serialize@CObject@@UAEXAAVCArchive@@@Z
	DD	FLAT:?AssertValid@CObject@@UBEXXZ
	DD	FLAT:?Dump@CObject@@UBEXAAVCDumpContext@@@Z
	DD	FLAT:?OnCmdMsg@CView@@UAEHIHPAXPAUAFX_CMDHANDLERINFO@@@Z
	DD	FLAT:?OnFinalRelease@CWnd@@UAEXXZ
	DD	FLAT:?IsInvokeAllowed@CCmdTarget@@UAEHJ@Z
	DD	FLAT:?GetDispatchIID@CCmdTarget@@UAEHPAU_GUID@@@Z
	DD	FLAT:?GetTypeInfoCount@CCmdTarget@@UAEIXZ
	DD	FLAT:?GetTypeLibCache@CCmdTarget@@UAEPAVCTypeLibCache@@XZ
	DD	FLAT:?GetTypeLib@CCmdTarget@@UAEJKPAPAUITypeLib@@@Z
	DD	FLAT:?GetMessageMap@CHelpHtmlCtrl@@MBEPBUAFX_MSGMAP@@XZ
	DD	FLAT:?GetCommandMap@CCmdTarget@@MBEPBUAFX_OLECMDMAP@@XZ
	DD	FLAT:?GetDispatchMap@CCmdTarget@@MBEPBUAFX_DISPMAP@@XZ
	DD	FLAT:?GetConnectionMap@CCmdTarget@@MBEPBUAFX_CONNECTIONMAP@@XZ
	DD	FLAT:?GetInterfaceMap@CWnd@@MBEPBUAFX_INTERFACEMAP@@XZ
	DD	FLAT:?GetEventSinkMap@CHtmlView@@MBEPBUAFX_EVENTSINKMAP@@XZ
	DD	FLAT:?OnCreateAggregates@CCmdTarget@@UAEHXZ
	DD	FLAT:?GetInterfaceHook@CCmdTarget@@UAEPAUIUnknown@@PBX@Z
	DD	FLAT:?GetExtraConnectionPoints@CCmdTarget@@MAEHPAVCPtrArray@@@Z
	DD	FLAT:?GetConnectionHook@CCmdTarget@@MAEPAUIConnectionPoint@@ABU_GUID@@@Z
	DD	FLAT:?PreSubclassWindow@CWnd@@UAEXXZ
	DD	FLAT:?Create@CHtmlView@@UAEHPBD0KABUtagRECT@@PAVCWnd@@IPAUCCreateContext@@@Z
	DD	FLAT:?CreateEx@CWnd@@UAEHKPBD0KABUtagRECT@@PAV1@IPAX@Z
	DD	FLAT:?CreateEx@CWnd@@UAEHKPBD0KHHHHPAUHWND__@@PAUHMENU__@@PAX@Z
	DD	FLAT:?DestroyWindow@CWnd@@UAEHXZ
	DD	FLAT:?PreCreateWindow@CHtmlView@@UAEHAAUtagCREATESTRUCTA@@@Z
	DD	FLAT:?CalcWindowRect@CScrollView@@UAEXPAUtagRECT@@I@Z
	DD	FLAT:?GetMenu@CWnd@@UBEPAVCMenu@@XZ
	DD	FLAT:?SetMenu@CWnd@@UAEHPAVCMenu@@@Z
	DD	FLAT:?OnToolHitTest@CWnd@@UBEHVCPoint@@PAUtagTOOLINFOA@@@Z
	DD	FLAT:?GetScrollBarCtrl@CView@@UBEPAVCScrollBar@@H@Z
	DD	FLAT:?WinHelpA@CWnd@@UAEXKI@Z
	DD	FLAT:?HtmlHelpA@CWnd@@UAEXKI@Z
	DD	FLAT:?WinHelpInternal@CWnd@@UAEXKI@Z
	DD	FLAT:?ContinueModal@CWnd@@UAEHXZ
	DD	FLAT:?EndModalLoop@CWnd@@UAEXH@Z
	DD	FLAT:?OnDrawIconicThumbnailOrLivePreview@CHtmlView@@UAEXAAVCDC@@VCRect@@VCSize@@HAAH@Z
	DD	FLAT:?EnsureStdObj@CWnd@@UAEJXZ
	DD	FLAT:?get_accParent@CWnd@@UAEJPAPAUIDispatch@@@Z
	DD	FLAT:?get_accChildCount@CFormView@@UAEJPAJ@Z
	DD	FLAT:?get_accChild@CFormView@@UAEJUtagVARIANT@@PAPAUIDispatch@@@Z
	DD	FLAT:?get_accName@CFormView@@UAEJUtagVARIANT@@PAPA_W@Z
	DD	FLAT:?get_accValue@CWnd@@UAEJUtagVARIANT@@PAPA_W@Z
	DD	FLAT:?get_accDescription@CWnd@@UAEJUtagVARIANT@@PAPA_W@Z
	DD	FLAT:?get_accRole@CWnd@@UAEJUtagVARIANT@@PAU2@@Z
	DD	FLAT:?get_accState@CWnd@@UAEJUtagVARIANT@@PAU2@@Z
	DD	FLAT:?get_accHelp@CWnd@@UAEJUtagVARIANT@@PAPA_W@Z
	DD	FLAT:?get_accHelpTopic@CWnd@@UAEJPAPA_WUtagVARIANT@@PAJ@Z
	DD	FLAT:?get_accKeyboardShortcut@CWnd@@UAEJUtagVARIANT@@PAPA_W@Z
	DD	FLAT:?get_accFocus@CWnd@@UAEJPAUtagVARIANT@@@Z
	DD	FLAT:?get_accSelection@CWnd@@UAEJPAUtagVARIANT@@@Z
	DD	FLAT:?get_accDefaultAction@CWnd@@UAEJUtagVARIANT@@PAPA_W@Z
	DD	FLAT:?accSelect@CWnd@@UAEJJUtagVARIANT@@@Z
	DD	FLAT:?accLocation@CFormView@@UAEJPAJ000UtagVARIANT@@@Z
	DD	FLAT:?accNavigate@CWnd@@UAEJJUtagVARIANT@@PAU2@@Z
	DD	FLAT:?accHitTest@CFormView@@UAEJJJPAUtagVARIANT@@@Z
	DD	FLAT:?accDoDefaultAction@CWnd@@UAEJUtagVARIANT@@@Z
	DD	FLAT:?put_accName@CWnd@@UAEJUtagVARIANT@@PA_W@Z
	DD	FLAT:?put_accValue@CWnd@@UAEJUtagVARIANT@@PA_W@Z
	DD	FLAT:?SetProxy@CWnd@@UAEJPAUIAccessibleProxy@@@Z
	DD	FLAT:?CreateAccessibleProxy@CWnd@@UAEJIJPAJ@Z
	DD	FLAT:?OnCommand@CWnd@@MAEHIJ@Z
	DD	FLAT:?OnNotify@CWnd@@MAEHIJPAJ@Z
	DD	FLAT:?GetSuperWndProcAddr@CWnd@@MAEPAP6GJPAUHWND__@@IIJ@ZXZ
	DD	FLAT:?DoDataExchange@CHelpHtmlCtrl@@MAEXPAVCDataExchange@@@Z
	DD	FLAT:?BeginModalState@CWnd@@UAEXXZ
	DD	FLAT:?EndModalState@CWnd@@UAEXXZ
	DD	FLAT:?PreTranslateMessage@CHelpHtmlCtrl@@UAEHPAUtagMSG@@@Z
	DD	FLAT:?OnAmbientProperty@CWnd@@UAEHPAVCOleControlSite@@JPAUtagVARIANT@@@Z
	DD	FLAT:?WindowProc@CWnd@@MAEJIIJ@Z
	DD	FLAT:?OnWndMsg@CWnd@@MAEHIIJPAJ@Z
	DD	FLAT:?DefWindowProcA@CWnd@@MAEJIIJ@Z
	DD	FLAT:?PostNcDestroy@CHelpHtmlCtrl@@UAEXXZ
	DD	FLAT:?OnChildNotify@CWnd@@MAEHIIJPAJ@Z
	DD	FLAT:?OnTouchInputs@CWnd@@MAEHIPAUtagTOUCHINPUT@@@Z
	DD	FLAT:?OnTouchInput@CWnd@@MAEHVCPoint@@HHPAUtagTOUCHINPUT@@@Z
	DD	FLAT:?GetGestureStatus@CWnd@@MAEKVCPoint@@@Z
	DD	FLAT:?OnGestureZoom@CWnd@@MAEHVCPoint@@J@Z
	DD	FLAT:?OnGesturePan@CWnd@@MAEHVCPoint@@0@Z
	DD	FLAT:?OnGestureRotate@CWnd@@MAEHVCPoint@@N@Z
	DD	FLAT:?OnGestureTwoFingerTap@CWnd@@MAEHVCPoint@@@Z
	DD	FLAT:?OnGesturePressAndTap@CWnd@@MAEHVCPoint@@J@Z
	DD	FLAT:?ResizeDynamicLayout@CWnd@@MAEXXZ
	DD	FLAT:?CheckAutoCenter@CWnd@@UAEHXZ
	DD	FLAT:?IsFrameWnd@CWnd@@UBEHXZ
	DD	FLAT:?CreateControlContainer@CWnd@@MAEHPAPAVCOleControlContainer@@@Z
	DD	FLAT:?CreateControlSite@CHtmlView@@UAEHPAVCOleControlContainer@@PAPAVCOleControlSite@@IABU_GUID@@@Z
	DD	FLAT:?SetOccDialogInfo@CFormView@@MAEHPAU_AFX_OCC_DIALOG_INFO@@@Z
	DD	FLAT:?GetOccDialogInfo@CFormView@@MAEPAU_AFX_OCC_DIALOG_INFO@@XZ
	DD	FLAT:?IsSelected@CView@@UBEHPBVCObject@@@Z
	DD	FLAT:?OnScroll@CScrollView@@UAEHIIH@Z
	DD	FLAT:?OnScrollBy@CScrollView@@UAEHVCSize@@H@Z
	DD	FLAT:?OnDragEnter@CView@@UAEKPAVCOleDataObject@@KVCPoint@@@Z
	DD	FLAT:?OnDragOver@CView@@UAEKPAVCOleDataObject@@KVCPoint@@@Z
	DD	FLAT:?OnDragLeave@CView@@UAEXXZ
	DD	FLAT:?OnDrop@CView@@UAEHPAVCOleDataObject@@KVCPoint@@@Z
	DD	FLAT:?OnDropEx@CView@@UAEKPAVCOleDataObject@@KKVCPoint@@@Z
	DD	FLAT:?OnDragScroll@CView@@UAEKKVCPoint@@@Z
	DD	FLAT:?OnPrepareDC@CScrollView@@UAEXPAVCDC@@PAUCPrintInfo@@@Z
	DD	FLAT:?OnInitialUpdate@CFormView@@UAEXXZ
	DD	FLAT:?OnActivateView@CFormView@@MAEXHPAVCView@@0@Z
	DD	FLAT:?OnActivateFrame@CFormView@@MAEXIPAVCFrameWnd@@@Z
	DD	FLAT:?OnUpdate@CView@@MAEXPAV1@JPAVCObject@@@Z
	DD	FLAT:?OnDraw@CHtmlView@@UAEXPAVCDC@@@Z
	DD	FLAT:?OnPreparePrinting@CView@@MAEHPAUCPrintInfo@@@Z
	DD	FLAT:?OnBeginPrinting@CView@@MAEXPAVCDC@@PAUCPrintInfo@@@Z
	DD	FLAT:?OnPrint@CView@@MAEXPAVCDC@@PAUCPrintInfo@@@Z
	DD	FLAT:?OnEndPrinting@CView@@MAEXPAVCDC@@PAUCPrintInfo@@@Z
	DD	FLAT:?OnEndPrintPreview@CView@@MAEXPAVCDC@@PAUCPrintInfo@@UtagPOINT@@PAVCPreviewView@@@Z
	DD	FLAT:?GetWheelScrollDistance@CScrollView@@UAE?AVCSize@@V2@HH@Z
	DD	FLAT:?GetSource@CHtmlView@@UAEHAAV?$CStringT@DV?$StrTraitMFC_DLL@DV?$ChTraitsCRT@D@ATL@@@@@ATL@@@Z
	DD	FLAT:?OnShowContextMenu@CHtmlView@@UAEJKPAUtagPOINT@@PAUIUnknown@@PAUIDispatch@@@Z
	DD	FLAT:?OnGetExternal@CHtmlView@@UAEJPAPAUIDispatch@@@Z
	DD	FLAT:?OnGetHostInfo@CHtmlView@@UAEJPAU_DOCHOSTUIINFO@@@Z
	DD	FLAT:?OnShowUI@CHtmlView@@UAEJKPAUIOleInPlaceActiveObject@@PAUIOleCommandTarget@@PAUIOleInPlaceFrame@@PAUIOleInPlaceUIWindow@@@Z
	DD	FLAT:?OnHideUI@CHtmlView@@UAEJXZ
	DD	FLAT:?OnUpdateUI@CHtmlView@@UAEJXZ
	DD	FLAT:?OnEnableModeless@CHtmlView@@UAEJH@Z
	DD	FLAT:?OnDocWindowActivate@CHtmlView@@UAEJH@Z
	DD	FLAT:?OnFrameWindowActivate@CHtmlView@@UAEJH@Z
	DD	FLAT:?OnResizeBorder@CHtmlView@@UAEJPBUtagRECT@@PAUIOleInPlaceUIWindow@@H@Z
	DD	FLAT:?OnTranslateAccelerator@CHtmlView@@UAEJPAUtagMSG@@PBU_GUID@@K@Z
	DD	FLAT:?OnGetOptionKeyPath@CHtmlView@@UAEJPAPA_WK@Z
	DD	FLAT:?OnFilterDataObject@CHtmlView@@UAEJPAUIDataObject@@PAPAU2@@Z
	DD	FLAT:?OnTranslateUrl@CHtmlView@@UAEJKPA_WPAPA_W@Z
	DD	FLAT:?OnGetDropTarget@CHtmlView@@UAEJPAUIDropTarget@@PAPAU2@@Z
	DD	FLAT:?OnNavigateComplete2@CHtmlView@@UAEXPBD@Z
	DD	FLAT:?OnBeforeNavigate2@CHtmlView@@UAEXPBDK0AAVCByteArray@@0PAH@Z
	DD	FLAT:?OnStatusTextChange@CHtmlView@@UAEXPBD@Z
	DD	FLAT:?OnProgressChange@CHtmlView@@UAEXJJ@Z
	DD	FLAT:?OnCommandStateChange@CHtmlView@@UAEXJH@Z
	DD	FLAT:?OnDownloadBegin@CHtmlView@@UAEXXZ
	DD	FLAT:?OnDownloadComplete@CHtmlView@@UAEXXZ
	DD	FLAT:?OnTitleChange@CHtmlView@@UAEXPBD@Z
	DD	FLAT:?OnPropertyChange@CHtmlView@@UAEXPBD@Z
	DD	FLAT:?OnNewWindow2@CHtmlView@@UAEXPAPAUIDispatch@@PAH@Z
	DD	FLAT:?OnDocumentComplete@CHelpHtmlCtrl@@UAEXPBD@Z
	DD	FLAT:?OnQuit@CHtmlView@@UAEXXZ
	DD	FLAT:?OnVisible@CHtmlView@@UAEXH@Z
	DD	FLAT:?OnToolBar@CHtmlView@@UAEXH@Z
	DD	FLAT:?OnMenuBar@CHtmlView@@UAEXH@Z
	DD	FLAT:?OnStatusBar@CHtmlView@@UAEXH@Z
	DD	FLAT:?OnFullScreen@CHtmlView@@UAEXH@Z
	DD	FLAT:?OnTheaterMode@CHtmlView@@UAEXH@Z
	DD	FLAT:?OnNavigateError@CHtmlView@@UAEXPBD0KPAH@Z
	DD	FLAT:?NavigateComplete2@CHtmlView@@MAEXPAUIDispatch@@PAUtagVARIANT@@@Z
	DD	FLAT:?BeforeNavigate2@CHtmlView@@MAEXPAUIDispatch@@PAUtagVARIANT@@1111PAF@Z
	DD	FLAT:?DocumentComplete@CHtmlView@@MAEXPAUIDispatch@@PAUtagVARIANT@@@Z
	DD	FLAT:?NavigateError@CHtmlView@@MAEXPAUIDispatch@@PAUtagVARIANT@@11PAF@Z
CONST	ENDS
;	COMDAT ?classCHelpHtmlCtrl@CHelpHtmlCtrl@@2UCRuntimeClass@@B
CONST	SEGMENT
?classCHelpHtmlCtrl@CHelpHtmlCtrl@@2UCRuntimeClass@@B DD FLAT:??_C@_0O@FFFANNBN@CHelpHtmlCtrl@ ; CHelpHtmlCtrl::classCHelpHtmlCtrl
	DD	0158H
	DD	0ffffH
	DD	FLAT:?CreateObject@CHelpHtmlCtrl@@SGPAVCObject@@XZ
	DD	FLAT:?_GetBaseClass@CHelpHtmlCtrl@@KGPAUCRuntimeClass@@XZ
	DD	00H
	DD	00H
CONST	ENDS
;	COMDAT ??_R2CCmdTarget@@8
rdata$r	SEGMENT
??_R2CCmdTarget@@8 DD FLAT:??_R1A@?0A@EA@CCmdTarget@@8	; CCmdTarget::`RTTI Base Class Array'
	DD	FLAT:??_R1A@?0A@EA@CObject@@8
rdata$r	ENDS
;	COMDAT ??_R3CCmdTarget@@8
rdata$r	SEGMENT
??_R3CCmdTarget@@8 DD 00H				; CCmdTarget::`RTTI Class Hierarchy Descriptor'
	DD	00H
	DD	02H
	DD	FLAT:??_R2CCmdTarget@@8
rdata$r	ENDS
;	COMDAT ??_R0?AVCCmdTarget@@@8
data$rs	SEGMENT
??_R0?AVCCmdTarget@@@8 DD FLAT:??_7type_info@@6B@	; CCmdTarget `RTTI Type Descriptor'
	DD	00H
	DB	'.?AVCCmdTarget@@', 00H
data$rs	ENDS
;	COMDAT ??_R1A@?0A@EA@CCmdTarget@@8
rdata$r	SEGMENT
??_R1A@?0A@EA@CCmdTarget@@8 DD FLAT:??_R0?AVCCmdTarget@@@8 ; CCmdTarget::`RTTI Base Class Descriptor at (0,-1,0,64)'
	DD	01H
	DD	00H
	DD	0ffffffffH
	DD	00H
	DD	040H
	DD	FLAT:??_R3CCmdTarget@@8
rdata$r	ENDS
;	COMDAT ??_R2CWnd@@8
rdata$r	SEGMENT
??_R2CWnd@@8 DD	FLAT:??_R1A@?0A@EA@CWnd@@8		; CWnd::`RTTI Base Class Array'
	DD	FLAT:??_R1A@?0A@EA@CCmdTarget@@8
	DD	FLAT:??_R1A@?0A@EA@CObject@@8
rdata$r	ENDS
;	COMDAT ??_R3CWnd@@8
rdata$r	SEGMENT
??_R3CWnd@@8 DD	00H					; CWnd::`RTTI Class Hierarchy Descriptor'
	DD	00H
	DD	03H
	DD	FLAT:??_R2CWnd@@8
rdata$r	ENDS
;	COMDAT ??_R0?AVCWnd@@@8
data$rs	SEGMENT
??_R0?AVCWnd@@@8 DD FLAT:??_7type_info@@6B@		; CWnd `RTTI Type Descriptor'
	DD	00H
	DB	'.?AVCWnd@@', 00H
data$rs	ENDS
;	COMDAT ??_R1A@?0A@EA@CWnd@@8
rdata$r	SEGMENT
??_R1A@?0A@EA@CWnd@@8 DD FLAT:??_R0?AVCWnd@@@8		; CWnd::`RTTI Base Class Descriptor at (0,-1,0,64)'
	DD	02H
	DD	00H
	DD	0ffffffffH
	DD	00H
	DD	040H
	DD	FLAT:??_R3CWnd@@8
rdata$r	ENDS
;	COMDAT ??_R1A@?0A@EA@CObject@@8
rdata$r	SEGMENT
??_R1A@?0A@EA@CObject@@8 DD FLAT:??_R0?AVCObject@@@8	; CObject::`RTTI Base Class Descriptor at (0,-1,0,64)'
	DD	00H
	DD	00H
	DD	0ffffffffH
	DD	00H
	DD	040H
	DD	FLAT:??_R3CObject@@8
rdata$r	ENDS
;	COMDAT ??_R2CObject@@8
rdata$r	SEGMENT
??_R2CObject@@8 DD FLAT:??_R1A@?0A@EA@CObject@@8	; CObject::`RTTI Base Class Array'
rdata$r	ENDS
;	COMDAT ??_R3CObject@@8
rdata$r	SEGMENT
??_R3CObject@@8 DD 00H					; CObject::`RTTI Class Hierarchy Descriptor'
	DD	00H
	DD	01H
	DD	FLAT:??_R2CObject@@8
rdata$r	ENDS
;	COMDAT ??_R0?AVCObject@@@8
data$rs	SEGMENT
??_R0?AVCObject@@@8 DD FLAT:??_7type_info@@6B@		; CObject `RTTI Type Descriptor'
	DD	00H
	DB	'.?AVCObject@@', 00H
data$rs	ENDS
;	COMDAT xdata$x
xdata$x	SEGMENT
__unwindtable$?OnDocumentComplete@CHelpHtmlCtrl@@UAEXPBD@Z DD 0ffffffffH
	DD	FLAT:__unwindfunclet$?OnDocumentComplete@CHelpHtmlCtrl@@UAEXPBD@Z$0
__ehfuncinfo$?OnDocumentComplete@CHelpHtmlCtrl@@UAEXPBD@Z DD 019930522H
	DD	01H
	DD	FLAT:__unwindtable$?OnDocumentComplete@CHelpHtmlCtrl@@UAEXPBD@Z
	DD	2 DUP(00H)
	DD	2 DUP(00H)
	DD	00H
	DD	01H
xdata$x	ENDS
;	COMDAT xdata$x
xdata$x	SEGMENT
__unwindtable$?CreateObject@CHelpHtmlCtrl@@SGPAVCObject@@XZ DD 0ffffffffH
	DD	FLAT:__unwindfunclet$?CreateObject@CHelpHtmlCtrl@@SGPAVCObject@@XZ$0
__ehfuncinfo$?CreateObject@CHelpHtmlCtrl@@SGPAVCObject@@XZ DD 019930522H
	DD	01H
	DD	FLAT:__unwindtable$?CreateObject@CHelpHtmlCtrl@@SGPAVCObject@@XZ
	DD	2 DUP(00H)
	DD	2 DUP(00H)
	DD	00H
	DD	01H
xdata$x	ENDS
;	COMDAT xdata$x
xdata$x	SEGMENT
__unwindtable$?GetHtmlView@CHelpHtmlCtrl@@SAPAV1@XZ DD 0ffffffffH
	DD	FLAT:__unwindfunclet$?GetHtmlView@CHelpHtmlCtrl@@SAPAV1@XZ$0
__ehfuncinfo$?GetHtmlView@CHelpHtmlCtrl@@SAPAV1@XZ DD 019930522H
	DD	01H
	DD	FLAT:__unwindtable$?GetHtmlView@CHelpHtmlCtrl@@SAPAV1@XZ
	DD	2 DUP(00H)
	DD	2 DUP(00H)
	DD	00H
	DD	01H
xdata$x	ENDS
; Function compile flags: /Ogtp
; File D:\git\src\IBK\IBK_DRFN\ProjSrc\SrcChartEx\ChartAddIn\ChartPatternAddIn\Control\HelpHtmlCtrl.cpp
; File C:\Program Files (x86)\Microsoft Visual Studio\2019\Community\VC\Tools\MSVC\14.29.30133\atlmfc\include\afx.inl
;	COMDAT ??_GCHelpHtmlCtrl@@UAEPAXI@Z
_TEXT	SEGMENT
___flags$ = 8						; size = 4
??_GCHelpHtmlCtrl@@UAEPAXI@Z PROC			; CHelpHtmlCtrl::`scalar deleting destructor', COMDAT
; _this$ = ecx
  00000	55		 push	 ebp
  00001	8b ec		 mov	 ebp, esp
; File D:\git\src\IBK\IBK_DRFN\ProjSrc\SrcChartEx\ChartAddIn\ChartPatternAddIn\Control\HelpHtmlCtrl.cpp

; 26   : {

  00003	56		 push	 esi
  00004	8b f1		 mov	 esi, ecx
  00006	c7 06 00 00 00
	00		 mov	 DWORD PTR [esi], OFFSET ??_7CHelpHtmlCtrl@@6B@

; 27   : }

  0000c	e8 00 00 00 00	 call	 ??1CHtmlView@@UAE@XZ	; CHtmlView::~CHtmlView
  00011	8b 45 08	 mov	 eax, DWORD PTR ___flags$[ebp]
  00014	a8 01		 test	 al, 1
  00016	74 22		 je	 SHORT $LN12@scalar
  00018	a8 04		 test	 al, 4
  0001a	75 10		 jne	 SHORT $LN3@scalar
; File C:\Program Files (x86)\Microsoft Visual Studio\2019\Community\VC\Tools\MSVC\14.29.30133\atlmfc\include\afx.inl

; 112  : 	{ ::operator delete(p); }

  0001c	56		 push	 esi
  0001d	e8 00 00 00 00	 call	 ??3@YAXPAX@Z		; operator delete
  00022	83 c4 04	 add	 esp, 4
  00025	8b c6		 mov	 eax, esi
  00027	5e		 pop	 esi
  00028	5d		 pop	 ebp
  00029	c2 04 00	 ret	 4
$LN3@scalar:
  0002c	68 58 01 00 00	 push	 344			; 00000158H
  00031	56		 push	 esi
  00032	e8 00 00 00 00	 call	 ?__global_delete@@YAXPAXI@Z ; __global_delete
  00037	83 c4 08	 add	 esp, 8
$LN12@scalar:
  0003a	8b c6		 mov	 eax, esi
  0003c	5e		 pop	 esi
  0003d	5d		 pop	 ebp
  0003e	c2 04 00	 ret	 4
??_GCHelpHtmlCtrl@@UAEPAXI@Z ENDP			; CHelpHtmlCtrl::`scalar deleting destructor'
_TEXT	ENDS
; Function compile flags: /Ogtp
; File D:\git\src\IBK\IBK_DRFN\ProjSrc\SrcChartEx\ChartAddIn\ChartPatternAddIn\Control\HelpHtmlCtrl.cpp
;	COMDAT ?GetMessageMap@CHelpHtmlCtrl@@MBEPBUAFX_MSGMAP@@XZ
_TEXT	SEGMENT
?GetMessageMap@CHelpHtmlCtrl@@MBEPBUAFX_MSGMAP@@XZ PROC	; CHelpHtmlCtrl::GetMessageMap, COMDAT
; _this$ = ecx

; 38   : BEGIN_MESSAGE_MAP(CHelpHtmlCtrl, CHtmlView)

  00000	b8 00 00 00 00	 mov	 eax, OFFSET ?messageMap@?1??GetThisMessageMap@CHelpHtmlCtrl@@KGPBUAFX_MSGMAP@@XZ@4U3@B
  00005	c3		 ret	 0
?GetMessageMap@CHelpHtmlCtrl@@MBEPBUAFX_MSGMAP@@XZ ENDP	; CHelpHtmlCtrl::GetMessageMap
_TEXT	ENDS
; Function compile flags: /Ogtp
; File D:\git\src\IBK\IBK_DRFN\ProjSrc\SrcChartEx\ChartAddIn\ChartPatternAddIn\Control\HelpHtmlCtrl.cpp
;	COMDAT ?GetThisMessageMap@CHelpHtmlCtrl@@KGPBUAFX_MSGMAP@@XZ
_TEXT	SEGMENT
?GetThisMessageMap@CHelpHtmlCtrl@@KGPBUAFX_MSGMAP@@XZ PROC ; CHelpHtmlCtrl::GetThisMessageMap, COMDAT

; 39   : 	//{{AFX_MSG_MAP(CHelpHtmlCtrl)
; 40   : 	ON_WM_DESTROY()
; 41   : 	ON_WM_SHOWWINDOW()
; 42   : 	//}}AFX_MSG_MAP
; 43   : 	ON_WM_MOUSEACTIVATE()
; 44   : END_MESSAGE_MAP()

  00000	b8 00 00 00 00	 mov	 eax, OFFSET ?messageMap@?1??GetThisMessageMap@CHelpHtmlCtrl@@KGPBUAFX_MSGMAP@@XZ@4U3@B
  00005	c3		 ret	 0
?GetThisMessageMap@CHelpHtmlCtrl@@KGPBUAFX_MSGMAP@@XZ ENDP ; CHelpHtmlCtrl::GetThisMessageMap
_TEXT	ENDS
; Function compile flags: /Ogtp
; File D:\git\src\IBK\IBK_DRFN\ProjSrc\SrcChartEx\ChartAddIn\ChartPatternAddIn\Control\HelpHtmlCtrl.cpp
; File C:\Program Files (x86)\Microsoft Visual Studio\2019\Community\VC\Tools\MSVC\14.29.30133\atlmfc\include\afxwin2.inl
; File D:\git\src\IBK\IBK_DRFN\ProjSrc\SrcChartEx\ChartAddIn\ChartPatternAddIn\Control\HelpHtmlCtrl.cpp
;	COMDAT ?OnMouseActivate@CHelpHtmlCtrl@@IAEHPAVCWnd@@II@Z
_TEXT	SEGMENT
_pDesktopWnd$ = 8					; size = 4
_nHitTest$ = 12						; size = 4
_msg$ = 16						; size = 4
?OnMouseActivate@CHelpHtmlCtrl@@IAEHPAVCWnd@@II@Z PROC	; CHelpHtmlCtrl::OnMouseActivate, COMDAT
; _this$ = ecx
; File C:\Program Files (x86)\Microsoft Visual Studio\2019\Community\VC\Tools\MSVC\14.29.30133\atlmfc\include\afxwin2.inl

; 448  : 	{ return (int)Default(); }

  00000	e8 00 00 00 00	 call	 ?Default@CWnd@@IAEJXZ	; CWnd::Default
; File D:\git\src\IBK\IBK_DRFN\ProjSrc\SrcChartEx\ChartAddIn\ChartPatternAddIn\Control\HelpHtmlCtrl.cpp

; 83   : }

  00005	c2 0c 00	 ret	 12			; 0000000cH
?OnMouseActivate@CHelpHtmlCtrl@@IAEHPAVCWnd@@II@Z ENDP	; CHelpHtmlCtrl::OnMouseActivate
_TEXT	ENDS
; Function compile flags: /Ogtp
; File D:\git\src\IBK\IBK_DRFN\ProjSrc\SrcChartEx\ChartAddIn\ChartPatternAddIn\Control\HelpHtmlCtrl.cpp
; File C:\Program Files (x86)\Microsoft Visual Studio\2019\Community\VC\Tools\MSVC\14.29.30133\atlmfc\include\afxwin2.inl
; File D:\git\src\IBK\IBK_DRFN\ProjSrc\SrcChartEx\ChartAddIn\ChartPatternAddIn\Control\HelpHtmlCtrl.cpp
; File C:\Program Files (x86)\Microsoft Visual Studio\2019\Community\VC\Tools\MSVC\14.29.30133\atlmfc\include\afxwin2.inl
; File D:\git\src\IBK\IBK_DRFN\ProjSrc\SrcChartEx\ChartAddIn\ChartPatternAddIn\Control\HelpHtmlCtrl.cpp
;	COMDAT ?OnShowWindow@CHelpHtmlCtrl@@IAEXHI@Z
_TEXT	SEGMENT
_bShow$ = 8						; size = 4
_nStatus$ = 12						; size = 4
?OnShowWindow@CHelpHtmlCtrl@@IAEXHI@Z PROC		; CHelpHtmlCtrl::OnShowWindow, COMDAT
; _this$ = ecx

; 112  : {

  00000	56		 push	 esi
  00001	8b f1		 mov	 esi, ecx
; File C:\Program Files (x86)\Microsoft Visual Studio\2019\Community\VC\Tools\MSVC\14.29.30133\atlmfc\include\afxwin2.inl

; 328  : 	{ Default(); }

  00003	e8 00 00 00 00	 call	 ?Default@CWnd@@IAEJXZ	; CWnd::Default
; File D:\git\src\IBK\IBK_DRFN\ProjSrc\SrcChartEx\ChartAddIn\ChartPatternAddIn\Control\HelpHtmlCtrl.cpp

; 115  : 	ModifyStyle(WS_HSCROLL, 0);

  00008	6a 00		 push	 0
  0000a	6a 00		 push	 0
  0000c	68 00 00 10 00	 push	 1048576			; 00100000H
  00011	8b ce		 mov	 ecx, esi
  00013	e8 00 00 00 00	 call	 ?ModifyStyle@CWnd@@QAEHKKI@Z ; CWnd::ModifyStyle
; File C:\Program Files (x86)\Microsoft Visual Studio\2019\Community\VC\Tools\MSVC\14.29.30133\atlmfc\include\afxwin2.inl

; 114  : 	{ ASSERT(::IsWindow(m_hWnd)); ::InvalidateRect(m_hWnd, NULL, bErase); }

  00018	6a 01		 push	 1
  0001a	6a 00		 push	 0
  0001c	ff 76 20	 push	 DWORD PTR [esi+32]
  0001f	ff 15 00 00 00
	00		 call	 DWORD PTR __imp__InvalidateRect@12
  00025	5e		 pop	 esi
; File D:\git\src\IBK\IBK_DRFN\ProjSrc\SrcChartEx\ChartAddIn\ChartPatternAddIn\Control\HelpHtmlCtrl.cpp

; 118  : }

  00026	c2 08 00	 ret	 8
?OnShowWindow@CHelpHtmlCtrl@@IAEXHI@Z ENDP		; CHelpHtmlCtrl::OnShowWindow
_TEXT	ENDS
; Function compile flags: /Ogtp
; File D:\git\src\IBK\IBK_DRFN\ProjSrc\SrcChartEx\ChartAddIn\ChartPatternAddIn\Control\HelpHtmlCtrl.cpp
;	COMDAT ?OnDestroy@CHelpHtmlCtrl@@IAEXXZ
_TEXT	SEGMENT
?OnDestroy@CHelpHtmlCtrl@@IAEXXZ PROC			; CHelpHtmlCtrl::OnDestroy, COMDAT
; _this$ = ecx

; 72   : //	if (m_pBrowserApp) {
; 73   : //		m_pBrowserApp->Release();
; 74   : //		m_pBrowserApp = NULL;
; 75   : //	}
; 76   : 	CWnd::OnDestroy();

  00000	e9 00 00 00 00	 jmp	 ?OnDestroy@CWnd@@IAEXXZ	; CWnd::OnDestroy
?OnDestroy@CHelpHtmlCtrl@@IAEXXZ ENDP			; CHelpHtmlCtrl::OnDestroy
_TEXT	ENDS
; Function compile flags: /Ogtp
; File D:\git\src\IBK\IBK_DRFN\ProjSrc\SrcChartEx\ChartAddIn\ChartPatternAddIn\Control\HelpHtmlCtrl.cpp
;	COMDAT ?DoDataExchange@CHelpHtmlCtrl@@MAEXPAVCDataExchange@@@Z
_TEXT	SEGMENT
_pDX$ = 8						; size = 4
?DoDataExchange@CHelpHtmlCtrl@@MAEXPAVCDataExchange@@@Z PROC ; CHelpHtmlCtrl::DoDataExchange, COMDAT
; _this$ = ecx

; 31   : 	CHtmlView::DoDataExchange(pDX);
; 32   : 	//{{AFX_DATA_MAP(CHelpHtmlCtrl)
; 33   : 		// NOTE: the ClassWizard will add DDX and DDV calls here
; 34   : 	//}}AFX_DATA_MAP
; 35   : }

  00000	c2 04 00	 ret	 4
?DoDataExchange@CHelpHtmlCtrl@@MAEXPAVCDataExchange@@@Z ENDP ; CHelpHtmlCtrl::DoDataExchange
_TEXT	ENDS
; Function compile flags: /Ogtp
; File D:\git\src\IBK\IBK_DRFN\ProjSrc\SrcChartEx\ChartAddIn\ChartPatternAddIn\Control\HelpHtmlCtrl.cpp
;	COMDAT ?PreTranslateMessage@CHelpHtmlCtrl@@UAEHPAUtagMSG@@@Z
_TEXT	SEGMENT
_pMsg$ = 8						; size = 4
?PreTranslateMessage@CHelpHtmlCtrl@@UAEHPAUtagMSG@@@Z PROC ; CHelpHtmlCtrl::PreTranslateMessage, COMDAT
; _this$ = ecx

; 96   : {

  00000	55		 push	 ebp
  00001	8b ec		 mov	 ebp, esp
  00003	56		 push	 esi

; 97   : 	// TODO: Add your specialized code here and/or call the base class
; 98   : 	switch(pMsg->message)

  00004	8b 75 08	 mov	 esi, DWORD PTR _pMsg$[ebp]
  00007	57		 push	 edi
  00008	8b f9		 mov	 edi, ecx
  0000a	81 7e 04 01 01
	00 00		 cmp	 DWORD PTR [esi+4], 257	; 00000101H
  00011	75 22		 jne	 SHORT $LN5@PreTransla

; 99   : 	{
; 100  : 	case WM_KEYUP:
; 101  : 		{
; 102  : 			if((GetKeyState(VK_CONTROL) < 0) && pMsg->wParam == 67)

  00013	6a 11		 push	 17			; 00000011H
  00015	ff 15 00 00 00
	00		 call	 DWORD PTR __imp__GetKeyState@4
  0001b	66 85 c0	 test	 ax, ax
  0001e	79 15		 jns	 SHORT $LN5@PreTransla
  00020	83 7e 08 43	 cmp	 DWORD PTR [esi+8], 67	; 00000043H
  00024	75 0f		 jne	 SHORT $LN5@PreTransla

; 103  : 				ExecWB(OLECMDID_COPY, OLECMDEXECOPT_DONTPROMPTUSER, NULL, NULL); 

  00026	6a 00		 push	 0
  00028	6a 00		 push	 0
  0002a	6a 02		 push	 2
  0002c	6a 0c		 push	 12			; 0000000cH
  0002e	8b cf		 mov	 ecx, edi
  00030	e8 00 00 00 00	 call	 ?ExecWB@CHtmlView@@QAEXW4OLECMDID@@W4OLECMDEXECOPT@@PAUtagVARIANT@@2@Z ; CHtmlView::ExecWB
$LN5@PreTransla:

; 104  : 			break;
; 105  : 		}
; 106  : 	}
; 107  : 
; 108  : 	return CHtmlView::PreTranslateMessage(pMsg);

  00035	56		 push	 esi
  00036	8b cf		 mov	 ecx, edi
  00038	e8 00 00 00 00	 call	 ?PreTranslateMessage@CHtmlView@@UAEHPAUtagMSG@@@Z ; CHtmlView::PreTranslateMessage
  0003d	5f		 pop	 edi
  0003e	5e		 pop	 esi

; 109  : }

  0003f	5d		 pop	 ebp
  00040	c2 04 00	 ret	 4
?PreTranslateMessage@CHelpHtmlCtrl@@UAEHPAUtagMSG@@@Z ENDP ; CHelpHtmlCtrl::PreTranslateMessage
_TEXT	ENDS
; Function compile flags: /Ogtp
; File D:\git\src\IBK\IBK_DRFN\ProjSrc\SrcChartEx\ChartAddIn\ChartPatternAddIn\Control\HelpHtmlCtrl.cpp
; File C:\Program Files (x86)\Microsoft Visual Studio\2019\Community\VC\Tools\MSVC\14.29.30133\atlmfc\include\afxole.inl
; File D:\git\src\IBK\IBK_DRFN\ProjSrc\SrcChartEx\ChartAddIn\ChartPatternAddIn\Control\HelpHtmlCtrl.cpp
;	COMDAT ?OnDocumentComplete@CHelpHtmlCtrl@@UAEXPBD@Z
_TEXT	SEGMENT
_vaZoomFactor$ = -28					; size = 16
__$EHRec$ = -12						; size = 12
_lpszURL$ = 8						; size = 4
?OnDocumentComplete@CHelpHtmlCtrl@@UAEXPBD@Z PROC	; CHelpHtmlCtrl::OnDocumentComplete, COMDAT
; _this$ = ecx

; 86   : {

  00000	55		 push	 ebp
  00001	8b ec		 mov	 ebp, esp
  00003	6a ff		 push	 -1
  00005	68 00 00 00 00	 push	 __ehhandler$?OnDocumentComplete@CHelpHtmlCtrl@@UAEXPBD@Z
  0000a	64 a1 00 00 00
	00		 mov	 eax, DWORD PTR fs:0
  00010	50		 push	 eax
  00011	83 ec 10	 sub	 esp, 16			; 00000010H
  00014	56		 push	 esi
  00015	a1 00 00 00 00	 mov	 eax, DWORD PTR ___security_cookie
  0001a	33 c5		 xor	 eax, ebp
  0001c	50		 push	 eax
  0001d	8d 45 f4	 lea	 eax, DWORD PTR __$EHRec$[ebp]
  00020	64 a3 00 00 00
	00		 mov	 DWORD PTR fs:0, eax
  00026	8b f1		 mov	 esi, ecx

; 87   : 	// TODO: Add your specialized code here and/or call the base class
; 88   : 	COleVariant vaZoomFactor(1l);

  00028	6a 03		 push	 3
  0002a	6a 01		 push	 1
  0002c	8d 4d e4	 lea	 ecx, DWORD PTR _vaZoomFactor$[ebp]
  0002f	e8 00 00 00 00	 call	 ??0COleVariant@@QAE@JG@Z ; COleVariant::COleVariant

; 89   : 
; 90   : 	ExecWB(OLECMDID_ZOOM, OLECMDEXECOPT_DONTPROMPTUSER,

  00034	6a 00		 push	 0
  00036	8d 45 e4	 lea	 eax, DWORD PTR _vaZoomFactor$[ebp]
  00039	c7 45 fc 00 00
	00 00		 mov	 DWORD PTR __$EHRec$[ebp+8], 0
  00040	50		 push	 eax
  00041	6a 02		 push	 2
  00043	6a 13		 push	 19			; 00000013H
  00045	8b ce		 mov	 ecx, esi
  00047	e8 00 00 00 00	 call	 ?ExecWB@CHtmlView@@QAEXW4OLECMDID@@W4OLECMDEXECOPT@@PAUtagVARIANT@@2@Z ; CHtmlView::ExecWB

; 91   : 		   &vaZoomFactor, NULL);
; 92   : 	CHtmlView::OnDocumentComplete(lpszURL);

  0004c	ff 75 08	 push	 DWORD PTR _lpszURL$[ebp]
  0004f	8b ce		 mov	 ecx, esi
  00051	e8 00 00 00 00	 call	 ?OnDocumentComplete@CHtmlView@@UAEXPBD@Z ; CHtmlView::OnDocumentComplete
; File C:\Program Files (x86)\Microsoft Visual Studio\2019\Community\VC\Tools\MSVC\14.29.30133\atlmfc\include\afxole.inl

; 139  : 	{ VERIFY(::VariantClear(this) == NOERROR); }

  00056	8d 45 e4	 lea	 eax, DWORD PTR _vaZoomFactor$[ebp]
  00059	50		 push	 eax
  0005a	ff 15 00 00 00
	00		 call	 DWORD PTR __imp__VariantClear@4
; File D:\git\src\IBK\IBK_DRFN\ProjSrc\SrcChartEx\ChartAddIn\ChartPatternAddIn\Control\HelpHtmlCtrl.cpp

; 93   : }

  00060	8b 4d f4	 mov	 ecx, DWORD PTR __$EHRec$[ebp]
  00063	64 89 0d 00 00
	00 00		 mov	 DWORD PTR fs:0, ecx
  0006a	59		 pop	 ecx
  0006b	5e		 pop	 esi
  0006c	8b e5		 mov	 esp, ebp
  0006e	5d		 pop	 ebp
  0006f	c2 04 00	 ret	 4
_TEXT	ENDS
;	COMDAT text$x
text$x	SEGMENT
__unwindfunclet$?OnDocumentComplete@CHelpHtmlCtrl@@UAEXPBD@Z$0:
  00000	8d 4d e4	 lea	 ecx, DWORD PTR _vaZoomFactor$[ebp]
  00003	e9 00 00 00 00	 jmp	 ??1COleVariant@@QAE@XZ	; COleVariant::~COleVariant
  00008	cc		 int	 3
  00009	cc		 int	 3
  0000a	cc		 int	 3
  0000b	cc		 int	 3
  0000c	cc		 int	 3
__ehhandler$?OnDocumentComplete@CHelpHtmlCtrl@@UAEXPBD@Z:
  0000d	90		 npad	 1
  0000e	90		 npad	 1
  0000f	8b 54 24 08	 mov	 edx, DWORD PTR [esp+8]
  00013	8d 42 0c	 lea	 eax, DWORD PTR [edx+12]
  00016	8b 4a e8	 mov	 ecx, DWORD PTR [edx-24]
  00019	33 c8		 xor	 ecx, eax
  0001b	e8 00 00 00 00	 call	 @__security_check_cookie@4
  00020	b8 00 00 00 00	 mov	 eax, OFFSET __ehfuncinfo$?OnDocumentComplete@CHelpHtmlCtrl@@UAEXPBD@Z
  00025	e9 00 00 00 00	 jmp	 ___CxxFrameHandler3
text$x	ENDS
?OnDocumentComplete@CHelpHtmlCtrl@@UAEXPBD@Z ENDP	; CHelpHtmlCtrl::OnDocumentComplete
; Function compile flags: /Ogtp
; File D:\git\src\IBK\IBK_DRFN\ProjSrc\SrcChartEx\ChartAddIn\ChartPatternAddIn\Control\HelpHtmlCtrl.cpp
; File C:\Program Files (x86)\Microsoft Visual Studio\2019\Community\VC\Tools\MSVC\14.29.30133\atlmfc\include\afx.inl
; File D:\git\src\IBK\IBK_DRFN\ProjSrc\SrcChartEx\ChartAddIn\ChartPatternAddIn\Control\HelpHtmlCtrl.cpp
; File C:\Program Files (x86)\Microsoft Visual Studio\2019\Community\VC\Tools\MSVC\14.29.30133\atlmfc\include\afx.inl
; File D:\git\src\IBK\IBK_DRFN\ProjSrc\SrcChartEx\ChartAddIn\ChartPatternAddIn\Control\HelpHtmlCtrl.cpp
;	COMDAT ?CreateObject@CHelpHtmlCtrl@@SGPAVCObject@@XZ
_TEXT	SEGMENT
$T2 = -16						; size = 4
__$EHRec$ = -12						; size = 12
?CreateObject@CHelpHtmlCtrl@@SGPAVCObject@@XZ PROC	; CHelpHtmlCtrl::CreateObject, COMDAT

; 16   : IMPLEMENT_DYNCREATE(CHelpHtmlCtrl, CHtmlView)

  00000	55		 push	 ebp
  00001	8b ec		 mov	 ebp, esp
  00003	6a ff		 push	 -1
  00005	68 00 00 00 00	 push	 __ehhandler$?CreateObject@CHelpHtmlCtrl@@SGPAVCObject@@XZ
  0000a	64 a1 00 00 00
	00		 mov	 eax, DWORD PTR fs:0
  00010	50		 push	 eax
  00011	51		 push	 ecx
  00012	56		 push	 esi
  00013	a1 00 00 00 00	 mov	 eax, DWORD PTR ___security_cookie
  00018	33 c5		 xor	 eax, ebp
  0001a	50		 push	 eax
  0001b	8d 45 f4	 lea	 eax, DWORD PTR __$EHRec$[ebp]
  0001e	64 a3 00 00 00
	00		 mov	 DWORD PTR fs:0, eax
; File C:\Program Files (x86)\Microsoft Visual Studio\2019\Community\VC\Tools\MSVC\14.29.30133\atlmfc\include\afx.inl

; 116  : 	{ return ::operator new(nSize); }

  00024	68 58 01 00 00	 push	 344			; 00000158H
  00029	e8 00 00 00 00	 call	 ??2@YAPAXI@Z		; operator new
; File D:\git\src\IBK\IBK_DRFN\ProjSrc\SrcChartEx\ChartAddIn\ChartPatternAddIn\Control\HelpHtmlCtrl.cpp

; 16   : IMPLEMENT_DYNCREATE(CHelpHtmlCtrl, CHtmlView)

  0002e	8b f0		 mov	 esi, eax
; File C:\Program Files (x86)\Microsoft Visual Studio\2019\Community\VC\Tools\MSVC\14.29.30133\atlmfc\include\afx.inl

; 116  : 	{ return ::operator new(nSize); }

  00030	83 c4 04	 add	 esp, 4
; File D:\git\src\IBK\IBK_DRFN\ProjSrc\SrcChartEx\ChartAddIn\ChartPatternAddIn\Control\HelpHtmlCtrl.cpp

; 16   : IMPLEMENT_DYNCREATE(CHelpHtmlCtrl, CHtmlView)

  00033	89 75 f0	 mov	 DWORD PTR $T2[ebp], esi
  00036	c7 45 fc 00 00
	00 00		 mov	 DWORD PTR __$EHRec$[ebp+8], 0
  0003d	85 f6		 test	 esi, esi
  0003f	74 1f		 je	 SHORT $LN3@CreateObje

; 19   : {

  00041	8b ce		 mov	 ecx, esi
  00043	e8 00 00 00 00	 call	 ??0CHtmlView@@IAE@XZ	; CHtmlView::CHtmlView
  00048	c7 06 00 00 00
	00		 mov	 DWORD PTR [esi], OFFSET ??_7CHelpHtmlCtrl@@6B@

; 16   : IMPLEMENT_DYNCREATE(CHelpHtmlCtrl, CHtmlView)

  0004e	8b c6		 mov	 eax, esi
  00050	8b 4d f4	 mov	 ecx, DWORD PTR __$EHRec$[ebp]
  00053	64 89 0d 00 00
	00 00		 mov	 DWORD PTR fs:0, ecx
  0005a	59		 pop	 ecx
  0005b	5e		 pop	 esi
  0005c	8b e5		 mov	 esp, ebp
  0005e	5d		 pop	 ebp
  0005f	c3		 ret	 0
$LN3@CreateObje:
  00060	33 c0		 xor	 eax, eax
  00062	8b 4d f4	 mov	 ecx, DWORD PTR __$EHRec$[ebp]
  00065	64 89 0d 00 00
	00 00		 mov	 DWORD PTR fs:0, ecx
  0006c	59		 pop	 ecx
  0006d	5e		 pop	 esi
  0006e	8b e5		 mov	 esp, ebp
  00070	5d		 pop	 ebp
  00071	c3		 ret	 0
_TEXT	ENDS
;	COMDAT text$x
text$x	SEGMENT
__unwindfunclet$?CreateObject@CHelpHtmlCtrl@@SGPAVCObject@@XZ$0:
  00000	8b 45 f0	 mov	 eax, DWORD PTR $T2[ebp]
  00003	50		 push	 eax
  00004	e8 00 00 00 00	 call	 ??3CObject@@SGXPAX@Z	; CObject::operator delete
  00009	c3		 ret	 0
  0000a	cc		 int	 3
  0000b	cc		 int	 3
  0000c	cc		 int	 3
  0000d	cc		 int	 3
  0000e	cc		 int	 3
__ehhandler$?CreateObject@CHelpHtmlCtrl@@SGPAVCObject@@XZ:
  0000f	90		 npad	 1
  00010	90		 npad	 1
  00011	8b 54 24 08	 mov	 edx, DWORD PTR [esp+8]
  00015	8d 42 0c	 lea	 eax, DWORD PTR [edx+12]
  00018	8b 4a f4	 mov	 ecx, DWORD PTR [edx-12]
  0001b	33 c8		 xor	 ecx, eax
  0001d	e8 00 00 00 00	 call	 @__security_check_cookie@4
  00022	b8 00 00 00 00	 mov	 eax, OFFSET __ehfuncinfo$?CreateObject@CHelpHtmlCtrl@@SGPAVCObject@@XZ
  00027	e9 00 00 00 00	 jmp	 ___CxxFrameHandler3
text$x	ENDS
?CreateObject@CHelpHtmlCtrl@@SGPAVCObject@@XZ ENDP	; CHelpHtmlCtrl::CreateObject
; Function compile flags: /Ogtp
; File D:\git\src\IBK\IBK_DRFN\ProjSrc\SrcChartEx\ChartAddIn\ChartPatternAddIn\Control\HelpHtmlCtrl.cpp
;	COMDAT ?GetRuntimeClass@CHelpHtmlCtrl@@UBEPAUCRuntimeClass@@XZ
_TEXT	SEGMENT
?GetRuntimeClass@CHelpHtmlCtrl@@UBEPAUCRuntimeClass@@XZ PROC ; CHelpHtmlCtrl::GetRuntimeClass, COMDAT
; _this$ = ecx

; 16   : IMPLEMENT_DYNCREATE(CHelpHtmlCtrl, CHtmlView)

  00000	b8 00 00 00 00	 mov	 eax, OFFSET ?classCHelpHtmlCtrl@CHelpHtmlCtrl@@2UCRuntimeClass@@B ; CHelpHtmlCtrl::classCHelpHtmlCtrl
  00005	c3		 ret	 0
?GetRuntimeClass@CHelpHtmlCtrl@@UBEPAUCRuntimeClass@@XZ ENDP ; CHelpHtmlCtrl::GetRuntimeClass
_TEXT	ENDS
; Function compile flags: /Ogtp
; File D:\git\src\IBK\IBK_DRFN\ProjSrc\SrcChartEx\ChartAddIn\ChartPatternAddIn\Control\HelpHtmlCtrl.cpp
;	COMDAT ?GetThisClass@CHelpHtmlCtrl@@SGPAUCRuntimeClass@@XZ
_TEXT	SEGMENT
?GetThisClass@CHelpHtmlCtrl@@SGPAUCRuntimeClass@@XZ PROC ; CHelpHtmlCtrl::GetThisClass, COMDAT

; 16   : IMPLEMENT_DYNCREATE(CHelpHtmlCtrl, CHtmlView)

  00000	b8 00 00 00 00	 mov	 eax, OFFSET ?classCHelpHtmlCtrl@CHelpHtmlCtrl@@2UCRuntimeClass@@B ; CHelpHtmlCtrl::classCHelpHtmlCtrl
  00005	c3		 ret	 0
?GetThisClass@CHelpHtmlCtrl@@SGPAUCRuntimeClass@@XZ ENDP ; CHelpHtmlCtrl::GetThisClass
_TEXT	ENDS
; Function compile flags: /Ogtp
; File D:\git\src\IBK\IBK_DRFN\ProjSrc\SrcChartEx\ChartAddIn\ChartPatternAddIn\Control\HelpHtmlCtrl.cpp
;	COMDAT ?_GetBaseClass@CHelpHtmlCtrl@@KGPAUCRuntimeClass@@XZ
_TEXT	SEGMENT
?_GetBaseClass@CHelpHtmlCtrl@@KGPAUCRuntimeClass@@XZ PROC ; CHelpHtmlCtrl::_GetBaseClass, COMDAT

; 16   : IMPLEMENT_DYNCREATE(CHelpHtmlCtrl, CHtmlView)

  00000	e9 00 00 00 00	 jmp	 ?GetThisClass@CHtmlView@@SGPAUCRuntimeClass@@XZ ; CHtmlView::GetThisClass
?_GetBaseClass@CHelpHtmlCtrl@@KGPAUCRuntimeClass@@XZ ENDP ; CHelpHtmlCtrl::_GetBaseClass
_TEXT	ENDS
; Function compile flags: /Ogtp
; File D:\git\src\IBK\IBK_DRFN\ProjSrc\SrcChartEx\ChartAddIn\ChartPatternAddIn\Control\HelpHtmlCtrl.h
;	COMDAT ?PostNcDestroy@CHelpHtmlCtrl@@UAEXXZ
_TEXT	SEGMENT
?PostNcDestroy@CHelpHtmlCtrl@@UAEXXZ PROC		; CHelpHtmlCtrl::PostNcDestroy, COMDAT
; _this$ = ecx

; 26   : 	virtual void PostNcDestroy() {}

  00000	c2 00 00	 ret	 0
?PostNcDestroy@CHelpHtmlCtrl@@UAEXXZ ENDP		; CHelpHtmlCtrl::PostNcDestroy
_TEXT	ENDS
; Function compile flags: /Ogtp
; File D:\git\src\IBK\IBK_DRFN\ProjSrc\SrcChartEx\ChartAddIn\ChartPatternAddIn\Control\HelpHtmlCtrl.cpp
;	COMDAT ?CreateWnd@CHelpHtmlCtrl@@QAEHVCRect@@PAVCWnd@@I@Z
_TEXT	SEGMENT
_rcWnd$ = 8						; size = 16
_pParent$ = 24						; size = 4
_nID$ = 28						; size = 4
?CreateWnd@CHelpHtmlCtrl@@QAEHVCRect@@PAVCWnd@@I@Z PROC	; CHelpHtmlCtrl::CreateWnd, COMDAT
; _this$ = ecx

; 54   : {

  00000	55		 push	 ebp
  00001	8b ec		 mov	 ebp, esp
  00003	56		 push	 esi
  00004	8b 75 18	 mov	 esi, DWORD PTR _pParent$[ebp]
  00007	57		 push	 edi

; 55   : 	DWORD dwStyle = WS_CHILD | WS_VISIBLE ;
; 56   : 	LPCTSTR lpWndCls;
; 57   : 	lpWndCls = AfxRegisterWndClass(0);

  00008	6a 00		 push	 0
  0000a	6a 00		 push	 0
  0000c	6a 00		 push	 0
  0000e	6a 00		 push	 0
  00010	8b f9		 mov	 edi, ecx
  00012	e8 00 00 00 00	 call	 ?AfxRegisterWndClass@@YGPBDIPAUHICON__@@PAUHBRUSH__@@0@Z ; AfxRegisterWndClass

; 58   : 	BOOL bRet = CHtmlView::Create(NULL, lpWndCls, dwStyle, rcWnd, pParent, nID);

  00017	6a 00		 push	 0
  00019	ff 75 1c	 push	 DWORD PTR _nID$[ebp]
  0001c	8d 4d 08	 lea	 ecx, DWORD PTR _rcWnd$[ebp]
  0001f	56		 push	 esi
  00020	51		 push	 ecx
  00021	68 00 00 00 50	 push	 1342177280		; 50000000H
  00026	50		 push	 eax
  00027	6a 00		 push	 0
  00029	8b cf		 mov	 ecx, edi
  0002b	e8 00 00 00 00	 call	 ?Create@CHtmlView@@UAEHPBD0KABUtagRECT@@PAVCWnd@@IPAUCCreateContext@@@Z ; CHtmlView::Create

; 59   : 	
; 60   : 	return bRet;

  00030	5f		 pop	 edi
  00031	5e		 pop	 esi

; 61   : }

  00032	5d		 pop	 ebp
  00033	c2 18 00	 ret	 24			; 00000018H
?CreateWnd@CHelpHtmlCtrl@@QAEHVCRect@@PAVCWnd@@I@Z ENDP	; CHelpHtmlCtrl::CreateWnd
_TEXT	ENDS
; Function compile flags: /Ogtp
; File D:\git\src\IBK\IBK_DRFN\ProjSrc\SrcChartEx\ChartAddIn\ChartPatternAddIn\Control\HelpHtmlCtrl.cpp
; File C:\Program Files (x86)\Microsoft Visual Studio\2019\Community\VC\Tools\MSVC\14.29.30133\atlmfc\include\afx.inl
; File D:\git\src\IBK\IBK_DRFN\ProjSrc\SrcChartEx\ChartAddIn\ChartPatternAddIn\Control\HelpHtmlCtrl.cpp
; File C:\Program Files (x86)\Microsoft Visual Studio\2019\Community\VC\Tools\MSVC\14.29.30133\atlmfc\include\afx.inl
; File D:\git\src\IBK\IBK_DRFN\ProjSrc\SrcChartEx\ChartAddIn\ChartPatternAddIn\Control\HelpHtmlCtrl.cpp
;	COMDAT ?GetHtmlView@CHelpHtmlCtrl@@SAPAV1@XZ
_TEXT	SEGMENT
$T2 = -16						; size = 4
__$EHRec$ = -12						; size = 12
?GetHtmlView@CHelpHtmlCtrl@@SAPAV1@XZ PROC		; CHelpHtmlCtrl::GetHtmlView, COMDAT

; 64   : {

  00000	55		 push	 ebp
  00001	8b ec		 mov	 ebp, esp
  00003	6a ff		 push	 -1
  00005	68 00 00 00 00	 push	 __ehhandler$?GetHtmlView@CHelpHtmlCtrl@@SAPAV1@XZ
  0000a	64 a1 00 00 00
	00		 mov	 eax, DWORD PTR fs:0
  00010	50		 push	 eax
  00011	51		 push	 ecx
  00012	56		 push	 esi
  00013	a1 00 00 00 00	 mov	 eax, DWORD PTR ___security_cookie
  00018	33 c5		 xor	 eax, ebp
  0001a	50		 push	 eax
  0001b	8d 45 f4	 lea	 eax, DWORD PTR __$EHRec$[ebp]
  0001e	64 a3 00 00 00
	00		 mov	 DWORD PTR fs:0, eax
; File C:\Program Files (x86)\Microsoft Visual Studio\2019\Community\VC\Tools\MSVC\14.29.30133\atlmfc\include\afx.inl

; 116  : 	{ return ::operator new(nSize); }

  00024	68 58 01 00 00	 push	 344			; 00000158H
  00029	e8 00 00 00 00	 call	 ??2@YAPAXI@Z		; operator new
; File D:\git\src\IBK\IBK_DRFN\ProjSrc\SrcChartEx\ChartAddIn\ChartPatternAddIn\Control\HelpHtmlCtrl.cpp

; 65   : 	CHelpHtmlCtrl* pView = new CHelpHtmlCtrl;

  0002e	8b f0		 mov	 esi, eax
; File C:\Program Files (x86)\Microsoft Visual Studio\2019\Community\VC\Tools\MSVC\14.29.30133\atlmfc\include\afx.inl

; 116  : 	{ return ::operator new(nSize); }

  00030	83 c4 04	 add	 esp, 4
; File D:\git\src\IBK\IBK_DRFN\ProjSrc\SrcChartEx\ChartAddIn\ChartPatternAddIn\Control\HelpHtmlCtrl.cpp

; 65   : 	CHelpHtmlCtrl* pView = new CHelpHtmlCtrl;

  00033	89 75 f0	 mov	 DWORD PTR $T2[ebp], esi
  00036	c7 45 fc 00 00
	00 00		 mov	 DWORD PTR __$EHRec$[ebp+8], 0
  0003d	85 f6		 test	 esi, esi
  0003f	74 1f		 je	 SHORT $LN3@GetHtmlVie

; 19   : {

  00041	8b ce		 mov	 ecx, esi
  00043	e8 00 00 00 00	 call	 ??0CHtmlView@@IAE@XZ	; CHtmlView::CHtmlView
  00048	c7 06 00 00 00
	00		 mov	 DWORD PTR [esi], OFFSET ??_7CHelpHtmlCtrl@@6B@

; 66   : 	return pView;

  0004e	8b c6		 mov	 eax, esi

; 67   : }

  00050	8b 4d f4	 mov	 ecx, DWORD PTR __$EHRec$[ebp]
  00053	64 89 0d 00 00
	00 00		 mov	 DWORD PTR fs:0, ecx
  0005a	59		 pop	 ecx
  0005b	5e		 pop	 esi
  0005c	8b e5		 mov	 esp, ebp
  0005e	5d		 pop	 ebp
  0005f	c3		 ret	 0
$LN3@GetHtmlVie:

; 66   : 	return pView;

  00060	33 c0		 xor	 eax, eax

; 67   : }

  00062	8b 4d f4	 mov	 ecx, DWORD PTR __$EHRec$[ebp]
  00065	64 89 0d 00 00
	00 00		 mov	 DWORD PTR fs:0, ecx
  0006c	59		 pop	 ecx
  0006d	5e		 pop	 esi
  0006e	8b e5		 mov	 esp, ebp
  00070	5d		 pop	 ebp
  00071	c3		 ret	 0
_TEXT	ENDS
;	COMDAT text$x
text$x	SEGMENT
__unwindfunclet$?GetHtmlView@CHelpHtmlCtrl@@SAPAV1@XZ$0:
  00000	8b 45 f0	 mov	 eax, DWORD PTR $T2[ebp]
  00003	50		 push	 eax
  00004	e8 00 00 00 00	 call	 ??3CObject@@SGXPAX@Z	; CObject::operator delete
  00009	c3		 ret	 0
  0000a	cc		 int	 3
  0000b	cc		 int	 3
  0000c	cc		 int	 3
  0000d	cc		 int	 3
  0000e	cc		 int	 3
__ehhandler$?GetHtmlView@CHelpHtmlCtrl@@SAPAV1@XZ:
  0000f	90		 npad	 1
  00010	90		 npad	 1
  00011	8b 54 24 08	 mov	 edx, DWORD PTR [esp+8]
  00015	8d 42 0c	 lea	 eax, DWORD PTR [edx+12]
  00018	8b 4a f4	 mov	 ecx, DWORD PTR [edx-12]
  0001b	33 c8		 xor	 ecx, eax
  0001d	e8 00 00 00 00	 call	 @__security_check_cookie@4
  00022	b8 00 00 00 00	 mov	 eax, OFFSET __ehfuncinfo$?GetHtmlView@CHelpHtmlCtrl@@SAPAV1@XZ
  00027	e9 00 00 00 00	 jmp	 ___CxxFrameHandler3
text$x	ENDS
?GetHtmlView@CHelpHtmlCtrl@@SAPAV1@XZ ENDP		; CHelpHtmlCtrl::GetHtmlView
; Function compile flags: /Ogtp
; File D:\git\src\IBK\IBK_DRFN\ProjSrc\SrcChartEx\ChartAddIn\ChartPatternAddIn\Control\HelpHtmlCtrl.cpp
;	COMDAT ??1CHelpHtmlCtrl@@UAE@XZ
_TEXT	SEGMENT
??1CHelpHtmlCtrl@@UAE@XZ PROC				; CHelpHtmlCtrl::~CHelpHtmlCtrl, COMDAT
; _this$ = ecx

; 26   : {

  00000	c7 01 00 00 00
	00		 mov	 DWORD PTR [ecx], OFFSET ??_7CHelpHtmlCtrl@@6B@

; 27   : }

  00006	e9 00 00 00 00	 jmp	 ??1CHtmlView@@UAE@XZ	; CHtmlView::~CHtmlView
??1CHelpHtmlCtrl@@UAE@XZ ENDP				; CHelpHtmlCtrl::~CHelpHtmlCtrl
_TEXT	ENDS
; Function compile flags: /Ogtp
; File D:\git\src\IBK\IBK_DRFN\ProjSrc\SrcChartEx\ChartAddIn\ChartPatternAddIn\Control\HelpHtmlCtrl.cpp
;	COMDAT ??0CHelpHtmlCtrl@@QAE@XZ
_TEXT	SEGMENT
_this$ = -4						; size = 4
??0CHelpHtmlCtrl@@QAE@XZ PROC				; CHelpHtmlCtrl::CHelpHtmlCtrl, COMDAT
; _this$ = ecx

; 19   : {

  00000	55		 push	 ebp
  00001	8b ec		 mov	 ebp, esp
  00003	51		 push	 ecx
  00004	56		 push	 esi
  00005	8b f1		 mov	 esi, ecx
  00007	89 75 fc	 mov	 DWORD PTR _this$[ebp], esi
  0000a	e8 00 00 00 00	 call	 ??0CHtmlView@@IAE@XZ	; CHtmlView::CHtmlView
  0000f	c7 06 00 00 00
	00		 mov	 DWORD PTR [esi], OFFSET ??_7CHelpHtmlCtrl@@6B@

; 20   : 	//{{AFX_DATA_INIT(CHelpHtmlCtrl)
; 21   : 		// NOTE: the ClassWizard will add member initialization here
; 22   : 	//}}AFX_DATA_INIT
; 23   : }

  00015	8b c6		 mov	 eax, esi
  00017	5e		 pop	 esi
  00018	8b e5		 mov	 esp, ebp
  0001a	5d		 pop	 ebp
  0001b	c3		 ret	 0
??0CHelpHtmlCtrl@@QAE@XZ ENDP				; CHelpHtmlCtrl::CHelpHtmlCtrl
_TEXT	ENDS
; Function compile flags: /Ogtp
; File C:\Program Files (x86)\Microsoft Visual Studio\2019\Community\VC\Tools\MSVC\14.29.30133\atlmfc\include\afxole.inl
;	COMDAT ??1COleVariant@@QAE@XZ
_TEXT	SEGMENT
??1COleVariant@@QAE@XZ PROC				; COleVariant::~COleVariant, COMDAT
; _this$ = ecx

; 139  : 	{ VERIFY(::VariantClear(this) == NOERROR); }

  00000	51		 push	 ecx
  00001	ff 15 00 00 00
	00		 call	 DWORD PTR __imp__VariantClear@4
  00007	c3		 ret	 0
??1COleVariant@@QAE@XZ ENDP				; COleVariant::~COleVariant
_TEXT	ENDS
; Function compile flags: /Ogtp
; File C:\Program Files (x86)\Microsoft Visual Studio\2019\Community\VC\Tools\MSVC\14.29.30133\atlmfc\include\afxext.h
;	COMDAT ?accHitTest@CFormView@@UAEJJJPAUtagVARIANT@@@Z
_TEXT	SEGMENT
_xLeft$ = 8						; size = 4
_yTop$ = 12						; size = 4
_pvarChild$ = 16					; size = 4
?accHitTest@CFormView@@UAEJJJPAUtagVARIANT@@@Z PROC	; CFormView::accHitTest, COMDAT
; _this$ = ecx

; 802  : 	{

  00000	55		 push	 ebp
  00001	8b ec		 mov	 ebp, esp

; 804  : 	}

  00003	5d		 pop	 ebp

; 803  : 		return GetAccessibilityHitTest(xLeft, yTop, pvarChild);

  00004	e9 00 00 00 00	 jmp	 ?GetAccessibilityHitTest@CWnd@@QAEJJJPAUtagVARIANT@@@Z ; CWnd::GetAccessibilityHitTest
?accHitTest@CFormView@@UAEJJJPAUtagVARIANT@@@Z ENDP	; CFormView::accHitTest
_TEXT	ENDS
; Function compile flags: /Ogtp
; File C:\Program Files (x86)\Microsoft Visual Studio\2019\Community\VC\Tools\MSVC\14.29.30133\atlmfc\include\afxext.h
;	COMDAT ?accLocation@CFormView@@UAEJPAJ000UtagVARIANT@@@Z
_TEXT	SEGMENT
_pxLeft$ = 8						; size = 4
_pyTop$ = 12						; size = 4
_pcxWidth$ = 16						; size = 4
_pcyHeight$ = 20					; size = 4
_varChild$ = 24						; size = 16
?accLocation@CFormView@@UAEJPAJ000UtagVARIANT@@@Z PROC	; CFormView::accLocation, COMDAT
; _this$ = ecx

; 797  : 	{

  00000	55		 push	 ebp
  00001	8b ec		 mov	 ebp, esp

; 798  : 		return GetAccessibilityLocation(varChild, pxLeft, pyTop, pcxWidth, pcyHeight);

  00003	ff 75 14	 push	 DWORD PTR _pcyHeight$[ebp]
  00006	0f 10 45 18	 movups	 xmm0, XMMWORD PTR _varChild$[ebp]
  0000a	ff 75 10	 push	 DWORD PTR _pcxWidth$[ebp]
  0000d	ff 75 0c	 push	 DWORD PTR _pyTop$[ebp]
  00010	ff 75 08	 push	 DWORD PTR _pxLeft$[ebp]
  00013	83 ec 10	 sub	 esp, 16			; 00000010H
  00016	8b c4		 mov	 eax, esp
  00018	0f 11 00	 movups	 XMMWORD PTR [eax], xmm0
  0001b	e8 00 00 00 00	 call	 ?GetAccessibilityLocation@CWnd@@QAEJUtagVARIANT@@PAJ111@Z ; CWnd::GetAccessibilityLocation

; 799  : 	}

  00020	5d		 pop	 ebp
  00021	c2 20 00	 ret	 32			; 00000020H
?accLocation@CFormView@@UAEJPAJ000UtagVARIANT@@@Z ENDP	; CFormView::accLocation
_TEXT	ENDS
; Function compile flags: /Ogtp
; File C:\Program Files (x86)\Microsoft Visual Studio\2019\Community\VC\Tools\MSVC\14.29.30133\atlmfc\include\afxext.h
;	COMDAT ?get_accName@CFormView@@UAEJUtagVARIANT@@PAPA_W@Z
_TEXT	SEGMENT
_varChild$ = 8						; size = 16
_pszName$ = 24						; size = 4
?get_accName@CFormView@@UAEJUtagVARIANT@@PAPA_W@Z PROC	; CFormView::get_accName, COMDAT
; _this$ = ecx

; 792  : 	{

  00000	55		 push	 ebp
  00001	8b ec		 mov	 ebp, esp

; 793  : 		return GetAccessibleName(varChild, pszName);

  00003	ff 75 18	 push	 DWORD PTR _pszName$[ebp]
  00006	0f 10 45 08	 movups	 xmm0, XMMWORD PTR _varChild$[ebp]
  0000a	83 ec 10	 sub	 esp, 16			; 00000010H
  0000d	8b c4		 mov	 eax, esp
  0000f	0f 11 00	 movups	 XMMWORD PTR [eax], xmm0
  00012	e8 00 00 00 00	 call	 ?GetAccessibleName@CWnd@@QAEJUtagVARIANT@@PAPA_W@Z ; CWnd::GetAccessibleName

; 794  : 	}

  00017	5d		 pop	 ebp
  00018	c2 14 00	 ret	 20			; 00000014H
?get_accName@CFormView@@UAEJUtagVARIANT@@PAPA_W@Z ENDP	; CFormView::get_accName
_TEXT	ENDS
; Function compile flags: /Ogtp
; File C:\Program Files (x86)\Microsoft Visual Studio\2019\Community\VC\Tools\MSVC\14.29.30133\atlmfc\include\afxext.h
;	COMDAT ?get_accChildCount@CFormView@@UAEJPAJ@Z
_TEXT	SEGMENT
_pcountChildren$ = 8					; size = 4
?get_accChildCount@CFormView@@UAEJPAJ@Z PROC		; CFormView::get_accChildCount, COMDAT
; _this$ = ecx

; 786  : 	{

  00000	55		 push	 ebp
  00001	8b ec		 mov	 ebp, esp

; 787  : 		(*pcountChildren) = GetAccessibleChildCount();

  00003	e8 00 00 00 00	 call	 ?GetAccessibleChildCount@CWnd@@QAEJXZ ; CWnd::GetAccessibleChildCount
  00008	8b 4d 08	 mov	 ecx, DWORD PTR _pcountChildren$[ebp]
  0000b	89 01		 mov	 DWORD PTR [ecx], eax

; 788  : 		return S_OK;

  0000d	33 c0		 xor	 eax, eax

; 789  : 	}

  0000f	5d		 pop	 ebp
  00010	c2 04 00	 ret	 4
?get_accChildCount@CFormView@@UAEJPAJ@Z ENDP		; CFormView::get_accChildCount
_TEXT	ENDS
; Function compile flags: /Ogtp
; File C:\Program Files (x86)\Microsoft Visual Studio\2019\Community\VC\Tools\MSVC\14.29.30133\atlmfc\include\afxext.h
;	COMDAT ?get_accChild@CFormView@@UAEJUtagVARIANT@@PAPAUIDispatch@@@Z
_TEXT	SEGMENT
_varChild$ = 8						; size = 16
_ppdispChild$ = 24					; size = 4
?get_accChild@CFormView@@UAEJUtagVARIANT@@PAPAUIDispatch@@@Z PROC ; CFormView::get_accChild, COMDAT
; _this$ = ecx

; 781  : 	{

  00000	55		 push	 ebp
  00001	8b ec		 mov	 ebp, esp

; 782  : 		return GetAccessibleChild(varChild, ppdispChild);

  00003	ff 75 18	 push	 DWORD PTR _ppdispChild$[ebp]
  00006	0f 10 45 08	 movups	 xmm0, XMMWORD PTR _varChild$[ebp]
  0000a	83 ec 10	 sub	 esp, 16			; 00000010H
  0000d	8b c4		 mov	 eax, esp
  0000f	0f 11 00	 movups	 XMMWORD PTR [eax], xmm0
  00012	e8 00 00 00 00	 call	 ?GetAccessibleChild@CWnd@@QAEJUtagVARIANT@@PAPAUIDispatch@@@Z ; CWnd::GetAccessibleChild

; 783  : 	}

  00017	5d		 pop	 ebp
  00018	c2 14 00	 ret	 20			; 00000014H
?get_accChild@CFormView@@UAEJUtagVARIANT@@PAPAUIDispatch@@@Z ENDP ; CFormView::get_accChild
_TEXT	ENDS
; Function compile flags: /Ogtp
; File C:\Program Files (x86)\Microsoft Visual Studio\2019\Community\VC\Tools\MSVC\14.29.30133\atlmfc\include\afxwin2.inl
;	COMDAT ?EndModalState@CWnd@@UAEXXZ
_TEXT	SEGMENT
?EndModalState@CWnd@@UAEXXZ PROC			; CWnd::EndModalState, COMDAT
; _this$ = ecx

; 567  : 	{ ::EnableWindow(m_hWnd, TRUE); }

  00000	6a 01		 push	 1
  00002	ff 71 20	 push	 DWORD PTR [ecx+32]
  00005	ff 15 00 00 00
	00		 call	 DWORD PTR __imp__EnableWindow@8
  0000b	c3		 ret	 0
?EndModalState@CWnd@@UAEXXZ ENDP			; CWnd::EndModalState
_TEXT	ENDS
; Function compile flags: /Ogtp
; File C:\Program Files (x86)\Microsoft Visual Studio\2019\Community\VC\Tools\MSVC\14.29.30133\atlmfc\include\afxwin2.inl
;	COMDAT ?BeginModalState@CWnd@@UAEXXZ
_TEXT	SEGMENT
?BeginModalState@CWnd@@UAEXXZ PROC			; CWnd::BeginModalState, COMDAT
; _this$ = ecx

; 565  : 	{ ::EnableWindow(m_hWnd, FALSE); }

  00000	6a 00		 push	 0
  00002	ff 71 20	 push	 DWORD PTR [ecx+32]
  00005	ff 15 00 00 00
	00		 call	 DWORD PTR __imp__EnableWindow@8
  0000b	c3		 ret	 0
?BeginModalState@CWnd@@UAEXXZ ENDP			; CWnd::BeginModalState
_TEXT	ENDS
; Function compile flags: /Ogtp
; File C:\Program Files (x86)\Microsoft Visual Studio\2019\Community\VC\Tools\MSVC\14.29.30133\atlmfc\include\afxwin2.inl
;	COMDAT ?DoDataExchange@CWnd@@MAEXPAVCDataExchange@@@Z
_TEXT	SEGMENT
___formal$ = 8						; size = 4
?DoDataExchange@CWnd@@MAEXPAVCDataExchange@@@Z PROC	; CWnd::DoDataExchange, COMDAT
; _this$ = ecx

; 561  : 	{ } // default does nothing

  00000	c2 04 00	 ret	 4
?DoDataExchange@CWnd@@MAEXPAVCDataExchange@@@Z ENDP	; CWnd::DoDataExchange
_TEXT	ENDS
; Function compile flags: /Ogtp
; File C:\Program Files (x86)\Microsoft Visual Studio\2019\Community\VC\Tools\MSVC\14.29.30133\atlmfc\include\afx.inl
;	COMDAT ?Dump@CObject@@UBEXAAVCDumpContext@@@Z
_TEXT	SEGMENT
___formal$ = 8						; size = 4
?Dump@CObject@@UBEXAAVCDumpContext@@@Z PROC		; CObject::Dump, COMDAT
; _this$ = ecx

; 122  : 	{ /* no dumping in release builds */ }

  00000	c2 04 00	 ret	 4
?Dump@CObject@@UBEXAAVCDumpContext@@@Z ENDP		; CObject::Dump
_TEXT	ENDS
; Function compile flags: /Ogtp
; File C:\Program Files (x86)\Microsoft Visual Studio\2019\Community\VC\Tools\MSVC\14.29.30133\atlmfc\include\afx.inl
;	COMDAT ?AssertValid@CObject@@UBEXXZ
_TEXT	SEGMENT
?AssertValid@CObject@@UBEXXZ PROC			; CObject::AssertValid, COMDAT
; _this$ = ecx

; 120  : 	{ /* no asserts in release builds */ }

  00000	c2 00 00	 ret	 0
?AssertValid@CObject@@UBEXXZ ENDP			; CObject::AssertValid
_TEXT	ENDS
; Function compile flags: /Ogtp
; File C:\Program Files (x86)\Microsoft Visual Studio\2019\Community\VC\Tools\MSVC\14.29.30133\atlmfc\include\afx.inl
;	COMDAT ?Serialize@CObject@@UAEXAAVCArchive@@@Z
_TEXT	SEGMENT
___formal$ = 8						; size = 4
?Serialize@CObject@@UAEXAAVCArchive@@@Z PROC		; CObject::Serialize, COMDAT
; _this$ = ecx

; 106  : 	{ /* CObject does not serialize anything by default */ }

  00000	c2 04 00	 ret	 4
?Serialize@CObject@@UAEXAAVCArchive@@@Z ENDP		; CObject::Serialize
_TEXT	ENDS
; Function compile flags: /Ogtp
; File C:\Program Files (x86)\Microsoft Visual Studio\2019\Community\VC\Tools\MSVC\14.29.30133\atlmfc\include\afx.inl
;	COMDAT ??3CObject@@SGXPAX@Z
_TEXT	SEGMENT
_p$ = 8							; size = 4
??3CObject@@SGXPAX@Z PROC				; CObject::operator delete, COMDAT

; 112  : 	{ ::operator delete(p); }

  00000	55		 push	 ebp
  00001	8b ec		 mov	 ebp, esp
  00003	ff 75 08	 push	 DWORD PTR _p$[ebp]
  00006	e8 00 00 00 00	 call	 ??3@YAXPAX@Z		; operator delete
  0000b	83 c4 04	 add	 esp, 4
  0000e	5d		 pop	 ebp
  0000f	c2 04 00	 ret	 4
??3CObject@@SGXPAX@Z ENDP				; CObject::operator delete
_TEXT	ENDS
; Function compile flags: /Ogtp
; File D:\git\src\IBK\IBK_DRFN\ProjSrc\SrcChartEx\ChartAddIn\ChartPatternAddIn\Control\HelpHtmlCtrl.cpp
;	COMDAT ?__empty_global_delete@@YAXPAXI@Z
_TEXT	SEGMENT
___formal$ = 8						; size = 4
___formal$ = 12						; size = 4
?__empty_global_delete@@YAXPAXI@Z PROC			; __empty_global_delete, COMDAT

  00000	c2 00 00	 ret	 0
?__empty_global_delete@@YAXPAXI@Z ENDP			; __empty_global_delete
_TEXT	ENDS
; Function compile flags: /Ogtp
; File D:\git\src\IBK\IBK_DRFN\ProjSrc\SrcChartEx\ChartAddIn\ChartPatternAddIn\Control\HelpHtmlCtrl.cpp
;	COMDAT ?__empty_global_delete@@YAXPAX@Z
_TEXT	SEGMENT
___formal$ = 8						; size = 4
?__empty_global_delete@@YAXPAX@Z PROC			; __empty_global_delete, COMDAT

  00000	c2 00 00	 ret	 0
?__empty_global_delete@@YAXPAX@Z ENDP			; __empty_global_delete
_TEXT	ENDS
END
