; Listing generated by Microsoft (R) Optimizing Compiler Version 19.29.30145.0 

	TITLE	D:\git\src\IBK\IBK_DRFN\#DRfn-CS\_Obj\ChartPatternAddin\Label.obj
	.686P
	.XMM
	include listing.inc
	.model	flat

INCLUDELIB MSVCRT
INCLUDELIB OLDNAMES

PUBLIC	??_H@YGXPAXIIP6EPAX0@Z@Z			; `vector constructor iterator'
PUBLIC	?__empty_global_delete@@YAXPAX@Z		; __empty_global_delete
PUBLIC	?__empty_global_delete@@YAXPAXI@Z		; __empty_global_delete
PUBLIC	??1CObject@@UAE@XZ				; CObject::~CObject
PUBLIC	??3CObject@@SGXPAX@Z				; CObject::operator delete
PUBLIC	?Serialize@CObject@@UAEXAAVCArchive@@@Z		; CObject::Serialize
PUBLIC	?AssertValid@CObject@@UBEXXZ			; CObject::AssertValid
PUBLIC	?Dump@CObject@@UBEXAAVCDumpContext@@@Z		; CObject::Dump
PUBLIC	??0CPoint@@QAE@XZ				; CPoint::CPoint
PUBLIC	??1CGdiObject@@UAE@XZ				; CGdiObject::~CGdiObject
PUBLIC	??_GCGdiObject@@UAEPAXI@Z			; CGdiObject::`scalar deleting destructor'
PUBLIC	??1CPen@@UAE@XZ					; CPen::~CPen
PUBLIC	??_GCPen@@UAEPAXI@Z				; CPen::`scalar deleting destructor'
PUBLIC	??1CBrush@@UAE@XZ				; CBrush::~CBrush
PUBLIC	??_GCBrush@@UAEPAXI@Z				; CBrush::`scalar deleting destructor'
PUBLIC	??1CFont@@UAE@XZ				; CFont::~CFont
PUBLIC	??_GCFont@@UAEPAXI@Z				; CFont::`scalar deleting destructor'
PUBLIC	??1CBitmap@@UAE@XZ				; CBitmap::~CBitmap
PUBLIC	??_GCBitmap@@UAEPAXI@Z				; CBitmap::`scalar deleting destructor'
PUBLIC	??1CRgn@@UAE@XZ					; CRgn::~CRgn
PUBLIC	??_GCRgn@@UAEPAXI@Z				; CRgn::`scalar deleting destructor'
PUBLIC	?DoDataExchange@CWnd@@MAEXPAVCDataExchange@@@Z	; CWnd::DoDataExchange
PUBLIC	?BeginModalState@CWnd@@UAEXXZ			; CWnd::BeginModalState
PUBLIC	?EndModalState@CWnd@@UAEXXZ			; CWnd::EndModalState
PUBLIC	??_GCStatic@@UAEPAXI@Z				; CStatic::`scalar deleting destructor'
PUBLIC	??0CLabel@@QAE@XZ				; CLabel::CLabel
PUBLIC	?SetBorderColor@CLabel@@UAEAAV1@KH@Z		; CLabel::SetBorderColor
PUBLIC	?SetBkColor@CLabel@@UAEAAV1@KKW4BackFillMode@1@@Z ; CLabel::SetBkColor
PUBLIC	?SetTextColor@CLabel@@UAEAAV1@K@Z		; CLabel::SetTextColor
PUBLIC	?SetText@CLabel@@UAEAAV1@ABV?$CStringT@DV?$StrTraitMFC_DLL@DV?$ChTraitsCRT@D@ATL@@@@@ATL@@@Z ; CLabel::SetText
PUBLIC	?SetFontBold@CLabel@@UAEAAV1@H@Z		; CLabel::SetFontBold
PUBLIC	?SetFontName@CLabel@@UAEAAV1@ABV?$CStringT@DV?$StrTraitMFC_DLL@DV?$ChTraitsCRT@D@ATL@@@@@ATL@@E@Z ; CLabel::SetFontName
PUBLIC	?SetFontUnderline@CLabel@@UAEAAV1@H@Z		; CLabel::SetFontUnderline
PUBLIC	?SetFontItalic@CLabel@@UAEAAV1@H@Z		; CLabel::SetFontItalic
PUBLIC	?SetFontSize@CLabel@@UAEAAV1@H@Z		; CLabel::SetFontSize
PUBLIC	?SetSunken@CLabel@@UAEAAV1@H@Z			; CLabel::SetSunken
PUBLIC	?SetBorder@CLabel@@UAEAAV1@H@Z			; CLabel::SetBorder
PUBLIC	?SetTransparent@CLabel@@UAEAAV1@H@Z		; CLabel::SetTransparent
PUBLIC	?FlashText@CLabel@@UAEAAV1@H@Z			; CLabel::FlashText
PUBLIC	?FlashBackground@CLabel@@UAEAAV1@H@Z		; CLabel::FlashBackground
PUBLIC	?SetLink@CLabel@@UAEAAV1@HH@Z			; CLabel::SetLink
PUBLIC	?SetLinkCursor@CLabel@@UAEAAV1@PAUHICON__@@@Z	; CLabel::SetLinkCursor
PUBLIC	?SetFont3D@CLabel@@UAEAAV1@HW4Type3D@1@@Z	; CLabel::SetFont3D
PUBLIC	?SetRotationAngle@CLabel@@UAEAAV1@IH@Z		; CLabel::SetRotationAngle
PUBLIC	?SetText3DHiliteColor@CLabel@@UAEAAV1@K@Z	; CLabel::SetText3DHiliteColor
PUBLIC	?UpdateSurface@CLabel@@IAEXXZ			; CLabel::UpdateSurface
PUBLIC	?ReconstructFont@CLabel@@IAEXXZ			; CLabel::ReconstructFont
PUBLIC	?DrawGradientFill@CLabel@@IAEXPAVCDC@@PAVCRect@@KKH@Z ; CLabel::DrawGradientFill
PUBLIC	?PreSubclassWindow@CLabel@@MAEXXZ		; CLabel::PreSubclassWindow
PUBLIC	?PreCreateWindow@CLabel@@MAEHAAUtagCREATESTRUCTA@@@Z ; CLabel::PreCreateWindow
PUBLIC	?SignDraw@CLabel@@QAEHPAVCWnd@@H@Z		; CLabel::SignDraw
PUBLIC	??1CLabel@@UAE@XZ				; CLabel::~CLabel
PUBLIC	?OnTimer@CLabel@@IAEXI@Z			; CLabel::OnTimer
PUBLIC	?OnLButtonUp@CLabel@@IAEXIVCPoint@@@Z		; CLabel::OnLButtonUp
PUBLIC	?OnSetCursor@CLabel@@IAEHPAVCWnd@@II@Z		; CLabel::OnSetCursor
PUBLIC	?OnSysColorChange@CLabel@@IAEXXZ		; CLabel::OnSysColorChange
PUBLIC	?OnPaint@CLabel@@IAEXXZ				; CLabel::OnPaint
PUBLIC	?GetThisMessageMap@CLabel@@KGPBUAFX_MSGMAP@@XZ	; CLabel::GetThisMessageMap
PUBLIC	?GetMessageMap@CLabel@@MBEPBUAFX_MSGMAP@@XZ	; CLabel::GetMessageMap
PUBLIC	??_GCLabel@@UAEPAXI@Z				; CLabel::`scalar deleting destructor'
PUBLIC	??_R0PAVCException@@@8				; CException * `RTTI Type Descriptor'
PUBLIC	??_7CGdiObject@@6B@				; CGdiObject::`vftable'
PUBLIC	??_7CPen@@6B@					; CPen::`vftable'
PUBLIC	??_7CBrush@@6B@					; CBrush::`vftable'
PUBLIC	??_7CFont@@6B@					; CFont::`vftable'
PUBLIC	??_7CBitmap@@6B@				; CBitmap::`vftable'
PUBLIC	??_7CRgn@@6B@					; CRgn::`vftable'
PUBLIC	??_7CStatic@@6B@				; CStatic::`vftable'
PUBLIC	??_C@_0HD@JJCHHHNK@C?3?2Program?5Files?5?$CIx86?$CJ?2Microsof@ ; `string'
PUBLIC	??_C@_0BP@OIEOKIDM@Exception?5thrown?5in?5destructor@ ; `string'
PUBLIC	??_C@_0BB@HBOOMJBF@?$CFTs?5?$CI?$CFTs?3?$CFd?$CJ?6?$CFTs@ ; `string'
PUBLIC	??_C@_0N@OMEMOKLE@?$CFTs?5?$CI?$CFTs?3?$CFd?$CJ@ ; `string'
PUBLIC	??_R0?AVCObject@@@8				; CObject `RTTI Type Descriptor'
PUBLIC	??_R3CObject@@8					; CObject::`RTTI Class Hierarchy Descriptor'
PUBLIC	??_R2CObject@@8					; CObject::`RTTI Base Class Array'
PUBLIC	??_R1A@?0A@EA@CObject@@8			; CObject::`RTTI Base Class Descriptor at (0,-1,0,64)'
PUBLIC	??_R4CGdiObject@@6B@				; CGdiObject::`RTTI Complete Object Locator'
PUBLIC	??_R0?AVCGdiObject@@@8				; CGdiObject `RTTI Type Descriptor'
PUBLIC	??_R3CGdiObject@@8				; CGdiObject::`RTTI Class Hierarchy Descriptor'
PUBLIC	??_R2CGdiObject@@8				; CGdiObject::`RTTI Base Class Array'
PUBLIC	??_R1A@?0A@EA@CGdiObject@@8			; CGdiObject::`RTTI Base Class Descriptor at (0,-1,0,64)'
PUBLIC	??_R4CPen@@6B@					; CPen::`RTTI Complete Object Locator'
PUBLIC	??_R0?AVCPen@@@8				; CPen `RTTI Type Descriptor'
PUBLIC	??_R3CPen@@8					; CPen::`RTTI Class Hierarchy Descriptor'
PUBLIC	??_R2CPen@@8					; CPen::`RTTI Base Class Array'
PUBLIC	??_R1A@?0A@EA@CPen@@8				; CPen::`RTTI Base Class Descriptor at (0,-1,0,64)'
PUBLIC	??_R4CBrush@@6B@				; CBrush::`RTTI Complete Object Locator'
PUBLIC	??_R0?AVCBrush@@@8				; CBrush `RTTI Type Descriptor'
PUBLIC	??_R3CBrush@@8					; CBrush::`RTTI Class Hierarchy Descriptor'
PUBLIC	??_R2CBrush@@8					; CBrush::`RTTI Base Class Array'
PUBLIC	??_R1A@?0A@EA@CBrush@@8				; CBrush::`RTTI Base Class Descriptor at (0,-1,0,64)'
PUBLIC	??_R4CFont@@6B@					; CFont::`RTTI Complete Object Locator'
PUBLIC	??_R0?AVCFont@@@8				; CFont `RTTI Type Descriptor'
PUBLIC	??_R3CFont@@8					; CFont::`RTTI Class Hierarchy Descriptor'
PUBLIC	??_R2CFont@@8					; CFont::`RTTI Base Class Array'
PUBLIC	??_R1A@?0A@EA@CFont@@8				; CFont::`RTTI Base Class Descriptor at (0,-1,0,64)'
PUBLIC	??_R4CBitmap@@6B@				; CBitmap::`RTTI Complete Object Locator'
PUBLIC	??_R0?AVCBitmap@@@8				; CBitmap `RTTI Type Descriptor'
PUBLIC	??_R3CBitmap@@8					; CBitmap::`RTTI Class Hierarchy Descriptor'
PUBLIC	??_R2CBitmap@@8					; CBitmap::`RTTI Base Class Array'
PUBLIC	??_R1A@?0A@EA@CBitmap@@8			; CBitmap::`RTTI Base Class Descriptor at (0,-1,0,64)'
PUBLIC	??_R4CRgn@@6B@					; CRgn::`RTTI Complete Object Locator'
PUBLIC	??_R0?AVCRgn@@@8				; CRgn `RTTI Type Descriptor'
PUBLIC	??_R3CRgn@@8					; CRgn::`RTTI Class Hierarchy Descriptor'
PUBLIC	??_R2CRgn@@8					; CRgn::`RTTI Base Class Array'
PUBLIC	??_R1A@?0A@EA@CRgn@@8				; CRgn::`RTTI Base Class Descriptor at (0,-1,0,64)'
PUBLIC	??_R4CStatic@@6B@				; CStatic::`RTTI Complete Object Locator'
PUBLIC	??_R0?AVCStatic@@@8				; CStatic `RTTI Type Descriptor'
PUBLIC	??_R3CStatic@@8					; CStatic::`RTTI Class Hierarchy Descriptor'
PUBLIC	??_R2CStatic@@8					; CStatic::`RTTI Base Class Array'
PUBLIC	??_R1A@?0A@EA@CStatic@@8			; CStatic::`RTTI Base Class Descriptor at (0,-1,0,64)'
PUBLIC	??_R1A@?0A@EA@CWnd@@8				; CWnd::`RTTI Base Class Descriptor at (0,-1,0,64)'
PUBLIC	??_R0?AVCWnd@@@8				; CWnd `RTTI Type Descriptor'
PUBLIC	??_R3CWnd@@8					; CWnd::`RTTI Class Hierarchy Descriptor'
PUBLIC	??_R2CWnd@@8					; CWnd::`RTTI Base Class Array'
PUBLIC	??_R1A@?0A@EA@CCmdTarget@@8			; CCmdTarget::`RTTI Base Class Descriptor at (0,-1,0,64)'
PUBLIC	??_R0?AVCCmdTarget@@@8				; CCmdTarget `RTTI Type Descriptor'
PUBLIC	??_R3CCmdTarget@@8				; CCmdTarget::`RTTI Class Hierarchy Descriptor'
PUBLIC	??_R2CCmdTarget@@8				; CCmdTarget::`RTTI Base Class Array'
PUBLIC	??_7CLabel@@6B@					; CLabel::`vftable'
PUBLIC	??_C@_02PCIJFNDE@?$AN?6@			; `string'
PUBLIC	??_R4CLabel@@6B@				; CLabel::`RTTI Complete Object Locator'
PUBLIC	??_R0?AVCLabel@@@8				; CLabel `RTTI Type Descriptor'
PUBLIC	??_R3CLabel@@8					; CLabel::`RTTI Class Hierarchy Descriptor'
PUBLIC	??_R2CLabel@@8					; CLabel::`RTTI Base Class Array'
PUBLIC	??_R1A@?0A@EA@CLabel@@8				; CLabel::`RTTI Base Class Descriptor at (0,-1,0,64)'
EXTRN	??2@YAPAXI@Z:PROC				; operator new
EXTRN	??3@YAXPAX@Z:PROC				; operator delete
EXTRN	?__global_delete@@YAXPAXI@Z:PROC		; __global_delete
EXTRN	___std_terminate:PROC
EXTRN	__imp__BitBlt@36:PROC
EXTRN	__imp__CreateCompatibleBitmap@12:PROC
EXTRN	__imp__CreateCompatibleDC@4:PROC
EXTRN	__imp__CreateFontIndirectA@4:PROC
EXTRN	__imp__CreatePen@12:PROC
EXTRN	__imp__CreateSolidBrush@4:PROC
EXTRN	__imp__DeleteObject@4:PROC
EXTRN	__imp__FillRgn@12:PROC
EXTRN	__imp__GetViewportOrgEx@8:PROC
EXTRN	__imp__Rectangle@20:PROC
EXTRN	__imp__GetObjectA@12:PROC
EXTRN	__imp__CreatePolygonRgn@12:PROC
EXTRN	__imp__SetViewportOrgEx@16:PROC
EXTRN	__imp__SendMessageA@16:PROC
EXTRN	__imp__SetTimer@16:PROC
EXTRN	__imp__KillTimer@8:PROC
EXTRN	__imp__EnableWindow@8:PROC
EXTRN	__imp__UpdateWindow@4:PROC
EXTRN	__imp__InvalidateRect@12:PROC
EXTRN	__imp__RedrawWindow@16:PROC
EXTRN	__imp__GetClientRect@8:PROC
EXTRN	__imp__GetWindowRect@8:PROC
EXTRN	__imp__SetCursor@4:PROC
EXTRN	__imp__GetSysColor@4:PROC
EXTRN	__imp__FillRect@12:PROC
EXTRN	__imp__OffsetRect@12:PROC
EXTRN	__imp__GetParent@4:PROC
EXTRN	__imp_??0?$CStringT@DV?$StrTraitMFC_DLL@DV?$ChTraitsCRT@D@ATL@@@@@ATL@@QAE@XZ:PROC
EXTRN	__imp_??1?$CStringT@DV?$StrTraitMFC_DLL@DV?$ChTraitsCRT@D@ATL@@@@@ATL@@QAE@XZ:PROC
EXTRN	__imp_?Find@?$CStringT@DV?$StrTraitMFC_DLL@DV?$ChTraitsCRT@D@ATL@@@@@ATL@@QBEHPBDH@Z:PROC
EXTRN	__imp_?Format@?$CStringT@DV?$StrTraitMFC_DLL@DV?$ChTraitsCRT@D@ATL@@@@@ATL@@QAAXPBDZZ:PROC
EXTRN	?GetRuntimeClass@CGdiObject@@UBEPAUCRuntimeClass@@XZ:PROC ; CGdiObject::GetRuntimeClass
EXTRN	?FromHandle@CGdiObject@@SGPAV1@PAX@Z:PROC	; CGdiObject::FromHandle
EXTRN	?Attach@CGdiObject@@QAEHPAX@Z:PROC		; CGdiObject::Attach
EXTRN	?Detach@CGdiObject@@QAEPAXXZ:PROC		; CGdiObject::Detach
EXTRN	?DeleteObject@CGdiObject@@QAEHXZ:PROC		; CGdiObject::DeleteObject
EXTRN	??_ECGdiObject@@UAEPAXI@Z:PROC			; CGdiObject::`vector deleting destructor'
EXTRN	?GetRuntimeClass@CPen@@UBEPAUCRuntimeClass@@XZ:PROC ; CPen::GetRuntimeClass
EXTRN	??_ECPen@@UAEPAXI@Z:PROC			; CPen::`vector deleting destructor'
EXTRN	?GetRuntimeClass@CBrush@@UBEPAUCRuntimeClass@@XZ:PROC ; CBrush::GetRuntimeClass
EXTRN	??0CBrush@@QAE@K@Z:PROC				; CBrush::CBrush
EXTRN	??_ECBrush@@UAEPAXI@Z:PROC			; CBrush::`vector deleting destructor'
EXTRN	?GetRuntimeClass@CFont@@UBEPAUCRuntimeClass@@XZ:PROC ; CFont::GetRuntimeClass
EXTRN	?CreatePointFont@CFont@@QAEHHPBDPAVCDC@@@Z:PROC	; CFont::CreatePointFont
EXTRN	??_ECFont@@UAEPAXI@Z:PROC			; CFont::`vector deleting destructor'
EXTRN	?GetRuntimeClass@CBitmap@@UBEPAUCRuntimeClass@@XZ:PROC ; CBitmap::GetRuntimeClass
EXTRN	??_ECBitmap@@UAEPAXI@Z:PROC			; CBitmap::`vector deleting destructor'
EXTRN	?GetRuntimeClass@CRgn@@UBEPAUCRuntimeClass@@XZ:PROC ; CRgn::GetRuntimeClass
EXTRN	??_ECRgn@@UAEPAXI@Z:PROC			; CRgn::`vector deleting destructor'
EXTRN	?Attach@CDC@@QAEHPAUHDC__@@@Z:PROC		; CDC::Attach
EXTRN	??0CDC@@QAE@XZ:PROC				; CDC::CDC
EXTRN	?DeleteDC@CDC@@QAEHXZ:PROC			; CDC::DeleteDC
EXTRN	?SelectObject@CDC@@QAEPAVCPen@@PAV2@@Z:PROC	; CDC::SelectObject
EXTRN	?SelectObject@CDC@@QAEPAVCBrush@@PAV2@@Z:PROC	; CDC::SelectObject
EXTRN	?SetBkMode@CDC@@QAEHH@Z:PROC			; CDC::SetBkMode
EXTRN	?MoveTo@CDC@@QAE?AVCPoint@@HH@Z:PROC		; CDC::MoveTo
EXTRN	?LineTo@CDC@@QAEHHH@Z:PROC			; CDC::LineTo
EXTRN	?SetTextAlign@CDC@@QAEII@Z:PROC			; CDC::SetTextAlign
EXTRN	?SelectGdiObject@CDC@@KGPAVCGdiObject@@PAUHDC__@@PAX@Z:PROC ; CDC::SelectGdiObject
EXTRN	??0CPaintDC@@QAE@PAVCWnd@@@Z:PROC		; CPaintDC::CPaintDC
EXTRN	??1CPaintDC@@UAE@XZ:PROC			; CPaintDC::~CPaintDC
EXTRN	??0CClientDC@@QAE@PAVCWnd@@@Z:PROC		; CClientDC::CClientDC
EXTRN	??1CClientDC@@UAE@XZ:PROC			; CClientDC::~CClientDC
EXTRN	?OnCmdMsg@CCmdTarget@@UAEHIHPAXPAUAFX_CMDHANDLERINFO@@@Z:PROC ; CCmdTarget::OnCmdMsg
EXTRN	?IsInvokeAllowed@CCmdTarget@@UAEHJ@Z:PROC	; CCmdTarget::IsInvokeAllowed
EXTRN	?GetDispatchIID@CCmdTarget@@UAEHPAU_GUID@@@Z:PROC ; CCmdTarget::GetDispatchIID
EXTRN	?GetTypeInfoCount@CCmdTarget@@UAEIXZ:PROC	; CCmdTarget::GetTypeInfoCount
EXTRN	?GetTypeLibCache@CCmdTarget@@UAEPAVCTypeLibCache@@XZ:PROC ; CCmdTarget::GetTypeLibCache
EXTRN	?GetTypeLib@CCmdTarget@@UAEJKPAPAUITypeLib@@@Z:PROC ; CCmdTarget::GetTypeLib
EXTRN	?GetCommandMap@CCmdTarget@@MBEPBUAFX_OLECMDMAP@@XZ:PROC ; CCmdTarget::GetCommandMap
EXTRN	?GetDispatchMap@CCmdTarget@@MBEPBUAFX_DISPMAP@@XZ:PROC ; CCmdTarget::GetDispatchMap
EXTRN	?GetConnectionMap@CCmdTarget@@MBEPBUAFX_CONNECTIONMAP@@XZ:PROC ; CCmdTarget::GetConnectionMap
EXTRN	?GetEventSinkMap@CCmdTarget@@MBEPBUAFX_EVENTSINKMAP@@XZ:PROC ; CCmdTarget::GetEventSinkMap
EXTRN	?OnCreateAggregates@CCmdTarget@@UAEHXZ:PROC	; CCmdTarget::OnCreateAggregates
EXTRN	?GetInterfaceHook@CCmdTarget@@UAEPAUIUnknown@@PBX@Z:PROC ; CCmdTarget::GetInterfaceHook
EXTRN	?GetExtraConnectionPoints@CCmdTarget@@MAEHPAVCPtrArray@@@Z:PROC ; CCmdTarget::GetExtraConnectionPoints
EXTRN	?GetConnectionHook@CCmdTarget@@MAEPAUIConnectionPoint@@ABU_GUID@@@Z:PROC ; CCmdTarget::GetConnectionHook
EXTRN	?GetStyle@CWnd@@QBEKXZ:PROC			; CWnd::GetStyle
EXTRN	?ModifyStyle@CWnd@@QAEHKKI@Z:PROC		; CWnd::ModifyStyle
EXTRN	?ModifyStyleEx@CWnd@@QAEHKKI@Z:PROC		; CWnd::ModifyStyleEx
EXTRN	??0CWnd@@QAE@XZ:PROC				; CWnd::CWnd
EXTRN	?FromHandle@CWnd@@SGPAV1@PAUHWND__@@@Z:PROC	; CWnd::FromHandle
EXTRN	?PreSubclassWindow@CWnd@@UAEXXZ:PROC		; CWnd::PreSubclassWindow
EXTRN	?Create@CWnd@@UAEHPBD0KABUtagRECT@@PAV1@IPAUCCreateContext@@@Z:PROC ; CWnd::Create
EXTRN	?CreateEx@CWnd@@UAEHKPBD0KHHHHPAUHWND__@@PAUHMENU__@@PAX@Z:PROC ; CWnd::CreateEx
EXTRN	?CreateEx@CWnd@@UAEHKPBD0KABUtagRECT@@PAV1@IPAX@Z:PROC ; CWnd::CreateEx
EXTRN	?DestroyWindow@CWnd@@UAEHXZ:PROC		; CWnd::DestroyWindow
EXTRN	?PreCreateWindow@CWnd@@UAEHAAUtagCREATESTRUCTA@@@Z:PROC ; CWnd::PreCreateWindow
EXTRN	?CalcWindowRect@CWnd@@UAEXPAUtagRECT@@I@Z:PROC	; CWnd::CalcWindowRect
EXTRN	?GetDlgCtrlID@CWnd@@QBEHXZ:PROC			; CWnd::GetDlgCtrlID
EXTRN	?SetWindowTextA@CWnd@@QAEXPBD@Z:PROC		; CWnd::SetWindowTextA
EXTRN	?GetWindowTextA@CWnd@@QBEXAAV?$CStringT@DV?$StrTraitMFC_DLL@DV?$ChTraitsCRT@D@ATL@@@@@ATL@@@Z:PROC ; CWnd::GetWindowTextA
EXTRN	?GetMenu@CWnd@@UBEPAVCMenu@@XZ:PROC		; CWnd::GetMenu
EXTRN	?SetMenu@CWnd@@UAEHPAVCMenu@@@Z:PROC		; CWnd::SetMenu
EXTRN	?ScreenToClient@CWnd@@QBEXPAUtagRECT@@@Z:PROC	; CWnd::ScreenToClient
EXTRN	?OnToolHitTest@CWnd@@UBEHVCPoint@@PAUtagTOOLINFOA@@@Z:PROC ; CWnd::OnToolHitTest
EXTRN	?GetScrollBarCtrl@CWnd@@UBEPAVCScrollBar@@H@Z:PROC ; CWnd::GetScrollBarCtrl
EXTRN	?WinHelpA@CWnd@@UAEXKI@Z:PROC			; CWnd::WinHelpA
EXTRN	?HtmlHelpA@CWnd@@UAEXKI@Z:PROC			; CWnd::HtmlHelpA
EXTRN	?WinHelpInternal@CWnd@@UAEXKI@Z:PROC		; CWnd::WinHelpInternal
EXTRN	?ContinueModal@CWnd@@UAEHXZ:PROC		; CWnd::ContinueModal
EXTRN	?EndModalLoop@CWnd@@UAEXH@Z:PROC		; CWnd::EndModalLoop
EXTRN	?OnDrawIconicThumbnailOrLivePreview@CWnd@@UAEXAAVCDC@@VCRect@@VCSize@@HAAH@Z:PROC ; CWnd::OnDrawIconicThumbnailOrLivePreview
EXTRN	?GetInterfaceMap@CWnd@@MBEPBUAFX_INTERFACEMAP@@XZ:PROC ; CWnd::GetInterfaceMap
EXTRN	?EnsureStdObj@CWnd@@UAEJXZ:PROC			; CWnd::EnsureStdObj
EXTRN	?get_accParent@CWnd@@UAEJPAPAUIDispatch@@@Z:PROC ; CWnd::get_accParent
EXTRN	?get_accChildCount@CWnd@@UAEJPAJ@Z:PROC		; CWnd::get_accChildCount
EXTRN	?get_accChild@CWnd@@UAEJUtagVARIANT@@PAPAUIDispatch@@@Z:PROC ; CWnd::get_accChild
EXTRN	?get_accName@CWnd@@UAEJUtagVARIANT@@PAPA_W@Z:PROC ; CWnd::get_accName
EXTRN	?get_accValue@CWnd@@UAEJUtagVARIANT@@PAPA_W@Z:PROC ; CWnd::get_accValue
EXTRN	?get_accDescription@CWnd@@UAEJUtagVARIANT@@PAPA_W@Z:PROC ; CWnd::get_accDescription
EXTRN	?get_accRole@CWnd@@UAEJUtagVARIANT@@PAU2@@Z:PROC ; CWnd::get_accRole
EXTRN	?get_accState@CWnd@@UAEJUtagVARIANT@@PAU2@@Z:PROC ; CWnd::get_accState
EXTRN	?get_accHelp@CWnd@@UAEJUtagVARIANT@@PAPA_W@Z:PROC ; CWnd::get_accHelp
EXTRN	?get_accHelpTopic@CWnd@@UAEJPAPA_WUtagVARIANT@@PAJ@Z:PROC ; CWnd::get_accHelpTopic
EXTRN	?get_accKeyboardShortcut@CWnd@@UAEJUtagVARIANT@@PAPA_W@Z:PROC ; CWnd::get_accKeyboardShortcut
EXTRN	?get_accFocus@CWnd@@UAEJPAUtagVARIANT@@@Z:PROC	; CWnd::get_accFocus
EXTRN	?get_accSelection@CWnd@@UAEJPAUtagVARIANT@@@Z:PROC ; CWnd::get_accSelection
EXTRN	?get_accDefaultAction@CWnd@@UAEJUtagVARIANT@@PAPA_W@Z:PROC ; CWnd::get_accDefaultAction
EXTRN	?accSelect@CWnd@@UAEJJUtagVARIANT@@@Z:PROC	; CWnd::accSelect
EXTRN	?accLocation@CWnd@@UAEJPAJ000UtagVARIANT@@@Z:PROC ; CWnd::accLocation
EXTRN	?accNavigate@CWnd@@UAEJJUtagVARIANT@@PAU2@@Z:PROC ; CWnd::accNavigate
EXTRN	?accHitTest@CWnd@@UAEJJJPAUtagVARIANT@@@Z:PROC	; CWnd::accHitTest
EXTRN	?accDoDefaultAction@CWnd@@UAEJUtagVARIANT@@@Z:PROC ; CWnd::accDoDefaultAction
EXTRN	?put_accName@CWnd@@UAEJUtagVARIANT@@PA_W@Z:PROC	; CWnd::put_accName
EXTRN	?put_accValue@CWnd@@UAEJUtagVARIANT@@PA_W@Z:PROC ; CWnd::put_accValue
EXTRN	?SetProxy@CWnd@@UAEJPAUIAccessibleProxy@@@Z:PROC ; CWnd::SetProxy
EXTRN	?CreateAccessibleProxy@CWnd@@UAEJIJPAJ@Z:PROC	; CWnd::CreateAccessibleProxy
EXTRN	?OnCommand@CWnd@@MAEHIJ@Z:PROC			; CWnd::OnCommand
EXTRN	?OnNotify@CWnd@@MAEHIJPAJ@Z:PROC		; CWnd::OnNotify
EXTRN	?GetSuperWndProcAddr@CWnd@@MAEPAP6GJPAUHWND__@@IIJ@ZXZ:PROC ; CWnd::GetSuperWndProcAddr
EXTRN	?PreTranslateMessage@CWnd@@UAEHPAUtagMSG@@@Z:PROC ; CWnd::PreTranslateMessage
EXTRN	?OnAmbientProperty@CWnd@@UAEHPAVCOleControlSite@@JPAUtagVARIANT@@@Z:PROC ; CWnd::OnAmbientProperty
EXTRN	?WindowProc@CWnd@@MAEJIIJ@Z:PROC		; CWnd::WindowProc
EXTRN	?OnWndMsg@CWnd@@MAEHIIJPAJ@Z:PROC		; CWnd::OnWndMsg
EXTRN	?Default@CWnd@@IAEJXZ:PROC			; CWnd::Default
EXTRN	?DefWindowProcA@CWnd@@MAEJIIJ@Z:PROC		; CWnd::DefWindowProcA
EXTRN	?PostNcDestroy@CWnd@@MAEXXZ:PROC		; CWnd::PostNcDestroy
EXTRN	?OnTouchInputs@CWnd@@MAEHIPAUtagTOUCHINPUT@@@Z:PROC ; CWnd::OnTouchInputs
EXTRN	?OnTouchInput@CWnd@@MAEHVCPoint@@HHPAUtagTOUCHINPUT@@@Z:PROC ; CWnd::OnTouchInput
EXTRN	?GetGestureStatus@CWnd@@MAEKVCPoint@@@Z:PROC	; CWnd::GetGestureStatus
EXTRN	?OnGestureZoom@CWnd@@MAEHVCPoint@@J@Z:PROC	; CWnd::OnGestureZoom
EXTRN	?OnGesturePan@CWnd@@MAEHVCPoint@@0@Z:PROC	; CWnd::OnGesturePan
EXTRN	?OnGestureRotate@CWnd@@MAEHVCPoint@@N@Z:PROC	; CWnd::OnGestureRotate
EXTRN	?OnGestureTwoFingerTap@CWnd@@MAEHVCPoint@@@Z:PROC ; CWnd::OnGestureTwoFingerTap
EXTRN	?OnGesturePressAndTap@CWnd@@MAEHVCPoint@@J@Z:PROC ; CWnd::OnGesturePressAndTap
EXTRN	?ResizeDynamicLayout@CWnd@@MAEXXZ:PROC		; CWnd::ResizeDynamicLayout
EXTRN	?CheckAutoCenter@CWnd@@UAEHXZ:PROC		; CWnd::CheckAutoCenter
EXTRN	?IsFrameWnd@CWnd@@UBEHXZ:PROC			; CWnd::IsFrameWnd
EXTRN	?OnFinalRelease@CWnd@@UAEXXZ:PROC		; CWnd::OnFinalRelease
EXTRN	?CreateControlContainer@CWnd@@MAEHPAPAVCOleControlContainer@@@Z:PROC ; CWnd::CreateControlContainer
EXTRN	?CreateControlSite@CWnd@@MAEHPAVCOleControlContainer@@PAPAVCOleControlSite@@IABU_GUID@@@Z:PROC ; CWnd::CreateControlSite
EXTRN	?SetOccDialogInfo@CWnd@@MAEHPAU_AFX_OCC_DIALOG_INFO@@@Z:PROC ; CWnd::SetOccDialogInfo
EXTRN	?GetOccDialogInfo@CWnd@@MAEPAU_AFX_OCC_DIALOG_INFO@@XZ:PROC ; CWnd::GetOccDialogInfo
EXTRN	?GetThisMessageMap@CWnd@@KGPBUAFX_MSGMAP@@XZ:PROC ; CWnd::GetThisMessageMap
EXTRN	?GetMessageMap@CWnd@@MBEPBUAFX_MSGMAP@@XZ:PROC	; CWnd::GetMessageMap
EXTRN	?GetRuntimeClass@CStatic@@UBEPAUCRuntimeClass@@XZ:PROC ; CStatic::GetRuntimeClass
EXTRN	?Create@CStatic@@UAEHPBDKABUtagRECT@@PAVCWnd@@I@Z:PROC ; CStatic::Create
EXTRN	?DrawItem@CStatic@@UAEXPAUtagDRAWITEMSTRUCT@@@Z:PROC ; CStatic::DrawItem
EXTRN	??1CStatic@@UAE@XZ:PROC				; CStatic::~CStatic
EXTRN	?OnChildNotify@CStatic@@MAEHIIJPAJ@Z:PROC	; CStatic::OnChildNotify
EXTRN	??_ECStatic@@UAEPAXI@Z:PROC			; CStatic::`vector deleting destructor'
EXTRN	?AfxMessageBox@@YGHPBDII@Z:PROC			; AfxMessageBox
EXTRN	??_ECLabel@@UAEPAXI@Z:PROC			; CLabel::`vector deleting destructor'
EXTRN	@__security_check_cookie@4:PROC
EXTRN	___CxxFrameHandler3:PROC
EXTRN	??_7type_info@@6B@:QWORD			; type_info::`vftable'
EXTRN	___security_cookie:DWORD
;	COMDAT ??_R1A@?0A@EA@CLabel@@8
rdata$r	SEGMENT
??_R1A@?0A@EA@CLabel@@8 DD FLAT:??_R0?AVCLabel@@@8	; CLabel::`RTTI Base Class Descriptor at (0,-1,0,64)'
	DD	04H
	DD	00H
	DD	0ffffffffH
	DD	00H
	DD	040H
	DD	FLAT:??_R3CLabel@@8
rdata$r	ENDS
;	COMDAT ??_R2CLabel@@8
rdata$r	SEGMENT
??_R2CLabel@@8 DD FLAT:??_R1A@?0A@EA@CLabel@@8		; CLabel::`RTTI Base Class Array'
	DD	FLAT:??_R1A@?0A@EA@CStatic@@8
	DD	FLAT:??_R1A@?0A@EA@CWnd@@8
	DD	FLAT:??_R1A@?0A@EA@CCmdTarget@@8
	DD	FLAT:??_R1A@?0A@EA@CObject@@8
rdata$r	ENDS
;	COMDAT ??_R3CLabel@@8
rdata$r	SEGMENT
??_R3CLabel@@8 DD 00H					; CLabel::`RTTI Class Hierarchy Descriptor'
	DD	00H
	DD	05H
	DD	FLAT:??_R2CLabel@@8
rdata$r	ENDS
;	COMDAT ??_R0?AVCLabel@@@8
data$rs	SEGMENT
??_R0?AVCLabel@@@8 DD FLAT:??_7type_info@@6B@		; CLabel `RTTI Type Descriptor'
	DD	00H
	DB	'.?AVCLabel@@', 00H
data$rs	ENDS
;	COMDAT ??_R4CLabel@@6B@
rdata$r	SEGMENT
??_R4CLabel@@6B@ DD 00H					; CLabel::`RTTI Complete Object Locator'
	DD	00H
	DD	00H
	DD	FLAT:??_R0?AVCLabel@@@8
	DD	FLAT:??_R3CLabel@@8
rdata$r	ENDS
;	COMDAT ??_C@_02PCIJFNDE@?$AN?6@
CONST	SEGMENT
??_C@_02PCIJFNDE@?$AN?6@ DB 0dH, 0aH, 00H		; `string'
CONST	ENDS
;	COMDAT ?messageMap@?1??GetThisMessageMap@CLabel@@KGPBUAFX_MSGMAP@@XZ@4U3@B
CONST	SEGMENT
?messageMap@?1??GetThisMessageMap@CLabel@@KGPBUAFX_MSGMAP@@XZ@4U3@B DD FLAT:?GetThisMessageMap@CWnd@@KGPBUAFX_MSGMAP@@XZ ; `CLabel::GetThisMessageMap'::`2'::messageMap
	DD	FLAT:?_messageEntries@?1??GetThisMessageMap@CLabel@@KGPBUAFX_MSGMAP@@XZ@4QBUAFX_MSGMAP_ENTRY@@B
CONST	ENDS
;	COMDAT ?_messageEntries@?1??GetThisMessageMap@CLabel@@KGPBUAFX_MSGMAP@@XZ@4QBUAFX_MSGMAP_ENTRY@@B
CONST	SEGMENT
?_messageEntries@?1??GetThisMessageMap@CLabel@@KGPBUAFX_MSGMAP@@XZ@4QBUAFX_MSGMAP_ENTRY@@B DD 0113H ; `CLabel::GetThisMessageMap'::`2'::_messageEntries
	DD	00H
	DD	00H
	DD	00H
	DD	015H
	DD	FLAT:?OnTimer@CLabel@@IAEXI@Z
	DD	0202H
	DD	00H
	DD	00H
	DD	00H
	DD	036H
	DD	FLAT:?OnLButtonUp@CLabel@@IAEXIVCPoint@@@Z
	DD	020H
	DD	00H
	DD	00H
	DD	00H
	DD	05H
	DD	FLAT:?OnSetCursor@CLabel@@IAEHPAVCWnd@@II@Z
	DD	015H
	DD	00H
	DD	00H
	DD	00H
	DD	013H
	DD	FLAT:?OnSysColorChange@CLabel@@IAEXXZ
	DD	0fH
	DD	00H
	DD	00H
	DD	00H
	DD	013H
	DD	FLAT:?OnPaint@CLabel@@IAEXXZ
	DD	00H
	DD	00H
	DD	00H
	DD	00H
	DD	00H
	DD	00H
CONST	ENDS
;	COMDAT ??_7CLabel@@6B@
CONST	SEGMENT
??_7CLabel@@6B@ DD FLAT:??_R4CLabel@@6B@		; CLabel::`vftable'
	DD	FLAT:?GetRuntimeClass@CStatic@@UBEPAUCRuntimeClass@@XZ
	DD	FLAT:??_ECLabel@@UAEPAXI@Z
	DD	FLAT:?Serialize@CObject@@UAEXAAVCArchive@@@Z
	DD	FLAT:?AssertValid@CObject@@UBEXXZ
	DD	FLAT:?Dump@CObject@@UBEXAAVCDumpContext@@@Z
	DD	FLAT:?OnCmdMsg@CCmdTarget@@UAEHIHPAXPAUAFX_CMDHANDLERINFO@@@Z
	DD	FLAT:?OnFinalRelease@CWnd@@UAEXXZ
	DD	FLAT:?IsInvokeAllowed@CCmdTarget@@UAEHJ@Z
	DD	FLAT:?GetDispatchIID@CCmdTarget@@UAEHPAU_GUID@@@Z
	DD	FLAT:?GetTypeInfoCount@CCmdTarget@@UAEIXZ
	DD	FLAT:?GetTypeLibCache@CCmdTarget@@UAEPAVCTypeLibCache@@XZ
	DD	FLAT:?GetTypeLib@CCmdTarget@@UAEJKPAPAUITypeLib@@@Z
	DD	FLAT:?GetMessageMap@CLabel@@MBEPBUAFX_MSGMAP@@XZ
	DD	FLAT:?GetCommandMap@CCmdTarget@@MBEPBUAFX_OLECMDMAP@@XZ
	DD	FLAT:?GetDispatchMap@CCmdTarget@@MBEPBUAFX_DISPMAP@@XZ
	DD	FLAT:?GetConnectionMap@CCmdTarget@@MBEPBUAFX_CONNECTIONMAP@@XZ
	DD	FLAT:?GetInterfaceMap@CWnd@@MBEPBUAFX_INTERFACEMAP@@XZ
	DD	FLAT:?GetEventSinkMap@CCmdTarget@@MBEPBUAFX_EVENTSINKMAP@@XZ
	DD	FLAT:?OnCreateAggregates@CCmdTarget@@UAEHXZ
	DD	FLAT:?GetInterfaceHook@CCmdTarget@@UAEPAUIUnknown@@PBX@Z
	DD	FLAT:?GetExtraConnectionPoints@CCmdTarget@@MAEHPAVCPtrArray@@@Z
	DD	FLAT:?GetConnectionHook@CCmdTarget@@MAEPAUIConnectionPoint@@ABU_GUID@@@Z
	DD	FLAT:?PreSubclassWindow@CLabel@@MAEXXZ
	DD	FLAT:?Create@CWnd@@UAEHPBD0KABUtagRECT@@PAV1@IPAUCCreateContext@@@Z
	DD	FLAT:?CreateEx@CWnd@@UAEHKPBD0KABUtagRECT@@PAV1@IPAX@Z
	DD	FLAT:?CreateEx@CWnd@@UAEHKPBD0KHHHHPAUHWND__@@PAUHMENU__@@PAX@Z
	DD	FLAT:?DestroyWindow@CWnd@@UAEHXZ
	DD	FLAT:?PreCreateWindow@CLabel@@MAEHAAUtagCREATESTRUCTA@@@Z
	DD	FLAT:?CalcWindowRect@CWnd@@UAEXPAUtagRECT@@I@Z
	DD	FLAT:?GetMenu@CWnd@@UBEPAVCMenu@@XZ
	DD	FLAT:?SetMenu@CWnd@@UAEHPAVCMenu@@@Z
	DD	FLAT:?OnToolHitTest@CWnd@@UBEHVCPoint@@PAUtagTOOLINFOA@@@Z
	DD	FLAT:?GetScrollBarCtrl@CWnd@@UBEPAVCScrollBar@@H@Z
	DD	FLAT:?WinHelpA@CWnd@@UAEXKI@Z
	DD	FLAT:?HtmlHelpA@CWnd@@UAEXKI@Z
	DD	FLAT:?WinHelpInternal@CWnd@@UAEXKI@Z
	DD	FLAT:?ContinueModal@CWnd@@UAEHXZ
	DD	FLAT:?EndModalLoop@CWnd@@UAEXH@Z
	DD	FLAT:?OnDrawIconicThumbnailOrLivePreview@CWnd@@UAEXAAVCDC@@VCRect@@VCSize@@HAAH@Z
	DD	FLAT:?EnsureStdObj@CWnd@@UAEJXZ
	DD	FLAT:?get_accParent@CWnd@@UAEJPAPAUIDispatch@@@Z
	DD	FLAT:?get_accChildCount@CWnd@@UAEJPAJ@Z
	DD	FLAT:?get_accChild@CWnd@@UAEJUtagVARIANT@@PAPAUIDispatch@@@Z
	DD	FLAT:?get_accName@CWnd@@UAEJUtagVARIANT@@PAPA_W@Z
	DD	FLAT:?get_accValue@CWnd@@UAEJUtagVARIANT@@PAPA_W@Z
	DD	FLAT:?get_accDescription@CWnd@@UAEJUtagVARIANT@@PAPA_W@Z
	DD	FLAT:?get_accRole@CWnd@@UAEJUtagVARIANT@@PAU2@@Z
	DD	FLAT:?get_accState@CWnd@@UAEJUtagVARIANT@@PAU2@@Z
	DD	FLAT:?get_accHelp@CWnd@@UAEJUtagVARIANT@@PAPA_W@Z
	DD	FLAT:?get_accHelpTopic@CWnd@@UAEJPAPA_WUtagVARIANT@@PAJ@Z
	DD	FLAT:?get_accKeyboardShortcut@CWnd@@UAEJUtagVARIANT@@PAPA_W@Z
	DD	FLAT:?get_accFocus@CWnd@@UAEJPAUtagVARIANT@@@Z
	DD	FLAT:?get_accSelection@CWnd@@UAEJPAUtagVARIANT@@@Z
	DD	FLAT:?get_accDefaultAction@CWnd@@UAEJUtagVARIANT@@PAPA_W@Z
	DD	FLAT:?accSelect@CWnd@@UAEJJUtagVARIANT@@@Z
	DD	FLAT:?accLocation@CWnd@@UAEJPAJ000UtagVARIANT@@@Z
	DD	FLAT:?accNavigate@CWnd@@UAEJJUtagVARIANT@@PAU2@@Z
	DD	FLAT:?accHitTest@CWnd@@UAEJJJPAUtagVARIANT@@@Z
	DD	FLAT:?accDoDefaultAction@CWnd@@UAEJUtagVARIANT@@@Z
	DD	FLAT:?put_accName@CWnd@@UAEJUtagVARIANT@@PA_W@Z
	DD	FLAT:?put_accValue@CWnd@@UAEJUtagVARIANT@@PA_W@Z
	DD	FLAT:?SetProxy@CWnd@@UAEJPAUIAccessibleProxy@@@Z
	DD	FLAT:?CreateAccessibleProxy@CWnd@@UAEJIJPAJ@Z
	DD	FLAT:?OnCommand@CWnd@@MAEHIJ@Z
	DD	FLAT:?OnNotify@CWnd@@MAEHIJPAJ@Z
	DD	FLAT:?GetSuperWndProcAddr@CWnd@@MAEPAP6GJPAUHWND__@@IIJ@ZXZ
	DD	FLAT:?DoDataExchange@CWnd@@MAEXPAVCDataExchange@@@Z
	DD	FLAT:?BeginModalState@CWnd@@UAEXXZ
	DD	FLAT:?EndModalState@CWnd@@UAEXXZ
	DD	FLAT:?PreTranslateMessage@CWnd@@UAEHPAUtagMSG@@@Z
	DD	FLAT:?OnAmbientProperty@CWnd@@UAEHPAVCOleControlSite@@JPAUtagVARIANT@@@Z
	DD	FLAT:?WindowProc@CWnd@@MAEJIIJ@Z
	DD	FLAT:?OnWndMsg@CWnd@@MAEHIIJPAJ@Z
	DD	FLAT:?DefWindowProcA@CWnd@@MAEJIIJ@Z
	DD	FLAT:?PostNcDestroy@CWnd@@MAEXXZ
	DD	FLAT:?OnChildNotify@CStatic@@MAEHIIJPAJ@Z
	DD	FLAT:?OnTouchInputs@CWnd@@MAEHIPAUtagTOUCHINPUT@@@Z
	DD	FLAT:?OnTouchInput@CWnd@@MAEHVCPoint@@HHPAUtagTOUCHINPUT@@@Z
	DD	FLAT:?GetGestureStatus@CWnd@@MAEKVCPoint@@@Z
	DD	FLAT:?OnGestureZoom@CWnd@@MAEHVCPoint@@J@Z
	DD	FLAT:?OnGesturePan@CWnd@@MAEHVCPoint@@0@Z
	DD	FLAT:?OnGestureRotate@CWnd@@MAEHVCPoint@@N@Z
	DD	FLAT:?OnGestureTwoFingerTap@CWnd@@MAEHVCPoint@@@Z
	DD	FLAT:?OnGesturePressAndTap@CWnd@@MAEHVCPoint@@J@Z
	DD	FLAT:?ResizeDynamicLayout@CWnd@@MAEXXZ
	DD	FLAT:?CheckAutoCenter@CWnd@@UAEHXZ
	DD	FLAT:?IsFrameWnd@CWnd@@UBEHXZ
	DD	FLAT:?CreateControlContainer@CWnd@@MAEHPAPAVCOleControlContainer@@@Z
	DD	FLAT:?CreateControlSite@CWnd@@MAEHPAVCOleControlContainer@@PAPAVCOleControlSite@@IABU_GUID@@@Z
	DD	FLAT:?SetOccDialogInfo@CWnd@@MAEHPAU_AFX_OCC_DIALOG_INFO@@@Z
	DD	FLAT:?GetOccDialogInfo@CWnd@@MAEPAU_AFX_OCC_DIALOG_INFO@@XZ
	DD	FLAT:?Create@CStatic@@UAEHPBDKABUtagRECT@@PAVCWnd@@I@Z
	DD	FLAT:?DrawItem@CStatic@@UAEXPAUtagDRAWITEMSTRUCT@@@Z
	DD	FLAT:?SetBorderColor@CLabel@@UAEAAV1@KH@Z
	DD	FLAT:?SetBkColor@CLabel@@UAEAAV1@KKW4BackFillMode@1@@Z
	DD	FLAT:?SetTextColor@CLabel@@UAEAAV1@K@Z
	DD	FLAT:?SetText@CLabel@@UAEAAV1@ABV?$CStringT@DV?$StrTraitMFC_DLL@DV?$ChTraitsCRT@D@ATL@@@@@ATL@@@Z
	DD	FLAT:?SetFontBold@CLabel@@UAEAAV1@H@Z
	DD	FLAT:?SetFontName@CLabel@@UAEAAV1@ABV?$CStringT@DV?$StrTraitMFC_DLL@DV?$ChTraitsCRT@D@ATL@@@@@ATL@@E@Z
	DD	FLAT:?SetFontUnderline@CLabel@@UAEAAV1@H@Z
	DD	FLAT:?SetFontItalic@CLabel@@UAEAAV1@H@Z
	DD	FLAT:?SetFontSize@CLabel@@UAEAAV1@H@Z
	DD	FLAT:?SetSunken@CLabel@@UAEAAV1@H@Z
	DD	FLAT:?SetBorder@CLabel@@UAEAAV1@H@Z
	DD	FLAT:?SetTransparent@CLabel@@UAEAAV1@H@Z
	DD	FLAT:?FlashText@CLabel@@UAEAAV1@H@Z
	DD	FLAT:?FlashBackground@CLabel@@UAEAAV1@H@Z
	DD	FLAT:?SetLink@CLabel@@UAEAAV1@HH@Z
	DD	FLAT:?SetLinkCursor@CLabel@@UAEAAV1@PAUHICON__@@@Z
	DD	FLAT:?SetFont3D@CLabel@@UAEAAV1@HW4Type3D@1@@Z
	DD	FLAT:?SetRotationAngle@CLabel@@UAEAAV1@IH@Z
	DD	FLAT:?SetText3DHiliteColor@CLabel@@UAEAAV1@K@Z
CONST	ENDS
;	COMDAT ??_R2CCmdTarget@@8
rdata$r	SEGMENT
??_R2CCmdTarget@@8 DD FLAT:??_R1A@?0A@EA@CCmdTarget@@8	; CCmdTarget::`RTTI Base Class Array'
	DD	FLAT:??_R1A@?0A@EA@CObject@@8
rdata$r	ENDS
;	COMDAT ??_R3CCmdTarget@@8
rdata$r	SEGMENT
??_R3CCmdTarget@@8 DD 00H				; CCmdTarget::`RTTI Class Hierarchy Descriptor'
	DD	00H
	DD	02H
	DD	FLAT:??_R2CCmdTarget@@8
rdata$r	ENDS
;	COMDAT ??_R0?AVCCmdTarget@@@8
data$rs	SEGMENT
??_R0?AVCCmdTarget@@@8 DD FLAT:??_7type_info@@6B@	; CCmdTarget `RTTI Type Descriptor'
	DD	00H
	DB	'.?AVCCmdTarget@@', 00H
data$rs	ENDS
;	COMDAT ??_R1A@?0A@EA@CCmdTarget@@8
rdata$r	SEGMENT
??_R1A@?0A@EA@CCmdTarget@@8 DD FLAT:??_R0?AVCCmdTarget@@@8 ; CCmdTarget::`RTTI Base Class Descriptor at (0,-1,0,64)'
	DD	01H
	DD	00H
	DD	0ffffffffH
	DD	00H
	DD	040H
	DD	FLAT:??_R3CCmdTarget@@8
rdata$r	ENDS
;	COMDAT ??_R2CWnd@@8
rdata$r	SEGMENT
??_R2CWnd@@8 DD	FLAT:??_R1A@?0A@EA@CWnd@@8		; CWnd::`RTTI Base Class Array'
	DD	FLAT:??_R1A@?0A@EA@CCmdTarget@@8
	DD	FLAT:??_R1A@?0A@EA@CObject@@8
rdata$r	ENDS
;	COMDAT ??_R3CWnd@@8
rdata$r	SEGMENT
??_R3CWnd@@8 DD	00H					; CWnd::`RTTI Class Hierarchy Descriptor'
	DD	00H
	DD	03H
	DD	FLAT:??_R2CWnd@@8
rdata$r	ENDS
;	COMDAT ??_R0?AVCWnd@@@8
data$rs	SEGMENT
??_R0?AVCWnd@@@8 DD FLAT:??_7type_info@@6B@		; CWnd `RTTI Type Descriptor'
	DD	00H
	DB	'.?AVCWnd@@', 00H
data$rs	ENDS
;	COMDAT ??_R1A@?0A@EA@CWnd@@8
rdata$r	SEGMENT
??_R1A@?0A@EA@CWnd@@8 DD FLAT:??_R0?AVCWnd@@@8		; CWnd::`RTTI Base Class Descriptor at (0,-1,0,64)'
	DD	02H
	DD	00H
	DD	0ffffffffH
	DD	00H
	DD	040H
	DD	FLAT:??_R3CWnd@@8
rdata$r	ENDS
;	COMDAT ??_R1A@?0A@EA@CStatic@@8
rdata$r	SEGMENT
??_R1A@?0A@EA@CStatic@@8 DD FLAT:??_R0?AVCStatic@@@8	; CStatic::`RTTI Base Class Descriptor at (0,-1,0,64)'
	DD	03H
	DD	00H
	DD	0ffffffffH
	DD	00H
	DD	040H
	DD	FLAT:??_R3CStatic@@8
rdata$r	ENDS
;	COMDAT ??_R2CStatic@@8
rdata$r	SEGMENT
??_R2CStatic@@8 DD FLAT:??_R1A@?0A@EA@CStatic@@8	; CStatic::`RTTI Base Class Array'
	DD	FLAT:??_R1A@?0A@EA@CWnd@@8
	DD	FLAT:??_R1A@?0A@EA@CCmdTarget@@8
	DD	FLAT:??_R1A@?0A@EA@CObject@@8
rdata$r	ENDS
;	COMDAT ??_R3CStatic@@8
rdata$r	SEGMENT
??_R3CStatic@@8 DD 00H					; CStatic::`RTTI Class Hierarchy Descriptor'
	DD	00H
	DD	04H
	DD	FLAT:??_R2CStatic@@8
rdata$r	ENDS
;	COMDAT ??_R0?AVCStatic@@@8
data$rs	SEGMENT
??_R0?AVCStatic@@@8 DD FLAT:??_7type_info@@6B@		; CStatic `RTTI Type Descriptor'
	DD	00H
	DB	'.?AVCStatic@@', 00H
data$rs	ENDS
;	COMDAT ??_R4CStatic@@6B@
rdata$r	SEGMENT
??_R4CStatic@@6B@ DD 00H				; CStatic::`RTTI Complete Object Locator'
	DD	00H
	DD	00H
	DD	FLAT:??_R0?AVCStatic@@@8
	DD	FLAT:??_R3CStatic@@8
rdata$r	ENDS
;	COMDAT ??_R1A@?0A@EA@CRgn@@8
rdata$r	SEGMENT
??_R1A@?0A@EA@CRgn@@8 DD FLAT:??_R0?AVCRgn@@@8		; CRgn::`RTTI Base Class Descriptor at (0,-1,0,64)'
	DD	02H
	DD	00H
	DD	0ffffffffH
	DD	00H
	DD	040H
	DD	FLAT:??_R3CRgn@@8
rdata$r	ENDS
;	COMDAT ??_R2CRgn@@8
rdata$r	SEGMENT
??_R2CRgn@@8 DD	FLAT:??_R1A@?0A@EA@CRgn@@8		; CRgn::`RTTI Base Class Array'
	DD	FLAT:??_R1A@?0A@EA@CGdiObject@@8
	DD	FLAT:??_R1A@?0A@EA@CObject@@8
rdata$r	ENDS
;	COMDAT ??_R3CRgn@@8
rdata$r	SEGMENT
??_R3CRgn@@8 DD	00H					; CRgn::`RTTI Class Hierarchy Descriptor'
	DD	00H
	DD	03H
	DD	FLAT:??_R2CRgn@@8
rdata$r	ENDS
;	COMDAT ??_R0?AVCRgn@@@8
data$rs	SEGMENT
??_R0?AVCRgn@@@8 DD FLAT:??_7type_info@@6B@		; CRgn `RTTI Type Descriptor'
	DD	00H
	DB	'.?AVCRgn@@', 00H
data$rs	ENDS
;	COMDAT ??_R4CRgn@@6B@
rdata$r	SEGMENT
??_R4CRgn@@6B@ DD 00H					; CRgn::`RTTI Complete Object Locator'
	DD	00H
	DD	00H
	DD	FLAT:??_R0?AVCRgn@@@8
	DD	FLAT:??_R3CRgn@@8
rdata$r	ENDS
;	COMDAT ??_R1A@?0A@EA@CBitmap@@8
rdata$r	SEGMENT
??_R1A@?0A@EA@CBitmap@@8 DD FLAT:??_R0?AVCBitmap@@@8	; CBitmap::`RTTI Base Class Descriptor at (0,-1,0,64)'
	DD	02H
	DD	00H
	DD	0ffffffffH
	DD	00H
	DD	040H
	DD	FLAT:??_R3CBitmap@@8
rdata$r	ENDS
;	COMDAT ??_R2CBitmap@@8
rdata$r	SEGMENT
??_R2CBitmap@@8 DD FLAT:??_R1A@?0A@EA@CBitmap@@8	; CBitmap::`RTTI Base Class Array'
	DD	FLAT:??_R1A@?0A@EA@CGdiObject@@8
	DD	FLAT:??_R1A@?0A@EA@CObject@@8
rdata$r	ENDS
;	COMDAT ??_R3CBitmap@@8
rdata$r	SEGMENT
??_R3CBitmap@@8 DD 00H					; CBitmap::`RTTI Class Hierarchy Descriptor'
	DD	00H
	DD	03H
	DD	FLAT:??_R2CBitmap@@8
rdata$r	ENDS
;	COMDAT ??_R0?AVCBitmap@@@8
data$rs	SEGMENT
??_R0?AVCBitmap@@@8 DD FLAT:??_7type_info@@6B@		; CBitmap `RTTI Type Descriptor'
	DD	00H
	DB	'.?AVCBitmap@@', 00H
data$rs	ENDS
;	COMDAT ??_R4CBitmap@@6B@
rdata$r	SEGMENT
??_R4CBitmap@@6B@ DD 00H				; CBitmap::`RTTI Complete Object Locator'
	DD	00H
	DD	00H
	DD	FLAT:??_R0?AVCBitmap@@@8
	DD	FLAT:??_R3CBitmap@@8
rdata$r	ENDS
;	COMDAT ??_R1A@?0A@EA@CFont@@8
rdata$r	SEGMENT
??_R1A@?0A@EA@CFont@@8 DD FLAT:??_R0?AVCFont@@@8	; CFont::`RTTI Base Class Descriptor at (0,-1,0,64)'
	DD	02H
	DD	00H
	DD	0ffffffffH
	DD	00H
	DD	040H
	DD	FLAT:??_R3CFont@@8
rdata$r	ENDS
;	COMDAT ??_R2CFont@@8
rdata$r	SEGMENT
??_R2CFont@@8 DD FLAT:??_R1A@?0A@EA@CFont@@8		; CFont::`RTTI Base Class Array'
	DD	FLAT:??_R1A@?0A@EA@CGdiObject@@8
	DD	FLAT:??_R1A@?0A@EA@CObject@@8
rdata$r	ENDS
;	COMDAT ??_R3CFont@@8
rdata$r	SEGMENT
??_R3CFont@@8 DD 00H					; CFont::`RTTI Class Hierarchy Descriptor'
	DD	00H
	DD	03H
	DD	FLAT:??_R2CFont@@8
rdata$r	ENDS
;	COMDAT ??_R0?AVCFont@@@8
data$rs	SEGMENT
??_R0?AVCFont@@@8 DD FLAT:??_7type_info@@6B@		; CFont `RTTI Type Descriptor'
	DD	00H
	DB	'.?AVCFont@@', 00H
data$rs	ENDS
;	COMDAT ??_R4CFont@@6B@
rdata$r	SEGMENT
??_R4CFont@@6B@ DD 00H					; CFont::`RTTI Complete Object Locator'
	DD	00H
	DD	00H
	DD	FLAT:??_R0?AVCFont@@@8
	DD	FLAT:??_R3CFont@@8
rdata$r	ENDS
;	COMDAT ??_R1A@?0A@EA@CBrush@@8
rdata$r	SEGMENT
??_R1A@?0A@EA@CBrush@@8 DD FLAT:??_R0?AVCBrush@@@8	; CBrush::`RTTI Base Class Descriptor at (0,-1,0,64)'
	DD	02H
	DD	00H
	DD	0ffffffffH
	DD	00H
	DD	040H
	DD	FLAT:??_R3CBrush@@8
rdata$r	ENDS
;	COMDAT ??_R2CBrush@@8
rdata$r	SEGMENT
??_R2CBrush@@8 DD FLAT:??_R1A@?0A@EA@CBrush@@8		; CBrush::`RTTI Base Class Array'
	DD	FLAT:??_R1A@?0A@EA@CGdiObject@@8
	DD	FLAT:??_R1A@?0A@EA@CObject@@8
rdata$r	ENDS
;	COMDAT ??_R3CBrush@@8
rdata$r	SEGMENT
??_R3CBrush@@8 DD 00H					; CBrush::`RTTI Class Hierarchy Descriptor'
	DD	00H
	DD	03H
	DD	FLAT:??_R2CBrush@@8
rdata$r	ENDS
;	COMDAT ??_R0?AVCBrush@@@8
data$rs	SEGMENT
??_R0?AVCBrush@@@8 DD FLAT:??_7type_info@@6B@		; CBrush `RTTI Type Descriptor'
	DD	00H
	DB	'.?AVCBrush@@', 00H
data$rs	ENDS
;	COMDAT ??_R4CBrush@@6B@
rdata$r	SEGMENT
??_R4CBrush@@6B@ DD 00H					; CBrush::`RTTI Complete Object Locator'
	DD	00H
	DD	00H
	DD	FLAT:??_R0?AVCBrush@@@8
	DD	FLAT:??_R3CBrush@@8
rdata$r	ENDS
;	COMDAT ??_R1A@?0A@EA@CPen@@8
rdata$r	SEGMENT
??_R1A@?0A@EA@CPen@@8 DD FLAT:??_R0?AVCPen@@@8		; CPen::`RTTI Base Class Descriptor at (0,-1,0,64)'
	DD	02H
	DD	00H
	DD	0ffffffffH
	DD	00H
	DD	040H
	DD	FLAT:??_R3CPen@@8
rdata$r	ENDS
;	COMDAT ??_R2CPen@@8
rdata$r	SEGMENT
??_R2CPen@@8 DD	FLAT:??_R1A@?0A@EA@CPen@@8		; CPen::`RTTI Base Class Array'
	DD	FLAT:??_R1A@?0A@EA@CGdiObject@@8
	DD	FLAT:??_R1A@?0A@EA@CObject@@8
rdata$r	ENDS
;	COMDAT ??_R3CPen@@8
rdata$r	SEGMENT
??_R3CPen@@8 DD	00H					; CPen::`RTTI Class Hierarchy Descriptor'
	DD	00H
	DD	03H
	DD	FLAT:??_R2CPen@@8
rdata$r	ENDS
;	COMDAT ??_R0?AVCPen@@@8
data$rs	SEGMENT
??_R0?AVCPen@@@8 DD FLAT:??_7type_info@@6B@		; CPen `RTTI Type Descriptor'
	DD	00H
	DB	'.?AVCPen@@', 00H
data$rs	ENDS
;	COMDAT ??_R4CPen@@6B@
rdata$r	SEGMENT
??_R4CPen@@6B@ DD 00H					; CPen::`RTTI Complete Object Locator'
	DD	00H
	DD	00H
	DD	FLAT:??_R0?AVCPen@@@8
	DD	FLAT:??_R3CPen@@8
rdata$r	ENDS
;	COMDAT ??_R1A@?0A@EA@CGdiObject@@8
rdata$r	SEGMENT
??_R1A@?0A@EA@CGdiObject@@8 DD FLAT:??_R0?AVCGdiObject@@@8 ; CGdiObject::`RTTI Base Class Descriptor at (0,-1,0,64)'
	DD	01H
	DD	00H
	DD	0ffffffffH
	DD	00H
	DD	040H
	DD	FLAT:??_R3CGdiObject@@8
rdata$r	ENDS
;	COMDAT ??_R2CGdiObject@@8
rdata$r	SEGMENT
??_R2CGdiObject@@8 DD FLAT:??_R1A@?0A@EA@CGdiObject@@8	; CGdiObject::`RTTI Base Class Array'
	DD	FLAT:??_R1A@?0A@EA@CObject@@8
rdata$r	ENDS
;	COMDAT ??_R3CGdiObject@@8
rdata$r	SEGMENT
??_R3CGdiObject@@8 DD 00H				; CGdiObject::`RTTI Class Hierarchy Descriptor'
	DD	00H
	DD	02H
	DD	FLAT:??_R2CGdiObject@@8
rdata$r	ENDS
;	COMDAT ??_R0?AVCGdiObject@@@8
data$rs	SEGMENT
??_R0?AVCGdiObject@@@8 DD FLAT:??_7type_info@@6B@	; CGdiObject `RTTI Type Descriptor'
	DD	00H
	DB	'.?AVCGdiObject@@', 00H
data$rs	ENDS
;	COMDAT ??_R4CGdiObject@@6B@
rdata$r	SEGMENT
??_R4CGdiObject@@6B@ DD 00H				; CGdiObject::`RTTI Complete Object Locator'
	DD	00H
	DD	00H
	DD	FLAT:??_R0?AVCGdiObject@@@8
	DD	FLAT:??_R3CGdiObject@@8
rdata$r	ENDS
;	COMDAT ??_R1A@?0A@EA@CObject@@8
rdata$r	SEGMENT
??_R1A@?0A@EA@CObject@@8 DD FLAT:??_R0?AVCObject@@@8	; CObject::`RTTI Base Class Descriptor at (0,-1,0,64)'
	DD	00H
	DD	00H
	DD	0ffffffffH
	DD	00H
	DD	040H
	DD	FLAT:??_R3CObject@@8
rdata$r	ENDS
;	COMDAT ??_R2CObject@@8
rdata$r	SEGMENT
??_R2CObject@@8 DD FLAT:??_R1A@?0A@EA@CObject@@8	; CObject::`RTTI Base Class Array'
rdata$r	ENDS
;	COMDAT ??_R3CObject@@8
rdata$r	SEGMENT
??_R3CObject@@8 DD 00H					; CObject::`RTTI Class Hierarchy Descriptor'
	DD	00H
	DD	01H
	DD	FLAT:??_R2CObject@@8
rdata$r	ENDS
;	COMDAT ??_R0?AVCObject@@@8
data$rs	SEGMENT
??_R0?AVCObject@@@8 DD FLAT:??_7type_info@@6B@		; CObject `RTTI Type Descriptor'
	DD	00H
	DB	'.?AVCObject@@', 00H
data$rs	ENDS
;	COMDAT ??_C@_0N@OMEMOKLE@?$CFTs?5?$CI?$CFTs?3?$CFd?$CJ@
CONST	SEGMENT
??_C@_0N@OMEMOKLE@?$CFTs?5?$CI?$CFTs?3?$CFd?$CJ@ DB '%Ts (%Ts:%d)', 00H ; `string'
CONST	ENDS
;	COMDAT ??_C@_0BB@HBOOMJBF@?$CFTs?5?$CI?$CFTs?3?$CFd?$CJ?6?$CFTs@
CONST	SEGMENT
??_C@_0BB@HBOOMJBF@?$CFTs?5?$CI?$CFTs?3?$CFd?$CJ?6?$CFTs@ DB '%Ts (%Ts:%d'
	DB	')', 0aH, '%Ts', 00H				; `string'
CONST	ENDS
;	COMDAT ??_C@_0BP@OIEOKIDM@Exception?5thrown?5in?5destructor@
CONST	SEGMENT
??_C@_0BP@OIEOKIDM@Exception?5thrown?5in?5destructor@ DB 'Exception throw'
	DB	'n in destructor', 00H			; `string'
CONST	ENDS
;	COMDAT ??_C@_0HD@JJCHHHNK@C?3?2Program?5Files?5?$CIx86?$CJ?2Microsof@
CONST	SEGMENT
??_C@_0HD@JJCHHHNK@C?3?2Program?5Files?5?$CIx86?$CJ?2Microsof@ DB 'C:\Pro'
	DB	'gram Files (x86)\Microsoft Visual Studio\2019\Community\VC\To'
	DB	'ols\MSVC\14.29.30133\atlmfc\include\afxwin1.inl', 00H ; `string'
CONST	ENDS
;	COMDAT ??_7CStatic@@6B@
CONST	SEGMENT
??_7CStatic@@6B@ DD FLAT:??_R4CStatic@@6B@		; CStatic::`vftable'
	DD	FLAT:?GetRuntimeClass@CStatic@@UBEPAUCRuntimeClass@@XZ
	DD	FLAT:??_ECStatic@@UAEPAXI@Z
	DD	FLAT:?Serialize@CObject@@UAEXAAVCArchive@@@Z
	DD	FLAT:?AssertValid@CObject@@UBEXXZ
	DD	FLAT:?Dump@CObject@@UBEXAAVCDumpContext@@@Z
	DD	FLAT:?OnCmdMsg@CCmdTarget@@UAEHIHPAXPAUAFX_CMDHANDLERINFO@@@Z
	DD	FLAT:?OnFinalRelease@CWnd@@UAEXXZ
	DD	FLAT:?IsInvokeAllowed@CCmdTarget@@UAEHJ@Z
	DD	FLAT:?GetDispatchIID@CCmdTarget@@UAEHPAU_GUID@@@Z
	DD	FLAT:?GetTypeInfoCount@CCmdTarget@@UAEIXZ
	DD	FLAT:?GetTypeLibCache@CCmdTarget@@UAEPAVCTypeLibCache@@XZ
	DD	FLAT:?GetTypeLib@CCmdTarget@@UAEJKPAPAUITypeLib@@@Z
	DD	FLAT:?GetMessageMap@CWnd@@MBEPBUAFX_MSGMAP@@XZ
	DD	FLAT:?GetCommandMap@CCmdTarget@@MBEPBUAFX_OLECMDMAP@@XZ
	DD	FLAT:?GetDispatchMap@CCmdTarget@@MBEPBUAFX_DISPMAP@@XZ
	DD	FLAT:?GetConnectionMap@CCmdTarget@@MBEPBUAFX_CONNECTIONMAP@@XZ
	DD	FLAT:?GetInterfaceMap@CWnd@@MBEPBUAFX_INTERFACEMAP@@XZ
	DD	FLAT:?GetEventSinkMap@CCmdTarget@@MBEPBUAFX_EVENTSINKMAP@@XZ
	DD	FLAT:?OnCreateAggregates@CCmdTarget@@UAEHXZ
	DD	FLAT:?GetInterfaceHook@CCmdTarget@@UAEPAUIUnknown@@PBX@Z
	DD	FLAT:?GetExtraConnectionPoints@CCmdTarget@@MAEHPAVCPtrArray@@@Z
	DD	FLAT:?GetConnectionHook@CCmdTarget@@MAEPAUIConnectionPoint@@ABU_GUID@@@Z
	DD	FLAT:?PreSubclassWindow@CWnd@@UAEXXZ
	DD	FLAT:?Create@CWnd@@UAEHPBD0KABUtagRECT@@PAV1@IPAUCCreateContext@@@Z
	DD	FLAT:?CreateEx@CWnd@@UAEHKPBD0KABUtagRECT@@PAV1@IPAX@Z
	DD	FLAT:?CreateEx@CWnd@@UAEHKPBD0KHHHHPAUHWND__@@PAUHMENU__@@PAX@Z
	DD	FLAT:?DestroyWindow@CWnd@@UAEHXZ
	DD	FLAT:?PreCreateWindow@CWnd@@UAEHAAUtagCREATESTRUCTA@@@Z
	DD	FLAT:?CalcWindowRect@CWnd@@UAEXPAUtagRECT@@I@Z
	DD	FLAT:?GetMenu@CWnd@@UBEPAVCMenu@@XZ
	DD	FLAT:?SetMenu@CWnd@@UAEHPAVCMenu@@@Z
	DD	FLAT:?OnToolHitTest@CWnd@@UBEHVCPoint@@PAUtagTOOLINFOA@@@Z
	DD	FLAT:?GetScrollBarCtrl@CWnd@@UBEPAVCScrollBar@@H@Z
	DD	FLAT:?WinHelpA@CWnd@@UAEXKI@Z
	DD	FLAT:?HtmlHelpA@CWnd@@UAEXKI@Z
	DD	FLAT:?WinHelpInternal@CWnd@@UAEXKI@Z
	DD	FLAT:?ContinueModal@CWnd@@UAEHXZ
	DD	FLAT:?EndModalLoop@CWnd@@UAEXH@Z
	DD	FLAT:?OnDrawIconicThumbnailOrLivePreview@CWnd@@UAEXAAVCDC@@VCRect@@VCSize@@HAAH@Z
	DD	FLAT:?EnsureStdObj@CWnd@@UAEJXZ
	DD	FLAT:?get_accParent@CWnd@@UAEJPAPAUIDispatch@@@Z
	DD	FLAT:?get_accChildCount@CWnd@@UAEJPAJ@Z
	DD	FLAT:?get_accChild@CWnd@@UAEJUtagVARIANT@@PAPAUIDispatch@@@Z
	DD	FLAT:?get_accName@CWnd@@UAEJUtagVARIANT@@PAPA_W@Z
	DD	FLAT:?get_accValue@CWnd@@UAEJUtagVARIANT@@PAPA_W@Z
	DD	FLAT:?get_accDescription@CWnd@@UAEJUtagVARIANT@@PAPA_W@Z
	DD	FLAT:?get_accRole@CWnd@@UAEJUtagVARIANT@@PAU2@@Z
	DD	FLAT:?get_accState@CWnd@@UAEJUtagVARIANT@@PAU2@@Z
	DD	FLAT:?get_accHelp@CWnd@@UAEJUtagVARIANT@@PAPA_W@Z
	DD	FLAT:?get_accHelpTopic@CWnd@@UAEJPAPA_WUtagVARIANT@@PAJ@Z
	DD	FLAT:?get_accKeyboardShortcut@CWnd@@UAEJUtagVARIANT@@PAPA_W@Z
	DD	FLAT:?get_accFocus@CWnd@@UAEJPAUtagVARIANT@@@Z
	DD	FLAT:?get_accSelection@CWnd@@UAEJPAUtagVARIANT@@@Z
	DD	FLAT:?get_accDefaultAction@CWnd@@UAEJUtagVARIANT@@PAPA_W@Z
	DD	FLAT:?accSelect@CWnd@@UAEJJUtagVARIANT@@@Z
	DD	FLAT:?accLocation@CWnd@@UAEJPAJ000UtagVARIANT@@@Z
	DD	FLAT:?accNavigate@CWnd@@UAEJJUtagVARIANT@@PAU2@@Z
	DD	FLAT:?accHitTest@CWnd@@UAEJJJPAUtagVARIANT@@@Z
	DD	FLAT:?accDoDefaultAction@CWnd@@UAEJUtagVARIANT@@@Z
	DD	FLAT:?put_accName@CWnd@@UAEJUtagVARIANT@@PA_W@Z
	DD	FLAT:?put_accValue@CWnd@@UAEJUtagVARIANT@@PA_W@Z
	DD	FLAT:?SetProxy@CWnd@@UAEJPAUIAccessibleProxy@@@Z
	DD	FLAT:?CreateAccessibleProxy@CWnd@@UAEJIJPAJ@Z
	DD	FLAT:?OnCommand@CWnd@@MAEHIJ@Z
	DD	FLAT:?OnNotify@CWnd@@MAEHIJPAJ@Z
	DD	FLAT:?GetSuperWndProcAddr@CWnd@@MAEPAP6GJPAUHWND__@@IIJ@ZXZ
	DD	FLAT:?DoDataExchange@CWnd@@MAEXPAVCDataExchange@@@Z
	DD	FLAT:?BeginModalState@CWnd@@UAEXXZ
	DD	FLAT:?EndModalState@CWnd@@UAEXXZ
	DD	FLAT:?PreTranslateMessage@CWnd@@UAEHPAUtagMSG@@@Z
	DD	FLAT:?OnAmbientProperty@CWnd@@UAEHPAVCOleControlSite@@JPAUtagVARIANT@@@Z
	DD	FLAT:?WindowProc@CWnd@@MAEJIIJ@Z
	DD	FLAT:?OnWndMsg@CWnd@@MAEHIIJPAJ@Z
	DD	FLAT:?DefWindowProcA@CWnd@@MAEJIIJ@Z
	DD	FLAT:?PostNcDestroy@CWnd@@MAEXXZ
	DD	FLAT:?OnChildNotify@CStatic@@MAEHIIJPAJ@Z
	DD	FLAT:?OnTouchInputs@CWnd@@MAEHIPAUtagTOUCHINPUT@@@Z
	DD	FLAT:?OnTouchInput@CWnd@@MAEHVCPoint@@HHPAUtagTOUCHINPUT@@@Z
	DD	FLAT:?GetGestureStatus@CWnd@@MAEKVCPoint@@@Z
	DD	FLAT:?OnGestureZoom@CWnd@@MAEHVCPoint@@J@Z
	DD	FLAT:?OnGesturePan@CWnd@@MAEHVCPoint@@0@Z
	DD	FLAT:?OnGestureRotate@CWnd@@MAEHVCPoint@@N@Z
	DD	FLAT:?OnGestureTwoFingerTap@CWnd@@MAEHVCPoint@@@Z
	DD	FLAT:?OnGesturePressAndTap@CWnd@@MAEHVCPoint@@J@Z
	DD	FLAT:?ResizeDynamicLayout@CWnd@@MAEXXZ
	DD	FLAT:?CheckAutoCenter@CWnd@@UAEHXZ
	DD	FLAT:?IsFrameWnd@CWnd@@UBEHXZ
	DD	FLAT:?CreateControlContainer@CWnd@@MAEHPAPAVCOleControlContainer@@@Z
	DD	FLAT:?CreateControlSite@CWnd@@MAEHPAVCOleControlContainer@@PAPAVCOleControlSite@@IABU_GUID@@@Z
	DD	FLAT:?SetOccDialogInfo@CWnd@@MAEHPAU_AFX_OCC_DIALOG_INFO@@@Z
	DD	FLAT:?GetOccDialogInfo@CWnd@@MAEPAU_AFX_OCC_DIALOG_INFO@@XZ
	DD	FLAT:?Create@CStatic@@UAEHPBDKABUtagRECT@@PAVCWnd@@I@Z
	DD	FLAT:?DrawItem@CStatic@@UAEXPAUtagDRAWITEMSTRUCT@@@Z
CONST	ENDS
;	COMDAT ??_7CRgn@@6B@
CONST	SEGMENT
??_7CRgn@@6B@ DD FLAT:??_R4CRgn@@6B@			; CRgn::`vftable'
	DD	FLAT:?GetRuntimeClass@CRgn@@UBEPAUCRuntimeClass@@XZ
	DD	FLAT:??_ECRgn@@UAEPAXI@Z
	DD	FLAT:?Serialize@CObject@@UAEXAAVCArchive@@@Z
	DD	FLAT:?AssertValid@CObject@@UBEXXZ
	DD	FLAT:?Dump@CObject@@UBEXAAVCDumpContext@@@Z
CONST	ENDS
;	COMDAT ??_7CBitmap@@6B@
CONST	SEGMENT
??_7CBitmap@@6B@ DD FLAT:??_R4CBitmap@@6B@		; CBitmap::`vftable'
	DD	FLAT:?GetRuntimeClass@CBitmap@@UBEPAUCRuntimeClass@@XZ
	DD	FLAT:??_ECBitmap@@UAEPAXI@Z
	DD	FLAT:?Serialize@CObject@@UAEXAAVCArchive@@@Z
	DD	FLAT:?AssertValid@CObject@@UBEXXZ
	DD	FLAT:?Dump@CObject@@UBEXAAVCDumpContext@@@Z
CONST	ENDS
;	COMDAT ??_7CFont@@6B@
CONST	SEGMENT
??_7CFont@@6B@ DD FLAT:??_R4CFont@@6B@			; CFont::`vftable'
	DD	FLAT:?GetRuntimeClass@CFont@@UBEPAUCRuntimeClass@@XZ
	DD	FLAT:??_ECFont@@UAEPAXI@Z
	DD	FLAT:?Serialize@CObject@@UAEXAAVCArchive@@@Z
	DD	FLAT:?AssertValid@CObject@@UBEXXZ
	DD	FLAT:?Dump@CObject@@UBEXAAVCDumpContext@@@Z
CONST	ENDS
;	COMDAT ??_7CBrush@@6B@
CONST	SEGMENT
??_7CBrush@@6B@ DD FLAT:??_R4CBrush@@6B@		; CBrush::`vftable'
	DD	FLAT:?GetRuntimeClass@CBrush@@UBEPAUCRuntimeClass@@XZ
	DD	FLAT:??_ECBrush@@UAEPAXI@Z
	DD	FLAT:?Serialize@CObject@@UAEXAAVCArchive@@@Z
	DD	FLAT:?AssertValid@CObject@@UBEXXZ
	DD	FLAT:?Dump@CObject@@UBEXAAVCDumpContext@@@Z
CONST	ENDS
;	COMDAT ??_7CPen@@6B@
CONST	SEGMENT
??_7CPen@@6B@ DD FLAT:??_R4CPen@@6B@			; CPen::`vftable'
	DD	FLAT:?GetRuntimeClass@CPen@@UBEPAUCRuntimeClass@@XZ
	DD	FLAT:??_ECPen@@UAEPAXI@Z
	DD	FLAT:?Serialize@CObject@@UAEXAAVCArchive@@@Z
	DD	FLAT:?AssertValid@CObject@@UBEXXZ
	DD	FLAT:?Dump@CObject@@UBEXAAVCDumpContext@@@Z
CONST	ENDS
;	COMDAT ??_7CGdiObject@@6B@
CONST	SEGMENT
??_7CGdiObject@@6B@ DD FLAT:??_R4CGdiObject@@6B@	; CGdiObject::`vftable'
	DD	FLAT:?GetRuntimeClass@CGdiObject@@UBEPAUCRuntimeClass@@XZ
	DD	FLAT:??_ECGdiObject@@UAEPAXI@Z
	DD	FLAT:?Serialize@CObject@@UAEXAAVCArchive@@@Z
	DD	FLAT:?AssertValid@CObject@@UBEXXZ
	DD	FLAT:?Dump@CObject@@UBEXAAVCDumpContext@@@Z
CONST	ENDS
;	COMDAT ??_R0PAVCException@@@8
data$r	SEGMENT
??_R0PAVCException@@@8 DD FLAT:??_7type_info@@6B@	; CException * `RTTI Type Descriptor'
	DD	00H
	DB	'.PAVCException@@', 00H
data$r	ENDS
;	COMDAT xdata$x
xdata$x	SEGMENT
__unwindtable$??_GCLabel@@UAEPAXI@Z DD 0ffffffffH
	DD	FLAT:___std_terminate
__ehfuncinfo$??_GCLabel@@UAEPAXI@Z DD 019930522H
	DD	01H
	DD	FLAT:__unwindtable$??_GCLabel@@UAEPAXI@Z
	DD	2 DUP(00H)
	DD	2 DUP(00H)
	DD	00H
	DD	05H
xdata$x	ENDS
;	COMDAT xdata$x
xdata$x	SEGMENT
__ehfuncinfo$?OnPaint@CLabel@@IAEXXZ DD 019930522H
	DD	06H
	DD	FLAT:__unwindtable$?OnPaint@CLabel@@IAEXXZ
	DD	2 DUP(00H)
	DD	2 DUP(00H)
	DD	00H
	DD	01H
__unwindtable$?OnPaint@CLabel@@IAEXXZ DD 0ffffffffH
	DD	FLAT:__unwindfunclet$?OnPaint@CLabel@@IAEXXZ$0
	DD	00H
	DD	FLAT:__unwindfunclet$?OnPaint@CLabel@@IAEXXZ$1
	DD	01H
	DD	FLAT:__unwindfunclet$?OnPaint@CLabel@@IAEXXZ$2
	DD	02H
	DD	FLAT:__unwindfunclet$?OnPaint@CLabel@@IAEXXZ$3
	DD	03H
	DD	FLAT:__unwindfunclet$?OnPaint@CLabel@@IAEXXZ$4
	DD	03H
	DD	FLAT:__unwindfunclet$?OnPaint@CLabel@@IAEXXZ$5
xdata$x	ENDS
;	COMDAT xdata$x
xdata$x	SEGMENT
__ehfuncinfo$??1CLabel@@UAE@XZ DD 019930522H
	DD	00H
	DD	00H
	DD	2 DUP(00H)
	DD	2 DUP(00H)
	DD	00H
	DD	05H
xdata$x	ENDS
;	COMDAT xdata$x
xdata$x	SEGMENT
__ehfuncinfo$?SignDraw@CLabel@@QAEHPAVCWnd@@H@Z DD 019930522H
	DD	09H
	DD	FLAT:__unwindtable$?SignDraw@CLabel@@QAEHPAVCWnd@@H@Z
	DD	2 DUP(00H)
	DD	2 DUP(00H)
	DD	00H
	DD	01H
__unwindtable$?SignDraw@CLabel@@QAEHPAVCWnd@@H@Z DD 0ffffffffH
	DD	FLAT:__unwindfunclet$?SignDraw@CLabel@@QAEHPAVCWnd@@H@Z$0
	DD	00H
	DD	FLAT:__unwindfunclet$?SignDraw@CLabel@@QAEHPAVCWnd@@H@Z$1
	DD	01H
	DD	FLAT:__unwindfunclet$?SignDraw@CLabel@@QAEHPAVCWnd@@H@Z$2
	DD	00H
	DD	FLAT:__unwindfunclet$?SignDraw@CLabel@@QAEHPAVCWnd@@H@Z$3
	DD	03H
	DD	FLAT:__unwindfunclet$?SignDraw@CLabel@@QAEHPAVCWnd@@H@Z$4
	DD	00H
	DD	FLAT:__unwindfunclet$?SignDraw@CLabel@@QAEHPAVCWnd@@H@Z$5
	DD	05H
	DD	FLAT:__unwindfunclet$?SignDraw@CLabel@@QAEHPAVCWnd@@H@Z$6
	DD	00H
	DD	FLAT:__unwindfunclet$?SignDraw@CLabel@@QAEHPAVCWnd@@H@Z$7
	DD	07H
	DD	FLAT:__unwindfunclet$?SignDraw@CLabel@@QAEHPAVCWnd@@H@Z$8
xdata$x	ENDS
;	COMDAT xdata$x
xdata$x	SEGMENT
__unwindtable$?DrawGradientFill@CLabel@@IAEXPAVCDC@@PAVCRect@@KKH@Z DD 0ffffffffH
	DD	FLAT:__unwindfunclet$?DrawGradientFill@CLabel@@IAEXPAVCDC@@PAVCRect@@KKH@Z$0
__ehfuncinfo$?DrawGradientFill@CLabel@@IAEXPAVCDC@@PAVCRect@@KKH@Z DD 019930522H
	DD	01H
	DD	FLAT:__unwindtable$?DrawGradientFill@CLabel@@IAEXPAVCDC@@PAVCRect@@KKH@Z
	DD	2 DUP(00H)
	DD	2 DUP(00H)
	DD	00H
	DD	01H
xdata$x	ENDS
;	COMDAT xdata$x
xdata$x	SEGMENT
__unwindtable$?SetFontSize@CLabel@@UAEAAV1@H@Z DD 0ffffffffH
	DD	FLAT:__unwindfunclet$?SetFontSize@CLabel@@UAEAAV1@H@Z$0
__ehfuncinfo$?SetFontSize@CLabel@@UAEAAV1@H@Z DD 019930522H
	DD	01H
	DD	FLAT:__unwindtable$?SetFontSize@CLabel@@UAEAAV1@H@Z
	DD	2 DUP(00H)
	DD	2 DUP(00H)
	DD	00H
	DD	01H
xdata$x	ENDS
;	COMDAT xdata$x
xdata$x	SEGMENT
__catchsym$??1CGdiObject@@UAE@XZ$3 DD 00H
	DD	FLAT:??_R0PAVCException@@@8
	DD	0fffffde4H
	DD	FLAT:__catch$??1CGdiObject@@UAE@XZ$0
__tryblocktable$??1CGdiObject@@UAE@XZ DD 00H
	DD	00H
	DD	02H
	DD	01H
	DD	FLAT:__catchsym$??1CGdiObject@@UAE@XZ$3
__unwindtable$??1CGdiObject@@UAE@XZ DD 0ffffffffH
	DD	00H
	DD	0ffffffffH
	DD	00H
	DD	01H
	DD	FLAT:__unwindfunclet$??1CGdiObject@@UAE@XZ$2
__ehfuncinfo$??1CGdiObject@@UAE@XZ DD 019930522H
	DD	03H
	DD	FLAT:__unwindtable$??1CGdiObject@@UAE@XZ
	DD	01H
	DD	FLAT:__tryblocktable$??1CGdiObject@@UAE@XZ
	DD	2 DUP(00H)
	DD	00H
	DD	05H
xdata$x	ENDS
; Function compile flags: /Ogtp
; File D:\git\src\IBK\IBK_DRFN\ProjSrc\SrcChartEx\ChartAddIn\ChartPatternAddIn\Control\Label.cpp
; File C:\Program Files (x86)\Microsoft Visual Studio\2019\Community\VC\Tools\MSVC\14.29.30133\atlmfc\include\afxwin1.inl
; File D:\git\src\IBK\IBK_DRFN\ProjSrc\SrcChartEx\ChartAddIn\ChartPatternAddIn\Control\Label.cpp
; File C:\Program Files (x86)\Microsoft Visual Studio\2019\Community\VC\Tools\MSVC\14.29.30133\atlmfc\include\afx.inl
;	COMDAT ??_GCLabel@@UAEPAXI@Z
_TEXT	SEGMENT
__$EHRec$ = -12						; size = 12
___flags$ = 8						; size = 4
??_GCLabel@@UAEPAXI@Z PROC				; CLabel::`scalar deleting destructor', COMDAT
; _this$ = ecx
  00000	55		 push	 ebp
  00001	8b ec		 mov	 ebp, esp
  00003	6a ff		 push	 -1
  00005	68 00 00 00 00	 push	 __ehhandler$??_GCLabel@@UAEPAXI@Z
  0000a	64 a1 00 00 00
	00		 mov	 eax, DWORD PTR fs:0
  00010	50		 push	 eax
  00011	53		 push	 ebx
  00012	56		 push	 esi
  00013	a1 00 00 00 00	 mov	 eax, DWORD PTR ___security_cookie
  00018	33 c5		 xor	 eax, ebp
  0001a	50		 push	 eax
  0001b	8d 45 f4	 lea	 eax, DWORD PTR __$EHRec$[ebp]
  0001e	64 a3 00 00 00
	00		 mov	 DWORD PTR fs:0, eax
  00024	8b f1		 mov	 esi, ecx
; File D:\git\src\IBK\IBK_DRFN\ProjSrc\SrcChartEx\ChartAddIn\ChartPatternAddIn\Control\Label.cpp

; 165  : 	m_font.DeleteObject();

  00026	8d 8e dc 00 00
	00		 lea	 ecx, DWORD PTR [esi+220]
  0002c	c7 45 fc 00 00
	00 00		 mov	 DWORD PTR __$EHRec$[ebp+8], 0
  00033	c7 06 00 00 00
	00		 mov	 DWORD PTR [esi], OFFSET ??_7CLabel@@6B@
  00039	e8 00 00 00 00	 call	 ?DeleteObject@CGdiObject@@QAEHXZ ; CGdiObject::DeleteObject

; 166  : 	::DeleteObject(m_hwndBrush);

  0003e	ff b6 98 00 00
	00		 push	 DWORD PTR [esi+152]
  00044	ff 15 00 00 00
	00		 call	 DWORD PTR __imp__DeleteObject@4

; 167  : 
; 168  : 	// Stop Checking complaining
; 169  : 	if (m_hBackBrush)

  0004a	8b 86 9c 00 00
	00		 mov	 eax, DWORD PTR [esi+156]
  00050	85 c0		 test	 eax, eax
  00052	74 07		 je	 SHORT $LN8@scalar

; 170  : 		::DeleteObject(m_hBackBrush);

  00054	50		 push	 eax
  00055	ff 15 00 00 00
	00		 call	 DWORD PTR __imp__DeleteObject@4
$LN8@scalar:

; 172  : }

  0005b	8d 8e e4 00 00
	00		 lea	 ecx, DWORD PTR [esi+228]
  00061	ff 15 00 00 00
	00		 call	 DWORD PTR __imp_??1?$CStringT@DV?$StrTraitMFC_DLL@DV?$ChTraitsCRT@D@ATL@@@@@ATL@@QAE@XZ
; File C:\Program Files (x86)\Microsoft Visual Studio\2019\Community\VC\Tools\MSVC\14.29.30133\atlmfc\include\afxwin1.inl

; 155  : 	{ }

  00067	8d 8e dc 00 00
	00		 lea	 ecx, DWORD PTR [esi+220]
  0006d	c7 86 dc 00 00
	00 00 00 00 00	 mov	 DWORD PTR [esi+220], OFFSET ??_7CFont@@6B@
  00077	e8 00 00 00 00	 call	 ??1CGdiObject@@UAE@XZ	; CGdiObject::~CGdiObject
; File D:\git\src\IBK\IBK_DRFN\ProjSrc\SrcChartEx\ChartAddIn\ChartPatternAddIn\Control\Label.cpp

; 172  : }

  0007c	8b ce		 mov	 ecx, esi
  0007e	e8 00 00 00 00	 call	 ??1CStatic@@UAE@XZ	; CStatic::~CStatic
  00083	8b 45 08	 mov	 eax, DWORD PTR ___flags$[ebp]
  00086	a8 01		 test	 al, 1
  00088	74 1d		 je	 SHORT $LN16@scalar
  0008a	a8 04		 test	 al, 4
  0008c	75 0b		 jne	 SHORT $LN3@scalar
; File C:\Program Files (x86)\Microsoft Visual Studio\2019\Community\VC\Tools\MSVC\14.29.30133\atlmfc\include\afx.inl

; 112  : 	{ ::operator delete(p); }

  0008e	56		 push	 esi
  0008f	e8 00 00 00 00	 call	 ??3@YAXPAX@Z		; operator delete
  00094	83 c4 04	 add	 esp, 4
  00097	eb 0e		 jmp	 SHORT $LN16@scalar
$LN3@scalar:
  00099	68 30 01 00 00	 push	 304			; 00000130H
  0009e	56		 push	 esi
  0009f	e8 00 00 00 00	 call	 ?__global_delete@@YAXPAXI@Z ; __global_delete
  000a4	83 c4 08	 add	 esp, 8
$LN16@scalar:
  000a7	8b c6		 mov	 eax, esi
  000a9	8b 4d f4	 mov	 ecx, DWORD PTR __$EHRec$[ebp]
  000ac	64 89 0d 00 00
	00 00		 mov	 DWORD PTR fs:0, ecx
  000b3	59		 pop	 ecx
  000b4	5e		 pop	 esi
  000b5	5b		 pop	 ebx
  000b6	8b e5		 mov	 esp, ebp
  000b8	5d		 pop	 ebp
  000b9	c2 04 00	 ret	 4
  000bc	cc		 int	 3
  000bd	cc		 int	 3
  000be	cc		 int	 3
  000bf	cc		 int	 3
  000c0	cc		 int	 3
_TEXT	ENDS
;	COMDAT text$x
text$x	SEGMENT
__ehhandler$??_GCLabel@@UAEPAXI@Z:
  00000	90		 npad	 1
  00001	90		 npad	 1
  00002	8b 54 24 08	 mov	 edx, DWORD PTR [esp+8]
  00006	8d 42 0c	 lea	 eax, DWORD PTR [edx+12]
  00009	8b 4a f4	 mov	 ecx, DWORD PTR [edx-12]
  0000c	33 c8		 xor	 ecx, eax
  0000e	e8 00 00 00 00	 call	 @__security_check_cookie@4
  00013	b8 00 00 00 00	 mov	 eax, OFFSET __ehfuncinfo$??_GCLabel@@UAEPAXI@Z
  00018	e9 00 00 00 00	 jmp	 ___CxxFrameHandler3
text$x	ENDS
??_GCLabel@@UAEPAXI@Z ENDP				; CLabel::`scalar deleting destructor'
; Function compile flags: /Ogtp
; File D:\git\src\IBK\IBK_DRFN\ProjSrc\SrcChartEx\ChartAddIn\ChartPatternAddIn\Control\Label.cpp
;	COMDAT ?GetMessageMap@CLabel@@MBEPBUAFX_MSGMAP@@XZ
_TEXT	SEGMENT
?GetMessageMap@CLabel@@MBEPBUAFX_MSGMAP@@XZ PROC	; CLabel::GetMessageMap, COMDAT
; _this$ = ecx

; 13   : BEGIN_MESSAGE_MAP(CLabel, CStatic)

  00000	b8 00 00 00 00	 mov	 eax, OFFSET ?messageMap@?1??GetThisMessageMap@CLabel@@KGPBUAFX_MSGMAP@@XZ@4U3@B
  00005	c3		 ret	 0
?GetMessageMap@CLabel@@MBEPBUAFX_MSGMAP@@XZ ENDP	; CLabel::GetMessageMap
_TEXT	ENDS
; Function compile flags: /Ogtp
; File D:\git\src\IBK\IBK_DRFN\ProjSrc\SrcChartEx\ChartAddIn\ChartPatternAddIn\Control\Label.cpp
;	COMDAT ?GetThisMessageMap@CLabel@@KGPBUAFX_MSGMAP@@XZ
_TEXT	SEGMENT
?GetThisMessageMap@CLabel@@KGPBUAFX_MSGMAP@@XZ PROC	; CLabel::GetThisMessageMap, COMDAT

; 14   : 	//{{AFX_MSG_MAP(CLabel)
; 15   : 	ON_WM_TIMER()
; 16   : 	ON_WM_LBUTTONUP()
; 17   : 	ON_WM_SETCURSOR()
; 18   : 	ON_WM_SYSCOLORCHANGE()
; 19   : 	ON_WM_PAINT()
; 20   : 	//}}AFX_MSG_MAP
; 21   : END_MESSAGE_MAP()

  00000	b8 00 00 00 00	 mov	 eax, OFFSET ?messageMap@?1??GetThisMessageMap@CLabel@@KGPBUAFX_MSGMAP@@XZ@4U3@B
  00005	c3		 ret	 0
?GetThisMessageMap@CLabel@@KGPBUAFX_MSGMAP@@XZ ENDP	; CLabel::GetThisMessageMap
_TEXT	ENDS
; Function compile flags: /Ogtp
; File D:\git\src\IBK\IBK_DRFN\ProjSrc\SrcChartEx\ChartAddIn\ChartPatternAddIn\Control\Label.cpp
; File C:\Program Files (x86)\Microsoft Visual Studio\2019\Community\VC\Tools\MSVC\14.29.30133\atlmfc\include\afxwin2.inl
; File D:\git\src\IBK\IBK_DRFN\ProjSrc\SrcChartEx\ChartAddIn\ChartPatternAddIn\Control\Label.cpp
; File C:\Program Files (x86)\Microsoft Visual Studio\2019\Community\VC\Tools\MSVC\14.29.30133\atlmfc\include\afxwin2.inl
; File C:\Program Files (x86)\Microsoft Visual Studio\2019\Community\VC\Tools\MSVC\14.29.30133\atlmfc\include\atltypes.h
; File C:\Program Files (x86)\Microsoft Visual Studio\2019\Community\VC\Tools\MSVC\14.29.30133\atlmfc\include\afxwin2.inl
; File D:\git\src\IBK\IBK_DRFN\ProjSrc\SrcChartEx\ChartAddIn\ChartPatternAddIn\Control\Label.cpp
; File C:\Program Files (x86)\Microsoft Visual Studio\2019\Community\VC\Tools\MSVC\14.29.30133\atlmfc\include\afxwin1.inl
; File D:\git\src\IBK\IBK_DRFN\ProjSrc\SrcChartEx\ChartAddIn\ChartPatternAddIn\Control\Label.cpp
; File C:\Program Files (x86)\Microsoft Visual Studio\2019\Community\VC\Tools\MSVC\14.29.30133\atlmfc\include\afxwin1.inl
; File D:\git\src\IBK\IBK_DRFN\ProjSrc\SrcChartEx\ChartAddIn\ChartPatternAddIn\Control\Label.cpp
; File C:\Program Files (x86)\Microsoft Visual Studio\2019\Community\VC\Tools\MSVC\14.29.30133\atlmfc\include\afx.inl
; File D:\git\src\IBK\IBK_DRFN\ProjSrc\SrcChartEx\ChartAddIn\ChartPatternAddIn\Control\Label.cpp
; File C:\Program Files (x86)\Microsoft Visual Studio\2019\Community\VC\Tools\MSVC\14.29.30133\atlmfc\include\afxwin1.inl
; File D:\git\src\IBK\IBK_DRFN\ProjSrc\SrcChartEx\ChartAddIn\ChartPatternAddIn\Control\Label.cpp
; File C:\Program Files (x86)\Microsoft Visual Studio\2019\Community\VC\Tools\MSVC\14.29.30133\atlmfc\include\afxwin1.inl
; File C:\Program Files (x86)\Microsoft Visual Studio\2019\Community\VC\Tools\MSVC\14.29.30133\atlmfc\include\atltypes.h
; File C:\Program Files (x86)\Microsoft Visual Studio\2019\Community\VC\Tools\MSVC\14.29.30133\atlmfc\include\afxwin1.inl
; File D:\git\src\IBK\IBK_DRFN\ProjSrc\SrcChartEx\ChartAddIn\ChartPatternAddIn\Control\Label.cpp
; File C:\Program Files (x86)\Microsoft Visual Studio\2019\Community\VC\Tools\MSVC\14.29.30133\atlmfc\include\afxwin1.inl
; File D:\git\src\IBK\IBK_DRFN\ProjSrc\SrcChartEx\ChartAddIn\ChartPatternAddIn\Control\Label.cpp
; File C:\Program Files (x86)\Microsoft Visual Studio\2019\Community\VC\Tools\MSVC\14.29.30133\atlmfc\include\afxwin1.inl
; File D:\git\src\IBK\IBK_DRFN\ProjSrc\SrcChartEx\ChartAddIn\ChartPatternAddIn\Control\Label.cpp
; File C:\Program Files (x86)\Microsoft Visual Studio\2019\Community\VC\Tools\MSVC\14.29.30133\atlmfc\include\afxwin1.inl
; File D:\git\src\IBK\IBK_DRFN\ProjSrc\SrcChartEx\ChartAddIn\ChartPatternAddIn\Control\Label.cpp
; File C:\Program Files (x86)\Microsoft Visual Studio\2019\Community\VC\Tools\MSVC\14.29.30133\atlmfc\include\afxwin1.inl
; File D:\git\src\IBK\IBK_DRFN\ProjSrc\SrcChartEx\ChartAddIn\ChartPatternAddIn\Control\Label.cpp
; File C:\Program Files (x86)\Microsoft Visual Studio\2019\Community\VC\Tools\MSVC\14.29.30133\atlmfc\include\afxwin1.inl
; File D:\git\src\IBK\IBK_DRFN\ProjSrc\SrcChartEx\ChartAddIn\ChartPatternAddIn\Control\Label.cpp
; File C:\Program Files (x86)\Microsoft Visual Studio\2019\Community\VC\Tools\MSVC\14.29.30133\atlmfc\include\atltypes.h
; File D:\git\src\IBK\IBK_DRFN\ProjSrc\SrcChartEx\ChartAddIn\ChartPatternAddIn\Control\Label.cpp
; File C:\Program Files (x86)\Microsoft Visual Studio\2019\Community\VC\Tools\MSVC\14.29.30133\atlmfc\include\atltypes.h
; File D:\git\src\IBK\IBK_DRFN\ProjSrc\SrcChartEx\ChartAddIn\ChartPatternAddIn\Control\Label.cpp
; File C:\Program Files (x86)\Microsoft Visual Studio\2019\Community\VC\Tools\MSVC\14.29.30133\atlmfc\include\atltypes.h
; File D:\git\src\IBK\IBK_DRFN\ProjSrc\SrcChartEx\ChartAddIn\ChartPatternAddIn\Control\Label.cpp
; File C:\Program Files (x86)\Microsoft Visual Studio\2019\Community\VC\Tools\MSVC\14.29.30133\atlmfc\include\atltypes.h
; File D:\git\src\IBK\IBK_DRFN\ProjSrc\SrcChartEx\ChartAddIn\ChartPatternAddIn\Control\Label.cpp
; File C:\Program Files (x86)\Microsoft Visual Studio\2019\Community\VC\Tools\MSVC\14.29.30133\atlmfc\include\afxwin1.inl
; File D:\git\src\IBK\IBK_DRFN\ProjSrc\SrcChartEx\ChartAddIn\ChartPatternAddIn\Control\Label.cpp
; File C:\Program Files (x86)\Microsoft Visual Studio\2019\Community\VC\Tools\MSVC\14.29.30133\atlmfc\include\afxwin1.inl
; File D:\git\src\IBK\IBK_DRFN\ProjSrc\SrcChartEx\ChartAddIn\ChartPatternAddIn\Control\Label.cpp
; File C:\Program Files (x86)\Microsoft Visual Studio\2019\Community\VC\Tools\MSVC\14.29.30133\atlmfc\include\atltypes.h
; File D:\git\src\IBK\IBK_DRFN\ProjSrc\SrcChartEx\ChartAddIn\ChartPatternAddIn\Control\Label.cpp
; File C:\Program Files (x86)\Microsoft Visual Studio\2019\Community\VC\Tools\MSVC\14.29.30133\atlmfc\include\atltypes.h
; File D:\git\src\IBK\IBK_DRFN\ProjSrc\SrcChartEx\ChartAddIn\ChartPatternAddIn\Control\Label.cpp
; File C:\Program Files (x86)\Microsoft Visual Studio\2019\Community\VC\Tools\MSVC\14.29.30133\atlmfc\include\afxwin1.inl
; File D:\git\src\IBK\IBK_DRFN\ProjSrc\SrcChartEx\ChartAddIn\ChartPatternAddIn\Control\Label.cpp
; File C:\Program Files (x86)\Microsoft Visual Studio\2019\Community\VC\Tools\MSVC\14.29.30133\atlmfc\include\atltypes.h
; File D:\git\src\IBK\IBK_DRFN\ProjSrc\SrcChartEx\ChartAddIn\ChartPatternAddIn\Control\Label.cpp
; File C:\Program Files (x86)\Microsoft Visual Studio\2019\Community\VC\Tools\MSVC\14.29.30133\atlmfc\include\atltypes.h
; File D:\git\src\IBK\IBK_DRFN\ProjSrc\SrcChartEx\ChartAddIn\ChartPatternAddIn\Control\Label.cpp
; File C:\Program Files (x86)\Microsoft Visual Studio\2019\Community\VC\Tools\MSVC\14.29.30133\atlmfc\include\atltypes.h
; File C:\Program Files (x86)\Microsoft Visual Studio\2019\Community\VC\Tools\MSVC\14.29.30133\atlmfc\include\afxwin1.inl
; File D:\git\src\IBK\IBK_DRFN\ProjSrc\SrcChartEx\ChartAddIn\ChartPatternAddIn\Control\Label.cpp
; File C:\Program Files (x86)\Microsoft Visual Studio\2019\Community\VC\Tools\MSVC\14.29.30133\atlmfc\include\afxwin1.inl
; File D:\git\src\IBK\IBK_DRFN\ProjSrc\SrcChartEx\ChartAddIn\ChartPatternAddIn\Control\Label.cpp
;	COMDAT ?OnPaint@CLabel@@IAEXXZ
_TEXT	SEGMENT
$T2 = -196						; size = 8
_pOldFont$1$ = -188					; size = 4
_nMode$1$ = -184					; size = 4
_crText$1$ = -180					; size = 4
$T3 = -180						; size = 4
_this$GSCopy$1$ = -176					; size = 4
_tmpRC$$sroa$976$1$ = -172				; size = 4
_bmp$ = -168						; size = 8
_pen$ = -160						; size = 8
_br$4 = -152						; size = 8
_pt$5 = -144						; size = 8
_oldpen$1$ = -140					; size = 4
_strText$ = -136					; size = 4
_pDCMem$1$ = -132					; size = 4
_dwFlags$1$ = -132					; size = 4
_dc$ = -128						; size = 84
_lb$ = -44						; size = 12
_rc$ = -32						; size = 16
__$ArrayPad$ = -16					; size = 4
__$EHRec$ = -12						; size = 12
?OnPaint@CLabel@@IAEXXZ PROC				; CLabel::OnPaint, COMDAT
; _this$ = ecx

; 245  : {

  00000	55		 push	 ebp
  00001	8b ec		 mov	 ebp, esp
  00003	6a ff		 push	 -1
  00005	68 00 00 00 00	 push	 __ehhandler$?OnPaint@CLabel@@IAEXXZ
  0000a	64 a1 00 00 00
	00		 mov	 eax, DWORD PTR fs:0
  00010	50		 push	 eax
  00011	81 ec b8 00 00
	00		 sub	 esp, 184		; 000000b8H
  00017	a1 00 00 00 00	 mov	 eax, DWORD PTR ___security_cookie
  0001c	33 c5		 xor	 eax, ebp
  0001e	89 45 f0	 mov	 DWORD PTR __$ArrayPad$[ebp], eax
  00021	53		 push	 ebx
  00022	56		 push	 esi
  00023	57		 push	 edi
  00024	50		 push	 eax
  00025	8d 45 f4	 lea	 eax, DWORD PTR __$EHRec$[ebp]
  00028	64 a3 00 00 00
	00		 mov	 DWORD PTR fs:0, eax
  0002e	8b f1		 mov	 esi, ecx
  00030	89 b5 50 ff ff
	ff		 mov	 DWORD PTR _this$GSCopy$1$[ebp], esi

; 246  : 	CPaintDC dc(this); // device context for painting

  00036	56		 push	 esi
  00037	8d 4d 80	 lea	 ecx, DWORD PTR _dc$[ebp]
  0003a	e8 00 00 00 00	 call	 ??0CPaintDC@@QAE@PAVCWnd@@@Z ; CPaintDC::CPaintDC
; File C:\Program Files (x86)\Microsoft Visual Studio\2019\Community\VC\Tools\MSVC\14.29.30133\atlmfc\include\afxwin2.inl

; 86   : 	{ ASSERT(::IsWindow(m_hWnd)); ::GetClientRect(m_hWnd, lpRect); }

  0003f	8d 45 e0	 lea	 eax, DWORD PTR _rc$[ebp]
; File D:\git\src\IBK\IBK_DRFN\ProjSrc\SrcChartEx\ChartAddIn\ChartPatternAddIn\Control\Label.cpp

; 246  : 	CPaintDC dc(this); // device context for painting

  00042	c7 45 fc 00 00
	00 00		 mov	 DWORD PTR __$EHRec$[ebp+8], 0
; File C:\Program Files (x86)\Microsoft Visual Studio\2019\Community\VC\Tools\MSVC\14.29.30133\atlmfc\include\afxwin2.inl

; 86   : 	{ ASSERT(::IsWindow(m_hWnd)); ::GetClientRect(m_hWnd, lpRect); }

  00049	50		 push	 eax
  0004a	ff 76 20	 push	 DWORD PTR [esi+32]
  0004d	0f 57 c0	 xorps	 xmm0, xmm0
; File C:\Program Files (x86)\Microsoft Visual Studio\2019\Community\VC\Tools\MSVC\14.29.30133\atlmfc\include\atltypes.h

; 528  : 	left = 0;

  00050	0f 11 45 e0	 movups	 XMMWORD PTR _rc$[ebp], xmm0
; File C:\Program Files (x86)\Microsoft Visual Studio\2019\Community\VC\Tools\MSVC\14.29.30133\atlmfc\include\afxwin2.inl

; 86   : 	{ ASSERT(::IsWindow(m_hWnd)); ::GetClientRect(m_hWnd, lpRect); }

  00054	ff 15 00 00 00
	00		 call	 DWORD PTR __imp__GetClientRect@8
; File D:\git\src\IBK\IBK_DRFN\ProjSrc\SrcChartEx\ChartAddIn\ChartPatternAddIn\Control\Label.cpp

; 252  : 	CString strText;

  0005a	8d 8d 78 ff ff
	ff		 lea	 ecx, DWORD PTR _strText$[ebp]
  00060	ff 15 00 00 00
	00		 call	 DWORD PTR __imp_??0?$CStringT@DV?$StrTraitMFC_DLL@DV?$ChTraitsCRT@D@ATL@@@@@ATL@@QAE@XZ

; 253  : 	GetWindowText(strText);

  00066	8d 85 78 ff ff
	ff		 lea	 eax, DWORD PTR _strText$[ebp]
  0006c	c6 45 fc 01	 mov	 BYTE PTR __$EHRec$[ebp+8], 1
  00070	50		 push	 eax
  00071	8b ce		 mov	 ecx, esi
  00073	e8 00 00 00 00	 call	 ?GetWindowTextA@CWnd@@QBEXAAV?$CStringT@DV?$StrTraitMFC_DLL@DV?$ChTraitsCRT@D@ATL@@@@@ATL@@@Z ; CWnd::GetWindowTextA
; File C:\Program Files (x86)\Microsoft Visual Studio\2019\Community\VC\Tools\MSVC\14.29.30133\atlmfc\include\afxwin1.inl

; 70   : 	{ m_hObject = NULL; }

  00078	c7 85 5c ff ff
	ff 00 00 00 00	 mov	 DWORD PTR _bmp$[ebp+4], 0

; 177  : 	{ }

  00082	c7 85 58 ff ff
	ff 00 00 00 00	 mov	 DWORD PTR _bmp$[ebp], OFFSET ??_7CBitmap@@6B@
; File D:\git\src\IBK\IBK_DRFN\ProjSrc\SrcChartEx\ChartAddIn\ChartPatternAddIn\Control\Label.cpp

; 256  : 	if(pSignCheck) {

  0008c	83 be 80 00 00
	00 00		 cmp	 DWORD PTR [esi+128], 0
  00093	c6 45 fc 02	 mov	 BYTE PTR __$EHRec$[ebp+8], 2
  00097	74 18		 je	 SHORT $LN4@OnPaint

; 257  : 		SignDraw(pSignCWnd, pSign);

  00099	ff b6 84 00 00
	00		 push	 DWORD PTR [esi+132]
  0009f	8b ce		 mov	 ecx, esi
  000a1	ff b6 88 00 00
	00		 push	 DWORD PTR [esi+136]
  000a7	e8 00 00 00 00	 call	 ?SignDraw@CLabel@@QAEHPAVCWnd@@H@Z ; CLabel::SignDraw
  000ac	e9 c9 04 00 00	 jmp	 $LN189@OnPaint
$LN4@OnPaint:
; File C:\Program Files (x86)\Microsoft Visual Studio\2019\Community\VC\Tools\MSVC\14.29.30133\atlmfc\include\afxwin1.inl

; 70   : 	{ m_hObject = NULL; }

  000b1	c7 85 64 ff ff
	ff 00 00 00 00	 mov	 DWORD PTR _pen$[ebp+4], 0

; 104  : 	{ }

  000bb	c7 85 60 ff ff
	ff 00 00 00 00	 mov	 DWORD PTR _pen$[ebp], OFFSET ??_7CPen@@6B@
; File D:\git\src\IBK\IBK_DRFN\ProjSrc\SrcChartEx\ChartAddIn\ChartPatternAddIn\Control\Label.cpp

; 267  : 	if (!m_bTransparent)

  000c5	83 be f4 00 00
	00 00		 cmp	 DWORD PTR [esi+244], 0
  000cc	c6 45 fc 03	 mov	 BYTE PTR __$EHRec$[ebp+8], 3
  000d0	75 79		 jne	 SHORT $LN5@OnPaint
; File C:\Program Files (x86)\Microsoft Visual Studio\2019\Community\VC\Tools\MSVC\14.29.30133\atlmfc\include\afx.inl

; 116  : 	{ return ::operator new(nSize); }

  000d2	6a 10		 push	 16			; 00000010H
  000d4	e8 00 00 00 00	 call	 ??2@YAPAXI@Z		; operator new
  000d9	83 c4 04	 add	 esp, 4
; File D:\git\src\IBK\IBK_DRFN\ProjSrc\SrcChartEx\ChartAddIn\ChartPatternAddIn\Control\Label.cpp

; 269  : 		pDCMem = new CDC;

  000dc	89 85 4c ff ff
	ff		 mov	 DWORD PTR $T3[ebp], eax
  000e2	c6 45 fc 04	 mov	 BYTE PTR __$EHRec$[ebp+8], 4
  000e6	85 c0		 test	 eax, eax
  000e8	74 11		 je	 SHORT $LN41@OnPaint
  000ea	8b c8		 mov	 ecx, eax
  000ec	e8 00 00 00 00	 call	 ??0CDC@@QAE@XZ		; CDC::CDC
  000f1	8b d8		 mov	 ebx, eax
  000f3	89 85 7c ff ff
	ff		 mov	 DWORD PTR _pDCMem$1$[ebp], eax
  000f9	eb 08		 jmp	 SHORT $LN42@OnPaint
$LN41@OnPaint:
  000fb	33 db		 xor	 ebx, ebx
  000fd	89 9d 7c ff ff
	ff		 mov	 DWORD PTR _pDCMem$1$[ebp], ebx
$LN42@OnPaint:
; File C:\Program Files (x86)\Microsoft Visual Studio\2019\Community\VC\Tools\MSVC\14.29.30133\atlmfc\include\afxwin1.inl

; 330  : 	{ return Attach(::CreateCompatibleDC(pDC->GetSafeHdc())); }

  00103	ff 75 84	 push	 DWORD PTR _dc$[ebp+4]
; File D:\git\src\IBK\IBK_DRFN\ProjSrc\SrcChartEx\ChartAddIn\ChartPatternAddIn\Control\Label.cpp

; 269  : 		pDCMem = new CDC;

  00106	c6 45 fc 03	 mov	 BYTE PTR __$EHRec$[ebp+8], 3
; File C:\Program Files (x86)\Microsoft Visual Studio\2019\Community\VC\Tools\MSVC\14.29.30133\atlmfc\include\afxwin1.inl

; 330  : 	{ return Attach(::CreateCompatibleDC(pDC->GetSafeHdc())); }

  0010a	ff 15 00 00 00
	00		 call	 DWORD PTR __imp__CreateCompatibleDC@4
  00110	50		 push	 eax
  00111	8b cb		 mov	 ecx, ebx
  00113	e8 00 00 00 00	 call	 ?Attach@CDC@@QAEHPAUHDC__@@@Z ; CDC::Attach
; File C:\Program Files (x86)\Microsoft Visual Studio\2019\Community\VC\Tools\MSVC\14.29.30133\atlmfc\include\atltypes.h

; 581  : 	return bottom - top;

  00118	8b 4d ec	 mov	 ecx, DWORD PTR _rc$[ebp+12]
  0011b	2b 4d e4	 sub	 ecx, DWORD PTR _rc$[ebp+4]

; 576  : 	return right - left;

  0011e	8b 45 e8	 mov	 eax, DWORD PTR _rc$[ebp+8]
  00121	2b 45 e0	 sub	 eax, DWORD PTR _rc$[ebp]
; File C:\Program Files (x86)\Microsoft Visual Studio\2019\Community\VC\Tools\MSVC\14.29.30133\atlmfc\include\afxwin1.inl

; 217  : 	{ return Attach(::CreateCompatibleBitmap(pDC->m_hDC, nWidth, nHeight)); }

  00124	51		 push	 ecx
  00125	50		 push	 eax
  00126	ff 75 84	 push	 DWORD PTR _dc$[ebp+4]
  00129	ff 15 00 00 00
	00		 call	 DWORD PTR __imp__CreateCompatibleBitmap@12
  0012f	50		 push	 eax
  00130	8d 8d 58 ff ff
	ff		 lea	 ecx, DWORD PTR _bmp$[ebp]
  00136	e8 00 00 00 00	 call	 ?Attach@CGdiObject@@QAEHPAX@Z ; CGdiObject::Attach

; 361  : 	{ ASSERT(m_hDC != NULL); return (CBitmap*) SelectGdiObject(m_hDC, pBitmap->GetSafeHandle()); }

  0013b	ff b5 5c ff ff
	ff		 push	 DWORD PTR _bmp$[ebp+4]
  00141	ff 73 04	 push	 DWORD PTR [ebx+4]
  00144	e8 00 00 00 00	 call	 ?SelectGdiObject@CDC@@KGPAVCGdiObject@@PAUHDC__@@PAX@Z ; CDC::SelectGdiObject
; File D:\git\src\IBK\IBK_DRFN\ProjSrc\SrcChartEx\ChartAddIn\ChartPatternAddIn\Control\Label.cpp

; 273  : 	}

  00149	eb 09		 jmp	 SHORT $LN6@OnPaint
$LN5@OnPaint:

; 274  : 	else
; 275  : 	{
; 276  : 		pDCMem = &dc;

  0014b	8d 5d 80	 lea	 ebx, DWORD PTR _dc$[ebp]
  0014e	89 9d 7c ff ff
	ff		 mov	 DWORD PTR _pDCMem$1$[ebp], ebx
$LN6@OnPaint:

; 277  : 	}
; 278  : 
; 279  : 	UINT nMode = pDCMem->SetBkMode(TRANSPARENT);

  00154	6a 01		 push	 1
  00156	8b cb		 mov	 ecx, ebx
  00158	e8 00 00 00 00	 call	 ?SetBkMode@CDC@@QAEHH@Z	; CDC::SetBkMode

; 280  : 
; 281  : 
; 282  : 	COLORREF crText = pDCMem->SetTextColor(m_crText);

  0015d	8b 13		 mov	 edx, DWORD PTR [ebx]
  0015f	8b cb		 mov	 ecx, ebx
  00161	ff b6 8c 00 00
	00		 push	 DWORD PTR [esi+140]
  00167	89 85 48 ff ff
	ff		 mov	 DWORD PTR _nMode$1$[ebp], eax
  0016d	ff 52 38	 call	 DWORD PTR [edx+56]

; 283  : 	CFont *pOldFont = pDCMem->SelectObject(&m_font);

  00170	8b 13		 mov	 edx, DWORD PTR [ebx]
  00172	8d 8e dc 00 00
	00		 lea	 ecx, DWORD PTR [esi+220]
  00178	51		 push	 ecx
  00179	8b cb		 mov	 ecx, ebx
  0017b	89 85 4c ff ff
	ff		 mov	 DWORD PTR _crText$1$[ebp], eax
  00181	ff 52 30	 call	 DWORD PTR [edx+48]

; 284  : 
; 285  : 
; 286  : 	// Fill in backgound if not transparent
; 287  : 	if (!m_bTransparent)

  00184	83 be f4 00 00
	00 00		 cmp	 DWORD PTR [esi+244], 0
  0018b	89 85 44 ff ff
	ff		 mov	 DWORD PTR _pOldFont$1$[ebp], eax
  00191	0f 85 90 00 00
	00		 jne	 $LN9@OnPaint

; 288  : 	{
; 289  : 		if (m_fillmode == Normal)

  00197	83 be 14 01 00
	00 00		 cmp	 DWORD PTR [esi+276], 0
  0019e	75 6d		 jne	 SHORT $LN8@OnPaint
; File C:\Program Files (x86)\Microsoft Visual Studio\2019\Community\VC\Tools\MSVC\14.29.30133\atlmfc\include\afxwin1.inl

; 70   : 	{ m_hObject = NULL; }

  001a0	c7 85 6c ff ff
	ff 00 00 00 00	 mov	 DWORD PTR _br$4[ebp+4], 0

; 128  : 	{ }

  001aa	c7 85 68 ff ff
	ff 00 00 00 00	 mov	 DWORD PTR _br$4[ebp], OFFSET ??_7CBrush@@6B@
; File D:\git\src\IBK\IBK_DRFN\ProjSrc\SrcChartEx\ChartAddIn\ChartPatternAddIn\Control\Label.cpp

; 293  : 			if (m_hBackBrush != NULL)

  001b4	8b 86 9c 00 00
	00		 mov	 eax, DWORD PTR [esi+156]
  001ba	c6 45 fc 05	 mov	 BYTE PTR __$EHRec$[ebp+8], 5
  001be	85 c0		 test	 eax, eax
  001c0	75 06		 jne	 SHORT $LN11@OnPaint

; 294  : 				br.Attach(m_hBackBrush);
; 295  : 			else
; 296  : 				br.Attach(m_hwndBrush);

  001c2	8b 86 98 00 00
	00		 mov	 eax, DWORD PTR [esi+152]
$LN11@OnPaint:
; File C:\Program Files (x86)\Microsoft Visual Studio\2019\Community\VC\Tools\MSVC\14.29.30133\atlmfc\include\afxwin1.inl

; 68   : 	{ return this == NULL ? NULL : m_hObject; }

  001c8	50		 push	 eax
  001c9	8d 8d 68 ff ff
	ff		 lea	 ecx, DWORD PTR _br$4[ebp]
  001cf	e8 00 00 00 00	 call	 ?Attach@CGdiObject@@QAEHPAX@Z ; CGdiObject::Attach

; 476  : 	{ ASSERT(m_hDC != NULL); ::FillRect(m_hDC, lpRect, (HBRUSH)pBrush->GetSafeHandle()); }

  001d4	ff b5 6c ff ff
	ff		 push	 DWORD PTR _br$4[ebp+4]
  001da	8d 45 e0	 lea	 eax, DWORD PTR _rc$[ebp]
  001dd	50		 push	 eax
  001de	ff 73 04	 push	 DWORD PTR [ebx+4]
  001e1	ff 15 00 00 00
	00		 call	 DWORD PTR __imp__FillRect@12
; File D:\git\src\IBK\IBK_DRFN\ProjSrc\SrcChartEx\ChartAddIn\ChartPatternAddIn\Control\Label.cpp

; 300  : 			br.Detach();

  001e7	8d 8d 68 ff ff
	ff		 lea	 ecx, DWORD PTR _br$4[ebp]
  001ed	e8 00 00 00 00	 call	 ?Detach@CGdiObject@@QAEPAXXZ ; CGdiObject::Detach
; File C:\Program Files (x86)\Microsoft Visual Studio\2019\Community\VC\Tools\MSVC\14.29.30133\atlmfc\include\afxwin1.inl

; 130  : 	{ }

  001f2	8d 8d 68 ff ff
	ff		 lea	 ecx, DWORD PTR _br$4[ebp]
; File D:\git\src\IBK\IBK_DRFN\ProjSrc\SrcChartEx\ChartAddIn\ChartPatternAddIn\Control\Label.cpp

; 301  : 		}

  001f8	c6 45 fc 03	 mov	 BYTE PTR __$EHRec$[ebp+8], 3
; File C:\Program Files (x86)\Microsoft Visual Studio\2019\Community\VC\Tools\MSVC\14.29.30133\atlmfc\include\afxwin1.inl

; 130  : 	{ }

  001fc	c7 85 68 ff ff
	ff 00 00 00 00	 mov	 DWORD PTR _br$4[ebp], OFFSET ??_7CBrush@@6B@
  00206	e8 00 00 00 00	 call	 ??1CGdiObject@@UAE@XZ	; CGdiObject::~CGdiObject
; File D:\git\src\IBK\IBK_DRFN\ProjSrc\SrcChartEx\ChartAddIn\ChartPatternAddIn\Control\Label.cpp

; 301  : 		}

  0020b	eb 1a		 jmp	 SHORT $LN9@OnPaint
$LN8@OnPaint:

; 302  : 		else // Gradient Fill
; 303  : 		{
; 304  : 			DrawGradientFill(pDCMem, &rc, m_crLoColor, m_crHiColor, 100);

  0020d	6a 64		 push	 100			; 00000064H
  0020f	ff b6 18 01 00
	00		 push	 DWORD PTR [esi+280]
  00215	8d 45 e0	 lea	 eax, DWORD PTR _rc$[ebp]
  00218	8b ce		 mov	 ecx, esi
  0021a	ff b6 1c 01 00
	00		 push	 DWORD PTR [esi+284]
  00220	50		 push	 eax
  00221	53		 push	 ebx
  00222	e8 00 00 00 00	 call	 ?DrawGradientFill@CLabel@@IAEXPAVCDC@@PAVCRect@@KKH@Z ; CLabel::DrawGradientFill
$LN9@OnPaint:

; 305  : 		}
; 306  : 
; 307  : 	}
; 308  : 	
; 309  : 	if(m_bBorderColor) {

  00227	83 be 20 01 00
	00 00		 cmp	 DWORD PTR [esi+288], 0
  0022e	0f 84 ba 00 00
	00		 je	 $LN12@OnPaint
; File C:\Program Files (x86)\Microsoft Visual Studio\2019\Community\VC\Tools\MSVC\14.29.30133\atlmfc\include\afxwin1.inl

; 108  : 	{ return Attach(::CreatePen(nPenStyle, nWidth, crColor)); }

  00234	ff b6 94 00 00
	00		 push	 DWORD PTR [esi+148]
  0023a	ff b6 24 01 00
	00		 push	 DWORD PTR [esi+292]
  00240	6a 00		 push	 0
  00242	ff 15 00 00 00
	00		 call	 DWORD PTR __imp__CreatePen@12
  00248	50		 push	 eax
  00249	8d 8d 60 ff ff
	ff		 lea	 ecx, DWORD PTR _pen$[ebp]
  0024f	e8 00 00 00 00	 call	 ?Attach@CGdiObject@@QAEHPAX@Z ; CGdiObject::Attach
; File D:\git\src\IBK\IBK_DRFN\ProjSrc\SrcChartEx\ChartAddIn\ChartPatternAddIn\Control\Label.cpp

; 312  : 		oldpen = pDCMem->SelectObject(&pen);

  00254	8d 85 60 ff ff
	ff		 lea	 eax, DWORD PTR _pen$[ebp]
  0025a	8b cb		 mov	 ecx, ebx
  0025c	50		 push	 eax
  0025d	e8 00 00 00 00	 call	 ?SelectObject@CDC@@QAEPAVCPen@@PAV2@@Z ; CDC::SelectObject

; 313  : //		pDCMem->Rectangle(&tmpRC);
; 314  : //		pDCMem->Rectangle(&rc);
; 315  : 
; 316  : 		tmpRC.top = rc.top;
; 317  : 		tmpRC.left = rc.left;

  00262	8b 5d e0	 mov	 ebx, DWORD PTR _rc$[ebp]

; 318  : 		tmpRC.bottom = rc.bottom - 1;

  00265	8b 7d ec	 mov	 edi, DWORD PTR _rc$[ebp+12]

; 319  : 		tmpRC.right = rc.right - 1;

  00268	8b 75 e8	 mov	 esi, DWORD PTR _rc$[ebp+8]
  0026b	4f		 dec	 edi

; 320  : 
; 321  : 		pDCMem->MoveTo(tmpRC.left, tmpRC.top);

  0026c	8b 8d 7c ff ff
	ff		 mov	 ecx, DWORD PTR _pDCMem$1$[ebp]
  00272	4e		 dec	 esi
  00273	89 85 74 ff ff
	ff		 mov	 DWORD PTR _oldpen$1$[ebp], eax
  00279	8b 45 e4	 mov	 eax, DWORD PTR _rc$[ebp+4]
  0027c	50		 push	 eax
  0027d	89 85 54 ff ff
	ff		 mov	 DWORD PTR _tmpRC$$sroa$976$1$[ebp], eax
  00283	8d 85 3c ff ff
	ff		 lea	 eax, DWORD PTR $T2[ebp]
  00289	53		 push	 ebx
  0028a	50		 push	 eax
  0028b	e8 00 00 00 00	 call	 ?MoveTo@CDC@@QAE?AVCPoint@@HH@Z ; CDC::MoveTo

; 322  : 		pDCMem->LineTo(tmpRC.right, tmpRC.top );

  00290	ff b5 54 ff ff
	ff		 push	 DWORD PTR _tmpRC$$sroa$976$1$[ebp]
  00296	8b 8d 7c ff ff
	ff		 mov	 ecx, DWORD PTR _pDCMem$1$[ebp]
  0029c	56		 push	 esi
  0029d	e8 00 00 00 00	 call	 ?LineTo@CDC@@QAEHHH@Z	; CDC::LineTo

; 323  : 		pDCMem->LineTo(tmpRC.right, tmpRC.bottom);

  002a2	8b 8d 7c ff ff
	ff		 mov	 ecx, DWORD PTR _pDCMem$1$[ebp]
  002a8	57		 push	 edi
  002a9	56		 push	 esi
  002aa	e8 00 00 00 00	 call	 ?LineTo@CDC@@QAEHHH@Z	; CDC::LineTo

; 324  : 		pDCMem->LineTo(tmpRC.left, tmpRC.bottom);

  002af	8b 8d 7c ff ff
	ff		 mov	 ecx, DWORD PTR _pDCMem$1$[ebp]
  002b5	57		 push	 edi
  002b6	53		 push	 ebx
  002b7	e8 00 00 00 00	 call	 ?LineTo@CDC@@QAEHHH@Z	; CDC::LineTo

; 325  : 		pDCMem->LineTo(tmpRC.left, tmpRC.top);

  002bc	ff b5 54 ff ff
	ff		 push	 DWORD PTR _tmpRC$$sroa$976$1$[ebp]
  002c2	53		 push	 ebx
  002c3	8b 9d 7c ff ff
	ff		 mov	 ebx, DWORD PTR _pDCMem$1$[ebp]
  002c9	8b cb		 mov	 ecx, ebx
  002cb	e8 00 00 00 00	 call	 ?LineTo@CDC@@QAEHHH@Z	; CDC::LineTo

; 326  : 
; 327  : 		pDCMem->SelectObject(oldpen);

  002d0	ff b5 74 ff ff
	ff		 push	 DWORD PTR _oldpen$1$[ebp]
  002d6	8b cb		 mov	 ecx, ebx
  002d8	e8 00 00 00 00	 call	 ?SelectObject@CDC@@QAEPAVCPen@@PAV2@@Z ; CDC::SelectObject

; 328  : 		pen.DeleteObject();

  002dd	8d 8d 60 ff ff
	ff		 lea	 ecx, DWORD PTR _pen$[ebp]
  002e3	e8 00 00 00 00	 call	 ?DeleteObject@CGdiObject@@QAEHXZ ; CGdiObject::DeleteObject
  002e8	8b b5 50 ff ff
	ff		 mov	 esi, DWORD PTR _this$GSCopy$1$[ebp]
$LN12@OnPaint:

; 329  : 	}
; 330  : 
; 331  : 	// If the text is flashing turn the text color on
; 332  : 	// then to the color of the window background.
; 333  : 
; 334  : 	LOGBRUSH lb;
; 335  : 	ZeroMemory(&lb,sizeof(lb));
; 336  : 
; 337  : 	// Stop Checking complaining
; 338  : 	if (m_hBackBrush)

  002ee	8b 86 9c 00 00
	00		 mov	 eax, DWORD PTR [esi+156]
  002f4	0f 57 c0	 xorps	 xmm0, xmm0
  002f7	66 0f d6 45 d4	 movq	 QWORD PTR _lb$[ebp], xmm0
  002fc	c7 45 dc 00 00
	00 00		 mov	 DWORD PTR _lb$[ebp+8], 0
  00303	85 c0		 test	 eax, eax
  00305	74 0d		 je	 SHORT $LN13@OnPaint

; 339  : 		::GetObject(m_hBackBrush,sizeof(lb),&lb);

  00307	8d 4d d4	 lea	 ecx, DWORD PTR _lb$[ebp]
  0030a	51		 push	 ecx
  0030b	6a 0c		 push	 12			; 0000000cH
  0030d	50		 push	 eax
  0030e	ff 15 00 00 00
	00		 call	 DWORD PTR __imp__GetObjectA@12
$LN13@OnPaint:

; 340  : 
; 341  : 
; 342  : 	// Something to do with flashing
; 343  : 	if (!m_bState && m_Type == Text)

  00314	83 be e8 00 00
	00 00		 cmp	 DWORD PTR [esi+232], 0
  0031b	75 13		 jne	 SHORT $LN14@OnPaint
  0031d	83 be 08 01 00
	00 01		 cmp	 DWORD PTR [esi+264], 1
  00324	75 0a		 jne	 SHORT $LN14@OnPaint

; 344  : 		pDCMem->SetTextColor(lb.lbColor);

  00326	8b 03		 mov	 eax, DWORD PTR [ebx]
  00328	8b cb		 mov	 ecx, ebx
  0032a	ff 75 d8	 push	 DWORD PTR _lb$[ebp+4]
  0032d	ff 50 38	 call	 DWORD PTR [eax+56]
$LN14@OnPaint:

; 345  : 
; 346  : 	DWORD style = GetStyle();

  00330	8b ce		 mov	 ecx, esi
  00332	e8 00 00 00 00	 call	 ?GetStyle@CWnd@@QBEKXZ	; CWnd::GetStyle
  00337	8b d0		 mov	 edx, eax

; 347  : 	
; 348  : 	switch (style & SS_TYPEMASK)

  00339	8b ca		 mov	 ecx, edx
  0033b	83 e1 1f	 and	 ecx, 31			; 0000001fH
  0033e	83 f9 0c	 cmp	 ecx, 12			; 0000000cH
  00341	77 20		 ja	 SHORT $LN18@OnPaint
  00343	0f b6 89 00 00
	00 00		 movzx	 ecx, BYTE PTR $LN194@OnPaint[ecx]
  0034a	ff 24 8d 00 00
	00 00		 jmp	 DWORD PTR $LN195@OnPaint[ecx*4]
$LN15@OnPaint:

; 349  : 	{
; 350  : 		case SS_RIGHT: 
; 351  : 			dwFlags = DT_RIGHT | DT_WORDBREAK; 

  00351	b8 12 00 00 00	 mov	 eax, 18			; 00000012H

; 352  : 			break; 

  00356	eb 10		 jmp	 SHORT $LN199@OnPaint
$LN16@OnPaint:

; 353  : 		
; 354  : 		case SS_CENTER: 
; 355  : 			dwFlags = DT_CENTER | DT_WORDBREAK;

  00358	b8 11 00 00 00	 mov	 eax, 17			; 00000011H

; 356  : 			break;

  0035d	eb 09		 jmp	 SHORT $LN199@OnPaint
$LN17@OnPaint:

; 357  : 
; 358  : 		case SS_LEFTNOWORDWRAP: 
; 359  : 			dwFlags = DT_LEFT; 

  0035f	33 c0		 xor	 eax, eax

; 360  : 			break;

  00361	eb 05		 jmp	 SHORT $LN199@OnPaint
$LN18@OnPaint:

; 361  : 
; 362  : 		default: // treat other types as left
; 363  : 			case SS_LEFT: 
; 364  : 				dwFlags = DT_LEFT | DT_WORDBREAK; 

  00363	b8 10 00 00 00	 mov	 eax, 16			; 00000010H
$LN199@OnPaint:

; 365  : 				break;
; 366  : 	}	
; 367  : 
; 368  : 	
; 369  : 	// If the text centered make an assumtion that
; 370  : 	// the will want to center verticly as well
; 371  : 	if (style & SS_CENTERIMAGE)

  00368	89 85 7c ff ff
	ff		 mov	 DWORD PTR _dwFlags$1$[ebp], eax
  0036e	f7 c2 00 02 00
	00		 test	 edx, 512		; 00000200H
  00374	74 29		 je	 SHORT $LN196@OnPaint

; 372  : 	{
; 373  : 		//dwFlags = DT_CENTER;
; 374  : 
; 375  : 		// Apply 
; 376  : 		if (strText.Find(_T("\r\n")) == -1)

  00376	6a 00		 push	 0
  00378	68 00 00 00 00	 push	 OFFSET ??_C@_02PCIJFNDE@?$AN?6@
  0037d	8d 8d 78 ff ff
	ff		 lea	 ecx, DWORD PTR _strText$[ebp]
  00383	ff 15 00 00 00
	00		 call	 DWORD PTR __imp_?Find@?$CStringT@DV?$StrTraitMFC_DLL@DV?$ChTraitsCRT@D@ATL@@@@@ATL@@QBEHPBDH@Z
  00389	83 f8 ff	 cmp	 eax, -1
  0038c	8b 85 7c ff ff
	ff		 mov	 eax, DWORD PTR _dwFlags$1$[ebp]
  00392	75 11		 jne	 SHORT $LN21@OnPaint

; 377  : 		{
; 378  : 			dwFlags |= DT_VCENTER;
; 379  : 
; 380  : 			// And because DT_VCENTER only works with single lines
; 381  : 			dwFlags |= DT_SINGLELINE; 

  00394	83 c8 24	 or	 eax, 36			; 00000024H
  00397	89 85 7c ff ff
	ff		 mov	 DWORD PTR _dwFlags$1$[ebp], eax
  0039d	eb 06		 jmp	 SHORT $LN21@OnPaint
$LN196@OnPaint:

; 365  : 				break;
; 366  : 	}	
; 367  : 
; 368  : 	
; 369  : 	// If the text centered make an assumtion that
; 370  : 	// the will want to center verticly as well
; 371  : 	if (style & SS_CENTERIMAGE)

  0039f	8b 85 7c ff ff
	ff		 mov	 eax, DWORD PTR _dwFlags$1$[ebp]
$LN21@OnPaint:

; 382  : 		}
; 383  : 	}
; 384  : 
; 385  : 	// JSJ_Block	COMMENT:  dwFlags   !
; 386  : 	//dwFlags = DT_LEFT | DT_VCENTER | DT_SINGLELINE;
; 387  : 	
; 388  : 
; 389  : 	//*******************************
; 390  : 	// 3333   DDDDD
; 391  : 	//     3  D    D
; 392  : 	//   33   D     D    E F X 
; 393  : 	//     3  D    D
; 394  : 	// 3333   DDDDD
; 395  : 	//*******************************
; 396  : 	if (m_bRotation)

  003a5	83 be 04 01 00
	00 00		 cmp	 DWORD PTR [esi+260], 0
  003ac	8b cb		 mov	 ecx, ebx
  003ae	0f 84 99 00 00
	00		 je	 $LN22@OnPaint

; 397  : 	{
; 398  : 		tmpRC = rc;
; 399  : 		if(m_bBorderColor) {
; 400  : 			tmpRC.left = (tmpRC.left + m_iBorderWidth + 1) / 2;
; 401  : 			tmpRC.top  = (tmpRC.top  + (m_iBorderWidth + 3)) / 2;
; 402  : 		}
; 403  : 
; 404  : 		int nAlign = pDCMem->SetTextAlign (TA_BASELINE);

  003b4	6a 18		 push	 24			; 00000018H
  003b6	e8 00 00 00 00	 call	 ?SetTextAlign@CDC@@QAEII@Z ; CDC::SetTextAlign
  003bb	8b f8		 mov	 edi, eax
; File C:\Program Files (x86)\Microsoft Visual Studio\2019\Community\VC\Tools\MSVC\14.29.30133\atlmfc\include\atltypes.h

; 400  : 	x = 0;

  003bd	c7 85 70 ff ff
	ff 00 00 00 00	 mov	 DWORD PTR _pt$5[ebp], 0
; File D:\git\src\IBK\IBK_DRFN\ProjSrc\SrcChartEx\ChartAddIn\ChartPatternAddIn\Control\Label.cpp

; 407  : 		GetViewportOrgEx (pDCMem->m_hDC,&pt) ;

  003c7	8d 85 70 ff ff
	ff		 lea	 eax, DWORD PTR _pt$5[ebp]
; File C:\Program Files (x86)\Microsoft Visual Studio\2019\Community\VC\Tools\MSVC\14.29.30133\atlmfc\include\atltypes.h

; 401  : 	y = 0;

  003cd	c7 85 74 ff ff
	ff 00 00 00 00	 mov	 DWORD PTR _pt$5[ebp+4], 0
; File D:\git\src\IBK\IBK_DRFN\ProjSrc\SrcChartEx\ChartAddIn\ChartPatternAddIn\Control\Label.cpp

; 407  : 		GetViewportOrgEx (pDCMem->m_hDC,&pt) ;

  003d7	50		 push	 eax
  003d8	ff 73 04	 push	 DWORD PTR [ebx+4]
  003db	ff 15 00 00 00
	00		 call	 DWORD PTR __imp__GetViewportOrgEx@8
; File C:\Program Files (x86)\Microsoft Visual Studio\2019\Community\VC\Tools\MSVC\14.29.30133\atlmfc\include\atltypes.h

; 581  : 	return bottom - top;

  003e1	8b 45 ec	 mov	 eax, DWORD PTR _rc$[ebp+12]
  003e4	2b 45 e4	 sub	 eax, DWORD PTR _rc$[ebp+4]
; File D:\git\src\IBK\IBK_DRFN\ProjSrc\SrcChartEx\ChartAddIn\ChartPatternAddIn\Control\Label.cpp

; 408  : 		SetViewportOrgEx (pDCMem->m_hDC,rc.Width() / 2, rc.Height() / 2, NULL) ;

  003e7	8b 35 00 00 00
	00		 mov	 esi, DWORD PTR __imp__SetViewportOrgEx@16
  003ed	99		 cdq
  003ee	2b c2		 sub	 eax, edx
  003f0	d1 f8		 sar	 eax, 1
  003f2	6a 00		 push	 0
  003f4	50		 push	 eax
; File C:\Program Files (x86)\Microsoft Visual Studio\2019\Community\VC\Tools\MSVC\14.29.30133\atlmfc\include\atltypes.h

; 576  : 	return right - left;

  003f5	8b 45 e8	 mov	 eax, DWORD PTR _rc$[ebp+8]
  003f8	2b 45 e0	 sub	 eax, DWORD PTR _rc$[ebp]
; File D:\git\src\IBK\IBK_DRFN\ProjSrc\SrcChartEx\ChartAddIn\ChartPatternAddIn\Control\Label.cpp

; 408  : 		SetViewportOrgEx (pDCMem->m_hDC,rc.Width() / 2, rc.Height() / 2, NULL) ;

  003fb	99		 cdq
  003fc	2b c2		 sub	 eax, edx
  003fe	d1 f8		 sar	 eax, 1
  00400	50		 push	 eax
  00401	ff 73 04	 push	 DWORD PTR [ebx+4]
  00404	ff d6		 call	 esi
; File C:\Program Files (x86)\Microsoft Visual Studio\2019\Community\VC\Tools\MSVC\14.29.30133\atlmfc\include\afxwin1.inl

; 574  : 	{ ASSERT(m_hDC != NULL); return TextOut(x, y, (LPCTSTR)str, (int)str.GetLength()); } // call virtual

  00406	8b 85 78 ff ff
	ff		 mov	 eax, DWORD PTR _strText$[ebp]
  0040c	8b cb		 mov	 ecx, ebx
  0040e	8b 13		 mov	 edx, DWORD PTR [ebx]
  00410	ff 70 f4	 push	 DWORD PTR [eax-12]
  00413	50		 push	 eax
  00414	6a 00		 push	 0
  00416	6a 00		 push	 0
  00418	ff 52 64	 call	 DWORD PTR [edx+100]
; File D:\git\src\IBK\IBK_DRFN\ProjSrc\SrcChartEx\ChartAddIn\ChartPatternAddIn\Control\Label.cpp

; 410  : 		SetViewportOrgEx (pDCMem->m_hDC,pt.x / 2, pt.y / 2, NULL) ;

  0041b	8b 85 74 ff ff
	ff		 mov	 eax, DWORD PTR _pt$5[ebp+4]
  00421	99		 cdq
  00422	2b c2		 sub	 eax, edx
  00424	d1 f8		 sar	 eax, 1
  00426	6a 00		 push	 0
  00428	50		 push	 eax
  00429	8b 85 70 ff ff
	ff		 mov	 eax, DWORD PTR _pt$5[ebp]
  0042f	99		 cdq
  00430	2b c2		 sub	 eax, edx
  00432	d1 f8		 sar	 eax, 1
  00434	50		 push	 eax
  00435	ff 73 04	 push	 DWORD PTR [ebx+4]
  00438	ff d6		 call	 esi

; 411  : 		pDCMem->SetTextAlign (nAlign);

  0043a	57		 push	 edi
  0043b	8b cb		 mov	 ecx, ebx
  0043d	e8 00 00 00 00	 call	 ?SetTextAlign@CDC@@QAEII@Z ; CDC::SetTextAlign

; 412  : 	}

  00442	8b b5 50 ff ff
	ff		 mov	 esi, DWORD PTR _this$GSCopy$1$[ebp]
  00448	e9 a6 00 00 00	 jmp	 $LN36@OnPaint
$LN22@OnPaint:

; 413  : 	else
; 414  : 	{
; 415  : 		tmpRC = rc;
; 416  : 		if(m_bBorderColor) {
; 417  : 			tmpRC.left	 = (tmpRC.left	+ m_iBorderWidth + 1) / 2;
; 418  : 			tmpRC.top	 = (tmpRC.top	+ (m_iBorderWidth + 3)) / 2;
; 419  : 			tmpRC.right	 = (tmpRC.right	- m_iBorderWidth - 1);
; 420  : 			tmpRC.bottom = (tmpRC.bottom - (m_iBorderWidth - 3));
; 421  : 		}
; 422  : 
; 423  : 		//  
; 424  : 		if (dwFlags & SS_RIGHT)

  0044d	50		 push	 eax
  0044e	a8 02		 test	 al, 2
  00450	8d 45 e0	 lea	 eax, DWORD PTR _rc$[ebp]
  00453	50		 push	 eax
  00454	8b 85 78 ff ff
	ff		 mov	 eax, DWORD PTR _strText$[ebp]
  0045a	74 3f		 je	 SHORT $LN26@OnPaint

; 425  : 		{
; 426  : 			rc.right -=3;		

  0045c	83 6d e8 03	 sub	 DWORD PTR _rc$[ebp+8], 3
; File C:\Program Files (x86)\Microsoft Visual Studio\2019\Community\VC\Tools\MSVC\14.29.30133\atlmfc\include\afxwin1.inl

; 600  : 		return _AFX_FUNCNAME(DrawText)((LPCTSTR)str, (int)str.GetLength(), lpRect, nFormat); }

  00460	ff 70 f4	 push	 DWORD PTR [eax-12]
  00463	8b 13		 mov	 edx, DWORD PTR [ebx]
  00465	50		 push	 eax
  00466	ff 52 70	 call	 DWORD PTR [edx+112]
; File D:\git\src\IBK\IBK_DRFN\ProjSrc\SrcChartEx\ChartAddIn\ChartPatternAddIn\Control\Label.cpp

; 428  : 			rc.right +=3;

  00469	83 45 e8 03	 add	 DWORD PTR _rc$[ebp+8], 3

; 429  : 
; 430  : 			if (m_bFont3d)

  0046d	83 be f8 00 00
	00 00		 cmp	 DWORD PTR [esi+248], 0
  00474	74 7d		 je	 SHORT $LN36@OnPaint

; 431  : 			{
; 432  : 				pDCMem->SetTextColor(m_cr3DHiliteColor);

  00476	8b 03		 mov	 eax, DWORD PTR [ebx]
  00478	8b cb		 mov	 ecx, ebx
  0047a	ff b6 90 00 00
	00		 push	 DWORD PTR [esi+144]
  00480	ff 50 38	 call	 DWORD PTR [eax+56]

; 433  : 				
; 434  : 				if (m_3dType == Raised)

  00483	83 be 10 01 00
	00 00		 cmp	 DWORD PTR [esi+272], 0
  0048a	8d 45 e0	 lea	 eax, DWORD PTR _rc$[ebp]
  0048d	75 06		 jne	 SHORT $LN29@OnPaint
; File C:\Program Files (x86)\Microsoft Visual Studio\2019\Community\VC\Tools\MSVC\14.29.30133\atlmfc\include\atltypes.h

; 710  : 	::OffsetRect(this, x, y);

  0048f	6a ff		 push	 -1
  00491	6a fc		 push	 -4			; fffffffcH
; File D:\git\src\IBK\IBK_DRFN\ProjSrc\SrcChartEx\ChartAddIn\ChartPatternAddIn\Control\Label.cpp

; 435  : 					rc.OffsetRect(-1-3,-1);

  00493	eb 3b		 jmp	 SHORT $LN200@OnPaint
$LN29@OnPaint:
; File C:\Program Files (x86)\Microsoft Visual Studio\2019\Community\VC\Tools\MSVC\14.29.30133\atlmfc\include\atltypes.h

; 710  : 	::OffsetRect(this, x, y);

  00495	6a 01		 push	 1
  00497	6a fe		 push	 -2			; fffffffeH
; File D:\git\src\IBK\IBK_DRFN\ProjSrc\SrcChartEx\ChartAddIn\ChartPatternAddIn\Control\Label.cpp

; 442  : 		}

  00499	eb 35		 jmp	 SHORT $LN200@OnPaint
$LN26@OnPaint:
; File C:\Program Files (x86)\Microsoft Visual Studio\2019\Community\VC\Tools\MSVC\14.29.30133\atlmfc\include\afxwin1.inl

; 600  : 		return _AFX_FUNCNAME(DrawText)((LPCTSTR)str, (int)str.GetLength(), lpRect, nFormat); }

  0049b	ff 70 f4	 push	 DWORD PTR [eax-12]
  0049e	8b 13		 mov	 edx, DWORD PTR [ebx]
  004a0	50		 push	 eax
  004a1	ff 52 70	 call	 DWORD PTR [edx+112]
; File D:\git\src\IBK\IBK_DRFN\ProjSrc\SrcChartEx\ChartAddIn\ChartPatternAddIn\Control\Label.cpp

; 466  : 			if (m_bFont3d)

  004a4	83 be f8 00 00
	00 00		 cmp	 DWORD PTR [esi+248], 0
  004ab	74 46		 je	 SHORT $LN36@OnPaint

; 467  : 			{
; 468  : 				pDCMem->SetTextColor(m_cr3DHiliteColor);

  004ad	8b 03		 mov	 eax, DWORD PTR [ebx]
  004af	8b cb		 mov	 ecx, ebx
  004b1	ff b6 90 00 00
	00		 push	 DWORD PTR [esi+144]
  004b7	ff 50 38	 call	 DWORD PTR [eax+56]

; 469  : 				
; 470  : 				if (m_3dType == Raised)

  004ba	83 be 10 01 00
	00 00		 cmp	 DWORD PTR [esi+272], 0
  004c1	8d 45 e0	 lea	 eax, DWORD PTR _rc$[ebp]
  004c4	75 06		 jne	 SHORT $LN37@OnPaint
; File C:\Program Files (x86)\Microsoft Visual Studio\2019\Community\VC\Tools\MSVC\14.29.30133\atlmfc\include\atltypes.h

; 710  : 	::OffsetRect(this, x, y);

  004c6	6a ff		 push	 -1
  004c8	6a ff		 push	 -1
; File D:\git\src\IBK\IBK_DRFN\ProjSrc\SrcChartEx\ChartAddIn\ChartPatternAddIn\Control\Label.cpp

; 471  : 					rc.OffsetRect(-1,-1);

  004ca	eb 04		 jmp	 SHORT $LN200@OnPaint
$LN37@OnPaint:
; File C:\Program Files (x86)\Microsoft Visual Studio\2019\Community\VC\Tools\MSVC\14.29.30133\atlmfc\include\atltypes.h

; 710  : 	::OffsetRect(this, x, y);

  004cc	6a 01		 push	 1
  004ce	6a 01		 push	 1
$LN200@OnPaint:
; File D:\git\src\IBK\IBK_DRFN\ProjSrc\SrcChartEx\ChartAddIn\ChartPatternAddIn\Control\Label.cpp

; 481  : 	pDCMem->SetBkMode(nMode);

  004d0	50		 push	 eax
  004d1	ff 15 00 00 00
	00		 call	 DWORD PTR __imp__OffsetRect@12
  004d7	8b 85 7c ff ff
	ff		 mov	 eax, DWORD PTR _dwFlags$1$[ebp]
  004dd	8b cb		 mov	 ecx, ebx
  004df	8b 13		 mov	 edx, DWORD PTR [ebx]
  004e1	50		 push	 eax
  004e2	8d 45 e0	 lea	 eax, DWORD PTR _rc$[ebp]
  004e5	50		 push	 eax
  004e6	8b 85 78 ff ff
	ff		 mov	 eax, DWORD PTR _strText$[ebp]
  004ec	ff 70 f4	 push	 DWORD PTR [eax-12]
  004ef	50		 push	 eax
  004f0	ff 52 70	 call	 DWORD PTR [edx+112]
$LN36@OnPaint:
  004f3	ff b5 48 ff ff
	ff		 push	 DWORD PTR _nMode$1$[ebp]
  004f9	8b cb		 mov	 ecx, ebx
  004fb	e8 00 00 00 00	 call	 ?SetBkMode@CDC@@QAEHH@Z	; CDC::SetBkMode

; 482  : 	pDCMem->SelectObject(pOldFont);

  00500	8b 03		 mov	 eax, DWORD PTR [ebx]
  00502	8b cb		 mov	 ecx, ebx
  00504	ff b5 44 ff ff
	ff		 push	 DWORD PTR _pOldFont$1$[ebp]
  0050a	ff 50 30	 call	 DWORD PTR [eax+48]

; 483  : 	pDCMem->SetTextColor(crText);

  0050d	8b 03		 mov	 eax, DWORD PTR [ebx]
  0050f	8b cb		 mov	 ecx, ebx
  00511	ff b5 4c ff ff
	ff		 push	 DWORD PTR _crText$1$[ebp]
  00517	ff 50 38	 call	 DWORD PTR [eax+56]

; 484  : 
; 485  : 	if (!m_bTransparent)

  0051a	83 be f4 00 00
	00 00		 cmp	 DWORD PTR [esi+244], 0
  00521	75 42		 jne	 SHORT $LN43@OnPaint
; File C:\Program Files (x86)\Microsoft Visual Studio\2019\Community\VC\Tools\MSVC\14.29.30133\atlmfc\include\atltypes.h

; 581  : 	return bottom - top;

  00523	8b 4d ec	 mov	 ecx, DWORD PTR _rc$[ebp+12]
  00526	2b 4d e4	 sub	 ecx, DWORD PTR _rc$[ebp+4]

; 576  : 	return right - left;

  00529	8b 45 e8	 mov	 eax, DWORD PTR _rc$[ebp+8]
  0052c	2b 45 e0	 sub	 eax, DWORD PTR _rc$[ebp]
; File C:\Program Files (x86)\Microsoft Visual Studio\2019\Community\VC\Tools\MSVC\14.29.30133\atlmfc\include\afxwin1.inl

; 552  : 	{ ASSERT(m_hDC != NULL); return ::BitBlt(m_hDC, x, y, nWidth, nHeight,

  0052f	68 20 00 cc 00	 push	 13369376		; 00cc0020H
  00534	6a 00		 push	 0
  00536	6a 00		 push	 0
  00538	ff 73 04	 push	 DWORD PTR [ebx+4]
  0053b	51		 push	 ecx
  0053c	50		 push	 eax
  0053d	6a 00		 push	 0
  0053f	6a 00		 push	 0
  00541	ff 75 84	 push	 DWORD PTR _dc$[ebp+4]
  00544	ff 15 00 00 00
	00		 call	 DWORD PTR __imp__BitBlt@36
; File D:\git\src\IBK\IBK_DRFN\ProjSrc\SrcChartEx\ChartAddIn\ChartPatternAddIn\Control\Label.cpp

; 488  : 		pDCMem->DeleteDC();

  0054a	8b cb		 mov	 ecx, ebx
  0054c	e8 00 00 00 00	 call	 ?DeleteDC@CDC@@QAEHXZ	; CDC::DeleteDC

; 489  : 		bmp.DeleteObject();

  00551	8d 8d 58 ff ff
	ff		 lea	 ecx, DWORD PTR _bmp$[ebp]
  00557	e8 00 00 00 00	 call	 ?DeleteObject@CGdiObject@@QAEHXZ ; CGdiObject::DeleteObject

; 490  : 		delete pDCMem;

  0055c	8b 03		 mov	 eax, DWORD PTR [ebx]
  0055e	8b cb		 mov	 ecx, ebx
  00560	6a 01		 push	 1
  00562	ff 50 04	 call	 DWORD PTR [eax+4]
$LN43@OnPaint:
; File C:\Program Files (x86)\Microsoft Visual Studio\2019\Community\VC\Tools\MSVC\14.29.30133\atlmfc\include\afxwin1.inl

; 106  : 	{ }

  00565	8d 8d 60 ff ff
	ff		 lea	 ecx, DWORD PTR _pen$[ebp]
  0056b	c7 85 60 ff ff
	ff 00 00 00 00	 mov	 DWORD PTR _pen$[ebp], OFFSET ??_7CPen@@6B@
  00575	e8 00 00 00 00	 call	 ??1CGdiObject@@UAE@XZ	; CGdiObject::~CGdiObject
$LN189@OnPaint:

; 179  : 	{ }

  0057a	8d 8d 58 ff ff
	ff		 lea	 ecx, DWORD PTR _bmp$[ebp]
  00580	c7 85 58 ff ff
	ff 00 00 00 00	 mov	 DWORD PTR _bmp$[ebp], OFFSET ??_7CBitmap@@6B@
  0058a	e8 00 00 00 00	 call	 ??1CGdiObject@@UAE@XZ	; CGdiObject::~CGdiObject
; File D:\git\src\IBK\IBK_DRFN\ProjSrc\SrcChartEx\ChartAddIn\ChartPatternAddIn\Control\Label.cpp

; 492  : }

  0058f	8d 8d 78 ff ff
	ff		 lea	 ecx, DWORD PTR _strText$[ebp]
  00595	ff 15 00 00 00
	00		 call	 DWORD PTR __imp_??1?$CStringT@DV?$StrTraitMFC_DLL@DV?$ChTraitsCRT@D@ATL@@@@@ATL@@QAE@XZ
  0059b	8d 4d 80	 lea	 ecx, DWORD PTR _dc$[ebp]
  0059e	e8 00 00 00 00	 call	 ??1CPaintDC@@UAE@XZ	; CPaintDC::~CPaintDC
  005a3	8b 4d f4	 mov	 ecx, DWORD PTR __$EHRec$[ebp]
  005a6	64 89 0d 00 00
	00 00		 mov	 DWORD PTR fs:0, ecx
  005ad	59		 pop	 ecx
  005ae	5f		 pop	 edi
  005af	5e		 pop	 esi
  005b0	5b		 pop	 ebx
  005b1	8b 4d f0	 mov	 ecx, DWORD PTR __$ArrayPad$[ebp]
  005b4	33 cd		 xor	 ecx, ebp
  005b6	e8 00 00 00 00	 call	 @__security_check_cookie@4
  005bb	8b e5		 mov	 esp, ebp
  005bd	5d		 pop	 ebp
  005be	c3		 ret	 0
  005bf	90		 npad	 1
$LN195@OnPaint:
  005c0	00 00 00 00	 DD	 $LN18@OnPaint
  005c4	00 00 00 00	 DD	 $LN16@OnPaint
  005c8	00 00 00 00	 DD	 $LN15@OnPaint
  005cc	00 00 00 00	 DD	 $LN17@OnPaint
  005d0	00 00 00 00	 DD	 $LN18@OnPaint
$LN194@OnPaint:
  005d4	00		 DB	 0
  005d5	01		 DB	 1
  005d6	02		 DB	 2
  005d7	04		 DB	 4
  005d8	04		 DB	 4
  005d9	04		 DB	 4
  005da	04		 DB	 4
  005db	04		 DB	 4
  005dc	04		 DB	 4
  005dd	04		 DB	 4
  005de	04		 DB	 4
  005df	04		 DB	 4
  005e0	03		 DB	 3
_TEXT	ENDS
;	COMDAT text$x
text$x	SEGMENT
__unwindfunclet$?OnPaint@CLabel@@IAEXXZ$0:
  00000	8d 4d 80	 lea	 ecx, DWORD PTR _dc$[ebp]
  00003	e9 00 00 00 00	 jmp	 ??1CPaintDC@@UAE@XZ	; CPaintDC::~CPaintDC
__unwindfunclet$?OnPaint@CLabel@@IAEXXZ$1:
  00008	8d 8d 78 ff ff
	ff		 lea	 ecx, DWORD PTR _strText$[ebp]
  0000e	ff 25 00 00 00
	00		 jmp	 DWORD PTR __imp_??1?$CStringT@DV?$StrTraitMFC_DLL@DV?$ChTraitsCRT@D@ATL@@@@@ATL@@QAE@XZ
__unwindfunclet$?OnPaint@CLabel@@IAEXXZ$2:
  00014	8d 8d 58 ff ff
	ff		 lea	 ecx, DWORD PTR _bmp$[ebp]
  0001a	e9 00 00 00 00	 jmp	 ??1CBitmap@@UAE@XZ	; CBitmap::~CBitmap
__unwindfunclet$?OnPaint@CLabel@@IAEXXZ$3:
  0001f	8d 8d 60 ff ff
	ff		 lea	 ecx, DWORD PTR _pen$[ebp]
  00025	e9 00 00 00 00	 jmp	 ??1CPen@@UAE@XZ		; CPen::~CPen
__unwindfunclet$?OnPaint@CLabel@@IAEXXZ$4:
  0002a	8b 85 4c ff ff
	ff		 mov	 eax, DWORD PTR $T3[ebp]
  00030	50		 push	 eax
  00031	e8 00 00 00 00	 call	 ??3CObject@@SGXPAX@Z	; CObject::operator delete
  00036	c3		 ret	 0
__unwindfunclet$?OnPaint@CLabel@@IAEXXZ$5:
  00037	8d 8d 68 ff ff
	ff		 lea	 ecx, DWORD PTR _br$4[ebp]
  0003d	e9 00 00 00 00	 jmp	 ??1CBrush@@UAE@XZ	; CBrush::~CBrush
  00042	cc		 int	 3
  00043	cc		 int	 3
  00044	cc		 int	 3
  00045	cc		 int	 3
  00046	cc		 int	 3
__ehhandler$?OnPaint@CLabel@@IAEXXZ:
  00047	90		 npad	 1
  00048	90		 npad	 1
  00049	8b 54 24 08	 mov	 edx, DWORD PTR [esp+8]
  0004d	8d 42 0c	 lea	 eax, DWORD PTR [edx+12]
  00050	8b 8a 38 ff ff
	ff		 mov	 ecx, DWORD PTR [edx-200]
  00056	33 c8		 xor	 ecx, eax
  00058	e8 00 00 00 00	 call	 @__security_check_cookie@4
  0005d	8b 4a fc	 mov	 ecx, DWORD PTR [edx-4]
  00060	33 c8		 xor	 ecx, eax
  00062	e8 00 00 00 00	 call	 @__security_check_cookie@4
  00067	b8 00 00 00 00	 mov	 eax, OFFSET __ehfuncinfo$?OnPaint@CLabel@@IAEXXZ
  0006c	e9 00 00 00 00	 jmp	 ___CxxFrameHandler3
text$x	ENDS
?OnPaint@CLabel@@IAEXXZ ENDP				; CLabel::OnPaint
; Function compile flags: /Ogtp
; File D:\git\src\IBK\IBK_DRFN\ProjSrc\SrcChartEx\ChartAddIn\ChartPatternAddIn\Control\Label.cpp
;	COMDAT ?OnSysColorChange@CLabel@@IAEXXZ
_TEXT	SEGMENT
?OnSysColorChange@CLabel@@IAEXXZ PROC			; CLabel::OnSysColorChange, COMDAT
; _this$ = ecx

; 1114 : {

  00000	56		 push	 esi
  00001	8b f1		 mov	 esi, ecx

; 1115 : 
; 1116 : 	if (m_hwndBrush)

  00003	8b 86 98 00 00
	00		 mov	 eax, DWORD PTR [esi+152]
  00009	85 c0		 test	 eax, eax
  0000b	74 07		 je	 SHORT $LN2@OnSysColor

; 1117 : 		::DeleteObject(m_hwndBrush);

  0000d	50		 push	 eax
  0000e	ff 15 00 00 00
	00		 call	 DWORD PTR __imp__DeleteObject@4
$LN2@OnSysColor:

; 1118 : 
; 1119 : 	m_hwndBrush = ::CreateSolidBrush(GetSysColor(COLOR_3DFACE));

  00014	6a 0f		 push	 15			; 0000000fH
  00016	ff 15 00 00 00
	00		 call	 DWORD PTR __imp__GetSysColor@4
  0001c	50		 push	 eax
  0001d	ff 15 00 00 00
	00		 call	 DWORD PTR __imp__CreateSolidBrush@4
  00023	89 86 98 00 00
	00		 mov	 DWORD PTR [esi+152], eax

; 1120 : 	
; 1121 : 	UpdateSurface();

  00029	8b ce		 mov	 ecx, esi
  0002b	5e		 pop	 esi
  0002c	e9 00 00 00 00	 jmp	 ?UpdateSurface@CLabel@@IAEXXZ ; CLabel::UpdateSurface
?OnSysColorChange@CLabel@@IAEXXZ ENDP			; CLabel::OnSysColorChange
_TEXT	ENDS
; Function compile flags: /Ogtp
; File D:\git\src\IBK\IBK_DRFN\ProjSrc\SrcChartEx\ChartAddIn\ChartPatternAddIn\Control\Label.cpp
; File C:\Program Files (x86)\Microsoft Visual Studio\2019\Community\VC\Tools\MSVC\14.29.30133\atlmfc\include\afxwin2.inl
; File D:\git\src\IBK\IBK_DRFN\ProjSrc\SrcChartEx\ChartAddIn\ChartPatternAddIn\Control\Label.cpp
;	COMDAT ?OnSetCursor@CLabel@@IAEHPAVCWnd@@II@Z
_TEXT	SEGMENT
_pWnd$ = 8						; size = 4
_nHitTest$ = 12						; size = 4
_message$ = 16						; size = 4
?OnSetCursor@CLabel@@IAEHPAVCWnd@@II@Z PROC		; CLabel::OnSetCursor, COMDAT
; _this$ = ecx

; 543  : 
; 544  : 	if (m_hCursor)

  00000	8b 81 0c 01 00
	00		 mov	 eax, DWORD PTR [ecx+268]
  00006	85 c0		 test	 eax, eax
  00008	74 0f		 je	 SHORT $LN2@OnSetCurso

; 545  : 	{
; 546  : 		::SetCursor(m_hCursor);

  0000a	50		 push	 eax
  0000b	ff 15 00 00 00
	00		 call	 DWORD PTR __imp__SetCursor@4

; 547  : 		return TRUE;

  00011	b8 01 00 00 00	 mov	 eax, 1

; 551  : }

  00016	c2 0c 00	 ret	 12			; 0000000cH
$LN2@OnSetCurso:
; File C:\Program Files (x86)\Microsoft Visual Studio\2019\Community\VC\Tools\MSVC\14.29.30133\atlmfc\include\afxwin2.inl

; 326  : 	{ return (BOOL)Default(); }

  00019	e8 00 00 00 00	 call	 ?Default@CWnd@@IAEJXZ	; CWnd::Default
; File D:\git\src\IBK\IBK_DRFN\ProjSrc\SrcChartEx\ChartAddIn\ChartPatternAddIn\Control\Label.cpp

; 551  : }

  0001e	c2 0c 00	 ret	 12			; 0000000cH
?OnSetCursor@CLabel@@IAEHPAVCWnd@@II@Z ENDP		; CLabel::OnSetCursor
_TEXT	ENDS
; Function compile flags: /Ogtp
; File D:\git\src\IBK\IBK_DRFN\ProjSrc\SrcChartEx\ChartAddIn\ChartPatternAddIn\Control\Label.cpp
; File C:\Program Files (x86)\Microsoft Visual Studio\2019\Community\VC\Tools\MSVC\14.29.30133\atlmfc\include\afxwin2.inl
; File D:\git\src\IBK\IBK_DRFN\ProjSrc\SrcChartEx\ChartAddIn\ChartPatternAddIn\Control\Label.cpp
; File C:\Program Files (x86)\Microsoft Visual Studio\2019\Community\VC\Tools\MSVC\14.29.30133\atlmfc\include\afxwin2.inl
; File D:\git\src\IBK\IBK_DRFN\ProjSrc\SrcChartEx\ChartAddIn\ChartPatternAddIn\Control\Label.cpp
; File C:\Program Files (x86)\Microsoft Visual Studio\2019\Community\VC\Tools\MSVC\14.29.30133\atlmfc\include\afxwin2.inl
; File D:\git\src\IBK\IBK_DRFN\ProjSrc\SrcChartEx\ChartAddIn\ChartPatternAddIn\Control\Label.cpp
; File C:\Program Files (x86)\Microsoft Visual Studio\2019\Community\VC\Tools\MSVC\14.29.30133\atlmfc\include\afxwin2.inl
; File D:\git\src\IBK\IBK_DRFN\ProjSrc\SrcChartEx\ChartAddIn\ChartPatternAddIn\Control\Label.cpp
;	COMDAT ?OnLButtonUp@CLabel@@IAEXIVCPoint@@@Z
_TEXT	SEGMENT
_nm$ = -12						; size = 12
_nFlags$ = 8						; size = 4
_point$ = 12						; size = 8
?OnLButtonUp@CLabel@@IAEXIVCPoint@@@Z PROC		; CLabel::OnLButtonUp, COMDAT
; _this$ = ecx

; 572  : {

  00000	55		 push	 ebp
  00001	8b ec		 mov	 ebp, esp
  00003	83 ec 0c	 sub	 esp, 12			; 0000000cH
  00006	56		 push	 esi
  00007	8b f1		 mov	 esi, ecx
; File C:\Program Files (x86)\Microsoft Visual Studio\2019\Community\VC\Tools\MSVC\14.29.30133\atlmfc\include\afxwin2.inl

; 25   : 	{ return this == NULL ? NULL : m_hWnd; }

  00009	85 f6		 test	 esi, esi
  0000b	75 05		 jne	 SHORT $LN5@OnLButtonU
  0000d	89 4d f4	 mov	 DWORD PTR _nm$[ebp], ecx
  00010	eb 06		 jmp	 SHORT $LN6@OnLButtonU
$LN5@OnLButtonU:
  00012	8b 46 20	 mov	 eax, DWORD PTR [esi+32]
  00015	89 45 f4	 mov	 DWORD PTR _nm$[ebp], eax
$LN6@OnLButtonU:
; File D:\git\src\IBK\IBK_DRFN\ProjSrc\SrcChartEx\ChartAddIn\ChartPatternAddIn\Control\Label.cpp

; 599  : 	nm.idFrom  = GetDlgCtrlID();

  00018	e8 00 00 00 00	 call	 ?GetDlgCtrlID@CWnd@@QBEHXZ ; CWnd::GetDlgCtrlID
; File C:\Program Files (x86)\Microsoft Visual Studio\2019\Community\VC\Tools\MSVC\14.29.30133\atlmfc\include\afxwin2.inl

; 213  : 	{ ASSERT(::IsWindow(m_hWnd)); return CWnd::FromHandle(::GetParent(m_hWnd)); }

  0001d	ff 76 20	 push	 DWORD PTR [esi+32]
; File D:\git\src\IBK\IBK_DRFN\ProjSrc\SrcChartEx\ChartAddIn\ChartPatternAddIn\Control\Label.cpp

; 599  : 	nm.idFrom  = GetDlgCtrlID();

  00020	89 45 f8	 mov	 DWORD PTR _nm$[ebp+4], eax

; 600  : 	nm.code = NM_LINKCLICK;

  00023	c7 45 fc 00 82
	00 00		 mov	 DWORD PTR _nm$[ebp+8], 33280 ; 00008200H
; File C:\Program Files (x86)\Microsoft Visual Studio\2019\Community\VC\Tools\MSVC\14.29.30133\atlmfc\include\afxwin2.inl

; 213  : 	{ ASSERT(::IsWindow(m_hWnd)); return CWnd::FromHandle(::GetParent(m_hWnd)); }

  0002a	ff 15 00 00 00
	00		 call	 DWORD PTR __imp__GetParent@4
  00030	50		 push	 eax
  00031	e8 00 00 00 00	 call	 ?FromHandle@CWnd@@SGPAV1@PAUHWND__@@@Z ; CWnd::FromHandle
; File D:\git\src\IBK\IBK_DRFN\ProjSrc\SrcChartEx\ChartAddIn\ChartPatternAddIn\Control\Label.cpp

; 601  : 	::SendMessage(GetParent()->m_hWnd, WM_CLICKLABEL, nm.idFrom, (LPARAM) &nm);

  00036	8d 4d f4	 lea	 ecx, DWORD PTR _nm$[ebp]
  00039	51		 push	 ecx
  0003a	ff 75 f8	 push	 DWORD PTR _nm$[ebp+4]
  0003d	68 f7 14 00 00	 push	 5367			; 000014f7H
  00042	ff 70 20	 push	 DWORD PTR [eax+32]
  00045	ff 15 00 00 00
	00		 call	 DWORD PTR __imp__SendMessageA@16
; File C:\Program Files (x86)\Microsoft Visual Studio\2019\Community\VC\Tools\MSVC\14.29.30133\atlmfc\include\afxwin2.inl

; 434  : 	{ Default(); }

  0004b	8b ce		 mov	 ecx, esi
  0004d	e8 00 00 00 00	 call	 ?Default@CWnd@@IAEJXZ	; CWnd::Default
  00052	5e		 pop	 esi
; File D:\git\src\IBK\IBK_DRFN\ProjSrc\SrcChartEx\ChartAddIn\ChartPatternAddIn\Control\Label.cpp

; 604  : }

  00053	8b e5		 mov	 esp, ebp
  00055	5d		 pop	 ebp
  00056	c2 0c 00	 ret	 12			; 0000000cH
?OnLButtonUp@CLabel@@IAEXIVCPoint@@@Z ENDP		; CLabel::OnLButtonUp
_TEXT	ENDS
; Function compile flags: /Ogtp
; File D:\git\src\IBK\IBK_DRFN\ProjSrc\SrcChartEx\ChartAddIn\ChartPatternAddIn\Control\Label.cpp
; File C:\Program Files (x86)\Microsoft Visual Studio\2019\Community\VC\Tools\MSVC\14.29.30133\atlmfc\include\afxwin2.inl
; File D:\git\src\IBK\IBK_DRFN\ProjSrc\SrcChartEx\ChartAddIn\ChartPatternAddIn\Control\Label.cpp
;	COMDAT ?OnTimer@CLabel@@IAEXI@Z
_TEXT	SEGMENT
_nIDEvent$ = 8						; size = 4
?OnTimer@CLabel@@IAEXI@Z PROC				; CLabel::OnTimer, COMDAT
; _this$ = ecx

; 514  : {

  00000	56		 push	 esi
  00001	8b f1		 mov	 esi, ecx

; 515  : 
; 516  : 	m_bState = !m_bState;

  00003	33 c0		 xor	 eax, eax
  00005	39 86 e8 00 00
	00		 cmp	 DWORD PTR [esi+232], eax
  0000b	0f 94 c0	 sete	 al
  0000e	89 86 e8 00 00
	00		 mov	 DWORD PTR [esi+232], eax

; 517  : 
; 518  : 	UpdateSurface();

  00014	e8 00 00 00 00	 call	 ?UpdateSurface@CLabel@@IAEXXZ ; CLabel::UpdateSurface
; File C:\Program Files (x86)\Microsoft Visual Studio\2019\Community\VC\Tools\MSVC\14.29.30133\atlmfc\include\afxwin2.inl

; 466  : 	{ Default(); }

  00019	8b ce		 mov	 ecx, esi
  0001b	e8 00 00 00 00	 call	 ?Default@CWnd@@IAEJXZ	; CWnd::Default
  00020	5e		 pop	 esi
; File D:\git\src\IBK\IBK_DRFN\ProjSrc\SrcChartEx\ChartAddIn\ChartPatternAddIn\Control\Label.cpp

; 521  : }

  00021	c2 04 00	 ret	 4
?OnTimer@CLabel@@IAEXI@Z ENDP				; CLabel::OnTimer
_TEXT	ENDS
; Function compile flags: /Ogtp
; File D:\git\src\IBK\IBK_DRFN\ProjSrc\SrcChartEx\ChartAddIn\ChartPatternAddIn\Control\Label.cpp
; File C:\Program Files (x86)\Microsoft Visual Studio\2019\Community\VC\Tools\MSVC\14.29.30133\atlmfc\include\afxwin1.inl
; File D:\git\src\IBK\IBK_DRFN\ProjSrc\SrcChartEx\ChartAddIn\ChartPatternAddIn\Control\Label.cpp
;	COMDAT ??1CLabel@@UAE@XZ
_TEXT	SEGMENT
__$EHRec$ = -12						; size = 12
??1CLabel@@UAE@XZ PROC					; CLabel::~CLabel, COMDAT
; _this$ = ecx

; 163  : {

  00000	55		 push	 ebp
  00001	8b ec		 mov	 ebp, esp
  00003	6a ff		 push	 -1
  00005	68 00 00 00 00	 push	 __ehhandler$??1CLabel@@UAE@XZ
  0000a	64 a1 00 00 00
	00		 mov	 eax, DWORD PTR fs:0
  00010	50		 push	 eax
  00011	56		 push	 esi
  00012	57		 push	 edi
  00013	a1 00 00 00 00	 mov	 eax, DWORD PTR ___security_cookie
  00018	33 c5		 xor	 eax, ebp
  0001a	50		 push	 eax
  0001b	8d 45 f4	 lea	 eax, DWORD PTR __$EHRec$[ebp]
  0001e	64 a3 00 00 00
	00		 mov	 DWORD PTR fs:0, eax
  00024	8b f1		 mov	 esi, ecx

; 164  : 	// Clean up
; 165  : 	m_font.DeleteObject();

  00026	8d 8e dc 00 00
	00		 lea	 ecx, DWORD PTR [esi+220]
  0002c	c7 06 00 00 00
	00		 mov	 DWORD PTR [esi], OFFSET ??_7CLabel@@6B@
  00032	e8 00 00 00 00	 call	 ?DeleteObject@CGdiObject@@QAEHXZ ; CGdiObject::DeleteObject

; 166  : 	::DeleteObject(m_hwndBrush);

  00037	ff b6 98 00 00
	00		 push	 DWORD PTR [esi+152]
  0003d	ff 15 00 00 00
	00		 call	 DWORD PTR __imp__DeleteObject@4

; 167  : 
; 168  : 	// Stop Checking complaining
; 169  : 	if (m_hBackBrush)

  00043	8b 86 9c 00 00
	00		 mov	 eax, DWORD PTR [esi+156]
  00049	85 c0		 test	 eax, eax
  0004b	74 07		 je	 SHORT $LN2@CLabel

; 170  : 		::DeleteObject(m_hBackBrush);

  0004d	50		 push	 eax
  0004e	ff 15 00 00 00
	00		 call	 DWORD PTR __imp__DeleteObject@4
$LN2@CLabel:

; 172  : }

  00054	8d 8e e4 00 00
	00		 lea	 ecx, DWORD PTR [esi+228]
  0005a	ff 15 00 00 00
	00		 call	 DWORD PTR __imp_??1?$CStringT@DV?$StrTraitMFC_DLL@DV?$ChTraitsCRT@D@ATL@@@@@ATL@@QAE@XZ
; File C:\Program Files (x86)\Microsoft Visual Studio\2019\Community\VC\Tools\MSVC\14.29.30133\atlmfc\include\afxwin1.inl

; 155  : 	{ }

  00060	8d 8e dc 00 00
	00		 lea	 ecx, DWORD PTR [esi+220]
  00066	c7 86 dc 00 00
	00 00 00 00 00	 mov	 DWORD PTR [esi+220], OFFSET ??_7CFont@@6B@
  00070	e8 00 00 00 00	 call	 ??1CGdiObject@@UAE@XZ	; CGdiObject::~CGdiObject
; File D:\git\src\IBK\IBK_DRFN\ProjSrc\SrcChartEx\ChartAddIn\ChartPatternAddIn\Control\Label.cpp

; 172  : }

  00075	8b ce		 mov	 ecx, esi
  00077	e8 00 00 00 00	 call	 ??1CStatic@@UAE@XZ	; CStatic::~CStatic
  0007c	8b 4d f4	 mov	 ecx, DWORD PTR __$EHRec$[ebp]
  0007f	64 89 0d 00 00
	00 00		 mov	 DWORD PTR fs:0, ecx
  00086	59		 pop	 ecx
  00087	5f		 pop	 edi
  00088	5e		 pop	 esi
  00089	8b e5		 mov	 esp, ebp
  0008b	5d		 pop	 ebp
  0008c	c3		 ret	 0
  0008d	cc		 int	 3
  0008e	cc		 int	 3
  0008f	cc		 int	 3
  00090	cc		 int	 3
  00091	cc		 int	 3
_TEXT	ENDS
;	COMDAT text$x
text$x	SEGMENT
__ehhandler$??1CLabel@@UAE@XZ:
  00000	90		 npad	 1
  00001	90		 npad	 1
  00002	8b 54 24 08	 mov	 edx, DWORD PTR [esp+8]
  00006	8d 42 0c	 lea	 eax, DWORD PTR [edx+12]
  00009	8b 4a f4	 mov	 ecx, DWORD PTR [edx-12]
  0000c	33 c8		 xor	 ecx, eax
  0000e	e8 00 00 00 00	 call	 @__security_check_cookie@4
  00013	b8 00 00 00 00	 mov	 eax, OFFSET __ehfuncinfo$??1CLabel@@UAE@XZ
  00018	e9 00 00 00 00	 jmp	 ___CxxFrameHandler3
text$x	ENDS
??1CLabel@@UAE@XZ ENDP					; CLabel::~CLabel
; Function compile flags: /Ogtp
; File D:\git\src\IBK\IBK_DRFN\ProjSrc\SrcChartEx\ChartAddIn\ChartPatternAddIn\Control\Label.cpp
; File C:\Program Files (x86)\Microsoft Visual Studio\2019\Community\VC\Tools\MSVC\14.29.30133\atlmfc\include\afxwin2.inl
; File D:\git\src\IBK\IBK_DRFN\ProjSrc\SrcChartEx\ChartAddIn\ChartPatternAddIn\Control\Label.cpp
; File C:\Program Files (x86)\Microsoft Visual Studio\2019\Community\VC\Tools\MSVC\14.29.30133\atlmfc\include\afxwin2.inl
; File D:\git\src\IBK\IBK_DRFN\ProjSrc\SrcChartEx\ChartAddIn\ChartPatternAddIn\Control\Label.cpp
; File C:\Program Files (x86)\Microsoft Visual Studio\2019\Community\VC\Tools\MSVC\14.29.30133\atlmfc\include\afxwin2.inl
; File C:\Program Files (x86)\Microsoft Visual Studio\2019\Community\VC\Tools\MSVC\14.29.30133\atlmfc\include\atltypes.h
; File C:\Program Files (x86)\Microsoft Visual Studio\2019\Community\VC\Tools\MSVC\14.29.30133\atlmfc\include\afxwin2.inl
; File D:\git\src\IBK\IBK_DRFN\ProjSrc\SrcChartEx\ChartAddIn\ChartPatternAddIn\Control\Label.cpp
; File C:\Program Files (x86)\Microsoft Visual Studio\2019\Community\VC\Tools\MSVC\14.29.30133\atlmfc\include\atltypes.h
; File D:\git\src\IBK\IBK_DRFN\ProjSrc\SrcChartEx\ChartAddIn\ChartPatternAddIn\Control\Label.cpp
; File C:\Program Files (x86)\Microsoft Visual Studio\2019\Community\VC\Tools\MSVC\14.29.30133\atlmfc\include\atltypes.h
; File D:\git\src\IBK\IBK_DRFN\ProjSrc\SrcChartEx\ChartAddIn\ChartPatternAddIn\Control\Label.cpp
; File C:\Program Files (x86)\Microsoft Visual Studio\2019\Community\VC\Tools\MSVC\14.29.30133\atlmfc\include\atltypes.h
; File D:\git\src\IBK\IBK_DRFN\ProjSrc\SrcChartEx\ChartAddIn\ChartPatternAddIn\Control\Label.cpp
; File C:\Program Files (x86)\Microsoft Visual Studio\2019\Community\VC\Tools\MSVC\14.29.30133\atlmfc\include\atltypes.h
; File D:\git\src\IBK\IBK_DRFN\ProjSrc\SrcChartEx\ChartAddIn\ChartPatternAddIn\Control\Label.cpp
; File C:\Program Files (x86)\Microsoft Visual Studio\2019\Community\VC\Tools\MSVC\14.29.30133\atlmfc\include\afxwin1.inl
; File D:\git\src\IBK\IBK_DRFN\ProjSrc\SrcChartEx\ChartAddIn\ChartPatternAddIn\Control\Label.cpp
; File C:\Program Files (x86)\Microsoft Visual Studio\2019\Community\VC\Tools\MSVC\14.29.30133\atlmfc\include\afxwin1.inl
; File D:\git\src\IBK\IBK_DRFN\ProjSrc\SrcChartEx\ChartAddIn\ChartPatternAddIn\Control\Label.cpp
; File C:\Program Files (x86)\Microsoft Visual Studio\2019\Community\VC\Tools\MSVC\14.29.30133\atlmfc\include\afxwin1.inl
; File D:\git\src\IBK\IBK_DRFN\ProjSrc\SrcChartEx\ChartAddIn\ChartPatternAddIn\Control\Label.cpp
; File C:\Program Files (x86)\Microsoft Visual Studio\2019\Community\VC\Tools\MSVC\14.29.30133\atlmfc\include\afxwin1.inl
; File D:\git\src\IBK\IBK_DRFN\ProjSrc\SrcChartEx\ChartAddIn\ChartPatternAddIn\Control\Label.cpp
; File C:\Program Files (x86)\Microsoft Visual Studio\2019\Community\VC\Tools\MSVC\14.29.30133\atlmfc\include\afxwin1.inl
; File D:\git\src\IBK\IBK_DRFN\ProjSrc\SrcChartEx\ChartAddIn\ChartPatternAddIn\Control\Label.cpp
; File C:\Program Files (x86)\Microsoft Visual Studio\2019\Community\VC\Tools\MSVC\14.29.30133\atlmfc\include\afxwin1.inl
; File D:\git\src\IBK\IBK_DRFN\ProjSrc\SrcChartEx\ChartAddIn\ChartPatternAddIn\Control\Label.cpp
; File C:\Program Files (x86)\Microsoft Visual Studio\2019\Community\VC\Tools\MSVC\14.29.30133\atlmfc\include\atltypes.h
; File D:\git\src\IBK\IBK_DRFN\ProjSrc\SrcChartEx\ChartAddIn\ChartPatternAddIn\Control\Label.cpp
; File C:\Program Files (x86)\Microsoft Visual Studio\2019\Community\VC\Tools\MSVC\14.29.30133\atlmfc\include\atltypes.h
; File D:\git\src\IBK\IBK_DRFN\ProjSrc\SrcChartEx\ChartAddIn\ChartPatternAddIn\Control\Label.cpp
; File C:\Program Files (x86)\Microsoft Visual Studio\2019\Community\VC\Tools\MSVC\14.29.30133\atlmfc\include\atltypes.h
; File D:\git\src\IBK\IBK_DRFN\ProjSrc\SrcChartEx\ChartAddIn\ChartPatternAddIn\Control\Label.cpp
; File C:\Program Files (x86)\Microsoft Visual Studio\2019\Community\VC\Tools\MSVC\14.29.30133\atlmfc\include\atltypes.h
; File D:\git\src\IBK\IBK_DRFN\ProjSrc\SrcChartEx\ChartAddIn\ChartPatternAddIn\Control\Label.cpp
; File C:\Program Files (x86)\Microsoft Visual Studio\2019\Community\VC\Tools\MSVC\14.29.30133\atlmfc\include\atltypes.h
; File D:\git\src\IBK\IBK_DRFN\ProjSrc\SrcChartEx\ChartAddIn\ChartPatternAddIn\Control\Label.cpp
; File C:\Program Files (x86)\Microsoft Visual Studio\2019\Community\VC\Tools\MSVC\14.29.30133\atlmfc\include\atltypes.h
; File D:\git\src\IBK\IBK_DRFN\ProjSrc\SrcChartEx\ChartAddIn\ChartPatternAddIn\Control\Label.cpp
; File C:\Program Files (x86)\Microsoft Visual Studio\2019\Community\VC\Tools\MSVC\14.29.30133\atlmfc\include\afxwin1.inl
; File D:\git\src\IBK\IBK_DRFN\ProjSrc\SrcChartEx\ChartAddIn\ChartPatternAddIn\Control\Label.cpp
; File C:\Program Files (x86)\Microsoft Visual Studio\2019\Community\VC\Tools\MSVC\14.29.30133\atlmfc\include\afxwin1.inl
; File D:\git\src\IBK\IBK_DRFN\ProjSrc\SrcChartEx\ChartAddIn\ChartPatternAddIn\Control\Label.cpp
; File C:\Program Files (x86)\Microsoft Visual Studio\2019\Community\VC\Tools\MSVC\14.29.30133\atlmfc\include\afxwin1.inl
; File D:\git\src\IBK\IBK_DRFN\ProjSrc\SrcChartEx\ChartAddIn\ChartPatternAddIn\Control\Label.cpp
; File C:\Program Files (x86)\Microsoft Visual Studio\2019\Community\VC\Tools\MSVC\14.29.30133\atlmfc\include\afxwin1.inl
; File D:\git\src\IBK\IBK_DRFN\ProjSrc\SrcChartEx\ChartAddIn\ChartPatternAddIn\Control\Label.cpp
; File C:\Program Files (x86)\Microsoft Visual Studio\2019\Community\VC\Tools\MSVC\14.29.30133\atlmfc\include\atltypes.h
; File D:\git\src\IBK\IBK_DRFN\ProjSrc\SrcChartEx\ChartAddIn\ChartPatternAddIn\Control\Label.cpp
; File C:\Program Files (x86)\Microsoft Visual Studio\2019\Community\VC\Tools\MSVC\14.29.30133\atlmfc\include\atltypes.h
; File D:\git\src\IBK\IBK_DRFN\ProjSrc\SrcChartEx\ChartAddIn\ChartPatternAddIn\Control\Label.cpp
; File C:\Program Files (x86)\Microsoft Visual Studio\2019\Community\VC\Tools\MSVC\14.29.30133\atlmfc\include\atltypes.h
; File D:\git\src\IBK\IBK_DRFN\ProjSrc\SrcChartEx\ChartAddIn\ChartPatternAddIn\Control\Label.cpp
; File C:\Program Files (x86)\Microsoft Visual Studio\2019\Community\VC\Tools\MSVC\14.29.30133\atlmfc\include\atltypes.h
; File D:\git\src\IBK\IBK_DRFN\ProjSrc\SrcChartEx\ChartAddIn\ChartPatternAddIn\Control\Label.cpp
; File C:\Program Files (x86)\Microsoft Visual Studio\2019\Community\VC\Tools\MSVC\14.29.30133\atlmfc\include\afxwin1.inl
; File D:\git\src\IBK\IBK_DRFN\ProjSrc\SrcChartEx\ChartAddIn\ChartPatternAddIn\Control\Label.cpp
; File C:\Program Files (x86)\Microsoft Visual Studio\2019\Community\VC\Tools\MSVC\14.29.30133\atlmfc\include\afxwin1.inl
; File D:\git\src\IBK\IBK_DRFN\ProjSrc\SrcChartEx\ChartAddIn\ChartPatternAddIn\Control\Label.cpp
; File C:\Program Files (x86)\Microsoft Visual Studio\2019\Community\VC\Tools\MSVC\14.29.30133\atlmfc\include\afxwin1.inl
; File D:\git\src\IBK\IBK_DRFN\ProjSrc\SrcChartEx\ChartAddIn\ChartPatternAddIn\Control\Label.cpp
; File C:\Program Files (x86)\Microsoft Visual Studio\2019\Community\VC\Tools\MSVC\14.29.30133\atlmfc\include\afxwin1.inl
; File D:\git\src\IBK\IBK_DRFN\ProjSrc\SrcChartEx\ChartAddIn\ChartPatternAddIn\Control\Label.cpp
; File C:\Program Files (x86)\Microsoft Visual Studio\2019\Community\VC\Tools\MSVC\14.29.30133\atlmfc\include\atltypes.h
; File D:\git\src\IBK\IBK_DRFN\ProjSrc\SrcChartEx\ChartAddIn\ChartPatternAddIn\Control\Label.cpp
; File C:\Program Files (x86)\Microsoft Visual Studio\2019\Community\VC\Tools\MSVC\14.29.30133\atlmfc\include\afxwin1.inl
; File D:\git\src\IBK\IBK_DRFN\ProjSrc\SrcChartEx\ChartAddIn\ChartPatternAddIn\Control\Label.cpp
; File C:\Program Files (x86)\Microsoft Visual Studio\2019\Community\VC\Tools\MSVC\14.29.30133\atlmfc\include\afxwin1.inl
; File D:\git\src\IBK\IBK_DRFN\ProjSrc\SrcChartEx\ChartAddIn\ChartPatternAddIn\Control\Label.cpp
; File C:\Program Files (x86)\Microsoft Visual Studio\2019\Community\VC\Tools\MSVC\14.29.30133\atlmfc\include\atltypes.h
; File D:\git\src\IBK\IBK_DRFN\ProjSrc\SrcChartEx\ChartAddIn\ChartPatternAddIn\Control\Label.cpp
; File C:\Program Files (x86)\Microsoft Visual Studio\2019\Community\VC\Tools\MSVC\14.29.30133\atlmfc\include\afxwin1.inl
; File D:\git\src\IBK\IBK_DRFN\ProjSrc\SrcChartEx\ChartAddIn\ChartPatternAddIn\Control\Label.cpp
; File C:\Program Files (x86)\Microsoft Visual Studio\2019\Community\VC\Tools\MSVC\14.29.30133\atlmfc\include\afxwin1.inl
; File D:\git\src\IBK\IBK_DRFN\ProjSrc\SrcChartEx\ChartAddIn\ChartPatternAddIn\Control\Label.cpp
; File C:\Program Files (x86)\Microsoft Visual Studio\2019\Community\VC\Tools\MSVC\14.29.30133\atlmfc\include\afxwin1.inl
; File D:\git\src\IBK\IBK_DRFN\ProjSrc\SrcChartEx\ChartAddIn\ChartPatternAddIn\Control\Label.cpp
; File C:\Program Files (x86)\Microsoft Visual Studio\2019\Community\VC\Tools\MSVC\14.29.30133\atlmfc\include\afxwin1.inl
; File D:\git\src\IBK\IBK_DRFN\ProjSrc\SrcChartEx\ChartAddIn\ChartPatternAddIn\Control\Label.cpp
;	COMDAT ?SignDraw@CLabel@@QAEHPAVCWnd@@H@Z
_TEXT	SEGMENT
_dc$ = -196						; size = 20
_UpLimit$2 = -176					; size = 8
_br$3 = -168						; size = 8
_UpLimit$4 = -160					; size = 8
_br$5 = -152						; size = 8
_UpLimit$6 = -144					; size = 8
_br$7 = -136						; size = 8
_UpLimit$8 = -128					; size = 8
_br$9 = -120						; size = 8
_rect$ = -112						; size = 16
_polygon$10 = -96					; size = 56
_polygon$11 = -96					; size = 56
_polygon$12 = -40					; size = 24
_polygon$13 = -40					; size = 24
__$ArrayPad$ = -16					; size = 4
__$EHRec$ = -12						; size = 12
_pWnd$ = 8						; size = 4
_Style$ = 12						; size = 4
?SignDraw@CLabel@@QAEHPAVCWnd@@H@Z PROC			; CLabel::SignDraw, COMDAT
; _this$ = ecx

; 1323 : {

  00000	55		 push	 ebp
  00001	8b ec		 mov	 ebp, esp
  00003	6a ff		 push	 -1
  00005	68 00 00 00 00	 push	 __ehhandler$?SignDraw@CLabel@@QAEHPAVCWnd@@H@Z
  0000a	64 a1 00 00 00
	00		 mov	 eax, DWORD PTR fs:0
  00010	50		 push	 eax
  00011	81 ec b8 00 00
	00		 sub	 esp, 184		; 000000b8H
  00017	a1 00 00 00 00	 mov	 eax, DWORD PTR ___security_cookie
  0001c	33 c5		 xor	 eax, ebp
  0001e	89 45 f0	 mov	 DWORD PTR __$ArrayPad$[ebp], eax
  00021	53		 push	 ebx
  00022	56		 push	 esi
  00023	57		 push	 edi
  00024	50		 push	 eax
  00025	8d 45 f4	 lea	 eax, DWORD PTR __$EHRec$[ebp]
  00028	64 a3 00 00 00
	00		 mov	 DWORD PTR fs:0, eax
  0002e	8b 75 08	 mov	 esi, DWORD PTR _pWnd$[ebp]
; File C:\Program Files (x86)\Microsoft Visual Studio\2019\Community\VC\Tools\MSVC\14.29.30133\atlmfc\include\afxwin2.inl

; 86   : 	{ ASSERT(::IsWindow(m_hWnd)); ::GetClientRect(m_hWnd, lpRect); }

  00031	8d 45 90	 lea	 eax, DWORD PTR _rect$[ebp]
; File D:\git\src\IBK\IBK_DRFN\ProjSrc\SrcChartEx\ChartAddIn\ChartPatternAddIn\Control\Label.cpp

; 1324 : 	pStyle = Style;

  00034	8b 7d 0c	 mov	 edi, DWORD PTR _Style$[ebp]
  00037	0f 57 c0	 xorps	 xmm0, xmm0
; File C:\Program Files (x86)\Microsoft Visual Studio\2019\Community\VC\Tools\MSVC\14.29.30133\atlmfc\include\afxwin2.inl

; 86   : 	{ ASSERT(::IsWindow(m_hWnd)); ::GetClientRect(m_hWnd, lpRect); }

  0003a	50		 push	 eax
; File D:\git\src\IBK\IBK_DRFN\ProjSrc\SrcChartEx\ChartAddIn\ChartPatternAddIn\Control\Label.cpp

; 1324 : 	pStyle = Style;

  0003b	89 b9 28 01 00
	00		 mov	 DWORD PTR [ecx+296], edi
; File C:\Program Files (x86)\Microsoft Visual Studio\2019\Community\VC\Tools\MSVC\14.29.30133\atlmfc\include\afxwin2.inl

; 86   : 	{ ASSERT(::IsWindow(m_hWnd)); ::GetClientRect(m_hWnd, lpRect); }

  00041	ff 76 20	 push	 DWORD PTR [esi+32]
; File C:\Program Files (x86)\Microsoft Visual Studio\2019\Community\VC\Tools\MSVC\14.29.30133\atlmfc\include\atltypes.h

; 528  : 	left = 0;

  00044	0f 11 45 90	 movups	 XMMWORD PTR _rect$[ebp], xmm0
; File C:\Program Files (x86)\Microsoft Visual Studio\2019\Community\VC\Tools\MSVC\14.29.30133\atlmfc\include\afxwin2.inl

; 86   : 	{ ASSERT(::IsWindow(m_hWnd)); ::GetClientRect(m_hWnd, lpRect); }

  00048	ff 15 00 00 00
	00		 call	 DWORD PTR __imp__GetClientRect@8
; File D:\git\src\IBK\IBK_DRFN\ProjSrc\SrcChartEx\ChartAddIn\ChartPatternAddIn\Control\Label.cpp

; 1331 : 	CClientDC dc(m_static);

  0004e	56		 push	 esi
  0004f	8d 8d 3c ff ff
	ff		 lea	 ecx, DWORD PTR _dc$[ebp]
  00055	e8 00 00 00 00	 call	 ??0CClientDC@@QAE@PAVCWnd@@@Z ; CClientDC::CClientDC
  0005a	c7 45 fc 00 00
	00 00		 mov	 DWORD PTR __$EHRec$[ebp+8], 0

; 1332 : 
; 1333 : 	if (Style == 1)//

  00061	83 ff 01	 cmp	 edi, 1
  00064	0f 85 e9 00 00
	00		 jne	 $LN2@SignDraw
; File C:\Program Files (x86)\Microsoft Visual Studio\2019\Community\VC\Tools\MSVC\14.29.30133\atlmfc\include\atltypes.h

; 576  : 	return right - left;

  0006a	8b 75 98	 mov	 esi, DWORD PTR _rect$[ebp+8]
  0006d	8b c6		 mov	 eax, esi
  0006f	8b 5d 90	 mov	 ebx, DWORD PTR _rect$[ebp]
  00072	2b c3		 sub	 eax, ebx
; File D:\git\src\IBK\IBK_DRFN\ProjSrc\SrcChartEx\ChartAddIn\ChartPatternAddIn\Control\Label.cpp

; 1337 : 			polygon[0].y = rect.top;

  00074	8b 4d 94	 mov	 ecx, DWORD PTR _rect$[ebp+4]
  00077	99		 cdq
  00078	2b c2		 sub	 eax, edx

; 1338 : 
; 1339 : 			polygon[1].x = rect.right;

  0007a	89 75 a8	 mov	 DWORD PTR _polygon$11[ebp+8], esi
; File C:\Program Files (x86)\Microsoft Visual Studio\2019\Community\VC\Tools\MSVC\14.29.30133\atlmfc\include\atltypes.h

; 581  : 	return bottom - top;

  0007d	8b 75 9c	 mov	 esi, DWORD PTR _rect$[ebp+12]
; File D:\git\src\IBK\IBK_DRFN\ProjSrc\SrcChartEx\ChartAddIn\ChartPatternAddIn\Control\Label.cpp

; 1336 : 			polygon[0].x = rect.left + rect.Width() / 2 +1;

  00080	8d 7b 01	 lea	 edi, DWORD PTR [ebx+1]
  00083	d1 f8		 sar	 eax, 1
  00085	03 f8		 add	 edi, eax

; 1337 : 			polygon[0].y = rect.top;

  00087	89 4d a4	 mov	 DWORD PTR _polygon$11[ebp+4], ecx
; File C:\Program Files (x86)\Microsoft Visual Studio\2019\Community\VC\Tools\MSVC\14.29.30133\atlmfc\include\atltypes.h

; 581  : 	return bottom - top;

  0008a	8b c6		 mov	 eax, esi
; File D:\git\src\IBK\IBK_DRFN\ProjSrc\SrcChartEx\ChartAddIn\ChartPatternAddIn\Control\Label.cpp

; 1336 : 			polygon[0].x = rect.left + rect.Width() / 2 +1;

  0008c	89 7d a0	 mov	 DWORD PTR _polygon$11[ebp], edi
; File C:\Program Files (x86)\Microsoft Visual Studio\2019\Community\VC\Tools\MSVC\14.29.30133\atlmfc\include\atltypes.h

; 581  : 	return bottom - top;

  0008f	2b c1		 sub	 eax, ecx
; File D:\git\src\IBK\IBK_DRFN\ProjSrc\SrcChartEx\ChartAddIn\ChartPatternAddIn\Control\Label.cpp

; 1354 : 			polygon[6].x = rect.left;

  00091	89 5d d0	 mov	 DWORD PTR _polygon$11[ebp+48], ebx
  00094	99		 cdq
  00095	2b c2		 sub	 eax, edx
; File C:\Program Files (x86)\Microsoft Visual Studio\2019\Community\VC\Tools\MSVC\14.29.30133\atlmfc\include\afxwin1.inl

; 70   : 	{ m_hObject = NULL; }

  00097	c7 45 84 00 00
	00 00		 mov	 DWORD PTR _UpLimit$8[ebp+4], 0
; File D:\git\src\IBK\IBK_DRFN\ProjSrc\SrcChartEx\ChartAddIn\ChartPatternAddIn\Control\Label.cpp

; 1340 : 			polygon[1].y = rect.top + rect.Height() / 2;

  0009e	8b d0		 mov	 edx, eax
; File C:\Program Files (x86)\Microsoft Visual Studio\2019\Community\VC\Tools\MSVC\14.29.30133\atlmfc\include\afxwin1.inl

; 264  : 	{ }

  000a0	c7 45 80 00 00
	00 00		 mov	 DWORD PTR _UpLimit$8[ebp], OFFSET ??_7CRgn@@6B@
; File D:\git\src\IBK\IBK_DRFN\ProjSrc\SrcChartEx\ChartAddIn\ChartPatternAddIn\Control\Label.cpp

; 1340 : 			polygon[1].y = rect.top + rect.Height() / 2;

  000a7	d1 fa		 sar	 edx, 1

; 1341 : 
; 1342 : 			polygon[2].x = polygon[0].x + 2;
; 1343 : 			polygon[2].y = polygon[1].y;
; 1344 : 
; 1345 : 			polygon[3].x = polygon[2].x;
; 1346 : 			polygon[3].y = rect.bottom - 1;

  000a9	8d 47 fe	 lea	 eax, DWORD PTR [edi-2]
  000ac	03 d1		 add	 edx, ecx

; 1347 : 
; 1348 : 			polygon[4].x = polygon[0].x - 2; 

  000ae	89 45 c0	 mov	 DWORD PTR _polygon$11[ebp+32], eax
  000b1	8d 4f 02	 lea	 ecx, DWORD PTR [edi+2]
  000b4	89 55 ac	 mov	 DWORD PTR _polygon$11[ebp+12], edx
  000b7	89 4d b0	 mov	 DWORD PTR _polygon$11[ebp+16], ecx
  000ba	89 4d b8	 mov	 DWORD PTR _polygon$11[ebp+24], ecx
  000bd	8d 4e ff	 lea	 ecx, DWORD PTR [esi-1]
  000c0	89 55 b4	 mov	 DWORD PTR _polygon$11[ebp+20], edx
  000c3	89 4d bc	 mov	 DWORD PTR _polygon$11[ebp+28], ecx

; 1349 : 			polygon[4].y = polygon[3].y;

  000c6	89 4d c4	 mov	 DWORD PTR _polygon$11[ebp+36], ecx

; 1350 : 			
; 1351 : 			polygon[5].x = polygon[4].x;

  000c9	89 45 c8	 mov	 DWORD PTR _polygon$11[ebp+40], eax

; 1352 : 			polygon[5].y = polygon[1].y;

  000cc	89 55 cc	 mov	 DWORD PTR _polygon$11[ebp+44], edx

; 1355 : 			polygon[6].y = polygon[1].y;

  000cf	89 55 d4	 mov	 DWORD PTR _polygon$11[ebp+52], edx
; File C:\Program Files (x86)\Microsoft Visual Studio\2019\Community\VC\Tools\MSVC\14.29.30133\atlmfc\include\afxwin1.inl

; 276  : 	{ return Attach(::CreatePolygonRgn(lpPoints, nCount, nMode)); }

  000d2	6a 02		 push	 2
  000d4	6a 07		 push	 7
  000d6	8d 45 a0	 lea	 eax, DWORD PTR _polygon$11[ebp]
; File D:\git\src\IBK\IBK_DRFN\ProjSrc\SrcChartEx\ChartAddIn\ChartPatternAddIn\Control\Label.cpp

; 1357 : 			CRgn UpLimit;

  000d9	c6 45 fc 01	 mov	 BYTE PTR __$EHRec$[ebp+8], 1
; File C:\Program Files (x86)\Microsoft Visual Studio\2019\Community\VC\Tools\MSVC\14.29.30133\atlmfc\include\afxwin1.inl

; 276  : 	{ return Attach(::CreatePolygonRgn(lpPoints, nCount, nMode)); }

  000dd	50		 push	 eax
  000de	ff 15 00 00 00
	00		 call	 DWORD PTR __imp__CreatePolygonRgn@12
  000e4	50		 push	 eax
  000e5	8d 4d 80	 lea	 ecx, DWORD PTR _UpLimit$8[ebp]
  000e8	e8 00 00 00 00	 call	 ?Attach@CGdiObject@@QAEHPAX@Z ; CGdiObject::Attach

; 70   : 	{ m_hObject = NULL; }

  000ed	c7 45 8c 00 00
	00 00		 mov	 DWORD PTR _br$9[ebp+4], 0

; 128  : 	{ }

  000f4	c7 45 88 00 00
	00 00		 mov	 DWORD PTR _br$9[ebp], OFFSET ??_7CBrush@@6B@

; 132  : 	{ return Attach(::CreateSolidBrush(crColor)); }

  000fb	68 ff 19 19 00	 push	 1645055			; 001919ffH
; File D:\git\src\IBK\IBK_DRFN\ProjSrc\SrcChartEx\ChartAddIn\ChartPatternAddIn\Control\Label.cpp

; 1359 : 			CBrush br;

  00100	c6 45 fc 02	 mov	 BYTE PTR __$EHRec$[ebp+8], 2
; File C:\Program Files (x86)\Microsoft Visual Studio\2019\Community\VC\Tools\MSVC\14.29.30133\atlmfc\include\afxwin1.inl

; 132  : 	{ return Attach(::CreateSolidBrush(crColor)); }

  00104	ff 15 00 00 00
	00		 call	 DWORD PTR __imp__CreateSolidBrush@4
  0010a	50		 push	 eax
  0010b	8d 4d 88	 lea	 ecx, DWORD PTR _br$9[ebp]
  0010e	e8 00 00 00 00	 call	 ?Attach@CGdiObject@@QAEHPAX@Z ; CGdiObject::Attach

; 441  : 	{ ASSERT(m_hDC != NULL); return ::FillRgn(m_hDC, (HRGN)pRgn->GetSafeHandle(), (HBRUSH)pBrush->GetSafeHandle()); }

  00113	ff 75 8c	 push	 DWORD PTR _br$9[ebp+4]
  00116	ff 75 84	 push	 DWORD PTR _UpLimit$8[ebp+4]
  00119	ff b5 40 ff ff
	ff		 push	 DWORD PTR _dc$[ebp+4]
  0011f	ff 15 00 00 00
	00		 call	 DWORD PTR __imp__FillRgn@12
; File D:\git\src\IBK\IBK_DRFN\ProjSrc\SrcChartEx\ChartAddIn\ChartPatternAddIn\Control\Label.cpp

; 1362 : 			br.DeleteObject();

  00125	8d 4d 88	 lea	 ecx, DWORD PTR _br$9[ebp]
  00128	e8 00 00 00 00	 call	 ?DeleteObject@CGdiObject@@QAEHXZ ; CGdiObject::DeleteObject

; 1363 : 			UpLimit.DeleteObject();

  0012d	8d 4d 80	 lea	 ecx, DWORD PTR _UpLimit$8[ebp]
  00130	e8 00 00 00 00	 call	 ?DeleteObject@CGdiObject@@QAEHXZ ; CGdiObject::DeleteObject
; File C:\Program Files (x86)\Microsoft Visual Studio\2019\Community\VC\Tools\MSVC\14.29.30133\atlmfc\include\afxwin1.inl

; 130  : 	{ }

  00135	8d 4d 88	 lea	 ecx, DWORD PTR _br$9[ebp]
  00138	c7 45 88 00 00
	00 00		 mov	 DWORD PTR _br$9[ebp], OFFSET ??_7CBrush@@6B@
  0013f	e8 00 00 00 00	 call	 ??1CGdiObject@@UAE@XZ	; CGdiObject::~CGdiObject

; 266  : 	{ }

  00144	c7 45 80 00 00
	00 00		 mov	 DWORD PTR _UpLimit$8[ebp], OFFSET ??_7CRgn@@6B@
  0014b	8d 4d 80	 lea	 ecx, DWORD PTR _UpLimit$8[ebp]
; File D:\git\src\IBK\IBK_DRFN\ProjSrc\SrcChartEx\ChartAddIn\ChartPatternAddIn\Control\Label.cpp

; 1364 : 		}

  0014e	e9 1e 03 00 00	 jmp	 $LN218@SignDraw
$LN2@SignDraw:

; 1365 : 		else if (Style == 2)

  00153	83 ff 02	 cmp	 edi, 2
  00156	0f 85 f7 00 00
	00		 jne	 $LN4@SignDraw
; File C:\Program Files (x86)\Microsoft Visual Studio\2019\Community\VC\Tools\MSVC\14.29.30133\atlmfc\include\atltypes.h

; 934  : 	right -= r;

  0015c	8b 75 98	 mov	 esi, DWORD PTR _rect$[ebp+8]
  0015f	8b 5d 90	 mov	 ebx, DWORD PTR _rect$[ebp]
  00162	4e		 dec	 esi
  00163	8b 7d 94	 mov	 edi, DWORD PTR _rect$[ebp+4]
  00166	43		 inc	 ebx

; 935  : 	bottom -= b;

  00167	8b 4d 9c	 mov	 ecx, DWORD PTR _rect$[ebp+12]

; 576  : 	return right - left;

  0016a	8b c6		 mov	 eax, esi
  0016c	2b c3		 sub	 eax, ebx

; 932  : 	left += l;

  0016e	89 5d 90	 mov	 DWORD PTR _rect$[ebp], ebx
; File D:\git\src\IBK\IBK_DRFN\ProjSrc\SrcChartEx\ChartAddIn\ChartPatternAddIn\Control\Label.cpp

; 1369 : 			polygon[0].x = rect.left + rect.Width() / 2+1;

  00171	99		 cdq
; File C:\Program Files (x86)\Microsoft Visual Studio\2019\Community\VC\Tools\MSVC\14.29.30133\atlmfc\include\atltypes.h

; 935  : 	bottom -= b;

  00172	83 e9 02	 sub	 ecx, 2
; File D:\git\src\IBK\IBK_DRFN\ProjSrc\SrcChartEx\ChartAddIn\ChartPatternAddIn\Control\Label.cpp

; 1369 : 			polygon[0].x = rect.left + rect.Width() / 2+1;

  00175	2b c2		 sub	 eax, edx
; File C:\Program Files (x86)\Microsoft Visual Studio\2019\Community\VC\Tools\MSVC\14.29.30133\atlmfc\include\atltypes.h

; 934  : 	right -= r;

  00177	89 75 98	 mov	 DWORD PTR _rect$[ebp+8], esi
; File D:\git\src\IBK\IBK_DRFN\ProjSrc\SrcChartEx\ChartAddIn\ChartPatternAddIn\Control\Label.cpp

; 1369 : 			polygon[0].x = rect.left + rect.Width() / 2+1;

  0017a	d1 f8		 sar	 eax, 1
; File C:\Program Files (x86)\Microsoft Visual Studio\2019\Community\VC\Tools\MSVC\14.29.30133\atlmfc\include\atltypes.h

; 933  : 	top += t;

  0017c	83 c7 02	 add	 edi, 2
; File D:\git\src\IBK\IBK_DRFN\ProjSrc\SrcChartEx\ChartAddIn\ChartPatternAddIn\Control\Label.cpp

; 1369 : 			polygon[0].x = rect.left + rect.Width() / 2+1;

  0017f	40		 inc	 eax
; File C:\Program Files (x86)\Microsoft Visual Studio\2019\Community\VC\Tools\MSVC\14.29.30133\atlmfc\include\atltypes.h

; 933  : 	top += t;

  00180	89 7d 94	 mov	 DWORD PTR _rect$[ebp+4], edi
; File D:\git\src\IBK\IBK_DRFN\ProjSrc\SrcChartEx\ChartAddIn\ChartPatternAddIn\Control\Label.cpp

; 1369 : 			polygon[0].x = rect.left + rect.Width() / 2+1;

  00183	03 c3		 add	 eax, ebx
; File C:\Program Files (x86)\Microsoft Visual Studio\2019\Community\VC\Tools\MSVC\14.29.30133\atlmfc\include\atltypes.h

; 935  : 	bottom -= b;

  00185	89 4d 9c	 mov	 DWORD PTR _rect$[ebp+12], ecx
; File D:\git\src\IBK\IBK_DRFN\ProjSrc\SrcChartEx\ChartAddIn\ChartPatternAddIn\Control\Label.cpp

; 1369 : 			polygon[0].x = rect.left + rect.Width() / 2+1;

  00188	89 45 d8	 mov	 DWORD PTR _polygon$13[ebp], eax

; 1370 : 			polygon[0].y = rect.top;

  0018b	89 7d dc	 mov	 DWORD PTR _polygon$13[ebp+4], edi

; 1371 : 			polygon[1].x = rect.right;

  0018e	89 75 e0	 mov	 DWORD PTR _polygon$13[ebp+8], esi

; 1372 : 			polygon[1].y = rect.bottom;

  00191	89 4d e4	 mov	 DWORD PTR _polygon$13[ebp+12], ecx

; 1373 : 			polygon[2].x = rect.left;

  00194	89 5d e8	 mov	 DWORD PTR _polygon$13[ebp+16], ebx

; 1374 : 			polygon[2].y = rect.bottom;

  00197	89 4d ec	 mov	 DWORD PTR _polygon$13[ebp+20], ecx
; File C:\Program Files (x86)\Microsoft Visual Studio\2019\Community\VC\Tools\MSVC\14.29.30133\atlmfc\include\afxwin1.inl

; 70   : 	{ m_hObject = NULL; }

  0019a	c7 85 74 ff ff
	ff 00 00 00 00	 mov	 DWORD PTR _UpLimit$6[ebp+4], 0

; 264  : 	{ }

  001a4	c7 85 70 ff ff
	ff 00 00 00 00	 mov	 DWORD PTR _UpLimit$6[ebp], OFFSET ??_7CRgn@@6B@

; 276  : 	{ return Attach(::CreatePolygonRgn(lpPoints, nCount, nMode)); }

  001ae	6a 01		 push	 1
  001b0	6a 03		 push	 3
  001b2	8d 45 d8	 lea	 eax, DWORD PTR _polygon$13[ebp]
; File D:\git\src\IBK\IBK_DRFN\ProjSrc\SrcChartEx\ChartAddIn\ChartPatternAddIn\Control\Label.cpp

; 1375 : 			CRgn UpLimit;

  001b5	c6 45 fc 03	 mov	 BYTE PTR __$EHRec$[ebp+8], 3
; File C:\Program Files (x86)\Microsoft Visual Studio\2019\Community\VC\Tools\MSVC\14.29.30133\atlmfc\include\afxwin1.inl

; 276  : 	{ return Attach(::CreatePolygonRgn(lpPoints, nCount, nMode)); }

  001b9	50		 push	 eax
  001ba	ff 15 00 00 00
	00		 call	 DWORD PTR __imp__CreatePolygonRgn@12
  001c0	50		 push	 eax
  001c1	8d 8d 70 ff ff
	ff		 lea	 ecx, DWORD PTR _UpLimit$6[ebp]
  001c7	e8 00 00 00 00	 call	 ?Attach@CGdiObject@@QAEHPAX@Z ; CGdiObject::Attach

; 70   : 	{ m_hObject = NULL; }

  001cc	c7 85 7c ff ff
	ff 00 00 00 00	 mov	 DWORD PTR _br$7[ebp+4], 0

; 128  : 	{ }

  001d6	c7 85 78 ff ff
	ff 00 00 00 00	 mov	 DWORD PTR _br$7[ebp], OFFSET ??_7CBrush@@6B@

; 132  : 	{ return Attach(::CreateSolidBrush(crColor)); }

  001e0	68 ff 19 19 00	 push	 1645055			; 001919ffH
; File D:\git\src\IBK\IBK_DRFN\ProjSrc\SrcChartEx\ChartAddIn\ChartPatternAddIn\Control\Label.cpp

; 1377 : 			CBrush br;

  001e5	c6 45 fc 04	 mov	 BYTE PTR __$EHRec$[ebp+8], 4
; File C:\Program Files (x86)\Microsoft Visual Studio\2019\Community\VC\Tools\MSVC\14.29.30133\atlmfc\include\afxwin1.inl

; 132  : 	{ return Attach(::CreateSolidBrush(crColor)); }

  001e9	ff 15 00 00 00
	00		 call	 DWORD PTR __imp__CreateSolidBrush@4
  001ef	50		 push	 eax
  001f0	8d 8d 78 ff ff
	ff		 lea	 ecx, DWORD PTR _br$7[ebp]
  001f6	e8 00 00 00 00	 call	 ?Attach@CGdiObject@@QAEHPAX@Z ; CGdiObject::Attach

; 441  : 	{ ASSERT(m_hDC != NULL); return ::FillRgn(m_hDC, (HRGN)pRgn->GetSafeHandle(), (HBRUSH)pBrush->GetSafeHandle()); }

  001fb	ff b5 7c ff ff
	ff		 push	 DWORD PTR _br$7[ebp+4]
  00201	ff b5 74 ff ff
	ff		 push	 DWORD PTR _UpLimit$6[ebp+4]
  00207	ff b5 40 ff ff
	ff		 push	 DWORD PTR _dc$[ebp+4]
  0020d	ff 15 00 00 00
	00		 call	 DWORD PTR __imp__FillRgn@12
; File D:\git\src\IBK\IBK_DRFN\ProjSrc\SrcChartEx\ChartAddIn\ChartPatternAddIn\Control\Label.cpp

; 1380 : 			br.DeleteObject();

  00213	8d 8d 78 ff ff
	ff		 lea	 ecx, DWORD PTR _br$7[ebp]
  00219	e8 00 00 00 00	 call	 ?DeleteObject@CGdiObject@@QAEHXZ ; CGdiObject::DeleteObject

; 1381 : 			UpLimit.DeleteObject();

  0021e	8d 8d 70 ff ff
	ff		 lea	 ecx, DWORD PTR _UpLimit$6[ebp]
  00224	e8 00 00 00 00	 call	 ?DeleteObject@CGdiObject@@QAEHXZ ; CGdiObject::DeleteObject
; File C:\Program Files (x86)\Microsoft Visual Studio\2019\Community\VC\Tools\MSVC\14.29.30133\atlmfc\include\afxwin1.inl

; 130  : 	{ }

  00229	8d 8d 78 ff ff
	ff		 lea	 ecx, DWORD PTR _br$7[ebp]
  0022f	c7 85 78 ff ff
	ff 00 00 00 00	 mov	 DWORD PTR _br$7[ebp], OFFSET ??_7CBrush@@6B@
  00239	e8 00 00 00 00	 call	 ??1CGdiObject@@UAE@XZ	; CGdiObject::~CGdiObject

; 266  : 	{ }

  0023e	c7 85 70 ff ff
	ff 00 00 00 00	 mov	 DWORD PTR _UpLimit$6[ebp], OFFSET ??_7CRgn@@6B@
  00248	8d 8d 70 ff ff
	ff		 lea	 ecx, DWORD PTR _UpLimit$6[ebp]
; File D:\git\src\IBK\IBK_DRFN\ProjSrc\SrcChartEx\ChartAddIn\ChartPatternAddIn\Control\Label.cpp

; 1384 : 		}

  0024e	e9 1e 02 00 00	 jmp	 $LN218@SignDraw
$LN4@SignDraw:

; 1385 : 		else if (Style == 3)// 

  00253	83 ff 03	 cmp	 edi, 3
  00256	0f 84 1a 02 00
	00		 je	 $LN175@SignDraw

; 1386 : 		{
; 1387 : 			;
; 1388 : 			
; 1389 : 		}
; 1390 : 		else if (Style == 5) 

  0025c	83 ff 05	 cmp	 edi, 5
  0025f	0f 85 f5 00 00
	00		 jne	 $LN8@SignDraw
; File C:\Program Files (x86)\Microsoft Visual Studio\2019\Community\VC\Tools\MSVC\14.29.30133\atlmfc\include\atltypes.h

; 934  : 	right -= r;

  00265	8b 45 98	 mov	 eax, DWORD PTR _rect$[ebp+8]
  00268	8b 7d 90	 mov	 edi, DWORD PTR _rect$[ebp]
  0026b	48		 dec	 eax
  0026c	8b 4d 94	 mov	 ecx, DWORD PTR _rect$[ebp+4]
  0026f	47		 inc	 edi

; 935  : 	bottom -= b;

  00270	8b 75 9c	 mov	 esi, DWORD PTR _rect$[ebp+12]
  00273	83 c1 02	 add	 ecx, 2
  00276	89 45 98	 mov	 DWORD PTR _rect$[ebp+8], eax
  00279	83 ee 02	 sub	 esi, 2
; File D:\git\src\IBK\IBK_DRFN\ProjSrc\SrcChartEx\ChartAddIn\ChartPatternAddIn\Control\Label.cpp

; 1396 : 			polygon[1].x = rect.right;

  0027c	89 45 e0	 mov	 DWORD PTR _polygon$12[ebp+8], eax

; 1397 : 			polygon[1].y = rect.top;

  0027f	2b c7		 sub	 eax, edi

; 1398 : 			polygon[2].x = rect.left + rect.Width() / 2+1;

  00281	99		 cdq
  00282	2b c2		 sub	 eax, edx
; File C:\Program Files (x86)\Microsoft Visual Studio\2019\Community\VC\Tools\MSVC\14.29.30133\atlmfc\include\atltypes.h

; 932  : 	left += l;

  00284	89 7d 90	 mov	 DWORD PTR _rect$[ebp], edi
; File D:\git\src\IBK\IBK_DRFN\ProjSrc\SrcChartEx\ChartAddIn\ChartPatternAddIn\Control\Label.cpp

; 1398 : 			polygon[2].x = rect.left + rect.Width() / 2+1;

  00287	d1 f8		 sar	 eax, 1
  00289	40		 inc	 eax
; File C:\Program Files (x86)\Microsoft Visual Studio\2019\Community\VC\Tools\MSVC\14.29.30133\atlmfc\include\atltypes.h

; 933  : 	top += t;

  0028a	89 4d 94	 mov	 DWORD PTR _rect$[ebp+4], ecx
; File D:\git\src\IBK\IBK_DRFN\ProjSrc\SrcChartEx\ChartAddIn\ChartPatternAddIn\Control\Label.cpp

; 1398 : 			polygon[2].x = rect.left + rect.Width() / 2+1;

  0028d	03 c7		 add	 eax, edi
; File C:\Program Files (x86)\Microsoft Visual Studio\2019\Community\VC\Tools\MSVC\14.29.30133\atlmfc\include\atltypes.h

; 935  : 	bottom -= b;

  0028f	89 75 9c	 mov	 DWORD PTR _rect$[ebp+12], esi
; File D:\git\src\IBK\IBK_DRFN\ProjSrc\SrcChartEx\ChartAddIn\ChartPatternAddIn\Control\Label.cpp

; 1394 : 			polygon[0].x = rect.left;

  00292	89 7d d8	 mov	 DWORD PTR _polygon$12[ebp], edi

; 1395 : 			polygon[0].y = rect.top;

  00295	89 4d dc	 mov	 DWORD PTR _polygon$12[ebp+4], ecx

; 1397 : 			polygon[1].y = rect.top;

  00298	89 4d e4	 mov	 DWORD PTR _polygon$12[ebp+12], ecx

; 1398 : 			polygon[2].x = rect.left + rect.Width() / 2+1;

  0029b	89 45 e8	 mov	 DWORD PTR _polygon$12[ebp+16], eax

; 1399 : 			polygon[2].y = rect.bottom;

  0029e	89 75 ec	 mov	 DWORD PTR _polygon$12[ebp+20], esi
; File C:\Program Files (x86)\Microsoft Visual Studio\2019\Community\VC\Tools\MSVC\14.29.30133\atlmfc\include\afxwin1.inl

; 70   : 	{ m_hObject = NULL; }

  002a1	c7 85 64 ff ff
	ff 00 00 00 00	 mov	 DWORD PTR _UpLimit$4[ebp+4], 0

; 264  : 	{ }

  002ab	c7 85 60 ff ff
	ff 00 00 00 00	 mov	 DWORD PTR _UpLimit$4[ebp], OFFSET ??_7CRgn@@6B@

; 276  : 	{ return Attach(::CreatePolygonRgn(lpPoints, nCount, nMode)); }

  002b5	6a 01		 push	 1
  002b7	6a 03		 push	 3
  002b9	8d 45 d8	 lea	 eax, DWORD PTR _polygon$12[ebp]
; File D:\git\src\IBK\IBK_DRFN\ProjSrc\SrcChartEx\ChartAddIn\ChartPatternAddIn\Control\Label.cpp

; 1400 : 			CRgn UpLimit;

  002bc	c6 45 fc 05	 mov	 BYTE PTR __$EHRec$[ebp+8], 5
; File C:\Program Files (x86)\Microsoft Visual Studio\2019\Community\VC\Tools\MSVC\14.29.30133\atlmfc\include\afxwin1.inl

; 276  : 	{ return Attach(::CreatePolygonRgn(lpPoints, nCount, nMode)); }

  002c0	50		 push	 eax
  002c1	ff 15 00 00 00
	00		 call	 DWORD PTR __imp__CreatePolygonRgn@12
  002c7	50		 push	 eax
  002c8	8d 8d 60 ff ff
	ff		 lea	 ecx, DWORD PTR _UpLimit$4[ebp]
  002ce	e8 00 00 00 00	 call	 ?Attach@CGdiObject@@QAEHPAX@Z ; CGdiObject::Attach

; 70   : 	{ m_hObject = NULL; }

  002d3	c7 85 6c ff ff
	ff 00 00 00 00	 mov	 DWORD PTR _br$5[ebp+4], 0

; 128  : 	{ }

  002dd	c7 85 68 ff ff
	ff 00 00 00 00	 mov	 DWORD PTR _br$5[ebp], OFFSET ??_7CBrush@@6B@

; 132  : 	{ return Attach(::CreateSolidBrush(crColor)); }

  002e7	68 19 19 ff 00	 push	 16718105		; 00ff1919H
; File D:\git\src\IBK\IBK_DRFN\ProjSrc\SrcChartEx\ChartAddIn\ChartPatternAddIn\Control\Label.cpp

; 1402 : 			CBrush br;

  002ec	c6 45 fc 06	 mov	 BYTE PTR __$EHRec$[ebp+8], 6
; File C:\Program Files (x86)\Microsoft Visual Studio\2019\Community\VC\Tools\MSVC\14.29.30133\atlmfc\include\afxwin1.inl

; 132  : 	{ return Attach(::CreateSolidBrush(crColor)); }

  002f0	ff 15 00 00 00
	00		 call	 DWORD PTR __imp__CreateSolidBrush@4
  002f6	50		 push	 eax
  002f7	8d 8d 68 ff ff
	ff		 lea	 ecx, DWORD PTR _br$5[ebp]
  002fd	e8 00 00 00 00	 call	 ?Attach@CGdiObject@@QAEHPAX@Z ; CGdiObject::Attach

; 441  : 	{ ASSERT(m_hDC != NULL); return ::FillRgn(m_hDC, (HRGN)pRgn->GetSafeHandle(), (HBRUSH)pBrush->GetSafeHandle()); }

  00302	ff b5 6c ff ff
	ff		 push	 DWORD PTR _br$5[ebp+4]
  00308	ff b5 64 ff ff
	ff		 push	 DWORD PTR _UpLimit$4[ebp+4]
  0030e	ff b5 40 ff ff
	ff		 push	 DWORD PTR _dc$[ebp+4]
  00314	ff 15 00 00 00
	00		 call	 DWORD PTR __imp__FillRgn@12
; File D:\git\src\IBK\IBK_DRFN\ProjSrc\SrcChartEx\ChartAddIn\ChartPatternAddIn\Control\Label.cpp

; 1406 : 			br.DeleteObject();

  0031a	8d 8d 68 ff ff
	ff		 lea	 ecx, DWORD PTR _br$5[ebp]
  00320	e8 00 00 00 00	 call	 ?DeleteObject@CGdiObject@@QAEHXZ ; CGdiObject::DeleteObject

; 1407 : 			UpLimit.DeleteObject();

  00325	8d 8d 60 ff ff
	ff		 lea	 ecx, DWORD PTR _UpLimit$4[ebp]
  0032b	e8 00 00 00 00	 call	 ?DeleteObject@CGdiObject@@QAEHXZ ; CGdiObject::DeleteObject
; File C:\Program Files (x86)\Microsoft Visual Studio\2019\Community\VC\Tools\MSVC\14.29.30133\atlmfc\include\afxwin1.inl

; 130  : 	{ }

  00330	8d 8d 68 ff ff
	ff		 lea	 ecx, DWORD PTR _br$5[ebp]
  00336	c7 85 68 ff ff
	ff 00 00 00 00	 mov	 DWORD PTR _br$5[ebp], OFFSET ??_7CBrush@@6B@
  00340	e8 00 00 00 00	 call	 ??1CGdiObject@@UAE@XZ	; CGdiObject::~CGdiObject

; 266  : 	{ }

  00345	c7 85 60 ff ff
	ff 00 00 00 00	 mov	 DWORD PTR _UpLimit$4[ebp], OFFSET ??_7CRgn@@6B@
  0034f	8d 8d 60 ff ff
	ff		 lea	 ecx, DWORD PTR _UpLimit$4[ebp]
; File D:\git\src\IBK\IBK_DRFN\ProjSrc\SrcChartEx\ChartAddIn\ChartPatternAddIn\Control\Label.cpp

; 1409 : 		}

  00355	e9 17 01 00 00	 jmp	 $LN218@SignDraw
$LN8@SignDraw:

; 1410 : 		else if (Style == 4)//

  0035a	83 ff 04	 cmp	 edi, 4
  0035d	0f 85 13 01 00
	00		 jne	 $LN175@SignDraw
; File C:\Program Files (x86)\Microsoft Visual Studio\2019\Community\VC\Tools\MSVC\14.29.30133\atlmfc\include\atltypes.h

; 576  : 	return right - left;

  00363	8b 5d 98	 mov	 ebx, DWORD PTR _rect$[ebp+8]
  00366	8b c3		 mov	 eax, ebx
  00368	8b 75 90	 mov	 esi, DWORD PTR _rect$[ebp]
  0036b	2b c6		 sub	 eax, esi
; File D:\git\src\IBK\IBK_DRFN\ProjSrc\SrcChartEx\ChartAddIn\ChartPatternAddIn\Control\Label.cpp

; 1413 : 			polygon[0].x = rect.left + rect.Width() / 2 +1;

  0036d	99		 cdq
  0036e	2b c2		 sub	 eax, edx

; 1415 : 			
; 1416 : 			polygon[1].x = rect.left;

  00370	89 75 a8	 mov	 DWORD PTR _polygon$10[ebp+8], esi
  00373	d1 f8		 sar	 eax, 1
  00375	8d 7e 01	 lea	 edi, DWORD PTR [esi+1]

; 1430 : 			
; 1431 : 			polygon[6].x = rect.right;

  00378	89 5d d0	 mov	 DWORD PTR _polygon$10[ebp+48], ebx
  0037b	03 f8		 add	 edi, eax
; File C:\Program Files (x86)\Microsoft Visual Studio\2019\Community\VC\Tools\MSVC\14.29.30133\atlmfc\include\afxwin1.inl

; 70   : 	{ m_hObject = NULL; }

  0037d	c7 85 54 ff ff
	ff 00 00 00 00	 mov	 DWORD PTR _UpLimit$2[ebp+4], 0
; File D:\git\src\IBK\IBK_DRFN\ProjSrc\SrcChartEx\ChartAddIn\ChartPatternAddIn\Control\Label.cpp

; 1414 : 			polygon[0].y = rect.bottom -1;

  00387	8b 45 9c	 mov	 eax, DWORD PTR _rect$[ebp+12]
  0038a	89 7d a0	 mov	 DWORD PTR _polygon$10[ebp], edi
; File C:\Program Files (x86)\Microsoft Visual Studio\2019\Community\VC\Tools\MSVC\14.29.30133\atlmfc\include\afxwin1.inl

; 264  : 	{ }

  0038d	c7 85 50 ff ff
	ff 00 00 00 00	 mov	 DWORD PTR _UpLimit$2[ebp], OFFSET ??_7CRgn@@6B@
; File D:\git\src\IBK\IBK_DRFN\ProjSrc\SrcChartEx\ChartAddIn\ChartPatternAddIn\Control\Label.cpp

; 1414 : 			polygon[0].y = rect.bottom -1;

  00397	8d 48 ff	 lea	 ecx, DWORD PTR [eax-1]
  0039a	89 4d a4	 mov	 DWORD PTR _polygon$10[ebp+4], ecx
; File C:\Program Files (x86)\Microsoft Visual Studio\2019\Community\VC\Tools\MSVC\14.29.30133\atlmfc\include\atltypes.h

; 581  : 	return bottom - top;

  0039d	8b 4d 94	 mov	 ecx, DWORD PTR _rect$[ebp+4]
  003a0	2b c1		 sub	 eax, ecx
; File D:\git\src\IBK\IBK_DRFN\ProjSrc\SrcChartEx\ChartAddIn\ChartPatternAddIn\Control\Label.cpp

; 1417 : 			polygon[1].y = rect.top + rect.Height() / 2-1;

  003a2	99		 cdq
  003a3	2b c2		 sub	 eax, edx
  003a5	d1 f8		 sar	 eax, 1
  003a7	8d 51 ff	 lea	 edx, DWORD PTR [ecx-1]

; 1418 : 			
; 1419 : 			polygon[2].x = polygon[0].x - 2;
; 1420 : 			polygon[2].y = polygon[1].y;
; 1421 : 			
; 1422 : 			polygon[3].x = polygon[2].x;
; 1423 : 			polygon[3].y = rect.top + 1;

  003aa	41		 inc	 ecx
  003ab	03 d0		 add	 edx, eax
  003ad	89 4d bc	 mov	 DWORD PTR _polygon$10[ebp+28], ecx
  003b0	8d 47 fe	 lea	 eax, DWORD PTR [edi-2]
  003b3	89 55 ac	 mov	 DWORD PTR _polygon$10[ebp+12], edx
  003b6	89 45 b0	 mov	 DWORD PTR _polygon$10[ebp+16], eax
  003b9	89 45 b8	 mov	 DWORD PTR _polygon$10[ebp+24], eax
  003bc	8d 47 02	 lea	 eax, DWORD PTR [edi+2]
  003bf	89 55 b4	 mov	 DWORD PTR _polygon$10[ebp+20], edx

; 1424 : 			
; 1425 : 			polygon[4].x = polygon[0].x + 2; 

  003c2	89 45 c0	 mov	 DWORD PTR _polygon$10[ebp+32], eax

; 1426 : 			polygon[4].y = polygon[3].y;

  003c5	89 4d c4	 mov	 DWORD PTR _polygon$10[ebp+36], ecx

; 1427 : 			
; 1428 : 			polygon[5].x = polygon[4].x;

  003c8	89 45 c8	 mov	 DWORD PTR _polygon$10[ebp+40], eax

; 1429 : 			polygon[5].y = polygon[1].y;

  003cb	89 55 cc	 mov	 DWORD PTR _polygon$10[ebp+44], edx

; 1432 : 			polygon[6].y = polygon[1].y;

  003ce	89 55 d4	 mov	 DWORD PTR _polygon$10[ebp+52], edx
; File C:\Program Files (x86)\Microsoft Visual Studio\2019\Community\VC\Tools\MSVC\14.29.30133\atlmfc\include\afxwin1.inl

; 276  : 	{ return Attach(::CreatePolygonRgn(lpPoints, nCount, nMode)); }

  003d1	6a 02		 push	 2
  003d3	6a 07		 push	 7
  003d5	8d 45 a0	 lea	 eax, DWORD PTR _polygon$10[ebp]
; File D:\git\src\IBK\IBK_DRFN\ProjSrc\SrcChartEx\ChartAddIn\ChartPatternAddIn\Control\Label.cpp

; 1434 : 			CRgn UpLimit;

  003d8	c6 45 fc 07	 mov	 BYTE PTR __$EHRec$[ebp+8], 7
; File C:\Program Files (x86)\Microsoft Visual Studio\2019\Community\VC\Tools\MSVC\14.29.30133\atlmfc\include\afxwin1.inl

; 276  : 	{ return Attach(::CreatePolygonRgn(lpPoints, nCount, nMode)); }

  003dc	50		 push	 eax
  003dd	ff 15 00 00 00
	00		 call	 DWORD PTR __imp__CreatePolygonRgn@12
  003e3	50		 push	 eax
  003e4	8d 8d 50 ff ff
	ff		 lea	 ecx, DWORD PTR _UpLimit$2[ebp]
  003ea	e8 00 00 00 00	 call	 ?Attach@CGdiObject@@QAEHPAX@Z ; CGdiObject::Attach

; 70   : 	{ m_hObject = NULL; }

  003ef	c7 85 5c ff ff
	ff 00 00 00 00	 mov	 DWORD PTR _br$3[ebp+4], 0

; 128  : 	{ }

  003f9	c7 85 58 ff ff
	ff 00 00 00 00	 mov	 DWORD PTR _br$3[ebp], OFFSET ??_7CBrush@@6B@

; 132  : 	{ return Attach(::CreateSolidBrush(crColor)); }

  00403	68 19 19 ff 00	 push	 16718105		; 00ff1919H
; File D:\git\src\IBK\IBK_DRFN\ProjSrc\SrcChartEx\ChartAddIn\ChartPatternAddIn\Control\Label.cpp

; 1436 : 			CBrush br;

  00408	c6 45 fc 08	 mov	 BYTE PTR __$EHRec$[ebp+8], 8
; File C:\Program Files (x86)\Microsoft Visual Studio\2019\Community\VC\Tools\MSVC\14.29.30133\atlmfc\include\afxwin1.inl

; 132  : 	{ return Attach(::CreateSolidBrush(crColor)); }

  0040c	ff 15 00 00 00
	00		 call	 DWORD PTR __imp__CreateSolidBrush@4
  00412	50		 push	 eax
  00413	8d 8d 58 ff ff
	ff		 lea	 ecx, DWORD PTR _br$3[ebp]
  00419	e8 00 00 00 00	 call	 ?Attach@CGdiObject@@QAEHPAX@Z ; CGdiObject::Attach

; 441  : 	{ ASSERT(m_hDC != NULL); return ::FillRgn(m_hDC, (HRGN)pRgn->GetSafeHandle(), (HBRUSH)pBrush->GetSafeHandle()); }

  0041e	ff b5 5c ff ff
	ff		 push	 DWORD PTR _br$3[ebp+4]
  00424	ff b5 54 ff ff
	ff		 push	 DWORD PTR _UpLimit$2[ebp+4]
  0042a	ff b5 40 ff ff
	ff		 push	 DWORD PTR _dc$[ebp+4]
  00430	ff 15 00 00 00
	00		 call	 DWORD PTR __imp__FillRgn@12
; File D:\git\src\IBK\IBK_DRFN\ProjSrc\SrcChartEx\ChartAddIn\ChartPatternAddIn\Control\Label.cpp

; 1439 : 			br.DeleteObject();

  00436	8d 8d 58 ff ff
	ff		 lea	 ecx, DWORD PTR _br$3[ebp]
  0043c	e8 00 00 00 00	 call	 ?DeleteObject@CGdiObject@@QAEHXZ ; CGdiObject::DeleteObject

; 1440 : 			UpLimit.DeleteObject();			

  00441	8d 8d 50 ff ff
	ff		 lea	 ecx, DWORD PTR _UpLimit$2[ebp]
  00447	e8 00 00 00 00	 call	 ?DeleteObject@CGdiObject@@QAEHXZ ; CGdiObject::DeleteObject
; File C:\Program Files (x86)\Microsoft Visual Studio\2019\Community\VC\Tools\MSVC\14.29.30133\atlmfc\include\afxwin1.inl

; 130  : 	{ }

  0044c	8d 8d 58 ff ff
	ff		 lea	 ecx, DWORD PTR _br$3[ebp]
  00452	c7 85 58 ff ff
	ff 00 00 00 00	 mov	 DWORD PTR _br$3[ebp], OFFSET ??_7CBrush@@6B@
  0045c	e8 00 00 00 00	 call	 ??1CGdiObject@@UAE@XZ	; CGdiObject::~CGdiObject

; 266  : 	{ }

  00461	c7 85 50 ff ff
	ff 00 00 00 00	 mov	 DWORD PTR _UpLimit$2[ebp], OFFSET ??_7CRgn@@6B@
  0046b	8d 8d 50 ff ff
	ff		 lea	 ecx, DWORD PTR _UpLimit$2[ebp]
$LN218@SignDraw:
; File D:\git\src\IBK\IBK_DRFN\ProjSrc\SrcChartEx\ChartAddIn\ChartPatternAddIn\Control\Label.cpp

; 1442 : 		return true;

  00471	e8 00 00 00 00	 call	 ??1CGdiObject@@UAE@XZ	; CGdiObject::~CGdiObject
$LN175@SignDraw:
  00476	8d 8d 3c ff ff
	ff		 lea	 ecx, DWORD PTR _dc$[ebp]
  0047c	e8 00 00 00 00	 call	 ??1CClientDC@@UAE@XZ	; CClientDC::~CClientDC
  00481	b8 01 00 00 00	 mov	 eax, 1

; 1443 : }

  00486	8b 4d f4	 mov	 ecx, DWORD PTR __$EHRec$[ebp]
  00489	64 89 0d 00 00
	00 00		 mov	 DWORD PTR fs:0, ecx
  00490	59		 pop	 ecx
  00491	5f		 pop	 edi
  00492	5e		 pop	 esi
  00493	5b		 pop	 ebx
  00494	8b 4d f0	 mov	 ecx, DWORD PTR __$ArrayPad$[ebp]
  00497	33 cd		 xor	 ecx, ebp
  00499	e8 00 00 00 00	 call	 @__security_check_cookie@4
  0049e	8b e5		 mov	 esp, ebp
  004a0	5d		 pop	 ebp
  004a1	c2 08 00	 ret	 8
_TEXT	ENDS
;	COMDAT text$x
text$x	SEGMENT
__unwindfunclet$?SignDraw@CLabel@@QAEHPAVCWnd@@H@Z$0:
  00000	8d 8d 3c ff ff
	ff		 lea	 ecx, DWORD PTR _dc$[ebp]
  00006	e9 00 00 00 00	 jmp	 ??1CClientDC@@UAE@XZ	; CClientDC::~CClientDC
__unwindfunclet$?SignDraw@CLabel@@QAEHPAVCWnd@@H@Z$1:
  0000b	8d 4d 80	 lea	 ecx, DWORD PTR _UpLimit$8[ebp]
  0000e	e9 00 00 00 00	 jmp	 ??1CRgn@@UAE@XZ		; CRgn::~CRgn
__unwindfunclet$?SignDraw@CLabel@@QAEHPAVCWnd@@H@Z$2:
  00013	8d 4d 88	 lea	 ecx, DWORD PTR _br$9[ebp]
  00016	e9 00 00 00 00	 jmp	 ??1CBrush@@UAE@XZ	; CBrush::~CBrush
__unwindfunclet$?SignDraw@CLabel@@QAEHPAVCWnd@@H@Z$3:
  0001b	8d 8d 70 ff ff
	ff		 lea	 ecx, DWORD PTR _UpLimit$6[ebp]
  00021	e9 00 00 00 00	 jmp	 ??1CRgn@@UAE@XZ		; CRgn::~CRgn
__unwindfunclet$?SignDraw@CLabel@@QAEHPAVCWnd@@H@Z$4:
  00026	8d 8d 78 ff ff
	ff		 lea	 ecx, DWORD PTR _br$7[ebp]
  0002c	e9 00 00 00 00	 jmp	 ??1CBrush@@UAE@XZ	; CBrush::~CBrush
__unwindfunclet$?SignDraw@CLabel@@QAEHPAVCWnd@@H@Z$5:
  00031	8d 8d 60 ff ff
	ff		 lea	 ecx, DWORD PTR _UpLimit$4[ebp]
  00037	e9 00 00 00 00	 jmp	 ??1CRgn@@UAE@XZ		; CRgn::~CRgn
__unwindfunclet$?SignDraw@CLabel@@QAEHPAVCWnd@@H@Z$6:
  0003c	8d 8d 68 ff ff
	ff		 lea	 ecx, DWORD PTR _br$5[ebp]
  00042	e9 00 00 00 00	 jmp	 ??1CBrush@@UAE@XZ	; CBrush::~CBrush
__unwindfunclet$?SignDraw@CLabel@@QAEHPAVCWnd@@H@Z$7:
  00047	8d 8d 50 ff ff
	ff		 lea	 ecx, DWORD PTR _UpLimit$2[ebp]
  0004d	e9 00 00 00 00	 jmp	 ??1CRgn@@UAE@XZ		; CRgn::~CRgn
__unwindfunclet$?SignDraw@CLabel@@QAEHPAVCWnd@@H@Z$8:
  00052	8d 8d 58 ff ff
	ff		 lea	 ecx, DWORD PTR _br$3[ebp]
  00058	e9 00 00 00 00	 jmp	 ??1CBrush@@UAE@XZ	; CBrush::~CBrush
  0005d	cc		 int	 3
  0005e	cc		 int	 3
  0005f	cc		 int	 3
  00060	cc		 int	 3
  00061	cc		 int	 3
__ehhandler$?SignDraw@CLabel@@QAEHPAVCWnd@@H@Z:
  00062	90		 npad	 1
  00063	90		 npad	 1
  00064	8b 54 24 08	 mov	 edx, DWORD PTR [esp+8]
  00068	8d 42 0c	 lea	 eax, DWORD PTR [edx+12]
  0006b	8b 8a 38 ff ff
	ff		 mov	 ecx, DWORD PTR [edx-200]
  00071	33 c8		 xor	 ecx, eax
  00073	e8 00 00 00 00	 call	 @__security_check_cookie@4
  00078	8b 4a fc	 mov	 ecx, DWORD PTR [edx-4]
  0007b	33 c8		 xor	 ecx, eax
  0007d	e8 00 00 00 00	 call	 @__security_check_cookie@4
  00082	b8 00 00 00 00	 mov	 eax, OFFSET __ehfuncinfo$?SignDraw@CLabel@@QAEHPAVCWnd@@H@Z
  00087	e9 00 00 00 00	 jmp	 ___CxxFrameHandler3
text$x	ENDS
?SignDraw@CLabel@@QAEHPAVCWnd@@H@Z ENDP			; CLabel::SignDraw
; Function compile flags: /Ogtp
; File D:\git\src\IBK\IBK_DRFN\ProjSrc\SrcChartEx\ChartAddIn\ChartPatternAddIn\Control\Label.cpp
;	COMDAT ?PreCreateWindow@CLabel@@MAEHAAUtagCREATESTRUCTA@@@Z
_TEXT	SEGMENT
_cs$ = 8						; size = 4
?PreCreateWindow@CLabel@@MAEHAAUtagCREATESTRUCTA@@@Z PROC ; CLabel::PreCreateWindow, COMDAT
; _this$ = ecx

; 1240 : {	

  00000	55		 push	 ebp
  00001	8b ec		 mov	 ebp, esp

; 1242 : }

  00003	5d		 pop	 ebp

; 1241 : 	return CStatic::PreCreateWindow(cs);

  00004	e9 00 00 00 00	 jmp	 ?PreCreateWindow@CWnd@@UAEHAAUtagCREATESTRUCTA@@@Z ; CWnd::PreCreateWindow
?PreCreateWindow@CLabel@@MAEHAAUtagCREATESTRUCTA@@@Z ENDP ; CLabel::PreCreateWindow
_TEXT	ENDS
; Function compile flags: /Ogtp
; File D:\git\src\IBK\IBK_DRFN\ProjSrc\SrcChartEx\ChartAddIn\ChartPatternAddIn\Control\Label.cpp
; File C:\Program Files (x86)\Microsoft Visual Studio\2019\Community\VC\Tools\MSVC\14.29.30133\atlmfc\include\afxwin2.inl
; File C:\Program Files (x86)\Microsoft Visual Studio\2019\Community\VC\Tools\MSVC\14.29.30133\atlmfc\include\afxwin1.inl
; File D:\git\src\IBK\IBK_DRFN\ProjSrc\SrcChartEx\ChartAddIn\ChartPatternAddIn\Control\Label.cpp
; File C:\Program Files (x86)\Microsoft Visual Studio\2019\Community\VC\Tools\MSVC\14.29.30133\atlmfc\include\afxwin1.inl
; File D:\git\src\IBK\IBK_DRFN\ProjSrc\SrcChartEx\ChartAddIn\ChartPatternAddIn\Control\Label.cpp
; File C:\Program Files (x86)\Microsoft Visual Studio\2019\Community\VC\Tools\MSVC\14.29.30133\atlmfc\include\afxwin1.inl
; File D:\git\src\IBK\IBK_DRFN\ProjSrc\SrcChartEx\ChartAddIn\ChartPatternAddIn\Control\Label.cpp
;	COMDAT ?PreSubclassWindow@CLabel@@MAEXXZ
_TEXT	SEGMENT
?PreSubclassWindow@CLabel@@MAEXXZ PROC			; CLabel::PreSubclassWindow, COMDAT
; _this$ = ecx

; 1212 : {

  00000	56		 push	 esi
  00001	57		 push	 edi
  00002	8b f1		 mov	 esi, ecx

; 1213 : 
; 1214 : 	CStatic::PreSubclassWindow();

  00004	e8 00 00 00 00	 call	 ?PreSubclassWindow@CWnd@@UAEXXZ ; CWnd::PreSubclassWindow
; File C:\Program Files (x86)\Microsoft Visual Studio\2019\Community\VC\Tools\MSVC\14.29.30133\atlmfc\include\afxwin2.inl

; 45   : 	{ ASSERT(::IsWindow(m_hWnd)); return CFont::FromHandle(

  00009	6a 00		 push	 0
  0000b	6a 00		 push	 0
  0000d	6a 31		 push	 49			; 00000031H
  0000f	ff 76 20	 push	 DWORD PTR [esi+32]
  00012	ff 15 00 00 00
	00		 call	 DWORD PTR __imp__SendMessageA@16
; File C:\Program Files (x86)\Microsoft Visual Studio\2019\Community\VC\Tools\MSVC\14.29.30133\atlmfc\include\afxwin1.inl

; 151  : 	{ return (CFont*) CGdiObject::FromHandle(hFont); }

  00018	50		 push	 eax
  00019	e8 00 00 00 00	 call	 ?FromHandle@CGdiObject@@SGPAV1@PAX@Z ; CGdiObject::FromHandle
; File D:\git\src\IBK\IBK_DRFN\ProjSrc\SrcChartEx\ChartAddIn\ChartPatternAddIn\Control\Label.cpp

; 1216 : 	GetFont()->GetObject(sizeof(m_lf),&m_lf);

  0001e	8d be a0 00 00
	00		 lea	 edi, DWORD PTR [esi+160]
; File C:\Program Files (x86)\Microsoft Visual Studio\2019\Community\VC\Tools\MSVC\14.29.30133\atlmfc\include\afxwin1.inl

; 81   : 	{ ASSERT(m_hObject != NULL); return ::GetObject(m_hObject, nCount, lpObject); }

  00024	57		 push	 edi
  00025	6a 3c		 push	 60			; 0000003cH
  00027	ff 70 04	 push	 DWORD PTR [eax+4]
  0002a	ff 15 00 00 00
	00		 call	 DWORD PTR __imp__GetObjectA@12
; File D:\git\src\IBK\IBK_DRFN\ProjSrc\SrcChartEx\ChartAddIn\ChartPatternAddIn\Control\Label.cpp

; 205  : 	m_font.DeleteObject();

  00030	8d 8e dc 00 00
	00		 lea	 ecx, DWORD PTR [esi+220]
  00036	e8 00 00 00 00	 call	 ?DeleteObject@CGdiObject@@QAEHXZ ; CGdiObject::DeleteObject
; File C:\Program Files (x86)\Microsoft Visual Studio\2019\Community\VC\Tools\MSVC\14.29.30133\atlmfc\include\afxwin1.inl

; 157  : 	{ return Attach(::CreateFontIndirect(lpLogFont)); }

  0003b	57		 push	 edi
  0003c	ff 15 00 00 00
	00		 call	 DWORD PTR __imp__CreateFontIndirectA@4
  00042	50		 push	 eax
  00043	8d 8e dc 00 00
	00		 lea	 ecx, DWORD PTR [esi+220]
  00049	e8 00 00 00 00	 call	 ?Attach@CGdiObject@@QAEHPAX@Z ; CGdiObject::Attach
  0004e	5f		 pop	 edi
  0004f	5e		 pop	 esi
; File D:\git\src\IBK\IBK_DRFN\ProjSrc\SrcChartEx\ChartAddIn\ChartPatternAddIn\Control\Label.cpp

; 1220 : }

  00050	c3		 ret	 0
?PreSubclassWindow@CLabel@@MAEXXZ ENDP			; CLabel::PreSubclassWindow
_TEXT	ENDS
; Function compile flags: /Ogtp
; File D:\git\src\IBK\IBK_DRFN\ProjSrc\SrcChartEx\ChartAddIn\ChartPatternAddIn\Control\Label.cpp
; File C:\Program Files (x86)\Microsoft Visual Studio\2019\Community\VC\Tools\MSVC\14.29.30133\atlmfc\include\atltypes.h
; File D:\git\src\IBK\IBK_DRFN\ProjSrc\SrcChartEx\ChartAddIn\ChartPatternAddIn\Control\Label.cpp
; File C:\Program Files (x86)\Microsoft Visual Studio\2019\Community\VC\Tools\MSVC\14.29.30133\atlmfc\include\atltypes.h
; File D:\git\src\IBK\IBK_DRFN\ProjSrc\SrcChartEx\ChartAddIn\ChartPatternAddIn\Control\Label.cpp
; File C:\Program Files (x86)\Microsoft Visual Studio\2019\Community\VC\Tools\MSVC\14.29.30133\atlmfc\include\atltypes.h
; File D:\git\src\IBK\IBK_DRFN\ProjSrc\SrcChartEx\ChartAddIn\ChartPatternAddIn\Control\Label.cpp
; File C:\Program Files (x86)\Microsoft Visual Studio\2019\Community\VC\Tools\MSVC\14.29.30133\atlmfc\include\afxwin1.inl
; File D:\git\src\IBK\IBK_DRFN\ProjSrc\SrcChartEx\ChartAddIn\ChartPatternAddIn\Control\Label.cpp
; File C:\Program Files (x86)\Microsoft Visual Studio\2019\Community\VC\Tools\MSVC\14.29.30133\atlmfc\include\afxwin1.inl
; File D:\git\src\IBK\IBK_DRFN\ProjSrc\SrcChartEx\ChartAddIn\ChartPatternAddIn\Control\Label.cpp
; File C:\Program Files (x86)\Microsoft Visual Studio\2019\Community\VC\Tools\MSVC\14.29.30133\atlmfc\include\afxwin1.inl
; File D:\git\src\IBK\IBK_DRFN\ProjSrc\SrcChartEx\ChartAddIn\ChartPatternAddIn\Control\Label.cpp
; File C:\Program Files (x86)\Microsoft Visual Studio\2019\Community\VC\Tools\MSVC\14.29.30133\atlmfc\include\afxwin1.inl
; File D:\git\src\IBK\IBK_DRFN\ProjSrc\SrcChartEx\ChartAddIn\ChartPatternAddIn\Control\Label.cpp
;	COMDAT ?DrawGradientFill@CLabel@@IAEXPAVCDC@@PAVCRect@@KKH@Z
_TEXT	SEGMENT
_br$2 = -48						; size = 8
_nCX$1$ = -40						; size = 4
tv437 = -36						; size = 4
_ndB$1$ = -32						; size = 4
_ndG$1$ = -28						; size = 4
_ndR$1$ = -24						; size = 4
_nG$2$ = -20						; size = 4
_nB$2$ = -16						; size = 4
__$EHRec$ = -12						; size = 12
_pDC$ = 8						; size = 4
_pRect$ = 12						; size = 4
_nR$2$ = 16						; size = 4
_crStart$ = 16						; size = 4
_nLeft$1$ = 20						; size = 4
_crEnd$ = 20						; size = 4
_nSegments$ = 24					; size = 4
?DrawGradientFill@CLabel@@IAEXPAVCDC@@PAVCRect@@KKH@Z PROC ; CLabel::DrawGradientFill, COMDAT
; _this$ = ecx

; 1262 : {

  00000	55		 push	 ebp
  00001	8b ec		 mov	 ebp, esp
  00003	6a ff		 push	 -1
  00005	68 00 00 00 00	 push	 __ehhandler$?DrawGradientFill@CLabel@@IAEXPAVCDC@@PAVCRect@@KKH@Z
  0000a	64 a1 00 00 00
	00		 mov	 eax, DWORD PTR fs:0
  00010	50		 push	 eax
  00011	83 ec 24	 sub	 esp, 36			; 00000024H
  00014	53		 push	 ebx
  00015	56		 push	 esi
  00016	57		 push	 edi
  00017	a1 00 00 00 00	 mov	 eax, DWORD PTR ___security_cookie
  0001c	33 c5		 xor	 eax, ebp
  0001e	50		 push	 eax
  0001f	8d 45 f4	 lea	 eax, DWORD PTR __$EHRec$[ebp]
  00022	64 a3 00 00 00
	00		 mov	 DWORD PTR fs:0, eax

; 1263 : 	// Get the starting RGB values and calculate the incremental
; 1264 : 	// changes to be applied.
; 1265 : 
; 1266 : 	COLORREF cr;
; 1267 : 	int nR = GetRValue(crStart);

  00028	8b 45 10	 mov	 eax, DWORD PTR _crStart$[ebp]
  0002b	0f b6 c8	 movzx	 ecx, al
  0002e	89 4d 10	 mov	 DWORD PTR _nR$2$[ebp], ecx

; 1268 : 	int nG = GetGValue(crStart);

  00031	0f b7 c8	 movzx	 ecx, ax

; 1269 : 	int nB = GetBValue(crStart);

  00034	c1 e8 10	 shr	 eax, 16			; 00000010H
  00037	0f b6 c0	 movzx	 eax, al
  0003a	89 45 f0	 mov	 DWORD PTR _nB$2$[ebp], eax
  0003d	c1 e9 08	 shr	 ecx, 8
  00040	89 4d ec	 mov	 DWORD PTR _nG$2$[ebp], ecx

; 1270 : 
; 1271 : 	int neB = GetBValue(crEnd);

  00043	8b 4d 14	 mov	 ecx, DWORD PTR _crEnd$[ebp]
  00046	8b c1		 mov	 eax, ecx
  00048	c1 e8 10	 shr	 eax, 16			; 00000010H
  0004b	0f b6 f8	 movzx	 edi, al

; 1272 : 	int neG = GetGValue(crEnd);

  0004e	0f b7 f1	 movzx	 esi, cx

; 1273 : 	int neR = GetRValue(crEnd);

  00051	0f b6 c1	 movzx	 eax, cl
; File C:\Program Files (x86)\Microsoft Visual Studio\2019\Community\VC\Tools\MSVC\14.29.30133\atlmfc\include\atltypes.h

; 576  : 	return right - left;

  00054	8b 4d 0c	 mov	 ecx, DWORD PTR _pRect$[ebp]
; File D:\git\src\IBK\IBK_DRFN\ProjSrc\SrcChartEx\ChartAddIn\ChartPatternAddIn\Control\Label.cpp

; 1272 : 	int neG = GetGValue(crEnd);

  00057	c1 ee 08	 shr	 esi, 8

; 1295 : 	pDC->SelectStockObject(NULL_PEN);

  0005a	6a 08		 push	 8
; File C:\Program Files (x86)\Microsoft Visual Studio\2019\Community\VC\Tools\MSVC\14.29.30133\atlmfc\include\atltypes.h

; 576  : 	return right - left;

  0005c	8b 11		 mov	 edx, DWORD PTR [ecx]
  0005e	8b 59 08	 mov	 ebx, DWORD PTR [ecx+8]
; File D:\git\src\IBK\IBK_DRFN\ProjSrc\SrcChartEx\ChartAddIn\ChartPatternAddIn\Control\Label.cpp

; 1282 : 	int ndR = 256 * (nDiffR) / (max(nSegments,1));

  00061	b9 01 00 00 00	 mov	 ecx, 1
; File C:\Program Files (x86)\Microsoft Visual Studio\2019\Community\VC\Tools\MSVC\14.29.30133\atlmfc\include\atltypes.h

; 576  : 	return right - left;

  00066	2b da		 sub	 ebx, edx
  00068	89 55 14	 mov	 DWORD PTR _nLeft$1$[ebp], edx
; File D:\git\src\IBK\IBK_DRFN\ProjSrc\SrcChartEx\ChartAddIn\ChartPatternAddIn\Control\Label.cpp

; 1275 : 	if(nSegments > pRect->Width())

  0006b	8b 55 18	 mov	 edx, DWORD PTR _nSegments$[ebp]
  0006e	3b d3		 cmp	 edx, ebx
  00070	0f 4f d3	 cmovg	 edx, ebx

; 1276 : 		nSegments = pRect->Width();
; 1277 : 
; 1278 : 	int nDiffR = (neR - nR);

  00073	2b 45 10	 sub	 eax, DWORD PTR _nR$2$[ebp]

; 1279 : 	int nDiffG = (neG - nG);
; 1280 : 	int nDiffB = (neB - nB);

  00076	2b 7d f0	 sub	 edi, DWORD PTR _nB$2$[ebp]
  00079	2b 75 ec	 sub	 esi, DWORD PTR _nG$2$[ebp]

; 1282 : 	int ndR = 256 * (nDiffR) / (max(nSegments,1));

  0007c	3b d1		 cmp	 edx, ecx
  0007e	89 55 18	 mov	 DWORD PTR _nSegments$[ebp], edx
  00081	0f 4f ca	 cmovg	 ecx, edx
  00084	c1 e0 08	 shl	 eax, 8
  00087	99		 cdq
  00088	f7 f9		 idiv	 ecx

; 1283 : 	int ndG = 256 * (nDiffG) / (max(nSegments,1));

  0008a	c1 e6 08	 shl	 esi, 8
  0008d	89 45 e8	 mov	 DWORD PTR _ndR$1$[ebp], eax
  00090	8b c6		 mov	 eax, esi
  00092	99		 cdq
  00093	f7 f9		 idiv	 ecx

; 1284 : 	int ndB = 256 * (nDiffB) / (max(nSegments,1));

  00095	c1 e7 08	 shl	 edi, 8
  00098	89 45 e4	 mov	 DWORD PTR _ndG$1$[ebp], eax
  0009b	8b c7		 mov	 eax, edi
  0009d	99		 cdq
  0009e	f7 f9		 idiv	 ecx

; 1285 : 
; 1286 : 	nR *= 256;
; 1287 : 	nG *= 256;

  000a0	8b 7d ec	 mov	 edi, DWORD PTR _nG$2$[ebp]
  000a3	89 45 e0	 mov	 DWORD PTR _ndB$1$[ebp], eax

; 1288 : 	nB *= 256;
; 1289 : 
; 1290 : 	neR *= 256;
; 1291 : 	neG *= 256;
; 1292 : 	neB *= 256;
; 1293 : 
; 1294 : 	int nCX = pRect->Width() / max(nSegments,1), nLeft = pRect->left, nRight;

  000a6	8b c3		 mov	 eax, ebx
  000a8	99		 cdq
  000a9	f7 f9		 idiv	 ecx
  000ab	c1 65 10 08	 shl	 DWORD PTR _nR$2$[ebp], 8
  000af	c1 65 f0 08	 shl	 DWORD PTR _nB$2$[ebp], 8
  000b3	8b f0		 mov	 esi, eax

; 1295 : 	pDC->SelectStockObject(NULL_PEN);

  000b5	8b 45 08	 mov	 eax, DWORD PTR _pDC$[ebp]
  000b8	8b c8		 mov	 ecx, eax
  000ba	c1 e7 08	 shl	 edi, 8
  000bd	89 7d ec	 mov	 DWORD PTR _nG$2$[ebp], edi
  000c0	89 75 d8	 mov	 DWORD PTR _nCX$1$[ebp], esi
  000c3	8b 10		 mov	 edx, DWORD PTR [eax]
  000c5	ff 52 2c	 call	 DWORD PTR [edx+44]

; 1297 : 	for (int i = 0; i < nSegments; i++, nR += ndR, nG += ndG, nB += ndB)

  000c8	8b 45 18	 mov	 eax, DWORD PTR _nSegments$[ebp]
  000cb	33 db		 xor	 ebx, ebx
  000cd	85 c0		 test	 eax, eax
  000cf	0f 8e dc 00 00
	00		 jle	 $LN3@DrawGradie
  000d5	8d 48 ff	 lea	 ecx, DWORD PTR [eax-1]
  000d8	8b 45 14	 mov	 eax, DWORD PTR _nLeft$1$[ebp]
  000db	89 4d dc	 mov	 DWORD PTR tv437[ebp], ecx
  000de	66 90		 npad	 2
$LL4@DrawGradie:

; 1298 : 	{
; 1299 : 		// Use special code for the last segment to avoid any problems
; 1300 : 		// with integer division.
; 1301 : 
; 1302 : 		if (i == (nSegments - 1))

  000e0	3b d9		 cmp	 ebx, ecx
  000e2	75 08		 jne	 SHORT $LN6@DrawGradie

; 1303 : 			nRight = pRect->right;

  000e4	8b 75 0c	 mov	 esi, DWORD PTR _pRect$[ebp]
  000e7	8b 76 08	 mov	 esi, DWORD PTR [esi+8]
  000ea	eb 02		 jmp	 SHORT $LN7@DrawGradie
$LN6@DrawGradie:

; 1304 : 		else
; 1305 : 			nRight = nLeft + nCX;

  000ec	03 f0		 add	 esi, eax
$LN7@DrawGradie:

; 1306 : 
; 1307 : 		cr = RGB(nR / 256, nG / 256, nB / 256);

  000ee	8b 45 f0	 mov	 eax, DWORD PTR _nB$2$[ebp]
  000f1	99		 cdq
  000f2	81 e2 ff 00 00
	00		 and	 edx, 255		; 000000ffH
  000f8	03 c2		 add	 eax, edx
  000fa	c1 f8 08	 sar	 eax, 8
  000fd	0f b6 c8	 movzx	 ecx, al
  00100	8b c7		 mov	 eax, edi
  00102	99		 cdq
  00103	81 e2 ff 00 00
	00		 and	 edx, 255		; 000000ffH
  00109	c1 e1 08	 shl	 ecx, 8
  0010c	03 c2		 add	 eax, edx
  0010e	c1 f8 08	 sar	 eax, 8
  00111	0f b6 c0	 movzx	 eax, al
  00114	0b c8		 or	 ecx, eax
  00116	8b 45 10	 mov	 eax, DWORD PTR _nR$2$[ebp]
  00119	99		 cdq
  0011a	81 e2 ff 00 00
	00		 and	 edx, 255		; 000000ffH
  00120	c1 e1 08	 shl	 ecx, 8
  00123	03 c2		 add	 eax, edx
  00125	c1 f8 08	 sar	 eax, 8
  00128	0f b6 c0	 movzx	 eax, al
  0012b	0b c8		 or	 ecx, eax

; 1308 : 		
; 1309 : 		{
; 1310 : 			CBrush br(cr);

  0012d	51		 push	 ecx
  0012e	8d 4d d0	 lea	 ecx, DWORD PTR _br$2[ebp]
  00131	e8 00 00 00 00	 call	 ??0CBrush@@QAE@K@Z	; CBrush::CBrush

; 1311 : 			CBrush* pbrOld = pDC->SelectObject(&br);

  00136	8b 4d 08	 mov	 ecx, DWORD PTR _pDC$[ebp]
  00139	8d 45 d0	 lea	 eax, DWORD PTR _br$2[ebp]
  0013c	50		 push	 eax
  0013d	c7 45 fc 00 00
	00 00		 mov	 DWORD PTR __$EHRec$[ebp+8], 0
  00144	e8 00 00 00 00	 call	 ?SelectObject@CDC@@QAEPAVCBrush@@PAV2@@Z ; CDC::SelectObject
; File C:\Program Files (x86)\Microsoft Visual Studio\2019\Community\VC\Tools\MSVC\14.29.30133\atlmfc\include\afxwin1.inl

; 539  : 	{ ASSERT(m_hDC != NULL); return ::Rectangle(m_hDC, x1, y1, x2, y2); }

  00149	8b 55 14	 mov	 edx, DWORD PTR _nLeft$1$[ebp]
; File D:\git\src\IBK\IBK_DRFN\ProjSrc\SrcChartEx\ChartAddIn\ChartPatternAddIn\Control\Label.cpp

; 1312 : 			pDC->Rectangle(nLeft, pRect->top, nRight + 1, pRect->bottom);

  0014c	8d 4e 01	 lea	 ecx, DWORD PTR [esi+1]
  0014f	8b f8		 mov	 edi, eax
; File C:\Program Files (x86)\Microsoft Visual Studio\2019\Community\VC\Tools\MSVC\14.29.30133\atlmfc\include\afxwin1.inl

; 539  : 	{ ASSERT(m_hDC != NULL); return ::Rectangle(m_hDC, x1, y1, x2, y2); }

  00151	8b 45 0c	 mov	 eax, DWORD PTR _pRect$[ebp]
  00154	ff 70 0c	 push	 DWORD PTR [eax+12]
  00157	51		 push	 ecx
  00158	ff 70 04	 push	 DWORD PTR [eax+4]
  0015b	8b 45 08	 mov	 eax, DWORD PTR _pDC$[ebp]
  0015e	52		 push	 edx
  0015f	ff 70 04	 push	 DWORD PTR [eax+4]
  00162	ff 15 00 00 00
	00		 call	 DWORD PTR __imp__Rectangle@20
; File D:\git\src\IBK\IBK_DRFN\ProjSrc\SrcChartEx\ChartAddIn\ChartPatternAddIn\Control\Label.cpp

; 1313 : 			pDC->SelectObject(pbrOld);

  00168	8b 4d 08	 mov	 ecx, DWORD PTR _pDC$[ebp]
  0016b	57		 push	 edi
  0016c	e8 00 00 00 00	 call	 ?SelectObject@CDC@@QAEPAVCBrush@@PAV2@@Z ; CDC::SelectObject
; File C:\Program Files (x86)\Microsoft Visual Studio\2019\Community\VC\Tools\MSVC\14.29.30133\atlmfc\include\afxwin1.inl

; 130  : 	{ }

  00171	8d 4d d0	 lea	 ecx, DWORD PTR _br$2[ebp]
; File D:\git\src\IBK\IBK_DRFN\ProjSrc\SrcChartEx\ChartAddIn\ChartPatternAddIn\Control\Label.cpp

; 1314 : 		}

  00174	c7 45 fc ff ff
	ff ff		 mov	 DWORD PTR __$EHRec$[ebp+8], -1
; File C:\Program Files (x86)\Microsoft Visual Studio\2019\Community\VC\Tools\MSVC\14.29.30133\atlmfc\include\afxwin1.inl

; 130  : 	{ }

  0017b	c7 45 d0 00 00
	00 00		 mov	 DWORD PTR _br$2[ebp], OFFSET ??_7CBrush@@6B@
  00182	e8 00 00 00 00	 call	 ??1CGdiObject@@UAE@XZ	; CGdiObject::~CGdiObject
; File D:\git\src\IBK\IBK_DRFN\ProjSrc\SrcChartEx\ChartAddIn\ChartPatternAddIn\Control\Label.cpp

; 1297 : 	for (int i = 0; i < nSegments; i++, nR += ndR, nG += ndG, nB += ndB)

  00187	8b 4d e8	 mov	 ecx, DWORD PTR _ndR$1$[ebp]

; 1315 : 
; 1316 : 		// Reset the left side of the drawing rectangle.
; 1317 : 
; 1318 : 		nLeft = nRight;

  0018a	8b c6		 mov	 eax, esi
  0018c	01 4d 10	 add	 DWORD PTR _nR$2$[ebp], ecx
  0018f	43		 inc	 ebx
  00190	8b 7d ec	 mov	 edi, DWORD PTR _nG$2$[ebp]
  00193	8b 4d e0	 mov	 ecx, DWORD PTR _ndB$1$[ebp]
  00196	03 7d e4	 add	 edi, DWORD PTR _ndG$1$[ebp]
  00199	01 4d f0	 add	 DWORD PTR _nB$2$[ebp], ecx
  0019c	8b 4d dc	 mov	 ecx, DWORD PTR tv437[ebp]
  0019f	8b 75 d8	 mov	 esi, DWORD PTR _nCX$1$[ebp]
  001a2	89 45 14	 mov	 DWORD PTR _nLeft$1$[ebp], eax
  001a5	89 7d ec	 mov	 DWORD PTR _nG$2$[ebp], edi
  001a8	3b 5d 18	 cmp	 ebx, DWORD PTR _nSegments$[ebp]
  001ab	0f 8c 2f ff ff
	ff		 jl	 $LL4@DrawGradie
$LN3@DrawGradie:

; 1319 : 	}
; 1320 : }

  001b1	8b 4d f4	 mov	 ecx, DWORD PTR __$EHRec$[ebp]
  001b4	64 89 0d 00 00
	00 00		 mov	 DWORD PTR fs:0, ecx
  001bb	59		 pop	 ecx
  001bc	5f		 pop	 edi
  001bd	5e		 pop	 esi
  001be	5b		 pop	 ebx
  001bf	8b e5		 mov	 esp, ebp
  001c1	5d		 pop	 ebp
  001c2	c2 14 00	 ret	 20			; 00000014H
_TEXT	ENDS
;	COMDAT text$x
text$x	SEGMENT
__unwindfunclet$?DrawGradientFill@CLabel@@IAEXPAVCDC@@PAVCRect@@KKH@Z$0:
  00000	8d 4d d0	 lea	 ecx, DWORD PTR _br$2[ebp]
  00003	e9 00 00 00 00	 jmp	 ??1CBrush@@UAE@XZ	; CBrush::~CBrush
  00008	cc		 int	 3
  00009	cc		 int	 3
  0000a	cc		 int	 3
  0000b	cc		 int	 3
  0000c	cc		 int	 3
__ehhandler$?DrawGradientFill@CLabel@@IAEXPAVCDC@@PAVCRect@@KKH@Z:
  0000d	90		 npad	 1
  0000e	90		 npad	 1
  0000f	8b 54 24 08	 mov	 edx, DWORD PTR [esp+8]
  00013	8d 42 0c	 lea	 eax, DWORD PTR [edx+12]
  00016	8b 4a cc	 mov	 ecx, DWORD PTR [edx-52]
  00019	33 c8		 xor	 ecx, eax
  0001b	e8 00 00 00 00	 call	 @__security_check_cookie@4
  00020	b8 00 00 00 00	 mov	 eax, OFFSET __ehfuncinfo$?DrawGradientFill@CLabel@@IAEXPAVCDC@@PAVCRect@@KKH@Z
  00025	e9 00 00 00 00	 jmp	 ___CxxFrameHandler3
text$x	ENDS
?DrawGradientFill@CLabel@@IAEXPAVCDC@@PAVCRect@@KKH@Z ENDP ; CLabel::DrawGradientFill
; Function compile flags: /Ogtp
; File D:\git\src\IBK\IBK_DRFN\ProjSrc\SrcChartEx\ChartAddIn\ChartPatternAddIn\Control\Label.cpp
; File C:\Program Files (x86)\Microsoft Visual Studio\2019\Community\VC\Tools\MSVC\14.29.30133\atlmfc\include\afxwin1.inl
; File D:\git\src\IBK\IBK_DRFN\ProjSrc\SrcChartEx\ChartAddIn\ChartPatternAddIn\Control\Label.cpp
;	COMDAT ?ReconstructFont@CLabel@@IAEXXZ
_TEXT	SEGMENT
?ReconstructFont@CLabel@@IAEXXZ PROC			; CLabel::ReconstructFont, COMDAT
; _this$ = ecx

; 204  : {

  00000	56		 push	 esi
  00001	8b f1		 mov	 esi, ecx
  00003	57		 push	 edi

; 205  : 	m_font.DeleteObject();

  00004	8d 8e dc 00 00
	00		 lea	 ecx, DWORD PTR [esi+220]
  0000a	e8 00 00 00 00	 call	 ?DeleteObject@CGdiObject@@QAEHXZ ; CGdiObject::DeleteObject

; 206  : 	BOOL bCreated = m_font.CreateFontIndirect(&m_lf);

  0000f	8d 86 a0 00 00
	00		 lea	 eax, DWORD PTR [esi+160]
; File C:\Program Files (x86)\Microsoft Visual Studio\2019\Community\VC\Tools\MSVC\14.29.30133\atlmfc\include\afxwin1.inl

; 157  : 	{ return Attach(::CreateFontIndirect(lpLogFont)); }

  00015	50		 push	 eax
  00016	ff 15 00 00 00
	00		 call	 DWORD PTR __imp__CreateFontIndirectA@4
  0001c	50		 push	 eax
  0001d	8d 8e dc 00 00
	00		 lea	 ecx, DWORD PTR [esi+220]
  00023	e8 00 00 00 00	 call	 ?Attach@CGdiObject@@QAEHPAX@Z ; CGdiObject::Attach
  00028	5f		 pop	 edi
  00029	5e		 pop	 esi
; File D:\git\src\IBK\IBK_DRFN\ProjSrc\SrcChartEx\ChartAddIn\ChartPatternAddIn\Control\Label.cpp

; 209  : }

  0002a	c3		 ret	 0
?ReconstructFont@CLabel@@IAEXXZ ENDP			; CLabel::ReconstructFont
_TEXT	ENDS
; Function compile flags: /Ogtp
; File D:\git\src\IBK\IBK_DRFN\ProjSrc\SrcChartEx\ChartAddIn\ChartPatternAddIn\Control\Label.cpp
; File C:\Program Files (x86)\Microsoft Visual Studio\2019\Community\VC\Tools\MSVC\14.29.30133\atlmfc\include\afxwin2.inl
; File C:\Program Files (x86)\Microsoft Visual Studio\2019\Community\VC\Tools\MSVC\14.29.30133\atlmfc\include\atltypes.h
; File C:\Program Files (x86)\Microsoft Visual Studio\2019\Community\VC\Tools\MSVC\14.29.30133\atlmfc\include\afxwin2.inl
; File D:\git\src\IBK\IBK_DRFN\ProjSrc\SrcChartEx\ChartAddIn\ChartPatternAddIn\Control\Label.cpp
; File C:\Program Files (x86)\Microsoft Visual Studio\2019\Community\VC\Tools\MSVC\14.29.30133\atlmfc\include\afxwin2.inl
; File D:\git\src\IBK\IBK_DRFN\ProjSrc\SrcChartEx\ChartAddIn\ChartPatternAddIn\Control\Label.cpp
; File C:\Program Files (x86)\Microsoft Visual Studio\2019\Community\VC\Tools\MSVC\14.29.30133\atlmfc\include\afxwin2.inl
; File D:\git\src\IBK\IBK_DRFN\ProjSrc\SrcChartEx\ChartAddIn\ChartPatternAddIn\Control\Label.cpp
; File C:\Program Files (x86)\Microsoft Visual Studio\2019\Community\VC\Tools\MSVC\14.29.30133\atlmfc\include\afxwin2.inl
; File D:\git\src\IBK\IBK_DRFN\ProjSrc\SrcChartEx\ChartAddIn\ChartPatternAddIn\Control\Label.cpp
; File C:\Program Files (x86)\Microsoft Visual Studio\2019\Community\VC\Tools\MSVC\14.29.30133\atlmfc\include\afxwin2.inl
; File D:\git\src\IBK\IBK_DRFN\ProjSrc\SrcChartEx\ChartAddIn\ChartPatternAddIn\Control\Label.cpp
;	COMDAT ?UpdateSurface@CLabel@@IAEXXZ
_TEXT	SEGMENT
_rc$ = -20						; size = 16
__$ArrayPad$ = -4					; size = 4
?UpdateSurface@CLabel@@IAEXXZ PROC			; CLabel::UpdateSurface, COMDAT
; _this$ = ecx

; 175  : {

  00000	55		 push	 ebp
  00001	8b ec		 mov	 ebp, esp
  00003	83 ec 14	 sub	 esp, 20			; 00000014H
  00006	a1 00 00 00 00	 mov	 eax, DWORD PTR ___security_cookie
  0000b	33 c5		 xor	 eax, ebp
  0000d	89 45 fc	 mov	 DWORD PTR __$ArrayPad$[ebp], eax
  00010	56		 push	 esi
  00011	57		 push	 edi
  00012	8b f9		 mov	 edi, ecx
; File C:\Program Files (x86)\Microsoft Visual Studio\2019\Community\VC\Tools\MSVC\14.29.30133\atlmfc\include\afxwin2.inl

; 84   : 	{ ASSERT(::IsWindow(m_hWnd)); ::GetWindowRect(m_hWnd, lpRect); }

  00014	8d 45 ec	 lea	 eax, DWORD PTR _rc$[ebp]
  00017	50		 push	 eax
  00018	0f 57 c0	 xorps	 xmm0, xmm0
; File C:\Program Files (x86)\Microsoft Visual Studio\2019\Community\VC\Tools\MSVC\14.29.30133\atlmfc\include\atltypes.h

; 528  : 	left = 0;

  0001b	0f 11 45 ec	 movups	 XMMWORD PTR _rc$[ebp], xmm0
; File C:\Program Files (x86)\Microsoft Visual Studio\2019\Community\VC\Tools\MSVC\14.29.30133\atlmfc\include\afxwin2.inl

; 84   : 	{ ASSERT(::IsWindow(m_hWnd)); ::GetWindowRect(m_hWnd, lpRect); }

  0001f	ff 77 20	 push	 DWORD PTR [edi+32]
  00022	ff 15 00 00 00
	00		 call	 DWORD PTR __imp__GetWindowRect@8

; 142  : 	{ ASSERT(::IsWindow(m_hWnd)); return ::RedrawWindow(m_hWnd, lpRectUpdate, (HRGN)prgnUpdate->GetSafeHandle(), flags); }

  00028	68 05 01 00 00	 push	 261			; 00000105H
  0002d	6a 00		 push	 0
  0002f	6a 00		 push	 0
  00031	ff 77 20	 push	 DWORD PTR [edi+32]
  00034	ff 15 00 00 00
	00		 call	 DWORD PTR __imp__RedrawWindow@16

; 213  : 	{ ASSERT(::IsWindow(m_hWnd)); return CWnd::FromHandle(::GetParent(m_hWnd)); }

  0003a	8b 35 00 00 00
	00		 mov	 esi, DWORD PTR __imp__GetParent@4
; File D:\git\src\IBK\IBK_DRFN\ProjSrc\SrcChartEx\ChartAddIn\ChartPatternAddIn\Control\Label.cpp

; 180  : 	GetParent()->ScreenToClient(rc);

  00040	8d 45 ec	 lea	 eax, DWORD PTR _rc$[ebp]
  00043	50		 push	 eax
; File C:\Program Files (x86)\Microsoft Visual Studio\2019\Community\VC\Tools\MSVC\14.29.30133\atlmfc\include\afxwin2.inl

; 213  : 	{ ASSERT(::IsWindow(m_hWnd)); return CWnd::FromHandle(::GetParent(m_hWnd)); }

  00044	ff 77 20	 push	 DWORD PTR [edi+32]
  00047	ff d6		 call	 esi
  00049	50		 push	 eax
  0004a	e8 00 00 00 00	 call	 ?FromHandle@CWnd@@SGPAV1@PAUHWND__@@@Z ; CWnd::FromHandle
; File D:\git\src\IBK\IBK_DRFN\ProjSrc\SrcChartEx\ChartAddIn\ChartPatternAddIn\Control\Label.cpp

; 180  : 	GetParent()->ScreenToClient(rc);

  0004f	8b c8		 mov	 ecx, eax
  00051	e8 00 00 00 00	 call	 ?ScreenToClient@CWnd@@QBEXPAUtagRECT@@@Z ; CWnd::ScreenToClient
; File C:\Program Files (x86)\Microsoft Visual Studio\2019\Community\VC\Tools\MSVC\14.29.30133\atlmfc\include\afxwin2.inl

; 213  : 	{ ASSERT(::IsWindow(m_hWnd)); return CWnd::FromHandle(::GetParent(m_hWnd)); }

  00056	ff 77 20	 push	 DWORD PTR [edi+32]
  00059	ff d6		 call	 esi
  0005b	50		 push	 eax
  0005c	e8 00 00 00 00	 call	 ?FromHandle@CWnd@@SGPAV1@PAUHWND__@@@Z ; CWnd::FromHandle

; 116  : 	{ ASSERT(::IsWindow(m_hWnd)); ::InvalidateRect(m_hWnd, lpRect, bErase); }

  00061	6a 01		 push	 1
  00063	8d 4d ec	 lea	 ecx, DWORD PTR _rc$[ebp]
  00066	51		 push	 ecx
  00067	ff 70 20	 push	 DWORD PTR [eax+32]
  0006a	ff 15 00 00 00
	00		 call	 DWORD PTR __imp__InvalidateRect@12

; 213  : 	{ ASSERT(::IsWindow(m_hWnd)); return CWnd::FromHandle(::GetParent(m_hWnd)); }

  00070	ff 77 20	 push	 DWORD PTR [edi+32]
  00073	ff d6		 call	 esi
  00075	50		 push	 eax
  00076	e8 00 00 00 00	 call	 ?FromHandle@CWnd@@SGPAV1@PAUHWND__@@@Z ; CWnd::FromHandle

; 106  : 	{ ASSERT(::IsWindow(m_hWnd)); ::UpdateWindow(m_hWnd); }

  0007b	ff 70 20	 push	 DWORD PTR [eax+32]
  0007e	ff 15 00 00 00
	00		 call	 DWORD PTR __imp__UpdateWindow@4
; File D:\git\src\IBK\IBK_DRFN\ProjSrc\SrcChartEx\ChartAddIn\ChartPatternAddIn\Control\Label.cpp

; 183  : }

  00084	8b 4d fc	 mov	 ecx, DWORD PTR __$ArrayPad$[ebp]
; File C:\Program Files (x86)\Microsoft Visual Studio\2019\Community\VC\Tools\MSVC\14.29.30133\atlmfc\include\afxwin2.inl

; 106  : 	{ ASSERT(::IsWindow(m_hWnd)); ::UpdateWindow(m_hWnd); }

  00087	5f		 pop	 edi
; File D:\git\src\IBK\IBK_DRFN\ProjSrc\SrcChartEx\ChartAddIn\ChartPatternAddIn\Control\Label.cpp

; 183  : }

  00088	33 cd		 xor	 ecx, ebp
; File C:\Program Files (x86)\Microsoft Visual Studio\2019\Community\VC\Tools\MSVC\14.29.30133\atlmfc\include\afxwin2.inl

; 106  : 	{ ASSERT(::IsWindow(m_hWnd)); ::UpdateWindow(m_hWnd); }

  0008a	5e		 pop	 esi
; File D:\git\src\IBK\IBK_DRFN\ProjSrc\SrcChartEx\ChartAddIn\ChartPatternAddIn\Control\Label.cpp

; 183  : }

  0008b	e8 00 00 00 00	 call	 @__security_check_cookie@4
  00090	8b e5		 mov	 esp, ebp
  00092	5d		 pop	 ebp
  00093	c3		 ret	 0
?UpdateSurface@CLabel@@IAEXXZ ENDP			; CLabel::UpdateSurface
_TEXT	ENDS
; Function compile flags: /Ogtp
; File D:\git\src\IBK\IBK_DRFN\ProjSrc\SrcChartEx\ChartAddIn\ChartPatternAddIn\Control\Label.cpp
;	COMDAT ?SetText3DHiliteColor@CLabel@@UAEAAV1@K@Z
_TEXT	SEGMENT
_cr3DHiliteColor$ = 8					; size = 4
?SetText3DHiliteColor@CLabel@@UAEAAV1@K@Z PROC		; CLabel::SetText3DHiliteColor, COMDAT
; _this$ = ecx

; 1185 : {

  00000	55		 push	 ebp
  00001	8b ec		 mov	 ebp, esp

; 1186 : 	m_cr3DHiliteColor = cr3DHiliteColor;

  00003	8b 45 08	 mov	 eax, DWORD PTR _cr3DHiliteColor$[ebp]
  00006	56		 push	 esi
  00007	8b f1		 mov	 esi, ecx
  00009	89 86 90 00 00
	00		 mov	 DWORD PTR [esi+144], eax

; 1187 : 	UpdateSurface();

  0000f	e8 00 00 00 00	 call	 ?UpdateSurface@CLabel@@IAEXXZ ; CLabel::UpdateSurface

; 1188 : 
; 1189 : 
; 1190 : 	return *this;

  00014	8b c6		 mov	 eax, esi
  00016	5e		 pop	 esi

; 1191 : }

  00017	5d		 pop	 ebp
  00018	c2 04 00	 ret	 4
?SetText3DHiliteColor@CLabel@@UAEAAV1@K@Z ENDP		; CLabel::SetText3DHiliteColor
_TEXT	ENDS
; Function compile flags: /Ogtp
; File D:\git\src\IBK\IBK_DRFN\ProjSrc\SrcChartEx\ChartAddIn\ChartPatternAddIn\Control\Label.cpp
; File C:\Program Files (x86)\Microsoft Visual Studio\2019\Community\VC\Tools\MSVC\14.29.30133\atlmfc\include\afxwin1.inl
; File D:\git\src\IBK\IBK_DRFN\ProjSrc\SrcChartEx\ChartAddIn\ChartPatternAddIn\Control\Label.cpp
;	COMDAT ?SetRotationAngle@CLabel@@UAEAAV1@IH@Z
_TEXT	SEGMENT
_nAngle$ = 8						; size = 4
_bRotation$ = 12					; size = 4
?SetRotationAngle@CLabel@@UAEAAV1@IH@Z PROC		; CLabel::SetRotationAngle, COMDAT
; _this$ = ecx

; 1146 : {

  00000	55		 push	 ebp
  00001	8b ec		 mov	 ebp, esp

; 1147 : 	// Arrrrh...
; 1148 : 	// Your looking in here why the font is rotating, aren't you?
; 1149 : 	// Well try setting the font name to 'Arial' or 'Times New Roman'
; 1150 : 	// Make the Angle 180 and set bRotation to true.
; 1151 : 	//
; 1152 : 	// Font rotation _ONLY_ works with TrueType fonts...
; 1153 : 	//
; 1154 : 	// 
; 1155 : 	m_lf.lfEscapement = m_lf.lfOrientation = (nAngle * 10);

  00003	8b 45 08	 mov	 eax, DWORD PTR _nAngle$[ebp]
  00006	56		 push	 esi
  00007	57		 push	 edi
  00008	8b f9		 mov	 edi, ecx
  0000a	8d 04 80	 lea	 eax, DWORD PTR [eax+eax*4]
  0000d	03 c0		 add	 eax, eax
  0000f	89 87 ac 00 00
	00		 mov	 DWORD PTR [edi+172], eax

; 205  : 	m_font.DeleteObject();

  00015	8d 8f dc 00 00
	00		 lea	 ecx, DWORD PTR [edi+220]

; 1147 : 	// Arrrrh...
; 1148 : 	// Your looking in here why the font is rotating, aren't you?
; 1149 : 	// Well try setting the font name to 'Arial' or 'Times New Roman'
; 1150 : 	// Make the Angle 180 and set bRotation to true.
; 1151 : 	//
; 1152 : 	// Font rotation _ONLY_ works with TrueType fonts...
; 1153 : 	//
; 1154 : 	// 
; 1155 : 	m_lf.lfEscapement = m_lf.lfOrientation = (nAngle * 10);

  0001b	89 87 a8 00 00
	00		 mov	 DWORD PTR [edi+168], eax

; 1156 : 	m_bRotation = bRotation;

  00021	8b 45 0c	 mov	 eax, DWORD PTR _bRotation$[ebp]
  00024	89 87 04 01 00
	00		 mov	 DWORD PTR [edi+260], eax

; 205  : 	m_font.DeleteObject();

  0002a	e8 00 00 00 00	 call	 ?DeleteObject@CGdiObject@@QAEHXZ ; CGdiObject::DeleteObject

; 206  : 	BOOL bCreated = m_font.CreateFontIndirect(&m_lf);

  0002f	8d 87 a0 00 00
	00		 lea	 eax, DWORD PTR [edi+160]
; File C:\Program Files (x86)\Microsoft Visual Studio\2019\Community\VC\Tools\MSVC\14.29.30133\atlmfc\include\afxwin1.inl

; 157  : 	{ return Attach(::CreateFontIndirect(lpLogFont)); }

  00035	50		 push	 eax
  00036	ff 15 00 00 00
	00		 call	 DWORD PTR __imp__CreateFontIndirectA@4
  0003c	50		 push	 eax
  0003d	8d 8f dc 00 00
	00		 lea	 ecx, DWORD PTR [edi+220]
  00043	e8 00 00 00 00	 call	 ?Attach@CGdiObject@@QAEHPAX@Z ; CGdiObject::Attach
; File D:\git\src\IBK\IBK_DRFN\ProjSrc\SrcChartEx\ChartAddIn\ChartPatternAddIn\Control\Label.cpp

; 1160 : 	UpdateSurface();

  00048	8b cf		 mov	 ecx, edi
  0004a	e8 00 00 00 00	 call	 ?UpdateSurface@CLabel@@IAEXXZ ; CLabel::UpdateSurface

; 1161 : 
; 1162 : 
; 1163 : 	return *this;

  0004f	8b c7		 mov	 eax, edi
  00051	5f		 pop	 edi
  00052	5e		 pop	 esi

; 1164 : }

  00053	5d		 pop	 ebp
  00054	c2 08 00	 ret	 8
?SetRotationAngle@CLabel@@UAEAAV1@IH@Z ENDP		; CLabel::SetRotationAngle
_TEXT	ENDS
; Function compile flags: /Ogtp
; File D:\git\src\IBK\IBK_DRFN\ProjSrc\SrcChartEx\ChartAddIn\ChartPatternAddIn\Control\Label.cpp
;	COMDAT ?SetFont3D@CLabel@@UAEAAV1@HW4Type3D@1@@Z
_TEXT	SEGMENT
_bSet$ = 8						; size = 4
_type$ = 12						; size = 4
?SetFont3D@CLabel@@UAEAAV1@HW4Type3D@1@@Z PROC		; CLabel::SetFont3D, COMDAT
; _this$ = ecx

; 1103 : {

  00000	55		 push	 ebp
  00001	8b ec		 mov	 ebp, esp

; 1104 : 
; 1105 : 	m_bFont3d = bSet;

  00003	8b 45 08	 mov	 eax, DWORD PTR _bSet$[ebp]
  00006	56		 push	 esi
  00007	8b f1		 mov	 esi, ecx
  00009	89 86 f8 00 00
	00		 mov	 DWORD PTR [esi+248], eax

; 1106 : 	m_3dType = type;

  0000f	8b 45 0c	 mov	 eax, DWORD PTR _type$[ebp]
  00012	89 86 10 01 00
	00		 mov	 DWORD PTR [esi+272], eax

; 1107 : 	UpdateSurface();

  00018	e8 00 00 00 00	 call	 ?UpdateSurface@CLabel@@IAEXXZ ; CLabel::UpdateSurface

; 1108 : 
; 1109 : 
; 1110 : 	return *this;

  0001d	8b c6		 mov	 eax, esi
  0001f	5e		 pop	 esi

; 1111 : }

  00020	5d		 pop	 ebp
  00021	c2 08 00	 ret	 8
?SetFont3D@CLabel@@UAEAAV1@HW4Type3D@1@@Z ENDP		; CLabel::SetFont3D
_TEXT	ENDS
; Function compile flags: /Ogtp
; File D:\git\src\IBK\IBK_DRFN\ProjSrc\SrcChartEx\ChartAddIn\ChartPatternAddIn\Control\Label.cpp
;	COMDAT ?SetLinkCursor@CLabel@@UAEAAV1@PAUHICON__@@@Z
_TEXT	SEGMENT
_hCursor$ = 8						; size = 4
?SetLinkCursor@CLabel@@UAEAAV1@PAUHICON__@@@Z PROC	; CLabel::SetLinkCursor, COMDAT
; _this$ = ecx

; 1050 : {

  00000	55		 push	 ebp
  00001	8b ec		 mov	 ebp, esp

; 1051 : 
; 1052 : 	m_hCursor = hCursor;

  00003	8b 45 08	 mov	 eax, DWORD PTR _hCursor$[ebp]
  00006	89 81 0c 01 00
	00		 mov	 DWORD PTR [ecx+268], eax

; 1053 : 	return *this;

  0000c	8b c1		 mov	 eax, ecx

; 1054 : }

  0000e	5d		 pop	 ebp
  0000f	c2 04 00	 ret	 4
?SetLinkCursor@CLabel@@UAEAAV1@PAUHICON__@@@Z ENDP	; CLabel::SetLinkCursor
_TEXT	ENDS
; Function compile flags: /Ogtp
; File D:\git\src\IBK\IBK_DRFN\ProjSrc\SrcChartEx\ChartAddIn\ChartPatternAddIn\Control\Label.cpp
;	COMDAT ?SetLink@CLabel@@UAEAAV1@HH@Z
_TEXT	SEGMENT
_bLink$ = 8						; size = 4
_bNotifyParent$ = 12					; size = 4
?SetLink@CLabel@@UAEAAV1@HH@Z PROC			; CLabel::SetLink, COMDAT
; _this$ = ecx

; 1018 : {

  00000	55		 push	 ebp
  00001	8b ec		 mov	 ebp, esp

; 1019 : 
; 1020 : 	m_bLink = bLink;

  00003	8b 55 08	 mov	 edx, DWORD PTR _bLink$[ebp]

; 1021 : 	m_bNotifyParent = bNotifyParent;

  00006	8b 45 0c	 mov	 eax, DWORD PTR _bNotifyParent$[ebp]
  00009	56		 push	 esi
  0000a	8b f1		 mov	 esi, ecx

; 1022 : 
; 1023 : 	if (bLink)
; 1024 : 		ModifyStyle(0,SS_NOTIFY);
; 1025 : 	else
; 1026 : 		ModifyStyle(SS_NOTIFY,0);
; 1027 : 
; 1028 : 	return *this;

  0000c	b9 00 01 00 00	 mov	 ecx, 256		; 00000100H
  00011	6a 00		 push	 0
  00013	89 86 00 01 00
	00		 mov	 DWORD PTR [esi+256], eax
  00019	8b c2		 mov	 eax, edx
  0001b	f7 d8		 neg	 eax
  0001d	89 96 f0 00 00
	00		 mov	 DWORD PTR [esi+240], edx
  00023	1b c0		 sbb	 eax, eax
  00025	25 00 01 00 00	 and	 eax, 256		; 00000100H
  0002a	50		 push	 eax
  0002b	33 c0		 xor	 eax, eax
  0002d	85 d2		 test	 edx, edx
  0002f	0f 44 c1	 cmove	 eax, ecx
  00032	8b ce		 mov	 ecx, esi
  00034	50		 push	 eax
  00035	e8 00 00 00 00	 call	 ?ModifyStyle@CWnd@@QAEHKKI@Z ; CWnd::ModifyStyle
  0003a	8b c6		 mov	 eax, esi
  0003c	5e		 pop	 esi

; 1029 : }

  0003d	5d		 pop	 ebp
  0003e	c2 08 00	 ret	 8
?SetLink@CLabel@@UAEAAV1@HH@Z ENDP			; CLabel::SetLink
_TEXT	ENDS
; Function compile flags: /Ogtp
; File D:\git\src\IBK\IBK_DRFN\ProjSrc\SrcChartEx\ChartAddIn\ChartPatternAddIn\Control\Label.cpp
; File C:\Program Files (x86)\Microsoft Visual Studio\2019\Community\VC\Tools\MSVC\14.29.30133\atlmfc\include\afxwin2.inl
; File D:\git\src\IBK\IBK_DRFN\ProjSrc\SrcChartEx\ChartAddIn\ChartPatternAddIn\Control\Label.cpp
; File C:\Program Files (x86)\Microsoft Visual Studio\2019\Community\VC\Tools\MSVC\14.29.30133\atlmfc\include\afxwin2.inl
; File D:\git\src\IBK\IBK_DRFN\ProjSrc\SrcChartEx\ChartAddIn\ChartPatternAddIn\Control\Label.cpp
; File C:\Program Files (x86)\Microsoft Visual Studio\2019\Community\VC\Tools\MSVC\14.29.30133\atlmfc\include\afxwin2.inl
; File D:\git\src\IBK\IBK_DRFN\ProjSrc\SrcChartEx\ChartAddIn\ChartPatternAddIn\Control\Label.cpp
;	COMDAT ?FlashBackground@CLabel@@UAEAAV1@H@Z
_TEXT	SEGMENT
_bActivate$ = 8						; size = 4
?FlashBackground@CLabel@@UAEAAV1@H@Z PROC		; CLabel::FlashBackground, COMDAT
; _this$ = ecx

; 978  : {

  00000	55		 push	 ebp
  00001	8b ec		 mov	 ebp, esp
  00003	56		 push	 esi
  00004	8b f1		 mov	 esi, ecx

; 979  : 
; 980  : 	if (m_bTimer)

  00006	83 be ec 00 00
	00 00		 cmp	 DWORD PTR [esi+236], 0
  0000d	74 0b		 je	 SHORT $LN2@FlashBackg
; File C:\Program Files (x86)\Microsoft Visual Studio\2019\Community\VC\Tools\MSVC\14.29.30133\atlmfc\include\afxwin2.inl

; 155  : 	{ ASSERT(::IsWindow(m_hWnd)); return ::KillTimer(m_hWnd, nIDEvent); }

  0000f	6a 01		 push	 1
  00011	ff 76 20	 push	 DWORD PTR [esi+32]
  00014	ff 15 00 00 00
	00		 call	 DWORD PTR __imp__KillTimer@8
$LN2@FlashBackg:
; File D:\git\src\IBK\IBK_DRFN\ProjSrc\SrcChartEx\ChartAddIn\ChartPatternAddIn\Control\Label.cpp

; 983  : 	if (bActivate)

  0001a	83 7d 08 00	 cmp	 DWORD PTR _bActivate$[ebp], 0
  0001e	74 30		 je	 SHORT $LN9@FlashBackg
; File C:\Program Files (x86)\Microsoft Visual Studio\2019\Community\VC\Tools\MSVC\14.29.30133\atlmfc\include\afxwin2.inl

; 152  : 	{ ASSERT(::IsWindow(m_hWnd)); return ::SetTimer(m_hWnd, nIDEvent, nElapse,

  00020	6a 00		 push	 0
  00022	68 f4 01 00 00	 push	 500			; 000001f4H
  00027	6a 01		 push	 1
  00029	ff 76 20	 push	 DWORD PTR [esi+32]
; File D:\git\src\IBK\IBK_DRFN\ProjSrc\SrcChartEx\ChartAddIn\ChartPatternAddIn\Control\Label.cpp

; 985  : 		m_bState = FALSE;

  0002c	c7 86 e8 00 00
	00 00 00 00 00	 mov	 DWORD PTR [esi+232], 0

; 986  : 
; 987  : 		m_bTimer = TRUE;

  00036	c7 86 ec 00 00
	00 01 00 00 00	 mov	 DWORD PTR [esi+236], 1
; File C:\Program Files (x86)\Microsoft Visual Studio\2019\Community\VC\Tools\MSVC\14.29.30133\atlmfc\include\afxwin2.inl

; 152  : 	{ ASSERT(::IsWindow(m_hWnd)); return ::SetTimer(m_hWnd, nIDEvent, nElapse,

  00040	ff 15 00 00 00
	00		 call	 DWORD PTR __imp__SetTimer@16
; File D:\git\src\IBK\IBK_DRFN\ProjSrc\SrcChartEx\ChartAddIn\ChartPatternAddIn\Control\Label.cpp

; 990  : 		m_Type = Background;

  00046	c7 86 08 01 00
	00 02 00 00 00	 mov	 DWORD PTR [esi+264], 2
$LN9@FlashBackg:

; 991  : 	}
; 992  : 
; 993  : 	return *this;
; 994  : }

  00050	8b c6		 mov	 eax, esi
  00052	5e		 pop	 esi
  00053	5d		 pop	 ebp
  00054	c2 04 00	 ret	 4
?FlashBackground@CLabel@@UAEAAV1@H@Z ENDP		; CLabel::FlashBackground
_TEXT	ENDS
; Function compile flags: /Ogtp
; File D:\git\src\IBK\IBK_DRFN\ProjSrc\SrcChartEx\ChartAddIn\ChartPatternAddIn\Control\Label.cpp
; File C:\Program Files (x86)\Microsoft Visual Studio\2019\Community\VC\Tools\MSVC\14.29.30133\atlmfc\include\afxwin2.inl
; File D:\git\src\IBK\IBK_DRFN\ProjSrc\SrcChartEx\ChartAddIn\ChartPatternAddIn\Control\Label.cpp
; File C:\Program Files (x86)\Microsoft Visual Studio\2019\Community\VC\Tools\MSVC\14.29.30133\atlmfc\include\afxwin2.inl
; File D:\git\src\IBK\IBK_DRFN\ProjSrc\SrcChartEx\ChartAddIn\ChartPatternAddIn\Control\Label.cpp
; File C:\Program Files (x86)\Microsoft Visual Studio\2019\Community\VC\Tools\MSVC\14.29.30133\atlmfc\include\afxwin2.inl
; File D:\git\src\IBK\IBK_DRFN\ProjSrc\SrcChartEx\ChartAddIn\ChartPatternAddIn\Control\Label.cpp
;	COMDAT ?FlashText@CLabel@@UAEAAV1@H@Z
_TEXT	SEGMENT
_bActivate$ = 8						; size = 4
?FlashText@CLabel@@UAEAAV1@H@Z PROC			; CLabel::FlashText, COMDAT
; _this$ = ecx

; 938  : {

  00000	55		 push	 ebp
  00001	8b ec		 mov	 ebp, esp
  00003	56		 push	 esi
  00004	8b f1		 mov	 esi, ecx

; 939  : 
; 940  : 	if (m_bTimer)

  00006	83 be ec 00 00
	00 00		 cmp	 DWORD PTR [esi+236], 0
  0000d	74 0b		 je	 SHORT $LN2@FlashText
; File C:\Program Files (x86)\Microsoft Visual Studio\2019\Community\VC\Tools\MSVC\14.29.30133\atlmfc\include\afxwin2.inl

; 155  : 	{ ASSERT(::IsWindow(m_hWnd)); return ::KillTimer(m_hWnd, nIDEvent); }

  0000f	6a 01		 push	 1
  00011	ff 76 20	 push	 DWORD PTR [esi+32]
  00014	ff 15 00 00 00
	00		 call	 DWORD PTR __imp__KillTimer@8
$LN2@FlashText:
; File D:\git\src\IBK\IBK_DRFN\ProjSrc\SrcChartEx\ChartAddIn\ChartPatternAddIn\Control\Label.cpp

; 943  : 	if (bActivate)

  0001a	83 7d 08 00	 cmp	 DWORD PTR _bActivate$[ebp], 0
  0001e	74 37		 je	 SHORT $LN3@FlashText
; File C:\Program Files (x86)\Microsoft Visual Studio\2019\Community\VC\Tools\MSVC\14.29.30133\atlmfc\include\afxwin2.inl

; 152  : 	{ ASSERT(::IsWindow(m_hWnd)); return ::SetTimer(m_hWnd, nIDEvent, nElapse,

  00020	6a 00		 push	 0
  00022	68 f4 01 00 00	 push	 500			; 000001f4H
  00027	6a 01		 push	 1
  00029	ff 76 20	 push	 DWORD PTR [esi+32]
; File D:\git\src\IBK\IBK_DRFN\ProjSrc\SrcChartEx\ChartAddIn\ChartPatternAddIn\Control\Label.cpp

; 945  : 		m_bState = FALSE;

  0002c	c7 86 e8 00 00
	00 00 00 00 00	 mov	 DWORD PTR [esi+232], 0

; 946  : 		
; 947  : 		m_bTimer = TRUE;

  00036	c7 86 ec 00 00
	00 01 00 00 00	 mov	 DWORD PTR [esi+236], 1
; File C:\Program Files (x86)\Microsoft Visual Studio\2019\Community\VC\Tools\MSVC\14.29.30133\atlmfc\include\afxwin2.inl

; 152  : 	{ ASSERT(::IsWindow(m_hWnd)); return ::SetTimer(m_hWnd, nIDEvent, nElapse,

  00040	ff 15 00 00 00
	00		 call	 DWORD PTR __imp__SetTimer@16
; File D:\git\src\IBK\IBK_DRFN\ProjSrc\SrcChartEx\ChartAddIn\ChartPatternAddIn\Control\Label.cpp

; 956  : 	return *this;

  00046	c7 86 08 01 00
	00 01 00 00 00	 mov	 DWORD PTR [esi+264], 1

; 957  : }

  00050	8b c6		 mov	 eax, esi
  00052	5e		 pop	 esi
  00053	5d		 pop	 ebp
  00054	c2 04 00	 ret	 4
$LN3@FlashText:

; 956  : 	return *this;

  00057	c7 86 08 01 00
	00 00 00 00 00	 mov	 DWORD PTR [esi+264], 0

; 957  : }

  00061	8b c6		 mov	 eax, esi
  00063	5e		 pop	 esi
  00064	5d		 pop	 ebp
  00065	c2 04 00	 ret	 4
?FlashText@CLabel@@UAEAAV1@H@Z ENDP			; CLabel::FlashText
_TEXT	ENDS
; Function compile flags: /Ogtp
; File D:\git\src\IBK\IBK_DRFN\ProjSrc\SrcChartEx\ChartAddIn\ChartPatternAddIn\Control\Label.cpp
;	COMDAT ?SetTransparent@CLabel@@UAEAAV1@H@Z
_TEXT	SEGMENT
_bSet$ = 8						; size = 4
?SetTransparent@CLabel@@UAEAAV1@H@Z PROC		; CLabel::SetTransparent, COMDAT
; _this$ = ecx

; 1075 : {

  00000	55		 push	 ebp
  00001	8b ec		 mov	 ebp, esp

; 1076 : 
; 1077 : 	m_bTransparent = bSet;

  00003	8b 45 08	 mov	 eax, DWORD PTR _bSet$[ebp]
  00006	56		 push	 esi

; 1078 : 	ModifyStyleEx(0,WS_EX_TRANSPARENT); // Fix for transparency

  00007	6a 00		 push	 0
  00009	8b f1		 mov	 esi, ecx
  0000b	6a 20		 push	 32			; 00000020H
  0000d	6a 00		 push	 0
  0000f	89 86 f4 00 00
	00		 mov	 DWORD PTR [esi+244], eax
  00015	e8 00 00 00 00	 call	 ?ModifyStyleEx@CWnd@@QAEHKKI@Z ; CWnd::ModifyStyleEx

; 1079 : 	UpdateSurface();

  0001a	8b ce		 mov	 ecx, esi
  0001c	e8 00 00 00 00	 call	 ?UpdateSurface@CLabel@@IAEXXZ ; CLabel::UpdateSurface

; 1080 : 
; 1081 : 	return *this;

  00021	8b c6		 mov	 eax, esi
  00023	5e		 pop	 esi

; 1082 : }

  00024	5d		 pop	 ebp
  00025	c2 04 00	 ret	 4
?SetTransparent@CLabel@@UAEAAV1@H@Z ENDP		; CLabel::SetTransparent
_TEXT	ENDS
; Function compile flags: /Ogtp
; File D:\git\src\IBK\IBK_DRFN\ProjSrc\SrcChartEx\ChartAddIn\ChartPatternAddIn\Control\Label.cpp
;	COMDAT ?SetBorder@CLabel@@UAEAAV1@H@Z
_TEXT	SEGMENT
_bSet$ = 8						; size = 4
?SetBorder@CLabel@@UAEAAV1@H@Z PROC			; CLabel::SetBorder, COMDAT
; _this$ = ecx

; 796  : {

  00000	55		 push	 ebp
  00001	8b ec		 mov	 ebp, esp

; 797  : 
; 798  : 	if (!bSet)
; 799  : 		ModifyStyle(WS_BORDER,0,SWP_DRAWFRAME);
; 800  : 	else
; 801  : 		ModifyStyle(0,WS_BORDER,SWP_DRAWFRAME);
; 802  : 		
; 803  : 	return *this;	

  00003	8b 55 08	 mov	 edx, DWORD PTR _bSet$[ebp]
  00006	8b c2		 mov	 eax, edx
  00008	f7 d8		 neg	 eax
  0000a	56		 push	 esi
  0000b	1b c0		 sbb	 eax, eax
  0000d	8b f1		 mov	 esi, ecx
  0000f	25 00 00 80 00	 and	 eax, 8388608		; 00800000H
  00014	33 c9		 xor	 ecx, ecx
  00016	6a 20		 push	 32			; 00000020H
  00018	50		 push	 eax
  00019	85 d2		 test	 edx, edx
  0001b	b8 00 00 80 00	 mov	 eax, 8388608		; 00800000H
  00020	0f 45 c1	 cmovne	 eax, ecx
  00023	8b ce		 mov	 ecx, esi
  00025	50		 push	 eax
  00026	e8 00 00 00 00	 call	 ?ModifyStyle@CWnd@@QAEHKKI@Z ; CWnd::ModifyStyle
  0002b	8b c6		 mov	 eax, esi
  0002d	5e		 pop	 esi

; 804  : }

  0002e	5d		 pop	 ebp
  0002f	c2 04 00	 ret	 4
?SetBorder@CLabel@@UAEAAV1@H@Z ENDP			; CLabel::SetBorder
_TEXT	ENDS
; Function compile flags: /Ogtp
; File D:\git\src\IBK\IBK_DRFN\ProjSrc\SrcChartEx\ChartAddIn\ChartPatternAddIn\Control\Label.cpp
;	COMDAT ?SetSunken@CLabel@@UAEAAV1@H@Z
_TEXT	SEGMENT
_bSet$ = 8						; size = 4
?SetSunken@CLabel@@UAEAAV1@H@Z PROC			; CLabel::SetSunken, COMDAT
; _this$ = ecx

; 767  : {

  00000	55		 push	 ebp
  00001	8b ec		 mov	 ebp, esp

; 768  : 
; 769  : 	if (!bSet)
; 770  : 		ModifyStyleEx(WS_EX_STATICEDGE,0,SWP_DRAWFRAME);
; 771  : 	else
; 772  : 		ModifyStyleEx(0,WS_EX_STATICEDGE,SWP_DRAWFRAME);
; 773  : 		
; 774  : 	return *this;	

  00003	8b 55 08	 mov	 edx, DWORD PTR _bSet$[ebp]
  00006	8b c2		 mov	 eax, edx
  00008	f7 d8		 neg	 eax
  0000a	56		 push	 esi
  0000b	1b c0		 sbb	 eax, eax
  0000d	8b f1		 mov	 esi, ecx
  0000f	25 00 00 02 00	 and	 eax, 131072		; 00020000H
  00014	33 c9		 xor	 ecx, ecx
  00016	6a 20		 push	 32			; 00000020H
  00018	50		 push	 eax
  00019	85 d2		 test	 edx, edx
  0001b	b8 00 00 02 00	 mov	 eax, 131072		; 00020000H
  00020	0f 45 c1	 cmovne	 eax, ecx
  00023	8b ce		 mov	 ecx, esi
  00025	50		 push	 eax
  00026	e8 00 00 00 00	 call	 ?ModifyStyleEx@CWnd@@QAEHKKI@Z ; CWnd::ModifyStyleEx
  0002b	8b c6		 mov	 eax, esi
  0002d	5e		 pop	 esi

; 775  : }

  0002e	5d		 pop	 ebp
  0002f	c2 04 00	 ret	 4
?SetSunken@CLabel@@UAEAAV1@H@Z ENDP			; CLabel::SetSunken
_TEXT	ENDS
; Function compile flags: /Ogtp
; File D:\git\src\IBK\IBK_DRFN\ProjSrc\SrcChartEx\ChartAddIn\ChartPatternAddIn\Control\Label.cpp
; File C:\Program Files (x86)\Microsoft Visual Studio\2019\Community\VC\Tools\MSVC\14.29.30133\atlmfc\include\afxwin1.inl
; File D:\git\src\IBK\IBK_DRFN\ProjSrc\SrcChartEx\ChartAddIn\ChartPatternAddIn\Control\Label.cpp
; File C:\Program Files (x86)\Microsoft Visual Studio\2019\Community\VC\Tools\MSVC\14.29.30133\atlmfc\include\afxwin1.inl
; File D:\git\src\IBK\IBK_DRFN\ProjSrc\SrcChartEx\ChartAddIn\ChartPatternAddIn\Control\Label.cpp
; File C:\Program Files (x86)\Microsoft Visual Studio\2019\Community\VC\Tools\MSVC\14.29.30133\atlmfc\include\afxwin1.inl
; File D:\git\src\IBK\IBK_DRFN\ProjSrc\SrcChartEx\ChartAddIn\ChartPatternAddIn\Control\Label.cpp
; File C:\Program Files (x86)\Microsoft Visual Studio\2019\Community\VC\Tools\MSVC\14.29.30133\atlmfc\include\afxwin1.inl
; File D:\git\src\IBK\IBK_DRFN\ProjSrc\SrcChartEx\ChartAddIn\ChartPatternAddIn\Control\Label.cpp
;	COMDAT ?SetFontSize@CLabel@@UAEAAV1@H@Z
_TEXT	SEGMENT
_cf$ = -84						; size = 8
_lf$ = -76						; size = 60
__$ArrayPad$ = -16					; size = 4
__$EHRec$ = -12						; size = 12
_nSize$ = 8						; size = 4
?SetFontSize@CLabel@@UAEAAV1@H@Z PROC			; CLabel::SetFontSize, COMDAT
; _this$ = ecx

; 825  : {

  00000	55		 push	 ebp
  00001	8b ec		 mov	 ebp, esp
  00003	6a ff		 push	 -1
  00005	68 00 00 00 00	 push	 __ehhandler$?SetFontSize@CLabel@@UAEAAV1@H@Z
  0000a	64 a1 00 00 00
	00		 mov	 eax, DWORD PTR fs:0
  00010	50		 push	 eax
  00011	83 ec 48	 sub	 esp, 72			; 00000048H
  00014	a1 00 00 00 00	 mov	 eax, DWORD PTR ___security_cookie
  00019	33 c5		 xor	 eax, ebp
  0001b	89 45 f0	 mov	 DWORD PTR __$ArrayPad$[ebp], eax
  0001e	53		 push	 ebx
  0001f	56		 push	 esi
  00020	57		 push	 edi
  00021	50		 push	 eax
  00022	8d 45 f4	 lea	 eax, DWORD PTR __$EHRec$[ebp]
  00025	64 a3 00 00 00
	00		 mov	 DWORD PTR fs:0, eax
  0002b	8b d9		 mov	 ebx, ecx
; File C:\Program Files (x86)\Microsoft Visual Studio\2019\Community\VC\Tools\MSVC\14.29.30133\atlmfc\include\afxwin1.inl

; 70   : 	{ m_hObject = NULL; }

  0002d	c7 45 b0 00 00
	00 00		 mov	 DWORD PTR _cf$[ebp+4], 0

; 153  : 	{ }

  00034	c7 45 ac 00 00
	00 00		 mov	 DWORD PTR _cf$[ebp], OFFSET ??_7CFont@@6B@
; File D:\git\src\IBK\IBK_DRFN\ProjSrc\SrcChartEx\ChartAddIn\ChartPatternAddIn\Control\Label.cpp

; 830  : 	cf.CreatePointFont(nSize * 10, m_lf.lfFaceName);

  0003b	6a 00		 push	 0
  0003d	8d 83 bc 00 00
	00		 lea	 eax, DWORD PTR [ebx+188]
  00043	c7 45 fc 00 00
	00 00		 mov	 DWORD PTR __$EHRec$[ebp+8], 0
  0004a	50		 push	 eax
  0004b	8b 45 08	 mov	 eax, DWORD PTR _nSize$[ebp]
  0004e	8d 4d ac	 lea	 ecx, DWORD PTR _cf$[ebp]
  00051	8d 04 80	 lea	 eax, DWORD PTR [eax+eax*4]
  00054	03 c0		 add	 eax, eax
  00056	50		 push	 eax
  00057	e8 00 00 00 00	 call	 ?CreatePointFont@CFont@@QAEHHPBDPAVCDC@@@Z ; CFont::CreatePointFont
; File C:\Program Files (x86)\Microsoft Visual Studio\2019\Community\VC\Tools\MSVC\14.29.30133\atlmfc\include\afxwin1.inl

; 169  : 		return ::GetObject(m_hObject, sizeof(LOGFONT), pLogFont); }

  0005c	8d 45 b4	 lea	 eax, DWORD PTR _lf$[ebp]
  0005f	50		 push	 eax
  00060	6a 3c		 push	 60			; 0000003cH
  00062	ff 75 b0	 push	 DWORD PTR _cf$[ebp+4]
  00065	ff 15 00 00 00
	00		 call	 DWORD PTR __imp__GetObjectA@12
; File D:\git\src\IBK\IBK_DRFN\ProjSrc\SrcChartEx\ChartAddIn\ChartPatternAddIn\Control\Label.cpp

; 833  : 	m_lf.lfHeight = lf.lfHeight;

  0006b	8b 45 b4	 mov	 eax, DWORD PTR _lf$[ebp]
  0006e	8d bb a0 00 00
	00		 lea	 edi, DWORD PTR [ebx+160]
  00074	89 07		 mov	 DWORD PTR [edi], eax

; 205  : 	m_font.DeleteObject();

  00076	8d 8b dc 00 00
	00		 lea	 ecx, DWORD PTR [ebx+220]

; 834  : 	m_lf.lfWidth  = lf.lfWidth;

  0007c	8b 45 b8	 mov	 eax, DWORD PTR _lf$[ebp+4]
  0007f	89 83 a4 00 00
	00		 mov	 DWORD PTR [ebx+164], eax

; 205  : 	m_font.DeleteObject();

  00085	e8 00 00 00 00	 call	 ?DeleteObject@CGdiObject@@QAEHXZ ; CGdiObject::DeleteObject
; File C:\Program Files (x86)\Microsoft Visual Studio\2019\Community\VC\Tools\MSVC\14.29.30133\atlmfc\include\afxwin1.inl

; 157  : 	{ return Attach(::CreateFontIndirect(lpLogFont)); }

  0008a	57		 push	 edi
  0008b	ff 15 00 00 00
	00		 call	 DWORD PTR __imp__CreateFontIndirectA@4
  00091	50		 push	 eax
  00092	8d 8b dc 00 00
	00		 lea	 ecx, DWORD PTR [ebx+220]
  00098	e8 00 00 00 00	 call	 ?Attach@CGdiObject@@QAEHPAX@Z ; CGdiObject::Attach
; File D:\git\src\IBK\IBK_DRFN\ProjSrc\SrcChartEx\ChartAddIn\ChartPatternAddIn\Control\Label.cpp

; 839  : 	UpdateSurface();

  0009d	8b cb		 mov	 ecx, ebx
  0009f	e8 00 00 00 00	 call	 ?UpdateSurface@CLabel@@IAEXXZ ; CLabel::UpdateSurface

; 840  : 	cf.DeleteObject();

  000a4	8d 4d ac	 lea	 ecx, DWORD PTR _cf$[ebp]
  000a7	e8 00 00 00 00	 call	 ?DeleteObject@CGdiObject@@QAEHXZ ; CGdiObject::DeleteObject
; File C:\Program Files (x86)\Microsoft Visual Studio\2019\Community\VC\Tools\MSVC\14.29.30133\atlmfc\include\afxwin1.inl

; 155  : 	{ }

  000ac	8d 4d ac	 lea	 ecx, DWORD PTR _cf$[ebp]
  000af	c7 45 ac 00 00
	00 00		 mov	 DWORD PTR _cf$[ebp], OFFSET ??_7CFont@@6B@
  000b6	e8 00 00 00 00	 call	 ??1CGdiObject@@UAE@XZ	; CGdiObject::~CGdiObject
; File D:\git\src\IBK\IBK_DRFN\ProjSrc\SrcChartEx\ChartAddIn\ChartPatternAddIn\Control\Label.cpp

; 842  : 	return *this;

  000bb	8b c3		 mov	 eax, ebx

; 843  : }

  000bd	8b 4d f4	 mov	 ecx, DWORD PTR __$EHRec$[ebp]
  000c0	64 89 0d 00 00
	00 00		 mov	 DWORD PTR fs:0, ecx
  000c7	59		 pop	 ecx
  000c8	5f		 pop	 edi
  000c9	5e		 pop	 esi
  000ca	5b		 pop	 ebx
  000cb	8b 4d f0	 mov	 ecx, DWORD PTR __$ArrayPad$[ebp]
  000ce	33 cd		 xor	 ecx, ebp
  000d0	e8 00 00 00 00	 call	 @__security_check_cookie@4
  000d5	8b e5		 mov	 esp, ebp
  000d7	5d		 pop	 ebp
  000d8	c2 04 00	 ret	 4
_TEXT	ENDS
;	COMDAT text$x
text$x	SEGMENT
__unwindfunclet$?SetFontSize@CLabel@@UAEAAV1@H@Z$0:
  00000	8d 4d ac	 lea	 ecx, DWORD PTR _cf$[ebp]
  00003	e9 00 00 00 00	 jmp	 ??1CFont@@UAE@XZ	; CFont::~CFont
  00008	cc		 int	 3
  00009	cc		 int	 3
  0000a	cc		 int	 3
  0000b	cc		 int	 3
  0000c	cc		 int	 3
__ehhandler$?SetFontSize@CLabel@@UAEAAV1@H@Z:
  0000d	90		 npad	 1
  0000e	90		 npad	 1
  0000f	8b 54 24 08	 mov	 edx, DWORD PTR [esp+8]
  00013	8d 42 0c	 lea	 eax, DWORD PTR [edx+12]
  00016	8b 4a a8	 mov	 ecx, DWORD PTR [edx-88]
  00019	33 c8		 xor	 ecx, eax
  0001b	e8 00 00 00 00	 call	 @__security_check_cookie@4
  00020	8b 4a fc	 mov	 ecx, DWORD PTR [edx-4]
  00023	33 c8		 xor	 ecx, eax
  00025	e8 00 00 00 00	 call	 @__security_check_cookie@4
  0002a	b8 00 00 00 00	 mov	 eax, OFFSET __ehfuncinfo$?SetFontSize@CLabel@@UAEAAV1@H@Z
  0002f	e9 00 00 00 00	 jmp	 ___CxxFrameHandler3
text$x	ENDS
?SetFontSize@CLabel@@UAEAAV1@H@Z ENDP			; CLabel::SetFontSize
; Function compile flags: /Ogtp
; File D:\git\src\IBK\IBK_DRFN\ProjSrc\SrcChartEx\ChartAddIn\ChartPatternAddIn\Control\Label.cpp
; File C:\Program Files (x86)\Microsoft Visual Studio\2019\Community\VC\Tools\MSVC\14.29.30133\atlmfc\include\afxwin1.inl
; File D:\git\src\IBK\IBK_DRFN\ProjSrc\SrcChartEx\ChartAddIn\ChartPatternAddIn\Control\Label.cpp
;	COMDAT ?SetFontItalic@CLabel@@UAEAAV1@H@Z
_TEXT	SEGMENT
_bSet$ = 8						; size = 4
?SetFontItalic@CLabel@@UAEAAV1@H@Z PROC			; CLabel::SetFontItalic, COMDAT
; _this$ = ecx

; 739  : {

  00000	55		 push	 ebp
  00001	8b ec		 mov	 ebp, esp

; 740  : 
; 741  : 	m_lf.lfItalic = bSet;

  00003	8a 45 08	 mov	 al, BYTE PTR _bSet$[ebp]
  00006	56		 push	 esi
  00007	57		 push	 edi
  00008	8b f9		 mov	 edi, ecx

; 205  : 	m_font.DeleteObject();

  0000a	8d 8f dc 00 00
	00		 lea	 ecx, DWORD PTR [edi+220]

; 740  : 
; 741  : 	m_lf.lfItalic = bSet;

  00010	88 87 b4 00 00
	00		 mov	 BYTE PTR [edi+180], al

; 205  : 	m_font.DeleteObject();

  00016	e8 00 00 00 00	 call	 ?DeleteObject@CGdiObject@@QAEHXZ ; CGdiObject::DeleteObject

; 206  : 	BOOL bCreated = m_font.CreateFontIndirect(&m_lf);

  0001b	8d 87 a0 00 00
	00		 lea	 eax, DWORD PTR [edi+160]
; File C:\Program Files (x86)\Microsoft Visual Studio\2019\Community\VC\Tools\MSVC\14.29.30133\atlmfc\include\afxwin1.inl

; 157  : 	{ return Attach(::CreateFontIndirect(lpLogFont)); }

  00021	50		 push	 eax
  00022	ff 15 00 00 00
	00		 call	 DWORD PTR __imp__CreateFontIndirectA@4
  00028	50		 push	 eax
  00029	8d 8f dc 00 00
	00		 lea	 ecx, DWORD PTR [edi+220]
  0002f	e8 00 00 00 00	 call	 ?Attach@CGdiObject@@QAEHPAX@Z ; CGdiObject::Attach
; File D:\git\src\IBK\IBK_DRFN\ProjSrc\SrcChartEx\ChartAddIn\ChartPatternAddIn\Control\Label.cpp

; 743  : 	UpdateSurface();

  00034	8b cf		 mov	 ecx, edi
  00036	e8 00 00 00 00	 call	 ?UpdateSurface@CLabel@@IAEXXZ ; CLabel::UpdateSurface

; 744  : 
; 745  : 	return *this;	

  0003b	8b c7		 mov	 eax, edi
  0003d	5f		 pop	 edi
  0003e	5e		 pop	 esi

; 746  : }

  0003f	5d		 pop	 ebp
  00040	c2 04 00	 ret	 4
?SetFontItalic@CLabel@@UAEAAV1@H@Z ENDP			; CLabel::SetFontItalic
_TEXT	ENDS
; Function compile flags: /Ogtp
; File D:\git\src\IBK\IBK_DRFN\ProjSrc\SrcChartEx\ChartAddIn\ChartPatternAddIn\Control\Label.cpp
; File C:\Program Files (x86)\Microsoft Visual Studio\2019\Community\VC\Tools\MSVC\14.29.30133\atlmfc\include\afxwin1.inl
; File D:\git\src\IBK\IBK_DRFN\ProjSrc\SrcChartEx\ChartAddIn\ChartPatternAddIn\Control\Label.cpp
;	COMDAT ?SetFontUnderline@CLabel@@UAEAAV1@H@Z
_TEXT	SEGMENT
_bSet$ = 8						; size = 4
?SetFontUnderline@CLabel@@UAEAAV1@H@Z PROC		; CLabel::SetFontUnderline, COMDAT
; _this$ = ecx

; 712  : {	

  00000	55		 push	 ebp
  00001	8b ec		 mov	 ebp, esp

; 713  : 	m_lf.lfUnderline = bSet;

  00003	8a 45 08	 mov	 al, BYTE PTR _bSet$[ebp]
  00006	56		 push	 esi
  00007	57		 push	 edi
  00008	8b f9		 mov	 edi, ecx

; 205  : 	m_font.DeleteObject();

  0000a	8d 8f dc 00 00
	00		 lea	 ecx, DWORD PTR [edi+220]

; 713  : 	m_lf.lfUnderline = bSet;

  00010	88 87 b5 00 00
	00		 mov	 BYTE PTR [edi+181], al

; 205  : 	m_font.DeleteObject();

  00016	e8 00 00 00 00	 call	 ?DeleteObject@CGdiObject@@QAEHXZ ; CGdiObject::DeleteObject

; 206  : 	BOOL bCreated = m_font.CreateFontIndirect(&m_lf);

  0001b	8d 87 a0 00 00
	00		 lea	 eax, DWORD PTR [edi+160]
; File C:\Program Files (x86)\Microsoft Visual Studio\2019\Community\VC\Tools\MSVC\14.29.30133\atlmfc\include\afxwin1.inl

; 157  : 	{ return Attach(::CreateFontIndirect(lpLogFont)); }

  00021	50		 push	 eax
  00022	ff 15 00 00 00
	00		 call	 DWORD PTR __imp__CreateFontIndirectA@4
  00028	50		 push	 eax
  00029	8d 8f dc 00 00
	00		 lea	 ecx, DWORD PTR [edi+220]
  0002f	e8 00 00 00 00	 call	 ?Attach@CGdiObject@@QAEHPAX@Z ; CGdiObject::Attach
; File D:\git\src\IBK\IBK_DRFN\ProjSrc\SrcChartEx\ChartAddIn\ChartPatternAddIn\Control\Label.cpp

; 715  : 	UpdateSurface();

  00034	8b cf		 mov	 ecx, edi
  00036	e8 00 00 00 00	 call	 ?UpdateSurface@CLabel@@IAEXXZ ; CLabel::UpdateSurface

; 716  : 
; 717  : 	return *this;

  0003b	8b c7		 mov	 eax, edi
  0003d	5f		 pop	 edi
  0003e	5e		 pop	 esi

; 718  : }

  0003f	5d		 pop	 ebp
  00040	c2 04 00	 ret	 4
?SetFontUnderline@CLabel@@UAEAAV1@H@Z ENDP		; CLabel::SetFontUnderline
_TEXT	ENDS
; Function compile flags: /Ogtp
; File D:\git\src\IBK\IBK_DRFN\ProjSrc\SrcChartEx\ChartAddIn\ChartPatternAddIn\Control\Label.cpp
; File C:\Program Files (x86)\Microsoft Visual Studio\2019\Community\VC\Tools\MSVC\14.29.30133\atlmfc\include\atlsimpstr.h
; File D:\git\src\IBK\IBK_DRFN\ProjSrc\SrcChartEx\ChartAddIn\ChartPatternAddIn\Control\Label.cpp
; File C:\Program Files (x86)\Microsoft Visual Studio\2019\Community\VC\Tools\MSVC\14.29.30133\atlmfc\include\afxwin1.inl
; File D:\git\src\IBK\IBK_DRFN\ProjSrc\SrcChartEx\ChartAddIn\ChartPatternAddIn\Control\Label.cpp
;	COMDAT ?SetFontName@CLabel@@UAEAAV1@ABV?$CStringT@DV?$StrTraitMFC_DLL@DV?$ChTraitsCRT@D@ATL@@@@@ATL@@E@Z
_TEXT	SEGMENT
_strFont$ = 8						; size = 4
_byCharSet$ = 12					; size = 1
?SetFontName@CLabel@@UAEAAV1@ABV?$CStringT@DV?$StrTraitMFC_DLL@DV?$ChTraitsCRT@D@ATL@@@@@ATL@@E@Z PROC ; CLabel::SetFontName, COMDAT
; _this$ = ecx

; 908  : {	

  00000	55		 push	 ebp
  00001	8b ec		 mov	 ebp, esp

; 909  : 
; 910  : 	m_lf.lfCharSet = byCharSet;

  00003	8a 45 0c	 mov	 al, BYTE PTR _byCharSet$[ebp]
  00006	56		 push	 esi
  00007	57		 push	 edi
  00008	8b f9		 mov	 edi, ecx
  0000a	88 87 b7 00 00
	00		 mov	 BYTE PTR [edi+183], al
; File C:\Program Files (x86)\Microsoft Visual Studio\2019\Community\VC\Tools\MSVC\14.29.30133\atlmfc\include\atlsimpstr.h

; 377  : 		return( m_pszData );

  00010	8b 45 08	 mov	 eax, DWORD PTR _strFont$[ebp]
  00013	8b 10		 mov	 edx, DWORD PTR [eax]
; File D:\git\src\IBK\IBK_DRFN\ProjSrc\SrcChartEx\ChartAddIn\ChartPatternAddIn\Control\Label.cpp

; 912  : 	_tcscpy(m_lf.lfFaceName,strFont);

  00015	8d 87 bc 00 00
	00		 lea	 eax, DWORD PTR [edi+188]
  0001b	0f 1f 44 00 00	 npad	 5
$LL3@SetFontNam:
  00020	8a 0a		 mov	 cl, BYTE PTR [edx]
  00022	8d 52 01	 lea	 edx, DWORD PTR [edx+1]
  00025	88 08		 mov	 BYTE PTR [eax], cl
  00027	8d 40 01	 lea	 eax, DWORD PTR [eax+1]
  0002a	84 c9		 test	 cl, cl
  0002c	75 f2		 jne	 SHORT $LL3@SetFontNam

; 205  : 	m_font.DeleteObject();

  0002e	8d 8f dc 00 00
	00		 lea	 ecx, DWORD PTR [edi+220]
  00034	e8 00 00 00 00	 call	 ?DeleteObject@CGdiObject@@QAEHXZ ; CGdiObject::DeleteObject

; 206  : 	BOOL bCreated = m_font.CreateFontIndirect(&m_lf);

  00039	8d 87 a0 00 00
	00		 lea	 eax, DWORD PTR [edi+160]
; File C:\Program Files (x86)\Microsoft Visual Studio\2019\Community\VC\Tools\MSVC\14.29.30133\atlmfc\include\afxwin1.inl

; 157  : 	{ return Attach(::CreateFontIndirect(lpLogFont)); }

  0003f	50		 push	 eax
  00040	ff 15 00 00 00
	00		 call	 DWORD PTR __imp__CreateFontIndirectA@4
  00046	50		 push	 eax
  00047	8d 8f dc 00 00
	00		 lea	 ecx, DWORD PTR [edi+220]
  0004d	e8 00 00 00 00	 call	 ?Attach@CGdiObject@@QAEHPAX@Z ; CGdiObject::Attach
; File D:\git\src\IBK\IBK_DRFN\ProjSrc\SrcChartEx\ChartAddIn\ChartPatternAddIn\Control\Label.cpp

; 914  : 	UpdateSurface();

  00052	8b cf		 mov	 ecx, edi
  00054	e8 00 00 00 00	 call	 ?UpdateSurface@CLabel@@IAEXXZ ; CLabel::UpdateSurface

; 915  : 
; 916  : 	return *this;

  00059	8b c7		 mov	 eax, edi
  0005b	5f		 pop	 edi
  0005c	5e		 pop	 esi

; 917  : }

  0005d	5d		 pop	 ebp
  0005e	c2 08 00	 ret	 8
?SetFontName@CLabel@@UAEAAV1@ABV?$CStringT@DV?$StrTraitMFC_DLL@DV?$ChTraitsCRT@D@ATL@@@@@ATL@@E@Z ENDP ; CLabel::SetFontName
_TEXT	ENDS
; Function compile flags: /Ogtp
; File D:\git\src\IBK\IBK_DRFN\ProjSrc\SrcChartEx\ChartAddIn\ChartPatternAddIn\Control\Label.cpp
; File C:\Program Files (x86)\Microsoft Visual Studio\2019\Community\VC\Tools\MSVC\14.29.30133\atlmfc\include\afxwin1.inl
; File D:\git\src\IBK\IBK_DRFN\ProjSrc\SrcChartEx\ChartAddIn\ChartPatternAddIn\Control\Label.cpp
;	COMDAT ?SetFontBold@CLabel@@UAEAAV1@H@Z
_TEXT	SEGMENT
_bBold$ = 8						; size = 4
?SetFontBold@CLabel@@UAEAAV1@H@Z PROC			; CLabel::SetFontBold, COMDAT
; _this$ = ecx

; 685  : {	

  00000	55		 push	 ebp
  00001	8b ec		 mov	 ebp, esp

; 686  : 
; 687  : 	m_lf.lfWeight = bBold ? FW_BOLD : FW_NORMAL;

  00003	83 7d 08 00	 cmp	 DWORD PTR _bBold$[ebp], 0
  00007	b8 90 01 00 00	 mov	 eax, 400		; 00000190H
  0000c	56		 push	 esi
  0000d	57		 push	 edi
  0000e	8b f9		 mov	 edi, ecx
  00010	b9 bc 02 00 00	 mov	 ecx, 700		; 000002bcH
  00015	0f 45 c1	 cmovne	 eax, ecx

; 205  : 	m_font.DeleteObject();

  00018	8d 8f dc 00 00
	00		 lea	 ecx, DWORD PTR [edi+220]

; 686  : 
; 687  : 	m_lf.lfWeight = bBold ? FW_BOLD : FW_NORMAL;

  0001e	89 87 b0 00 00
	00		 mov	 DWORD PTR [edi+176], eax

; 205  : 	m_font.DeleteObject();

  00024	e8 00 00 00 00	 call	 ?DeleteObject@CGdiObject@@QAEHXZ ; CGdiObject::DeleteObject

; 206  : 	BOOL bCreated = m_font.CreateFontIndirect(&m_lf);

  00029	8d 87 a0 00 00
	00		 lea	 eax, DWORD PTR [edi+160]
; File C:\Program Files (x86)\Microsoft Visual Studio\2019\Community\VC\Tools\MSVC\14.29.30133\atlmfc\include\afxwin1.inl

; 157  : 	{ return Attach(::CreateFontIndirect(lpLogFont)); }

  0002f	50		 push	 eax
  00030	ff 15 00 00 00
	00		 call	 DWORD PTR __imp__CreateFontIndirectA@4
  00036	50		 push	 eax
  00037	8d 8f dc 00 00
	00		 lea	 ecx, DWORD PTR [edi+220]
  0003d	e8 00 00 00 00	 call	 ?Attach@CGdiObject@@QAEHPAX@Z ; CGdiObject::Attach
; File D:\git\src\IBK\IBK_DRFN\ProjSrc\SrcChartEx\ChartAddIn\ChartPatternAddIn\Control\Label.cpp

; 689  : 	UpdateSurface();

  00042	8b cf		 mov	 ecx, edi
  00044	e8 00 00 00 00	 call	 ?UpdateSurface@CLabel@@IAEXXZ ; CLabel::UpdateSurface

; 690  : 	return *this;

  00049	8b c7		 mov	 eax, edi
  0004b	5f		 pop	 edi
  0004c	5e		 pop	 esi

; 691  : }

  0004d	5d		 pop	 ebp
  0004e	c2 04 00	 ret	 4
?SetFontBold@CLabel@@UAEAAV1@H@Z ENDP			; CLabel::SetFontBold
_TEXT	ENDS
; Function compile flags: /Ogtp
; File D:\git\src\IBK\IBK_DRFN\ProjSrc\SrcChartEx\ChartAddIn\ChartPatternAddIn\Control\Label.cpp
;	COMDAT ?SetText@CLabel@@UAEAAV1@ABV?$CStringT@DV?$StrTraitMFC_DLL@DV?$ChTraitsCRT@D@ATL@@@@@ATL@@@Z
_TEXT	SEGMENT
_strText$ = 8						; size = 4
?SetText@CLabel@@UAEAAV1@ABV?$CStringT@DV?$StrTraitMFC_DLL@DV?$ChTraitsCRT@D@ATL@@@@@ATL@@@Z PROC ; CLabel::SetText, COMDAT
; _this$ = ecx

; 631  : {

  00000	55		 push	 ebp
  00001	8b ec		 mov	 ebp, esp

; 632  : 
; 633  : 	SetWindowText(strText);

  00003	8b 45 08	 mov	 eax, DWORD PTR _strText$[ebp]
  00006	56		 push	 esi
  00007	8b f1		 mov	 esi, ecx
  00009	ff 30		 push	 DWORD PTR [eax]
  0000b	e8 00 00 00 00	 call	 ?SetWindowTextA@CWnd@@QAEXPBD@Z ; CWnd::SetWindowTextA

; 634  : 	UpdateSurface();

  00010	8b ce		 mov	 ecx, esi
  00012	e8 00 00 00 00	 call	 ?UpdateSurface@CLabel@@IAEXXZ ; CLabel::UpdateSurface

; 635  : 
; 636  : 	return *this;

  00017	8b c6		 mov	 eax, esi
  00019	5e		 pop	 esi

; 637  : }

  0001a	5d		 pop	 ebp
  0001b	c2 04 00	 ret	 4
?SetText@CLabel@@UAEAAV1@ABV?$CStringT@DV?$StrTraitMFC_DLL@DV?$ChTraitsCRT@D@ATL@@@@@ATL@@@Z ENDP ; CLabel::SetText
_TEXT	ENDS
; Function compile flags: /Ogtp
; File D:\git\src\IBK\IBK_DRFN\ProjSrc\SrcChartEx\ChartAddIn\ChartPatternAddIn\Control\Label.cpp
;	COMDAT ?SetTextColor@CLabel@@UAEAAV1@K@Z
_TEXT	SEGMENT
_crText$ = 8						; size = 4
?SetTextColor@CLabel@@UAEAAV1@K@Z PROC			; CLabel::SetTextColor, COMDAT
; _this$ = ecx

; 658  : {

  00000	55		 push	 ebp
  00001	8b ec		 mov	 ebp, esp

; 659  : 
; 660  : 	m_crText = crText;

  00003	8b 45 08	 mov	 eax, DWORD PTR _crText$[ebp]
  00006	56		 push	 esi
  00007	8b f1		 mov	 esi, ecx
  00009	89 86 8c 00 00
	00		 mov	 DWORD PTR [esi+140], eax

; 661  : 	
; 662  : 	UpdateSurface();

  0000f	e8 00 00 00 00	 call	 ?UpdateSurface@CLabel@@IAEXXZ ; CLabel::UpdateSurface

; 663  : 	return *this;

  00014	8b c6		 mov	 eax, esi
  00016	5e		 pop	 esi

; 664  : }

  00017	5d		 pop	 ebp
  00018	c2 04 00	 ret	 4
?SetTextColor@CLabel@@UAEAAV1@K@Z ENDP			; CLabel::SetTextColor
_TEXT	ENDS
; Function compile flags: /Ogtp
; File D:\git\src\IBK\IBK_DRFN\ProjSrc\SrcChartEx\ChartAddIn\ChartPatternAddIn\Control\Label.cpp
;	COMDAT ?SetBkColor@CLabel@@UAEAAV1@KKW4BackFillMode@1@@Z
_TEXT	SEGMENT
_crBkgnd$ = 8						; size = 4
_crBkgndHigh$ = 12					; size = 4
_mode$ = 16						; size = 4
?SetBkColor@CLabel@@UAEAAV1@KKW4BackFillMode@1@@Z PROC	; CLabel::SetBkColor, COMDAT
; _this$ = ecx

; 865  : {

  00000	55		 push	 ebp
  00001	8b ec		 mov	 ebp, esp

; 866  : 
; 867  : 	m_crLoColor = crBkgnd;
; 868  : 	m_crHiColor = crBkgndHigh;

  00003	8b 45 0c	 mov	 eax, DWORD PTR _crBkgndHigh$[ebp]
  00006	53		 push	 ebx
  00007	8b 5d 08	 mov	 ebx, DWORD PTR _crBkgnd$[ebp]
  0000a	56		 push	 esi
  0000b	8b f1		 mov	 esi, ecx

; 869  : 
; 870  : 	m_fillmode = mode;
; 871  : 
; 872  : 	if (m_hBackBrush)

  0000d	8b 8e 9c 00 00
	00		 mov	 ecx, DWORD PTR [esi+156]
  00013	89 86 18 01 00
	00		 mov	 DWORD PTR [esi+280], eax
  00019	8b 45 10	 mov	 eax, DWORD PTR _mode$[ebp]
  0001c	89 9e 1c 01 00
	00		 mov	 DWORD PTR [esi+284], ebx
  00022	89 86 14 01 00
	00		 mov	 DWORD PTR [esi+276], eax
  00028	85 c9		 test	 ecx, ecx
  0002a	74 0d		 je	 SHORT $LN2@SetBkColor

; 873  : 		::DeleteObject(m_hBackBrush);

  0002c	51		 push	 ecx
  0002d	ff 15 00 00 00
	00		 call	 DWORD PTR __imp__DeleteObject@4
  00033	8b 86 14 01 00
	00		 mov	 eax, DWORD PTR [esi+276]
$LN2@SetBkColor:

; 874  : 
; 875  : 	
; 876  : 	if (m_fillmode == Normal)

  00039	85 c0		 test	 eax, eax
  0003b	75 2a		 jne	 SHORT $LN3@SetBkColor

; 877  : 	{	
; 878  : 		m_hBackBrush = ::CreateSolidBrush(crBkgnd);

  0003d	53		 push	 ebx
  0003e	ff 15 00 00 00
	00		 call	 DWORD PTR __imp__CreateSolidBrush@4
  00044	89 86 9c 00 00
	00		 mov	 DWORD PTR [esi+156], eax

; 879  : 		if(m_hwndBrush)

  0004a	8b 86 98 00 00
	00		 mov	 eax, DWORD PTR [esi+152]
  00050	85 c0		 test	 eax, eax
  00052	74 07		 je	 SHORT $LN4@SetBkColor

; 880  : 			::DeleteObject(m_hwndBrush);

  00054	50		 push	 eax
  00055	ff 15 00 00 00
	00		 call	 DWORD PTR __imp__DeleteObject@4
$LN4@SetBkColor:

; 881  : 		m_hwndBrush = m_hBackBrush;

  0005b	8b 86 9c 00 00
	00		 mov	 eax, DWORD PTR [esi+156]
  00061	89 86 98 00 00
	00		 mov	 DWORD PTR [esi+152], eax
$LN3@SetBkColor:

; 882  : 	}
; 883  : 
; 884  : 	UpdateSurface();

  00067	8b ce		 mov	 ecx, esi
  00069	e8 00 00 00 00	 call	 ?UpdateSurface@CLabel@@IAEXXZ ; CLabel::UpdateSurface

; 885  : 
; 886  : 	return *this;

  0006e	8b c6		 mov	 eax, esi
  00070	5e		 pop	 esi
  00071	5b		 pop	 ebx

; 887  : }

  00072	5d		 pop	 ebp
  00073	c2 0c 00	 ret	 12			; 0000000cH
?SetBkColor@CLabel@@UAEAAV1@KKW4BackFillMode@1@@Z ENDP	; CLabel::SetBkColor
_TEXT	ENDS
; Function compile flags: /Ogtp
; File D:\git\src\IBK\IBK_DRFN\ProjSrc\SrcChartEx\ChartAddIn\ChartPatternAddIn\Control\Label.cpp
;	COMDAT ?SetBorderColor@CLabel@@UAEAAV1@KH@Z
_TEXT	SEGMENT
_crBorderParm$ = 8					; size = 4
_nWidth$ = 12						; size = 4
?SetBorderColor@CLabel@@UAEAAV1@KH@Z PROC		; CLabel::SetBorderColor, COMDAT
; _this$ = ecx

; 236  : {

  00000	55		 push	 ebp
  00001	8b ec		 mov	 ebp, esp

; 237  : 	m_crBorder = crBorderParm;

  00003	8b 45 08	 mov	 eax, DWORD PTR _crBorderParm$[ebp]
  00006	89 81 94 00 00
	00		 mov	 DWORD PTR [ecx+148], eax

; 238  : 	m_bBorderColor = TRUE;
; 239  : 	m_iBorderWidth = nWidth;

  0000c	8b 45 0c	 mov	 eax, DWORD PTR _nWidth$[ebp]
  0000f	89 81 24 01 00
	00		 mov	 DWORD PTR [ecx+292], eax

; 240  : 
; 241  : 	return *this;

  00015	8b c1		 mov	 eax, ecx
  00017	c7 81 20 01 00
	00 01 00 00 00	 mov	 DWORD PTR [ecx+288], 1

; 242  : }

  00021	5d		 pop	 ebp
  00022	c2 08 00	 ret	 8
?SetBorderColor@CLabel@@UAEAAV1@KH@Z ENDP		; CLabel::SetBorderColor
_TEXT	ENDS
; Function compile flags: /Ogtp
; File D:\git\src\IBK\IBK_DRFN\ProjSrc\SrcChartEx\ChartAddIn\ChartPatternAddIn\Control\Label.cpp
; File C:\Program Files (x86)\Microsoft Visual Studio\2019\Community\VC\Tools\MSVC\14.29.30133\atlmfc\include\afxwin2.inl
; File D:\git\src\IBK\IBK_DRFN\ProjSrc\SrcChartEx\ChartAddIn\ChartPatternAddIn\Control\Label.cpp
; File C:\Program Files (x86)\Microsoft Visual Studio\2019\Community\VC\Tools\MSVC\14.29.30133\atlmfc\include\afxwin1.inl
; File D:\git\src\IBK\IBK_DRFN\ProjSrc\SrcChartEx\ChartAddIn\ChartPatternAddIn\Control\Label.cpp
;	COMDAT ??0CLabel@@QAE@XZ
_TEXT	SEGMENT
_this$ = -4						; size = 4
??0CLabel@@QAE@XZ PROC					; CLabel::CLabel, COMDAT
; _this$ = ecx

; 115  : {

  00000	55		 push	 ebp
  00001	8b ec		 mov	 ebp, esp
  00003	51		 push	 ecx
  00004	57		 push	 edi
  00005	8b f9		 mov	 edi, ecx
  00007	89 7d fc	 mov	 DWORD PTR _this$[ebp], edi
; File C:\Program Files (x86)\Microsoft Visual Studio\2019\Community\VC\Tools\MSVC\14.29.30133\atlmfc\include\afxwin2.inl

; 603  : 	{ }

  0000a	e8 00 00 00 00	 call	 ??0CWnd@@QAE@XZ		; CWnd::CWnd
; File D:\git\src\IBK\IBK_DRFN\ProjSrc\SrcChartEx\ChartAddIn\ChartPatternAddIn\Control\Label.cpp

; 115  : {

  0000f	c7 07 00 00 00
	00		 mov	 DWORD PTR [edi], OFFSET ??_7CLabel@@6B@
  00015	8d 8f e4 00 00
	00		 lea	 ecx, DWORD PTR [edi+228]
; File C:\Program Files (x86)\Microsoft Visual Studio\2019\Community\VC\Tools\MSVC\14.29.30133\atlmfc\include\afxwin1.inl

; 70   : 	{ m_hObject = NULL; }

  0001b	c7 87 e0 00 00
	00 00 00 00 00	 mov	 DWORD PTR [edi+224], 0

; 153  : 	{ }

  00025	c7 87 dc 00 00
	00 00 00 00 00	 mov	 DWORD PTR [edi+220], OFFSET ??_7CFont@@6B@
; File D:\git\src\IBK\IBK_DRFN\ProjSrc\SrcChartEx\ChartAddIn\ChartPatternAddIn\Control\Label.cpp

; 115  : {

  0002f	ff 15 00 00 00
	00		 call	 DWORD PTR __imp_??0?$CStringT@DV?$StrTraitMFC_DLL@DV?$ChTraitsCRT@D@ATL@@@@@ATL@@QAE@XZ

; 116  : 	m_crText = GetSysColor(COLOR_WINDOWTEXT);

  00035	6a 08		 push	 8
  00037	ff 15 00 00 00
	00		 call	 DWORD PTR __imp__GetSysColor@4

; 117  : 
; 118  : // 1.1
; 119  : 	m_hBackBrush = NULL;
; 120  : 
; 121  : 
; 122  : 	m_crHiColor =		0;
; 123  : 	m_crLoColor	=		0;
; 124  : 
; 125  : 	m_bTimer =			FALSE;
; 126  : 	m_bState =			FALSE;
; 127  : 	m_bTransparent =	FALSE;
; 128  : 	m_bLink =			TRUE;
; 129  : 	m_hCursor =			NULL;
; 130  : 	m_Type =			None;
; 131  : 	m_bFont3d =			FALSE;
; 132  : 	m_bNotifyParent =	FALSE;
; 133  : 	m_bToolTips =		FALSE;
; 134  : 	m_bRotation =		FALSE;
; 135  : 	m_bBorderColor =	FALSE;
; 136  : 	m_fillmode =			Normal;
; 137  : 	m_cr3DHiliteColor =	RGB(255,255,255);
; 138  : 	
; 139  : 	m_hwndBrush = ::CreateSolidBrush(GetSysColor(COLOR_3DFACE));

  0003d	6a 0f		 push	 15			; 0000000fH
  0003f	89 87 8c 00 00
	00		 mov	 DWORD PTR [edi+140], eax
  00045	c7 87 9c 00 00
	00 00 00 00 00	 mov	 DWORD PTR [edi+156], 0
  0004f	c7 87 18 01 00
	00 00 00 00 00	 mov	 DWORD PTR [edi+280], 0
  00059	c7 87 1c 01 00
	00 00 00 00 00	 mov	 DWORD PTR [edi+284], 0
  00063	c7 87 ec 00 00
	00 00 00 00 00	 mov	 DWORD PTR [edi+236], 0
  0006d	c7 87 e8 00 00
	00 00 00 00 00	 mov	 DWORD PTR [edi+232], 0
  00077	c7 87 f4 00 00
	00 00 00 00 00	 mov	 DWORD PTR [edi+244], 0
  00081	c7 87 f0 00 00
	00 01 00 00 00	 mov	 DWORD PTR [edi+240], 1
  0008b	c7 87 0c 01 00
	00 00 00 00 00	 mov	 DWORD PTR [edi+268], 0
  00095	c7 87 08 01 00
	00 00 00 00 00	 mov	 DWORD PTR [edi+264], 0
  0009f	c7 87 f8 00 00
	00 00 00 00 00	 mov	 DWORD PTR [edi+248], 0
  000a9	c7 87 00 01 00
	00 00 00 00 00	 mov	 DWORD PTR [edi+256], 0
  000b3	c7 87 fc 00 00
	00 00 00 00 00	 mov	 DWORD PTR [edi+252], 0
  000bd	c7 87 04 01 00
	00 00 00 00 00	 mov	 DWORD PTR [edi+260], 0
  000c7	c7 87 20 01 00
	00 00 00 00 00	 mov	 DWORD PTR [edi+288], 0
  000d1	c7 87 14 01 00
	00 00 00 00 00	 mov	 DWORD PTR [edi+276], 0
  000db	c7 87 90 00 00
	00 ff ff ff 00	 mov	 DWORD PTR [edi+144], 16777215 ; 00ffffffH
  000e5	ff 15 00 00 00
	00		 call	 DWORD PTR __imp__GetSysColor@4
  000eb	50		 push	 eax
  000ec	ff 15 00 00 00
	00		 call	 DWORD PTR __imp__CreateSolidBrush@4
  000f2	89 87 98 00 00
	00		 mov	 DWORD PTR [edi+152], eax

; 140  : 
; 141  : 	pSignCheck = FALSE;
; 142  : }

  000f8	8b c7		 mov	 eax, edi
  000fa	c7 87 80 00 00
	00 00 00 00 00	 mov	 DWORD PTR [edi+128], 0
  00104	5f		 pop	 edi
  00105	8b e5		 mov	 esp, ebp
  00107	5d		 pop	 ebp
  00108	c3		 ret	 0
??0CLabel@@QAE@XZ ENDP					; CLabel::CLabel
_TEXT	ENDS
; Function compile flags: /Ogtp
; File C:\Program Files (x86)\Microsoft Visual Studio\2019\Community\VC\Tools\MSVC\14.29.30133\atlmfc\include\afx.inl
;	COMDAT ??_GCStatic@@UAEPAXI@Z
_TEXT	SEGMENT
___flags$ = 8						; size = 4
??_GCStatic@@UAEPAXI@Z PROC				; CStatic::`scalar deleting destructor', COMDAT
; _this$ = ecx
  00000	55		 push	 ebp
  00001	8b ec		 mov	 ebp, esp
  00003	56		 push	 esi
  00004	8b f1		 mov	 esi, ecx
  00006	e8 00 00 00 00	 call	 ??1CStatic@@UAE@XZ	; CStatic::~CStatic
  0000b	8b 45 08	 mov	 eax, DWORD PTR ___flags$[ebp]
  0000e	a8 01		 test	 al, 1
  00010	74 22		 je	 SHORT $LN9@scalar
  00012	a8 04		 test	 al, 4
  00014	75 10		 jne	 SHORT $LN3@scalar

; 112  : 	{ ::operator delete(p); }

  00016	56		 push	 esi
  00017	e8 00 00 00 00	 call	 ??3@YAXPAX@Z		; operator delete
  0001c	83 c4 04	 add	 esp, 4
  0001f	8b c6		 mov	 eax, esi
  00021	5e		 pop	 esi
  00022	5d		 pop	 ebp
  00023	c2 04 00	 ret	 4
$LN3@scalar:
  00026	68 80 00 00 00	 push	 128			; 00000080H
  0002b	56		 push	 esi
  0002c	e8 00 00 00 00	 call	 ?__global_delete@@YAXPAXI@Z ; __global_delete
  00031	83 c4 08	 add	 esp, 8
$LN9@scalar:
  00034	8b c6		 mov	 eax, esi
  00036	5e		 pop	 esi
  00037	5d		 pop	 ebp
  00038	c2 04 00	 ret	 4
??_GCStatic@@UAEPAXI@Z ENDP				; CStatic::`scalar deleting destructor'
_TEXT	ENDS
; Function compile flags: /Ogtp
; File C:\Program Files (x86)\Microsoft Visual Studio\2019\Community\VC\Tools\MSVC\14.29.30133\atlmfc\include\afxwin2.inl
;	COMDAT ?EndModalState@CWnd@@UAEXXZ
_TEXT	SEGMENT
?EndModalState@CWnd@@UAEXXZ PROC			; CWnd::EndModalState, COMDAT
; _this$ = ecx

; 567  : 	{ ::EnableWindow(m_hWnd, TRUE); }

  00000	6a 01		 push	 1
  00002	ff 71 20	 push	 DWORD PTR [ecx+32]
  00005	ff 15 00 00 00
	00		 call	 DWORD PTR __imp__EnableWindow@8
  0000b	c3		 ret	 0
?EndModalState@CWnd@@UAEXXZ ENDP			; CWnd::EndModalState
_TEXT	ENDS
; Function compile flags: /Ogtp
; File C:\Program Files (x86)\Microsoft Visual Studio\2019\Community\VC\Tools\MSVC\14.29.30133\atlmfc\include\afxwin2.inl
;	COMDAT ?BeginModalState@CWnd@@UAEXXZ
_TEXT	SEGMENT
?BeginModalState@CWnd@@UAEXXZ PROC			; CWnd::BeginModalState, COMDAT
; _this$ = ecx

; 565  : 	{ ::EnableWindow(m_hWnd, FALSE); }

  00000	6a 00		 push	 0
  00002	ff 71 20	 push	 DWORD PTR [ecx+32]
  00005	ff 15 00 00 00
	00		 call	 DWORD PTR __imp__EnableWindow@8
  0000b	c3		 ret	 0
?BeginModalState@CWnd@@UAEXXZ ENDP			; CWnd::BeginModalState
_TEXT	ENDS
; Function compile flags: /Ogtp
; File C:\Program Files (x86)\Microsoft Visual Studio\2019\Community\VC\Tools\MSVC\14.29.30133\atlmfc\include\afxwin2.inl
;	COMDAT ?DoDataExchange@CWnd@@MAEXPAVCDataExchange@@@Z
_TEXT	SEGMENT
___formal$ = 8						; size = 4
?DoDataExchange@CWnd@@MAEXPAVCDataExchange@@@Z PROC	; CWnd::DoDataExchange, COMDAT
; _this$ = ecx

; 561  : 	{ } // default does nothing

  00000	c2 04 00	 ret	 4
?DoDataExchange@CWnd@@MAEXPAVCDataExchange@@@Z ENDP	; CWnd::DoDataExchange
_TEXT	ENDS
; Function compile flags: /Ogtp
; File C:\Program Files (x86)\Microsoft Visual Studio\2019\Community\VC\Tools\MSVC\14.29.30133\atlmfc\include\afxwin1.inl
; File C:\Program Files (x86)\Microsoft Visual Studio\2019\Community\VC\Tools\MSVC\14.29.30133\atlmfc\include\afx.inl
;	COMDAT ??_GCRgn@@UAEPAXI@Z
_TEXT	SEGMENT
___flags$ = 8						; size = 4
??_GCRgn@@UAEPAXI@Z PROC				; CRgn::`scalar deleting destructor', COMDAT
; _this$ = ecx
  00000	55		 push	 ebp
  00001	8b ec		 mov	 ebp, esp
; File C:\Program Files (x86)\Microsoft Visual Studio\2019\Community\VC\Tools\MSVC\14.29.30133\atlmfc\include\afxwin1.inl

; 266  : 	{ }

  00003	56		 push	 esi
  00004	8b f1		 mov	 esi, ecx
  00006	c7 06 00 00 00
	00		 mov	 DWORD PTR [esi], OFFSET ??_7CRgn@@6B@
  0000c	e8 00 00 00 00	 call	 ??1CGdiObject@@UAE@XZ	; CGdiObject::~CGdiObject
  00011	8b 45 08	 mov	 eax, DWORD PTR ___flags$[ebp]
  00014	a8 01		 test	 al, 1
  00016	74 1f		 je	 SHORT $LN12@scalar
  00018	a8 04		 test	 al, 4
  0001a	75 10		 jne	 SHORT $LN3@scalar
; File C:\Program Files (x86)\Microsoft Visual Studio\2019\Community\VC\Tools\MSVC\14.29.30133\atlmfc\include\afx.inl

; 112  : 	{ ::operator delete(p); }

  0001c	56		 push	 esi
  0001d	e8 00 00 00 00	 call	 ??3@YAXPAX@Z		; operator delete
  00022	83 c4 04	 add	 esp, 4
  00025	8b c6		 mov	 eax, esi
  00027	5e		 pop	 esi
  00028	5d		 pop	 ebp
  00029	c2 04 00	 ret	 4
$LN3@scalar:
  0002c	6a 08		 push	 8
  0002e	56		 push	 esi
  0002f	e8 00 00 00 00	 call	 ?__global_delete@@YAXPAXI@Z ; __global_delete
  00034	83 c4 08	 add	 esp, 8
$LN12@scalar:
  00037	8b c6		 mov	 eax, esi
  00039	5e		 pop	 esi
  0003a	5d		 pop	 ebp
  0003b	c2 04 00	 ret	 4
??_GCRgn@@UAEPAXI@Z ENDP				; CRgn::`scalar deleting destructor'
_TEXT	ENDS
; Function compile flags: /Ogtp
; File C:\Program Files (x86)\Microsoft Visual Studio\2019\Community\VC\Tools\MSVC\14.29.30133\atlmfc\include\afxwin1.inl
;	COMDAT ??1CRgn@@UAE@XZ
_TEXT	SEGMENT
??1CRgn@@UAE@XZ PROC					; CRgn::~CRgn, COMDAT
; _this$ = ecx

; 266  : 	{ }

  00000	c7 01 00 00 00
	00		 mov	 DWORD PTR [ecx], OFFSET ??_7CRgn@@6B@
  00006	e9 00 00 00 00	 jmp	 ??1CGdiObject@@UAE@XZ	; CGdiObject::~CGdiObject
??1CRgn@@UAE@XZ ENDP					; CRgn::~CRgn
_TEXT	ENDS
; Function compile flags: /Ogtp
; File C:\Program Files (x86)\Microsoft Visual Studio\2019\Community\VC\Tools\MSVC\14.29.30133\atlmfc\include\afxwin1.inl
; File C:\Program Files (x86)\Microsoft Visual Studio\2019\Community\VC\Tools\MSVC\14.29.30133\atlmfc\include\afx.inl
;	COMDAT ??_GCBitmap@@UAEPAXI@Z
_TEXT	SEGMENT
___flags$ = 8						; size = 4
??_GCBitmap@@UAEPAXI@Z PROC				; CBitmap::`scalar deleting destructor', COMDAT
; _this$ = ecx
  00000	55		 push	 ebp
  00001	8b ec		 mov	 ebp, esp
; File C:\Program Files (x86)\Microsoft Visual Studio\2019\Community\VC\Tools\MSVC\14.29.30133\atlmfc\include\afxwin1.inl

; 179  : 	{ }

  00003	56		 push	 esi
  00004	8b f1		 mov	 esi, ecx
  00006	c7 06 00 00 00
	00		 mov	 DWORD PTR [esi], OFFSET ??_7CBitmap@@6B@
  0000c	e8 00 00 00 00	 call	 ??1CGdiObject@@UAE@XZ	; CGdiObject::~CGdiObject
  00011	8b 45 08	 mov	 eax, DWORD PTR ___flags$[ebp]
  00014	a8 01		 test	 al, 1
  00016	74 1f		 je	 SHORT $LN12@scalar
  00018	a8 04		 test	 al, 4
  0001a	75 10		 jne	 SHORT $LN3@scalar
; File C:\Program Files (x86)\Microsoft Visual Studio\2019\Community\VC\Tools\MSVC\14.29.30133\atlmfc\include\afx.inl

; 112  : 	{ ::operator delete(p); }

  0001c	56		 push	 esi
  0001d	e8 00 00 00 00	 call	 ??3@YAXPAX@Z		; operator delete
  00022	83 c4 04	 add	 esp, 4
  00025	8b c6		 mov	 eax, esi
  00027	5e		 pop	 esi
  00028	5d		 pop	 ebp
  00029	c2 04 00	 ret	 4
$LN3@scalar:
  0002c	6a 08		 push	 8
  0002e	56		 push	 esi
  0002f	e8 00 00 00 00	 call	 ?__global_delete@@YAXPAXI@Z ; __global_delete
  00034	83 c4 08	 add	 esp, 8
$LN12@scalar:
  00037	8b c6		 mov	 eax, esi
  00039	5e		 pop	 esi
  0003a	5d		 pop	 ebp
  0003b	c2 04 00	 ret	 4
??_GCBitmap@@UAEPAXI@Z ENDP				; CBitmap::`scalar deleting destructor'
_TEXT	ENDS
; Function compile flags: /Ogtp
; File C:\Program Files (x86)\Microsoft Visual Studio\2019\Community\VC\Tools\MSVC\14.29.30133\atlmfc\include\afxwin1.inl
;	COMDAT ??1CBitmap@@UAE@XZ
_TEXT	SEGMENT
??1CBitmap@@UAE@XZ PROC					; CBitmap::~CBitmap, COMDAT
; _this$ = ecx

; 179  : 	{ }

  00000	c7 01 00 00 00
	00		 mov	 DWORD PTR [ecx], OFFSET ??_7CBitmap@@6B@
  00006	e9 00 00 00 00	 jmp	 ??1CGdiObject@@UAE@XZ	; CGdiObject::~CGdiObject
??1CBitmap@@UAE@XZ ENDP					; CBitmap::~CBitmap
_TEXT	ENDS
; Function compile flags: /Ogtp
; File C:\Program Files (x86)\Microsoft Visual Studio\2019\Community\VC\Tools\MSVC\14.29.30133\atlmfc\include\afxwin1.inl
; File C:\Program Files (x86)\Microsoft Visual Studio\2019\Community\VC\Tools\MSVC\14.29.30133\atlmfc\include\afx.inl
;	COMDAT ??_GCFont@@UAEPAXI@Z
_TEXT	SEGMENT
___flags$ = 8						; size = 4
??_GCFont@@UAEPAXI@Z PROC				; CFont::`scalar deleting destructor', COMDAT
; _this$ = ecx
  00000	55		 push	 ebp
  00001	8b ec		 mov	 ebp, esp
; File C:\Program Files (x86)\Microsoft Visual Studio\2019\Community\VC\Tools\MSVC\14.29.30133\atlmfc\include\afxwin1.inl

; 155  : 	{ }

  00003	56		 push	 esi
  00004	8b f1		 mov	 esi, ecx
  00006	c7 06 00 00 00
	00		 mov	 DWORD PTR [esi], OFFSET ??_7CFont@@6B@
  0000c	e8 00 00 00 00	 call	 ??1CGdiObject@@UAE@XZ	; CGdiObject::~CGdiObject
  00011	8b 45 08	 mov	 eax, DWORD PTR ___flags$[ebp]
  00014	a8 01		 test	 al, 1
  00016	74 1f		 je	 SHORT $LN12@scalar
  00018	a8 04		 test	 al, 4
  0001a	75 10		 jne	 SHORT $LN3@scalar
; File C:\Program Files (x86)\Microsoft Visual Studio\2019\Community\VC\Tools\MSVC\14.29.30133\atlmfc\include\afx.inl

; 112  : 	{ ::operator delete(p); }

  0001c	56		 push	 esi
  0001d	e8 00 00 00 00	 call	 ??3@YAXPAX@Z		; operator delete
  00022	83 c4 04	 add	 esp, 4
  00025	8b c6		 mov	 eax, esi
  00027	5e		 pop	 esi
  00028	5d		 pop	 ebp
  00029	c2 04 00	 ret	 4
$LN3@scalar:
  0002c	6a 08		 push	 8
  0002e	56		 push	 esi
  0002f	e8 00 00 00 00	 call	 ?__global_delete@@YAXPAXI@Z ; __global_delete
  00034	83 c4 08	 add	 esp, 8
$LN12@scalar:
  00037	8b c6		 mov	 eax, esi
  00039	5e		 pop	 esi
  0003a	5d		 pop	 ebp
  0003b	c2 04 00	 ret	 4
??_GCFont@@UAEPAXI@Z ENDP				; CFont::`scalar deleting destructor'
_TEXT	ENDS
; Function compile flags: /Ogtp
; File C:\Program Files (x86)\Microsoft Visual Studio\2019\Community\VC\Tools\MSVC\14.29.30133\atlmfc\include\afxwin1.inl
;	COMDAT ??1CFont@@UAE@XZ
_TEXT	SEGMENT
??1CFont@@UAE@XZ PROC					; CFont::~CFont, COMDAT
; _this$ = ecx

; 155  : 	{ }

  00000	c7 01 00 00 00
	00		 mov	 DWORD PTR [ecx], OFFSET ??_7CFont@@6B@
  00006	e9 00 00 00 00	 jmp	 ??1CGdiObject@@UAE@XZ	; CGdiObject::~CGdiObject
??1CFont@@UAE@XZ ENDP					; CFont::~CFont
_TEXT	ENDS
; Function compile flags: /Ogtp
; File C:\Program Files (x86)\Microsoft Visual Studio\2019\Community\VC\Tools\MSVC\14.29.30133\atlmfc\include\afxwin1.inl
; File C:\Program Files (x86)\Microsoft Visual Studio\2019\Community\VC\Tools\MSVC\14.29.30133\atlmfc\include\afx.inl
;	COMDAT ??_GCBrush@@UAEPAXI@Z
_TEXT	SEGMENT
___flags$ = 8						; size = 4
??_GCBrush@@UAEPAXI@Z PROC				; CBrush::`scalar deleting destructor', COMDAT
; _this$ = ecx
  00000	55		 push	 ebp
  00001	8b ec		 mov	 ebp, esp
; File C:\Program Files (x86)\Microsoft Visual Studio\2019\Community\VC\Tools\MSVC\14.29.30133\atlmfc\include\afxwin1.inl

; 130  : 	{ }

  00003	56		 push	 esi
  00004	8b f1		 mov	 esi, ecx
  00006	c7 06 00 00 00
	00		 mov	 DWORD PTR [esi], OFFSET ??_7CBrush@@6B@
  0000c	e8 00 00 00 00	 call	 ??1CGdiObject@@UAE@XZ	; CGdiObject::~CGdiObject
  00011	8b 45 08	 mov	 eax, DWORD PTR ___flags$[ebp]
  00014	a8 01		 test	 al, 1
  00016	74 1f		 je	 SHORT $LN12@scalar
  00018	a8 04		 test	 al, 4
  0001a	75 10		 jne	 SHORT $LN3@scalar
; File C:\Program Files (x86)\Microsoft Visual Studio\2019\Community\VC\Tools\MSVC\14.29.30133\atlmfc\include\afx.inl

; 112  : 	{ ::operator delete(p); }

  0001c	56		 push	 esi
  0001d	e8 00 00 00 00	 call	 ??3@YAXPAX@Z		; operator delete
  00022	83 c4 04	 add	 esp, 4
  00025	8b c6		 mov	 eax, esi
  00027	5e		 pop	 esi
  00028	5d		 pop	 ebp
  00029	c2 04 00	 ret	 4
$LN3@scalar:
  0002c	6a 08		 push	 8
  0002e	56		 push	 esi
  0002f	e8 00 00 00 00	 call	 ?__global_delete@@YAXPAXI@Z ; __global_delete
  00034	83 c4 08	 add	 esp, 8
$LN12@scalar:
  00037	8b c6		 mov	 eax, esi
  00039	5e		 pop	 esi
  0003a	5d		 pop	 ebp
  0003b	c2 04 00	 ret	 4
??_GCBrush@@UAEPAXI@Z ENDP				; CBrush::`scalar deleting destructor'
_TEXT	ENDS
; Function compile flags: /Ogtp
; File C:\Program Files (x86)\Microsoft Visual Studio\2019\Community\VC\Tools\MSVC\14.29.30133\atlmfc\include\afxwin1.inl
;	COMDAT ??1CBrush@@UAE@XZ
_TEXT	SEGMENT
??1CBrush@@UAE@XZ PROC					; CBrush::~CBrush, COMDAT
; _this$ = ecx

; 130  : 	{ }

  00000	c7 01 00 00 00
	00		 mov	 DWORD PTR [ecx], OFFSET ??_7CBrush@@6B@
  00006	e9 00 00 00 00	 jmp	 ??1CGdiObject@@UAE@XZ	; CGdiObject::~CGdiObject
??1CBrush@@UAE@XZ ENDP					; CBrush::~CBrush
_TEXT	ENDS
; Function compile flags: /Ogtp
; File C:\Program Files (x86)\Microsoft Visual Studio\2019\Community\VC\Tools\MSVC\14.29.30133\atlmfc\include\afxwin1.inl
; File C:\Program Files (x86)\Microsoft Visual Studio\2019\Community\VC\Tools\MSVC\14.29.30133\atlmfc\include\afx.inl
;	COMDAT ??_GCPen@@UAEPAXI@Z
_TEXT	SEGMENT
___flags$ = 8						; size = 4
??_GCPen@@UAEPAXI@Z PROC				; CPen::`scalar deleting destructor', COMDAT
; _this$ = ecx
  00000	55		 push	 ebp
  00001	8b ec		 mov	 ebp, esp
; File C:\Program Files (x86)\Microsoft Visual Studio\2019\Community\VC\Tools\MSVC\14.29.30133\atlmfc\include\afxwin1.inl

; 106  : 	{ }

  00003	56		 push	 esi
  00004	8b f1		 mov	 esi, ecx
  00006	c7 06 00 00 00
	00		 mov	 DWORD PTR [esi], OFFSET ??_7CPen@@6B@
  0000c	e8 00 00 00 00	 call	 ??1CGdiObject@@UAE@XZ	; CGdiObject::~CGdiObject
  00011	8b 45 08	 mov	 eax, DWORD PTR ___flags$[ebp]
  00014	a8 01		 test	 al, 1
  00016	74 1f		 je	 SHORT $LN12@scalar
  00018	a8 04		 test	 al, 4
  0001a	75 10		 jne	 SHORT $LN3@scalar
; File C:\Program Files (x86)\Microsoft Visual Studio\2019\Community\VC\Tools\MSVC\14.29.30133\atlmfc\include\afx.inl

; 112  : 	{ ::operator delete(p); }

  0001c	56		 push	 esi
  0001d	e8 00 00 00 00	 call	 ??3@YAXPAX@Z		; operator delete
  00022	83 c4 04	 add	 esp, 4
  00025	8b c6		 mov	 eax, esi
  00027	5e		 pop	 esi
  00028	5d		 pop	 ebp
  00029	c2 04 00	 ret	 4
$LN3@scalar:
  0002c	6a 08		 push	 8
  0002e	56		 push	 esi
  0002f	e8 00 00 00 00	 call	 ?__global_delete@@YAXPAXI@Z ; __global_delete
  00034	83 c4 08	 add	 esp, 8
$LN12@scalar:
  00037	8b c6		 mov	 eax, esi
  00039	5e		 pop	 esi
  0003a	5d		 pop	 ebp
  0003b	c2 04 00	 ret	 4
??_GCPen@@UAEPAXI@Z ENDP				; CPen::`scalar deleting destructor'
_TEXT	ENDS
; Function compile flags: /Ogtp
; File C:\Program Files (x86)\Microsoft Visual Studio\2019\Community\VC\Tools\MSVC\14.29.30133\atlmfc\include\afxwin1.inl
;	COMDAT ??1CPen@@UAE@XZ
_TEXT	SEGMENT
??1CPen@@UAE@XZ PROC					; CPen::~CPen, COMDAT
; _this$ = ecx

; 106  : 	{ }

  00000	c7 01 00 00 00
	00		 mov	 DWORD PTR [ecx], OFFSET ??_7CPen@@6B@
  00006	e9 00 00 00 00	 jmp	 ??1CGdiObject@@UAE@XZ	; CGdiObject::~CGdiObject
??1CPen@@UAE@XZ ENDP					; CPen::~CPen
_TEXT	ENDS
; Function compile flags: /Ogtp
; File C:\Program Files (x86)\Microsoft Visual Studio\2019\Community\VC\Tools\MSVC\14.29.30133\atlmfc\include\afx.inl
;	COMDAT ??_GCGdiObject@@UAEPAXI@Z
_TEXT	SEGMENT
___flags$ = 8						; size = 4
??_GCGdiObject@@UAEPAXI@Z PROC				; CGdiObject::`scalar deleting destructor', COMDAT
; _this$ = ecx
  00000	55		 push	 ebp
  00001	8b ec		 mov	 ebp, esp
  00003	56		 push	 esi
  00004	8b f1		 mov	 esi, ecx
  00006	e8 00 00 00 00	 call	 ??1CGdiObject@@UAE@XZ	; CGdiObject::~CGdiObject
  0000b	8b 45 08	 mov	 eax, DWORD PTR ___flags$[ebp]
  0000e	a8 01		 test	 al, 1
  00010	74 1f		 je	 SHORT $LN9@scalar
  00012	a8 04		 test	 al, 4
  00014	75 10		 jne	 SHORT $LN3@scalar

; 112  : 	{ ::operator delete(p); }

  00016	56		 push	 esi
  00017	e8 00 00 00 00	 call	 ??3@YAXPAX@Z		; operator delete
  0001c	83 c4 04	 add	 esp, 4
  0001f	8b c6		 mov	 eax, esi
  00021	5e		 pop	 esi
  00022	5d		 pop	 ebp
  00023	c2 04 00	 ret	 4
$LN3@scalar:
  00026	6a 08		 push	 8
  00028	56		 push	 esi
  00029	e8 00 00 00 00	 call	 ?__global_delete@@YAXPAXI@Z ; __global_delete
  0002e	83 c4 08	 add	 esp, 8
$LN9@scalar:
  00031	8b c6		 mov	 eax, esi
  00033	5e		 pop	 esi
  00034	5d		 pop	 ebp
  00035	c2 04 00	 ret	 4
??_GCGdiObject@@UAEPAXI@Z ENDP				; CGdiObject::`scalar deleting destructor'
_TEXT	ENDS
; Function compile flags: /Ogtp
; File C:\Program Files (x86)\Microsoft Visual Studio\2019\Community\VC\Tools\MSVC\14.29.30133\atlmfc\include\afxwin1.inl
;	COMDAT ??1CGdiObject@@UAE@XZ
_TEXT	SEGMENT
_pException$2 = -540					; size = 4
_strMsg$3 = -536					; size = 4
_szErrorMessage$4 = -532				; size = 512
__$ArrayPad$ = -20					; size = 4
__$EHRec$ = -16						; size = 16
??1CGdiObject@@UAE@XZ PROC				; CGdiObject::~CGdiObject, COMDAT
; _this$ = ecx

; 74   : {

  00000	55		 push	 ebp
  00001	8b ec		 mov	 ebp, esp
  00003	6a ff		 push	 -1
  00005	68 00 00 00 00	 push	 __ehhandler$??1CGdiObject@@UAE@XZ
  0000a	64 a1 00 00 00
	00		 mov	 eax, DWORD PTR fs:0
  00010	50		 push	 eax
  00011	81 ec 10 02 00
	00		 sub	 esp, 528		; 00000210H
  00017	a1 00 00 00 00	 mov	 eax, DWORD PTR ___security_cookie
  0001c	33 c5		 xor	 eax, ebp
  0001e	89 45 ec	 mov	 DWORD PTR __$ArrayPad$[ebp], eax
  00021	53		 push	 ebx
  00022	56		 push	 esi
  00023	57		 push	 edi
  00024	50		 push	 eax
  00025	8d 45 f4	 lea	 eax, DWORD PTR __$EHRec$[ebp+4]
  00028	64 a3 00 00 00
	00		 mov	 DWORD PTR fs:0, eax
  0002e	89 65 f0	 mov	 DWORD PTR __$EHRec$[ebp], esp
  00031	c7 01 00 00 00
	00		 mov	 DWORD PTR [ecx], OFFSET ??_7CGdiObject@@6B@

; 75   : 	AFX_BEGIN_DESTRUCTOR

  00037	c7 45 fc 00 00
	00 00		 mov	 DWORD PTR __$EHRec$[ebp+12], 0

; 76   : 	DeleteObject();

  0003e	e8 00 00 00 00	 call	 ?DeleteObject@CGdiObject@@QAEHXZ ; CGdiObject::DeleteObject
$LN18@CGdiObject:

; 78   : }

  00043	8b 4d f4	 mov	 ecx, DWORD PTR __$EHRec$[ebp+4]
  00046	64 89 0d 00 00
	00 00		 mov	 DWORD PTR fs:0, ecx
  0004d	59		 pop	 ecx
  0004e	5f		 pop	 edi
  0004f	5e		 pop	 esi
  00050	5b		 pop	 ebx
  00051	8b 4d ec	 mov	 ecx, DWORD PTR __$ArrayPad$[ebp]
  00054	33 cd		 xor	 ecx, ebp
  00056	e8 00 00 00 00	 call	 @__security_check_cookie@4
  0005b	8b e5		 mov	 esp, ebp
  0005d	5d		 pop	 ebp
  0005e	c3		 ret	 0
__catch$??1CGdiObject@@UAE@XZ$0:

; 77   : 	AFX_END_DESTRUCTOR

  0005f	8d 8d e8 fd ff
	ff		 lea	 ecx, DWORD PTR _strMsg$3[ebp]
  00065	ff 15 00 00 00
	00		 call	 DWORD PTR __imp_??0?$CStringT@DV?$StrTraitMFC_DLL@DV?$ChTraitsCRT@D@ATL@@@@@ATL@@QAE@XZ
  0006b	8b b5 e4 fd ff
	ff		 mov	 esi, DWORD PTR _pException$2[ebp]
  00071	8d 8d ec fd ff
	ff		 lea	 ecx, DWORD PTR _szErrorMessage$4[ebp]
  00077	6a 00		 push	 0
  00079	68 00 02 00 00	 push	 512			; 00000200H
  0007e	51		 push	 ecx
  0007f	8b 06		 mov	 eax, DWORD PTR [esi]
  00081	8b ce		 mov	 ecx, esi
  00083	c6 45 fc 02	 mov	 BYTE PTR __$EHRec$[ebp+12], 2
  00087	ff 50 14	 call	 DWORD PTR [eax+20]
  0008a	85 c0		 test	 eax, eax
  0008c	74 2a		 je	 SHORT $LN9@CGdiObject
  0008e	8d 85 ec fd ff
	ff		 lea	 eax, DWORD PTR _szErrorMessage$4[ebp]
  00094	50		 push	 eax
  00095	6a 4d		 push	 77			; 0000004dH
  00097	68 00 00 00 00	 push	 OFFSET ??_C@_0HD@JJCHHHNK@C?3?2Program?5Files?5?$CIx86?$CJ?2Microsof@
  0009c	68 00 00 00 00	 push	 OFFSET ??_C@_0BP@OIEOKIDM@Exception?5thrown?5in?5destructor@
  000a1	8d 85 e8 fd ff
	ff		 lea	 eax, DWORD PTR _strMsg$3[ebp]
  000a7	68 00 00 00 00	 push	 OFFSET ??_C@_0BB@HBOOMJBF@?$CFTs?5?$CI?$CFTs?3?$CFd?$CJ?6?$CFTs@
  000ac	50		 push	 eax
  000ad	ff 15 00 00 00
	00		 call	 DWORD PTR __imp_?Format@?$CStringT@DV?$StrTraitMFC_DLL@DV?$ChTraitsCRT@D@ATL@@@@@ATL@@QAAXPBDZZ
  000b3	83 c4 18	 add	 esp, 24			; 00000018H
  000b6	eb 21		 jmp	 SHORT $LN10@CGdiObject
$LN9@CGdiObject:
  000b8	6a 4d		 push	 77			; 0000004dH
  000ba	68 00 00 00 00	 push	 OFFSET ??_C@_0HD@JJCHHHNK@C?3?2Program?5Files?5?$CIx86?$CJ?2Microsof@
  000bf	68 00 00 00 00	 push	 OFFSET ??_C@_0BP@OIEOKIDM@Exception?5thrown?5in?5destructor@
  000c4	8d 85 e8 fd ff
	ff		 lea	 eax, DWORD PTR _strMsg$3[ebp]
  000ca	68 00 00 00 00	 push	 OFFSET ??_C@_0N@OMEMOKLE@?$CFTs?5?$CI?$CFTs?3?$CFd?$CJ@
  000cf	50		 push	 eax
  000d0	ff 15 00 00 00
	00		 call	 DWORD PTR __imp_?Format@?$CStringT@DV?$StrTraitMFC_DLL@DV?$ChTraitsCRT@D@ATL@@@@@ATL@@QAAXPBDZZ
  000d6	83 c4 14	 add	 esp, 20			; 00000014H
$LN10@CGdiObject:
  000d9	6a 00		 push	 0
  000db	6a 00		 push	 0
  000dd	ff b5 e8 fd ff
	ff		 push	 DWORD PTR _strMsg$3[ebp]
  000e3	e8 00 00 00 00	 call	 ?AfxMessageBox@@YGHPBDII@Z ; AfxMessageBox
  000e8	8d 8d e8 fd ff
	ff		 lea	 ecx, DWORD PTR _strMsg$3[ebp]
  000ee	ff 15 00 00 00
	00		 call	 DWORD PTR __imp_??1?$CStringT@DV?$StrTraitMFC_DLL@DV?$ChTraitsCRT@D@ATL@@@@@ATL@@QAE@XZ
  000f4	8b 06		 mov	 eax, DWORD PTR [esi]
  000f6	8b ce		 mov	 ecx, esi
  000f8	6a 01		 push	 1
  000fa	ff 50 04	 call	 DWORD PTR [eax+4]
  000fd	b8 00 00 00 00	 mov	 eax, $LN18@CGdiObject
  00102	c3		 ret	 0
_TEXT	ENDS
;	COMDAT text$x
text$x	SEGMENT
__unwindfunclet$??1CGdiObject@@UAE@XZ$2:
  00000	8d 8d e8 fd ff
	ff		 lea	 ecx, DWORD PTR _strMsg$3[ebp]
  00006	ff 25 00 00 00
	00		 jmp	 DWORD PTR __imp_??1?$CStringT@DV?$StrTraitMFC_DLL@DV?$ChTraitsCRT@D@ATL@@@@@ATL@@QAE@XZ
  0000c	cc		 int	 3
  0000d	cc		 int	 3
  0000e	cc		 int	 3
  0000f	cc		 int	 3
  00010	cc		 int	 3
__ehhandler$??1CGdiObject@@UAE@XZ:
  00011	90		 npad	 1
  00012	90		 npad	 1
  00013	8b 54 24 08	 mov	 edx, DWORD PTR [esp+8]
  00017	8d 42 0c	 lea	 eax, DWORD PTR [edx+12]
  0001a	8b 8a e0 fd ff
	ff		 mov	 ecx, DWORD PTR [edx-544]
  00020	33 c8		 xor	 ecx, eax
  00022	e8 00 00 00 00	 call	 @__security_check_cookie@4
  00027	8b 4a f8	 mov	 ecx, DWORD PTR [edx-8]
  0002a	33 c8		 xor	 ecx, eax
  0002c	e8 00 00 00 00	 call	 @__security_check_cookie@4
  00031	b8 00 00 00 00	 mov	 eax, OFFSET __ehfuncinfo$??1CGdiObject@@UAE@XZ
  00036	e9 00 00 00 00	 jmp	 ___CxxFrameHandler3
text$x	ENDS
??1CGdiObject@@UAE@XZ ENDP				; CGdiObject::~CGdiObject
; Function compile flags: /Ogtp
; File C:\Program Files (x86)\Microsoft Visual Studio\2019\Community\VC\Tools\MSVC\14.29.30133\atlmfc\include\atltypes.h
;	COMDAT ??0CPoint@@QAE@XZ
_TEXT	SEGMENT
??0CPoint@@QAE@XZ PROC					; CPoint::CPoint, COMDAT
; _this$ = ecx

; 400  : 	x = 0;

  00000	c7 01 00 00 00
	00		 mov	 DWORD PTR [ecx], 0

; 401  : 	y = 0;
; 402  : }

  00006	8b c1		 mov	 eax, ecx
  00008	c7 41 04 00 00
	00 00		 mov	 DWORD PTR [ecx+4], 0
  0000f	c3		 ret	 0
??0CPoint@@QAE@XZ ENDP					; CPoint::CPoint
_TEXT	ENDS
; Function compile flags: /Ogtp
; File C:\Program Files (x86)\Microsoft Visual Studio\2019\Community\VC\Tools\MSVC\14.29.30133\atlmfc\include\afx.inl
;	COMDAT ?Dump@CObject@@UBEXAAVCDumpContext@@@Z
_TEXT	SEGMENT
___formal$ = 8						; size = 4
?Dump@CObject@@UBEXAAVCDumpContext@@@Z PROC		; CObject::Dump, COMDAT
; _this$ = ecx

; 122  : 	{ /* no dumping in release builds */ }

  00000	c2 04 00	 ret	 4
?Dump@CObject@@UBEXAAVCDumpContext@@@Z ENDP		; CObject::Dump
_TEXT	ENDS
; Function compile flags: /Ogtp
; File C:\Program Files (x86)\Microsoft Visual Studio\2019\Community\VC\Tools\MSVC\14.29.30133\atlmfc\include\afx.inl
;	COMDAT ?AssertValid@CObject@@UBEXXZ
_TEXT	SEGMENT
?AssertValid@CObject@@UBEXXZ PROC			; CObject::AssertValid, COMDAT
; _this$ = ecx

; 120  : 	{ /* no asserts in release builds */ }

  00000	c2 00 00	 ret	 0
?AssertValid@CObject@@UBEXXZ ENDP			; CObject::AssertValid
_TEXT	ENDS
; Function compile flags: /Ogtp
; File C:\Program Files (x86)\Microsoft Visual Studio\2019\Community\VC\Tools\MSVC\14.29.30133\atlmfc\include\afx.inl
;	COMDAT ?Serialize@CObject@@UAEXAAVCArchive@@@Z
_TEXT	SEGMENT
___formal$ = 8						; size = 4
?Serialize@CObject@@UAEXAAVCArchive@@@Z PROC		; CObject::Serialize, COMDAT
; _this$ = ecx

; 106  : 	{ /* CObject does not serialize anything by default */ }

  00000	c2 04 00	 ret	 4
?Serialize@CObject@@UAEXAAVCArchive@@@Z ENDP		; CObject::Serialize
_TEXT	ENDS
; Function compile flags: /Ogtp
; File C:\Program Files (x86)\Microsoft Visual Studio\2019\Community\VC\Tools\MSVC\14.29.30133\atlmfc\include\afx.inl
;	COMDAT ??3CObject@@SGXPAX@Z
_TEXT	SEGMENT
_p$ = 8							; size = 4
??3CObject@@SGXPAX@Z PROC				; CObject::operator delete, COMDAT

; 112  : 	{ ::operator delete(p); }

  00000	55		 push	 ebp
  00001	8b ec		 mov	 ebp, esp
  00003	ff 75 08	 push	 DWORD PTR _p$[ebp]
  00006	e8 00 00 00 00	 call	 ??3@YAXPAX@Z		; operator delete
  0000b	83 c4 04	 add	 esp, 4
  0000e	5d		 pop	 ebp
  0000f	c2 04 00	 ret	 4
??3CObject@@SGXPAX@Z ENDP				; CObject::operator delete
_TEXT	ENDS
; Function compile flags: /Ogtp
; File C:\Program Files (x86)\Microsoft Visual Studio\2019\Community\VC\Tools\MSVC\14.29.30133\atlmfc\include\afx.inl
;	COMDAT ??1CObject@@UAE@XZ
_TEXT	SEGMENT
??1CObject@@UAE@XZ PROC					; CObject::~CObject, COMDAT
; _this$ = ecx

; 104  : 	{ }

  00000	c2 00 00	 ret	 0
??1CObject@@UAE@XZ ENDP					; CObject::~CObject
_TEXT	ENDS
; Function compile flags: /Ogtp
; File D:\git\src\IBK\IBK_DRFN\ProjSrc\SrcChartEx\ChartAddIn\ChartPatternAddIn\Control\Label.cpp
;	COMDAT ?__empty_global_delete@@YAXPAXI@Z
_TEXT	SEGMENT
___formal$ = 8						; size = 4
___formal$ = 12						; size = 4
?__empty_global_delete@@YAXPAXI@Z PROC			; __empty_global_delete, COMDAT

  00000	c2 00 00	 ret	 0
?__empty_global_delete@@YAXPAXI@Z ENDP			; __empty_global_delete
_TEXT	ENDS
; Function compile flags: /Ogtp
; File D:\git\src\IBK\IBK_DRFN\ProjSrc\SrcChartEx\ChartAddIn\ChartPatternAddIn\Control\Label.cpp
;	COMDAT ?__empty_global_delete@@YAXPAX@Z
_TEXT	SEGMENT
___formal$ = 8						; size = 4
?__empty_global_delete@@YAXPAX@Z PROC			; __empty_global_delete, COMDAT

  00000	c2 00 00	 ret	 0
?__empty_global_delete@@YAXPAX@Z ENDP			; __empty_global_delete
_TEXT	ENDS
; Function compile flags: /Ogtp
;	COMDAT ??_H@YGXPAXIIP6EPAX0@Z@Z
_TEXT	SEGMENT
___t$ = 8						; size = 4
___s$ = 12						; size = 4
___n$ = 16						; size = 4
___f$ = 20						; size = 4
??_H@YGXPAXIIP6EPAX0@Z@Z PROC				; `vector constructor iterator', COMDAT
  00000	55		 push	 ebp
  00001	8b ec		 mov	 ebp, esp
  00003	56		 push	 esi
  00004	8b 75 10	 mov	 esi, DWORD PTR ___n$[ebp]
  00007	85 f6		 test	 esi, esi
  00009	74 16		 je	 SHORT $LN6@vector
  0000b	53		 push	 ebx
  0000c	8b 5d 14	 mov	 ebx, DWORD PTR ___f$[ebp]
  0000f	57		 push	 edi
  00010	8b 7d 08	 mov	 edi, DWORD PTR ___t$[ebp]
$LL2@vector:
  00013	8b cf		 mov	 ecx, edi
  00015	ff d3		 call	 ebx
  00017	03 7d 0c	 add	 edi, DWORD PTR ___s$[ebp]
  0001a	83 ee 01	 sub	 esi, 1
  0001d	75 f4		 jne	 SHORT $LL2@vector
  0001f	5f		 pop	 edi
  00020	5b		 pop	 ebx
$LN6@vector:
  00021	5e		 pop	 esi
  00022	5d		 pop	 ebp
  00023	c2 10 00	 ret	 16			; 00000010H
??_H@YGXPAXIIP6EPAX0@Z@Z ENDP				; `vector constructor iterator'
_TEXT	ENDS
END
