; Listing generated by Microsoft (R) Optimizing Compiler Version 19.29.30145.0 

	TITLE	D:\git\src\IBK\IBK_DRFN\#DRfn-CS\_Obj\ChartPatternAddin\PatternMaker.obj
	.686P
	.XMM
	include listing.inc
	.model	flat

INCLUDELIB MSVCRT
INCLUDELIB OLDNAMES

PUBLIC	?__empty_global_delete@@YAXPAX@Z		; __empty_global_delete
PUBLIC	?__empty_global_delete@@YAXPAXI@Z		; __empty_global_delete
PUBLIC	?AfxCrtErrorCheck@@YAHH@Z			; AfxCrtErrorCheck
PUBLIC	??1CObject@@UAE@XZ				; CObject::~CObject
PUBLIC	??3CObject@@SGXPAX@Z				; CObject::operator delete
PUBLIC	?Serialize@CObject@@UAEXAAVCArchive@@@Z		; CObject::Serialize
PUBLIC	?AssertValid@CObject@@UBEXXZ			; CObject::AssertValid
PUBLIC	?Dump@CObject@@UBEXAAVCDumpContext@@@Z		; CObject::Dump
PUBLIC	??1CGdiObject@@UAE@XZ				; CGdiObject::~CGdiObject
PUBLIC	??_GCGdiObject@@UAEPAXI@Z			; CGdiObject::`scalar deleting destructor'
PUBLIC	??1CPen@@UAE@XZ					; CPen::~CPen
PUBLIC	??_GCPen@@UAEPAXI@Z				; CPen::`scalar deleting destructor'
PUBLIC	??1CFont@@UAE@XZ				; CFont::~CFont
PUBLIC	??_GCFont@@UAEPAXI@Z				; CFont::`scalar deleting destructor'
PUBLIC	??1CRgn@@UAE@XZ					; CRgn::~CRgn
PUBLIC	??_GCRgn@@UAEPAXI@Z				; CRgn::`scalar deleting destructor'
PUBLIC	??0CPatternMaker@@QAE@XZ			; CPatternMaker::CPatternMaker
PUBLIC	??1CPatternMaker@@UAE@XZ			; CPatternMaker::~CPatternMaker
PUBLIC	?SetIChartOCX@CPatternMaker@@QAEXPAUIChartManager423611@@PAUIChartOCX423611@@PAUIPacketManager423611@@@Z ; CPatternMaker::SetIChartOCX
PUBLIC	?SetGSharedData@CPatternMaker@@QAEXV?$CStringT@DV?$StrTraitMFC_DLL@DV?$ChTraitsCRT@D@ATL@@@@@ATL@@0@Z ; CPatternMaker::SetGSharedData
PUBLIC	?OnDraw@CPatternMaker@@QAEXPAVCDC@@@Z		; CPatternMaker::OnDraw
PUBLIC	?RefreshChart@CPatternMaker@@QAEXXZ		; CPatternMaker::RefreshChart
PUBLIC	??0?$CArray@PAVCWavePatternData@@PAV1@@@QAE@XZ	; CArray<CWavePatternData *,CWavePatternData *>::CArray<CWavePatternData *,CWavePatternData *>
PUBLIC	?SetSize@?$CArray@PAVCWavePatternData@@PAV1@@@QAEXHH@Z ; CArray<CWavePatternData *,CWavePatternData *>::SetSize
PUBLIC	??1?$CArray@PAVCWavePatternData@@PAV1@@@UAE@XZ	; CArray<CWavePatternData *,CWavePatternData *>::~CArray<CWavePatternData *,CWavePatternData *>
PUBLIC	?Serialize@?$CArray@PAVCWavePatternData@@PAV1@@@UAEXAAVCArchive@@@Z ; CArray<CWavePatternData *,CWavePatternData *>::Serialize
PUBLIC	??_G?$CArray@PAVCWavePatternData@@PAV1@@@UAEPAXI@Z ; CArray<CWavePatternData *,CWavePatternData *>::`scalar deleting destructor'
PUBLIC	??0?$CArray@PAVCHighLowPtData@@PAV1@@@QAE@XZ	; CArray<CHighLowPtData *,CHighLowPtData *>::CArray<CHighLowPtData *,CHighLowPtData *>
PUBLIC	?SetSize@?$CArray@PAVCHighLowPtData@@PAV1@@@QAEXHH@Z ; CArray<CHighLowPtData *,CHighLowPtData *>::SetSize
PUBLIC	?SetAtGrow@?$CArray@PAVCHighLowPtData@@PAV1@@@QAEXHPAVCHighLowPtData@@@Z ; CArray<CHighLowPtData *,CHighLowPtData *>::SetAtGrow
PUBLIC	?RemoveAt@?$CArray@PAVCHighLowPtData@@PAV1@@@QAEXHH@Z ; CArray<CHighLowPtData *,CHighLowPtData *>::RemoveAt
PUBLIC	??1?$CArray@PAVCHighLowPtData@@PAV1@@@UAE@XZ	; CArray<CHighLowPtData *,CHighLowPtData *>::~CArray<CHighLowPtData *,CHighLowPtData *>
PUBLIC	?Serialize@?$CArray@PAVCHighLowPtData@@PAV1@@@UAEXAAVCArchive@@@Z ; CArray<CHighLowPtData *,CHighLowPtData *>::Serialize
PUBLIC	??_G?$CArray@PAVCHighLowPtData@@PAV1@@@UAEPAXI@Z ; CArray<CHighLowPtData *,CHighLowPtData *>::`scalar deleting destructor'
PUBLIC	??0?$CArray@PAVCMAData@@PAV1@@@QAE@XZ		; CArray<CMAData *,CMAData *>::CArray<CMAData *,CMAData *>
PUBLIC	?SetSize@?$CArray@PAVCMAData@@PAV1@@@QAEXHH@Z	; CArray<CMAData *,CMAData *>::SetSize
PUBLIC	?SetAtGrow@?$CArray@PAVCMAData@@PAV1@@@QAEXHPAVCMAData@@@Z ; CArray<CMAData *,CMAData *>::SetAtGrow
PUBLIC	??1?$CArray@PAVCMAData@@PAV1@@@UAE@XZ		; CArray<CMAData *,CMAData *>::~CArray<CMAData *,CMAData *>
PUBLIC	?Serialize@?$CArray@PAVCMAData@@PAV1@@@UAEXAAVCArchive@@@Z ; CArray<CMAData *,CMAData *>::Serialize
PUBLIC	??_G?$CArray@PAVCMAData@@PAV1@@@UAEPAXI@Z	; CArray<CMAData *,CMAData *>::`scalar deleting destructor'
PUBLIC	??0?$CArray@PAVCRegistNSupportData@@PAV1@@@QAE@XZ ; CArray<CRegistNSupportData *,CRegistNSupportData *>::CArray<CRegistNSupportData *,CRegistNSupportData *>
PUBLIC	?SetSize@?$CArray@PAVCRegistNSupportData@@PAV1@@@QAEXHH@Z ; CArray<CRegistNSupportData *,CRegistNSupportData *>::SetSize
PUBLIC	??1?$CArray@PAVCRegistNSupportData@@PAV1@@@UAE@XZ ; CArray<CRegistNSupportData *,CRegistNSupportData *>::~CArray<CRegistNSupportData *,CRegistNSupportData *>
PUBLIC	?Serialize@?$CArray@PAVCRegistNSupportData@@PAV1@@@UAEXAAVCArchive@@@Z ; CArray<CRegistNSupportData *,CRegistNSupportData *>::Serialize
PUBLIC	??_G?$CArray@PAVCRegistNSupportData@@PAV1@@@UAEPAXI@Z ; CArray<CRegistNSupportData *,CRegistNSupportData *>::`scalar deleting destructor'
PUBLIC	?GetAllData_AboutPattern@CPatternMaker@@QAEXXZ	; CPatternMaker::GetAllData_AboutPattern
PUBLIC	?GetFoundPatternCnt@CPatternMaker@@QAEXPAH@Z	; CPatternMaker::GetFoundPatternCnt
PUBLIC	?GetXPositoin@CPatternMaker@@QAEHNNVCRect@@@Z	; CPatternMaker::GetXPositoin
PUBLIC	?GetChartBasicData@CPatternMaker@@QAEHAAH000AAVCRect@@1@Z ; CPatternMaker::GetChartBasicData
PUBLIC	?InitSelectedPatternData@CPatternMaker@@QAEXH@Z	; CPatternMaker::InitSelectedPatternData
PUBLIC	?CheckSelectedPatternData_ForReal@CPatternMaker@@QAEXXZ ; CPatternMaker::CheckSelectedPatternData_ForReal
PUBLIC	?OnLButtonDown@CPatternMaker@@QAEHIAAVCPoint@@@Z ; CPatternMaker::OnLButtonDown
PUBLIC	?OnLButtonUp@CPatternMaker@@QAEHIAAVCPoint@@@Z	; CPatternMaker::OnLButtonUp
PUBLIC	?FindPtn_OnLBtnDownPos@CPatternMaker@@QAEHIAAVCPoint@@H@Z ; CPatternMaker::FindPtn_OnLBtnDownPos
PUBLIC	?CreateDlgAnalysis@CPatternMaker@@QAEXPAUIChartOCX423611@@HH@Z ; CPatternMaker::CreateDlgAnalysis
PUBLIC	?DestroyAnalysisDialog@CPatternMaker@@QAEXXZ	; CPatternMaker::DestroyAnalysisDialog
PUBLIC	?DeleteAllPen@CPatternMaker@@QAEXXZ		; CPatternMaker::DeleteAllPen
PUBLIC	?DeleteAllData@CPatternMaker@@QAEXXZ		; CPatternMaker::DeleteAllData
PUBLIC	?DeleteHighLowPtData@CPatternMaker@@QAEXXZ	; CPatternMaker::DeleteHighLowPtData
PUBLIC	?DeleteMAData@CPatternMaker@@QAEXXZ		; CPatternMaker::DeleteMAData
PUBLIC	?DeleteRegistNSupportData@CPatternMaker@@QAEXXZ	; CPatternMaker::DeleteRegistNSupportData
PUBLIC	?DeleteWavePatternData@CPatternMaker@@QAEXXZ	; CPatternMaker::DeleteWavePatternData
PUBLIC	??0?$CArray@PAVCCandlePatternData@@PAV1@@@QAE@XZ ; CArray<CCandlePatternData *,CCandlePatternData *>::CArray<CCandlePatternData *,CCandlePatternData *>
PUBLIC	?SetSize@?$CArray@PAVCCandlePatternData@@PAV1@@@QAEXHH@Z ; CArray<CCandlePatternData *,CCandlePatternData *>::SetSize
PUBLIC	??1?$CArray@PAVCCandlePatternData@@PAV1@@@UAE@XZ ; CArray<CCandlePatternData *,CCandlePatternData *>::~CArray<CCandlePatternData *,CCandlePatternData *>
PUBLIC	?Serialize@?$CArray@PAVCCandlePatternData@@PAV1@@@UAEXAAVCArchive@@@Z ; CArray<CCandlePatternData *,CCandlePatternData *>::Serialize
PUBLIC	??_G?$CArray@PAVCCandlePatternData@@PAV1@@@UAEPAXI@Z ; CArray<CCandlePatternData *,CCandlePatternData *>::`scalar deleting destructor'
PUBLIC	??0?$CArray@PAVCCandlePatternPosInfo@@PAV1@@@QAE@XZ ; CArray<CCandlePatternPosInfo *,CCandlePatternPosInfo *>::CArray<CCandlePatternPosInfo *,CCandlePatternPosInfo *>
PUBLIC	?SetSize@?$CArray@PAVCCandlePatternPosInfo@@PAV1@@@QAEXHH@Z ; CArray<CCandlePatternPosInfo *,CCandlePatternPosInfo *>::SetSize
PUBLIC	?SetAtGrow@?$CArray@PAVCCandlePatternPosInfo@@PAV1@@@QAEXHPAVCCandlePatternPosInfo@@@Z ; CArray<CCandlePatternPosInfo *,CCandlePatternPosInfo *>::SetAtGrow
PUBLIC	??1?$CArray@PAVCCandlePatternPosInfo@@PAV1@@@UAE@XZ ; CArray<CCandlePatternPosInfo *,CCandlePatternPosInfo *>::~CArray<CCandlePatternPosInfo *,CCandlePatternPosInfo *>
PUBLIC	?Serialize@?$CArray@PAVCCandlePatternPosInfo@@PAV1@@@UAEXAAVCArchive@@@Z ; CArray<CCandlePatternPosInfo *,CCandlePatternPosInfo *>::Serialize
PUBLIC	??_G?$CArray@PAVCCandlePatternPosInfo@@PAV1@@@UAEPAXI@Z ; CArray<CCandlePatternPosInfo *,CCandlePatternPosInfo *>::`scalar deleting destructor'
PUBLIC	?DeleteCandlePatternData@CPatternMaker@@QAEXXZ	; CPatternMaker::DeleteCandlePatternData
PUBLIC	?GetAllData_AboutCandlePattern@CPatternMaker@@QAEXXZ ; CPatternMaker::GetAllData_AboutCandlePattern
PUBLIC	?InitSelectedCandlePatternData@CPatternMaker@@QAEXXZ ; CPatternMaker::InitSelectedCandlePatternData
PUBLIC	?SetSelectedCandlePatternData@CPatternMaker@@QAEXNV?$CStringT@DV?$StrTraitMFC_DLL@DV?$ChTraitsCRT@D@ATL@@@@@ATL@@@Z ; CPatternMaker::SetSelectedCandlePatternData
PUBLIC	?ResetScrollPosition@CPatternMaker@@QAEXH@Z	; CPatternMaker::ResetScrollPosition
PUBLIC	?OnMouseMove@CPatternMaker@@QAEHIAAVCPoint@@PAVCDC@@@Z ; CPatternMaker::OnMouseMove
PUBLIC	?DeleteCandlePatternPosInfo@CPatternMaker@@QAEXXZ ; CPatternMaker::DeleteCandlePatternPosInfo
PUBLIC	?RelayEvent@CPatternMaker@@QAEXIIJ@Z		; CPatternMaker::RelayEvent
PUBLIC	?SetToolTipText@CPatternMaker@@QAE?AVCPoint@@V?$CStringT@DV?$StrTraitMFC_DLL@DV?$ChTraitsCRT@D@ATL@@@@@ATL@@VCRect@@@Z ; CPatternMaker::SetToolTipText
PUBLIC	?DrawWaveLine@CPatternMaker@@QAEXPAVCDC@@HHNVCRect@@@Z ; CPatternMaker::DrawWaveLine
PUBLIC	?DrawMALine@CPatternMaker@@QAEXPAVCDC@@HHNVCRect@@@Z ; CPatternMaker::DrawMALine
PUBLIC	?DrawAutoTrendLine@CPatternMaker@@QAEXPAVCDC@@HHNVCRect@@@Z ; CPatternMaker::DrawAutoTrendLine
PUBLIC	?DrawAutoPattern@CPatternMaker@@QAEXPAVCDC@@HHNVCRect@@@Z ; CPatternMaker::DrawAutoPattern
PUBLIC	?DrawCandlePattern@CPatternMaker@@QAEXPAVCDC@@HHNVCRect@@@Z ; CPatternMaker::DrawCandlePattern
PUBLIC	??_GCPatternMaker@@UAEPAXI@Z			; CPatternMaker::`scalar deleting destructor'
PUBLIC	?GetCurrentLanguageID@IMetaTable@@QAE?AW4E_LANGUAGEID@1@PAUHWND__@@@Z ; IMetaTable::GetCurrentLanguageID
PUBLIC	?LoadResourceDLL@IMetaTable@@QAEPAUHINSTANCE__@@PAUHWND__@@PAU2@@Z ; IMetaTable::LoadResourceDLL
PUBLIC	??1CMultiLanguageResourceSetter@@QAE@XZ		; CMultiLanguageResourceSetter::~CMultiLanguageResourceSetter
PUBLIC	??$SerializeElements@PAVCWavePatternData@@@@YGXAAVCArchive@@PAPAVCWavePatternData@@H@Z ; SerializeElements<CWavePatternData *>
PUBLIC	??$SerializeElements@PAVCHighLowPtData@@@@YGXAAVCArchive@@PAPAVCHighLowPtData@@H@Z ; SerializeElements<CHighLowPtData *>
PUBLIC	??$SerializeElements@PAVCMAData@@@@YGXAAVCArchive@@PAPAVCMAData@@H@Z ; SerializeElements<CMAData *>
PUBLIC	??$SerializeElements@PAVCRegistNSupportData@@@@YGXAAVCArchive@@PAPAVCRegistNSupportData@@H@Z ; SerializeElements<CRegistNSupportData *>
PUBLIC	??$SerializeElements@PAVCCandlePatternData@@@@YGXAAVCArchive@@PAPAVCCandlePatternData@@H@Z ; SerializeElements<CCandlePatternData *>
PUBLIC	??$SerializeElements@PAVCCandlePatternPosInfo@@@@YGXAAVCArchive@@PAPAVCCandlePatternPosInfo@@H@Z ; SerializeElements<CCandlePatternPosInfo *>
PUBLIC	??_R0PAVCException@@@8				; CException * `RTTI Type Descriptor'
PUBLIC	??_C@_00CNPNBAHC@@				; `string'
PUBLIC	??_7CGdiObject@@6B@				; CGdiObject::`vftable'
PUBLIC	??_7CPen@@6B@					; CPen::`vftable'
PUBLIC	??_7CFont@@6B@					; CFont::`vftable'
PUBLIC	??_7CRgn@@6B@					; CRgn::`vftable'
PUBLIC	??_C@_0HD@JJCHHHNK@C?3?2Program?5Files?5?$CIx86?$CJ?2Microsof@ ; `string'
PUBLIC	??_C@_0BP@OIEOKIDM@Exception?5thrown?5in?5destructor@ ; `string'
PUBLIC	??_C@_0BB@HBOOMJBF@?$CFTs?5?$CI?$CFTs?3?$CFd?$CJ?6?$CFTs@ ; `string'
PUBLIC	??_C@_0N@OMEMOKLE@?$CFTs?5?$CI?$CFTs?3?$CFd?$CJ@ ; `string'
PUBLIC	??_R0?AVCObject@@@8				; CObject `RTTI Type Descriptor'
PUBLIC	??_R3CObject@@8					; CObject::`RTTI Class Hierarchy Descriptor'
PUBLIC	??_R2CObject@@8					; CObject::`RTTI Base Class Array'
PUBLIC	??_R1A@?0A@EA@CObject@@8			; CObject::`RTTI Base Class Descriptor at (0,-1,0,64)'
PUBLIC	??_R4CGdiObject@@6B@				; CGdiObject::`RTTI Complete Object Locator'
PUBLIC	??_R0?AVCGdiObject@@@8				; CGdiObject `RTTI Type Descriptor'
PUBLIC	??_R3CGdiObject@@8				; CGdiObject::`RTTI Class Hierarchy Descriptor'
PUBLIC	??_R2CGdiObject@@8				; CGdiObject::`RTTI Base Class Array'
PUBLIC	??_R1A@?0A@EA@CGdiObject@@8			; CGdiObject::`RTTI Base Class Descriptor at (0,-1,0,64)'
PUBLIC	??_R4CPen@@6B@					; CPen::`RTTI Complete Object Locator'
PUBLIC	??_R0?AVCPen@@@8				; CPen `RTTI Type Descriptor'
PUBLIC	??_R3CPen@@8					; CPen::`RTTI Class Hierarchy Descriptor'
PUBLIC	??_R2CPen@@8					; CPen::`RTTI Base Class Array'
PUBLIC	??_R1A@?0A@EA@CPen@@8				; CPen::`RTTI Base Class Descriptor at (0,-1,0,64)'
PUBLIC	??_R4CFont@@6B@					; CFont::`RTTI Complete Object Locator'
PUBLIC	??_R0?AVCFont@@@8				; CFont `RTTI Type Descriptor'
PUBLIC	??_R3CFont@@8					; CFont::`RTTI Class Hierarchy Descriptor'
PUBLIC	??_R2CFont@@8					; CFont::`RTTI Base Class Array'
PUBLIC	??_R1A@?0A@EA@CFont@@8				; CFont::`RTTI Base Class Descriptor at (0,-1,0,64)'
PUBLIC	??_R4CRgn@@6B@					; CRgn::`RTTI Complete Object Locator'
PUBLIC	??_R0?AVCRgn@@@8				; CRgn `RTTI Type Descriptor'
PUBLIC	??_R3CRgn@@8					; CRgn::`RTTI Class Hierarchy Descriptor'
PUBLIC	??_R2CRgn@@8					; CRgn::`RTTI Base Class Array'
PUBLIC	??_R1A@?0A@EA@CRgn@@8				; CRgn::`RTTI Base Class Descriptor at (0,-1,0,64)'
PUBLIC	??_7?$CArray@PAVCWavePatternData@@PAV1@@@6B@	; CArray<CWavePatternData *,CWavePatternData *>::`vftable'
PUBLIC	??_7?$CArray@PAVCHighLowPtData@@PAV1@@@6B@	; CArray<CHighLowPtData *,CHighLowPtData *>::`vftable'
PUBLIC	??_7?$CArray@PAVCMAData@@PAV1@@@6B@		; CArray<CMAData *,CMAData *>::`vftable'
PUBLIC	??_7?$CArray@PAVCRegistNSupportData@@PAV1@@@6B@	; CArray<CRegistNSupportData *,CRegistNSupportData *>::`vftable'
PUBLIC	??_7?$CArray@PAVCCandlePatternData@@PAV1@@@6B@	; CArray<CCandlePatternData *,CCandlePatternData *>::`vftable'
PUBLIC	??_7?$CArray@PAVCCandlePatternPosInfo@@PAV1@@@6B@ ; CArray<CCandlePatternPosInfo *,CCandlePatternPosInfo *>::`vftable'
PUBLIC	??_7CPatternMaker@@6B@				; CPatternMaker::`vftable'
PUBLIC	??_C@_0BF@EGELCGDD@GetCurrentLanguageID@	; `string'
PUBLIC	??_C@_0BA@ENJOCHIO@LoadResourceDLL@		; `string'
PUBLIC	??_C@_07MGCPDNLD@DEFAULT@			; `string'
PUBLIC	__TI3PAVCPatternMaker@@
PUBLIC	__CTA3PAVCPatternMaker@@
PUBLIC	??_R0PAVCPatternMaker@@@8			; CPatternMaker * `RTTI Type Descriptor'
PUBLIC	__CT??_R0PAVCPatternMaker@@@84
PUBLIC	??_R0PAVCObject@@@8				; CObject * `RTTI Type Descriptor'
PUBLIC	__CT??_R0PAVCObject@@@84
PUBLIC	??_R0PAX@8					; void * `RTTI Type Descriptor'
PUBLIC	__CT??_R0PAX@84
PUBLIC	??_C@_0BJ@LGCEJJMK@?$CFs?2Icss?2Candle?2e_?$CFs?4html@ ; `string'
PUBLIC	??_C@_0BH@EJHLDMIB@?$CFs?2Icss?2Candle?2?$CFs?4html@ ; `string'
PUBLIC	??_R4CPatternMaker@@6B@				; CPatternMaker::`RTTI Complete Object Locator'
PUBLIC	??_R0?AVCPatternMaker@@@8			; CPatternMaker `RTTI Type Descriptor'
PUBLIC	??_R3CPatternMaker@@8				; CPatternMaker::`RTTI Class Hierarchy Descriptor'
PUBLIC	??_R2CPatternMaker@@8				; CPatternMaker::`RTTI Base Class Array'
PUBLIC	??_R1A@?0A@EA@CPatternMaker@@8			; CPatternMaker::`RTTI Base Class Descriptor at (0,-1,0,64)'
PUBLIC	??_R4?$CArray@PAVCWavePatternData@@PAV1@@@6B@	; CArray<CWavePatternData *,CWavePatternData *>::`RTTI Complete Object Locator'
PUBLIC	??_R0?AV?$CArray@PAVCWavePatternData@@PAV1@@@@8	; CArray<CWavePatternData *,CWavePatternData *> `RTTI Type Descriptor'
PUBLIC	??_R3?$CArray@PAVCWavePatternData@@PAV1@@@8	; CArray<CWavePatternData *,CWavePatternData *>::`RTTI Class Hierarchy Descriptor'
PUBLIC	??_R2?$CArray@PAVCWavePatternData@@PAV1@@@8	; CArray<CWavePatternData *,CWavePatternData *>::`RTTI Base Class Array'
PUBLIC	??_R1A@?0A@EA@?$CArray@PAVCWavePatternData@@PAV1@@@8 ; CArray<CWavePatternData *,CWavePatternData *>::`RTTI Base Class Descriptor at (0,-1,0,64)'
PUBLIC	??_R4?$CArray@PAVCHighLowPtData@@PAV1@@@6B@	; CArray<CHighLowPtData *,CHighLowPtData *>::`RTTI Complete Object Locator'
PUBLIC	??_R0?AV?$CArray@PAVCHighLowPtData@@PAV1@@@@8	; CArray<CHighLowPtData *,CHighLowPtData *> `RTTI Type Descriptor'
PUBLIC	??_R3?$CArray@PAVCHighLowPtData@@PAV1@@@8	; CArray<CHighLowPtData *,CHighLowPtData *>::`RTTI Class Hierarchy Descriptor'
PUBLIC	??_R2?$CArray@PAVCHighLowPtData@@PAV1@@@8	; CArray<CHighLowPtData *,CHighLowPtData *>::`RTTI Base Class Array'
PUBLIC	??_R1A@?0A@EA@?$CArray@PAVCHighLowPtData@@PAV1@@@8 ; CArray<CHighLowPtData *,CHighLowPtData *>::`RTTI Base Class Descriptor at (0,-1,0,64)'
PUBLIC	??_R4?$CArray@PAVCMAData@@PAV1@@@6B@		; CArray<CMAData *,CMAData *>::`RTTI Complete Object Locator'
PUBLIC	??_R0?AV?$CArray@PAVCMAData@@PAV1@@@@8		; CArray<CMAData *,CMAData *> `RTTI Type Descriptor'
PUBLIC	??_R3?$CArray@PAVCMAData@@PAV1@@@8		; CArray<CMAData *,CMAData *>::`RTTI Class Hierarchy Descriptor'
PUBLIC	??_R2?$CArray@PAVCMAData@@PAV1@@@8		; CArray<CMAData *,CMAData *>::`RTTI Base Class Array'
PUBLIC	??_R1A@?0A@EA@?$CArray@PAVCMAData@@PAV1@@@8	; CArray<CMAData *,CMAData *>::`RTTI Base Class Descriptor at (0,-1,0,64)'
PUBLIC	??_R4?$CArray@PAVCRegistNSupportData@@PAV1@@@6B@ ; CArray<CRegistNSupportData *,CRegistNSupportData *>::`RTTI Complete Object Locator'
PUBLIC	??_R0?AV?$CArray@PAVCRegistNSupportData@@PAV1@@@@8 ; CArray<CRegistNSupportData *,CRegistNSupportData *> `RTTI Type Descriptor'
PUBLIC	??_R3?$CArray@PAVCRegistNSupportData@@PAV1@@@8	; CArray<CRegistNSupportData *,CRegistNSupportData *>::`RTTI Class Hierarchy Descriptor'
PUBLIC	??_R2?$CArray@PAVCRegistNSupportData@@PAV1@@@8	; CArray<CRegistNSupportData *,CRegistNSupportData *>::`RTTI Base Class Array'
PUBLIC	??_R1A@?0A@EA@?$CArray@PAVCRegistNSupportData@@PAV1@@@8 ; CArray<CRegistNSupportData *,CRegistNSupportData *>::`RTTI Base Class Descriptor at (0,-1,0,64)'
PUBLIC	??_R4?$CArray@PAVCCandlePatternData@@PAV1@@@6B@	; CArray<CCandlePatternData *,CCandlePatternData *>::`RTTI Complete Object Locator'
PUBLIC	??_R0?AV?$CArray@PAVCCandlePatternData@@PAV1@@@@8 ; CArray<CCandlePatternData *,CCandlePatternData *> `RTTI Type Descriptor'
PUBLIC	??_R3?$CArray@PAVCCandlePatternData@@PAV1@@@8	; CArray<CCandlePatternData *,CCandlePatternData *>::`RTTI Class Hierarchy Descriptor'
PUBLIC	??_R2?$CArray@PAVCCandlePatternData@@PAV1@@@8	; CArray<CCandlePatternData *,CCandlePatternData *>::`RTTI Base Class Array'
PUBLIC	??_R1A@?0A@EA@?$CArray@PAVCCandlePatternData@@PAV1@@@8 ; CArray<CCandlePatternData *,CCandlePatternData *>::`RTTI Base Class Descriptor at (0,-1,0,64)'
PUBLIC	??_R4?$CArray@PAVCCandlePatternPosInfo@@PAV1@@@6B@ ; CArray<CCandlePatternPosInfo *,CCandlePatternPosInfo *>::`RTTI Complete Object Locator'
PUBLIC	??_R0?AV?$CArray@PAVCCandlePatternPosInfo@@PAV1@@@@8 ; CArray<CCandlePatternPosInfo *,CCandlePatternPosInfo *> `RTTI Type Descriptor'
PUBLIC	??_R3?$CArray@PAVCCandlePatternPosInfo@@PAV1@@@8 ; CArray<CCandlePatternPosInfo *,CCandlePatternPosInfo *>::`RTTI Class Hierarchy Descriptor'
PUBLIC	??_R2?$CArray@PAVCCandlePatternPosInfo@@PAV1@@@8 ; CArray<CCandlePatternPosInfo *,CCandlePatternPosInfo *>::`RTTI Base Class Array'
PUBLIC	??_R1A@?0A@EA@?$CArray@PAVCCandlePatternPosInfo@@PAV1@@@8 ; CArray<CCandlePatternPosInfo *,CCandlePatternPosInfo *>::`RTTI Base Class Descriptor at (0,-1,0,64)'
PUBLIC	__real@3fe0000000000000
PUBLIC	__real@4018000000000000
PUBLIC	__real@4059000000000000
EXTRN	??2@YAPAXI@Z:PROC				; operator new
EXTRN	??3@YAXPAX@Z:PROC				; operator delete
EXTRN	?__global_delete@@YAXPAXI@Z:PROC		; __global_delete
EXTRN	??_U@YAPAXI@Z:PROC				; operator new[]
EXTRN	??_V@YAXPAX@Z:PROC				; operator delete[]
EXTRN	___std_terminate:PROC
EXTRN	__imp___invalid_parameter_noinfo:PROC
EXTRN	__imp___errno:PROC
EXTRN	__imp__GetProcAddress@8:PROC
EXTRN	__imp__CreateFontIndirectA@4:PROC
EXTRN	__imp__CreatePen@12:PROC
EXTRN	__imp__CreatePenIndirect@4:PROC
EXTRN	__imp__CreateRectRgn@16:PROC
EXTRN	__imp__GetCurrentObject@8:PROC
EXTRN	__imp__GetObjectA@12:PROC
EXTRN	__imp__SendMessageA@16:PROC
EXTRN	__imp__GetWindowRect@8:PROC
EXTRN	__imp__CopyRect@8:PROC
EXTRN	?AfxThrowMemoryException@@YGXXZ:PROC		; AfxThrowMemoryException
EXTRN	?AfxThrowInvalidArgException@@YGXXZ:PROC	; AfxThrowInvalidArgException
EXTRN	?AfxThrowArchiveException@@YGXHPBD@Z:PROC	; AfxThrowArchiveException
EXTRN	?GetRuntimeClass@CObject@@UBEPAUCRuntimeClass@@XZ:PROC ; CObject::GetRuntimeClass
EXTRN	__imp_?Concatenate@?$CSimpleStringT@D$00@ATL@@KAXAAV12@PBDH1H@Z:PROC
EXTRN	__imp_??0?$CStringT@DV?$StrTraitMFC_DLL@DV?$ChTraitsCRT@D@ATL@@@@@ATL@@QAE@XZ:PROC
EXTRN	__imp_??0?$CStringT@DV?$StrTraitMFC_DLL@DV?$ChTraitsCRT@D@ATL@@@@@ATL@@QAE@PAUIAtlStringMgr@1@@Z:PROC
EXTRN	__imp_??0?$CStringT@DV?$StrTraitMFC_DLL@DV?$ChTraitsCRT@D@ATL@@@@@ATL@@QAE@PBD@Z:PROC
EXTRN	__imp_??1?$CStringT@DV?$StrTraitMFC_DLL@DV?$ChTraitsCRT@D@ATL@@@@@ATL@@QAE@XZ:PROC
EXTRN	__imp_??4?$CStringT@DV?$StrTraitMFC_DLL@DV?$ChTraitsCRT@D@ATL@@@@@ATL@@QAEAAV01@ABV01@@Z:PROC
EXTRN	__imp_??4?$CStringT@DV?$StrTraitMFC_DLL@DV?$ChTraitsCRT@D@ATL@@@@@ATL@@QAEAAV01@PBD@Z:PROC
EXTRN	__imp_?GetManager@?$CStringT@DV?$StrTraitMFC_DLL@DV?$ChTraitsCRT@D@ATL@@@@@ATL@@QBEPAUIAtlStringMgr@2@XZ:PROC
EXTRN	__imp_?Compare@?$CStringT@DV?$StrTraitMFC_DLL@DV?$ChTraitsCRT@D@ATL@@@@@ATL@@QBEHPBD@Z:PROC
EXTRN	__imp_?Format@?$CStringT@DV?$StrTraitMFC_DLL@DV?$ChTraitsCRT@D@ATL@@@@@ATL@@QAAXPBDZZ:PROC
EXTRN	__imp_?LoadStringA@?$CStringT@DV?$StrTraitMFC_DLL@DV?$ChTraitsCRT@D@ATL@@@@@ATL@@QAEHI@Z:PROC
EXTRN	??0CFileFind@@QAE@XZ:PROC			; CFileFind::CFileFind
EXTRN	??1CFileFind@@UAE@XZ:PROC			; CFileFind::~CFileFind
EXTRN	?Close@CFileFind@@QAEXXZ:PROC			; CFileFind::Close
EXTRN	?FindFile@CFileFind@@UAEHPBDK@Z:PROC		; CFileFind::FindFile
EXTRN	?Read@CArchive@@QAEIPAXI@Z:PROC			; CArchive::Read
EXTRN	?Write@CArchive@@QAEXPBXI@Z:PROC		; CArchive::Write
EXTRN	?ReadCount@CArchive@@QAEKXZ:PROC		; CArchive::ReadCount
EXTRN	?WriteCount@CArchive@@QAEXK@Z:PROC		; CArchive::WriteCount
EXTRN	?AfxGetModuleState@@YGPAVAFX_MODULE_STATE@@XZ:PROC ; AfxGetModuleState
EXTRN	?AfxGetStaticModuleState@@YGPAVAFX_MODULE_STATE@@XZ:PROC ; AfxGetStaticModuleState
EXTRN	?GetRuntimeClass@CGdiObject@@UBEPAUCRuntimeClass@@XZ:PROC ; CGdiObject::GetRuntimeClass
EXTRN	?FromHandle@CGdiObject@@SGPAV1@PAX@Z:PROC	; CGdiObject::FromHandle
EXTRN	?Attach@CGdiObject@@QAEHPAX@Z:PROC		; CGdiObject::Attach
EXTRN	?DeleteObject@CGdiObject@@QAEHXZ:PROC		; CGdiObject::DeleteObject
EXTRN	??_ECGdiObject@@UAEPAXI@Z:PROC			; CGdiObject::`vector deleting destructor'
EXTRN	?GetRuntimeClass@CPen@@UBEPAUCRuntimeClass@@XZ:PROC ; CPen::GetRuntimeClass
EXTRN	??0CPen@@QAE@HHK@Z:PROC				; CPen::CPen
EXTRN	??_ECPen@@UAEPAXI@Z:PROC			; CPen::`vector deleting destructor'
EXTRN	?GetRuntimeClass@CFont@@UBEPAUCRuntimeClass@@XZ:PROC ; CFont::GetRuntimeClass
EXTRN	??_ECFont@@UAEPAXI@Z:PROC			; CFont::`vector deleting destructor'
EXTRN	?GetRuntimeClass@CRgn@@UBEPAUCRuntimeClass@@XZ:PROC ; CRgn::GetRuntimeClass
EXTRN	??_ECRgn@@UAEPAXI@Z:PROC			; CRgn::`vector deleting destructor'
EXTRN	?SelectObject@CDC@@QAEPAVCPen@@PAV2@@Z:PROC	; CDC::SelectObject
EXTRN	?SetBkMode@CDC@@QAEHH@Z:PROC			; CDC::SetBkMode
EXTRN	?SelectClipRgn@CDC@@QAEHPAVCRgn@@@Z:PROC	; CDC::SelectClipRgn
EXTRN	?MoveTo@CDC@@QAE?AVCPoint@@HH@Z:PROC		; CDC::MoveTo
EXTRN	?LineTo@CDC@@QAEHHH@Z:PROC			; CDC::LineTo
EXTRN	?FillSolidRect@CDC@@QAEXPBUtagRECT@@K@Z:PROC	; CDC::FillSolidRect
EXTRN	?FromHandle@CWnd@@SGPAV1@PAUHWND__@@@Z:PROC	; CWnd::FromHandle
EXTRN	?ShowWindow@CWnd@@QAEHH@Z:PROC			; CWnd::ShowWindow
EXTRN	?DoModal@CDialog@@UAEHXZ:PROC			; CDialog::DoModal
EXTRN	?AfxMessageBox@@YGHPBDII@Z:PROC			; AfxMessageBox
EXTRN	?AfxMessageBox@@YGHIII@Z:PROC			; AfxMessageBox
EXTRN	??0CToolTipCtrl@@QAE@XZ:PROC			; CToolTipCtrl::CToolTipCtrl
EXTRN	?AddTool@CToolTipCtrl@@QAEHPAVCWnd@@PBDPBUtagRECT@@I@Z:PROC ; CToolTipCtrl::AddTool
EXTRN	?UpdateTipText@CToolTipCtrl@@QAEXPBDPAVCWnd@@I@Z:PROC ; CToolTipCtrl::UpdateTipText
EXTRN	??1CToolTipCtrl@@UAE@XZ:PROC			; CToolTipCtrl::~CToolTipCtrl
EXTRN	??0CHighLowPtData@@QAE@XZ:PROC			; CHighLowPtData::CHighLowPtData
EXTRN	??0CMAData@@QAE@XZ:PROC				; CMAData::CMAData
EXTRN	??0CWavePatternData@@QAE@XZ:PROC		; CWavePatternData::CWavePatternData
EXTRN	??1CWavePatternData@@UAE@XZ:PROC		; CWavePatternData::~CWavePatternData
EXTRN	??0CPatternEnvData@@QAE@XZ:PROC			; CPatternEnvData::CPatternEnvData
EXTRN	??1CPatternEnvData@@UAE@XZ:PROC			; CPatternEnvData::~CPatternEnvData
EXTRN	?IsDisplayCandle@CPatternEnvData@@QAEHH@Z:PROC	; CPatternEnvData::IsDisplayCandle
EXTRN	??0CSelPatternData4Draw@@QAE@XZ:PROC		; CSelPatternData4Draw::CSelPatternData4Draw
EXTRN	??1CSelPatternData4Draw@@UAE@XZ:PROC		; CSelPatternData4Draw::~CSelPatternData4Draw
EXTRN	??0CCandlePatternData@@QAE@XZ:PROC		; CCandlePatternData::CCandlePatternData
EXTRN	??1CCandlePatternData@@UAE@XZ:PROC		; CCandlePatternData::~CCandlePatternData
EXTRN	??0CCandlePatternPosInfo@@QAE@XZ:PROC		; CCandlePatternPosInfo::CCandlePatternPosInfo
EXTRN	??0CWavePattern@@QAE@XZ:PROC			; CWavePattern::CWavePattern
EXTRN	??1CWavePattern@@UAE@XZ:PROC			; CWavePattern::~CWavePattern
EXTRN	?Get_RegistNSupportLine@CWavePattern@@QAEHPAVCObject@@0N@Z:PROC ; CWavePattern::Get_RegistNSupportLine
EXTRN	?Find_All_WavePattern@CWavePattern@@QAEXPAVCObject@@0@Z:PROC ; CWavePattern::Find_All_WavePattern
EXTRN	?GetPatternName@CWavePattern@@QAE?AV?$CStringT@DV?$StrTraitMFC_DLL@DV?$ChTraitsCRT@D@ATL@@@@@ATL@@H@Z:PROC ; CWavePattern::GetPatternName
EXTRN	?GetPatternTrend@CWavePattern@@QAEHH@Z:PROC	; CWavePattern::GetPatternTrend
EXTRN	?GetGradient@CWavePattern@@QAENNNNN@Z:PROC	; CWavePattern::GetGradient
EXTRN	??0CCandlePattern@@QAE@XZ:PROC			; CCandlePattern::CCandlePattern
EXTRN	??1CCandlePattern@@UAE@XZ:PROC			; CCandlePattern::~CCandlePattern
EXTRN	?CDFind_All_CandlePattern@CCandlePattern@@QAEXPAU_STCANDLE_DATA@@PAVCObject@@@Z:PROC ; CCandlePattern::CDFind_All_CandlePattern
EXTRN	?GetCandlePatternName@CCandlePattern@@QAE?AV?$CStringT@DV?$StrTraitMFC_DLL@DV?$ChTraitsCRT@D@ATL@@@@@ATL@@H@Z:PROC ; CCandlePattern::GetCandlePatternName
EXTRN	?GetCandlePatternTrust@CCandlePattern@@QAEHH@Z:PROC ; CCandlePattern::GetCandlePatternTrust
EXTRN	?GetCandlePatternHelpName@CCandlePattern@@QAE?AV?$CStringT@DV?$StrTraitMFC_DLL@DV?$ChTraitsCRT@D@ATL@@@@@ATL@@H@Z:PROC ; CCandlePattern::GetCandlePatternHelpName
EXTRN	??_E?$CArray@PAVCWavePatternData@@PAV1@@@UAEPAXI@Z:PROC ; CArray<CWavePatternData *,CWavePatternData *>::`vector deleting destructor'
EXTRN	??_E?$CArray@PAVCHighLowPtData@@PAV1@@@UAEPAXI@Z:PROC ; CArray<CHighLowPtData *,CHighLowPtData *>::`vector deleting destructor'
EXTRN	??_E?$CArray@PAVCMAData@@PAV1@@@UAEPAXI@Z:PROC	; CArray<CMAData *,CMAData *>::`vector deleting destructor'
EXTRN	??_E?$CArray@PAVCRegistNSupportData@@PAV1@@@UAEPAXI@Z:PROC ; CArray<CRegistNSupportData *,CRegistNSupportData *>::`vector deleting destructor'
EXTRN	??_E?$CArray@PAVCCandlePatternData@@PAV1@@@UAEPAXI@Z:PROC ; CArray<CCandlePatternData *,CCandlePatternData *>::`vector deleting destructor'
EXTRN	??_E?$CArray@PAVCCandlePatternPosInfo@@PAV1@@@UAEPAXI@Z:PROC ; CArray<CCandlePatternPosInfo *,CCandlePatternPosInfo *>::`vector deleting destructor'
EXTRN	??_ECPatternMaker@@UAEPAXI@Z:PROC		; CPatternMaker::`vector deleting destructor'
EXTRN	??0CDlgAnalysis@@QAE@PAVCWnd@@PAVCPatternMaker@@@Z:PROC ; CDlgAnalysis::CDlgAnalysis
EXTRN	?SetFoundWavePtnToGrid_RptType1@CDlgAnalysis@@QAEXPAVCObject@@PAN11H@Z:PROC ; CDlgAnalysis::SetFoundWavePtnToGrid_RptType1
EXTRN	?SetFoundCandlePtnToGrid_RptType1@CDlgAnalysis@@QAEXPAVCObject@@@Z:PROC ; CDlgAnalysis::SetFoundCandlePtnToGrid_RptType1
EXTRN	?SetReportTitleBasicInfo@CDlgAnalysis@@QAEXNNH@Z:PROC ; CDlgAnalysis::SetReportTitleBasicInfo
EXTRN	??0CDlgHtml@@QAE@PAVCWnd@@@Z:PROC		; CDlgHtml::CDlgHtml
EXTRN	??1CDlgHtml@@UAE@XZ:PROC			; CDlgHtml::~CDlgHtml
EXTRN	@__security_check_cookie@4:PROC
EXTRN	__CxxThrowException@8:PROC
EXTRN	___CxxFrameHandler3:PROC
EXTRN	_memcpy:PROC
EXTRN	_memmove:PROC
EXTRN	_memset:PROC
EXTRN	??_7type_info@@6B@:QWORD			; type_info::`vftable'
EXTRN	?g_iMetaTable@@3VIMetaTable@@A:BYTE		; g_iMetaTable
EXTRN	___security_cookie:DWORD
EXTRN	__fltused:DWORD
;	COMDAT __real@4059000000000000
CONST	SEGMENT
__real@4059000000000000 DQ 04059000000000000r	; 100
CONST	ENDS
;	COMDAT __real@4018000000000000
CONST	SEGMENT
__real@4018000000000000 DQ 04018000000000000r	; 6
CONST	ENDS
;	COMDAT __real@3fe0000000000000
CONST	SEGMENT
__real@3fe0000000000000 DQ 03fe0000000000000r	; 0.5
CONST	ENDS
;	COMDAT ??_R1A@?0A@EA@?$CArray@PAVCCandlePatternPosInfo@@PAV1@@@8
rdata$r	SEGMENT
??_R1A@?0A@EA@?$CArray@PAVCCandlePatternPosInfo@@PAV1@@@8 DD FLAT:??_R0?AV?$CArray@PAVCCandlePatternPosInfo@@PAV1@@@@8 ; CArray<CCandlePatternPosInfo *,CCandlePatternPosInfo *>::`RTTI Base Class Descriptor at (0,-1,0,64)'
	DD	01H
	DD	00H
	DD	0ffffffffH
	DD	00H
	DD	040H
	DD	FLAT:??_R3?$CArray@PAVCCandlePatternPosInfo@@PAV1@@@8
rdata$r	ENDS
;	COMDAT ??_R2?$CArray@PAVCCandlePatternPosInfo@@PAV1@@@8
rdata$r	SEGMENT
??_R2?$CArray@PAVCCandlePatternPosInfo@@PAV1@@@8 DD FLAT:??_R1A@?0A@EA@?$CArray@PAVCCandlePatternPosInfo@@PAV1@@@8 ; CArray<CCandlePatternPosInfo *,CCandlePatternPosInfo *>::`RTTI Base Class Array'
	DD	FLAT:??_R1A@?0A@EA@CObject@@8
rdata$r	ENDS
;	COMDAT ??_R3?$CArray@PAVCCandlePatternPosInfo@@PAV1@@@8
rdata$r	SEGMENT
??_R3?$CArray@PAVCCandlePatternPosInfo@@PAV1@@@8 DD 00H	; CArray<CCandlePatternPosInfo *,CCandlePatternPosInfo *>::`RTTI Class Hierarchy Descriptor'
	DD	00H
	DD	02H
	DD	FLAT:??_R2?$CArray@PAVCCandlePatternPosInfo@@PAV1@@@8
rdata$r	ENDS
;	COMDAT ??_R0?AV?$CArray@PAVCCandlePatternPosInfo@@PAV1@@@@8
data$rs	SEGMENT
??_R0?AV?$CArray@PAVCCandlePatternPosInfo@@PAV1@@@@8 DD FLAT:??_7type_info@@6B@ ; CArray<CCandlePatternPosInfo *,CCandlePatternPosInfo *> `RTTI Type Descriptor'
	DD	00H
	DB	'.?AV?$CArray@PAVCCandlePatternPosInfo@@PAV1@@@', 00H
data$rs	ENDS
;	COMDAT ??_R4?$CArray@PAVCCandlePatternPosInfo@@PAV1@@@6B@
rdata$r	SEGMENT
??_R4?$CArray@PAVCCandlePatternPosInfo@@PAV1@@@6B@ DD 00H ; CArray<CCandlePatternPosInfo *,CCandlePatternPosInfo *>::`RTTI Complete Object Locator'
	DD	00H
	DD	00H
	DD	FLAT:??_R0?AV?$CArray@PAVCCandlePatternPosInfo@@PAV1@@@@8
	DD	FLAT:??_R3?$CArray@PAVCCandlePatternPosInfo@@PAV1@@@8
rdata$r	ENDS
;	COMDAT ??_R1A@?0A@EA@?$CArray@PAVCCandlePatternData@@PAV1@@@8
rdata$r	SEGMENT
??_R1A@?0A@EA@?$CArray@PAVCCandlePatternData@@PAV1@@@8 DD FLAT:??_R0?AV?$CArray@PAVCCandlePatternData@@PAV1@@@@8 ; CArray<CCandlePatternData *,CCandlePatternData *>::`RTTI Base Class Descriptor at (0,-1,0,64)'
	DD	01H
	DD	00H
	DD	0ffffffffH
	DD	00H
	DD	040H
	DD	FLAT:??_R3?$CArray@PAVCCandlePatternData@@PAV1@@@8
rdata$r	ENDS
;	COMDAT ??_R2?$CArray@PAVCCandlePatternData@@PAV1@@@8
rdata$r	SEGMENT
??_R2?$CArray@PAVCCandlePatternData@@PAV1@@@8 DD FLAT:??_R1A@?0A@EA@?$CArray@PAVCCandlePatternData@@PAV1@@@8 ; CArray<CCandlePatternData *,CCandlePatternData *>::`RTTI Base Class Array'
	DD	FLAT:??_R1A@?0A@EA@CObject@@8
rdata$r	ENDS
;	COMDAT ??_R3?$CArray@PAVCCandlePatternData@@PAV1@@@8
rdata$r	SEGMENT
??_R3?$CArray@PAVCCandlePatternData@@PAV1@@@8 DD 00H	; CArray<CCandlePatternData *,CCandlePatternData *>::`RTTI Class Hierarchy Descriptor'
	DD	00H
	DD	02H
	DD	FLAT:??_R2?$CArray@PAVCCandlePatternData@@PAV1@@@8
rdata$r	ENDS
;	COMDAT ??_R0?AV?$CArray@PAVCCandlePatternData@@PAV1@@@@8
data$rs	SEGMENT
??_R0?AV?$CArray@PAVCCandlePatternData@@PAV1@@@@8 DD FLAT:??_7type_info@@6B@ ; CArray<CCandlePatternData *,CCandlePatternData *> `RTTI Type Descriptor'
	DD	00H
	DB	'.?AV?$CArray@PAVCCandlePatternData@@PAV1@@@', 00H
data$rs	ENDS
;	COMDAT ??_R4?$CArray@PAVCCandlePatternData@@PAV1@@@6B@
rdata$r	SEGMENT
??_R4?$CArray@PAVCCandlePatternData@@PAV1@@@6B@ DD 00H	; CArray<CCandlePatternData *,CCandlePatternData *>::`RTTI Complete Object Locator'
	DD	00H
	DD	00H
	DD	FLAT:??_R0?AV?$CArray@PAVCCandlePatternData@@PAV1@@@@8
	DD	FLAT:??_R3?$CArray@PAVCCandlePatternData@@PAV1@@@8
rdata$r	ENDS
;	COMDAT ??_R1A@?0A@EA@?$CArray@PAVCRegistNSupportData@@PAV1@@@8
rdata$r	SEGMENT
??_R1A@?0A@EA@?$CArray@PAVCRegistNSupportData@@PAV1@@@8 DD FLAT:??_R0?AV?$CArray@PAVCRegistNSupportData@@PAV1@@@@8 ; CArray<CRegistNSupportData *,CRegistNSupportData *>::`RTTI Base Class Descriptor at (0,-1,0,64)'
	DD	01H
	DD	00H
	DD	0ffffffffH
	DD	00H
	DD	040H
	DD	FLAT:??_R3?$CArray@PAVCRegistNSupportData@@PAV1@@@8
rdata$r	ENDS
;	COMDAT ??_R2?$CArray@PAVCRegistNSupportData@@PAV1@@@8
rdata$r	SEGMENT
??_R2?$CArray@PAVCRegistNSupportData@@PAV1@@@8 DD FLAT:??_R1A@?0A@EA@?$CArray@PAVCRegistNSupportData@@PAV1@@@8 ; CArray<CRegistNSupportData *,CRegistNSupportData *>::`RTTI Base Class Array'
	DD	FLAT:??_R1A@?0A@EA@CObject@@8
rdata$r	ENDS
;	COMDAT ??_R3?$CArray@PAVCRegistNSupportData@@PAV1@@@8
rdata$r	SEGMENT
??_R3?$CArray@PAVCRegistNSupportData@@PAV1@@@8 DD 00H	; CArray<CRegistNSupportData *,CRegistNSupportData *>::`RTTI Class Hierarchy Descriptor'
	DD	00H
	DD	02H
	DD	FLAT:??_R2?$CArray@PAVCRegistNSupportData@@PAV1@@@8
rdata$r	ENDS
;	COMDAT ??_R0?AV?$CArray@PAVCRegistNSupportData@@PAV1@@@@8
data$rs	SEGMENT
??_R0?AV?$CArray@PAVCRegistNSupportData@@PAV1@@@@8 DD FLAT:??_7type_info@@6B@ ; CArray<CRegistNSupportData *,CRegistNSupportData *> `RTTI Type Descriptor'
	DD	00H
	DB	'.?AV?$CArray@PAVCRegistNSupportData@@PAV1@@@', 00H
data$rs	ENDS
;	COMDAT ??_R4?$CArray@PAVCRegistNSupportData@@PAV1@@@6B@
rdata$r	SEGMENT
??_R4?$CArray@PAVCRegistNSupportData@@PAV1@@@6B@ DD 00H	; CArray<CRegistNSupportData *,CRegistNSupportData *>::`RTTI Complete Object Locator'
	DD	00H
	DD	00H
	DD	FLAT:??_R0?AV?$CArray@PAVCRegistNSupportData@@PAV1@@@@8
	DD	FLAT:??_R3?$CArray@PAVCRegistNSupportData@@PAV1@@@8
rdata$r	ENDS
;	COMDAT ??_R1A@?0A@EA@?$CArray@PAVCMAData@@PAV1@@@8
rdata$r	SEGMENT
??_R1A@?0A@EA@?$CArray@PAVCMAData@@PAV1@@@8 DD FLAT:??_R0?AV?$CArray@PAVCMAData@@PAV1@@@@8 ; CArray<CMAData *,CMAData *>::`RTTI Base Class Descriptor at (0,-1,0,64)'
	DD	01H
	DD	00H
	DD	0ffffffffH
	DD	00H
	DD	040H
	DD	FLAT:??_R3?$CArray@PAVCMAData@@PAV1@@@8
rdata$r	ENDS
;	COMDAT ??_R2?$CArray@PAVCMAData@@PAV1@@@8
rdata$r	SEGMENT
??_R2?$CArray@PAVCMAData@@PAV1@@@8 DD FLAT:??_R1A@?0A@EA@?$CArray@PAVCMAData@@PAV1@@@8 ; CArray<CMAData *,CMAData *>::`RTTI Base Class Array'
	DD	FLAT:??_R1A@?0A@EA@CObject@@8
rdata$r	ENDS
;	COMDAT ??_R3?$CArray@PAVCMAData@@PAV1@@@8
rdata$r	SEGMENT
??_R3?$CArray@PAVCMAData@@PAV1@@@8 DD 00H		; CArray<CMAData *,CMAData *>::`RTTI Class Hierarchy Descriptor'
	DD	00H
	DD	02H
	DD	FLAT:??_R2?$CArray@PAVCMAData@@PAV1@@@8
rdata$r	ENDS
;	COMDAT ??_R0?AV?$CArray@PAVCMAData@@PAV1@@@@8
data$rs	SEGMENT
??_R0?AV?$CArray@PAVCMAData@@PAV1@@@@8 DD FLAT:??_7type_info@@6B@ ; CArray<CMAData *,CMAData *> `RTTI Type Descriptor'
	DD	00H
	DB	'.?AV?$CArray@PAVCMAData@@PAV1@@@', 00H
data$rs	ENDS
;	COMDAT ??_R4?$CArray@PAVCMAData@@PAV1@@@6B@
rdata$r	SEGMENT
??_R4?$CArray@PAVCMAData@@PAV1@@@6B@ DD 00H		; CArray<CMAData *,CMAData *>::`RTTI Complete Object Locator'
	DD	00H
	DD	00H
	DD	FLAT:??_R0?AV?$CArray@PAVCMAData@@PAV1@@@@8
	DD	FLAT:??_R3?$CArray@PAVCMAData@@PAV1@@@8
rdata$r	ENDS
;	COMDAT ??_R1A@?0A@EA@?$CArray@PAVCHighLowPtData@@PAV1@@@8
rdata$r	SEGMENT
??_R1A@?0A@EA@?$CArray@PAVCHighLowPtData@@PAV1@@@8 DD FLAT:??_R0?AV?$CArray@PAVCHighLowPtData@@PAV1@@@@8 ; CArray<CHighLowPtData *,CHighLowPtData *>::`RTTI Base Class Descriptor at (0,-1,0,64)'
	DD	01H
	DD	00H
	DD	0ffffffffH
	DD	00H
	DD	040H
	DD	FLAT:??_R3?$CArray@PAVCHighLowPtData@@PAV1@@@8
rdata$r	ENDS
;	COMDAT ??_R2?$CArray@PAVCHighLowPtData@@PAV1@@@8
rdata$r	SEGMENT
??_R2?$CArray@PAVCHighLowPtData@@PAV1@@@8 DD FLAT:??_R1A@?0A@EA@?$CArray@PAVCHighLowPtData@@PAV1@@@8 ; CArray<CHighLowPtData *,CHighLowPtData *>::`RTTI Base Class Array'
	DD	FLAT:??_R1A@?0A@EA@CObject@@8
rdata$r	ENDS
;	COMDAT ??_R3?$CArray@PAVCHighLowPtData@@PAV1@@@8
rdata$r	SEGMENT
??_R3?$CArray@PAVCHighLowPtData@@PAV1@@@8 DD 00H	; CArray<CHighLowPtData *,CHighLowPtData *>::`RTTI Class Hierarchy Descriptor'
	DD	00H
	DD	02H
	DD	FLAT:??_R2?$CArray@PAVCHighLowPtData@@PAV1@@@8
rdata$r	ENDS
;	COMDAT ??_R0?AV?$CArray@PAVCHighLowPtData@@PAV1@@@@8
data$rs	SEGMENT
??_R0?AV?$CArray@PAVCHighLowPtData@@PAV1@@@@8 DD FLAT:??_7type_info@@6B@ ; CArray<CHighLowPtData *,CHighLowPtData *> `RTTI Type Descriptor'
	DD	00H
	DB	'.?AV?$CArray@PAVCHighLowPtData@@PAV1@@@', 00H
data$rs	ENDS
;	COMDAT ??_R4?$CArray@PAVCHighLowPtData@@PAV1@@@6B@
rdata$r	SEGMENT
??_R4?$CArray@PAVCHighLowPtData@@PAV1@@@6B@ DD 00H	; CArray<CHighLowPtData *,CHighLowPtData *>::`RTTI Complete Object Locator'
	DD	00H
	DD	00H
	DD	FLAT:??_R0?AV?$CArray@PAVCHighLowPtData@@PAV1@@@@8
	DD	FLAT:??_R3?$CArray@PAVCHighLowPtData@@PAV1@@@8
rdata$r	ENDS
;	COMDAT ??_R1A@?0A@EA@?$CArray@PAVCWavePatternData@@PAV1@@@8
rdata$r	SEGMENT
??_R1A@?0A@EA@?$CArray@PAVCWavePatternData@@PAV1@@@8 DD FLAT:??_R0?AV?$CArray@PAVCWavePatternData@@PAV1@@@@8 ; CArray<CWavePatternData *,CWavePatternData *>::`RTTI Base Class Descriptor at (0,-1,0,64)'
	DD	01H
	DD	00H
	DD	0ffffffffH
	DD	00H
	DD	040H
	DD	FLAT:??_R3?$CArray@PAVCWavePatternData@@PAV1@@@8
rdata$r	ENDS
;	COMDAT ??_R2?$CArray@PAVCWavePatternData@@PAV1@@@8
rdata$r	SEGMENT
??_R2?$CArray@PAVCWavePatternData@@PAV1@@@8 DD FLAT:??_R1A@?0A@EA@?$CArray@PAVCWavePatternData@@PAV1@@@8 ; CArray<CWavePatternData *,CWavePatternData *>::`RTTI Base Class Array'
	DD	FLAT:??_R1A@?0A@EA@CObject@@8
rdata$r	ENDS
;	COMDAT ??_R3?$CArray@PAVCWavePatternData@@PAV1@@@8
rdata$r	SEGMENT
??_R3?$CArray@PAVCWavePatternData@@PAV1@@@8 DD 00H	; CArray<CWavePatternData *,CWavePatternData *>::`RTTI Class Hierarchy Descriptor'
	DD	00H
	DD	02H
	DD	FLAT:??_R2?$CArray@PAVCWavePatternData@@PAV1@@@8
rdata$r	ENDS
;	COMDAT ??_R0?AV?$CArray@PAVCWavePatternData@@PAV1@@@@8
data$rs	SEGMENT
??_R0?AV?$CArray@PAVCWavePatternData@@PAV1@@@@8 DD FLAT:??_7type_info@@6B@ ; CArray<CWavePatternData *,CWavePatternData *> `RTTI Type Descriptor'
	DD	00H
	DB	'.?AV?$CArray@PAVCWavePatternData@@PAV1@@@', 00H
data$rs	ENDS
;	COMDAT ??_R4?$CArray@PAVCWavePatternData@@PAV1@@@6B@
rdata$r	SEGMENT
??_R4?$CArray@PAVCWavePatternData@@PAV1@@@6B@ DD 00H	; CArray<CWavePatternData *,CWavePatternData *>::`RTTI Complete Object Locator'
	DD	00H
	DD	00H
	DD	FLAT:??_R0?AV?$CArray@PAVCWavePatternData@@PAV1@@@@8
	DD	FLAT:??_R3?$CArray@PAVCWavePatternData@@PAV1@@@8
rdata$r	ENDS
;	COMDAT ??_R1A@?0A@EA@CPatternMaker@@8
rdata$r	SEGMENT
??_R1A@?0A@EA@CPatternMaker@@8 DD FLAT:??_R0?AVCPatternMaker@@@8 ; CPatternMaker::`RTTI Base Class Descriptor at (0,-1,0,64)'
	DD	01H
	DD	00H
	DD	0ffffffffH
	DD	00H
	DD	040H
	DD	FLAT:??_R3CPatternMaker@@8
rdata$r	ENDS
;	COMDAT ??_R2CPatternMaker@@8
rdata$r	SEGMENT
??_R2CPatternMaker@@8 DD FLAT:??_R1A@?0A@EA@CPatternMaker@@8 ; CPatternMaker::`RTTI Base Class Array'
	DD	FLAT:??_R1A@?0A@EA@CObject@@8
rdata$r	ENDS
;	COMDAT ??_R3CPatternMaker@@8
rdata$r	SEGMENT
??_R3CPatternMaker@@8 DD 00H				; CPatternMaker::`RTTI Class Hierarchy Descriptor'
	DD	00H
	DD	02H
	DD	FLAT:??_R2CPatternMaker@@8
rdata$r	ENDS
;	COMDAT ??_R0?AVCPatternMaker@@@8
data$rs	SEGMENT
??_R0?AVCPatternMaker@@@8 DD FLAT:??_7type_info@@6B@	; CPatternMaker `RTTI Type Descriptor'
	DD	00H
	DB	'.?AVCPatternMaker@@', 00H
data$rs	ENDS
;	COMDAT ??_R4CPatternMaker@@6B@
rdata$r	SEGMENT
??_R4CPatternMaker@@6B@ DD 00H				; CPatternMaker::`RTTI Complete Object Locator'
	DD	00H
	DD	00H
	DD	FLAT:??_R0?AVCPatternMaker@@@8
	DD	FLAT:??_R3CPatternMaker@@8
rdata$r	ENDS
;	COMDAT ??_C@_0BH@EJHLDMIB@?$CFs?2Icss?2Candle?2?$CFs?4html@
CONST	SEGMENT
??_C@_0BH@EJHLDMIB@?$CFs?2Icss?2Candle?2?$CFs?4html@ DB '%s\Icss\Candle\%'
	DB	's.html', 00H				; `string'
CONST	ENDS
;	COMDAT ??_C@_0BJ@LGCEJJMK@?$CFs?2Icss?2Candle?2e_?$CFs?4html@
CONST	SEGMENT
??_C@_0BJ@LGCEJJMK@?$CFs?2Icss?2Candle?2e_?$CFs?4html@ DB '%s\Icss\Candle'
	DB	'\e_%s.html', 00H				; `string'
CONST	ENDS
;	COMDAT __CT??_R0PAX@84
xdata$x	SEGMENT
__CT??_R0PAX@84 DD 01H
	DD	FLAT:??_R0PAX@8
	DD	00H
	DD	0ffffffffH
	ORG $+4
	DD	04H
	DD	00H
xdata$x	ENDS
;	COMDAT ??_R0PAX@8
data$r	SEGMENT
??_R0PAX@8 DD	FLAT:??_7type_info@@6B@			; void * `RTTI Type Descriptor'
	DD	00H
	DB	'.PAX', 00H
data$r	ENDS
;	COMDAT __CT??_R0PAVCObject@@@84
xdata$x	SEGMENT
__CT??_R0PAVCObject@@@84 DD 01H
	DD	FLAT:??_R0PAVCObject@@@8
	DD	00H
	DD	0ffffffffH
	ORG $+4
	DD	04H
	DD	00H
xdata$x	ENDS
;	COMDAT ??_R0PAVCObject@@@8
data$r	SEGMENT
??_R0PAVCObject@@@8 DD FLAT:??_7type_info@@6B@		; CObject * `RTTI Type Descriptor'
	DD	00H
	DB	'.PAVCObject@@', 00H
data$r	ENDS
;	COMDAT __CT??_R0PAVCPatternMaker@@@84
xdata$x	SEGMENT
__CT??_R0PAVCPatternMaker@@@84 DD 01H
	DD	FLAT:??_R0PAVCPatternMaker@@@8
	DD	00H
	DD	0ffffffffH
	ORG $+4
	DD	04H
	DD	00H
xdata$x	ENDS
;	COMDAT ??_R0PAVCPatternMaker@@@8
data$r	SEGMENT
??_R0PAVCPatternMaker@@@8 DD FLAT:??_7type_info@@6B@	; CPatternMaker * `RTTI Type Descriptor'
	DD	00H
	DB	'.PAVCPatternMaker@@', 00H
data$r	ENDS
;	COMDAT __CTA3PAVCPatternMaker@@
xdata$x	SEGMENT
__CTA3PAVCPatternMaker@@ DD 03H
	DD	FLAT:__CT??_R0PAVCPatternMaker@@@84
	DD	FLAT:__CT??_R0PAVCObject@@@84
	DD	FLAT:__CT??_R0PAX@84
xdata$x	ENDS
;	COMDAT __TI3PAVCPatternMaker@@
xdata$x	SEGMENT
__TI3PAVCPatternMaker@@ DD 00H
	DD	00H
	DD	00H
	DD	FLAT:__CTA3PAVCPatternMaker@@
xdata$x	ENDS
;	COMDAT ??_C@_07MGCPDNLD@DEFAULT@
CONST	SEGMENT
??_C@_07MGCPDNLD@DEFAULT@ DB 'DEFAULT', 00H		; `string'
CONST	ENDS
;	COMDAT ??_C@_0BA@ENJOCHIO@LoadResourceDLL@
CONST	SEGMENT
??_C@_0BA@ENJOCHIO@LoadResourceDLL@ DB 'LoadResourceDLL', 00H ; `string'
CONST	ENDS
;	COMDAT ??_C@_0BF@EGELCGDD@GetCurrentLanguageID@
CONST	SEGMENT
??_C@_0BF@EGELCGDD@GetCurrentLanguageID@ DB 'GetCurrentLanguageID', 00H ; `string'
CONST	ENDS
;	COMDAT ??_7CPatternMaker@@6B@
CONST	SEGMENT
??_7CPatternMaker@@6B@ DD FLAT:??_R4CPatternMaker@@6B@	; CPatternMaker::`vftable'
	DD	FLAT:?GetRuntimeClass@CObject@@UBEPAUCRuntimeClass@@XZ
	DD	FLAT:??_ECPatternMaker@@UAEPAXI@Z
	DD	FLAT:?Serialize@CObject@@UAEXAAVCArchive@@@Z
	DD	FLAT:?AssertValid@CObject@@UBEXXZ
	DD	FLAT:?Dump@CObject@@UBEXAAVCDumpContext@@@Z
CONST	ENDS
;	COMDAT ??_7?$CArray@PAVCCandlePatternPosInfo@@PAV1@@@6B@
CONST	SEGMENT
??_7?$CArray@PAVCCandlePatternPosInfo@@PAV1@@@6B@ DD FLAT:??_R4?$CArray@PAVCCandlePatternPosInfo@@PAV1@@@6B@ ; CArray<CCandlePatternPosInfo *,CCandlePatternPosInfo *>::`vftable'
	DD	FLAT:?GetRuntimeClass@CObject@@UBEPAUCRuntimeClass@@XZ
	DD	FLAT:??_E?$CArray@PAVCCandlePatternPosInfo@@PAV1@@@UAEPAXI@Z
	DD	FLAT:?Serialize@?$CArray@PAVCCandlePatternPosInfo@@PAV1@@@UAEXAAVCArchive@@@Z
	DD	FLAT:?AssertValid@CObject@@UBEXXZ
	DD	FLAT:?Dump@CObject@@UBEXAAVCDumpContext@@@Z
CONST	ENDS
;	COMDAT ??_7?$CArray@PAVCCandlePatternData@@PAV1@@@6B@
CONST	SEGMENT
??_7?$CArray@PAVCCandlePatternData@@PAV1@@@6B@ DD FLAT:??_R4?$CArray@PAVCCandlePatternData@@PAV1@@@6B@ ; CArray<CCandlePatternData *,CCandlePatternData *>::`vftable'
	DD	FLAT:?GetRuntimeClass@CObject@@UBEPAUCRuntimeClass@@XZ
	DD	FLAT:??_E?$CArray@PAVCCandlePatternData@@PAV1@@@UAEPAXI@Z
	DD	FLAT:?Serialize@?$CArray@PAVCCandlePatternData@@PAV1@@@UAEXAAVCArchive@@@Z
	DD	FLAT:?AssertValid@CObject@@UBEXXZ
	DD	FLAT:?Dump@CObject@@UBEXAAVCDumpContext@@@Z
CONST	ENDS
;	COMDAT ??_7?$CArray@PAVCRegistNSupportData@@PAV1@@@6B@
CONST	SEGMENT
??_7?$CArray@PAVCRegistNSupportData@@PAV1@@@6B@ DD FLAT:??_R4?$CArray@PAVCRegistNSupportData@@PAV1@@@6B@ ; CArray<CRegistNSupportData *,CRegistNSupportData *>::`vftable'
	DD	FLAT:?GetRuntimeClass@CObject@@UBEPAUCRuntimeClass@@XZ
	DD	FLAT:??_E?$CArray@PAVCRegistNSupportData@@PAV1@@@UAEPAXI@Z
	DD	FLAT:?Serialize@?$CArray@PAVCRegistNSupportData@@PAV1@@@UAEXAAVCArchive@@@Z
	DD	FLAT:?AssertValid@CObject@@UBEXXZ
	DD	FLAT:?Dump@CObject@@UBEXAAVCDumpContext@@@Z
CONST	ENDS
;	COMDAT ??_7?$CArray@PAVCMAData@@PAV1@@@6B@
CONST	SEGMENT
??_7?$CArray@PAVCMAData@@PAV1@@@6B@ DD FLAT:??_R4?$CArray@PAVCMAData@@PAV1@@@6B@ ; CArray<CMAData *,CMAData *>::`vftable'
	DD	FLAT:?GetRuntimeClass@CObject@@UBEPAUCRuntimeClass@@XZ
	DD	FLAT:??_E?$CArray@PAVCMAData@@PAV1@@@UAEPAXI@Z
	DD	FLAT:?Serialize@?$CArray@PAVCMAData@@PAV1@@@UAEXAAVCArchive@@@Z
	DD	FLAT:?AssertValid@CObject@@UBEXXZ
	DD	FLAT:?Dump@CObject@@UBEXAAVCDumpContext@@@Z
CONST	ENDS
;	COMDAT ??_7?$CArray@PAVCHighLowPtData@@PAV1@@@6B@
CONST	SEGMENT
??_7?$CArray@PAVCHighLowPtData@@PAV1@@@6B@ DD FLAT:??_R4?$CArray@PAVCHighLowPtData@@PAV1@@@6B@ ; CArray<CHighLowPtData *,CHighLowPtData *>::`vftable'
	DD	FLAT:?GetRuntimeClass@CObject@@UBEPAUCRuntimeClass@@XZ
	DD	FLAT:??_E?$CArray@PAVCHighLowPtData@@PAV1@@@UAEPAXI@Z
	DD	FLAT:?Serialize@?$CArray@PAVCHighLowPtData@@PAV1@@@UAEXAAVCArchive@@@Z
	DD	FLAT:?AssertValid@CObject@@UBEXXZ
	DD	FLAT:?Dump@CObject@@UBEXAAVCDumpContext@@@Z
CONST	ENDS
;	COMDAT ??_7?$CArray@PAVCWavePatternData@@PAV1@@@6B@
CONST	SEGMENT
??_7?$CArray@PAVCWavePatternData@@PAV1@@@6B@ DD FLAT:??_R4?$CArray@PAVCWavePatternData@@PAV1@@@6B@ ; CArray<CWavePatternData *,CWavePatternData *>::`vftable'
	DD	FLAT:?GetRuntimeClass@CObject@@UBEPAUCRuntimeClass@@XZ
	DD	FLAT:??_E?$CArray@PAVCWavePatternData@@PAV1@@@UAEPAXI@Z
	DD	FLAT:?Serialize@?$CArray@PAVCWavePatternData@@PAV1@@@UAEXAAVCArchive@@@Z
	DD	FLAT:?AssertValid@CObject@@UBEXXZ
	DD	FLAT:?Dump@CObject@@UBEXAAVCDumpContext@@@Z
CONST	ENDS
;	COMDAT ??_R1A@?0A@EA@CRgn@@8
rdata$r	SEGMENT
??_R1A@?0A@EA@CRgn@@8 DD FLAT:??_R0?AVCRgn@@@8		; CRgn::`RTTI Base Class Descriptor at (0,-1,0,64)'
	DD	02H
	DD	00H
	DD	0ffffffffH
	DD	00H
	DD	040H
	DD	FLAT:??_R3CRgn@@8
rdata$r	ENDS
;	COMDAT ??_R2CRgn@@8
rdata$r	SEGMENT
??_R2CRgn@@8 DD	FLAT:??_R1A@?0A@EA@CRgn@@8		; CRgn::`RTTI Base Class Array'
	DD	FLAT:??_R1A@?0A@EA@CGdiObject@@8
	DD	FLAT:??_R1A@?0A@EA@CObject@@8
rdata$r	ENDS
;	COMDAT ??_R3CRgn@@8
rdata$r	SEGMENT
??_R3CRgn@@8 DD	00H					; CRgn::`RTTI Class Hierarchy Descriptor'
	DD	00H
	DD	03H
	DD	FLAT:??_R2CRgn@@8
rdata$r	ENDS
;	COMDAT ??_R0?AVCRgn@@@8
data$rs	SEGMENT
??_R0?AVCRgn@@@8 DD FLAT:??_7type_info@@6B@		; CRgn `RTTI Type Descriptor'
	DD	00H
	DB	'.?AVCRgn@@', 00H
data$rs	ENDS
;	COMDAT ??_R4CRgn@@6B@
rdata$r	SEGMENT
??_R4CRgn@@6B@ DD 00H					; CRgn::`RTTI Complete Object Locator'
	DD	00H
	DD	00H
	DD	FLAT:??_R0?AVCRgn@@@8
	DD	FLAT:??_R3CRgn@@8
rdata$r	ENDS
;	COMDAT ??_R1A@?0A@EA@CFont@@8
rdata$r	SEGMENT
??_R1A@?0A@EA@CFont@@8 DD FLAT:??_R0?AVCFont@@@8	; CFont::`RTTI Base Class Descriptor at (0,-1,0,64)'
	DD	02H
	DD	00H
	DD	0ffffffffH
	DD	00H
	DD	040H
	DD	FLAT:??_R3CFont@@8
rdata$r	ENDS
;	COMDAT ??_R2CFont@@8
rdata$r	SEGMENT
??_R2CFont@@8 DD FLAT:??_R1A@?0A@EA@CFont@@8		; CFont::`RTTI Base Class Array'
	DD	FLAT:??_R1A@?0A@EA@CGdiObject@@8
	DD	FLAT:??_R1A@?0A@EA@CObject@@8
rdata$r	ENDS
;	COMDAT ??_R3CFont@@8
rdata$r	SEGMENT
??_R3CFont@@8 DD 00H					; CFont::`RTTI Class Hierarchy Descriptor'
	DD	00H
	DD	03H
	DD	FLAT:??_R2CFont@@8
rdata$r	ENDS
;	COMDAT ??_R0?AVCFont@@@8
data$rs	SEGMENT
??_R0?AVCFont@@@8 DD FLAT:??_7type_info@@6B@		; CFont `RTTI Type Descriptor'
	DD	00H
	DB	'.?AVCFont@@', 00H
data$rs	ENDS
;	COMDAT ??_R4CFont@@6B@
rdata$r	SEGMENT
??_R4CFont@@6B@ DD 00H					; CFont::`RTTI Complete Object Locator'
	DD	00H
	DD	00H
	DD	FLAT:??_R0?AVCFont@@@8
	DD	FLAT:??_R3CFont@@8
rdata$r	ENDS
;	COMDAT ??_R1A@?0A@EA@CPen@@8
rdata$r	SEGMENT
??_R1A@?0A@EA@CPen@@8 DD FLAT:??_R0?AVCPen@@@8		; CPen::`RTTI Base Class Descriptor at (0,-1,0,64)'
	DD	02H
	DD	00H
	DD	0ffffffffH
	DD	00H
	DD	040H
	DD	FLAT:??_R3CPen@@8
rdata$r	ENDS
;	COMDAT ??_R2CPen@@8
rdata$r	SEGMENT
??_R2CPen@@8 DD	FLAT:??_R1A@?0A@EA@CPen@@8		; CPen::`RTTI Base Class Array'
	DD	FLAT:??_R1A@?0A@EA@CGdiObject@@8
	DD	FLAT:??_R1A@?0A@EA@CObject@@8
rdata$r	ENDS
;	COMDAT ??_R3CPen@@8
rdata$r	SEGMENT
??_R3CPen@@8 DD	00H					; CPen::`RTTI Class Hierarchy Descriptor'
	DD	00H
	DD	03H
	DD	FLAT:??_R2CPen@@8
rdata$r	ENDS
;	COMDAT ??_R0?AVCPen@@@8
data$rs	SEGMENT
??_R0?AVCPen@@@8 DD FLAT:??_7type_info@@6B@		; CPen `RTTI Type Descriptor'
	DD	00H
	DB	'.?AVCPen@@', 00H
data$rs	ENDS
;	COMDAT ??_R4CPen@@6B@
rdata$r	SEGMENT
??_R4CPen@@6B@ DD 00H					; CPen::`RTTI Complete Object Locator'
	DD	00H
	DD	00H
	DD	FLAT:??_R0?AVCPen@@@8
	DD	FLAT:??_R3CPen@@8
rdata$r	ENDS
;	COMDAT ??_R1A@?0A@EA@CGdiObject@@8
rdata$r	SEGMENT
??_R1A@?0A@EA@CGdiObject@@8 DD FLAT:??_R0?AVCGdiObject@@@8 ; CGdiObject::`RTTI Base Class Descriptor at (0,-1,0,64)'
	DD	01H
	DD	00H
	DD	0ffffffffH
	DD	00H
	DD	040H
	DD	FLAT:??_R3CGdiObject@@8
rdata$r	ENDS
;	COMDAT ??_R2CGdiObject@@8
rdata$r	SEGMENT
??_R2CGdiObject@@8 DD FLAT:??_R1A@?0A@EA@CGdiObject@@8	; CGdiObject::`RTTI Base Class Array'
	DD	FLAT:??_R1A@?0A@EA@CObject@@8
rdata$r	ENDS
;	COMDAT ??_R3CGdiObject@@8
rdata$r	SEGMENT
??_R3CGdiObject@@8 DD 00H				; CGdiObject::`RTTI Class Hierarchy Descriptor'
	DD	00H
	DD	02H
	DD	FLAT:??_R2CGdiObject@@8
rdata$r	ENDS
;	COMDAT ??_R0?AVCGdiObject@@@8
data$rs	SEGMENT
??_R0?AVCGdiObject@@@8 DD FLAT:??_7type_info@@6B@	; CGdiObject `RTTI Type Descriptor'
	DD	00H
	DB	'.?AVCGdiObject@@', 00H
data$rs	ENDS
;	COMDAT ??_R4CGdiObject@@6B@
rdata$r	SEGMENT
??_R4CGdiObject@@6B@ DD 00H				; CGdiObject::`RTTI Complete Object Locator'
	DD	00H
	DD	00H
	DD	FLAT:??_R0?AVCGdiObject@@@8
	DD	FLAT:??_R3CGdiObject@@8
rdata$r	ENDS
;	COMDAT ??_R1A@?0A@EA@CObject@@8
rdata$r	SEGMENT
??_R1A@?0A@EA@CObject@@8 DD FLAT:??_R0?AVCObject@@@8	; CObject::`RTTI Base Class Descriptor at (0,-1,0,64)'
	DD	00H
	DD	00H
	DD	0ffffffffH
	DD	00H
	DD	040H
	DD	FLAT:??_R3CObject@@8
rdata$r	ENDS
;	COMDAT ??_R2CObject@@8
rdata$r	SEGMENT
??_R2CObject@@8 DD FLAT:??_R1A@?0A@EA@CObject@@8	; CObject::`RTTI Base Class Array'
rdata$r	ENDS
;	COMDAT ??_R3CObject@@8
rdata$r	SEGMENT
??_R3CObject@@8 DD 00H					; CObject::`RTTI Class Hierarchy Descriptor'
	DD	00H
	DD	01H
	DD	FLAT:??_R2CObject@@8
rdata$r	ENDS
;	COMDAT ??_R0?AVCObject@@@8
data$rs	SEGMENT
??_R0?AVCObject@@@8 DD FLAT:??_7type_info@@6B@		; CObject `RTTI Type Descriptor'
	DD	00H
	DB	'.?AVCObject@@', 00H
data$rs	ENDS
;	COMDAT ??_C@_0N@OMEMOKLE@?$CFTs?5?$CI?$CFTs?3?$CFd?$CJ@
CONST	SEGMENT
??_C@_0N@OMEMOKLE@?$CFTs?5?$CI?$CFTs?3?$CFd?$CJ@ DB '%Ts (%Ts:%d)', 00H ; `string'
CONST	ENDS
;	COMDAT ??_C@_0BB@HBOOMJBF@?$CFTs?5?$CI?$CFTs?3?$CFd?$CJ?6?$CFTs@
CONST	SEGMENT
??_C@_0BB@HBOOMJBF@?$CFTs?5?$CI?$CFTs?3?$CFd?$CJ?6?$CFTs@ DB '%Ts (%Ts:%d'
	DB	')', 0aH, '%Ts', 00H				; `string'
CONST	ENDS
;	COMDAT ??_C@_0BP@OIEOKIDM@Exception?5thrown?5in?5destructor@
CONST	SEGMENT
??_C@_0BP@OIEOKIDM@Exception?5thrown?5in?5destructor@ DB 'Exception throw'
	DB	'n in destructor', 00H			; `string'
CONST	ENDS
;	COMDAT ??_C@_0HD@JJCHHHNK@C?3?2Program?5Files?5?$CIx86?$CJ?2Microsof@
CONST	SEGMENT
??_C@_0HD@JJCHHHNK@C?3?2Program?5Files?5?$CIx86?$CJ?2Microsof@ DB 'C:\Pro'
	DB	'gram Files (x86)\Microsoft Visual Studio\2019\Community\VC\To'
	DB	'ols\MSVC\14.29.30133\atlmfc\include\afxwin1.inl', 00H ; `string'
CONST	ENDS
;	COMDAT ??_7CRgn@@6B@
CONST	SEGMENT
??_7CRgn@@6B@ DD FLAT:??_R4CRgn@@6B@			; CRgn::`vftable'
	DD	FLAT:?GetRuntimeClass@CRgn@@UBEPAUCRuntimeClass@@XZ
	DD	FLAT:??_ECRgn@@UAEPAXI@Z
	DD	FLAT:?Serialize@CObject@@UAEXAAVCArchive@@@Z
	DD	FLAT:?AssertValid@CObject@@UBEXXZ
	DD	FLAT:?Dump@CObject@@UBEXAAVCDumpContext@@@Z
CONST	ENDS
;	COMDAT ??_7CFont@@6B@
CONST	SEGMENT
??_7CFont@@6B@ DD FLAT:??_R4CFont@@6B@			; CFont::`vftable'
	DD	FLAT:?GetRuntimeClass@CFont@@UBEPAUCRuntimeClass@@XZ
	DD	FLAT:??_ECFont@@UAEPAXI@Z
	DD	FLAT:?Serialize@CObject@@UAEXAAVCArchive@@@Z
	DD	FLAT:?AssertValid@CObject@@UBEXXZ
	DD	FLAT:?Dump@CObject@@UBEXAAVCDumpContext@@@Z
CONST	ENDS
;	COMDAT ??_7CPen@@6B@
CONST	SEGMENT
??_7CPen@@6B@ DD FLAT:??_R4CPen@@6B@			; CPen::`vftable'
	DD	FLAT:?GetRuntimeClass@CPen@@UBEPAUCRuntimeClass@@XZ
	DD	FLAT:??_ECPen@@UAEPAXI@Z
	DD	FLAT:?Serialize@CObject@@UAEXAAVCArchive@@@Z
	DD	FLAT:?AssertValid@CObject@@UBEXXZ
	DD	FLAT:?Dump@CObject@@UBEXAAVCDumpContext@@@Z
CONST	ENDS
;	COMDAT ??_7CGdiObject@@6B@
CONST	SEGMENT
??_7CGdiObject@@6B@ DD FLAT:??_R4CGdiObject@@6B@	; CGdiObject::`vftable'
	DD	FLAT:?GetRuntimeClass@CGdiObject@@UBEPAUCRuntimeClass@@XZ
	DD	FLAT:??_ECGdiObject@@UAEPAXI@Z
	DD	FLAT:?Serialize@CObject@@UAEXAAVCArchive@@@Z
	DD	FLAT:?AssertValid@CObject@@UBEXXZ
	DD	FLAT:?Dump@CObject@@UBEXAAVCDumpContext@@@Z
CONST	ENDS
;	COMDAT ??_C@_00CNPNBAHC@@
CONST	SEGMENT
??_C@_00CNPNBAHC@@ DB 00H				; `string'
CONST	ENDS
;	COMDAT ??_R0PAVCException@@@8
data$r	SEGMENT
??_R0PAVCException@@@8 DD FLAT:??_7type_info@@6B@	; CException * `RTTI Type Descriptor'
	DD	00H
	DB	'.PAVCException@@', 00H
data$r	ENDS
;	COMDAT xdata$x
xdata$x	SEGMENT
__ehfuncinfo$??1CMultiLanguageResourceSetter@@QAE@XZ DD 019930522H
	DD	00H
	DD	00H
	DD	2 DUP(00H)
	DD	2 DUP(00H)
	DD	00H
	DD	05H
xdata$x	ENDS
;	COMDAT xdata$x
xdata$x	SEGMENT
__ehfuncinfo$?DrawCandlePattern@CPatternMaker@@QAEXPAVCDC@@HHNVCRect@@@Z DD 019930522H
	DD	0dH
	DD	FLAT:__unwindtable$?DrawCandlePattern@CPatternMaker@@QAEXPAVCDC@@HHNVCRect@@@Z
	DD	2 DUP(00H)
	DD	2 DUP(00H)
	DD	00H
	DD	01H
__unwindtable$?DrawCandlePattern@CPatternMaker@@QAEXPAVCDC@@HHNVCRect@@@Z DD 0ffffffffH
	DD	FLAT:__unwindfunclet$?DrawCandlePattern@CPatternMaker@@QAEXPAVCDC@@HHNVCRect@@@Z$0
	DD	00H
	DD	FLAT:__unwindfunclet$?DrawCandlePattern@CPatternMaker@@QAEXPAVCDC@@HHNVCRect@@@Z$1
	DD	01H
	DD	FLAT:__unwindfunclet$?DrawCandlePattern@CPatternMaker@@QAEXPAVCDC@@HHNVCRect@@@Z$2
	DD	01H
	DD	FLAT:__unwindfunclet$?DrawCandlePattern@CPatternMaker@@QAEXPAVCDC@@HHNVCRect@@@Z$3
	DD	03H
	DD	FLAT:__unwindfunclet$?DrawCandlePattern@CPatternMaker@@QAEXPAVCDC@@HHNVCRect@@@Z$4
	DD	04H
	DD	FLAT:__unwindfunclet$?DrawCandlePattern@CPatternMaker@@QAEXPAVCDC@@HHNVCRect@@@Z$12
	DD	04H
	DD	FLAT:__unwindfunclet$?DrawCandlePattern@CPatternMaker@@QAEXPAVCDC@@HHNVCRect@@@Z$13
	DD	04H
	DD	FLAT:__unwindfunclet$?DrawCandlePattern@CPatternMaker@@QAEXPAVCDC@@HHNVCRect@@@Z$14
	DD	04H
	DD	FLAT:__unwindfunclet$?DrawCandlePattern@CPatternMaker@@QAEXPAVCDC@@HHNVCRect@@@Z$15
	DD	04H
	DD	FLAT:__unwindfunclet$?DrawCandlePattern@CPatternMaker@@QAEXPAVCDC@@HHNVCRect@@@Z$16
	DD	04H
	DD	FLAT:__unwindfunclet$?DrawCandlePattern@CPatternMaker@@QAEXPAVCDC@@HHNVCRect@@@Z$17
	DD	04H
	DD	FLAT:__unwindfunclet$?DrawCandlePattern@CPatternMaker@@QAEXPAVCDC@@HHNVCRect@@@Z$11
	DD	01H
	DD	FLAT:___std_terminate
xdata$x	ENDS
;	COMDAT xdata$x
xdata$x	SEGMENT
__ehfuncinfo$?DrawAutoPattern@CPatternMaker@@QAEXPAVCDC@@HHNVCRect@@@Z DD 019930522H
	DD	05H
	DD	FLAT:__unwindtable$?DrawAutoPattern@CPatternMaker@@QAEXPAVCDC@@HHNVCRect@@@Z
	DD	2 DUP(00H)
	DD	2 DUP(00H)
	DD	00H
	DD	01H
__unwindtable$?DrawAutoPattern@CPatternMaker@@QAEXPAVCDC@@HHNVCRect@@@Z DD 0ffffffffH
	DD	FLAT:__unwindfunclet$?DrawAutoPattern@CPatternMaker@@QAEXPAVCDC@@HHNVCRect@@@Z$0
	DD	00H
	DD	FLAT:__unwindfunclet$?DrawAutoPattern@CPatternMaker@@QAEXPAVCDC@@HHNVCRect@@@Z$1
	DD	00H
	DD	FLAT:__unwindfunclet$?DrawAutoPattern@CPatternMaker@@QAEXPAVCDC@@HHNVCRect@@@Z$2
	DD	00H
	DD	FLAT:__unwindfunclet$?DrawAutoPattern@CPatternMaker@@QAEXPAVCDC@@HHNVCRect@@@Z$3
	DD	03H
	DD	FLAT:__unwindfunclet$?DrawAutoPattern@CPatternMaker@@QAEXPAVCDC@@HHNVCRect@@@Z$4
xdata$x	ENDS
;	COMDAT xdata$x
xdata$x	SEGMENT
__unwindtable$?DrawAutoTrendLine@CPatternMaker@@QAEXPAVCDC@@HHNVCRect@@@Z DD 0ffffffffH
	DD	FLAT:__unwindfunclet$?DrawAutoTrendLine@CPatternMaker@@QAEXPAVCDC@@HHNVCRect@@@Z$0
	DD	0ffffffffH
	DD	FLAT:__unwindfunclet$?DrawAutoTrendLine@CPatternMaker@@QAEXPAVCDC@@HHNVCRect@@@Z$1
__ehfuncinfo$?DrawAutoTrendLine@CPatternMaker@@QAEXPAVCDC@@HHNVCRect@@@Z DD 019930522H
	DD	02H
	DD	FLAT:__unwindtable$?DrawAutoTrendLine@CPatternMaker@@QAEXPAVCDC@@HHNVCRect@@@Z
	DD	2 DUP(00H)
	DD	2 DUP(00H)
	DD	00H
	DD	01H
xdata$x	ENDS
;	COMDAT xdata$x
xdata$x	SEGMENT
__unwindtable$?DrawWaveLine@CPatternMaker@@QAEXPAVCDC@@HHNVCRect@@@Z DD 0ffffffffH
	DD	FLAT:__unwindfunclet$?DrawWaveLine@CPatternMaker@@QAEXPAVCDC@@HHNVCRect@@@Z$0
	DD	0ffffffffH
	DD	FLAT:__unwindfunclet$?DrawWaveLine@CPatternMaker@@QAEXPAVCDC@@HHNVCRect@@@Z$1
__ehfuncinfo$?DrawWaveLine@CPatternMaker@@QAEXPAVCDC@@HHNVCRect@@@Z DD 019930522H
	DD	02H
	DD	FLAT:__unwindtable$?DrawWaveLine@CPatternMaker@@QAEXPAVCDC@@HHNVCRect@@@Z
	DD	2 DUP(00H)
	DD	2 DUP(00H)
	DD	00H
	DD	01H
xdata$x	ENDS
;	COMDAT xdata$x
xdata$x	SEGMENT
__unwindtable$?SetToolTipText@CPatternMaker@@QAE?AVCPoint@@V?$CStringT@DV?$StrTraitMFC_DLL@DV?$ChTraitsCRT@D@ATL@@@@@ATL@@VCRect@@@Z DD 0ffffffffH
	DD	FLAT:__unwindfunclet$?SetToolTipText@CPatternMaker@@QAE?AVCPoint@@V?$CStringT@DV?$StrTraitMFC_DLL@DV?$ChTraitsCRT@D@ATL@@@@@ATL@@VCRect@@@Z$0
__ehfuncinfo$?SetToolTipText@CPatternMaker@@QAE?AVCPoint@@V?$CStringT@DV?$StrTraitMFC_DLL@DV?$ChTraitsCRT@D@ATL@@@@@ATL@@VCRect@@@Z DD 019930522H
	DD	01H
	DD	FLAT:__unwindtable$?SetToolTipText@CPatternMaker@@QAE?AVCPoint@@V?$CStringT@DV?$StrTraitMFC_DLL@DV?$ChTraitsCRT@D@ATL@@@@@ATL@@VCRect@@@Z
	DD	2 DUP(00H)
	DD	2 DUP(00H)
	DD	00H
	DD	01H
xdata$x	ENDS
;	COMDAT xdata$x
xdata$x	SEGMENT
__unwindtable$?ResetScrollPosition@CPatternMaker@@QAEXH@Z DD 0ffffffffH
	DD	FLAT:__unwindfunclet$?ResetScrollPosition@CPatternMaker@@QAEXH@Z$0
	DD	0ffffffffH
	DD	FLAT:___std_terminate
__ehfuncinfo$?ResetScrollPosition@CPatternMaker@@QAEXH@Z DD 019930522H
	DD	02H
	DD	FLAT:__unwindtable$?ResetScrollPosition@CPatternMaker@@QAEXH@Z
	DD	2 DUP(00H)
	DD	2 DUP(00H)
	DD	00H
	DD	01H
xdata$x	ENDS
;	COMDAT xdata$x
xdata$x	SEGMENT
__unwindtable$?SetSelectedCandlePatternData@CPatternMaker@@QAEXNV?$CStringT@DV?$StrTraitMFC_DLL@DV?$ChTraitsCRT@D@ATL@@@@@ATL@@@Z DD 0ffffffffH
	DD	FLAT:__unwindfunclet$?SetSelectedCandlePatternData@CPatternMaker@@QAEXNV?$CStringT@DV?$StrTraitMFC_DLL@DV?$ChTraitsCRT@D@ATL@@@@@ATL@@@Z$0
	DD	00H
	DD	FLAT:__unwindfunclet$?SetSelectedCandlePatternData@CPatternMaker@@QAEXNV?$CStringT@DV?$StrTraitMFC_DLL@DV?$ChTraitsCRT@D@ATL@@@@@ATL@@@Z$1
__ehfuncinfo$?SetSelectedCandlePatternData@CPatternMaker@@QAEXNV?$CStringT@DV?$StrTraitMFC_DLL@DV?$ChTraitsCRT@D@ATL@@@@@ATL@@@Z DD 019930522H
	DD	02H
	DD	FLAT:__unwindtable$?SetSelectedCandlePatternData@CPatternMaker@@QAEXNV?$CStringT@DV?$StrTraitMFC_DLL@DV?$ChTraitsCRT@D@ATL@@@@@ATL@@@Z
	DD	2 DUP(00H)
	DD	2 DUP(00H)
	DD	00H
	DD	01H
xdata$x	ENDS
;	COMDAT xdata$x
xdata$x	SEGMENT
__unwindtable$?InitSelectedCandlePatternData@CPatternMaker@@QAEXXZ DD 0ffffffffH
	DD	FLAT:__unwindfunclet$?InitSelectedCandlePatternData@CPatternMaker@@QAEXXZ$0
__ehfuncinfo$?InitSelectedCandlePatternData@CPatternMaker@@QAEXXZ DD 019930522H
	DD	01H
	DD	FLAT:__unwindtable$?InitSelectedCandlePatternData@CPatternMaker@@QAEXXZ
	DD	2 DUP(00H)
	DD	2 DUP(00H)
	DD	00H
	DD	01H
xdata$x	ENDS
;	COMDAT xdata$x
xdata$x	SEGMENT
__unwindtable$?CreateDlgAnalysis@CPatternMaker@@QAEXPAUIChartOCX423611@@HH@Z DD 0ffffffffH
	DD	FLAT:__unwindfunclet$?CreateDlgAnalysis@CPatternMaker@@QAEXPAUIChartOCX423611@@HH@Z$0
	DD	00H
	DD	FLAT:__unwindfunclet$?CreateDlgAnalysis@CPatternMaker@@QAEXPAUIChartOCX423611@@HH@Z$1
	DD	0ffffffffH
	DD	FLAT:___std_terminate
__ehfuncinfo$?CreateDlgAnalysis@CPatternMaker@@QAEXPAUIChartOCX423611@@HH@Z DD 019930522H
	DD	03H
	DD	FLAT:__unwindtable$?CreateDlgAnalysis@CPatternMaker@@QAEXPAUIChartOCX423611@@HH@Z
	DD	2 DUP(00H)
	DD	2 DUP(00H)
	DD	00H
	DD	01H
xdata$x	ENDS
;	COMDAT xdata$x
xdata$x	SEGMENT
__unwindtable$?FindPtn_OnLBtnDownPos@CPatternMaker@@QAEHIAAVCPoint@@H@Z DD 0ffffffffH
	DD	FLAT:__unwindfunclet$?FindPtn_OnLBtnDownPos@CPatternMaker@@QAEHIAAVCPoint@@H@Z$0
	DD	00H
	DD	FLAT:__unwindfunclet$?FindPtn_OnLBtnDownPos@CPatternMaker@@QAEHIAAVCPoint@@H@Z$1
__ehfuncinfo$?FindPtn_OnLBtnDownPos@CPatternMaker@@QAEHIAAVCPoint@@H@Z DD 019930522H
	DD	02H
	DD	FLAT:__unwindtable$?FindPtn_OnLBtnDownPos@CPatternMaker@@QAEHIAAVCPoint@@H@Z
	DD	2 DUP(00H)
	DD	2 DUP(00H)
	DD	00H
	DD	01H
xdata$x	ENDS
;	COMDAT xdata$x
xdata$x	SEGMENT
__ehfuncinfo$?OnLButtonUp@CPatternMaker@@QAEHIAAVCPoint@@@Z DD 019930522H
	DD	07H
	DD	FLAT:__unwindtable$?OnLButtonUp@CPatternMaker@@QAEHIAAVCPoint@@@Z
	DD	2 DUP(00H)
	DD	2 DUP(00H)
	DD	00H
	DD	01H
__unwindtable$?OnLButtonUp@CPatternMaker@@QAEHIAAVCPoint@@@Z DD 0ffffffffH
	DD	FLAT:__unwindfunclet$?OnLButtonUp@CPatternMaker@@QAEHIAAVCPoint@@@Z$0
	DD	00H
	DD	FLAT:__unwindfunclet$?OnLButtonUp@CPatternMaker@@QAEHIAAVCPoint@@@Z$1
	DD	01H
	DD	FLAT:__unwindfunclet$?OnLButtonUp@CPatternMaker@@QAEHIAAVCPoint@@@Z$2
	DD	01H
	DD	FLAT:__unwindfunclet$?OnLButtonUp@CPatternMaker@@QAEHIAAVCPoint@@@Z$3
	DD	01H
	DD	FLAT:__unwindfunclet$?OnLButtonUp@CPatternMaker@@QAEHIAAVCPoint@@@Z$4
	DD	04H
	DD	FLAT:__unwindfunclet$?OnLButtonUp@CPatternMaker@@QAEHIAAVCPoint@@@Z$5
	DD	0ffffffffH
	DD	FLAT:___std_terminate
xdata$x	ENDS
;	COMDAT xdata$x
xdata$x	SEGMENT
__catchsym$?GetAllData_AboutPattern@CPatternMaker@@QAEXXZ$11 DD 00H
	DD	FLAT:??_R0PAVCPatternMaker@@@8
	DD	00H
	DD	FLAT:__catch$?GetAllData_AboutPattern@CPatternMaker@@QAEXXZ$0
__tryblocktable$?GetAllData_AboutPattern@CPatternMaker@@QAEXXZ DD 09H
	DD	09H
	DD	0aH
	DD	01H
	DD	FLAT:__catchsym$?GetAllData_AboutPattern@CPatternMaker@@QAEXXZ$11
__ehfuncinfo$?GetAllData_AboutPattern@CPatternMaker@@QAEXXZ DD 019930522H
	DD	0bH
	DD	FLAT:__unwindtable$?GetAllData_AboutPattern@CPatternMaker@@QAEXXZ
	DD	01H
	DD	FLAT:__tryblocktable$?GetAllData_AboutPattern@CPatternMaker@@QAEXXZ
	DD	2 DUP(00H)
	DD	00H
	DD	01H
__unwindtable$?GetAllData_AboutPattern@CPatternMaker@@QAEXXZ DD 0ffffffffH
	DD	FLAT:__unwindfunclet$?GetAllData_AboutPattern@CPatternMaker@@QAEXXZ$2
	DD	0ffffffffH
	DD	FLAT:__unwindfunclet$?GetAllData_AboutPattern@CPatternMaker@@QAEXXZ$3
	DD	0ffffffffH
	DD	FLAT:__unwindfunclet$?GetAllData_AboutPattern@CPatternMaker@@QAEXXZ$4
	DD	0ffffffffH
	DD	FLAT:__unwindfunclet$?GetAllData_AboutPattern@CPatternMaker@@QAEXXZ$5
	DD	0ffffffffH
	DD	FLAT:__unwindfunclet$?GetAllData_AboutPattern@CPatternMaker@@QAEXXZ$6
	DD	0ffffffffH
	DD	FLAT:__unwindfunclet$?GetAllData_AboutPattern@CPatternMaker@@QAEXXZ$7
	DD	0ffffffffH
	DD	FLAT:__unwindfunclet$?GetAllData_AboutPattern@CPatternMaker@@QAEXXZ$8
	DD	0ffffffffH
	DD	FLAT:__unwindfunclet$?GetAllData_AboutPattern@CPatternMaker@@QAEXXZ$9
	DD	0ffffffffH
	DD	FLAT:__unwindfunclet$?GetAllData_AboutPattern@CPatternMaker@@QAEXXZ$10
	DD	0ffffffffH
	DD	00H
	DD	0ffffffffH
	DD	00H
xdata$x	ENDS
;	COMDAT xdata$x
xdata$x	SEGMENT
__catchsym$?OnDraw@CPatternMaker@@QAEXPAVCDC@@@Z$4 DD 00H
	DD	FLAT:??_R0PAVCPatternMaker@@@8
	DD	00H
	DD	FLAT:__catch$?OnDraw@CPatternMaker@@QAEXPAVCDC@@@Z$0
__tryblocktable$?OnDraw@CPatternMaker@@QAEXPAVCDC@@@Z DD 00H
	DD	01H
	DD	02H
	DD	01H
	DD	FLAT:__catchsym$?OnDraw@CPatternMaker@@QAEXPAVCDC@@@Z$4
__unwindtable$?OnDraw@CPatternMaker@@QAEXPAVCDC@@@Z DD 0ffffffffH
	DD	00H
	DD	00H
	DD	FLAT:__unwindfunclet$?OnDraw@CPatternMaker@@QAEXPAVCDC@@@Z$2
	DD	0ffffffffH
	DD	00H
__ehfuncinfo$?OnDraw@CPatternMaker@@QAEXPAVCDC@@@Z DD 019930522H
	DD	03H
	DD	FLAT:__unwindtable$?OnDraw@CPatternMaker@@QAEXPAVCDC@@@Z
	DD	01H
	DD	FLAT:__tryblocktable$?OnDraw@CPatternMaker@@QAEXPAVCDC@@@Z
	DD	2 DUP(00H)
	DD	00H
	DD	01H
xdata$x	ENDS
;	COMDAT xdata$x
xdata$x	SEGMENT
__unwindtable$?SetGSharedData@CPatternMaker@@QAEXV?$CStringT@DV?$StrTraitMFC_DLL@DV?$ChTraitsCRT@D@ATL@@@@@ATL@@0@Z DD 0ffffffffH
	DD	FLAT:__unwindfunclet$?SetGSharedData@CPatternMaker@@QAEXV?$CStringT@DV?$StrTraitMFC_DLL@DV?$ChTraitsCRT@D@ATL@@@@@ATL@@0@Z$0
	DD	00H
	DD	FLAT:__unwindfunclet$?SetGSharedData@CPatternMaker@@QAEXV?$CStringT@DV?$StrTraitMFC_DLL@DV?$ChTraitsCRT@D@ATL@@@@@ATL@@0@Z$1
__ehfuncinfo$?SetGSharedData@CPatternMaker@@QAEXV?$CStringT@DV?$StrTraitMFC_DLL@DV?$ChTraitsCRT@D@ATL@@@@@ATL@@0@Z DD 019930522H
	DD	02H
	DD	FLAT:__unwindtable$?SetGSharedData@CPatternMaker@@QAEXV?$CStringT@DV?$StrTraitMFC_DLL@DV?$ChTraitsCRT@D@ATL@@@@@ATL@@0@Z
	DD	2 DUP(00H)
	DD	2 DUP(00H)
	DD	00H
	DD	01H
xdata$x	ENDS
;	COMDAT xdata$x
xdata$x	SEGMENT
__ehfuncinfo$??1CPatternMaker@@UAE@XZ DD 019930522H
	DD	00H
	DD	00H
	DD	2 DUP(00H)
	DD	2 DUP(00H)
	DD	00H
	DD	05H
xdata$x	ENDS
;	COMDAT xdata$x
xdata$x	SEGMENT
__ehfuncinfo$??0CPatternMaker@@QAE@XZ DD 019930522H
	DD	017H
	DD	FLAT:__unwindtable$??0CPatternMaker@@QAE@XZ
	DD	2 DUP(00H)
	DD	2 DUP(00H)
	DD	00H
	DD	01H
__unwindtable$??0CPatternMaker@@QAE@XZ DD 0ffffffffH
	DD	FLAT:__unwindfunclet$??0CPatternMaker@@QAE@XZ$0
	DD	00H
	DD	FLAT:__unwindfunclet$??0CPatternMaker@@QAE@XZ$1
	DD	01H
	DD	FLAT:__unwindfunclet$??0CPatternMaker@@QAE@XZ$2
	DD	02H
	DD	FLAT:__unwindfunclet$??0CPatternMaker@@QAE@XZ$3
	DD	03H
	DD	FLAT:__unwindfunclet$??0CPatternMaker@@QAE@XZ$4
	DD	04H
	DD	FLAT:__unwindfunclet$??0CPatternMaker@@QAE@XZ$5
	DD	05H
	DD	FLAT:__unwindfunclet$??0CPatternMaker@@QAE@XZ$6
	DD	06H
	DD	FLAT:__unwindfunclet$??0CPatternMaker@@QAE@XZ$7
	DD	07H
	DD	FLAT:__unwindfunclet$??0CPatternMaker@@QAE@XZ$8
	DD	08H
	DD	FLAT:__unwindfunclet$??0CPatternMaker@@QAE@XZ$9
	DD	09H
	DD	FLAT:__unwindfunclet$??0CPatternMaker@@QAE@XZ$10
	DD	0aH
	DD	FLAT:__unwindfunclet$??0CPatternMaker@@QAE@XZ$11
	DD	0bH
	DD	FLAT:__unwindfunclet$??0CPatternMaker@@QAE@XZ$12
	DD	0cH
	DD	FLAT:__unwindfunclet$??0CPatternMaker@@QAE@XZ$13
	DD	0dH
	DD	FLAT:__unwindfunclet$??0CPatternMaker@@QAE@XZ$14
	DD	0eH
	DD	FLAT:__unwindfunclet$??0CPatternMaker@@QAE@XZ$15
	DD	0fH
	DD	FLAT:__unwindfunclet$??0CPatternMaker@@QAE@XZ$16
	DD	010H
	DD	FLAT:__unwindfunclet$??0CPatternMaker@@QAE@XZ$17
	DD	011H
	DD	FLAT:__unwindfunclet$??0CPatternMaker@@QAE@XZ$18
	DD	012H
	DD	FLAT:__unwindfunclet$??0CPatternMaker@@QAE@XZ$19
	DD	013H
	DD	FLAT:__unwindfunclet$??0CPatternMaker@@QAE@XZ$20
	DD	014H
	DD	FLAT:__unwindfunclet$??0CPatternMaker@@QAE@XZ$21
	DD	015H
	DD	FLAT:__unwindfunclet$??0CPatternMaker@@QAE@XZ$22
xdata$x	ENDS
;	COMDAT xdata$x
xdata$x	SEGMENT
__catchsym$??1CGdiObject@@UAE@XZ$3 DD 00H
	DD	FLAT:??_R0PAVCException@@@8
	DD	0fffffde4H
	DD	FLAT:__catch$??1CGdiObject@@UAE@XZ$0
__tryblocktable$??1CGdiObject@@UAE@XZ DD 00H
	DD	00H
	DD	02H
	DD	01H
	DD	FLAT:__catchsym$??1CGdiObject@@UAE@XZ$3
__unwindtable$??1CGdiObject@@UAE@XZ DD 0ffffffffH
	DD	00H
	DD	0ffffffffH
	DD	00H
	DD	01H
	DD	FLAT:__unwindfunclet$??1CGdiObject@@UAE@XZ$2
__ehfuncinfo$??1CGdiObject@@UAE@XZ DD 019930522H
	DD	03H
	DD	FLAT:__unwindtable$??1CGdiObject@@UAE@XZ
	DD	01H
	DD	FLAT:__tryblocktable$??1CGdiObject@@UAE@XZ
	DD	2 DUP(00H)
	DD	00H
	DD	05H
xdata$x	ENDS
;	COMDAT xdata$x
xdata$x	SEGMENT
__unwindtable$??HATL@@YA?AV?$CStringT@DV?$StrTraitMFC_DLL@DV?$ChTraitsCRT@D@ATL@@@@@0@ABV10@0@Z DD 0ffffffffH
	DD	FLAT:__unwindfunclet$??HATL@@YA?AV?$CStringT@DV?$StrTraitMFC_DLL@DV?$ChTraitsCRT@D@ATL@@@@@0@ABV10@0@Z$0
__ehfuncinfo$??HATL@@YA?AV?$CStringT@DV?$StrTraitMFC_DLL@DV?$ChTraitsCRT@D@ATL@@@@@0@ABV10@0@Z DD 019930522H
	DD	01H
	DD	FLAT:__unwindtable$??HATL@@YA?AV?$CStringT@DV?$StrTraitMFC_DLL@DV?$ChTraitsCRT@D@ATL@@@@@0@ABV10@0@Z
	DD	2 DUP(00H)
	DD	2 DUP(00H)
	DD	00H
	DD	01H
xdata$x	ENDS
; Function compile flags: /Ogtp
; File C:\Program Files (x86)\Microsoft Visual Studio\2019\Community\VC\Tools\MSVC\14.29.30133\atlmfc\include\afxtempl.h
; File C:\Program Files (x86)\Microsoft Visual Studio\2019\Community\VC\Tools\MSVC\14.29.30133\atlmfc\include\afx.inl
; File C:\Program Files (x86)\Microsoft Visual Studio\2019\Community\VC\Tools\MSVC\14.29.30133\atlmfc\include\afxtempl.h
; File C:\Program Files (x86)\Microsoft Visual Studio\2019\Community\VC\Tools\MSVC\14.29.30133\atlmfc\include\afx.inl
; File C:\Program Files (x86)\Microsoft Visual Studio\2019\Community\VC\Tools\MSVC\14.29.30133\atlmfc\include\afxtempl.h
; File C:\Program Files (x86)\Microsoft Visual Studio\2019\Community\VC\Tools\MSVC\14.29.30133\atlmfc\include\afx.inl
; File C:\Program Files (x86)\Microsoft Visual Studio\2019\Community\VC\Tools\MSVC\14.29.30133\atlmfc\include\afxtempl.h
;	COMDAT ??$SerializeElements@PAVCCandlePatternPosInfo@@@@YGXAAVCArchive@@PAPAVCCandlePatternPosInfo@@H@Z
_TEXT	SEGMENT
_ar$ = 8						; size = 4
_pElements$ = 12					; size = 4
_nCount$ = 16						; size = 4
??$SerializeElements@PAVCCandlePatternPosInfo@@@@YGXAAVCArchive@@PAPAVCCandlePatternPosInfo@@H@Z PROC ; SerializeElements<CCandlePatternPosInfo *>, COMDAT

; 67   : {

  00000	55		 push	 ebp
  00001	8b ec		 mov	 ebp, esp

; 68   : 	ENSURE(nCount == 0 || pElements != NULL);

  00003	8b 4d 0c	 mov	 ecx, DWORD PTR _pElements$[ebp]
  00006	53		 push	 ebx
  00007	56		 push	 esi
  00008	8b 75 10	 mov	 esi, DWORD PTR _nCount$[ebp]
  0000b	57		 push	 edi
  0000c	85 f6		 test	 esi, esi
  0000e	74 08		 je	 SHORT $LN2@SerializeE
  00010	85 c9		 test	 ecx, ecx
  00012	0f 84 89 00 00
	00		 je	 $LN34@SerializeE
$LN2@SerializeE:
; File C:\Program Files (x86)\Microsoft Visual Studio\2019\Community\VC\Tools\MSVC\14.29.30133\atlmfc\include\afx.inl

; 212  : 	{ return (m_nMode & CArchive::load) == 0; }

  00018	8b 55 08	 mov	 edx, DWORD PTR _ar$[ebp]
  0001b	8b 42 18	 mov	 eax, DWORD PTR [edx+24]
  0001e	f7 d0		 not	 eax
  00020	a8 01		 test	 al, 1
; File C:\Program Files (x86)\Microsoft Visual Studio\2019\Community\VC\Tools\MSVC\14.29.30133\atlmfc\include\afxtempl.h

; 73   : 	if (ar.IsStoring())

  00022	74 3c		 je	 SHORT $LN10@SerializeE

; 74   : 	{
; 75   : 		TYPE* pData;
; 76   : 		UINT_PTR nElementsLeft;
; 77   : 
; 78   : 		nElementsLeft = nCount;
; 79   : 		pData = pElements;
; 80   : 		while( nElementsLeft > 0 )

  00024	85 f6		 test	 esi, esi
  00026	74 31		 je	 SHORT $LN8@SerializeE
  00028	0f 1f 84 00 00
	00 00 00	 npad	 8
$LL5@SerializeE:

; 81   : 		{
; 82   : 			UINT nElementsToWrite;
; 83   : 
; 84   : 			nElementsToWrite = UINT(__min(nElementsLeft, INT_MAX/sizeof(TYPE)));

  00030	bb ff ff ff 1f	 mov	 ebx, 536870911		; 1fffffffH
  00035	3b f3		 cmp	 esi, ebx
  00037	0f 42 de	 cmovb	 ebx, esi

; 85   : 			ar.Write(pData, nElementsToWrite*sizeof(TYPE));

  0003a	8d 3c 9d 00 00
	00 00		 lea	 edi, DWORD PTR [ebx*4]
  00041	57		 push	 edi
  00042	51		 push	 ecx
  00043	8b ca		 mov	 ecx, edx
  00045	e8 00 00 00 00	 call	 ?Write@CArchive@@QAEXPBXI@Z ; CArchive::Write

; 86   : 			nElementsLeft -= nElementsToWrite;
; 87   : 			pData += nElementsToWrite;

  0004a	8b 4d 0c	 mov	 ecx, DWORD PTR _pElements$[ebp]
  0004d	8b 55 08	 mov	 edx, DWORD PTR _ar$[ebp]
  00050	03 cf		 add	 ecx, edi
  00052	89 4d 0c	 mov	 DWORD PTR _pElements$[ebp], ecx
  00055	2b f3		 sub	 esi, ebx
  00057	75 d7		 jne	 SHORT $LL5@SerializeE
$LN8@SerializeE:
  00059	5f		 pop	 edi

; 105  : 		}
; 106  : 	}
; 107  : }

  0005a	5e		 pop	 esi
  0005b	5b		 pop	 ebx
  0005c	5d		 pop	 ebp
  0005d	c2 0c 00	 ret	 12			; 0000000cH
$LN10@SerializeE:

; 97   : 		while( nElementsLeft > 0 )

  00060	85 f6		 test	 esi, esi
  00062	74 f5		 je	 SHORT $LN8@SerializeE
$LL7@SerializeE:

; 98   : 		{
; 99   : 			UINT nElementsToRead;
; 100  : 
; 101  : 			nElementsToRead = UINT(__min(nElementsLeft, INT_MAX/sizeof(TYPE)));

  00064	bf ff ff ff 1f	 mov	 edi, 536870911		; 1fffffffH
  00069	3b f7		 cmp	 esi, edi
  0006b	0f 42 fe	 cmovb	 edi, esi

; 102  : 			ar.EnsureRead(pData, nElementsToRead*sizeof(TYPE));

  0006e	8d 1c bd 00 00
	00 00		 lea	 ebx, DWORD PTR [edi*4]
; File C:\Program Files (x86)\Microsoft Visual Studio\2019\Community\VC\Tools\MSVC\14.29.30133\atlmfc\include\afx.inl

; 399  : 	UINT nRead=Read(lpBuf, nCount);

  00075	53		 push	 ebx
  00076	51		 push	 ecx
  00077	8b ca		 mov	 ecx, edx
  00079	e8 00 00 00 00	 call	 ?Read@CArchive@@QAEIPAXI@Z ; CArchive::Read

; 400  : 	if(nRead!=nCount)

  0007e	3b c3		 cmp	 eax, ebx
  00080	75 16		 jne	 SHORT $LN23@SerializeE
; File C:\Program Files (x86)\Microsoft Visual Studio\2019\Community\VC\Tools\MSVC\14.29.30133\atlmfc\include\afxtempl.h

; 97   : 		while( nElementsLeft > 0 )

  00082	8b 4d 0c	 mov	 ecx, DWORD PTR _pElements$[ebp]
  00085	8b 55 08	 mov	 edx, DWORD PTR _ar$[ebp]

; 103  : 			nElementsLeft -= nElementsToRead;
; 104  : 			pData += nElementsToRead;

  00088	03 cb		 add	 ecx, ebx
  0008a	89 4d 0c	 mov	 DWORD PTR _pElements$[ebp], ecx
  0008d	2b f7		 sub	 esi, edi
  0008f	75 d3		 jne	 SHORT $LL7@SerializeE

; 105  : 		}
; 106  : 	}
; 107  : }

  00091	5f		 pop	 edi
  00092	5e		 pop	 esi
  00093	5b		 pop	 ebx
  00094	5d		 pop	 ebp
  00095	c2 0c 00	 ret	 12			; 0000000cH
$LN23@SerializeE:
; File C:\Program Files (x86)\Microsoft Visual Studio\2019\Community\VC\Tools\MSVC\14.29.30133\atlmfc\include\afx.inl

; 402  : 		AfxThrowArchiveException(CArchiveException::endOfFile);

  00098	6a 00		 push	 0
  0009a	6a 03		 push	 3
  0009c	e8 00 00 00 00	 call	 ?AfxThrowArchiveException@@YGXHPBD@Z ; AfxThrowArchiveException
$LN34@SerializeE:
; File C:\Program Files (x86)\Microsoft Visual Studio\2019\Community\VC\Tools\MSVC\14.29.30133\atlmfc\include\afxtempl.h

; 68   : 	ENSURE(nCount == 0 || pElements != NULL);

  000a1	e8 00 00 00 00	 call	 ?AfxThrowInvalidArgException@@YGXXZ ; AfxThrowInvalidArgException
$LN32@SerializeE:
  000a6	cc		 int	 3
??$SerializeElements@PAVCCandlePatternPosInfo@@@@YGXAAVCArchive@@PAPAVCCandlePatternPosInfo@@H@Z ENDP ; SerializeElements<CCandlePatternPosInfo *>
_TEXT	ENDS
; Function compile flags: /Ogtp
; File C:\Program Files (x86)\Microsoft Visual Studio\2019\Community\VC\Tools\MSVC\14.29.30133\atlmfc\include\afxtempl.h
; File C:\Program Files (x86)\Microsoft Visual Studio\2019\Community\VC\Tools\MSVC\14.29.30133\atlmfc\include\afx.inl
; File C:\Program Files (x86)\Microsoft Visual Studio\2019\Community\VC\Tools\MSVC\14.29.30133\atlmfc\include\afxtempl.h
; File C:\Program Files (x86)\Microsoft Visual Studio\2019\Community\VC\Tools\MSVC\14.29.30133\atlmfc\include\afx.inl
; File C:\Program Files (x86)\Microsoft Visual Studio\2019\Community\VC\Tools\MSVC\14.29.30133\atlmfc\include\afxtempl.h
; File C:\Program Files (x86)\Microsoft Visual Studio\2019\Community\VC\Tools\MSVC\14.29.30133\atlmfc\include\afx.inl
; File C:\Program Files (x86)\Microsoft Visual Studio\2019\Community\VC\Tools\MSVC\14.29.30133\atlmfc\include\afxtempl.h
;	COMDAT ??$SerializeElements@PAVCCandlePatternData@@@@YGXAAVCArchive@@PAPAVCCandlePatternData@@H@Z
_TEXT	SEGMENT
_ar$ = 8						; size = 4
_pElements$ = 12					; size = 4
_nCount$ = 16						; size = 4
??$SerializeElements@PAVCCandlePatternData@@@@YGXAAVCArchive@@PAPAVCCandlePatternData@@H@Z PROC ; SerializeElements<CCandlePatternData *>, COMDAT

; 67   : {

  00000	55		 push	 ebp
  00001	8b ec		 mov	 ebp, esp

; 68   : 	ENSURE(nCount == 0 || pElements != NULL);

  00003	8b 4d 0c	 mov	 ecx, DWORD PTR _pElements$[ebp]
  00006	53		 push	 ebx
  00007	56		 push	 esi
  00008	8b 75 10	 mov	 esi, DWORD PTR _nCount$[ebp]
  0000b	57		 push	 edi
  0000c	85 f6		 test	 esi, esi
  0000e	74 08		 je	 SHORT $LN2@SerializeE
  00010	85 c9		 test	 ecx, ecx
  00012	0f 84 89 00 00
	00		 je	 $LN34@SerializeE
$LN2@SerializeE:
; File C:\Program Files (x86)\Microsoft Visual Studio\2019\Community\VC\Tools\MSVC\14.29.30133\atlmfc\include\afx.inl

; 212  : 	{ return (m_nMode & CArchive::load) == 0; }

  00018	8b 55 08	 mov	 edx, DWORD PTR _ar$[ebp]
  0001b	8b 42 18	 mov	 eax, DWORD PTR [edx+24]
  0001e	f7 d0		 not	 eax
  00020	a8 01		 test	 al, 1
; File C:\Program Files (x86)\Microsoft Visual Studio\2019\Community\VC\Tools\MSVC\14.29.30133\atlmfc\include\afxtempl.h

; 73   : 	if (ar.IsStoring())

  00022	74 3c		 je	 SHORT $LN10@SerializeE

; 74   : 	{
; 75   : 		TYPE* pData;
; 76   : 		UINT_PTR nElementsLeft;
; 77   : 
; 78   : 		nElementsLeft = nCount;
; 79   : 		pData = pElements;
; 80   : 		while( nElementsLeft > 0 )

  00024	85 f6		 test	 esi, esi
  00026	74 31		 je	 SHORT $LN8@SerializeE
  00028	0f 1f 84 00 00
	00 00 00	 npad	 8
$LL5@SerializeE:

; 81   : 		{
; 82   : 			UINT nElementsToWrite;
; 83   : 
; 84   : 			nElementsToWrite = UINT(__min(nElementsLeft, INT_MAX/sizeof(TYPE)));

  00030	bb ff ff ff 1f	 mov	 ebx, 536870911		; 1fffffffH
  00035	3b f3		 cmp	 esi, ebx
  00037	0f 42 de	 cmovb	 ebx, esi

; 85   : 			ar.Write(pData, nElementsToWrite*sizeof(TYPE));

  0003a	8d 3c 9d 00 00
	00 00		 lea	 edi, DWORD PTR [ebx*4]
  00041	57		 push	 edi
  00042	51		 push	 ecx
  00043	8b ca		 mov	 ecx, edx
  00045	e8 00 00 00 00	 call	 ?Write@CArchive@@QAEXPBXI@Z ; CArchive::Write

; 86   : 			nElementsLeft -= nElementsToWrite;
; 87   : 			pData += nElementsToWrite;

  0004a	8b 4d 0c	 mov	 ecx, DWORD PTR _pElements$[ebp]
  0004d	8b 55 08	 mov	 edx, DWORD PTR _ar$[ebp]
  00050	03 cf		 add	 ecx, edi
  00052	89 4d 0c	 mov	 DWORD PTR _pElements$[ebp], ecx
  00055	2b f3		 sub	 esi, ebx
  00057	75 d7		 jne	 SHORT $LL5@SerializeE
$LN8@SerializeE:
  00059	5f		 pop	 edi

; 105  : 		}
; 106  : 	}
; 107  : }

  0005a	5e		 pop	 esi
  0005b	5b		 pop	 ebx
  0005c	5d		 pop	 ebp
  0005d	c2 0c 00	 ret	 12			; 0000000cH
$LN10@SerializeE:

; 97   : 		while( nElementsLeft > 0 )

  00060	85 f6		 test	 esi, esi
  00062	74 f5		 je	 SHORT $LN8@SerializeE
$LL7@SerializeE:

; 98   : 		{
; 99   : 			UINT nElementsToRead;
; 100  : 
; 101  : 			nElementsToRead = UINT(__min(nElementsLeft, INT_MAX/sizeof(TYPE)));

  00064	bf ff ff ff 1f	 mov	 edi, 536870911		; 1fffffffH
  00069	3b f7		 cmp	 esi, edi
  0006b	0f 42 fe	 cmovb	 edi, esi

; 102  : 			ar.EnsureRead(pData, nElementsToRead*sizeof(TYPE));

  0006e	8d 1c bd 00 00
	00 00		 lea	 ebx, DWORD PTR [edi*4]
; File C:\Program Files (x86)\Microsoft Visual Studio\2019\Community\VC\Tools\MSVC\14.29.30133\atlmfc\include\afx.inl

; 399  : 	UINT nRead=Read(lpBuf, nCount);

  00075	53		 push	 ebx
  00076	51		 push	 ecx
  00077	8b ca		 mov	 ecx, edx
  00079	e8 00 00 00 00	 call	 ?Read@CArchive@@QAEIPAXI@Z ; CArchive::Read

; 400  : 	if(nRead!=nCount)

  0007e	3b c3		 cmp	 eax, ebx
  00080	75 16		 jne	 SHORT $LN23@SerializeE
; File C:\Program Files (x86)\Microsoft Visual Studio\2019\Community\VC\Tools\MSVC\14.29.30133\atlmfc\include\afxtempl.h

; 97   : 		while( nElementsLeft > 0 )

  00082	8b 4d 0c	 mov	 ecx, DWORD PTR _pElements$[ebp]
  00085	8b 55 08	 mov	 edx, DWORD PTR _ar$[ebp]

; 103  : 			nElementsLeft -= nElementsToRead;
; 104  : 			pData += nElementsToRead;

  00088	03 cb		 add	 ecx, ebx
  0008a	89 4d 0c	 mov	 DWORD PTR _pElements$[ebp], ecx
  0008d	2b f7		 sub	 esi, edi
  0008f	75 d3		 jne	 SHORT $LL7@SerializeE

; 105  : 		}
; 106  : 	}
; 107  : }

  00091	5f		 pop	 edi
  00092	5e		 pop	 esi
  00093	5b		 pop	 ebx
  00094	5d		 pop	 ebp
  00095	c2 0c 00	 ret	 12			; 0000000cH
$LN23@SerializeE:
; File C:\Program Files (x86)\Microsoft Visual Studio\2019\Community\VC\Tools\MSVC\14.29.30133\atlmfc\include\afx.inl

; 402  : 		AfxThrowArchiveException(CArchiveException::endOfFile);

  00098	6a 00		 push	 0
  0009a	6a 03		 push	 3
  0009c	e8 00 00 00 00	 call	 ?AfxThrowArchiveException@@YGXHPBD@Z ; AfxThrowArchiveException
$LN34@SerializeE:
; File C:\Program Files (x86)\Microsoft Visual Studio\2019\Community\VC\Tools\MSVC\14.29.30133\atlmfc\include\afxtempl.h

; 68   : 	ENSURE(nCount == 0 || pElements != NULL);

  000a1	e8 00 00 00 00	 call	 ?AfxThrowInvalidArgException@@YGXXZ ; AfxThrowInvalidArgException
$LN32@SerializeE:
  000a6	cc		 int	 3
??$SerializeElements@PAVCCandlePatternData@@@@YGXAAVCArchive@@PAPAVCCandlePatternData@@H@Z ENDP ; SerializeElements<CCandlePatternData *>
_TEXT	ENDS
; Function compile flags: /Ogtp
; File C:\Program Files (x86)\Microsoft Visual Studio\2019\Community\VC\Tools\MSVC\14.29.30133\atlmfc\include\afxtempl.h
; File C:\Program Files (x86)\Microsoft Visual Studio\2019\Community\VC\Tools\MSVC\14.29.30133\atlmfc\include\afx.inl
; File C:\Program Files (x86)\Microsoft Visual Studio\2019\Community\VC\Tools\MSVC\14.29.30133\atlmfc\include\afxtempl.h
; File C:\Program Files (x86)\Microsoft Visual Studio\2019\Community\VC\Tools\MSVC\14.29.30133\atlmfc\include\afx.inl
; File C:\Program Files (x86)\Microsoft Visual Studio\2019\Community\VC\Tools\MSVC\14.29.30133\atlmfc\include\afxtempl.h
; File C:\Program Files (x86)\Microsoft Visual Studio\2019\Community\VC\Tools\MSVC\14.29.30133\atlmfc\include\afx.inl
; File C:\Program Files (x86)\Microsoft Visual Studio\2019\Community\VC\Tools\MSVC\14.29.30133\atlmfc\include\afxtempl.h
;	COMDAT ??$SerializeElements@PAVCRegistNSupportData@@@@YGXAAVCArchive@@PAPAVCRegistNSupportData@@H@Z
_TEXT	SEGMENT
_ar$ = 8						; size = 4
_pElements$ = 12					; size = 4
_nCount$ = 16						; size = 4
??$SerializeElements@PAVCRegistNSupportData@@@@YGXAAVCArchive@@PAPAVCRegistNSupportData@@H@Z PROC ; SerializeElements<CRegistNSupportData *>, COMDAT

; 67   : {

  00000	55		 push	 ebp
  00001	8b ec		 mov	 ebp, esp

; 68   : 	ENSURE(nCount == 0 || pElements != NULL);

  00003	8b 4d 0c	 mov	 ecx, DWORD PTR _pElements$[ebp]
  00006	53		 push	 ebx
  00007	56		 push	 esi
  00008	8b 75 10	 mov	 esi, DWORD PTR _nCount$[ebp]
  0000b	57		 push	 edi
  0000c	85 f6		 test	 esi, esi
  0000e	74 08		 je	 SHORT $LN2@SerializeE
  00010	85 c9		 test	 ecx, ecx
  00012	0f 84 89 00 00
	00		 je	 $LN34@SerializeE
$LN2@SerializeE:
; File C:\Program Files (x86)\Microsoft Visual Studio\2019\Community\VC\Tools\MSVC\14.29.30133\atlmfc\include\afx.inl

; 212  : 	{ return (m_nMode & CArchive::load) == 0; }

  00018	8b 55 08	 mov	 edx, DWORD PTR _ar$[ebp]
  0001b	8b 42 18	 mov	 eax, DWORD PTR [edx+24]
  0001e	f7 d0		 not	 eax
  00020	a8 01		 test	 al, 1
; File C:\Program Files (x86)\Microsoft Visual Studio\2019\Community\VC\Tools\MSVC\14.29.30133\atlmfc\include\afxtempl.h

; 73   : 	if (ar.IsStoring())

  00022	74 3c		 je	 SHORT $LN10@SerializeE

; 74   : 	{
; 75   : 		TYPE* pData;
; 76   : 		UINT_PTR nElementsLeft;
; 77   : 
; 78   : 		nElementsLeft = nCount;
; 79   : 		pData = pElements;
; 80   : 		while( nElementsLeft > 0 )

  00024	85 f6		 test	 esi, esi
  00026	74 31		 je	 SHORT $LN8@SerializeE
  00028	0f 1f 84 00 00
	00 00 00	 npad	 8
$LL5@SerializeE:

; 81   : 		{
; 82   : 			UINT nElementsToWrite;
; 83   : 
; 84   : 			nElementsToWrite = UINT(__min(nElementsLeft, INT_MAX/sizeof(TYPE)));

  00030	bb ff ff ff 1f	 mov	 ebx, 536870911		; 1fffffffH
  00035	3b f3		 cmp	 esi, ebx
  00037	0f 42 de	 cmovb	 ebx, esi

; 85   : 			ar.Write(pData, nElementsToWrite*sizeof(TYPE));

  0003a	8d 3c 9d 00 00
	00 00		 lea	 edi, DWORD PTR [ebx*4]
  00041	57		 push	 edi
  00042	51		 push	 ecx
  00043	8b ca		 mov	 ecx, edx
  00045	e8 00 00 00 00	 call	 ?Write@CArchive@@QAEXPBXI@Z ; CArchive::Write

; 86   : 			nElementsLeft -= nElementsToWrite;
; 87   : 			pData += nElementsToWrite;

  0004a	8b 4d 0c	 mov	 ecx, DWORD PTR _pElements$[ebp]
  0004d	8b 55 08	 mov	 edx, DWORD PTR _ar$[ebp]
  00050	03 cf		 add	 ecx, edi
  00052	89 4d 0c	 mov	 DWORD PTR _pElements$[ebp], ecx
  00055	2b f3		 sub	 esi, ebx
  00057	75 d7		 jne	 SHORT $LL5@SerializeE
$LN8@SerializeE:
  00059	5f		 pop	 edi

; 105  : 		}
; 106  : 	}
; 107  : }

  0005a	5e		 pop	 esi
  0005b	5b		 pop	 ebx
  0005c	5d		 pop	 ebp
  0005d	c2 0c 00	 ret	 12			; 0000000cH
$LN10@SerializeE:

; 97   : 		while( nElementsLeft > 0 )

  00060	85 f6		 test	 esi, esi
  00062	74 f5		 je	 SHORT $LN8@SerializeE
$LL7@SerializeE:

; 98   : 		{
; 99   : 			UINT nElementsToRead;
; 100  : 
; 101  : 			nElementsToRead = UINT(__min(nElementsLeft, INT_MAX/sizeof(TYPE)));

  00064	bf ff ff ff 1f	 mov	 edi, 536870911		; 1fffffffH
  00069	3b f7		 cmp	 esi, edi
  0006b	0f 42 fe	 cmovb	 edi, esi

; 102  : 			ar.EnsureRead(pData, nElementsToRead*sizeof(TYPE));

  0006e	8d 1c bd 00 00
	00 00		 lea	 ebx, DWORD PTR [edi*4]
; File C:\Program Files (x86)\Microsoft Visual Studio\2019\Community\VC\Tools\MSVC\14.29.30133\atlmfc\include\afx.inl

; 399  : 	UINT nRead=Read(lpBuf, nCount);

  00075	53		 push	 ebx
  00076	51		 push	 ecx
  00077	8b ca		 mov	 ecx, edx
  00079	e8 00 00 00 00	 call	 ?Read@CArchive@@QAEIPAXI@Z ; CArchive::Read

; 400  : 	if(nRead!=nCount)

  0007e	3b c3		 cmp	 eax, ebx
  00080	75 16		 jne	 SHORT $LN23@SerializeE
; File C:\Program Files (x86)\Microsoft Visual Studio\2019\Community\VC\Tools\MSVC\14.29.30133\atlmfc\include\afxtempl.h

; 97   : 		while( nElementsLeft > 0 )

  00082	8b 4d 0c	 mov	 ecx, DWORD PTR _pElements$[ebp]
  00085	8b 55 08	 mov	 edx, DWORD PTR _ar$[ebp]

; 103  : 			nElementsLeft -= nElementsToRead;
; 104  : 			pData += nElementsToRead;

  00088	03 cb		 add	 ecx, ebx
  0008a	89 4d 0c	 mov	 DWORD PTR _pElements$[ebp], ecx
  0008d	2b f7		 sub	 esi, edi
  0008f	75 d3		 jne	 SHORT $LL7@SerializeE

; 105  : 		}
; 106  : 	}
; 107  : }

  00091	5f		 pop	 edi
  00092	5e		 pop	 esi
  00093	5b		 pop	 ebx
  00094	5d		 pop	 ebp
  00095	c2 0c 00	 ret	 12			; 0000000cH
$LN23@SerializeE:
; File C:\Program Files (x86)\Microsoft Visual Studio\2019\Community\VC\Tools\MSVC\14.29.30133\atlmfc\include\afx.inl

; 402  : 		AfxThrowArchiveException(CArchiveException::endOfFile);

  00098	6a 00		 push	 0
  0009a	6a 03		 push	 3
  0009c	e8 00 00 00 00	 call	 ?AfxThrowArchiveException@@YGXHPBD@Z ; AfxThrowArchiveException
$LN34@SerializeE:
; File C:\Program Files (x86)\Microsoft Visual Studio\2019\Community\VC\Tools\MSVC\14.29.30133\atlmfc\include\afxtempl.h

; 68   : 	ENSURE(nCount == 0 || pElements != NULL);

  000a1	e8 00 00 00 00	 call	 ?AfxThrowInvalidArgException@@YGXXZ ; AfxThrowInvalidArgException
$LN32@SerializeE:
  000a6	cc		 int	 3
??$SerializeElements@PAVCRegistNSupportData@@@@YGXAAVCArchive@@PAPAVCRegistNSupportData@@H@Z ENDP ; SerializeElements<CRegistNSupportData *>
_TEXT	ENDS
; Function compile flags: /Ogtp
; File C:\Program Files (x86)\Microsoft Visual Studio\2019\Community\VC\Tools\MSVC\14.29.30133\atlmfc\include\afxtempl.h
; File C:\Program Files (x86)\Microsoft Visual Studio\2019\Community\VC\Tools\MSVC\14.29.30133\atlmfc\include\afx.inl
; File C:\Program Files (x86)\Microsoft Visual Studio\2019\Community\VC\Tools\MSVC\14.29.30133\atlmfc\include\afxtempl.h
; File C:\Program Files (x86)\Microsoft Visual Studio\2019\Community\VC\Tools\MSVC\14.29.30133\atlmfc\include\afx.inl
; File C:\Program Files (x86)\Microsoft Visual Studio\2019\Community\VC\Tools\MSVC\14.29.30133\atlmfc\include\afxtempl.h
; File C:\Program Files (x86)\Microsoft Visual Studio\2019\Community\VC\Tools\MSVC\14.29.30133\atlmfc\include\afx.inl
; File C:\Program Files (x86)\Microsoft Visual Studio\2019\Community\VC\Tools\MSVC\14.29.30133\atlmfc\include\afxtempl.h
;	COMDAT ??$SerializeElements@PAVCMAData@@@@YGXAAVCArchive@@PAPAVCMAData@@H@Z
_TEXT	SEGMENT
_ar$ = 8						; size = 4
_pElements$ = 12					; size = 4
_nCount$ = 16						; size = 4
??$SerializeElements@PAVCMAData@@@@YGXAAVCArchive@@PAPAVCMAData@@H@Z PROC ; SerializeElements<CMAData *>, COMDAT

; 67   : {

  00000	55		 push	 ebp
  00001	8b ec		 mov	 ebp, esp

; 68   : 	ENSURE(nCount == 0 || pElements != NULL);

  00003	8b 4d 0c	 mov	 ecx, DWORD PTR _pElements$[ebp]
  00006	53		 push	 ebx
  00007	56		 push	 esi
  00008	8b 75 10	 mov	 esi, DWORD PTR _nCount$[ebp]
  0000b	57		 push	 edi
  0000c	85 f6		 test	 esi, esi
  0000e	74 08		 je	 SHORT $LN2@SerializeE
  00010	85 c9		 test	 ecx, ecx
  00012	0f 84 89 00 00
	00		 je	 $LN34@SerializeE
$LN2@SerializeE:
; File C:\Program Files (x86)\Microsoft Visual Studio\2019\Community\VC\Tools\MSVC\14.29.30133\atlmfc\include\afx.inl

; 212  : 	{ return (m_nMode & CArchive::load) == 0; }

  00018	8b 55 08	 mov	 edx, DWORD PTR _ar$[ebp]
  0001b	8b 42 18	 mov	 eax, DWORD PTR [edx+24]
  0001e	f7 d0		 not	 eax
  00020	a8 01		 test	 al, 1
; File C:\Program Files (x86)\Microsoft Visual Studio\2019\Community\VC\Tools\MSVC\14.29.30133\atlmfc\include\afxtempl.h

; 73   : 	if (ar.IsStoring())

  00022	74 3c		 je	 SHORT $LN10@SerializeE

; 74   : 	{
; 75   : 		TYPE* pData;
; 76   : 		UINT_PTR nElementsLeft;
; 77   : 
; 78   : 		nElementsLeft = nCount;
; 79   : 		pData = pElements;
; 80   : 		while( nElementsLeft > 0 )

  00024	85 f6		 test	 esi, esi
  00026	74 31		 je	 SHORT $LN8@SerializeE
  00028	0f 1f 84 00 00
	00 00 00	 npad	 8
$LL5@SerializeE:

; 81   : 		{
; 82   : 			UINT nElementsToWrite;
; 83   : 
; 84   : 			nElementsToWrite = UINT(__min(nElementsLeft, INT_MAX/sizeof(TYPE)));

  00030	bb ff ff ff 1f	 mov	 ebx, 536870911		; 1fffffffH
  00035	3b f3		 cmp	 esi, ebx
  00037	0f 42 de	 cmovb	 ebx, esi

; 85   : 			ar.Write(pData, nElementsToWrite*sizeof(TYPE));

  0003a	8d 3c 9d 00 00
	00 00		 lea	 edi, DWORD PTR [ebx*4]
  00041	57		 push	 edi
  00042	51		 push	 ecx
  00043	8b ca		 mov	 ecx, edx
  00045	e8 00 00 00 00	 call	 ?Write@CArchive@@QAEXPBXI@Z ; CArchive::Write

; 86   : 			nElementsLeft -= nElementsToWrite;
; 87   : 			pData += nElementsToWrite;

  0004a	8b 4d 0c	 mov	 ecx, DWORD PTR _pElements$[ebp]
  0004d	8b 55 08	 mov	 edx, DWORD PTR _ar$[ebp]
  00050	03 cf		 add	 ecx, edi
  00052	89 4d 0c	 mov	 DWORD PTR _pElements$[ebp], ecx
  00055	2b f3		 sub	 esi, ebx
  00057	75 d7		 jne	 SHORT $LL5@SerializeE
$LN8@SerializeE:
  00059	5f		 pop	 edi

; 105  : 		}
; 106  : 	}
; 107  : }

  0005a	5e		 pop	 esi
  0005b	5b		 pop	 ebx
  0005c	5d		 pop	 ebp
  0005d	c2 0c 00	 ret	 12			; 0000000cH
$LN10@SerializeE:

; 97   : 		while( nElementsLeft > 0 )

  00060	85 f6		 test	 esi, esi
  00062	74 f5		 je	 SHORT $LN8@SerializeE
$LL7@SerializeE:

; 98   : 		{
; 99   : 			UINT nElementsToRead;
; 100  : 
; 101  : 			nElementsToRead = UINT(__min(nElementsLeft, INT_MAX/sizeof(TYPE)));

  00064	bf ff ff ff 1f	 mov	 edi, 536870911		; 1fffffffH
  00069	3b f7		 cmp	 esi, edi
  0006b	0f 42 fe	 cmovb	 edi, esi

; 102  : 			ar.EnsureRead(pData, nElementsToRead*sizeof(TYPE));

  0006e	8d 1c bd 00 00
	00 00		 lea	 ebx, DWORD PTR [edi*4]
; File C:\Program Files (x86)\Microsoft Visual Studio\2019\Community\VC\Tools\MSVC\14.29.30133\atlmfc\include\afx.inl

; 399  : 	UINT nRead=Read(lpBuf, nCount);

  00075	53		 push	 ebx
  00076	51		 push	 ecx
  00077	8b ca		 mov	 ecx, edx
  00079	e8 00 00 00 00	 call	 ?Read@CArchive@@QAEIPAXI@Z ; CArchive::Read

; 400  : 	if(nRead!=nCount)

  0007e	3b c3		 cmp	 eax, ebx
  00080	75 16		 jne	 SHORT $LN23@SerializeE
; File C:\Program Files (x86)\Microsoft Visual Studio\2019\Community\VC\Tools\MSVC\14.29.30133\atlmfc\include\afxtempl.h

; 97   : 		while( nElementsLeft > 0 )

  00082	8b 4d 0c	 mov	 ecx, DWORD PTR _pElements$[ebp]
  00085	8b 55 08	 mov	 edx, DWORD PTR _ar$[ebp]

; 103  : 			nElementsLeft -= nElementsToRead;
; 104  : 			pData += nElementsToRead;

  00088	03 cb		 add	 ecx, ebx
  0008a	89 4d 0c	 mov	 DWORD PTR _pElements$[ebp], ecx
  0008d	2b f7		 sub	 esi, edi
  0008f	75 d3		 jne	 SHORT $LL7@SerializeE

; 105  : 		}
; 106  : 	}
; 107  : }

  00091	5f		 pop	 edi
  00092	5e		 pop	 esi
  00093	5b		 pop	 ebx
  00094	5d		 pop	 ebp
  00095	c2 0c 00	 ret	 12			; 0000000cH
$LN23@SerializeE:
; File C:\Program Files (x86)\Microsoft Visual Studio\2019\Community\VC\Tools\MSVC\14.29.30133\atlmfc\include\afx.inl

; 402  : 		AfxThrowArchiveException(CArchiveException::endOfFile);

  00098	6a 00		 push	 0
  0009a	6a 03		 push	 3
  0009c	e8 00 00 00 00	 call	 ?AfxThrowArchiveException@@YGXHPBD@Z ; AfxThrowArchiveException
$LN34@SerializeE:
; File C:\Program Files (x86)\Microsoft Visual Studio\2019\Community\VC\Tools\MSVC\14.29.30133\atlmfc\include\afxtempl.h

; 68   : 	ENSURE(nCount == 0 || pElements != NULL);

  000a1	e8 00 00 00 00	 call	 ?AfxThrowInvalidArgException@@YGXXZ ; AfxThrowInvalidArgException
$LN32@SerializeE:
  000a6	cc		 int	 3
??$SerializeElements@PAVCMAData@@@@YGXAAVCArchive@@PAPAVCMAData@@H@Z ENDP ; SerializeElements<CMAData *>
_TEXT	ENDS
; Function compile flags: /Ogtp
; File C:\Program Files (x86)\Microsoft Visual Studio\2019\Community\VC\Tools\MSVC\14.29.30133\atlmfc\include\afxtempl.h
; File C:\Program Files (x86)\Microsoft Visual Studio\2019\Community\VC\Tools\MSVC\14.29.30133\atlmfc\include\afx.inl
; File C:\Program Files (x86)\Microsoft Visual Studio\2019\Community\VC\Tools\MSVC\14.29.30133\atlmfc\include\afxtempl.h
; File C:\Program Files (x86)\Microsoft Visual Studio\2019\Community\VC\Tools\MSVC\14.29.30133\atlmfc\include\afx.inl
; File C:\Program Files (x86)\Microsoft Visual Studio\2019\Community\VC\Tools\MSVC\14.29.30133\atlmfc\include\afxtempl.h
; File C:\Program Files (x86)\Microsoft Visual Studio\2019\Community\VC\Tools\MSVC\14.29.30133\atlmfc\include\afx.inl
; File C:\Program Files (x86)\Microsoft Visual Studio\2019\Community\VC\Tools\MSVC\14.29.30133\atlmfc\include\afxtempl.h
;	COMDAT ??$SerializeElements@PAVCHighLowPtData@@@@YGXAAVCArchive@@PAPAVCHighLowPtData@@H@Z
_TEXT	SEGMENT
_ar$ = 8						; size = 4
_pElements$ = 12					; size = 4
_nCount$ = 16						; size = 4
??$SerializeElements@PAVCHighLowPtData@@@@YGXAAVCArchive@@PAPAVCHighLowPtData@@H@Z PROC ; SerializeElements<CHighLowPtData *>, COMDAT

; 67   : {

  00000	55		 push	 ebp
  00001	8b ec		 mov	 ebp, esp

; 68   : 	ENSURE(nCount == 0 || pElements != NULL);

  00003	8b 4d 0c	 mov	 ecx, DWORD PTR _pElements$[ebp]
  00006	53		 push	 ebx
  00007	56		 push	 esi
  00008	8b 75 10	 mov	 esi, DWORD PTR _nCount$[ebp]
  0000b	57		 push	 edi
  0000c	85 f6		 test	 esi, esi
  0000e	74 08		 je	 SHORT $LN2@SerializeE
  00010	85 c9		 test	 ecx, ecx
  00012	0f 84 89 00 00
	00		 je	 $LN34@SerializeE
$LN2@SerializeE:
; File C:\Program Files (x86)\Microsoft Visual Studio\2019\Community\VC\Tools\MSVC\14.29.30133\atlmfc\include\afx.inl

; 212  : 	{ return (m_nMode & CArchive::load) == 0; }

  00018	8b 55 08	 mov	 edx, DWORD PTR _ar$[ebp]
  0001b	8b 42 18	 mov	 eax, DWORD PTR [edx+24]
  0001e	f7 d0		 not	 eax
  00020	a8 01		 test	 al, 1
; File C:\Program Files (x86)\Microsoft Visual Studio\2019\Community\VC\Tools\MSVC\14.29.30133\atlmfc\include\afxtempl.h

; 73   : 	if (ar.IsStoring())

  00022	74 3c		 je	 SHORT $LN10@SerializeE

; 74   : 	{
; 75   : 		TYPE* pData;
; 76   : 		UINT_PTR nElementsLeft;
; 77   : 
; 78   : 		nElementsLeft = nCount;
; 79   : 		pData = pElements;
; 80   : 		while( nElementsLeft > 0 )

  00024	85 f6		 test	 esi, esi
  00026	74 31		 je	 SHORT $LN8@SerializeE
  00028	0f 1f 84 00 00
	00 00 00	 npad	 8
$LL5@SerializeE:

; 81   : 		{
; 82   : 			UINT nElementsToWrite;
; 83   : 
; 84   : 			nElementsToWrite = UINT(__min(nElementsLeft, INT_MAX/sizeof(TYPE)));

  00030	bb ff ff ff 1f	 mov	 ebx, 536870911		; 1fffffffH
  00035	3b f3		 cmp	 esi, ebx
  00037	0f 42 de	 cmovb	 ebx, esi

; 85   : 			ar.Write(pData, nElementsToWrite*sizeof(TYPE));

  0003a	8d 3c 9d 00 00
	00 00		 lea	 edi, DWORD PTR [ebx*4]
  00041	57		 push	 edi
  00042	51		 push	 ecx
  00043	8b ca		 mov	 ecx, edx
  00045	e8 00 00 00 00	 call	 ?Write@CArchive@@QAEXPBXI@Z ; CArchive::Write

; 86   : 			nElementsLeft -= nElementsToWrite;
; 87   : 			pData += nElementsToWrite;

  0004a	8b 4d 0c	 mov	 ecx, DWORD PTR _pElements$[ebp]
  0004d	8b 55 08	 mov	 edx, DWORD PTR _ar$[ebp]
  00050	03 cf		 add	 ecx, edi
  00052	89 4d 0c	 mov	 DWORD PTR _pElements$[ebp], ecx
  00055	2b f3		 sub	 esi, ebx
  00057	75 d7		 jne	 SHORT $LL5@SerializeE
$LN8@SerializeE:
  00059	5f		 pop	 edi

; 105  : 		}
; 106  : 	}
; 107  : }

  0005a	5e		 pop	 esi
  0005b	5b		 pop	 ebx
  0005c	5d		 pop	 ebp
  0005d	c2 0c 00	 ret	 12			; 0000000cH
$LN10@SerializeE:

; 97   : 		while( nElementsLeft > 0 )

  00060	85 f6		 test	 esi, esi
  00062	74 f5		 je	 SHORT $LN8@SerializeE
$LL7@SerializeE:

; 98   : 		{
; 99   : 			UINT nElementsToRead;
; 100  : 
; 101  : 			nElementsToRead = UINT(__min(nElementsLeft, INT_MAX/sizeof(TYPE)));

  00064	bf ff ff ff 1f	 mov	 edi, 536870911		; 1fffffffH
  00069	3b f7		 cmp	 esi, edi
  0006b	0f 42 fe	 cmovb	 edi, esi

; 102  : 			ar.EnsureRead(pData, nElementsToRead*sizeof(TYPE));

  0006e	8d 1c bd 00 00
	00 00		 lea	 ebx, DWORD PTR [edi*4]
; File C:\Program Files (x86)\Microsoft Visual Studio\2019\Community\VC\Tools\MSVC\14.29.30133\atlmfc\include\afx.inl

; 399  : 	UINT nRead=Read(lpBuf, nCount);

  00075	53		 push	 ebx
  00076	51		 push	 ecx
  00077	8b ca		 mov	 ecx, edx
  00079	e8 00 00 00 00	 call	 ?Read@CArchive@@QAEIPAXI@Z ; CArchive::Read

; 400  : 	if(nRead!=nCount)

  0007e	3b c3		 cmp	 eax, ebx
  00080	75 16		 jne	 SHORT $LN23@SerializeE
; File C:\Program Files (x86)\Microsoft Visual Studio\2019\Community\VC\Tools\MSVC\14.29.30133\atlmfc\include\afxtempl.h

; 97   : 		while( nElementsLeft > 0 )

  00082	8b 4d 0c	 mov	 ecx, DWORD PTR _pElements$[ebp]
  00085	8b 55 08	 mov	 edx, DWORD PTR _ar$[ebp]

; 103  : 			nElementsLeft -= nElementsToRead;
; 104  : 			pData += nElementsToRead;

  00088	03 cb		 add	 ecx, ebx
  0008a	89 4d 0c	 mov	 DWORD PTR _pElements$[ebp], ecx
  0008d	2b f7		 sub	 esi, edi
  0008f	75 d3		 jne	 SHORT $LL7@SerializeE

; 105  : 		}
; 106  : 	}
; 107  : }

  00091	5f		 pop	 edi
  00092	5e		 pop	 esi
  00093	5b		 pop	 ebx
  00094	5d		 pop	 ebp
  00095	c2 0c 00	 ret	 12			; 0000000cH
$LN23@SerializeE:
; File C:\Program Files (x86)\Microsoft Visual Studio\2019\Community\VC\Tools\MSVC\14.29.30133\atlmfc\include\afx.inl

; 402  : 		AfxThrowArchiveException(CArchiveException::endOfFile);

  00098	6a 00		 push	 0
  0009a	6a 03		 push	 3
  0009c	e8 00 00 00 00	 call	 ?AfxThrowArchiveException@@YGXHPBD@Z ; AfxThrowArchiveException
$LN34@SerializeE:
; File C:\Program Files (x86)\Microsoft Visual Studio\2019\Community\VC\Tools\MSVC\14.29.30133\atlmfc\include\afxtempl.h

; 68   : 	ENSURE(nCount == 0 || pElements != NULL);

  000a1	e8 00 00 00 00	 call	 ?AfxThrowInvalidArgException@@YGXXZ ; AfxThrowInvalidArgException
$LN32@SerializeE:
  000a6	cc		 int	 3
??$SerializeElements@PAVCHighLowPtData@@@@YGXAAVCArchive@@PAPAVCHighLowPtData@@H@Z ENDP ; SerializeElements<CHighLowPtData *>
_TEXT	ENDS
; Function compile flags: /Ogtp
; File C:\Program Files (x86)\Microsoft Visual Studio\2019\Community\VC\Tools\MSVC\14.29.30133\atlmfc\include\afxtempl.h
; File C:\Program Files (x86)\Microsoft Visual Studio\2019\Community\VC\Tools\MSVC\14.29.30133\atlmfc\include\afx.inl
; File C:\Program Files (x86)\Microsoft Visual Studio\2019\Community\VC\Tools\MSVC\14.29.30133\atlmfc\include\afxtempl.h
; File C:\Program Files (x86)\Microsoft Visual Studio\2019\Community\VC\Tools\MSVC\14.29.30133\atlmfc\include\afx.inl
; File C:\Program Files (x86)\Microsoft Visual Studio\2019\Community\VC\Tools\MSVC\14.29.30133\atlmfc\include\afxtempl.h
; File C:\Program Files (x86)\Microsoft Visual Studio\2019\Community\VC\Tools\MSVC\14.29.30133\atlmfc\include\afx.inl
; File C:\Program Files (x86)\Microsoft Visual Studio\2019\Community\VC\Tools\MSVC\14.29.30133\atlmfc\include\afxtempl.h
;	COMDAT ??$SerializeElements@PAVCWavePatternData@@@@YGXAAVCArchive@@PAPAVCWavePatternData@@H@Z
_TEXT	SEGMENT
_ar$ = 8						; size = 4
_pElements$ = 12					; size = 4
_nCount$ = 16						; size = 4
??$SerializeElements@PAVCWavePatternData@@@@YGXAAVCArchive@@PAPAVCWavePatternData@@H@Z PROC ; SerializeElements<CWavePatternData *>, COMDAT

; 67   : {

  00000	55		 push	 ebp
  00001	8b ec		 mov	 ebp, esp

; 68   : 	ENSURE(nCount == 0 || pElements != NULL);

  00003	8b 4d 0c	 mov	 ecx, DWORD PTR _pElements$[ebp]
  00006	53		 push	 ebx
  00007	56		 push	 esi
  00008	8b 75 10	 mov	 esi, DWORD PTR _nCount$[ebp]
  0000b	57		 push	 edi
  0000c	85 f6		 test	 esi, esi
  0000e	74 08		 je	 SHORT $LN2@SerializeE
  00010	85 c9		 test	 ecx, ecx
  00012	0f 84 89 00 00
	00		 je	 $LN34@SerializeE
$LN2@SerializeE:
; File C:\Program Files (x86)\Microsoft Visual Studio\2019\Community\VC\Tools\MSVC\14.29.30133\atlmfc\include\afx.inl

; 212  : 	{ return (m_nMode & CArchive::load) == 0; }

  00018	8b 55 08	 mov	 edx, DWORD PTR _ar$[ebp]
  0001b	8b 42 18	 mov	 eax, DWORD PTR [edx+24]
  0001e	f7 d0		 not	 eax
  00020	a8 01		 test	 al, 1
; File C:\Program Files (x86)\Microsoft Visual Studio\2019\Community\VC\Tools\MSVC\14.29.30133\atlmfc\include\afxtempl.h

; 73   : 	if (ar.IsStoring())

  00022	74 3c		 je	 SHORT $LN10@SerializeE

; 74   : 	{
; 75   : 		TYPE* pData;
; 76   : 		UINT_PTR nElementsLeft;
; 77   : 
; 78   : 		nElementsLeft = nCount;
; 79   : 		pData = pElements;
; 80   : 		while( nElementsLeft > 0 )

  00024	85 f6		 test	 esi, esi
  00026	74 31		 je	 SHORT $LN8@SerializeE
  00028	0f 1f 84 00 00
	00 00 00	 npad	 8
$LL5@SerializeE:

; 81   : 		{
; 82   : 			UINT nElementsToWrite;
; 83   : 
; 84   : 			nElementsToWrite = UINT(__min(nElementsLeft, INT_MAX/sizeof(TYPE)));

  00030	bb ff ff ff 1f	 mov	 ebx, 536870911		; 1fffffffH
  00035	3b f3		 cmp	 esi, ebx
  00037	0f 42 de	 cmovb	 ebx, esi

; 85   : 			ar.Write(pData, nElementsToWrite*sizeof(TYPE));

  0003a	8d 3c 9d 00 00
	00 00		 lea	 edi, DWORD PTR [ebx*4]
  00041	57		 push	 edi
  00042	51		 push	 ecx
  00043	8b ca		 mov	 ecx, edx
  00045	e8 00 00 00 00	 call	 ?Write@CArchive@@QAEXPBXI@Z ; CArchive::Write

; 86   : 			nElementsLeft -= nElementsToWrite;
; 87   : 			pData += nElementsToWrite;

  0004a	8b 4d 0c	 mov	 ecx, DWORD PTR _pElements$[ebp]
  0004d	8b 55 08	 mov	 edx, DWORD PTR _ar$[ebp]
  00050	03 cf		 add	 ecx, edi
  00052	89 4d 0c	 mov	 DWORD PTR _pElements$[ebp], ecx
  00055	2b f3		 sub	 esi, ebx
  00057	75 d7		 jne	 SHORT $LL5@SerializeE
$LN8@SerializeE:
  00059	5f		 pop	 edi

; 105  : 		}
; 106  : 	}
; 107  : }

  0005a	5e		 pop	 esi
  0005b	5b		 pop	 ebx
  0005c	5d		 pop	 ebp
  0005d	c2 0c 00	 ret	 12			; 0000000cH
$LN10@SerializeE:

; 97   : 		while( nElementsLeft > 0 )

  00060	85 f6		 test	 esi, esi
  00062	74 f5		 je	 SHORT $LN8@SerializeE
$LL7@SerializeE:

; 98   : 		{
; 99   : 			UINT nElementsToRead;
; 100  : 
; 101  : 			nElementsToRead = UINT(__min(nElementsLeft, INT_MAX/sizeof(TYPE)));

  00064	bf ff ff ff 1f	 mov	 edi, 536870911		; 1fffffffH
  00069	3b f7		 cmp	 esi, edi
  0006b	0f 42 fe	 cmovb	 edi, esi

; 102  : 			ar.EnsureRead(pData, nElementsToRead*sizeof(TYPE));

  0006e	8d 1c bd 00 00
	00 00		 lea	 ebx, DWORD PTR [edi*4]
; File C:\Program Files (x86)\Microsoft Visual Studio\2019\Community\VC\Tools\MSVC\14.29.30133\atlmfc\include\afx.inl

; 399  : 	UINT nRead=Read(lpBuf, nCount);

  00075	53		 push	 ebx
  00076	51		 push	 ecx
  00077	8b ca		 mov	 ecx, edx
  00079	e8 00 00 00 00	 call	 ?Read@CArchive@@QAEIPAXI@Z ; CArchive::Read

; 400  : 	if(nRead!=nCount)

  0007e	3b c3		 cmp	 eax, ebx
  00080	75 16		 jne	 SHORT $LN23@SerializeE
; File C:\Program Files (x86)\Microsoft Visual Studio\2019\Community\VC\Tools\MSVC\14.29.30133\atlmfc\include\afxtempl.h

; 97   : 		while( nElementsLeft > 0 )

  00082	8b 4d 0c	 mov	 ecx, DWORD PTR _pElements$[ebp]
  00085	8b 55 08	 mov	 edx, DWORD PTR _ar$[ebp]

; 103  : 			nElementsLeft -= nElementsToRead;
; 104  : 			pData += nElementsToRead;

  00088	03 cb		 add	 ecx, ebx
  0008a	89 4d 0c	 mov	 DWORD PTR _pElements$[ebp], ecx
  0008d	2b f7		 sub	 esi, edi
  0008f	75 d3		 jne	 SHORT $LL7@SerializeE

; 105  : 		}
; 106  : 	}
; 107  : }

  00091	5f		 pop	 edi
  00092	5e		 pop	 esi
  00093	5b		 pop	 ebx
  00094	5d		 pop	 ebp
  00095	c2 0c 00	 ret	 12			; 0000000cH
$LN23@SerializeE:
; File C:\Program Files (x86)\Microsoft Visual Studio\2019\Community\VC\Tools\MSVC\14.29.30133\atlmfc\include\afx.inl

; 402  : 		AfxThrowArchiveException(CArchiveException::endOfFile);

  00098	6a 00		 push	 0
  0009a	6a 03		 push	 3
  0009c	e8 00 00 00 00	 call	 ?AfxThrowArchiveException@@YGXHPBD@Z ; AfxThrowArchiveException
$LN34@SerializeE:
; File C:\Program Files (x86)\Microsoft Visual Studio\2019\Community\VC\Tools\MSVC\14.29.30133\atlmfc\include\afxtempl.h

; 68   : 	ENSURE(nCount == 0 || pElements != NULL);

  000a1	e8 00 00 00 00	 call	 ?AfxThrowInvalidArgException@@YGXXZ ; AfxThrowInvalidArgException
$LN32@SerializeE:
  000a6	cc		 int	 3
??$SerializeElements@PAVCWavePatternData@@@@YGXAAVCArchive@@PAPAVCWavePatternData@@H@Z ENDP ; SerializeElements<CWavePatternData *>
_TEXT	ENDS
; Function compile flags: /Ogtp
; File D:\git\src\IBK\IBK_DRFN\ProjSrc\SrcChartEx\ChartAddIn\ChartPatternAddIn\Include_Chart\Dll_Load\IMetaTable.h
; File C:\Program Files (x86)\Microsoft Visual Studio\2019\Community\VC\Tools\MSVC\14.29.30133\atlmfc\include\afxwin1.inl
; File D:\git\src\IBK\IBK_DRFN\ProjSrc\SrcChartEx\ChartAddIn\ChartPatternAddIn\Include_Chart\Dll_Load\IMetaTable.h
;	COMDAT ??1CMultiLanguageResourceSetter@@QAE@XZ
_TEXT	SEGMENT
__$EHRec$ = -12						; size = 12
??1CMultiLanguageResourceSetter@@QAE@XZ PROC		; CMultiLanguageResourceSetter::~CMultiLanguageResourceSetter, COMDAT
; _this$ = ecx

; 1035 : 	{

  00000	55		 push	 ebp
  00001	8b ec		 mov	 ebp, esp
  00003	6a ff		 push	 -1
  00005	68 00 00 00 00	 push	 __ehhandler$??1CMultiLanguageResourceSetter@@QAE@XZ
  0000a	64 a1 00 00 00
	00		 mov	 eax, DWORD PTR fs:0
  00010	50		 push	 eax
  00011	56		 push	 esi
  00012	a1 00 00 00 00	 mov	 eax, DWORD PTR ___security_cookie
  00017	33 c5		 xor	 eax, ebp
  00019	50		 push	 eax
  0001a	8d 45 f4	 lea	 eax, DWORD PTR __$EHRec$[ebp]
  0001d	64 a3 00 00 00
	00		 mov	 DWORD PTR fs:0, eax

; 1036 : 		AfxSetResourceHandle( m_hInstance);

  00023	8b 31		 mov	 esi, DWORD PTR [ecx]
; File C:\Program Files (x86)\Microsoft Visual Studio\2019\Community\VC\Tools\MSVC\14.29.30133\atlmfc\include\afxwin1.inl

; 27   : 	{ ASSERT(hInstResource != NULL); afxCurrentResourceHandle = hInstResource; }

  00025	e8 00 00 00 00	 call	 ?AfxGetModuleState@@YGPAVAFX_MODULE_STATE@@XZ ; AfxGetModuleState
  0002a	89 70 0c	 mov	 DWORD PTR [eax+12], esi
; File D:\git\src\IBK\IBK_DRFN\ProjSrc\SrcChartEx\ChartAddIn\ChartPatternAddIn\Include_Chart\Dll_Load\IMetaTable.h

; 1037 : 	}

  0002d	8b 4d f4	 mov	 ecx, DWORD PTR __$EHRec$[ebp]
  00030	64 89 0d 00 00
	00 00		 mov	 DWORD PTR fs:0, ecx
  00037	59		 pop	 ecx
  00038	5e		 pop	 esi
  00039	8b e5		 mov	 esp, ebp
  0003b	5d		 pop	 ebp
  0003c	c3		 ret	 0
  0003d	cc		 int	 3
  0003e	cc		 int	 3
  0003f	cc		 int	 3
  00040	cc		 int	 3
  00041	cc		 int	 3
_TEXT	ENDS
;	COMDAT text$x
text$x	SEGMENT
__ehhandler$??1CMultiLanguageResourceSetter@@QAE@XZ:
  00000	90		 npad	 1
  00001	90		 npad	 1
  00002	8b 54 24 08	 mov	 edx, DWORD PTR [esp+8]
  00006	8d 42 0c	 lea	 eax, DWORD PTR [edx+12]
  00009	8b 4a f8	 mov	 ecx, DWORD PTR [edx-8]
  0000c	33 c8		 xor	 ecx, eax
  0000e	e8 00 00 00 00	 call	 @__security_check_cookie@4
  00013	b8 00 00 00 00	 mov	 eax, OFFSET __ehfuncinfo$??1CMultiLanguageResourceSetter@@QAE@XZ
  00018	e9 00 00 00 00	 jmp	 ___CxxFrameHandler3
text$x	ENDS
??1CMultiLanguageResourceSetter@@QAE@XZ ENDP		; CMultiLanguageResourceSetter::~CMultiLanguageResourceSetter
; Function compile flags: /Ogtp
; File D:\git\src\IBK\IBK_DRFN\ProjSrc\SrcChartEx\ChartAddIn\ChartPatternAddIn\Include_Chart\Dll_Load\IMetaTable.h
;	COMDAT ?LoadResourceDLL@IMetaTable@@QAEPAUHINSTANCE__@@PAUHWND__@@PAU2@@Z
_TEXT	SEGMENT
_p1$ = 8						; size = 4
_p2$ = 12						; size = 4
?LoadResourceDLL@IMetaTable@@QAEPAUHINSTANCE__@@PAUHWND__@@PAU2@@Z PROC ; IMetaTable::LoadResourceDLL, COMDAT
; _this$ = ecx

; 935  : 	DECLARE_FUNCTION2(	LoadResourceDLL,				HMODULE, AfxGetStaticModuleState()->m_hCurrentInstanceHandle, HWND, HMODULE);

  00000	55		 push	 ebp
  00001	8b ec		 mov	 ebp, esp
  00003	56		 push	 esi
  00004	8b f1		 mov	 esi, ecx
  00006	8b 46 04	 mov	 eax, DWORD PTR [esi+4]
  00009	85 c0		 test	 eax, eax
  0000b	74 4d		 je	 SHORT $LN4@LoadResour
  0000d	57		 push	 edi
  0000e	bf 80 0d 00 00	 mov	 edi, 3456		; 00000d80H
  00013	66 3b be 94 00
	00 00		 cmp	 di, WORD PTR [esi+148]
  0001a	74 23		 je	 SHORT $LN3@LoadResour
  0001c	68 00 00 00 00	 push	 OFFSET ??_C@_0BA@ENJOCHIO@LoadResourceDLL@
  00021	50		 push	 eax
  00022	c7 86 90 00 00
	00 00 00 00 00	 mov	 DWORD PTR [esi+144], 0
  0002c	ff 15 00 00 00
	00		 call	 DWORD PTR __imp__GetProcAddress@8
  00032	89 86 90 00 00
	00		 mov	 DWORD PTR [esi+144], eax
  00038	66 89 be 94 00
	00 00		 mov	 WORD PTR [esi+148], di
$LN3@LoadResour:
  0003f	8b 86 90 00 00
	00		 mov	 eax, DWORD PTR [esi+144]
  00045	5f		 pop	 edi
  00046	85 c0		 test	 eax, eax
  00048	74 10		 je	 SHORT $LN4@LoadResour
  0004a	ff 75 0c	 push	 DWORD PTR _p2$[ebp]
  0004d	ff 75 08	 push	 DWORD PTR _p1$[ebp]
  00050	ff d0		 call	 eax
  00052	83 c4 08	 add	 esp, 8
  00055	5e		 pop	 esi
  00056	5d		 pop	 ebp
  00057	c2 08 00	 ret	 8
$LN4@LoadResour:
  0005a	e8 00 00 00 00	 call	 ?AfxGetStaticModuleState@@YGPAVAFX_MODULE_STATE@@XZ ; AfxGetStaticModuleState
  0005f	5e		 pop	 esi
  00060	8b 40 08	 mov	 eax, DWORD PTR [eax+8]
  00063	5d		 pop	 ebp
  00064	c2 08 00	 ret	 8
?LoadResourceDLL@IMetaTable@@QAEPAUHINSTANCE__@@PAUHWND__@@PAU2@@Z ENDP ; IMetaTable::LoadResourceDLL
_TEXT	ENDS
; Function compile flags: /Ogtp
; File D:\git\src\IBK\IBK_DRFN\ProjSrc\SrcChartEx\ChartAddIn\ChartPatternAddIn\Include_Chart\Dll_Load\IMetaTable.h
;	COMDAT ?GetCurrentLanguageID@IMetaTable@@QAE?AW4E_LANGUAGEID@1@PAUHWND__@@@Z
_TEXT	SEGMENT
_p1$ = 8						; size = 4
?GetCurrentLanguageID@IMetaTable@@QAE?AW4E_LANGUAGEID@1@PAUHWND__@@@Z PROC ; IMetaTable::GetCurrentLanguageID, COMDAT
; _this$ = ecx

; 934  : 	DECLARE_FUNCTION1(	GetCurrentLanguageID,			E_LANGUAGEID, ENGLISH, HWND);

  00000	55		 push	 ebp
  00001	8b ec		 mov	 ebp, esp
  00003	56		 push	 esi
  00004	8b f1		 mov	 esi, ecx
  00006	8b 46 04	 mov	 eax, DWORD PTR [esi+4]
  00009	85 c0		 test	 eax, eax
  0000b	74 4a		 je	 SHORT $LN4@GetCurrent
  0000d	57		 push	 edi
  0000e	bf 80 0d 00 00	 mov	 edi, 3456		; 00000d80H
  00013	66 3b be 8c 00
	00 00		 cmp	 di, WORD PTR [esi+140]
  0001a	74 23		 je	 SHORT $LN3@GetCurrent
  0001c	68 00 00 00 00	 push	 OFFSET ??_C@_0BF@EGELCGDD@GetCurrentLanguageID@
  00021	50		 push	 eax
  00022	c7 86 88 00 00
	00 00 00 00 00	 mov	 DWORD PTR [esi+136], 0
  0002c	ff 15 00 00 00
	00		 call	 DWORD PTR __imp__GetProcAddress@8
  00032	89 86 88 00 00
	00		 mov	 DWORD PTR [esi+136], eax
  00038	66 89 be 8c 00
	00 00		 mov	 WORD PTR [esi+140], di
$LN3@GetCurrent:
  0003f	8b 86 88 00 00
	00		 mov	 eax, DWORD PTR [esi+136]
  00045	5f		 pop	 edi
  00046	85 c0		 test	 eax, eax
  00048	74 0d		 je	 SHORT $LN4@GetCurrent
  0004a	ff 75 08	 push	 DWORD PTR _p1$[ebp]
  0004d	ff d0		 call	 eax
  0004f	83 c4 04	 add	 esp, 4
  00052	5e		 pop	 esi
  00053	5d		 pop	 ebp
  00054	c2 04 00	 ret	 4
$LN4@GetCurrent:
  00057	33 c0		 xor	 eax, eax
  00059	5e		 pop	 esi
  0005a	5d		 pop	 ebp
  0005b	c2 04 00	 ret	 4
?GetCurrentLanguageID@IMetaTable@@QAE?AW4E_LANGUAGEID@1@PAUHWND__@@@Z ENDP ; IMetaTable::GetCurrentLanguageID
_TEXT	ENDS
; Function compile flags: /Ogtp
; File C:\Program Files (x86)\Microsoft Visual Studio\2019\Community\VC\Tools\MSVC\14.29.30133\atlmfc\include\afx.inl
;	COMDAT ??_GCPatternMaker@@UAEPAXI@Z
_TEXT	SEGMENT
___flags$ = 8						; size = 4
??_GCPatternMaker@@UAEPAXI@Z PROC			; CPatternMaker::`scalar deleting destructor', COMDAT
; _this$ = ecx
  00000	55		 push	 ebp
  00001	8b ec		 mov	 ebp, esp
  00003	56		 push	 esi
  00004	8b f1		 mov	 esi, ecx
  00006	e8 00 00 00 00	 call	 ??1CPatternMaker@@UAE@XZ ; CPatternMaker::~CPatternMaker
  0000b	8b 45 08	 mov	 eax, DWORD PTR ___flags$[ebp]
  0000e	a8 01		 test	 al, 1
  00010	74 22		 je	 SHORT $LN9@scalar
  00012	a8 04		 test	 al, 4
  00014	75 10		 jne	 SHORT $LN3@scalar

; 112  : 	{ ::operator delete(p); }

  00016	56		 push	 esi
  00017	e8 00 00 00 00	 call	 ??3@YAXPAX@Z		; operator delete
  0001c	83 c4 04	 add	 esp, 4
  0001f	8b c6		 mov	 eax, esi
  00021	5e		 pop	 esi
  00022	5d		 pop	 ebp
  00023	c2 04 00	 ret	 4
$LN3@scalar:
  00026	68 a0 03 00 00	 push	 928			; 000003a0H
  0002b	56		 push	 esi
  0002c	e8 00 00 00 00	 call	 ?__global_delete@@YAXPAXI@Z ; __global_delete
  00031	83 c4 08	 add	 esp, 8
$LN9@scalar:
  00034	8b c6		 mov	 eax, esi
  00036	5e		 pop	 esi
  00037	5d		 pop	 ebp
  00038	c2 04 00	 ret	 4
??_GCPatternMaker@@UAEPAXI@Z ENDP			; CPatternMaker::`scalar deleting destructor'
_TEXT	ENDS
; Function compile flags: /Ogtp
; File D:\git\src\IBK\IBK_DRFN\ProjSrc\SrcChartEx\ChartAddIn\ChartPatternAddIn\PatternMaker.cpp
; File C:\Program Files (x86)\Microsoft Visual Studio\2019\Community\VC\Tools\MSVC\14.29.30133\atlmfc\include\atltypes.h
; File D:\git\src\IBK\IBK_DRFN\ProjSrc\SrcChartEx\ChartAddIn\ChartPatternAddIn\PatternMaker.cpp
; File C:\Program Files (x86)\Microsoft Visual Studio\2019\Community\VC\Tools\MSVC\14.29.30133\atlmfc\include\afxtempl.h
; File D:\git\src\IBK\IBK_DRFN\ProjSrc\SrcChartEx\ChartAddIn\ChartPatternAddIn\PatternMaker.cpp
; File C:\Program Files (x86)\Microsoft Visual Studio\2019\Community\VC\Tools\MSVC\14.29.30133\atlmfc\include\atlsimpstr.h
; File D:\git\src\IBK\IBK_DRFN\ProjSrc\SrcChartEx\ChartAddIn\ChartPatternAddIn\PatternMaker.cpp
; File D:\git\src\IBK\IBK_DRFN\ProjSrc\SrcChartEx\ChartAddIn\ChartPatternAddIn\Include_Chart\Dll_Load\IMetaTable.h
; File D:\git\src\IBK\IBK_DRFN\ProjSrc\SrcChartEx\ChartAddIn\ChartPatternAddIn\PatternMaker.cpp
; File C:\Program Files (x86)\Microsoft Visual Studio\2019\Community\VC\Tools\MSVC\14.29.30133\atlmfc\include\afxwin1.inl
; File D:\git\src\IBK\IBK_DRFN\ProjSrc\SrcChartEx\ChartAddIn\ChartPatternAddIn\Include_Chart\Dll_Load\IMetaTable.h
; File C:\Program Files (x86)\Microsoft Visual Studio\2019\Community\VC\Tools\MSVC\14.29.30133\atlmfc\include\afxwin1.inl
; File D:\git\src\IBK\IBK_DRFN\ProjSrc\SrcChartEx\ChartAddIn\ChartPatternAddIn\PatternMaker.cpp
; File C:\Program Files (x86)\Microsoft Visual Studio\2019\Community\VC\Tools\MSVC\14.29.30133\atlmfc\include\cstringt.h
; File D:\git\src\IBK\IBK_DRFN\ProjSrc\SrcChartEx\ChartAddIn\ChartPatternAddIn\PatternMaker.cpp
; File C:\Program Files (x86)\Microsoft Visual Studio\2019\Community\VC\Tools\MSVC\14.29.30133\atlmfc\include\cstringt.h
; File C:\Program Files (x86)\Microsoft Visual Studio\2019\Community\VC\Tools\MSVC\14.29.30133\atlmfc\include\atlsimpstr.h
; File C:\Program Files (x86)\Microsoft Visual Studio\2019\Community\VC\Tools\MSVC\14.29.30133\atlmfc\include\cstringt.h
; File C:\Program Files (x86)\Microsoft Visual Studio\2019\Community\VC\Tools\MSVC\14.29.30133\atlmfc\include\atlsimpstr.h
; File C:\Program Files (x86)\Microsoft Visual Studio\2019\Community\VC\Tools\MSVC\14.29.30133\atlmfc\include\cstringt.h
; File C:\Program Files (x86)\Microsoft Visual Studio\2019\Community\VC\Tools\MSVC\14.29.30133\atlmfc\include\atlsimpstr.h
; File C:\Program Files (x86)\Microsoft Visual Studio\2019\Community\VC\Tools\MSVC\14.29.30133\atlmfc\include\afxwin1.inl
; File C:\Program Files (x86)\Microsoft Visual Studio\2019\Community\VC\Tools\MSVC\14.29.30133\atlmfc\include\cstringt.h
; File C:\Program Files (x86)\Microsoft Visual Studio\2019\Community\VC\Tools\MSVC\14.29.30133\atlmfc\include\afxwin1.inl
; File D:\git\src\IBK\IBK_DRFN\ProjSrc\SrcChartEx\ChartAddIn\ChartPatternAddIn\PatternMaker.cpp
; File C:\Program Files (x86)\Microsoft Visual Studio\2019\Community\VC\Tools\MSVC\14.29.30133\atlmfc\include\cstringt.h
; File D:\git\src\IBK\IBK_DRFN\ProjSrc\SrcChartEx\ChartAddIn\ChartPatternAddIn\PatternMaker.cpp
; File C:\Program Files (x86)\Microsoft Visual Studio\2019\Community\VC\Tools\MSVC\14.29.30133\atlmfc\include\cstringt.h
; File C:\Program Files (x86)\Microsoft Visual Studio\2019\Community\VC\Tools\MSVC\14.29.30133\atlmfc\include\atlsimpstr.h
; File C:\Program Files (x86)\Microsoft Visual Studio\2019\Community\VC\Tools\MSVC\14.29.30133\atlmfc\include\cstringt.h
; File C:\Program Files (x86)\Microsoft Visual Studio\2019\Community\VC\Tools\MSVC\14.29.30133\atlmfc\include\atlsimpstr.h
; File C:\Program Files (x86)\Microsoft Visual Studio\2019\Community\VC\Tools\MSVC\14.29.30133\atlmfc\include\cstringt.h
; File C:\Program Files (x86)\Microsoft Visual Studio\2019\Community\VC\Tools\MSVC\14.29.30133\atlmfc\include\atlsimpstr.h
; File C:\Program Files (x86)\Microsoft Visual Studio\2019\Community\VC\Tools\MSVC\14.29.30133\atlmfc\include\afxwin1.inl
; File C:\Program Files (x86)\Microsoft Visual Studio\2019\Community\VC\Tools\MSVC\14.29.30133\atlmfc\include\cstringt.h
; File C:\Program Files (x86)\Microsoft Visual Studio\2019\Community\VC\Tools\MSVC\14.29.30133\atlmfc\include\afxwin1.inl
; File D:\git\src\IBK\IBK_DRFN\ProjSrc\SrcChartEx\ChartAddIn\ChartPatternAddIn\PatternMaker.cpp
; File C:\Program Files (x86)\Microsoft Visual Studio\2019\Community\VC\Tools\MSVC\14.29.30133\atlmfc\include\cstringt.h
; File D:\git\src\IBK\IBK_DRFN\ProjSrc\SrcChartEx\ChartAddIn\ChartPatternAddIn\PatternMaker.cpp
; File C:\Program Files (x86)\Microsoft Visual Studio\2019\Community\VC\Tools\MSVC\14.29.30133\atlmfc\include\cstringt.h
; File C:\Program Files (x86)\Microsoft Visual Studio\2019\Community\VC\Tools\MSVC\14.29.30133\atlmfc\include\atlsimpstr.h
; File C:\Program Files (x86)\Microsoft Visual Studio\2019\Community\VC\Tools\MSVC\14.29.30133\atlmfc\include\cstringt.h
; File C:\Program Files (x86)\Microsoft Visual Studio\2019\Community\VC\Tools\MSVC\14.29.30133\atlmfc\include\atlsimpstr.h
; File C:\Program Files (x86)\Microsoft Visual Studio\2019\Community\VC\Tools\MSVC\14.29.30133\atlmfc\include\cstringt.h
; File C:\Program Files (x86)\Microsoft Visual Studio\2019\Community\VC\Tools\MSVC\14.29.30133\atlmfc\include\atlsimpstr.h
; File C:\Program Files (x86)\Microsoft Visual Studio\2019\Community\VC\Tools\MSVC\14.29.30133\atlmfc\include\afxwin1.inl
; File C:\Program Files (x86)\Microsoft Visual Studio\2019\Community\VC\Tools\MSVC\14.29.30133\atlmfc\include\cstringt.h
; File C:\Program Files (x86)\Microsoft Visual Studio\2019\Community\VC\Tools\MSVC\14.29.30133\atlmfc\include\afxwin1.inl
; File D:\git\src\IBK\IBK_DRFN\ProjSrc\SrcChartEx\ChartAddIn\ChartPatternAddIn\PatternMaker.cpp
; File C:\Program Files (x86)\Microsoft Visual Studio\2019\Community\VC\Tools\MSVC\14.29.30133\atlmfc\include\cstringt.h
; File D:\git\src\IBK\IBK_DRFN\ProjSrc\SrcChartEx\ChartAddIn\ChartPatternAddIn\PatternMaker.cpp
; File C:\Program Files (x86)\Microsoft Visual Studio\2019\Community\VC\Tools\MSVC\14.29.30133\atlmfc\include\cstringt.h
; File C:\Program Files (x86)\Microsoft Visual Studio\2019\Community\VC\Tools\MSVC\14.29.30133\atlmfc\include\atlsimpstr.h
; File C:\Program Files (x86)\Microsoft Visual Studio\2019\Community\VC\Tools\MSVC\14.29.30133\atlmfc\include\cstringt.h
; File C:\Program Files (x86)\Microsoft Visual Studio\2019\Community\VC\Tools\MSVC\14.29.30133\atlmfc\include\atlsimpstr.h
; File C:\Program Files (x86)\Microsoft Visual Studio\2019\Community\VC\Tools\MSVC\14.29.30133\atlmfc\include\cstringt.h
; File C:\Program Files (x86)\Microsoft Visual Studio\2019\Community\VC\Tools\MSVC\14.29.30133\atlmfc\include\atlsimpstr.h
; File C:\Program Files (x86)\Microsoft Visual Studio\2019\Community\VC\Tools\MSVC\14.29.30133\atlmfc\include\afxwin1.inl
; File C:\Program Files (x86)\Microsoft Visual Studio\2019\Community\VC\Tools\MSVC\14.29.30133\atlmfc\include\cstringt.h
; File C:\Program Files (x86)\Microsoft Visual Studio\2019\Community\VC\Tools\MSVC\14.29.30133\atlmfc\include\afxwin1.inl
; File D:\git\src\IBK\IBK_DRFN\ProjSrc\SrcChartEx\ChartAddIn\ChartPatternAddIn\PatternMaker.cpp
; File C:\Program Files (x86)\Microsoft Visual Studio\2019\Community\VC\Tools\MSVC\14.29.30133\atlmfc\include\cstringt.h
; File D:\git\src\IBK\IBK_DRFN\ProjSrc\SrcChartEx\ChartAddIn\ChartPatternAddIn\PatternMaker.cpp
; File C:\Program Files (x86)\Microsoft Visual Studio\2019\Community\VC\Tools\MSVC\14.29.30133\atlmfc\include\cstringt.h
; File C:\Program Files (x86)\Microsoft Visual Studio\2019\Community\VC\Tools\MSVC\14.29.30133\atlmfc\include\atlsimpstr.h
; File C:\Program Files (x86)\Microsoft Visual Studio\2019\Community\VC\Tools\MSVC\14.29.30133\atlmfc\include\cstringt.h
; File C:\Program Files (x86)\Microsoft Visual Studio\2019\Community\VC\Tools\MSVC\14.29.30133\atlmfc\include\atlsimpstr.h
; File C:\Program Files (x86)\Microsoft Visual Studio\2019\Community\VC\Tools\MSVC\14.29.30133\atlmfc\include\cstringt.h
; File C:\Program Files (x86)\Microsoft Visual Studio\2019\Community\VC\Tools\MSVC\14.29.30133\atlmfc\include\atlsimpstr.h
; File C:\Program Files (x86)\Microsoft Visual Studio\2019\Community\VC\Tools\MSVC\14.29.30133\atlmfc\include\afxwin1.inl
; File C:\Program Files (x86)\Microsoft Visual Studio\2019\Community\VC\Tools\MSVC\14.29.30133\atlmfc\include\cstringt.h
; File C:\Program Files (x86)\Microsoft Visual Studio\2019\Community\VC\Tools\MSVC\14.29.30133\atlmfc\include\afxwin1.inl
; File D:\git\src\IBK\IBK_DRFN\ProjSrc\SrcChartEx\ChartAddIn\ChartPatternAddIn\PatternMaker.cpp
; File C:\Program Files (x86)\Microsoft Visual Studio\2019\Community\VC\Tools\MSVC\14.29.30133\atlmfc\include\cstringt.h
; File D:\git\src\IBK\IBK_DRFN\ProjSrc\SrcChartEx\ChartAddIn\ChartPatternAddIn\PatternMaker.cpp
; File C:\Program Files (x86)\Microsoft Visual Studio\2019\Community\VC\Tools\MSVC\14.29.30133\atlmfc\include\cstringt.h
; File C:\Program Files (x86)\Microsoft Visual Studio\2019\Community\VC\Tools\MSVC\14.29.30133\atlmfc\include\atlsimpstr.h
; File C:\Program Files (x86)\Microsoft Visual Studio\2019\Community\VC\Tools\MSVC\14.29.30133\atlmfc\include\cstringt.h
; File C:\Program Files (x86)\Microsoft Visual Studio\2019\Community\VC\Tools\MSVC\14.29.30133\atlmfc\include\atlsimpstr.h
; File C:\Program Files (x86)\Microsoft Visual Studio\2019\Community\VC\Tools\MSVC\14.29.30133\atlmfc\include\cstringt.h
; File C:\Program Files (x86)\Microsoft Visual Studio\2019\Community\VC\Tools\MSVC\14.29.30133\atlmfc\include\atlsimpstr.h
; File C:\Program Files (x86)\Microsoft Visual Studio\2019\Community\VC\Tools\MSVC\14.29.30133\atlmfc\include\afxwin1.inl
; File C:\Program Files (x86)\Microsoft Visual Studio\2019\Community\VC\Tools\MSVC\14.29.30133\atlmfc\include\cstringt.h
; File C:\Program Files (x86)\Microsoft Visual Studio\2019\Community\VC\Tools\MSVC\14.29.30133\atlmfc\include\afxwin1.inl
; File D:\git\src\IBK\IBK_DRFN\ProjSrc\SrcChartEx\ChartAddIn\ChartPatternAddIn\PatternMaker.cpp
; File C:\Program Files (x86)\Microsoft Visual Studio\2019\Community\VC\Tools\MSVC\14.29.30133\atlmfc\include\afx.inl
; File D:\git\src\IBK\IBK_DRFN\ProjSrc\SrcChartEx\ChartAddIn\ChartPatternAddIn\PatternMaker.cpp
; File C:\Program Files (x86)\Microsoft Visual Studio\2019\Community\VC\Tools\MSVC\14.29.30133\atlmfc\include\afxtempl.h
; File D:\git\src\IBK\IBK_DRFN\ProjSrc\SrcChartEx\ChartAddIn\ChartPatternAddIn\PatternMaker.cpp
; File C:\Program Files (x86)\Microsoft Visual Studio\2019\Community\VC\Tools\MSVC\14.29.30133\atlmfc\include\afxtempl.h
; File D:\git\src\IBK\IBK_DRFN\ProjSrc\SrcChartEx\ChartAddIn\ChartPatternAddIn\PatternMaker.cpp
; File D:\git\src\IBK\IBK_DRFN\ProjSrc\SrcChartEx\ChartAddIn\ChartPatternAddIn\Include_Chart\Dll_Load\IMetaTable.h
; File C:\Program Files (x86)\Microsoft Visual Studio\2019\Community\VC\Tools\MSVC\14.29.30133\atlmfc\include\afxwin1.inl
; File D:\git\src\IBK\IBK_DRFN\ProjSrc\SrcChartEx\ChartAddIn\ChartPatternAddIn\PatternMaker.cpp
; File C:\Program Files (x86)\Microsoft Visual Studio\2019\Community\VC\Tools\MSVC\14.29.30133\atlmfc\include\afxwin1.inl
; File D:\git\src\IBK\IBK_DRFN\ProjSrc\SrcChartEx\ChartAddIn\ChartPatternAddIn\PatternMaker.cpp
;	COMDAT ?DrawCandlePattern@CPatternMaker@@QAEXPAVCDC@@HHNVCRect@@@Z
_TEXT	SEGMENT
$T2 = -112						; size = 4
___mlrs__$3 = -108					; size = 4
$T4 = -104						; size = 4
_strPatternName$ = -100					; size = 4
_nPointCnt$1$ = -96					; size = 4
_i$1$ = -92						; size = 4
_this$GSCopy$1$ = -88					; size = 4
_this$1$ = -84						; size = 4
_pCandlePatternData$1$ = -84				; size = 4
_nIndex$1$ = -80					; size = 4
_nX1$1$ = -80						; size = 4
$T5 = -76						; size = 4
$T6 = -72						; size = 4
$T7 = -68						; size = 4
$T8 = -64						; size = 4
$T9 = -60						; size = 4
$T10 = -56						; size = 4
_p_pDC$GSCopy$1$ = -52					; size = 4
_iTrust$1$ = -48					; size = 4
$T11 = -48						; size = 4
_strPatternName$12 = -44				; size = 4
_strN$13 = -40						; size = 4
$T14 = -36						; size = 4
_rectText$ = -32					; size = 16
__$ArrayPad$ = -16					; size = 4
__$EHRec$ = -12						; size = 12
_p_pDC$ = 8						; size = 4
_nStartIndex$ = 12					; size = 4
_nEndIndex$ = 16					; size = 4
_dCandleWidth$ = 20					; size = 8
_rctGraphRegion$ = 28					; size = 16
?DrawCandlePattern@CPatternMaker@@QAEXPAVCDC@@HHNVCRect@@@Z PROC ; CPatternMaker::DrawCandlePattern, COMDAT
; _this$ = ecx

; 3167 : {

  00000	55		 push	 ebp
  00001	8b ec		 mov	 ebp, esp
  00003	6a ff		 push	 -1
  00005	68 00 00 00 00	 push	 __ehhandler$?DrawCandlePattern@CPatternMaker@@QAEXPAVCDC@@HHNVCRect@@@Z
  0000a	64 a1 00 00 00
	00		 mov	 eax, DWORD PTR fs:0
  00010	50		 push	 eax
  00011	83 ec 64	 sub	 esp, 100		; 00000064H
  00014	a1 00 00 00 00	 mov	 eax, DWORD PTR ___security_cookie
  00019	33 c5		 xor	 eax, ebp
  0001b	89 45 f0	 mov	 DWORD PTR __$ArrayPad$[ebp], eax
  0001e	56		 push	 esi
  0001f	57		 push	 edi
  00020	50		 push	 eax
  00021	8d 45 f4	 lea	 eax, DWORD PTR __$EHRec$[ebp]
  00024	64 a3 00 00 00
	00		 mov	 DWORD PTR fs:0, eax
  0002a	8b f1		 mov	 esi, ecx
  0002c	89 75 a8	 mov	 DWORD PTR _this$GSCopy$1$[ebp], esi
  0002f	8b 45 08	 mov	 eax, DWORD PTR _p_pDC$[ebp]

; 3168 : 	// Draw Candle Pattern
; 3169 : 	int		nX1, nY1, nX2, nY2;
; 3170 : 	int		nX3, nY3, nX4, nY4;
; 3171 : 	int		nNeckXPos1, nNeckYPos1, nNeckXPos2, nNeckYPos2;
; 3172 : 	int		nNeckYLength1, nNeckYLength2, nNeckXLength;
; 3173 : 	CCandlePatternData* pCandlePatternData = NULL;
; 3174 : 	int nPointCnt = m_aryCandlePatternData.GetSize();
; 3175 : 	CCandlePatternPosInfo* pInfo = NULL;
; 3176 : 	BOOL	bIsDrawReady;
; 3177 : 	CString	strPatternName;

  00032	8d 4d 9c	 lea	 ecx, DWORD PTR _strPatternName$[ebp]
  00035	89 45 cc	 mov	 DWORD PTR _p_pDC$GSCopy$1$[ebp], eax
  00038	33 c0		 xor	 eax, eax
  0003a	89 45 dc	 mov	 DWORD PTR $T14[ebp], eax
  0003d	89 45 d0	 mov	 DWORD PTR $T11[ebp], eax
  00040	8b 86 c8 02 00
	00		 mov	 eax, DWORD PTR [esi+712]
  00046	89 45 a0	 mov	 DWORD PTR _nPointCnt$1$[ebp], eax
  00049	ff 15 00 00 00
	00		 call	 DWORD PTR __imp_??0?$CStringT@DV?$StrTraitMFC_DLL@DV?$ChTraitsCRT@D@ATL@@@@@ATL@@QAE@XZ
  0004f	0f 57 c0	 xorps	 xmm0, xmm0
  00052	c7 45 fc 00 00
	00 00		 mov	 DWORD PTR __$EHRec$[ebp+8], 0

; 3182 : 	DeleteCandlePatternPosInfo();

  00059	8b ce		 mov	 ecx, esi
; File C:\Program Files (x86)\Microsoft Visual Studio\2019\Community\VC\Tools\MSVC\14.29.30133\atlmfc\include\atltypes.h

; 528  : 	left = 0;

  0005b	0f 11 45 e0	 movups	 XMMWORD PTR _rectText$[ebp], xmm0
; File D:\git\src\IBK\IBK_DRFN\ProjSrc\SrcChartEx\ChartAddIn\ChartPatternAddIn\PatternMaker.cpp

; 3182 : 	DeleteCandlePatternPosInfo();

  0005f	e8 00 00 00 00	 call	 ?DeleteCandlePatternPosInfo@CPatternMaker@@QAEXXZ ; CPatternMaker::DeleteCandlePatternPosInfo

; 3183 : 	BOOL bDisplay;
; 3184 : 	for (int i = 0; i < nPointCnt; i++)

  00064	33 ff		 xor	 edi, edi
  00066	89 7d a4	 mov	 DWORD PTR _i$1$[ebp], edi
  00069	39 7d a0	 cmp	 DWORD PTR _nPointCnt$1$[ebp], edi
  0006c	0f 8e c6 05 00
	00		 jle	 $LN3@DrawCandle
$LL4@DrawCandle:

; 3185 : 	{
; 3186 : 		//     
; 3187 : 		//if( m_PatternEnvData.m_bNotDrawAll) break;
; 3188 : 
; 3189 : 		nX1 = nY1 = nX2 = nY2 = 0;
; 3190 : 		nX3 = nY3 = nX4 = nY4 = 0;
; 3191 : 		nNeckXPos1 = nNeckYPos1 = nNeckXPos2 = nNeckYPos2 = 0;
; 3192 : 		nNeckYLength1 = nNeckYLength2 = nNeckXLength = 0;
; 3193 : 		bIsDrawReady	= FALSE;
; 3194 : 		strPatternName	= _T("");

  00072	68 00 00 00 00	 push	 OFFSET ??_C@_00CNPNBAHC@@
  00077	8d 4d 9c	 lea	 ecx, DWORD PTR _strPatternName$[ebp]
  0007a	ff 15 00 00 00
	00		 call	 DWORD PTR __imp_??4?$CStringT@DV?$StrTraitMFC_DLL@DV?$ChTraitsCRT@D@ATL@@@@@ATL@@QAEAAV01@PBD@Z
; File C:\Program Files (x86)\Microsoft Visual Studio\2019\Community\VC\Tools\MSVC\14.29.30133\atlmfc\include\afxtempl.h

; 288  : 	if(nIndex >= 0 && nIndex < m_nSize)

  00080	85 ff		 test	 edi, edi
  00082	0f 88 d6 05 00
	00		 js	 $LN221@DrawCandle
  00088	3b be c8 02 00
	00		 cmp	 edi, DWORD PTR [esi+712]
  0008e	0f 8d ca 05 00
	00		 jge	 $LN221@DrawCandle

; 289  : 		return m_pData[nIndex];

  00094	8b 86 c4 02 00
	00		 mov	 eax, DWORD PTR [esi+708]
; File D:\git\src\IBK\IBK_DRFN\ProjSrc\SrcChartEx\ChartAddIn\ChartPatternAddIn\PatternMaker.cpp

; 3196 : 		pCandlePatternData = m_aryCandlePatternData.GetAt(i);

  0009a	8b 3c b8	 mov	 edi, DWORD PTR [eax+edi*4]
  0009d	89 7d ac	 mov	 DWORD PTR _pCandlePatternData$1$[ebp], edi

; 3197 : 		if ( !pCandlePatternData)	continue;

  000a0	85 ff		 test	 edi, edi
  000a2	0f 84 80 05 00
	00		 je	 $LN2@DrawCandle

; 3198 : 
; 3199 : 		bDisplay = m_PatternEnvData.IsDisplayCandle(pCandlePatternData->m_nCandlePtnType);

  000a8	ff 77 10	 push	 DWORD PTR [edi+16]
  000ab	8d 4e 20	 lea	 ecx, DWORD PTR [esi+32]
  000ae	e8 00 00 00 00	 call	 ?IsDisplayCandle@CPatternEnvData@@QAEHH@Z ; CPatternEnvData::IsDisplayCandle

; 3200 : 		if(!bDisplay)

  000b3	85 c0		 test	 eax, eax
  000b5	0f 84 6d 05 00
	00		 je	 $LN2@DrawCandle

; 3201 : 			continue;
; 3202 : 
; 3203 : 		if ( //(pCandlePatternData->m_nStartPos >= nStartIndex) && (pCandlePatternData->m_nStartPos <= nEndIndex) &&
; 3204 : 			(pCandlePatternData->m_nEndPos >= nStartIndex) && (pCandlePatternData->m_nEndPos <= nEndIndex)	)

  000bb	8b 47 18	 mov	 eax, DWORD PTR [edi+24]
  000be	3b 45 0c	 cmp	 eax, DWORD PTR _nStartIndex$[ebp]
  000c1	0f 8c 61 05 00
	00		 jl	 $LN2@DrawCandle
  000c7	3b 45 10	 cmp	 eax, DWORD PTR _nEndIndex$[ebp]
  000ca	0f 8f 58 05 00
	00		 jg	 $LN2@DrawCandle

; 3205 : 		{
; 3206 : 			int iTrust = m_cpCandlePattern.GetCandlePatternTrust(pCandlePatternData->m_nCandlePtnType);

  000d0	ff 77 10	 push	 DWORD PTR [edi+16]
  000d3	8d 8e 58 02 00
	00		 lea	 ecx, DWORD PTR [esi+600]
  000d9	e8 00 00 00 00	 call	 ?GetCandlePatternTrust@CCandlePattern@@QAEHH@Z ; CCandlePattern::GetCandlePatternTrust

; 1093 : 	return m_pIChartManager->GetXPosition( m_strRQ, ( int)dDataOffset, 0);

  000de	8b 4e 04	 mov	 ecx, DWORD PTR [esi+4]
  000e1	6a 00		 push	 0
  000e3	ff 77 18	 push	 DWORD PTR [edi+24]

; 3205 : 		{
; 3206 : 			int iTrust = m_cpCandlePattern.GetCandlePatternTrust(pCandlePatternData->m_nCandlePtnType);

  000e6	89 45 d0	 mov	 DWORD PTR _iTrust$1$[ebp], eax

; 1093 : 	return m_pIChartManager->GetXPosition( m_strRQ, ( int)dDataOffset, 0);

  000e9	8b 11		 mov	 edx, DWORD PTR [ecx]
  000eb	ff b6 98 03 00
	00		 push	 DWORD PTR [esi+920]
  000f1	8b 52 74	 mov	 edx, DWORD PTR [edx+116]
  000f4	ff d2		 call	 edx

; 3207 : 			//dDataOffset = pCandlePatternData->m_nEndPos;
; 3208 : 			dDataOffset = pCandlePatternData->m_nEndPos;
; 3209 : 			nX1 = GetXPositoin( dDataOffset, dCandleWidth, rctGraphRegion);

  000f6	89 45 b0	 mov	 DWORD PTR _nX1$1$[ebp], eax

; 3210 : 			if(iTrust == UPWARD_LEVEL1 || iTrust == UPWARD_LEVEL2 || iTrust == UPWARD_LEVEL3)

  000f9	8b 45 d0	 mov	 eax, DWORD PTR _iTrust$1$[ebp]
  000fc	83 f8 03	 cmp	 eax, 3
  000ff	74 57		 je	 SHORT $LN12@DrawCandle
  00101	83 f8 02	 cmp	 eax, 2
  00104	74 52		 je	 SHORT $LN12@DrawCandle
  00106	83 f8 01	 cmp	 eax, 1
  00109	74 4d		 je	 SHORT $LN12@DrawCandle

; 3215 : 			}else
; 3216 : 			{
; 3217 : 				nY1 = m_pIChartOCX->ConvertDataToYPosition( pCandlePatternData->m_dHigh, m_dViewMax, m_dViewMin, 

  0010b	ff b6 40 02 00
	00		 push	 DWORD PTR [esi+576]
  00111	8b 4e 08	 mov	 ecx, DWORD PTR [esi+8]
  00114	ff b6 3c 02 00
	00		 push	 DWORD PTR [esi+572]
  0011a	f2 0f 10 86 48
	02 00 00	 movsd	 xmm0, QWORD PTR [esi+584]
  00122	ff 75 28	 push	 DWORD PTR _rctGraphRegion$[ebp+12]
  00125	8b 01		 mov	 eax, DWORD PTR [ecx]
  00127	ff 75 20	 push	 DWORD PTR _rctGraphRegion$[ebp+4]
  0012a	83 ec 18	 sub	 esp, 24			; 00000018H
  0012d	8b 80 a4 00 00
	00		 mov	 eax, DWORD PTR [eax+164]
  00133	f2 0f 11 44 24
	10		 movsd	 QWORD PTR [esp+16], xmm0
  00139	f2 0f 10 86 50
	02 00 00	 movsd	 xmm0, QWORD PTR [esi+592]
  00141	f2 0f 11 44 24
	08		 movsd	 QWORD PTR [esp+8], xmm0
  00147	f2 0f 10 47 50	 movsd	 xmm0, QWORD PTR [edi+80]
  0014c	f2 0f 11 04 24	 movsd	 QWORD PTR [esp], xmm0
  00151	ff d0		 call	 eax

; 3218 : 					rctGraphRegion.top, rctGraphRegion.bottom, m_bLog, m_bReverse);
; 3219 : 				rectText.top	= nY1-18;

  00153	83 c0 ee	 add	 eax, -18		; ffffffeeH
  00156	eb 4b		 jmp	 SHORT $LN231@DrawCandle
$LN12@DrawCandle:

; 3211 : 			{
; 3212 : 				nY1 = m_pIChartOCX->ConvertDataToYPosition( pCandlePatternData->m_dLow, m_dViewMax, m_dViewMin, 

  00158	ff b6 40 02 00
	00		 push	 DWORD PTR [esi+576]
  0015e	8b 4e 08	 mov	 ecx, DWORD PTR [esi+8]
  00161	ff b6 3c 02 00
	00		 push	 DWORD PTR [esi+572]
  00167	f2 0f 10 86 48
	02 00 00	 movsd	 xmm0, QWORD PTR [esi+584]
  0016f	ff 75 28	 push	 DWORD PTR _rctGraphRegion$[ebp+12]
  00172	8b 01		 mov	 eax, DWORD PTR [ecx]
  00174	ff 75 20	 push	 DWORD PTR _rctGraphRegion$[ebp+4]
  00177	83 ec 18	 sub	 esp, 24			; 00000018H
  0017a	8b 80 a4 00 00
	00		 mov	 eax, DWORD PTR [eax+164]
  00180	f2 0f 11 44 24
	10		 movsd	 QWORD PTR [esp+16], xmm0
  00186	f2 0f 10 86 50
	02 00 00	 movsd	 xmm0, QWORD PTR [esi+592]
  0018e	f2 0f 11 44 24
	08		 movsd	 QWORD PTR [esp+8], xmm0
  00194	f2 0f 10 47 58	 movsd	 xmm0, QWORD PTR [edi+88]
  00199	f2 0f 11 04 24	 movsd	 QWORD PTR [esp], xmm0
  0019e	ff d0		 call	 eax

; 3213 : 					rctGraphRegion.top, rctGraphRegion.bottom, m_bLog, m_bReverse);
; 3214 : 				rectText.top	= nY1+10;

  001a0	83 c0 0a	 add	 eax, 10			; 0000000aH
$LN231@DrawCandle:

; 3220 : 			}
; 3221 : 			CString strPatternName = "";

  001a3	68 00 00 00 00	 push	 OFFSET ??_C@_00CNPNBAHC@@
  001a8	8d 4d d4	 lea	 ecx, DWORD PTR _strPatternName$12[ebp]
  001ab	89 45 e4	 mov	 DWORD PTR _rectText$[ebp+4], eax
  001ae	ff 15 00 00 00
	00		 call	 DWORD PTR __imp_??0?$CStringT@DV?$StrTraitMFC_DLL@DV?$ChTraitsCRT@D@ATL@@@@@ATL@@QAE@PBD@Z

; 3222 : 			if(m_PatternEnvData.m_bDrawPatternName)

  001b4	83 be a8 00 00
	00 00		 cmp	 DWORD PTR [esi+168], 0
  001bb	c6 45 fc 01	 mov	 BYTE PTR __$EHRec$[ebp+8], 1
  001bf	74 2d		 je	 SHORT $LN13@DrawCandle

; 3223 : 				strPatternName = m_cpCandlePattern.GetCandlePatternName(pCandlePatternData->m_nCandlePtnType);

  001c1	ff 77 10	 push	 DWORD PTR [edi+16]
  001c4	8d 45 98	 lea	 eax, DWORD PTR $T4[ebp]
  001c7	50		 push	 eax
  001c8	8d 8e 58 02 00
	00		 lea	 ecx, DWORD PTR [esi+600]
  001ce	e8 00 00 00 00	 call	 ?GetCandlePatternName@CCandlePattern@@QAE?AV?$CStringT@DV?$StrTraitMFC_DLL@DV?$ChTraitsCRT@D@ATL@@@@@ATL@@H@Z ; CCandlePattern::GetCandlePatternName
  001d3	50		 push	 eax
  001d4	8d 4d d4	 lea	 ecx, DWORD PTR _strPatternName$12[ebp]
  001d7	c6 45 fc 02	 mov	 BYTE PTR __$EHRec$[ebp+8], 2
  001db	ff 15 00 00 00
	00		 call	 DWORD PTR __imp_??4?$CStringT@DV?$StrTraitMFC_DLL@DV?$ChTraitsCRT@D@ATL@@@@@ATL@@QAEAAV01@ABV01@@Z
  001e1	8d 4d 98	 lea	 ecx, DWORD PTR $T4[ebp]
  001e4	c6 45 fc 01	 mov	 BYTE PTR __$EHRec$[ebp+8], 1
  001e8	ff 15 00 00 00
	00		 call	 DWORD PTR __imp_??1?$CStringT@DV?$StrTraitMFC_DLL@DV?$ChTraitsCRT@D@ATL@@@@@ATL@@QAE@XZ
$LN13@DrawCandle:

; 3224 : 
; 3225 : 			rectText.left	= nX1-6;

  001ee	8b 4d b0	 mov	 ecx, DWORD PTR _nX1$1$[ebp]

; 3227 : 
; 3228 : // 2008.02.20 by LYH >>
; 3229 : 			IMetaTable::E_LANGUAGEID eLanguageID = g_iMetaTable.GetCurrentLanguageID( m_hOcxWnd);

  001f1	8b be 9c 03 00
	00		 mov	 edi, DWORD PTR [esi+924]
  001f7	8d 41 fa	 lea	 eax, DWORD PTR [ecx-6]
  001fa	89 45 e0	 mov	 DWORD PTR _rectText$[ebp], eax
; File C:\Program Files (x86)\Microsoft Visual Studio\2019\Community\VC\Tools\MSVC\14.29.30133\atlmfc\include\atlsimpstr.h

; 519  : 		return( GetData()->nDataLength );

  001fd	8b 45 d4	 mov	 eax, DWORD PTR _strPatternName$12[ebp]
  00200	8b 40 f4	 mov	 eax, DWORD PTR [eax-12]
; File D:\git\src\IBK\IBK_DRFN\ProjSrc\SrcChartEx\ChartAddIn\ChartPatternAddIn\PatternMaker.cpp

; 3226 : 			rectText.right	= rectText.left+12 + strPatternName.GetLength()*12;

  00203	8d 04 40	 lea	 eax, DWORD PTR [eax+eax*2]
  00206	8d 04 85 06 00
	00 00		 lea	 eax, DWORD PTR [eax*4+6]
  0020d	03 c1		 add	 eax, ecx
  0020f	89 45 e8	 mov	 DWORD PTR _rectText$[ebp+8], eax
; File D:\git\src\IBK\IBK_DRFN\ProjSrc\SrcChartEx\ChartAddIn\ChartPatternAddIn\Include_Chart\Dll_Load\IMetaTable.h

; 934  : 	DECLARE_FUNCTION1(	GetCurrentLanguageID,			E_LANGUAGEID, ENGLISH, HWND);

  00212	a1 04 00 00 00	 mov	 eax, DWORD PTR ?g_iMetaTable@@3VIMetaTable@@A+4
  00217	85 c0		 test	 eax, eax
  00219	74 52		 je	 SHORT $LN225@DrawCandle
  0021b	b9 80 0d 00 00	 mov	 ecx, 3456		; 00000d80H
  00220	66 3b 0d 8c 00
	00 00		 cmp	 cx, WORD PTR ?g_iMetaTable@@3VIMetaTable@@A+140
  00227	74 29		 je	 SHORT $LN228@DrawCandle
  00229	68 00 00 00 00	 push	 OFFSET ??_C@_0BF@EGELCGDD@GetCurrentLanguageID@
  0022e	50		 push	 eax
  0022f	c7 05 88 00 00
	00 00 00 00 00	 mov	 DWORD PTR ?g_iMetaTable@@3VIMetaTable@@A+136, 0
  00239	ff 15 00 00 00
	00		 call	 DWORD PTR __imp__GetProcAddress@8
  0023f	b9 80 0d 00 00	 mov	 ecx, 3456		; 00000d80H
  00244	a3 88 00 00 00	 mov	 DWORD PTR ?g_iMetaTable@@3VIMetaTable@@A+136, eax
  00249	66 89 0d 8c 00
	00 00		 mov	 WORD PTR ?g_iMetaTable@@3VIMetaTable@@A+140, cx
  00250	eb 05		 jmp	 SHORT $LN53@DrawCandle
$LN228@DrawCandle:
  00252	a1 88 00 00 00	 mov	 eax, DWORD PTR ?g_iMetaTable@@3VIMetaTable@@A+136
$LN53@DrawCandle:
  00257	85 c0		 test	 eax, eax
  00259	74 12		 je	 SHORT $LN225@DrawCandle
  0025b	57		 push	 edi
  0025c	ff d0		 call	 eax
  0025e	83 c4 04	 add	 esp, 4
; File D:\git\src\IBK\IBK_DRFN\ProjSrc\SrcChartEx\ChartAddIn\ChartPatternAddIn\PatternMaker.cpp

; 3230 : 			if(eLanguageID == IMetaTable::ENGLISH)

  00261	85 c0		 test	 eax, eax
  00263	74 08		 je	 SHORT $LN225@DrawCandle

; 3232 : 			else
; 3233 : 				rectText.bottom = rectText.top+11;	

  00265	8b 45 e4	 mov	 eax, DWORD PTR _rectText$[ebp+4]
  00268	83 c0 0b	 add	 eax, 11			; 0000000bH
  0026b	eb 06		 jmp	 SHORT $LN232@DrawCandle
$LN225@DrawCandle:

; 3231 : 				rectText.bottom = rectText.top+13;	

  0026d	8b 45 e4	 mov	 eax, DWORD PTR _rectText$[ebp+4]
  00270	83 c0 0d	 add	 eax, 13			; 0000000dH
$LN232@DrawCandle:

; 3234 : // 2008.02.20 by LYH <<
; 3235 : 			p_pDC->SetBkMode(TRANSPARENT);

  00273	8b 4d cc	 mov	 ecx, DWORD PTR _p_pDC$GSCopy$1$[ebp]
  00276	6a 01		 push	 1
  00278	89 45 ec	 mov	 DWORD PTR _rectText$[ebp+12], eax
  0027b	e8 00 00 00 00	 call	 ?SetBkMode@CDC@@QAEHH@Z	; CDC::SetBkMode

; 3236 : 
; 3237 : 			ML_SET_LANGUAGE_RES();

  00280	e8 00 00 00 00	 call	 ?AfxGetStaticModuleState@@YGPAVAFX_MODULE_STATE@@XZ ; AfxGetStaticModuleState
  00285	b9 00 00 00 00	 mov	 ecx, OFFSET ?g_iMetaTable@@3VIMetaTable@@A ; g_iMetaTable
  0028a	8b 40 08	 mov	 eax, DWORD PTR [eax+8]
  0028d	50		 push	 eax
  0028e	ff b6 9c 03 00
	00		 push	 DWORD PTR [esi+924]
  00294	e8 00 00 00 00	 call	 ?LoadResourceDLL@IMetaTable@@QAEPAUHINSTANCE__@@PAUHWND__@@PAU2@@Z ; IMetaTable::LoadResourceDLL
  00299	8b f8		 mov	 edi, eax
; File C:\Program Files (x86)\Microsoft Visual Studio\2019\Community\VC\Tools\MSVC\14.29.30133\atlmfc\include\afxwin1.inl

; 25   : 		return afxCurrentResourceHandle; }

  0029b	e8 00 00 00 00	 call	 ?AfxGetModuleState@@YGPAVAFX_MODULE_STATE@@XZ ; AfxGetModuleState
; File D:\git\src\IBK\IBK_DRFN\ProjSrc\SrcChartEx\ChartAddIn\ChartPatternAddIn\Include_Chart\Dll_Load\IMetaTable.h

; 1031 : 		m_hInstance = AfxGetResourceHandle();

  002a0	8b 70 0c	 mov	 esi, DWORD PTR [eax+12]
  002a3	89 75 94	 mov	 DWORD PTR ___mlrs__$3[ebp], esi
; File C:\Program Files (x86)\Microsoft Visual Studio\2019\Community\VC\Tools\MSVC\14.29.30133\atlmfc\include\afxwin1.inl

; 27   : 	{ ASSERT(hInstResource != NULL); afxCurrentResourceHandle = hInstResource; }

  002a6	e8 00 00 00 00	 call	 ?AfxGetModuleState@@YGPAVAFX_MODULE_STATE@@XZ ; AfxGetModuleState
  002ab	89 78 0c	 mov	 DWORD PTR [eax+12], edi
; File D:\git\src\IBK\IBK_DRFN\ProjSrc\SrcChartEx\ChartAddIn\ChartPatternAddIn\PatternMaker.cpp

; 3238 : 			CString strN;

  002ae	8d 4d d8	 lea	 ecx, DWORD PTR _strN$13[ebp]
  002b1	ff 15 00 00 00
	00		 call	 DWORD PTR __imp_??0?$CStringT@DV?$StrTraitMFC_DLL@DV?$ChTraitsCRT@D@ATL@@@@@ATL@@QAE@XZ

; 3239 : 			switch(iTrust)

  002b7	8b 45 d0	 mov	 eax, DWORD PTR _iTrust$1$[ebp]
  002ba	48		 dec	 eax
  002bb	c6 45 fc 04	 mov	 BYTE PTR __$EHRec$[ebp+8], 4
  002bf	83 f8 05	 cmp	 eax, 5
  002c2	0f 87 d9 02 00
	00		 ja	 $LN5@DrawCandle
  002c8	ff 24 85 00 00
	00 00		 jmp	 DWORD PTR $LN227@DrawCandle[eax*4]
$LN16@DrawCandle:

; 3240 : 			{
; 3241 : 			case UPWARD_LEVEL3:
; 3242 : 				p_pDC->SetTextColor(COLOR_UPWARD_CONTINUE);

  002cf	8b 7d cc	 mov	 edi, DWORD PTR _p_pDC$GSCopy$1$[ebp]
  002d2	8b cf		 mov	 ecx, edi
  002d4	68 ff 00 00 00	 push	 255			; 000000ffH
  002d9	8b 07		 mov	 eax, DWORD PTR [edi]
  002db	ff 50 38	 call	 DWORD PTR [eax+56]

; 3243 : 				strN.LoadString( IDS_N3);

  002de	6a 5f		 push	 95			; 0000005fH
  002e0	8d 4d d8	 lea	 ecx, DWORD PTR _strN$13[ebp]
  002e3	ff 15 00 00 00
	00		 call	 DWORD PTR __imp_?LoadStringA@?$CStringT@DV?$StrTraitMFC_DLL@DV?$ChTraitsCRT@D@ATL@@@@@ATL@@QAEHI@Z
; File C:\Program Files (x86)\Microsoft Visual Studio\2019\Community\VC\Tools\MSVC\14.29.30133\atlmfc\include\cstringt.h

; 2390 : 		CStringT strResult( str1.GetManager() );

  002e9	8d 4d d8	 lea	 ecx, DWORD PTR _strN$13[ebp]
; File D:\git\src\IBK\IBK_DRFN\ProjSrc\SrcChartEx\ChartAddIn\ChartPatternAddIn\PatternMaker.cpp

; 3244 : 				p_pDC->DrawText( strN + strPatternName, rectText, DT_LEFT | DT_TOP);

  002ec	c6 45 fc 05	 mov	 BYTE PTR __$EHRec$[ebp+8], 5
; File C:\Program Files (x86)\Microsoft Visual Studio\2019\Community\VC\Tools\MSVC\14.29.30133\atlmfc\include\cstringt.h

; 2390 : 		CStringT strResult( str1.GetManager() );

  002f0	ff 15 00 00 00
	00		 call	 DWORD PTR __imp_?GetManager@?$CStringT@DV?$StrTraitMFC_DLL@DV?$ChTraitsCRT@D@ATL@@@@@ATL@@QBEPAUIAtlStringMgr@2@XZ
  002f6	50		 push	 eax
  002f7	8d 4d c8	 lea	 ecx, DWORD PTR $T10[ebp]
  002fa	ff 15 00 00 00
	00		 call	 DWORD PTR __imp_??0?$CStringT@DV?$StrTraitMFC_DLL@DV?$ChTraitsCRT@D@ATL@@@@@ATL@@QAE@PAUIAtlStringMgr@1@@Z

; 2394 : 		return( strResult );

  00300	8b 45 dc	 mov	 eax, DWORD PTR $T14[ebp]
; File C:\Program Files (x86)\Microsoft Visual Studio\2019\Community\VC\Tools\MSVC\14.29.30133\atlmfc\include\atlsimpstr.h

; 519  : 		return( GetData()->nDataLength );

  00303	8b 4d d8	 mov	 ecx, DWORD PTR _strN$13[ebp]
; File C:\Program Files (x86)\Microsoft Visual Studio\2019\Community\VC\Tools\MSVC\14.29.30133\atlmfc\include\cstringt.h

; 2394 : 		return( strResult );

  00306	83 c8 01	 or	 eax, 1
  00309	89 45 dc	 mov	 DWORD PTR $T14[ebp], eax
  0030c	89 45 d0	 mov	 DWORD PTR $T11[ebp], eax
; File C:\Program Files (x86)\Microsoft Visual Studio\2019\Community\VC\Tools\MSVC\14.29.30133\atlmfc\include\atlsimpstr.h

; 519  : 		return( GetData()->nDataLength );

  0030f	8b 45 d4	 mov	 eax, DWORD PTR _strPatternName$12[ebp]
; File C:\Program Files (x86)\Microsoft Visual Studio\2019\Community\VC\Tools\MSVC\14.29.30133\atlmfc\include\cstringt.h

; 2392 : 		CThisSimpleString::Concatenate( strResult, str1, str1.GetLength(), str2, str2.GetLength() );

  00312	ff 70 f4	 push	 DWORD PTR [eax-12]
  00315	50		 push	 eax
  00316	ff 71 f4	 push	 DWORD PTR [ecx-12]
  00319	8d 45 c8	 lea	 eax, DWORD PTR $T10[ebp]
  0031c	51		 push	 ecx
  0031d	50		 push	 eax
  0031e	ff 15 00 00 00
	00		 call	 DWORD PTR __imp_?Concatenate@?$CSimpleStringT@D$00@ATL@@KAXAAV12@PBDH1H@Z
; File C:\Program Files (x86)\Microsoft Visual Studio\2019\Community\VC\Tools\MSVC\14.29.30133\atlmfc\include\atlsimpstr.h

; 519  : 		return( GetData()->nDataLength );

  00324	8b 45 c8	 mov	 eax, DWORD PTR $T10[ebp]
; File C:\Program Files (x86)\Microsoft Visual Studio\2019\Community\VC\Tools\MSVC\14.29.30133\atlmfc\include\afxwin1.inl

; 600  : 		return _AFX_FUNCNAME(DrawText)((LPCTSTR)str, (int)str.GetLength(), lpRect, nFormat); }

  00327	8d 4d e0	 lea	 ecx, DWORD PTR _rectText$[ebp]
  0032a	8b 17		 mov	 edx, DWORD PTR [edi]
; File C:\Program Files (x86)\Microsoft Visual Studio\2019\Community\VC\Tools\MSVC\14.29.30133\atlmfc\include\cstringt.h

; 2392 : 		CThisSimpleString::Concatenate( strResult, str1, str1.GetLength(), str2, str2.GetLength() );

  0032c	83 c4 14	 add	 esp, 20			; 00000014H
; File C:\Program Files (x86)\Microsoft Visual Studio\2019\Community\VC\Tools\MSVC\14.29.30133\atlmfc\include\afxwin1.inl

; 600  : 		return _AFX_FUNCNAME(DrawText)((LPCTSTR)str, (int)str.GetLength(), lpRect, nFormat); }

  0032f	6a 00		 push	 0
  00331	51		 push	 ecx
  00332	ff 70 f4	 push	 DWORD PTR [eax-12]
  00335	8b cf		 mov	 ecx, edi
  00337	50		 push	 eax
  00338	ff 52 70	 call	 DWORD PTR [edx+112]
; File D:\git\src\IBK\IBK_DRFN\ProjSrc\SrcChartEx\ChartAddIn\ChartPatternAddIn\PatternMaker.cpp

; 3244 : 				p_pDC->DrawText( strN + strPatternName, rectText, DT_LEFT | DT_TOP);

  0033b	83 65 dc fe	 and	 DWORD PTR $T14[ebp], -2	; fffffffeH
  0033f	8d 4d c8	 lea	 ecx, DWORD PTR $T10[ebp]

; 3245 : 				break;

  00342	e9 50 02 00 00	 jmp	 $LN233@DrawCandle
$LN17@DrawCandle:

; 3246 : 			case UPWARD_LEVEL2:
; 3247 : 				p_pDC->SetTextColor(COLOR_UPWARD_CONTINUE);

  00347	8b 7d cc	 mov	 edi, DWORD PTR _p_pDC$GSCopy$1$[ebp]
  0034a	8b cf		 mov	 ecx, edi
  0034c	68 ff 00 00 00	 push	 255			; 000000ffH
  00351	8b 07		 mov	 eax, DWORD PTR [edi]
  00353	ff 50 38	 call	 DWORD PTR [eax+56]

; 3248 : 				strN.LoadString( IDS_N2);

  00356	6a 5e		 push	 94			; 0000005eH
  00358	8d 4d d8	 lea	 ecx, DWORD PTR _strN$13[ebp]
  0035b	ff 15 00 00 00
	00		 call	 DWORD PTR __imp_?LoadStringA@?$CStringT@DV?$StrTraitMFC_DLL@DV?$ChTraitsCRT@D@ATL@@@@@ATL@@QAEHI@Z
; File C:\Program Files (x86)\Microsoft Visual Studio\2019\Community\VC\Tools\MSVC\14.29.30133\atlmfc\include\cstringt.h

; 2390 : 		CStringT strResult( str1.GetManager() );

  00361	8d 4d d8	 lea	 ecx, DWORD PTR _strN$13[ebp]
; File D:\git\src\IBK\IBK_DRFN\ProjSrc\SrcChartEx\ChartAddIn\ChartPatternAddIn\PatternMaker.cpp

; 3249 : 				p_pDC->DrawText( strN + strPatternName, rectText, DT_LEFT | DT_TOP);

  00364	c6 45 fc 06	 mov	 BYTE PTR __$EHRec$[ebp+8], 6
; File C:\Program Files (x86)\Microsoft Visual Studio\2019\Community\VC\Tools\MSVC\14.29.30133\atlmfc\include\cstringt.h

; 2390 : 		CStringT strResult( str1.GetManager() );

  00368	ff 15 00 00 00
	00		 call	 DWORD PTR __imp_?GetManager@?$CStringT@DV?$StrTraitMFC_DLL@DV?$ChTraitsCRT@D@ATL@@@@@ATL@@QBEPAUIAtlStringMgr@2@XZ
  0036e	50		 push	 eax
  0036f	8d 4d c4	 lea	 ecx, DWORD PTR $T9[ebp]
  00372	ff 15 00 00 00
	00		 call	 DWORD PTR __imp_??0?$CStringT@DV?$StrTraitMFC_DLL@DV?$ChTraitsCRT@D@ATL@@@@@ATL@@QAE@PAUIAtlStringMgr@1@@Z

; 2394 : 		return( strResult );

  00378	8b 45 dc	 mov	 eax, DWORD PTR $T14[ebp]
; File C:\Program Files (x86)\Microsoft Visual Studio\2019\Community\VC\Tools\MSVC\14.29.30133\atlmfc\include\atlsimpstr.h

; 519  : 		return( GetData()->nDataLength );

  0037b	8b 4d d8	 mov	 ecx, DWORD PTR _strN$13[ebp]
; File C:\Program Files (x86)\Microsoft Visual Studio\2019\Community\VC\Tools\MSVC\14.29.30133\atlmfc\include\cstringt.h

; 2394 : 		return( strResult );

  0037e	83 c8 02	 or	 eax, 2
  00381	89 45 dc	 mov	 DWORD PTR $T14[ebp], eax
  00384	89 45 d0	 mov	 DWORD PTR $T11[ebp], eax
; File C:\Program Files (x86)\Microsoft Visual Studio\2019\Community\VC\Tools\MSVC\14.29.30133\atlmfc\include\atlsimpstr.h

; 519  : 		return( GetData()->nDataLength );

  00387	8b 45 d4	 mov	 eax, DWORD PTR _strPatternName$12[ebp]
; File C:\Program Files (x86)\Microsoft Visual Studio\2019\Community\VC\Tools\MSVC\14.29.30133\atlmfc\include\cstringt.h

; 2392 : 		CThisSimpleString::Concatenate( strResult, str1, str1.GetLength(), str2, str2.GetLength() );

  0038a	ff 70 f4	 push	 DWORD PTR [eax-12]
  0038d	50		 push	 eax
  0038e	ff 71 f4	 push	 DWORD PTR [ecx-12]
  00391	8d 45 c4	 lea	 eax, DWORD PTR $T9[ebp]
  00394	51		 push	 ecx
  00395	50		 push	 eax
  00396	ff 15 00 00 00
	00		 call	 DWORD PTR __imp_?Concatenate@?$CSimpleStringT@D$00@ATL@@KAXAAV12@PBDH1H@Z
; File C:\Program Files (x86)\Microsoft Visual Studio\2019\Community\VC\Tools\MSVC\14.29.30133\atlmfc\include\atlsimpstr.h

; 519  : 		return( GetData()->nDataLength );

  0039c	8b 45 c4	 mov	 eax, DWORD PTR $T9[ebp]
; File C:\Program Files (x86)\Microsoft Visual Studio\2019\Community\VC\Tools\MSVC\14.29.30133\atlmfc\include\afxwin1.inl

; 600  : 		return _AFX_FUNCNAME(DrawText)((LPCTSTR)str, (int)str.GetLength(), lpRect, nFormat); }

  0039f	8d 4d e0	 lea	 ecx, DWORD PTR _rectText$[ebp]
  003a2	8b 17		 mov	 edx, DWORD PTR [edi]
; File C:\Program Files (x86)\Microsoft Visual Studio\2019\Community\VC\Tools\MSVC\14.29.30133\atlmfc\include\cstringt.h

; 2392 : 		CThisSimpleString::Concatenate( strResult, str1, str1.GetLength(), str2, str2.GetLength() );

  003a4	83 c4 14	 add	 esp, 20			; 00000014H
; File C:\Program Files (x86)\Microsoft Visual Studio\2019\Community\VC\Tools\MSVC\14.29.30133\atlmfc\include\afxwin1.inl

; 600  : 		return _AFX_FUNCNAME(DrawText)((LPCTSTR)str, (int)str.GetLength(), lpRect, nFormat); }

  003a7	6a 00		 push	 0
  003a9	51		 push	 ecx
  003aa	ff 70 f4	 push	 DWORD PTR [eax-12]
  003ad	8b cf		 mov	 ecx, edi
  003af	50		 push	 eax
  003b0	ff 52 70	 call	 DWORD PTR [edx+112]
; File D:\git\src\IBK\IBK_DRFN\ProjSrc\SrcChartEx\ChartAddIn\ChartPatternAddIn\PatternMaker.cpp

; 3249 : 				p_pDC->DrawText( strN + strPatternName, rectText, DT_LEFT | DT_TOP);

  003b3	83 65 dc fd	 and	 DWORD PTR $T14[ebp], -3	; fffffffdH
  003b7	8d 4d c4	 lea	 ecx, DWORD PTR $T9[ebp]

; 3250 : 				break;

  003ba	e9 d8 01 00 00	 jmp	 $LN233@DrawCandle
$LN18@DrawCandle:

; 3251 : 			case UPWARD_LEVEL1:
; 3252 : 				p_pDC->SetTextColor(COLOR_UPWARD_CONTINUE);

  003bf	8b 7d cc	 mov	 edi, DWORD PTR _p_pDC$GSCopy$1$[ebp]
  003c2	8b cf		 mov	 ecx, edi
  003c4	68 ff 00 00 00	 push	 255			; 000000ffH
  003c9	8b 07		 mov	 eax, DWORD PTR [edi]
  003cb	ff 50 38	 call	 DWORD PTR [eax+56]

; 3253 : 				strN.LoadString( IDS_N1);

  003ce	6a 5d		 push	 93			; 0000005dH
  003d0	8d 4d d8	 lea	 ecx, DWORD PTR _strN$13[ebp]
  003d3	ff 15 00 00 00
	00		 call	 DWORD PTR __imp_?LoadStringA@?$CStringT@DV?$StrTraitMFC_DLL@DV?$ChTraitsCRT@D@ATL@@@@@ATL@@QAEHI@Z
; File C:\Program Files (x86)\Microsoft Visual Studio\2019\Community\VC\Tools\MSVC\14.29.30133\atlmfc\include\cstringt.h

; 2390 : 		CStringT strResult( str1.GetManager() );

  003d9	8d 4d d8	 lea	 ecx, DWORD PTR _strN$13[ebp]
; File D:\git\src\IBK\IBK_DRFN\ProjSrc\SrcChartEx\ChartAddIn\ChartPatternAddIn\PatternMaker.cpp

; 3254 : 				p_pDC->DrawText( strN + strPatternName, rectText, DT_LEFT | DT_TOP);

  003dc	c6 45 fc 07	 mov	 BYTE PTR __$EHRec$[ebp+8], 7
; File C:\Program Files (x86)\Microsoft Visual Studio\2019\Community\VC\Tools\MSVC\14.29.30133\atlmfc\include\cstringt.h

; 2390 : 		CStringT strResult( str1.GetManager() );

  003e0	ff 15 00 00 00
	00		 call	 DWORD PTR __imp_?GetManager@?$CStringT@DV?$StrTraitMFC_DLL@DV?$ChTraitsCRT@D@ATL@@@@@ATL@@QBEPAUIAtlStringMgr@2@XZ
  003e6	50		 push	 eax
  003e7	8d 4d c0	 lea	 ecx, DWORD PTR $T8[ebp]
  003ea	ff 15 00 00 00
	00		 call	 DWORD PTR __imp_??0?$CStringT@DV?$StrTraitMFC_DLL@DV?$ChTraitsCRT@D@ATL@@@@@ATL@@QAE@PAUIAtlStringMgr@1@@Z

; 2394 : 		return( strResult );

  003f0	8b 45 dc	 mov	 eax, DWORD PTR $T14[ebp]
; File C:\Program Files (x86)\Microsoft Visual Studio\2019\Community\VC\Tools\MSVC\14.29.30133\atlmfc\include\atlsimpstr.h

; 519  : 		return( GetData()->nDataLength );

  003f3	8b 4d d8	 mov	 ecx, DWORD PTR _strN$13[ebp]
; File C:\Program Files (x86)\Microsoft Visual Studio\2019\Community\VC\Tools\MSVC\14.29.30133\atlmfc\include\cstringt.h

; 2394 : 		return( strResult );

  003f6	83 c8 04	 or	 eax, 4
  003f9	89 45 dc	 mov	 DWORD PTR $T14[ebp], eax
  003fc	89 45 d0	 mov	 DWORD PTR $T11[ebp], eax
; File C:\Program Files (x86)\Microsoft Visual Studio\2019\Community\VC\Tools\MSVC\14.29.30133\atlmfc\include\atlsimpstr.h

; 519  : 		return( GetData()->nDataLength );

  003ff	8b 45 d4	 mov	 eax, DWORD PTR _strPatternName$12[ebp]
; File C:\Program Files (x86)\Microsoft Visual Studio\2019\Community\VC\Tools\MSVC\14.29.30133\atlmfc\include\cstringt.h

; 2392 : 		CThisSimpleString::Concatenate( strResult, str1, str1.GetLength(), str2, str2.GetLength() );

  00402	ff 70 f4	 push	 DWORD PTR [eax-12]
  00405	50		 push	 eax
  00406	ff 71 f4	 push	 DWORD PTR [ecx-12]
  00409	8d 45 c0	 lea	 eax, DWORD PTR $T8[ebp]
  0040c	51		 push	 ecx
  0040d	50		 push	 eax
  0040e	ff 15 00 00 00
	00		 call	 DWORD PTR __imp_?Concatenate@?$CSimpleStringT@D$00@ATL@@KAXAAV12@PBDH1H@Z
; File C:\Program Files (x86)\Microsoft Visual Studio\2019\Community\VC\Tools\MSVC\14.29.30133\atlmfc\include\atlsimpstr.h

; 519  : 		return( GetData()->nDataLength );

  00414	8b 45 c0	 mov	 eax, DWORD PTR $T8[ebp]
; File C:\Program Files (x86)\Microsoft Visual Studio\2019\Community\VC\Tools\MSVC\14.29.30133\atlmfc\include\afxwin1.inl

; 600  : 		return _AFX_FUNCNAME(DrawText)((LPCTSTR)str, (int)str.GetLength(), lpRect, nFormat); }

  00417	8d 4d e0	 lea	 ecx, DWORD PTR _rectText$[ebp]
  0041a	8b 17		 mov	 edx, DWORD PTR [edi]
; File C:\Program Files (x86)\Microsoft Visual Studio\2019\Community\VC\Tools\MSVC\14.29.30133\atlmfc\include\cstringt.h

; 2392 : 		CThisSimpleString::Concatenate( strResult, str1, str1.GetLength(), str2, str2.GetLength() );

  0041c	83 c4 14	 add	 esp, 20			; 00000014H
; File C:\Program Files (x86)\Microsoft Visual Studio\2019\Community\VC\Tools\MSVC\14.29.30133\atlmfc\include\afxwin1.inl

; 600  : 		return _AFX_FUNCNAME(DrawText)((LPCTSTR)str, (int)str.GetLength(), lpRect, nFormat); }

  0041f	6a 00		 push	 0
  00421	51		 push	 ecx
  00422	ff 70 f4	 push	 DWORD PTR [eax-12]
  00425	8b cf		 mov	 ecx, edi
  00427	50		 push	 eax
  00428	ff 52 70	 call	 DWORD PTR [edx+112]
; File D:\git\src\IBK\IBK_DRFN\ProjSrc\SrcChartEx\ChartAddIn\ChartPatternAddIn\PatternMaker.cpp

; 3254 : 				p_pDC->DrawText( strN + strPatternName, rectText, DT_LEFT | DT_TOP);

  0042b	83 65 dc fb	 and	 DWORD PTR $T14[ebp], -5	; fffffffbH
  0042f	8d 4d c0	 lea	 ecx, DWORD PTR $T8[ebp]

; 3255 : 				break;

  00432	e9 60 01 00 00	 jmp	 $LN233@DrawCandle
$LN19@DrawCandle:

; 3256 : 			case DNWARD_LEVEL3:
; 3257 : 				p_pDC->SetTextColor(COLOR_DNWARD_CONTINUE);

  00437	8b 7d cc	 mov	 edi, DWORD PTR _p_pDC$GSCopy$1$[ebp]
  0043a	8b cf		 mov	 ecx, edi
  0043c	68 00 00 ff 00	 push	 16711680		; 00ff0000H
  00441	8b 07		 mov	 eax, DWORD PTR [edi]
  00443	ff 50 38	 call	 DWORD PTR [eax+56]

; 3258 : 				strN.LoadString( IDS_N3);

  00446	6a 5f		 push	 95			; 0000005fH
  00448	8d 4d d8	 lea	 ecx, DWORD PTR _strN$13[ebp]
  0044b	ff 15 00 00 00
	00		 call	 DWORD PTR __imp_?LoadStringA@?$CStringT@DV?$StrTraitMFC_DLL@DV?$ChTraitsCRT@D@ATL@@@@@ATL@@QAEHI@Z
; File C:\Program Files (x86)\Microsoft Visual Studio\2019\Community\VC\Tools\MSVC\14.29.30133\atlmfc\include\cstringt.h

; 2390 : 		CStringT strResult( str1.GetManager() );

  00451	8d 4d d8	 lea	 ecx, DWORD PTR _strN$13[ebp]
; File D:\git\src\IBK\IBK_DRFN\ProjSrc\SrcChartEx\ChartAddIn\ChartPatternAddIn\PatternMaker.cpp

; 3259 : 				p_pDC->DrawText( strN + strPatternName, rectText, DT_LEFT | DT_TOP);

  00454	c6 45 fc 08	 mov	 BYTE PTR __$EHRec$[ebp+8], 8
; File C:\Program Files (x86)\Microsoft Visual Studio\2019\Community\VC\Tools\MSVC\14.29.30133\atlmfc\include\cstringt.h

; 2390 : 		CStringT strResult( str1.GetManager() );

  00458	ff 15 00 00 00
	00		 call	 DWORD PTR __imp_?GetManager@?$CStringT@DV?$StrTraitMFC_DLL@DV?$ChTraitsCRT@D@ATL@@@@@ATL@@QBEPAUIAtlStringMgr@2@XZ
  0045e	50		 push	 eax
  0045f	8d 4d bc	 lea	 ecx, DWORD PTR $T7[ebp]
  00462	ff 15 00 00 00
	00		 call	 DWORD PTR __imp_??0?$CStringT@DV?$StrTraitMFC_DLL@DV?$ChTraitsCRT@D@ATL@@@@@ATL@@QAE@PAUIAtlStringMgr@1@@Z

; 2394 : 		return( strResult );

  00468	8b 45 dc	 mov	 eax, DWORD PTR $T14[ebp]
; File C:\Program Files (x86)\Microsoft Visual Studio\2019\Community\VC\Tools\MSVC\14.29.30133\atlmfc\include\atlsimpstr.h

; 519  : 		return( GetData()->nDataLength );

  0046b	8b 4d d8	 mov	 ecx, DWORD PTR _strN$13[ebp]
; File C:\Program Files (x86)\Microsoft Visual Studio\2019\Community\VC\Tools\MSVC\14.29.30133\atlmfc\include\cstringt.h

; 2394 : 		return( strResult );

  0046e	83 c8 08	 or	 eax, 8
  00471	89 45 dc	 mov	 DWORD PTR $T14[ebp], eax
  00474	89 45 d0	 mov	 DWORD PTR $T11[ebp], eax
; File C:\Program Files (x86)\Microsoft Visual Studio\2019\Community\VC\Tools\MSVC\14.29.30133\atlmfc\include\atlsimpstr.h

; 519  : 		return( GetData()->nDataLength );

  00477	8b 45 d4	 mov	 eax, DWORD PTR _strPatternName$12[ebp]
; File C:\Program Files (x86)\Microsoft Visual Studio\2019\Community\VC\Tools\MSVC\14.29.30133\atlmfc\include\cstringt.h

; 2392 : 		CThisSimpleString::Concatenate( strResult, str1, str1.GetLength(), str2, str2.GetLength() );

  0047a	ff 70 f4	 push	 DWORD PTR [eax-12]
  0047d	50		 push	 eax
  0047e	ff 71 f4	 push	 DWORD PTR [ecx-12]
  00481	8d 45 bc	 lea	 eax, DWORD PTR $T7[ebp]
  00484	51		 push	 ecx
  00485	50		 push	 eax
  00486	ff 15 00 00 00
	00		 call	 DWORD PTR __imp_?Concatenate@?$CSimpleStringT@D$00@ATL@@KAXAAV12@PBDH1H@Z
; File C:\Program Files (x86)\Microsoft Visual Studio\2019\Community\VC\Tools\MSVC\14.29.30133\atlmfc\include\atlsimpstr.h

; 519  : 		return( GetData()->nDataLength );

  0048c	8b 45 bc	 mov	 eax, DWORD PTR $T7[ebp]
; File C:\Program Files (x86)\Microsoft Visual Studio\2019\Community\VC\Tools\MSVC\14.29.30133\atlmfc\include\afxwin1.inl

; 600  : 		return _AFX_FUNCNAME(DrawText)((LPCTSTR)str, (int)str.GetLength(), lpRect, nFormat); }

  0048f	8d 4d e0	 lea	 ecx, DWORD PTR _rectText$[ebp]
  00492	8b 17		 mov	 edx, DWORD PTR [edi]
; File C:\Program Files (x86)\Microsoft Visual Studio\2019\Community\VC\Tools\MSVC\14.29.30133\atlmfc\include\cstringt.h

; 2392 : 		CThisSimpleString::Concatenate( strResult, str1, str1.GetLength(), str2, str2.GetLength() );

  00494	83 c4 14	 add	 esp, 20			; 00000014H
; File C:\Program Files (x86)\Microsoft Visual Studio\2019\Community\VC\Tools\MSVC\14.29.30133\atlmfc\include\afxwin1.inl

; 600  : 		return _AFX_FUNCNAME(DrawText)((LPCTSTR)str, (int)str.GetLength(), lpRect, nFormat); }

  00497	6a 00		 push	 0
  00499	51		 push	 ecx
  0049a	ff 70 f4	 push	 DWORD PTR [eax-12]
  0049d	8b cf		 mov	 ecx, edi
  0049f	50		 push	 eax
  004a0	ff 52 70	 call	 DWORD PTR [edx+112]
; File D:\git\src\IBK\IBK_DRFN\ProjSrc\SrcChartEx\ChartAddIn\ChartPatternAddIn\PatternMaker.cpp

; 3259 : 				p_pDC->DrawText( strN + strPatternName, rectText, DT_LEFT | DT_TOP);

  004a3	83 65 dc f7	 and	 DWORD PTR $T14[ebp], -9	; fffffff7H
  004a7	8d 4d bc	 lea	 ecx, DWORD PTR $T7[ebp]

; 3260 : 				break;

  004aa	e9 e8 00 00 00	 jmp	 $LN233@DrawCandle
$LN20@DrawCandle:

; 3261 : 			case DNWARD_LEVEL2:
; 3262 : 				p_pDC->SetTextColor(COLOR_DNWARD_CONTINUE);

  004af	8b 7d cc	 mov	 edi, DWORD PTR _p_pDC$GSCopy$1$[ebp]
  004b2	8b cf		 mov	 ecx, edi
  004b4	68 00 00 ff 00	 push	 16711680		; 00ff0000H
  004b9	8b 07		 mov	 eax, DWORD PTR [edi]
  004bb	ff 50 38	 call	 DWORD PTR [eax+56]

; 3263 : 				strN.LoadString( IDS_N2);

  004be	6a 5e		 push	 94			; 0000005eH
  004c0	8d 4d d8	 lea	 ecx, DWORD PTR _strN$13[ebp]
  004c3	ff 15 00 00 00
	00		 call	 DWORD PTR __imp_?LoadStringA@?$CStringT@DV?$StrTraitMFC_DLL@DV?$ChTraitsCRT@D@ATL@@@@@ATL@@QAEHI@Z
; File C:\Program Files (x86)\Microsoft Visual Studio\2019\Community\VC\Tools\MSVC\14.29.30133\atlmfc\include\cstringt.h

; 2390 : 		CStringT strResult( str1.GetManager() );

  004c9	8d 4d d8	 lea	 ecx, DWORD PTR _strN$13[ebp]
; File D:\git\src\IBK\IBK_DRFN\ProjSrc\SrcChartEx\ChartAddIn\ChartPatternAddIn\PatternMaker.cpp

; 3264 : 				p_pDC->DrawText( strN + strPatternName, rectText, DT_LEFT | DT_TOP);

  004cc	c6 45 fc 09	 mov	 BYTE PTR __$EHRec$[ebp+8], 9
; File C:\Program Files (x86)\Microsoft Visual Studio\2019\Community\VC\Tools\MSVC\14.29.30133\atlmfc\include\cstringt.h

; 2390 : 		CStringT strResult( str1.GetManager() );

  004d0	ff 15 00 00 00
	00		 call	 DWORD PTR __imp_?GetManager@?$CStringT@DV?$StrTraitMFC_DLL@DV?$ChTraitsCRT@D@ATL@@@@@ATL@@QBEPAUIAtlStringMgr@2@XZ
  004d6	50		 push	 eax
  004d7	8d 4d b8	 lea	 ecx, DWORD PTR $T6[ebp]
  004da	ff 15 00 00 00
	00		 call	 DWORD PTR __imp_??0?$CStringT@DV?$StrTraitMFC_DLL@DV?$ChTraitsCRT@D@ATL@@@@@ATL@@QAE@PAUIAtlStringMgr@1@@Z

; 2394 : 		return( strResult );

  004e0	8b 45 dc	 mov	 eax, DWORD PTR $T14[ebp]
; File C:\Program Files (x86)\Microsoft Visual Studio\2019\Community\VC\Tools\MSVC\14.29.30133\atlmfc\include\atlsimpstr.h

; 519  : 		return( GetData()->nDataLength );

  004e3	8b 4d d8	 mov	 ecx, DWORD PTR _strN$13[ebp]
; File C:\Program Files (x86)\Microsoft Visual Studio\2019\Community\VC\Tools\MSVC\14.29.30133\atlmfc\include\cstringt.h

; 2394 : 		return( strResult );

  004e6	83 c8 10	 or	 eax, 16			; 00000010H
  004e9	89 45 dc	 mov	 DWORD PTR $T14[ebp], eax
  004ec	89 45 d0	 mov	 DWORD PTR $T11[ebp], eax
; File C:\Program Files (x86)\Microsoft Visual Studio\2019\Community\VC\Tools\MSVC\14.29.30133\atlmfc\include\atlsimpstr.h

; 519  : 		return( GetData()->nDataLength );

  004ef	8b 45 d4	 mov	 eax, DWORD PTR _strPatternName$12[ebp]
; File C:\Program Files (x86)\Microsoft Visual Studio\2019\Community\VC\Tools\MSVC\14.29.30133\atlmfc\include\cstringt.h

; 2392 : 		CThisSimpleString::Concatenate( strResult, str1, str1.GetLength(), str2, str2.GetLength() );

  004f2	ff 70 f4	 push	 DWORD PTR [eax-12]
  004f5	50		 push	 eax
  004f6	ff 71 f4	 push	 DWORD PTR [ecx-12]
  004f9	8d 45 b8	 lea	 eax, DWORD PTR $T6[ebp]
  004fc	51		 push	 ecx
  004fd	50		 push	 eax
  004fe	ff 15 00 00 00
	00		 call	 DWORD PTR __imp_?Concatenate@?$CSimpleStringT@D$00@ATL@@KAXAAV12@PBDH1H@Z
; File C:\Program Files (x86)\Microsoft Visual Studio\2019\Community\VC\Tools\MSVC\14.29.30133\atlmfc\include\atlsimpstr.h

; 519  : 		return( GetData()->nDataLength );

  00504	8b 45 b8	 mov	 eax, DWORD PTR $T6[ebp]
; File C:\Program Files (x86)\Microsoft Visual Studio\2019\Community\VC\Tools\MSVC\14.29.30133\atlmfc\include\afxwin1.inl

; 600  : 		return _AFX_FUNCNAME(DrawText)((LPCTSTR)str, (int)str.GetLength(), lpRect, nFormat); }

  00507	8d 4d e0	 lea	 ecx, DWORD PTR _rectText$[ebp]
  0050a	8b 17		 mov	 edx, DWORD PTR [edi]
; File C:\Program Files (x86)\Microsoft Visual Studio\2019\Community\VC\Tools\MSVC\14.29.30133\atlmfc\include\cstringt.h

; 2392 : 		CThisSimpleString::Concatenate( strResult, str1, str1.GetLength(), str2, str2.GetLength() );

  0050c	83 c4 14	 add	 esp, 20			; 00000014H
; File C:\Program Files (x86)\Microsoft Visual Studio\2019\Community\VC\Tools\MSVC\14.29.30133\atlmfc\include\afxwin1.inl

; 600  : 		return _AFX_FUNCNAME(DrawText)((LPCTSTR)str, (int)str.GetLength(), lpRect, nFormat); }

  0050f	6a 00		 push	 0
  00511	51		 push	 ecx
  00512	ff 70 f4	 push	 DWORD PTR [eax-12]
  00515	8b cf		 mov	 ecx, edi
  00517	50		 push	 eax
  00518	ff 52 70	 call	 DWORD PTR [edx+112]
; File D:\git\src\IBK\IBK_DRFN\ProjSrc\SrcChartEx\ChartAddIn\ChartPatternAddIn\PatternMaker.cpp

; 3264 : 				p_pDC->DrawText( strN + strPatternName, rectText, DT_LEFT | DT_TOP);

  0051b	83 65 dc ef	 and	 DWORD PTR $T14[ebp], -17 ; ffffffefH
  0051f	8d 4d b8	 lea	 ecx, DWORD PTR $T6[ebp]

; 3265 : 				break;

  00522	eb 73		 jmp	 SHORT $LN233@DrawCandle
$LN21@DrawCandle:

; 3266 : 			case DNWARD_LEVEL1:
; 3267 : 				p_pDC->SetTextColor(COLOR_DNWARD_CONTINUE);

  00524	8b 7d cc	 mov	 edi, DWORD PTR _p_pDC$GSCopy$1$[ebp]
  00527	8b cf		 mov	 ecx, edi
  00529	68 00 00 ff 00	 push	 16711680		; 00ff0000H
  0052e	8b 07		 mov	 eax, DWORD PTR [edi]
  00530	ff 50 38	 call	 DWORD PTR [eax+56]

; 3268 : 				strN.LoadString( IDS_N1);

  00533	6a 5d		 push	 93			; 0000005dH
  00535	8d 4d d8	 lea	 ecx, DWORD PTR _strN$13[ebp]
  00538	ff 15 00 00 00
	00		 call	 DWORD PTR __imp_?LoadStringA@?$CStringT@DV?$StrTraitMFC_DLL@DV?$ChTraitsCRT@D@ATL@@@@@ATL@@QAEHI@Z
; File C:\Program Files (x86)\Microsoft Visual Studio\2019\Community\VC\Tools\MSVC\14.29.30133\atlmfc\include\cstringt.h

; 2390 : 		CStringT strResult( str1.GetManager() );

  0053e	8d 4d d8	 lea	 ecx, DWORD PTR _strN$13[ebp]
; File D:\git\src\IBK\IBK_DRFN\ProjSrc\SrcChartEx\ChartAddIn\ChartPatternAddIn\PatternMaker.cpp

; 3269 : 				p_pDC->DrawText( strN + strPatternName, rectText, DT_LEFT | DT_TOP);

  00541	c6 45 fc 0a	 mov	 BYTE PTR __$EHRec$[ebp+8], 10 ; 0000000aH
; File C:\Program Files (x86)\Microsoft Visual Studio\2019\Community\VC\Tools\MSVC\14.29.30133\atlmfc\include\cstringt.h

; 2390 : 		CStringT strResult( str1.GetManager() );

  00545	ff 15 00 00 00
	00		 call	 DWORD PTR __imp_?GetManager@?$CStringT@DV?$StrTraitMFC_DLL@DV?$ChTraitsCRT@D@ATL@@@@@ATL@@QBEPAUIAtlStringMgr@2@XZ
  0054b	50		 push	 eax
  0054c	8d 4d b4	 lea	 ecx, DWORD PTR $T5[ebp]
  0054f	ff 15 00 00 00
	00		 call	 DWORD PTR __imp_??0?$CStringT@DV?$StrTraitMFC_DLL@DV?$ChTraitsCRT@D@ATL@@@@@ATL@@QAE@PAUIAtlStringMgr@1@@Z

; 2394 : 		return( strResult );

  00555	8b 45 dc	 mov	 eax, DWORD PTR $T14[ebp]
; File C:\Program Files (x86)\Microsoft Visual Studio\2019\Community\VC\Tools\MSVC\14.29.30133\atlmfc\include\atlsimpstr.h

; 519  : 		return( GetData()->nDataLength );

  00558	8b 4d d8	 mov	 ecx, DWORD PTR _strN$13[ebp]
; File C:\Program Files (x86)\Microsoft Visual Studio\2019\Community\VC\Tools\MSVC\14.29.30133\atlmfc\include\cstringt.h

; 2394 : 		return( strResult );

  0055b	83 c8 20	 or	 eax, 32			; 00000020H
  0055e	89 45 dc	 mov	 DWORD PTR $T14[ebp], eax
  00561	89 45 d0	 mov	 DWORD PTR $T11[ebp], eax
; File C:\Program Files (x86)\Microsoft Visual Studio\2019\Community\VC\Tools\MSVC\14.29.30133\atlmfc\include\atlsimpstr.h

; 519  : 		return( GetData()->nDataLength );

  00564	8b 45 d4	 mov	 eax, DWORD PTR _strPatternName$12[ebp]
; File C:\Program Files (x86)\Microsoft Visual Studio\2019\Community\VC\Tools\MSVC\14.29.30133\atlmfc\include\cstringt.h

; 2392 : 		CThisSimpleString::Concatenate( strResult, str1, str1.GetLength(), str2, str2.GetLength() );

  00567	ff 70 f4	 push	 DWORD PTR [eax-12]
  0056a	50		 push	 eax
  0056b	ff 71 f4	 push	 DWORD PTR [ecx-12]
  0056e	8d 45 b4	 lea	 eax, DWORD PTR $T5[ebp]
  00571	51		 push	 ecx
  00572	50		 push	 eax
  00573	ff 15 00 00 00
	00		 call	 DWORD PTR __imp_?Concatenate@?$CSimpleStringT@D$00@ATL@@KAXAAV12@PBDH1H@Z
; File C:\Program Files (x86)\Microsoft Visual Studio\2019\Community\VC\Tools\MSVC\14.29.30133\atlmfc\include\atlsimpstr.h

; 519  : 		return( GetData()->nDataLength );

  00579	8b 45 b4	 mov	 eax, DWORD PTR $T5[ebp]
; File C:\Program Files (x86)\Microsoft Visual Studio\2019\Community\VC\Tools\MSVC\14.29.30133\atlmfc\include\afxwin1.inl

; 600  : 		return _AFX_FUNCNAME(DrawText)((LPCTSTR)str, (int)str.GetLength(), lpRect, nFormat); }

  0057c	8d 4d e0	 lea	 ecx, DWORD PTR _rectText$[ebp]
  0057f	8b 17		 mov	 edx, DWORD PTR [edi]
; File C:\Program Files (x86)\Microsoft Visual Studio\2019\Community\VC\Tools\MSVC\14.29.30133\atlmfc\include\cstringt.h

; 2392 : 		CThisSimpleString::Concatenate( strResult, str1, str1.GetLength(), str2, str2.GetLength() );

  00581	83 c4 14	 add	 esp, 20			; 00000014H
; File C:\Program Files (x86)\Microsoft Visual Studio\2019\Community\VC\Tools\MSVC\14.29.30133\atlmfc\include\afxwin1.inl

; 600  : 		return _AFX_FUNCNAME(DrawText)((LPCTSTR)str, (int)str.GetLength(), lpRect, nFormat); }

  00584	6a 00		 push	 0
  00586	51		 push	 ecx
  00587	ff 70 f4	 push	 DWORD PTR [eax-12]
  0058a	8b cf		 mov	 ecx, edi
  0058c	50		 push	 eax
  0058d	ff 52 70	 call	 DWORD PTR [edx+112]
; File D:\git\src\IBK\IBK_DRFN\ProjSrc\SrcChartEx\ChartAddIn\ChartPatternAddIn\PatternMaker.cpp

; 3269 : 				p_pDC->DrawText( strN + strPatternName, rectText, DT_LEFT | DT_TOP);

  00590	83 65 dc df	 and	 DWORD PTR $T14[ebp], -33 ; ffffffdfH
  00594	8d 4d b4	 lea	 ecx, DWORD PTR $T5[ebp]
$LN233@DrawCandle:
; File C:\Program Files (x86)\Microsoft Visual Studio\2019\Community\VC\Tools\MSVC\14.29.30133\atlmfc\include\afx.inl

; 116  : 	{ return ::operator new(nSize); }

  00597	c6 45 fc 04	 mov	 BYTE PTR __$EHRec$[ebp+8], 4
  0059b	ff 15 00 00 00
	00		 call	 DWORD PTR __imp_??1?$CStringT@DV?$StrTraitMFC_DLL@DV?$ChTraitsCRT@D@ATL@@@@@ATL@@QAE@XZ
$LN5@DrawCandle:
  005a1	6a 18		 push	 24			; 00000018H
  005a3	e8 00 00 00 00	 call	 ??2@YAPAXI@Z		; operator new
  005a8	83 c4 04	 add	 esp, 4
; File D:\git\src\IBK\IBK_DRFN\ProjSrc\SrcChartEx\ChartAddIn\ChartPatternAddIn\PatternMaker.cpp

; 3273 : 			pInfo = new CCandlePatternPosInfo;

  005ab	89 45 90	 mov	 DWORD PTR $T2[ebp], eax
  005ae	c6 45 fc 0b	 mov	 BYTE PTR __$EHRec$[ebp+8], 11 ; 0000000bH
  005b2	85 c0		 test	 eax, eax
  005b4	74 0b		 je	 SHORT $LN23@DrawCandle
  005b6	8b c8		 mov	 ecx, eax
  005b8	e8 00 00 00 00	 call	 ??0CCandlePatternPosInfo@@QAE@XZ ; CCandlePatternPosInfo::CCandlePatternPosInfo
  005bd	8b f8		 mov	 edi, eax
  005bf	eb 02		 jmp	 SHORT $LN24@DrawCandle
$LN23@DrawCandle:
  005c1	33 ff		 xor	 edi, edi
$LN24@DrawCandle:

; 3274 : 			pInfo->m_rect = rectText;

  005c3	0f 10 45 e0	 movups	 xmm0, XMMWORD PTR _rectText$[ebp]

; 3275 : 			pInfo->m_nCandlePtnType = pCandlePatternData->m_nCandlePtnType;

  005c7	8b 45 ac	 mov	 eax, DWORD PTR _pCandlePatternData$1$[ebp]

; 3276 : 			m_aryCandlePatternPosInfo.Add(pInfo);

  005ca	8b 4d a8	 mov	 ecx, DWORD PTR _this$GSCopy$1$[ebp]
  005cd	81 c1 d4 02 00
	00		 add	 ecx, 724		; 000002d4H
  005d3	c6 45 fc 04	 mov	 BYTE PTR __$EHRec$[ebp+8], 4
  005d7	0f 11 47 04	 movups	 XMMWORD PTR [edi+4], xmm0
  005db	8b 40 10	 mov	 eax, DWORD PTR [eax+16]
  005de	89 47 14	 mov	 DWORD PTR [edi+20], eax
; File C:\Program Files (x86)\Microsoft Visual Studio\2019\Community\VC\Tools\MSVC\14.29.30133\atlmfc\include\afxtempl.h

; 333  : 	{ INT_PTR nIndex = m_nSize;

  005e1	8b 41 08	 mov	 eax, DWORD PTR [ecx+8]
; File D:\git\src\IBK\IBK_DRFN\ProjSrc\SrcChartEx\ChartAddIn\ChartPatternAddIn\PatternMaker.cpp

; 3276 : 			m_aryCandlePatternPosInfo.Add(pInfo);

  005e4	89 4d ac	 mov	 DWORD PTR _this$1$[ebp], ecx
; File C:\Program Files (x86)\Microsoft Visual Studio\2019\Community\VC\Tools\MSVC\14.29.30133\atlmfc\include\afxtempl.h

; 333  : 	{ INT_PTR nIndex = m_nSize;

  005e7	89 45 b0	 mov	 DWORD PTR _nIndex$1$[ebp], eax

; 538  : 	if(nIndex < 0)

  005ea	85 c0		 test	 eax, eax
  005ec	78 70		 js	 SHORT $LN221@DrawCandle

; 539  : 		AfxThrowInvalidArgException();
; 540  : 
; 541  : 	if (nIndex >= m_nSize)
; 542  : 		SetSize(nIndex+1, -1);

  005ee	6a ff		 push	 -1
  005f0	40		 inc	 eax
  005f1	50		 push	 eax
  005f2	e8 00 00 00 00	 call	 ?SetSize@?$CArray@PAVCCandlePatternPosInfo@@PAV1@@@QAEXHH@Z ; CArray<CCandlePatternPosInfo *,CCandlePatternPosInfo *>::SetSize

; 543  : 	m_pData[nIndex] = newElement;

  005f7	8b 4d ac	 mov	 ecx, DWORD PTR _this$1$[ebp]
  005fa	8b 41 04	 mov	 eax, DWORD PTR [ecx+4]
  005fd	8b 4d b0	 mov	 ecx, DWORD PTR _nIndex$1$[ebp]
  00600	89 3c 88	 mov	 DWORD PTR [eax+ecx*4], edi
; File D:\git\src\IBK\IBK_DRFN\ProjSrc\SrcChartEx\ChartAddIn\ChartPatternAddIn\PatternMaker.cpp

; 3277 : 		}

  00603	8d 4d d8	 lea	 ecx, DWORD PTR _strN$13[ebp]
  00606	ff 15 00 00 00
	00		 call	 DWORD PTR __imp_??1?$CStringT@DV?$StrTraitMFC_DLL@DV?$ChTraitsCRT@D@ATL@@@@@ATL@@QAE@XZ
; File D:\git\src\IBK\IBK_DRFN\ProjSrc\SrcChartEx\ChartAddIn\ChartPatternAddIn\Include_Chart\Dll_Load\IMetaTable.h

; 1035 : 	{

  0060c	c6 45 fc 0c	 mov	 BYTE PTR __$EHRec$[ebp+8], 12 ; 0000000cH
; File C:\Program Files (x86)\Microsoft Visual Studio\2019\Community\VC\Tools\MSVC\14.29.30133\atlmfc\include\afxwin1.inl

; 27   : 	{ ASSERT(hInstResource != NULL); afxCurrentResourceHandle = hInstResource; }

  00610	e8 00 00 00 00	 call	 ?AfxGetModuleState@@YGPAVAFX_MODULE_STATE@@XZ ; AfxGetModuleState
; File D:\git\src\IBK\IBK_DRFN\ProjSrc\SrcChartEx\ChartAddIn\ChartPatternAddIn\PatternMaker.cpp

; 3277 : 		}

  00615	8d 4d d4	 lea	 ecx, DWORD PTR _strPatternName$12[ebp]
  00618	c6 45 fc 00	 mov	 BYTE PTR __$EHRec$[ebp+8], 0
; File C:\Program Files (x86)\Microsoft Visual Studio\2019\Community\VC\Tools\MSVC\14.29.30133\atlmfc\include\afxwin1.inl

; 27   : 	{ ASSERT(hInstResource != NULL); afxCurrentResourceHandle = hInstResource; }

  0061c	89 70 0c	 mov	 DWORD PTR [eax+12], esi
; File D:\git\src\IBK\IBK_DRFN\ProjSrc\SrcChartEx\ChartAddIn\ChartPatternAddIn\PatternMaker.cpp

; 3277 : 		}

  0061f	ff 15 00 00 00
	00		 call	 DWORD PTR __imp_??1?$CStringT@DV?$StrTraitMFC_DLL@DV?$ChTraitsCRT@D@ATL@@@@@ATL@@QAE@XZ
  00625	8b 75 a8	 mov	 esi, DWORD PTR _this$GSCopy$1$[ebp]
$LN2@DrawCandle:

; 3183 : 	BOOL bDisplay;
; 3184 : 	for (int i = 0; i < nPointCnt; i++)

  00628	8b 7d a4	 mov	 edi, DWORD PTR _i$1$[ebp]
  0062b	47		 inc	 edi
  0062c	89 7d a4	 mov	 DWORD PTR _i$1$[ebp], edi
  0062f	3b 7d a0	 cmp	 edi, DWORD PTR _nPointCnt$1$[ebp]
  00632	0f 8c 3a fa ff
	ff		 jl	 $LL4@DrawCandle
$LN3@DrawCandle:

; 3278 : 	}
; 3279 : 
; 3280 : 	// **************************************************************************************************(5_END)
; 3281 : }

  00638	8d 4d 9c	 lea	 ecx, DWORD PTR _strPatternName$[ebp]
  0063b	ff 15 00 00 00
	00		 call	 DWORD PTR __imp_??1?$CStringT@DV?$StrTraitMFC_DLL@DV?$ChTraitsCRT@D@ATL@@@@@ATL@@QAE@XZ
  00641	8b 4d f4	 mov	 ecx, DWORD PTR __$EHRec$[ebp]
  00644	64 89 0d 00 00
	00 00		 mov	 DWORD PTR fs:0, ecx
  0064b	59		 pop	 ecx
  0064c	5f		 pop	 edi
  0064d	5e		 pop	 esi
  0064e	8b 4d f0	 mov	 ecx, DWORD PTR __$ArrayPad$[ebp]
  00651	33 cd		 xor	 ecx, ebp
  00653	e8 00 00 00 00	 call	 @__security_check_cookie@4
  00658	8b e5		 mov	 esp, ebp
  0065a	5d		 pop	 ebp
  0065b	c2 24 00	 ret	 36			; 00000024H
$LN221@DrawCandle:
  0065e	e8 00 00 00 00	 call	 ?AfxThrowInvalidArgException@@YGXXZ ; AfxThrowInvalidArgException
$LN230@DrawCandle:
  00663	90		 npad	 1
$LN227@DrawCandle:
  00664	00 00 00 00	 DD	 $LN16@DrawCandle
  00668	00 00 00 00	 DD	 $LN17@DrawCandle
  0066c	00 00 00 00	 DD	 $LN18@DrawCandle
  00670	00 00 00 00	 DD	 $LN19@DrawCandle
  00674	00 00 00 00	 DD	 $LN20@DrawCandle
  00678	00 00 00 00	 DD	 $LN21@DrawCandle
_TEXT	ENDS
;	COMDAT text$x
text$x	SEGMENT
__unwindfunclet$?DrawCandlePattern@CPatternMaker@@QAEXPAVCDC@@HHNVCRect@@@Z$0:
  00000	8d 4d 9c	 lea	 ecx, DWORD PTR _strPatternName$[ebp]
  00003	ff 25 00 00 00
	00		 jmp	 DWORD PTR __imp_??1?$CStringT@DV?$StrTraitMFC_DLL@DV?$ChTraitsCRT@D@ATL@@@@@ATL@@QAE@XZ
__unwindfunclet$?DrawCandlePattern@CPatternMaker@@QAEXPAVCDC@@HHNVCRect@@@Z$1:
  00009	8d 4d d4	 lea	 ecx, DWORD PTR _strPatternName$12[ebp]
  0000c	ff 25 00 00 00
	00		 jmp	 DWORD PTR __imp_??1?$CStringT@DV?$StrTraitMFC_DLL@DV?$ChTraitsCRT@D@ATL@@@@@ATL@@QAE@XZ
__unwindfunclet$?DrawCandlePattern@CPatternMaker@@QAEXPAVCDC@@HHNVCRect@@@Z$2:
  00012	8d 4d 98	 lea	 ecx, DWORD PTR $T4[ebp]
  00015	ff 25 00 00 00
	00		 jmp	 DWORD PTR __imp_??1?$CStringT@DV?$StrTraitMFC_DLL@DV?$ChTraitsCRT@D@ATL@@@@@ATL@@QAE@XZ
__unwindfunclet$?DrawCandlePattern@CPatternMaker@@QAEXPAVCDC@@HHNVCRect@@@Z$3:
  0001b	8d 4d 94	 lea	 ecx, DWORD PTR ___mlrs__$3[ebp]
  0001e	e9 00 00 00 00	 jmp	 ??1CMultiLanguageResourceSetter@@QAE@XZ ; CMultiLanguageResourceSetter::~CMultiLanguageResourceSetter
__unwindfunclet$?DrawCandlePattern@CPatternMaker@@QAEXPAVCDC@@HHNVCRect@@@Z$4:
  00023	8d 4d d8	 lea	 ecx, DWORD PTR _strN$13[ebp]
  00026	ff 25 00 00 00
	00		 jmp	 DWORD PTR __imp_??1?$CStringT@DV?$StrTraitMFC_DLL@DV?$ChTraitsCRT@D@ATL@@@@@ATL@@QAE@XZ
__unwindfunclet$?DrawCandlePattern@CPatternMaker@@QAEXPAVCDC@@HHNVCRect@@@Z$12:
  0002c	8b 45 d0	 mov	 eax, DWORD PTR $T11[ebp]
  0002f	83 e0 01	 and	 eax, 1
  00032	0f 84 0d 00 00
	00		 je	 $LN65@DrawCandle
  00038	83 65 d0 fe	 and	 DWORD PTR $T11[ebp], -2	; fffffffeH
  0003c	8d 4d c8	 lea	 ecx, DWORD PTR $T10[ebp]
  0003f	ff 25 00 00 00
	00		 jmp	 DWORD PTR __imp_??1?$CStringT@DV?$StrTraitMFC_DLL@DV?$ChTraitsCRT@D@ATL@@@@@ATL@@QAE@XZ
$LN65@DrawCandle:
  00045	c3		 ret	 0
__unwindfunclet$?DrawCandlePattern@CPatternMaker@@QAEXPAVCDC@@HHNVCRect@@@Z$13:
  00046	8b 45 d0	 mov	 eax, DWORD PTR $T11[ebp]
  00049	83 e0 02	 and	 eax, 2
  0004c	0f 84 0d 00 00
	00		 je	 $LN89@DrawCandle
  00052	83 65 d0 fd	 and	 DWORD PTR $T11[ebp], -3	; fffffffdH
  00056	8d 4d c4	 lea	 ecx, DWORD PTR $T9[ebp]
  00059	ff 25 00 00 00
	00		 jmp	 DWORD PTR __imp_??1?$CStringT@DV?$StrTraitMFC_DLL@DV?$ChTraitsCRT@D@ATL@@@@@ATL@@QAE@XZ
$LN89@DrawCandle:
  0005f	c3		 ret	 0
__unwindfunclet$?DrawCandlePattern@CPatternMaker@@QAEXPAVCDC@@HHNVCRect@@@Z$14:
  00060	8b 45 d0	 mov	 eax, DWORD PTR $T11[ebp]
  00063	83 e0 04	 and	 eax, 4
  00066	0f 84 0d 00 00
	00		 je	 $LN113@DrawCandle
  0006c	83 65 d0 fb	 and	 DWORD PTR $T11[ebp], -5	; fffffffbH
  00070	8d 4d c0	 lea	 ecx, DWORD PTR $T8[ebp]
  00073	ff 25 00 00 00
	00		 jmp	 DWORD PTR __imp_??1?$CStringT@DV?$StrTraitMFC_DLL@DV?$ChTraitsCRT@D@ATL@@@@@ATL@@QAE@XZ
$LN113@DrawCandle:
  00079	c3		 ret	 0
__unwindfunclet$?DrawCandlePattern@CPatternMaker@@QAEXPAVCDC@@HHNVCRect@@@Z$15:
  0007a	8b 45 d0	 mov	 eax, DWORD PTR $T11[ebp]
  0007d	83 e0 08	 and	 eax, 8
  00080	0f 84 0d 00 00
	00		 je	 $LN137@DrawCandle
  00086	83 65 d0 f7	 and	 DWORD PTR $T11[ebp], -9	; fffffff7H
  0008a	8d 4d bc	 lea	 ecx, DWORD PTR $T7[ebp]
  0008d	ff 25 00 00 00
	00		 jmp	 DWORD PTR __imp_??1?$CStringT@DV?$StrTraitMFC_DLL@DV?$ChTraitsCRT@D@ATL@@@@@ATL@@QAE@XZ
$LN137@DrawCandle:
  00093	c3		 ret	 0
__unwindfunclet$?DrawCandlePattern@CPatternMaker@@QAEXPAVCDC@@HHNVCRect@@@Z$16:
  00094	8b 45 d0	 mov	 eax, DWORD PTR $T11[ebp]
  00097	83 e0 10	 and	 eax, 16			; 00000010H
  0009a	0f 84 0d 00 00
	00		 je	 $LN161@DrawCandle
  000a0	83 65 d0 ef	 and	 DWORD PTR $T11[ebp], -17 ; ffffffefH
  000a4	8d 4d b8	 lea	 ecx, DWORD PTR $T6[ebp]
  000a7	ff 25 00 00 00
	00		 jmp	 DWORD PTR __imp_??1?$CStringT@DV?$StrTraitMFC_DLL@DV?$ChTraitsCRT@D@ATL@@@@@ATL@@QAE@XZ
$LN161@DrawCandle:
  000ad	c3		 ret	 0
__unwindfunclet$?DrawCandlePattern@CPatternMaker@@QAEXPAVCDC@@HHNVCRect@@@Z$17:
  000ae	8b 45 d0	 mov	 eax, DWORD PTR $T11[ebp]
  000b1	83 e0 20	 and	 eax, 32			; 00000020H
  000b4	0f 84 0d 00 00
	00		 je	 $LN185@DrawCandle
  000ba	83 65 d0 df	 and	 DWORD PTR $T11[ebp], -33 ; ffffffdfH
  000be	8d 4d b4	 lea	 ecx, DWORD PTR $T5[ebp]
  000c1	ff 25 00 00 00
	00		 jmp	 DWORD PTR __imp_??1?$CStringT@DV?$StrTraitMFC_DLL@DV?$ChTraitsCRT@D@ATL@@@@@ATL@@QAE@XZ
$LN185@DrawCandle:
  000c7	c3		 ret	 0
__unwindfunclet$?DrawCandlePattern@CPatternMaker@@QAEXPAVCDC@@HHNVCRect@@@Z$11:
  000c8	8b 45 90	 mov	 eax, DWORD PTR $T2[ebp]
  000cb	50		 push	 eax
  000cc	e8 00 00 00 00	 call	 ??3CObject@@SGXPAX@Z	; CObject::operator delete
  000d1	c3		 ret	 0
  000d2	cc		 int	 3
  000d3	cc		 int	 3
  000d4	cc		 int	 3
  000d5	cc		 int	 3
  000d6	cc		 int	 3
__ehhandler$?DrawCandlePattern@CPatternMaker@@QAEXPAVCDC@@HHNVCRect@@@Z:
  000d7	90		 npad	 1
  000d8	90		 npad	 1
  000d9	8b 54 24 08	 mov	 edx, DWORD PTR [esp+8]
  000dd	8d 42 0c	 lea	 eax, DWORD PTR [edx+12]
  000e0	8b 4a 90	 mov	 ecx, DWORD PTR [edx-112]
  000e3	33 c8		 xor	 ecx, eax
  000e5	e8 00 00 00 00	 call	 @__security_check_cookie@4
  000ea	8b 4a fc	 mov	 ecx, DWORD PTR [edx-4]
  000ed	33 c8		 xor	 ecx, eax
  000ef	e8 00 00 00 00	 call	 @__security_check_cookie@4
  000f4	b8 00 00 00 00	 mov	 eax, OFFSET __ehfuncinfo$?DrawCandlePattern@CPatternMaker@@QAEXPAVCDC@@HHNVCRect@@@Z
  000f9	e9 00 00 00 00	 jmp	 ___CxxFrameHandler3
text$x	ENDS
?DrawCandlePattern@CPatternMaker@@QAEXPAVCDC@@HHNVCRect@@@Z ENDP ; CPatternMaker::DrawCandlePattern
; Function compile flags: /Ogtp
; File D:\git\src\IBK\IBK_DRFN\ProjSrc\SrcChartEx\ChartAddIn\ChartPatternAddIn\PatternMaker.cpp
; File C:\Program Files (x86)\Microsoft Visual Studio\2019\Community\VC\Tools\MSVC\14.29.30133\atlmfc\include\atltypes.h
; File D:\git\src\IBK\IBK_DRFN\ProjSrc\SrcChartEx\ChartAddIn\ChartPatternAddIn\PatternMaker.cpp
; File C:\Program Files (x86)\Microsoft Visual Studio\2019\Community\VC\Tools\MSVC\14.29.30133\atlmfc\include\afxtempl.h
; File D:\git\src\IBK\IBK_DRFN\ProjSrc\SrcChartEx\ChartAddIn\ChartPatternAddIn\PatternMaker.cpp
; File C:\Program Files (x86)\Microsoft Visual Studio\2019\Community\VC\Tools\MSVC\14.29.30133\atlmfc\include\afxtempl.h
; File D:\git\src\IBK\IBK_DRFN\ProjSrc\SrcChartEx\ChartAddIn\ChartPatternAddIn\PatternMaker.cpp
; File C:\Program Files (x86)\Microsoft Visual Studio\2019\Community\VC\Tools\MSVC\14.29.30133\atlmfc\include\afxwin1.inl
; File D:\git\src\IBK\IBK_DRFN\ProjSrc\SrcChartEx\ChartAddIn\ChartPatternAddIn\PatternMaker.cpp
; File C:\Program Files (x86)\Microsoft Visual Studio\2019\Community\VC\Tools\MSVC\14.29.30133\atlmfc\include\atlsimpstr.h
; File D:\git\src\IBK\IBK_DRFN\ProjSrc\SrcChartEx\ChartAddIn\ChartPatternAddIn\PatternMaker.cpp
; File C:\Program Files (x86)\Microsoft Visual Studio\2019\Community\VC\Tools\MSVC\14.29.30133\atlmfc\include\afxwin1.inl
; File D:\git\src\IBK\IBK_DRFN\ProjSrc\SrcChartEx\ChartAddIn\ChartPatternAddIn\PatternMaker.cpp
; File C:\Program Files (x86)\Microsoft Visual Studio\2019\Community\VC\Tools\MSVC\14.29.30133\atlmfc\include\afxwin1.inl
; File D:\git\src\IBK\IBK_DRFN\ProjSrc\SrcChartEx\ChartAddIn\ChartPatternAddIn\PatternMaker.cpp
; File C:\Program Files (x86)\Microsoft Visual Studio\2019\Community\VC\Tools\MSVC\14.29.30133\atlmfc\include\afxwin1.inl
; File D:\git\src\IBK\IBK_DRFN\ProjSrc\SrcChartEx\ChartAddIn\ChartPatternAddIn\PatternMaker.cpp
; File C:\Program Files (x86)\Microsoft Visual Studio\2019\Community\VC\Tools\MSVC\14.29.30133\atlmfc\include\atlsimpstr.h
; File D:\git\src\IBK\IBK_DRFN\ProjSrc\SrcChartEx\ChartAddIn\ChartPatternAddIn\PatternMaker.cpp
; File C:\Program Files (x86)\Microsoft Visual Studio\2019\Community\VC\Tools\MSVC\14.29.30133\atlmfc\include\afxwin1.inl
; File D:\git\src\IBK\IBK_DRFN\ProjSrc\SrcChartEx\ChartAddIn\ChartPatternAddIn\PatternMaker.cpp
; File C:\Program Files (x86)\Microsoft Visual Studio\2019\Community\VC\Tools\MSVC\14.29.30133\atlmfc\include\afxwin1.inl
; File D:\git\src\IBK\IBK_DRFN\ProjSrc\SrcChartEx\ChartAddIn\ChartPatternAddIn\PatternMaker.cpp
; File C:\Program Files (x86)\Microsoft Visual Studio\2019\Community\VC\Tools\MSVC\14.29.30133\atlmfc\include\afxwin1.inl
; File D:\git\src\IBK\IBK_DRFN\ProjSrc\SrcChartEx\ChartAddIn\ChartPatternAddIn\PatternMaker.cpp
; File C:\Program Files (x86)\Microsoft Visual Studio\2019\Community\VC\Tools\MSVC\14.29.30133\atlmfc\include\afxwin1.inl
; File D:\git\src\IBK\IBK_DRFN\ProjSrc\SrcChartEx\ChartAddIn\ChartPatternAddIn\PatternMaker.cpp
; File C:\Program Files (x86)\Microsoft Visual Studio\2019\Community\VC\Tools\MSVC\14.29.30133\atlmfc\include\afxwin1.inl
; File D:\git\src\IBK\IBK_DRFN\ProjSrc\SrcChartEx\ChartAddIn\ChartPatternAddIn\PatternMaker.cpp
; File C:\Program Files (x86)\Microsoft Visual Studio\2019\Community\VC\Tools\MSVC\14.29.30133\atlmfc\include\afxwin1.inl
; File D:\git\src\IBK\IBK_DRFN\ProjSrc\SrcChartEx\ChartAddIn\ChartPatternAddIn\PatternMaker.cpp
; File C:\Program Files (x86)\Microsoft Visual Studio\2019\Community\VC\Tools\MSVC\14.29.30133\atlmfc\include\afxwin1.inl
; File D:\git\src\IBK\IBK_DRFN\ProjSrc\SrcChartEx\ChartAddIn\ChartPatternAddIn\PatternMaker.cpp
; File C:\Program Files (x86)\Microsoft Visual Studio\2019\Community\VC\Tools\MSVC\14.29.30133\atlmfc\include\afxwin1.inl
; File D:\git\src\IBK\IBK_DRFN\ProjSrc\SrcChartEx\ChartAddIn\ChartPatternAddIn\PatternMaker.cpp
; File C:\Program Files (x86)\Microsoft Visual Studio\2019\Community\VC\Tools\MSVC\14.29.30133\atlmfc\include\afxwin1.inl
; File D:\git\src\IBK\IBK_DRFN\ProjSrc\SrcChartEx\ChartAddIn\ChartPatternAddIn\PatternMaker.cpp
; File C:\Program Files (x86)\Microsoft Visual Studio\2019\Community\VC\Tools\MSVC\14.29.30133\atlmfc\include\afxwin1.inl
; File D:\git\src\IBK\IBK_DRFN\ProjSrc\SrcChartEx\ChartAddIn\ChartPatternAddIn\PatternMaker.cpp
; File C:\Program Files (x86)\Microsoft Visual Studio\2019\Community\VC\Tools\MSVC\14.29.30133\atlmfc\include\afxtempl.h
; File D:\git\src\IBK\IBK_DRFN\ProjSrc\SrcChartEx\ChartAddIn\ChartPatternAddIn\PatternMaker.cpp
; File C:\Program Files (x86)\Microsoft Visual Studio\2019\Community\VC\Tools\MSVC\14.29.30133\atlmfc\include\afxwin1.inl
; File D:\git\src\IBK\IBK_DRFN\ProjSrc\SrcChartEx\ChartAddIn\ChartPatternAddIn\PatternMaker.cpp
; File C:\Program Files (x86)\Microsoft Visual Studio\2019\Community\VC\Tools\MSVC\14.29.30133\atlmfc\include\atlsimpstr.h
; File D:\git\src\IBK\IBK_DRFN\ProjSrc\SrcChartEx\ChartAddIn\ChartPatternAddIn\PatternMaker.cpp
; File C:\Program Files (x86)\Microsoft Visual Studio\2019\Community\VC\Tools\MSVC\14.29.30133\atlmfc\include\afxwin1.inl
; File D:\git\src\IBK\IBK_DRFN\ProjSrc\SrcChartEx\ChartAddIn\ChartPatternAddIn\PatternMaker.cpp
; File C:\Program Files (x86)\Microsoft Visual Studio\2019\Community\VC\Tools\MSVC\14.29.30133\atlmfc\include\afxwin1.inl
; File D:\git\src\IBK\IBK_DRFN\ProjSrc\SrcChartEx\ChartAddIn\ChartPatternAddIn\PatternMaker.cpp
; File C:\Program Files (x86)\Microsoft Visual Studio\2019\Community\VC\Tools\MSVC\14.29.30133\atlmfc\include\afxwin1.inl
; File D:\git\src\IBK\IBK_DRFN\ProjSrc\SrcChartEx\ChartAddIn\ChartPatternAddIn\PatternMaker.cpp
; File C:\Program Files (x86)\Microsoft Visual Studio\2019\Community\VC\Tools\MSVC\14.29.30133\atlmfc\include\atlsimpstr.h
; File D:\git\src\IBK\IBK_DRFN\ProjSrc\SrcChartEx\ChartAddIn\ChartPatternAddIn\PatternMaker.cpp
; File C:\Program Files (x86)\Microsoft Visual Studio\2019\Community\VC\Tools\MSVC\14.29.30133\atlmfc\include\afxwin1.inl
; File D:\git\src\IBK\IBK_DRFN\ProjSrc\SrcChartEx\ChartAddIn\ChartPatternAddIn\PatternMaker.cpp
; File C:\Program Files (x86)\Microsoft Visual Studio\2019\Community\VC\Tools\MSVC\14.29.30133\atlmfc\include\afxwin1.inl
; File D:\git\src\IBK\IBK_DRFN\ProjSrc\SrcChartEx\ChartAddIn\ChartPatternAddIn\PatternMaker.cpp
; File C:\Program Files (x86)\Microsoft Visual Studio\2019\Community\VC\Tools\MSVC\14.29.30133\atlmfc\include\afxwin1.inl
; File D:\git\src\IBK\IBK_DRFN\ProjSrc\SrcChartEx\ChartAddIn\ChartPatternAddIn\PatternMaker.cpp
;	COMDAT ?DrawAutoPattern@CPatternMaker@@QAEXPAVCDC@@HHNVCRect@@@Z
_TEXT	SEGMENT
$T2 = -260						; size = 8
$T3 = -252						; size = 8
$T4 = -244						; size = 8
$T5 = -236						; size = 8
$T6 = -236						; size = 8
$T7 = -236						; size = 8
$T8 = -236						; size = 8
$T9 = -236						; size = 8
$T10 = -236						; size = 8
_nXHigh$1$ = -228					; size = 4
_nY1$1$ = -224						; size = 4
_pWavePatternData$1$ = -220				; size = 4
_nX1$1$ = -216						; size = 4
_pnSelect$11 = -212					; size = 8
_fontBold$12 = -204					; size = 8
_nNeckXLength$1$ = -196					; size = 4
_nY4$1$ = -192						; size = 4
_nY3$1$ = -188						; size = 4
_nX3$1$ = -184						; size = 4
_nXLow$1$ = -180					; size = 4
_nTextHeight$2$ = -176					; size = 4
_nNeckYPos2$1$ = -172					; size = 4
_nNeckYPos1$1$ = -168					; size = 4
_nNeckXPos1$1$ = -164					; size = 4
_nX4$1$ = -160						; size = 4
_nYLow$1$ = -156					; size = 4
_pOldFont$1$ = -152					; size = 4
$T13 = -152						; size = 4
$T14 = -152						; size = 4
_nXHigh$2$ = -148					; size = 4
_nPointCnt$1$ = -148					; size = 4
_nNeckXPos2$1$ = -144					; size = 4
_nY2$1$ = -140						; size = 4
_nX2$1$ = -136						; size = 4
_nXLow$2$ = -132					; size = 4
_i$1$ = -132						; size = 4
_strPatternName$ = -128					; size = 4
_k$1$ = -124						; size = 4
_nNeckYLength1$1$ = -124				; size = 4
_nYHigh$2$ = -120					; size = 4
_nNeckYLength2$1$ = -120				; size = 4
_clrLine$1$ = -116					; size = 4
_nYHigh$1$ = -116					; size = 4
_p_pDC$GSCopy$1$ = -112					; size = 4
_nYLow$2$ = -112					; size = 4
_logfont$15 = -108					; size = 60
_logpen$16 = -48					; size = 16
$T17 = -40						; size = 8
_rectText$ = -32					; size = 16
__$ArrayPad$ = -16					; size = 4
__$EHRec$ = -12						; size = 12
_p_pDC$ = 8						; size = 4
_nStartIndex$ = 12					; size = 4
_nEndIndex$ = 16					; size = 4
_dCandleWidth$ = 20					; size = 8
_rctGraphRegion$ = 28					; size = 16
?DrawAutoPattern@CPatternMaker@@QAEXPAVCDC@@HHNVCRect@@@Z PROC ; CPatternMaker::DrawAutoPattern, COMDAT
; _this$ = ecx

; 2650 : {

  00000	55		 push	 ebp
  00001	8b ec		 mov	 ebp, esp
  00003	6a ff		 push	 -1
  00005	68 00 00 00 00	 push	 __ehhandler$?DrawAutoPattern@CPatternMaker@@QAEXPAVCDC@@HHNVCRect@@@Z
  0000a	64 a1 00 00 00
	00		 mov	 eax, DWORD PTR fs:0
  00010	50		 push	 eax
  00011	81 ec f8 00 00
	00		 sub	 esp, 248		; 000000f8H
  00017	a1 00 00 00 00	 mov	 eax, DWORD PTR ___security_cookie
  0001c	33 c5		 xor	 eax, ebp
  0001e	89 45 f0	 mov	 DWORD PTR __$ArrayPad$[ebp], eax
  00021	53		 push	 ebx
  00022	56		 push	 esi
  00023	57		 push	 edi
  00024	50		 push	 eax
  00025	8d 45 f4	 lea	 eax, DWORD PTR __$EHRec$[ebp]
  00028	64 a3 00 00 00
	00		 mov	 DWORD PTR fs:0, eax
  0002e	8b d9		 mov	 ebx, ecx

; 2651 : 	BOOL	bDrawAutoPatternLine = (m_PatternEnvData.m_bDrawAutoPatternLine && !m_PatternEnvData.m_bNotDrawAll);	//   

  00030	83 7b 38 00	 cmp	 DWORD PTR [ebx+56], 0
  00034	8b 7d 08	 mov	 edi, DWORD PTR _p_pDC$[ebp]
  00037	89 7d 90	 mov	 DWORD PTR _p_pDC$GSCopy$1$[ebp], edi
  0003a	0f 84 e7 11 00
	00		 je	 $LN1@DrawAutoPa
  00040	83 7b 24 00	 cmp	 DWORD PTR [ebx+36], 0
  00044	0f 85 dd 11 00
	00		 jne	 $LN1@DrawAutoPa

; 2652 : 	if(!bDrawAutoPatternLine)
; 2653 : 		return;
; 2654 : 
; 2655 : 	//   ************************************************************************************(4_ST)
; 2656 : 	CHighLowPtData	*pHighLowPtData, *pHighLowPtTemp;
; 2657 : 	pHighLowPtData = pHighLowPtTemp = NULL;
; 2658 : 
; 2659 : 	double	dDataOffset;
; 2660 : 	int		nX1, nY1, nX2, nY2;
; 2661 : 	int		nX3, nY3, nX4, nY4;
; 2662 : 	int		nXHigh, nYHigh, nXLow, nYLow;
; 2663 : 	int		nNeckXPos1, nNeckYPos1, nNeckXPos2, nNeckYPos2;
; 2664 : 	int		nNeckYBase1, nNeckYBase2, nNeckYLength1, nNeckYLength2, nNeckXLength;
; 2665 : 	int		nPatternTrend;
; 2666 : 	BOOL	bIsDrawReady;
; 2667 : 	CString	strPatternName;

  0004a	8d 4d 80	 lea	 ecx, DWORD PTR _strPatternName$[ebp]
  0004d	ff 15 00 00 00
	00		 call	 DWORD PTR __imp_??0?$CStringT@DV?$StrTraitMFC_DLL@DV?$ChTraitsCRT@D@ATL@@@@@ATL@@QAE@XZ

; 2671 : 	int nPointCnt = m_aryWavePatternData.GetSize();

  00053	8b 83 d0 00 00
	00		 mov	 eax, DWORD PTR [ebx+208]
  00059	0f 57 c0	 xorps	 xmm0, xmm0

; 2672 : 
; 2673 : // 2008.02.20 by LYH >>
; 2674 : 	IMetaTable::E_LANGUAGEID eLanguageID = g_iMetaTable.GetCurrentLanguageID( m_hOcxWnd);

  0005c	ff b3 9c 03 00
	00		 push	 DWORD PTR [ebx+924]
  00062	b9 00 00 00 00	 mov	 ecx, OFFSET ?g_iMetaTable@@3VIMetaTable@@A ; g_iMetaTable
  00067	c7 45 fc 00 00
	00 00		 mov	 DWORD PTR __$EHRec$[ebp+8], 0
; File C:\Program Files (x86)\Microsoft Visual Studio\2019\Community\VC\Tools\MSVC\14.29.30133\atlmfc\include\atltypes.h

; 528  : 	left = 0;

  0006e	0f 11 45 e0	 movups	 XMMWORD PTR _rectText$[ebp], xmm0
; File D:\git\src\IBK\IBK_DRFN\ProjSrc\SrcChartEx\ChartAddIn\ChartPatternAddIn\PatternMaker.cpp

; 2671 : 	int nPointCnt = m_aryWavePatternData.GetSize();

  00072	89 85 6c ff ff
	ff		 mov	 DWORD PTR _nPointCnt$1$[ebp], eax

; 2672 : 
; 2673 : // 2008.02.20 by LYH >>
; 2674 : 	IMetaTable::E_LANGUAGEID eLanguageID = g_iMetaTable.GetCurrentLanguageID( m_hOcxWnd);

  00078	e8 00 00 00 00	 call	 ?GetCurrentLanguageID@IMetaTable@@QAE?AW4E_LANGUAGEID@1@PAUHWND__@@@Z ; IMetaTable::GetCurrentLanguageID

; 2675 : 	int nTextHeight = 11;
; 2676 : 	if(eLanguageID == IMetaTable::ENGLISH)

  0007d	85 c0		 test	 eax, eax
  0007f	b9 0b 00 00 00	 mov	 ecx, 11			; 0000000bH
  00084	ba 0d 00 00 00	 mov	 edx, 13			; 0000000dH
  00089	0f 44 ca	 cmove	 ecx, edx

; 2677 : 		nTextHeight = 13;
; 2678 : // 2008.02.20 by LYH <<
; 2679 : 
; 2680 : 	for (int i = 0; i < nPointCnt; i++)

  0008c	33 f6		 xor	 esi, esi
  0008e	89 8d 50 ff ff
	ff		 mov	 DWORD PTR _nTextHeight$2$[ebp], ecx
  00094	89 b5 7c ff ff
	ff		 mov	 DWORD PTR _i$1$[ebp], esi
  0009a	39 b5 6c ff ff
	ff		 cmp	 DWORD PTR _nPointCnt$1$[ebp], esi
  000a0	0f 8e 50 0b 00
	00		 jle	 $LN3@DrawAutoPa
$LL4@DrawAutoPa:

; 2681 : 	{
; 2682 : 		//     
; 2683 : 		if( m_PatternEnvData.m_bNotDrawAll) break;

  000a6	83 7b 24 00	 cmp	 DWORD PTR [ebx+36], 0
  000aa	0f 85 43 0b 00
	00		 jne	 $LN290@DrawAutoPa

; 2684 : 
; 2685 : 		nX1 = nY1 = nX2 = nY2 = 0;
; 2686 : 		nX3 = nY3 = nX4 = nY4 = 0;
; 2687 : 		nNeckXPos1 = nNeckYPos1 = nNeckXPos2 = nNeckYPos2 = 0;
; 2688 : 		nNeckYLength1 = nNeckYLength2 = nNeckXLength = 0;
; 2689 : 		bIsDrawReady	= FALSE;
; 2690 : 		strPatternName	= _T("");

  000b0	68 00 00 00 00	 push	 OFFSET ??_C@_00CNPNBAHC@@
  000b5	8d 4d 80	 lea	 ecx, DWORD PTR _strPatternName$[ebp]
  000b8	c7 85 40 ff ff
	ff 00 00 00 00	 mov	 DWORD PTR _nY4$1$[ebp], 0
  000c2	c7 85 60 ff ff
	ff 00 00 00 00	 mov	 DWORD PTR _nX4$1$[ebp], 0
  000cc	c7 85 44 ff ff
	ff 00 00 00 00	 mov	 DWORD PTR _nY3$1$[ebp], 0
  000d6	c7 85 48 ff ff
	ff 00 00 00 00	 mov	 DWORD PTR _nX3$1$[ebp], 0
  000e0	c7 85 54 ff ff
	ff 00 00 00 00	 mov	 DWORD PTR _nNeckYPos2$1$[ebp], 0
  000ea	c7 85 70 ff ff
	ff 00 00 00 00	 mov	 DWORD PTR _nNeckXPos2$1$[ebp], 0
  000f4	c7 85 58 ff ff
	ff 00 00 00 00	 mov	 DWORD PTR _nNeckYPos1$1$[ebp], 0
  000fe	c7 85 5c ff ff
	ff 00 00 00 00	 mov	 DWORD PTR _nNeckXPos1$1$[ebp], 0
  00108	c7 85 3c ff ff
	ff 00 00 00 00	 mov	 DWORD PTR _nNeckXLength$1$[ebp], 0
  00112	c7 45 88 00 00
	00 00		 mov	 DWORD PTR _nNeckYLength2$1$[ebp], 0
  00119	c7 45 84 00 00
	00 00		 mov	 DWORD PTR _nNeckYLength1$1$[ebp], 0
  00120	ff 15 00 00 00
	00		 call	 DWORD PTR __imp_??4?$CStringT@DV?$StrTraitMFC_DLL@DV?$ChTraitsCRT@D@ATL@@@@@ATL@@QAEAAV01@PBD@Z
; File C:\Program Files (x86)\Microsoft Visual Studio\2019\Community\VC\Tools\MSVC\14.29.30133\atlmfc\include\afxtempl.h

; 288  : 	if(nIndex >= 0 && nIndex < m_nSize)

  00126	85 f6		 test	 esi, esi
  00128	0f 88 17 11 00
	00		 js	 $LN125@DrawAutoPa
  0012e	3b b3 d0 00 00
	00		 cmp	 esi, DWORD PTR [ebx+208]
  00134	0f 8d 0b 11 00
	00		 jge	 $LN125@DrawAutoPa

; 289  : 		return m_pData[nIndex];

  0013a	8b 83 cc 00 00
	00		 mov	 eax, DWORD PTR [ebx+204]
; File D:\git\src\IBK\IBK_DRFN\ProjSrc\SrcChartEx\ChartAddIn\ChartPatternAddIn\PatternMaker.cpp

; 2692 : 		pWavePatternData = m_aryWavePatternData.GetAt(i);

  00140	8b 3c b0	 mov	 edi, DWORD PTR [eax+esi*4]
  00143	89 bd 24 ff ff
	ff		 mov	 DWORD PTR _pWavePatternData$1$[ebp], edi

; 2693 : 		if ( !pWavePatternData)	continue;

  00149	85 ff		 test	 edi, edi
  0014b	0f 84 82 0a 00
	00		 je	 $LN294@DrawAutoPa

; 2694 : 
; 2695 : 		
; 2696 : 		// Get X, Y Point for Drawing
; 2697 : 		switch (pWavePatternData->m_nPatternType)

  00151	8b 47 04	 mov	 eax, DWORD PTR [edi+4]
  00154	05 5f f0 ff ff	 add	 eax, -4001		; fffff05fH
  00159	83 f8 13	 cmp	 eax, 19			; 00000013H
  0015c	0f 87 5c 0a 00
	00		 ja	 $LN284@DrawAutoPa
  00162	0f b6 80 00 00
	00 00		 movzx	 eax, BYTE PTR $LN286@DrawAutoPa[eax]
  00169	ff 24 85 00 00
	00 00		 jmp	 DWORD PTR $LN287@DrawAutoPa[eax*4]
$LN19@DrawAutoPa:
  00170	66 0f 6e 5d 0c	 movd	 xmm3, DWORD PTR _nStartIndex$[ebp]

; 2698 : 		{
; 2699 : 		case PTN_HEADNSHOULDER:			// Head & Shoulder				()
; 2700 : 		case PTN_R_HEADNSHOULDER:		// Reversal Head & Shoulder		()
; 2701 : 		case PTN_V_TOP:					// V Top						()
; 2702 : 		case PTN_V_BOTTOM:				// V Bottom						()
; 2703 : 			if ( (pWavePatternData->m_dDrawSeq1_1 >= nStartIndex) && (pWavePatternData->m_dDrawSeq1_1 <= nEndIndex) &&
; 2704 : 				 (pWavePatternData->m_dDrawSeq1_2 >= nStartIndex) && (pWavePatternData->m_dDrawSeq1_2 <= nEndIndex)	)

  00175	f2 0f 10 47 18	 movsd	 xmm0, QWORD PTR [edi+24]
  0017a	f3 0f e6 db	 cvtdq2pd xmm3, xmm3
  0017e	66 0f 2f c3	 comisd	 xmm0, xmm3
  00182	0f 82 36 0a 00
	00		 jb	 $LN284@DrawAutoPa
  00188	66 0f 6e 55 10	 movd	 xmm2, DWORD PTR _nEndIndex$[ebp]
  0018d	f3 0f e6 d2	 cvtdq2pd xmm2, xmm2
  00191	66 0f 2f d0	 comisd	 xmm2, xmm0
  00195	0f 82 23 0a 00
	00		 jb	 $LN284@DrawAutoPa
  0019b	f2 0f 10 4f 28	 movsd	 xmm1, QWORD PTR [edi+40]
  001a0	66 0f 2f cb	 comisd	 xmm1, xmm3
  001a4	0f 82 14 0a 00
	00		 jb	 $LN284@DrawAutoPa
  001aa	66 0f 2f d1	 comisd	 xmm2, xmm1
  001ae	0f 82 0a 0a 00
	00		 jb	 $LN284@DrawAutoPa

; 1093 : 	return m_pIChartManager->GetXPosition( m_strRQ, ( int)dDataOffset, 0);

  001b4	8b 4b 04	 mov	 ecx, DWORD PTR [ebx+4]
  001b7	f2 0f 2c c0	 cvttsd2si eax, xmm0
  001bb	6a 00		 push	 0
  001bd	8b 11		 mov	 edx, DWORD PTR [ecx]
  001bf	50		 push	 eax
  001c0	ff b3 98 03 00
	00		 push	 DWORD PTR [ebx+920]
  001c6	ff 52 74	 call	 DWORD PTR [edx+116]

; 2705 : 			{
; 2706 : 					// Point1
; 2707 : 					dDataOffset = pWavePatternData->m_dDrawSeq1_1;
; 2708 : 					nX1 = GetXPositoin( dDataOffset, dCandleWidth, rctGraphRegion);
; 2709 : 					nY1 = m_pIChartOCX->ConvertDataToYPosition( pWavePatternData->m_dDrawYPt1_1, m_dViewMax, m_dViewMin, 

  001c9	ff b3 40 02 00
	00		 push	 DWORD PTR [ebx+576]
  001cf	8b 4b 08	 mov	 ecx, DWORD PTR [ebx+8]
  001d2	ff b3 3c 02 00
	00		 push	 DWORD PTR [ebx+572]
  001d8	f2 0f 10 83 48
	02 00 00	 movsd	 xmm0, QWORD PTR [ebx+584]
  001e0	ff 75 28	 push	 DWORD PTR _rctGraphRegion$[ebp+12]
  001e3	8b 11		 mov	 edx, DWORD PTR [ecx]
  001e5	ff 75 20	 push	 DWORD PTR _rctGraphRegion$[ebp+4]
  001e8	89 85 28 ff ff
	ff		 mov	 DWORD PTR _nX1$1$[ebp], eax
  001ee	83 ec 18	 sub	 esp, 24			; 00000018H
  001f1	f2 0f 11 44 24
	10		 movsd	 QWORD PTR [esp+16], xmm0
  001f7	f2 0f 10 83 50
	02 00 00	 movsd	 xmm0, QWORD PTR [ebx+592]
  001ff	f2 0f 11 44 24
	08		 movsd	 QWORD PTR [esp+8], xmm0
  00205	f2 0f 10 47 20	 movsd	 xmm0, QWORD PTR [edi+32]
  0020a	f2 0f 11 04 24	 movsd	 QWORD PTR [esp], xmm0
  0020f	ff 92 a4 00 00
	00		 call	 DWORD PTR [edx+164]

; 1093 : 	return m_pIChartManager->GetXPosition( m_strRQ, ( int)dDataOffset, 0);

  00215	f2 0f 2c 57 28	 cvttsd2si edx, QWORD PTR [edi+40]
  0021a	8b 4b 04	 mov	 ecx, DWORD PTR [ebx+4]
  0021d	6a 00		 push	 0

; 2705 : 			{
; 2706 : 					// Point1
; 2707 : 					dDataOffset = pWavePatternData->m_dDrawSeq1_1;
; 2708 : 					nX1 = GetXPositoin( dDataOffset, dCandleWidth, rctGraphRegion);
; 2709 : 					nY1 = m_pIChartOCX->ConvertDataToYPosition( pWavePatternData->m_dDrawYPt1_1, m_dViewMax, m_dViewMin, 

  0021f	89 85 20 ff ff
	ff		 mov	 DWORD PTR _nY1$1$[ebp], eax

; 1093 : 	return m_pIChartManager->GetXPosition( m_strRQ, ( int)dDataOffset, 0);

  00225	8b 31		 mov	 esi, DWORD PTR [ecx]
  00227	52		 push	 edx
  00228	ff b3 98 03 00
	00		 push	 DWORD PTR [ebx+920]
  0022e	ff 56 74	 call	 DWORD PTR [esi+116]

; 2710 : 																rctGraphRegion.top, rctGraphRegion.bottom, m_bLog, m_bReverse);
; 2711 : 					
; 2712 : 					// Point2
; 2713 : 					dDataOffset = pWavePatternData->m_dDrawSeq1_2;
; 2714 : 					nX2 = GetXPositoin( dDataOffset, dCandleWidth, rctGraphRegion);
; 2715 : 					nY2 = m_pIChartOCX->ConvertDataToYPosition( pWavePatternData->m_dDrawYPt1_2, m_dViewMax, m_dViewMin, 

  00231	ff b3 40 02 00
	00		 push	 DWORD PTR [ebx+576]
  00237	8b 4b 08	 mov	 ecx, DWORD PTR [ebx+8]
  0023a	ff b3 3c 02 00
	00		 push	 DWORD PTR [ebx+572]
  00240	f2 0f 10 83 48
	02 00 00	 movsd	 xmm0, QWORD PTR [ebx+584]
  00248	ff 75 28	 push	 DWORD PTR _rctGraphRegion$[ebp+12]
  0024b	8b 11		 mov	 edx, DWORD PTR [ecx]
  0024d	ff 75 20	 push	 DWORD PTR _rctGraphRegion$[ebp+4]
  00250	89 85 78 ff ff
	ff		 mov	 DWORD PTR _nX2$1$[ebp], eax
  00256	83 ec 18	 sub	 esp, 24			; 00000018H
  00259	f2 0f 11 44 24
	10		 movsd	 QWORD PTR [esp+16], xmm0
  0025f	f2 0f 10 83 50
	02 00 00	 movsd	 xmm0, QWORD PTR [ebx+592]
  00267	f2 0f 11 44 24
	08		 movsd	 QWORD PTR [esp+8], xmm0
  0026d	f2 0f 10 47 30	 movsd	 xmm0, QWORD PTR [edi+48]
  00272	f2 0f 11 04 24	 movsd	 QWORD PTR [esp], xmm0
  00277	ff 92 a4 00 00
	00		 call	 DWORD PTR [edx+164]
  0027d	89 85 74 ff ff
	ff		 mov	 DWORD PTR _nY2$1$[ebp], eax

; 2716 : 																rctGraphRegion.top, rctGraphRegion.bottom, m_bLog, m_bReverse);
; 2717 : 
; 2718 : 					bIsDrawReady = TRUE;
; 2719 : 			}
; 2720 : 			break;

  00283	e9 15 02 00 00	 jmp	 $LN41@DrawAutoPa
$LN24@DrawAutoPa:
  00288	66 0f 6e 4d 0c	 movd	 xmm1, DWORD PTR _nStartIndex$[ebp]

; 2721 : 
; 2722 : 		case PTN_DOUBLETOP:				// Double Top					()
; 2723 : 		case PTN_R_DOUBLETOP:			// Reversal Double Top			()
; 2724 : 		case PTN_BULL_ISOTRIANGLE:		// Bull Isosceles Triangles		()
; 2725 : 		case PTN_BEAR_ISOTRIANGLE:		// Bear Isosceles Triangles		()
; 2726 : 		case PTN_BULL_TRIANGLE:			// Bull Triangles				()
; 2727 : 		case PTN_BEAR_TRIANGLE:			// Bear Triangles				()
; 2728 : 		case PTN_BULLISH_WIDETRIANGLE:	// Bullish Wide Triangles		()
; 2729 : 		case PTN_BEARISH_WIDETRIANGLE:	// Bearish Wide Triangles		()
; 2730 : 		case PTN_BULL_WEDGE:			// Bull Wedge					()
; 2731 : 		case PTN_BEAR_WEDGE:			// Bear Wedge					()
; 2732 : 		case PTN_BULL_SQUAREFLAG:		// Bull Square Flag				()
; 2733 : 		case PTN_BEAR_SQUAREFLAG:		// Bear Square Flag				()
; 2734 : 		case PTN_BULL_TRIANGLEFLAG:		// Bull Triangle Flag			()
; 2735 : 		case PTN_BEAR_TRIANGLEFLAG:		// Bear Triangle Flag			()
; 2736 : 		case PTN_BULL_RECTANGLE:		// Bull Rectangle				()
; 2737 : 		case PTN_BEAR_RECTANGLE:		// Bear Rectangle				()
; 2738 : 			if ( (pWavePatternData->m_dDrawSeq1_1 >= nStartIndex) && (pWavePatternData->m_dDrawSeq1_1 <= nEndIndex) &&
; 2739 : 				 (pWavePatternData->m_dDrawSeq1_2 >= nStartIndex) && (pWavePatternData->m_dDrawSeq1_2 <= nEndIndex)	&& 
; 2740 : 				 (pWavePatternData->m_dDrawSeq2_1 >= nStartIndex) && (pWavePatternData->m_dDrawSeq2_1 <= nEndIndex) &&
; 2741 : 				 (pWavePatternData->m_dDrawSeq2_2 >= nStartIndex) && (pWavePatternData->m_dDrawSeq2_2 <= nEndIndex)	 )

  0028d	f2 0f 10 5f 18	 movsd	 xmm3, QWORD PTR [edi+24]
  00292	f3 0f e6 c9	 cvtdq2pd xmm1, xmm1
  00296	66 0f 2f d9	 comisd	 xmm3, xmm1
  0029a	0f 82 1e 09 00
	00		 jb	 $LN284@DrawAutoPa
  002a0	66 0f 6e 45 10	 movd	 xmm0, DWORD PTR _nEndIndex$[ebp]
  002a5	f3 0f e6 c0	 cvtdq2pd xmm0, xmm0
  002a9	66 0f 2f c3	 comisd	 xmm0, xmm3
  002ad	0f 82 0b 09 00
	00		 jb	 $LN284@DrawAutoPa
  002b3	f2 0f 10 57 28	 movsd	 xmm2, QWORD PTR [edi+40]
  002b8	66 0f 2f d1	 comisd	 xmm2, xmm1
  002bc	0f 82 fc 08 00
	00		 jb	 $LN284@DrawAutoPa
  002c2	66 0f 2f c2	 comisd	 xmm0, xmm2
  002c6	0f 82 f2 08 00
	00		 jb	 $LN284@DrawAutoPa
  002cc	f2 0f 10 57 38	 movsd	 xmm2, QWORD PTR [edi+56]
  002d1	66 0f 2f d1	 comisd	 xmm2, xmm1
  002d5	0f 82 e3 08 00
	00		 jb	 $LN284@DrawAutoPa
  002db	66 0f 2f c2	 comisd	 xmm0, xmm2
  002df	0f 82 d9 08 00
	00		 jb	 $LN284@DrawAutoPa
  002e5	f2 0f 10 57 48	 movsd	 xmm2, QWORD PTR [edi+72]
  002ea	66 0f 2f d1	 comisd	 xmm2, xmm1
  002ee	0f 82 ca 08 00
	00		 jb	 $LN284@DrawAutoPa
  002f4	66 0f 2f c2	 comisd	 xmm0, xmm2
  002f8	0f 82 c0 08 00
	00		 jb	 $LN284@DrawAutoPa

; 1093 : 	return m_pIChartManager->GetXPosition( m_strRQ, ( int)dDataOffset, 0);

  002fe	8b 4b 04	 mov	 ecx, DWORD PTR [ebx+4]
  00301	f2 0f 2c c3	 cvttsd2si eax, xmm3
  00305	6a 00		 push	 0
  00307	8b 11		 mov	 edx, DWORD PTR [ecx]
  00309	50		 push	 eax
  0030a	ff b3 98 03 00
	00		 push	 DWORD PTR [ebx+920]
  00310	ff 52 74	 call	 DWORD PTR [edx+116]

; 2742 : 			{
; 2743 : 					// Point1
; 2744 : 					dDataOffset = pWavePatternData->m_dDrawSeq1_1;
; 2745 : 					nX1 = GetXPositoin( dDataOffset, dCandleWidth, rctGraphRegion);
; 2746 : 					nY1 = m_pIChartOCX->ConvertDataToYPosition( pWavePatternData->m_dDrawYPt1_1, m_dViewMax, m_dViewMin, 

  00313	ff b3 40 02 00
	00		 push	 DWORD PTR [ebx+576]
  00319	8b 4b 08	 mov	 ecx, DWORD PTR [ebx+8]
  0031c	ff b3 3c 02 00
	00		 push	 DWORD PTR [ebx+572]
  00322	f2 0f 10 83 48
	02 00 00	 movsd	 xmm0, QWORD PTR [ebx+584]
  0032a	ff 75 28	 push	 DWORD PTR _rctGraphRegion$[ebp+12]
  0032d	89 85 28 ff ff
	ff		 mov	 DWORD PTR _nX1$1$[ebp], eax
  00333	ff 75 20	 push	 DWORD PTR _rctGraphRegion$[ebp+4]
  00336	8b 01		 mov	 eax, DWORD PTR [ecx]
  00338	83 ec 18	 sub	 esp, 24			; 00000018H
  0033b	f2 0f 11 44 24
	10		 movsd	 QWORD PTR [esp+16], xmm0
  00341	f2 0f 10 83 50
	02 00 00	 movsd	 xmm0, QWORD PTR [ebx+592]
  00349	f2 0f 11 44 24
	08		 movsd	 QWORD PTR [esp+8], xmm0
  0034f	f2 0f 10 47 20	 movsd	 xmm0, QWORD PTR [edi+32]
  00354	f2 0f 11 04 24	 movsd	 QWORD PTR [esp], xmm0
  00359	ff 90 a4 00 00
	00		 call	 DWORD PTR [eax+164]

; 1093 : 	return m_pIChartManager->GetXPosition( m_strRQ, ( int)dDataOffset, 0);

  0035f	8b 4b 04	 mov	 ecx, DWORD PTR [ebx+4]

; 2742 : 			{
; 2743 : 					// Point1
; 2744 : 					dDataOffset = pWavePatternData->m_dDrawSeq1_1;
; 2745 : 					nX1 = GetXPositoin( dDataOffset, dCandleWidth, rctGraphRegion);
; 2746 : 					nY1 = m_pIChartOCX->ConvertDataToYPosition( pWavePatternData->m_dDrawYPt1_1, m_dViewMax, m_dViewMin, 

  00362	89 85 20 ff ff
	ff		 mov	 DWORD PTR _nY1$1$[ebp], eax

; 1093 : 	return m_pIChartManager->GetXPosition( m_strRQ, ( int)dDataOffset, 0);

  00368	f2 0f 2c 47 28	 cvttsd2si eax, QWORD PTR [edi+40]
  0036d	6a 00		 push	 0
  0036f	8b 11		 mov	 edx, DWORD PTR [ecx]
  00371	50		 push	 eax
  00372	ff b3 98 03 00
	00		 push	 DWORD PTR [ebx+920]
  00378	ff 52 74	 call	 DWORD PTR [edx+116]

; 2747 : 																rctGraphRegion.top, rctGraphRegion.bottom, m_bLog, m_bReverse);
; 2748 : 					
; 2749 : 					// Point2
; 2750 : 					dDataOffset = pWavePatternData->m_dDrawSeq1_2;
; 2751 : 					nX2 = GetXPositoin( dDataOffset, dCandleWidth, rctGraphRegion);
; 2752 : 					nY2 = m_pIChartOCX->ConvertDataToYPosition( pWavePatternData->m_dDrawYPt1_2, m_dViewMax, m_dViewMin, 

  0037b	ff b3 40 02 00
	00		 push	 DWORD PTR [ebx+576]
  00381	8b 4b 08	 mov	 ecx, DWORD PTR [ebx+8]
  00384	ff b3 3c 02 00
	00		 push	 DWORD PTR [ebx+572]
  0038a	f2 0f 10 83 48
	02 00 00	 movsd	 xmm0, QWORD PTR [ebx+584]
  00392	ff 75 28	 push	 DWORD PTR _rctGraphRegion$[ebp+12]
  00395	89 85 78 ff ff
	ff		 mov	 DWORD PTR _nX2$1$[ebp], eax
  0039b	ff 75 20	 push	 DWORD PTR _rctGraphRegion$[ebp+4]
  0039e	8b 01		 mov	 eax, DWORD PTR [ecx]
  003a0	83 ec 18	 sub	 esp, 24			; 00000018H
  003a3	f2 0f 11 44 24
	10		 movsd	 QWORD PTR [esp+16], xmm0
  003a9	f2 0f 10 83 50
	02 00 00	 movsd	 xmm0, QWORD PTR [ebx+592]
  003b1	f2 0f 11 44 24
	08		 movsd	 QWORD PTR [esp+8], xmm0
  003b7	f2 0f 10 47 30	 movsd	 xmm0, QWORD PTR [edi+48]
  003bc	f2 0f 11 04 24	 movsd	 QWORD PTR [esp], xmm0
  003c1	ff 90 a4 00 00
	00		 call	 DWORD PTR [eax+164]

; 1093 : 	return m_pIChartManager->GetXPosition( m_strRQ, ( int)dDataOffset, 0);

  003c7	8b 4b 04	 mov	 ecx, DWORD PTR [ebx+4]

; 2747 : 																rctGraphRegion.top, rctGraphRegion.bottom, m_bLog, m_bReverse);
; 2748 : 					
; 2749 : 					// Point2
; 2750 : 					dDataOffset = pWavePatternData->m_dDrawSeq1_2;
; 2751 : 					nX2 = GetXPositoin( dDataOffset, dCandleWidth, rctGraphRegion);
; 2752 : 					nY2 = m_pIChartOCX->ConvertDataToYPosition( pWavePatternData->m_dDrawYPt1_2, m_dViewMax, m_dViewMin, 

  003ca	89 85 74 ff ff
	ff		 mov	 DWORD PTR _nY2$1$[ebp], eax

; 1093 : 	return m_pIChartManager->GetXPosition( m_strRQ, ( int)dDataOffset, 0);

  003d0	f2 0f 2c 47 38	 cvttsd2si eax, QWORD PTR [edi+56]
  003d5	6a 00		 push	 0
  003d7	8b 11		 mov	 edx, DWORD PTR [ecx]
  003d9	50		 push	 eax
  003da	ff b3 98 03 00
	00		 push	 DWORD PTR [ebx+920]
  003e0	ff 52 74	 call	 DWORD PTR [edx+116]

; 2753 : 																rctGraphRegion.top, rctGraphRegion.bottom, m_bLog, m_bReverse);
; 2754 : 
; 2755 : 					// Point3
; 2756 : 					dDataOffset = pWavePatternData->m_dDrawSeq2_1;
; 2757 : 					nX3 = GetXPositoin( dDataOffset, dCandleWidth, rctGraphRegion);
; 2758 : 					nY3 = m_pIChartOCX->ConvertDataToYPosition( pWavePatternData->m_dDrawYPt2_1, m_dViewMax, m_dViewMin, 

  003e3	ff b3 40 02 00
	00		 push	 DWORD PTR [ebx+576]
  003e9	8b 4b 08	 mov	 ecx, DWORD PTR [ebx+8]
  003ec	ff b3 3c 02 00
	00		 push	 DWORD PTR [ebx+572]
  003f2	f2 0f 10 83 48
	02 00 00	 movsd	 xmm0, QWORD PTR [ebx+584]
  003fa	ff 75 28	 push	 DWORD PTR _rctGraphRegion$[ebp+12]
  003fd	8b 11		 mov	 edx, DWORD PTR [ecx]
  003ff	ff 75 20	 push	 DWORD PTR _rctGraphRegion$[ebp+4]
  00402	89 85 48 ff ff
	ff		 mov	 DWORD PTR _nX3$1$[ebp], eax
  00408	83 ec 18	 sub	 esp, 24			; 00000018H
  0040b	f2 0f 11 44 24
	10		 movsd	 QWORD PTR [esp+16], xmm0
  00411	f2 0f 10 83 50
	02 00 00	 movsd	 xmm0, QWORD PTR [ebx+592]
  00419	f2 0f 11 44 24
	08		 movsd	 QWORD PTR [esp+8], xmm0
  0041f	f2 0f 10 47 40	 movsd	 xmm0, QWORD PTR [edi+64]
  00424	f2 0f 11 04 24	 movsd	 QWORD PTR [esp], xmm0
  00429	ff 92 a4 00 00
	00		 call	 DWORD PTR [edx+164]

; 1093 : 	return m_pIChartManager->GetXPosition( m_strRQ, ( int)dDataOffset, 0);

  0042f	f2 0f 2c 57 48	 cvttsd2si edx, QWORD PTR [edi+72]
  00434	8b 4b 04	 mov	 ecx, DWORD PTR [ebx+4]
  00437	6a 00		 push	 0

; 2753 : 																rctGraphRegion.top, rctGraphRegion.bottom, m_bLog, m_bReverse);
; 2754 : 
; 2755 : 					// Point3
; 2756 : 					dDataOffset = pWavePatternData->m_dDrawSeq2_1;
; 2757 : 					nX3 = GetXPositoin( dDataOffset, dCandleWidth, rctGraphRegion);
; 2758 : 					nY3 = m_pIChartOCX->ConvertDataToYPosition( pWavePatternData->m_dDrawYPt2_1, m_dViewMax, m_dViewMin, 

  00439	89 85 44 ff ff
	ff		 mov	 DWORD PTR _nY3$1$[ebp], eax

; 1093 : 	return m_pIChartManager->GetXPosition( m_strRQ, ( int)dDataOffset, 0);

  0043f	8b 31		 mov	 esi, DWORD PTR [ecx]
  00441	52		 push	 edx
  00442	ff b3 98 03 00
	00		 push	 DWORD PTR [ebx+920]
  00448	ff 56 74	 call	 DWORD PTR [esi+116]

; 2759 : 																rctGraphRegion.top, rctGraphRegion.bottom, m_bLog, m_bReverse);
; 2760 : 					
; 2761 : 					// Point4
; 2762 : 					dDataOffset = pWavePatternData->m_dDrawSeq2_2;
; 2763 : 					nX4 = GetXPositoin( dDataOffset, dCandleWidth, rctGraphRegion);
; 2764 : 					nY4 = m_pIChartOCX->ConvertDataToYPosition( pWavePatternData->m_dDrawYPt2_2, m_dViewMax, m_dViewMin, 

  0044b	8b 4b 08	 mov	 ecx, DWORD PTR [ebx+8]
  0044e	ff b3 40 02 00
	00		 push	 DWORD PTR [ebx+576]
  00454	89 85 60 ff ff
	ff		 mov	 DWORD PTR _nX4$1$[ebp], eax
  0045a	ff b3 3c 02 00
	00		 push	 DWORD PTR [ebx+572]
  00460	8b 11		 mov	 edx, DWORD PTR [ecx]
  00462	ff 75 28	 push	 DWORD PTR _rctGraphRegion$[ebp+12]
  00465	f2 0f 10 83 48
	02 00 00	 movsd	 xmm0, QWORD PTR [ebx+584]
  0046d	ff 75 20	 push	 DWORD PTR _rctGraphRegion$[ebp+4]
  00470	83 ec 18	 sub	 esp, 24			; 00000018H
  00473	f2 0f 11 44 24
	10		 movsd	 QWORD PTR [esp+16], xmm0
  00479	f2 0f 10 83 50
	02 00 00	 movsd	 xmm0, QWORD PTR [ebx+592]
  00481	f2 0f 11 44 24
	08		 movsd	 QWORD PTR [esp+8], xmm0
  00487	f2 0f 10 47 50	 movsd	 xmm0, QWORD PTR [edi+80]
  0048c	f2 0f 11 04 24	 movsd	 QWORD PTR [esp], xmm0
  00491	ff 92 a4 00 00
	00		 call	 DWORD PTR [edx+164]
  00497	89 85 40 ff ff
	ff		 mov	 DWORD PTR _nY4$1$[ebp], eax
$LN41@DrawAutoPa:

; 2776 : 			continue;
; 2777 : 		}
; 2778 : 
; 2779 : 
; 2780 : 		// Get Neck Point
; 2781 : 		switch (pWavePatternData->m_nPatternType)

  0049d	8b 4f 04	 mov	 ecx, DWORD PTR [edi+4]
  004a0	8d 91 5f f0 ff
	ff		 lea	 edx, DWORD PTR [ecx-4001]
  004a6	83 fa 11	 cmp	 edx, 17			; 00000011H
  004a9	0f 87 ba 01 00
	00		 ja	 $LN64@DrawAutoPa
  004af	0f b6 82 00 00
	00 00		 movzx	 eax, BYTE PTR $LN288@DrawAutoPa[edx]
  004b6	ff 24 85 00 00
	00 00		 jmp	 DWORD PTR $LN289@DrawAutoPa[eax*4]
$LN43@DrawAutoPa:

; 1093 : 	return m_pIChartManager->GetXPosition( m_strRQ, ( int)dDataOffset, 0);

  004bd	f2 0f 2c 47 58	 cvttsd2si eax, QWORD PTR [edi+88]
  004c2	8b 4b 04	 mov	 ecx, DWORD PTR [ebx+4]
  004c5	6a 00		 push	 0
  004c7	8b 11		 mov	 edx, DWORD PTR [ecx]
  004c9	50		 push	 eax
  004ca	ff b3 98 03 00
	00		 push	 DWORD PTR [ebx+920]
  004d0	ff 52 74	 call	 DWORD PTR [edx+116]

; 2782 : 		{
; 2783 : 		case PTN_HEADNSHOULDER:			// Head & Shoulder				()
; 2784 : 		case PTN_R_HEADNSHOULDER:		// Reversal Head & Shoulder		()
; 2785 : 		case PTN_DOUBLETOP:				// Double Top					()
; 2786 : 		case PTN_R_DOUBLETOP:			// Reversal Double Top			()
; 2787 : 		case PTN_BULL_ISOTRIANGLE:		// Bull Isosceles Triangles		()
; 2788 : 		case PTN_BEAR_ISOTRIANGLE:		// Bear Isosceles Triangles		()
; 2789 : 		case PTN_BULL_TRIANGLE:			// Bull Triangles				()
; 2790 : 		case PTN_BEAR_TRIANGLE:			// Bear Triangles				()
; 2791 : 		case PTN_BULLISH_WIDETRIANGLE:	// Bullish Wide Triangles		()
; 2792 : 		case PTN_BEARISH_WIDETRIANGLE:	// Bearish Wide Triangles		()
; 2793 : 		case PTN_BULL_WEDGE:			// Bull Wedge					()
; 2794 : 		case PTN_BEAR_WEDGE:			// Bear Wedge					()
; 2795 : 		case PTN_BULL_SQUAREFLAG:		// Bull Square Flag				()
; 2796 : 		case PTN_BEAR_SQUAREFLAG:		// Bear Square Flag				()
; 2797 : 		case PTN_BULL_TRIANGLEFLAG:		// Bull Triangle Flag			()
; 2798 : 		case PTN_BEAR_TRIANGLEFLAG:		// Bear Triangle Flag			()
; 2799 : 		case PTN_BULL_RECTANGLE:		// Bull Rectangle				()
; 2800 : 		case PTN_BEAR_RECTANGLE:		// Bear Rectangle				()
; 2801 : 			{
; 2802 : 				// Get First Neck Pt
; 2803 : 				dDataOffset = pWavePatternData->m_dNeckSeq1;
; 2804 : 				nNeckXPos1 = GetXPositoin( dDataOffset, dCandleWidth, rctGraphRegion);
; 2805 : 				nNeckYPos1 = m_pIChartOCX->ConvertDataToYPosition(	pWavePatternData->m_dNeckYPt1, m_dViewMax, m_dViewMin, 

  004d3	ff b3 40 02 00
	00		 push	 DWORD PTR [ebx+576]
  004d9	8b 4b 08	 mov	 ecx, DWORD PTR [ebx+8]
  004dc	ff b3 3c 02 00
	00		 push	 DWORD PTR [ebx+572]
  004e2	f2 0f 10 83 48
	02 00 00	 movsd	 xmm0, QWORD PTR [ebx+584]
  004ea	ff 75 28	 push	 DWORD PTR _rctGraphRegion$[ebp+12]
  004ed	8b 11		 mov	 edx, DWORD PTR [ecx]
  004ef	ff 75 20	 push	 DWORD PTR _rctGraphRegion$[ebp+4]
  004f2	89 85 5c ff ff
	ff		 mov	 DWORD PTR _nNeckXPos1$1$[ebp], eax
  004f8	83 ec 18	 sub	 esp, 24			; 00000018H
  004fb	f2 0f 11 44 24
	10		 movsd	 QWORD PTR [esp+16], xmm0
  00501	f2 0f 10 83 50
	02 00 00	 movsd	 xmm0, QWORD PTR [ebx+592]
  00509	f2 0f 11 44 24
	08		 movsd	 QWORD PTR [esp+8], xmm0
  0050f	f2 0f 10 47 60	 movsd	 xmm0, QWORD PTR [edi+96]
  00514	f2 0f 11 04 24	 movsd	 QWORD PTR [esp], xmm0
  00519	ff 92 a4 00 00
	00		 call	 DWORD PTR [edx+164]

; 1093 : 	return m_pIChartManager->GetXPosition( m_strRQ, ( int)dDataOffset, 0);

  0051f	f2 0f 2c 57 68	 cvttsd2si edx, QWORD PTR [edi+104]
  00524	8b 4b 04	 mov	 ecx, DWORD PTR [ebx+4]
  00527	6a 00		 push	 0

; 2782 : 		{
; 2783 : 		case PTN_HEADNSHOULDER:			// Head & Shoulder				()
; 2784 : 		case PTN_R_HEADNSHOULDER:		// Reversal Head & Shoulder		()
; 2785 : 		case PTN_DOUBLETOP:				// Double Top					()
; 2786 : 		case PTN_R_DOUBLETOP:			// Reversal Double Top			()
; 2787 : 		case PTN_BULL_ISOTRIANGLE:		// Bull Isosceles Triangles		()
; 2788 : 		case PTN_BEAR_ISOTRIANGLE:		// Bear Isosceles Triangles		()
; 2789 : 		case PTN_BULL_TRIANGLE:			// Bull Triangles				()
; 2790 : 		case PTN_BEAR_TRIANGLE:			// Bear Triangles				()
; 2791 : 		case PTN_BULLISH_WIDETRIANGLE:	// Bullish Wide Triangles		()
; 2792 : 		case PTN_BEARISH_WIDETRIANGLE:	// Bearish Wide Triangles		()
; 2793 : 		case PTN_BULL_WEDGE:			// Bull Wedge					()
; 2794 : 		case PTN_BEAR_WEDGE:			// Bear Wedge					()
; 2795 : 		case PTN_BULL_SQUAREFLAG:		// Bull Square Flag				()
; 2796 : 		case PTN_BEAR_SQUAREFLAG:		// Bear Square Flag				()
; 2797 : 		case PTN_BULL_TRIANGLEFLAG:		// Bull Triangle Flag			()
; 2798 : 		case PTN_BEAR_TRIANGLEFLAG:		// Bear Triangle Flag			()
; 2799 : 		case PTN_BULL_RECTANGLE:		// Bull Rectangle				()
; 2800 : 		case PTN_BEAR_RECTANGLE:		// Bear Rectangle				()
; 2801 : 			{
; 2802 : 				// Get First Neck Pt
; 2803 : 				dDataOffset = pWavePatternData->m_dNeckSeq1;
; 2804 : 				nNeckXPos1 = GetXPositoin( dDataOffset, dCandleWidth, rctGraphRegion);
; 2805 : 				nNeckYPos1 = m_pIChartOCX->ConvertDataToYPosition(	pWavePatternData->m_dNeckYPt1, m_dViewMax, m_dViewMin, 

  00529	89 85 58 ff ff
	ff		 mov	 DWORD PTR _nNeckYPos1$1$[ebp], eax

; 1093 : 	return m_pIChartManager->GetXPosition( m_strRQ, ( int)dDataOffset, 0);

  0052f	8b 31		 mov	 esi, DWORD PTR [ecx]
  00531	52		 push	 edx
  00532	ff b3 98 03 00
	00		 push	 DWORD PTR [ebx+920]
  00538	ff 56 74	 call	 DWORD PTR [esi+116]

; 2806 : 																	rctGraphRegion.top, rctGraphRegion.bottom, m_bLog, m_bReverse);
; 2807 : 				// Get Second Neck Pt
; 2808 : 				dDataOffset = pWavePatternData->m_dNeckSeq2;
; 2809 : 				nNeckXPos2 = GetXPositoin( dDataOffset, dCandleWidth, rctGraphRegion);
; 2810 : 				nNeckYPos2 = m_pIChartOCX->ConvertDataToYPosition(	pWavePatternData->m_dNeckYPt2, m_dViewMax, m_dViewMin, 

  0053b	ff b3 40 02 00
	00		 push	 DWORD PTR [ebx+576]
  00541	8b 4b 08	 mov	 ecx, DWORD PTR [ebx+8]
  00544	8b f0		 mov	 esi, eax
  00546	ff b3 3c 02 00
	00		 push	 DWORD PTR [ebx+572]
  0054c	f2 0f 10 83 48
	02 00 00	 movsd	 xmm0, QWORD PTR [ebx+584]
  00554	ff 75 28	 push	 DWORD PTR _rctGraphRegion$[ebp+12]
  00557	8b 11		 mov	 edx, DWORD PTR [ecx]
  00559	ff 75 20	 push	 DWORD PTR _rctGraphRegion$[ebp+4]
  0055c	89 b5 70 ff ff
	ff		 mov	 DWORD PTR _nNeckXPos2$1$[ebp], esi
  00562	83 ec 18	 sub	 esp, 24			; 00000018H
  00565	f2 0f 11 44 24
	10		 movsd	 QWORD PTR [esp+16], xmm0
  0056b	f2 0f 10 83 50
	02 00 00	 movsd	 xmm0, QWORD PTR [ebx+592]
  00573	f2 0f 11 44 24
	08		 movsd	 QWORD PTR [esp+8], xmm0
  00579	f2 0f 10 47 70	 movsd	 xmm0, QWORD PTR [edi+112]
  0057e	f2 0f 11 04 24	 movsd	 QWORD PTR [esp], xmm0
  00583	ff 92 a4 00 00
	00		 call	 DWORD PTR [edx+164]

; 2811 : 																	rctGraphRegion.top, rctGraphRegion.bottom, m_bLog, m_bReverse);
; 2812 : 
; 2813 : 				// Neck Y Length
; 2814 : 				nNeckYBase1 = m_pIChartOCX->ConvertDataToYPosition(	pWavePatternData->m_dNeckBaseYPt1, m_dViewMax, m_dViewMin, 

  00589	ff b3 40 02 00
	00		 push	 DWORD PTR [ebx+576]
  0058f	8b 4b 08	 mov	 ecx, DWORD PTR [ebx+8]
  00592	ff b3 3c 02 00
	00		 push	 DWORD PTR [ebx+572]
  00598	f2 0f 10 83 48
	02 00 00	 movsd	 xmm0, QWORD PTR [ebx+584]
  005a0	ff 75 28	 push	 DWORD PTR _rctGraphRegion$[ebp+12]
  005a3	8b 11		 mov	 edx, DWORD PTR [ecx]
  005a5	ff 75 20	 push	 DWORD PTR _rctGraphRegion$[ebp+4]
  005a8	89 85 54 ff ff
	ff		 mov	 DWORD PTR _nNeckYPos2$1$[ebp], eax
  005ae	83 ec 18	 sub	 esp, 24			; 00000018H
  005b1	f2 0f 11 44 24
	10		 movsd	 QWORD PTR [esp+16], xmm0
  005b7	f2 0f 10 83 50
	02 00 00	 movsd	 xmm0, QWORD PTR [ebx+592]
  005bf	f2 0f 11 44 24
	08		 movsd	 QWORD PTR [esp+8], xmm0
  005c5	f2 0f 10 47 78	 movsd	 xmm0, QWORD PTR [edi+120]
  005ca	f2 0f 11 04 24	 movsd	 QWORD PTR [esp], xmm0
  005cf	ff 92 a4 00 00
	00		 call	 DWORD PTR [edx+164]

; 2815 : 																	rctGraphRegion.top, rctGraphRegion.bottom, m_bLog, m_bReverse);
; 2816 : 				nNeckYBase2 = m_pIChartOCX->ConvertDataToYPosition(	pWavePatternData->m_dNeckBaseYPt2, m_dViewMax, m_dViewMin, 

  005d5	ff b3 40 02 00
	00		 push	 DWORD PTR [ebx+576]
  005db	8b 4b 08	 mov	 ecx, DWORD PTR [ebx+8]
  005de	ff b3 3c 02 00
	00		 push	 DWORD PTR [ebx+572]
  005e4	f2 0f 10 83 48
	02 00 00	 movsd	 xmm0, QWORD PTR [ebx+584]
  005ec	ff 75 28	 push	 DWORD PTR _rctGraphRegion$[ebp+12]
  005ef	8b 11		 mov	 edx, DWORD PTR [ecx]
  005f1	ff 75 20	 push	 DWORD PTR _rctGraphRegion$[ebp+4]
  005f4	89 45 88	 mov	 DWORD PTR _nNeckYLength2$1$[ebp], eax
  005f7	83 ec 18	 sub	 esp, 24			; 00000018H
  005fa	f2 0f 11 44 24
	10		 movsd	 QWORD PTR [esp+16], xmm0
  00600	f2 0f 10 83 50
	02 00 00	 movsd	 xmm0, QWORD PTR [ebx+592]
  00608	f2 0f 11 44 24
	08		 movsd	 QWORD PTR [esp+8], xmm0
  0060e	f2 0f 10 87 80
	00 00 00	 movsd	 xmm0, QWORD PTR [edi+128]
  00616	f2 0f 11 04 24	 movsd	 QWORD PTR [esp], xmm0
  0061b	ff 92 a4 00 00
	00		 call	 DWORD PTR [edx+164]

; 2817 : 																	rctGraphRegion.top, rctGraphRegion.bottom, m_bLog, m_bReverse);
; 2818 : 
; 2819 : 				nNeckYLength1 = nNeckYBase2 - nNeckYBase1;

  00621	8b 55 88	 mov	 edx, DWORD PTR _nNeckYLength2$1$[ebp]
  00624	8b c8		 mov	 ecx, eax
  00626	2b ca		 sub	 ecx, edx
  00628	89 4d 84	 mov	 DWORD PTR _nNeckYLength1$1$[ebp], ecx

; 2820 : 				if (	pWavePatternData->m_nPatternType == PTN_BULLISH_WIDETRIANGLE	|| 
; 2821 : 						pWavePatternData->m_nPatternType == PTN_BEARISH_WIDETRIANGLE	|| 
; 2822 : 						pWavePatternData->m_nPatternType == PTN_BULL_SQUAREFLAG			||

  0062b	8b 4f 04	 mov	 ecx, DWORD PTR [edi+4]
  0062e	81 f9 a9 0f 00
	00		 cmp	 ecx, 4009		; 00000fa9H
  00634	74 20		 je	 SHORT $LN63@DrawAutoPa
  00636	81 f9 aa 0f 00
	00		 cmp	 ecx, 4010		; 00000faaH
  0063c	74 18		 je	 SHORT $LN63@DrawAutoPa
  0063e	81 f9 ad 0f 00
	00		 cmp	 ecx, 4013		; 00000fadH
  00644	74 10		 je	 SHORT $LN63@DrawAutoPa
  00646	81 f9 ae 0f 00
	00		 cmp	 ecx, 4014		; 00000faeH
  0064c	74 08		 je	 SHORT $LN63@DrawAutoPa

; 2826 : 				}
; 2827 : 				else
; 2828 : 				{
; 2829 : 					nNeckYLength2 = nNeckYLength1;

  0064e	8b 45 84	 mov	 eax, DWORD PTR _nNeckYLength1$1$[ebp]
  00651	89 45 88	 mov	 DWORD PTR _nNeckYLength2$1$[ebp], eax
  00654	eb 05		 jmp	 SHORT $LN62@DrawAutoPa
$LN63@DrawAutoPa:

; 2823 : 						pWavePatternData->m_nPatternType == PTN_BEAR_SQUAREFLAG		)
; 2824 : 				{
; 2825 : 					nNeckYLength2 = nNeckYBase1 - nNeckYBase2;

  00656	2b d0		 sub	 edx, eax
  00658	89 55 88	 mov	 DWORD PTR _nNeckYLength2$1$[ebp], edx
$LN62@DrawAutoPa:

; 2830 : 				}
; 2831 : 
; 2832 : 				// Neck X Length
; 2833 : 				nNeckXLength = nNeckXPos2 - nNeckXPos1;

  0065b	8b c6		 mov	 eax, esi
  0065d	2b 85 5c ff ff
	ff		 sub	 eax, DWORD PTR _nNeckXPos1$1$[ebp]
  00663	89 85 3c ff ff
	ff		 mov	 DWORD PTR _nNeckXLength$1$[ebp], eax
$LN64@DrawAutoPa:

; 2834 : 			}
; 2835 : 			break;
; 2836 : 
; 2837 : 		case PTN_V_TOP:					// V Top				()
; 2838 : 		case PTN_V_BOTTOM:				// V Bottom				()
; 2839 : 			break;
; 2840 : 		}
; 2841 : 
; 2842 : 
; 2843 : 		// Get Pattern Name
; 2844 : 		strPatternName = m_wpWavePattern.GetPatternName(pWavePatternData->m_nPatternType);

  00669	51		 push	 ecx
  0066a	8d 85 68 ff ff
	ff		 lea	 eax, DWORD PTR $T14[ebp]
  00670	50		 push	 eax
  00671	8d 8b c0 00 00
	00		 lea	 ecx, DWORD PTR [ebx+192]
  00677	e8 00 00 00 00	 call	 ?GetPatternName@CWavePattern@@QAE?AV?$CStringT@DV?$StrTraitMFC_DLL@DV?$ChTraitsCRT@D@ATL@@@@@ATL@@H@Z ; CWavePattern::GetPatternName
  0067c	50		 push	 eax
  0067d	8d 4d 80	 lea	 ecx, DWORD PTR _strPatternName$[ebp]
  00680	c6 45 fc 01	 mov	 BYTE PTR __$EHRec$[ebp+8], 1
  00684	ff 15 00 00 00
	00		 call	 DWORD PTR __imp_??4?$CStringT@DV?$StrTraitMFC_DLL@DV?$ChTraitsCRT@D@ATL@@@@@ATL@@QAEAAV01@ABV01@@Z
  0068a	8d 8d 68 ff ff
	ff		 lea	 ecx, DWORD PTR $T14[ebp]
  00690	c6 45 fc 00	 mov	 BYTE PTR __$EHRec$[ebp+8], 0
  00694	ff 15 00 00 00
	00		 call	 DWORD PTR __imp_??1?$CStringT@DV?$StrTraitMFC_DLL@DV?$ChTraitsCRT@D@ATL@@@@@ATL@@QAE@XZ

; 2845 : 
; 2846 : 		// Draw Pattern Line ---------------------------------------------------->
; 2847 : 		// Get Pattern Trend & Set Pattern Color
; 2848 : 		nPatternTrend = m_wpWavePattern.GetPatternTrend(pWavePatternData->m_nPatternType);

  0069a	ff 77 04	 push	 DWORD PTR [edi+4]
  0069d	8d 8b c0 00 00
	00		 lea	 ecx, DWORD PTR [ebx+192]
  006a3	e8 00 00 00 00	 call	 ?GetPatternTrend@CWavePattern@@QAEHH@Z ; CWavePattern::GetPatternTrend
  006a8	8b c8		 mov	 ecx, eax

; 2849 : 		if ( nPatternTrend == UPWARD_REVERSE)

  006aa	81 f9 b9 0b 00
	00		 cmp	 ecx, 3001		; 00000bb9H
  006b0	75 07		 jne	 SHORT $LN66@DrawAutoPa

; 2850 : 			p_pDC->SelectObject( &m_pnUpwardReverse);

  006b2	b8 1c 02 00 00	 mov	 eax, 540		; 0000021cH
  006b7	eb 31		 jmp	 SHORT $LN72@DrawAutoPa
$LN66@DrawAutoPa:

; 2851 : 		else if ( nPatternTrend == DNWARD_REVERSE)

  006b9	81 f9 ba 0b 00
	00		 cmp	 ecx, 3002		; 00000bbaH
  006bf	75 07		 jne	 SHORT $LN68@DrawAutoPa

; 2852 : 			p_pDC->SelectObject( &m_pnDnwardReverse);

  006c1	b8 24 02 00 00	 mov	 eax, 548		; 00000224H
  006c6	eb 22		 jmp	 SHORT $LN72@DrawAutoPa
$LN68@DrawAutoPa:

; 2853 : 		else if ( nPatternTrend == UPWARD_CONTINUE)

  006c8	81 f9 bb 0b 00
	00		 cmp	 ecx, 3003		; 00000bbbH
  006ce	75 07		 jne	 SHORT $LN70@DrawAutoPa

; 2854 : 			p_pDC->SelectObject( &m_pnUpwardContinue);

  006d0	b8 2c 02 00 00	 mov	 eax, 556		; 0000022cH
  006d5	eb 13		 jmp	 SHORT $LN72@DrawAutoPa
$LN70@DrawAutoPa:

; 2855 : 		else if ( nPatternTrend == DNWARD_CONTINUE)

  006d7	81 f9 bc 0b 00
	00		 cmp	 ecx, 3004		; 00000bbcH
  006dd	b8 fc 01 00 00	 mov	 eax, 508		; 000001fcH
  006e2	b9 34 02 00 00	 mov	 ecx, 564		; 00000234H
  006e7	0f 44 c1	 cmove	 eax, ecx
$LN72@DrawAutoPa:

; 2856 : 			p_pDC->SelectObject( &m_pnDnwardContinue);
; 2857 : 		else
; 2858 : 			p_pDC->SelectObject( &m_pnMaPen);
; 2859 : 
; 2860 : 
; 2861 : 		// Draw Non-Selected Pattern Line
; 2862 : 		if ( !pWavePatternData->m_bIsSelect )

  006ea	8b 75 90	 mov	 esi, DWORD PTR _p_pDC$GSCopy$1$[ebp]
  006ed	03 c3		 add	 eax, ebx
  006ef	50		 push	 eax
  006f0	8b ce		 mov	 ecx, esi
  006f2	e8 00 00 00 00	 call	 ?SelectObject@CDC@@QAEPAVCPen@@PAV2@@Z ; CDC::SelectObject
  006f7	83 7f 08 00	 cmp	 DWORD PTR [edi+8], 0
  006fb	0f 85 e6 03 00
	00		 jne	 $LN74@DrawAutoPa

; 2863 : 		{
; 2864 : 			// Draw Pattern Wave(cf.  ) 
; 2865 : 			if ( (pWavePatternData->m_nStartSeq >= nStartIndex) && (pWavePatternData->m_nStartSeq <= nEndIndex) &&
; 2866 : 				 (pWavePatternData->m_nEndSeq >= nStartIndex)	&& (pWavePatternData->m_nEndSeq <= nEndIndex)	)

  00701	8b 47 0c	 mov	 eax, DWORD PTR [edi+12]
  00704	8b 55 0c	 mov	 edx, DWORD PTR _nStartIndex$[ebp]
  00707	3b c2		 cmp	 eax, edx
  00709	0f 8c fa 01 00
	00		 jl	 $LN10@DrawAutoPa
  0070f	8b 4d 10	 mov	 ecx, DWORD PTR _nEndIndex$[ebp]
  00712	3b c1		 cmp	 eax, ecx
  00714	0f 8f ef 01 00
	00		 jg	 $LN10@DrawAutoPa
  0071a	8b 47 10	 mov	 eax, DWORD PTR [edi+16]
  0071d	3b c2		 cmp	 eax, edx
  0071f	0f 8c e4 01 00
	00		 jl	 $LN10@DrawAutoPa
  00725	3b c1		 cmp	 eax, ecx
  00727	0f 8f dc 01 00
	00		 jg	 $LN10@DrawAutoPa

; 2867 : 			{
; 2868 : 				nXHigh = nYHigh = nXLow = nYLow = 0;

  0072d	33 c0		 xor	 eax, eax
  0072f	33 c9		 xor	 ecx, ecx
  00731	89 85 1c ff ff
	ff		 mov	 DWORD PTR _nXHigh$1$[ebp], eax

; 2869 : 				pHighLowPtData = NULL;
; 2870 : 
; 2871 : 				for(int k=0; k < m_aryHighLowPtData.GetSize(); k++ )

  00737	33 ff		 xor	 edi, edi
  00739	8b 83 e4 00 00
	00		 mov	 eax, DWORD PTR [ebx+228]
  0073f	89 8d 64 ff ff
	ff		 mov	 DWORD PTR _nYLow$1$[ebp], ecx
  00745	89 8d 4c ff ff
	ff		 mov	 DWORD PTR _nXLow$1$[ebp], ecx
  0074b	89 4d 8c	 mov	 DWORD PTR _nYHigh$1$[ebp], ecx
  0074e	85 c0		 test	 eax, eax
  00750	0f 8e ad 01 00
	00		 jle	 $LN300@DrawAutoPa
$LL11@DrawAutoPa:
; File C:\Program Files (x86)\Microsoft Visual Studio\2019\Community\VC\Tools\MSVC\14.29.30133\atlmfc\include\afxtempl.h

; 288  : 	if(nIndex >= 0 && nIndex < m_nSize)

  00756	85 ff		 test	 edi, edi
  00758	0f 88 e7 0a 00
	00		 js	 $LN125@DrawAutoPa
  0075e	3b f8		 cmp	 edi, eax
  00760	0f 8d df 0a 00
	00		 jge	 $LN125@DrawAutoPa

; 289  : 		return m_pData[nIndex];

  00766	8b 83 e0 00 00
	00		 mov	 eax, DWORD PTR [ebx+224]
; File D:\git\src\IBK\IBK_DRFN\ProjSrc\SrcChartEx\ChartAddIn\ChartPatternAddIn\PatternMaker.cpp

; 2873 : 					pHighLowPtData = m_aryHighLowPtData.GetAt(k);

  0076c	8b 34 b8	 mov	 esi, DWORD PTR [eax+edi*4]

; 2874 : 					
; 2875 : 					if ( !pHighLowPtData ) continue;

  0076f	85 f6		 test	 esi, esi
  00771	0f 84 74 01 00
	00		 je	 $LN299@DrawAutoPa

; 2876 : 					
; 2877 : 					// ***     . ***
; 2878 : 					if ((pHighLowPtData->m_nDataSeq >= pWavePatternData->m_nStartSeq) && 

  00777	8b 85 24 ff ff
	ff		 mov	 eax, DWORD PTR _pWavePatternData$1$[ebp]
  0077d	8b 56 08	 mov	 edx, DWORD PTR [esi+8]
  00780	3b 50 0c	 cmp	 edx, DWORD PTR [eax+12]
  00783	0f 8c 1c 01 00
	00		 jl	 $LN305@DrawAutoPa
  00789	3b 50 10	 cmp	 edx, DWORD PTR [eax+16]
  0078c	0f 8f 13 01 00
	00		 jg	 $LN305@DrawAutoPa

; 2879 : 						(pHighLowPtData->m_nDataSeq <= pWavePatternData->m_nEndSeq)		)
; 2880 : 					{
; 2881 : 						//  
; 2882 : 						if ( pHighLowPtData->m_nPointType == CHANGINGPT_HIGHTOLOW && pHighLowPtData->m_dHigh != ZERO)

  00792	8b 46 04	 mov	 eax, DWORD PTR [esi+4]
  00795	3d e9 03 00 00	 cmp	 eax, 1001		; 000003e9H
  0079a	0f 85 83 00 00
	00		 jne	 $LN79@DrawAutoPa
  007a0	f2 0f 10 46 20	 movsd	 xmm0, QWORD PTR [esi+32]
  007a5	0f 57 c9	 xorps	 xmm1, xmm1
  007a8	66 0f 2e c1	 ucomisd xmm0, xmm1
  007ac	9f		 lahf
  007ad	f6 c4 44	 test	 ah, 68			; 00000044H
  007b0	0f 8b ef 00 00
	00		 jnp	 $LN305@DrawAutoPa

; 1093 : 	return m_pIChartManager->GetXPosition( m_strRQ, ( int)dDataOffset, 0);

  007b6	8b 4b 04	 mov	 ecx, DWORD PTR [ebx+4]
  007b9	6a 00		 push	 0
  007bb	52		 push	 edx
  007bc	ff b3 98 03 00
	00		 push	 DWORD PTR [ebx+920]
  007c2	8b 01		 mov	 eax, DWORD PTR [ecx]
  007c4	ff 50 74	 call	 DWORD PTR [eax+116]

; 2883 : 						{
; 2884 : 							// X 
; 2885 : 							dDataOffset = pHighLowPtData->m_nDataSeq;
; 2886 : 							nXHigh = GetXPositoin(dDataOffset, dCandleWidth, rctGraphRegion);
; 2887 : 							
; 2888 : 							// Y 
; 2889 : 							nYHigh = m_pIChartOCX->ConvertDataToYPosition(	pHighLowPtData->m_dHigh, m_dViewMax, m_dViewMin, 

  007c7	ff b3 40 02 00
	00		 push	 DWORD PTR [ebx+576]
  007cd	8b 4b 08	 mov	 ecx, DWORD PTR [ebx+8]
  007d0	ff b3 3c 02 00
	00		 push	 DWORD PTR [ebx+572]
  007d6	f2 0f 10 83 48
	02 00 00	 movsd	 xmm0, QWORD PTR [ebx+584]
  007de	ff 75 28	 push	 DWORD PTR _rctGraphRegion$[ebp+12]
  007e1	8b 11		 mov	 edx, DWORD PTR [ecx]
  007e3	ff 75 20	 push	 DWORD PTR _rctGraphRegion$[ebp+4]
  007e6	89 85 1c ff ff
	ff		 mov	 DWORD PTR _nXHigh$1$[ebp], eax
  007ec	83 ec 18	 sub	 esp, 24			; 00000018H
  007ef	f2 0f 11 44 24
	10		 movsd	 QWORD PTR [esp+16], xmm0
  007f5	f2 0f 10 83 50
	02 00 00	 movsd	 xmm0, QWORD PTR [ebx+592]
  007fd	f2 0f 11 44 24
	08		 movsd	 QWORD PTR [esp+8], xmm0
  00803	f2 0f 10 46 20	 movsd	 xmm0, QWORD PTR [esi+32]
  00808	f2 0f 11 04 24	 movsd	 QWORD PTR [esp], xmm0
  0080d	ff 92 a4 00 00
	00		 call	 DWORD PTR [edx+164]

; 2890 : 																			rctGraphRegion.top, rctGraphRegion.bottom, m_bLog, m_bReverse);
; 2891 : 						}

  00813	8b 8d 64 ff ff
	ff		 mov	 ecx, DWORD PTR _nYLow$1$[ebp]
  00819	8b d0		 mov	 edx, eax
  0081b	89 55 8c	 mov	 DWORD PTR _nYHigh$1$[ebp], edx
  0081e	e9 85 00 00 00	 jmp	 $LN81@DrawAutoPa
$LN79@DrawAutoPa:

; 2892 : 						//  
; 2893 : 						else if ( pHighLowPtData->m_nPointType == CHANGINGPT_LOWTOHIGH && pHighLowPtData->m_dLow != ZERO)

  00823	3d ea 03 00 00	 cmp	 eax, 1002		; 000003eaH
  00828	0f 85 77 00 00
	00		 jne	 $LN305@DrawAutoPa
  0082e	f2 0f 10 46 28	 movsd	 xmm0, QWORD PTR [esi+40]
  00833	0f 57 c9	 xorps	 xmm1, xmm1
  00836	66 0f 2e c1	 ucomisd xmm0, xmm1
  0083a	9f		 lahf
  0083b	f6 c4 44	 test	 ah, 68			; 00000044H
  0083e	7b 65		 jnp	 SHORT $LN305@DrawAutoPa

; 1093 : 	return m_pIChartManager->GetXPosition( m_strRQ, ( int)dDataOffset, 0);

  00840	8b 4b 04	 mov	 ecx, DWORD PTR [ebx+4]
  00843	6a 00		 push	 0
  00845	52		 push	 edx
  00846	ff b3 98 03 00
	00		 push	 DWORD PTR [ebx+920]
  0084c	8b 01		 mov	 eax, DWORD PTR [ecx]
  0084e	ff 50 74	 call	 DWORD PTR [eax+116]

; 2894 : 						{
; 2895 : 							// X 
; 2896 : 							dDataOffset = pHighLowPtData->m_nDataSeq;
; 2897 : 							nXLow = GetXPositoin(dDataOffset, dCandleWidth, rctGraphRegion);
; 2898 : 							
; 2899 : 							// Y 
; 2900 : 							nYLow = m_pIChartOCX->ConvertDataToYPosition(	pHighLowPtData->m_dLow, m_dViewMax, m_dViewMin, 

  00851	ff b3 40 02 00
	00		 push	 DWORD PTR [ebx+576]
  00857	8b 4b 08	 mov	 ecx, DWORD PTR [ebx+8]
  0085a	ff b3 3c 02 00
	00		 push	 DWORD PTR [ebx+572]
  00860	f2 0f 10 83 48
	02 00 00	 movsd	 xmm0, QWORD PTR [ebx+584]
  00868	ff 75 28	 push	 DWORD PTR _rctGraphRegion$[ebp+12]
  0086b	8b 11		 mov	 edx, DWORD PTR [ecx]
  0086d	ff 75 20	 push	 DWORD PTR _rctGraphRegion$[ebp+4]
  00870	89 85 4c ff ff
	ff		 mov	 DWORD PTR _nXLow$1$[ebp], eax
  00876	83 ec 18	 sub	 esp, 24			; 00000018H
  00879	f2 0f 11 44 24
	10		 movsd	 QWORD PTR [esp+16], xmm0
  0087f	f2 0f 10 83 50
	02 00 00	 movsd	 xmm0, QWORD PTR [ebx+592]
  00887	f2 0f 11 44 24
	08		 movsd	 QWORD PTR [esp+8], xmm0
  0088d	f2 0f 10 46 28	 movsd	 xmm0, QWORD PTR [esi+40]
  00892	f2 0f 11 04 24	 movsd	 QWORD PTR [esp], xmm0
  00897	ff 92 a4 00 00
	00		 call	 DWORD PTR [edx+164]
  0089d	8b c8		 mov	 ecx, eax
  0089f	89 8d 64 ff ff
	ff		 mov	 DWORD PTR _nYLow$1$[ebp], ecx
$LN305@DrawAutoPa:

; 2901 : 																			rctGraphRegion.top, rctGraphRegion.bottom, m_bLog, m_bReverse);
; 2902 : 						}
; 2903 : 					}
; 2904 : 
; 2905 : 					// ### ,    ###
; 2906 : 					if (nXHigh > 0 && nYHigh > 0 && nXLow > 0 && nYLow > 0)

  008a5	8b 55 8c	 mov	 edx, DWORD PTR _nYHigh$1$[ebp]
$LN81@DrawAutoPa:
  008a8	8b 85 1c ff ff
	ff		 mov	 eax, DWORD PTR _nXHigh$1$[ebp]
  008ae	85 c0		 test	 eax, eax
  008b0	7e 39		 jle	 SHORT $LN299@DrawAutoPa
  008b2	85 d2		 test	 edx, edx
  008b4	7e 35		 jle	 SHORT $LN299@DrawAutoPa
  008b6	83 bd 4c ff ff
	ff 00		 cmp	 DWORD PTR _nXLow$1$[ebp], 0
  008bd	7e 2c		 jle	 SHORT $LN299@DrawAutoPa
  008bf	8b 75 90	 mov	 esi, DWORD PTR _p_pDC$GSCopy$1$[ebp]
  008c2	85 c9		 test	 ecx, ecx
  008c4	7e 28		 jle	 SHORT $LN9@DrawAutoPa

; 2907 : 					{
; 2908 : 						p_pDC->MoveTo( nXHigh, nYHigh);

  008c6	52		 push	 edx
  008c7	50		 push	 eax
  008c8	8d 85 0c ff ff
	ff		 lea	 eax, DWORD PTR $T4[ebp]
  008ce	8b ce		 mov	 ecx, esi
  008d0	50		 push	 eax
  008d1	e8 00 00 00 00	 call	 ?MoveTo@CDC@@QAE?AVCPoint@@HH@Z ; CDC::MoveTo

; 2909 : 						p_pDC->LineTo( nXLow, nYLow);

  008d6	ff b5 64 ff ff
	ff		 push	 DWORD PTR _nYLow$1$[ebp]
  008dc	8b ce		 mov	 ecx, esi
  008de	ff b5 4c ff ff
	ff		 push	 DWORD PTR _nXLow$1$[ebp]
  008e4	e8 00 00 00 00	 call	 ?LineTo@CDC@@QAEHHH@Z	; CDC::LineTo
  008e9	eb 03		 jmp	 SHORT $LN9@DrawAutoPa
$LN299@DrawAutoPa:

; 2869 : 				pHighLowPtData = NULL;
; 2870 : 
; 2871 : 				for(int k=0; k < m_aryHighLowPtData.GetSize(); k++ )

  008eb	8b 75 90	 mov	 esi, DWORD PTR _p_pDC$GSCopy$1$[ebp]
$LN9@DrawAutoPa:
  008ee	8b 83 e4 00 00
	00		 mov	 eax, DWORD PTR [ebx+228]
  008f4	47		 inc	 edi
  008f5	8b 8d 64 ff ff
	ff		 mov	 ecx, DWORD PTR _nYLow$1$[ebp]
  008fb	3b f8		 cmp	 edi, eax
  008fd	0f 8c 53 fe ff
	ff		 jl	 $LL11@DrawAutoPa
$LN300@DrawAutoPa:

; 2910 : 					}
; 2911 : 				}
; 2912 : 			}
; 2913 : 
; 2914 : 
; 2915 : 			// Draw Line 1
; 2916 : 			if ( nX1 > 0 && nY1 > 0 && nX2 > 0 && nY2 > 0 )

  00903	8b bd 24 ff ff
	ff		 mov	 edi, DWORD PTR _pWavePatternData$1$[ebp]
$LN10@DrawAutoPa:
  00909	8b 85 28 ff ff
	ff		 mov	 eax, DWORD PTR _nX1$1$[ebp]
  0090f	85 c0		 test	 eax, eax
  00911	0f 8e b1 00 00
	00		 jle	 $LN84@DrawAutoPa
  00917	8b 8d 20 ff ff
	ff		 mov	 ecx, DWORD PTR _nY1$1$[ebp]
  0091d	85 c9		 test	 ecx, ecx
  0091f	0f 8e a3 00 00
	00		 jle	 $LN84@DrawAutoPa
  00925	83 bd 78 ff ff
	ff 00		 cmp	 DWORD PTR _nX2$1$[ebp], 0
  0092c	0f 8e 96 00 00
	00		 jle	 $LN84@DrawAutoPa
  00932	83 bd 74 ff ff
	ff 00		 cmp	 DWORD PTR _nY2$1$[ebp], 0
  00939	0f 8e 89 00 00
	00		 jle	 $LN84@DrawAutoPa

; 2917 : 			{
; 2918 : 				p_pDC->MoveTo( nX1, nY1);

  0093f	51		 push	 ecx
  00940	50		 push	 eax
  00941	8d 85 04 ff ff
	ff		 lea	 eax, DWORD PTR $T3[ebp]
  00947	8b ce		 mov	 ecx, esi
  00949	50		 push	 eax
  0094a	e8 00 00 00 00	 call	 ?MoveTo@CDC@@QAE?AVCPoint@@HH@Z ; CDC::MoveTo

; 2919 : 				p_pDC->LineTo( nX2, nY2);

  0094f	ff b5 74 ff ff
	ff		 push	 DWORD PTR _nY2$1$[ebp]
  00955	8b ce		 mov	 ecx, esi
  00957	ff b5 78 ff ff
	ff		 push	 DWORD PTR _nX2$1$[ebp]
  0095d	e8 00 00 00 00	 call	 ?LineTo@CDC@@QAEHHH@Z	; CDC::LineTo

; 2920 : 
; 2921 : 				if ( pWavePatternData->m_nPatternType == PTN_V_TOP || pWavePatternData->m_nPatternType == PTN_V_BOTTOM)

  00962	8b 47 04	 mov	 eax, DWORD PTR [edi+4]
  00965	3d b3 0f 00 00	 cmp	 eax, 4019		; 00000fb3H
  0096a	74 07		 je	 SHORT $LN85@DrawAutoPa
  0096c	3d b4 0f 00 00	 cmp	 eax, 4020		; 00000fb4H
  00971	75 55		 jne	 SHORT $LN84@DrawAutoPa
$LN85@DrawAutoPa:

; 2922 : 				{
; 2923 : 					p_pDC->SetBkMode(TRANSPARENT);

  00973	6a 01		 push	 1
  00975	8b ce		 mov	 ecx, esi
  00977	e8 00 00 00 00	 call	 ?SetBkMode@CDC@@QAEHH@Z	; CDC::SetBkMode

; 2924 : 					rectText.left	= nX2-22;

  0097c	8b 95 78 ff ff
	ff		 mov	 edx, DWORD PTR _nX2$1$[ebp]
; File C:\Program Files (x86)\Microsoft Visual Studio\2019\Community\VC\Tools\MSVC\14.29.30133\atlmfc\include\afxwin1.inl

; 600  : 		return _AFX_FUNCNAME(DrawText)((LPCTSTR)str, (int)str.GetLength(), lpRect, nFormat); }

  00982	6a 00		 push	 0
; File D:\git\src\IBK\IBK_DRFN\ProjSrc\SrcChartEx\ChartAddIn\ChartPatternAddIn\PatternMaker.cpp

; 2924 : 					rectText.left	= nX2-22;

  00984	8d 42 ea	 lea	 eax, DWORD PTR [edx-22]
  00987	89 45 e0	 mov	 DWORD PTR _rectText$[ebp], eax
; File C:\Program Files (x86)\Microsoft Visual Studio\2019\Community\VC\Tools\MSVC\14.29.30133\atlmfc\include\atlsimpstr.h

; 519  : 		return( GetData()->nDataLength );

  0098a	8b 45 80	 mov	 eax, DWORD PTR _strPatternName$[ebp]
  0098d	8b 48 f4	 mov	 ecx, DWORD PTR [eax-12]
; File D:\git\src\IBK\IBK_DRFN\ProjSrc\SrcChartEx\ChartAddIn\ChartPatternAddIn\PatternMaker.cpp

; 2925 : 					rectText.right	= rectText.left+strPatternName.GetLength()*12;

  00990	8d 0c 49	 lea	 ecx, DWORD PTR [ecx+ecx*2]
  00993	8d 0c 8d ea ff
	ff ff		 lea	 ecx, DWORD PTR [ecx*4-22]
  0099a	03 ca		 add	 ecx, edx

; 2926 : 					rectText.top	= nY2+3;

  0099c	8b 95 74 ff ff
	ff		 mov	 edx, DWORD PTR _nY2$1$[ebp]
  009a2	89 4d e8	 mov	 DWORD PTR _rectText$[ebp+8], ecx
  009a5	8d 4a 03	 lea	 ecx, DWORD PTR [edx+3]
  009a8	83 c2 03	 add	 edx, 3
  009ab	89 4d e4	 mov	 DWORD PTR _rectText$[ebp+4], ecx
  009ae	8b 8d 50 ff ff
	ff		 mov	 ecx, DWORD PTR _nTextHeight$2$[ebp]
  009b4	03 ca		 add	 ecx, edx
; File C:\Program Files (x86)\Microsoft Visual Studio\2019\Community\VC\Tools\MSVC\14.29.30133\atlmfc\include\afxwin1.inl

; 600  : 		return _AFX_FUNCNAME(DrawText)((LPCTSTR)str, (int)str.GetLength(), lpRect, nFormat); }

  009b6	8b 16		 mov	 edx, DWORD PTR [esi]
; File D:\git\src\IBK\IBK_DRFN\ProjSrc\SrcChartEx\ChartAddIn\ChartPatternAddIn\PatternMaker.cpp

; 2929 : 					rectText.bottom = rectText.top+nTextHeight;

  009b8	89 4d ec	 mov	 DWORD PTR _rectText$[ebp+12], ecx
; File C:\Program Files (x86)\Microsoft Visual Studio\2019\Community\VC\Tools\MSVC\14.29.30133\atlmfc\include\afxwin1.inl

; 600  : 		return _AFX_FUNCNAME(DrawText)((LPCTSTR)str, (int)str.GetLength(), lpRect, nFormat); }

  009bb	8d 4d e0	 lea	 ecx, DWORD PTR _rectText$[ebp]
  009be	51		 push	 ecx
  009bf	ff 70 f4	 push	 DWORD PTR [eax-12]
  009c2	8b ce		 mov	 ecx, esi
  009c4	50		 push	 eax
  009c5	ff 52 70	 call	 DWORD PTR [edx+112]
$LN84@DrawAutoPa:
; File D:\git\src\IBK\IBK_DRFN\ProjSrc\SrcChartEx\ChartAddIn\ChartPatternAddIn\PatternMaker.cpp

; 2935 : 			if ( nX3 > 0 && nY3 > 0 && nX4 > 0 && nY4 > 0 )

  009c8	8b 8d 48 ff ff
	ff		 mov	 ecx, DWORD PTR _nX3$1$[ebp]
  009ce	85 c9		 test	 ecx, ecx
  009d0	7e 3b		 jle	 SHORT $LN86@DrawAutoPa
  009d2	8b 85 44 ff ff
	ff		 mov	 eax, DWORD PTR _nY3$1$[ebp]
  009d8	85 c0		 test	 eax, eax
  009da	7e 31		 jle	 SHORT $LN86@DrawAutoPa
  009dc	83 bd 60 ff ff
	ff 00		 cmp	 DWORD PTR _nX4$1$[ebp], 0
  009e3	7e 28		 jle	 SHORT $LN86@DrawAutoPa
  009e5	8b bd 40 ff ff
	ff		 mov	 edi, DWORD PTR _nY4$1$[ebp]
  009eb	85 ff		 test	 edi, edi
  009ed	7e 1e		 jle	 SHORT $LN86@DrawAutoPa

; 2936 : 			{
; 2937 : 				p_pDC->MoveTo( nX3, nY3);

  009ef	50		 push	 eax
  009f0	51		 push	 ecx
  009f1	8d 85 fc fe ff
	ff		 lea	 eax, DWORD PTR $T2[ebp]
  009f7	8b ce		 mov	 ecx, esi
  009f9	50		 push	 eax
  009fa	e8 00 00 00 00	 call	 ?MoveTo@CDC@@QAE?AVCPoint@@HH@Z ; CDC::MoveTo

; 2938 : 				p_pDC->LineTo( nX4, nY4);

  009ff	57		 push	 edi
  00a00	ff b5 60 ff ff
	ff		 push	 DWORD PTR _nX4$1$[ebp]
  00a06	8b ce		 mov	 ecx, esi
  00a08	e8 00 00 00 00	 call	 ?LineTo@CDC@@QAEHHH@Z	; CDC::LineTo
$LN86@DrawAutoPa:

; 2939 : 			}
; 2940 : 
; 2941 : 			// Draw Neck Line1
; 2942 : 			if ( nNeckXPos1 > 0 && nNeckYPos1 > 0)

  00a0d	8b bd 5c ff ff
	ff		 mov	 edi, DWORD PTR _nNeckXPos1$1$[ebp]
  00a13	85 ff		 test	 edi, edi
  00a15	7e 29		 jle	 SHORT $LN87@DrawAutoPa
  00a17	8b 85 58 ff ff
	ff		 mov	 eax, DWORD PTR _nNeckYPos1$1$[ebp]
  00a1d	85 c0		 test	 eax, eax
  00a1f	7e 1f		 jle	 SHORT $LN87@DrawAutoPa

; 2943 : 			{
; 2944 : 				p_pDC->MoveTo( nNeckXPos1, nNeckYPos1);

  00a21	50		 push	 eax
  00a22	57		 push	 edi
  00a23	8d 45 d8	 lea	 eax, DWORD PTR $T17[ebp]
  00a26	8b ce		 mov	 ecx, esi
  00a28	50		 push	 eax
  00a29	e8 00 00 00 00	 call	 ?MoveTo@CDC@@QAE?AVCPoint@@HH@Z ; CDC::MoveTo

; 2945 : 				p_pDC->LineTo( nNeckXPos1, nNeckYPos1+nNeckYLength1);

  00a2e	8b 45 84	 mov	 eax, DWORD PTR _nNeckYLength1$1$[ebp]
  00a31	8b ce		 mov	 ecx, esi
  00a33	03 85 58 ff ff
	ff		 add	 eax, DWORD PTR _nNeckYPos1$1$[ebp]
  00a39	50		 push	 eax
  00a3a	57		 push	 edi
  00a3b	e8 00 00 00 00	 call	 ?LineTo@CDC@@QAEHHH@Z	; CDC::LineTo
$LN87@DrawAutoPa:

; 2946 : 			}
; 2947 : 			// Draw Neck Line2
; 2948 : 			if ( nNeckXPos2 > 0 && nNeckYPos2 > 0)

  00a40	8b bd 70 ff ff
	ff		 mov	 edi, DWORD PTR _nNeckXPos2$1$[ebp]
  00a46	85 ff		 test	 edi, edi
  00a48	0f 8e 85 01 00
	00		 jle	 $LN294@DrawAutoPa
  00a4e	8b 85 54 ff ff
	ff		 mov	 eax, DWORD PTR _nNeckYPos2$1$[ebp]
  00a54	85 c0		 test	 eax, eax
  00a56	0f 8e 77 01 00
	00		 jle	 $LN294@DrawAutoPa

; 2949 : 			{
; 2950 : 				p_pDC->MoveTo( nNeckXPos2, nNeckYPos2);

  00a5c	50		 push	 eax
  00a5d	57		 push	 edi
  00a5e	8d 85 14 ff ff
	ff		 lea	 eax, DWORD PTR $T10[ebp]
  00a64	8b ce		 mov	 ecx, esi
  00a66	50		 push	 eax
  00a67	e8 00 00 00 00	 call	 ?MoveTo@CDC@@QAE?AVCPoint@@HH@Z ; CDC::MoveTo

; 2951 : 				p_pDC->LineTo( nNeckXPos2, nNeckYPos2+nNeckYLength2);

  00a6c	8b 75 88	 mov	 esi, DWORD PTR _nNeckYLength2$1$[ebp]
  00a6f	03 b5 54 ff ff
	ff		 add	 esi, DWORD PTR _nNeckYPos2$1$[ebp]
  00a75	56		 push	 esi
  00a76	57		 push	 edi
  00a77	8b 7d 90	 mov	 edi, DWORD PTR _p_pDC$GSCopy$1$[ebp]
  00a7a	8b cf		 mov	 ecx, edi
  00a7c	e8 00 00 00 00	 call	 ?LineTo@CDC@@QAEHHH@Z	; CDC::LineTo

; 2952 : 
; 2953 : 				p_pDC->LineTo( nNeckXPos2+nNeckXLength, nNeckYPos2+nNeckYLength2);

  00a81	8b 85 70 ff ff
	ff		 mov	 eax, DWORD PTR _nNeckXPos2$1$[ebp]
  00a87	8b cf		 mov	 ecx, edi
  00a89	03 85 3c ff ff
	ff		 add	 eax, DWORD PTR _nNeckXLength$1$[ebp]
  00a8f	56		 push	 esi
  00a90	50		 push	 eax
  00a91	e8 00 00 00 00	 call	 ?LineTo@CDC@@QAEHHH@Z	; CDC::LineTo

; 2954 : 
; 2955 : 				p_pDC->SetBkMode(TRANSPARENT);

  00a96	6a 01		 push	 1
  00a98	8b cf		 mov	 ecx, edi
  00a9a	e8 00 00 00 00	 call	 ?SetBkMode@CDC@@QAEHH@Z	; CDC::SetBkMode

; 2956 : 				rectText.left	= nNeckXPos2+12;

  00a9f	8b 95 70 ff ff
	ff		 mov	 edx, DWORD PTR _nNeckXPos2$1$[ebp]
; File C:\Program Files (x86)\Microsoft Visual Studio\2019\Community\VC\Tools\MSVC\14.29.30133\atlmfc\include\afxwin1.inl

; 600  : 		return _AFX_FUNCNAME(DrawText)((LPCTSTR)str, (int)str.GetLength(), lpRect, nFormat); }

  00aa5	6a 00		 push	 0
; File D:\git\src\IBK\IBK_DRFN\ProjSrc\SrcChartEx\ChartAddIn\ChartPatternAddIn\PatternMaker.cpp

; 2956 : 				rectText.left	= nNeckXPos2+12;

  00aa7	8d 42 0c	 lea	 eax, DWORD PTR [edx+12]
  00aaa	89 45 e0	 mov	 DWORD PTR _rectText$[ebp], eax
; File C:\Program Files (x86)\Microsoft Visual Studio\2019\Community\VC\Tools\MSVC\14.29.30133\atlmfc\include\atlsimpstr.h

; 519  : 		return( GetData()->nDataLength );

  00aad	8b 45 80	 mov	 eax, DWORD PTR _strPatternName$[ebp]
  00ab0	8b 48 f4	 mov	 ecx, DWORD PTR [eax-12]
; File D:\git\src\IBK\IBK_DRFN\ProjSrc\SrcChartEx\ChartAddIn\ChartPatternAddIn\PatternMaker.cpp

; 2957 : 				rectText.right	= rectText.left+strPatternName.GetLength()*12;

  00ab3	8d 0c 49	 lea	 ecx, DWORD PTR [ecx+ecx*2]
  00ab6	8d 49 03	 lea	 ecx, DWORD PTR [ecx+3]
  00ab9	8d 0c 8a	 lea	 ecx, DWORD PTR [edx+ecx*4]
; File C:\Program Files (x86)\Microsoft Visual Studio\2019\Community\VC\Tools\MSVC\14.29.30133\atlmfc\include\afxwin1.inl

; 600  : 		return _AFX_FUNCNAME(DrawText)((LPCTSTR)str, (int)str.GetLength(), lpRect, nFormat); }

  00abc	8b 17		 mov	 edx, DWORD PTR [edi]
; File D:\git\src\IBK\IBK_DRFN\ProjSrc\SrcChartEx\ChartAddIn\ChartPatternAddIn\PatternMaker.cpp

; 2957 : 				rectText.right	= rectText.left+strPatternName.GetLength()*12;

  00abe	89 4d e8	 mov	 DWORD PTR _rectText$[ebp+8], ecx

; 2958 : 				rectText.top	= nNeckYPos2+nNeckYLength2-14;

  00ac1	8d 4e f2	 lea	 ecx, DWORD PTR [esi-14]
  00ac4	89 4d e4	 mov	 DWORD PTR _rectText$[ebp+4], ecx
  00ac7	8b 8d 50 ff ff
	ff		 mov	 ecx, DWORD PTR _nTextHeight$2$[ebp]
  00acd	83 c1 f2	 add	 ecx, -14		; fffffff2H
  00ad0	03 ce		 add	 ecx, esi

; 2959 : // 2008.02.20 by LYH >>
; 2960 : 				//rectText.bottom = rectText.top+11;	
; 2961 : 				rectText.bottom = rectText.top+nTextHeight;	

  00ad2	89 4d ec	 mov	 DWORD PTR _rectText$[ebp+12], ecx
; File C:\Program Files (x86)\Microsoft Visual Studio\2019\Community\VC\Tools\MSVC\14.29.30133\atlmfc\include\afxwin1.inl

; 600  : 		return _AFX_FUNCNAME(DrawText)((LPCTSTR)str, (int)str.GetLength(), lpRect, nFormat); }

  00ad5	8d 4d e0	 lea	 ecx, DWORD PTR _rectText$[ebp]
  00ad8	51		 push	 ecx
  00ad9	ff 70 f4	 push	 DWORD PTR [eax-12]
  00adc	8b cf		 mov	 ecx, edi
  00ade	50		 push	 eax
  00adf	ff 52 70	 call	 DWORD PTR [edx+112]
; File D:\git\src\IBK\IBK_DRFN\ProjSrc\SrcChartEx\ChartAddIn\ChartPatternAddIn\PatternMaker.cpp

; 2965 : 		}

  00ae2	e9 ef 00 00 00	 jmp	 $LN2@DrawAutoPa
$LN74@DrawAutoPa:

; 2966 : 		// Set Selected Pattern Data for Drawing
; 2967 : 		else
; 2968 : 		{
; 2969 : 			m_spdDrawingData.m_bDraw		= TRUE;
; 2970 : 			m_spdDrawingData.m_nPatternType	= pWavePatternData->m_nPatternType;
; 2971 : 
; 2972 : 			m_spdDrawingData.m_nStartSeq	= pWavePatternData->m_nStartSeq;
; 2973 : 			m_spdDrawingData.m_nEndSeq		= pWavePatternData->m_nEndSeq;
; 2974 : 
; 2975 : 			m_spdDrawingData.m_nX1	= nX1;
; 2976 : 			m_spdDrawingData.m_nY1	= nY1;

  00ae7	8b 8d 20 ff ff
	ff		 mov	 ecx, DWORD PTR _nY1$1$[ebp]
  00aed	c7 83 a4 01 00
	00 01 00 00 00	 mov	 DWORD PTR [ebx+420], 1
  00af7	8b 47 04	 mov	 eax, DWORD PTR [edi+4]
  00afa	89 83 a8 01 00
	00		 mov	 DWORD PTR [ebx+424], eax
  00b00	8b 47 0c	 mov	 eax, DWORD PTR [edi+12]
  00b03	89 83 ac 01 00
	00		 mov	 DWORD PTR [ebx+428], eax
  00b09	8b 47 10	 mov	 eax, DWORD PTR [edi+16]

; 2977 : 			m_spdDrawingData.m_nX2	= nX2;
; 2978 : 			m_spdDrawingData.m_nY2	= nY2;
; 2979 : 			m_spdDrawingData.m_nX3	= nX3;
; 2980 : 			m_spdDrawingData.m_nY3	= nY3;
; 2981 : 			m_spdDrawingData.m_nX4	= nX4;
; 2982 : 			m_spdDrawingData.m_nY4	= nY4;

  00b0c	8b bd 40 ff ff
	ff		 mov	 edi, DWORD PTR _nY4$1$[ebp]
  00b12	89 83 b0 01 00
	00		 mov	 DWORD PTR [ebx+432], eax
  00b18	8b 85 28 ff ff
	ff		 mov	 eax, DWORD PTR _nX1$1$[ebp]
  00b1e	89 83 b4 01 00
	00		 mov	 DWORD PTR [ebx+436], eax
  00b24	8b 85 78 ff ff
	ff		 mov	 eax, DWORD PTR _nX2$1$[ebp]
  00b2a	89 83 bc 01 00
	00		 mov	 DWORD PTR [ebx+444], eax
  00b30	8b 85 74 ff ff
	ff		 mov	 eax, DWORD PTR _nY2$1$[ebp]
  00b36	89 83 c0 01 00
	00		 mov	 DWORD PTR [ebx+448], eax
  00b3c	8b 85 44 ff ff
	ff		 mov	 eax, DWORD PTR _nY3$1$[ebp]
  00b42	89 83 c8 01 00
	00		 mov	 DWORD PTR [ebx+456], eax
  00b48	8b 85 60 ff ff
	ff		 mov	 eax, DWORD PTR _nX4$1$[ebp]
  00b4e	89 8b b8 01 00
	00		 mov	 DWORD PTR [ebx+440], ecx
  00b54	8b 8d 48 ff ff
	ff		 mov	 ecx, DWORD PTR _nX3$1$[ebp]
  00b5a	89 83 cc 01 00
	00		 mov	 DWORD PTR [ebx+460], eax

; 2983 : 
; 2984 : 			m_spdDrawingData.m_nNeckXPos1 = nNeckXPos1;

  00b60	8b 85 5c ff ff
	ff		 mov	 eax, DWORD PTR _nNeckXPos1$1$[ebp]
  00b66	89 8b c4 01 00
	00		 mov	 DWORD PTR [ebx+452], ecx

; 2985 : 			m_spdDrawingData.m_nNeckYPos1 = nNeckYPos1;

  00b6c	8b 8d 58 ff ff
	ff		 mov	 ecx, DWORD PTR _nNeckYPos1$1$[ebp]
  00b72	89 83 d4 01 00
	00		 mov	 DWORD PTR [ebx+468], eax

; 2986 : 			m_spdDrawingData.m_nNeckXPos2 = nNeckXPos2;

  00b78	8b 85 70 ff ff
	ff		 mov	 eax, DWORD PTR _nNeckXPos2$1$[ebp]
  00b7e	89 8b d8 01 00
	00		 mov	 DWORD PTR [ebx+472], ecx

; 2987 : 			m_spdDrawingData.m_nNeckYPos2 = nNeckYPos2;

  00b84	8b 8d 54 ff ff
	ff		 mov	 ecx, DWORD PTR _nNeckYPos2$1$[ebp]
  00b8a	89 83 dc 01 00
	00		 mov	 DWORD PTR [ebx+476], eax

; 2988 : 
; 2989 : 			m_spdDrawingData.m_nNeckXLength  = nNeckXLength;
; 2990 : 			m_spdDrawingData.m_nNeckYLength1 = nNeckYLength1;

  00b90	8b 45 84	 mov	 eax, DWORD PTR _nNeckYLength1$1$[ebp]
  00b93	89 8b e0 01 00
	00		 mov	 DWORD PTR [ebx+480], ecx
  00b99	8b 8d 3c ff ff
	ff		 mov	 ecx, DWORD PTR _nNeckXLength$1$[ebp]
  00b9f	89 83 e8 01 00
	00		 mov	 DWORD PTR [ebx+488], eax

; 2991 : 			m_spdDrawingData.m_nNeckYLength2 = nNeckYLength2;

  00ba5	8b 45 88	 mov	 eax, DWORD PTR _nNeckYLength2$1$[ebp]
  00ba8	89 bb d0 01 00
	00		 mov	 DWORD PTR [ebx+464], edi
  00bae	8b fe		 mov	 edi, esi
  00bb0	89 8b e4 01 00
	00		 mov	 DWORD PTR [ebx+484], ecx
  00bb6	89 83 ec 01 00
	00		 mov	 DWORD PTR [ebx+492], eax
  00bbc	eb 18		 jmp	 SHORT $LN2@DrawAutoPa
$LN284@DrawAutoPa:

; 2765 : 																rctGraphRegion.top, rctGraphRegion.bottom, m_bLog, m_bReverse);
; 2766 : 
; 2767 : 					bIsDrawReady = TRUE;
; 2768 : 			}
; 2769 : 			break;
; 2770 : 		}
; 2771 : 
; 2772 : 		if ( !bIsDrawReady)		
; 2773 : 		{
; 2774 : 			if ( pWavePatternData->m_bIsSelect)

  00bbe	83 7f 08 00	 cmp	 DWORD PTR [edi+8], 0
  00bc2	8b 7d 90	 mov	 edi, DWORD PTR _p_pDC$GSCopy$1$[ebp]
  00bc5	74 0f		 je	 SHORT $LN2@DrawAutoPa

; 2775 : 				m_spdDrawingData.m_bDraw = FALSE;

  00bc7	c7 83 a4 01 00
	00 00 00 00 00	 mov	 DWORD PTR [ebx+420], 0

; 2946 : 			}
; 2947 : 			// Draw Neck Line2
; 2948 : 			if ( nNeckXPos2 > 0 && nNeckYPos2 > 0)

  00bd1	eb 03		 jmp	 SHORT $LN2@DrawAutoPa
$LN294@DrawAutoPa:

; 2677 : 		nTextHeight = 13;
; 2678 : // 2008.02.20 by LYH <<
; 2679 : 
; 2680 : 	for (int i = 0; i < nPointCnt; i++)

  00bd3	8b 7d 90	 mov	 edi, DWORD PTR _p_pDC$GSCopy$1$[ebp]
$LN2@DrawAutoPa:
  00bd6	8b 85 7c ff ff
	ff		 mov	 eax, DWORD PTR _i$1$[ebp]
  00bdc	40		 inc	 eax
  00bdd	8b f0		 mov	 esi, eax
  00bdf	89 85 7c ff ff
	ff		 mov	 DWORD PTR _i$1$[ebp], eax
  00be5	3b 85 6c ff ff
	ff		 cmp	 eax, DWORD PTR _nPointCnt$1$[ebp]
  00beb	0f 8c b5 f4 ff
	ff		 jl	 $LL4@DrawAutoPa

; 2681 : 	{
; 2682 : 		//     
; 2683 : 		if( m_PatternEnvData.m_bNotDrawAll) break;

  00bf1	eb 03		 jmp	 SHORT $LN3@DrawAutoPa
$LN290@DrawAutoPa:
  00bf3	8b 7d 90	 mov	 edi, DWORD PTR _p_pDC$GSCopy$1$[ebp]
$LN3@DrawAutoPa:

; 2992 : 		}
; 2993 : 		// <----------------------------------------------------------------------
; 2994 : 	}
; 2995 : 
; 2996 : 
; 2997 : 	// ************************************************
; 2998 : 	// Draw Selected Pattern
; 2999 : 	// ************************************************
; 3000 : 	if ( m_spdDrawingData.m_bDraw )

  00bf6	83 bb a4 01 00
	00 00		 cmp	 DWORD PTR [ebx+420], 0
  00bfd	0f 84 1b 06 00
	00		 je	 $LN266@DrawAutoPa

; 3001 : 	{
; 3002 : 		// Get Pattern Name
; 3003 : 		strPatternName = m_wpWavePattern.GetPatternName(m_spdDrawingData.m_nPatternType);

  00c03	ff b3 a8 01 00
	00		 push	 DWORD PTR [ebx+424]
  00c09	8d 85 68 ff ff
	ff		 lea	 eax, DWORD PTR $T13[ebp]
  00c0f	50		 push	 eax
  00c10	8d 8b c0 00 00
	00		 lea	 ecx, DWORD PTR [ebx+192]
  00c16	e8 00 00 00 00	 call	 ?GetPatternName@CWavePattern@@QAE?AV?$CStringT@DV?$StrTraitMFC_DLL@DV?$ChTraitsCRT@D@ATL@@@@@ATL@@H@Z ; CWavePattern::GetPatternName
  00c1b	50		 push	 eax
  00c1c	8d 4d 80	 lea	 ecx, DWORD PTR _strPatternName$[ebp]
  00c1f	c6 45 fc 02	 mov	 BYTE PTR __$EHRec$[ebp+8], 2
  00c23	ff 15 00 00 00
	00		 call	 DWORD PTR __imp_??4?$CStringT@DV?$StrTraitMFC_DLL@DV?$ChTraitsCRT@D@ATL@@@@@ATL@@QAEAAV01@ABV01@@Z
  00c29	8d 8d 68 ff ff
	ff		 lea	 ecx, DWORD PTR $T13[ebp]
  00c2f	ff 15 00 00 00
	00		 call	 DWORD PTR __imp_??1?$CStringT@DV?$StrTraitMFC_DLL@DV?$ChTraitsCRT@D@ATL@@@@@ATL@@QAE@XZ
; File C:\Program Files (x86)\Microsoft Visual Studio\2019\Community\VC\Tools\MSVC\14.29.30133\atlmfc\include\afxwin1.inl

; 70   : 	{ m_hObject = NULL; }

  00c35	c7 85 30 ff ff
	ff 00 00 00 00	 mov	 DWORD PTR _pnSelect$11[ebp+4], 0

; 104  : 	{ }

  00c3f	c7 85 2c ff ff
	ff 00 00 00 00	 mov	 DWORD PTR _pnSelect$11[ebp], OFFSET ??_7CPen@@6B@
; File D:\git\src\IBK\IBK_DRFN\ProjSrc\SrcChartEx\ChartAddIn\ChartPatternAddIn\PatternMaker.cpp

; 3010 : 		nPatternTrend = m_wpWavePattern.GetPatternTrend(m_spdDrawingData.m_nPatternType);	// Pattern Color

  00c49	ff b3 a8 01 00
	00		 push	 DWORD PTR [ebx+424]
  00c4f	8d 8b c0 00 00
	00		 lea	 ecx, DWORD PTR [ebx+192]
  00c55	c6 45 fc 03	 mov	 BYTE PTR __$EHRec$[ebp+8], 3
  00c59	e8 00 00 00 00	 call	 ?GetPatternTrend@CWavePattern@@QAEHH@Z ; CWavePattern::GetPatternTrend
  00c5e	8b c8		 mov	 ecx, eax

; 3011 : 		if ( nPatternTrend == UPWARD_REVERSE)

  00c60	81 f9 b9 0b 00
	00		 cmp	 ecx, 3001		; 00000bb9H
  00c66	75 09		 jne	 SHORT $LN90@DrawAutoPa

; 3012 : 			clrLine = COLOR_UPWARD_REVERSE;

  00c68	c7 45 8c ff 68
	20 00		 mov	 DWORD PTR _clrLine$1$[ebp], 2124031 ; 002068ffH
  00c6f	eb 35		 jmp	 SHORT $LN96@DrawAutoPa
$LN90@DrawAutoPa:

; 3013 : 		else if ( nPatternTrend == DNWARD_REVERSE)

  00c71	81 f9 ba 0b 00
	00		 cmp	 ecx, 3002		; 00000bbaH
  00c77	75 09		 jne	 SHORT $LN92@DrawAutoPa

; 3014 : 			clrLine = COLOR_DNWARD_REVERSE;

  00c79	c7 45 8c 32 cd
	32 00		 mov	 DWORD PTR _clrLine$1$[ebp], 3329330 ; 0032cd32H
  00c80	eb 24		 jmp	 SHORT $LN96@DrawAutoPa
$LN92@DrawAutoPa:

; 3015 : 		else if ( nPatternTrend == UPWARD_CONTINUE)

  00c82	81 f9 bb 0b 00
	00		 cmp	 ecx, 3003		; 00000bbbH
  00c88	75 09		 jne	 SHORT $LN94@DrawAutoPa

; 3016 : 			clrLine = COLOR_UPWARD_CONTINUE;

  00c8a	c7 45 8c ff 00
	00 00		 mov	 DWORD PTR _clrLine$1$[ebp], 255 ; 000000ffH
  00c91	eb 13		 jmp	 SHORT $LN96@DrawAutoPa
$LN94@DrawAutoPa:

; 3017 : 		else if ( nPatternTrend == DNWARD_CONTINUE)

  00c93	33 c0		 xor	 eax, eax
  00c95	ba 00 00 ff 00	 mov	 edx, 16711680		; 00ff0000H
  00c9a	81 f9 bc 0b 00
	00		 cmp	 ecx, 3004		; 00000bbcH
  00ca0	0f 44 c2	 cmove	 eax, edx
  00ca3	89 45 8c	 mov	 DWORD PTR _clrLine$1$[ebp], eax
$LN96@DrawAutoPa:
; File C:\Program Files (x86)\Microsoft Visual Studio\2019\Community\VC\Tools\MSVC\14.29.30133\atlmfc\include\afxwin1.inl

; 790  : 	{ ASSERT(m_hAttribDC != NULL); return CPen::FromHandle((HPEN)::GetCurrentObject(m_hAttribDC, OBJ_PEN)); }

  00ca6	6a 01		 push	 1
  00ca8	ff 77 08	 push	 DWORD PTR [edi+8]
  00cab	8b 3d 00 00 00
	00		 mov	 edi, DWORD PTR __imp__GetCurrentObject@8
  00cb1	ff d7		 call	 edi

; 102  : 	{ return (CPen*) CGdiObject::FromHandle(hPen); }

  00cb3	50		 push	 eax
  00cb4	e8 00 00 00 00	 call	 ?FromHandle@CGdiObject@@SGPAV1@PAX@Z ; CGdiObject::FromHandle

; 120  : 		return ::GetObject(m_hObject, sizeof(LOGPEN), pLogPen); }

  00cb9	8b 35 00 00 00
	00		 mov	 esi, DWORD PTR __imp__GetObjectA@12
  00cbf	8d 4d d0	 lea	 ecx, DWORD PTR _logpen$16[ebp]
  00cc2	51		 push	 ecx
  00cc3	6a 10		 push	 16			; 00000010H
  00cc5	ff 70 04	 push	 DWORD PTR [eax+4]
