; Listing generated by Microsoft (R) Optimizing Compiler Version 19.29.30145.0 

	TITLE	D:\git\src\IBK\IBK_DRFN\#DRfn-CS\_Obj\ChartPatternAddin\PatternDBItems.obj
	.686P
	.XMM
	include listing.inc
	.model	flat

INCLUDELIB MSVCRT
INCLUDELIB OLDNAMES

PUBLIC	?__empty_global_delete@@YAXPAX@Z		; __empty_global_delete
PUBLIC	?__empty_global_delete@@YAXPAXI@Z		; __empty_global_delete
PUBLIC	??1CObject@@UAE@XZ				; CObject::~CObject
PUBLIC	?Serialize@CObject@@UAEXAAVCArchive@@@Z		; CObject::Serialize
PUBLIC	?AssertValid@CObject@@UBEXXZ			; CObject::AssertValid
PUBLIC	?Dump@CObject@@UBEXAAVCDumpContext@@@Z		; CObject::Dump
PUBLIC	??0CHighLowPtData@@QAE@XZ			; CHighLowPtData::CHighLowPtData
PUBLIC	??1CHighLowPtData@@UAE@XZ			; CHighLowPtData::~CHighLowPtData
PUBLIC	??_GCHighLowPtData@@UAEPAXI@Z			; CHighLowPtData::`scalar deleting destructor'
PUBLIC	??0CMAData@@QAE@XZ				; CMAData::CMAData
PUBLIC	??1CMAData@@UAE@XZ				; CMAData::~CMAData
PUBLIC	??_GCMAData@@UAEPAXI@Z				; CMAData::`scalar deleting destructor'
PUBLIC	??0CRegistNSupportData@@QAE@XZ			; CRegistNSupportData::CRegistNSupportData
PUBLIC	??1CRegistNSupportData@@UAE@XZ			; CRegistNSupportData::~CRegistNSupportData
PUBLIC	??_GCRegistNSupportData@@UAEPAXI@Z		; CRegistNSupportData::`scalar deleting destructor'
PUBLIC	??0CWavePatternData@@QAE@XZ			; CWavePatternData::CWavePatternData
PUBLIC	??1CWavePatternData@@UAE@XZ			; CWavePatternData::~CWavePatternData
PUBLIC	??_GCWavePatternData@@UAEPAXI@Z			; CWavePatternData::`scalar deleting destructor'
PUBLIC	??0CLineDrawData@@QAE@XZ			; CLineDrawData::CLineDrawData
PUBLIC	??1CLineDrawData@@UAE@XZ			; CLineDrawData::~CLineDrawData
PUBLIC	??_GCLineDrawData@@UAEPAXI@Z			; CLineDrawData::`scalar deleting destructor'
PUBLIC	??0CPatternEnvData@@QAE@XZ			; CPatternEnvData::CPatternEnvData
PUBLIC	??1CPatternEnvData@@UAE@XZ			; CPatternEnvData::~CPatternEnvData
PUBLIC	?IsDisplayCandle@CPatternEnvData@@QAEHH@Z	; CPatternEnvData::IsDisplayCandle
PUBLIC	??0?$CArray@HH@@QAE@XZ				; CArray<int,int>::CArray<int,int>
PUBLIC	?SetSize@?$CArray@HH@@QAEXHH@Z			; CArray<int,int>::SetSize
PUBLIC	??1?$CArray@HH@@UAE@XZ				; CArray<int,int>::~CArray<int,int>
PUBLIC	?Serialize@?$CArray@HH@@UAEXAAVCArchive@@@Z	; CArray<int,int>::Serialize
PUBLIC	??_G?$CArray@HH@@UAEPAXI@Z			; CArray<int,int>::`scalar deleting destructor'
PUBLIC	??_GCPatternEnvData@@UAEPAXI@Z			; CPatternEnvData::`scalar deleting destructor'
PUBLIC	??0CSelPatternData4Draw@@QAE@XZ			; CSelPatternData4Draw::CSelPatternData4Draw
PUBLIC	??1CSelPatternData4Draw@@UAE@XZ			; CSelPatternData4Draw::~CSelPatternData4Draw
PUBLIC	??_GCSelPatternData4Draw@@UAEPAXI@Z		; CSelPatternData4Draw::`scalar deleting destructor'
PUBLIC	??0CCandlePatternData@@QAE@XZ			; CCandlePatternData::CCandlePatternData
PUBLIC	??1CCandlePatternData@@UAE@XZ			; CCandlePatternData::~CCandlePatternData
PUBLIC	??_GCCandlePatternData@@UAEPAXI@Z		; CCandlePatternData::`scalar deleting destructor'
PUBLIC	??0CCandlePatternPosInfo@@QAE@XZ		; CCandlePatternPosInfo::CCandlePatternPosInfo
PUBLIC	??1CCandlePatternPosInfo@@UAE@XZ		; CCandlePatternPosInfo::~CCandlePatternPosInfo
PUBLIC	??_GCCandlePatternPosInfo@@UAEPAXI@Z		; CCandlePatternPosInfo::`scalar deleting destructor'
PUBLIC	??$SerializeElements@H@@YGXAAVCArchive@@PAHH@Z	; SerializeElements<int>
PUBLIC	??_R0?AVCObject@@@8				; CObject `RTTI Type Descriptor'
PUBLIC	??_R3CObject@@8					; CObject::`RTTI Class Hierarchy Descriptor'
PUBLIC	??_R2CObject@@8					; CObject::`RTTI Base Class Array'
PUBLIC	??_R1A@?0A@EA@CObject@@8			; CObject::`RTTI Base Class Descriptor at (0,-1,0,64)'
PUBLIC	??_7CHighLowPtData@@6B@				; CHighLowPtData::`vftable'
PUBLIC	??_7CMAData@@6B@				; CMAData::`vftable'
PUBLIC	??_7CRegistNSupportData@@6B@			; CRegistNSupportData::`vftable'
PUBLIC	??_7CWavePatternData@@6B@			; CWavePatternData::`vftable'
PUBLIC	??_7CLineDrawData@@6B@				; CLineDrawData::`vftable'
PUBLIC	??_7?$CArray@HH@@6B@				; CArray<int,int>::`vftable'
PUBLIC	??_7CPatternEnvData@@6B@			; CPatternEnvData::`vftable'
PUBLIC	??_7CSelPatternData4Draw@@6B@			; CSelPatternData4Draw::`vftable'
PUBLIC	??_7CCandlePatternData@@6B@			; CCandlePatternData::`vftable'
PUBLIC	??_7CCandlePatternPosInfo@@6B@			; CCandlePatternPosInfo::`vftable'
PUBLIC	??_R4CHighLowPtData@@6B@			; CHighLowPtData::`RTTI Complete Object Locator'
PUBLIC	??_R0?AVCHighLowPtData@@@8			; CHighLowPtData `RTTI Type Descriptor'
PUBLIC	??_R3CHighLowPtData@@8				; CHighLowPtData::`RTTI Class Hierarchy Descriptor'
PUBLIC	??_R2CHighLowPtData@@8				; CHighLowPtData::`RTTI Base Class Array'
PUBLIC	??_R1A@?0A@EA@CHighLowPtData@@8			; CHighLowPtData::`RTTI Base Class Descriptor at (0,-1,0,64)'
PUBLIC	??_R4CMAData@@6B@				; CMAData::`RTTI Complete Object Locator'
PUBLIC	??_R0?AVCMAData@@@8				; CMAData `RTTI Type Descriptor'
PUBLIC	??_R3CMAData@@8					; CMAData::`RTTI Class Hierarchy Descriptor'
PUBLIC	??_R2CMAData@@8					; CMAData::`RTTI Base Class Array'
PUBLIC	??_R1A@?0A@EA@CMAData@@8			; CMAData::`RTTI Base Class Descriptor at (0,-1,0,64)'
PUBLIC	??_R4CRegistNSupportData@@6B@			; CRegistNSupportData::`RTTI Complete Object Locator'
PUBLIC	??_R0?AVCRegistNSupportData@@@8			; CRegistNSupportData `RTTI Type Descriptor'
PUBLIC	??_R3CRegistNSupportData@@8			; CRegistNSupportData::`RTTI Class Hierarchy Descriptor'
PUBLIC	??_R2CRegistNSupportData@@8			; CRegistNSupportData::`RTTI Base Class Array'
PUBLIC	??_R1A@?0A@EA@CRegistNSupportData@@8		; CRegistNSupportData::`RTTI Base Class Descriptor at (0,-1,0,64)'
PUBLIC	??_R4CWavePatternData@@6B@			; CWavePatternData::`RTTI Complete Object Locator'
PUBLIC	??_R0?AVCWavePatternData@@@8			; CWavePatternData `RTTI Type Descriptor'
PUBLIC	??_R3CWavePatternData@@8			; CWavePatternData::`RTTI Class Hierarchy Descriptor'
PUBLIC	??_R2CWavePatternData@@8			; CWavePatternData::`RTTI Base Class Array'
PUBLIC	??_R1A@?0A@EA@CWavePatternData@@8		; CWavePatternData::`RTTI Base Class Descriptor at (0,-1,0,64)'
PUBLIC	??_R4CLineDrawData@@6B@				; CLineDrawData::`RTTI Complete Object Locator'
PUBLIC	??_R0?AVCLineDrawData@@@8			; CLineDrawData `RTTI Type Descriptor'
PUBLIC	??_R3CLineDrawData@@8				; CLineDrawData::`RTTI Class Hierarchy Descriptor'
PUBLIC	??_R2CLineDrawData@@8				; CLineDrawData::`RTTI Base Class Array'
PUBLIC	??_R1A@?0A@EA@CLineDrawData@@8			; CLineDrawData::`RTTI Base Class Descriptor at (0,-1,0,64)'
PUBLIC	??_R4CPatternEnvData@@6B@			; CPatternEnvData::`RTTI Complete Object Locator'
PUBLIC	??_R0?AVCPatternEnvData@@@8			; CPatternEnvData `RTTI Type Descriptor'
PUBLIC	??_R3CPatternEnvData@@8				; CPatternEnvData::`RTTI Class Hierarchy Descriptor'
PUBLIC	??_R2CPatternEnvData@@8				; CPatternEnvData::`RTTI Base Class Array'
PUBLIC	??_R1A@?0A@EA@CPatternEnvData@@8		; CPatternEnvData::`RTTI Base Class Descriptor at (0,-1,0,64)'
PUBLIC	??_R4?$CArray@HH@@6B@				; CArray<int,int>::`RTTI Complete Object Locator'
PUBLIC	??_R0?AV?$CArray@HH@@@8				; CArray<int,int> `RTTI Type Descriptor'
PUBLIC	??_R3?$CArray@HH@@8				; CArray<int,int>::`RTTI Class Hierarchy Descriptor'
PUBLIC	??_R2?$CArray@HH@@8				; CArray<int,int>::`RTTI Base Class Array'
PUBLIC	??_R1A@?0A@EA@?$CArray@HH@@8			; CArray<int,int>::`RTTI Base Class Descriptor at (0,-1,0,64)'
PUBLIC	??_R4CSelPatternData4Draw@@6B@			; CSelPatternData4Draw::`RTTI Complete Object Locator'
PUBLIC	??_R0?AVCSelPatternData4Draw@@@8		; CSelPatternData4Draw `RTTI Type Descriptor'
PUBLIC	??_R3CSelPatternData4Draw@@8			; CSelPatternData4Draw::`RTTI Class Hierarchy Descriptor'
PUBLIC	??_R2CSelPatternData4Draw@@8			; CSelPatternData4Draw::`RTTI Base Class Array'
PUBLIC	??_R1A@?0A@EA@CSelPatternData4Draw@@8		; CSelPatternData4Draw::`RTTI Base Class Descriptor at (0,-1,0,64)'
PUBLIC	??_R4CCandlePatternData@@6B@			; CCandlePatternData::`RTTI Complete Object Locator'
PUBLIC	??_R0?AVCCandlePatternData@@@8			; CCandlePatternData `RTTI Type Descriptor'
PUBLIC	??_R3CCandlePatternData@@8			; CCandlePatternData::`RTTI Class Hierarchy Descriptor'
PUBLIC	??_R2CCandlePatternData@@8			; CCandlePatternData::`RTTI Base Class Array'
PUBLIC	??_R1A@?0A@EA@CCandlePatternData@@8		; CCandlePatternData::`RTTI Base Class Descriptor at (0,-1,0,64)'
PUBLIC	??_R4CCandlePatternPosInfo@@6B@			; CCandlePatternPosInfo::`RTTI Complete Object Locator'
PUBLIC	??_R0?AVCCandlePatternPosInfo@@@8		; CCandlePatternPosInfo `RTTI Type Descriptor'
PUBLIC	??_R3CCandlePatternPosInfo@@8			; CCandlePatternPosInfo::`RTTI Class Hierarchy Descriptor'
PUBLIC	??_R2CCandlePatternPosInfo@@8			; CCandlePatternPosInfo::`RTTI Base Class Array'
PUBLIC	??_R1A@?0A@EA@CCandlePatternPosInfo@@8		; CCandlePatternPosInfo::`RTTI Base Class Descriptor at (0,-1,0,64)'
PUBLIC	__real@3ff0000000000000
EXTRN	??3@YAXPAX@Z:PROC				; operator delete
EXTRN	?__global_delete@@YAXPAXI@Z:PROC		; __global_delete
EXTRN	??_U@YAPAXI@Z:PROC				; operator new[]
EXTRN	??_V@YAXPAX@Z:PROC				; operator delete[]
EXTRN	__imp___invalid_parameter_noinfo:PROC
EXTRN	__imp___errno:PROC
EXTRN	?AfxThrowMemoryException@@YGXXZ:PROC		; AfxThrowMemoryException
EXTRN	?AfxThrowInvalidArgException@@YGXXZ:PROC	; AfxThrowInvalidArgException
EXTRN	?AfxThrowArchiveException@@YGXHPBD@Z:PROC	; AfxThrowArchiveException
EXTRN	?GetRuntimeClass@CObject@@UBEPAUCRuntimeClass@@XZ:PROC ; CObject::GetRuntimeClass
EXTRN	?Read@CArchive@@QAEIPAXI@Z:PROC			; CArchive::Read
EXTRN	?Write@CArchive@@QAEXPBXI@Z:PROC		; CArchive::Write
EXTRN	?ReadCount@CArchive@@QAEKXZ:PROC		; CArchive::ReadCount
EXTRN	?WriteCount@CArchive@@QAEXK@Z:PROC		; CArchive::WriteCount
EXTRN	??_ECHighLowPtData@@UAEPAXI@Z:PROC		; CHighLowPtData::`vector deleting destructor'
EXTRN	??_ECMAData@@UAEPAXI@Z:PROC			; CMAData::`vector deleting destructor'
EXTRN	??_ECRegistNSupportData@@UAEPAXI@Z:PROC		; CRegistNSupportData::`vector deleting destructor'
EXTRN	??_ECWavePatternData@@UAEPAXI@Z:PROC		; CWavePatternData::`vector deleting destructor'
EXTRN	??_ECLineDrawData@@UAEPAXI@Z:PROC		; CLineDrawData::`vector deleting destructor'
EXTRN	??_E?$CArray@HH@@UAEPAXI@Z:PROC			; CArray<int,int>::`vector deleting destructor'
EXTRN	??_ECPatternEnvData@@UAEPAXI@Z:PROC		; CPatternEnvData::`vector deleting destructor'
EXTRN	??_ECSelPatternData4Draw@@UAEPAXI@Z:PROC	; CSelPatternData4Draw::`vector deleting destructor'
EXTRN	??_ECCandlePatternData@@UAEPAXI@Z:PROC		; CCandlePatternData::`vector deleting destructor'
EXTRN	??_ECCandlePatternPosInfo@@UAEPAXI@Z:PROC	; CCandlePatternPosInfo::`vector deleting destructor'
EXTRN	_memcpy:PROC
EXTRN	_memset:PROC
EXTRN	??_7type_info@@6B@:QWORD			; type_info::`vftable'
EXTRN	__fltused:DWORD
;	COMDAT __real@3ff0000000000000
CONST	SEGMENT
__real@3ff0000000000000 DQ 03ff0000000000000r	; 1
CONST	ENDS
;	COMDAT ??_R1A@?0A@EA@CCandlePatternPosInfo@@8
rdata$r	SEGMENT
??_R1A@?0A@EA@CCandlePatternPosInfo@@8 DD FLAT:??_R0?AVCCandlePatternPosInfo@@@8 ; CCandlePatternPosInfo::`RTTI Base Class Descriptor at (0,-1,0,64)'
	DD	01H
	DD	00H
	DD	0ffffffffH
	DD	00H
	DD	040H
	DD	FLAT:??_R3CCandlePatternPosInfo@@8
rdata$r	ENDS
;	COMDAT ??_R2CCandlePatternPosInfo@@8
rdata$r	SEGMENT
??_R2CCandlePatternPosInfo@@8 DD FLAT:??_R1A@?0A@EA@CCandlePatternPosInfo@@8 ; CCandlePatternPosInfo::`RTTI Base Class Array'
	DD	FLAT:??_R1A@?0A@EA@CObject@@8
rdata$r	ENDS
;	COMDAT ??_R3CCandlePatternPosInfo@@8
rdata$r	SEGMENT
??_R3CCandlePatternPosInfo@@8 DD 00H			; CCandlePatternPosInfo::`RTTI Class Hierarchy Descriptor'
	DD	00H
	DD	02H
	DD	FLAT:??_R2CCandlePatternPosInfo@@8
rdata$r	ENDS
;	COMDAT ??_R0?AVCCandlePatternPosInfo@@@8
data$rs	SEGMENT
??_R0?AVCCandlePatternPosInfo@@@8 DD FLAT:??_7type_info@@6B@ ; CCandlePatternPosInfo `RTTI Type Descriptor'
	DD	00H
	DB	'.?AVCCandlePatternPosInfo@@', 00H
data$rs	ENDS
;	COMDAT ??_R4CCandlePatternPosInfo@@6B@
rdata$r	SEGMENT
??_R4CCandlePatternPosInfo@@6B@ DD 00H			; CCandlePatternPosInfo::`RTTI Complete Object Locator'
	DD	00H
	DD	00H
	DD	FLAT:??_R0?AVCCandlePatternPosInfo@@@8
	DD	FLAT:??_R3CCandlePatternPosInfo@@8
rdata$r	ENDS
;	COMDAT ??_R1A@?0A@EA@CCandlePatternData@@8
rdata$r	SEGMENT
??_R1A@?0A@EA@CCandlePatternData@@8 DD FLAT:??_R0?AVCCandlePatternData@@@8 ; CCandlePatternData::`RTTI Base Class Descriptor at (0,-1,0,64)'
	DD	01H
	DD	00H
	DD	0ffffffffH
	DD	00H
	DD	040H
	DD	FLAT:??_R3CCandlePatternData@@8
rdata$r	ENDS
;	COMDAT ??_R2CCandlePatternData@@8
rdata$r	SEGMENT
??_R2CCandlePatternData@@8 DD FLAT:??_R1A@?0A@EA@CCandlePatternData@@8 ; CCandlePatternData::`RTTI Base Class Array'
	DD	FLAT:??_R1A@?0A@EA@CObject@@8
rdata$r	ENDS
;	COMDAT ??_R3CCandlePatternData@@8
rdata$r	SEGMENT
??_R3CCandlePatternData@@8 DD 00H			; CCandlePatternData::`RTTI Class Hierarchy Descriptor'
	DD	00H
	DD	02H
	DD	FLAT:??_R2CCandlePatternData@@8
rdata$r	ENDS
;	COMDAT ??_R0?AVCCandlePatternData@@@8
data$rs	SEGMENT
??_R0?AVCCandlePatternData@@@8 DD FLAT:??_7type_info@@6B@ ; CCandlePatternData `RTTI Type Descriptor'
	DD	00H
	DB	'.?AVCCandlePatternData@@', 00H
data$rs	ENDS
;	COMDAT ??_R4CCandlePatternData@@6B@
rdata$r	SEGMENT
??_R4CCandlePatternData@@6B@ DD 00H			; CCandlePatternData::`RTTI Complete Object Locator'
	DD	00H
	DD	00H
	DD	FLAT:??_R0?AVCCandlePatternData@@@8
	DD	FLAT:??_R3CCandlePatternData@@8
rdata$r	ENDS
;	COMDAT ??_R1A@?0A@EA@CSelPatternData4Draw@@8
rdata$r	SEGMENT
??_R1A@?0A@EA@CSelPatternData4Draw@@8 DD FLAT:??_R0?AVCSelPatternData4Draw@@@8 ; CSelPatternData4Draw::`RTTI Base Class Descriptor at (0,-1,0,64)'
	DD	01H
	DD	00H
	DD	0ffffffffH
	DD	00H
	DD	040H
	DD	FLAT:??_R3CSelPatternData4Draw@@8
rdata$r	ENDS
;	COMDAT ??_R2CSelPatternData4Draw@@8
rdata$r	SEGMENT
??_R2CSelPatternData4Draw@@8 DD FLAT:??_R1A@?0A@EA@CSelPatternData4Draw@@8 ; CSelPatternData4Draw::`RTTI Base Class Array'
	DD	FLAT:??_R1A@?0A@EA@CObject@@8
rdata$r	ENDS
;	COMDAT ??_R3CSelPatternData4Draw@@8
rdata$r	SEGMENT
??_R3CSelPatternData4Draw@@8 DD 00H			; CSelPatternData4Draw::`RTTI Class Hierarchy Descriptor'
	DD	00H
	DD	02H
	DD	FLAT:??_R2CSelPatternData4Draw@@8
rdata$r	ENDS
;	COMDAT ??_R0?AVCSelPatternData4Draw@@@8
data$rs	SEGMENT
??_R0?AVCSelPatternData4Draw@@@8 DD FLAT:??_7type_info@@6B@ ; CSelPatternData4Draw `RTTI Type Descriptor'
	DD	00H
	DB	'.?AVCSelPatternData4Draw@@', 00H
data$rs	ENDS
;	COMDAT ??_R4CSelPatternData4Draw@@6B@
rdata$r	SEGMENT
??_R4CSelPatternData4Draw@@6B@ DD 00H			; CSelPatternData4Draw::`RTTI Complete Object Locator'
	DD	00H
	DD	00H
	DD	FLAT:??_R0?AVCSelPatternData4Draw@@@8
	DD	FLAT:??_R3CSelPatternData4Draw@@8
rdata$r	ENDS
;	COMDAT ??_R1A@?0A@EA@?$CArray@HH@@8
rdata$r	SEGMENT
??_R1A@?0A@EA@?$CArray@HH@@8 DD FLAT:??_R0?AV?$CArray@HH@@@8 ; CArray<int,int>::`RTTI Base Class Descriptor at (0,-1,0,64)'
	DD	01H
	DD	00H
	DD	0ffffffffH
	DD	00H
	DD	040H
	DD	FLAT:??_R3?$CArray@HH@@8
rdata$r	ENDS
;	COMDAT ??_R2?$CArray@HH@@8
rdata$r	SEGMENT
??_R2?$CArray@HH@@8 DD FLAT:??_R1A@?0A@EA@?$CArray@HH@@8 ; CArray<int,int>::`RTTI Base Class Array'
	DD	FLAT:??_R1A@?0A@EA@CObject@@8
rdata$r	ENDS
;	COMDAT ??_R3?$CArray@HH@@8
rdata$r	SEGMENT
??_R3?$CArray@HH@@8 DD 00H				; CArray<int,int>::`RTTI Class Hierarchy Descriptor'
	DD	00H
	DD	02H
	DD	FLAT:??_R2?$CArray@HH@@8
rdata$r	ENDS
;	COMDAT ??_R0?AV?$CArray@HH@@@8
data$rs	SEGMENT
??_R0?AV?$CArray@HH@@@8 DD FLAT:??_7type_info@@6B@	; CArray<int,int> `RTTI Type Descriptor'
	DD	00H
	DB	'.?AV?$CArray@HH@@', 00H
data$rs	ENDS
;	COMDAT ??_R4?$CArray@HH@@6B@
rdata$r	SEGMENT
??_R4?$CArray@HH@@6B@ DD 00H				; CArray<int,int>::`RTTI Complete Object Locator'
	DD	00H
	DD	00H
	DD	FLAT:??_R0?AV?$CArray@HH@@@8
	DD	FLAT:??_R3?$CArray@HH@@8
rdata$r	ENDS
;	COMDAT ??_R1A@?0A@EA@CPatternEnvData@@8
rdata$r	SEGMENT
??_R1A@?0A@EA@CPatternEnvData@@8 DD FLAT:??_R0?AVCPatternEnvData@@@8 ; CPatternEnvData::`RTTI Base Class Descriptor at (0,-1,0,64)'
	DD	01H
	DD	00H
	DD	0ffffffffH
	DD	00H
	DD	040H
	DD	FLAT:??_R3CPatternEnvData@@8
rdata$r	ENDS
;	COMDAT ??_R2CPatternEnvData@@8
rdata$r	SEGMENT
??_R2CPatternEnvData@@8 DD FLAT:??_R1A@?0A@EA@CPatternEnvData@@8 ; CPatternEnvData::`RTTI Base Class Array'
	DD	FLAT:??_R1A@?0A@EA@CObject@@8
rdata$r	ENDS
;	COMDAT ??_R3CPatternEnvData@@8
rdata$r	SEGMENT
??_R3CPatternEnvData@@8 DD 00H				; CPatternEnvData::`RTTI Class Hierarchy Descriptor'
	DD	00H
	DD	02H
	DD	FLAT:??_R2CPatternEnvData@@8
rdata$r	ENDS
;	COMDAT ??_R0?AVCPatternEnvData@@@8
data$rs	SEGMENT
??_R0?AVCPatternEnvData@@@8 DD FLAT:??_7type_info@@6B@	; CPatternEnvData `RTTI Type Descriptor'
	DD	00H
	DB	'.?AVCPatternEnvData@@', 00H
data$rs	ENDS
;	COMDAT ??_R4CPatternEnvData@@6B@
rdata$r	SEGMENT
??_R4CPatternEnvData@@6B@ DD 00H			; CPatternEnvData::`RTTI Complete Object Locator'
	DD	00H
	DD	00H
	DD	FLAT:??_R0?AVCPatternEnvData@@@8
	DD	FLAT:??_R3CPatternEnvData@@8
rdata$r	ENDS
;	COMDAT ??_R1A@?0A@EA@CLineDrawData@@8
rdata$r	SEGMENT
??_R1A@?0A@EA@CLineDrawData@@8 DD FLAT:??_R0?AVCLineDrawData@@@8 ; CLineDrawData::`RTTI Base Class Descriptor at (0,-1,0,64)'
	DD	01H
	DD	00H
	DD	0ffffffffH
	DD	00H
	DD	040H
	DD	FLAT:??_R3CLineDrawData@@8
rdata$r	ENDS
;	COMDAT ??_R2CLineDrawData@@8
rdata$r	SEGMENT
??_R2CLineDrawData@@8 DD FLAT:??_R1A@?0A@EA@CLineDrawData@@8 ; CLineDrawData::`RTTI Base Class Array'
	DD	FLAT:??_R1A@?0A@EA@CObject@@8
rdata$r	ENDS
;	COMDAT ??_R3CLineDrawData@@8
rdata$r	SEGMENT
??_R3CLineDrawData@@8 DD 00H				; CLineDrawData::`RTTI Class Hierarchy Descriptor'
	DD	00H
	DD	02H
	DD	FLAT:??_R2CLineDrawData@@8
rdata$r	ENDS
;	COMDAT ??_R0?AVCLineDrawData@@@8
data$rs	SEGMENT
??_R0?AVCLineDrawData@@@8 DD FLAT:??_7type_info@@6B@	; CLineDrawData `RTTI Type Descriptor'
	DD	00H
	DB	'.?AVCLineDrawData@@', 00H
data$rs	ENDS
;	COMDAT ??_R4CLineDrawData@@6B@
rdata$r	SEGMENT
??_R4CLineDrawData@@6B@ DD 00H				; CLineDrawData::`RTTI Complete Object Locator'
	DD	00H
	DD	00H
	DD	FLAT:??_R0?AVCLineDrawData@@@8
	DD	FLAT:??_R3CLineDrawData@@8
rdata$r	ENDS
;	COMDAT ??_R1A@?0A@EA@CWavePatternData@@8
rdata$r	SEGMENT
??_R1A@?0A@EA@CWavePatternData@@8 DD FLAT:??_R0?AVCWavePatternData@@@8 ; CWavePatternData::`RTTI Base Class Descriptor at (0,-1,0,64)'
	DD	01H
	DD	00H
	DD	0ffffffffH
	DD	00H
	DD	040H
	DD	FLAT:??_R3CWavePatternData@@8
rdata$r	ENDS
;	COMDAT ??_R2CWavePatternData@@8
rdata$r	SEGMENT
??_R2CWavePatternData@@8 DD FLAT:??_R1A@?0A@EA@CWavePatternData@@8 ; CWavePatternData::`RTTI Base Class Array'
	DD	FLAT:??_R1A@?0A@EA@CObject@@8
rdata$r	ENDS
;	COMDAT ??_R3CWavePatternData@@8
rdata$r	SEGMENT
??_R3CWavePatternData@@8 DD 00H				; CWavePatternData::`RTTI Class Hierarchy Descriptor'
	DD	00H
	DD	02H
	DD	FLAT:??_R2CWavePatternData@@8
rdata$r	ENDS
;	COMDAT ??_R0?AVCWavePatternData@@@8
data$rs	SEGMENT
??_R0?AVCWavePatternData@@@8 DD FLAT:??_7type_info@@6B@	; CWavePatternData `RTTI Type Descriptor'
	DD	00H
	DB	'.?AVCWavePatternData@@', 00H
data$rs	ENDS
;	COMDAT ??_R4CWavePatternData@@6B@
rdata$r	SEGMENT
??_R4CWavePatternData@@6B@ DD 00H			; CWavePatternData::`RTTI Complete Object Locator'
	DD	00H
	DD	00H
	DD	FLAT:??_R0?AVCWavePatternData@@@8
	DD	FLAT:??_R3CWavePatternData@@8
rdata$r	ENDS
;	COMDAT ??_R1A@?0A@EA@CRegistNSupportData@@8
rdata$r	SEGMENT
??_R1A@?0A@EA@CRegistNSupportData@@8 DD FLAT:??_R0?AVCRegistNSupportData@@@8 ; CRegistNSupportData::`RTTI Base Class Descriptor at (0,-1,0,64)'
	DD	01H
	DD	00H
	DD	0ffffffffH
	DD	00H
	DD	040H
	DD	FLAT:??_R3CRegistNSupportData@@8
rdata$r	ENDS
;	COMDAT ??_R2CRegistNSupportData@@8
rdata$r	SEGMENT
??_R2CRegistNSupportData@@8 DD FLAT:??_R1A@?0A@EA@CRegistNSupportData@@8 ; CRegistNSupportData::`RTTI Base Class Array'
	DD	FLAT:??_R1A@?0A@EA@CObject@@8
rdata$r	ENDS
;	COMDAT ??_R3CRegistNSupportData@@8
rdata$r	SEGMENT
??_R3CRegistNSupportData@@8 DD 00H			; CRegistNSupportData::`RTTI Class Hierarchy Descriptor'
	DD	00H
	DD	02H
	DD	FLAT:??_R2CRegistNSupportData@@8
rdata$r	ENDS
;	COMDAT ??_R0?AVCRegistNSupportData@@@8
data$rs	SEGMENT
??_R0?AVCRegistNSupportData@@@8 DD FLAT:??_7type_info@@6B@ ; CRegistNSupportData `RTTI Type Descriptor'
	DD	00H
	DB	'.?AVCRegistNSupportData@@', 00H
data$rs	ENDS
;	COMDAT ??_R4CRegistNSupportData@@6B@
rdata$r	SEGMENT
??_R4CRegistNSupportData@@6B@ DD 00H			; CRegistNSupportData::`RTTI Complete Object Locator'
	DD	00H
	DD	00H
	DD	FLAT:??_R0?AVCRegistNSupportData@@@8
	DD	FLAT:??_R3CRegistNSupportData@@8
rdata$r	ENDS
;	COMDAT ??_R1A@?0A@EA@CMAData@@8
rdata$r	SEGMENT
??_R1A@?0A@EA@CMAData@@8 DD FLAT:??_R0?AVCMAData@@@8	; CMAData::`RTTI Base Class Descriptor at (0,-1,0,64)'
	DD	01H
	DD	00H
	DD	0ffffffffH
	DD	00H
	DD	040H
	DD	FLAT:??_R3CMAData@@8
rdata$r	ENDS
;	COMDAT ??_R2CMAData@@8
rdata$r	SEGMENT
??_R2CMAData@@8 DD FLAT:??_R1A@?0A@EA@CMAData@@8	; CMAData::`RTTI Base Class Array'
	DD	FLAT:??_R1A@?0A@EA@CObject@@8
rdata$r	ENDS
;	COMDAT ??_R3CMAData@@8
rdata$r	SEGMENT
??_R3CMAData@@8 DD 00H					; CMAData::`RTTI Class Hierarchy Descriptor'
	DD	00H
	DD	02H
	DD	FLAT:??_R2CMAData@@8
rdata$r	ENDS
;	COMDAT ??_R0?AVCMAData@@@8
data$rs	SEGMENT
??_R0?AVCMAData@@@8 DD FLAT:??_7type_info@@6B@		; CMAData `RTTI Type Descriptor'
	DD	00H
	DB	'.?AVCMAData@@', 00H
data$rs	ENDS
;	COMDAT ??_R4CMAData@@6B@
rdata$r	SEGMENT
??_R4CMAData@@6B@ DD 00H				; CMAData::`RTTI Complete Object Locator'
	DD	00H
	DD	00H
	DD	FLAT:??_R0?AVCMAData@@@8
	DD	FLAT:??_R3CMAData@@8
rdata$r	ENDS
;	COMDAT ??_R1A@?0A@EA@CHighLowPtData@@8
rdata$r	SEGMENT
??_R1A@?0A@EA@CHighLowPtData@@8 DD FLAT:??_R0?AVCHighLowPtData@@@8 ; CHighLowPtData::`RTTI Base Class Descriptor at (0,-1,0,64)'
	DD	01H
	DD	00H
	DD	0ffffffffH
	DD	00H
	DD	040H
	DD	FLAT:??_R3CHighLowPtData@@8
rdata$r	ENDS
;	COMDAT ??_R2CHighLowPtData@@8
rdata$r	SEGMENT
??_R2CHighLowPtData@@8 DD FLAT:??_R1A@?0A@EA@CHighLowPtData@@8 ; CHighLowPtData::`RTTI Base Class Array'
	DD	FLAT:??_R1A@?0A@EA@CObject@@8
rdata$r	ENDS
;	COMDAT ??_R3CHighLowPtData@@8
rdata$r	SEGMENT
??_R3CHighLowPtData@@8 DD 00H				; CHighLowPtData::`RTTI Class Hierarchy Descriptor'
	DD	00H
	DD	02H
	DD	FLAT:??_R2CHighLowPtData@@8
rdata$r	ENDS
;	COMDAT ??_R0?AVCHighLowPtData@@@8
data$rs	SEGMENT
??_R0?AVCHighLowPtData@@@8 DD FLAT:??_7type_info@@6B@	; CHighLowPtData `RTTI Type Descriptor'
	DD	00H
	DB	'.?AVCHighLowPtData@@', 00H
data$rs	ENDS
;	COMDAT ??_R4CHighLowPtData@@6B@
rdata$r	SEGMENT
??_R4CHighLowPtData@@6B@ DD 00H				; CHighLowPtData::`RTTI Complete Object Locator'
	DD	00H
	DD	00H
	DD	FLAT:??_R0?AVCHighLowPtData@@@8
	DD	FLAT:??_R3CHighLowPtData@@8
rdata$r	ENDS
;	COMDAT ??_7CCandlePatternPosInfo@@6B@
CONST	SEGMENT
??_7CCandlePatternPosInfo@@6B@ DD FLAT:??_R4CCandlePatternPosInfo@@6B@ ; CCandlePatternPosInfo::`vftable'
	DD	FLAT:?GetRuntimeClass@CObject@@UBEPAUCRuntimeClass@@XZ
	DD	FLAT:??_ECCandlePatternPosInfo@@UAEPAXI@Z
	DD	FLAT:?Serialize@CObject@@UAEXAAVCArchive@@@Z
	DD	FLAT:?AssertValid@CObject@@UBEXXZ
	DD	FLAT:?Dump@CObject@@UBEXAAVCDumpContext@@@Z
CONST	ENDS
;	COMDAT ??_7CCandlePatternData@@6B@
CONST	SEGMENT
??_7CCandlePatternData@@6B@ DD FLAT:??_R4CCandlePatternData@@6B@ ; CCandlePatternData::`vftable'
	DD	FLAT:?GetRuntimeClass@CObject@@UBEPAUCRuntimeClass@@XZ
	DD	FLAT:??_ECCandlePatternData@@UAEPAXI@Z
	DD	FLAT:?Serialize@CObject@@UAEXAAVCArchive@@@Z
	DD	FLAT:?AssertValid@CObject@@UBEXXZ
	DD	FLAT:?Dump@CObject@@UBEXAAVCDumpContext@@@Z
CONST	ENDS
;	COMDAT ??_7CSelPatternData4Draw@@6B@
CONST	SEGMENT
??_7CSelPatternData4Draw@@6B@ DD FLAT:??_R4CSelPatternData4Draw@@6B@ ; CSelPatternData4Draw::`vftable'
	DD	FLAT:?GetRuntimeClass@CObject@@UBEPAUCRuntimeClass@@XZ
	DD	FLAT:??_ECSelPatternData4Draw@@UAEPAXI@Z
	DD	FLAT:?Serialize@CObject@@UAEXAAVCArchive@@@Z
	DD	FLAT:?AssertValid@CObject@@UBEXXZ
	DD	FLAT:?Dump@CObject@@UBEXAAVCDumpContext@@@Z
CONST	ENDS
;	COMDAT ??_7CPatternEnvData@@6B@
CONST	SEGMENT
??_7CPatternEnvData@@6B@ DD FLAT:??_R4CPatternEnvData@@6B@ ; CPatternEnvData::`vftable'
	DD	FLAT:?GetRuntimeClass@CObject@@UBEPAUCRuntimeClass@@XZ
	DD	FLAT:??_ECPatternEnvData@@UAEPAXI@Z
	DD	FLAT:?Serialize@CObject@@UAEXAAVCArchive@@@Z
	DD	FLAT:?AssertValid@CObject@@UBEXXZ
	DD	FLAT:?Dump@CObject@@UBEXAAVCDumpContext@@@Z
CONST	ENDS
;	COMDAT ??_7?$CArray@HH@@6B@
CONST	SEGMENT
??_7?$CArray@HH@@6B@ DD FLAT:??_R4?$CArray@HH@@6B@	; CArray<int,int>::`vftable'
	DD	FLAT:?GetRuntimeClass@CObject@@UBEPAUCRuntimeClass@@XZ
	DD	FLAT:??_E?$CArray@HH@@UAEPAXI@Z
	DD	FLAT:?Serialize@?$CArray@HH@@UAEXAAVCArchive@@@Z
	DD	FLAT:?AssertValid@CObject@@UBEXXZ
	DD	FLAT:?Dump@CObject@@UBEXAAVCDumpContext@@@Z
CONST	ENDS
;	COMDAT ??_7CLineDrawData@@6B@
CONST	SEGMENT
??_7CLineDrawData@@6B@ DD FLAT:??_R4CLineDrawData@@6B@	; CLineDrawData::`vftable'
	DD	FLAT:?GetRuntimeClass@CObject@@UBEPAUCRuntimeClass@@XZ
	DD	FLAT:??_ECLineDrawData@@UAEPAXI@Z
	DD	FLAT:?Serialize@CObject@@UAEXAAVCArchive@@@Z
	DD	FLAT:?AssertValid@CObject@@UBEXXZ
	DD	FLAT:?Dump@CObject@@UBEXAAVCDumpContext@@@Z
CONST	ENDS
;	COMDAT ??_7CWavePatternData@@6B@
CONST	SEGMENT
??_7CWavePatternData@@6B@ DD FLAT:??_R4CWavePatternData@@6B@ ; CWavePatternData::`vftable'
	DD	FLAT:?GetRuntimeClass@CObject@@UBEPAUCRuntimeClass@@XZ
	DD	FLAT:??_ECWavePatternData@@UAEPAXI@Z
	DD	FLAT:?Serialize@CObject@@UAEXAAVCArchive@@@Z
	DD	FLAT:?AssertValid@CObject@@UBEXXZ
	DD	FLAT:?Dump@CObject@@UBEXAAVCDumpContext@@@Z
CONST	ENDS
;	COMDAT ??_7CRegistNSupportData@@6B@
CONST	SEGMENT
??_7CRegistNSupportData@@6B@ DD FLAT:??_R4CRegistNSupportData@@6B@ ; CRegistNSupportData::`vftable'
	DD	FLAT:?GetRuntimeClass@CObject@@UBEPAUCRuntimeClass@@XZ
	DD	FLAT:??_ECRegistNSupportData@@UAEPAXI@Z
	DD	FLAT:?Serialize@CObject@@UAEXAAVCArchive@@@Z
	DD	FLAT:?AssertValid@CObject@@UBEXXZ
	DD	FLAT:?Dump@CObject@@UBEXAAVCDumpContext@@@Z
CONST	ENDS
;	COMDAT ??_7CMAData@@6B@
CONST	SEGMENT
??_7CMAData@@6B@ DD FLAT:??_R4CMAData@@6B@		; CMAData::`vftable'
	DD	FLAT:?GetRuntimeClass@CObject@@UBEPAUCRuntimeClass@@XZ
	DD	FLAT:??_ECMAData@@UAEPAXI@Z
	DD	FLAT:?Serialize@CObject@@UAEXAAVCArchive@@@Z
	DD	FLAT:?AssertValid@CObject@@UBEXXZ
	DD	FLAT:?Dump@CObject@@UBEXAAVCDumpContext@@@Z
CONST	ENDS
;	COMDAT ??_7CHighLowPtData@@6B@
CONST	SEGMENT
??_7CHighLowPtData@@6B@ DD FLAT:??_R4CHighLowPtData@@6B@ ; CHighLowPtData::`vftable'
	DD	FLAT:?GetRuntimeClass@CObject@@UBEPAUCRuntimeClass@@XZ
	DD	FLAT:??_ECHighLowPtData@@UAEPAXI@Z
	DD	FLAT:?Serialize@CObject@@UAEXAAVCArchive@@@Z
	DD	FLAT:?AssertValid@CObject@@UBEXXZ
	DD	FLAT:?Dump@CObject@@UBEXAAVCDumpContext@@@Z
CONST	ENDS
;	COMDAT ??_R1A@?0A@EA@CObject@@8
rdata$r	SEGMENT
??_R1A@?0A@EA@CObject@@8 DD FLAT:??_R0?AVCObject@@@8	; CObject::`RTTI Base Class Descriptor at (0,-1,0,64)'
	DD	00H
	DD	00H
	DD	0ffffffffH
	DD	00H
	DD	040H
	DD	FLAT:??_R3CObject@@8
rdata$r	ENDS
;	COMDAT ??_R2CObject@@8
rdata$r	SEGMENT
??_R2CObject@@8 DD FLAT:??_R1A@?0A@EA@CObject@@8	; CObject::`RTTI Base Class Array'
rdata$r	ENDS
;	COMDAT ??_R3CObject@@8
rdata$r	SEGMENT
??_R3CObject@@8 DD 00H					; CObject::`RTTI Class Hierarchy Descriptor'
	DD	00H
	DD	01H
	DD	FLAT:??_R2CObject@@8
rdata$r	ENDS
;	COMDAT ??_R0?AVCObject@@@8
data$rs	SEGMENT
??_R0?AVCObject@@@8 DD FLAT:??_7type_info@@6B@		; CObject `RTTI Type Descriptor'
	DD	00H
	DB	'.?AVCObject@@', 00H
data$rs	ENDS
; Function compile flags: /Ogtp
; File C:\Program Files (x86)\Microsoft Visual Studio\2019\Community\VC\Tools\MSVC\14.29.30133\atlmfc\include\afxtempl.h
; File C:\Program Files (x86)\Microsoft Visual Studio\2019\Community\VC\Tools\MSVC\14.29.30133\atlmfc\include\afx.inl
; File C:\Program Files (x86)\Microsoft Visual Studio\2019\Community\VC\Tools\MSVC\14.29.30133\atlmfc\include\afxtempl.h
; File C:\Program Files (x86)\Microsoft Visual Studio\2019\Community\VC\Tools\MSVC\14.29.30133\atlmfc\include\afx.inl
; File C:\Program Files (x86)\Microsoft Visual Studio\2019\Community\VC\Tools\MSVC\14.29.30133\atlmfc\include\afxtempl.h
; File C:\Program Files (x86)\Microsoft Visual Studio\2019\Community\VC\Tools\MSVC\14.29.30133\atlmfc\include\afx.inl
; File C:\Program Files (x86)\Microsoft Visual Studio\2019\Community\VC\Tools\MSVC\14.29.30133\atlmfc\include\afxtempl.h
;	COMDAT ??$SerializeElements@H@@YGXAAVCArchive@@PAHH@Z
_TEXT	SEGMENT
_ar$ = 8						; size = 4
_pElements$ = 12					; size = 4
_nCount$ = 16						; size = 4
??$SerializeElements@H@@YGXAAVCArchive@@PAHH@Z PROC	; SerializeElements<int>, COMDAT

; 67   : {

  00000	55		 push	 ebp
  00001	8b ec		 mov	 ebp, esp

; 68   : 	ENSURE(nCount == 0 || pElements != NULL);

  00003	8b 4d 0c	 mov	 ecx, DWORD PTR _pElements$[ebp]
  00006	53		 push	 ebx
  00007	56		 push	 esi
  00008	8b 75 10	 mov	 esi, DWORD PTR _nCount$[ebp]
  0000b	57		 push	 edi
  0000c	85 f6		 test	 esi, esi
  0000e	74 08		 je	 SHORT $LN2@SerializeE
  00010	85 c9		 test	 ecx, ecx
  00012	0f 84 89 00 00
	00		 je	 $LN34@SerializeE
$LN2@SerializeE:
; File C:\Program Files (x86)\Microsoft Visual Studio\2019\Community\VC\Tools\MSVC\14.29.30133\atlmfc\include\afx.inl

; 212  : 	{ return (m_nMode & CArchive::load) == 0; }

  00018	8b 55 08	 mov	 edx, DWORD PTR _ar$[ebp]
  0001b	8b 42 18	 mov	 eax, DWORD PTR [edx+24]
  0001e	f7 d0		 not	 eax
  00020	a8 01		 test	 al, 1
; File C:\Program Files (x86)\Microsoft Visual Studio\2019\Community\VC\Tools\MSVC\14.29.30133\atlmfc\include\afxtempl.h

; 73   : 	if (ar.IsStoring())

  00022	74 3c		 je	 SHORT $LN10@SerializeE

; 74   : 	{
; 75   : 		TYPE* pData;
; 76   : 		UINT_PTR nElementsLeft;
; 77   : 
; 78   : 		nElementsLeft = nCount;
; 79   : 		pData = pElements;
; 80   : 		while( nElementsLeft > 0 )

  00024	85 f6		 test	 esi, esi
  00026	74 31		 je	 SHORT $LN8@SerializeE
  00028	0f 1f 84 00 00
	00 00 00	 npad	 8
$LL5@SerializeE:

; 81   : 		{
; 82   : 			UINT nElementsToWrite;
; 83   : 
; 84   : 			nElementsToWrite = UINT(__min(nElementsLeft, INT_MAX/sizeof(TYPE)));

  00030	bb ff ff ff 1f	 mov	 ebx, 536870911		; 1fffffffH
  00035	3b f3		 cmp	 esi, ebx
  00037	0f 42 de	 cmovb	 ebx, esi

; 85   : 			ar.Write(pData, nElementsToWrite*sizeof(TYPE));

  0003a	8d 3c 9d 00 00
	00 00		 lea	 edi, DWORD PTR [ebx*4]
  00041	57		 push	 edi
  00042	51		 push	 ecx
  00043	8b ca		 mov	 ecx, edx
  00045	e8 00 00 00 00	 call	 ?Write@CArchive@@QAEXPBXI@Z ; CArchive::Write

; 86   : 			nElementsLeft -= nElementsToWrite;
; 87   : 			pData += nElementsToWrite;

  0004a	8b 4d 0c	 mov	 ecx, DWORD PTR _pElements$[ebp]
  0004d	8b 55 08	 mov	 edx, DWORD PTR _ar$[ebp]
  00050	03 cf		 add	 ecx, edi
  00052	89 4d 0c	 mov	 DWORD PTR _pElements$[ebp], ecx
  00055	2b f3		 sub	 esi, ebx
  00057	75 d7		 jne	 SHORT $LL5@SerializeE
$LN8@SerializeE:
  00059	5f		 pop	 edi

; 105  : 		}
; 106  : 	}
; 107  : }

  0005a	5e		 pop	 esi
  0005b	5b		 pop	 ebx
  0005c	5d		 pop	 ebp
  0005d	c2 0c 00	 ret	 12			; 0000000cH
$LN10@SerializeE:

; 97   : 		while( nElementsLeft > 0 )

  00060	85 f6		 test	 esi, esi
  00062	74 f5		 je	 SHORT $LN8@SerializeE
$LL7@SerializeE:

; 98   : 		{
; 99   : 			UINT nElementsToRead;
; 100  : 
; 101  : 			nElementsToRead = UINT(__min(nElementsLeft, INT_MAX/sizeof(TYPE)));

  00064	bf ff ff ff 1f	 mov	 edi, 536870911		; 1fffffffH
  00069	3b f7		 cmp	 esi, edi
  0006b	0f 42 fe	 cmovb	 edi, esi

; 102  : 			ar.EnsureRead(pData, nElementsToRead*sizeof(TYPE));

  0006e	8d 1c bd 00 00
	00 00		 lea	 ebx, DWORD PTR [edi*4]
; File C:\Program Files (x86)\Microsoft Visual Studio\2019\Community\VC\Tools\MSVC\14.29.30133\atlmfc\include\afx.inl

; 399  : 	UINT nRead=Read(lpBuf, nCount);

  00075	53		 push	 ebx
  00076	51		 push	 ecx
  00077	8b ca		 mov	 ecx, edx
  00079	e8 00 00 00 00	 call	 ?Read@CArchive@@QAEIPAXI@Z ; CArchive::Read

; 400  : 	if(nRead!=nCount)

  0007e	3b c3		 cmp	 eax, ebx
  00080	75 16		 jne	 SHORT $LN23@SerializeE
; File C:\Program Files (x86)\Microsoft Visual Studio\2019\Community\VC\Tools\MSVC\14.29.30133\atlmfc\include\afxtempl.h

; 97   : 		while( nElementsLeft > 0 )

  00082	8b 4d 0c	 mov	 ecx, DWORD PTR _pElements$[ebp]
  00085	8b 55 08	 mov	 edx, DWORD PTR _ar$[ebp]

; 103  : 			nElementsLeft -= nElementsToRead;
; 104  : 			pData += nElementsToRead;

  00088	03 cb		 add	 ecx, ebx
  0008a	89 4d 0c	 mov	 DWORD PTR _pElements$[ebp], ecx
  0008d	2b f7		 sub	 esi, edi
  0008f	75 d3		 jne	 SHORT $LL7@SerializeE

; 105  : 		}
; 106  : 	}
; 107  : }

  00091	5f		 pop	 edi
  00092	5e		 pop	 esi
  00093	5b		 pop	 ebx
  00094	5d		 pop	 ebp
  00095	c2 0c 00	 ret	 12			; 0000000cH
$LN23@SerializeE:
; File C:\Program Files (x86)\Microsoft Visual Studio\2019\Community\VC\Tools\MSVC\14.29.30133\atlmfc\include\afx.inl

; 402  : 		AfxThrowArchiveException(CArchiveException::endOfFile);

  00098	6a 00		 push	 0
  0009a	6a 03		 push	 3
  0009c	e8 00 00 00 00	 call	 ?AfxThrowArchiveException@@YGXHPBD@Z ; AfxThrowArchiveException
$LN34@SerializeE:
; File C:\Program Files (x86)\Microsoft Visual Studio\2019\Community\VC\Tools\MSVC\14.29.30133\atlmfc\include\afxtempl.h

; 68   : 	ENSURE(nCount == 0 || pElements != NULL);

  000a1	e8 00 00 00 00	 call	 ?AfxThrowInvalidArgException@@YGXXZ ; AfxThrowInvalidArgException
$LN32@SerializeE:
  000a6	cc		 int	 3
??$SerializeElements@H@@YGXAAVCArchive@@PAHH@Z ENDP	; SerializeElements<int>
_TEXT	ENDS
; Function compile flags: /Ogtp
; File C:\Program Files (x86)\Microsoft Visual Studio\2019\Community\VC\Tools\MSVC\14.29.30133\atlmfc\include\afx.inl
;	COMDAT ??_GCCandlePatternPosInfo@@UAEPAXI@Z
_TEXT	SEGMENT
___flags$ = 8						; size = 4
??_GCCandlePatternPosInfo@@UAEPAXI@Z PROC		; CCandlePatternPosInfo::`scalar deleting destructor', COMDAT
; _this$ = ecx
  00000	55		 push	 ebp
  00001	8b ec		 mov	 ebp, esp
  00003	8b 45 08	 mov	 eax, DWORD PTR ___flags$[ebp]
  00006	56		 push	 esi
  00007	8b f1		 mov	 esi, ecx
  00009	c7 06 00 00 00
	00		 mov	 DWORD PTR [esi], OFFSET ??_7CCandlePatternPosInfo@@6B@
  0000f	a8 01		 test	 al, 1
  00011	74 1f		 je	 SHORT $LN9@scalar
  00013	a8 04		 test	 al, 4
  00015	75 10		 jne	 SHORT $LN3@scalar

; 112  : 	{ ::operator delete(p); }

  00017	56		 push	 esi
  00018	e8 00 00 00 00	 call	 ??3@YAXPAX@Z		; operator delete
  0001d	83 c4 04	 add	 esp, 4
  00020	8b c6		 mov	 eax, esi
  00022	5e		 pop	 esi
  00023	5d		 pop	 ebp
  00024	c2 04 00	 ret	 4
$LN3@scalar:
  00027	6a 18		 push	 24			; 00000018H
  00029	56		 push	 esi
  0002a	e8 00 00 00 00	 call	 ?__global_delete@@YAXPAXI@Z ; __global_delete
  0002f	83 c4 08	 add	 esp, 8
$LN9@scalar:
  00032	8b c6		 mov	 eax, esi
  00034	5e		 pop	 esi
  00035	5d		 pop	 ebp
  00036	c2 04 00	 ret	 4
??_GCCandlePatternPosInfo@@UAEPAXI@Z ENDP		; CCandlePatternPosInfo::`scalar deleting destructor'
_TEXT	ENDS
; Function compile flags: /Ogtp
; File D:\git\src\IBK\IBK_DRFN\ProjSrc\SrcChartEx\ChartAddIn\ChartPatternAddIn\PatternDBItems.cpp
;	COMDAT ??1CCandlePatternPosInfo@@UAE@XZ
_TEXT	SEGMENT
??1CCandlePatternPosInfo@@UAE@XZ PROC			; CCandlePatternPosInfo::~CCandlePatternPosInfo, COMDAT
; _this$ = ecx

; 226  : {

  00000	c7 01 00 00 00
	00		 mov	 DWORD PTR [ecx], OFFSET ??_7CCandlePatternPosInfo@@6B@

; 227  : }

  00006	c3		 ret	 0
??1CCandlePatternPosInfo@@UAE@XZ ENDP			; CCandlePatternPosInfo::~CCandlePatternPosInfo
_TEXT	ENDS
; Function compile flags: /Ogtp
; File D:\git\src\IBK\IBK_DRFN\ProjSrc\SrcChartEx\ChartAddIn\ChartPatternAddIn\PatternDBItems.cpp
; File C:\Program Files (x86)\Microsoft Visual Studio\2019\Community\VC\Tools\MSVC\14.29.30133\atlmfc\include\atltypes.h
; File D:\git\src\IBK\IBK_DRFN\ProjSrc\SrcChartEx\ChartAddIn\ChartPatternAddIn\PatternDBItems.cpp
;	COMDAT ??0CCandlePatternPosInfo@@QAE@XZ
_TEXT	SEGMENT
??0CCandlePatternPosInfo@@QAE@XZ PROC			; CCandlePatternPosInfo::CCandlePatternPosInfo, COMDAT
; _this$ = ecx

; 223  : {

  00000	c7 01 00 00 00
	00		 mov	 DWORD PTR [ecx], OFFSET ??_7CCandlePatternPosInfo@@6B@

; 224  : }

  00006	8b c1		 mov	 eax, ecx
; File C:\Program Files (x86)\Microsoft Visual Studio\2019\Community\VC\Tools\MSVC\14.29.30133\atlmfc\include\atltypes.h

; 528  : 	left = 0;

  00008	c7 41 04 00 00
	00 00		 mov	 DWORD PTR [ecx+4], 0

; 529  : 	top = 0;

  0000f	c7 41 08 00 00
	00 00		 mov	 DWORD PTR [ecx+8], 0

; 530  : 	right = 0;

  00016	c7 41 0c 00 00
	00 00		 mov	 DWORD PTR [ecx+12], 0

; 531  : 	bottom = 0;

  0001d	c7 41 10 00 00
	00 00		 mov	 DWORD PTR [ecx+16], 0
; File D:\git\src\IBK\IBK_DRFN\ProjSrc\SrcChartEx\ChartAddIn\ChartPatternAddIn\PatternDBItems.cpp

; 224  : }

  00024	c3		 ret	 0
??0CCandlePatternPosInfo@@QAE@XZ ENDP			; CCandlePatternPosInfo::CCandlePatternPosInfo
_TEXT	ENDS
; Function compile flags: /Ogtp
; File C:\Program Files (x86)\Microsoft Visual Studio\2019\Community\VC\Tools\MSVC\14.29.30133\atlmfc\include\afx.inl
;	COMDAT ??_GCCandlePatternData@@UAEPAXI@Z
_TEXT	SEGMENT
___flags$ = 8						; size = 4
??_GCCandlePatternData@@UAEPAXI@Z PROC			; CCandlePatternData::`scalar deleting destructor', COMDAT
; _this$ = ecx
  00000	55		 push	 ebp
  00001	8b ec		 mov	 ebp, esp
  00003	8b 45 08	 mov	 eax, DWORD PTR ___flags$[ebp]
  00006	56		 push	 esi
  00007	8b f1		 mov	 esi, ecx
  00009	c7 06 00 00 00
	00		 mov	 DWORD PTR [esi], OFFSET ??_7CCandlePatternData@@6B@
  0000f	a8 01		 test	 al, 1
  00011	74 1f		 je	 SHORT $LN9@scalar
  00013	a8 04		 test	 al, 4
  00015	75 10		 jne	 SHORT $LN3@scalar

; 112  : 	{ ::operator delete(p); }

  00017	56		 push	 esi
  00018	e8 00 00 00 00	 call	 ??3@YAXPAX@Z		; operator delete
  0001d	83 c4 04	 add	 esp, 4
  00020	8b c6		 mov	 eax, esi
  00022	5e		 pop	 esi
  00023	5d		 pop	 ebp
  00024	c2 04 00	 ret	 4
$LN3@scalar:
  00027	6a 60		 push	 96			; 00000060H
  00029	56		 push	 esi
  0002a	e8 00 00 00 00	 call	 ?__global_delete@@YAXPAXI@Z ; __global_delete
  0002f	83 c4 08	 add	 esp, 8
$LN9@scalar:
  00032	8b c6		 mov	 eax, esi
  00034	5e		 pop	 esi
  00035	5d		 pop	 ebp
  00036	c2 04 00	 ret	 4
??_GCCandlePatternData@@UAEPAXI@Z ENDP			; CCandlePatternData::`scalar deleting destructor'
_TEXT	ENDS
; Function compile flags: /Ogtp
; File D:\git\src\IBK\IBK_DRFN\ProjSrc\SrcChartEx\ChartAddIn\ChartPatternAddIn\PatternDBItems.cpp
;	COMDAT ??1CCandlePatternData@@UAE@XZ
_TEXT	SEGMENT
??1CCandlePatternData@@UAE@XZ PROC			; CCandlePatternData::~CCandlePatternData, COMDAT
; _this$ = ecx

; 215  : {

  00000	c7 01 00 00 00
	00		 mov	 DWORD PTR [ecx], OFFSET ??_7CCandlePatternData@@6B@

; 216  : }

  00006	c3		 ret	 0
??1CCandlePatternData@@UAE@XZ ENDP			; CCandlePatternData::~CCandlePatternData
_TEXT	ENDS
; Function compile flags: /Ogtp
; File D:\git\src\IBK\IBK_DRFN\ProjSrc\SrcChartEx\ChartAddIn\ChartPatternAddIn\PatternDBItems.cpp
;	COMDAT ??0CCandlePatternData@@QAE@XZ
_TEXT	SEGMENT
??0CCandlePatternData@@QAE@XZ PROC			; CCandlePatternData::CCandlePatternData, COMDAT
; _this$ = ecx

; 205  : {

  00000	56		 push	 esi
  00001	8b f1		 mov	 esi, ecx
  00003	0f 57 c0	 xorps	 xmm0, xmm0

; 206  : 	m_dTime				= ZERO;			// Time
; 207  : 	m_nCandlePtnType	= ZERO;			// Candle Pattern Type
; 208  : 	
; 209  : 	m_nStartPos			= ZERO;
; 210  : 	m_nEndPos			= ZERO;
; 211  : 
; 212  : 	memset( (void*)&m_dClose, ZERO, sizeof(m_dClose));	// Close Price for Accumulation rise and fall rate

  00006	6a 30		 push	 48			; 00000030H
  00008	6a 00		 push	 0
  0000a	8d 46 20	 lea	 eax, DWORD PTR [esi+32]
  0000d	c7 06 00 00 00
	00		 mov	 DWORD PTR [esi], OFFSET ??_7CCandlePatternData@@6B@
  00013	50		 push	 eax
  00014	f2 0f 11 46 08	 movsd	 QWORD PTR [esi+8], xmm0
  00019	c7 46 10 00 00
	00 00		 mov	 DWORD PTR [esi+16], 0
  00020	c7 46 14 00 00
	00 00		 mov	 DWORD PTR [esi+20], 0
  00027	c7 46 18 00 00
	00 00		 mov	 DWORD PTR [esi+24], 0
  0002e	e8 00 00 00 00	 call	 _memset
  00033	83 c4 0c	 add	 esp, 12			; 0000000cH

; 213  : }

  00036	8b c6		 mov	 eax, esi
  00038	5e		 pop	 esi
  00039	c3		 ret	 0
??0CCandlePatternData@@QAE@XZ ENDP			; CCandlePatternData::CCandlePatternData
_TEXT	ENDS
; Function compile flags: /Ogtp
; File C:\Program Files (x86)\Microsoft Visual Studio\2019\Community\VC\Tools\MSVC\14.29.30133\atlmfc\include\afx.inl
;	COMDAT ??_GCSelPatternData4Draw@@UAEPAXI@Z
_TEXT	SEGMENT
___flags$ = 8						; size = 4
??_GCSelPatternData4Draw@@UAEPAXI@Z PROC		; CSelPatternData4Draw::`scalar deleting destructor', COMDAT
; _this$ = ecx
  00000	55		 push	 ebp
  00001	8b ec		 mov	 ebp, esp
  00003	8b 45 08	 mov	 eax, DWORD PTR ___flags$[ebp]
  00006	56		 push	 esi
  00007	8b f1		 mov	 esi, ecx
  00009	c7 06 00 00 00
	00		 mov	 DWORD PTR [esi], OFFSET ??_7CSelPatternData4Draw@@6B@
  0000f	a8 01		 test	 al, 1
  00011	74 1f		 je	 SHORT $LN9@scalar
  00013	a8 04		 test	 al, 4
  00015	75 10		 jne	 SHORT $LN3@scalar

; 112  : 	{ ::operator delete(p); }

  00017	56		 push	 esi
  00018	e8 00 00 00 00	 call	 ??3@YAXPAX@Z		; operator delete
  0001d	83 c4 04	 add	 esp, 4
  00020	8b c6		 mov	 eax, esi
  00022	5e		 pop	 esi
  00023	5d		 pop	 ebp
  00024	c2 04 00	 ret	 4
$LN3@scalar:
  00027	6a 50		 push	 80			; 00000050H
  00029	56		 push	 esi
  0002a	e8 00 00 00 00	 call	 ?__global_delete@@YAXPAXI@Z ; __global_delete
  0002f	83 c4 08	 add	 esp, 8
$LN9@scalar:
  00032	8b c6		 mov	 eax, esi
  00034	5e		 pop	 esi
  00035	5d		 pop	 ebp
  00036	c2 04 00	 ret	 4
??_GCSelPatternData4Draw@@UAEPAXI@Z ENDP		; CSelPatternData4Draw::`scalar deleting destructor'
_TEXT	ENDS
; Function compile flags: /Ogtp
; File D:\git\src\IBK\IBK_DRFN\ProjSrc\SrcChartEx\ChartAddIn\ChartPatternAddIn\PatternDBItems.cpp
;	COMDAT ??1CSelPatternData4Draw@@UAE@XZ
_TEXT	SEGMENT
??1CSelPatternData4Draw@@UAE@XZ PROC			; CSelPatternData4Draw::~CSelPatternData4Draw, COMDAT
; _this$ = ecx

; 197  : {

  00000	c7 01 00 00 00
	00		 mov	 DWORD PTR [ecx], OFFSET ??_7CSelPatternData4Draw@@6B@

; 198  : }

  00006	c3		 ret	 0
??1CSelPatternData4Draw@@UAE@XZ ENDP			; CSelPatternData4Draw::~CSelPatternData4Draw
_TEXT	ENDS
; Function compile flags: /Ogtp
; File D:\git\src\IBK\IBK_DRFN\ProjSrc\SrcChartEx\ChartAddIn\ChartPatternAddIn\PatternDBItems.cpp
;	COMDAT ??0CSelPatternData4Draw@@QAE@XZ
_TEXT	SEGMENT
??0CSelPatternData4Draw@@QAE@XZ PROC			; CSelPatternData4Draw::CSelPatternData4Draw, COMDAT
; _this$ = ecx

; 170  : {

  00000	c7 01 00 00 00
	00		 mov	 DWORD PTR [ecx], OFFSET ??_7CSelPatternData4Draw@@6B@

; 171  : 	m_bDraw			= FALSE;
; 172  : 	m_nPatternType	= ZERO;				// Pattern Type
; 173  : 
; 174  : 	m_nStartSeq		= ZERO;
; 175  : 	m_nEndSeq		= ZERO;
; 176  : 
; 177  : 	m_nX1			= ZERO;
; 178  : 	m_nY1			= ZERO;
; 179  : 	m_nX2			= ZERO;
; 180  : 	m_nY2			= ZERO;
; 181  : 
; 182  : 	m_nX3			= ZERO;
; 183  : 	m_nY3			= ZERO;
; 184  : 	m_nX4			= ZERO;
; 185  : 	m_nY4			= ZERO;
; 186  : 
; 187  : 	m_nNeckXPos1	= ZERO;
; 188  : 	m_nNeckYPos1	= ZERO;
; 189  : 	m_nNeckXPos2	= ZERO;
; 190  : 	m_nNeckYPos2	= ZERO;
; 191  : 
; 192  : 	m_nNeckXLength	= ZERO;
; 193  : 	m_nNeckYLength1	= ZERO;
; 194  : 	m_nNeckYLength2	= ZERO;
; 195  : }

  00006	8b c1		 mov	 eax, ecx
  00008	c7 41 04 00 00
	00 00		 mov	 DWORD PTR [ecx+4], 0
  0000f	c7 41 08 00 00
	00 00		 mov	 DWORD PTR [ecx+8], 0
  00016	c7 41 0c 00 00
	00 00		 mov	 DWORD PTR [ecx+12], 0
  0001d	c7 41 10 00 00
	00 00		 mov	 DWORD PTR [ecx+16], 0
  00024	c7 41 14 00 00
	00 00		 mov	 DWORD PTR [ecx+20], 0
  0002b	c7 41 18 00 00
	00 00		 mov	 DWORD PTR [ecx+24], 0
  00032	c7 41 1c 00 00
	00 00		 mov	 DWORD PTR [ecx+28], 0
  00039	c7 41 20 00 00
	00 00		 mov	 DWORD PTR [ecx+32], 0
  00040	c7 41 24 00 00
	00 00		 mov	 DWORD PTR [ecx+36], 0
  00047	c7 41 28 00 00
	00 00		 mov	 DWORD PTR [ecx+40], 0
  0004e	c7 41 2c 00 00
	00 00		 mov	 DWORD PTR [ecx+44], 0
  00055	c7 41 30 00 00
	00 00		 mov	 DWORD PTR [ecx+48], 0
  0005c	c7 41 34 00 00
	00 00		 mov	 DWORD PTR [ecx+52], 0
  00063	c7 41 38 00 00
	00 00		 mov	 DWORD PTR [ecx+56], 0
  0006a	c7 41 3c 00 00
	00 00		 mov	 DWORD PTR [ecx+60], 0
  00071	c7 41 40 00 00
	00 00		 mov	 DWORD PTR [ecx+64], 0
  00078	c7 41 44 00 00
	00 00		 mov	 DWORD PTR [ecx+68], 0
  0007f	c7 41 48 00 00
	00 00		 mov	 DWORD PTR [ecx+72], 0
  00086	c7 41 4c 00 00
	00 00		 mov	 DWORD PTR [ecx+76], 0
  0008d	c3		 ret	 0
??0CSelPatternData4Draw@@QAE@XZ ENDP			; CSelPatternData4Draw::CSelPatternData4Draw
_TEXT	ENDS
; Function compile flags: /Ogtp
; File D:\git\src\IBK\IBK_DRFN\ProjSrc\SrcChartEx\ChartAddIn\ChartPatternAddIn\PatternDBItems.cpp
; File C:\Program Files (x86)\Microsoft Visual Studio\2019\Community\VC\Tools\MSVC\14.29.30133\atlmfc\include\afxtempl.h
; File D:\git\src\IBK\IBK_DRFN\ProjSrc\SrcChartEx\ChartAddIn\ChartPatternAddIn\PatternDBItems.cpp
; File C:\Program Files (x86)\Microsoft Visual Studio\2019\Community\VC\Tools\MSVC\14.29.30133\atlmfc\include\afx.inl
;	COMDAT ??_GCPatternEnvData@@UAEPAXI@Z
_TEXT	SEGMENT
___flags$ = 8						; size = 4
??_GCPatternEnvData@@UAEPAXI@Z PROC			; CPatternEnvData::`scalar deleting destructor', COMDAT
; _this$ = ecx
  00000	55		 push	 ebp
  00001	8b ec		 mov	 ebp, esp
; File D:\git\src\IBK\IBK_DRFN\ProjSrc\SrcChartEx\ChartAddIn\ChartPatternAddIn\PatternDBItems.cpp

; 152  : {

  00003	56		 push	 esi
  00004	8b f1		 mov	 esi, ecx
  00006	c7 06 00 00 00
	00		 mov	 DWORD PTR [esi], OFFSET ??_7CPatternEnvData@@6B@
; File C:\Program Files (x86)\Microsoft Visual Studio\2019\Community\VC\Tools\MSVC\14.29.30133\atlmfc\include\afxtempl.h

; 358  : 	if (m_pData != NULL)

  0000c	8b 86 90 00 00
	00		 mov	 eax, DWORD PTR [esi+144]
  00012	c7 86 8c 00 00
	00 00 00 00 00	 mov	 DWORD PTR [esi+140], OFFSET ??_7?$CArray@HH@@6B@
  0001c	85 c0		 test	 eax, eax
  0001e	74 13		 je	 SHORT $LN14@scalar

; 359  : 	{
; 360  : 		for( int i = 0; i < m_nSize; i++ )

  00020	83 be 94 00 00
	00 00		 cmp	 DWORD PTR [esi+148], 0
  00027	0f 4f c0	 cmovg	 eax, eax

; 361  : 			(m_pData + i)->~TYPE();
; 362  : 		delete[] (BYTE*)m_pData;

  0002a	50		 push	 eax
  0002b	e8 00 00 00 00	 call	 ??_V@YAXPAX@Z		; operator delete[]
  00030	83 c4 04	 add	 esp, 4
$LN14@scalar:
; File D:\git\src\IBK\IBK_DRFN\ProjSrc\SrcChartEx\ChartAddIn\ChartPatternAddIn\PatternDBItems.cpp

; 153  : }

  00033	8b 45 08	 mov	 eax, DWORD PTR ___flags$[ebp]
  00036	c7 46 7c 00 00
	00 00		 mov	 DWORD PTR [esi+124], OFFSET ??_7CLineDrawData@@6B@
  0003d	c7 46 70 00 00
	00 00		 mov	 DWORD PTR [esi+112], OFFSET ??_7CLineDrawData@@6B@
  00044	c7 46 64 00 00
	00 00		 mov	 DWORD PTR [esi+100], OFFSET ??_7CLineDrawData@@6B@
  0004b	c7 46 58 00 00
	00 00		 mov	 DWORD PTR [esi+88], OFFSET ??_7CLineDrawData@@6B@
  00052	c7 46 4c 00 00
	00 00		 mov	 DWORD PTR [esi+76], OFFSET ??_7CLineDrawData@@6B@
  00059	a8 01		 test	 al, 1
  0005b	74 22		 je	 SHORT $LN23@scalar
  0005d	a8 04		 test	 al, 4
  0005f	75 10		 jne	 SHORT $LN3@scalar
; File C:\Program Files (x86)\Microsoft Visual Studio\2019\Community\VC\Tools\MSVC\14.29.30133\atlmfc\include\afx.inl

; 112  : 	{ ::operator delete(p); }

  00061	56		 push	 esi
  00062	e8 00 00 00 00	 call	 ??3@YAXPAX@Z		; operator delete
  00067	83 c4 04	 add	 esp, 4
  0006a	8b c6		 mov	 eax, esi
  0006c	5e		 pop	 esi
  0006d	5d		 pop	 ebp
  0006e	c2 04 00	 ret	 4
$LN3@scalar:
  00071	68 a0 00 00 00	 push	 160			; 000000a0H
  00076	56		 push	 esi
  00077	e8 00 00 00 00	 call	 ?__global_delete@@YAXPAXI@Z ; __global_delete
  0007c	83 c4 08	 add	 esp, 8
$LN23@scalar:
  0007f	8b c6		 mov	 eax, esi
  00081	5e		 pop	 esi
  00082	5d		 pop	 ebp
  00083	c2 04 00	 ret	 4
??_GCPatternEnvData@@UAEPAXI@Z ENDP			; CPatternEnvData::`scalar deleting destructor'
_TEXT	ENDS
; Function compile flags: /Ogtp
; File C:\Program Files (x86)\Microsoft Visual Studio\2019\Community\VC\Tools\MSVC\14.29.30133\atlmfc\include\afxtempl.h
; File C:\Program Files (x86)\Microsoft Visual Studio\2019\Community\VC\Tools\MSVC\14.29.30133\atlmfc\include\afx.inl
;	COMDAT ??_G?$CArray@HH@@UAEPAXI@Z
_TEXT	SEGMENT
___flags$ = 8						; size = 4
??_G?$CArray@HH@@UAEPAXI@Z PROC				; CArray<int,int>::`scalar deleting destructor', COMDAT
; _this$ = ecx
  00000	55		 push	 ebp
  00001	8b ec		 mov	 ebp, esp
; File C:\Program Files (x86)\Microsoft Visual Studio\2019\Community\VC\Tools\MSVC\14.29.30133\atlmfc\include\afxtempl.h

; 355  : {

  00003	56		 push	 esi
  00004	8b f1		 mov	 esi, ecx

; 356  : 	ASSERT_VALID(this);
; 357  : 
; 358  : 	if (m_pData != NULL)

  00006	8b 46 04	 mov	 eax, DWORD PTR [esi+4]
  00009	c7 06 00 00 00
	00		 mov	 DWORD PTR [esi], OFFSET ??_7?$CArray@HH@@6B@
  0000f	85 c0		 test	 eax, eax
  00011	74 09		 je	 SHORT $LN11@scalar

; 359  : 	{
; 360  : 		for( int i = 0; i < m_nSize; i++ )
; 361  : 			(m_pData + i)->~TYPE();
; 362  : 		delete[] (BYTE*)m_pData;

  00013	50		 push	 eax
  00014	e8 00 00 00 00	 call	 ??_V@YAXPAX@Z		; operator delete[]
  00019	83 c4 04	 add	 esp, 4
$LN11@scalar:
  0001c	8b 45 08	 mov	 eax, DWORD PTR ___flags$[ebp]
  0001f	a8 01		 test	 al, 1
  00021	74 1f		 je	 SHORT $LN20@scalar
  00023	a8 04		 test	 al, 4
  00025	75 10		 jne	 SHORT $LN3@scalar
; File C:\Program Files (x86)\Microsoft Visual Studio\2019\Community\VC\Tools\MSVC\14.29.30133\atlmfc\include\afx.inl

; 112  : 	{ ::operator delete(p); }

  00027	56		 push	 esi
  00028	e8 00 00 00 00	 call	 ??3@YAXPAX@Z		; operator delete
  0002d	83 c4 04	 add	 esp, 4
  00030	8b c6		 mov	 eax, esi
  00032	5e		 pop	 esi
  00033	5d		 pop	 ebp
  00034	c2 04 00	 ret	 4
$LN3@scalar:
  00037	6a 14		 push	 20			; 00000014H
  00039	56		 push	 esi
  0003a	e8 00 00 00 00	 call	 ?__global_delete@@YAXPAXI@Z ; __global_delete
  0003f	83 c4 08	 add	 esp, 8
$LN20@scalar:
  00042	8b c6		 mov	 eax, esi
  00044	5e		 pop	 esi
  00045	5d		 pop	 ebp
  00046	c2 04 00	 ret	 4
??_G?$CArray@HH@@UAEPAXI@Z ENDP				; CArray<int,int>::`scalar deleting destructor'
_TEXT	ENDS
; Function compile flags: /Ogtp
; File C:\Program Files (x86)\Microsoft Visual Studio\2019\Community\VC\Tools\MSVC\14.29.30133\atlmfc\include\afxtempl.h
; File C:\Program Files (x86)\Microsoft Visual Studio\2019\Community\VC\Tools\MSVC\14.29.30133\atlmfc\include\afx.inl
; File C:\Program Files (x86)\Microsoft Visual Studio\2019\Community\VC\Tools\MSVC\14.29.30133\atlmfc\include\afxtempl.h
; File C:\Program Files (x86)\Microsoft Visual Studio\2019\Community\VC\Tools\MSVC\14.29.30133\atlmfc\include\afx.inl
; File C:\Program Files (x86)\Microsoft Visual Studio\2019\Community\VC\Tools\MSVC\14.29.30133\atlmfc\include\afxtempl.h
; File C:\Program Files (x86)\Microsoft Visual Studio\2019\Community\VC\Tools\MSVC\14.29.30133\atlmfc\include\afx.inl
; File C:\Program Files (x86)\Microsoft Visual Studio\2019\Community\VC\Tools\MSVC\14.29.30133\atlmfc\include\afxtempl.h
; File C:\Program Files (x86)\Microsoft Visual Studio\2019\Community\VC\Tools\MSVC\14.29.30133\atlmfc\include\afx.inl
; File C:\Program Files (x86)\Microsoft Visual Studio\2019\Community\VC\Tools\MSVC\14.29.30133\atlmfc\include\afxtempl.h
;	COMDAT ?Serialize@?$CArray@HH@@UAEXAAVCArchive@@@Z
_TEXT	SEGMENT
_pData$1$ = -4						; size = 4
_ar$ = 8						; size = 4
?Serialize@?$CArray@HH@@UAEXAAVCArchive@@@Z PROC	; CArray<int,int>::Serialize, COMDAT
; _this$ = ecx

; 633  : {

  00000	55		 push	 ebp
  00001	8b ec		 mov	 ebp, esp
  00003	51		 push	 ecx
  00004	53		 push	 ebx
  00005	56		 push	 esi
  00006	57		 push	 edi
  00007	8b f9		 mov	 edi, ecx
; File C:\Program Files (x86)\Microsoft Visual Studio\2019\Community\VC\Tools\MSVC\14.29.30133\atlmfc\include\afx.inl

; 212  : 	{ return (m_nMode & CArchive::load) == 0; }

  00009	8b 4d 08	 mov	 ecx, DWORD PTR _ar$[ebp]
  0000c	8b 41 18	 mov	 eax, DWORD PTR [ecx+24]
  0000f	f7 d0		 not	 eax
  00011	a8 01		 test	 al, 1
; File C:\Program Files (x86)\Microsoft Visual Studio\2019\Community\VC\Tools\MSVC\14.29.30133\atlmfc\include\afxtempl.h

; 637  : 	if (ar.IsStoring())

  00013	74 0a		 je	 SHORT $LN2@Serialize

; 638  : 	{
; 639  : 		ar.WriteCount(m_nSize);

  00015	ff 77 08	 push	 DWORD PTR [edi+8]
  00018	e8 00 00 00 00	 call	 ?WriteCount@CArchive@@QAEXK@Z ; CArchive::WriteCount

; 640  : 	}

  0001d	eb 0f		 jmp	 SHORT $LN3@Serialize
$LN2@Serialize:

; 641  : 	else
; 642  : 	{
; 643  : 		DWORD_PTR nOldSize = ar.ReadCount();

  0001f	e8 00 00 00 00	 call	 ?ReadCount@CArchive@@QAEKXZ ; CArchive::ReadCount

; 644  : 		SetSize(nOldSize, -1);

  00024	6a ff		 push	 -1
  00026	50		 push	 eax
  00027	8b cf		 mov	 ecx, edi
  00029	e8 00 00 00 00	 call	 ?SetSize@?$CArray@HH@@QAEXHH@Z ; CArray<int,int>::SetSize
$LN3@Serialize:

; 645  : 	}
; 646  : 	SerializeElements<TYPE>(ar, m_pData, m_nSize);

  0002e	8b 77 08	 mov	 esi, DWORD PTR [edi+8]
  00031	8b 4f 04	 mov	 ecx, DWORD PTR [edi+4]
  00034	89 4d fc	 mov	 DWORD PTR _pData$1$[ebp], ecx

; 68   : 	ENSURE(nCount == 0 || pElements != NULL);

  00037	85 f6		 test	 esi, esi
  00039	74 08		 je	 SHORT $LN8@Serialize
  0003b	85 c9		 test	 ecx, ecx
  0003d	0f 84 8c 00 00
	00		 je	 $LN40@Serialize
$LN8@Serialize:
; File C:\Program Files (x86)\Microsoft Visual Studio\2019\Community\VC\Tools\MSVC\14.29.30133\atlmfc\include\afx.inl

; 212  : 	{ return (m_nMode & CArchive::load) == 0; }

  00043	8b 55 08	 mov	 edx, DWORD PTR _ar$[ebp]
  00046	8b 42 18	 mov	 eax, DWORD PTR [edx+24]
  00049	f7 d0		 not	 eax
  0004b	a8 01		 test	 al, 1
; File C:\Program Files (x86)\Microsoft Visual Studio\2019\Community\VC\Tools\MSVC\14.29.30133\atlmfc\include\afxtempl.h

; 73   : 	if (ar.IsStoring())

  0004d	74 36		 je	 SHORT $LN16@Serialize

; 74   : 	{
; 75   : 		TYPE* pData;
; 76   : 		UINT_PTR nElementsLeft;
; 77   : 
; 78   : 		nElementsLeft = nCount;
; 79   : 		pData = pElements;
; 80   : 		while( nElementsLeft > 0 )

  0004f	85 f6		 test	 esi, esi
  00051	74 29		 je	 SHORT $LN14@Serialize
$LL11@Serialize:

; 81   : 		{
; 82   : 			UINT nElementsToWrite;
; 83   : 
; 84   : 			nElementsToWrite = UINT(__min(nElementsLeft, INT_MAX/sizeof(TYPE)));

  00053	bb ff ff ff 1f	 mov	 ebx, 536870911		; 1fffffffH
  00058	3b f3		 cmp	 esi, ebx
  0005a	0f 42 de	 cmovb	 ebx, esi

; 85   : 			ar.Write(pData, nElementsToWrite*sizeof(TYPE));

  0005d	8d 3c 9d 00 00
	00 00		 lea	 edi, DWORD PTR [ebx*4]
  00064	57		 push	 edi
  00065	51		 push	 ecx
  00066	8b ca		 mov	 ecx, edx
  00068	e8 00 00 00 00	 call	 ?Write@CArchive@@QAEXPBXI@Z ; CArchive::Write

; 86   : 			nElementsLeft -= nElementsToWrite;
; 87   : 			pData += nElementsToWrite;

  0006d	8b 4d fc	 mov	 ecx, DWORD PTR _pData$1$[ebp]
  00070	8b 55 08	 mov	 edx, DWORD PTR _ar$[ebp]
  00073	03 cf		 add	 ecx, edi
  00075	89 4d fc	 mov	 DWORD PTR _pData$1$[ebp], ecx
  00078	2b f3		 sub	 esi, ebx
  0007a	75 d7		 jne	 SHORT $LL11@Serialize
$LN14@Serialize:
  0007c	5f		 pop	 edi

; 647  : }

  0007d	5e		 pop	 esi
  0007e	5b		 pop	 ebx
  0007f	8b e5		 mov	 esp, ebp
  00081	5d		 pop	 ebp
  00082	c2 04 00	 ret	 4
$LN16@Serialize:

; 97   : 		while( nElementsLeft > 0 )

  00085	85 f6		 test	 esi, esi
  00087	74 f3		 je	 SHORT $LN14@Serialize
  00089	0f 1f 80 00 00
	00 00		 npad	 7
$LL13@Serialize:

; 98   : 		{
; 99   : 			UINT nElementsToRead;
; 100  : 
; 101  : 			nElementsToRead = UINT(__min(nElementsLeft, INT_MAX/sizeof(TYPE)));

  00090	bf ff ff ff 1f	 mov	 edi, 536870911		; 1fffffffH
  00095	3b f7		 cmp	 esi, edi
  00097	0f 42 fe	 cmovb	 edi, esi

; 102  : 			ar.EnsureRead(pData, nElementsToRead*sizeof(TYPE));

  0009a	8d 1c bd 00 00
	00 00		 lea	 ebx, DWORD PTR [edi*4]
; File C:\Program Files (x86)\Microsoft Visual Studio\2019\Community\VC\Tools\MSVC\14.29.30133\atlmfc\include\afx.inl

; 399  : 	UINT nRead=Read(lpBuf, nCount);

  000a1	53		 push	 ebx
  000a2	51		 push	 ecx
  000a3	8b ca		 mov	 ecx, edx
  000a5	e8 00 00 00 00	 call	 ?Read@CArchive@@QAEIPAXI@Z ; CArchive::Read

; 400  : 	if(nRead!=nCount)

  000aa	3b c3		 cmp	 eax, ebx
  000ac	75 18		 jne	 SHORT $LN30@Serialize
; File C:\Program Files (x86)\Microsoft Visual Studio\2019\Community\VC\Tools\MSVC\14.29.30133\atlmfc\include\afxtempl.h

; 97   : 		while( nElementsLeft > 0 )

  000ae	8b 4d fc	 mov	 ecx, DWORD PTR _pData$1$[ebp]
  000b1	8b 55 08	 mov	 edx, DWORD PTR _ar$[ebp]

; 103  : 			nElementsLeft -= nElementsToRead;
; 104  : 			pData += nElementsToRead;

  000b4	03 cb		 add	 ecx, ebx
  000b6	89 4d fc	 mov	 DWORD PTR _pData$1$[ebp], ecx
  000b9	2b f7		 sub	 esi, edi
  000bb	75 d3		 jne	 SHORT $LL13@Serialize

; 647  : }

  000bd	5f		 pop	 edi
  000be	5e		 pop	 esi
  000bf	5b		 pop	 ebx
  000c0	8b e5		 mov	 esp, ebp
  000c2	5d		 pop	 ebp
  000c3	c2 04 00	 ret	 4
$LN30@Serialize:
; File C:\Program Files (x86)\Microsoft Visual Studio\2019\Community\VC\Tools\MSVC\14.29.30133\atlmfc\include\afx.inl

; 402  : 		AfxThrowArchiveException(CArchiveException::endOfFile);

  000c6	6a 00		 push	 0
  000c8	6a 03		 push	 3
  000ca	e8 00 00 00 00	 call	 ?AfxThrowArchiveException@@YGXHPBD@Z ; AfxThrowArchiveException
$LN40@Serialize:
; File C:\Program Files (x86)\Microsoft Visual Studio\2019\Community\VC\Tools\MSVC\14.29.30133\atlmfc\include\afxtempl.h

; 68   : 	ENSURE(nCount == 0 || pElements != NULL);

  000cf	e8 00 00 00 00	 call	 ?AfxThrowInvalidArgException@@YGXXZ ; AfxThrowInvalidArgException
$LN38@Serialize:
  000d4	cc		 int	 3
?Serialize@?$CArray@HH@@UAEXAAVCArchive@@@Z ENDP	; CArray<int,int>::Serialize
_TEXT	ENDS
; Function compile flags: /Ogtp
; File C:\Program Files (x86)\Microsoft Visual Studio\2019\Community\VC\Tools\MSVC\14.29.30133\atlmfc\include\afxtempl.h
;	COMDAT ??1?$CArray@HH@@UAE@XZ
_TEXT	SEGMENT
??1?$CArray@HH@@UAE@XZ PROC				; CArray<int,int>::~CArray<int,int>, COMDAT
; _this$ = ecx

; 356  : 	ASSERT_VALID(this);
; 357  : 
; 358  : 	if (m_pData != NULL)

  00000	8b 41 04	 mov	 eax, DWORD PTR [ecx+4]
  00003	c7 01 00 00 00
	00		 mov	 DWORD PTR [ecx], OFFSET ??_7?$CArray@HH@@6B@
  00009	85 c0		 test	 eax, eax
  0000b	74 07		 je	 SHORT $LN5@CArray

; 359  : 	{
; 360  : 		for( int i = 0; i < m_nSize; i++ )
; 361  : 			(m_pData + i)->~TYPE();
; 362  : 		delete[] (BYTE*)m_pData;

  0000d	50		 push	 eax
  0000e	e8 00 00 00 00	 call	 ??_V@YAXPAX@Z		; operator delete[]
  00013	59		 pop	 ecx
$LN5@CArray:

; 363  : 	}
; 364  : }

  00014	c3		 ret	 0
??1?$CArray@HH@@UAE@XZ ENDP				; CArray<int,int>::~CArray<int,int>
_TEXT	ENDS
; Function compile flags: /Ogtp
; File C:\Program Files (x86)\Microsoft Visual Studio\2019\Community\VC\Tools\MSVC\14.29.30133\atlmfc\include\afxtempl.h
; File C:\Program Files (x86)\Windows Kits\10\Include\10.0.22000.0\ucrt\corecrt_memcpy_s.h
; File C:\Program Files (x86)\Microsoft Visual Studio\2019\Community\VC\Tools\MSVC\14.29.30133\atlmfc\include\afxtempl.h
; File C:\Program Files (x86)\Windows Kits\10\Include\10.0.22000.0\ucrt\corecrt_memcpy_s.h
; File C:\Program Files (x86)\Microsoft Visual Studio\2019\Community\VC\Tools\MSVC\14.29.30133\atlmfc\include\afx.h
; File C:\Program Files (x86)\Microsoft Visual Studio\2019\Community\VC\Tools\MSVC\14.29.30133\atlmfc\include\afxtempl.h
;	COMDAT ?SetSize@?$CArray@HH@@QAEXHH@Z
_TEXT	SEGMENT
__N$1$ = -8						; size = 4
__S1max$1$ = -4						; size = 4
__S2$1$ = 8						; size = 4
_nNewSize$ = 8						; size = 4
_pNewData$1$ = 12					; size = 4
_nGrowBy$ = 12						; size = 4
?SetSize@?$CArray@HH@@QAEXHH@Z PROC			; CArray<int,int>::SetSize, COMDAT
; _this$ = ecx

; 368  : {

  00000	55		 push	 ebp
  00001	8b ec		 mov	 ebp, esp
  00003	83 ec 08	 sub	 esp, 8
  00006	53		 push	 ebx
  00007	56		 push	 esi

; 369  : 	ASSERT_VALID(this);
; 370  : 	ASSERT(nNewSize >= 0);
; 371  : 
; 372  : 	if(nNewSize < 0 )

  00008	8b 75 08	 mov	 esi, DWORD PTR _nNewSize$[ebp]
  0000b	8b d9		 mov	 ebx, ecx
  0000d	57		 push	 edi
  0000e	85 f6		 test	 esi, esi
  00010	0f 88 9a 01 00
	00		 js	 $LN56@SetSize

; 373  : 		AfxThrowInvalidArgException();
; 374  : 
; 375  : 	if (nGrowBy >= 0)

  00016	8b 45 0c	 mov	 eax, DWORD PTR _nGrowBy$[ebp]
  00019	85 c0		 test	 eax, eax
  0001b	78 03		 js	 SHORT $LN82@SetSize

; 376  : 		m_nGrowBy = nGrowBy;  // set new size

  0001d	89 43 10	 mov	 DWORD PTR [ebx+16], eax
$LN82@SetSize:

; 377  : 
; 378  : 	if (nNewSize == 0)

  00020	8b 4b 04	 mov	 ecx, DWORD PTR [ebx+4]
  00023	85 f6		 test	 esi, esi
  00025	75 27		 jne	 SHORT $LN19@SetSize

; 379  : 	{
; 380  : 		// shrink to nothing
; 381  : 		if (m_pData != NULL)

  00027	85 c9		 test	 ecx, ecx
  00029	74 0c		 je	 SHORT $LN21@SetSize

; 382  : 		{
; 383  : 			for( int i = 0; i < m_nSize; i++ )
; 384  : 				(m_pData + i)->~TYPE();
; 385  : 			delete[] (BYTE*)m_pData;

  0002b	51		 push	 ecx
  0002c	e8 00 00 00 00	 call	 ??_V@YAXPAX@Z		; operator delete[]
  00031	83 c4 04	 add	 esp, 4

; 386  : 			m_pData = NULL;

  00034	89 73 04	 mov	 DWORD PTR [ebx+4], esi
$LN21@SetSize:

; 475  : }

  00037	5f		 pop	 edi
  00038	5e		 pop	 esi
  00039	c7 43 0c 00 00
	00 00		 mov	 DWORD PTR [ebx+12], 0
  00040	c7 43 08 00 00
	00 00		 mov	 DWORD PTR [ebx+8], 0
  00047	5b		 pop	 ebx
  00048	8b e5		 mov	 esp, ebp
  0004a	5d		 pop	 ebp
  0004b	c2 08 00	 ret	 8
$LN19@SetSize:

; 387  : 		}
; 388  : 		m_nSize = m_nMaxSize = 0;
; 389  : 	}
; 390  : 	else if (m_pData == NULL)

  0004e	85 c9		 test	 ecx, ecx
  00050	75 36		 jne	 SHORT $LN22@SetSize

; 391  : 	{
; 392  : 		// create buffer big enough to hold number of requested elements or
; 393  : 		// m_nGrowBy elements, whichever is larger.
; 394  : #ifdef SIZE_T_MAX
; 395  : 		ASSERT(nNewSize <= SIZE_T_MAX/sizeof(TYPE));    // no overflow
; 396  : #endif
; 397  : 		size_t nAllocSize = __max(nNewSize, m_nGrowBy);

  00052	8b 7b 10	 mov	 edi, DWORD PTR [ebx+16]
  00055	3b f7		 cmp	 esi, edi
  00057	0f 4f fe	 cmovg	 edi, esi

; 398  : 		m_pData = (TYPE*) new BYTE[(size_t)nAllocSize * sizeof(TYPE)];

  0005a	8d 34 bd 00 00
	00 00		 lea	 esi, DWORD PTR [edi*4]
  00061	56		 push	 esi
  00062	e8 00 00 00 00	 call	 ??_U@YAPAXI@Z		; operator new[]

; 399  : 		memset((void*)m_pData, 0, (size_t)nAllocSize * sizeof(TYPE));

  00067	56		 push	 esi
  00068	6a 00		 push	 0
  0006a	50		 push	 eax
  0006b	89 43 04	 mov	 DWORD PTR [ebx+4], eax
  0006e	e8 00 00 00 00	 call	 _memset

; 400  : 		for( int i = 0; i < nNewSize; i++ )
; 401  : #pragma push_macro("new")
; 402  : #undef new
; 403  : 			::new( (void*)( m_pData + i ) ) TYPE;
; 404  : #pragma pop_macro("new")
; 405  : 		m_nSize = nNewSize;

  00073	8b 45 08	 mov	 eax, DWORD PTR _nNewSize$[ebp]
  00076	83 c4 10	 add	 esp, 16			; 00000010H

; 475  : }

  00079	89 7b 0c	 mov	 DWORD PTR [ebx+12], edi
  0007c	89 43 08	 mov	 DWORD PTR [ebx+8], eax
  0007f	5f		 pop	 edi
  00080	5e		 pop	 esi
  00081	5b		 pop	 ebx
  00082	8b e5		 mov	 esp, ebp
  00084	5d		 pop	 ebp
  00085	c2 08 00	 ret	 8
$LN22@SetSize:

; 406  : 		m_nMaxSize = nAllocSize;
; 407  : 	}
; 408  : 	else if (nNewSize <= m_nMaxSize)

  00088	8b 7b 0c	 mov	 edi, DWORD PTR [ebx+12]
  0008b	3b f7		 cmp	 esi, edi
  0008d	7f 29		 jg	 SHORT $LN24@SetSize

; 409  : 	{
; 410  : 		// it fits
; 411  : 		if (nNewSize > m_nSize)

  0008f	8b 53 08	 mov	 edx, DWORD PTR [ebx+8]
  00092	3b f2		 cmp	 esi, edx
  00094	7e 16		 jle	 SHORT $LN26@SetSize

; 412  : 		{
; 413  : 			// initialize the new elements
; 414  : 			memset((void*)(m_pData + m_nSize), 0, (size_t)(nNewSize-m_nSize) * sizeof(TYPE));

  00096	8b c6		 mov	 eax, esi
  00098	2b c2		 sub	 eax, edx
  0009a	c1 e0 02	 shl	 eax, 2
  0009d	50		 push	 eax
  0009e	8d 04 91	 lea	 eax, DWORD PTR [ecx+edx*4]
  000a1	6a 00		 push	 0
  000a3	50		 push	 eax
  000a4	e8 00 00 00 00	 call	 _memset
  000a9	83 c4 0c	 add	 esp, 12			; 0000000cH
$LN26@SetSize:

; 415  : 			for( int i = 0; i < nNewSize-m_nSize; i++ )
; 416  : #pragma push_macro("new")
; 417  : #undef new
; 418  : 				::new( (void*)( m_pData + m_nSize + i ) ) TYPE;
; 419  : #pragma pop_macro("new")
; 420  : 		}
; 421  : 		else if (m_nSize > nNewSize)
; 422  : 		{
; 423  : 			// destroy the old elements
; 424  : 			for( int i = 0; i < m_nSize-nNewSize; i++ )
; 425  : 				(m_pData + nNewSize + i)->~TYPE();
; 426  : 		}
; 427  : 		m_nSize = nNewSize;

  000ac	5f		 pop	 edi
  000ad	89 73 08	 mov	 DWORD PTR [ebx+8], esi

; 475  : }

  000b0	5e		 pop	 esi
  000b1	5b		 pop	 ebx
  000b2	8b e5		 mov	 esp, ebp
  000b4	5d		 pop	 ebp
  000b5	c2 08 00	 ret	 8
$LN24@SetSize:

; 428  : 	}
; 429  : 	else
; 430  : 	{
; 431  : 		// otherwise, grow array
; 432  : 		nGrowBy = m_nGrowBy;

  000b8	8b 43 10	 mov	 eax, DWORD PTR [ebx+16]

; 433  : 		if (nGrowBy == 0)

  000bb	85 c0		 test	 eax, eax
  000bd	75 22		 jne	 SHORT $LN37@SetSize

; 434  : 		{
; 435  : 			// heuristically determine growth when nGrowBy == 0
; 436  : 			//  (this avoids heap fragmentation in many situations)
; 437  : 			nGrowBy = m_nSize / 8;

  000bf	8b 43 08	 mov	 eax, DWORD PTR [ebx+8]
  000c2	99		 cdq
  000c3	83 e2 07	 and	 edx, 7
  000c6	03 c2		 add	 eax, edx
  000c8	c1 f8 03	 sar	 eax, 3

; 438  : 			nGrowBy = (nGrowBy < 4) ? 4 : ((nGrowBy > 1024) ? 1024 : nGrowBy);

  000cb	83 f8 04	 cmp	 eax, 4
  000ce	7d 07		 jge	 SHORT $LN36@SetSize
  000d0	b8 04 00 00 00	 mov	 eax, 4
  000d5	eb 0a		 jmp	 SHORT $LN37@SetSize
$LN36@SetSize:
  000d7	b9 00 04 00 00	 mov	 ecx, 1024		; 00000400H
  000dc	3b c1		 cmp	 eax, ecx
  000de	0f 4f c1	 cmovg	 eax, ecx
$LN37@SetSize:

; 439  : 		}
; 440  : 		INT_PTR nNewMax;
; 441  : 		if (nNewSize < m_nMaxSize + nGrowBy)

  000e1	03 f8		 add	 edi, eax
  000e3	3b f7		 cmp	 esi, edi
  000e5	7d 0b		 jge	 SHORT $LN30@SetSize

; 445  : 
; 446  : 		ASSERT(nNewMax >= m_nMaxSize);  // no wrap around
; 447  : 
; 448  : 		if(nNewMax  < m_nMaxSize)

  000e7	3b 7b 0c	 cmp	 edi, DWORD PTR [ebx+12]
  000ea	0f 8c c0 00 00
	00		 jl	 $LN56@SetSize
  000f0	eb 02		 jmp	 SHORT $LN32@SetSize
$LN30@SetSize:

; 442  : 			nNewMax = m_nMaxSize + nGrowBy;  // granularity
; 443  : 		else
; 444  : 			nNewMax = nNewSize;  // no slush

  000f2	8b fe		 mov	 edi, esi
$LN32@SetSize:

; 449  : 			AfxThrowInvalidArgException();
; 450  : 
; 451  : #ifdef SIZE_T_MAX
; 452  : 		ASSERT(nNewMax <= SIZE_T_MAX/sizeof(TYPE)); // no overflow
; 453  : #endif
; 454  : 		TYPE* pNewData = (TYPE*) new BYTE[(size_t)nNewMax * sizeof(TYPE)];

  000f4	8d 04 bd 00 00
	00 00		 lea	 eax, DWORD PTR [edi*4]
  000fb	50		 push	 eax
  000fc	89 45 fc	 mov	 DWORD PTR __S1max$1$[ebp], eax
  000ff	e8 00 00 00 00	 call	 ??_U@YAPAXI@Z		; operator new[]

; 455  : 
; 456  : 		// copy new data from old
; 457  : 		::ATL::Checked::memcpy_s(pNewData, (size_t)nNewMax * sizeof(TYPE),

  00104	8b 4b 08	 mov	 ecx, DWORD PTR [ebx+8]
  00107	83 c4 04	 add	 esp, 4
  0010a	8b 53 04	 mov	 edx, DWORD PTR [ebx+4]
  0010d	c1 e1 02	 shl	 ecx, 2
  00110	89 45 0c	 mov	 DWORD PTR _pNewData$1$[ebp], eax
  00113	89 4d f8	 mov	 DWORD PTR __N$1$[ebp], ecx
  00116	89 55 08	 mov	 DWORD PTR __S2$1$[ebp], edx
; File C:\Program Files (x86)\Windows Kits\10\Include\10.0.22000.0\ucrt\corecrt_memcpy_s.h

; 46   :         if (_SourceSize == 0)

  00119	85 c9		 test	 ecx, ecx
  0011b	74 20		 je	 SHORT $LN54@SetSize

; 47   :         {
; 48   :             return 0;
; 49   :         }
; 50   : 
; 51   :         _CRT_MEMCPY_S_VALIDATE_RETURN_ERRCODE(_Destination != NULL, EINVAL);

  0011d	85 c0		 test	 eax, eax
  0011f	74 7d		 je	 SHORT $LN84@SetSize

; 52   :         if (_Source == NULL || _DestinationSize < _SourceSize)

  00121	85 d2		 test	 edx, edx
  00123	74 51		 je	 SHORT $LN76@SetSize
  00125	8d 14 bd 00 00
	00 00		 lea	 edx, DWORD PTR [edi*4]
  0012c	3b d1		 cmp	 edx, ecx
  0012e	72 46		 jb	 SHORT $LN76@SetSize

; 58   : 
; 59   :             // Unreachable, but required to suppress /analyze warnings:
; 60   :             return EINVAL;
; 61   :         }
; 62   :         memcpy(_Destination, _Source, _SourceSize);

  00130	51		 push	 ecx
  00131	ff 75 08	 push	 DWORD PTR __S2$1$[ebp]
  00134	50		 push	 eax
  00135	e8 00 00 00 00	 call	 _memcpy
  0013a	83 c4 0c	 add	 esp, 12			; 0000000cH
$LN54@SetSize:
; File C:\Program Files (x86)\Microsoft Visual Studio\2019\Community\VC\Tools\MSVC\14.29.30133\atlmfc\include\afxtempl.h

; 462  : 		memset((void*)(pNewData + m_nSize), 0, (size_t)(nNewSize-m_nSize) * sizeof(TYPE));

  0013d	8b 4b 08	 mov	 ecx, DWORD PTR [ebx+8]
  00140	8b c6		 mov	 eax, esi
  00142	2b c1		 sub	 eax, ecx
  00144	c1 e0 02	 shl	 eax, 2
  00147	50		 push	 eax
  00148	8b 45 0c	 mov	 eax, DWORD PTR _pNewData$1$[ebp]
  0014b	6a 00		 push	 0
  0014d	8d 04 88	 lea	 eax, DWORD PTR [eax+ecx*4]
  00150	50		 push	 eax
  00151	e8 00 00 00 00	 call	 _memset

; 463  : 		for( int i = 0; i < nNewSize-m_nSize; i++ )
; 464  : #pragma push_macro("new")
; 465  : #undef new
; 466  : 			::new( (void*)( pNewData + m_nSize + i ) ) TYPE;
; 467  : #pragma pop_macro("new")
; 468  : 
; 469  : 		// get rid of old stuff (note: no destructors called)
; 470  : 		delete[] (BYTE*)m_pData;

  00156	ff 73 04	 push	 DWORD PTR [ebx+4]
  00159	e8 00 00 00 00	 call	 ??_V@YAXPAX@Z		; operator delete[]

; 471  : 		m_pData = pNewData;

  0015e	8b 45 0c	 mov	 eax, DWORD PTR _pNewData$1$[ebp]
  00161	83 c4 10	 add	 esp, 16			; 00000010H

; 475  : }

  00164	89 7b 0c	 mov	 DWORD PTR [ebx+12], edi
  00167	89 73 08	 mov	 DWORD PTR [ebx+8], esi
  0016a	89 43 04	 mov	 DWORD PTR [ebx+4], eax
  0016d	5f		 pop	 edi
  0016e	5e		 pop	 esi
  0016f	5b		 pop	 ebx
  00170	8b e5		 mov	 esp, ebp
  00172	5d		 pop	 ebp
  00173	c2 08 00	 ret	 8
$LN76@SetSize:
; File C:\Program Files (x86)\Windows Kits\10\Include\10.0.22000.0\ucrt\corecrt_memcpy_s.h

; 54   :             memset(_Destination, 0, _DestinationSize);

  00176	8b 5d fc	 mov	 ebx, DWORD PTR __S1max$1$[ebp]
  00179	53		 push	 ebx
  0017a	6a 00		 push	 0
  0017c	50		 push	 eax
  0017d	e8 00 00 00 00	 call	 _memset
  00182	83 c4 0c	 add	 esp, 12			; 0000000cH

; 55   : 
; 56   :             _CRT_MEMCPY_S_VALIDATE_RETURN_ERRCODE(_Source != NULL,                 EINVAL);

  00185	83 7d 08 00	 cmp	 DWORD PTR __S2$1$[ebp], 0
  00189	74 13		 je	 SHORT $LN84@SetSize

; 57   :             _CRT_MEMCPY_S_VALIDATE_RETURN_ERRCODE(_DestinationSize >= _SourceSize, ERANGE);

  0018b	3b 5d f8	 cmp	 ebx, DWORD PTR __N$1$[ebp]
  0018e	73 20		 jae	 SHORT $LN56@SetSize
  00190	ff 15 00 00 00
	00		 call	 DWORD PTR __imp___errno
  00196	c7 00 22 00 00
	00		 mov	 DWORD PTR [eax], 34	; 00000022H
  0019c	eb 0c		 jmp	 SHORT $LN85@SetSize
$LN84@SetSize:
; File C:\Program Files (x86)\Microsoft Visual Studio\2019\Community\VC\Tools\MSVC\14.29.30133\atlmfc\include\afx.h

; 517  : 		AfxThrowInvalidArgException();

  0019e	ff 15 00 00 00
	00		 call	 DWORD PTR __imp___errno
  001a4	c7 00 16 00 00
	00		 mov	 DWORD PTR [eax], 22	; 00000016H
$LN85@SetSize:
  001aa	ff 15 00 00 00
	00		 call	 DWORD PTR __imp___invalid_parameter_noinfo
$LN56@SetSize:
  001b0	e8 00 00 00 00	 call	 ?AfxThrowInvalidArgException@@YGXXZ ; AfxThrowInvalidArgException
$LN83@SetSize:
  001b5	cc		 int	 3
?SetSize@?$CArray@HH@@QAEXHH@Z ENDP			; CArray<int,int>::SetSize
_TEXT	ENDS
; Function compile flags: /Ogtp
; File C:\Program Files (x86)\Microsoft Visual Studio\2019\Community\VC\Tools\MSVC\14.29.30133\atlmfc\include\afxtempl.h
;	COMDAT ??0?$CArray@HH@@QAE@XZ
_TEXT	SEGMENT
??0?$CArray@HH@@QAE@XZ PROC				; CArray<int,int>::CArray<int,int>, COMDAT
; _this$ = ecx

; 348  : {

  00000	c7 01 00 00 00
	00		 mov	 DWORD PTR [ecx], OFFSET ??_7?$CArray@HH@@6B@

; 349  : 	m_pData = NULL;
; 350  : 	m_nSize = m_nMaxSize = m_nGrowBy = 0;
; 351  : }

  00006	8b c1		 mov	 eax, ecx
  00008	c7 41 04 00 00
	00 00		 mov	 DWORD PTR [ecx+4], 0
  0000f	c7 41 10 00 00
	00 00		 mov	 DWORD PTR [ecx+16], 0
  00016	c7 41 0c 00 00
	00 00		 mov	 DWORD PTR [ecx+12], 0
  0001d	c7 41 08 00 00
	00 00		 mov	 DWORD PTR [ecx+8], 0
  00024	c3		 ret	 0
??0?$CArray@HH@@QAE@XZ ENDP				; CArray<int,int>::CArray<int,int>
_TEXT	ENDS
; Function compile flags: /Ogtp
; File D:\git\src\IBK\IBK_DRFN\ProjSrc\SrcChartEx\ChartAddIn\ChartPatternAddIn\PatternDBItems.cpp
; File C:\Program Files (x86)\Microsoft Visual Studio\2019\Community\VC\Tools\MSVC\14.29.30133\atlmfc\include\afxtempl.h
; File D:\git\src\IBK\IBK_DRFN\ProjSrc\SrcChartEx\ChartAddIn\ChartPatternAddIn\PatternDBItems.cpp
; File C:\Program Files (x86)\Microsoft Visual Studio\2019\Community\VC\Tools\MSVC\14.29.30133\atlmfc\include\afxtempl.h
; File D:\git\src\IBK\IBK_DRFN\ProjSrc\SrcChartEx\ChartAddIn\ChartPatternAddIn\PatternDBItems.cpp
;	COMDAT ?IsDisplayCandle@CPatternEnvData@@QAEHH@Z
_TEXT	SEGMENT
_nCandleType$ = 8					; size = 4
?IsDisplayCandle@CPatternEnvData@@QAEHH@Z PROC		; CPatternEnvData::IsDisplayCandle, COMDAT
; _this$ = ecx

; 156  : {

  00000	55		 push	 ebp
  00001	8b ec		 mov	 ebp, esp
  00003	56		 push	 esi
  00004	8b f1		 mov	 esi, ecx

; 157  : 	int nIndex;
; 158  : 	for(int i=0; i<m_arrNotDisplayCandleItems.GetSize(); i++)

  00006	33 c0		 xor	 eax, eax
  00008	57		 push	 edi
  00009	8b 96 94 00 00
	00		 mov	 edx, DWORD PTR [esi+148]
  0000f	85 d2		 test	 edx, edx
  00011	7e 1b		 jle	 SHORT $LN3@IsDisplayC
  00013	8b 7d 08	 mov	 edi, DWORD PTR _nCandleType$[ebp]
$LL4@IsDisplayC:
; File C:\Program Files (x86)\Microsoft Visual Studio\2019\Community\VC\Tools\MSVC\14.29.30133\atlmfc\include\afxtempl.h

; 288  : 	if(nIndex >= 0 && nIndex < m_nSize)

  00016	85 c0		 test	 eax, eax
  00018	78 27		 js	 SHORT $LN8@IsDisplayC
  0001a	3b c2		 cmp	 eax, edx
  0001c	7d 23		 jge	 SHORT $LN8@IsDisplayC
; File D:\git\src\IBK\IBK_DRFN\ProjSrc\SrcChartEx\ChartAddIn\ChartPatternAddIn\PatternDBItems.cpp

; 161  : 		if(nCandleType == nIndex)

  0001e	8b 8e 90 00 00
	00		 mov	 ecx, DWORD PTR [esi+144]
  00024	3b 3c 81	 cmp	 edi, DWORD PTR [ecx+eax*4]
  00027	74 10		 je	 SHORT $LN12@IsDisplayC

; 157  : 	int nIndex;
; 158  : 	for(int i=0; i<m_arrNotDisplayCandleItems.GetSize(); i++)

  00029	40		 inc	 eax
  0002a	3b c2		 cmp	 eax, edx
  0002c	7c e8		 jl	 SHORT $LL4@IsDisplayC
$LN3@IsDisplayC:
  0002e	5f		 pop	 edi

; 163  : 	}
; 164  : 	return TRUE;

  0002f	b8 01 00 00 00	 mov	 eax, 1

; 165  : }

  00034	5e		 pop	 esi
  00035	5d		 pop	 ebp
  00036	c2 04 00	 ret	 4
$LN12@IsDisplayC:
  00039	5f		 pop	 edi

; 162  : 			return FALSE;

  0003a	33 c0		 xor	 eax, eax

; 165  : }

  0003c	5e		 pop	 esi
  0003d	5d		 pop	 ebp
  0003e	c2 04 00	 ret	 4
$LN8@IsDisplayC:
; File C:\Program Files (x86)\Microsoft Visual Studio\2019\Community\VC\Tools\MSVC\14.29.30133\atlmfc\include\afxtempl.h

; 290  : 	AfxThrowInvalidArgException();

  00041	e8 00 00 00 00	 call	 ?AfxThrowInvalidArgException@@YGXXZ ; AfxThrowInvalidArgException
$LN16@IsDisplayC:
  00046	cc		 int	 3
?IsDisplayCandle@CPatternEnvData@@QAEHH@Z ENDP		; CPatternEnvData::IsDisplayCandle
_TEXT	ENDS
; Function compile flags: /Ogtp
; File D:\git\src\IBK\IBK_DRFN\ProjSrc\SrcChartEx\ChartAddIn\ChartPatternAddIn\PatternDBItems.cpp
; File C:\Program Files (x86)\Microsoft Visual Studio\2019\Community\VC\Tools\MSVC\14.29.30133\atlmfc\include\afxtempl.h
; File D:\git\src\IBK\IBK_DRFN\ProjSrc\SrcChartEx\ChartAddIn\ChartPatternAddIn\PatternDBItems.cpp
;	COMDAT ??1CPatternEnvData@@UAE@XZ
_TEXT	SEGMENT
??1CPatternEnvData@@UAE@XZ PROC				; CPatternEnvData::~CPatternEnvData, COMDAT
; _this$ = ecx

; 152  : {

  00000	56		 push	 esi
  00001	8b f1		 mov	 esi, ecx
  00003	c7 06 00 00 00
	00		 mov	 DWORD PTR [esi], OFFSET ??_7CPatternEnvData@@6B@
; File C:\Program Files (x86)\Microsoft Visual Studio\2019\Community\VC\Tools\MSVC\14.29.30133\atlmfc\include\afxtempl.h

; 358  : 	if (m_pData != NULL)

  00009	8b 86 90 00 00
	00		 mov	 eax, DWORD PTR [esi+144]
  0000f	c7 86 8c 00 00
	00 00 00 00 00	 mov	 DWORD PTR [esi+140], OFFSET ??_7?$CArray@HH@@6B@
  00019	85 c0		 test	 eax, eax
  0001b	74 13		 je	 SHORT $LN7@CPatternEn

; 359  : 	{
; 360  : 		for( int i = 0; i < m_nSize; i++ )

  0001d	83 be 94 00 00
	00 00		 cmp	 DWORD PTR [esi+148], 0
  00024	0f 4f c0	 cmovg	 eax, eax

; 361  : 			(m_pData + i)->~TYPE();
; 362  : 		delete[] (BYTE*)m_pData;

  00027	50		 push	 eax
  00028	e8 00 00 00 00	 call	 ??_V@YAXPAX@Z		; operator delete[]
  0002d	83 c4 04	 add	 esp, 4
$LN7@CPatternEn:
; File D:\git\src\IBK\IBK_DRFN\ProjSrc\SrcChartEx\ChartAddIn\ChartPatternAddIn\PatternDBItems.cpp

; 153  : }

  00030	c7 46 7c 00 00
	00 00		 mov	 DWORD PTR [esi+124], OFFSET ??_7CLineDrawData@@6B@
  00037	c7 46 70 00 00
	00 00		 mov	 DWORD PTR [esi+112], OFFSET ??_7CLineDrawData@@6B@
  0003e	c7 46 64 00 00
	00 00		 mov	 DWORD PTR [esi+100], OFFSET ??_7CLineDrawData@@6B@
  00045	c7 46 58 00 00
	00 00		 mov	 DWORD PTR [esi+88], OFFSET ??_7CLineDrawData@@6B@
  0004c	c7 46 4c 00 00
	00 00		 mov	 DWORD PTR [esi+76], OFFSET ??_7CLineDrawData@@6B@
  00053	5e		 pop	 esi
  00054	c3		 ret	 0
??1CPatternEnvData@@UAE@XZ ENDP				; CPatternEnvData::~CPatternEnvData
_TEXT	ENDS
; Function compile flags: /Ogtp
; File D:\git\src\IBK\IBK_DRFN\ProjSrc\SrcChartEx\ChartAddIn\ChartPatternAddIn\PatternDBItems.cpp
; File C:\Program Files (x86)\Microsoft Visual Studio\2019\Community\VC\Tools\MSVC\14.29.30133\atlmfc\include\afxtempl.h
; File D:\git\src\IBK\IBK_DRFN\ProjSrc\SrcChartEx\ChartAddIn\ChartPatternAddIn\PatternDBItems.cpp
;	COMDAT ??0CPatternEnvData@@QAE@XZ
_TEXT	SEGMENT
_this$ = -4						; size = 4
??0CPatternEnvData@@QAE@XZ PROC				; CPatternEnvData::CPatternEnvData, COMDAT
; _this$ = ecx

; 120  : {

  00000	55		 push	 ebp
  00001	8b ec		 mov	 ebp, esp
  00003	51		 push	 ecx

; 139  : 	m_dNextPtAllowableError	= 1;				//        n%    

  00004	89 4d fc	 mov	 DWORD PTR _this$[ebp], ecx

; 120  : {

  00007	c7 01 00 00 00
	00		 mov	 DWORD PTR [ecx], OFFSET ??_7CPatternEnvData@@6B@
  0000d	0f 57 c0	 xorps	 xmm0, xmm0

; 107  : {

  00010	c7 41 4c 00 00
	00 00		 mov	 DWORD PTR [ecx+76], OFFSET ??_7CLineDrawData@@6B@

; 150  : }

  00017	8b c1		 mov	 eax, ecx

; 108  : 	m_nWeight = 1;

  00019	c7 41 50 01 00
	00 00		 mov	 DWORD PTR [ecx+80], 1

; 109  : 	m_color = RGB(0,0,0);

  00020	c7 41 54 00 00
	00 00		 mov	 DWORD PTR [ecx+84], 0

; 107  : {

  00027	c7 41 58 00 00
	00 00		 mov	 DWORD PTR [ecx+88], OFFSET ??_7CLineDrawData@@6B@

; 108  : 	m_nWeight = 1;

  0002e	c7 41 5c 01 00
	00 00		 mov	 DWORD PTR [ecx+92], 1

; 109  : 	m_color = RGB(0,0,0);

  00035	c7 41 60 00 00
	00 00		 mov	 DWORD PTR [ecx+96], 0

; 107  : {

  0003c	c7 41 64 00 00
	00 00		 mov	 DWORD PTR [ecx+100], OFFSET ??_7CLineDrawData@@6B@

; 108  : 	m_nWeight = 1;

  00043	c7 41 68 01 00
	00 00		 mov	 DWORD PTR [ecx+104], 1

; 109  : 	m_color = RGB(0,0,0);

  0004a	c7 41 6c 00 00
	00 00		 mov	 DWORD PTR [ecx+108], 0

; 107  : {

  00051	c7 41 70 00 00
	00 00		 mov	 DWORD PTR [ecx+112], OFFSET ??_7CLineDrawData@@6B@

; 108  : 	m_nWeight = 1;

  00058	c7 41 74 01 00
	00 00		 mov	 DWORD PTR [ecx+116], 1

; 109  : 	m_color = RGB(0,0,0);

  0005f	c7 41 78 00 00
	00 00		 mov	 DWORD PTR [ecx+120], 0

; 107  : {

  00066	c7 41 7c 00 00
	00 00		 mov	 DWORD PTR [ecx+124], OFFSET ??_7CLineDrawData@@6B@

; 108  : 	m_nWeight = 1;

  0006d	c7 81 80 00 00
	00 01 00 00 00	 mov	 DWORD PTR [ecx+128], 1

; 109  : 	m_color = RGB(0,0,0);

  00077	c7 81 84 00 00
	00 00 00 00 00	 mov	 DWORD PTR [ecx+132], 0
; File C:\Program Files (x86)\Microsoft Visual Studio\2019\Community\VC\Tools\MSVC\14.29.30133\atlmfc\include\afxtempl.h

; 348  : {

  00081	c7 81 8c 00 00
	00 00 00 00 00	 mov	 DWORD PTR [ecx+140], OFFSET ??_7?$CArray@HH@@6B@

; 349  : 	m_pData = NULL;

  0008b	c7 81 90 00 00
	00 00 00 00 00	 mov	 DWORD PTR [ecx+144], 0

; 350  : 	m_nSize = m_nMaxSize = m_nGrowBy = 0;

  00095	c7 81 9c 00 00
	00 00 00 00 00	 mov	 DWORD PTR [ecx+156], 0
  0009f	c7 81 98 00 00
	00 00 00 00 00	 mov	 DWORD PTR [ecx+152], 0
  000a9	c7 81 94 00 00
	00 00 00 00 00	 mov	 DWORD PTR [ecx+148], 0
; File D:\git\src\IBK\IBK_DRFN\ProjSrc\SrcChartEx\ChartAddIn\ChartPatternAddIn\PatternDBItems.cpp

; 138  : 	m_dHLPtAllowalbeError	= 0;				// ,   ,   n%     

  000b3	f2 0f 11 41 38	 movsd	 QWORD PTR [ecx+56], xmm0

; 139  : 	m_dNextPtAllowableError	= 1;				//        n%    

  000b8	f2 0f 10 05 00
	00 00 00	 movsd	 xmm0, QWORD PTR __real@3ff0000000000000
  000c0	c7 41 04 00 00
	00 00		 mov	 DWORD PTR [ecx+4], 0
  000c7	c7 41 08 00 00
	00 00		 mov	 DWORD PTR [ecx+8], 0
  000ce	c7 41 0c 05 00
	00 00		 mov	 DWORD PTR [ecx+12], 5
  000d5	c7 41 10 03 00
	00 00		 mov	 DWORD PTR [ecx+16], 3
  000dc	c7 41 14 03 00
	00 00		 mov	 DWORD PTR [ecx+20], 3
  000e3	c7 41 18 01 00
	00 00		 mov	 DWORD PTR [ecx+24], 1
  000ea	c7 41 1c 01 00
	00 00		 mov	 DWORD PTR [ecx+28], 1
  000f1	c7 41 20 00 00
	00 00		 mov	 DWORD PTR [ecx+32], 0
  000f8	c7 41 24 00 00
	00 00		 mov	 DWORD PTR [ecx+36], 0
  000ff	c7 41 28 00 00
	00 00		 mov	 DWORD PTR [ecx+40], 0
  00106	c7 41 2c 01 00
	00 00		 mov	 DWORD PTR [ecx+44], 1
  0010d	c7 41 30 01 00
	00 00		 mov	 DWORD PTR [ecx+48], 1
  00114	f2 0f 11 41 40	 movsd	 QWORD PTR [ecx+64], xmm0

; 140  : 
; 141  : 	m_bFilterSideWalkPeriod	= TRUE;				//   

  00119	c7 41 48 01 00
	00 00		 mov	 DWORD PTR [ecx+72], 1

; 142  : 
; 143  : 	m_lineDataHighLowPt.m_color = COLOR_HIGHLOW_PTLINE;

  00120	c7 41 54 80 00
	00 00		 mov	 DWORD PTR [ecx+84], 128	; 00000080H

; 144  : 	m_lineDataHighPtH.m_color = COLOR_HIGH_HORZLINE;			//  

  00127	c7 41 60 00 00
	ff 00		 mov	 DWORD PTR [ecx+96], 16711680 ; 00ff0000H

; 145  : 	m_lineDataLowPtH.m_color = COLOR_LOW_HORZLINE;				//  

  0012e	c7 41 6c ff 00
	00 00		 mov	 DWORD PTR [ecx+108], 255 ; 000000ffH

; 146  : 	m_lineDataHighRegist.m_color = RGB(100,100,100);			//  

  00135	c7 41 78 64 64
	64 00		 mov	 DWORD PTR [ecx+120], 6579300 ; 00646464H

; 147  : 	m_lineDataLowSupport.m_color = RGB(100,100,100);			//  

  0013c	c7 81 84 00 00
	00 64 64 64 00	 mov	 DWORD PTR [ecx+132], 6579300 ; 00646464H

; 148  : 
; 149  : 	m_bDrawPatternName = FALSE;

  00146	c7 81 88 00 00
	00 00 00 00 00	 mov	 DWORD PTR [ecx+136], 0

; 150  : }

  00150	8b e5		 mov	 esp, ebp
  00152	5d		 pop	 ebp
  00153	c3		 ret	 0
??0CPatternEnvData@@QAE@XZ ENDP				; CPatternEnvData::CPatternEnvData
_TEXT	ENDS
; Function compile flags: /Ogtp
; File C:\Program Files (x86)\Microsoft Visual Studio\2019\Community\VC\Tools\MSVC\14.29.30133\atlmfc\include\afx.inl
;	COMDAT ??_GCLineDrawData@@UAEPAXI@Z
_TEXT	SEGMENT
___flags$ = 8						; size = 4
??_GCLineDrawData@@UAEPAXI@Z PROC			; CLineDrawData::`scalar deleting destructor', COMDAT
; _this$ = ecx
  00000	55		 push	 ebp
  00001	8b ec		 mov	 ebp, esp
  00003	8b 45 08	 mov	 eax, DWORD PTR ___flags$[ebp]
  00006	56		 push	 esi
  00007	8b f1		 mov	 esi, ecx
  00009	c7 06 00 00 00
	00		 mov	 DWORD PTR [esi], OFFSET ??_7CLineDrawData@@6B@
  0000f	a8 01		 test	 al, 1
  00011	74 1f		 je	 SHORT $LN9@scalar
  00013	a8 04		 test	 al, 4
  00015	75 10		 jne	 SHORT $LN3@scalar

; 112  : 	{ ::operator delete(p); }

  00017	56		 push	 esi
  00018	e8 00 00 00 00	 call	 ??3@YAXPAX@Z		; operator delete
  0001d	83 c4 04	 add	 esp, 4
  00020	8b c6		 mov	 eax, esi
  00022	5e		 pop	 esi
  00023	5d		 pop	 ebp
  00024	c2 04 00	 ret	 4
$LN3@scalar:
  00027	6a 0c		 push	 12			; 0000000cH
  00029	56		 push	 esi
  0002a	e8 00 00 00 00	 call	 ?__global_delete@@YAXPAXI@Z ; __global_delete
  0002f	83 c4 08	 add	 esp, 8
$LN9@scalar:
  00032	8b c6		 mov	 eax, esi
  00034	5e		 pop	 esi
  00035	5d		 pop	 ebp
  00036	c2 04 00	 ret	 4
??_GCLineDrawData@@UAEPAXI@Z ENDP			; CLineDrawData::`scalar deleting destructor'
_TEXT	ENDS
; Function compile flags: /Ogtp
; File D:\git\src\IBK\IBK_DRFN\ProjSrc\SrcChartEx\ChartAddIn\ChartPatternAddIn\PatternDBItems.cpp
;	COMDAT ??1CLineDrawData@@UAE@XZ
_TEXT	SEGMENT
??1CLineDrawData@@UAE@XZ PROC				; CLineDrawData::~CLineDrawData, COMDAT
; _this$ = ecx

; 113  : {

  00000	c7 01 00 00 00
	00		 mov	 DWORD PTR [ecx], OFFSET ??_7CLineDrawData@@6B@

; 114  : }

  00006	c3		 ret	 0
??1CLineDrawData@@UAE@XZ ENDP				; CLineDrawData::~CLineDrawData
_TEXT	ENDS
; Function compile flags: /Ogtp
; File D:\git\src\IBK\IBK_DRFN\ProjSrc\SrcChartEx\ChartAddIn\ChartPatternAddIn\PatternDBItems.cpp
;	COMDAT ??0CLineDrawData@@QAE@XZ
_TEXT	SEGMENT
??0CLineDrawData@@QAE@XZ PROC				; CLineDrawData::CLineDrawData, COMDAT
; _this$ = ecx

; 107  : {

  00000	c7 01 00 00 00
	00		 mov	 DWORD PTR [ecx], OFFSET ??_7CLineDrawData@@6B@

; 108  : 	m_nWeight = 1;
; 109  : 	m_color = RGB(0,0,0);
; 110  : }

  00006	8b c1		 mov	 eax, ecx
  00008	c7 41 04 01 00
	00 00		 mov	 DWORD PTR [ecx+4], 1
  0000f	c7 41 08 00 00
	00 00		 mov	 DWORD PTR [ecx+8], 0
  00016	c3		 ret	 0
??0CLineDrawData@@QAE@XZ ENDP				; CLineDrawData::CLineDrawData
_TEXT	ENDS
; Function compile flags: /Ogtp
; File C:\Program Files (x86)\Microsoft Visual Studio\2019\Community\VC\Tools\MSVC\14.29.30133\atlmfc\include\afx.inl
;	COMDAT ??_GCWavePatternData@@UAEPAXI@Z
_TEXT	SEGMENT
___flags$ = 8						; size = 4
??_GCWavePatternData@@UAEPAXI@Z PROC			; CWavePatternData::`scalar deleting destructor', COMDAT
; _this$ = ecx
  00000	55		 push	 ebp
  00001	8b ec		 mov	 ebp, esp
  00003	8b 45 08	 mov	 eax, DWORD PTR ___flags$[ebp]
  00006	56		 push	 esi
  00007	8b f1		 mov	 esi, ecx
  00009	c7 06 00 00 00
	00		 mov	 DWORD PTR [esi], OFFSET ??_7CWavePatternData@@6B@
  0000f	a8 01		 test	 al, 1
  00011	74 22		 je	 SHORT $LN9@scalar
  00013	a8 04		 test	 al, 4
  00015	75 10		 jne	 SHORT $LN3@scalar

; 112  : 	{ ::operator delete(p); }

  00017	56		 push	 esi
  00018	e8 00 00 00 00	 call	 ??3@YAXPAX@Z		; operator delete
  0001d	83 c4 04	 add	 esp, 4
  00020	8b c6		 mov	 eax, esi
  00022	5e		 pop	 esi
  00023	5d		 pop	 ebp
  00024	c2 04 00	 ret	 4
$LN3@scalar:
  00027	68 88 00 00 00	 push	 136			; 00000088H
  0002c	56		 push	 esi
  0002d	e8 00 00 00 00	 call	 ?__global_delete@@YAXPAXI@Z ; __global_delete
  00032	83 c4 08	 add	 esp, 8
$LN9@scalar:
  00035	8b c6		 mov	 eax, esi
  00037	5e		 pop	 esi
  00038	5d		 pop	 ebp
  00039	c2 04 00	 ret	 4
??_GCWavePatternData@@UAEPAXI@Z ENDP			; CWavePatternData::`scalar deleting destructor'
_TEXT	ENDS
; Function compile flags: /Ogtp
; File D:\git\src\IBK\IBK_DRFN\ProjSrc\SrcChartEx\ChartAddIn\ChartPatternAddIn\PatternDBItems.cpp
;	COMDAT ??1CWavePatternData@@UAE@XZ
_TEXT	SEGMENT
??1CWavePatternData@@UAE@XZ PROC			; CWavePatternData::~CWavePatternData, COMDAT
; _this$ = ecx

; 100  : {

  00000	c7 01 00 00 00
	00		 mov	 DWORD PTR [ecx], OFFSET ??_7CWavePatternData@@6B@

; 101  : }

  00006	c3		 ret	 0
??1CWavePatternData@@UAE@XZ ENDP			; CWavePatternData::~CWavePatternData
_TEXT	ENDS
; Function compile flags: /Ogtp
; File D:\git\src\IBK\IBK_DRFN\ProjSrc\SrcChartEx\ChartAddIn\ChartPatternAddIn\PatternDBItems.cpp
;	COMDAT ??0CWavePatternData@@QAE@XZ
_TEXT	SEGMENT
??0CWavePatternData@@QAE@XZ PROC			; CWavePatternData::CWavePatternData, COMDAT
; _this$ = ecx

; 73   : {

  00000	0f 57 c0	 xorps	 xmm0, xmm0
  00003	c7 01 00 00 00
	00		 mov	 DWORD PTR [ecx], OFFSET ??_7CWavePatternData@@6B@

; 74   : 	m_nPatternType	= ZERO;				// Pattern Type

  00009	c7 41 04 00 00
	00 00		 mov	 DWORD PTR [ecx+4], 0

; 75   : 	m_bIsSelect		= FALSE;			// Pattern Select
; 76   : 
; 77   : 	m_nStartSeq		= ZERO;				// Start Sequence of a Pattern
; 78   : 	m_nEndSeq		= ZERO;				// End Sequence of a Pattern
; 79   : 
; 80   : 	m_dDrawSeq1_1	= ZERO;				// First Draw Data
; 81   : 	m_dDrawYPt1_1	= ZERO;
; 82   : 	m_dDrawSeq1_2	= ZERO;				
; 83   : 	m_dDrawYPt1_2	= ZERO;				
; 84   : 
; 85   : 	m_dDrawSeq2_1	= ZERO;				// Second Draw Data
; 86   : 	m_dDrawYPt2_1	= ZERO;
; 87   : 	m_dDrawSeq2_2	= ZERO;				
; 88   : 	m_dDrawYPt2_2	= ZERO;				
; 89   : 
; 90   : 	m_dNeckSeq1		= ZERO;				// First Neck Data
; 91   : 	m_dNeckYPt1		= ZERO;
; 92   : 	m_dNeckSeq2		= ZERO;				// Second Neck Data
; 93   : 	m_dNeckYPt2		= ZERO;
; 94   : 
; 95   : 	m_dNeckBaseYPt1	= ZERO;
; 96   : 	m_dNeckBaseYPt2	= ZERO;
; 97   : 		
; 98   : }

  00010	8b c1		 mov	 eax, ecx
  00012	c7 41 08 00 00
	00 00		 mov	 DWORD PTR [ecx+8], 0
  00019	c7 41 0c 00 00
	00 00		 mov	 DWORD PTR [ecx+12], 0
  00020	c7 41 10 00 00
	00 00		 mov	 DWORD PTR [ecx+16], 0
  00027	0f 11 41 18	 movups	 XMMWORD PTR [ecx+24], xmm0
  0002b	0f 11 41 28	 movups	 XMMWORD PTR [ecx+40], xmm0
  0002f	0f 11 41 38	 movups	 XMMWORD PTR [ecx+56], xmm0
  00033	0f 11 41 48	 movups	 XMMWORD PTR [ecx+72], xmm0
  00037	0f 11 41 58	 movups	 XMMWORD PTR [ecx+88], xmm0
  0003b	0f 11 41 68	 movups	 XMMWORD PTR [ecx+104], xmm0
  0003f	0f 11 41 78	 movups	 XMMWORD PTR [ecx+120], xmm0
  00043	c3		 ret	 0
??0CWavePatternData@@QAE@XZ ENDP			; CWavePatternData::CWavePatternData
_TEXT	ENDS
; Function compile flags: /Ogtp
; File C:\Program Files (x86)\Microsoft Visual Studio\2019\Community\VC\Tools\MSVC\14.29.30133\atlmfc\include\afx.inl
;	COMDAT ??_GCRegistNSupportData@@UAEPAXI@Z
_TEXT	SEGMENT
___flags$ = 8						; size = 4
??_GCRegistNSupportData@@UAEPAXI@Z PROC			; CRegistNSupportData::`scalar deleting destructor', COMDAT
; _this$ = ecx
  00000	55		 push	 ebp
  00001	8b ec		 mov	 ebp, esp
  00003	8b 45 08	 mov	 eax, DWORD PTR ___flags$[ebp]
  00006	56		 push	 esi
  00007	8b f1		 mov	 esi, ecx
  00009	c7 06 00 00 00
	00		 mov	 DWORD PTR [esi], OFFSET ??_7CRegistNSupportData@@6B@
  0000f	a8 01		 test	 al, 1
  00011	74 1f		 je	 SHORT $LN9@scalar
  00013	a8 04		 test	 al, 4
  00015	75 10		 jne	 SHORT $LN3@scalar

; 112  : 	{ ::operator delete(p); }

  00017	56		 push	 esi
  00018	e8 00 00 00 00	 call	 ??3@YAXPAX@Z		; operator delete
  0001d	83 c4 04	 add	 esp, 4
  00020	8b c6		 mov	 eax, esi
  00022	5e		 pop	 esi
  00023	5d		 pop	 ebp
  00024	c2 04 00	 ret	 4
$LN3@scalar:
  00027	6a 28		 push	 40			; 00000028H
  00029	56		 push	 esi
  0002a	e8 00 00 00 00	 call	 ?__global_delete@@YAXPAXI@Z ; __global_delete
  0002f	83 c4 08	 add	 esp, 8
$LN9@scalar:
  00032	8b c6		 mov	 eax, esi
  00034	5e		 pop	 esi
  00035	5d		 pop	 ebp
  00036	c2 04 00	 ret	 4
??_GCRegistNSupportData@@UAEPAXI@Z ENDP			; CRegistNSupportData::`scalar deleting destructor'
_TEXT	ENDS
; Function compile flags: /Ogtp
; File D:\git\src\IBK\IBK_DRFN\ProjSrc\SrcChartEx\ChartAddIn\ChartPatternAddIn\PatternDBItems.cpp
;	COMDAT ??1CRegistNSupportData@@UAE@XZ
_TEXT	SEGMENT
??1CRegistNSupportData@@UAE@XZ PROC			; CRegistNSupportData::~CRegistNSupportData, COMDAT
; _this$ = ecx

; 65   : {

  00000	c7 01 00 00 00
	00		 mov	 DWORD PTR [ecx], OFFSET ??_7CRegistNSupportData@@6B@

; 66   : }

  00006	c3		 ret	 0
??1CRegistNSupportData@@UAE@XZ ENDP			; CRegistNSupportData::~CRegistNSupportData
_TEXT	ENDS
; Function compile flags: /Ogtp
; File D:\git\src\IBK\IBK_DRFN\ProjSrc\SrcChartEx\ChartAddIn\ChartPatternAddIn\PatternDBItems.cpp
;	COMDAT ??0CRegistNSupportData@@QAE@XZ
_TEXT	SEGMENT
??0CRegistNSupportData@@QAE@XZ PROC			; CRegistNSupportData::CRegistNSupportData, COMDAT
; _this$ = ecx

; 55   : {

  00000	0f 57 c0	 xorps	 xmm0, xmm0
  00003	c7 01 00 00 00
	00		 mov	 DWORD PTR [ecx], OFFSET ??_7CRegistNSupportData@@6B@

; 56   : 	m_nRSLineType	= ZERO;				// ,  

  00009	c7 41 04 00 00
	00 00		 mov	 DWORD PTR [ecx+4], 0

; 57   : 
; 58   : 	m_nDataSeq1		= ZERO;				//   
; 59   : 	m_dYPoint1		= ZERO;				//   
; 60   : 
; 61   : 	m_nDataSeq2		= ZERO;				//   
; 62   : 	m_dYPoint2		= ZERO;				//   
; 63   : }

  00010	8b c1		 mov	 eax, ecx
  00012	c7 41 08 00 00
	00 00		 mov	 DWORD PTR [ecx+8], 0
  00019	f2 0f 11 41 10	 movsd	 QWORD PTR [ecx+16], xmm0
  0001e	c7 41 18 00 00
	00 00		 mov	 DWORD PTR [ecx+24], 0
  00025	f2 0f 11 41 20	 movsd	 QWORD PTR [ecx+32], xmm0
  0002a	c3		 ret	 0
??0CRegistNSupportData@@QAE@XZ ENDP			; CRegistNSupportData::CRegistNSupportData
_TEXT	ENDS
; Function compile flags: /Ogtp
; File C:\Program Files (x86)\Microsoft Visual Studio\2019\Community\VC\Tools\MSVC\14.29.30133\atlmfc\include\afx.inl
;	COMDAT ??_GCMAData@@UAEPAXI@Z
_TEXT	SEGMENT
___flags$ = 8						; size = 4
??_GCMAData@@UAEPAXI@Z PROC				; CMAData::`scalar deleting destructor', COMDAT
; _this$ = ecx
  00000	55		 push	 ebp
  00001	8b ec		 mov	 ebp, esp
  00003	8b 45 08	 mov	 eax, DWORD PTR ___flags$[ebp]
  00006	56		 push	 esi
  00007	8b f1		 mov	 esi, ecx
  00009	c7 06 00 00 00
	00		 mov	 DWORD PTR [esi], OFFSET ??_7CMAData@@6B@
  0000f	a8 01		 test	 al, 1
  00011	74 1f		 je	 SHORT $LN9@scalar
  00013	a8 04		 test	 al, 4
  00015	75 10		 jne	 SHORT $LN3@scalar

; 112  : 	{ ::operator delete(p); }

  00017	56		 push	 esi
  00018	e8 00 00 00 00	 call	 ??3@YAXPAX@Z		; operator delete
  0001d	83 c4 04	 add	 esp, 4
  00020	8b c6		 mov	 eax, esi
  00022	5e		 pop	 esi
  00023	5d		 pop	 ebp
  00024	c2 04 00	 ret	 4
$LN3@scalar:
  00027	6a 10		 push	 16			; 00000010H
  00029	56		 push	 esi
  0002a	e8 00 00 00 00	 call	 ?__global_delete@@YAXPAXI@Z ; __global_delete
  0002f	83 c4 08	 add	 esp, 8
$LN9@scalar:
  00032	8b c6		 mov	 eax, esi
  00034	5e		 pop	 esi
  00035	5d		 pop	 ebp
  00036	c2 04 00	 ret	 4
??_GCMAData@@UAEPAXI@Z ENDP				; CMAData::`scalar deleting destructor'
_TEXT	ENDS
; Function compile flags: /Ogtp
; File D:\git\src\IBK\IBK_DRFN\ProjSrc\SrcChartEx\ChartAddIn\ChartPatternAddIn\PatternDBItems.cpp
;	COMDAT ??1CMAData@@UAE@XZ
_TEXT	SEGMENT
??1CMAData@@UAE@XZ PROC					; CMAData::~CMAData, COMDAT
; _this$ = ecx

; 47   : {

  00000	c7 01 00 00 00
	00		 mov	 DWORD PTR [ecx], OFFSET ??_7CMAData@@6B@

; 48   : }

  00006	c3		 ret	 0
??1CMAData@@UAE@XZ ENDP					; CMAData::~CMAData
_TEXT	ENDS
; Function compile flags: /Ogtp
; File D:\git\src\IBK\IBK_DRFN\ProjSrc\SrcChartEx\ChartAddIn\ChartPatternAddIn\PatternDBItems.cpp
;	COMDAT ??0CMAData@@QAE@XZ
_TEXT	SEGMENT
??0CMAData@@QAE@XZ PROC					; CMAData::CMAData, COMDAT
; _this$ = ecx

; 41   : {

  00000	0f 57 c0	 xorps	 xmm0, xmm0
  00003	c7 01 00 00 00
	00		 mov	 DWORD PTR [ecx], OFFSET ??_7CMAData@@6B@

; 42   : 	m_nDataSeq		= ZERO;

  00009	c7 41 04 00 00
	00 00		 mov	 DWORD PTR [ecx+4], 0

; 43   : 	
; 44   : 	m_dMMa			= ZERO;
; 45   : }

  00010	8b c1		 mov	 eax, ecx
  00012	f2 0f 11 41 08	 movsd	 QWORD PTR [ecx+8], xmm0
  00017	c3		 ret	 0
??0CMAData@@QAE@XZ ENDP					; CMAData::CMAData
_TEXT	ENDS
; Function compile flags: /Ogtp
; File C:\Program Files (x86)\Microsoft Visual Studio\2019\Community\VC\Tools\MSVC\14.29.30133\atlmfc\include\afx.inl
;	COMDAT ??_GCHighLowPtData@@UAEPAXI@Z
_TEXT	SEGMENT
___flags$ = 8						; size = 4
??_GCHighLowPtData@@UAEPAXI@Z PROC			; CHighLowPtData::`scalar deleting destructor', COMDAT
; _this$ = ecx
  00000	55		 push	 ebp
  00001	8b ec		 mov	 ebp, esp
  00003	8b 45 08	 mov	 eax, DWORD PTR ___flags$[ebp]
  00006	56		 push	 esi
  00007	8b f1		 mov	 esi, ecx
  00009	c7 06 00 00 00
	00		 mov	 DWORD PTR [esi], OFFSET ??_7CHighLowPtData@@6B@
  0000f	a8 01		 test	 al, 1
  00011	74 1f		 je	 SHORT $LN9@scalar
  00013	a8 04		 test	 al, 4
  00015	75 10		 jne	 SHORT $LN3@scalar

; 112  : 	{ ::operator delete(p); }

  00017	56		 push	 esi
  00018	e8 00 00 00 00	 call	 ??3@YAXPAX@Z		; operator delete
  0001d	83 c4 04	 add	 esp, 4
  00020	8b c6		 mov	 eax, esi
  00022	5e		 pop	 esi
  00023	5d		 pop	 ebp
  00024	c2 04 00	 ret	 4
$LN3@scalar:
  00027	6a 38		 push	 56			; 00000038H
  00029	56		 push	 esi
  0002a	e8 00 00 00 00	 call	 ?__global_delete@@YAXPAXI@Z ; __global_delete
  0002f	83 c4 08	 add	 esp, 8
$LN9@scalar:
  00032	8b c6		 mov	 eax, esi
  00034	5e		 pop	 esi
  00035	5d		 pop	 ebp
  00036	c2 04 00	 ret	 4
??_GCHighLowPtData@@UAEPAXI@Z ENDP			; CHighLowPtData::`scalar deleting destructor'
_TEXT	ENDS
; Function compile flags: /Ogtp
; File D:\git\src\IBK\IBK_DRFN\ProjSrc\SrcChartEx\ChartAddIn\ChartPatternAddIn\PatternDBItems.cpp
;	COMDAT ??1CHighLowPtData@@UAE@XZ
_TEXT	SEGMENT
??1CHighLowPtData@@UAE@XZ PROC				; CHighLowPtData::~CHighLowPtData, COMDAT
; _this$ = ecx

; 33   : {

  00000	c7 01 00 00 00
	00		 mov	 DWORD PTR [ecx], OFFSET ??_7CHighLowPtData@@6B@

; 34   : }

  00006	c3		 ret	 0
??1CHighLowPtData@@UAE@XZ ENDP				; CHighLowPtData::~CHighLowPtData
_TEXT	ENDS
; Function compile flags: /Ogtp
; File D:\git\src\IBK\IBK_DRFN\ProjSrc\SrcChartEx\ChartAddIn\ChartPatternAddIn\PatternDBItems.cpp
;	COMDAT ??0CHighLowPtData@@QAE@XZ
_TEXT	SEGMENT
??0CHighLowPtData@@QAE@XZ PROC				; CHighLowPtData::CHighLowPtData, COMDAT
; _this$ = ecx

; 21   : {

  00000	0f 57 c0	 xorps	 xmm0, xmm0
  00003	c7 01 00 00 00
	00		 mov	 DWORD PTR [ecx], OFFSET ??_7CHighLowPtData@@6B@

; 22   : 	m_nPointType	= ZERO;

  00009	c7 41 04 00 00
	00 00		 mov	 DWORD PTR [ecx+4], 0

; 23   : 
; 24   : 	m_nDataSeq		= ZERO;
; 25   : 	m_dTime			= ZERO;		
; 26   : 
; 27   : 	m_dOpen			= ZERO;		
; 28   : 	m_dHigh			= ZERO;		
; 29   : 	m_dLow			= ZERO;			
; 30   : 	m_dClose		= ZERO;		
; 31   : }

  00010	8b c1		 mov	 eax, ecx
  00012	c7 41 08 00 00
	00 00		 mov	 DWORD PTR [ecx+8], 0
  00019	0f 11 41 10	 movups	 XMMWORD PTR [ecx+16], xmm0
  0001d	0f 11 41 20	 movups	 XMMWORD PTR [ecx+32], xmm0
  00021	f2 0f 11 41 30	 movsd	 QWORD PTR [ecx+48], xmm0
  00026	c3		 ret	 0
??0CHighLowPtData@@QAE@XZ ENDP				; CHighLowPtData::CHighLowPtData
_TEXT	ENDS
; Function compile flags: /Ogtp
; File C:\Program Files (x86)\Microsoft Visual Studio\2019\Community\VC\Tools\MSVC\14.29.30133\atlmfc\include\afx.inl
;	COMDAT ?Dump@CObject@@UBEXAAVCDumpContext@@@Z
_TEXT	SEGMENT
___formal$ = 8						; size = 4
?Dump@CObject@@UBEXAAVCDumpContext@@@Z PROC		; CObject::Dump, COMDAT
; _this$ = ecx

; 122  : 	{ /* no dumping in release builds */ }

  00000	c2 04 00	 ret	 4
?Dump@CObject@@UBEXAAVCDumpContext@@@Z ENDP		; CObject::Dump
_TEXT	ENDS
; Function compile flags: /Ogtp
; File C:\Program Files (x86)\Microsoft Visual Studio\2019\Community\VC\Tools\MSVC\14.29.30133\atlmfc\include\afx.inl
;	COMDAT ?AssertValid@CObject@@UBEXXZ
_TEXT	SEGMENT
?AssertValid@CObject@@UBEXXZ PROC			; CObject::AssertValid, COMDAT
; _this$ = ecx

; 120  : 	{ /* no asserts in release builds */ }

  00000	c2 00 00	 ret	 0
?AssertValid@CObject@@UBEXXZ ENDP			; CObject::AssertValid
_TEXT	ENDS
; Function compile flags: /Ogtp
; File C:\Program Files (x86)\Microsoft Visual Studio\2019\Community\VC\Tools\MSVC\14.29.30133\atlmfc\include\afx.inl
;	COMDAT ?Serialize@CObject@@UAEXAAVCArchive@@@Z
_TEXT	SEGMENT
___formal$ = 8						; size = 4
?Serialize@CObject@@UAEXAAVCArchive@@@Z PROC		; CObject::Serialize, COMDAT
; _this$ = ecx

; 106  : 	{ /* CObject does not serialize anything by default */ }

  00000	c2 04 00	 ret	 4
?Serialize@CObject@@UAEXAAVCArchive@@@Z ENDP		; CObject::Serialize
_TEXT	ENDS
; Function compile flags: /Ogtp
; File C:\Program Files (x86)\Microsoft Visual Studio\2019\Community\VC\Tools\MSVC\14.29.30133\atlmfc\include\afx.inl
;	COMDAT ??1CObject@@UAE@XZ
_TEXT	SEGMENT
??1CObject@@UAE@XZ PROC					; CObject::~CObject, COMDAT
; _this$ = ecx

; 104  : 	{ }

  00000	c2 00 00	 ret	 0
??1CObject@@UAE@XZ ENDP					; CObject::~CObject
_TEXT	ENDS
; Function compile flags: /Ogtp
; File D:\git\src\IBK\IBK_DRFN\ProjSrc\SrcChartEx\ChartAddIn\ChartPatternAddIn\PatternDBItems.cpp
;	COMDAT ?__empty_global_delete@@YAXPAXI@Z
_TEXT	SEGMENT
___formal$ = 8						; size = 4
___formal$ = 12						; size = 4
?__empty_global_delete@@YAXPAXI@Z PROC			; __empty_global_delete, COMDAT

  00000	c2 00 00	 ret	 0
?__empty_global_delete@@YAXPAXI@Z ENDP			; __empty_global_delete
_TEXT	ENDS
; Function compile flags: /Ogtp
; File D:\git\src\IBK\IBK_DRFN\ProjSrc\SrcChartEx\ChartAddIn\ChartPatternAddIn\PatternDBItems.cpp
;	COMDAT ?__empty_global_delete@@YAXPAX@Z
_TEXT	SEGMENT
___formal$ = 8						; size = 4
?__empty_global_delete@@YAXPAX@Z PROC			; __empty_global_delete, COMDAT

  00000	c2 00 00	 ret	 0
?__empty_global_delete@@YAXPAX@Z ENDP			; __empty_global_delete
_TEXT	ENDS
END
