; Listing generated by Microsoft (R) Optimizing Compiler Version 19.29.30145.0 

	TITLE	D:\git\src\IBK\IBK_DRFN\#DRfn-CS\_Obj\ChartPatternAddin\WavePattern.obj
	.686P
	.XMM
	include listing.inc
	.model	flat

INCLUDELIB MSVCRT
INCLUDELIB OLDNAMES

PUBLIC	?__empty_global_delete@@YAXPAX@Z		; __empty_global_delete
PUBLIC	?__empty_global_delete@@YAXPAXI@Z		; __empty_global_delete
PUBLIC	??1CObject@@UAE@XZ				; CObject::~CObject
PUBLIC	??3CObject@@SGXPAX@Z				; CObject::operator delete
PUBLIC	?Serialize@CObject@@UAEXAAVCArchive@@@Z		; CObject::Serialize
PUBLIC	?AssertValid@CObject@@UBEXXZ			; CObject::AssertValid
PUBLIC	?Dump@CObject@@UBEXAAVCDumpContext@@@Z		; CObject::Dump
PUBLIC	??0CWavePattern@@QAE@XZ				; CWavePattern::CWavePattern
PUBLIC	??1CWavePattern@@UAE@XZ				; CWavePattern::~CWavePattern
PUBLIC	?Get_RegistNSupportLine@CWavePattern@@QAEHPAVCObject@@0N@Z ; CWavePattern::Get_RegistNSupportLine
PUBLIC	?Find_HeaderNShoulders@CWavePattern@@QAEHPAVCObject@@0@Z ; CWavePattern::Find_HeaderNShoulders
PUBLIC	?Find_R_HeaderNShoulders@CWavePattern@@QAEHPAVCObject@@0@Z ; CWavePattern::Find_R_HeaderNShoulders
PUBLIC	?Find_DoubleTop@CWavePattern@@QAEHPAVCObject@@0@Z ; CWavePattern::Find_DoubleTop
PUBLIC	?Find_R_DoubleTop@CWavePattern@@QAEHPAVCObject@@0@Z ; CWavePattern::Find_R_DoubleTop
PUBLIC	?Find_Bull_IsoTriangles@CWavePattern@@QAEHPAVCObject@@0@Z ; CWavePattern::Find_Bull_IsoTriangles
PUBLIC	?Find_Bear_IsoTriangles@CWavePattern@@QAEHPAVCObject@@0@Z ; CWavePattern::Find_Bear_IsoTriangles
PUBLIC	?Find_Bull_Triangles@CWavePattern@@QAEHPAVCObject@@0@Z ; CWavePattern::Find_Bull_Triangles
PUBLIC	?Find_Bear_Triangles@CWavePattern@@QAEHPAVCObject@@0@Z ; CWavePattern::Find_Bear_Triangles
PUBLIC	?Find_Bullish_WideTriangles@CWavePattern@@QAEHPAVCObject@@0@Z ; CWavePattern::Find_Bullish_WideTriangles
PUBLIC	?Find_Bearish_WideTriangles@CWavePattern@@QAEHPAVCObject@@0@Z ; CWavePattern::Find_Bearish_WideTriangles
PUBLIC	?Find_Bull_Wedge@CWavePattern@@QAEHPAVCObject@@0@Z ; CWavePattern::Find_Bull_Wedge
PUBLIC	?Find_Bear_Wedge@CWavePattern@@QAEHPAVCObject@@0@Z ; CWavePattern::Find_Bear_Wedge
PUBLIC	?Find_Bull_SquareFlag@CWavePattern@@QAEHPAVCObject@@0@Z ; CWavePattern::Find_Bull_SquareFlag
PUBLIC	?Find_Bear_SquareFlag@CWavePattern@@QAEHPAVCObject@@0@Z ; CWavePattern::Find_Bear_SquareFlag
PUBLIC	?Find_Bull_TriangleFlag@CWavePattern@@QAEHPAVCObject@@0@Z ; CWavePattern::Find_Bull_TriangleFlag
PUBLIC	?Find_Bear_TriangleFlag@CWavePattern@@QAEHPAVCObject@@0@Z ; CWavePattern::Find_Bear_TriangleFlag
PUBLIC	?Find_Bull_Rectangle@CWavePattern@@QAEHPAVCObject@@0@Z ; CWavePattern::Find_Bull_Rectangle
PUBLIC	?Find_Bear_Rectangle@CWavePattern@@QAEHPAVCObject@@0@Z ; CWavePattern::Find_Bear_Rectangle
PUBLIC	?Find_V_Top@CWavePattern@@QAEHPAVCObject@@0@Z	; CWavePattern::Find_V_Top
PUBLIC	?Find_V_Bottom@CWavePattern@@QAEHPAVCObject@@0@Z ; CWavePattern::Find_V_Bottom
PUBLIC	?AddNewWavePatternData@CWavePattern@@QAEXPAVCObject@@HHHNNNNNNNNNNNNNN@Z ; CWavePattern::AddNewWavePatternData
PUBLIC	?Find_All_WavePattern@CWavePattern@@QAEXPAVCObject@@0@Z ; CWavePattern::Find_All_WavePattern
PUBLIC	?GetPatternName@CWavePattern@@QAE?AV?$CStringT@DV?$StrTraitMFC_DLL@DV?$ChTraitsCRT@D@ATL@@@@@ATL@@H@Z ; CWavePattern::GetPatternName
PUBLIC	?GetPatternTrend@CWavePattern@@QAEHH@Z		; CWavePattern::GetPatternTrend
PUBLIC	?GetPatternTrendName@CWavePattern@@QAE?AV?$CStringT@DV?$StrTraitMFC_DLL@DV?$ChTraitsCRT@D@ATL@@@@@ATL@@H@Z ; CWavePattern::GetPatternTrendName
PUBLIC	?GetGradient@CWavePattern@@QAENNNNN@Z		; CWavePattern::GetGradient
PUBLIC	?GetModifyGradient@CWavePattern@@QAENNNNN@Z	; CWavePattern::GetModifyGradient
PUBLIC	??_GCWavePattern@@UAEPAXI@Z			; CWavePattern::`scalar deleting destructor'
PUBLIC	?LoadResourceDLL@IMetaTable@@QAEPAUHINSTANCE__@@PAUHWND__@@PAU2@@Z ; IMetaTable::LoadResourceDLL
PUBLIC	??1CMultiLanguageResourceSetter@@QAE@XZ		; CMultiLanguageResourceSetter::~CMultiLanguageResourceSetter
PUBLIC	?SetSize@?$CArray@PAVCRegistNSupportData@@PAV1@@@QAEXHH@Z ; CArray<CRegistNSupportData *,CRegistNSupportData *>::SetSize
PUBLIC	?SetAtGrow@?$CArray@PAVCRegistNSupportData@@PAV1@@@QAEXHPAVCRegistNSupportData@@@Z ; CArray<CRegistNSupportData *,CRegistNSupportData *>::SetAtGrow
PUBLIC	?SetSize@?$CArray@PAVCWavePatternData@@PAV1@@@QAEXHH@Z ; CArray<CWavePatternData *,CWavePatternData *>::SetSize
PUBLIC	?SetAtGrow@?$CArray@PAVCWavePatternData@@PAV1@@@QAEXHPAVCWavePatternData@@@Z ; CArray<CWavePatternData *,CWavePatternData *>::SetAtGrow
PUBLIC	??_C@_00CNPNBAHC@@				; `string'
PUBLIC	??_R0?AVCObject@@@8				; CObject `RTTI Type Descriptor'
PUBLIC	??_R3CObject@@8					; CObject::`RTTI Class Hierarchy Descriptor'
PUBLIC	??_R2CObject@@8					; CObject::`RTTI Base Class Array'
PUBLIC	??_R1A@?0A@EA@CObject@@8			; CObject::`RTTI Base Class Descriptor at (0,-1,0,64)'
PUBLIC	??_7CWavePattern@@6B@				; CWavePattern::`vftable'
PUBLIC	??_C@_0BA@ENJOCHIO@LoadResourceDLL@		; `string'
PUBLIC	??_R4CWavePattern@@6B@				; CWavePattern::`RTTI Complete Object Locator'
PUBLIC	??_R0?AVCWavePattern@@@8			; CWavePattern `RTTI Type Descriptor'
PUBLIC	??_R3CWavePattern@@8				; CWavePattern::`RTTI Class Hierarchy Descriptor'
PUBLIC	??_R2CWavePattern@@8				; CWavePattern::`RTTI Base Class Array'
PUBLIC	??_R1A@?0A@EA@CWavePattern@@8			; CWavePattern::`RTTI Base Class Descriptor at (0,-1,0,64)'
PUBLIC	__real@3fb999999999999a
PUBLIC	__real@3fd3333333333333
PUBLIC	__real@3fe3333333333333
PUBLIC	__real@4059000000000000
PUBLIC	__real@bfd3333333333333
PUBLIC	__real@bfe3333333333333
PUBLIC	__xmm@7fffffffffffffff7fffffffffffffff
EXTRN	??2@YAPAXI@Z:PROC				; operator new
EXTRN	??3@YAXPAX@Z:PROC				; operator delete
EXTRN	?__global_delete@@YAXPAXI@Z:PROC		; __global_delete
EXTRN	??_U@YAPAXI@Z:PROC				; operator new[]
EXTRN	??_V@YAXPAX@Z:PROC				; operator delete[]
EXTRN	___std_terminate:PROC
EXTRN	__imp___invalid_parameter_noinfo:PROC
EXTRN	__imp___errno:PROC
EXTRN	__imp__GetProcAddress@8:PROC
EXTRN	?AfxThrowMemoryException@@YGXXZ:PROC		; AfxThrowMemoryException
EXTRN	?AfxThrowInvalidArgException@@YGXXZ:PROC	; AfxThrowInvalidArgException
EXTRN	?GetRuntimeClass@CObject@@UBEPAUCRuntimeClass@@XZ:PROC ; CObject::GetRuntimeClass
EXTRN	__imp_??0?$CStringT@DV?$StrTraitMFC_DLL@DV?$ChTraitsCRT@D@ATL@@@@@ATL@@QAE@XZ:PROC
EXTRN	__imp_??1?$CStringT@DV?$StrTraitMFC_DLL@DV?$ChTraitsCRT@D@ATL@@@@@ATL@@QAE@XZ:PROC
EXTRN	__imp_??4?$CStringT@DV?$StrTraitMFC_DLL@DV?$ChTraitsCRT@D@ATL@@@@@ATL@@QAEAAV01@PBD@Z:PROC
EXTRN	__imp_?LoadStringA@?$CStringT@DV?$StrTraitMFC_DLL@DV?$ChTraitsCRT@D@ATL@@@@@ATL@@QAEHI@Z:PROC
EXTRN	?AfxGetModuleState@@YGPAVAFX_MODULE_STATE@@XZ:PROC ; AfxGetModuleState
EXTRN	?AfxGetStaticModuleState@@YGPAVAFX_MODULE_STATE@@XZ:PROC ; AfxGetStaticModuleState
EXTRN	??_ECWavePattern@@UAEPAXI@Z:PROC		; CWavePattern::`vector deleting destructor'
EXTRN	??0CRegistNSupportData@@QAE@XZ:PROC		; CRegistNSupportData::CRegistNSupportData
EXTRN	??0CWavePatternData@@QAE@XZ:PROC		; CWavePatternData::CWavePatternData
EXTRN	@__security_check_cookie@4:PROC
EXTRN	___CxxFrameHandler3:PROC
EXTRN	_memcpy:PROC
EXTRN	_memset:PROC
EXTRN	??_7type_info@@6B@:QWORD			; type_info::`vftable'
EXTRN	?g_iMetaTable@@3VIMetaTable@@A:BYTE		; g_iMetaTable
EXTRN	___security_cookie:DWORD
EXTRN	__fltused:DWORD
;	COMDAT __xmm@7fffffffffffffff7fffffffffffffff
CONST	SEGMENT
__xmm@7fffffffffffffff7fffffffffffffff DB 0ffH, 0ffH, 0ffH, 0ffH, 0ffH, 0ffH
	DB	0ffH, 07fH, 0ffH, 0ffH, 0ffH, 0ffH, 0ffH, 0ffH, 0ffH, 07fH
CONST	ENDS
;	COMDAT __real@bfe3333333333333
CONST	SEGMENT
__real@bfe3333333333333 DQ 0bfe3333333333333r	; -0.6
CONST	ENDS
;	COMDAT __real@bfd3333333333333
CONST	SEGMENT
__real@bfd3333333333333 DQ 0bfd3333333333333r	; -0.3
CONST	ENDS
;	COMDAT __real@4059000000000000
CONST	SEGMENT
__real@4059000000000000 DQ 04059000000000000r	; 100
CONST	ENDS
;	COMDAT __real@3fe3333333333333
CONST	SEGMENT
__real@3fe3333333333333 DQ 03fe3333333333333r	; 0.6
CONST	ENDS
;	COMDAT __real@3fd3333333333333
CONST	SEGMENT
__real@3fd3333333333333 DQ 03fd3333333333333r	; 0.3
CONST	ENDS
;	COMDAT __real@3fb999999999999a
CONST	SEGMENT
__real@3fb999999999999a DQ 03fb999999999999ar	; 0.1
CONST	ENDS
;	COMDAT ??_R1A@?0A@EA@CWavePattern@@8
rdata$r	SEGMENT
??_R1A@?0A@EA@CWavePattern@@8 DD FLAT:??_R0?AVCWavePattern@@@8 ; CWavePattern::`RTTI Base Class Descriptor at (0,-1,0,64)'
	DD	01H
	DD	00H
	DD	0ffffffffH
	DD	00H
	DD	040H
	DD	FLAT:??_R3CWavePattern@@8
rdata$r	ENDS
;	COMDAT ??_R2CWavePattern@@8
rdata$r	SEGMENT
??_R2CWavePattern@@8 DD FLAT:??_R1A@?0A@EA@CWavePattern@@8 ; CWavePattern::`RTTI Base Class Array'
	DD	FLAT:??_R1A@?0A@EA@CObject@@8
rdata$r	ENDS
;	COMDAT ??_R3CWavePattern@@8
rdata$r	SEGMENT
??_R3CWavePattern@@8 DD 00H				; CWavePattern::`RTTI Class Hierarchy Descriptor'
	DD	00H
	DD	02H
	DD	FLAT:??_R2CWavePattern@@8
rdata$r	ENDS
;	COMDAT ??_R0?AVCWavePattern@@@8
data$rs	SEGMENT
??_R0?AVCWavePattern@@@8 DD FLAT:??_7type_info@@6B@	; CWavePattern `RTTI Type Descriptor'
	DD	00H
	DB	'.?AVCWavePattern@@', 00H
data$rs	ENDS
;	COMDAT ??_R4CWavePattern@@6B@
rdata$r	SEGMENT
??_R4CWavePattern@@6B@ DD 00H				; CWavePattern::`RTTI Complete Object Locator'
	DD	00H
	DD	00H
	DD	FLAT:??_R0?AVCWavePattern@@@8
	DD	FLAT:??_R3CWavePattern@@8
rdata$r	ENDS
;	COMDAT ??_C@_0BA@ENJOCHIO@LoadResourceDLL@
CONST	SEGMENT
??_C@_0BA@ENJOCHIO@LoadResourceDLL@ DB 'LoadResourceDLL', 00H ; `string'
CONST	ENDS
;	COMDAT ??_7CWavePattern@@6B@
CONST	SEGMENT
??_7CWavePattern@@6B@ DD FLAT:??_R4CWavePattern@@6B@	; CWavePattern::`vftable'
	DD	FLAT:?GetRuntimeClass@CObject@@UBEPAUCRuntimeClass@@XZ
	DD	FLAT:??_ECWavePattern@@UAEPAXI@Z
	DD	FLAT:?Serialize@CObject@@UAEXAAVCArchive@@@Z
	DD	FLAT:?AssertValid@CObject@@UBEXXZ
	DD	FLAT:?Dump@CObject@@UBEXAAVCDumpContext@@@Z
CONST	ENDS
;	COMDAT ??_R1A@?0A@EA@CObject@@8
rdata$r	SEGMENT
??_R1A@?0A@EA@CObject@@8 DD FLAT:??_R0?AVCObject@@@8	; CObject::`RTTI Base Class Descriptor at (0,-1,0,64)'
	DD	00H
	DD	00H
	DD	0ffffffffH
	DD	00H
	DD	040H
	DD	FLAT:??_R3CObject@@8
rdata$r	ENDS
;	COMDAT ??_R2CObject@@8
rdata$r	SEGMENT
??_R2CObject@@8 DD FLAT:??_R1A@?0A@EA@CObject@@8	; CObject::`RTTI Base Class Array'
rdata$r	ENDS
;	COMDAT ??_R3CObject@@8
rdata$r	SEGMENT
??_R3CObject@@8 DD 00H					; CObject::`RTTI Class Hierarchy Descriptor'
	DD	00H
	DD	01H
	DD	FLAT:??_R2CObject@@8
rdata$r	ENDS
;	COMDAT ??_R0?AVCObject@@@8
data$rs	SEGMENT
??_R0?AVCObject@@@8 DD FLAT:??_7type_info@@6B@		; CObject `RTTI Type Descriptor'
	DD	00H
	DB	'.?AVCObject@@', 00H
data$rs	ENDS
;	COMDAT ??_C@_00CNPNBAHC@@
CONST	SEGMENT
??_C@_00CNPNBAHC@@ DB 00H				; `string'
CONST	ENDS
;	COMDAT xdata$x
xdata$x	SEGMENT
__ehfuncinfo$??1CMultiLanguageResourceSetter@@QAE@XZ DD 019930522H
	DD	00H
	DD	00H
	DD	2 DUP(00H)
	DD	2 DUP(00H)
	DD	00H
	DD	05H
xdata$x	ENDS
;	COMDAT xdata$x
xdata$x	SEGMENT
__unwindtable$?GetPatternTrendName@CWavePattern@@QAE?AV?$CStringT@DV?$StrTraitMFC_DLL@DV?$ChTraitsCRT@D@ATL@@@@@ATL@@H@Z DD 0ffffffffH
	DD	FLAT:__unwindfunclet$?GetPatternTrendName@CWavePattern@@QAE?AV?$CStringT@DV?$StrTraitMFC_DLL@DV?$ChTraitsCRT@D@ATL@@@@@ATL@@H@Z$1
	DD	00H
	DD	FLAT:__unwindfunclet$?GetPatternTrendName@CWavePattern@@QAE?AV?$CStringT@DV?$StrTraitMFC_DLL@DV?$ChTraitsCRT@D@ATL@@@@@ATL@@H@Z$0
	DD	00H
	DD	FLAT:___std_terminate
__ehfuncinfo$?GetPatternTrendName@CWavePattern@@QAE?AV?$CStringT@DV?$StrTraitMFC_DLL@DV?$ChTraitsCRT@D@ATL@@@@@ATL@@H@Z DD 019930522H
	DD	03H
	DD	FLAT:__unwindtable$?GetPatternTrendName@CWavePattern@@QAE?AV?$CStringT@DV?$StrTraitMFC_DLL@DV?$ChTraitsCRT@D@ATL@@@@@ATL@@H@Z
	DD	2 DUP(00H)
	DD	2 DUP(00H)
	DD	00H
	DD	01H
xdata$x	ENDS
;	COMDAT xdata$x
xdata$x	SEGMENT
__unwindtable$?GetPatternName@CWavePattern@@QAE?AV?$CStringT@DV?$StrTraitMFC_DLL@DV?$ChTraitsCRT@D@ATL@@@@@ATL@@H@Z DD 0ffffffffH
	DD	FLAT:__unwindfunclet$?GetPatternName@CWavePattern@@QAE?AV?$CStringT@DV?$StrTraitMFC_DLL@DV?$ChTraitsCRT@D@ATL@@@@@ATL@@H@Z$1
	DD	00H
	DD	FLAT:__unwindfunclet$?GetPatternName@CWavePattern@@QAE?AV?$CStringT@DV?$StrTraitMFC_DLL@DV?$ChTraitsCRT@D@ATL@@@@@ATL@@H@Z$0
	DD	00H
	DD	FLAT:___std_terminate
__ehfuncinfo$?GetPatternName@CWavePattern@@QAE?AV?$CStringT@DV?$StrTraitMFC_DLL@DV?$ChTraitsCRT@D@ATL@@@@@ATL@@H@Z DD 019930522H
	DD	03H
	DD	FLAT:__unwindtable$?GetPatternName@CWavePattern@@QAE?AV?$CStringT@DV?$StrTraitMFC_DLL@DV?$ChTraitsCRT@D@ATL@@@@@ATL@@H@Z
	DD	2 DUP(00H)
	DD	2 DUP(00H)
	DD	00H
	DD	01H
xdata$x	ENDS
;	COMDAT xdata$x
xdata$x	SEGMENT
__unwindtable$?AddNewWavePatternData@CWavePattern@@QAEXPAVCObject@@HHHNNNNNNNNNNNNNN@Z DD 0ffffffffH
	DD	FLAT:__unwindfunclet$?AddNewWavePatternData@CWavePattern@@QAEXPAVCObject@@HHHNNNNNNNNNNNNNN@Z$0
__ehfuncinfo$?AddNewWavePatternData@CWavePattern@@QAEXPAVCObject@@HHHNNNNNNNNNNNNNN@Z DD 019930522H
	DD	01H
	DD	FLAT:__unwindtable$?AddNewWavePatternData@CWavePattern@@QAEXPAVCObject@@HHHNNNNNNNNNNNNNN@Z
	DD	2 DUP(00H)
	DD	2 DUP(00H)
	DD	00H
	DD	01H
xdata$x	ENDS
;	COMDAT xdata$x
xdata$x	SEGMENT
__unwindtable$?Get_RegistNSupportLine@CWavePattern@@QAEHPAVCObject@@0N@Z DD 0ffffffffH
	DD	FLAT:__unwindfunclet$?Get_RegistNSupportLine@CWavePattern@@QAEHPAVCObject@@0N@Z$0
	DD	0ffffffffH
	DD	FLAT:__unwindfunclet$?Get_RegistNSupportLine@CWavePattern@@QAEHPAVCObject@@0N@Z$1
__ehfuncinfo$?Get_RegistNSupportLine@CWavePattern@@QAEHPAVCObject@@0N@Z DD 019930522H
	DD	02H
	DD	FLAT:__unwindtable$?Get_RegistNSupportLine@CWavePattern@@QAEHPAVCObject@@0N@Z
	DD	2 DUP(00H)
	DD	2 DUP(00H)
	DD	00H
	DD	01H
xdata$x	ENDS
; Function compile flags: /Ogtp
; File C:\Program Files (x86)\Microsoft Visual Studio\2019\Community\VC\Tools\MSVC\14.29.30133\atlmfc\include\afxtempl.h
;	COMDAT ?SetAtGrow@?$CArray@PAVCWavePatternData@@PAV1@@@QAEXHPAVCWavePatternData@@@Z
_TEXT	SEGMENT
_nIndex$ = 8						; size = 4
_newElement$ = 12					; size = 4
?SetAtGrow@?$CArray@PAVCWavePatternData@@PAV1@@@QAEXHPAVCWavePatternData@@@Z PROC ; CArray<CWavePatternData *,CWavePatternData *>::SetAtGrow, COMDAT
; _this$ = ecx

; 534  : {

  00000	55		 push	 ebp
  00001	8b ec		 mov	 ebp, esp
  00003	56		 push	 esi

; 535  : 	ASSERT_VALID(this);
; 536  : 	ASSERT(nIndex >= 0);
; 537  : 
; 538  : 	if(nIndex < 0)

  00004	8b 75 08	 mov	 esi, DWORD PTR _nIndex$[ebp]
  00007	57		 push	 edi
  00008	8b f9		 mov	 edi, ecx
  0000a	85 f6		 test	 esi, esi
  0000c	78 1f		 js	 SHORT $LN7@SetAtGrow

; 540  : 
; 541  : 	if (nIndex >= m_nSize)

  0000e	3b 77 08	 cmp	 esi, DWORD PTR [edi+8]
  00011	7c 0b		 jl	 SHORT $LN3@SetAtGrow

; 542  : 		SetSize(nIndex+1, -1);

  00013	6a ff		 push	 -1
  00015	8d 46 01	 lea	 eax, DWORD PTR [esi+1]
  00018	50		 push	 eax
  00019	e8 00 00 00 00	 call	 ?SetSize@?$CArray@PAVCWavePatternData@@PAV1@@@QAEXHH@Z ; CArray<CWavePatternData *,CWavePatternData *>::SetSize
$LN3@SetAtGrow:

; 543  : 	m_pData[nIndex] = newElement;

  0001e	8b 4f 04	 mov	 ecx, DWORD PTR [edi+4]
  00021	8b 45 0c	 mov	 eax, DWORD PTR _newElement$[ebp]
  00024	5f		 pop	 edi
  00025	89 04 b1	 mov	 DWORD PTR [ecx+esi*4], eax
  00028	5e		 pop	 esi

; 544  : }

  00029	5d		 pop	 ebp
  0002a	c2 08 00	 ret	 8
$LN7@SetAtGrow:

; 539  : 		AfxThrowInvalidArgException();

  0002d	e8 00 00 00 00	 call	 ?AfxThrowInvalidArgException@@YGXXZ ; AfxThrowInvalidArgException
$LN5@SetAtGrow:
  00032	cc		 int	 3
?SetAtGrow@?$CArray@PAVCWavePatternData@@PAV1@@@QAEXHPAVCWavePatternData@@@Z ENDP ; CArray<CWavePatternData *,CWavePatternData *>::SetAtGrow
_TEXT	ENDS
; Function compile flags: /Ogtp
; File C:\Program Files (x86)\Microsoft Visual Studio\2019\Community\VC\Tools\MSVC\14.29.30133\atlmfc\include\afxtempl.h
; File C:\Program Files (x86)\Windows Kits\10\Include\10.0.22000.0\ucrt\corecrt_memcpy_s.h
; File C:\Program Files (x86)\Microsoft Visual Studio\2019\Community\VC\Tools\MSVC\14.29.30133\atlmfc\include\afxtempl.h
; File C:\Program Files (x86)\Windows Kits\10\Include\10.0.22000.0\ucrt\corecrt_memcpy_s.h
; File C:\Program Files (x86)\Microsoft Visual Studio\2019\Community\VC\Tools\MSVC\14.29.30133\atlmfc\include\afx.h
; File C:\Program Files (x86)\Microsoft Visual Studio\2019\Community\VC\Tools\MSVC\14.29.30133\atlmfc\include\afxtempl.h
;	COMDAT ?SetSize@?$CArray@PAVCWavePatternData@@PAV1@@@QAEXHH@Z
_TEXT	SEGMENT
__N$1$ = -8						; size = 4
__S1max$1$ = -4						; size = 4
__S2$1$ = 8						; size = 4
_nNewSize$ = 8						; size = 4
_pNewData$1$ = 12					; size = 4
_nGrowBy$ = 12						; size = 4
?SetSize@?$CArray@PAVCWavePatternData@@PAV1@@@QAEXHH@Z PROC ; CArray<CWavePatternData *,CWavePatternData *>::SetSize, COMDAT
; _this$ = ecx

; 368  : {

  00000	55		 push	 ebp
  00001	8b ec		 mov	 ebp, esp
  00003	83 ec 08	 sub	 esp, 8
  00006	53		 push	 ebx
  00007	56		 push	 esi

; 369  : 	ASSERT_VALID(this);
; 370  : 	ASSERT(nNewSize >= 0);
; 371  : 
; 372  : 	if(nNewSize < 0 )

  00008	8b 75 08	 mov	 esi, DWORD PTR _nNewSize$[ebp]
  0000b	8b d9		 mov	 ebx, ecx
  0000d	57		 push	 edi
  0000e	85 f6		 test	 esi, esi
  00010	0f 88 9a 01 00
	00		 js	 $LN56@SetSize

; 373  : 		AfxThrowInvalidArgException();
; 374  : 
; 375  : 	if (nGrowBy >= 0)

  00016	8b 45 0c	 mov	 eax, DWORD PTR _nGrowBy$[ebp]
  00019	85 c0		 test	 eax, eax
  0001b	78 03		 js	 SHORT $LN82@SetSize

; 376  : 		m_nGrowBy = nGrowBy;  // set new size

  0001d	89 43 10	 mov	 DWORD PTR [ebx+16], eax
$LN82@SetSize:

; 377  : 
; 378  : 	if (nNewSize == 0)

  00020	8b 4b 04	 mov	 ecx, DWORD PTR [ebx+4]
  00023	85 f6		 test	 esi, esi
  00025	75 27		 jne	 SHORT $LN19@SetSize

; 379  : 	{
; 380  : 		// shrink to nothing
; 381  : 		if (m_pData != NULL)

  00027	85 c9		 test	 ecx, ecx
  00029	74 0c		 je	 SHORT $LN21@SetSize

; 382  : 		{
; 383  : 			for( int i = 0; i < m_nSize; i++ )
; 384  : 				(m_pData + i)->~TYPE();
; 385  : 			delete[] (BYTE*)m_pData;

  0002b	51		 push	 ecx
  0002c	e8 00 00 00 00	 call	 ??_V@YAXPAX@Z		; operator delete[]
  00031	83 c4 04	 add	 esp, 4

; 386  : 			m_pData = NULL;

  00034	89 73 04	 mov	 DWORD PTR [ebx+4], esi
$LN21@SetSize:

; 475  : }

  00037	5f		 pop	 edi
  00038	5e		 pop	 esi
  00039	c7 43 0c 00 00
	00 00		 mov	 DWORD PTR [ebx+12], 0
  00040	c7 43 08 00 00
	00 00		 mov	 DWORD PTR [ebx+8], 0
  00047	5b		 pop	 ebx
  00048	8b e5		 mov	 esp, ebp
  0004a	5d		 pop	 ebp
  0004b	c2 08 00	 ret	 8
$LN19@SetSize:

; 387  : 		}
; 388  : 		m_nSize = m_nMaxSize = 0;
; 389  : 	}
; 390  : 	else if (m_pData == NULL)

  0004e	85 c9		 test	 ecx, ecx
  00050	75 36		 jne	 SHORT $LN22@SetSize

; 391  : 	{
; 392  : 		// create buffer big enough to hold number of requested elements or
; 393  : 		// m_nGrowBy elements, whichever is larger.
; 394  : #ifdef SIZE_T_MAX
; 395  : 		ASSERT(nNewSize <= SIZE_T_MAX/sizeof(TYPE));    // no overflow
; 396  : #endif
; 397  : 		size_t nAllocSize = __max(nNewSize, m_nGrowBy);

  00052	8b 7b 10	 mov	 edi, DWORD PTR [ebx+16]
  00055	3b f7		 cmp	 esi, edi
  00057	0f 4f fe	 cmovg	 edi, esi

; 398  : 		m_pData = (TYPE*) new BYTE[(size_t)nAllocSize * sizeof(TYPE)];

  0005a	8d 34 bd 00 00
	00 00		 lea	 esi, DWORD PTR [edi*4]
  00061	56		 push	 esi
  00062	e8 00 00 00 00	 call	 ??_U@YAPAXI@Z		; operator new[]

; 399  : 		memset((void*)m_pData, 0, (size_t)nAllocSize * sizeof(TYPE));

  00067	56		 push	 esi
  00068	6a 00		 push	 0
  0006a	50		 push	 eax
  0006b	89 43 04	 mov	 DWORD PTR [ebx+4], eax
  0006e	e8 00 00 00 00	 call	 _memset

; 400  : 		for( int i = 0; i < nNewSize; i++ )
; 401  : #pragma push_macro("new")
; 402  : #undef new
; 403  : 			::new( (void*)( m_pData + i ) ) TYPE;
; 404  : #pragma pop_macro("new")
; 405  : 		m_nSize = nNewSize;

  00073	8b 45 08	 mov	 eax, DWORD PTR _nNewSize$[ebp]
  00076	83 c4 10	 add	 esp, 16			; 00000010H

; 475  : }

  00079	89 7b 0c	 mov	 DWORD PTR [ebx+12], edi
  0007c	89 43 08	 mov	 DWORD PTR [ebx+8], eax
  0007f	5f		 pop	 edi
  00080	5e		 pop	 esi
  00081	5b		 pop	 ebx
  00082	8b e5		 mov	 esp, ebp
  00084	5d		 pop	 ebp
  00085	c2 08 00	 ret	 8
$LN22@SetSize:

; 406  : 		m_nMaxSize = nAllocSize;
; 407  : 	}
; 408  : 	else if (nNewSize <= m_nMaxSize)

  00088	8b 7b 0c	 mov	 edi, DWORD PTR [ebx+12]
  0008b	3b f7		 cmp	 esi, edi
  0008d	7f 29		 jg	 SHORT $LN24@SetSize

; 409  : 	{
; 410  : 		// it fits
; 411  : 		if (nNewSize > m_nSize)

  0008f	8b 53 08	 mov	 edx, DWORD PTR [ebx+8]
  00092	3b f2		 cmp	 esi, edx
  00094	7e 16		 jle	 SHORT $LN26@SetSize

; 412  : 		{
; 413  : 			// initialize the new elements
; 414  : 			memset((void*)(m_pData + m_nSize), 0, (size_t)(nNewSize-m_nSize) * sizeof(TYPE));

  00096	8b c6		 mov	 eax, esi
  00098	2b c2		 sub	 eax, edx
  0009a	c1 e0 02	 shl	 eax, 2
  0009d	50		 push	 eax
  0009e	8d 04 91	 lea	 eax, DWORD PTR [ecx+edx*4]
  000a1	6a 00		 push	 0
  000a3	50		 push	 eax
  000a4	e8 00 00 00 00	 call	 _memset
  000a9	83 c4 0c	 add	 esp, 12			; 0000000cH
$LN26@SetSize:

; 415  : 			for( int i = 0; i < nNewSize-m_nSize; i++ )
; 416  : #pragma push_macro("new")
; 417  : #undef new
; 418  : 				::new( (void*)( m_pData + m_nSize + i ) ) TYPE;
; 419  : #pragma pop_macro("new")
; 420  : 		}
; 421  : 		else if (m_nSize > nNewSize)
; 422  : 		{
; 423  : 			// destroy the old elements
; 424  : 			for( int i = 0; i < m_nSize-nNewSize; i++ )
; 425  : 				(m_pData + nNewSize + i)->~TYPE();
; 426  : 		}
; 427  : 		m_nSize = nNewSize;

  000ac	5f		 pop	 edi
  000ad	89 73 08	 mov	 DWORD PTR [ebx+8], esi

; 475  : }

  000b0	5e		 pop	 esi
  000b1	5b		 pop	 ebx
  000b2	8b e5		 mov	 esp, ebp
  000b4	5d		 pop	 ebp
  000b5	c2 08 00	 ret	 8
$LN24@SetSize:

; 428  : 	}
; 429  : 	else
; 430  : 	{
; 431  : 		// otherwise, grow array
; 432  : 		nGrowBy = m_nGrowBy;

  000b8	8b 43 10	 mov	 eax, DWORD PTR [ebx+16]

; 433  : 		if (nGrowBy == 0)

  000bb	85 c0		 test	 eax, eax
  000bd	75 22		 jne	 SHORT $LN37@SetSize

; 434  : 		{
; 435  : 			// heuristically determine growth when nGrowBy == 0
; 436  : 			//  (this avoids heap fragmentation in many situations)
; 437  : 			nGrowBy = m_nSize / 8;

  000bf	8b 43 08	 mov	 eax, DWORD PTR [ebx+8]
  000c2	99		 cdq
  000c3	83 e2 07	 and	 edx, 7
  000c6	03 c2		 add	 eax, edx
  000c8	c1 f8 03	 sar	 eax, 3

; 438  : 			nGrowBy = (nGrowBy < 4) ? 4 : ((nGrowBy > 1024) ? 1024 : nGrowBy);

  000cb	83 f8 04	 cmp	 eax, 4
  000ce	7d 07		 jge	 SHORT $LN36@SetSize
  000d0	b8 04 00 00 00	 mov	 eax, 4
  000d5	eb 0a		 jmp	 SHORT $LN37@SetSize
$LN36@SetSize:
  000d7	b9 00 04 00 00	 mov	 ecx, 1024		; 00000400H
  000dc	3b c1		 cmp	 eax, ecx
  000de	0f 4f c1	 cmovg	 eax, ecx
$LN37@SetSize:

; 439  : 		}
; 440  : 		INT_PTR nNewMax;
; 441  : 		if (nNewSize < m_nMaxSize + nGrowBy)

  000e1	03 f8		 add	 edi, eax
  000e3	3b f7		 cmp	 esi, edi
  000e5	7d 0b		 jge	 SHORT $LN30@SetSize

; 445  : 
; 446  : 		ASSERT(nNewMax >= m_nMaxSize);  // no wrap around
; 447  : 
; 448  : 		if(nNewMax  < m_nMaxSize)

  000e7	3b 7b 0c	 cmp	 edi, DWORD PTR [ebx+12]
  000ea	0f 8c c0 00 00
	00		 jl	 $LN56@SetSize
  000f0	eb 02		 jmp	 SHORT $LN32@SetSize
$LN30@SetSize:

; 442  : 			nNewMax = m_nMaxSize + nGrowBy;  // granularity
; 443  : 		else
; 444  : 			nNewMax = nNewSize;  // no slush

  000f2	8b fe		 mov	 edi, esi
$LN32@SetSize:

; 449  : 			AfxThrowInvalidArgException();
; 450  : 
; 451  : #ifdef SIZE_T_MAX
; 452  : 		ASSERT(nNewMax <= SIZE_T_MAX/sizeof(TYPE)); // no overflow
; 453  : #endif
; 454  : 		TYPE* pNewData = (TYPE*) new BYTE[(size_t)nNewMax * sizeof(TYPE)];

  000f4	8d 04 bd 00 00
	00 00		 lea	 eax, DWORD PTR [edi*4]
  000fb	50		 push	 eax
  000fc	89 45 fc	 mov	 DWORD PTR __S1max$1$[ebp], eax
  000ff	e8 00 00 00 00	 call	 ??_U@YAPAXI@Z		; operator new[]

; 455  : 
; 456  : 		// copy new data from old
; 457  : 		::ATL::Checked::memcpy_s(pNewData, (size_t)nNewMax * sizeof(TYPE),

  00104	8b 4b 08	 mov	 ecx, DWORD PTR [ebx+8]
  00107	83 c4 04	 add	 esp, 4
  0010a	8b 53 04	 mov	 edx, DWORD PTR [ebx+4]
  0010d	c1 e1 02	 shl	 ecx, 2
  00110	89 45 0c	 mov	 DWORD PTR _pNewData$1$[ebp], eax
  00113	89 4d f8	 mov	 DWORD PTR __N$1$[ebp], ecx
  00116	89 55 08	 mov	 DWORD PTR __S2$1$[ebp], edx
; File C:\Program Files (x86)\Windows Kits\10\Include\10.0.22000.0\ucrt\corecrt_memcpy_s.h

; 46   :         if (_SourceSize == 0)

  00119	85 c9		 test	 ecx, ecx
  0011b	74 20		 je	 SHORT $LN54@SetSize

; 47   :         {
; 48   :             return 0;
; 49   :         }
; 50   : 
; 51   :         _CRT_MEMCPY_S_VALIDATE_RETURN_ERRCODE(_Destination != NULL, EINVAL);

  0011d	85 c0		 test	 eax, eax
  0011f	74 7d		 je	 SHORT $LN84@SetSize

; 52   :         if (_Source == NULL || _DestinationSize < _SourceSize)

  00121	85 d2		 test	 edx, edx
  00123	74 51		 je	 SHORT $LN76@SetSize
  00125	8d 14 bd 00 00
	00 00		 lea	 edx, DWORD PTR [edi*4]
  0012c	3b d1		 cmp	 edx, ecx
  0012e	72 46		 jb	 SHORT $LN76@SetSize

; 58   : 
; 59   :             // Unreachable, but required to suppress /analyze warnings:
; 60   :             return EINVAL;
; 61   :         }
; 62   :         memcpy(_Destination, _Source, _SourceSize);

  00130	51		 push	 ecx
  00131	ff 75 08	 push	 DWORD PTR __S2$1$[ebp]
  00134	50		 push	 eax
  00135	e8 00 00 00 00	 call	 _memcpy
  0013a	83 c4 0c	 add	 esp, 12			; 0000000cH
$LN54@SetSize:
; File C:\Program Files (x86)\Microsoft Visual Studio\2019\Community\VC\Tools\MSVC\14.29.30133\atlmfc\include\afxtempl.h

; 462  : 		memset((void*)(pNewData + m_nSize), 0, (size_t)(nNewSize-m_nSize) * sizeof(TYPE));

  0013d	8b 4b 08	 mov	 ecx, DWORD PTR [ebx+8]
  00140	8b c6		 mov	 eax, esi
  00142	2b c1		 sub	 eax, ecx
  00144	c1 e0 02	 shl	 eax, 2
  00147	50		 push	 eax
  00148	8b 45 0c	 mov	 eax, DWORD PTR _pNewData$1$[ebp]
  0014b	6a 00		 push	 0
  0014d	8d 04 88	 lea	 eax, DWORD PTR [eax+ecx*4]
  00150	50		 push	 eax
  00151	e8 00 00 00 00	 call	 _memset

; 463  : 		for( int i = 0; i < nNewSize-m_nSize; i++ )
; 464  : #pragma push_macro("new")
; 465  : #undef new
; 466  : 			::new( (void*)( pNewData + m_nSize + i ) ) TYPE;
; 467  : #pragma pop_macro("new")
; 468  : 
; 469  : 		// get rid of old stuff (note: no destructors called)
; 470  : 		delete[] (BYTE*)m_pData;

  00156	ff 73 04	 push	 DWORD PTR [ebx+4]
  00159	e8 00 00 00 00	 call	 ??_V@YAXPAX@Z		; operator delete[]

; 471  : 		m_pData = pNewData;

  0015e	8b 45 0c	 mov	 eax, DWORD PTR _pNewData$1$[ebp]
  00161	83 c4 10	 add	 esp, 16			; 00000010H

; 475  : }

  00164	89 7b 0c	 mov	 DWORD PTR [ebx+12], edi
  00167	89 73 08	 mov	 DWORD PTR [ebx+8], esi
  0016a	89 43 04	 mov	 DWORD PTR [ebx+4], eax
  0016d	5f		 pop	 edi
  0016e	5e		 pop	 esi
  0016f	5b		 pop	 ebx
  00170	8b e5		 mov	 esp, ebp
  00172	5d		 pop	 ebp
  00173	c2 08 00	 ret	 8
$LN76@SetSize:
; File C:\Program Files (x86)\Windows Kits\10\Include\10.0.22000.0\ucrt\corecrt_memcpy_s.h

; 54   :             memset(_Destination, 0, _DestinationSize);

  00176	8b 5d fc	 mov	 ebx, DWORD PTR __S1max$1$[ebp]
  00179	53		 push	 ebx
  0017a	6a 00		 push	 0
  0017c	50		 push	 eax
  0017d	e8 00 00 00 00	 call	 _memset
  00182	83 c4 0c	 add	 esp, 12			; 0000000cH

; 55   : 
; 56   :             _CRT_MEMCPY_S_VALIDATE_RETURN_ERRCODE(_Source != NULL,                 EINVAL);

  00185	83 7d 08 00	 cmp	 DWORD PTR __S2$1$[ebp], 0
  00189	74 13		 je	 SHORT $LN84@SetSize

; 57   :             _CRT_MEMCPY_S_VALIDATE_RETURN_ERRCODE(_DestinationSize >= _SourceSize, ERANGE);

  0018b	3b 5d f8	 cmp	 ebx, DWORD PTR __N$1$[ebp]
  0018e	73 20		 jae	 SHORT $LN56@SetSize
  00190	ff 15 00 00 00
	00		 call	 DWORD PTR __imp___errno
  00196	c7 00 22 00 00
	00		 mov	 DWORD PTR [eax], 34	; 00000022H
  0019c	eb 0c		 jmp	 SHORT $LN85@SetSize
$LN84@SetSize:
; File C:\Program Files (x86)\Microsoft Visual Studio\2019\Community\VC\Tools\MSVC\14.29.30133\atlmfc\include\afx.h

; 517  : 		AfxThrowInvalidArgException();

  0019e	ff 15 00 00 00
	00		 call	 DWORD PTR __imp___errno
  001a4	c7 00 16 00 00
	00		 mov	 DWORD PTR [eax], 22	; 00000016H
$LN85@SetSize:
  001aa	ff 15 00 00 00
	00		 call	 DWORD PTR __imp___invalid_parameter_noinfo
$LN56@SetSize:
  001b0	e8 00 00 00 00	 call	 ?AfxThrowInvalidArgException@@YGXXZ ; AfxThrowInvalidArgException
$LN83@SetSize:
  001b5	cc		 int	 3
?SetSize@?$CArray@PAVCWavePatternData@@PAV1@@@QAEXHH@Z ENDP ; CArray<CWavePatternData *,CWavePatternData *>::SetSize
_TEXT	ENDS
; Function compile flags: /Ogtp
; File C:\Program Files (x86)\Microsoft Visual Studio\2019\Community\VC\Tools\MSVC\14.29.30133\atlmfc\include\afxtempl.h
;	COMDAT ?SetAtGrow@?$CArray@PAVCRegistNSupportData@@PAV1@@@QAEXHPAVCRegistNSupportData@@@Z
_TEXT	SEGMENT
_nIndex$ = 8						; size = 4
_newElement$ = 12					; size = 4
?SetAtGrow@?$CArray@PAVCRegistNSupportData@@PAV1@@@QAEXHPAVCRegistNSupportData@@@Z PROC ; CArray<CRegistNSupportData *,CRegistNSupportData *>::SetAtGrow, COMDAT
; _this$ = ecx

; 534  : {

  00000	55		 push	 ebp
  00001	8b ec		 mov	 ebp, esp
  00003	56		 push	 esi

; 535  : 	ASSERT_VALID(this);
; 536  : 	ASSERT(nIndex >= 0);
; 537  : 
; 538  : 	if(nIndex < 0)

  00004	8b 75 08	 mov	 esi, DWORD PTR _nIndex$[ebp]
  00007	57		 push	 edi
  00008	8b f9		 mov	 edi, ecx
  0000a	85 f6		 test	 esi, esi
  0000c	78 1f		 js	 SHORT $LN7@SetAtGrow

; 540  : 
; 541  : 	if (nIndex >= m_nSize)

  0000e	3b 77 08	 cmp	 esi, DWORD PTR [edi+8]
  00011	7c 0b		 jl	 SHORT $LN3@SetAtGrow

; 542  : 		SetSize(nIndex+1, -1);

  00013	6a ff		 push	 -1
  00015	8d 46 01	 lea	 eax, DWORD PTR [esi+1]
  00018	50		 push	 eax
  00019	e8 00 00 00 00	 call	 ?SetSize@?$CArray@PAVCRegistNSupportData@@PAV1@@@QAEXHH@Z ; CArray<CRegistNSupportData *,CRegistNSupportData *>::SetSize
$LN3@SetAtGrow:

; 543  : 	m_pData[nIndex] = newElement;

  0001e	8b 4f 04	 mov	 ecx, DWORD PTR [edi+4]
  00021	8b 45 0c	 mov	 eax, DWORD PTR _newElement$[ebp]
  00024	5f		 pop	 edi
  00025	89 04 b1	 mov	 DWORD PTR [ecx+esi*4], eax
  00028	5e		 pop	 esi

; 544  : }

  00029	5d		 pop	 ebp
  0002a	c2 08 00	 ret	 8
$LN7@SetAtGrow:

; 539  : 		AfxThrowInvalidArgException();

  0002d	e8 00 00 00 00	 call	 ?AfxThrowInvalidArgException@@YGXXZ ; AfxThrowInvalidArgException
$LN5@SetAtGrow:
  00032	cc		 int	 3
?SetAtGrow@?$CArray@PAVCRegistNSupportData@@PAV1@@@QAEXHPAVCRegistNSupportData@@@Z ENDP ; CArray<CRegistNSupportData *,CRegistNSupportData *>::SetAtGrow
_TEXT	ENDS
; Function compile flags: /Ogtp
; File C:\Program Files (x86)\Microsoft Visual Studio\2019\Community\VC\Tools\MSVC\14.29.30133\atlmfc\include\afxtempl.h
; File C:\Program Files (x86)\Windows Kits\10\Include\10.0.22000.0\ucrt\corecrt_memcpy_s.h
; File C:\Program Files (x86)\Microsoft Visual Studio\2019\Community\VC\Tools\MSVC\14.29.30133\atlmfc\include\afxtempl.h
; File C:\Program Files (x86)\Windows Kits\10\Include\10.0.22000.0\ucrt\corecrt_memcpy_s.h
; File C:\Program Files (x86)\Microsoft Visual Studio\2019\Community\VC\Tools\MSVC\14.29.30133\atlmfc\include\afx.h
; File C:\Program Files (x86)\Microsoft Visual Studio\2019\Community\VC\Tools\MSVC\14.29.30133\atlmfc\include\afxtempl.h
;	COMDAT ?SetSize@?$CArray@PAVCRegistNSupportData@@PAV1@@@QAEXHH@Z
_TEXT	SEGMENT
__N$1$ = -8						; size = 4
__S1max$1$ = -4						; size = 4
__S2$1$ = 8						; size = 4
_nNewSize$ = 8						; size = 4
_pNewData$1$ = 12					; size = 4
_nGrowBy$ = 12						; size = 4
?SetSize@?$CArray@PAVCRegistNSupportData@@PAV1@@@QAEXHH@Z PROC ; CArray<CRegistNSupportData *,CRegistNSupportData *>::SetSize, COMDAT
; _this$ = ecx

; 368  : {

  00000	55		 push	 ebp
  00001	8b ec		 mov	 ebp, esp
  00003	83 ec 08	 sub	 esp, 8
  00006	53		 push	 ebx
  00007	56		 push	 esi

; 369  : 	ASSERT_VALID(this);
; 370  : 	ASSERT(nNewSize >= 0);
; 371  : 
; 372  : 	if(nNewSize < 0 )

  00008	8b 75 08	 mov	 esi, DWORD PTR _nNewSize$[ebp]
  0000b	8b d9		 mov	 ebx, ecx
  0000d	57		 push	 edi
  0000e	85 f6		 test	 esi, esi
  00010	0f 88 9a 01 00
	00		 js	 $LN56@SetSize

; 373  : 		AfxThrowInvalidArgException();
; 374  : 
; 375  : 	if (nGrowBy >= 0)

  00016	8b 45 0c	 mov	 eax, DWORD PTR _nGrowBy$[ebp]
  00019	85 c0		 test	 eax, eax
  0001b	78 03		 js	 SHORT $LN82@SetSize

; 376  : 		m_nGrowBy = nGrowBy;  // set new size

  0001d	89 43 10	 mov	 DWORD PTR [ebx+16], eax
$LN82@SetSize:

; 377  : 
; 378  : 	if (nNewSize == 0)

  00020	8b 4b 04	 mov	 ecx, DWORD PTR [ebx+4]
  00023	85 f6		 test	 esi, esi
  00025	75 27		 jne	 SHORT $LN19@SetSize

; 379  : 	{
; 380  : 		// shrink to nothing
; 381  : 		if (m_pData != NULL)

  00027	85 c9		 test	 ecx, ecx
  00029	74 0c		 je	 SHORT $LN21@SetSize

; 382  : 		{
; 383  : 			for( int i = 0; i < m_nSize; i++ )
; 384  : 				(m_pData + i)->~TYPE();
; 385  : 			delete[] (BYTE*)m_pData;

  0002b	51		 push	 ecx
  0002c	e8 00 00 00 00	 call	 ??_V@YAXPAX@Z		; operator delete[]
  00031	83 c4 04	 add	 esp, 4

; 386  : 			m_pData = NULL;

  00034	89 73 04	 mov	 DWORD PTR [ebx+4], esi
$LN21@SetSize:

; 475  : }

  00037	5f		 pop	 edi
  00038	5e		 pop	 esi
  00039	c7 43 0c 00 00
	00 00		 mov	 DWORD PTR [ebx+12], 0
  00040	c7 43 08 00 00
	00 00		 mov	 DWORD PTR [ebx+8], 0
  00047	5b		 pop	 ebx
  00048	8b e5		 mov	 esp, ebp
  0004a	5d		 pop	 ebp
  0004b	c2 08 00	 ret	 8
$LN19@SetSize:

; 387  : 		}
; 388  : 		m_nSize = m_nMaxSize = 0;
; 389  : 	}
; 390  : 	else if (m_pData == NULL)

  0004e	85 c9		 test	 ecx, ecx
  00050	75 36		 jne	 SHORT $LN22@SetSize

; 391  : 	{
; 392  : 		// create buffer big enough to hold number of requested elements or
; 393  : 		// m_nGrowBy elements, whichever is larger.
; 394  : #ifdef SIZE_T_MAX
; 395  : 		ASSERT(nNewSize <= SIZE_T_MAX/sizeof(TYPE));    // no overflow
; 396  : #endif
; 397  : 		size_t nAllocSize = __max(nNewSize, m_nGrowBy);

  00052	8b 7b 10	 mov	 edi, DWORD PTR [ebx+16]
  00055	3b f7		 cmp	 esi, edi
  00057	0f 4f fe	 cmovg	 edi, esi

; 398  : 		m_pData = (TYPE*) new BYTE[(size_t)nAllocSize * sizeof(TYPE)];

  0005a	8d 34 bd 00 00
	00 00		 lea	 esi, DWORD PTR [edi*4]
  00061	56		 push	 esi
  00062	e8 00 00 00 00	 call	 ??_U@YAPAXI@Z		; operator new[]

; 399  : 		memset((void*)m_pData, 0, (size_t)nAllocSize * sizeof(TYPE));

  00067	56		 push	 esi
  00068	6a 00		 push	 0
  0006a	50		 push	 eax
  0006b	89 43 04	 mov	 DWORD PTR [ebx+4], eax
  0006e	e8 00 00 00 00	 call	 _memset

; 400  : 		for( int i = 0; i < nNewSize; i++ )
; 401  : #pragma push_macro("new")
; 402  : #undef new
; 403  : 			::new( (void*)( m_pData + i ) ) TYPE;
; 404  : #pragma pop_macro("new")
; 405  : 		m_nSize = nNewSize;

  00073	8b 45 08	 mov	 eax, DWORD PTR _nNewSize$[ebp]
  00076	83 c4 10	 add	 esp, 16			; 00000010H

; 475  : }

  00079	89 7b 0c	 mov	 DWORD PTR [ebx+12], edi
  0007c	89 43 08	 mov	 DWORD PTR [ebx+8], eax
  0007f	5f		 pop	 edi
  00080	5e		 pop	 esi
  00081	5b		 pop	 ebx
  00082	8b e5		 mov	 esp, ebp
  00084	5d		 pop	 ebp
  00085	c2 08 00	 ret	 8
$LN22@SetSize:

; 406  : 		m_nMaxSize = nAllocSize;
; 407  : 	}
; 408  : 	else if (nNewSize <= m_nMaxSize)

  00088	8b 7b 0c	 mov	 edi, DWORD PTR [ebx+12]
  0008b	3b f7		 cmp	 esi, edi
  0008d	7f 29		 jg	 SHORT $LN24@SetSize

; 409  : 	{
; 410  : 		// it fits
; 411  : 		if (nNewSize > m_nSize)

  0008f	8b 53 08	 mov	 edx, DWORD PTR [ebx+8]
  00092	3b f2		 cmp	 esi, edx
  00094	7e 16		 jle	 SHORT $LN26@SetSize

; 412  : 		{
; 413  : 			// initialize the new elements
; 414  : 			memset((void*)(m_pData + m_nSize), 0, (size_t)(nNewSize-m_nSize) * sizeof(TYPE));

  00096	8b c6		 mov	 eax, esi
  00098	2b c2		 sub	 eax, edx
  0009a	c1 e0 02	 shl	 eax, 2
  0009d	50		 push	 eax
  0009e	8d 04 91	 lea	 eax, DWORD PTR [ecx+edx*4]
  000a1	6a 00		 push	 0
  000a3	50		 push	 eax
  000a4	e8 00 00 00 00	 call	 _memset
  000a9	83 c4 0c	 add	 esp, 12			; 0000000cH
$LN26@SetSize:

; 415  : 			for( int i = 0; i < nNewSize-m_nSize; i++ )
; 416  : #pragma push_macro("new")
; 417  : #undef new
; 418  : 				::new( (void*)( m_pData + m_nSize + i ) ) TYPE;
; 419  : #pragma pop_macro("new")
; 420  : 		}
; 421  : 		else if (m_nSize > nNewSize)
; 422  : 		{
; 423  : 			// destroy the old elements
; 424  : 			for( int i = 0; i < m_nSize-nNewSize; i++ )
; 425  : 				(m_pData + nNewSize + i)->~TYPE();
; 426  : 		}
; 427  : 		m_nSize = nNewSize;

  000ac	5f		 pop	 edi
  000ad	89 73 08	 mov	 DWORD PTR [ebx+8], esi

; 475  : }

  000b0	5e		 pop	 esi
  000b1	5b		 pop	 ebx
  000b2	8b e5		 mov	 esp, ebp
  000b4	5d		 pop	 ebp
  000b5	c2 08 00	 ret	 8
$LN24@SetSize:

; 428  : 	}
; 429  : 	else
; 430  : 	{
; 431  : 		// otherwise, grow array
; 432  : 		nGrowBy = m_nGrowBy;

  000b8	8b 43 10	 mov	 eax, DWORD PTR [ebx+16]

; 433  : 		if (nGrowBy == 0)

  000bb	85 c0		 test	 eax, eax
  000bd	75 22		 jne	 SHORT $LN37@SetSize

; 434  : 		{
; 435  : 			// heuristically determine growth when nGrowBy == 0
; 436  : 			//  (this avoids heap fragmentation in many situations)
; 437  : 			nGrowBy = m_nSize / 8;

  000bf	8b 43 08	 mov	 eax, DWORD PTR [ebx+8]
  000c2	99		 cdq
  000c3	83 e2 07	 and	 edx, 7
  000c6	03 c2		 add	 eax, edx
  000c8	c1 f8 03	 sar	 eax, 3

; 438  : 			nGrowBy = (nGrowBy < 4) ? 4 : ((nGrowBy > 1024) ? 1024 : nGrowBy);

  000cb	83 f8 04	 cmp	 eax, 4
  000ce	7d 07		 jge	 SHORT $LN36@SetSize
  000d0	b8 04 00 00 00	 mov	 eax, 4
  000d5	eb 0a		 jmp	 SHORT $LN37@SetSize
$LN36@SetSize:
  000d7	b9 00 04 00 00	 mov	 ecx, 1024		; 00000400H
  000dc	3b c1		 cmp	 eax, ecx
  000de	0f 4f c1	 cmovg	 eax, ecx
$LN37@SetSize:

; 439  : 		}
; 440  : 		INT_PTR nNewMax;
; 441  : 		if (nNewSize < m_nMaxSize + nGrowBy)

  000e1	03 f8		 add	 edi, eax
  000e3	3b f7		 cmp	 esi, edi
  000e5	7d 0b		 jge	 SHORT $LN30@SetSize

; 445  : 
; 446  : 		ASSERT(nNewMax >= m_nMaxSize);  // no wrap around
; 447  : 
; 448  : 		if(nNewMax  < m_nMaxSize)

  000e7	3b 7b 0c	 cmp	 edi, DWORD PTR [ebx+12]
  000ea	0f 8c c0 00 00
	00		 jl	 $LN56@SetSize
  000f0	eb 02		 jmp	 SHORT $LN32@SetSize
$LN30@SetSize:

; 442  : 			nNewMax = m_nMaxSize + nGrowBy;  // granularity
; 443  : 		else
; 444  : 			nNewMax = nNewSize;  // no slush

  000f2	8b fe		 mov	 edi, esi
$LN32@SetSize:

; 449  : 			AfxThrowInvalidArgException();
; 450  : 
; 451  : #ifdef SIZE_T_MAX
; 452  : 		ASSERT(nNewMax <= SIZE_T_MAX/sizeof(TYPE)); // no overflow
; 453  : #endif
; 454  : 		TYPE* pNewData = (TYPE*) new BYTE[(size_t)nNewMax * sizeof(TYPE)];

  000f4	8d 04 bd 00 00
	00 00		 lea	 eax, DWORD PTR [edi*4]
  000fb	50		 push	 eax
  000fc	89 45 fc	 mov	 DWORD PTR __S1max$1$[ebp], eax
  000ff	e8 00 00 00 00	 call	 ??_U@YAPAXI@Z		; operator new[]

; 455  : 
; 456  : 		// copy new data from old
; 457  : 		::ATL::Checked::memcpy_s(pNewData, (size_t)nNewMax * sizeof(TYPE),

  00104	8b 4b 08	 mov	 ecx, DWORD PTR [ebx+8]
  00107	83 c4 04	 add	 esp, 4
  0010a	8b 53 04	 mov	 edx, DWORD PTR [ebx+4]
  0010d	c1 e1 02	 shl	 ecx, 2
  00110	89 45 0c	 mov	 DWORD PTR _pNewData$1$[ebp], eax
  00113	89 4d f8	 mov	 DWORD PTR __N$1$[ebp], ecx
  00116	89 55 08	 mov	 DWORD PTR __S2$1$[ebp], edx
; File C:\Program Files (x86)\Windows Kits\10\Include\10.0.22000.0\ucrt\corecrt_memcpy_s.h

; 46   :         if (_SourceSize == 0)

  00119	85 c9		 test	 ecx, ecx
  0011b	74 20		 je	 SHORT $LN54@SetSize

; 47   :         {
; 48   :             return 0;
; 49   :         }
; 50   : 
; 51   :         _CRT_MEMCPY_S_VALIDATE_RETURN_ERRCODE(_Destination != NULL, EINVAL);

  0011d	85 c0		 test	 eax, eax
  0011f	74 7d		 je	 SHORT $LN84@SetSize

; 52   :         if (_Source == NULL || _DestinationSize < _SourceSize)

  00121	85 d2		 test	 edx, edx
  00123	74 51		 je	 SHORT $LN76@SetSize
  00125	8d 14 bd 00 00
	00 00		 lea	 edx, DWORD PTR [edi*4]
  0012c	3b d1		 cmp	 edx, ecx
  0012e	72 46		 jb	 SHORT $LN76@SetSize

; 58   : 
; 59   :             // Unreachable, but required to suppress /analyze warnings:
; 60   :             return EINVAL;
; 61   :         }
; 62   :         memcpy(_Destination, _Source, _SourceSize);

  00130	51		 push	 ecx
  00131	ff 75 08	 push	 DWORD PTR __S2$1$[ebp]
  00134	50		 push	 eax
  00135	e8 00 00 00 00	 call	 _memcpy
  0013a	83 c4 0c	 add	 esp, 12			; 0000000cH
$LN54@SetSize:
; File C:\Program Files (x86)\Microsoft Visual Studio\2019\Community\VC\Tools\MSVC\14.29.30133\atlmfc\include\afxtempl.h

; 462  : 		memset((void*)(pNewData + m_nSize), 0, (size_t)(nNewSize-m_nSize) * sizeof(TYPE));

  0013d	8b 4b 08	 mov	 ecx, DWORD PTR [ebx+8]
  00140	8b c6		 mov	 eax, esi
  00142	2b c1		 sub	 eax, ecx
  00144	c1 e0 02	 shl	 eax, 2
  00147	50		 push	 eax
  00148	8b 45 0c	 mov	 eax, DWORD PTR _pNewData$1$[ebp]
  0014b	6a 00		 push	 0
  0014d	8d 04 88	 lea	 eax, DWORD PTR [eax+ecx*4]
  00150	50		 push	 eax
  00151	e8 00 00 00 00	 call	 _memset

; 463  : 		for( int i = 0; i < nNewSize-m_nSize; i++ )
; 464  : #pragma push_macro("new")
; 465  : #undef new
; 466  : 			::new( (void*)( pNewData + m_nSize + i ) ) TYPE;
; 467  : #pragma pop_macro("new")
; 468  : 
; 469  : 		// get rid of old stuff (note: no destructors called)
; 470  : 		delete[] (BYTE*)m_pData;

  00156	ff 73 04	 push	 DWORD PTR [ebx+4]
  00159	e8 00 00 00 00	 call	 ??_V@YAXPAX@Z		; operator delete[]

; 471  : 		m_pData = pNewData;

  0015e	8b 45 0c	 mov	 eax, DWORD PTR _pNewData$1$[ebp]
  00161	83 c4 10	 add	 esp, 16			; 00000010H

; 475  : }

  00164	89 7b 0c	 mov	 DWORD PTR [ebx+12], edi
  00167	89 73 08	 mov	 DWORD PTR [ebx+8], esi
  0016a	89 43 04	 mov	 DWORD PTR [ebx+4], eax
  0016d	5f		 pop	 edi
  0016e	5e		 pop	 esi
  0016f	5b		 pop	 ebx
  00170	8b e5		 mov	 esp, ebp
  00172	5d		 pop	 ebp
  00173	c2 08 00	 ret	 8
$LN76@SetSize:
; File C:\Program Files (x86)\Windows Kits\10\Include\10.0.22000.0\ucrt\corecrt_memcpy_s.h

; 54   :             memset(_Destination, 0, _DestinationSize);

  00176	8b 5d fc	 mov	 ebx, DWORD PTR __S1max$1$[ebp]
  00179	53		 push	 ebx
  0017a	6a 00		 push	 0
  0017c	50		 push	 eax
  0017d	e8 00 00 00 00	 call	 _memset
  00182	83 c4 0c	 add	 esp, 12			; 0000000cH

; 55   : 
; 56   :             _CRT_MEMCPY_S_VALIDATE_RETURN_ERRCODE(_Source != NULL,                 EINVAL);

  00185	83 7d 08 00	 cmp	 DWORD PTR __S2$1$[ebp], 0
  00189	74 13		 je	 SHORT $LN84@SetSize

; 57   :             _CRT_MEMCPY_S_VALIDATE_RETURN_ERRCODE(_DestinationSize >= _SourceSize, ERANGE);

  0018b	3b 5d f8	 cmp	 ebx, DWORD PTR __N$1$[ebp]
  0018e	73 20		 jae	 SHORT $LN56@SetSize
  00190	ff 15 00 00 00
	00		 call	 DWORD PTR __imp___errno
  00196	c7 00 22 00 00
	00		 mov	 DWORD PTR [eax], 34	; 00000022H
  0019c	eb 0c		 jmp	 SHORT $LN85@SetSize
$LN84@SetSize:
; File C:\Program Files (x86)\Microsoft Visual Studio\2019\Community\VC\Tools\MSVC\14.29.30133\atlmfc\include\afx.h

; 517  : 		AfxThrowInvalidArgException();

  0019e	ff 15 00 00 00
	00		 call	 DWORD PTR __imp___errno
  001a4	c7 00 16 00 00
	00		 mov	 DWORD PTR [eax], 22	; 00000016H
$LN85@SetSize:
  001aa	ff 15 00 00 00
	00		 call	 DWORD PTR __imp___invalid_parameter_noinfo
$LN56@SetSize:
  001b0	e8 00 00 00 00	 call	 ?AfxThrowInvalidArgException@@YGXXZ ; AfxThrowInvalidArgException
$LN83@SetSize:
  001b5	cc		 int	 3
?SetSize@?$CArray@PAVCRegistNSupportData@@PAV1@@@QAEXHH@Z ENDP ; CArray<CRegistNSupportData *,CRegistNSupportData *>::SetSize
_TEXT	ENDS
; Function compile flags: /Ogtp
; File D:\git\src\IBK\IBK_DRFN\ProjSrc\SrcChartEx\ChartAddIn\ChartPatternAddIn\Include_Chart\Dll_Load\IMetaTable.h
; File C:\Program Files (x86)\Microsoft Visual Studio\2019\Community\VC\Tools\MSVC\14.29.30133\atlmfc\include\afxwin1.inl
; File D:\git\src\IBK\IBK_DRFN\ProjSrc\SrcChartEx\ChartAddIn\ChartPatternAddIn\Include_Chart\Dll_Load\IMetaTable.h
;	COMDAT ??1CMultiLanguageResourceSetter@@QAE@XZ
_TEXT	SEGMENT
__$EHRec$ = -12						; size = 12
??1CMultiLanguageResourceSetter@@QAE@XZ PROC		; CMultiLanguageResourceSetter::~CMultiLanguageResourceSetter, COMDAT
; _this$ = ecx

; 1035 : 	{

  00000	55		 push	 ebp
  00001	8b ec		 mov	 ebp, esp
  00003	6a ff		 push	 -1
  00005	68 00 00 00 00	 push	 __ehhandler$??1CMultiLanguageResourceSetter@@QAE@XZ
  0000a	64 a1 00 00 00
	00		 mov	 eax, DWORD PTR fs:0
  00010	50		 push	 eax
  00011	56		 push	 esi
  00012	a1 00 00 00 00	 mov	 eax, DWORD PTR ___security_cookie
  00017	33 c5		 xor	 eax, ebp
  00019	50		 push	 eax
  0001a	8d 45 f4	 lea	 eax, DWORD PTR __$EHRec$[ebp]
  0001d	64 a3 00 00 00
	00		 mov	 DWORD PTR fs:0, eax

; 1036 : 		AfxSetResourceHandle( m_hInstance);

  00023	8b 31		 mov	 esi, DWORD PTR [ecx]
; File C:\Program Files (x86)\Microsoft Visual Studio\2019\Community\VC\Tools\MSVC\14.29.30133\atlmfc\include\afxwin1.inl

; 27   : 	{ ASSERT(hInstResource != NULL); afxCurrentResourceHandle = hInstResource; }

  00025	e8 00 00 00 00	 call	 ?AfxGetModuleState@@YGPAVAFX_MODULE_STATE@@XZ ; AfxGetModuleState
  0002a	89 70 0c	 mov	 DWORD PTR [eax+12], esi
; File D:\git\src\IBK\IBK_DRFN\ProjSrc\SrcChartEx\ChartAddIn\ChartPatternAddIn\Include_Chart\Dll_Load\IMetaTable.h

; 1037 : 	}

  0002d	8b 4d f4	 mov	 ecx, DWORD PTR __$EHRec$[ebp]
  00030	64 89 0d 00 00
	00 00		 mov	 DWORD PTR fs:0, ecx
  00037	59		 pop	 ecx
  00038	5e		 pop	 esi
  00039	8b e5		 mov	 esp, ebp
  0003b	5d		 pop	 ebp
  0003c	c3		 ret	 0
  0003d	cc		 int	 3
  0003e	cc		 int	 3
  0003f	cc		 int	 3
  00040	cc		 int	 3
  00041	cc		 int	 3
_TEXT	ENDS
;	COMDAT text$x
text$x	SEGMENT
__ehhandler$??1CMultiLanguageResourceSetter@@QAE@XZ:
  00000	90		 npad	 1
  00001	90		 npad	 1
  00002	8b 54 24 08	 mov	 edx, DWORD PTR [esp+8]
  00006	8d 42 0c	 lea	 eax, DWORD PTR [edx+12]
  00009	8b 4a f8	 mov	 ecx, DWORD PTR [edx-8]
  0000c	33 c8		 xor	 ecx, eax
  0000e	e8 00 00 00 00	 call	 @__security_check_cookie@4
  00013	b8 00 00 00 00	 mov	 eax, OFFSET __ehfuncinfo$??1CMultiLanguageResourceSetter@@QAE@XZ
  00018	e9 00 00 00 00	 jmp	 ___CxxFrameHandler3
text$x	ENDS
??1CMultiLanguageResourceSetter@@QAE@XZ ENDP		; CMultiLanguageResourceSetter::~CMultiLanguageResourceSetter
; Function compile flags: /Ogtp
; File D:\git\src\IBK\IBK_DRFN\ProjSrc\SrcChartEx\ChartAddIn\ChartPatternAddIn\Include_Chart\Dll_Load\IMetaTable.h
;	COMDAT ?LoadResourceDLL@IMetaTable@@QAEPAUHINSTANCE__@@PAUHWND__@@PAU2@@Z
_TEXT	SEGMENT
_p1$ = 8						; size = 4
_p2$ = 12						; size = 4
?LoadResourceDLL@IMetaTable@@QAEPAUHINSTANCE__@@PAUHWND__@@PAU2@@Z PROC ; IMetaTable::LoadResourceDLL, COMDAT
; _this$ = ecx

; 935  : 	DECLARE_FUNCTION2(	LoadResourceDLL,				HMODULE, AfxGetStaticModuleState()->m_hCurrentInstanceHandle, HWND, HMODULE);

  00000	55		 push	 ebp
  00001	8b ec		 mov	 ebp, esp
  00003	56		 push	 esi
  00004	8b f1		 mov	 esi, ecx
  00006	8b 46 04	 mov	 eax, DWORD PTR [esi+4]
  00009	85 c0		 test	 eax, eax
  0000b	74 4d		 je	 SHORT $LN4@LoadResour
  0000d	57		 push	 edi
  0000e	bf 80 0d 00 00	 mov	 edi, 3456		; 00000d80H
  00013	66 3b be 94 00
	00 00		 cmp	 di, WORD PTR [esi+148]
  0001a	74 23		 je	 SHORT $LN3@LoadResour
  0001c	68 00 00 00 00	 push	 OFFSET ??_C@_0BA@ENJOCHIO@LoadResourceDLL@
  00021	50		 push	 eax
  00022	c7 86 90 00 00
	00 00 00 00 00	 mov	 DWORD PTR [esi+144], 0
  0002c	ff 15 00 00 00
	00		 call	 DWORD PTR __imp__GetProcAddress@8
  00032	89 86 90 00 00
	00		 mov	 DWORD PTR [esi+144], eax
  00038	66 89 be 94 00
	00 00		 mov	 WORD PTR [esi+148], di
$LN3@LoadResour:
  0003f	8b 86 90 00 00
	00		 mov	 eax, DWORD PTR [esi+144]
  00045	5f		 pop	 edi
  00046	85 c0		 test	 eax, eax
  00048	74 10		 je	 SHORT $LN4@LoadResour
  0004a	ff 75 0c	 push	 DWORD PTR _p2$[ebp]
  0004d	ff 75 08	 push	 DWORD PTR _p1$[ebp]
  00050	ff d0		 call	 eax
  00052	83 c4 08	 add	 esp, 8
  00055	5e		 pop	 esi
  00056	5d		 pop	 ebp
  00057	c2 08 00	 ret	 8
$LN4@LoadResour:
  0005a	e8 00 00 00 00	 call	 ?AfxGetStaticModuleState@@YGPAVAFX_MODULE_STATE@@XZ ; AfxGetStaticModuleState
  0005f	5e		 pop	 esi
  00060	8b 40 08	 mov	 eax, DWORD PTR [eax+8]
  00063	5d		 pop	 ebp
  00064	c2 08 00	 ret	 8
?LoadResourceDLL@IMetaTable@@QAEPAUHINSTANCE__@@PAUHWND__@@PAU2@@Z ENDP ; IMetaTable::LoadResourceDLL
_TEXT	ENDS
; Function compile flags: /Ogtp
; File C:\Program Files (x86)\Microsoft Visual Studio\2019\Community\VC\Tools\MSVC\14.29.30133\atlmfc\include\afx.inl
;	COMDAT ??_GCWavePattern@@UAEPAXI@Z
_TEXT	SEGMENT
___flags$ = 8						; size = 4
??_GCWavePattern@@UAEPAXI@Z PROC			; CWavePattern::`scalar deleting destructor', COMDAT
; _this$ = ecx
  00000	55		 push	 ebp
  00001	8b ec		 mov	 ebp, esp
  00003	8b 45 08	 mov	 eax, DWORD PTR ___flags$[ebp]
  00006	56		 push	 esi
  00007	8b f1		 mov	 esi, ecx
  00009	c7 06 00 00 00
	00		 mov	 DWORD PTR [esi], OFFSET ??_7CWavePattern@@6B@
  0000f	a8 01		 test	 al, 1
  00011	74 1f		 je	 SHORT $LN9@scalar
  00013	a8 04		 test	 al, 4
  00015	75 10		 jne	 SHORT $LN3@scalar

; 112  : 	{ ::operator delete(p); }

  00017	56		 push	 esi
  00018	e8 00 00 00 00	 call	 ??3@YAXPAX@Z		; operator delete
  0001d	83 c4 04	 add	 esp, 4
  00020	8b c6		 mov	 eax, esi
  00022	5e		 pop	 esi
  00023	5d		 pop	 ebp
  00024	c2 04 00	 ret	 4
$LN3@scalar:
  00027	6a 08		 push	 8
  00029	56		 push	 esi
  0002a	e8 00 00 00 00	 call	 ?__global_delete@@YAXPAXI@Z ; __global_delete
  0002f	83 c4 08	 add	 esp, 8
$LN9@scalar:
  00032	8b c6		 mov	 eax, esi
  00034	5e		 pop	 esi
  00035	5d		 pop	 ebp
  00036	c2 04 00	 ret	 4
??_GCWavePattern@@UAEPAXI@Z ENDP			; CWavePattern::`scalar deleting destructor'
_TEXT	ENDS
; Function compile flags: /Ogtp
; File D:\git\src\IBK\IBK_DRFN\ProjSrc\SrcChartEx\ChartAddIn\ChartPatternAddIn\WavePattern.cpp
;	COMDAT ?GetModifyGradient@CWavePattern@@QAENNNNN@Z
_TEXT	SEGMENT
_dGradient$ = -8					; size = 8
_dXPos1$ = 8						; size = 8
_dYPos1$ = 16						; size = 8
_dXPos2$ = 24						; size = 8
_dYPos2$ = 32						; size = 8
?GetModifyGradient@CWavePattern@@QAENNNNN@Z PROC	; CWavePattern::GetModifyGradient, COMDAT
; _this$ = ecx

; 2455 : {

  00000	55		 push	 ebp
  00001	8b ec		 mov	 ebp, esp
  00003	83 ec 08	 sub	 esp, 8

; 2456 : 	double	dGradient=0;
; 2457 : 
; 2458 : 	if( (dXPos2 - dXPos1) != 0 && (dYPos1 != 0))

  00006	f2 0f 10 55 18	 movsd	 xmm2, QWORD PTR _dXPos2$[ebp]
  0000b	0f 57 c0	 xorps	 xmm0, xmm0
  0000e	f2 0f 5c 55 08	 subsd	 xmm2, QWORD PTR _dXPos1$[ebp]
  00013	f2 0f 11 45 f8	 movsd	 QWORD PTR _dGradient$[ebp], xmm0
  00018	66 0f 2e d0	 ucomisd xmm2, xmm0
  0001c	9f		 lahf
  0001d	f6 c4 44	 test	 ah, 68			; 00000044H
  00020	7b 2d		 jnp	 SHORT $LN4@GetModifyG
  00022	f2 0f 10 4d 10	 movsd	 xmm1, QWORD PTR _dYPos1$[ebp]
  00027	66 0f 2e c8	 ucomisd xmm1, xmm0
  0002b	9f		 lahf
  0002c	f6 c4 44	 test	 ah, 68			; 00000044H
  0002f	7b 1e		 jnp	 SHORT $LN4@GetModifyG

; 2459 : 	{
; 2460 : 		dGradient = (dYPos2 - dYPos1) / dYPos1 / (dXPos2 - dXPos1) * 100;

  00031	f2 0f 10 45 20	 movsd	 xmm0, QWORD PTR _dYPos2$[ebp]
  00036	f2 0f 5c c1	 subsd	 xmm0, xmm1
  0003a	f2 0f 5e c1	 divsd	 xmm0, xmm1
  0003e	f2 0f 5e c2	 divsd	 xmm0, xmm2
  00042	f2 0f 59 05 00
	00 00 00	 mulsd	 xmm0, QWORD PTR __real@4059000000000000
  0004a	f2 0f 11 45 f8	 movsd	 QWORD PTR _dGradient$[ebp], xmm0
$LN4@GetModifyG:

; 2461 : 	}
; 2462 : 
; 2463 : 	return dGradient;
; 2464 : }

  0004f	dd 45 f8	 fld	 QWORD PTR _dGradient$[ebp]
  00052	8b e5		 mov	 esp, ebp
  00054	5d		 pop	 ebp
  00055	c2 20 00	 ret	 32			; 00000020H
?GetModifyGradient@CWavePattern@@QAENNNNN@Z ENDP	; CWavePattern::GetModifyGradient
_TEXT	ENDS
; Function compile flags: /Ogtp
; File D:\git\src\IBK\IBK_DRFN\ProjSrc\SrcChartEx\ChartAddIn\ChartPatternAddIn\WavePattern.cpp
;	COMDAT ?GetGradient@CWavePattern@@QAENNNNN@Z
_TEXT	SEGMENT
_dGradient$ = -8					; size = 8
_dXPos1$ = 8						; size = 8
_dYPos1$ = 16						; size = 8
_dXPos2$ = 24						; size = 8
_dYPos2$ = 32						; size = 8
?GetGradient@CWavePattern@@QAENNNNN@Z PROC		; CWavePattern::GetGradient, COMDAT
; _this$ = ecx

; 2443 : {

  00000	55		 push	 ebp
  00001	8b ec		 mov	 ebp, esp
  00003	83 ec 08	 sub	 esp, 8

; 2444 : 	double dGradient=0;
; 2445 : 
; 2446 : 	if( (dXPos2 - dXPos1) != 0)

  00006	f2 0f 10 4d 18	 movsd	 xmm1, QWORD PTR _dXPos2$[ebp]
  0000b	0f 57 c0	 xorps	 xmm0, xmm0
  0000e	f2 0f 5c 4d 08	 subsd	 xmm1, QWORD PTR _dXPos1$[ebp]
  00013	f2 0f 11 45 f8	 movsd	 QWORD PTR _dGradient$[ebp], xmm0
  00018	66 0f 2e c8	 ucomisd xmm1, xmm0
  0001c	9f		 lahf
  0001d	f6 c4 44	 test	 ah, 68			; 00000044H
  00020	7b 13		 jnp	 SHORT $LN4@GetGradien

; 2447 : 	{
; 2448 : 		dGradient = (dYPos2 - dYPos1) / (dXPos2 - dXPos1);

  00022	f2 0f 10 45 20	 movsd	 xmm0, QWORD PTR _dYPos2$[ebp]
  00027	f2 0f 5c 45 10	 subsd	 xmm0, QWORD PTR _dYPos1$[ebp]
  0002c	f2 0f 5e c1	 divsd	 xmm0, xmm1
  00030	f2 0f 11 45 f8	 movsd	 QWORD PTR _dGradient$[ebp], xmm0
$LN4@GetGradien:

; 2449 : 	}
; 2450 : 
; 2451 : 	return dGradient;
; 2452 : }

  00035	dd 45 f8	 fld	 QWORD PTR _dGradient$[ebp]
  00038	8b e5		 mov	 esp, ebp
  0003a	5d		 pop	 ebp
  0003b	c2 20 00	 ret	 32			; 00000020H
?GetGradient@CWavePattern@@QAENNNNN@Z ENDP		; CWavePattern::GetGradient
_TEXT	ENDS
; Function compile flags: /Ogtp
; File D:\git\src\IBK\IBK_DRFN\ProjSrc\SrcChartEx\ChartAddIn\ChartPatternAddIn\WavePattern.cpp
; File C:\Program Files (x86)\Microsoft Visual Studio\2019\Community\VC\Tools\MSVC\14.29.30133\atlmfc\include\afxwin1.inl
; File D:\git\src\IBK\IBK_DRFN\ProjSrc\SrcChartEx\ChartAddIn\ChartPatternAddIn\Include_Chart\Dll_Load\IMetaTable.h
; File C:\Program Files (x86)\Microsoft Visual Studio\2019\Community\VC\Tools\MSVC\14.29.30133\atlmfc\include\afxwin1.inl
; File D:\git\src\IBK\IBK_DRFN\ProjSrc\SrcChartEx\ChartAddIn\ChartPatternAddIn\WavePattern.cpp
; File D:\git\src\IBK\IBK_DRFN\ProjSrc\SrcChartEx\ChartAddIn\ChartPatternAddIn\Include_Chart\Dll_Load\IMetaTable.h
; File C:\Program Files (x86)\Microsoft Visual Studio\2019\Community\VC\Tools\MSVC\14.29.30133\atlmfc\include\afxwin1.inl
; File D:\git\src\IBK\IBK_DRFN\ProjSrc\SrcChartEx\ChartAddIn\ChartPatternAddIn\WavePattern.cpp
;	COMDAT ?GetPatternTrendName@CWavePattern@@QAE?AV?$CStringT@DV?$StrTraitMFC_DLL@DV?$ChTraitsCRT@D@ATL@@@@@ATL@@H@Z
_TEXT	SEGMENT
___mlrs__$ = -20					; size = 4
$T2 = -16						; size = 4
__$EHRec$ = -12						; size = 12
___$ReturnUdt$ = 8					; size = 4
_nPatternType$ = 12					; size = 4
?GetPatternTrendName@CWavePattern@@QAE?AV?$CStringT@DV?$StrTraitMFC_DLL@DV?$ChTraitsCRT@D@ATL@@@@@ATL@@H@Z PROC ; CWavePattern::GetPatternTrendName, COMDAT
; _this$ = ecx

; 2624 : {

  00000	55		 push	 ebp
  00001	8b ec		 mov	 ebp, esp
  00003	6a ff		 push	 -1
  00005	68 00 00 00 00	 push	 __ehhandler$?GetPatternTrendName@CWavePattern@@QAE?AV?$CStringT@DV?$StrTraitMFC_DLL@DV?$ChTraitsCRT@D@ATL@@@@@ATL@@H@Z
  0000a	64 a1 00 00 00
	00		 mov	 eax, DWORD PTR fs:0
  00010	50		 push	 eax
  00011	83 ec 08	 sub	 esp, 8
  00014	53		 push	 ebx
  00015	56		 push	 esi
  00016	57		 push	 edi
  00017	a1 00 00 00 00	 mov	 eax, DWORD PTR ___security_cookie
  0001c	33 c5		 xor	 eax, ebp
  0001e	50		 push	 eax
  0001f	8d 45 f4	 lea	 eax, DWORD PTR __$EHRec$[ebp]
  00022	64 a3 00 00 00
	00		 mov	 DWORD PTR fs:0, eax
  00028	8b f1		 mov	 esi, ecx
  0002a	c7 45 fc 00 00
	00 00		 mov	 DWORD PTR __$EHRec$[ebp+8], 0
  00031	c7 45 f0 00 00
	00 00		 mov	 DWORD PTR $T2[ebp], 0

; 2625 : 	ML_SET_LANGUAGE_RES();

  00038	e8 00 00 00 00	 call	 ?AfxGetStaticModuleState@@YGPAVAFX_MODULE_STATE@@XZ ; AfxGetStaticModuleState
  0003d	b9 00 00 00 00	 mov	 ecx, OFFSET ?g_iMetaTable@@3VIMetaTable@@A ; g_iMetaTable
  00042	8b 40 08	 mov	 eax, DWORD PTR [eax+8]
  00045	50		 push	 eax
  00046	ff 76 04	 push	 DWORD PTR [esi+4]
  00049	e8 00 00 00 00	 call	 ?LoadResourceDLL@IMetaTable@@QAEPAUHINSTANCE__@@PAUHWND__@@PAU2@@Z ; IMetaTable::LoadResourceDLL
  0004e	8b f8		 mov	 edi, eax
; File C:\Program Files (x86)\Microsoft Visual Studio\2019\Community\VC\Tools\MSVC\14.29.30133\atlmfc\include\afxwin1.inl

; 25   : 		return afxCurrentResourceHandle; }

  00050	e8 00 00 00 00	 call	 ?AfxGetModuleState@@YGPAVAFX_MODULE_STATE@@XZ ; AfxGetModuleState
; File D:\git\src\IBK\IBK_DRFN\ProjSrc\SrcChartEx\ChartAddIn\ChartPatternAddIn\Include_Chart\Dll_Load\IMetaTable.h

; 1031 : 		m_hInstance = AfxGetResourceHandle();

  00055	8b 70 0c	 mov	 esi, DWORD PTR [eax+12]
  00058	89 75 ec	 mov	 DWORD PTR ___mlrs__$[ebp], esi
; File C:\Program Files (x86)\Microsoft Visual Studio\2019\Community\VC\Tools\MSVC\14.29.30133\atlmfc\include\afxwin1.inl

; 27   : 	{ ASSERT(hInstResource != NULL); afxCurrentResourceHandle = hInstResource; }

  0005b	e8 00 00 00 00	 call	 ?AfxGetModuleState@@YGPAVAFX_MODULE_STATE@@XZ ; AfxGetModuleState
  00060	89 78 0c	 mov	 DWORD PTR [eax+12], edi
; File D:\git\src\IBK\IBK_DRFN\ProjSrc\SrcChartEx\ChartAddIn\ChartPatternAddIn\WavePattern.cpp

; 2582 : 	switch (nPatternType)

  00063	8b 45 0c	 mov	 eax, DWORD PTR _nPatternType$[ebp]
  00066	33 db		 xor	 ebx, ebx
  00068	05 5f f0 ff ff	 add	 eax, -4001		; fffff05fH

; 2625 : 	ML_SET_LANGUAGE_RES();

  0006d	c7 45 fc 01 00
	00 00		 mov	 DWORD PTR __$EHRec$[ebp+8], 1

; 2582 : 	switch (nPatternType)

  00074	83 f8 13	 cmp	 eax, 19			; 00000013H
  00077	77 28		 ja	 SHORT $LN19@GetPattern
  00079	0f b6 80 00 00
	00 00		 movzx	 eax, BYTE PTR $LN47@GetPattern[eax]
  00080	ff 24 85 00 00
	00 00		 jmp	 DWORD PTR $LN48@GetPattern[eax*4]
$LN21@GetPattern:

; 2583 : 	{
; 2584 : 	case PTN_R_HEADNSHOULDER:		// Reversal Head & Shoulder		()
; 2585 : 	case PTN_R_DOUBLETOP:			// Reversal Double Top			()
; 2586 : 	case PTN_BEARISH_WIDETRIANGLE:	// Bearish Wide Triangles		()
; 2587 : 	case PTN_V_TOP:					// V Top						()
; 2588 : 		nPatternTrend = UPWARD_REVERSE;

  00087	bb b9 0b 00 00	 mov	 ebx, 3001		; 00000bb9H

; 2589 : 		break;

  0008c	eb 13		 jmp	 SHORT $LN19@GetPattern
$LN25@GetPattern:

; 2590 : 
; 2591 : 	case PTN_HEADNSHOULDER:			// Head & Shoulder				()
; 2592 : 	case PTN_DOUBLETOP:				// Double Top					()
; 2593 : 	case PTN_BULLISH_WIDETRIANGLE:	// Bullish Wide Triangles		()
; 2594 : 	case PTN_V_BOTTOM:				// V Bottom						()
; 2595 : 		nPatternTrend = DNWARD_REVERSE;

  0008e	bb ba 0b 00 00	 mov	 ebx, 3002		; 00000bbaH

; 2596 : 		break;

  00093	eb 0c		 jmp	 SHORT $LN19@GetPattern
$LN29@GetPattern:

; 2597 : 
; 2598 : 	case PTN_BULL_ISOTRIANGLE:		// Bull Isosceles Triangles		()
; 2599 : 	case PTN_BULL_TRIANGLE:			// Bull Triangles				()
; 2600 : 	case PTN_BEAR_WEDGE:			// Bear Wedge					()
; 2601 : 	case PTN_BULL_SQUAREFLAG:		// Bull Square Flag				()
; 2602 : 	case PTN_BULL_TRIANGLEFLAG:		// Bull Triangle Flag			()
; 2603 : 	case PTN_BULL_RECTANGLE:		// Bull Rectangle				()
; 2604 : 		nPatternTrend = UPWARD_CONTINUE;

  00095	bb bb 0b 00 00	 mov	 ebx, 3003		; 00000bbbH

; 2605 : 		break;

  0009a	eb 05		 jmp	 SHORT $LN19@GetPattern
$LN35@GetPattern:

; 2606 : 
; 2607 : 	case PTN_BEAR_ISOTRIANGLE:		// Bear Isosceles Triangles		()
; 2608 : 	case PTN_BEAR_TRIANGLE:			// Bear Triangles				()
; 2609 : 	case PTN_BULL_WEDGE:			// Bull Wedge					()
; 2610 : 	case PTN_BEAR_SQUAREFLAG:		// Bear Square Flag				()
; 2611 : 	case PTN_BEAR_TRIANGLEFLAG:		// Bear Triangle Flag			()
; 2612 : 	case PTN_BEAR_RECTANGLE:		// Bear Rectangle				()
; 2613 : 		nPatternTrend = DNWARD_CONTINUE;

  0009c	bb bc 0b 00 00	 mov	 ebx, 3004		; 00000bbcH
$LN19@GetPattern:

; 2626 : 
; 2627 : 	int nPatternTrend = GetPatternTrend( nPatternType);
; 2628 : 
; 2629 : 	CString strRtnName;

  000a1	8b 7d 08	 mov	 edi, DWORD PTR ___$ReturnUdt$[ebp]
  000a4	8b cf		 mov	 ecx, edi
  000a6	ff 15 00 00 00
	00		 call	 DWORD PTR __imp_??0?$CStringT@DV?$StrTraitMFC_DLL@DV?$ChTraitsCRT@D@ATL@@@@@ATL@@QAE@XZ

; 2657 : 	return strRtnName;

  000ac	68 00 00 00 00	 push	 OFFSET ??_C@_00CNPNBAHC@@
  000b1	8b cf		 mov	 ecx, edi
  000b3	c7 45 f0 01 00
	00 00		 mov	 DWORD PTR $T2[ebp], 1
  000ba	ff 15 00 00 00
	00		 call	 DWORD PTR __imp_??4?$CStringT@DV?$StrTraitMFC_DLL@DV?$ChTraitsCRT@D@ATL@@@@@ATL@@QAEAAV01@PBD@Z
  000c0	81 c3 47 f4 ff
	ff		 add	 ebx, -3001		; fffff447H
  000c6	83 fb 03	 cmp	 ebx, 3
  000c9	77 1d		 ja	 SHORT $LN2@GetPattern

; 2630 : 	strRtnName =_T("");
; 2631 : 
; 2632 : // 2008.02.20 by LYH >>
; 2633 : 	// Get Pattern Trend
; 2634 : 	switch (nPatternTrend)

  000cb	ff 24 9d 00 00
	00 00		 jmp	 DWORD PTR $LN49@GetPattern[ebx*4]
$LN4@GetPattern:

; 2635 : 	{
; 2636 : 	case UPWARD_REVERSE:
; 2637 : 		//strRtnName = STR_UPWARD_REVERSE;
; 2638 : 		strRtnName.LoadString(IDS_UPWARD_REVERSE);

  000d2	6a 06		 push	 6

; 2639 : 		break;

  000d4	eb 0a		 jmp	 SHORT $LN51@GetPattern
$LN5@GetPattern:

; 2640 : 
; 2641 : 	case DNWARD_REVERSE:
; 2642 : 		//strRtnName = STR_DNWARD_REVERSE;
; 2643 : 		strRtnName.LoadString(IDS_DOWNWARD_REVERSE);

  000d6	6a 07		 push	 7

; 2644 : 		break;

  000d8	eb 06		 jmp	 SHORT $LN51@GetPattern
$LN6@GetPattern:

; 2645 : 
; 2646 : 	case UPWARD_CONTINUE:
; 2647 : 		//strRtnName = STR_UPWARD_CONTINUE;
; 2648 : 		strRtnName.LoadString(IDS_UPWARD_CONTINUE);

  000da	6a 08		 push	 8

; 2649 : 		break;

  000dc	eb 02		 jmp	 SHORT $LN51@GetPattern
$LN7@GetPattern:

; 2650 : 
; 2651 : 	case DNWARD_CONTINUE:
; 2652 : 		//strRtnName = STR_DNWARD_CONTINUE;
; 2653 : 		strRtnName.LoadString(IDS_DOWNWARD_CONTINUE);

  000de	6a 09		 push	 9
$LN51@GetPattern:
; File D:\git\src\IBK\IBK_DRFN\ProjSrc\SrcChartEx\ChartAddIn\ChartPatternAddIn\Include_Chart\Dll_Load\IMetaTable.h

; 1035 : 	{

  000e0	8b cf		 mov	 ecx, edi
  000e2	ff 15 00 00 00
	00		 call	 DWORD PTR __imp_?LoadStringA@?$CStringT@DV?$StrTraitMFC_DLL@DV?$ChTraitsCRT@D@ATL@@@@@ATL@@QAEHI@Z
$LN2@GetPattern:
  000e8	c7 45 fc 02 00
	00 00		 mov	 DWORD PTR __$EHRec$[ebp+8], 2
; File C:\Program Files (x86)\Microsoft Visual Studio\2019\Community\VC\Tools\MSVC\14.29.30133\atlmfc\include\afxwin1.inl

; 27   : 	{ ASSERT(hInstResource != NULL); afxCurrentResourceHandle = hInstResource; }

  000ef	e8 00 00 00 00	 call	 ?AfxGetModuleState@@YGPAVAFX_MODULE_STATE@@XZ ; AfxGetModuleState
  000f4	89 70 0c	 mov	 DWORD PTR [eax+12], esi
; File D:\git\src\IBK\IBK_DRFN\ProjSrc\SrcChartEx\ChartAddIn\ChartPatternAddIn\WavePattern.cpp

; 2657 : 	return strRtnName;

  000f7	8b c7		 mov	 eax, edi

; 2658 : }

  000f9	8b 4d f4	 mov	 ecx, DWORD PTR __$EHRec$[ebp]
  000fc	64 89 0d 00 00
	00 00		 mov	 DWORD PTR fs:0, ecx
  00103	59		 pop	 ecx
  00104	5f		 pop	 edi
  00105	5e		 pop	 esi
  00106	5b		 pop	 ebx
  00107	8b e5		 mov	 esp, ebp
  00109	5d		 pop	 ebp
  0010a	c2 08 00	 ret	 8
  0010d	0f 1f 00	 npad	 3
$LN48@GetPattern:
  00110	00 00 00 00	 DD	 $LN25@GetPattern
  00114	00 00 00 00	 DD	 $LN21@GetPattern
  00118	00 00 00 00	 DD	 $LN29@GetPattern
  0011c	00 00 00 00	 DD	 $LN35@GetPattern
$LN47@GetPattern:
  00120	00		 DB	 0
  00121	01		 DB	 1
  00122	00		 DB	 0
  00123	01		 DB	 1
  00124	02		 DB	 2
  00125	03		 DB	 3
  00126	02		 DB	 2
  00127	03		 DB	 3
  00128	00		 DB	 0
  00129	01		 DB	 1
  0012a	03		 DB	 3
  0012b	02		 DB	 2
  0012c	02		 DB	 2
  0012d	03		 DB	 3
  0012e	02		 DB	 2
  0012f	03		 DB	 3
  00130	02		 DB	 2
  00131	03		 DB	 3
  00132	01		 DB	 1
  00133	00		 DB	 0
$LN49@GetPattern:
  00134	00 00 00 00	 DD	 $LN4@GetPattern
  00138	00 00 00 00	 DD	 $LN5@GetPattern
  0013c	00 00 00 00	 DD	 $LN6@GetPattern
  00140	00 00 00 00	 DD	 $LN7@GetPattern
_TEXT	ENDS
;	COMDAT text$x
text$x	SEGMENT
__unwindfunclet$?GetPatternTrendName@CWavePattern@@QAE?AV?$CStringT@DV?$StrTraitMFC_DLL@DV?$ChTraitsCRT@D@ATL@@@@@ATL@@H@Z$0:
  00000	8d 4d ec	 lea	 ecx, DWORD PTR ___mlrs__$[ebp]
  00003	e9 00 00 00 00	 jmp	 ??1CMultiLanguageResourceSetter@@QAE@XZ ; CMultiLanguageResourceSetter::~CMultiLanguageResourceSetter
__unwindfunclet$?GetPatternTrendName@CWavePattern@@QAE?AV?$CStringT@DV?$StrTraitMFC_DLL@DV?$ChTraitsCRT@D@ATL@@@@@ATL@@H@Z$1:
  00008	8b 45 f0	 mov	 eax, DWORD PTR $T2[ebp]
  0000b	83 e0 01	 and	 eax, 1
  0000e	0f 84 0d 00 00
	00		 je	 $LN11@GetPattern
  00014	83 65 f0 fe	 and	 DWORD PTR $T2[ebp], -2	; fffffffeH
  00018	8b 4d 08	 mov	 ecx, DWORD PTR ___$ReturnUdt$[ebp]
  0001b	ff 25 00 00 00
	00		 jmp	 DWORD PTR __imp_??1?$CStringT@DV?$StrTraitMFC_DLL@DV?$ChTraitsCRT@D@ATL@@@@@ATL@@QAE@XZ
$LN11@GetPattern:
  00021	c3		 ret	 0
  00022	cc		 int	 3
  00023	cc		 int	 3
  00024	cc		 int	 3
  00025	cc		 int	 3
  00026	cc		 int	 3
__ehhandler$?GetPatternTrendName@CWavePattern@@QAE?AV?$CStringT@DV?$StrTraitMFC_DLL@DV?$ChTraitsCRT@D@ATL@@@@@ATL@@H@Z:
  00027	90		 npad	 1
  00028	90		 npad	 1
  00029	8b 54 24 08	 mov	 edx, DWORD PTR [esp+8]
  0002d	8d 42 0c	 lea	 eax, DWORD PTR [edx+12]
  00030	8b 4a e8	 mov	 ecx, DWORD PTR [edx-24]
  00033	33 c8		 xor	 ecx, eax
  00035	e8 00 00 00 00	 call	 @__security_check_cookie@4
  0003a	b8 00 00 00 00	 mov	 eax, OFFSET __ehfuncinfo$?GetPatternTrendName@CWavePattern@@QAE?AV?$CStringT@DV?$StrTraitMFC_DLL@DV?$ChTraitsCRT@D@ATL@@@@@ATL@@H@Z
  0003f	e9 00 00 00 00	 jmp	 ___CxxFrameHandler3
text$x	ENDS
?GetPatternTrendName@CWavePattern@@QAE?AV?$CStringT@DV?$StrTraitMFC_DLL@DV?$ChTraitsCRT@D@ATL@@@@@ATL@@H@Z ENDP ; CWavePattern::GetPatternTrendName
; Function compile flags: /Ogtp
; File D:\git\src\IBK\IBK_DRFN\ProjSrc\SrcChartEx\ChartAddIn\ChartPatternAddIn\WavePattern.cpp
;	COMDAT ?GetPatternTrend@CWavePattern@@QAEHH@Z
_TEXT	SEGMENT
_nPatternType$ = 8					; size = 4
?GetPatternTrend@CWavePattern@@QAEHH@Z PROC		; CWavePattern::GetPatternTrend, COMDAT
; _this$ = ecx

; 2578 : {

  00000	55		 push	 ebp
  00001	8b ec		 mov	 ebp, esp

; 2579 : 	int nPatternTrend = 0;
; 2580 : 
; 2581 : 	// Get Pattern Trend
; 2582 : 	switch (nPatternType)

  00003	8b 45 08	 mov	 eax, DWORD PTR _nPatternType$[ebp]
  00006	33 c9		 xor	 ecx, ecx
  00008	05 5f f0 ff ff	 add	 eax, -4001		; fffff05fH
  0000d	83 f8 13	 cmp	 eax, 19			; 00000013H
  00010	77 34		 ja	 SHORT $LN2@GetPattern
  00012	0f b6 80 00 00
	00 00		 movzx	 eax, BYTE PTR $LN25@GetPattern[eax]
  00019	ff 24 85 00 00
	00 00		 jmp	 DWORD PTR $LN26@GetPattern[eax*4]
$LN4@GetPattern:

; 2583 : 	{
; 2584 : 	case PTN_R_HEADNSHOULDER:		// Reversal Head & Shoulder		()
; 2585 : 	case PTN_R_DOUBLETOP:			// Reversal Double Top			()
; 2586 : 	case PTN_BEARISH_WIDETRIANGLE:	// Bearish Wide Triangles		()
; 2587 : 	case PTN_V_TOP:					// V Top						()
; 2588 : 		nPatternTrend = UPWARD_REVERSE;

  00020	b9 b9 0b 00 00	 mov	 ecx, 3001		; 00000bb9H

; 2614 : 		break;
; 2615 : 	}
; 2616 : 
; 2617 : 	return	nPatternTrend;

  00025	8b c1		 mov	 eax, ecx

; 2618 : }

  00027	5d		 pop	 ebp
  00028	c2 04 00	 ret	 4
$LN8@GetPattern:

; 2589 : 		break;
; 2590 : 
; 2591 : 	case PTN_HEADNSHOULDER:			// Head & Shoulder				()
; 2592 : 	case PTN_DOUBLETOP:				// Double Top					()
; 2593 : 	case PTN_BULLISH_WIDETRIANGLE:	// Bullish Wide Triangles		()
; 2594 : 	case PTN_V_BOTTOM:				// V Bottom						()
; 2595 : 		nPatternTrend = DNWARD_REVERSE;

  0002b	b9 ba 0b 00 00	 mov	 ecx, 3002		; 00000bbaH

; 2614 : 		break;
; 2615 : 	}
; 2616 : 
; 2617 : 	return	nPatternTrend;

  00030	8b c1		 mov	 eax, ecx

; 2618 : }

  00032	5d		 pop	 ebp
  00033	c2 04 00	 ret	 4
$LN12@GetPattern:

; 2596 : 		break;
; 2597 : 
; 2598 : 	case PTN_BULL_ISOTRIANGLE:		// Bull Isosceles Triangles		()
; 2599 : 	case PTN_BULL_TRIANGLE:			// Bull Triangles				()
; 2600 : 	case PTN_BEAR_WEDGE:			// Bear Wedge					()
; 2601 : 	case PTN_BULL_SQUAREFLAG:		// Bull Square Flag				()
; 2602 : 	case PTN_BULL_TRIANGLEFLAG:		// Bull Triangle Flag			()
; 2603 : 	case PTN_BULL_RECTANGLE:		// Bull Rectangle				()
; 2604 : 		nPatternTrend = UPWARD_CONTINUE;

  00036	b9 bb 0b 00 00	 mov	 ecx, 3003		; 00000bbbH

; 2614 : 		break;
; 2615 : 	}
; 2616 : 
; 2617 : 	return	nPatternTrend;

  0003b	8b c1		 mov	 eax, ecx

; 2618 : }

  0003d	5d		 pop	 ebp
  0003e	c2 04 00	 ret	 4
$LN18@GetPattern:

; 2605 : 		break;
; 2606 : 
; 2607 : 	case PTN_BEAR_ISOTRIANGLE:		// Bear Isosceles Triangles		()
; 2608 : 	case PTN_BEAR_TRIANGLE:			// Bear Triangles				()
; 2609 : 	case PTN_BULL_WEDGE:			// Bull Wedge					()
; 2610 : 	case PTN_BEAR_SQUAREFLAG:		// Bear Square Flag				()
; 2611 : 	case PTN_BEAR_TRIANGLEFLAG:		// Bear Triangle Flag			()
; 2612 : 	case PTN_BEAR_RECTANGLE:		// Bear Rectangle				()
; 2613 : 		nPatternTrend = DNWARD_CONTINUE;

  00041	b9 bc 0b 00 00	 mov	 ecx, 3004		; 00000bbcH
$LN2@GetPattern:

; 2614 : 		break;
; 2615 : 	}
; 2616 : 
; 2617 : 	return	nPatternTrend;

  00046	8b c1		 mov	 eax, ecx

; 2618 : }

  00048	5d		 pop	 ebp
  00049	c2 04 00	 ret	 4
$LN26@GetPattern:
  0004c	00 00 00 00	 DD	 $LN8@GetPattern
  00050	00 00 00 00	 DD	 $LN4@GetPattern
  00054	00 00 00 00	 DD	 $LN12@GetPattern
  00058	00 00 00 00	 DD	 $LN18@GetPattern
$LN25@GetPattern:
  0005c	00		 DB	 0
  0005d	01		 DB	 1
  0005e	00		 DB	 0
  0005f	01		 DB	 1
  00060	02		 DB	 2
  00061	03		 DB	 3
  00062	02		 DB	 2
  00063	03		 DB	 3
  00064	00		 DB	 0
  00065	01		 DB	 1
  00066	03		 DB	 3
  00067	02		 DB	 2
  00068	02		 DB	 2
  00069	03		 DB	 3
  0006a	02		 DB	 2
  0006b	03		 DB	 3
  0006c	02		 DB	 2
  0006d	03		 DB	 3
  0006e	01		 DB	 1
  0006f	00		 DB	 0
?GetPatternTrend@CWavePattern@@QAEHH@Z ENDP		; CWavePattern::GetPatternTrend
_TEXT	ENDS
; Function compile flags: /Ogtp
; File D:\git\src\IBK\IBK_DRFN\ProjSrc\SrcChartEx\ChartAddIn\ChartPatternAddIn\WavePattern.cpp
; File C:\Program Files (x86)\Microsoft Visual Studio\2019\Community\VC\Tools\MSVC\14.29.30133\atlmfc\include\afxwin1.inl
; File D:\git\src\IBK\IBK_DRFN\ProjSrc\SrcChartEx\ChartAddIn\ChartPatternAddIn\Include_Chart\Dll_Load\IMetaTable.h
; File C:\Program Files (x86)\Microsoft Visual Studio\2019\Community\VC\Tools\MSVC\14.29.30133\atlmfc\include\afxwin1.inl
; File D:\git\src\IBK\IBK_DRFN\ProjSrc\SrcChartEx\ChartAddIn\ChartPatternAddIn\WavePattern.cpp
; File D:\git\src\IBK\IBK_DRFN\ProjSrc\SrcChartEx\ChartAddIn\ChartPatternAddIn\Include_Chart\Dll_Load\IMetaTable.h
; File C:\Program Files (x86)\Microsoft Visual Studio\2019\Community\VC\Tools\MSVC\14.29.30133\atlmfc\include\afxwin1.inl
; File D:\git\src\IBK\IBK_DRFN\ProjSrc\SrcChartEx\ChartAddIn\ChartPatternAddIn\WavePattern.cpp
;	COMDAT ?GetPatternName@CWavePattern@@QAE?AV?$CStringT@DV?$StrTraitMFC_DLL@DV?$ChTraitsCRT@D@ATL@@@@@ATL@@H@Z
_TEXT	SEGMENT
___mlrs__$ = -20					; size = 4
$T2 = -16						; size = 4
__$EHRec$ = -12						; size = 12
___$ReturnUdt$ = 8					; size = 4
_nPatternType$ = 12					; size = 4
?GetPatternName@CWavePattern@@QAE?AV?$CStringT@DV?$StrTraitMFC_DLL@DV?$ChTraitsCRT@D@ATL@@@@@ATL@@H@Z PROC ; CWavePattern::GetPatternName, COMDAT
; _this$ = ecx

; 2471 : {

  00000	55		 push	 ebp
  00001	8b ec		 mov	 ebp, esp
  00003	6a ff		 push	 -1
  00005	68 00 00 00 00	 push	 __ehhandler$?GetPatternName@CWavePattern@@QAE?AV?$CStringT@DV?$StrTraitMFC_DLL@DV?$ChTraitsCRT@D@ATL@@@@@ATL@@H@Z
  0000a	64 a1 00 00 00
	00		 mov	 eax, DWORD PTR fs:0
  00010	50		 push	 eax
  00011	83 ec 08	 sub	 esp, 8
  00014	56		 push	 esi
  00015	57		 push	 edi
  00016	a1 00 00 00 00	 mov	 eax, DWORD PTR ___security_cookie
  0001b	33 c5		 xor	 eax, ebp
  0001d	50		 push	 eax
  0001e	8d 45 f4	 lea	 eax, DWORD PTR __$EHRec$[ebp]
  00021	64 a3 00 00 00
	00		 mov	 DWORD PTR fs:0, eax
  00027	8b f1		 mov	 esi, ecx
  00029	c7 45 fc 00 00
	00 00		 mov	 DWORD PTR __$EHRec$[ebp+8], 0
  00030	c7 45 f0 00 00
	00 00		 mov	 DWORD PTR $T2[ebp], 0

; 2472 : 	ML_SET_LANGUAGE_RES();

  00037	e8 00 00 00 00	 call	 ?AfxGetStaticModuleState@@YGPAVAFX_MODULE_STATE@@XZ ; AfxGetStaticModuleState
  0003c	b9 00 00 00 00	 mov	 ecx, OFFSET ?g_iMetaTable@@3VIMetaTable@@A ; g_iMetaTable
  00041	8b 40 08	 mov	 eax, DWORD PTR [eax+8]
  00044	50		 push	 eax
  00045	ff 76 04	 push	 DWORD PTR [esi+4]
  00048	e8 00 00 00 00	 call	 ?LoadResourceDLL@IMetaTable@@QAEPAUHINSTANCE__@@PAUHWND__@@PAU2@@Z ; IMetaTable::LoadResourceDLL
  0004d	8b f8		 mov	 edi, eax
; File C:\Program Files (x86)\Microsoft Visual Studio\2019\Community\VC\Tools\MSVC\14.29.30133\atlmfc\include\afxwin1.inl

; 25   : 		return afxCurrentResourceHandle; }

  0004f	e8 00 00 00 00	 call	 ?AfxGetModuleState@@YGPAVAFX_MODULE_STATE@@XZ ; AfxGetModuleState
; File D:\git\src\IBK\IBK_DRFN\ProjSrc\SrcChartEx\ChartAddIn\ChartPatternAddIn\Include_Chart\Dll_Load\IMetaTable.h

; 1031 : 		m_hInstance = AfxGetResourceHandle();

  00054	8b 70 0c	 mov	 esi, DWORD PTR [eax+12]
  00057	89 75 ec	 mov	 DWORD PTR ___mlrs__$[ebp], esi
; File C:\Program Files (x86)\Microsoft Visual Studio\2019\Community\VC\Tools\MSVC\14.29.30133\atlmfc\include\afxwin1.inl

; 27   : 	{ ASSERT(hInstResource != NULL); afxCurrentResourceHandle = hInstResource; }

  0005a	e8 00 00 00 00	 call	 ?AfxGetModuleState@@YGPAVAFX_MODULE_STATE@@XZ ; AfxGetModuleState
  0005f	89 78 0c	 mov	 DWORD PTR [eax+12], edi
; File D:\git\src\IBK\IBK_DRFN\ProjSrc\SrcChartEx\ChartAddIn\ChartPatternAddIn\WavePattern.cpp

; 2474 : 	CString strPatternName;

  00062	8b 7d 08	 mov	 edi, DWORD PTR ___$ReturnUdt$[ebp]
  00065	8b cf		 mov	 ecx, edi
  00067	c7 45 fc 01 00
	00 00		 mov	 DWORD PTR __$EHRec$[ebp+8], 1
  0006e	ff 15 00 00 00
	00		 call	 DWORD PTR __imp_??0?$CStringT@DV?$StrTraitMFC_DLL@DV?$ChTraitsCRT@D@ATL@@@@@ATL@@QAE@XZ

; 2571 : 	return	strPatternName;

  00074	68 00 00 00 00	 push	 OFFSET ??_C@_00CNPNBAHC@@
  00079	8b cf		 mov	 ecx, edi
  0007b	c7 45 f0 01 00
	00 00		 mov	 DWORD PTR $T2[ebp], 1
  00082	ff 15 00 00 00
	00		 call	 DWORD PTR __imp_??4?$CStringT@DV?$StrTraitMFC_DLL@DV?$ChTraitsCRT@D@ATL@@@@@ATL@@QAEAAV01@PBD@Z
  00088	8b 45 0c	 mov	 eax, DWORD PTR _nPatternType$[ebp]
  0008b	05 5f f0 ff ff	 add	 eax, -4001		; fffff05fH
  00090	83 f8 13	 cmp	 eax, 19			; 00000013H
  00093	77 5d		 ja	 SHORT $LN2@GetPattern

; 2475 : 	strPatternName =_T("");
; 2476 : 
; 2477 : // 2008.02.20 by LYH >>
; 2478 : 	// Get Pattern Name
; 2479 : 	switch (nPatternType)

  00095	ff 24 85 00 00
	00 00		 jmp	 DWORD PTR $LN39@GetPattern[eax*4]
$LN4@GetPattern:

; 2480 : 	{
; 2481 : 	case PTN_HEADNSHOULDER:			// Head & Shoulder				()
; 2482 : 		//strPatternName = STR_HEADNSHOULDER;
; 2483 : 		strPatternName.LoadString(IDS_HEADNSHOULDER);

  0009c	6a 0a		 push	 10			; 0000000aH

; 2484 : 		break;

  0009e	eb 4a		 jmp	 SHORT $LN41@GetPattern
$LN5@GetPattern:

; 2485 : 	case PTN_R_HEADNSHOULDER:		// Reversal Head & Shoulder		()
; 2486 : 		//strPatternName = STR_R_HEADNSHOULDER;
; 2487 : 		strPatternName.LoadString(IDS_R_HEADNSHOULDER);

  000a0	6a 0b		 push	 11			; 0000000bH

; 2488 : 		break;

  000a2	eb 46		 jmp	 SHORT $LN41@GetPattern
$LN6@GetPattern:

; 2489 : 	case PTN_DOUBLETOP:				// Double Top					()
; 2490 : 		//strPatternName = STR_DOUBLETOP;
; 2491 : 		strPatternName.LoadString(IDS_DOUBLETOP);

  000a4	6a 0c		 push	 12			; 0000000cH

; 2492 : 		break;

  000a6	eb 42		 jmp	 SHORT $LN41@GetPattern
$LN7@GetPattern:

; 2493 : 	case PTN_R_DOUBLETOP:			// Reversal Double Top			()
; 2494 : 		//strPatternName = STR_R_DOUBLETOP;
; 2495 : 		strPatternName.LoadString(IDS_R_DOUBLETOP);

  000a8	6a 0d		 push	 13			; 0000000dH

; 2496 : 		break;

  000aa	eb 3e		 jmp	 SHORT $LN41@GetPattern
$LN8@GetPattern:

; 2497 : 		
; 2498 : 	case PTN_BULL_ISOTRIANGLE:		// Bull Isosceles Triangles		()
; 2499 : 		//strPatternName = STR_BULL_ISOTRIANGLE;
; 2500 : 		strPatternName.LoadString(IDS_BULL_ISOTRIANGLE);

  000ac	6a 0e		 push	 14			; 0000000eH

; 2501 : 		break;

  000ae	eb 3a		 jmp	 SHORT $LN41@GetPattern
$LN9@GetPattern:

; 2502 : 	case PTN_BEAR_ISOTRIANGLE:		// Bear Isosceles Triangles		()
; 2503 : 		//strPatternName = STR_BEAR_ISOTRIANGLE;
; 2504 : 		strPatternName.LoadString(IDS_BEAR_ISOTRIANGLE);

  000b0	6a 0f		 push	 15			; 0000000fH

; 2505 : 		break;

  000b2	eb 36		 jmp	 SHORT $LN41@GetPattern
$LN10@GetPattern:

; 2506 : 		
; 2507 : 	case PTN_BULL_TRIANGLE:			// Bull Triangles				()
; 2508 : 		//strPatternName = STR_BULL_TRIANGLE;
; 2509 : 		strPatternName.LoadString(IDS_BULL_TRIANGLE);

  000b4	6a 10		 push	 16			; 00000010H

; 2510 : 		break;

  000b6	eb 32		 jmp	 SHORT $LN41@GetPattern
$LN11@GetPattern:

; 2511 : 	case PTN_BEAR_TRIANGLE:			// Bear Triangles				()
; 2512 : 		//strPatternName = STR_BEAR_TRIANGLE;
; 2513 : 		strPatternName.LoadString(IDS_BEAR_TRIANGLE);

  000b8	6a 11		 push	 17			; 00000011H

; 2514 : 		break;

  000ba	eb 2e		 jmp	 SHORT $LN41@GetPattern
$LN12@GetPattern:

; 2515 : 		
; 2516 : 	case PTN_BULLISH_WIDETRIANGLE:	// Bullish Wide Triangles		()
; 2517 : 		//strPatternName = STR_BULLISH_WIDETRIANGLE;
; 2518 : 		strPatternName.LoadString(IDS_BULLISH_WIDETRIANGLE);

  000bc	6a 12		 push	 18			; 00000012H

; 2519 : 		break;

  000be	eb 2a		 jmp	 SHORT $LN41@GetPattern
$LN13@GetPattern:

; 2520 : 	case PTN_BEARISH_WIDETRIANGLE:	// Bearish Wide Triangles		()
; 2521 : 		//strPatternName = STR_BEARISH_WIDETRIANGLE;
; 2522 : 		strPatternName.LoadString(IDS_BEARISH_WIDETRIANGLE);

  000c0	6a 13		 push	 19			; 00000013H

; 2523 : 		break;

  000c2	eb 26		 jmp	 SHORT $LN41@GetPattern
$LN14@GetPattern:

; 2524 : 		
; 2525 : 	case PTN_BULL_WEDGE:			// Bull Wedge					()
; 2526 : 		//strPatternName = STR_BULL_WEDGE;
; 2527 : 		strPatternName.LoadString(IDS_BULL_WEDGE);

  000c4	6a 14		 push	 20			; 00000014H

; 2528 : 		break;

  000c6	eb 22		 jmp	 SHORT $LN41@GetPattern
$LN15@GetPattern:

; 2529 : 	case PTN_BEAR_WEDGE:			// Bear Wedge					()
; 2530 : 		//strPatternName = STR_BEAR_WEDGE;
; 2531 : 		strPatternName.LoadString(IDS_BEAR_WEDGE);

  000c8	6a 15		 push	 21			; 00000015H

; 2532 : 		break;

  000ca	eb 1e		 jmp	 SHORT $LN41@GetPattern
$LN16@GetPattern:

; 2533 : 		
; 2534 : 	case PTN_BULL_SQUAREFLAG:		// Bull Square Flag				()
; 2535 : 		//strPatternName = STR_BULL_SQUAREFLAG;
; 2536 : 		strPatternName.LoadString(IDS_BULL_SQUAREFLAG);

  000cc	6a 16		 push	 22			; 00000016H

; 2537 : 		break;

  000ce	eb 1a		 jmp	 SHORT $LN41@GetPattern
$LN17@GetPattern:

; 2538 : 	case PTN_BEAR_SQUAREFLAG:		// Bear Square Flag				()
; 2539 : 		//strPatternName = STR_BEAR_SQUAREFLAG;
; 2540 : 		strPatternName.LoadString(IDS_BEAR_SQUAREFLAG);

  000d0	6a 17		 push	 23			; 00000017H

; 2541 : 		break;

  000d2	eb 16		 jmp	 SHORT $LN41@GetPattern
$LN18@GetPattern:

; 2542 : 		
; 2543 : 	case PTN_BULL_TRIANGLEFLAG:		// Bull Triangle Flag			()
; 2544 : 		//strPatternName = STR_BULL_TRIANGLEFLAG;
; 2545 : 		strPatternName.LoadString(IDS_BULL_TRIANGLEFLAG);

  000d4	6a 18		 push	 24			; 00000018H

; 2546 : 		break;

  000d6	eb 12		 jmp	 SHORT $LN41@GetPattern
$LN19@GetPattern:

; 2547 : 	case PTN_BEAR_TRIANGLEFLAG:		// Bear Triangle Flag			()
; 2548 : 		//strPatternName = STR_BEAR_TRIANGLEFLAG;
; 2549 : 		strPatternName.LoadString(IDS_BEAR_TRIANGLEFLAG);

  000d8	6a 19		 push	 25			; 00000019H

; 2550 : 		break;

  000da	eb 0e		 jmp	 SHORT $LN41@GetPattern
$LN20@GetPattern:

; 2551 : 		
; 2552 : 	case PTN_BULL_RECTANGLE:		// Bull Rectangle				()
; 2553 : 		//strPatternName = STR_BULL_RECTANGLE;
; 2554 : 		strPatternName.LoadString(IDS_BULL_RECTANGLE);

  000dc	6a 1a		 push	 26			; 0000001aH

; 2555 : 		break;

  000de	eb 0a		 jmp	 SHORT $LN41@GetPattern
$LN21@GetPattern:

; 2556 : 	case PTN_BEAR_RECTANGLE:		// Bear Rectangle				()
; 2557 : 		//strPatternName = STR_BEAR_RECTANGLE;
; 2558 : 		strPatternName.LoadString(IDS_BEAR_RECTANGLE);

  000e0	6a 1b		 push	 27			; 0000001bH

; 2559 : 		break;

  000e2	eb 06		 jmp	 SHORT $LN41@GetPattern
$LN22@GetPattern:

; 2560 : 		
; 2561 : 	case PTN_V_TOP:					// V Top						()
; 2562 : 		//strPatternName = STR_V_TOP;
; 2563 : 		strPatternName.LoadString(IDS_V_TOP);

  000e4	6a 1c		 push	 28			; 0000001cH

; 2564 : 		break;

  000e6	eb 02		 jmp	 SHORT $LN41@GetPattern
$LN23@GetPattern:

; 2565 : 	case PTN_V_BOTTOM:				// V Bottom						()
; 2566 : 		//strPatternName = STR_V_BOTTOM;
; 2567 : 		strPatternName.LoadString(IDS_V_BOTTOM);

  000e8	6a 1d		 push	 29			; 0000001dH
$LN41@GetPattern:
; File D:\git\src\IBK\IBK_DRFN\ProjSrc\SrcChartEx\ChartAddIn\ChartPatternAddIn\Include_Chart\Dll_Load\IMetaTable.h

; 1035 : 	{

  000ea	8b cf		 mov	 ecx, edi
  000ec	ff 15 00 00 00
	00		 call	 DWORD PTR __imp_?LoadStringA@?$CStringT@DV?$StrTraitMFC_DLL@DV?$ChTraitsCRT@D@ATL@@@@@ATL@@QAEHI@Z
$LN2@GetPattern:
  000f2	c7 45 fc 02 00
	00 00		 mov	 DWORD PTR __$EHRec$[ebp+8], 2
; File C:\Program Files (x86)\Microsoft Visual Studio\2019\Community\VC\Tools\MSVC\14.29.30133\atlmfc\include\afxwin1.inl

; 27   : 	{ ASSERT(hInstResource != NULL); afxCurrentResourceHandle = hInstResource; }

  000f9	e8 00 00 00 00	 call	 ?AfxGetModuleState@@YGPAVAFX_MODULE_STATE@@XZ ; AfxGetModuleState
  000fe	89 70 0c	 mov	 DWORD PTR [eax+12], esi
; File D:\git\src\IBK\IBK_DRFN\ProjSrc\SrcChartEx\ChartAddIn\ChartPatternAddIn\WavePattern.cpp

; 2571 : 	return	strPatternName;

  00101	8b c7		 mov	 eax, edi

; 2572 : }

  00103	8b 4d f4	 mov	 ecx, DWORD PTR __$EHRec$[ebp]
  00106	64 89 0d 00 00
	00 00		 mov	 DWORD PTR fs:0, ecx
  0010d	59		 pop	 ecx
  0010e	5f		 pop	 edi
  0010f	5e		 pop	 esi
  00110	8b e5		 mov	 esp, ebp
  00112	5d		 pop	 ebp
  00113	c2 08 00	 ret	 8
  00116	66 90		 npad	 2
$LN39@GetPattern:
  00118	00 00 00 00	 DD	 $LN4@GetPattern
  0011c	00 00 00 00	 DD	 $LN5@GetPattern
  00120	00 00 00 00	 DD	 $LN6@GetPattern
  00124	00 00 00 00	 DD	 $LN7@GetPattern
  00128	00 00 00 00	 DD	 $LN8@GetPattern
  0012c	00 00 00 00	 DD	 $LN9@GetPattern
  00130	00 00 00 00	 DD	 $LN10@GetPattern
  00134	00 00 00 00	 DD	 $LN11@GetPattern
  00138	00 00 00 00	 DD	 $LN12@GetPattern
  0013c	00 00 00 00	 DD	 $LN13@GetPattern
  00140	00 00 00 00	 DD	 $LN14@GetPattern
  00144	00 00 00 00	 DD	 $LN15@GetPattern
  00148	00 00 00 00	 DD	 $LN16@GetPattern
  0014c	00 00 00 00	 DD	 $LN17@GetPattern
  00150	00 00 00 00	 DD	 $LN18@GetPattern
  00154	00 00 00 00	 DD	 $LN19@GetPattern
  00158	00 00 00 00	 DD	 $LN20@GetPattern
  0015c	00 00 00 00	 DD	 $LN21@GetPattern
  00160	00 00 00 00	 DD	 $LN22@GetPattern
  00164	00 00 00 00	 DD	 $LN23@GetPattern
_TEXT	ENDS
;	COMDAT text$x
text$x	SEGMENT
__unwindfunclet$?GetPatternName@CWavePattern@@QAE?AV?$CStringT@DV?$StrTraitMFC_DLL@DV?$ChTraitsCRT@D@ATL@@@@@ATL@@H@Z$0:
  00000	8d 4d ec	 lea	 ecx, DWORD PTR ___mlrs__$[ebp]
  00003	e9 00 00 00 00	 jmp	 ??1CMultiLanguageResourceSetter@@QAE@XZ ; CMultiLanguageResourceSetter::~CMultiLanguageResourceSetter
__unwindfunclet$?GetPatternName@CWavePattern@@QAE?AV?$CStringT@DV?$StrTraitMFC_DLL@DV?$ChTraitsCRT@D@ATL@@@@@ATL@@H@Z$1:
  00008	8b 45 f0	 mov	 eax, DWORD PTR $T2[ebp]
  0000b	83 e0 01	 and	 eax, 1
  0000e	0f 84 0d 00 00
	00		 je	 $LN27@GetPattern
  00014	83 65 f0 fe	 and	 DWORD PTR $T2[ebp], -2	; fffffffeH
  00018	8b 4d 08	 mov	 ecx, DWORD PTR ___$ReturnUdt$[ebp]
  0001b	ff 25 00 00 00
	00		 jmp	 DWORD PTR __imp_??1?$CStringT@DV?$StrTraitMFC_DLL@DV?$ChTraitsCRT@D@ATL@@@@@ATL@@QAE@XZ
$LN27@GetPattern:
  00021	c3		 ret	 0
  00022	cc		 int	 3
  00023	cc		 int	 3
  00024	cc		 int	 3
  00025	cc		 int	 3
  00026	cc		 int	 3
__ehhandler$?GetPatternName@CWavePattern@@QAE?AV?$CStringT@DV?$StrTraitMFC_DLL@DV?$ChTraitsCRT@D@ATL@@@@@ATL@@H@Z:
  00027	90		 npad	 1
  00028	90		 npad	 1
  00029	8b 54 24 08	 mov	 edx, DWORD PTR [esp+8]
  0002d	8d 42 0c	 lea	 eax, DWORD PTR [edx+12]
  00030	8b 4a ec	 mov	 ecx, DWORD PTR [edx-20]
  00033	33 c8		 xor	 ecx, eax
  00035	e8 00 00 00 00	 call	 @__security_check_cookie@4
  0003a	b8 00 00 00 00	 mov	 eax, OFFSET __ehfuncinfo$?GetPatternName@CWavePattern@@QAE?AV?$CStringT@DV?$StrTraitMFC_DLL@DV?$ChTraitsCRT@D@ATL@@@@@ATL@@H@Z
  0003f	e9 00 00 00 00	 jmp	 ___CxxFrameHandler3
text$x	ENDS
?GetPatternName@CWavePattern@@QAE?AV?$CStringT@DV?$StrTraitMFC_DLL@DV?$ChTraitsCRT@D@ATL@@@@@ATL@@H@Z ENDP ; CWavePattern::GetPatternName
; Function compile flags: /Ogtp
; File D:\git\src\IBK\IBK_DRFN\ProjSrc\SrcChartEx\ChartAddIn\ChartPatternAddIn\WavePattern.cpp
;	COMDAT ?Find_All_WavePattern@CWavePattern@@QAEXPAVCObject@@0@Z
_TEXT	SEGMENT
_pObjHighLowPtData$ = 8					; size = 4
_pObjWavePatternData$ = 12				; size = 4
?Find_All_WavePattern@CWavePattern@@QAEXPAVCObject@@0@Z PROC ; CWavePattern::Find_All_WavePattern, COMDAT
; _this$ = ecx

; 2389 : {

  00000	55		 push	 ebp
  00001	8b ec		 mov	 ebp, esp
  00003	53		 push	 ebx
  00004	56		 push	 esi

; 2390 : 	// ## 1-1	Header & Shoulder
; 2391 : 	Find_HeaderNShoulders(		pObjHighLowPtData, pObjWavePatternData);

  00005	8b 75 08	 mov	 esi, DWORD PTR _pObjHighLowPtData$[ebp]
  00008	8b d9		 mov	 ebx, ecx
  0000a	57		 push	 edi
  0000b	8b 7d 0c	 mov	 edi, DWORD PTR _pObjWavePatternData$[ebp]
  0000e	57		 push	 edi
  0000f	56		 push	 esi
  00010	e8 00 00 00 00	 call	 ?Find_HeaderNShoulders@CWavePattern@@QAEHPAVCObject@@0@Z ; CWavePattern::Find_HeaderNShoulders

; 2392 : 	// ## 1-2	Reversal Header & Shoulder
; 2393 : 	Find_R_HeaderNShoulders(	pObjHighLowPtData, pObjWavePatternData);

  00015	57		 push	 edi
  00016	56		 push	 esi
  00017	8b cb		 mov	 ecx, ebx
  00019	e8 00 00 00 00	 call	 ?Find_R_HeaderNShoulders@CWavePattern@@QAEHPAVCObject@@0@Z ; CWavePattern::Find_R_HeaderNShoulders

; 2394 : 
; 2395 : 	// ## 2-1	DoubleTop					()
; 2396 : 	Find_DoubleTop(				pObjHighLowPtData, pObjWavePatternData);

  0001e	57		 push	 edi
  0001f	56		 push	 esi
  00020	8b cb		 mov	 ecx, ebx
  00022	e8 00 00 00 00	 call	 ?Find_DoubleTop@CWavePattern@@QAEHPAVCObject@@0@Z ; CWavePattern::Find_DoubleTop

; 2397 : 	// ## 2-2	Reversal DoubleTop			()
; 2398 : 	Find_R_DoubleTop(			pObjHighLowPtData, pObjWavePatternData);

  00027	57		 push	 edi
  00028	56		 push	 esi
  00029	8b cb		 mov	 ecx, ebx
  0002b	e8 00 00 00 00	 call	 ?Find_R_DoubleTop@CWavePattern@@QAEHPAVCObject@@0@Z ; CWavePattern::Find_R_DoubleTop

; 2399 : 
; 2400 : 	// ## 3-1	Bull Isosceles Triangles	()
; 2401 : 	Find_Bull_IsoTriangles(		pObjHighLowPtData, pObjWavePatternData);

  00030	57		 push	 edi
  00031	56		 push	 esi
  00032	8b cb		 mov	 ecx, ebx
  00034	e8 00 00 00 00	 call	 ?Find_Bull_IsoTriangles@CWavePattern@@QAEHPAVCObject@@0@Z ; CWavePattern::Find_Bull_IsoTriangles

; 2402 : 	// ## 3-2	Bear Isosceles Triangles	()
; 2403 : 	Find_Bear_IsoTriangles(		pObjHighLowPtData, pObjWavePatternData);

  00039	57		 push	 edi
  0003a	56		 push	 esi
  0003b	8b cb		 mov	 ecx, ebx
  0003d	e8 00 00 00 00	 call	 ?Find_Bear_IsoTriangles@CWavePattern@@QAEHPAVCObject@@0@Z ; CWavePattern::Find_Bear_IsoTriangles

; 2404 : 
; 2405 : 	// ## 4-1	Bull Triangles				()
; 2406 : 	Find_Bull_Triangles(		pObjHighLowPtData, pObjWavePatternData);

  00042	57		 push	 edi
  00043	56		 push	 esi
  00044	8b cb		 mov	 ecx, ebx
  00046	e8 00 00 00 00	 call	 ?Find_Bull_Triangles@CWavePattern@@QAEHPAVCObject@@0@Z ; CWavePattern::Find_Bull_Triangles

; 2407 : 	// ## 4-2	Bear Triangles				()
; 2408 : 	Find_Bear_Triangles(		pObjHighLowPtData, pObjWavePatternData);

  0004b	57		 push	 edi
  0004c	56		 push	 esi
  0004d	8b cb		 mov	 ecx, ebx
  0004f	e8 00 00 00 00	 call	 ?Find_Bear_Triangles@CWavePattern@@QAEHPAVCObject@@0@Z ; CWavePattern::Find_Bear_Triangles

; 2409 : 
; 2410 : 	// ## 5-1	Bullish Wide Triangles		()
; 2411 : 	Find_Bullish_WideTriangles( pObjHighLowPtData, pObjWavePatternData);

  00054	57		 push	 edi
  00055	56		 push	 esi
  00056	8b cb		 mov	 ecx, ebx
  00058	e8 00 00 00 00	 call	 ?Find_Bullish_WideTriangles@CWavePattern@@QAEHPAVCObject@@0@Z ; CWavePattern::Find_Bullish_WideTriangles

; 2412 : 	// ## 5-2	Bearish Wide Triangles		()
; 2413 : 	Find_Bearish_WideTriangles( pObjHighLowPtData, pObjWavePatternData);

  0005d	57		 push	 edi
  0005e	56		 push	 esi
  0005f	8b cb		 mov	 ecx, ebx
  00061	e8 00 00 00 00	 call	 ?Find_Bearish_WideTriangles@CWavePattern@@QAEHPAVCObject@@0@Z ; CWavePattern::Find_Bearish_WideTriangles

; 2414 : 
; 2415 : 	// ## 6-1	Bull Wedge					()
; 2416 : 	Find_Bull_Wedge(			pObjHighLowPtData, pObjWavePatternData);

  00066	57		 push	 edi
  00067	56		 push	 esi
  00068	8b cb		 mov	 ecx, ebx
  0006a	e8 00 00 00 00	 call	 ?Find_Bull_Wedge@CWavePattern@@QAEHPAVCObject@@0@Z ; CWavePattern::Find_Bull_Wedge

; 2417 : 	// ## 6-2	Bear Wedge					()
; 2418 : 	Find_Bear_Wedge(			pObjHighLowPtData, pObjWavePatternData);

  0006f	57		 push	 edi
  00070	56		 push	 esi
  00071	8b cb		 mov	 ecx, ebx
  00073	e8 00 00 00 00	 call	 ?Find_Bear_Wedge@CWavePattern@@QAEHPAVCObject@@0@Z ; CWavePattern::Find_Bear_Wedge

; 2419 : 
; 2420 : 	// ## 7-1	Bull Square Flag			()
; 2421 : 	Find_Bull_SquareFlag(		pObjHighLowPtData, pObjWavePatternData);

  00078	57		 push	 edi
  00079	56		 push	 esi
  0007a	8b cb		 mov	 ecx, ebx
  0007c	e8 00 00 00 00	 call	 ?Find_Bull_SquareFlag@CWavePattern@@QAEHPAVCObject@@0@Z ; CWavePattern::Find_Bull_SquareFlag

; 2422 : 	// ## 7-2	Bear Square Flag			()
; 2423 : 	Find_Bear_SquareFlag(		pObjHighLowPtData, pObjWavePatternData);

  00081	57		 push	 edi
  00082	56		 push	 esi
  00083	8b cb		 mov	 ecx, ebx
  00085	e8 00 00 00 00	 call	 ?Find_Bear_SquareFlag@CWavePattern@@QAEHPAVCObject@@0@Z ; CWavePattern::Find_Bear_SquareFlag

; 2424 : 
; 2425 : 	// ## 8-1	Bull Triangle Flag			()
; 2426 : 	Find_Bull_TriangleFlag(		pObjHighLowPtData, pObjWavePatternData);

  0008a	57		 push	 edi
  0008b	56		 push	 esi
  0008c	8b cb		 mov	 ecx, ebx
  0008e	e8 00 00 00 00	 call	 ?Find_Bull_TriangleFlag@CWavePattern@@QAEHPAVCObject@@0@Z ; CWavePattern::Find_Bull_TriangleFlag

; 2427 : 	// ## 8-2	Bear Triangle Flag			()
; 2428 : 	Find_Bear_TriangleFlag(		pObjHighLowPtData, pObjWavePatternData);

  00093	57		 push	 edi
  00094	56		 push	 esi
  00095	8b cb		 mov	 ecx, ebx
  00097	e8 00 00 00 00	 call	 ?Find_Bear_TriangleFlag@CWavePattern@@QAEHPAVCObject@@0@Z ; CWavePattern::Find_Bear_TriangleFlag

; 2429 : 
; 2430 : 	// ## 9-1	Bull Rectangle				()
; 2431 : 	Find_Bull_Rectangle(		pObjHighLowPtData, pObjWavePatternData);

  0009c	57		 push	 edi
  0009d	56		 push	 esi
  0009e	8b cb		 mov	 ecx, ebx
  000a0	e8 00 00 00 00	 call	 ?Find_Bull_Rectangle@CWavePattern@@QAEHPAVCObject@@0@Z ; CWavePattern::Find_Bull_Rectangle

; 2432 : 	// ## 9-2	Bear Rectangle				()
; 2433 : 	Find_Bear_Rectangle(		pObjHighLowPtData, pObjWavePatternData);

  000a5	57		 push	 edi
  000a6	56		 push	 esi
  000a7	8b cb		 mov	 ecx, ebx
  000a9	e8 00 00 00 00	 call	 ?Find_Bear_Rectangle@CWavePattern@@QAEHPAVCObject@@0@Z ; CWavePattern::Find_Bear_Rectangle

; 2434 : 
; 2435 : 	// ## 10-1	V Top
; 2436 : 	Find_V_Top(					pObjHighLowPtData, pObjWavePatternData);

  000ae	57		 push	 edi
  000af	56		 push	 esi
  000b0	8b cb		 mov	 ecx, ebx
  000b2	e8 00 00 00 00	 call	 ?Find_V_Top@CWavePattern@@QAEHPAVCObject@@0@Z ; CWavePattern::Find_V_Top

; 2437 : 	// ## 10-2	V Bottom
; 2438 : 	Find_V_Bottom(				pObjHighLowPtData, pObjWavePatternData);

  000b7	57		 push	 edi
  000b8	56		 push	 esi
  000b9	8b cb		 mov	 ecx, ebx
  000bb	e8 00 00 00 00	 call	 ?Find_V_Bottom@CWavePattern@@QAEHPAVCObject@@0@Z ; CWavePattern::Find_V_Bottom
  000c0	5f		 pop	 edi
  000c1	5e		 pop	 esi
  000c2	5b		 pop	 ebx

; 2439 : }

  000c3	5d		 pop	 ebp
  000c4	c2 08 00	 ret	 8
?Find_All_WavePattern@CWavePattern@@QAEXPAVCObject@@0@Z ENDP ; CWavePattern::Find_All_WavePattern
_TEXT	ENDS
; Function compile flags: /Ogtp
; File D:\git\src\IBK\IBK_DRFN\ProjSrc\SrcChartEx\ChartAddIn\ChartPatternAddIn\WavePattern.cpp
; File C:\Program Files (x86)\Microsoft Visual Studio\2019\Community\VC\Tools\MSVC\14.29.30133\atlmfc\include\afx.inl
; File D:\git\src\IBK\IBK_DRFN\ProjSrc\SrcChartEx\ChartAddIn\ChartPatternAddIn\WavePattern.cpp
; File C:\Program Files (x86)\Microsoft Visual Studio\2019\Community\VC\Tools\MSVC\14.29.30133\atlmfc\include\afxtempl.h
; File D:\git\src\IBK\IBK_DRFN\ProjSrc\SrcChartEx\ChartAddIn\ChartPatternAddIn\WavePattern.cpp
; File C:\Program Files (x86)\Microsoft Visual Studio\2019\Community\VC\Tools\MSVC\14.29.30133\atlmfc\include\afxtempl.h
; File D:\git\src\IBK\IBK_DRFN\ProjSrc\SrcChartEx\ChartAddIn\ChartPatternAddIn\WavePattern.cpp
; File C:\Program Files (x86)\Microsoft Visual Studio\2019\Community\VC\Tools\MSVC\14.29.30133\atlmfc\include\afxtempl.h
; File D:\git\src\IBK\IBK_DRFN\ProjSrc\SrcChartEx\ChartAddIn\ChartPatternAddIn\WavePattern.cpp
; File C:\Program Files (x86)\Microsoft Visual Studio\2019\Community\VC\Tools\MSVC\14.29.30133\atlmfc\include\afxtempl.h
; File D:\git\src\IBK\IBK_DRFN\ProjSrc\SrcChartEx\ChartAddIn\ChartPatternAddIn\WavePattern.cpp
;	COMDAT ?AddNewWavePatternData@CWavePattern@@QAEXPAVCObject@@HHHNNNNNNNNNNNNNN@Z
_TEXT	SEGMENT
$T2 = -16						; size = 4
__$EHRec$ = -12						; size = 12
_pObjWavePatternData$ = 8				; size = 4
_nPatternType$ = 12					; size = 4
_nStartSeq$ = 16					; size = 4
_nEndSeq$ = 20						; size = 4
_dDrawSeq1_1$ = 24					; size = 8
_dDrawYPt1_1$ = 32					; size = 8
_dDrawSeq1_2$ = 40					; size = 8
_dDrawYPt1_2$ = 48					; size = 8
_dDrawSeq2_1$ = 56					; size = 8
_dDrawYPt2_1$ = 64					; size = 8
_dDrawSeq2_2$ = 72					; size = 8
_dDrawYPt2_2$ = 80					; size = 8
_dNeckSeq1$ = 88					; size = 8
_dNeckYPt1$ = 96					; size = 8
_dNeckSeq2$ = 104					; size = 8
_dNeckYPt2$ = 112					; size = 8
_dNeckBaseYPt1$ = 120					; size = 8
_dNeckBaseYPt2$ = 128					; size = 8
?AddNewWavePatternData@CWavePattern@@QAEXPAVCObject@@HHHNNNNNNNNNNNNNN@Z PROC ; CWavePattern::AddNewWavePatternData, COMDAT
; _this$ = ecx

; 2354 : {

  00000	55		 push	 ebp
  00001	8b ec		 mov	 ebp, esp
  00003	6a ff		 push	 -1
  00005	68 00 00 00 00	 push	 __ehhandler$?AddNewWavePatternData@CWavePattern@@QAEXPAVCObject@@HHHNNNNNNNNNNNNNN@Z
  0000a	64 a1 00 00 00
	00		 mov	 eax, DWORD PTR fs:0
  00010	50		 push	 eax
  00011	51		 push	 ecx
  00012	53		 push	 ebx
  00013	56		 push	 esi
  00014	57		 push	 edi
  00015	a1 00 00 00 00	 mov	 eax, DWORD PTR ___security_cookie
  0001a	33 c5		 xor	 eax, ebp
  0001c	50		 push	 eax
  0001d	8d 45 f4	 lea	 eax, DWORD PTR __$EHRec$[ebp]
  00020	64 a3 00 00 00
	00		 mov	 DWORD PTR fs:0, eax
; File C:\Program Files (x86)\Microsoft Visual Studio\2019\Community\VC\Tools\MSVC\14.29.30133\atlmfc\include\afx.inl

; 116  : 	{ return ::operator new(nSize); }

  00026	68 88 00 00 00	 push	 136			; 00000088H
  0002b	e8 00 00 00 00	 call	 ??2@YAPAXI@Z		; operator new
  00030	83 c4 04	 add	 esp, 4
; File D:\git\src\IBK\IBK_DRFN\ProjSrc\SrcChartEx\ChartAddIn\ChartPatternAddIn\WavePattern.cpp

; 2358 : 	pWavePatternData = new CWavePatternData;

  00033	89 45 f0	 mov	 DWORD PTR $T2[ebp], eax
  00036	c7 45 fc 00 00
	00 00		 mov	 DWORD PTR __$EHRec$[ebp+8], 0
  0003d	85 c0		 test	 eax, eax
  0003f	74 0b		 je	 SHORT $LN3@AddNewWave
  00041	8b c8		 mov	 ecx, eax
  00043	e8 00 00 00 00	 call	 ??0CWavePatternData@@QAE@XZ ; CWavePatternData::CWavePatternData
  00048	8b f0		 mov	 esi, eax
  0004a	eb 02		 jmp	 SHORT $LN4@AddNewWave
$LN3@AddNewWave:
  0004c	33 f6		 xor	 esi, esi
$LN4@AddNewWave:

; 2359 : 	
; 2360 : 	pWavePatternData->m_nPatternType	=	nPatternType;		// Pattern Type
; 2361 : 	pWavePatternData->m_nStartSeq		=	nStartSeq;			// Start Sequence of a Pattern
; 2362 : 	pWavePatternData->m_nEndSeq			=	nEndSeq;			// End Sequence of a Pattern
; 2363 : 	
; 2364 : 	pWavePatternData->m_dDrawSeq1_1		=	dDrawSeq1_1;		// First Draw Data

  0004e	f2 0f 10 45 18	 movsd	 xmm0, QWORD PTR _dDrawSeq1_1$[ebp]
  00053	f2 0f 11 46 18	 movsd	 QWORD PTR [esi+24], xmm0

; 2365 : 	pWavePatternData->m_dDrawYPt1_1		=	dDrawYPt1_1;

  00058	f2 0f 10 45 20	 movsd	 xmm0, QWORD PTR _dDrawYPt1_1$[ebp]
  0005d	f2 0f 11 46 20	 movsd	 QWORD PTR [esi+32], xmm0

; 2366 : 	pWavePatternData->m_dDrawSeq1_2		=	dDrawSeq1_2;

  00062	f2 0f 10 45 28	 movsd	 xmm0, QWORD PTR _dDrawSeq1_2$[ebp]
  00067	f2 0f 11 46 28	 movsd	 QWORD PTR [esi+40], xmm0

; 2367 : 	pWavePatternData->m_dDrawYPt1_2		=	dDrawYPt1_2;

  0006c	f2 0f 10 45 30	 movsd	 xmm0, QWORD PTR _dDrawYPt1_2$[ebp]
  00071	f2 0f 11 46 30	 movsd	 QWORD PTR [esi+48], xmm0

; 2368 : 	
; 2369 : 	pWavePatternData->m_dDrawSeq2_1		=	dDrawSeq2_1;		// Second Draw Data

  00076	f2 0f 10 45 38	 movsd	 xmm0, QWORD PTR _dDrawSeq2_1$[ebp]
  0007b	8b 45 0c	 mov	 eax, DWORD PTR _nPatternType$[ebp]
  0007e	f2 0f 11 46 38	 movsd	 QWORD PTR [esi+56], xmm0

; 2370 : 	pWavePatternData->m_dDrawYPt2_1		=	dDrawYPt2_1;

  00083	f2 0f 10 45 40	 movsd	 xmm0, QWORD PTR _dDrawYPt2_1$[ebp]
; File C:\Program Files (x86)\Microsoft Visual Studio\2019\Community\VC\Tools\MSVC\14.29.30133\atlmfc\include\afxtempl.h

; 333  : 	{ INT_PTR nIndex = m_nSize;

  00088	8b 7d 08	 mov	 edi, DWORD PTR _pObjWavePatternData$[ebp]
; File D:\git\src\IBK\IBK_DRFN\ProjSrc\SrcChartEx\ChartAddIn\ChartPatternAddIn\WavePattern.cpp

; 2370 : 	pWavePatternData->m_dDrawYPt2_1		=	dDrawYPt2_1;

  0008b	f2 0f 11 46 40	 movsd	 QWORD PTR [esi+64], xmm0

; 2371 : 	pWavePatternData->m_dDrawSeq2_2		=	dDrawSeq2_2;

  00090	f2 0f 10 45 48	 movsd	 xmm0, QWORD PTR _dDrawSeq2_2$[ebp]
  00095	f2 0f 11 46 48	 movsd	 QWORD PTR [esi+72], xmm0

; 2372 : 	pWavePatternData->m_dDrawYPt2_2		=	dDrawYPt2_2;

  0009a	f2 0f 10 45 50	 movsd	 xmm0, QWORD PTR _dDrawYPt2_2$[ebp]
  0009f	f2 0f 11 46 50	 movsd	 QWORD PTR [esi+80], xmm0

; 2373 : 	
; 2374 : 	pWavePatternData->m_dNeckSeq1		=	dNeckSeq1;			// First Neck Data

  000a4	f2 0f 10 45 58	 movsd	 xmm0, QWORD PTR _dNeckSeq1$[ebp]
  000a9	f2 0f 11 46 58	 movsd	 QWORD PTR [esi+88], xmm0

; 2375 : 	pWavePatternData->m_dNeckYPt1		=	dNeckYPt1;

  000ae	f2 0f 10 45 60	 movsd	 xmm0, QWORD PTR _dNeckYPt1$[ebp]
  000b3	f2 0f 11 46 60	 movsd	 QWORD PTR [esi+96], xmm0

; 2376 : 	pWavePatternData->m_dNeckSeq2		=	dNeckSeq2;			// Second Neck Data

  000b8	f2 0f 10 45 68	 movsd	 xmm0, QWORD PTR _dNeckSeq2$[ebp]
  000bd	f2 0f 11 46 68	 movsd	 QWORD PTR [esi+104], xmm0

; 2377 : 	pWavePatternData->m_dNeckYPt2		=	dNeckYPt2;

  000c2	f2 0f 10 45 70	 movsd	 xmm0, QWORD PTR _dNeckYPt2$[ebp]
  000c7	f2 0f 11 46 70	 movsd	 QWORD PTR [esi+112], xmm0

; 2378 : 	
; 2379 : 	pWavePatternData->m_dNeckBaseYPt1	=	dNeckBaseYPt1;

  000cc	f2 0f 10 45 78	 movsd	 xmm0, QWORD PTR _dNeckBaseYPt1$[ebp]
  000d1	89 46 04	 mov	 DWORD PTR [esi+4], eax
  000d4	8b 45 10	 mov	 eax, DWORD PTR _nStartSeq$[ebp]
  000d7	f2 0f 11 46 78	 movsd	 QWORD PTR [esi+120], xmm0

; 2380 : 	pWavePatternData->m_dNeckBaseYPt2	=	dNeckBaseYPt2;

  000dc	f2 0f 10 85 80
	00 00 00	 movsd	 xmm0, QWORD PTR _dNeckBaseYPt2$[ebp]
  000e4	89 46 0c	 mov	 DWORD PTR [esi+12], eax
  000e7	8b 45 14	 mov	 eax, DWORD PTR _nEndSeq$[ebp]
  000ea	89 46 10	 mov	 DWORD PTR [esi+16], eax
  000ed	f2 0f 11 86 80
	00 00 00	 movsd	 QWORD PTR [esi+128], xmm0
; File C:\Program Files (x86)\Microsoft Visual Studio\2019\Community\VC\Tools\MSVC\14.29.30133\atlmfc\include\afxtempl.h

; 333  : 	{ INT_PTR nIndex = m_nSize;

  000f5	8b 5f 08	 mov	 ebx, DWORD PTR [edi+8]
; File D:\git\src\IBK\IBK_DRFN\ProjSrc\SrcChartEx\ChartAddIn\ChartPatternAddIn\WavePattern.cpp

; 2358 : 	pWavePatternData = new CWavePatternData;

  000f8	c7 45 fc ff ff
	ff ff		 mov	 DWORD PTR __$EHRec$[ebp+8], -1
; File C:\Program Files (x86)\Microsoft Visual Studio\2019\Community\VC\Tools\MSVC\14.29.30133\atlmfc\include\afxtempl.h

; 538  : 	if(nIndex < 0)

  000ff	85 db		 test	 ebx, ebx
  00101	78 27		 js	 SHORT $LN19@AddNewWave

; 540  : 
; 541  : 	if (nIndex >= m_nSize)
; 542  : 		SetSize(nIndex+1, -1);

  00103	6a ff		 push	 -1
  00105	8d 43 01	 lea	 eax, DWORD PTR [ebx+1]
  00108	8b cf		 mov	 ecx, edi
  0010a	50		 push	 eax
  0010b	e8 00 00 00 00	 call	 ?SetSize@?$CArray@PAVCWavePatternData@@PAV1@@@QAEXHH@Z ; CArray<CWavePatternData *,CWavePatternData *>::SetSize

; 543  : 	m_pData[nIndex] = newElement;

  00110	8b 47 04	 mov	 eax, DWORD PTR [edi+4]
  00113	89 34 98	 mov	 DWORD PTR [eax+ebx*4], esi
; File D:\git\src\IBK\IBK_DRFN\ProjSrc\SrcChartEx\ChartAddIn\ChartPatternAddIn\WavePattern.cpp

; 2383 : }

  00116	8b 4d f4	 mov	 ecx, DWORD PTR __$EHRec$[ebp]
  00119	64 89 0d 00 00
	00 00		 mov	 DWORD PTR fs:0, ecx
  00120	59		 pop	 ecx
  00121	5f		 pop	 edi
  00122	5e		 pop	 esi
  00123	5b		 pop	 ebx
  00124	8b e5		 mov	 esp, ebp
  00126	5d		 pop	 ebp
  00127	c2 80 00	 ret	 128			; 00000080H
$LN19@AddNewWave:
; File C:\Program Files (x86)\Microsoft Visual Studio\2019\Community\VC\Tools\MSVC\14.29.30133\atlmfc\include\afxtempl.h

; 539  : 		AfxThrowInvalidArgException();

  0012a	e8 00 00 00 00	 call	 ?AfxThrowInvalidArgException@@YGXXZ ; AfxThrowInvalidArgException
$LN17@AddNewWave:
  0012f	cc		 int	 3
_TEXT	ENDS
;	COMDAT text$x
text$x	SEGMENT
__unwindfunclet$?AddNewWavePatternData@CWavePattern@@QAEXPAVCObject@@HHHNNNNNNNNNNNNNN@Z$0:
  00000	8b 45 f0	 mov	 eax, DWORD PTR $T2[ebp]
  00003	50		 push	 eax
  00004	e8 00 00 00 00	 call	 ??3CObject@@SGXPAX@Z	; CObject::operator delete
  00009	c3		 ret	 0
  0000a	cc		 int	 3
  0000b	cc		 int	 3
  0000c	cc		 int	 3
  0000d	cc		 int	 3
  0000e	cc		 int	 3
__ehhandler$?AddNewWavePatternData@CWavePattern@@QAEXPAVCObject@@HHHNNNNNNNNNNNNNN@Z:
  0000f	90		 npad	 1
  00010	90		 npad	 1
  00011	8b 54 24 08	 mov	 edx, DWORD PTR [esp+8]
  00015	8d 42 0c	 lea	 eax, DWORD PTR [edx+12]
  00018	8b 4a ec	 mov	 ecx, DWORD PTR [edx-20]
  0001b	33 c8		 xor	 ecx, eax
  0001d	e8 00 00 00 00	 call	 @__security_check_cookie@4
  00022	b8 00 00 00 00	 mov	 eax, OFFSET __ehfuncinfo$?AddNewWavePatternData@CWavePattern@@QAEXPAVCObject@@HHHNNNNNNNNNNNNNN@Z
  00027	e9 00 00 00 00	 jmp	 ___CxxFrameHandler3
text$x	ENDS
?AddNewWavePatternData@CWavePattern@@QAEXPAVCObject@@HHHNNNNNNNNNNNNNN@Z ENDP ; CWavePattern::AddNewWavePatternData
; Function compile flags: /Ogtp
; File D:\git\src\IBK\IBK_DRFN\ProjSrc\SrcChartEx\ChartAddIn\ChartPatternAddIn\WavePattern.cpp
; File C:\Program Files (x86)\Microsoft Visual Studio\2019\Community\VC\Tools\MSVC\14.29.30133\atlmfc\include\afxtempl.h
; File D:\git\src\IBK\IBK_DRFN\ProjSrc\SrcChartEx\ChartAddIn\ChartPatternAddIn\WavePattern.cpp
; File C:\Program Files (x86)\Microsoft Visual Studio\2019\Community\VC\Tools\MSVC\14.29.30133\atlmfc\include\afxtempl.h
; File D:\git\src\IBK\IBK_DRFN\ProjSrc\SrcChartEx\ChartAddIn\ChartPatternAddIn\WavePattern.cpp
; File C:\Program Files (x86)\Microsoft Visual Studio\2019\Community\VC\Tools\MSVC\14.29.30133\atlmfc\include\afxtempl.h
; File D:\git\src\IBK\IBK_DRFN\ProjSrc\SrcChartEx\ChartAddIn\ChartPatternAddIn\WavePattern.cpp
; File C:\Program Files (x86)\Microsoft Visual Studio\2019\Community\VC\Tools\MSVC\14.29.30133\atlmfc\include\afxtempl.h
; File D:\git\src\IBK\IBK_DRFN\ProjSrc\SrcChartEx\ChartAddIn\ChartPatternAddIn\WavePattern.cpp
; File C:\Program Files (x86)\Microsoft Visual Studio\2019\Community\VC\Tools\MSVC\14.29.30133\atlmfc\include\afxtempl.h
; File D:\git\src\IBK\IBK_DRFN\ProjSrc\SrcChartEx\ChartAddIn\ChartPatternAddIn\WavePattern.cpp
; File C:\Program Files (x86)\Microsoft Visual Studio\2019\Community\VC\Tools\MSVC\14.29.30133\atlmfc\include\afxtempl.h
; File D:\git\src\IBK\IBK_DRFN\ProjSrc\SrcChartEx\ChartAddIn\ChartPatternAddIn\WavePattern.cpp
;	COMDAT ?Find_V_Bottom@CWavePattern@@QAEHPAVCObject@@0@Z
_TEXT	SEGMENT
$T1 = -16						; size = 4
_this$1$ = -12						; size = 4
_pHighLowPtData1$1$ = -8				; size = 4
tv876 = -4						; size = 4
tv866 = -4						; size = 4
_pObjHighLowPtData$ = 8					; size = 4
_pObjWavePatternData$ = 12				; size = 4
?Find_V_Bottom@CWavePattern@@QAEHPAVCObject@@0@Z PROC	; CWavePattern::Find_V_Bottom, COMDAT
; _this$ = ecx

; 2285 : {

  00000	55		 push	 ebp
  00001	8b ec		 mov	 ebp, esp
  00003	83 ec 10	 sub	 esp, 16			; 00000010H

; 2296 : 
; 2297 : 	for(int i = 0; i <= nPointCnt-nMininumData; i++)

  00006	8b 55 08	 mov	 edx, DWORD PTR _pObjHighLowPtData$[ebp]
  00009	89 4d f4	 mov	 DWORD PTR _this$1$[ebp], ecx
  0000c	8b 42 08	 mov	 eax, DWORD PTR [edx+8]
  0000f	83 e8 05	 sub	 eax, 5
  00012	89 45 f0	 mov	 DWORD PTR $T1[ebp], eax
  00015	0f 88 a9 02 00
	00		 js	 $LN3@Find_V_Bot

; 2286 : 	CArrayObjPt(CHighLowPtData) paryHighLowPtData = (CArrayObjPt(CHighLowPtData))pObjHighLowPtData;
; 2287 : 
; 2288 : 	CHighLowPtData *pHighLowPtData1, *pHighLowPtData2, *pHighLowPtData3, *pHighLowPtData4, *pHighLowPtData5;
; 2289 : 	pHighLowPtData1 = pHighLowPtData2 = pHighLowPtData3 = pHighLowPtData4 = pHighLowPtData5 = NULL;
; 2290 : 	int		nPointCnt;
; 2291 : 	int		nMininumData = 5;	// V Bottom    
; 2292 : 
; 2293 : 	double	dGradient1, dGradient2, dGradient3;		// 
; 2294 : 	
; 2295 : 	nPointCnt = paryHighLowPtData->GetSize();

  0001b	56		 push	 esi
  0001c	57		 push	 edi
  0001d	be 02 00 00 00	 mov	 esi, 2
$LL4@Find_V_Bot:
; File C:\Program Files (x86)\Microsoft Visual Studio\2019\Community\VC\Tools\MSVC\14.29.30133\atlmfc\include\afxtempl.h

; 288  : 	if(nIndex >= 0 && nIndex < m_nSize)

  00022	8d 4e fe	 lea	 ecx, DWORD PTR [esi-2]
  00025	85 c9		 test	 ecx, ecx
  00027	0f 88 a2 02 00
	00		 js	 $LN15@Find_V_Bot
  0002d	8b 42 08	 mov	 eax, DWORD PTR [edx+8]
  00030	3b c8		 cmp	 ecx, eax
  00032	0f 8d 97 02 00
	00		 jge	 $LN15@Find_V_Bot

; 289  : 		return m_pData[nIndex];

  00038	8b 4a 04	 mov	 ecx, DWORD PTR [edx+4]
; File D:\git\src\IBK\IBK_DRFN\ProjSrc\SrcChartEx\ChartAddIn\ChartPatternAddIn\WavePattern.cpp

; 2299 : 		pHighLowPtData1 = paryHighLowPtData->GetAt(i);		if ( !pHighLowPtData1 ) continue;

  0003b	8b 54 b1 f8	 mov	 edx, DWORD PTR [ecx+esi*4-8]
  0003f	89 55 f8	 mov	 DWORD PTR _pHighLowPtData1$1$[ebp], edx
  00042	85 d2		 test	 edx, edx
  00044	0f 84 68 02 00
	00		 je	 $LN2@Find_V_Bot

; 2300 : 		if ( pHighLowPtData1->m_nPointType != CHANGINGPT_LOWTOHIGH) continue;

  0004a	81 7a 04 ea 03
	00 00		 cmp	 DWORD PTR [edx+4], 1002	; 000003eaH
  00051	0f 85 5b 02 00
	00		 jne	 $LN2@Find_V_Bot
; File C:\Program Files (x86)\Microsoft Visual Studio\2019\Community\VC\Tools\MSVC\14.29.30133\atlmfc\include\afxtempl.h

; 288  : 	if(nIndex >= 0 && nIndex < m_nSize)

  00057	8d 56 ff	 lea	 edx, DWORD PTR [esi-1]
  0005a	85 d2		 test	 edx, edx
  0005c	0f 88 6d 02 00
	00		 js	 $LN15@Find_V_Bot
  00062	3b d0		 cmp	 edx, eax
  00064	0f 8d 65 02 00
	00		 jge	 $LN15@Find_V_Bot
; File D:\git\src\IBK\IBK_DRFN\ProjSrc\SrcChartEx\ChartAddIn\ChartPatternAddIn\WavePattern.cpp

; 2302 : 		pHighLowPtData2 = paryHighLowPtData->GetAt(i+1);	if ( !pHighLowPtData2 ) continue;

  0006a	83 7c b1 fc 00	 cmp	 DWORD PTR [ecx+esi*4-4], 0
  0006f	0f 84 3d 02 00
	00		 je	 $LN2@Find_V_Bot
; File C:\Program Files (x86)\Microsoft Visual Studio\2019\Community\VC\Tools\MSVC\14.29.30133\atlmfc\include\afxtempl.h

; 288  : 	if(nIndex >= 0 && nIndex < m_nSize)

  00075	85 f6		 test	 esi, esi
  00077	0f 88 52 02 00
	00		 js	 $LN15@Find_V_Bot
  0007d	3b f0		 cmp	 esi, eax
  0007f	0f 8d 4a 02 00
	00		 jge	 $LN15@Find_V_Bot
; File D:\git\src\IBK\IBK_DRFN\ProjSrc\SrcChartEx\ChartAddIn\ChartPatternAddIn\WavePattern.cpp

; 2303 : 		pHighLowPtData3 = paryHighLowPtData->GetAt(i+2);	if ( !pHighLowPtData3 ) continue;

  00085	8b 3c b1	 mov	 edi, DWORD PTR [ecx+esi*4]
  00088	85 ff		 test	 edi, edi
  0008a	0f 84 22 02 00
	00		 je	 $LN2@Find_V_Bot
; File C:\Program Files (x86)\Microsoft Visual Studio\2019\Community\VC\Tools\MSVC\14.29.30133\atlmfc\include\afxtempl.h

; 288  : 	if(nIndex >= 0 && nIndex < m_nSize)

  00090	8d 56 01	 lea	 edx, DWORD PTR [esi+1]
  00093	85 d2		 test	 edx, edx
  00095	0f 88 34 02 00
	00		 js	 $LN15@Find_V_Bot
  0009b	3b d0		 cmp	 edx, eax
  0009d	0f 8d 2c 02 00
	00		 jge	 $LN15@Find_V_Bot
; File D:\git\src\IBK\IBK_DRFN\ProjSrc\SrcChartEx\ChartAddIn\ChartPatternAddIn\WavePattern.cpp

; 2304 : 		pHighLowPtData4 = paryHighLowPtData->GetAt(i+3);	if ( !pHighLowPtData4 ) continue;

  000a3	83 7c b1 04 00	 cmp	 DWORD PTR [ecx+esi*4+4], 0
  000a8	0f 84 04 02 00
	00		 je	 $LN2@Find_V_Bot
; File C:\Program Files (x86)\Microsoft Visual Studio\2019\Community\VC\Tools\MSVC\14.29.30133\atlmfc\include\afxtempl.h

; 288  : 	if(nIndex >= 0 && nIndex < m_nSize)

  000ae	8d 56 02	 lea	 edx, DWORD PTR [esi+2]
  000b1	89 55 fc	 mov	 DWORD PTR tv866[ebp], edx
  000b4	85 d2		 test	 edx, edx
  000b6	0f 88 13 02 00
	00		 js	 $LN15@Find_V_Bot
  000bc	3b d0		 cmp	 edx, eax
  000be	0f 8d 0b 02 00
	00		 jge	 $LN15@Find_V_Bot
; File D:\git\src\IBK\IBK_DRFN\ProjSrc\SrcChartEx\ChartAddIn\ChartPatternAddIn\WavePattern.cpp

; 2305 : 		pHighLowPtData5 = paryHighLowPtData->GetAt(i+4);	if ( !pHighLowPtData5 ) continue;

  000c4	83 7c b1 08 00	 cmp	 DWORD PTR [ecx+esi*4+8], 0
  000c9	0f 84 e3 01 00
	00		 je	 $LN2@Find_V_Bot

; 2306 : 
; 2307 : 		if ( (pHighLowPtData1->m_dLow > pHighLowPtData3->m_dLow) && (pHighLowPtData3->m_dLow < pHighLowPtData5->m_dLow))

  000cf	8b 44 b1 f8	 mov	 eax, DWORD PTR [ecx+esi*4-8]
  000d3	f2 0f 10 6f 28	 movsd	 xmm5, QWORD PTR [edi+40]
  000d8	f2 0f 10 40 28	 movsd	 xmm0, QWORD PTR [eax+40]
  000dd	66 0f 2f c5	 comisd	 xmm0, xmm5
  000e1	0f 86 cb 01 00
	00		 jbe	 $LN2@Find_V_Bot
  000e7	8b 44 b1 08	 mov	 eax, DWORD PTR [ecx+esi*4+8]
  000eb	f2 0f 10 40 28	 movsd	 xmm0, QWORD PTR [eax+40]
  000f0	66 0f 2f c5	 comisd	 xmm0, xmm5
  000f4	0f 86 b8 01 00
	00		 jbe	 $LN2@Find_V_Bot

; 2308 : 		{
; 2309 : 			dGradient1 = GetModifyGradient( pHighLowPtData2->m_nDataSeq, pHighLowPtData2->m_dHigh, 

  000fa	8b 44 b1 fc	 mov	 eax, DWORD PTR [ecx+esi*4-4]
  000fe	0f 57 db	 xorps	 xmm3, xmm3
  00101	66 0f 6e 7f 08	 movd	 xmm7, DWORD PTR [edi+8]
  00106	0f 57 d2	 xorps	 xmm2, xmm2
  00109	f3 0f e6 ff	 cvtdq2pd xmm7, xmm7
  0010d	8b 50 08	 mov	 edx, DWORD PTR [eax+8]
  00110	89 55 fc	 mov	 DWORD PTR tv876[ebp], edx
  00113	f2 0f 10 60 20	 movsd	 xmm4, QWORD PTR [eax+32]
  00118	66 0f 6e ca	 movd	 xmm1, edx

; 2458 : 	if( (dXPos2 - dXPos1) != 0 && (dYPos1 != 0))

  0011c	0f 28 c7	 movaps	 xmm0, xmm7
  0011f	8b 54 b1 04	 mov	 edx, DWORD PTR [ecx+esi*4+4]

; 2308 : 		{
; 2309 : 			dGradient1 = GetModifyGradient( pHighLowPtData2->m_nDataSeq, pHighLowPtData2->m_dHigh, 

  00123	f3 0f e6 c9	 cvtdq2pd xmm1, xmm1

; 2458 : 	if( (dXPos2 - dXPos1) != 0 && (dYPos1 != 0))

  00127	f2 0f 5c c1	 subsd	 xmm0, xmm1
  0012b	66 0f 2e c3	 ucomisd xmm0, xmm3
  0012f	9f		 lahf
  00130	f6 c4 44	 test	 ah, 68			; 00000044H
  00133	7b 21		 jnp	 SHORT $LN31@Find_V_Bot
  00135	66 0f 2e e3	 ucomisd xmm4, xmm3
  00139	9f		 lahf
  0013a	f6 c4 44	 test	 ah, 68			; 00000044H
  0013d	7b 17		 jnp	 SHORT $LN31@Find_V_Bot

; 2459 : 	{
; 2460 : 		dGradient = (dYPos2 - dYPos1) / dYPos1 / (dXPos2 - dXPos1) * 100;

  0013f	0f 28 d5	 movaps	 xmm2, xmm5
  00142	f2 0f 5c d4	 subsd	 xmm2, xmm4
  00146	f2 0f 5e d4	 divsd	 xmm2, xmm4
  0014a	f2 0f 5e d0	 divsd	 xmm2, xmm0
  0014e	f2 0f 59 15 00
	00 00 00	 mulsd	 xmm2, QWORD PTR __real@4059000000000000
$LN31@Find_V_Bot:
  00156	66 0f 6e 72 08	 movd	 xmm6, DWORD PTR [edx+8]
  0015b	0f 57 c9	 xorps	 xmm1, xmm1

; 2310 : 											pHighLowPtData3->m_nDataSeq, pHighLowPtData3->m_dLow);	// 2-3
; 2311 : 			
; 2312 : 			dGradient2 = GetModifyGradient(	pHighLowPtData3->m_nDataSeq, pHighLowPtData3->m_dLow, 

  0015e	f3 0f e6 f6	 cvtdq2pd xmm6, xmm6

; 2458 : 	if( (dXPos2 - dXPos1) != 0 && (dYPos1 != 0))

  00162	0f 28 c6	 movaps	 xmm0, xmm6
  00165	f2 0f 5c c7	 subsd	 xmm0, xmm7
  00169	f2 0f 10 3d 00
	00 00 00	 movsd	 xmm7, QWORD PTR __real@4059000000000000
  00171	66 0f 2e c3	 ucomisd xmm0, xmm3
  00175	9f		 lahf
  00176	f6 c4 44	 test	 ah, 68			; 00000044H
  00179	7b 1f		 jnp	 SHORT $LN34@Find_V_Bot
  0017b	66 0f 2e eb	 ucomisd xmm5, xmm3
  0017f	9f		 lahf
  00180	f6 c4 44	 test	 ah, 68			; 00000044H
  00183	7b 15		 jnp	 SHORT $LN34@Find_V_Bot

; 2459 : 	{
; 2460 : 		dGradient = (dYPos2 - dYPos1) / dYPos1 / (dXPos2 - dXPos1) * 100;

  00185	f2 0f 10 4a 20	 movsd	 xmm1, QWORD PTR [edx+32]
  0018a	f2 0f 5c cd	 subsd	 xmm1, xmm5
  0018e	f2 0f 5e cd	 divsd	 xmm1, xmm5
  00192	f2 0f 5e c8	 divsd	 xmm1, xmm0
  00196	f2 0f 59 cf	 mulsd	 xmm1, xmm7
$LN34@Find_V_Bot:

; 2458 : 	if( (dXPos2 - dXPos1) != 0 && (dYPos1 != 0))

  0019a	8b 7d fc	 mov	 edi, DWORD PTR tv876[ebp]
  0019d	0f 57 c0	 xorps	 xmm0, xmm0
  001a0	66 0f 6e ef	 movd	 xmm5, edi
  001a4	f3 0f e6 ed	 cvtdq2pd xmm5, xmm5
  001a8	f2 0f 5c f5	 subsd	 xmm6, xmm5
  001ac	66 0f 2e f3	 ucomisd xmm6, xmm3
  001b0	9f		 lahf
  001b1	f6 c4 44	 test	 ah, 68			; 00000044H
  001b4	7b 1f		 jnp	 SHORT $LN37@Find_V_Bot
  001b6	66 0f 2e e3	 ucomisd xmm4, xmm3
  001ba	9f		 lahf
  001bb	f6 c4 44	 test	 ah, 68			; 00000044H
  001be	7b 15		 jnp	 SHORT $LN37@Find_V_Bot

; 2459 : 	{
; 2460 : 		dGradient = (dYPos2 - dYPos1) / dYPos1 / (dXPos2 - dXPos1) * 100;

  001c0	f2 0f 10 42 20	 movsd	 xmm0, QWORD PTR [edx+32]
  001c5	f2 0f 5c c4	 subsd	 xmm0, xmm4
  001c9	f2 0f 5e c4	 divsd	 xmm0, xmm4
  001cd	f2 0f 5e c6	 divsd	 xmm0, xmm6
  001d1	f2 0f 59 c7	 mulsd	 xmm0, xmm7
$LN37@Find_V_Bot:

; 2313 : 											pHighLowPtData4->m_nDataSeq, pHighLowPtData4->m_dHigh);	// 3-4
; 2314 : 			
; 2315 : 			dGradient3 = GetModifyGradient( pHighLowPtData2->m_nDataSeq, pHighLowPtData2->m_dHigh, 
; 2316 : 											pHighLowPtData4->m_nDataSeq, pHighLowPtData4->m_dHigh);	// 2-4
; 2317 : 
; 2318 : 			if ( dGradient1 <= -0.6 && dGradient2 >= 0.6 && fabs(dGradient3) <= 0.1 )

  001d5	f2 0f 10 2d 00
	00 00 00	 movsd	 xmm5, QWORD PTR __real@bfe3333333333333
  001dd	66 0f 2f ea	 comisd	 xmm5, xmm2
  001e1	0f 82 cb 00 00
	00		 jb	 $LN2@Find_V_Bot
  001e7	66 0f 2f 0d 00
	00 00 00	 comisd	 xmm1, QWORD PTR __real@3fe3333333333333
  001ef	0f 82 bd 00 00
	00		 jb	 $LN2@Find_V_Bot
  001f5	0f 54 05 00 00
	00 00		 andps	 xmm0, QWORD PTR __xmm@7fffffffffffffff7fffffffffffffff
  001fc	f2 0f 10 0d 00
	00 00 00	 movsd	 xmm1, QWORD PTR __real@3fb999999999999a
  00204	66 0f 2f c8	 comisd	 xmm1, xmm0
  00208	0f 82 a4 00 00
	00		 jb	 $LN2@Find_V_Bot

; 2446 : 	if( (dXPos2 - dXPos1) != 0)

  0020e	66 0f 2e f3	 ucomisd xmm6, xmm3
  00212	0f 57 c9	 xorps	 xmm1, xmm1
  00215	9f		 lahf
  00216	f6 c4 44	 test	 ah, 68			; 00000044H
  00219	7b 0d		 jnp	 SHORT $LN40@Find_V_Bot

; 2447 : 	{
; 2448 : 		dGradient = (dYPos2 - dYPos1) / (dXPos2 - dXPos1);

  0021b	f2 0f 10 4a 20	 movsd	 xmm1, QWORD PTR [edx+32]
  00220	f2 0f 5c cc	 subsd	 xmm1, xmm4
  00224	f2 0f 5e ce	 divsd	 xmm1, xmm6
$LN40@Find_V_Bot:

; 2319 : 			{
; 2320 : 				double dGradA;
; 2321 : 				double dYDrawPt1_1, dYDrawPt1_2;
; 2322 : 
; 2323 : 				dGradA = GetGradient(	pHighLowPtData2->m_nDataSeq, pHighLowPtData2->m_dHigh, 
; 2324 : 										pHighLowPtData4->m_nDataSeq, pHighLowPtData4->m_dHigh);	// 2-4
; 2325 : 
; 2326 : 				// First Draw Data
; 2327 : 				dYDrawPt1_1 = dGradA * (pHighLowPtData1->m_nDataSeq - pHighLowPtData2->m_nDataSeq) + pHighLowPtData2->m_dHigh;
; 2328 : 				dYDrawPt1_2 = dGradA * (pHighLowPtData5->m_nDataSeq - pHighLowPtData2->m_nDataSeq) + pHighLowPtData2->m_dHigh;

  00228	8b 44 b1 08	 mov	 eax, DWORD PTR [ecx+esi*4+8]

; 2329 : 
; 2330 : 
; 2331 : 				AddNewWavePatternData(	pObjWavePatternData,

  0022c	83 ec 70	 sub	 esp, 112		; 00000070H
  0022f	8b 48 08	 mov	 ecx, DWORD PTR [eax+8]
  00232	8b 45 f8	 mov	 eax, DWORD PTR _pHighLowPtData1$1$[ebp]
  00235	0f 11 5c 24 60	 movups	 XMMWORD PTR [esp+96], xmm3
  0023a	0f 11 5c 24 50	 movups	 XMMWORD PTR [esp+80], xmm3
  0023f	8b 50 08	 mov	 edx, DWORD PTR [eax+8]
  00242	8b c1		 mov	 eax, ecx
  00244	2b c7		 sub	 eax, edi
  00246	0f 11 5c 24 40	 movups	 XMMWORD PTR [esp+64], xmm3
  0024b	0f 11 5c 24 30	 movups	 XMMWORD PTR [esp+48], xmm3
  00250	66 0f 6e c0	 movd	 xmm0, eax
  00254	8b c2		 mov	 eax, edx
  00256	f3 0f e6 c0	 cvtdq2pd xmm0, xmm0
  0025a	2b c7		 sub	 eax, edi
  0025c	0f 11 5c 24 20	 movups	 XMMWORD PTR [esp+32], xmm3
  00261	f2 0f 59 c1	 mulsd	 xmm0, xmm1
  00265	f2 0f 58 c4	 addsd	 xmm0, xmm4
  00269	f2 0f 11 44 24
	18		 movsd	 QWORD PTR [esp+24], xmm0
  0026f	66 0f 6e c1	 movd	 xmm0, ecx
  00273	f3 0f e6 c0	 cvtdq2pd xmm0, xmm0
  00277	f2 0f 11 44 24
	10		 movsd	 QWORD PTR [esp+16], xmm0
  0027d	66 0f 6e c0	 movd	 xmm0, eax
  00281	f3 0f e6 c0	 cvtdq2pd xmm0, xmm0
  00285	f2 0f 59 c1	 mulsd	 xmm0, xmm1
  00289	f2 0f 58 c4	 addsd	 xmm0, xmm4
  0028d	f2 0f 11 44 24
	08		 movsd	 QWORD PTR [esp+8], xmm0
  00293	66 0f 6e c2	 movd	 xmm0, edx
  00297	f3 0f e6 c0	 cvtdq2pd xmm0, xmm0
  0029b	f2 0f 11 04 24	 movsd	 QWORD PTR [esp], xmm0
  002a0	51		 push	 ecx
  002a1	8b 4d f4	 mov	 ecx, DWORD PTR _this$1$[ebp]
  002a4	52		 push	 edx
  002a5	68 b4 0f 00 00	 push	 4020			; 00000fb4H
  002aa	ff 75 0c	 push	 DWORD PTR _pObjWavePatternData$[ebp]
  002ad	e8 00 00 00 00	 call	 ?AddNewWavePatternData@CWavePattern@@QAEXPAVCObject@@HHHNNNNNNNNNNNNNN@Z ; CWavePattern::AddNewWavePatternData
$LN2@Find_V_Bot:

; 2296 : 
; 2297 : 	for(int i = 0; i <= nPointCnt-nMininumData; i++)

  002b2	8b 55 08	 mov	 edx, DWORD PTR _pObjHighLowPtData$[ebp]
  002b5	46		 inc	 esi
  002b6	8d 46 fe	 lea	 eax, DWORD PTR [esi-2]
  002b9	3b 45 f0	 cmp	 eax, DWORD PTR $T1[ebp]
  002bc	0f 8e 60 fd ff
	ff		 jle	 $LL4@Find_V_Bot
  002c2	5f		 pop	 edi
  002c3	5e		 pop	 esi
$LN3@Find_V_Bot:

; 2332 : 										PTN_V_BOTTOM,					pHighLowPtData1->m_nDataSeq,	pHighLowPtData5->m_nDataSeq,		
; 2333 : 										pHighLowPtData1->m_nDataSeq,	dYDrawPt1_1,					pHighLowPtData5->m_nDataSeq,	dYDrawPt1_2,
; 2334 : 										ZERO,							ZERO,							ZERO,							ZERO,
; 2335 : 										ZERO,							ZERO,							ZERO,							ZERO,
; 2336 : 										ZERO,							ZERO	);
; 2337 : 
; 2338 : 			}
; 2339 : 		}
; 2340 : 	}
; 2341 : 
; 2342 : 	return TRUE;

  002c4	b8 01 00 00 00	 mov	 eax, 1

; 2343 : }

  002c9	8b e5		 mov	 esp, ebp
  002cb	5d		 pop	 ebp
  002cc	c2 08 00	 ret	 8
$LN15@Find_V_Bot:
; File C:\Program Files (x86)\Microsoft Visual Studio\2019\Community\VC\Tools\MSVC\14.29.30133\atlmfc\include\afxtempl.h

; 290  : 	AfxThrowInvalidArgException();

  002cf	e8 00 00 00 00	 call	 ?AfxThrowInvalidArgException@@YGXXZ ; AfxThrowInvalidArgException
$LN48@Find_V_Bot:
  002d4	cc		 int	 3
?Find_V_Bottom@CWavePattern@@QAEHPAVCObject@@0@Z ENDP	; CWavePattern::Find_V_Bottom
_TEXT	ENDS
; Function compile flags: /Ogtp
; File D:\git\src\IBK\IBK_DRFN\ProjSrc\SrcChartEx\ChartAddIn\ChartPatternAddIn\WavePattern.cpp
; File C:\Program Files (x86)\Microsoft Visual Studio\2019\Community\VC\Tools\MSVC\14.29.30133\atlmfc\include\afxtempl.h
; File D:\git\src\IBK\IBK_DRFN\ProjSrc\SrcChartEx\ChartAddIn\ChartPatternAddIn\WavePattern.cpp
; File C:\Program Files (x86)\Microsoft Visual Studio\2019\Community\VC\Tools\MSVC\14.29.30133\atlmfc\include\afxtempl.h
; File D:\git\src\IBK\IBK_DRFN\ProjSrc\SrcChartEx\ChartAddIn\ChartPatternAddIn\WavePattern.cpp
; File C:\Program Files (x86)\Microsoft Visual Studio\2019\Community\VC\Tools\MSVC\14.29.30133\atlmfc\include\afxtempl.h
; File D:\git\src\IBK\IBK_DRFN\ProjSrc\SrcChartEx\ChartAddIn\ChartPatternAddIn\WavePattern.cpp
; File C:\Program Files (x86)\Microsoft Visual Studio\2019\Community\VC\Tools\MSVC\14.29.30133\atlmfc\include\afxtempl.h
; File D:\git\src\IBK\IBK_DRFN\ProjSrc\SrcChartEx\ChartAddIn\ChartPatternAddIn\WavePattern.cpp
; File C:\Program Files (x86)\Microsoft Visual Studio\2019\Community\VC\Tools\MSVC\14.29.30133\atlmfc\include\afxtempl.h
; File D:\git\src\IBK\IBK_DRFN\ProjSrc\SrcChartEx\ChartAddIn\ChartPatternAddIn\WavePattern.cpp
; File C:\Program Files (x86)\Microsoft Visual Studio\2019\Community\VC\Tools\MSVC\14.29.30133\atlmfc\include\afxtempl.h
; File D:\git\src\IBK\IBK_DRFN\ProjSrc\SrcChartEx\ChartAddIn\ChartPatternAddIn\WavePattern.cpp
;	COMDAT ?Find_V_Top@CWavePattern@@QAEHPAVCObject@@0@Z
_TEXT	SEGMENT
$T1 = -16						; size = 4
_this$1$ = -12						; size = 4
_pHighLowPtData1$1$ = -8				; size = 4
tv876 = -4						; size = 4
tv866 = -4						; size = 4
_pObjHighLowPtData$ = 8					; size = 4
_pObjWavePatternData$ = 12				; size = 4
?Find_V_Top@CWavePattern@@QAEHPAVCObject@@0@Z PROC	; CWavePattern::Find_V_Top, COMDAT
; _this$ = ecx

; 2220 : {

  00000	55		 push	 ebp
  00001	8b ec		 mov	 ebp, esp
  00003	83 ec 10	 sub	 esp, 16			; 00000010H

; 2231 : 
; 2232 : 	for(int i = 0; i <= nPointCnt-nMininumData; i++)

  00006	8b 55 08	 mov	 edx, DWORD PTR _pObjHighLowPtData$[ebp]
  00009	89 4d f4	 mov	 DWORD PTR _this$1$[ebp], ecx
  0000c	8b 42 08	 mov	 eax, DWORD PTR [edx+8]
  0000f	83 e8 05	 sub	 eax, 5
  00012	89 45 f0	 mov	 DWORD PTR $T1[ebp], eax
  00015	0f 88 b7 02 00
	00		 js	 $LN3@Find_V_Top

; 2221 : 	CArrayObjPt(CHighLowPtData) paryHighLowPtData = (CArrayObjPt(CHighLowPtData))pObjHighLowPtData;
; 2222 : 
; 2223 : 	CHighLowPtData *pHighLowPtData1, *pHighLowPtData2, *pHighLowPtData3, *pHighLowPtData4, *pHighLowPtData5;
; 2224 : 	pHighLowPtData1 = pHighLowPtData2 = pHighLowPtData3 = pHighLowPtData4 = pHighLowPtData5 = NULL;
; 2225 : 	int		nPointCnt;
; 2226 : 	int		nMininumData = 5;	// V Top    
; 2227 : 
; 2228 : 	double	dGradient1, dGradient2, dGradient3;		// 
; 2229 : 	
; 2230 : 	nPointCnt = paryHighLowPtData->GetSize();

  0001b	f2 0f 10 35 00
	00 00 00	 movsd	 xmm6, QWORD PTR __real@4059000000000000
  00023	56		 push	 esi
  00024	57		 push	 edi
  00025	be 02 00 00 00	 mov	 esi, 2
  0002a	66 0f 1f 44 00
	00		 npad	 6
$LL4@Find_V_Top:
; File C:\Program Files (x86)\Microsoft Visual Studio\2019\Community\VC\Tools\MSVC\14.29.30133\atlmfc\include\afxtempl.h

; 288  : 	if(nIndex >= 0 && nIndex < m_nSize)

  00030	8d 4e fe	 lea	 ecx, DWORD PTR [esi-2]
  00033	85 c9		 test	 ecx, ecx
  00035	0f 88 a2 02 00
	00		 js	 $LN15@Find_V_Top
  0003b	8b 42 08	 mov	 eax, DWORD PTR [edx+8]
  0003e	3b c8		 cmp	 ecx, eax
  00040	0f 8d 97 02 00
	00		 jge	 $LN15@Find_V_Top

; 289  : 		return m_pData[nIndex];

  00046	8b 4a 04	 mov	 ecx, DWORD PTR [edx+4]
; File D:\git\src\IBK\IBK_DRFN\ProjSrc\SrcChartEx\ChartAddIn\ChartPatternAddIn\WavePattern.cpp

; 2234 : 		pHighLowPtData1 = paryHighLowPtData->GetAt(i);		if ( !pHighLowPtData1 ) continue;

  00049	8b 54 b1 f8	 mov	 edx, DWORD PTR [ecx+esi*4-8]
  0004d	89 55 f8	 mov	 DWORD PTR _pHighLowPtData1$1$[ebp], edx
  00050	85 d2		 test	 edx, edx
  00052	0f 84 68 02 00
	00		 je	 $LN2@Find_V_Top

; 2235 : 		if ( pHighLowPtData1->m_nPointType != CHANGINGPT_HIGHTOLOW) continue;

  00058	81 7a 04 e9 03
	00 00		 cmp	 DWORD PTR [edx+4], 1001	; 000003e9H
  0005f	0f 85 5b 02 00
	00		 jne	 $LN2@Find_V_Top
; File C:\Program Files (x86)\Microsoft Visual Studio\2019\Community\VC\Tools\MSVC\14.29.30133\atlmfc\include\afxtempl.h

; 288  : 	if(nIndex >= 0 && nIndex < m_nSize)

  00065	8d 56 ff	 lea	 edx, DWORD PTR [esi-1]
  00068	85 d2		 test	 edx, edx
  0006a	0f 88 6d 02 00
	00		 js	 $LN15@Find_V_Top
  00070	3b d0		 cmp	 edx, eax
  00072	0f 8d 65 02 00
	00		 jge	 $LN15@Find_V_Top
; File D:\git\src\IBK\IBK_DRFN\ProjSrc\SrcChartEx\ChartAddIn\ChartPatternAddIn\WavePattern.cpp

; 2237 : 		pHighLowPtData2 = paryHighLowPtData->GetAt(i+1);	if ( !pHighLowPtData2 ) continue;

  00078	83 7c b1 fc 00	 cmp	 DWORD PTR [ecx+esi*4-4], 0
  0007d	0f 84 3d 02 00
	00		 je	 $LN2@Find_V_Top
; File C:\Program Files (x86)\Microsoft Visual Studio\2019\Community\VC\Tools\MSVC\14.29.30133\atlmfc\include\afxtempl.h

; 288  : 	if(nIndex >= 0 && nIndex < m_nSize)

  00083	85 f6		 test	 esi, esi
  00085	0f 88 52 02 00
	00		 js	 $LN15@Find_V_Top
  0008b	3b f0		 cmp	 esi, eax
  0008d	0f 8d 4a 02 00
	00		 jge	 $LN15@Find_V_Top
; File D:\git\src\IBK\IBK_DRFN\ProjSrc\SrcChartEx\ChartAddIn\ChartPatternAddIn\WavePattern.cpp

; 2238 : 		pHighLowPtData3 = paryHighLowPtData->GetAt(i+2);	if ( !pHighLowPtData3 ) continue;

  00093	8b 3c b1	 mov	 edi, DWORD PTR [ecx+esi*4]
  00096	85 ff		 test	 edi, edi
  00098	0f 84 22 02 00
	00		 je	 $LN2@Find_V_Top
; File C:\Program Files (x86)\Microsoft Visual Studio\2019\Community\VC\Tools\MSVC\14.29.30133\atlmfc\include\afxtempl.h

; 288  : 	if(nIndex >= 0 && nIndex < m_nSize)

  0009e	8d 56 01	 lea	 edx, DWORD PTR [esi+1]
  000a1	85 d2		 test	 edx, edx
  000a3	0f 88 34 02 00
	00		 js	 $LN15@Find_V_Top
  000a9	3b d0		 cmp	 edx, eax
  000ab	0f 8d 2c 02 00
	00		 jge	 $LN15@Find_V_Top
; File D:\git\src\IBK\IBK_DRFN\ProjSrc\SrcChartEx\ChartAddIn\ChartPatternAddIn\WavePattern.cpp

; 2239 : 		pHighLowPtData4 = paryHighLowPtData->GetAt(i+3);	if ( !pHighLowPtData4 ) continue;

  000b1	83 7c b1 04 00	 cmp	 DWORD PTR [ecx+esi*4+4], 0
  000b6	0f 84 04 02 00
	00		 je	 $LN2@Find_V_Top
; File C:\Program Files (x86)\Microsoft Visual Studio\2019\Community\VC\Tools\MSVC\14.29.30133\atlmfc\include\afxtempl.h

; 288  : 	if(nIndex >= 0 && nIndex < m_nSize)

  000bc	8d 56 02	 lea	 edx, DWORD PTR [esi+2]
  000bf	89 55 fc	 mov	 DWORD PTR tv866[ebp], edx
  000c2	85 d2		 test	 edx, edx
  000c4	0f 88 13 02 00
	00		 js	 $LN15@Find_V_Top
  000ca	3b d0		 cmp	 edx, eax
  000cc	0f 8d 0b 02 00
	00		 jge	 $LN15@Find_V_Top
; File D:\git\src\IBK\IBK_DRFN\ProjSrc\SrcChartEx\ChartAddIn\ChartPatternAddIn\WavePattern.cpp

; 2240 : 		pHighLowPtData5 = paryHighLowPtData->GetAt(i+4);	if ( !pHighLowPtData5 ) continue;

  000d2	83 7c b1 08 00	 cmp	 DWORD PTR [ecx+esi*4+8], 0
  000d7	0f 84 e3 01 00
	00		 je	 $LN2@Find_V_Top

; 2241 : 
; 2242 : 		if ( (pHighLowPtData1->m_dHigh < pHighLowPtData3->m_dHigh) && (pHighLowPtData3->m_dHigh > pHighLowPtData5->m_dHigh))

  000dd	8b 44 b1 f8	 mov	 eax, DWORD PTR [ecx+esi*4-8]
  000e1	f2 0f 10 47 20	 movsd	 xmm0, QWORD PTR [edi+32]
  000e6	66 0f 2f 40 20	 comisd	 xmm0, QWORD PTR [eax+32]
  000eb	0f 86 cf 01 00
	00		 jbe	 $LN2@Find_V_Top
  000f1	8b 44 b1 08	 mov	 eax, DWORD PTR [ecx+esi*4+8]
  000f5	66 0f 2f 40 20	 comisd	 xmm0, QWORD PTR [eax+32]
  000fa	0f 86 c0 01 00
	00		 jbe	 $LN2@Find_V_Top

; 2243 : 		{
; 2244 : 			dGradient1 = GetModifyGradient( pHighLowPtData2->m_nDataSeq, pHighLowPtData2->m_dLow, 

  00100	8b 44 b1 fc	 mov	 eax, DWORD PTR [ecx+esi*4-4]
  00104	0f 57 db	 xorps	 xmm3, xmm3
  00107	66 0f 6e 7f 08	 movd	 xmm7, DWORD PTR [edi+8]
  0010c	0f 57 d2	 xorps	 xmm2, xmm2
  0010f	f3 0f e6 ff	 cvtdq2pd xmm7, xmm7
  00113	8b 50 08	 mov	 edx, DWORD PTR [eax+8]
  00116	89 55 fc	 mov	 DWORD PTR tv876[ebp], edx
  00119	f2 0f 10 60 28	 movsd	 xmm4, QWORD PTR [eax+40]
  0011e	66 0f 6e ea	 movd	 xmm5, edx

; 2458 : 	if( (dXPos2 - dXPos1) != 0 && (dYPos1 != 0))

  00122	0f 28 cf	 movaps	 xmm1, xmm7
  00125	8b 54 b1 04	 mov	 edx, DWORD PTR [ecx+esi*4+4]

; 2243 : 		{
; 2244 : 			dGradient1 = GetModifyGradient( pHighLowPtData2->m_nDataSeq, pHighLowPtData2->m_dLow, 

  00129	f3 0f e6 ed	 cvtdq2pd xmm5, xmm5

; 2458 : 	if( (dXPos2 - dXPos1) != 0 && (dYPos1 != 0))

  0012d	f2 0f 5c cd	 subsd	 xmm1, xmm5
  00131	66 0f 2e cb	 ucomisd xmm1, xmm3
  00135	9f		 lahf
  00136	f6 c4 44	 test	 ah, 68			; 00000044H
  00139	7b 1d		 jnp	 SHORT $LN31@Find_V_Top
  0013b	66 0f 2e e3	 ucomisd xmm4, xmm3
  0013f	9f		 lahf
  00140	f6 c4 44	 test	 ah, 68			; 00000044H
  00143	7b 13		 jnp	 SHORT $LN31@Find_V_Top

; 2459 : 	{
; 2460 : 		dGradient = (dYPos2 - dYPos1) / dYPos1 / (dXPos2 - dXPos1) * 100;

  00145	0f 28 d0	 movaps	 xmm2, xmm0
  00148	f2 0f 5c d4	 subsd	 xmm2, xmm4
  0014c	f2 0f 5e d4	 divsd	 xmm2, xmm4
  00150	f2 0f 5e d1	 divsd	 xmm2, xmm1
  00154	f2 0f 59 d6	 mulsd	 xmm2, xmm6
$LN31@Find_V_Top:
  00158	66 0f 6e 6a 08	 movd	 xmm5, DWORD PTR [edx+8]
  0015d	0f 57 c9	 xorps	 xmm1, xmm1

; 2245 : 											pHighLowPtData3->m_nDataSeq, pHighLowPtData3->m_dHigh);	// 2-3
; 2246 : 			
; 2247 : 			dGradient2 = GetModifyGradient(	pHighLowPtData3->m_nDataSeq, pHighLowPtData3->m_dHigh, 

  00160	f3 0f e6 ed	 cvtdq2pd xmm5, xmm5

; 2458 : 	if( (dXPos2 - dXPos1) != 0 && (dYPos1 != 0))

  00164	0f 28 f5	 movaps	 xmm6, xmm5
  00167	f2 0f 5c f7	 subsd	 xmm6, xmm7
  0016b	66 0f 2e f3	 ucomisd xmm6, xmm3
  0016f	9f		 lahf
  00170	f6 c4 44	 test	 ah, 68			; 00000044H
  00173	7b 23		 jnp	 SHORT $LN34@Find_V_Top
  00175	66 0f 2e c3	 ucomisd xmm0, xmm3
  00179	9f		 lahf
  0017a	f6 c4 44	 test	 ah, 68			; 00000044H
  0017d	7b 19		 jnp	 SHORT $LN34@Find_V_Top

; 2459 : 	{
; 2460 : 		dGradient = (dYPos2 - dYPos1) / dYPos1 / (dXPos2 - dXPos1) * 100;

  0017f	f2 0f 10 4a 28	 movsd	 xmm1, QWORD PTR [edx+40]
  00184	f2 0f 5c c8	 subsd	 xmm1, xmm0
  00188	f2 0f 5e c8	 divsd	 xmm1, xmm0
  0018c	f2 0f 5e ce	 divsd	 xmm1, xmm6
  00190	f2 0f 59 0d 00
	00 00 00	 mulsd	 xmm1, QWORD PTR __real@4059000000000000
$LN34@Find_V_Top:

; 2458 : 	if( (dXPos2 - dXPos1) != 0 && (dYPos1 != 0))

  00198	8b 7d fc	 mov	 edi, DWORD PTR tv876[ebp]
  0019b	0f 57 c0	 xorps	 xmm0, xmm0
  0019e	66 0f 6e f7	 movd	 xmm6, edi
  001a2	f3 0f e6 f6	 cvtdq2pd xmm6, xmm6
  001a6	f2 0f 5c ee	 subsd	 xmm5, xmm6
  001aa	f2 0f 10 35 00
	00 00 00	 movsd	 xmm6, QWORD PTR __real@4059000000000000
  001b2	66 0f 2e eb	 ucomisd xmm5, xmm3
  001b6	9f		 lahf
  001b7	f6 c4 44	 test	 ah, 68			; 00000044H
  001ba	7b 1f		 jnp	 SHORT $LN37@Find_V_Top
  001bc	66 0f 2e e3	 ucomisd xmm4, xmm3
  001c0	9f		 lahf
  001c1	f6 c4 44	 test	 ah, 68			; 00000044H
  001c4	7b 15		 jnp	 SHORT $LN37@Find_V_Top

; 2459 : 	{
; 2460 : 		dGradient = (dYPos2 - dYPos1) / dYPos1 / (dXPos2 - dXPos1) * 100;

  001c6	f2 0f 10 42 28	 movsd	 xmm0, QWORD PTR [edx+40]
  001cb	f2 0f 5c c4	 subsd	 xmm0, xmm4
  001cf	f2 0f 5e c4	 divsd	 xmm0, xmm4
  001d3	f2 0f 5e c5	 divsd	 xmm0, xmm5
  001d7	f2 0f 59 c6	 mulsd	 xmm0, xmm6
$LN37@Find_V_Top:

; 2248 : 											pHighLowPtData4->m_nDataSeq, pHighLowPtData4->m_dLow);	// 3-4
; 2249 : 			
; 2250 : 			dGradient3 = GetModifyGradient( pHighLowPtData2->m_nDataSeq, pHighLowPtData2->m_dLow, 
; 2251 : 											pHighLowPtData4->m_nDataSeq, pHighLowPtData4->m_dLow);	// 2-4
; 2252 : 
; 2253 : 			if ( dGradient1 >= 0.6 && dGradient2 <= -0.6 && fabs(dGradient3) <= 0.1 )

  001db	66 0f 2f 15 00
	00 00 00	 comisd	 xmm2, QWORD PTR __real@3fe3333333333333
  001e3	0f 82 d7 00 00
	00		 jb	 $LN2@Find_V_Top
  001e9	f2 0f 10 15 00
	00 00 00	 movsd	 xmm2, QWORD PTR __real@bfe3333333333333
  001f1	66 0f 2f d1	 comisd	 xmm2, xmm1
  001f5	0f 82 c5 00 00
	00		 jb	 $LN2@Find_V_Top
  001fb	0f 54 05 00 00
	00 00		 andps	 xmm0, QWORD PTR __xmm@7fffffffffffffff7fffffffffffffff
  00202	f2 0f 10 0d 00
	00 00 00	 movsd	 xmm1, QWORD PTR __real@3fb999999999999a
  0020a	66 0f 2f c8	 comisd	 xmm1, xmm0
  0020e	0f 82 ac 00 00
	00		 jb	 $LN2@Find_V_Top

; 2446 : 	if( (dXPos2 - dXPos1) != 0)

  00214	66 0f 2e eb	 ucomisd xmm5, xmm3
  00218	0f 57 c9	 xorps	 xmm1, xmm1
  0021b	9f		 lahf
  0021c	f6 c4 44	 test	 ah, 68			; 00000044H
  0021f	7b 0d		 jnp	 SHORT $LN40@Find_V_Top

; 2447 : 	{
; 2448 : 		dGradient = (dYPos2 - dYPos1) / (dXPos2 - dXPos1);

  00221	f2 0f 10 4a 28	 movsd	 xmm1, QWORD PTR [edx+40]
  00226	f2 0f 5c cc	 subsd	 xmm1, xmm4
  0022a	f2 0f 5e cd	 divsd	 xmm1, xmm5
$LN40@Find_V_Top:

; 2254 : 			{
; 2255 : 				double dGradA;
; 2256 : 				double dYDrawPt1_1, dYDrawPt1_2;
; 2257 : 
; 2258 : 				dGradA = GetGradient(	pHighLowPtData2->m_nDataSeq, pHighLowPtData2->m_dLow, 
; 2259 : 										pHighLowPtData4->m_nDataSeq, pHighLowPtData4->m_dLow);	// 2-4
; 2260 : 
; 2261 : 				// First Draw Data
; 2262 : 				dYDrawPt1_1 = dGradA * (pHighLowPtData1->m_nDataSeq - pHighLowPtData2->m_nDataSeq) + pHighLowPtData2->m_dLow;
; 2263 : 				dYDrawPt1_2 = dGradA * (pHighLowPtData5->m_nDataSeq - pHighLowPtData2->m_nDataSeq) + pHighLowPtData2->m_dLow;

  0022e	8b 44 b1 08	 mov	 eax, DWORD PTR [ecx+esi*4+8]

; 2264 : 
; 2265 : 
; 2266 : 				AddNewWavePatternData(	pObjWavePatternData,

  00232	83 ec 70	 sub	 esp, 112		; 00000070H
  00235	8b 48 08	 mov	 ecx, DWORD PTR [eax+8]
  00238	8b 45 f8	 mov	 eax, DWORD PTR _pHighLowPtData1$1$[ebp]
  0023b	0f 11 5c 24 60	 movups	 XMMWORD PTR [esp+96], xmm3
  00240	0f 11 5c 24 50	 movups	 XMMWORD PTR [esp+80], xmm3
  00245	8b 50 08	 mov	 edx, DWORD PTR [eax+8]
  00248	8b c1		 mov	 eax, ecx
  0024a	2b c7		 sub	 eax, edi
  0024c	0f 11 5c 24 40	 movups	 XMMWORD PTR [esp+64], xmm3
  00251	0f 11 5c 24 30	 movups	 XMMWORD PTR [esp+48], xmm3
  00256	66 0f 6e c0	 movd	 xmm0, eax
  0025a	8b c2		 mov	 eax, edx
  0025c	f3 0f e6 c0	 cvtdq2pd xmm0, xmm0
  00260	2b c7		 sub	 eax, edi
  00262	0f 11 5c 24 20	 movups	 XMMWORD PTR [esp+32], xmm3
  00267	f2 0f 59 c1	 mulsd	 xmm0, xmm1
  0026b	f2 0f 58 c4	 addsd	 xmm0, xmm4
  0026f	f2 0f 11 44 24
	18		 movsd	 QWORD PTR [esp+24], xmm0
  00275	66 0f 6e c1	 movd	 xmm0, ecx
  00279	f3 0f e6 c0	 cvtdq2pd xmm0, xmm0
  0027d	f2 0f 11 44 24
	10		 movsd	 QWORD PTR [esp+16], xmm0
  00283	66 0f 6e c0	 movd	 xmm0, eax
  00287	f3 0f e6 c0	 cvtdq2pd xmm0, xmm0
  0028b	f2 0f 59 c1	 mulsd	 xmm0, xmm1
  0028f	f2 0f 58 c4	 addsd	 xmm0, xmm4
  00293	f2 0f 11 44 24
	08		 movsd	 QWORD PTR [esp+8], xmm0
  00299	66 0f 6e c2	 movd	 xmm0, edx
  0029d	f3 0f e6 c0	 cvtdq2pd xmm0, xmm0
  002a1	f2 0f 11 04 24	 movsd	 QWORD PTR [esp], xmm0
  002a6	51		 push	 ecx
  002a7	8b 4d f4	 mov	 ecx, DWORD PTR _this$1$[ebp]
  002aa	52		 push	 edx
  002ab	68 b3 0f 00 00	 push	 4019			; 00000fb3H
  002b0	ff 75 0c	 push	 DWORD PTR _pObjWavePatternData$[ebp]
  002b3	e8 00 00 00 00	 call	 ?AddNewWavePatternData@CWavePattern@@QAEXPAVCObject@@HHHNNNNNNNNNNNNNN@Z ; CWavePattern::AddNewWavePatternData
  002b8	f2 0f 10 35 00
	00 00 00	 movsd	 xmm6, QWORD PTR __real@4059000000000000
$LN2@Find_V_Top:

; 2231 : 
; 2232 : 	for(int i = 0; i <= nPointCnt-nMininumData; i++)

  002c0	8b 55 08	 mov	 edx, DWORD PTR _pObjHighLowPtData$[ebp]
  002c3	46		 inc	 esi
  002c4	8d 46 fe	 lea	 eax, DWORD PTR [esi-2]
  002c7	3b 45 f0	 cmp	 eax, DWORD PTR $T1[ebp]
  002ca	0f 8e 60 fd ff
	ff		 jle	 $LL4@Find_V_Top
  002d0	5f		 pop	 edi
  002d1	5e		 pop	 esi
$LN3@Find_V_Top:

; 2267 : 										PTN_V_TOP,						pHighLowPtData1->m_nDataSeq,	pHighLowPtData5->m_nDataSeq,		
; 2268 : 										pHighLowPtData1->m_nDataSeq,	dYDrawPt1_1,					pHighLowPtData5->m_nDataSeq,	dYDrawPt1_2,
; 2269 : 										ZERO,							ZERO,							ZERO,							ZERO,
; 2270 : 										ZERO,							ZERO,							ZERO,							ZERO,
; 2271 : 										ZERO,							ZERO	);
; 2272 : 
; 2273 : 			}
; 2274 : 		}
; 2275 : 	}
; 2276 : 
; 2277 : 	return TRUE;

  002d2	b8 01 00 00 00	 mov	 eax, 1

; 2278 : }

  002d7	8b e5		 mov	 esp, ebp
  002d9	5d		 pop	 ebp
  002da	c2 08 00	 ret	 8
$LN15@Find_V_Top:
; File C:\Program Files (x86)\Microsoft Visual Studio\2019\Community\VC\Tools\MSVC\14.29.30133\atlmfc\include\afxtempl.h

; 290  : 	AfxThrowInvalidArgException();

  002dd	e8 00 00 00 00	 call	 ?AfxThrowInvalidArgException@@YGXXZ ; AfxThrowInvalidArgException
$LN48@Find_V_Top:
  002e2	cc		 int	 3
?Find_V_Top@CWavePattern@@QAEHPAVCObject@@0@Z ENDP	; CWavePattern::Find_V_Top
_TEXT	ENDS
; Function compile flags: /Ogtp
; File D:\git\src\IBK\IBK_DRFN\ProjSrc\SrcChartEx\ChartAddIn\ChartPatternAddIn\WavePattern.cpp
; File C:\Program Files (x86)\Microsoft Visual Studio\2019\Community\VC\Tools\MSVC\14.29.30133\atlmfc\include\afxtempl.h
; File D:\git\src\IBK\IBK_DRFN\ProjSrc\SrcChartEx\ChartAddIn\ChartPatternAddIn\WavePattern.cpp
; File C:\Program Files (x86)\Microsoft Visual Studio\2019\Community\VC\Tools\MSVC\14.29.30133\atlmfc\include\afxtempl.h
; File D:\git\src\IBK\IBK_DRFN\ProjSrc\SrcChartEx\ChartAddIn\ChartPatternAddIn\WavePattern.cpp
; File C:\Program Files (x86)\Microsoft Visual Studio\2019\Community\VC\Tools\MSVC\14.29.30133\atlmfc\include\afxtempl.h
; File D:\git\src\IBK\IBK_DRFN\ProjSrc\SrcChartEx\ChartAddIn\ChartPatternAddIn\WavePattern.cpp
; File C:\Program Files (x86)\Microsoft Visual Studio\2019\Community\VC\Tools\MSVC\14.29.30133\atlmfc\include\afxtempl.h
; File D:\git\src\IBK\IBK_DRFN\ProjSrc\SrcChartEx\ChartAddIn\ChartPatternAddIn\WavePattern.cpp
; File C:\Program Files (x86)\Microsoft Visual Studio\2019\Community\VC\Tools\MSVC\14.29.30133\atlmfc\include\afxtempl.h
; File D:\git\src\IBK\IBK_DRFN\ProjSrc\SrcChartEx\ChartAddIn\ChartPatternAddIn\WavePattern.cpp
; File C:\Program Files (x86)\Microsoft Visual Studio\2019\Community\VC\Tools\MSVC\14.29.30133\atlmfc\include\afxtempl.h
; File D:\git\src\IBK\IBK_DRFN\ProjSrc\SrcChartEx\ChartAddIn\ChartPatternAddIn\WavePattern.cpp
; File C:\Program Files (x86)\Microsoft Visual Studio\2019\Community\VC\Tools\MSVC\14.29.30133\atlmfc\include\afxtempl.h
; File D:\git\src\IBK\IBK_DRFN\ProjSrc\SrcChartEx\ChartAddIn\ChartPatternAddIn\WavePattern.cpp
;	COMDAT ?Find_Bear_Rectangle@CWavePattern@@QAEHPAVCObject@@0@Z
_TEXT	SEGMENT
_dYNeckPt1$1 = -136					; size = 8
_dYNeckPt2$2 = -128					; size = 8
_dXNeckPt2$3 = -120					; size = 8
tv1417 = -112						; size = 8
tv1420 = -104						; size = 8
_dYPos1$1$ = -96					; size = 8
tv1353 = -88						; size = 8
tv1331 = -88						; size = 8
$T4 = -80						; size = 4
_this$1$ = -76						; size = 4
_dYDrawPt1_2$1$ = -72					; size = 8
tv1334 = -72						; size = 8
tv1411 = -64						; size = 8
tv1422 = -56						; size = 8
_dXNeckPt1$5 = -48					; size = 8
_dYDrawPt2_1$1$ = -40					; size = 8
tv1446 = -36						; size = 4
_dYDrawPt1_1$1$ = -32					; size = 8
_pHighLowPtData2$1$ = -28				; size = 4
_dYDrawPt2_2$1$ = -24					; size = 8
tv1429 = -24						; size = 8
tv1424 = -24						; size = 8
tv1318 = -24						; size = 8
_pHighLowPtData3$1$ = -16				; size = 4
tv1448 = -16						; size = 4
_pHighLowPtData5$1$ = -12				; size = 4
_pHighLowPtData6$1$ = -8				; size = 4
_pHighLowPtData4$1$ = -4				; size = 4
tv1449 = -4						; size = 4
_pObjHighLowPtData$ = 8					; size = 4
_pObjWavePatternData$ = 12				; size = 4
?Find_Bear_Rectangle@CWavePattern@@QAEHPAVCObject@@0@Z PROC ; CWavePattern::Find_Bear_Rectangle, COMDAT
; _this$ = ecx

; 2110 : {

  00000	55		 push	 ebp
  00001	8b ec		 mov	 ebp, esp
  00003	81 ec 88 00 00
	00		 sub	 esp, 136		; 00000088H

; 2121 : 
; 2122 : 	for(int i = 0; i <= nPointCnt-nMininumData; i++)

  00009	8b 55 08	 mov	 edx, DWORD PTR _pObjHighLowPtData$[ebp]
  0000c	89 4d b4	 mov	 DWORD PTR _this$1$[ebp], ecx
  0000f	8b 42 08	 mov	 eax, DWORD PTR [edx+8]
  00012	83 e8 06	 sub	 eax, 6
  00015	89 45 b0	 mov	 DWORD PTR $T4[ebp], eax
  00018	0f 88 b1 05 00
	00		 js	 $LN3@Find_Bear_

; 2111 : 	CArrayObjPt(CHighLowPtData) paryHighLowPtData = (CArrayObjPt(CHighLowPtData))pObjHighLowPtData;
; 2112 : 
; 2113 : 	CHighLowPtData *pHighLowPtData1, *pHighLowPtData2, *pHighLowPtData3, *pHighLowPtData4, *pHighLowPtData5, *pHighLowPtData6;
; 2114 : 	pHighLowPtData1 = pHighLowPtData2 = pHighLowPtData3 = pHighLowPtData4 = pHighLowPtData5 = pHighLowPtData6 = NULL;
; 2115 : 	int		nPointCnt;
; 2116 : 	int		nMininumData = 6;	// Bear Rectangle    
; 2117 : 
; 2118 : 	double	dGradient1, dGradient2, dGradient3, dGradient4;		// 
; 2119 : 	
; 2120 : 	nPointCnt = paryHighLowPtData->GetSize();

  0001e	56		 push	 esi
  0001f	57		 push	 edi
  00020	be 02 00 00 00	 mov	 esi, 2
  00025	0f 57 c9	 xorps	 xmm1, xmm1
  00028	0f 1f 84 00 00
	00 00 00	 npad	 8
$LL4@Find_Bear_:
; File C:\Program Files (x86)\Microsoft Visual Studio\2019\Community\VC\Tools\MSVC\14.29.30133\atlmfc\include\afxtempl.h

; 288  : 	if(nIndex >= 0 && nIndex < m_nSize)

  00030	8d 4e fe	 lea	 ecx, DWORD PTR [esi-2]
  00033	85 c9		 test	 ecx, ecx
  00035	0f 88 9f 05 00
	00		 js	 $LN19@Find_Bear_
  0003b	8b 42 08	 mov	 eax, DWORD PTR [edx+8]
  0003e	3b c8		 cmp	 ecx, eax
  00040	0f 8d 94 05 00
	00		 jge	 $LN19@Find_Bear_

; 289  : 		return m_pData[nIndex];

  00046	8b 4a 04	 mov	 ecx, DWORD PTR [edx+4]
; File D:\git\src\IBK\IBK_DRFN\ProjSrc\SrcChartEx\ChartAddIn\ChartPatternAddIn\WavePattern.cpp

; 2124 : 		pHighLowPtData1 = paryHighLowPtData->GetAt(i);		if ( !pHighLowPtData1 ) continue;

  00049	8b 54 b1 f8	 mov	 edx, DWORD PTR [ecx+esi*4-8]
  0004d	85 d2		 test	 edx, edx
  0004f	0f 84 68 05 00
	00		 je	 $LN2@Find_Bear_

; 2125 : 		if ( pHighLowPtData1->m_nPointType != CHANGINGPT_HIGHTOLOW) continue;

  00055	81 7a 04 e9 03
	00 00		 cmp	 DWORD PTR [edx+4], 1001	; 000003e9H
  0005c	0f 85 5b 05 00
	00		 jne	 $LN2@Find_Bear_
; File C:\Program Files (x86)\Microsoft Visual Studio\2019\Community\VC\Tools\MSVC\14.29.30133\atlmfc\include\afxtempl.h

; 288  : 	if(nIndex >= 0 && nIndex < m_nSize)

  00062	8d 7e ff	 lea	 edi, DWORD PTR [esi-1]
  00065	85 ff		 test	 edi, edi
  00067	0f 88 6d 05 00
	00		 js	 $LN19@Find_Bear_
  0006d	3b f8		 cmp	 edi, eax
  0006f	0f 8d 65 05 00
	00		 jge	 $LN19@Find_Bear_
; File D:\git\src\IBK\IBK_DRFN\ProjSrc\SrcChartEx\ChartAddIn\ChartPatternAddIn\WavePattern.cpp

; 2127 : 		pHighLowPtData2 = paryHighLowPtData->GetAt(i+1);	if ( !pHighLowPtData2 ) continue;

  00075	8b 7c b1 fc	 mov	 edi, DWORD PTR [ecx+esi*4-4]
  00079	89 7d e4	 mov	 DWORD PTR _pHighLowPtData2$1$[ebp], edi
  0007c	85 ff		 test	 edi, edi
  0007e	0f 84 39 05 00
	00		 je	 $LN2@Find_Bear_
; File C:\Program Files (x86)\Microsoft Visual Studio\2019\Community\VC\Tools\MSVC\14.29.30133\atlmfc\include\afxtempl.h

; 288  : 	if(nIndex >= 0 && nIndex < m_nSize)

  00084	85 f6		 test	 esi, esi
  00086	0f 88 4e 05 00
	00		 js	 $LN19@Find_Bear_
  0008c	3b f0		 cmp	 esi, eax
  0008e	0f 8d 46 05 00
	00		 jge	 $LN19@Find_Bear_
; File D:\git\src\IBK\IBK_DRFN\ProjSrc\SrcChartEx\ChartAddIn\ChartPatternAddIn\WavePattern.cpp

; 2128 : 		pHighLowPtData3 = paryHighLowPtData->GetAt(i+2);	if ( !pHighLowPtData3 ) continue;

  00094	8b 3c b1	 mov	 edi, DWORD PTR [ecx+esi*4]
  00097	89 7d f0	 mov	 DWORD PTR _pHighLowPtData3$1$[ebp], edi
  0009a	85 ff		 test	 edi, edi
  0009c	0f 84 1b 05 00
	00		 je	 $LN2@Find_Bear_
; File C:\Program Files (x86)\Microsoft Visual Studio\2019\Community\VC\Tools\MSVC\14.29.30133\atlmfc\include\afxtempl.h

; 288  : 	if(nIndex >= 0 && nIndex < m_nSize)

  000a2	8d 7e 01	 lea	 edi, DWORD PTR [esi+1]
  000a5	85 ff		 test	 edi, edi
  000a7	0f 88 2d 05 00
	00		 js	 $LN19@Find_Bear_
  000ad	3b f8		 cmp	 edi, eax
  000af	0f 8d 25 05 00
	00		 jge	 $LN19@Find_Bear_
; File D:\git\src\IBK\IBK_DRFN\ProjSrc\SrcChartEx\ChartAddIn\ChartPatternAddIn\WavePattern.cpp

; 2129 : 		pHighLowPtData4 = paryHighLowPtData->GetAt(i+3);	if ( !pHighLowPtData4 ) continue;

  000b5	8b 7c b1 04	 mov	 edi, DWORD PTR [ecx+esi*4+4]
  000b9	89 7d fc	 mov	 DWORD PTR _pHighLowPtData4$1$[ebp], edi
  000bc	85 ff		 test	 edi, edi
  000be	0f 84 f9 04 00
	00		 je	 $LN2@Find_Bear_
; File C:\Program Files (x86)\Microsoft Visual Studio\2019\Community\VC\Tools\MSVC\14.29.30133\atlmfc\include\afxtempl.h

; 288  : 	if(nIndex >= 0 && nIndex < m_nSize)

  000c4	8d 7e 02	 lea	 edi, DWORD PTR [esi+2]
  000c7	85 ff		 test	 edi, edi
  000c9	0f 88 0b 05 00
	00		 js	 $LN19@Find_Bear_
  000cf	3b f8		 cmp	 edi, eax
  000d1	0f 8d 03 05 00
	00		 jge	 $LN19@Find_Bear_
; File D:\git\src\IBK\IBK_DRFN\ProjSrc\SrcChartEx\ChartAddIn\ChartPatternAddIn\WavePattern.cpp

; 2130 : 		pHighLowPtData5 = paryHighLowPtData->GetAt(i+4);	if ( !pHighLowPtData5 ) continue;

  000d7	8b 7c b1 08	 mov	 edi, DWORD PTR [ecx+esi*4+8]
  000db	89 7d f4	 mov	 DWORD PTR _pHighLowPtData5$1$[ebp], edi
  000de	85 ff		 test	 edi, edi
  000e0	0f 84 d7 04 00
	00		 je	 $LN2@Find_Bear_
; File C:\Program Files (x86)\Microsoft Visual Studio\2019\Community\VC\Tools\MSVC\14.29.30133\atlmfc\include\afxtempl.h

; 288  : 	if(nIndex >= 0 && nIndex < m_nSize)

  000e6	8d 7e 03	 lea	 edi, DWORD PTR [esi+3]
  000e9	85 ff		 test	 edi, edi
  000eb	0f 88 e9 04 00
	00		 js	 $LN19@Find_Bear_
  000f1	3b f8		 cmp	 edi, eax
  000f3	0f 8d e1 04 00
	00		 jge	 $LN19@Find_Bear_
; File D:\git\src\IBK\IBK_DRFN\ProjSrc\SrcChartEx\ChartAddIn\ChartPatternAddIn\WavePattern.cpp

; 2131 : 		pHighLowPtData6 = paryHighLowPtData->GetAt(i+5);	if ( !pHighLowPtData6 ) continue;

  000f9	8b 44 b1 0c	 mov	 eax, DWORD PTR [ecx+esi*4+12]
  000fd	89 45 f8	 mov	 DWORD PTR _pHighLowPtData6$1$[ebp], eax
  00100	85 c0		 test	 eax, eax
  00102	0f 84 b5 04 00
	00		 je	 $LN2@Find_Bear_

; 2132 : 
; 2133 : 		if ( (pHighLowPtData1->m_dHigh > pHighLowPtData3->m_dHigh) && (pHighLowPtData4->m_dLow > pHighLowPtData6->m_dLow))

  00108	8b 4d f0	 mov	 ecx, DWORD PTR _pHighLowPtData3$1$[ebp]
  0010b	f2 0f 10 7a 20	 movsd	 xmm7, QWORD PTR [edx+32]
  00110	f2 0f 10 71 20	 movsd	 xmm6, QWORD PTR [ecx+32]
  00115	66 0f 2f fe	 comisd	 xmm7, xmm6
  00119	0f 86 9e 04 00
	00		 jbe	 $LN2@Find_Bear_
  0011f	8b 7d fc	 mov	 edi, DWORD PTR _pHighLowPtData4$1$[ebp]
  00122	f2 0f 10 6f 28	 movsd	 xmm5, QWORD PTR [edi+40]
  00127	66 0f 2f 68 28	 comisd	 xmm5, QWORD PTR [eax+40]
  0012c	0f 86 8b 04 00
	00		 jbe	 $LN2@Find_Bear_

; 2134 : 		{
; 2135 : 			dGradient1 = GetModifyGradient( pHighLowPtData1->m_nDataSeq, pHighLowPtData1->m_dHigh, 

  00132	8b 42 08	 mov	 eax, DWORD PTR [edx+8]

; 2456 : 	double	dGradient=0;

  00135	0f 28 d1	 movaps	 xmm2, xmm1
  00138	66 0f 6e 5a 08	 movd	 xmm3, DWORD PTR [edx+8]

; 2134 : 		{
; 2135 : 			dGradient1 = GetModifyGradient( pHighLowPtData1->m_nDataSeq, pHighLowPtData1->m_dHigh, 

  0013d	89 45 fc	 mov	 DWORD PTR tv1449[ebp], eax
  00140	8b 41 08	 mov	 eax, DWORD PTR [ecx+8]
  00143	f3 0f e6 db	 cvtdq2pd xmm3, xmm3
  00147	89 45 f0	 mov	 DWORD PTR tv1448[ebp], eax
  0014a	66 0f 6e e0	 movd	 xmm4, eax
  0014e	f3 0f e6 e4	 cvtdq2pd xmm4, xmm4
  00152	f2 0f 11 5d c0	 movsd	 QWORD PTR tv1411[ebp], xmm3

; 2458 : 	if( (dXPos2 - dXPos1) != 0 && (dYPos1 != 0))

  00157	0f 28 c4	 movaps	 xmm0, xmm4

; 2134 : 		{
; 2135 : 			dGradient1 = GetModifyGradient( pHighLowPtData1->m_nDataSeq, pHighLowPtData1->m_dHigh, 

  0015a	f2 0f 11 65 90	 movsd	 QWORD PTR tv1417[ebp], xmm4

; 2458 : 	if( (dXPos2 - dXPos1) != 0 && (dYPos1 != 0))

  0015f	f2 0f 5c c3	 subsd	 xmm0, xmm3
  00163	66 0f 2e c1	 ucomisd xmm0, xmm1
  00167	9f		 lahf
  00168	f6 c4 44	 test	 ah, 68			; 00000044H
  0016b	7b 21		 jnp	 SHORT $LN38@Find_Bear_
  0016d	66 0f 2e f9	 ucomisd xmm7, xmm1
  00171	9f		 lahf
  00172	f6 c4 44	 test	 ah, 68			; 00000044H
  00175	7b 17		 jnp	 SHORT $LN38@Find_Bear_

; 2459 : 	{
; 2460 : 		dGradient = (dYPos2 - dYPos1) / dYPos1 / (dXPos2 - dXPos1) * 100;

  00177	0f 28 d6	 movaps	 xmm2, xmm6
  0017a	f2 0f 5c d7	 subsd	 xmm2, xmm7
  0017e	f2 0f 5e d7	 divsd	 xmm2, xmm7
  00182	f2 0f 5e d0	 divsd	 xmm2, xmm0
  00186	f2 0f 59 15 00
	00 00 00	 mulsd	 xmm2, QWORD PTR __real@4059000000000000
$LN38@Find_Bear_:

; 2136 : 											pHighLowPtData3->m_nDataSeq, pHighLowPtData3->m_dHigh);	// 1-3
; 2137 : 			
; 2138 : 			dGradient2 = GetModifyGradient(	pHighLowPtData3->m_nDataSeq, pHighLowPtData3->m_dHigh, 

  0018e	8b 45 f4	 mov	 eax, DWORD PTR _pHighLowPtData5$1$[ebp]

; 2456 : 	double	dGradient=0;

  00191	0f 28 c1	 movaps	 xmm0, xmm1
  00194	66 0f 6e 58 08	 movd	 xmm3, DWORD PTR [eax+8]

; 2136 : 											pHighLowPtData3->m_nDataSeq, pHighLowPtData3->m_dHigh);	// 1-3
; 2137 : 			
; 2138 : 			dGradient2 = GetModifyGradient(	pHighLowPtData3->m_nDataSeq, pHighLowPtData3->m_dHigh, 

  00199	f3 0f e6 db	 cvtdq2pd xmm3, xmm3
  0019d	f2 0f 11 5d 98	 movsd	 QWORD PTR tv1420[ebp], xmm3

; 2458 : 	if( (dXPos2 - dXPos1) != 0 && (dYPos1 != 0))

  001a2	f2 0f 5c dc	 subsd	 xmm3, xmm4
  001a6	66 0f 2e d9	 ucomisd xmm3, xmm1
  001aa	f2 0f 11 5d a8	 movsd	 QWORD PTR tv1331[ebp], xmm3
  001af	9f		 lahf
  001b0	f6 c4 44	 test	 ah, 68			; 00000044H
  001b3	7b 26		 jnp	 SHORT $LN41@Find_Bear_
  001b5	66 0f 2e f1	 ucomisd xmm6, xmm1
  001b9	9f		 lahf
  001ba	f6 c4 44	 test	 ah, 68			; 00000044H
  001bd	7b 1c		 jnp	 SHORT $LN41@Find_Bear_

; 2459 : 	{
; 2460 : 		dGradient = (dYPos2 - dYPos1) / dYPos1 / (dXPos2 - dXPos1) * 100;

  001bf	8b 45 f4	 mov	 eax, DWORD PTR _pHighLowPtData5$1$[ebp]
  001c2	f2 0f 10 40 20	 movsd	 xmm0, QWORD PTR [eax+32]
  001c7	f2 0f 5c c6	 subsd	 xmm0, xmm6
  001cb	f2 0f 5e c6	 divsd	 xmm0, xmm6
  001cf	f2 0f 5e c3	 divsd	 xmm0, xmm3
  001d3	f2 0f 59 05 00
	00 00 00	 mulsd	 xmm0, QWORD PTR __real@4059000000000000
$LN41@Find_Bear_:

; 2139 : 											pHighLowPtData5->m_nDataSeq, pHighLowPtData5->m_dHigh);	// 3-5
; 2140 : 			
; 2141 : 			dGradient3 = GetModifyGradient( pHighLowPtData2->m_nDataSeq, pHighLowPtData2->m_dLow, 

  001db	8b 45 e4	 mov	 eax, DWORD PTR _pHighLowPtData2$1$[ebp]
  001de	f2 0f 10 60 28	 movsd	 xmm4, QWORD PTR [eax+40]
  001e3	66 0f 6e 58 08	 movd	 xmm3, DWORD PTR [eax+8]
  001e8	f2 0f 11 65 a0	 movsd	 QWORD PTR _dYPos1$1$[ebp], xmm4
  001ed	66 0f 6e 67 08	 movd	 xmm4, DWORD PTR [edi+8]
  001f2	f3 0f e6 db	 cvtdq2pd xmm3, xmm3
  001f6	f3 0f e6 e4	 cvtdq2pd xmm4, xmm4
  001fa	f2 0f 11 5d c8	 movsd	 QWORD PTR tv1422[ebp], xmm3

; 2456 : 	double	dGradient=0;

  001ff	0f 28 d9	 movaps	 xmm3, xmm1

; 2139 : 											pHighLowPtData5->m_nDataSeq, pHighLowPtData5->m_dHigh);	// 3-5
; 2140 : 			
; 2141 : 			dGradient3 = GetModifyGradient( pHighLowPtData2->m_nDataSeq, pHighLowPtData2->m_dLow, 

  00202	f2 0f 11 65 e8	 movsd	 QWORD PTR tv1424[ebp], xmm4

; 2458 : 	if( (dXPos2 - dXPos1) != 0 && (dYPos1 != 0))

  00207	f2 0f 5c 65 c8	 subsd	 xmm4, QWORD PTR tv1422[ebp]
  0020c	66 0f 2e e1	 ucomisd xmm4, xmm1
  00210	f2 0f 11 65 b8	 movsd	 QWORD PTR tv1334[ebp], xmm4
  00215	9f		 lahf
  00216	f6 c4 44	 test	 ah, 68			; 00000044H
  00219	8b 45 e4	 mov	 eax, DWORD PTR _pHighLowPtData2$1$[ebp]
  0021c	f2 0f 10 60 28	 movsd	 xmm4, QWORD PTR [eax+40]
  00221	7b 22		 jnp	 SHORT $LN44@Find_Bear_
  00223	66 0f 2e e1	 ucomisd xmm4, xmm1
  00227	9f		 lahf
  00228	f6 c4 44	 test	 ah, 68			; 00000044H
  0022b	7b 18		 jnp	 SHORT $LN44@Find_Bear_

; 2459 : 	{
; 2460 : 		dGradient = (dYPos2 - dYPos1) / dYPos1 / (dXPos2 - dXPos1) * 100;

  0022d	0f 28 dd	 movaps	 xmm3, xmm5
  00230	f2 0f 5c dc	 subsd	 xmm3, xmm4
  00234	f2 0f 5e dc	 divsd	 xmm3, xmm4
  00238	f2 0f 5e 5d b8	 divsd	 xmm3, QWORD PTR tv1334[ebp]
  0023d	f2 0f 59 1d 00
	00 00 00	 mulsd	 xmm3, QWORD PTR __real@4059000000000000
$LN44@Find_Bear_:

; 2142 : 											pHighLowPtData4->m_nDataSeq, pHighLowPtData4->m_dLow);	// 2-4
; 2143 : 
; 2144 : 			dGradient4 = GetModifyGradient( pHighLowPtData4->m_nDataSeq, pHighLowPtData4->m_dLow, 

  00245	8b 45 f8	 mov	 eax, DWORD PTR _pHighLowPtData6$1$[ebp]

; 2456 : 	double	dGradient=0;

  00248	0f 28 e1	 movaps	 xmm4, xmm1

; 2142 : 											pHighLowPtData4->m_nDataSeq, pHighLowPtData4->m_dLow);	// 2-4
; 2143 : 
; 2144 : 			dGradient4 = GetModifyGradient( pHighLowPtData4->m_nDataSeq, pHighLowPtData4->m_dLow, 

  0024b	8b 40 08	 mov	 eax, DWORD PTR [eax+8]
  0024e	89 45 dc	 mov	 DWORD PTR tv1446[ebp], eax
  00251	66 0f 6e f8	 movd	 xmm7, eax
  00255	f3 0f e6 ff	 cvtdq2pd xmm7, xmm7

; 2458 : 	if( (dXPos2 - dXPos1) != 0 && (dYPos1 != 0))

  00259	f2 0f 5c 7d e8	 subsd	 xmm7, QWORD PTR tv1424[ebp]
  0025e	66 0f 2e f9	 ucomisd xmm7, xmm1
  00262	f2 0f 11 7d e8	 movsd	 QWORD PTR tv1318[ebp], xmm7
  00267	f2 0f 10 7a 20	 movsd	 xmm7, QWORD PTR [edx+32]
  0026c	8b 55 f8	 mov	 edx, DWORD PTR _pHighLowPtData6$1$[ebp]
  0026f	9f		 lahf
  00270	f6 c4 44	 test	 ah, 68			; 00000044H
  00273	7b 24		 jnp	 SHORT $LN47@Find_Bear_
  00275	66 0f 2e e9	 ucomisd xmm5, xmm1
  00279	9f		 lahf
  0027a	f6 c4 44	 test	 ah, 68			; 00000044H
  0027d	7b 1a		 jnp	 SHORT $LN47@Find_Bear_

; 2459 : 	{
; 2460 : 		dGradient = (dYPos2 - dYPos1) / dYPos1 / (dXPos2 - dXPos1) * 100;

  0027f	f2 0f 10 62 28	 movsd	 xmm4, QWORD PTR [edx+40]
  00284	f2 0f 5c e5	 subsd	 xmm4, xmm5
  00288	f2 0f 5e e5	 divsd	 xmm4, xmm5
  0028c	f2 0f 5e 65 e8	 divsd	 xmm4, QWORD PTR tv1318[ebp]
  00291	f2 0f 59 25 00
	00 00 00	 mulsd	 xmm4, QWORD PTR __real@4059000000000000
$LN47@Find_Bear_:

; 2145 : 											pHighLowPtData6->m_nDataSeq, pHighLowPtData6->m_dLow);	// 4-6
; 2146 : 
; 2147 : 			if ( fabs(dGradient2) <= 0.3 && fabs(dGradient3) <= 0.3 && (fabs(fabs(dGradient2)-fabs(dGradient3)) <= 0.3) )

  00299	f2 0f 10 0d 00
	00 00 00	 movsd	 xmm1, QWORD PTR __real@3fd3333333333333
  002a1	0f 28 e8	 movaps	 xmm5, xmm0
  002a4	0f 54 2d 00 00
	00 00		 andps	 xmm5, QWORD PTR __xmm@7fffffffffffffff7fffffffffffffff
  002ab	66 0f 2f cd	 comisd	 xmm1, xmm5
  002af	0f 57 c9	 xorps	 xmm1, xmm1
  002b2	0f 82 05 03 00
	00		 jb	 $LN2@Find_Bear_
  002b8	f2 0f 10 35 00
	00 00 00	 movsd	 xmm6, QWORD PTR __real@3fd3333333333333
  002c0	0f 28 cb	 movaps	 xmm1, xmm3
  002c3	0f 54 0d 00 00
	00 00		 andps	 xmm1, QWORD PTR __xmm@7fffffffffffffff7fffffffffffffff
  002ca	66 0f 2f f1	 comisd	 xmm6, xmm1
  002ce	f2 0f 10 71 20	 movsd	 xmm6, QWORD PTR [ecx+32]
  002d3	f2 0f 11 4d e8	 movsd	 QWORD PTR tv1429[ebp], xmm1
  002d8	0f 57 c9	 xorps	 xmm1, xmm1
  002db	0f 82 dc 02 00
	00		 jb	 $LN2@Find_Bear_
  002e1	f2 0f 5c 6d e8	 subsd	 xmm5, QWORD PTR tv1429[ebp]
  002e6	f2 0f 10 0d 00
	00 00 00	 movsd	 xmm1, QWORD PTR __real@3fd3333333333333
  002ee	0f 54 2d 00 00
	00 00		 andps	 xmm5, QWORD PTR __xmm@7fffffffffffffff7fffffffffffffff
  002f5	66 0f 2f cd	 comisd	 xmm1, xmm5
  002f9	0f 57 c9	 xorps	 xmm1, xmm1
  002fc	0f 82 bb 02 00
	00		 jb	 $LN2@Find_Bear_

; 2148 : 			{
; 2149 : 				if ( dGradient1 < dGradient2 && dGradient3 > dGradient4)

  00302	66 0f 2f c2	 comisd	 xmm0, xmm2
  00306	0f 86 b1 02 00
	00		 jbe	 $LN2@Find_Bear_
  0030c	66 0f 2f dc	 comisd	 xmm3, xmm4
  00310	0f 86 a7 02 00
	00		 jbe	 $LN2@Find_Bear_

; 2446 : 	if( (dXPos2 - dXPos1) != 0)

  00316	f2 0f 10 45 a8	 movsd	 xmm0, QWORD PTR tv1331[ebp]
  0031b	0f 57 ed	 xorps	 xmm5, xmm5
  0031e	8b 4d f4	 mov	 ecx, DWORD PTR _pHighLowPtData5$1$[ebp]
  00321	66 0f 2e c1	 ucomisd xmm0, xmm1
  00325	9f		 lahf
  00326	f6 c4 44	 test	 ah, 68			; 00000044H
  00329	7b 0d		 jnp	 SHORT $LN69@Find_Bear_

; 2447 : 	{
; 2448 : 		dGradient = (dYPos2 - dYPos1) / (dXPos2 - dXPos1);

  0032b	f2 0f 10 69 20	 movsd	 xmm5, QWORD PTR [ecx+32]
  00330	f2 0f 5c ee	 subsd	 xmm5, xmm6
  00334	f2 0f 5e e8	 divsd	 xmm5, xmm0
$LN69@Find_Bear_:

; 2446 : 	if( (dXPos2 - dXPos1) != 0)

  00338	f2 0f 10 45 b8	 movsd	 xmm0, QWORD PTR tv1334[ebp]
  0033d	0f 57 d2	 xorps	 xmm2, xmm2
  00340	66 0f 2e c1	 ucomisd xmm0, xmm1
  00344	9f		 lahf
  00345	f6 c4 44	 test	 ah, 68			; 00000044H
  00348	7b 17		 jnp	 SHORT $LN71@Find_Bear_

; 2447 : 	{
; 2448 : 		dGradient = (dYPos2 - dYPos1) / (dXPos2 - dXPos1);

  0034a	f2 0f 10 57 28	 movsd	 xmm2, QWORD PTR [edi+40]
  0034f	8b 7d e4	 mov	 edi, DWORD PTR _pHighLowPtData2$1$[ebp]
  00352	f2 0f 10 5f 28	 movsd	 xmm3, QWORD PTR [edi+40]
  00357	f2 0f 5c d3	 subsd	 xmm2, xmm3
  0035b	f2 0f 5e d0	 divsd	 xmm2, xmm0
  0035f	eb 08		 jmp	 SHORT $LN53@Find_Bear_
$LN71@Find_Bear_:

; 2214 : 
; 2215 : 
; 2216 : // **********************************************
; 2217 : // V Top
; 2218 : // **********************************************
; 2219 : BOOL CWavePattern::Find_V_Top( CObject *pObjHighLowPtData, CObject *pObjWavePatternData)
; 2220 : {
; 2221 : 	CArrayObjPt(CHighLowPtData) paryHighLowPtData = (CArrayObjPt(CHighLowPtData))pObjHighLowPtData;
; 2222 : 
; 2223 : 	CHighLowPtData *pHighLowPtData1, *pHighLowPtData2, *pHighLowPtData3, *pHighLowPtData4, *pHighLowPtData5;
; 2224 : 	pHighLowPtData1 = pHighLowPtData2 = pHighLowPtData3 = pHighLowPtData4 = pHighLowPtData5 = NULL;
; 2225 : 	int		nPointCnt;
; 2226 : 	int		nMininumData = 5;	// V Top    
; 2227 : 
; 2228 : 	double	dGradient1, dGradient2, dGradient3;		// 
; 2229 : 	
; 2230 : 	nPointCnt = paryHighLowPtData->GetSize();
; 2231 : 
; 2232 : 	for(int i = 0; i <= nPointCnt-nMininumData; i++)
; 2233 : 	{
; 2234 : 		pHighLowPtData1 = paryHighLowPtData->GetAt(i);		if ( !pHighLowPtData1 ) continue;
; 2235 : 		if ( pHighLowPtData1->m_nPointType != CHANGINGPT_HIGHTOLOW) continue;
; 2236 : 
; 2237 : 		pHighLowPtData2 = paryHighLowPtData->GetAt(i+1);	if ( !pHighLowPtData2 ) continue;
; 2238 : 		pHighLowPtData3 = paryHighLowPtData->GetAt(i+2);	if ( !pHighLowPtData3 ) continue;
; 2239 : 		pHighLowPtData4 = paryHighLowPtData->GetAt(i+3);	if ( !pHighLowPtData4 ) continue;
; 2240 : 		pHighLowPtData5 = paryHighLowPtData->GetAt(i+4);	if ( !pHighLowPtData5 ) continue;
; 2241 : 
; 2242 : 		if ( (pHighLowPtData1->m_dHigh < pHighLowPtData3->m_dHigh) && (pHighLowPtData3->m_dHigh > pHighLowPtData5->m_dHigh))
; 2243 : 		{
; 2244 : 			dGradient1 = GetModifyGradient( pHighLowPtData2->m_nDataSeq, pHighLowPtData2->m_dLow, 
; 2245 : 											pHighLowPtData3->m_nDataSeq, pHighLowPtData3->m_dHigh);	// 2-3
; 2246 : 			
; 2247 : 			dGradient2 = GetModifyGradient(	pHighLowPtData3->m_nDataSeq, pHighLowPtData3->m_dHigh, 
; 2248 : 											pHighLowPtData4->m_nDataSeq, pHighLowPtData4->m_dLow);	// 3-4
; 2249 : 			
; 2250 : 			dGradient3 = GetModifyGradient( pHighLowPtData2->m_nDataSeq, pHighLowPtData2->m_dLow, 
; 2251 : 											pHighLowPtData4->m_nDataSeq, pHighLowPtData4->m_dLow);	// 2-4
; 2252 : 
; 2253 : 			if ( dGradient1 >= 0.6 && dGradient2 <= -0.6 && fabs(dGradient3) <= 0.1 )
; 2254 : 			{
; 2255 : 				double dGradA;
; 2256 : 				double dYDrawPt1_1, dYDrawPt1_2;
; 2257 : 
; 2258 : 				dGradA = GetGradient(	pHighLowPtData2->m_nDataSeq, pHighLowPtData2->m_dLow, 
; 2259 : 										pHighLowPtData4->m_nDataSeq, pHighLowPtData4->m_dLow);	// 2-4
; 2260 : 
; 2261 : 				// First Draw Data
; 2262 : 				dYDrawPt1_1 = dGradA * (pHighLowPtData1->m_nDataSeq - pHighLowPtData2->m_nDataSeq) + pHighLowPtData2->m_dLow;
; 2263 : 				dYDrawPt1_2 = dGradA * (pHighLowPtData5->m_nDataSeq - pHighLowPtData2->m_nDataSeq) + pHighLowPtData2->m_dLow;
; 2264 : 
; 2265 : 
; 2266 : 				AddNewWavePatternData(	pObjWavePatternData,
; 2267 : 										PTN_V_TOP,						pHighLowPtData1->m_nDataSeq,	pHighLowPtData5->m_nDataSeq,		
; 2268 : 										pHighLowPtData1->m_nDataSeq,	dYDrawPt1_1,					pHighLowPtData5->m_nDataSeq,	dYDrawPt1_2,
; 2269 : 										ZERO,							ZERO,							ZERO,							ZERO,
; 2270 : 										ZERO,							ZERO,							ZERO,							ZERO,
; 2271 : 										ZERO,							ZERO	);
; 2272 : 
; 2273 : 			}
; 2274 : 		}
; 2275 : 	}
; 2276 : 
; 2277 : 	return TRUE;
; 2278 : }
; 2279 : 
; 2280 : 
; 2281 : // **********************************************
; 2282 : // V Bottom
; 2283 : // **********************************************
; 2284 : BOOL CWavePattern::Find_V_Bottom( CObject *pObjHighLowPtData, CObject *pObjWavePatternData)
; 2285 : {
; 2286 : 	CArrayObjPt(CHighLowPtData) paryHighLowPtData = (CArrayObjPt(CHighLowPtData))pObjHighLowPtData;
; 2287 : 
; 2288 : 	CHighLowPtData *pHighLowPtData1, *pHighLowPtData2, *pHighLowPtData3, *pHighLowPtData4, *pHighLowPtData5;
; 2289 : 	pHighLowPtData1 = pHighLowPtData2 = pHighLowPtData3 = pHighLowPtData4 = pHighLowPtData5 = NULL;
; 2290 : 	int		nPointCnt;
; 2291 : 	int		nMininumData = 5;	// V Bottom    
; 2292 : 
; 2293 : 	double	dGradient1, dGradient2, dGradient3;		// 
; 2294 : 	
; 2295 : 	nPointCnt = paryHighLowPtData->GetSize();
; 2296 : 
; 2297 : 	for(int i = 0; i <= nPointCnt-nMininumData; i++)
; 2298 : 	{
; 2299 : 		pHighLowPtData1 = paryHighLowPtData->GetAt(i);		if ( !pHighLowPtData1 ) continue;
; 2300 : 		if ( pHighLowPtData1->m_nPointType != CHANGINGPT_LOWTOHIGH) continue;
; 2301 : 
; 2302 : 		pHighLowPtData2 = paryHighLowPtData->GetAt(i+1);	if ( !pHighLowPtData2 ) continue;
; 2303 : 		pHighLowPtData3 = paryHighLowPtData->GetAt(i+2);	if ( !pHighLowPtData3 ) continue;
; 2304 : 		pHighLowPtData4 = paryHighLowPtData->GetAt(i+3);	if ( !pHighLowPtData4 ) continue;
; 2305 : 		pHighLowPtData5 = paryHighLowPtData->GetAt(i+4);	if ( !pHighLowPtData5 ) continue;
; 2306 : 
; 2307 : 		if ( (pHighLowPtData1->m_dLow > pHighLowPtData3->m_dLow) && (pHighLowPtData3->m_dLow < pHighLowPtData5->m_dLow))
; 2308 : 		{
; 2309 : 			dGradient1 = GetModifyGradient( pHighLowPtData2->m_nDataSeq, pHighLowPtData2->m_dHigh, 
; 2310 : 											pHighLowPtData3->m_nDataSeq, pHighLowPtData3->m_dLow);	// 2-3
; 2311 : 			
; 2312 : 			dGradient2 = GetModifyGradient(	pHighLowPtData3->m_nDataSeq, pHighLowPtData3->m_dLow, 
; 2313 : 											pHighLowPtData4->m_nDataSeq, pHighLowPtData4->m_dHigh);	// 3-4
; 2314 : 			
; 2315 : 			dGradient3 = GetModifyGradient( pHighLowPtData2->m_nDataSeq, pHighLowPtData2->m_dHigh, 
; 2316 : 											pHighLowPtData4->m_nDataSeq, pHighLowPtData4->m_dHigh);	// 2-4
; 2317 : 
; 2318 : 			if ( dGradient1 <= -0.6 && dGradient2 >= 0.6 && fabs(dGradient3) <= 0.1 )
; 2319 : 			{
; 2320 : 				double dGradA;
; 2321 : 				double dYDrawPt1_1, dYDrawPt1_2;
; 2322 : 
; 2323 : 				dGradA = GetGradient(	pHighLowPtData2->m_nDataSeq, pHighLowPtData2->m_dHigh, 
; 2324 : 										pHighLowPtData4->m_nDataSeq, pHighLowPtData4->m_dHigh);	// 2-4
; 2325 : 
; 2326 : 				// First Draw Data
; 2327 : 				dYDrawPt1_1 = dGradA * (pHighLowPtData1->m_nDataSeq - pHighLowPtData2->m_nDataSeq) + pHighLowPtData2->m_dHigh;
; 2328 : 				dYDrawPt1_2 = dGradA * (pHighLowPtData5->m_nDataSeq - pHighLowPtData2->m_nDataSeq) + pHighLowPtData2->m_dHigh;
; 2329 : 
; 2330 : 
; 2331 : 				AddNewWavePatternData(	pObjWavePatternData,
; 2332 : 										PTN_V_BOTTOM,					pHighLowPtData1->m_nDataSeq,	pHighLowPtData5->m_nDataSeq,		
; 2333 : 										pHighLowPtData1->m_nDataSeq,	dYDrawPt1_1,					pHighLowPtData5->m_nDataSeq,	dYDrawPt1_2,
; 2334 : 										ZERO,							ZERO,							ZERO,							ZERO,
; 2335 : 										ZERO,							ZERO,							ZERO,							ZERO,
; 2336 : 										ZERO,							ZERO	);
; 2337 : 
; 2338 : 			}
; 2339 : 		}
; 2340 : 	}
; 2341 : 
; 2342 : 	return TRUE;
; 2343 : }
; 2344 : 
; 2345 : // **********************************************
; 2346 : // Add Wave Pattern Data
; 2347 : // **********************************************
; 2348 : void CWavePattern::AddNewWavePatternData(	CObject* pObjWavePatternData,
; 2349 : 											int nPatternType,		int nStartSeq,			int nEndSeq,		
; 2350 : 											double dDrawSeq1_1,		double dDrawYPt1_1,		double dDrawSeq1_2,		double dDrawYPt1_2,	
; 2351 : 											double dDrawSeq2_1,		double dDrawYPt2_1,		double dDrawSeq2_2,		double dDrawYPt2_2,
; 2352 : 											double dNeckSeq1,		double dNeckYPt1,		double dNeckSeq2,		double dNeckYPt2,
; 2353 : 											double dNeckBaseYPt1,	double dNeckBaseYPt2	)
; 2354 : {
; 2355 : 	CArrayObjPt(CWavePatternData) paryWavePatternData = (CArrayObjPt(CWavePatternData))pObjWavePatternData;
; 2356 : 
; 2357 : 	CWavePatternData *pWavePatternData = NULL;
; 2358 : 	pWavePatternData = new CWavePatternData;
; 2359 : 	
; 2360 : 	pWavePatternData->m_nPatternType	=	nPatternType;		// Pattern Type
; 2361 : 	pWavePatternData->m_nStartSeq		=	nStartSeq;			// Start Sequence of a Pattern
; 2362 : 	pWavePatternData->m_nEndSeq			=	nEndSeq;			// End Sequence of a Pattern
; 2363 : 	
; 2364 : 	pWavePatternData->m_dDrawSeq1_1		=	dDrawSeq1_1;		// First Draw Data
; 2365 : 	pWavePatternData->m_dDrawYPt1_1		=	dDrawYPt1_1;
; 2366 : 	pWavePatternData->m_dDrawSeq1_2		=	dDrawSeq1_2;
; 2367 : 	pWavePatternData->m_dDrawYPt1_2		=	dDrawYPt1_2;
; 2368 : 	
; 2369 : 	pWavePatternData->m_dDrawSeq2_1		=	dDrawSeq2_1;		// Second Draw Data
; 2370 : 	pWavePatternData->m_dDrawYPt2_1		=	dDrawYPt2_1;
; 2371 : 	pWavePatternData->m_dDrawSeq2_2		=	dDrawSeq2_2;
; 2372 : 	pWavePatternData->m_dDrawYPt2_2		=	dDrawYPt2_2;
; 2373 : 	
; 2374 : 	pWavePatternData->m_dNeckSeq1		=	dNeckSeq1;			// First Neck Data
; 2375 : 	pWavePatternData->m_dNeckYPt1		=	dNeckYPt1;
; 2376 : 	pWavePatternData->m_dNeckSeq2		=	dNeckSeq2;			// Second Neck Data
; 2377 : 	pWavePatternData->m_dNeckYPt2		=	dNeckYPt2;
; 2378 : 	
; 2379 : 	pWavePatternData->m_dNeckBaseYPt1	=	dNeckBaseYPt1;
; 2380 : 	pWavePatternData->m_dNeckBaseYPt2	=	dNeckBaseYPt2;
; 2381 : 	
; 2382 : 	paryWavePatternData->Add(pWavePatternData);
; 2383 : }
; 2384 : 
; 2385 : // **********************************************
; 2386 : // Find All Wave Pattern
; 2387 : // **********************************************
; 2388 : void CWavePattern::Find_All_WavePattern(		CObject *pObjHighLowPtData, CObject *pObjWavePatternData)
; 2389 : {
; 2390 : 	// ## 1-1	Header & Shoulder
; 2391 : 	Find_HeaderNShoulders(		pObjHighLowPtData, pObjWavePatternData);
; 2392 : 	// ## 1-2	Reversal Header & Shoulder
; 2393 : 	Find_R_HeaderNShoulders(	pObjHighLowPtData, pObjWavePatternData);
; 2394 : 
; 2395 : 	// ## 2-1	DoubleTop					()
; 2396 : 	Find_DoubleTop(				pObjHighLowPtData, pObjWavePatternData);
; 2397 : 	// ## 2-2	Reversal DoubleTop			()
; 2398 : 	Find_R_DoubleTop(			pObjHighLowPtData, pObjWavePatternData);
; 2399 : 
; 2400 : 	// ## 3-1	Bull Isosceles Triangles	()
; 2401 : 	Find_Bull_IsoTriangles(		pObjHighLowPtData, pObjWavePatternData);
; 2402 : 	// ## 3-2	Bear Isosceles Triangles	()
; 2403 : 	Find_Bear_IsoTriangles(		pObjHighLowPtData, pObjWavePatternData);
; 2404 : 
; 2405 : 	// ## 4-1	Bull Triangles				()
; 2406 : 	Find_Bull_Triangles(		pObjHighLowPtData, pObjWavePatternData);
; 2407 : 	// ## 4-2	Bear Triangles				()
; 2408 : 	Find_Bear_Triangles(		pObjHighLowPtData, pObjWavePatternData);
; 2409 : 
; 2410 : 	// ## 5-1	Bullish Wide Triangles		()
; 2411 : 	Find_Bullish_WideTriangles( pObjHighLowPtData, pObjWavePatternData);
; 2412 : 	// ## 5-2	Bearish Wide Triangles		()
; 2413 : 	Find_Bearish_WideTriangles( pObjHighLowPtData, pObjWavePatternData);
; 2414 : 
; 2415 : 	// ## 6-1	Bull Wedge					()
; 2416 : 	Find_Bull_Wedge(			pObjHighLowPtData, pObjWavePatternData);
; 2417 : 	// ## 6-2	Bear Wedge					()
; 2418 : 	Find_Bear_Wedge(			pObjHighLowPtData, pObjWavePatternData);
; 2419 : 
; 2420 : 	// ## 7-1	Bull Square Flag			()
; 2421 : 	Find_Bull_SquareFlag(		pObjHighLowPtData, pObjWavePatternData);
; 2422 : 	// ## 7-2	Bear Square Flag			()
; 2423 : 	Find_Bear_SquareFlag(		pObjHighLowPtData, pObjWavePatternData);
; 2424 : 
; 2425 : 	// ## 8-1	Bull Triangle Flag			()
; 2426 : 	Find_Bull_TriangleFlag(		pObjHighLowPtData, pObjWavePatternData);
; 2427 : 	// ## 8-2	Bear Triangle Flag			()
; 2428 : 	Find_Bear_TriangleFlag(		pObjHighLowPtData, pObjWavePatternData);
; 2429 : 
; 2430 : 	// ## 9-1	Bull Rectangle				()
; 2431 : 	Find_Bull_Rectangle(		pObjHighLowPtData, pObjWavePatternData);
; 2432 : 	// ## 9-2	Bear Rectangle				()
; 2433 : 	Find_Bear_Rectangle(		pObjHighLowPtData, pObjWavePatternData);
; 2434 : 
; 2435 : 	// ## 10-1	V Top
; 2436 : 	Find_V_Top(					pObjHighLowPtData, pObjWavePatternData);
; 2437 : 	// ## 10-2	V Bottom
; 2438 : 	Find_V_Bottom(				pObjHighLowPtData, pObjWavePatternData);
; 2439 : }
; 2440 : 
; 2441 : 
; 2442 : double CWavePattern::GetGradient(double dXPos1, double dYPos1, double dXPos2, double dYPos2)
; 2443 : {
; 2444 : 	double dGradient=0;
; 2445 : 
; 2446 : 	if( (dXPos2 - dXPos1) != 0)

  00361	f2 0f 10 5d a0	 movsd	 xmm3, QWORD PTR _dYPos1$1$[ebp]
  00366	8b 7d e4	 mov	 edi, DWORD PTR _pHighLowPtData2$1$[ebp]
$LN53@Find_Bear_:
  00369	f2 0f 10 45 c8	 movsd	 xmm0, QWORD PTR tv1422[ebp]
  0036e	0f 57 e4	 xorps	 xmm4, xmm4
  00371	f2 0f 5c 45 c0	 subsd	 xmm0, QWORD PTR tv1411[ebp]
  00376	66 0f 2e c1	 ucomisd xmm0, xmm1
  0037a	9f		 lahf
  0037b	f6 c4 44	 test	 ah, 68			; 00000044H
  0037e	7b 0b		 jnp	 SHORT $LN65@Find_Bear_

; 2447 : 	{
; 2448 : 		dGradient = (dYPos2 - dYPos1) / (dXPos2 - dXPos1);

  00380	0f 28 e3	 movaps	 xmm4, xmm3
  00383	f2 0f 5c e7	 subsd	 xmm4, xmm7
  00387	f2 0f 5e e0	 divsd	 xmm4, xmm0
$LN65@Find_Bear_:
  0038b	66 0f 6e 42 08	 movd	 xmm0, DWORD PTR [edx+8]
  00390	0f 57 db	 xorps	 xmm3, xmm3

; 2446 : 	if( (dXPos2 - dXPos1) != 0)

  00393	f3 0f e6 c0	 cvtdq2pd xmm0, xmm0
  00397	f2 0f 5c 45 98	 subsd	 xmm0, QWORD PTR tv1420[ebp]
  0039c	66 0f 2e c1	 ucomisd xmm0, xmm1
  003a0	9f		 lahf
  003a1	f6 c4 44	 test	 ah, 68			; 00000044H
  003a4	7b 0e		 jnp	 SHORT $LN70@Find_Bear_

; 2447 : 	{
; 2448 : 		dGradient = (dYPos2 - dYPos1) / (dXPos2 - dXPos1);

  003a6	f2 0f 10 5a 28	 movsd	 xmm3, QWORD PTR [edx+40]
  003ab	f2 0f 5c 59 20	 subsd	 xmm3, QWORD PTR [ecx+32]
  003b0	f2 0f 5e d8	 divsd	 xmm3, xmm0
$LN70@Find_Bear_:

; 2150 : 				{
; 2151 : 					double dGradA, dGradB, dGradA_H, dGradB_H;
; 2152 : 					double dYDrawPt1_1, dYDrawPt1_2;
; 2153 : 					double dYDrawPt2_1, dYDrawPt2_2; 
; 2154 : 					double dXNeckPt1, dYNeckPt1;
; 2155 : 					double dXNeckPt2, dYNeckPt2;
; 2156 : 					double dNeckBaseYPt1, dNeckBaseYPt2;
; 2157 : 
; 2158 : 					dGradA = GetGradient(	pHighLowPtData3->m_nDataSeq, pHighLowPtData3->m_dHigh, 
; 2159 : 											pHighLowPtData5->m_nDataSeq, pHighLowPtData5->m_dHigh);	// 3-5
; 2160 : 
; 2161 : 					dGradB = GetGradient(	pHighLowPtData2->m_nDataSeq, pHighLowPtData2->m_dLow, 
; 2162 : 											pHighLowPtData4->m_nDataSeq, pHighLowPtData4->m_dLow);	// 2-4
; 2163 : 
; 2164 : 					dGradA_H = GetGradient(	pHighLowPtData1->m_nDataSeq, pHighLowPtData1->m_dHigh, 
; 2165 : 											pHighLowPtData2->m_nDataSeq, pHighLowPtData2->m_dLow);	// 1-2
; 2166 : 
; 2167 : 					dGradB_H = GetGradient(	pHighLowPtData5->m_nDataSeq, pHighLowPtData5->m_dHigh, 
; 2168 : 											pHighLowPtData6->m_nDataSeq, pHighLowPtData6->m_dLow);	// 5-6
; 2169 : 
; 2170 : 					// First Draw Data
; 2171 : 					dYDrawPt1_1 = dGradA * (pHighLowPtData1->m_nDataSeq - pHighLowPtData3->m_nDataSeq) + pHighLowPtData3->m_dHigh;

  003b4	8b 45 fc	 mov	 eax, DWORD PTR tv1449[ebp]
  003b7	2b 45 f0	 sub	 eax, DWORD PTR tv1448[ebp]

; 2172 : 					dYDrawPt1_2 = dGradA * (pHighLowPtData6->m_nDataSeq - pHighLowPtData3->m_nDataSeq) + pHighLowPtData3->m_dHigh;

  003ba	8b 55 dc	 mov	 edx, DWORD PTR tv1446[ebp]
  003bd	66 0f 6e c0	 movd	 xmm0, eax
  003c1	8b c2		 mov	 eax, edx
  003c3	2b 45 f0	 sub	 eax, DWORD PTR tv1448[ebp]
  003c6	f3 0f e6 c0	 cvtdq2pd xmm0, xmm0
  003ca	f2 0f 59 c5	 mulsd	 xmm0, xmm5
  003ce	f2 0f 58 c6	 addsd	 xmm0, xmm6
  003d2	f2 0f 11 45 e0	 movsd	 QWORD PTR _dYDrawPt1_1$1$[ebp], xmm0
  003d7	66 0f 6e c0	 movd	 xmm0, eax

; 2173 : 
; 2174 : 					// Second Draw Data
; 2175 : 					dYDrawPt2_1 = dGradB * (pHighLowPtData1->m_nDataSeq - pHighLowPtData2->m_nDataSeq) + pHighLowPtData2->m_dLow;

  003db	8b 45 fc	 mov	 eax, DWORD PTR tv1449[ebp]
  003de	2b 47 08	 sub	 eax, DWORD PTR [edi+8]
  003e1	f3 0f e6 c0	 cvtdq2pd xmm0, xmm0
  003e5	f2 0f 59 c5	 mulsd	 xmm0, xmm5
  003e9	f2 0f 58 c6	 addsd	 xmm0, xmm6
  003ed	f2 0f 11 45 b8	 movsd	 QWORD PTR _dYDrawPt1_2$1$[ebp], xmm0
  003f2	66 0f 6e c0	 movd	 xmm0, eax

; 2176 : 					dYDrawPt2_2 = dGradB * (pHighLowPtData6->m_nDataSeq - pHighLowPtData2->m_nDataSeq) + pHighLowPtData2->m_dLow;

  003f6	8b c2		 mov	 eax, edx
  003f8	2b 47 08	 sub	 eax, DWORD PTR [edi+8]
  003fb	f3 0f e6 c0	 cvtdq2pd xmm0, xmm0
  003ff	f2 0f 59 c2	 mulsd	 xmm0, xmm2
  00403	0f 28 c8	 movaps	 xmm1, xmm0
  00406	f2 0f 11 45 d8	 movsd	 QWORD PTR _dYDrawPt2_1$1$[ebp], xmm0
  0040b	f2 0f 58 4f 28	 addsd	 xmm1, QWORD PTR [edi+40]

; 2177 : 
; 2178 : 					// First Neck Data
; 2179 : 					if ( (dGradA_H - dGradA) != 0)

  00410	0f 28 c4	 movaps	 xmm0, xmm4
  00413	f2 0f 5c c5	 subsd	 xmm0, xmm5
  00417	f2 0f 11 4d d8	 movsd	 QWORD PTR _dYDrawPt2_1$1$[ebp], xmm1
  0041c	66 0f 6e c8	 movd	 xmm1, eax
  00420	f3 0f e6 c9	 cvtdq2pd xmm1, xmm1
  00424	f2 0f 11 45 a8	 movsd	 QWORD PTR tv1353[ebp], xmm0
  00429	f2 0f 59 ca	 mulsd	 xmm1, xmm2
  0042d	f2 0f 58 4f 28	 addsd	 xmm1, QWORD PTR [edi+40]
  00432	f2 0f 11 4d e8	 movsd	 QWORD PTR _dYDrawPt2_2$1$[ebp], xmm1
  00437	0f 57 c9	 xorps	 xmm1, xmm1
  0043a	66 0f 2e c1	 ucomisd xmm0, xmm1
  0043e	f2 0f 10 47 28	 movsd	 xmm0, QWORD PTR [edi+40]
  00443	9f		 lahf
  00444	f6 c4 44	 test	 ah, 68			; 00000044H
  00447	7b 58		 jnp	 SHORT $LN67@Find_Bear_

; 2180 : 					{
; 2181 : 						dXNeckPt1 = ( ( pHighLowPtData3->m_dHigh - pHighLowPtData1->m_dHigh) + 

  00449	0f 28 c4	 movaps	 xmm0, xmm4
  0044c	f2 0f 59 45 c0	 mulsd	 xmm0, QWORD PTR tv1411[ebp]
  00451	f2 0f 11 45 d0	 movsd	 QWORD PTR _dXNeckPt1$5[ebp], xmm0
  00456	0f 28 c6	 movaps	 xmm0, xmm6
  00459	f2 0f 10 4d d0	 movsd	 xmm1, QWORD PTR _dXNeckPt1$5[ebp]
  0045e	f2 0f 5c c7	 subsd	 xmm0, xmm7
  00462	f2 0f 58 c8	 addsd	 xmm1, xmm0
  00466	0f 28 c5	 movaps	 xmm0, xmm5
  00469	f2 0f 59 45 90	 mulsd	 xmm0, QWORD PTR tv1417[ebp]
  0046e	f2 0f 5c c8	 subsd	 xmm1, xmm0
  00472	0f 28 c1	 movaps	 xmm0, xmm1
  00475	f2 0f 11 4d d0	 movsd	 QWORD PTR _dXNeckPt1$5[ebp], xmm1
  0047a	f2 0f 5e 45 a8	 divsd	 xmm0, QWORD PTR tv1353[ebp]
  0047f	0f 57 c9	 xorps	 xmm1, xmm1
  00482	f2 0f 11 45 d0	 movsd	 QWORD PTR _dXNeckPt1$5[ebp], xmm0

; 2182 : 										dGradA_H*pHighLowPtData1->m_nDataSeq - dGradA*pHighLowPtData3->m_nDataSeq ) / ( dGradA_H-dGradA);
; 2183 : 						dYNeckPt1 = dGradA_H*(dXNeckPt1-pHighLowPtData1->m_nDataSeq) + pHighLowPtData1->m_dHigh;

  00487	f2 0f 5c 45 c0	 subsd	 xmm0, QWORD PTR tv1411[ebp]
  0048c	f2 0f 59 c4	 mulsd	 xmm0, xmm4
  00490	f2 0f 58 c7	 addsd	 xmm0, xmm7
  00494	f2 0f 11 85 78
	ff ff ff	 movsd	 QWORD PTR _dYNeckPt1$1[ebp], xmm0
  0049c	f2 0f 10 45 a0	 movsd	 xmm0, QWORD PTR _dYPos1$1$[ebp]
$LN67@Find_Bear_:

; 2184 : 					}
; 2185 : 					// Second Neck Data
; 2186 : 					if ( (dGradB_H - dGradB) != 0)

  004a1	0f 28 e3	 movaps	 xmm4, xmm3
  004a4	f2 0f 5c e2	 subsd	 xmm4, xmm2
  004a8	66 0f 2e e1	 ucomisd xmm4, xmm1
  004ac	9f		 lahf
  004ad	f6 c4 44	 test	 ah, 68			; 00000044H
  004b0	7b 45		 jnp	 SHORT $LN72@Find_Bear_

; 2187 : 					{
; 2188 : 						dXNeckPt2 = ( ( pHighLowPtData2->m_dLow - pHighLowPtData5->m_dHigh) + 

  004b2	f2 0f 5c 41 20	 subsd	 xmm0, QWORD PTR [ecx+32]
  004b7	0f 28 fb	 movaps	 xmm7, xmm3
  004ba	f2 0f 59 7d 98	 mulsd	 xmm7, QWORD PTR tv1420[ebp]
  004bf	f2 0f 58 f8	 addsd	 xmm7, xmm0
  004c3	0f 28 c2	 movaps	 xmm0, xmm2
  004c6	f2 0f 59 45 c8	 mulsd	 xmm0, QWORD PTR tv1422[ebp]
  004cb	f2 0f 5c f8	 subsd	 xmm7, xmm0
  004cf	0f 57 c0	 xorps	 xmm0, xmm0

; 2189 : 										dGradB_H*pHighLowPtData5->m_nDataSeq - dGradB*pHighLowPtData2->m_nDataSeq ) / ( dGradB_H-dGradB);
; 2190 : 						dYNeckPt2 = dGradB_H*(dXNeckPt2-pHighLowPtData5->m_nDataSeq) + pHighLowPtData5->m_dHigh;

  004d2	f2 0f 2a 41 08	 cvtsi2sd xmm0, DWORD PTR [ecx+8]
  004d7	f2 0f 5e fc	 divsd	 xmm7, xmm4
  004db	0f 28 e7	 movaps	 xmm4, xmm7
  004de	f2 0f 11 7d 88	 movsd	 QWORD PTR _dXNeckPt2$3[ebp], xmm7
  004e3	f2 0f 5c e0	 subsd	 xmm4, xmm0
  004e7	f2 0f 59 e3	 mulsd	 xmm4, xmm3
  004eb	f2 0f 58 61 20	 addsd	 xmm4, QWORD PTR [ecx+32]
  004f0	f2 0f 11 65 80	 movsd	 QWORD PTR _dYNeckPt2$2[ebp], xmm4
  004f5	eb 0a		 jmp	 SHORT $LN16@Find_Bear_
$LN72@Find_Bear_:

; 2184 : 					}
; 2185 : 					// Second Neck Data
; 2186 : 					if ( (dGradB_H - dGradB) != 0)

  004f7	f2 0f 10 7d 88	 movsd	 xmm7, QWORD PTR _dXNeckPt2$3[ebp]
  004fc	f2 0f 10 65 80	 movsd	 xmm4, QWORD PTR _dYNeckPt2$2[ebp]
$LN16@Find_Bear_:

; 2191 : 					}
; 2192 : 
; 2193 : 					// Neck Base Data1
; 2194 : 					dNeckBaseYPt1 = dGradA * (dXNeckPt1 - pHighLowPtData3->m_nDataSeq) + pHighLowPtData3->m_dHigh;
; 2195 : 					// Neck Base Data2
; 2196 : 					dNeckBaseYPt2 = dGradB * (dXNeckPt1 - pHighLowPtData2->m_nDataSeq) + pHighLowPtData2->m_dLow;

  00501	f2 0f 10 4d d0	 movsd	 xmm1, QWORD PTR _dXNeckPt1$5[ebp]

; 2197 : 
; 2198 : 
; 2199 : 					AddNewWavePatternData(	pObjWavePatternData,

  00506	83 ec 70	 sub	 esp, 112		; 00000070H
  00509	0f 28 c1	 movaps	 xmm0, xmm1
  0050c	8b 4d b4	 mov	 ecx, DWORD PTR _this$1$[ebp]
  0050f	f2 0f 5c 45 c8	 subsd	 xmm0, QWORD PTR tv1422[ebp]
  00514	f2 0f 59 c2	 mulsd	 xmm0, xmm2
  00518	66 0f 6e d2	 movd	 xmm2, edx
  0051c	f3 0f e6 d2	 cvtdq2pd xmm2, xmm2
  00520	f2 0f 58 47 28	 addsd	 xmm0, QWORD PTR [edi+40]
  00525	f2 0f 11 44 24
	68		 movsd	 QWORD PTR [esp+104], xmm0
  0052b	0f 28 c1	 movaps	 xmm0, xmm1
  0052e	f2 0f 5c 45 90	 subsd	 xmm0, QWORD PTR tv1417[ebp]
  00533	f2 0f 59 c5	 mulsd	 xmm0, xmm5
  00537	f2 0f 58 c6	 addsd	 xmm0, xmm6
  0053b	f2 0f 11 44 24
	60		 movsd	 QWORD PTR [esp+96], xmm0
  00541	f2 0f 10 85 78
	ff ff ff	 movsd	 xmm0, QWORD PTR _dYNeckPt1$1[ebp]
  00549	f2 0f 11 64 24
	58		 movsd	 QWORD PTR [esp+88], xmm4
  0054f	f2 0f 11 7c 24
	50		 movsd	 QWORD PTR [esp+80], xmm7
  00555	f2 0f 11 44 24
	48		 movsd	 QWORD PTR [esp+72], xmm0
  0055b	f2 0f 10 45 e8	 movsd	 xmm0, QWORD PTR _dYDrawPt2_2$1$[ebp]
  00560	f2 0f 11 4c 24
	40		 movsd	 QWORD PTR [esp+64], xmm1
  00566	f2 0f 10 4d c0	 movsd	 xmm1, QWORD PTR tv1411[ebp]
  0056b	f2 0f 11 44 24
	38		 movsd	 QWORD PTR [esp+56], xmm0
  00571	f2 0f 10 45 d8	 movsd	 xmm0, QWORD PTR _dYDrawPt2_1$1$[ebp]
  00576	f2 0f 11 54 24
	30		 movsd	 QWORD PTR [esp+48], xmm2
  0057c	f2 0f 11 44 24
	28		 movsd	 QWORD PTR [esp+40], xmm0
  00582	f2 0f 10 45 b8	 movsd	 xmm0, QWORD PTR _dYDrawPt1_2$1$[ebp]
  00587	f2 0f 11 4c 24
	20		 movsd	 QWORD PTR [esp+32], xmm1
  0058d	f2 0f 11 44 24
	18		 movsd	 QWORD PTR [esp+24], xmm0
  00593	f2 0f 10 45 e0	 movsd	 xmm0, QWORD PTR _dYDrawPt1_1$1$[ebp]
  00598	f2 0f 11 54 24
	10		 movsd	 QWORD PTR [esp+16], xmm2
  0059e	f2 0f 11 44 24
	08		 movsd	 QWORD PTR [esp+8], xmm0
  005a4	f2 0f 11 0c 24	 movsd	 QWORD PTR [esp], xmm1
  005a9	52		 push	 edx
  005aa	ff 75 fc	 push	 DWORD PTR tv1449[ebp]
  005ad	68 b2 0f 00 00	 push	 4018			; 00000fb2H
  005b2	ff 75 0c	 push	 DWORD PTR _pObjWavePatternData$[ebp]
  005b5	e8 00 00 00 00	 call	 ?AddNewWavePatternData@CWavePattern@@QAEXPAVCObject@@HHHNNNNNNNNNNNNNN@Z ; CWavePattern::AddNewWavePatternData
  005ba	0f 57 c9	 xorps	 xmm1, xmm1
$LN2@Find_Bear_:

; 2121 : 
; 2122 : 	for(int i = 0; i <= nPointCnt-nMininumData; i++)

  005bd	8b 55 08	 mov	 edx, DWORD PTR _pObjHighLowPtData$[ebp]
  005c0	46		 inc	 esi
  005c1	8d 46 fe	 lea	 eax, DWORD PTR [esi-2]
  005c4	3b 45 b0	 cmp	 eax, DWORD PTR $T4[ebp]
  005c7	0f 8e 63 fa ff
	ff		 jle	 $LL4@Find_Bear_
  005cd	5f		 pop	 edi
  005ce	5e		 pop	 esi
$LN3@Find_Bear_:

; 2200 : 											PTN_BEAR_RECTANGLE,				pHighLowPtData1->m_nDataSeq,	pHighLowPtData6->m_nDataSeq,		
; 2201 : 											pHighLowPtData1->m_nDataSeq,	dYDrawPt1_1,					pHighLowPtData6->m_nDataSeq,	dYDrawPt1_2,
; 2202 : 											pHighLowPtData1->m_nDataSeq,	dYDrawPt2_1,					pHighLowPtData6->m_nDataSeq,	dYDrawPt2_2,
; 2203 : 											dXNeckPt1,						dYNeckPt1,						dXNeckPt2,						dYNeckPt2,
; 2204 : 											dNeckBaseYPt1,					dNeckBaseYPt2	);
; 2205 : 
; 2206 : 
; 2207 : 				}
; 2208 : 			}
; 2209 : 		}
; 2210 : 	}
; 2211 : 
; 2212 : 	return TRUE;

  005cf	b8 01 00 00 00	 mov	 eax, 1

; 2213 : }

  005d4	8b e5		 mov	 esp, ebp
  005d6	5d		 pop	 ebp
  005d7	c2 08 00	 ret	 8
$LN19@Find_Bear_:
; File C:\Program Files (x86)\Microsoft Visual Studio\2019\Community\VC\Tools\MSVC\14.29.30133\atlmfc\include\afxtempl.h

; 290  : 	AfxThrowInvalidArgException();

  005da	e8 00 00 00 00	 call	 ?AfxThrowInvalidArgException@@YGXXZ ; AfxThrowInvalidArgException
$LN76@Find_Bear_:
  005df	cc		 int	 3
?Find_Bear_Rectangle@CWavePattern@@QAEHPAVCObject@@0@Z ENDP ; CWavePattern::Find_Bear_Rectangle
_TEXT	ENDS
; Function compile flags: /Ogtp
; File D:\git\src\IBK\IBK_DRFN\ProjSrc\SrcChartEx\ChartAddIn\ChartPatternAddIn\WavePattern.cpp
; File C:\Program Files (x86)\Microsoft Visual Studio\2019\Community\VC\Tools\MSVC\14.29.30133\atlmfc\include\afxtempl.h
; File D:\git\src\IBK\IBK_DRFN\ProjSrc\SrcChartEx\ChartAddIn\ChartPatternAddIn\WavePattern.cpp
; File C:\Program Files (x86)\Microsoft Visual Studio\2019\Community\VC\Tools\MSVC\14.29.30133\atlmfc\include\afxtempl.h
; File D:\git\src\IBK\IBK_DRFN\ProjSrc\SrcChartEx\ChartAddIn\ChartPatternAddIn\WavePattern.cpp
; File C:\Program Files (x86)\Microsoft Visual Studio\2019\Community\VC\Tools\MSVC\14.29.30133\atlmfc\include\afxtempl.h
; File D:\git\src\IBK\IBK_DRFN\ProjSrc\SrcChartEx\ChartAddIn\ChartPatternAddIn\WavePattern.cpp
; File C:\Program Files (x86)\Microsoft Visual Studio\2019\Community\VC\Tools\MSVC\14.29.30133\atlmfc\include\afxtempl.h
; File D:\git\src\IBK\IBK_DRFN\ProjSrc\SrcChartEx\ChartAddIn\ChartPatternAddIn\WavePattern.cpp
; File C:\Program Files (x86)\Microsoft Visual Studio\2019\Community\VC\Tools\MSVC\14.29.30133\atlmfc\include\afxtempl.h
; File D:\git\src\IBK\IBK_DRFN\ProjSrc\SrcChartEx\ChartAddIn\ChartPatternAddIn\WavePattern.cpp
; File C:\Program Files (x86)\Microsoft Visual Studio\2019\Community\VC\Tools\MSVC\14.29.30133\atlmfc\include\afxtempl.h
; File D:\git\src\IBK\IBK_DRFN\ProjSrc\SrcChartEx\ChartAddIn\ChartPatternAddIn\WavePattern.cpp
; File C:\Program Files (x86)\Microsoft Visual Studio\2019\Community\VC\Tools\MSVC\14.29.30133\atlmfc\include\afxtempl.h
; File D:\git\src\IBK\IBK_DRFN\ProjSrc\SrcChartEx\ChartAddIn\ChartPatternAddIn\WavePattern.cpp
;	COMDAT ?Find_Bull_Rectangle@CWavePattern@@QAEHPAVCObject@@0@Z
_TEXT	SEGMENT
_dYNeckPt1$1 = -124					; size = 8
_dYNeckPt2$2 = -116					; size = 8
_dXNeckPt2$3 = -108					; size = 8
tv1339 = -100						; size = 8
tv1336 = -100						; size = 8
tv1320 = -100						; size = 8
_dYDrawPt2_2$1$ = -92					; size = 8
tv1317 = -92						; size = 8
_dYDrawPt2_1$1$ = -84					; size = 8
tv1383 = -84						; size = 8
tv1377 = -84						; size = 8
tv1304 = -84						; size = 8
_dYPos1$1$ = -76					; size = 8
tv1364 = -68						; size = 8
tv1370 = -60						; size = 8
_dXNeckPt1$4 = -52					; size = 8
tv1375 = -44						; size = 8
$T5 = -36						; size = 4
_this$1$ = -32						; size = 4
_dYDrawPt1_2$1$ = -28					; size = 8
_pHighLowPtData6$1$ = -24				; size = 4
_pHighLowPtData3$1$ = -20				; size = 4
tv1399 = -20						; size = 4
_dYDrawPt1_1$1$ = -16					; size = 8
_pHighLowPtData2$1$ = -12				; size = 4
_pHighLowPtData4$1$ = -8				; size = 4
tv1401 = -8						; size = 4
_pHighLowPtData5$1$ = -4				; size = 4
_pObjHighLowPtData$ = 8					; size = 4
_pObjWavePatternData$ = 12				; size = 4
?Find_Bull_Rectangle@CWavePattern@@QAEHPAVCObject@@0@Z PROC ; CWavePattern::Find_Bull_Rectangle, COMDAT
; _this$ = ecx

; 2001 : {

  00000	55		 push	 ebp
  00001	8b ec		 mov	 ebp, esp
  00003	83 ec 7c	 sub	 esp, 124		; 0000007cH

; 2012 : 
; 2013 : 	for(int i = 0; i <= nPointCnt-nMininumData; i++)

  00006	8b 55 08	 mov	 edx, DWORD PTR _pObjHighLowPtData$[ebp]
  00009	89 4d e0	 mov	 DWORD PTR _this$1$[ebp], ecx
  0000c	8b 42 08	 mov	 eax, DWORD PTR [edx+8]
  0000f	83 e8 06	 sub	 eax, 6
  00012	89 45 dc	 mov	 DWORD PTR $T5[ebp], eax
  00015	0f 88 73 05 00
	00		 js	 $LN3@Find_Bull_

; 2002 : 	CArrayObjPt(CHighLowPtData) paryHighLowPtData = (CArrayObjPt(CHighLowPtData))pObjHighLowPtData;
; 2003 : 
; 2004 : 	CHighLowPtData *pHighLowPtData1, *pHighLowPtData2, *pHighLowPtData3, *pHighLowPtData4, *pHighLowPtData5, *pHighLowPtData6;
; 2005 : 	pHighLowPtData1 = pHighLowPtData2 = pHighLowPtData3 = pHighLowPtData4 = pHighLowPtData5 = pHighLowPtData6 = NULL;
; 2006 : 	int		nPointCnt;
; 2007 : 	int		nMininumData = 6;	// Bull Rectangle    
; 2008 : 
; 2009 : 	double	dGradient1, dGradient2, dGradient3, dGradient4;		// 
; 2010 : 	
; 2011 : 	nPointCnt = paryHighLowPtData->GetSize();

  0001b	56		 push	 esi
  0001c	57		 push	 edi
  0001d	be 02 00 00 00	 mov	 esi, 2
  00022	0f 57 c0	 xorps	 xmm0, xmm0
$LL4@Find_Bull_:
; File C:\Program Files (x86)\Microsoft Visual Studio\2019\Community\VC\Tools\MSVC\14.29.30133\atlmfc\include\afxtempl.h

; 288  : 	if(nIndex >= 0 && nIndex < m_nSize)

  00025	8d 4e fe	 lea	 ecx, DWORD PTR [esi-2]
  00028	85 c9		 test	 ecx, ecx
  0002a	0f 88 69 05 00
	00		 js	 $LN19@Find_Bull_
  00030	8b 42 08	 mov	 eax, DWORD PTR [edx+8]
  00033	3b c8		 cmp	 ecx, eax
  00035	0f 8d 5e 05 00
	00		 jge	 $LN19@Find_Bull_

; 289  : 		return m_pData[nIndex];

  0003b	8b 4a 04	 mov	 ecx, DWORD PTR [edx+4]
; File D:\git\src\IBK\IBK_DRFN\ProjSrc\SrcChartEx\ChartAddIn\ChartPatternAddIn\WavePattern.cpp

; 2015 : 		pHighLowPtData1 = paryHighLowPtData->GetAt(i);		if ( !pHighLowPtData1 ) continue;

  0003e	8b 54 b1 f8	 mov	 edx, DWORD PTR [ecx+esi*4-8]
  00042	85 d2		 test	 edx, edx
  00044	0f 84 32 05 00
	00		 je	 $LN2@Find_Bull_

; 2016 : 		if ( pHighLowPtData1->m_nPointType != CHANGINGPT_LOWTOHIGH) continue;

  0004a	81 7a 04 ea 03
	00 00		 cmp	 DWORD PTR [edx+4], 1002	; 000003eaH
  00051	0f 85 25 05 00
	00		 jne	 $LN2@Find_Bull_
; File C:\Program Files (x86)\Microsoft Visual Studio\2019\Community\VC\Tools\MSVC\14.29.30133\atlmfc\include\afxtempl.h

; 288  : 	if(nIndex >= 0 && nIndex < m_nSize)

  00057	8d 7e ff	 lea	 edi, DWORD PTR [esi-1]
  0005a	85 ff		 test	 edi, edi
  0005c	0f 88 37 05 00
	00		 js	 $LN19@Find_Bull_
  00062	3b f8		 cmp	 edi, eax
  00064	0f 8d 2f 05 00
	00		 jge	 $LN19@Find_Bull_
; File D:\git\src\IBK\IBK_DRFN\ProjSrc\SrcChartEx\ChartAddIn\ChartPatternAddIn\WavePattern.cpp

; 2018 : 		pHighLowPtData2 = paryHighLowPtData->GetAt(i+1);	if ( !pHighLowPtData2 ) continue;

  0006a	8b 7c b1 fc	 mov	 edi, DWORD PTR [ecx+esi*4-4]
  0006e	89 7d f4	 mov	 DWORD PTR _pHighLowPtData2$1$[ebp], edi
  00071	85 ff		 test	 edi, edi
  00073	0f 84 03 05 00
	00		 je	 $LN2@Find_Bull_
; File C:\Program Files (x86)\Microsoft Visual Studio\2019\Community\VC\Tools\MSVC\14.29.30133\atlmfc\include\afxtempl.h

; 288  : 	if(nIndex >= 0 && nIndex < m_nSize)

  00079	85 f6		 test	 esi, esi
  0007b	0f 88 18 05 00
	00		 js	 $LN19@Find_Bull_
  00081	3b f0		 cmp	 esi, eax
  00083	0f 8d 10 05 00
	00		 jge	 $LN19@Find_Bull_
; File D:\git\src\IBK\IBK_DRFN\ProjSrc\SrcChartEx\ChartAddIn\ChartPatternAddIn\WavePattern.cpp

; 2019 : 		pHighLowPtData3 = paryHighLowPtData->GetAt(i+2);	if ( !pHighLowPtData3 ) continue;

  00089	8b 3c b1	 mov	 edi, DWORD PTR [ecx+esi*4]
  0008c	89 7d ec	 mov	 DWORD PTR _pHighLowPtData3$1$[ebp], edi
  0008f	85 ff		 test	 edi, edi
  00091	0f 84 e5 04 00
	00		 je	 $LN2@Find_Bull_
; File C:\Program Files (x86)\Microsoft Visual Studio\2019\Community\VC\Tools\MSVC\14.29.30133\atlmfc\include\afxtempl.h

; 288  : 	if(nIndex >= 0 && nIndex < m_nSize)

  00097	8d 7e 01	 lea	 edi, DWORD PTR [esi+1]
  0009a	85 ff		 test	 edi, edi
  0009c	0f 88 f7 04 00
	00		 js	 $LN19@Find_Bull_
  000a2	3b f8		 cmp	 edi, eax
  000a4	0f 8d ef 04 00
	00		 jge	 $LN19@Find_Bull_
; File D:\git\src\IBK\IBK_DRFN\ProjSrc\SrcChartEx\ChartAddIn\ChartPatternAddIn\WavePattern.cpp

; 2020 : 		pHighLowPtData4 = paryHighLowPtData->GetAt(i+3);	if ( !pHighLowPtData4 ) continue;

  000aa	8b 7c b1 04	 mov	 edi, DWORD PTR [ecx+esi*4+4]
  000ae	89 7d f8	 mov	 DWORD PTR _pHighLowPtData4$1$[ebp], edi
  000b1	85 ff		 test	 edi, edi
  000b3	0f 84 c3 04 00
	00		 je	 $LN2@Find_Bull_
; File C:\Program Files (x86)\Microsoft Visual Studio\2019\Community\VC\Tools\MSVC\14.29.30133\atlmfc\include\afxtempl.h

; 288  : 	if(nIndex >= 0 && nIndex < m_nSize)

  000b9	8d 7e 02	 lea	 edi, DWORD PTR [esi+2]
  000bc	85 ff		 test	 edi, edi
  000be	0f 88 d5 04 00
	00		 js	 $LN19@Find_Bull_
  000c4	3b f8		 cmp	 edi, eax
  000c6	0f 8d cd 04 00
	00		 jge	 $LN19@Find_Bull_
; File D:\git\src\IBK\IBK_DRFN\ProjSrc\SrcChartEx\ChartAddIn\ChartPatternAddIn\WavePattern.cpp

; 2021 : 		pHighLowPtData5 = paryHighLowPtData->GetAt(i+4);	if ( !pHighLowPtData5 ) continue;

  000cc	8b 7c b1 08	 mov	 edi, DWORD PTR [ecx+esi*4+8]
  000d0	89 7d fc	 mov	 DWORD PTR _pHighLowPtData5$1$[ebp], edi
  000d3	85 ff		 test	 edi, edi
  000d5	0f 84 a1 04 00
	00		 je	 $LN2@Find_Bull_
; File C:\Program Files (x86)\Microsoft Visual Studio\2019\Community\VC\Tools\MSVC\14.29.30133\atlmfc\include\afxtempl.h

; 288  : 	if(nIndex >= 0 && nIndex < m_nSize)

  000db	8d 7e 03	 lea	 edi, DWORD PTR [esi+3]
  000de	85 ff		 test	 edi, edi
  000e0	0f 88 b3 04 00
	00		 js	 $LN19@Find_Bull_
  000e6	3b f8		 cmp	 edi, eax
  000e8	0f 8d ab 04 00
	00		 jge	 $LN19@Find_Bull_
; File D:\git\src\IBK\IBK_DRFN\ProjSrc\SrcChartEx\ChartAddIn\ChartPatternAddIn\WavePattern.cpp

; 2022 : 		pHighLowPtData6 = paryHighLowPtData->GetAt(i+5);	if ( !pHighLowPtData6 ) continue;

  000ee	8b 44 b1 0c	 mov	 eax, DWORD PTR [ecx+esi*4+12]
  000f2	89 45 e8	 mov	 DWORD PTR _pHighLowPtData6$1$[ebp], eax
  000f5	85 c0		 test	 eax, eax
  000f7	0f 84 7f 04 00
	00		 je	 $LN2@Find_Bull_

; 2023 : 
; 2024 : 		if ( (pHighLowPtData1->m_dLow < pHighLowPtData3->m_dLow) && (pHighLowPtData4->m_dHigh < pHighLowPtData6->m_dHigh))

  000fd	8b 4d ec	 mov	 ecx, DWORD PTR _pHighLowPtData3$1$[ebp]
  00100	f2 0f 10 4a 28	 movsd	 xmm1, QWORD PTR [edx+40]
  00105	f2 0f 11 4d b4	 movsd	 QWORD PTR _dYPos1$1$[ebp], xmm1
  0010a	f2 0f 10 71 28	 movsd	 xmm6, QWORD PTR [ecx+40]
  0010f	66 0f 2f f1	 comisd	 xmm6, xmm1
  00113	0f 86 63 04 00
	00		 jbe	 $LN2@Find_Bull_
  00119	8b 7d f8	 mov	 edi, DWORD PTR _pHighLowPtData4$1$[ebp]
  0011c	f2 0f 10 50 20	 movsd	 xmm2, QWORD PTR [eax+32]
  00121	f2 0f 10 6f 20	 movsd	 xmm5, QWORD PTR [edi+32]
  00126	66 0f 2f d5	 comisd	 xmm2, xmm5
  0012a	0f 86 4c 04 00
	00		 jbe	 $LN2@Find_Bull_

; 2025 : 		{
; 2026 : 			dGradient1 = GetModifyGradient( pHighLowPtData1->m_nDataSeq, pHighLowPtData1->m_dLow, 

  00130	8b 42 08	 mov	 eax, DWORD PTR [edx+8]

; 2456 : 	double	dGradient=0;

  00133	0f 28 d0	 movaps	 xmm2, xmm0
  00136	66 0f 6e 61 08	 movd	 xmm4, DWORD PTR [ecx+8]

; 2025 : 		{
; 2026 : 			dGradient1 = GetModifyGradient( pHighLowPtData1->m_nDataSeq, pHighLowPtData1->m_dLow, 

  0013b	f3 0f e6 e4	 cvtdq2pd xmm4, xmm4
  0013f	89 45 f8	 mov	 DWORD PTR tv1401[ebp], eax
  00142	66 0f 6e f8	 movd	 xmm7, eax
  00146	f3 0f e6 ff	 cvtdq2pd xmm7, xmm7

; 2458 : 	if( (dXPos2 - dXPos1) != 0 && (dYPos1 != 0))

  0014a	0f 28 dc	 movaps	 xmm3, xmm4

; 2025 : 		{
; 2026 : 			dGradient1 = GetModifyGradient( pHighLowPtData1->m_nDataSeq, pHighLowPtData1->m_dLow, 

  0014d	f2 0f 11 65 c4	 movsd	 QWORD PTR tv1370[ebp], xmm4

; 2458 : 	if( (dXPos2 - dXPos1) != 0 && (dYPos1 != 0))

  00152	f2 0f 5c df	 subsd	 xmm3, xmm7

; 2025 : 		{
; 2026 : 			dGradient1 = GetModifyGradient( pHighLowPtData1->m_nDataSeq, pHighLowPtData1->m_dLow, 

  00156	f2 0f 11 7d bc	 movsd	 QWORD PTR tv1364[ebp], xmm7

; 2458 : 	if( (dXPos2 - dXPos1) != 0 && (dYPos1 != 0))

  0015b	f2 0f 10 3d 00
	00 00 00	 movsd	 xmm7, QWORD PTR __real@4059000000000000
  00163	66 0f 2e d8	 ucomisd xmm3, xmm0
  00167	9f		 lahf
  00168	f6 c4 44	 test	 ah, 68			; 00000044H
  0016b	7b 1d		 jnp	 SHORT $LN38@Find_Bull_
  0016d	66 0f 2e c8	 ucomisd xmm1, xmm0
  00171	9f		 lahf
  00172	f6 c4 44	 test	 ah, 68			; 00000044H
  00175	7b 13		 jnp	 SHORT $LN38@Find_Bull_

; 2459 : 	{
; 2460 : 		dGradient = (dYPos2 - dYPos1) / dYPos1 / (dXPos2 - dXPos1) * 100;

  00177	0f 28 d6	 movaps	 xmm2, xmm6
  0017a	f2 0f 5c d1	 subsd	 xmm2, xmm1
  0017e	f2 0f 5e d1	 divsd	 xmm2, xmm1
  00182	f2 0f 5e d3	 divsd	 xmm2, xmm3
  00186	f2 0f 59 d7	 mulsd	 xmm2, xmm7
$LN38@Find_Bull_:

; 2027 : 											pHighLowPtData3->m_nDataSeq, pHighLowPtData3->m_dLow);	// 1-3
; 2028 : 			
; 2029 : 			dGradient2 = GetModifyGradient(	pHighLowPtData3->m_nDataSeq, pHighLowPtData3->m_dLow, 

  0018a	8b 55 fc	 mov	 edx, DWORD PTR _pHighLowPtData5$1$[ebp]

; 2456 : 	double	dGradient=0;

  0018d	0f 28 c8	 movaps	 xmm1, xmm0
  00190	66 0f 6e 5a 08	 movd	 xmm3, DWORD PTR [edx+8]

; 2027 : 											pHighLowPtData3->m_nDataSeq, pHighLowPtData3->m_dLow);	// 1-3
; 2028 : 			
; 2029 : 			dGradient2 = GetModifyGradient(	pHighLowPtData3->m_nDataSeq, pHighLowPtData3->m_dLow, 

  00195	f3 0f e6 db	 cvtdq2pd xmm3, xmm3

; 2458 : 	if( (dXPos2 - dXPos1) != 0 && (dYPos1 != 0))

  00199	f2 0f 5c dc	 subsd	 xmm3, xmm4
  0019d	66 0f 2e d8	 ucomisd xmm3, xmm0
  001a1	f2 0f 11 5d 9c	 movsd	 QWORD PTR tv1320[ebp], xmm3
  001a6	9f		 lahf
  001a7	f6 c4 44	 test	 ah, 68			; 00000044H
  001aa	7b 1f		 jnp	 SHORT $LN41@Find_Bull_
  001ac	66 0f 2e f0	 ucomisd xmm6, xmm0
  001b0	9f		 lahf
  001b1	f6 c4 44	 test	 ah, 68			; 00000044H
  001b4	7b 15		 jnp	 SHORT $LN41@Find_Bull_

; 2459 : 	{
; 2460 : 		dGradient = (dYPos2 - dYPos1) / dYPos1 / (dXPos2 - dXPos1) * 100;

  001b6	f2 0f 10 4a 28	 movsd	 xmm1, QWORD PTR [edx+40]
  001bb	f2 0f 5c ce	 subsd	 xmm1, xmm6
  001bf	f2 0f 5e ce	 divsd	 xmm1, xmm6
  001c3	f2 0f 5e cb	 divsd	 xmm1, xmm3
  001c7	f2 0f 59 cf	 mulsd	 xmm1, xmm7
$LN41@Find_Bull_:

; 2030 : 											pHighLowPtData5->m_nDataSeq, pHighLowPtData5->m_dLow);	// 3-5
; 2031 : 			
; 2032 : 			dGradient3 = GetModifyGradient( pHighLowPtData2->m_nDataSeq, pHighLowPtData2->m_dHigh, 

  001cb	8b 45 f4	 mov	 eax, DWORD PTR _pHighLowPtData2$1$[ebp]
  001ce	66 0f 6e 67 08	 movd	 xmm4, DWORD PTR [edi+8]
  001d3	f3 0f e6 e4	 cvtdq2pd xmm4, xmm4
  001d7	8b 50 08	 mov	 edx, DWORD PTR [eax+8]
  001da	89 55 ec	 mov	 DWORD PTR tv1399[ebp], edx
  001dd	f2 0f 10 78 20	 movsd	 xmm7, QWORD PTR [eax+32]
  001e2	66 0f 6e da	 movd	 xmm3, edx
  001e6	f3 0f e6 db	 cvtdq2pd xmm3, xmm3
  001ea	f2 0f 11 65 ac	 movsd	 QWORD PTR tv1377[ebp], xmm4
  001ef	f2 0f 11 5d d4	 movsd	 QWORD PTR tv1375[ebp], xmm3

; 2456 : 	double	dGradient=0;

  001f4	0f 28 d8	 movaps	 xmm3, xmm0

; 2457 : 
; 2458 : 	if( (dXPos2 - dXPos1) != 0 && (dYPos1 != 0))

  001f7	f2 0f 5c 65 d4	 subsd	 xmm4, QWORD PTR tv1375[ebp]
  001fc	66 0f 2e e0	 ucomisd xmm4, xmm0
  00200	f2 0f 11 65 a4	 movsd	 QWORD PTR tv1317[ebp], xmm4
  00205	9f		 lahf
  00206	f6 c4 44	 test	 ah, 68			; 00000044H
  00209	7b 21		 jnp	 SHORT $LN44@Find_Bull_
  0020b	66 0f 2e f8	 ucomisd xmm7, xmm0
  0020f	9f		 lahf
  00210	f6 c4 44	 test	 ah, 68			; 00000044H
  00213	7b 17		 jnp	 SHORT $LN44@Find_Bull_

; 2459 : 	{
; 2460 : 		dGradient = (dYPos2 - dYPos1) / dYPos1 / (dXPos2 - dXPos1) * 100;

  00215	0f 28 dd	 movaps	 xmm3, xmm5
  00218	f2 0f 5c df	 subsd	 xmm3, xmm7
  0021c	f2 0f 5e df	 divsd	 xmm3, xmm7
  00220	f2 0f 5e dc	 divsd	 xmm3, xmm4
  00224	f2 0f 59 1d 00
	00 00 00	 mulsd	 xmm3, QWORD PTR __real@4059000000000000
$LN44@Find_Bull_:

; 2033 : 											pHighLowPtData4->m_nDataSeq, pHighLowPtData4->m_dHigh);	// 2-4
; 2034 : 
; 2035 : 			dGradient4 = GetModifyGradient( pHighLowPtData4->m_nDataSeq, pHighLowPtData4->m_dHigh, 

  0022c	8b 55 e8	 mov	 edx, DWORD PTR _pHighLowPtData6$1$[ebp]

; 2456 : 	double	dGradient=0;

  0022f	0f 28 e0	 movaps	 xmm4, xmm0
  00232	66 0f 6e 72 08	 movd	 xmm6, DWORD PTR [edx+8]

; 2033 : 											pHighLowPtData4->m_nDataSeq, pHighLowPtData4->m_dHigh);	// 2-4
; 2034 : 
; 2035 : 			dGradient4 = GetModifyGradient( pHighLowPtData4->m_nDataSeq, pHighLowPtData4->m_dHigh, 

  00237	f3 0f e6 f6	 cvtdq2pd xmm6, xmm6

; 2458 : 	if( (dXPos2 - dXPos1) != 0 && (dYPos1 != 0))

  0023b	f2 0f 5c 75 ac	 subsd	 xmm6, QWORD PTR tv1377[ebp]
  00240	66 0f 2e f0	 ucomisd xmm6, xmm0
  00244	f2 0f 11 75 ac	 movsd	 QWORD PTR tv1304[ebp], xmm6
  00249	f2 0f 10 71 28	 movsd	 xmm6, QWORD PTR [ecx+40]
  0024e	9f		 lahf
  0024f	f6 c4 44	 test	 ah, 68			; 00000044H
  00252	7b 24		 jnp	 SHORT $LN47@Find_Bull_
  00254	66 0f 2e e8	 ucomisd xmm5, xmm0
  00258	9f		 lahf
  00259	f6 c4 44	 test	 ah, 68			; 00000044H
  0025c	7b 1a		 jnp	 SHORT $LN47@Find_Bull_

; 2459 : 	{
; 2460 : 		dGradient = (dYPos2 - dYPos1) / dYPos1 / (dXPos2 - dXPos1) * 100;

  0025e	f2 0f 10 62 20	 movsd	 xmm4, QWORD PTR [edx+32]
  00263	f2 0f 5c e5	 subsd	 xmm4, xmm5
  00267	f2 0f 5e e5	 divsd	 xmm4, xmm5
  0026b	f2 0f 5e 65 ac	 divsd	 xmm4, QWORD PTR tv1304[ebp]
  00270	f2 0f 59 25 00
	00 00 00	 mulsd	 xmm4, QWORD PTR __real@4059000000000000
$LN47@Find_Bull_:

; 2036 : 											pHighLowPtData6->m_nDataSeq, pHighLowPtData6->m_dHigh);	// 4-6
; 2037 : 
; 2038 : 			if ( fabs(dGradient3) <= 0.3 && fabs(dGradient2) <= 0.3 && (fabs(fabs(dGradient3)-fabs(dGradient2)) <= 0.3) )

  00278	f2 0f 10 05 00
	00 00 00	 movsd	 xmm0, QWORD PTR __real@3fd3333333333333
  00280	0f 28 eb	 movaps	 xmm5, xmm3
  00283	0f 54 2d 00 00
	00 00		 andps	 xmm5, QWORD PTR __xmm@7fffffffffffffff7fffffffffffffff
  0028a	66 0f 2f c5	 comisd	 xmm0, xmm5
  0028e	0f 57 c0	 xorps	 xmm0, xmm0
  00291	0f 82 e5 02 00
	00		 jb	 $LN2@Find_Bull_
  00297	8b 45 f4	 mov	 eax, DWORD PTR _pHighLowPtData2$1$[ebp]
  0029a	0f 28 c1	 movaps	 xmm0, xmm1
  0029d	0f 54 05 00 00
	00 00		 andps	 xmm0, QWORD PTR __xmm@7fffffffffffffff7fffffffffffffff
  002a4	f2 0f 10 3d 00
	00 00 00	 movsd	 xmm7, QWORD PTR __real@3fd3333333333333
  002ac	66 0f 2f f8	 comisd	 xmm7, xmm0
  002b0	f2 0f 10 78 20	 movsd	 xmm7, QWORD PTR [eax+32]
  002b5	f2 0f 11 45 ac	 movsd	 QWORD PTR tv1383[ebp], xmm0
  002ba	0f 57 c0	 xorps	 xmm0, xmm0
  002bd	0f 82 b9 02 00
	00		 jb	 $LN2@Find_Bull_
  002c3	f2 0f 5c 6d ac	 subsd	 xmm5, QWORD PTR tv1383[ebp]
  002c8	f2 0f 10 05 00
	00 00 00	 movsd	 xmm0, QWORD PTR __real@3fd3333333333333
  002d0	0f 54 2d 00 00
	00 00		 andps	 xmm5, QWORD PTR __xmm@7fffffffffffffff7fffffffffffffff
  002d7	66 0f 2f c5	 comisd	 xmm0, xmm5
  002db	0f 57 c0	 xorps	 xmm0, xmm0
  002de	0f 82 98 02 00
	00		 jb	 $LN2@Find_Bull_

; 2039 : 			{
; 2040 : 				if ( dGradient1 > dGradient2 && dGradient3 < dGradient4)

  002e4	66 0f 2f d1	 comisd	 xmm2, xmm1
  002e8	0f 86 8e 02 00
	00		 jbe	 $LN2@Find_Bull_
  002ee	66 0f 2f e3	 comisd	 xmm4, xmm3
  002f2	0f 86 84 02 00
	00		 jbe	 $LN2@Find_Bull_

; 2446 : 	if( (dXPos2 - dXPos1) != 0)

  002f8	f2 0f 10 4d a4	 movsd	 xmm1, QWORD PTR tv1317[ebp]
  002fd	0f 57 db	 xorps	 xmm3, xmm3
  00300	66 0f 2e c8	 ucomisd xmm1, xmm0
  00304	9f		 lahf
  00305	f6 c4 44	 test	 ah, 68			; 00000044H
  00308	7b 0d		 jnp	 SHORT $LN50@Find_Bull_

; 2447 : 	{
; 2448 : 		dGradient = (dYPos2 - dYPos1) / (dXPos2 - dXPos1);

  0030a	f2 0f 10 5f 20	 movsd	 xmm3, QWORD PTR [edi+32]
  0030f	f2 0f 5c df	 subsd	 xmm3, xmm7
  00313	f2 0f 5e d9	 divsd	 xmm3, xmm1
$LN50@Find_Bull_:

; 2446 : 	if( (dXPos2 - dXPos1) != 0)

  00317	f2 0f 10 55 9c	 movsd	 xmm2, QWORD PTR tv1320[ebp]
  0031c	0f 57 c9	 xorps	 xmm1, xmm1
  0031f	8b 7d fc	 mov	 edi, DWORD PTR _pHighLowPtData5$1$[ebp]
  00322	66 0f 2e d0	 ucomisd xmm2, xmm0
  00326	9f		 lahf
  00327	f6 c4 44	 test	 ah, 68			; 00000044H
  0032a	7b 0d		 jnp	 SHORT $LN68@Find_Bull_

; 2447 : 	{
; 2448 : 		dGradient = (dYPos2 - dYPos1) / (dXPos2 - dXPos1);

  0032c	f2 0f 10 4f 28	 movsd	 xmm1, QWORD PTR [edi+40]
  00331	f2 0f 5c ce	 subsd	 xmm1, xmm6
  00335	f2 0f 5e ca	 divsd	 xmm1, xmm2
$LN68@Find_Bull_:

; 2041 : 				{
; 2042 : 					double dGradA, dGradB, dGradA_L, dGradB_L;
; 2043 : 					double dYDrawPt1_1, dYDrawPt1_2;
; 2044 : 					double dYDrawPt2_1, dYDrawPt2_2;
; 2045 : 					double dXNeckPt1, dYNeckPt1;
; 2046 : 					double dXNeckPt2, dYNeckPt2;
; 2047 : 					double dNeckBaseYPt1, dNeckBaseYPt2;
; 2048 : 
; 2049 : 					dGradA = GetGradient(	pHighLowPtData2->m_nDataSeq, pHighLowPtData2->m_dHigh, 
; 2050 : 											pHighLowPtData4->m_nDataSeq, pHighLowPtData4->m_dHigh);	// 2-4
; 2051 : 
; 2052 : 					dGradB = GetGradient(	pHighLowPtData3->m_nDataSeq, pHighLowPtData3->m_dLow, 
; 2053 : 											pHighLowPtData5->m_nDataSeq, pHighLowPtData5->m_dLow);	// 3-5
; 2054 : 
; 2055 : 					// First Draw Data
; 2056 : 					dYDrawPt1_1 = dGradA * (pHighLowPtData1->m_nDataSeq - pHighLowPtData2->m_nDataSeq) + pHighLowPtData2->m_dHigh;

  00339	8b 45 f8	 mov	 eax, DWORD PTR tv1401[ebp]
  0033c	0f 57 e4	 xorps	 xmm4, xmm4
  0033f	2b 45 ec	 sub	 eax, DWORD PTR tv1399[ebp]
  00342	66 0f 6e 6f 08	 movd	 xmm5, DWORD PTR [edi+8]

; 2446 : 	if( (dXPos2 - dXPos1) != 0)

  00347	f3 0f e6 ed	 cvtdq2pd xmm5, xmm5
  0034b	66 0f 6e d0	 movd	 xmm2, eax

; 2057 : 					dYDrawPt1_2 = dGradA * (pHighLowPtData6->m_nDataSeq - pHighLowPtData2->m_nDataSeq) + pHighLowPtData2->m_dHigh;

  0034f	8b 42 08	 mov	 eax, DWORD PTR [edx+8]
  00352	2b 45 ec	 sub	 eax, DWORD PTR tv1399[ebp]
  00355	f3 0f e6 d2	 cvtdq2pd xmm2, xmm2
  00359	f2 0f 59 d3	 mulsd	 xmm2, xmm3
  0035d	f2 0f 58 d7	 addsd	 xmm2, xmm7
  00361	f2 0f 11 55 f0	 movsd	 QWORD PTR _dYDrawPt1_1$1$[ebp], xmm2
  00366	66 0f 6e d0	 movd	 xmm2, eax

; 2058 : 
; 2059 : 					// Second Draw Data
; 2060 : 					dYDrawPt2_1 = dGradB * (pHighLowPtData1->m_nDataSeq - pHighLowPtData3->m_nDataSeq) + pHighLowPtData3->m_dLow;

  0036a	8b 45 f8	 mov	 eax, DWORD PTR tv1401[ebp]
  0036d	2b 41 08	 sub	 eax, DWORD PTR [ecx+8]
  00370	f3 0f e6 d2	 cvtdq2pd xmm2, xmm2
  00374	f2 0f 59 d3	 mulsd	 xmm2, xmm3
  00378	f2 0f 58 d7	 addsd	 xmm2, xmm7
  0037c	f2 0f 11 55 e4	 movsd	 QWORD PTR _dYDrawPt1_2$1$[ebp], xmm2
  00381	66 0f 6e d0	 movd	 xmm2, eax

; 2061 : 					dYDrawPt2_2 = dGradB * (pHighLowPtData6->m_nDataSeq - pHighLowPtData3->m_nDataSeq) + pHighLowPtData3->m_dLow;

  00385	8b 42 08	 mov	 eax, DWORD PTR [edx+8]
  00388	2b 41 08	 sub	 eax, DWORD PTR [ecx+8]
  0038b	f3 0f e6 d2	 cvtdq2pd xmm2, xmm2
  0038f	f2 0f 59 d1	 mulsd	 xmm2, xmm1
  00393	f2 0f 58 d6	 addsd	 xmm2, xmm6
  00397	f2 0f 11 55 ac	 movsd	 QWORD PTR _dYDrawPt2_1$1$[ebp], xmm2
  0039c	66 0f 6e d0	 movd	 xmm2, eax
  003a0	f3 0f e6 d2	 cvtdq2pd xmm2, xmm2
  003a4	f2 0f 59 d1	 mulsd	 xmm2, xmm1
  003a8	f2 0f 58 d6	 addsd	 xmm2, xmm6
  003ac	f2 0f 11 55 a4	 movsd	 QWORD PTR _dYDrawPt2_2$1$[ebp], xmm2
  003b1	66 0f 6e 52 08	 movd	 xmm2, DWORD PTR [edx+8]

; 2446 : 	if( (dXPos2 - dXPos1) != 0)

  003b6	f3 0f e6 d2	 cvtdq2pd xmm2, xmm2
  003ba	f2 0f 5c d5	 subsd	 xmm2, xmm5
  003be	66 0f 2e d0	 ucomisd xmm2, xmm0
  003c2	9f		 lahf
  003c3	f6 c4 44	 test	 ah, 68			; 00000044H
  003c6	7b 0e		 jnp	 SHORT $LN69@Find_Bull_

; 2447 : 	{
; 2448 : 		dGradient = (dYPos2 - dYPos1) / (dXPos2 - dXPos1);

  003c8	f2 0f 10 62 20	 movsd	 xmm4, QWORD PTR [edx+32]
  003cd	f2 0f 5c 67 28	 subsd	 xmm4, QWORD PTR [edi+40]
  003d2	f2 0f 5e e2	 divsd	 xmm4, xmm2
$LN69@Find_Bull_:

; 2446 : 	if( (dXPos2 - dXPos1) != 0)

  003d6	f2 0f 10 6d d4	 movsd	 xmm5, QWORD PTR tv1375[ebp]
  003db	0f 57 d2	 xorps	 xmm2, xmm2
  003de	f2 0f 5c 6d bc	 subsd	 xmm5, QWORD PTR tv1364[ebp]
  003e3	66 0f 2e e8	 ucomisd xmm5, xmm0
  003e7	f2 0f 11 6d 9c	 movsd	 QWORD PTR tv1336[ebp], xmm5
  003ec	f2 0f 10 6d b4	 movsd	 xmm5, QWORD PTR _dYPos1$1$[ebp]
  003f1	9f		 lahf
  003f2	f6 c4 44	 test	 ah, 68			; 00000044H
  003f5	7b 0c		 jnp	 SHORT $LN65@Find_Bull_

; 2447 : 	{
; 2448 : 		dGradient = (dYPos2 - dYPos1) / (dXPos2 - dXPos1);

  003f7	0f 28 d7	 movaps	 xmm2, xmm7
  003fa	f2 0f 5c d5	 subsd	 xmm2, xmm5
  003fe	f2 0f 5e 55 9c	 divsd	 xmm2, QWORD PTR tv1336[ebp]
$LN65@Find_Bull_:

; 2062 : 
; 2063 : 					dGradA_L = GetGradient(	pHighLowPtData5->m_nDataSeq, pHighLowPtData5->m_dLow, 
; 2064 : 											pHighLowPtData6->m_nDataSeq, pHighLowPtData6->m_dHigh);	// 5-6
; 2065 : 
; 2066 : 					dGradB_L = GetGradient(	pHighLowPtData1->m_nDataSeq, pHighLowPtData1->m_dLow, 
; 2067 : 											pHighLowPtData2->m_nDataSeq, pHighLowPtData2->m_dHigh);	// 1-2
; 2068 : 
; 2069 : 					// First Neck Data
; 2070 : 					if ( (dGradB - dGradB_L) != 0)

  00403	0f 28 f1	 movaps	 xmm6, xmm1
  00406	f2 0f 5c f2	 subsd	 xmm6, xmm2
  0040a	66 0f 2e f0	 ucomisd xmm6, xmm0
  0040e	f2 0f 11 75 9c	 movsd	 QWORD PTR tv1339[ebp], xmm6
  00413	f2 0f 10 71 28	 movsd	 xmm6, QWORD PTR [ecx+40]
  00418	9f		 lahf
  00419	f6 c4 44	 test	 ah, 68			; 00000044H
  0041c	7b 43		 jnp	 SHORT $LN15@Find_Bull_

; 2071 : 					{
; 2072 : 						dXNeckPt1 = ( ( pHighLowPtData1->m_dLow - pHighLowPtData3->m_dLow) + 

  0041e	f2 0f 59 55 bc	 mulsd	 xmm2, QWORD PTR tv1364[ebp]
  00423	f2 0f 5c ee	 subsd	 xmm5, xmm6
  00427	0f 28 c1	 movaps	 xmm0, xmm1
  0042a	f2 0f 59 45 c4	 mulsd	 xmm0, QWORD PTR tv1370[ebp]
  0042f	f2 0f 58 c5	 addsd	 xmm0, xmm5
  00433	0f 28 e8	 movaps	 xmm5, xmm0
  00436	f2 0f 11 45 cc	 movsd	 QWORD PTR _dXNeckPt1$4[ebp], xmm0
  0043b	f2 0f 5c ea	 subsd	 xmm5, xmm2
  0043f	f2 0f 5e 6d 9c	 divsd	 xmm5, QWORD PTR tv1339[ebp]

; 2073 : 										dGradB*pHighLowPtData3->m_nDataSeq - dGradB_L*pHighLowPtData1->m_nDataSeq ) / ( dGradB-dGradB_L);
; 2074 : 						dYNeckPt1 = dGradB*(dXNeckPt1-pHighLowPtData3->m_nDataSeq) + pHighLowPtData3->m_dLow;

  00444	0f 28 c5	 movaps	 xmm0, xmm5
  00447	f2 0f 11 6d cc	 movsd	 QWORD PTR _dXNeckPt1$4[ebp], xmm5
  0044c	f2 0f 5c 45 c4	 subsd	 xmm0, QWORD PTR tv1370[ebp]
  00451	f2 0f 59 c1	 mulsd	 xmm0, xmm1
  00455	f2 0f 58 c6	 addsd	 xmm0, xmm6
  00459	f2 0f 11 45 84	 movsd	 QWORD PTR _dYNeckPt1$1[ebp], xmm0
  0045e	0f 57 c0	 xorps	 xmm0, xmm0
$LN15@Find_Bull_:

; 2075 : 					}
; 2076 : 					// Second Neck Data
; 2077 : 					if ( (dGradA - dGradA_L) != 0)

  00461	0f 28 d3	 movaps	 xmm2, xmm3
  00464	f2 0f 5c d4	 subsd	 xmm2, xmm4
  00468	66 0f 2e d0	 ucomisd xmm2, xmm0
  0046c	9f		 lahf
  0046d	f6 c4 44	 test	 ah, 68			; 00000044H
  00470	7b 45		 jnp	 SHORT $LN71@Find_Bull_

; 2078 : 					{
; 2079 : 						dXNeckPt2 = ( ( pHighLowPtData5->m_dLow - pHighLowPtData2->m_dHigh) + 

  00472	f2 0f 10 6f 28	 movsd	 xmm5, QWORD PTR [edi+40]
  00477	0f 28 c3	 movaps	 xmm0, xmm3
  0047a	f2 0f 59 45 d4	 mulsd	 xmm0, QWORD PTR tv1375[ebp]
  0047f	f2 0f 5c ef	 subsd	 xmm5, xmm7
  00483	f2 0f 58 e8	 addsd	 xmm5, xmm0
  00487	0f 57 c0	 xorps	 xmm0, xmm0
  0048a	f2 0f 2a 47 08	 cvtsi2sd xmm0, DWORD PTR [edi+8]
  0048f	f2 0f 59 e0	 mulsd	 xmm4, xmm0
  00493	f2 0f 5c ec	 subsd	 xmm5, xmm4
  00497	f2 0f 5e ea	 divsd	 xmm5, xmm2

; 2080 : 										dGradA*pHighLowPtData2->m_nDataSeq - dGradA_L*pHighLowPtData5->m_nDataSeq ) / ( dGradA-dGradA_L);
; 2081 : 						dYNeckPt2 = dGradA*(dXNeckPt2-pHighLowPtData2->m_nDataSeq) + pHighLowPtData2->m_dHigh;

  0049b	0f 28 c5	 movaps	 xmm0, xmm5
  0049e	f2 0f 11 6d 94	 movsd	 QWORD PTR _dXNeckPt2$3[ebp], xmm5
  004a3	f2 0f 5c 45 d4	 subsd	 xmm0, QWORD PTR tv1375[ebp]
  004a8	f2 0f 59 c3	 mulsd	 xmm0, xmm3
  004ac	f2 0f 58 c7	 addsd	 xmm0, xmm7
  004b0	f2 0f 11 45 8c	 movsd	 QWORD PTR _dYNeckPt2$2[ebp], xmm0
  004b5	eb 05		 jmp	 SHORT $LN16@Find_Bull_
$LN71@Find_Bull_:

; 2075 : 					}
; 2076 : 					// Second Neck Data
; 2077 : 					if ( (dGradA - dGradA_L) != 0)

  004b7	f2 0f 10 6d 94	 movsd	 xmm5, QWORD PTR _dXNeckPt2$3[ebp]
$LN16@Find_Bull_:

; 2082 : 					}
; 2083 : 
; 2084 : 					// Neck Base Data1
; 2085 : 					dNeckBaseYPt1 = dGradB * (dXNeckPt1 - pHighLowPtData3->m_nDataSeq) + pHighLowPtData3->m_dLow;
; 2086 : 					// Neck Base Data2
; 2087 : 					dNeckBaseYPt2 = dGradA * (dXNeckPt1 - pHighLowPtData2->m_nDataSeq) + pHighLowPtData2->m_dHigh;

  004bc	f2 0f 10 55 cc	 movsd	 xmm2, QWORD PTR _dXNeckPt1$4[ebp]

; 2088 : 
; 2089 : 
; 2090 : 					AddNewWavePatternData(	pObjWavePatternData,

  004c1	83 ec 70	 sub	 esp, 112		; 00000070H
  004c4	0f 28 c2	 movaps	 xmm0, xmm2
  004c7	8b 42 08	 mov	 eax, DWORD PTR [edx+8]
  004ca	f2 0f 5c 45 d4	 subsd	 xmm0, QWORD PTR tv1375[ebp]
  004cf	8b 4d e0	 mov	 ecx, DWORD PTR _this$1$[ebp]
  004d2	f2 0f 59 c3	 mulsd	 xmm0, xmm3
  004d6	f2 0f 58 c7	 addsd	 xmm0, xmm7
  004da	f2 0f 11 44 24
	68		 movsd	 QWORD PTR [esp+104], xmm0
  004e0	0f 28 c2	 movaps	 xmm0, xmm2
  004e3	f2 0f 5c 45 c4	 subsd	 xmm0, QWORD PTR tv1370[ebp]
  004e8	f2 0f 59 c1	 mulsd	 xmm0, xmm1
  004ec	f2 0f 10 4d bc	 movsd	 xmm1, QWORD PTR tv1364[ebp]
  004f1	f2 0f 58 c6	 addsd	 xmm0, xmm6
  004f5	f2 0f 11 44 24
	60		 movsd	 QWORD PTR [esp+96], xmm0
  004fb	f2 0f 10 45 8c	 movsd	 xmm0, QWORD PTR _dYNeckPt2$2[ebp]
  00500	f2 0f 11 44 24
	58		 movsd	 QWORD PTR [esp+88], xmm0
  00506	f2 0f 10 45 84	 movsd	 xmm0, QWORD PTR _dYNeckPt1$1[ebp]
  0050b	f2 0f 11 6c 24
	50		 movsd	 QWORD PTR [esp+80], xmm5
  00511	f2 0f 11 44 24
	48		 movsd	 QWORD PTR [esp+72], xmm0
  00517	f2 0f 10 45 a4	 movsd	 xmm0, QWORD PTR _dYDrawPt2_2$1$[ebp]
  0051c	f2 0f 11 54 24
	40		 movsd	 QWORD PTR [esp+64], xmm2
  00522	f2 0f 11 44 24
	38		 movsd	 QWORD PTR [esp+56], xmm0
  00528	f2 0f 10 45 ac	 movsd	 xmm0, QWORD PTR _dYDrawPt2_1$1$[ebp]
  0052d	66 0f 6e d0	 movd	 xmm2, eax
  00531	f3 0f e6 d2	 cvtdq2pd xmm2, xmm2
  00535	f2 0f 11 54 24
	30		 movsd	 QWORD PTR [esp+48], xmm2
  0053b	f2 0f 11 44 24
	28		 movsd	 QWORD PTR [esp+40], xmm0
  00541	f2 0f 10 45 e4	 movsd	 xmm0, QWORD PTR _dYDrawPt1_2$1$[ebp]
  00546	f2 0f 11 4c 24
	20		 movsd	 QWORD PTR [esp+32], xmm1
  0054c	f2 0f 11 44 24
	18		 movsd	 QWORD PTR [esp+24], xmm0
  00552	f2 0f 10 45 f0	 movsd	 xmm0, QWORD PTR _dYDrawPt1_1$1$[ebp]
  00557	f2 0f 11 54 24
	10		 movsd	 QWORD PTR [esp+16], xmm2
  0055d	f2 0f 11 44 24
	08		 movsd	 QWORD PTR [esp+8], xmm0
  00563	f2 0f 11 0c 24	 movsd	 QWORD PTR [esp], xmm1
  00568	50		 push	 eax
  00569	ff 75 f8	 push	 DWORD PTR tv1401[ebp]
  0056c	68 b1 0f 00 00	 push	 4017			; 00000fb1H
  00571	ff 75 0c	 push	 DWORD PTR _pObjWavePatternData$[ebp]
  00574	e8 00 00 00 00	 call	 ?AddNewWavePatternData@CWavePattern@@QAEXPAVCObject@@HHHNNNNNNNNNNNNNN@Z ; CWavePattern::AddNewWavePatternData
  00579	0f 57 c0	 xorps	 xmm0, xmm0
$LN2@Find_Bull_:

; 2012 : 
; 2013 : 	for(int i = 0; i <= nPointCnt-nMininumData; i++)

  0057c	8b 55 08	 mov	 edx, DWORD PTR _pObjHighLowPtData$[ebp]
  0057f	46		 inc	 esi
  00580	8d 46 fe	 lea	 eax, DWORD PTR [esi-2]
  00583	3b 45 dc	 cmp	 eax, DWORD PTR $T5[ebp]
  00586	0f 8e 99 fa ff
	ff		 jle	 $LL4@Find_Bull_
  0058c	5f		 pop	 edi
  0058d	5e		 pop	 esi
$LN3@Find_Bull_:

; 2091 : 											PTN_BULL_RECTANGLE,				pHighLowPtData1->m_nDataSeq,	pHighLowPtData6->m_nDataSeq,		
; 2092 : 											pHighLowPtData1->m_nDataSeq,	dYDrawPt1_1,					pHighLowPtData6->m_nDataSeq,	dYDrawPt1_2,
; 2093 : 											pHighLowPtData1->m_nDataSeq,	dYDrawPt2_1,					pHighLowPtData6->m_nDataSeq,	dYDrawPt2_2,
; 2094 : 											dXNeckPt1,						dYNeckPt1,						dXNeckPt2,						dYNeckPt2,
; 2095 : 											dNeckBaseYPt1,					dNeckBaseYPt2	);
; 2096 : 
; 2097 : 				}
; 2098 : 			}
; 2099 : 		}
; 2100 : 	}
; 2101 : 
; 2102 : 	return TRUE;

  0058e	b8 01 00 00 00	 mov	 eax, 1

; 2103 : }

  00593	8b e5		 mov	 esp, ebp
  00595	5d		 pop	 ebp
  00596	c2 08 00	 ret	 8
$LN19@Find_Bull_:
; File C:\Program Files (x86)\Microsoft Visual Studio\2019\Community\VC\Tools\MSVC\14.29.30133\atlmfc\include\afxtempl.h

; 290  : 	AfxThrowInvalidArgException();

  00599	e8 00 00 00 00	 call	 ?AfxThrowInvalidArgException@@YGXXZ ; AfxThrowInvalidArgException
$LN75@Find_Bull_:
  0059e	cc		 int	 3
?Find_Bull_Rectangle@CWavePattern@@QAEHPAVCObject@@0@Z ENDP ; CWavePattern::Find_Bull_Rectangle
_TEXT	ENDS
; Function compile flags: /Ogtp
; File D:\git\src\IBK\IBK_DRFN\ProjSrc\SrcChartEx\ChartAddIn\ChartPatternAddIn\WavePattern.cpp
; File C:\Program Files (x86)\Microsoft Visual Studio\2019\Community\VC\Tools\MSVC\14.29.30133\atlmfc\include\afxtempl.h
; File D:\git\src\IBK\IBK_DRFN\ProjSrc\SrcChartEx\ChartAddIn\ChartPatternAddIn\WavePattern.cpp
; File C:\Program Files (x86)\Microsoft Visual Studio\2019\Community\VC\Tools\MSVC\14.29.30133\atlmfc\include\afxtempl.h
; File D:\git\src\IBK\IBK_DRFN\ProjSrc\SrcChartEx\ChartAddIn\ChartPatternAddIn\WavePattern.cpp
; File C:\Program Files (x86)\Microsoft Visual Studio\2019\Community\VC\Tools\MSVC\14.29.30133\atlmfc\include\afxtempl.h
; File D:\git\src\IBK\IBK_DRFN\ProjSrc\SrcChartEx\ChartAddIn\ChartPatternAddIn\WavePattern.cpp
; File C:\Program Files (x86)\Microsoft Visual Studio\2019\Community\VC\Tools\MSVC\14.29.30133\atlmfc\include\afxtempl.h
; File D:\git\src\IBK\IBK_DRFN\ProjSrc\SrcChartEx\ChartAddIn\ChartPatternAddIn\WavePattern.cpp
; File C:\Program Files (x86)\Microsoft Visual Studio\2019\Community\VC\Tools\MSVC\14.29.30133\atlmfc\include\afxtempl.h
; File D:\git\src\IBK\IBK_DRFN\ProjSrc\SrcChartEx\ChartAddIn\ChartPatternAddIn\WavePattern.cpp
; File C:\Program Files (x86)\Microsoft Visual Studio\2019\Community\VC\Tools\MSVC\14.29.30133\atlmfc\include\afxtempl.h
; File D:\git\src\IBK\IBK_DRFN\ProjSrc\SrcChartEx\ChartAddIn\ChartPatternAddIn\WavePattern.cpp
; File C:\Program Files (x86)\Microsoft Visual Studio\2019\Community\VC\Tools\MSVC\14.29.30133\atlmfc\include\afxtempl.h
; File D:\git\src\IBK\IBK_DRFN\ProjSrc\SrcChartEx\ChartAddIn\ChartPatternAddIn\WavePattern.cpp
;	COMDAT ?Find_Bear_TriangleFlag@CWavePattern@@QAEHPAVCObject@@0@Z
_TEXT	SEGMENT
_dYCrossPt1$1 = -116					; size = 8
_dYNeckPt2$2 = -108					; size = 8
_dXNeckPt2$3 = -100					; size = 8
_dXCrossPt1$4 = -92					; size = 8
_dYDrawPt2_1$1$ = -84					; size = 8
tv1283 = -84						; size = 8
_dYDrawPt1_1$1$ = -76					; size = 8
tv1278 = -76						; size = 8
tv1274 = -68						; size = 8
tv1363 = -60						; size = 8
tv1263 = -60						; size = 8
_dYPos1$1$ = -52					; size = 8
tv1354 = -44						; size = 8
tv1373 = -36						; size = 8
$T5 = -28						; size = 4
_this$1$ = -24						; size = 4
tv1387 = -20						; size = 4
tv1386 = -16						; size = 4
_pHighLowPtData1$1$ = -16				; size = 4
tv1389 = -12						; size = 4
_pHighLowPtData4$1$ = -12				; size = 4
_pHighLowPtData2$1$ = -8				; size = 4
_pHighLowPtData5$1$ = -4				; size = 4
_pObjHighLowPtData$ = 8					; size = 4
_pObjWavePatternData$ = 12				; size = 4
?Find_Bear_TriangleFlag@CWavePattern@@QAEHPAVCObject@@0@Z PROC ; CWavePattern::Find_Bear_TriangleFlag, COMDAT
; _this$ = ecx

; 1890 : {

  00000	55		 push	 ebp
  00001	8b ec		 mov	 ebp, esp
  00003	83 ec 74	 sub	 esp, 116		; 00000074H

; 1901 : 
; 1902 : 	for(int i = 0; i <= nPointCnt-nMininumData; i++)

  00006	8b 55 08	 mov	 edx, DWORD PTR _pObjHighLowPtData$[ebp]
  00009	89 4d e8	 mov	 DWORD PTR _this$1$[ebp], ecx
  0000c	8b 42 08	 mov	 eax, DWORD PTR [edx+8]
  0000f	83 e8 06	 sub	 eax, 6
  00012	89 45 e4	 mov	 DWORD PTR $T5[ebp], eax
  00015	0f 88 c6 04 00
	00		 js	 $LN3@Find_Bear_

; 1891 : 	CArrayObjPt(CHighLowPtData) paryHighLowPtData = (CArrayObjPt(CHighLowPtData))pObjHighLowPtData;
; 1892 : 
; 1893 : 	CHighLowPtData *pHighLowPtData1, *pHighLowPtData2, *pHighLowPtData3, *pHighLowPtData4, *pHighLowPtData5, *pHighLowPtData6;
; 1894 : 	pHighLowPtData1 = pHighLowPtData2 = pHighLowPtData3 = pHighLowPtData4 = pHighLowPtData5 = pHighLowPtData6 = NULL;
; 1895 : 	int		nPointCnt;
; 1896 : 	int		nMininumData = 6;	// Bear Triangle Flag    
; 1897 : 
; 1898 : 	double	dGradient1, dGradient2, dGradient3, dGradient4;		// 
; 1899 : 	
; 1900 : 	nPointCnt = paryHighLowPtData->GetSize();

  0001b	53		 push	 ebx
  0001c	56		 push	 esi
  0001d	57		 push	 edi
  0001e	be 02 00 00 00	 mov	 esi, 2
  00023	0f 57 db	 xorps	 xmm3, xmm3
  00026	66 66 0f 1f 84
	00 00 00 00 00	 npad	 10
$LL4@Find_Bear_:
; File C:\Program Files (x86)\Microsoft Visual Studio\2019\Community\VC\Tools\MSVC\14.29.30133\atlmfc\include\afxtempl.h

; 288  : 	if(nIndex >= 0 && nIndex < m_nSize)

  00030	8d 4e fe	 lea	 ecx, DWORD PTR [esi-2]
  00033	85 c9		 test	 ecx, ecx
  00035	0f 88 b1 04 00
	00		 js	 $LN20@Find_Bear_
  0003b	8b 42 08	 mov	 eax, DWORD PTR [edx+8]
  0003e	3b c8		 cmp	 ecx, eax
  00040	0f 8d a6 04 00
	00		 jge	 $LN20@Find_Bear_

; 289  : 		return m_pData[nIndex];

  00046	8b 4a 04	 mov	 ecx, DWORD PTR [edx+4]
; File D:\git\src\IBK\IBK_DRFN\ProjSrc\SrcChartEx\ChartAddIn\ChartPatternAddIn\WavePattern.cpp

; 1904 : 		pHighLowPtData1 = paryHighLowPtData->GetAt(i);		if ( !pHighLowPtData1 ) continue;

  00049	8b 54 b1 f8	 mov	 edx, DWORD PTR [ecx+esi*4-8]
  0004d	89 55 f0	 mov	 DWORD PTR _pHighLowPtData1$1$[ebp], edx
  00050	85 d2		 test	 edx, edx
  00052	0f 84 76 04 00
	00		 je	 $LN2@Find_Bear_

; 1905 : 		if ( pHighLowPtData1->m_nPointType != CHANGINGPT_HIGHTOLOW) continue;

  00058	81 7a 04 e9 03
	00 00		 cmp	 DWORD PTR [edx+4], 1001	; 000003e9H
  0005f	0f 85 69 04 00
	00		 jne	 $LN2@Find_Bear_
; File C:\Program Files (x86)\Microsoft Visual Studio\2019\Community\VC\Tools\MSVC\14.29.30133\atlmfc\include\afxtempl.h

; 288  : 	if(nIndex >= 0 && nIndex < m_nSize)

  00065	8d 7e ff	 lea	 edi, DWORD PTR [esi-1]
  00068	85 ff		 test	 edi, edi
  0006a	0f 88 7c 04 00
	00		 js	 $LN20@Find_Bear_
  00070	3b f8		 cmp	 edi, eax
  00072	0f 8d 74 04 00
	00		 jge	 $LN20@Find_Bear_
; File D:\git\src\IBK\IBK_DRFN\ProjSrc\SrcChartEx\ChartAddIn\ChartPatternAddIn\WavePattern.cpp

; 1907 : 		pHighLowPtData2 = paryHighLowPtData->GetAt(i+1);	if ( !pHighLowPtData2 ) continue;

  00078	8b 5c b1 fc	 mov	 ebx, DWORD PTR [ecx+esi*4-4]
  0007c	89 5d f8	 mov	 DWORD PTR _pHighLowPtData2$1$[ebp], ebx
  0007f	85 db		 test	 ebx, ebx
  00081	0f 84 47 04 00
	00		 je	 $LN2@Find_Bear_
; File C:\Program Files (x86)\Microsoft Visual Studio\2019\Community\VC\Tools\MSVC\14.29.30133\atlmfc\include\afxtempl.h

; 288  : 	if(nIndex >= 0 && nIndex < m_nSize)

  00087	85 f6		 test	 esi, esi
  00089	0f 88 5d 04 00
	00		 js	 $LN20@Find_Bear_
  0008f	3b f0		 cmp	 esi, eax
  00091	0f 8d 55 04 00
	00		 jge	 $LN20@Find_Bear_
; File D:\git\src\IBK\IBK_DRFN\ProjSrc\SrcChartEx\ChartAddIn\ChartPatternAddIn\WavePattern.cpp

; 1908 : 		pHighLowPtData3 = paryHighLowPtData->GetAt(i+2);	if ( !pHighLowPtData3 ) continue;

  00097	8b 1c b1	 mov	 ebx, DWORD PTR [ecx+esi*4]
  0009a	85 db		 test	 ebx, ebx
  0009c	0f 84 2c 04 00
	00		 je	 $LN2@Find_Bear_
; File C:\Program Files (x86)\Microsoft Visual Studio\2019\Community\VC\Tools\MSVC\14.29.30133\atlmfc\include\afxtempl.h

; 288  : 	if(nIndex >= 0 && nIndex < m_nSize)

  000a2	8d 7e 01	 lea	 edi, DWORD PTR [esi+1]
  000a5	85 ff		 test	 edi, edi
  000a7	0f 88 3f 04 00
	00		 js	 $LN20@Find_Bear_
  000ad	3b f8		 cmp	 edi, eax
  000af	0f 8d 37 04 00
	00		 jge	 $LN20@Find_Bear_
; File D:\git\src\IBK\IBK_DRFN\ProjSrc\SrcChartEx\ChartAddIn\ChartPatternAddIn\WavePattern.cpp

; 1909 : 		pHighLowPtData4 = paryHighLowPtData->GetAt(i+3);	if ( !pHighLowPtData4 ) continue;

  000b5	8b 7c b1 04	 mov	 edi, DWORD PTR [ecx+esi*4+4]
  000b9	89 7d f4	 mov	 DWORD PTR _pHighLowPtData4$1$[ebp], edi
  000bc	85 ff		 test	 edi, edi
  000be	0f 84 0a 04 00
	00		 je	 $LN2@Find_Bear_
; File C:\Program Files (x86)\Microsoft Visual Studio\2019\Community\VC\Tools\MSVC\14.29.30133\atlmfc\include\afxtempl.h

; 288  : 	if(nIndex >= 0 && nIndex < m_nSize)

  000c4	8d 7e 02	 lea	 edi, DWORD PTR [esi+2]
  000c7	85 ff		 test	 edi, edi
  000c9	0f 88 1d 04 00
	00		 js	 $LN20@Find_Bear_
  000cf	3b f8		 cmp	 edi, eax
  000d1	0f 8d 15 04 00
	00		 jge	 $LN20@Find_Bear_
; File D:\git\src\IBK\IBK_DRFN\ProjSrc\SrcChartEx\ChartAddIn\ChartPatternAddIn\WavePattern.cpp

; 1910 : 		pHighLowPtData5 = paryHighLowPtData->GetAt(i+4);	if ( !pHighLowPtData5 ) continue;

  000d7	8b 7c b1 08	 mov	 edi, DWORD PTR [ecx+esi*4+8]
  000db	89 7d fc	 mov	 DWORD PTR _pHighLowPtData5$1$[ebp], edi
  000de	85 ff		 test	 edi, edi
  000e0	0f 84 e8 03 00
	00		 je	 $LN2@Find_Bear_
; File C:\Program Files (x86)\Microsoft Visual Studio\2019\Community\VC\Tools\MSVC\14.29.30133\atlmfc\include\afxtempl.h

; 288  : 	if(nIndex >= 0 && nIndex < m_nSize)

  000e6	8d 7e 03	 lea	 edi, DWORD PTR [esi+3]
  000e9	85 ff		 test	 edi, edi
  000eb	0f 88 fb 03 00
	00		 js	 $LN20@Find_Bear_
  000f1	3b f8		 cmp	 edi, eax
  000f3	0f 8d f3 03 00
	00		 jge	 $LN20@Find_Bear_
; File D:\git\src\IBK\IBK_DRFN\ProjSrc\SrcChartEx\ChartAddIn\ChartPatternAddIn\WavePattern.cpp

; 1911 : 		pHighLowPtData6 = paryHighLowPtData->GetAt(i+5);	if ( !pHighLowPtData6 ) continue;

  000f9	8b 4c b1 0c	 mov	 ecx, DWORD PTR [ecx+esi*4+12]
  000fd	85 c9		 test	 ecx, ecx
  000ff	0f 84 c9 03 00
	00		 je	 $LN2@Find_Bear_

; 1912 : 
; 1913 : 		if ( (pHighLowPtData1->m_dHigh > pHighLowPtData3->m_dHigh) && (pHighLowPtData4->m_dLow > pHighLowPtData6->m_dLow))

  00105	f2 0f 10 52 20	 movsd	 xmm2, QWORD PTR [edx+32]
  0010a	f2 0f 10 7b 20	 movsd	 xmm7, QWORD PTR [ebx+32]
  0010f	66 0f 2f d7	 comisd	 xmm2, xmm7
  00113	0f 86 b5 03 00
	00		 jbe	 $LN2@Find_Bear_
  00119	8b 7d f4	 mov	 edi, DWORD PTR _pHighLowPtData4$1$[ebp]
  0011c	f2 0f 10 4f 28	 movsd	 xmm1, QWORD PTR [edi+40]
  00121	66 0f 2f 49 28	 comisd	 xmm1, QWORD PTR [ecx+40]
  00126	0f 86 a2 03 00
	00		 jbe	 $LN2@Find_Bear_

; 1914 : 		{
; 1915 : 			dGradient1 = GetModifyGradient( pHighLowPtData1->m_nDataSeq, pHighLowPtData1->m_dHigh, 

  0012c	8b 43 08	 mov	 eax, DWORD PTR [ebx+8]

; 2456 : 	double	dGradient=0;

  0012f	0f 28 e3	 movaps	 xmm4, xmm3
  00132	66 0f 6e 72 08	 movd	 xmm6, DWORD PTR [edx+8]

; 1914 : 		{
; 1915 : 			dGradient1 = GetModifyGradient( pHighLowPtData1->m_nDataSeq, pHighLowPtData1->m_dHigh, 

  00137	f3 0f e6 f6	 cvtdq2pd xmm6, xmm6
  0013b	89 45 f4	 mov	 DWORD PTR tv1389[ebp], eax
  0013e	66 0f 6e e8	 movd	 xmm5, eax
  00142	f3 0f e6 ed	 cvtdq2pd xmm5, xmm5

; 2458 : 	if( (dXPos2 - dXPos1) != 0 && (dYPos1 != 0))

  00146	0f 28 c5	 movaps	 xmm0, xmm5

; 1914 : 		{
; 1915 : 			dGradient1 = GetModifyGradient( pHighLowPtData1->m_nDataSeq, pHighLowPtData1->m_dHigh, 

  00149	f2 0f 11 6d d4	 movsd	 QWORD PTR tv1354[ebp], xmm5

; 2458 : 	if( (dXPos2 - dXPos1) != 0 && (dYPos1 != 0))

  0014e	f2 0f 5c c6	 subsd	 xmm0, xmm6
  00152	f2 0f 10 35 00
	00 00 00	 movsd	 xmm6, QWORD PTR __real@4059000000000000
  0015a	66 0f 2e c3	 ucomisd xmm0, xmm3
  0015e	9f		 lahf
  0015f	f6 c4 44	 test	 ah, 68			; 00000044H
  00162	7b 1d		 jnp	 SHORT $LN39@Find_Bear_
  00164	66 0f 2e d3	 ucomisd xmm2, xmm3
  00168	9f		 lahf
  00169	f6 c4 44	 test	 ah, 68			; 00000044H
  0016c	7b 13		 jnp	 SHORT $LN39@Find_Bear_

; 2459 : 	{
; 2460 : 		dGradient = (dYPos2 - dYPos1) / dYPos1 / (dXPos2 - dXPos1) * 100;

  0016e	0f 28 e7	 movaps	 xmm4, xmm7
  00171	f2 0f 5c e2	 subsd	 xmm4, xmm2
  00175	f2 0f 5e e2	 divsd	 xmm4, xmm2
  00179	f2 0f 5e e0	 divsd	 xmm4, xmm0
  0017d	f2 0f 59 e6	 mulsd	 xmm4, xmm6
$LN39@Find_Bear_:

; 1916 : 											pHighLowPtData3->m_nDataSeq, pHighLowPtData3->m_dHigh);	// 1-3
; 1917 : 			
; 1918 : 			dGradient2 = GetModifyGradient(	pHighLowPtData3->m_nDataSeq, pHighLowPtData3->m_dHigh, 

  00181	8b 45 fc	 mov	 eax, DWORD PTR _pHighLowPtData5$1$[ebp]

; 2456 : 	double	dGradient=0;

  00184	0f 28 d3	 movaps	 xmm2, xmm3
  00187	66 0f 6e 40 08	 movd	 xmm0, DWORD PTR [eax+8]

; 1916 : 											pHighLowPtData3->m_nDataSeq, pHighLowPtData3->m_dHigh);	// 1-3
; 1917 : 			
; 1918 : 			dGradient2 = GetModifyGradient(	pHighLowPtData3->m_nDataSeq, pHighLowPtData3->m_dHigh, 

  0018c	f3 0f e6 c0	 cvtdq2pd xmm0, xmm0

; 2458 : 	if( (dXPos2 - dXPos1) != 0 && (dYPos1 != 0))

  00190	f2 0f 5c c5	 subsd	 xmm0, xmm5
  00194	66 0f 2e c3	 ucomisd xmm0, xmm3
  00198	f2 0f 11 45 bc	 movsd	 QWORD PTR tv1274[ebp], xmm0
  0019d	9f		 lahf
  0019e	f6 c4 44	 test	 ah, 68			; 00000044H
  001a1	7b 22		 jnp	 SHORT $LN42@Find_Bear_
  001a3	66 0f 2e fb	 ucomisd xmm7, xmm3
  001a7	9f		 lahf
  001a8	f6 c4 44	 test	 ah, 68			; 00000044H
  001ab	7b 18		 jnp	 SHORT $LN42@Find_Bear_

; 2459 : 	{
; 2460 : 		dGradient = (dYPos2 - dYPos1) / dYPos1 / (dXPos2 - dXPos1) * 100;

  001ad	8b 45 fc	 mov	 eax, DWORD PTR _pHighLowPtData5$1$[ebp]
  001b0	f2 0f 10 50 20	 movsd	 xmm2, QWORD PTR [eax+32]
  001b5	f2 0f 5c d7	 subsd	 xmm2, xmm7
  001b9	f2 0f 5e d7	 divsd	 xmm2, xmm7
  001bd	f2 0f 5e d0	 divsd	 xmm2, xmm0
  001c1	f2 0f 59 d6	 mulsd	 xmm2, xmm6
$LN42@Find_Bear_:

; 1919 : 											pHighLowPtData5->m_nDataSeq, pHighLowPtData5->m_dHigh);	// 3-5
; 1920 : 			
; 1921 : 			dGradient3 = GetModifyGradient( pHighLowPtData2->m_nDataSeq, pHighLowPtData2->m_dLow, 

  001c5	8b 45 f8	 mov	 eax, DWORD PTR _pHighLowPtData2$1$[ebp]

; 2456 : 	double	dGradient=0;

  001c8	0f 28 eb	 movaps	 xmm5, xmm3
  001cb	66 0f 6e 77 08	 movd	 xmm6, DWORD PTR [edi+8]

; 1919 : 											pHighLowPtData5->m_nDataSeq, pHighLowPtData5->m_dHigh);	// 3-5
; 1920 : 			
; 1921 : 			dGradient3 = GetModifyGradient( pHighLowPtData2->m_nDataSeq, pHighLowPtData2->m_dLow, 

  001d0	f3 0f e6 f6	 cvtdq2pd xmm6, xmm6
  001d4	8b 50 08	 mov	 edx, DWORD PTR [eax+8]
  001d7	89 55 ec	 mov	 DWORD PTR tv1387[ebp], edx

; 2458 : 	if( (dXPos2 - dXPos1) != 0 && (dYPos1 != 0))

  001da	8b 55 f0	 mov	 edx, DWORD PTR _pHighLowPtData1$1$[ebp]
  001dd	66 0f 6e 40 08	 movd	 xmm0, DWORD PTR [eax+8]

; 1919 : 											pHighLowPtData5->m_nDataSeq, pHighLowPtData5->m_dHigh);	// 3-5
; 1920 : 			
; 1921 : 			dGradient3 = GetModifyGradient( pHighLowPtData2->m_nDataSeq, pHighLowPtData2->m_dLow, 

  001e2	f3 0f e6 c0	 cvtdq2pd xmm0, xmm0
  001e6	f2 0f 11 75 c4	 movsd	 QWORD PTR tv1363[ebp], xmm6
  001eb	f2 0f 11 45 dc	 movsd	 QWORD PTR tv1373[ebp], xmm0

; 2458 : 	if( (dXPos2 - dXPos1) != 0 && (dYPos1 != 0))

  001f0	f2 0f 5c 75 dc	 subsd	 xmm6, QWORD PTR tv1373[ebp]

; 1919 : 											pHighLowPtData5->m_nDataSeq, pHighLowPtData5->m_dHigh);	// 3-5
; 1920 : 			
; 1921 : 			dGradient3 = GetModifyGradient( pHighLowPtData2->m_nDataSeq, pHighLowPtData2->m_dLow, 

  001f5	f2 0f 10 40 28	 movsd	 xmm0, QWORD PTR [eax+40]
  001fa	f2 0f 11 45 cc	 movsd	 QWORD PTR _dYPos1$1$[ebp], xmm0

; 2458 : 	if( (dXPos2 - dXPos1) != 0 && (dYPos1 != 0))

  001ff	66 0f 2e f3	 ucomisd xmm6, xmm3
  00203	f2 0f 11 75 b4	 movsd	 QWORD PTR tv1278[ebp], xmm6
  00208	9f		 lahf
  00209	f6 c4 44	 test	 ah, 68			; 00000044H
  0020c	7b 21		 jnp	 SHORT $LN45@Find_Bear_
  0020e	66 0f 2e c3	 ucomisd xmm0, xmm3
  00212	9f		 lahf
  00213	f6 c4 44	 test	 ah, 68			; 00000044H
  00216	7b 17		 jnp	 SHORT $LN45@Find_Bear_

; 2459 : 	{
; 2460 : 		dGradient = (dYPos2 - dYPos1) / dYPos1 / (dXPos2 - dXPos1) * 100;

  00218	0f 28 e9	 movaps	 xmm5, xmm1
  0021b	f2 0f 5c e8	 subsd	 xmm5, xmm0
  0021f	f2 0f 5e e8	 divsd	 xmm5, xmm0
  00223	f2 0f 5e ee	 divsd	 xmm5, xmm6
  00227	f2 0f 59 2d 00
	00 00 00	 mulsd	 xmm5, QWORD PTR __real@4059000000000000
$LN45@Find_Bear_:

; 1922 : 											pHighLowPtData4->m_nDataSeq, pHighLowPtData4->m_dLow);	// 2-4
; 1923 : 
; 1924 : 			dGradient4 = GetModifyGradient( pHighLowPtData4->m_nDataSeq, pHighLowPtData4->m_dLow, 

  0022f	8b 41 08	 mov	 eax, DWORD PTR [ecx+8]

; 2456 : 	double	dGradient=0;

  00232	0f 28 f3	 movaps	 xmm6, xmm3

; 1922 : 											pHighLowPtData4->m_nDataSeq, pHighLowPtData4->m_dLow);	// 2-4
; 1923 : 
; 1924 : 			dGradient4 = GetModifyGradient( pHighLowPtData4->m_nDataSeq, pHighLowPtData4->m_dLow, 

  00235	89 45 f0	 mov	 DWORD PTR tv1386[ebp], eax
  00238	66 0f 6e f8	 movd	 xmm7, eax
  0023c	f3 0f e6 ff	 cvtdq2pd xmm7, xmm7
  00240	f2 0f 11 7d ac	 movsd	 QWORD PTR tv1283[ebp], xmm7

; 2458 : 	if( (dXPos2 - dXPos1) != 0 && (dYPos1 != 0))

  00245	f2 0f 5c 7d c4	 subsd	 xmm7, QWORD PTR tv1363[ebp]
  0024a	66 0f 2e fb	 ucomisd xmm7, xmm3
  0024e	f2 0f 11 7d c4	 movsd	 QWORD PTR tv1263[ebp], xmm7
  00253	f2 0f 10 7b 20	 movsd	 xmm7, QWORD PTR [ebx+32]
  00258	9f		 lahf
  00259	f6 c4 44	 test	 ah, 68			; 00000044H
  0025c	7b 24		 jnp	 SHORT $LN48@Find_Bear_
  0025e	66 0f 2e cb	 ucomisd xmm1, xmm3
  00262	9f		 lahf
  00263	f6 c4 44	 test	 ah, 68			; 00000044H
  00266	7b 1a		 jnp	 SHORT $LN48@Find_Bear_

; 2459 : 	{
; 2460 : 		dGradient = (dYPos2 - dYPos1) / dYPos1 / (dXPos2 - dXPos1) * 100;

  00268	f2 0f 10 71 28	 movsd	 xmm6, QWORD PTR [ecx+40]
  0026d	f2 0f 5c f1	 subsd	 xmm6, xmm1
  00271	f2 0f 5e f1	 divsd	 xmm6, xmm1
  00275	f2 0f 5e 75 c4	 divsd	 xmm6, QWORD PTR tv1263[ebp]
  0027a	f2 0f 59 35 00
	00 00 00	 mulsd	 xmm6, QWORD PTR __real@4059000000000000
$LN48@Find_Bear_:

; 1925 : 											pHighLowPtData6->m_nDataSeq, pHighLowPtData6->m_dLow);	// 4-6
; 1926 : 
; 1927 : 			if ( dGradient2 < -0.3 && dGradient3 > 0.3 )

  00282	f2 0f 10 0d 00
	00 00 00	 movsd	 xmm1, QWORD PTR __real@bfd3333333333333
  0028a	66 0f 2f ca	 comisd	 xmm1, xmm2
  0028e	0f 86 3a 02 00
	00		 jbe	 $LN2@Find_Bear_
  00294	66 0f 2f 2d 00
	00 00 00	 comisd	 xmm5, QWORD PTR __real@3fd3333333333333
  0029c	0f 86 2c 02 00
	00		 jbe	 $LN2@Find_Bear_

; 1928 : 			{
; 1929 : 				if ( (pHighLowPtData1->m_dHigh - pHighLowPtData2->m_dLow) > 2*(pHighLowPtData3->m_dHigh - pHighLowPtData2->m_dLow))

  002a2	8b 45 f8	 mov	 eax, DWORD PTR _pHighLowPtData2$1$[ebp]
  002a5	0f 28 cf	 movaps	 xmm1, xmm7
  002a8	f2 0f 5c c8	 subsd	 xmm1, xmm0
  002ac	f2 0f 10 42 20	 movsd	 xmm0, QWORD PTR [edx+32]
  002b1	f2 0f 5c 40 28	 subsd	 xmm0, QWORD PTR [eax+40]
  002b6	f2 0f 58 c9	 addsd	 xmm1, xmm1
  002ba	66 0f 2f c1	 comisd	 xmm0, xmm1
  002be	0f 86 0a 02 00
	00		 jbe	 $LN2@Find_Bear_

; 1930 : 				{
; 1931 : 					if ( dGradient1 < dGradient2 && dGradient3 > dGradient4)

  002c4	66 0f 2f d4	 comisd	 xmm2, xmm4
  002c8	0f 86 00 02 00
	00		 jbe	 $LN2@Find_Bear_
  002ce	66 0f 2f ee	 comisd	 xmm5, xmm6
  002d2	0f 86 f6 01 00
	00		 jbe	 $LN2@Find_Bear_

; 2446 : 	if( (dXPos2 - dXPos1) != 0)

  002d8	f2 0f 10 45 bc	 movsd	 xmm0, QWORD PTR tv1274[ebp]
  002dd	0f 28 cb	 movaps	 xmm1, xmm3
  002e0	8b 5d fc	 mov	 ebx, DWORD PTR _pHighLowPtData5$1$[ebp]
  002e3	66 0f 2e c3	 ucomisd xmm0, xmm3
  002e7	9f		 lahf
  002e8	f6 c4 44	 test	 ah, 68			; 00000044H
  002eb	7b 0d		 jnp	 SHORT $LN66@Find_Bear_

; 2447 : 	{
; 2448 : 		dGradient = (dYPos2 - dYPos1) / (dXPos2 - dXPos1);

  002ed	f2 0f 10 4b 20	 movsd	 xmm1, QWORD PTR [ebx+32]
  002f2	f2 0f 5c cf	 subsd	 xmm1, xmm7
  002f6	f2 0f 5e c8	 divsd	 xmm1, xmm0
$LN66@Find_Bear_:

; 2446 : 	if( (dXPos2 - dXPos1) != 0)

  002fa	f2 0f 10 55 b4	 movsd	 xmm2, QWORD PTR tv1278[ebp]
  002ff	0f 28 e3	 movaps	 xmm4, xmm3
  00302	66 0f 2e d3	 ucomisd xmm2, xmm3
  00306	9f		 lahf
  00307	f6 c4 44	 test	 ah, 68			; 00000044H
  0030a	7b 17		 jnp	 SHORT $LN68@Find_Bear_

; 2447 : 	{
; 2448 : 		dGradient = (dYPos2 - dYPos1) / (dXPos2 - dXPos1);

  0030c	8b 45 f8	 mov	 eax, DWORD PTR _pHighLowPtData2$1$[ebp]
  0030f	f2 0f 10 67 28	 movsd	 xmm4, QWORD PTR [edi+40]
  00314	f2 0f 10 40 28	 movsd	 xmm0, QWORD PTR [eax+40]
  00319	f2 0f 5c e0	 subsd	 xmm4, xmm0
  0031d	f2 0f 5e e2	 divsd	 xmm4, xmm2
  00321	eb 05		 jmp	 SHORT $LN54@Find_Bear_
$LN68@Find_Bear_:

; 2445 : 
; 2446 : 	if( (dXPos2 - dXPos1) != 0)

  00323	f2 0f 10 45 cc	 movsd	 xmm0, QWORD PTR _dYPos1$1$[ebp]
$LN54@Find_Bear_:
  00328	66 0f 6e 73 08	 movd	 xmm6, DWORD PTR [ebx+8]

; 2444 : 	double dGradient=0;

  0032d	0f 28 d3	 movaps	 xmm2, xmm3

; 2445 : 
; 2446 : 	if( (dXPos2 - dXPos1) != 0)

  00330	f2 0f 10 6d ac	 movsd	 xmm5, QWORD PTR tv1283[ebp]
  00335	f3 0f e6 f6	 cvtdq2pd xmm6, xmm6
  00339	f2 0f 5c ee	 subsd	 xmm5, xmm6
  0033d	66 0f 2e eb	 ucomisd xmm5, xmm3
  00341	9f		 lahf
  00342	f6 c4 44	 test	 ah, 68			; 00000044H
  00345	7b 0e		 jnp	 SHORT $LN67@Find_Bear_

; 2447 : 	{
; 2448 : 		dGradient = (dYPos2 - dYPos1) / (dXPos2 - dXPos1);

  00347	f2 0f 10 51 28	 movsd	 xmm2, QWORD PTR [ecx+40]
  0034c	f2 0f 5c 53 20	 subsd	 xmm2, QWORD PTR [ebx+32]
  00351	f2 0f 5e d5	 divsd	 xmm2, xmm5
$LN67@Find_Bear_:

; 1932 : 					{
; 1933 : 						double dGradA, dGradB, dGradB_H;
; 1934 : 						double dYDrawPt1_1;
; 1935 : 						double dYDrawPt2_1;
; 1936 : 						double dXCrossPt1, dYCrossPt1;
; 1937 : 						double dXNeckPt1, dYNeckPt1;
; 1938 : 						double dXNeckPt2, dYNeckPt2;
; 1939 : 						double dNeckBaseYPt1, dNeckBaseYPt2;
; 1940 : 
; 1941 : 						dGradA = GetGradient(	pHighLowPtData3->m_nDataSeq, pHighLowPtData3->m_dHigh, 
; 1942 : 												pHighLowPtData5->m_nDataSeq, pHighLowPtData5->m_dHigh);	// 3-5
; 1943 : 
; 1944 : 						dGradB = GetGradient(	pHighLowPtData2->m_nDataSeq, pHighLowPtData2->m_dLow, 
; 1945 : 												pHighLowPtData4->m_nDataSeq, pHighLowPtData4->m_dLow);	// 2-4
; 1946 : 
; 1947 : 						dGradB_H = GetGradient(	pHighLowPtData5->m_nDataSeq, pHighLowPtData5->m_dHigh, 
; 1948 : 												pHighLowPtData6->m_nDataSeq, pHighLowPtData6->m_dLow);	// 5-6
; 1949 : 
; 1950 : 						// First Draw Data
; 1951 : 						dYDrawPt1_1 = dGradA * (pHighLowPtData1->m_nDataSeq - pHighLowPtData3->m_nDataSeq) + pHighLowPtData3->m_dHigh;

  00355	8b 4a 08	 mov	 ecx, DWORD PTR [edx+8]
  00358	8b c1		 mov	 eax, ecx
  0035a	2b 45 f4	 sub	 eax, DWORD PTR tv1389[ebp]

; 1952 : 
; 1953 : 						// Second Draw Data
; 1954 : 						dYDrawPt2_1 = dGradB * (pHighLowPtData1->m_nDataSeq - pHighLowPtData2->m_nDataSeq) + pHighLowPtData2->m_dLow;
; 1955 : 
; 1956 : 						if ( (dGradA - dGradB) != 0)

  0035d	f2 0f 10 75 dc	 movsd	 xmm6, QWORD PTR tv1373[ebp]
  00362	f2 0f 59 f4	 mulsd	 xmm6, xmm4
  00366	66 0f 6e e8	 movd	 xmm5, eax
  0036a	8b c1		 mov	 eax, ecx
  0036c	2b 45 ec	 sub	 eax, DWORD PTR tv1387[ebp]
  0036f	f3 0f e6 ed	 cvtdq2pd xmm5, xmm5
  00373	f2 0f 11 75 dc	 movsd	 QWORD PTR tv1373[ebp], xmm6
  00378	f2 0f 59 e9	 mulsd	 xmm5, xmm1
  0037c	f2 0f 58 ef	 addsd	 xmm5, xmm7
  00380	f2 0f 11 6d b4	 movsd	 QWORD PTR _dYDrawPt1_1$1$[ebp], xmm5
  00385	66 0f 6e e8	 movd	 xmm5, eax
  00389	f3 0f e6 ed	 cvtdq2pd xmm5, xmm5
  0038d	f2 0f 59 ec	 mulsd	 xmm5, xmm4
  00391	f2 0f 58 e8	 addsd	 xmm5, xmm0
  00395	f2 0f 11 6d ac	 movsd	 QWORD PTR _dYDrawPt2_1$1$[ebp], xmm5
  0039a	0f 28 e9	 movaps	 xmm5, xmm1
  0039d	f2 0f 5c ec	 subsd	 xmm5, xmm4
  003a1	66 0f 2e eb	 ucomisd xmm5, xmm3
  003a5	9f		 lahf
  003a6	f6 c4 44	 test	 ah, 68			; 00000044H
  003a9	7b 3a		 jnp	 SHORT $LN70@Find_Bear_

; 1957 : 						{
; 1958 : 							dXCrossPt1 = ( ( pHighLowPtData2->m_dLow - pHighLowPtData3->m_dHigh) + 

  003ab	f2 0f 5c c7	 subsd	 xmm0, xmm7
  003af	0f 28 f1	 movaps	 xmm6, xmm1
  003b2	f2 0f 59 75 d4	 mulsd	 xmm6, QWORD PTR tv1354[ebp]
  003b7	f2 0f 58 f0	 addsd	 xmm6, xmm0
  003bb	f2 0f 5c 75 dc	 subsd	 xmm6, QWORD PTR tv1373[ebp]
  003c0	f2 0f 5e f5	 divsd	 xmm6, xmm5

; 1959 : 											dGradA*pHighLowPtData3->m_nDataSeq - dGradB*pHighLowPtData2->m_nDataSeq ) / ( dGradA-dGradB);
; 1960 : 							dYCrossPt1 = dGradA*(dXCrossPt1-pHighLowPtData3->m_nDataSeq) + pHighLowPtData3->m_dHigh;

  003c4	0f 28 c6	 movaps	 xmm0, xmm6
  003c7	f2 0f 11 75 a4	 movsd	 QWORD PTR _dXCrossPt1$4[ebp], xmm6
  003cc	f2 0f 5c 45 d4	 subsd	 xmm0, QWORD PTR tv1354[ebp]
  003d1	f2 0f 59 c1	 mulsd	 xmm0, xmm1
  003d5	f2 0f 58 c7	 addsd	 xmm0, xmm7
  003d9	f2 0f 11 45 8c	 movsd	 QWORD PTR _dYCrossPt1$1[ebp], xmm0
  003de	f2 0f 10 45 cc	 movsd	 xmm0, QWORD PTR _dYPos1$1$[ebp]
  003e3	eb 05		 jmp	 SHORT $LN64@Find_Bear_
$LN70@Find_Bear_:

; 1952 : 
; 1953 : 						// Second Draw Data
; 1954 : 						dYDrawPt2_1 = dGradB * (pHighLowPtData1->m_nDataSeq - pHighLowPtData2->m_nDataSeq) + pHighLowPtData2->m_dLow;
; 1955 : 
; 1956 : 						if ( (dGradA - dGradB) != 0)

  003e5	f2 0f 10 75 a4	 movsd	 xmm6, QWORD PTR _dXCrossPt1$4[ebp]
$LN64@Find_Bear_:

; 1961 : 						}
; 1962 : 
; 1963 : 						// First Neck Data
; 1964 : 						dXNeckPt1 = pHighLowPtData1->m_nDataSeq;
; 1965 : 						dYNeckPt1 = pHighLowPtData1->m_dHigh;
; 1966 : 						// Second Neck Data
; 1967 : 						if ( (dGradB_H - dGradB) != 0)

  003ea	0f 28 ea	 movaps	 xmm5, xmm2
  003ed	f2 0f 5c ec	 subsd	 xmm5, xmm4
  003f1	66 0f 2e eb	 ucomisd xmm5, xmm3
  003f5	9f		 lahf
  003f6	f6 c4 44	 test	 ah, 68			; 00000044H
  003f9	7b 40		 jnp	 SHORT $LN69@Find_Bear_

; 1968 : 						{
; 1969 : 							dXNeckPt2 = ( ( pHighLowPtData2->m_dLow - pHighLowPtData5->m_dHigh) + 

  003fb	0f 57 e4	 xorps	 xmm4, xmm4
  003fe	0f 28 d8	 movaps	 xmm3, xmm0
  00401	f2 0f 2a 63 08	 cvtsi2sd xmm4, DWORD PTR [ebx+8]
  00406	f2 0f 5c 5b 20	 subsd	 xmm3, QWORD PTR [ebx+32]
  0040b	0f 28 c4	 movaps	 xmm0, xmm4
  0040e	f2 0f 59 c2	 mulsd	 xmm0, xmm2
  00412	f2 0f 58 d8	 addsd	 xmm3, xmm0
  00416	f2 0f 5c 5d dc	 subsd	 xmm3, QWORD PTR tv1373[ebp]
  0041b	f2 0f 5e dd	 divsd	 xmm3, xmm5

; 1970 : 											dGradB_H*pHighLowPtData5->m_nDataSeq - dGradB*pHighLowPtData2->m_nDataSeq ) / ( dGradB_H-dGradB);
; 1971 : 							dYNeckPt2 = dGradB_H*(dXNeckPt2-pHighLowPtData5->m_nDataSeq) + pHighLowPtData5->m_dHigh;

  0041f	0f 28 c3	 movaps	 xmm0, xmm3
  00422	f2 0f 11 5d 9c	 movsd	 QWORD PTR _dXNeckPt2$3[ebp], xmm3
  00427	f2 0f 5c c4	 subsd	 xmm0, xmm4
  0042b	f2 0f 59 c2	 mulsd	 xmm0, xmm2
  0042f	f2 0f 58 43 20	 addsd	 xmm0, QWORD PTR [ebx+32]
  00434	f2 0f 11 45 94	 movsd	 QWORD PTR _dYNeckPt2$2[ebp], xmm0
  00439	eb 05		 jmp	 SHORT $LN17@Find_Bear_
$LN69@Find_Bear_:

; 1961 : 						}
; 1962 : 
; 1963 : 						// First Neck Data
; 1964 : 						dXNeckPt1 = pHighLowPtData1->m_nDataSeq;
; 1965 : 						dYNeckPt1 = pHighLowPtData1->m_dHigh;
; 1966 : 						// Second Neck Data
; 1967 : 						if ( (dGradB_H - dGradB) != 0)

  0043b	f2 0f 10 5d 9c	 movsd	 xmm3, QWORD PTR _dXNeckPt2$3[ebp]
$LN17@Find_Bear_:

; 1972 : 						}
; 1973 : 
; 1974 : 						// Neck Base Data1
; 1975 : 						dNeckBaseYPt1 = pHighLowPtData1->m_dHigh;
; 1976 : 						// Neck Base Data2
; 1977 : 						dNeckBaseYPt2 = dGradB * (pHighLowPtData1->m_nDataSeq - pHighLowPtData2->m_nDataSeq) + pHighLowPtData2->m_dLow;
; 1978 : 
; 1979 : 
; 1980 : 						AddNewWavePatternData(	pObjWavePatternData,

  00440	f2 0f 10 45 ac	 movsd	 xmm0, QWORD PTR _dYDrawPt2_1$1$[ebp]
  00445	83 ec 70	 sub	 esp, 112		; 00000070H
  00448	f2 0f 10 4a 20	 movsd	 xmm1, QWORD PTR [edx+32]
  0044d	f2 0f 10 55 94	 movsd	 xmm2, QWORD PTR _dYNeckPt2$2[ebp]
  00452	f2 0f 11 44 24
	68		 movsd	 QWORD PTR [esp+104], xmm0
  00458	f2 0f 11 4c 24
	60		 movsd	 QWORD PTR [esp+96], xmm1
  0045e	f2 0f 11 54 24
	58		 movsd	 QWORD PTR [esp+88], xmm2
  00464	f2 0f 11 5c 24
	50		 movsd	 QWORD PTR [esp+80], xmm3
  0046a	f2 0f 11 4c 24
	48		 movsd	 QWORD PTR [esp+72], xmm1
  00470	f2 0f 10 4d 8c	 movsd	 xmm1, QWORD PTR _dYCrossPt1$1[ebp]
  00475	66 0f 6e d1	 movd	 xmm2, ecx
  00479	f3 0f e6 d2	 cvtdq2pd xmm2, xmm2
  0047d	f2 0f 11 54 24
	40		 movsd	 QWORD PTR [esp+64], xmm2
  00483	f2 0f 11 4c 24
	38		 movsd	 QWORD PTR [esp+56], xmm1
  00489	f2 0f 11 74 24
	30		 movsd	 QWORD PTR [esp+48], xmm6
  0048f	f2 0f 11 44 24
	28		 movsd	 QWORD PTR [esp+40], xmm0
  00495	f2 0f 10 45 b4	 movsd	 xmm0, QWORD PTR _dYDrawPt1_1$1$[ebp]
  0049a	f2 0f 11 54 24
	20		 movsd	 QWORD PTR [esp+32], xmm2
  004a0	f2 0f 11 4c 24
	18		 movsd	 QWORD PTR [esp+24], xmm1
  004a6	f2 0f 11 74 24
	10		 movsd	 QWORD PTR [esp+16], xmm6
  004ac	f2 0f 11 44 24
	08		 movsd	 QWORD PTR [esp+8], xmm0
  004b2	f2 0f 11 14 24	 movsd	 QWORD PTR [esp], xmm2
  004b7	ff 75 f0	 push	 DWORD PTR tv1386[ebp]
  004ba	51		 push	 ecx
  004bb	8b 4d e8	 mov	 ecx, DWORD PTR _this$1$[ebp]
  004be	68 b0 0f 00 00	 push	 4016			; 00000fb0H
  004c3	ff 75 0c	 push	 DWORD PTR _pObjWavePatternData$[ebp]
  004c6	e8 00 00 00 00	 call	 ?AddNewWavePatternData@CWavePattern@@QAEXPAVCObject@@HHHNNNNNNNNNNNNNN@Z ; CWavePattern::AddNewWavePatternData
  004cb	0f 57 db	 xorps	 xmm3, xmm3
$LN2@Find_Bear_:

; 1901 : 
; 1902 : 	for(int i = 0; i <= nPointCnt-nMininumData; i++)

  004ce	8b 55 08	 mov	 edx, DWORD PTR _pObjHighLowPtData$[ebp]
  004d1	46		 inc	 esi
  004d2	8d 46 fe	 lea	 eax, DWORD PTR [esi-2]
  004d5	3b 45 e4	 cmp	 eax, DWORD PTR $T5[ebp]
  004d8	0f 8e 52 fb ff
	ff		 jle	 $LL4@Find_Bear_
  004de	5f		 pop	 edi
  004df	5e		 pop	 esi
  004e0	5b		 pop	 ebx
$LN3@Find_Bear_:

; 1981 : 												PTN_BEAR_TRIANGLEFLAG,			pHighLowPtData1->m_nDataSeq,	pHighLowPtData6->m_nDataSeq,		
; 1982 : 												pHighLowPtData1->m_nDataSeq,	dYDrawPt1_1,					dXCrossPt1,						dYCrossPt1,
; 1983 : 												pHighLowPtData1->m_nDataSeq,	dYDrawPt2_1,					dXCrossPt1,						dYCrossPt1,
; 1984 : 												dXNeckPt1,						dYNeckPt1,						dXNeckPt2,						dYNeckPt2,
; 1985 : 												dNeckBaseYPt1,					dNeckBaseYPt2	);
; 1986 : 
; 1987 : 					}
; 1988 : 				}
; 1989 : 			}
; 1990 : 		}
; 1991 : 	}
; 1992 : 
; 1993 : 	return TRUE;

  004e1	b8 01 00 00 00	 mov	 eax, 1

; 1994 : }

  004e6	8b e5		 mov	 esp, ebp
  004e8	5d		 pop	 ebp
  004e9	c2 08 00	 ret	 8
$LN20@Find_Bear_:
; File C:\Program Files (x86)\Microsoft Visual Studio\2019\Community\VC\Tools\MSVC\14.29.30133\atlmfc\include\afxtempl.h

; 290  : 	AfxThrowInvalidArgException();

  004ec	e8 00 00 00 00	 call	 ?AfxThrowInvalidArgException@@YGXXZ ; AfxThrowInvalidArgException
$LN74@Find_Bear_:
  004f1	cc		 int	 3
?Find_Bear_TriangleFlag@CWavePattern@@QAEHPAVCObject@@0@Z ENDP ; CWavePattern::Find_Bear_TriangleFlag
_TEXT	ENDS
; Function compile flags: /Ogtp
; File D:\git\src\IBK\IBK_DRFN\ProjSrc\SrcChartEx\ChartAddIn\ChartPatternAddIn\WavePattern.cpp
; File C:\Program Files (x86)\Microsoft Visual Studio\2019\Community\VC\Tools\MSVC\14.29.30133\atlmfc\include\afxtempl.h
; File D:\git\src\IBK\IBK_DRFN\ProjSrc\SrcChartEx\ChartAddIn\ChartPatternAddIn\WavePattern.cpp
; File C:\Program Files (x86)\Microsoft Visual Studio\2019\Community\VC\Tools\MSVC\14.29.30133\atlmfc\include\afxtempl.h
; File D:\git\src\IBK\IBK_DRFN\ProjSrc\SrcChartEx\ChartAddIn\ChartPatternAddIn\WavePattern.cpp
; File C:\Program Files (x86)\Microsoft Visual Studio\2019\Community\VC\Tools\MSVC\14.29.30133\atlmfc\include\afxtempl.h
; File D:\git\src\IBK\IBK_DRFN\ProjSrc\SrcChartEx\ChartAddIn\ChartPatternAddIn\WavePattern.cpp
; File C:\Program Files (x86)\Microsoft Visual Studio\2019\Community\VC\Tools\MSVC\14.29.30133\atlmfc\include\afxtempl.h
; File D:\git\src\IBK\IBK_DRFN\ProjSrc\SrcChartEx\ChartAddIn\ChartPatternAddIn\WavePattern.cpp
; File C:\Program Files (x86)\Microsoft Visual Studio\2019\Community\VC\Tools\MSVC\14.29.30133\atlmfc\include\afxtempl.h
; File D:\git\src\IBK\IBK_DRFN\ProjSrc\SrcChartEx\ChartAddIn\ChartPatternAddIn\WavePattern.cpp
; File C:\Program Files (x86)\Microsoft Visual Studio\2019\Community\VC\Tools\MSVC\14.29.30133\atlmfc\include\afxtempl.h
; File D:\git\src\IBK\IBK_DRFN\ProjSrc\SrcChartEx\ChartAddIn\ChartPatternAddIn\WavePattern.cpp
; File C:\Program Files (x86)\Microsoft Visual Studio\2019\Community\VC\Tools\MSVC\14.29.30133\atlmfc\include\afxtempl.h
; File D:\git\src\IBK\IBK_DRFN\ProjSrc\SrcChartEx\ChartAddIn\ChartPatternAddIn\WavePattern.cpp
;	COMDAT ?Find_Bull_TriangleFlag@CWavePattern@@QAEHPAVCObject@@0@Z
_TEXT	SEGMENT
_dYCrossPt1$1 = -120					; size = 8
_dYNeckPt2$2 = -112					; size = 8
_dXNeckPt2$3 = -104					; size = 8
_dXCrossPt1$4 = -96					; size = 8
tv1367 = -88						; size = 8
_dYDrawPt1_1$1$ = -80					; size = 8
_dYPos1$1$ = -80					; size = 8
_dYDrawPt2_1$1$ = -72					; size = 8
tv1322 = -72						; size = 8
tv1318 = -64						; size = 8
tv1375 = -56						; size = 8
tv1307 = -56						; size = 8
tv1343 = -48						; size = 8
_dYPos1$1$ = -40					; size = 8
tv1326 = -40						; size = 8
tv1373 = -32						; size = 8
$T5 = -24						; size = 4
_this$1$ = -20						; size = 4
_pHighLowPtData1$1$ = -16				; size = 4
tv1397 = -12						; size = 4
_pHighLowPtData2$1$ = -12				; size = 4
tv1399 = -8						; size = 4
_pHighLowPtData4$1$ = -8				; size = 4
_pHighLowPtData5$1$ = -4				; size = 4
_pObjHighLowPtData$ = 8					; size = 4
_pObjWavePatternData$ = 12				; size = 4
?Find_Bull_TriangleFlag@CWavePattern@@QAEHPAVCObject@@0@Z PROC ; CWavePattern::Find_Bull_TriangleFlag, COMDAT
; _this$ = ecx

; 1778 : {

  00000	55		 push	 ebp
  00001	8b ec		 mov	 ebp, esp
  00003	83 ec 78	 sub	 esp, 120		; 00000078H

; 1789 : 
; 1790 : 	for(int i = 0; i <= nPointCnt-nMininumData; i++)

  00006	8b 55 08	 mov	 edx, DWORD PTR _pObjHighLowPtData$[ebp]
  00009	89 4d ec	 mov	 DWORD PTR _this$1$[ebp], ecx
  0000c	8b 42 08	 mov	 eax, DWORD PTR [edx+8]
  0000f	83 e8 06	 sub	 eax, 6
  00012	89 45 e8	 mov	 DWORD PTR $T5[ebp], eax
  00015	0f 88 c1 04 00
	00		 js	 $LN3@Find_Bull_

; 1779 : 	CArrayObjPt(CHighLowPtData) paryHighLowPtData = (CArrayObjPt(CHighLowPtData))pObjHighLowPtData;
; 1780 : 
; 1781 : 	CHighLowPtData *pHighLowPtData1, *pHighLowPtData2, *pHighLowPtData3, *pHighLowPtData4, *pHighLowPtData5, *pHighLowPtData6;
; 1782 : 	pHighLowPtData1 = pHighLowPtData2 = pHighLowPtData3 = pHighLowPtData4 = pHighLowPtData5 = pHighLowPtData6 = NULL;
; 1783 : 	int		nPointCnt;
; 1784 : 	int		nMininumData = 6;	// Bull Triangle Flag    
; 1785 : 
; 1786 : 	double	dGradient1, dGradient2, dGradient3, dGradient4;		// 
; 1787 : 	
; 1788 : 	nPointCnt = paryHighLowPtData->GetSize();

  0001b	f2 0f 10 3d 00
	00 00 00	 movsd	 xmm7, QWORD PTR __real@4059000000000000
  00023	0f 57 db	 xorps	 xmm3, xmm3
  00026	53		 push	 ebx
  00027	56		 push	 esi
  00028	57		 push	 edi
  00029	be 02 00 00 00	 mov	 esi, 2
  0002e	66 90		 npad	 2
$LL4@Find_Bull_:
; File C:\Program Files (x86)\Microsoft Visual Studio\2019\Community\VC\Tools\MSVC\14.29.30133\atlmfc\include\afxtempl.h

; 288  : 	if(nIndex >= 0 && nIndex < m_nSize)

  00030	8d 4e fe	 lea	 ecx, DWORD PTR [esi-2]
  00033	85 c9		 test	 ecx, ecx
  00035	0f 88 ac 04 00
	00		 js	 $LN20@Find_Bull_
  0003b	8b 42 08	 mov	 eax, DWORD PTR [edx+8]
  0003e	3b c8		 cmp	 ecx, eax
  00040	0f 8d a1 04 00
	00		 jge	 $LN20@Find_Bull_

; 289  : 		return m_pData[nIndex];

  00046	8b 4a 04	 mov	 ecx, DWORD PTR [edx+4]
; File D:\git\src\IBK\IBK_DRFN\ProjSrc\SrcChartEx\ChartAddIn\ChartPatternAddIn\WavePattern.cpp

; 1792 : 		pHighLowPtData1 = paryHighLowPtData->GetAt(i);		if ( !pHighLowPtData1 ) continue;

  00049	8b 54 b1 f8	 mov	 edx, DWORD PTR [ecx+esi*4-8]
  0004d	89 55 f0	 mov	 DWORD PTR _pHighLowPtData1$1$[ebp], edx
  00050	85 d2		 test	 edx, edx
  00052	0f 84 71 04 00
	00		 je	 $LN2@Find_Bull_

; 1793 : 		if ( pHighLowPtData1->m_nPointType != CHANGINGPT_LOWTOHIGH) continue;

  00058	81 7a 04 ea 03
	00 00		 cmp	 DWORD PTR [edx+4], 1002	; 000003eaH
  0005f	0f 85 64 04 00
	00		 jne	 $LN2@Find_Bull_
; File C:\Program Files (x86)\Microsoft Visual Studio\2019\Community\VC\Tools\MSVC\14.29.30133\atlmfc\include\afxtempl.h

; 288  : 	if(nIndex >= 0 && nIndex < m_nSize)

  00065	8d 7e ff	 lea	 edi, DWORD PTR [esi-1]
  00068	85 ff		 test	 edi, edi
  0006a	0f 88 77 04 00
	00		 js	 $LN20@Find_Bull_
  00070	3b f8		 cmp	 edi, eax
  00072	0f 8d 6f 04 00
	00		 jge	 $LN20@Find_Bull_
; File D:\git\src\IBK\IBK_DRFN\ProjSrc\SrcChartEx\ChartAddIn\ChartPatternAddIn\WavePattern.cpp

; 1795 : 		pHighLowPtData2 = paryHighLowPtData->GetAt(i+1);	if ( !pHighLowPtData2 ) continue;

  00078	8b 5c b1 fc	 mov	 ebx, DWORD PTR [ecx+esi*4-4]
  0007c	89 5d f4	 mov	 DWORD PTR _pHighLowPtData2$1$[ebp], ebx
  0007f	85 db		 test	 ebx, ebx
  00081	0f 84 42 04 00
	00		 je	 $LN2@Find_Bull_
; File C:\Program Files (x86)\Microsoft Visual Studio\2019\Community\VC\Tools\MSVC\14.29.30133\atlmfc\include\afxtempl.h

; 288  : 	if(nIndex >= 0 && nIndex < m_nSize)

  00087	85 f6		 test	 esi, esi
  00089	0f 88 58 04 00
	00		 js	 $LN20@Find_Bull_
  0008f	3b f0		 cmp	 esi, eax
  00091	0f 8d 50 04 00
	00		 jge	 $LN20@Find_Bull_
; File D:\git\src\IBK\IBK_DRFN\ProjSrc\SrcChartEx\ChartAddIn\ChartPatternAddIn\WavePattern.cpp

; 1796 : 		pHighLowPtData3 = paryHighLowPtData->GetAt(i+2);	if ( !pHighLowPtData3 ) continue;

  00097	8b 1c b1	 mov	 ebx, DWORD PTR [ecx+esi*4]
  0009a	85 db		 test	 ebx, ebx
  0009c	0f 84 27 04 00
	00		 je	 $LN2@Find_Bull_
; File C:\Program Files (x86)\Microsoft Visual Studio\2019\Community\VC\Tools\MSVC\14.29.30133\atlmfc\include\afxtempl.h

; 288  : 	if(nIndex >= 0 && nIndex < m_nSize)

  000a2	8d 7e 01	 lea	 edi, DWORD PTR [esi+1]
  000a5	85 ff		 test	 edi, edi
  000a7	0f 88 3a 04 00
	00		 js	 $LN20@Find_Bull_
  000ad	3b f8		 cmp	 edi, eax
  000af	0f 8d 32 04 00
	00		 jge	 $LN20@Find_Bull_
; File D:\git\src\IBK\IBK_DRFN\ProjSrc\SrcChartEx\ChartAddIn\ChartPatternAddIn\WavePattern.cpp

; 1797 : 		pHighLowPtData4 = paryHighLowPtData->GetAt(i+3);	if ( !pHighLowPtData4 ) continue;

  000b5	8b 7c b1 04	 mov	 edi, DWORD PTR [ecx+esi*4+4]
  000b9	89 7d f8	 mov	 DWORD PTR _pHighLowPtData4$1$[ebp], edi
  000bc	85 ff		 test	 edi, edi
  000be	0f 84 05 04 00
	00		 je	 $LN2@Find_Bull_
; File C:\Program Files (x86)\Microsoft Visual Studio\2019\Community\VC\Tools\MSVC\14.29.30133\atlmfc\include\afxtempl.h

; 288  : 	if(nIndex >= 0 && nIndex < m_nSize)

  000c4	8d 7e 02	 lea	 edi, DWORD PTR [esi+2]
  000c7	85 ff		 test	 edi, edi
  000c9	0f 88 18 04 00
	00		 js	 $LN20@Find_Bull_
  000cf	3b f8		 cmp	 edi, eax
  000d1	0f 8d 10 04 00
	00		 jge	 $LN20@Find_Bull_
; File D:\git\src\IBK\IBK_DRFN\ProjSrc\SrcChartEx\ChartAddIn\ChartPatternAddIn\WavePattern.cpp

; 1798 : 		pHighLowPtData5 = paryHighLowPtData->GetAt(i+4);	if ( !pHighLowPtData5 ) continue;

  000d7	8b 7c b1 08	 mov	 edi, DWORD PTR [ecx+esi*4+8]
  000db	89 7d fc	 mov	 DWORD PTR _pHighLowPtData5$1$[ebp], edi
  000de	85 ff		 test	 edi, edi
  000e0	0f 84 e3 03 00
	00		 je	 $LN2@Find_Bull_
; File C:\Program Files (x86)\Microsoft Visual Studio\2019\Community\VC\Tools\MSVC\14.29.30133\atlmfc\include\afxtempl.h

; 288  : 	if(nIndex >= 0 && nIndex < m_nSize)

  000e6	8d 7e 03	 lea	 edi, DWORD PTR [esi+3]
  000e9	85 ff		 test	 edi, edi
  000eb	0f 88 f6 03 00
	00		 js	 $LN20@Find_Bull_
  000f1	3b f8		 cmp	 edi, eax
  000f3	0f 8d ee 03 00
	00		 jge	 $LN20@Find_Bull_
; File D:\git\src\IBK\IBK_DRFN\ProjSrc\SrcChartEx\ChartAddIn\ChartPatternAddIn\WavePattern.cpp

; 1799 : 		pHighLowPtData6 = paryHighLowPtData->GetAt(i+5);	if ( !pHighLowPtData6 ) continue;

  000f9	8b 4c b1 0c	 mov	 ecx, DWORD PTR [ecx+esi*4+12]
  000fd	85 c9		 test	 ecx, ecx
  000ff	0f 84 c4 03 00
	00		 je	 $LN2@Find_Bull_

; 1800 : 
; 1801 : 		if ( (pHighLowPtData1->m_dLow < pHighLowPtData3->m_dLow) && (pHighLowPtData4->m_dHigh < pHighLowPtData6->m_dHigh))

  00105	f2 0f 10 43 28	 movsd	 xmm0, QWORD PTR [ebx+40]
  0010a	f2 0f 10 52 28	 movsd	 xmm2, QWORD PTR [edx+40]
  0010f	66 0f 2f c2	 comisd	 xmm0, xmm2
  00113	f2 0f 11 45 b0	 movsd	 QWORD PTR _dYPos1$1$[ebp], xmm0
  00118	0f 86 ab 03 00
	00		 jbe	 $LN2@Find_Bull_
  0011e	8b 7d f8	 mov	 edi, DWORD PTR _pHighLowPtData4$1$[ebp]
  00121	f2 0f 10 61 20	 movsd	 xmm4, QWORD PTR [ecx+32]
  00126	f2 0f 10 4f 20	 movsd	 xmm1, QWORD PTR [edi+32]
  0012b	66 0f 2f e1	 comisd	 xmm4, xmm1
  0012f	f2 0f 11 4d d8	 movsd	 QWORD PTR _dYPos1$1$[ebp], xmm1
  00134	0f 86 8f 03 00
	00		 jbe	 $LN2@Find_Bull_

; 1802 : 		{
; 1803 : 			dGradient1 = GetModifyGradient( pHighLowPtData1->m_nDataSeq, pHighLowPtData1->m_dLow, 

  0013a	8b 43 08	 mov	 eax, DWORD PTR [ebx+8]

; 2456 : 	double	dGradient=0;

  0013d	0f 28 e3	 movaps	 xmm4, xmm3
  00140	66 0f 6e 72 08	 movd	 xmm6, DWORD PTR [edx+8]

; 1802 : 		{
; 1803 : 			dGradient1 = GetModifyGradient( pHighLowPtData1->m_nDataSeq, pHighLowPtData1->m_dLow, 

  00145	f3 0f e6 f6	 cvtdq2pd xmm6, xmm6
  00149	89 45 f8	 mov	 DWORD PTR tv1399[ebp], eax
  0014c	66 0f 6e e8	 movd	 xmm5, eax
  00150	f3 0f e6 ed	 cvtdq2pd xmm5, xmm5

; 2458 : 	if( (dXPos2 - dXPos1) != 0 && (dYPos1 != 0))

  00154	0f 28 cd	 movaps	 xmm1, xmm5

; 1802 : 		{
; 1803 : 			dGradient1 = GetModifyGradient( pHighLowPtData1->m_nDataSeq, pHighLowPtData1->m_dLow, 

  00157	f2 0f 11 6d a8	 movsd	 QWORD PTR tv1367[ebp], xmm5

; 2458 : 	if( (dXPos2 - dXPos1) != 0 && (dYPos1 != 0))

  0015c	f2 0f 5c ce	 subsd	 xmm1, xmm6
  00160	66 0f 2e cb	 ucomisd xmm1, xmm3
  00164	9f		 lahf
  00165	f6 c4 44	 test	 ah, 68			; 00000044H
  00168	7b 1d		 jnp	 SHORT $LN39@Find_Bull_
  0016a	66 0f 2e d3	 ucomisd xmm2, xmm3
  0016e	9f		 lahf
  0016f	f6 c4 44	 test	 ah, 68			; 00000044H
  00172	7b 13		 jnp	 SHORT $LN39@Find_Bull_

; 2459 : 	{
; 2460 : 		dGradient = (dYPos2 - dYPos1) / dYPos1 / (dXPos2 - dXPos1) * 100;

  00174	0f 28 e0	 movaps	 xmm4, xmm0
  00177	f2 0f 5c e2	 subsd	 xmm4, xmm2
  0017b	f2 0f 5e e2	 divsd	 xmm4, xmm2
  0017f	f2 0f 5e e1	 divsd	 xmm4, xmm1
  00183	f2 0f 59 e7	 mulsd	 xmm4, xmm7
$LN39@Find_Bull_:

; 1804 : 											pHighLowPtData3->m_nDataSeq, pHighLowPtData3->m_dLow);	// 1-3
; 1805 : 			
; 1806 : 			dGradient2 = GetModifyGradient(	pHighLowPtData3->m_nDataSeq, pHighLowPtData3->m_dLow, 

  00187	8b 45 fc	 mov	 eax, DWORD PTR _pHighLowPtData5$1$[ebp]

; 2456 : 	double	dGradient=0;

  0018a	0f 28 d3	 movaps	 xmm2, xmm3
  0018d	66 0f 6e 48 08	 movd	 xmm1, DWORD PTR [eax+8]

; 1804 : 											pHighLowPtData3->m_nDataSeq, pHighLowPtData3->m_dLow);	// 1-3
; 1805 : 			
; 1806 : 			dGradient2 = GetModifyGradient(	pHighLowPtData3->m_nDataSeq, pHighLowPtData3->m_dLow, 

  00192	f3 0f e6 c9	 cvtdq2pd xmm1, xmm1
  00196	f2 0f 11 4d d0	 movsd	 QWORD PTR tv1343[ebp], xmm1

; 2458 : 	if( (dXPos2 - dXPos1) != 0 && (dYPos1 != 0))

  0019b	f2 0f 5c cd	 subsd	 xmm1, xmm5
  0019f	66 0f 2e cb	 ucomisd xmm1, xmm3
  001a3	f2 0f 11 4d b8	 movsd	 QWORD PTR tv1322[ebp], xmm1
  001a8	9f		 lahf
  001a9	f6 c4 44	 test	 ah, 68			; 00000044H
  001ac	7b 22		 jnp	 SHORT $LN42@Find_Bull_
  001ae	66 0f 2e c3	 ucomisd xmm0, xmm3
  001b2	9f		 lahf
  001b3	f6 c4 44	 test	 ah, 68			; 00000044H
  001b6	7b 18		 jnp	 SHORT $LN42@Find_Bull_

; 2459 : 	{
; 2460 : 		dGradient = (dYPos2 - dYPos1) / dYPos1 / (dXPos2 - dXPos1) * 100;

  001b8	8b 45 fc	 mov	 eax, DWORD PTR _pHighLowPtData5$1$[ebp]
  001bb	f2 0f 10 50 28	 movsd	 xmm2, QWORD PTR [eax+40]
  001c0	f2 0f 5c d0	 subsd	 xmm2, xmm0
  001c4	f2 0f 5e d0	 divsd	 xmm2, xmm0
  001c8	f2 0f 5e d1	 divsd	 xmm2, xmm1
  001cc	f2 0f 59 d7	 mulsd	 xmm2, xmm7
$LN42@Find_Bull_:

; 1807 : 											pHighLowPtData5->m_nDataSeq, pHighLowPtData5->m_dLow);	// 3-5
; 1808 : 			
; 1809 : 			dGradient3 = GetModifyGradient( pHighLowPtData2->m_nDataSeq, pHighLowPtData2->m_dHigh, 

  001d0	8b 45 f4	 mov	 eax, DWORD PTR _pHighLowPtData2$1$[ebp]

; 2456 : 	double	dGradient=0;

  001d3	0f 28 eb	 movaps	 xmm5, xmm3
  001d6	66 0f 6e 48 08	 movd	 xmm1, DWORD PTR [eax+8]

; 1807 : 											pHighLowPtData5->m_nDataSeq, pHighLowPtData5->m_dLow);	// 3-5
; 1808 : 			
; 1809 : 			dGradient3 = GetModifyGradient( pHighLowPtData2->m_nDataSeq, pHighLowPtData2->m_dHigh, 

  001db	f3 0f e6 c9	 cvtdq2pd xmm1, xmm1
  001df	8b 50 08	 mov	 edx, DWORD PTR [eax+8]
  001e2	89 55 f4	 mov	 DWORD PTR tv1397[ebp], edx

; 2458 : 	if( (dXPos2 - dXPos1) != 0 && (dYPos1 != 0))

  001e5	8b 55 f0	 mov	 edx, DWORD PTR _pHighLowPtData1$1$[ebp]

; 1807 : 											pHighLowPtData5->m_nDataSeq, pHighLowPtData5->m_dLow);	// 3-5
; 1808 : 			
; 1809 : 			dGradient3 = GetModifyGradient( pHighLowPtData2->m_nDataSeq, pHighLowPtData2->m_dHigh, 

  001e8	f2 0f 10 70 20	 movsd	 xmm6, QWORD PTR [eax+32]
  001ed	f2 0f 11 4d e0	 movsd	 QWORD PTR tv1373[ebp], xmm1
  001f2	66 0f 6e 4f 08	 movd	 xmm1, DWORD PTR [edi+8]
  001f7	f3 0f e6 c9	 cvtdq2pd xmm1, xmm1

; 2458 : 	if( (dXPos2 - dXPos1) != 0 && (dYPos1 != 0))

  001fb	0f 28 f9	 movaps	 xmm7, xmm1

; 1807 : 											pHighLowPtData5->m_nDataSeq, pHighLowPtData5->m_dLow);	// 3-5
; 1808 : 			
; 1809 : 			dGradient3 = GetModifyGradient( pHighLowPtData2->m_nDataSeq, pHighLowPtData2->m_dHigh, 

  001fe	f2 0f 11 4d c8	 movsd	 QWORD PTR tv1375[ebp], xmm1

; 2458 : 	if( (dXPos2 - dXPos1) != 0 && (dYPos1 != 0))

  00203	f2 0f 5c 7d e0	 subsd	 xmm7, QWORD PTR tv1373[ebp]
  00208	66 0f 2e fb	 ucomisd xmm7, xmm3
  0020c	f2 0f 11 7d c0	 movsd	 QWORD PTR tv1318[ebp], xmm7
  00211	9f		 lahf
  00212	f6 c4 44	 test	 ah, 68			; 00000044H
  00215	7b 28		 jnp	 SHORT $LN69@Find_Bull_
  00217	66 0f 2e f3	 ucomisd xmm6, xmm3
  0021b	9f		 lahf
  0021c	f6 c4 44	 test	 ah, 68			; 00000044H
  0021f	7b 1e		 jnp	 SHORT $LN69@Find_Bull_

; 2459 : 	{
; 2460 : 		dGradient = (dYPos2 - dYPos1) / dYPos1 / (dXPos2 - dXPos1) * 100;

  00221	f2 0f 10 4f 20	 movsd	 xmm1, QWORD PTR [edi+32]
  00226	0f 28 e9	 movaps	 xmm5, xmm1
  00229	f2 0f 5c ee	 subsd	 xmm5, xmm6
  0022d	f2 0f 5e ee	 divsd	 xmm5, xmm6
  00231	f2 0f 5e ef	 divsd	 xmm5, xmm7
  00235	f2 0f 59 2d 00
	00 00 00	 mulsd	 xmm5, QWORD PTR __real@4059000000000000
  0023d	eb 05		 jmp	 SHORT $LN45@Find_Bull_
$LN69@Find_Bull_:

; 1810 : 											pHighLowPtData4->m_nDataSeq, pHighLowPtData4->m_dHigh);	// 2-4
; 1811 : 
; 1812 : 			dGradient4 = GetModifyGradient( pHighLowPtData4->m_nDataSeq, pHighLowPtData4->m_dHigh, 

  0023f	f2 0f 10 4d d8	 movsd	 xmm1, QWORD PTR _dYPos1$1$[ebp]
$LN45@Find_Bull_:
  00244	66 0f 6e 41 08	 movd	 xmm0, DWORD PTR [ecx+8]

; 2456 : 	double	dGradient=0;

  00249	0f 28 fb	 movaps	 xmm7, xmm3

; 1810 : 											pHighLowPtData4->m_nDataSeq, pHighLowPtData4->m_dHigh);	// 2-4
; 1811 : 
; 1812 : 			dGradient4 = GetModifyGradient( pHighLowPtData4->m_nDataSeq, pHighLowPtData4->m_dHigh, 

  0024c	f3 0f e6 c0	 cvtdq2pd xmm0, xmm0
  00250	f2 0f 11 45 d8	 movsd	 QWORD PTR tv1326[ebp], xmm0

; 2458 : 	if( (dXPos2 - dXPos1) != 0 && (dYPos1 != 0))

  00255	f2 0f 5c 45 c8	 subsd	 xmm0, QWORD PTR tv1375[ebp]
  0025a	66 0f 2e c3	 ucomisd xmm0, xmm3
  0025e	f2 0f 11 45 c8	 movsd	 QWORD PTR tv1307[ebp], xmm0
  00263	f2 0f 10 43 28	 movsd	 xmm0, QWORD PTR [ebx+40]
  00268	9f		 lahf
  00269	f6 c4 44	 test	 ah, 68			; 00000044H
