; Listing generated by Microsoft (R) Optimizing Compiler Version 19.29.30145.0 

	TITLE	D:\git\src\IBK\IBK_DRFN\#DRfn-CS\_Obj\ChartCommonAddIn\AskingPriceIndicatorAddInImp.obj
	.686P
	.XMM
	include listing.inc
	.model	flat

INCLUDELIB MSVCRT
INCLUDELIB OLDNAMES

PUBLIC	?m_eRegisteredEventMap@CAskingPriceIndicatorAddInImp@@1QBW4EAddInEventType@IChartAddIn000000@@B ; CAskingPriceIndicatorAddInImp::m_eRegisteredEventMap
PUBLIC	??_C@_0M@BDDGJNEO@ASKED_PRICE@			; `string'
;	COMDAT ??_C@_0M@BDDGJNEO@ASKED_PRICE@
CONST	SEGMENT
??_C@_0M@BDDGJNEO@ASKED_PRICE@ DB 'ASKED_PRICE', 00H	; `string'
CONST	ENDS
CONST	SEGMENT
?m_eRegisteredEventMap@CAskingPriceIndicatorAddInImp@@1QBW4EAddInEventType@IChartAddIn000000@@B DD 022H ; CAskingPriceIndicatorAddInImp::m_eRegisteredEventMap
	DD	015H
	DD	035H
	DD	07H
	DD	0cH
	DD	01dH
	DD	01aH
	DD	01bH
	DD	033H
	DD	034H
	DD	037H
	DD	03cH
	ORG $+196
CONST	ENDS
PUBLIC	?__empty_global_delete@@YAXPAX@Z		; __empty_global_delete
PUBLIC	?__empty_global_delete@@YAXPAXI@Z		; __empty_global_delete
PUBLIC	?Serialize@CObject@@UAEXAAVCArchive@@@Z		; CObject::Serialize
PUBLIC	?AssertValid@CObject@@UBEXXZ			; CObject::AssertValid
PUBLIC	?Dump@CObject@@UBEXAAVCDumpContext@@@Z		; CObject::Dump
PUBLIC	??HATL@@YA?AV?$CStringT@DV?$StrTraitMFC_DLL@DV?$ChTraitsCRT@D@ATL@@@@@0@ABV10@0@Z ; ATL::operator+
PUBLIC	?PostConstruct@CIWUnknown@@MAEXXZ		; CIWUnknown::PostConstruct
PUBLIC	?PreDestructX@CIWUnknown@@MAEXXZ		; CIWUnknown::PreDestructX
PUBLIC	?PreDestruct@CIWUnknown@@MAEXXZ			; CIWUnknown::PreDestruct
PUBLIC	?AddRef@CChartAddInBase000000@@MAGKXZ		; CChartAddInBase000000::AddRef
PUBLIC	?Release@CChartAddInBase000000@@MAGKXZ		; CChartAddInBase000000::Release
PUBLIC	?QueryInterface@CChartAddInBase000000@@MAGJABU_GUID@@PAPAX@Z ; CChartAddInBase000000::QueryInterface
PUBLIC	?GetAddInCustomInterface@CChartAddInBase000000@@MAEPAUIUnknown@@XZ ; CChartAddInBase000000::GetAddInCustomInterface
PUBLIC	?InvokeAddIn@CChartAddInBase000000@@MAEHHJ@Z	; CChartAddInBase000000::InvokeAddIn
PUBLIC	?InvokeAddInStr@CChartAddInBase000000@@MAEHPBD0@Z ; CChartAddInBase000000::InvokeAddInStr
PUBLIC	?AfeterOnOcxDestroyWindow@CChartAddInBase000000@@MAEXXZ ; CChartAddInBase000000::AfeterOnOcxDestroyWindow
PUBLIC	?ChangeChartMode@CChartAddInBase000000@@MAEXW4CHART_MODE@CChartInfo@@@Z ; CChartAddInBase000000::ChangeChartMode
PUBLIC	?OnGSharedDataChange@CChartAddInBase000000@@MAEXPBD0H@Z ; CChartAddInBase000000::OnGSharedDataChange
PUBLIC	?OnLSharedDataChange@CChartAddInBase000000@@MAEXPBD0@Z ; CChartAddInBase000000::OnLSharedDataChange
PUBLIC	?OnDrawAfterGraph@CChartAddInBase000000@@MAEXPAUHDC__@@@Z ; CChartAddInBase000000::OnDrawAfterGraph
PUBLIC	?OnTimer@CChartAddInBase000000@@MAEXI@Z		; CChartAddInBase000000::OnTimer
PUBLIC	?OnCaptureChanged@CChartAddInBase000000@@MAEXPAUHWND__@@QAUHBITMAP__@@@Z ; CChartAddInBase000000::OnCaptureChanged
PUBLIC	?OnResetMainBlock@CChartAddInBase000000@@MAEXXZ	; CChartAddInBase000000::OnResetMainBlock
PUBLIC	?OnUserIndiatorConditionLoaded@CChartAddInBase000000@@MAEXXZ ; CChartAddInBase000000::OnUserIndiatorConditionLoaded
PUBLIC	?OnChartItemChanged@CChartAddInBase000000@@MAEXXZ ; CChartAddInBase000000::OnChartItemChanged
PUBLIC	?OnGraphDataChanged@CChartAddInBase000000@@MAEXXZ ; CChartAddInBase000000::OnGraphDataChanged
PUBLIC	?OnBlockRemoved@CChartAddInBase000000@@MAEXHH@Z	; CChartAddInBase000000::OnBlockRemoved
PUBLIC	?OnGraphAdded@CChartAddInBase000000@@MAEXPBD0@Z	; CChartAddInBase000000::OnGraphAdded
PUBLIC	?OnManualRealData@CChartAddInBase000000@@MAEXPBDNH@Z ; CChartAddInBase000000::OnManualRealData
PUBLIC	?OnContextMenu@CChartAddInBase000000@@MAEXPAUHWND__@@AAUtagPOINT@@@Z ; CChartAddInBase000000::OnContextMenu
PUBLIC	?OnGraphDeleted@CChartAddInBase000000@@MAEXPBD0@Z ; CChartAddInBase000000::OnGraphDeleted
PUBLIC	?OnPacketTruncated@CChartAddInBase000000@@MAEXH@Z ; CChartAddInBase000000::OnPacketTruncated
PUBLIC	?OnBlockChanged@CChartAddInBase000000@@MAEXW4BLOCKBEHAVIOR@CBlockBaseData@@HHHH@Z ; CChartAddInBase000000::OnBlockChanged
PUBLIC	?OnToolCommand@CChartAddInBase000000@@MAEXHH@Z	; CChartAddInBase000000::OnToolCommand
PUBLIC	?OnRealData@CChartAddInBase000000@@MAEXPBDN0@Z	; CChartAddInBase000000::OnRealData
PUBLIC	?OnIndexedRealData@CChartAddInBase000000@@MAEXPBDHN@Z ; CChartAddInBase000000::OnIndexedRealData
PUBLIC	?OnRealPacketEnd@CChartAddInBase000000@@MAEXPBD@Z ; CChartAddInBase000000::OnRealPacketEnd
PUBLIC	?OnRecalculationComplete@CChartAddInBase000000@@MAEXXZ ; CChartAddInBase000000::OnRecalculationComplete
PUBLIC	?OnPreRealData@CChartAddInBase000000@@MAEHPBDAAN0H@Z ; CChartAddInBase000000::OnPreRealData
PUBLIC	?OnPreIndexedRealData@CChartAddInBase000000@@MAEHPBDHAANH@Z ; CChartAddInBase000000::OnPreIndexedRealData
PUBLIC	?OnPreRealPacketEnd@CChartAddInBase000000@@MAEHPBDH@Z ; CChartAddInBase000000::OnPreRealPacketEnd
PUBLIC	?OnPreNMTRClock@CChartAddInBase000000@@MAEHAA_J@Z ; CChartAddInBase000000::OnPreNMTRClock
PUBLIC	?OnCmdMsg@CChartAddInBase000000@@MAEHIHPAUICmdUI000000@@@Z ; CChartAddInBase000000::OnCmdMsg
PUBLIC	?OnAddInMsg@CChartAddInBase000000@@MAEHPBDJ@Z	; CChartAddInBase000000::OnAddInMsg
PUBLIC	?OnAddInToolCommand@CChartAddInBase000000@@MAEHW4EAICommandType@@@Z ; CChartAddInBase000000::OnAddInToolCommand
PUBLIC	?OnAddInToolCommand@CChartAddInBase000000@@MAEHW4EAICommandType@@PAUHDC__@@IAAUtagPOINT@@K@Z ; CChartAddInBase000000::OnAddInToolCommand
PUBLIC	?OnAddInToolCommand@CChartAddInBase000000@@MAEHW4EAICommandType@@PBD@Z ; CChartAddInBase000000::OnAddInToolCommand
PUBLIC	?OnAddInToolCommand@CChartAddInBase000000@@MAEHW4EAICommandType@@PBD1@Z ; CChartAddInBase000000::OnAddInToolCommand
PUBLIC	?OnAddInToolCommand@CChartAddInBase000000@@MAEHW4EAICommandType@@PBDJ@Z ; CChartAddInBase000000::OnAddInToolCommand
PUBLIC	?OnAddInToolCommand@CChartAddInBase000000@@MAEHW4EAICommandType@@PBUIAddInDllBase@@@Z ; CChartAddInBase000000::OnAddInToolCommand
PUBLIC	?OnAddInToolCommand@CChartAddInBase000000@@MAEHW4EAICommandType@@JPBD@Z ; CChartAddInBase000000::OnAddInToolCommand
PUBLIC	?OnAddInToolCommand@CChartAddInBase000000@@MAEHW4EAICommandType@@JPBD11@Z ; CChartAddInBase000000::OnAddInToolCommand
PUBLIC	?OnAddInToolCommand@CChartAddInBase000000@@MAEHW4EAICommandType@@JJ@Z ; CChartAddInBase000000::OnAddInToolCommand
PUBLIC	?OnAddInToolCommand@CChartAddInBase000000@@MAEHW4EAICommandType@@JJJJJJJJJ@Z ; CChartAddInBase000000::OnAddInToolCommand
PUBLIC	?OnAddInToolCommand@CChartAddInBase000000@@MAEHAAJW4EAICommandType@@PAUIGraphInfo000000@@@Z ; CChartAddInBase000000::OnAddInToolCommand
PUBLIC	?OnAddInToolCommand@CChartAddInBase000000@@MAEHAAJW4EAICommandType@@PBD@Z ; CChartAddInBase000000::OnAddInToolCommand
PUBLIC	?OnAddInToolCommand@CChartAddInBase000000@@MAEHAAJW4EAICommandType@@PBDPAVCObject@@@Z ; CChartAddInBase000000::OnAddInToolCommand
PUBLIC	?OnAddInToolCommand@CChartAddInBase000000@@MAEHAAJW4EAICommandType@@J@Z ; CChartAddInBase000000::OnAddInToolCommand
PUBLIC	?OnAddInToolCommand@CChartAddInBase000000@@MAEHAAJW4EAICommandType@@JJ@Z ; CChartAddInBase000000::OnAddInToolCommand
PUBLIC	?OnKeyDown@CChartAddInBase000000@@MAEHIII@Z	; CChartAddInBase000000::OnKeyDown
PUBLIC	?OnKeyUp@CChartAddInBase000000@@MAEHIII@Z	; CChartAddInBase000000::OnKeyUp
PUBLIC	?OnMouseWheel@CChartAddInBase000000@@MAEHIFUtagPOINT@@K@Z ; CChartAddInBase000000::OnMouseWheel
PUBLIC	?OnLButtonDblClk@CChartAddInBase000000@@MAEHPAUHDC__@@IAAUtagPOINT@@K@Z ; CChartAddInBase000000::OnLButtonDblClk
PUBLIC	?OnRButtonDown@CChartAddInBase000000@@MAEHPAUHDC__@@IAAUtagPOINT@@K@Z ; CChartAddInBase000000::OnRButtonDown
PUBLIC	?OnRButtonUp@CChartAddInBase000000@@MAEHPAUHDC__@@IAAUtagPOINT@@K@Z ; CChartAddInBase000000::OnRButtonUp
PUBLIC	?OnRButtonDblClk@CChartAddInBase000000@@MAEHPAUHDC__@@IAAUtagPOINT@@K@Z ; CChartAddInBase000000::OnRButtonDblClk
PUBLIC	??0CAskingPriceIndicatorAddInImp@@QAE@PAUIChartOCX000000@@PAUIAddInDllBase@@@Z ; CAskingPriceIndicatorAddInImp::CAskingPriceIndicatorAddInImp
PUBLIC	??1CAskingPriceIndicatorAddInImp@@UAE@XZ	; CAskingPriceIndicatorAddInImp::~CAskingPriceIndicatorAddInImp
PUBLIC	?GetRegisteredEventMap@CAskingPriceIndicatorAddInImp@@MBEPBW4EAddInEventType@IChartAddIn000000@@XZ ; CAskingPriceIndicatorAddInImp::GetRegisteredEventMap
PUBLIC	?ClearAskingPriceGShareFireFlag@CAskingPriceIndicatorAddInImp@@IAEXXZ ; CAskingPriceIndicatorAddInImp::ClearAskingPriceGShareFireFlag
PUBLIC	?ResetBound@CAskingPriceIndicatorAddInImp@@MAEXPBD@Z ; CAskingPriceIndicatorAddInImp::ResetBound
PUBLIC	?OnResetChart@CAskingPriceIndicatorAddInImp@@MAEXXZ ; CAskingPriceIndicatorAddInImp::OnResetChart
PUBLIC	?OnDrawBeforeGraph@CAskingPriceIndicatorAddInImp@@MAEXPAUHDC__@@@Z ; CAskingPriceIndicatorAddInImp::OnDrawBeforeGraph
PUBLIC	?OnPacketDataMultiItem@CAskingPriceIndicatorAddInImp@@MAEXPBD0H@Z ; CAskingPriceIndicatorAddInImp::OnPacketDataMultiItem
PUBLIC	?OnLoadEnvironment@CAskingPriceIndicatorAddInImp@@MAEXPAUIPropertyMap@@@Z ; CAskingPriceIndicatorAddInImp::OnLoadEnvironment
PUBLIC	?OnSaveEnvironment@CAskingPriceIndicatorAddInImp@@MAEXPAUIPropertyMap@@@Z ; CAskingPriceIndicatorAddInImp::OnSaveEnvironment
PUBLIC	?DrawCursor@CAskingPriceIndicatorAddInImp@@MAE?AUtagRECT@@PAUHDC__@@@Z ; CAskingPriceIndicatorAddInImp::DrawCursor
PUBLIC	?OnAddInToolCommand@CAskingPriceIndicatorAddInImp@@MAEHW4EAICommandType@@J@Z ; CAskingPriceIndicatorAddInImp::OnAddInToolCommand
PUBLIC	?OnAddInToolCommand@CAskingPriceIndicatorAddInImp@@MAEHAAJW4EAICommandType@@@Z ; CAskingPriceIndicatorAddInImp::OnAddInToolCommand
PUBLIC	?OnMouseMove@CAskingPriceIndicatorAddInImp@@MAEHPAUHDC__@@IAAUtagPOINT@@KQAUHBITMAP__@@@Z ; CAskingPriceIndicatorAddInImp::OnMouseMove
PUBLIC	?OnLButtonDown@CAskingPriceIndicatorAddInImp@@MAEHPAUHDC__@@IAAUtagPOINT@@K@Z ; CAskingPriceIndicatorAddInImp::OnLButtonDown
PUBLIC	?OnLButtonUp@CAskingPriceIndicatorAddInImp@@MAEHPAUHDC__@@IAAUtagPOINT@@K@Z ; CAskingPriceIndicatorAddInImp::OnLButtonUp
PUBLIC	??_GCAskingPriceIndicatorAddInImp@@UAEPAXI@Z	; CAskingPriceIndicatorAddInImp::`scalar deleting destructor'
PUBLIC	??1CMultiLanguageResourceSetter@@QAE@XZ		; CMultiLanguageResourceSetter::~CMultiLanguageResourceSetter
PUBLIC	??1ILPCSTR000000@@QAE@XZ			; ILPCSTR000000::~ILPCSTR000000
PUBLIC	?QueryInterface@CChartAddInBase000000@@O7AGJABU_GUID@@PAPAX@Z ; [thunk]:CChartAddInBase000000::QueryInterface`adjustor{8}'
PUBLIC	?AddRef@CChartAddInBase000000@@O7AGKXZ		; [thunk]:CChartAddInBase000000::AddRef`adjustor{8}'
PUBLIC	?Release@CChartAddInBase000000@@O7AGKXZ		; [thunk]:CChartAddInBase000000::Release`adjustor{8}'
PUBLIC	??_ECAskingPriceIndicatorAddInImp@@W7AEPAXI@Z	; [thunk]:CAskingPriceIndicatorAddInImp::`vector deleting destructor'
PUBLIC	??_R0?AVCObject@@@8				; CObject `RTTI Type Descriptor'
PUBLIC	??_R3CObject@@8					; CObject::`RTTI Class Hierarchy Descriptor'
PUBLIC	??_R2CObject@@8					; CObject::`RTTI Base Class Array'
PUBLIC	??_R1A@?0A@EA@CObject@@8			; CObject::`RTTI Base Class Descriptor at (0,-1,0,64)'
PUBLIC	??_R0?AUIUnknown@@@8				; IUnknown `RTTI Type Descriptor'
PUBLIC	??_R3IUnknown@@8				; IUnknown::`RTTI Class Hierarchy Descriptor'
PUBLIC	??_R2IUnknown@@8				; IUnknown::`RTTI Base Class Array'
PUBLIC	??_R1A@?0A@EA@IUnknown@@8			; IUnknown::`RTTI Base Class Descriptor at (0,-1,0,64)'
PUBLIC	?m_strAddInItemName@CAskingPriceIndicatorAddInImp@@2V?$CStringT@DV?$StrTraitMFC_DLL@DV?$ChTraitsCRT@D@ATL@@@@@ATL@@A ; CAskingPriceIndicatorAddInImp::m_strAddInItemName
PUBLIC	??_7CAskingPriceIndicatorAddInImp@@6BCIWUnknown@@@ ; CAskingPriceIndicatorAddInImp::`vftable'
PUBLIC	??_7CAskingPriceIndicatorAddInImp@@6BIChartAddIn000000@@@ ; CAskingPriceIndicatorAddInImp::`vftable'
PUBLIC	??_C@_0O@KJONPKHB@PriceUnit?4dll@		; `string'
PUBLIC	??_C@_0P@NAILJLIK@__GetPriceUnit@		; `string'
PUBLIC	??_C@_04GHNNFJCK@?$CF?40f@			; `string'
PUBLIC	??_C@_06DNBDMDIL@?$CF?$CF?4?$CFdf@		; `string'
PUBLIC	??_C@_01OGPIMHDM@?$DP@				; `string'
PUBLIC	??_R0?AUIChartAddIn000000@@@8			; IChartAddIn000000 `RTTI Type Descriptor'
PUBLIC	??_R3IChartAddIn000000@@8			; IChartAddIn000000::`RTTI Class Hierarchy Descriptor'
PUBLIC	??_R2IChartAddIn000000@@8			; IChartAddIn000000::`RTTI Base Class Array'
PUBLIC	??_R1A@?0A@EA@IChartAddIn000000@@8		; IChartAddIn000000::`RTTI Base Class Descriptor at (0,-1,0,64)'
PUBLIC	??_R4CAskingPriceIndicatorAddInImp@@6BCIWUnknown@@@ ; CAskingPriceIndicatorAddInImp::`RTTI Complete Object Locator'
PUBLIC	??_R0?AVCAskingPriceIndicatorAddInImp@@@8	; CAskingPriceIndicatorAddInImp `RTTI Type Descriptor'
PUBLIC	??_R3CAskingPriceIndicatorAddInImp@@8		; CAskingPriceIndicatorAddInImp::`RTTI Class Hierarchy Descriptor'
PUBLIC	??_R2CAskingPriceIndicatorAddInImp@@8		; CAskingPriceIndicatorAddInImp::`RTTI Base Class Array'
PUBLIC	??_R1A@?0A@EA@CAskingPriceIndicatorAddInImp@@8	; CAskingPriceIndicatorAddInImp::`RTTI Base Class Descriptor at (0,-1,0,64)'
PUBLIC	??_R1A@?0A@EA@CBoundMarkerAddInImp@@8		; CBoundMarkerAddInImp::`RTTI Base Class Descriptor at (0,-1,0,64)'
PUBLIC	??_R0?AVCBoundMarkerAddInImp@@@8		; CBoundMarkerAddInImp `RTTI Type Descriptor'
PUBLIC	??_R3CBoundMarkerAddInImp@@8			; CBoundMarkerAddInImp::`RTTI Class Hierarchy Descriptor'
PUBLIC	??_R2CBoundMarkerAddInImp@@8			; CBoundMarkerAddInImp::`RTTI Base Class Array'
PUBLIC	??_R1A@?0A@EA@CChartAddInBase000000@@8		; CChartAddInBase000000::`RTTI Base Class Descriptor at (0,-1,0,64)'
PUBLIC	??_R0?AVCChartAddInBase000000@@@8		; CChartAddInBase000000 `RTTI Type Descriptor'
PUBLIC	??_R3CChartAddInBase000000@@8			; CChartAddInBase000000::`RTTI Class Hierarchy Descriptor'
PUBLIC	??_R2CChartAddInBase000000@@8			; CChartAddInBase000000::`RTTI Base Class Array'
PUBLIC	??_R1A@?0A@EA@CIWUnknown@@8			; CIWUnknown::`RTTI Base Class Descriptor at (0,-1,0,64)'
PUBLIC	??_R0?AVCIWUnknown@@@8				; CIWUnknown `RTTI Type Descriptor'
PUBLIC	??_R3CIWUnknown@@8				; CIWUnknown::`RTTI Class Hierarchy Descriptor'
PUBLIC	??_R2CIWUnknown@@8				; CIWUnknown::`RTTI Base Class Array'
PUBLIC	??_R17?0A@EA@IChartAddIn000000@@8		; IChartAddIn000000::`RTTI Base Class Descriptor at (8,-1,0,64)'
PUBLIC	??_R17?0A@EA@IUnknown@@8			; IUnknown::`RTTI Base Class Descriptor at (8,-1,0,64)'
PUBLIC	??_R4CAskingPriceIndicatorAddInImp@@6BIChartAddIn000000@@@ ; CAskingPriceIndicatorAddInImp::`RTTI Complete Object Locator'
PUBLIC	__real@0000000000000000
PUBLIC	__real@4059000000000000
PUBLIC	__real@c197d783fc000000
EXTRN	??3@YAXPAX@Z:PROC				; operator delete
EXTRN	?__global_delete@@YAXPAXI@Z:PROC		; __global_delete
EXTRN	_atexit:PROC
EXTRN	___std_terminate:PROC
EXTRN	_strchr:PROC
EXTRN	__imp__FreeLibrary@4:PROC
EXTRN	__imp__GetProcAddress@8:PROC
EXTRN	__imp__LoadLibraryA@4:PROC
EXTRN	__imp__GetTextExtentPoint32A@16:PROC
EXTRN	__imp__Rectangle@20:PROC
EXTRN	__imp__GetClientRect@8:PROC
EXTRN	__imp__SetRectEmpty@4:PROC
EXTRN	__imp__InflateRect@12:PROC
EXTRN	__imp__UnionRect@12:PROC
EXTRN	__imp__PtInRect@12:PROC
EXTRN	__imp__LoadCursorA@8:PROC
EXTRN	__imp__LoadCursorW@8:PROC
EXTRN	__imp__atof:PROC
EXTRN	__imp__atol:PROC
EXTRN	?GetRuntimeClass@CObject@@UBEPAUCRuntimeClass@@XZ:PROC ; CObject::GetRuntimeClass
EXTRN	__imp_?Empty@?$CSimpleStringT@D$00@ATL@@QAEXXZ:PROC
EXTRN	__imp_?GetBuffer@?$CSimpleStringT@D$00@ATL@@QAEPADH@Z:PROC
EXTRN	__imp_?ReleaseBuffer@?$CSimpleStringT@D$00@ATL@@QAEXH@Z:PROC
EXTRN	__imp_?Concatenate@?$CSimpleStringT@D$00@ATL@@KAXAAV12@PBDH1H@Z:PROC
EXTRN	__imp_??0?$CStringT@DV?$StrTraitMFC_DLL@DV?$ChTraitsCRT@D@ATL@@@@@ATL@@QAE@XZ:PROC
EXTRN	__imp_??0?$CStringT@DV?$StrTraitMFC_DLL@DV?$ChTraitsCRT@D@ATL@@@@@ATL@@QAE@PAUIAtlStringMgr@1@@Z:PROC
EXTRN	__imp_??0?$CStringT@DV?$StrTraitMFC_DLL@DV?$ChTraitsCRT@D@ATL@@@@@ATL@@QAE@PBD@Z:PROC
EXTRN	__imp_??1?$CStringT@DV?$StrTraitMFC_DLL@DV?$ChTraitsCRT@D@ATL@@@@@ATL@@QAE@XZ:PROC
EXTRN	__imp_??4?$CStringT@DV?$StrTraitMFC_DLL@DV?$ChTraitsCRT@D@ATL@@@@@ATL@@QAEAAV01@ABV01@@Z:PROC
EXTRN	__imp_??4?$CStringT@DV?$StrTraitMFC_DLL@DV?$ChTraitsCRT@D@ATL@@@@@ATL@@QAEAAV01@PBD@Z:PROC
EXTRN	__imp_?GetManager@?$CStringT@DV?$StrTraitMFC_DLL@DV?$ChTraitsCRT@D@ATL@@@@@ATL@@QBEPAUIAtlStringMgr@2@XZ:PROC
EXTRN	__imp_?Find@?$CStringT@DV?$StrTraitMFC_DLL@DV?$ChTraitsCRT@D@ATL@@@@@ATL@@QBEHDH@Z:PROC
EXTRN	__imp_?TrimRight@?$CStringT@DV?$StrTraitMFC_DLL@DV?$ChTraitsCRT@D@ATL@@@@@ATL@@QAEAAV12@XZ:PROC
EXTRN	__imp_?Left@?$CStringT@DV?$StrTraitMFC_DLL@DV?$ChTraitsCRT@D@ATL@@@@@ATL@@QBE?AV12@H@Z:PROC
EXTRN	__imp_?Format@?$CStringT@DV?$StrTraitMFC_DLL@DV?$ChTraitsCRT@D@ATL@@@@@ATL@@QAAXPBDZZ:PROC
EXTRN	?AfxGetModuleState@@YGPAVAFX_MODULE_STATE@@XZ:PROC ; AfxGetModuleState
EXTRN	?AfxGetStaticModuleState@@YGPAVAFX_MODULE_STATE@@XZ:PROC ; AfxGetStaticModuleState
EXTRN	?FromHandle@CDC@@SGPAV1@PAUHDC__@@@Z:PROC	; CDC::FromHandle
EXTRN	?SelectObject@CDC@@QAEPAVCPen@@PAV2@@Z:PROC	; CDC::SelectObject
EXTRN	?SelectObject@CDC@@QAEPAVCBrush@@PAV2@@Z:PROC	; CDC::SelectObject
EXTRN	?SetROP2@CDC@@QAEHH@Z:PROC			; CDC::SetROP2
EXTRN	?MoveTo@CDC@@QAE?AVCPoint@@HH@Z:PROC		; CDC::MoveTo
EXTRN	?LineTo@CDC@@QAEHHH@Z:PROC			; CDC::LineTo
EXTRN	?AfxFindResourceHandle@@YGPAUHINSTANCE__@@PBD0@Z:PROC ; AfxFindResourceHandle
EXTRN	?AddRef@CIWUnknown@@MAGKXZ:PROC			; CIWUnknown::AddRef
EXTRN	?Release@CIWUnknown@@MAGKXZ:PROC		; CIWUnknown::Release
EXTRN	?HasFullManager@CChartAddInBase000000@@MAEHXZ:PROC ; CChartAddInBase000000::HasFullManager
EXTRN	?RegisterEventMap@CChartAddInBase000000@@UAEHH@Z:PROC ; CChartAddInBase000000::RegisterEventMap
EXTRN	?UnregisterEventMap@CChartAddInBase000000@@UAEHXZ:PROC ; CChartAddInBase000000::UnregisterEventMap
EXTRN	?OnOcxDestroyWindow@CChartAddInBase000000@@MAEXXZ:PROC ; CChartAddInBase000000::OnOcxDestroyWindow
EXTRN	??0CBoundMarkerAddInImp@@QAE@PAUIChartOCX000000@@PAUIAddInDllBase@@@Z:PROC ; CBoundMarkerAddInImp::CBoundMarkerAddInImp
EXTRN	??1CBoundMarkerAddInImp@@UAE@XZ:PROC		; CBoundMarkerAddInImp::~CBoundMarkerAddInImp
EXTRN	?ResetBound@CBoundMarkerAddInImp@@MAEXPBD@Z:PROC ; CBoundMarkerAddInImp::ResetBound
EXTRN	?EnableBoundMark@CBoundMarkerAddInImp@@IAEXH@Z:PROC ; CBoundMarkerAddInImp::EnableBoundMark
EXTRN	?OnDrawBeforeGraph@CBoundMarkerAddInImp@@MAEXPAUHDC__@@@Z:PROC ; CBoundMarkerAddInImp::OnDrawBeforeGraph
EXTRN	?OnPacketDataMultiItem@CBoundMarkerAddInImp@@MAEXPBD0H@Z:PROC ; CBoundMarkerAddInImp::OnPacketDataMultiItem
EXTRN	?OnLoadEnvironment@CBoundMarkerAddInImp@@MAEXPAUIPropertyMap@@@Z:PROC ; CBoundMarkerAddInImp::OnLoadEnvironment
EXTRN	?OnSaveEnvironment@CBoundMarkerAddInImp@@MAEXPAUIPropertyMap@@@Z:PROC ; CBoundMarkerAddInImp::OnSaveEnvironment
EXTRN	??_ECAskingPriceIndicatorAddInImp@@UAEPAXI@Z:PROC ; CAskingPriceIndicatorAddInImp::`vector deleting destructor'
EXTRN	@__security_check_cookie@4:PROC
EXTRN	___CxxFrameHandler3:PROC
EXTRN	__libm_sse2_log10_precise:PROC
EXTRN	??_7type_info@@6B@:QWORD			; type_info::`vftable'
EXTRN	?g_iMetaTable@@3VIMetaTable@@A:BYTE		; g_iMetaTable
EXTRN	___security_cookie:DWORD
EXTRN	__fltused:DWORD
_BSS	SEGMENT
?m_strAddInItemName@CAskingPriceIndicatorAddInImp@@2V?$CStringT@DV?$StrTraitMFC_DLL@DV?$ChTraitsCRT@D@ATL@@@@@ATL@@A DD 01H DUP (?) ; CAskingPriceIndicatorAddInImp::m_strAddInItemName
_BSS	ENDS
CRT$XCU	SEGMENT
??m_strAddInItemName$initializer$@CAskingPriceIndicatorAddInImp@@2P6AXXZA@@3P6AXXZA DD FLAT:??__E?m_strAddInItemName@CAskingPriceIndicatorAddInImp@@2V?$CStringT@DV?$StrTraitMFC_DLL@DV?$ChTraitsCRT@D@ATL@@@@@ATL@@A@@YAXXZ ; ??m_strAddInItemName$initializer$@CAskingPriceIndicatorAddInImp@@2P6AXXZA@@3P6AXXZA
CRT$XCU	ENDS
;	COMDAT __real@c197d783fc000000
CONST	SEGMENT
__real@c197d783fc000000 DQ 0c197d783fc000000r	; -1e+08
CONST	ENDS
;	COMDAT __real@4059000000000000
CONST	SEGMENT
__real@4059000000000000 DQ 04059000000000000r	; 100
CONST	ENDS
;	COMDAT __real@0000000000000000
CONST	SEGMENT
__real@0000000000000000 DQ 00000000000000000r	; 0
CONST	ENDS
;	COMDAT ??_R4CAskingPriceIndicatorAddInImp@@6BIChartAddIn000000@@@
rdata$r	SEGMENT
??_R4CAskingPriceIndicatorAddInImp@@6BIChartAddIn000000@@@ DD 00H ; CAskingPriceIndicatorAddInImp::`RTTI Complete Object Locator'
	DD	08H
	DD	00H
	DD	FLAT:??_R0?AVCAskingPriceIndicatorAddInImp@@@8
	DD	FLAT:??_R3CAskingPriceIndicatorAddInImp@@8
rdata$r	ENDS
;	COMDAT ??_R17?0A@EA@IUnknown@@8
rdata$r	SEGMENT
??_R17?0A@EA@IUnknown@@8 DD FLAT:??_R0?AUIUnknown@@@8	; IUnknown::`RTTI Base Class Descriptor at (8,-1,0,64)'
	DD	00H
	DD	08H
	DD	0ffffffffH
	DD	00H
	DD	040H
	DD	FLAT:??_R3IUnknown@@8
rdata$r	ENDS
;	COMDAT ??_R17?0A@EA@IChartAddIn000000@@8
rdata$r	SEGMENT
??_R17?0A@EA@IChartAddIn000000@@8 DD FLAT:??_R0?AUIChartAddIn000000@@@8 ; IChartAddIn000000::`RTTI Base Class Descriptor at (8,-1,0,64)'
	DD	01H
	DD	08H
	DD	0ffffffffH
	DD	00H
	DD	040H
	DD	FLAT:??_R3IChartAddIn000000@@8
rdata$r	ENDS
;	COMDAT ??_R2CIWUnknown@@8
rdata$r	SEGMENT
??_R2CIWUnknown@@8 DD FLAT:??_R1A@?0A@EA@CIWUnknown@@8	; CIWUnknown::`RTTI Base Class Array'
	DD	FLAT:??_R1A@?0A@EA@CObject@@8
rdata$r	ENDS
;	COMDAT ??_R3CIWUnknown@@8
rdata$r	SEGMENT
??_R3CIWUnknown@@8 DD 00H				; CIWUnknown::`RTTI Class Hierarchy Descriptor'
	DD	00H
	DD	02H
	DD	FLAT:??_R2CIWUnknown@@8
rdata$r	ENDS
;	COMDAT ??_R0?AVCIWUnknown@@@8
data$rs	SEGMENT
??_R0?AVCIWUnknown@@@8 DD FLAT:??_7type_info@@6B@	; CIWUnknown `RTTI Type Descriptor'
	DD	00H
	DB	'.?AVCIWUnknown@@', 00H
data$rs	ENDS
;	COMDAT ??_R1A@?0A@EA@CIWUnknown@@8
rdata$r	SEGMENT
??_R1A@?0A@EA@CIWUnknown@@8 DD FLAT:??_R0?AVCIWUnknown@@@8 ; CIWUnknown::`RTTI Base Class Descriptor at (0,-1,0,64)'
	DD	01H
	DD	00H
	DD	0ffffffffH
	DD	00H
	DD	040H
	DD	FLAT:??_R3CIWUnknown@@8
rdata$r	ENDS
;	COMDAT ??_R2CChartAddInBase000000@@8
rdata$r	SEGMENT
??_R2CChartAddInBase000000@@8 DD FLAT:??_R1A@?0A@EA@CChartAddInBase000000@@8 ; CChartAddInBase000000::`RTTI Base Class Array'
	DD	FLAT:??_R1A@?0A@EA@CIWUnknown@@8
	DD	FLAT:??_R1A@?0A@EA@CObject@@8
	DD	FLAT:??_R17?0A@EA@IChartAddIn000000@@8
	DD	FLAT:??_R17?0A@EA@IUnknown@@8
rdata$r	ENDS
;	COMDAT ??_R3CChartAddInBase000000@@8
rdata$r	SEGMENT
??_R3CChartAddInBase000000@@8 DD 00H			; CChartAddInBase000000::`RTTI Class Hierarchy Descriptor'
	DD	01H
	DD	05H
	DD	FLAT:??_R2CChartAddInBase000000@@8
rdata$r	ENDS
;	COMDAT ??_R0?AVCChartAddInBase000000@@@8
data$rs	SEGMENT
??_R0?AVCChartAddInBase000000@@@8 DD FLAT:??_7type_info@@6B@ ; CChartAddInBase000000 `RTTI Type Descriptor'
	DD	00H
	DB	'.?AVCChartAddInBase000000@@', 00H
data$rs	ENDS
;	COMDAT ??_R1A@?0A@EA@CChartAddInBase000000@@8
rdata$r	SEGMENT
??_R1A@?0A@EA@CChartAddInBase000000@@8 DD FLAT:??_R0?AVCChartAddInBase000000@@@8 ; CChartAddInBase000000::`RTTI Base Class Descriptor at (0,-1,0,64)'
	DD	04H
	DD	00H
	DD	0ffffffffH
	DD	00H
	DD	040H
	DD	FLAT:??_R3CChartAddInBase000000@@8
rdata$r	ENDS
;	COMDAT ??_R2CBoundMarkerAddInImp@@8
rdata$r	SEGMENT
??_R2CBoundMarkerAddInImp@@8 DD FLAT:??_R1A@?0A@EA@CBoundMarkerAddInImp@@8 ; CBoundMarkerAddInImp::`RTTI Base Class Array'
	DD	FLAT:??_R1A@?0A@EA@CChartAddInBase000000@@8
	DD	FLAT:??_R1A@?0A@EA@CIWUnknown@@8
	DD	FLAT:??_R1A@?0A@EA@CObject@@8
	DD	FLAT:??_R17?0A@EA@IChartAddIn000000@@8
	DD	FLAT:??_R17?0A@EA@IUnknown@@8
rdata$r	ENDS
;	COMDAT ??_R3CBoundMarkerAddInImp@@8
rdata$r	SEGMENT
??_R3CBoundMarkerAddInImp@@8 DD 00H			; CBoundMarkerAddInImp::`RTTI Class Hierarchy Descriptor'
	DD	01H
	DD	06H
	DD	FLAT:??_R2CBoundMarkerAddInImp@@8
rdata$r	ENDS
;	COMDAT ??_R0?AVCBoundMarkerAddInImp@@@8
data$rs	SEGMENT
??_R0?AVCBoundMarkerAddInImp@@@8 DD FLAT:??_7type_info@@6B@ ; CBoundMarkerAddInImp `RTTI Type Descriptor'
	DD	00H
	DB	'.?AVCBoundMarkerAddInImp@@', 00H
data$rs	ENDS
;	COMDAT ??_R1A@?0A@EA@CBoundMarkerAddInImp@@8
rdata$r	SEGMENT
??_R1A@?0A@EA@CBoundMarkerAddInImp@@8 DD FLAT:??_R0?AVCBoundMarkerAddInImp@@@8 ; CBoundMarkerAddInImp::`RTTI Base Class Descriptor at (0,-1,0,64)'
	DD	05H
	DD	00H
	DD	0ffffffffH
	DD	00H
	DD	040H
	DD	FLAT:??_R3CBoundMarkerAddInImp@@8
rdata$r	ENDS
;	COMDAT ??_R1A@?0A@EA@CAskingPriceIndicatorAddInImp@@8
rdata$r	SEGMENT
??_R1A@?0A@EA@CAskingPriceIndicatorAddInImp@@8 DD FLAT:??_R0?AVCAskingPriceIndicatorAddInImp@@@8 ; CAskingPriceIndicatorAddInImp::`RTTI Base Class Descriptor at (0,-1,0,64)'
	DD	06H
	DD	00H
	DD	0ffffffffH
	DD	00H
	DD	040H
	DD	FLAT:??_R3CAskingPriceIndicatorAddInImp@@8
rdata$r	ENDS
;	COMDAT ??_R2CAskingPriceIndicatorAddInImp@@8
rdata$r	SEGMENT
??_R2CAskingPriceIndicatorAddInImp@@8 DD FLAT:??_R1A@?0A@EA@CAskingPriceIndicatorAddInImp@@8 ; CAskingPriceIndicatorAddInImp::`RTTI Base Class Array'
	DD	FLAT:??_R1A@?0A@EA@CBoundMarkerAddInImp@@8
	DD	FLAT:??_R1A@?0A@EA@CChartAddInBase000000@@8
	DD	FLAT:??_R1A@?0A@EA@CIWUnknown@@8
	DD	FLAT:??_R1A@?0A@EA@CObject@@8
	DD	FLAT:??_R17?0A@EA@IChartAddIn000000@@8
	DD	FLAT:??_R17?0A@EA@IUnknown@@8
rdata$r	ENDS
;	COMDAT ??_R3CAskingPriceIndicatorAddInImp@@8
rdata$r	SEGMENT
??_R3CAskingPriceIndicatorAddInImp@@8 DD 00H		; CAskingPriceIndicatorAddInImp::`RTTI Class Hierarchy Descriptor'
	DD	01H
	DD	07H
	DD	FLAT:??_R2CAskingPriceIndicatorAddInImp@@8
rdata$r	ENDS
;	COMDAT ??_R0?AVCAskingPriceIndicatorAddInImp@@@8
data$rs	SEGMENT
??_R0?AVCAskingPriceIndicatorAddInImp@@@8 DD FLAT:??_7type_info@@6B@ ; CAskingPriceIndicatorAddInImp `RTTI Type Descriptor'
	DD	00H
	DB	'.?AVCAskingPriceIndicatorAddInImp@@', 00H
data$rs	ENDS
;	COMDAT ??_R4CAskingPriceIndicatorAddInImp@@6BCIWUnknown@@@
rdata$r	SEGMENT
??_R4CAskingPriceIndicatorAddInImp@@6BCIWUnknown@@@ DD 00H ; CAskingPriceIndicatorAddInImp::`RTTI Complete Object Locator'
	DD	00H
	DD	00H
	DD	FLAT:??_R0?AVCAskingPriceIndicatorAddInImp@@@8
	DD	FLAT:??_R3CAskingPriceIndicatorAddInImp@@8
rdata$r	ENDS
;	COMDAT ??_R1A@?0A@EA@IChartAddIn000000@@8
rdata$r	SEGMENT
??_R1A@?0A@EA@IChartAddIn000000@@8 DD FLAT:??_R0?AUIChartAddIn000000@@@8 ; IChartAddIn000000::`RTTI Base Class Descriptor at (0,-1,0,64)'
	DD	01H
	DD	00H
	DD	0ffffffffH
	DD	00H
	DD	040H
	DD	FLAT:??_R3IChartAddIn000000@@8
rdata$r	ENDS
;	COMDAT ??_R2IChartAddIn000000@@8
rdata$r	SEGMENT
??_R2IChartAddIn000000@@8 DD FLAT:??_R1A@?0A@EA@IChartAddIn000000@@8 ; IChartAddIn000000::`RTTI Base Class Array'
	DD	FLAT:??_R1A@?0A@EA@IUnknown@@8
rdata$r	ENDS
;	COMDAT ??_R3IChartAddIn000000@@8
rdata$r	SEGMENT
??_R3IChartAddIn000000@@8 DD 00H			; IChartAddIn000000::`RTTI Class Hierarchy Descriptor'
	DD	00H
	DD	02H
	DD	FLAT:??_R2IChartAddIn000000@@8
rdata$r	ENDS
;	COMDAT ??_R0?AUIChartAddIn000000@@@8
data$rs	SEGMENT
??_R0?AUIChartAddIn000000@@@8 DD FLAT:??_7type_info@@6B@ ; IChartAddIn000000 `RTTI Type Descriptor'
	DD	00H
	DB	'.?AUIChartAddIn000000@@', 00H
data$rs	ENDS
;	COMDAT ??_C@_01OGPIMHDM@?$DP@
CONST	SEGMENT
??_C@_01OGPIMHDM@?$DP@ DB '?', 00H			; `string'
CONST	ENDS
;	COMDAT ??_C@_06DNBDMDIL@?$CF?$CF?4?$CFdf@
CONST	SEGMENT
??_C@_06DNBDMDIL@?$CF?$CF?4?$CFdf@ DB '%%.%df', 00H	; `string'
CONST	ENDS
;	COMDAT ??_C@_04GHNNFJCK@?$CF?40f@
CONST	SEGMENT
??_C@_04GHNNFJCK@?$CF?40f@ DB '%.0f', 00H		; `string'
CONST	ENDS
;	COMDAT ??_C@_0P@NAILJLIK@__GetPriceUnit@
CONST	SEGMENT
??_C@_0P@NAILJLIK@__GetPriceUnit@ DB '__GetPriceUnit', 00H ; `string'
CONST	ENDS
;	COMDAT ??_C@_0O@KJONPKHB@PriceUnit?4dll@
CONST	SEGMENT
??_C@_0O@KJONPKHB@PriceUnit?4dll@ DB 'PriceUnit.dll', 00H ; `string'
CONST	ENDS
;	COMDAT ??_7CAskingPriceIndicatorAddInImp@@6BIChartAddIn000000@@@
CONST	SEGMENT
??_7CAskingPriceIndicatorAddInImp@@6BIChartAddIn000000@@@ DD FLAT:??_R4CAskingPriceIndicatorAddInImp@@6BIChartAddIn000000@@@ ; CAskingPriceIndicatorAddInImp::`vftable'
	DD	FLAT:?QueryInterface@CChartAddInBase000000@@O7AGJABU_GUID@@PAPAX@Z
	DD	FLAT:?AddRef@CChartAddInBase000000@@O7AGKXZ
	DD	FLAT:?Release@CChartAddInBase000000@@O7AGKXZ
	DD	FLAT:??_ECAskingPriceIndicatorAddInImp@@W7AEPAXI@Z
	DD	FLAT:?HasFullManager@CChartAddInBase000000@@MAEHXZ
	DD	FLAT:?GetAddInCustomInterface@CChartAddInBase000000@@MAEPAUIUnknown@@XZ
	DD	FLAT:?InvokeAddIn@CChartAddInBase000000@@MAEHHJ@Z
	DD	FLAT:?InvokeAddInStr@CChartAddInBase000000@@MAEHPBD0@Z
	DD	FLAT:?OnOcxDestroyWindow@CChartAddInBase000000@@MAEXXZ
	DD	FLAT:?ChangeChartMode@CChartAddInBase000000@@MAEXW4CHART_MODE@CChartInfo@@@Z
	DD	FLAT:?RegisterEventMap@CChartAddInBase000000@@UAEHH@Z
	DD	FLAT:?UnregisterEventMap@CChartAddInBase000000@@UAEHXZ
	DD	FLAT:?OnGSharedDataChange@CChartAddInBase000000@@MAEXPBD0H@Z
	DD	FLAT:?OnLSharedDataChange@CChartAddInBase000000@@MAEXPBD0@Z
	DD	FLAT:?OnResetChart@CAskingPriceIndicatorAddInImp@@MAEXXZ
	DD	FLAT:?OnDrawBeforeGraph@CAskingPriceIndicatorAddInImp@@MAEXPAUHDC__@@@Z
	DD	FLAT:?OnDrawAfterGraph@CChartAddInBase000000@@MAEXPAUHDC__@@@Z
	DD	FLAT:?OnPacketDataMultiItem@CAskingPriceIndicatorAddInImp@@MAEXPBD0H@Z
	DD	FLAT:?OnTimer@CChartAddInBase000000@@MAEXI@Z
	DD	FLAT:?OnCaptureChanged@CChartAddInBase000000@@MAEXPAUHWND__@@QAUHBITMAP__@@@Z
	DD	FLAT:?OnResetMainBlock@CChartAddInBase000000@@MAEXXZ
	DD	FLAT:?OnUserIndiatorConditionLoaded@CChartAddInBase000000@@MAEXXZ
	DD	FLAT:?OnChartItemChanged@CChartAddInBase000000@@MAEXXZ
	DD	FLAT:?OnGraphDataChanged@CChartAddInBase000000@@MAEXXZ
	DD	FLAT:?OnBlockRemoved@CChartAddInBase000000@@MAEXHH@Z
	DD	FLAT:?OnGraphAdded@CChartAddInBase000000@@MAEXPBD0@Z
	DD	FLAT:?OnManualRealData@CChartAddInBase000000@@MAEXPBDNH@Z
	DD	FLAT:?OnContextMenu@CChartAddInBase000000@@MAEXPAUHWND__@@AAUtagPOINT@@@Z
	DD	FLAT:?OnGraphDeleted@CChartAddInBase000000@@MAEXPBD0@Z
	DD	FLAT:?OnPacketTruncated@CChartAddInBase000000@@MAEXH@Z
	DD	FLAT:?OnBlockChanged@CChartAddInBase000000@@MAEXW4BLOCKBEHAVIOR@CBlockBaseData@@HHHH@Z
	DD	FLAT:?OnToolCommand@CChartAddInBase000000@@MAEXHH@Z
	DD	FLAT:?OnRealData@CChartAddInBase000000@@MAEXPBDN0@Z
	DD	FLAT:?OnIndexedRealData@CChartAddInBase000000@@MAEXPBDHN@Z
	DD	FLAT:?OnRealPacketEnd@CChartAddInBase000000@@MAEXPBD@Z
	DD	FLAT:?OnLoadEnvironment@CAskingPriceIndicatorAddInImp@@MAEXPAUIPropertyMap@@@Z
	DD	FLAT:?OnSaveEnvironment@CAskingPriceIndicatorAddInImp@@MAEXPAUIPropertyMap@@@Z
	DD	FLAT:?DrawCursor@CAskingPriceIndicatorAddInImp@@MAE?AUtagRECT@@PAUHDC__@@@Z
	DD	FLAT:?OnRecalculationComplete@CChartAddInBase000000@@MAEXXZ
	DD	FLAT:?OnPreRealData@CChartAddInBase000000@@MAEHPBDAAN0H@Z
	DD	FLAT:?OnPreIndexedRealData@CChartAddInBase000000@@MAEHPBDHAANH@Z
	DD	FLAT:?OnPreRealPacketEnd@CChartAddInBase000000@@MAEHPBDH@Z
	DD	FLAT:?OnPreNMTRClock@CChartAddInBase000000@@MAEHAA_J@Z
	DD	FLAT:?OnCmdMsg@CChartAddInBase000000@@MAEHIHPAUICmdUI000000@@@Z
	DD	FLAT:?OnAddInMsg@CChartAddInBase000000@@MAEHPBDJ@Z
	DD	FLAT:?OnAddInToolCommand@CChartAddInBase000000@@MAEHAAJW4EAICommandType@@JJ@Z
	DD	FLAT:?OnAddInToolCommand@CChartAddInBase000000@@MAEHAAJW4EAICommandType@@J@Z
	DD	FLAT:?OnAddInToolCommand@CChartAddInBase000000@@MAEHAAJW4EAICommandType@@PBDPAVCObject@@@Z
	DD	FLAT:?OnAddInToolCommand@CChartAddInBase000000@@MAEHAAJW4EAICommandType@@PBD@Z
	DD	FLAT:?OnAddInToolCommand@CChartAddInBase000000@@MAEHAAJW4EAICommandType@@PAUIGraphInfo000000@@@Z
	DD	FLAT:?OnAddInToolCommand@CAskingPriceIndicatorAddInImp@@MAEHAAJW4EAICommandType@@@Z
	DD	FLAT:?OnAddInToolCommand@CChartAddInBase000000@@MAEHW4EAICommandType@@JJJJJJJJJ@Z
	DD	FLAT:?OnAddInToolCommand@CChartAddInBase000000@@MAEHW4EAICommandType@@JJ@Z
	DD	FLAT:?OnAddInToolCommand@CChartAddInBase000000@@MAEHW4EAICommandType@@JPBD11@Z
	DD	FLAT:?OnAddInToolCommand@CChartAddInBase000000@@MAEHW4EAICommandType@@JPBD@Z
	DD	FLAT:?OnAddInToolCommand@CAskingPriceIndicatorAddInImp@@MAEHW4EAICommandType@@J@Z
	DD	FLAT:?OnAddInToolCommand@CChartAddInBase000000@@MAEHW4EAICommandType@@PBUIAddInDllBase@@@Z
	DD	FLAT:?OnAddInToolCommand@CChartAddInBase000000@@MAEHW4EAICommandType@@PBDJ@Z
	DD	FLAT:?OnAddInToolCommand@CChartAddInBase000000@@MAEHW4EAICommandType@@PBD1@Z
	DD	FLAT:?OnAddInToolCommand@CChartAddInBase000000@@MAEHW4EAICommandType@@PBD@Z
	DD	FLAT:?OnAddInToolCommand@CChartAddInBase000000@@MAEHW4EAICommandType@@PAUHDC__@@IAAUtagPOINT@@K@Z
	DD	FLAT:?OnAddInToolCommand@CChartAddInBase000000@@MAEHW4EAICommandType@@@Z
	DD	FLAT:?OnKeyDown@CChartAddInBase000000@@MAEHIII@Z
	DD	FLAT:?OnKeyUp@CChartAddInBase000000@@MAEHIII@Z
	DD	FLAT:?OnMouseWheel@CChartAddInBase000000@@MAEHIFUtagPOINT@@K@Z
	DD	FLAT:?OnMouseMove@CAskingPriceIndicatorAddInImp@@MAEHPAUHDC__@@IAAUtagPOINT@@KQAUHBITMAP__@@@Z
	DD	FLAT:?OnLButtonDown@CAskingPriceIndicatorAddInImp@@MAEHPAUHDC__@@IAAUtagPOINT@@K@Z
	DD	FLAT:?OnLButtonUp@CAskingPriceIndicatorAddInImp@@MAEHPAUHDC__@@IAAUtagPOINT@@K@Z
	DD	FLAT:?OnLButtonDblClk@CChartAddInBase000000@@MAEHPAUHDC__@@IAAUtagPOINT@@K@Z
	DD	FLAT:?OnRButtonDown@CChartAddInBase000000@@MAEHPAUHDC__@@IAAUtagPOINT@@K@Z
	DD	FLAT:?OnRButtonUp@CChartAddInBase000000@@MAEHPAUHDC__@@IAAUtagPOINT@@K@Z
	DD	FLAT:?OnRButtonDblClk@CChartAddInBase000000@@MAEHPAUHDC__@@IAAUtagPOINT@@K@Z
CONST	ENDS
;	COMDAT ??_7CAskingPriceIndicatorAddInImp@@6BCIWUnknown@@@
CONST	SEGMENT
??_7CAskingPriceIndicatorAddInImp@@6BCIWUnknown@@@ DD FLAT:??_R4CAskingPriceIndicatorAddInImp@@6BCIWUnknown@@@ ; CAskingPriceIndicatorAddInImp::`vftable'
	DD	FLAT:?GetRuntimeClass@CObject@@UBEPAUCRuntimeClass@@XZ
	DD	FLAT:??_ECAskingPriceIndicatorAddInImp@@UAEPAXI@Z
	DD	FLAT:?Serialize@CObject@@UAEXAAVCArchive@@@Z
	DD	FLAT:?AssertValid@CObject@@UBEXXZ
	DD	FLAT:?Dump@CObject@@UBEXAAVCDumpContext@@@Z
	DD	FLAT:?AddRef@CChartAddInBase000000@@MAGKXZ
	DD	FLAT:?Release@CChartAddInBase000000@@MAGKXZ
	DD	FLAT:?QueryInterface@CChartAddInBase000000@@MAGJABU_GUID@@PAPAX@Z
	DD	FLAT:?PostConstruct@CIWUnknown@@MAEXXZ
	DD	FLAT:?PreDestructX@CIWUnknown@@MAEXXZ
	DD	FLAT:?PreDestruct@CIWUnknown@@MAEXXZ
	DD	FLAT:?GetRegisteredEventMap@CAskingPriceIndicatorAddInImp@@MBEPBW4EAddInEventType@IChartAddIn000000@@XZ
	DD	FLAT:?AfeterOnOcxDestroyWindow@CChartAddInBase000000@@MAEXXZ
	DD	FLAT:?ResetBound@CAskingPriceIndicatorAddInImp@@MAEXPBD@Z
CONST	ENDS
;	COMDAT ??_R1A@?0A@EA@IUnknown@@8
rdata$r	SEGMENT
??_R1A@?0A@EA@IUnknown@@8 DD FLAT:??_R0?AUIUnknown@@@8	; IUnknown::`RTTI Base Class Descriptor at (0,-1,0,64)'
	DD	00H
	DD	00H
	DD	0ffffffffH
	DD	00H
	DD	040H
	DD	FLAT:??_R3IUnknown@@8
rdata$r	ENDS
;	COMDAT ??_R2IUnknown@@8
rdata$r	SEGMENT
??_R2IUnknown@@8 DD FLAT:??_R1A@?0A@EA@IUnknown@@8	; IUnknown::`RTTI Base Class Array'
rdata$r	ENDS
;	COMDAT ??_R3IUnknown@@8
rdata$r	SEGMENT
??_R3IUnknown@@8 DD 00H					; IUnknown::`RTTI Class Hierarchy Descriptor'
	DD	00H
	DD	01H
	DD	FLAT:??_R2IUnknown@@8
rdata$r	ENDS
;	COMDAT ??_R0?AUIUnknown@@@8
data$rs	SEGMENT
??_R0?AUIUnknown@@@8 DD FLAT:??_7type_info@@6B@		; IUnknown `RTTI Type Descriptor'
	DD	00H
	DB	'.?AUIUnknown@@', 00H
data$rs	ENDS
;	COMDAT ??_R1A@?0A@EA@CObject@@8
rdata$r	SEGMENT
??_R1A@?0A@EA@CObject@@8 DD FLAT:??_R0?AVCObject@@@8	; CObject::`RTTI Base Class Descriptor at (0,-1,0,64)'
	DD	00H
	DD	00H
	DD	0ffffffffH
	DD	00H
	DD	040H
	DD	FLAT:??_R3CObject@@8
rdata$r	ENDS
;	COMDAT ??_R2CObject@@8
rdata$r	SEGMENT
??_R2CObject@@8 DD FLAT:??_R1A@?0A@EA@CObject@@8	; CObject::`RTTI Base Class Array'
rdata$r	ENDS
;	COMDAT ??_R3CObject@@8
rdata$r	SEGMENT
??_R3CObject@@8 DD 00H					; CObject::`RTTI Class Hierarchy Descriptor'
	DD	00H
	DD	01H
	DD	FLAT:??_R2CObject@@8
rdata$r	ENDS
;	COMDAT ??_R0?AVCObject@@@8
data$rs	SEGMENT
??_R0?AVCObject@@@8 DD FLAT:??_7type_info@@6B@		; CObject `RTTI Type Descriptor'
	DD	00H
	DB	'.?AVCObject@@', 00H
data$rs	ENDS
;	COMDAT xdata$x
xdata$x	SEGMENT
__ehfuncinfo$??1ILPCSTR000000@@QAE@XZ DD 019930522H
	DD	00H
	DD	00H
	DD	2 DUP(00H)
	DD	2 DUP(00H)
	DD	00H
	DD	05H
xdata$x	ENDS
;	COMDAT xdata$x
xdata$x	SEGMENT
__ehfuncinfo$??1CMultiLanguageResourceSetter@@QAE@XZ DD 019930522H
	DD	00H
	DD	00H
	DD	2 DUP(00H)
	DD	2 DUP(00H)
	DD	00H
	DD	05H
xdata$x	ENDS
;	COMDAT xdata$x
xdata$x	SEGMENT
__ehfuncinfo$?OnLButtonDown@CAskingPriceIndicatorAddInImp@@MAEHPAUHDC__@@IAAUtagPOINT@@K@Z DD 019930522H
	DD	09H
	DD	FLAT:__unwindtable$?OnLButtonDown@CAskingPriceIndicatorAddInImp@@MAEHPAUHDC__@@IAAUtagPOINT@@K@Z
	DD	2 DUP(00H)
	DD	2 DUP(00H)
	DD	00H
	DD	01H
__unwindtable$?OnLButtonDown@CAskingPriceIndicatorAddInImp@@MAEHPAUHDC__@@IAAUtagPOINT@@K@Z DD 0ffffffffH
	DD	FLAT:__unwindfunclet$?OnLButtonDown@CAskingPriceIndicatorAddInImp@@MAEHPAUHDC__@@IAAUtagPOINT@@K@Z$0
	DD	00H
	DD	FLAT:__unwindfunclet$?OnLButtonDown@CAskingPriceIndicatorAddInImp@@MAEHPAUHDC__@@IAAUtagPOINT@@K@Z$7
	DD	01H
	DD	FLAT:__unwindfunclet$?OnLButtonDown@CAskingPriceIndicatorAddInImp@@MAEHPAUHDC__@@IAAUtagPOINT@@K@Z$2
	DD	00H
	DD	FLAT:__unwindfunclet$?OnLButtonDown@CAskingPriceIndicatorAddInImp@@MAEHPAUHDC__@@IAAUtagPOINT@@K@Z$2
	DD	03H
	DD	FLAT:__unwindfunclet$?OnLButtonDown@CAskingPriceIndicatorAddInImp@@MAEHPAUHDC__@@IAAUtagPOINT@@K@Z$3
	DD	04H
	DD	FLAT:__unwindfunclet$?OnLButtonDown@CAskingPriceIndicatorAddInImp@@MAEHPAUHDC__@@IAAUtagPOINT@@K@Z$4
	DD	05H
	DD	FLAT:__unwindfunclet$?OnLButtonDown@CAskingPriceIndicatorAddInImp@@MAEHPAUHDC__@@IAAUtagPOINT@@K@Z$8
	DD	06H
	DD	FLAT:__unwindfunclet$?OnLButtonDown@CAskingPriceIndicatorAddInImp@@MAEHPAUHDC__@@IAAUtagPOINT@@K@Z$6
	DD	0ffffffffH
	DD	FLAT:___std_terminate
xdata$x	ENDS
;	COMDAT xdata$x
xdata$x	SEGMENT
__unwindtable$?OnMouseMove@CAskingPriceIndicatorAddInImp@@MAEHPAUHDC__@@IAAUtagPOINT@@KQAUHBITMAP__@@@Z DD 0ffffffffH
	DD	FLAT:__unwindfunclet$?OnMouseMove@CAskingPriceIndicatorAddInImp@@MAEHPAUHDC__@@IAAUtagPOINT@@KQAUHBITMAP__@@@Z$0
	DD	0ffffffffH
	DD	FLAT:___std_terminate
__ehfuncinfo$?OnMouseMove@CAskingPriceIndicatorAddInImp@@MAEHPAUHDC__@@IAAUtagPOINT@@KQAUHBITMAP__@@@Z DD 019930522H
	DD	02H
	DD	FLAT:__unwindtable$?OnMouseMove@CAskingPriceIndicatorAddInImp@@MAEHPAUHDC__@@IAAUtagPOINT@@KQAUHBITMAP__@@@Z
	DD	2 DUP(00H)
	DD	2 DUP(00H)
	DD	00H
	DD	01H
xdata$x	ENDS
;	COMDAT xdata$x
xdata$x	SEGMENT
__unwindtable$?DrawCursor@CAskingPriceIndicatorAddInImp@@MAE?AUtagRECT@@PAUHDC__@@@Z DD 0ffffffffH
	DD	FLAT:__unwindfunclet$?DrawCursor@CAskingPriceIndicatorAddInImp@@MAE?AUtagRECT@@PAUHDC__@@@Z$0
	DD	00H
	DD	FLAT:__unwindfunclet$?DrawCursor@CAskingPriceIndicatorAddInImp@@MAE?AUtagRECT@@PAUHDC__@@@Z$1
	DD	01H
	DD	FLAT:__unwindfunclet$?DrawCursor@CAskingPriceIndicatorAddInImp@@MAE?AUtagRECT@@PAUHDC__@@@Z$2
__ehfuncinfo$?DrawCursor@CAskingPriceIndicatorAddInImp@@MAE?AUtagRECT@@PAUHDC__@@@Z DD 019930522H
	DD	03H
	DD	FLAT:__unwindtable$?DrawCursor@CAskingPriceIndicatorAddInImp@@MAE?AUtagRECT@@PAUHDC__@@@Z
	DD	2 DUP(00H)
	DD	2 DUP(00H)
	DD	00H
	DD	01H
xdata$x	ENDS
;	COMDAT xdata$x
xdata$x	SEGMENT
__ehfuncinfo$?ResetBound@CAskingPriceIndicatorAddInImp@@MAEXPBD@Z DD 019930522H
	DD	05H
	DD	FLAT:__unwindtable$?ResetBound@CAskingPriceIndicatorAddInImp@@MAEXPBD@Z
	DD	2 DUP(00H)
	DD	2 DUP(00H)
	DD	00H
	DD	01H
__unwindtable$?ResetBound@CAskingPriceIndicatorAddInImp@@MAEXPBD@Z DD 0ffffffffH
	DD	FLAT:__unwindfunclet$?ResetBound@CAskingPriceIndicatorAddInImp@@MAEXPBD@Z$0
	DD	00H
	DD	FLAT:__unwindfunclet$?ResetBound@CAskingPriceIndicatorAddInImp@@MAEXPBD@Z$1
	DD	01H
	DD	FLAT:__unwindfunclet$?ResetBound@CAskingPriceIndicatorAddInImp@@MAEXPBD@Z$2
	DD	02H
	DD	FLAT:__unwindfunclet$?ResetBound@CAskingPriceIndicatorAddInImp@@MAEXPBD@Z$3
	DD	00H
	DD	FLAT:___std_terminate
xdata$x	ENDS
;	COMDAT xdata$x
xdata$x	SEGMENT
__unwindtable$?ClearAskingPriceGShareFireFlag@CAskingPriceIndicatorAddInImp@@IAEXXZ DD 0ffffffffH
	DD	FLAT:__unwindfunclet$?ClearAskingPriceGShareFireFlag@CAskingPriceIndicatorAddInImp@@IAEXXZ$0
	DD	0ffffffffH
	DD	FLAT:___std_terminate
__ehfuncinfo$?ClearAskingPriceGShareFireFlag@CAskingPriceIndicatorAddInImp@@IAEXXZ DD 019930522H
	DD	02H
	DD	FLAT:__unwindtable$?ClearAskingPriceGShareFireFlag@CAskingPriceIndicatorAddInImp@@IAEXXZ
	DD	2 DUP(00H)
	DD	2 DUP(00H)
	DD	00H
	DD	01H
xdata$x	ENDS
;	COMDAT xdata$x
xdata$x	SEGMENT
__unwindtable$??HATL@@YA?AV?$CStringT@DV?$StrTraitMFC_DLL@DV?$ChTraitsCRT@D@ATL@@@@@0@ABV10@PBD@Z DD 0ffffffffH
	DD	FLAT:__unwindfunclet$??HATL@@YA?AV?$CStringT@DV?$StrTraitMFC_DLL@DV?$ChTraitsCRT@D@ATL@@@@@0@ABV10@PBD@Z$0
__ehfuncinfo$??HATL@@YA?AV?$CStringT@DV?$StrTraitMFC_DLL@DV?$ChTraitsCRT@D@ATL@@@@@0@ABV10@PBD@Z DD 019930522H
	DD	01H
	DD	FLAT:__unwindtable$??HATL@@YA?AV?$CStringT@DV?$StrTraitMFC_DLL@DV?$ChTraitsCRT@D@ATL@@@@@0@ABV10@PBD@Z
	DD	2 DUP(00H)
	DD	2 DUP(00H)
	DD	00H
	DD	01H
xdata$x	ENDS
;	COMDAT xdata$x
xdata$x	SEGMENT
__unwindtable$??HATL@@YA?AV?$CStringT@DV?$StrTraitMFC_DLL@DV?$ChTraitsCRT@D@ATL@@@@@0@ABV10@0@Z DD 0ffffffffH
	DD	FLAT:__unwindfunclet$??HATL@@YA?AV?$CStringT@DV?$StrTraitMFC_DLL@DV?$ChTraitsCRT@D@ATL@@@@@0@ABV10@0@Z$0
__ehfuncinfo$??HATL@@YA?AV?$CStringT@DV?$StrTraitMFC_DLL@DV?$ChTraitsCRT@D@ATL@@@@@0@ABV10@0@Z DD 019930522H
	DD	01H
	DD	FLAT:__unwindtable$??HATL@@YA?AV?$CStringT@DV?$StrTraitMFC_DLL@DV?$ChTraitsCRT@D@ATL@@@@@0@ABV10@0@Z
	DD	2 DUP(00H)
	DD	2 DUP(00H)
	DD	00H
	DD	01H
xdata$x	ENDS
; Function compile flags: /Odsp
;	COMDAT ??_ECAskingPriceIndicatorAddInImp@@W7AEPAXI@Z
_TEXT	SEGMENT
??_ECAskingPriceIndicatorAddInImp@@W7AEPAXI@Z PROC	; [thunk]:CAskingPriceIndicatorAddInImp::`vector deleting destructor', COMDAT
  00000	83 e9 08	 sub	 ecx, 8
  00003	e9 00 00 00 00	 jmp	 ??_ECAskingPriceIndicatorAddInImp@@UAEPAXI@Z
??_ECAskingPriceIndicatorAddInImp@@W7AEPAXI@Z ENDP	; [thunk]:CAskingPriceIndicatorAddInImp::`vector deleting destructor'
_TEXT	ENDS
; Function compile flags: /Odsp
;	COMDAT ?Release@CChartAddInBase000000@@O7AGKXZ
_TEXT	SEGMENT
?Release@CChartAddInBase000000@@O7AGKXZ PROC		; [thunk]:CChartAddInBase000000::Release`adjustor{8}', COMDAT
  00000	83 6c 24 04 08	 sub	 DWORD PTR [esp+4], 8
  00005	e9 00 00 00 00	 jmp	 ?Release@CChartAddInBase000000@@MAGKXZ ; CChartAddInBase000000::Release
?Release@CChartAddInBase000000@@O7AGKXZ ENDP		; [thunk]:CChartAddInBase000000::Release`adjustor{8}'
_TEXT	ENDS
; Function compile flags: /Odsp
;	COMDAT ?AddRef@CChartAddInBase000000@@O7AGKXZ
_TEXT	SEGMENT
?AddRef@CChartAddInBase000000@@O7AGKXZ PROC		; [thunk]:CChartAddInBase000000::AddRef`adjustor{8}', COMDAT
  00000	83 6c 24 04 08	 sub	 DWORD PTR [esp+4], 8
  00005	e9 00 00 00 00	 jmp	 ?AddRef@CChartAddInBase000000@@MAGKXZ ; CChartAddInBase000000::AddRef
?AddRef@CChartAddInBase000000@@O7AGKXZ ENDP		; [thunk]:CChartAddInBase000000::AddRef`adjustor{8}'
_TEXT	ENDS
; Function compile flags: /Odsp
;	COMDAT ?QueryInterface@CChartAddInBase000000@@O7AGJABU_GUID@@PAPAX@Z
_TEXT	SEGMENT
?QueryInterface@CChartAddInBase000000@@O7AGJABU_GUID@@PAPAX@Z PROC ; [thunk]:CChartAddInBase000000::QueryInterface`adjustor{8}', COMDAT
  00000	83 6c 24 04 08	 sub	 DWORD PTR [esp+4], 8
  00005	e9 00 00 00 00	 jmp	 ?QueryInterface@CChartAddInBase000000@@MAGJABU_GUID@@PAPAX@Z ; CChartAddInBase000000::QueryInterface
?QueryInterface@CChartAddInBase000000@@O7AGJABU_GUID@@PAPAX@Z ENDP ; [thunk]:CChartAddInBase000000::QueryInterface`adjustor{8}'
_TEXT	ENDS
; Function compile flags: /Ogtp
;	COMDAT ??__F?m_strAddInItemName@CAskingPriceIndicatorAddInImp@@2V?$CStringT@DV?$StrTraitMFC_DLL@DV?$ChTraitsCRT@D@ATL@@@@@ATL@@A@@YAXXZ
text$yd	SEGMENT
??__F?m_strAddInItemName@CAskingPriceIndicatorAddInImp@@2V?$CStringT@DV?$StrTraitMFC_DLL@DV?$ChTraitsCRT@D@ATL@@@@@ATL@@A@@YAXXZ PROC ; `dynamic atexit destructor for 'CAskingPriceIndicatorAddInImp::m_strAddInItemName'', COMDAT
  00000	b9 00 00 00 00	 mov	 ecx, OFFSET ?m_strAddInItemName@CAskingPriceIndicatorAddInImp@@2V?$CStringT@DV?$StrTraitMFC_DLL@DV?$ChTraitsCRT@D@ATL@@@@@ATL@@A ; CAskingPriceIndicatorAddInImp::m_strAddInItemName
  00005	ff 25 00 00 00
	00		 jmp	 DWORD PTR __imp_??1?$CStringT@DV?$StrTraitMFC_DLL@DV?$ChTraitsCRT@D@ATL@@@@@ATL@@QAE@XZ
??__F?m_strAddInItemName@CAskingPriceIndicatorAddInImp@@2V?$CStringT@DV?$StrTraitMFC_DLL@DV?$ChTraitsCRT@D@ATL@@@@@ATL@@A@@YAXXZ ENDP ; `dynamic atexit destructor for 'CAskingPriceIndicatorAddInImp::m_strAddInItemName''
text$yd	ENDS
; Function compile flags: /Ogtp
; File D:\git\src\IBK\IBK_DRFN\ProjSrc\SrcChartEx\ChartOCX\AddInManager\ChartCommonAddIn\AskingPriceIndicatorAddInImp.cpp
;	COMDAT ??__E?m_strAddInItemName@CAskingPriceIndicatorAddInImp@@2V?$CStringT@DV?$StrTraitMFC_DLL@DV?$ChTraitsCRT@D@ATL@@@@@ATL@@A@@YAXXZ
text$di	SEGMENT
??__E?m_strAddInItemName@CAskingPriceIndicatorAddInImp@@2V?$CStringT@DV?$StrTraitMFC_DLL@DV?$ChTraitsCRT@D@ATL@@@@@ATL@@A@@YAXXZ PROC ; `dynamic initializer for 'CAskingPriceIndicatorAddInImp::m_strAddInItemName'', COMDAT

; 65   : CString CAskingPriceIndicatorAddInImp::m_strAddInItemName = "ASKED_PRICE";

  00000	68 00 00 00 00	 push	 OFFSET ??_C@_0M@BDDGJNEO@ASKED_PRICE@
  00005	b9 00 00 00 00	 mov	 ecx, OFFSET ?m_strAddInItemName@CAskingPriceIndicatorAddInImp@@2V?$CStringT@DV?$StrTraitMFC_DLL@DV?$ChTraitsCRT@D@ATL@@@@@ATL@@A ; CAskingPriceIndicatorAddInImp::m_strAddInItemName
  0000a	ff 15 00 00 00
	00		 call	 DWORD PTR __imp_??0?$CStringT@DV?$StrTraitMFC_DLL@DV?$ChTraitsCRT@D@ATL@@@@@ATL@@QAE@PBD@Z
  00010	68 00 00 00 00	 push	 OFFSET ??__F?m_strAddInItemName@CAskingPriceIndicatorAddInImp@@2V?$CStringT@DV?$StrTraitMFC_DLL@DV?$ChTraitsCRT@D@ATL@@@@@ATL@@A@@YAXXZ ; `dynamic atexit destructor for 'CAskingPriceIndicatorAddInImp::m_strAddInItemName''
  00015	e8 00 00 00 00	 call	 _atexit
  0001a	59		 pop	 ecx
  0001b	c3		 ret	 0
??__E?m_strAddInItemName@CAskingPriceIndicatorAddInImp@@2V?$CStringT@DV?$StrTraitMFC_DLL@DV?$ChTraitsCRT@D@ATL@@@@@ATL@@A@@YAXXZ ENDP ; `dynamic initializer for 'CAskingPriceIndicatorAddInImp::m_strAddInItemName''
text$di	ENDS
; Function compile flags: /Ogtp
; File D:\git\src\IBK\IBK_DRFN\ProjSrc\SrcChartEx\ChartOCX\AddInManager\Include_AddIn\I000000\_IString.h
;	COMDAT ??1ILPCSTR000000@@QAE@XZ
_TEXT	SEGMENT
__$EHRec$ = -12						; size = 12
??1ILPCSTR000000@@QAE@XZ PROC				; ILPCSTR000000::~ILPCSTR000000, COMDAT
; _this$ = ecx

; 44   : 	{

  00000	55		 push	 ebp
  00001	8b ec		 mov	 ebp, esp
  00003	6a ff		 push	 -1
  00005	68 00 00 00 00	 push	 __ehhandler$??1ILPCSTR000000@@QAE@XZ
  0000a	64 a1 00 00 00
	00		 mov	 eax, DWORD PTR fs:0
  00010	50		 push	 eax
  00011	56		 push	 esi
  00012	a1 00 00 00 00	 mov	 eax, DWORD PTR ___security_cookie
  00017	33 c5		 xor	 eax, ebp
  00019	50		 push	 eax
  0001a	8d 45 f4	 lea	 eax, DWORD PTR __$EHRec$[ebp]
  0001d	64 a3 00 00 00
	00		 mov	 DWORD PTR fs:0, eax
  00023	8b f1		 mov	 esi, ecx

; 45   : 		if( m_pIStrData)

  00025	8b 4e 04	 mov	 ecx, DWORD PTR [esi+4]
  00028	85 c9		 test	 ecx, ecx
  0002a	74 13		 je	 SHORT $LN2@ILPCSTR000

; 46   : 		{
; 47   : 			m_pIStrData->Release();

  0002c	8b 01		 mov	 eax, DWORD PTR [ecx]
  0002e	51		 push	 ecx
  0002f	ff 50 08	 call	 DWORD PTR [eax+8]

; 48   : 			m_pIStrData = NULL;

  00032	c7 46 04 00 00
	00 00		 mov	 DWORD PTR [esi+4], 0

; 49   : 			m_szData = NULL;

  00039	c7 06 00 00 00
	00		 mov	 DWORD PTR [esi], 0
$LN2@ILPCSTR000:

; 50   : 		}
; 51   : 	}

  0003f	8b 4d f4	 mov	 ecx, DWORD PTR __$EHRec$[ebp]
  00042	64 89 0d 00 00
	00 00		 mov	 DWORD PTR fs:0, ecx
  00049	59		 pop	 ecx
  0004a	5e		 pop	 esi
  0004b	8b e5		 mov	 esp, ebp
  0004d	5d		 pop	 ebp
  0004e	c3		 ret	 0
  0004f	cc		 int	 3
  00050	cc		 int	 3
  00051	cc		 int	 3
  00052	cc		 int	 3
  00053	cc		 int	 3
_TEXT	ENDS
;	COMDAT text$x
text$x	SEGMENT
__ehhandler$??1ILPCSTR000000@@QAE@XZ:
  00000	90		 npad	 1
  00001	90		 npad	 1
  00002	8b 54 24 08	 mov	 edx, DWORD PTR [esp+8]
  00006	8d 42 0c	 lea	 eax, DWORD PTR [edx+12]
  00009	8b 4a f8	 mov	 ecx, DWORD PTR [edx-8]
  0000c	33 c8		 xor	 ecx, eax
  0000e	e8 00 00 00 00	 call	 @__security_check_cookie@4
  00013	b8 00 00 00 00	 mov	 eax, OFFSET __ehfuncinfo$??1ILPCSTR000000@@QAE@XZ
  00018	e9 00 00 00 00	 jmp	 ___CxxFrameHandler3
text$x	ENDS
??1ILPCSTR000000@@QAE@XZ ENDP				; ILPCSTR000000::~ILPCSTR000000
; Function compile flags: /Ogtp
; File D:\git\src\IBK\IBK_DRFN\ProjSrc\SrcChartEx\ChartOCX\Include_Chart\Dll_Load\IMetaTable.h
; File C:\Program Files (x86)\Microsoft Visual Studio\2019\Community\VC\Tools\MSVC\14.29.30133\atlmfc\include\afxwin1.inl
; File D:\git\src\IBK\IBK_DRFN\ProjSrc\SrcChartEx\ChartOCX\Include_Chart\Dll_Load\IMetaTable.h
;	COMDAT ??1CMultiLanguageResourceSetter@@QAE@XZ
_TEXT	SEGMENT
__$EHRec$ = -12						; size = 12
??1CMultiLanguageResourceSetter@@QAE@XZ PROC		; CMultiLanguageResourceSetter::~CMultiLanguageResourceSetter, COMDAT
; _this$ = ecx

; 1036 : 	{

  00000	55		 push	 ebp
  00001	8b ec		 mov	 ebp, esp
  00003	6a ff		 push	 -1
  00005	68 00 00 00 00	 push	 __ehhandler$??1CMultiLanguageResourceSetter@@QAE@XZ
  0000a	64 a1 00 00 00
	00		 mov	 eax, DWORD PTR fs:0
  00010	50		 push	 eax
  00011	56		 push	 esi
  00012	a1 00 00 00 00	 mov	 eax, DWORD PTR ___security_cookie
  00017	33 c5		 xor	 eax, ebp
  00019	50		 push	 eax
  0001a	8d 45 f4	 lea	 eax, DWORD PTR __$EHRec$[ebp]
  0001d	64 a3 00 00 00
	00		 mov	 DWORD PTR fs:0, eax

; 1037 : 		AfxSetResourceHandle( m_hInstance);

  00023	8b 31		 mov	 esi, DWORD PTR [ecx]
; File C:\Program Files (x86)\Microsoft Visual Studio\2019\Community\VC\Tools\MSVC\14.29.30133\atlmfc\include\afxwin1.inl

; 27   : 	{ ASSERT(hInstResource != NULL); afxCurrentResourceHandle = hInstResource; }

  00025	e8 00 00 00 00	 call	 ?AfxGetModuleState@@YGPAVAFX_MODULE_STATE@@XZ ; AfxGetModuleState
  0002a	89 70 0c	 mov	 DWORD PTR [eax+12], esi
; File D:\git\src\IBK\IBK_DRFN\ProjSrc\SrcChartEx\ChartOCX\Include_Chart\Dll_Load\IMetaTable.h

; 1038 : 	}

  0002d	8b 4d f4	 mov	 ecx, DWORD PTR __$EHRec$[ebp]
  00030	64 89 0d 00 00
	00 00		 mov	 DWORD PTR fs:0, ecx
  00037	59		 pop	 ecx
  00038	5e		 pop	 esi
  00039	8b e5		 mov	 esp, ebp
  0003b	5d		 pop	 ebp
  0003c	c3		 ret	 0
  0003d	cc		 int	 3
  0003e	cc		 int	 3
  0003f	cc		 int	 3
  00040	cc		 int	 3
  00041	cc		 int	 3
_TEXT	ENDS
;	COMDAT text$x
text$x	SEGMENT
__ehhandler$??1CMultiLanguageResourceSetter@@QAE@XZ:
  00000	90		 npad	 1
  00001	90		 npad	 1
  00002	8b 54 24 08	 mov	 edx, DWORD PTR [esp+8]
  00006	8d 42 0c	 lea	 eax, DWORD PTR [edx+12]
  00009	8b 4a f8	 mov	 ecx, DWORD PTR [edx-8]
  0000c	33 c8		 xor	 ecx, eax
  0000e	e8 00 00 00 00	 call	 @__security_check_cookie@4
  00013	b8 00 00 00 00	 mov	 eax, OFFSET __ehfuncinfo$??1CMultiLanguageResourceSetter@@QAE@XZ
  00018	e9 00 00 00 00	 jmp	 ___CxxFrameHandler3
text$x	ENDS
??1CMultiLanguageResourceSetter@@QAE@XZ ENDP		; CMultiLanguageResourceSetter::~CMultiLanguageResourceSetter
; Function compile flags: /Ogtp
; File D:\git\src\IBK\IBK_DRFN\ProjSrc\SrcChartEx\ChartOCX\AddInManager\ChartCommonAddIn\AskingPriceIndicatorAddInImp.cpp
; File C:\Program Files (x86)\Microsoft Visual Studio\2019\Community\VC\Tools\MSVC\14.29.30133\atlmfc\include\afx.inl
;	COMDAT ??_GCAskingPriceIndicatorAddInImp@@UAEPAXI@Z
_TEXT	SEGMENT
___flags$ = 8						; size = 4
??_GCAskingPriceIndicatorAddInImp@@UAEPAXI@Z PROC	; CAskingPriceIndicatorAddInImp::`scalar deleting destructor', COMDAT
; _this$ = ecx
  00000	55		 push	 ebp
  00001	8b ec		 mov	 ebp, esp
; File D:\git\src\IBK\IBK_DRFN\ProjSrc\SrcChartEx\ChartOCX\AddInManager\ChartCommonAddIn\AskingPriceIndicatorAddInImp.cpp

; 55   : {

  00003	56		 push	 esi
  00004	8b f1		 mov	 esi, ecx

; 56   : 	// (2004.11.01, 배승원) 장구분과 호가산출 DLL을 관리하여, 호가 연동에 이용한다.
; 57   : 	if( m_hAskingPriceFixDLL)

  00006	8b 86 08 01 00
	00		 mov	 eax, DWORD PTR [esi+264]
  0000c	c7 06 00 00 00
	00		 mov	 DWORD PTR [esi], OFFSET ??_7CAskingPriceIndicatorAddInImp@@6BCIWUnknown@@@
  00012	c7 46 08 00 00
	00 00		 mov	 DWORD PTR [esi+8], OFFSET ??_7CAskingPriceIndicatorAddInImp@@6BIChartAddIn000000@@@
  00019	85 c0		 test	 eax, eax
  0001b	74 11		 je	 SHORT $LN8@scalar

; 58   : 	{
; 59   : 		FreeLibrary( m_hAskingPriceFixDLL);

  0001d	50		 push	 eax
  0001e	ff 15 00 00 00
	00		 call	 DWORD PTR __imp__FreeLibrary@4

; 60   : 		m_hAskingPriceFixDLL = NULL;

  00024	c7 86 08 01 00
	00 00 00 00 00	 mov	 DWORD PTR [esi+264], 0
$LN8@scalar:

; 61   : 	}
; 62   : }

  0002e	8d 8e f0 00 00
	00		 lea	 ecx, DWORD PTR [esi+240]
  00034	ff 15 00 00 00
	00		 call	 DWORD PTR __imp_??1?$CStringT@DV?$StrTraitMFC_DLL@DV?$ChTraitsCRT@D@ATL@@@@@ATL@@QAE@XZ
  0003a	8d 8e e4 00 00
	00		 lea	 ecx, DWORD PTR [esi+228]
  00040	ff 15 00 00 00
	00		 call	 DWORD PTR __imp_??1?$CStringT@DV?$StrTraitMFC_DLL@DV?$ChTraitsCRT@D@ATL@@@@@ATL@@QAE@XZ
  00046	8b ce		 mov	 ecx, esi
  00048	e8 00 00 00 00	 call	 ??1CBoundMarkerAddInImp@@UAE@XZ ; CBoundMarkerAddInImp::~CBoundMarkerAddInImp
  0004d	8b 45 08	 mov	 eax, DWORD PTR ___flags$[ebp]
  00050	a8 01		 test	 al, 1
  00052	74 22		 je	 SHORT $LN13@scalar
  00054	a8 04		 test	 al, 4
  00056	75 10		 jne	 SHORT $LN3@scalar
; File C:\Program Files (x86)\Microsoft Visual Studio\2019\Community\VC\Tools\MSVC\14.29.30133\atlmfc\include\afx.inl

; 112  : 	{ ::operator delete(p); }

  00058	56		 push	 esi
  00059	e8 00 00 00 00	 call	 ??3@YAXPAX@Z		; operator delete
  0005e	83 c4 04	 add	 esp, 4
  00061	8b c6		 mov	 eax, esi
  00063	5e		 pop	 esi
  00064	5d		 pop	 ebp
  00065	c2 04 00	 ret	 4
$LN3@scalar:
  00068	68 10 01 00 00	 push	 272			; 00000110H
  0006d	56		 push	 esi
  0006e	e8 00 00 00 00	 call	 ?__global_delete@@YAXPAXI@Z ; __global_delete
  00073	83 c4 08	 add	 esp, 8
$LN13@scalar:
  00076	8b c6		 mov	 eax, esi
  00078	5e		 pop	 esi
  00079	5d		 pop	 ebp
  0007a	c2 04 00	 ret	 4
??_GCAskingPriceIndicatorAddInImp@@UAEPAXI@Z ENDP	; CAskingPriceIndicatorAddInImp::`scalar deleting destructor'
_TEXT	ENDS
; Function compile flags: /Ogtp
; File D:\git\src\IBK\IBK_DRFN\ProjSrc\SrcChartEx\ChartOCX\AddInManager\ChartCommonAddIn\AskingPriceIndicatorAddInImp.cpp
;	COMDAT ?OnLButtonUp@CAskingPriceIndicatorAddInImp@@MAEHPAUHDC__@@IAAUtagPOINT@@K@Z
_TEXT	SEGMENT
_p_hDC$ = 8						; size = 4
_nFlags$ = 12						; size = 4
_point$ = 16						; size = 4
_p_dwMouseActionID$ = 20				; size = 4
?OnLButtonUp@CAskingPriceIndicatorAddInImp@@MAEHPAUHDC__@@IAAUtagPOINT@@K@Z PROC ; CAskingPriceIndicatorAddInImp::OnLButtonUp, COMDAT
; _this$ = ecx

; 473  : 	if( m_bOnFireAskingPriceGShare) ClearAskingPriceGShareFireFlag();

  00000	83 b9 b8 00 00
	00 00		 cmp	 DWORD PTR [ecx+184], 0
  00007	74 08		 je	 SHORT $LN4@OnLButtonU
  00009	83 c1 f8	 add	 ecx, -8			; fffffff8H
  0000c	e8 00 00 00 00	 call	 ?ClearAskingPriceGShareFireFlag@CAskingPriceIndicatorAddInImp@@IAEXXZ ; CAskingPriceIndicatorAddInImp::ClearAskingPriceGShareFireFlag
$LN4@OnLButtonU:

; 474  : 
; 475  : 	return FALSE;
; 476  : }

  00011	33 c0		 xor	 eax, eax
  00013	c2 10 00	 ret	 16			; 00000010H
?OnLButtonUp@CAskingPriceIndicatorAddInImp@@MAEHPAUHDC__@@IAAUtagPOINT@@K@Z ENDP ; CAskingPriceIndicatorAddInImp::OnLButtonUp
_TEXT	ENDS
; Function compile flags: /Ogtp
; File D:\git\src\IBK\IBK_DRFN\ProjSrc\SrcChartEx\ChartOCX\AddInManager\ChartCommonAddIn\AskingPriceIndicatorAddInImp.cpp
; File C:\Program Files (x86)\Microsoft Visual Studio\2019\Community\VC\Tools\MSVC\14.29.30133\atlmfc\include\atltypes.h
; File D:\git\src\IBK\IBK_DRFN\ProjSrc\SrcChartEx\ChartOCX\AddInManager\ChartCommonAddIn\AskingPriceIndicatorAddInImp.cpp
; File C:\Program Files (x86)\Microsoft Visual Studio\2019\Community\VC\Tools\MSVC\14.29.30133\atlmfc\include\atltypes.h
; File D:\git\src\IBK\IBK_DRFN\ProjSrc\SrcChartEx\ChartOCX\AddInManager\ChartCommonAddIn\AskingPriceIndicatorAddInImp.cpp
; File C:\Program Files (x86)\Microsoft Visual Studio\2019\Community\VC\Tools\MSVC\14.29.30133\atlmfc\include\afxwin1.inl
; File D:\git\src\IBK\IBK_DRFN\ProjSrc\SrcChartEx\ChartOCX\Include_Chart\Dll_Load\IMetaTable.h
; File C:\Program Files (x86)\Microsoft Visual Studio\2019\Community\VC\Tools\MSVC\14.29.30133\atlmfc\include\afxwin1.inl
; File D:\git\src\IBK\IBK_DRFN\ProjSrc\SrcChartEx\ChartOCX\AddInManager\ChartCommonAddIn\AskingPriceIndicatorAddInImp.cpp
; File C:\Program Files (x86)\Microsoft Visual Studio\2019\Community\VC\Tools\MSVC\14.29.30133\atlmfc\include\afxwin1.inl
; File C:\Program Files (x86)\Microsoft Visual Studio\2019\Community\VC\Tools\MSVC\14.29.30133\atlmfc\include\afxwin2.inl
; File D:\git\src\IBK\IBK_DRFN\ProjSrc\SrcChartEx\ChartOCX\AddInManager\ChartCommonAddIn\AskingPriceIndicatorAddInImp.cpp
; File C:\Program Files (x86)\Microsoft Visual Studio\2019\Community\VC\Tools\MSVC\14.29.30133\atlmfc\include\cstringt.h
; File D:\git\src\IBK\IBK_DRFN\ProjSrc\SrcChartEx\ChartOCX\AddInManager\ChartCommonAddIn\AskingPriceIndicatorAddInImp.cpp
; File C:\Program Files (x86)\Microsoft Visual Studio\2019\Community\VC\Tools\MSVC\14.29.30133\atlmfc\include\cstringt.h
; File C:\Program Files (x86)\Microsoft Visual Studio\2019\Community\VC\Tools\MSVC\14.29.30133\atlmfc\include\atlsimpstr.h
; File C:\Program Files (x86)\Microsoft Visual Studio\2019\Community\VC\Tools\MSVC\14.29.30133\atlmfc\include\cstringt.h
; File D:\git\src\IBK\IBK_DRFN\ProjSrc\SrcChartEx\ChartOCX\AddInManager\ChartCommonAddIn\AskingPriceIndicatorAddInImp.cpp
; File C:\Program Files (x86)\Microsoft Visual Studio\2019\Community\VC\Tools\MSVC\14.29.30133\atlmfc\include\cstringt.h
; File D:\git\src\IBK\IBK_DRFN\ProjSrc\SrcChartEx\ChartOCX\AddInManager\ChartCommonAddIn\AskingPriceIndicatorAddInImp.cpp
; File C:\Program Files (x86)\Microsoft Visual Studio\2019\Community\VC\Tools\MSVC\14.29.30133\atlmfc\include\cstringt.h
; File C:\Program Files (x86)\Microsoft Visual Studio\2019\Community\VC\Tools\MSVC\14.29.30133\atlmfc\include\atlsimpstr.h
; File C:\Program Files (x86)\Microsoft Visual Studio\2019\Community\VC\Tools\MSVC\14.29.30133\atlmfc\include\cstringt.h
; File D:\git\src\IBK\IBK_DRFN\ProjSrc\SrcChartEx\ChartOCX\AddInManager\ChartCommonAddIn\AskingPriceIndicatorAddInImp.cpp
; File C:\Program Files (x86)\Microsoft Visual Studio\2019\Community\VC\Tools\MSVC\14.29.30133\atlmfc\include\atlsimpstr.h
; File C:\Program Files (x86)\Microsoft Visual Studio\2019\Community\VC\Tools\MSVC\14.29.30133\atlmfc\include\afxwin1.inl
; File D:\git\src\IBK\IBK_DRFN\ProjSrc\SrcChartEx\ChartOCX\AddInManager\ChartCommonAddIn\AskingPriceIndicatorAddInImp.cpp
; File C:\Program Files (x86)\Microsoft Visual Studio\2019\Community\VC\Tools\MSVC\14.29.30133\atlmfc\include\afxwin1.inl
; File D:\git\src\IBK\IBK_DRFN\ProjSrc\SrcChartEx\ChartOCX\AddInManager\ChartCommonAddIn\AskingPriceIndicatorAddInImp.cpp
; File D:\git\src\IBK\IBK_DRFN\ProjSrc\SrcChartEx\ChartOCX\Include_Chart\Dll_Load\IMetaTable.h
; File C:\Program Files (x86)\Microsoft Visual Studio\2019\Community\VC\Tools\MSVC\14.29.30133\atlmfc\include\afxwin1.inl
; File D:\git\src\IBK\IBK_DRFN\ProjSrc\SrcChartEx\ChartOCX\AddInManager\ChartCommonAddIn\AskingPriceIndicatorAddInImp.cpp
;	COMDAT ?OnLButtonDown@CAskingPriceIndicatorAddInImp@@MAEHPAUHDC__@@IAAUtagPOINT@@K@Z
_TEXT	SEGMENT
___mlrs__$ = -40					; size = 4
_dFixedAskingPrice$1$ = -36				; size = 8
_dFixedAskingPrice$ = -36				; size = 8
$T2 = -32						; size = 4
_strShareData$ = -28					; size = 4
tv499 = -24						; size = 4
$T3 = -24						; size = 4
$T4 = -20						; size = 4
$T5 = -20						; size = 4
_strFixedAskingPrice$ = -16				; size = 4
__$EHRec$ = -12						; size = 12
_p_hDC$ = 8						; size = 4
_nFlags$ = 12						; size = 4
_strFormat$ = 16					; size = 4
_point$ = 16						; size = 4
_p_dwMouseActionID$ = 20				; size = 4
?OnLButtonDown@CAskingPriceIndicatorAddInImp@@MAEHPAUHDC__@@IAAUtagPOINT@@K@Z PROC ; CAskingPriceIndicatorAddInImp::OnLButtonDown, COMDAT
; _this$ = ecx

; 422  : {

  00000	55		 push	 ebp
  00001	8b ec		 mov	 ebp, esp
  00003	6a ff		 push	 -1
  00005	68 00 00 00 00	 push	 __ehhandler$?OnLButtonDown@CAskingPriceIndicatorAddInImp@@MAEHPAUHDC__@@IAAUtagPOINT@@K@Z
  0000a	64 a1 00 00 00
	00		 mov	 eax, DWORD PTR fs:0
  00010	50		 push	 eax
  00011	83 ec 1c	 sub	 esp, 28			; 0000001cH
  00014	53		 push	 ebx
  00015	56		 push	 esi
  00016	57		 push	 edi
  00017	a1 00 00 00 00	 mov	 eax, DWORD PTR ___security_cookie
  0001c	33 c5		 xor	 eax, ebp
  0001e	50		 push	 eax
  0001f	8d 45 f4	 lea	 eax, DWORD PTR __$EHRec$[ebp]
  00022	64 a3 00 00 00
	00		 mov	 DWORD PTR fs:0, eax
  00028	8b d9		 mov	 ebx, ecx
  0002a	c7 45 e8 00 00
	00 00		 mov	 DWORD PTR $T3[ebp], 0

; 424  : 	if( !( m_rctAskingPriceMark.PtInRect( point) && m_bOnSetCaprture)) return FALSE;

  00031	8b 45 10	 mov	 eax, DWORD PTR _point$[ebp]
; File C:\Program Files (x86)\Microsoft Visual Studio\2019\Community\VC\Tools\MSVC\14.29.30133\atlmfc\include\atltypes.h

; 648  : 	return ::PtInRect(this, point);

  00034	ff 70 04	 push	 DWORD PTR [eax+4]
  00037	ff 30		 push	 DWORD PTR [eax]
; File D:\git\src\IBK\IBK_DRFN\ProjSrc\SrcChartEx\ChartOCX\AddInManager\ChartCommonAddIn\AskingPriceIndicatorAddInImp.cpp

; 424  : 	if( !( m_rctAskingPriceMark.PtInRect( point) && m_bOnSetCaprture)) return FALSE;

  00039	8d 83 bc 00 00
	00		 lea	 eax, DWORD PTR [ebx+188]
; File C:\Program Files (x86)\Microsoft Visual Studio\2019\Community\VC\Tools\MSVC\14.29.30133\atlmfc\include\atltypes.h

; 648  : 	return ::PtInRect(this, point);

  0003f	50		 push	 eax
  00040	ff 15 00 00 00
	00		 call	 DWORD PTR __imp__PtInRect@12
; File D:\git\src\IBK\IBK_DRFN\ProjSrc\SrcChartEx\ChartOCX\AddInManager\ChartCommonAddIn\AskingPriceIndicatorAddInImp.cpp

; 424  : 	if( !( m_rctAskingPriceMark.PtInRect( point) && m_bOnSetCaprture)) return FALSE;

  00046	85 c0		 test	 eax, eax
  00048	0f 84 c4 02 00
	00		 je	 $LN3@OnLButtonD
  0004e	83 bb b4 00 00
	00 00		 cmp	 DWORD PTR [ebx+180], 0
  00055	0f 84 b7 02 00
	00		 je	 $LN3@OnLButtonD

; 430  : 	ML_SET_DEFAULT_RES();

  0005b	e8 00 00 00 00	 call	 ?AfxGetStaticModuleState@@YGPAVAFX_MODULE_STATE@@XZ ; AfxGetStaticModuleState
  00060	8b 78 08	 mov	 edi, DWORD PTR [eax+8]
; File C:\Program Files (x86)\Microsoft Visual Studio\2019\Community\VC\Tools\MSVC\14.29.30133\atlmfc\include\afxwin1.inl

; 25   : 		return afxCurrentResourceHandle; }

  00063	e8 00 00 00 00	 call	 ?AfxGetModuleState@@YGPAVAFX_MODULE_STATE@@XZ ; AfxGetModuleState
; File D:\git\src\IBK\IBK_DRFN\ProjSrc\SrcChartEx\ChartOCX\Include_Chart\Dll_Load\IMetaTable.h

; 1032 : 		m_hInstance = AfxGetResourceHandle();

  00068	8b 70 0c	 mov	 esi, DWORD PTR [eax+12]
  0006b	89 75 d8	 mov	 DWORD PTR ___mlrs__$[ebp], esi
; File C:\Program Files (x86)\Microsoft Visual Studio\2019\Community\VC\Tools\MSVC\14.29.30133\atlmfc\include\afxwin1.inl

; 27   : 	{ ASSERT(hInstResource != NULL); afxCurrentResourceHandle = hInstResource; }

  0006e	e8 00 00 00 00	 call	 ?AfxGetModuleState@@YGPAVAFX_MODULE_STATE@@XZ ; AfxGetModuleState
  00073	89 78 0c	 mov	 DWORD PTR [eax+12], edi
; File D:\git\src\IBK\IBK_DRFN\ProjSrc\SrcChartEx\ChartOCX\AddInManager\ChartCommonAddIn\AskingPriceIndicatorAddInImp.cpp

; 430  : 	ML_SET_DEFAULT_RES();

  00076	c7 45 fc 00 00
	00 00		 mov	 DWORD PTR __$EHRec$[ebp+8], 0
; File C:\Program Files (x86)\Microsoft Visual Studio\2019\Community\VC\Tools\MSVC\14.29.30133\atlmfc\include\afxwin1.inl

; 19   : 	{ return afxCurrentWinApp; }

  0007d	e8 00 00 00 00	 call	 ?AfxGetModuleState@@YGPAVAFX_MODULE_STATE@@XZ ; AfxGetModuleState
; File C:\Program Files (x86)\Microsoft Visual Studio\2019\Community\VC\Tools\MSVC\14.29.30133\atlmfc\include\afxwin2.inl

; 1044 : 	{ return ::LoadCursorW(AfxFindResourceHandle(ATL_MAKEINTRESOURCE(nIDResource),

  00082	68 48 71 00 00	 push	 29000			; 00007148H
  00087	6a 0c		 push	 12			; 0000000cH
  00089	68 48 71 00 00	 push	 29000			; 00007148H
  0008e	e8 00 00 00 00	 call	 ?AfxFindResourceHandle@@YGPAUHINSTANCE__@@PBD0@Z ; AfxFindResourceHandle
  00093	50		 push	 eax
  00094	ff 15 00 00 00
	00		 call	 DWORD PTR __imp__LoadCursorW@8
; File D:\git\src\IBK\IBK_DRFN\ProjSrc\SrcChartEx\ChartOCX\AddInManager\ChartCommonAddIn\AskingPriceIndicatorAddInImp.cpp

; 433  : 	m_pIChartOCX->SetCursorHandle( m_hAPCursor);

  0009a	8b 4b 04	 mov	 ecx, DWORD PTR [ebx+4]
  0009d	89 83 d8 00 00
	00		 mov	 DWORD PTR [ebx+216], eax
  000a3	50		 push	 eax
  000a4	8b 11		 mov	 edx, DWORD PTR [ecx]
  000a6	ff 52 4c	 call	 DWORD PTR [edx+76]

; 434  : 
; 435  : 	// 3. 호가연동 처리 Flag을 설정한다.
; 436  : 	m_bOnFireAskingPriceGShare = TRUE;

  000a9	c7 83 b8 00 00
	00 01 00 00 00	 mov	 DWORD PTR [ebx+184], 1
; File C:\Program Files (x86)\Microsoft Visual Studio\2019\Community\VC\Tools\MSVC\14.29.30133\atlmfc\include\cstringt.h

; 2401 : 		CStringT strResult( str1.GetManager() );

  000b3	8d 8b dc 00 00
	00		 lea	 ecx, DWORD PTR [ebx+220]
; File D:\git\src\IBK\IBK_DRFN\ProjSrc\SrcChartEx\ChartOCX\AddInManager\ChartCommonAddIn\AskingPriceIndicatorAddInImp.cpp

; 439  : 	CString strShareData = m_strItemCode + "?" + m_strAskingPrice;

  000b9	c6 45 fc 01	 mov	 BYTE PTR __$EHRec$[ebp+8], 1
; File C:\Program Files (x86)\Microsoft Visual Studio\2019\Community\VC\Tools\MSVC\14.29.30133\atlmfc\include\cstringt.h

; 2401 : 		CStringT strResult( str1.GetManager() );

  000bd	ff 15 00 00 00
	00		 call	 DWORD PTR __imp_?GetManager@?$CStringT@DV?$StrTraitMFC_DLL@DV?$ChTraitsCRT@D@ATL@@@@@ATL@@QBEPAUIAtlStringMgr@2@XZ
  000c3	50		 push	 eax
  000c4	8d 4d ec	 lea	 ecx, DWORD PTR $T5[ebp]
  000c7	ff 15 00 00 00
	00		 call	 DWORD PTR __imp_??0?$CStringT@DV?$StrTraitMFC_DLL@DV?$ChTraitsCRT@D@ATL@@@@@ATL@@QAE@PAUIAtlStringMgr@1@@Z
; File C:\Program Files (x86)\Microsoft Visual Studio\2019\Community\VC\Tools\MSVC\14.29.30133\atlmfc\include\atlsimpstr.h

; 519  : 		return( GetData()->nDataLength );

  000cd	8b 83 dc 00 00
	00		 mov	 eax, DWORD PTR [ebx+220]
; File C:\Program Files (x86)\Microsoft Visual Studio\2019\Community\VC\Tools\MSVC\14.29.30133\atlmfc\include\cstringt.h

; 2403 : 		CThisSimpleString::Concatenate( strResult, str1, str1.GetLength(), psz2, CThisSimpleString::StringLength( psz2 ) );

  000d3	6a 01		 push	 1
  000d5	68 00 00 00 00	 push	 OFFSET ??_C@_01OGPIMHDM@?$DP@

; 2404 : 
; 2405 : 		return( strResult );

  000da	c7 45 e8 01 00
	00 00		 mov	 DWORD PTR $T3[ebp], 1
  000e1	ff 70 f4	 push	 DWORD PTR [eax-12]
  000e4	50		 push	 eax
  000e5	8d 45 ec	 lea	 eax, DWORD PTR $T5[ebp]
  000e8	50		 push	 eax
  000e9	ff 15 00 00 00
	00		 call	 DWORD PTR __imp_?Concatenate@?$CSimpleStringT@D$00@ATL@@KAXAAV12@PBDH1H@Z
; File D:\git\src\IBK\IBK_DRFN\ProjSrc\SrcChartEx\ChartOCX\AddInManager\ChartCommonAddIn\AskingPriceIndicatorAddInImp.cpp

; 439  : 	CString strShareData = m_strItemCode + "?" + m_strAskingPrice;

  000ef	8d 83 e8 00 00
	00		 lea	 eax, DWORD PTR [ebx+232]
  000f5	50		 push	 eax
  000f6	8d 45 ec	 lea	 eax, DWORD PTR $T5[ebp]
  000f9	50		 push	 eax
  000fa	8d 45 e4	 lea	 eax, DWORD PTR _strShareData$[ebp]
  000fd	50		 push	 eax
  000fe	e8 00 00 00 00	 call	 ??HATL@@YA?AV?$CStringT@DV?$StrTraitMFC_DLL@DV?$ChTraitsCRT@D@ATL@@@@@0@ABV10@0@Z ; ATL::operator+
  00103	83 c4 20	 add	 esp, 32			; 00000020H
  00106	8d 4d ec	 lea	 ecx, DWORD PTR $T5[ebp]
  00109	c6 45 fc 03	 mov	 BYTE PTR __$EHRec$[ebp+8], 3
  0010d	ff 15 00 00 00
	00		 call	 DWORD PTR __imp_??1?$CStringT@DV?$StrTraitMFC_DLL@DV?$ChTraitsCRT@D@ATL@@@@@ATL@@QAE@XZ

; 440  : 	m_pIChartOCX->FireGSharedData( _MTEXT( C6_ASKED_PRICE_CHART), strShareData);

  00113	8b 4b 04	 mov	 ecx, DWORD PTR [ebx+4]
  00116	a1 54 00 00 00	 mov	 eax, DWORD PTR ?g_iMetaTable@@3VIMetaTable@@A+84
  0011b	ff 75 e4	 push	 DWORD PTR _strShareData$[ebp]
  0011e	8b 11		 mov	 edx, DWORD PTR [ecx]
  00120	ff b0 84 09 00
	00		 push	 DWORD PTR [eax+2436]
  00126	ff 92 54 01 00
	00		 call	 DWORD PTR [edx+340]

; 441  : 
; 442  : 	// (2005/8/18 - Seung-Won, Bae) Modify to Fire Shared Data, even if without Asking Price Unit.
; 443  : 	double dFixedAskingPrice = _FnGetPriceUnit_ERROR;
; 444  : 	// (2004.11.01, 배승원) 장구분을 관리하여, 기본 호가 연동에 이용한다.
; 445  : 	if( m_nMarketType != -1 && m_fnFnGetPriceUnit && m_dYClosePrice && m_nRatioByYCP)

  0012c	8b 8b ec 00 00
	00		 mov	 ecx, DWORD PTR [ebx+236]
  00132	83 f9 ff	 cmp	 ecx, -1
  00135	74 66		 je	 SHORT $LN69@OnLButtonD
  00137	8b 83 04 01 00
	00		 mov	 eax, DWORD PTR [ebx+260]
  0013d	89 45 e8	 mov	 DWORD PTR tv499[ebp], eax
  00140	85 c0		 test	 eax, eax
  00142	74 59		 je	 SHORT $LN69@OnLButtonD
  00144	f2 0f 10 83 f8
	00 00 00	 movsd	 xmm0, QWORD PTR [ebx+248]
  0014c	66 0f 2e 05 00
	00 00 00	 ucomisd xmm0, QWORD PTR __real@0000000000000000
  00154	9f		 lahf
  00155	f6 c4 44	 test	 ah, 68			; 00000044H
  00158	7b 43		 jnp	 SHORT $LN69@OnLButtonD
  0015a	8b 83 f0 00 00
	00		 mov	 eax, DWORD PTR [ebx+240]
  00160	85 c0		 test	 eax, eax
  00162	74 39		 je	 SHORT $LN69@OnLButtonD

; 446  : 	{
; 447  : 		// FnGetPriceUnit( 장구분,  가격,  전일종가,  가격/대비율구분[nFlag 1:가격, 2:대비율] )
; 448  : 		//		Error Value -99999999
; 449  : 		dFixedAskingPrice = m_fnFnGetPriceUnit( m_nMarketType, m_dIndicatedPrice, m_dYClosePrice, m_nRatioByYCP);

  00164	50		 push	 eax
  00165	83 ec 10	 sub	 esp, 16			; 00000010H
  00168	f2 0f 11 44 24
	08		 movsd	 QWORD PTR [esp+8], xmm0
  0016e	f2 0f 10 83 d0
	00 00 00	 movsd	 xmm0, QWORD PTR [ebx+208]
  00176	f2 0f 11 04 24	 movsd	 QWORD PTR [esp], xmm0
  0017b	51		 push	 ecx
  0017c	ff 55 e8	 call	 DWORD PTR tv499[ebp]
  0017f	dd 5d dc	 fstp	 QWORD PTR _dFixedAskingPrice$[ebp]

; 450  : 	}
; 451  : 	if( dFixedAskingPrice == _FnGetPriceUnit_ERROR) dFixedAskingPrice = m_dIndicatedPrice;

  00182	f2 0f 10 45 dc	 movsd	 xmm0, QWORD PTR _dFixedAskingPrice$[ebp]
  00187	83 c4 18	 add	 esp, 24			; 00000018H
  0018a	66 0f 2e 05 00
	00 00 00	 ucomisd xmm0, QWORD PTR __real@c197d783fc000000
  00192	f2 0f 11 45 dc	 movsd	 QWORD PTR _dFixedAskingPrice$1$[ebp], xmm0
  00197	9f		 lahf
  00198	f6 c4 44	 test	 ah, 68			; 00000044H
  0019b	7a 0d		 jp	 SHORT $LN5@OnLButtonD
$LN69@OnLButtonD:
  0019d	f2 0f 10 83 d0
	00 00 00	 movsd	 xmm0, QWORD PTR [ebx+208]
  001a5	f2 0f 11 45 dc	 movsd	 QWORD PTR _dFixedAskingPrice$1$[ebp], xmm0
$LN5@OnLButtonD:

; 452  : 
; 453  : 	CString strFixedAskingPrice;

  001aa	8d 4d f0	 lea	 ecx, DWORD PTR _strFixedAskingPrice$[ebp]
  001ad	ff 15 00 00 00
	00		 call	 DWORD PTR __imp_??0?$CStringT@DV?$StrTraitMFC_DLL@DV?$ChTraitsCRT@D@ATL@@@@@ATL@@QAE@XZ

; 454  : 	// (2004.10.26, 배승원) 호가의 정밀도(Precision)을 관리하여 호가 String의 생성에 참고하도록 한다.
; 455  : 	int nDecimal = 0;
; 456  : 	// (2004.10.26, 배승원, 주의!) double을 Int로 변환하는 과정에서 정확한 Int로 변환되지 않는 문제를 해결하기 위해 100배 유효자리수를 얻도록 조정한다.
; 457  : 	nDecimal = ( int)( ( log10( dFixedAskingPrice) * 100) / 100);	

  001b3	f2 0f 10 45 dc	 movsd	 xmm0, QWORD PTR _dFixedAskingPrice$1$[ebp]
  001b8	e8 00 00 00 00	 call	 __libm_sse2_log10_precise
  001bd	f2 0f 59 05 00
	00 00 00	 mulsd	 xmm0, QWORD PTR __real@4059000000000000

; 458  : 	CString strFormat;

  001c5	8d 4d 10	 lea	 ecx, DWORD PTR _strFormat$[ebp]
  001c8	f2 0f 5e 05 00
	00 00 00	 divsd	 xmm0, QWORD PTR __real@4059000000000000
  001d0	f2 0f 2c f8	 cvttsd2si edi, xmm0
  001d4	ff 15 00 00 00
	00		 call	 DWORD PTR __imp_??0?$CStringT@DV?$StrTraitMFC_DLL@DV?$ChTraitsCRT@D@ATL@@@@@ATL@@QAE@XZ
  001da	c6 45 fc 05	 mov	 BYTE PTR __$EHRec$[ebp+8], 5

; 459  : 	if( 0 <= nDecimal) strFormat = "%.0f";

  001de	85 ff		 test	 edi, edi
  001e0	78 10		 js	 SHORT $LN6@OnLButtonD
  001e2	68 00 00 00 00	 push	 OFFSET ??_C@_04GHNNFJCK@?$CF?40f@
  001e7	8d 4d 10	 lea	 ecx, DWORD PTR _strFormat$[ebp]
  001ea	ff 15 00 00 00
	00		 call	 DWORD PTR __imp_??4?$CStringT@DV?$StrTraitMFC_DLL@DV?$ChTraitsCRT@D@ATL@@@@@ATL@@QAEAAV01@PBD@Z
  001f0	eb 15		 jmp	 SHORT $LN7@OnLButtonD
$LN6@OnLButtonD:

; 460  : 	else strFormat.Format( "%%.%df", -nDecimal);

  001f2	f7 df		 neg	 edi
  001f4	8d 45 10	 lea	 eax, DWORD PTR _strFormat$[ebp]
  001f7	57		 push	 edi
  001f8	68 00 00 00 00	 push	 OFFSET ??_C@_06DNBDMDIL@?$CF?$CF?4?$CFdf@
  001fd	50		 push	 eax
  001fe	ff 15 00 00 00
	00		 call	 DWORD PTR __imp_?Format@?$CStringT@DV?$StrTraitMFC_DLL@DV?$ChTraitsCRT@D@ATL@@@@@ATL@@QAAXPBDZZ
  00204	83 c4 0c	 add	 esp, 12			; 0000000cH
$LN7@OnLButtonD:

; 461  : 	strFixedAskingPrice.Format( strFormat, dFixedAskingPrice);

  00207	f2 0f 10 45 dc	 movsd	 xmm0, QWORD PTR _dFixedAskingPrice$1$[ebp]
  0020c	8d 45 f0	 lea	 eax, DWORD PTR _strFixedAskingPrice$[ebp]
  0020f	83 ec 08	 sub	 esp, 8
  00212	f2 0f 11 04 24	 movsd	 QWORD PTR [esp], xmm0
  00217	ff 75 10	 push	 DWORD PTR _strFormat$[ebp]
  0021a	50		 push	 eax
  0021b	ff 15 00 00 00
	00		 call	 DWORD PTR __imp_?Format@?$CStringT@DV?$StrTraitMFC_DLL@DV?$ChTraitsCRT@D@ATL@@@@@ATL@@QAAXPBDZZ
  00221	83 c4 10	 add	 esp, 16			; 00000010H
; File C:\Program Files (x86)\Microsoft Visual Studio\2019\Community\VC\Tools\MSVC\14.29.30133\atlmfc\include\cstringt.h

; 2401 : 		CStringT strResult( str1.GetManager() );

  00224	8d 8b dc 00 00
	00		 lea	 ecx, DWORD PTR [ebx+220]
; File D:\git\src\IBK\IBK_DRFN\ProjSrc\SrcChartEx\ChartOCX\AddInManager\ChartCommonAddIn\AskingPriceIndicatorAddInImp.cpp

; 463  : 	m_pIChartOCX->FireGSharedData( _MTEXT( C6_CODE_ASKED_PRICE), m_strItemCode + "?" + strFixedAskingPrice);

  0022a	c6 45 fc 06	 mov	 BYTE PTR __$EHRec$[ebp+8], 6
; File C:\Program Files (x86)\Microsoft Visual Studio\2019\Community\VC\Tools\MSVC\14.29.30133\atlmfc\include\cstringt.h

; 2401 : 		CStringT strResult( str1.GetManager() );

  0022e	ff 15 00 00 00
	00		 call	 DWORD PTR __imp_?GetManager@?$CStringT@DV?$StrTraitMFC_DLL@DV?$ChTraitsCRT@D@ATL@@@@@ATL@@QBEPAUIAtlStringMgr@2@XZ
  00234	50		 push	 eax
  00235	8d 4d ec	 lea	 ecx, DWORD PTR $T4[ebp]
  00238	ff 15 00 00 00
	00		 call	 DWORD PTR __imp_??0?$CStringT@DV?$StrTraitMFC_DLL@DV?$ChTraitsCRT@D@ATL@@@@@ATL@@QAE@PAUIAtlStringMgr@1@@Z
; File C:\Program Files (x86)\Microsoft Visual Studio\2019\Community\VC\Tools\MSVC\14.29.30133\atlmfc\include\atlsimpstr.h

; 519  : 		return( GetData()->nDataLength );

  0023e	8b 83 dc 00 00
	00		 mov	 eax, DWORD PTR [ebx+220]
; File C:\Program Files (x86)\Microsoft Visual Studio\2019\Community\VC\Tools\MSVC\14.29.30133\atlmfc\include\cstringt.h

; 2403 : 		CThisSimpleString::Concatenate( strResult, str1, str1.GetLength(), psz2, CThisSimpleString::StringLength( psz2 ) );

  00244	6a 01		 push	 1
  00246	68 00 00 00 00	 push	 OFFSET ??_C@_01OGPIMHDM@?$DP@

; 2404 : 
; 2405 : 		return( strResult );

  0024b	c7 45 e8 02 00
	00 00		 mov	 DWORD PTR $T3[ebp], 2
  00252	ff 70 f4	 push	 DWORD PTR [eax-12]
  00255	50		 push	 eax
  00256	8d 45 ec	 lea	 eax, DWORD PTR $T4[ebp]
  00259	50		 push	 eax
  0025a	ff 15 00 00 00
	00		 call	 DWORD PTR __imp_?Concatenate@?$CSimpleStringT@D$00@ATL@@KAXAAV12@PBDH1H@Z
; File D:\git\src\IBK\IBK_DRFN\ProjSrc\SrcChartEx\ChartOCX\AddInManager\ChartCommonAddIn\AskingPriceIndicatorAddInImp.cpp

; 463  : 	m_pIChartOCX->FireGSharedData( _MTEXT( C6_CODE_ASKED_PRICE), m_strItemCode + "?" + strFixedAskingPrice);

  00260	8d 45 f0	 lea	 eax, DWORD PTR _strFixedAskingPrice$[ebp]
  00263	50		 push	 eax
  00264	8d 45 ec	 lea	 eax, DWORD PTR $T4[ebp]
  00267	50		 push	 eax
  00268	8d 45 e0	 lea	 eax, DWORD PTR $T2[ebp]
  0026b	50		 push	 eax
  0026c	e8 00 00 00 00	 call	 ??HATL@@YA?AV?$CStringT@DV?$StrTraitMFC_DLL@DV?$ChTraitsCRT@D@ATL@@@@@0@ABV10@0@Z ; ATL::operator+
  00271	83 c4 20	 add	 esp, 32			; 00000020H
  00274	8b 4b 04	 mov	 ecx, DWORD PTR [ebx+4]
  00277	ff 30		 push	 DWORD PTR [eax]
  00279	a1 54 00 00 00	 mov	 eax, DWORD PTR ?g_iMetaTable@@3VIMetaTable@@A+84
  0027e	c6 45 fc 07	 mov	 BYTE PTR __$EHRec$[ebp+8], 7
  00282	8b 11		 mov	 edx, DWORD PTR [ecx]
  00284	ff b0 88 09 00
	00		 push	 DWORD PTR [eax+2440]
  0028a	ff 92 54 01 00
	00		 call	 DWORD PTR [edx+340]
  00290	8d 4d e0	 lea	 ecx, DWORD PTR $T2[ebp]
  00293	ff 15 00 00 00
	00		 call	 DWORD PTR __imp_??1?$CStringT@DV?$StrTraitMFC_DLL@DV?$ChTraitsCRT@D@ATL@@@@@ATL@@QAE@XZ
  00299	8d 4d ec	 lea	 ecx, DWORD PTR $T4[ebp]
  0029c	c6 45 fc 05	 mov	 BYTE PTR __$EHRec$[ebp+8], 5
  002a0	ff 15 00 00 00
	00		 call	 DWORD PTR __imp_??1?$CStringT@DV?$StrTraitMFC_DLL@DV?$ChTraitsCRT@D@ATL@@@@@ATL@@QAE@XZ
; File C:\Program Files (x86)\Microsoft Visual Studio\2019\Community\VC\Tools\MSVC\14.29.30133\atlmfc\include\atlsimpstr.h

; 377  : 		return( m_pszData );

  002a6	8b 7d f0	 mov	 edi, DWORD PTR _strFixedAskingPrice$[ebp]
; File C:\Program Files (x86)\Microsoft Visual Studio\2019\Community\VC\Tools\MSVC\14.29.30133\atlmfc\include\afxwin1.inl

; 19   : 	{ return afxCurrentWinApp; }

  002a9	e8 00 00 00 00	 call	 ?AfxGetModuleState@@YGPAVAFX_MODULE_STATE@@XZ ; AfxGetModuleState
; File D:\git\src\IBK\IBK_DRFN\ProjSrc\SrcChartEx\ChartOCX\AddInManager\ChartCommonAddIn\AskingPriceIndicatorAddInImp.cpp

; 465  : 	m_pIChartOCX->FireAddInEvent( AfxGetApp()->m_pszAppName, m_eAskingPriceValue, strFixedAskingPrice, 0, 0);

  002ae	8b 4b 04	 mov	 ecx, DWORD PTR [ebx+4]
  002b1	0f 57 c0	 xorps	 xmm0, xmm0
  002b4	6a 00		 push	 0
  002b6	83 ec 08	 sub	 esp, 8
; File C:\Program Files (x86)\Microsoft Visual Studio\2019\Community\VC\Tools\MSVC\14.29.30133\atlmfc\include\afxwin1.inl

; 19   : 	{ return afxCurrentWinApp; }

  002b9	8b 40 04	 mov	 eax, DWORD PTR [eax+4]
; File D:\git\src\IBK\IBK_DRFN\ProjSrc\SrcChartEx\ChartOCX\AddInManager\ChartCommonAddIn\AskingPriceIndicatorAddInImp.cpp

; 465  : 	m_pIChartOCX->FireAddInEvent( AfxGetApp()->m_pszAppName, m_eAskingPriceValue, strFixedAskingPrice, 0, 0);

  002bc	8b 11		 mov	 edx, DWORD PTR [ecx]
  002be	f2 0f 11 04 24	 movsd	 QWORD PTR [esp], xmm0
  002c3	57		 push	 edi
  002c4	6a 00		 push	 0
  002c6	ff 70 50	 push	 DWORD PTR [eax+80]
  002c9	ff 92 a8 01 00
	00		 call	 DWORD PTR [edx+424]

; 467  : 	return TRUE;	// 호가연동 처리시 다른 Mouse Action이 이어지지 않도록 한다.

  002cf	8d 4d 10	 lea	 ecx, DWORD PTR _strFormat$[ebp]
  002d2	ff 15 00 00 00
	00		 call	 DWORD PTR __imp_??1?$CStringT@DV?$StrTraitMFC_DLL@DV?$ChTraitsCRT@D@ATL@@@@@ATL@@QAE@XZ
  002d8	8d 4d f0	 lea	 ecx, DWORD PTR _strFixedAskingPrice$[ebp]
  002db	ff 15 00 00 00
	00		 call	 DWORD PTR __imp_??1?$CStringT@DV?$StrTraitMFC_DLL@DV?$ChTraitsCRT@D@ATL@@@@@ATL@@QAE@XZ
  002e1	8d 4d e4	 lea	 ecx, DWORD PTR _strShareData$[ebp]
  002e4	ff 15 00 00 00
	00		 call	 DWORD PTR __imp_??1?$CStringT@DV?$StrTraitMFC_DLL@DV?$ChTraitsCRT@D@ATL@@@@@ATL@@QAE@XZ
; File D:\git\src\IBK\IBK_DRFN\ProjSrc\SrcChartEx\ChartOCX\Include_Chart\Dll_Load\IMetaTable.h

; 1036 : 	{

  002ea	c7 45 fc 08 00
	00 00		 mov	 DWORD PTR __$EHRec$[ebp+8], 8
; File C:\Program Files (x86)\Microsoft Visual Studio\2019\Community\VC\Tools\MSVC\14.29.30133\atlmfc\include\afxwin1.inl

; 27   : 	{ ASSERT(hInstResource != NULL); afxCurrentResourceHandle = hInstResource; }

  002f1	e8 00 00 00 00	 call	 ?AfxGetModuleState@@YGPAVAFX_MODULE_STATE@@XZ ; AfxGetModuleState
  002f6	89 70 0c	 mov	 DWORD PTR [eax+12], esi
; File D:\git\src\IBK\IBK_DRFN\ProjSrc\SrcChartEx\ChartOCX\AddInManager\ChartCommonAddIn\AskingPriceIndicatorAddInImp.cpp

; 467  : 	return TRUE;	// 호가연동 처리시 다른 Mouse Action이 이어지지 않도록 한다.

  002f9	b8 01 00 00 00	 mov	 eax, 1

; 468  : }

  002fe	8b 4d f4	 mov	 ecx, DWORD PTR __$EHRec$[ebp]
  00301	64 89 0d 00 00
	00 00		 mov	 DWORD PTR fs:0, ecx
  00308	59		 pop	 ecx
  00309	5f		 pop	 edi
  0030a	5e		 pop	 esi
  0030b	5b		 pop	 ebx
  0030c	8b e5		 mov	 esp, ebp
  0030e	5d		 pop	 ebp
  0030f	c2 10 00	 ret	 16			; 00000010H
$LN3@OnLButtonD:

; 424  : 	if( !( m_rctAskingPriceMark.PtInRect( point) && m_bOnSetCaprture)) return FALSE;

  00312	33 c0		 xor	 eax, eax

; 468  : }

  00314	8b 4d f4	 mov	 ecx, DWORD PTR __$EHRec$[ebp]
  00317	64 89 0d 00 00
	00 00		 mov	 DWORD PTR fs:0, ecx
  0031e	59		 pop	 ecx
  0031f	5f		 pop	 edi
  00320	5e		 pop	 esi
  00321	5b		 pop	 ebx
  00322	8b e5		 mov	 esp, ebp
  00324	5d		 pop	 ebp
  00325	c2 10 00	 ret	 16			; 00000010H
_TEXT	ENDS
;	COMDAT text$x
text$x	SEGMENT
__unwindfunclet$?OnLButtonDown@CAskingPriceIndicatorAddInImp@@MAEHPAUHDC__@@IAAUtagPOINT@@K@Z$0:
  00000	8d 4d d8	 lea	 ecx, DWORD PTR ___mlrs__$[ebp]
  00003	e9 00 00 00 00	 jmp	 ??1CMultiLanguageResourceSetter@@QAE@XZ ; CMultiLanguageResourceSetter::~CMultiLanguageResourceSetter
__unwindfunclet$?OnLButtonDown@CAskingPriceIndicatorAddInImp@@MAEHPAUHDC__@@IAAUtagPOINT@@K@Z$7:
  00008	8b 45 e8	 mov	 eax, DWORD PTR $T3[ebp]
  0000b	83 e0 01	 and	 eax, 1
  0000e	0f 84 0d 00 00
	00		 je	 $LN31@OnLButtonD
  00014	83 65 e8 fe	 and	 DWORD PTR $T3[ebp], -2	; fffffffeH
  00018	8d 4d ec	 lea	 ecx, DWORD PTR $T5[ebp]
  0001b	ff 25 00 00 00
	00		 jmp	 DWORD PTR __imp_??1?$CStringT@DV?$StrTraitMFC_DLL@DV?$ChTraitsCRT@D@ATL@@@@@ATL@@QAE@XZ
$LN31@OnLButtonD:
  00021	c3		 ret	 0
__unwindfunclet$?OnLButtonDown@CAskingPriceIndicatorAddInImp@@MAEHPAUHDC__@@IAAUtagPOINT@@K@Z$2:
  00022	8d 4d e4	 lea	 ecx, DWORD PTR _strShareData$[ebp]
  00025	ff 25 00 00 00
	00		 jmp	 DWORD PTR __imp_??1?$CStringT@DV?$StrTraitMFC_DLL@DV?$ChTraitsCRT@D@ATL@@@@@ATL@@QAE@XZ
__unwindfunclet$?OnLButtonDown@CAskingPriceIndicatorAddInImp@@MAEHPAUHDC__@@IAAUtagPOINT@@K@Z$3:
  0002b	8d 4d f0	 lea	 ecx, DWORD PTR _strFixedAskingPrice$[ebp]
  0002e	ff 25 00 00 00
	00		 jmp	 DWORD PTR __imp_??1?$CStringT@DV?$StrTraitMFC_DLL@DV?$ChTraitsCRT@D@ATL@@@@@ATL@@QAE@XZ
__unwindfunclet$?OnLButtonDown@CAskingPriceIndicatorAddInImp@@MAEHPAUHDC__@@IAAUtagPOINT@@K@Z$4:
  00034	8d 4d 10	 lea	 ecx, DWORD PTR _strFormat$[ebp]
  00037	ff 25 00 00 00
	00		 jmp	 DWORD PTR __imp_??1?$CStringT@DV?$StrTraitMFC_DLL@DV?$ChTraitsCRT@D@ATL@@@@@ATL@@QAE@XZ
__unwindfunclet$?OnLButtonDown@CAskingPriceIndicatorAddInImp@@MAEHPAUHDC__@@IAAUtagPOINT@@K@Z$8:
  0003d	8b 45 e8	 mov	 eax, DWORD PTR $T3[ebp]
  00040	83 e0 02	 and	 eax, 2
  00043	0f 84 0d 00 00
	00		 je	 $LN48@OnLButtonD
  00049	83 65 e8 fd	 and	 DWORD PTR $T3[ebp], -3	; fffffffdH
  0004d	8d 4d ec	 lea	 ecx, DWORD PTR $T4[ebp]
  00050	ff 25 00 00 00
	00		 jmp	 DWORD PTR __imp_??1?$CStringT@DV?$StrTraitMFC_DLL@DV?$ChTraitsCRT@D@ATL@@@@@ATL@@QAE@XZ
$LN48@OnLButtonD:
  00056	c3		 ret	 0
__unwindfunclet$?OnLButtonDown@CAskingPriceIndicatorAddInImp@@MAEHPAUHDC__@@IAAUtagPOINT@@K@Z$6:
  00057	8d 4d e0	 lea	 ecx, DWORD PTR $T2[ebp]
  0005a	ff 25 00 00 00
	00		 jmp	 DWORD PTR __imp_??1?$CStringT@DV?$StrTraitMFC_DLL@DV?$ChTraitsCRT@D@ATL@@@@@ATL@@QAE@XZ
  00060	cc		 int	 3
  00061	cc		 int	 3
  00062	cc		 int	 3
  00063	cc		 int	 3
  00064	cc		 int	 3
__ehhandler$?OnLButtonDown@CAskingPriceIndicatorAddInImp@@MAEHPAUHDC__@@IAAUtagPOINT@@K@Z:
  00065	90		 npad	 1
  00066	90		 npad	 1
  00067	8b 54 24 08	 mov	 edx, DWORD PTR [esp+8]
  0006b	8d 42 0c	 lea	 eax, DWORD PTR [edx+12]
  0006e	8b 4a d4	 mov	 ecx, DWORD PTR [edx-44]
  00071	33 c8		 xor	 ecx, eax
  00073	e8 00 00 00 00	 call	 @__security_check_cookie@4
  00078	b8 00 00 00 00	 mov	 eax, OFFSET __ehfuncinfo$?OnLButtonDown@CAskingPriceIndicatorAddInImp@@MAEHPAUHDC__@@IAAUtagPOINT@@K@Z
  0007d	e9 00 00 00 00	 jmp	 ___CxxFrameHandler3
text$x	ENDS
?OnLButtonDown@CAskingPriceIndicatorAddInImp@@MAEHPAUHDC__@@IAAUtagPOINT@@K@Z ENDP ; CAskingPriceIndicatorAddInImp::OnLButtonDown
; Function compile flags: /Ogtp
; File D:\git\src\IBK\IBK_DRFN\ProjSrc\SrcChartEx\ChartOCX\AddInManager\ChartCommonAddIn\AskingPriceIndicatorAddInImp.cpp
; File C:\Program Files (x86)\Microsoft Visual Studio\2019\Community\VC\Tools\MSVC\14.29.30133\atlmfc\include\atltypes.h
; File D:\git\src\IBK\IBK_DRFN\ProjSrc\SrcChartEx\ChartOCX\AddInManager\ChartCommonAddIn\AskingPriceIndicatorAddInImp.cpp
; File C:\Program Files (x86)\Microsoft Visual Studio\2019\Community\VC\Tools\MSVC\14.29.30133\atlmfc\include\atltypes.h
; File D:\git\src\IBK\IBK_DRFN\ProjSrc\SrcChartEx\ChartOCX\AddInManager\ChartCommonAddIn\AskingPriceIndicatorAddInImp.cpp
; File C:\Program Files (x86)\Microsoft Visual Studio\2019\Community\VC\Tools\MSVC\14.29.30133\atlmfc\include\atlsimpstr.h
; File D:\git\src\IBK\IBK_DRFN\ProjSrc\SrcChartEx\ChartOCX\AddInManager\ChartCommonAddIn\AskingPriceIndicatorAddInImp.cpp
; File C:\Program Files (x86)\Microsoft Visual Studio\2019\Community\VC\Tools\MSVC\14.29.30133\atlmfc\include\afxwin1.inl
; File D:\git\src\IBK\IBK_DRFN\ProjSrc\SrcChartEx\ChartOCX\Include_Chart\Dll_Load\IMetaTable.h
; File C:\Program Files (x86)\Microsoft Visual Studio\2019\Community\VC\Tools\MSVC\14.29.30133\atlmfc\include\afxwin1.inl
; File D:\git\src\IBK\IBK_DRFN\ProjSrc\SrcChartEx\ChartOCX\AddInManager\ChartCommonAddIn\AskingPriceIndicatorAddInImp.cpp
; File C:\Program Files (x86)\Microsoft Visual Studio\2019\Community\VC\Tools\MSVC\14.29.30133\atlmfc\include\afxwin1.inl
; File C:\Program Files (x86)\Microsoft Visual Studio\2019\Community\VC\Tools\MSVC\14.29.30133\atlmfc\include\afxwin2.inl
; File D:\git\src\IBK\IBK_DRFN\ProjSrc\SrcChartEx\ChartOCX\AddInManager\ChartCommonAddIn\AskingPriceIndicatorAddInImp.cpp
; File D:\git\src\IBK\IBK_DRFN\ProjSrc\SrcChartEx\ChartOCX\Include_Chart\Dll_Load\IMetaTable.h
; File C:\Program Files (x86)\Microsoft Visual Studio\2019\Community\VC\Tools\MSVC\14.29.30133\atlmfc\include\afxwin1.inl
; File D:\git\src\IBK\IBK_DRFN\ProjSrc\SrcChartEx\ChartOCX\Include_Chart\Dll_Load\IMetaTable.h
; File C:\Program Files (x86)\Microsoft Visual Studio\2019\Community\VC\Tools\MSVC\14.29.30133\atlmfc\include\afxwin1.inl
; File D:\git\src\IBK\IBK_DRFN\ProjSrc\SrcChartEx\ChartOCX\Include_Chart\Dll_Load\IMetaTable.h
; File D:\git\src\IBK\IBK_DRFN\ProjSrc\SrcChartEx\ChartOCX\AddInManager\ChartCommonAddIn\AskingPriceIndicatorAddInImp.cpp
;	COMDAT ?OnMouseMove@CAskingPriceIndicatorAddInImp@@MAEHPAUHDC__@@IAAUtagPOINT@@KQAUHBITMAP__@@@Z
_TEXT	SEGMENT
__$EHRec$ = -12						; size = 12
_p_hDC$ = 8						; size = 4
___mlrs__$2 = 12					; size = 4
_nFlags$ = 12						; size = 4
_point$ = 16						; size = 4
_p_dwMouseActionID$ = 20				; size = 4
_p_hbmpMainOSB$ = 24					; size = 4
?OnMouseMove@CAskingPriceIndicatorAddInImp@@MAEHPAUHDC__@@IAAUtagPOINT@@KQAUHBITMAP__@@@Z PROC ; CAskingPriceIndicatorAddInImp::OnMouseMove, COMDAT
; _this$ = ecx

; 356  : {

  00000	55		 push	 ebp
  00001	8b ec		 mov	 ebp, esp
  00003	6a ff		 push	 -1
  00005	68 00 00 00 00	 push	 __ehhandler$?OnMouseMove@CAskingPriceIndicatorAddInImp@@MAEHPAUHDC__@@IAAUtagPOINT@@KQAUHBITMAP__@@@Z
  0000a	64 a1 00 00 00
	00		 mov	 eax, DWORD PTR fs:0
  00010	50		 push	 eax
  00011	53		 push	 ebx
  00012	56		 push	 esi
  00013	57		 push	 edi
  00014	a1 00 00 00 00	 mov	 eax, DWORD PTR ___security_cookie
  00019	33 c5		 xor	 eax, ebp
  0001b	50		 push	 eax
  0001c	8d 45 f4	 lea	 eax, DWORD PTR __$EHRec$[ebp]
  0001f	64 a3 00 00 00
	00		 mov	 DWORD PTR fs:0, eax
  00025	8b d9		 mov	 ebx, ecx

; 357  : 	// 1. 먼저 호가연동이 설정된 경우를 처리한다. (호가연동 Mark를 Clear한다.)
; 358  : 	if( m_bOnFireAskingPriceGShare) ClearAskingPriceGShareFireFlag();

  00027	83 bb b8 00 00
	00 00		 cmp	 DWORD PTR [ebx+184], 0
  0002e	74 08		 je	 SHORT $LN2@OnMouseMov
  00030	8d 4b f8	 lea	 ecx, DWORD PTR [ebx-8]
  00033	e8 00 00 00 00	 call	 ?ClearAskingPriceGShareFireFlag@CAskingPriceIndicatorAddInImp@@IAEXXZ ; CAskingPriceIndicatorAddInImp::ClearAskingPriceGShareFireFlag
$LN2@OnMouseMov:
; File C:\Program Files (x86)\Microsoft Visual Studio\2019\Community\VC\Tools\MSVC\14.29.30133\atlmfc\include\atltypes.h

; 648  : 	return ::PtInRect(this, point);

  00038	8b 75 10	 mov	 esi, DWORD PTR _point$[ebp]
; File D:\git\src\IBK\IBK_DRFN\ProjSrc\SrcChartEx\ChartOCX\AddInManager\ChartCommonAddIn\AskingPriceIndicatorAddInImp.cpp

; 361  : 	if( m_rctAskingPriceMark.PtInRect( point))

  0003b	8d 83 bc 00 00
	00		 lea	 eax, DWORD PTR [ebx+188]
; File C:\Program Files (x86)\Microsoft Visual Studio\2019\Community\VC\Tools\MSVC\14.29.30133\atlmfc\include\atltypes.h

; 648  : 	return ::PtInRect(this, point);

  00041	ff 76 04	 push	 DWORD PTR [esi+4]
  00044	ff 36		 push	 DWORD PTR [esi]
  00046	50		 push	 eax
  00047	ff 15 00 00 00
	00		 call	 DWORD PTR __imp__PtInRect@12
  0004d	8b 8b b4 00 00
	00		 mov	 ecx, DWORD PTR [ebx+180]
; File D:\git\src\IBK\IBK_DRFN\ProjSrc\SrcChartEx\ChartOCX\AddInManager\ChartCommonAddIn\AskingPriceIndicatorAddInImp.cpp

; 361  : 	if( m_rctAskingPriceMark.PtInRect( point))

  00053	85 c0		 test	 eax, eax
  00055	0f 84 9d 00 00
	00		 je	 $LN3@OnMouseMov

; 366  : 		if( !m_bOnSetCaprture && !nFlags && !m_strItemCode.IsEmpty())

  0005b	85 c9		 test	 ecx, ecx
  0005d	0f 85 8a 00 00
	00		 jne	 $LN38@OnMouseMov
  00063	39 4d 0c	 cmp	 DWORD PTR _nFlags$[ebp], ecx
  00066	0f 85 bc 00 00
	00		 jne	 $LN7@OnMouseMov
; File C:\Program Files (x86)\Microsoft Visual Studio\2019\Community\VC\Tools\MSVC\14.29.30133\atlmfc\include\atlsimpstr.h

; 519  : 		return( GetData()->nDataLength );

  0006c	8b 83 dc 00 00
	00		 mov	 eax, DWORD PTR [ebx+220]

; 533  : 		return( GetLength() == 0 );

  00072	39 48 f4	 cmp	 DWORD PTR [eax-12], ecx
; File D:\git\src\IBK\IBK_DRFN\ProjSrc\SrcChartEx\ChartOCX\AddInManager\ChartCommonAddIn\AskingPriceIndicatorAddInImp.cpp

; 366  : 		if( !m_bOnSetCaprture && !nFlags && !m_strItemCode.IsEmpty())

  00075	0f 84 ad 00 00
	00		 je	 $LN7@OnMouseMov

; 367  : 		{
; 368  : 			// 2. Mouse Capturing Flag을 TRUE로 설정한다.
; 369  : 			m_bOnSetCaprture = TRUE;

  0007b	c7 83 b4 00 00
	00 01 00 00 00	 mov	 DWORD PTR [ebx+180], 1

; 375  : 			ML_SET_DEFAULT_RES();

  00085	e8 00 00 00 00	 call	 ?AfxGetStaticModuleState@@YGPAVAFX_MODULE_STATE@@XZ ; AfxGetStaticModuleState
  0008a	8b 78 08	 mov	 edi, DWORD PTR [eax+8]
; File C:\Program Files (x86)\Microsoft Visual Studio\2019\Community\VC\Tools\MSVC\14.29.30133\atlmfc\include\afxwin1.inl

; 25   : 		return afxCurrentResourceHandle; }

  0008d	e8 00 00 00 00	 call	 ?AfxGetModuleState@@YGPAVAFX_MODULE_STATE@@XZ ; AfxGetModuleState
; File D:\git\src\IBK\IBK_DRFN\ProjSrc\SrcChartEx\ChartOCX\Include_Chart\Dll_Load\IMetaTable.h

; 1032 : 		m_hInstance = AfxGetResourceHandle();

  00092	8b 70 0c	 mov	 esi, DWORD PTR [eax+12]
  00095	89 75 0c	 mov	 DWORD PTR ___mlrs__$2[ebp], esi
; File C:\Program Files (x86)\Microsoft Visual Studio\2019\Community\VC\Tools\MSVC\14.29.30133\atlmfc\include\afxwin1.inl

; 27   : 	{ ASSERT(hInstResource != NULL); afxCurrentResourceHandle = hInstResource; }

  00098	e8 00 00 00 00	 call	 ?AfxGetModuleState@@YGPAVAFX_MODULE_STATE@@XZ ; AfxGetModuleState
  0009d	89 78 0c	 mov	 DWORD PTR [eax+12], edi
; File D:\git\src\IBK\IBK_DRFN\ProjSrc\SrcChartEx\ChartOCX\AddInManager\ChartCommonAddIn\AskingPriceIndicatorAddInImp.cpp

; 375  : 			ML_SET_DEFAULT_RES();

  000a0	c7 45 fc 00 00
	00 00		 mov	 DWORD PTR __$EHRec$[ebp+8], 0
; File C:\Program Files (x86)\Microsoft Visual Studio\2019\Community\VC\Tools\MSVC\14.29.30133\atlmfc\include\afxwin1.inl

; 19   : 	{ return afxCurrentWinApp; }

  000a7	e8 00 00 00 00	 call	 ?AfxGetModuleState@@YGPAVAFX_MODULE_STATE@@XZ ; AfxGetModuleState
; File C:\Program Files (x86)\Microsoft Visual Studio\2019\Community\VC\Tools\MSVC\14.29.30133\atlmfc\include\afxwin2.inl

; 1044 : 	{ return ::LoadCursorW(AfxFindResourceHandle(ATL_MAKEINTRESOURCE(nIDResource),

  000ac	68 48 71 00 00	 push	 29000			; 00007148H
  000b1	6a 0c		 push	 12			; 0000000cH
  000b3	68 48 71 00 00	 push	 29000			; 00007148H
  000b8	e8 00 00 00 00	 call	 ?AfxFindResourceHandle@@YGPAUHINSTANCE__@@PBD0@Z ; AfxFindResourceHandle
  000bd	50		 push	 eax
  000be	ff 15 00 00 00
	00		 call	 DWORD PTR __imp__LoadCursorW@8
; File D:\git\src\IBK\IBK_DRFN\ProjSrc\SrcChartEx\ChartOCX\AddInManager\ChartCommonAddIn\AskingPriceIndicatorAddInImp.cpp

; 376  : 			m_hAPCursor = AfxGetApp()->LoadCursor( IDC_AP_INDICATOR);

  000c4	89 83 d8 00 00
	00		 mov	 DWORD PTR [ebx+216], eax
; File D:\git\src\IBK\IBK_DRFN\ProjSrc\SrcChartEx\ChartOCX\Include_Chart\Dll_Load\IMetaTable.h

; 1036 : 	{

  000ca	c7 45 fc 01 00
	00 00		 mov	 DWORD PTR __$EHRec$[ebp+8], 1
; File C:\Program Files (x86)\Microsoft Visual Studio\2019\Community\VC\Tools\MSVC\14.29.30133\atlmfc\include\afxwin1.inl

; 27   : 	{ ASSERT(hInstResource != NULL); afxCurrentResourceHandle = hInstResource; }

  000d1	e8 00 00 00 00	 call	 ?AfxGetModuleState@@YGPAVAFX_MODULE_STATE@@XZ ; AfxGetModuleState
; File D:\git\src\IBK\IBK_DRFN\ProjSrc\SrcChartEx\ChartOCX\Include_Chart\Dll_Load\IMetaTable.h

; 1038 : 	}

  000d6	c7 45 fc ff ff
	ff ff		 mov	 DWORD PTR __$EHRec$[ebp+8], -1
; File C:\Program Files (x86)\Microsoft Visual Studio\2019\Community\VC\Tools\MSVC\14.29.30133\atlmfc\include\afxwin1.inl

; 27   : 	{ ASSERT(hInstResource != NULL); afxCurrentResourceHandle = hInstResource; }

  000dd	89 70 0c	 mov	 DWORD PTR [eax+12], esi
; File D:\git\src\IBK\IBK_DRFN\ProjSrc\SrcChartEx\ChartOCX\Include_Chart\Dll_Load\IMetaTable.h

; 1038 : 	}

  000e0	8b 8b b4 00 00
	00		 mov	 ecx, DWORD PTR [ebx+180]
  000e6	8b 75 10	 mov	 esi, DWORD PTR _point$[ebp]
; File D:\git\src\IBK\IBK_DRFN\ProjSrc\SrcChartEx\ChartOCX\AddInManager\ChartCommonAddIn\AskingPriceIndicatorAddInImp.cpp

; 381  : 		if( m_bOnSetCaprture) m_nIndicatorPosY = point.y;	// Set Indicator Drawing Position			(IndicatorPosition)

  000e9	85 c9		 test	 ecx, ecx
  000eb	74 3b		 je	 SHORT $LN7@OnMouseMov
$LN38@OnMouseMov:
  000ed	8b 46 04	 mov	 eax, DWORD PTR [esi+4]
  000f0	89 83 b0 00 00
	00		 mov	 DWORD PTR [ebx+176], eax

; 382  : 	}

  000f6	eb 30		 jmp	 SHORT $LN7@OnMouseMov
$LN3@OnMouseMov:

; 383  : 
; 384  : 	// 3. 호가연동 영역 밖에 Mouse가 위치한 경우를 처리한다. (이미 진입한 경우, 벗어나는 동작을 처리한다.)
; 385  : 	else
; 386  : 	{
; 387  : 		// (2004.10.29, 배승원) Capturing의 Release는 Window Deactivate시에도 나타나므로,
; 388  : 		//		그 뒷처리를 위하여 Capturing의 Release의 처리는 OnCaptureChanged()에서 처리토록 한다.
; 389  : 		//		특히 ReleaseCapture()시에 먼저 ClearPreviousIndicatorDraw()될 수 있도록 한다.
; 390  : 		// (2004.11.02, 배승원) Mouse Capturing이 중첩적으로 처리되도록, 중첩 Count와 별도의 Capturing Interface를 이용한다.
; 391  : 		if( m_bOnSetCaprture)

  000f8	85 c9		 test	 ecx, ecx
  000fa	74 2c		 je	 SHORT $LN7@OnMouseMov

; 392  : 		{
; 393  : 			// (2004.10.25, 배승원) 호가연동 Indicator의 출력이 마무리되어, 출력 Flag을 Reset한다.
; 394  : 			// (2004.10.29, 배승원) Capturing의 Release는 Window Deactivate시에도 나타나므로,
; 395  : 			//		그 뒷처리를 위하여 Capturing의 Release의 처리는 OnCaptureChanged()에서 처리토록 한다.
; 396  : 			// 1. Mouse Capturing Flag을 FALSE로 설정한다.
; 397  : 			m_bOnSetCaprture = FALSE;
; 398  : 
; 399  : 			// 3. 호가연동 Cursor를 해제한다.
; 400  : 			// (2004.10.25, 배승원) SetCapture()후, 현재 설정하는 Cursor를 관리하면서,
; 401  : 			//		ReleaseCapture()할 때까지 수시로 OCX에 Cursor를 설정한다.
; 402  : 			//		(다른 분석도구들이 수시로 설정을 해제하여 추가적인 설정이 잘 되지 않는다. 구조가 좀...)
; 403  : 			m_hAPCursor = NULL;
; 404  : 			if( m_pIChartOCX) m_pIChartOCX->SetCursorHandle( m_hAPCursor);

  000fc	8b 4b 04	 mov	 ecx, DWORD PTR [ebx+4]
  000ff	c7 83 b4 00 00
	00 00 00 00 00	 mov	 DWORD PTR [ebx+180], 0
  00109	c7 83 d8 00 00
	00 00 00 00 00	 mov	 DWORD PTR [ebx+216], 0
  00113	85 c9		 test	 ecx, ecx
  00115	74 07		 je	 SHORT $LN8@OnMouseMov
  00117	8b 01		 mov	 eax, DWORD PTR [ecx]
  00119	6a 00		 push	 0
  0011b	ff 50 4c	 call	 DWORD PTR [eax+76]
$LN8@OnMouseMov:

; 405  : 
; 406  : 			// 6. Clear Y Position for DrawCursor();
; 407  : 			m_nIndicatorPosY = 0;

  0011e	c7 83 b0 00 00
	00 00 00 00 00	 mov	 DWORD PTR [ebx+176], 0
$LN7@OnMouseMov:

; 408  : 		}
; 409  : 	}
; 410  : 
; 411  : 	// (2004.10.25, 배승원) SetCapture()후, 현재 설정하는 Cursor를 관리하면서,
; 412  : 	//		ReleaseCapture()할 때까지 수시로 OCX에 Cursor를 설정한다.
; 413  : 	//		(다른 분석도구들이 수시로 설정을 해제하여 추가적인 설정이 잘 되지 않는다. 구조가 좀...)
; 414  : 	if( m_hAPCursor) m_pIChartOCX->SetCursorHandle( m_hAPCursor);

  00128	8b 93 d8 00 00
	00		 mov	 edx, DWORD PTR [ebx+216]
  0012e	85 d2		 test	 edx, edx
  00130	74 09		 je	 SHORT $LN35@OnMouseMov
  00132	8b 4b 04	 mov	 ecx, DWORD PTR [ebx+4]
  00135	52		 push	 edx
  00136	8b 01		 mov	 eax, DWORD PTR [ecx]
  00138	ff 50 4c	 call	 DWORD PTR [eax+76]
$LN35@OnMouseMov:

; 415  : 
; 416  : 	// (2006/1/22 - Seung-Won, Bae) return FALSE to pass the Event to a next AddIn Routine
; 417  : 	return FALSE;
; 418  : }

  0013b	33 c0		 xor	 eax, eax
  0013d	8b 4d f4	 mov	 ecx, DWORD PTR __$EHRec$[ebp]
  00140	64 89 0d 00 00
	00 00		 mov	 DWORD PTR fs:0, ecx
  00147	59		 pop	 ecx
  00148	5f		 pop	 edi
  00149	5e		 pop	 esi
  0014a	5b		 pop	 ebx
  0014b	8b e5		 mov	 esp, ebp
  0014d	5d		 pop	 ebp
  0014e	c2 14 00	 ret	 20			; 00000014H
_TEXT	ENDS
;	COMDAT text$x
text$x	SEGMENT
__unwindfunclet$?OnMouseMove@CAskingPriceIndicatorAddInImp@@MAEHPAUHDC__@@IAAUtagPOINT@@KQAUHBITMAP__@@@Z$0:
  00000	8d 4d 0c	 lea	 ecx, DWORD PTR ___mlrs__$2[ebp]
  00003	e9 00 00 00 00	 jmp	 ??1CMultiLanguageResourceSetter@@QAE@XZ ; CMultiLanguageResourceSetter::~CMultiLanguageResourceSetter
  00008	cc		 int	 3
  00009	cc		 int	 3
  0000a	cc		 int	 3
  0000b	cc		 int	 3
  0000c	cc		 int	 3
__ehhandler$?OnMouseMove@CAskingPriceIndicatorAddInImp@@MAEHPAUHDC__@@IAAUtagPOINT@@KQAUHBITMAP__@@@Z:
  0000d	90		 npad	 1
  0000e	90		 npad	 1
  0000f	8b 54 24 08	 mov	 edx, DWORD PTR [esp+8]
  00013	8d 42 0c	 lea	 eax, DWORD PTR [edx+12]
  00016	8b 4a f0	 mov	 ecx, DWORD PTR [edx-16]
  00019	33 c8		 xor	 ecx, eax
  0001b	e8 00 00 00 00	 call	 @__security_check_cookie@4
  00020	b8 00 00 00 00	 mov	 eax, OFFSET __ehfuncinfo$?OnMouseMove@CAskingPriceIndicatorAddInImp@@MAEHPAUHDC__@@IAAUtagPOINT@@KQAUHBITMAP__@@@Z
  00025	e9 00 00 00 00	 jmp	 ___CxxFrameHandler3
text$x	ENDS
?OnMouseMove@CAskingPriceIndicatorAddInImp@@MAEHPAUHDC__@@IAAUtagPOINT@@KQAUHBITMAP__@@@Z ENDP ; CAskingPriceIndicatorAddInImp::OnMouseMove
; Function compile flags: /Ogtp
; File D:\git\src\IBK\IBK_DRFN\ProjSrc\SrcChartEx\ChartOCX\AddInManager\ChartCommonAddIn\AskingPriceIndicatorAddInImp.cpp
;	COMDAT ?OnAddInToolCommand@CAskingPriceIndicatorAddInImp@@MAEHAAJW4EAICommandType@@@Z
_TEXT	SEGMENT
_p_lResult$ = 8						; size = 4
_p_eCommandID$ = 12					; size = 4
?OnAddInToolCommand@CAskingPriceIndicatorAddInImp@@MAEHAAJW4EAICommandType@@@Z PROC ; CAskingPriceIndicatorAddInImp::OnAddInToolCommand, COMDAT
; _this$ = ecx

; 342  : {

  00000	55		 push	 ebp
  00001	8b ec		 mov	 ebp, esp

; 343  : 	switch( p_eCommandID)

  00003	8b 45 0c	 mov	 eax, DWORD PTR _p_eCommandID$[ebp]
  00006	83 e8 0a	 sub	 eax, 10			; 0000000aH
  00009	74 1d		 je	 SHORT $LN4@OnAddInToo
  0000b	83 e8 01	 sub	 eax, 1
  0000e	74 06		 je	 SHORT $LN5@OnAddInToo

; 344  : 	{
; 345  : 		case EAI_CUSTOM_GET_BOUNDMARK_FLAG:	p_lResult = GetBoundMarkFlag();
; 346  : 											break;
; 347  : 		case EAI_CUSTOM_GET_EXISTENCE_BOUNDMARK:	p_lResult = IsExistenceBoundMark();
; 348  : 													break;
; 349  : 		default:	return FALSE;

  00010	33 c0		 xor	 eax, eax

; 352  : }

  00012	5d		 pop	 ebp
  00013	c2 08 00	 ret	 8
$LN5@OnAddInToo:

; 350  : 	}
; 351  : 	return TRUE;

  00016	8b 45 08	 mov	 eax, DWORD PTR _p_lResult$[ebp]
  00019	0f b6 49 54	 movzx	 ecx, BYTE PTR [ecx+84]
  0001d	89 08		 mov	 DWORD PTR [eax], ecx
  0001f	b8 01 00 00 00	 mov	 eax, 1

; 352  : }

  00024	5d		 pop	 ebp
  00025	c2 08 00	 ret	 8
$LN4@OnAddInToo:

; 350  : 	}
; 351  : 	return TRUE;

  00028	8b 45 08	 mov	 eax, DWORD PTR _p_lResult$[ebp]
  0002b	8b 49 58	 mov	 ecx, DWORD PTR [ecx+88]
  0002e	89 08		 mov	 DWORD PTR [eax], ecx
  00030	b8 01 00 00 00	 mov	 eax, 1

; 352  : }

  00035	5d		 pop	 ebp
  00036	c2 08 00	 ret	 8
?OnAddInToolCommand@CAskingPriceIndicatorAddInImp@@MAEHAAJW4EAICommandType@@@Z ENDP ; CAskingPriceIndicatorAddInImp::OnAddInToolCommand
_TEXT	ENDS
; Function compile flags: /Ogtp
; File D:\git\src\IBK\IBK_DRFN\ProjSrc\SrcChartEx\ChartOCX\AddInManager\ChartCommonAddIn\AskingPriceIndicatorAddInImp.cpp
;	COMDAT ?OnAddInToolCommand@CAskingPriceIndicatorAddInImp@@MAEHW4EAICommandType@@J@Z
_TEXT	SEGMENT
_p_eCommandID$ = 8					; size = 4
_p_lParam$ = 12						; size = 4
?OnAddInToolCommand@CAskingPriceIndicatorAddInImp@@MAEHW4EAICommandType@@J@Z PROC ; CAskingPriceIndicatorAddInImp::OnAddInToolCommand, COMDAT
; _this$ = ecx

; 328  : {

  00000	55		 push	 ebp
  00001	8b ec		 mov	 ebp, esp

; 329  : 	if( EAI_CUSTOM_ENABLE_BOUNDMARK != p_eCommandID) return FALSE;

  00003	83 7d 08 09	 cmp	 DWORD PTR _p_eCommandID$[ebp], 9
  00007	56		 push	 esi
  00008	8b f1		 mov	 esi, ecx
  0000a	74 07		 je	 SHORT $LN2@OnAddInToo
  0000c	33 c0		 xor	 eax, eax
  0000e	5e		 pop	 esi

; 339  : }

  0000f	5d		 pop	 ebp
  00010	c2 08 00	 ret	 8
$LN2@OnAddInToo:

; 330  : 
; 331  : 	// (2004.10.22, 배승원) 상/하한가 표시기능에 호가연동 기능을 보강한다.
; 332  : 	EnableBoundMark( p_lParam);	

  00013	ff 75 0c	 push	 DWORD PTR _p_lParam$[ebp]
  00016	8d 4e f8	 lea	 ecx, DWORD PTR [esi-8]
  00019	e8 00 00 00 00	 call	 ?EnableBoundMark@CBoundMarkerAddInImp@@IAEXH@Z ; CBoundMarkerAddInImp::EnableBoundMark

; 333  : 
; 334  : 	// (2004.10.06, 배승원) 수정시 바로 화면에 반영되도록 Redraw시킨다.
; 335  : 	// (2004.12.13, 배승원) NULL Pointer를 확인한다.
; 336  : 	m_pIChartOCX->InvalidateControl();

  0001e	8b 4e 04	 mov	 ecx, DWORD PTR [esi+4]
  00021	8b 01		 mov	 eax, DWORD PTR [ecx]
  00023	ff 50 38	 call	 DWORD PTR [eax+56]

; 337  : 
; 338  : 	return TRUE;

  00026	b8 01 00 00 00	 mov	 eax, 1
  0002b	5e		 pop	 esi

; 339  : }

  0002c	5d		 pop	 ebp
  0002d	c2 08 00	 ret	 8
?OnAddInToolCommand@CAskingPriceIndicatorAddInImp@@MAEHW4EAICommandType@@J@Z ENDP ; CAskingPriceIndicatorAddInImp::OnAddInToolCommand
_TEXT	ENDS
; Function compile flags: /Ogtp
; File D:\git\src\IBK\IBK_DRFN\ProjSrc\SrcChartEx\ChartOCX\AddInManager\ChartCommonAddIn\AskingPriceIndicatorAddInImp.cpp
; File C:\Program Files (x86)\Microsoft Visual Studio\2019\Community\VC\Tools\MSVC\14.29.30133\atlmfc\include\atltypes.h
; File D:\git\src\IBK\IBK_DRFN\ProjSrc\SrcChartEx\ChartOCX\AddInManager\ChartCommonAddIn\AskingPriceIndicatorAddInImp.cpp
; File C:\Program Files (x86)\Microsoft Visual Studio\2019\Community\VC\Tools\MSVC\14.29.30133\atlmfc\include\atltypes.h
; File D:\git\src\IBK\IBK_DRFN\ProjSrc\SrcChartEx\ChartOCX\AddInManager\ChartCommonAddIn\AskingPriceIndicatorAddInImp.cpp
; File C:\Program Files (x86)\Microsoft Visual Studio\2019\Community\VC\Tools\MSVC\14.29.30133\atlmfc\include\atlsimpstr.h
; File D:\git\src\IBK\IBK_DRFN\ProjSrc\SrcChartEx\ChartOCX\AddInManager\ChartCommonAddIn\AskingPriceIndicatorAddInImp.cpp
; File C:\Program Files (x86)\Microsoft Visual Studio\2019\Community\VC\Tools\MSVC\14.29.30133\atlmfc\include\atlsimpstr.h
; File D:\git\src\IBK\IBK_DRFN\ProjSrc\SrcChartEx\ChartOCX\AddInManager\ChartCommonAddIn\AskingPriceIndicatorAddInImp.cpp
; File C:\Program Files (x86)\Microsoft Visual Studio\2019\Community\VC\Tools\MSVC\14.29.30133\atlmfc\include\atlsimpstr.h
; File D:\git\src\IBK\IBK_DRFN\ProjSrc\SrcChartEx\ChartOCX\AddInManager\ChartCommonAddIn\AskingPriceIndicatorAddInImp.cpp
; File C:\Program Files (x86)\Microsoft Visual Studio\2019\Community\VC\Tools\MSVC\14.29.30133\atlmfc\include\atlsimpstr.h
; File D:\git\src\IBK\IBK_DRFN\ProjSrc\SrcChartEx\ChartOCX\AddInManager\ChartCommonAddIn\AskingPriceIndicatorAddInImp.cpp
; File C:\Program Files (x86)\Microsoft Visual Studio\2019\Community\VC\Tools\MSVC\14.29.30133\atlmfc\include\atlsimpstr.h
; File D:\git\src\IBK\IBK_DRFN\ProjSrc\SrcChartEx\ChartOCX\AddInManager\ChartCommonAddIn\AskingPriceIndicatorAddInImp.cpp
; File C:\Program Files (x86)\Microsoft Visual Studio\2019\Community\VC\Tools\MSVC\14.29.30133\atlmfc\include\atlsimpstr.h
; File D:\git\src\IBK\IBK_DRFN\ProjSrc\SrcChartEx\ChartOCX\AddInManager\ChartCommonAddIn\AskingPriceIndicatorAddInImp.cpp
; File C:\Program Files (x86)\Microsoft Visual Studio\2019\Community\VC\Tools\MSVC\14.29.30133\atlmfc\include\atlsimpstr.h
; File D:\git\src\IBK\IBK_DRFN\ProjSrc\SrcChartEx\ChartOCX\AddInManager\ChartCommonAddIn\AskingPriceIndicatorAddInImp.cpp
; File C:\Program Files (x86)\Microsoft Visual Studio\2019\Community\VC\Tools\MSVC\14.29.30133\atlmfc\include\atlsimpstr.h
; File D:\git\src\IBK\IBK_DRFN\ProjSrc\SrcChartEx\ChartOCX\AddInManager\ChartCommonAddIn\AskingPriceIndicatorAddInImp.cpp
; File C:\Program Files (x86)\Microsoft Visual Studio\2019\Community\VC\Tools\MSVC\14.29.30133\atlmfc\include\atlsimpstr.h
; File C:\Program Files (x86)\Microsoft Visual Studio\2019\Community\VC\Tools\MSVC\14.29.30133\atlmfc\include\afxwin1.inl
; File D:\git\src\IBK\IBK_DRFN\ProjSrc\SrcChartEx\ChartOCX\AddInManager\ChartCommonAddIn\AskingPriceIndicatorAddInImp.cpp
; File C:\Program Files (x86)\Microsoft Visual Studio\2019\Community\VC\Tools\MSVC\14.29.30133\atlmfc\include\atltypes.h
; File D:\git\src\IBK\IBK_DRFN\ProjSrc\SrcChartEx\ChartOCX\AddInManager\ChartCommonAddIn\AskingPriceIndicatorAddInImp.cpp
; File C:\Program Files (x86)\Microsoft Visual Studio\2019\Community\VC\Tools\MSVC\14.29.30133\atlmfc\include\afxwin2.inl
; File C:\Program Files (x86)\Microsoft Visual Studio\2019\Community\VC\Tools\MSVC\14.29.30133\atlmfc\include\atltypes.h
; File D:\git\src\IBK\IBK_DRFN\ProjSrc\SrcChartEx\ChartOCX\AddInManager\ChartCommonAddIn\AskingPriceIndicatorAddInImp.cpp
; File C:\Program Files (x86)\Microsoft Visual Studio\2019\Community\VC\Tools\MSVC\14.29.30133\atlmfc\include\afxwin2.inl
; File C:\Program Files (x86)\Microsoft Visual Studio\2019\Community\VC\Tools\MSVC\14.29.30133\atlmfc\include\atltypes.h
; File D:\git\src\IBK\IBK_DRFN\ProjSrc\SrcChartEx\ChartOCX\AddInManager\ChartCommonAddIn\AskingPriceIndicatorAddInImp.cpp
; File C:\Program Files (x86)\Microsoft Visual Studio\2019\Community\VC\Tools\MSVC\14.29.30133\atlmfc\include\atltypes.h
; File D:\git\src\IBK\IBK_DRFN\ProjSrc\SrcChartEx\ChartOCX\AddInManager\ChartCommonAddIn\AskingPriceIndicatorAddInImp.cpp
; File C:\Program Files (x86)\Microsoft Visual Studio\2019\Community\VC\Tools\MSVC\14.29.30133\atlmfc\include\atltypes.h
; File D:\git\src\IBK\IBK_DRFN\ProjSrc\SrcChartEx\ChartOCX\AddInManager\ChartCommonAddIn\AskingPriceIndicatorAddInImp.cpp
; File C:\Program Files (x86)\Microsoft Visual Studio\2019\Community\VC\Tools\MSVC\14.29.30133\atlmfc\include\atltypes.h
; File D:\git\src\IBK\IBK_DRFN\ProjSrc\SrcChartEx\ChartOCX\AddInManager\ChartCommonAddIn\AskingPriceIndicatorAddInImp.cpp
; File C:\Program Files (x86)\Microsoft Visual Studio\2019\Community\VC\Tools\MSVC\14.29.30133\atlmfc\include\afxwin1.inl
; File D:\git\src\IBK\IBK_DRFN\ProjSrc\SrcChartEx\ChartOCX\AddInManager\ChartCommonAddIn\AskingPriceIndicatorAddInImp.cpp
; File C:\Program Files (x86)\Microsoft Visual Studio\2019\Community\VC\Tools\MSVC\14.29.30133\atlmfc\include\afxwin1.inl
; File D:\git\src\IBK\IBK_DRFN\ProjSrc\SrcChartEx\ChartOCX\AddInManager\ChartCommonAddIn\AskingPriceIndicatorAddInImp.cpp
; File C:\Program Files (x86)\Microsoft Visual Studio\2019\Community\VC\Tools\MSVC\14.29.30133\atlmfc\include\atlsimpstr.h
; File C:\Program Files (x86)\Microsoft Visual Studio\2019\Community\VC\Tools\MSVC\14.29.30133\atlmfc\include\afxwin1.inl
; File C:\Program Files (x86)\Microsoft Visual Studio\2019\Community\VC\Tools\MSVC\14.29.30133\atlmfc\include\atlsimpstr.h
; File C:\Program Files (x86)\Microsoft Visual Studio\2019\Community\VC\Tools\MSVC\14.29.30133\atlmfc\include\afxwin1.inl
; File D:\git\src\IBK\IBK_DRFN\ProjSrc\SrcChartEx\ChartOCX\AddInManager\ChartCommonAddIn\AskingPriceIndicatorAddInImp.cpp
; File C:\Program Files (x86)\Microsoft Visual Studio\2019\Community\VC\Tools\MSVC\14.29.30133\atlmfc\include\afxwin1.inl
; File D:\git\src\IBK\IBK_DRFN\ProjSrc\SrcChartEx\ChartOCX\AddInManager\ChartCommonAddIn\AskingPriceIndicatorAddInImp.cpp
; File C:\Program Files (x86)\Microsoft Visual Studio\2019\Community\VC\Tools\MSVC\14.29.30133\atlmfc\include\afxwin1.inl
; File C:\Program Files (x86)\Microsoft Visual Studio\2019\Community\VC\Tools\MSVC\14.29.30133\atlmfc\include\atltypes.h
; File D:\git\src\IBK\IBK_DRFN\ProjSrc\SrcChartEx\ChartOCX\AddInManager\ChartCommonAddIn\AskingPriceIndicatorAddInImp.cpp
; File C:\Program Files (x86)\Microsoft Visual Studio\2019\Community\VC\Tools\MSVC\14.29.30133\atlmfc\include\atltypes.h
; File D:\git\src\IBK\IBK_DRFN\ProjSrc\SrcChartEx\ChartOCX\AddInManager\ChartCommonAddIn\AskingPriceIndicatorAddInImp.cpp
;	COMDAT ?DrawCursor@CAskingPriceIndicatorAddInImp@@MAE?AUtagRECT@@PAUHDC__@@@Z
_TEXT	SEGMENT
___$ReturnUdt$GSCopy$1$ = -100				; size = 4
_this$GSCopy$1$ = -96					; size = 4
_strBuffer$4 = -92					; size = 4
_nFixedDecimalLen$1$ = -88				; size = 4
_p_hDC$GSCopy$1$ = -84					; size = 4
tv1161 = -84						; size = 4
_strFormat$ = -80					; size = 4
_strBuffer3$5 = -76					; size = 4
$T6 = -72						; size = 4
_szBuffer1$1$ = -72					; size = 4
_pDC$1$ = -68						; size = 4
_rctChartOcx$ = -64					; size = 16
$T7 = -48						; size = 16
_size$8 = -40						; size = 8
$T9 = -40						; size = 8
_szBuffer2$1$ = -36					; size = 4
_rct$ = -32						; size = 16
__$ArrayPad$ = -16					; size = 4
__$EHRec$ = -12						; size = 12
___$ReturnUdt$ = 8					; size = 4
_p_hDC$ = 12						; size = 4
?DrawCursor@CAskingPriceIndicatorAddInImp@@MAE?AUtagRECT@@PAUHDC__@@@Z PROC ; CAskingPriceIndicatorAddInImp::DrawCursor, COMDAT
; _this$ = ecx

; 230  : {

  00000	55		 push	 ebp
  00001	8b ec		 mov	 ebp, esp
  00003	6a ff		 push	 -1
  00005	68 00 00 00 00	 push	 __ehhandler$?DrawCursor@CAskingPriceIndicatorAddInImp@@MAE?AUtagRECT@@PAUHDC__@@@Z
  0000a	64 a1 00 00 00
	00		 mov	 eax, DWORD PTR fs:0
  00010	50		 push	 eax
  00011	83 ec 58	 sub	 esp, 88			; 00000058H
  00014	a1 00 00 00 00	 mov	 eax, DWORD PTR ___security_cookie
  00019	33 c5		 xor	 eax, ebp
  0001b	89 45 f0	 mov	 DWORD PTR __$ArrayPad$[ebp], eax
  0001e	56		 push	 esi
  0001f	57		 push	 edi
  00020	50		 push	 eax
  00021	8d 45 f4	 lea	 eax, DWORD PTR __$EHRec$[ebp]
  00024	64 a3 00 00 00
	00		 mov	 DWORD PTR fs:0, eax
  0002a	8b f9		 mov	 edi, ecx
  0002c	89 7d a0	 mov	 DWORD PTR _this$GSCopy$1$[ebp], edi
  0002f	8b 45 0c	 mov	 eax, DWORD PTR _p_hDC$[ebp]
  00032	0f 57 c0	 xorps	 xmm0, xmm0
  00035	8b 75 08	 mov	 esi, DWORD PTR ___$ReturnUdt$[ebp]
  00038	89 45 ac	 mov	 DWORD PTR _p_hDC$GSCopy$1$[ebp], eax
; File C:\Program Files (x86)\Microsoft Visual Studio\2019\Community\VC\Tools\MSVC\14.29.30133\atlmfc\include\atltypes.h

; 669  : 	::SetRectEmpty(this);

  0003b	8d 45 e0	 lea	 eax, DWORD PTR _rct$[ebp]
  0003e	50		 push	 eax
; File D:\git\src\IBK\IBK_DRFN\ProjSrc\SrcChartEx\ChartOCX\AddInManager\ChartCommonAddIn\AskingPriceIndicatorAddInImp.cpp

; 230  : {

  0003f	89 75 9c	 mov	 DWORD PTR ___$ReturnUdt$GSCopy$1$[ebp], esi
; File C:\Program Files (x86)\Microsoft Visual Studio\2019\Community\VC\Tools\MSVC\14.29.30133\atlmfc\include\atltypes.h

; 528  : 	left = 0;

  00042	0f 11 45 e0	 movups	 XMMWORD PTR _rct$[ebp], xmm0

; 669  : 	::SetRectEmpty(this);

  00046	ff 15 00 00 00
	00		 call	 DWORD PTR __imp__SetRectEmpty@4
; File D:\git\src\IBK\IBK_DRFN\ProjSrc\SrcChartEx\ChartOCX\AddInManager\ChartCommonAddIn\AskingPriceIndicatorAddInImp.cpp

; 234  : 	if( 0 == m_nIndicatorPosY) return rct;

  0004c	83 bf b0 00 00
	00 00		 cmp	 DWORD PTR [edi+176], 0
  00053	0f 84 71 03 00
	00		 je	 $LN118@DrawCursor

; 235  : 
; 236  : 	CDC *pDC = CDC::FromHandle( p_hDC);

  00059	ff 75 ac	 push	 DWORD PTR _p_hDC$GSCopy$1$[ebp]
  0005c	e8 00 00 00 00	 call	 ?FromHandle@CDC@@SGPAV1@PAUHDC__@@@Z ; CDC::FromHandle
  00061	89 45 bc	 mov	 DWORD PTR _pDC$1$[ebp], eax

; 237  : 	if( !pDC) return rct;

  00064	85 c0		 test	 eax, eax
  00066	0f 84 5e 03 00
	00		 je	 $LN118@DrawCursor

; 238  : 
; 239  : 	// 2. Price Value를 산출한다. (View의 Data Min/Max와 Graph Region을 이용한다.)
; 240  : 	// (2004.10.27, 배승원) Block의 Log/뒤집기 설정을 확인하여 정확하게 Data를 변환한다. (가격<->Y Pos)
; 241  : 	m_dIndicatedPrice = m_pIChartOCX->ConvertYPositionToData( m_nIndicatorPosY, m_rctGraphDrawingRegion.top, m_rctGraphDrawingRegion.bottom, m_dViewMax, m_dViewMin, m_bLog, m_bReverse);

  0006c	ff 77 60	 push	 DWORD PTR [edi+96]
  0006f	f2 0f 10 87 98
	00 00 00	 movsd	 xmm0, QWORD PTR [edi+152]
  00077	ff 77 5c	 push	 DWORD PTR [edi+92]
  0007a	8b 4f 04	 mov	 ecx, DWORD PTR [edi+4]
  0007d	83 ec 10	 sub	 esp, 16			; 00000010H
  00080	8b 01		 mov	 eax, DWORD PTR [ecx]
  00082	f2 0f 11 44 24
	08		 movsd	 QWORD PTR [esp+8], xmm0
  00088	f2 0f 10 87 a0
	00 00 00	 movsd	 xmm0, QWORD PTR [edi+160]
  00090	f2 0f 11 04 24	 movsd	 QWORD PTR [esp], xmm0
  00095	ff b7 90 00 00
	00		 push	 DWORD PTR [edi+144]
  0009b	8b 80 30 01 00
	00		 mov	 eax, DWORD PTR [eax+304]
  000a1	ff b7 88 00 00
	00		 push	 DWORD PTR [edi+136]
  000a7	ff b7 b0 00 00
	00		 push	 DWORD PTR [edi+176]
  000ad	ff d0		 call	 eax

; 242  : 
; 243  : 	// 3. Asking Price Text의 출력 영역을 산출한다.
; 244  : 	// (2004.10.26, 배승원) 호가의 정밀도(Precision)을 관리하여 호가 String의 생성에 참고하도록 한다.
; 245  : 	int nDecimal = 0;
; 246  : 	// (2004.10.26, 배승원, 주의!) double을 Int로 변환하는 과정에서 정확한 Int로 변환되지 않는 문제를 해결하기 위해 100배 유효자리수를 얻도록 조정한다.
; 247  : 	if( m_dPacketUnitValue != 0) nDecimal = ( int)( ( log10( m_dPacketUnitValue) * 100) / 100);	

  000af	f2 0f 10 87 e0
	00 00 00	 movsd	 xmm0, QWORD PTR [edi+224]
  000b7	33 f6		 xor	 esi, esi
  000b9	66 0f 2e 05 00
	00 00 00	 ucomisd xmm0, QWORD PTR __real@0000000000000000
  000c1	dd 9f d0 00 00
	00		 fstp	 QWORD PTR [edi+208]
  000c7	9f		 lahf
  000c8	f6 c4 44	 test	 ah, 68			; 00000044H
  000cb	7b 19		 jnp	 SHORT $LN13@DrawCursor
  000cd	e8 00 00 00 00	 call	 __libm_sse2_log10_precise
  000d2	f2 0f 59 05 00
	00 00 00	 mulsd	 xmm0, QWORD PTR __real@4059000000000000
  000da	f2 0f 5e 05 00
	00 00 00	 divsd	 xmm0, QWORD PTR __real@4059000000000000
  000e2	f2 0f 2c f0	 cvttsd2si esi, xmm0
$LN13@DrawCursor:

; 248  : 	CString strFormat;

  000e6	8d 4d b0	 lea	 ecx, DWORD PTR _strFormat$[ebp]
  000e9	ff 15 00 00 00
	00		 call	 DWORD PTR __imp_??0?$CStringT@DV?$StrTraitMFC_DLL@DV?$ChTraitsCRT@D@ATL@@@@@ATL@@QAE@XZ
  000ef	c7 45 fc 00 00
	00 00		 mov	 DWORD PTR __$EHRec$[ebp+8], 0

; 249  : 	if( 0 <= nDecimal) strFormat = "%.0f";

  000f6	85 f6		 test	 esi, esi
  000f8	78 10		 js	 SHORT $LN14@DrawCursor
  000fa	68 00 00 00 00	 push	 OFFSET ??_C@_04GHNNFJCK@?$CF?40f@
  000ff	8d 4d b0	 lea	 ecx, DWORD PTR _strFormat$[ebp]
  00102	ff 15 00 00 00
	00		 call	 DWORD PTR __imp_??4?$CStringT@DV?$StrTraitMFC_DLL@DV?$ChTraitsCRT@D@ATL@@@@@ATL@@QAEAAV01@PBD@Z
  00108	eb 15		 jmp	 SHORT $LN15@DrawCursor
$LN14@DrawCursor:

; 250  : 	else strFormat.Format( "%%.%df", -nDecimal);

  0010a	f7 de		 neg	 esi
  0010c	8d 45 b0	 lea	 eax, DWORD PTR _strFormat$[ebp]
  0010f	56		 push	 esi
  00110	68 00 00 00 00	 push	 OFFSET ??_C@_06DNBDMDIL@?$CF?$CF?4?$CFdf@
  00115	50		 push	 eax
  00116	ff 15 00 00 00
	00		 call	 DWORD PTR __imp_?Format@?$CStringT@DV?$StrTraitMFC_DLL@DV?$ChTraitsCRT@D@ATL@@@@@ATL@@QAAXPBDZZ
  0011c	83 c4 0c	 add	 esp, 12			; 0000000cH
$LN15@DrawCursor:

; 251  : 	// 3.1 Asking Price Text를 구한다.
; 252  : 	// (2004.10.26, 배승원) 조회중인 호가 String을 관리하여, 선택시 바로 공유가 발생하도록 한다.
; 253  : 	m_strAskingPrice.Format( strFormat, m_dIndicatedPrice);

  0011f	f2 0f 10 87 d0
	00 00 00	 movsd	 xmm0, QWORD PTR [edi+208]
  00127	8d b7 e8 00 00
	00		 lea	 esi, DWORD PTR [edi+232]
  0012d	83 ec 08	 sub	 esp, 8
  00130	89 75 ac	 mov	 DWORD PTR tv1161[ebp], esi
  00133	f2 0f 11 04 24	 movsd	 QWORD PTR [esp], xmm0
  00138	ff 75 b0	 push	 DWORD PTR _strFormat$[ebp]
  0013b	56		 push	 esi
  0013c	ff 15 00 00 00
	00		 call	 DWORD PTR __imp_?Format@?$CStringT@DV?$StrTraitMFC_DLL@DV?$ChTraitsCRT@D@ATL@@@@@ATL@@QAAXPBDZZ
  00142	83 c4 10	 add	 esp, 16			; 00000010H

; 254  : 	// (2004.10.26, 배승원) Comma를 추가한다.
; 255  : 	// 3.1.1 ','가 필요한 경우 있지를 확인한다.
; 256  : 	int nFixedDecimalLen = m_strAskingPrice.Find( '.');

  00145	8b ce		 mov	 ecx, esi
  00147	6a 00		 push	 0
  00149	6a 2e		 push	 46			; 0000002eH
  0014b	ff 15 00 00 00
	00		 call	 DWORD PTR __imp_?Find@?$CStringT@DV?$StrTraitMFC_DLL@DV?$ChTraitsCRT@D@ATL@@@@@ATL@@QBEHDH@Z
  00151	89 45 a8	 mov	 DWORD PTR _nFixedDecimalLen$1$[ebp], eax

; 257  : 	if( nFixedDecimalLen < 0) nFixedDecimalLen = m_strAskingPrice.GetLength();

  00154	85 c0		 test	 eax, eax
  00156	79 08		 jns	 SHORT $LN117@DrawCursor
; File C:\Program Files (x86)\Microsoft Visual Studio\2019\Community\VC\Tools\MSVC\14.29.30133\atlmfc\include\atlsimpstr.h

; 519  : 		return( GetData()->nDataLength );

  00158	8b 06		 mov	 eax, DWORD PTR [esi]
  0015a	8b 40 f4	 mov	 eax, DWORD PTR [eax-12]
  0015d	89 45 a8	 mov	 DWORD PTR _nFixedDecimalLen$1$[ebp], eax
$LN117@DrawCursor:
; File D:\git\src\IBK\IBK_DRFN\ProjSrc\SrcChartEx\ChartOCX\AddInManager\ChartCommonAddIn\AskingPriceIndicatorAddInImp.cpp

; 258  : 	if( 3 < nFixedDecimalLen)

  00160	83 f8 03	 cmp	 eax, 3
  00163	0f 8e fc 00 00
	00		 jle	 $LN17@DrawCursor
; File C:\Program Files (x86)\Microsoft Visual Studio\2019\Community\VC\Tools\MSVC\14.29.30133\atlmfc\include\atlsimpstr.h

; 377  : 		return( m_pszData );

  00169	8b 06		 mov	 eax, DWORD PTR [esi]
; File D:\git\src\IBK\IBK_DRFN\ProjSrc\SrcChartEx\ChartOCX\AddInManager\ChartCommonAddIn\AskingPriceIndicatorAddInImp.cpp

; 262  : 		CString strBuffer;

  0016b	8d 4d a4	 lea	 ecx, DWORD PTR _strBuffer$4[ebp]
; File C:\Program Files (x86)\Microsoft Visual Studio\2019\Community\VC\Tools\MSVC\14.29.30133\atlmfc\include\atlsimpstr.h

; 377  : 		return( m_pszData );

  0016e	89 45 b8	 mov	 DWORD PTR _szBuffer1$1$[ebp], eax
; File D:\git\src\IBK\IBK_DRFN\ProjSrc\SrcChartEx\ChartOCX\AddInManager\ChartCommonAddIn\AskingPriceIndicatorAddInImp.cpp

; 262  : 		CString strBuffer;

  00171	ff 15 00 00 00
	00		 call	 DWORD PTR __imp_??0?$CStringT@DV?$StrTraitMFC_DLL@DV?$ChTraitsCRT@D@ATL@@@@@ATL@@QAE@XZ
; File C:\Program Files (x86)\Microsoft Visual Studio\2019\Community\VC\Tools\MSVC\14.29.30133\atlmfc\include\atlsimpstr.h

; 519  : 		return( GetData()->nDataLength );

  00177	8b 06		 mov	 eax, DWORD PTR [esi]
; File D:\git\src\IBK\IBK_DRFN\ProjSrc\SrcChartEx\ChartOCX\AddInManager\ChartCommonAddIn\AskingPriceIndicatorAddInImp.cpp

; 263  : 		char *szBuffer2 = strBuffer.GetBuffer( m_strAskingPrice.GetLength() * 2);

  00179	8d 4d a4	 lea	 ecx, DWORD PTR _strBuffer$4[ebp]
  0017c	c6 45 fc 01	 mov	 BYTE PTR __$EHRec$[ebp+8], 1
; File C:\Program Files (x86)\Microsoft Visual Studio\2019\Community\VC\Tools\MSVC\14.29.30133\atlmfc\include\atlsimpstr.h

; 519  : 		return( GetData()->nDataLength );

  00180	8b 40 f4	 mov	 eax, DWORD PTR [eax-12]
; File D:\git\src\IBK\IBK_DRFN\ProjSrc\SrcChartEx\ChartOCX\AddInManager\ChartCommonAddIn\AskingPriceIndicatorAddInImp.cpp

; 263  : 		char *szBuffer2 = strBuffer.GetBuffer( m_strAskingPrice.GetLength() * 2);

  00183	03 c0		 add	 eax, eax
  00185	50		 push	 eax
  00186	ff 15 00 00 00
	00		 call	 DWORD PTR __imp_?GetBuffer@?$CSimpleStringT@D$00@ATL@@QAEPADH@Z

; 264  : 		// 3.1.3 Data를 뒤 '.'부터 확인하면서, ','를 등록한다.
; 265  : 		int i, j;
; 266  : 		for( i = 0, j = nFixedDecimalLen - 1; j >= 0; i++)

  0018c	8b 4d a8	 mov	 ecx, DWORD PTR _nFixedDecimalLen$1$[ebp]
  0018f	8b d0		 mov	 edx, eax
  00191	8b 7d b8	 mov	 edi, DWORD PTR _szBuffer1$1$[ebp]
  00194	33 f6		 xor	 esi, esi
  00196	89 55 dc	 mov	 DWORD PTR _szBuffer2$1$[ebp], edx
  00199	49		 dec	 ecx
  0019a	66 0f 1f 44 00
	00		 npad	 6
$LL4@DrawCursor:

; 267  : 		{
; 268  : 			szBuffer2[ i] = szBuffer1[ j--];

  001a0	8a 04 39	 mov	 al, BYTE PTR [ecx+edi]
  001a3	49		 dec	 ecx
  001a4	88 04 16	 mov	 BYTE PTR [esi+edx], al

; 269  : 			if( i % 4 == 2 && j >= 0 && szBuffer1[ j] != '-') szBuffer2[ ++i] = ',';

  001a7	8b c6		 mov	 eax, esi
  001a9	25 03 00 00 80	 and	 eax, -2147483645	; 80000003H
  001ae	79 05		 jns	 SHORT $LN120@DrawCursor
  001b0	48		 dec	 eax
  001b1	83 c8 fc	 or	 eax, -4			; fffffffcH
  001b4	40		 inc	 eax
$LN120@DrawCursor:
  001b5	83 f8 02	 cmp	 eax, 2
  001b8	75 0f		 jne	 SHORT $LN2@DrawCursor
  001ba	85 c9		 test	 ecx, ecx
  001bc	78 0b		 js	 SHORT $LN2@DrawCursor
  001be	80 3c 39 2d	 cmp	 BYTE PTR [ecx+edi], 45	; 0000002dH
  001c2	74 05		 je	 SHORT $LN2@DrawCursor
  001c4	46		 inc	 esi
  001c5	c6 04 16 2c	 mov	 BYTE PTR [esi+edx], 44	; 0000002cH
$LN2@DrawCursor:

; 264  : 		// 3.1.3 Data를 뒤 '.'부터 확인하면서, ','를 등록한다.
; 265  : 		int i, j;
; 266  : 		for( i = 0, j = nFixedDecimalLen - 1; j >= 0; i++)

  001c9	46		 inc	 esi
  001ca	85 c9		 test	 ecx, ecx
  001cc	79 d2		 jns	 SHORT $LL4@DrawCursor

; 274  : 		CString strBuffer3;

  001ce	8d 4d b4	 lea	 ecx, DWORD PTR _strBuffer3$5[ebp]
  001d1	c6 04 16 00	 mov	 BYTE PTR [esi+edx], 0
  001d5	ff 15 00 00 00
	00		 call	 DWORD PTR __imp_??0?$CStringT@DV?$StrTraitMFC_DLL@DV?$ChTraitsCRT@D@ATL@@@@@ATL@@QAE@XZ
; File C:\Program Files (x86)\Microsoft Visual Studio\2019\Community\VC\Tools\MSVC\14.29.30133\atlmfc\include\atlsimpstr.h

; 519  : 		return( GetData()->nDataLength );

  001db	8b 4d ac	 mov	 ecx, DWORD PTR tv1161[ebp]
; File D:\git\src\IBK\IBK_DRFN\ProjSrc\SrcChartEx\ChartOCX\AddInManager\ChartCommonAddIn\AskingPriceIndicatorAddInImp.cpp

; 274  : 		CString strBuffer3;

  001de	c6 45 fc 02	 mov	 BYTE PTR __$EHRec$[ebp+8], 2
; File C:\Program Files (x86)\Microsoft Visual Studio\2019\Community\VC\Tools\MSVC\14.29.30133\atlmfc\include\atlsimpstr.h

; 519  : 		return( GetData()->nDataLength );

  001e2	8b 01		 mov	 eax, DWORD PTR [ecx]
; File D:\git\src\IBK\IBK_DRFN\ProjSrc\SrcChartEx\ChartOCX\AddInManager\ChartCommonAddIn\AskingPriceIndicatorAddInImp.cpp

; 275  : 		char *szFormatData = strBuffer3.GetBuffer( m_strAskingPrice.GetLength() * 2);

  001e4	8d 4d b4	 lea	 ecx, DWORD PTR _strBuffer3$5[ebp]
; File C:\Program Files (x86)\Microsoft Visual Studio\2019\Community\VC\Tools\MSVC\14.29.30133\atlmfc\include\atlsimpstr.h

; 519  : 		return( GetData()->nDataLength );

  001e7	8b 40 f4	 mov	 eax, DWORD PTR [eax-12]
; File D:\git\src\IBK\IBK_DRFN\ProjSrc\SrcChartEx\ChartOCX\AddInManager\ChartCommonAddIn\AskingPriceIndicatorAddInImp.cpp

; 275  : 		char *szFormatData = strBuffer3.GetBuffer( m_strAskingPrice.GetLength() * 2);

  001ea	03 c0		 add	 eax, eax
  001ec	50		 push	 eax
  001ed	ff 15 00 00 00
	00		 call	 DWORD PTR __imp_?GetBuffer@?$CSimpleStringT@D$00@ATL@@QAEPADH@Z

; 276  : 		szBuffer2 += nIntLen - 1;

  001f3	8b 55 dc	 mov	 edx, DWORD PTR _szBuffer2$1$[ebp]
  001f6	8b c8		 mov	 ecx, eax

; 277  : 		for( i = 0; i < nIntLen; i++) *( szFormatData++) = *( szBuffer2--);

  001f8	8b 7d a0	 mov	 edi, DWORD PTR _this$GSCopy$1$[ebp]
  001fb	4a		 dec	 edx
  001fc	03 d6		 add	 edx, esi
  001fe	85 f6		 test	 esi, esi
  00200	7e 0d		 jle	 SHORT $LN116@DrawCursor
$LL7@DrawCursor:
  00202	8a 02		 mov	 al, BYTE PTR [edx]
  00204	8d 52 ff	 lea	 edx, DWORD PTR [edx-1]
  00207	88 01		 mov	 BYTE PTR [ecx], al
  00209	41		 inc	 ecx
  0020a	83 ee 01	 sub	 esi, 1
  0020d	75 f3		 jne	 SHORT $LL7@DrawCursor
$LN116@DrawCursor:
  0020f	8b 55 a8	 mov	 edx, DWORD PTR _nFixedDecimalLen$1$[ebp]
  00212	03 55 b8	 add	 edx, DWORD PTR _szBuffer1$1$[ebp]
$LL10@DrawCursor:

; 278  : 		// 3.1.5 소숫점 이하를 다시 추가한다.
; 279  : 		do *( szFormatData++) = szBuffer1[ nFixedDecimalLen];	while( szBuffer1[ nFixedDecimalLen++] != '\0');

  00215	8a 02		 mov	 al, BYTE PTR [edx]
  00217	8d 49 01	 lea	 ecx, DWORD PTR [ecx+1]
  0021a	88 41 ff	 mov	 BYTE PTR [ecx-1], al
  0021d	8d 52 01	 lea	 edx, DWORD PTR [edx+1]
  00220	8a 42 ff	 mov	 al, BYTE PTR [edx-1]
  00223	84 c0		 test	 al, al
  00225	75 ee		 jne	 SHORT $LL10@DrawCursor

; 280  : 		strBuffer3.ReleaseBuffer();

  00227	6a ff		 push	 -1
  00229	8d 4d b4	 lea	 ecx, DWORD PTR _strBuffer3$5[ebp]
  0022c	ff 15 00 00 00
	00		 call	 DWORD PTR __imp_?ReleaseBuffer@?$CSimpleStringT@D$00@ATL@@QAEXH@Z

; 281  : 		// 3.1.6 Buffer를 마무리한다.
; 282  : 		strBuffer.ReleaseBuffer();

  00232	6a ff		 push	 -1
  00234	8d 4d a4	 lea	 ecx, DWORD PTR _strBuffer$4[ebp]
  00237	ff 15 00 00 00
	00		 call	 DWORD PTR __imp_?ReleaseBuffer@?$CSimpleStringT@D$00@ATL@@QAEXH@Z

; 283  : 		// 3.1.7 Format된 Data를 설정한다.
; 284  : 		m_strAskingPrice = strBuffer3;

  0023d	8d 45 b4	 lea	 eax, DWORD PTR _strBuffer3$5[ebp]
  00240	8d b7 e8 00 00
	00		 lea	 esi, DWORD PTR [edi+232]
  00246	50		 push	 eax
  00247	8b ce		 mov	 ecx, esi
  00249	ff 15 00 00 00
	00		 call	 DWORD PTR __imp_??4?$CStringT@DV?$StrTraitMFC_DLL@DV?$ChTraitsCRT@D@ATL@@@@@ATL@@QAEAAV01@ABV01@@Z

; 285  : 	}

  0024f	8d 4d b4	 lea	 ecx, DWORD PTR _strBuffer3$5[ebp]
  00252	ff 15 00 00 00
	00		 call	 DWORD PTR __imp_??1?$CStringT@DV?$StrTraitMFC_DLL@DV?$ChTraitsCRT@D@ATL@@@@@ATL@@QAE@XZ
  00258	8d 4d a4	 lea	 ecx, DWORD PTR _strBuffer$4[ebp]
  0025b	c6 45 fc 00	 mov	 BYTE PTR __$EHRec$[ebp+8], 0
  0025f	ff 15 00 00 00
	00		 call	 DWORD PTR __imp_??1?$CStringT@DV?$StrTraitMFC_DLL@DV?$ChTraitsCRT@D@ATL@@@@@ATL@@QAE@XZ
$LN17@DrawCursor:
; File C:\Program Files (x86)\Microsoft Visual Studio\2019\Community\VC\Tools\MSVC\14.29.30133\atlmfc\include\atlsimpstr.h

; 519  : 		return( GetData()->nDataLength );

  00265	8b 06		 mov	 eax, DWORD PTR [esi]
; File C:\Program Files (x86)\Microsoft Visual Studio\2019\Community\VC\Tools\MSVC\14.29.30133\atlmfc\include\afxwin1.inl

; 639  : 		VERIFY(::GetTextExtentPoint32(m_hAttribDC, str, (int)str.GetLength(), &size));

  00267	8d 4d d8	 lea	 ecx, DWORD PTR _size$8[ebp]
  0026a	51		 push	 ecx
  0026b	ff 70 f4	 push	 DWORD PTR [eax-12]
  0026e	50		 push	 eax
  0026f	8b 45 bc	 mov	 eax, DWORD PTR _pDC$1$[ebp]
  00272	ff 70 08	 push	 DWORD PTR [eax+8]
  00275	ff 15 00 00 00
	00		 call	 DWORD PTR __imp__GetTextExtentPoint32A@16
; File D:\git\src\IBK\IBK_DRFN\ProjSrc\SrcChartEx\ChartOCX\AddInManager\ChartCommonAddIn\AskingPriceIndicatorAddInImp.cpp

; 291  : 	CPoint ptPrice( m_rctBoundMark.right, m_nIndicatorPosY - szPriceText.cy / 2);

  0027b	8b 45 dc	 mov	 eax, DWORD PTR _size$8[ebp+4]
  0027e	0f 57 c0	 xorps	 xmm0, xmm0
  00281	8b 8f b0 00 00
	00		 mov	 ecx, DWORD PTR [edi+176]
; File C:\Program Files (x86)\Microsoft Visual Studio\2019\Community\VC\Tools\MSVC\14.29.30133\atlmfc\include\atltypes.h

; 408  : 	x = initX;

  00287	8b 77 6c	 mov	 esi, DWORD PTR [edi+108]
; File D:\git\src\IBK\IBK_DRFN\ProjSrc\SrcChartEx\ChartOCX\AddInManager\ChartCommonAddIn\AskingPriceIndicatorAddInImp.cpp

; 291  : 	CPoint ptPrice( m_rctBoundMark.right, m_nIndicatorPosY - szPriceText.cy / 2);

  0028a	99		 cdq
  0028b	2b c2		 sub	 eax, edx
  0028d	d1 f8		 sar	 eax, 1
  0028f	2b c8		 sub	 ecx, eax
; File C:\Program Files (x86)\Microsoft Visual Studio\2019\Community\VC\Tools\MSVC\14.29.30133\atlmfc\include\afxwin2.inl

; 86   : 	{ ASSERT(::IsWindow(m_hWnd)); ::GetClientRect(m_hWnd, lpRect); }

  00291	8d 45 c0	 lea	 eax, DWORD PTR _rctChartOcx$[ebp]
  00294	50		 push	 eax
  00295	8b 47 08	 mov	 eax, DWORD PTR [edi+8]
; File C:\Program Files (x86)\Microsoft Visual Studio\2019\Community\VC\Tools\MSVC\14.29.30133\atlmfc\include\atltypes.h

; 528  : 	left = 0;

  00298	0f 11 45 c0	 movups	 XMMWORD PTR _rctChartOcx$[ebp], xmm0
; File D:\git\src\IBK\IBK_DRFN\ProjSrc\SrcChartEx\ChartOCX\AddInManager\ChartCommonAddIn\AskingPriceIndicatorAddInImp.cpp

; 291  : 	CPoint ptPrice( m_rctBoundMark.right, m_nIndicatorPosY - szPriceText.cy / 2);

  0029c	89 4d b8	 mov	 DWORD PTR $T6[ebp], ecx
; File C:\Program Files (x86)\Microsoft Visual Studio\2019\Community\VC\Tools\MSVC\14.29.30133\atlmfc\include\afxwin2.inl

; 86   : 	{ ASSERT(::IsWindow(m_hWnd)); ::GetClientRect(m_hWnd, lpRect); }

  0029f	ff 70 20	 push	 DWORD PTR [eax+32]
  002a2	ff 15 00 00 00
	00		 call	 DWORD PTR __imp__GetClientRect@8
; File C:\Program Files (x86)\Microsoft Visual Studio\2019\Community\VC\Tools\MSVC\14.29.30133\atlmfc\include\atltypes.h

; 648  : 	return ::PtInRect(this, point);

  002a8	ff 75 b8	 push	 DWORD PTR $T6[ebp]
; File D:\git\src\IBK\IBK_DRFN\ProjSrc\SrcChartEx\ChartOCX\AddInManager\ChartCommonAddIn\AskingPriceIndicatorAddInImp.cpp

; 295  : 	if( !rctChartOcx.PtInRect( ptPrice + CSize( szPriceText.cx, 0)))

  002ab	8b 45 d8	 mov	 eax, DWORD PTR _size$8[ebp]
  002ae	03 c6		 add	 eax, esi
; File C:\Program Files (x86)\Microsoft Visual Studio\2019\Community\VC\Tools\MSVC\14.29.30133\atlmfc\include\atltypes.h

; 648  : 	return ::PtInRect(this, point);

  002b0	50		 push	 eax
  002b1	8d 45 c0	 lea	 eax, DWORD PTR _rctChartOcx$[ebp]
  002b4	50		 push	 eax
  002b5	ff 15 00 00 00
	00		 call	 DWORD PTR __imp__PtInRect@12
; File D:\git\src\IBK\IBK_DRFN\ProjSrc\SrcChartEx\ChartOCX\AddInManager\ChartCommonAddIn\AskingPriceIndicatorAddInImp.cpp

; 295  : 	if( !rctChartOcx.PtInRect( ptPrice + CSize( szPriceText.cx, 0)))

  002bb	85 c0		 test	 eax, eax
  002bd	75 09		 jne	 SHORT $LN19@DrawCursor

; 296  : 		ptPrice.x = m_rctBoundMark.left - szPriceText.cx - 10;

  002bf	8b 77 64	 mov	 esi, DWORD PTR [edi+100]
  002c2	2b 75 d8	 sub	 esi, DWORD PTR _size$8[ebp]
  002c5	83 ee 0a	 sub	 esi, 10			; 0000000aH
$LN19@DrawCursor:
; File C:\Program Files (x86)\Microsoft Visual Studio\2019\Community\VC\Tools\MSVC\14.29.30133\atlmfc\include\atltypes.h

; 540  : 	left = l;

  002c8	8b 4d b8	 mov	 ecx, DWORD PTR $T6[ebp]
; File D:\git\src\IBK\IBK_DRFN\ProjSrc\SrcChartEx\ChartOCX\AddInManager\ChartCommonAddIn\AskingPriceIndicatorAddInImp.cpp

; 304  : 	int nPreROP = pDC->SetROP2( R2_NOT);

  002cb	6a 06		 push	 6
  002cd	89 75 e0	 mov	 DWORD PTR _rct$[ebp], esi
; File C:\Program Files (x86)\Microsoft Visual Studio\2019\Community\VC\Tools\MSVC\14.29.30133\atlmfc\include\atltypes.h

; 540  : 	left = l;

  002d0	8d 41 fe	 lea	 eax, DWORD PTR [ecx-2]
; File D:\git\src\IBK\IBK_DRFN\ProjSrc\SrcChartEx\ChartOCX\AddInManager\ChartCommonAddIn\AskingPriceIndicatorAddInImp.cpp

; 299  : 	rct = CRect( ptPrice.x, ptPrice.y - 2, ptPrice.x + szPriceText.cx + 5, ptPrice.y + szPriceText.cy + 1);

  002d3	41		 inc	 ecx
  002d4	89 45 e4	 mov	 DWORD PTR _rct$[ebp+4], eax
  002d7	8b 45 d8	 mov	 eax, DWORD PTR _size$8[ebp]
  002da	83 c0 05	 add	 eax, 5
  002dd	03 c6		 add	 eax, esi
  002df	89 45 e8	 mov	 DWORD PTR _rct$[ebp+8], eax
  002e2	8b 45 dc	 mov	 eax, DWORD PTR _size$8[ebp+4]
  002e5	03 c1		 add	 eax, ecx

; 304  : 	int nPreROP = pDC->SetROP2( R2_NOT);

  002e7	8b 4d bc	 mov	 ecx, DWORD PTR _pDC$1$[ebp]
  002ea	89 45 ec	 mov	 DWORD PTR _rct$[ebp+12], eax
  002ed	e8 00 00 00 00	 call	 ?SetROP2@CDC@@QAEHH@Z	; CDC::SetROP2

; 305  : 	pDC->MoveTo( m_rctGraphRegion.left,		m_nIndicatorPosY);

  002f2	ff b7 b0 00 00
	00		 push	 DWORD PTR [edi+176]
  002f8	8b 4d bc	 mov	 ecx, DWORD PTR _pDC$1$[ebp]
  002fb	8b f0		 mov	 esi, eax
  002fd	ff 77 74	 push	 DWORD PTR [edi+116]
  00300	8d 45 d8	 lea	 eax, DWORD PTR $T9[ebp]
  00303	50		 push	 eax
  00304	e8 00 00 00 00	 call	 ?MoveTo@CDC@@QAE?AVCPoint@@HH@Z ; CDC::MoveTo

; 306  : 	pDC->LineTo( m_rctGraphRegion.right,	m_nIndicatorPosY);

  00309	ff b7 b0 00 00
	00		 push	 DWORD PTR [edi+176]
  0030f	8b 4d bc	 mov	 ecx, DWORD PTR _pDC$1$[ebp]
  00312	ff 77 7c	 push	 DWORD PTR [edi+124]
  00315	e8 00 00 00 00	 call	 ?LineTo@CDC@@QAEHHH@Z	; CDC::LineTo

; 307  : 	pDC->SetROP2( nPreROP);

  0031a	56		 push	 esi
  0031b	8b 75 bc	 mov	 esi, DWORD PTR _pDC$1$[ebp]
  0031e	8b ce		 mov	 ecx, esi
  00320	e8 00 00 00 00	 call	 ?SetROP2@CDC@@QAEHH@Z	; CDC::SetROP2

; 308  : 	// 5.2 호가 TEXT를 출력한다.
; 309  : 	CPen *	pOldPen		= ( CPen *)pDC->SelectStockObject( BLACK_PEN);

  00325	8b 06		 mov	 eax, DWORD PTR [esi]
  00327	8b ce		 mov	 ecx, esi
  00329	6a 07		 push	 7
  0032b	8b 40 2c	 mov	 eax, DWORD PTR [eax+44]
  0032e	ff d0		 call	 eax
  00330	8b f8		 mov	 edi, eax

; 310  : 	CBrush *pOldBrush	= ( CBrush *)pDC->SelectStockObject( WHITE_BRUSH);

  00332	8b ce		 mov	 ecx, esi
  00334	8b 06		 mov	 eax, DWORD PTR [esi]
  00336	6a 00		 push	 0
  00338	8b 40 2c	 mov	 eax, DWORD PTR [eax+44]
  0033b	ff d0		 call	 eax
; File C:\Program Files (x86)\Microsoft Visual Studio\2019\Community\VC\Tools\MSVC\14.29.30133\atlmfc\include\afxwin1.inl

; 541  : 	{ ASSERT(m_hDC != NULL); return ::Rectangle(m_hDC, lpRect->left, lpRect->top,

  0033d	ff 75 ec	 push	 DWORD PTR _rct$[ebp+12]
; File D:\git\src\IBK\IBK_DRFN\ProjSrc\SrcChartEx\ChartOCX\AddInManager\ChartCommonAddIn\AskingPriceIndicatorAddInImp.cpp

; 310  : 	CBrush *pOldBrush	= ( CBrush *)pDC->SelectStockObject( WHITE_BRUSH);

  00340	8b f0		 mov	 esi, eax
; File C:\Program Files (x86)\Microsoft Visual Studio\2019\Community\VC\Tools\MSVC\14.29.30133\atlmfc\include\afxwin1.inl

; 541  : 	{ ASSERT(m_hDC != NULL); return ::Rectangle(m_hDC, lpRect->left, lpRect->top,

  00342	8b 45 bc	 mov	 eax, DWORD PTR _pDC$1$[ebp]
  00345	ff 75 e8	 push	 DWORD PTR _rct$[ebp+8]
  00348	ff 75 e4	 push	 DWORD PTR _rct$[ebp+4]
  0034b	ff 75 e0	 push	 DWORD PTR _rct$[ebp]
  0034e	ff 70 04	 push	 DWORD PTR [eax+4]
  00351	ff 15 00 00 00
	00		 call	 DWORD PTR __imp__Rectangle@20
; File D:\git\src\IBK\IBK_DRFN\ProjSrc\SrcChartEx\ChartOCX\AddInManager\ChartCommonAddIn\AskingPriceIndicatorAddInImp.cpp

; 312  : 	pDC->SelectObject( pOldBrush);

  00357	56		 push	 esi
  00358	8b 75 bc	 mov	 esi, DWORD PTR _pDC$1$[ebp]
  0035b	8b ce		 mov	 ecx, esi
  0035d	e8 00 00 00 00	 call	 ?SelectObject@CDC@@QAEPAVCBrush@@PAV2@@Z ; CDC::SelectObject

; 313  : 	pDC->SelectObject( pOldPen);

  00362	57		 push	 edi
  00363	8b ce		 mov	 ecx, esi
  00365	e8 00 00 00 00	 call	 ?SelectObject@CDC@@QAEPAVCPen@@PAV2@@Z ; CDC::SelectObject
; File C:\Program Files (x86)\Microsoft Visual Studio\2019\Community\VC\Tools\MSVC\14.29.30133\atlmfc\include\atlsimpstr.h

; 519  : 		return( GetData()->nDataLength );

  0036a	8b 4d ac	 mov	 ecx, DWORD PTR tv1161[ebp]
; File C:\Program Files (x86)\Microsoft Visual Studio\2019\Community\VC\Tools\MSVC\14.29.30133\atlmfc\include\afxwin1.inl

; 574  : 	{ ASSERT(m_hDC != NULL); return TextOut(x, y, (LPCTSTR)str, (int)str.GetLength()); } // call virtual

  0036d	8b 16		 mov	 edx, DWORD PTR [esi]
; File C:\Program Files (x86)\Microsoft Visual Studio\2019\Community\VC\Tools\MSVC\14.29.30133\atlmfc\include\atlsimpstr.h

; 519  : 		return( GetData()->nDataLength );

  0036f	8b 01		 mov	 eax, DWORD PTR [ecx]
; File C:\Program Files (x86)\Microsoft Visual Studio\2019\Community\VC\Tools\MSVC\14.29.30133\atlmfc\include\afxwin1.inl

; 574  : 	{ ASSERT(m_hDC != NULL); return TextOut(x, y, (LPCTSTR)str, (int)str.GetLength()); } // call virtual

  00371	8b ce		 mov	 ecx, esi
  00373	ff 70 f4	 push	 DWORD PTR [eax-12]
  00376	50		 push	 eax
; File D:\git\src\IBK\IBK_DRFN\ProjSrc\SrcChartEx\ChartOCX\AddInManager\ChartCommonAddIn\AskingPriceIndicatorAddInImp.cpp

; 314  : 	pDC->TextOut( rct.left + 3, rct.top + 2, m_strAskingPrice);	// Border를 감안하여 위치를 조정한다.

  00377	8b 45 e4	 mov	 eax, DWORD PTR _rct$[ebp+4]
  0037a	83 c0 02	 add	 eax, 2
; File C:\Program Files (x86)\Microsoft Visual Studio\2019\Community\VC\Tools\MSVC\14.29.30133\atlmfc\include\afxwin1.inl

; 574  : 	{ ASSERT(m_hDC != NULL); return TextOut(x, y, (LPCTSTR)str, (int)str.GetLength()); } // call virtual

  0037d	50		 push	 eax
; File D:\git\src\IBK\IBK_DRFN\ProjSrc\SrcChartEx\ChartOCX\AddInManager\ChartCommonAddIn\AskingPriceIndicatorAddInImp.cpp

; 314  : 	pDC->TextOut( rct.left + 3, rct.top + 2, m_strAskingPrice);	// Border를 감안하여 위치를 조정한다.

  0037e	8b 45 e0	 mov	 eax, DWORD PTR _rct$[ebp]
  00381	83 c0 03	 add	 eax, 3
; File C:\Program Files (x86)\Microsoft Visual Studio\2019\Community\VC\Tools\MSVC\14.29.30133\atlmfc\include\afxwin1.inl

; 574  : 	{ ASSERT(m_hDC != NULL); return TextOut(x, y, (LPCTSTR)str, (int)str.GetLength()); } // call virtual

  00384	50		 push	 eax
  00385	ff 52 64	 call	 DWORD PTR [edx+100]
; File C:\Program Files (x86)\Microsoft Visual Studio\2019\Community\VC\Tools\MSVC\14.29.30133\atlmfc\include\atltypes.h

; 540  : 	left = l;

  00388	8b 55 a0	 mov	 edx, DWORD PTR _this$GSCopy$1$[ebp]

; 541  : 	top = t;

  0038b	8b 8a b0 00 00
	00		 mov	 ecx, DWORD PTR [edx+176]
  00391	8b 42 74	 mov	 eax, DWORD PTR [edx+116]
  00394	89 45 d0	 mov	 DWORD PTR $T7[ebp], eax

; 542  : 	right = r;

  00397	8b 42 7c	 mov	 eax, DWORD PTR [edx+124]
  0039a	89 45 d8	 mov	 DWORD PTR $T7[ebp+8], eax
; File D:\git\src\IBK\IBK_DRFN\ProjSrc\SrcChartEx\ChartOCX\AddInManager\ChartCommonAddIn\AskingPriceIndicatorAddInImp.cpp

; 316  : 	rct.UnionRect( rct, CRect( m_rctGraphRegion.left, m_nIndicatorPosY, m_rctGraphRegion.right,	m_nIndicatorPosY + 1));

  0039d	8d 41 01	 lea	 eax, DWORD PTR [ecx+1]
; File C:\Program Files (x86)\Microsoft Visual Studio\2019\Community\VC\Tools\MSVC\14.29.30133\atlmfc\include\atltypes.h

; 543  : 	bottom = b;

  003a0	89 45 dc	 mov	 DWORD PTR $T7[ebp+12], eax

; 760  : 	return ::UnionRect(this, lpRect1, lpRect2);

  003a3	8d 45 d0	 lea	 eax, DWORD PTR $T7[ebp]
  003a6	50		 push	 eax

; 541  : 	top = t;

  003a7	89 4d d4	 mov	 DWORD PTR $T7[ebp+4], ecx

; 760  : 	return ::UnionRect(this, lpRect1, lpRect2);

  003aa	8d 45 e0	 lea	 eax, DWORD PTR _rct$[ebp]
  003ad	50		 push	 eax
  003ae	50		 push	 eax
  003af	ff 15 00 00 00
	00		 call	 DWORD PTR __imp__UnionRect@12
; File D:\git\src\IBK\IBK_DRFN\ProjSrc\SrcChartEx\ChartOCX\AddInManager\ChartCommonAddIn\AskingPriceIndicatorAddInImp.cpp

; 317  : 	return rct;

  003b5	0f 10 45 e0	 movups	 xmm0, XMMWORD PTR _rct$[ebp]
  003b9	8b 75 9c	 mov	 esi, DWORD PTR ___$ReturnUdt$GSCopy$1$[ebp]
  003bc	8d 4d b0	 lea	 ecx, DWORD PTR _strFormat$[ebp]
  003bf	0f 11 06	 movups	 XMMWORD PTR [esi], xmm0
  003c2	ff 15 00 00 00
	00		 call	 DWORD PTR __imp_??1?$CStringT@DV?$StrTraitMFC_DLL@DV?$ChTraitsCRT@D@ATL@@@@@ATL@@QAE@XZ
  003c8	eb 07		 jmp	 SHORT $LN121@DrawCursor
$LN118@DrawCursor:

; 237  : 	if( !pDC) return rct;

  003ca	0f 10 45 e0	 movups	 xmm0, XMMWORD PTR _rct$[ebp]
  003ce	0f 11 06	 movups	 XMMWORD PTR [esi], xmm0
$LN121@DrawCursor:

; 318  : }

  003d1	8b c6		 mov	 eax, esi
  003d3	8b 4d f4	 mov	 ecx, DWORD PTR __$EHRec$[ebp]
  003d6	64 89 0d 00 00
	00 00		 mov	 DWORD PTR fs:0, ecx
  003dd	59		 pop	 ecx
  003de	5f		 pop	 edi
  003df	5e		 pop	 esi
  003e0	8b 4d f0	 mov	 ecx, DWORD PTR __$ArrayPad$[ebp]
  003e3	33 cd		 xor	 ecx, ebp
  003e5	e8 00 00 00 00	 call	 @__security_check_cookie@4
  003ea	8b e5		 mov	 esp, ebp
  003ec	5d		 pop	 ebp
  003ed	c2 08 00	 ret	 8
_TEXT	ENDS
;	COMDAT text$x
text$x	SEGMENT
__unwindfunclet$?DrawCursor@CAskingPriceIndicatorAddInImp@@MAE?AUtagRECT@@PAUHDC__@@@Z$0:
  00000	8d 4d b0	 lea	 ecx, DWORD PTR _strFormat$[ebp]
  00003	ff 25 00 00 00
	00		 jmp	 DWORD PTR __imp_??1?$CStringT@DV?$StrTraitMFC_DLL@DV?$ChTraitsCRT@D@ATL@@@@@ATL@@QAE@XZ
__unwindfunclet$?DrawCursor@CAskingPriceIndicatorAddInImp@@MAE?AUtagRECT@@PAUHDC__@@@Z$1:
  00009	8d 4d a4	 lea	 ecx, DWORD PTR _strBuffer$4[ebp]
  0000c	ff 25 00 00 00
	00		 jmp	 DWORD PTR __imp_??1?$CStringT@DV?$StrTraitMFC_DLL@DV?$ChTraitsCRT@D@ATL@@@@@ATL@@QAE@XZ
__unwindfunclet$?DrawCursor@CAskingPriceIndicatorAddInImp@@MAE?AUtagRECT@@PAUHDC__@@@Z$2:
  00012	8d 4d b4	 lea	 ecx, DWORD PTR _strBuffer3$5[ebp]
  00015	ff 25 00 00 00
	00		 jmp	 DWORD PTR __imp_??1?$CStringT@DV?$StrTraitMFC_DLL@DV?$ChTraitsCRT@D@ATL@@@@@ATL@@QAE@XZ
  0001b	cc		 int	 3
  0001c	cc		 int	 3
  0001d	cc		 int	 3
  0001e	cc		 int	 3
  0001f	cc		 int	 3
__ehhandler$?DrawCursor@CAskingPriceIndicatorAddInImp@@MAE?AUtagRECT@@PAUHDC__@@@Z:
  00020	90		 npad	 1
  00021	90		 npad	 1
  00022	8b 54 24 08	 mov	 edx, DWORD PTR [esp+8]
  00026	8d 42 0c	 lea	 eax, DWORD PTR [edx+12]
  00029	8b 4a 9c	 mov	 ecx, DWORD PTR [edx-100]
  0002c	33 c8		 xor	 ecx, eax
  0002e	e8 00 00 00 00	 call	 @__security_check_cookie@4
  00033	8b 4a fc	 mov	 ecx, DWORD PTR [edx-4]
  00036	33 c8		 xor	 ecx, eax
  00038	e8 00 00 00 00	 call	 @__security_check_cookie@4
  0003d	b8 00 00 00 00	 mov	 eax, OFFSET __ehfuncinfo$?DrawCursor@CAskingPriceIndicatorAddInImp@@MAE?AUtagRECT@@PAUHDC__@@@Z
  00042	e9 00 00 00 00	 jmp	 ___CxxFrameHandler3
text$x	ENDS
?DrawCursor@CAskingPriceIndicatorAddInImp@@MAE?AUtagRECT@@PAUHDC__@@@Z ENDP ; CAskingPriceIndicatorAddInImp::DrawCursor
; Function compile flags: /Ogtp
; File D:\git\src\IBK\IBK_DRFN\ProjSrc\SrcChartEx\ChartOCX\AddInManager\ChartCommonAddIn\AskingPriceIndicatorAddInImp.cpp
;	COMDAT ?OnSaveEnvironment@CAskingPriceIndicatorAddInImp@@MAEXPAUIPropertyMap@@@Z
_TEXT	SEGMENT
_p_pIAddInEnvMap$ = 8					; size = 4
?OnSaveEnvironment@CAskingPriceIndicatorAddInImp@@MAEXPAUIPropertyMap@@@Z PROC ; CAskingPriceIndicatorAddInImp::OnSaveEnvironment, COMDAT
; _this$ = ecx

; 220  : {

  00000	55		 push	 ebp
  00001	8b ec		 mov	 ebp, esp

; 222  : }

  00003	5d		 pop	 ebp

; 221  : 	CBoundMarkerAddInImp::OnSaveEnvironment( p_pIAddInEnvMap);

  00004	e9 00 00 00 00	 jmp	 ?OnSaveEnvironment@CBoundMarkerAddInImp@@MAEXPAUIPropertyMap@@@Z ; CBoundMarkerAddInImp::OnSaveEnvironment
?OnSaveEnvironment@CAskingPriceIndicatorAddInImp@@MAEXPAUIPropertyMap@@@Z ENDP ; CAskingPriceIndicatorAddInImp::OnSaveEnvironment
_TEXT	ENDS
; Function compile flags: /Ogtp
; File D:\git\src\IBK\IBK_DRFN\ProjSrc\SrcChartEx\ChartOCX\AddInManager\ChartCommonAddIn\AskingPriceIndicatorAddInImp.cpp
;	COMDAT ?OnLoadEnvironment@CAskingPriceIndicatorAddInImp@@MAEXPAUIPropertyMap@@@Z
_TEXT	SEGMENT
_p_pIAddInEnvMap$ = 8					; size = 4
?OnLoadEnvironment@CAskingPriceIndicatorAddInImp@@MAEXPAUIPropertyMap@@@Z PROC ; CAskingPriceIndicatorAddInImp::OnLoadEnvironment, COMDAT
; _this$ = ecx

; 216  : {

  00000	55		 push	 ebp
  00001	8b ec		 mov	 ebp, esp

; 218  : }

  00003	5d		 pop	 ebp

; 217  : 	CBoundMarkerAddInImp::OnLoadEnvironment( p_pIAddInEnvMap);

  00004	e9 00 00 00 00	 jmp	 ?OnLoadEnvironment@CBoundMarkerAddInImp@@MAEXPAUIPropertyMap@@@Z ; CBoundMarkerAddInImp::OnLoadEnvironment
?OnLoadEnvironment@CAskingPriceIndicatorAddInImp@@MAEXPAUIPropertyMap@@@Z ENDP ; CAskingPriceIndicatorAddInImp::OnLoadEnvironment
_TEXT	ENDS
; Function compile flags: /Ogtp
; File D:\git\src\IBK\IBK_DRFN\ProjSrc\SrcChartEx\ChartOCX\AddInManager\ChartCommonAddIn\AskingPriceIndicatorAddInImp.cpp
;	COMDAT ?OnPacketDataMultiItem@CAskingPriceIndicatorAddInImp@@MAEXPBD0H@Z
_TEXT	SEGMENT
_lpszRQ$ = 8						; size = 4
_p_szPacketNames$ = 12					; size = 4
_p_bWithReset$ = 16					; size = 4
?OnPacketDataMultiItem@CAskingPriceIndicatorAddInImp@@MAEXPBD0H@Z PROC ; CAskingPriceIndicatorAddInImp::OnPacketDataMultiItem, COMDAT
; _this$ = ecx

; 209  : {

  00000	55		 push	 ebp
  00001	8b ec		 mov	 ebp, esp

; 212  : }

  00003	5d		 pop	 ebp

; 210  : 	// 0. 먼저 Base에 보조 Message를 처리토록 한다.
; 211  : 	CBoundMarkerAddInImp::OnPacketDataMultiItem(lpszRQ, p_szPacketNames, p_bWithReset);

  00004	e9 00 00 00 00	 jmp	 ?OnPacketDataMultiItem@CBoundMarkerAddInImp@@MAEXPBD0H@Z ; CBoundMarkerAddInImp::OnPacketDataMultiItem
?OnPacketDataMultiItem@CAskingPriceIndicatorAddInImp@@MAEXPBD0H@Z ENDP ; CAskingPriceIndicatorAddInImp::OnPacketDataMultiItem
_TEXT	ENDS
; Function compile flags: /Ogtp
; File D:\git\src\IBK\IBK_DRFN\ProjSrc\SrcChartEx\ChartOCX\AddInManager\ChartCommonAddIn\AskingPriceIndicatorAddInImp.cpp
; File C:\Program Files (x86)\Microsoft Visual Studio\2019\Community\VC\Tools\MSVC\14.29.30133\atlmfc\include\atltypes.h
; File D:\git\src\IBK\IBK_DRFN\ProjSrc\SrcChartEx\ChartOCX\AddInManager\ChartCommonAddIn\AskingPriceIndicatorAddInImp.cpp
; File C:\Program Files (x86)\Microsoft Visual Studio\2019\Community\VC\Tools\MSVC\14.29.30133\atlmfc\include\atltypes.h
; File D:\git\src\IBK\IBK_DRFN\ProjSrc\SrcChartEx\ChartOCX\AddInManager\ChartCommonAddIn\AskingPriceIndicatorAddInImp.cpp
; File C:\Program Files (x86)\Microsoft Visual Studio\2019\Community\VC\Tools\MSVC\14.29.30133\atlmfc\include\atltypes.h
; File D:\git\src\IBK\IBK_DRFN\ProjSrc\SrcChartEx\ChartOCX\AddInManager\ChartCommonAddIn\AskingPriceIndicatorAddInImp.cpp
;	COMDAT ?OnDrawBeforeGraph@CAskingPriceIndicatorAddInImp@@MAEXPAUHDC__@@@Z
_TEXT	SEGMENT
_p_hDC$ = 8						; size = 4
?OnDrawBeforeGraph@CAskingPriceIndicatorAddInImp@@MAEXPAUHDC__@@@Z PROC ; CAskingPriceIndicatorAddInImp::OnDrawBeforeGraph, COMDAT
; _this$ = ecx

; 198  : {

  00000	55		 push	 ebp
  00001	8b ec		 mov	 ebp, esp
  00003	56		 push	 esi

; 199  : 	// 0. 먼저 Base의 Drawing를 처리한다.
; 200  : 	CBoundMarkerAddInImp::OnDrawBeforeGraph( p_hDC);

  00004	ff 75 08	 push	 DWORD PTR _p_hDC$[ebp]
  00007	8b f1		 mov	 esi, ecx
  00009	e8 00 00 00 00	 call	 ?OnDrawBeforeGraph@CBoundMarkerAddInImp@@MAEXPAUHDC__@@@Z ; CBoundMarkerAddInImp::OnDrawBeforeGraph

; 203  : 	m_rctAskingPriceMark = m_rctBoundMark;

  0000e	0f 10 46 64	 movups	 xmm0, XMMWORD PTR [esi+100]
; File C:\Program Files (x86)\Microsoft Visual Studio\2019\Community\VC\Tools\MSVC\14.29.30133\atlmfc\include\atltypes.h

; 686  : 	::InflateRect(this, x, y);

  00012	6a 00		 push	 0
; File D:\git\src\IBK\IBK_DRFN\ProjSrc\SrcChartEx\ChartOCX\AddInManager\ChartCommonAddIn\AskingPriceIndicatorAddInImp.cpp

; 203  : 	m_rctAskingPriceMark = m_rctBoundMark;

  00014	8d 86 bc 00 00
	00		 lea	 eax, DWORD PTR [esi+188]
; File C:\Program Files (x86)\Microsoft Visual Studio\2019\Community\VC\Tools\MSVC\14.29.30133\atlmfc\include\atltypes.h

; 686  : 	::InflateRect(this, x, y);

  0001a	6a 02		 push	 2
  0001c	50		 push	 eax
; File D:\git\src\IBK\IBK_DRFN\ProjSrc\SrcChartEx\ChartOCX\AddInManager\ChartCommonAddIn\AskingPriceIndicatorAddInImp.cpp

; 203  : 	m_rctAskingPriceMark = m_rctBoundMark;

  0001d	0f 11 00	 movups	 XMMWORD PTR [eax], xmm0
; File C:\Program Files (x86)\Microsoft Visual Studio\2019\Community\VC\Tools\MSVC\14.29.30133\atlmfc\include\atltypes.h

; 686  : 	::InflateRect(this, x, y);

  00020	ff 15 00 00 00
	00		 call	 DWORD PTR __imp__InflateRect@12
  00026	5e		 pop	 esi
; File D:\git\src\IBK\IBK_DRFN\ProjSrc\SrcChartEx\ChartOCX\AddInManager\ChartCommonAddIn\AskingPriceIndicatorAddInImp.cpp

; 205  : }

  00027	5d		 pop	 ebp
  00028	c2 04 00	 ret	 4
?OnDrawBeforeGraph@CAskingPriceIndicatorAddInImp@@MAEXPAUHDC__@@@Z ENDP ; CAskingPriceIndicatorAddInImp::OnDrawBeforeGraph
_TEXT	ENDS
; Function compile flags: /Ogtp
; File D:\git\src\IBK\IBK_DRFN\ProjSrc\SrcChartEx\ChartOCX\AddInManager\ChartCommonAddIn\AskingPriceIndicatorAddInImp.cpp
;	COMDAT ?OnResetChart@CAskingPriceIndicatorAddInImp@@MAEXXZ
_TEXT	SEGMENT
?OnResetChart@CAskingPriceIndicatorAddInImp@@MAEXXZ PROC ; CAskingPriceIndicatorAddInImp::OnResetChart, COMDAT
; _this$ = ecx

; 192  : 	// (2005/9/29 - Seung-Won, Bae) Reset BoundMark Flag
; 193  : 	OnAddInToolCommand( EAI_CUSTOM_ENABLE_BOUNDMARK, TRUE);

  00000	8b 01		 mov	 eax, DWORD PTR [ecx]
  00002	6a 01		 push	 1
  00004	6a 09		 push	 9
  00006	ff 90 dc 00 00
	00		 call	 DWORD PTR [eax+220]

; 194  : }

  0000c	c3		 ret	 0
?OnResetChart@CAskingPriceIndicatorAddInImp@@MAEXXZ ENDP ; CAskingPriceIndicatorAddInImp::OnResetChart
_TEXT	ENDS
; Function compile flags: /Ogtp
; File D:\git\src\IBK\IBK_DRFN\ProjSrc\SrcChartEx\ChartOCX\AddInManager\ChartCommonAddIn\AskingPriceIndicatorAddInImp.cpp
; File C:\Program Files (x86)\Microsoft Visual Studio\2019\Community\VC\Tools\MSVC\14.29.30133\atlmfc\include\atlsimpstr.h
; File D:\git\src\IBK\IBK_DRFN\ProjSrc\SrcChartEx\ChartOCX\AddInManager\ChartCommonAddIn\AskingPriceIndicatorAddInImp.cpp
; File C:\Program Files (x86)\Microsoft Visual Studio\2019\Community\VC\Tools\MSVC\14.29.30133\atlmfc\include\atlsimpstr.h
; File D:\git\src\IBK\IBK_DRFN\ProjSrc\SrcChartEx\ChartOCX\AddInManager\ChartCommonAddIn\AskingPriceIndicatorAddInImp.cpp
; File C:\Program Files (x86)\Microsoft Visual Studio\2019\Community\VC\Tools\MSVC\14.29.30133\atlmfc\include\atlsimpstr.h
; File D:\git\src\IBK\IBK_DRFN\ProjSrc\SrcChartEx\ChartOCX\AddInManager\ChartCommonAddIn\AskingPriceIndicatorAddInImp.cpp
; File C:\Program Files (x86)\Windows Kits\10\Include\10.0.22000.0\ucrt\string.h
; File D:\git\src\IBK\IBK_DRFN\ProjSrc\SrcChartEx\ChartOCX\AddInManager\ChartCommonAddIn\AskingPriceIndicatorAddInImp.cpp
; File C:\Program Files (x86)\Windows Kits\10\Include\10.0.22000.0\ucrt\string.h
; File D:\git\src\IBK\IBK_DRFN\ProjSrc\SrcChartEx\ChartOCX\AddInManager\ChartCommonAddIn\AskingPriceIndicatorAddInImp.cpp
; File C:\Program Files (x86)\Windows Kits\10\Include\10.0.22000.0\ucrt\string.h
; File D:\git\src\IBK\IBK_DRFN\ProjSrc\SrcChartEx\ChartOCX\AddInManager\ChartCommonAddIn\AskingPriceIndicatorAddInImp.cpp
; File C:\Program Files (x86)\Windows Kits\10\Include\10.0.22000.0\ucrt\string.h
; File D:\git\src\IBK\IBK_DRFN\ProjSrc\SrcChartEx\ChartOCX\AddInManager\ChartCommonAddIn\AskingPriceIndicatorAddInImp.cpp
; File C:\Program Files (x86)\Windows Kits\10\Include\10.0.22000.0\ucrt\string.h
; File D:\git\src\IBK\IBK_DRFN\ProjSrc\SrcChartEx\ChartOCX\AddInManager\ChartCommonAddIn\AskingPriceIndicatorAddInImp.cpp
; File C:\Program Files (x86)\Windows Kits\10\Include\10.0.22000.0\ucrt\string.h
; File D:\git\src\IBK\IBK_DRFN\ProjSrc\SrcChartEx\ChartOCX\AddInManager\ChartCommonAddIn\AskingPriceIndicatorAddInImp.cpp
; File C:\Program Files (x86)\Windows Kits\10\Include\10.0.22000.0\ucrt\string.h
; File D:\git\src\IBK\IBK_DRFN\ProjSrc\SrcChartEx\ChartOCX\AddInManager\ChartCommonAddIn\AskingPriceIndicatorAddInImp.cpp
; File C:\Program Files (x86)\Windows Kits\10\Include\10.0.22000.0\ucrt\string.h
; File D:\git\src\IBK\IBK_DRFN\ProjSrc\SrcChartEx\ChartOCX\AddInManager\ChartCommonAddIn\AskingPriceIndicatorAddInImp.cpp
; File C:\Program Files (x86)\Windows Kits\10\Include\10.0.22000.0\ucrt\string.h
; File D:\git\src\IBK\IBK_DRFN\ProjSrc\SrcChartEx\ChartOCX\AddInManager\ChartCommonAddIn\AskingPriceIndicatorAddInImp.cpp
; File D:\git\src\IBK\IBK_DRFN\ProjSrc\SrcChartEx\ChartOCX\AddInManager\Include_AddIn\I000000\_IString.h
; File D:\git\src\IBK\IBK_DRFN\ProjSrc\SrcChartEx\ChartOCX\AddInManager\ChartCommonAddIn\AskingPriceIndicatorAddInImp.cpp
; File C:\Program Files (x86)\Microsoft Visual Studio\2019\Community\VC\Tools\MSVC\14.29.30133\atlmfc\include\atlsimpstr.h
; File D:\git\src\IBK\IBK_DRFN\ProjSrc\SrcChartEx\ChartOCX\AddInManager\ChartCommonAddIn\AskingPriceIndicatorAddInImp.cpp
; File C:\Program Files (x86)\Microsoft Visual Studio\2019\Community\VC\Tools\MSVC\14.29.30133\atlmfc\include\atlsimpstr.h
; File D:\git\src\IBK\IBK_DRFN\ProjSrc\SrcChartEx\ChartOCX\AddInManager\ChartCommonAddIn\AskingPriceIndicatorAddInImp.cpp
; File D:\git\src\IBK\IBK_DRFN\ProjSrc\SrcChartEx\ChartOCX\AddInManager\Include_AddIn\I000000\_IString.h
; File D:\git\src\IBK\IBK_DRFN\ProjSrc\SrcChartEx\ChartOCX\AddInManager\ChartCommonAddIn\AskingPriceIndicatorAddInImp.cpp
;	COMDAT ?ResetBound@CAskingPriceIndicatorAddInImp@@MAEXPBD@Z
_TEXT	SEGMENT
_szPacketName$ = -28					; size = 8
_szYClosePrice$1$ = -20					; size = 4
_szMarketType$1$ = -20					; size = 4
_szItemCode$1$ = -20					; size = 4
$T2 = -20						; size = 4
_strMsg$ = -16						; size = 4
__$EHRec$ = -12						; size = 12
_strPacketName$ = 8					; size = 4
_p_szBound$ = 8						; size = 4
?ResetBound@CAskingPriceIndicatorAddInImp@@MAEXPBD@Z PROC ; CAskingPriceIndicatorAddInImp::ResetBound, COMDAT
; _this$ = ecx

; 110  : {

  00000	55		 push	 ebp
  00001	8b ec		 mov	 ebp, esp
  00003	6a ff		 push	 -1
  00005	68 00 00 00 00	 push	 __ehhandler$?ResetBound@CAskingPriceIndicatorAddInImp@@MAEXPBD@Z
  0000a	64 a1 00 00 00
	00		 mov	 eax, DWORD PTR fs:0
  00010	50		 push	 eax
  00011	83 ec 10	 sub	 esp, 16			; 00000010H
  00014	53		 push	 ebx
  00015	56		 push	 esi
  00016	57		 push	 edi
  00017	a1 00 00 00 00	 mov	 eax, DWORD PTR ___security_cookie
  0001c	33 c5		 xor	 eax, ebp
  0001e	50		 push	 eax
  0001f	8d 45 f4	 lea	 eax, DWORD PTR __$EHRec$[ebp]
  00022	64 a3 00 00 00
	00		 mov	 DWORD PTR fs:0, eax
  00028	8b f9		 mov	 edi, ecx

; 111  : 	// 0. 먼저 Base의 Bound Info를 먼저 설정한다.
; 112  : 	CBoundMarkerAddInImp::ResetBound( p_szBound);

  0002a	ff 75 08	 push	 DWORD PTR _p_szBound$[ebp]
  0002d	e8 00 00 00 00	 call	 ?ResetBound@CBoundMarkerAddInImp@@MAEXPBD@Z ; CBoundMarkerAddInImp::ResetBound

; 113  : 
; 114  : 	// 0.5 오류의 경우를 대비하여 미리 Item Code를 Clear시킨다.
; 115  : 	m_strItemCode.Empty();

  00032	8d 8f e4 00 00
	00		 lea	 ecx, DWORD PTR [edi+228]
  00038	ff 15 00 00 00
	00		 call	 DWORD PTR __imp_?Empty@?$CSimpleStringT@D$00@ATL@@QAEXXZ
; File C:\Program Files (x86)\Microsoft Visual Studio\2019\Community\VC\Tools\MSVC\14.29.30133\atlmfc\include\atlsimpstr.h

; 519  : 		return( GetData()->nDataLength );

  0003e	8b 47 58	 mov	 eax, DWORD PTR [edi+88]

; 533  : 		return( GetLength() == 0 );

  00041	83 78 f4 00	 cmp	 DWORD PTR [eax-12], 0
; File D:\git\src\IBK\IBK_DRFN\ProjSrc\SrcChartEx\ChartOCX\AddInManager\ChartCommonAddIn\AskingPriceIndicatorAddInImp.cpp

; 118  : 	if( m_strIndicatorName.IsEmpty()) return;

  00045	0f 84 d1 01 00
	00		 je	 $LN1@ResetBound

; 119  : 
; 120  : 	// (2004.11.01, 배승원) 종목코드, 장구분과 전일종가를 추출을 연동에 이용한다.
; 121  : 	// 2.1 Buffer를 할당받는다.
; 122  : 	CString strMsg;

  0004b	8d 4d f0	 lea	 ecx, DWORD PTR _strMsg$[ebp]
  0004e	ff 15 00 00 00
	00		 call	 DWORD PTR __imp_??0?$CStringT@DV?$StrTraitMFC_DLL@DV?$ChTraitsCRT@D@ATL@@@@@ATL@@QAE@XZ
; File C:\Program Files (x86)\Microsoft Visual Studio\2019\Community\VC\Tools\MSVC\14.29.30133\atlmfc\include\atlsimpstr.h

; 519  : 		return( GetData()->nDataLength );

  00054	8b 87 b0 00 00
	00		 mov	 eax, DWORD PTR [edi+176]
; File D:\git\src\IBK\IBK_DRFN\ProjSrc\SrcChartEx\ChartOCX\AddInManager\ChartCommonAddIn\AskingPriceIndicatorAddInImp.cpp

; 123  : 	char *szBuffer = strMsg.GetBuffer( m_strExtMsg.GetLength());

  0005a	8d 4d f0	 lea	 ecx, DWORD PTR _strMsg$[ebp]
  0005d	c7 45 fc 00 00
	00 00		 mov	 DWORD PTR __$EHRec$[ebp+8], 0
  00064	ff 70 f4	 push	 DWORD PTR [eax-12]
  00067	ff 15 00 00 00
	00		 call	 DWORD PTR __imp_?GetBuffer@?$CSimpleStringT@D$00@ATL@@QAEPADH@Z
; File C:\Program Files (x86)\Microsoft Visual Studio\2019\Community\VC\Tools\MSVC\14.29.30133\atlmfc\include\atlsimpstr.h

; 377  : 		return( m_pszData );

  0006d	8b 97 b0 00 00
	00		 mov	 edx, DWORD PTR [edi+176]
; File D:\git\src\IBK\IBK_DRFN\ProjSrc\SrcChartEx\ChartOCX\AddInManager\ChartCommonAddIn\AskingPriceIndicatorAddInImp.cpp

; 124  : 	strcpy( szBuffer, m_strExtMsg);

  00073	8b f0		 mov	 esi, eax
  00075	89 45 ec	 mov	 DWORD PTR _szItemCode$1$[ebp], eax
$LL14@ResetBound:
  00078	8a 0a		 mov	 cl, BYTE PTR [edx]
  0007a	8d 52 01	 lea	 edx, DWORD PTR [edx+1]
  0007d	88 0e		 mov	 BYTE PTR [esi], cl
  0007f	8d 76 01	 lea	 esi, DWORD PTR [esi+1]
  00082	84 c9		 test	 cl, cl
  00084	75 f2		 jne	 SHORT $LL14@ResetBound
; File C:\Program Files (x86)\Windows Kits\10\Include\10.0.22000.0\ucrt\string.h

; 502  :         return const_cast<char*>(strchr(static_cast<char const*>(_String), _Ch));

  00086	6a 3a		 push	 58			; 0000003aH
  00088	50		 push	 eax
  00089	e8 00 00 00 00	 call	 _strchr
; File D:\git\src\IBK\IBK_DRFN\ProjSrc\SrcChartEx\ChartOCX\AddInManager\ChartCommonAddIn\AskingPriceIndicatorAddInImp.cpp

; 127  : 	szBuffer = strchr( szBuffer, ':');

  0008e	8b f0		 mov	 esi, eax
; File C:\Program Files (x86)\Windows Kits\10\Include\10.0.22000.0\ucrt\string.h

; 502  :         return const_cast<char*>(strchr(static_cast<char const*>(_String), _Ch));

  00090	83 c4 08	 add	 esp, 8
; File D:\git\src\IBK\IBK_DRFN\ProjSrc\SrcChartEx\ChartOCX\AddInManager\ChartCommonAddIn\AskingPriceIndicatorAddInImp.cpp

; 128  : 	if( szBuffer) *szBuffer++ = '\0';

  00093	85 f6		 test	 esi, esi
  00095	74 04		 je	 SHORT $LN3@ResetBound
  00097	c6 06 00	 mov	 BYTE PTR [esi], 0
  0009a	46		 inc	 esi
$LN3@ResetBound:

; 129  : 	m_strItemCode = szItemCode;

  0009b	ff 75 ec	 push	 DWORD PTR _szItemCode$1$[ebp]
  0009e	8d 8f e4 00 00
	00		 lea	 ecx, DWORD PTR [edi+228]
  000a4	ff 15 00 00 00
	00		 call	 DWORD PTR __imp_??4?$CStringT@DV?$StrTraitMFC_DLL@DV?$ChTraitsCRT@D@ATL@@@@@ATL@@QAEAAV01@PBD@Z

; 130  : 	// (2004.11.01, 배승원) 종목코드는 RTime을 시킨다. Server에서는 기본 7자리로 관리한다고 한다.
; 131  : 	m_strItemCode.TrimRight();

  000aa	8d 8f e4 00 00
	00		 lea	 ecx, DWORD PTR [edi+228]
  000b0	ff 15 00 00 00
	00		 call	 DWORD PTR __imp_?TrimRight@?$CStringT@DV?$StrTraitMFC_DLL@DV?$ChTraitsCRT@D@ATL@@@@@ATL@@QAEAAV12@XZ

; 132  : 	// 2.3 장구분를 구한다.
; 133  : 	m_nMarketType = -1;
; 134  : 	if( szBuffer)

  000b6	8b 1d 00 00 00
	00		 mov	 ebx, DWORD PTR __imp__atol
  000bc	c7 87 f4 00 00
	00 ff ff ff ff	 mov	 DWORD PTR [edi+244], -1
  000c6	85 f6		 test	 esi, esi
  000c8	74 26		 je	 SHORT $LN4@ResetBound
; File C:\Program Files (x86)\Windows Kits\10\Include\10.0.22000.0\ucrt\string.h

; 502  :         return const_cast<char*>(strchr(static_cast<char const*>(_String), _Ch));

  000ca	6a 3a		 push	 58			; 0000003aH
  000cc	56		 push	 esi
; File D:\git\src\IBK\IBK_DRFN\ProjSrc\SrcChartEx\ChartOCX\AddInManager\ChartCommonAddIn\AskingPriceIndicatorAddInImp.cpp

; 136  : 		char *szMarketType = szBuffer;

  000cd	89 75 ec	 mov	 DWORD PTR _szMarketType$1$[ebp], esi
; File C:\Program Files (x86)\Windows Kits\10\Include\10.0.22000.0\ucrt\string.h

; 502  :         return const_cast<char*>(strchr(static_cast<char const*>(_String), _Ch));

  000d0	e8 00 00 00 00	 call	 _strchr
; File D:\git\src\IBK\IBK_DRFN\ProjSrc\SrcChartEx\ChartOCX\AddInManager\ChartCommonAddIn\AskingPriceIndicatorAddInImp.cpp

; 137  : 		szBuffer = strchr( szBuffer, ':');

  000d5	8b f0		 mov	 esi, eax
; File C:\Program Files (x86)\Windows Kits\10\Include\10.0.22000.0\ucrt\string.h

; 502  :         return const_cast<char*>(strchr(static_cast<char const*>(_String), _Ch));

  000d7	83 c4 08	 add	 esp, 8
; File D:\git\src\IBK\IBK_DRFN\ProjSrc\SrcChartEx\ChartOCX\AddInManager\ChartCommonAddIn\AskingPriceIndicatorAddInImp.cpp

; 138  : 		if( szBuffer) *szBuffer++ = '\0';

  000da	85 f6		 test	 esi, esi
  000dc	74 04		 je	 SHORT $LN5@ResetBound
  000de	c6 06 00	 mov	 BYTE PTR [esi], 0
  000e1	46		 inc	 esi
$LN5@ResetBound:

; 139  : 		m_nMarketType = atol( szMarketType);

  000e2	ff 75 ec	 push	 DWORD PTR _szMarketType$1$[ebp]
  000e5	ff d3		 call	 ebx
  000e7	83 c4 04	 add	 esp, 4
  000ea	89 87 f4 00 00
	00		 mov	 DWORD PTR [edi+244], eax
$LN4@ResetBound:

; 140  : 	}
; 141  : 	// 2.4 전일종가를 구한다.
; 142  : 	m_dYClosePrice = 0;

  000f0	0f 57 c0	 xorps	 xmm0, xmm0
  000f3	f2 0f 11 87 00
	01 00 00	 movsd	 QWORD PTR [edi+256], xmm0

; 143  : 	if( szBuffer)

  000fb	85 f6		 test	 esi, esi
  000fd	74 2a		 je	 SHORT $LN6@ResetBound
; File C:\Program Files (x86)\Windows Kits\10\Include\10.0.22000.0\ucrt\string.h

; 502  :         return const_cast<char*>(strchr(static_cast<char const*>(_String), _Ch));

  000ff	6a 3a		 push	 58			; 0000003aH
  00101	56		 push	 esi
; File D:\git\src\IBK\IBK_DRFN\ProjSrc\SrcChartEx\ChartOCX\AddInManager\ChartCommonAddIn\AskingPriceIndicatorAddInImp.cpp

; 145  : 		char *szYClosePrice = szBuffer;

  00102	89 75 ec	 mov	 DWORD PTR _szYClosePrice$1$[ebp], esi
; File C:\Program Files (x86)\Windows Kits\10\Include\10.0.22000.0\ucrt\string.h

; 502  :         return const_cast<char*>(strchr(static_cast<char const*>(_String), _Ch));

  00105	e8 00 00 00 00	 call	 _strchr
; File D:\git\src\IBK\IBK_DRFN\ProjSrc\SrcChartEx\ChartOCX\AddInManager\ChartCommonAddIn\AskingPriceIndicatorAddInImp.cpp

; 146  : 		szBuffer = strchr( szBuffer, ':');

  0010a	8b f0		 mov	 esi, eax
; File C:\Program Files (x86)\Windows Kits\10\Include\10.0.22000.0\ucrt\string.h

; 502  :         return const_cast<char*>(strchr(static_cast<char const*>(_String), _Ch));

  0010c	83 c4 08	 add	 esp, 8
; File D:\git\src\IBK\IBK_DRFN\ProjSrc\SrcChartEx\ChartOCX\AddInManager\ChartCommonAddIn\AskingPriceIndicatorAddInImp.cpp

; 147  : 		if( szBuffer) *szBuffer++ = '\0';

  0010f	85 f6		 test	 esi, esi
  00111	74 04		 je	 SHORT $LN7@ResetBound
  00113	c6 06 00	 mov	 BYTE PTR [esi], 0
  00116	46		 inc	 esi
$LN7@ResetBound:

; 148  : 		m_dYClosePrice = atof( szYClosePrice);

  00117	ff 75 ec	 push	 DWORD PTR _szYClosePrice$1$[ebp]
  0011a	ff 15 00 00 00
	00		 call	 DWORD PTR __imp__atof
  00120	dd 9f 00 01 00
	00		 fstp	 QWORD PTR [edi+256]
  00126	83 c4 04	 add	 esp, 4
$LN6@ResetBound:

; 149  : 	}
; 150  : 	// (2004.11.02, 배승원) 대비율(등락률)인지 가격인지 Flag을 받아 관리한다.
; 151  : 	m_nRatioByYCP = 0;

  00129	c7 87 f8 00 00
	00 00 00 00 00	 mov	 DWORD PTR [edi+248], 0

; 152  : 	if( szBuffer)

  00133	85 f6		 test	 esi, esi
  00135	74 1e		 je	 SHORT $LN8@ResetBound
; File C:\Program Files (x86)\Windows Kits\10\Include\10.0.22000.0\ucrt\string.h

; 502  :         return const_cast<char*>(strchr(static_cast<char const*>(_String), _Ch));

  00137	6a 3a		 push	 58			; 0000003aH
  00139	56		 push	 esi
  0013a	e8 00 00 00 00	 call	 _strchr
  0013f	83 c4 08	 add	 esp, 8
; File D:\git\src\IBK\IBK_DRFN\ProjSrc\SrcChartEx\ChartOCX\AddInManager\ChartCommonAddIn\AskingPriceIndicatorAddInImp.cpp

; 156  : 		if( szBuffer) *szBuffer++ = '\0';

  00142	85 c0		 test	 eax, eax
  00144	74 03		 je	 SHORT $LN9@ResetBound
  00146	c6 00 00	 mov	 BYTE PTR [eax], 0
$LN9@ResetBound:

; 157  : 		m_nRatioByYCP = atol( szRatioByYCP);

  00149	56		 push	 esi
  0014a	ff d3		 call	 ebx
  0014c	83 c4 04	 add	 esp, 4
  0014f	89 87 f8 00 00
	00		 mov	 DWORD PTR [edi+248], eax
$LN8@ResetBound:

; 163  : 	ILPCSTR szPacketName = m_pIChartManager->GetPacketNameStringOfGraph( m_strIndicatorName);

  00155	8b 4f 24	 mov	 ecx, DWORD PTR [edi+36]
  00158	ff 77 58	 push	 DWORD PTR [edi+88]
  0015b	8b 01		 mov	 eax, DWORD PTR [ecx]
  0015d	ff 50 5c	 call	 DWORD PTR [eax+92]
; File D:\git\src\IBK\IBK_DRFN\ProjSrc\SrcChartEx\ChartOCX\AddInManager\Include_AddIn\I000000\_IString.h

; 39   : 		m_pIStrData = p_pIString;	// Do not AddRef(). Because It must be Return Value.

  00160	8b f0		 mov	 esi, eax
  00162	89 75 e8	 mov	 DWORD PTR _szPacketName$[ebp+4], esi

; 40   : 		if( m_pIStrData) m_szData = m_pIStrData->GetData();

  00165	85 f6		 test	 esi, esi
  00167	74 09		 je	 SHORT $LN42@ResetBound
  00169	8b 16		 mov	 edx, DWORD PTR [esi]
  0016b	8b ce		 mov	 ecx, esi
  0016d	ff 52 10	 call	 DWORD PTR [edx+16]
  00170	eb 02		 jmp	 SHORT $LN61@ResetBound
$LN42@ResetBound:

; 41   : 		else m_szData = NULL;

  00172	33 c0		 xor	 eax, eax
$LN61@ResetBound:
; File D:\git\src\IBK\IBK_DRFN\ProjSrc\SrcChartEx\ChartOCX\AddInManager\ChartCommonAddIn\AskingPriceIndicatorAddInImp.cpp

; 163  : 	ILPCSTR szPacketName = m_pIChartManager->GetPacketNameStringOfGraph( m_strIndicatorName);

  00174	89 45 e4	 mov	 DWORD PTR _szPacketName$[ebp], eax

; 164  : 	CString strPacketName( szPacketName);

  00177	50		 push	 eax
  00178	8d 4d 08	 lea	 ecx, DWORD PTR _strPacketName$[ebp]
  0017b	c6 45 fc 01	 mov	 BYTE PTR __$EHRec$[ebp+8], 1
  0017f	ff 15 00 00 00
	00		 call	 DWORD PTR __imp_??0?$CStringT@DV?$StrTraitMFC_DLL@DV?$ChTraitsCRT@D@ATL@@@@@ATL@@QAE@PBD@Z

; 165  : 	int nNextPacketIndex = strPacketName.Find( ',');

  00185	6a 00		 push	 0
  00187	6a 2c		 push	 44			; 0000002cH
  00189	8d 4d 08	 lea	 ecx, DWORD PTR _strPacketName$[ebp]
  0018c	c6 45 fc 02	 mov	 BYTE PTR __$EHRec$[ebp+8], 2
  00190	ff 15 00 00 00
	00		 call	 DWORD PTR __imp_?Find@?$CStringT@DV?$StrTraitMFC_DLL@DV?$ChTraitsCRT@D@ATL@@@@@ATL@@QBEHDH@Z

; 166  : 	if( 0 < nNextPacketIndex) strPacketName = strPacketName.Left( nNextPacketIndex);

  00196	85 c0		 test	 eax, eax
  00198	7e 29		 jle	 SHORT $LN10@ResetBound
  0019a	50		 push	 eax
  0019b	8d 45 ec	 lea	 eax, DWORD PTR $T2[ebp]
  0019e	50		 push	 eax
  0019f	8d 4d 08	 lea	 ecx, DWORD PTR _strPacketName$[ebp]
  001a2	ff 15 00 00 00
	00		 call	 DWORD PTR __imp_?Left@?$CStringT@DV?$StrTraitMFC_DLL@DV?$ChTraitsCRT@D@ATL@@@@@ATL@@QBE?AV12@H@Z
  001a8	50		 push	 eax
  001a9	8d 4d 08	 lea	 ecx, DWORD PTR _strPacketName$[ebp]
  001ac	c6 45 fc 03	 mov	 BYTE PTR __$EHRec$[ebp+8], 3
  001b0	ff 15 00 00 00
	00		 call	 DWORD PTR __imp_??4?$CStringT@DV?$StrTraitMFC_DLL@DV?$ChTraitsCRT@D@ATL@@@@@ATL@@QAEAAV01@ABV01@@Z
  001b6	8d 4d ec	 lea	 ecx, DWORD PTR $T2[ebp]
  001b9	c6 45 fc 02	 mov	 BYTE PTR __$EHRec$[ebp+8], 2
  001bd	ff 15 00 00 00
	00		 call	 DWORD PTR __imp_??1?$CStringT@DV?$StrTraitMFC_DLL@DV?$ChTraitsCRT@D@ATL@@@@@ATL@@QAE@XZ
$LN10@ResetBound:
; File C:\Program Files (x86)\Microsoft Visual Studio\2019\Community\VC\Tools\MSVC\14.29.30133\atlmfc\include\atlsimpstr.h

; 519  : 		return( GetData()->nDataLength );

  001c3	8b 45 08	 mov	 eax, DWORD PTR _strPacketName$[ebp]
; File D:\git\src\IBK\IBK_DRFN\ProjSrc\SrcChartEx\ChartOCX\AddInManager\ChartCommonAddIn\AskingPriceIndicatorAddInImp.cpp

; 169  : 	IPacket *pIPacket = NULL;

  001c6	33 db		 xor	 ebx, ebx
; File C:\Program Files (x86)\Microsoft Visual Studio\2019\Community\VC\Tools\MSVC\14.29.30133\atlmfc\include\atlsimpstr.h

; 533  : 		return( GetLength() == 0 );

  001c8	39 58 f4	 cmp	 DWORD PTR [eax-12], ebx
; File D:\git\src\IBK\IBK_DRFN\ProjSrc\SrcChartEx\ChartOCX\AddInManager\ChartCommonAddIn\AskingPriceIndicatorAddInImp.cpp

; 170  : 	if( !strPacketName.IsEmpty())

  001cb	74 0b		 je	 SHORT $LN11@ResetBound

; 171  : 	{
; 172  : 		// 3.3 Packet의 Packet Type Unit Value를 구한다.
; 173  : 		pIPacket = m_pIDefaultPacketManager->GetPacket( strPacketName);

  001cd	8b 4f 20	 mov	 ecx, DWORD PTR [edi+32]
  001d0	50		 push	 eax
  001d1	8b 11		 mov	 edx, DWORD PTR [ecx]
  001d3	ff 52 10	 call	 DWORD PTR [edx+16]
  001d6	8b d8		 mov	 ebx, eax
$LN11@ResetBound:

; 174  : 	}
; 175  : 
; 176  : 	// 3.3 Packet의 Packet Unit Value (Precision)를 구한다.
; 177  : 	m_dPacketUnitValue = 0;

  001d8	0f 57 c0	 xorps	 xmm0, xmm0
  001db	f2 0f 11 87 e8
	00 00 00	 movsd	 QWORD PTR [edi+232], xmm0

; 178  : 	if( pIPacket)

  001e3	85 db		 test	 ebx, ebx
  001e5	74 15		 je	 SHORT $LN12@ResetBound

; 179  : 	{
; 180  : 		m_dPacketUnitValue = pIPacket->GetPacketTypeUnitValue();

  001e7	8b 03		 mov	 eax, DWORD PTR [ebx]
  001e9	8b cb		 mov	 ecx, ebx
  001eb	8b 40 10	 mov	 eax, DWORD PTR [eax+16]
  001ee	ff d0		 call	 eax
  001f0	dd 9f e8 00 00
	00		 fstp	 QWORD PTR [edi+232]

; 181  : 		pIPacket->Release();

  001f6	8b 03		 mov	 eax, DWORD PTR [ebx]
  001f8	53		 push	 ebx
  001f9	ff 50 08	 call	 DWORD PTR [eax+8]
$LN12@ResetBound:

; 183  : }

  001fc	8d 4d 08	 lea	 ecx, DWORD PTR _strPacketName$[ebp]
  001ff	ff 15 00 00 00
	00		 call	 DWORD PTR __imp_??1?$CStringT@DV?$StrTraitMFC_DLL@DV?$ChTraitsCRT@D@ATL@@@@@ATL@@QAE@XZ
; File D:\git\src\IBK\IBK_DRFN\ProjSrc\SrcChartEx\ChartOCX\AddInManager\Include_AddIn\I000000\_IString.h

; 44   : 	{

  00205	c6 45 fc 04	 mov	 BYTE PTR __$EHRec$[ebp+8], 4

; 45   : 		if( m_pIStrData)

  00209	85 f6		 test	 esi, esi
  0020b	74 06		 je	 SHORT $LN54@ResetBound

; 46   : 		{
; 47   : 			m_pIStrData->Release();

  0020d	8b 06		 mov	 eax, DWORD PTR [esi]
  0020f	56		 push	 esi
  00210	ff 50 08	 call	 DWORD PTR [eax+8]
$LN54@ResetBound:
; File D:\git\src\IBK\IBK_DRFN\ProjSrc\SrcChartEx\ChartOCX\AddInManager\ChartCommonAddIn\AskingPriceIndicatorAddInImp.cpp

; 183  : }

  00213	8d 4d f0	 lea	 ecx, DWORD PTR _strMsg$[ebp]
  00216	ff 15 00 00 00
	00		 call	 DWORD PTR __imp_??1?$CStringT@DV?$StrTraitMFC_DLL@DV?$ChTraitsCRT@D@ATL@@@@@ATL@@QAE@XZ
$LN1@ResetBound:
  0021c	8b 4d f4	 mov	 ecx, DWORD PTR __$EHRec$[ebp]
  0021f	64 89 0d 00 00
	00 00		 mov	 DWORD PTR fs:0, ecx
  00226	59		 pop	 ecx
  00227	5f		 pop	 edi
  00228	5e		 pop	 esi
  00229	5b		 pop	 ebx
  0022a	8b e5		 mov	 esp, ebp
  0022c	5d		 pop	 ebp
  0022d	c2 04 00	 ret	 4
_TEXT	ENDS
;	COMDAT text$x
text$x	SEGMENT
__unwindfunclet$?ResetBound@CAskingPriceIndicatorAddInImp@@MAEXPBD@Z$0:
  00000	8d 4d f0	 lea	 ecx, DWORD PTR _strMsg$[ebp]
  00003	ff 25 00 00 00
	00		 jmp	 DWORD PTR __imp_??1?$CStringT@DV?$StrTraitMFC_DLL@DV?$ChTraitsCRT@D@ATL@@@@@ATL@@QAE@XZ
__unwindfunclet$?ResetBound@CAskingPriceIndicatorAddInImp@@MAEXPBD@Z$1:
  00009	8d 4d e4	 lea	 ecx, DWORD PTR _szPacketName$[ebp]
  0000c	e9 00 00 00 00	 jmp	 ??1ILPCSTR000000@@QAE@XZ ; ILPCSTR000000::~ILPCSTR000000
__unwindfunclet$?ResetBound@CAskingPriceIndicatorAddInImp@@MAEXPBD@Z$2:
  00011	8d 4d 08	 lea	 ecx, DWORD PTR _strPacketName$[ebp]
  00014	ff 25 00 00 00
	00		 jmp	 DWORD PTR __imp_??1?$CStringT@DV?$StrTraitMFC_DLL@DV?$ChTraitsCRT@D@ATL@@@@@ATL@@QAE@XZ
__unwindfunclet$?ResetBound@CAskingPriceIndicatorAddInImp@@MAEXPBD@Z$3:
  0001a	8d 4d ec	 lea	 ecx, DWORD PTR $T2[ebp]
  0001d	ff 25 00 00 00
	00		 jmp	 DWORD PTR __imp_??1?$CStringT@DV?$StrTraitMFC_DLL@DV?$ChTraitsCRT@D@ATL@@@@@ATL@@QAE@XZ
  00023	cc		 int	 3
  00024	cc		 int	 3
  00025	cc		 int	 3
  00026	cc		 int	 3
  00027	cc		 int	 3
__ehhandler$?ResetBound@CAskingPriceIndicatorAddInImp@@MAEXPBD@Z:
  00028	90		 npad	 1
  00029	90		 npad	 1
  0002a	8b 54 24 08	 mov	 edx, DWORD PTR [esp+8]
  0002e	8d 42 0c	 lea	 eax, DWORD PTR [edx+12]
  00031	8b 4a e0	 mov	 ecx, DWORD PTR [edx-32]
  00034	33 c8		 xor	 ecx, eax
  00036	e8 00 00 00 00	 call	 @__security_check_cookie@4
  0003b	b8 00 00 00 00	 mov	 eax, OFFSET __ehfuncinfo$?ResetBound@CAskingPriceIndicatorAddInImp@@MAEXPBD@Z
  00040	e9 00 00 00 00	 jmp	 ___CxxFrameHandler3
text$x	ENDS
?ResetBound@CAskingPriceIndicatorAddInImp@@MAEXPBD@Z ENDP ; CAskingPriceIndicatorAddInImp::ResetBound
; Function compile flags: /Ogtp
; File D:\git\src\IBK\IBK_DRFN\ProjSrc\SrcChartEx\ChartOCX\AddInManager\ChartCommonAddIn\AskingPriceIndicatorAddInImp.cpp
; File C:\Program Files (x86)\Microsoft Visual Studio\2019\Community\VC\Tools\MSVC\14.29.30133\atlmfc\include\afxwin1.inl
; File D:\git\src\IBK\IBK_DRFN\ProjSrc\SrcChartEx\ChartOCX\Include_Chart\Dll_Load\IMetaTable.h
; File C:\Program Files (x86)\Microsoft Visual Studio\2019\Community\VC\Tools\MSVC\14.29.30133\atlmfc\include\afxwin1.inl
; File D:\git\src\IBK\IBK_DRFN\ProjSrc\SrcChartEx\ChartOCX\AddInManager\ChartCommonAddIn\AskingPriceIndicatorAddInImp.cpp
; File C:\Program Files (x86)\Microsoft Visual Studio\2019\Community\VC\Tools\MSVC\14.29.30133\atlmfc\include\afxwin1.inl
; File D:\git\src\IBK\IBK_DRFN\ProjSrc\SrcChartEx\ChartOCX\AddInManager\ChartCommonAddIn\AskingPriceIndicatorAddInImp.cpp
; File C:\Program Files (x86)\Microsoft Visual Studio\2019\Community\VC\Tools\MSVC\14.29.30133\atlmfc\include\afxwin1.inl
; File D:\git\src\IBK\IBK_DRFN\ProjSrc\SrcChartEx\ChartOCX\AddInManager\ChartCommonAddIn\AskingPriceIndicatorAddInImp.cpp
; File D:\git\src\IBK\IBK_DRFN\ProjSrc\SrcChartEx\ChartOCX\Include_Chart\Dll_Load\IMetaTable.h
; File C:\Program Files (x86)\Microsoft Visual Studio\2019\Community\VC\Tools\MSVC\14.29.30133\atlmfc\include\afxwin1.inl
; File D:\git\src\IBK\IBK_DRFN\ProjSrc\SrcChartEx\ChartOCX\AddInManager\ChartCommonAddIn\AskingPriceIndicatorAddInImp.cpp
;	COMDAT ?ClearAskingPriceGShareFireFlag@CAskingPriceIndicatorAddInImp@@IAEXXZ
_TEXT	SEGMENT
___mlrs__$ = -16					; size = 4
__$EHRec$ = -12						; size = 12
?ClearAskingPriceGShareFireFlag@CAskingPriceIndicatorAddInImp@@IAEXXZ PROC ; CAskingPriceIndicatorAddInImp::ClearAskingPriceGShareFireFlag, COMDAT
; _this$ = ecx

; 91   : {

  00000	55		 push	 ebp
  00001	8b ec		 mov	 ebp, esp
  00003	6a ff		 push	 -1
  00005	68 00 00 00 00	 push	 __ehhandler$?ClearAskingPriceGShareFireFlag@CAskingPriceIndicatorAddInImp@@IAEXXZ
  0000a	64 a1 00 00 00
	00		 mov	 eax, DWORD PTR fs:0
  00010	50		 push	 eax
  00011	51		 push	 ecx
  00012	53		 push	 ebx
  00013	56		 push	 esi
  00014	57		 push	 edi
  00015	a1 00 00 00 00	 mov	 eax, DWORD PTR ___security_cookie
  0001a	33 c5		 xor	 eax, ebp
  0001c	50		 push	 eax
  0001d	8d 45 f4	 lea	 eax, DWORD PTR __$EHRec$[ebp]
  00020	64 a3 00 00 00
	00		 mov	 DWORD PTR fs:0, eax
  00026	8b d9		 mov	 ebx, ecx

; 92   : 	// 1. 호가연동 처리 Flag을 해제한다.
; 93   : 	m_bOnFireAskingPriceGShare = FALSE;

  00028	c7 83 c0 00 00
	00 00 00 00 00	 mov	 DWORD PTR [ebx+192], 0

; 99   : 	ML_SET_DEFAULT_RES();

  00032	e8 00 00 00 00	 call	 ?AfxGetStaticModuleState@@YGPAVAFX_MODULE_STATE@@XZ ; AfxGetStaticModuleState
  00037	8b 78 08	 mov	 edi, DWORD PTR [eax+8]
; File C:\Program Files (x86)\Microsoft Visual Studio\2019\Community\VC\Tools\MSVC\14.29.30133\atlmfc\include\afxwin1.inl

; 25   : 		return afxCurrentResourceHandle; }

  0003a	e8 00 00 00 00	 call	 ?AfxGetModuleState@@YGPAVAFX_MODULE_STATE@@XZ ; AfxGetModuleState
; File D:\git\src\IBK\IBK_DRFN\ProjSrc\SrcChartEx\ChartOCX\Include_Chart\Dll_Load\IMetaTable.h

; 1032 : 		m_hInstance = AfxGetResourceHandle();

  0003f	8b 70 0c	 mov	 esi, DWORD PTR [eax+12]
  00042	89 75 f0	 mov	 DWORD PTR ___mlrs__$[ebp], esi
; File C:\Program Files (x86)\Microsoft Visual Studio\2019\Community\VC\Tools\MSVC\14.29.30133\atlmfc\include\afxwin1.inl

; 27   : 	{ ASSERT(hInstResource != NULL); afxCurrentResourceHandle = hInstResource; }

  00045	e8 00 00 00 00	 call	 ?AfxGetModuleState@@YGPAVAFX_MODULE_STATE@@XZ ; AfxGetModuleState
  0004a	89 78 0c	 mov	 DWORD PTR [eax+12], edi
; File D:\git\src\IBK\IBK_DRFN\ProjSrc\SrcChartEx\ChartOCX\AddInManager\ChartCommonAddIn\AskingPriceIndicatorAddInImp.cpp

; 99   : 	ML_SET_DEFAULT_RES();

  0004d	c7 45 fc 00 00
	00 00		 mov	 DWORD PTR __$EHRec$[ebp+8], 0
; File C:\Program Files (x86)\Microsoft Visual Studio\2019\Community\VC\Tools\MSVC\14.29.30133\atlmfc\include\afxwin1.inl

; 22   : 		return afxCurrentInstanceHandle; }

  00054	e8 00 00 00 00	 call	 ?AfxGetModuleState@@YGPAVAFX_MODULE_STATE@@XZ ; AfxGetModuleState
; File D:\git\src\IBK\IBK_DRFN\ProjSrc\SrcChartEx\ChartOCX\AddInManager\ChartCommonAddIn\AskingPriceIndicatorAddInImp.cpp

; 100  : 	m_hAPCursor = ::LoadCursor( AfxGetInstanceHandle(), MAKEINTRESOURCE( IDC_AP_INDICATOR));

  00059	68 48 71 00 00	 push	 29000			; 00007148H
; File C:\Program Files (x86)\Microsoft Visual Studio\2019\Community\VC\Tools\MSVC\14.29.30133\atlmfc\include\afxwin1.inl

; 22   : 		return afxCurrentInstanceHandle; }

  0005e	8b 40 08	 mov	 eax, DWORD PTR [eax+8]
; File D:\git\src\IBK\IBK_DRFN\ProjSrc\SrcChartEx\ChartOCX\AddInManager\ChartCommonAddIn\AskingPriceIndicatorAddInImp.cpp

; 100  : 	m_hAPCursor = ::LoadCursor( AfxGetInstanceHandle(), MAKEINTRESOURCE( IDC_AP_INDICATOR));

  00061	50		 push	 eax
  00062	ff 15 00 00 00
	00		 call	 DWORD PTR __imp__LoadCursorA@8

; 101  : 	ASSERT( m_hAPCursor);
; 102  : 	m_pIChartOCX->SetCursorHandle( m_hAPCursor);

  00068	8b 4b 0c	 mov	 ecx, DWORD PTR [ebx+12]
  0006b	89 83 e0 00 00
	00		 mov	 DWORD PTR [ebx+224], eax
  00071	50		 push	 eax
  00072	8b 11		 mov	 edx, DWORD PTR [ecx]
  00074	ff 52 4c	 call	 DWORD PTR [edx+76]
; File D:\git\src\IBK\IBK_DRFN\ProjSrc\SrcChartEx\ChartOCX\Include_Chart\Dll_Load\IMetaTable.h

; 1036 : 	{

  00077	c7 45 fc 01 00
	00 00		 mov	 DWORD PTR __$EHRec$[ebp+8], 1
; File C:\Program Files (x86)\Microsoft Visual Studio\2019\Community\VC\Tools\MSVC\14.29.30133\atlmfc\include\afxwin1.inl

; 27   : 	{ ASSERT(hInstResource != NULL); afxCurrentResourceHandle = hInstResource; }

  0007e	e8 00 00 00 00	 call	 ?AfxGetModuleState@@YGPAVAFX_MODULE_STATE@@XZ ; AfxGetModuleState
  00083	89 70 0c	 mov	 DWORD PTR [eax+12], esi
; File D:\git\src\IBK\IBK_DRFN\ProjSrc\SrcChartEx\ChartOCX\AddInManager\ChartCommonAddIn\AskingPriceIndicatorAddInImp.cpp

; 103  : }

  00086	8b 4d f4	 mov	 ecx, DWORD PTR __$EHRec$[ebp]
  00089	64 89 0d 00 00
	00 00		 mov	 DWORD PTR fs:0, ecx
  00090	59		 pop	 ecx
  00091	5f		 pop	 edi
  00092	5e		 pop	 esi
  00093	5b		 pop	 ebx
  00094	8b e5		 mov	 esp, ebp
  00096	5d		 pop	 ebp
  00097	c3		 ret	 0
_TEXT	ENDS
;	COMDAT text$x
text$x	SEGMENT
__unwindfunclet$?ClearAskingPriceGShareFireFlag@CAskingPriceIndicatorAddInImp@@IAEXXZ$0:
  00000	8d 4d f0	 lea	 ecx, DWORD PTR ___mlrs__$[ebp]
  00003	e9 00 00 00 00	 jmp	 ??1CMultiLanguageResourceSetter@@QAE@XZ ; CMultiLanguageResourceSetter::~CMultiLanguageResourceSetter
  00008	cc		 int	 3
  00009	cc		 int	 3
  0000a	cc		 int	 3
  0000b	cc		 int	 3
  0000c	cc		 int	 3
__ehhandler$?ClearAskingPriceGShareFireFlag@CAskingPriceIndicatorAddInImp@@IAEXXZ:
  0000d	90		 npad	 1
  0000e	90		 npad	 1
  0000f	8b 54 24 08	 mov	 edx, DWORD PTR [esp+8]
  00013	8d 42 0c	 lea	 eax, DWORD PTR [edx+12]
  00016	8b 4a ec	 mov	 ecx, DWORD PTR [edx-20]
  00019	33 c8		 xor	 ecx, eax
  0001b	e8 00 00 00 00	 call	 @__security_check_cookie@4
  00020	b8 00 00 00 00	 mov	 eax, OFFSET __ehfuncinfo$?ClearAskingPriceGShareFireFlag@CAskingPriceIndicatorAddInImp@@IAEXXZ
  00025	e9 00 00 00 00	 jmp	 ___CxxFrameHandler3
text$x	ENDS
?ClearAskingPriceGShareFireFlag@CAskingPriceIndicatorAddInImp@@IAEXXZ ENDP ; CAskingPriceIndicatorAddInImp::ClearAskingPriceGShareFireFlag
; Function compile flags: /Ogtp
; File D:\git\src\IBK\IBK_DRFN\ProjSrc\SrcChartEx\ChartOCX\AddInManager\ChartCommonAddIn\AskingPriceIndicatorAddInImp.h
;	COMDAT ?GetRegisteredEventMap@CAskingPriceIndicatorAddInImp@@MBEPBW4EAddInEventType@IChartAddIn000000@@XZ
_TEXT	SEGMENT
?GetRegisteredEventMap@CAskingPriceIndicatorAddInImp@@MBEPBW4EAddInEventType@IChartAddIn000000@@XZ PROC ; CAskingPriceIndicatorAddInImp::GetRegisteredEventMap, COMDAT
; _this$ = ecx

; 138  : 	DECLARE_ADDIN_EVENT_MAP()

  00000	b8 00 00 00 00	 mov	 eax, OFFSET ?m_eRegisteredEventMap@CAskingPriceIndicatorAddInImp@@1QBW4EAddInEventType@IChartAddIn000000@@B ; CAskingPriceIndicatorAddInImp::m_eRegisteredEventMap
  00005	c3		 ret	 0
?GetRegisteredEventMap@CAskingPriceIndicatorAddInImp@@MBEPBW4EAddInEventType@IChartAddIn000000@@XZ ENDP ; CAskingPriceIndicatorAddInImp::GetRegisteredEventMap
_TEXT	ENDS
; Function compile flags: /Ogtp
; File D:\git\src\IBK\IBK_DRFN\ProjSrc\SrcChartEx\ChartOCX\AddInManager\ChartCommonAddIn\AskingPriceIndicatorAddInImp.cpp
;	COMDAT ??1CAskingPriceIndicatorAddInImp@@UAE@XZ
_TEXT	SEGMENT
??1CAskingPriceIndicatorAddInImp@@UAE@XZ PROC		; CAskingPriceIndicatorAddInImp::~CAskingPriceIndicatorAddInImp, COMDAT
; _this$ = ecx

; 55   : {

  00000	56		 push	 esi
  00001	8b f1		 mov	 esi, ecx

; 56   : 	// (2004.11.01, 배승원) 장구분과 호가산출 DLL을 관리하여, 호가 연동에 이용한다.
; 57   : 	if( m_hAskingPriceFixDLL)

  00003	8b 86 08 01 00
	00		 mov	 eax, DWORD PTR [esi+264]
  00009	c7 06 00 00 00
	00		 mov	 DWORD PTR [esi], OFFSET ??_7CAskingPriceIndicatorAddInImp@@6BCIWUnknown@@@
  0000f	c7 46 08 00 00
	00 00		 mov	 DWORD PTR [esi+8], OFFSET ??_7CAskingPriceIndicatorAddInImp@@6BIChartAddIn000000@@@
  00016	85 c0		 test	 eax, eax
  00018	74 11		 je	 SHORT $LN2@CAskingPri

; 58   : 	{
; 59   : 		FreeLibrary( m_hAskingPriceFixDLL);

  0001a	50		 push	 eax
  0001b	ff 15 00 00 00
	00		 call	 DWORD PTR __imp__FreeLibrary@4

; 60   : 		m_hAskingPriceFixDLL = NULL;

  00021	c7 86 08 01 00
	00 00 00 00 00	 mov	 DWORD PTR [esi+264], 0
$LN2@CAskingPri:

; 61   : 	}
; 62   : }

  0002b	8d 8e f0 00 00
	00		 lea	 ecx, DWORD PTR [esi+240]
  00031	ff 15 00 00 00
	00		 call	 DWORD PTR __imp_??1?$CStringT@DV?$StrTraitMFC_DLL@DV?$ChTraitsCRT@D@ATL@@@@@ATL@@QAE@XZ
  00037	8d 8e e4 00 00
	00		 lea	 ecx, DWORD PTR [esi+228]
  0003d	ff 15 00 00 00
	00		 call	 DWORD PTR __imp_??1?$CStringT@DV?$StrTraitMFC_DLL@DV?$ChTraitsCRT@D@ATL@@@@@ATL@@QAE@XZ
  00043	8b ce		 mov	 ecx, esi
  00045	5e		 pop	 esi
  00046	e9 00 00 00 00	 jmp	 ??1CBoundMarkerAddInImp@@UAE@XZ ; CBoundMarkerAddInImp::~CBoundMarkerAddInImp
??1CAskingPriceIndicatorAddInImp@@UAE@XZ ENDP		; CAskingPriceIndicatorAddInImp::~CAskingPriceIndicatorAddInImp
_TEXT	ENDS
; Function compile flags: /Ogtp
; File D:\git\src\IBK\IBK_DRFN\ProjSrc\SrcChartEx\ChartOCX\AddInManager\ChartCommonAddIn\AskingPriceIndicatorAddInImp.cpp
; File C:\Program Files (x86)\Microsoft Visual Studio\2019\Community\VC\Tools\MSVC\14.29.30133\atlmfc\include\atltypes.h
; File D:\git\src\IBK\IBK_DRFN\ProjSrc\SrcChartEx\ChartOCX\AddInManager\ChartCommonAddIn\AskingPriceIndicatorAddInImp.cpp
;	COMDAT ??0CAskingPriceIndicatorAddInImp@@QAE@PAUIChartOCX000000@@PAUIAddInDllBase@@@Z
_TEXT	SEGMENT
_this$ = -4						; size = 4
_p_pIChartOCX$ = 8					; size = 4
_p_pIAddInDllBase$ = 12					; size = 4
??0CAskingPriceIndicatorAddInImp@@QAE@PAUIChartOCX000000@@PAUIAddInDllBase@@@Z PROC ; CAskingPriceIndicatorAddInImp::CAskingPriceIndicatorAddInImp, COMDAT
; _this$ = ecx

; 30   : {

  00000	55		 push	 ebp
  00001	8b ec		 mov	 ebp, esp
  00003	51		 push	 ecx
  00004	56		 push	 esi
  00005	ff 75 0c	 push	 DWORD PTR _p_pIAddInDllBase$[ebp]
  00008	8b f1		 mov	 esi, ecx
  0000a	ff 75 08	 push	 DWORD PTR _p_pIChartOCX$[ebp]
  0000d	89 75 fc	 mov	 DWORD PTR _this$[ebp], esi
  00010	e8 00 00 00 00	 call	 ??0CBoundMarkerAddInImp@@QAE@PAUIChartOCX000000@@PAUIAddInDllBase@@@Z ; CBoundMarkerAddInImp::CBoundMarkerAddInImp
  00015	c7 06 00 00 00
	00		 mov	 DWORD PTR [esi], OFFSET ??_7CAskingPriceIndicatorAddInImp@@6BCIWUnknown@@@
  0001b	8d 8e e4 00 00
	00		 lea	 ecx, DWORD PTR [esi+228]
  00021	c7 46 08 00 00
	00 00		 mov	 DWORD PTR [esi+8], OFFSET ??_7CAskingPriceIndicatorAddInImp@@6BIChartAddIn000000@@@
; File C:\Program Files (x86)\Microsoft Visual Studio\2019\Community\VC\Tools\MSVC\14.29.30133\atlmfc\include\atltypes.h

; 528  : 	left = 0;

  00028	c7 86 c4 00 00
	00 00 00 00 00	 mov	 DWORD PTR [esi+196], 0

; 529  : 	top = 0;

  00032	c7 86 c8 00 00
	00 00 00 00 00	 mov	 DWORD PTR [esi+200], 0

; 530  : 	right = 0;

  0003c	c7 86 cc 00 00
	00 00 00 00 00	 mov	 DWORD PTR [esi+204], 0

; 531  : 	bottom = 0;

  00046	c7 86 d0 00 00
	00 00 00 00 00	 mov	 DWORD PTR [esi+208], 0
; File D:\git\src\IBK\IBK_DRFN\ProjSrc\SrcChartEx\ChartOCX\AddInManager\ChartCommonAddIn\AskingPriceIndicatorAddInImp.cpp

; 30   : {

  00050	ff 15 00 00 00
	00		 call	 DWORD PTR __imp_??0?$CStringT@DV?$StrTraitMFC_DLL@DV?$ChTraitsCRT@D@ATL@@@@@ATL@@QAE@XZ
  00056	8d 8e f0 00 00
	00		 lea	 ecx, DWORD PTR [esi+240]
  0005c	ff 15 00 00 00
	00		 call	 DWORD PTR __imp_??0?$CStringT@DV?$StrTraitMFC_DLL@DV?$ChTraitsCRT@D@ATL@@@@@ATL@@QAE@XZ
  00062	0f 57 c0	 xorps	 xmm0, xmm0

; 31   : 	// (2004.10.25, 배승원) 호가연동을 위한 Member Variable을 정의한다.
; 32   : 	m_nIndicatorPosY			= 0;				// Current Indicator Drawing Position			(IndicatorPosition)

  00065	c7 86 b8 00 00
	00 00 00 00 00	 mov	 DWORD PTR [esi+184], 0

; 33   : 	m_bOnSetCaprture			= FALSE;			// Indicator Drawing Situation Flag			(SetCaptureFlag)
; 34   : 	m_bOnFireAskingPriceGShare	= FALSE;			// Asking Price GShare Firing Flag			(AskingPriceGShareFireFlag)
; 35   : 	m_dIndicatedPrice			= 0.0;				// Indicated Price							(IndicatedPrice)
; 36   : 
; 37   : 	// (2004.10.25, 배승원) SetCapture()후, 현재 설정하는 Cursor를 관리하면서,
; 38   : 	//		ReleaseCapture()할 때까지 수시로 OCX에 Cursor를 설정한다.
; 39   : 	//		(다른 분석도구들이 수시로 설정을 해제하여 추가적인 설정이 잘 되지 않는다. 구조가 좀...)
; 40   : 	m_hAPCursor = NULL;
; 41   : 
; 42   : 	// (2004.10.26, 배승원) 호가의 정밀도(Precision)을 관리하여 호가 String의 생성에 참고하도록 한다.
; 43   : 	m_dPacketUnitValue = 0;
; 44   : 
; 45   : 	// (2004.11.01, 배승원) 장구분과 호가산출 DLL을 관리하여, 호가 연동에 이용한다.
; 46   : 	m_nMarketType	= -1;
; 47   : 	m_nRatioByYCP	= 0;			// (2004.11.02, 배승원) 대비율(등락률)인지 가격인지 Flag을 받아 관리한다.
; 48   : 	m_dYClosePrice	= 0;
; 49   : 	m_hAskingPriceFixDLL = LoadLibrary( "PriceUnit.dll");

  0006f	68 00 00 00 00	 push	 OFFSET ??_C@_0O@KJONPKHB@PriceUnit?4dll@
  00074	c7 86 bc 00 00
	00 00 00 00 00	 mov	 DWORD PTR [esi+188], 0
  0007e	c7 86 c0 00 00
	00 00 00 00 00	 mov	 DWORD PTR [esi+192], 0
  00088	f2 0f 11 86 d8
	00 00 00	 movsd	 QWORD PTR [esi+216], xmm0
  00090	c7 86 e0 00 00
	00 00 00 00 00	 mov	 DWORD PTR [esi+224], 0
  0009a	f2 0f 11 86 e8
	00 00 00	 movsd	 QWORD PTR [esi+232], xmm0
  000a2	c7 86 f4 00 00
	00 ff ff ff ff	 mov	 DWORD PTR [esi+244], -1
  000ac	c7 86 f8 00 00
	00 00 00 00 00	 mov	 DWORD PTR [esi+248], 0
  000b6	f2 0f 11 86 00
	01 00 00	 movsd	 QWORD PTR [esi+256], xmm0
  000be	ff 15 00 00 00
	00		 call	 DWORD PTR __imp__LoadLibraryA@4
  000c4	89 86 08 01 00
	00		 mov	 DWORD PTR [esi+264], eax

; 50   : 	if( m_hAskingPriceFixDLL) m_fnFnGetPriceUnit = ( FnGetPriceUnit)::GetProcAddress( m_hAskingPriceFixDLL, "__GetPriceUnit");

  000ca	85 c0		 test	 eax, eax
  000cc	74 1b		 je	 SHORT $LN2@CAskingPri
  000ce	68 00 00 00 00	 push	 OFFSET ??_C@_0P@NAILJLIK@__GetPriceUnit@
  000d3	50		 push	 eax
  000d4	ff 15 00 00 00
	00		 call	 DWORD PTR __imp__GetProcAddress@8

; 51   : 	else m_fnFnGetPriceUnit = NULL;
; 52   : }

  000da	89 86 0c 01 00
	00		 mov	 DWORD PTR [esi+268], eax
  000e0	8b c6		 mov	 eax, esi
  000e2	5e		 pop	 esi
  000e3	8b e5		 mov	 esp, ebp
  000e5	5d		 pop	 ebp
  000e6	c2 08 00	 ret	 8
$LN2@CAskingPri:
  000e9	c7 86 0c 01 00
	00 00 00 00 00	 mov	 DWORD PTR [esi+268], 0
  000f3	8b c6		 mov	 eax, esi
  000f5	5e		 pop	 esi
  000f6	8b e5		 mov	 esp, ebp
  000f8	5d		 pop	 ebp
  000f9	c2 08 00	 ret	 8
??0CAskingPriceIndicatorAddInImp@@QAE@PAUIChartOCX000000@@PAUIAddInDllBase@@@Z ENDP ; CAskingPriceIndicatorAddInImp::CAskingPriceIndicatorAddInImp
_TEXT	ENDS
; Function compile flags: /Ogtp
; File D:\git\src\IBK\IBK_DRFN\ProjSrc\SrcChartEx\ChartOCX\AddInManager\Include_AddIn\I000000\_ChartAddInBase.h
;	COMDAT ?OnRButtonDblClk@CChartAddInBase000000@@MAEHPAUHDC__@@IAAUtagPOINT@@K@Z
_TEXT	SEGMENT
_p_hDC$ = 8						; size = 4
_nFlags$ = 12						; size = 4
_point$ = 16						; size = 4
_p_dwMouseActionID$ = 20				; size = 4
?OnRButtonDblClk@CChartAddInBase000000@@MAEHPAUHDC__@@IAAUtagPOINT@@K@Z PROC ; CChartAddInBase000000::OnRButtonDblClk, COMDAT
; _this$ = ecx

; 221  : 	virtual BOOL	OnRButtonDblClk(	HDC p_hDC, UINT nFlags, POINT &point, const DWORD p_dwMouseActionID)									{	return FALSE;	}

  00000	33 c0		 xor	 eax, eax
  00002	c2 10 00	 ret	 16			; 00000010H
?OnRButtonDblClk@CChartAddInBase000000@@MAEHPAUHDC__@@IAAUtagPOINT@@K@Z ENDP ; CChartAddInBase000000::OnRButtonDblClk
_TEXT	ENDS
; Function compile flags: /Ogtp
; File D:\git\src\IBK\IBK_DRFN\ProjSrc\SrcChartEx\ChartOCX\AddInManager\Include_AddIn\I000000\_ChartAddInBase.h
;	COMDAT ?OnRButtonUp@CChartAddInBase000000@@MAEHPAUHDC__@@IAAUtagPOINT@@K@Z
_TEXT	SEGMENT
_p_hDC$ = 8						; size = 4
_nFlags$ = 12						; size = 4
_point$ = 16						; size = 4
_p_dwMouseActionID$ = 20				; size = 4
?OnRButtonUp@CChartAddInBase000000@@MAEHPAUHDC__@@IAAUtagPOINT@@K@Z PROC ; CChartAddInBase000000::OnRButtonUp, COMDAT
; _this$ = ecx

; 220  : 	virtual BOOL	OnRButtonUp(		HDC p_hDC, UINT nFlags, POINT &point, const DWORD p_dwMouseActionID)									{	return FALSE;	}

  00000	33 c0		 xor	 eax, eax
  00002	c2 10 00	 ret	 16			; 00000010H
?OnRButtonUp@CChartAddInBase000000@@MAEHPAUHDC__@@IAAUtagPOINT@@K@Z ENDP ; CChartAddInBase000000::OnRButtonUp
_TEXT	ENDS
; Function compile flags: /Ogtp
; File D:\git\src\IBK\IBK_DRFN\ProjSrc\SrcChartEx\ChartOCX\AddInManager\Include_AddIn\I000000\_ChartAddInBase.h
;	COMDAT ?OnRButtonDown@CChartAddInBase000000@@MAEHPAUHDC__@@IAAUtagPOINT@@K@Z
_TEXT	SEGMENT
_p_hDC$ = 8						; size = 4
_nFlags$ = 12						; size = 4
_point$ = 16						; size = 4
_p_dwMouseActionID$ = 20				; size = 4
?OnRButtonDown@CChartAddInBase000000@@MAEHPAUHDC__@@IAAUtagPOINT@@K@Z PROC ; CChartAddInBase000000::OnRButtonDown, COMDAT
; _this$ = ecx

; 219  : 	virtual BOOL	OnRButtonDown(		HDC p_hDC, UINT nFlags, POINT &point, const DWORD p_dwMouseActionID)									{	return FALSE;	}

  00000	33 c0		 xor	 eax, eax
  00002	c2 10 00	 ret	 16			; 00000010H
?OnRButtonDown@CChartAddInBase000000@@MAEHPAUHDC__@@IAAUtagPOINT@@K@Z ENDP ; CChartAddInBase000000::OnRButtonDown
_TEXT	ENDS
; Function compile flags: /Ogtp
; File D:\git\src\IBK\IBK_DRFN\ProjSrc\SrcChartEx\ChartOCX\AddInManager\Include_AddIn\I000000\_ChartAddInBase.h
;	COMDAT ?OnLButtonDblClk@CChartAddInBase000000@@MAEHPAUHDC__@@IAAUtagPOINT@@K@Z
_TEXT	SEGMENT
_p_hDC$ = 8						; size = 4
_nFlags$ = 12						; size = 4
_point$ = 16						; size = 4
_p_dwMouseActionID$ = 20				; size = 4
?OnLButtonDblClk@CChartAddInBase000000@@MAEHPAUHDC__@@IAAUtagPOINT@@K@Z PROC ; CChartAddInBase000000::OnLButtonDblClk, COMDAT
; _this$ = ecx

; 218  : 	virtual BOOL	OnLButtonDblClk(	HDC p_hDC, UINT nFlags, POINT &point, const DWORD p_dwMouseActionID)									{	return FALSE;	}

  00000	33 c0		 xor	 eax, eax
  00002	c2 10 00	 ret	 16			; 00000010H
?OnLButtonDblClk@CChartAddInBase000000@@MAEHPAUHDC__@@IAAUtagPOINT@@K@Z ENDP ; CChartAddInBase000000::OnLButtonDblClk
_TEXT	ENDS
; Function compile flags: /Ogtp
; File D:\git\src\IBK\IBK_DRFN\ProjSrc\SrcChartEx\ChartOCX\AddInManager\Include_AddIn\I000000\_ChartAddInBase.h
;	COMDAT ?OnMouseWheel@CChartAddInBase000000@@MAEHIFUtagPOINT@@K@Z
_TEXT	SEGMENT
_nFlags$ = 8						; size = 4
_zDelta$ = 12						; size = 2
_pt$ = 16						; size = 8
_p_dwMouseActionID$ = 24				; size = 4
?OnMouseWheel@CChartAddInBase000000@@MAEHIFUtagPOINT@@K@Z PROC ; CChartAddInBase000000::OnMouseWheel, COMDAT
; _this$ = ecx

; 214  : 	virtual BOOL	OnMouseWheel(		UINT nFlags, short zDelta, POINT pt, const DWORD p_dwMouseActionID)										{	return FALSE;	}

  00000	33 c0		 xor	 eax, eax
  00002	c2 14 00	 ret	 20			; 00000014H
?OnMouseWheel@CChartAddInBase000000@@MAEHIFUtagPOINT@@K@Z ENDP ; CChartAddInBase000000::OnMouseWheel
_TEXT	ENDS
; Function compile flags: /Ogtp
; File D:\git\src\IBK\IBK_DRFN\ProjSrc\SrcChartEx\ChartOCX\AddInManager\Include_AddIn\I000000\_ChartAddInBase.h
;	COMDAT ?OnKeyUp@CChartAddInBase000000@@MAEHIII@Z
_TEXT	SEGMENT
_nChar$ = 8						; size = 4
_nRepCnt$ = 12						; size = 4
_nFlags$ = 16						; size = 4
?OnKeyUp@CChartAddInBase000000@@MAEHIII@Z PROC		; CChartAddInBase000000::OnKeyUp, COMDAT
; _this$ = ecx

; 213  : 	virtual BOOL	OnKeyUp(			UINT nChar, UINT nRepCnt, UINT nFlags)																	{	return FALSE;	}

  00000	33 c0		 xor	 eax, eax
  00002	c2 0c 00	 ret	 12			; 0000000cH
?OnKeyUp@CChartAddInBase000000@@MAEHIII@Z ENDP		; CChartAddInBase000000::OnKeyUp
_TEXT	ENDS
; Function compile flags: /Ogtp
; File D:\git\src\IBK\IBK_DRFN\ProjSrc\SrcChartEx\ChartOCX\AddInManager\Include_AddIn\I000000\_ChartAddInBase.h
;	COMDAT ?OnKeyDown@CChartAddInBase000000@@MAEHIII@Z
_TEXT	SEGMENT
_nChar$ = 8						; size = 4
_nRepCnt$ = 12						; size = 4
_nFlags$ = 16						; size = 4
?OnKeyDown@CChartAddInBase000000@@MAEHIII@Z PROC	; CChartAddInBase000000::OnKeyDown, COMDAT
; _this$ = ecx

; 212  : 	virtual BOOL	OnKeyDown(			UINT nChar, UINT nRepCnt, UINT nFlags)																	{	return FALSE;	}

  00000	33 c0		 xor	 eax, eax
  00002	c2 0c 00	 ret	 12			; 0000000cH
?OnKeyDown@CChartAddInBase000000@@MAEHIII@Z ENDP	; CChartAddInBase000000::OnKeyDown
_TEXT	ENDS
; Function compile flags: /Ogtp
; File D:\git\src\IBK\IBK_DRFN\ProjSrc\SrcChartEx\ChartOCX\AddInManager\Include_AddIn\I000000\_ChartAddInBase.h
;	COMDAT ?OnAddInToolCommand@CChartAddInBase000000@@MAEHAAJW4EAICommandType@@JJ@Z
_TEXT	SEGMENT
_p_lResult$ = 8						; size = 4
_p_eCommandID$ = 12					; size = 4
_p_lParam1$ = 16					; size = 4
_p_lParam2$ = 20					; size = 4
?OnAddInToolCommand@CChartAddInBase000000@@MAEHAAJW4EAICommandType@@JJ@Z PROC ; CChartAddInBase000000::OnAddInToolCommand, COMDAT
; _this$ = ecx

; 210  : 	virtual BOOL	OnAddInToolCommand(	long &p_lResult, const EAICommandType p_eCommandID, const long p_lParam1, const long p_lParam2)			{	return FALSE;	}

  00000	33 c0		 xor	 eax, eax
  00002	c2 10 00	 ret	 16			; 00000010H
?OnAddInToolCommand@CChartAddInBase000000@@MAEHAAJW4EAICommandType@@JJ@Z ENDP ; CChartAddInBase000000::OnAddInToolCommand
_TEXT	ENDS
; Function compile flags: /Ogtp
; File D:\git\src\IBK\IBK_DRFN\ProjSrc\SrcChartEx\ChartOCX\AddInManager\Include_AddIn\I000000\_ChartAddInBase.h
;	COMDAT ?OnAddInToolCommand@CChartAddInBase000000@@MAEHAAJW4EAICommandType@@J@Z
_TEXT	SEGMENT
_p_lResult$ = 8						; size = 4
_p_eCommandID$ = 12					; size = 4
_p_lParam$ = 16						; size = 4
?OnAddInToolCommand@CChartAddInBase000000@@MAEHAAJW4EAICommandType@@J@Z PROC ; CChartAddInBase000000::OnAddInToolCommand, COMDAT
; _this$ = ecx

; 209  : 	virtual BOOL	OnAddInToolCommand(	long &p_lResult, const EAICommandType p_eCommandID, const long p_lParam)								{	return FALSE;	}

  00000	33 c0		 xor	 eax, eax
  00002	c2 0c 00	 ret	 12			; 0000000cH
?OnAddInToolCommand@CChartAddInBase000000@@MAEHAAJW4EAICommandType@@J@Z ENDP ; CChartAddInBase000000::OnAddInToolCommand
_TEXT	ENDS
; Function compile flags: /Ogtp
; File D:\git\src\IBK\IBK_DRFN\ProjSrc\SrcChartEx\ChartOCX\AddInManager\Include_AddIn\I000000\_ChartAddInBase.h
;	COMDAT ?OnAddInToolCommand@CChartAddInBase000000@@MAEHAAJW4EAICommandType@@PBDPAVCObject@@@Z
_TEXT	SEGMENT
_p_lResult$ = 8						; size = 4
_p_eCommandID$ = 12					; size = 4
_p_szParam$ = 16					; size = 4
_p_pParam$ = 20						; size = 4
?OnAddInToolCommand@CChartAddInBase000000@@MAEHAAJW4EAICommandType@@PBDPAVCObject@@@Z PROC ; CChartAddInBase000000::OnAddInToolCommand, COMDAT
; _this$ = ecx

; 208  : 	virtual BOOL	OnAddInToolCommand(	long &p_lResult, const EAICommandType p_eCommandID, const char *p_szParam, CObject *p_pParam)			{	return FALSE;	}

  00000	33 c0		 xor	 eax, eax
  00002	c2 10 00	 ret	 16			; 00000010H
?OnAddInToolCommand@CChartAddInBase000000@@MAEHAAJW4EAICommandType@@PBDPAVCObject@@@Z ENDP ; CChartAddInBase000000::OnAddInToolCommand
_TEXT	ENDS
; Function compile flags: /Ogtp
; File D:\git\src\IBK\IBK_DRFN\ProjSrc\SrcChartEx\ChartOCX\AddInManager\Include_AddIn\I000000\_ChartAddInBase.h
;	COMDAT ?OnAddInToolCommand@CChartAddInBase000000@@MAEHAAJW4EAICommandType@@PBD@Z
_TEXT	SEGMENT
_p_lResult$ = 8						; size = 4
_p_eCommandID$ = 12					; size = 4
_p_szParam$ = 16					; size = 4
?OnAddInToolCommand@CChartAddInBase000000@@MAEHAAJW4EAICommandType@@PBD@Z PROC ; CChartAddInBase000000::OnAddInToolCommand, COMDAT
; _this$ = ecx

; 207  : 	virtual BOOL	OnAddInToolCommand(	long &p_lResult, const EAICommandType p_eCommandID, const char *p_szParam)								{	return FALSE;	}

  00000	33 c0		 xor	 eax, eax
  00002	c2 0c 00	 ret	 12			; 0000000cH
?OnAddInToolCommand@CChartAddInBase000000@@MAEHAAJW4EAICommandType@@PBD@Z ENDP ; CChartAddInBase000000::OnAddInToolCommand
_TEXT	ENDS
; Function compile flags: /Ogtp
; File D:\git\src\IBK\IBK_DRFN\ProjSrc\SrcChartEx\ChartOCX\AddInManager\Include_AddIn\I000000\_ChartAddInBase.h
;	COMDAT ?OnAddInToolCommand@CChartAddInBase000000@@MAEHAAJW4EAICommandType@@PAUIGraphInfo000000@@@Z
_TEXT	SEGMENT
_p_lResult$ = 8						; size = 4
_p_eCommandID$ = 12					; size = 4
_p_pIGraphInfo$ = 16					; size = 4
?OnAddInToolCommand@CChartAddInBase000000@@MAEHAAJW4EAICommandType@@PAUIGraphInfo000000@@@Z PROC ; CChartAddInBase000000::OnAddInToolCommand, COMDAT
; _this$ = ecx

; 206  : 	virtual BOOL	OnAddInToolCommand(	long &p_lResult, const EAICommandType p_eCommandID, IGraphInfo *p_pIGraphInfo)							{	return FALSE;	}

  00000	33 c0		 xor	 eax, eax
  00002	c2 0c 00	 ret	 12			; 0000000cH
?OnAddInToolCommand@CChartAddInBase000000@@MAEHAAJW4EAICommandType@@PAUIGraphInfo000000@@@Z ENDP ; CChartAddInBase000000::OnAddInToolCommand
_TEXT	ENDS
; Function compile flags: /Ogtp
; File D:\git\src\IBK\IBK_DRFN\ProjSrc\SrcChartEx\ChartOCX\AddInManager\Include_AddIn\I000000\_ChartAddInBase.h
;	COMDAT ?OnAddInToolCommand@CChartAddInBase000000@@MAEHW4EAICommandType@@JJJJJJJJJ@Z
_TEXT	SEGMENT
_p_eCommandID$ = 8					; size = 4
_p_lParam1$ = 12					; size = 4
_p_lParam2$ = 16					; size = 4
_p_lParam3$ = 20					; size = 4
_p_lParam4$ = 24					; size = 4
_p_lParam5$ = 28					; size = 4
_p_lParam6$ = 32					; size = 4
_p_lParam7$ = 36					; size = 4
_p_lParam8$ = 40					; size = 4
_p_lParam9$ = 44					; size = 4
?OnAddInToolCommand@CChartAddInBase000000@@MAEHW4EAICommandType@@JJJJJJJJJ@Z PROC ; CChartAddInBase000000::OnAddInToolCommand, COMDAT
; _this$ = ecx

; 204  : 	virtual BOOL	OnAddInToolCommand(	const EAICommandType p_eCommandID, const long p_lParam1, const long p_lParam2, const long p_lParam3, const long p_lParam4, const long p_lParam5, const long p_lParam6, const long p_lParam7, const long p_lParam8, const long p_lParam9)	{	return FALSE;	}

  00000	33 c0		 xor	 eax, eax
  00002	c2 28 00	 ret	 40			; 00000028H
?OnAddInToolCommand@CChartAddInBase000000@@MAEHW4EAICommandType@@JJJJJJJJJ@Z ENDP ; CChartAddInBase000000::OnAddInToolCommand
_TEXT	ENDS
; Function compile flags: /Ogtp
; File D:\git\src\IBK\IBK_DRFN\ProjSrc\SrcChartEx\ChartOCX\AddInManager\Include_AddIn\I000000\_ChartAddInBase.h
;	COMDAT ?OnAddInToolCommand@CChartAddInBase000000@@MAEHW4EAICommandType@@JJ@Z
_TEXT	SEGMENT
_p_eCommandID$ = 8					; size = 4
_p_lParam1$ = 12					; size = 4
_p_lParam2$ = 16					; size = 4
?OnAddInToolCommand@CChartAddInBase000000@@MAEHW4EAICommandType@@JJ@Z PROC ; CChartAddInBase000000::OnAddInToolCommand, COMDAT
; _this$ = ecx

; 203  : 	virtual BOOL	OnAddInToolCommand(	const EAICommandType p_eCommandID, const long p_lParam1, const long p_lParam2)							{	return FALSE;	}

  00000	33 c0		 xor	 eax, eax
  00002	c2 0c 00	 ret	 12			; 0000000cH
?OnAddInToolCommand@CChartAddInBase000000@@MAEHW4EAICommandType@@JJ@Z ENDP ; CChartAddInBase000000::OnAddInToolCommand
_TEXT	ENDS
; Function compile flags: /Ogtp
; File D:\git\src\IBK\IBK_DRFN\ProjSrc\SrcChartEx\ChartOCX\AddInManager\Include_AddIn\I000000\_ChartAddInBase.h
;	COMDAT ?OnAddInToolCommand@CChartAddInBase000000@@MAEHW4EAICommandType@@JPBD11@Z
_TEXT	SEGMENT
_p_eCommandID$ = 8					; size = 4
_p_lParam$ = 12						; size = 4
_p_szParam1$ = 16					; size = 4
_p_szParam2$ = 20					; size = 4
_p_szParam3$ = 24					; size = 4
?OnAddInToolCommand@CChartAddInBase000000@@MAEHW4EAICommandType@@JPBD11@Z PROC ; CChartAddInBase000000::OnAddInToolCommand, COMDAT
; _this$ = ecx

; 202  : 	virtual BOOL	OnAddInToolCommand( const EAICommandType p_eCommandID, const long p_lParam, const char *p_szParam1, const char *p_szParam2, const char *p_szParam3)	{	return FALSE;	}

  00000	33 c0		 xor	 eax, eax
  00002	c2 14 00	 ret	 20			; 00000014H
?OnAddInToolCommand@CChartAddInBase000000@@MAEHW4EAICommandType@@JPBD11@Z ENDP ; CChartAddInBase000000::OnAddInToolCommand
_TEXT	ENDS
; Function compile flags: /Ogtp
; File D:\git\src\IBK\IBK_DRFN\ProjSrc\SrcChartEx\ChartOCX\AddInManager\Include_AddIn\I000000\_ChartAddInBase.h
;	COMDAT ?OnAddInToolCommand@CChartAddInBase000000@@MAEHW4EAICommandType@@JPBD@Z
_TEXT	SEGMENT
_p_eCommandID$ = 8					; size = 4
_p_lParam$ = 12						; size = 4
_p_szParam$ = 16					; size = 4
?OnAddInToolCommand@CChartAddInBase000000@@MAEHW4EAICommandType@@JPBD@Z PROC ; CChartAddInBase000000::OnAddInToolCommand, COMDAT
; _this$ = ecx

; 201  : 	virtual BOOL	OnAddInToolCommand( const EAICommandType p_eCommandID, const long p_lParam, const char *p_szParam)							{	return FALSE;	}

  00000	33 c0		 xor	 eax, eax
  00002	c2 0c 00	 ret	 12			; 0000000cH
?OnAddInToolCommand@CChartAddInBase000000@@MAEHW4EAICommandType@@JPBD@Z ENDP ; CChartAddInBase000000::OnAddInToolCommand
_TEXT	ENDS
; Function compile flags: /Ogtp
; File D:\git\src\IBK\IBK_DRFN\ProjSrc\SrcChartEx\ChartOCX\AddInManager\Include_AddIn\I000000\_ChartAddInBase.h
;	COMDAT ?OnAddInToolCommand@CChartAddInBase000000@@MAEHW4EAICommandType@@PBUIAddInDllBase@@@Z
_TEXT	SEGMENT
_p_eCommandID$ = 8					; size = 4
_p_pParam$ = 12						; size = 4
?OnAddInToolCommand@CChartAddInBase000000@@MAEHW4EAICommandType@@PBUIAddInDllBase@@@Z PROC ; CChartAddInBase000000::OnAddInToolCommand, COMDAT
; _this$ = ecx

; 199  : 	virtual BOOL	OnAddInToolCommand(	const EAICommandType p_eCommandID, const IAddInDllBase *p_pParam)										{	return FALSE;	}

  00000	33 c0		 xor	 eax, eax
  00002	c2 08 00	 ret	 8
?OnAddInToolCommand@CChartAddInBase000000@@MAEHW4EAICommandType@@PBUIAddInDllBase@@@Z ENDP ; CChartAddInBase000000::OnAddInToolCommand
_TEXT	ENDS
; Function compile flags: /Ogtp
; File D:\git\src\IBK\IBK_DRFN\ProjSrc\SrcChartEx\ChartOCX\AddInManager\Include_AddIn\I000000\_ChartAddInBase.h
;	COMDAT ?OnAddInToolCommand@CChartAddInBase000000@@MAEHW4EAICommandType@@PBDJ@Z
_TEXT	SEGMENT
_p_eCommandID$ = 8					; size = 4
_p_szParam$ = 12					; size = 4
_p_lParam$ = 16						; size = 4
?OnAddInToolCommand@CChartAddInBase000000@@MAEHW4EAICommandType@@PBDJ@Z PROC ; CChartAddInBase000000::OnAddInToolCommand, COMDAT
; _this$ = ecx

; 198  : 	virtual BOOL	OnAddInToolCommand( const EAICommandType p_eCommandID, const char *p_szParam, const long p_lParam)							{	return FALSE;	}

  00000	33 c0		 xor	 eax, eax
  00002	c2 0c 00	 ret	 12			; 0000000cH
?OnAddInToolCommand@CChartAddInBase000000@@MAEHW4EAICommandType@@PBDJ@Z ENDP ; CChartAddInBase000000::OnAddInToolCommand
_TEXT	ENDS
; Function compile flags: /Ogtp
; File D:\git\src\IBK\IBK_DRFN\ProjSrc\SrcChartEx\ChartOCX\AddInManager\Include_AddIn\I000000\_ChartAddInBase.h
;	COMDAT ?OnAddInToolCommand@CChartAddInBase000000@@MAEHW4EAICommandType@@PBD1@Z
_TEXT	SEGMENT
_p_eCommandID$ = 8					; size = 4
_p_szParam1$ = 12					; size = 4
_p_szParam2$ = 16					; size = 4
?OnAddInToolCommand@CChartAddInBase000000@@MAEHW4EAICommandType@@PBD1@Z PROC ; CChartAddInBase000000::OnAddInToolCommand, COMDAT
; _this$ = ecx

; 197  : 	virtual BOOL	OnAddInToolCommand(	const EAICommandType p_eCommandID, const char *p_szParam1, const char *p_szParam2)						{	return FALSE;	}

  00000	33 c0		 xor	 eax, eax
  00002	c2 0c 00	 ret	 12			; 0000000cH
?OnAddInToolCommand@CChartAddInBase000000@@MAEHW4EAICommandType@@PBD1@Z ENDP ; CChartAddInBase000000::OnAddInToolCommand
_TEXT	ENDS
; Function compile flags: /Ogtp
; File D:\git\src\IBK\IBK_DRFN\ProjSrc\SrcChartEx\ChartOCX\AddInManager\Include_AddIn\I000000\_ChartAddInBase.h
;	COMDAT ?OnAddInToolCommand@CChartAddInBase000000@@MAEHW4EAICommandType@@PBD@Z
_TEXT	SEGMENT
_p_eCommandID$ = 8					; size = 4
_p_szParam$ = 12					; size = 4
?OnAddInToolCommand@CChartAddInBase000000@@MAEHW4EAICommandType@@PBD@Z PROC ; CChartAddInBase000000::OnAddInToolCommand, COMDAT
; _this$ = ecx

; 196  : 	virtual BOOL	OnAddInToolCommand(	const EAICommandType p_eCommandID, const char *p_szParam)												{	return FALSE;	}

  00000	33 c0		 xor	 eax, eax
  00002	c2 08 00	 ret	 8
?OnAddInToolCommand@CChartAddInBase000000@@MAEHW4EAICommandType@@PBD@Z ENDP ; CChartAddInBase000000::OnAddInToolCommand
_TEXT	ENDS
; Function compile flags: /Ogtp
; File D:\git\src\IBK\IBK_DRFN\ProjSrc\SrcChartEx\ChartOCX\AddInManager\Include_AddIn\I000000\_ChartAddInBase.h
;	COMDAT ?OnAddInToolCommand@CChartAddInBase000000@@MAEHW4EAICommandType@@PAUHDC__@@IAAUtagPOINT@@K@Z
_TEXT	SEGMENT
_p_eCommandID$ = 8					; size = 4
_p_hDC$ = 12						; size = 4
_nFlags$ = 16						; size = 4
_point$ = 20						; size = 4
_p_dwMouseActionID$ = 24				; size = 4
?OnAddInToolCommand@CChartAddInBase000000@@MAEHW4EAICommandType@@PAUHDC__@@IAAUtagPOINT@@K@Z PROC ; CChartAddInBase000000::OnAddInToolCommand, COMDAT
; _this$ = ecx

; 195  : 	virtual BOOL	OnAddInToolCommand(	const EAICommandType p_eCommandID, HDC p_hDC, UINT nFlags, POINT &point, const DWORD p_dwMouseActionID)	{	return FALSE;	}

  00000	33 c0		 xor	 eax, eax
  00002	c2 14 00	 ret	 20			; 00000014H
?OnAddInToolCommand@CChartAddInBase000000@@MAEHW4EAICommandType@@PAUHDC__@@IAAUtagPOINT@@K@Z ENDP ; CChartAddInBase000000::OnAddInToolCommand
_TEXT	ENDS
; Function compile flags: /Ogtp
; File D:\git\src\IBK\IBK_DRFN\ProjSrc\SrcChartEx\ChartOCX\AddInManager\Include_AddIn\I000000\_ChartAddInBase.h
;	COMDAT ?OnAddInToolCommand@CChartAddInBase000000@@MAEHW4EAICommandType@@@Z
_TEXT	SEGMENT
_p_eCommandID$ = 8					; size = 4
?OnAddInToolCommand@CChartAddInBase000000@@MAEHW4EAICommandType@@@Z PROC ; CChartAddInBase000000::OnAddInToolCommand, COMDAT
; _this$ = ecx

; 194  : 	virtual BOOL	OnAddInToolCommand(	const EAICommandType p_eCommandID)																		{	return FALSE;	}

  00000	33 c0		 xor	 eax, eax
  00002	c2 04 00	 ret	 4
?OnAddInToolCommand@CChartAddInBase000000@@MAEHW4EAICommandType@@@Z ENDP ; CChartAddInBase000000::OnAddInToolCommand
_TEXT	ENDS
; Function compile flags: /Ogtp
; File D:\git\src\IBK\IBK_DRFN\ProjSrc\SrcChartEx\ChartOCX\AddInManager\Include_AddIn\I000000\_ChartAddInBase.h
;	COMDAT ?OnAddInMsg@CChartAddInBase000000@@MAEHPBDJ@Z
_TEXT	SEGMENT
_p_szAddInItemName$ = 8					; size = 4
_p_lParam$ = 12						; size = 4
?OnAddInMsg@CChartAddInBase000000@@MAEHPBDJ@Z PROC	; CChartAddInBase000000::OnAddInMsg, COMDAT
; _this$ = ecx

; 193  : 	virtual BOOL	OnAddInMsg(			const char *p_szAddInItemName, const long p_lParam)														{	return FALSE;	}

  00000	33 c0		 xor	 eax, eax
  00002	c2 08 00	 ret	 8
?OnAddInMsg@CChartAddInBase000000@@MAEHPBDJ@Z ENDP	; CChartAddInBase000000::OnAddInMsg
_TEXT	ENDS
; Function compile flags: /Ogtp
; File D:\git\src\IBK\IBK_DRFN\ProjSrc\SrcChartEx\ChartOCX\AddInManager\Include_AddIn\I000000\_ChartAddInBase.h
;	COMDAT ?OnCmdMsg@CChartAddInBase000000@@MAEHIHPAUICmdUI000000@@@Z
_TEXT	SEGMENT
_nID$ = 8						; size = 4
_nCode$ = 12						; size = 4
_p_pICmdUI$ = 16					; size = 4
?OnCmdMsg@CChartAddInBase000000@@MAEHIHPAUICmdUI000000@@@Z PROC ; CChartAddInBase000000::OnCmdMsg, COMDAT
; _this$ = ecx

; 192  : 	virtual BOOL	OnCmdMsg(			UINT nID, int nCode, ICmdUI *p_pICmdUI)																	{	return FALSE;	}

  00000	33 c0		 xor	 eax, eax
  00002	c2 0c 00	 ret	 12			; 0000000cH
?OnCmdMsg@CChartAddInBase000000@@MAEHIHPAUICmdUI000000@@@Z ENDP ; CChartAddInBase000000::OnCmdMsg
_TEXT	ENDS
; Function compile flags: /Ogtp
; File D:\git\src\IBK\IBK_DRFN\ProjSrc\SrcChartEx\ChartOCX\AddInManager\Include_AddIn\I000000\_ChartAddInBase.h
;	COMDAT ?OnPreNMTRClock@CChartAddInBase000000@@MAEHAA_J@Z
_TEXT	SEGMENT
_p_nRealClockSecs$ = 8					; size = 4
?OnPreNMTRClock@CChartAddInBase000000@@MAEHAA_J@Z PROC	; CChartAddInBase000000::OnPreNMTRClock, COMDAT
; _this$ = ecx

; 186  : 	virtual BOOL	OnPreNMTRClock( __int64 &p_nRealClockSecs)																		{	return TRUE;	}

  00000	b8 01 00 00 00	 mov	 eax, 1
  00005	c2 04 00	 ret	 4
?OnPreNMTRClock@CChartAddInBase000000@@MAEHAA_J@Z ENDP	; CChartAddInBase000000::OnPreNMTRClock
_TEXT	ENDS
; Function compile flags: /Ogtp
; File D:\git\src\IBK\IBK_DRFN\ProjSrc\SrcChartEx\ChartOCX\AddInManager\Include_AddIn\I000000\_ChartAddInBase.h
;	COMDAT ?OnPreRealPacketEnd@CChartAddInBase000000@@MAEHPBDH@Z
_TEXT	SEGMENT
_p_szRQ$ = 8						; size = 4
_p_bRealData$ = 12					; size = 4
?OnPreRealPacketEnd@CChartAddInBase000000@@MAEHPBDH@Z PROC ; CChartAddInBase000000::OnPreRealPacketEnd, COMDAT
; _this$ = ecx

; 185  : 	virtual BOOL	OnPreRealPacketEnd( const char *p_szRQ = NULL, BOOL p_bRealData = TRUE)											{	return TRUE;	}

  00000	b8 01 00 00 00	 mov	 eax, 1
  00005	c2 08 00	 ret	 8
?OnPreRealPacketEnd@CChartAddInBase000000@@MAEHPBDH@Z ENDP ; CChartAddInBase000000::OnPreRealPacketEnd
_TEXT	ENDS
; Function compile flags: /Ogtp
; File D:\git\src\IBK\IBK_DRFN\ProjSrc\SrcChartEx\ChartOCX\AddInManager\Include_AddIn\I000000\_ChartAddInBase.h
;	COMDAT ?OnPreIndexedRealData@CChartAddInBase000000@@MAEHPBDHAANH@Z
_TEXT	SEGMENT
_p_szPacketName$ = 8					; size = 4
_p_nIndex$ = 12						; size = 4
_p_dData$ = 16						; size = 4
_p_bRealData$ = 20					; size = 4
?OnPreIndexedRealData@CChartAddInBase000000@@MAEHPBDHAANH@Z PROC ; CChartAddInBase000000::OnPreIndexedRealData, COMDAT
; _this$ = ecx

; 184  : 	virtual BOOL	OnPreIndexedRealData( const char *p_szPacketName, const int p_nIndex, double &p_dData, BOOL p_bRealData = TRUE)	{	return TRUE;	}

  00000	b8 01 00 00 00	 mov	 eax, 1
  00005	c2 10 00	 ret	 16			; 00000010H
?OnPreIndexedRealData@CChartAddInBase000000@@MAEHPBDHAANH@Z ENDP ; CChartAddInBase000000::OnPreIndexedRealData
_TEXT	ENDS
; Function compile flags: /Ogtp
; File D:\git\src\IBK\IBK_DRFN\ProjSrc\SrcChartEx\ChartOCX\AddInManager\Include_AddIn\I000000\_ChartAddInBase.h
;	COMDAT ?OnPreRealData@CChartAddInBase000000@@MAEHPBDAAN0H@Z
_TEXT	SEGMENT
_p_szPacketName$ = 8					; size = 4
_p_dData$ = 12						; size = 4
_p_szRQ$ = 16						; size = 4
_p_bRealData$ = 20					; size = 4
?OnPreRealData@CChartAddInBase000000@@MAEHPBDAAN0H@Z PROC ; CChartAddInBase000000::OnPreRealData, COMDAT
; _this$ = ecx

; 183  : 	virtual BOOL	OnPreRealData( const char *p_szPacketName, double &p_dData, const char *p_szRQ = NULL, BOOL p_bRealData = TRUE)	{	return TRUE;	}

  00000	b8 01 00 00 00	 mov	 eax, 1
  00005	c2 10 00	 ret	 16			; 00000010H
?OnPreRealData@CChartAddInBase000000@@MAEHPBDAAN0H@Z ENDP ; CChartAddInBase000000::OnPreRealData
_TEXT	ENDS
; Function compile flags: /Ogtp
; File D:\git\src\IBK\IBK_DRFN\ProjSrc\SrcChartEx\ChartOCX\AddInManager\Include_AddIn\I000000\_ChartAddInBase.h
;	COMDAT ?OnRecalculationComplete@CChartAddInBase000000@@MAEXXZ
_TEXT	SEGMENT
?OnRecalculationComplete@CChartAddInBase000000@@MAEXXZ PROC ; CChartAddInBase000000::OnRecalculationComplete, COMDAT
; _this$ = ecx

; 179  : 	virtual void	OnRecalculationComplete( void)						{}

  00000	c2 00 00	 ret	 0
?OnRecalculationComplete@CChartAddInBase000000@@MAEXXZ ENDP ; CChartAddInBase000000::OnRecalculationComplete
_TEXT	ENDS
; Function compile flags: /Ogtp
; File D:\git\src\IBK\IBK_DRFN\ProjSrc\SrcChartEx\ChartOCX\AddInManager\Include_AddIn\I000000\_ChartAddInBase.h
;	COMDAT ?OnRealPacketEnd@CChartAddInBase000000@@MAEXPBD@Z
_TEXT	SEGMENT
_p_szRQ$ = 8						; size = 4
?OnRealPacketEnd@CChartAddInBase000000@@MAEXPBD@Z PROC	; CChartAddInBase000000::OnRealPacketEnd, COMDAT
; _this$ = ecx

; 172  : 	virtual void	OnRealPacketEnd( const char *p_szRQ)								{}

  00000	c2 04 00	 ret	 4
?OnRealPacketEnd@CChartAddInBase000000@@MAEXPBD@Z ENDP	; CChartAddInBase000000::OnRealPacketEnd
_TEXT	ENDS
; Function compile flags: /Ogtp
; File D:\git\src\IBK\IBK_DRFN\ProjSrc\SrcChartEx\ChartOCX\AddInManager\Include_AddIn\I000000\_ChartAddInBase.h
;	COMDAT ?OnIndexedRealData@CChartAddInBase000000@@MAEXPBDHN@Z
_TEXT	SEGMENT
_p_szPacketName$ = 8					; size = 4
_p_nIndex$ = 12						; size = 4
_p_dData$ = 16						; size = 8
?OnIndexedRealData@CChartAddInBase000000@@MAEXPBDHN@Z PROC ; CChartAddInBase000000::OnIndexedRealData, COMDAT
; _this$ = ecx

; 170  : 	virtual void	OnIndexedRealData( const char *p_szPacketName, const int p_nIndex, double p_dData)		{}

  00000	c2 10 00	 ret	 16			; 00000010H
?OnIndexedRealData@CChartAddInBase000000@@MAEXPBDHN@Z ENDP ; CChartAddInBase000000::OnIndexedRealData
_TEXT	ENDS
; Function compile flags: /Ogtp
; File D:\git\src\IBK\IBK_DRFN\ProjSrc\SrcChartEx\ChartOCX\AddInManager\Include_AddIn\I000000\_ChartAddInBase.h
;	COMDAT ?OnRealData@CChartAddInBase000000@@MAEXPBDN0@Z
_TEXT	SEGMENT
_p_szPacketName$ = 8					; size = 4
_p_dData$ = 12						; size = 8
_p_szRQ$ = 20						; size = 4
?OnRealData@CChartAddInBase000000@@MAEXPBDN0@Z PROC	; CChartAddInBase000000::OnRealData, COMDAT
; _this$ = ecx

; 169  : 	virtual void	OnRealData( const char *p_szPacketName, double p_dData, const char *p_szRQ)			{}

  00000	c2 10 00	 ret	 16			; 00000010H
?OnRealData@CChartAddInBase000000@@MAEXPBDN0@Z ENDP	; CChartAddInBase000000::OnRealData
_TEXT	ENDS
; Function compile flags: /Ogtp
; File D:\git\src\IBK\IBK_DRFN\ProjSrc\SrcChartEx\ChartOCX\AddInManager\Include_AddIn\I000000\_ChartAddInBase.h
;	COMDAT ?OnToolCommand@CChartAddInBase000000@@MAEXHH@Z
_TEXT	SEGMENT
_p_nToolType$ = 8					; size = 4
_p_nCmdOption$ = 12					; size = 4
?OnToolCommand@CChartAddInBase000000@@MAEXHH@Z PROC	; CChartAddInBase000000::OnToolCommand, COMDAT
; _this$ = ecx

; 167  : 	virtual void	OnToolCommand( const int p_nToolType, const int p_nCmdOption)	{}

  00000	c2 08 00	 ret	 8
?OnToolCommand@CChartAddInBase000000@@MAEXHH@Z ENDP	; CChartAddInBase000000::OnToolCommand
_TEXT	ENDS
; Function compile flags: /Ogtp
; File D:\git\src\IBK\IBK_DRFN\ProjSrc\SrcChartEx\ChartOCX\AddInManager\Include_AddIn\I000000\_ChartAddInBase.h
;	COMDAT ?OnBlockChanged@CChartAddInBase000000@@MAEXW4BLOCKBEHAVIOR@CBlockBaseData@@HHHH@Z
_TEXT	SEGMENT
_p_eChangeType$ = 8					; size = 4
_p_nSourceRow$ = 12					; size = 4
_p_nSourceColumn$ = 16					; size = 4
_p_nTargetRow$ = 20					; size = 4
_p_nTargetColumn$ = 24					; size = 4
?OnBlockChanged@CChartAddInBase000000@@MAEXW4BLOCKBEHAVIOR@CBlockBaseData@@HHHH@Z PROC ; CChartAddInBase000000::OnBlockChanged, COMDAT
; _this$ = ecx

; 165  : 	virtual void	OnBlockChanged( const CBlockBaseData::BLOCKBEHAVIOR p_eChangeType, const int p_nSourceRow, const int p_nSourceColumn, const int p_nTargetRow, const int p_nTargetColumn)	{}

  00000	c2 14 00	 ret	 20			; 00000014H
?OnBlockChanged@CChartAddInBase000000@@MAEXW4BLOCKBEHAVIOR@CBlockBaseData@@HHHH@Z ENDP ; CChartAddInBase000000::OnBlockChanged
_TEXT	ENDS
; Function compile flags: /Ogtp
; File D:\git\src\IBK\IBK_DRFN\ProjSrc\SrcChartEx\ChartOCX\AddInManager\Include_AddIn\I000000\_ChartAddInBase.h
;	COMDAT ?OnPacketTruncated@CChartAddInBase000000@@MAEXH@Z
_TEXT	SEGMENT
_p_nDataCount$ = 8					; size = 4
?OnPacketTruncated@CChartAddInBase000000@@MAEXH@Z PROC	; CChartAddInBase000000::OnPacketTruncated, COMDAT
; _this$ = ecx

; 163  : 	virtual void	OnPacketTruncated( const int p_nDataCount)			{}

  00000	c2 04 00	 ret	 4
?OnPacketTruncated@CChartAddInBase000000@@MAEXH@Z ENDP	; CChartAddInBase000000::OnPacketTruncated
_TEXT	ENDS
; Function compile flags: /Ogtp
; File D:\git\src\IBK\IBK_DRFN\ProjSrc\SrcChartEx\ChartOCX\AddInManager\Include_AddIn\I000000\_ChartAddInBase.h
;	COMDAT ?OnGraphDeleted@CChartAddInBase000000@@MAEXPBD0@Z
_TEXT	SEGMENT
_p_szGraphName$ = 8					; size = 4
_p_szIndicatorName$ = 12				; size = 4
?OnGraphDeleted@CChartAddInBase000000@@MAEXPBD0@Z PROC	; CChartAddInBase000000::OnGraphDeleted, COMDAT
; _this$ = ecx

; 161  : 	virtual void	OnGraphDeleted( const char *p_szGraphName, const char *p_szIndicatorName)			{}

  00000	c2 08 00	 ret	 8
?OnGraphDeleted@CChartAddInBase000000@@MAEXPBD0@Z ENDP	; CChartAddInBase000000::OnGraphDeleted
_TEXT	ENDS
; Function compile flags: /Ogtp
; File D:\git\src\IBK\IBK_DRFN\ProjSrc\SrcChartEx\ChartOCX\AddInManager\Include_AddIn\I000000\_ChartAddInBase.h
;	COMDAT ?OnContextMenu@CChartAddInBase000000@@MAEXPAUHWND__@@AAUtagPOINT@@@Z
_TEXT	SEGMENT
_p_hWnd$ = 8						; size = 4
_p_pt$ = 12						; size = 4
?OnContextMenu@CChartAddInBase000000@@MAEXPAUHWND__@@AAUtagPOINT@@@Z PROC ; CChartAddInBase000000::OnContextMenu, COMDAT
; _this$ = ecx

; 159  : 	virtual void	OnContextMenu( HWND p_hWnd, POINT &p_pt)			{}

  00000	c2 08 00	 ret	 8
?OnContextMenu@CChartAddInBase000000@@MAEXPAUHWND__@@AAUtagPOINT@@@Z ENDP ; CChartAddInBase000000::OnContextMenu
_TEXT	ENDS
; Function compile flags: /Ogtp
; File D:\git\src\IBK\IBK_DRFN\ProjSrc\SrcChartEx\ChartOCX\AddInManager\Include_AddIn\I000000\_ChartAddInBase.h
;	COMDAT ?OnManualRealData@CChartAddInBase000000@@MAEXPBDNH@Z
_TEXT	SEGMENT
_p_szPacketName$ = 8					; size = 4
_p_dData$ = 12						; size = 8
_p_nOption$ = 20					; size = 4
?OnManualRealData@CChartAddInBase000000@@MAEXPBDNH@Z PROC ; CChartAddInBase000000::OnManualRealData, COMDAT
; _this$ = ecx

; 157  : 	virtual void	OnManualRealData( const char *p_szPacketName, const double p_dData, const int p_nOption)	{}

  00000	c2 10 00	 ret	 16			; 00000010H
?OnManualRealData@CChartAddInBase000000@@MAEXPBDNH@Z ENDP ; CChartAddInBase000000::OnManualRealData
_TEXT	ENDS
; Function compile flags: /Ogtp
; File D:\git\src\IBK\IBK_DRFN\ProjSrc\SrcChartEx\ChartOCX\AddInManager\Include_AddIn\I000000\_ChartAddInBase.h
;	COMDAT ?OnGraphAdded@CChartAddInBase000000@@MAEXPBD0@Z
_TEXT	SEGMENT
_p_szGraphName$ = 8					; size = 4
_p_szIndicatorName$ = 12				; size = 4
?OnGraphAdded@CChartAddInBase000000@@MAEXPBD0@Z PROC	; CChartAddInBase000000::OnGraphAdded, COMDAT
; _this$ = ecx

; 155  : 	virtual void	OnGraphAdded( const char *p_szGraphName, const char *p_szIndicatorName)			{}

  00000	c2 08 00	 ret	 8
?OnGraphAdded@CChartAddInBase000000@@MAEXPBD0@Z ENDP	; CChartAddInBase000000::OnGraphAdded
_TEXT	ENDS
; Function compile flags: /Ogtp
; File D:\git\src\IBK\IBK_DRFN\ProjSrc\SrcChartEx\ChartOCX\AddInManager\Include_AddIn\I000000\_ChartAddInBase.h
;	COMDAT ?OnBlockRemoved@CChartAddInBase000000@@MAEXHH@Z
_TEXT	SEGMENT
_p_nRow$ = 8						; size = 4
_p_nColumn$ = 12					; size = 4
?OnBlockRemoved@CChartAddInBase000000@@MAEXHH@Z PROC	; CChartAddInBase000000::OnBlockRemoved, COMDAT
; _this$ = ecx

; 153  : 	virtual void	OnBlockRemoved( const int p_nRow, const int p_nColumn)	{}

  00000	c2 08 00	 ret	 8
?OnBlockRemoved@CChartAddInBase000000@@MAEXHH@Z ENDP	; CChartAddInBase000000::OnBlockRemoved
_TEXT	ENDS
; Function compile flags: /Ogtp
; File D:\git\src\IBK\IBK_DRFN\ProjSrc\SrcChartEx\ChartOCX\AddInManager\Include_AddIn\I000000\_ChartAddInBase.h
;	COMDAT ?OnGraphDataChanged@CChartAddInBase000000@@MAEXXZ
_TEXT	SEGMENT
?OnGraphDataChanged@CChartAddInBase000000@@MAEXXZ PROC	; CChartAddInBase000000::OnGraphDataChanged, COMDAT
; _this$ = ecx

; 151  : 	virtual void	OnGraphDataChanged( void)							{}

  00000	c2 00 00	 ret	 0
?OnGraphDataChanged@CChartAddInBase000000@@MAEXXZ ENDP	; CChartAddInBase000000::OnGraphDataChanged
_TEXT	ENDS
; Function compile flags: /Ogtp
; File D:\git\src\IBK\IBK_DRFN\ProjSrc\SrcChartEx\ChartOCX\AddInManager\Include_AddIn\I000000\_ChartAddInBase.h
;	COMDAT ?OnChartItemChanged@CChartAddInBase000000@@MAEXXZ
_TEXT	SEGMENT
?OnChartItemChanged@CChartAddInBase000000@@MAEXXZ PROC	; CChartAddInBase000000::OnChartItemChanged, COMDAT
; _this$ = ecx

; 149  : 	virtual void	OnChartItemChanged( void)							{}

  00000	c2 00 00	 ret	 0
?OnChartItemChanged@CChartAddInBase000000@@MAEXXZ ENDP	; CChartAddInBase000000::OnChartItemChanged
_TEXT	ENDS
; Function compile flags: /Ogtp
; File D:\git\src\IBK\IBK_DRFN\ProjSrc\SrcChartEx\ChartOCX\AddInManager\Include_AddIn\I000000\_ChartAddInBase.h
;	COMDAT ?OnUserIndiatorConditionLoaded@CChartAddInBase000000@@MAEXXZ
_TEXT	SEGMENT
?OnUserIndiatorConditionLoaded@CChartAddInBase000000@@MAEXXZ PROC ; CChartAddInBase000000::OnUserIndiatorConditionLoaded, COMDAT
; _this$ = ecx

; 147  : 	virtual void	OnUserIndiatorConditionLoaded( void)				{}

  00000	c2 00 00	 ret	 0
?OnUserIndiatorConditionLoaded@CChartAddInBase000000@@MAEXXZ ENDP ; CChartAddInBase000000::OnUserIndiatorConditionLoaded
_TEXT	ENDS
; Function compile flags: /Ogtp
; File D:\git\src\IBK\IBK_DRFN\ProjSrc\SrcChartEx\ChartOCX\AddInManager\Include_AddIn\I000000\_ChartAddInBase.h
;	COMDAT ?OnResetMainBlock@CChartAddInBase000000@@MAEXXZ
_TEXT	SEGMENT
?OnResetMainBlock@CChartAddInBase000000@@MAEXXZ PROC	; CChartAddInBase000000::OnResetMainBlock, COMDAT
; _this$ = ecx

; 145  : 	virtual void	OnResetMainBlock( void)								{}

  00000	c2 00 00	 ret	 0
?OnResetMainBlock@CChartAddInBase000000@@MAEXXZ ENDP	; CChartAddInBase000000::OnResetMainBlock
_TEXT	ENDS
; Function compile flags: /Ogtp
; File D:\git\src\IBK\IBK_DRFN\ProjSrc\SrcChartEx\ChartOCX\AddInManager\Include_AddIn\I000000\_ChartAddInBase.h
;	COMDAT ?OnCaptureChanged@CChartAddInBase000000@@MAEXPAUHWND__@@QAUHBITMAP__@@@Z
_TEXT	SEGMENT
_p_hWnd$ = 8						; size = 4
_p_hbmpMainOSB$ = 12					; size = 4
?OnCaptureChanged@CChartAddInBase000000@@MAEXPAUHWND__@@QAUHBITMAP__@@@Z PROC ; CChartAddInBase000000::OnCaptureChanged, COMDAT
; _this$ = ecx

; 143  : 	virtual void	OnCaptureChanged( HWND p_hWnd, const HBITMAP p_hbmpMainOSB)	{}	// (2006/11/5 - Seung-Won, Bae) Support MainOSB

  00000	c2 08 00	 ret	 8
?OnCaptureChanged@CChartAddInBase000000@@MAEXPAUHWND__@@QAUHBITMAP__@@@Z ENDP ; CChartAddInBase000000::OnCaptureChanged
_TEXT	ENDS
; Function compile flags: /Ogtp
; File D:\git\src\IBK\IBK_DRFN\ProjSrc\SrcChartEx\ChartOCX\AddInManager\Include_AddIn\I000000\_ChartAddInBase.h
;	COMDAT ?OnTimer@CChartAddInBase000000@@MAEXI@Z
_TEXT	SEGMENT
_p_uTimerID$ = 8					; size = 4
?OnTimer@CChartAddInBase000000@@MAEXI@Z PROC		; CChartAddInBase000000::OnTimer, COMDAT
; _this$ = ecx

; 138  : 	virtual void	OnTimer( UINT p_uTimerID)	{}

  00000	c2 04 00	 ret	 4
?OnTimer@CChartAddInBase000000@@MAEXI@Z ENDP		; CChartAddInBase000000::OnTimer
_TEXT	ENDS
; Function compile flags: /Ogtp
; File D:\git\src\IBK\IBK_DRFN\ProjSrc\SrcChartEx\ChartOCX\AddInManager\Include_AddIn\I000000\_ChartAddInBase.h
;	COMDAT ?OnDrawAfterGraph@CChartAddInBase000000@@MAEXPAUHDC__@@@Z
_TEXT	SEGMENT
_p_hDC$ = 8						; size = 4
?OnDrawAfterGraph@CChartAddInBase000000@@MAEXPAUHDC__@@@Z PROC ; CChartAddInBase000000::OnDrawAfterGraph, COMDAT
; _this$ = ecx

; 134  : 	virtual void	OnDrawAfterGraph( HDC p_hDC)	{}

  00000	c2 04 00	 ret	 4
?OnDrawAfterGraph@CChartAddInBase000000@@MAEXPAUHDC__@@@Z ENDP ; CChartAddInBase000000::OnDrawAfterGraph
_TEXT	ENDS
; Function compile flags: /Ogtp
; File D:\git\src\IBK\IBK_DRFN\ProjSrc\SrcChartEx\ChartOCX\AddInManager\Include_AddIn\I000000\_ChartAddInBase.h
;	COMDAT ?OnLSharedDataChange@CChartAddInBase000000@@MAEXPBD0@Z
_TEXT	SEGMENT
_p_szLShareKey$ = 8					; size = 4
_p_szLShareValue$ = 12					; size = 4
?OnLSharedDataChange@CChartAddInBase000000@@MAEXPBD0@Z PROC ; CChartAddInBase000000::OnLSharedDataChange, COMDAT
; _this$ = ecx

; 128  : 	virtual void	OnLSharedDataChange( const char *p_szLShareKey, const char *p_szLShareValue)	{}

  00000	c2 08 00	 ret	 8
?OnLSharedDataChange@CChartAddInBase000000@@MAEXPBD0@Z ENDP ; CChartAddInBase000000::OnLSharedDataChange
_TEXT	ENDS
; Function compile flags: /Ogtp
; File D:\git\src\IBK\IBK_DRFN\ProjSrc\SrcChartEx\ChartOCX\AddInManager\Include_AddIn\I000000\_ChartAddInBase.h
;	COMDAT ?OnGSharedDataChange@CChartAddInBase000000@@MAEXPBD0H@Z
_TEXT	SEGMENT
_p_szGShareKey$ = 8					; size = 4
_p_szGShareValue$ = 12					; size = 4
_p_bStartShare$ = 16					; size = 4
?OnGSharedDataChange@CChartAddInBase000000@@MAEXPBD0H@Z PROC ; CChartAddInBase000000::OnGSharedDataChange, COMDAT
; _this$ = ecx

; 126  : 	virtual void	OnGSharedDataChange( const char *p_szGShareKey, const char *p_szGShareValue, BOOL p_bStartShare)	{}

  00000	c2 0c 00	 ret	 12			; 0000000cH
?OnGSharedDataChange@CChartAddInBase000000@@MAEXPBD0H@Z ENDP ; CChartAddInBase000000::OnGSharedDataChange
_TEXT	ENDS
; Function compile flags: /Ogtp
; File D:\git\src\IBK\IBK_DRFN\ProjSrc\SrcChartEx\ChartOCX\AddInManager\Include_AddIn\I000000\_ChartAddInBase.h
;	COMDAT ?ChangeChartMode@CChartAddInBase000000@@MAEXW4CHART_MODE@CChartInfo@@@Z
_TEXT	SEGMENT
_p_eChartMode$ = 8					; size = 4
?ChangeChartMode@CChartAddInBase000000@@MAEXW4CHART_MODE@CChartInfo@@@Z PROC ; CChartAddInBase000000::ChangeChartMode, COMDAT
; _this$ = ecx

; 116  : 	virtual void	ChangeChartMode( CChartInfo::CHART_MODE p_eChartMode)	{	m_eChartMode = p_eChartMode;	}

  00000	55		 push	 ebp
  00001	8b ec		 mov	 ebp, esp
  00003	8b 45 08	 mov	 eax, DWORD PTR _p_eChartMode$[ebp]
  00006	89 41 34	 mov	 DWORD PTR [ecx+52], eax
  00009	5d		 pop	 ebp
  0000a	c2 04 00	 ret	 4
?ChangeChartMode@CChartAddInBase000000@@MAEXW4CHART_MODE@CChartInfo@@@Z ENDP ; CChartAddInBase000000::ChangeChartMode
_TEXT	ENDS
; Function compile flags: /Ogtp
; File D:\git\src\IBK\IBK_DRFN\ProjSrc\SrcChartEx\ChartOCX\AddInManager\Include_AddIn\I000000\_ChartAddInBase.h
;	COMDAT ?AfeterOnOcxDestroyWindow@CChartAddInBase000000@@MAEXXZ
_TEXT	SEGMENT
?AfeterOnOcxDestroyWindow@CChartAddInBase000000@@MAEXXZ PROC ; CChartAddInBase000000::AfeterOnOcxDestroyWindow, COMDAT
; _this$ = ecx

; 109  : 	virtual void	AfeterOnOcxDestroyWindow( void)							{}

  00000	c2 00 00	 ret	 0
?AfeterOnOcxDestroyWindow@CChartAddInBase000000@@MAEXXZ ENDP ; CChartAddInBase000000::AfeterOnOcxDestroyWindow
_TEXT	ENDS
; Function compile flags: /Ogtp
; File D:\git\src\IBK\IBK_DRFN\ProjSrc\SrcChartEx\ChartOCX\AddInManager\Include_AddIn\I000000\_ChartAddInBase.h
;	COMDAT ?InvokeAddInStr@CChartAddInBase000000@@MAEHPBD0@Z
_TEXT	SEGMENT
_p_szCommandName$ = 8					; size = 4
_p_szData$ = 12						; size = 4
?InvokeAddInStr@CChartAddInBase000000@@MAEHPBD0@Z PROC	; CChartAddInBase000000::InvokeAddInStr, COMDAT
; _this$ = ecx

; 92   : 	virtual BOOL	InvokeAddInStr( LPCTSTR p_szCommandName, LPCTSTR p_szData)	{	return FALSE;	}	// (2005/9/2 - Seung-Won, Bae) for String Data

  00000	33 c0		 xor	 eax, eax
  00002	c2 08 00	 ret	 8
?InvokeAddInStr@CChartAddInBase000000@@MAEHPBD0@Z ENDP	; CChartAddInBase000000::InvokeAddInStr
_TEXT	ENDS
; Function compile flags: /Ogtp
; File D:\git\src\IBK\IBK_DRFN\ProjSrc\SrcChartEx\ChartOCX\AddInManager\Include_AddIn\I000000\_ChartAddInBase.h
;	COMDAT ?InvokeAddIn@CChartAddInBase000000@@MAEHHJ@Z
_TEXT	SEGMENT
_p_nCommandType$ = 8					; size = 4
_p_lData$ = 12						; size = 4
?InvokeAddIn@CChartAddInBase000000@@MAEHHJ@Z PROC	; CChartAddInBase000000::InvokeAddIn, COMDAT
; _this$ = ecx

; 91   : 	virtual BOOL	InvokeAddIn( int p_nCommandType, long p_lData)	{	return FALSE;	}

  00000	33 c0		 xor	 eax, eax
  00002	c2 08 00	 ret	 8
?InvokeAddIn@CChartAddInBase000000@@MAEHHJ@Z ENDP	; CChartAddInBase000000::InvokeAddIn
_TEXT	ENDS
; Function compile flags: /Ogtp
; File D:\git\src\IBK\IBK_DRFN\ProjSrc\SrcChartEx\ChartOCX\AddInManager\Include_AddIn\I000000\_ChartAddInBase.h
;	COMDAT ?GetAddInCustomInterface@CChartAddInBase000000@@MAEPAUIUnknown@@XZ
_TEXT	SEGMENT
?GetAddInCustomInterface@CChartAddInBase000000@@MAEPAUIUnknown@@XZ PROC ; CChartAddInBase000000::GetAddInCustomInterface, COMDAT
; _this$ = ecx

; 87   : 	virtual IUnknown *	GetAddInCustomInterface( void)				{	return NULL;	}

  00000	33 c0		 xor	 eax, eax
  00002	c3		 ret	 0
?GetAddInCustomInterface@CChartAddInBase000000@@MAEPAUIUnknown@@XZ ENDP ; CChartAddInBase000000::GetAddInCustomInterface
_TEXT	ENDS
; Function compile flags: /Ogtp
; File D:\git\src\IBK\IBK_DRFN\ProjSrc\SrcChartEx\ChartOCX\AddInManager\Include_AddIn\I000000\_ChartAddInBase.h
;	COMDAT ?QueryInterface@CChartAddInBase000000@@MAGJABU_GUID@@PAPAX@Z
_TEXT	SEGMENT
_this$ = 8						; size = 4
_iid$ = 12						; size = 4
_ppvObject$ = 16					; size = 4
?QueryInterface@CChartAddInBase000000@@MAGJABU_GUID@@PAPAX@Z PROC ; CChartAddInBase000000::QueryInterface, COMDAT

; 54   : 	_IWRAPPER_IUNKNOWN_INTERFACE()

  00000	b8 02 40 00 80	 mov	 eax, -2147467262	; 80004002H
  00005	c2 0c 00	 ret	 12			; 0000000cH
?QueryInterface@CChartAddInBase000000@@MAGJABU_GUID@@PAPAX@Z ENDP ; CChartAddInBase000000::QueryInterface
_TEXT	ENDS
; Function compile flags: /Ogtp
; File D:\git\src\IBK\IBK_DRFN\ProjSrc\SrcChartEx\ChartOCX\AddInManager\Include_AddIn\I000000\_ChartAddInBase.h
;	COMDAT ?Release@CChartAddInBase000000@@MAGKXZ
_TEXT	SEGMENT
_this$ = 8						; size = 4
?Release@CChartAddInBase000000@@MAGKXZ PROC		; CChartAddInBase000000::Release, COMDAT

; 54   : 	_IWRAPPER_IUNKNOWN_INTERFACE()

  00000	55		 push	 ebp
  00001	8b ec		 mov	 ebp, esp
  00003	5d		 pop	 ebp
  00004	e9 00 00 00 00	 jmp	 ?Release@CIWUnknown@@MAGKXZ ; CIWUnknown::Release
?Release@CChartAddInBase000000@@MAGKXZ ENDP		; CChartAddInBase000000::Release
_TEXT	ENDS
; Function compile flags: /Ogtp
; File D:\git\src\IBK\IBK_DRFN\ProjSrc\SrcChartEx\ChartOCX\AddInManager\Include_AddIn\I000000\_ChartAddInBase.h
;	COMDAT ?AddRef@CChartAddInBase000000@@MAGKXZ
_TEXT	SEGMENT
_this$ = 8						; size = 4
?AddRef@CChartAddInBase000000@@MAGKXZ PROC		; CChartAddInBase000000::AddRef, COMDAT

; 54   : 	_IWRAPPER_IUNKNOWN_INTERFACE()

  00000	55		 push	 ebp
  00001	8b ec		 mov	 ebp, esp
  00003	5d		 pop	 ebp
  00004	e9 00 00 00 00	 jmp	 ?AddRef@CIWUnknown@@MAGKXZ ; CIWUnknown::AddRef
?AddRef@CChartAddInBase000000@@MAGKXZ ENDP		; CChartAddInBase000000::AddRef
_TEXT	ENDS
; Function compile flags: /Ogtp
; File D:\git\src\IBK\IBK_DRFN\ProjSrc\SrcChartEx\ChartOCX\AddInManager\Include_AddIn\_IWUnknown.h
;	COMDAT ?PreDestruct@CIWUnknown@@MAEXXZ
_TEXT	SEGMENT
?PreDestruct@CIWUnknown@@MAEXXZ PROC			; CIWUnknown::PreDestruct, COMDAT
; _this$ = ecx

; 49   : 	virtual void	PreDestruct( void)		{}

  00000	c2 00 00	 ret	 0
?PreDestruct@CIWUnknown@@MAEXXZ ENDP			; CIWUnknown::PreDestruct
_TEXT	ENDS
; Function compile flags: /Ogtp
; File D:\git\src\IBK\IBK_DRFN\ProjSrc\SrcChartEx\ChartOCX\AddInManager\Include_AddIn\_IWUnknown.h
;	COMDAT ?PreDestructX@CIWUnknown@@MAEXXZ
_TEXT	SEGMENT
?PreDestructX@CIWUnknown@@MAEXXZ PROC			; CIWUnknown::PreDestructX, COMDAT
; _this$ = ecx

; 48   : 	virtual void	PreDestructX( void)		{}

  00000	c2 00 00	 ret	 0
?PreDestructX@CIWUnknown@@MAEXXZ ENDP			; CIWUnknown::PreDestructX
_TEXT	ENDS
; Function compile flags: /Ogtp
; File D:\git\src\IBK\IBK_DRFN\ProjSrc\SrcChartEx\ChartOCX\AddInManager\Include_AddIn\_IWUnknown.h
;	COMDAT ?PostConstruct@CIWUnknown@@MAEXXZ
_TEXT	SEGMENT
?PostConstruct@CIWUnknown@@MAEXXZ PROC			; CIWUnknown::PostConstruct, COMDAT
; _this$ = ecx

; 47   : 	virtual void	PostConstruct( void)	{}

  00000	c2 00 00	 ret	 0
?PostConstruct@CIWUnknown@@MAEXXZ ENDP			; CIWUnknown::PostConstruct
_TEXT	ENDS
; Function compile flags: /Ogtp
; File C:\Program Files (x86)\Microsoft Visual Studio\2019\Community\VC\Tools\MSVC\14.29.30133\atlmfc\include\cstringt.h
; File C:\Program Files (x86)\Microsoft Visual Studio\2019\Community\VC\Tools\MSVC\14.29.30133\atlmfc\include\atlsimpstr.h
; File C:\Program Files (x86)\Microsoft Visual Studio\2019\Community\VC\Tools\MSVC\14.29.30133\atlmfc\include\cstringt.h
; File C:\Program Files (x86)\Microsoft Visual Studio\2019\Community\VC\Tools\MSVC\14.29.30133\atlmfc\include\atlsimpstr.h
; File C:\Program Files (x86)\Microsoft Visual Studio\2019\Community\VC\Tools\MSVC\14.29.30133\atlmfc\include\cstringt.h
;	COMDAT ??HATL@@YA?AV?$CStringT@DV?$StrTraitMFC_DLL@DV?$ChTraitsCRT@D@ATL@@@@@0@ABV10@0@Z
_TEXT	SEGMENT
$T2 = -16						; size = 4
__$EHRec$ = -12						; size = 12
___$ReturnUdt$ = 8					; size = 4
_str1$ = 12						; size = 4
_str2$ = 16						; size = 4
??HATL@@YA?AV?$CStringT@DV?$StrTraitMFC_DLL@DV?$ChTraitsCRT@D@ATL@@@@@0@ABV10@0@Z PROC ; ATL::operator+, COMDAT

; 2389 : 	{

  00000	55		 push	 ebp
  00001	8b ec		 mov	 ebp, esp
  00003	6a ff		 push	 -1
  00005	68 00 00 00 00	 push	 __ehhandler$??HATL@@YA?AV?$CStringT@DV?$StrTraitMFC_DLL@DV?$ChTraitsCRT@D@ATL@@@@@0@ABV10@0@Z
  0000a	64 a1 00 00 00
	00		 mov	 eax, DWORD PTR fs:0
  00010	50		 push	 eax
  00011	51		 push	 ecx
  00012	56		 push	 esi
  00013	57		 push	 edi
  00014	a1 00 00 00 00	 mov	 eax, DWORD PTR ___security_cookie
  00019	33 c5		 xor	 eax, ebp
  0001b	50		 push	 eax
  0001c	8d 45 f4	 lea	 eax, DWORD PTR __$EHRec$[ebp]
  0001f	64 a3 00 00 00
	00		 mov	 DWORD PTR fs:0, eax

; 2390 : 		CStringT strResult( str1.GetManager() );

  00025	8b 75 0c	 mov	 esi, DWORD PTR _str1$[ebp]
  00028	8b ce		 mov	 ecx, esi
  0002a	c7 45 f0 00 00
	00 00		 mov	 DWORD PTR $T2[ebp], 0
  00031	ff 15 00 00 00
	00		 call	 DWORD PTR __imp_?GetManager@?$CStringT@DV?$StrTraitMFC_DLL@DV?$ChTraitsCRT@D@ATL@@@@@ATL@@QBEPAUIAtlStringMgr@2@XZ
  00037	8b 7d 08	 mov	 edi, DWORD PTR ___$ReturnUdt$[ebp]
  0003a	8b cf		 mov	 ecx, edi
  0003c	50		 push	 eax
  0003d	ff 15 00 00 00
	00		 call	 DWORD PTR __imp_??0?$CStringT@DV?$StrTraitMFC_DLL@DV?$ChTraitsCRT@D@ATL@@@@@ATL@@QAE@PAUIAtlStringMgr@1@@Z
; File C:\Program Files (x86)\Microsoft Visual Studio\2019\Community\VC\Tools\MSVC\14.29.30133\atlmfc\include\atlsimpstr.h

; 519  : 		return( GetData()->nDataLength );

  00043	8b 45 10	 mov	 eax, DWORD PTR _str2$[ebp]
  00046	8b 16		 mov	 edx, DWORD PTR [esi]
; File C:\Program Files (x86)\Microsoft Visual Studio\2019\Community\VC\Tools\MSVC\14.29.30133\atlmfc\include\cstringt.h

; 2394 : 		return( strResult );

  00048	c7 45 fc 00 00
	00 00		 mov	 DWORD PTR __$EHRec$[ebp+8], 0
  0004f	c7 45 f0 01 00
	00 00		 mov	 DWORD PTR $T2[ebp], 1
; File C:\Program Files (x86)\Microsoft Visual Studio\2019\Community\VC\Tools\MSVC\14.29.30133\atlmfc\include\atlsimpstr.h

; 519  : 		return( GetData()->nDataLength );

  00056	8b 08		 mov	 ecx, DWORD PTR [eax]
; File C:\Program Files (x86)\Microsoft Visual Studio\2019\Community\VC\Tools\MSVC\14.29.30133\atlmfc\include\cstringt.h

; 2392 : 		CThisSimpleString::Concatenate( strResult, str1, str1.GetLength(), str2, str2.GetLength() );

  00058	ff 71 f4	 push	 DWORD PTR [ecx-12]
  0005b	51		 push	 ecx
  0005c	ff 72 f4	 push	 DWORD PTR [edx-12]
  0005f	52		 push	 edx
  00060	57		 push	 edi
  00061	ff 15 00 00 00
	00		 call	 DWORD PTR __imp_?Concatenate@?$CSimpleStringT@D$00@ATL@@KAXAAV12@PBDH1H@Z
  00067	83 c4 14	 add	 esp, 20			; 00000014H

; 2394 : 		return( strResult );

  0006a	8b c7		 mov	 eax, edi

; 2395 : 	}

  0006c	8b 4d f4	 mov	 ecx, DWORD PTR __$EHRec$[ebp]
  0006f	64 89 0d 00 00
	00 00		 mov	 DWORD PTR fs:0, ecx
  00076	59		 pop	 ecx
  00077	5f		 pop	 edi
  00078	5e		 pop	 esi
  00079	8b e5		 mov	 esp, ebp
  0007b	5d		 pop	 ebp
  0007c	c3		 ret	 0
_TEXT	ENDS
;	COMDAT text$x
text$x	SEGMENT
__unwindfunclet$??HATL@@YA?AV?$CStringT@DV?$StrTraitMFC_DLL@DV?$ChTraitsCRT@D@ATL@@@@@0@ABV10@0@Z$0:
  00000	8b 45 f0	 mov	 eax, DWORD PTR $T2[ebp]
  00003	83 e0 01	 and	 eax, 1
  00006	0f 84 0d 00 00
	00		 je	 $LN4@operator
  0000c	83 65 f0 fe	 and	 DWORD PTR $T2[ebp], -2	; fffffffeH
  00010	8b 4d 08	 mov	 ecx, DWORD PTR ___$ReturnUdt$[ebp]
  00013	ff 25 00 00 00
	00		 jmp	 DWORD PTR __imp_??1?$CStringT@DV?$StrTraitMFC_DLL@DV?$ChTraitsCRT@D@ATL@@@@@ATL@@QAE@XZ
$LN4@operator:
  00019	c3		 ret	 0
  0001a	cc		 int	 3
  0001b	cc		 int	 3
  0001c	cc		 int	 3
  0001d	cc		 int	 3
  0001e	cc		 int	 3
__ehhandler$??HATL@@YA?AV?$CStringT@DV?$StrTraitMFC_DLL@DV?$ChTraitsCRT@D@ATL@@@@@0@ABV10@0@Z:
  0001f	90		 npad	 1
  00020	90		 npad	 1
  00021	8b 54 24 08	 mov	 edx, DWORD PTR [esp+8]
  00025	8d 42 0c	 lea	 eax, DWORD PTR [edx+12]
  00028	8b 4a f0	 mov	 ecx, DWORD PTR [edx-16]
  0002b	33 c8		 xor	 ecx, eax
  0002d	e8 00 00 00 00	 call	 @__security_check_cookie@4
  00032	b8 00 00 00 00	 mov	 eax, OFFSET __ehfuncinfo$??HATL@@YA?AV?$CStringT@DV?$StrTraitMFC_DLL@DV?$ChTraitsCRT@D@ATL@@@@@0@ABV10@0@Z
  00037	e9 00 00 00 00	 jmp	 ___CxxFrameHandler3
text$x	ENDS
??HATL@@YA?AV?$CStringT@DV?$StrTraitMFC_DLL@DV?$ChTraitsCRT@D@ATL@@@@@0@ABV10@0@Z ENDP ; ATL::operator+
; Function compile flags: /Ogtp
; File C:\Program Files (x86)\Microsoft Visual Studio\2019\Community\VC\Tools\MSVC\14.29.30133\atlmfc\include\afx.inl
;	COMDAT ?Dump@CObject@@UBEXAAVCDumpContext@@@Z
_TEXT	SEGMENT
___formal$ = 8						; size = 4
?Dump@CObject@@UBEXAAVCDumpContext@@@Z PROC		; CObject::Dump, COMDAT
; _this$ = ecx

; 122  : 	{ /* no dumping in release builds */ }

  00000	c2 04 00	 ret	 4
?Dump@CObject@@UBEXAAVCDumpContext@@@Z ENDP		; CObject::Dump
_TEXT	ENDS
; Function compile flags: /Ogtp
; File C:\Program Files (x86)\Microsoft Visual Studio\2019\Community\VC\Tools\MSVC\14.29.30133\atlmfc\include\afx.inl
;	COMDAT ?AssertValid@CObject@@UBEXXZ
_TEXT	SEGMENT
?AssertValid@CObject@@UBEXXZ PROC			; CObject::AssertValid, COMDAT
; _this$ = ecx

; 120  : 	{ /* no asserts in release builds */ }

  00000	c2 00 00	 ret	 0
?AssertValid@CObject@@UBEXXZ ENDP			; CObject::AssertValid
_TEXT	ENDS
; Function compile flags: /Ogtp
; File C:\Program Files (x86)\Microsoft Visual Studio\2019\Community\VC\Tools\MSVC\14.29.30133\atlmfc\include\afx.inl
;	COMDAT ?Serialize@CObject@@UAEXAAVCArchive@@@Z
_TEXT	SEGMENT
___formal$ = 8						; size = 4
?Serialize@CObject@@UAEXAAVCArchive@@@Z PROC		; CObject::Serialize, COMDAT
; _this$ = ecx

; 106  : 	{ /* CObject does not serialize anything by default */ }

  00000	c2 04 00	 ret	 4
?Serialize@CObject@@UAEXAAVCArchive@@@Z ENDP		; CObject::Serialize
_TEXT	ENDS
; Function compile flags: /Ogtp
; File D:\git\src\IBK\IBK_DRFN\ProjSrc\SrcChartEx\ChartOCX\AddInManager\ChartCommonAddIn\AskingPriceIndicatorAddInImp.cpp
;	COMDAT ?__empty_global_delete@@YAXPAXI@Z
_TEXT	SEGMENT
___formal$ = 8						; size = 4
___formal$ = 12						; size = 4
?__empty_global_delete@@YAXPAXI@Z PROC			; __empty_global_delete, COMDAT

  00000	c2 00 00	 ret	 0
?__empty_global_delete@@YAXPAXI@Z ENDP			; __empty_global_delete
_TEXT	ENDS
; Function compile flags: /Ogtp
; File D:\git\src\IBK\IBK_DRFN\ProjSrc\SrcChartEx\ChartOCX\AddInManager\ChartCommonAddIn\AskingPriceIndicatorAddInImp.cpp
;	COMDAT ?__empty_global_delete@@YAXPAX@Z
_TEXT	SEGMENT
___formal$ = 8						; size = 4
?__empty_global_delete@@YAXPAX@Z PROC			; __empty_global_delete, COMDAT

  00000	c2 00 00	 ret	 0
?__empty_global_delete@@YAXPAX@Z ENDP			; __empty_global_delete
_TEXT	ENDS
END
