; Listing generated by Microsoft (R) Optimizing Compiler Version 19.29.30145.0 

	TITLE	D:\git\src\IBK\IBK_DRFN\#DRfn-CS\_Obj\ChartCommonAddIn\BoundMarkerAddInImp.obj
	.686P
	.XMM
	include listing.inc
	.model	flat

INCLUDELIB MSVCRT
INCLUDELIB OLDNAMES

PUBLIC	??_C@_0N@PIINLOBC@BOUND_MARKER@			; `string'
PUBLIC	?m_eRegisteredEventMap@CBoundMarkerAddInImp@@1QBW4EAddInEventType@IChartAddIn000000@@B ; CBoundMarkerAddInImp::m_eRegisteredEventMap
CONST	SEGMENT
?m_eRegisteredEventMap@CBoundMarkerAddInImp@@1QBW4EAddInEventType@IChartAddIn000000@@B DD 015H ; CBoundMarkerAddInImp::m_eRegisteredEventMap
	DD	033H
	DD	034H
	DD	037H
	DD	03cH
	ORG $+224
CONST	ENDS
;	COMDAT ??_C@_0N@PIINLOBC@BOUND_MARKER@
CONST	SEGMENT
??_C@_0N@PIINLOBC@BOUND_MARKER@ DB 'BOUND_MARKER', 00H	; `string'
CONST	ENDS
PUBLIC	??_H@YGXPAXIIP6EPAX0@Z@Z			; `vector constructor iterator'
PUBLIC	?__empty_global_delete@@YAXPAX@Z		; __empty_global_delete
PUBLIC	?__empty_global_delete@@YAXPAXI@Z		; __empty_global_delete
PUBLIC	??1CObject@@UAE@XZ				; CObject::~CObject
PUBLIC	?Serialize@CObject@@UAEXAAVCArchive@@@Z		; CObject::Serialize
PUBLIC	?AssertValid@CObject@@UBEXXZ			; CObject::AssertValid
PUBLIC	?Dump@CObject@@UBEXAAVCDumpContext@@@Z		; CObject::Dump
PUBLIC	??HATL@@YA?AV?$CStringT@DV?$StrTraitMFC_DLL@DV?$ChTraitsCRT@D@ATL@@@@@0@ABV10@PBD@Z ; ATL::operator+
PUBLIC	??0CPoint@@QAE@XZ				; CPoint::CPoint
PUBLIC	??1CGdiObject@@UAE@XZ				; CGdiObject::~CGdiObject
PUBLIC	??_GCGdiObject@@UAEPAXI@Z			; CGdiObject::`scalar deleting destructor'
PUBLIC	??1CPen@@UAE@XZ					; CPen::~CPen
PUBLIC	??_GCPen@@UAEPAXI@Z				; CPen::`scalar deleting destructor'
PUBLIC	??1CBrush@@UAE@XZ				; CBrush::~CBrush
PUBLIC	??_GCBrush@@UAEPAXI@Z				; CBrush::`scalar deleting destructor'
PUBLIC	?PostConstruct@CIWUnknown@@MAEXXZ		; CIWUnknown::PostConstruct
PUBLIC	?PreDestructX@CIWUnknown@@MAEXXZ		; CIWUnknown::PreDestructX
PUBLIC	?PreDestruct@CIWUnknown@@MAEXXZ			; CIWUnknown::PreDestruct
PUBLIC	?AddRef@CChartAddInBase000000@@MAGKXZ		; CChartAddInBase000000::AddRef
PUBLIC	?Release@CChartAddInBase000000@@MAGKXZ		; CChartAddInBase000000::Release
PUBLIC	?QueryInterface@CChartAddInBase000000@@MAGJABU_GUID@@PAPAX@Z ; CChartAddInBase000000::QueryInterface
PUBLIC	?GetAddInCustomInterface@CChartAddInBase000000@@MAEPAUIUnknown@@XZ ; CChartAddInBase000000::GetAddInCustomInterface
PUBLIC	?InvokeAddIn@CChartAddInBase000000@@MAEHHJ@Z	; CChartAddInBase000000::InvokeAddIn
PUBLIC	?InvokeAddInStr@CChartAddInBase000000@@MAEHPBD0@Z ; CChartAddInBase000000::InvokeAddInStr
PUBLIC	?AfeterOnOcxDestroyWindow@CChartAddInBase000000@@MAEXXZ ; CChartAddInBase000000::AfeterOnOcxDestroyWindow
PUBLIC	?ChangeChartMode@CChartAddInBase000000@@MAEXW4CHART_MODE@CChartInfo@@@Z ; CChartAddInBase000000::ChangeChartMode
PUBLIC	?OnGSharedDataChange@CChartAddInBase000000@@MAEXPBD0H@Z ; CChartAddInBase000000::OnGSharedDataChange
PUBLIC	?OnLSharedDataChange@CChartAddInBase000000@@MAEXPBD0@Z ; CChartAddInBase000000::OnLSharedDataChange
PUBLIC	?OnResetChart@CChartAddInBase000000@@MAEXXZ	; CChartAddInBase000000::OnResetChart
PUBLIC	?OnDrawAfterGraph@CChartAddInBase000000@@MAEXPAUHDC__@@@Z ; CChartAddInBase000000::OnDrawAfterGraph
PUBLIC	?OnTimer@CChartAddInBase000000@@MAEXI@Z		; CChartAddInBase000000::OnTimer
PUBLIC	?OnCaptureChanged@CChartAddInBase000000@@MAEXPAUHWND__@@QAUHBITMAP__@@@Z ; CChartAddInBase000000::OnCaptureChanged
PUBLIC	?OnResetMainBlock@CChartAddInBase000000@@MAEXXZ	; CChartAddInBase000000::OnResetMainBlock
PUBLIC	?OnUserIndiatorConditionLoaded@CChartAddInBase000000@@MAEXXZ ; CChartAddInBase000000::OnUserIndiatorConditionLoaded
PUBLIC	?OnChartItemChanged@CChartAddInBase000000@@MAEXXZ ; CChartAddInBase000000::OnChartItemChanged
PUBLIC	?OnGraphDataChanged@CChartAddInBase000000@@MAEXXZ ; CChartAddInBase000000::OnGraphDataChanged
PUBLIC	?OnBlockRemoved@CChartAddInBase000000@@MAEXHH@Z	; CChartAddInBase000000::OnBlockRemoved
PUBLIC	?OnGraphAdded@CChartAddInBase000000@@MAEXPBD0@Z	; CChartAddInBase000000::OnGraphAdded
PUBLIC	?OnManualRealData@CChartAddInBase000000@@MAEXPBDNH@Z ; CChartAddInBase000000::OnManualRealData
PUBLIC	?OnContextMenu@CChartAddInBase000000@@MAEXPAUHWND__@@AAUtagPOINT@@@Z ; CChartAddInBase000000::OnContextMenu
PUBLIC	?OnGraphDeleted@CChartAddInBase000000@@MAEXPBD0@Z ; CChartAddInBase000000::OnGraphDeleted
PUBLIC	?OnPacketTruncated@CChartAddInBase000000@@MAEXH@Z ; CChartAddInBase000000::OnPacketTruncated
PUBLIC	?OnBlockChanged@CChartAddInBase000000@@MAEXW4BLOCKBEHAVIOR@CBlockBaseData@@HHHH@Z ; CChartAddInBase000000::OnBlockChanged
PUBLIC	?OnToolCommand@CChartAddInBase000000@@MAEXHH@Z	; CChartAddInBase000000::OnToolCommand
PUBLIC	?OnRealData@CChartAddInBase000000@@MAEXPBDN0@Z	; CChartAddInBase000000::OnRealData
PUBLIC	?OnIndexedRealData@CChartAddInBase000000@@MAEXPBDHN@Z ; CChartAddInBase000000::OnIndexedRealData
PUBLIC	?OnRealPacketEnd@CChartAddInBase000000@@MAEXPBD@Z ; CChartAddInBase000000::OnRealPacketEnd
PUBLIC	?DrawCursor@CChartAddInBase000000@@MAE?AUtagRECT@@PAUHDC__@@@Z ; CChartAddInBase000000::DrawCursor
PUBLIC	?OnRecalculationComplete@CChartAddInBase000000@@MAEXXZ ; CChartAddInBase000000::OnRecalculationComplete
PUBLIC	?OnPreRealData@CChartAddInBase000000@@MAEHPBDAAN0H@Z ; CChartAddInBase000000::OnPreRealData
PUBLIC	?OnPreIndexedRealData@CChartAddInBase000000@@MAEHPBDHAANH@Z ; CChartAddInBase000000::OnPreIndexedRealData
PUBLIC	?OnPreRealPacketEnd@CChartAddInBase000000@@MAEHPBDH@Z ; CChartAddInBase000000::OnPreRealPacketEnd
PUBLIC	?OnPreNMTRClock@CChartAddInBase000000@@MAEHAA_J@Z ; CChartAddInBase000000::OnPreNMTRClock
PUBLIC	?OnCmdMsg@CChartAddInBase000000@@MAEHIHPAUICmdUI000000@@@Z ; CChartAddInBase000000::OnCmdMsg
PUBLIC	?OnAddInMsg@CChartAddInBase000000@@MAEHPBDJ@Z	; CChartAddInBase000000::OnAddInMsg
PUBLIC	?OnAddInToolCommand@CChartAddInBase000000@@MAEHW4EAICommandType@@@Z ; CChartAddInBase000000::OnAddInToolCommand
PUBLIC	?OnAddInToolCommand@CChartAddInBase000000@@MAEHW4EAICommandType@@PAUHDC__@@IAAUtagPOINT@@K@Z ; CChartAddInBase000000::OnAddInToolCommand
PUBLIC	?OnAddInToolCommand@CChartAddInBase000000@@MAEHW4EAICommandType@@PBD@Z ; CChartAddInBase000000::OnAddInToolCommand
PUBLIC	?OnAddInToolCommand@CChartAddInBase000000@@MAEHW4EAICommandType@@PBD1@Z ; CChartAddInBase000000::OnAddInToolCommand
PUBLIC	?OnAddInToolCommand@CChartAddInBase000000@@MAEHW4EAICommandType@@PBDJ@Z ; CChartAddInBase000000::OnAddInToolCommand
PUBLIC	?OnAddInToolCommand@CChartAddInBase000000@@MAEHW4EAICommandType@@PBUIAddInDllBase@@@Z ; CChartAddInBase000000::OnAddInToolCommand
PUBLIC	?OnAddInToolCommand@CChartAddInBase000000@@MAEHW4EAICommandType@@J@Z ; CChartAddInBase000000::OnAddInToolCommand
PUBLIC	?OnAddInToolCommand@CChartAddInBase000000@@MAEHW4EAICommandType@@JPBD@Z ; CChartAddInBase000000::OnAddInToolCommand
PUBLIC	?OnAddInToolCommand@CChartAddInBase000000@@MAEHW4EAICommandType@@JPBD11@Z ; CChartAddInBase000000::OnAddInToolCommand
PUBLIC	?OnAddInToolCommand@CChartAddInBase000000@@MAEHW4EAICommandType@@JJ@Z ; CChartAddInBase000000::OnAddInToolCommand
PUBLIC	?OnAddInToolCommand@CChartAddInBase000000@@MAEHW4EAICommandType@@JJJJJJJJJ@Z ; CChartAddInBase000000::OnAddInToolCommand
PUBLIC	?OnAddInToolCommand@CChartAddInBase000000@@MAEHAAJW4EAICommandType@@@Z ; CChartAddInBase000000::OnAddInToolCommand
PUBLIC	?OnAddInToolCommand@CChartAddInBase000000@@MAEHAAJW4EAICommandType@@PAUIGraphInfo000000@@@Z ; CChartAddInBase000000::OnAddInToolCommand
PUBLIC	?OnAddInToolCommand@CChartAddInBase000000@@MAEHAAJW4EAICommandType@@PBD@Z ; CChartAddInBase000000::OnAddInToolCommand
PUBLIC	?OnAddInToolCommand@CChartAddInBase000000@@MAEHAAJW4EAICommandType@@PBDPAVCObject@@@Z ; CChartAddInBase000000::OnAddInToolCommand
PUBLIC	?OnAddInToolCommand@CChartAddInBase000000@@MAEHAAJW4EAICommandType@@J@Z ; CChartAddInBase000000::OnAddInToolCommand
PUBLIC	?OnAddInToolCommand@CChartAddInBase000000@@MAEHAAJW4EAICommandType@@JJ@Z ; CChartAddInBase000000::OnAddInToolCommand
PUBLIC	?OnKeyDown@CChartAddInBase000000@@MAEHIII@Z	; CChartAddInBase000000::OnKeyDown
PUBLIC	?OnKeyUp@CChartAddInBase000000@@MAEHIII@Z	; CChartAddInBase000000::OnKeyUp
PUBLIC	?OnMouseWheel@CChartAddInBase000000@@MAEHIFUtagPOINT@@K@Z ; CChartAddInBase000000::OnMouseWheel
PUBLIC	?OnMouseMove@CChartAddInBase000000@@MAEHPAUHDC__@@IAAUtagPOINT@@KQAUHBITMAP__@@@Z ; CChartAddInBase000000::OnMouseMove
PUBLIC	?OnLButtonDown@CChartAddInBase000000@@MAEHPAUHDC__@@IAAUtagPOINT@@K@Z ; CChartAddInBase000000::OnLButtonDown
PUBLIC	?OnLButtonUp@CChartAddInBase000000@@MAEHPAUHDC__@@IAAUtagPOINT@@K@Z ; CChartAddInBase000000::OnLButtonUp
PUBLIC	?OnLButtonDblClk@CChartAddInBase000000@@MAEHPAUHDC__@@IAAUtagPOINT@@K@Z ; CChartAddInBase000000::OnLButtonDblClk
PUBLIC	?OnRButtonDown@CChartAddInBase000000@@MAEHPAUHDC__@@IAAUtagPOINT@@K@Z ; CChartAddInBase000000::OnRButtonDown
PUBLIC	?OnRButtonUp@CChartAddInBase000000@@MAEHPAUHDC__@@IAAUtagPOINT@@K@Z ; CChartAddInBase000000::OnRButtonUp
PUBLIC	?OnRButtonDblClk@CChartAddInBase000000@@MAEHPAUHDC__@@IAAUtagPOINT@@K@Z ; CChartAddInBase000000::OnRButtonDblClk
PUBLIC	??0CBoundMarkerAddInImp@@QAE@PAUIChartOCX000000@@PAUIAddInDllBase@@@Z ; CBoundMarkerAddInImp::CBoundMarkerAddInImp
PUBLIC	??1CBoundMarkerAddInImp@@UAE@XZ			; CBoundMarkerAddInImp::~CBoundMarkerAddInImp
PUBLIC	?GetRegisteredEventMap@CBoundMarkerAddInImp@@MBEPBW4EAddInEventType@IChartAddIn000000@@XZ ; CBoundMarkerAddInImp::GetRegisteredEventMap
PUBLIC	?ResetBound@CBoundMarkerAddInImp@@MAEXPBD@Z	; CBoundMarkerAddInImp::ResetBound
PUBLIC	?EnableBoundMark@CBoundMarkerAddInImp@@IAEXH@Z	; CBoundMarkerAddInImp::EnableBoundMark
PUBLIC	?SetYesterdayClosePrice@CBoundMarkerAddInImp@@AAEXABV?$CStringT@DV?$StrTraitMFC_DLL@DV?$ChTraitsCRT@D@ATL@@@@@ATL@@@Z ; CBoundMarkerAddInImp::SetYesterdayClosePrice
PUBLIC	?GetYesterdayClosePrice@CBoundMarkerAddInImp@@ABENXZ ; CBoundMarkerAddInImp::GetYesterdayClosePrice
PUBLIC	?GetSteadyPrice@CBoundMarkerAddInImp@@ABENXZ	; CBoundMarkerAddInImp::GetSteadyPrice
PUBLIC	?OnDrawBeforeGraph@CBoundMarkerAddInImp@@MAEXPAUHDC__@@@Z ; CBoundMarkerAddInImp::OnDrawBeforeGraph
PUBLIC	?OnPacketDataMultiItem@CBoundMarkerAddInImp@@MAEXPBD0H@Z ; CBoundMarkerAddInImp::OnPacketDataMultiItem
PUBLIC	?OnLoadEnvironment@CBoundMarkerAddInImp@@MAEXPAUIPropertyMap@@@Z ; CBoundMarkerAddInImp::OnLoadEnvironment
PUBLIC	?OnSaveEnvironment@CBoundMarkerAddInImp@@MAEXPAUIPropertyMap@@@Z ; CBoundMarkerAddInImp::OnSaveEnvironment
PUBLIC	??_GCBoundMarkerAddInImp@@UAEPAXI@Z		; CBoundMarkerAddInImp::`scalar deleting destructor'
PUBLIC	??1ILPCSTR000000@@QAE@XZ			; ILPCSTR000000::~ILPCSTR000000
PUBLIC	?QueryInterface@CChartAddInBase000000@@O7AGJABU_GUID@@PAPAX@Z ; [thunk]:CChartAddInBase000000::QueryInterface`adjustor{8}'
PUBLIC	?AddRef@CChartAddInBase000000@@O7AGKXZ		; [thunk]:CChartAddInBase000000::AddRef`adjustor{8}'
PUBLIC	?Release@CChartAddInBase000000@@O7AGKXZ		; [thunk]:CChartAddInBase000000::Release`adjustor{8}'
PUBLIC	??_ECBoundMarkerAddInImp@@W7AEPAXI@Z		; [thunk]:CBoundMarkerAddInImp::`vector deleting destructor'
PUBLIC	??_R0PAVCException@@@8				; CException * `RTTI Type Descriptor'
PUBLIC	??_C@_02DPKJAMEF@?$CFd@				; `string'
PUBLIC	??_7CGdiObject@@6B@				; CGdiObject::`vftable'
PUBLIC	??_7CPen@@6B@					; CPen::`vftable'
PUBLIC	??_7CBrush@@6B@					; CBrush::`vftable'
PUBLIC	??_C@_0HD@JJCHHHNK@C?3?2Program?5Files?5?$CIx86?$CJ?2Microsof@ ; `string'
PUBLIC	??_C@_0BP@OIEOKIDM@Exception?5thrown?5in?5destructor@ ; `string'
PUBLIC	??_C@_0BB@HBOOMJBF@?$CFTs?5?$CI?$CFTs?3?$CFd?$CJ?6?$CFTs@ ; `string'
PUBLIC	??_C@_0N@OMEMOKLE@?$CFTs?5?$CI?$CFTs?3?$CFd?$CJ@ ; `string'
PUBLIC	??_R0?AVCObject@@@8				; CObject `RTTI Type Descriptor'
PUBLIC	??_R3CObject@@8					; CObject::`RTTI Class Hierarchy Descriptor'
PUBLIC	??_R2CObject@@8					; CObject::`RTTI Base Class Array'
PUBLIC	??_R1A@?0A@EA@CObject@@8			; CObject::`RTTI Base Class Descriptor at (0,-1,0,64)'
PUBLIC	??_R0?AUIUnknown@@@8				; IUnknown `RTTI Type Descriptor'
PUBLIC	??_R3IUnknown@@8				; IUnknown::`RTTI Class Hierarchy Descriptor'
PUBLIC	??_R2IUnknown@@8				; IUnknown::`RTTI Base Class Array'
PUBLIC	??_R1A@?0A@EA@IUnknown@@8			; IUnknown::`RTTI Base Class Descriptor at (0,-1,0,64)'
PUBLIC	??_R4CGdiObject@@6B@				; CGdiObject::`RTTI Complete Object Locator'
PUBLIC	??_R0?AVCGdiObject@@@8				; CGdiObject `RTTI Type Descriptor'
PUBLIC	??_R3CGdiObject@@8				; CGdiObject::`RTTI Class Hierarchy Descriptor'
PUBLIC	??_R2CGdiObject@@8				; CGdiObject::`RTTI Base Class Array'
PUBLIC	??_R1A@?0A@EA@CGdiObject@@8			; CGdiObject::`RTTI Base Class Descriptor at (0,-1,0,64)'
PUBLIC	??_R4CPen@@6B@					; CPen::`RTTI Complete Object Locator'
PUBLIC	??_R0?AVCPen@@@8				; CPen `RTTI Type Descriptor'
PUBLIC	??_R3CPen@@8					; CPen::`RTTI Class Hierarchy Descriptor'
PUBLIC	??_R2CPen@@8					; CPen::`RTTI Base Class Array'
PUBLIC	??_R1A@?0A@EA@CPen@@8				; CPen::`RTTI Base Class Descriptor at (0,-1,0,64)'
PUBLIC	??_R4CBrush@@6B@				; CBrush::`RTTI Complete Object Locator'
PUBLIC	??_R0?AVCBrush@@@8				; CBrush `RTTI Type Descriptor'
PUBLIC	??_R3CBrush@@8					; CBrush::`RTTI Class Hierarchy Descriptor'
PUBLIC	??_R2CBrush@@8					; CBrush::`RTTI Base Class Array'
PUBLIC	??_R1A@?0A@EA@CBrush@@8				; CBrush::`RTTI Base Class Descriptor at (0,-1,0,64)'
PUBLIC	?m_strAddInItemName@CBoundMarkerAddInImp@@2V?$CStringT@DV?$StrTraitMFC_DLL@DV?$ChTraitsCRT@D@ATL@@@@@ATL@@A ; CBoundMarkerAddInImp::m_strAddInItemName
PUBLIC	??_7CBoundMarkerAddInImp@@6BCIWUnknown@@@	; CBoundMarkerAddInImp::`vftable'
PUBLIC	??_7CBoundMarkerAddInImp@@6BIChartAddIn000000@@@ ; CBoundMarkerAddInImp::`vftable'
PUBLIC	??_C@_01JLIPDDHJ@?3@				; `string'
PUBLIC	??_C@_07MGCPDNLD@DEFAULT@			; `string'
PUBLIC	??_C@_01ICJEACDI@?$DL@				; `string'
PUBLIC	??_C@_09OFFEPIIO@BOUNDMARK@			; `string'
PUBLIC	??_R0?AUIChartAddIn000000@@@8			; IChartAddIn000000 `RTTI Type Descriptor'
PUBLIC	??_R3IChartAddIn000000@@8			; IChartAddIn000000::`RTTI Class Hierarchy Descriptor'
PUBLIC	??_R2IChartAddIn000000@@8			; IChartAddIn000000::`RTTI Base Class Array'
PUBLIC	??_R1A@?0A@EA@IChartAddIn000000@@8		; IChartAddIn000000::`RTTI Base Class Descriptor at (0,-1,0,64)'
PUBLIC	??_R4CBoundMarkerAddInImp@@6BCIWUnknown@@@	; CBoundMarkerAddInImp::`RTTI Complete Object Locator'
PUBLIC	??_R0?AVCBoundMarkerAddInImp@@@8		; CBoundMarkerAddInImp `RTTI Type Descriptor'
PUBLIC	??_R3CBoundMarkerAddInImp@@8			; CBoundMarkerAddInImp::`RTTI Class Hierarchy Descriptor'
PUBLIC	??_R2CBoundMarkerAddInImp@@8			; CBoundMarkerAddInImp::`RTTI Base Class Array'
PUBLIC	??_R1A@?0A@EA@CBoundMarkerAddInImp@@8		; CBoundMarkerAddInImp::`RTTI Base Class Descriptor at (0,-1,0,64)'
PUBLIC	??_R1A@?0A@EA@CChartAddInBase000000@@8		; CChartAddInBase000000::`RTTI Base Class Descriptor at (0,-1,0,64)'
PUBLIC	??_R0?AVCChartAddInBase000000@@@8		; CChartAddInBase000000 `RTTI Type Descriptor'
PUBLIC	??_R3CChartAddInBase000000@@8			; CChartAddInBase000000::`RTTI Class Hierarchy Descriptor'
PUBLIC	??_R2CChartAddInBase000000@@8			; CChartAddInBase000000::`RTTI Base Class Array'
PUBLIC	??_R1A@?0A@EA@CIWUnknown@@8			; CIWUnknown::`RTTI Base Class Descriptor at (0,-1,0,64)'
PUBLIC	??_R0?AVCIWUnknown@@@8				; CIWUnknown `RTTI Type Descriptor'
PUBLIC	??_R3CIWUnknown@@8				; CIWUnknown::`RTTI Class Hierarchy Descriptor'
PUBLIC	??_R2CIWUnknown@@8				; CIWUnknown::`RTTI Base Class Array'
PUBLIC	??_R17?0A@EA@IChartAddIn000000@@8		; IChartAddIn000000::`RTTI Base Class Descriptor at (8,-1,0,64)'
PUBLIC	??_R17?0A@EA@IUnknown@@8			; IUnknown::`RTTI Base Class Descriptor at (8,-1,0,64)'
PUBLIC	??_R4CBoundMarkerAddInImp@@6BIChartAddIn000000@@@ ; CBoundMarkerAddInImp::`RTTI Complete Object Locator'
PUBLIC	__real@0000000000000000
PUBLIC	__real@3fe0000000000000
PUBLIC	__real@fff0000000000000
EXTRN	??3@YAXPAX@Z:PROC				; operator delete
EXTRN	?__global_delete@@YAXPAXI@Z:PROC		; __global_delete
EXTRN	_atexit:PROC
EXTRN	___std_terminate:PROC
EXTRN	_strchr:PROC
EXTRN	_strstr:PROC
EXTRN	__imp__Polygon@12:PROC
EXTRN	__imp__FillRect@12:PROC
EXTRN	__imp__SetRectEmpty@4:PROC
EXTRN	__imp__CopyRect@8:PROC
EXTRN	__imp__atof:PROC
EXTRN	__imp__atoi:PROC
EXTRN	?GetRuntimeClass@CObject@@UBEPAUCRuntimeClass@@XZ:PROC ; CObject::GetRuntimeClass
EXTRN	__imp_?Empty@?$CSimpleStringT@D$00@ATL@@QAEXXZ:PROC
EXTRN	__imp_?GetBufferSetLength@?$CSimpleStringT@D$00@ATL@@QAEPADH@Z:PROC
EXTRN	__imp_?Concatenate@?$CSimpleStringT@D$00@ATL@@KAXAAV12@PBDH1H@Z:PROC
EXTRN	__imp_??0?$CStringT@DV?$StrTraitMFC_DLL@DV?$ChTraitsCRT@D@ATL@@@@@ATL@@QAE@XZ:PROC
EXTRN	__imp_??0?$CStringT@DV?$StrTraitMFC_DLL@DV?$ChTraitsCRT@D@ATL@@@@@ATL@@QAE@PAUIAtlStringMgr@1@@Z:PROC
EXTRN	__imp_??0?$CStringT@DV?$StrTraitMFC_DLL@DV?$ChTraitsCRT@D@ATL@@@@@ATL@@QAE@ABV01@@Z:PROC
EXTRN	__imp_??0?$CStringT@DV?$StrTraitMFC_DLL@DV?$ChTraitsCRT@D@ATL@@@@@ATL@@QAE@PBD@Z:PROC
EXTRN	__imp_??1?$CStringT@DV?$StrTraitMFC_DLL@DV?$ChTraitsCRT@D@ATL@@@@@ATL@@QAE@XZ:PROC
EXTRN	__imp_??4?$CStringT@DV?$StrTraitMFC_DLL@DV?$ChTraitsCRT@D@ATL@@@@@ATL@@QAEAAV01@PBD@Z:PROC
EXTRN	__imp_?GetManager@?$CStringT@DV?$StrTraitMFC_DLL@DV?$ChTraitsCRT@D@ATL@@@@@ATL@@QBEPAUIAtlStringMgr@2@XZ:PROC
EXTRN	__imp_?TrimRight@?$CStringT@DV?$StrTraitMFC_DLL@DV?$ChTraitsCRT@D@ATL@@@@@ATL@@QAEAAV12@XZ:PROC
EXTRN	__imp_?Format@?$CStringT@DV?$StrTraitMFC_DLL@DV?$ChTraitsCRT@D@ATL@@@@@ATL@@QAAXPBDZZ:PROC
EXTRN	?GetRuntimeClass@CGdiObject@@UBEPAUCRuntimeClass@@XZ:PROC ; CGdiObject::GetRuntimeClass
EXTRN	?DeleteObject@CGdiObject@@QAEHXZ:PROC		; CGdiObject::DeleteObject
EXTRN	??_ECGdiObject@@UAEPAXI@Z:PROC			; CGdiObject::`vector deleting destructor'
EXTRN	?GetRuntimeClass@CPen@@UBEPAUCRuntimeClass@@XZ:PROC ; CPen::GetRuntimeClass
EXTRN	??0CPen@@QAE@HHK@Z:PROC				; CPen::CPen
EXTRN	??_ECPen@@UAEPAXI@Z:PROC			; CPen::`vector deleting destructor'
EXTRN	?GetRuntimeClass@CBrush@@UBEPAUCRuntimeClass@@XZ:PROC ; CBrush::GetRuntimeClass
EXTRN	??0CBrush@@QAE@K@Z:PROC				; CBrush::CBrush
EXTRN	??_ECBrush@@UAEPAXI@Z:PROC			; CBrush::`vector deleting destructor'
EXTRN	?FromHandle@CDC@@SGPAV1@PAUHDC__@@@Z:PROC	; CDC::FromHandle
EXTRN	?SelectObject@CDC@@QAEPAVCPen@@PAV2@@Z:PROC	; CDC::SelectObject
EXTRN	?SelectObject@CDC@@QAEPAVCBrush@@PAV2@@Z:PROC	; CDC::SelectObject
EXTRN	?MoveTo@CDC@@QAE?AVCPoint@@HH@Z:PROC		; CDC::MoveTo
EXTRN	?LineTo@CDC@@QAEHHH@Z:PROC			; CDC::LineTo
EXTRN	?AfxMessageBox@@YGHPBDII@Z:PROC			; AfxMessageBox
EXTRN	?AddRef@CIWUnknown@@MAGKXZ:PROC			; CIWUnknown::AddRef
EXTRN	?Release@CIWUnknown@@MAGKXZ:PROC		; CIWUnknown::Release
EXTRN	??0CChartAddInBase000000@@IAE@PAUIChartOCX000000@@PAUIAddInDllBase@@@Z:PROC ; CChartAddInBase000000::CChartAddInBase000000
EXTRN	??1CChartAddInBase000000@@MAE@XZ:PROC		; CChartAddInBase000000::~CChartAddInBase000000
EXTRN	?HasFullManager@CChartAddInBase000000@@MAEHXZ:PROC ; CChartAddInBase000000::HasFullManager
EXTRN	?RegisterEventMap@CChartAddInBase000000@@UAEHH@Z:PROC ; CChartAddInBase000000::RegisterEventMap
EXTRN	?UnregisterEventMap@CChartAddInBase000000@@UAEHXZ:PROC ; CChartAddInBase000000::UnregisterEventMap
EXTRN	?OnOcxDestroyWindow@CChartAddInBase000000@@MAEXXZ:PROC ; CChartAddInBase000000::OnOcxDestroyWindow
EXTRN	??_ECBoundMarkerAddInImp@@UAEPAXI@Z:PROC	; CBoundMarkerAddInImp::`vector deleting destructor'
EXTRN	?GetMetaTextForScript@IMetaTable@@QAEPBDPAUHWND__@@W4E_CODEPAGE@1@PBDH@Z:PROC ; IMetaTable::GetMetaTextForScript
EXTRN	?GetStringData@CDataConversion@@SA?AV?$CStringT@DV?$StrTraitMFC_DLL@DV?$ChTraitsCRT@D@ATL@@@@@ATL@@AAV23@ABV23@_N@Z:PROC ; CDataConversion::GetStringData
EXTRN	@__security_check_cookie@4:PROC
EXTRN	___CxxFrameHandler3:PROC
EXTRN	??_7type_info@@6B@:QWORD			; type_info::`vftable'
EXTRN	?g_iMetaTable@@3VIMetaTable@@A:BYTE		; g_iMetaTable
EXTRN	___security_cookie:DWORD
EXTRN	__fltused:DWORD
_BSS	SEGMENT
?m_strAddInItemName@CBoundMarkerAddInImp@@2V?$CStringT@DV?$StrTraitMFC_DLL@DV?$ChTraitsCRT@D@ATL@@@@@ATL@@A DD 01H DUP (?) ; CBoundMarkerAddInImp::m_strAddInItemName
_BSS	ENDS
CRT$XCU	SEGMENT
??m_strAddInItemName$initializer$@CBoundMarkerAddInImp@@2P6AXXZA@@3P6AXXZA DD FLAT:??__E?m_strAddInItemName@CBoundMarkerAddInImp@@2V?$CStringT@DV?$StrTraitMFC_DLL@DV?$ChTraitsCRT@D@ATL@@@@@ATL@@A@@YAXXZ ; ??m_strAddInItemName$initializer$@CBoundMarkerAddInImp@@2P6AXXZA@@3P6AXXZA
CRT$XCU	ENDS
;	COMDAT __real@fff0000000000000
CONST	SEGMENT
__real@fff0000000000000 DQ 0fff0000000000000r	; -inf
CONST	ENDS
;	COMDAT __real@3fe0000000000000
CONST	SEGMENT
__real@3fe0000000000000 DQ 03fe0000000000000r	; 0.5
CONST	ENDS
;	COMDAT __real@0000000000000000
CONST	SEGMENT
__real@0000000000000000 DQ 00000000000000000r	; 0
CONST	ENDS
;	COMDAT ??_R4CBoundMarkerAddInImp@@6BIChartAddIn000000@@@
rdata$r	SEGMENT
??_R4CBoundMarkerAddInImp@@6BIChartAddIn000000@@@ DD 00H ; CBoundMarkerAddInImp::`RTTI Complete Object Locator'
	DD	08H
	DD	00H
	DD	FLAT:??_R0?AVCBoundMarkerAddInImp@@@8
	DD	FLAT:??_R3CBoundMarkerAddInImp@@8
rdata$r	ENDS
;	COMDAT ??_R17?0A@EA@IUnknown@@8
rdata$r	SEGMENT
??_R17?0A@EA@IUnknown@@8 DD FLAT:??_R0?AUIUnknown@@@8	; IUnknown::`RTTI Base Class Descriptor at (8,-1,0,64)'
	DD	00H
	DD	08H
	DD	0ffffffffH
	DD	00H
	DD	040H
	DD	FLAT:??_R3IUnknown@@8
rdata$r	ENDS
;	COMDAT ??_R17?0A@EA@IChartAddIn000000@@8
rdata$r	SEGMENT
??_R17?0A@EA@IChartAddIn000000@@8 DD FLAT:??_R0?AUIChartAddIn000000@@@8 ; IChartAddIn000000::`RTTI Base Class Descriptor at (8,-1,0,64)'
	DD	01H
	DD	08H
	DD	0ffffffffH
	DD	00H
	DD	040H
	DD	FLAT:??_R3IChartAddIn000000@@8
rdata$r	ENDS
;	COMDAT ??_R2CIWUnknown@@8
rdata$r	SEGMENT
??_R2CIWUnknown@@8 DD FLAT:??_R1A@?0A@EA@CIWUnknown@@8	; CIWUnknown::`RTTI Base Class Array'
	DD	FLAT:??_R1A@?0A@EA@CObject@@8
rdata$r	ENDS
;	COMDAT ??_R3CIWUnknown@@8
rdata$r	SEGMENT
??_R3CIWUnknown@@8 DD 00H				; CIWUnknown::`RTTI Class Hierarchy Descriptor'
	DD	00H
	DD	02H
	DD	FLAT:??_R2CIWUnknown@@8
rdata$r	ENDS
;	COMDAT ??_R0?AVCIWUnknown@@@8
data$rs	SEGMENT
??_R0?AVCIWUnknown@@@8 DD FLAT:??_7type_info@@6B@	; CIWUnknown `RTTI Type Descriptor'
	DD	00H
	DB	'.?AVCIWUnknown@@', 00H
data$rs	ENDS
;	COMDAT ??_R1A@?0A@EA@CIWUnknown@@8
rdata$r	SEGMENT
??_R1A@?0A@EA@CIWUnknown@@8 DD FLAT:??_R0?AVCIWUnknown@@@8 ; CIWUnknown::`RTTI Base Class Descriptor at (0,-1,0,64)'
	DD	01H
	DD	00H
	DD	0ffffffffH
	DD	00H
	DD	040H
	DD	FLAT:??_R3CIWUnknown@@8
rdata$r	ENDS
;	COMDAT ??_R2CChartAddInBase000000@@8
rdata$r	SEGMENT
??_R2CChartAddInBase000000@@8 DD FLAT:??_R1A@?0A@EA@CChartAddInBase000000@@8 ; CChartAddInBase000000::`RTTI Base Class Array'
	DD	FLAT:??_R1A@?0A@EA@CIWUnknown@@8
	DD	FLAT:??_R1A@?0A@EA@CObject@@8
	DD	FLAT:??_R17?0A@EA@IChartAddIn000000@@8
	DD	FLAT:??_R17?0A@EA@IUnknown@@8
rdata$r	ENDS
;	COMDAT ??_R3CChartAddInBase000000@@8
rdata$r	SEGMENT
??_R3CChartAddInBase000000@@8 DD 00H			; CChartAddInBase000000::`RTTI Class Hierarchy Descriptor'
	DD	01H
	DD	05H
	DD	FLAT:??_R2CChartAddInBase000000@@8
rdata$r	ENDS
;	COMDAT ??_R0?AVCChartAddInBase000000@@@8
data$rs	SEGMENT
??_R0?AVCChartAddInBase000000@@@8 DD FLAT:??_7type_info@@6B@ ; CChartAddInBase000000 `RTTI Type Descriptor'
	DD	00H
	DB	'.?AVCChartAddInBase000000@@', 00H
data$rs	ENDS
;	COMDAT ??_R1A@?0A@EA@CChartAddInBase000000@@8
rdata$r	SEGMENT
??_R1A@?0A@EA@CChartAddInBase000000@@8 DD FLAT:??_R0?AVCChartAddInBase000000@@@8 ; CChartAddInBase000000::`RTTI Base Class Descriptor at (0,-1,0,64)'
	DD	04H
	DD	00H
	DD	0ffffffffH
	DD	00H
	DD	040H
	DD	FLAT:??_R3CChartAddInBase000000@@8
rdata$r	ENDS
;	COMDAT ??_R1A@?0A@EA@CBoundMarkerAddInImp@@8
rdata$r	SEGMENT
??_R1A@?0A@EA@CBoundMarkerAddInImp@@8 DD FLAT:??_R0?AVCBoundMarkerAddInImp@@@8 ; CBoundMarkerAddInImp::`RTTI Base Class Descriptor at (0,-1,0,64)'
	DD	05H
	DD	00H
	DD	0ffffffffH
	DD	00H
	DD	040H
	DD	FLAT:??_R3CBoundMarkerAddInImp@@8
rdata$r	ENDS
;	COMDAT ??_R2CBoundMarkerAddInImp@@8
rdata$r	SEGMENT
??_R2CBoundMarkerAddInImp@@8 DD FLAT:??_R1A@?0A@EA@CBoundMarkerAddInImp@@8 ; CBoundMarkerAddInImp::`RTTI Base Class Array'
	DD	FLAT:??_R1A@?0A@EA@CChartAddInBase000000@@8
	DD	FLAT:??_R1A@?0A@EA@CIWUnknown@@8
	DD	FLAT:??_R1A@?0A@EA@CObject@@8
	DD	FLAT:??_R17?0A@EA@IChartAddIn000000@@8
	DD	FLAT:??_R17?0A@EA@IUnknown@@8
rdata$r	ENDS
;	COMDAT ??_R3CBoundMarkerAddInImp@@8
rdata$r	SEGMENT
??_R3CBoundMarkerAddInImp@@8 DD 00H			; CBoundMarkerAddInImp::`RTTI Class Hierarchy Descriptor'
	DD	01H
	DD	06H
	DD	FLAT:??_R2CBoundMarkerAddInImp@@8
rdata$r	ENDS
;	COMDAT ??_R0?AVCBoundMarkerAddInImp@@@8
data$rs	SEGMENT
??_R0?AVCBoundMarkerAddInImp@@@8 DD FLAT:??_7type_info@@6B@ ; CBoundMarkerAddInImp `RTTI Type Descriptor'
	DD	00H
	DB	'.?AVCBoundMarkerAddInImp@@', 00H
data$rs	ENDS
;	COMDAT ??_R4CBoundMarkerAddInImp@@6BCIWUnknown@@@
rdata$r	SEGMENT
??_R4CBoundMarkerAddInImp@@6BCIWUnknown@@@ DD 00H	; CBoundMarkerAddInImp::`RTTI Complete Object Locator'
	DD	00H
	DD	00H
	DD	FLAT:??_R0?AVCBoundMarkerAddInImp@@@8
	DD	FLAT:??_R3CBoundMarkerAddInImp@@8
rdata$r	ENDS
;	COMDAT ??_R1A@?0A@EA@IChartAddIn000000@@8
rdata$r	SEGMENT
??_R1A@?0A@EA@IChartAddIn000000@@8 DD FLAT:??_R0?AUIChartAddIn000000@@@8 ; IChartAddIn000000::`RTTI Base Class Descriptor at (0,-1,0,64)'
	DD	01H
	DD	00H
	DD	0ffffffffH
	DD	00H
	DD	040H
	DD	FLAT:??_R3IChartAddIn000000@@8
rdata$r	ENDS
;	COMDAT ??_R2IChartAddIn000000@@8
rdata$r	SEGMENT
??_R2IChartAddIn000000@@8 DD FLAT:??_R1A@?0A@EA@IChartAddIn000000@@8 ; IChartAddIn000000::`RTTI Base Class Array'
	DD	FLAT:??_R1A@?0A@EA@IUnknown@@8
rdata$r	ENDS
;	COMDAT ??_R3IChartAddIn000000@@8
rdata$r	SEGMENT
??_R3IChartAddIn000000@@8 DD 00H			; IChartAddIn000000::`RTTI Class Hierarchy Descriptor'
	DD	00H
	DD	02H
	DD	FLAT:??_R2IChartAddIn000000@@8
rdata$r	ENDS
;	COMDAT ??_R0?AUIChartAddIn000000@@@8
data$rs	SEGMENT
??_R0?AUIChartAddIn000000@@@8 DD FLAT:??_7type_info@@6B@ ; IChartAddIn000000 `RTTI Type Descriptor'
	DD	00H
	DB	'.?AUIChartAddIn000000@@', 00H
data$rs	ENDS
;	COMDAT ??_C@_09OFFEPIIO@BOUNDMARK@
CONST	SEGMENT
??_C@_09OFFEPIIO@BOUNDMARK@ DB 'BOUNDMARK', 00H		; `string'
CONST	ENDS
;	COMDAT ??_C@_01ICJEACDI@?$DL@
CONST	SEGMENT
??_C@_01ICJEACDI@?$DL@ DB ';', 00H			; `string'
CONST	ENDS
;	COMDAT ??_C@_07MGCPDNLD@DEFAULT@
CONST	SEGMENT
??_C@_07MGCPDNLD@DEFAULT@ DB 'DEFAULT', 00H		; `string'
CONST	ENDS
;	COMDAT ??_C@_01JLIPDDHJ@?3@
CONST	SEGMENT
??_C@_01JLIPDDHJ@?3@ DB ':', 00H			; `string'
CONST	ENDS
;	COMDAT ??_7CBoundMarkerAddInImp@@6BIChartAddIn000000@@@
CONST	SEGMENT
??_7CBoundMarkerAddInImp@@6BIChartAddIn000000@@@ DD FLAT:??_R4CBoundMarkerAddInImp@@6BIChartAddIn000000@@@ ; CBoundMarkerAddInImp::`vftable'
	DD	FLAT:?QueryInterface@CChartAddInBase000000@@O7AGJABU_GUID@@PAPAX@Z
	DD	FLAT:?AddRef@CChartAddInBase000000@@O7AGKXZ
	DD	FLAT:?Release@CChartAddInBase000000@@O7AGKXZ
	DD	FLAT:??_ECBoundMarkerAddInImp@@W7AEPAXI@Z
	DD	FLAT:?HasFullManager@CChartAddInBase000000@@MAEHXZ
	DD	FLAT:?GetAddInCustomInterface@CChartAddInBase000000@@MAEPAUIUnknown@@XZ
	DD	FLAT:?InvokeAddIn@CChartAddInBase000000@@MAEHHJ@Z
	DD	FLAT:?InvokeAddInStr@CChartAddInBase000000@@MAEHPBD0@Z
	DD	FLAT:?OnOcxDestroyWindow@CChartAddInBase000000@@MAEXXZ
	DD	FLAT:?ChangeChartMode@CChartAddInBase000000@@MAEXW4CHART_MODE@CChartInfo@@@Z
	DD	FLAT:?RegisterEventMap@CChartAddInBase000000@@UAEHH@Z
	DD	FLAT:?UnregisterEventMap@CChartAddInBase000000@@UAEHXZ
	DD	FLAT:?OnGSharedDataChange@CChartAddInBase000000@@MAEXPBD0H@Z
	DD	FLAT:?OnLSharedDataChange@CChartAddInBase000000@@MAEXPBD0@Z
	DD	FLAT:?OnResetChart@CChartAddInBase000000@@MAEXXZ
	DD	FLAT:?OnDrawBeforeGraph@CBoundMarkerAddInImp@@MAEXPAUHDC__@@@Z
	DD	FLAT:?OnDrawAfterGraph@CChartAddInBase000000@@MAEXPAUHDC__@@@Z
	DD	FLAT:?OnPacketDataMultiItem@CBoundMarkerAddInImp@@MAEXPBD0H@Z
	DD	FLAT:?OnTimer@CChartAddInBase000000@@MAEXI@Z
	DD	FLAT:?OnCaptureChanged@CChartAddInBase000000@@MAEXPAUHWND__@@QAUHBITMAP__@@@Z
	DD	FLAT:?OnResetMainBlock@CChartAddInBase000000@@MAEXXZ
	DD	FLAT:?OnUserIndiatorConditionLoaded@CChartAddInBase000000@@MAEXXZ
	DD	FLAT:?OnChartItemChanged@CChartAddInBase000000@@MAEXXZ
	DD	FLAT:?OnGraphDataChanged@CChartAddInBase000000@@MAEXXZ
	DD	FLAT:?OnBlockRemoved@CChartAddInBase000000@@MAEXHH@Z
	DD	FLAT:?OnGraphAdded@CChartAddInBase000000@@MAEXPBD0@Z
	DD	FLAT:?OnManualRealData@CChartAddInBase000000@@MAEXPBDNH@Z
	DD	FLAT:?OnContextMenu@CChartAddInBase000000@@MAEXPAUHWND__@@AAUtagPOINT@@@Z
	DD	FLAT:?OnGraphDeleted@CChartAddInBase000000@@MAEXPBD0@Z
	DD	FLAT:?OnPacketTruncated@CChartAddInBase000000@@MAEXH@Z
	DD	FLAT:?OnBlockChanged@CChartAddInBase000000@@MAEXW4BLOCKBEHAVIOR@CBlockBaseData@@HHHH@Z
	DD	FLAT:?OnToolCommand@CChartAddInBase000000@@MAEXHH@Z
	DD	FLAT:?OnRealData@CChartAddInBase000000@@MAEXPBDN0@Z
	DD	FLAT:?OnIndexedRealData@CChartAddInBase000000@@MAEXPBDHN@Z
	DD	FLAT:?OnRealPacketEnd@CChartAddInBase000000@@MAEXPBD@Z
	DD	FLAT:?OnLoadEnvironment@CBoundMarkerAddInImp@@MAEXPAUIPropertyMap@@@Z
	DD	FLAT:?OnSaveEnvironment@CBoundMarkerAddInImp@@MAEXPAUIPropertyMap@@@Z
	DD	FLAT:?DrawCursor@CChartAddInBase000000@@MAE?AUtagRECT@@PAUHDC__@@@Z
	DD	FLAT:?OnRecalculationComplete@CChartAddInBase000000@@MAEXXZ
	DD	FLAT:?OnPreRealData@CChartAddInBase000000@@MAEHPBDAAN0H@Z
	DD	FLAT:?OnPreIndexedRealData@CChartAddInBase000000@@MAEHPBDHAANH@Z
	DD	FLAT:?OnPreRealPacketEnd@CChartAddInBase000000@@MAEHPBDH@Z
	DD	FLAT:?OnPreNMTRClock@CChartAddInBase000000@@MAEHAA_J@Z
	DD	FLAT:?OnCmdMsg@CChartAddInBase000000@@MAEHIHPAUICmdUI000000@@@Z
	DD	FLAT:?OnAddInMsg@CChartAddInBase000000@@MAEHPBDJ@Z
	DD	FLAT:?OnAddInToolCommand@CChartAddInBase000000@@MAEHAAJW4EAICommandType@@JJ@Z
	DD	FLAT:?OnAddInToolCommand@CChartAddInBase000000@@MAEHAAJW4EAICommandType@@J@Z
	DD	FLAT:?OnAddInToolCommand@CChartAddInBase000000@@MAEHAAJW4EAICommandType@@PBDPAVCObject@@@Z
	DD	FLAT:?OnAddInToolCommand@CChartAddInBase000000@@MAEHAAJW4EAICommandType@@PBD@Z
	DD	FLAT:?OnAddInToolCommand@CChartAddInBase000000@@MAEHAAJW4EAICommandType@@PAUIGraphInfo000000@@@Z
	DD	FLAT:?OnAddInToolCommand@CChartAddInBase000000@@MAEHAAJW4EAICommandType@@@Z
	DD	FLAT:?OnAddInToolCommand@CChartAddInBase000000@@MAEHW4EAICommandType@@JJJJJJJJJ@Z
	DD	FLAT:?OnAddInToolCommand@CChartAddInBase000000@@MAEHW4EAICommandType@@JJ@Z
	DD	FLAT:?OnAddInToolCommand@CChartAddInBase000000@@MAEHW4EAICommandType@@JPBD11@Z
	DD	FLAT:?OnAddInToolCommand@CChartAddInBase000000@@MAEHW4EAICommandType@@JPBD@Z
	DD	FLAT:?OnAddInToolCommand@CChartAddInBase000000@@MAEHW4EAICommandType@@J@Z
	DD	FLAT:?OnAddInToolCommand@CChartAddInBase000000@@MAEHW4EAICommandType@@PBUIAddInDllBase@@@Z
	DD	FLAT:?OnAddInToolCommand@CChartAddInBase000000@@MAEHW4EAICommandType@@PBDJ@Z
	DD	FLAT:?OnAddInToolCommand@CChartAddInBase000000@@MAEHW4EAICommandType@@PBD1@Z
	DD	FLAT:?OnAddInToolCommand@CChartAddInBase000000@@MAEHW4EAICommandType@@PBD@Z
	DD	FLAT:?OnAddInToolCommand@CChartAddInBase000000@@MAEHW4EAICommandType@@PAUHDC__@@IAAUtagPOINT@@K@Z
	DD	FLAT:?OnAddInToolCommand@CChartAddInBase000000@@MAEHW4EAICommandType@@@Z
	DD	FLAT:?OnKeyDown@CChartAddInBase000000@@MAEHIII@Z
	DD	FLAT:?OnKeyUp@CChartAddInBase000000@@MAEHIII@Z
	DD	FLAT:?OnMouseWheel@CChartAddInBase000000@@MAEHIFUtagPOINT@@K@Z
	DD	FLAT:?OnMouseMove@CChartAddInBase000000@@MAEHPAUHDC__@@IAAUtagPOINT@@KQAUHBITMAP__@@@Z
	DD	FLAT:?OnLButtonDown@CChartAddInBase000000@@MAEHPAUHDC__@@IAAUtagPOINT@@K@Z
	DD	FLAT:?OnLButtonUp@CChartAddInBase000000@@MAEHPAUHDC__@@IAAUtagPOINT@@K@Z
	DD	FLAT:?OnLButtonDblClk@CChartAddInBase000000@@MAEHPAUHDC__@@IAAUtagPOINT@@K@Z
	DD	FLAT:?OnRButtonDown@CChartAddInBase000000@@MAEHPAUHDC__@@IAAUtagPOINT@@K@Z
	DD	FLAT:?OnRButtonUp@CChartAddInBase000000@@MAEHPAUHDC__@@IAAUtagPOINT@@K@Z
	DD	FLAT:?OnRButtonDblClk@CChartAddInBase000000@@MAEHPAUHDC__@@IAAUtagPOINT@@K@Z
CONST	ENDS
;	COMDAT ??_7CBoundMarkerAddInImp@@6BCIWUnknown@@@
CONST	SEGMENT
??_7CBoundMarkerAddInImp@@6BCIWUnknown@@@ DD FLAT:??_R4CBoundMarkerAddInImp@@6BCIWUnknown@@@ ; CBoundMarkerAddInImp::`vftable'
	DD	FLAT:?GetRuntimeClass@CObject@@UBEPAUCRuntimeClass@@XZ
	DD	FLAT:??_ECBoundMarkerAddInImp@@UAEPAXI@Z
	DD	FLAT:?Serialize@CObject@@UAEXAAVCArchive@@@Z
	DD	FLAT:?AssertValid@CObject@@UBEXXZ
	DD	FLAT:?Dump@CObject@@UBEXAAVCDumpContext@@@Z
	DD	FLAT:?AddRef@CChartAddInBase000000@@MAGKXZ
	DD	FLAT:?Release@CChartAddInBase000000@@MAGKXZ
	DD	FLAT:?QueryInterface@CChartAddInBase000000@@MAGJABU_GUID@@PAPAX@Z
	DD	FLAT:?PostConstruct@CIWUnknown@@MAEXXZ
	DD	FLAT:?PreDestructX@CIWUnknown@@MAEXXZ
	DD	FLAT:?PreDestruct@CIWUnknown@@MAEXXZ
	DD	FLAT:?GetRegisteredEventMap@CBoundMarkerAddInImp@@MBEPBW4EAddInEventType@IChartAddIn000000@@XZ
	DD	FLAT:?AfeterOnOcxDestroyWindow@CChartAddInBase000000@@MAEXXZ
	DD	FLAT:?ResetBound@CBoundMarkerAddInImp@@MAEXPBD@Z
CONST	ENDS
;	COMDAT ??_R1A@?0A@EA@CBrush@@8
rdata$r	SEGMENT
??_R1A@?0A@EA@CBrush@@8 DD FLAT:??_R0?AVCBrush@@@8	; CBrush::`RTTI Base Class Descriptor at (0,-1,0,64)'
	DD	02H
	DD	00H
	DD	0ffffffffH
	DD	00H
	DD	040H
	DD	FLAT:??_R3CBrush@@8
rdata$r	ENDS
;	COMDAT ??_R2CBrush@@8
rdata$r	SEGMENT
??_R2CBrush@@8 DD FLAT:??_R1A@?0A@EA@CBrush@@8		; CBrush::`RTTI Base Class Array'
	DD	FLAT:??_R1A@?0A@EA@CGdiObject@@8
	DD	FLAT:??_R1A@?0A@EA@CObject@@8
rdata$r	ENDS
;	COMDAT ??_R3CBrush@@8
rdata$r	SEGMENT
??_R3CBrush@@8 DD 00H					; CBrush::`RTTI Class Hierarchy Descriptor'
	DD	00H
	DD	03H
	DD	FLAT:??_R2CBrush@@8
rdata$r	ENDS
;	COMDAT ??_R0?AVCBrush@@@8
data$rs	SEGMENT
??_R0?AVCBrush@@@8 DD FLAT:??_7type_info@@6B@		; CBrush `RTTI Type Descriptor'
	DD	00H
	DB	'.?AVCBrush@@', 00H
data$rs	ENDS
;	COMDAT ??_R4CBrush@@6B@
rdata$r	SEGMENT
??_R4CBrush@@6B@ DD 00H					; CBrush::`RTTI Complete Object Locator'
	DD	00H
	DD	00H
	DD	FLAT:??_R0?AVCBrush@@@8
	DD	FLAT:??_R3CBrush@@8
rdata$r	ENDS
;	COMDAT ??_R1A@?0A@EA@CPen@@8
rdata$r	SEGMENT
??_R1A@?0A@EA@CPen@@8 DD FLAT:??_R0?AVCPen@@@8		; CPen::`RTTI Base Class Descriptor at (0,-1,0,64)'
	DD	02H
	DD	00H
	DD	0ffffffffH
	DD	00H
	DD	040H
	DD	FLAT:??_R3CPen@@8
rdata$r	ENDS
;	COMDAT ??_R2CPen@@8
rdata$r	SEGMENT
??_R2CPen@@8 DD	FLAT:??_R1A@?0A@EA@CPen@@8		; CPen::`RTTI Base Class Array'
	DD	FLAT:??_R1A@?0A@EA@CGdiObject@@8
	DD	FLAT:??_R1A@?0A@EA@CObject@@8
rdata$r	ENDS
;	COMDAT ??_R3CPen@@8
rdata$r	SEGMENT
??_R3CPen@@8 DD	00H					; CPen::`RTTI Class Hierarchy Descriptor'
	DD	00H
	DD	03H
	DD	FLAT:??_R2CPen@@8
rdata$r	ENDS
;	COMDAT ??_R0?AVCPen@@@8
data$rs	SEGMENT
??_R0?AVCPen@@@8 DD FLAT:??_7type_info@@6B@		; CPen `RTTI Type Descriptor'
	DD	00H
	DB	'.?AVCPen@@', 00H
data$rs	ENDS
;	COMDAT ??_R4CPen@@6B@
rdata$r	SEGMENT
??_R4CPen@@6B@ DD 00H					; CPen::`RTTI Complete Object Locator'
	DD	00H
	DD	00H
	DD	FLAT:??_R0?AVCPen@@@8
	DD	FLAT:??_R3CPen@@8
rdata$r	ENDS
;	COMDAT ??_R1A@?0A@EA@CGdiObject@@8
rdata$r	SEGMENT
??_R1A@?0A@EA@CGdiObject@@8 DD FLAT:??_R0?AVCGdiObject@@@8 ; CGdiObject::`RTTI Base Class Descriptor at (0,-1,0,64)'
	DD	01H
	DD	00H
	DD	0ffffffffH
	DD	00H
	DD	040H
	DD	FLAT:??_R3CGdiObject@@8
rdata$r	ENDS
;	COMDAT ??_R2CGdiObject@@8
rdata$r	SEGMENT
??_R2CGdiObject@@8 DD FLAT:??_R1A@?0A@EA@CGdiObject@@8	; CGdiObject::`RTTI Base Class Array'
	DD	FLAT:??_R1A@?0A@EA@CObject@@8
rdata$r	ENDS
;	COMDAT ??_R3CGdiObject@@8
rdata$r	SEGMENT
??_R3CGdiObject@@8 DD 00H				; CGdiObject::`RTTI Class Hierarchy Descriptor'
	DD	00H
	DD	02H
	DD	FLAT:??_R2CGdiObject@@8
rdata$r	ENDS
;	COMDAT ??_R0?AVCGdiObject@@@8
data$rs	SEGMENT
??_R0?AVCGdiObject@@@8 DD FLAT:??_7type_info@@6B@	; CGdiObject `RTTI Type Descriptor'
	DD	00H
	DB	'.?AVCGdiObject@@', 00H
data$rs	ENDS
;	COMDAT ??_R4CGdiObject@@6B@
rdata$r	SEGMENT
??_R4CGdiObject@@6B@ DD 00H				; CGdiObject::`RTTI Complete Object Locator'
	DD	00H
	DD	00H
	DD	FLAT:??_R0?AVCGdiObject@@@8
	DD	FLAT:??_R3CGdiObject@@8
rdata$r	ENDS
;	COMDAT ??_R1A@?0A@EA@IUnknown@@8
rdata$r	SEGMENT
??_R1A@?0A@EA@IUnknown@@8 DD FLAT:??_R0?AUIUnknown@@@8	; IUnknown::`RTTI Base Class Descriptor at (0,-1,0,64)'
	DD	00H
	DD	00H
	DD	0ffffffffH
	DD	00H
	DD	040H
	DD	FLAT:??_R3IUnknown@@8
rdata$r	ENDS
;	COMDAT ??_R2IUnknown@@8
rdata$r	SEGMENT
??_R2IUnknown@@8 DD FLAT:??_R1A@?0A@EA@IUnknown@@8	; IUnknown::`RTTI Base Class Array'
rdata$r	ENDS
;	COMDAT ??_R3IUnknown@@8
rdata$r	SEGMENT
??_R3IUnknown@@8 DD 00H					; IUnknown::`RTTI Class Hierarchy Descriptor'
	DD	00H
	DD	01H
	DD	FLAT:??_R2IUnknown@@8
rdata$r	ENDS
;	COMDAT ??_R0?AUIUnknown@@@8
data$rs	SEGMENT
??_R0?AUIUnknown@@@8 DD FLAT:??_7type_info@@6B@		; IUnknown `RTTI Type Descriptor'
	DD	00H
	DB	'.?AUIUnknown@@', 00H
data$rs	ENDS
;	COMDAT ??_R1A@?0A@EA@CObject@@8
rdata$r	SEGMENT
??_R1A@?0A@EA@CObject@@8 DD FLAT:??_R0?AVCObject@@@8	; CObject::`RTTI Base Class Descriptor at (0,-1,0,64)'
	DD	00H
	DD	00H
	DD	0ffffffffH
	DD	00H
	DD	040H
	DD	FLAT:??_R3CObject@@8
rdata$r	ENDS
;	COMDAT ??_R2CObject@@8
rdata$r	SEGMENT
??_R2CObject@@8 DD FLAT:??_R1A@?0A@EA@CObject@@8	; CObject::`RTTI Base Class Array'
rdata$r	ENDS
;	COMDAT ??_R3CObject@@8
rdata$r	SEGMENT
??_R3CObject@@8 DD 00H					; CObject::`RTTI Class Hierarchy Descriptor'
	DD	00H
	DD	01H
	DD	FLAT:??_R2CObject@@8
rdata$r	ENDS
;	COMDAT ??_R0?AVCObject@@@8
data$rs	SEGMENT
??_R0?AVCObject@@@8 DD FLAT:??_7type_info@@6B@		; CObject `RTTI Type Descriptor'
	DD	00H
	DB	'.?AVCObject@@', 00H
data$rs	ENDS
;	COMDAT ??_C@_0N@OMEMOKLE@?$CFTs?5?$CI?$CFTs?3?$CFd?$CJ@
CONST	SEGMENT
??_C@_0N@OMEMOKLE@?$CFTs?5?$CI?$CFTs?3?$CFd?$CJ@ DB '%Ts (%Ts:%d)', 00H ; `string'
CONST	ENDS
;	COMDAT ??_C@_0BB@HBOOMJBF@?$CFTs?5?$CI?$CFTs?3?$CFd?$CJ?6?$CFTs@
CONST	SEGMENT
??_C@_0BB@HBOOMJBF@?$CFTs?5?$CI?$CFTs?3?$CFd?$CJ?6?$CFTs@ DB '%Ts (%Ts:%d'
	DB	')', 0aH, '%Ts', 00H				; `string'
CONST	ENDS
;	COMDAT ??_C@_0BP@OIEOKIDM@Exception?5thrown?5in?5destructor@
CONST	SEGMENT
??_C@_0BP@OIEOKIDM@Exception?5thrown?5in?5destructor@ DB 'Exception throw'
	DB	'n in destructor', 00H			; `string'
CONST	ENDS
;	COMDAT ??_C@_0HD@JJCHHHNK@C?3?2Program?5Files?5?$CIx86?$CJ?2Microsof@
CONST	SEGMENT
??_C@_0HD@JJCHHHNK@C?3?2Program?5Files?5?$CIx86?$CJ?2Microsof@ DB 'C:\Pro'
	DB	'gram Files (x86)\Microsoft Visual Studio\2019\Community\VC\To'
	DB	'ols\MSVC\14.29.30133\atlmfc\include\afxwin1.inl', 00H ; `string'
CONST	ENDS
;	COMDAT ??_7CBrush@@6B@
CONST	SEGMENT
??_7CBrush@@6B@ DD FLAT:??_R4CBrush@@6B@		; CBrush::`vftable'
	DD	FLAT:?GetRuntimeClass@CBrush@@UBEPAUCRuntimeClass@@XZ
	DD	FLAT:??_ECBrush@@UAEPAXI@Z
	DD	FLAT:?Serialize@CObject@@UAEXAAVCArchive@@@Z
	DD	FLAT:?AssertValid@CObject@@UBEXXZ
	DD	FLAT:?Dump@CObject@@UBEXAAVCDumpContext@@@Z
CONST	ENDS
;	COMDAT ??_7CPen@@6B@
CONST	SEGMENT
??_7CPen@@6B@ DD FLAT:??_R4CPen@@6B@			; CPen::`vftable'
	DD	FLAT:?GetRuntimeClass@CPen@@UBEPAUCRuntimeClass@@XZ
	DD	FLAT:??_ECPen@@UAEPAXI@Z
	DD	FLAT:?Serialize@CObject@@UAEXAAVCArchive@@@Z
	DD	FLAT:?AssertValid@CObject@@UBEXXZ
	DD	FLAT:?Dump@CObject@@UBEXAAVCDumpContext@@@Z
CONST	ENDS
;	COMDAT ??_7CGdiObject@@6B@
CONST	SEGMENT
??_7CGdiObject@@6B@ DD FLAT:??_R4CGdiObject@@6B@	; CGdiObject::`vftable'
	DD	FLAT:?GetRuntimeClass@CGdiObject@@UBEPAUCRuntimeClass@@XZ
	DD	FLAT:??_ECGdiObject@@UAEPAXI@Z
	DD	FLAT:?Serialize@CObject@@UAEXAAVCArchive@@@Z
	DD	FLAT:?AssertValid@CObject@@UBEXXZ
	DD	FLAT:?Dump@CObject@@UBEXAAVCDumpContext@@@Z
CONST	ENDS
;	COMDAT ??_C@_02DPKJAMEF@?$CFd@
CONST	SEGMENT
??_C@_02DPKJAMEF@?$CFd@ DB '%d', 00H			; `string'
CONST	ENDS
;	COMDAT ??_R0PAVCException@@@8
data$r	SEGMENT
??_R0PAVCException@@@8 DD FLAT:??_7type_info@@6B@	; CException * `RTTI Type Descriptor'
	DD	00H
	DB	'.PAVCException@@', 00H
data$r	ENDS
;	COMDAT xdata$x
xdata$x	SEGMENT
__ehfuncinfo$??1ILPCSTR000000@@QAE@XZ DD 019930522H
	DD	00H
	DD	00H
	DD	2 DUP(00H)
	DD	2 DUP(00H)
	DD	00H
	DD	05H
xdata$x	ENDS
;	COMDAT xdata$x
xdata$x	SEGMENT
__unwindtable$?OnSaveEnvironment@CBoundMarkerAddInImp@@MAEXPAUIPropertyMap@@@Z DD 0ffffffffH
	DD	FLAT:__unwindfunclet$?OnSaveEnvironment@CBoundMarkerAddInImp@@MAEXPAUIPropertyMap@@@Z$0
__ehfuncinfo$?OnSaveEnvironment@CBoundMarkerAddInImp@@MAEXPAUIPropertyMap@@@Z DD 019930522H
	DD	01H
	DD	FLAT:__unwindtable$?OnSaveEnvironment@CBoundMarkerAddInImp@@MAEXPAUIPropertyMap@@@Z
	DD	2 DUP(00H)
	DD	2 DUP(00H)
	DD	00H
	DD	01H
xdata$x	ENDS
;	COMDAT xdata$x
xdata$x	SEGMENT
__unwindtable$?OnPacketDataMultiItem@CBoundMarkerAddInImp@@MAEXPBD0H@Z DD 0ffffffffH
	DD	FLAT:__unwindfunclet$?OnPacketDataMultiItem@CBoundMarkerAddInImp@@MAEXPBD0H@Z$0
	DD	0ffffffffH
	DD	FLAT:__unwindfunclet$?OnPacketDataMultiItem@CBoundMarkerAddInImp@@MAEXPBD0H@Z$2
	DD	0ffffffffH
	DD	FLAT:___std_terminate
__ehfuncinfo$?OnPacketDataMultiItem@CBoundMarkerAddInImp@@MAEXPBD0H@Z DD 019930522H
	DD	03H
	DD	FLAT:__unwindtable$?OnPacketDataMultiItem@CBoundMarkerAddInImp@@MAEXPBD0H@Z
	DD	2 DUP(00H)
	DD	2 DUP(00H)
	DD	00H
	DD	01H
xdata$x	ENDS
;	COMDAT xdata$x
xdata$x	SEGMENT
__ehfuncinfo$?OnDrawBeforeGraph@CBoundMarkerAddInImp@@MAEXPAUHDC__@@@Z DD 019930522H
	DD	05H
	DD	FLAT:__unwindtable$?OnDrawBeforeGraph@CBoundMarkerAddInImp@@MAEXPAUHDC__@@@Z
	DD	2 DUP(00H)
	DD	2 DUP(00H)
	DD	00H
	DD	01H
__unwindtable$?OnDrawBeforeGraph@CBoundMarkerAddInImp@@MAEXPAUHDC__@@@Z DD 0ffffffffH
	DD	FLAT:__unwindfunclet$?OnDrawBeforeGraph@CBoundMarkerAddInImp@@MAEXPAUHDC__@@@Z$0
	DD	00H
	DD	FLAT:__unwindfunclet$?OnDrawBeforeGraph@CBoundMarkerAddInImp@@MAEXPAUHDC__@@@Z$3
	DD	00H
	DD	FLAT:__unwindfunclet$?OnDrawBeforeGraph@CBoundMarkerAddInImp@@MAEXPAUHDC__@@@Z$4
	DD	02H
	DD	FLAT:__unwindfunclet$?OnDrawBeforeGraph@CBoundMarkerAddInImp@@MAEXPAUHDC__@@@Z$5
	DD	0ffffffffH
	DD	FLAT:___std_terminate
xdata$x	ENDS
;	COMDAT xdata$x
xdata$x	SEGMENT
__unwindtable$?SetYesterdayClosePrice@CBoundMarkerAddInImp@@AAEXABV?$CStringT@DV?$StrTraitMFC_DLL@DV?$ChTraitsCRT@D@ATL@@@@@ATL@@@Z DD 0ffffffffH
	DD	FLAT:__unwindfunclet$?SetYesterdayClosePrice@CBoundMarkerAddInImp@@AAEXABV?$CStringT@DV?$StrTraitMFC_DLL@DV?$ChTraitsCRT@D@ATL@@@@@ATL@@@Z$0
	DD	00H
	DD	FLAT:__unwindfunclet$?SetYesterdayClosePrice@CBoundMarkerAddInImp@@AAEXABV?$CStringT@DV?$StrTraitMFC_DLL@DV?$ChTraitsCRT@D@ATL@@@@@ATL@@@Z$1
	DD	00H
	DD	FLAT:__unwindfunclet$?SetYesterdayClosePrice@CBoundMarkerAddInImp@@AAEXABV?$CStringT@DV?$StrTraitMFC_DLL@DV?$ChTraitsCRT@D@ATL@@@@@ATL@@@Z$3
	DD	00H
	DD	FLAT:__unwindfunclet$?SetYesterdayClosePrice@CBoundMarkerAddInImp@@AAEXABV?$CStringT@DV?$StrTraitMFC_DLL@DV?$ChTraitsCRT@D@ATL@@@@@ATL@@@Z$5
__ehfuncinfo$?SetYesterdayClosePrice@CBoundMarkerAddInImp@@AAEXABV?$CStringT@DV?$StrTraitMFC_DLL@DV?$ChTraitsCRT@D@ATL@@@@@ATL@@@Z DD 019930522H
	DD	04H
	DD	FLAT:__unwindtable$?SetYesterdayClosePrice@CBoundMarkerAddInImp@@AAEXABV?$CStringT@DV?$StrTraitMFC_DLL@DV?$ChTraitsCRT@D@ATL@@@@@ATL@@@Z
	DD	2 DUP(00H)
	DD	2 DUP(00H)
	DD	00H
	DD	01H
xdata$x	ENDS
;	COMDAT xdata$x
xdata$x	SEGMENT
__ehfuncinfo$?ResetBound@CBoundMarkerAddInImp@@MAEXPBD@Z DD 019930522H
	DD	05H
	DD	FLAT:__unwindtable$?ResetBound@CBoundMarkerAddInImp@@MAEXPBD@Z
	DD	2 DUP(00H)
	DD	2 DUP(00H)
	DD	00H
	DD	01H
__unwindtable$?ResetBound@CBoundMarkerAddInImp@@MAEXPBD@Z DD 0ffffffffH
	DD	FLAT:__unwindfunclet$?ResetBound@CBoundMarkerAddInImp@@MAEXPBD@Z$0
	DD	00H
	DD	FLAT:__unwindfunclet$?ResetBound@CBoundMarkerAddInImp@@MAEXPBD@Z$1
	DD	01H
	DD	FLAT:__unwindfunclet$?ResetBound@CBoundMarkerAddInImp@@MAEXPBD@Z$2
	DD	01H
	DD	FLAT:__unwindfunclet$?ResetBound@CBoundMarkerAddInImp@@MAEXPBD@Z$4
	DD	01H
	DD	FLAT:__unwindfunclet$?ResetBound@CBoundMarkerAddInImp@@MAEXPBD@Z$6
xdata$x	ENDS
;	COMDAT xdata$x
xdata$x	SEGMENT
__catchsym$??1CGdiObject@@UAE@XZ$3 DD 00H
	DD	FLAT:??_R0PAVCException@@@8
	DD	0fffffde4H
	DD	FLAT:__catch$??1CGdiObject@@UAE@XZ$0
__tryblocktable$??1CGdiObject@@UAE@XZ DD 00H
	DD	00H
	DD	02H
	DD	01H
	DD	FLAT:__catchsym$??1CGdiObject@@UAE@XZ$3
__unwindtable$??1CGdiObject@@UAE@XZ DD 0ffffffffH
	DD	00H
	DD	0ffffffffH
	DD	00H
	DD	01H
	DD	FLAT:__unwindfunclet$??1CGdiObject@@UAE@XZ$2
__ehfuncinfo$??1CGdiObject@@UAE@XZ DD 019930522H
	DD	03H
	DD	FLAT:__unwindtable$??1CGdiObject@@UAE@XZ
	DD	01H
	DD	FLAT:__tryblocktable$??1CGdiObject@@UAE@XZ
	DD	2 DUP(00H)
	DD	00H
	DD	05H
xdata$x	ENDS
;	COMDAT xdata$x
xdata$x	SEGMENT
__unwindtable$??HATL@@YA?AV?$CStringT@DV?$StrTraitMFC_DLL@DV?$ChTraitsCRT@D@ATL@@@@@0@ABV10@PBD@Z DD 0ffffffffH
	DD	FLAT:__unwindfunclet$??HATL@@YA?AV?$CStringT@DV?$StrTraitMFC_DLL@DV?$ChTraitsCRT@D@ATL@@@@@0@ABV10@PBD@Z$0
__ehfuncinfo$??HATL@@YA?AV?$CStringT@DV?$StrTraitMFC_DLL@DV?$ChTraitsCRT@D@ATL@@@@@0@ABV10@PBD@Z DD 019930522H
	DD	01H
	DD	FLAT:__unwindtable$??HATL@@YA?AV?$CStringT@DV?$StrTraitMFC_DLL@DV?$ChTraitsCRT@D@ATL@@@@@0@ABV10@PBD@Z
	DD	2 DUP(00H)
	DD	2 DUP(00H)
	DD	00H
	DD	01H
xdata$x	ENDS
; Function compile flags: /Odsp
;	COMDAT ??_ECBoundMarkerAddInImp@@W7AEPAXI@Z
_TEXT	SEGMENT
??_ECBoundMarkerAddInImp@@W7AEPAXI@Z PROC		; [thunk]:CBoundMarkerAddInImp::`vector deleting destructor', COMDAT
  00000	83 e9 08	 sub	 ecx, 8
  00003	e9 00 00 00 00	 jmp	 ??_ECBoundMarkerAddInImp@@UAEPAXI@Z
??_ECBoundMarkerAddInImp@@W7AEPAXI@Z ENDP		; [thunk]:CBoundMarkerAddInImp::`vector deleting destructor'
_TEXT	ENDS
; Function compile flags: /Odsp
;	COMDAT ?Release@CChartAddInBase000000@@O7AGKXZ
_TEXT	SEGMENT
?Release@CChartAddInBase000000@@O7AGKXZ PROC		; [thunk]:CChartAddInBase000000::Release`adjustor{8}', COMDAT
  00000	83 6c 24 04 08	 sub	 DWORD PTR [esp+4], 8
  00005	e9 00 00 00 00	 jmp	 ?Release@CChartAddInBase000000@@MAGKXZ ; CChartAddInBase000000::Release
?Release@CChartAddInBase000000@@O7AGKXZ ENDP		; [thunk]:CChartAddInBase000000::Release`adjustor{8}'
_TEXT	ENDS
; Function compile flags: /Odsp
;	COMDAT ?AddRef@CChartAddInBase000000@@O7AGKXZ
_TEXT	SEGMENT
?AddRef@CChartAddInBase000000@@O7AGKXZ PROC		; [thunk]:CChartAddInBase000000::AddRef`adjustor{8}', COMDAT
  00000	83 6c 24 04 08	 sub	 DWORD PTR [esp+4], 8
  00005	e9 00 00 00 00	 jmp	 ?AddRef@CChartAddInBase000000@@MAGKXZ ; CChartAddInBase000000::AddRef
?AddRef@CChartAddInBase000000@@O7AGKXZ ENDP		; [thunk]:CChartAddInBase000000::AddRef`adjustor{8}'
_TEXT	ENDS
; Function compile flags: /Odsp
;	COMDAT ?QueryInterface@CChartAddInBase000000@@O7AGJABU_GUID@@PAPAX@Z
_TEXT	SEGMENT
?QueryInterface@CChartAddInBase000000@@O7AGJABU_GUID@@PAPAX@Z PROC ; [thunk]:CChartAddInBase000000::QueryInterface`adjustor{8}', COMDAT
  00000	83 6c 24 04 08	 sub	 DWORD PTR [esp+4], 8
  00005	e9 00 00 00 00	 jmp	 ?QueryInterface@CChartAddInBase000000@@MAGJABU_GUID@@PAPAX@Z ; CChartAddInBase000000::QueryInterface
?QueryInterface@CChartAddInBase000000@@O7AGJABU_GUID@@PAPAX@Z ENDP ; [thunk]:CChartAddInBase000000::QueryInterface`adjustor{8}'
_TEXT	ENDS
; Function compile flags: /Ogtp
;	COMDAT ??__F?m_strAddInItemName@CBoundMarkerAddInImp@@2V?$CStringT@DV?$StrTraitMFC_DLL@DV?$ChTraitsCRT@D@ATL@@@@@ATL@@A@@YAXXZ
text$yd	SEGMENT
??__F?m_strAddInItemName@CBoundMarkerAddInImp@@2V?$CStringT@DV?$StrTraitMFC_DLL@DV?$ChTraitsCRT@D@ATL@@@@@ATL@@A@@YAXXZ PROC ; `dynamic atexit destructor for 'CBoundMarkerAddInImp::m_strAddInItemName'', COMDAT
  00000	b9 00 00 00 00	 mov	 ecx, OFFSET ?m_strAddInItemName@CBoundMarkerAddInImp@@2V?$CStringT@DV?$StrTraitMFC_DLL@DV?$ChTraitsCRT@D@ATL@@@@@ATL@@A ; CBoundMarkerAddInImp::m_strAddInItemName
  00005	ff 25 00 00 00
	00		 jmp	 DWORD PTR __imp_??1?$CStringT@DV?$StrTraitMFC_DLL@DV?$ChTraitsCRT@D@ATL@@@@@ATL@@QAE@XZ
??__F?m_strAddInItemName@CBoundMarkerAddInImp@@2V?$CStringT@DV?$StrTraitMFC_DLL@DV?$ChTraitsCRT@D@ATL@@@@@ATL@@A@@YAXXZ ENDP ; `dynamic atexit destructor for 'CBoundMarkerAddInImp::m_strAddInItemName''
text$yd	ENDS
; Function compile flags: /Ogtp
; File D:\git\src\IBK\IBK_DRFN\ProjSrc\SrcChartEx\ChartOCX\AddInManager\ChartCommonAddIn\BoundMarkerAddInImp.cpp
;	COMDAT ??__E?m_strAddInItemName@CBoundMarkerAddInImp@@2V?$CStringT@DV?$StrTraitMFC_DLL@DV?$ChTraitsCRT@D@ATL@@@@@ATL@@A@@YAXXZ
text$di	SEGMENT
??__E?m_strAddInItemName@CBoundMarkerAddInImp@@2V?$CStringT@DV?$StrTraitMFC_DLL@DV?$ChTraitsCRT@D@ATL@@@@@ATL@@A@@YAXXZ PROC ; `dynamic initializer for 'CBoundMarkerAddInImp::m_strAddInItemName'', COMDAT

; 60   : CString CBoundMarkerAddInImp::m_strAddInItemName = "BOUND_MARKER";

  00000	68 00 00 00 00	 push	 OFFSET ??_C@_0N@PIINLOBC@BOUND_MARKER@
  00005	b9 00 00 00 00	 mov	 ecx, OFFSET ?m_strAddInItemName@CBoundMarkerAddInImp@@2V?$CStringT@DV?$StrTraitMFC_DLL@DV?$ChTraitsCRT@D@ATL@@@@@ATL@@A ; CBoundMarkerAddInImp::m_strAddInItemName
  0000a	ff 15 00 00 00
	00		 call	 DWORD PTR __imp_??0?$CStringT@DV?$StrTraitMFC_DLL@DV?$ChTraitsCRT@D@ATL@@@@@ATL@@QAE@PBD@Z
  00010	68 00 00 00 00	 push	 OFFSET ??__F?m_strAddInItemName@CBoundMarkerAddInImp@@2V?$CStringT@DV?$StrTraitMFC_DLL@DV?$ChTraitsCRT@D@ATL@@@@@ATL@@A@@YAXXZ ; `dynamic atexit destructor for 'CBoundMarkerAddInImp::m_strAddInItemName''
  00015	e8 00 00 00 00	 call	 _atexit
  0001a	59		 pop	 ecx
  0001b	c3		 ret	 0
??__E?m_strAddInItemName@CBoundMarkerAddInImp@@2V?$CStringT@DV?$StrTraitMFC_DLL@DV?$ChTraitsCRT@D@ATL@@@@@ATL@@A@@YAXXZ ENDP ; `dynamic initializer for 'CBoundMarkerAddInImp::m_strAddInItemName''
text$di	ENDS
; Function compile flags: /Ogtp
; File D:\git\src\IBK\IBK_DRFN\ProjSrc\SrcChartEx\ChartOCX\AddInManager\Include_AddIn\I000000\_IString.h
;	COMDAT ??1ILPCSTR000000@@QAE@XZ
_TEXT	SEGMENT
__$EHRec$ = -12						; size = 12
??1ILPCSTR000000@@QAE@XZ PROC				; ILPCSTR000000::~ILPCSTR000000, COMDAT
; _this$ = ecx

; 44   : 	{

  00000	55		 push	 ebp
  00001	8b ec		 mov	 ebp, esp
  00003	6a ff		 push	 -1
  00005	68 00 00 00 00	 push	 __ehhandler$??1ILPCSTR000000@@QAE@XZ
  0000a	64 a1 00 00 00
	00		 mov	 eax, DWORD PTR fs:0
  00010	50		 push	 eax
  00011	56		 push	 esi
  00012	a1 00 00 00 00	 mov	 eax, DWORD PTR ___security_cookie
  00017	33 c5		 xor	 eax, ebp
  00019	50		 push	 eax
  0001a	8d 45 f4	 lea	 eax, DWORD PTR __$EHRec$[ebp]
  0001d	64 a3 00 00 00
	00		 mov	 DWORD PTR fs:0, eax
  00023	8b f1		 mov	 esi, ecx

; 45   : 		if( m_pIStrData)

  00025	8b 4e 04	 mov	 ecx, DWORD PTR [esi+4]
  00028	85 c9		 test	 ecx, ecx
  0002a	74 13		 je	 SHORT $LN2@ILPCSTR000

; 46   : 		{
; 47   : 			m_pIStrData->Release();

  0002c	8b 01		 mov	 eax, DWORD PTR [ecx]
  0002e	51		 push	 ecx
  0002f	ff 50 08	 call	 DWORD PTR [eax+8]

; 48   : 			m_pIStrData = NULL;

  00032	c7 46 04 00 00
	00 00		 mov	 DWORD PTR [esi+4], 0

; 49   : 			m_szData = NULL;

  00039	c7 06 00 00 00
	00		 mov	 DWORD PTR [esi], 0
$LN2@ILPCSTR000:

; 50   : 		}
; 51   : 	}

  0003f	8b 4d f4	 mov	 ecx, DWORD PTR __$EHRec$[ebp]
  00042	64 89 0d 00 00
	00 00		 mov	 DWORD PTR fs:0, ecx
  00049	59		 pop	 ecx
  0004a	5e		 pop	 esi
  0004b	8b e5		 mov	 esp, ebp
  0004d	5d		 pop	 ebp
  0004e	c3		 ret	 0
  0004f	cc		 int	 3
  00050	cc		 int	 3
  00051	cc		 int	 3
  00052	cc		 int	 3
  00053	cc		 int	 3
_TEXT	ENDS
;	COMDAT text$x
text$x	SEGMENT
__ehhandler$??1ILPCSTR000000@@QAE@XZ:
  00000	90		 npad	 1
  00001	90		 npad	 1
  00002	8b 54 24 08	 mov	 edx, DWORD PTR [esp+8]
  00006	8d 42 0c	 lea	 eax, DWORD PTR [edx+12]
  00009	8b 4a f8	 mov	 ecx, DWORD PTR [edx-8]
  0000c	33 c8		 xor	 ecx, eax
  0000e	e8 00 00 00 00	 call	 @__security_check_cookie@4
  00013	b8 00 00 00 00	 mov	 eax, OFFSET __ehfuncinfo$??1ILPCSTR000000@@QAE@XZ
  00018	e9 00 00 00 00	 jmp	 ___CxxFrameHandler3
text$x	ENDS
??1ILPCSTR000000@@QAE@XZ ENDP				; ILPCSTR000000::~ILPCSTR000000
; Function compile flags: /Ogtp
; File D:\git\src\IBK\IBK_DRFN\ProjSrc\SrcChartEx\ChartOCX\AddInManager\ChartCommonAddIn\BoundMarkerAddInImp.cpp
; File C:\Program Files (x86)\Microsoft Visual Studio\2019\Community\VC\Tools\MSVC\14.29.30133\atlmfc\include\afx.inl
;	COMDAT ??_GCBoundMarkerAddInImp@@UAEPAXI@Z
_TEXT	SEGMENT
___flags$ = 8						; size = 4
??_GCBoundMarkerAddInImp@@UAEPAXI@Z PROC		; CBoundMarkerAddInImp::`scalar deleting destructor', COMDAT
; _this$ = ecx
  00000	55		 push	 ebp
  00001	8b ec		 mov	 ebp, esp
; File D:\git\src\IBK\IBK_DRFN\ProjSrc\SrcChartEx\ChartOCX\AddInManager\ChartCommonAddIn\BoundMarkerAddInImp.cpp

; 56   : {

  00003	56		 push	 esi
  00004	8b f1		 mov	 esi, ecx

; 57   : }

  00006	8d 8e b0 00 00
	00		 lea	 ecx, DWORD PTR [esi+176]
  0000c	c7 06 00 00 00
	00		 mov	 DWORD PTR [esi], OFFSET ??_7CBoundMarkerAddInImp@@6BCIWUnknown@@@
  00012	c7 46 08 00 00
	00 00		 mov	 DWORD PTR [esi+8], OFFSET ??_7CBoundMarkerAddInImp@@6BIChartAddIn000000@@@
  00019	ff 15 00 00 00
	00		 call	 DWORD PTR __imp_??1?$CStringT@DV?$StrTraitMFC_DLL@DV?$ChTraitsCRT@D@ATL@@@@@ATL@@QAE@XZ
  0001f	8d 4e 58	 lea	 ecx, DWORD PTR [esi+88]
  00022	ff 15 00 00 00
	00		 call	 DWORD PTR __imp_??1?$CStringT@DV?$StrTraitMFC_DLL@DV?$ChTraitsCRT@D@ATL@@@@@ATL@@QAE@XZ
  00028	8b ce		 mov	 ecx, esi
  0002a	e8 00 00 00 00	 call	 ??1CChartAddInBase000000@@MAE@XZ ; CChartAddInBase000000::~CChartAddInBase000000
  0002f	8b 45 08	 mov	 eax, DWORD PTR ___flags$[ebp]
  00032	a8 01		 test	 al, 1
  00034	74 22		 je	 SHORT $LN12@scalar
  00036	a8 04		 test	 al, 4
  00038	75 10		 jne	 SHORT $LN3@scalar
; File C:\Program Files (x86)\Microsoft Visual Studio\2019\Community\VC\Tools\MSVC\14.29.30133\atlmfc\include\afx.inl

; 112  : 	{ ::operator delete(p); }

  0003a	56		 push	 esi
  0003b	e8 00 00 00 00	 call	 ??3@YAXPAX@Z		; operator delete
  00040	83 c4 04	 add	 esp, 4
  00043	8b c6		 mov	 eax, esi
  00045	5e		 pop	 esi
  00046	5d		 pop	 ebp
  00047	c2 04 00	 ret	 4
$LN3@scalar:
  0004a	68 b8 00 00 00	 push	 184			; 000000b8H
  0004f	56		 push	 esi
  00050	e8 00 00 00 00	 call	 ?__global_delete@@YAXPAXI@Z ; __global_delete
  00055	83 c4 08	 add	 esp, 8
$LN12@scalar:
  00058	8b c6		 mov	 eax, esi
  0005a	5e		 pop	 esi
  0005b	5d		 pop	 ebp
  0005c	c2 04 00	 ret	 4
??_GCBoundMarkerAddInImp@@UAEPAXI@Z ENDP		; CBoundMarkerAddInImp::`scalar deleting destructor'
_TEXT	ENDS
; Function compile flags: /Ogtp
; File D:\git\src\IBK\IBK_DRFN\ProjSrc\SrcChartEx\ChartOCX\AddInManager\ChartCommonAddIn\BoundMarkerAddInImp.cpp
;	COMDAT ?OnSaveEnvironment@CBoundMarkerAddInImp@@MAEXPAUIPropertyMap@@@Z
_TEXT	SEGMENT
_szEnvValue$ = -16					; size = 4
__$EHRec$ = -12						; size = 12
_strEnvValue$ = 8					; size = 4
_p_pIAddInEnvMap$ = 8					; size = 4
?OnSaveEnvironment@CBoundMarkerAddInImp@@MAEXPAUIPropertyMap@@@Z PROC ; CBoundMarkerAddInImp::OnSaveEnvironment, COMDAT
; _this$ = ecx

; 422  : {

  00000	55		 push	 ebp
  00001	8b ec		 mov	 ebp, esp
  00003	6a ff		 push	 -1
  00005	68 00 00 00 00	 push	 __ehhandler$?OnSaveEnvironment@CBoundMarkerAddInImp@@MAEXPAUIPropertyMap@@@Z
  0000a	64 a1 00 00 00
	00		 mov	 eax, DWORD PTR fs:0
  00010	50		 push	 eax
  00011	51		 push	 ecx
  00012	56		 push	 esi
  00013	57		 push	 edi
  00014	a1 00 00 00 00	 mov	 eax, DWORD PTR ___security_cookie
  00019	33 c5		 xor	 eax, ebp
  0001b	50		 push	 eax
  0001c	8d 45 f4	 lea	 eax, DWORD PTR __$EHRec$[ebp]
  0001f	64 a3 00 00 00
	00		 mov	 DWORD PTR fs:0, eax
  00025	8b f9		 mov	 edi, ecx

; 423  : 	const char *szEnvValue = NULL;
; 424  : 	if( p_pIAddInEnvMap->Lookup( m_strAddInItemName, szEnvValue)) return;

  00027	8b 75 08	 mov	 esi, DWORD PTR _p_pIAddInEnvMap$[ebp]
  0002a	8d 4d f0	 lea	 ecx, DWORD PTR _szEnvValue$[ebp]
  0002d	51		 push	 ecx
  0002e	ff 35 00 00 00
	00		 push	 DWORD PTR ?m_strAddInItemName@CBoundMarkerAddInImp@@2V?$CStringT@DV?$StrTraitMFC_DLL@DV?$ChTraitsCRT@D@ATL@@@@@ATL@@A ; CBoundMarkerAddInImp::m_strAddInItemName
  00034	8b ce		 mov	 ecx, esi
  00036	c7 45 f0 00 00
	00 00		 mov	 DWORD PTR _szEnvValue$[ebp], 0
  0003d	8b 06		 mov	 eax, DWORD PTR [esi]
  0003f	ff 50 0c	 call	 DWORD PTR [eax+12]
  00042	85 c0		 test	 eax, eax
  00044	75 44		 jne	 SHORT $LN1@OnSaveEnvi

; 425  : 
; 426  : 	CString strEnvValue;

  00046	8d 4d 08	 lea	 ecx, DWORD PTR _strEnvValue$[ebp]
  00049	ff 15 00 00 00
	00		 call	 DWORD PTR __imp_??0?$CStringT@DV?$StrTraitMFC_DLL@DV?$ChTraitsCRT@D@ATL@@@@@ATL@@QAE@XZ

; 427  : 	strEnvValue.Format( "%d", m_bEnableMark ? 1 : 0);

  0004f	33 c0		 xor	 eax, eax
  00051	c7 45 fc 00 00
	00 00		 mov	 DWORD PTR __$EHRec$[ebp+8], 0
  00058	39 47 58	 cmp	 DWORD PTR [edi+88], eax
  0005b	0f 95 c0	 setne	 al
  0005e	50		 push	 eax
  0005f	8d 45 08	 lea	 eax, DWORD PTR _strEnvValue$[ebp]
  00062	68 00 00 00 00	 push	 OFFSET ??_C@_02DPKJAMEF@?$CFd@
  00067	50		 push	 eax
  00068	ff 15 00 00 00
	00		 call	 DWORD PTR __imp_?Format@?$CStringT@DV?$StrTraitMFC_DLL@DV?$ChTraitsCRT@D@ATL@@@@@ATL@@QAAXPBDZZ

; 428  : 	p_pIAddInEnvMap->SetAt( m_strAddInItemName, strEnvValue);

  0006e	8b 06		 mov	 eax, DWORD PTR [esi]
  00070	83 c4 0c	 add	 esp, 12			; 0000000cH
  00073	8b ce		 mov	 ecx, esi
  00075	ff 75 08	 push	 DWORD PTR _strEnvValue$[ebp]
  00078	ff 35 00 00 00
	00		 push	 DWORD PTR ?m_strAddInItemName@CBoundMarkerAddInImp@@2V?$CStringT@DV?$StrTraitMFC_DLL@DV?$ChTraitsCRT@D@ATL@@@@@ATL@@A ; CBoundMarkerAddInImp::m_strAddInItemName
  0007e	ff 50 14	 call	 DWORD PTR [eax+20]

; 429  : }

  00081	8d 4d 08	 lea	 ecx, DWORD PTR _strEnvValue$[ebp]
  00084	ff 15 00 00 00
	00		 call	 DWORD PTR __imp_??1?$CStringT@DV?$StrTraitMFC_DLL@DV?$ChTraitsCRT@D@ATL@@@@@ATL@@QAE@XZ
$LN1@OnSaveEnvi:
  0008a	8b 4d f4	 mov	 ecx, DWORD PTR __$EHRec$[ebp]
  0008d	64 89 0d 00 00
	00 00		 mov	 DWORD PTR fs:0, ecx
  00094	59		 pop	 ecx
  00095	5f		 pop	 edi
  00096	5e		 pop	 esi
  00097	8b e5		 mov	 esp, ebp
  00099	5d		 pop	 ebp
  0009a	c2 04 00	 ret	 4
_TEXT	ENDS
;	COMDAT text$x
text$x	SEGMENT
__unwindfunclet$?OnSaveEnvironment@CBoundMarkerAddInImp@@MAEXPAUIPropertyMap@@@Z$0:
  00000	8d 4d 08	 lea	 ecx, DWORD PTR _strEnvValue$[ebp]
  00003	ff 25 00 00 00
	00		 jmp	 DWORD PTR __imp_??1?$CStringT@DV?$StrTraitMFC_DLL@DV?$ChTraitsCRT@D@ATL@@@@@ATL@@QAE@XZ
  00009	cc		 int	 3
  0000a	cc		 int	 3
  0000b	cc		 int	 3
  0000c	cc		 int	 3
  0000d	cc		 int	 3
__ehhandler$?OnSaveEnvironment@CBoundMarkerAddInImp@@MAEXPAUIPropertyMap@@@Z:
  0000e	90		 npad	 1
  0000f	90		 npad	 1
  00010	8b 54 24 08	 mov	 edx, DWORD PTR [esp+8]
  00014	8d 42 0c	 lea	 eax, DWORD PTR [edx+12]
  00017	8b 4a f0	 mov	 ecx, DWORD PTR [edx-16]
  0001a	33 c8		 xor	 ecx, eax
  0001c	e8 00 00 00 00	 call	 @__security_check_cookie@4
  00021	b8 00 00 00 00	 mov	 eax, OFFSET __ehfuncinfo$?OnSaveEnvironment@CBoundMarkerAddInImp@@MAEXPAUIPropertyMap@@@Z
  00026	e9 00 00 00 00	 jmp	 ___CxxFrameHandler3
text$x	ENDS
?OnSaveEnvironment@CBoundMarkerAddInImp@@MAEXPAUIPropertyMap@@@Z ENDP ; CBoundMarkerAddInImp::OnSaveEnvironment
; Function compile flags: /Ogtp
; File D:\git\src\IBK\IBK_DRFN\ProjSrc\SrcChartEx\ChartOCX\AddInManager\ChartCommonAddIn\BoundMarkerAddInImp.cpp
;	COMDAT ?OnLoadEnvironment@CBoundMarkerAddInImp@@MAEXPAUIPropertyMap@@@Z
_TEXT	SEGMENT
_szEnvValue$ = -4					; size = 4
_p_pIAddInEnvMap$ = 8					; size = 4
?OnLoadEnvironment@CBoundMarkerAddInImp@@MAEXPAUIPropertyMap@@@Z PROC ; CBoundMarkerAddInImp::OnLoadEnvironment, COMDAT
; _this$ = ecx

; 416  : {

  00000	55		 push	 ebp
  00001	8b ec		 mov	 ebp, esp
  00003	51		 push	 ecx
  00004	56		 push	 esi
  00005	8b f1		 mov	 esi, ecx

; 417  : 	const char *szEnvValue = NULL;

  00007	c7 45 fc 00 00
	00 00		 mov	 DWORD PTR _szEnvValue$[ebp], 0

; 418  : 	if( !p_pIAddInEnvMap->Lookup( m_strAddInItemName, szEnvValue)) return;

  0000e	8b 4d 08	 mov	 ecx, DWORD PTR _p_pIAddInEnvMap$[ebp]
  00011	8d 55 fc	 lea	 edx, DWORD PTR _szEnvValue$[ebp]
  00014	52		 push	 edx
  00015	ff 35 00 00 00
	00		 push	 DWORD PTR ?m_strAddInItemName@CBoundMarkerAddInImp@@2V?$CStringT@DV?$StrTraitMFC_DLL@DV?$ChTraitsCRT@D@ATL@@@@@ATL@@A ; CBoundMarkerAddInImp::m_strAddInItemName
  0001b	8b 01		 mov	 eax, DWORD PTR [ecx]
  0001d	ff 50 0c	 call	 DWORD PTR [eax+12]
  00020	85 c0		 test	 eax, eax
  00022	74 15		 je	 SHORT $LN1@OnLoadEnvi

; 419  : 	m_bEnableMark = ( atoi( szEnvValue) == 1);

  00024	ff 75 fc	 push	 DWORD PTR _szEnvValue$[ebp]
  00027	ff 15 00 00 00
	00		 call	 DWORD PTR __imp__atoi
  0002d	48		 dec	 eax
  0002e	83 c4 04	 add	 esp, 4
  00031	f7 d8		 neg	 eax
  00033	1b c0		 sbb	 eax, eax
  00035	40		 inc	 eax
  00036	89 46 58	 mov	 DWORD PTR [esi+88], eax
$LN1@OnLoadEnvi:
  00039	5e		 pop	 esi

; 420  : }

  0003a	8b e5		 mov	 esp, ebp
  0003c	5d		 pop	 ebp
  0003d	c2 04 00	 ret	 4
?OnLoadEnvironment@CBoundMarkerAddInImp@@MAEXPAUIPropertyMap@@@Z ENDP ; CBoundMarkerAddInImp::OnLoadEnvironment
_TEXT	ENDS
; Function compile flags: /Ogtp
; File D:\git\src\IBK\IBK_DRFN\ProjSrc\SrcChartEx\ChartOCX\AddInManager\ChartCommonAddIn\BoundMarkerAddInImp.cpp
; File D:\git\src\IBK\IBK_DRFN\ProjSrc\SrcChartEx\ChartOCX\AddInManager\Include_AddIn\I000000\_IString.h
; File D:\git\src\IBK\IBK_DRFN\ProjSrc\SrcChartEx\ChartOCX\AddInManager\ChartCommonAddIn\BoundMarkerAddInImp.cpp
; File D:\git\src\IBK\IBK_DRFN\ProjSrc\SrcChartEx\ChartOCX\AddInManager\Include_AddIn\I000000\_IString.h
; File D:\git\src\IBK\IBK_DRFN\ProjSrc\SrcChartEx\ChartOCX\AddInManager\ChartCommonAddIn\BoundMarkerAddInImp.cpp
;	COMDAT ?OnPacketDataMultiItem@CBoundMarkerAddInImp@@MAEXPBD0H@Z
_TEXT	SEGMENT
_szHelpMsg$ = -28					; size = 8
$T2 = -20						; size = 4
$T3 = -16						; size = 4
__$EHRec$ = -12						; size = 12
$T4 = 8							; size = 4
_lpszRQ$ = 8						; size = 4
_p_szPacketNames$ = 12					; size = 4
_p_bWithReset$ = 16					; size = 4
?OnPacketDataMultiItem@CBoundMarkerAddInImp@@MAEXPBD0H@Z PROC ; CBoundMarkerAddInImp::OnPacketDataMultiItem, COMDAT
; _this$ = ecx

; 390  : {

  00000	55		 push	 ebp
  00001	8b ec		 mov	 ebp, esp
  00003	6a ff		 push	 -1
  00005	68 00 00 00 00	 push	 __ehhandler$?OnPacketDataMultiItem@CBoundMarkerAddInImp@@MAEXPBD0H@Z
  0000a	64 a1 00 00 00
	00		 mov	 eax, DWORD PTR fs:0
  00010	50		 push	 eax
  00011	83 ec 10	 sub	 esp, 16			; 00000010H
  00014	53		 push	 ebx
  00015	56		 push	 esi
  00016	a1 00 00 00 00	 mov	 eax, DWORD PTR ___security_cookie
  0001b	33 c5		 xor	 eax, ebp
  0001d	50		 push	 eax
  0001e	8d 45 f4	 lea	 eax, DWORD PTR __$EHRec$[ebp]
  00021	64 a3 00 00 00
	00		 mov	 DWORD PTR fs:0, eax
  00027	8b f1		 mov	 esi, ecx
  00029	c7 45 f0 00 00
	00 00		 mov	 DWORD PTR $T3[ebp], 0

; 391  : 	// 0. NULL Pointer .
; 392  : 	if( !m_pIDefaultPacketManager || strcmp( lpszRQ, "DEFAULT")) return;

  00030	83 7e 18 00	 cmp	 DWORD PTR [esi+24], 0
  00034	0f 84 e3 00 00
	00		 je	 $LN35@OnPacketDa
  0003a	8b 45 08	 mov	 eax, DWORD PTR _lpszRQ$[ebp]
  0003d	ba 00 00 00 00	 mov	 edx, OFFSET ??_C@_07MGCPDNLD@DEFAULT@
$LL38@OnPacketDa:
  00042	8a 08		 mov	 cl, BYTE PTR [eax]
  00044	3a 0a		 cmp	 cl, BYTE PTR [edx]
  00046	75 1a		 jne	 SHORT $LN39@OnPacketDa
  00048	84 c9		 test	 cl, cl
  0004a	74 12		 je	 SHORT $LN40@OnPacketDa
  0004c	8a 48 01	 mov	 cl, BYTE PTR [eax+1]
  0004f	3a 4a 01	 cmp	 cl, BYTE PTR [edx+1]
  00052	75 0e		 jne	 SHORT $LN39@OnPacketDa
  00054	83 c0 02	 add	 eax, 2
  00057	83 c2 02	 add	 edx, 2
  0005a	84 c9		 test	 cl, cl
  0005c	75 e4		 jne	 SHORT $LL38@OnPacketDa
$LN40@OnPacketDa:
  0005e	33 c0		 xor	 eax, eax
  00060	eb 05		 jmp	 SHORT $LN41@OnPacketDa
$LN39@OnPacketDa:
  00062	1b c0		 sbb	 eax, eax
  00064	83 c8 01	 or	 eax, 1
$LN41@OnPacketDa:
  00067	85 c0		 test	 eax, eax
  00069	0f 85 ae 00 00
	00		 jne	 $LN35@OnPacketDa

; 393  : 
; 394  : 	// (2004.10.13, )    Message   .
; 395  : 	// (2004.10.22, ) /      
; 396  : 	//			      TR  .
; 397  : 	//		    / /  ,
; 398  : 	//			/     Reset    .
; 399  : 	//		    1 Graph    
; 400  : 	//			( Data  AddIn  1   .)
; 401  : 	//			 Packet     .
; 402  : 	//		*.     Class Header 
; 403  : 	if( !( BOOL)strstr( p_szPacketNames, CString( _MTEXT( C0_CLOSE)) + ";") || !p_bWithReset) return;

  0006f	a1 54 00 00 00	 mov	 eax, DWORD PTR ?g_iMetaTable@@3VIMetaTable@@A+84
  00074	8d 4d ec	 lea	 ecx, DWORD PTR $T2[ebp]
  00077	ff 70 14	 push	 DWORD PTR [eax+20]
  0007a	ff 15 00 00 00
	00		 call	 DWORD PTR __imp_??0?$CStringT@DV?$StrTraitMFC_DLL@DV?$ChTraitsCRT@D@ATL@@@@@ATL@@QAE@PBD@Z
  00080	68 00 00 00 00	 push	 OFFSET ??_C@_01ICJEACDI@?$DL@
  00085	50		 push	 eax
  00086	8d 45 08	 lea	 eax, DWORD PTR $T4[ebp]
  00089	c7 45 fc 00 00
	00 00		 mov	 DWORD PTR __$EHRec$[ebp+8], 0
  00090	50		 push	 eax
  00091	c7 45 f0 01 00
	00 00		 mov	 DWORD PTR $T3[ebp], 1
  00098	e8 00 00 00 00	 call	 ??HATL@@YA?AV?$CStringT@DV?$StrTraitMFC_DLL@DV?$ChTraitsCRT@D@ATL@@@@@0@ABV10@PBD@Z ; ATL::operator+
  0009d	ff 30		 push	 DWORD PTR [eax]
  0009f	ff 75 0c	 push	 DWORD PTR _p_szPacketNames$[ebp]
  000a2	e8 00 00 00 00	 call	 _strstr
  000a7	83 c4 14	 add	 esp, 20			; 00000014H
  000aa	85 c0		 test	 eax, eax
  000ac	74 0a		 je	 SHORT $LN6@OnPacketDa
  000ae	83 7d 10 00	 cmp	 DWORD PTR _p_bWithReset$[ebp], 0
  000b2	74 04		 je	 SHORT $LN6@OnPacketDa
  000b4	32 db		 xor	 bl, bl
  000b6	eb 02		 jmp	 SHORT $LN7@OnPacketDa
$LN6@OnPacketDa:
  000b8	b3 01		 mov	 bl, 1
$LN7@OnPacketDa:
  000ba	8d 4d 08	 lea	 ecx, DWORD PTR $T4[ebp]
  000bd	ff 15 00 00 00
	00		 call	 DWORD PTR __imp_??1?$CStringT@DV?$StrTraitMFC_DLL@DV?$ChTraitsCRT@D@ATL@@@@@ATL@@QAE@XZ
  000c3	8d 4d ec	 lea	 ecx, DWORD PTR $T2[ebp]
  000c6	c7 45 fc ff ff
	ff ff		 mov	 DWORD PTR __$EHRec$[ebp+8], -1
  000cd	ff 15 00 00 00
	00		 call	 DWORD PTR __imp_??1?$CStringT@DV?$StrTraitMFC_DLL@DV?$ChTraitsCRT@D@ATL@@@@@ATL@@QAE@XZ
  000d3	84 db		 test	 bl, bl
  000d5	75 46		 jne	 SHORT $LN35@OnPacketDa
; File D:\git\src\IBK\IBK_DRFN\ProjSrc\SrcChartEx\ChartOCX\AddInManager\Include_AddIn\I000000\_IString.h

; 39   : 		m_pIStrData = p_pIString;	// Do not AddRef(). Because It must be Return Value.

  000d7	c7 45 e8 00 00
	00 00		 mov	 DWORD PTR _szHelpMsg$[ebp+4], 0

; 40   : 		if( m_pIStrData) m_szData = m_pIStrData->GetData();
; 41   : 		else m_szData = NULL;

  000de	c7 45 e4 00 00
	00 00		 mov	 DWORD PTR _szHelpMsg$[ebp], 0
; File D:\git\src\IBK\IBK_DRFN\ProjSrc\SrcChartEx\ChartOCX\AddInManager\ChartCommonAddIn\BoundMarkerAddInImp.cpp

; 409  : 	m_pIDefaultPacketManager->GetHelpMessageItem( "BOUNDMARK", szHelpMsg);

  000e5	8b 4e 18	 mov	 ecx, DWORD PTR [esi+24]
  000e8	8d 55 e4	 lea	 edx, DWORD PTR _szHelpMsg$[ebp]
  000eb	52		 push	 edx
  000ec	68 00 00 00 00	 push	 OFFSET ??_C@_09OFFEPIIO@BOUNDMARK@
  000f1	c7 45 fc 01 00
	00 00		 mov	 DWORD PTR __$EHRec$[ebp+8], 1
  000f8	8b 01		 mov	 eax, DWORD PTR [ecx]
  000fa	ff 50 18	 call	 DWORD PTR [eax+24]

; 410  : 	// (2004.10.22, ) /    .
; 411  : 	ResetBound( szHelpMsg);

  000fd	8b 46 f8	 mov	 eax, DWORD PTR [esi-8]
  00100	8d 4e f8	 lea	 ecx, DWORD PTR [esi-8]
  00103	ff 75 e4	 push	 DWORD PTR _szHelpMsg$[ebp]
  00106	ff 50 34	 call	 DWORD PTR [eax+52]
; File D:\git\src\IBK\IBK_DRFN\ProjSrc\SrcChartEx\ChartOCX\AddInManager\Include_AddIn\I000000\_IString.h

; 45   : 		if( m_pIStrData)

  00109	8b 4d e8	 mov	 ecx, DWORD PTR _szHelpMsg$[ebp+4]
  0010c	c7 45 fc 02 00
	00 00		 mov	 DWORD PTR __$EHRec$[ebp+8], 2
  00113	85 c9		 test	 ecx, ecx
  00115	74 06		 je	 SHORT $LN35@OnPacketDa

; 46   : 		{
; 47   : 			m_pIStrData->Release();

  00117	8b 01		 mov	 eax, DWORD PTR [ecx]
  00119	51		 push	 ecx
  0011a	ff 50 08	 call	 DWORD PTR [eax+8]
$LN35@OnPacketDa:
; File D:\git\src\IBK\IBK_DRFN\ProjSrc\SrcChartEx\ChartOCX\AddInManager\ChartCommonAddIn\BoundMarkerAddInImp.cpp

; 412  : }

  0011d	8b 4d f4	 mov	 ecx, DWORD PTR __$EHRec$[ebp]
  00120	64 89 0d 00 00
	00 00		 mov	 DWORD PTR fs:0, ecx
  00127	59		 pop	 ecx
  00128	5e		 pop	 esi
  00129	5b		 pop	 ebx
  0012a	8b e5		 mov	 esp, ebp
  0012c	5d		 pop	 ebp
  0012d	c2 0c 00	 ret	 12			; 0000000cH
_TEXT	ENDS
;	COMDAT text$x
text$x	SEGMENT
__unwindfunclet$?OnPacketDataMultiItem@CBoundMarkerAddInImp@@MAEXPBD0H@Z$0:
  00000	8b 45 f0	 mov	 eax, DWORD PTR $T3[ebp]
  00003	83 e0 01	 and	 eax, 1
  00006	0f 84 0d 00 00
	00		 je	 $LN9@OnPacketDa
  0000c	83 65 f0 fe	 and	 DWORD PTR $T3[ebp], -2	; fffffffeH
  00010	8d 4d ec	 lea	 ecx, DWORD PTR $T2[ebp]
  00013	ff 25 00 00 00
	00		 jmp	 DWORD PTR __imp_??1?$CStringT@DV?$StrTraitMFC_DLL@DV?$ChTraitsCRT@D@ATL@@@@@ATL@@QAE@XZ
$LN9@OnPacketDa:
  00019	c3		 ret	 0
__unwindfunclet$?OnPacketDataMultiItem@CBoundMarkerAddInImp@@MAEXPBD0H@Z$2:
  0001a	8d 4d e4	 lea	 ecx, DWORD PTR _szHelpMsg$[ebp]
  0001d	e9 00 00 00 00	 jmp	 ??1ILPCSTR000000@@QAE@XZ ; ILPCSTR000000::~ILPCSTR000000
  00022	cc		 int	 3
  00023	cc		 int	 3
  00024	cc		 int	 3
  00025	cc		 int	 3
  00026	cc		 int	 3
__ehhandler$?OnPacketDataMultiItem@CBoundMarkerAddInImp@@MAEXPBD0H@Z:
  00027	90		 npad	 1
  00028	90		 npad	 1
  00029	8b 54 24 08	 mov	 edx, DWORD PTR [esp+8]
  0002d	8d 42 0c	 lea	 eax, DWORD PTR [edx+12]
  00030	8b 4a e4	 mov	 ecx, DWORD PTR [edx-28]
  00033	33 c8		 xor	 ecx, eax
  00035	e8 00 00 00 00	 call	 @__security_check_cookie@4
  0003a	b8 00 00 00 00	 mov	 eax, OFFSET __ehfuncinfo$?OnPacketDataMultiItem@CBoundMarkerAddInImp@@MAEXPBD0H@Z
  0003f	e9 00 00 00 00	 jmp	 ___CxxFrameHandler3
text$x	ENDS
?OnPacketDataMultiItem@CBoundMarkerAddInImp@@MAEXPBD0H@Z ENDP ; CBoundMarkerAddInImp::OnPacketDataMultiItem
; Function compile flags: /Ogtp
; File D:\git\src\IBK\IBK_DRFN\ProjSrc\SrcChartEx\ChartOCX\AddInManager\ChartCommonAddIn\BoundMarkerAddInImp.cpp
; File C:\Program Files (x86)\Microsoft Visual Studio\2019\Community\VC\Tools\MSVC\14.29.30133\atlmfc\include\atltypes.h
; File D:\git\src\IBK\IBK_DRFN\ProjSrc\SrcChartEx\ChartOCX\AddInManager\ChartCommonAddIn\BoundMarkerAddInImp.cpp
; File C:\Program Files (x86)\Microsoft Visual Studio\2019\Community\VC\Tools\MSVC\14.29.30133\atlmfc\include\atltypes.h
; File D:\git\src\IBK\IBK_DRFN\ProjSrc\SrcChartEx\ChartOCX\AddInManager\ChartCommonAddIn\BoundMarkerAddInImp.cpp
; File C:\Program Files (x86)\Microsoft Visual Studio\2019\Community\VC\Tools\MSVC\14.29.30133\atlmfc\include\atlsimpstr.h
; File D:\git\src\IBK\IBK_DRFN\ProjSrc\SrcChartEx\ChartOCX\AddInManager\ChartCommonAddIn\BoundMarkerAddInImp.cpp
; File D:\git\src\IBK\IBK_DRFN\ProjSrc\SrcChartEx\ChartOCX\AddInManager\Include_AddIn\I000000\_IString.h
; File D:\git\src\IBK\IBK_DRFN\ProjSrc\SrcChartEx\ChartOCX\AddInManager\ChartCommonAddIn\BoundMarkerAddInImp.cpp
; File D:\git\src\IBK\IBK_DRFN\ProjSrc\SrcChartEx\ChartOCX\AddInManager\Include_AddIn\I000000\_IString.h
; File D:\git\src\IBK\IBK_DRFN\ProjSrc\SrcChartEx\ChartOCX\AddInManager\ChartCommonAddIn\BoundMarkerAddInImp.cpp
; File C:\Program Files (x86)\Microsoft Visual Studio\2019\Community\VC\Tools\MSVC\14.29.30133\atlmfc\include\atltypes.h
; File D:\git\src\IBK\IBK_DRFN\ProjSrc\SrcChartEx\ChartOCX\AddInManager\ChartCommonAddIn\BoundMarkerAddInImp.cpp
; File C:\Program Files (x86)\Microsoft Visual Studio\2019\Community\VC\Tools\MSVC\14.29.30133\atlmfc\include\atltypes.h
; File D:\git\src\IBK\IBK_DRFN\ProjSrc\SrcChartEx\ChartOCX\AddInManager\ChartCommonAddIn\BoundMarkerAddInImp.cpp
; File C:\Program Files (x86)\Microsoft Visual Studio\2019\Community\VC\Tools\MSVC\14.29.30133\atlmfc\include\atltypes.h
; File D:\git\src\IBK\IBK_DRFN\ProjSrc\SrcChartEx\ChartOCX\AddInManager\ChartCommonAddIn\BoundMarkerAddInImp.cpp
; File C:\Program Files (x86)\Microsoft Visual Studio\2019\Community\VC\Tools\MSVC\14.29.30133\atlmfc\include\afxwin1.inl
; File D:\git\src\IBK\IBK_DRFN\ProjSrc\SrcChartEx\ChartOCX\AddInManager\ChartCommonAddIn\BoundMarkerAddInImp.cpp
; File C:\Program Files (x86)\Microsoft Visual Studio\2019\Community\VC\Tools\MSVC\14.29.30133\atlmfc\include\afxwin1.inl
; File D:\git\src\IBK\IBK_DRFN\ProjSrc\SrcChartEx\ChartOCX\AddInManager\ChartCommonAddIn\BoundMarkerAddInImp.cpp
; File C:\Program Files (x86)\Microsoft Visual Studio\2019\Community\VC\Tools\MSVC\14.29.30133\atlmfc\include\afxwin1.inl
; File D:\git\src\IBK\IBK_DRFN\ProjSrc\SrcChartEx\ChartOCX\AddInManager\ChartCommonAddIn\BoundMarkerAddInImp.cpp
; File C:\Program Files (x86)\Microsoft Visual Studio\2019\Community\VC\Tools\MSVC\14.29.30133\atlmfc\include\afxwin1.inl
; File D:\git\src\IBK\IBK_DRFN\ProjSrc\SrcChartEx\ChartOCX\AddInManager\ChartCommonAddIn\BoundMarkerAddInImp.cpp
; File C:\Program Files (x86)\Microsoft Visual Studio\2019\Community\VC\Tools\MSVC\14.29.30133\atlmfc\include\afxwin1.inl
; File D:\git\src\IBK\IBK_DRFN\ProjSrc\SrcChartEx\ChartOCX\AddInManager\ChartCommonAddIn\BoundMarkerAddInImp.cpp
; File C:\Program Files (x86)\Microsoft Visual Studio\2019\Community\VC\Tools\MSVC\14.29.30133\atlmfc\include\afxwin1.inl
; File D:\git\src\IBK\IBK_DRFN\ProjSrc\SrcChartEx\ChartOCX\AddInManager\ChartCommonAddIn\BoundMarkerAddInImp.cpp
; File C:\Program Files (x86)\Microsoft Visual Studio\2019\Community\VC\Tools\MSVC\14.29.30133\atlmfc\include\afxwin1.inl
; File D:\git\src\IBK\IBK_DRFN\ProjSrc\SrcChartEx\ChartOCX\AddInManager\ChartCommonAddIn\BoundMarkerAddInImp.cpp
; File C:\Program Files (x86)\Microsoft Visual Studio\2019\Community\VC\Tools\MSVC\14.29.30133\atlmfc\include\afxwin1.inl
; File D:\git\src\IBK\IBK_DRFN\ProjSrc\SrcChartEx\ChartOCX\AddInManager\ChartCommonAddIn\BoundMarkerAddInImp.cpp
; File C:\Program Files (x86)\Microsoft Visual Studio\2019\Community\VC\Tools\MSVC\14.29.30133\atlmfc\include\afxwin1.inl
; File D:\git\src\IBK\IBK_DRFN\ProjSrc\SrcChartEx\ChartOCX\AddInManager\ChartCommonAddIn\BoundMarkerAddInImp.cpp
; File C:\Program Files (x86)\Microsoft Visual Studio\2019\Community\VC\Tools\MSVC\14.29.30133\atlmfc\include\atltypes.h
; File D:\git\src\IBK\IBK_DRFN\ProjSrc\SrcChartEx\ChartOCX\AddInManager\Include_AddIn\I000000\_IString.h
; File D:\git\src\IBK\IBK_DRFN\ProjSrc\SrcChartEx\ChartOCX\AddInManager\ChartCommonAddIn\BoundMarkerAddInImp.cpp
;	COMDAT ?OnDrawBeforeGraph@CBoundMarkerAddInImp@@MAEXPAUHDC__@@@Z
_TEXT	SEGMENT
_nG$ = -148						; size = 4
_szGraphName$ = -144					; size = 8
_brUpMark$2 = -136					; size = 8
_brDownMark$3 = -128					; size = 8
_nR$ = -120						; size = 4
_nC$ = -116						; size = 4
_nV$ = -112						; size = 4
_brEndMark$4 = -108					; size = 8
tv1520 = -104						; size = 4
tv1517 = -104						; size = 4
_clrEndMark$1$ = -100					; size = 4
_dClose$5 = -96						; size = 8
_nBoundCenter$1$ = -92					; size = 4
$T6 = -88						; size = 8
_this$GSCopy$1$ = -84					; size = 4
_pIDoubleList$1$ = -84					; size = 4
_pIGraphInfo$1$ = -84					; size = 4
_clrEndMark$2$ = -80					; size = 4
tv1498 = -80						; size = 4
_clrUp$1$ = -80						; size = 4
_pDC$1$ = -76						; size = 4
_rctNoFrameAndMargin$ = -72				; size = 16
_rctUpMark$7 = -56					; size = 16
_rctDownMark$8 = -56					; size = 16
$T9 = -56						; size = 16
_pnEndMark$10 = -48					; size = 8
_dSteady$11 = -48					; size = 8
_pnSteady$12 = -48					; size = 8
_nCloseX$1$ = -44					; size = 4
_pIPacket$1$ = -44					; size = 4
_pIGraphInfoManager$1$ = -44				; size = 4
_ptClose$13 = -40					; size = 24
__$ArrayPad$ = -16					; size = 4
__$EHRec$ = -12						; size = 12
_p_hDC$ = 8						; size = 4
?OnDrawBeforeGraph@CBoundMarkerAddInImp@@MAEXPAUHDC__@@@Z PROC ; CBoundMarkerAddInImp::OnDrawBeforeGraph, COMDAT
; _this$ = ecx

; 184  : {

  00000	55		 push	 ebp
  00001	8b ec		 mov	 ebp, esp
  00003	6a ff		 push	 -1
  00005	68 00 00 00 00	 push	 __ehhandler$?OnDrawBeforeGraph@CBoundMarkerAddInImp@@MAEXPAUHDC__@@@Z
  0000a	64 a1 00 00 00
	00		 mov	 eax, DWORD PTR fs:0
  00010	50		 push	 eax
  00011	81 ec 88 00 00
	00		 sub	 esp, 136		; 00000088H
  00017	a1 00 00 00 00	 mov	 eax, DWORD PTR ___security_cookie
  0001c	33 c5		 xor	 eax, ebp
  0001e	89 45 f0	 mov	 DWORD PTR __$ArrayPad$[ebp], eax
  00021	56		 push	 esi
  00022	57		 push	 edi
  00023	50		 push	 eax
  00024	8d 45 f4	 lea	 eax, DWORD PTR __$EHRec$[ebp]
  00027	64 a3 00 00 00
	00		 mov	 DWORD PTR fs:0, eax
  0002d	8b f1		 mov	 esi, ecx
  0002f	89 75 ac	 mov	 DWORD PTR _this$GSCopy$1$[ebp], esi
  00032	8b 45 08	 mov	 eax, DWORD PTR _p_hDC$[ebp]

; 185  : 	CDC *pDC = CDC::FromHandle( p_hDC);

  00035	50		 push	 eax
  00036	e8 00 00 00 00	 call	 ?FromHandle@CDC@@SGPAV1@PAUHDC__@@@Z ; CDC::FromHandle
  0003b	89 45 b4	 mov	 DWORD PTR _pDC$1$[ebp], eax

; 186  : 	if( !pDC) return;

  0003e	85 c0		 test	 eax, eax
  00040	0f 84 e4 05 00
	00		 je	 $LN101@OnDrawBefo

; 189  : 	m_rctBoundMark.SetRectEmpty();

  00046	8d 46 64	 lea	 eax, DWORD PTR [esi+100]
; File C:\Program Files (x86)\Microsoft Visual Studio\2019\Community\VC\Tools\MSVC\14.29.30133\atlmfc\include\atltypes.h

; 669  : 	::SetRectEmpty(this);

  00049	50		 push	 eax
; File D:\git\src\IBK\IBK_DRFN\ProjSrc\SrcChartEx\ChartOCX\AddInManager\ChartCommonAddIn\BoundMarkerAddInImp.cpp

; 189  : 	m_rctBoundMark.SetRectEmpty();

  0004a	89 45 98	 mov	 DWORD PTR tv1517[ebp], eax
; File C:\Program Files (x86)\Microsoft Visual Studio\2019\Community\VC\Tools\MSVC\14.29.30133\atlmfc\include\atltypes.h

; 669  : 	::SetRectEmpty(this);

  0004d	ff 15 00 00 00
	00		 call	 DWORD PTR __imp__SetRectEmpty@4
; File D:\git\src\IBK\IBK_DRFN\ProjSrc\SrcChartEx\ChartOCX\AddInManager\ChartCommonAddIn\BoundMarkerAddInImp.cpp

; 192  : 	if( !m_bEnableMark) return;

  00053	83 7e 58 00	 cmp	 DWORD PTR [esi+88], 0
  00057	0f 84 cd 05 00
	00		 je	 $LN101@OnDrawBefo

; 193  : 
; 194  : 	// (2004.09.15, )     .
; 195  : 	if( m_pIChartOCX->IsOnSpecialChart()) return;

  0005d	8b 4e 04	 mov	 ecx, DWORD PTR [esi+4]
  00060	8b 01		 mov	 eax, DWORD PTR [ecx]
  00062	8b 80 84 00 00
	00		 mov	 eax, DWORD PTR [eax+132]
  00068	ff d0		 call	 eax
  0006a	85 c0		 test	 eax, eax
  0006c	0f 85 b8 05 00
	00		 jne	 $LN101@OnDrawBefo
; File C:\Program Files (x86)\Microsoft Visual Studio\2019\Community\VC\Tools\MSVC\14.29.30133\atlmfc\include\atlsimpstr.h

; 519  : 		return( GetData()->nDataLength );

  00072	8b 56 50	 mov	 edx, DWORD PTR [esi+80]

; 533  : 		return( GetLength() == 0 );

  00075	39 42 f4	 cmp	 DWORD PTR [edx-12], eax
; File D:\git\src\IBK\IBK_DRFN\ProjSrc\SrcChartEx\ChartOCX\AddInManager\ChartCommonAddIn\BoundMarkerAddInImp.cpp

; 198  : 	if( m_strIndicatorName.IsEmpty()) return;

  00078	0f 84 ac 05 00
	00		 je	 $LN101@OnDrawBefo

; 204  : 	ILPCSTR szGraphName = m_pIChartManager->FindFirstIndicator( m_strIndicatorName, nR, nC, nV, nG, "DEFAULT");

  0007e	8b 4e 1c	 mov	 ecx, DWORD PTR [esi+28]
  00081	8d bd 6c ff ff
	ff		 lea	 edi, DWORD PTR _nG$[ebp]
  00087	68 00 00 00 00	 push	 OFFSET ??_C@_07MGCPDNLD@DEFAULT@
  0008c	57		 push	 edi
  0008d	8d 7d 90	 lea	 edi, DWORD PTR _nV$[ebp]
  00090	8b 01		 mov	 eax, DWORD PTR [ecx]
  00092	57		 push	 edi
  00093	8d 7d 8c	 lea	 edi, DWORD PTR _nC$[ebp]
  00096	57		 push	 edi
  00097	8b 40 70	 mov	 eax, DWORD PTR [eax+112]
  0009a	8d 7d 88	 lea	 edi, DWORD PTR _nR$[ebp]
  0009d	57		 push	 edi
  0009e	52		 push	 edx
  0009f	ff d0		 call	 eax
; File D:\git\src\IBK\IBK_DRFN\ProjSrc\SrcChartEx\ChartOCX\AddInManager\Include_AddIn\I000000\_IString.h

; 39   : 		m_pIStrData = p_pIString;	// Do not AddRef(). Because It must be Return Value.

  000a1	89 85 74 ff ff
	ff		 mov	 DWORD PTR _szGraphName$[ebp+4], eax

; 40   : 		if( m_pIStrData) m_szData = m_pIStrData->GetData();

  000a7	85 c0		 test	 eax, eax
  000a9	74 0b		 je	 SHORT $LN51@OnDrawBefo
  000ab	8b 10		 mov	 edx, DWORD PTR [eax]
  000ad	8b c8		 mov	 ecx, eax
  000af	8b 52 10	 mov	 edx, DWORD PTR [edx+16]
  000b2	ff d2		 call	 edx
  000b4	eb 02		 jmp	 SHORT $LN129@OnDrawBefo
$LN51@OnDrawBefo:

; 41   : 		else m_szData = NULL;

  000b6	33 c0		 xor	 eax, eax
$LN129@OnDrawBefo:
; File D:\git\src\IBK\IBK_DRFN\ProjSrc\SrcChartEx\ChartOCX\AddInManager\ChartCommonAddIn\BoundMarkerAddInImp.cpp

; 204  : 	ILPCSTR szGraphName = m_pIChartManager->FindFirstIndicator( m_strIndicatorName, nR, nC, nV, nG, "DEFAULT");

  000b8	89 85 70 ff ff
	ff		 mov	 DWORD PTR _szGraphName$[ebp], eax
  000be	c7 45 fc 00 00
	00 00		 mov	 DWORD PTR __$EHRec$[ebp+8], 0
; File D:\git\src\IBK\IBK_DRFN\ProjSrc\SrcChartEx\ChartOCX\AddInManager\Include_AddIn\I000000\_IString.h

; 57   : 		if( !m_szData) return TRUE;

  000c5	85 c0		 test	 eax, eax
  000c7	0f 84 46 05 00
	00		 je	 $LN38@OnDrawBefo
; File D:\git\src\IBK\IBK_DRFN\ProjSrc\SrcChartEx\ChartOCX\AddInManager\ChartCommonAddIn\BoundMarkerAddInImp.cpp

; 205  : 	if( szGraphName.IsEmpty()) return;

  000cd	80 38 00	 cmp	 BYTE PTR [eax], 0
  000d0	0f 84 3d 05 00
	00		 je	 $LN38@OnDrawBefo

; 206  : 	// (2004.09.22, ) Bound Mark Block   .
; 207  : 	// 2. Bound Mark   .
; 208  : 	// 2.1 (2004.09.23, ) Bound Mark Block  Border   2 Pixel  .
; 209  : 	//		  Border Line  Color  .
; 210  : 	// (2006/6/16 - Seung-Won, Bae) Use Block Interface
; 211  : 	IBlock *pIBlock = m_pIChartManager->GetBlock( nR, nC);

  000d6	8b 4e 1c	 mov	 ecx, DWORD PTR [esi+28]
  000d9	ff 75 8c	 push	 DWORD PTR _nC$[ebp]
  000dc	ff 75 88	 push	 DWORD PTR _nR$[ebp]
  000df	8b 01		 mov	 eax, DWORD PTR [ecx]
  000e1	8b 40 38	 mov	 eax, DWORD PTR [eax+56]
  000e4	ff d0		 call	 eax
  000e6	8b f8		 mov	 edi, eax

; 212  : 	if( !pIBlock) return;

  000e8	85 ff		 test	 edi, edi
  000ea	0f 84 23 05 00
	00		 je	 $LN38@OnDrawBefo

; 214  : 	pIBlock->GetGraphRegions( m_rctGraphRegion, rctNoFrameAndMargin);

  000f0	0f 57 c0	 xorps	 xmm0, xmm0
  000f3	8d 45 b8	 lea	 eax, DWORD PTR _rctNoFrameAndMargin$[ebp]
; File C:\Program Files (x86)\Microsoft Visual Studio\2019\Community\VC\Tools\MSVC\14.29.30133\atlmfc\include\atltypes.h

; 528  : 	left = 0;

  000f6	0f 11 45 b8	 movups	 XMMWORD PTR _rctNoFrameAndMargin$[ebp], xmm0
; File D:\git\src\IBK\IBK_DRFN\ProjSrc\SrcChartEx\ChartOCX\AddInManager\ChartCommonAddIn\BoundMarkerAddInImp.cpp

; 214  : 	pIBlock->GetGraphRegions( m_rctGraphRegion, rctNoFrameAndMargin);

  000fa	8b 17		 mov	 edx, DWORD PTR [edi]
  000fc	8b cf		 mov	 ecx, edi
  000fe	50		 push	 eax
  000ff	8d 46 74	 lea	 eax, DWORD PTR [esi+116]
  00102	50		 push	 eax
  00103	ff 52 10	 call	 DWORD PTR [edx+16]

; 215  : 	m_rctBoundMark.left = m_rctGraphRegion.right - 1; //-2

  00106	8b 4e 7c	 mov	 ecx, DWORD PTR [esi+124]

; 216  : 	m_rctBoundMark.right = m_rctGraphRegion.right + 2;//3		// FillRect Drawing   1 Pixel 
; 217  : 	// 2.2 Bound Mark  .
; 218  : 	// 2.2.0 View Min/Max  .
; 219  : 	pIBlock->GetVScaleGroupMinMax( nV, m_dViewMin, m_dViewMax);

  00109	8d 96 98 00 00
	00		 lea	 edx, DWORD PTR [esi+152]
  0010f	8d 41 ff	 lea	 eax, DWORD PTR [ecx-1]
  00112	89 46 64	 mov	 DWORD PTR [esi+100], eax
  00115	8d 41 02	 lea	 eax, DWORD PTR [ecx+2]
  00118	8d 8e a0 00 00
	00		 lea	 ecx, DWORD PTR [esi+160]
  0011e	89 46 6c	 mov	 DWORD PTR [esi+108], eax
  00121	8b 07		 mov	 eax, DWORD PTR [edi]
  00123	51		 push	 ecx
  00124	52		 push	 edx
  00125	ff 75 90	 push	 DWORD PTR _nV$[ebp]
  00128	8b cf		 mov	 ecx, edi
  0012a	ff 50 48	 call	 DWORD PTR [eax+72]

; 220  : 	// (2007/1/15 - Seung-Won, Bae) Check No Data in Block
; 221  : 	if( m_dViewMin == m_dViewMax && m_dViewMax == -HUGE_VAL) return;

  0012d	f2 0f 10 8e a0
	00 00 00	 movsd	 xmm1, QWORD PTR [esi+160]
  00135	f2 0f 10 86 98
	00 00 00	 movsd	 xmm0, QWORD PTR [esi+152]
  0013d	66 0f 2e c1	 ucomisd xmm0, xmm1
  00141	9f		 lahf
  00142	f6 c4 44	 test	 ah, 68			; 00000044H
  00145	7a 12		 jp	 SHORT $LN8@OnDrawBefo
  00147	66 0f 2e 0d 00
	00 00 00	 ucomisd xmm1, QWORD PTR __real@fff0000000000000
  0014f	9f		 lahf
  00150	f6 c4 44	 test	 ah, 68			; 00000044H
  00153	0f 8b ba 04 00
	00		 jnp	 $LN38@OnDrawBefo
$LN8@OnDrawBefo:

; 222  : 	// (2004.10.27, ) Block Log/    Data . (<->Y Pos)
; 223  : 	// 2.2.1  Block Log/  .
; 224  : 	m_bLog = pIBlock->IsLogScale();

  00159	8b 07		 mov	 eax, DWORD PTR [edi]
  0015b	8b cf		 mov	 ecx, edi
  0015d	8b 40 24	 mov	 eax, DWORD PTR [eax+36]
  00160	ff d0		 call	 eax

; 225  : 	m_bReverse = pIBlock->IsVScaleInvert( nV);

  00162	ff 75 90	 push	 DWORD PTR _nV$[ebp]
  00165	89 46 5c	 mov	 DWORD PTR [esi+92], eax
  00168	8b cf		 mov	 ecx, edi
  0016a	8b 07		 mov	 eax, DWORD PTR [edi]
  0016c	8b 40 58	 mov	 eax, DWORD PTR [eax+88]
  0016f	ff d0		 call	 eax
  00171	89 46 60	 mov	 DWORD PTR [esi+96], eax

; 227  : 	m_rctGraphDrawingRegion		= pIBlock->GetGraphDrwingRegion();

  00174	8d 4d c8	 lea	 ecx, DWORD PTR $T9[ebp]
  00177	8b 07		 mov	 eax, DWORD PTR [edi]
  00179	6a 00		 push	 0
  0017b	51		 push	 ecx
  0017c	8b cf		 mov	 ecx, edi
  0017e	8b 40 1c	 mov	 eax, DWORD PTR [eax+28]
  00181	ff d0		 call	 eax
; File C:\Program Files (x86)\Microsoft Visual Studio\2019\Community\VC\Tools\MSVC\14.29.30133\atlmfc\include\atltypes.h

; 765  : 	::CopyRect(this, &srcRect);

  00183	50		 push	 eax
; File D:\git\src\IBK\IBK_DRFN\ProjSrc\SrcChartEx\ChartOCX\AddInManager\ChartCommonAddIn\BoundMarkerAddInImp.cpp

; 227  : 	m_rctGraphDrawingRegion		= pIBlock->GetGraphDrwingRegion();

  00184	8d 86 84 00 00
	00		 lea	 eax, DWORD PTR [esi+132]
; File C:\Program Files (x86)\Microsoft Visual Studio\2019\Community\VC\Tools\MSVC\14.29.30133\atlmfc\include\atltypes.h

; 765  : 	::CopyRect(this, &srcRect);

  0018a	50		 push	 eax
  0018b	ff 15 00 00 00
	00		 call	 DWORD PTR __imp__CopyRect@8
; File D:\git\src\IBK\IBK_DRFN\ProjSrc\SrcChartEx\ChartOCX\AddInManager\ChartCommonAddIn\BoundMarkerAddInImp.cpp

; 228  : 	m_rctBoundMark.top		= m_pIChartOCX->ConvertDataToYPosition( m_dUpperBound, m_dViewMax, m_dViewMin, m_rctGraphDrawingRegion.top, m_rctGraphDrawingRegion.bottom, m_bLog, m_bReverse);

  00191	ff 76 60	 push	 DWORD PTR [esi+96]
  00194	8b 4e 04	 mov	 ecx, DWORD PTR [esi+4]
  00197	ff 76 5c	 push	 DWORD PTR [esi+92]
  0019a	f2 0f 10 86 98
	00 00 00	 movsd	 xmm0, QWORD PTR [esi+152]
  001a2	ff b6 90 00 00
	00		 push	 DWORD PTR [esi+144]
  001a8	8b 01		 mov	 eax, DWORD PTR [ecx]
  001aa	ff b6 88 00 00
	00		 push	 DWORD PTR [esi+136]
  001b0	83 ec 18	 sub	 esp, 24			; 00000018H
  001b3	8b 80 2c 01 00
	00		 mov	 eax, DWORD PTR [eax+300]
  001b9	f2 0f 11 44 24
	10		 movsd	 QWORD PTR [esp+16], xmm0
  001bf	f2 0f 10 86 a0
	00 00 00	 movsd	 xmm0, QWORD PTR [esi+160]
  001c7	f2 0f 11 44 24
	08		 movsd	 QWORD PTR [esp+8], xmm0
  001cd	f2 0f 10 46 38	 movsd	 xmm0, QWORD PTR [esi+56]
  001d2	f2 0f 11 04 24	 movsd	 QWORD PTR [esp], xmm0
  001d7	ff d0		 call	 eax

; 229  : 	// 2.2.3   .
; 230  : 	m_rctBoundMark.bottom	= m_pIChartOCX->ConvertDataToYPosition( m_dLowerBound, m_dViewMax, m_dViewMin, m_rctGraphDrawingRegion.top, m_rctGraphDrawingRegion.bottom, m_bLog, m_bReverse);

  001d9	ff 76 60	 push	 DWORD PTR [esi+96]
  001dc	8b 4e 04	 mov	 ecx, DWORD PTR [esi+4]
  001df	ff 76 5c	 push	 DWORD PTR [esi+92]
  001e2	f2 0f 10 86 98
	00 00 00	 movsd	 xmm0, QWORD PTR [esi+152]
  001ea	ff b6 90 00 00
	00		 push	 DWORD PTR [esi+144]
  001f0	89 46 68	 mov	 DWORD PTR [esi+104], eax
  001f3	ff b6 88 00 00
	00		 push	 DWORD PTR [esi+136]
  001f9	8b 01		 mov	 eax, DWORD PTR [ecx]
  001fb	83 ec 18	 sub	 esp, 24			; 00000018H
  001fe	8b 80 2c 01 00
	00		 mov	 eax, DWORD PTR [eax+300]
  00204	f2 0f 11 44 24
	10		 movsd	 QWORD PTR [esp+16], xmm0
  0020a	f2 0f 10 86 a0
	00 00 00	 movsd	 xmm0, QWORD PTR [esi+160]
  00212	f2 0f 11 44 24
	08		 movsd	 QWORD PTR [esp+8], xmm0
  00218	f2 0f 10 46 40	 movsd	 xmm0, QWORD PTR [esi+64]
  0021d	f2 0f 11 04 24	 movsd	 QWORD PTR [esp], xmm0
  00222	ff d0		 call	 eax
  00224	89 46 70	 mov	 DWORD PTR [esi+112], eax

; 231  : 	pIBlock->Release();

  00227	8b 07		 mov	 eax, DWORD PTR [edi]
  00229	57		 push	 edi
  0022a	ff 50 08	 call	 DWORD PTR [eax+8]

; 232  : 	pIBlock = NULL;
; 233  : 
; 234  : 	// (2004.10.27, ) Block Log/    Data . (<->Y Pos)
; 235  : 	//		''  Bound Mark  . (     .)
; 236  : 	if( m_bReverse)

  0022d	8b 46 60	 mov	 eax, DWORD PTR [esi+96]
  00230	89 45 b0	 mov	 DWORD PTR tv1498[ebp], eax
  00233	85 c0		 test	 eax, eax
  00235	74 0e		 je	 SHORT $LN124@OnDrawBefo

; 237  : 	{
; 238  : 		int nTemp				= m_rctBoundMark.top;

  00237	8b 46 68	 mov	 eax, DWORD PTR [esi+104]

; 239  : 		m_rctBoundMark.top		= m_rctBoundMark.bottom;

  0023a	8b 4e 70	 mov	 ecx, DWORD PTR [esi+112]
  0023d	89 4e 68	 mov	 DWORD PTR [esi+104], ecx

; 240  : 		m_rctBoundMark.bottom	= nTemp;

  00240	89 46 70	 mov	 DWORD PTR [esi+112], eax
  00243	eb 03		 jmp	 SHORT $LN9@OnDrawBefo
$LN124@OnDrawBefo:
  00245	8b 4e 68	 mov	 ecx, DWORD PTR [esi+104]
$LN9@OnDrawBefo:

; 241  : 	}
; 242  : 
; 243  : 	// 3. Bound Mark .
; 244  : 	// 3.0  Box   .
; 245  : 	// (2004.10.01, ) Drawing  GraphRegion  BlockRegion .
; 246  : 	//		(GraphRegion BlockReion    ,        .)
; 247  : 	if( m_rctGraphRegion.bottom <= m_rctBoundMark.top || m_rctBoundMark.bottom <= m_rctGraphDrawingRegion.top)

  00248	8b 86 80 00 00
	00		 mov	 eax, DWORD PTR [esi+128]
  0024e	3b c1		 cmp	 eax, ecx
  00250	0f 8e b4 03 00
	00		 jle	 $LN11@OnDrawBefo
  00256	8b 7e 70	 mov	 edi, DWORD PTR [esi+112]
  00259	3b be 88 00 00
	00		 cmp	 edi, DWORD PTR [esi+136]
  0025f	0f 8e a5 03 00
	00		 jle	 $LN11@OnDrawBefo

; 248  : 	{
; 249  : 		m_rctBoundMark.SetRectEmpty();
; 250  : 		return;
; 251  : 	}
; 252  : 	// 3.1 Bound Mark / . (Block  )
; 253  : 	//	,    Graph Region  Block Region ,     .
; 254  : 	if( m_rctBoundMark.top < m_rctGraphRegion.top)			m_rctBoundMark.top = m_rctGraphRegion.top;

  00265	8b 56 78	 mov	 edx, DWORD PTR [esi+120]
  00268	3b ca		 cmp	 ecx, edx
  0026a	7d 03		 jge	 SHORT $LN125@OnDrawBefo
  0026c	89 56 68	 mov	 DWORD PTR [esi+104], edx
$LN125@OnDrawBefo:

; 255  : 	if( m_rctGraphRegion.bottom < m_rctBoundMark.bottom)	m_rctBoundMark.bottom = m_rctGraphRegion.bottom;

  0026f	3b c7		 cmp	 eax, edi
  00271	7d 03		 jge	 SHORT $LN126@OnDrawBefo
  00273	89 46 70	 mov	 DWORD PTR [esi+112], eax
$LN126@OnDrawBefo:

; 256  : 
; 257  : 	// 3.2 Bound Mark     Mark  .
; 258  : 	// (2004.10.27, ) Block Log/    Data . (<->Y Pos)
; 259  : 	int nBoundCenter = m_pIChartOCX->ConvertDataToYPosition(GetSteadyPrice(), //sy 2005.11.18.

  00276	8b 45 ac	 mov	 eax, DWORD PTR _this$GSCopy$1$[ebp]
  00279	8d 4e f8	 lea	 ecx, DWORD PTR [esi-8]
  0027c	ff 75 b0	 push	 DWORD PTR tv1498[ebp]
  0027f	8b 76 04	 mov	 esi, DWORD PTR [esi+4]
  00282	ff 70 5c	 push	 DWORD PTR [eax+92]
  00285	f2 0f 10 80 98
	00 00 00	 movsd	 xmm0, QWORD PTR [eax+152]
  0028d	ff b0 90 00 00
	00		 push	 DWORD PTR [eax+144]
  00293	8b 3e		 mov	 edi, DWORD PTR [esi]
  00295	ff b0 88 00 00
	00		 push	 DWORD PTR [eax+136]
  0029b	83 ec 10	 sub	 esp, 16			; 00000010H
  0029e	f2 0f 11 44 24
	08		 movsd	 QWORD PTR [esp+8], xmm0
  002a4	f2 0f 10 80 a0
	00 00 00	 movsd	 xmm0, QWORD PTR [eax+160]
  002ac	f2 0f 11 04 24	 movsd	 QWORD PTR [esp], xmm0
  002b1	e8 00 00 00 00	 call	 ?GetSteadyPrice@CBoundMarkerAddInImp@@ABENXZ ; CBoundMarkerAddInImp::GetSteadyPrice
  002b6	8b 87 2c 01 00
	00		 mov	 eax, DWORD PTR [edi+300]
  002bc	83 ec 08	 sub	 esp, 8
  002bf	8b ce		 mov	 ecx, esi
  002c1	dd 1c 24	 fstp	 QWORD PTR [esp]
  002c4	ff d0		 call	 eax

; 260  : 		m_dViewMax, m_dViewMin, m_rctGraphDrawingRegion.top, m_rctGraphDrawingRegion.bottom, m_bLog, m_bReverse);
; 261  : 	// (2004.09.23, ) //   Bound Mark .
; 262  : 	// 3.2.5.1   .
; 263  : 	COLORREF clrUp		= RGB( 255,	0, 0);
; 264  : 	COLORREF clrDown	= RGB( 0,	0, 255);
; 265  : 	COLORREF clrSteady	= RGB( 0,	0, 0);
; 266  : 	// 3.2.5.2   .
; 267  : 	IGraphInfoManager *pIGraphInfoManager = m_pIChartOCX->GetIGraphInfoManager();

  002c6	8b 7d ac	 mov	 edi, DWORD PTR _this$GSCopy$1$[ebp]
  002c9	be 00 00 ff 00	 mov	 esi, 16711680		; 00ff0000H
  002ce	89 45 a4	 mov	 DWORD PTR _nBoundCenter$1$[ebp], eax
  002d1	c7 45 b0 ff 00
	00 00		 mov	 DWORD PTR _clrUp$1$[ebp], 255 ; 000000ffH
  002d8	c7 45 9c 00 00
	00 00		 mov	 DWORD PTR _clrEndMark$1$[ebp], 0
  002df	8b 4f 04	 mov	 ecx, DWORD PTR [edi+4]
  002e2	8b 11		 mov	 edx, DWORD PTR [ecx]
  002e4	8b 52 24	 mov	 edx, DWORD PTR [edx+36]
  002e7	ff d2		 call	 edx
  002e9	89 45 d4	 mov	 DWORD PTR _pIGraphInfoManager$1$[ebp], eax

; 268  : 	if( pIGraphInfoManager)

  002ec	85 c0		 test	 eax, eax
  002ee	74 5a		 je	 SHORT $LN14@OnDrawBefo

; 269  : 	{
; 270  : 		// (2006/9/20 - Seung-Won, Bae) Use IGraphInfo
; 271  : 		IGraphInfo *pIGraphInfo = pIGraphInfoManager->GetGraphInfo( IGraphInfoManager::IEILT_USER, m_strIndicatorName);

  002f0	8b 10		 mov	 edx, DWORD PTR [eax]
  002f2	8b c8		 mov	 ecx, eax
  002f4	ff 77 50	 push	 DWORD PTR [edi+80]
  002f7	6a 03		 push	 3
  002f9	8b 52 10	 mov	 edx, DWORD PTR [edx+16]
  002fc	ff d2		 call	 edx
  002fe	89 45 ac	 mov	 DWORD PTR _pIGraphInfo$1$[ebp], eax

; 272  : 		if( pIGraphInfo)

  00301	85 c0		 test	 eax, eax
  00303	74 3c		 je	 SHORT $LN15@OnDrawBefo

; 273  : 		{
; 274  : 			clrUp		= pIGraphInfo->GetSubGraphColorWithZBI( 0, 0);

  00305	8b 10		 mov	 edx, DWORD PTR [eax]
  00307	8b c8		 mov	 ecx, eax
  00309	6a 00		 push	 0
  0030b	6a 00		 push	 0
  0030d	8b 52 6c	 mov	 edx, DWORD PTR [edx+108]
  00310	ff d2		 call	 edx

; 275  : 			clrDown		= pIGraphInfo->GetSubGraphColorWithZBI( 0, 2);

  00312	8b 4d ac	 mov	 ecx, DWORD PTR _pIGraphInfo$1$[ebp]
  00315	6a 02		 push	 2
  00317	6a 00		 push	 0
  00319	89 45 b0	 mov	 DWORD PTR _clrUp$1$[ebp], eax
  0031c	8b 11		 mov	 edx, DWORD PTR [ecx]
  0031e	8b 52 6c	 mov	 edx, DWORD PTR [edx+108]
  00321	ff d2		 call	 edx
  00323	8b f0		 mov	 esi, eax

; 276  : 			clrSteady	= pIGraphInfo->GetSubGraphColorWithZBI( 0, 4);

  00325	8b 45 ac	 mov	 eax, DWORD PTR _pIGraphInfo$1$[ebp]
  00328	6a 04		 push	 4
  0032a	6a 00		 push	 0
  0032c	8b c8		 mov	 ecx, eax
  0032e	8b 10		 mov	 edx, DWORD PTR [eax]
  00330	8b 52 6c	 mov	 edx, DWORD PTR [edx+108]
  00333	ff d2		 call	 edx
  00335	89 45 9c	 mov	 DWORD PTR _clrEndMark$1$[ebp], eax

; 277  : 			
; 278  : 			pIGraphInfo->Release();

  00338	8b 45 ac	 mov	 eax, DWORD PTR _pIGraphInfo$1$[ebp]
  0033b	50		 push	 eax
  0033c	8b 08		 mov	 ecx, DWORD PTR [eax]
  0033e	ff 51 08	 call	 DWORD PTR [ecx+8]
$LN15@OnDrawBefo:

; 279  : 		}
; 280  : 		pIGraphInfoManager->Release();

  00341	8b 45 d4	 mov	 eax, DWORD PTR _pIGraphInfoManager$1$[ebp]
  00344	50		 push	 eax
  00345	8b 08		 mov	 ecx, DWORD PTR [eax]
  00347	ff 51 08	 call	 DWORD PTR [ecx+8]
$LN14@OnDrawBefo:

; 281  : 	}
; 282  : 
; 283  : 	// (2004.10.27, ) Block Log/    Data . (<->Y Pos)
; 284  : 	//		   ,   . (    .)
; 285  : 	if( m_bReverse)

  0034a	8b 47 60	 mov	 eax, DWORD PTR [edi+96]

; 295  : 	if( nBoundCenter < m_rctGraphRegion.bottom)

  0034d	85 c0		 test	 eax, eax
  0034f	8b 55 b0	 mov	 edx, DWORD PTR _clrUp$1$[ebp]
  00352	8b 4d a4	 mov	 ecx, DWORD PTR _nBoundCenter$1$[ebp]
  00355	0f 44 d6	 cmove	 edx, esi
  00358	0f 44 75 b0	 cmove	 esi, DWORD PTR _clrUp$1$[ebp]
  0035c	89 55 98	 mov	 DWORD PTR tv1520[ebp], edx
  0035f	89 75 b0	 mov	 DWORD PTR _clrEndMark$2$[ebp], esi
  00362	3b 8f 80 00 00
	00		 cmp	 ecx, DWORD PTR [edi+128]
  00368	7d 4c		 jge	 SHORT $LN127@OnDrawBefo

; 296  : 	{
; 297  : 		// 3.3.1  Mark  .
; 298  : 		CRect rctDownMark( m_rctBoundMark);

  0036a	0f 10 47 64	 movups	 xmm0, XMMWORD PTR [edi+100]

; 299  : 		if( rctDownMark.top < nBoundCenter) rctDownMark.top = nBoundCenter;
; 300  : 		// 3.3.2  Mark .
; 301  : 		//	(FillRect Right, Bottom Pixel Drawing    Bottom 1 Pixel .)
; 302  : 		CBrush brDownMark( clrDown);

  0036e	52		 push	 edx
  0036f	0f 11 45 c8	 movups	 XMMWORD PTR _rctDownMark$8[ebp], xmm0
  00373	66 0f 73 d8 04	 psrldq	 xmm0, 4
  00378	66 0f 7e c0	 movd	 eax, xmm0
  0037c	3b c1		 cmp	 eax, ecx
  0037e	0f 4c c1	 cmovl	 eax, ecx
  00381	8d 4d 80	 lea	 ecx, DWORD PTR _brDownMark$3[ebp]
  00384	89 45 cc	 mov	 DWORD PTR _rctDownMark$8[ebp+4], eax
  00387	e8 00 00 00 00	 call	 ??0CBrush@@QAE@K@Z	; CBrush::CBrush
; File C:\Program Files (x86)\Microsoft Visual Studio\2019\Community\VC\Tools\MSVC\14.29.30133\atlmfc\include\afxwin1.inl

; 476  : 	{ ASSERT(m_hDC != NULL); ::FillRect(m_hDC, lpRect, (HBRUSH)pBrush->GetSafeHandle()); }

  0038c	ff 75 84	 push	 DWORD PTR _brDownMark$3[ebp+4]
  0038f	8b 75 b4	 mov	 esi, DWORD PTR _pDC$1$[ebp]
  00392	8d 45 c8	 lea	 eax, DWORD PTR _rctDownMark$8[ebp]
; File D:\git\src\IBK\IBK_DRFN\ProjSrc\SrcChartEx\ChartOCX\AddInManager\ChartCommonAddIn\BoundMarkerAddInImp.cpp

; 303  : 		rctDownMark.bottom++;

  00395	ff 45 d4	 inc	 DWORD PTR _rctDownMark$8[ebp+12]
; File C:\Program Files (x86)\Microsoft Visual Studio\2019\Community\VC\Tools\MSVC\14.29.30133\atlmfc\include\afxwin1.inl

; 476  : 	{ ASSERT(m_hDC != NULL); ::FillRect(m_hDC, lpRect, (HBRUSH)pBrush->GetSafeHandle()); }

  00398	50		 push	 eax
  00399	ff 76 04	 push	 DWORD PTR [esi+4]
  0039c	ff 15 00 00 00
	00		 call	 DWORD PTR __imp__FillRect@12

; 130  : 	{ }

  003a2	8d 4d 80	 lea	 ecx, DWORD PTR _brDownMark$3[ebp]
  003a5	c7 45 80 00 00
	00 00		 mov	 DWORD PTR _brDownMark$3[ebp], OFFSET ??_7CBrush@@6B@
  003ac	e8 00 00 00 00	 call	 ??1CGdiObject@@UAE@XZ	; CGdiObject::~CGdiObject
; File D:\git\src\IBK\IBK_DRFN\ProjSrc\SrcChartEx\ChartOCX\AddInManager\ChartCommonAddIn\BoundMarkerAddInImp.cpp

; 295  : 	if( nBoundCenter < m_rctGraphRegion.bottom)

  003b1	8b 4d a4	 mov	 ecx, DWORD PTR _nBoundCenter$1$[ebp]
  003b4	eb 03		 jmp	 SHORT $LN72@OnDrawBefo
$LN127@OnDrawBefo:
  003b6	8b 75 b4	 mov	 esi, DWORD PTR _pDC$1$[ebp]
$LN72@OnDrawBefo:

; 304  : 		pDC->FillRect( &rctDownMark, &brDownMark);
; 305  : 	}
; 306  : 
; 307  : 	// 3.4  Mark .
; 308  : 	// (2004.10.01, ) Drawing  GraphRegion  BlockRegion .
; 309  : 	//		(GraphRegion BlockReion    ,        .)
; 310  : 	if( m_rctGraphRegion.top < nBoundCenter)

  003b9	39 4f 78	 cmp	 DWORD PTR [edi+120], ecx
  003bc	7d 55		 jge	 SHORT $LN81@OnDrawBefo

; 311  : 	{
; 312  : 		// 3.4.1  Mark  .
; 313  : 		CRect rctUpMark( m_rctBoundMark);

  003be	0f 10 47 64	 movups	 xmm0, XMMWORD PTR [edi+100]

; 314  : 		if( nBoundCenter < rctUpMark.bottom) rctUpMark.bottom = nBoundCenter;
; 315  : 		// 3.3.2  Mark .
; 316  : 		//	(FillRect Right, Bottom Pixel Drawing    Bottom 1 Pixel .)
; 317  : 		CBrush brUpMark( clrUp);

  003c2	ff 75 b0	 push	 DWORD PTR _clrEndMark$2$[ebp]
  003c5	0f 11 45 c8	 movups	 XMMWORD PTR _rctUpMark$7[ebp], xmm0
  003c9	66 0f 73 d8 0c	 psrldq	 xmm0, 12		; 0000000cH
  003ce	66 0f 7e c0	 movd	 eax, xmm0
  003d2	3b c8		 cmp	 ecx, eax
  003d4	0f 4c c1	 cmovl	 eax, ecx
  003d7	8d 8d 78 ff ff
	ff		 lea	 ecx, DWORD PTR _brUpMark$2[ebp]
  003dd	89 45 d4	 mov	 DWORD PTR _rctUpMark$7[ebp+12], eax
  003e0	e8 00 00 00 00	 call	 ??0CBrush@@QAE@K@Z	; CBrush::CBrush
; File C:\Program Files (x86)\Microsoft Visual Studio\2019\Community\VC\Tools\MSVC\14.29.30133\atlmfc\include\afxwin1.inl

; 476  : 	{ ASSERT(m_hDC != NULL); ::FillRect(m_hDC, lpRect, (HBRUSH)pBrush->GetSafeHandle()); }

  003e5	ff b5 7c ff ff
	ff		 push	 DWORD PTR _brUpMark$2[ebp+4]
; File D:\git\src\IBK\IBK_DRFN\ProjSrc\SrcChartEx\ChartOCX\AddInManager\ChartCommonAddIn\BoundMarkerAddInImp.cpp

; 318  : 		rctUpMark.bottom++;

  003eb	ff 45 d4	 inc	 DWORD PTR _rctUpMark$7[ebp+12]
; File C:\Program Files (x86)\Microsoft Visual Studio\2019\Community\VC\Tools\MSVC\14.29.30133\atlmfc\include\afxwin1.inl

; 476  : 	{ ASSERT(m_hDC != NULL); ::FillRect(m_hDC, lpRect, (HBRUSH)pBrush->GetSafeHandle()); }

  003ee	8d 45 c8	 lea	 eax, DWORD PTR _rctUpMark$7[ebp]
  003f1	50		 push	 eax
  003f2	ff 76 04	 push	 DWORD PTR [esi+4]
  003f5	ff 15 00 00 00
	00		 call	 DWORD PTR __imp__FillRect@12

; 130  : 	{ }

  003fb	8d 8d 78 ff ff
	ff		 lea	 ecx, DWORD PTR _brUpMark$2[ebp]
  00401	c7 85 78 ff ff
	ff 00 00 00 00	 mov	 DWORD PTR _brUpMark$2[ebp], OFFSET ??_7CBrush@@6B@
  0040b	e8 00 00 00 00	 call	 ??1CGdiObject@@UAE@XZ	; CGdiObject::~CGdiObject
  00410	8b 4d a4	 mov	 ecx, DWORD PTR _nBoundCenter$1$[ebp]
$LN81@OnDrawBefo:
; File D:\git\src\IBK\IBK_DRFN\ProjSrc\SrcChartEx\ChartOCX\AddInManager\ChartCommonAddIn\BoundMarkerAddInImp.cpp

; 325  : 	if( nBoundCenter < m_rctGraphRegion.bottom && m_rctGraphRegion.top < nBoundCenter)

  00413	3b 8f 80 00 00
	00		 cmp	 ecx, DWORD PTR [edi+128]
  00419	7d 63		 jge	 SHORT $LN84@OnDrawBefo
  0041b	39 4f 78	 cmp	 DWORD PTR [edi+120], ecx
  0041e	7d 5e		 jge	 SHORT $LN84@OnDrawBefo

; 326  : 	{
; 327  : 		CPen pnSteady( PS_SOLID, 1, clrSteady);

  00420	ff 75 9c	 push	 DWORD PTR _clrEndMark$1$[ebp]
  00423	8d 4d d0	 lea	 ecx, DWORD PTR _pnSteady$12[ebp]
  00426	6a 01		 push	 1
  00428	6a 00		 push	 0
  0042a	e8 00 00 00 00	 call	 ??0CPen@@QAE@HHK@Z	; CPen::CPen

; 328  : 		CPen *ppnOld = pDC->SelectObject( &pnSteady);

  0042f	8d 45 d0	 lea	 eax, DWORD PTR _pnSteady$12[ebp]
  00432	c6 45 fc 01	 mov	 BYTE PTR __$EHRec$[ebp+8], 1
  00436	50		 push	 eax
  00437	8b ce		 mov	 ecx, esi
  00439	e8 00 00 00 00	 call	 ?SelectObject@CDC@@QAEPAVCPen@@PAV2@@Z ; CDC::SelectObject

; 329  : 		pDC->MoveTo( m_rctBoundMark.left,	nBoundCenter);

  0043e	ff 75 a4	 push	 DWORD PTR _nBoundCenter$1$[ebp]
  00441	8b 4d b4	 mov	 ecx, DWORD PTR _pDC$1$[ebp]
  00444	8b f0		 mov	 esi, eax
  00446	ff 77 64	 push	 DWORD PTR [edi+100]
  00449	8d 45 a8	 lea	 eax, DWORD PTR $T6[ebp]
  0044c	50		 push	 eax
  0044d	e8 00 00 00 00	 call	 ?MoveTo@CDC@@QAE?AVCPoint@@HH@Z ; CDC::MoveTo

; 330  : 		pDC->LineTo( m_rctBoundMark.right,	nBoundCenter);

  00452	ff 75 a4	 push	 DWORD PTR _nBoundCenter$1$[ebp]
  00455	8b 4d b4	 mov	 ecx, DWORD PTR _pDC$1$[ebp]
  00458	ff 77 6c	 push	 DWORD PTR [edi+108]
  0045b	e8 00 00 00 00	 call	 ?LineTo@CDC@@QAEHHH@Z	; CDC::LineTo

; 331  : 		pDC->SelectObject( ppnOld);

  00460	56		 push	 esi
  00461	8b 75 b4	 mov	 esi, DWORD PTR _pDC$1$[ebp]
  00464	8b ce		 mov	 ecx, esi
  00466	e8 00 00 00 00	 call	 ?SelectObject@CDC@@QAEPAVCPen@@PAV2@@Z ; CDC::SelectObject
; File C:\Program Files (x86)\Microsoft Visual Studio\2019\Community\VC\Tools\MSVC\14.29.30133\atlmfc\include\afxwin1.inl

; 106  : 	{ }

  0046b	8d 4d d0	 lea	 ecx, DWORD PTR _pnSteady$12[ebp]
; File D:\git\src\IBK\IBK_DRFN\ProjSrc\SrcChartEx\ChartOCX\AddInManager\ChartCommonAddIn\BoundMarkerAddInImp.cpp

; 332  : 	}

  0046e	c6 45 fc 00	 mov	 BYTE PTR __$EHRec$[ebp+8], 0
; File C:\Program Files (x86)\Microsoft Visual Studio\2019\Community\VC\Tools\MSVC\14.29.30133\atlmfc\include\afxwin1.inl

; 106  : 	{ }

  00472	c7 45 d0 00 00
	00 00		 mov	 DWORD PTR _pnSteady$12[ebp], OFFSET ??_7CPen@@6B@
  00479	e8 00 00 00 00	 call	 ??1CGdiObject@@UAE@XZ	; CGdiObject::~CGdiObject
$LN84@OnDrawBefo:
; File D:\git\src\IBK\IBK_DRFN\ProjSrc\SrcChartEx\ChartOCX\AddInManager\ChartCommonAddIn\BoundMarkerAddInImp.cpp

; 336  : 	IPacket *pIPacket = m_pIDefaultPacketManager->GetPacket( _MTEXT( C0_CLOSE));

  0047e	8b 4f 18	 mov	 ecx, DWORD PTR [edi+24]
  00481	a1 54 00 00 00	 mov	 eax, DWORD PTR ?g_iMetaTable@@3VIMetaTable@@A+84
  00486	8b 11		 mov	 edx, DWORD PTR [ecx]
  00488	ff 70 14	 push	 DWORD PTR [eax+20]
  0048b	8b 42 10	 mov	 eax, DWORD PTR [edx+16]
  0048e	ff d0		 call	 eax
  00490	89 45 d4	 mov	 DWORD PTR _pIPacket$1$[ebp], eax

; 337  : 	if( pIPacket)

  00493	85 c0		 test	 eax, eax
  00495	0f 84 78 01 00
	00		 je	 $LN38@OnDrawBefo

; 338  : 	{
; 339  : 		IDoubleList *pIDoubleList = pIPacket->GetDataList();

  0049b	8b 10		 mov	 edx, DWORD PTR [eax]
  0049d	8b c8		 mov	 ecx, eax
  0049f	8b 52 5c	 mov	 edx, DWORD PTR [edx+92]
  004a2	ff d2		 call	 edx
  004a4	89 45 ac	 mov	 DWORD PTR _pIDoubleList$1$[ebp], eax

; 340  : 		pIPacket->Release();

  004a7	8b 45 d4	 mov	 eax, DWORD PTR _pIPacket$1$[ebp]
  004aa	50		 push	 eax
  004ab	8b 08		 mov	 ecx, DWORD PTR [eax]
  004ad	ff 51 08	 call	 DWORD PTR [ecx+8]

; 341  : 		if( pIDoubleList)

  004b0	8b 4d ac	 mov	 ecx, DWORD PTR _pIDoubleList$1$[ebp]
  004b3	85 c9		 test	 ecx, ecx
  004b5	0f 84 58 01 00
	00		 je	 $LN38@OnDrawBefo

; 342  : 		{
; 343  : 			// (2004.12.17, ) GetTail()     .
; 344  : 			if( pIDoubleList && !pIDoubleList->IsEmpty())

  004bb	8b 01		 mov	 eax, DWORD PTR [ecx]
  004bd	8b 40 14	 mov	 eax, DWORD PTR [eax+20]
  004c0	ff d0		 call	 eax
  004c2	85 c0		 test	 eax, eax
  004c4	0f 85 35 01 00
	00		 jne	 $LN98@OnDrawBefo

; 345  : 			{
; 346  : 				// 4.2  Marking Position .
; 347  : 				double dClose;
; 348  : 				pIDoubleList->GetTail( dClose);

  004ca	8b 4d ac	 mov	 ecx, DWORD PTR _pIDoubleList$1$[ebp]
  004cd	8d 55 a0	 lea	 edx, DWORD PTR _dClose$5[ebp]
  004d0	52		 push	 edx
  004d1	8b 01		 mov	 eax, DWORD PTR [ecx]
  004d3	ff 50 1c	 call	 DWORD PTR [eax+28]

; 349  : 				int nCloseX = m_rctBoundMark.right;
; 350  : 				int nCloseY = m_pIChartOCX->ConvertDataToYPosition( dClose, m_dViewMax, m_dViewMin, m_rctGraphDrawingRegion.top, m_rctGraphDrawingRegion.bottom, m_bLog, m_bReverse);

  004d6	ff 77 60	 push	 DWORD PTR [edi+96]
  004d9	8b 4f 04	 mov	 ecx, DWORD PTR [edi+4]
  004dc	ff 77 5c	 push	 DWORD PTR [edi+92]
  004df	8b 47 6c	 mov	 eax, DWORD PTR [edi+108]
  004e2	ff b7 90 00 00
	00		 push	 DWORD PTR [edi+144]
  004e8	f2 0f 10 87 98
	00 00 00	 movsd	 xmm0, QWORD PTR [edi+152]
  004f0	ff b7 88 00 00
	00		 push	 DWORD PTR [edi+136]
  004f6	89 45 d4	 mov	 DWORD PTR _nCloseX$1$[ebp], eax
  004f9	8b 01		 mov	 eax, DWORD PTR [ecx]
  004fb	83 ec 18	 sub	 esp, 24			; 00000018H
  004fe	8b 80 2c 01 00
	00		 mov	 eax, DWORD PTR [eax+300]
  00504	f2 0f 11 44 24
	10		 movsd	 QWORD PTR [esp+16], xmm0
  0050a	f2 0f 10 87 a0
	00 00 00	 movsd	 xmm0, QWORD PTR [edi+160]
  00512	f2 0f 11 44 24
	08		 movsd	 QWORD PTR [esp+8], xmm0
  00518	f2 0f 10 45 a0	 movsd	 xmm0, QWORD PTR _dClose$5[ebp]
  0051d	f2 0f 11 04 24	 movsd	 QWORD PTR [esp], xmm0
  00522	ff d0		 call	 eax
  00524	8b c8		 mov	 ecx, eax

; 351  : 				// 4.3       .
; 352  : 				if( m_rctBoundMark.top <= nCloseY && nCloseY <= m_rctBoundMark.bottom)

  00526	39 4f 68	 cmp	 DWORD PTR [edi+104], ecx
  00529	0f 8f d0 00 00
	00		 jg	 $LN98@OnDrawBefo
  0052f	3b 4f 70	 cmp	 ecx, DWORD PTR [edi+112]
  00532	0f 8f c7 00 00
	00		 jg	 $LN98@OnDrawBefo

; 353  : 				{
; 354  : 					CPoint ptClose[ 3];
; 355  : 					ptClose[ 0].x = nCloseX;

  00538	8b 45 d4	 mov	 eax, DWORD PTR _nCloseX$1$[ebp]
  0053b	89 45 d8	 mov	 DWORD PTR _ptClose$13[ebp], eax

; 356  : 					ptClose[ 0].y = nCloseY;

  0053e	89 4d dc	 mov	 DWORD PTR _ptClose$13[ebp+4], ecx

; 357  : 					ptClose[ 1].x = nCloseX	+ 5;

  00541	8d 50 05	 lea	 edx, DWORD PTR [eax+5]

; 358  : 					ptClose[ 1].y = nCloseY	+ 5;

  00544	8d 41 05	 lea	 eax, DWORD PTR [ecx+5]
  00547	89 55 e0	 mov	 DWORD PTR _ptClose$13[ebp+8], edx
  0054a	89 45 e4	 mov	 DWORD PTR _ptClose$13[ebp+12], eax

; 359  : 					ptClose[ 2].x = nCloseX	+ 5;
; 360  : 					ptClose[ 2].y = nCloseY	- 5;

  0054d	8d 41 fb	 lea	 eax, DWORD PTR [ecx-5]

; 361  : 
; 362  : 					// (2004.12.14, )      (/)  .(:)
; 363  : 					COLORREF clrEndMark = clrSteady;
; 364  : 					//sy 2005.11.18.
; 365  : 					//double dSteady = ( m_dUpperBound + m_dLowerBound) / 2;
; 366  : 					double dSteady = GetSteadyPrice();

  00550	8d 4f f8	 lea	 ecx, DWORD PTR [edi-8]
  00553	89 55 e8	 mov	 DWORD PTR _ptClose$13[ebp+16], edx
  00556	89 45 ec	 mov	 DWORD PTR _ptClose$13[ebp+20], eax
  00559	e8 00 00 00 00	 call	 ?GetSteadyPrice@CBoundMarkerAddInImp@@ABENXZ ; CBoundMarkerAddInImp::GetSteadyPrice

; 367  : 					//sy end
; 368  : 					if( dSteady < dClose)		clrEndMark = clrUp;

  0055e	f2 0f 10 45 a0	 movsd	 xmm0, QWORD PTR _dClose$5[ebp]
  00563	dd 5d d0	 fstp	 QWORD PTR _dSteady$11[ebp]
  00566	f2 0f 10 4d d0	 movsd	 xmm1, QWORD PTR _dSteady$11[ebp]
  0056b	66 0f 2f c1	 comisd	 xmm0, xmm1
  0056f	76 05		 jbe	 SHORT $LN26@OnDrawBefo
  00571	8b 7d b0	 mov	 edi, DWORD PTR _clrEndMark$2$[ebp]
  00574	eb 0b		 jmp	 SHORT $LN28@OnDrawBefo
$LN26@OnDrawBefo:

; 369  : 					else if( dClose < dSteady)	clrEndMark = clrDown;

  00576	8b 7d 9c	 mov	 edi, DWORD PTR _clrEndMark$1$[ebp]
  00579	66 0f 2f c8	 comisd	 xmm1, xmm0
  0057d	0f 47 7d 98	 cmova	 edi, DWORD PTR tv1520[ebp]
$LN28@OnDrawBefo:

; 370  : 
; 371  : 					CPen	pnEndMark( PS_SOLID, 1, clrEndMark);

  00581	57		 push	 edi
  00582	6a 01		 push	 1
  00584	6a 00		 push	 0
  00586	8d 4d d0	 lea	 ecx, DWORD PTR _pnEndMark$10[ebp]
  00589	e8 00 00 00 00	 call	 ??0CPen@@QAE@HHK@Z	; CPen::CPen

; 372  : 					CBrush	brEndMark( clrEndMark);

  0058e	57		 push	 edi
  0058f	8d 4d 94	 lea	 ecx, DWORD PTR _brEndMark$4[ebp]
  00592	c6 45 fc 02	 mov	 BYTE PTR __$EHRec$[ebp+8], 2
  00596	e8 00 00 00 00	 call	 ??0CBrush@@QAE@K@Z	; CBrush::CBrush

; 373  : 
; 374  : 					CPen *ppnOld	= pDC->SelectObject( &pnEndMark);

  0059b	8d 45 d0	 lea	 eax, DWORD PTR _pnEndMark$10[ebp]
  0059e	c6 45 fc 03	 mov	 BYTE PTR __$EHRec$[ebp+8], 3
  005a2	50		 push	 eax
  005a3	8b ce		 mov	 ecx, esi
  005a5	e8 00 00 00 00	 call	 ?SelectObject@CDC@@QAEPAVCPen@@PAV2@@Z ; CDC::SelectObject
  005aa	8b f8		 mov	 edi, eax

; 375  : 					CBrush *pbrOld	= pDC->SelectObject( &brEndMark);

  005ac	8b ce		 mov	 ecx, esi
  005ae	8d 45 94	 lea	 eax, DWORD PTR _brEndMark$4[ebp]
  005b1	50		 push	 eax
  005b2	e8 00 00 00 00	 call	 ?SelectObject@CDC@@QAEPAVCBrush@@PAV2@@Z ; CDC::SelectObject
  005b7	8b f0		 mov	 esi, eax
; File C:\Program Files (x86)\Microsoft Visual Studio\2019\Community\VC\Tools\MSVC\14.29.30133\atlmfc\include\afxwin1.inl

; 535  : 	{ ASSERT(m_hDC != NULL); return ::Polygon(m_hDC, lpPoints, nCount); }

  005b9	8d 45 d8	 lea	 eax, DWORD PTR _ptClose$13[ebp]
  005bc	6a 03		 push	 3
  005be	50		 push	 eax
  005bf	8b 45 b4	 mov	 eax, DWORD PTR _pDC$1$[ebp]
  005c2	ff 70 04	 push	 DWORD PTR [eax+4]
  005c5	ff 15 00 00 00
	00		 call	 DWORD PTR __imp__Polygon@12
; File D:\git\src\IBK\IBK_DRFN\ProjSrc\SrcChartEx\ChartOCX\AddInManager\ChartCommonAddIn\BoundMarkerAddInImp.cpp

; 379  : 					pDC->SelectObject( ppnOld);

  005cb	8b 4d b4	 mov	 ecx, DWORD PTR _pDC$1$[ebp]
  005ce	57		 push	 edi
  005cf	e8 00 00 00 00	 call	 ?SelectObject@CDC@@QAEPAVCPen@@PAV2@@Z ; CDC::SelectObject

; 380  : 					pDC->SelectObject( pbrOld);

  005d4	8b 4d b4	 mov	 ecx, DWORD PTR _pDC$1$[ebp]
  005d7	56		 push	 esi
  005d8	e8 00 00 00 00	 call	 ?SelectObject@CDC@@QAEPAVCBrush@@PAV2@@Z ; CDC::SelectObject
; File C:\Program Files (x86)\Microsoft Visual Studio\2019\Community\VC\Tools\MSVC\14.29.30133\atlmfc\include\afxwin1.inl

; 130  : 	{ }

  005dd	8d 4d 94	 lea	 ecx, DWORD PTR _brEndMark$4[ebp]
  005e0	c7 45 94 00 00
	00 00		 mov	 DWORD PTR _brEndMark$4[ebp], OFFSET ??_7CBrush@@6B@
  005e7	e8 00 00 00 00	 call	 ??1CGdiObject@@UAE@XZ	; CGdiObject::~CGdiObject

; 106  : 	{ }

  005ec	8d 4d d0	 lea	 ecx, DWORD PTR _pnEndMark$10[ebp]
; File D:\git\src\IBK\IBK_DRFN\ProjSrc\SrcChartEx\ChartOCX\AddInManager\ChartCommonAddIn\BoundMarkerAddInImp.cpp

; 381  : 				}

  005ef	c6 45 fc 00	 mov	 BYTE PTR __$EHRec$[ebp+8], 0
; File C:\Program Files (x86)\Microsoft Visual Studio\2019\Community\VC\Tools\MSVC\14.29.30133\atlmfc\include\afxwin1.inl

; 106  : 	{ }

  005f3	c7 45 d0 00 00
	00 00		 mov	 DWORD PTR _pnEndMark$10[ebp], OFFSET ??_7CPen@@6B@
  005fa	e8 00 00 00 00	 call	 ??1CGdiObject@@UAE@XZ	; CGdiObject::~CGdiObject
$LN98@OnDrawBefo:
; File D:\git\src\IBK\IBK_DRFN\ProjSrc\SrcChartEx\ChartOCX\AddInManager\ChartCommonAddIn\BoundMarkerAddInImp.cpp

; 383  : 			pIDoubleList->Release();

  005ff	8b 4d ac	 mov	 ecx, DWORD PTR _pIDoubleList$1$[ebp]
  00602	51		 push	 ecx
  00603	8b 01		 mov	 eax, DWORD PTR [ecx]
  00605	ff 50 08	 call	 DWORD PTR [eax+8]
  00608	eb 09		 jmp	 SHORT $LN38@OnDrawBefo
$LN11@OnDrawBefo:
; File C:\Program Files (x86)\Microsoft Visual Studio\2019\Community\VC\Tools\MSVC\14.29.30133\atlmfc\include\atltypes.h

; 669  : 	::SetRectEmpty(this);

  0060a	ff 75 98	 push	 DWORD PTR tv1517[ebp]
  0060d	ff 15 00 00 00
	00		 call	 DWORD PTR __imp__SetRectEmpty@4
$LN38@OnDrawBefo:
; File D:\git\src\IBK\IBK_DRFN\ProjSrc\SrcChartEx\ChartOCX\AddInManager\Include_AddIn\I000000\_IString.h

; 45   : 		if( m_pIStrData)

  00613	8b 8d 74 ff ff
	ff		 mov	 ecx, DWORD PTR _szGraphName$[ebp+4]
  00619	c7 45 fc 04 00
	00 00		 mov	 DWORD PTR __$EHRec$[ebp+8], 4
  00620	85 c9		 test	 ecx, ecx
  00622	74 06		 je	 SHORT $LN101@OnDrawBefo

; 46   : 		{
; 47   : 			m_pIStrData->Release();

  00624	8b 01		 mov	 eax, DWORD PTR [ecx]
  00626	51		 push	 ecx
  00627	ff 50 08	 call	 DWORD PTR [eax+8]
$LN101@OnDrawBefo:
; File D:\git\src\IBK\IBK_DRFN\ProjSrc\SrcChartEx\ChartOCX\AddInManager\ChartCommonAddIn\BoundMarkerAddInImp.cpp

; 386  : }

  0062a	8b 4d f4	 mov	 ecx, DWORD PTR __$EHRec$[ebp]
  0062d	64 89 0d 00 00
	00 00		 mov	 DWORD PTR fs:0, ecx
  00634	59		 pop	 ecx
  00635	5f		 pop	 edi
  00636	5e		 pop	 esi
  00637	8b 4d f0	 mov	 ecx, DWORD PTR __$ArrayPad$[ebp]
  0063a	33 cd		 xor	 ecx, ebp
  0063c	e8 00 00 00 00	 call	 @__security_check_cookie@4
  00641	8b e5		 mov	 esp, ebp
  00643	5d		 pop	 ebp
  00644	c2 04 00	 ret	 4
_TEXT	ENDS
;	COMDAT text$x
text$x	SEGMENT
__unwindfunclet$?OnDrawBeforeGraph@CBoundMarkerAddInImp@@MAEXPAUHDC__@@@Z$0:
  00000	8d 8d 70 ff ff
	ff		 lea	 ecx, DWORD PTR _szGraphName$[ebp]
  00006	e9 00 00 00 00	 jmp	 ??1ILPCSTR000000@@QAE@XZ ; ILPCSTR000000::~ILPCSTR000000
__unwindfunclet$?OnDrawBeforeGraph@CBoundMarkerAddInImp@@MAEXPAUHDC__@@@Z$3:
  0000b	8d 4d d0	 lea	 ecx, DWORD PTR _pnSteady$12[ebp]
  0000e	e9 00 00 00 00	 jmp	 ??1CPen@@UAE@XZ		; CPen::~CPen
__unwindfunclet$?OnDrawBeforeGraph@CBoundMarkerAddInImp@@MAEXPAUHDC__@@@Z$4:
  00013	8d 4d d0	 lea	 ecx, DWORD PTR _pnEndMark$10[ebp]
  00016	e9 00 00 00 00	 jmp	 ??1CPen@@UAE@XZ		; CPen::~CPen
__unwindfunclet$?OnDrawBeforeGraph@CBoundMarkerAddInImp@@MAEXPAUHDC__@@@Z$5:
  0001b	8d 4d 94	 lea	 ecx, DWORD PTR _brEndMark$4[ebp]
  0001e	e9 00 00 00 00	 jmp	 ??1CBrush@@UAE@XZ	; CBrush::~CBrush
  00023	cc		 int	 3
  00024	cc		 int	 3
  00025	cc		 int	 3
  00026	cc		 int	 3
  00027	cc		 int	 3
__ehhandler$?OnDrawBeforeGraph@CBoundMarkerAddInImp@@MAEXPAUHDC__@@@Z:
  00028	90		 npad	 1
  00029	90		 npad	 1
  0002a	8b 54 24 08	 mov	 edx, DWORD PTR [esp+8]
  0002e	8d 42 0c	 lea	 eax, DWORD PTR [edx+12]
  00031	8b 8a 6c ff ff
	ff		 mov	 ecx, DWORD PTR [edx-148]
  00037	33 c8		 xor	 ecx, eax
  00039	e8 00 00 00 00	 call	 @__security_check_cookie@4
  0003e	8b 4a fc	 mov	 ecx, DWORD PTR [edx-4]
  00041	33 c8		 xor	 ecx, eax
  00043	e8 00 00 00 00	 call	 @__security_check_cookie@4
  00048	b8 00 00 00 00	 mov	 eax, OFFSET __ehfuncinfo$?OnDrawBeforeGraph@CBoundMarkerAddInImp@@MAEXPAUHDC__@@@Z
  0004d	e9 00 00 00 00	 jmp	 ___CxxFrameHandler3
text$x	ENDS
?OnDrawBeforeGraph@CBoundMarkerAddInImp@@MAEXPAUHDC__@@@Z ENDP ; CBoundMarkerAddInImp::OnDrawBeforeGraph
; Function compile flags: /Ogtp
; File D:\git\src\IBK\IBK_DRFN\ProjSrc\SrcChartEx\ChartOCX\AddInManager\ChartCommonAddIn\BoundMarkerAddInImp.cpp
;	COMDAT ?GetSteadyPrice@CBoundMarkerAddInImp@@ABENXZ
_TEXT	SEGMENT
tv130 = -8						; size = 8
?GetSteadyPrice@CBoundMarkerAddInImp@@ABENXZ PROC	; CBoundMarkerAddInImp::GetSteadyPrice, COMDAT
; _this$ = ecx

; 167  : {

  00000	55		 push	 ebp
  00001	8b ec		 mov	 ebp, esp
  00003	83 ec 08	 sub	 esp, 8

; 168  : 	if(m_dYesterdayClosePrice != 0)

  00006	f2 0f 10 41 50	 movsd	 xmm0, QWORD PTR [ecx+80]
  0000b	66 0f 2e 05 00
	00 00 00	 ucomisd xmm0, QWORD PTR __real@0000000000000000
  00013	f2 0f 11 45 f8	 movsd	 QWORD PTR tv130[ebp], xmm0
  00018	9f		 lahf
  00019	f6 c4 44	 test	 ah, 68			; 00000044H
  0001c	7b 07		 jnp	 SHORT $LN2@GetSteadyP

; 169  : 		return m_dYesterdayClosePrice;

  0001e	dd 45 f8	 fld	 QWORD PTR tv130[ebp]

; 172  : }

  00021	8b e5		 mov	 esp, ebp
  00023	5d		 pop	 ebp
  00024	c3		 ret	 0
$LN2@GetSteadyP:

; 170  : 
; 171  : 	return ((m_dUpperBound + m_dLowerBound) / 2.0);

  00025	dd 41 48	 fld	 QWORD PTR [ecx+72]
  00028	dc 41 40	 fadd	 QWORD PTR [ecx+64]
  0002b	dc 0d 00 00 00
	00		 fmul	 QWORD PTR __real@3fe0000000000000

; 172  : }

  00031	8b e5		 mov	 esp, ebp
  00033	5d		 pop	 ebp
  00034	c3		 ret	 0
?GetSteadyPrice@CBoundMarkerAddInImp@@ABENXZ ENDP	; CBoundMarkerAddInImp::GetSteadyPrice
_TEXT	ENDS
; Function compile flags: /Ogtp
; File D:\git\src\IBK\IBK_DRFN\ProjSrc\SrcChartEx\ChartOCX\AddInManager\ChartCommonAddIn\BoundMarkerAddInImp.cpp
;	COMDAT ?GetYesterdayClosePrice@CBoundMarkerAddInImp@@ABENXZ
_TEXT	SEGMENT
?GetYesterdayClosePrice@CBoundMarkerAddInImp@@ABENXZ PROC ; CBoundMarkerAddInImp::GetYesterdayClosePrice, COMDAT
; _this$ = ecx

; 163  : 	return m_dYesterdayClosePrice;

  00000	dd 41 50	 fld	 QWORD PTR [ecx+80]

; 164  : }

  00003	c3		 ret	 0
?GetYesterdayClosePrice@CBoundMarkerAddInImp@@ABENXZ ENDP ; CBoundMarkerAddInImp::GetYesterdayClosePrice
_TEXT	ENDS
; Function compile flags: /Ogtp
; File D:\git\src\IBK\IBK_DRFN\ProjSrc\SrcChartEx\ChartOCX\AddInManager\ChartCommonAddIn\BoundMarkerAddInImp.cpp
;	COMDAT ?SetYesterdayClosePrice@CBoundMarkerAddInImp@@AAEXABV?$CStringT@DV?$StrTraitMFC_DLL@DV?$ChTraitsCRT@D@ATL@@@@@ATL@@@Z
_TEXT	SEGMENT
$T2 = -24						; size = 4
$T3 = -24						; size = 4
_strPrice$ = -20					; size = 4
$T4 = -16						; size = 4
$T5 = -16						; size = 4
$T6 = -16						; size = 4
__$EHRec$ = -12						; size = 12
_strTemp$ = 8						; size = 4
_strData$ = 8						; size = 4
?SetYesterdayClosePrice@CBoundMarkerAddInImp@@AAEXABV?$CStringT@DV?$StrTraitMFC_DLL@DV?$ChTraitsCRT@D@ATL@@@@@ATL@@@Z PROC ; CBoundMarkerAddInImp::SetYesterdayClosePrice, COMDAT
; _this$ = ecx

; 152  : {

  00000	55		 push	 ebp
  00001	8b ec		 mov	 ebp, esp
  00003	6a ff		 push	 -1
  00005	68 00 00 00 00	 push	 __ehhandler$?SetYesterdayClosePrice@CBoundMarkerAddInImp@@AAEXABV?$CStringT@DV?$StrTraitMFC_DLL@DV?$ChTraitsCRT@D@ATL@@@@@ATL@@@Z
  0000a	64 a1 00 00 00
	00		 mov	 eax, DWORD PTR fs:0
  00010	50		 push	 eax
  00011	83 ec 0c	 sub	 esp, 12			; 0000000cH
  00014	56		 push	 esi
  00015	a1 00 00 00 00	 mov	 eax, DWORD PTR ___security_cookie
  0001a	33 c5		 xor	 eax, ebp
  0001c	50		 push	 eax
  0001d	8d 45 f4	 lea	 eax, DWORD PTR __$EHRec$[ebp]
  00020	64 a3 00 00 00
	00		 mov	 DWORD PTR fs:0, eax
  00026	8b f1		 mov	 esi, ecx

; 153  : 	CString strTemp = strData;

  00028	ff 75 08	 push	 DWORD PTR _strData$[ebp]
  0002b	8d 4d 08	 lea	 ecx, DWORD PTR _strTemp$[ebp]
  0002e	ff 15 00 00 00
	00		 call	 DWORD PTR __imp_??0?$CStringT@DV?$StrTraitMFC_DLL@DV?$ChTraitsCRT@D@ATL@@@@@ATL@@QAE@ABV01@@Z

; 154  : 	CDataConversion::GetStringData(strTemp, ":");//

  00034	68 00 00 00 00	 push	 OFFSET ??_C@_01JLIPDDHJ@?3@
  00039	8d 4d f0	 lea	 ecx, DWORD PTR $T6[ebp]
  0003c	c7 45 fc 00 00
	00 00		 mov	 DWORD PTR __$EHRec$[ebp+8], 0
  00043	ff 15 00 00 00
	00		 call	 DWORD PTR __imp_??0?$CStringT@DV?$StrTraitMFC_DLL@DV?$ChTraitsCRT@D@ATL@@@@@ATL@@QAE@PBD@Z
  00049	6a 01		 push	 1
  0004b	8d 45 f0	 lea	 eax, DWORD PTR $T6[ebp]
  0004e	c6 45 fc 01	 mov	 BYTE PTR __$EHRec$[ebp+8], 1
  00052	50		 push	 eax
  00053	8d 45 08	 lea	 eax, DWORD PTR _strTemp$[ebp]
  00056	50		 push	 eax
  00057	8d 45 e8	 lea	 eax, DWORD PTR $T3[ebp]
  0005a	50		 push	 eax
  0005b	e8 00 00 00 00	 call	 ?GetStringData@CDataConversion@@SA?AV?$CStringT@DV?$StrTraitMFC_DLL@DV?$ChTraitsCRT@D@ATL@@@@@ATL@@AAV23@ABV23@_N@Z ; CDataConversion::GetStringData
  00060	83 c4 10	 add	 esp, 16			; 00000010H
  00063	8d 4d e8	 lea	 ecx, DWORD PTR $T3[ebp]
  00066	ff 15 00 00 00
	00		 call	 DWORD PTR __imp_??1?$CStringT@DV?$StrTraitMFC_DLL@DV?$ChTraitsCRT@D@ATL@@@@@ATL@@QAE@XZ
  0006c	8d 4d f0	 lea	 ecx, DWORD PTR $T6[ebp]
  0006f	c6 45 fc 00	 mov	 BYTE PTR __$EHRec$[ebp+8], 0
  00073	ff 15 00 00 00
	00		 call	 DWORD PTR __imp_??1?$CStringT@DV?$StrTraitMFC_DLL@DV?$ChTraitsCRT@D@ATL@@@@@ATL@@QAE@XZ

; 155  : 	CDataConversion::GetStringData(strTemp, ":");//??

  00079	68 00 00 00 00	 push	 OFFSET ??_C@_01JLIPDDHJ@?3@
  0007e	8d 4d f0	 lea	 ecx, DWORD PTR $T5[ebp]
  00081	ff 15 00 00 00
	00		 call	 DWORD PTR __imp_??0?$CStringT@DV?$StrTraitMFC_DLL@DV?$ChTraitsCRT@D@ATL@@@@@ATL@@QAE@PBD@Z
  00087	6a 01		 push	 1
  00089	8d 45 f0	 lea	 eax, DWORD PTR $T5[ebp]
  0008c	c6 45 fc 02	 mov	 BYTE PTR __$EHRec$[ebp+8], 2
  00090	50		 push	 eax
  00091	8d 45 08	 lea	 eax, DWORD PTR _strTemp$[ebp]
  00094	50		 push	 eax
  00095	8d 45 e8	 lea	 eax, DWORD PTR $T2[ebp]
  00098	50		 push	 eax
  00099	e8 00 00 00 00	 call	 ?GetStringData@CDataConversion@@SA?AV?$CStringT@DV?$StrTraitMFC_DLL@DV?$ChTraitsCRT@D@ATL@@@@@ATL@@AAV23@ABV23@_N@Z ; CDataConversion::GetStringData
  0009e	83 c4 10	 add	 esp, 16			; 00000010H
  000a1	8d 4d e8	 lea	 ecx, DWORD PTR $T2[ebp]
  000a4	ff 15 00 00 00
	00		 call	 DWORD PTR __imp_??1?$CStringT@DV?$StrTraitMFC_DLL@DV?$ChTraitsCRT@D@ATL@@@@@ATL@@QAE@XZ
  000aa	8d 4d f0	 lea	 ecx, DWORD PTR $T5[ebp]
  000ad	c6 45 fc 00	 mov	 BYTE PTR __$EHRec$[ebp+8], 0
  000b1	ff 15 00 00 00
	00		 call	 DWORD PTR __imp_??1?$CStringT@DV?$StrTraitMFC_DLL@DV?$ChTraitsCRT@D@ATL@@@@@ATL@@QAE@XZ

; 156  : 	CString strPrice = CDataConversion::GetStringData(strTemp, ":");//

  000b7	68 00 00 00 00	 push	 OFFSET ??_C@_01JLIPDDHJ@?3@
  000bc	8d 4d f0	 lea	 ecx, DWORD PTR $T4[ebp]
  000bf	ff 15 00 00 00
	00		 call	 DWORD PTR __imp_??0?$CStringT@DV?$StrTraitMFC_DLL@DV?$ChTraitsCRT@D@ATL@@@@@ATL@@QAE@PBD@Z
  000c5	6a 01		 push	 1
  000c7	8d 45 f0	 lea	 eax, DWORD PTR $T4[ebp]
  000ca	c6 45 fc 03	 mov	 BYTE PTR __$EHRec$[ebp+8], 3
  000ce	50		 push	 eax
  000cf	8d 45 08	 lea	 eax, DWORD PTR _strTemp$[ebp]
  000d2	50		 push	 eax
  000d3	8d 45 ec	 lea	 eax, DWORD PTR _strPrice$[ebp]
  000d6	50		 push	 eax
  000d7	e8 00 00 00 00	 call	 ?GetStringData@CDataConversion@@SA?AV?$CStringT@DV?$StrTraitMFC_DLL@DV?$ChTraitsCRT@D@ATL@@@@@ATL@@AAV23@ABV23@_N@Z ; CDataConversion::GetStringData
  000dc	83 c4 10	 add	 esp, 16			; 00000010H
  000df	8d 4d f0	 lea	 ecx, DWORD PTR $T4[ebp]
  000e2	ff 15 00 00 00
	00		 call	 DWORD PTR __imp_??1?$CStringT@DV?$StrTraitMFC_DLL@DV?$ChTraitsCRT@D@ATL@@@@@ATL@@QAE@XZ

; 157  : 
; 158  : 	m_dYesterdayClosePrice = atof(strPrice);

  000e8	ff 75 ec	 push	 DWORD PTR _strPrice$[ebp]
  000eb	ff 15 00 00 00
	00		 call	 DWORD PTR __imp__atof
  000f1	83 c4 04	 add	 esp, 4

; 159  : }

  000f4	8d 4d ec	 lea	 ecx, DWORD PTR _strPrice$[ebp]
  000f7	dd 5e 50	 fstp	 QWORD PTR [esi+80]
  000fa	ff 15 00 00 00
	00		 call	 DWORD PTR __imp_??1?$CStringT@DV?$StrTraitMFC_DLL@DV?$ChTraitsCRT@D@ATL@@@@@ATL@@QAE@XZ
  00100	8d 4d 08	 lea	 ecx, DWORD PTR _strTemp$[ebp]
  00103	ff 15 00 00 00
	00		 call	 DWORD PTR __imp_??1?$CStringT@DV?$StrTraitMFC_DLL@DV?$ChTraitsCRT@D@ATL@@@@@ATL@@QAE@XZ
  00109	8b 4d f4	 mov	 ecx, DWORD PTR __$EHRec$[ebp]
  0010c	64 89 0d 00 00
	00 00		 mov	 DWORD PTR fs:0, ecx
  00113	59		 pop	 ecx
  00114	5e		 pop	 esi
  00115	8b e5		 mov	 esp, ebp
  00117	5d		 pop	 ebp
  00118	c2 04 00	 ret	 4
_TEXT	ENDS
;	COMDAT text$x
text$x	SEGMENT
__unwindfunclet$?SetYesterdayClosePrice@CBoundMarkerAddInImp@@AAEXABV?$CStringT@DV?$StrTraitMFC_DLL@DV?$ChTraitsCRT@D@ATL@@@@@ATL@@@Z$0:
  00000	8d 4d 08	 lea	 ecx, DWORD PTR _strTemp$[ebp]
  00003	ff 25 00 00 00
	00		 jmp	 DWORD PTR __imp_??1?$CStringT@DV?$StrTraitMFC_DLL@DV?$ChTraitsCRT@D@ATL@@@@@ATL@@QAE@XZ
__unwindfunclet$?SetYesterdayClosePrice@CBoundMarkerAddInImp@@AAEXABV?$CStringT@DV?$StrTraitMFC_DLL@DV?$ChTraitsCRT@D@ATL@@@@@ATL@@@Z$1:
  00009	8d 4d f0	 lea	 ecx, DWORD PTR $T6[ebp]
  0000c	ff 25 00 00 00
	00		 jmp	 DWORD PTR __imp_??1?$CStringT@DV?$StrTraitMFC_DLL@DV?$ChTraitsCRT@D@ATL@@@@@ATL@@QAE@XZ
__unwindfunclet$?SetYesterdayClosePrice@CBoundMarkerAddInImp@@AAEXABV?$CStringT@DV?$StrTraitMFC_DLL@DV?$ChTraitsCRT@D@ATL@@@@@ATL@@@Z$3:
  00012	8d 4d f0	 lea	 ecx, DWORD PTR $T5[ebp]
  00015	ff 25 00 00 00
	00		 jmp	 DWORD PTR __imp_??1?$CStringT@DV?$StrTraitMFC_DLL@DV?$ChTraitsCRT@D@ATL@@@@@ATL@@QAE@XZ
__unwindfunclet$?SetYesterdayClosePrice@CBoundMarkerAddInImp@@AAEXABV?$CStringT@DV?$StrTraitMFC_DLL@DV?$ChTraitsCRT@D@ATL@@@@@ATL@@@Z$5:
  0001b	8d 4d f0	 lea	 ecx, DWORD PTR $T4[ebp]
  0001e	ff 25 00 00 00
	00		 jmp	 DWORD PTR __imp_??1?$CStringT@DV?$StrTraitMFC_DLL@DV?$ChTraitsCRT@D@ATL@@@@@ATL@@QAE@XZ
  00024	cc		 int	 3
  00025	cc		 int	 3
  00026	cc		 int	 3
  00027	cc		 int	 3
  00028	cc		 int	 3
__ehhandler$?SetYesterdayClosePrice@CBoundMarkerAddInImp@@AAEXABV?$CStringT@DV?$StrTraitMFC_DLL@DV?$ChTraitsCRT@D@ATL@@@@@ATL@@@Z:
  00029	90		 npad	 1
  0002a	90		 npad	 1
  0002b	8b 54 24 08	 mov	 edx, DWORD PTR [esp+8]
  0002f	8d 42 0c	 lea	 eax, DWORD PTR [edx+12]
  00032	8b 4a ec	 mov	 ecx, DWORD PTR [edx-20]
  00035	33 c8		 xor	 ecx, eax
  00037	e8 00 00 00 00	 call	 @__security_check_cookie@4
  0003c	b8 00 00 00 00	 mov	 eax, OFFSET __ehfuncinfo$?SetYesterdayClosePrice@CBoundMarkerAddInImp@@AAEXABV?$CStringT@DV?$StrTraitMFC_DLL@DV?$ChTraitsCRT@D@ATL@@@@@ATL@@@Z
  00041	e9 00 00 00 00	 jmp	 ___CxxFrameHandler3
text$x	ENDS
?SetYesterdayClosePrice@CBoundMarkerAddInImp@@AAEXABV?$CStringT@DV?$StrTraitMFC_DLL@DV?$ChTraitsCRT@D@ATL@@@@@ATL@@@Z ENDP ; CBoundMarkerAddInImp::SetYesterdayClosePrice
; Function compile flags: /Ogtp
; File D:\git\src\IBK\IBK_DRFN\ProjSrc\SrcChartEx\ChartOCX\AddInManager\ChartCommonAddIn\BoundMarkerAddInImp.cpp
;	COMDAT ?EnableBoundMark@CBoundMarkerAddInImp@@IAEXH@Z
_TEXT	SEGMENT
_p_bEnable$ = 8						; size = 4
?EnableBoundMark@CBoundMarkerAddInImp@@IAEXH@Z PROC	; CBoundMarkerAddInImp::EnableBoundMark, COMDAT
; _this$ = ecx

; 146  : {

  00000	55		 push	 ebp
  00001	8b ec		 mov	 ebp, esp

; 147  : 	m_bEnableMark = p_bEnable;

  00003	8b 45 08	 mov	 eax, DWORD PTR _p_bEnable$[ebp]
  00006	89 41 60	 mov	 DWORD PTR [ecx+96], eax

; 148  : }

  00009	5d		 pop	 ebp
  0000a	c2 04 00	 ret	 4
?EnableBoundMark@CBoundMarkerAddInImp@@IAEXH@Z ENDP	; CBoundMarkerAddInImp::EnableBoundMark
_TEXT	ENDS
; Function compile flags: /Ogtp
; File D:\git\src\IBK\IBK_DRFN\ProjSrc\SrcChartEx\ChartOCX\AddInManager\ChartCommonAddIn\BoundMarkerAddInImp.cpp
; File C:\Program Files (x86)\Windows Kits\10\Include\10.0.22000.0\ucrt\string.h
; File D:\git\src\IBK\IBK_DRFN\ProjSrc\SrcChartEx\ChartOCX\AddInManager\ChartCommonAddIn\BoundMarkerAddInImp.cpp
; File C:\Program Files (x86)\Windows Kits\10\Include\10.0.22000.0\ucrt\string.h
; File D:\git\src\IBK\IBK_DRFN\ProjSrc\SrcChartEx\ChartOCX\AddInManager\ChartCommonAddIn\BoundMarkerAddInImp.cpp
; File C:\Program Files (x86)\Windows Kits\10\Include\10.0.22000.0\ucrt\string.h
; File D:\git\src\IBK\IBK_DRFN\ProjSrc\SrcChartEx\ChartOCX\AddInManager\ChartCommonAddIn\BoundMarkerAddInImp.cpp
; File C:\Program Files (x86)\Windows Kits\10\Include\10.0.22000.0\ucrt\string.h
; File D:\git\src\IBK\IBK_DRFN\ProjSrc\SrcChartEx\ChartOCX\AddInManager\ChartCommonAddIn\BoundMarkerAddInImp.cpp
; File C:\Program Files (x86)\Windows Kits\10\Include\10.0.22000.0\ucrt\string.h
; File D:\git\src\IBK\IBK_DRFN\ProjSrc\SrcChartEx\ChartOCX\AddInManager\ChartCommonAddIn\BoundMarkerAddInImp.cpp
;	COMDAT ?ResetBound@CBoundMarkerAddInImp@@MAEXPBD@Z
_TEXT	SEGMENT
tv171 = -32						; size = 8
$T2 = -28						; size = 4
$T3 = -28						; size = 4
_strBoundMark$ = -24					; size = 4
_strPrice$4 = -20					; size = 4
$T5 = -16						; size = 4
$T6 = -16						; size = 4
$T7 = -16						; size = 4
__$EHRec$ = -12						; size = 12
_szIndicatorName$1$ = 8					; size = 4
_strTemp$8 = 8						; size = 4
_p_szBound$ = 8						; size = 4
?ResetBound@CBoundMarkerAddInImp@@MAEXPBD@Z PROC	; CBoundMarkerAddInImp::ResetBound, COMDAT
; _this$ = ecx

; 74   : {

  00000	55		 push	 ebp
  00001	8b ec		 mov	 ebp, esp
  00003	6a ff		 push	 -1
  00005	68 00 00 00 00	 push	 __ehhandler$?ResetBound@CBoundMarkerAddInImp@@MAEXPBD@Z
  0000a	64 a1 00 00 00
	00		 mov	 eax, DWORD PTR fs:0
  00010	50		 push	 eax
  00011	83 ec 14	 sub	 esp, 20			; 00000014H
  00014	53		 push	 ebx
  00015	56		 push	 esi
  00016	57		 push	 edi
  00017	a1 00 00 00 00	 mov	 eax, DWORD PTR ___security_cookie
  0001c	33 c5		 xor	 eax, ebp
  0001e	50		 push	 eax
  0001f	8d 45 f4	 lea	 eax, DWORD PTR __$EHRec$[ebp]
  00022	64 a3 00 00 00
	00		 mov	 DWORD PTR fs:0, eax
  00028	8b d9		 mov	 ebx, ecx

; 75   : 	// 1.  Bound  . ( , Clear)
; 76   : 	m_strIndicatorName.Empty();

  0002a	8d 4b 58	 lea	 ecx, DWORD PTR [ebx+88]
  0002d	ff 15 00 00 00
	00		 call	 DWORD PTR __imp_?Empty@?$CSimpleStringT@D$00@ATL@@QAEXXZ

; 77   : 	//sy 2005.11.21.
; 78   : 	m_bExistenceBoundMark = false;
; 79   : 
; 80   : 	// 2. Message .
; 81   : 	if( !p_szBound) return;

  00033	8b 75 08	 mov	 esi, DWORD PTR _p_szBound$[ebp]
  00036	c6 43 5c 00	 mov	 BYTE PTR [ebx+92], 0
  0003a	85 f6		 test	 esi, esi
  0003c	0f 84 08 02 00
	00		 je	 $LN1@ResetBound

; 82   : 	if( !*p_szBound) return;

  00042	80 3e 00	 cmp	 BYTE PTR [esi], 0
  00045	0f 84 ff 01 00
	00		 je	 $LN1@ResetBound

; 83   : 
; 84   : 	// 3. Message Buffer .
; 85   : 	CString strBoundMark;

  0004b	8d 4d e8	 lea	 ecx, DWORD PTR _strBoundMark$[ebp]
  0004e	ff 15 00 00 00
	00		 call	 DWORD PTR __imp_??0?$CStringT@DV?$StrTraitMFC_DLL@DV?$ChTraitsCRT@D@ATL@@@@@ATL@@QAE@XZ

; 86   : 	char *szBoundMark = strBoundMark.GetBufferSetLength( strlen( p_szBound));

  00054	8b ce		 mov	 ecx, esi
  00056	c7 45 fc 00 00
	00 00		 mov	 DWORD PTR __$EHRec$[ebp+8], 0
  0005d	8d 51 01	 lea	 edx, DWORD PTR [ecx+1]
$LL37@ResetBound:
  00060	8a 01		 mov	 al, BYTE PTR [ecx]
  00062	41		 inc	 ecx
  00063	84 c0		 test	 al, al
  00065	75 f9		 jne	 SHORT $LL37@ResetBound
  00067	2b ca		 sub	 ecx, edx
  00069	51		 push	 ecx
  0006a	8d 4d e8	 lea	 ecx, DWORD PTR _strBoundMark$[ebp]
  0006d	ff 15 00 00 00
	00		 call	 DWORD PTR __imp_?GetBufferSetLength@?$CSimpleStringT@D$00@ATL@@QAEPADH@Z
  00073	8b d0		 mov	 edx, eax
  00075	89 45 08	 mov	 DWORD PTR _szIndicatorName$1$[ebp], eax
  00078	2b d6		 sub	 edx, esi
  0007a	66 0f 1f 44 00
	00		 npad	 6
$LL11@ResetBound:

; 87   : 	strcpy( szBoundMark, p_szBound);

  00080	8a 0e		 mov	 cl, BYTE PTR [esi]
  00082	8d 76 01	 lea	 esi, DWORD PTR [esi+1]
  00085	88 4c 32 ff	 mov	 BYTE PTR [edx+esi-1], cl
  00089	84 c9		 test	 cl, cl
  0008b	75 f3		 jne	 SHORT $LL11@ResetBound
; File C:\Program Files (x86)\Windows Kits\10\Include\10.0.22000.0\ucrt\string.h

; 502  :         return const_cast<char*>(strchr(static_cast<char const*>(_String), _Ch));

  0008d	6a 3a		 push	 58			; 0000003aH
  0008f	50		 push	 eax
  00090	e8 00 00 00 00	 call	 _strchr
; File D:\git\src\IBK\IBK_DRFN\ProjSrc\SrcChartEx\ChartOCX\AddInManager\ChartCommonAddIn\BoundMarkerAddInImp.cpp

; 93   : 	szBoundMark = strchr( szBoundMark, ':');

  00095	8b f0		 mov	 esi, eax
; File C:\Program Files (x86)\Windows Kits\10\Include\10.0.22000.0\ucrt\string.h

; 502  :         return const_cast<char*>(strchr(static_cast<char const*>(_String), _Ch));

  00097	83 c4 08	 add	 esp, 8
; File D:\git\src\IBK\IBK_DRFN\ProjSrc\SrcChartEx\ChartOCX\AddInManager\ChartCommonAddIn\BoundMarkerAddInImp.cpp

; 94   : 	if( !szBoundMark) return;

  0009a	85 f6		 test	 esi, esi
  0009c	0f 84 9f 01 00
	00		 je	 $LN8@ResetBound

; 95   : 	*szBoundMark = '\0';

  000a2	c6 06 00	 mov	 BYTE PTR [esi], 0

; 96   : 
; 97   : 	// 5.  Message .
; 98   : 	szBoundMark++;

  000a5	46		 inc	 esi
; File C:\Program Files (x86)\Windows Kits\10\Include\10.0.22000.0\ucrt\string.h

; 502  :         return const_cast<char*>(strchr(static_cast<char const*>(_String), _Ch));

  000a6	6a 2c		 push	 44			; 0000002cH
  000a8	56		 push	 esi
  000a9	e8 00 00 00 00	 call	 _strchr
; File D:\git\src\IBK\IBK_DRFN\ProjSrc\SrcChartEx\ChartOCX\AddInManager\ChartCommonAddIn\BoundMarkerAddInImp.cpp

; 100  : 	szBoundMark = strchr( szBoundMark, ',');

  000ae	8b f8		 mov	 edi, eax
; File C:\Program Files (x86)\Windows Kits\10\Include\10.0.22000.0\ucrt\string.h

; 502  :         return const_cast<char*>(strchr(static_cast<char const*>(_String), _Ch));

  000b0	83 c4 08	 add	 esp, 8
; File D:\git\src\IBK\IBK_DRFN\ProjSrc\SrcChartEx\ChartOCX\AddInManager\ChartCommonAddIn\BoundMarkerAddInImp.cpp

; 101  : 	if( !szBoundMark) return;

  000b3	85 ff		 test	 edi, edi
  000b5	0f 84 86 01 00
	00		 je	 $LN8@ResetBound

; 102  : 	*szBoundMark = '\0';

  000bb	c6 07 00	 mov	 BYTE PTR [edi], 0

; 103  : 
; 104  : 	// 6.  Message .
; 105  : 	szBoundMark++;

  000be	47		 inc	 edi
; File C:\Program Files (x86)\Windows Kits\10\Include\10.0.22000.0\ucrt\string.h

; 502  :         return const_cast<char*>(strchr(static_cast<char const*>(_String), _Ch));

  000bf	6a 3a		 push	 58			; 0000003aH
  000c1	57		 push	 edi
  000c2	e8 00 00 00 00	 call	 _strchr
  000c7	83 c4 08	 add	 esp, 8
; File D:\git\src\IBK\IBK_DRFN\ProjSrc\SrcChartEx\ChartOCX\AddInManager\ChartCommonAddIn\BoundMarkerAddInImp.cpp

; 109  : 	szBoundMark = strchr( szBoundMark, ':');

  000ca	8d 8b b0 00 00
	00		 lea	 ecx, DWORD PTR [ebx+176]

; 110  : 	if( szBoundMark)

  000d0	85 c0		 test	 eax, eax
  000d2	74 17		 je	 SHORT $LN35@ResetBound

; 111  : 	{
; 112  : 		*szBoundMark = '\0';

  000d4	c6 00 00	 mov	 BYTE PTR [eax], 0

; 113  : 		szBoundMark++;

  000d7	40		 inc	 eax

; 114  : 		m_strExtMsg = szBoundMark;

  000d8	50		 push	 eax
  000d9	ff 15 00 00 00
	00		 call	 DWORD PTR __imp_??4?$CStringT@DV?$StrTraitMFC_DLL@DV?$ChTraitsCRT@D@ATL@@@@@ATL@@QAEAAV01@PBD@Z

; 115  : 		// (2004.10.28, )  Space  Clear .
; 116  : 		m_strExtMsg.TrimRight();

  000df	8d 8b b0 00 00
	00		 lea	 ecx, DWORD PTR [ebx+176]
  000e5	ff 15 00 00 00
	00		 call	 DWORD PTR __imp_?TrimRight@?$CStringT@DV?$StrTraitMFC_DLL@DV?$ChTraitsCRT@D@ATL@@@@@ATL@@QAEAAV12@XZ
$LN35@ResetBound:

; 117  : 	}
; 118  : 
; 119  : 	if( !*szIndicatorName || !*szUpperBound || !*szLowerBound) return;

  000eb	8b 45 08	 mov	 eax, DWORD PTR _szIndicatorName$1$[ebp]
  000ee	80 38 00	 cmp	 BYTE PTR [eax], 0
  000f1	0f 84 4a 01 00
	00		 je	 $LN8@ResetBound
  000f7	80 3e 00	 cmp	 BYTE PTR [esi], 0
  000fa	0f 84 41 01 00
	00		 je	 $LN8@ResetBound
  00100	80 3f 00	 cmp	 BYTE PTR [edi], 0
  00103	0f 84 38 01 00
	00		 je	 $LN8@ResetBound

; 120  : 	// 7.  Graph Name, /  .
; 121  : 	//m_strIndicatorName	= szIndicatorName;
; 122  : 	m_strIndicatorName	= _STOM2(szIndicatorName);

  00109	6a 00		 push	 0
  0010b	50		 push	 eax
  0010c	6a 02		 push	 2
  0010e	ff 73 14	 push	 DWORD PTR [ebx+20]
  00111	b9 00 00 00 00	 mov	 ecx, OFFSET ?g_iMetaTable@@3VIMetaTable@@A ; g_iMetaTable
  00116	e8 00 00 00 00	 call	 ?GetMetaTextForScript@IMetaTable@@QAEPBDPAUHWND__@@W4E_CODEPAGE@1@PBDH@Z ; IMetaTable::GetMetaTextForScript
  0011b	50		 push	 eax
  0011c	8d 4b 58	 lea	 ecx, DWORD PTR [ebx+88]
  0011f	ff 15 00 00 00
	00		 call	 DWORD PTR __imp_??4?$CStringT@DV?$StrTraitMFC_DLL@DV?$ChTraitsCRT@D@ATL@@@@@ATL@@QAEAAV01@PBD@Z

; 123  : 
; 124  : 	m_dUpperBound	= atof( szUpperBound);

  00125	56		 push	 esi
  00126	ff 15 00 00 00
	00		 call	 DWORD PTR __imp__atof
  0012c	dd 5b 40	 fstp	 QWORD PTR [ebx+64]

; 125  : 	m_dLowerBound	= atof( szLowerBound);

  0012f	57		 push	 edi
  00130	ff 15 00 00 00
	00		 call	 DWORD PTR __imp__atof

; 126  : 
; 127  : 	// 8.  /   .
; 128  : 	if( m_dUpperBound < m_dLowerBound)

  00136	f2 0f 10 4b 40	 movsd	 xmm1, QWORD PTR [ebx+64]
  0013b	83 c4 08	 add	 esp, 8
  0013e	dd 5d e0	 fstp	 QWORD PTR tv171[ebp]
  00141	f2 0f 10 45 e0	 movsd	 xmm0, QWORD PTR tv171[ebp]
  00146	66 0f 2f c1	 comisd	 xmm0, xmm1
  0014a	f2 0f 11 43 48	 movsd	 QWORD PTR [ebx+72], xmm0
  0014f	76 0a		 jbe	 SHORT $LN9@ResetBound

; 129  : 	{
; 130  : 		double dTemp	= m_dUpperBound;
; 131  : 		m_dUpperBound	= m_dLowerBound;

  00151	f2 0f 11 43 40	 movsd	 QWORD PTR [ebx+64], xmm0

; 132  : 		m_dLowerBound	= dTemp;

  00156	f2 0f 11 4b 48	 movsd	 QWORD PTR [ebx+72], xmm1
$LN9@ResetBound:

; 153  : 	CString strTemp = strData;

  0015b	8d 83 b0 00 00
	00		 lea	 eax, DWORD PTR [ebx+176]

; 133  : 	}
; 134  : 
; 135  : 	//sy 2005.11.21.
; 136  : 	// 9. /   setting  .
; 137  : 	m_bExistenceBoundMark = true;

  00161	c6 43 5c 01	 mov	 BYTE PTR [ebx+92], 1

; 153  : 	CString strTemp = strData;

  00165	50		 push	 eax
  00166	8d 4d 08	 lea	 ecx, DWORD PTR _strTemp$8[ebp]
  00169	ff 15 00 00 00
	00		 call	 DWORD PTR __imp_??0?$CStringT@DV?$StrTraitMFC_DLL@DV?$ChTraitsCRT@D@ATL@@@@@ATL@@QAE@ABV01@@Z

; 154  : 	CDataConversion::GetStringData(strTemp, ":");//

  0016f	68 00 00 00 00	 push	 OFFSET ??_C@_01JLIPDDHJ@?3@
  00174	8d 4d f0	 lea	 ecx, DWORD PTR $T7[ebp]
  00177	c6 45 fc 01	 mov	 BYTE PTR __$EHRec$[ebp+8], 1
  0017b	ff 15 00 00 00
	00		 call	 DWORD PTR __imp_??0?$CStringT@DV?$StrTraitMFC_DLL@DV?$ChTraitsCRT@D@ATL@@@@@ATL@@QAE@PBD@Z
  00181	6a 01		 push	 1
  00183	8d 45 f0	 lea	 eax, DWORD PTR $T7[ebp]
  00186	c6 45 fc 02	 mov	 BYTE PTR __$EHRec$[ebp+8], 2
  0018a	50		 push	 eax
  0018b	8d 45 08	 lea	 eax, DWORD PTR _strTemp$8[ebp]
  0018e	50		 push	 eax
  0018f	8d 45 e4	 lea	 eax, DWORD PTR $T3[ebp]
  00192	50		 push	 eax
  00193	e8 00 00 00 00	 call	 ?GetStringData@CDataConversion@@SA?AV?$CStringT@DV?$StrTraitMFC_DLL@DV?$ChTraitsCRT@D@ATL@@@@@ATL@@AAV23@ABV23@_N@Z ; CDataConversion::GetStringData
  00198	83 c4 10	 add	 esp, 16			; 00000010H
  0019b	8d 4d e4	 lea	 ecx, DWORD PTR $T3[ebp]
  0019e	ff 15 00 00 00
	00		 call	 DWORD PTR __imp_??1?$CStringT@DV?$StrTraitMFC_DLL@DV?$ChTraitsCRT@D@ATL@@@@@ATL@@QAE@XZ
  001a4	8d 4d f0	 lea	 ecx, DWORD PTR $T7[ebp]
  001a7	c6 45 fc 01	 mov	 BYTE PTR __$EHRec$[ebp+8], 1
  001ab	ff 15 00 00 00
	00		 call	 DWORD PTR __imp_??1?$CStringT@DV?$StrTraitMFC_DLL@DV?$ChTraitsCRT@D@ATL@@@@@ATL@@QAE@XZ

; 155  : 	CDataConversion::GetStringData(strTemp, ":");//??

  001b1	68 00 00 00 00	 push	 OFFSET ??_C@_01JLIPDDHJ@?3@
  001b6	8d 4d f0	 lea	 ecx, DWORD PTR $T6[ebp]
  001b9	ff 15 00 00 00
	00		 call	 DWORD PTR __imp_??0?$CStringT@DV?$StrTraitMFC_DLL@DV?$ChTraitsCRT@D@ATL@@@@@ATL@@QAE@PBD@Z
  001bf	6a 01		 push	 1
  001c1	8d 45 f0	 lea	 eax, DWORD PTR $T6[ebp]
  001c4	c6 45 fc 03	 mov	 BYTE PTR __$EHRec$[ebp+8], 3
  001c8	50		 push	 eax
  001c9	8d 45 08	 lea	 eax, DWORD PTR _strTemp$8[ebp]
  001cc	50		 push	 eax
  001cd	8d 45 e4	 lea	 eax, DWORD PTR $T2[ebp]
  001d0	50		 push	 eax
  001d1	e8 00 00 00 00	 call	 ?GetStringData@CDataConversion@@SA?AV?$CStringT@DV?$StrTraitMFC_DLL@DV?$ChTraitsCRT@D@ATL@@@@@ATL@@AAV23@ABV23@_N@Z ; CDataConversion::GetStringData
  001d6	83 c4 10	 add	 esp, 16			; 00000010H
  001d9	8d 4d e4	 lea	 ecx, DWORD PTR $T2[ebp]
  001dc	ff 15 00 00 00
	00		 call	 DWORD PTR __imp_??1?$CStringT@DV?$StrTraitMFC_DLL@DV?$ChTraitsCRT@D@ATL@@@@@ATL@@QAE@XZ
  001e2	8d 4d f0	 lea	 ecx, DWORD PTR $T6[ebp]
  001e5	c6 45 fc 01	 mov	 BYTE PTR __$EHRec$[ebp+8], 1
  001e9	ff 15 00 00 00
	00		 call	 DWORD PTR __imp_??1?$CStringT@DV?$StrTraitMFC_DLL@DV?$ChTraitsCRT@D@ATL@@@@@ATL@@QAE@XZ

; 156  : 	CString strPrice = CDataConversion::GetStringData(strTemp, ":");//

  001ef	68 00 00 00 00	 push	 OFFSET ??_C@_01JLIPDDHJ@?3@
  001f4	8d 4d f0	 lea	 ecx, DWORD PTR $T5[ebp]
  001f7	ff 15 00 00 00
	00		 call	 DWORD PTR __imp_??0?$CStringT@DV?$StrTraitMFC_DLL@DV?$ChTraitsCRT@D@ATL@@@@@ATL@@QAE@PBD@Z
  001fd	6a 01		 push	 1
  001ff	8d 45 f0	 lea	 eax, DWORD PTR $T5[ebp]
  00202	c6 45 fc 04	 mov	 BYTE PTR __$EHRec$[ebp+8], 4
  00206	50		 push	 eax
  00207	8d 45 08	 lea	 eax, DWORD PTR _strTemp$8[ebp]
  0020a	50		 push	 eax
  0020b	8d 45 ec	 lea	 eax, DWORD PTR _strPrice$4[ebp]
  0020e	50		 push	 eax
  0020f	e8 00 00 00 00	 call	 ?GetStringData@CDataConversion@@SA?AV?$CStringT@DV?$StrTraitMFC_DLL@DV?$ChTraitsCRT@D@ATL@@@@@ATL@@AAV23@ABV23@_N@Z ; CDataConversion::GetStringData
  00214	83 c4 10	 add	 esp, 16			; 00000010H
  00217	8d 4d f0	 lea	 ecx, DWORD PTR $T5[ebp]
  0021a	ff 15 00 00 00
	00		 call	 DWORD PTR __imp_??1?$CStringT@DV?$StrTraitMFC_DLL@DV?$ChTraitsCRT@D@ATL@@@@@ATL@@QAE@XZ

; 157  : 
; 158  : 	m_dYesterdayClosePrice = atof(strPrice);

  00220	ff 75 ec	 push	 DWORD PTR _strPrice$4[ebp]
  00223	ff 15 00 00 00
	00		 call	 DWORD PTR __imp__atof
  00229	83 c4 04	 add	 esp, 4

; 159  : }

  0022c	8d 4d ec	 lea	 ecx, DWORD PTR _strPrice$4[ebp]
  0022f	dd 5b 50	 fstp	 QWORD PTR [ebx+80]
  00232	ff 15 00 00 00
	00		 call	 DWORD PTR __imp_??1?$CStringT@DV?$StrTraitMFC_DLL@DV?$ChTraitsCRT@D@ATL@@@@@ATL@@QAE@XZ
  00238	8d 4d 08	 lea	 ecx, DWORD PTR _strTemp$8[ebp]
  0023b	ff 15 00 00 00
	00		 call	 DWORD PTR __imp_??1?$CStringT@DV?$StrTraitMFC_DLL@DV?$ChTraitsCRT@D@ATL@@@@@ATL@@QAE@XZ
$LN8@ResetBound:

; 138  : 
; 139  : 	//sy 2005.11.18. 
; 140  : 	// 10. /    .
; 141  : 	SetYesterdayClosePrice(m_strExtMsg);
; 142  : }

  00241	8d 4d e8	 lea	 ecx, DWORD PTR _strBoundMark$[ebp]
  00244	ff 15 00 00 00
	00		 call	 DWORD PTR __imp_??1?$CStringT@DV?$StrTraitMFC_DLL@DV?$ChTraitsCRT@D@ATL@@@@@ATL@@QAE@XZ
$LN1@ResetBound:
  0024a	8b 4d f4	 mov	 ecx, DWORD PTR __$EHRec$[ebp]
  0024d	64 89 0d 00 00
	00 00		 mov	 DWORD PTR fs:0, ecx
  00254	59		 pop	 ecx
  00255	5f		 pop	 edi
  00256	5e		 pop	 esi
  00257	5b		 pop	 ebx
  00258	8b e5		 mov	 esp, ebp
  0025a	5d		 pop	 ebp
  0025b	c2 04 00	 ret	 4
_TEXT	ENDS
;	COMDAT text$x
text$x	SEGMENT
__unwindfunclet$?ResetBound@CBoundMarkerAddInImp@@MAEXPBD@Z$0:
  00000	8d 4d e8	 lea	 ecx, DWORD PTR _strBoundMark$[ebp]
  00003	ff 25 00 00 00
	00		 jmp	 DWORD PTR __imp_??1?$CStringT@DV?$StrTraitMFC_DLL@DV?$ChTraitsCRT@D@ATL@@@@@ATL@@QAE@XZ
__unwindfunclet$?ResetBound@CBoundMarkerAddInImp@@MAEXPBD@Z$1:
  00009	8d 4d 08	 lea	 ecx, DWORD PTR _strTemp$8[ebp]
  0000c	ff 25 00 00 00
	00		 jmp	 DWORD PTR __imp_??1?$CStringT@DV?$StrTraitMFC_DLL@DV?$ChTraitsCRT@D@ATL@@@@@ATL@@QAE@XZ
__unwindfunclet$?ResetBound@CBoundMarkerAddInImp@@MAEXPBD@Z$2:
  00012	8d 4d f0	 lea	 ecx, DWORD PTR $T7[ebp]
  00015	ff 25 00 00 00
	00		 jmp	 DWORD PTR __imp_??1?$CStringT@DV?$StrTraitMFC_DLL@DV?$ChTraitsCRT@D@ATL@@@@@ATL@@QAE@XZ
__unwindfunclet$?ResetBound@CBoundMarkerAddInImp@@MAEXPBD@Z$4:
  0001b	8d 4d f0	 lea	 ecx, DWORD PTR $T6[ebp]
  0001e	ff 25 00 00 00
	00		 jmp	 DWORD PTR __imp_??1?$CStringT@DV?$StrTraitMFC_DLL@DV?$ChTraitsCRT@D@ATL@@@@@ATL@@QAE@XZ
__unwindfunclet$?ResetBound@CBoundMarkerAddInImp@@MAEXPBD@Z$6:
  00024	8d 4d f0	 lea	 ecx, DWORD PTR $T5[ebp]
  00027	ff 25 00 00 00
	00		 jmp	 DWORD PTR __imp_??1?$CStringT@DV?$StrTraitMFC_DLL@DV?$ChTraitsCRT@D@ATL@@@@@ATL@@QAE@XZ
  0002d	cc		 int	 3
  0002e	cc		 int	 3
  0002f	cc		 int	 3
  00030	cc		 int	 3
  00031	cc		 int	 3
__ehhandler$?ResetBound@CBoundMarkerAddInImp@@MAEXPBD@Z:
  00032	90		 npad	 1
  00033	90		 npad	 1
  00034	8b 54 24 08	 mov	 edx, DWORD PTR [esp+8]
  00038	8d 42 0c	 lea	 eax, DWORD PTR [edx+12]
  0003b	8b 4a dc	 mov	 ecx, DWORD PTR [edx-36]
  0003e	33 c8		 xor	 ecx, eax
  00040	e8 00 00 00 00	 call	 @__security_check_cookie@4
  00045	b8 00 00 00 00	 mov	 eax, OFFSET __ehfuncinfo$?ResetBound@CBoundMarkerAddInImp@@MAEXPBD@Z
  0004a	e9 00 00 00 00	 jmp	 ___CxxFrameHandler3
text$x	ENDS
?ResetBound@CBoundMarkerAddInImp@@MAEXPBD@Z ENDP	; CBoundMarkerAddInImp::ResetBound
; Function compile flags: /Ogtp
; File D:\git\src\IBK\IBK_DRFN\ProjSrc\SrcChartEx\ChartOCX\AddInManager\ChartCommonAddIn\BoundMarkerAddInImp.h
;	COMDAT ?GetRegisteredEventMap@CBoundMarkerAddInImp@@MBEPBW4EAddInEventType@IChartAddIn000000@@XZ
_TEXT	SEGMENT
?GetRegisteredEventMap@CBoundMarkerAddInImp@@MBEPBW4EAddInEventType@IChartAddIn000000@@XZ PROC ; CBoundMarkerAddInImp::GetRegisteredEventMap, COMDAT
; _this$ = ecx

; 48   : 	DECLARE_ADDIN_EVENT_MAP()

  00000	b8 00 00 00 00	 mov	 eax, OFFSET ?m_eRegisteredEventMap@CBoundMarkerAddInImp@@1QBW4EAddInEventType@IChartAddIn000000@@B ; CBoundMarkerAddInImp::m_eRegisteredEventMap
  00005	c3		 ret	 0
?GetRegisteredEventMap@CBoundMarkerAddInImp@@MBEPBW4EAddInEventType@IChartAddIn000000@@XZ ENDP ; CBoundMarkerAddInImp::GetRegisteredEventMap
_TEXT	ENDS
; Function compile flags: /Ogtp
; File D:\git\src\IBK\IBK_DRFN\ProjSrc\SrcChartEx\ChartOCX\AddInManager\ChartCommonAddIn\BoundMarkerAddInImp.cpp
;	COMDAT ??1CBoundMarkerAddInImp@@UAE@XZ
_TEXT	SEGMENT
??1CBoundMarkerAddInImp@@UAE@XZ PROC			; CBoundMarkerAddInImp::~CBoundMarkerAddInImp, COMDAT
; _this$ = ecx

; 56   : {

  00000	56		 push	 esi
  00001	8b f1		 mov	 esi, ecx

; 57   : }

  00003	8d 8e b0 00 00
	00		 lea	 ecx, DWORD PTR [esi+176]
  00009	c7 06 00 00 00
	00		 mov	 DWORD PTR [esi], OFFSET ??_7CBoundMarkerAddInImp@@6BCIWUnknown@@@
  0000f	c7 46 08 00 00
	00 00		 mov	 DWORD PTR [esi+8], OFFSET ??_7CBoundMarkerAddInImp@@6BIChartAddIn000000@@@
  00016	ff 15 00 00 00
	00		 call	 DWORD PTR __imp_??1?$CStringT@DV?$StrTraitMFC_DLL@DV?$ChTraitsCRT@D@ATL@@@@@ATL@@QAE@XZ
  0001c	8d 4e 58	 lea	 ecx, DWORD PTR [esi+88]
  0001f	ff 15 00 00 00
	00		 call	 DWORD PTR __imp_??1?$CStringT@DV?$StrTraitMFC_DLL@DV?$ChTraitsCRT@D@ATL@@@@@ATL@@QAE@XZ
  00025	8b ce		 mov	 ecx, esi
  00027	5e		 pop	 esi
  00028	e9 00 00 00 00	 jmp	 ??1CChartAddInBase000000@@MAE@XZ ; CChartAddInBase000000::~CChartAddInBase000000
??1CBoundMarkerAddInImp@@UAE@XZ ENDP			; CBoundMarkerAddInImp::~CBoundMarkerAddInImp
_TEXT	ENDS
; Function compile flags: /Ogtp
; File D:\git\src\IBK\IBK_DRFN\ProjSrc\SrcChartEx\ChartOCX\AddInManager\ChartCommonAddIn\BoundMarkerAddInImp.cpp
; File C:\Program Files (x86)\Microsoft Visual Studio\2019\Community\VC\Tools\MSVC\14.29.30133\atlmfc\include\atltypes.h
; File D:\git\src\IBK\IBK_DRFN\ProjSrc\SrcChartEx\ChartOCX\AddInManager\ChartCommonAddIn\BoundMarkerAddInImp.cpp
; File C:\Program Files (x86)\Microsoft Visual Studio\2019\Community\VC\Tools\MSVC\14.29.30133\atlmfc\include\atltypes.h
; File D:\git\src\IBK\IBK_DRFN\ProjSrc\SrcChartEx\ChartOCX\AddInManager\ChartCommonAddIn\BoundMarkerAddInImp.cpp
;	COMDAT ??0CBoundMarkerAddInImp@@QAE@PAUIChartOCX000000@@PAUIAddInDllBase@@@Z
_TEXT	SEGMENT
_this$ = -4						; size = 4
_p_pIChartOCX$ = 8					; size = 4
_p_pIAddInDllBase$ = 12					; size = 4
??0CBoundMarkerAddInImp@@QAE@PAUIChartOCX000000@@PAUIAddInDllBase@@@Z PROC ; CBoundMarkerAddInImp::CBoundMarkerAddInImp, COMDAT
; _this$ = ecx

; 34   : {

  00000	55		 push	 ebp
  00001	8b ec		 mov	 ebp, esp
  00003	51		 push	 ecx
  00004	56		 push	 esi
  00005	ff 75 0c	 push	 DWORD PTR _p_pIAddInDllBase$[ebp]
  00008	8b f1		 mov	 esi, ecx
  0000a	ff 75 08	 push	 DWORD PTR _p_pIChartOCX$[ebp]
  0000d	89 75 fc	 mov	 DWORD PTR _this$[ebp], esi
  00010	e8 00 00 00 00	 call	 ??0CChartAddInBase000000@@IAE@PAUIChartOCX000000@@PAUIAddInDllBase@@@Z ; CChartAddInBase000000::CChartAddInBase000000
  00015	8d 4e 58	 lea	 ecx, DWORD PTR [esi+88]
  00018	c7 06 00 00 00
	00		 mov	 DWORD PTR [esi], OFFSET ??_7CBoundMarkerAddInImp@@6BCIWUnknown@@@
  0001e	c7 46 08 00 00
	00 00		 mov	 DWORD PTR [esi+8], OFFSET ??_7CBoundMarkerAddInImp@@6BIChartAddIn000000@@@
  00025	ff 15 00 00 00
	00		 call	 DWORD PTR __imp_??0?$CStringT@DV?$StrTraitMFC_DLL@DV?$ChTraitsCRT@D@ATL@@@@@ATL@@QAE@XZ
; File C:\Program Files (x86)\Microsoft Visual Studio\2019\Community\VC\Tools\MSVC\14.29.30133\atlmfc\include\atltypes.h

; 528  : 	left = 0;

  0002b	c7 46 6c 00 00
	00 00		 mov	 DWORD PTR [esi+108], 0
; File D:\git\src\IBK\IBK_DRFN\ProjSrc\SrcChartEx\ChartOCX\AddInManager\ChartCommonAddIn\BoundMarkerAddInImp.cpp

; 34   : {

  00032	8d 8e b0 00 00
	00		 lea	 ecx, DWORD PTR [esi+176]
; File C:\Program Files (x86)\Microsoft Visual Studio\2019\Community\VC\Tools\MSVC\14.29.30133\atlmfc\include\atltypes.h

; 529  : 	top = 0;

  00038	c7 46 70 00 00
	00 00		 mov	 DWORD PTR [esi+112], 0

; 530  : 	right = 0;

  0003f	c7 46 74 00 00
	00 00		 mov	 DWORD PTR [esi+116], 0

; 531  : 	bottom = 0;

  00046	c7 46 78 00 00
	00 00		 mov	 DWORD PTR [esi+120], 0

; 528  : 	left = 0;

  0004d	c7 46 7c 00 00
	00 00		 mov	 DWORD PTR [esi+124], 0

; 529  : 	top = 0;

  00054	c7 86 80 00 00
	00 00 00 00 00	 mov	 DWORD PTR [esi+128], 0

; 530  : 	right = 0;

  0005e	c7 86 84 00 00
	00 00 00 00 00	 mov	 DWORD PTR [esi+132], 0

; 531  : 	bottom = 0;

  00068	c7 86 88 00 00
	00 00 00 00 00	 mov	 DWORD PTR [esi+136], 0

; 528  : 	left = 0;

  00072	c7 86 8c 00 00
	00 00 00 00 00	 mov	 DWORD PTR [esi+140], 0

; 529  : 	top = 0;

  0007c	c7 86 90 00 00
	00 00 00 00 00	 mov	 DWORD PTR [esi+144], 0

; 530  : 	right = 0;

  00086	c7 86 94 00 00
	00 00 00 00 00	 mov	 DWORD PTR [esi+148], 0

; 531  : 	bottom = 0;

  00090	c7 86 98 00 00
	00 00 00 00 00	 mov	 DWORD PTR [esi+152], 0
; File D:\git\src\IBK\IBK_DRFN\ProjSrc\SrcChartEx\ChartOCX\AddInManager\ChartCommonAddIn\BoundMarkerAddInImp.cpp

; 34   : {

  0009a	ff 15 00 00 00
	00		 call	 DWORD PTR __imp_??0?$CStringT@DV?$StrTraitMFC_DLL@DV?$ChTraitsCRT@D@ATL@@@@@ATL@@QAE@XZ
  000a0	0f 57 c9	 xorps	 xmm1, xmm1

; 35   : 	// (2004.09.30, ) BoundMark    /.
; 36   : 	m_bEnableMark = TRUE;

  000a3	c7 46 60 01 00
	00 00		 mov	 DWORD PTR [esi+96], 1
  000aa	0f 57 c0	 xorps	 xmm0, xmm0

; 37   : 
; 38   : 	// (2004.10.27, ) View  , CAskingPriceIndicator    .
; 39   : 	m_bLog			= FALSE;	//  Graph  Block Log   .

  000ad	c7 46 64 00 00
	00 00		 mov	 DWORD PTR [esi+100], 0

; 40   : 	m_bReverse		= FALSE;	//  Graph  Block   .

  000b4	c7 46 68 00 00
	00 00		 mov	 DWORD PTR [esi+104], 0

; 41   : 	m_dViewMin		= 0.0;		// View  Graph View Minimun Scale .
; 42   : 	m_dViewMax		= 0.0;		// View  Graph View Maximum Scale .
; 43   : 
; 44   : 	//sy 2005.11.18.
; 45   : 	m_rctBoundMark = CRect(0, 0, 0, 0);
; 46   : 	m_rctGraphRegion = CRect(0, 0, 0, 0);
; 47   : 	m_rctGraphDrawingRegion = CRect(0, 0, 0, 0);
; 48   : 	m_dUpperBound = 0.0;
; 49   : 	m_dLowerBound = 0.0;
; 50   : 	m_dYesterdayClosePrice = 0.0;
; 51   : 	m_bExistenceBoundMark = false;
; 52   : 	//sy end
; 53   : }

  000bb	8b c6		 mov	 eax, esi
  000bd	0f 11 8e a0 00
	00 00		 movups	 XMMWORD PTR [esi+160], xmm1
  000c4	c6 46 5c 00	 mov	 BYTE PTR [esi+92], 0
  000c8	0f 11 46 6c	 movups	 XMMWORD PTR [esi+108], xmm0
  000cc	0f 11 46 7c	 movups	 XMMWORD PTR [esi+124], xmm0
  000d0	0f 11 86 8c 00
	00 00		 movups	 XMMWORD PTR [esi+140], xmm0
  000d7	0f 11 4e 40	 movups	 XMMWORD PTR [esi+64], xmm1
  000db	f2 0f 11 4e 50	 movsd	 QWORD PTR [esi+80], xmm1
  000e0	5e		 pop	 esi
  000e1	8b e5		 mov	 esp, ebp
  000e3	5d		 pop	 ebp
  000e4	c2 08 00	 ret	 8
??0CBoundMarkerAddInImp@@QAE@PAUIChartOCX000000@@PAUIAddInDllBase@@@Z ENDP ; CBoundMarkerAddInImp::CBoundMarkerAddInImp
_TEXT	ENDS
; Function compile flags: /Ogtp
; File D:\git\src\IBK\IBK_DRFN\ProjSrc\SrcChartEx\ChartOCX\AddInManager\Include_AddIn\I000000\_ChartAddInBase.h
;	COMDAT ?OnRButtonDblClk@CChartAddInBase000000@@MAEHPAUHDC__@@IAAUtagPOINT@@K@Z
_TEXT	SEGMENT
_p_hDC$ = 8						; size = 4
_nFlags$ = 12						; size = 4
_point$ = 16						; size = 4
_p_dwMouseActionID$ = 20				; size = 4
?OnRButtonDblClk@CChartAddInBase000000@@MAEHPAUHDC__@@IAAUtagPOINT@@K@Z PROC ; CChartAddInBase000000::OnRButtonDblClk, COMDAT
; _this$ = ecx

; 221  : 	virtual BOOL	OnRButtonDblClk(	HDC p_hDC, UINT nFlags, POINT &point, const DWORD p_dwMouseActionID)									{	return FALSE;	}

  00000	33 c0		 xor	 eax, eax
  00002	c2 10 00	 ret	 16			; 00000010H
?OnRButtonDblClk@CChartAddInBase000000@@MAEHPAUHDC__@@IAAUtagPOINT@@K@Z ENDP ; CChartAddInBase000000::OnRButtonDblClk
_TEXT	ENDS
; Function compile flags: /Ogtp
; File D:\git\src\IBK\IBK_DRFN\ProjSrc\SrcChartEx\ChartOCX\AddInManager\Include_AddIn\I000000\_ChartAddInBase.h
;	COMDAT ?OnRButtonUp@CChartAddInBase000000@@MAEHPAUHDC__@@IAAUtagPOINT@@K@Z
_TEXT	SEGMENT
_p_hDC$ = 8						; size = 4
_nFlags$ = 12						; size = 4
_point$ = 16						; size = 4
_p_dwMouseActionID$ = 20				; size = 4
?OnRButtonUp@CChartAddInBase000000@@MAEHPAUHDC__@@IAAUtagPOINT@@K@Z PROC ; CChartAddInBase000000::OnRButtonUp, COMDAT
; _this$ = ecx

; 220  : 	virtual BOOL	OnRButtonUp(		HDC p_hDC, UINT nFlags, POINT &point, const DWORD p_dwMouseActionID)									{	return FALSE;	}

  00000	33 c0		 xor	 eax, eax
  00002	c2 10 00	 ret	 16			; 00000010H
?OnRButtonUp@CChartAddInBase000000@@MAEHPAUHDC__@@IAAUtagPOINT@@K@Z ENDP ; CChartAddInBase000000::OnRButtonUp
_TEXT	ENDS
; Function compile flags: /Ogtp
; File D:\git\src\IBK\IBK_DRFN\ProjSrc\SrcChartEx\ChartOCX\AddInManager\Include_AddIn\I000000\_ChartAddInBase.h
;	COMDAT ?OnRButtonDown@CChartAddInBase000000@@MAEHPAUHDC__@@IAAUtagPOINT@@K@Z
_TEXT	SEGMENT
_p_hDC$ = 8						; size = 4
_nFlags$ = 12						; size = 4
_point$ = 16						; size = 4
_p_dwMouseActionID$ = 20				; size = 4
?OnRButtonDown@CChartAddInBase000000@@MAEHPAUHDC__@@IAAUtagPOINT@@K@Z PROC ; CChartAddInBase000000::OnRButtonDown, COMDAT
; _this$ = ecx

; 219  : 	virtual BOOL	OnRButtonDown(		HDC p_hDC, UINT nFlags, POINT &point, const DWORD p_dwMouseActionID)									{	return FALSE;	}

  00000	33 c0		 xor	 eax, eax
  00002	c2 10 00	 ret	 16			; 00000010H
?OnRButtonDown@CChartAddInBase000000@@MAEHPAUHDC__@@IAAUtagPOINT@@K@Z ENDP ; CChartAddInBase000000::OnRButtonDown
_TEXT	ENDS
; Function compile flags: /Ogtp
; File D:\git\src\IBK\IBK_DRFN\ProjSrc\SrcChartEx\ChartOCX\AddInManager\Include_AddIn\I000000\_ChartAddInBase.h
;	COMDAT ?OnLButtonDblClk@CChartAddInBase000000@@MAEHPAUHDC__@@IAAUtagPOINT@@K@Z
_TEXT	SEGMENT
_p_hDC$ = 8						; size = 4
_nFlags$ = 12						; size = 4
_point$ = 16						; size = 4
_p_dwMouseActionID$ = 20				; size = 4
?OnLButtonDblClk@CChartAddInBase000000@@MAEHPAUHDC__@@IAAUtagPOINT@@K@Z PROC ; CChartAddInBase000000::OnLButtonDblClk, COMDAT
; _this$ = ecx

; 218  : 	virtual BOOL	OnLButtonDblClk(	HDC p_hDC, UINT nFlags, POINT &point, const DWORD p_dwMouseActionID)									{	return FALSE;	}

  00000	33 c0		 xor	 eax, eax
  00002	c2 10 00	 ret	 16			; 00000010H
?OnLButtonDblClk@CChartAddInBase000000@@MAEHPAUHDC__@@IAAUtagPOINT@@K@Z ENDP ; CChartAddInBase000000::OnLButtonDblClk
_TEXT	ENDS
; Function compile flags: /Ogtp
; File D:\git\src\IBK\IBK_DRFN\ProjSrc\SrcChartEx\ChartOCX\AddInManager\Include_AddIn\I000000\_ChartAddInBase.h
;	COMDAT ?OnLButtonUp@CChartAddInBase000000@@MAEHPAUHDC__@@IAAUtagPOINT@@K@Z
_TEXT	SEGMENT
_p_hDC$ = 8						; size = 4
_nFlags$ = 12						; size = 4
_point$ = 16						; size = 4
_p_dwMouseActionID$ = 20				; size = 4
?OnLButtonUp@CChartAddInBase000000@@MAEHPAUHDC__@@IAAUtagPOINT@@K@Z PROC ; CChartAddInBase000000::OnLButtonUp, COMDAT
; _this$ = ecx

; 217  : 	virtual BOOL	OnLButtonUp(		HDC p_hDC, UINT nFlags, POINT &point, const DWORD p_dwMouseActionID)									{	return FALSE;	}

  00000	33 c0		 xor	 eax, eax
  00002	c2 10 00	 ret	 16			; 00000010H
?OnLButtonUp@CChartAddInBase000000@@MAEHPAUHDC__@@IAAUtagPOINT@@K@Z ENDP ; CChartAddInBase000000::OnLButtonUp
_TEXT	ENDS
; Function compile flags: /Ogtp
; File D:\git\src\IBK\IBK_DRFN\ProjSrc\SrcChartEx\ChartOCX\AddInManager\Include_AddIn\I000000\_ChartAddInBase.h
;	COMDAT ?OnLButtonDown@CChartAddInBase000000@@MAEHPAUHDC__@@IAAUtagPOINT@@K@Z
_TEXT	SEGMENT
_p_hDC$ = 8						; size = 4
_nFlags$ = 12						; size = 4
_point$ = 16						; size = 4
_p_dwMouseActionID$ = 20				; size = 4
?OnLButtonDown@CChartAddInBase000000@@MAEHPAUHDC__@@IAAUtagPOINT@@K@Z PROC ; CChartAddInBase000000::OnLButtonDown, COMDAT
; _this$ = ecx

; 216  : 	virtual BOOL	OnLButtonDown(		HDC p_hDC, UINT nFlags, POINT &point, const DWORD p_dwMouseActionID)									{	return FALSE;	}

  00000	33 c0		 xor	 eax, eax
  00002	c2 10 00	 ret	 16			; 00000010H
?OnLButtonDown@CChartAddInBase000000@@MAEHPAUHDC__@@IAAUtagPOINT@@K@Z ENDP ; CChartAddInBase000000::OnLButtonDown
_TEXT	ENDS
; Function compile flags: /Ogtp
; File D:\git\src\IBK\IBK_DRFN\ProjSrc\SrcChartEx\ChartOCX\AddInManager\Include_AddIn\I000000\_ChartAddInBase.h
;	COMDAT ?OnMouseMove@CChartAddInBase000000@@MAEHPAUHDC__@@IAAUtagPOINT@@KQAUHBITMAP__@@@Z
_TEXT	SEGMENT
_p_hDC$ = 8						; size = 4
_nFlags$ = 12						; size = 4
_point$ = 16						; size = 4
_p_dwMouseActionID$ = 20				; size = 4
_p_hbmpMainOSB$ = 24					; size = 4
?OnMouseMove@CChartAddInBase000000@@MAEHPAUHDC__@@IAAUtagPOINT@@KQAUHBITMAP__@@@Z PROC ; CChartAddInBase000000::OnMouseMove, COMDAT
; _this$ = ecx

; 215  : 	virtual BOOL	OnMouseMove(		HDC p_hDC, UINT nFlags, POINT &point, const DWORD p_dwMouseActionID, const HBITMAP p_hbmpMainOSB)		{	return FALSE;	}	// (2006/11/5 - Seung-Won, Bae) Support MainOSB

  00000	33 c0		 xor	 eax, eax
  00002	c2 14 00	 ret	 20			; 00000014H
?OnMouseMove@CChartAddInBase000000@@MAEHPAUHDC__@@IAAUtagPOINT@@KQAUHBITMAP__@@@Z ENDP ; CChartAddInBase000000::OnMouseMove
_TEXT	ENDS
; Function compile flags: /Ogtp
; File D:\git\src\IBK\IBK_DRFN\ProjSrc\SrcChartEx\ChartOCX\AddInManager\Include_AddIn\I000000\_ChartAddInBase.h
;	COMDAT ?OnMouseWheel@CChartAddInBase000000@@MAEHIFUtagPOINT@@K@Z
_TEXT	SEGMENT
_nFlags$ = 8						; size = 4
_zDelta$ = 12						; size = 2
_pt$ = 16						; size = 8
_p_dwMouseActionID$ = 24				; size = 4
?OnMouseWheel@CChartAddInBase000000@@MAEHIFUtagPOINT@@K@Z PROC ; CChartAddInBase000000::OnMouseWheel, COMDAT
; _this$ = ecx

; 214  : 	virtual BOOL	OnMouseWheel(		UINT nFlags, short zDelta, POINT pt, const DWORD p_dwMouseActionID)										{	return FALSE;	}

  00000	33 c0		 xor	 eax, eax
  00002	c2 14 00	 ret	 20			; 00000014H
?OnMouseWheel@CChartAddInBase000000@@MAEHIFUtagPOINT@@K@Z ENDP ; CChartAddInBase000000::OnMouseWheel
_TEXT	ENDS
; Function compile flags: /Ogtp
; File D:\git\src\IBK\IBK_DRFN\ProjSrc\SrcChartEx\ChartOCX\AddInManager\Include_AddIn\I000000\_ChartAddInBase.h
;	COMDAT ?OnKeyUp@CChartAddInBase000000@@MAEHIII@Z
_TEXT	SEGMENT
_nChar$ = 8						; size = 4
_nRepCnt$ = 12						; size = 4
_nFlags$ = 16						; size = 4
?OnKeyUp@CChartAddInBase000000@@MAEHIII@Z PROC		; CChartAddInBase000000::OnKeyUp, COMDAT
; _this$ = ecx

; 213  : 	virtual BOOL	OnKeyUp(			UINT nChar, UINT nRepCnt, UINT nFlags)																	{	return FALSE;	}

  00000	33 c0		 xor	 eax, eax
  00002	c2 0c 00	 ret	 12			; 0000000cH
?OnKeyUp@CChartAddInBase000000@@MAEHIII@Z ENDP		; CChartAddInBase000000::OnKeyUp
_TEXT	ENDS
; Function compile flags: /Ogtp
; File D:\git\src\IBK\IBK_DRFN\ProjSrc\SrcChartEx\ChartOCX\AddInManager\Include_AddIn\I000000\_ChartAddInBase.h
;	COMDAT ?OnKeyDown@CChartAddInBase000000@@MAEHIII@Z
_TEXT	SEGMENT
_nChar$ = 8						; size = 4
_nRepCnt$ = 12						; size = 4
_nFlags$ = 16						; size = 4
?OnKeyDown@CChartAddInBase000000@@MAEHIII@Z PROC	; CChartAddInBase000000::OnKeyDown, COMDAT
; _this$ = ecx

; 212  : 	virtual BOOL	OnKeyDown(			UINT nChar, UINT nRepCnt, UINT nFlags)																	{	return FALSE;	}

  00000	33 c0		 xor	 eax, eax
  00002	c2 0c 00	 ret	 12			; 0000000cH
?OnKeyDown@CChartAddInBase000000@@MAEHIII@Z ENDP	; CChartAddInBase000000::OnKeyDown
_TEXT	ENDS
; Function compile flags: /Ogtp
; File D:\git\src\IBK\IBK_DRFN\ProjSrc\SrcChartEx\ChartOCX\AddInManager\Include_AddIn\I000000\_ChartAddInBase.h
;	COMDAT ?OnAddInToolCommand@CChartAddInBase000000@@MAEHAAJW4EAICommandType@@JJ@Z
_TEXT	SEGMENT
_p_lResult$ = 8						; size = 4
_p_eCommandID$ = 12					; size = 4
_p_lParam1$ = 16					; size = 4
_p_lParam2$ = 20					; size = 4
?OnAddInToolCommand@CChartAddInBase000000@@MAEHAAJW4EAICommandType@@JJ@Z PROC ; CChartAddInBase000000::OnAddInToolCommand, COMDAT
; _this$ = ecx

; 210  : 	virtual BOOL	OnAddInToolCommand(	long &p_lResult, const EAICommandType p_eCommandID, const long p_lParam1, const long p_lParam2)			{	return FALSE;	}

  00000	33 c0		 xor	 eax, eax
  00002	c2 10 00	 ret	 16			; 00000010H
?OnAddInToolCommand@CChartAddInBase000000@@MAEHAAJW4EAICommandType@@JJ@Z ENDP ; CChartAddInBase000000::OnAddInToolCommand
_TEXT	ENDS
; Function compile flags: /Ogtp
; File D:\git\src\IBK\IBK_DRFN\ProjSrc\SrcChartEx\ChartOCX\AddInManager\Include_AddIn\I000000\_ChartAddInBase.h
;	COMDAT ?OnAddInToolCommand@CChartAddInBase000000@@MAEHAAJW4EAICommandType@@J@Z
_TEXT	SEGMENT
_p_lResult$ = 8						; size = 4
_p_eCommandID$ = 12					; size = 4
_p_lParam$ = 16						; size = 4
?OnAddInToolCommand@CChartAddInBase000000@@MAEHAAJW4EAICommandType@@J@Z PROC ; CChartAddInBase000000::OnAddInToolCommand, COMDAT
; _this$ = ecx

; 209  : 	virtual BOOL	OnAddInToolCommand(	long &p_lResult, const EAICommandType p_eCommandID, const long p_lParam)								{	return FALSE;	}

  00000	33 c0		 xor	 eax, eax
  00002	c2 0c 00	 ret	 12			; 0000000cH
?OnAddInToolCommand@CChartAddInBase000000@@MAEHAAJW4EAICommandType@@J@Z ENDP ; CChartAddInBase000000::OnAddInToolCommand
_TEXT	ENDS
; Function compile flags: /Ogtp
; File D:\git\src\IBK\IBK_DRFN\ProjSrc\SrcChartEx\ChartOCX\AddInManager\Include_AddIn\I000000\_ChartAddInBase.h
;	COMDAT ?OnAddInToolCommand@CChartAddInBase000000@@MAEHAAJW4EAICommandType@@PBDPAVCObject@@@Z
_TEXT	SEGMENT
_p_lResult$ = 8						; size = 4
_p_eCommandID$ = 12					; size = 4
_p_szParam$ = 16					; size = 4
_p_pParam$ = 20						; size = 4
?OnAddInToolCommand@CChartAddInBase000000@@MAEHAAJW4EAICommandType@@PBDPAVCObject@@@Z PROC ; CChartAddInBase000000::OnAddInToolCommand, COMDAT
; _this$ = ecx

; 208  : 	virtual BOOL	OnAddInToolCommand(	long &p_lResult, const EAICommandType p_eCommandID, const char *p_szParam, CObject *p_pParam)			{	return FALSE;	}

  00000	33 c0		 xor	 eax, eax
  00002	c2 10 00	 ret	 16			; 00000010H
?OnAddInToolCommand@CChartAddInBase000000@@MAEHAAJW4EAICommandType@@PBDPAVCObject@@@Z ENDP ; CChartAddInBase000000::OnAddInToolCommand
_TEXT	ENDS
; Function compile flags: /Ogtp
; File D:\git\src\IBK\IBK_DRFN\ProjSrc\SrcChartEx\ChartOCX\AddInManager\Include_AddIn\I000000\_ChartAddInBase.h
;	COMDAT ?OnAddInToolCommand@CChartAddInBase000000@@MAEHAAJW4EAICommandType@@PBD@Z
_TEXT	SEGMENT
_p_lResult$ = 8						; size = 4
_p_eCommandID$ = 12					; size = 4
_p_szParam$ = 16					; size = 4
?OnAddInToolCommand@CChartAddInBase000000@@MAEHAAJW4EAICommandType@@PBD@Z PROC ; CChartAddInBase000000::OnAddInToolCommand, COMDAT
; _this$ = ecx

; 207  : 	virtual BOOL	OnAddInToolCommand(	long &p_lResult, const EAICommandType p_eCommandID, const char *p_szParam)								{	return FALSE;	}

  00000	33 c0		 xor	 eax, eax
  00002	c2 0c 00	 ret	 12			; 0000000cH
?OnAddInToolCommand@CChartAddInBase000000@@MAEHAAJW4EAICommandType@@PBD@Z ENDP ; CChartAddInBase000000::OnAddInToolCommand
_TEXT	ENDS
; Function compile flags: /Ogtp
; File D:\git\src\IBK\IBK_DRFN\ProjSrc\SrcChartEx\ChartOCX\AddInManager\Include_AddIn\I000000\_ChartAddInBase.h
;	COMDAT ?OnAddInToolCommand@CChartAddInBase000000@@MAEHAAJW4EAICommandType@@PAUIGraphInfo000000@@@Z
_TEXT	SEGMENT
_p_lResult$ = 8						; size = 4
_p_eCommandID$ = 12					; size = 4
_p_pIGraphInfo$ = 16					; size = 4
?OnAddInToolCommand@CChartAddInBase000000@@MAEHAAJW4EAICommandType@@PAUIGraphInfo000000@@@Z PROC ; CChartAddInBase000000::OnAddInToolCommand, COMDAT
; _this$ = ecx

; 206  : 	virtual BOOL	OnAddInToolCommand(	long &p_lResult, const EAICommandType p_eCommandID, IGraphInfo *p_pIGraphInfo)							{	return FALSE;	}

  00000	33 c0		 xor	 eax, eax
  00002	c2 0c 00	 ret	 12			; 0000000cH
?OnAddInToolCommand@CChartAddInBase000000@@MAEHAAJW4EAICommandType@@PAUIGraphInfo000000@@@Z ENDP ; CChartAddInBase000000::OnAddInToolCommand
_TEXT	ENDS
; Function compile flags: /Ogtp
; File D:\git\src\IBK\IBK_DRFN\ProjSrc\SrcChartEx\ChartOCX\AddInManager\Include_AddIn\I000000\_ChartAddInBase.h
;	COMDAT ?OnAddInToolCommand@CChartAddInBase000000@@MAEHAAJW4EAICommandType@@@Z
_TEXT	SEGMENT
_p_lResult$ = 8						; size = 4
_p_eCommandID$ = 12					; size = 4
?OnAddInToolCommand@CChartAddInBase000000@@MAEHAAJW4EAICommandType@@@Z PROC ; CChartAddInBase000000::OnAddInToolCommand, COMDAT
; _this$ = ecx

; 205  : 	virtual BOOL	OnAddInToolCommand(	long &p_lResult, const EAICommandType p_eCommandID)														{	return FALSE;	}

  00000	33 c0		 xor	 eax, eax
  00002	c2 08 00	 ret	 8
?OnAddInToolCommand@CChartAddInBase000000@@MAEHAAJW4EAICommandType@@@Z ENDP ; CChartAddInBase000000::OnAddInToolCommand
_TEXT	ENDS
; Function compile flags: /Ogtp
; File D:\git\src\IBK\IBK_DRFN\ProjSrc\SrcChartEx\ChartOCX\AddInManager\Include_AddIn\I000000\_ChartAddInBase.h
;	COMDAT ?OnAddInToolCommand@CChartAddInBase000000@@MAEHW4EAICommandType@@JJJJJJJJJ@Z
_TEXT	SEGMENT
_p_eCommandID$ = 8					; size = 4
_p_lParam1$ = 12					; size = 4
_p_lParam2$ = 16					; size = 4
_p_lParam3$ = 20					; size = 4
_p_lParam4$ = 24					; size = 4
_p_lParam5$ = 28					; size = 4
_p_lParam6$ = 32					; size = 4
_p_lParam7$ = 36					; size = 4
_p_lParam8$ = 40					; size = 4
_p_lParam9$ = 44					; size = 4
?OnAddInToolCommand@CChartAddInBase000000@@MAEHW4EAICommandType@@JJJJJJJJJ@Z PROC ; CChartAddInBase000000::OnAddInToolCommand, COMDAT
; _this$ = ecx

; 204  : 	virtual BOOL	OnAddInToolCommand(	const EAICommandType p_eCommandID, const long p_lParam1, const long p_lParam2, const long p_lParam3, const long p_lParam4, const long p_lParam5, const long p_lParam6, const long p_lParam7, const long p_lParam8, const long p_lParam9)	{	return FALSE;	}

  00000	33 c0		 xor	 eax, eax
  00002	c2 28 00	 ret	 40			; 00000028H
?OnAddInToolCommand@CChartAddInBase000000@@MAEHW4EAICommandType@@JJJJJJJJJ@Z ENDP ; CChartAddInBase000000::OnAddInToolCommand
_TEXT	ENDS
; Function compile flags: /Ogtp
; File D:\git\src\IBK\IBK_DRFN\ProjSrc\SrcChartEx\ChartOCX\AddInManager\Include_AddIn\I000000\_ChartAddInBase.h
;	COMDAT ?OnAddInToolCommand@CChartAddInBase000000@@MAEHW4EAICommandType@@JJ@Z
_TEXT	SEGMENT
_p_eCommandID$ = 8					; size = 4
_p_lParam1$ = 12					; size = 4
_p_lParam2$ = 16					; size = 4
?OnAddInToolCommand@CChartAddInBase000000@@MAEHW4EAICommandType@@JJ@Z PROC ; CChartAddInBase000000::OnAddInToolCommand, COMDAT
; _this$ = ecx

; 203  : 	virtual BOOL	OnAddInToolCommand(	const EAICommandType p_eCommandID, const long p_lParam1, const long p_lParam2)							{	return FALSE;	}

  00000	33 c0		 xor	 eax, eax
  00002	c2 0c 00	 ret	 12			; 0000000cH
?OnAddInToolCommand@CChartAddInBase000000@@MAEHW4EAICommandType@@JJ@Z ENDP ; CChartAddInBase000000::OnAddInToolCommand
_TEXT	ENDS
; Function compile flags: /Ogtp
; File D:\git\src\IBK\IBK_DRFN\ProjSrc\SrcChartEx\ChartOCX\AddInManager\Include_AddIn\I000000\_ChartAddInBase.h
;	COMDAT ?OnAddInToolCommand@CChartAddInBase000000@@MAEHW4EAICommandType@@JPBD11@Z
_TEXT	SEGMENT
_p_eCommandID$ = 8					; size = 4
_p_lParam$ = 12						; size = 4
_p_szParam1$ = 16					; size = 4
_p_szParam2$ = 20					; size = 4
_p_szParam3$ = 24					; size = 4
?OnAddInToolCommand@CChartAddInBase000000@@MAEHW4EAICommandType@@JPBD11@Z PROC ; CChartAddInBase000000::OnAddInToolCommand, COMDAT
; _this$ = ecx

; 202  : 	virtual BOOL	OnAddInToolCommand( const EAICommandType p_eCommandID, const long p_lParam, const char *p_szParam1, const char *p_szParam2, const char *p_szParam3)	{	return FALSE;	}

  00000	33 c0		 xor	 eax, eax
  00002	c2 14 00	 ret	 20			; 00000014H
?OnAddInToolCommand@CChartAddInBase000000@@MAEHW4EAICommandType@@JPBD11@Z ENDP ; CChartAddInBase000000::OnAddInToolCommand
_TEXT	ENDS
; Function compile flags: /Ogtp
; File D:\git\src\IBK\IBK_DRFN\ProjSrc\SrcChartEx\ChartOCX\AddInManager\Include_AddIn\I000000\_ChartAddInBase.h
;	COMDAT ?OnAddInToolCommand@CChartAddInBase000000@@MAEHW4EAICommandType@@JPBD@Z
_TEXT	SEGMENT
_p_eCommandID$ = 8					; size = 4
_p_lParam$ = 12						; size = 4
_p_szParam$ = 16					; size = 4
?OnAddInToolCommand@CChartAddInBase000000@@MAEHW4EAICommandType@@JPBD@Z PROC ; CChartAddInBase000000::OnAddInToolCommand, COMDAT
; _this$ = ecx

; 201  : 	virtual BOOL	OnAddInToolCommand( const EAICommandType p_eCommandID, const long p_lParam, const char *p_szParam)							{	return FALSE;	}

  00000	33 c0		 xor	 eax, eax
  00002	c2 0c 00	 ret	 12			; 0000000cH
?OnAddInToolCommand@CChartAddInBase000000@@MAEHW4EAICommandType@@JPBD@Z ENDP ; CChartAddInBase000000::OnAddInToolCommand
_TEXT	ENDS
; Function compile flags: /Ogtp
; File D:\git\src\IBK\IBK_DRFN\ProjSrc\SrcChartEx\ChartOCX\AddInManager\Include_AddIn\I000000\_ChartAddInBase.h
;	COMDAT ?OnAddInToolCommand@CChartAddInBase000000@@MAEHW4EAICommandType@@J@Z
_TEXT	SEGMENT
_p_eCommandID$ = 8					; size = 4
_p_lParam$ = 12						; size = 4
?OnAddInToolCommand@CChartAddInBase000000@@MAEHW4EAICommandType@@J@Z PROC ; CChartAddInBase000000::OnAddInToolCommand, COMDAT
; _this$ = ecx

; 200  : 	virtual BOOL	OnAddInToolCommand(	const EAICommandType p_eCommandID, const long p_lParam)													{	return FALSE;	}

  00000	33 c0		 xor	 eax, eax
  00002	c2 08 00	 ret	 8
?OnAddInToolCommand@CChartAddInBase000000@@MAEHW4EAICommandType@@J@Z ENDP ; CChartAddInBase000000::OnAddInToolCommand
_TEXT	ENDS
; Function compile flags: /Ogtp
; File D:\git\src\IBK\IBK_DRFN\ProjSrc\SrcChartEx\ChartOCX\AddInManager\Include_AddIn\I000000\_ChartAddInBase.h
;	COMDAT ?OnAddInToolCommand@CChartAddInBase000000@@MAEHW4EAICommandType@@PBUIAddInDllBase@@@Z
_TEXT	SEGMENT
_p_eCommandID$ = 8					; size = 4
_p_pParam$ = 12						; size = 4
?OnAddInToolCommand@CChartAddInBase000000@@MAEHW4EAICommandType@@PBUIAddInDllBase@@@Z PROC ; CChartAddInBase000000::OnAddInToolCommand, COMDAT
; _this$ = ecx

; 199  : 	virtual BOOL	OnAddInToolCommand(	const EAICommandType p_eCommandID, const IAddInDllBase *p_pParam)										{	return FALSE;	}

  00000	33 c0		 xor	 eax, eax
  00002	c2 08 00	 ret	 8
?OnAddInToolCommand@CChartAddInBase000000@@MAEHW4EAICommandType@@PBUIAddInDllBase@@@Z ENDP ; CChartAddInBase000000::OnAddInToolCommand
_TEXT	ENDS
; Function compile flags: /Ogtp
; File D:\git\src\IBK\IBK_DRFN\ProjSrc\SrcChartEx\ChartOCX\AddInManager\Include_AddIn\I000000\_ChartAddInBase.h
;	COMDAT ?OnAddInToolCommand@CChartAddInBase000000@@MAEHW4EAICommandType@@PBDJ@Z
_TEXT	SEGMENT
_p_eCommandID$ = 8					; size = 4
_p_szParam$ = 12					; size = 4
_p_lParam$ = 16						; size = 4
?OnAddInToolCommand@CChartAddInBase000000@@MAEHW4EAICommandType@@PBDJ@Z PROC ; CChartAddInBase000000::OnAddInToolCommand, COMDAT
; _this$ = ecx

; 198  : 	virtual BOOL	OnAddInToolCommand( const EAICommandType p_eCommandID, const char *p_szParam, const long p_lParam)							{	return FALSE;	}

  00000	33 c0		 xor	 eax, eax
  00002	c2 0c 00	 ret	 12			; 0000000cH
?OnAddInToolCommand@CChartAddInBase000000@@MAEHW4EAICommandType@@PBDJ@Z ENDP ; CChartAddInBase000000::OnAddInToolCommand
_TEXT	ENDS
; Function compile flags: /Ogtp
; File D:\git\src\IBK\IBK_DRFN\ProjSrc\SrcChartEx\ChartOCX\AddInManager\Include_AddIn\I000000\_ChartAddInBase.h
;	COMDAT ?OnAddInToolCommand@CChartAddInBase000000@@MAEHW4EAICommandType@@PBD1@Z
_TEXT	SEGMENT
_p_eCommandID$ = 8					; size = 4
_p_szParam1$ = 12					; size = 4
_p_szParam2$ = 16					; size = 4
?OnAddInToolCommand@CChartAddInBase000000@@MAEHW4EAICommandType@@PBD1@Z PROC ; CChartAddInBase000000::OnAddInToolCommand, COMDAT
; _this$ = ecx

; 197  : 	virtual BOOL	OnAddInToolCommand(	const EAICommandType p_eCommandID, const char *p_szParam1, const char *p_szParam2)						{	return FALSE;	}

  00000	33 c0		 xor	 eax, eax
  00002	c2 0c 00	 ret	 12			; 0000000cH
?OnAddInToolCommand@CChartAddInBase000000@@MAEHW4EAICommandType@@PBD1@Z ENDP ; CChartAddInBase000000::OnAddInToolCommand
_TEXT	ENDS
; Function compile flags: /Ogtp
; File D:\git\src\IBK\IBK_DRFN\ProjSrc\SrcChartEx\ChartOCX\AddInManager\Include_AddIn\I000000\_ChartAddInBase.h
;	COMDAT ?OnAddInToolCommand@CChartAddInBase000000@@MAEHW4EAICommandType@@PBD@Z
_TEXT	SEGMENT
_p_eCommandID$ = 8					; size = 4
_p_szParam$ = 12					; size = 4
?OnAddInToolCommand@CChartAddInBase000000@@MAEHW4EAICommandType@@PBD@Z PROC ; CChartAddInBase000000::OnAddInToolCommand, COMDAT
; _this$ = ecx

; 196  : 	virtual BOOL	OnAddInToolCommand(	const EAICommandType p_eCommandID, const char *p_szParam)												{	return FALSE;	}

  00000	33 c0		 xor	 eax, eax
  00002	c2 08 00	 ret	 8
?OnAddInToolCommand@CChartAddInBase000000@@MAEHW4EAICommandType@@PBD@Z ENDP ; CChartAddInBase000000::OnAddInToolCommand
_TEXT	ENDS
; Function compile flags: /Ogtp
; File D:\git\src\IBK\IBK_DRFN\ProjSrc\SrcChartEx\ChartOCX\AddInManager\Include_AddIn\I000000\_ChartAddInBase.h
;	COMDAT ?OnAddInToolCommand@CChartAddInBase000000@@MAEHW4EAICommandType@@PAUHDC__@@IAAUtagPOINT@@K@Z
_TEXT	SEGMENT
_p_eCommandID$ = 8					; size = 4
_p_hDC$ = 12						; size = 4
_nFlags$ = 16						; size = 4
_point$ = 20						; size = 4
_p_dwMouseActionID$ = 24				; size = 4
?OnAddInToolCommand@CChartAddInBase000000@@MAEHW4EAICommandType@@PAUHDC__@@IAAUtagPOINT@@K@Z PROC ; CChartAddInBase000000::OnAddInToolCommand, COMDAT
; _this$ = ecx

; 195  : 	virtual BOOL	OnAddInToolCommand(	const EAICommandType p_eCommandID, HDC p_hDC, UINT nFlags, POINT &point, const DWORD p_dwMouseActionID)	{	return FALSE;	}

  00000	33 c0		 xor	 eax, eax
  00002	c2 14 00	 ret	 20			; 00000014H
?OnAddInToolCommand@CChartAddInBase000000@@MAEHW4EAICommandType@@PAUHDC__@@IAAUtagPOINT@@K@Z ENDP ; CChartAddInBase000000::OnAddInToolCommand
_TEXT	ENDS
; Function compile flags: /Ogtp
; File D:\git\src\IBK\IBK_DRFN\ProjSrc\SrcChartEx\ChartOCX\AddInManager\Include_AddIn\I000000\_ChartAddInBase.h
;	COMDAT ?OnAddInToolCommand@CChartAddInBase000000@@MAEHW4EAICommandType@@@Z
_TEXT	SEGMENT
_p_eCommandID$ = 8					; size = 4
?OnAddInToolCommand@CChartAddInBase000000@@MAEHW4EAICommandType@@@Z PROC ; CChartAddInBase000000::OnAddInToolCommand, COMDAT
; _this$ = ecx

; 194  : 	virtual BOOL	OnAddInToolCommand(	const EAICommandType p_eCommandID)																		{	return FALSE;	}

  00000	33 c0		 xor	 eax, eax
  00002	c2 04 00	 ret	 4
?OnAddInToolCommand@CChartAddInBase000000@@MAEHW4EAICommandType@@@Z ENDP ; CChartAddInBase000000::OnAddInToolCommand
_TEXT	ENDS
; Function compile flags: /Ogtp
; File D:\git\src\IBK\IBK_DRFN\ProjSrc\SrcChartEx\ChartOCX\AddInManager\Include_AddIn\I000000\_ChartAddInBase.h
;	COMDAT ?OnAddInMsg@CChartAddInBase000000@@MAEHPBDJ@Z
_TEXT	SEGMENT
_p_szAddInItemName$ = 8					; size = 4
_p_lParam$ = 12						; size = 4
?OnAddInMsg@CChartAddInBase000000@@MAEHPBDJ@Z PROC	; CChartAddInBase000000::OnAddInMsg, COMDAT
; _this$ = ecx

; 193  : 	virtual BOOL	OnAddInMsg(			const char *p_szAddInItemName, const long p_lParam)														{	return FALSE;	}

  00000	33 c0		 xor	 eax, eax
  00002	c2 08 00	 ret	 8
?OnAddInMsg@CChartAddInBase000000@@MAEHPBDJ@Z ENDP	; CChartAddInBase000000::OnAddInMsg
_TEXT	ENDS
; Function compile flags: /Ogtp
; File D:\git\src\IBK\IBK_DRFN\ProjSrc\SrcChartEx\ChartOCX\AddInManager\Include_AddIn\I000000\_ChartAddInBase.h
;	COMDAT ?OnCmdMsg@CChartAddInBase000000@@MAEHIHPAUICmdUI000000@@@Z
_TEXT	SEGMENT
_nID$ = 8						; size = 4
_nCode$ = 12						; size = 4
_p_pICmdUI$ = 16					; size = 4
?OnCmdMsg@CChartAddInBase000000@@MAEHIHPAUICmdUI000000@@@Z PROC ; CChartAddInBase000000::OnCmdMsg, COMDAT
; _this$ = ecx

; 192  : 	virtual BOOL	OnCmdMsg(			UINT nID, int nCode, ICmdUI *p_pICmdUI)																	{	return FALSE;	}

  00000	33 c0		 xor	 eax, eax
  00002	c2 0c 00	 ret	 12			; 0000000cH
?OnCmdMsg@CChartAddInBase000000@@MAEHIHPAUICmdUI000000@@@Z ENDP ; CChartAddInBase000000::OnCmdMsg
_TEXT	ENDS
; Function compile flags: /Ogtp
; File D:\git\src\IBK\IBK_DRFN\ProjSrc\SrcChartEx\ChartOCX\AddInManager\Include_AddIn\I000000\_ChartAddInBase.h
;	COMDAT ?OnPreNMTRClock@CChartAddInBase000000@@MAEHAA_J@Z
_TEXT	SEGMENT
_p_nRealClockSecs$ = 8					; size = 4
?OnPreNMTRClock@CChartAddInBase000000@@MAEHAA_J@Z PROC	; CChartAddInBase000000::OnPreNMTRClock, COMDAT
; _this$ = ecx

; 186  : 	virtual BOOL	OnPreNMTRClock( __int64 &p_nRealClockSecs)																		{	return TRUE;	}

  00000	b8 01 00 00 00	 mov	 eax, 1
  00005	c2 04 00	 ret	 4
?OnPreNMTRClock@CChartAddInBase000000@@MAEHAA_J@Z ENDP	; CChartAddInBase000000::OnPreNMTRClock
_TEXT	ENDS
; Function compile flags: /Ogtp
; File D:\git\src\IBK\IBK_DRFN\ProjSrc\SrcChartEx\ChartOCX\AddInManager\Include_AddIn\I000000\_ChartAddInBase.h
;	COMDAT ?OnPreRealPacketEnd@CChartAddInBase000000@@MAEHPBDH@Z
_TEXT	SEGMENT
_p_szRQ$ = 8						; size = 4
_p_bRealData$ = 12					; size = 4
?OnPreRealPacketEnd@CChartAddInBase000000@@MAEHPBDH@Z PROC ; CChartAddInBase000000::OnPreRealPacketEnd, COMDAT
; _this$ = ecx

; 185  : 	virtual BOOL	OnPreRealPacketEnd( const char *p_szRQ = NULL, BOOL p_bRealData = TRUE)											{	return TRUE;	}

  00000	b8 01 00 00 00	 mov	 eax, 1
  00005	c2 08 00	 ret	 8
?OnPreRealPacketEnd@CChartAddInBase000000@@MAEHPBDH@Z ENDP ; CChartAddInBase000000::OnPreRealPacketEnd
_TEXT	ENDS
; Function compile flags: /Ogtp
; File D:\git\src\IBK\IBK_DRFN\ProjSrc\SrcChartEx\ChartOCX\AddInManager\Include_AddIn\I000000\_ChartAddInBase.h
;	COMDAT ?OnPreIndexedRealData@CChartAddInBase000000@@MAEHPBDHAANH@Z
_TEXT	SEGMENT
_p_szPacketName$ = 8					; size = 4
_p_nIndex$ = 12						; size = 4
_p_dData$ = 16						; size = 4
_p_bRealData$ = 20					; size = 4
?OnPreIndexedRealData@CChartAddInBase000000@@MAEHPBDHAANH@Z PROC ; CChartAddInBase000000::OnPreIndexedRealData, COMDAT
; _this$ = ecx

; 184  : 	virtual BOOL	OnPreIndexedRealData( const char *p_szPacketName, const int p_nIndex, double &p_dData, BOOL p_bRealData = TRUE)	{	return TRUE;	}

  00000	b8 01 00 00 00	 mov	 eax, 1
  00005	c2 10 00	 ret	 16			; 00000010H
?OnPreIndexedRealData@CChartAddInBase000000@@MAEHPBDHAANH@Z ENDP ; CChartAddInBase000000::OnPreIndexedRealData
_TEXT	ENDS
; Function compile flags: /Ogtp
; File D:\git\src\IBK\IBK_DRFN\ProjSrc\SrcChartEx\ChartOCX\AddInManager\Include_AddIn\I000000\_ChartAddInBase.h
;	COMDAT ?OnPreRealData@CChartAddInBase000000@@MAEHPBDAAN0H@Z
_TEXT	SEGMENT
_p_szPacketName$ = 8					; size = 4
_p_dData$ = 12						; size = 4
_p_szRQ$ = 16						; size = 4
_p_bRealData$ = 20					; size = 4
?OnPreRealData@CChartAddInBase000000@@MAEHPBDAAN0H@Z PROC ; CChartAddInBase000000::OnPreRealData, COMDAT
; _this$ = ecx

; 183  : 	virtual BOOL	OnPreRealData( const char *p_szPacketName, double &p_dData, const char *p_szRQ = NULL, BOOL p_bRealData = TRUE)	{	return TRUE;	}

  00000	b8 01 00 00 00	 mov	 eax, 1
  00005	c2 10 00	 ret	 16			; 00000010H
?OnPreRealData@CChartAddInBase000000@@MAEHPBDAAN0H@Z ENDP ; CChartAddInBase000000::OnPreRealData
_TEXT	ENDS
; Function compile flags: /Ogtp
; File D:\git\src\IBK\IBK_DRFN\ProjSrc\SrcChartEx\ChartOCX\AddInManager\Include_AddIn\I000000\_ChartAddInBase.h
;	COMDAT ?OnRecalculationComplete@CChartAddInBase000000@@MAEXXZ
_TEXT	SEGMENT
?OnRecalculationComplete@CChartAddInBase000000@@MAEXXZ PROC ; CChartAddInBase000000::OnRecalculationComplete, COMDAT
; _this$ = ecx

; 179  : 	virtual void	OnRecalculationComplete( void)						{}

  00000	c2 00 00	 ret	 0
?OnRecalculationComplete@CChartAddInBase000000@@MAEXXZ ENDP ; CChartAddInBase000000::OnRecalculationComplete
_TEXT	ENDS
; Function compile flags: /Ogtp
; File D:\git\src\IBK\IBK_DRFN\ProjSrc\SrcChartEx\ChartOCX\AddInManager\Include_AddIn\I000000\_ChartAddInBase.h
;	COMDAT ?DrawCursor@CChartAddInBase000000@@MAE?AUtagRECT@@PAUHDC__@@@Z
_TEXT	SEGMENT
___$ReturnUdt$ = 8					; size = 4
_p_hDC$ = 12						; size = 4
?DrawCursor@CChartAddInBase000000@@MAE?AUtagRECT@@PAUHDC__@@@Z PROC ; CChartAddInBase000000::DrawCursor, COMDAT
; _this$ = ecx

; 177  : 	virtual RECT	DrawCursor( HDC p_hDC)								{	RECT rct = { 0, 0, 0, 0};	return rct;		}

  00000	55		 push	 ebp
  00001	8b ec		 mov	 ebp, esp
  00003	8b 45 08	 mov	 eax, DWORD PTR ___$ReturnUdt$[ebp]
  00006	c7 00 00 00 00
	00		 mov	 DWORD PTR [eax], 0
  0000c	c7 40 04 00 00
	00 00		 mov	 DWORD PTR [eax+4], 0
  00013	c7 40 08 00 00
	00 00		 mov	 DWORD PTR [eax+8], 0
  0001a	c7 40 0c 00 00
	00 00		 mov	 DWORD PTR [eax+12], 0
  00021	5d		 pop	 ebp
  00022	c2 08 00	 ret	 8
?DrawCursor@CChartAddInBase000000@@MAE?AUtagRECT@@PAUHDC__@@@Z ENDP ; CChartAddInBase000000::DrawCursor
_TEXT	ENDS
; Function compile flags: /Ogtp
; File D:\git\src\IBK\IBK_DRFN\ProjSrc\SrcChartEx\ChartOCX\AddInManager\Include_AddIn\I000000\_ChartAddInBase.h
;	COMDAT ?OnRealPacketEnd@CChartAddInBase000000@@MAEXPBD@Z
_TEXT	SEGMENT
_p_szRQ$ = 8						; size = 4
?OnRealPacketEnd@CChartAddInBase000000@@MAEXPBD@Z PROC	; CChartAddInBase000000::OnRealPacketEnd, COMDAT
; _this$ = ecx

; 172  : 	virtual void	OnRealPacketEnd( const char *p_szRQ)								{}

  00000	c2 04 00	 ret	 4
?OnRealPacketEnd@CChartAddInBase000000@@MAEXPBD@Z ENDP	; CChartAddInBase000000::OnRealPacketEnd
_TEXT	ENDS
; Function compile flags: /Ogtp
; File D:\git\src\IBK\IBK_DRFN\ProjSrc\SrcChartEx\ChartOCX\AddInManager\Include_AddIn\I000000\_ChartAddInBase.h
;	COMDAT ?OnIndexedRealData@CChartAddInBase000000@@MAEXPBDHN@Z
_TEXT	SEGMENT
_p_szPacketName$ = 8					; size = 4
_p_nIndex$ = 12						; size = 4
_p_dData$ = 16						; size = 8
?OnIndexedRealData@CChartAddInBase000000@@MAEXPBDHN@Z PROC ; CChartAddInBase000000::OnIndexedRealData, COMDAT
; _this$ = ecx

; 170  : 	virtual void	OnIndexedRealData( const char *p_szPacketName, const int p_nIndex, double p_dData)		{}

  00000	c2 10 00	 ret	 16			; 00000010H
?OnIndexedRealData@CChartAddInBase000000@@MAEXPBDHN@Z ENDP ; CChartAddInBase000000::OnIndexedRealData
_TEXT	ENDS
; Function compile flags: /Ogtp
; File D:\git\src\IBK\IBK_DRFN\ProjSrc\SrcChartEx\ChartOCX\AddInManager\Include_AddIn\I000000\_ChartAddInBase.h
;	COMDAT ?OnRealData@CChartAddInBase000000@@MAEXPBDN0@Z
_TEXT	SEGMENT
_p_szPacketName$ = 8					; size = 4
_p_dData$ = 12						; size = 8
_p_szRQ$ = 20						; size = 4
?OnRealData@CChartAddInBase000000@@MAEXPBDN0@Z PROC	; CChartAddInBase000000::OnRealData, COMDAT
; _this$ = ecx

; 169  : 	virtual void	OnRealData( const char *p_szPacketName, double p_dData, const char *p_szRQ)			{}

  00000	c2 10 00	 ret	 16			; 00000010H
?OnRealData@CChartAddInBase000000@@MAEXPBDN0@Z ENDP	; CChartAddInBase000000::OnRealData
_TEXT	ENDS
; Function compile flags: /Ogtp
; File D:\git\src\IBK\IBK_DRFN\ProjSrc\SrcChartEx\ChartOCX\AddInManager\Include_AddIn\I000000\_ChartAddInBase.h
;	COMDAT ?OnToolCommand@CChartAddInBase000000@@MAEXHH@Z
_TEXT	SEGMENT
_p_nToolType$ = 8					; size = 4
_p_nCmdOption$ = 12					; size = 4
?OnToolCommand@CChartAddInBase000000@@MAEXHH@Z PROC	; CChartAddInBase000000::OnToolCommand, COMDAT
; _this$ = ecx

; 167  : 	virtual void	OnToolCommand( const int p_nToolType, const int p_nCmdOption)	{}

  00000	c2 08 00	 ret	 8
?OnToolCommand@CChartAddInBase000000@@MAEXHH@Z ENDP	; CChartAddInBase000000::OnToolCommand
_TEXT	ENDS
; Function compile flags: /Ogtp
; File D:\git\src\IBK\IBK_DRFN\ProjSrc\SrcChartEx\ChartOCX\AddInManager\Include_AddIn\I000000\_ChartAddInBase.h
;	COMDAT ?OnBlockChanged@CChartAddInBase000000@@MAEXW4BLOCKBEHAVIOR@CBlockBaseData@@HHHH@Z
_TEXT	SEGMENT
_p_eChangeType$ = 8					; size = 4
_p_nSourceRow$ = 12					; size = 4
_p_nSourceColumn$ = 16					; size = 4
_p_nTargetRow$ = 20					; size = 4
_p_nTargetColumn$ = 24					; size = 4
?OnBlockChanged@CChartAddInBase000000@@MAEXW4BLOCKBEHAVIOR@CBlockBaseData@@HHHH@Z PROC ; CChartAddInBase000000::OnBlockChanged, COMDAT
; _this$ = ecx

; 165  : 	virtual void	OnBlockChanged( const CBlockBaseData::BLOCKBEHAVIOR p_eChangeType, const int p_nSourceRow, const int p_nSourceColumn, const int p_nTargetRow, const int p_nTargetColumn)	{}

  00000	c2 14 00	 ret	 20			; 00000014H
?OnBlockChanged@CChartAddInBase000000@@MAEXW4BLOCKBEHAVIOR@CBlockBaseData@@HHHH@Z ENDP ; CChartAddInBase000000::OnBlockChanged
_TEXT	ENDS
; Function compile flags: /Ogtp
; File D:\git\src\IBK\IBK_DRFN\ProjSrc\SrcChartEx\ChartOCX\AddInManager\Include_AddIn\I000000\_ChartAddInBase.h
;	COMDAT ?OnPacketTruncated@CChartAddInBase000000@@MAEXH@Z
_TEXT	SEGMENT
_p_nDataCount$ = 8					; size = 4
?OnPacketTruncated@CChartAddInBase000000@@MAEXH@Z PROC	; CChartAddInBase000000::OnPacketTruncated, COMDAT
; _this$ = ecx

; 163  : 	virtual void	OnPacketTruncated( const int p_nDataCount)			{}

  00000	c2 04 00	 ret	 4
?OnPacketTruncated@CChartAddInBase000000@@MAEXH@Z ENDP	; CChartAddInBase000000::OnPacketTruncated
_TEXT	ENDS
; Function compile flags: /Ogtp
; File D:\git\src\IBK\IBK_DRFN\ProjSrc\SrcChartEx\ChartOCX\AddInManager\Include_AddIn\I000000\_ChartAddInBase.h
;	COMDAT ?OnGraphDeleted@CChartAddInBase000000@@MAEXPBD0@Z
_TEXT	SEGMENT
_p_szGraphName$ = 8					; size = 4
_p_szIndicatorName$ = 12				; size = 4
?OnGraphDeleted@CChartAddInBase000000@@MAEXPBD0@Z PROC	; CChartAddInBase000000::OnGraphDeleted, COMDAT
; _this$ = ecx

; 161  : 	virtual void	OnGraphDeleted( const char *p_szGraphName, const char *p_szIndicatorName)			{}

  00000	c2 08 00	 ret	 8
?OnGraphDeleted@CChartAddInBase000000@@MAEXPBD0@Z ENDP	; CChartAddInBase000000::OnGraphDeleted
_TEXT	ENDS
; Function compile flags: /Ogtp
; File D:\git\src\IBK\IBK_DRFN\ProjSrc\SrcChartEx\ChartOCX\AddInManager\Include_AddIn\I000000\_ChartAddInBase.h
;	COMDAT ?OnContextMenu@CChartAddInBase000000@@MAEXPAUHWND__@@AAUtagPOINT@@@Z
_TEXT	SEGMENT
_p_hWnd$ = 8						; size = 4
_p_pt$ = 12						; size = 4
?OnContextMenu@CChartAddInBase000000@@MAEXPAUHWND__@@AAUtagPOINT@@@Z PROC ; CChartAddInBase000000::OnContextMenu, COMDAT
; _this$ = ecx

; 159  : 	virtual void	OnContextMenu( HWND p_hWnd, POINT &p_pt)			{}

  00000	c2 08 00	 ret	 8
?OnContextMenu@CChartAddInBase000000@@MAEXPAUHWND__@@AAUtagPOINT@@@Z ENDP ; CChartAddInBase000000::OnContextMenu
_TEXT	ENDS
; Function compile flags: /Ogtp
; File D:\git\src\IBK\IBK_DRFN\ProjSrc\SrcChartEx\ChartOCX\AddInManager\Include_AddIn\I000000\_ChartAddInBase.h
;	COMDAT ?OnManualRealData@CChartAddInBase000000@@MAEXPBDNH@Z
_TEXT	SEGMENT
_p_szPacketName$ = 8					; size = 4
_p_dData$ = 12						; size = 8
_p_nOption$ = 20					; size = 4
?OnManualRealData@CChartAddInBase000000@@MAEXPBDNH@Z PROC ; CChartAddInBase000000::OnManualRealData, COMDAT
; _this$ = ecx

; 157  : 	virtual void	OnManualRealData( const char *p_szPacketName, const double p_dData, const int p_nOption)	{}

  00000	c2 10 00	 ret	 16			; 00000010H
?OnManualRealData@CChartAddInBase000000@@MAEXPBDNH@Z ENDP ; CChartAddInBase000000::OnManualRealData
_TEXT	ENDS
; Function compile flags: /Ogtp
; File D:\git\src\IBK\IBK_DRFN\ProjSrc\SrcChartEx\ChartOCX\AddInManager\Include_AddIn\I000000\_ChartAddInBase.h
;	COMDAT ?OnGraphAdded@CChartAddInBase000000@@MAEXPBD0@Z
_TEXT	SEGMENT
_p_szGraphName$ = 8					; size = 4
_p_szIndicatorName$ = 12				; size = 4
?OnGraphAdded@CChartAddInBase000000@@MAEXPBD0@Z PROC	; CChartAddInBase000000::OnGraphAdded, COMDAT
; _this$ = ecx

; 155  : 	virtual void	OnGraphAdded( const char *p_szGraphName, const char *p_szIndicatorName)			{}

  00000	c2 08 00	 ret	 8
?OnGraphAdded@CChartAddInBase000000@@MAEXPBD0@Z ENDP	; CChartAddInBase000000::OnGraphAdded
_TEXT	ENDS
; Function compile flags: /Ogtp
; File D:\git\src\IBK\IBK_DRFN\ProjSrc\SrcChartEx\ChartOCX\AddInManager\Include_AddIn\I000000\_ChartAddInBase.h
;	COMDAT ?OnBlockRemoved@CChartAddInBase000000@@MAEXHH@Z
_TEXT	SEGMENT
_p_nRow$ = 8						; size = 4
_p_nColumn$ = 12					; size = 4
?OnBlockRemoved@CChartAddInBase000000@@MAEXHH@Z PROC	; CChartAddInBase000000::OnBlockRemoved, COMDAT
; _this$ = ecx

; 153  : 	virtual void	OnBlockRemoved( const int p_nRow, const int p_nColumn)	{}

  00000	c2 08 00	 ret	 8
?OnBlockRemoved@CChartAddInBase000000@@MAEXHH@Z ENDP	; CChartAddInBase000000::OnBlockRemoved
_TEXT	ENDS
; Function compile flags: /Ogtp
; File D:\git\src\IBK\IBK_DRFN\ProjSrc\SrcChartEx\ChartOCX\AddInManager\Include_AddIn\I000000\_ChartAddInBase.h
;	COMDAT ?OnGraphDataChanged@CChartAddInBase000000@@MAEXXZ
_TEXT	SEGMENT
?OnGraphDataChanged@CChartAddInBase000000@@MAEXXZ PROC	; CChartAddInBase000000::OnGraphDataChanged, COMDAT
; _this$ = ecx

; 151  : 	virtual void	OnGraphDataChanged( void)							{}

  00000	c2 00 00	 ret	 0
?OnGraphDataChanged@CChartAddInBase000000@@MAEXXZ ENDP	; CChartAddInBase000000::OnGraphDataChanged
_TEXT	ENDS
; Function compile flags: /Ogtp
; File D:\git\src\IBK\IBK_DRFN\ProjSrc\SrcChartEx\ChartOCX\AddInManager\Include_AddIn\I000000\_ChartAddInBase.h
;	COMDAT ?OnChartItemChanged@CChartAddInBase000000@@MAEXXZ
_TEXT	SEGMENT
?OnChartItemChanged@CChartAddInBase000000@@MAEXXZ PROC	; CChartAddInBase000000::OnChartItemChanged, COMDAT
; _this$ = ecx

; 149  : 	virtual void	OnChartItemChanged( void)							{}

  00000	c2 00 00	 ret	 0
?OnChartItemChanged@CChartAddInBase000000@@MAEXXZ ENDP	; CChartAddInBase000000::OnChartItemChanged
_TEXT	ENDS
; Function compile flags: /Ogtp
; File D:\git\src\IBK\IBK_DRFN\ProjSrc\SrcChartEx\ChartOCX\AddInManager\Include_AddIn\I000000\_ChartAddInBase.h
;	COMDAT ?OnUserIndiatorConditionLoaded@CChartAddInBase000000@@MAEXXZ
_TEXT	SEGMENT
?OnUserIndiatorConditionLoaded@CChartAddInBase000000@@MAEXXZ PROC ; CChartAddInBase000000::OnUserIndiatorConditionLoaded, COMDAT
; _this$ = ecx

; 147  : 	virtual void	OnUserIndiatorConditionLoaded( void)				{}

  00000	c2 00 00	 ret	 0
?OnUserIndiatorConditionLoaded@CChartAddInBase000000@@MAEXXZ ENDP ; CChartAddInBase000000::OnUserIndiatorConditionLoaded
_TEXT	ENDS
; Function compile flags: /Ogtp
; File D:\git\src\IBK\IBK_DRFN\ProjSrc\SrcChartEx\ChartOCX\AddInManager\Include_AddIn\I000000\_ChartAddInBase.h
;	COMDAT ?OnResetMainBlock@CChartAddInBase000000@@MAEXXZ
_TEXT	SEGMENT
?OnResetMainBlock@CChartAddInBase000000@@MAEXXZ PROC	; CChartAddInBase000000::OnResetMainBlock, COMDAT
; _this$ = ecx

; 145  : 	virtual void	OnResetMainBlock( void)								{}

  00000	c2 00 00	 ret	 0
?OnResetMainBlock@CChartAddInBase000000@@MAEXXZ ENDP	; CChartAddInBase000000::OnResetMainBlock
_TEXT	ENDS
; Function compile flags: /Ogtp
; File D:\git\src\IBK\IBK_DRFN\ProjSrc\SrcChartEx\ChartOCX\AddInManager\Include_AddIn\I000000\_ChartAddInBase.h
;	COMDAT ?OnCaptureChanged@CChartAddInBase000000@@MAEXPAUHWND__@@QAUHBITMAP__@@@Z
_TEXT	SEGMENT
_p_hWnd$ = 8						; size = 4
_p_hbmpMainOSB$ = 12					; size = 4
?OnCaptureChanged@CChartAddInBase000000@@MAEXPAUHWND__@@QAUHBITMAP__@@@Z PROC ; CChartAddInBase000000::OnCaptureChanged, COMDAT
; _this$ = ecx

; 143  : 	virtual void	OnCaptureChanged( HWND p_hWnd, const HBITMAP p_hbmpMainOSB)	{}	// (2006/11/5 - Seung-Won, Bae) Support MainOSB

  00000	c2 08 00	 ret	 8
?OnCaptureChanged@CChartAddInBase000000@@MAEXPAUHWND__@@QAUHBITMAP__@@@Z ENDP ; CChartAddInBase000000::OnCaptureChanged
_TEXT	ENDS
; Function compile flags: /Ogtp
; File D:\git\src\IBK\IBK_DRFN\ProjSrc\SrcChartEx\ChartOCX\AddInManager\Include_AddIn\I000000\_ChartAddInBase.h
;	COMDAT ?OnTimer@CChartAddInBase000000@@MAEXI@Z
_TEXT	SEGMENT
_p_uTimerID$ = 8					; size = 4
?OnTimer@CChartAddInBase000000@@MAEXI@Z PROC		; CChartAddInBase000000::OnTimer, COMDAT
; _this$ = ecx

; 138  : 	virtual void	OnTimer( UINT p_uTimerID)	{}

  00000	c2 04 00	 ret	 4
?OnTimer@CChartAddInBase000000@@MAEXI@Z ENDP		; CChartAddInBase000000::OnTimer
_TEXT	ENDS
; Function compile flags: /Ogtp
; File D:\git\src\IBK\IBK_DRFN\ProjSrc\SrcChartEx\ChartOCX\AddInManager\Include_AddIn\I000000\_ChartAddInBase.h
;	COMDAT ?OnDrawAfterGraph@CChartAddInBase000000@@MAEXPAUHDC__@@@Z
_TEXT	SEGMENT
_p_hDC$ = 8						; size = 4
?OnDrawAfterGraph@CChartAddInBase000000@@MAEXPAUHDC__@@@Z PROC ; CChartAddInBase000000::OnDrawAfterGraph, COMDAT
; _this$ = ecx

; 134  : 	virtual void	OnDrawAfterGraph( HDC p_hDC)	{}

  00000	c2 04 00	 ret	 4
?OnDrawAfterGraph@CChartAddInBase000000@@MAEXPAUHDC__@@@Z ENDP ; CChartAddInBase000000::OnDrawAfterGraph
_TEXT	ENDS
; Function compile flags: /Ogtp
; File D:\git\src\IBK\IBK_DRFN\ProjSrc\SrcChartEx\ChartOCX\AddInManager\Include_AddIn\I000000\_ChartAddInBase.h
;	COMDAT ?OnResetChart@CChartAddInBase000000@@MAEXXZ
_TEXT	SEGMENT
?OnResetChart@CChartAddInBase000000@@MAEXXZ PROC	; CChartAddInBase000000::OnResetChart, COMDAT
; _this$ = ecx

; 130  : 	virtual void	OnResetChart( void)	{}

  00000	c2 00 00	 ret	 0
?OnResetChart@CChartAddInBase000000@@MAEXXZ ENDP	; CChartAddInBase000000::OnResetChart
_TEXT	ENDS
; Function compile flags: /Ogtp
; File D:\git\src\IBK\IBK_DRFN\ProjSrc\SrcChartEx\ChartOCX\AddInManager\Include_AddIn\I000000\_ChartAddInBase.h
;	COMDAT ?OnLSharedDataChange@CChartAddInBase000000@@MAEXPBD0@Z
_TEXT	SEGMENT
_p_szLShareKey$ = 8					; size = 4
_p_szLShareValue$ = 12					; size = 4
?OnLSharedDataChange@CChartAddInBase000000@@MAEXPBD0@Z PROC ; CChartAddInBase000000::OnLSharedDataChange, COMDAT
; _this$ = ecx

; 128  : 	virtual void	OnLSharedDataChange( const char *p_szLShareKey, const char *p_szLShareValue)	{}

  00000	c2 08 00	 ret	 8
?OnLSharedDataChange@CChartAddInBase000000@@MAEXPBD0@Z ENDP ; CChartAddInBase000000::OnLSharedDataChange
_TEXT	ENDS
; Function compile flags: /Ogtp
; File D:\git\src\IBK\IBK_DRFN\ProjSrc\SrcChartEx\ChartOCX\AddInManager\Include_AddIn\I000000\_ChartAddInBase.h
;	COMDAT ?OnGSharedDataChange@CChartAddInBase000000@@MAEXPBD0H@Z
_TEXT	SEGMENT
_p_szGShareKey$ = 8					; size = 4
_p_szGShareValue$ = 12					; size = 4
_p_bStartShare$ = 16					; size = 4
?OnGSharedDataChange@CChartAddInBase000000@@MAEXPBD0H@Z PROC ; CChartAddInBase000000::OnGSharedDataChange, COMDAT
; _this$ = ecx

; 126  : 	virtual void	OnGSharedDataChange( const char *p_szGShareKey, const char *p_szGShareValue, BOOL p_bStartShare)	{}

  00000	c2 0c 00	 ret	 12			; 0000000cH
?OnGSharedDataChange@CChartAddInBase000000@@MAEXPBD0H@Z ENDP ; CChartAddInBase000000::OnGSharedDataChange
_TEXT	ENDS
; Function compile flags: /Ogtp
; File D:\git\src\IBK\IBK_DRFN\ProjSrc\SrcChartEx\ChartOCX\AddInManager\Include_AddIn\I000000\_ChartAddInBase.h
;	COMDAT ?ChangeChartMode@CChartAddInBase000000@@MAEXW4CHART_MODE@CChartInfo@@@Z
_TEXT	SEGMENT
_p_eChartMode$ = 8					; size = 4
?ChangeChartMode@CChartAddInBase000000@@MAEXW4CHART_MODE@CChartInfo@@@Z PROC ; CChartAddInBase000000::ChangeChartMode, COMDAT
; _this$ = ecx

; 116  : 	virtual void	ChangeChartMode( CChartInfo::CHART_MODE p_eChartMode)	{	m_eChartMode = p_eChartMode;	}

  00000	55		 push	 ebp
  00001	8b ec		 mov	 ebp, esp
  00003	8b 45 08	 mov	 eax, DWORD PTR _p_eChartMode$[ebp]
  00006	89 41 34	 mov	 DWORD PTR [ecx+52], eax
  00009	5d		 pop	 ebp
  0000a	c2 04 00	 ret	 4
?ChangeChartMode@CChartAddInBase000000@@MAEXW4CHART_MODE@CChartInfo@@@Z ENDP ; CChartAddInBase000000::ChangeChartMode
_TEXT	ENDS
; Function compile flags: /Ogtp
; File D:\git\src\IBK\IBK_DRFN\ProjSrc\SrcChartEx\ChartOCX\AddInManager\Include_AddIn\I000000\_ChartAddInBase.h
;	COMDAT ?AfeterOnOcxDestroyWindow@CChartAddInBase000000@@MAEXXZ
_TEXT	SEGMENT
?AfeterOnOcxDestroyWindow@CChartAddInBase000000@@MAEXXZ PROC ; CChartAddInBase000000::AfeterOnOcxDestroyWindow, COMDAT
; _this$ = ecx

; 109  : 	virtual void	AfeterOnOcxDestroyWindow( void)							{}

  00000	c2 00 00	 ret	 0
?AfeterOnOcxDestroyWindow@CChartAddInBase000000@@MAEXXZ ENDP ; CChartAddInBase000000::AfeterOnOcxDestroyWindow
_TEXT	ENDS
; Function compile flags: /Ogtp
; File D:\git\src\IBK\IBK_DRFN\ProjSrc\SrcChartEx\ChartOCX\AddInManager\Include_AddIn\I000000\_ChartAddInBase.h
;	COMDAT ?InvokeAddInStr@CChartAddInBase000000@@MAEHPBD0@Z
_TEXT	SEGMENT
_p_szCommandName$ = 8					; size = 4
_p_szData$ = 12						; size = 4
?InvokeAddInStr@CChartAddInBase000000@@MAEHPBD0@Z PROC	; CChartAddInBase000000::InvokeAddInStr, COMDAT
; _this$ = ecx

; 92   : 	virtual BOOL	InvokeAddInStr( LPCTSTR p_szCommandName, LPCTSTR p_szData)	{	return FALSE;	}	// (2005/9/2 - Seung-Won, Bae) for String Data

  00000	33 c0		 xor	 eax, eax
  00002	c2 08 00	 ret	 8
?InvokeAddInStr@CChartAddInBase000000@@MAEHPBD0@Z ENDP	; CChartAddInBase000000::InvokeAddInStr
_TEXT	ENDS
; Function compile flags: /Ogtp
; File D:\git\src\IBK\IBK_DRFN\ProjSrc\SrcChartEx\ChartOCX\AddInManager\Include_AddIn\I000000\_ChartAddInBase.h
;	COMDAT ?InvokeAddIn@CChartAddInBase000000@@MAEHHJ@Z
_TEXT	SEGMENT
_p_nCommandType$ = 8					; size = 4
_p_lData$ = 12						; size = 4
?InvokeAddIn@CChartAddInBase000000@@MAEHHJ@Z PROC	; CChartAddInBase000000::InvokeAddIn, COMDAT
; _this$ = ecx

; 91   : 	virtual BOOL	InvokeAddIn( int p_nCommandType, long p_lData)	{	return FALSE;	}

  00000	33 c0		 xor	 eax, eax
  00002	c2 08 00	 ret	 8
?InvokeAddIn@CChartAddInBase000000@@MAEHHJ@Z ENDP	; CChartAddInBase000000::InvokeAddIn
_TEXT	ENDS
; Function compile flags: /Ogtp
; File D:\git\src\IBK\IBK_DRFN\ProjSrc\SrcChartEx\ChartOCX\AddInManager\Include_AddIn\I000000\_ChartAddInBase.h
;	COMDAT ?GetAddInCustomInterface@CChartAddInBase000000@@MAEPAUIUnknown@@XZ
_TEXT	SEGMENT
?GetAddInCustomInterface@CChartAddInBase000000@@MAEPAUIUnknown@@XZ PROC ; CChartAddInBase000000::GetAddInCustomInterface, COMDAT
; _this$ = ecx

; 87   : 	virtual IUnknown *	GetAddInCustomInterface( void)				{	return NULL;	}

  00000	33 c0		 xor	 eax, eax
  00002	c3		 ret	 0
?GetAddInCustomInterface@CChartAddInBase000000@@MAEPAUIUnknown@@XZ ENDP ; CChartAddInBase000000::GetAddInCustomInterface
_TEXT	ENDS
; Function compile flags: /Ogtp
; File D:\git\src\IBK\IBK_DRFN\ProjSrc\SrcChartEx\ChartOCX\AddInManager\Include_AddIn\I000000\_ChartAddInBase.h
;	COMDAT ?QueryInterface@CChartAddInBase000000@@MAGJABU_GUID@@PAPAX@Z
_TEXT	SEGMENT
_this$ = 8						; size = 4
_iid$ = 12						; size = 4
_ppvObject$ = 16					; size = 4
?QueryInterface@CChartAddInBase000000@@MAGJABU_GUID@@PAPAX@Z PROC ; CChartAddInBase000000::QueryInterface, COMDAT

; 54   : 	_IWRAPPER_IUNKNOWN_INTERFACE()

  00000	b8 02 40 00 80	 mov	 eax, -2147467262	; 80004002H
  00005	c2 0c 00	 ret	 12			; 0000000cH
?QueryInterface@CChartAddInBase000000@@MAGJABU_GUID@@PAPAX@Z ENDP ; CChartAddInBase000000::QueryInterface
_TEXT	ENDS
; Function compile flags: /Ogtp
; File D:\git\src\IBK\IBK_DRFN\ProjSrc\SrcChartEx\ChartOCX\AddInManager\Include_AddIn\I000000\_ChartAddInBase.h
;	COMDAT ?Release@CChartAddInBase000000@@MAGKXZ
_TEXT	SEGMENT
_this$ = 8						; size = 4
?Release@CChartAddInBase000000@@MAGKXZ PROC		; CChartAddInBase000000::Release, COMDAT

; 54   : 	_IWRAPPER_IUNKNOWN_INTERFACE()

  00000	55		 push	 ebp
  00001	8b ec		 mov	 ebp, esp
  00003	5d		 pop	 ebp
  00004	e9 00 00 00 00	 jmp	 ?Release@CIWUnknown@@MAGKXZ ; CIWUnknown::Release
?Release@CChartAddInBase000000@@MAGKXZ ENDP		; CChartAddInBase000000::Release
_TEXT	ENDS
; Function compile flags: /Ogtp
; File D:\git\src\IBK\IBK_DRFN\ProjSrc\SrcChartEx\ChartOCX\AddInManager\Include_AddIn\I000000\_ChartAddInBase.h
;	COMDAT ?AddRef@CChartAddInBase000000@@MAGKXZ
_TEXT	SEGMENT
_this$ = 8						; size = 4
?AddRef@CChartAddInBase000000@@MAGKXZ PROC		; CChartAddInBase000000::AddRef, COMDAT

; 54   : 	_IWRAPPER_IUNKNOWN_INTERFACE()

  00000	55		 push	 ebp
  00001	8b ec		 mov	 ebp, esp
  00003	5d		 pop	 ebp
  00004	e9 00 00 00 00	 jmp	 ?AddRef@CIWUnknown@@MAGKXZ ; CIWUnknown::AddRef
?AddRef@CChartAddInBase000000@@MAGKXZ ENDP		; CChartAddInBase000000::AddRef
_TEXT	ENDS
; Function compile flags: /Ogtp
; File D:\git\src\IBK\IBK_DRFN\ProjSrc\SrcChartEx\ChartOCX\AddInManager\Include_AddIn\_IWUnknown.h
;	COMDAT ?PreDestruct@CIWUnknown@@MAEXXZ
_TEXT	SEGMENT
?PreDestruct@CIWUnknown@@MAEXXZ PROC			; CIWUnknown::PreDestruct, COMDAT
; _this$ = ecx

; 49   : 	virtual void	PreDestruct( void)		{}

  00000	c2 00 00	 ret	 0
?PreDestruct@CIWUnknown@@MAEXXZ ENDP			; CIWUnknown::PreDestruct
_TEXT	ENDS
; Function compile flags: /Ogtp
; File D:\git\src\IBK\IBK_DRFN\ProjSrc\SrcChartEx\ChartOCX\AddInManager\Include_AddIn\_IWUnknown.h
;	COMDAT ?PreDestructX@CIWUnknown@@MAEXXZ
_TEXT	SEGMENT
?PreDestructX@CIWUnknown@@MAEXXZ PROC			; CIWUnknown::PreDestructX, COMDAT
; _this$ = ecx

; 48   : 	virtual void	PreDestructX( void)		{}

  00000	c2 00 00	 ret	 0
?PreDestructX@CIWUnknown@@MAEXXZ ENDP			; CIWUnknown::PreDestructX
_TEXT	ENDS
; Function compile flags: /Ogtp
; File D:\git\src\IBK\IBK_DRFN\ProjSrc\SrcChartEx\ChartOCX\AddInManager\Include_AddIn\_IWUnknown.h
;	COMDAT ?PostConstruct@CIWUnknown@@MAEXXZ
_TEXT	SEGMENT
?PostConstruct@CIWUnknown@@MAEXXZ PROC			; CIWUnknown::PostConstruct, COMDAT
; _this$ = ecx

; 47   : 	virtual void	PostConstruct( void)	{}

  00000	c2 00 00	 ret	 0
?PostConstruct@CIWUnknown@@MAEXXZ ENDP			; CIWUnknown::PostConstruct
_TEXT	ENDS
; Function compile flags: /Ogtp
; File C:\Program Files (x86)\Microsoft Visual Studio\2019\Community\VC\Tools\MSVC\14.29.30133\atlmfc\include\afxwin1.inl
; File C:\Program Files (x86)\Microsoft Visual Studio\2019\Community\VC\Tools\MSVC\14.29.30133\atlmfc\include\afx.inl
;	COMDAT ??_GCBrush@@UAEPAXI@Z
_TEXT	SEGMENT
___flags$ = 8						; size = 4
??_GCBrush@@UAEPAXI@Z PROC				; CBrush::`scalar deleting destructor', COMDAT
; _this$ = ecx
  00000	55		 push	 ebp
  00001	8b ec		 mov	 ebp, esp
; File C:\Program Files (x86)\Microsoft Visual Studio\2019\Community\VC\Tools\MSVC\14.29.30133\atlmfc\include\afxwin1.inl

; 130  : 	{ }

  00003	56		 push	 esi
  00004	8b f1		 mov	 esi, ecx
  00006	c7 06 00 00 00
	00		 mov	 DWORD PTR [esi], OFFSET ??_7CBrush@@6B@
  0000c	e8 00 00 00 00	 call	 ??1CGdiObject@@UAE@XZ	; CGdiObject::~CGdiObject
  00011	8b 45 08	 mov	 eax, DWORD PTR ___flags$[ebp]
  00014	a8 01		 test	 al, 1
  00016	74 1f		 je	 SHORT $LN12@scalar
  00018	a8 04		 test	 al, 4
  0001a	75 10		 jne	 SHORT $LN3@scalar
; File C:\Program Files (x86)\Microsoft Visual Studio\2019\Community\VC\Tools\MSVC\14.29.30133\atlmfc\include\afx.inl

; 112  : 	{ ::operator delete(p); }

  0001c	56		 push	 esi
  0001d	e8 00 00 00 00	 call	 ??3@YAXPAX@Z		; operator delete
  00022	83 c4 04	 add	 esp, 4
  00025	8b c6		 mov	 eax, esi
  00027	5e		 pop	 esi
  00028	5d		 pop	 ebp
  00029	c2 04 00	 ret	 4
$LN3@scalar:
  0002c	6a 08		 push	 8
  0002e	56		 push	 esi
  0002f	e8 00 00 00 00	 call	 ?__global_delete@@YAXPAXI@Z ; __global_delete
  00034	83 c4 08	 add	 esp, 8
$LN12@scalar:
  00037	8b c6		 mov	 eax, esi
  00039	5e		 pop	 esi
  0003a	5d		 pop	 ebp
  0003b	c2 04 00	 ret	 4
??_GCBrush@@UAEPAXI@Z ENDP				; CBrush::`scalar deleting destructor'
_TEXT	ENDS
; Function compile flags: /Ogtp
; File C:\Program Files (x86)\Microsoft Visual Studio\2019\Community\VC\Tools\MSVC\14.29.30133\atlmfc\include\afxwin1.inl
;	COMDAT ??1CBrush@@UAE@XZ
_TEXT	SEGMENT
??1CBrush@@UAE@XZ PROC					; CBrush::~CBrush, COMDAT
; _this$ = ecx

; 130  : 	{ }

  00000	c7 01 00 00 00
	00		 mov	 DWORD PTR [ecx], OFFSET ??_7CBrush@@6B@
  00006	e9 00 00 00 00	 jmp	 ??1CGdiObject@@UAE@XZ	; CGdiObject::~CGdiObject
??1CBrush@@UAE@XZ ENDP					; CBrush::~CBrush
_TEXT	ENDS
; Function compile flags: /Ogtp
; File C:\Program Files (x86)\Microsoft Visual Studio\2019\Community\VC\Tools\MSVC\14.29.30133\atlmfc\include\afxwin1.inl
; File C:\Program Files (x86)\Microsoft Visual Studio\2019\Community\VC\Tools\MSVC\14.29.30133\atlmfc\include\afx.inl
;	COMDAT ??_GCPen@@UAEPAXI@Z
_TEXT	SEGMENT
___flags$ = 8						; size = 4
??_GCPen@@UAEPAXI@Z PROC				; CPen::`scalar deleting destructor', COMDAT
; _this$ = ecx
  00000	55		 push	 ebp
  00001	8b ec		 mov	 ebp, esp
; File C:\Program Files (x86)\Microsoft Visual Studio\2019\Community\VC\Tools\MSVC\14.29.30133\atlmfc\include\afxwin1.inl

; 106  : 	{ }

  00003	56		 push	 esi
  00004	8b f1		 mov	 esi, ecx
  00006	c7 06 00 00 00
	00		 mov	 DWORD PTR [esi], OFFSET ??_7CPen@@6B@
  0000c	e8 00 00 00 00	 call	 ??1CGdiObject@@UAE@XZ	; CGdiObject::~CGdiObject
  00011	8b 45 08	 mov	 eax, DWORD PTR ___flags$[ebp]
  00014	a8 01		 test	 al, 1
  00016	74 1f		 je	 SHORT $LN12@scalar
  00018	a8 04		 test	 al, 4
  0001a	75 10		 jne	 SHORT $LN3@scalar
; File C:\Program Files (x86)\Microsoft Visual Studio\2019\Community\VC\Tools\MSVC\14.29.30133\atlmfc\include\afx.inl

; 112  : 	{ ::operator delete(p); }

  0001c	56		 push	 esi
  0001d	e8 00 00 00 00	 call	 ??3@YAXPAX@Z		; operator delete
  00022	83 c4 04	 add	 esp, 4
  00025	8b c6		 mov	 eax, esi
  00027	5e		 pop	 esi
  00028	5d		 pop	 ebp
  00029	c2 04 00	 ret	 4
$LN3@scalar:
  0002c	6a 08		 push	 8
  0002e	56		 push	 esi
  0002f	e8 00 00 00 00	 call	 ?__global_delete@@YAXPAXI@Z ; __global_delete
  00034	83 c4 08	 add	 esp, 8
$LN12@scalar:
  00037	8b c6		 mov	 eax, esi
  00039	5e		 pop	 esi
  0003a	5d		 pop	 ebp
  0003b	c2 04 00	 ret	 4
??_GCPen@@UAEPAXI@Z ENDP				; CPen::`scalar deleting destructor'
_TEXT	ENDS
; Function compile flags: /Ogtp
; File C:\Program Files (x86)\Microsoft Visual Studio\2019\Community\VC\Tools\MSVC\14.29.30133\atlmfc\include\afxwin1.inl
;	COMDAT ??1CPen@@UAE@XZ
_TEXT	SEGMENT
??1CPen@@UAE@XZ PROC					; CPen::~CPen, COMDAT
; _this$ = ecx

; 106  : 	{ }

  00000	c7 01 00 00 00
	00		 mov	 DWORD PTR [ecx], OFFSET ??_7CPen@@6B@
  00006	e9 00 00 00 00	 jmp	 ??1CGdiObject@@UAE@XZ	; CGdiObject::~CGdiObject
??1CPen@@UAE@XZ ENDP					; CPen::~CPen
_TEXT	ENDS
; Function compile flags: /Ogtp
; File C:\Program Files (x86)\Microsoft Visual Studio\2019\Community\VC\Tools\MSVC\14.29.30133\atlmfc\include\afx.inl
;	COMDAT ??_GCGdiObject@@UAEPAXI@Z
_TEXT	SEGMENT
___flags$ = 8						; size = 4
??_GCGdiObject@@UAEPAXI@Z PROC				; CGdiObject::`scalar deleting destructor', COMDAT
; _this$ = ecx
  00000	55		 push	 ebp
  00001	8b ec		 mov	 ebp, esp
  00003	56		 push	 esi
  00004	8b f1		 mov	 esi, ecx
  00006	e8 00 00 00 00	 call	 ??1CGdiObject@@UAE@XZ	; CGdiObject::~CGdiObject
  0000b	8b 45 08	 mov	 eax, DWORD PTR ___flags$[ebp]
  0000e	a8 01		 test	 al, 1
  00010	74 1f		 je	 SHORT $LN9@scalar
  00012	a8 04		 test	 al, 4
  00014	75 10		 jne	 SHORT $LN3@scalar

; 112  : 	{ ::operator delete(p); }

  00016	56		 push	 esi
  00017	e8 00 00 00 00	 call	 ??3@YAXPAX@Z		; operator delete
  0001c	83 c4 04	 add	 esp, 4
  0001f	8b c6		 mov	 eax, esi
  00021	5e		 pop	 esi
  00022	5d		 pop	 ebp
  00023	c2 04 00	 ret	 4
$LN3@scalar:
  00026	6a 08		 push	 8
  00028	56		 push	 esi
  00029	e8 00 00 00 00	 call	 ?__global_delete@@YAXPAXI@Z ; __global_delete
  0002e	83 c4 08	 add	 esp, 8
$LN9@scalar:
  00031	8b c6		 mov	 eax, esi
  00033	5e		 pop	 esi
  00034	5d		 pop	 ebp
  00035	c2 04 00	 ret	 4
??_GCGdiObject@@UAEPAXI@Z ENDP				; CGdiObject::`scalar deleting destructor'
_TEXT	ENDS
; Function compile flags: /Ogtp
; File C:\Program Files (x86)\Microsoft Visual Studio\2019\Community\VC\Tools\MSVC\14.29.30133\atlmfc\include\afxwin1.inl
;	COMDAT ??1CGdiObject@@UAE@XZ
_TEXT	SEGMENT
_pException$2 = -540					; size = 4
_strMsg$3 = -536					; size = 4
_szErrorMessage$4 = -532				; size = 512
__$ArrayPad$ = -20					; size = 4
__$EHRec$ = -16						; size = 16
??1CGdiObject@@UAE@XZ PROC				; CGdiObject::~CGdiObject, COMDAT
; _this$ = ecx

; 74   : {

  00000	55		 push	 ebp
  00001	8b ec		 mov	 ebp, esp
  00003	6a ff		 push	 -1
  00005	68 00 00 00 00	 push	 __ehhandler$??1CGdiObject@@UAE@XZ
  0000a	64 a1 00 00 00
	00		 mov	 eax, DWORD PTR fs:0
  00010	50		 push	 eax
  00011	81 ec 10 02 00
	00		 sub	 esp, 528		; 00000210H
  00017	a1 00 00 00 00	 mov	 eax, DWORD PTR ___security_cookie
  0001c	33 c5		 xor	 eax, ebp
  0001e	89 45 ec	 mov	 DWORD PTR __$ArrayPad$[ebp], eax
  00021	53		 push	 ebx
  00022	56		 push	 esi
  00023	57		 push	 edi
  00024	50		 push	 eax
  00025	8d 45 f4	 lea	 eax, DWORD PTR __$EHRec$[ebp+4]
  00028	64 a3 00 00 00
	00		 mov	 DWORD PTR fs:0, eax
  0002e	89 65 f0	 mov	 DWORD PTR __$EHRec$[ebp], esp
  00031	c7 01 00 00 00
	00		 mov	 DWORD PTR [ecx], OFFSET ??_7CGdiObject@@6B@

; 75   : 	AFX_BEGIN_DESTRUCTOR

  00037	c7 45 fc 00 00
	00 00		 mov	 DWORD PTR __$EHRec$[ebp+12], 0

; 76   : 	DeleteObject();

  0003e	e8 00 00 00 00	 call	 ?DeleteObject@CGdiObject@@QAEHXZ ; CGdiObject::DeleteObject
$LN18@CGdiObject:

; 78   : }

  00043	8b 4d f4	 mov	 ecx, DWORD PTR __$EHRec$[ebp+4]
  00046	64 89 0d 00 00
	00 00		 mov	 DWORD PTR fs:0, ecx
  0004d	59		 pop	 ecx
  0004e	5f		 pop	 edi
  0004f	5e		 pop	 esi
  00050	5b		 pop	 ebx
  00051	8b 4d ec	 mov	 ecx, DWORD PTR __$ArrayPad$[ebp]
  00054	33 cd		 xor	 ecx, ebp
  00056	e8 00 00 00 00	 call	 @__security_check_cookie@4
  0005b	8b e5		 mov	 esp, ebp
  0005d	5d		 pop	 ebp
  0005e	c3		 ret	 0
__catch$??1CGdiObject@@UAE@XZ$0:

; 77   : 	AFX_END_DESTRUCTOR

  0005f	8d 8d e8 fd ff
	ff		 lea	 ecx, DWORD PTR _strMsg$3[ebp]
  00065	ff 15 00 00 00
	00		 call	 DWORD PTR __imp_??0?$CStringT@DV?$StrTraitMFC_DLL@DV?$ChTraitsCRT@D@ATL@@@@@ATL@@QAE@XZ
  0006b	8b b5 e4 fd ff
	ff		 mov	 esi, DWORD PTR _pException$2[ebp]
  00071	8d 8d ec fd ff
	ff		 lea	 ecx, DWORD PTR _szErrorMessage$4[ebp]
  00077	6a 00		 push	 0
  00079	68 00 02 00 00	 push	 512			; 00000200H
  0007e	51		 push	 ecx
  0007f	8b 06		 mov	 eax, DWORD PTR [esi]
  00081	8b ce		 mov	 ecx, esi
  00083	c6 45 fc 02	 mov	 BYTE PTR __$EHRec$[ebp+12], 2
  00087	ff 50 14	 call	 DWORD PTR [eax+20]
  0008a	85 c0		 test	 eax, eax
  0008c	74 2a		 je	 SHORT $LN9@CGdiObject
  0008e	8d 85 ec fd ff
	ff		 lea	 eax, DWORD PTR _szErrorMessage$4[ebp]
  00094	50		 push	 eax
  00095	6a 4d		 push	 77			; 0000004dH
  00097	68 00 00 00 00	 push	 OFFSET ??_C@_0HD@JJCHHHNK@C?3?2Program?5Files?5?$CIx86?$CJ?2Microsof@
  0009c	68 00 00 00 00	 push	 OFFSET ??_C@_0BP@OIEOKIDM@Exception?5thrown?5in?5destructor@
  000a1	8d 85 e8 fd ff
	ff		 lea	 eax, DWORD PTR _strMsg$3[ebp]
  000a7	68 00 00 00 00	 push	 OFFSET ??_C@_0BB@HBOOMJBF@?$CFTs?5?$CI?$CFTs?3?$CFd?$CJ?6?$CFTs@
  000ac	50		 push	 eax
  000ad	ff 15 00 00 00
	00		 call	 DWORD PTR __imp_?Format@?$CStringT@DV?$StrTraitMFC_DLL@DV?$ChTraitsCRT@D@ATL@@@@@ATL@@QAAXPBDZZ
  000b3	83 c4 18	 add	 esp, 24			; 00000018H
  000b6	eb 21		 jmp	 SHORT $LN10@CGdiObject
$LN9@CGdiObject:
  000b8	6a 4d		 push	 77			; 0000004dH
  000ba	68 00 00 00 00	 push	 OFFSET ??_C@_0HD@JJCHHHNK@C?3?2Program?5Files?5?$CIx86?$CJ?2Microsof@
  000bf	68 00 00 00 00	 push	 OFFSET ??_C@_0BP@OIEOKIDM@Exception?5thrown?5in?5destructor@
  000c4	8d 85 e8 fd ff
	ff		 lea	 eax, DWORD PTR _strMsg$3[ebp]
  000ca	68 00 00 00 00	 push	 OFFSET ??_C@_0N@OMEMOKLE@?$CFTs?5?$CI?$CFTs?3?$CFd?$CJ@
  000cf	50		 push	 eax
  000d0	ff 15 00 00 00
	00		 call	 DWORD PTR __imp_?Format@?$CStringT@DV?$StrTraitMFC_DLL@DV?$ChTraitsCRT@D@ATL@@@@@ATL@@QAAXPBDZZ
  000d6	83 c4 14	 add	 esp, 20			; 00000014H
$LN10@CGdiObject:
  000d9	6a 00		 push	 0
  000db	6a 00		 push	 0
  000dd	ff b5 e8 fd ff
	ff		 push	 DWORD PTR _strMsg$3[ebp]
  000e3	e8 00 00 00 00	 call	 ?AfxMessageBox@@YGHPBDII@Z ; AfxMessageBox
  000e8	8d 8d e8 fd ff
	ff		 lea	 ecx, DWORD PTR _strMsg$3[ebp]
  000ee	ff 15 00 00 00
	00		 call	 DWORD PTR __imp_??1?$CStringT@DV?$StrTraitMFC_DLL@DV?$ChTraitsCRT@D@ATL@@@@@ATL@@QAE@XZ
  000f4	8b 06		 mov	 eax, DWORD PTR [esi]
  000f6	8b ce		 mov	 ecx, esi
  000f8	6a 01		 push	 1
  000fa	ff 50 04	 call	 DWORD PTR [eax+4]
  000fd	b8 00 00 00 00	 mov	 eax, $LN18@CGdiObject
  00102	c3		 ret	 0
_TEXT	ENDS
;	COMDAT text$x
text$x	SEGMENT
__unwindfunclet$??1CGdiObject@@UAE@XZ$2:
  00000	8d 8d e8 fd ff
	ff		 lea	 ecx, DWORD PTR _strMsg$3[ebp]
  00006	ff 25 00 00 00
	00		 jmp	 DWORD PTR __imp_??1?$CStringT@DV?$StrTraitMFC_DLL@DV?$ChTraitsCRT@D@ATL@@@@@ATL@@QAE@XZ
  0000c	cc		 int	 3
  0000d	cc		 int	 3
  0000e	cc		 int	 3
  0000f	cc		 int	 3
  00010	cc		 int	 3
__ehhandler$??1CGdiObject@@UAE@XZ:
  00011	90		 npad	 1
  00012	90		 npad	 1
  00013	8b 54 24 08	 mov	 edx, DWORD PTR [esp+8]
  00017	8d 42 0c	 lea	 eax, DWORD PTR [edx+12]
  0001a	8b 8a e0 fd ff
	ff		 mov	 ecx, DWORD PTR [edx-544]
  00020	33 c8		 xor	 ecx, eax
  00022	e8 00 00 00 00	 call	 @__security_check_cookie@4
  00027	8b 4a f8	 mov	 ecx, DWORD PTR [edx-8]
  0002a	33 c8		 xor	 ecx, eax
  0002c	e8 00 00 00 00	 call	 @__security_check_cookie@4
  00031	b8 00 00 00 00	 mov	 eax, OFFSET __ehfuncinfo$??1CGdiObject@@UAE@XZ
  00036	e9 00 00 00 00	 jmp	 ___CxxFrameHandler3
text$x	ENDS
??1CGdiObject@@UAE@XZ ENDP				; CGdiObject::~CGdiObject
; Function compile flags: /Ogtp
; File C:\Program Files (x86)\Microsoft Visual Studio\2019\Community\VC\Tools\MSVC\14.29.30133\atlmfc\include\atltypes.h
;	COMDAT ??0CPoint@@QAE@XZ
_TEXT	SEGMENT
??0CPoint@@QAE@XZ PROC					; CPoint::CPoint, COMDAT
; _this$ = ecx

; 400  : 	x = 0;

  00000	c7 01 00 00 00
	00		 mov	 DWORD PTR [ecx], 0

; 401  : 	y = 0;
; 402  : }

  00006	8b c1		 mov	 eax, ecx
  00008	c7 41 04 00 00
	00 00		 mov	 DWORD PTR [ecx+4], 0
  0000f	c3		 ret	 0
??0CPoint@@QAE@XZ ENDP					; CPoint::CPoint
_TEXT	ENDS
; Function compile flags: /Ogtp
; File C:\Program Files (x86)\Microsoft Visual Studio\2019\Community\VC\Tools\MSVC\14.29.30133\atlmfc\include\cstringt.h
; File C:\Program Files (x86)\Microsoft Visual Studio\2019\Community\VC\Tools\MSVC\14.29.30133\atlmfc\include\atlsimpstr.h
; File C:\Program Files (x86)\Microsoft Visual Studio\2019\Community\VC\Tools\MSVC\14.29.30133\atlmfc\include\cstringt.h
; File C:\Program Files (x86)\Microsoft Visual Studio\2019\Community\VC\Tools\MSVC\14.29.30133\atlmfc\include\atlsimpstr.h
; File C:\Program Files (x86)\Microsoft Visual Studio\2019\Community\VC\Tools\MSVC\14.29.30133\atlmfc\include\cstringt.h
;	COMDAT ??HATL@@YA?AV?$CStringT@DV?$StrTraitMFC_DLL@DV?$ChTraitsCRT@D@ATL@@@@@0@ABV10@PBD@Z
_TEXT	SEGMENT
$T2 = -16						; size = 4
__$EHRec$ = -12						; size = 12
___$ReturnUdt$ = 8					; size = 4
_str1$ = 12						; size = 4
_psz2$ = 16						; size = 4
??HATL@@YA?AV?$CStringT@DV?$StrTraitMFC_DLL@DV?$ChTraitsCRT@D@ATL@@@@@0@ABV10@PBD@Z PROC ; ATL::operator+, COMDAT

; 2400 : 	{

  00000	55		 push	 ebp
  00001	8b ec		 mov	 ebp, esp
  00003	6a ff		 push	 -1
  00005	68 00 00 00 00	 push	 __ehhandler$??HATL@@YA?AV?$CStringT@DV?$StrTraitMFC_DLL@DV?$ChTraitsCRT@D@ATL@@@@@0@ABV10@PBD@Z
  0000a	64 a1 00 00 00
	00		 mov	 eax, DWORD PTR fs:0
  00010	50		 push	 eax
  00011	51		 push	 ecx
  00012	53		 push	 ebx
  00013	56		 push	 esi
  00014	57		 push	 edi
  00015	a1 00 00 00 00	 mov	 eax, DWORD PTR ___security_cookie
  0001a	33 c5		 xor	 eax, ebp
  0001c	50		 push	 eax
  0001d	8d 45 f4	 lea	 eax, DWORD PTR __$EHRec$[ebp]
  00020	64 a3 00 00 00
	00		 mov	 DWORD PTR fs:0, eax

; 2401 : 		CStringT strResult( str1.GetManager() );

  00026	8b 5d 0c	 mov	 ebx, DWORD PTR _str1$[ebp]
  00029	8b cb		 mov	 ecx, ebx
  0002b	c7 45 f0 00 00
	00 00		 mov	 DWORD PTR $T2[ebp], 0
  00032	ff 15 00 00 00
	00		 call	 DWORD PTR __imp_?GetManager@?$CStringT@DV?$StrTraitMFC_DLL@DV?$ChTraitsCRT@D@ATL@@@@@ATL@@QBEPAUIAtlStringMgr@2@XZ
  00038	8b 7d 08	 mov	 edi, DWORD PTR ___$ReturnUdt$[ebp]
  0003b	8b cf		 mov	 ecx, edi
  0003d	50		 push	 eax
  0003e	ff 15 00 00 00
	00		 call	 DWORD PTR __imp_??0?$CStringT@DV?$StrTraitMFC_DLL@DV?$ChTraitsCRT@D@ATL@@@@@ATL@@QAE@PAUIAtlStringMgr@1@@Z
; File C:\Program Files (x86)\Microsoft Visual Studio\2019\Community\VC\Tools\MSVC\14.29.30133\atlmfc\include\atlsimpstr.h

; 722  : 		if( psz == NULL )

  00044	8b 75 10	 mov	 esi, DWORD PTR _psz2$[ebp]
; File C:\Program Files (x86)\Microsoft Visual Studio\2019\Community\VC\Tools\MSVC\14.29.30133\atlmfc\include\cstringt.h

; 2405 : 		return( strResult );

  00047	c7 45 fc 00 00
	00 00		 mov	 DWORD PTR __$EHRec$[ebp+8], 0
  0004e	c7 45 f0 01 00
	00 00		 mov	 DWORD PTR $T2[ebp], 1
; File C:\Program Files (x86)\Microsoft Visual Studio\2019\Community\VC\Tools\MSVC\14.29.30133\atlmfc\include\atlsimpstr.h

; 722  : 		if( psz == NULL )

  00055	85 f6		 test	 esi, esi
  00057	75 04		 jne	 SHORT $LN6@operator

; 723  : 		{
; 724  : 			return( 0 );

  00059	33 d2		 xor	 edx, edx
  0005b	eb 0e		 jmp	 SHORT $LN5@operator
$LN6@operator:

; 725  : 		}
; 726  : 		return( int( strlen( psz ) ) );

  0005d	8b d6		 mov	 edx, esi
  0005f	8d 4a 01	 lea	 ecx, DWORD PTR [edx+1]
$LL14@operator:
  00062	8a 02		 mov	 al, BYTE PTR [edx]
  00064	42		 inc	 edx
  00065	84 c0		 test	 al, al
  00067	75 f9		 jne	 SHORT $LL14@operator
  00069	2b d1		 sub	 edx, ecx
$LN5@operator:

; 519  : 		return( GetData()->nDataLength );

  0006b	8b 0b		 mov	 ecx, DWORD PTR [ebx]
; File C:\Program Files (x86)\Microsoft Visual Studio\2019\Community\VC\Tools\MSVC\14.29.30133\atlmfc\include\cstringt.h

; 2403 : 		CThisSimpleString::Concatenate( strResult, str1, str1.GetLength(), psz2, CThisSimpleString::StringLength( psz2 ) );

  0006d	52		 push	 edx
  0006e	56		 push	 esi
  0006f	ff 71 f4	 push	 DWORD PTR [ecx-12]
  00072	51		 push	 ecx
  00073	57		 push	 edi
  00074	ff 15 00 00 00
	00		 call	 DWORD PTR __imp_?Concatenate@?$CSimpleStringT@D$00@ATL@@KAXAAV12@PBDH1H@Z
  0007a	83 c4 14	 add	 esp, 20			; 00000014H

; 2405 : 		return( strResult );

  0007d	8b c7		 mov	 eax, edi

; 2406 : 	}

  0007f	8b 4d f4	 mov	 ecx, DWORD PTR __$EHRec$[ebp]
  00082	64 89 0d 00 00
	00 00		 mov	 DWORD PTR fs:0, ecx
  00089	59		 pop	 ecx
  0008a	5f		 pop	 edi
  0008b	5e		 pop	 esi
  0008c	5b		 pop	 ebx
  0008d	8b e5		 mov	 esp, ebp
  0008f	5d		 pop	 ebp
  00090	c3		 ret	 0
_TEXT	ENDS
;	COMDAT text$x
text$x	SEGMENT
__unwindfunclet$??HATL@@YA?AV?$CStringT@DV?$StrTraitMFC_DLL@DV?$ChTraitsCRT@D@ATL@@@@@0@ABV10@PBD@Z$0:
  00000	8b 45 f0	 mov	 eax, DWORD PTR $T2[ebp]
  00003	83 e0 01	 and	 eax, 1
  00006	0f 84 0d 00 00
	00		 je	 $LN4@operator
  0000c	83 65 f0 fe	 and	 DWORD PTR $T2[ebp], -2	; fffffffeH
  00010	8b 4d 08	 mov	 ecx, DWORD PTR ___$ReturnUdt$[ebp]
  00013	ff 25 00 00 00
	00		 jmp	 DWORD PTR __imp_??1?$CStringT@DV?$StrTraitMFC_DLL@DV?$ChTraitsCRT@D@ATL@@@@@ATL@@QAE@XZ
$LN4@operator:
  00019	c3		 ret	 0
  0001a	cc		 int	 3
  0001b	cc		 int	 3
  0001c	cc		 int	 3
  0001d	cc		 int	 3
  0001e	cc		 int	 3
__ehhandler$??HATL@@YA?AV?$CStringT@DV?$StrTraitMFC_DLL@DV?$ChTraitsCRT@D@ATL@@@@@0@ABV10@PBD@Z:
  0001f	90		 npad	 1
  00020	90		 npad	 1
  00021	8b 54 24 08	 mov	 edx, DWORD PTR [esp+8]
  00025	8d 42 0c	 lea	 eax, DWORD PTR [edx+12]
  00028	8b 4a ec	 mov	 ecx, DWORD PTR [edx-20]
  0002b	33 c8		 xor	 ecx, eax
  0002d	e8 00 00 00 00	 call	 @__security_check_cookie@4
  00032	b8 00 00 00 00	 mov	 eax, OFFSET __ehfuncinfo$??HATL@@YA?AV?$CStringT@DV?$StrTraitMFC_DLL@DV?$ChTraitsCRT@D@ATL@@@@@0@ABV10@PBD@Z
  00037	e9 00 00 00 00	 jmp	 ___CxxFrameHandler3
text$x	ENDS
??HATL@@YA?AV?$CStringT@DV?$StrTraitMFC_DLL@DV?$ChTraitsCRT@D@ATL@@@@@0@ABV10@PBD@Z ENDP ; ATL::operator+
; Function compile flags: /Ogtp
; File C:\Program Files (x86)\Microsoft Visual Studio\2019\Community\VC\Tools\MSVC\14.29.30133\atlmfc\include\afx.inl
;	COMDAT ?Dump@CObject@@UBEXAAVCDumpContext@@@Z
_TEXT	SEGMENT
___formal$ = 8						; size = 4
?Dump@CObject@@UBEXAAVCDumpContext@@@Z PROC		; CObject::Dump, COMDAT
; _this$ = ecx

; 122  : 	{ /* no dumping in release builds */ }

  00000	c2 04 00	 ret	 4
?Dump@CObject@@UBEXAAVCDumpContext@@@Z ENDP		; CObject::Dump
_TEXT	ENDS
; Function compile flags: /Ogtp
; File C:\Program Files (x86)\Microsoft Visual Studio\2019\Community\VC\Tools\MSVC\14.29.30133\atlmfc\include\afx.inl
;	COMDAT ?AssertValid@CObject@@UBEXXZ
_TEXT	SEGMENT
?AssertValid@CObject@@UBEXXZ PROC			; CObject::AssertValid, COMDAT
; _this$ = ecx

; 120  : 	{ /* no asserts in release builds */ }

  00000	c2 00 00	 ret	 0
?AssertValid@CObject@@UBEXXZ ENDP			; CObject::AssertValid
_TEXT	ENDS
; Function compile flags: /Ogtp
; File C:\Program Files (x86)\Microsoft Visual Studio\2019\Community\VC\Tools\MSVC\14.29.30133\atlmfc\include\afx.inl
;	COMDAT ?Serialize@CObject@@UAEXAAVCArchive@@@Z
_TEXT	SEGMENT
___formal$ = 8						; size = 4
?Serialize@CObject@@UAEXAAVCArchive@@@Z PROC		; CObject::Serialize, COMDAT
; _this$ = ecx

; 106  : 	{ /* CObject does not serialize anything by default */ }

  00000	c2 04 00	 ret	 4
?Serialize@CObject@@UAEXAAVCArchive@@@Z ENDP		; CObject::Serialize
_TEXT	ENDS
; Function compile flags: /Ogtp
; File C:\Program Files (x86)\Microsoft Visual Studio\2019\Community\VC\Tools\MSVC\14.29.30133\atlmfc\include\afx.inl
;	COMDAT ??1CObject@@UAE@XZ
_TEXT	SEGMENT
??1CObject@@UAE@XZ PROC					; CObject::~CObject, COMDAT
; _this$ = ecx

; 104  : 	{ }

  00000	c2 00 00	 ret	 0
??1CObject@@UAE@XZ ENDP					; CObject::~CObject
_TEXT	ENDS
; Function compile flags: /Ogtp
; File D:\git\src\IBK\IBK_DRFN\ProjSrc\SrcChartEx\ChartOCX\AddInManager\ChartCommonAddIn\BoundMarkerAddInImp.cpp
;	COMDAT ?__empty_global_delete@@YAXPAXI@Z
_TEXT	SEGMENT
___formal$ = 8						; size = 4
___formal$ = 12						; size = 4
?__empty_global_delete@@YAXPAXI@Z PROC			; __empty_global_delete, COMDAT

  00000	c2 00 00	 ret	 0
?__empty_global_delete@@YAXPAXI@Z ENDP			; __empty_global_delete
_TEXT	ENDS
; Function compile flags: /Ogtp
; File D:\git\src\IBK\IBK_DRFN\ProjSrc\SrcChartEx\ChartOCX\AddInManager\ChartCommonAddIn\BoundMarkerAddInImp.cpp
;	COMDAT ?__empty_global_delete@@YAXPAX@Z
_TEXT	SEGMENT
___formal$ = 8						; size = 4
?__empty_global_delete@@YAXPAX@Z PROC			; __empty_global_delete, COMDAT

  00000	c2 00 00	 ret	 0
?__empty_global_delete@@YAXPAX@Z ENDP			; __empty_global_delete
_TEXT	ENDS
; Function compile flags: /Ogtp
;	COMDAT ??_H@YGXPAXIIP6EPAX0@Z@Z
_TEXT	SEGMENT
___t$ = 8						; size = 4
___s$ = 12						; size = 4
___n$ = 16						; size = 4
___f$ = 20						; size = 4
??_H@YGXPAXIIP6EPAX0@Z@Z PROC				; `vector constructor iterator', COMDAT
  00000	55		 push	 ebp
  00001	8b ec		 mov	 ebp, esp
  00003	56		 push	 esi
  00004	8b 75 10	 mov	 esi, DWORD PTR ___n$[ebp]
  00007	85 f6		 test	 esi, esi
  00009	74 16		 je	 SHORT $LN6@vector
  0000b	53		 push	 ebx
  0000c	8b 5d 14	 mov	 ebx, DWORD PTR ___f$[ebp]
  0000f	57		 push	 edi
  00010	8b 7d 08	 mov	 edi, DWORD PTR ___t$[ebp]
$LL2@vector:
  00013	8b cf		 mov	 ecx, edi
  00015	ff d3		 call	 ebx
  00017	03 7d 0c	 add	 edi, DWORD PTR ___s$[ebp]
  0001a	83 ee 01	 sub	 esi, 1
  0001d	75 f4		 jne	 SHORT $LL2@vector
  0001f	5f		 pop	 edi
  00020	5b		 pop	 ebx
$LN6@vector:
  00021	5e		 pop	 esi
  00022	5d		 pop	 ebp
  00023	c2 10 00	 ret	 16			; 00000010H
??_H@YGXPAXIIP6EPAX0@Z@Z ENDP				; `vector constructor iterator'
_TEXT	ENDS
END
